
scope.elf:     file format elf32-littlearm


Disassembly of section .text:

00008000 <__code_start__>:
    8000:	e3a00013 	mov	r0, #19, 0
    8004:	e3800080 	orr	r0, r0, #128, 0	; 0x80
    8008:	e129f000 	msr	CPSR_fc, r0
    800c:	e3a01000 	mov	r1, #0, 0
    8010:	ee071f95 	mcr	15, 0, r1, cr7, cr5, {4}
    8014:	e3a0d302 	mov	sp, #134217728	; 0x8000000
    8018:	e3a0b000 	mov	fp, #0, 0
    801c:	eb0003ad 	bl	8ed8 <_cstart>
    8020:	eb0003f6 	bl	9000 <rpi_reboot>

00008024 <PUT32>:
    8024:	e5801000 	str	r1, [r0]
    8028:	e12fff1e 	bx	lr

0000802c <GET32>:
    802c:	e5900000 	ldr	r0, [r0]
    8030:	e12fff1e 	bx	lr

00008034 <BRANCHTO>:
    8034:	e12fff10 	bx	r0
	...

00008040 <scope>:
    8040:	e92d41f0 	push	{r4, r5, r6, r7, r8, lr}
    8044:	ee1f5f3c 	mrc	15, 0, r5, cr15, cr12, {1}
    8048:	e59f2098 	ldr	r2, [pc, #152]	; 80e8 <scope+0xa8>
    804c:	e0855003 	add	r5, r5, r3
    8050:	e1a0c002 	mov	ip, r2
    8054:	e5920034 	ldr	r0, [r2, #52]	; 0x34
    8058:	e59c2034 	ldr	r2, [ip, #52]	; 0x34
    805c:	e0203002 	eor	r3, r0, r2
    8060:	e3130602 	tst	r3, #2097152	; 0x200000
    8064:	0afffffb 	beq	8058 <scope+0x18>
    8068:	ee1f7f3c 	mrc	15, 0, r7, cr15, cr12, {1}
    806c:	e320f000 	nop	{0}
    8070:	e320f000 	nop	{0}
    8074:	e320f000 	nop	{0}
    8078:	e320f000 	nop	{0}
    807c:	e320f000 	nop	{0}
    8080:	e3a04000 	mov	r4, #0, 0
    8084:	e59f605c 	ldr	r6, [pc, #92]	; 80e8 <scope+0xa8>
    8088:	ee1f0f3c 	mrc	15, 0, r0, cr15, cr12, {1}
    808c:	e5963034 	ldr	r3, [r6, #52]	; 0x34
    8090:	e081e184 	add	lr, r1, r4, lsl #3
    8094:	e023c002 	eor	ip, r3, r2
    8098:	e31c0602 	tst	ip, #2097152	; 0x200000
    809c:	0a000007 	beq	80c0 <scope+0x80>
    80a0:	e1a02003 	mov	r2, r3
    80a4:	e1a03aa3 	lsr	r3, r3, #21
    80a8:	e2233001 	eor	r3, r3, #1, 0
    80ac:	e2033001 	and	r3, r3, #1, 0
    80b0:	e040c007 	sub	ip, r0, r7
    80b4:	e58ec004 	str	ip, [lr, #4]
    80b8:	e7813184 	str	r3, [r1, r4, lsl #3]
    80bc:	e2844001 	add	r4, r4, #1, 0
    80c0:	e1550000 	cmp	r5, r0
    80c4:	9a000003 	bls	80d8 <scope+0x98>
    80c8:	e3540020 	cmp	r4, #32, 0
    80cc:	1affffed 	bne	8088 <scope+0x48>
    80d0:	e1a00004 	mov	r0, r4
    80d4:	e8bd81f0 	pop	{r4, r5, r6, r7, r8, pc}
    80d8:	e59f000c 	ldr	r0, [pc, #12]	; 80ec <scope+0xac>
    80dc:	eb0000d9 	bl	8448 <printk>
    80e0:	e1a00004 	mov	r0, r4
    80e4:	e8bd81f0 	pop	{r4, r5, r6, r7, r8, pc}
    80e8:	20200000 	eorcs	r0, r0, r0
    80ec:	00009480 	andeq	r9, r0, r0, lsl #9
    80f0:	e320f000 	nop	{0}
    80f4:	e320f000 	nop	{0}
    80f8:	e320f000 	nop	{0}
    80fc:	e320f000 	nop	{0}

00008100 <notmain>:
    8100:	e92d4ff0 	push	{r4, r5, r6, r7, r8, r9, sl, fp, lr}
    8104:	e24ddf45 	sub	sp, sp, #276	; 0x114
    8108:	eb00035f 	bl	8e8c <enable_cache>
    810c:	e3a00015 	mov	r0, #21, 0
    8110:	eb0000a0 	bl	8398 <gpio_set_input>
    8114:	e3a03001 	mov	r3, #1, 0
    8118:	ee0f3f1c 	mcr	15, 0, r3, cr15, cr12, {0}
    811c:	e3a09004 	mov	r9, #4, 0
    8120:	e59f8164 	ldr	r8, [pc, #356]	; 828c <notmain+0x18c>
    8124:	e59fb164 	ldr	fp, [pc, #356]	; 8290 <notmain+0x190>
    8128:	ee1f1f3c 	mrc	15, 0, r1, cr15, cr12, {1}
    812c:	e28115a6 	add	r1, r1, #696254464	; 0x29800000
    8130:	e2811839 	add	r1, r1, #3735552	; 0x390000
    8134:	e5980034 	ldr	r0, [r8, #52]	; 0x34
    8138:	e2811c27 	add	r1, r1, #9984	; 0x2700
    813c:	e5982034 	ldr	r2, [r8, #52]	; 0x34
    8140:	e0203002 	eor	r3, r0, r2
    8144:	e3130602 	tst	r3, #2097152	; 0x200000
    8148:	0afffffb 	beq	813c <notmain+0x3c>
    814c:	ee1f5f3c 	mrc	15, 0, r5, cr15, cr12, {1}
    8150:	e320f000 	nop	{0}
    8154:	e320f000 	nop	{0}
    8158:	e320f000 	nop	{0}
    815c:	e320f000 	nop	{0}
    8160:	e3a04000 	mov	r4, #0, 0
    8164:	ee1f0f3c 	mrc	15, 0, r0, cr15, cr12, {1}
    8168:	e5983034 	ldr	r3, [r8, #52]	; 0x34
    816c:	e023c002 	eor	ip, r3, r2
    8170:	e31c0602 	tst	ip, #2097152	; 0x200000
    8174:	0a00000a 	beq	81a4 <notmain+0xa4>
    8178:	e1a02003 	mov	r2, r3
    817c:	e28dc010 	add	ip, sp, #16, 0
    8180:	e1a03aa3 	lsr	r3, r3, #21
    8184:	e08cc184 	add	ip, ip, r4, lsl #3
    8188:	e2233001 	eor	r3, r3, #1, 0
    818c:	e040e005 	sub	lr, r0, r5
    8190:	e58ce004 	str	lr, [ip, #4]
    8194:	e2033001 	and	r3, r3, #1, 0
    8198:	e28dc010 	add	ip, sp, #16, 0
    819c:	e78c3184 	str	r3, [ip, r4, lsl #3]
    81a0:	e2844001 	add	r4, r4, #1, 0
    81a4:	e1510000 	cmp	r1, r0
    81a8:	9a00002a 	bls	8258 <notmain+0x158>
    81ac:	e3540020 	cmp	r4, #32, 0
    81b0:	1affffeb 	bne	8164 <notmain+0x64>
    81b4:	e1a01004 	mov	r1, r4
    81b8:	e59f00d4 	ldr	r0, [pc, #212]	; 8294 <notmain+0x194>
    81bc:	eb0000a1 	bl	8448 <printk>
    81c0:	e3a0401f 	mov	r4, #31, 0
    81c4:	e1a0a004 	mov	sl, r4
    81c8:	e3a04000 	mov	r4, #0, 0
    81cc:	e1a07004 	mov	r7, r4
    81d0:	e1a06004 	mov	r6, r4
    81d4:	e1a02004 	mov	r2, r4
    81d8:	e59f50b8 	ldr	r5, [pc, #184]	; 8298 <notmain+0x198>
    81dc:	e1a03006 	mov	r3, r6
    81e0:	e28d1010 	add	r1, sp, #16, 0
    81e4:	e0812002 	add	r2, r1, r2
    81e8:	e5926004 	ldr	r6, [r2, #4]
    81ec:	e1a01007 	mov	r1, r7
    81f0:	e1560005 	cmp	r6, r5
    81f4:	80460005 	subhi	r0, r6, r5
    81f8:	90450006 	subls	r0, r5, r6
    81fc:	e2877001 	add	r7, r7, #1, 0
    8200:	e0844000 	add	r4, r4, r0
    8204:	e28d2010 	add	r2, sp, #16, 0
    8208:	e58d0008 	str	r0, [sp, #8]
    820c:	e58d5004 	str	r5, [sp, #4]
    8210:	e58d400c 	str	r4, [sp, #12]
    8214:	e58d6000 	str	r6, [sp]
    8218:	e0822187 	add	r2, r2, r7, lsl #3
    821c:	e5122008 	ldr	r2, [r2, #-8]
    8220:	e1a0000b 	mov	r0, fp
    8224:	e0463003 	sub	r3, r6, r3
    8228:	eb000086 	bl	8448 <printk>
    822c:	e2855d5d 	add	r5, r5, #5952	; 0x1740
    8230:	e157000a 	cmp	r7, sl
    8234:	e2855030 	add	r5, r5, #48, 0	; 0x30
    8238:	e1a02187 	lsl	r2, r7, #3
    823c:	1affffe6 	bne	81dc <notmain+0xdc>
    8240:	e59f0054 	ldr	r0, [pc, #84]	; 829c <notmain+0x19c>
    8244:	e1a011a4 	lsr	r1, r4, #3
    8248:	eb00007e 	bl	8448 <printk>
    824c:	e2599001 	subs	r9, r9, #1, 0
    8250:	1affffb4 	bne	8128 <notmain+0x28>
    8254:	eb000314 	bl	8eac <clean_reboot>
    8258:	e59f0040 	ldr	r0, [pc, #64]	; 82a0 <notmain+0x1a0>
    825c:	eb000079 	bl	8448 <printk>
    8260:	e3540000 	cmp	r4, #0, 0
    8264:	1a000002 	bne	8274 <notmain+0x174>
    8268:	e59f0034 	ldr	r0, [pc, #52]	; 82a4 <notmain+0x1a4>
    826c:	eb000075 	bl	8448 <printk>
    8270:	eafffff5 	b	824c <notmain+0x14c>
    8274:	e1a01004 	mov	r1, r4
    8278:	e59f0014 	ldr	r0, [pc, #20]	; 8294 <notmain+0x194>
    827c:	eb000071 	bl	8448 <printk>
    8280:	e2544001 	subs	r4, r4, #1, 0
    8284:	1affffce 	bne	81c4 <notmain+0xc4>
    8288:	eaffffec 	b	8240 <notmain+0x140>
    828c:	20200000 	eorcs	r0, r0, r0
    8290:	000094c8 	andeq	r9, r0, r8, asr #9
    8294:	000094a4 	andeq	r9, r0, r4, lsr #9
    8298:	00001770 	andeq	r1, r0, r0, ror r7
    829c:	00009504 	andeq	r9, r0, r4, lsl #10
    82a0:	00009480 	andeq	r9, r0, r0, lsl #9
    82a4:	0000948c 	andeq	r9, r0, ip, lsl #9

000082a8 <gpio_set_function>:
    82a8:	e350001f 	cmp	r0, #31, 0
    82ac:	812fff1e 	bxhi	lr
    82b0:	e3d13007 	bics	r3, r1, #7, 0
    82b4:	e92d4070 	push	{r4, r5, r6, lr}
    82b8:	e1a05001 	mov	r5, r1
    82bc:	18bd8070 	popne	{r4, r5, r6, pc}
    82c0:	e59f3040 	ldr	r3, [pc, #64]	; 8308 <gpio_set_function+0x60>
    82c4:	e0832093 	umull	r2, r3, r3, r0
    82c8:	e1a031a3 	lsr	r3, r3, #3
    82cc:	e2832302 	add	r2, r3, #134217728	; 0x8000000
    82d0:	e2822702 	add	r2, r2, #524288	; 0x80000
    82d4:	e1a06102 	lsl	r6, r2, #2
    82d8:	e0833103 	add	r3, r3, r3, lsl #2
    82dc:	e0404083 	sub	r4, r0, r3, lsl #1
    82e0:	e1a00006 	mov	r0, r6
    82e4:	ebffff50 	bl	802c <GET32>
    82e8:	e3a03007 	mov	r3, #7, 0
    82ec:	e1a01000 	mov	r1, r0
    82f0:	e0844084 	add	r4, r4, r4, lsl #1
    82f4:	e1c11413 	bic	r1, r1, r3, lsl r4
    82f8:	e1a00006 	mov	r0, r6
    82fc:	e1811415 	orr	r1, r1, r5, lsl r4
    8300:	e8bd4070 	pop	{r4, r5, r6, lr}
    8304:	eaffff46 	b	8024 <PUT32>
    8308:	cccccccd 	stclgt	12, cr12, [ip], {205}	; 0xcd

0000830c <gpio_set_output>:
    830c:	e350001f 	cmp	r0, #31, 0
    8310:	812fff1e 	bxhi	lr
    8314:	e59f3048 	ldr	r3, [pc, #72]	; 8364 <gpio_set_output+0x58>
    8318:	e92d4070 	push	{r4, r5, r6, lr}
    831c:	e0832093 	umull	r2, r3, r3, r0
    8320:	e1a031a3 	lsr	r3, r3, #3
    8324:	e2832302 	add	r2, r3, #134217728	; 0x8000000
    8328:	e2822702 	add	r2, r2, #524288	; 0x80000
    832c:	e1a05102 	lsl	r5, r2, #2
    8330:	e0833103 	add	r3, r3, r3, lsl #2
    8334:	e0404083 	sub	r4, r0, r3, lsl #1
    8338:	e1a00005 	mov	r0, r5
    833c:	ebffff3a 	bl	802c <GET32>
    8340:	e3a02007 	mov	r2, #7, 0
    8344:	e1a03000 	mov	r3, r0
    8348:	e3a01001 	mov	r1, #1, 0
    834c:	e0844084 	add	r4, r4, r4, lsl #1
    8350:	e1c33412 	bic	r3, r3, r2, lsl r4
    8354:	e1a00005 	mov	r0, r5
    8358:	e1831411 	orr	r1, r3, r1, lsl r4
    835c:	e8bd4070 	pop	{r4, r5, r6, lr}
    8360:	eaffff2f 	b	8024 <PUT32>
    8364:	cccccccd 	stclgt	12, cr12, [ip], {205}	; 0xcd

00008368 <gpio_set_on>:
    8368:	e1a03000 	mov	r3, r0
    836c:	e3a01001 	mov	r1, #1, 0
    8370:	e59f0004 	ldr	r0, [pc, #4]	; 837c <gpio_set_on+0x14>
    8374:	e1a01311 	lsl	r1, r1, r3
    8378:	eaffff29 	b	8024 <PUT32>
    837c:	2020001c 	eorcs	r0, r0, ip, lsl r0

00008380 <gpio_set_off>:
    8380:	e1a03000 	mov	r3, r0
    8384:	e3a01001 	mov	r1, #1, 0
    8388:	e59f0004 	ldr	r0, [pc, #4]	; 8394 <gpio_set_off+0x14>
    838c:	e1a01311 	lsl	r1, r1, r3
    8390:	eaffff23 	b	8024 <PUT32>
    8394:	20200028 	eorcs	r0, r0, r8, lsr #32

00008398 <gpio_set_input>:
    8398:	e350001f 	cmp	r0, #31, 0
    839c:	812fff1e 	bxhi	lr
    83a0:	e92d4070 	push	{r4, r5, r6, lr}
    83a4:	e59f5040 	ldr	r5, [pc, #64]	; 83ec <gpio_set_input+0x54>
    83a8:	e1a04000 	mov	r4, r0
    83ac:	e0853095 	umull	r3, r5, r5, r0
    83b0:	e1a051a5 	lsr	r5, r5, #3
    83b4:	e2850302 	add	r0, r5, #134217728	; 0x8000000
    83b8:	e2800702 	add	r0, r0, #524288	; 0x80000
    83bc:	e1a06100 	lsl	r6, r0, #2
    83c0:	e1a00006 	mov	r0, r6
    83c4:	ebffff18 	bl	802c <GET32>
    83c8:	e3a01007 	mov	r1, #7, 0
    83cc:	e1a03000 	mov	r3, r0
    83d0:	e0855105 	add	r5, r5, r5, lsl #2
    83d4:	e0444085 	sub	r4, r4, r5, lsl #1
    83d8:	e0844084 	add	r4, r4, r4, lsl #1
    83dc:	e1a00006 	mov	r0, r6
    83e0:	e1c31411 	bic	r1, r3, r1, lsl r4
    83e4:	e8bd4070 	pop	{r4, r5, r6, lr}
    83e8:	eaffff0d 	b	8024 <PUT32>
    83ec:	cccccccd 	stclgt	12, cr12, [ip], {205}	; 0xcd

000083f0 <gpio_write>:
    83f0:	e3510000 	cmp	r1, #0, 0
    83f4:	e3a03001 	mov	r3, #1, 0
    83f8:	e1a01000 	mov	r1, r0
    83fc:	0a000002 	beq	840c <gpio_write+0x1c>
    8400:	e59f0010 	ldr	r0, [pc, #16]	; 8418 <gpio_write+0x28>
    8404:	e1a01113 	lsl	r1, r3, r1
    8408:	eaffff05 	b	8024 <PUT32>
    840c:	e59f0008 	ldr	r0, [pc, #8]	; 841c <gpio_write+0x2c>
    8410:	e1a01113 	lsl	r1, r3, r1
    8414:	eaffff02 	b	8024 <PUT32>
    8418:	2020001c 	eorcs	r0, r0, ip, lsl r0
    841c:	20200028 	eorcs	r0, r0, r8, lsr #32

00008420 <gpio_read>:
    8420:	e59f301c 	ldr	r3, [pc, #28]	; 8444 <gpio_read+0x24>
    8424:	e92d4010 	push	{r4, lr}
    8428:	e1a04000 	mov	r4, r0
    842c:	e08302a0 	add	r0, r3, r0, lsr #5
    8430:	ebfffefd 	bl	802c <GET32>
    8434:	e204401f 	and	r4, r4, #31, 0
    8438:	e1a00430 	lsr	r0, r0, r4
    843c:	e2000001 	and	r0, r0, #1, 0
    8440:	e8bd8010 	pop	{r4, pc}
    8444:	20200034 	eorcs	r0, r0, r4, lsr r0

00008448 <printk>:
    8448:	e92d000f 	push	{r0, r1, r2, r3}
    844c:	e92d4030 	push	{r4, r5, lr}
    8450:	e59f5040 	ldr	r5, [pc, #64]	; 8498 <printk+0x50>
    8454:	e24dd00c 	sub	sp, sp, #12, 0
    8458:	e28d301c 	add	r3, sp, #28, 0
    845c:	e3a01b01 	mov	r1, #1024	; 0x400
    8460:	e59d2018 	ldr	r2, [sp, #24]
    8464:	e1a00005 	mov	r0, r5
    8468:	e58d3004 	str	r3, [sp, #4]
    846c:	eb0000fb 	bl	8860 <va_printk>
    8470:	e1a04000 	mov	r4, r0
    8474:	e59f3020 	ldr	r3, [pc, #32]	; 849c <printk+0x54>
    8478:	e1a00005 	mov	r0, r5
    847c:	e5933000 	ldr	r3, [r3]
    8480:	e12fff33 	blx	r3
    8484:	e1a00004 	mov	r0, r4
    8488:	e28dd00c 	add	sp, sp, #12, 0
    848c:	e8bd4030 	pop	{r4, r5, lr}
    8490:	e28dd010 	add	sp, sp, #16, 0
    8494:	e12fff1e 	bx	lr
    8498:	000096a8 	andeq	r9, r0, r8, lsr #13
    849c:	000096a0 	andeq	r9, r0, r0, lsr #13

000084a0 <internal_putk>:
    84a0:	e92d4070 	push	{r4, r5, r6, lr}
    84a4:	e1a04000 	mov	r4, r0
    84a8:	e5d00000 	ldrb	r0, [r0]
    84ac:	e3500000 	cmp	r0, #0, 0
    84b0:	0a000005 	beq	84cc <internal_putk+0x2c>
    84b4:	e59f5018 	ldr	r5, [pc, #24]	; 84d4 <internal_putk+0x34>
    84b8:	e5953000 	ldr	r3, [r5]
    84bc:	e12fff33 	blx	r3
    84c0:	e5f40001 	ldrb	r0, [r4, #1]!
    84c4:	e3500000 	cmp	r0, #0, 0
    84c8:	1afffffa 	bne	84b8 <internal_putk+0x18>
    84cc:	e3a00001 	mov	r0, #1, 0
    84d0:	e8bd8070 	pop	{r4, r5, r6, pc}
    84d4:	000096a4 	andeq	r9, r0, r4, lsr #13

000084d8 <emit.constprop.0>:
    84d8:	e92d41f0 	push	{r4, r5, r6, r7, r8, lr}
    84dc:	e3530080 	cmp	r3, #128, 0	; 0x80
    84e0:	e1a0c000 	mov	ip, r0
    84e4:	e24dd048 	sub	sp, sp, #72, 0	; 0x48
    84e8:	e1a00001 	mov	r0, r1
    84ec:	ca000069 	bgt	8698 <emit.constprop.0+0x1c0>
    84f0:	e24c1002 	sub	r1, ip, #2, 0
    84f4:	e1a0c002 	mov	ip, r2
    84f8:	e351000e 	cmp	r1, #14, 0
    84fc:	979ff101 	ldrls	pc, [pc, r1, lsl #2]
    8500:	ea0000a7 	b	87a4 <emit.constprop.0+0x2cc>
    8504:	00008670 	andeq	r8, r0, r0, ror r6
    8508:	000087a4 	andeq	r8, r0, r4, lsr #15
    850c:	000087a4 	andeq	r8, r0, r4, lsr #15
    8510:	000087a4 	andeq	r8, r0, r4, lsr #15
    8514:	000087a4 	andeq	r8, r0, r4, lsr #15
    8518:	000087a4 	andeq	r8, r0, r4, lsr #15
    851c:	0000874c 	andeq	r8, r0, ip, asr #14
    8520:	000087a4 	andeq	r8, r0, r4, lsr #15
    8524:	000086ec 	andeq	r8, r0, ip, ror #13
    8528:	000087a4 	andeq	r8, r0, r4, lsr #15
    852c:	000087a4 	andeq	r8, r0, r4, lsr #15
    8530:	000087a4 	andeq	r8, r0, r4, lsr #15
    8534:	000087a4 	andeq	r8, r0, r4, lsr #15
    8538:	000087a4 	andeq	r8, r0, r4, lsr #15
    853c:	00008544 	andeq	r8, r0, r4, asr #10
    8540:	e3a0307f 	mov	r3, #127, 0	; 0x7f
    8544:	e28d2008 	add	r2, sp, #8, 0
    8548:	e1a04002 	mov	r4, r2
    854c:	e59f1288 	ldr	r1, [pc, #648]	; 87dc <emit.constprop.0+0x304>
    8550:	e20ce00f 	and	lr, ip, #15, 0
    8554:	e7d1e00e 	ldrb	lr, [r1, lr]
    8558:	e35c000f 	cmp	ip, #15, 0
    855c:	e4c4e001 	strb	lr, [r4], #1
    8560:	e1a0c22c 	lsr	ip, ip, #4
    8564:	8afffff9 	bhi	8550 <emit.constprop.0+0x78>
    8568:	e3a0c078 	mov	ip, #120, 0	; 0x78
    856c:	e1a0e004 	mov	lr, r4
    8570:	e3a01030 	mov	r1, #48, 0	; 0x30
    8574:	e4cec002 	strb	ip, [lr], #2
    8578:	e5c41001 	strb	r1, [r4, #1]
    857c:	e04e1002 	sub	r1, lr, r2
    8580:	e1510003 	cmp	r1, r3
    8584:	aa000083 	bge	8798 <emit.constprop.0+0x2c0>
    8588:	e1510003 	cmp	r1, r3
    858c:	a3a0c001 	movge	ip, #1, 0
    8590:	b3a0c000 	movlt	ip, #0, 0
    8594:	e2434001 	sub	r4, r3, #1, 0
    8598:	e0444001 	sub	r4, r4, r1
    859c:	b0436001 	sublt	r6, r3, r1
    85a0:	a3a06001 	movge	r6, #1, 0
    85a4:	e3540002 	cmp	r4, #2, 0
    85a8:	938cc001 	orrls	ip, ip, #1, 0
    85ac:	e35c0000 	cmp	ip, #0, 0
    85b0:	1a000075 	bne	878c <emit.constprop.0+0x2b4>
    85b4:	e1a0c00e 	mov	ip, lr
    85b8:	e3c65003 	bic	r5, r6, #3, 0
    85bc:	e59f721c 	ldr	r7, [pc, #540]	; 87e0 <emit.constprop.0+0x308>
    85c0:	e085500e 	add	r5, r5, lr
    85c4:	e48c7004 	str	r7, [ip], #4
    85c8:	e15c0005 	cmp	ip, r5
    85cc:	1afffffc 	bne	85c4 <emit.constprop.0+0xec>
    85d0:	e3c6c003 	bic	ip, r6, #3, 0
    85d4:	e156000c 	cmp	r6, ip
    85d8:	e08e500c 	add	r5, lr, ip
    85dc:	e08cc001 	add	ip, ip, r1
    85e0:	0a000008 	beq	8608 <emit.constprop.0+0x130>
    85e4:	e3a07020 	mov	r7, #32, 0
    85e8:	e28c8001 	add	r8, ip, #1, 0
    85ec:	e1580003 	cmp	r8, r3
    85f0:	e5c57000 	strb	r7, [r5]
    85f4:	aa000003 	bge	8608 <emit.constprop.0+0x130>
    85f8:	e28cc002 	add	ip, ip, #2, 0
    85fc:	e15c0003 	cmp	ip, r3
    8600:	e5c57001 	strb	r7, [r5, #1]
    8604:	b5c57002 	strblt	r7, [r5, #2]
    8608:	e1510003 	cmp	r1, r3
    860c:	a3a04000 	movge	r4, #0, 0
    8610:	e08e6006 	add	r6, lr, r6
    8614:	e0461002 	sub	r1, r6, r2
    8618:	e08ee004 	add	lr, lr, r4
    861c:	e3a03000 	mov	r3, #0, 0
    8620:	e351007f 	cmp	r1, #127, 0	; 0x7f
    8624:	c241407f 	subgt	r4, r1, #127, 0	; 0x7f
    8628:	c0822004 	addgt	r2, r2, r4
    862c:	e152000e 	cmp	r2, lr
    8630:	e5c63000 	strb	r3, [r6]
    8634:	8a00004f 	bhi	8778 <emit.constprop.0+0x2a0>
    8638:	e28ee001 	add	lr, lr, #1, 0
    863c:	e1a0300e 	mov	r3, lr
    8640:	e240c001 	sub	ip, r0, #1, 0
    8644:	e5734001 	ldrb	r4, [r3, #-1]!
    8648:	e1530002 	cmp	r3, r2
    864c:	e5ec4001 	strb	r4, [ip, #1]!
    8650:	1afffffb 	bne	8644 <emit.constprop.0+0x16c>
    8654:	e04ee003 	sub	lr, lr, r3
    8658:	e3a03000 	mov	r3, #0, 0
    865c:	e080e00e 	add	lr, r0, lr
    8660:	e5ce3000 	strb	r3, [lr]
    8664:	e28dd048 	add	sp, sp, #72, 0	; 0x48
    8668:	e8bd81f0 	pop	{r4, r5, r6, r7, r8, pc}
    866c:	e3a0307f 	mov	r3, #127, 0	; 0x7f
    8670:	e28d2008 	add	r2, sp, #8, 0
    8674:	e1a0e002 	mov	lr, r2
    8678:	e59f1164 	ldr	r1, [pc, #356]	; 87e4 <emit.constprop.0+0x30c>
    867c:	e20c4001 	and	r4, ip, #1, 0
    8680:	e7d14004 	ldrb	r4, [r1, r4]
    8684:	e35c0001 	cmp	ip, #1, 0
    8688:	e4ce4001 	strb	r4, [lr], #1
    868c:	e1a0c0ac 	lsr	ip, ip, #1
    8690:	8afffff9 	bhi	867c <emit.constprop.0+0x1a4>
    8694:	eaffffb8 	b	857c <emit.constprop.0+0xa4>
    8698:	e24c3002 	sub	r3, ip, #2, 0
    869c:	e1a0c002 	mov	ip, r2
    86a0:	e353000e 	cmp	r3, #14, 0
    86a4:	979ff103 	ldrls	pc, [pc, r3, lsl #2]
    86a8:	ea00003d 	b	87a4 <emit.constprop.0+0x2cc>
    86ac:	0000866c 	andeq	r8, r0, ip, ror #12
    86b0:	000087a4 	andeq	r8, r0, r4, lsr #15
    86b4:	000087a4 	andeq	r8, r0, r4, lsr #15
    86b8:	000087a4 	andeq	r8, r0, r4, lsr #15
    86bc:	000087a4 	andeq	r8, r0, r4, lsr #15
    86c0:	000087a4 	andeq	r8, r0, r4, lsr #15
    86c4:	000087c4 	andeq	r8, r0, r4, asr #15
    86c8:	000087a4 	andeq	r8, r0, r4, lsr #15
    86cc:	000086e8 	andeq	r8, r0, r8, ror #13
    86d0:	000087a4 	andeq	r8, r0, r4, lsr #15
    86d4:	000087a4 	andeq	r8, r0, r4, lsr #15
    86d8:	000087a4 	andeq	r8, r0, r4, lsr #15
    86dc:	000087a4 	andeq	r8, r0, r4, lsr #15
    86e0:	000087a4 	andeq	r8, r0, r4, lsr #15
    86e4:	00008540 	andeq	r8, r0, r0, asr #10
    86e8:	e3a0307f 	mov	r3, #127, 0	; 0x7f
    86ec:	e59d1060 	ldr	r1, [sp, #96]	; 0x60
    86f0:	e59f70f0 	ldr	r7, [pc, #240]	; 87e8 <emit.constprop.0+0x310>
    86f4:	e0118fa2 	ands	r8, r1, r2, lsr #31
    86f8:	1262c000 	rsbne	ip, r2, #0, 0
    86fc:	e28d2008 	add	r2, sp, #8, 0
    8700:	13a08001 	movne	r8, #1, 0
    8704:	e1a0e002 	mov	lr, r2
    8708:	e59f60dc 	ldr	r6, [pc, #220]	; 87ec <emit.constprop.0+0x314>
    870c:	e1a0500c 	mov	r5, ip
    8710:	e0814c96 	umull	r4, r1, r6, ip
    8714:	e1a011a1 	lsr	r1, r1, #3
    8718:	e0814101 	add	r4, r1, r1, lsl #2
    871c:	e04cc084 	sub	ip, ip, r4, lsl #1
    8720:	e7d7400c 	ldrb	r4, [r7, ip]
    8724:	e3550009 	cmp	r5, #9, 0
    8728:	e1a0c001 	mov	ip, r1
    872c:	e1a0100e 	mov	r1, lr
    8730:	e4ce4001 	strb	r4, [lr], #1
    8734:	8afffff4 	bhi	870c <emit.constprop.0+0x234>
    8738:	e3580000 	cmp	r8, #0, 0
    873c:	13a0c02d 	movne	ip, #45, 0	; 0x2d
    8740:	15cec000 	strbne	ip, [lr]
    8744:	1281e002 	addne	lr, r1, #2, 0
    8748:	eaffff8b 	b	857c <emit.constprop.0+0xa4>
    874c:	e3530001 	cmp	r3, #1, 0
    8750:	e5cd2008 	strb	r2, [sp, #8]
    8754:	c3a01001 	movgt	r1, #1, 0
    8758:	c28de009 	addgt	lr, sp, #9, 0
    875c:	c28d2008 	addgt	r2, sp, #8, 0
    8760:	caffff88 	bgt	8588 <emit.constprop.0+0xb0>
    8764:	e3a03000 	mov	r3, #0, 0
    8768:	e28de008 	add	lr, sp, #8, 0
    876c:	e1a0200e 	mov	r2, lr
    8770:	e5cd3009 	strb	r3, [sp, #9]
    8774:	eaffffaf 	b	8638 <emit.constprop.0+0x160>
    8778:	e1a0e000 	mov	lr, r0
    877c:	e3a03000 	mov	r3, #0, 0
    8780:	e5ce3000 	strb	r3, [lr]
    8784:	e28dd048 	add	sp, sp, #72, 0	; 0x48
    8788:	e8bd81f0 	pop	{r4, r5, r6, r7, r8, pc}
    878c:	e1a0c001 	mov	ip, r1
    8790:	e1a0500e 	mov	r5, lr
    8794:	eaffff92 	b	85e4 <emit.constprop.0+0x10c>
    8798:	e1a0600e 	mov	r6, lr
    879c:	e24ee001 	sub	lr, lr, #1, 0
    87a0:	eaffff9d 	b	861c <emit.constprop.0+0x144>
    87a4:	e59f2044 	ldr	r2, [pc, #68]	; 87f0 <emit.constprop.0+0x318>
    87a8:	e3a03079 	mov	r3, #121, 0	; 0x79
    87ac:	e59f1040 	ldr	r1, [pc, #64]	; 87f4 <emit.constprop.0+0x31c>
    87b0:	e58d2000 	str	r2, [sp]
    87b4:	e59f003c 	ldr	r0, [pc, #60]	; 87f8 <emit.constprop.0+0x320>
    87b8:	e59f203c 	ldr	r2, [pc, #60]	; 87fc <emit.constprop.0+0x324>
    87bc:	ebffff21 	bl	8448 <printk>
    87c0:	eb0001b9 	bl	8eac <clean_reboot>
    87c4:	e5cd2008 	strb	r2, [sp, #8]
    87c8:	e3a0307f 	mov	r3, #127, 0	; 0x7f
    87cc:	e3a01001 	mov	r1, #1, 0
    87d0:	e28de009 	add	lr, sp, #9, 0
    87d4:	e28d2008 	add	r2, sp, #8, 0
    87d8:	eaffff6a 	b	8588 <emit.constprop.0+0xb0>
    87dc:	00009544 	andeq	r9, r0, r4, asr #10
    87e0:	20202020 	eorcs	r2, r0, r0, lsr #32
    87e4:	00009558 	andeq	r9, r0, r8, asr r5
    87e8:	0000955c 	andeq	r9, r0, ip, asr r5
    87ec:	cccccccd 	stclgt	12, cr12, [ip], {205}	; 0xcd
    87f0:	00009540 	andeq	r9, r0, r0, asr #10
    87f4:	00009518 	andeq	r9, r0, r8, lsl r5
    87f8:	0000952c 	andeq	r9, r0, ip, lsr #10
    87fc:	00009670 	andeq	r9, r0, r0, ror r6

00008800 <rpi_set_output>:
    8800:	e3500000 	cmp	r0, #0, 0
    8804:	0a000005 	beq	8820 <rpi_set_output+0x20>
    8808:	e59f3038 	ldr	r3, [pc, #56]	; 8848 <rpi_set_output+0x48>
    880c:	e3510000 	cmp	r1, #0, 0
    8810:	e5830000 	str	r0, [r3]
    8814:	159f3030 	ldrne	r3, [pc, #48]	; 884c <rpi_set_output+0x4c>
    8818:	15831000 	strne	r1, [r3]
    881c:	e12fff1e 	bx	lr
    8820:	e52de004 	push	{lr}		; (str lr, [sp, #-4]!)
    8824:	e59f2024 	ldr	r2, [pc, #36]	; 8850 <rpi_set_output+0x50>
    8828:	e24dd00c 	sub	sp, sp, #12, 0
    882c:	e3a03020 	mov	r3, #32, 0
    8830:	e59f101c 	ldr	r1, [pc, #28]	; 8854 <rpi_set_output+0x54>
    8834:	e58d2000 	str	r2, [sp]
    8838:	e59f0018 	ldr	r0, [pc, #24]	; 8858 <rpi_set_output+0x58>
    883c:	e59f2018 	ldr	r2, [pc, #24]	; 885c <rpi_set_output+0x5c>
    8840:	ebffff00 	bl	8448 <printk>
    8844:	eb000198 	bl	8eac <clean_reboot>
    8848:	000096a4 	andeq	r9, r0, r4, lsr #13
    884c:	000096a0 	andeq	r9, r0, r0, lsr #13
    8850:	00009568 	andeq	r9, r0, r8, ror #10
    8854:	00009518 	andeq	r9, r0, r8, lsl r5
    8858:	0000952c 	andeq	r9, r0, ip, lsr #10
    885c:	00009678 	andeq	r9, r0, r8, ror r6

00008860 <va_printk>:
    8860:	e92d4ff0 	push	{r4, r5, r6, r7, r8, r9, sl, fp, lr}
    8864:	e1a0b000 	mov	fp, r0
    8868:	e3a00000 	mov	r0, #0, 0
    886c:	e5cb0000 	strb	r0, [fp]
    8870:	e5d2c000 	ldrb	ip, [r2]
    8874:	e2417001 	sub	r7, r1, #1, 0
    8878:	e08b7007 	add	r7, fp, r7
    887c:	e15c0000 	cmp	ip, r0
    8880:	115b0007 	cmpne	fp, r7
    8884:	e24ddf47 	sub	sp, sp, #284	; 0x11c
    8888:	e58d2010 	str	r2, [sp, #16]
    888c:	2a000159 	bcs	8df8 <va_printk+0x598>
    8890:	e1a06002 	mov	r6, r2
    8894:	e1a08003 	mov	r8, r3
    8898:	e1a0400b 	mov	r4, fp
    889c:	e59fa5a4 	ldr	sl, [pc, #1444]	; 8e48 <va_printk+0x5e8>
    88a0:	e58db00c 	str	fp, [sp, #12]
    88a4:	ea000005 	b	88c0 <va_printk+0x60>
    88a8:	e4c4c001 	strb	ip, [r4], #1
    88ac:	e2866001 	add	r6, r6, #1, 0
    88b0:	e5d6c000 	ldrb	ip, [r6]
    88b4:	e35c0000 	cmp	ip, #0, 0
    88b8:	11570004 	cmpne	r7, r4
    88bc:	9a00002f 	bls	8980 <va_printk+0x120>
    88c0:	e35c0025 	cmp	ip, #37, 0	; 0x25
    88c4:	1afffff7 	bne	88a8 <va_printk+0x48>
    88c8:	e5d62001 	ldrb	r2, [r6, #1]
    88cc:	e3520025 	cmp	r2, #37, 0	; 0x25
    88d0:	04c4c001 	strbeq	ip, [r4], #1
    88d4:	02866002 	addeq	r6, r6, #2, 0
    88d8:	0afffff4 	beq	88b0 <va_printk+0x50>
    88dc:	e2423030 	sub	r3, r2, #48, 0	; 0x30
    88e0:	e3530009 	cmp	r3, #9, 0
    88e4:	e3a05000 	mov	r5, #0, 0
    88e8:	e2866001 	add	r6, r6, #1, 0
    88ec:	8a000008 	bhi	8914 <va_printk+0xb4>
    88f0:	e0855105 	add	r5, r5, r5, lsl #2
    88f4:	e0825085 	add	r5, r2, r5, lsl #1
    88f8:	e5f62001 	ldrb	r2, [r6, #1]!
    88fc:	e2455030 	sub	r5, r5, #48, 0	; 0x30
    8900:	e2423030 	sub	r3, r2, #48, 0	; 0x30
    8904:	e3530009 	cmp	r3, #9, 0
    8908:	9afffff8 	bls	88f0 <va_printk+0x90>
    890c:	e355001f 	cmp	r5, #31, 0
    8910:	8a00013a 	bhi	8e00 <va_printk+0x5a0>
    8914:	e2423062 	sub	r3, r2, #98, 0	; 0x62
    8918:	e3530016 	cmp	r3, #22, 0
    891c:	979ff103 	ldrls	pc, [pc, r3, lsl #2]
    8920:	ea00011b 	b	8d94 <va_printk+0x534>
    8924:	00008bd8 	ldrdeq	r8, [r0], -r8	; <UNPREDICTABLE>
    8928:	00008ad4 	ldrdeq	r8, [r0], -r4
    892c:	00008acc 	andeq	r8, r0, ip, asr #21
    8930:	00008d94 	muleq	r0, r4, sp
    8934:	00008dd0 	ldrdeq	r8, [r0], -r0
    8938:	00008d94 	muleq	r0, r4, sp
    893c:	00008d94 	muleq	r0, r4, sp
    8940:	00008d94 	muleq	r0, r4, sp
    8944:	00008d94 	muleq	r0, r4, sp
    8948:	00008d94 	muleq	r0, r4, sp
    894c:	000089dc 	ldrdeq	r8, [r0], -ip
    8950:	00008d94 	muleq	r0, r4, sp
    8954:	00008d94 	muleq	r0, r4, sp
    8958:	00008d94 	muleq	r0, r4, sp
    895c:	00008998 	muleq	r0, r8, r9
    8960:	00008d94 	muleq	r0, r4, sp
    8964:	00008d94 	muleq	r0, r4, sp
    8968:	00008cd0 	ldrdeq	r8, [r0], -r0
    896c:	00008d94 	muleq	r0, r4, sp
    8970:	00008aa8 	andeq	r8, r0, r8, lsr #21
    8974:	00008d94 	muleq	r0, r4, sp
    8978:	00008d94 	muleq	r0, r4, sp
    897c:	00008998 	muleq	r0, r8, r9
    8980:	e59db00c 	ldr	fp, [sp, #12]
    8984:	e3a03000 	mov	r3, #0, 0
    8988:	e4c43001 	strb	r3, [r4], #1
    898c:	e044000b 	sub	r0, r4, fp
    8990:	e28ddf47 	add	sp, sp, #284	; 0x11c
    8994:	e8bd8ff0 	pop	{r4, r5, r6, r7, r8, r9, sl, fp, pc}
    8998:	e3a01000 	mov	r1, #0, 0
    899c:	e1a03005 	mov	r3, r5
    89a0:	e4982004 	ldr	r2, [r8], #4
    89a4:	e3a00010 	mov	r0, #16, 0
    89a8:	e58d1000 	str	r1, [sp]
    89ac:	e28d1018 	add	r1, sp, #24, 0
    89b0:	ebfffec8 	bl	84d8 <emit.constprop.0>
    89b4:	e1a05000 	mov	r5, r0
    89b8:	e2866001 	add	r6, r6, #1, 0
    89bc:	e2455001 	sub	r5, r5, #1, 0
    89c0:	e5f53001 	ldrb	r3, [r5, #1]!
    89c4:	e3530000 	cmp	r3, #0, 0
    89c8:	0affffb8 	beq	88b0 <va_printk+0x50>
    89cc:	e4c43001 	strb	r3, [r4], #1
    89d0:	e1570004 	cmp	r7, r4
    89d4:	8afffff9 	bhi	89c0 <va_printk+0x160>
    89d8:	eaffffb4 	b	88b0 <va_printk+0x50>
    89dc:	e3a02003 	mov	r2, #3, 0
    89e0:	e1a00006 	mov	r0, r6
    89e4:	e59f1460 	ldr	r1, [pc, #1120]	; 8e4c <va_printk+0x5ec>
    89e8:	eb000290 	bl	9430 <strncmp>
    89ec:	e3500000 	cmp	r0, #0, 0
    89f0:	0a000005 	beq	8a0c <va_printk+0x1ac>
    89f4:	e3a02003 	mov	r2, #3, 0
    89f8:	e1a00006 	mov	r0, r6
    89fc:	e59f144c 	ldr	r1, [pc, #1100]	; 8e50 <va_printk+0x5f0>
    8a00:	eb00028a 	bl	9430 <strncmp>
    8a04:	e3500000 	cmp	r0, #0, 0
    8a08:	1a00010b 	bne	8e3c <va_printk+0x5dc>
    8a0c:	e2888007 	add	r8, r8, #7, 0
    8a10:	e3c88007 	bic	r8, r8, #7, 0
    8a14:	e598b004 	ldr	fp, [r8, #4]
    8a18:	e4989008 	ldr	r9, [r8], #8
    8a1c:	e1a0100b 	mov	r1, fp
    8a20:	e59f042c 	ldr	r0, [pc, #1068]	; 8e54 <va_printk+0x5f4>
    8a24:	ebfffe87 	bl	8448 <printk>
    8a28:	e1a01009 	mov	r1, r9
    8a2c:	e59f0424 	ldr	r0, [pc, #1060]	; 8e58 <va_printk+0x5f8>
    8a30:	ebfffe84 	bl	8448 <printk>
    8a34:	e3a02003 	mov	r2, #3, 0
    8a38:	e1a00006 	mov	r0, r6
    8a3c:	e59f1408 	ldr	r1, [pc, #1032]	; 8e4c <va_printk+0x5ec>
    8a40:	eb00027a 	bl	9430 <strncmp>
    8a44:	e2503000 	subs	r3, r0, #0, 0
    8a48:	e1a02003 	mov	r2, r3
    8a4c:	e2863002 	add	r3, r6, #2, 0
    8a50:	e58d3014 	str	r3, [sp, #20]
    8a54:	1a00009f 	bne	8cd8 <va_printk+0x478>
    8a58:	e1a06002 	mov	r6, r2
    8a5c:	e1a03005 	mov	r3, r5
    8a60:	e58d2000 	str	r2, [sp]
    8a64:	e28d1018 	add	r1, sp, #24, 0
    8a68:	e1a0200b 	mov	r2, fp
    8a6c:	e3a00010 	mov	r0, #16, 0
    8a70:	ebfffe98 	bl	84d8 <emit.constprop.0>
    8a74:	e1a0c000 	mov	ip, r0
    8a78:	e1a03005 	mov	r3, r5
    8a7c:	e58d6000 	str	r6, [sp]
    8a80:	e28d1098 	add	r1, sp, #152, 0	; 0x98
    8a84:	e1a02009 	mov	r2, r9
    8a88:	e3a00010 	mov	r0, #16, 0
    8a8c:	e1a0500c 	mov	r5, ip
    8a90:	ebfffe90 	bl	84d8 <emit.constprop.0>
    8a94:	e28d0018 	add	r0, sp, #24, 0
    8a98:	e28d109a 	add	r1, sp, #154, 0	; 0x9a
    8a9c:	e59d6014 	ldr	r6, [sp, #20]
    8aa0:	eb000240 	bl	93a8 <strcat>
    8aa4:	eaffffc3 	b	89b8 <va_printk+0x158>
    8aa8:	e3a01000 	mov	r1, #0, 0
    8aac:	e1a03005 	mov	r3, r5
    8ab0:	e4982004 	ldr	r2, [r8], #4
    8ab4:	e3a0000a 	mov	r0, #10, 0
    8ab8:	e58d1000 	str	r1, [sp]
    8abc:	e28d1018 	add	r1, sp, #24, 0
    8ac0:	ebfffe84 	bl	84d8 <emit.constprop.0>
    8ac4:	e1a05000 	mov	r5, r0
    8ac8:	eaffffba 	b	89b8 <va_printk+0x158>
    8acc:	e3a01001 	mov	r1, #1, 0
    8ad0:	eafffff5 	b	8aac <va_printk+0x24c>
    8ad4:	e4983004 	ldr	r3, [r8], #4
    8ad8:	e3550001 	cmp	r5, #1, 0
    8adc:	e5cd3098 	strb	r3, [sp, #152]	; 0x98
    8ae0:	9a0000a6 	bls	8d80 <va_printk+0x520>
    8ae4:	e2453002 	sub	r3, r5, #2, 0
    8ae8:	e3530002 	cmp	r3, #2, 0
    8aec:	e2451001 	sub	r1, r5, #1, 0
    8af0:	9a0000bc 	bls	8de8 <va_printk+0x588>
    8af4:	e59f0360 	ldr	r0, [pc, #864]	; 8e5c <va_printk+0x5fc>
    8af8:	e1a02121 	lsr	r2, r1, #2
    8afc:	e3520001 	cmp	r2, #1, 0
    8b00:	e58d0099 	str	r0, [sp, #153]	; 0x99
    8b04:	0a00000e 	beq	8b44 <va_printk+0x2e4>
    8b08:	e3520002 	cmp	r2, #2, 0
    8b0c:	e58d009d 	str	r0, [sp, #157]	; 0x9d
    8b10:	0a00000b 	beq	8b44 <va_printk+0x2e4>
    8b14:	e3520003 	cmp	r2, #3, 0
    8b18:	e58d00a1 	str	r0, [sp, #161]	; 0xa1
    8b1c:	0a000008 	beq	8b44 <va_printk+0x2e4>
    8b20:	e3520004 	cmp	r2, #4, 0
    8b24:	e58d00a5 	str	r0, [sp, #165]	; 0xa5
    8b28:	0a000005 	beq	8b44 <va_printk+0x2e4>
    8b2c:	e3520005 	cmp	r2, #5, 0
    8b30:	e58d00a9 	str	r0, [sp, #169]	; 0xa9
    8b34:	0a000002 	beq	8b44 <va_printk+0x2e4>
    8b38:	e3520007 	cmp	r2, #7, 0
    8b3c:	e58d00ad 	str	r0, [sp, #173]	; 0xad
    8b40:	058d00b1 	streq	r0, [sp, #177]	; 0xb1
    8b44:	e3c12003 	bic	r2, r1, #3, 0
    8b48:	e1510002 	cmp	r1, r2
    8b4c:	e28dc099 	add	ip, sp, #153, 0	; 0x99
    8b50:	e08c0002 	add	r0, ip, r2
    8b54:	e2822001 	add	r2, r2, #1, 0
    8b58:	0a000008 	beq	8b80 <va_printk+0x320>
    8b5c:	e3a0e020 	mov	lr, #32, 0
    8b60:	e2829001 	add	r9, r2, #1, 0
    8b64:	e1550009 	cmp	r5, r9
    8b68:	e5c0e000 	strb	lr, [r0]
    8b6c:	da000003 	ble	8b80 <va_printk+0x320>
    8b70:	e2822002 	add	r2, r2, #2, 0
    8b74:	e1550002 	cmp	r5, r2
    8b78:	e5c0e001 	strb	lr, [r0, #1]
    8b7c:	c5c0e002 	strbgt	lr, [r0, #2]
    8b80:	e3a0e000 	mov	lr, #0, 0
    8b84:	e28d0098 	add	r0, sp, #152, 0	; 0x98
    8b88:	e08c2001 	add	r2, ip, r1
    8b8c:	e0422000 	sub	r2, r2, r0
    8b90:	e352007f 	cmp	r2, #127, 0	; 0x7f
    8b94:	c242207f 	subgt	r2, r2, #127, 0	; 0x7f
    8b98:	e08c3003 	add	r3, ip, r3
    8b9c:	c0800002 	addgt	r0, r0, r2
    8ba0:	e1530000 	cmp	r3, r0
    8ba4:	e7cce001 	strb	lr, [ip, r1]
    8ba8:	3a00006c 	bcc	8d60 <va_printk+0x500>
    8bac:	e283c001 	add	ip, r3, #1, 0
    8bb0:	e1a0300c 	mov	r3, ip
    8bb4:	e28d5018 	add	r5, sp, #24, 0
    8bb8:	e2452001 	sub	r2, r5, #1, 0
    8bbc:	e5731001 	ldrb	r1, [r3, #-1]!
    8bc0:	e1500003 	cmp	r0, r3
    8bc4:	e5e21001 	strb	r1, [r2, #1]!
    8bc8:	1afffffb 	bne	8bbc <va_printk+0x35c>
    8bcc:	e04c3000 	sub	r3, ip, r0
    8bd0:	e0853003 	add	r3, r5, r3
    8bd4:	ea00003a 	b	8cc4 <va_printk+0x464>
    8bd8:	e28d1098 	add	r1, sp, #152, 0	; 0x98
    8bdc:	e1a03001 	mov	r3, r1
    8be0:	e4980004 	ldr	r0, [r8], #4
    8be4:	e200c001 	and	ip, r0, #1, 0
    8be8:	e7dac00c 	ldrb	ip, [sl, ip]
    8bec:	e3500001 	cmp	r0, #1, 0
    8bf0:	e1a02003 	mov	r2, r3
    8bf4:	e1a000a0 	lsr	r0, r0, #1
    8bf8:	e4c3c001 	strb	ip, [r3], #1
    8bfc:	8afffff8 	bhi	8be4 <va_printk+0x384>
    8c00:	e0430001 	sub	r0, r3, r1
    8c04:	e1550000 	cmp	r5, r0
    8c08:	da000057 	ble	8d6c <va_printk+0x50c>
    8c0c:	e045c000 	sub	ip, r5, r0
    8c10:	e24ce001 	sub	lr, ip, #1, 0
    8c14:	e35e0002 	cmp	lr, #2, 0
    8c18:	e1a0e003 	mov	lr, r3
    8c1c:	9a00000a 	bls	8c4c <va_printk+0x3ec>
    8c20:	e3cc9003 	bic	r9, ip, #3, 0
    8c24:	e0899003 	add	r9, r9, r3
    8c28:	e59fb22c 	ldr	fp, [pc, #556]	; 8e5c <va_printk+0x5fc>
    8c2c:	e48eb004 	str	fp, [lr], #4
    8c30:	e15e0009 	cmp	lr, r9
    8c34:	1afffffb 	bne	8c28 <va_printk+0x3c8>
    8c38:	e3cce003 	bic	lr, ip, #3, 0
    8c3c:	e15e000c 	cmp	lr, ip
    8c40:	e080000e 	add	r0, r0, lr
    8c44:	e083e00e 	add	lr, r3, lr
    8c48:	0a000008 	beq	8c70 <va_printk+0x410>
    8c4c:	e3a09020 	mov	r9, #32, 0
    8c50:	e280b001 	add	fp, r0, #1, 0
    8c54:	e155000b 	cmp	r5, fp
    8c58:	e5ce9000 	strb	r9, [lr]
    8c5c:	da000003 	ble	8c70 <va_printk+0x410>
    8c60:	e2800002 	add	r0, r0, #2, 0
    8c64:	e1550000 	cmp	r5, r0
    8c68:	e5ce9001 	strb	r9, [lr, #1]
    8c6c:	c5ce9002 	strbgt	r9, [lr, #2]
    8c70:	e3a0e000 	mov	lr, #0, 0
    8c74:	e083000c 	add	r0, r3, ip
    8c78:	e0400001 	sub	r0, r0, r1
    8c7c:	e350007f 	cmp	r0, #127, 0	; 0x7f
    8c80:	e082200c 	add	r2, r2, ip
    8c84:	e7c3e00c 	strb	lr, [r3, ip]
    8c88:	da000001 	ble	8c94 <va_printk+0x434>
    8c8c:	e240007f 	sub	r0, r0, #127, 0	; 0x7f
    8c90:	e0811000 	add	r1, r1, r0
    8c94:	e1510002 	cmp	r1, r2
    8c98:	8a000030 	bhi	8d60 <va_printk+0x500>
    8c9c:	e2822001 	add	r2, r2, #1, 0
    8ca0:	e1a03002 	mov	r3, r2
    8ca4:	e28d5018 	add	r5, sp, #24, 0
    8ca8:	e245c001 	sub	ip, r5, #1, 0
    8cac:	e5730001 	ldrb	r0, [r3, #-1]!
    8cb0:	e1530001 	cmp	r3, r1
    8cb4:	e5ec0001 	strb	r0, [ip, #1]!
    8cb8:	1afffffb 	bne	8cac <va_printk+0x44c>
    8cbc:	e0423003 	sub	r3, r2, r3
    8cc0:	e0853003 	add	r3, r5, r3
    8cc4:	e3a02000 	mov	r2, #0, 0
    8cc8:	e5c32000 	strb	r2, [r3]
    8ccc:	eaffff39 	b	89b8 <va_printk+0x158>
    8cd0:	e4985004 	ldr	r5, [r8], #4
    8cd4:	eaffff37 	b	89b8 <va_printk+0x158>
    8cd8:	e3a02003 	mov	r2, #3, 0
    8cdc:	e1a00006 	mov	r0, r6
    8ce0:	e59f1168 	ldr	r1, [pc, #360]	; 8e50 <va_printk+0x5f0>
    8ce4:	eb0001d1 	bl	9430 <strncmp>
    8ce8:	e2503000 	subs	r3, r0, #0, 0
    8cec:	1a00004b 	bne	8e20 <va_printk+0x5c0>
    8cf0:	e1a06003 	mov	r6, r3
    8cf4:	e1a0200b 	mov	r2, fp
    8cf8:	e58d3000 	str	r3, [sp]
    8cfc:	e28d1018 	add	r1, sp, #24, 0
    8d00:	e1a03005 	mov	r3, r5
    8d04:	e3a0000a 	mov	r0, #10, 0
    8d08:	ebfffdf2 	bl	84d8 <emit.constprop.0>
    8d0c:	e1a0c000 	mov	ip, r0
    8d10:	e1a03005 	mov	r3, r5
    8d14:	e1a02009 	mov	r2, r9
    8d18:	e28d1098 	add	r1, sp, #152, 0	; 0x98
    8d1c:	e3a0000a 	mov	r0, #10, 0
    8d20:	e58d6000 	str	r6, [sp]
    8d24:	e1a0500c 	mov	r5, ip
    8d28:	ebfffdea 	bl	84d8 <emit.constprop.0>
    8d2c:	e59f112c 	ldr	r1, [pc, #300]	; 8e60 <va_printk+0x600>
    8d30:	e28d0018 	add	r0, sp, #24, 0
    8d34:	eb0001a6 	bl	93d4 <strcmp>
    8d38:	e3500000 	cmp	r0, #0, 0
    8d3c:	e28d1098 	add	r1, sp, #152, 0	; 0x98
    8d40:	e28d0018 	add	r0, sp, #24, 0
    8d44:	1a000002 	bne	8d54 <va_printk+0x4f4>
    8d48:	eb0001b2 	bl	9418 <strcpy>
    8d4c:	e59d6014 	ldr	r6, [sp, #20]
    8d50:	eaffff18 	b	89b8 <va_printk+0x158>
    8d54:	eb000193 	bl	93a8 <strcat>
    8d58:	e59d6014 	ldr	r6, [sp, #20]
    8d5c:	eaffff15 	b	89b8 <va_printk+0x158>
    8d60:	e28d5018 	add	r5, sp, #24, 0
    8d64:	e1a03005 	mov	r3, r5
    8d68:	eaffffd5 	b	8cc4 <va_printk+0x464>
    8d6c:	e3a0c000 	mov	ip, #0, 0
    8d70:	e350007f 	cmp	r0, #127, 0	; 0x7f
    8d74:	e5c3c000 	strb	ip, [r3]
    8d78:	caffffc3 	bgt	8c8c <va_printk+0x42c>
    8d7c:	eaffffc6 	b	8c9c <va_printk+0x43c>
    8d80:	e3a02000 	mov	r2, #0, 0
    8d84:	e28d3098 	add	r3, sp, #152, 0	; 0x98
    8d88:	e1a00003 	mov	r0, r3
    8d8c:	e5cd2099 	strb	r2, [sp, #153]	; 0x99
    8d90:	eaffff85 	b	8bac <va_printk+0x34c>
    8d94:	e3a03000 	mov	r3, #0, 0
    8d98:	e1a01002 	mov	r1, r2
    8d9c:	e5c63001 	strb	r3, [r6, #1]
    8da0:	e59f00bc 	ldr	r0, [pc, #188]	; 8e64 <va_printk+0x604>
    8da4:	ebfffda7 	bl	8448 <printk>
    8da8:	e59f30b8 	ldr	r3, [pc, #184]	; 8e68 <va_printk+0x608>
    8dac:	e59d0010 	ldr	r0, [sp, #16]
    8db0:	e5933000 	ldr	r3, [r3]
    8db4:	e12fff33 	blx	r3
    8db8:	e3a030e2 	mov	r3, #226, 0	; 0xe2
    8dbc:	e59f20a8 	ldr	r2, [pc, #168]	; 8e6c <va_printk+0x60c>
    8dc0:	e59f10a8 	ldr	r1, [pc, #168]	; 8e70 <va_printk+0x610>
    8dc4:	e59f00a8 	ldr	r0, [pc, #168]	; 8e74 <va_printk+0x614>
    8dc8:	ebfffd9e 	bl	8448 <printk>
    8dcc:	eb000036 	bl	8eac <clean_reboot>
    8dd0:	e3a030be 	mov	r3, #190, 0	; 0xbe
    8dd4:	e59f2090 	ldr	r2, [pc, #144]	; 8e6c <va_printk+0x60c>
    8dd8:	e59f1090 	ldr	r1, [pc, #144]	; 8e70 <va_printk+0x610>
    8ddc:	e59f0094 	ldr	r0, [pc, #148]	; 8e78 <va_printk+0x618>
    8de0:	ebfffd98 	bl	8448 <printk>
    8de4:	eb000030 	bl	8eac <clean_reboot>
    8de8:	e28dc099 	add	ip, sp, #153, 0	; 0x99
    8dec:	e1a0000c 	mov	r0, ip
    8df0:	e3a02001 	mov	r2, #1, 0
    8df4:	eaffff58 	b	8b5c <va_printk+0x2fc>
    8df8:	e1a0400b 	mov	r4, fp
    8dfc:	eafffee0 	b	8984 <va_printk+0x124>
    8e00:	e3a03098 	mov	r3, #152, 0	; 0x98
    8e04:	e59f2070 	ldr	r2, [pc, #112]	; 8e7c <va_printk+0x61c>
    8e08:	e59f1060 	ldr	r1, [pc, #96]	; 8e70 <va_printk+0x610>
    8e0c:	e58d2000 	str	r2, [sp]
    8e10:	e59f0068 	ldr	r0, [pc, #104]	; 8e80 <va_printk+0x620>
    8e14:	e59f2050 	ldr	r2, [pc, #80]	; 8e6c <va_printk+0x60c>
    8e18:	ebfffd8a 	bl	8448 <printk>
    8e1c:	eb000022 	bl	8eac <clean_reboot>
    8e20:	e3a030b6 	mov	r3, #182, 0	; 0xb6
    8e24:	e59f2040 	ldr	r2, [pc, #64]	; 8e6c <va_printk+0x60c>
    8e28:	e59f1040 	ldr	r1, [pc, #64]	; 8e70 <va_printk+0x610>
    8e2c:	e59f0050 	ldr	r0, [pc, #80]	; 8e84 <va_printk+0x624>
    8e30:	e58d6000 	str	r6, [sp]
    8e34:	ebfffd83 	bl	8448 <printk>
    8e38:	eb00001b 	bl	8eac <clean_reboot>
    8e3c:	e3a0309f 	mov	r3, #159, 0	; 0x9f
    8e40:	e59f2040 	ldr	r2, [pc, #64]	; 8e88 <va_printk+0x628>
    8e44:	eaffffef 	b	8e08 <va_printk+0x5a8>
    8e48:	00009558 	andeq	r9, r0, r8, asr r5
    8e4c:	0000957c 	andeq	r9, r0, ip, ror r5
    8e50:	00009590 	muleq	r0, r0, r5
    8e54:	00009580 	andeq	r9, r0, r0, lsl #11
    8e58:	00009588 	andeq	r9, r0, r8, lsl #11
    8e5c:	20202020 	eorcs	r2, r0, r0, lsr #32
    8e60:	00009540 	andeq	r9, r0, r0, asr #10
    8e64:	00009620 	andeq	r9, r0, r0, lsr #12
    8e68:	000096a0 	andeq	r9, r0, r0, lsr #13
    8e6c:	00009688 	andeq	r9, r0, r8, lsl #13
    8e70:	00009518 	andeq	r9, r0, r8, lsl r5
    8e74:	00009650 	andeq	r9, r0, r0, asr r6
    8e78:	000095f8 	strdeq	r9, [r0], -r8
    8e7c:	00009570 	andeq	r9, r0, r0, ror r5
    8e80:	0000952c 	andeq	r9, r0, ip, lsr #10
    8e84:	000095d0 	ldrdeq	r9, [r0], -r0
    8e88:	00009594 	muleq	r0, r4, r5

00008e8c <enable_cache>:
    8e8c:	ee113f10 	mrc	15, 0, r3, cr1, cr0, {0}
    8e90:	e3833b06 	orr	r3, r3, #6144	; 0x1800
    8e94:	ee013f10 	mcr	15, 0, r3, cr1, cr0, {0}
    8e98:	e12fff1e 	bx	lr

00008e9c <disable_cache>:
    8e9c:	ee113f10 	mrc	15, 0, r3, cr1, cr0, {0}
    8ea0:	e3c33b06 	bic	r3, r3, #6144	; 0x1800
    8ea4:	ee013f10 	mcr	15, 0, r3, cr1, cr0, {0}
    8ea8:	e12fff1e 	bx	lr

00008eac <clean_reboot>:
    8eac:	e59f301c 	ldr	r3, [pc, #28]	; 8ed0 <clean_reboot+0x24>
    8eb0:	e92d4010 	push	{r4, lr}
    8eb4:	e5933000 	ldr	r3, [r3]
    8eb8:	e59f0014 	ldr	r0, [pc, #20]	; 8ed4 <clean_reboot+0x28>
    8ebc:	e12fff33 	blx	r3
    8ec0:	eb00011b 	bl	9334 <uart_flush_tx>
    8ec4:	e3a0000a 	mov	r0, #10, 0
    8ec8:	eb000082 	bl	90d8 <delay_ms>
    8ecc:	eb00004b 	bl	9000 <rpi_reboot>
    8ed0:	000096a0 	andeq	r9, r0, r0, lsr #13
    8ed4:	00009694 	muleq	r0, r4, r6

00008ed8 <_cstart>:
    8ed8:	e92d4070 	push	{r4, r5, r6, lr}
    8edc:	eb00003b 	bl	8fd0 <custom_loader>
    8ee0:	e59f20e0 	ldr	r2, [pc, #224]	; 8fc8 <_cstart+0xf0>
    8ee4:	e59fc0e0 	ldr	ip, [pc, #224]	; 8fcc <_cstart+0xf4>
    8ee8:	e152000c 	cmp	r2, ip
    8eec:	2a00002e 	bcs	8fac <_cstart+0xd4>
    8ef0:	e24c1001 	sub	r1, ip, #1, 0
    8ef4:	e0411002 	sub	r1, r1, r2
    8ef8:	e3510017 	cmp	r1, #23, 0
    8efc:	e1a03122 	lsr	r3, r2, #2
    8f00:	e1a01121 	lsr	r1, r1, #2
    8f04:	e2811001 	add	r1, r1, #1, 0
    8f08:	e2033001 	and	r3, r3, #1, 0
    8f0c:	9a00002b 	bls	8fc0 <_cstart+0xe8>
    8f10:	e3530000 	cmp	r3, #0, 0
    8f14:	11a00002 	movne	r0, r2
    8f18:	13a0e000 	movne	lr, #0, 0
    8f1c:	e3a04000 	mov	r4, #0, 0
    8f20:	e3a05000 	mov	r5, #0, 0
    8f24:	e0411003 	sub	r1, r1, r3
    8f28:	01a00002 	moveq	r0, r2
    8f2c:	e0823103 	add	r3, r2, r3, lsl #2
    8f30:	e1a020a1 	lsr	r2, r1, #1
    8f34:	1480e004 	strne	lr, [r0], #4
    8f38:	e0832182 	add	r2, r3, r2, lsl #3
    8f3c:	e0c340f8 	strd	r4, [r3], #8
    8f40:	e1520003 	cmp	r2, r3
    8f44:	1afffffc 	bne	8f3c <_cstart+0x64>
    8f48:	e3c13001 	bic	r3, r1, #1, 0
    8f4c:	e1510003 	cmp	r1, r3
    8f50:	e0803103 	add	r3, r0, r3, lsl #2
    8f54:	0a000014 	beq	8fac <_cstart+0xd4>
    8f58:	e1a01003 	mov	r1, r3
    8f5c:	e3a02000 	mov	r2, #0, 0
    8f60:	e4812004 	str	r2, [r1], #4
    8f64:	e151000c 	cmp	r1, ip
    8f68:	2a00000f 	bcs	8fac <_cstart+0xd4>
    8f6c:	e2831008 	add	r1, r3, #8, 0
    8f70:	e151000c 	cmp	r1, ip
    8f74:	e5832004 	str	r2, [r3, #4]
    8f78:	2a00000b 	bcs	8fac <_cstart+0xd4>
    8f7c:	e283100c 	add	r1, r3, #12, 0
    8f80:	e151000c 	cmp	r1, ip
    8f84:	e5832008 	str	r2, [r3, #8]
    8f88:	2a000007 	bcs	8fac <_cstart+0xd4>
    8f8c:	e2831010 	add	r1, r3, #16, 0
    8f90:	e151000c 	cmp	r1, ip
    8f94:	e583200c 	str	r2, [r3, #12]
    8f98:	2a000003 	bcs	8fac <_cstart+0xd4>
    8f9c:	e2831014 	add	r1, r3, #20, 0
    8fa0:	e151000c 	cmp	r1, ip
    8fa4:	e5832010 	str	r2, [r3, #16]
    8fa8:	35832014 	strcc	r2, [r3, #20]
    8fac:	eb000082 	bl	91bc <uart_init>
    8fb0:	e3a03001 	mov	r3, #1, 0
    8fb4:	ee0f3f1c 	mcr	15, 0, r3, cr15, cr12, {0}
    8fb8:	ebfffc50 	bl	8100 <notmain>
    8fbc:	ebffffba 	bl	8eac <clean_reboot>
    8fc0:	e1a03002 	mov	r3, r2
    8fc4:	eaffffe3 	b	8f58 <_cstart+0x80>
    8fc8:	000096a8 	andeq	r9, r0, r8, lsr #13
    8fcc:	00009aa8 	andeq	r9, r0, r8, lsr #21

00008fd0 <custom_loader>:
    8fd0:	e12fff1e 	bx	lr

00008fd4 <at_user_level>:
    8fd4:	e10f0000 	mrs	r0, CPSR
    8fd8:	e200001f 	and	r0, r0, #31, 0
    8fdc:	e2400010 	sub	r0, r0, #16, 0
    8fe0:	e16f0f10 	clz	r0, r0
    8fe4:	e1a002a0 	lsr	r0, r0, #5
    8fe8:	e12fff1e 	bx	lr

00008fec <set_user_level>:
    8fec:	e10f3000 	mrs	r3, CPSR
    8ff0:	e3c3301f 	bic	r3, r3, #31, 0
    8ff4:	e3833010 	orr	r3, r3, #16, 0
    8ff8:	e129f003 	msr	CPSR_fc, r3
    8ffc:	e12fff1e 	bx	lr

00009000 <rpi_reboot>:
    9000:	e92d4010 	push	{r4, lr}
    9004:	e10f3000 	mrs	r3, CPSR
    9008:	e203301f 	and	r3, r3, #31, 0
    900c:	e3530010 	cmp	r3, #16, 0
    9010:	1a000003 	bne	9024 <rpi_reboot+0x24>
    9014:	e10f3000 	mrs	r3, CPSR
    9018:	e3c3301f 	bic	r3, r3, #31, 0
    901c:	e3833010 	orr	r3, r3, #16, 0
    9020:	e129f003 	msr	CPSR_fc, r3
    9024:	eb00010d 	bl	9460 <reboot_callout>
    9028:	eb0000c1 	bl	9334 <uart_flush_tx>
    902c:	e3a0000a 	mov	r0, #10, 0
    9030:	eb000028 	bl	90d8 <delay_ms>
    9034:	e59f1014 	ldr	r1, [pc, #20]	; 9050 <rpi_reboot+0x50>
    9038:	e59f0014 	ldr	r0, [pc, #20]	; 9054 <rpi_reboot+0x54>
    903c:	ebfffbf8 	bl	8024 <PUT32>
    9040:	e59f1010 	ldr	r1, [pc, #16]	; 9058 <rpi_reboot+0x58>
    9044:	e59f0010 	ldr	r0, [pc, #16]	; 905c <rpi_reboot+0x5c>
    9048:	ebfffbf5 	bl	8024 <PUT32>
    904c:	eafffffe 	b	904c <rpi_reboot+0x4c>
    9050:	5a000001 	bpl	905c <rpi_reboot+0x5c>
    9054:	20100024 	andscs	r0, r0, r4, lsr #32
    9058:	5a000020 	bpl	90e0 <delay_ms+0x8>
    905c:	2010001c 	andscs	r0, r0, ip, lsl r0

00009060 <timer_get_usec_raw>:
    9060:	e59f0000 	ldr	r0, [pc]	; 9068 <timer_get_usec_raw+0x8>
    9064:	eafffbf0 	b	802c <GET32>
    9068:	20003004 	andcs	r3, r0, r4

0000906c <timer_get_usec>:
    906c:	e92d4010 	push	{r4, lr}
    9070:	eb0000fb 	bl	9464 <dev_barrier>
    9074:	e59f0010 	ldr	r0, [pc, #16]	; 908c <timer_get_usec+0x20>
    9078:	ebfffbeb 	bl	802c <GET32>
    907c:	e1a04000 	mov	r4, r0
    9080:	eb0000f7 	bl	9464 <dev_barrier>
    9084:	e1a00004 	mov	r0, r4
    9088:	e8bd8010 	pop	{r4, pc}
    908c:	20003004 	andcs	r3, r0, r4

00009090 <delay_us>:
    9090:	e92d41f0 	push	{r4, r5, r6, r7, r8, lr}
    9094:	e1a06000 	mov	r6, r0
    9098:	eb0000f1 	bl	9464 <dev_barrier>
    909c:	e59f0030 	ldr	r0, [pc, #48]	; 90d4 <delay_us+0x44>
    90a0:	ebfffbe1 	bl	802c <GET32>
    90a4:	e1a05000 	mov	r5, r0
    90a8:	eb0000ed 	bl	9464 <dev_barrier>
    90ac:	e59f7020 	ldr	r7, [pc, #32]	; 90d4 <delay_us+0x44>
    90b0:	eb0000eb 	bl	9464 <dev_barrier>
    90b4:	e1a00007 	mov	r0, r7
    90b8:	ebfffbdb 	bl	802c <GET32>
    90bc:	e1a04000 	mov	r4, r0
    90c0:	e0444005 	sub	r4, r4, r5
    90c4:	eb0000e6 	bl	9464 <dev_barrier>
    90c8:	e1540006 	cmp	r4, r6
    90cc:	3afffff7 	bcc	90b0 <delay_us+0x20>
    90d0:	e8bd81f0 	pop	{r4, r5, r6, r7, r8, pc}
    90d4:	20003004 	andcs	r3, r0, r4

000090d8 <delay_ms>:
    90d8:	e92d41f0 	push	{r4, r5, r6, r7, r8, lr}
    90dc:	e0604280 	rsb	r4, r0, r0, lsl #5
    90e0:	e0800104 	add	r0, r0, r4, lsl #2
    90e4:	e1a04180 	lsl	r4, r0, #3
    90e8:	eb0000dd 	bl	9464 <dev_barrier>
    90ec:	e59f0030 	ldr	r0, [pc, #48]	; 9124 <delay_ms+0x4c>
    90f0:	ebfffbcd 	bl	802c <GET32>
    90f4:	e1a06000 	mov	r6, r0
    90f8:	eb0000d9 	bl	9464 <dev_barrier>
    90fc:	e59f7020 	ldr	r7, [pc, #32]	; 9124 <delay_ms+0x4c>
    9100:	eb0000d7 	bl	9464 <dev_barrier>
    9104:	e1a00007 	mov	r0, r7
    9108:	ebfffbc7 	bl	802c <GET32>
    910c:	e1a05000 	mov	r5, r0
    9110:	e0455006 	sub	r5, r5, r6
    9114:	eb0000d2 	bl	9464 <dev_barrier>
    9118:	e1540005 	cmp	r4, r5
    911c:	8afffff7 	bhi	9100 <delay_ms+0x28>
    9120:	e8bd81f0 	pop	{r4, r5, r6, r7, r8, pc}
    9124:	20003004 	andcs	r3, r0, r4

00009128 <delay_sec>:
    9128:	e92d41f0 	push	{r4, r5, r6, r7, r8, lr}
    912c:	e0604280 	rsb	r4, r0, r0, lsl #5
    9130:	e0644304 	rsb	r4, r4, r4, lsl #6
    9134:	e0800184 	add	r0, r0, r4, lsl #3
    9138:	e1a04300 	lsl	r4, r0, #6
    913c:	eb0000c8 	bl	9464 <dev_barrier>
    9140:	e59f0030 	ldr	r0, [pc, #48]	; 9178 <delay_sec+0x50>
    9144:	ebfffbb8 	bl	802c <GET32>
    9148:	e1a06000 	mov	r6, r0
    914c:	eb0000c4 	bl	9464 <dev_barrier>
    9150:	e59f7020 	ldr	r7, [pc, #32]	; 9178 <delay_sec+0x50>
    9154:	eb0000c2 	bl	9464 <dev_barrier>
    9158:	e1a00007 	mov	r0, r7
    915c:	ebfffbb2 	bl	802c <GET32>
    9160:	e1a05000 	mov	r5, r0
    9164:	e0455006 	sub	r5, r5, r6
    9168:	eb0000bd 	bl	9464 <dev_barrier>
    916c:	e1540005 	cmp	r4, r5
    9170:	8afffff7 	bhi	9154 <delay_sec+0x2c>
    9174:	e8bd81f0 	pop	{r4, r5, r6, r7, r8, pc}
    9178:	20003004 	andcs	r3, r0, r4

0000917c <and_in32>:
    917c:	e92d4070 	push	{r4, r5, r6, lr}
    9180:	e1a04000 	mov	r4, r0
    9184:	e1a05001 	mov	r5, r1
    9188:	ebfffba7 	bl	802c <GET32>
    918c:	e0001005 	and	r1, r0, r5
    9190:	e1a00004 	mov	r0, r4
    9194:	ebfffba2 	bl	8024 <PUT32>
    9198:	e8bd8070 	pop	{r4, r5, r6, pc}

0000919c <or_in32>:
    919c:	e92d4070 	push	{r4, r5, r6, lr}
    91a0:	e1a04000 	mov	r4, r0
    91a4:	e1a05001 	mov	r5, r1
    91a8:	ebfffb9f 	bl	802c <GET32>
    91ac:	e1801005 	orr	r1, r0, r5
    91b0:	e1a00004 	mov	r0, r4
    91b4:	ebfffb9a 	bl	8024 <PUT32>
    91b8:	e8bd8070 	pop	{r4, r5, r6, pc}

000091bc <uart_init>:
    91bc:	e92d4010 	push	{r4, lr}
    91c0:	e3a01002 	mov	r1, #2, 0
    91c4:	e3a0000e 	mov	r0, #14, 0
    91c8:	ebfffc36 	bl	82a8 <gpio_set_function>
    91cc:	e3a01002 	mov	r1, #2, 0
    91d0:	e3a0000f 	mov	r0, #15, 0
    91d4:	ebfffc33 	bl	82a8 <gpio_set_function>
    91d8:	eb0000a1 	bl	9464 <dev_barrier>
    91dc:	e3a01001 	mov	r1, #1, 0
    91e0:	e59f0064 	ldr	r0, [pc, #100]	; 924c <uart_init+0x90>
    91e4:	ebffffec 	bl	919c <or_in32>
    91e8:	eb00009d 	bl	9464 <dev_barrier>
    91ec:	e59f405c 	ldr	r4, [pc, #92]	; 9250 <uart_init+0x94>
    91f0:	e3a01000 	mov	r1, #0, 0
    91f4:	e1a00004 	mov	r0, r4
    91f8:	ebfffb89 	bl	8024 <PUT32>
    91fc:	e3a01000 	mov	r1, #0, 0
    9200:	e59f004c 	ldr	r0, [pc, #76]	; 9254 <uart_init+0x98>
    9204:	ebfffb86 	bl	8024 <PUT32>
    9208:	e3a01003 	mov	r1, #3, 0
    920c:	e59f0044 	ldr	r0, [pc, #68]	; 9258 <uart_init+0x9c>
    9210:	ebfffb83 	bl	8024 <PUT32>
    9214:	e3a01000 	mov	r1, #0, 0
    9218:	e59f003c 	ldr	r0, [pc, #60]	; 925c <uart_init+0xa0>
    921c:	ebfffb80 	bl	8024 <PUT32>
    9220:	e3a010c7 	mov	r1, #199, 0	; 0xc7
    9224:	e59f0034 	ldr	r0, [pc, #52]	; 9260 <uart_init+0xa4>
    9228:	ebfffb7d 	bl	8024 <PUT32>
    922c:	e59f1030 	ldr	r1, [pc, #48]	; 9264 <uart_init+0xa8>
    9230:	e59f0030 	ldr	r0, [pc, #48]	; 9268 <uart_init+0xac>
    9234:	ebfffb7a 	bl	8024 <PUT32>
    9238:	e3a01003 	mov	r1, #3, 0
    923c:	e1a00004 	mov	r0, r4
    9240:	ebfffb77 	bl	8024 <PUT32>
    9244:	eb000086 	bl	9464 <dev_barrier>
    9248:	e8bd8010 	pop	{r4, pc}
    924c:	20215004 	eorcs	r5, r1, r4
    9250:	20215060 	eorcs	r5, r1, r0, rrx
    9254:	20215044 	eorcs	r5, r1, r4, asr #32
    9258:	2021504c 	eorcs	r5, r1, ip, asr #32
    925c:	20215050 	eorcs	r5, r1, r0, asr r0
    9260:	20215048 	eorcs	r5, r1, r8, asr #32
    9264:	0000010e 	andeq	r0, r0, lr, lsl #2
    9268:	20215068 	eorcs	r5, r1, r8, rrx

0000926c <uart_can_getc>:
    926c:	e92d4010 	push	{r4, lr}
    9270:	e59f0008 	ldr	r0, [pc, #8]	; 9280 <uart_can_getc+0x14>
    9274:	ebfffb6c 	bl	802c <GET32>
    9278:	e2000001 	and	r0, r0, #1, 0
    927c:	e8bd8010 	pop	{r4, pc}
    9280:	20215064 	eorcs	r5, r1, r4, rrx

00009284 <uart_can_putc>:
    9284:	e92d4010 	push	{r4, lr}
    9288:	e59f0010 	ldr	r0, [pc, #16]	; 92a0 <uart_can_putc+0x1c>
    928c:	ebfffb66 	bl	802c <GET32>
    9290:	e3100002 	tst	r0, #2, 0
    9294:	13a00001 	movne	r0, #1, 0
    9298:	03a00000 	moveq	r0, #0, 0
    929c:	e8bd8010 	pop	{r4, pc}
    92a0:	20215064 	eorcs	r5, r1, r4, rrx

000092a4 <uart_getc>:
    92a4:	e92d4010 	push	{r4, lr}
    92a8:	eb00006d 	bl	9464 <dev_barrier>
    92ac:	ebffffee 	bl	926c <uart_can_getc>
    92b0:	e3500000 	cmp	r0, #0, 0
    92b4:	0afffffc 	beq	92ac <uart_getc+0x8>
    92b8:	e59f0010 	ldr	r0, [pc, #16]	; 92d0 <uart_getc+0x2c>
    92bc:	ebfffb5a 	bl	802c <GET32>
    92c0:	e6ef4070 	uxtb	r4, r0
    92c4:	eb000066 	bl	9464 <dev_barrier>
    92c8:	e1a00004 	mov	r0, r4
    92cc:	e8bd8010 	pop	{r4, pc}
    92d0:	20215040 	eorcs	r5, r1, r0, asr #32

000092d4 <uart_putc>:
    92d4:	e92d4010 	push	{r4, lr}
    92d8:	e1a04000 	mov	r4, r0
    92dc:	eb000060 	bl	9464 <dev_barrier>
    92e0:	ebffffe7 	bl	9284 <uart_can_putc>
    92e4:	e3500000 	cmp	r0, #0, 0
    92e8:	0afffffc 	beq	92e0 <uart_putc+0xc>
    92ec:	e6ef1074 	uxtb	r1, r4
    92f0:	e59f0008 	ldr	r0, [pc, #8]	; 9300 <uart_putc+0x2c>
    92f4:	ebfffb4a 	bl	8024 <PUT32>
    92f8:	eb000059 	bl	9464 <dev_barrier>
    92fc:	e8bd8010 	pop	{r4, pc}
    9300:	20215040 	eorcs	r5, r1, r0, asr #32

00009304 <uart_has_data>:
    9304:	e92d4010 	push	{r4, lr}
    9308:	eb000055 	bl	9464 <dev_barrier>
    930c:	ebffffd6 	bl	926c <uart_can_getc>
    9310:	e8bd8010 	pop	{r4, pc}

00009314 <uart_tx_is_empty>:
    9314:	e92d4010 	push	{r4, lr}
    9318:	eb000051 	bl	9464 <dev_barrier>
    931c:	e59f000c 	ldr	r0, [pc, #12]	; 9330 <uart_tx_is_empty+0x1c>
    9320:	ebfffb41 	bl	802c <GET32>
    9324:	e1a004a0 	lsr	r0, r0, #9
    9328:	e2000001 	and	r0, r0, #1, 0
    932c:	e8bd8010 	pop	{r4, pc}
    9330:	20215064 	eorcs	r5, r1, r4, rrx

00009334 <uart_flush_tx>:
    9334:	e92d4010 	push	{r4, lr}
    9338:	ebfffff5 	bl	9314 <uart_tx_is_empty>
    933c:	e3500000 	cmp	r0, #0, 0
    9340:	0afffffc 	beq	9338 <uart_flush_tx+0x4>
    9344:	e8bd8010 	pop	{r4, pc}

00009348 <uart_disable>:
    9348:	e92d4010 	push	{r4, lr}
    934c:	ebfffff8 	bl	9334 <uart_flush_tx>
    9350:	eb000043 	bl	9464 <dev_barrier>
    9354:	e3e01001 	mvn	r1, #1, 0
    9358:	e59f0008 	ldr	r0, [pc, #8]	; 9368 <uart_disable+0x20>
    935c:	ebffff86 	bl	917c <and_in32>
    9360:	eb00003f 	bl	9464 <dev_barrier>
    9364:	e8bd8010 	pop	{r4, pc}
    9368:	20215004 	eorcs	r5, r1, r4

0000936c <internal_putchar>:
    936c:	e92d4010 	push	{r4, lr}
    9370:	e1a04000 	mov	r4, r0
    9374:	ebffffd6 	bl	92d4 <uart_putc>
    9378:	e1a00004 	mov	r0, r4
    937c:	e8bd8010 	pop	{r4, pc}

00009380 <rpi_reset_putc>:
    9380:	e59f3008 	ldr	r3, [pc, #8]	; 9390 <rpi_reset_putc+0x10>
    9384:	e59f2008 	ldr	r2, [pc, #8]	; 9394 <rpi_reset_putc+0x14>
    9388:	e5832000 	str	r2, [r3]
    938c:	e12fff1e 	bx	lr
    9390:	000096a4 	andeq	r9, r0, r4, lsr #13
    9394:	0000936c 	andeq	r9, r0, ip, ror #6

00009398 <rpi_set_putc>:
    9398:	e59f3004 	ldr	r3, [pc, #4]	; 93a4 <rpi_set_putc+0xc>
    939c:	e5830000 	str	r0, [r3]
    93a0:	e12fff1e 	bx	lr
    93a4:	000096a4 	andeq	r9, r0, r4, lsr #13

000093a8 <strcat>:
    93a8:	e1a02000 	mov	r2, r0
    93ac:	e1a03002 	mov	r3, r2
    93b0:	e4d2c001 	ldrb	ip, [r2], #1
    93b4:	e35c0000 	cmp	ip, #0, 0
    93b8:	1afffffb 	bne	93ac <strcat+0x4>
    93bc:	e2433001 	sub	r3, r3, #1, 0
    93c0:	e4d12001 	ldrb	r2, [r1], #1
    93c4:	e3520000 	cmp	r2, #0, 0
    93c8:	e5e32001 	strb	r2, [r3, #1]!
    93cc:	1afffffb 	bne	93c0 <strcat+0x18>
    93d0:	e12fff1e 	bx	lr

000093d4 <strcmp>:
    93d4:	e5d03000 	ldrb	r3, [r0]
    93d8:	e3530000 	cmp	r3, #0, 0
    93dc:	05d12000 	ldrbeq	r2, [r1]
    93e0:	1a000003 	bne	93f4 <strcmp+0x20>
    93e4:	ea000006 	b	9404 <strcmp+0x30>
    93e8:	e5f03001 	ldrb	r3, [r0, #1]!
    93ec:	e3530000 	cmp	r3, #0, 0
    93f0:	0a000005 	beq	940c <strcmp+0x38>
    93f4:	e1a0c001 	mov	ip, r1
    93f8:	e4d12001 	ldrb	r2, [r1], #1
    93fc:	e1520003 	cmp	r2, r3
    9400:	0afffff8 	beq	93e8 <strcmp+0x14>
    9404:	e0430002 	sub	r0, r3, r2
    9408:	e12fff1e 	bx	lr
    940c:	e5dc2001 	ldrb	r2, [ip, #1]
    9410:	e0430002 	sub	r0, r3, r2
    9414:	e12fff1e 	bx	lr

00009418 <strcpy>:
    9418:	e2402001 	sub	r2, r0, #1, 0
    941c:	e4d13001 	ldrb	r3, [r1], #1
    9420:	e3530000 	cmp	r3, #0, 0
    9424:	e5e23001 	strb	r3, [r2, #1]!
    9428:	1afffffb 	bne	941c <strcpy+0x4>
    942c:	e12fff1e 	bx	lr

00009430 <strncmp>:
    9430:	e0802002 	add	r2, r0, r2
    9434:	ea000003 	b	9448 <strncmp+0x18>
    9438:	e4d03001 	ldrb	r3, [r0], #1
    943c:	e4d1c001 	ldrb	ip, [r1], #1
    9440:	e153000c 	cmp	r3, ip
    9444:	1a000003 	bne	9458 <strncmp+0x28>
    9448:	e1500002 	cmp	r0, r2
    944c:	1afffff9 	bne	9438 <strncmp+0x8>
    9450:	e3a00000 	mov	r0, #0, 0
    9454:	e12fff1e 	bx	lr
    9458:	e043000c 	sub	r0, r3, ip
    945c:	e12fff1e 	bx	lr

00009460 <reboot_callout>:
    9460:	e12fff1e 	bx	lr

00009464 <dev_barrier>:
    9464:	ea000002 	b	9474 <dsb>

00009468 <dmb>:
    9468:	e3a00000 	mov	r0, #0, 0
    946c:	ee070fba 	mcr	15, 0, r0, cr7, cr10, {5}
    9470:	e12fff1e 	bx	lr

00009474 <dsb>:
    9474:	ee070f9a 	mcr	15, 0, r0, cr7, cr10, {4}
    9478:	e12fff1e 	bx	lr

0000947c <__code_end__>:
    947c:	00000000 	andeq	r0, r0, r0

Disassembly of section .rodata:

00009480 <__FUNCTION__.4000-0x1f0>:
    9480:	656d6974 	strbvs	r6, [sp, #-2420]!	; 0xfffff68c
    9484:	2174756f 	cmncs	r4, pc, ror #10
    9488:	0000000a 	andeq	r0, r0, sl
    948c:	73206f4e 			; <UNDEFINED> instruction: 0x73206f4e
    9490:	6c706d61 	ldclvs	13, cr6, [r0], #-388	; 0xfffffe7c
    9494:	74207365 	strtvc	r7, [r0], #-869	; 0xfffffc9b
    9498:	7270206f 	rsbsvc	r2, r0, #111, 0	; 0x6f
    949c:	21746e69 	cmncs	r4, r9, ror #28
    94a0:	0000000a 	andeq	r0, r0, sl
    94a4:	706d7544 	rsbvc	r7, sp, r4, asr #10
    94a8:	20676e69 	rsbcs	r6, r7, r9, ror #28
    94ac:	73206425 			; <UNDEFINED> instruction: 0x73206425
    94b0:	6c706d61 	ldclvs	13, cr6, [r0], #-388	; 0xfffffe7c
    94b4:	203a7365 	eorscs	r7, sl, r5, ror #6
    94b8:	3d3d3d3d 	ldccc	13, cr3, [sp, #-244]!	; 0xffffff0c
    94bc:	3d3d3d3d 	ldccc	13, cr3, [sp, #-244]!	; 0xffffff0c
    94c0:	3d3d3d3d 	ldccc	13, cr3, [sp, #-244]!	; 0xffffff0c
    94c4:	000a3d3d 	andeq	r3, sl, sp, lsr sp
    94c8:	3a642520 	bcc	1912950 <__bss_end__+0x1908ea8>
    94cc:	6c617620 	stclvs	6, cr7, [r1], #-128	; 0xffffff80
    94d0:	2c64253d 	cfstr64cs	mvdx2, [r4], #-244	; 0xffffff0c
    94d4:	6d697420 	cfstrdvs	mvd7, [r9, #-128]!	; 0xffffff80
    94d8:	64253d65 	strtvs	r3, [r5], #-3429	; 0xfffff29b
    94dc:	6f74202c 	svcvs	0x0074202c
    94e0:	64253d74 	strtvs	r3, [r5], #-3444	; 0xfffff28c
    94e4:	7865203a 	stmdavc	r5!, {r1, r3, r4, r5, sp}^
    94e8:	64253d70 	strtvs	r3, [r5], #-3440	; 0xfffff290
    94ec:	72652820 	rsbvc	r2, r5, #32, 16	; 0x200000
    94f0:	64253d72 	strtvs	r3, [r5], #-3442	; 0xfffff28e
    94f4:	6f74202c 	svcvs	0x0074202c
    94f8:	72726574 	rsbsvc	r6, r2, #116, 10	; 0x1d000000
    94fc:	2964253d 	stmdbcs	r4!, {r0, r2, r3, r4, r5, r8, sl, sp}^
    9500:	0000000a 	andeq	r0, r0, sl
    9504:	52455641 	subpl	r5, r5, #68157440	; 0x4100000
    9508:	20454741 	subcs	r4, r5, r1, asr #14
    950c:	4f525245 	svcmi	0x00525245
    9510:	25203a52 	strcs	r3, [r0, #-2642]!	; 0xfffff5ae
    9514:	00000a64 	andeq	r0, r0, r4, ror #20
    9518:	696c2f2e 	stmdbvs	ip!, {r1, r2, r3, r5, r8, r9, sl, fp, sp}^
    951c:	762f6362 	strtvc	r6, [pc], -r2, ror #6
    9520:	72702d61 	rsbsvc	r2, r0, #6208	; 0x1840
    9524:	6b746e69 	blvs	1d24ed0 <__bss_end__+0x1d1b428>
    9528:	0000632e 	andeq	r6, r0, lr, lsr #6
    952c:	494e4150 	stmdbmi	lr, {r4, r6, r8, lr}^
    9530:	73253a43 			; <UNDEFINED> instruction: 0x73253a43
    9534:	3a73253a 	bcc	1cd2a24 <__bss_end__+0x1cc8f7c>
    9538:	253a6425 	ldrcs	r6, [sl, #-1061]!	; 0xfffffbdb
    953c:	00000a73 	andeq	r0, r0, r3, ror sl
    9540:	00000030 	andeq	r0, r0, r0, lsr r0
    9544:	33323130 	teqcc	r2, #12
    9548:	37363534 			; <UNDEFINED> instruction: 0x37363534
    954c:	62613938 	rsbvs	r3, r1, #56, 18	; 0xe0000
    9550:	66656463 	strbtvs	r6, [r5], -r3, ror #8
    9554:	00000000 	andeq	r0, r0, r0
    9558:	00003130 	andeq	r3, r0, r0, lsr r1
    955c:	33323130 	teqcc	r2, #12
    9560:	37363534 			; <UNDEFINED> instruction: 0x37363534
    9564:	00003938 	andeq	r3, r0, r8, lsr r9
    9568:	63747570 	cmnvs	r4, #112, 10	; 0x1c000000
    956c:	0070665f 	rsbseq	r6, r0, pc, asr r6
    9570:	74646977 	strbtvc	r6, [r4], #-2423	; 0xfffff689
    9574:	203c2068 	eorscs	r2, ip, r8, rrx
    9578:	00003233 	andeq	r3, r0, r3, lsr r2
    957c:	00786c6c 	rsbseq	r6, r8, ip, ror #24
    9580:	253d3078 	ldrcs	r3, [sp, #-120]!	; 0xffffff88
    9584:	00000a78 	andeq	r0, r0, r8, ror sl
    9588:	253d3178 	ldrcs	r3, [sp, #-376]!	; 0xfffffe88
    958c:	00000a78 	andeq	r0, r0, r8, ror sl
    9590:	00646c6c 	rsbeq	r6, r4, ip, ror #24
    9594:	6e727473 	mrcvs	4, 3, r7, cr2, cr3, {3}
    9598:	28706d63 	ldmdacs	r0!, {r0, r1, r5, r6, r8, sl, fp, sp, lr}^
    959c:	202c7974 	eorcs	r7, ip, r4, ror r9
    95a0:	786c6c22 	stmdavc	ip!, {r1, r5, sl, fp, sp, lr}^
    95a4:	33202c22 			; <UNDEFINED> instruction: 0x33202c22
    95a8:	3d3d2029 	ldccc	0, cr2, [sp, #-164]!	; 0xffffff5c
    95ac:	7c203020 	stcvc	0, cr3, [r0], #-128	; 0xffffff80
    95b0:	7473207c 	ldrbtvc	r2, [r3], #-124	; 0xffffff84
    95b4:	6d636e72 	stclvs	14, cr6, [r3, #-456]!	; 0xfffffe38
    95b8:	79742870 	ldmdbvc	r4!, {r4, r5, r6, fp, sp}^
    95bc:	6c22202c 	stcvs	0, cr2, [r2], #-176	; 0xffffff50
    95c0:	2c22646c 	cfstrscs	mvf6, [r2], #-432	; 0xfffffe50
    95c4:	20293320 	eorcs	r3, r9, r0, lsr #6
    95c8:	30203d3d 	eorcc	r3, r0, sp, lsr sp
    95cc:	00000000 	andeq	r0, r0, r0
    95d0:	494e4150 	stmdbmi	lr, {r4, r6, r8, lr}^
    95d4:	73253a43 			; <UNDEFINED> instruction: 0x73253a43
    95d8:	3a73253a 	bcc	1cd2ac8 <__bss_end__+0x1cc9020>
    95dc:	693a6425 	ldmdbvs	sl!, {r0, r2, r5, sl, sp, lr}
    95e0:	736f706d 	cmnvc	pc, #109, 0	; 0x6d
    95e4:	6c626973 			; <UNDEFINED> instruction: 0x6c626973
    95e8:	66203a65 	strtvs	r3, [r0], -r5, ror #20
    95ec:	3c3d746d 	cfldrscc	mvf7, [sp], #-436	; 0xfffffe4c
    95f0:	0a3e7325 	beq	fa628c <__bss_end__+0xf9c7e4>
    95f4:	0000000a 	andeq	r0, r0, sl
    95f8:	494e4150 	stmdbmi	lr, {r4, r6, r8, lr}^
    95fc:	73253a43 			; <UNDEFINED> instruction: 0x73253a43
    9600:	3a73253a 	bcc	1cd2af0 <__bss_end__+0x1cc9048>
    9604:	663a6425 	ldrtvs	r6, [sl], -r5, lsr #8
    9608:	74616f6c 	strbtvc	r6, [r1], #-3948	; 0xfffff094
    960c:	746f6e20 	strbtvc	r6, [pc], #-3616	; 9614 <__code_end__+0x198>
    9610:	616e6520 	cmnvs	lr, r0, lsr #10
    9614:	64656c62 	strbtvs	r6, [r5], #-3170	; 0xfffff39e
    9618:	0a212121 	beq	851aa4 <__bss_end__+0x847ffc>
    961c:	00000000 	andeq	r0, r0, r0
    9620:	6e697270 	mcrvs	2, 3, r7, cr9, cr0, {3}
    9624:	203a6b74 	eorscs	r6, sl, r4, ror fp
    9628:	20746f6e 	rsbscs	r6, r4, lr, ror #30
    962c:	646e6168 	strbtvs	r6, [lr], #-360	; 0xfffffe98
    9630:	676e696c 	strbvs	r6, [lr, -ip, ror #18]!
    9634:	65707320 	ldrbvs	r7, [r0, #-800]!	; 0xfffffce0
    9638:	69666963 	stmdbvs	r6!, {r0, r1, r5, r6, r8, fp, sp, lr}^
    963c:	27207265 	strcs	r7, [r0, -r5, ror #4]!
    9640:	20276325 	eorcs	r6, r7, r5, lsr #6
    9644:	63736128 	cmnvs	r3, #10
    9648:	253d6969 	ldrcs	r6, [sp, #-2409]!	; 0xfffff697
    964c:	000a2964 	andeq	r2, sl, r4, ror #18
    9650:	494e4150 	stmdbmi	lr, {r4, r6, r8, lr}^
    9654:	73253a43 			; <UNDEFINED> instruction: 0x73253a43
    9658:	3a73253a 	bcc	1cd2b48 <__bss_end__+0x1cc90a0>
    965c:	703a6425 	eorsvc	r6, sl, r5, lsr #8
    9660:	746e6972 	strbtvc	r6, [lr], #-2418	; 0xfffff68e
    9664:	7265206b 	rsbvc	r2, r5, #107, 0	; 0x6b
    9668:	0a726f72 	beq	1ca5438 <__bss_end__+0x1c9b990>
    966c:	0000000a 	andeq	r0, r0, sl

00009670 <__FUNCTION__.4000>:
    9670:	74696d65 	strbtvc	r6, [r9], #-3429	; 0xfffff29b
    9674:	00000000 	andeq	r0, r0, r0

00009678 <__FUNCTION__.3948>:
    9678:	5f697072 	svcpl	0x00697072
    967c:	5f746573 	svcpl	0x00746573
    9680:	7074756f 	rsbsvc	r7, r4, pc, ror #10
    9684:	00007475 	andeq	r7, r0, r5, ror r4

00009688 <__FUNCTION__.4026>:
    9688:	705f6176 	subsvc	r6, pc, r6, ror r1	; <UNPREDICTABLE>
    968c:	746e6972 	strbtvc	r6, [lr], #-2418	; 0xfffff68e
    9690:	0000006b 	andeq	r0, r0, fp, rrx
    9694:	454e4f44 	strbmi	r4, [lr, #-3908]	; 0xfffff0bc
    9698:	0a212121 	beq	851b24 <__bss_end__+0x84807c>
	...

Disassembly of section .data:

000096a0 <putk>:
    96a0:	000084a0 	andeq	r8, r0, r0, lsr #9

000096a4 <rpi_putchar>:
    96a4:	0000936c 	andeq	r9, r0, ip, ror #6

Disassembly of section .bss:

000096a8 <__bss_start__>:
	...

Disassembly of section .ARM.attributes:

00000000 <.ARM.attributes>:
   0:	00002a41 	andeq	r2, r0, r1, asr #20
   4:	61656100 	cmnvs	r5, r0, lsl #2
   8:	01006962 	tsteq	r0, r2, ror #18
   c:	00000020 	andeq	r0, r0, r0, lsr #32
  10:	4b5a3605 	blmi	168d82c <__bss_end__+0x1683d84>
  14:	08070600 	stmdaeq	r7, {r9, sl}
  18:	12010901 	andne	r0, r1, #16384	; 0x4000
  1c:	15011404 	strne	r1, [r1, #-1028]	; 0xfffffbfc
  20:	18031701 	stmdane	r3, {r0, r8, r9, sl, ip}
  24:	22011a01 	andcs	r1, r1, #4096	; 0x1000
  28:	Address 0x0000000000000028 is out of bounds.


Disassembly of section .comment:

00000000 <.comment>:
   0:	3a434347 	bcc	10d0d24 <__bss_end__+0x10c727c>
   4:	4e472820 	cdpmi	8, 4, cr2, cr7, cr0, {1}
   8:	6f542055 	svcvs	0x00542055
   c:	20736c6f 	rsbscs	r6, r3, pc, ror #24
  10:	20726f66 	rsbscs	r6, r2, r6, ror #30
  14:	206d7241 	rsbcs	r7, sp, r1, asr #4
  18:	65626d45 	strbvs	r6, [r2, #-3397]!	; 0xfffff2bb
  1c:	64656464 	strbtvs	r6, [r5], #-1124	; 0xfffffb9c
  20:	6f725020 	svcvs	0x00725020
  24:	73736563 	cmnvc	r3, #415236096	; 0x18c00000
  28:	2073726f 	rsbscs	r7, r3, pc, ror #4
  2c:	30322d39 	eorscc	r2, r2, r9, lsr sp
  30:	712d3931 			; <UNDEFINED> instruction: 0x712d3931
  34:	616d2d34 	cmnvs	sp, r4, lsr sp
  38:	29726f6a 	ldmdbcs	r2!, {r1, r3, r5, r6, r8, r9, sl, fp, sp, lr}^
  3c:	322e3920 	eorcc	r3, lr, #32, 18	; 0x80000
  40:	3220312e 	eorcc	r3, r0, #-2147483637	; 0x8000000b
  44:	31393130 	teqcc	r9, r0, lsr r1
  48:	20353230 	eorscs	r3, r5, r0, lsr r2
  4c:	6c657228 	sfmvs	f7, 2, [r5], #-160	; 0xffffff60
  50:	65736165 	ldrbvs	r6, [r3, #-357]!	; 0xfffffe9b
  54:	415b2029 	cmpmi	fp, r9, lsr #32
  58:	612f4d52 			; <UNDEFINED> instruction: 0x612f4d52
  5c:	392d6d72 	pushcc	{r1, r4, r5, r6, r8, sl, fp, sp, lr}
  60:	6172622d 	cmnvs	r2, sp, lsr #4
  64:	2068636e 	rsbcs	r6, r8, lr, ror #6
  68:	69766572 	ldmdbvs	r6!, {r1, r4, r5, r6, r8, sl, sp, lr}^
  6c:	6e6f6973 			; <UNDEFINED> instruction: 0x6e6f6973
  70:	37373220 	ldrcc	r3, [r7, -r0, lsr #4]!
  74:	5d393935 			; <UNDEFINED> instruction: 0x5d393935
  78:	43434700 	movtmi	r4, #14080	; 0x3700
  7c:	4728203a 			; <UNDEFINED> instruction: 0x4728203a
  80:	5420554e 	strtpl	r5, [r0], #-1358	; 0xfffffab2
  84:	636c6f6f 	cmnvs	ip, #444	; 0x1bc
  88:	6e696168 	powvsez	f6, f1, #0.0
  8c:	726f6620 	rsbvc	r6, pc, #32, 12	; 0x2000000
  90:	65687420 	strbvs	r7, [r8, #-1056]!	; 0xfffffbe0
  94:	6d724120 	ldfvse	f4, [r2, #-128]!	; 0xffffff80
  98:	63724120 	cmnvs	r2, #8
  9c:	65746968 	ldrbvs	r6, [r4, #-2408]!	; 0xfffff698
  a0:	72757463 	rsbsvc	r7, r5, #1660944384	; 0x63000000
  a4:	31312065 	teqcc	r1, r5, rrx
  a8:	322d322e 	eorcc	r3, sp, #-536870910	; 0xe0000002
  ac:	2e323230 	mrccs	2, 1, r3, cr2, cr0, {1}
  b0:	28203230 	stmdacs	r0!, {r4, r5, r9, ip, sp}
  b4:	2d6d7261 	sfmcs	f7, 2, [sp, #-388]!	; 0xfffffe7c
  b8:	312e3131 			; <UNDEFINED> instruction: 0x312e3131
  bc:	20292934 	eorcs	r2, r9, r4, lsr r9
  c0:	322e3131 	eorcc	r3, lr, #1073741836	; 0x4000000c
  c4:	3220312e 	eorcc	r3, r0, #-2147483637	; 0x8000000b
  c8:	30323230 	eorscc	r3, r2, r0, lsr r2
  cc:	00313131 	eorseq	r3, r1, r1, lsr r1
  d0:	3a434347 	bcc	10d0df4 <__bss_end__+0x10c734c>
  d4:	4e472820 	cdpmi	8, 4, cr2, cr7, cr0, {1}
  d8:	72412055 	subvc	r2, r1, #85, 0	; 0x55
  dc:	6d45206d 	stclvs	0, cr2, [r5, #-436]	; 0xfffffe4c
  e0:	64646562 	strbtvs	r6, [r4], #-1378	; 0xfffffa9e
  e4:	54206465 	strtpl	r6, [r0], #-1125	; 0xfffffb9b
  e8:	636c6f6f 	cmnvs	ip, #444	; 0x1bc
  ec:	6e696168 	powvsez	f6, f1, #0.0
  f0:	2e303120 	rsfcssp	f3, f0, f0
  f4:	30322d33 	eorscc	r2, r2, r3, lsr sp
  f8:	312e3132 			; <UNDEFINED> instruction: 0x312e3132
  fc:	31202930 			; <UNDEFINED> instruction: 0x31202930
 100:	2e332e30 	mrccs	14, 1, r2, cr3, cr0, {1}
 104:	30322031 	eorscc	r2, r2, r1, lsr r0
 108:	38303132 	ldmdacc	r0!, {r1, r4, r5, r8, ip, sp}
 10c:	28203432 	stmdacs	r0!, {r1, r4, r5, sl, ip, sp}
 110:	656c6572 	strbvs	r6, [ip, #-1394]!	; 0xfffffa8e
 114:	29657361 	stmdbcs	r5!, {r0, r5, r6, r8, r9, ip, sp, lr}^
	...

Disassembly of section .debug_info:

00000000 <.debug_info>:
       0:	00000764 	andeq	r0, r0, r4, ror #14
       4:	00000004 	andeq	r0, r0, r4
       8:	01040000 	mrseq	r0, (UNDEF: 4)
       c:	00000144 	andeq	r0, r0, r4, asr #2
      10:	00005a0c 	andeq	r5, r0, ip, lsl #20
      14:	00000000 	andeq	r0, r0, r0
      18:	00804000 	addeq	r4, r0, r0
      1c:	00026800 	andeq	r6, r2, r0, lsl #16
      20:	00000000 	andeq	r0, r0, r0
      24:	05040200 	streq	r0, [r4, #-512]	; 0xfffffe00
      28:	00746e69 	rsbseq	r6, r4, r9, ror #28
      2c:	08070403 	stmdaeq	r7, {r0, r1, sl}
      30:	04000001 	streq	r0, [r0], #-1
      34:	0000002c 	andeq	r0, r0, ip, lsr #32
      38:	ea060103 	b	18044c <__bss_end__+0x1769a4>
      3c:	03000000 	movweq	r0, #0
      40:	003f0502 	eorseq	r0, pc, r2, lsl #10
      44:	04030000 	streq	r0, [r3], #-0
      48:	0000a205 	andeq	sl, r0, r5, lsl #4
      4c:	05080300 	streq	r0, [r8, #-768]	; 0xfffffd00
      50:	0000009d 	muleq	r0, sp, r0
      54:	e8080103 	stmda	r8, {r0, r1, r8}
      58:	03000000 	movweq	r0, #0
      5c:	01260702 			; <UNDEFINED> instruction: 0x01260702
      60:	15050000 	strne	r0, [r5, #-0]
      64:	05000001 	streq	r0, [r0, #-1]
      68:	00731934 	rsbseq	r1, r3, r4, lsr r9
      6c:	62060000 	andvs	r0, r6, #0, 0
      70:	03000000 	movweq	r0, #0
      74:	01030704 	tsteq	r3, r4, lsl #14
      78:	08030000 	stmdaeq	r3, {}	; <UNPREDICTABLE>
      7c:	0000fe07 	andeq	pc, r0, r7, lsl #28
      80:	00250700 	eoreq	r0, r5, r0, lsl #14
      84:	00900000 	addseq	r0, r0, r0
      88:	25080000 	strcs	r0, [r8, #-0]
      8c:	00000000 	andeq	r0, r0, r0
      90:	00004e09 	andeq	r4, r0, r9, lsl #28
      94:	0e1c0400 	cfmulseq	mvf0, mvf12, mvf0
      98:	0000009c 	muleq	r0, ip, r0
      9c:	0081040a 	addeq	r0, r1, sl, lsl #8
      a0:	25070000 	strcs	r0, [r7, #-0]
      a4:	b1000000 	mrslt	r0, (UNDEF: 0)
      a8:	08000000 	stmdaeq	r0, {}	; <UNPREDICTABLE>
      ac:	000000b1 	strheq	r0, [r0], -r1
      b0:	be040a00 	vmlalt.f32	s0, s8, s0
      b4:	03000000 	movweq	r0, #0
      b8:	00f10801 	rscseq	r0, r1, r1, lsl #16
      bc:	b7040000 	strlt	r0, [r4, -r0]
      c0:	09000000 	stmdbeq	r0, {}	; <UNPREDICTABLE>
      c4:	00000447 	andeq	r0, r0, r7, asr #8
      c8:	cf0e2104 	svcgt	0x000e2104
      cc:	0a000000 	beq	d4 <__code_start__-0x7f2c>
      d0:	0000a204 	andeq	sl, r0, r4, lsl #4
      d4:	02080b00 	andeq	r0, r8, #0, 22
      d8:	00f70906 	rscseq	r0, r7, r6, lsl #18
      dc:	760c0000 	strvc	r0, [ip], -r0
      e0:	0e070200 	cdpeq	2, 0, cr0, cr7, cr0, {0}
      e4:	0000002c 	andeq	r0, r0, ip, lsr #32
      e8:	00f60d00 	rscseq	r0, r6, r0, lsl #26
      ec:	07020000 	streq	r0, [r2, -r0]
      f0:	00002c10 	andeq	r2, r0, r0, lsl ip
      f4:	05000400 	streq	r0, [r0, #-1024]	; 0xfffffc00
      f8:	00000077 	andeq	r0, r0, r7, ror r0
      fc:	d5030802 	strle	r0, [r3, #-2050]	; 0xfffff7fe
     100:	0e000000 	cdpeq	0, 0, cr0, cr0, cr0, {0}
     104:	00000209 	andeq	r0, r0, r9, lsl #4
     108:	33171a01 	tstcc	r7, #4096	; 0x1000
     10c:	34000000 	strcc	r0, [r0], #-0
     110:	0f202000 	svceq	0x00202000
     114:	006c6176 	rsbeq	r6, ip, r6, ror r1
     118:	1f1b1b01 	svcne	0x001b1b01
     11c:	0a000001 	beq	128 <__code_start__-0x7ed8>
     120:	00006e04 	andeq	r6, r0, r4, lsl #28
     124:	00df0e00 	sbcseq	r0, pc, r0, lsl #28
     128:	1c010000 	stcne	0, cr0, [r1], {-0}
     12c:	00003317 	andeq	r3, r0, r7, lsl r3
     130:	20000000 	andcs	r0, r0, r0
     134:	011e1000 	tsteq	lr, r0
     138:	47010000 	strmi	r0, [r1, -r0]
     13c:	00810006 	addeq	r0, r1, r6
     140:	0001a800 	andeq	sl, r1, r0, lsl #16
     144:	509c0100 	addspl	r0, ip, r0, lsl #2
     148:	11000004 	tstne	r0, r4
     14c:	006e6970 	rsbeq	r6, lr, r0, ror r9
     150:	25094b01 	strcs	r4, [r9, #-2817]	; 0xfffff4ff
     154:	15000000 	strne	r0, [r0, #-0]
     158:	676f6c12 			; <UNDEFINED> instruction: 0x676f6c12
     15c:	0f510100 	svceq	0x00510100
     160:	00000450 	andeq	r0, r0, r0, asr r4
     164:	7dd89103 	ldfvcp	f1, [r8, #12]
     168:	00007013 	andeq	r7, r0, r3, lsl r0
     16c:	00017e00 	andeq	r7, r1, r0, lsl #28
     170:	6e691100 	powvse	f1, f1, f0
     174:	054f0100 	strbeq	r0, [pc, #-256]	; 7c <__code_start__-0x7f84>
     178:	0000002c 	andeq	r0, r0, ip, lsr #32
     17c:	88130001 	ldmdahi	r3, {r0}
     180:	2a000000 	bcs	188 <__code_start__-0x7e78>
     184:	14000004 	strne	r0, [r0], #-4
     188:	55010069 	strpl	r0, [r1, #-105]	; 0xffffff97
     18c:	0000250d 	andeq	r2, r0, sp, lsl #10
     190:	00000200 	andeq	r0, r0, r0, lsl #4
     194:	00000000 	andeq	r0, r0, r0
     198:	00b01500 	adcseq	r1, r0, r0, lsl #10
     19c:	6e140000 	cdpvs	0, 1, cr0, cr4, cr0, {0}
     1a0:	12560100 	subsne	r0, r6, #0
     1a4:	0000002c 	andeq	r0, r0, ip, lsr #32
     1a8:	0000001c 	andeq	r0, r0, ip, lsl r0
     1ac:	00000016 	andeq	r0, r0, r6, lsl r0
     1b0:	00046016 	andeq	r6, r4, r6, lsl r0
     1b4:	00812800 	addeq	r2, r1, r0, lsl #16
     1b8:	00d00a00 	sbcseq	r0, r0, r0, lsl #20
     1bc:	56010000 	strpl	r0, [r1], -r0
     1c0:	0002da16 	andeq	sp, r2, r6, lsl sl
     1c4:	04931700 	ldreq	r1, [r3], #1792	; 0x700
     1c8:	004d0000 	subeq	r0, sp, r0
     1cc:	00490000 	subeq	r0, r9, r0
     1d0:	87170000 	ldrhi	r0, [r7, -r0]
     1d4:	79000004 	stmdbvc	r0, {r2}
     1d8:	75000000 	strvc	r0, [r0, #-0]
     1dc:	17000000 	strne	r0, [r0, -r0]
     1e0:	0000047d 	andeq	r0, r0, sp, ror r4
     1e4:	000000a7 	andeq	r0, r0, r7, lsr #1
     1e8:	0000009b 	muleq	r0, fp, r0
     1ec:	00047117 	andeq	r7, r4, r7, lsl r1
     1f0:	00010100 	andeq	r0, r1, r0, lsl #2
     1f4:	0000fd00 	andeq	pc, r0, r0, lsl #26
     1f8:	00d01500 	sbcseq	r1, r0, r0, lsl #10
     1fc:	9f180000 	svcls	0x00180000
     200:	27000004 	strcs	r0, [r0, -r4]
     204:	21000001 	tstcs	r0, r1
     208:	18000001 	stmdane	r0, {r0}
     20c:	000004a9 	andeq	r0, r0, r9, lsr #9
     210:	0000015d 	andeq	r0, r0, sp, asr r1
     214:	00000151 	andeq	r0, r0, r1, asr r1
     218:	0004b518 	andeq	fp, r4, r8, lsl r5
     21c:	0001bd00 	andeq	fp, r1, r0, lsl #26
     220:	0001b900 	andeq	fp, r1, r0, lsl #18
     224:	04c11800 	strbeq	r1, [r1], #2048	; 0x800
     228:	01e10000 	mvneq	r0, r0
     22c:	01db0000 	bicseq	r0, fp, r0
     230:	cc180000 	ldcgt	0, cr0, [r8], {-0}
     234:	12000004 	andne	r0, r0, #4, 0
     238:	0a000002 	beq	248 <__code_start__-0x7db8>
     23c:	18000002 	stmdane	r0, {r1}
     240:	000004d7 	ldrdeq	r0, [r0], -r7
     244:	0000024a 	andeq	r0, r0, sl, asr #4
     248:	00000246 	andeq	r0, r0, r6, asr #4
     24c:	00050a19 	andeq	r0, r5, r9, lsl sl
     250:	00813c00 	addeq	r3, r1, r0, lsl #24
     254:	00f00100 	rscseq	r0, r0, r0, lsl #2
     258:	27010000 	strcs	r0, [r1, -r0]
     25c:	04e31a17 	strbteq	r1, [r3], #2583	; 0xa17
     260:	81280000 			; <UNDEFINED> instruction: 0x81280000
     264:	00040000 	andeq	r0, r4, r0
     268:	027c0000 	rsbseq	r0, ip, #0, 0
     26c:	e8180000 	ldmda	r8, {}	; <UNPREDICTABLE>
     270:	72000004 	andvc	r0, r0, #4, 0
     274:	68000002 	stmdavs	r0, {r1}
     278:	00000002 	andeq	r0, r0, r2
     27c:	00050a1b 	andeq	r0, r5, fp, lsl sl
     280:	00813c00 	addeq	r3, r1, r0, lsl #24
     284:	813c0700 	teqhi	ip, r0, lsl #14
     288:	00040000 	andeq	r0, r4, r0
     28c:	2a010000 	bcs	40294 <__bss_end__+0x367ec>
     290:	04f51a14 	ldrbteq	r1, [r5], #2580	; 0xa14
     294:	814c0000 	mrshi	r0, (UNDEF: 76)
     298:	00040000 	andeq	r0, r4, r0
     29c:	02b00000 	adcseq	r0, r0, #0, 0
     2a0:	f6180000 			; <UNDEFINED> instruction: 0xf6180000
     2a4:	cd000004 	stcgt	0, cr0, [r0, #-16]
     2a8:	c9000002 	stmdbgt	r0, {r1}
     2ac:	00000002 	andeq	r0, r0, r2
     2b0:	00050a1b 	andeq	r0, r5, fp, lsl sl
     2b4:	00816800 	addeq	r6, r1, r0, lsl #16
     2b8:	81680100 	cmnhi	r8, r0, lsl #2
     2bc:	00040000 	andeq	r0, r4, r0
     2c0:	35010000 	strcc	r0, [r1, #-0]
     2c4:	82601c0e 	rsbhi	r1, r0, #3584	; 0xe00
     2c8:	07370000 	ldreq	r0, [r7, -r0]!
     2cc:	011d0000 	tsteq	sp, r0
     2d0:	80030550 	andhi	r0, r3, r0, asr r5
     2d4:	00000094 	muleq	r0, r4, r0
     2d8:	8f1e0000 	svchi	0x001e0000
     2dc:	60000005 	andvs	r0, r0, r5
     2e0:	03000082 	movweq	r0, #130	; 0x82
     2e4:	00000110 	andeq	r0, r0, r0, lsl r1
     2e8:	17095701 	strne	r5, [r9, -r1, lsl #14]
     2ec:	000005b4 			; <UNDEFINED> instruction: 0x000005b4
     2f0:	000002ef 	andeq	r0, r0, pc, ror #5
     2f4:	000002eb 	andeq	r0, r0, fp, ror #5
     2f8:	0005aa17 	andeq	sl, r5, r7, lsl sl
     2fc:	00031900 	andeq	r1, r3, r0, lsl #18
     300:	00031300 	andeq	r1, r3, r0, lsl #6
     304:	05a01700 	streq	r1, [r0, #1792]!	; 0x700
     308:	03520000 	cmpeq	r2, #0, 0
     30c:	03460000 	movteq	r0, #24576	; 0x6000
     310:	10150000 	andsne	r0, r5, r0
     314:	18000001 	stmdane	r0, {r0}
     318:	000005c0 	andeq	r0, r0, r0, asr #11
     31c:	000003ae 	andeq	r0, r0, lr, lsr #7
     320:	000003a8 	andeq	r0, r0, r8, lsr #7
     324:	0005cc18 	andeq	ip, r5, r8, lsl ip
     328:	0003e100 	andeq	lr, r3, r0, lsl #2
     32c:	0003d900 	andeq	sp, r3, r0, lsl #18
     330:	05d81800 	ldrbeq	r1, [r8, #2048]	; 0x800
     334:	04210000 	strteq	r0, [r1], #-0
     338:	04170000 	ldreq	r0, [r7], #-0
     33c:	e41f0000 	ldr	r0, [pc], #-0	; 344 <__code_start__-0x7cbc>
     340:	30000005 	andcc	r0, r0, r5
     344:	ba000001 	blt	350 <__code_start__-0x7cb0>
     348:	18000003 	stmdane	r0, {r0, r1}
     34c:	000005e5 	andeq	r0, r0, r5, ror #11
     350:	0000046e 	andeq	r0, r0, lr, ror #8
     354:	00000462 	andeq	r0, r0, r2, ror #8
     358:	0005ef20 	andeq	lr, r5, r0, lsr #30
     35c:	00016000 	andeq	r6, r1, r0
     360:	05f01800 	ldrbeq	r1, [r0, #2048]!	; 0x800
     364:	04c20000 	strbeq	r0, [r2], #0
     368:	04bc0000 	ldrteq	r0, [ip], #0
     36c:	fa180000 	blx	600374 <__bss_end__+0x5f68cc>
     370:	10000005 	andne	r0, r0, r5
     374:	0c000005 	stceq	0, cr0, [r0], {5}
     378:	18000005 	stmdane	r0, {r0, r2}
     37c:	00000606 	andeq	r0, r0, r6, lsl #12
     380:	00000534 	andeq	r0, r0, r4, lsr r5
     384:	0000052e 	andeq	r0, r0, lr, lsr #10
     388:	00061221 	andeq	r1, r6, r1, lsr #4
     38c:	822c1c00 	eorhi	r1, ip, #0, 24
     390:	07370000 	ldreq	r0, [r7, -r0]!
     394:	011d0000 	tsteq	sp, r0
     398:	007b0250 	rsbseq	r0, fp, r0, asr r2
     39c:	0251011d 	subseq	r0, r1, #1073741831	; 0x40000007
     3a0:	021d7f77 	andseq	r7, sp, #476	; 0x1dc
     3a4:	7602007d 			; <UNDEFINED> instruction: 0x7602007d
     3a8:	7d021d00 	stcvc	13, cr1, [r2, #-0]
     3ac:	00750204 	rsbseq	r0, r5, r4, lsl #4
     3b0:	0c7d021d 	lfmeq	f0, 2, [sp], #-116	; 0xffffff8c
     3b4:	00007402 	andeq	r7, r0, r2, lsl #8
     3b8:	c0220000 	eorgt	r0, r2, r0
     3bc:	37000081 	strcc	r0, [r0, -r1, lsl #1]
     3c0:	d7000007 	strle	r0, [r0, -r7]
     3c4:	1d000003 	stcne	0, cr0, [r0, #-12]
     3c8:	03055001 	movweq	r5, #20481	; 0x5001
     3cc:	000094a4 	andeq	r9, r0, r4, lsr #9
     3d0:	0251011d 	subseq	r0, r1, #1073741831	; 0x40000007
     3d4:	22000074 	andcs	r0, r0, #116, 0	; 0x74
     3d8:	0000824c 	andeq	r8, r0, ip, asr #4
     3dc:	00000737 	andeq	r0, r0, r7, lsr r7
     3e0:	000003f6 	strdeq	r0, [r0], -r6
     3e4:	0550011d 	ldrbeq	r0, [r0, #-285]	; 0xfffffee3
     3e8:	00950403 	addseq	r0, r5, r3, lsl #8
     3ec:	51011d00 	tstpl	r1, r0, lsl #26
     3f0:	33007404 	movwcc	r7, #1028	; 0x404
     3f4:	70220025 	eorvc	r0, r2, r5, lsr #32
     3f8:	37000082 	strcc	r0, [r0, -r2, lsl #1]
     3fc:	0d000007 	stceq	0, cr0, [r0, #-28]	; 0xffffffe4
     400:	1d000004 	stcne	0, cr0, [r0, #-16]
     404:	03055001 	movweq	r5, #20481	; 0x5001
     408:	0000948c 	andeq	r9, r0, ip, lsl #9
     40c:	82801c00 	addhi	r1, r0, #0, 24
     410:	07370000 	ldreq	r0, [r7, -r0]!
     414:	011d0000 	tsteq	sp, r0
     418:	a4030550 	strge	r0, [r3], #-1360	; 0xfffffab0
     41c:	1d000094 	stcne	0, cr0, [r0, #-592]	; 0xfffffdb0
     420:	74025101 	strvc	r5, [r2], #-257	; 0xfffffeff
     424:	00000000 	andeq	r0, r0, r0
     428:	0c230000 	stceq	0, cr0, [r3], #-0
     42c:	43000081 	movwmi	r0, #129	; 0x81
     430:	22000007 	andcs	r0, r0, #7, 0
     434:	00008114 	andeq	r8, r0, r4, lsl r1
     438:	0000074f 	andeq	r0, r0, pc, asr #14
     43c:	00000446 	andeq	r0, r0, r6, asr #8
     440:	0150011d 	cmpeq	r0, sp, lsl r1
     444:	58230045 	stmdapl	r3!, {r0, r2, r6}
     448:	5b000082 	blpl	658 <__code_start__-0x79a8>
     44c:	00000007 	andeq	r0, r0, r7
     450:	0000f724 	andeq	pc, r0, r4, lsr #14
     454:	00046000 	andeq	r6, r4, r0
     458:	002c2500 	eoreq	r2, ip, r0, lsl #10
     45c:	001f0000 	andseq	r0, pc, r0
     460:	00003926 	andeq	r3, r0, r6, lsr #18
     464:	0a230100 	beq	8c086c <__bss_end__+0x8b6dc4>
     468:	0000002c 	andeq	r0, r0, ip, lsr #32
     46c:	00050401 	andeq	r0, r5, r1, lsl #8
     470:	69702700 	ldmdbvs	r0!, {r8, r9, sl, sp}^
     474:	2301006e 	movwcs	r0, #4206	; 0x106e
     478:	00002c19 	andeq	r2, r0, r9, lsl ip
     47c:	006c2700 	rsbeq	r2, ip, r0, lsl #14
     480:	04292301 	strteq	r2, [r9], #-769	; 0xfffffcff
     484:	28000005 	stmdacs	r0, {r0, r2}
     488:	00000235 	andeq	r0, r0, r5, lsr r2
     48c:	2c352301 	ldccs	3, cr2, [r5], #-4
     490:	28000000 	stmdacs	r0, {}	; <UNPREDICTABLE>
     494:	00000139 	andeq	r0, r0, r9, lsr r1
     498:	2c452301 	mcrrcs	3, 0, r2, r5, cr1
     49c:	0f000000 	svceq	0x00000000
     4a0:	2401006e 	strcs	r0, [r1], #-110	; 0xffffff92
     4a4:	00002c0e 	andeq	r2, r0, lr, lsl #24
     4a8:	6f6e0f00 	svcvs	0x006e0f00
     4ac:	25010077 	strcs	r0, [r1, #-119]	; 0xffffff89
     4b0:	00002c0e 	andeq	r2, r0, lr, lsl #24
     4b4:	02132900 	andseq	r2, r3, #0, 18
     4b8:	26010000 	strcs	r0, [r1], -r0
     4bc:	00002c0e 	andeq	r2, r0, lr, lsl #24
     4c0:	31760f00 	cmncc	r6, r0, lsl #30
     4c4:	0e270100 	sufeqs	f0, f7, f0
     4c8:	0000002c 	andeq	r0, r0, ip, lsr #32
     4cc:	0030760f 	eorseq	r7, r0, pc, lsl #12
     4d0:	2c122701 	ldccs	7, cr2, [r2], {1}
     4d4:	29000000 	stmdbcs	r0, {}	; <UNPREDICTABLE>
     4d8:	000004e4 	andeq	r0, r0, r4, ror #9
     4dc:	2c0e2d01 	stccs	13, cr2, [lr], {1}
     4e0:	2a000000 	bcs	4e8 <__code_start__-0x7b18>
     4e4:	000004f5 	strdeq	r0, [r0], -r5
     4e8:	00004929 	andeq	r4, r0, r9, lsr #18
     4ec:	14250100 	strtne	r0, [r5], #-256	; 0xffffff00
     4f0:	0000002c 	andeq	r0, r0, ip, lsr #32
     4f4:	49292b00 	stmdbmi	r9!, {r8, r9, fp, sp}
     4f8:	01000000 	mrseq	r0, (UNDEF: 0)
     4fc:	002c162d 	eoreq	r1, ip, sp, lsr #12
     500:	00000000 	andeq	r0, r0, r0
     504:	00f7040a 	rscseq	r0, r7, sl, lsl #8
     508:	8f2c0000 	svchi	0x002c0000
     50c:	01000000 	mrseq	r0, (UNDEF: 0)
     510:	002c181e 	eoreq	r1, ip, lr, lsl r8
     514:	2d030000 	stccs	0, cr0, [r3, #-0]
     518:	000000ac 	andeq	r0, r0, ip, lsr #1
     51c:	2c110b03 			; <UNDEFINED> instruction: 0x2c110b03
     520:	01000000 	mrseq	r0, (UNDEF: 0)
     524:	00000540 	andeq	r0, r0, r0, asr #10
     528:	03007327 	movweq	r7, #807	; 0x327
     52c:	002c270b 	eoreq	r2, ip, fp, lsl #14
     530:	c02e0000 	eorgt	r0, lr, r0
     534:	50000000 	andpl	r0, r0, r0
     538:	ac000005 	stcge	0, cr0, [r0], {5}
     53c:	00000000 	andeq	r0, r0, r0
     540:	0000be24 	andeq	fp, r0, r4, lsr #28
     544:	00055000 	andeq	r5, r5, r0
     548:	002c2500 	eoreq	r2, ip, r0, lsl #10
     54c:	000c0000 	andeq	r0, ip, r0
     550:	00054004 	andeq	r4, r5, r4
     554:	00ab2d00 	adceq	r2, fp, r0, lsl #26
     558:	08030000 	stmdaeq	r3, {}	; <UNPREDICTABLE>
     55c:	00002c18 	andeq	r2, r0, r8, lsl ip
     560:	05720300 	ldrbeq	r0, [r2, #-768]!	; 0xfffffd00
     564:	6d270000 	stcvs	0, cr0, [r7, #-0]
     568:	08030073 	stmdaeq	r3, {r0, r1, r4, r5, r6}
     56c:	00002c2f 	andeq	r2, r0, pc, lsr #24
     570:	812d0000 			; <UNDEFINED> instruction: 0x812d0000
     574:	03000000 	movweq	r0, #0
     578:	002c1805 	eoreq	r1, ip, r5, lsl #16
     57c:	8f030000 	svchi	0x00030000
     580:	27000005 	strcs	r0, [r0, -r5]
     584:	03007375 	movweq	r7, #885	; 0x375
     588:	002c2f05 	eoreq	r2, ip, r5, lsl #30
     58c:	2d000000 	stccs	0, cr0, [r0, #-0]
     590:	000001fc 	strdeq	r0, [r0], -ip
     594:	2c180c02 	ldccs	12, cr0, [r8], {2}
     598:	03000000 	movweq	r0, #0
     59c:	00000621 	andeq	r0, r0, r1, lsr #12
     5a0:	02006c27 	andeq	r6, r0, #9984	; 0x2700
     5a4:	0504300c 	streq	r3, [r4, #-12]
     5a8:	6e270000 	cdpvs	0, 2, cr0, cr7, cr0, {0}
     5ac:	3c0c0200 	sfmcc	f0, 4, [ip], {-0}
     5b0:	0000002c 	andeq	r0, r0, ip, lsr #32
     5b4:	0000b928 	andeq	fp, r0, r8, lsr #18
     5b8:	480c0200 	stmdami	ip, {r9}
     5bc:	0000002c 	andeq	r0, r0, ip, lsr #32
     5c0:	746f740f 	strbtvc	r7, [pc], #-1039	; 5c8 <__code_start__-0x7a38>
     5c4:	0e0d0200 	cdpeq	2, 0, cr0, cr13, cr0, {0}
     5c8:	0000002c 	andeq	r0, r0, ip, lsr #32
     5cc:	00006f29 	andeq	r6, r0, r9, lsr #30
     5d0:	170d0200 	strne	r0, [sp, -r0, lsl #4]
     5d4:	0000002c 	andeq	r0, r0, ip, lsr #32
     5d8:	00023029 	andeq	r3, r2, r9, lsr #32
     5dc:	0e0f0200 	cdpeq	2, 0, cr0, cr15, cr0, {0}
     5e0:	0000002c 	andeq	r0, r0, ip, lsr #32
     5e4:	00690f2b 	rsbeq	r0, r9, fp, lsr #30
     5e8:	250d1602 	strcs	r1, [sp, #-1538]	; 0xfffff9fe
     5ec:	2b000000 	blcs	5f4 <__code_start__-0x7a0c>
     5f0:	0200650f 	andeq	r6, r0, #62914560	; 0x3c00000
     5f4:	05041417 	streq	r1, [r4, #-1047]	; 0xfffffbe9
     5f8:	cd290000 	stcgt	0, cr0, [r9, #-0]
     5fc:	02000000 	andeq	r0, r0, #0, 0
     600:	002c1219 	eoreq	r1, ip, r9, lsl r2
     604:	650f0000 	strvs	r0, [pc, #-0]	; 60c <__code_start__-0x79f4>
     608:	02007078 	andeq	r7, r0, #120, 0	; 0x78
     60c:	002c121d 	eoreq	r1, ip, sp, lsl r2
     610:	650f0000 	strvs	r0, [pc, #-0]	; 618 <__code_start__-0x79e8>
     614:	02007272 	andeq	r7, r0, #536870919	; 0x20000007
     618:	002c121e 	eoreq	r1, ip, lr, lsl r2
     61c:	00000000 	andeq	r0, r0, r0
     620:	04602f00 	strbteq	r2, [r0], #-3840	; 0xfffff100
     624:	80400000 	subhi	r0, r0, r0
     628:	00b00000 	adcseq	r0, r0, r0
     62c:	9c010000 	stcls	0, cr0, [r1], {-0}
     630:	00000737 	andeq	r0, r0, r7, lsr r7
     634:	00047117 	andeq	r7, r4, r7, lsl r1
     638:	00056700 	andeq	r6, r5, r0, lsl #14
     63c:	00056300 	andeq	r6, r5, r0, lsl #6
     640:	047d1700 	ldrbteq	r1, [sp], #-1792	; 0xfffff900
     644:	058c0000 	streq	r0, [ip]
     648:	05880000 	streq	r0, [r8]
     64c:	87170000 	ldrhi	r0, [r7, -r0]
     650:	b1000004 	tstlt	r0, r4
     654:	ad000005 	stcge	0, cr0, [r0, #-20]	; 0xffffffec
     658:	17000005 	strne	r0, [r0, -r5]
     65c:	00000493 	muleq	r0, r3, r4
     660:	000005d6 	ldrdeq	r0, [r0], -r6
     664:	000005d2 	ldrdeq	r0, [r0], -r2
     668:	00049f18 	andeq	r9, r4, r8, lsl pc
     66c:	0005fb00 	andeq	pc, r5, r0, lsl #22
     670:	0005f700 	andeq	pc, r5, r0, lsl #14
     674:	04a91800 	strteq	r1, [r9], #2048	; 0x800
     678:	06200000 	strteq	r0, [r0], -r0
     67c:	061a0000 	ldreq	r0, [sl], -r0
     680:	b5180000 	ldrlt	r0, [r8, #-0]
     684:	4b000004 	blmi	69c <__code_start__-0x7964>
     688:	49000006 	stmdbmi	r0, {r1, r2}
     68c:	18000006 	stmdane	r0, {r1, r2}
     690:	000004c1 	andeq	r0, r0, r1, asr #9
     694:	00000664 	andeq	r0, r0, r4, ror #12
     698:	0000065e 	andeq	r0, r0, lr, asr r6
     69c:	0004cc18 	andeq	ip, r4, r8, lsl ip
     6a0:	00069300 	andeq	r9, r6, r0, lsl #6
     6a4:	00068d00 	andeq	r8, r6, r0, lsl #26
     6a8:	04d71800 	ldrbeq	r1, [r7], #2048	; 0x800
     6ac:	06be0000 	ldrteq	r0, [lr], r0
     6b0:	06bc0000 	ldrteq	r0, [ip], r0
     6b4:	e31f0000 	tst	pc, #0, 0
     6b8:	00000004 	andeq	r0, r0, r4
     6bc:	d1000000 	mrsle	r0, (UNDEF: 0)
     6c0:	18000006 	stmdane	r0, {r1, r2}
     6c4:	000004e8 	andeq	r0, r0, r8, ror #9
     6c8:	000006d3 	ldrdeq	r0, [r0], -r3
     6cc:	000006d1 	ldrdeq	r0, [r0], -r1
     6d0:	050a1900 	streq	r1, [sl, #-2304]	; 0xfffff700
     6d4:	80500000 	subshi	r0, r0, r0
     6d8:	18010000 	stmdane	r1, {}	; <UNPREDICTABLE>
     6dc:	01000000 	mrseq	r0, (UNDEF: 0)
     6e0:	0a191727 	beq	646384 <__bss_end__+0x63c8dc>
     6e4:	58000005 	stmdapl	r0, {r0, r2}
     6e8:	04000080 	streq	r0, [r0], #-128	; 0xffffff80
     6ec:	00000038 	andeq	r0, r0, r8, lsr r0
     6f0:	1a142a01 	bne	50aefc <__bss_end__+0x501454>
     6f4:	000004f5 	strdeq	r0, [r0], -r5
     6f8:	00008068 	andeq	r8, r0, r8, rrx
     6fc:	00000004 	andeq	r0, r0, r4
     700:	00000712 	andeq	r0, r0, r2, lsl r7
     704:	0004f618 	andeq	pc, r4, r8, lsl r6	; <UNPREDICTABLE>
     708:	0006e800 	andeq	lr, r6, r0, lsl #16
     70c:	0006e600 	andeq	lr, r6, r0, lsl #12
     710:	0a190000 	beq	640718 <__bss_end__+0x636c70>
     714:	8c000005 	stchi	0, cr0, [r0], {5}
     718:	01000080 	smlabbeq	r0, r0, r0, r0
     71c:	00000050 	andeq	r0, r0, r0, asr r0
     720:	1c0e3501 	cfstr32ne	mvfx3, [lr], {1}
     724:	000080e0 	andeq	r8, r0, r0, ror #1
     728:	00000737 	andeq	r0, r0, r7, lsr r7
     72c:	0550011d 	ldrbeq	r0, [r0, #-285]	; 0xfffffee3
     730:	00948003 	addseq	r8, r4, r3
     734:	30000000 	andcc	r0, r0, r0
     738:	00000409 	andeq	r0, r0, r9, lsl #8
     73c:	00000409 	andeq	r0, r0, r9, lsl #8
     740:	30062804 	andcc	r2, r6, r4, lsl #16
     744:	000000d2 	ldrdeq	r0, [r0], -r2
     748:	000000d2 	ldrdeq	r0, [r0], -r2
     74c:	3006a004 	andcc	sl, r6, r4
     750:	00000221 	andeq	r0, r0, r1, lsr #4
     754:	00000221 	andeq	r0, r0, r1, lsr #4
     758:	30061c06 	andcc	r1, r6, r6, lsl #24
     75c:	00000062 	andeq	r0, r0, r2, rrx
     760:	00000062 	andeq	r0, r0, r2, rrx
     764:	00066e04 	andeq	r6, r6, r4, lsl #28
     768:	00000619 	andeq	r0, r0, r9, lsl r6
     76c:	04010005 	streq	r0, [r1], #-5
     770:	000002a5 	andeq	r0, r0, r5, lsr #5
     774:	00027515 	andeq	r7, r2, r5, lsl r5
     778:	03620c00 	cmneq	r2, #0, 24
     77c:	03ac0000 			; <UNDEFINED> instruction: 0x03ac0000
     780:	82a80000 	adchi	r0, r8, #0, 0
     784:	01a00000 	moveq	r0, r0
     788:	03c50000 	biceq	r0, r5, #0, 0
     78c:	08030000 	stmdaeq	r3, {}	; <UNPREDICTABLE>
     790:	0000fe07 	andeq	pc, r0, r7, lsl #28
     794:	07040300 	streq	r0, [r4, -r0, lsl #6]
     798:	00000108 	andeq	r0, r0, r8, lsl #2
     79c:	69050416 	stmdbvs	r5, {r1, r2, r4, sl}
     7a0:	1700746e 	strne	r7, [r0, -lr, ror #8]
     7a4:	0000002d 	andeq	r0, r0, sp, lsr #32
     7a8:	ea060103 	b	180bbc <__bss_end__+0x177114>
     7ac:	03000000 	movweq	r0, #0
     7b0:	003f0502 	eorseq	r0, pc, r2, lsl #10
     7b4:	04030000 	streq	r0, [r3], #-0
     7b8:	0000a205 	andeq	sl, r0, r5, lsl #4
     7bc:	05080300 	streq	r0, [r8, #-768]	; 0xfffffd00
     7c0:	0000009d 	muleq	r0, sp, r0
     7c4:	e8080103 	stmda	r8, {r0, r1, r8}
     7c8:	03000000 	movweq	r0, #0
     7cc:	01260702 			; <UNDEFINED> instruction: 0x01260702
     7d0:	15130000 	ldrne	r0, [r3, #-0]
     7d4:	02000001 	andeq	r0, r0, #1, 0
     7d8:	00761934 	rsbseq	r1, r6, r4, lsr r9
     7dc:	04030000 	streq	r0, [r3], #-0
     7e0:	00010307 	andeq	r0, r1, r7, lsl #6
     7e4:	08010300 	stmdaeq	r1, {r8, r9}
     7e8:	000000f1 	strdeq	r0, [r0], -r1
     7ec:	5c010718 	stcpl	7, cr0, [r1], {24}
     7f0:	03000000 	movweq	r0, #0
     7f4:	00c30e0c 	sbceq	r0, r3, ip, lsl #28
     7f8:	d3060000 	movwle	r0, #24576	; 0x6000
     7fc:	00000003 	andeq	r0, r0, r3
     800:	00025a06 	andeq	r5, r2, r6, lsl #20
     804:	17060100 	strne	r0, [r6, -r0, lsl #2]
     808:	04000003 	streq	r0, [r0], #-3
     80c:	00032606 	andeq	r2, r3, r6, lsl #12
     810:	35060500 	strcc	r0, [r6, #-1280]	; 0xfffffb00
     814:	06000003 	streq	r0, [r0], -r3
     818:	00034406 	andeq	r4, r3, r6, lsl #8
     81c:	9d060700 	stcls	7, cr0, [r6, #-0]
     820:	03000003 	movweq	r0, #3
     824:	00035306 	andeq	r5, r3, r6, lsl #6
     828:	13000200 	movwne	r0, #512	; 0x200
     82c:	00000391 	muleq	r0, r1, r3
     830:	84031503 	strhi	r1, [r3], #-1283	; 0xfffffafd
     834:	0d000000 	stceq	0, cr0, [r0, #-0]
     838:	00000245 	andeq	r0, r0, r5, asr #4
     83c:	00003b1d 	andeq	r3, r0, sp, lsl fp
     840:	20001c00 	andcs	r1, r0, r0, lsl #24
     844:	023b0d20 	eorseq	r0, fp, #32, 26	; 0x800
     848:	3b1e0000 	blcc	780850 <__bss_end__+0x776da8>
     84c:	28000000 	stmdacs	r0, {}	; <UNPREDICTABLE>
     850:	0d202000 	stceq	0, cr2, [r0, #-0]
     854:	00000209 	andeq	r0, r0, r9, lsl #4
     858:	00003b1f 	andeq	r3, r0, pc, lsl fp
     85c:	20003400 	andcs	r3, r0, r0, lsl #8
     860:	03011920 	movweq	r1, #6432	; 0x1920
     864:	ad040000 	stcge	0, cr0, [r4, #-0]
     868:	00011006 	andeq	r1, r1, r6
     86c:	002d0e00 	eoreq	r0, sp, r0, lsl #28
     870:	2d0e0000 	stccs	0, cr0, [lr, #-0]
     874:	00000000 	andeq	r0, r0, r0
     878:	0003111a 	andeq	r1, r3, sl, lsl r1
     87c:	0ac20400 	beq	ff081884 <__bss_end__+0xff077ddc>
     880:	0000002d 	andeq	r0, r0, sp, lsr #32
     884:	00000126 	andeq	r0, r0, r6, lsr #2
     888:	00002d0e 	andeq	r2, r0, lr, lsl #26
     88c:	071b0000 	ldreq	r0, [fp, -r0]
     890:	01000003 	tsteq	r0, r3
     894:	00340551 	eorseq	r0, r4, r1, asr r5
     898:	84200000 	strthi	r0, [r0], #-0
     89c:	00280000 	eoreq	r0, r8, r0
     8a0:	9c010000 	stcls	0, cr0, [r1], {-0}
     8a4:	00000194 	muleq	r0, r4, r1
     8a8:	6e697008 	cdpvs	0, 6, cr7, cr9, cr8, {0}
     8ac:	2d185100 	ldfcss	f5, [r8, #-0]
     8b0:	12000000 	andne	r0, r0, #0, 0
     8b4:	0c000000 	stceq	0, cr0, [r0], {-0}
     8b8:	1c000000 	stcne	0, cr0, [r0], {-0}
     8bc:	000003ce 	andeq	r0, r0, lr, asr #7
     8c0:	2d0e5201 	sfmcs	f5, 4, [lr, #-4]
     8c4:	33000000 	movwcc	r0, #0
     8c8:	2b000000 	blcs	8d0 <__code_start__-0x7730>
     8cc:	1d000000 	stcne	0, cr0, [r0, #-0]
     8d0:	0066666f 	rsbeq	r6, r6, pc, ror #12
     8d4:	2d0e5301 	stccs	3, cr5, [lr, #-4]
     8d8:	75000000 	strvc	r0, [r0, #-0]
     8dc:	6f000000 	svcvs	0x00000000
     8e0:	1e000000 	cdpne	0, 0, cr0, cr0, cr0, {0}
     8e4:	00008434 	andeq	r8, r0, r4, lsr r4
     8e8:	00000110 	andeq	r0, r0, r0, lsl r1
     8ec:	0a500101 	beq	1400cf8 <__bss_end__+0x13f7250>
     8f0:	25350074 	ldrcs	r0, [r5, #-116]!	; 0xffffff8c
     8f4:	8080b423 	addhi	fp, r0, r3, lsr #8
     8f8:	00000281 	andeq	r0, r0, r1, lsl #5
     8fc:	00024f0f 	andeq	r4, r2, pc, lsl #30
     900:	83f04a00 	mvnshi	r4, #0, 20
     904:	00300000 	eorseq	r0, r0, r0
     908:	9c010000 	stcls	0, cr0, [r1], {-0}
     90c:	0000024b 	andeq	r0, r0, fp, asr #4
     910:	6e697008 	cdpvs	0, 6, cr7, cr9, cr8, {0}
     914:	2d1a4a00 	vldrcs	s8, [sl, #-0]
     918:	9f000000 	svcls	0x00000000
     91c:	93000000 	movwls	r0, #0
     920:	08000000 	stmdaeq	r0, {}	; <UNPREDICTABLE>
     924:	284a0076 	stmdacs	sl, {r1, r2, r4, r5, r6}^
     928:	0000002d 	andeq	r0, r0, sp, lsr #32
     92c:	000000d4 	ldrdeq	r0, [r0], -r4
     930:	000000d0 	ldrdeq	r0, [r0], -r0	; <UNPREDICTABLE>
     934:	00035d1f 	andeq	r5, r3, pc, lsl sp
     938:	00840000 	addeq	r0, r4, r0
     93c:	00500100 	subseq	r0, r0, r0, lsl #2
     940:	4c010000 	stcmi	0, cr0, [r1], {-0}
     944:	00020b09 	andeq	r0, r2, r9, lsl #22
     948:	03690200 	cmneq	r9, #0, 4
     94c:	00ec0000 	rsceq	r0, ip, r0
     950:	00e60000 	rsceq	r0, r6, r0
     954:	0c070000 	stceq	0, cr0, [r7], {-0}
     958:	f9000084 			; <UNDEFINED> instruction: 0xf9000084
     95c:	01000000 	mrseq	r0, (UNDEF: 0)
     960:	0c055001 	stceq	0, cr5, [r5], {1}
     964:	2020001c 	eorcs	r0, r0, ip, lsl r0
     968:	05510101 	ldrbeq	r0, [r1, #-257]	; 0xfffffeff
     96c:	5001a331 	andpl	sl, r1, r1, lsr r3
     970:	20000024 	andcs	r0, r0, r4, lsr #32
     974:	00000344 	andeq	r0, r0, r4, asr #6
     978:	0000840c 	andeq	r8, r0, ip, lsl #8
     97c:	00840c02 	addeq	r0, r4, r2, lsl #24
     980:	00001400 	andeq	r1, r0, r0, lsl #8
     984:	094e0100 	stmdbeq	lr, {r8}^
     988:	00035002 	andeq	r5, r3, r2
     98c:	00010b00 	andeq	r0, r1, r0, lsl #22
     990:	00010500 	andeq	r0, r1, r0, lsl #10
     994:	84180700 	ldrhi	r0, [r8], #-1792	; 0xfffff900
     998:	00f90000 	rscseq	r0, r9, r0
     99c:	01010000 	mrseq	r0, (UNDEF: 1)
     9a0:	280c0550 	stmdacs	ip, {r4, r6, r8, sl}
     9a4:	01202000 			; <UNDEFINED> instruction: 0x01202000
     9a8:	31055101 	tstcc	r5, r1, lsl #2
     9ac:	245001a3 	ldrbcs	r0, [r0], #-419	; 0xfffffe5d
     9b0:	0f000000 	svceq	0x00000000
     9b4:	00000221 	andeq	r0, r0, r1, lsr #4
     9b8:	00839845 	addeq	r9, r3, r5, asr #16
     9bc:	00005800 	andeq	r5, r0, r0, lsl #16
     9c0:	449c0100 	ldrmi	r0, [ip], #256	; 0x100
     9c4:	08000003 	stmdaeq	r0, {r0, r1}
     9c8:	006e6970 	rsbeq	r6, lr, r0, ror r9
     9cc:	002d1e45 	eoreq	r1, sp, r5, asr #28
     9d0:	012a0000 			; <UNDEFINED> instruction: 0x012a0000
     9d4:	01240000 			; <UNDEFINED> instruction: 0x01240000
     9d8:	6f090000 	svcvs	0x00090000
     9dc:	98000004 	stmdals	r0, {r2}
     9e0:	02000083 	andeq	r0, r0, #131, 0	; 0x83
     9e4:	00000030 	andeq	r0, r0, r0, lsr r0
     9e8:	870b0546 	strhi	r0, [fp, -r6, asr #10]
     9ec:	00000004 	andeq	r0, r0, r4
     9f0:	00047b02 	andeq	r7, r4, r2, lsl #22
     9f4:	00014900 	andeq	r4, r1, r0, lsl #18
     9f8:	00014300 	andeq	r4, r1, r0, lsl #6
     9fc:	00300a00 	eorseq	r0, r0, r0, lsl #20
     a00:	93040000 	movwls	r0, #16384	; 0x4000
     a04:	04000004 	streq	r0, [r0], #-4
     a08:	0000049d 	muleq	r0, sp, r4
     a0c:	0004a504 	andeq	sl, r4, r4, lsl #10
     a10:	046f0900 	strbteq	r0, [pc], #-2304	; a18 <__code_start__-0x75e8>
     a14:	83a00000 	movhi	r0, #0, 0
     a18:	40000000 	andmi	r0, r0, r0
     a1c:	28000000 	stmdacs	r0, {}	; <UNPREDICTABLE>
     a20:	04870b06 	streq	r0, [r7], #2822	; 0xb06
     a24:	02000000 	andeq	r0, r0, #0, 0
     a28:	0000047b 	andeq	r0, r0, fp, ror r4
     a2c:	00000168 	andeq	r0, r0, r8, ror #2
     a30:	00000162 	andeq	r0, r0, r2, ror #2
     a34:	0000400a 	andeq	r4, r0, sl
     a38:	04930500 	ldreq	r0, [r3], #1280	; 0x500
     a3c:	01870000 	orreq	r0, r7, r0
     a40:	01810000 	orreq	r0, r1, r0
     a44:	9d050000 	stcls	0, cr0, [r5, #-0]
     a48:	b6000004 	strlt	r0, [r0], -r4
     a4c:	b0000001 	andlt	r0, r0, r1
     a50:	05000001 	streq	r0, [r0, #-1]
     a54:	000004a5 	andeq	r0, r0, r5, lsr #9
     a58:	000001f9 	strdeq	r0, [r0], -r9
     a5c:	000001f1 	strdeq	r0, [r0], -r1
     a60:	0083c810 	addeq	ip, r3, r0, lsl r8
     a64:	00011000 	andeq	r1, r1, r0
     a68:	00030c00 	andeq	r0, r3, r0, lsl #24
     a6c:	50010100 	andpl	r0, r1, r0, lsl #2
     a70:	00007602 	andeq	r7, r0, r2, lsl #12
     a74:	0083ec07 	addeq	lr, r3, r7, lsl #24
     a78:	0000f900 	andeq	pc, r0, r0, lsl #18
     a7c:	50010100 	andpl	r0, r1, r0, lsl #2
     a80:	5001a325 	andpl	sl, r1, r5, lsr #6
     a84:	26a82da8 	strtcs	r2, [r8], r8, lsr #27
     a88:	cd0826a4 	stcgt	6, cr2, [r8, #-656]	; 0xfffffd70
     a8c:	00cccccc 	sbceq	ip, ip, ip, asr #25
     a90:	1e000000 	cdpne	0, 0, cr0, cr0, cr0, {0}
     a94:	26a82008 	strtcs	r2, [r8], r8
     a98:	a82da825 	stmdage	sp!, {r0, r2, r5, fp, sp, pc}
     a9c:	23253300 			; <UNDEFINED> instruction: 0x23253300
     aa0:	40a08080 	adcmi	r8, r0, r0, lsl #1
     aa4:	00002432 	andeq	r2, r0, r2, lsr r4
     aa8:	00000000 	andeq	r0, r0, r0
     aac:	00036f11 	andeq	r6, r3, r1, lsl pc
     ab0:	030d4000 	movweq	r4, #53248	; 0xd000
     ab4:	0000035d 	andeq	r0, r0, sp, asr r3
     ab8:	6e69700c 	cdpvs	0, 6, cr7, cr9, cr12, {0}
     abc:	23400100 	movtcs	r0, #256	; 0x100
     ac0:	0000002d 	andeq	r0, r0, sp, lsr #32
     ac4:	03f51100 	mvnseq	r1, #0
     ac8:	0d3b0000 	ldceq	0, cr0, [fp, #-0]
     acc:	00037603 	andeq	r7, r3, r3, lsl #12
     ad0:	69700c00 	ldmdbvs	r0!, {sl, fp}^
     ad4:	3b01006e 	blcc	40c94 <__bss_end__+0x371ec>
     ad8:	00002d22 	andeq	r2, r0, r2, lsr #26
     adc:	7c0f0000 	stcvc	0, cr0, [pc], {-0}
     ae0:	36000003 	strcc	r0, [r0], -r3
     ae4:	0000830c 	andeq	r8, r0, ip, lsl #6
     ae8:	0000005c 	andeq	r0, r0, ip, asr r0
     aec:	046f9c01 	strbteq	r9, [pc], #-3073	; af4 <__code_start__-0x750c>
     af0:	70080000 	andvc	r0, r8, r0
     af4:	36006e69 	strcc	r6, [r0], -r9, ror #28
     af8:	00002d1f 	andeq	r2, r0, pc, lsl sp
     afc:	00024000 	andeq	r4, r2, r0
     b00:	00023c00 	andeq	r3, r2, r0, lsl #24
     b04:	046f0900 	strbteq	r0, [pc], #-2304	; b0c <__code_start__-0x74f4>
     b08:	830c0000 	movwhi	r0, #49152	; 0xc000
     b0c:	16020000 	strne	r0, [r2], -r0
     b10:	37000000 	strcc	r0, [r0, -r0]
     b14:	04870b05 	streq	r0, [r7], #2821	; 0xb05
     b18:	02010000 	andeq	r0, r1, #0, 0
     b1c:	0000047b 	andeq	r0, r0, fp, ror r4
     b20:	00000255 	andeq	r0, r0, r5, asr r2
     b24:	00000251 	andeq	r0, r0, r1, asr r2
     b28:	0000160a 	andeq	r1, r0, sl, lsl #12
     b2c:	04930400 	ldreq	r0, [r3], #1024	; 0x400
     b30:	9d040000 	stcls	0, cr0, [r4, #-0]
     b34:	04000004 	streq	r0, [r0], #-4
     b38:	000004a5 	andeq	r0, r0, r5, lsr #9
     b3c:	00046f09 	andeq	r6, r4, r9, lsl #30
     b40:	00831400 	addeq	r1, r3, r0, lsl #8
     b44:	00230000 	eoreq	r0, r3, r0
     b48:	06280000 	strteq	r0, [r8], -r0
     b4c:	0004870b 	andeq	r8, r4, fp, lsl #14
     b50:	7b020100 	blvc	80f58 <__bss_end__+0x774b0>
     b54:	6a000004 	bvs	b6c <__code_start__-0x7494>
     b58:	66000002 	strvs	r0, [r0], -r2
     b5c:	0a000002 	beq	b6c <__code_start__-0x7494>
     b60:	00000023 	andeq	r0, r0, r3, lsr #32
     b64:	00049305 	andeq	r9, r4, r5, lsl #6
     b68:	00027f00 	andeq	r7, r2, r0, lsl #30
     b6c:	00027b00 	andeq	r7, r2, r0, lsl #22
     b70:	049d0500 	ldreq	r0, [sp], #1280	; 0x500
     b74:	02bc0000 	adcseq	r0, ip, #0, 0
     b78:	02b60000 	adcseq	r0, r6, #0, 0
     b7c:	a5050000 	strge	r0, [r5, #-0]
     b80:	ff000004 			; <UNDEFINED> instruction: 0xff000004
     b84:	f7000002 			; <UNDEFINED> instruction: 0xf7000002
     b88:	10000002 	andne	r0, r0, r2
     b8c:	00008340 	andeq	r8, r0, r0, asr #6
     b90:	00000110 	andeq	r0, r0, r0, lsl r1
     b94:	00000437 	andeq	r0, r0, r7, lsr r4
     b98:	02500101 	subseq	r0, r0, #1073741824	; 0x40000000
     b9c:	07000075 	smlsdxeq	r0, r5, r0, r0
     ba0:	00008364 	andeq	r8, r0, r4, ror #6
     ba4:	000000f9 	strdeq	r0, [r0], -r9
     ba8:	25500101 	ldrbcs	r0, [r0, #-257]	; 0xfffffeff
     bac:	a85001a3 	ldmdage	r0, {r0, r1, r5, r7, r8}^
     bb0:	a426a82d 	strtge	sl, [r6], #-2093	; 0xfffff7d3
     bb4:	cccd0826 	stclgt	8, cr0, [sp], {38}	; 0x26
     bb8:	0000cccc 	andeq	ip, r0, ip, asr #25
     bbc:	081e0000 	ldmdaeq	lr, {}	; <UNPREDICTABLE>
     bc0:	2526a820 	strcs	sl, [r6, #-2080]!	; 0xfffff7e0
     bc4:	00a82da8 	adceq	r2, r8, r8, lsr #27
     bc8:	80232533 	eorhi	r2, r3, r3, lsr r5
     bcc:	3240a080 	subcc	sl, r0, #128, 0	; 0x80
     bd0:	00000024 	andeq	r0, r0, r4, lsr #32
     bd4:	11000000 	mrsne	r0, (UNDEF: 0)
     bd8:	000003e3 	andeq	r0, r0, r3, ror #7
     bdc:	ae010628 	cfmadd32ge	mvax1, mvfx0, mvfx1, mvfx8
     be0:	0c000004 	stceq	0, cr0, [r0], {4}
     be4:	006e6970 	rsbeq	r6, lr, r0, ror r9
     be8:	2d212801 	stccs	8, cr2, [r1, #-4]!
     bec:	21000000 	mrscs	r0, (UNDEF: 0)
     bf0:	0000038c 	andeq	r0, r0, ip, lsl #7
     bf4:	c3322801 	teqgt	r2, #65536	; 0x10000
     bf8:	12000000 	andne	r0, r0, #0, 0
     bfc:	0066666f 	rsbeq	r6, r6, pc, ror #12
     c00:	00002d2d 	andeq	r2, r0, sp, lsr #26
     c04:	00671200 	rsbeq	r1, r7, r0, lsl #4
     c08:	00002d2e 	andeq	r2, r0, lr, lsr #26
     c0c:	00761200 	rsbseq	r1, r6, r0, lsl #4
     c10:	00002d30 	andeq	r2, r0, r0, lsr sp
     c14:	6b220000 	blvs	880c1c <__bss_end__+0x877174>
     c18:	04000002 	streq	r0, [r0], #-2
     c1c:	006a18b1 	strhteq	r1, [sl], #-129	; 0xffffff7f
     c20:	ca030000 	bgt	c0c28 <__bss_end__+0xb7180>
     c24:	0c000004 	stceq	0, cr0, [r0], {4}
     c28:	b1040078 	tstlt	r4, r8, ror r0
     c2c:	00006a2b 	andeq	r6, r0, fp, lsr #20
     c30:	6f140000 	svcvs	0x00140000
     c34:	a8000004 	stmdage	r0, {r2}
     c38:	64000082 	strvs	r0, [r0], #-130	; 0xffffff7e
     c3c:	01000000 	mrseq	r0, (UNDEF: 0)
     c40:	0005a69c 	muleq	r5, ip, r6
     c44:	047b0200 	ldrbteq	r0, [fp], #-512	; 0xfffffe00
     c48:	03270000 			; <UNDEFINED> instruction: 0x03270000
     c4c:	03230000 			; <UNDEFINED> instruction: 0x03230000
     c50:	87020000 	strhi	r0, [r2, -r0]
     c54:	39000004 	stmdbcc	r0, {r2}
     c58:	35000003 	strcc	r0, [r0, #-3]
     c5c:	04000003 	streq	r0, [r0], #-3
     c60:	00000493 	muleq	r0, r3, r4
     c64:	00049d04 	andeq	r9, r4, r4, lsl #26
     c68:	04a50400 	strteq	r0, [r5], #1024	; 0x400
     c6c:	6f090000 	svcvs	0x00090000
     c70:	b0000004 	andlt	r0, r0, r4
     c74:	00000082 	andeq	r0, r0, r2, lsl #1
     c78:	0000000c 	andeq	r0, r0, ip
     c7c:	87020628 	strhi	r0, [r2, -r8, lsr #12]
     c80:	4b000004 	blmi	c98 <__code_start__-0x7368>
     c84:	47000003 	strmi	r0, [r0, -r3]
     c88:	02000003 	andeq	r0, r0, #3, 0
     c8c:	0000047b 	andeq	r0, r0, fp, ror r4
     c90:	0000035d 	andeq	r0, r0, sp, asr r3
     c94:	00000359 	andeq	r0, r0, r9, asr r3
     c98:	00000c0a 	andeq	r0, r0, sl, lsl #24
     c9c:	04930500 	ldreq	r0, [r3], #1280	; 0x500
     ca0:	036f0000 	cmneq	pc, #0, 0
     ca4:	036b0000 	cmneq	fp, #0, 0
     ca8:	9d050000 	stcls	0, cr0, [r5, #-0]
     cac:	a8000004 	stmdage	r0, {r2}
     cb0:	a2000003 	andge	r0, r0, #3, 0
     cb4:	05000003 	streq	r0, [r0, #-3]
     cb8:	000004a5 	andeq	r0, r0, r5, lsr #9
     cbc:	000003e3 	andeq	r0, r0, r3, ror #7
     cc0:	000003dd 	ldrdeq	r0, [r0], -sp
     cc4:	0082e810 	addeq	lr, r2, r0, lsl r8
     cc8:	00011000 	andeq	r1, r1, r0
     ccc:	00057000 	andeq	r7, r5, r0
     cd0:	50010100 	andpl	r0, r1, r0, lsl #2
     cd4:	00007602 	andeq	r7, r0, r2, lsl #12
     cd8:	00830807 	addeq	r0, r3, r7, lsl #16
     cdc:	0000f900 	andeq	pc, r0, r0, lsl #18
     ce0:	50010100 	andpl	r0, r1, r0, lsl #2
     ce4:	5001a325 	andpl	sl, r1, r5, lsr #6
     ce8:	26a82da8 	strtcs	r2, [r8], r8, lsr #27
     cec:	cd0826a4 	stcgt	6, cr2, [r8, #-656]	; 0xfffffd70
     cf0:	00cccccc 	sbceq	ip, ip, ip, asr #25
     cf4:	1e000000 	cdpne	0, 0, cr0, cr0, cr0, {0}
     cf8:	26a82008 	strtcs	r2, [r8], r8
     cfc:	a82da825 	stmdage	sp!, {r0, r2, r5, fp, sp, pc}
     d00:	23253300 			; <UNDEFINED> instruction: 0x23253300
     d04:	40a08080 	adcmi	r8, r0, r0, lsl #1
     d08:	00002432 	andeq	r2, r0, r2, lsr r4
     d0c:	5d140000 	ldcpl	0, cr0, [r4, #-0]
     d10:	68000003 	stmdavs	r0, {r0, r1}
     d14:	18000083 	stmdane	r0, {r0, r1, r7}
     d18:	01000000 	mrseq	r0, (UNDEF: 0)
     d1c:	0005e39c 	muleq	r5, ip, r3
     d20:	03690200 	cmneq	r9, #0, 4
     d24:	04040000 	streq	r0, [r4], #-0
     d28:	03fe0000 	mvnseq	r0, #0, 0
     d2c:	7c070000 	stcvc	0, cr0, [r7], {-0}
     d30:	f9000083 			; <UNDEFINED> instruction: 0xf9000083
     d34:	01000000 	mrseq	r0, (UNDEF: 0)
     d38:	0c055001 	stceq	0, cr5, [r5], {1}
     d3c:	2020001c 	eorcs	r0, r0, ip, lsl r0
     d40:	05510101 	ldrbeq	r0, [r1, #-257]	; 0xfffffeff
     d44:	5001a331 	andpl	sl, r1, r1, lsr r3
     d48:	23000024 	movwcs	r0, #36	; 0x24
     d4c:	00000344 	andeq	r0, r0, r4, asr #6
     d50:	00008380 	andeq	r8, r0, r0, lsl #7
     d54:	00000018 	andeq	r0, r0, r8, lsl r0
     d58:	50029c01 	andpl	r9, r2, r1, lsl #24
     d5c:	23000003 	movwcs	r0, #3
     d60:	1d000004 	stcne	0, cr0, [r0, #-16]
     d64:	07000004 	streq	r0, [r0, -r4]
     d68:	00008394 	muleq	r0, r4, r3
     d6c:	000000f9 	strdeq	r0, [r0], -r9
     d70:	05500101 	ldrbeq	r0, [r0, #-257]	; 0xfffffeff
     d74:	2000280c 	andcs	r2, r0, ip, lsl #16
     d78:	51010120 	tstpl	r1, r0, lsr #2
     d7c:	01a33105 			; <UNDEFINED> instruction: 0x01a33105
     d80:	00002450 	andeq	r2, r0, r0, asr r4
     d84:	00019d00 	andeq	r9, r1, r0, lsl #26
     d88:	d1000400 	tstle	r0, r0, lsl #8
     d8c:	04000004 	streq	r0, [r0], #-4
     d90:	00014401 	andeq	r4, r1, r1, lsl #8
     d94:	04240c00 	strteq	r0, [r4], #-3072	; 0xfffff400
     d98:	03ac0000 			; <UNDEFINED> instruction: 0x03ac0000
     d9c:	84480000 	strbhi	r0, [r8], #-0
     da0:	00580000 	subseq	r0, r8, r0
     da4:	06250000 	strteq	r0, [r5], -r0
     da8:	10020000 	andne	r0, r2, r0
     dac:	02000004 	andeq	r0, r0, #4, 0
     db0:	00311b28 	eorseq	r1, r1, r8, lsr #22
     db4:	34030000 	strcc	r0, [r3], #-0
     db8:	04000004 	streq	r0, [r0], #-4
     dbc:	00480004 	subeq	r0, r8, r4
     dc0:	1f040000 	svcne	0x00040000
     dc4:	48000004 	stmdami	r0, {r2}
     dc8:	00000000 	andeq	r0, r0, r0
     dcc:	02040500 	andeq	r0, r4, #0, 10
     dd0:	00000436 	andeq	r0, r0, r6, lsr r4
     dd4:	25186302 	ldrcs	r6, [r8, #-770]	; 0xfffffcfe
     dd8:	06000000 	streq	r0, [r0], -r0
     ddc:	6e690504 	cdpvs	5, 6, cr0, cr9, cr4, {0}
     de0:	04070074 	streq	r0, [r7], #-116	; 0xffffff8c
     de4:	00010807 	andeq	r0, r1, r7, lsl #16
     de8:	06010700 	streq	r0, [r1], -r0, lsl #14
     dec:	000000ea 	andeq	r0, r0, sl, ror #1
     df0:	3f050207 	svccc	0x00050207
     df4:	07000000 	streq	r0, [r0, -r0]
     df8:	00a20504 	adceq	r0, r2, r4, lsl #10
     dfc:	08070000 	stmdaeq	r7, {}	; <UNPREDICTABLE>
     e00:	00009d05 	andeq	r9, r0, r5, lsl #26
     e04:	08010700 	stmdaeq	r1, {r8, r9, sl}
     e08:	000000e8 	andeq	r0, r0, r8, ror #1
     e0c:	26070207 	strcs	r0, [r7], -r7, lsl #4
     e10:	07000001 	streq	r0, [r0, -r1]
     e14:	01030704 	tsteq	r3, r4, lsl #14
     e18:	08070000 	stmdaeq	r7, {}	; <UNPREDICTABLE>
     e1c:	0000fe07 	andeq	pc, r0, r7, lsl #28
     e20:	00560800 	subseq	r0, r6, r0, lsl #16
     e24:	00ab0000 	adceq	r0, fp, r0
     e28:	56090000 	strpl	r0, [r9], -r0
     e2c:	00000000 	andeq	r0, r0, r0
     e30:	00004e0a 	andeq	r4, r0, sl, lsl #28
     e34:	0e1c0300 	cdpeq	3, 1, cr0, cr12, cr0, {0}
     e38:	000000b7 	strheq	r0, [r0], -r7
     e3c:	009c040b 	addseq	r0, ip, fp, lsl #8
     e40:	56080000 	strpl	r0, [r8], -r0
     e44:	cc000000 	stcgt	0, cr0, [r0], {-0}
     e48:	09000000 	stmdbeq	r0, {}	; <UNPREDICTABLE>
     e4c:	000000cc 	andeq	r0, r0, ip, asr #1
     e50:	d9040b00 	stmdble	r4, {r8, r9, fp}
     e54:	07000000 	streq	r0, [r0, -r0]
     e58:	00f10801 	rscseq	r0, r1, r1, lsl #16
     e5c:	d20c0000 	andle	r0, ip, #0, 0
     e60:	0a000000 	beq	e68 <__code_start__-0x7198>
     e64:	00000447 	andeq	r0, r0, r7, asr #8
     e68:	ea0e2103 	b	38927c <__bss_end__+0x37f7d4>
     e6c:	0b000000 	bleq	e74 <__code_start__-0x718c>
     e70:	0000bd04 	andeq	fp, r0, r4, lsl #26
     e74:	04090d00 	streq	r0, [r9], #-3328	; 0xfffff300
     e78:	06010000 	streq	r0, [r1], -r0
     e7c:	00005605 	andeq	r5, r0, r5, lsl #12
     e80:	00844800 	addeq	r4, r4, r0, lsl #16
     e84:	00005800 	andeq	r5, r0, r0, lsl #16
     e88:	839c0100 	orrshi	r0, ip, #0
     e8c:	0e000001 	cdpeq	0, 0, cr0, cr0, cr1, {0}
     e90:	00746d66 	rsbseq	r6, r4, r6, ror #26
     e94:	cc180601 	ldcgt	6, cr0, [r8], {1}
     e98:	02000000 	andeq	r0, r0, #0, 0
     e9c:	100f7091 	mulne	pc, r1, r0	; <UNPREDICTABLE>
     ea0:	00667562 	rsbeq	r7, r6, r2, ror #10
     ea4:	83110801 	tsthi	r1, #65536	; 0x10000
     ea8:	05000001 	streq	r0, [r0, #-1]
     eac:	0096a803 	addseq	sl, r6, r3, lsl #16
     eb0:	04011100 	streq	r1, [r1], #-256	; 0xffffff00
     eb4:	09010000 	stmdbeq	r1, {}	; <UNPREDICTABLE>
     eb8:	00004a0d 	andeq	r4, r0, sp, lsl #20
     ebc:	5c910200 	lfmpl	f0, 4, [r1], {0}
     ec0:	007a7312 	rsbseq	r7, sl, r2, lsl r3
     ec4:	560d0c01 	strpl	r0, [sp], -r1, lsl #24
     ec8:	01000000 	mrseq	r0, (UNDEF: 0)
     ecc:	fb000007 	blx	ef2 <__code_start__-0x710e>
     ed0:	13000006 	movwne	r0, #6
     ed4:	00008470 	andeq	r8, r0, r0, ror r4
     ed8:	00000194 	muleq	r0, r4, r1
     edc:	00000176 	andeq	r0, r0, r6, ror r1
     ee0:	02500114 	subseq	r0, r0, #5
     ee4:	01140075 	tsteq	r4, r5, ror r0
     ee8:	000a0351 	andeq	r0, sl, r1, asr r3
     eec:	52011404 	andpl	r1, r1, #4, 8	; 0x4000000
     ef0:	06489103 	strbeq	r9, [r8], -r3, lsl #2
     ef4:	02530114 	subseq	r0, r3, #5
     ef8:	15004c91 	strne	r4, [r0, #-3217]	; 0xfffff36f
     efc:	00008484 	andeq	r8, r0, r4, lsl #9
     f00:	02500114 	subseq	r0, r0, #5
     f04:	00000075 	andeq	r0, r0, r5, ror r0
     f08:	0000d216 	andeq	sp, r0, r6, lsl r2
     f0c:	00019400 	andeq	r9, r1, r0, lsl #8
     f10:	005d1700 	subseq	r1, sp, r0, lsl #14
     f14:	03ff0000 	mvnseq	r0, #0, 0
     f18:	04061800 	streq	r1, [r6], #-2048	; 0xfffff800
     f1c:	04060000 	streq	r0, [r6], #-0
     f20:	02050000 	andeq	r0, r5, #0, 0
     f24:	00f30005 	rscseq	r0, r3, r5
     f28:	00040000 	andeq	r0, r4, r0
     f2c:	00000613 	andeq	r0, r0, r3, lsl r6
     f30:	01440104 	cmpeq	r4, r4, lsl #2
     f34:	4c0c0000 	stcmi	0, cr0, [ip], {-0}
     f38:	ac000004 	stcge	0, cr0, [r0], {4}
     f3c:	a0000003 	andge	r0, r0, r3
     f40:	38000084 	stmdacc	r0, {r2, r7}
     f44:	49000000 	stmdbmi	r0, {}	; <UNPREDICTABLE>
     f48:	02000007 	andeq	r0, r0, #7, 0
     f4c:	6e690504 	cdpvs	5, 6, cr0, cr9, cr4, {0}
     f50:	04030074 	streq	r0, [r3], #-116	; 0xffffff8c
     f54:	00010807 	andeq	r0, r1, r7, lsl #16
     f58:	06010300 	streq	r0, [r1], -r0, lsl #6
     f5c:	000000ea 	andeq	r0, r0, sl, ror #1
     f60:	3f050203 	svccc	0x00050203
     f64:	03000000 	movweq	r0, #0
     f68:	00a20504 	adceq	r0, r2, r4, lsl #10
     f6c:	08030000 	stmdaeq	r3, {}	; <UNPREDICTABLE>
     f70:	00009d05 	andeq	r9, r0, r5, lsl #26
     f74:	08010300 	stmdaeq	r1, {r8, r9}
     f78:	000000e8 	andeq	r0, r0, r8, ror #1
     f7c:	26070203 	strcs	r0, [r7], -r3, lsl #4
     f80:	03000001 	movweq	r0, #1
     f84:	01030704 	tsteq	r3, r4, lsl #14
     f88:	08030000 	stmdaeq	r3, {}	; <UNPREDICTABLE>
     f8c:	0000fe07 	andeq	pc, r0, r7, lsl #28
     f90:	00250400 	eoreq	r0, r5, r0, lsl #8
     f94:	007a0000 	rsbseq	r0, sl, r0
     f98:	25050000 	strcs	r0, [r5, #-0]
     f9c:	00000000 	andeq	r0, r0, r0
     fa0:	00004e06 	andeq	r4, r0, r6, lsl #28
     fa4:	0e1c0200 	cdpeq	2, 1, cr0, cr12, cr0, {0}
     fa8:	00000086 	andeq	r0, r0, r6, lsl #1
     fac:	006b0407 	rsbeq	r0, fp, r7, lsl #8
     fb0:	25040000 	strcs	r0, [r4, #-0]
     fb4:	9b000000 	blls	fbc <__code_start__-0x7044>
     fb8:	05000000 	streq	r0, [r0, #-0]
     fbc:	0000009b 	muleq	r0, fp, r0
     fc0:	a8040700 	stmdage	r4, {r8, r9, sl}
     fc4:	03000000 	movweq	r0, #0
     fc8:	00f10801 	rscseq	r0, r1, r1, lsl #16
     fcc:	a1080000 	mrsge	r0, (UNDEF: 8)
     fd0:	06000000 	streq	r0, [r0], -r0
     fd4:	00000447 	andeq	r0, r0, r7, asr #8
     fd8:	b90e2102 	stmdblt	lr, {r1, r8, sp}
     fdc:	07000000 	streq	r0, [r0, -r0]
     fe0:	00008c04 	andeq	r8, r0, r4, lsl #24
     fe4:	00ad0900 	adceq	r0, sp, r0, lsl #18
     fe8:	0c010000 	stceq	0, cr0, [r1], {-0}
     fec:	a0030507 	andge	r0, r3, r7, lsl #10
     ff0:	0a000096 	beq	1250 <__code_start__-0x6db0>
     ff4:	0000043e 	andeq	r0, r0, lr, lsr r4
     ff8:	25050401 	strcs	r0, [r5, #-1025]	; 0xfffffbff
     ffc:	a0000000 	andge	r0, r0, r0
    1000:	38000084 	stmdacc	r0, {r2, r7}
    1004:	01000000 	mrseq	r0, (UNDEF: 0)
    1008:	00700b9c 			; <UNDEFINED> instruction: 0x00700b9c
    100c:	9b1f0401 	blls	7c2018 <__bss_end__+0x7b8570>
    1010:	32000000 	andcc	r0, r0, #0, 0
    1014:	2a000007 	bcs	1038 <__code_start__-0x6fc8>
    1018:	00000007 	andeq	r0, r0, r7
    101c:	000c7f00 	andeq	r7, ip, r0, lsl #30
    1020:	b1000400 	tstlt	r0, r0, lsl #8
    1024:	04000006 	streq	r0, [r0], #-6
    1028:	00014401 	andeq	r4, r1, r1, lsl #8
    102c:	046b0c00 	strbteq	r0, [fp], #-3072	; 0xfffff400
    1030:	03ac0000 			; <UNDEFINED> instruction: 0x03ac0000
    1034:	84d80000 	ldrbhi	r0, [r8], #0
    1038:	09b40000 	ldmibeq	r4!, {}	; <UNPREDICTABLE>
    103c:	07ed0000 	strbeq	r0, [sp, r0]!
    1040:	08020000 	stmdaeq	r2, {}	; <UNPREDICTABLE>
    1044:	0000fe07 	andeq	pc, r0, r7, lsl #28
    1048:	07040200 	streq	r0, [r4, -r0, lsl #4]
    104c:	00000108 	andeq	r0, r0, r8, lsl #2
    1050:	69050403 	stmdbvs	r5, {r0, r1, sl}
    1054:	0200746e 	andeq	r7, r0, #1845493760	; 0x6e000000
    1058:	00ea0601 	rsceq	r0, sl, r1, lsl #12
    105c:	02020000 	andeq	r0, r2, #0, 0
    1060:	00003f05 	andeq	r3, r0, r5, lsl #30
    1064:	05040200 	streq	r0, [r4, #-512]	; 0xfffffe00
    1068:	000000a2 	andeq	r0, r0, r2, lsr #1
    106c:	9d050802 	stcls	8, cr0, [r5, #-8]
    1070:	02000000 	andeq	r0, r0, #0, 0
    1074:	00e80801 	rsceq	r0, r8, r1, lsl #16
    1078:	02020000 	andeq	r0, r2, #0, 0
    107c:	00012607 	andeq	r2, r1, r7, lsl #12
    1080:	01150400 	tsteq	r5, r0, lsl #8
    1084:	34020000 	strcc	r0, [r2], #-0
    1088:	00007019 	andeq	r7, r0, r9, lsl r0
    108c:	07040200 	streq	r0, [r4, -r0, lsl #4]
    1090:	00000103 	andeq	r0, r0, r3, lsl #2
    1094:	00046204 	andeq	r6, r4, r4, lsl #4
    1098:	19370200 	ldmdbne	r7!, {r9}
    109c:	00000025 	andeq	r0, r0, r5, lsr #32
    10a0:	00003305 	andeq	r3, r0, r5, lsl #6
    10a4:	00009200 	andeq	r9, r0, r0, lsl #4
    10a8:	00330600 	eorseq	r0, r3, r0, lsl #12
    10ac:	07000000 	streq	r0, [r0, -r0]
    10b0:	0000004e 	andeq	r0, r0, lr, asr #32
    10b4:	9e0e1c03 	cdpls	12, 0, cr1, cr14, cr3, {0}
    10b8:	08000000 	stmdaeq	r0, {}	; <UNPREDICTABLE>
    10bc:	00008304 	andeq	r8, r0, r4, lsl #6
    10c0:	00330500 	eorseq	r0, r3, r0, lsl #10
    10c4:	00b30000 	adcseq	r0, r3, r0
    10c8:	b3060000 	movwlt	r0, #24576	; 0x6000
    10cc:	00000000 	andeq	r0, r0, r0
    10d0:	00c00408 	sbceq	r0, r0, r8, lsl #8
    10d4:	01020000 	mrseq	r0, (UNDEF: 2)
    10d8:	0000f108 	andeq	pc, r0, r8, lsl #2
    10dc:	00b90900 	adcseq	r0, r9, r0, lsl #18
    10e0:	47070000 	strmi	r0, [r7, -r0]
    10e4:	03000004 	movweq	r0, #4
    10e8:	00d10e21 	sbcseq	r0, r1, r1, lsr #28
    10ec:	04080000 	streq	r0, [r8], #-0
    10f0:	000000a4 	andeq	r0, r0, r4, lsr #1
    10f4:	00047e07 	andeq	r7, r4, r7, lsl #28
    10f8:	0d0b0400 	cfstrseq	mvf0, [fp, #-0]
    10fc:	000000b9 	strheq	r0, [r0], -r9
    1100:	0004fe07 	andeq	pc, r4, r7, lsl #28
    1104:	0d0c0400 	cfstrseq	mvf0, [ip, #-0]
    1108:	000000b9 	strheq	r0, [r0], -r9
    110c:	00048d07 	andeq	r8, r4, r7, lsl #26
    1110:	0d0d0400 	cfstrseq	mvf0, [sp, #-0]
    1114:	000000b9 	strheq	r0, [r0], -r9
    1118:	0004b607 	andeq	fp, r4, r7, lsl #12
    111c:	0d0e0400 	cfstrseq	mvf0, [lr, #-0]
    1120:	000000b9 	strheq	r0, [r0], -r9
    1124:	00052707 	andeq	r2, r5, r7, lsl #14
    1128:	0d0f0400 	cfstrseq	mvf0, [pc, #-0]	; 1130 <__code_start__-0x6ed0>
    112c:	000000b9 	strheq	r0, [r0], -r9
    1130:	0004a107 	andeq	sl, r4, r7, lsl #2
    1134:	0d100400 	cfldrseq	mvf0, [r0, #-0]
    1138:	000000b9 	strheq	r0, [r0], -r9
    113c:	00053607 	andeq	r3, r5, r7, lsl #12
    1140:	0d110400 	cfldrseq	mvf0, [r1, #-0]
    1144:	000000b9 	strheq	r0, [r0], -r9
    1148:	0004c207 	andeq	ip, r4, r7, lsl #4
    114c:	0d120400 	cfldrseq	mvf0, [r2, #-0]
    1150:	000000b9 	strheq	r0, [r0], -r9
    1154:	00041004 	andeq	r1, r4, r4
    1158:	1b280500 	blne	a02560 <__bss_end__+0x9f8ab8>
    115c:	00000143 	andeq	r0, r0, r3, asr #2
    1160:	0004340a 	andeq	r3, r4, sl, lsl #8
    1164:	00060400 	andeq	r0, r6, r0, lsl #8
    1168:	0000015a 	andeq	r0, r0, sl, asr r1
    116c:	00041f0b 	andeq	r1, r4, fp, lsl #30
    1170:	00015a00 	andeq	r5, r1, r0, lsl #20
    1174:	0c000000 	stceq	0, cr0, [r0], {-0}
    1178:	04360404 	ldrteq	r0, [r6], #-1028	; 0xfffffbfc
    117c:	63050000 	movwvs	r0, #20480	; 0x5000
    1180:	00013718 	andeq	r3, r1, r8, lsl r7
    1184:	04060d00 	streq	r0, [r6], #-3328	; 0xfffff300
    1188:	81010000 	mrshi	r0, (UNDEF: 1)
    118c:	00003305 	andeq	r3, r0, r5, lsl #6
    1190:	00886000 	addeq	r6, r8, r0
    1194:	00062c00 	andeq	r2, r6, r0, lsl #24
    1198:	6a9c0100 	bvs	fe7015a0 <__bss_end__+0xfe6f7af8>
    119c:	0e000008 	cdpeq	0, 0, cr0, cr0, cr8, {0}
    11a0:	00667562 	rsbeq	r7, r6, r2, ror #10
    11a4:	6a158101 	bvs	5615b0 <__bss_end__+0x557b08>
    11a8:	72000008 	andvc	r0, r0, #8, 0
    11ac:	68000007 	stmdavs	r0, {r0, r1, r2}
    11b0:	0e000007 	cdpeq	0, 0, cr0, cr0, cr7, {0}
    11b4:	8101006e 	tsthi	r1, lr, rrx
    11b8:	0000331e 	andeq	r3, r0, lr, lsl r3
    11bc:	0007bf00 	andeq	fp, r7, r0, lsl #30
    11c0:	0007b700 	andeq	fp, r7, r0, lsl #14
    11c4:	6d660e00 	stclvs	14, cr0, [r6, #-0]
    11c8:	81010074 	tsthi	r1, r4, ror r0
    11cc:	0000b32d 	andeq	fp, r0, sp, lsr #6
    11d0:	00081100 	andeq	r1, r8, r0, lsl #2
    11d4:	0007f900 	andeq	pc, r7, r0, lsl #18
    11d8:	04010f00 	streq	r0, [r1], #-3840	; 0xfffff100
    11dc:	81010000 	mrshi	r0, (UNDEF: 1)
    11e0:	00015c3a 	andeq	r5, r1, sl, lsr ip
    11e4:	0008d500 	andeq	sp, r8, r0, lsl #10
    11e8:	0008a500 	andeq	sl, r8, r0, lsl #10
    11ec:	00701000 	rsbseq	r1, r0, r0
    11f0:	6a088201 	bvs	2219fc <__bss_end__+0x217f54>
    11f4:	33000008 	movwcc	r0, #8
    11f8:	1d00000a 	stcne	0, cr0, [r0, #-40]	; 0xffffffd8
    11fc:	1000000a 	andne	r0, r0, sl
    1200:	82010065 	andhi	r0, r1, #101, 0	; 0x65
    1204:	00086a12 	andeq	r6, r8, r2, lsl sl
    1208:	000abc00 	andeq	fp, sl, r0, lsl #24
    120c:	000aba00 	andeq	fp, sl, r0, lsl #20
    1210:	30781000 	rsbscc	r1, r8, r0
    1214:	0e830100 	rmfeqs	f0, f3, f0
    1218:	00000064 	andeq	r0, r0, r4, rrx
    121c:	00000ad5 	ldrdeq	r0, [r0], -r5
    1220:	00000acf 	andeq	r0, r0, pc, asr #21
    1224:	00317810 	eorseq	r7, r1, r0, lsl r8
    1228:	64118301 	ldrvs	r8, [r1], #-769	; 0xfffffcff
    122c:	04000000 	streq	r0, [r0], #-0
    1230:	fe00000b 	cdp2	0, 0, cr0, cr0, cr11, {0}
    1234:	1100000a 	tstne	r0, sl
    1238:	000004e0 	andeq	r0, r0, r0, ror #9
    123c:	b3118601 	tstlt	r1, #1048576	; 0x100000
    1240:	35000000 	strcc	r0, [r0, #-0]
    1244:	2d00000b 	stccs	0, cr0, [r0, #-44]	; 0xffffffd4
    1248:	1200000b 	andne	r0, r0, #11, 0
    124c:	000000c0 	andeq	r0, r0, r0, asr #1
    1250:	00000880 	andeq	r0, r0, r0, lsl #17
    1254:	96880305 	strls	r0, [r8], r5, lsl #6
    1258:	e8130000 	ldmda	r3, {}	; <UNPREDICTABLE>
    125c:	10000001 	andne	r0, r0, r1
    1260:	91010073 	tstls	r1, r3, ror r0
    1264:	00086a0a 	andeq	r6, r8, sl, lsl #20
    1268:	000b7b00 	andeq	r7, fp, r0, lsl #22
    126c:	000b6f00 	andeq	r6, fp, r0, lsl #30
    1270:	756e1400 	strbvc	r1, [lr, #-1024]!	; 0xfffffc00
    1274:	9101006d 	tstls	r1, sp, rrx
    1278:	0008850d 	andeq	r8, r8, sp, lsl #10
    127c:	d8910300 	ldmle	r1, {r8, r9}
    1280:	0543157d 	strbeq	r1, [r3, #-1405]	; 0xfffffa83
    1284:	91010000 	mrsls	r0, (UNDEF: 1)
    1288:	00088517 	andeq	r8, r8, r7, lsl r5
    128c:	d8910300 	ldmle	r1, {r8, r9}
    1290:	049b117e 	ldreq	r1, [fp], #382	; 0x17e
    1294:	92010000 	andls	r0, r1, #0, 0
    1298:	00002c0d 	andeq	r2, r0, sp, lsl #24
    129c:	000bcd00 	andeq	ip, fp, r0, lsl #26
    12a0:	000bc500 	andeq	ip, fp, r0, lsl #10
    12a4:	02101600 	andseq	r1, r0, #0, 12
    12a8:	04f10000 	ldrbteq	r0, [r1], #0
    12ac:	74100000 	ldrvc	r0, [r0], #-0
    12b0:	9e010079 	mcrls	0, 0, r0, cr1, cr9, {3}
    12b4:	0000b31d 	andeq	fp, r0, sp, lsl r3
    12b8:	000c0e00 	andeq	r0, ip, r0, lsl #28
    12bc:	000c0200 	andeq	r0, ip, r0, lsl #4
    12c0:	78781400 	ldmdavc	r8!, {sl, ip}^
    12c4:	1aa20100 	bne	fe8816cc <__bss_end__+0xfe877c24>
    12c8:	00000077 	andeq	r0, r0, r7, ror r0
    12cc:	04935906 	ldreq	r5, [r3], #2310	; 0x906
    12d0:	1704935b 	smlsdne	r4, fp, r3, r9
    12d4:	000089ec 	andeq	r8, r0, ip, ror #19
    12d8:	00000c3a 	andeq	r0, r0, sl, lsr ip
    12dc:	000002d8 	ldrdeq	r0, [r0], -r8
    12e0:	02500118 	subseq	r0, r0, #6
    12e4:	01180076 	tsteq	r8, r6, ror r0
    12e8:	7c030551 	cfstr32vc	mvfx0, [r3], {81}	; 0x51
    12ec:	18000095 	stmdane	r0, {r0, r2, r4, r7}
    12f0:	33015201 	movwcc	r5, #4609	; 0x1201
    12f4:	8a041700 	bhi	106efc <__bss_end__+0xfd454>
    12f8:	0c3a0000 	ldceq	0, cr0, [sl], #-0
    12fc:	02fa0000 	rscseq	r0, sl, #0, 0
    1300:	01180000 	tsteq	r8, r0
    1304:	00760250 	rsbseq	r0, r6, r0, asr r2
    1308:	05510118 	ldrbeq	r0, [r1, #-280]	; 0xfffffee8
    130c:	00959003 	addseq	r9, r5, r3
    1310:	52011800 	andpl	r1, r1, #0, 16
    1314:	17003301 	strne	r3, [r0, -r1, lsl #6]
    1318:	00008a28 	andeq	r8, r0, r8, lsr #20
    131c:	00000c46 	andeq	r0, r0, r6, asr #24
    1320:	00000317 	andeq	r0, r0, r7, lsl r3
    1324:	05500118 	ldrbeq	r0, [r0, #-280]	; 0xfffffee8
    1328:	00958003 	addseq	r8, r5, r3
    132c:	51011800 	tstpl	r1, r0, lsl #16
    1330:	00007b02 	andeq	r7, r0, r2, lsl #22
    1334:	008a3417 	addeq	r3, sl, r7, lsl r4
    1338:	000c4600 	andeq	r4, ip, r0, lsl #12
    133c:	00033400 	andeq	r3, r3, r0, lsl #8
    1340:	50011800 	andpl	r1, r1, r0, lsl #16
    1344:	95880305 	strls	r0, [r8, #773]	; 0x305
    1348:	01180000 	tsteq	r8, r0
    134c:	00790251 	rsbseq	r0, r9, r1, asr r2
    1350:	8a441700 	bhi	1106f58 <__bss_end__+0x10fd4b0>
    1354:	0c3a0000 	ldceq	0, cr0, [sl], #-0
    1358:	03560000 	cmpeq	r6, #0, 0
    135c:	01180000 	tsteq	r8, r0
    1360:	00760250 	rsbseq	r0, r6, r0, asr r2
    1364:	05510118 	ldrbeq	r0, [r1, #-280]	; 0xfffffee8
    1368:	00957c03 	addseq	r7, r5, r3, lsl #24
    136c:	52011800 	andpl	r1, r1, #0, 16
    1370:	17003301 	strne	r3, [r0, -r1, lsl #6]
    1374:	00008a74 	andeq	r8, r0, r4, ror sl
    1378:	00000aa4 	andeq	r0, r0, r4, lsr #21
    137c:	00000383 	andeq	r0, r0, r3, lsl #7
    1380:	01500118 	cmpeq	r0, r8, lsl r1
    1384:	51011840 	tstpl	r1, r0, asr #16
    1388:	7dd09103 	ldfvcp	f1, [r0, #12]
    138c:	02520118 	subseq	r0, r2, #6
    1390:	0118007b 	tsteq	r8, fp, ror r0
    1394:	00750253 	rsbseq	r0, r5, r3, asr r2
    1398:	007d0218 	rsbseq	r0, sp, r8, lsl r2
    139c:	00007602 	andeq	r7, r0, r2, lsl #12
    13a0:	008a9417 	addeq	r9, sl, r7, lsl r4
    13a4:	000aa400 	andeq	sl, sl, r0, lsl #8
    13a8:	0003aa00 	andeq	sl, r3, r0, lsl #20
    13ac:	50011800 	andpl	r1, r1, r0, lsl #16
    13b0:	01184001 	tsteq	r8, r1
    13b4:	d0910351 	addsle	r0, r1, r1, asr r3
    13b8:	5201187e 	andpl	r1, r1, #8257536	; 0x7e0000
    13bc:	18007902 	stmdane	r0, {r1, r8, fp, ip, sp, lr}
    13c0:	02007d02 	andeq	r7, r0, #128	; 0x80
    13c4:	17000076 	smlsdxne	r0, r6, r0, r0
    13c8:	00008aa4 	andeq	r8, r0, r4, lsr #21
    13cc:	00000c52 	andeq	r0, r0, r2, asr ip
    13d0:	000003c6 	andeq	r0, r0, r6, asr #7
    13d4:	03500118 	cmpeq	r0, #6
    13d8:	187dd091 	ldmdane	sp!, {r0, r4, r7, ip, lr, pc}^
    13dc:	91035101 	tstls	r3, r1, lsl #2
    13e0:	17007ed2 			; <UNDEFINED> instruction: 0x17007ed2
    13e4:	00008ce8 	andeq	r8, r0, r8, ror #25
    13e8:	00000c3a 	andeq	r0, r0, sl, lsr ip
    13ec:	000003e8 	andeq	r0, r0, r8, ror #7
    13f0:	02500118 	subseq	r0, r0, #6
    13f4:	01180076 	tsteq	r8, r6, ror r0
    13f8:	90030551 	andls	r0, r3, r1, asr r5
    13fc:	18000095 	stmdane	r0, {r0, r2, r4, r7}
    1400:	33015201 	movwcc	r5, #4609	; 0x1201
    1404:	8d0c1700 	stchi	7, cr1, [ip, #-0]
    1408:	0aa40000 	beq	fe901410 <__bss_end__+0xfe8f7968>
    140c:	04150000 	ldreq	r0, [r5], #-0
    1410:	01180000 	tsteq	r8, r0
    1414:	183a0150 	ldmdane	sl!, {r4, r6, r8}
    1418:	91035101 	tstls	r3, r1, lsl #2
    141c:	01187dd0 			; <UNDEFINED> instruction: 0x01187dd0
    1420:	007b0252 	rsbseq	r0, fp, r2, asr r2
    1424:	02530118 	subseq	r0, r3, #6
    1428:	02180075 	andseq	r0, r8, #117, 0	; 0x75
    142c:	7602007d 			; <UNDEFINED> instruction: 0x7602007d
    1430:	2c170000 	ldccs	0, cr0, [r7], {-0}
    1434:	a400008d 	strge	r0, [r0], #-141	; 0xffffff73
    1438:	3c00000a 	stccc	0, cr0, [r0], {10}
    143c:	18000004 	stmdane	r0, {r2}
    1440:	3a015001 	bcc	5544c <__bss_end__+0x4b9a4>
    1444:	03510118 	cmpeq	r1, #6
    1448:	187ed091 	ldmdane	lr!, {r0, r4, r7, ip, lr, pc}^
    144c:	79025201 	stmdbvc	r2, {r0, r9, ip, lr}
    1450:	7d021800 	stcvc	8, cr1, [r2, #-0]
    1454:	00760200 	rsbseq	r0, r6, r0, lsl #4
    1458:	8d381700 	ldchi	7, cr1, [r8, #-0]
    145c:	0c5e0000 	mraeq	r0, lr, acc0
    1460:	045a0000 	ldrbeq	r0, [sl], #-0
    1464:	01180000 	tsteq	r8, r0
    1468:	d0910350 	addsle	r0, r1, r0, asr r3
    146c:	5101187d 	tstpl	r1, sp, ror r8
    1470:	95400305 	strbls	r0, [r0, #-773]	; 0xfffffcfb
    1474:	17000000 	strne	r0, [r0, -r0]
    1478:	00008d4c 	andeq	r8, r0, ip, asr #26
    147c:	00000c6a 	andeq	r0, r0, sl, ror #24
    1480:	00000476 	andeq	r0, r0, r6, ror r4
    1484:	03500118 	cmpeq	r0, #6
    1488:	187dd091 	ldmdane	sp!, {r0, r4, r7, ip, lr, pc}^
    148c:	91035101 	tstls	r3, r1, lsl #2
    1490:	19007ed0 	stmdbne	r0, {r4, r6, r7, r9, sl, fp, ip, sp, lr}
    1494:	00008d58 	andeq	r8, r0, r8, asr sp
    1498:	00000c52 	andeq	r0, r0, r2, asr ip
    149c:	008e1c17 	addeq	r1, lr, r7, lsl ip
    14a0:	000c4600 	andeq	r4, ip, r0, lsl #12
    14a4:	0004a800 	andeq	sl, r4, r0, lsl #16
    14a8:	50011800 	andpl	r1, r1, r0, lsl #16
    14ac:	952c0305 	strls	r0, [ip, #-773]!	; 0xfffffcfb
    14b0:	01180000 	tsteq	r8, r0
    14b4:	18030551 	stmdane	r3, {r0, r4, r6, r8, sl}
    14b8:	18000095 	stmdane	r0, {r0, r2, r4, r7}
    14bc:	03055201 	movweq	r5, #20993	; 0x5201
    14c0:	00009688 	andeq	r9, r0, r8, lsl #13
    14c4:	8e201900 	vmulhi.f16	s2, s0, s0	; <UNPREDICTABLE>
    14c8:	0c760000 	ldcleq	0, cr0, [r6], #-0
    14cc:	38170000 	ldmdacc	r7, {}	; <UNPREDICTABLE>
    14d0:	4600008e 	strmi	r0, [r0], -lr, lsl #1
    14d4:	e700000c 	str	r0, [r0, -ip]
    14d8:	18000004 	stmdane	r0, {r2}
    14dc:	03055001 	movweq	r5, #20481	; 0x5001
    14e0:	000095d0 	ldrdeq	r9, [r0], -r0
    14e4:	05510118 	ldrbeq	r0, [r1, #-280]	; 0xfffffee8
    14e8:	00951803 	addseq	r1, r5, r3, lsl #16
    14ec:	52011800 	andpl	r1, r1, #0, 16
    14f0:	96880305 	strls	r0, [r8], r5, lsl #6
    14f4:	01180000 	tsteq	r8, r0
    14f8:	b6080253 			; <UNDEFINED> instruction: 0xb6080253
    14fc:	007d0218 	rsbseq	r0, sp, r8, lsl r2
    1500:	00007602 	andeq	r7, r0, r2, lsl #12
    1504:	008e3c19 	addeq	r3, lr, r9, lsl ip
    1508:	000c7600 	andeq	r7, ip, r0, lsl #12
    150c:	e31a0000 	tst	sl, #0, 0
    1510:	ec000009 	stc	0, cr0, [r0], {9}
    1514:	04000088 	streq	r0, [r0], #-136	; 0xffffff78
    1518:	00023800 	andeq	r3, r2, r0, lsl #16
    151c:	0a940100 	beq	fe501924 <__bss_end__+0xfe4f7e7c>
    1520:	00000515 	andeq	r0, r0, r5, lsl r5
    1524:	0009f41b 	andeq	pc, r9, fp, lsl r4	; <UNPREDICTABLE>
    1528:	000c6a00 	andeq	r6, ip, r0, lsl #20
    152c:	000c6600 	andeq	r6, ip, r0, lsl #12
    1530:	951a0000 	ldrls	r0, [sl, #-0]
    1534:	d4000008 	strle	r0, [r0], #-8
    1538:	0100008a 	smlabbeq	r0, sl, r0, r0
    153c:	00025800 	andeq	r5, r2, r0, lsl #16
    1540:	09dc0100 	ldmibeq	ip, {r8}^
    1544:	0000064b 	andeq	r0, r0, fp, asr #12
    1548:	0008be1b 	andeq	fp, r8, fp, lsl lr
    154c:	000c9800 	andeq	r9, ip, r0, lsl #16
    1550:	000c9200 	andeq	r9, ip, r0, lsl #4
    1554:	08e01b00 	stmiaeq	r0!, {r8, r9, fp, ip}^
    1558:	0ccd0000 	stcleq	0, cr0, [sp], {0}
    155c:	0cc70000 	stcleq	0, cr0, [r7], {0}
    1560:	d41b0000 	ldrle	r0, [fp], #-0
    1564:	ff000008 			; <UNDEFINED> instruction: 0xff000008
    1568:	f900000c 			; <UNDEFINED> instruction: 0xf900000c
    156c:	1c00000c 	stcne	0, cr0, [r0], {12}
    1570:	000008c8 	andeq	r0, r0, r8, asr #17
    1574:	0008b21b 	andeq	fp, r8, fp, lsl r2
    1578:	000d3000 	andeq	r3, sp, r0
    157c:	000d2800 	andeq	r2, sp, r0, lsl #16
    1580:	08a61b00 	stmiaeq	r6!, {r8, r9, fp, ip}
    1584:	0d730000 	ldcleq	0, cr0, [r3, #-0]
    1588:	0d6d0000 	stcleq	0, cr0, [sp, #-0]
    158c:	58130000 	ldmdapl	r3, {}	; <UNPREDICTABLE>
    1590:	1d000002 	stcne	0, cr0, [r0, #-8]
    1594:	000008ec 	andeq	r0, r0, ip, ror #17
    1598:	7ed89103 	atnvce	f1, f3
    159c:	0008f81e 	andeq	pc, r8, lr, lsl r8	; <UNPREDICTABLE>
    15a0:	000dad00 	andeq	sl, sp, r0, lsl #26
    15a4:	000d9f00 	andeq	r9, sp, r0, lsl #30
    15a8:	09021f00 	stmdbeq	r2, {r8, r9, sl, fp, ip}
    15ac:	a31a0000 	tstge	sl, #0, 0
    15b0:	e0000009 	and	r0, r0, r9
    15b4:	0400008a 	streq	r0, [r0], #-138	; 0xffffff76
    15b8:	00028800 	andeq	r8, r2, r0, lsl #16
    15bc:	097c0100 	ldmdbeq	ip!, {r8}^
    15c0:	000005e2 	andeq	r0, r0, r2, ror #11
    15c4:	0009ca1b 	andeq	ip, r9, fp, lsl sl
    15c8:	000e1700 	andeq	r1, lr, r0, lsl #14
    15cc:	000e1100 	andeq	r1, lr, r0, lsl #2
    15d0:	09be1b00 	ldmibeq	lr!, {r8, r9, fp, ip}
    15d4:	0e4c0000 	cdpeq	0, 4, cr0, cr12, cr0, {0}
    15d8:	0e400000 	cdpeq	0, 4, cr0, cr0, cr0, {0}
    15dc:	b41b0000 	ldrlt	r0, [fp], #-0
    15e0:	b2000009 	andlt	r0, r0, #9, 0
    15e4:	a200000e 	andge	r0, r0, #14, 0
    15e8:	1300000e 	movwne	r0, #14
    15ec:	00000288 	andeq	r0, r0, r8, lsl #5
    15f0:	0009d61e 	andeq	sp, r9, lr, lsl r6
    15f4:	000f2f00 	andeq	r2, pc, r0, lsl #30
    15f8:	000f2100 	andeq	r2, pc, r0, lsl #2
    15fc:	20000000 	andcs	r0, r0, r0
    1600:	0000094f 	andeq	r0, r0, pc, asr #18
    1604:	00008ba8 	andeq	r8, r0, r8, lsr #23
    1608:	02b80002 	adcseq	r0, r8, #2, 0
    160c:	7c010000 	stcvc	0, cr0, [r1], {-0}
    1610:	09801b09 	stmibeq	r0, {r0, r3, r8, r9, fp, ip}
    1614:	0f8f0000 	svceq	0x008f0000
    1618:	0f890000 	svceq	0x00890000
    161c:	761b0000 	ldrvc	r0, [fp], -r0
    1620:	c5000009 	strgt	r0, [r0, #-9]
    1624:	bb00000f 	bllt	1668 <__code_start__-0x6998>
    1628:	1b00000f 	blne	166c <__code_start__-0x6994>
    162c:	0000096c 	andeq	r0, r0, ip, ror #18
    1630:	00001014 	andeq	r1, r0, r4, lsl r0
    1634:	00001010 	andeq	r1, r0, r0, lsl r0
    1638:	0009601b 	andeq	r6, r9, fp, lsl r0
    163c:	00104400 	andseq	r4, r0, r0, lsl #8
    1640:	00103600 	andseq	r3, r0, r0, lsl #12
    1644:	02b81300 	adcseq	r1, r8, #0, 6
    1648:	8c1e0000 	ldchi	0, cr0, [lr], {-0}
    164c:	a9000009 	stmdbge	r0, {r0, r3}
    1650:	a7000010 	smladge	r0, r0, r0, r0
    1654:	1e000010 	mcrne	0, 0, r0, cr0, cr0, {0}
    1658:	00000998 	muleq	r0, r8, r9
    165c:	000010c3 	andeq	r1, r0, r3, asr #1
    1660:	000010bd 	strheq	r1, [r0], -sp
    1664:	00000000 	andeq	r0, r0, r0
    1668:	0008951a 	andeq	r9, r8, sl, lsl r5
    166c:	008be400 	addeq	lr, fp, r0, lsl #8
    1670:	e8000000 	stmda	r0, {}	; <UNPREDICTABLE>
    1674:	01000002 	tsteq	r0, r2
    1678:	078909d6 			; <UNDEFINED> instruction: 0x078909d6
    167c:	be1b0000 	cdplt	0, 1, cr0, cr11, cr0, {0}
    1680:	f6000008 			; <UNDEFINED> instruction: 0xf6000008
    1684:	f2000010 	vqadd.s8	d0, d0, d0
    1688:	1b000010 	blne	16d0 <__code_start__-0x6930>
    168c:	000008e0 	andeq	r0, r0, r0, ror #17
    1690:	0000111c 	andeq	r1, r0, ip, lsl r1
    1694:	00001118 	andeq	r1, r0, r8, lsl r1
    1698:	0008d41b 	andeq	sp, r8, fp, lsl r4
    169c:	00114000 	andseq	r4, r1, r0
    16a0:	00113c00 	andseq	r3, r1, r0, lsl #24
    16a4:	08c81c00 	stmiaeq	r8, {sl, fp, ip}^
    16a8:	b21b0000 	andslt	r0, fp, #0, 0
    16ac:	64000008 	strvs	r0, [r0], #-8
    16b0:	5e000011 	mcrpl	0, 0, r0, cr0, cr1, {0}
    16b4:	1b000011 	blne	1700 <__code_start__-0x6900>
    16b8:	000008a6 	andeq	r0, r0, r6, lsr #17
    16bc:	00001197 	muleq	r0, r7, r1
    16c0:	00001193 	muleq	r0, r3, r1
    16c4:	0002e813 	andeq	lr, r2, r3, lsl r8
    16c8:	08ec1d00 	stmiaeq	ip!, {r8, sl, fp, ip}^
    16cc:	91030000 	mrsls	r0, (UNDEF: 3)
    16d0:	f81e7ed8 			; <UNDEFINED> instruction: 0xf81e7ed8
    16d4:	c1000008 	tstgt	r0, r8
    16d8:	b7000011 	smladlt	r0, r1, r0, r0
    16dc:	1e000011 	mcrne	0, 0, r0, cr0, cr1, {0}
    16e0:	00000902 	andeq	r0, r0, r2, lsl #18
    16e4:	00001206 	andeq	r1, r0, r6, lsl #4
    16e8:	00001202 	andeq	r1, r0, r2, lsl #4
    16ec:	0009a31a 	andeq	sl, r9, sl, lsl r3
    16f0:	008c0000 	addeq	r0, ip, r0
    16f4:	08000300 	stmdaeq	r0, {r8, r9}
    16f8:	01000003 	tsteq	r0, r3
    16fc:	0720097c 			; <UNDEFINED> instruction: 0x0720097c
    1700:	ca1b0000 	bgt	6c1708 <__bss_end__+0x6b7c60>
    1704:	28000009 	stmdacs	r0, {r0, r3}
    1708:	24000012 	strcs	r0, [r0], #-18	; 0xffffffee
    170c:	1b000012 	blne	175c <__code_start__-0x68a4>
    1710:	000009be 			; <UNDEFINED> instruction: 0x000009be
    1714:	0000124a 	andeq	r1, r0, sl, asr #4
    1718:	00001246 	andeq	r1, r0, r6, asr #4
    171c:	0009b41b 	andeq	fp, r9, fp, lsl r4
    1720:	00127400 	andseq	r7, r2, r0, lsl #8
    1724:	00126800 	andseq	r6, r2, r0, lsl #16
    1728:	03081300 	movweq	r1, #33536	; 0x8300
    172c:	d61e0000 	ldrle	r0, [lr], -r0
    1730:	d0000009 	andle	r0, r0, r9
    1734:	c4000012 	strgt	r0, [r0], #-18	; 0xffffffee
    1738:	00000012 	andeq	r0, r0, r2, lsl r0
    173c:	094f2000 	stmdbeq	pc, {sp}^	; <UNPREDICTABLE>
    1740:	8c880000 	stchi	0, cr0, [r8], {0}
    1744:	00020000 	andeq	r0, r2, r0
    1748:	00000330 	andeq	r0, r0, r0, lsr r3
    174c:	1b097c01 	blne	260758 <__bss_end__+0x256cb0>
    1750:	00000980 	andeq	r0, r0, r0, lsl #19
    1754:	00001320 	andeq	r1, r0, r0, lsr #6
    1758:	0000131c 	andeq	r1, r0, ip, lsl r3
    175c:	0009761b 	andeq	r7, r9, fp, lsl r6
    1760:	00134800 	andseq	r4, r3, r0, lsl #16
    1764:	00133e00 	andseq	r3, r3, r0, lsl #28
    1768:	096c1b00 	stmdbeq	ip!, {r8, r9, fp, ip}^
    176c:	13940000 	orrsne	r0, r4, #0, 0
    1770:	13900000 	orrsne	r0, r0, #0, 0
    1774:	601b0000 	andsvs	r0, fp, r0
    1778:	c2000009 	andgt	r0, r0, #9, 0
    177c:	b6000013 			; <UNDEFINED> instruction: 0xb6000013
    1780:	13000013 	movwne	r0, #19
    1784:	00000330 	andeq	r0, r0, r0, lsr r3
    1788:	00098c1e 	andeq	r8, r9, lr, lsl ip
    178c:	00141c00 	andseq	r1, r4, r0, lsl #24
    1790:	00141800 	andseq	r1, r4, r0, lsl #16
    1794:	09981e00 	ldmibeq	r8, {r9, sl, fp, ip}
    1798:	14420000 	strbne	r0, [r2], #-0
    179c:	143e0000 	ldrtne	r0, [lr], #-0
    17a0:	00000000 	andeq	r0, r0, r0
    17a4:	b4170000 	ldrlt	r0, [r7], #-0
    17a8:	a4000089 	strge	r0, [r0], #-137	; 0xffffff77
    17ac:	af00000a 	svcge	0x0000000a
    17b0:	18000007 	stmdane	r0, {r0, r1, r2}
    17b4:	40015001 	andmi	r5, r1, r1
    17b8:	03510118 	cmpeq	r1, #6
    17bc:	187dd091 	ldmdane	sp!, {r0, r4, r7, ip, lr, pc}^
    17c0:	75025301 	strvc	r5, [r2, #-769]	; 0xfffffcff
    17c4:	7d021800 	stcvc	8, cr1, [r2, #-0]
    17c8:	00300100 	eorseq	r0, r0, r0, lsl #2
    17cc:	008ac417 	addeq	ip, sl, r7, lsl r4
    17d0:	000aa400 	andeq	sl, sl, r0, lsl #8
    17d4:	0007cf00 	andeq	ip, r7, r0, lsl #30
    17d8:	50011800 	andpl	r1, r1, r0, lsl #16
    17dc:	01183a01 	tsteq	r8, r1, lsl #20
    17e0:	d0910351 	addsle	r0, r1, r1, asr r3
    17e4:	5301187d 	movwpl	r1, #6269	; 0x187d
    17e8:	00007502 	andeq	r7, r0, r2, lsl #10
    17ec:	008da817 	addeq	sl, sp, r7, lsl r8
    17f0:	000c4600 	andeq	r4, ip, r0, lsl #12
    17f4:	0007e600 	andeq	lr, r7, r0, lsl #12
    17f8:	50011800 	andpl	r1, r1, r0, lsl #16
    17fc:	96200305 	strtls	r0, [r0], -r5, lsl #6
    1800:	21000000 	mrscs	r0, (UNDEF: 0)
    1804:	00008db8 			; <UNDEFINED> instruction: 0x00008db8
    1808:	000007f8 	strdeq	r0, [r0], -r8
    180c:	04500118 	ldrbeq	r0, [r0], #-280	; 0xfffffee8
    1810:	067dc891 			; <UNDEFINED> instruction: 0x067dc891
    1814:	8dcc1700 	stclhi	7, cr1, [ip]
    1818:	0c460000 	mareq	acc0, r0, r6
    181c:	08270000 	stmdaeq	r7!, {}	; <UNPREDICTABLE>
    1820:	01180000 	tsteq	r8, r0
    1824:	50030550 	andpl	r0, r3, r0, asr r5
    1828:	18000096 	stmdane	r0, {r1, r2, r4, r7}
    182c:	03055101 	movweq	r5, #20737	; 0x5101
    1830:	00009518 	andeq	r9, r0, r8, lsl r5
    1834:	05520118 	ldrbeq	r0, [r2, #-280]	; 0xfffffee8
    1838:	00968803 	addseq	r8, r6, r3, lsl #16
    183c:	53011800 	movwpl	r1, #6144	; 0x1800
    1840:	00e20802 	rsceq	r0, r2, r2, lsl #16
    1844:	008dd019 	addeq	sp, sp, r9, lsl r0
    1848:	000c7600 	andeq	r7, ip, r0, lsl #12
    184c:	8de41700 	stclhi	7, cr1, [r4]
    1850:	0c460000 	mareq	acc0, r0, r6
    1854:	085f0000 	ldmdaeq	pc, {}^	; <UNPREDICTABLE>
    1858:	01180000 	tsteq	r8, r0
    185c:	f8030550 			; <UNDEFINED> instruction: 0xf8030550
    1860:	18000095 	stmdane	r0, {r0, r2, r4, r7}
    1864:	03055101 	movweq	r5, #20737	; 0x5101
    1868:	00009518 	andeq	r9, r0, r8, lsl r5
    186c:	05520118 	ldrbeq	r0, [r2, #-280]	; 0xfffffee8
    1870:	00968803 	addseq	r8, r6, r3, lsl #16
    1874:	53011800 	movwpl	r1, #6144	; 0x1800
    1878:	00be0802 	adcseq	r0, lr, r2, lsl #16
    187c:	008de819 	addeq	lr, sp, r9, lsl r8
    1880:	000c7600 	andeq	r7, ip, r0, lsl #12
    1884:	08000000 	stmdaeq	r0, {}	; <UNPREDICTABLE>
    1888:	0000b904 	andeq	fp, r0, r4, lsl #18
    188c:	00c02200 	sbceq	r2, r0, r0, lsl #4
    1890:	08800000 	stmeq	r0, {}	; <UNPREDICTABLE>
    1894:	2c230000 	stccs	0, cr0, [r3], #-0
    1898:	09000000 	stmdbeq	r0, {}	; <UNPREDICTABLE>
    189c:	08700900 	ldmdaeq	r0!, {r8, fp}^
    18a0:	b9220000 	stmdblt	r2!, {}	; <UNPREDICTABLE>
    18a4:	95000000 	strls	r0, [r0, #-0]
    18a8:	23000008 	movwcs	r0, #8
    18ac:	0000002c 	andeq	r0, r0, ip, lsr #32
    18b0:	0b24007f 	bleq	901ab4 <__bss_end__+0x8f800c>
    18b4:	01000005 	tsteq	r0, r5
    18b8:	086a0149 	stmdaeq	sl!, {r0, r3, r6, r8}^
    18bc:	2a010000 	bcs	418c4 <__bss_end__+0x37e1c>
    18c0:	25000009 	strcs	r0, [r0, #-9]
    18c4:	00000550 	andeq	r0, r0, r0, asr r5
    18c8:	2c0f4901 			; <UNDEFINED> instruction: 0x2c0f4901
    18cc:	26000000 	strcs	r0, [r0], -r0
    18d0:	00747364 	rsbseq	r7, r4, r4, ror #6
    18d4:	6a1b4901 	bvs	6d3ce0 <__bss_end__+0x6ca238>
    18d8:	26000008 	strcs	r0, [r0], -r8
    18dc:	4901006e 	stmdbmi	r1, {r1, r2, r3, r5, r6}
    18e0:	00003324 	andeq	r3, r0, r4, lsr #6
    18e4:	61762600 	cmnvs	r6, r0, lsl #12
    18e8:	4901006c 	stmdbmi	r1, {r2, r3, r5, r6}
    18ec:	0000332b 	andeq	r3, r0, fp, lsr #6
    18f0:	049b2500 	ldreq	r2, [fp], #1280	; 0x500
    18f4:	49010000 	stmdbmi	r1, {}	; <UNPREDICTABLE>
    18f8:	00003334 	andeq	r3, r0, r4, lsr r3
    18fc:	05552500 	ldrbeq	r2, [r5, #-1280]	; 0xfffffb00
    1900:	49010000 	stmdbmi	r1, {}	; <UNPREDICTABLE>
    1904:	0000333f 	andeq	r3, r0, pc, lsr r3
    1908:	75622700 	strbvc	r2, [r2, #-1792]!	; 0xfffff900
    190c:	4e010066 	cdpmi	0, 0, cr0, cr1, cr6, {3}
    1910:	00092a07 	andeq	r2, r9, r7, lsl #20
    1914:	00702700 	rsbseq	r2, r0, r0, lsl #14
    1918:	6a114e01 	bvs	455124 <__bss_end__+0x44b67c>
    191c:	27000008 	strcs	r0, [r0, -r8]
    1920:	4f010075 	svcmi	0x00010075
    1924:	00002c0b 	andeq	r2, r0, fp, lsl #24
    1928:	00c01200 	sbceq	r1, r0, r0, lsl #4
    192c:	094a0000 	stmdbeq	sl, {}^	; <UNPREDICTABLE>
    1930:	03050000 	movweq	r0, #20480	; 0x5000
    1934:	00009670 	andeq	r9, r0, r0, ror r6
    1938:	04f82928 	ldrbteq	r2, [r8], #2344	; 0x928
    193c:	54010000 	strpl	r0, [r1], #-0
    1940:	00002c0d 	andeq	r2, r0, sp, lsl #24
    1944:	22000000 	andcs	r0, r0, #0, 0
    1948:	000000b9 	strheq	r0, [r0], -r9
    194c:	0000093a 	andeq	r0, r0, sl, lsr r9
    1950:	00002c23 	andeq	r2, r0, r3, lsr #24
    1954:	22003f00 	andcs	r3, r0, #0, 30
    1958:	000000c0 	andeq	r0, r0, r0, asr #1
    195c:	0000094a 	andeq	r0, r0, sl, asr #18
    1960:	00002c23 	andeq	r2, r0, r3, lsr #24
    1964:	09000400 	stmdbeq	r0, {sl}
    1968:	0000093a 	andeq	r0, r0, sl, lsr r9
    196c:	00051024 	andeq	r1, r5, r4, lsr #32
    1970:	0e380100 	rsfeqe	f0, f0, f0
    1974:	0000086a 	andeq	r0, r0, sl, ror #16
    1978:	0009a301 	andeq	sl, r9, r1, lsl #6
    197c:	73642600 	cmnvc	r4, #0, 12
    1980:	38010074 	stmdacc	r1, {r2, r4, r5, r6}
    1984:	00086a1c 	andeq	r6, r8, ip, lsl sl
    1988:	006e2600 	rsbeq	r2, lr, r0, lsl #12
    198c:	33253801 			; <UNDEFINED> instruction: 0x33253801
    1990:	26000000 	strcs	r0, [r0], -r0
    1994:	38010070 	stmdacc	r1, {r4, r5, r6}
    1998:	00086a2e 	andeq	r6, r8, lr, lsr #20
    199c:	04e42500 	strbteq	r2, [r4], #1280	; 0x500
    19a0:	38010000 	stmdacc	r1, {}	; <UNPREDICTABLE>
    19a4:	00086a37 	andeq	r6, r8, r7, lsr sl
    19a8:	656c2700 	strbvs	r2, [ip, #-1792]!	; 0xfffff900
    19ac:	3a01006e 	bcc	41b6c <__bss_end__+0x380c4>
    19b0:	00003306 	andeq	r3, r0, r6, lsl #6
    19b4:	00732700 	rsbseq	r2, r3, r0, lsl #14
    19b8:	6a083e01 	bvs	2111c4 <__bss_end__+0x20771c>
    19bc:	00000008 	andeq	r0, r0, r8
    19c0:	6461702a 	strbtvs	r7, [r1], #-42	; 0xffffffd6
    19c4:	0e2e0100 	sufeqe	f0, f6, f0
    19c8:	0000086a 	andeq	r0, r0, sl, ror #16
    19cc:	0009e301 	andeq	lr, r9, r1, lsl #6
    19d0:	00702600 	rsbseq	r2, r0, r0, lsl #12
    19d4:	6a182e01 	bvs	60d1e0 <__bss_end__+0x603738>
    19d8:	25000008 	strcs	r0, [r0, #-8]
    19dc:	00000550 	andeq	r0, r0, r0, asr r5
    19e0:	6a222e01 	bvs	88d1ec <__bss_end__+0x883744>
    19e4:	25000008 	strcs	r0, [r0, #-8]
    19e8:	0000049b 	muleq	r0, fp, r4
    19ec:	332c2e01 			; <UNDEFINED> instruction: 0x332c2e01
    19f0:	27000000 	strcs	r0, [r0, -r0]
    19f4:	006e656c 	rsbeq	r6, lr, ip, ror #10
    19f8:	33062f01 	movwcc	r2, #28417	; 0x6f01
    19fc:	00000000 	andeq	r0, r0, r0
    1a00:	00045a24 	andeq	r5, r4, r4, lsr #20
    1a04:	0c270100 	stfeqs	f0, [r7], #-0
    1a08:	00000033 	andeq	r0, r0, r3, lsr r0
    1a0c:	0009ff01 	andeq	pc, r9, r1, lsl #30
    1a10:	00632600 	rsbeq	r2, r3, r0, lsl #12
    1a14:	33182701 	tstcc	r8, #262144	; 0x40000
    1a18:	00000000 	andeq	r0, r0, r0
    1a1c:	0004d12b 	andeq	sp, r4, fp, lsr #2
    1a20:	061f0100 	ldreq	r0, [pc], -r0, lsl #2
    1a24:	00008800 	andeq	r8, r0, r0, lsl #16
    1a28:	00000060 	andeq	r0, r0, r0, rrx
    1a2c:	0a8f9c01 	beq	fe3e8a38 <__bss_end__+0xfe3def90>
    1a30:	ae0f0000 	cdpge	0, 0, cr0, cr15, cr0, {0}
    1a34:	01000004 	tsteq	r0, r4
    1a38:	009e1b1f 	addseq	r1, lr, pc, lsl fp
    1a3c:	14670000 	strbtne	r0, [r7], #-0
    1a40:	14630000 	strbtne	r0, [r3], #-0
    1a44:	1f0f0000 	svcne	0x000f0000
    1a48:	01000005 	tsteq	r0, r5
    1a4c:	00d1301f 	sbcseq	r3, r1, pc, lsl r0
    1a50:	148c0000 	strne	r0, [ip], #0
    1a54:	14880000 	strne	r0, [r8], #0
    1a58:	c0120000 	andsgt	r0, r2, r0
    1a5c:	9f000000 	svcls	0x00000000
    1a60:	0500000a 	streq	r0, [r0, #-10]
    1a64:	00967803 	addseq	r7, r6, r3, lsl #16
    1a68:	88441700 	stmdahi	r4, {r8, r9, sl, ip}^
    1a6c:	0c460000 	mareq	acc0, r0, r6
    1a70:	0a850000 	beq	fe141a78 <__bss_end__+0xfe137fd0>
    1a74:	01180000 	tsteq	r8, r0
    1a78:	2c030550 	cfstr32cs	mvfx0, [r3], {80}	; 0x50
    1a7c:	18000095 	stmdane	r0, {r0, r2, r4, r7}
    1a80:	03055101 	movweq	r5, #20737	; 0x5101
    1a84:	00009518 	andeq	r9, r0, r8, lsl r5
    1a88:	05520118 	ldrbeq	r0, [r2, #-280]	; 0xfffffee8
    1a8c:	00967803 	addseq	r7, r6, r3, lsl #16
    1a90:	53011800 	movwpl	r1, #6144	; 0x1800
    1a94:	18200802 	stmdane	r0!, {r1, fp}
    1a98:	05007d02 	streq	r7, [r0, #-3330]	; 0xfffff2fe
    1a9c:	00956803 	addseq	r6, r5, r3, lsl #16
    1aa0:	48190000 	ldmdami	r9, {}	; <UNPREDICTABLE>
    1aa4:	76000088 	strvc	r0, [r0], -r8, lsl #1
    1aa8:	0000000c 	andeq	r0, r0, ip
    1aac:	0000c022 	andeq	ip, r0, r2, lsr #32
    1ab0:	000a9f00 	andeq	r9, sl, r0, lsl #30
    1ab4:	002c2300 	eoreq	r2, ip, r0, lsl #6
    1ab8:	000e0000 	andeq	r0, lr, r0
    1abc:	000a8f09 	andeq	r8, sl, r9, lsl #30
    1ac0:	08952c00 	ldmeq	r5, {sl, fp, sp}
    1ac4:	84d80000 	ldrbhi	r0, [r8], #0
    1ac8:	03280000 			; <UNDEFINED> instruction: 0x03280000
    1acc:	9c010000 	stcls	0, cr0, [r1], {-0}
    1ad0:	00000c3a 	andeq	r0, r0, sl, lsr ip
    1ad4:	0008a61b 	andeq	sl, r8, fp, lsl r6
    1ad8:	0014c500 	andseq	ip, r4, r0, lsl #10
    1adc:	0014ad00 	andseq	sl, r4, r0, lsl #26
    1ae0:	08b21b00 	ldmeq	r2!, {r8, r9, fp, ip}
    1ae4:	156f0000 	strbne	r0, [pc, #-0]!	; 1aec <__code_start__-0x6514>
    1ae8:	15670000 	strbne	r0, [r7, #-0]!
    1aec:	c81b0000 	ldmdagt	fp, {}	; <UNPREDICTABLE>
    1af0:	c6000008 	strgt	r0, [r0], -r8
    1af4:	a6000015 			; <UNDEFINED> instruction: 0xa6000015
    1af8:	1b000015 	blne	1b54 <__code_start__-0x64ac>
    1afc:	000008d4 	ldrdeq	r0, [r0], -r4
    1b00:	0000169c 	muleq	r0, ip, r6
    1b04:	0000168e 	andeq	r1, r0, lr, lsl #13
    1b08:	0008e02d 	andeq	lr, r8, sp, lsr #32
    1b0c:	00910200 	addseq	r0, r1, r0, lsl #4
    1b10:	0008ec1d 	andeq	lr, r8, sp, lsl ip
    1b14:	a8910300 	ldmge	r1, {r8, r9}
    1b18:	08f81e7f 	ldmeq	r8!, {r0, r1, r2, r3, r4, r5, r6, r9, sl, fp, ip}^
    1b1c:	17300000 	ldrne	r0, [r0, -r0]!
    1b20:	16fc0000 	ldrbtne	r0, [ip], r0
    1b24:	021e0000 	andseq	r0, lr, #0, 0
    1b28:	97000009 	strls	r0, [r0, -r9]
    1b2c:	75000018 	strvc	r0, [r0, #-24]	; 0xffffffe8
    1b30:	2e000018 	mcrcs	0, 0, r0, cr0, cr8, {0}
    1b34:	000008be 			; <UNDEFINED> instruction: 0x000008be
    1b38:	09a31a80 	stmibeq	r3!, {r7, r9, fp, ip}
    1b3c:	857c0000 	ldrbhi	r0, [ip, #-0]!
    1b40:	00040000 	andeq	r0, r4, r0
    1b44:	00000180 	andeq	r0, r0, r0, lsl #3
    1b48:	6d097c01 	stcvs	12, cr7, [r9, #-4]
    1b4c:	1b00000b 	blne	1b80 <__code_start__-0x6480>
    1b50:	000009ca 	andeq	r0, r0, sl, asr #19
    1b54:	0000197f 	andeq	r1, r0, pc, ror r9
    1b58:	00001975 	andeq	r1, r0, r5, ror r9
    1b5c:	0009be1b 	andeq	fp, r9, fp, lsl lr
    1b60:	0019d300 	andseq	sp, r9, r0, lsl #6
    1b64:	0019c300 	andseq	ip, r9, r0, lsl #6
    1b68:	09b41b00 	ldmibeq	r4!, {r8, r9, fp, ip}
    1b6c:	1a530000 	bne	14c1b74 <__bss_end__+0x14b80cc>
    1b70:	1a3f0000 	bne	fc1b78 <__bss_end__+0xfb80d0>
    1b74:	80130000 	andshi	r0, r3, r0
    1b78:	1e000001 	cdpne	0, 0, cr0, cr0, cr1, {0}
    1b7c:	000009d6 	ldrdeq	r0, [r0], -r6
    1b80:	00001ae5 	andeq	r1, r0, r5, ror #21
    1b84:	00001ad5 	ldrdeq	r1, [r0], -r5
    1b88:	4f1a0000 	svcmi	0x001a0000
    1b8c:	34000009 	strcc	r0, [r0], #-9
    1b90:	02000086 	andeq	r0, r0, #134, 0	; 0x86
    1b94:	0001c800 	andeq	ip, r1, r0, lsl #16
    1b98:	097c0100 	ldmdbeq	ip!, {r8}^
    1b9c:	00000bd8 	ldrdeq	r0, [r0], -r8
    1ba0:	0009801b 	andeq	r8, r9, fp, lsl r0
    1ba4:	001b5100 	andseq	r5, fp, r0, lsl #2
    1ba8:	001b4900 	andseq	r4, fp, r0, lsl #18
    1bac:	09761b00 	ldmdbeq	r6!, {r8, r9, fp, ip}^
    1bb0:	1b900000 	blne	fe401bb8 <__bss_end__+0xfe3f8110>
    1bb4:	1b880000 	blne	fe201bbc <__bss_end__+0xfe1f8114>
    1bb8:	6c1b0000 	ldcvs	0, cr0, [fp], {-0}
    1bbc:	cf000009 	svcgt	0x00000009
    1bc0:	cb00001b 	blgt	1c34 <__code_start__-0x63cc>
    1bc4:	1b00001b 	blne	1c38 <__code_start__-0x63c8>
    1bc8:	00000960 	andeq	r0, r0, r0, ror #18
    1bcc:	00001bff 	strdeq	r1, [r0], -pc	; <UNPREDICTABLE>
    1bd0:	00001bf1 	strdeq	r1, [r0], -r1	; <UNPREDICTABLE>
    1bd4:	0001c813 	andeq	ip, r1, r3, lsl r8
    1bd8:	098c1e00 	stmibeq	ip, {r9, sl, fp, ip}
    1bdc:	1c640000 	stclne	0, cr0, [r4], #-0
    1be0:	1c5e0000 	mrane	r0, lr, acc0
    1be4:	981e0000 	ldmdals	lr, {}	; <UNPREDICTABLE>
    1be8:	96000009 	strls	r0, [r0], -r9
    1bec:	9200001c 	andls	r0, r0, #28, 0
    1bf0:	0000001c 	andeq	r0, r0, ip, lsl r0
    1bf4:	091b2f00 	ldmdbeq	fp, {r8, r9, sl, fp, sp}
    1bf8:	86ec0000 	strbthi	r0, [ip], r0
    1bfc:	00600000 	rsbeq	r0, r0, r0
    1c00:	0bf70000 	bleq	ffdc1c08 <__bss_end__+0xffdb8160>
    1c04:	1c1e0000 	ldcne	0, cr0, [lr], {-0}
    1c08:	b8000009 	stmdalt	r0, {r0, r3}
    1c0c:	b400001c 	strlt	r0, [r0], #-28	; 0xffffffe4
    1c10:	0000001c 	andeq	r0, r0, ip, lsl r0
    1c14:	0087c017 	addeq	ip, r7, r7, lsl r0
    1c18:	000c4600 	andeq	r4, ip, r0, lsl #12
    1c1c:	000c3000 	andeq	r3, ip, r0
    1c20:	50011800 	andpl	r1, r1, r0, lsl #16
    1c24:	952c0305 	strls	r0, [ip, #-773]!	; 0xfffffcfb
    1c28:	01180000 	tsteq	r8, r0
    1c2c:	18030551 	stmdane	r3, {r0, r4, r6, r8, sl}
    1c30:	18000095 	stmdane	r0, {r0, r2, r4, r7}
    1c34:	03055201 	movweq	r5, #20993	; 0x5201
    1c38:	00009670 	andeq	r9, r0, r0, ror r6
    1c3c:	02530118 	subseq	r0, r3, #6
    1c40:	02187908 	andseq	r7, r8, #8, 18	; 0x20000
    1c44:	0305007d 	movweq	r0, #20605	; 0x507d
    1c48:	00009540 	andeq	r9, r0, r0, asr #10
    1c4c:	87c41900 	strbhi	r1, [r4, r0, lsl #18]
    1c50:	0c760000 	ldcleq	0, cr0, [r6], #-0
    1c54:	30000000 	andcc	r0, r0, r0
    1c58:	00000548 	andeq	r0, r0, r8, asr #10
    1c5c:	00000548 	andeq	r0, r0, r8, asr #10
    1c60:	3005eb03 	andcc	lr, r5, r3, lsl #22
    1c64:	00000409 	andeq	r0, r0, r9, lsl #8
    1c68:	00000409 	andeq	r0, r0, r9, lsl #8
    1c6c:	30062803 	andcc	r2, r6, r3, lsl #16
    1c70:	000004ea 	andeq	r0, r0, sl, ror #9
    1c74:	000004ea 	andeq	r0, r0, sl, ror #9
    1c78:	3007ee03 	andcc	lr, r7, r3, lsl #28
    1c7c:	00000518 	andeq	r0, r0, r8, lsl r5
    1c80:	00000518 	andeq	r0, r0, r8, lsl r5
    1c84:	3005ea03 	andcc	lr, r5, r3, lsl #20
    1c88:	000004f1 	strdeq	r0, [r0], -r1
    1c8c:	000004f1 	strdeq	r0, [r0], -r1
    1c90:	3007ed03 	andcc	lr, r7, r3, lsl #26
    1c94:	00000062 	andeq	r0, r0, r2, rrx
    1c98:	00000062 	andeq	r0, r0, r2, rrx
    1c9c:	00066e03 	andeq	r6, r6, r3, lsl #28
    1ca0:	0000010a 	andeq	r0, r0, sl, lsl #2
    1ca4:	09540004 	ldmdbeq	r4, {r2}^
    1ca8:	01040000 	mrseq	r0, (UNDEF: 4)
    1cac:	00000144 	andeq	r0, r0, r4, asr #2
    1cb0:	00056c0c 	andeq	r6, r5, ip, lsl #24
    1cb4:	0003ac00 	andeq	sl, r3, r0, lsl #24
    1cb8:	00035800 	andeq	r5, r3, r0, lsl #16
    1cbc:	00000000 	andeq	r0, r0, r0
    1cc0:	0010eb00 	andseq	lr, r0, r0, lsl #22
    1cc4:	05040200 	streq	r0, [r4, #-512]	; 0xfffffe00
    1cc8:	00746e69 	rsbseq	r6, r4, r9, ror #28
    1ccc:	08070403 	stmdaeq	r7, {r0, r1, sl}
    1cd0:	03000001 	movweq	r0, #1
    1cd4:	00ea0601 	rsceq	r0, sl, r1, lsl #12
    1cd8:	02030000 	andeq	r0, r3, #0, 0
    1cdc:	00003f05 	andeq	r3, r0, r5, lsl #30
    1ce0:	05040300 	streq	r0, [r4, #-768]	; 0xfffffd00
    1ce4:	000000a2 	andeq	r0, r0, r2, lsr #1
    1ce8:	9d050803 	stcls	8, cr0, [r5, #-12]
    1cec:	03000000 	movweq	r0, #0
    1cf0:	00e80801 	rsceq	r0, r8, r1, lsl #16
    1cf4:	02030000 	andeq	r0, r3, #0, 0
    1cf8:	00012607 	andeq	r2, r1, r7, lsl #12
    1cfc:	07040300 	streq	r0, [r4, -r0, lsl #6]
    1d00:	00000103 	andeq	r0, r0, r3, lsl #2
    1d04:	fe070803 	vcmla.f16	d0, d7, d3[0], #0
    1d08:	04000000 	streq	r0, [r0], #-0
    1d0c:	00000025 	andeq	r0, r0, r5, lsr #32
    1d10:	0000007a 	andeq	r0, r0, sl, ror r0
    1d14:	00002505 	andeq	r2, r0, r5, lsl #10
    1d18:	4e060000 	cdpmi	0, 0, cr0, cr6, cr0, {0}
    1d1c:	02000000 	andeq	r0, r0, #0, 0
    1d20:	00860e1c 	addeq	r0, r6, ip, lsl lr
    1d24:	04070000 	streq	r0, [r7], #-0
    1d28:	0000006b 	andeq	r0, r0, fp, rrx
    1d2c:	00002504 	andeq	r2, r0, r4, lsl #10
    1d30:	00009b00 	andeq	r9, r0, r0, lsl #22
    1d34:	009b0500 	addseq	r0, fp, r0, lsl #10
    1d38:	07000000 	streq	r0, [r0, -r0]
    1d3c:	0000a804 	andeq	sl, r0, r4, lsl #16
    1d40:	08010300 	stmdaeq	r1, {r8, r9}
    1d44:	000000f1 	strdeq	r0, [r0], -r1
    1d48:	0000a108 	andeq	sl, r0, r8, lsl #2
    1d4c:	04470600 	strbeq	r0, [r7], #-1536	; 0xfffffa00
    1d50:	21020000 	mrscs	r0, (UNDEF: 2)
    1d54:	0000b90e 	andeq	fp, r0, lr, lsl #18
    1d58:	8c040700 	stchi	7, cr0, [r4], {-0}
    1d5c:	09000000 	stmdbeq	r0, {}	; <UNPREDICTABLE>
    1d60:	0000055e 	andeq	r0, r0, lr, asr r5
    1d64:	9c060c01 	stcls	12, cr0, [r6], {1}
    1d68:	1000008e 	andne	r0, r0, lr, lsl #1
    1d6c:	01000000 	mrseq	r0, (UNDEF: 0)
    1d70:	0000e89c 	muleq	r0, ip, r8
    1d74:	00720a00 	rsbseq	r0, r2, r0, lsl #20
    1d78:	2c0e0d01 	stccs	13, cr0, [lr], {1}
    1d7c:	e0000000 	and	r0, r0, r0
    1d80:	d800001c 	stmdale	r0, {r2, r3, r4}
    1d84:	0000001c 	andeq	r0, r0, ip, lsl r0
    1d88:	0000d20b 	andeq	sp, r0, fp, lsl #4
    1d8c:	06030100 	streq	r0, [r3], -r0, lsl #2
    1d90:	00008e8c 	andeq	r8, r0, ip, lsl #29
    1d94:	00000010 	andeq	r0, r0, r0, lsl r0
    1d98:	720a9c01 	andvc	r9, sl, #256	; 0x100
    1d9c:	0e040100 	adfeqs	f0, f4, f0
    1da0:	0000002c 	andeq	r0, r0, ip, lsr #32
    1da4:	00001d28 	andeq	r1, r0, r8, lsr #26
    1da8:	00001d20 	andeq	r1, r0, r0, lsr #26
    1dac:	012f0000 			; <UNDEFINED> instruction: 0x012f0000
    1db0:	00040000 	andeq	r0, r4, r0
    1db4:	000009fd 	strdeq	r0, [r0], -sp
    1db8:	01440104 	cmpeq	r4, r4, lsl #2
    1dbc:	940c0000 	strls	r0, [ip], #-0
    1dc0:	ac000005 	stcge	0, cr0, [r0], {5}
    1dc4:	ac000003 	stcge	0, cr0, [r0], {3}
    1dc8:	2c00008e 	stccs	0, cr0, [r0], {142}	; 0x8e
    1dcc:	8f000000 	svchi	0x00000000
    1dd0:	02000011 	andeq	r0, r0, #17, 0
    1dd4:	6e690504 	cdpvs	5, 6, cr0, cr9, cr4, {0}
    1dd8:	04030074 	streq	r0, [r3], #-116	; 0xffffff8c
    1ddc:	00010807 	andeq	r0, r1, r7, lsl #16
    1de0:	06010300 	streq	r0, [r1], -r0, lsl #6
    1de4:	000000ea 	andeq	r0, r0, sl, ror #1
    1de8:	3f050203 	svccc	0x00050203
    1dec:	03000000 	movweq	r0, #0
    1df0:	00a20504 	adceq	r0, r2, r4, lsl #10
    1df4:	08030000 	stmdaeq	r3, {}	; <UNPREDICTABLE>
    1df8:	00009d05 	andeq	r9, r0, r5, lsl #26
    1dfc:	08010300 	stmdaeq	r1, {r8, r9}
    1e00:	000000e8 	andeq	r0, r0, r8, ror #1
    1e04:	26070203 	strcs	r0, [r7], -r3, lsl #4
    1e08:	03000001 	movweq	r0, #1
    1e0c:	01030704 	tsteq	r3, r4, lsl #14
    1e10:	08030000 	stmdaeq	r3, {}	; <UNPREDICTABLE>
    1e14:	0000fe07 	andeq	pc, r0, r7, lsl #28
    1e18:	00250400 	eoreq	r0, r5, r0, lsl #8
    1e1c:	007a0000 	rsbseq	r0, sl, r0
    1e20:	25050000 	strcs	r0, [r5, #-0]
    1e24:	00000000 	andeq	r0, r0, r0
    1e28:	00004e06 	andeq	r4, r0, r6, lsl #28
    1e2c:	0e1c0200 	cdpeq	2, 1, cr0, cr12, cr0, {0}
    1e30:	00000086 	andeq	r0, r0, r6, lsl #1
    1e34:	006b0407 	rsbeq	r0, fp, r7, lsl #8
    1e38:	25040000 	strcs	r0, [r4, #-0]
    1e3c:	9b000000 	blls	1e44 <__code_start__-0x61bc>
    1e40:	05000000 	streq	r0, [r0, #-0]
    1e44:	0000009b 	muleq	r0, fp, r0
    1e48:	a8040700 	stmdage	r4, {r8, r9, sl}
    1e4c:	03000000 	movweq	r0, #0
    1e50:	00f10801 	rscseq	r0, r1, r1, lsl #16
    1e54:	a1080000 	mrsge	r0, (UNDEF: 8)
    1e58:	06000000 	streq	r0, [r0], -r0
    1e5c:	00000447 	andeq	r0, r0, r7, asr #8
    1e60:	b90e2102 	stmdblt	lr, {r1, r8, sp}
    1e64:	07000000 	streq	r0, [r0, -r0]
    1e68:	00008c04 	andeq	r8, r0, r4, lsl #24
    1e6c:	00620900 	rsbeq	r0, r2, r0, lsl #18
    1e70:	04010000 	streq	r0, [r1], #-0
    1e74:	008eac06 	addeq	sl, lr, r6, lsl #24
    1e78:	00002c00 	andeq	r2, r0, r0, lsl #24
    1e7c:	0e9c0100 	fmleqe	f0, f4, f0
    1e80:	0a000001 	beq	1e8c <__code_start__-0x6174>
    1e84:	00008ec0 	andeq	r8, r0, r0, asr #29
    1e88:	000000e8 	andeq	r0, r0, r8, ror #1
    1e8c:	0550010b 	ldrbeq	r0, [r0, #-267]	; 0xfffffef5
    1e90:	00969403 	addseq	r9, r6, r3, lsl #8
    1e94:	c40c0000 	strgt	r0, [ip], #-0
    1e98:	0e00008e 	cdpeq	0, 0, cr0, cr0, cr14, {4}
    1e9c:	0d000001 	stceq	0, cr0, [r0, #-4]
    1ea0:	00008ecc 	andeq	r8, r0, ip, asr #29
    1ea4:	0000011a 	andeq	r0, r0, sl, lsl r1
    1ea8:	00000104 	andeq	r0, r0, r4, lsl #2
    1eac:	0150010b 	cmpeq	r0, fp, lsl #2
    1eb0:	d00c003a 	andle	r0, ip, sl, lsr r0
    1eb4:	2600008e 	strcs	r0, [r0], -lr, lsl #1
    1eb8:	00000001 	andeq	r0, r0, r1
    1ebc:	0005af0e 	andeq	sl, r5, lr, lsl #30
    1ec0:	0005af00 	andeq	sl, r5, r0, lsl #30
    1ec4:	064d0200 	strbeq	r0, [sp], -r0, lsl #4
    1ec8:	00058b0e 	andeq	r8, r5, lr, lsl #22
    1ecc:	00058b00 	andeq	r8, r5, r0, lsl #22
    1ed0:	06580200 	ldrbeq	r0, [r8], -r0, lsl #4
    1ed4:	0005800e 	andeq	r8, r5, lr
    1ed8:	00058000 	andeq	r8, r5, r0
    1edc:	066b0200 	strbteq	r0, [fp], -r0, lsl #4
    1ee0:	00019000 	andeq	r9, r1, r0
    1ee4:	bd000400 	cfstrslt	mvf0, [r0, #-0]
    1ee8:	0400000a 	streq	r0, [r0], #-10
    1eec:	00014401 	andeq	r4, r1, r1, lsl #8
    1ef0:	05e50c00 	strbeq	r0, [r5, #3072]!	; 0xc00
    1ef4:	03ac0000 			; <UNDEFINED> instruction: 0x03ac0000
    1ef8:	8ed80000 	cdphi	0, 13, cr0, cr8, cr0, {0}
    1efc:	00f80000 	rscseq	r0, r8, r0
    1f00:	121a0000 	andsne	r0, sl, #0, 0
    1f04:	04020000 	streq	r0, [r2], #-0
    1f08:	746e6905 	strbtvc	r6, [lr], #-2309	; 0xfffff6fb
    1f0c:	07040300 	streq	r0, [r4, -r0, lsl #6]
    1f10:	00000108 	andeq	r0, r0, r8, lsl #2
    1f14:	ea060103 	b	182328 <__bss_end__+0x178880>
    1f18:	03000000 	movweq	r0, #0
    1f1c:	003f0502 	eorseq	r0, pc, r2, lsl #10
    1f20:	04030000 	streq	r0, [r3], #-0
    1f24:	0000a205 	andeq	sl, r0, r5, lsl #4
    1f28:	05080300 	streq	r0, [r8, #-768]	; 0xfffffd00
    1f2c:	0000009d 	muleq	r0, sp, r0
    1f30:	e8080103 	stmda	r8, {r0, r1, r8}
    1f34:	03000000 	movweq	r0, #0
    1f38:	01260702 			; <UNDEFINED> instruction: 0x01260702
    1f3c:	04030000 	streq	r0, [r3], #-0
    1f40:	00010307 	andeq	r0, r1, r7, lsl #6
    1f44:	07080300 	streq	r0, [r8, -r0, lsl #6]
    1f48:	000000fe 	strdeq	r0, [r0], -lr
    1f4c:	00002504 	andeq	r2, r0, r4, lsl #10
    1f50:	00007a00 	andeq	r7, r0, r0, lsl #20
    1f54:	00250500 	eoreq	r0, r5, r0, lsl #10
    1f58:	06000000 	streq	r0, [r0], -r0
    1f5c:	0000004e 	andeq	r0, r0, lr, asr #32
    1f60:	860e1c02 	strhi	r1, [lr], -r2, lsl #24
    1f64:	07000000 	streq	r0, [r0, -r0]
    1f68:	00006b04 	andeq	r6, r0, r4, lsl #22
    1f6c:	00250400 	eoreq	r0, r5, r0, lsl #8
    1f70:	009b0000 	addseq	r0, fp, r0
    1f74:	9b050000 	blls	141f7c <__bss_end__+0x1384d4>
    1f78:	00000000 	andeq	r0, r0, r0
    1f7c:	00a80407 	adceq	r0, r8, r7, lsl #8
    1f80:	01030000 	mrseq	r0, (UNDEF: 3)
    1f84:	0000f108 	andeq	pc, r0, r8, lsl #2
    1f88:	00a10800 	adceq	r0, r1, r0, lsl #16
    1f8c:	47060000 	strmi	r0, [r6, -r0]
    1f90:	02000004 	andeq	r0, r0, #4, 0
    1f94:	00b90e21 	adcseq	r0, r9, r1, lsr #28
    1f98:	04070000 	streq	r0, [r7], #-0
    1f9c:	0000008c 	andeq	r0, r0, ip, lsl #1
    1fa0:	0005bd09 	andeq	fp, r5, r9, lsl #26
    1fa4:	06040100 	streq	r0, [r4], -r0, lsl #2
    1fa8:	00008ed8 	ldrdeq	r8, [r0], -r8	; <UNPREDICTABLE>
    1fac:	000000f8 	strdeq	r0, [r0], -r8
    1fb0:	015b9c01 	cmpeq	fp, r1, lsl #24
    1fb4:	8d060000 	stchi	0, cr0, [r6, #-0]
    1fb8:	01000004 	tsteq	r0, r4
    1fbc:	00251005 	eoreq	r1, r5, r5
    1fc0:	b6060000 	strlt	r0, [r6], -r0
    1fc4:	01000004 	tsteq	r0, r4
    1fc8:	00251f05 	eoreq	r1, r5, r5, lsl #30
    1fcc:	1e0a0000 	cdpne	0, 0, cr0, cr10, cr0, {0}
    1fd0:	01000001 	tsteq	r0, r1
    1fd4:	620b0706 	andvs	r0, fp, #1572864	; 0x180000
    1fd8:	01007373 	tsteq	r0, r3, ror r3
    1fdc:	015b0a0a 	cmpeq	fp, sl, lsl #20
    1fe0:	1d800000 	stcne	0, cr0, [r0]
    1fe4:	1d680000 	stclne	0, cr0, [r8, #-0]
    1fe8:	c50c0000 	strgt	r0, [ip, #-0]
    1fec:	01000005 	tsteq	r0, r5
    1ff0:	015b0a0b 	cmpeq	fp, fp, lsl #20
    1ff4:	b00d0000 	andlt	r0, sp, r0
    1ff8:	0800008f 	stmdaeq	r0, {r0, r1, r2, r3, r7}
    1ffc:	36000000 	strcc	r0, [r0], -r0
    2000:	0b000001 	bleq	200c <__code_start__-0x5ff4>
    2004:	01006e69 	tsteq	r0, r9, ror #28
    2008:	002c0514 	eoreq	r0, ip, r4, lsl r5
    200c:	1e1a0000 	cdpne	0, 1, cr0, cr10, cr0, {0}
    2010:	1e180000 	cdpne	0, 1, cr0, cr8, cr0, {0}
    2014:	0e000000 	cdpeq	0, 0, cr0, cr0, cr0, {0}
    2018:	00008ee0 	andeq	r8, r0, r0, ror #29
    201c:	00000161 	andeq	r0, r0, r1, ror #2
    2020:	008fb00e 	addeq	fp, pc, lr
    2024:	00016e00 	andeq	r6, r1, r0, lsl #28
    2028:	8fbc0e00 	svchi	0x00bc0e00
    202c:	017a0000 	cmneq	sl, r0
    2030:	c00e0000 	andgt	r0, lr, r0
    2034:	8700008f 	strhi	r0, [r0, -pc, lsl #1]
    2038:	00000001 	andeq	r0, r0, r1
    203c:	00250407 	eoreq	r0, r5, r7, lsl #8
    2040:	d70f0000 	strle	r0, [pc, -r0]
    2044:	d7000005 	strle	r0, [r0, -r5]
    2048:	02000005 	andeq	r0, r0, #5, 0
    204c:	10060131 	andne	r0, r6, r1, lsr r1
    2050:	000005cd 	andeq	r0, r0, sp, asr #11
    2054:	000005cd 	andeq	r0, r0, sp, asr #11
    2058:	0f063b02 	svceq	0x00063b02
    205c:	0000011e 	andeq	r0, r0, lr, lsl r1
    2060:	0000011e 	andeq	r0, r0, lr, lsl r1
    2064:	06010502 	streq	r0, [r1], -r2, lsl #10
    2068:	00006210 	andeq	r6, r0, r0, lsl r2
    206c:	00006200 	andeq	r6, r0, r0, lsl #4
    2070:	066e0200 	strbteq	r0, [lr], -r0, lsl #4
    2074:	0000ce00 	andeq	ip, r0, r0, lsl #28
    2078:	a8000400 	stmdage	r0, {sl}
    207c:	0400000b 	streq	r0, [r0], #-11
    2080:	00014401 	andeq	r4, r1, r1, lsl #8
    2084:	05fa0c00 	ldrbeq	r0, [sl, #3072]!	; 0xc00
    2088:	03ac0000 			; <UNDEFINED> instruction: 0x03ac0000
    208c:	8fd00000 	svchi	0x00d00000
    2090:	00040000 	andeq	r0, r4, r0
    2094:	13300000 	teqne	r0, #0, 0
    2098:	04020000 	streq	r0, [r2], #-0
    209c:	746e6905 	strbtvc	r6, [lr], #-2309	; 0xfffff6fb
    20a0:	07040300 	streq	r0, [r4, -r0, lsl #6]
    20a4:	00000108 	andeq	r0, r0, r8, lsl #2
    20a8:	ea060103 	b	1824bc <__bss_end__+0x178a14>
    20ac:	03000000 	movweq	r0, #0
    20b0:	003f0502 	eorseq	r0, pc, r2, lsl #10
    20b4:	04030000 	streq	r0, [r3], #-0
    20b8:	0000a205 	andeq	sl, r0, r5, lsl #4
    20bc:	05080300 	streq	r0, [r8, #-768]	; 0xfffffd00
    20c0:	0000009d 	muleq	r0, sp, r0
    20c4:	e8080103 	stmda	r8, {r0, r1, r8}
    20c8:	03000000 	movweq	r0, #0
    20cc:	01260702 			; <UNDEFINED> instruction: 0x01260702
    20d0:	04030000 	streq	r0, [r3], #-0
    20d4:	00010307 	andeq	r0, r1, r7, lsl #6
    20d8:	07080300 	streq	r0, [r8, -r0, lsl #6]
    20dc:	000000fe 	strdeq	r0, [r0], -lr
    20e0:	00002504 	andeq	r2, r0, r4, lsl #10
    20e4:	00007a00 	andeq	r7, r0, r0, lsl #20
    20e8:	00250500 	eoreq	r0, r5, r0, lsl #10
    20ec:	06000000 	streq	r0, [r0], -r0
    20f0:	0000004e 	andeq	r0, r0, lr, asr #32
    20f4:	860e1c02 	strhi	r1, [lr], -r2, lsl #24
    20f8:	07000000 	streq	r0, [r0, -r0]
    20fc:	00006b04 	andeq	r6, r0, r4, lsl #22
    2100:	00250400 	eoreq	r0, r5, r0, lsl #8
    2104:	009b0000 	addseq	r0, fp, r0
    2108:	9b050000 	blls	142110 <__bss_end__+0x138668>
    210c:	00000000 	andeq	r0, r0, r0
    2110:	00a80407 	adceq	r0, r8, r7, lsl #8
    2114:	01030000 	mrseq	r0, (UNDEF: 3)
    2118:	0000f108 	andeq	pc, r0, r8, lsl #2
    211c:	00a10800 	adceq	r0, r1, r0, lsl #16
    2120:	47060000 	strmi	r0, [r6, -r0]
    2124:	02000004 	andeq	r0, r0, #4, 0
    2128:	00b90e21 	adcseq	r0, r9, r1, lsr #28
    212c:	04070000 	streq	r0, [r7], #-0
    2130:	0000008c 	andeq	r0, r0, ip, lsl #1
    2134:	0005d709 	andeq	sp, r5, r9, lsl #14
    2138:	06040100 	streq	r0, [r4], -r0, lsl #2
    213c:	00008fd0 	ldrdeq	r8, [r0], -r0
    2140:	00000004 	andeq	r0, r0, r4
    2144:	7d009c01 	stcvc	12, cr9, [r0, #-4]
    2148:	04000002 	streq	r0, [r0], #-2
    214c:	000c2100 	andeq	r2, ip, r0, lsl #2
    2150:	44010400 	strmi	r0, [r1], #-1024	; 0xfffffc00
    2154:	0c000001 	stceq	0, cr0, [r0], {1}
    2158:	0000063c 	andeq	r0, r0, ip, lsr r6
    215c:	000003ac 	andeq	r0, r0, ip, lsr #7
    2160:	00000380 	andeq	r0, r0, r0, lsl #7
    2164:	00000000 	andeq	r0, r0, r0
    2168:	000013b1 			; <UNDEFINED> instruction: 0x000013b1
    216c:	69050402 	stmdbvs	r5, {r1, sl}
    2170:	0300746e 	movweq	r7, #1134	; 0x46e
    2174:	00000025 	andeq	r0, r0, r5, lsr #32
    2178:	08070404 	stmdaeq	r7, {r2, sl}
    217c:	04000001 	streq	r0, [r0], #-1
    2180:	00ea0601 	rsceq	r0, sl, r1, lsl #12
    2184:	02040000 	andeq	r0, r4, #0, 0
    2188:	00003f05 	andeq	r3, r0, r5, lsl #30
    218c:	05040400 	streq	r0, [r4, #-1024]	; 0xfffffc00
    2190:	000000a2 	andeq	r0, r0, r2, lsr #1
    2194:	9d050804 	stcls	8, cr0, [r5, #-16]
    2198:	04000000 	streq	r0, [r0], #-0
    219c:	00e80801 	rsceq	r0, r8, r1, lsl #16
    21a0:	02040000 	andeq	r0, r4, #0, 0
    21a4:	00012607 	andeq	r2, r1, r7, lsl #12
    21a8:	07040400 	streq	r0, [r4, -r0, lsl #8]
    21ac:	00000103 	andeq	r0, r0, r3, lsl #2
    21b0:	fe070804 	vcmla.f16	d0, d7, d4[0], #0
    21b4:	05000000 	streq	r0, [r0, #-0]
    21b8:	00000025 	andeq	r0, r0, r5, lsr #32
    21bc:	0000007f 	andeq	r0, r0, pc, ror r0
    21c0:	00002506 	andeq	r2, r0, r6, lsl #10
    21c4:	4e070000 	cdpmi	0, 0, cr0, cr7, cr0, {0}
    21c8:	02000000 	andeq	r0, r0, #0, 0
    21cc:	008b0e1c 	addeq	r0, fp, ip, lsl lr
    21d0:	04080000 	streq	r0, [r8], #-0
    21d4:	00000070 	andeq	r0, r0, r0, ror r0
    21d8:	00002505 	andeq	r2, r0, r5, lsl #10
    21dc:	0000a000 	andeq	sl, r0, r0
    21e0:	00a00600 	adceq	r0, r0, r0, lsl #12
    21e4:	08000000 	stmdaeq	r0, {}	; <UNPREDICTABLE>
    21e8:	0000ad04 	andeq	sl, r0, r4, lsl #26
    21ec:	08010400 	stmdaeq	r1, {sl}
    21f0:	000000f1 	strdeq	r0, [r0], -r1
    21f4:	0000a603 	andeq	sl, r0, r3, lsl #12
    21f8:	04470700 	strbeq	r0, [r7], #-1792	; 0xfffff900
    21fc:	21020000 	mrscs	r0, (UNDEF: 2)
    2200:	0000be0e 	andeq	fp, r0, lr, lsl #28
    2204:	91040800 	tstls	r4, r0, lsl #16
    2208:	09000000 	stmdbeq	r0, {}	; <UNPREDICTABLE>
    220c:	00000660 	andeq	r0, r0, r0, ror #12
    2210:	31110d01 	tstcc	r1, r1, lsl #26
    2214:	0a000000 	beq	221c <__code_start__-0x5de4>
    2218:	00000580 	andeq	r0, r0, r0, lsl #11
    221c:	00061f01 	andeq	r1, r6, r1, lsl #30
    2220:	60000090 	mulvs	r0, r0, r0
    2224:	01000000 	mrseq	r0, (UNDEF: 0)
    2228:	0001d59c 	muleq	r1, ip, r5
    222c:	06840b00 	streq	r0, [r4], r0, lsl #22
    2230:	2c010000 	stccs	0, cr0, [r1], {-0}
    2234:	00002c0f 	andeq	r2, r0, pc, lsl #24
    2238:	10001c00 	andne	r1, r0, r0, lsl #24
    223c:	06250b20 	strteq	r0, [r5], -r0, lsr #22
    2240:	2d010000 	stccs	0, cr0, [r1, #-0]
    2244:	00002c0f 	andeq	r2, r0, pc, lsl #24
    2248:	10002400 	andne	r2, r0, r0, lsl #8
    224c:	06510b20 	ldrbeq	r0, [r1], -r0, lsr #22
    2250:	2e010000 	cdpcs	0, 0, cr0, cr1, cr0, {0}
    2254:	00002c0f 	andeq	r2, r0, pc, lsl #24
    2258:	00000000 	andeq	r0, r0, r0
    225c:	066b0c5a 			; <UNDEFINED> instruction: 0x066b0c5a
    2260:	2f010000 	svccs	0x00010000
    2264:	00002c0f 	andeq	r2, r0, pc, lsl #24
    2268:	ef0d2000 	svc	0x000d2000
    226c:	00000001 	andeq	r0, r0, r1
    2270:	02000090 	andeq	r0, r0, #144, 0	; 0x90
    2274:	00000368 	andeq	r0, r0, r8, ror #6
    2278:	4c082001 	stcmi	0, cr2, [r8], {1}
    227c:	0e000001 	cdpeq	0, 0, cr0, cr0, cr1, {0}
    2280:	00000368 	andeq	r0, r0, r8, ror #6
    2284:	0002000f 	andeq	r0, r2, pc
    2288:	001e3200 	andseq	r3, lr, r0, lsl #4
    228c:	001e2e00 	andseq	r2, lr, r0, lsl #28
    2290:	10000000 	andne	r0, r0, r0
    2294:	000001d5 	ldrdeq	r0, [r0], -r5
    2298:	00009014 	andeq	r9, r0, r4, lsl r0
    229c:	00901401 	addseq	r1, r0, r1, lsl #8
    22a0:	00001000 	andeq	r1, r0, r0
    22a4:	09210100 	stmdbeq	r1!, {r8}
    22a8:	00000173 	andeq	r0, r0, r3, ror r1
    22ac:	0001e20f 	andeq	lr, r1, pc, lsl #4
    22b0:	001e5900 	andseq	r5, lr, r0, lsl #18
    22b4:	001e5100 	andseq	r5, lr, r0, lsl #2
    22b8:	28110000 	ldmdacs	r1, {}	; <UNPREDICTABLE>
    22bc:	4f000090 	svcmi	0x00000090
    22c0:	11000002 	tstne	r0, r2
    22c4:	0000902c 	andeq	r9, r0, ip, lsr #32
    22c8:	0000025c 	andeq	r0, r0, ip, asr r2
    22cc:	00903412 	addseq	r3, r0, r2, lsl r4
    22d0:	00026800 	andeq	r6, r2, r0, lsl #16
    22d4:	00019800 	andeq	r9, r1, r0, lsl #16
    22d8:	50011300 	andpl	r1, r1, r0, lsl #6
    22dc:	12003a01 	andne	r3, r0, #4096	; 0x1000
    22e0:	00009040 	andeq	r9, r0, r0, asr #32
    22e4:	00000274 	andeq	r0, r0, r4, ror r2
    22e8:	000001b8 			; <UNDEFINED> instruction: 0x000001b8
    22ec:	05500113 	ldrbeq	r0, [r0, #-275]	; 0xfffffeed
    22f0:	1000240c 	andne	r2, r0, ip, lsl #8
    22f4:	51011320 	tstpl	r1, r0, lsr #6
    22f8:	00010c05 	andeq	r0, r1, r5, lsl #24
    22fc:	14005a00 	strne	r5, [r0], #-2560	; 0xfffff600
    2300:	0000904c 	andeq	r9, r0, ip, asr #32
    2304:	00000274 	andeq	r0, r0, r4, ror r2
    2308:	05500113 	ldrbeq	r0, [r0, #-275]	; 0xfffffeed
    230c:	10001c0c 	andne	r1, r0, ip, lsl #24
    2310:	51011320 	tstpl	r1, r0, lsr #6
    2314:	00200c05 	eoreq	r0, r0, r5, lsl #24
    2318:	00005a00 	andeq	r5, r0, r0, lsl #20
    231c:	00062d15 	andeq	r2, r6, r5, lsl sp
    2320:	06170100 	ldreq	r0, [r7], -r0, lsl #2
    2324:	0001ef01 	andeq	lr, r1, r1, lsl #30
    2328:	068c0900 	streq	r0, [ip], r0, lsl #18
    232c:	18010000 	stmdane	r1, {}	; <UNPREDICTABLE>
    2330:	0000310e 	andeq	r3, r0, lr, lsl #2
    2334:	5d160000 	ldcpl	0, cr0, [r6, #-0]
    2338:	01000006 	tsteq	r0, r6
    233c:	0025050e 	eoreq	r0, r5, lr, lsl #10
    2340:	0d010000 	stceq	0, cr0, [r1, #-0]
    2344:	09000002 	stmdbeq	r0, {r1}
    2348:	0000068c 	andeq	r0, r0, ip, lsl #13
    234c:	310e0f01 	tstcc	lr, r1, lsl #30
    2350:	00000000 	andeq	r0, r0, r0
    2354:	0001ef17 	andeq	lr, r1, r7, lsl pc
    2358:	008fd400 	addeq	sp, pc, r0, lsl #8
    235c:	00001800 	andeq	r1, r0, r0, lsl #16
    2360:	2e9c0100 	fmlcse	f0, f4, f0
    2364:	0f000002 	svceq	0x00000002
    2368:	00000200 	andeq	r0, r0, r0, lsl #4
    236c:	00001e96 	muleq	r0, r6, lr
    2370:	00001e92 	muleq	r0, r2, lr
    2374:	01d51700 	bicseq	r1, r5, r0, lsl #14
    2378:	8fec0000 	svchi	0x00ec0000
    237c:	00140000 	andseq	r0, r4, r0
    2380:	9c010000 	stcls	0, cr0, [r1], {-0}
    2384:	0000024f 	andeq	r0, r0, pc, asr #4
    2388:	0001e20f 	andeq	lr, r1, pc, lsl #4
    238c:	001ebd00 	andseq	fp, lr, r0, lsl #26
    2390:	001eb500 	andseq	fp, lr, r0, lsl #10
    2394:	16180000 	ldrne	r0, [r8], -r0
    2398:	16000006 	strne	r0, [r0], -r6
    239c:	02000006 	andeq	r0, r0, #6, 0
    23a0:	19060136 	stmdbne	r6, {r1, r2, r4, r5, r8}
    23a4:	000005af 	andeq	r0, r0, pc, lsr #11
    23a8:	000005af 	andeq	r0, r0, pc, lsr #11
    23ac:	19064d02 	stmdbne	r6, {r1, r8, sl, fp, lr}
    23b0:	0000058b 	andeq	r0, r0, fp, lsl #11
    23b4:	0000058b 	andeq	r0, r0, fp, lsl #11
    23b8:	19065802 	stmdbne	r6, {r1, fp, ip, lr}
    23bc:	00000301 	andeq	r0, r0, r1, lsl #6
    23c0:	00000301 	andeq	r0, r0, r1, lsl #6
    23c4:	0006ad02 	andeq	sl, r6, r2, lsl #26
    23c8:	0000053f 	andeq	r0, r0, pc, lsr r5
    23cc:	0da40004 	stceq	0, cr0, [r4, #16]!
    23d0:	01040000 	mrseq	r0, (UNDEF: 4)
    23d4:	00000144 	andeq	r0, r0, r4, asr #2
    23d8:	0006a70c 	andeq	sl, r6, ip, lsl #14
    23dc:	0003ac00 	andeq	sl, r3, r0, lsl #24
    23e0:	00906000 	addseq	r6, r0, r0
    23e4:	00011c00 	andeq	r1, r1, r0, lsl #24
    23e8:	0014c900 	andseq	ip, r4, r0, lsl #18
    23ec:	05040200 	streq	r0, [r4, #-512]	; 0xfffffe00
    23f0:	00746e69 	rsbseq	r6, r4, r9, ror #28
    23f4:	08070403 	stmdaeq	r7, {r0, r1, sl}
    23f8:	03000001 	movweq	r0, #1
    23fc:	00ea0601 	rsceq	r0, sl, r1, lsl #12
    2400:	02030000 	andeq	r0, r3, #0, 0
    2404:	00003f05 	andeq	r3, r0, r5, lsl #30
    2408:	05040300 	streq	r0, [r4, #-768]	; 0xfffffd00
    240c:	000000a2 	andeq	r0, r0, r2, lsr #1
    2410:	9d050803 	stcls	8, cr0, [r5, #-12]
    2414:	03000000 	movweq	r0, #0
    2418:	00e80801 	rsceq	r0, r8, r1, lsl #16
    241c:	02030000 	andeq	r0, r3, #0, 0
    2420:	00012607 	andeq	r2, r1, r7, lsl #12
    2424:	07040300 	streq	r0, [r4, -r0, lsl #6]
    2428:	00000103 	andeq	r0, r0, r3, lsl #2
    242c:	fe070803 	vcmla.f16	d0, d7, d3[0], #0
    2430:	04000000 	streq	r0, [r0], #-0
    2434:	00000025 	andeq	r0, r0, r5, lsr #32
    2438:	0000007a 	andeq	r0, r0, sl, ror r0
    243c:	00002505 	andeq	r2, r0, r5, lsl #10
    2440:	4e060000 	cdpmi	0, 0, cr0, cr6, cr0, {0}
    2444:	02000000 	andeq	r0, r0, #0, 0
    2448:	00860e1c 	addeq	r0, r6, ip, lsl lr
    244c:	04070000 	streq	r0, [r7], #-0
    2450:	0000006b 	andeq	r0, r0, fp, rrx
    2454:	00002504 	andeq	r2, r0, r4, lsl #10
    2458:	00009b00 	andeq	r9, r0, r0, lsl #22
    245c:	009b0500 	addseq	r0, fp, r0, lsl #10
    2460:	07000000 	streq	r0, [r0, -r0]
    2464:	0000a804 	andeq	sl, r0, r4, lsl #16
    2468:	08010300 	stmdaeq	r1, {r8, r9}
    246c:	000000f1 	strdeq	r0, [r0], -r1
    2470:	0000a108 	andeq	sl, r0, r8, lsl #2
    2474:	04470600 	strbeq	r0, [r7], #-1536	; 0xfffffa00
    2478:	21020000 	mrscs	r0, (UNDEF: 2)
    247c:	0000b90e 	andeq	fp, r0, lr, lsl #18
    2480:	8c040700 	stchi	7, cr0, [r4], {-0}
    2484:	09000000 	stmdbeq	r0, {}	; <UNPREDICTABLE>
    2488:	0000069d 	muleq	r0, sp, r6
    248c:	28061e01 	stmdacs	r6, {r0, r9, sl, fp, ip}
    2490:	54000091 	strpl	r0, [r0], #-145	; 0xffffff6f
    2494:	01000000 	mrseq	r0, (UNDEF: 0)
    2498:	00020b9c 	muleq	r2, ip, fp
    249c:	65730a00 	ldrbvs	r0, [r3, #-2560]!	; 0xfffff600
    24a0:	1e010063 	cdpne	0, 0, cr0, cr1, cr3, {3}
    24a4:	00002c19 	andeq	r2, r0, r9, lsl ip
    24a8:	001efa00 	andseq	pc, lr, r0, lsl #20
    24ac:	001ef600 	andseq	pc, lr, r0, lsl #12
    24b0:	020b0b00 	andeq	r0, fp, #0, 22
    24b4:	91280000 			; <UNDEFINED> instruction: 0x91280000
    24b8:	48020000 	stmdami	r2, {}	; <UNPREDICTABLE>
    24bc:	01000004 	tsteq	r0, r4
    24c0:	180c051f 	stmdane	ip, {r0, r1, r2, r3, r4, r8, sl}
    24c4:	1f000002 	svcne	0x00000002
    24c8:	1b00001f 	blne	254c <__code_start__-0x5ab4>
    24cc:	0d00001f 	stceq	0, cr0, [r0, #-124]	; 0xffffff84
    24d0:	00000224 	andeq	r0, r0, r4, lsr #4
    24d4:	0000913c 	andeq	r9, r0, ip, lsr r1
    24d8:	00913c00 	addseq	r3, r1, r0, lsl #24
    24dc:	00004000 	andeq	r4, r0, r0
    24e0:	051c0100 	ldreq	r0, [ip, #-256]	; 0xffffff00
    24e4:	0002310c 	andeq	r3, r2, ip, lsl #2
    24e8:	001f4c00 	andseq	r4, pc, r0, lsl #24
    24ec:	001f4a00 	andseq	r4, pc, r0, lsl #20
    24f0:	023c0e00 	eorseq	r0, ip, #0, 28
    24f4:	1f610000 	svcne	0x00610000
    24f8:	1f5f0000 	svcne	0x005f0000
    24fc:	550f0000 	strpl	r0, [pc, #-0]	; 2504 <__code_start__-0x5afc>
    2500:	3c000002 	stccc	0, cr0, [r0], {2}
    2504:	02000091 	andeq	r0, r0, #145, 0	; 0x91
    2508:	0000913c 	andeq	r9, r0, ip, lsr r1
    250c:	00000014 	andeq	r0, r0, r4, lsl r0
    2510:	9c131301 	ldcls	3, cr1, [r3], {1}
    2514:	0e000001 	cdpeq	0, 0, cr0, cr0, cr1, {0}
    2518:	00000266 	andeq	r0, r0, r6, ror #4
    251c:	00001f78 	andeq	r1, r0, r8, ror pc
    2520:	00001f74 	andeq	r1, r0, r4, ror pc
    2524:	0002710f 	andeq	r7, r2, pc, lsl #2
    2528:	00914000 	addseq	r4, r1, r0
    252c:	91400100 	mrsls	r0, (UNDEF: 80)
    2530:	000c0000 	andeq	r0, ip, r0
    2534:	0d010000 	stceq	0, cr0, [r1, #-0]
    2538:	00018912 	andeq	r8, r1, r2, lsl r9
    253c:	91481000 	mrsls	r1, (UNDEF: 72)
    2540:	052a0000 	streq	r0, [sl, #-0]!
    2544:	01110000 	tsteq	r1, r0
    2548:	040c0550 	streq	r0, [ip], #-1360	; 0xfffffab0
    254c:	00200030 	eoreq	r0, r0, r0, lsr r0
    2550:	91401200 	mrsls	r1, (UNDEF: 96)
    2554:	05360000 	ldreq	r0, [r6, #-0]!
    2558:	50120000 	andspl	r0, r2, r0
    255c:	36000091 			; <UNDEFINED> instruction: 0x36000091
    2560:	00000005 	andeq	r0, r0, r5
    2564:	00024713 	andeq	r4, r2, r3, lsl r7
    2568:	00046000 	andeq	r6, r4, r0
    256c:	02481400 	subeq	r1, r8, #0, 8
    2570:	550b0000 	strpl	r0, [fp, #-0]
    2574:	54000002 	strpl	r0, [r0], #-2
    2578:	02000091 	andeq	r0, r0, #145, 0	; 0x91
    257c:	00000478 	andeq	r0, r0, r8, ror r4
    2580:	15171501 	ldrne	r1, [r7, #-1281]	; 0xfffffaff
    2584:	00000478 	andeq	r0, r0, r8, ror r4
    2588:	0002660e 	andeq	r6, r2, lr, lsl #12
    258c:	001f9800 	andseq	r9, pc, r0, lsl #16
    2590:	001f9600 	andseq	r9, pc, r0, lsl #12
    2594:	02711600 	rsbseq	r1, r1, #0, 12
    2598:	91580000 	cmpls	r8, r0
    259c:	98010000 	stmdals	r1, {}	; <UNPREDICTABLE>
    25a0:	01000004 	tsteq	r0, r4
    25a4:	01f3120d 	mvnseq	r1, sp, lsl #4
    25a8:	60100000 	andsvs	r0, r0, r0
    25ac:	2a000091 	bcs	27f8 <__code_start__-0x5808>
    25b0:	11000005 	tstne	r0, r5
    25b4:	77025001 	strvc	r5, [r2, -r1]
    25b8:	12000000 	andne	r0, r0, #0, 0
    25bc:	00009158 	andeq	r9, r0, r8, asr r1
    25c0:	00000536 	andeq	r0, r0, r6, lsr r5
    25c4:	00916c12 	addseq	r6, r1, r2, lsl ip
    25c8:	00053600 	andeq	r3, r5, r0, lsl #12
    25cc:	00000000 	andeq	r0, r0, r0
    25d0:	17000000 	strne	r0, [r0, -r0]
    25d4:	0000058b 	andeq	r0, r0, fp, lsl #11
    25d8:	01061b01 	tsteq	r6, r1, lsl #22
    25dc:	00000224 	andeq	r0, r0, r4, lsr #4
    25e0:	00736d18 	rsbseq	r6, r3, r8, lsl sp
    25e4:	2c181b01 			; <UNDEFINED> instruction: 0x2c181b01
    25e8:	00000000 	andeq	r0, r0, r0
    25ec:	0006ca17 	andeq	ip, r6, r7, lsl sl
    25f0:	06120100 	ldreq	r0, [r2], -r0, lsl #2
    25f4:	00025501 	andeq	r5, r2, r1, lsl #10
    25f8:	73751800 	cmnvc	r5, #0, 16
    25fc:	18120100 	ldmdane	r2, {r8}
    2600:	0000002c 	andeq	r0, r0, ip, lsr #32
    2604:	00627219 	rsbeq	r7, r2, r9, lsl r2
    2608:	2c0e1301 	stccs	3, cr1, [lr], {1}
    260c:	1a000000 	bne	2614 <__code_start__-0x59ec>
    2610:	00617219 	rsbeq	r7, r1, r9, lsl r2
    2614:	2c121501 	cfldr32cs	mvfx1, [r2], {1}
    2618:	00000000 	andeq	r0, r0, r0
    261c:	06bb1b00 	ldrteq	r1, [fp], r0, lsl #22
    2620:	09010000 	stmdbeq	r1, {}	; <UNPREDICTABLE>
    2624:	00002c0a 	andeq	r2, r0, sl, lsl #24
    2628:	02710100 	rsbseq	r0, r1, #0
    262c:	75190000 	ldrvc	r0, [r9, #-0]
    2630:	0e0d0100 	adfeqe	f0, f5, f0
    2634:	0000002c 	andeq	r0, r0, ip, lsr #32
    2638:	06d31c00 	ldrbeq	r1, [r3], r0, lsl #24
    263c:	04010000 	streq	r0, [r1], #-0
    2640:	00002c0a 	andeq	r2, r0, sl, lsl #24
    2644:	711d0100 	tstvc	sp, r0, lsl #2
    2648:	60000002 	andvs	r0, r0, r2
    264c:	0c000090 	stceq	0, cr0, [r0], {144}	; 0x90
    2650:	01000000 	mrseq	r0, (UNDEF: 0)
    2654:	0002a59c 	muleq	r2, ip, r5
    2658:	90681e00 	rsbls	r1, r8, r0, lsl #28
    265c:	052a0000 	streq	r0, [sl, #-0]!
    2660:	01110000 	tsteq	r1, r0
    2664:	040c0550 	streq	r0, [ip], #-1360	; 0xfffffab0
    2668:	00200030 	eoreq	r0, r0, r0, lsr r0
    266c:	02551d00 	subseq	r1, r5, #0, 26
    2670:	906c0000 	rsbls	r0, ip, r0
    2674:	00240000 	eoreq	r0, r4, r0
    2678:	9c010000 	stcls	0, cr0, [r1], {-0}
    267c:	00000305 	andeq	r0, r0, r5, lsl #6
    2680:	0002660e 	andeq	r6, r2, lr, lsl #12
    2684:	001faf00 	andseq	sl, pc, r0, lsl #30
    2688:	001fab00 	andseq	sl, pc, r0, lsl #22
    268c:	02710f00 	rsbseq	r0, r1, #0, 30
    2690:	90740000 	rsbsls	r0, r4, r0
    2694:	74010000 	strvc	r0, [r1], #-0
    2698:	0c000090 	stceq	0, cr0, [r0], {144}	; 0x90
    269c:	01000000 	mrseq	r0, (UNDEF: 0)
    26a0:	02f2120d 	rscseq	r1, r2, #-805306368	; 0xd0000000
    26a4:	7c100000 	ldcvc	0, cr0, [r0], {-0}
    26a8:	2a000090 	bcs	28f0 <__code_start__-0x5710>
    26ac:	11000005 	tstne	r0, r5
    26b0:	0c055001 	stceq	0, cr5, [r5], {1}
    26b4:	20003004 	andcs	r3, r0, r4
    26b8:	74120000 	ldrvc	r0, [r2], #-0
    26bc:	36000090 			; <UNDEFINED> instruction: 0x36000090
    26c0:	12000005 	andne	r0, r0, #5, 0
    26c4:	00009084 	andeq	r9, r0, r4, lsl #1
    26c8:	00000536 	andeq	r0, r0, r6, lsr r5
    26cc:	02241d00 	eoreq	r1, r4, #0, 26
    26d0:	90900000 	addsls	r0, r0, r0
    26d4:	00480000 	subeq	r0, r8, r0
    26d8:	9c010000 	stcls	0, cr0, [r1], {-0}
    26dc:	00000407 	andeq	r0, r0, r7, lsl #8
    26e0:	0002310c 	andeq	r3, r2, ip, lsl #2
    26e4:	001fd100 	andseq	sp, pc, r0, lsl #2
    26e8:	001fcd00 	andseq	ip, pc, r0, lsl #26
    26ec:	023c0e00 	eorseq	r0, ip, #0, 28
    26f0:	1ff10000 	svcne	0x00f10000
    26f4:	1fef0000 	svcne	0x00ef0000
    26f8:	55160000 	ldrpl	r0, [r6, #-0]
    26fc:	90000002 	andls	r0, r0, r2
    2700:	02000090 	andeq	r0, r0, #144, 0	; 0x90
    2704:	00000390 	muleq	r0, r0, r3
    2708:	9a131301 	bls	4c7314 <__bss_end__+0x4bd86c>
    270c:	15000003 	strne	r0, [r0, #-3]
    2710:	00000390 	muleq	r0, r0, r3
    2714:	0002660e 	andeq	r6, r2, lr, lsl #12
    2718:	00200800 	eoreq	r0, r0, r0, lsl #16
    271c:	00200400 	eoreq	r0, r0, r0, lsl #8
    2720:	02710f00 	rsbseq	r0, r1, #0, 30
    2724:	909c0000 	addsls	r0, ip, r0
    2728:	9c010000 	stcls	0, cr0, [r1], {-0}
    272c:	0c000090 	stceq	0, cr0, [r0], {144}	; 0x90
    2730:	01000000 	mrseq	r0, (UNDEF: 0)
    2734:	0386120d 	orreq	r1, r6, #-805306368	; 0xd0000000
    2738:	a4100000 	ldrge	r0, [r0], #-0
    273c:	2a000090 	bcs	2984 <__code_start__-0x567c>
    2740:	11000005 	tstne	r0, r5
    2744:	0c055001 	stceq	0, cr5, [r5], {1}
    2748:	20003004 	andcs	r3, r0, r4
    274c:	9c120000 	ldcls	0, cr0, [r2], {-0}
    2750:	36000090 			; <UNDEFINED> instruction: 0x36000090
    2754:	12000005 	andne	r0, r0, #5, 0
    2758:	000090ac 	andeq	r9, r0, ip, lsr #1
    275c:	00000536 	andeq	r0, r0, r6, lsr r5
    2760:	47130000 	ldrmi	r0, [r3, -r0]
    2764:	a8000002 	stmdage	r0, {r1}
    2768:	14000003 	strne	r0, [r0], #-3
    276c:	00000248 	andeq	r0, r0, r8, asr #4
    2770:	0002550b 	andeq	r5, r2, fp, lsl #10
    2774:	0090b000 	addseq	fp, r0, r0
    2778:	03c00200 	biceq	r0, r0, #0, 4
    277c:	15010000 	strne	r0, [r1, #-0]
    2780:	03c01517 	biceq	r1, r0, #96468992	; 0x5c00000
    2784:	660e0000 	strvs	r0, [lr], -r0
    2788:	28000002 	stmdacs	r0, {r1}
    278c:	26000020 	strcs	r0, [r0], -r0, lsr #32
    2790:	16000020 	strne	r0, [r0], -r0, lsr #32
    2794:	00000271 	andeq	r0, r0, r1, ror r2
    2798:	000090b4 	strheq	r9, [r0], -r4
    279c:	0003e001 	andeq	lr, r3, r1
    27a0:	120d0100 	andne	r0, sp, #0
    27a4:	000003f1 	strdeq	r0, [r0], -r1
    27a8:	0090bc10 	addseq	fp, r0, r0, lsl ip
    27ac:	00052a00 	andeq	r2, r5, r0, lsl #20
    27b0:	50011100 	andpl	r1, r1, r0, lsl #2
    27b4:	00007702 	andeq	r7, r0, r2, lsl #14
    27b8:	90b41200 	adcsls	r1, r4, r0, lsl #4
    27bc:	05360000 	ldreq	r0, [r6, #-0]!
    27c0:	c8120000 	ldmdagt	r2, {}	; <UNPREDICTABLE>
    27c4:	36000090 			; <UNDEFINED> instruction: 0x36000090
    27c8:	00000005 	andeq	r0, r0, r5
    27cc:	1d000000 	stcne	0, cr0, [r0, #-0]
    27d0:	0000020b 	andeq	r0, r0, fp, lsl #4
    27d4:	000090d8 	ldrdeq	r9, [r0], -r8
    27d8:	00000050 	andeq	r0, r0, r0, asr r0
    27dc:	052a9c01 	streq	r9, [sl, #-3073]!	; 0xfffff3ff
    27e0:	180c0000 	stmdane	ip, {}	; <UNPREDICTABLE>
    27e4:	3f000002 	svccc	0x00000002
    27e8:	3b000020 	blcc	2870 <__code_start__-0x5790>
    27ec:	0d000020 	stceq	0, cr0, [r0, #-128]	; 0xffffff80
    27f0:	00000224 	andeq	r0, r0, r4, lsr #4
    27f4:	000090e8 	andeq	r9, r0, r8, ror #1
    27f8:	0090e800 	addseq	lr, r0, r0, lsl #16
    27fc:	00004000 	andeq	r4, r0, r0
    2800:	051c0100 	ldreq	r0, [ip, #-256]	; 0xffffff00
    2804:	0002310c 	andeq	r3, r2, ip, lsl #2
    2808:	00206200 	eoreq	r6, r0, r0, lsl #4
    280c:	00206000 	eoreq	r6, r0, r0
    2810:	023c0e00 	eorseq	r0, ip, #0, 28
    2814:	20770000 	rsbscs	r0, r7, r0
    2818:	20750000 	rsbscs	r0, r5, r0
    281c:	550f0000 	strpl	r0, [pc, #-0]	; 2824 <__code_start__-0x57dc>
    2820:	e8000002 	stmda	r0, {r1}
    2824:	02000090 	andeq	r0, r0, #144, 0	; 0x90
    2828:	000090e8 	andeq	r9, r0, r8, ror #1
    282c:	00000014 	andeq	r0, r0, r4, lsl r0
    2830:	bc131301 	ldclt	3, cr1, [r3], {1}
    2834:	0e000004 	cdpeq	0, 0, cr0, cr0, cr4, {0}
    2838:	00000266 	andeq	r0, r0, r6, ror #4
    283c:	0000208e 	andeq	r2, r0, lr, lsl #1
    2840:	0000208a 	andeq	r2, r0, sl, lsl #1
    2844:	0002710f 	andeq	r7, r2, pc, lsl #2
    2848:	0090ec00 	addseq	lr, r0, r0, lsl #24
    284c:	90ec0100 	rscls	r0, ip, r0, lsl #2
    2850:	000c0000 	andeq	r0, ip, r0
    2854:	0d010000 	stceq	0, cr0, [r1, #-0]
    2858:	0004a912 	andeq	sl, r4, r2, lsl r9
    285c:	90f41000 	rscsls	r1, r4, r0
    2860:	052a0000 	streq	r0, [sl, #-0]!
    2864:	01110000 	tsteq	r1, r0
    2868:	040c0550 	streq	r0, [ip], #-1360	; 0xfffffab0
    286c:	00200030 	eoreq	r0, r0, r0, lsr r0
    2870:	90ec1200 	rscls	r1, ip, r0, lsl #4
    2874:	05360000 	ldreq	r0, [r6, #-0]!
    2878:	fc120000 	ldc2	0, cr0, [r2], {-0}
    287c:	36000090 			; <UNDEFINED> instruction: 0x36000090
    2880:	00000005 	andeq	r0, r0, r5
    2884:	00024713 	andeq	r4, r2, r3, lsl r7
    2888:	0003f800 	andeq	pc, r3, r0, lsl #16
    288c:	02481400 	subeq	r1, r8, #0, 8
    2890:	550b0000 	strpl	r0, [fp, #-0]
    2894:	00000002 	andeq	r0, r0, r2
    2898:	02000091 	andeq	r0, r0, #145, 0	; 0x91
    289c:	00000410 	andeq	r0, r0, r0, lsl r4
    28a0:	15171501 	ldrne	r1, [r7, #-1281]	; 0xfffffaff
    28a4:	00000410 	andeq	r0, r0, r0, lsl r4
    28a8:	0002660e 	andeq	r6, r2, lr, lsl #12
    28ac:	0020ae00 	eoreq	sl, r0, r0, lsl #28
    28b0:	0020ac00 	eoreq	sl, r0, r0, lsl #24
    28b4:	02711600 	rsbseq	r1, r1, #0, 12
    28b8:	91040000 	mrsls	r0, (UNDEF: 4)
    28bc:	30010000 	andcc	r0, r1, r0
    28c0:	01000004 	tsteq	r0, r4
    28c4:	0513120d 	ldreq	r1, [r3, #-525]	; 0xfffffdf3
    28c8:	0c100000 	ldceq	0, cr0, [r0], {-0}
    28cc:	2a000091 	bcs	2b18 <__code_start__-0x54e8>
    28d0:	11000005 	tstne	r0, r5
    28d4:	77025001 	strvc	r5, [r2, -r1]
    28d8:	12000000 	andne	r0, r0, #0, 0
    28dc:	00009104 	andeq	r9, r0, r4, lsl #2
    28e0:	00000536 	andeq	r0, r0, r6, lsr r5
    28e4:	00911812 	addseq	r1, r1, r2, lsl r8
    28e8:	00053600 	andeq	r3, r5, r0, lsl #12
    28ec:	00000000 	andeq	r0, r0, r0
    28f0:	111f0000 	tstne	pc, r0
    28f4:	11000003 	tstne	r0, r3
    28f8:	02000003 	andeq	r0, r0, #3, 0
    28fc:	911f0ac2 	tstls	pc, r2, asr #21
    2900:	91000006 	tstls	r0, r6
    2904:	02000006 	andeq	r0, r0, #6, 0
    2908:	cd00069c 	stcgt	6, cr0, [r0, #-624]	; 0xfffffd90
    290c:	04000005 	streq	r0, [r0], #-5
    2910:	000f7300 	andeq	r7, pc, r0, lsl #6
    2914:	53010400 	movwpl	r0, #5120	; 0x1400
    2918:	0c000007 	stceq	0, cr0, [r0], {7}
    291c:	00000702 	andeq	r0, r0, r2, lsl #14
    2920:	00000822 	andeq	r0, r0, r2, lsr #16
    2924:	0000917c 	andeq	r9, r0, ip, ror r1
    2928:	000001f0 	strdeq	r0, [r0], -r0	; <UNPREDICTABLE>
    292c:	000016c7 	andeq	r1, r0, r7, asr #13
    2930:	69050402 	stmdbvs	r5, {r1, sl}
    2934:	0300746e 	movweq	r7, #1134	; 0x46e
    2938:	01080704 	tsteq	r8, r4, lsl #14
    293c:	2c040000 	stccs	0, cr0, [r4], {-0}
    2940:	03000000 	movweq	r0, #0
    2944:	00ea0601 	rsceq	r0, sl, r1, lsl #12
    2948:	02030000 	andeq	r0, r3, #0, 0
    294c:	00003f05 	andeq	r3, r0, r5, lsl #30
    2950:	05040300 	streq	r0, [r4, #-768]	; 0xfffffd00
    2954:	000000a2 	andeq	r0, r0, r2, lsr #1
    2958:	9d050803 	stcls	8, cr0, [r5, #-12]
    295c:	03000000 	movweq	r0, #0
    2960:	00e80801 	rsceq	r0, r8, r1, lsl #16
    2964:	02030000 	andeq	r0, r3, #0, 0
    2968:	00012607 	andeq	r2, r1, r7, lsl #12
    296c:	01150500 	tsteq	r5, r0, lsl #10
    2970:	34050000 	strcc	r0, [r5], #-0
    2974:	00006e19 	andeq	r6, r0, r9, lsl lr
    2978:	07040300 	streq	r0, [r4, -r0, lsl #6]
    297c:	00000103 	andeq	r0, r0, r3, lsl #2
    2980:	fe070803 	vcmla.f16	d0, d7, d3[0], #0
    2984:	03000000 	movweq	r0, #0
    2988:	00f10801 	rscseq	r0, r1, r1, lsl #16
    298c:	07060000 	streq	r0, [r6, -r0]
    2990:	00005401 	andeq	r5, r0, r1, lsl #8
    2994:	0e0c0400 	cfcpyseq	mvf0, mvf12
    2998:	000000c2 	andeq	r0, r0, r2, asr #1
    299c:	0003d307 	andeq	sp, r3, r7, lsl #6
    29a0:	5a070000 	bpl	1c29a8 <__bss_end__+0x1b8f00>
    29a4:	01000002 	tsteq	r0, r2
    29a8:	00031707 	andeq	r1, r3, r7, lsl #14
    29ac:	26070400 	strcs	r0, [r7], -r0, lsl #8
    29b0:	05000003 	streq	r0, [r0, #-3]
    29b4:	00033507 	andeq	r3, r3, r7, lsl #10
    29b8:	44070600 	strmi	r0, [r7], #-1536	; 0xfffffa00
    29bc:	07000003 	streq	r0, [r0, -r3]
    29c0:	00039d07 	andeq	r9, r3, r7, lsl #26
    29c4:	53070300 	movwpl	r0, #29440	; 0x7300
    29c8:	02000003 	andeq	r0, r0, #3, 0
    29cc:	08160800 	ldmdaeq	r6, {fp}
    29d0:	022c0000 	eoreq	r0, ip, #0, 0
    29d4:	015e0806 	cmpeq	lr, r6, lsl #16
    29d8:	69090000 	stmdbvs	r9, {}	; <UNPREDICTABLE>
    29dc:	0902006f 	stmdbeq	r2, {r0, r1, r2, r3, r5, r6}
    29e0:	00003309 	andeq	r3, r0, r9, lsl #6
    29e4:	69090000 	stmdbvs	r9, {}	; <UNPREDICTABLE>
    29e8:	02007265 	andeq	r7, r0, #1342177286	; 0x50000006
    29ec:	0033090a 	eorseq	r0, r3, sl, lsl #18
    29f0:	09040000 	stmdbeq	r4, {}	; <UNPREDICTABLE>
    29f4:	00726969 	rsbseq	r6, r2, r9, ror #18
    29f8:	33091102 	movwcc	r1, #37122	; 0x9102
    29fc:	08000000 	stmdaeq	r0, {}	; <UNPREDICTABLE>
    2a00:	72636c09 	rsbvc	r6, r3, #2304	; 0x900
    2a04:	09130200 	ldmdbeq	r3, {r9}
    2a08:	00000033 	andeq	r0, r0, r3, lsr r0
    2a0c:	636d090c 	cmnvs	sp, #12, 18	; 0x30000
    2a10:	14020072 	strne	r0, [r2], #-114	; 0xffffff8e
    2a14:	00003309 	andeq	r3, r0, r9, lsl #6
    2a18:	6c091000 	stcvs	0, cr1, [r9], {-0}
    2a1c:	02007273 	andeq	r7, r0, #805306375	; 0x30000007
    2a20:	00330915 	eorseq	r0, r3, r5, lsl r9
    2a24:	09140000 	ldmdbeq	r4, {}	; <UNPREDICTABLE>
    2a28:	0072736d 	rsbseq	r7, r2, sp, ror #6
    2a2c:	33091602 	movwcc	r1, #38402	; 0x9602
    2a30:	18000000 	stmdane	r0, {}	; <UNPREDICTABLE>
    2a34:	00080e0a 	andeq	r0, r8, sl, lsl #28
    2a38:	09170200 	ldmdbeq	r7, {r9}
    2a3c:	00000033 	andeq	r0, r0, r3, lsr r0
    2a40:	07e60a1c 			; <UNDEFINED> instruction: 0x07e60a1c
    2a44:	1b020000 	blne	82a4c <__bss_end__+0x78fa4>
    2a48:	00003309 	andeq	r3, r0, r9, lsl #6
    2a4c:	ef0a2000 	svc	0x000a2000
    2a50:	02000006 	andeq	r0, r0, #6, 0
    2a54:	0033091d 	eorseq	r0, r3, sp, lsl r9
    2a58:	0a240000 	beq	902a60 <__bss_end__+0x8f8fb8>
    2a5c:	00000738 	andeq	r0, r0, r8, lsr r7
    2a60:	33091e02 	movwcc	r1, #40450	; 0x9e02
    2a64:	28000000 	stmdacs	r0, {}	; <UNPREDICTABLE>
    2a68:	073d0b00 	ldreq	r0, [sp, -r0, lsl #22]!
    2a6c:	08010000 	stmdaeq	r1, {}	; <UNPREDICTABLE>
    2a70:	00017409 	andeq	r7, r1, r9, lsl #8
    2a74:	21500400 	cmpcs	r0, r0, lsl #8
    2a78:	33040c20 	movwcc	r0, #19488	; 0x4c20
    2a7c:	0d000000 	stceq	0, cr0, [r0, #-0]
    2a80:	0000016e 	andeq	r0, r0, lr, ror #2
    2a84:	0007170b 	andeq	r1, r7, fp, lsl #14
    2a88:	23290100 			; <UNDEFINED> instruction: 0x23290100
    2a8c:	0000018f 	andeq	r0, r0, pc, lsl #3
    2a90:	20215040 	eorcs	r5, r1, r0, asr #32
    2a94:	00c2040c 	sbceq	r0, r2, ip, lsl #8
    2a98:	890d0000 	stmdbhi	sp, {}	; <UNPREDICTABLE>
    2a9c:	0e000001 	cdpeq	0, 0, cr0, cr0, cr1, {0}
    2aa0:	000005af 	andeq	r0, r0, pc, lsr #11
    2aa4:	3406cc01 	strcc	ip, [r6], #-3073	; 0xfffff3ff
    2aa8:	14000093 	strne	r0, [r0], #-147	; 0xffffff6d
    2aac:	01000000 	mrseq	r0, (UNDEF: 0)
    2ab0:	0001b49c 	muleq	r1, ip, r4
    2ab4:	933c0f00 	teqls	ip, #0, 30
    2ab8:	01b40000 			; <UNDEFINED> instruction: 0x01b40000
    2abc:	10000000 	andne	r0, r0, r0
    2ac0:	00000721 	andeq	r0, r0, r1, lsr #14
    2ac4:	2505b601 	strcs	fp, [r5, #-1537]	; 0xfffff9ff
    2ac8:	14000000 	strne	r0, [r0], #-0
    2acc:	20000093 	mulcs	r0, r3, r0
    2ad0:	01000000 	mrseq	r0, (UNDEF: 0)
    2ad4:	0001eb9c 	muleq	r1, ip, fp
    2ad8:	931c0f00 	tstls	ip, #0, 30
    2adc:	05a00000 	streq	r0, [r0, #0]!
    2ae0:	24110000 	ldrcs	r0, [r1], #-0
    2ae4:	ac000093 	stcge	0, cr0, [r0], {147}	; 0x93
    2ae8:	12000005 	andne	r0, r0, #5, 0
    2aec:	0c055001 	stceq	0, cr5, [r5], {1}
    2af0:	20215064 	eorcs	r5, r1, r4, rrx
    2af4:	f8100000 			; <UNDEFINED> instruction: 0xf8100000
    2af8:	01000007 	tsteq	r0, r7
    2afc:	002505b3 	strhteq	r0, [r5], -r3
    2b00:	93040000 	movwls	r0, #16384	; 0x4000
    2b04:	00100000 	andseq	r0, r0, r0
    2b08:	9c010000 	stcls	0, cr0, [r1], {-0}
    2b0c:	00000218 	andeq	r0, r0, r8, lsl r2
    2b10:	00930c0f 	addseq	r0, r3, pc, lsl #24
    2b14:	0005a000 	andeq	sl, r5, r0
    2b18:	93100f00 	tstls	r0, #0, 30
    2b1c:	03090000 	movweq	r0, #36864	; 0x9000
    2b20:	0e000000 	cdpeq	0, 0, cr0, cr0, cr0, {0}
    2b24:	0000085f 	andeq	r0, r0, pc, asr r8
    2b28:	d406ab01 	strle	sl, [r6], #-2817	; 0xfffff4ff
    2b2c:	30000092 	mulcc	r0, r2, r0
    2b30:	01000000 	mrseq	r0, (UNDEF: 0)
    2b34:	00027c9c 	muleq	r2, ip, ip
    2b38:	00631300 	rsbeq	r1, r3, r0, lsl #6
    2b3c:	2c19ab01 			; <UNDEFINED> instruction: 0x2c19ab01
    2b40:	c5000000 	strgt	r0, [r0, #-0]
    2b44:	c1000020 	tstgt	r0, r0, lsr #32
    2b48:	0f000020 	svceq	0x00000020
    2b4c:	000092e0 	andeq	r9, r0, r0, ror #5
    2b50:	000005a0 	andeq	r0, r0, r0, lsr #11
    2b54:	0092e40f 	addseq	lr, r2, pc, lsl #8
    2b58:	0002db00 	andeq	sp, r2, r0, lsl #22
    2b5c:	92f81400 	rscsls	r1, r8, #0, 8
    2b60:	05b80000 	ldreq	r0, [r8, #0]!
    2b64:	02720000 	rsbseq	r0, r2, #0, 0
    2b68:	01120000 	tsteq	r2, r0
    2b6c:	400c0550 	andmi	r0, ip, r0, asr r5
    2b70:	12202150 	eorne	r2, r0, #20
    2b74:	74055101 	strvc	r5, [r5], #-257	; 0xfffffeff
    2b78:	1aff0800 	bne	fffc4b80 <__bss_end__+0xfffbb0d8>
    2b7c:	92fc0f00 	rscsls	r0, ip, #0, 30
    2b80:	05a00000 	streq	r0, [r0, #0]!
    2b84:	10000000 	andne	r0, r0, r0
    2b88:	00000749 	andeq	r0, r0, r9, asr #14
    2b8c:	2505a301 	strcs	sl, [r5, #-769]	; 0xfffffcff
    2b90:	a4000000 	strge	r0, [r0], #-0
    2b94:	30000092 	mulcc	r0, r2, r0
    2b98:	01000000 	mrseq	r0, (UNDEF: 0)
    2b9c:	0002db9c 	muleq	r2, ip, fp
    2ba0:	00631500 	rsbeq	r1, r3, r0, lsl #10
    2ba4:	2509a701 	strcs	sl, [r9, #-1793]	; 0xfffff8ff
    2ba8:	e5000000 	str	r0, [r0, #-0]
    2bac:	e3000020 	movw	r0, #32
    2bb0:	0f000020 	svceq	0x00000020
    2bb4:	000092ac 	andeq	r9, r0, ip, lsr #5
    2bb8:	000005a0 	andeq	r0, r0, r0, lsr #11
    2bbc:	0092b00f 	addseq	fp, r2, pc
    2bc0:	00030900 	andeq	r0, r3, r0, lsl #18
    2bc4:	92c01400 	sbcls	r1, r0, #0, 8
    2bc8:	05ac0000 	streq	r0, [ip, #0]!
    2bcc:	02d10000 	sbcseq	r0, r1, #0, 0
    2bd0:	01120000 	tsteq	r2, r0
    2bd4:	400c0550 	andmi	r0, ip, r0, asr r5
    2bd8:	00202150 	eoreq	r2, r0, r0, asr r1
    2bdc:	0092c80f 	addseq	ip, r2, pc, lsl #16
    2be0:	0005a000 	andeq	sl, r5, r0
    2be4:	09100000 	ldmdbeq	r0, {}	; <UNPREDICTABLE>
    2be8:	01000007 	tsteq	r0, r7
    2bec:	00250594 	mlaeq	r5, r4, r5, r0
    2bf0:	92840000 	addls	r0, r4, #0, 0
    2bf4:	00200000 	eoreq	r0, r0, r0
    2bf8:	9c010000 	stcls	0, cr0, [r1], {-0}
    2bfc:	00000309 	andeq	r0, r0, r9, lsl #6
    2c00:	00929011 	addseq	r9, r2, r1, lsl r0
    2c04:	0005ac00 	andeq	sl, r5, r0, lsl #24
    2c08:	50011200 	andpl	r1, r1, r0, lsl #4
    2c0c:	50640c05 	rsbpl	r0, r4, r5, lsl #24
    2c10:	00002021 	andeq	r2, r0, r1, lsr #32
    2c14:	0006f410 	andeq	pc, r6, r0, lsl r4	; <UNPREDICTABLE>
    2c18:	058b0100 	streq	r0, [fp, #256]	; 0x100
    2c1c:	00000025 	andeq	r0, r0, r5, lsr #32
    2c20:	0000926c 	andeq	r9, r0, ip, ror #4
    2c24:	00000018 	andeq	r0, r0, r8, lsl r0
    2c28:	03379c01 	teqeq	r7, #256	; 0x100
    2c2c:	78110000 	ldmdavc	r1, {}	; <UNPREDICTABLE>
    2c30:	ac000092 	stcge	0, cr0, [r0], {146}	; 0x92
    2c34:	12000005 	andne	r0, r0, #5, 0
    2c38:	0c055001 	stceq	0, cr5, [r5], {1}
    2c3c:	20215064 	eorcs	r5, r1, r4, rrx
    2c40:	cd0e0000 	stcgt	0, cr0, [lr, #-0]
    2c44:	01000005 	tsteq	r0, r5
    2c48:	91bc0645 			; <UNDEFINED> instruction: 0x91bc0645
    2c4c:	00b00000 	adcseq	r0, r0, r0
    2c50:	9c010000 	stcls	0, cr0, [r1], {-0}
    2c54:	00000484 	andeq	r0, r0, r4, lsl #9
    2c58:	0006e616 	andeq	lr, r6, r6, lsl r6
    2c5c:	0e7e0100 	rpweqe	f0, f6, f0
    2c60:	00000062 	andeq	r0, r0, r2, rrx
    2c64:	cc14010e 	ldfgts	f0, [r4], {14}
    2c68:	c4000091 	strgt	r0, [r0], #-145	; 0xffffff6f
    2c6c:	73000005 	movwvc	r0, #5
    2c70:	12000003 	andne	r0, r0, #3, 0
    2c74:	3e015001 	cdpcc	0, 0, cr5, cr1, cr1, {0}
    2c78:	01510112 	cmpeq	r1, r2, lsl r1
    2c7c:	d8140032 	ldmdale	r4, {r1, r4, r5}
    2c80:	c4000091 	strgt	r0, [r0], #-145	; 0xffffff6f
    2c84:	8b000005 	blhi	2ca0 <__code_start__-0x5360>
    2c88:	12000003 	andne	r0, r0, #3, 0
    2c8c:	3f015001 	svccc	0x00015001
    2c90:	01510112 	cmpeq	r1, r2, lsl r1
    2c94:	dc0f0032 	stcle	0, cr0, [pc], {50}	; 0x32
    2c98:	a0000091 	mulge	r0, r1, r0
    2c9c:	14000005 	strne	r0, [r0], #-5
    2ca0:	000091e8 	andeq	r9, r0, r8, ror #3
    2ca4:	0000053d 	andeq	r0, r0, sp, lsr r5
    2ca8:	000003b0 			; <UNDEFINED> instruction: 0x000003b0
    2cac:	05500112 	ldrbeq	r0, [r0, #-274]	; 0xfffffeee
    2cb0:	2150040c 	cmpcs	r0, ip, lsl #8
    2cb4:	51011220 	tstpl	r1, r0, lsr #4
    2cb8:	0f003101 	svceq	0x00003101
    2cbc:	000091ec 	andeq	r9, r0, ip, ror #3
    2cc0:	000005a0 	andeq	r0, r0, r0, lsr #11
    2cc4:	0091fc14 	addseq	pc, r1, r4, lsl ip	; <UNPREDICTABLE>
    2cc8:	0005b800 	andeq	fp, r5, r0, lsl #16
    2ccc:	0003d200 	andeq	sp, r3, r0, lsl #4
    2cd0:	50011200 	andpl	r1, r1, r0, lsl #4
    2cd4:	12007402 	andne	r7, r0, #33554432	; 0x2000000
    2cd8:	30015101 	andcc	r5, r1, r1, lsl #2
    2cdc:	92081400 	andls	r1, r8, #0, 8
    2ce0:	05b80000 	ldreq	r0, [r8, #0]!
    2ce4:	03ee0000 	mvneq	r0, #0, 0
    2ce8:	01120000 	tsteq	r2, r0
    2cec:	440c0550 	strmi	r0, [ip], #-1360	; 0xfffffab0
    2cf0:	12202150 	eorne	r2, r0, #20
    2cf4:	30015101 	andcc	r5, r1, r1, lsl #2
    2cf8:	92141400 	andsls	r1, r4, #0, 8
    2cfc:	05b80000 	ldreq	r0, [r8, #0]!
    2d00:	040a0000 	streq	r0, [sl], #-0
    2d04:	01120000 	tsteq	r2, r0
    2d08:	4c0c0550 	cfstr32mi	mvfx0, [ip], {80}	; 0x50
    2d0c:	12202150 	eorne	r2, r0, #20
    2d10:	33015101 	movwcc	r5, #4353	; 0x1101
    2d14:	92201400 	eorls	r1, r0, #0, 8
    2d18:	05b80000 	ldreq	r0, [r8, #0]!
    2d1c:	04260000 	strteq	r0, [r6], #-0
    2d20:	01120000 	tsteq	r2, r0
    2d24:	500c0550 	andpl	r0, ip, r0, asr r5
    2d28:	12202150 	eorne	r2, r0, #20
    2d2c:	30015101 	andcc	r5, r1, r1, lsl #2
    2d30:	922c1400 	eorls	r1, ip, #0, 8
    2d34:	05b80000 	ldreq	r0, [r8, #0]!
    2d38:	04430000 	strbeq	r0, [r3], #-0
    2d3c:	01120000 	tsteq	r2, r0
    2d40:	480c0550 	stmdami	ip, {r4, r6, r8, sl}
    2d44:	12202150 	eorne	r2, r0, #20
    2d48:	08025101 	stmdaeq	r2, {r0, r8, ip, lr}
    2d4c:	381400c7 	ldmdacc	r4, {r0, r1, r2, r6, r7}
    2d50:	b8000092 	stmdalt	r0, {r1, r4, r7}
    2d54:	61000005 	tstvs	r0, r5
    2d58:	12000004 	andne	r0, r0, #4, 0
    2d5c:	0c055001 	stceq	0, cr5, [r5], {1}
    2d60:	20215068 	eorcs	r5, r1, r8, rrx
    2d64:	03510112 	cmpeq	r1, #-2147483644	; 0x80000004
    2d68:	00010e0a 	andeq	r0, r1, sl, lsl #28
    2d6c:	00924414 	addseq	r4, r2, r4, lsl r4
    2d70:	0005b800 	andeq	fp, r5, r0, lsl #16
    2d74:	00047a00 	andeq	r7, r4, r0, lsl #20
    2d78:	50011200 	andpl	r1, r1, r0, lsl #4
    2d7c:	12007402 	andne	r7, r0, #33554432	; 0x2000000
    2d80:	33015101 	movwcc	r5, #4353	; 0x1101
    2d84:	92480f00 	subls	r0, r8, #0, 30
    2d88:	05a00000 	streq	r0, [r0, #0]!
    2d8c:	0e000000 	cdpeq	0, 0, cr0, cr0, cr0, {0}
    2d90:	000007eb 	andeq	r0, r0, fp, ror #15
    2d94:	48063501 	stmdami	r6, {r0, r8, sl, ip, sp}
    2d98:	24000093 	strcs	r0, [r0], #-147	; 0xffffff6d
    2d9c:	01000000 	mrseq	r0, (UNDEF: 0)
    2da0:	0004d39c 	muleq	r4, ip, r3
    2da4:	93500f00 	cmpls	r0, #0, 30
    2da8:	01940000 	orrseq	r0, r4, r0
    2dac:	540f0000 	strpl	r0, [pc], #-0	; 2db4 <__code_start__-0x524c>
    2db0:	a0000093 	mulge	r0, r3, r0
    2db4:	14000005 	strne	r0, [r0], #-5
    2db8:	00009360 	andeq	r9, r0, r0, ror #6
    2dbc:	000004d3 	ldrdeq	r0, [r0], -r3
    2dc0:	000004c9 	andeq	r0, r0, r9, asr #9
    2dc4:	05500112 	ldrbeq	r0, [r0, #-274]	; 0xfffffeee
    2dc8:	2150040c 	cmpcs	r0, ip, lsl #8
    2dcc:	51011220 	tstpl	r1, r0, lsr #4
    2dd0:	00fe0902 	rscseq	r0, lr, r2, lsl #18
    2dd4:	0093640f 	addseq	r6, r3, pc, lsl #8
    2dd8:	0005a000 	andeq	sl, r5, r0
    2ddc:	56170000 	ldrpl	r0, [r7], -r0
    2de0:	01000008 	tsteq	r0, r8
    2de4:	917c0d31 	cmnls	ip, r1, lsr sp
    2de8:	00200000 	eoreq	r0, r0, r0
    2dec:	9c010000 	stcls	0, cr0, [r1], {-0}
    2df0:	00000536 	andeq	r0, r0, r6, lsr r5
    2df4:	00071c18 	andeq	r1, r7, r8, lsl ip
    2df8:	25310100 	ldrcs	r0, [r1, #-256]!	; 0xffffff00
    2dfc:	00000536 	andeq	r0, r0, r6, lsr r5
    2e00:	000020fc 	strdeq	r2, [r0], -ip
    2e04:	000020f8 	strdeq	r2, [r0], -r8
    2e08:	6c617613 	stclvs	6, cr7, [r1], #-76	; 0xffffffb4
    2e0c:	34310100 	ldrtcc	r0, [r1], #-256	; 0xffffff00
    2e10:	0000002c 	andeq	r0, r0, ip, lsr #32
    2e14:	0000211e 	andeq	r2, r0, lr, lsl r1
    2e18:	0000211a 	andeq	r2, r0, sl, lsl r1
    2e1c:	00918c14 	addseq	r8, r1, r4, lsl ip
    2e20:	0005ac00 	andeq	sl, r5, r0, lsl #24
    2e24:	00052500 	andeq	r2, r5, r0, lsl #10
    2e28:	50011200 	andpl	r1, r1, r0, lsl #4
    2e2c:	00007402 	andeq	r7, r0, r2, lsl #8
    2e30:	00919811 	addseq	r9, r1, r1, lsl r8
    2e34:	0005b800 	andeq	fp, r5, r0, lsl #16
    2e38:	50011200 	andpl	r1, r1, r0, lsl #4
    2e3c:	00007402 	andeq	r7, r0, r2, lsl #8
    2e40:	3c040c00 	stccc	12, cr0, [r4], {-0}
    2e44:	19000005 	stmdbne	r0, {r0, r2}
    2e48:	00080617 	andeq	r0, r8, r7, lsl r6
    2e4c:	0d2e0100 	stfeqs	f0, [lr, #-0]
    2e50:	0000919c 	muleq	r0, ip, r1
    2e54:	00000020 	andeq	r0, r0, r0, lsr #32
    2e58:	05a09c01 	streq	r9, [r0, #3073]!	; 0xc01
    2e5c:	1c180000 	ldcne	0, cr0, [r8], {-0}
    2e60:	01000007 	tsteq	r0, r7
    2e64:	0536242e 	ldreq	r2, [r6, #-1070]!	; 0xfffffbd2
    2e68:	21400000 	mrscs	r0, (UNDEF: 64)
    2e6c:	213c0000 	teqcs	ip, r0
    2e70:	76130000 	ldrvc	r0, [r3], -r0
    2e74:	01006c61 	tsteq	r0, r1, ror #24
    2e78:	002c332e 	eoreq	r3, ip, lr, lsr #6
    2e7c:	21620000 	cmncs	r2, r0
    2e80:	215e0000 	cmpcs	lr, r0
    2e84:	ac140000 	ldcge	0, cr0, [r4], {-0}
    2e88:	ac000091 	stcge	0, cr0, [r0], {145}	; 0x91
    2e8c:	8f000005 	svchi	0x00000005
    2e90:	12000005 	andne	r0, r0, #5, 0
    2e94:	74025001 	strvc	r5, [r2], #-1
    2e98:	b8110000 	ldmdalt	r1, {}	; <UNPREDICTABLE>
    2e9c:	b8000091 	stmdalt	r0, {r0, r4, r7}
    2ea0:	12000005 	andne	r0, r0, #5, 0
    2ea4:	74025001 	strvc	r5, [r2], #-1
    2ea8:	1a000000 	bne	2eb0 <__code_start__-0x5150>
    2eac:	00000691 	muleq	r0, r1, r6
    2eb0:	00000691 	muleq	r0, r1, r6
    2eb4:	1a069c03 	bne	1a9ec8 <__bss_end__+0x1a0420>
    2eb8:	00000869 	andeq	r0, r0, r9, ror #16
    2ebc:	00000869 	andeq	r0, r0, r9, ror #16
    2ec0:	1a0bc303 	bne	2f3ad4 <__bss_end__+0x2ea02c>
    2ec4:	00000732 	andeq	r0, r0, r2, lsr r7
    2ec8:	00000732 	andeq	r0, r0, r2, lsr r7
    2ecc:	1a06ae03 	bne	1ae6e0 <__bss_end__+0x1a4c38>
    2ed0:	000003e3 	andeq	r0, r0, r3, ror #7
    2ed4:	000003e3 	andeq	r0, r0, r3, ror #7
    2ed8:	00061904 	andeq	r1, r6, r4, lsl #18
    2edc:	00000149 	andeq	r0, r0, r9, asr #2
    2ee0:	110b0004 	tstne	fp, r4
    2ee4:	01040000 	mrseq	r0, (UNDEF: 4)
    2ee8:	00000144 	andeq	r0, r0, r4, asr #2
    2eec:	00088d0c 	andeq	r8, r8, ip, lsl #26
    2ef0:	0003ac00 	andeq	sl, r3, r0, lsl #24
    2ef4:	00936c00 	addseq	r6, r3, r0, lsl #24
    2ef8:	00003c00 	andeq	r3, r0, r0, lsl #24
    2efc:	0018cf00 	andseq	ip, r8, r0, lsl #30
    2f00:	05040200 	streq	r0, [r4, #-512]	; 0xfffffe00
    2f04:	00746e69 	rsbseq	r6, r4, r9, ror #28
    2f08:	08070403 	stmdaeq	r7, {r0, r1, sl}
    2f0c:	03000001 	movweq	r0, #1
    2f10:	00ea0601 	rsceq	r0, sl, r1, lsl #12
    2f14:	02030000 	andeq	r0, r3, #0, 0
    2f18:	00003f05 	andeq	r3, r0, r5, lsl #30
    2f1c:	05040300 	streq	r0, [r4, #-768]	; 0xfffffd00
    2f20:	000000a2 	andeq	r0, r0, r2, lsr #1
    2f24:	9d050803 	stcls	8, cr0, [r5, #-12]
    2f28:	03000000 	movweq	r0, #0
    2f2c:	00e80801 	rsceq	r0, r8, r1, lsl #16
    2f30:	02030000 	andeq	r0, r3, #0, 0
    2f34:	00012607 	andeq	r2, r1, r7, lsl #12
    2f38:	07040300 	streq	r0, [r4, -r0, lsl #6]
    2f3c:	00000103 	andeq	r0, r0, r3, lsl #2
    2f40:	fe070803 	vcmla.f16	d0, d7, d3[0], #0
    2f44:	04000000 	streq	r0, [r0], #-0
    2f48:	00000025 	andeq	r0, r0, r5, lsr #32
    2f4c:	0000007a 	andeq	r0, r0, sl, ror r0
    2f50:	00002505 	andeq	r2, r0, r5, lsl #10
    2f54:	4e060000 	cdpmi	0, 0, cr0, cr6, cr0, {0}
    2f58:	02000000 	andeq	r0, r0, #0, 0
    2f5c:	00860e1c 	addeq	r0, r6, ip, lsl lr
    2f60:	04070000 	streq	r0, [r7], #-0
    2f64:	0000006b 	andeq	r0, r0, fp, rrx
    2f68:	00002504 	andeq	r2, r0, r4, lsl #10
    2f6c:	00009b00 	andeq	r9, r0, r0, lsl #22
    2f70:	009b0500 	addseq	r0, fp, r0, lsl #10
    2f74:	07000000 	streq	r0, [r0, -r0]
    2f78:	0000a804 	andeq	sl, r0, r4, lsl #16
    2f7c:	08010300 	stmdaeq	r1, {r8, r9}
    2f80:	000000f1 	strdeq	r0, [r0], -r1
    2f84:	0000a108 	andeq	sl, r0, r8, lsl #2
    2f88:	04470600 	strbeq	r0, [r7], #-1536	; 0xfffffa00
    2f8c:	21020000 	mrscs	r0, (UNDEF: 2)
    2f90:	0000b90e 	andeq	fp, r0, lr, lsl #18
    2f94:	8c040700 	stchi	7, cr0, [r4], {-0}
    2f98:	09000000 	stmdbeq	r0, {}	; <UNPREDICTABLE>
    2f9c:	0000007a 	andeq	r0, r0, sl, ror r0
    2fa0:	05070601 	streq	r0, [r7, #-1537]	; 0xfffff9ff
    2fa4:	0096a403 	addseq	sl, r6, r3, lsl #8
    2fa8:	08800a00 	stmeq	r0, {r9, fp}
    2fac:	0b010000 	bleq	42fb4 <__bss_end__+0x3950c>
    2fb0:	00939806 	addseq	r9, r3, r6, lsl #16
    2fb4:	00001000 	andeq	r1, r0, r0
    2fb8:	f19c0100 			; <UNDEFINED> instruction: 0xf19c0100
    2fbc:	0b000000 	bleq	2fc4 <__code_start__-0x503c>
    2fc0:	01007066 	tsteq	r0, r6, rrx
    2fc4:	0086190b 	addeq	r1, r6, fp, lsl #18
    2fc8:	50010000 	andpl	r0, r1, r0
    2fcc:	089e0c00 	ldmeq	lr, {sl, fp}
    2fd0:	08010000 	stmdaeq	r1, {}	; <UNPREDICTABLE>
    2fd4:	00938006 	addseq	r8, r3, r6
    2fd8:	00001800 	andeq	r1, r0, r0, lsl #16
    2fdc:	0d9c0100 	ldfeqs	f0, [ip]
    2fe0:	0000086f 	andeq	r0, r0, pc, ror #16
    2fe4:	250c0301 	strcs	r0, [ip, #-769]	; 0xfffffcff
    2fe8:	6c000000 	stcvs	0, cr0, [r0], {-0}
    2fec:	14000093 	strne	r0, [r0], #-147	; 0xffffff6d
    2ff0:	01000000 	mrseq	r0, (UNDEF: 0)
    2ff4:	0001409c 	muleq	r1, ip, r0
    2ff8:	00630e00 	rsbeq	r0, r3, r0, lsl #28
    2ffc:	25210301 	strcs	r0, [r1, #-769]!	; 0xfffffcff
    3000:	84000000 	strhi	r0, [r0], #-0
    3004:	80000021 	andhi	r0, r0, r1, lsr #32
    3008:	0f000021 	svceq	0x00000021
    300c:	00009378 	andeq	r9, r0, r8, ror r3
    3010:	00000140 	andeq	r0, r0, r0, asr #2
    3014:	02500110 	subseq	r0, r0, #4
    3018:	00000074 	andeq	r0, r0, r4, ror r0
    301c:	00085f11 	andeq	r5, r8, r1, lsl pc
    3020:	00085f00 	andeq	r5, r8, r0, lsl #30
    3024:	06420200 	strbeq	r0, [r2], -r0, lsl #4
    3028:	00013700 	andeq	r3, r1, r0, lsl #14
    302c:	1a000400 	bne	4034 <__code_start__-0x3fcc>
    3030:	04000012 	streq	r0, [r0], #-18	; 0xffffffee
    3034:	00014401 	andeq	r4, r1, r1, lsl #8
    3038:	08ad0c00 	stmiaeq	sp!, {sl, fp}
    303c:	03ac0000 			; <UNDEFINED> instruction: 0x03ac0000
    3040:	93a80000 			; <UNDEFINED> instruction: 0x93a80000
    3044:	002c0000 	eoreq	r0, ip, r0
    3048:	19710000 	ldmdbne	r1!, {}^	; <UNPREDICTABLE>
    304c:	04020000 	streq	r0, [r2], #-0
    3050:	746e6905 	strbtvc	r6, [lr], #-2309	; 0xfffff6fb
    3054:	07040300 	streq	r0, [r4, -r0, lsl #6]
    3058:	00000108 	andeq	r0, r0, r8, lsl #2
    305c:	ea060103 	b	183470 <__bss_end__+0x1799c8>
    3060:	03000000 	movweq	r0, #0
    3064:	003f0502 	eorseq	r0, pc, r2, lsl #10
    3068:	04030000 	streq	r0, [r3], #-0
    306c:	0000a205 	andeq	sl, r0, r5, lsl #4
    3070:	05080300 	streq	r0, [r8, #-768]	; 0xfffffd00
    3074:	0000009d 	muleq	r0, sp, r0
    3078:	e8080103 	stmda	r8, {r0, r1, r8}
    307c:	03000000 	movweq	r0, #0
    3080:	01260702 			; <UNDEFINED> instruction: 0x01260702
    3084:	04030000 	streq	r0, [r3], #-0
    3088:	00010307 	andeq	r0, r1, r7, lsl #6
    308c:	07080300 	streq	r0, [r8, -r0, lsl #6]
    3090:	000000fe 	strdeq	r0, [r0], -lr
    3094:	00002504 	andeq	r2, r0, r4, lsl #10
    3098:	00007a00 	andeq	r7, r0, r0, lsl #20
    309c:	00250500 	eoreq	r0, r5, r0, lsl #10
    30a0:	06000000 	streq	r0, [r0], -r0
    30a4:	0000004e 	andeq	r0, r0, lr, asr #32
    30a8:	860e1c02 	strhi	r1, [lr], -r2, lsl #24
    30ac:	07000000 	streq	r0, [r0, -r0]
    30b0:	00006b04 	andeq	r6, r0, r4, lsl #22
    30b4:	00250400 	eoreq	r0, r5, r0, lsl #8
    30b8:	009b0000 	addseq	r0, fp, r0
    30bc:	9b050000 	blls	1430c4 <__bss_end__+0x13961c>
    30c0:	00000000 	andeq	r0, r0, r0
    30c4:	00a80407 	adceq	r0, r8, r7, lsl #8
    30c8:	01030000 	mrseq	r0, (UNDEF: 3)
    30cc:	0000f108 	andeq	pc, r0, r8, lsl #2
    30d0:	00a10800 	adceq	r0, r1, r0, lsl #16
    30d4:	47060000 	strmi	r0, [r6, -r0]
    30d8:	02000004 	andeq	r0, r0, #4, 0
    30dc:	00b90e21 	adcseq	r0, r9, r1, lsr #28
    30e0:	04070000 	streq	r0, [r7], #-0
    30e4:	0000008c 	andeq	r0, r0, ip, lsl #1
    30e8:	0004ea09 	andeq	lr, r4, r9, lsl #20
    30ec:	07040100 	streq	r0, [r4, -r0, lsl #2]
    30f0:	00000134 	andeq	r0, r0, r4, lsr r1
    30f4:	000093a8 	andeq	r9, r0, r8, lsr #7
    30f8:	0000002c 	andeq	r0, r0, ip, lsr #32
    30fc:	01349c01 	teqeq	r4, r1, lsl #24
    3100:	bd0a0000 	stclt	0, cr0, [sl, #-0]
    3104:	01000008 	tsteq	r0, r8
    3108:	01341504 	teqeq	r4, r4, lsl #10
    310c:	50010000 	andpl	r0, r1, r0
    3110:	6372730b 	cmnvs	r2, #738197504	; 0x2c000000
    3114:	27040100 	strcs	r0, [r4, -r0, lsl #2]
    3118:	0000009b 	muleq	r0, fp, r0
    311c:	000021a6 	andeq	r2, r0, r6, lsr #3
    3120:	000021a2 	andeq	r2, r0, r2, lsr #3
    3124:	0031730c 	eorseq	r7, r1, ip, lsl #6
    3128:	340b0501 	strcc	r0, [fp], #-1281	; 0xfffffaff
    312c:	d5000001 	strle	r0, [r0, #-1]
    3130:	c7000021 	strgt	r0, [r0, -r1, lsr #32]
    3134:	0c000021 	stceq	0, cr0, [r0], {33}	; 0x21
    3138:	01003273 	tsteq	r0, r3, ror r2
    313c:	009b1106 	addseq	r1, fp, r6, lsl #2
    3140:	22340000 	eorscs	r0, r4, #0, 0
    3144:	222e0000 	eorcs	r0, lr, #0, 0
    3148:	630c0000 	movwvs	r0, #49152	; 0xc000
    314c:	0a070100 	beq	1c3554 <__bss_end__+0x1b9aac>
    3150:	000000a1 	andeq	r0, r0, r1, lsr #1
    3154:	00002265 	andeq	r2, r0, r5, ror #4
    3158:	0000225f 	andeq	r2, r0, pc, asr r2
    315c:	a1040700 	tstge	r4, r0, lsl #14
    3160:	00000000 	andeq	r0, r0, r0
    3164:	000000f7 	strdeq	r0, [r0], -r7
    3168:	12d00004 	sbcsne	r0, r0, #4, 0
    316c:	01040000 	mrseq	r0, (UNDEF: 4)
    3170:	00000144 	andeq	r0, r0, r4, asr #2
    3174:	0008c20c 	andeq	ip, r8, ip, lsl #4
    3178:	0003ac00 	andeq	sl, r3, r0, lsl #24
    317c:	0093d400 	addseq	sp, r3, r0, lsl #8
    3180:	00004400 	andeq	r4, r0, r0, lsl #8
    3184:	001a5700 	andseq	r5, sl, r0, lsl #14
    3188:	05040200 	streq	r0, [r4, #-512]	; 0xfffffe00
    318c:	00746e69 	rsbseq	r6, r4, r9, ror #28
    3190:	08070403 	stmdaeq	r7, {r0, r1, sl}
    3194:	03000001 	movweq	r0, #1
    3198:	00ea0601 	rsceq	r0, sl, r1, lsl #12
    319c:	02030000 	andeq	r0, r3, #0, 0
    31a0:	00003f05 	andeq	r3, r0, r5, lsl #30
    31a4:	05040300 	streq	r0, [r4, #-768]	; 0xfffffd00
    31a8:	000000a2 	andeq	r0, r0, r2, lsr #1
    31ac:	9d050803 	stcls	8, cr0, [r5, #-12]
    31b0:	03000000 	movweq	r0, #0
    31b4:	00e80801 	rsceq	r0, r8, r1, lsl #16
    31b8:	02030000 	andeq	r0, r3, #0, 0
    31bc:	00012607 	andeq	r2, r1, r7, lsl #12
    31c0:	07040300 	streq	r0, [r4, -r0, lsl #6]
    31c4:	00000103 	andeq	r0, r0, r3, lsl #2
    31c8:	fe070803 	vcmla.f16	d0, d7, d3[0], #0
    31cc:	04000000 	streq	r0, [r0], #-0
    31d0:	00000025 	andeq	r0, r0, r5, lsr #32
    31d4:	0000007a 	andeq	r0, r0, sl, ror r0
    31d8:	00002505 	andeq	r2, r0, r5, lsl #10
    31dc:	4e060000 	cdpmi	0, 0, cr0, cr6, cr0, {0}
    31e0:	02000000 	andeq	r0, r0, #0, 0
    31e4:	00860e1c 	addeq	r0, r6, ip, lsl lr
    31e8:	04070000 	streq	r0, [r7], #-0
    31ec:	0000006b 	andeq	r0, r0, fp, rrx
    31f0:	00002504 	andeq	r2, r0, r4, lsl #10
    31f4:	00009b00 	andeq	r9, r0, r0, lsl #22
    31f8:	009b0500 	addseq	r0, fp, r0, lsl #10
    31fc:	07000000 	streq	r0, [r0, -r0]
    3200:	0000a804 	andeq	sl, r0, r4, lsl #16
    3204:	08010300 	stmdaeq	r1, {r8, r9}
    3208:	000000f1 	strdeq	r0, [r0], -r1
    320c:	0000a108 	andeq	sl, r0, r8, lsl #2
    3210:	04470600 	strbeq	r0, [r7], #-1536	; 0xfffffa00
    3214:	21020000 	mrscs	r0, (UNDEF: 2)
    3218:	0000b90e 	andeq	fp, r0, lr, lsl #18
    321c:	8c040700 	stchi	7, cr0, [r4], {-0}
    3220:	09000000 	stmdbeq	r0, {}	; <UNPREDICTABLE>
    3224:	00000518 	andeq	r0, r0, r8, lsl r5
    3228:	25050301 	strcs	r0, [r5, #-769]	; 0xfffffcff
    322c:	d4000000 	strle	r0, [r0], #-0
    3230:	44000093 	strmi	r0, [r0], #-147	; 0xffffff6d
    3234:	01000000 	mrseq	r0, (UNDEF: 0)
    3238:	00610a9c 	mlseq	r1, ip, sl, r0
    323c:	9b180301 	blls	603e48 <__bss_end__+0x5fa3a0>
    3240:	9c000000 	stcls	0, cr0, [r0], {-0}
    3244:	90000022 	andls	r0, r0, r2, lsr #32
    3248:	0a000022 	beq	32d8 <__code_start__-0x4d28>
    324c:	03010062 	movweq	r0, #4194	; 0x1062
    3250:	00009b27 	andeq	r9, r0, r7, lsr #22
    3254:	0022f000 	eoreq	pc, r2, r0
    3258:	0022ea00 	eoreq	lr, r2, r0, lsl #20
    325c:	0f000000 	svceq	0x00000000
    3260:	04000001 	streq	r0, [r0], #-1
    3264:	00135f00 	andseq	r5, r3, r0, lsl #30
    3268:	44010400 	strmi	r0, [r1], #-1024	; 0xfffffc00
    326c:	0c000001 	stceq	0, cr0, [r0], {1}
    3270:	000008d2 	ldrdeq	r0, [r0], -r2
    3274:	000003ac 	andeq	r0, r0, ip, lsr #7
    3278:	00009418 	andeq	r9, r0, r8, lsl r4
    327c:	00000018 	andeq	r0, r0, r8, lsl r0
    3280:	00001b0d 	andeq	r1, r0, sp, lsl #22
    3284:	69050402 	stmdbvs	r5, {r1, sl}
    3288:	0300746e 	movweq	r7, #1134	; 0x46e
    328c:	01080704 	tsteq	r8, r4, lsl #14
    3290:	01030000 	mrseq	r0, (UNDEF: 3)
    3294:	0000ea06 	andeq	lr, r0, r6, lsl #20
    3298:	05020300 	streq	r0, [r2, #-768]	; 0xfffffd00
    329c:	0000003f 	andeq	r0, r0, pc, lsr r0
    32a0:	a2050403 	andge	r0, r5, #50331648	; 0x3000000
    32a4:	03000000 	movweq	r0, #0
    32a8:	009d0508 	addseq	r0, sp, r8, lsl #10
    32ac:	01030000 	mrseq	r0, (UNDEF: 3)
    32b0:	0000e808 	andeq	lr, r0, r8, lsl #16
    32b4:	07020300 	streq	r0, [r2, -r0, lsl #6]
    32b8:	00000126 	andeq	r0, r0, r6, lsr #2
    32bc:	03070403 	movweq	r0, #29699	; 0x7403
    32c0:	03000001 	movweq	r0, #1
    32c4:	00fe0708 	rscseq	r0, lr, r8, lsl #14
    32c8:	25040000 	strcs	r0, [r4, #-0]
    32cc:	7a000000 	bvc	32d4 <__code_start__-0x4d2c>
    32d0:	05000000 	streq	r0, [r0, #-0]
    32d4:	00000025 	andeq	r0, r0, r5, lsr #32
    32d8:	004e0600 	subeq	r0, lr, r0, lsl #12
    32dc:	1c020000 	stcne	0, cr0, [r2], {-0}
    32e0:	0000860e 	andeq	r8, r0, lr, lsl #12
    32e4:	6b040700 	blvs	104eec <__bss_end__+0xfb444>
    32e8:	04000000 	streq	r0, [r0], #-0
    32ec:	00000025 	andeq	r0, r0, r5, lsr #32
    32f0:	0000009b 	muleq	r0, fp, r0
    32f4:	00009b05 	andeq	r9, r0, r5, lsl #22
    32f8:	04070000 	streq	r0, [r7], #-0
    32fc:	000000a8 	andeq	r0, r0, r8, lsr #1
    3300:	f1080103 	cps	#3
    3304:	08000000 	stmdaeq	r0, {}	; <UNPREDICTABLE>
    3308:	000000a1 	andeq	r0, r0, r1, lsr #1
    330c:	00044706 	andeq	r4, r4, r6, lsl #14
    3310:	0e210200 	cdpeq	2, 2, cr0, cr1, cr0, {0}
    3314:	000000b9 	strheq	r0, [r0], -r9
    3318:	008c0407 	addeq	r0, ip, r7, lsl #8
    331c:	f1090000 			; <UNDEFINED> instruction: 0xf1090000
    3320:	01000004 	tsteq	r0, r4
    3324:	010c0703 	tsteq	ip, r3, lsl #14
    3328:	94180000 	ldrls	r0, [r8], #-0
    332c:	00180000 	andseq	r0, r8, r0
    3330:	9c010000 	stcls	0, cr0, [r1], {-0}
    3334:	0000010c 	andeq	r0, r0, ip, lsl #2
    3338:	0031730a 	eorseq	r7, r1, sl, lsl #6
    333c:	0c150301 	ldceq	3, cr0, [r5], {1}
    3340:	01000001 	tsteq	r0, r1
    3344:	32730b50 	rsbscc	r0, r3, #80, 22	; 0x14000
    3348:	26030100 	strcs	r0, [r3], -r0, lsl #2
    334c:	0000009b 	muleq	r0, fp, r0
    3350:	0000231f 	andeq	r2, r0, pc, lsl r3
    3354:	00002319 	andeq	r2, r0, r9, lsl r3
    3358:	0100730c 	tsteq	r0, ip, lsl #6
    335c:	010c1404 	tsteq	ip, r4, lsl #8
    3360:	234c0000 	movtcs	r0, #49152	; 0xc000
    3364:	234a0000 	movtcs	r0, #40960	; 0xa000
    3368:	07000000 	streq	r0, [r0, -r0]
    336c:	0000a104 	andeq	sl, r0, r4, lsl #2
    3370:	014e0000 	mrseq	r0, (UNDEF: 78)
    3374:	00040000 	andeq	r0, r4, r0
    3378:	00001415 	andeq	r1, r0, r5, lsl r4
    337c:	01440104 	cmpeq	r4, r4, lsl #2
    3380:	e90c0000 	stmdb	ip, {}	; <UNPREDICTABLE>
    3384:	ac000008 	stcge	0, cr0, [r0], {8}
    3388:	30000003 	andcc	r0, r0, r3
    338c:	30000094 	mulcc	r0, r4, r0
    3390:	ae000000 	cdpge	0, 0, cr0, cr0, cr0, {0}
    3394:	0200001b 	andeq	r0, r0, #27, 0
    3398:	6e690504 	cdpvs	5, 6, cr0, cr9, cr4, {0}
    339c:	e2030074 	and	r0, r3, #116, 0	; 0x74
    33a0:	03000008 	movweq	r0, #8
    33a4:	003817d1 	ldrsbteq	r1, [r8], -r1
    33a8:	04040000 	streq	r0, [r4], #-0
    33ac:	00010807 	andeq	r0, r1, r7, lsl #16
    33b0:	06010400 	streq	r0, [r1], -r0, lsl #8
    33b4:	000000ea 	andeq	r0, r0, sl, ror #1
    33b8:	3f050204 	svccc	0x00050204
    33bc:	04000000 	streq	r0, [r0], #-0
    33c0:	00a20504 	adceq	r0, r2, r4, lsl #10
    33c4:	08040000 	stmdaeq	r4, {}	; <UNPREDICTABLE>
    33c8:	00009d05 	andeq	r9, r0, r5, lsl #26
    33cc:	08010400 	stmdaeq	r1, {sl}
    33d0:	000000e8 	andeq	r0, r0, r8, ror #1
    33d4:	00005b05 	andeq	r5, r0, r5, lsl #22
    33d8:	07020400 	streq	r0, [r2, -r0, lsl #8]
    33dc:	00000126 	andeq	r0, r0, r6, lsr #2
    33e0:	03070404 	movweq	r0, #29700	; 0x7404
    33e4:	04000001 	streq	r0, [r0], #-1
    33e8:	00fe0708 	rscseq	r0, lr, r8, lsl #14
    33ec:	25060000 	strcs	r0, [r6, #-0]
    33f0:	8b000000 	blhi	33f8 <__code_start__-0x4c08>
    33f4:	07000000 	streq	r0, [r0, -r0]
    33f8:	00000025 	andeq	r0, r0, r5, lsr #32
    33fc:	004e0800 	subeq	r0, lr, r0, lsl #16
    3400:	1c020000 	stcne	0, cr0, [r2], {-0}
    3404:	0000970e 	andeq	r9, r0, lr, lsl #14
    3408:	7c040900 			; <UNDEFINED> instruction: 0x7c040900
    340c:	06000000 	streq	r0, [r0], -r0
    3410:	00000025 	andeq	r0, r0, r5, lsr #32
    3414:	000000ac 	andeq	r0, r0, ip, lsr #1
    3418:	0000ac07 	andeq	sl, r0, r7, lsl #24
    341c:	04090000 	streq	r0, [r9], #-0
    3420:	000000b9 	strheq	r0, [r0], -r9
    3424:	f1080104 	cps	#4
    3428:	05000000 	streq	r0, [r0, #-0]
    342c:	000000b2 	strheq	r0, [r0], -r2
    3430:	00044708 	andeq	r4, r4, r8, lsl #14
    3434:	0e210200 	cdpeq	2, 2, cr0, cr1, cr0, {0}
    3438:	000000ca 	andeq	r0, r0, sl, asr #1
    343c:	009d0409 	addseq	r0, sp, r9, lsl #8
    3440:	480a0000 	stmdami	sl, {}	; <UNPREDICTABLE>
    3444:	01000005 	tsteq	r0, r5
    3448:	00250504 	eoreq	r0, r5, r4, lsl #10
    344c:	94300000 	ldrtls	r0, [r0], #-0
    3450:	00300000 	eorseq	r0, r0, r0
    3454:	9c010000 	stcls	0, cr0, [r1], {-0}
    3458:	0000014b 	andeq	r0, r0, fp, asr #2
    345c:	31735f0b 	cmncc	r3, fp, lsl #30
    3460:	19040100 	stmdbne	r4, {r8}
    3464:	000000ac 	andeq	r0, r0, ip, lsr #1
    3468:	00002363 	andeq	r2, r0, r3, ror #6
    346c:	0000235f 	andeq	r2, r0, pc, asr r3
    3470:	32735f0b 	rsbscc	r5, r3, #11, 30	; 0x2c
    3474:	2a040100 	bcs	10387c <__bss_end__+0xf9dd4>
    3478:	000000ac 	andeq	r0, r0, ip, lsr #1
    347c:	00002388 	andeq	r2, r0, r8, lsl #7
    3480:	00002384 	andeq	r2, r0, r4, lsl #7
    3484:	01006e0b 	tsteq	r0, fp, lsl #28
    3488:	002c3604 	eoreq	r3, ip, r4, lsl #12
    348c:	23b30000 			; <UNDEFINED> instruction: 0x23b30000
    3490:	23a90000 			; <UNDEFINED> instruction: 0x23a90000
    3494:	730c0000 	movwvc	r0, #49152	; 0xc000
    3498:	05010031 	streq	r0, [r1, #-49]	; 0xffffffcf
    349c:	00014b1a 	andeq	r4, r1, sl, lsl fp
    34a0:	00240a00 	eoreq	r0, r4, r0, lsl #20
    34a4:	00240200 	eoreq	r0, r4, r0, lsl #4
    34a8:	32730c00 	rsbscc	r0, r3, #0, 24
    34ac:	2c050100 	stfcss	f0, [r5], {-0}
    34b0:	0000014b 	andeq	r0, r0, fp, asr #2
    34b4:	00002448 	andeq	r2, r0, r8, asr #8
    34b8:	00002442 	andeq	r2, r0, r2, asr #8
    34bc:	62040900 	andvs	r0, r4, #0, 18
    34c0:	00000000 	andeq	r0, r0, r0
    34c4:	000000ce 	andeq	r0, r0, lr, asr #1
    34c8:	14c90004 	strbne	r0, [r9], #4
    34cc:	01040000 	mrseq	r0, (UNDEF: 4)
    34d0:	00000144 	andeq	r0, r0, r4, asr #2
    34d4:	0008fa0c 	andeq	pc, r8, ip, lsl #20
    34d8:	0003ac00 	andeq	sl, r3, r0, lsl #24
    34dc:	00946000 	addseq	r6, r4, r0
    34e0:	00000400 	andeq	r0, r0, r0, lsl #8
    34e4:	001caf00 	andseq	sl, ip, r0, lsl #30
    34e8:	05040200 	streq	r0, [r4, #-512]	; 0xfffffe00
    34ec:	00746e69 	rsbseq	r6, r4, r9, ror #28
    34f0:	08070403 	stmdaeq	r7, {r0, r1, sl}
    34f4:	03000001 	movweq	r0, #1
    34f8:	00ea0601 	rsceq	r0, sl, r1, lsl #12
    34fc:	02030000 	andeq	r0, r3, #0, 0
    3500:	00003f05 	andeq	r3, r0, r5, lsl #30
    3504:	05040300 	streq	r0, [r4, #-768]	; 0xfffffd00
    3508:	000000a2 	andeq	r0, r0, r2, lsr #1
    350c:	9d050803 	stcls	8, cr0, [r5, #-12]
    3510:	03000000 	movweq	r0, #0
    3514:	00e80801 	rsceq	r0, r8, r1, lsl #16
    3518:	02030000 	andeq	r0, r3, #0, 0
    351c:	00012607 	andeq	r2, r1, r7, lsl #12
    3520:	07040300 	streq	r0, [r4, -r0, lsl #6]
    3524:	00000103 	andeq	r0, r0, r3, lsl #2
    3528:	fe070803 	vcmla.f16	d0, d7, d3[0], #0
    352c:	04000000 	streq	r0, [r0], #-0
    3530:	00000025 	andeq	r0, r0, r5, lsr #32
    3534:	0000007a 	andeq	r0, r0, sl, ror r0
    3538:	00002505 	andeq	r2, r0, r5, lsl #10
    353c:	4e060000 	cdpmi	0, 0, cr0, cr6, cr0, {0}
    3540:	02000000 	andeq	r0, r0, #0, 0
    3544:	00860e1c 	addeq	r0, r6, ip, lsl lr
    3548:	04070000 	streq	r0, [r7], #-0
    354c:	0000006b 	andeq	r0, r0, fp, rrx
    3550:	00002504 	andeq	r2, r0, r4, lsl #10
    3554:	00009b00 	andeq	r9, r0, r0, lsl #22
    3558:	009b0500 	addseq	r0, fp, r0, lsl #10
    355c:	07000000 	streq	r0, [r0, -r0]
    3560:	0000a804 	andeq	sl, r0, r4, lsl #16
    3564:	08010300 	stmdaeq	r1, {r8, r9}
    3568:	000000f1 	strdeq	r0, [r0], -r1
    356c:	0000a108 	andeq	sl, r0, r8, lsl #2
    3570:	04470600 	strbeq	r0, [r7], #-1536	; 0xfffffa00
    3574:	21020000 	mrscs	r0, (UNDEF: 2)
    3578:	0000b90e 	andeq	fp, r0, lr, lsl #18
    357c:	8c040700 	stchi	7, cr0, [r4], {-0}
    3580:	09000000 	stmdbeq	r0, {}	; <UNPREDICTABLE>
    3584:	00000616 	andeq	r0, r0, r6, lsl r6
    3588:	60060301 	andvs	r0, r6, r1, lsl #6
    358c:	04000094 	streq	r0, [r0], #-148	; 0xffffff6c
    3590:	01000000 	mrseq	r0, (UNDEF: 0)
    3594:	Address 0x0000000000003594 is out of bounds.


Disassembly of section .debug_abbrev:

00000000 <.debug_abbrev>:
       0:	25011101 	strcs	r1, [r1, #-257]	; 0xfffffeff
       4:	030b130e 	movweq	r1, #45838	; 0xb30e
       8:	110e1b0e 	tstne	lr, lr, lsl #22
       c:	10061201 	andne	r1, r6, r1, lsl #4
      10:	02000017 	andeq	r0, r0, #23, 0
      14:	0b0b0024 	bleq	2c00ac <__bss_end__+0x2b6604>
      18:	08030b3e 	stmdaeq	r3, {r1, r2, r3, r4, r5, r8, r9, fp}
      1c:	24030000 	strcs	r0, [r3], #-0
      20:	3e0b0b00 	vmlacc.f64	d0, d11, d0
      24:	000e030b 	andeq	r0, lr, fp, lsl #6
      28:	00260400 	eoreq	r0, r6, r0, lsl #8
      2c:	00001349 	andeq	r1, r0, r9, asr #6
      30:	03001605 	movweq	r1, #1541	; 0x605
      34:	3b0b3a0e 	blcc	2ce874 <__bss_end__+0x2c4dcc>
      38:	490b390b 	stmdbmi	fp, {r0, r1, r3, r8, fp, ip, sp}
      3c:	06000013 			; <UNDEFINED> instruction: 0x06000013
      40:	13490035 	movtne	r0, #36917	; 0x9035
      44:	15070000 	strne	r0, [r7, #-0]
      48:	49192701 	ldmdbmi	r9, {r0, r8, r9, sl, sp}
      4c:	00130113 	andseq	r0, r3, r3, lsl r1
      50:	00050800 	andeq	r0, r5, r0, lsl #16
      54:	00001349 	andeq	r1, r0, r9, asr #6
      58:	03003409 	movweq	r3, #1033	; 0x409
      5c:	3b0b3a0e 	blcc	2ce89c <__bss_end__+0x2c4df4>
      60:	490b390b 	stmdbmi	fp, {r0, r1, r3, r8, fp, ip, sp}
      64:	3c193f13 	ldccc	15, cr3, [r9], {19}
      68:	0a000019 	beq	d4 <__code_start__-0x7f2c>
      6c:	0b0b000f 	bleq	2c00b0 <__bss_end__+0x2b6608>
      70:	00001349 	andeq	r1, r0, r9, asr #6
      74:	0b01130b 	bleq	44ca8 <__bss_end__+0x3b200>
      78:	3b0b3a0b 	blcc	2ce8ac <__bss_end__+0x2c4e04>
      7c:	010b390b 	tsteq	fp, fp, lsl #18
      80:	0c000013 	stceq	0, cr0, [r0], {19}
      84:	0803000d 	stmdaeq	r3, {r0, r2, r3}
      88:	0b3b0b3a 	bleq	ec2d78 <__bss_end__+0xeb92d0>
      8c:	13490b39 	movtne	r0, #39737	; 0x9b39
      90:	00000b38 	andeq	r0, r0, r8, lsr fp
      94:	03000d0d 	movweq	r0, #3341	; 0xd0d
      98:	3b0b3a0e 	blcc	2ce8d8 <__bss_end__+0x2c4e30>
      9c:	490b390b 	stmdbmi	fp, {r0, r1, r3, r8, fp, ip, sp}
      a0:	000b3813 	andeq	r3, fp, r3, lsl r8
      a4:	00340e00 	eorseq	r0, r4, r0, lsl #28
      a8:	0b3a0e03 	bleq	e838bc <__bss_end__+0xe79e14>
      ac:	0b390b3b 	bleq	e42da0 <__bss_end__+0xe392f8>
      b0:	061c1349 	ldreq	r1, [ip], -r9, asr #6
      b4:	340f0000 	strcc	r0, [pc], #-0	; bc <__code_start__-0x7f44>
      b8:	3a080300 	bcc	200cc0 <__bss_end__+0x1f7218>
      bc:	390b3b0b 	stmdbcc	fp, {r0, r1, r3, r8, r9, fp, ip, sp}
      c0:	0013490b 	andseq	r4, r3, fp, lsl #18
      c4:	012e1000 			; <UNDEFINED> instruction: 0x012e1000
      c8:	0e03193f 			; <UNDEFINED> instruction: 0x0e03193f
      cc:	0b3b0b3a 	bleq	ec2dbc <__bss_end__+0xeb9314>
      d0:	19270b39 	stmdbne	r7!, {r0, r3, r4, r5, r8, r9, fp}
      d4:	06120111 			; <UNDEFINED> instruction: 0x06120111
      d8:	42971840 	addsmi	r1, r7, #64, 16	; 0x400000
      dc:	00130119 	andseq	r0, r3, r9, lsl r1
      e0:	00341100 	eorseq	r1, r4, r0, lsl #2
      e4:	0b3a0803 	bleq	e820f8 <__bss_end__+0xe78650>
      e8:	0b390b3b 	bleq	e42ddc <__bss_end__+0xe39334>
      ec:	0b1c1349 	bleq	704e18 <__bss_end__+0x6fb370>
      f0:	34120000 	ldrcc	r0, [r2], #-0
      f4:	3a080300 	bcc	200cfc <__bss_end__+0x1f7254>
      f8:	390b3b0b 	stmdbcc	fp, {r0, r1, r3, r8, r9, fp, ip, sp}
      fc:	0213490b 	andseq	r4, r3, #180224	; 0x2c000
     100:	13000018 	movwne	r0, #24
     104:	1755010b 	ldrbne	r0, [r5, -fp, lsl #2]
     108:	00001301 	andeq	r1, r0, r1, lsl #6
     10c:	03003414 	movweq	r3, #1044	; 0x414
     110:	3b0b3a08 	blcc	2ce938 <__bss_end__+0x2c4e90>
     114:	490b390b 	stmdbmi	fp, {r0, r1, r3, r8, fp, ip, sp}
     118:	b7170213 			; <UNDEFINED> instruction: 0xb7170213
     11c:	00001742 	andeq	r1, r0, r2, asr #14
     120:	55010b15 	strpl	r0, [r1, #-2837]	; 0xfffff4eb
     124:	16000017 			; <UNDEFINED> instruction: 0x16000017
     128:	1331011d 	teqne	r1, #1073741831	; 0x40000007
     12c:	42b80152 	adcsmi	r0, r8, #-2147483628	; 0x80000014
     130:	5817550b 	ldmdapl	r7, {r0, r1, r3, r8, sl, ip, lr}
     134:	570b590b 	strpl	r5, [fp, -fp, lsl #18]
     138:	0013010b 	andseq	r0, r3, fp, lsl #2
     13c:	00051700 	andeq	r1, r5, r0, lsl #14
     140:	17021331 	smladxne	r2, r1, r3, r1
     144:	001742b7 			; <UNDEFINED> instruction: 0x001742b7
     148:	00341800 	eorseq	r1, r4, r0, lsl #16
     14c:	17021331 	smladxne	r2, r1, r3, r1
     150:	001742b7 			; <UNDEFINED> instruction: 0x001742b7
     154:	001d1900 	andseq	r1, sp, r0, lsl #18
     158:	01521331 	cmpeq	r2, r1, lsr r3
     15c:	550b42b8 	strpl	r4, [fp, #-696]	; 0xfffffd48
     160:	590b5817 	stmdbpl	fp, {r0, r1, r2, r4, fp, ip, lr}
     164:	000b570b 	andeq	r5, fp, fp, lsl #14
     168:	010b1a00 	tsteq	fp, r0, lsl #20
     16c:	01111331 	tsteq	r1, r1, lsr r3
     170:	13010612 	movwne	r0, #5650	; 0x1612
     174:	1d1b0000 	ldcne	0, cr0, [fp, #-0]
     178:	52133100 	andspl	r3, r3, #0
     17c:	0b42b801 	bleq	10ae188 <__bss_end__+0x10a46e0>
     180:	06120111 			; <UNDEFINED> instruction: 0x06120111
     184:	0b590b58 	bleq	1642eec <__bss_end__+0x1639444>
     188:	00000b57 	andeq	r0, r0, r7, asr fp
     18c:	0182891c 	orreq	r8, r2, ip, lsl r9
     190:	31011101 	tstcc	r1, r1, lsl #2
     194:	1d000013 	stcne	0, cr0, [r0, #-76]	; 0xffffffb4
     198:	0001828a 	andeq	r8, r1, sl, lsl #5
     19c:	42911802 	addsmi	r1, r1, #131072	; 0x20000
     1a0:	1e000018 	mcrne	0, 0, r0, cr0, cr8, {0}
     1a4:	1331011d 	teqne	r1, #1073741831	; 0x40000007
     1a8:	42b80152 	adcsmi	r0, r8, #-2147483628	; 0x80000014
     1ac:	5817550b 	ldmdapl	r7, {r0, r1, r3, r8, sl, ip, lr}
     1b0:	570b590b 	strpl	r5, [fp, -fp, lsl #18]
     1b4:	1f00000b 	svcne	0x0000000b
     1b8:	1331010b 	teqne	r1, #-1073741822	; 0xc0000002
     1bc:	13011755 	movwne	r1, #5973	; 0x1755
     1c0:	0b200000 	bleq	8001c8 <__bss_end__+0x7f6720>
     1c4:	55133101 	ldrpl	r3, [r3, #-257]	; 0xfffffeff
     1c8:	21000017 	tstcs	r0, r7, lsl r0
     1cc:	13310034 	teqne	r1, #52, 0	; 0x34
     1d0:	89220000 	stmdbhi	r2!, {}	; <UNPREDICTABLE>
     1d4:	11010182 	smlabbne	r1, r2, r1, r0
     1d8:	01133101 	tsteq	r3, r1, lsl #2
     1dc:	23000013 	movwcs	r0, #19
     1e0:	00018289 	andeq	r8, r1, r9, lsl #5
     1e4:	13310111 	teqne	r1, #1073741828	; 0x40000004
     1e8:	01240000 			; <UNDEFINED> instruction: 0x01240000
     1ec:	01134901 	tsteq	r3, r1, lsl #18
     1f0:	25000013 	strcs	r0, [r0, #-19]	; 0xffffffed
     1f4:	13490021 	movtne	r0, #36897	; 0x9021
     1f8:	00000b2f 	andeq	r0, r0, pc, lsr #22
     1fc:	3f012e26 	svccc	0x00012e26
     200:	3a0e0319 	bcc	380e6c <__bss_end__+0x3773c4>
     204:	390b3b0b 	stmdbcc	fp, {r0, r1, r3, r8, r9, fp, ip, sp}
     208:	4919270b 	ldmdbmi	r9, {r0, r1, r3, r8, r9, sl, sp}
     20c:	010b2013 	tsteq	fp, r3, lsl r0
     210:	27000013 	smladcs	r0, r3, r0, r0
     214:	08030005 	stmdaeq	r3, {r0, r2}
     218:	0b3b0b3a 	bleq	ec2f08 <__bss_end__+0xeb9460>
     21c:	13490b39 	movtne	r0, #39737	; 0x9b39
     220:	05280000 	streq	r0, [r8, #-0]!
     224:	3a0e0300 	bcc	380e2c <__bss_end__+0x377384>
     228:	390b3b0b 	stmdbcc	fp, {r0, r1, r3, r8, r9, fp, ip, sp}
     22c:	0013490b 	andseq	r4, r3, fp, lsl #18
     230:	00342900 	eorseq	r2, r4, r0, lsl #18
     234:	0b3a0e03 	bleq	e83a48 <__bss_end__+0xe79fa0>
     238:	0b390b3b 	bleq	e42f2c <__bss_end__+0xe39484>
     23c:	00001349 	andeq	r1, r0, r9, asr #6
     240:	01010b2a 	tsteq	r1, sl, lsr #22
     244:	2b000013 	blcs	298 <__code_start__-0x7d68>
     248:	0000010b 	andeq	r0, r0, fp, lsl #2
     24c:	03002e2c 	movweq	r2, #3628	; 0xe2c
     250:	3b0b3a0e 	blcc	2cea90 <__bss_end__+0x2c4fe8>
     254:	490b390b 	stmdbmi	fp, {r0, r1, r3, r8, fp, ip, sp}
     258:	000b2013 	andeq	r2, fp, r3, lsl r0
     25c:	012e2d00 			; <UNDEFINED> instruction: 0x012e2d00
     260:	0b3a0e03 	bleq	e83a74 <__bss_end__+0xe79fcc>
     264:	0b390b3b 	bleq	e42f58 <__bss_end__+0xe394b0>
     268:	13491927 	movtne	r1, #39207	; 0x9927
     26c:	13010b20 	movwne	r0, #6944	; 0x1b20
     270:	342e0000 	strtcc	r0, [lr], #-0
     274:	490e0300 	stmdbmi	lr, {r8, r9}
     278:	1c193413 	cfldrsne	mvf3, [r9], {19}
     27c:	2f00000e 	svccs	0x0000000e
     280:	1331012e 	teqne	r1, #-2147483637	; 0x8000000b
     284:	06120111 			; <UNDEFINED> instruction: 0x06120111
     288:	42971840 	addsmi	r1, r7, #64, 16	; 0x400000
     28c:	00130119 	andseq	r0, r3, r9, lsl r1
     290:	002e3000 	eoreq	r3, lr, r0
     294:	193c193f 	ldmdbne	ip!, {r0, r1, r2, r3, r4, r5, r8, fp, ip}
     298:	0e030e6e 	cdpeq	14, 0, cr0, cr3, cr14, {3}
     29c:	0b3b0b3a 	bleq	ec2f8c <__bss_end__+0xeb94e4>
     2a0:	00000b39 	andeq	r0, r0, r9, lsr fp
     2a4:	00490100 	subeq	r0, r9, r0, lsl #2
     2a8:	187e1802 	ldmdane	lr!, {r1, fp, ip}^
     2ac:	05020000 	streq	r0, [r2, #-0]
     2b0:	02133100 	andseq	r3, r3, #0
     2b4:	1742b717 	smlaldne	fp, r2, r7, r7
     2b8:	24030000 	strcs	r0, [r3], #-0
     2bc:	3e0b0b00 	vmlacc.f64	d0, d11, d0
     2c0:	000e030b 	andeq	r0, lr, fp, lsl #6
     2c4:	00340400 	eorseq	r0, r4, r0, lsl #8
     2c8:	00001331 	andeq	r1, r0, r1, lsr r3
     2cc:	31003405 	tstcc	r0, r5, lsl #8
     2d0:	b7170213 			; <UNDEFINED> instruction: 0xb7170213
     2d4:	00001742 	andeq	r1, r0, r2, asr #14
     2d8:	03002806 	movweq	r2, #2054	; 0x806
     2dc:	000b1c0e 	andeq	r1, fp, lr, lsl #24
     2e0:	01480700 	cmpeq	r8, r0, lsl #14
     2e4:	0182017d 	orreq	r0, r2, sp, ror r1
     2e8:	00137f19 	andseq	r7, r3, r9, lsl pc
     2ec:	00050800 	andeq	r0, r5, r0, lsl #16
     2f0:	213a0803 	teqcs	sl, r3, lsl #16
     2f4:	390b3b01 	stmdbcc	fp, {r0, r8, r9, fp, ip, sp}
     2f8:	0213490b 	andseq	r4, r3, #180224	; 0x2c000
     2fc:	1742b717 	smlaldne	fp, r2, r7, r7
     300:	1d090000 	stcne	0, cr0, [r9, #-0]
     304:	52133101 	andspl	r3, r3, #1073741824	; 0x40000000
     308:	0b42b801 	bleq	10ae314 <__bss_end__+0x10a486c>
     30c:	21581755 	cmpcs	r8, r5, asr r7
     310:	570b5901 	strpl	r5, [fp, -r1, lsl #18]
     314:	0a00000b 	beq	348 <__code_start__-0x7cb8>
     318:	1755010b 	ldrbne	r0, [r5, -fp, lsl #2]
     31c:	050b0000 	streq	r0, [fp, #-0]
     320:	1c133100 	ldfnes	f3, [r3], {-0}
     324:	0c00000b 	stceq	0, cr0, [r0], {11}
     328:	08030005 	stmdaeq	r3, {r0, r2}
     32c:	0b3b0b3a 	bleq	ec301c <__bss_end__+0xeb9574>
     330:	13490b39 	movtne	r0, #39737	; 0x9b39
     334:	340d0000 	strcc	r0, [sp], #-0
     338:	3a0e0300 	bcc	380f40 <__bss_end__+0x377498>
     33c:	0b3b0121 	bleq	ec07c8 <__bss_end__+0xeb6d20>
     340:	49172139 	ldmdbmi	r7, {r0, r3, r4, r5, r8, sp}
     344:	00061c13 	andeq	r1, r6, r3, lsl ip
     348:	00050e00 	andeq	r0, r5, r0, lsl #28
     34c:	00001349 	andeq	r1, r0, r9, asr #6
     350:	3f012e0f 	svccc	0x00012e0f
     354:	3a0e0319 	bcc	380fc0 <__bss_end__+0x377518>
     358:	0b3b0121 	bleq	ec07e4 <__bss_end__+0xeb6d3c>
     35c:	27062139 	smladxcs	r6, r9, r1, r2
     360:	12011119 	andne	r1, r1, #1073741830	; 0x40000006
     364:	7a184006 	bvc	610384 <__bss_end__+0x6068dc>
     368:	00130119 	andseq	r0, r3, r9, lsl r1
     36c:	01481000 	mrseq	r1, (UNDEF: 72)
     370:	137f017d 	cmnne	pc, #1073741855	; 0x4000001f
     374:	00001301 	andeq	r1, r0, r1, lsl #6
     378:	3f012e11 	svccc	0x00012e11
     37c:	3a0e0319 	bcc	380fe8 <__bss_end__+0x377540>
     380:	0b3b0121 	bleq	ec080c <__bss_end__+0xeb6d64>
     384:	19270b39 	stmdbne	r7!, {r0, r3, r4, r5, r8, r9, fp}
     388:	13010b20 	movwne	r0, #6944	; 0x1b20
     38c:	34120000 	ldrcc	r0, [r2], #-0
     390:	3a080300 	bcc	200f98 <__bss_end__+0x1f74f0>
     394:	0b3b0121 	bleq	ec0820 <__bss_end__+0xeb6d78>
     398:	490e2139 	stmdbmi	lr, {r0, r3, r4, r5, r8, sp}
     39c:	13000013 	movwne	r0, #19
     3a0:	0e030016 	mcreq	0, 0, r0, cr3, cr6, {0}
     3a4:	0b3b0b3a 	bleq	ec3094 <__bss_end__+0xeb95ec>
     3a8:	13490b39 	movtne	r0, #39737	; 0x9b39
     3ac:	2e140000 	cdpcs	0, 1, cr0, cr4, cr0, {0}
     3b0:	11133101 	tstne	r3, r1, lsl #2
     3b4:	40061201 	andmi	r1, r6, r1, lsl #4
     3b8:	01197a18 	tsteq	r9, r8, lsl sl
     3bc:	15000013 	strne	r0, [r0, #-19]	; 0xffffffed
     3c0:	0e250111 	mcreq	1, 1, r0, cr5, cr1, {0}
     3c4:	0e030b13 	vmoveq.32	d3[0], r0
     3c8:	01110e1b 	tsteq	r1, fp, lsl lr
     3cc:	17100612 			; <UNDEFINED> instruction: 0x17100612
     3d0:	24160000 	ldrcs	r0, [r6], #-0
     3d4:	3e0b0b00 	vmlacc.f64	d0, d11, d0
     3d8:	0008030b 	andeq	r0, r8, fp, lsl #6
     3dc:	00261700 	eoreq	r1, r6, r0, lsl #14
     3e0:	00001349 	andeq	r1, r0, r9, asr #6
     3e4:	3e010418 	cfmvdlrcc	mvd1, r0
     3e8:	490b0b0b 	stmdbmi	fp, {r0, r1, r3, r8, r9, fp}
     3ec:	3b0b3a13 	blcc	2cec40 <__bss_end__+0x2c5198>
     3f0:	010b390b 	tsteq	fp, fp, lsl #18
     3f4:	19000013 	stmdbne	r0, {r0, r1, r4}
     3f8:	193f012e 	ldmdbne	pc!, {r1, r2, r3, r5, r8}	; <UNPREDICTABLE>
     3fc:	0b3a0e03 	bleq	e83c10 <__bss_end__+0xe7a168>
     400:	0b390b3b 	bleq	e430f4 <__bss_end__+0xe3964c>
     404:	193c1927 	ldmdbne	ip!, {r0, r1, r2, r5, r8, fp, ip}
     408:	00001301 	andeq	r1, r0, r1, lsl #6
     40c:	3f012e1a 	svccc	0x00012e1a
     410:	3a0e0319 	bcc	38107c <__bss_end__+0x3775d4>
     414:	390b3b0b 	stmdbcc	fp, {r0, r1, r3, r8, r9, fp, ip, sp}
     418:	4919270b 	ldmdbmi	r9, {r0, r1, r3, r8, r9, sl, sp}
     41c:	01193c13 	tsteq	r9, r3, lsl ip
     420:	1b000013 	blne	474 <__code_start__-0x7b8c>
     424:	193f012e 	ldmdbne	pc!, {r1, r2, r3, r5, r8}	; <UNPREDICTABLE>
     428:	0b3a0e03 	bleq	e83c3c <__bss_end__+0xe7a194>
     42c:	0b390b3b 	bleq	e43120 <__bss_end__+0xe39678>
     430:	13491927 	movtne	r1, #39207	; 0x9927
     434:	06120111 			; <UNDEFINED> instruction: 0x06120111
     438:	197a1840 	ldmdbne	sl!, {r6, fp, ip}^
     43c:	00001301 	andeq	r1, r0, r1, lsl #6
     440:	0300341c 	movweq	r3, #1052	; 0x41c
     444:	3b0b3a0e 	blcc	2cec84 <__bss_end__+0x2c51dc>
     448:	490b390b 	stmdbmi	fp, {r0, r1, r3, r8, fp, ip, sp}
     44c:	b7170213 			; <UNDEFINED> instruction: 0xb7170213
     450:	00001742 	andeq	r1, r0, r2, asr #14
     454:	0300341d 	movweq	r3, #1053	; 0x41d
     458:	3b0b3a08 	blcc	2cec80 <__bss_end__+0x2c51d8>
     45c:	490b390b 	stmdbmi	fp, {r0, r1, r3, r8, fp, ip, sp}
     460:	b7170213 			; <UNDEFINED> instruction: 0xb7170213
     464:	00001742 	andeq	r1, r0, r2, asr #14
     468:	7d01481e 	stcvc	8, cr4, [r1, #-120]	; 0xffffff88
     46c:	00137f01 	andseq	r7, r3, r1, lsl #30
     470:	011d1f00 	tsteq	sp, r0, lsl #30
     474:	01521331 	cmpeq	r2, r1, lsr r3
     478:	550b42b8 	strpl	r4, [fp, #-696]	; 0xfffffd48
     47c:	590b5817 	stmdbpl	fp, {r0, r1, r2, r4, fp, ip, lr}
     480:	010b570b 	tsteq	fp, fp, lsl #14
     484:	20000013 	andcs	r0, r0, r3, lsl r0
     488:	1331011d 	teqne	r1, #1073741831	; 0x40000007
     48c:	42b80152 	adcsmi	r0, r8, #-2147483628	; 0x80000014
     490:	1201110b 	andne	r1, r1, #-1073741822	; 0xc0000002
     494:	590b5806 	stmdbpl	fp, {r1, r2, fp, ip, lr}
     498:	000b570b 	andeq	r5, fp, fp, lsl #14
     49c:	00052100 	andeq	r2, r5, r0, lsl #2
     4a0:	0b3a0e03 	bleq	e83cb4 <__bss_end__+0xe7a20c>
     4a4:	0b390b3b 	bleq	e43198 <__bss_end__+0xe396f0>
     4a8:	00001349 	andeq	r1, r0, r9, asr #6
     4ac:	03012e22 	movweq	r2, #7714	; 0x1e22
     4b0:	3b0b3a0e 	blcc	2cecf0 <__bss_end__+0x2c5248>
     4b4:	270b390b 	strcs	r3, [fp, -fp, lsl #18]
     4b8:	20134919 	andscs	r4, r3, r9, lsl r9
     4bc:	0013010b 	andseq	r0, r3, fp, lsl #2
     4c0:	012e2300 			; <UNDEFINED> instruction: 0x012e2300
     4c4:	01111331 	tsteq	r1, r1, lsr r3
     4c8:	18400612 	stmdane	r0, {r1, r4, r9, sl}^
     4cc:	0000197a 	andeq	r1, r0, sl, ror r9
     4d0:	01110100 	tsteq	r1, r0, lsl #2
     4d4:	0b130e25 	bleq	4c3d70 <__bss_end__+0x4ba2c8>
     4d8:	0e1b0e03 	cdpeq	14, 1, cr0, cr11, cr3, {0}
     4dc:	06120111 			; <UNDEFINED> instruction: 0x06120111
     4e0:	00001710 	andeq	r1, r0, r0, lsl r7
     4e4:	03001602 	movweq	r1, #1538	; 0x602
     4e8:	3b0b3a0e 	blcc	2ced28 <__bss_end__+0x2c5280>
     4ec:	490b390b 	stmdbmi	fp, {r0, r1, r3, r8, fp, ip, sp}
     4f0:	03000013 	movweq	r0, #19
     4f4:	0e030113 	mcreq	1, 0, r0, cr3, cr3, {0}
     4f8:	0b3a0b0b 	bleq	e8312c <__bss_end__+0xe79684>
     4fc:	13010b3b 	movwne	r0, #6971	; 0x1b3b
     500:	0d040000 	stceq	0, cr0, [r4, #-0]
     504:	490e0300 	stmdbmi	lr, {r8, r9}
     508:	340b3813 	strcc	r3, [fp], #-2067	; 0xfffff7ed
     50c:	05000019 	streq	r0, [r0, #-25]	; 0xffffffe7
     510:	0b0b000f 	bleq	2c0554 <__bss_end__+0x2b6aac>
     514:	24060000 	strcs	r0, [r6], #-0
     518:	3e0b0b00 	vmlacc.f64	d0, d11, d0
     51c:	0008030b 	andeq	r0, r8, fp, lsl #6
     520:	00240700 	eoreq	r0, r4, r0, lsl #14
     524:	0b3e0b0b 	bleq	f83158 <__bss_end__+0xf796b0>
     528:	00000e03 	andeq	r0, r0, r3, lsl #28
     52c:	27011508 	strcs	r1, [r1, -r8, lsl #10]
     530:	01134919 	tsteq	r3, r9, lsl r9
     534:	09000013 	stmdbeq	r0, {r0, r1, r4}
     538:	13490005 	movtne	r0, #36869	; 0x9005
     53c:	340a0000 	strcc	r0, [sl], #-0
     540:	3a0e0300 	bcc	381148 <__bss_end__+0x3776a0>
     544:	390b3b0b 	stmdbcc	fp, {r0, r1, r3, r8, r9, fp, ip, sp}
     548:	3f13490b 	svccc	0x0013490b
     54c:	00193c19 	andseq	r3, r9, r9, lsl ip
     550:	000f0b00 	andeq	r0, pc, r0, lsl #22
     554:	13490b0b 	movtne	r0, #39691	; 0x9b0b
     558:	260c0000 	strcs	r0, [ip], -r0
     55c:	00134900 	andseq	r4, r3, r0, lsl #18
     560:	012e0d00 			; <UNDEFINED> instruction: 0x012e0d00
     564:	0e03193f 			; <UNDEFINED> instruction: 0x0e03193f
     568:	0b3b0b3a 	bleq	ec3258 <__bss_end__+0xeb97b0>
     56c:	19270b39 	stmdbne	r7!, {r0, r3, r4, r5, r8, r9, fp}
     570:	01111349 	tsteq	r1, r9, asr #6
     574:	18400612 	stmdane	r0, {r1, r4, r9, sl}^
     578:	01194297 			; <UNDEFINED> instruction: 0x01194297
     57c:	0e000013 	mcreq	0, 0, r0, cr0, cr3, {0}
     580:	08030005 	stmdaeq	r3, {r0, r2}
     584:	0b3b0b3a 	bleq	ec3274 <__bss_end__+0xeb97cc>
     588:	13490b39 	movtne	r0, #39737	; 0x9b39
     58c:	00001802 	andeq	r1, r0, r2, lsl #16
     590:	0000180f 	andeq	r1, r0, pc, lsl #16
     594:	00341000 	eorseq	r1, r4, r0
     598:	0b3a0803 	bleq	e825ac <__bss_end__+0xe78b04>
     59c:	0b390b3b 	bleq	e43290 <__bss_end__+0xe397e8>
     5a0:	18021349 	stmdane	r2, {r0, r3, r6, r8, r9, ip}
     5a4:	34110000 	ldrcc	r0, [r1], #-0
     5a8:	3a0e0300 	bcc	3811b0 <__bss_end__+0x377708>
     5ac:	390b3b0b 	stmdbcc	fp, {r0, r1, r3, r8, r9, fp, ip, sp}
     5b0:	0213490b 	andseq	r4, r3, #180224	; 0x2c000
     5b4:	12000018 	andne	r0, r0, #24, 0
     5b8:	08030034 	stmdaeq	r3, {r2, r4, r5}
     5bc:	0b3b0b3a 	bleq	ec32ac <__bss_end__+0xeb9804>
     5c0:	13490b39 	movtne	r0, #39737	; 0x9b39
     5c4:	42b71702 	adcsmi	r1, r7, #524288	; 0x80000
     5c8:	13000017 	movwne	r0, #23
     5cc:	01018289 	smlabbeq	r1, r9, r2, r8
     5d0:	13310111 	teqne	r1, #1073741828	; 0x40000004
     5d4:	00001301 	andeq	r1, r0, r1, lsl #6
     5d8:	01828a14 	orreq	r8, r2, r4, lsl sl
     5dc:	91180200 	tstls	r8, r0, lsl #4
     5e0:	00001842 	andeq	r1, r0, r2, asr #16
     5e4:	01828915 	orreq	r8, r2, r5, lsl r9
     5e8:	00011101 	andeq	r1, r1, r1, lsl #2
     5ec:	01011600 	tsteq	r1, r0, lsl #12
     5f0:	13011349 	movwne	r1, #4937	; 0x1349
     5f4:	21170000 	tstcs	r7, r0
     5f8:	2f134900 	svccs	0x00134900
     5fc:	18000005 	stmdane	r0, {r0, r2}
     600:	193f002e 	ldmdbne	pc!, {r1, r2, r3, r5}	; <UNPREDICTABLE>
     604:	0e6e193c 			; <UNDEFINED> instruction: 0x0e6e193c
     608:	0b3a0e03 	bleq	e83e1c <__bss_end__+0xe7a374>
     60c:	0b390b3b 	bleq	e43300 <__bss_end__+0xe39858>
     610:	01000000 	mrseq	r0, (UNDEF: 0)
     614:	0e250111 	mcreq	1, 1, r0, cr5, cr1, {0}
     618:	0e030b13 	vmoveq.32	d3[0], r0
     61c:	01110e1b 	tsteq	r1, fp, lsl lr
     620:	17100612 			; <UNDEFINED> instruction: 0x17100612
     624:	24020000 	strcs	r0, [r2], #-0
     628:	3e0b0b00 	vmlacc.f64	d0, d11, d0
     62c:	0008030b 	andeq	r0, r8, fp, lsl #6
     630:	00240300 	eoreq	r0, r4, r0, lsl #6
     634:	0b3e0b0b 	bleq	f83268 <__bss_end__+0xf797c0>
     638:	00000e03 	andeq	r0, r0, r3, lsl #28
     63c:	27011504 	strcs	r1, [r1, -r4, lsl #10]
     640:	01134919 	tsteq	r3, r9, lsl r9
     644:	05000013 	streq	r0, [r0, #-19]	; 0xffffffed
     648:	13490005 	movtne	r0, #36869	; 0x9005
     64c:	34060000 	strcc	r0, [r6], #-0
     650:	3a0e0300 	bcc	381258 <__bss_end__+0x3777b0>
     654:	390b3b0b 	stmdbcc	fp, {r0, r1, r3, r8, r9, fp, ip, sp}
     658:	3f13490b 	svccc	0x0013490b
     65c:	00193c19 	andseq	r3, r9, r9, lsl ip
     660:	000f0700 	andeq	r0, pc, r0, lsl #14
     664:	13490b0b 	movtne	r0, #39691	; 0x9b0b
     668:	26080000 	strcs	r0, [r8], -r0
     66c:	00134900 	andseq	r4, r3, r0, lsl #18
     670:	00340900 	eorseq	r0, r4, r0, lsl #18
     674:	0b3a1347 	bleq	e85398 <__bss_end__+0xe7b8f0>
     678:	0b390b3b 	bleq	e4336c <__bss_end__+0xe398c4>
     67c:	00001802 	andeq	r1, r0, r2, lsl #16
     680:	3f012e0a 	svccc	0x00012e0a
     684:	3a0e0319 	bcc	3812f0 <__bss_end__+0x377848>
     688:	390b3b0b 	stmdbcc	fp, {r0, r1, r3, r8, r9, fp, ip, sp}
     68c:	4919270b 	ldmdbmi	r9, {r0, r1, r3, r8, r9, sl, sp}
     690:	12011113 	andne	r1, r1, #-1073741820	; 0xc0000004
     694:	96184006 	ldrls	r4, [r8], -r6
     698:	00001942 	andeq	r1, r0, r2, asr #18
     69c:	0300050b 	movweq	r0, #1291	; 0x50b
     6a0:	3b0b3a08 	blcc	2ceec8 <__bss_end__+0x2c5420>
     6a4:	490b390b 	stmdbmi	fp, {r0, r1, r3, r8, fp, ip, sp}
     6a8:	b7170213 			; <UNDEFINED> instruction: 0xb7170213
     6ac:	00001742 	andeq	r1, r0, r2, asr #14
     6b0:	01110100 	tsteq	r1, r0, lsl #2
     6b4:	0b130e25 	bleq	4c3f50 <__bss_end__+0x4ba4a8>
     6b8:	0e1b0e03 	cdpeq	14, 1, cr0, cr11, cr3, {0}
     6bc:	06120111 			; <UNDEFINED> instruction: 0x06120111
     6c0:	00001710 	andeq	r1, r0, r0, lsl r7
     6c4:	0b002402 	bleq	96d4 <__data_end__+0x2c>
     6c8:	030b3e0b 	movweq	r3, #48651	; 0xbe0b
     6cc:	0300000e 	movweq	r0, #14
     6d0:	0b0b0024 	bleq	2c0768 <__bss_end__+0x2b6cc0>
     6d4:	08030b3e 	stmdaeq	r3, {r1, r2, r3, r4, r5, r8, r9, fp}
     6d8:	16040000 	strne	r0, [r4], -r0
     6dc:	3a0e0300 	bcc	3812e4 <__bss_end__+0x37783c>
     6e0:	390b3b0b 	stmdbcc	fp, {r0, r1, r3, r8, r9, fp, ip, sp}
     6e4:	0013490b 	andseq	r4, r3, fp, lsl #18
     6e8:	01150500 	tsteq	r5, r0, lsl #10
     6ec:	13491927 	movtne	r1, #39207	; 0x9927
     6f0:	00001301 	andeq	r1, r0, r1, lsl #6
     6f4:	49000506 	stmdbmi	r0, {r1, r2, r8, sl}
     6f8:	07000013 	smladeq	r0, r3, r0, r0
     6fc:	0e030034 	mcreq	0, 0, r0, cr3, cr4, {1}
     700:	0b3b0b3a 	bleq	ec33f0 <__bss_end__+0xeb9948>
     704:	13490b39 	movtne	r0, #39737	; 0x9b39
     708:	193c193f 	ldmdbne	ip!, {r0, r1, r2, r3, r4, r5, r8, fp, ip}
     70c:	0f080000 	svceq	0x00080000
     710:	490b0b00 	stmdbmi	fp, {r8, r9, fp}
     714:	09000013 	stmdbeq	r0, {r0, r1, r4}
     718:	13490026 	movtne	r0, #36902	; 0x9026
     71c:	130a0000 	movwne	r0, #40960	; 0xa000
     720:	0b0e0301 	bleq	38132c <__bss_end__+0x377884>
     724:	3b0b3a0b 	blcc	2cef58 <__bss_end__+0x2c54b0>
     728:	0013010b 	andseq	r0, r3, fp, lsl #2
     72c:	000d0b00 	andeq	r0, sp, r0, lsl #22
     730:	13490e03 	movtne	r0, #40451	; 0x9e03
     734:	19340b38 	ldmdbne	r4!, {r3, r4, r5, r8, r9, fp}
     738:	0f0c0000 	svceq	0x000c0000
     73c:	000b0b00 	andeq	r0, fp, r0, lsl #22
     740:	012e0d00 			; <UNDEFINED> instruction: 0x012e0d00
     744:	0e03193f 			; <UNDEFINED> instruction: 0x0e03193f
     748:	0b3b0b3a 	bleq	ec3438 <__bss_end__+0xeb9990>
     74c:	19270b39 	stmdbne	r7!, {r0, r3, r4, r5, r8, r9, fp}
     750:	01111349 	tsteq	r1, r9, asr #6
     754:	18400612 	stmdane	r0, {r1, r4, r9, sl}^
     758:	01194297 			; <UNDEFINED> instruction: 0x01194297
     75c:	0e000013 	mcreq	0, 0, r0, cr0, cr3, {0}
     760:	08030005 	stmdaeq	r3, {r0, r2}
     764:	0b3b0b3a 	bleq	ec3454 <__bss_end__+0xeb99ac>
     768:	13490b39 	movtne	r0, #39737	; 0x9b39
     76c:	42b71702 	adcsmi	r1, r7, #524288	; 0x80000
     770:	0f000017 	svceq	0x00000017
     774:	0e030005 	cdpeq	0, 0, cr0, cr3, cr5, {0}
     778:	0b3b0b3a 	bleq	ec3468 <__bss_end__+0xeb99c0>
     77c:	13490b39 	movtne	r0, #39737	; 0x9b39
     780:	42b71702 	adcsmi	r1, r7, #524288	; 0x80000
     784:	10000017 	andne	r0, r0, r7, lsl r0
     788:	08030034 	stmdaeq	r3, {r2, r4, r5}
     78c:	0b3b0b3a 	bleq	ec347c <__bss_end__+0xeb99d4>
     790:	13490b39 	movtne	r0, #39737	; 0x9b39
     794:	42b71702 	adcsmi	r1, r7, #524288	; 0x80000
     798:	11000017 	tstne	r0, r7, lsl r0
     79c:	0e030034 	mcreq	0, 0, r0, cr3, cr4, {1}
     7a0:	0b3b0b3a 	bleq	ec3490 <__bss_end__+0xeb99e8>
     7a4:	13490b39 	movtne	r0, #39737	; 0x9b39
     7a8:	42b71702 	adcsmi	r1, r7, #524288	; 0x80000
     7ac:	12000017 	andne	r0, r0, #23, 0
     7b0:	0e030034 	mcreq	0, 0, r0, cr3, cr4, {1}
     7b4:	19341349 	ldmdbne	r4!, {r0, r3, r6, r8, r9, ip}
     7b8:	00001802 	andeq	r1, r0, r2, lsl #16
     7bc:	55010b13 	strpl	r0, [r1, #-2835]	; 0xfffff4ed
     7c0:	14000017 	strne	r0, [r0], #-23	; 0xffffffe9
     7c4:	08030034 	stmdaeq	r3, {r2, r4, r5}
     7c8:	0b3b0b3a 	bleq	ec34b8 <__bss_end__+0xeb9a10>
     7cc:	13490b39 	movtne	r0, #39737	; 0x9b39
     7d0:	00001802 	andeq	r1, r0, r2, lsl #16
     7d4:	03003415 	movweq	r3, #1045	; 0x415
     7d8:	3b0b3a0e 	blcc	2cf018 <__bss_end__+0x2c5570>
     7dc:	490b390b 	stmdbmi	fp, {r0, r1, r3, r8, fp, ip, sp}
     7e0:	00180213 	andseq	r0, r8, r3, lsl r2
     7e4:	010b1600 	tsteq	fp, r0, lsl #12
     7e8:	13011755 	movwne	r1, #5973	; 0x1755
     7ec:	89170000 	ldmdbhi	r7, {}	; <UNPREDICTABLE>
     7f0:	11010182 	smlabbne	r1, r2, r1, r0
     7f4:	01133101 	tsteq	r3, r1, lsl #2
     7f8:	18000013 	stmdane	r0, {r0, r1, r4}
     7fc:	0001828a 	andeq	r8, r1, sl, lsl #5
     800:	42911802 	addsmi	r1, r1, #131072	; 0x20000
     804:	19000018 	stmdbne	r0, {r3, r4}
     808:	00018289 	andeq	r8, r1, r9, lsl #5
     80c:	13310111 	teqne	r1, #1073741828	; 0x40000004
     810:	1d1a0000 	ldcne	0, cr0, [sl, #-0]
     814:	52133101 	andspl	r3, r3, #1073741824	; 0x40000000
     818:	0542b801 	strbeq	fp, [r2, #-2049]	; 0xfffff7ff
     81c:	0b581755 	bleq	1606578 <__bss_end__+0x15fcad0>
     820:	0b570b59 	bleq	15c358c <__bss_end__+0x15b9ae4>
     824:	00001301 	andeq	r1, r0, r1, lsl #6
     828:	3100051b 	tstcc	r0, fp, lsl r5
     82c:	b7170213 			; <UNDEFINED> instruction: 0xb7170213
     830:	00001742 	andeq	r1, r0, r2, asr #14
     834:	3100051c 	tstcc	r0, ip, lsl r5
     838:	1d000013 	stcne	0, cr0, [r0, #-76]	; 0xffffffb4
     83c:	13310034 	teqne	r1, #52, 0	; 0x34
     840:	00001802 	andeq	r1, r0, r2, lsl #16
     844:	3100341e 	tstcc	r0, lr, lsl r4
     848:	b7170213 			; <UNDEFINED> instruction: 0xb7170213
     84c:	00001742 	andeq	r1, r0, r2, asr #14
     850:	3100341f 	tstcc	r0, pc, lsl r4
     854:	20000013 	andcs	r0, r0, r3, lsl r0
     858:	1331011d 	teqne	r1, #1073741831	; 0x40000007
     85c:	42b80152 	adcsmi	r0, r8, #-2147483628	; 0x80000014
     860:	58175505 	ldmdapl	r7, {r0, r2, r8, sl, ip, lr}
     864:	570b590b 	strpl	r5, [fp, -fp, lsl #18]
     868:	2100000b 	tstcs	r0, fp
     86c:	01018289 	smlabbeq	r1, r9, r2, r8
     870:	13010111 	movwne	r0, #4369	; 0x1111
     874:	01220000 			; <UNDEFINED> instruction: 0x01220000
     878:	01134901 	tsteq	r3, r1, lsl #18
     87c:	23000013 	movwcs	r0, #19
     880:	13490021 	movtne	r0, #36897	; 0x9021
     884:	00000b2f 	andeq	r0, r0, pc, lsr #22
     888:	03012e24 	movweq	r2, #7716	; 0x1e24
     88c:	3b0b3a0e 	blcc	2cf0cc <__bss_end__+0x2c5624>
     890:	270b390b 	strcs	r3, [fp, -fp, lsl #18]
     894:	20134919 	andscs	r4, r3, r9, lsl r9
     898:	0013010b 	andseq	r0, r3, fp, lsl #2
     89c:	00052500 	andeq	r2, r5, r0, lsl #10
     8a0:	0b3a0e03 	bleq	e840b4 <__bss_end__+0xe7a60c>
     8a4:	0b390b3b 	bleq	e43598 <__bss_end__+0xe39af0>
     8a8:	00001349 	andeq	r1, r0, r9, asr #6
     8ac:	03000526 	movweq	r0, #1318	; 0x526
     8b0:	3b0b3a08 	blcc	2cf0d8 <__bss_end__+0x2c5630>
     8b4:	490b390b 	stmdbmi	fp, {r0, r1, r3, r8, fp, ip, sp}
     8b8:	27000013 	smladcs	r0, r3, r0, r0
     8bc:	08030034 	stmdaeq	r3, {r2, r4, r5}
     8c0:	0b3b0b3a 	bleq	ec35b0 <__bss_end__+0xeb9b08>
     8c4:	13490b39 	movtne	r0, #39737	; 0x9b39
     8c8:	0b280000 	bleq	a008d0 <__bss_end__+0x9f6e28>
     8cc:	29000001 	stmdbcs	r0, {r0}
     8d0:	0e030034 	mcreq	0, 0, r0, cr3, cr4, {1}
     8d4:	0b3b0b3a 	bleq	ec35c4 <__bss_end__+0xeb9b1c>
     8d8:	13490b39 	movtne	r0, #39737	; 0x9b39
     8dc:	2e2a0000 	cdpcs	0, 2, cr0, cr10, cr0, {0}
     8e0:	3a080301 	bcc	2014ec <__bss_end__+0x1f7a44>
     8e4:	390b3b0b 	stmdbcc	fp, {r0, r1, r3, r8, r9, fp, ip, sp}
     8e8:	4919270b 	ldmdbmi	r9, {r0, r1, r3, r8, r9, sl, sp}
     8ec:	010b2013 	tsteq	fp, r3, lsl r0
     8f0:	2b000013 	blcs	944 <__code_start__-0x76bc>
     8f4:	193f012e 	ldmdbne	pc!, {r1, r2, r3, r5, r8}	; <UNPREDICTABLE>
     8f8:	0b3a0e03 	bleq	e8410c <__bss_end__+0xe7a664>
     8fc:	0b390b3b 	bleq	e435f0 <__bss_end__+0xe39b48>
     900:	01111927 	tsteq	r1, r7, lsr #18
     904:	18400612 	stmdane	r0, {r1, r4, r9, sl}^
     908:	01194297 			; <UNDEFINED> instruction: 0x01194297
     90c:	2c000013 	stccs	0, cr0, [r0], {19}
     910:	1331012e 	teqne	r1, #-2147483637	; 0x8000000b
     914:	06120111 			; <UNDEFINED> instruction: 0x06120111
     918:	42971840 	addsmi	r1, r7, #64, 16	; 0x400000
     91c:	00130119 	andseq	r0, r3, r9, lsl r1
     920:	00052d00 	andeq	r2, r5, r0, lsl #26
     924:	18021331 	stmdane	r2, {r0, r4, r5, r8, r9, ip}
     928:	052e0000 	streq	r0, [lr, #-0]!
     92c:	1c133100 	ldfnes	f3, [r3], {-0}
     930:	2f00000b 	svccs	0x0000000b
     934:	1331010b 	teqne	r1, #-1073741822	; 0xc0000002
     938:	06120111 			; <UNDEFINED> instruction: 0x06120111
     93c:	00001301 	andeq	r1, r0, r1, lsl #6
     940:	3f002e30 	svccc	0x00002e30
     944:	6e193c19 	mrcvs	12, 0, r3, cr9, cr9, {0}
     948:	3a0e030e 	bcc	381588 <__bss_end__+0x377ae0>
     94c:	390b3b0b 	stmdbcc	fp, {r0, r1, r3, r8, r9, fp, ip, sp}
     950:	0000000b 	andeq	r0, r0, fp
     954:	25011101 	strcs	r1, [r1, #-257]	; 0xfffffeff
     958:	030b130e 	movweq	r1, #45838	; 0xb30e
     95c:	550e1b0e 	strpl	r1, [lr, #-2830]	; 0xfffff4f2
     960:	10011117 	andne	r1, r1, r7, lsl r1
     964:	02000017 	andeq	r0, r0, #23, 0
     968:	0b0b0024 	bleq	2c0a00 <__bss_end__+0x2b6f58>
     96c:	08030b3e 	stmdaeq	r3, {r1, r2, r3, r4, r5, r8, r9, fp}
     970:	24030000 	strcs	r0, [r3], #-0
     974:	3e0b0b00 	vmlacc.f64	d0, d11, d0
     978:	000e030b 	andeq	r0, lr, fp, lsl #6
     97c:	01150400 	tsteq	r5, r0, lsl #8
     980:	13491927 	movtne	r1, #39207	; 0x9927
     984:	00001301 	andeq	r1, r0, r1, lsl #6
     988:	49000505 	stmdbmi	r0, {r0, r2, r8, sl}
     98c:	06000013 			; <UNDEFINED> instruction: 0x06000013
     990:	0e030034 	mcreq	0, 0, r0, cr3, cr4, {1}
     994:	0b3b0b3a 	bleq	ec3684 <__bss_end__+0xeb9bdc>
     998:	13490b39 	movtne	r0, #39737	; 0x9b39
     99c:	193c193f 	ldmdbne	ip!, {r0, r1, r2, r3, r4, r5, r8, fp, ip}
     9a0:	0f070000 	svceq	0x00070000
     9a4:	490b0b00 	stmdbmi	fp, {r8, r9, fp}
     9a8:	08000013 	stmdaeq	r0, {r0, r1, r4}
     9ac:	13490026 	movtne	r0, #36902	; 0x9026
     9b0:	2e090000 	cdpcs	0, 0, cr0, cr9, cr0, {0}
     9b4:	03193f01 	tsteq	r9, #1, 30
     9b8:	3b0b3a0e 	blcc	2cf1f8 <__bss_end__+0x2c5750>
     9bc:	270b390b 	strcs	r3, [fp, -fp, lsl #18]
     9c0:	12011119 	andne	r1, r1, #1073741830	; 0x40000006
     9c4:	97184006 	ldrls	r4, [r8, -r6]
     9c8:	13011942 	movwne	r1, #6466	; 0x1942
     9cc:	340a0000 	strcc	r0, [sl], #-0
     9d0:	3a080300 	bcc	2015d8 <__bss_end__+0x1f7b30>
     9d4:	390b3b0b 	stmdbcc	fp, {r0, r1, r3, r8, r9, fp, ip, sp}
     9d8:	0213490b 	andseq	r4, r3, #180224	; 0x2c000
     9dc:	1742b717 	smlaldne	fp, r2, r7, r7
     9e0:	2e0b0000 	cdpcs	0, 0, cr0, cr11, cr0, {0}
     9e4:	03193f01 	tsteq	r9, #1, 30
     9e8:	3b0b3a0e 	blcc	2cf228 <__bss_end__+0x2c5780>
     9ec:	270b390b 	strcs	r3, [fp, -fp, lsl #18]
     9f0:	12011119 	andne	r1, r1, #1073741830	; 0x40000006
     9f4:	97184006 	ldrls	r4, [r8, -r6]
     9f8:	00001942 	andeq	r1, r0, r2, asr #18
     9fc:	01110100 	tsteq	r1, r0, lsl #2
     a00:	0b130e25 	bleq	4c429c <__bss_end__+0x4ba7f4>
     a04:	0e1b0e03 	cdpeq	14, 1, cr0, cr11, cr3, {0}
     a08:	06120111 			; <UNDEFINED> instruction: 0x06120111
     a0c:	00001710 	andeq	r1, r0, r0, lsl r7
     a10:	0b002402 	bleq	9a20 <__data_end__+0x378>
     a14:	030b3e0b 	movweq	r3, #48651	; 0xbe0b
     a18:	03000008 	movweq	r0, #8
     a1c:	0b0b0024 	bleq	2c0ab4 <__bss_end__+0x2b700c>
     a20:	0e030b3e 	vmoveq.16	d3[0], r0
     a24:	15040000 	strne	r0, [r4, #-0]
     a28:	49192701 	ldmdbmi	r9, {r0, r8, r9, sl, sp}
     a2c:	00130113 	andseq	r0, r3, r3, lsl r1
     a30:	00050500 	andeq	r0, r5, r0, lsl #10
     a34:	00001349 	andeq	r1, r0, r9, asr #6
     a38:	03003406 	movweq	r3, #1030	; 0x406
     a3c:	3b0b3a0e 	blcc	2cf27c <__bss_end__+0x2c57d4>
     a40:	490b390b 	stmdbmi	fp, {r0, r1, r3, r8, fp, ip, sp}
     a44:	3c193f13 	ldccc	15, cr3, [r9], {19}
     a48:	07000019 	smladeq	r0, r9, r0, r0
     a4c:	0b0b000f 	bleq	2c0a90 <__bss_end__+0x2b6fe8>
     a50:	00001349 	andeq	r1, r0, r9, asr #6
     a54:	49002608 	stmdbmi	r0, {r3, r9, sl, sp}
     a58:	09000013 	stmdbeq	r0, {r0, r1, r4}
     a5c:	193f012e 	ldmdbne	pc!, {r1, r2, r3, r5, r8}	; <UNPREDICTABLE>
     a60:	0b3a0e03 	bleq	e84274 <__bss_end__+0xe7a7cc>
     a64:	0b390b3b 	bleq	e43758 <__bss_end__+0xe39cb0>
     a68:	01871927 	orreq	r1, r7, r7, lsr #18
     a6c:	12011119 	andne	r1, r1, #1073741830	; 0x40000006
     a70:	97184006 	ldrls	r4, [r8, -r6]
     a74:	13011942 	movwne	r1, #6466	; 0x1942
     a78:	890a0000 	stmdbhi	sl, {}	; <UNPREDICTABLE>
     a7c:	11010182 	smlabbne	r1, r2, r1, r0
     a80:	00130101 	andseq	r0, r3, r1, lsl #2
     a84:	828a0b00 	addhi	r0, sl, #0, 22
     a88:	18020001 	stmdane	r2, {r0}
     a8c:	00184291 	mulseq	r8, r1, r2
     a90:	82890c00 	addhi	r0, r9, #0, 24
     a94:	01110001 	tsteq	r1, r1
     a98:	00001331 	andeq	r1, r0, r1, lsr r3
     a9c:	0182890d 	orreq	r8, r2, sp, lsl #18
     aa0:	31011101 	tstcc	r1, r1, lsl #2
     aa4:	00130113 	andseq	r0, r3, r3, lsl r1
     aa8:	002e0e00 	eoreq	r0, lr, r0, lsl #28
     aac:	193c193f 	ldmdbne	ip!, {r0, r1, r2, r3, r4, r5, r8, fp, ip}
     ab0:	0e030e6e 	cdpeq	14, 0, cr0, cr3, cr14, {3}
     ab4:	0b3b0b3a 	bleq	ec37a4 <__bss_end__+0xeb9cfc>
     ab8:	00000b39 	andeq	r0, r0, r9, lsr fp
     abc:	01110100 	tsteq	r1, r0, lsl #2
     ac0:	0b130e25 	bleq	4c435c <__bss_end__+0x4ba8b4>
     ac4:	0e1b0e03 	cdpeq	14, 1, cr0, cr11, cr3, {0}
     ac8:	06120111 			; <UNDEFINED> instruction: 0x06120111
     acc:	00001710 	andeq	r1, r0, r0, lsl r7
     ad0:	0b002402 	bleq	9ae0 <__bss_end__+0x38>
     ad4:	030b3e0b 	movweq	r3, #48651	; 0xbe0b
     ad8:	03000008 	movweq	r0, #8
     adc:	0b0b0024 	bleq	2c0b74 <__bss_end__+0x2b70cc>
     ae0:	0e030b3e 	vmoveq.16	d3[0], r0
     ae4:	15040000 	strne	r0, [r4, #-0]
     ae8:	49192701 	ldmdbmi	r9, {r0, r8, r9, sl, sp}
     aec:	00130113 	andseq	r0, r3, r3, lsl r1
     af0:	00050500 	andeq	r0, r5, r0, lsl #10
     af4:	00001349 	andeq	r1, r0, r9, asr #6
     af8:	03003406 	movweq	r3, #1030	; 0x406
     afc:	3b0b3a0e 	blcc	2cf33c <__bss_end__+0x2c5894>
     b00:	490b390b 	stmdbmi	fp, {r0, r1, r3, r8, fp, ip, sp}
     b04:	3c193f13 	ldccc	15, cr3, [r9], {19}
     b08:	07000019 	smladeq	r0, r9, r0, r0
     b0c:	0b0b000f 	bleq	2c0b50 <__bss_end__+0x2b70a8>
     b10:	00001349 	andeq	r1, r0, r9, asr #6
     b14:	49002608 	stmdbmi	r0, {r3, r9, sl, sp}
     b18:	09000013 	stmdbeq	r0, {r0, r1, r4}
     b1c:	193f012e 	ldmdbne	pc!, {r1, r2, r3, r5, r8}	; <UNPREDICTABLE>
     b20:	0b3a0e03 	bleq	e84334 <__bss_end__+0xe7a88c>
     b24:	0b390b3b 	bleq	e43818 <__bss_end__+0xe39d70>
     b28:	06120111 			; <UNDEFINED> instruction: 0x06120111
     b2c:	42971840 	addsmi	r1, r7, #64, 16	; 0x400000
     b30:	00130119 	andseq	r0, r3, r9, lsl r1
     b34:	002e0a00 	eoreq	r0, lr, r0, lsl #20
     b38:	0e03193f 			; <UNDEFINED> instruction: 0x0e03193f
     b3c:	0b3b0b3a 	bleq	ec382c <__bss_end__+0xeb9d84>
     b40:	19270b39 	stmdbne	r7!, {r0, r3, r4, r5, r8, r9, fp}
     b44:	0000193c 	andeq	r1, r0, ip, lsr r9
     b48:	0300340b 	movweq	r3, #1035	; 0x40b
     b4c:	3b0b3a08 	blcc	2cf374 <__bss_end__+0x2c58cc>
     b50:	490b390b 	stmdbmi	fp, {r0, r1, r3, r8, fp, ip, sp}
     b54:	b7170213 			; <UNDEFINED> instruction: 0xb7170213
     b58:	00001742 	andeq	r1, r0, r2, asr #14
     b5c:	0300340c 	movweq	r3, #1036	; 0x40c
     b60:	3b0b3a0e 	blcc	2cf3a0 <__bss_end__+0x2c58f8>
     b64:	490b390b 	stmdbmi	fp, {r0, r1, r3, r8, fp, ip, sp}
     b68:	0d000013 	stceq	0, cr0, [r0, #-76]	; 0xffffffb4
     b6c:	0111010b 	tsteq	r1, fp, lsl #2
     b70:	13010612 	movwne	r0, #5650	; 0x1612
     b74:	890e0000 	stmdbhi	lr, {}	; <UNPREDICTABLE>
     b78:	11000182 	smlabbne	r0, r2, r1, r0
     b7c:	00133101 	andseq	r3, r3, r1, lsl #2
     b80:	002e0f00 	eoreq	r0, lr, r0, lsl #30
     b84:	193c193f 	ldmdbne	ip!, {r0, r1, r2, r3, r4, r5, r8, fp, ip}
     b88:	0e030e6e 	cdpeq	14, 0, cr0, cr3, cr14, {3}
     b8c:	053b0b3a 	ldreq	r0, [fp, #-2874]!	; 0xfffff4c6
     b90:	00000b39 	andeq	r0, r0, r9, lsr fp
     b94:	3f002e10 	svccc	0x00002e10
     b98:	6e193c19 	mrcvs	12, 0, r3, cr9, cr9, {0}
     b9c:	3a0e030e 	bcc	3817dc <__bss_end__+0x377d34>
     ba0:	390b3b0b 	stmdbcc	fp, {r0, r1, r3, r8, r9, fp, ip, sp}
     ba4:	0000000b 	andeq	r0, r0, fp
     ba8:	25011101 	strcs	r1, [r1, #-257]	; 0xfffffeff
     bac:	030b130e 	movweq	r1, #45838	; 0xb30e
     bb0:	110e1b0e 	tstne	lr, lr, lsl #22
     bb4:	10061201 	andne	r1, r6, r1, lsl #4
     bb8:	02000017 	andeq	r0, r0, #23, 0
     bbc:	0b0b0024 	bleq	2c0c54 <__bss_end__+0x2b71ac>
     bc0:	08030b3e 	stmdaeq	r3, {r1, r2, r3, r4, r5, r8, r9, fp}
     bc4:	24030000 	strcs	r0, [r3], #-0
     bc8:	3e0b0b00 	vmlacc.f64	d0, d11, d0
     bcc:	000e030b 	andeq	r0, lr, fp, lsl #6
     bd0:	01150400 	tsteq	r5, r0, lsl #8
     bd4:	13491927 	movtne	r1, #39207	; 0x9927
     bd8:	00001301 	andeq	r1, r0, r1, lsl #6
     bdc:	49000505 	stmdbmi	r0, {r0, r2, r8, sl}
     be0:	06000013 			; <UNDEFINED> instruction: 0x06000013
     be4:	0e030034 	mcreq	0, 0, r0, cr3, cr4, {1}
     be8:	0b3b0b3a 	bleq	ec38d8 <__bss_end__+0xeb9e30>
     bec:	13490b39 	movtne	r0, #39737	; 0x9b39
     bf0:	193c193f 	ldmdbne	ip!, {r0, r1, r2, r3, r4, r5, r8, fp, ip}
     bf4:	0f070000 	svceq	0x00070000
     bf8:	490b0b00 	stmdbmi	fp, {r8, r9, fp}
     bfc:	08000013 	stmdaeq	r0, {r0, r1, r4}
     c00:	13490026 	movtne	r0, #36902	; 0x9026
     c04:	2e090000 	cdpcs	0, 0, cr0, cr9, cr0, {0}
     c08:	03193f00 	tsteq	r9, #0, 30
     c0c:	3b0b3a0e 	blcc	2cf44c <__bss_end__+0x2c59a4>
     c10:	270b390b 	strcs	r3, [fp, -fp, lsl #18]
     c14:	12011119 	andne	r1, r1, #1073741830	; 0x40000006
     c18:	97184006 	ldrls	r4, [r8, -r6]
     c1c:	00001942 	andeq	r1, r0, r2, asr #18
     c20:	01110100 	tsteq	r1, r0, lsl #2
     c24:	0b130e25 	bleq	4c44c0 <__bss_end__+0x4baa18>
     c28:	0e1b0e03 	cdpeq	14, 1, cr0, cr11, cr3, {0}
     c2c:	01111755 	tsteq	r1, r5, asr r7
     c30:	00001710 	andeq	r1, r0, r0, lsl r7
     c34:	0b002402 	bleq	9c44 <__bss_end__+0x19c>
     c38:	030b3e0b 	movweq	r3, #48651	; 0xbe0b
     c3c:	03000008 	movweq	r0, #8
     c40:	13490026 	movtne	r0, #36902	; 0x9026
     c44:	24040000 	strcs	r0, [r4], #-0
     c48:	3e0b0b00 	vmlacc.f64	d0, d11, d0
     c4c:	000e030b 	andeq	r0, lr, fp, lsl #6
     c50:	01150500 	tsteq	r5, r0, lsl #10
     c54:	13491927 	movtne	r1, #39207	; 0x9927
     c58:	00001301 	andeq	r1, r0, r1, lsl #6
     c5c:	49000506 	stmdbmi	r0, {r1, r2, r8, sl}
     c60:	07000013 	smladeq	r0, r3, r0, r0
     c64:	0e030034 	mcreq	0, 0, r0, cr3, cr4, {1}
     c68:	0b3b0b3a 	bleq	ec3958 <__bss_end__+0xeb9eb0>
     c6c:	13490b39 	movtne	r0, #39737	; 0x9b39
     c70:	193c193f 	ldmdbne	ip!, {r0, r1, r2, r3, r4, r5, r8, fp, ip}
     c74:	0f080000 	svceq	0x00080000
     c78:	490b0b00 	stmdbmi	fp, {r8, r9, fp}
     c7c:	09000013 	stmdbeq	r0, {r0, r1, r4}
     c80:	0e030034 	mcreq	0, 0, r0, cr3, cr4, {1}
     c84:	0b3b0b3a 	bleq	ec3974 <__bss_end__+0xeb9ecc>
     c88:	13490b39 	movtne	r0, #39737	; 0x9b39
     c8c:	2e0a0000 	cdpcs	0, 0, cr0, cr10, cr0, {0}
     c90:	03193f01 	tsteq	r9, #1, 30
     c94:	3b0b3a0e 	blcc	2cf4d4 <__bss_end__+0x2c5a2c>
     c98:	270b390b 	strcs	r3, [fp, -fp, lsl #18]
     c9c:	19018719 	stmdbne	r1, {r0, r3, r4, r8, r9, sl, pc}
     ca0:	06120111 			; <UNDEFINED> instruction: 0x06120111
     ca4:	42971840 	addsmi	r1, r7, #64, 16	; 0x400000
     ca8:	00130119 	andseq	r0, r3, r9, lsl r1
     cac:	00340b00 	eorseq	r0, r4, r0, lsl #22
     cb0:	0b3a0e03 	bleq	e844c4 <__bss_end__+0xe7aa1c>
     cb4:	0b390b3b 	bleq	e439a8 <__bss_end__+0xe39f00>
     cb8:	061c1349 	ldreq	r1, [ip], -r9, asr #6
     cbc:	340c0000 	strcc	r0, [ip], #-0
     cc0:	3a0e0300 	bcc	3818c8 <__bss_end__+0x377e20>
     cc4:	390b3b0b 	stmdbcc	fp, {r0, r1, r3, r8, r9, fp, ip, sp}
     cc8:	1c13490b 			; <UNDEFINED> instruction: 0x1c13490b
     ccc:	0d00000b 	stceq	0, cr0, [r0, #-44]	; 0xffffffd4
     cd0:	1331011d 	teqne	r1, #1073741831	; 0x40000007
     cd4:	42b80152 	adcsmi	r0, r8, #-2147483628	; 0x80000014
     cd8:	5817550b 	ldmdapl	r7, {r0, r1, r3, r8, sl, ip, lr}
     cdc:	570b590b 	strpl	r5, [fp, -fp, lsl #18]
     ce0:	0013010b 	andseq	r0, r3, fp, lsl #2
     ce4:	010b0e00 	tsteq	fp, r0, lsl #28
     ce8:	00001755 	andeq	r1, r0, r5, asr r7
     cec:	3100340f 	tstcc	r0, pc, lsl #8
     cf0:	b7170213 			; <UNDEFINED> instruction: 0xb7170213
     cf4:	00001742 	andeq	r1, r0, r2, asr #14
     cf8:	31011d10 	tstcc	r1, r0, lsl sp
     cfc:	b8015213 	stmdalt	r1, {r0, r1, r4, r9, ip, lr}
     d00:	01110b42 	tsteq	r1, r2, asr #22
     d04:	0b580612 	bleq	1602554 <__bss_end__+0x15f8aac>
     d08:	0b570b59 	bleq	15c3a74 <__bss_end__+0x15b9fcc>
     d0c:	00001301 	andeq	r1, r0, r1, lsl #6
     d10:	01828911 	orreq	r8, r2, r1, lsl r9
     d14:	31011100 	mrscc	r1, (UNDEF: 17)
     d18:	12000013 	andne	r0, r0, #19, 0
     d1c:	01018289 	smlabbeq	r1, r9, r2, r8
     d20:	13310111 	teqne	r1, #1073741828	; 0x40000004
     d24:	00001301 	andeq	r1, r0, r1, lsl #6
     d28:	01828a13 	orreq	r8, r2, r3, lsl sl
     d2c:	91180200 	tstls	r8, r0, lsl #4
     d30:	00001842 	andeq	r1, r0, r2, asr #16
     d34:	01828914 	orreq	r8, r2, r4, lsl r9
     d38:	31011101 	tstcc	r1, r1, lsl #2
     d3c:	15000013 	strne	r0, [r0, #-19]	; 0xffffffed
     d40:	193f012e 	ldmdbne	pc!, {r1, r2, r3, r5, r8}	; <UNPREDICTABLE>
     d44:	0b3a0e03 	bleq	e84558 <__bss_end__+0xe7aab0>
     d48:	0b390b3b 	bleq	e43a3c <__bss_end__+0xe39f94>
     d4c:	0b201927 	bleq	8071f0 <__bss_end__+0x7fd748>
     d50:	00001301 	andeq	r1, r0, r1, lsl #6
     d54:	3f012e16 	svccc	0x00012e16
     d58:	3a0e0319 	bcc	3819c4 <__bss_end__+0x377f1c>
     d5c:	390b3b0b 	stmdbcc	fp, {r0, r1, r3, r8, r9, fp, ip, sp}
     d60:	4919270b 	ldmdbmi	r9, {r0, r1, r3, r8, r9, sl, sp}
     d64:	010b2013 	tsteq	fp, r3, lsl r0
     d68:	17000013 	smladne	r0, r3, r0, r0
     d6c:	1331012e 	teqne	r1, #-2147483637	; 0x8000000b
     d70:	06120111 			; <UNDEFINED> instruction: 0x06120111
     d74:	42971840 	addsmi	r1, r7, #64, 16	; 0x400000
     d78:	00130119 	andseq	r0, r3, r9, lsl r1
     d7c:	002e1800 	eoreq	r1, lr, r0, lsl #16
     d80:	193c193f 	ldmdbne	ip!, {r0, r1, r2, r3, r4, r5, r8, fp, ip}
     d84:	0e030e6e 	cdpeq	14, 0, cr0, cr3, cr14, {3}
     d88:	053b0b3a 	ldreq	r0, [fp, #-2874]!	; 0xfffff4c6
     d8c:	00000b39 	andeq	r0, r0, r9, lsr fp
     d90:	3f002e19 	svccc	0x00002e19
     d94:	6e193c19 	mrcvs	12, 0, r3, cr9, cr9, {0}
     d98:	3a0e030e 	bcc	3819d8 <__bss_end__+0x377f30>
     d9c:	390b3b0b 	stmdbcc	fp, {r0, r1, r3, r8, r9, fp, ip, sp}
     da0:	0000000b 	andeq	r0, r0, fp
     da4:	25011101 	strcs	r1, [r1, #-257]	; 0xfffffeff
     da8:	030b130e 	movweq	r1, #45838	; 0xb30e
     dac:	110e1b0e 	tstne	lr, lr, lsl #22
     db0:	10061201 	andne	r1, r6, r1, lsl #4
     db4:	02000017 	andeq	r0, r0, #23, 0
     db8:	0b0b0024 	bleq	2c0e50 <__bss_end__+0x2b73a8>
     dbc:	08030b3e 	stmdaeq	r3, {r1, r2, r3, r4, r5, r8, r9, fp}
     dc0:	24030000 	strcs	r0, [r3], #-0
     dc4:	3e0b0b00 	vmlacc.f64	d0, d11, d0
     dc8:	000e030b 	andeq	r0, lr, fp, lsl #6
     dcc:	01150400 	tsteq	r5, r0, lsl #8
     dd0:	13491927 	movtne	r1, #39207	; 0x9927
     dd4:	00001301 	andeq	r1, r0, r1, lsl #6
     dd8:	49000505 	stmdbmi	r0, {r0, r2, r8, sl}
     ddc:	06000013 			; <UNDEFINED> instruction: 0x06000013
     de0:	0e030034 	mcreq	0, 0, r0, cr3, cr4, {1}
     de4:	0b3b0b3a 	bleq	ec3ad4 <__bss_end__+0xeba02c>
     de8:	13490b39 	movtne	r0, #39737	; 0x9b39
     dec:	193c193f 	ldmdbne	ip!, {r0, r1, r2, r3, r4, r5, r8, fp, ip}
     df0:	0f070000 	svceq	0x00070000
     df4:	490b0b00 	stmdbmi	fp, {r8, r9, fp}
     df8:	08000013 	stmdaeq	r0, {r0, r1, r4}
     dfc:	13490026 	movtne	r0, #36902	; 0x9026
     e00:	2e090000 	cdpcs	0, 0, cr0, cr9, cr0, {0}
     e04:	03193f01 	tsteq	r9, #1, 30
     e08:	3b0b3a0e 	blcc	2cf648 <__bss_end__+0x2c5ba0>
     e0c:	270b390b 	strcs	r3, [fp, -fp, lsl #18]
     e10:	12011119 	andne	r1, r1, #1073741830	; 0x40000006
     e14:	97184006 	ldrls	r4, [r8, -r6]
     e18:	13011942 	movwne	r1, #6466	; 0x1942
     e1c:	050a0000 	streq	r0, [sl, #-0]
     e20:	3a080300 	bcc	201a28 <__bss_end__+0x1f7f80>
     e24:	390b3b0b 	stmdbcc	fp, {r0, r1, r3, r8, r9, fp, ip, sp}
     e28:	0213490b 	andseq	r4, r3, #180224	; 0x2c000
     e2c:	1742b717 	smlaldne	fp, r2, r7, r7
     e30:	1d0b0000 	stcne	0, cr0, [fp, #-0]
     e34:	52133101 	andspl	r3, r3, #1073741824	; 0x40000000
     e38:	0b42b801 	bleq	10aee44 <__bss_end__+0x10a539c>
     e3c:	0b581755 	bleq	1606b98 <__bss_end__+0x15fd0f0>
     e40:	0b570b59 	bleq	15c3bac <__bss_end__+0x15ba104>
     e44:	050c0000 	streq	r0, [ip, #-0]
     e48:	02133100 	andseq	r3, r3, #0
     e4c:	1742b717 	smlaldne	fp, r2, r7, r7
     e50:	1d0d0000 	stcne	0, cr0, [sp, #-0]
     e54:	52133101 	andspl	r3, r3, #1073741824	; 0x40000000
     e58:	0b42b801 	bleq	10aee64 <__bss_end__+0x10a53bc>
     e5c:	06120111 			; <UNDEFINED> instruction: 0x06120111
     e60:	0b590b58 	bleq	1643bc8 <__bss_end__+0x163a120>
     e64:	00000b57 	andeq	r0, r0, r7, asr fp
     e68:	3100340e 	tstcc	r0, lr, lsl #8
     e6c:	b7170213 			; <UNDEFINED> instruction: 0xb7170213
     e70:	00001742 	andeq	r1, r0, r2, asr #14
     e74:	31011d0f 	tstcc	r1, pc, lsl #26
     e78:	b8015213 	stmdalt	r1, {r0, r1, r4, r9, ip, lr}
     e7c:	01110b42 	tsteq	r1, r2, asr #22
     e80:	0b580612 	bleq	16026d0 <__bss_end__+0x15f8c28>
     e84:	0b570b59 	bleq	15c3bf0 <__bss_end__+0x15ba148>
     e88:	00001301 	andeq	r1, r0, r1, lsl #6
     e8c:	01828910 	orreq	r8, r2, r0, lsl r9
     e90:	31011101 	tstcc	r1, r1, lsl #2
     e94:	11000013 	tstne	r0, r3, lsl r0
     e98:	0001828a 	andeq	r8, r1, sl, lsl #5
     e9c:	42911802 	addsmi	r1, r1, #131072	; 0x20000
     ea0:	12000018 	andne	r0, r0, #24, 0
     ea4:	00018289 	andeq	r8, r1, r9, lsl #5
     ea8:	13310111 	teqne	r1, #1073741828	; 0x40000004
     eac:	0b130000 	bleq	4c0eb4 <__bss_end__+0x4b740c>
     eb0:	55133101 	ldrpl	r3, [r3, #-257]	; 0xfffffeff
     eb4:	14000017 	strne	r0, [r0], #-23	; 0xffffffe9
     eb8:	13310034 	teqne	r1, #52, 0	; 0x34
     ebc:	0b150000 	bleq	540ec4 <__bss_end__+0x53741c>
     ec0:	00175501 	andseq	r5, r7, r1, lsl #10
     ec4:	011d1600 	tsteq	sp, r0, lsl #12
     ec8:	01521331 	cmpeq	r2, r1, lsr r3
     ecc:	550b42b8 	strpl	r4, [fp, #-696]	; 0xfffffd48
     ed0:	590b5817 	stmdbpl	fp, {r0, r1, r2, r4, fp, ip, lr}
     ed4:	010b570b 	tsteq	fp, fp, lsl #14
     ed8:	17000013 	smladne	r0, r3, r0, r0
     edc:	193f012e 	ldmdbne	pc!, {r1, r2, r3, r5, r8}	; <UNPREDICTABLE>
     ee0:	0b3a0e03 	bleq	e846f4 <__bss_end__+0xe7ac4c>
     ee4:	0b390b3b 	bleq	e43bd8 <__bss_end__+0xe3a130>
     ee8:	0b201927 	bleq	80738c <__bss_end__+0x7fd8e4>
     eec:	00001301 	andeq	r1, r0, r1, lsl #6
     ef0:	03000518 	movweq	r0, #1304	; 0x518
     ef4:	3b0b3a08 	blcc	2cf71c <__bss_end__+0x2c5c74>
     ef8:	490b390b 	stmdbmi	fp, {r0, r1, r3, r8, fp, ip, sp}
     efc:	19000013 	stmdbne	r0, {r0, r1, r4}
     f00:	08030034 	stmdaeq	r3, {r2, r4, r5}
     f04:	0b3b0b3a 	bleq	ec3bf4 <__bss_end__+0xeba14c>
     f08:	13490b39 	movtne	r0, #39737	; 0x9b39
     f0c:	0b1a0000 	bleq	680f14 <__bss_end__+0x67746c>
     f10:	1b000001 	blne	f1c <__code_start__-0x70e4>
     f14:	193f012e 	ldmdbne	pc!, {r1, r2, r3, r5, r8}	; <UNPREDICTABLE>
     f18:	0b3a0e03 	bleq	e8472c <__bss_end__+0xe7ac84>
     f1c:	0b390b3b 	bleq	e43c10 <__bss_end__+0xe3a168>
     f20:	13491927 	movtne	r1, #39207	; 0x9927
     f24:	13010b20 	movwne	r0, #6944	; 0x1b20
     f28:	2e1c0000 	cdpcs	0, 1, cr0, cr12, cr0, {0}
     f2c:	03193f00 	tsteq	r9, #0, 30
     f30:	3b0b3a0e 	blcc	2cf770 <__bss_end__+0x2c5cc8>
     f34:	270b390b 	strcs	r3, [fp, -fp, lsl #18]
     f38:	20134919 	andscs	r4, r3, r9, lsl r9
     f3c:	1d00000b 	stcne	0, cr0, [r0, #-44]	; 0xffffffd4
     f40:	1331012e 	teqne	r1, #-2147483637	; 0x8000000b
     f44:	06120111 			; <UNDEFINED> instruction: 0x06120111
     f48:	42971840 	addsmi	r1, r7, #64, 16	; 0x400000
     f4c:	00130119 	andseq	r0, r3, r9, lsl r1
     f50:	82891e00 	addhi	r1, r9, #0, 28
     f54:	01110101 	tsteq	r1, r1, lsl #2
     f58:	31194295 			; <UNDEFINED> instruction: 0x31194295
     f5c:	1f000013 	svcne	0x00000013
     f60:	193f002e 	ldmdbne	pc!, {r1, r2, r3, r5}	; <UNPREDICTABLE>
     f64:	0e6e193c 			; <UNDEFINED> instruction: 0x0e6e193c
     f68:	0b3a0e03 	bleq	e8477c <__bss_end__+0xe7acd4>
     f6c:	0b390b3b 	bleq	e43c60 <__bss_end__+0xe3a1b8>
     f70:	01000000 	mrseq	r0, (UNDEF: 0)
     f74:	0e250111 	mcreq	1, 1, r0, cr5, cr1, {0}
     f78:	0e030b13 	vmoveq.32	d3[0], r0
     f7c:	01110e1b 	tsteq	r1, fp, lsl lr
     f80:	17100612 			; <UNDEFINED> instruction: 0x17100612
     f84:	24020000 	strcs	r0, [r2], #-0
     f88:	3e0b0b00 	vmlacc.f64	d0, d11, d0
     f8c:	0008030b 	andeq	r0, r8, fp, lsl #6
     f90:	00240300 	eoreq	r0, r4, r0, lsl #6
     f94:	0b3e0b0b 	bleq	f83bc8 <__bss_end__+0xf7a120>
     f98:	00000e03 	andeq	r0, r0, r3, lsl #28
     f9c:	49003504 	stmdbmi	r0, {r2, r8, sl, ip, sp}
     fa0:	05000013 	streq	r0, [r0, #-19]	; 0xffffffed
     fa4:	0e030016 	mcreq	0, 0, r0, cr3, cr6, {0}
     fa8:	0b3b0b3a 	bleq	ec3c98 <__bss_end__+0xeba1f0>
     fac:	13490b39 	movtne	r0, #39737	; 0x9b39
     fb0:	04060000 	streq	r0, [r6], #-0
     fb4:	0b0b3e01 	bleq	2d07c0 <__bss_end__+0x2c6d18>
     fb8:	3a13490b 	bcc	4d33ec <__bss_end__+0x4c9944>
     fbc:	390b3b0b 	stmdbcc	fp, {r0, r1, r3, r8, r9, fp, ip, sp}
     fc0:	0013010b 	andseq	r0, r3, fp, lsl #2
     fc4:	00280700 	eoreq	r0, r8, r0, lsl #14
     fc8:	0b1c0e03 	bleq	7047dc <__bss_end__+0x6fad34>
     fcc:	13080000 	movwne	r0, #32768	; 0x8000
     fd0:	0b0e0301 	bleq	381bdc <__bss_end__+0x378134>
     fd4:	3b0b3a0b 	blcc	2cf808 <__bss_end__+0x2c5d60>
     fd8:	010b390b 	tsteq	fp, fp, lsl #18
     fdc:	09000013 	stmdbeq	r0, {r0, r1, r4}
     fe0:	0803000d 	stmdaeq	r3, {r0, r2, r3}
     fe4:	0b3b0b3a 	bleq	ec3cd4 <__bss_end__+0xeba22c>
     fe8:	13490b39 	movtne	r0, #39737	; 0x9b39
     fec:	00000b38 	andeq	r0, r0, r8, lsr fp
     ff0:	03000d0a 	movweq	r0, #3338	; 0xd0a
     ff4:	3b0b3a0e 	blcc	2cf834 <__bss_end__+0x2c5d8c>
     ff8:	490b390b 	stmdbmi	fp, {r0, r1, r3, r8, fp, ip, sp}
     ffc:	000b3813 	andeq	r3, fp, r3, lsl r8
    1000:	00340b00 	eorseq	r0, r4, r0, lsl #22
    1004:	0b3a0e03 	bleq	e84818 <__bss_end__+0xe7ad70>
    1008:	0b390b3b 	bleq	e43cfc <__bss_end__+0xe3a254>
    100c:	061c1349 	ldreq	r1, [ip], -r9, asr #6
    1010:	0f0c0000 	svceq	0x000c0000
    1014:	490b0b00 	stmdbmi	fp, {r8, r9, fp}
    1018:	0d000013 	stceq	0, cr0, [r0, #-76]	; 0xffffffb4
    101c:	13490026 	movtne	r0, #36902	; 0x9026
    1020:	2e0e0000 	cdpcs	0, 0, cr0, cr14, cr0, {0}
    1024:	03193f01 	tsteq	r9, #1, 30
    1028:	3b0b3a0e 	blcc	2cf868 <__bss_end__+0x2c5dc0>
    102c:	270b390b 	strcs	r3, [fp, -fp, lsl #18]
    1030:	12011119 	andne	r1, r1, #1073741830	; 0x40000006
    1034:	97184006 	ldrls	r4, [r8, -r6]
    1038:	13011942 	movwne	r1, #6466	; 0x1942
    103c:	890f0000 	stmdbhi	pc, {}	; <UNPREDICTABLE>
    1040:	11000182 	smlabbne	r0, r2, r1, r0
    1044:	00133101 	andseq	r3, r3, r1, lsl #2
    1048:	012e1000 			; <UNDEFINED> instruction: 0x012e1000
    104c:	0e03193f 			; <UNDEFINED> instruction: 0x0e03193f
    1050:	0b3b0b3a 	bleq	ec3d40 <__bss_end__+0xeba298>
    1054:	19270b39 	stmdbne	r7!, {r0, r3, r4, r5, r8, r9, fp}
    1058:	01111349 	tsteq	r1, r9, asr #6
    105c:	18400612 	stmdane	r0, {r1, r4, r9, sl}^
    1060:	01194297 			; <UNDEFINED> instruction: 0x01194297
    1064:	11000013 	tstne	r0, r3, lsl r0
    1068:	01018289 	smlabbeq	r1, r9, r2, r8
    106c:	13310111 	teqne	r1, #1073741828	; 0x40000004
    1070:	8a120000 	bhi	481078 <__bss_end__+0x4775d0>
    1074:	02000182 	andeq	r0, r0, #-2147483616	; 0x80000020
    1078:	18429118 	stmdane	r2, {r3, r4, r8, ip, pc}^
    107c:	05130000 	ldreq	r0, [r3, #-0]
    1080:	3a080300 	bcc	201c88 <__bss_end__+0x1f81e0>
    1084:	390b3b0b 	stmdbcc	fp, {r0, r1, r3, r8, r9, fp, ip, sp}
    1088:	0213490b 	andseq	r4, r3, #180224	; 0x2c000
    108c:	1742b717 	smlaldne	fp, r2, r7, r7
    1090:	89140000 	ldmdbhi	r4, {}	; <UNPREDICTABLE>
    1094:	11010182 	smlabbne	r1, r2, r1, r0
    1098:	01133101 	tsteq	r3, r1, lsl #2
    109c:	15000013 	strne	r0, [r0, #-19]	; 0xffffffed
    10a0:	08030034 	stmdaeq	r3, {r2, r4, r5}
    10a4:	0b3b0b3a 	bleq	ec3d94 <__bss_end__+0xeba2ec>
    10a8:	13490b39 	movtne	r0, #39737	; 0x9b39
    10ac:	42b71702 	adcsmi	r1, r7, #524288	; 0x80000
    10b0:	16000017 			; <UNDEFINED> instruction: 0x16000017
    10b4:	0e030034 	mcreq	0, 0, r0, cr3, cr4, {1}
    10b8:	0b3b0b3a 	bleq	ec3da8 <__bss_end__+0xeba300>
    10bc:	13490b39 	movtne	r0, #39737	; 0x9b39
    10c0:	0000051c 	andeq	r0, r0, ip, lsl r5
    10c4:	03012e17 	movweq	r2, #7703	; 0x1e17
    10c8:	3b0b3a0e 	blcc	2cf908 <__bss_end__+0x2c5e60>
    10cc:	270b390b 	strcs	r3, [fp, -fp, lsl #18]
    10d0:	12011119 	andne	r1, r1, #1073741830	; 0x40000006
    10d4:	97184006 	ldrls	r4, [r8, -r6]
    10d8:	13011942 	movwne	r1, #6466	; 0x1942
    10dc:	05180000 	ldreq	r0, [r8, #-0]
    10e0:	3a0e0300 	bcc	381ce8 <__bss_end__+0x378240>
    10e4:	390b3b0b 	stmdbcc	fp, {r0, r1, r3, r8, r9, fp, ip, sp}
    10e8:	0213490b 	andseq	r4, r3, #180224	; 0x2c000
    10ec:	1742b717 	smlaldne	fp, r2, r7, r7
    10f0:	35190000 	ldrcc	r0, [r9, #-0]
    10f4:	1a000000 	bne	10fc <__code_start__-0x6f04>
    10f8:	193f002e 	ldmdbne	pc!, {r1, r2, r3, r5}	; <UNPREDICTABLE>
    10fc:	0e6e193c 			; <UNDEFINED> instruction: 0x0e6e193c
    1100:	0b3a0e03 	bleq	e84914 <__bss_end__+0xe7ae6c>
    1104:	0b390b3b 	bleq	e43df8 <__bss_end__+0xe3a350>
    1108:	01000000 	mrseq	r0, (UNDEF: 0)
    110c:	0e250111 	mcreq	1, 1, r0, cr5, cr1, {0}
    1110:	0e030b13 	vmoveq.32	d3[0], r0
    1114:	01110e1b 	tsteq	r1, fp, lsl lr
    1118:	17100612 			; <UNDEFINED> instruction: 0x17100612
    111c:	24020000 	strcs	r0, [r2], #-0
    1120:	3e0b0b00 	vmlacc.f64	d0, d11, d0
    1124:	0008030b 	andeq	r0, r8, fp, lsl #6
    1128:	00240300 	eoreq	r0, r4, r0, lsl #6
    112c:	0b3e0b0b 	bleq	f83d60 <__bss_end__+0xf7a2b8>
    1130:	00000e03 	andeq	r0, r0, r3, lsl #28
    1134:	27011504 	strcs	r1, [r1, -r4, lsl #10]
    1138:	01134919 	tsteq	r3, r9, lsl r9
    113c:	05000013 	streq	r0, [r0, #-19]	; 0xffffffed
    1140:	13490005 	movtne	r0, #36869	; 0x9005
    1144:	34060000 	strcc	r0, [r6], #-0
    1148:	3a0e0300 	bcc	381d50 <__bss_end__+0x3782a8>
    114c:	390b3b0b 	stmdbcc	fp, {r0, r1, r3, r8, r9, fp, ip, sp}
    1150:	3f13490b 	svccc	0x0013490b
    1154:	00193c19 	andseq	r3, r9, r9, lsl ip
    1158:	000f0700 	andeq	r0, pc, r0, lsl #14
    115c:	13490b0b 	movtne	r0, #39691	; 0x9b0b
    1160:	26080000 	strcs	r0, [r8], -r0
    1164:	00134900 	andseq	r4, r3, r0, lsl #18
    1168:	00340900 	eorseq	r0, r4, r0, lsl #18
    116c:	0b3a1347 	bleq	e85e90 <__bss_end__+0xe7c3e8>
    1170:	0b390b3b 	bleq	e43e64 <__bss_end__+0xe3a3bc>
    1174:	00001802 	andeq	r1, r0, r2, lsl #16
    1178:	3f012e0a 	svccc	0x00012e0a
    117c:	3a0e0319 	bcc	381de8 <__bss_end__+0x378340>
    1180:	390b3b0b 	stmdbcc	fp, {r0, r1, r3, r8, r9, fp, ip, sp}
    1184:	1119270b 	tstne	r9, fp, lsl #14
    1188:	40061201 	andmi	r1, r6, r1, lsl #4
    118c:	19429718 	stmdbne	r2, {r3, r4, r8, r9, sl, ip, pc}^
    1190:	00001301 	andeq	r1, r0, r1, lsl #6
    1194:	0300050b 	movweq	r0, #1291	; 0x50b
    1198:	3b0b3a08 	blcc	2cf9c0 <__bss_end__+0x2c5f18>
    119c:	490b390b 	stmdbmi	fp, {r0, r1, r3, r8, fp, ip, sp}
    11a0:	00180213 	andseq	r0, r8, r3, lsl r2
    11a4:	002e0c00 	eoreq	r0, lr, r0, lsl #24
    11a8:	0e03193f 			; <UNDEFINED> instruction: 0x0e03193f
    11ac:	0b3b0b3a 	bleq	ec3e9c <__bss_end__+0xeba3f4>
    11b0:	19270b39 	stmdbne	r7!, {r0, r3, r4, r5, r8, r9, fp}
    11b4:	06120111 			; <UNDEFINED> instruction: 0x06120111
    11b8:	42971840 	addsmi	r1, r7, #64, 16	; 0x400000
    11bc:	0d000019 	stceq	0, cr0, [r0, #-100]	; 0xffffff9c
    11c0:	0e03012e 	adfeqsp	f0, f3, #0.5
    11c4:	0b3b0b3a 	bleq	ec3eb4 <__bss_end__+0xeba40c>
    11c8:	19270b39 	stmdbne	r7!, {r0, r3, r4, r5, r8, r9, fp}
    11cc:	01111349 	tsteq	r1, r9, asr #6
    11d0:	18400612 	stmdane	r0, {r1, r4, r9, sl}^
    11d4:	01194297 			; <UNDEFINED> instruction: 0x01194297
    11d8:	0e000013 	mcreq	0, 0, r0, cr0, cr3, {0}
    11dc:	08030005 	stmdaeq	r3, {r0, r2}
    11e0:	0b3b0b3a 	bleq	ec3ed0 <__bss_end__+0xeba428>
    11e4:	13490b39 	movtne	r0, #39737	; 0x9b39
    11e8:	42b71702 	adcsmi	r1, r7, #524288	; 0x80000
    11ec:	0f000017 	svceq	0x00000017
    11f0:	01018289 	smlabbeq	r1, r9, r2, r8
    11f4:	13310111 	teqne	r1, #1073741828	; 0x40000004
    11f8:	8a100000 	bhi	401200 <__bss_end__+0x3f7758>
    11fc:	02000182 	andeq	r0, r0, #-2147483616	; 0x80000020
    1200:	18429118 	stmdane	r2, {r3, r4, r8, ip, pc}^
    1204:	2e110000 	cdpcs	0, 1, cr0, cr1, cr0, {0}
    1208:	3c193f00 	ldccc	15, cr3, [r9], {-0}
    120c:	030e6e19 	movweq	r6, #60953	; 0xee19
    1210:	3b0b3a0e 	blcc	2cfa50 <__bss_end__+0x2c5fa8>
    1214:	000b390b 	andeq	r3, fp, fp, lsl #18
    1218:	11010000 	mrsne	r0, (UNDEF: 1)
    121c:	130e2501 	movwne	r2, #58625	; 0xe501
    1220:	1b0e030b 	blne	381e54 <__bss_end__+0x3783ac>
    1224:	1201110e 	andne	r1, r1, #-2147483645	; 0x80000003
    1228:	00171006 	andseq	r1, r7, r6
    122c:	00240200 	eoreq	r0, r4, r0, lsl #4
    1230:	0b3e0b0b 	bleq	f83e64 <__bss_end__+0xf7a3bc>
    1234:	00000803 	andeq	r0, r0, r3, lsl #16
    1238:	0b002403 	bleq	a24c <__bss_end__+0x7a4>
    123c:	030b3e0b 	movweq	r3, #48651	; 0xbe0b
    1240:	0400000e 	streq	r0, [r0], #-14
    1244:	19270115 	stmdbne	r7!, {r0, r2, r4, r8}
    1248:	13011349 	movwne	r1, #4937	; 0x1349
    124c:	05050000 	streq	r0, [r5, #-0]
    1250:	00134900 	andseq	r4, r3, r0, lsl #18
    1254:	00340600 	eorseq	r0, r4, r0, lsl #12
    1258:	0b3a0e03 	bleq	e84a6c <__bss_end__+0xe7afc4>
    125c:	0b390b3b 	bleq	e43f50 <__bss_end__+0xe3a4a8>
    1260:	193f1349 	ldmdbne	pc!, {r0, r3, r6, r8, r9, ip}	; <UNPREDICTABLE>
    1264:	0000193c 	andeq	r1, r0, ip, lsr r9
    1268:	0b000f07 	bleq	4e8c <__code_start__-0x3174>
    126c:	0013490b 	andseq	r4, r3, fp, lsl #18
    1270:	00260800 	eoreq	r0, r6, r0, lsl #16
    1274:	00001349 	andeq	r1, r0, r9, asr #6
    1278:	3f012e09 	svccc	0x00012e09
    127c:	3a0e0319 	bcc	381ee8 <__bss_end__+0x378440>
    1280:	390b3b0b 	stmdbcc	fp, {r0, r1, r3, r8, r9, fp, ip, sp}
    1284:	4919270b 	ldmdbmi	r9, {r0, r1, r3, r8, r9, sl, sp}
    1288:	12011113 	andne	r1, r1, #-1073741820	; 0xc0000004
    128c:	97184006 	ldrls	r4, [r8, -r6]
    1290:	13011942 	movwne	r1, #6466	; 0x1942
    1294:	050a0000 	streq	r0, [sl, #-0]
    1298:	3a0e0300 	bcc	381ea0 <__bss_end__+0x3783f8>
    129c:	390b3b0b 	stmdbcc	fp, {r0, r1, r3, r8, r9, fp, ip, sp}
    12a0:	0213490b 	andseq	r4, r3, #180224	; 0x2c000
    12a4:	0b000018 	bleq	130c <__code_start__-0x6cf4>
    12a8:	08030005 	stmdaeq	r3, {r0, r2}
    12ac:	0b3b0b3a 	bleq	ec3f9c <__bss_end__+0xeba4f4>
    12b0:	13490b39 	movtne	r0, #39737	; 0x9b39
    12b4:	42b71702 	adcsmi	r1, r7, #524288	; 0x80000
    12b8:	0c000017 	stceq	0, cr0, [r0], {23}
    12bc:	08030034 	stmdaeq	r3, {r2, r4, r5}
    12c0:	0b3b0b3a 	bleq	ec3fb0 <__bss_end__+0xeba508>
    12c4:	13490b39 	movtne	r0, #39737	; 0x9b39
    12c8:	42b71702 	adcsmi	r1, r7, #524288	; 0x80000
    12cc:	00000017 	andeq	r0, r0, r7, lsl r0
    12d0:	25011101 	strcs	r1, [r1, #-257]	; 0xfffffeff
    12d4:	030b130e 	movweq	r1, #45838	; 0xb30e
    12d8:	110e1b0e 	tstne	lr, lr, lsl #22
    12dc:	10061201 	andne	r1, r6, r1, lsl #4
    12e0:	02000017 	andeq	r0, r0, #23, 0
    12e4:	0b0b0024 	bleq	2c137c <__bss_end__+0x2b78d4>
    12e8:	08030b3e 	stmdaeq	r3, {r1, r2, r3, r4, r5, r8, r9, fp}
    12ec:	24030000 	strcs	r0, [r3], #-0
    12f0:	3e0b0b00 	vmlacc.f64	d0, d11, d0
    12f4:	000e030b 	andeq	r0, lr, fp, lsl #6
    12f8:	01150400 	tsteq	r5, r0, lsl #8
    12fc:	13491927 	movtne	r1, #39207	; 0x9927
    1300:	00001301 	andeq	r1, r0, r1, lsl #6
    1304:	49000505 	stmdbmi	r0, {r0, r2, r8, sl}
    1308:	06000013 			; <UNDEFINED> instruction: 0x06000013
    130c:	0e030034 	mcreq	0, 0, r0, cr3, cr4, {1}
    1310:	0b3b0b3a 	bleq	ec4000 <__bss_end__+0xeba558>
    1314:	13490b39 	movtne	r0, #39737	; 0x9b39
    1318:	193c193f 	ldmdbne	ip!, {r0, r1, r2, r3, r4, r5, r8, fp, ip}
    131c:	0f070000 	svceq	0x00070000
    1320:	490b0b00 	stmdbmi	fp, {r8, r9, fp}
    1324:	08000013 	stmdaeq	r0, {r0, r1, r4}
    1328:	13490026 	movtne	r0, #36902	; 0x9026
    132c:	2e090000 	cdpcs	0, 0, cr0, cr9, cr0, {0}
    1330:	03193f01 	tsteq	r9, #1, 30
    1334:	3b0b3a0e 	blcc	2cfb74 <__bss_end__+0x2c60cc>
    1338:	270b390b 	strcs	r3, [fp, -fp, lsl #18]
    133c:	11134919 	tstne	r3, r9, lsl r9
    1340:	40061201 	andmi	r1, r6, r1, lsl #4
    1344:	19429718 	stmdbne	r2, {r3, r4, r8, r9, sl, ip, pc}^
    1348:	050a0000 	streq	r0, [sl, #-0]
    134c:	3a080300 	bcc	201f54 <__bss_end__+0x1f84ac>
    1350:	390b3b0b 	stmdbcc	fp, {r0, r1, r3, r8, r9, fp, ip, sp}
    1354:	0213490b 	andseq	r4, r3, #180224	; 0x2c000
    1358:	1742b717 	smlaldne	fp, r2, r7, r7
    135c:	01000000 	mrseq	r0, (UNDEF: 0)
    1360:	0e250111 	mcreq	1, 1, r0, cr5, cr1, {0}
    1364:	0e030b13 	vmoveq.32	d3[0], r0
    1368:	01110e1b 	tsteq	r1, fp, lsl lr
    136c:	17100612 			; <UNDEFINED> instruction: 0x17100612
    1370:	24020000 	strcs	r0, [r2], #-0
    1374:	3e0b0b00 	vmlacc.f64	d0, d11, d0
    1378:	0008030b 	andeq	r0, r8, fp, lsl #6
    137c:	00240300 	eoreq	r0, r4, r0, lsl #6
    1380:	0b3e0b0b 	bleq	f83fb4 <__bss_end__+0xf7a50c>
    1384:	00000e03 	andeq	r0, r0, r3, lsl #28
    1388:	27011504 	strcs	r1, [r1, -r4, lsl #10]
    138c:	01134919 	tsteq	r3, r9, lsl r9
    1390:	05000013 	streq	r0, [r0, #-19]	; 0xffffffed
    1394:	13490005 	movtne	r0, #36869	; 0x9005
    1398:	34060000 	strcc	r0, [r6], #-0
    139c:	3a0e0300 	bcc	381fa4 <__bss_end__+0x3784fc>
    13a0:	390b3b0b 	stmdbcc	fp, {r0, r1, r3, r8, r9, fp, ip, sp}
    13a4:	3f13490b 	svccc	0x0013490b
    13a8:	00193c19 	andseq	r3, r9, r9, lsl ip
    13ac:	000f0700 	andeq	r0, pc, r0, lsl #14
    13b0:	13490b0b 	movtne	r0, #39691	; 0x9b0b
    13b4:	26080000 	strcs	r0, [r8], -r0
    13b8:	00134900 	andseq	r4, r3, r0, lsl #18
    13bc:	012e0900 			; <UNDEFINED> instruction: 0x012e0900
    13c0:	0e03193f 			; <UNDEFINED> instruction: 0x0e03193f
    13c4:	0b3b0b3a 	bleq	ec40b4 <__bss_end__+0xeba60c>
    13c8:	19270b39 	stmdbne	r7!, {r0, r3, r4, r5, r8, r9, fp}
    13cc:	01111349 	tsteq	r1, r9, asr #6
    13d0:	18400612 	stmdane	r0, {r1, r4, r9, sl}^
    13d4:	01194297 			; <UNDEFINED> instruction: 0x01194297
    13d8:	0a000013 	beq	142c <__code_start__-0x6bd4>
    13dc:	08030005 	stmdaeq	r3, {r0, r2}
    13e0:	0b3b0b3a 	bleq	ec40d0 <__bss_end__+0xeba628>
    13e4:	13490b39 	movtne	r0, #39737	; 0x9b39
    13e8:	00001802 	andeq	r1, r0, r2, lsl #16
    13ec:	0300050b 	movweq	r0, #1291	; 0x50b
    13f0:	3b0b3a08 	blcc	2cfc18 <__bss_end__+0x2c6170>
    13f4:	490b390b 	stmdbmi	fp, {r0, r1, r3, r8, fp, ip, sp}
    13f8:	b7170213 			; <UNDEFINED> instruction: 0xb7170213
    13fc:	00001742 	andeq	r1, r0, r2, asr #14
    1400:	0300340c 	movweq	r3, #1036	; 0x40c
    1404:	3b0b3a08 	blcc	2cfc2c <__bss_end__+0x2c6184>
    1408:	490b390b 	stmdbmi	fp, {r0, r1, r3, r8, fp, ip, sp}
    140c:	b7170213 			; <UNDEFINED> instruction: 0xb7170213
    1410:	00001742 	andeq	r1, r0, r2, asr #14
    1414:	01110100 	tsteq	r1, r0, lsl #2
    1418:	0b130e25 	bleq	4c4cb4 <__bss_end__+0x4bb20c>
    141c:	0e1b0e03 	cdpeq	14, 1, cr0, cr11, cr3, {0}
    1420:	06120111 			; <UNDEFINED> instruction: 0x06120111
    1424:	00001710 	andeq	r1, r0, r0, lsl r7
    1428:	0b002402 	bleq	a438 <__bss_end__+0x990>
    142c:	030b3e0b 	movweq	r3, #48651	; 0xbe0b
    1430:	03000008 	movweq	r0, #8
    1434:	0e030016 	mcreq	0, 0, r0, cr3, cr6, {0}
    1438:	0b3b0b3a 	bleq	ec4128 <__bss_end__+0xeba680>
    143c:	13490b39 	movtne	r0, #39737	; 0x9b39
    1440:	24040000 	strcs	r0, [r4], #-0
    1444:	3e0b0b00 	vmlacc.f64	d0, d11, d0
    1448:	000e030b 	andeq	r0, lr, fp, lsl #6
    144c:	00260500 	eoreq	r0, r6, r0, lsl #10
    1450:	00001349 	andeq	r1, r0, r9, asr #6
    1454:	27011506 	strcs	r1, [r1, -r6, lsl #10]
    1458:	01134919 	tsteq	r3, r9, lsl r9
    145c:	07000013 	smladeq	r0, r3, r0, r0
    1460:	13490005 	movtne	r0, #36869	; 0x9005
    1464:	34080000 	strcc	r0, [r8], #-0
    1468:	3a0e0300 	bcc	382070 <__bss_end__+0x3785c8>
    146c:	390b3b0b 	stmdbcc	fp, {r0, r1, r3, r8, r9, fp, ip, sp}
    1470:	3f13490b 	svccc	0x0013490b
    1474:	00193c19 	andseq	r3, r9, r9, lsl ip
    1478:	000f0900 	andeq	r0, pc, r0, lsl #18
    147c:	13490b0b 	movtne	r0, #39691	; 0x9b0b
    1480:	2e0a0000 	cdpcs	0, 0, cr0, cr10, cr0, {0}
    1484:	03193f01 	tsteq	r9, #1, 30
    1488:	3b0b3a0e 	blcc	2cfcc8 <__bss_end__+0x2c6220>
    148c:	270b390b 	strcs	r3, [fp, -fp, lsl #18]
    1490:	11134919 	tstne	r3, r9, lsl r9
    1494:	40061201 	andmi	r1, r6, r1, lsl #4
    1498:	19429718 	stmdbne	r2, {r3, r4, r8, r9, sl, ip, pc}^
    149c:	00001301 	andeq	r1, r0, r1, lsl #6
    14a0:	0300050b 	movweq	r0, #1291	; 0x50b
    14a4:	3b0b3a08 	blcc	2cfccc <__bss_end__+0x2c6224>
    14a8:	490b390b 	stmdbmi	fp, {r0, r1, r3, r8, fp, ip, sp}
    14ac:	b7170213 			; <UNDEFINED> instruction: 0xb7170213
    14b0:	00001742 	andeq	r1, r0, r2, asr #14
    14b4:	0300340c 	movweq	r3, #1036	; 0x40c
    14b8:	3b0b3a08 	blcc	2cfce0 <__bss_end__+0x2c6238>
    14bc:	490b390b 	stmdbmi	fp, {r0, r1, r3, r8, fp, ip, sp}
    14c0:	b7170213 			; <UNDEFINED> instruction: 0xb7170213
    14c4:	00001742 	andeq	r1, r0, r2, asr #14
    14c8:	01110100 	tsteq	r1, r0, lsl #2
    14cc:	0b130e25 	bleq	4c4d68 <__bss_end__+0x4bb2c0>
    14d0:	0e1b0e03 	cdpeq	14, 1, cr0, cr11, cr3, {0}
    14d4:	06120111 			; <UNDEFINED> instruction: 0x06120111
    14d8:	00001710 	andeq	r1, r0, r0, lsl r7
    14dc:	0b002402 	bleq	a4ec <__bss_end__+0xa44>
    14e0:	030b3e0b 	movweq	r3, #48651	; 0xbe0b
    14e4:	03000008 	movweq	r0, #8
    14e8:	0b0b0024 	bleq	2c1580 <__bss_end__+0x2b7ad8>
    14ec:	0e030b3e 	vmoveq.16	d3[0], r0
    14f0:	15040000 	strne	r0, [r4, #-0]
    14f4:	49192701 	ldmdbmi	r9, {r0, r8, r9, sl, sp}
    14f8:	00130113 	andseq	r0, r3, r3, lsl r1
    14fc:	00050500 	andeq	r0, r5, r0, lsl #10
    1500:	00001349 	andeq	r1, r0, r9, asr #6
    1504:	03003406 	movweq	r3, #1030	; 0x406
    1508:	3b0b3a0e 	blcc	2cfd48 <__bss_end__+0x2c62a0>
    150c:	490b390b 	stmdbmi	fp, {r0, r1, r3, r8, fp, ip, sp}
    1510:	3c193f13 	ldccc	15, cr3, [r9], {19}
    1514:	07000019 	smladeq	r0, r9, r0, r0
    1518:	0b0b000f 	bleq	2c155c <__bss_end__+0x2b7ab4>
    151c:	00001349 	andeq	r1, r0, r9, asr #6
    1520:	49002608 	stmdbmi	r0, {r3, r9, sl, sp}
    1524:	09000013 	stmdbeq	r0, {r0, r1, r4}
    1528:	193f002e 	ldmdbne	pc!, {r1, r2, r3, r5}	; <UNPREDICTABLE>
    152c:	0b3a0e03 	bleq	e84d40 <__bss_end__+0xe7b298>
    1530:	0b390b3b 	bleq	e44224 <__bss_end__+0xe3a77c>
    1534:	01111927 	tsteq	r1, r7, lsr #18
    1538:	18400612 	stmdane	r0, {r1, r4, r9, sl}^
    153c:	00194297 	mulseq	r9, r7, r2
	...

Disassembly of section .debug_loc:

00000000 <.debug_loc>:
       0:	00dc0004 	sbcseq	r0, ip, r4
       4:	00e80000 	rsceq	r0, r8, r0
       8:	00020000 	andeq	r0, r2, r0
       c:	00009f30 	andeq	r9, r0, r0, lsr pc
	...
      18:	00000001 	andeq	r0, r0, r1
      1c:	00000174 	andeq	r0, r0, r4, ror r1
      20:	00000184 	andeq	r0, r0, r4, lsl #3
      24:	20080003 	andcs	r0, r8, r3
      28:	0002209f 	muleq	r2, pc, r0	; <UNPREDICTABLE>
      2c:	00024400 	andeq	r4, r2, r0, lsl #8
      30:	54000100 	strpl	r0, [r0], #-256	; 0xffffff00
      34:	00000244 	andeq	r0, r0, r4, asr #4
      38:	00000268 	andeq	r0, r0, r8, ror #4
      3c:	01740003 	cmneq	r4, r3
      40:	0000009f 	muleq	r0, pc, r0	; <UNPREDICTABLE>
      44:	00000000 	andeq	r0, r0, r0
      48:	00000a00 	andeq	r0, r0, r0, lsl #20
      4c:	0000e801 	andeq	lr, r0, r1, lsl #16
      50:	00017400 	andeq	r7, r1, r0, lsl #8
      54:	0c000600 	stceq	6, cr0, [r0], {-0}
      58:	29b92700 	ldmibcs	r9!, {r8, r9, sl, sp}
      5c:	0002189f 	muleq	r2, pc, r8	; <UNPREDICTABLE>
      60:	00022000 	andeq	r2, r2, r0
      64:	0c000600 	stceq	6, cr0, [r0], {-0}
      68:	29b92700 	ldmibcs	r9!, {r8, r9, sl, sp}
      6c:	0000009f 	muleq	r0, pc, r0	; <UNPREDICTABLE>
      70:	00000000 	andeq	r0, r0, r0
      74:	00000a00 	andeq	r0, r0, r0, lsl #20
      78:	0000e801 	andeq	lr, r0, r1, lsl #16
      7c:	00017400 	andeq	r7, r1, r0, lsl #8
      80:	08000300 	stmdaeq	r0, {r8, r9}
      84:	02189f20 	andseq	r9, r8, #32, 30	; 0x80
      88:	02200000 	eoreq	r0, r0, #0, 0
      8c:	00030000 	andeq	r0, r3, r0
      90:	009f2008 	addseq	r2, pc, r8
      94:	00000000 	andeq	r0, r0, r0
      98:	0a000000 	beq	a0 <__code_start__-0x7f60>
      9c:	00000000 	andeq	r0, r0, r0
      a0:	01010000 	mrseq	r0, (UNDEF: 1)
      a4:	e8010000 	stmda	r1, {}	; <UNPREDICTABLE>
      a8:	40000000 	andmi	r0, r0, r0
      ac:	04000001 	streq	r0, [r0], #-1
      b0:	7dd09100 	ldfvcp	f1, [r0]
      b4:	0001409f 	muleq	r1, pc, r0	; <UNPREDICTABLE>
      b8:	00014800 	andeq	r4, r1, r0, lsl #16
      bc:	5c000100 	stfpls	f0, [r0], {-0}
      c0:	00000148 	andeq	r0, r0, r8, asr #2
      c4:	0000015c 	andeq	r0, r0, ip, asr r1
      c8:	d0910004 	addsle	r0, r1, r4
      cc:	015c9f7d 	cmpeq	ip, sp, ror pc
      d0:	01640000 	cmneq	r4, r0
      d4:	00010000 	andeq	r0, r1, r0
      d8:	0001645c 	andeq	r6, r1, ip, asr r4
      dc:	00017400 	andeq	r7, r1, r0, lsl #8
      e0:	91000400 	tstls	r0, r0, lsl #8
      e4:	189f7dd0 	ldmne	pc, {r4, r6, r7, r8, sl, fp, ip, sp, lr}	; <UNPREDICTABLE>
      e8:	20000002 	andcs	r0, r0, r2
      ec:	04000002 	streq	r0, [r0], #-2
      f0:	7dd09100 	ldfvcp	f1, [r0]
      f4:	0000009f 	muleq	r0, pc, r0	; <UNPREDICTABLE>
      f8:	00000000 	andeq	r0, r0, r0
      fc:	00000a00 	andeq	r0, r0, r0, lsl #20
     100:	0000e801 	andeq	lr, r0, r1, lsl #16
     104:	00017400 	andeq	r7, r1, r0, lsl #8
     108:	45000200 	strmi	r0, [r0, #-512]	; 0xfffffe00
     10c:	0002189f 	muleq	r2, pc, r8	; <UNPREDICTABLE>
     110:	00022000 	andeq	r2, r2, r0
     114:	45000200 	strmi	r0, [r0, #-512]	; 0xfffffe00
     118:	0000009f 	muleq	r0, pc, r0	; <UNPREDICTABLE>
     11c:	00000000 	andeq	r0, r0, r0
     120:	00000c00 	andeq	r0, r0, r0, lsl #24
     124:	e8010000 	stmda	r1, {}	; <UNPREDICTABLE>
     128:	24000000 	strcs	r0, [r0], #-0
     12c:	02000001 	andeq	r0, r0, #1, 0
     130:	249f3000 	ldrcs	r3, [pc], #0	; 138 <__code_start__-0x7ec8>
     134:	74000001 	strvc	r0, [r0], #-1
     138:	01000001 	tsteq	r0, r1
     13c:	02185400 	andseq	r5, r8, #0, 8
     140:	02200000 	eoreq	r0, r0, #0, 0
     144:	00010000 	andeq	r0, r1, r0
     148:	00000054 	andeq	r0, r0, r4, asr r0
     14c:	00000000 	andeq	r0, r0, r0
     150:	00000100 	andeq	r0, r0, r0, lsl #2
	...
     15c:	0000ec00 	andeq	lr, r0, r0, lsl #24
     160:	0000f000 	andeq	pc, r0, r0
     164:	51000100 	mrspl	r0, (UNDEF: 16)
     168:	000000f0 	strdeq	r0, [r0], -r0	; <UNPREDICTABLE>
     16c:	000000f4 	strdeq	r0, [r0], -r4
     170:	80710007 	rsbshi	r0, r1, r7
     174:	7db48080 	ldcvc	0, cr8, [r4, #512]!	; 0x200
     178:	0000f49f 	muleq	r0, pc, r4	; <UNPREDICTABLE>
     17c:	0000fc00 	andeq	pc, r0, r0, lsl #24
     180:	71000700 	tstvc	r0, r0, lsl #14
     184:	b29c8080 	addslt	r8, ip, #128, 0	; 0x80
     188:	00fc9f7d 	rscseq	r9, ip, sp, ror pc
     18c:	01240000 			; <UNDEFINED> instruction: 0x01240000
     190:	00070000 	andeq	r0, r7, r0
     194:	9bb28071 	blls	feca0360 <__bss_end__+0xfec968b8>
     198:	289f7db2 	ldmcs	pc, {r1, r4, r5, r7, r8, sl, fp, ip, sp, lr}	; <UNPREDICTABLE>
     19c:	74000001 	strvc	r0, [r0], #-1
     1a0:	01000001 	tsteq	r0, r1
     1a4:	02185000 	andseq	r5, r8, #0, 0
     1a8:	021c0000 	andseq	r0, ip, #0, 0
     1ac:	00010000 	andeq	r0, r1, r0
     1b0:	00000050 	andeq	r0, r0, r0, asr r0
	...
     1bc:	0000fc00 	andeq	pc, r0, r0, lsl #24
     1c0:	00017400 	andeq	r7, r1, r0, lsl #8
     1c4:	51000100 	mrspl	r0, (UNDEF: 16)
     1c8:	00000218 	andeq	r0, r0, r8, lsl r2
     1cc:	0000021f 	andeq	r0, r0, pc, lsl r2
     1d0:	00510001 	subseq	r0, r1, r1
	...
     1e0:	00010001 	andeq	r0, r1, r1
     1e4:	00012400 	andeq	r2, r1, r0, lsl #8
     1e8:	52000100 	andpl	r0, r0, #0
     1ec:	0000012c 	andeq	r0, r0, ip, lsr #2
     1f0:	00000144 	andeq	r0, r0, r4, asr #2
     1f4:	44530001 	ldrbmi	r0, [r3], #-1
     1f8:	64000001 	strvs	r0, [r0], #-1
     1fc:	01000001 	tsteq	r0, r1
     200:	00005200 	andeq	r5, r0, r0, lsl #4
     204:	00000000 	andeq	r0, r0, r0
     208:	05030000 	streq	r0, [r3, #-0]
     20c:	00010003 	andeq	r0, r1, r3
     210:	00fc0000 	rscseq	r0, ip, r0
     214:	00fc0000 	rscseq	r0, ip, r0
     218:	00010000 	andeq	r0, r1, r0
     21c:	00011050 	andeq	r1, r1, r0, asr r0
     220:	00013c00 	andeq	r3, r1, r0, lsl #24
     224:	52000100 	andpl	r0, r0, #0
     228:	00000164 	andeq	r0, r0, r4, ror #2
     22c:	00000174 	andeq	r0, r0, r4, ror r1
     230:	18520001 	ldmdane	r2, {r0}^
     234:	1f000002 	svcne	0x00000002
     238:	01000002 	tsteq	r0, r2
     23c:	00005200 	andeq	r5, r0, r0, lsl #4
     240:	00000000 	andeq	r0, r0, r0
     244:	00010000 	andeq	r0, r1, r0
     248:	01100000 	tsteq	r0, r0
     24c:	019c0000 	orrseq	r0, ip, r0
     250:	00010000 	andeq	r0, r1, r0
     254:	00021855 	andeq	r1, r2, r5, asr r8
     258:	00026800 	andeq	r6, r2, r0, lsl #16
     25c:	55000100 	strpl	r0, [r0, #-256]	; 0xffffff00
	...
     270:	00ec0000 	rsceq	r0, ip, r0
     274:	00f00000 	rscseq	r0, r0, r0
     278:	00010000 	andeq	r0, r1, r0
     27c:	0000f051 	andeq	pc, r0, r1, asr r0	; <UNPREDICTABLE>
     280:	0000f400 	andeq	pc, r0, r0, lsl #8
     284:	71000700 	tstvc	r0, r0, lsl #14
     288:	b4808080 	strlt	r8, [r0], #128	; 0x80
     28c:	00f49f7d 	rscseq	r9, r4, sp, ror pc
     290:	00fc0000 	rscseq	r0, ip, r0
     294:	00070000 	andeq	r0, r7, r0
     298:	9c808071 	stcls	0, cr8, [r0], {113}	; 0x71
     29c:	fc9f7db2 	ldc2	13, cr7, [pc], {178}	; 0xb2
     2a0:	74000000 	strvc	r0, [r0], #-0
     2a4:	07000001 	streq	r0, [r0, -r1]
     2a8:	b2807100 	addlt	r7, r0, #0
     2ac:	9f7db29b 	svcls	0x007db29b
     2b0:	00000218 	andeq	r0, r0, r8, lsl r2
     2b4:	0000021f 	andeq	r0, r0, pc, lsl r2
     2b8:	80710007 	rsbshi	r0, r1, r7
     2bc:	7db29bb2 			; <UNDEFINED> instruction: 0x7db29bb2
     2c0:	0000009f 	muleq	r0, pc, r0	; <UNPREDICTABLE>
	...
     2cc:	00011001 	andeq	r1, r1, r1
     2d0:	00017400 	andeq	r7, r1, r0, lsl #8
     2d4:	55000100 	strpl	r0, [r0, #-256]	; 0xffffff00
     2d8:	00000218 	andeq	r0, r0, r8, lsl r2
     2dc:	00000220 	andeq	r0, r0, r0, lsr #4
     2e0:	00550001 	subseq	r0, r5, r1
	...
     2ec:	74000401 	strvc	r0, [r0], #-1025	; 0xfffffbff
     2f0:	0c000001 	stceq	0, cr0, [r0], {1}
     2f4:	04000002 	streq	r0, [r0], #-2
     2f8:	17700a00 	ldrbne	r0, [r0, -r0, lsl #20]!
     2fc:	0002209f 	muleq	r2, pc, r0	; <UNPREDICTABLE>
     300:	00026800 	andeq	r6, r2, r0, lsl #16
     304:	0a000400 	beq	130c <__code_start__-0x6cf4>
     308:	009f1770 	addseq	r1, pc, r0, ror r7	; <UNPREDICTABLE>
	...
     314:	00000300 	andeq	r0, r0, r0, lsl #6
     318:	00017400 	andeq	r7, r1, r0, lsl #8
     31c:	00018400 	andeq	r8, r1, r0, lsl #8
     320:	08000300 	stmdaeq	r0, {r8, r9}
     324:	02209f20 	eoreq	r9, r0, #32, 30	; 0x80
     328:	02440000 	subeq	r0, r4, #0, 0
     32c:	00010000 	andeq	r0, r1, r0
     330:	00024454 	andeq	r4, r2, r4, asr r4
     334:	00026800 	andeq	r6, r2, r0, lsl #16
     338:	74000300 	strvc	r0, [r0], #-768	; 0xfffffd00
     33c:	00009f01 	andeq	r9, r0, r1, lsl #30
	...
     34c:	01000000 	mrseq	r0, (UNDEF: 0)
     350:	01740003 	cmneq	r4, r3
     354:	01a40000 			; <UNDEFINED> instruction: 0x01a40000
     358:	00040000 	andeq	r0, r4, r0
     35c:	9f7dd091 	svcls	0x007dd091
     360:	000001a4 	andeq	r0, r0, r4, lsr #3
     364:	000001b0 			; <UNDEFINED> instruction: 0x000001b0
     368:	b0510001 	subslt	r0, r1, r1
     36c:	c8000001 	stmdagt	r0, {r0}
     370:	04000001 	streq	r0, [r0], #-1
     374:	7dd09100 	ldfvcp	f1, [r0]
     378:	0001c89f 	muleq	r1, pc, r8	; <UNPREDICTABLE>
     37c:	0001dc00 	andeq	sp, r1, r0, lsl #24
     380:	52000100 	andpl	r0, r0, #0
     384:	000001dc 	ldrdeq	r0, [r0], -ip
     388:	0000020c 	andeq	r0, r0, ip, lsl #4
     38c:	d0910004 	addsle	r0, r1, r4
     390:	02209f7d 	eoreq	r9, r0, #500	; 0x1f4
     394:	02680000 	rsbeq	r0, r8, #0, 0
     398:	00040000 	andeq	r0, r4, r0
     39c:	9f7dd091 	svcls	0x007dd091
	...
     3a8:	00010000 	andeq	r0, r1, r0
     3ac:	01740005 	cmneq	r4, r5
     3b0:	019c0000 	orrseq	r0, ip, r0
     3b4:	00020000 	andeq	r0, r2, r0
     3b8:	01e89f30 	mvneq	r9, r0, lsr pc
     3bc:	02000000 	andeq	r0, r0, #0, 0
     3c0:	00010000 	andeq	r0, r1, r0
     3c4:	00022056 	andeq	r2, r2, r6, asr r0
     3c8:	00026800 	andeq	r6, r2, r0, lsl #16
     3cc:	30000200 	andcc	r0, r0, r0, lsl #4
     3d0:	0000009f 	muleq	r0, pc, r0	; <UNPREDICTABLE>
	...
     3dc:	05000400 	streq	r0, [r0, #-1024]	; 0xfffffc00
     3e0:	00017400 	andeq	r7, r1, r0, lsl #8
     3e4:	00019c00 	andeq	r9, r1, r0, lsl #24
     3e8:	30000200 	andcc	r0, r0, r0, lsl #4
     3ec:	00019c9f 	muleq	r1, pc, ip	; <UNPREDICTABLE>
     3f0:	0001c400 	andeq	ip, r1, r0, lsl #8
     3f4:	54000100 	strpl	r0, [r0], #-256	; 0xffffff00
     3f8:	000001e8 	andeq	r0, r0, r8, ror #3
     3fc:	00000200 	andeq	r0, r0, r0, lsl #4
     400:	20540001 	subscs	r0, r4, r1
     404:	68000002 	stmdavs	r0, {r1}
     408:	02000002 	andeq	r0, r0, #2, 0
     40c:	009f3000 	addseq	r3, pc, r0
	...
     41c:	06000100 	streq	r0, [r0], -r0, lsl #2
     420:	00017400 	andeq	r7, r1, r0, lsl #8
     424:	00019c00 	andeq	r9, r1, r0, lsl #24
     428:	30000200 	andcc	r0, r0, r0, lsl #4
     42c:	00019c9f 	muleq	r1, pc, ip	; <UNPREDICTABLE>
     430:	0001ac00 	andeq	sl, r1, r0, lsl #24
     434:	56000100 	strpl	r0, [r0], -r0, lsl #2
     438:	000001ac 	andeq	r0, r0, ip, lsr #3
     43c:	000001e8 	andeq	r0, r0, r8, ror #3
     440:	e8530001 	ldmda	r3, {r0}^
     444:	00000001 	andeq	r0, r0, r1
     448:	01000002 	tsteq	r0, r2
     44c:	02205600 	eoreq	r5, r0, #0, 12
     450:	02680000 	rsbeq	r0, r8, #0, 0
     454:	00020000 	andeq	r0, r2, r0
     458:	00009f30 	andeq	r9, r0, r0, lsr pc
     45c:	00000000 	andeq	r0, r0, r0
     460:	00020000 	andeq	r0, r2, r0
     464:	00000000 	andeq	r0, r0, r0
     468:	00020200 	andeq	r0, r2, r0, lsl #4
     46c:	01800002 	orreq	r0, r0, r2
     470:	019c0000 	orrseq	r0, ip, r0
     474:	00020000 	andeq	r0, r2, r0
     478:	019c9f30 	orrseq	r9, ip, r0, lsr pc
     47c:	01c00000 	biceq	r0, r0, r0
     480:	00010000 	andeq	r0, r1, r0
     484:	0001c057 	andeq	ip, r1, r7, asr r0
     488:	0001eb00 	andeq	lr, r1, r0, lsl #22
     48c:	51000100 	mrspl	r0, (UNDEF: 16)
     490:	000001eb 	andeq	r0, r0, fp, ror #3
     494:	000001ec 	andeq	r0, r0, ip, ror #3
     498:	7f770003 	svcvc	0x00770003
     49c:	0001ec9f 	muleq	r1, pc, ip	; <UNPREDICTABLE>
     4a0:	00020000 	andeq	r0, r2, r0
     4a4:	57000100 	strpl	r0, [r0, -r0, lsl #2]
     4a8:	00000240 	andeq	r0, r0, r0, asr #4
     4ac:	00000268 	andeq	r0, r0, r8, ror #4
     4b0:	9f300002 	svcls	0x00300002
	...
     4bc:	00000001 	andeq	r0, r0, r1
     4c0:	019c0000 	orrseq	r0, ip, r0
     4c4:	01c00000 	biceq	r0, r0, r0
     4c8:	000c0000 	andeq	r0, ip, r0
     4cc:	24330077 	ldrtcs	r0, [r3], #-119	; 0xffffff89
     4d0:	0a227c91 	beq	89f71c <__bss_end__+0x895c74>
     4d4:	9f1c012c 	svcls	0x001c012c
     4d8:	000001c0 	andeq	r0, r0, r0, asr #3
     4dc:	000001eb 	andeq	r0, r0, fp, ror #3
     4e0:	0071000c 	rsbseq	r0, r1, ip
     4e4:	7c912433 	cfldrsvc	mvf2, [r1], {51}	; 0x33
     4e8:	012c0a22 			; <UNDEFINED> instruction: 0x012c0a22
     4ec:	01eb9f1c 	mvneq	r9, ip, lsl pc
     4f0:	02000000 	andeq	r0, r0, #0, 0
     4f4:	000c0000 	andeq	r0, ip, r0
     4f8:	24337f77 	ldrtcs	r7, [r3], #-3959	; 0xfffff089
     4fc:	0a227c91 	beq	89f748 <__bss_end__+0x895ca0>
     500:	9f1c012c 	svcls	0x001c012c
	...
     510:	000001ac 	andeq	r0, r0, ip, lsr #3
     514:	000001e8 	andeq	r0, r0, r8, ror #3
     518:	e8560001 	ldmda	r6, {r0}^
     51c:	eb000001 	bl	528 <__code_start__-0x7ad8>
     520:	01000001 	tsteq	r0, r1
     524:	00005300 	andeq	r5, r0, r0, lsl #6
     528:	00000000 	andeq	r0, r0, r0
     52c:	00020000 	andeq	r0, r2, r0
     530:	00000000 	andeq	r0, r0, r0
     534:	000001e8 	andeq	r0, r0, r8, ror #3
     538:	000001f0 	strdeq	r0, [r0], -r0	; <UNPREDICTABLE>
     53c:	f0550001 			; <UNDEFINED> instruction: 0xf0550001
     540:	f8000001 			; <UNDEFINED> instruction: 0xf8000001
     544:	04000001 	streq	r0, [r0], #-1
     548:	51c07500 	bicpl	r7, r0, r0, lsl #10
     54c:	0001f89f 	muleq	r1, pc, r8	; <UNPREDICTABLE>
     550:	00020000 	andeq	r0, r2, r0
     554:	75000400 	strvc	r0, [r0, #-1024]	; 0xfffffc00
     558:	009f5190 	umullseq	r5, pc, r0, r1	; <UNPREDICTABLE>
	...
     568:	18000000 	stmdane	r0, {}	; <UNPREDICTABLE>
     56c:	01000000 	mrseq	r0, (UNDEF: 0)
     570:	00185000 	andseq	r5, r8, r0
     574:	00b00000 	adcseq	r0, r0, r0
     578:	00040000 	andeq	r0, r4, r0
     57c:	9f5001f3 	svcls	0x005001f3
	...
     590:	0000009f 	muleq	r0, pc, r0	; <UNPREDICTABLE>
     594:	9f510001 	svcls	0x00510001
     598:	b0000000 	andlt	r0, r0, r0
     59c:	04000000 	streq	r0, [r0], #-0
     5a0:	5101f300 	mrspl	pc, SP_irq	; <UNPREDICTABLE>
     5a4:	0000009f 	muleq	r0, pc, r0	; <UNPREDICTABLE>
	...
     5b4:	00000c00 	andeq	r0, r0, r0, lsl #24
     5b8:	52000100 	andpl	r0, r0, #0
     5bc:	0000000c 	andeq	r0, r0, ip
     5c0:	000000b0 	strheq	r0, [r0], -r0	; <UNPREDICTABLE>
     5c4:	01f30004 	mvnseq	r0, r4
     5c8:	00009f52 	andeq	r9, r0, r2, asr pc
     5cc:	00000000 	andeq	r0, r0, r0
     5d0:	02000000 	andeq	r0, r0, #0, 0
     5d4:	00000002 	andeq	r0, r0, r2
     5d8:	00180000 	andseq	r0, r8, r0
     5dc:	00010000 	andeq	r0, r1, r0
     5e0:	00001853 	andeq	r1, r0, r3, asr r8
     5e4:	0000b000 	andeq	fp, r0, r0
     5e8:	f3000400 	vshl.u8	d0, d0, d0
     5ec:	009f5301 	addseq	r5, pc, r1, lsl #6
     5f0:	00000000 	andeq	r0, r0, r0
     5f4:	02000000 	andeq	r0, r0, #0, 0
     5f8:	00000000 	andeq	r0, r0, r0
     5fc:	48000000 	stmdami	r0, {}	; <UNPREDICTABLE>
     600:	02000000 	andeq	r0, r0, #0, 0
     604:	489f3000 	ldmmi	pc, {ip, sp}	; <UNPREDICTABLE>
     608:	b0000000 	andlt	r0, r0, r0
     60c:	01000000 	mrseq	r0, (UNDEF: 0)
     610:	00005400 	andeq	r5, r0, r0, lsl #8
     614:	00000000 	andeq	r0, r0, r0
     618:	00010000 	andeq	r0, r1, r0
     61c:	00000000 	andeq	r0, r0, r0
     620:	00000008 	andeq	r0, r0, r8
     624:	00000010 	andeq	r0, r0, r0, lsl r0
     628:	4c550001 	mrrcmi	0, 0, r0, r5, cr1
     62c:	94000000 	strls	r0, [r0], #-0
     630:	01000000 	mrseq	r0, (UNDEF: 0)
     634:	00985000 	addseq	r5, r8, r0
     638:	009c0000 	addseq	r0, ip, r0
     63c:	00010000 	andeq	r0, r1, r0
     640:	00000050 	andeq	r0, r0, r0, asr r0
     644:	00000000 	andeq	r0, r0, r0
     648:	10000000 	andne	r0, r0, r0
     64c:	b0000000 	andlt	r0, r0, r0
     650:	01000000 	mrseq	r0, (UNDEF: 0)
     654:	00005500 	andeq	r5, r0, r0, lsl #10
	...
     660:	01000000 	mrseq	r0, (UNDEF: 0)
     664:	0000001c 	andeq	r0, r0, ip, lsl r0
     668:	00000048 	andeq	r0, r0, r8, asr #32
     66c:	50520001 	subspl	r0, r2, r1
     670:	68000000 	stmdavs	r0, {}	; <UNPREDICTABLE>
     674:	01000000 	mrseq	r0, (UNDEF: 0)
     678:	00685300 	rsbeq	r5, r8, r0, lsl #6
     67c:	00800000 	addeq	r0, r0, r0
     680:	00010000 	andeq	r0, r1, r0
     684:	00000052 	andeq	r0, r0, r2, asr r0
     688:	00000000 	andeq	r0, r0, r0
     68c:	03020000 	movweq	r0, #8192	; 0x2000
     690:	18000100 	stmdane	r0, {r8}
     694:	18000000 	stmdane	r0, {}	; <UNPREDICTABLE>
     698:	01000000 	mrseq	r0, (UNDEF: 0)
     69c:	002c5000 	eoreq	r5, ip, r0
     6a0:	00640000 	rsbeq	r0, r4, r0
     6a4:	00010000 	andeq	r0, r1, r0
     6a8:	00008052 	andeq	r8, r0, r2, asr r0
     6ac:	00009f00 	andeq	r9, r0, r0, lsl #30
     6b0:	52000100 	andpl	r0, r0, #0
	...
     6bc:	002c0001 	eoreq	r0, ip, r1
     6c0:	00b00000 	adcseq	r0, r0, r0
     6c4:	00010000 	andeq	r0, r1, r0
     6c8:	00000057 	andeq	r0, r0, r7, asr r0
     6cc:	00000000 	andeq	r0, r0, r0
     6d0:	08000000 	stmdaeq	r0, {}	; <UNPREDICTABLE>
     6d4:	10000000 	andne	r0, r0, r0
     6d8:	01000000 	mrseq	r0, (UNDEF: 0)
     6dc:	00005500 	andeq	r5, r0, r0, lsl #10
	...
     6e8:	0000002c 	andeq	r0, r0, ip, lsr #32
     6ec:	000000b0 	strheq	r0, [r0], -r0	; <UNPREDICTABLE>
     6f0:	00570001 	subseq	r0, r7, r1
	...
     700:	00002c00 	andeq	r2, r0, r0, lsl #24
     704:	00003400 	andeq	r3, r0, r0, lsl #8
     708:	50000100 	andpl	r0, r0, r0, lsl #2
     70c:	00000034 	andeq	r0, r0, r4, lsr r0
     710:	00000048 	andeq	r0, r0, r8, asr #32
     714:	48540001 	ldmdami	r4, {r0}^
     718:	58000000 	stmdapl	r0, {}	; <UNPREDICTABLE>
     71c:	01000000 	mrseq	r0, (UNDEF: 0)
     720:	00005000 	andeq	r5, r0, r0
	...
     72c:	00010100 	andeq	r0, r1, r0, lsl #2
     730:	00000000 	andeq	r0, r0, r0
     734:	000c0000 	andeq	r0, ip, r0
     738:	00010000 	andeq	r0, r1, r0
     73c:	00000c50 	andeq	r0, r0, r0, asr ip
     740:	00002000 	andeq	r2, r0, r0
     744:	54000100 	strpl	r0, [r0], #-256	; 0xffffff00
     748:	00000020 	andeq	r0, r0, r0, lsr #32
     74c:	00000024 	andeq	r0, r0, r4, lsr #32
     750:	01740003 	cmneq	r4, r3
     754:	0000249f 	muleq	r0, pc, r4	; <UNPREDICTABLE>
     758:	00003800 	andeq	r3, r0, r0, lsl #16
     75c:	54000100 	strpl	r0, [r0], #-256	; 0xffffff00
	...
     770:	03880000 	orreq	r0, r8, #0, 0
     774:	03940000 	orrseq	r0, r4, #0, 0
     778:	00010000 	andeq	r0, r1, r0
     77c:	00039450 	andeq	r9, r3, r0, asr r4
     780:	0003d000 	andeq	sp, r3, r0
     784:	5b000100 	blpl	b8c <__code_start__-0x7474>
     788:	000003d0 	ldrdeq	r0, [r0], -r0	; <UNPREDICTABLE>
     78c:	00000920 	andeq	r0, r0, r0, lsr #18
     790:	01f30004 	mvnseq	r0, r4
     794:	09209f50 	stmdbeq	r0!, {r4, r6, r8, r9, sl, fp, ip, pc}
     798:	09280000 	stmdbeq	r8!, {}	; <UNPREDICTABLE>
     79c:	00010000 	andeq	r0, r1, r0
     7a0:	0009285b 	andeq	r2, r9, fp, asr r8
     7a4:	0009b400 	andeq	fp, r9, r0, lsl #8
     7a8:	f3000400 	vshl.u8	d0, d0, d0
     7ac:	009f5001 	addseq	r5, pc, r1
	...
     7bc:	88000000 	stmdahi	r0, {}	; <UNPREDICTABLE>
     7c0:	d0000003 	andle	r0, r0, r3
     7c4:	01000003 	tsteq	r0, r3
     7c8:	03d05100 	bicseq	r5, r0, #0
     7cc:	09200000 	stmdbeq	r0!, {}	; <UNPREDICTABLE>
     7d0:	00040000 	andeq	r0, r4, r0
     7d4:	9f5101f3 	svcls	0x005101f3
     7d8:	00000920 	andeq	r0, r0, r0, lsr #18
     7dc:	00000928 	andeq	r0, r0, r8, lsr #18
     7e0:	28510001 	ldmdacs	r1, {r0}^
     7e4:	b4000009 	strlt	r0, [r0], #-9
     7e8:	04000009 	streq	r0, [r0], #-9
     7ec:	5101f300 	mrspl	pc, SP_irq	; <UNPREDICTABLE>
     7f0:	0000009f 	muleq	r0, pc, r0	; <UNPREDICTABLE>
	...
     800:	01000001 	tsteq	r0, r1
	...
     810:	00038800 	andeq	r8, r3, r0, lsl #16
     814:	0003d000 	andeq	sp, r3, r0
     818:	52000100 	andpl	r0, r0, #0
     81c:	000003d0 	ldrdeq	r0, [r0], -r0	; <UNPREDICTABLE>
     820:	00000400 	andeq	r0, r0, r0, lsl #8
     824:	14560001 	ldrbne	r0, [r6], #-1
     828:	24000004 	strcs	r0, [r0], #-4
     82c:	01000004 	tsteq	r0, r4
     830:	04245600 	strteq	r5, [r4], #-1536	; 0xfffffa00
     834:	04280000 	strteq	r0, [r8], #-0
     838:	00030000 	andeq	r0, r3, r0
     83c:	a89f7f76 	ldmge	pc, {r1, r2, r4, r5, r6, r8, r9, sl, fp, ip, sp, lr}	; <UNPREDICTABLE>
     840:	ac000004 	stcge	0, cr0, [r0], {4}
     844:	01000004 	tsteq	r0, r4
     848:	04e05600 	strbteq	r5, [r0], #1536	; 0x600
     84c:	05040000 	streq	r0, [r4, #-0]
     850:	00010000 	andeq	r0, r1, r0
     854:	00057c56 	andeq	r7, r5, r6, asr ip
     858:	00058800 	andeq	r8, r5, r0, lsl #16
     85c:	53000100 	movwpl	r0, #256	; 0x100
     860:	00000588 	andeq	r0, r0, r8, lsl #11
     864:	000005d0 	ldrdeq	r0, [r0], -r0	; <UNPREDICTABLE>
     868:	cc910003 	ldcgt	0, cr0, [r1], {3}
     86c:	0008007d 	andeq	r0, r8, sp, ror r0
     870:	00080f00 	andeq	r0, r8, r0, lsl #30
     874:	53000100 	movwpl	r0, #256	; 0x100
     878:	0000080f 	andeq	r0, r0, pc, lsl #16
     87c:	00000888 	andeq	r0, r0, r8, lsl #17
     880:	cc910003 	ldcgt	0, cr0, [r1], {3}
     884:	0009207d 	andeq	r2, r9, sp, ror r0
     888:	00092800 	andeq	r2, r9, r0, lsl #16
     88c:	52000100 	andpl	r0, r0, #0
     890:	00000948 	andeq	r0, r0, r8, asr #18
     894:	00000964 	andeq	r0, r0, r4, ror #18
     898:	cc910003 	ldcgt	0, cr0, [r1], {3}
     89c:	0000007d 	andeq	r0, r0, sp, ror r0
	...
     8b0:	00000101 	andeq	r0, r0, r1, lsl #2
     8b4:	00000101 	andeq	r0, r0, r1, lsl #2
     8b8:	02020000 	andeq	r0, r2, #0, 0
     8bc:	02020000 	andeq	r0, r2, #0, 0
     8c0:	01010000 	mrseq	r0, (UNDEF: 1)
     8c4:	02020000 	andeq	r0, r2, #0, 0
     8c8:	01010000 	mrseq	r0, (UNDEF: 1)
	...
     8d4:	00038800 	andeq	r8, r3, r0, lsl #16
     8d8:	0003ac00 	andeq	sl, r3, r0, lsl #24
     8dc:	53000100 	movwpl	r0, #256	; 0x100
     8e0:	000003ac 	andeq	r0, r0, ip, lsr #7
     8e4:	000003c0 	andeq	r0, r0, r0, asr #7
     8e8:	93530003 	cmpls	r3, #3, 0
     8ec:	0003d004 	andeq	sp, r3, r4
     8f0:	0003e800 	andeq	lr, r3, r0, lsl #16
     8f4:	58000300 	stmdapl	r0, {r8, r9}
     8f8:	03e80493 	mvneq	r0, #-1828716544	; 0x93000000
     8fc:	04ac0000 	strteq	r0, [ip], #0
     900:	00030000 	andeq	r0, r3, r0
     904:	ac049358 	stcge	3, cr9, [r4], {88}	; 0x58
     908:	b0000004 	andlt	r0, r0, r4
     90c:	01000004 	tsteq	r0, r4
     910:	04c05300 	strbeq	r5, [r0], #768	; 0x300
     914:	04c00000 	strbeq	r0, [r0], #0
     918:	00030000 	andeq	r0, r3, r0
     91c:	c0049358 	andgt	r9, r4, r8, asr r3
     920:	cc000004 	stcgt	0, cr0, [r0], {4}
     924:	05000004 	streq	r0, [r0, #-4]
     928:	9f047800 	svcls	0x00047800
     92c:	04cc0493 	strbeq	r0, [ip], #1171	; 0x493
     930:	04e00000 	strbteq	r0, [r0], #0
     934:	00030000 	andeq	r0, r3, r0
     938:	e0049358 	and	r9, r4, r8, asr r3
     93c:	38000004 	stmdacc	r0, {r2}
     940:	03000005 	movweq	r0, #5
     944:	04935800 	ldreq	r5, [r3], #2048	; 0x800
     948:	00000538 	andeq	r0, r0, r8, lsr r5
     94c:	0000053c 	andeq	r0, r0, ip, lsr r5
     950:	79780005 	ldmdbvc	r8!, {r0, r2}^
     954:	d004939f 	mulle	r4, pc, r3	; <UNPREDICTABLE>
     958:	d0000005 	andle	r0, r0, r5
     95c:	03000005 	movweq	r0, #5
     960:	04935800 	ldreq	r5, [r3], #2048	; 0x800
     964:	000005d0 	ldrdeq	r0, [r0], -r0	; <UNPREDICTABLE>
     968:	000005d4 	ldrdeq	r0, [r0], -r4
     96c:	04780005 	ldrbteq	r0, [r8], #-5
     970:	f404939f 	vst2.32	{d9-d12}, [r4 :64]
     974:	f4000005 	vst4.8	{d0-d3}, [r0], r5
     978:	03000005 	movweq	r0, #5
     97c:	04935800 	ldreq	r5, [r3], #2048	; 0x800
     980:	000005f4 	strdeq	r0, [r0], -r4
     984:	000005fc 	strdeq	r0, [r0], -ip
     988:	04780005 	ldrbteq	r0, [r8], #-5
     98c:	fc04939f 	stc2	3, cr9, [r4], {159}	; 0x9f
     990:	fc000005 	stc2	0, cr0, [r0], {5}
     994:	03000005 	movweq	r0, #5
     998:	04935800 	ldreq	r5, [r3], #2048	; 0x800
     99c:	000005fc 	strdeq	r0, [r0], -ip
     9a0:	00000600 	andeq	r0, r0, r0, lsl #12
     9a4:	04780005 	ldrbteq	r0, [r8], #-5
     9a8:	0004939f 	muleq	r4, pc, r3	; <UNPREDICTABLE>
     9ac:	00000006 	andeq	r0, r0, r6
     9b0:	03000007 	movweq	r0, #7
     9b4:	04935800 	ldreq	r5, [r3], #2048	; 0x800
     9b8:	00000700 	andeq	r0, r0, r0, lsl #14
     9bc:	0000070c 	andeq	r0, r0, ip, lsl #14
     9c0:	04780005 	ldrbteq	r0, [r8], #-5
     9c4:	0c04939f 	stceq	3, cr9, [r4], {159}	; 0x9f
     9c8:	f8000007 			; <UNDEFINED> instruction: 0xf8000007
     9cc:	03000007 	movweq	r0, #7
     9d0:	04935800 	ldreq	r5, [r3], #2048	; 0x800
     9d4:	000007f8 	strdeq	r0, [r0], -r8
     9d8:	000007fc 	strdeq	r0, [r0], -ip
     9dc:	04780005 	ldrbteq	r0, [r8], #-5
     9e0:	fc04939f 	stc2	3, cr9, [r4], {159}	; 0x9f
     9e4:	00000007 	andeq	r0, r0, r7
     9e8:	03000008 	movweq	r0, #8
     9ec:	04935800 	ldreq	r5, [r3], #2048	; 0x800
     9f0:	00000888 	andeq	r0, r0, r8, lsl #17
     9f4:	00000920 	andeq	r0, r0, r0, lsr #18
     9f8:	93580003 	cmpls	r8, #3, 0
     9fc:	00092004 	andeq	r2, r9, r4
     a00:	00092800 	andeq	r2, r9, r0, lsl #16
     a04:	53000100 	movwpl	r0, #256	; 0x100
     a08:	00000964 	andeq	r0, r0, r4, ror #18
     a0c:	000009b4 			; <UNDEFINED> instruction: 0x000009b4
     a10:	93580003 	cmpls	r8, #3, 0
     a14:	00000004 	andeq	r0, r0, r4
     a18:	00000000 	andeq	r0, r0, r0
     a1c:	00000100 	andeq	r0, r0, r0, lsl #2
     a20:	00000000 	andeq	r0, r0, r0
     a24:	02020000 	andeq	r0, r2, #0, 0
     a28:	01000000 	mrseq	r0, (UNDEF: 0)
     a2c:	00000101 	andeq	r0, r0, r1, lsl #2
     a30:	ac000000 	stcge	0, cr0, [r0], {-0}
     a34:	d0000003 	andle	r0, r0, r3
     a38:	01000003 	tsteq	r0, r3
     a3c:	03d05b00 	bicseq	r5, r0, #0, 22
     a40:	03d40000 	bicseq	r0, r4, #0, 0
     a44:	00010000 	andeq	r0, r1, r0
     a48:	0003d454 	andeq	sp, r3, r4, asr r4
     a4c:	0003d800 	andeq	sp, r3, r0, lsl #16
     a50:	74000300 	strvc	r0, [r0], #-768	; 0xfffffd00
     a54:	03d89f7f 	bicseq	r9, r8, #508	; 0x1fc
     a58:	03fc0000 	mvnseq	r0, #0, 0
     a5c:	00010000 	andeq	r0, r1, r0
     a60:	0004a854 	andeq	sl, r4, r4, asr r8
     a64:	0004ac00 	andeq	sl, r4, r0, lsl #24
     a68:	54000100 	strpl	r0, [r0], #-256	; 0xffffff00
     a6c:	000004ac 	andeq	r0, r0, ip, lsr #9
     a70:	000004b4 			; <UNDEFINED> instruction: 0x000004b4
     a74:	01740003 	cmneq	r4, r3
     a78:	0004b49f 	muleq	r4, pc, r4	; <UNPREDICTABLE>
     a7c:	0004c000 	andeq	ip, r4, r0
     a80:	54000100 	strpl	r0, [r0], #-256	; 0xffffff00
     a84:	000004e4 	andeq	r0, r0, r4, ror #9
     a88:	000004f4 	strdeq	r0, [r0], -r4
     a8c:	f4540001 			; <UNDEFINED> instruction: 0xf4540001
     a90:	f8000004 			; <UNDEFINED> instruction: 0xf8000004
     a94:	03000004 	movweq	r0, #4
     a98:	9f017400 	svcls	0x00017400
     a9c:	000004f8 	strdeq	r0, [r0], -r8
     aa0:	00000504 	andeq	r0, r0, r4, lsl #10
     aa4:	20540001 	subscs	r0, r4, r1
     aa8:	28000009 	stmdacs	r0, {r0, r3}
     aac:	01000009 	tsteq	r0, r9
     ab0:	00005b00 	andeq	r5, r0, r0, lsl #22
     ab4:	00000000 	andeq	r0, r0, r0
     ab8:	00010000 	andeq	r0, r1, r0
     abc:	000003ac 	andeq	r0, r0, ip, lsr #7
     ac0:	000009b4 			; <UNDEFINED> instruction: 0x000009b4
     ac4:	00570001 	subseq	r0, r7, r1
     ac8:	00000000 	andeq	r0, r0, r0
     acc:	02000000 	andeq	r0, r0, #0, 0
     ad0:	00000000 	andeq	r0, r0, r0
     ad4:	00057c00 	andeq	r7, r5, r0, lsl #24
     ad8:	0005d000 	andeq	sp, r5, r0
     adc:	5b000100 	blpl	ee4 <__code_start__-0x711c>
     ae0:	00000800 	andeq	r0, r0, r0, lsl #16
     ae4:	00000888 	andeq	r0, r0, r8, lsl #17
     ae8:	485b0001 	ldmdami	fp, {r0}^
     aec:	64000009 	strvs	r0, [r0], #-9
     af0:	01000009 	tsteq	r0, r9
     af4:	00005b00 	andeq	r5, r0, r0, lsl #22
     af8:	00000000 	andeq	r0, r0, r0
     afc:	00030000 	andeq	r0, r3, r0
     b00:	00000000 	andeq	r0, r0, r0
     b04:	0000057c 	andeq	r0, r0, ip, ror r5
     b08:	000005d0 	ldrdeq	r0, [r0], -r0	; <UNPREDICTABLE>
     b0c:	00590001 	subseq	r0, r9, r1
     b10:	88000008 	stmdahi	r0, {r3}
     b14:	01000008 	tsteq	r0, r8
     b18:	09485900 	stmdbeq	r8, {r8, fp, ip, lr}^
     b1c:	09640000 	stmdbeq	r4!, {}^	; <UNPREDICTABLE>
     b20:	00010000 	andeq	r0, r1, r0
     b24:	00000059 	andeq	r0, r0, r9, asr r0
     b28:	00000000 	andeq	r0, r0, r0
     b2c:	00000400 	andeq	r0, r0, r0, lsl #8
     b30:	00000000 	andeq	r0, r0, r0
     b34:	0003ac00 	andeq	sl, r3, r0, lsl #24
     b38:	0003d000 	andeq	sp, r3, r0
     b3c:	52000100 	andpl	r0, r0, #0
     b40:	000003d0 	ldrdeq	r0, [r0], -r0	; <UNPREDICTABLE>
     b44:	00000920 	andeq	r0, r0, r0, lsr #18
     b48:	01f30004 	mvnseq	r0, r4
     b4c:	09209f52 	stmdbeq	r0!, {r1, r4, r6, r8, r9, sl, fp, ip, pc}
     b50:	09280000 	stmdbeq	r8!, {}	; <UNPREDICTABLE>
     b54:	00010000 	andeq	r0, r1, r0
     b58:	00092852 	andeq	r2, r9, r2, asr r8
     b5c:	0009b400 	andeq	fp, r9, r0, lsl #8
     b60:	f3000400 	vshl.u8	d0, d0, d0
     b64:	009f5201 	addseq	r5, pc, r1, lsl #4
	...
     b70:	00000101 	andeq	r0, r0, r1, lsl #2
     b74:	01000000 	mrseq	r0, (UNDEF: 0)
     b78:	e0000000 	and	r0, r0, r0
     b7c:	e0000004 	and	r0, r0, r4
     b80:	01000004 	tsteq	r0, r4
     b84:	04e05000 	strbteq	r5, [r0], #0
     b88:	04e80000 	strbteq	r0, [r8], #0
     b8c:	00010000 	andeq	r0, r1, r0
     b90:	0005b855 	andeq	fp, r5, r5, asr r8
     b94:	0005d000 	andeq	sp, r5, r0
     b98:	55000100 	strpl	r0, [r0, #-256]	; 0xffffff00
     b9c:	000005f0 	strdeq	r0, [r0], -r0	; <UNPREDICTABLE>
     ba0:	000005f4 	strdeq	r0, [r0], -r4
     ba4:	f4500001 			; <UNDEFINED> instruction: 0xf4500001
     ba8:	f8000007 			; <UNDEFINED> instruction: 0xf8000007
     bac:	01000007 	tsteq	r0, r7
     bb0:	08505500 	ldmdaeq	r0, {r8, sl, ip, lr}^
     bb4:	08880000 	stmeq	r8, {}	; <UNPREDICTABLE>
     bb8:	00010000 	andeq	r0, r1, r0
     bbc:	00000055 	andeq	r0, r0, r5, asr r0
     bc0:	00000000 	andeq	r0, r0, r0
     bc4:	00000200 	andeq	r0, r0, r0, lsl #4
     bc8:	00000000 	andeq	r0, r0, r0
     bcc:	00041400 	andeq	r1, r4, r0, lsl #8
     bd0:	00041800 	andeq	r1, r4, r0, lsl #16
     bd4:	30000200 	andcc	r0, r0, r0, lsl #4
     bd8:	0004189f 	muleq	r4, pc, r8	; <UNPREDICTABLE>
     bdc:	00041c00 	andeq	r1, r4, r0, lsl #24
     be0:	55000100 	strpl	r0, [r0, #-256]	; 0xffffff00
     be4:	00000428 	andeq	r0, r0, r8, lsr #8
     be8:	0000043c 	andeq	r0, r0, ip, lsr r4
     bec:	28550001 	ldmdacs	r5, {r0}^
     bf0:	30000009 	andcc	r0, r0, r9
     bf4:	01000009 	tsteq	r0, r9
     bf8:	00005500 	andeq	r5, r0, r0, lsl #10
     bfc:	00000000 	andeq	r0, r0, r0
     c00:	00010000 	andeq	r0, r1, r0
	...
     c0c:	05040000 	streq	r0, [r4, #-0]
     c10:	05840000 	streq	r0, [r4]
     c14:	00010000 	andeq	r0, r1, r0
     c18:	00058456 	andeq	r8, r5, r6, asr r4
     c1c:	00058800 	andeq	r8, r5, r0, lsl #16
     c20:	73000300 	movwvc	r0, #768	; 0x300
     c24:	05889f7e 	streq	r9, [r8, #3966]	; 0xf7e
     c28:	05d00000 	ldrbeq	r0, [r0]
     c2c:	00070000 	andeq	r0, r7, r0
     c30:	067dcc91 			; <UNDEFINED> instruction: 0x067dcc91
     c34:	009f1c32 	addseq	r1, pc, r2, lsr ip	; <UNPREDICTABLE>
     c38:	1c000008 	stcne	0, cr0, [r0], {8}
     c3c:	01000008 	tsteq	r0, r8
     c40:	081c5600 	ldmdaeq	ip, {r9, sl, ip, lr}
     c44:	08880000 	stmeq	r8, {}	; <UNPREDICTABLE>
     c48:	00070000 	andeq	r0, r7, r0
     c4c:	067dcc91 			; <UNDEFINED> instruction: 0x067dcc91
     c50:	489f1c32 	ldmmi	pc, {r1, r4, r5, sl, fp, ip}	; <UNPREDICTABLE>
     c54:	b4000009 	strlt	r0, [r0], #-9
     c58:	01000009 	tsteq	r0, r9
     c5c:	00005600 	andeq	r5, r0, r0, lsl #12
     c60:	00000000 	andeq	r0, r0, r0
     c64:	06040000 	streq	r0, [r4], -r0
     c68:	04140402 	ldreq	r0, [r4], #-1026	; 0xfffffbfe
     c6c:	04140000 	ldreq	r0, [r4], #-0
     c70:	00060000 	andeq	r0, r6, r0
     c74:	ff080072 			; <UNDEFINED> instruction: 0xff080072
     c78:	04289f1a 	strteq	r9, [r8], #-3866	; 0xfffff0e6
     c7c:	04280000 	strteq	r0, [r8], #-0
     c80:	00060000 	andeq	r0, r6, r0
     c84:	ff080072 			; <UNDEFINED> instruction: 0xff080072
     c88:	00009f1a 	andeq	r9, r0, sl, lsl pc
     c8c:	00000000 	andeq	r0, r0, r0
     c90:	00020000 	andeq	r0, r2, r0
     c94:	00000000 	andeq	r0, r0, r0
     c98:	000005fc 	strdeq	r0, [r0], -ip
     c9c:	00000700 	andeq	r0, r0, r0, lsl #14
     ca0:	80080003 	andhi	r0, r8, r3
     ca4:	0008a89f 	muleq	r8, pc, r8	; <UNPREDICTABLE>
     ca8:	0008bc00 	andeq	fp, r8, r0, lsl #24
     cac:	08000300 	stmdaeq	r0, {r8, r9}
     cb0:	09109f80 	ldmdbeq	r0, {r7, r8, r9, sl, fp, ip, pc}
     cb4:	09200000 	stmdbeq	r0!, {}	; <UNPREDICTABLE>
     cb8:	00030000 	andeq	r0, r3, r0
     cbc:	009f8008 	addseq	r8, pc, r8
     cc0:	00000000 	andeq	r0, r0, r0
     cc4:	01000000 	mrseq	r0, (UNDEF: 0)
     cc8:	00000000 	andeq	r0, r0, r0
     ccc:	0005fc00 	andeq	pc, r5, r0, lsl #24
     cd0:	00070000 	andeq	r0, r7, r0
     cd4:	30000200 	andcc	r0, r0, r0, lsl #4
     cd8:	0008a89f 	muleq	r8, pc, r8	; <UNPREDICTABLE>
     cdc:	0008bc00 	andeq	fp, r8, r0, lsl #24
     ce0:	30000200 	andcc	r0, r0, r0, lsl #4
     ce4:	0009109f 	muleq	r9, pc, r0	; <UNPREDICTABLE>
     ce8:	00092000 	andeq	r2, r9, r0
     cec:	30000200 	andcc	r0, r0, r0, lsl #4
     cf0:	0000009f 	muleq	r0, pc, r0	; <UNPREDICTABLE>
     cf4:	00000000 	andeq	r0, r0, r0
     cf8:	00000100 	andeq	r0, r0, r0, lsl #2
     cfc:	fc000000 	stc2	0, cr0, [r0], {-0}
     d00:	e0000005 	and	r0, r0, r5
     d04:	01000006 	tsteq	r0, r6
     d08:	08a85500 	stmiaeq	r8!, {r8, sl, ip, lr}
     d0c:	08bc0000 	ldmeq	ip!, {}	; <UNPREDICTABLE>
     d10:	00010000 	andeq	r0, r1, r0
     d14:	00091055 	andeq	r1, r9, r5, asr r0
     d18:	00092000 	andeq	r2, r9, r0
     d1c:	55000100 	strpl	r0, [r0, #-256]	; 0xffffff00
	...
     d28:	00000001 	andeq	r0, r0, r1
     d2c:	00000000 	andeq	r0, r0, r0
     d30:	000005fc 	strdeq	r0, [r0], -ip
     d34:	000006e0 	andeq	r0, r0, r0, ror #13
     d38:	d0910004 	addsle	r0, r1, r4
     d3c:	06e09f7d 			; <UNDEFINED> instruction: 0x06e09f7d
     d40:	07000000 	streq	r0, [r0, -r0]
     d44:	00010000 	andeq	r0, r1, r0
     d48:	0008a855 	andeq	sl, r8, r5, asr r8
     d4c:	0008bc00 	andeq	fp, r8, r0, lsl #24
     d50:	91000400 	tstls	r0, r0, lsl #8
     d54:	109f7dd0 			; <UNDEFINED> instruction: 0x109f7dd0
     d58:	20000009 	andcs	r0, r0, r9
     d5c:	04000009 	streq	r0, [r0], #-9
     d60:	7dd09100 	ldfvcp	f1, [r0]
     d64:	0000009f 	muleq	r0, pc, r0	; <UNPREDICTABLE>
     d68:	00000000 	andeq	r0, r0, r0
     d6c:	00000100 	andeq	r0, r0, r0, lsl #2
     d70:	fc000000 	stc2	0, cr0, [r0], {-0}
     d74:	00000005 	andeq	r0, r0, r5
     d78:	02000007 	andeq	r0, r0, #7, 0
     d7c:	a89f3800 	ldmge	pc, {fp, ip, sp}	; <UNPREDICTABLE>
     d80:	bc000008 	stclt	0, cr0, [r0], {8}
     d84:	02000008 	andeq	r0, r0, #8, 0
     d88:	109f3800 	addsne	r3, pc, r0, lsl #16
     d8c:	20000009 	andcs	r0, r0, r9
     d90:	02000009 	andeq	r0, r0, #9, 0
     d94:	009f3800 	addseq	r3, pc, r0, lsl #16
     d98:	00000000 	andeq	r0, r0, r0
     d9c:	04000000 	streq	r0, [r0], #-0
     da0:	00000707 	andeq	r0, r0, r7, lsl #14
	...
     dac:	0005fc00 	andeq	pc, r5, r0, lsl #24
     db0:	0005fc00 	andeq	pc, r5, r0, lsl #24
     db4:	91000400 	tstls	r0, r0, lsl #8
     db8:	fc9f7ed0 	ldc2	14, cr7, [pc], {208}	; 0xd0
     dbc:	78000005 	stmdavc	r0, {r0, r2}
     dc0:	04000006 	streq	r0, [r0], #-6
     dc4:	7ed19100 	atnvcs	f1, f0
     dc8:	0006789f 	muleq	r6, pc, r8	; <UNPREDICTABLE>
     dcc:	0006d400 	andeq	sp, r6, r0, lsl #8
     dd0:	5c000100 	stfpls	f0, [r0], {-0}
     dd4:	000006d4 	ldrdeq	r0, [r0], -r4
     dd8:	00000700 	andeq	r0, r0, r0, lsl #14
     ddc:	d1910004 	orrsle	r0, r1, r4
     de0:	08a89f7e 	stmiaeq	r8!, {r1, r2, r3, r4, r5, r6, r8, r9, sl, fp, ip, pc}
     de4:	08bc0000 	ldmeq	ip!, {}	; <UNPREDICTABLE>
     de8:	00040000 	andeq	r0, r4, r0
     dec:	9f7ed191 	svcls	0x007ed191
     df0:	00000910 	andeq	r0, r0, r0, lsl r9
     df4:	00000914 	andeq	r0, r0, r4, lsl r9
     df8:	d1910004 	orrsle	r0, r1, r4
     dfc:	09149f7e 	ldmdbeq	r4, {r1, r2, r3, r4, r5, r6, r8, r9, sl, fp, ip, pc}
     e00:	09200000 	stmdbeq	r0!, {}	; <UNPREDICTABLE>
     e04:	00010000 	andeq	r0, r1, r0
     e08:	0000005c 	andeq	r0, r0, ip, asr r0
     e0c:	00000000 	andeq	r0, r0, r0
     e10:	00010400 	andeq	r0, r1, r0, lsl #8
     e14:	08000001 	stmdaeq	r0, {r0}
     e18:	d0000006 	andle	r0, r0, r6
     e1c:	01000006 	tsteq	r0, r6
     e20:	08a85500 	stmiaeq	r8!, {r8, sl, ip, lr}
     e24:	08b80000 	ldmeq	r8!, {}	; <UNPREDICTABLE>
     e28:	00010000 	andeq	r0, r1, r0
     e2c:	00091055 	andeq	r1, r9, r5, asr r0
     e30:	00092000 	andeq	r2, r9, r0
     e34:	55000100 	strpl	r0, [r0, #-256]	; 0xffffff00
	...
     e40:	00000004 	andeq	r0, r0, r4
     e44:	00000100 	andeq	r0, r0, r0, lsl #2
     e48:	00000100 	andeq	r0, r0, r0, lsl #2
     e4c:	00000608 	andeq	r0, r0, r8, lsl #12
     e50:	000006b0 			; <UNDEFINED> instruction: 0x000006b0
     e54:	d0910004 	addsle	r0, r1, r4
     e58:	06b09f7e 			; <UNDEFINED> instruction: 0x06b09f7e
     e5c:	06c80000 	strbeq	r0, [r8], r0
     e60:	00010000 	andeq	r0, r1, r0
     e64:	0006c850 	andeq	ip, r6, r0, asr r8
     e68:	0006d000 	andeq	sp, r6, r0
     e6c:	91000400 	tstls	r0, r0, lsl #8
     e70:	a89f7ed0 	ldmge	pc, {r4, r6, r7, r9, sl, fp, ip, sp, lr}	; <UNPREDICTABLE>
     e74:	b0000008 	andlt	r0, r0, r8
     e78:	04000008 	streq	r0, [r0], #-8
     e7c:	7ed09100 	atnvcs	f1, f0
     e80:	0008b09f 	muleq	r8, pc, r0	; <UNPREDICTABLE>
     e84:	0008b800 	andeq	fp, r8, r0, lsl #16
     e88:	53000100 	movwpl	r0, #256	; 0x100
     e8c:	00000910 	andeq	r0, r0, r0, lsl r9
     e90:	00000920 	andeq	r0, r0, r0, lsr #18
     e94:	d0910004 	addsle	r0, r1, r4
     e98:	00009f7e 	andeq	r9, r0, lr, ror pc
     e9c:	00000000 	andeq	r0, r0, r0
     ea0:	00040000 	andeq	r0, r4, r0
     ea4:	01010100 	mrseq	r0, (UNDEF: 17)
     ea8:	02030301 	andeq	r0, r3, #67108864	; 0x4000000
     eac:	00000100 	andeq	r0, r0, r0, lsl #2
     eb0:	06080000 	streq	r0, [r8], -r0
     eb4:	06240000 	strteq	r0, [r4], -r0
     eb8:	00040000 	andeq	r0, r4, r0
     ebc:	9f7ed191 	svcls	0x007ed191
     ec0:	00000684 	andeq	r0, r0, r4, lsl #13
     ec4:	00000684 	andeq	r0, r0, r4, lsl #13
     ec8:	84500001 	ldrbhi	r0, [r0], #-1
     ecc:	98000006 	stmdals	r0, {r1, r2}
     ed0:	03000006 	movweq	r0, #6
     ed4:	9f017000 	svcls	0x00017000
     ed8:	00000698 	muleq	r0, r8, r6
     edc:	000006a4 	andeq	r0, r0, r4, lsr #13
     ee0:	02700003 	rsbseq	r0, r0, #3, 0
     ee4:	0006a49f 	muleq	r6, pc, r4	; <UNPREDICTABLE>
     ee8:	0006a800 	andeq	sl, r6, r0, lsl #16
     eec:	70000300 	andvc	r0, r0, r0, lsl #6
     ef0:	08a89f03 	stmiaeq	r8!, {r0, r1, r8, r9, sl, fp, ip, pc}
     ef4:	08b80000 	ldmeq	r8!, {}	; <UNPREDICTABLE>
     ef8:	00040000 	andeq	r0, r4, r0
     efc:	9f7ed191 	svcls	0x007ed191
     f00:	00000910 	andeq	r0, r0, r0, lsl r9
     f04:	00000914 	andeq	r0, r0, r4, lsl r9
     f08:	d1910004 	orrsle	r0, r1, r4
     f0c:	09149f7e 	ldmdbeq	r4, {r1, r2, r3, r4, r5, r6, r8, r9, sl, fp, ip, pc}
     f10:	09200000 	stmdbeq	r0!, {}	; <UNPREDICTABLE>
     f14:	00010000 	andeq	r0, r1, r0
     f18:	0000005c 	andeq	r0, r0, ip, asr r0
     f1c:	00000000 	andeq	r0, r0, r0
     f20:	00000600 	andeq	r0, r0, r0, lsl #12
     f24:	01010101 	tsteq	r1, r1, lsl #2
     f28:	00020101 	andeq	r0, r2, r1, lsl #2
     f2c:	08000001 	stmdaeq	r0, {r0}
     f30:	24000006 	strcs	r0, [r0], #-6
     f34:	02000006 	andeq	r0, r0, #6, 0
     f38:	849f3100 	ldrhi	r3, [pc], #256	; f40 <__code_start__-0x70c0>
     f3c:	94000006 	strls	r0, [r0], #-6
     f40:	01000006 	tsteq	r0, r6
     f44:	06945200 	ldreq	r5, [r4], r0, lsl #4
     f48:	06a40000 	strteq	r0, [r4], r0
     f4c:	00010000 	andeq	r0, r1, r0
     f50:	0006a459 	andeq	sl, r6, r9, asr r4
     f54:	0006a800 	andeq	sl, r6, r0, lsl #16
     f58:	52000100 	andpl	r0, r0, #0
     f5c:	000006a8 	andeq	r0, r0, r8, lsr #13
     f60:	000006a8 	andeq	r0, r0, r8, lsr #13
     f64:	01720003 	cmneq	r2, r3
     f68:	0008a89f 	muleq	r8, pc, r8	; <UNPREDICTABLE>
     f6c:	0008b800 	andeq	fp, r8, r0, lsl #16
     f70:	31000200 	mrscc	r0, R8_usr
     f74:	0009109f 	muleq	r9, pc, r0	; <UNPREDICTABLE>
     f78:	00092000 	andeq	r2, r9, r0
     f7c:	31000200 	mrscc	r0, R8_usr
     f80:	0000009f 	muleq	r0, pc, r0	; <UNPREDICTABLE>
     f84:	00000000 	andeq	r0, r0, r0
     f88:	06060100 	streq	r0, [r6], -r0, lsl #2
     f8c:	d0000100 	andle	r0, r0, r0, lsl #2
     f90:	d0000006 	andle	r0, r0, r6
     f94:	04000006 	streq	r0, [r0], #-6
     f98:	7ed09100 	atnvcs	f1, f0
     f9c:	0006d09f 	muleq	r6, pc, r0	; <UNPREDICTABLE>
     fa0:	00070000 	andeq	r0, r7, r0
     fa4:	50000100 	andpl	r0, r0, r0, lsl #2
     fa8:	000008b8 			; <UNDEFINED> instruction: 0x000008b8
     fac:	000008bc 			; <UNDEFINED> instruction: 0x000008bc
     fb0:	00530001 	subseq	r0, r3, r1
     fb4:	00000000 	andeq	r0, r0, r0
     fb8:	01000000 	mrseq	r0, (UNDEF: 0)
     fbc:	00000008 	andeq	r0, r0, r8
     fc0:	01000101 	tsteq	r0, r1, lsl #2
     fc4:	0006d007 	andeq	sp, r6, r7
     fc8:	0006d000 	andeq	sp, r6, r0
     fcc:	7c000600 	stcvc	6, cr0, [r0], {-0}
     fd0:	22007100 	andcs	r7, r0, #0
     fd4:	0006e49f 	muleq	r6, pc, r4	; <UNPREDICTABLE>
     fd8:	0006e800 	andeq	lr, r6, r0, lsl #16
     fdc:	73000300 	movwvc	r0, #768	; 0x300
     fe0:	06e89f7f 			; <UNDEFINED> instruction: 0x06e89f7f
     fe4:	06f00000 	ldrbteq	r0, [r0], r0
     fe8:	00010000 	andeq	r0, r1, r0
     fec:	0006f053 	andeq	pc, r6, r3, asr r0	; <UNPREDICTABLE>
     ff0:	0006f800 	andeq	pc, r6, r0, lsl #16
     ff4:	73000300 	movwvc	r0, #768	; 0x300
     ff8:	08b89f7f 	ldmeq	r8!, {r0, r1, r2, r3, r4, r5, r6, r8, r9, sl, fp, ip, pc}
     ffc:	08b80000 	ldmeq	r8!, {}	; <UNPREDICTABLE>
    1000:	00040000 	andeq	r0, r4, r0
    1004:	9f7ed191 	svcls	0x007ed191
	...
    1010:	00010001 	andeq	r0, r1, r1
    1014:	000006d0 	ldrdeq	r0, [r0], -r0	; <UNPREDICTABLE>
    1018:	00000700 	andeq	r0, r0, r0, lsl #14
    101c:	80080003 	andhi	r0, r8, r3
    1020:	0008b89f 	muleq	r8, pc, r8	; <UNPREDICTABLE>
    1024:	0008bc00 	andeq	fp, r8, r0, lsl #24
    1028:	08000300 	stmdaeq	r0, {r8, r9}
    102c:	00009f80 	andeq	r9, r0, r0, lsl #31
    1030:	00000000 	andeq	r0, r0, r0
    1034:	00010000 	andeq	r0, r1, r0
    1038:	01000000 	mrseq	r0, (UNDEF: 0)
    103c:	00000001 	andeq	r0, r0, r1
    1040:	00010102 	andeq	r0, r1, r2, lsl #2
    1044:	000006d0 	ldrdeq	r0, [r0], -r0	; <UNPREDICTABLE>
    1048:	000006e0 	andeq	r0, r0, r0, ror #13
    104c:	d0910004 	addsle	r0, r1, r4
    1050:	06e09f7d 			; <UNDEFINED> instruction: 0x06e09f7d
    1054:	06e40000 	strbteq	r0, [r4], r0
    1058:	00010000 	andeq	r0, r1, r0
    105c:	0006e455 	andeq	lr, r6, r5, asr r4
    1060:	0006e400 	andeq	lr, r6, r0, lsl #8
    1064:	72000300 	andvc	r0, r0, #0, 6
    1068:	06e49f01 	strbteq	r9, [r4], r1, lsl #30
    106c:	06f00000 	ldrbteq	r0, [r0], r0
    1070:	00030000 	andeq	r0, r3, r0
    1074:	f09f0272 			; <UNDEFINED> instruction: 0xf09f0272
    1078:	00000006 	andeq	r0, r0, r6
    107c:	03000007 	movweq	r0, #7
    1080:	9f017200 	svcls	0x00017200
    1084:	000007ec 	andeq	r0, r0, ip, ror #15
    1088:	000007f4 	strdeq	r0, [r0], -r4
    108c:	01730003 	cmneq	r3, r3
    1090:	0008b89f 	muleq	r8, pc, r8	; <UNPREDICTABLE>
    1094:	0008bc00 	andeq	fp, r8, r0, lsl #24
    1098:	91000400 	tstls	r0, r0, lsl #8
    109c:	009f7dd0 			; <UNDEFINED> instruction: 0x009f7dd0
    10a0:	00000000 	andeq	r0, r0, r0
    10a4:	04000000 	streq	r0, [r0], #-0
    10a8:	0008b800 	andeq	fp, r8, r0, lsl #16
    10ac:	0008bc00 	andeq	fp, r8, r0, lsl #24
    10b0:	32000200 	andcc	r0, r0, #0, 4
    10b4:	0000009f 	muleq	r0, pc, r0	; <UNPREDICTABLE>
    10b8:	00000000 	andeq	r0, r0, r0
    10bc:	00000700 	andeq	r0, r0, r0, lsl #14
    10c0:	d0000600 	andle	r0, r0, r0, lsl #12
    10c4:	e0000006 	and	r0, r0, r6
    10c8:	04000006 	streq	r0, [r0], #-6
    10cc:	7dd09100 	ldfvcp	f1, [r0]
    10d0:	0006e09f 	muleq	r6, pc, r0	; <UNPREDICTABLE>
    10d4:	00070000 	andeq	r0, r7, r0
    10d8:	55000100 	strpl	r0, [r0, #-256]	; 0xffffff00
    10dc:	000008b8 			; <UNDEFINED> instruction: 0x000008b8
    10e0:	000008bc 			; <UNDEFINED> instruction: 0x000008bc
    10e4:	d0910004 	addsle	r0, r1, r4
    10e8:	00009f7d 	andeq	r9, r0, sp, ror pc
    10ec:	00000000 	andeq	r0, r0, r0
    10f0:	00010000 	andeq	r0, r1, r0
    10f4:	070c0000 	streq	r0, [ip, -r0]
    10f8:	07ec0000 	strbeq	r0, [ip, r0]!
    10fc:	00030000 	andeq	r0, r3, r0
    1100:	949f8008 	ldrls	r8, [pc], #8	; 1108 <__code_start__-0x6ef8>
    1104:	a8000008 	stmdage	r0, {r3}
    1108:	03000008 	movweq	r0, #8
    110c:	9f800800 	svcls	0x00800800
	...
    111c:	0000070c 	andeq	r0, r0, ip, lsl #14
    1120:	000007ec 	andeq	r0, r0, ip, ror #15
    1124:	9f300002 	svcls	0x00300002
    1128:	00000894 	muleq	r0, r4, r8
    112c:	000008a8 	andeq	r0, r0, r8, lsr #17
    1130:	9f300002 	svcls	0x00300002
	...
    1140:	0000070c 	andeq	r0, r0, ip, lsl #14
    1144:	000007d0 	ldrdeq	r0, [r0], -r0	; <UNPREDICTABLE>
    1148:	94550001 	ldrbls	r0, [r5], #-1
    114c:	a8000008 	stmdage	r0, {r3}
    1150:	01000008 	tsteq	r0, r8
    1154:	00005500 	andeq	r5, r0, r0, lsl #10
	...
    1164:	0000070c 	andeq	r0, r0, ip, lsl #14
    1168:	000007d0 	ldrdeq	r0, [r0], -r0	; <UNPREDICTABLE>
    116c:	d0910004 	addsle	r0, r1, r4
    1170:	07d09f7d 			; <UNDEFINED> instruction: 0x07d09f7d
    1174:	07ec0000 	strbeq	r0, [ip, r0]!
    1178:	00010000 	andeq	r0, r1, r0
    117c:	00089455 	andeq	r9, r8, r5, asr r4
    1180:	0008a800 	andeq	sl, r8, r0, lsl #16
    1184:	91000400 	tstls	r0, r0, lsl #8
    1188:	009f7dd0 			; <UNDEFINED> instruction: 0x009f7dd0
	...
    1194:	0c000000 	stceq	0, cr0, [r0], {-0}
    1198:	ec000007 	stc	0, cr0, [r0], {7}
    119c:	02000007 	andeq	r0, r0, #7, 0
    11a0:	949f3200 	ldrls	r3, [pc], #512	; 11a8 <__code_start__-0x6e58>
    11a4:	a8000008 	stmdage	r0, {r3}
    11a8:	02000008 	andeq	r0, r0, #8, 0
    11ac:	009f3200 	addseq	r3, pc, r0, lsl #4
    11b0:	00000000 	andeq	r0, r0, r0
    11b4:	03000000 	movweq	r0, #0
    11b8:	00000505 	andeq	r0, r0, r5, lsl #10
    11bc:	00000000 	andeq	r0, r0, r0
    11c0:	00070c00 	andeq	r0, r7, r0, lsl #24
    11c4:	00070c00 	andeq	r0, r7, r0, lsl #24
    11c8:	51000100 	mrspl	r0, (UNDEF: 16)
    11cc:	0000070c 	andeq	r0, r0, ip, lsl #14
    11d0:	0000071c 	andeq	r0, r0, ip, lsl r7
    11d4:	1c530001 	mrrcne	0, 0, r0, r3, cr1
    11d8:	24000007 	strcs	r0, [r0], #-7
    11dc:	03000007 	movweq	r0, #7
    11e0:	9f017200 	svcls	0x00017200
    11e4:	00000724 	andeq	r0, r0, r4, lsr #14
    11e8:	000007cc 	andeq	r0, r0, ip, asr #15
    11ec:	94530001 	ldrbls	r0, [r3], #-1
    11f0:	a8000008 	stmdage	r0, {r3}
    11f4:	01000008 	tsteq	r0, r8
    11f8:	00005300 	andeq	r5, r0, r0, lsl #6
    11fc:	00000000 	andeq	r0, r0, r0
    1200:	00050000 	andeq	r0, r5, r0
    1204:	070c0001 	streq	r0, [ip, -r1]
    1208:	07200000 	streq	r0, [r0, -r0]!
    120c:	00010000 	andeq	r0, r1, r0
    1210:	00072450 	andeq	r2, r7, r0, asr r4
    1214:	00072c00 	andeq	r2, r7, r0, lsl #24
    1218:	50000100 	andpl	r0, r0, r0, lsl #2
	...
    1224:	01000103 	tsteq	r0, r3, lsl #2
    1228:	00000728 	andeq	r0, r0, r8, lsr #14
    122c:	000007b0 			; <UNDEFINED> instruction: 0x000007b0
    1230:	94550001 	ldrbls	r0, [r5], #-1
    1234:	a0000008 	andge	r0, r0, r8
    1238:	01000008 	tsteq	r0, r8
    123c:	00005500 	andeq	r5, r0, r0, lsl #10
    1240:	00000000 	andeq	r0, r0, r0
    1244:	01030000 	mrseq	r0, (UNDEF: 3)
    1248:	07280100 	streq	r0, [r8, -r0, lsl #2]!
    124c:	07b00000 	ldreq	r0, [r0, r0]!
    1250:	00010000 	andeq	r0, r1, r0
    1254:	00089451 	andeq	r9, r8, r1, asr r4
    1258:	0008a000 	andeq	sl, r8, r0
    125c:	51000100 	mrspl	r0, (UNDEF: 16)
	...
    1268:	01000003 	tsteq	r0, r3
    126c:	03010101 	movweq	r0, #4353	; 0x1101
    1270:	01000203 	tsteq	r0, r3, lsl #4
    1274:	00000728 	andeq	r0, r0, r8, lsr #14
    1278:	00000750 	andeq	r0, r0, r0, asr r7
    127c:	74530001 	ldrbvc	r0, [r3], #-1
    1280:	74000007 	strvc	r0, [r0], #-7
    1284:	01000007 	tsteq	r0, r7
    1288:	07745e00 	ldrbeq	r5, [r4, -r0, lsl #28]!
    128c:	07880000 	streq	r0, [r8, r0]
    1290:	00030000 	andeq	r0, r3, r0
    1294:	889f017e 	ldmhi	pc, {r1, r2, r3, r4, r5, r6, r8}	; <UNPREDICTABLE>
    1298:	94000007 	strls	r0, [r0], #-7
    129c:	03000007 	movweq	r0, #7
    12a0:	9f027e00 	svcls	0x00027e00
    12a4:	00000794 	muleq	r0, r4, r7
    12a8:	00000798 	muleq	r0, r8, r7
    12ac:	037e0003 	cmneq	lr, #3, 0
    12b0:	0008949f 	muleq	r8, pc, r4	; <UNPREDICTABLE>
    12b4:	0008a000 	andeq	sl, r8, r0
    12b8:	53000100 	movwpl	r0, #256	; 0x100
	...
    12c4:	01000000 	mrseq	r0, (UNDEF: 0)
    12c8:	01010101 	tsteq	r1, r1, lsl #2
    12cc:	01000201 	tsteq	r0, r1, lsl #4
    12d0:	0000072c 	andeq	r0, r0, ip, lsr #14
    12d4:	00000750 	andeq	r0, r0, r0, asr r7
    12d8:	74500001 	ldrbvc	r0, [r0], #-1
    12dc:	84000007 	strhi	r0, [r0], #-7
    12e0:	01000007 	tsteq	r0, r7
    12e4:	07845000 	streq	r5, [r4, r0]
    12e8:	07940000 	ldreq	r0, [r4, r0]
    12ec:	00010000 	andeq	r0, r1, r0
    12f0:	0007945b 	andeq	r9, r7, fp, asr r4
    12f4:	00079800 	andeq	r9, r7, r0, lsl #16
    12f8:	50000100 	andpl	r0, r0, r0, lsl #2
    12fc:	00000798 	muleq	r0, r8, r7
    1300:	00000798 	muleq	r0, r8, r7
    1304:	01700003 	cmneq	r0, r3
    1308:	0008949f 	muleq	r8, pc, r4	; <UNPREDICTABLE>
    130c:	0008a000 	andeq	sl, r8, r0
    1310:	50000100 	andpl	r0, r0, r0, lsl #2
	...
    131c:	00010001 	andeq	r0, r1, r1
    1320:	000007b0 			; <UNDEFINED> instruction: 0x000007b0
    1324:	000007ec 	andeq	r0, r0, ip, ror #15
    1328:	a0510001 	subsge	r0, r1, r1
    132c:	a8000008 	stmdage	r0, {r3}
    1330:	01000008 	tsteq	r0, r8
    1334:	00005100 	andeq	r5, r0, r0, lsl #2
    1338:	00000000 	andeq	r0, r0, r0
    133c:	00010000 	andeq	r0, r1, r0
    1340:	01000000 	mrseq	r0, (UNDEF: 0)
    1344:	00010001 	andeq	r0, r1, r1
    1348:	000007b0 			; <UNDEFINED> instruction: 0x000007b0
    134c:	000007b4 			; <UNDEFINED> instruction: 0x000007b4
    1350:	00730006 	rsbseq	r0, r3, r6
    1354:	9f22007c 	svcls	0x0022007c
    1358:	000007d4 	ldrdeq	r0, [r0], -r4
    135c:	000007d8 	ldrdeq	r0, [r0], -r8
    1360:	7f730003 	svcvc	0x00730003
    1364:	0007d89f 	muleq	r7, pc, r8	; <UNPREDICTABLE>
    1368:	0007e000 	andeq	lr, r7, r0
    136c:	53000100 	movwpl	r0, #256	; 0x100
    1370:	000007e0 	andeq	r0, r0, r0, ror #15
    1374:	000007e8 	andeq	r0, r0, r8, ror #15
    1378:	7f730003 	svcvc	0x00730003
    137c:	0008a09f 	muleq	r8, pc, r0	; <UNPREDICTABLE>
    1380:	0008a800 	andeq	sl, r8, r0, lsl #16
    1384:	53000100 	movwpl	r0, #256	; 0x100
	...
    1390:	00010001 	andeq	r0, r1, r1
    1394:	000007b0 			; <UNDEFINED> instruction: 0x000007b0
    1398:	000007ec 	andeq	r0, r0, ip, ror #15
    139c:	80080003 	andhi	r0, r8, r3
    13a0:	0008a09f 	muleq	r8, pc, r0	; <UNPREDICTABLE>
    13a4:	0008a800 	andeq	sl, r8, r0, lsl #16
    13a8:	08000300 	stmdaeq	r0, {r8, r9}
    13ac:	00009f80 	andeq	r9, r0, r0, lsl #31
    13b0:	00000000 	andeq	r0, r0, r0
    13b4:	00010000 	andeq	r0, r1, r0
    13b8:	01000000 	mrseq	r0, (UNDEF: 0)
    13bc:	00000001 	andeq	r0, r0, r1
    13c0:	07b00001 	ldreq	r0, [r0, r1]!
    13c4:	07d00000 	ldrbeq	r0, [r0, r0]
    13c8:	00040000 	andeq	r0, r4, r0
    13cc:	9f7dd091 	svcls	0x007dd091
    13d0:	000007d0 	ldrdeq	r0, [r0], -r0	; <UNPREDICTABLE>
    13d4:	000007d4 	ldrdeq	r0, [r0], -r4
    13d8:	d4550001 	ldrble	r0, [r5], #-1
    13dc:	d4000007 	strle	r0, [r0], #-7
    13e0:	03000007 	movweq	r0, #7
    13e4:	9f017c00 	svcls	0x00017c00
    13e8:	000007d4 	ldrdeq	r0, [r0], -r4
    13ec:	000007e0 	andeq	r0, r0, r0, ror #15
    13f0:	027c0003 	rsbseq	r0, ip, #3, 0
    13f4:	0007e09f 	muleq	r7, pc, r0	; <UNPREDICTABLE>
    13f8:	0007ec00 	andeq	lr, r7, r0, lsl #24
    13fc:	7c000300 	stcvc	3, cr0, [r0], {-0}
    1400:	08a09f01 	stmiaeq	r0!, {r0, r8, r9, sl, fp, ip, pc}
    1404:	08a80000 	stmiaeq	r8!, {}	; <UNPREDICTABLE>
    1408:	00040000 	andeq	r0, r4, r0
    140c:	9f7dd091 	svcls	0x007dd091
	...
    1418:	00040004 	andeq	r0, r4, r4
    141c:	000007b0 			; <UNDEFINED> instruction: 0x000007b0
    1420:	000007b4 			; <UNDEFINED> instruction: 0x000007b4
    1424:	01700003 	cmneq	r0, r3
    1428:	0008a09f 	muleq	r8, pc, r0	; <UNPREDICTABLE>
    142c:	0008a800 	andeq	sl, r8, r0, lsl #16
    1430:	70000300 	andvc	r0, r0, r0, lsl #6
    1434:	00009f01 	andeq	r9, r0, r1, lsl #30
    1438:	00000000 	andeq	r0, r0, r0
    143c:	00010000 	andeq	r0, r1, r0
    1440:	07bc0000 	ldreq	r0, [ip, r0]!
    1444:	07d00000 	ldrbeq	r0, [r0, r0]
    1448:	00040000 	andeq	r0, r4, r0
    144c:	9f7dd091 	svcls	0x007dd091
    1450:	000007d0 	ldrdeq	r0, [r0], -r0	; <UNPREDICTABLE>
    1454:	000007ec 	andeq	r0, r0, ip, ror #15
    1458:	00550001 	subseq	r0, r5, r1
	...
    1464:	28000000 	stmdacs	r0, {}	; <UNPREDICTABLE>
    1468:	64000003 	strvs	r0, [r0], #-3
    146c:	01000003 	tsteq	r0, r3
    1470:	03645000 	cmneq	r4, #0, 0
    1474:	03880000 	orreq	r0, r8, #0, 0
    1478:	00040000 	andeq	r0, r4, r0
    147c:	9f5001f3 	svcls	0x005001f3
	...
    148c:	00000328 	andeq	r0, r0, r8, lsr #6
    1490:	0000035c 	andeq	r0, r0, ip, asr r3
    1494:	5c510001 	mrrcpl	0, 0, r0, r1, cr1
    1498:	88000003 	stmdahi	r0, {r0, r1}
    149c:	04000003 	streq	r0, [r0], #-3
    14a0:	5101f300 	mrspl	pc, SP_irq	; <UNPREDICTABLE>
    14a4:	0000009f 	muleq	r0, pc, r0	; <UNPREDICTABLE>
	...
    14c8:	00001400 	andeq	r1, r0, r0, lsl #8
    14cc:	50000100 	andpl	r0, r0, r0, lsl #2
    14d0:	00000014 	andeq	r0, r0, r4, lsl r0
    14d4:	00000020 	andeq	r0, r0, r0, lsr #32
    14d8:	205c0001 	subscs	r0, ip, r1
    14dc:	68000000 	stmdavs	r0, {}	; <UNPREDICTABLE>
    14e0:	03000000 	movweq	r0, #0
    14e4:	9f027100 	svcls	0x00027100
    14e8:	00000068 	andeq	r0, r0, r8, rrx
    14ec:	0000006c 	andeq	r0, r0, ip, rrx
    14f0:	02730003 	rsbseq	r0, r3, #3, 0
    14f4:	00006c9f 	muleq	r0, pc, ip	; <UNPREDICTABLE>
    14f8:	00019400 	andeq	r9, r1, r0, lsl #8
    14fc:	f3000400 	vshl.u8	d0, d0, d0
    1500:	949f5001 	ldrls	r5, [pc], #1	; 1508 <__code_start__-0x6af8>
    1504:	98000001 	stmdals	r0, {r0}
    1508:	03000001 	movweq	r0, #1
    150c:	9f027300 	svcls	0x00027300
    1510:	00000198 	muleq	r0, r8, r1
    1514:	000001c0 	andeq	r0, r0, r0, asr #3
    1518:	01f30004 	mvnseq	r0, r4
    151c:	01c09f50 	biceq	r9, r0, r0, asr pc
    1520:	01c80000 	biceq	r0, r8, r0
    1524:	00010000 	andeq	r0, r1, r0
    1528:	0001c85c 	andeq	ip, r1, ip, asr r8
    152c:	00021400 	andeq	r1, r2, r0, lsl #8
    1530:	73000300 	movwvc	r0, #768	; 0x300
    1534:	02149f02 	andseq	r9, r4, #2, 30
    1538:	02ec0000 	rsceq	r0, ip, #0, 0
    153c:	00040000 	andeq	r0, r4, r0
    1540:	9f5001f3 	svcls	0x005001f3
    1544:	000002ec 	andeq	r0, r0, ip, ror #5
    1548:	000002f4 	strdeq	r0, [r0], -r4
    154c:	02730003 	rsbseq	r0, r3, #3, 0
    1550:	0002f49f 	muleq	r2, pc, r4	; <UNPREDICTABLE>
    1554:	00032800 	andeq	r2, r3, r0, lsl #16
    1558:	f3000400 	vshl.u8	d0, d0, d0
    155c:	009f5001 	addseq	r5, pc, r1
	...
    1570:	1c000000 	stcne	0, cr0, [r0], {-0}
    1574:	01000000 	mrseq	r0, (UNDEF: 0)
    1578:	001c5100 	andseq	r5, ip, r0, lsl #2
    157c:	02e00000 	rsceq	r0, r0, #0, 0
    1580:	00010000 	andeq	r0, r1, r0
    1584:	0002e050 	andeq	lr, r2, r0, asr r0
    1588:	0002ec00 	andeq	lr, r2, r0, lsl #24
    158c:	f3000400 	vshl.u8	d0, d0, d0
    1590:	ec9f5101 	ldfs	f5, [pc], {1}
    1594:	28000002 	stmdacs	r0, {r1}
    1598:	01000003 	tsteq	r0, r3
    159c:	00005000 	andeq	r5, r0, r0
	...
    15a8:	01000000 	mrseq	r0, (UNDEF: 0)
    15ac:	00000000 	andeq	r0, r0, r0
    15b0:	02000000 	andeq	r0, r0, #0, 0
    15b4:	00000002 	andeq	r0, r0, r2
	...
    15c8:	00700000 	rsbseq	r0, r0, r0
    15cc:	00010000 	andeq	r0, r1, r0
    15d0:	00007052 	andeq	r7, r0, r2, asr r0
    15d4:	00007800 	andeq	r7, r0, r0, lsl #16
    15d8:	5c000100 	stfpls	f0, [r0], {-0}
    15dc:	00000078 	andeq	r0, r0, r8, ror r0
    15e0:	000000a4 	andeq	r0, r0, r4, lsr #1
    15e4:	01f30004 	mvnseq	r0, r4
    15e8:	01949f52 	orrseq	r9, r4, r2, asr pc
    15ec:	019c0000 	orrseq	r0, ip, r0
    15f0:	00010000 	andeq	r0, r1, r0
    15f4:	00019c52 	andeq	r9, r1, r2, asr ip
    15f8:	0001a400 	andeq	sl, r1, r0, lsl #8
    15fc:	5c000100 	stfpls	f0, [r0], {-0}
    1600:	000001a4 	andeq	r0, r0, r4, lsr #3
    1604:	000001c0 	andeq	r0, r0, r0, asr #3
    1608:	01f30004 	mvnseq	r0, r4
    160c:	01c09f52 	biceq	r9, r0, r2, asr pc
    1610:	02200000 	eoreq	r0, r0, #0, 0
    1614:	00010000 	andeq	r0, r1, r0
    1618:	00022052 	andeq	r2, r2, r2, asr r0
    161c:	00022800 	andeq	r2, r2, r0, lsl #16
    1620:	72000400 	andvc	r0, r0, #0, 8
    1624:	289f1f00 	ldmcs	pc, {r8, r9, sl, fp, ip}	; <UNPREDICTABLE>
    1628:	74000002 	strvc	r0, [r0], #-2
    162c:	05000002 	streq	r0, [r0, #-2]
    1630:	5201f300 	andpl	pc, r1, #0, 6
    1634:	02749f1f 	rsbseq	r9, r4, #124	; 0x7c
    1638:	02880000 	addeq	r0, r8, #0, 0
    163c:	00010000 	andeq	r0, r1, r0
    1640:	00028852 	andeq	r8, r2, r2, asr r8
    1644:	0002a000 	andeq	sl, r2, r0
    1648:	5c000100 	stfpls	f0, [r0], {-0}
    164c:	000002cc 	andeq	r0, r0, ip, asr #5
    1650:	000002d0 	ldrdeq	r0, [r0], -r0	; <UNPREDICTABLE>
    1654:	d0520001 	subsle	r0, r2, r1
    1658:	e7000002 	str	r0, [r0, -r2]
    165c:	01000002 	tsteq	r0, r2
    1660:	02e75c00 	rsceq	r5, r7, #0, 24
    1664:	02ec0000 	rsceq	r0, ip, #0, 0
    1668:	00040000 	andeq	r0, r4, r0
    166c:	9f5201f3 	svcls	0x005201f3
    1670:	000002ec 	andeq	r0, r0, ip, ror #5
    1674:	00000300 	andeq	r0, r0, r0, lsl #6
    1678:	00520001 	subseq	r0, r2, r1
    167c:	28000003 	stmdacs	r0, {r0, r1}
    1680:	01000003 	tsteq	r0, r3
    1684:	00005c00 	andeq	r5, r0, r0, lsl #24
	...
    16a0:	00000068 	andeq	r0, r0, r8, rrx
    16a4:	68530001 	ldmdavs	r3, {r0}^
    16a8:	6c000000 	stcvs	0, cr0, [r0], {-0}
    16ac:	03000000 	movweq	r0, #0
    16b0:	9f7f0800 	svcls	0x007f0800
    16b4:	00000194 	muleq	r0, r4, r1
    16b8:	00000198 	muleq	r0, r8, r1
    16bc:	7f080003 	svcvc	0x00080003
    16c0:	0001c09f 	muleq	r1, pc, r0	; <UNPREDICTABLE>
    16c4:	00021400 	andeq	r1, r2, r0, lsl #8
    16c8:	08000300 	stmdaeq	r0, {r8, r9}
    16cc:	02749f7f 	rsbseq	r9, r4, #508	; 0x1fc
    16d0:	02900000 	addseq	r0, r0, #0, 0
    16d4:	00010000 	andeq	r0, r1, r0
    16d8:	00029053 	andeq	r9, r2, r3, asr r0
    16dc:	0002a000 	andeq	sl, r2, r0
    16e0:	f3000400 	vshl.u8	d0, d0, d0
    16e4:	ec9f5301 	ldc	3, cr5, [pc], {1}
    16e8:	28000002 	stmdacs	r0, {r1}
    16ec:	03000003 	movweq	r0, #3
    16f0:	9f7f0800 	svcls	0x007f0800
	...
    16fc:	00000001 	andeq	r0, r0, r1
    1700:	00020200 	andeq	r0, r2, r0, lsl #4
    1704:	00010100 	andeq	r0, r1, r0, lsl #2
    1708:	00000000 	andeq	r0, r0, r0
    170c:	02000000 	andeq	r0, r0, #0, 0
    1710:	00000002 	andeq	r0, r0, r2
    1714:	00000001 	andeq	r0, r0, r1
    1718:	00000000 	andeq	r0, r0, r0
    171c:	00010100 	andeq	r0, r1, r0, lsl #2
    1720:	02000000 	andeq	r0, r0, #0, 0
    1724:	00000002 	andeq	r0, r0, r2
    1728:	01000000 	mrseq	r0, (UNDEF: 0)
    172c:	00000001 	andeq	r0, r0, r1
    1730:	00000018 	andeq	r0, r0, r8, lsl r0
    1734:	00000070 	andeq	r0, r0, r0, ror r0
    1738:	a0910004 	addsge	r0, r1, r4
    173c:	00709f7f 	rsbseq	r9, r0, pc, ror pc
    1740:	00780000 	rsbseq	r0, r8, r0
    1744:	00010000 	andeq	r0, r1, r0
    1748:	00007852 	andeq	r7, r0, r2, asr r8
    174c:	00007800 	andeq	r7, r0, r0, lsl #16
    1750:	54000100 	strpl	r0, [r0], #-256	; 0xffffff00
    1754:	00000078 	andeq	r0, r0, r8, ror r0
    1758:	00000088 	andeq	r0, r0, r8, lsl #1
    175c:	01740003 	cmneq	r4, r3
    1760:	0000889f 	muleq	r0, pc, r8	; <UNPREDICTABLE>
    1764:	00009000 	andeq	r9, r0, r0
    1768:	54000100 	strpl	r0, [r0], #-256	; 0xffffff00
    176c:	00000090 	muleq	r0, r0, r0
    1770:	000000a0 	andeq	r0, r0, r0, lsr #1
    1774:	02740003 	rsbseq	r0, r4, #3, 0
    1778:	0000a09f 	muleq	r0, pc, r0	; <UNPREDICTABLE>
    177c:	0000b000 	andeq	fp, r0, r0
    1780:	5e000100 	adfpls	f0, f0, f0
    1784:	00000194 	muleq	r0, r4, r1
    1788:	0000019c 	muleq	r0, ip, r1
    178c:	a0910004 	addsge	r0, r1, r4
    1790:	019c9f7f 	orrseq	r9, ip, pc, ror pc
    1794:	01a40000 			; <UNDEFINED> instruction: 0x01a40000
    1798:	00010000 	andeq	r0, r1, r0
    179c:	0001a452 	andeq	sl, r1, r2, asr r4
    17a0:	0001a400 	andeq	sl, r1, r0, lsl #8
    17a4:	5e000100 	adfpls	f0, f0, f0
    17a8:	000001a4 	andeq	r0, r0, r4, lsr #3
    17ac:	000001b4 			; <UNDEFINED> instruction: 0x000001b4
    17b0:	017e0003 	cmneq	lr, r3
    17b4:	0001b49f 	muleq	r1, pc, r4	; <UNPREDICTABLE>
    17b8:	0001c000 	andeq	ip, r1, r0
    17bc:	5e000100 	adfpls	f0, f0, f0
    17c0:	000001c0 	andeq	r0, r0, r0, asr #3
    17c4:	00000228 	andeq	r0, r0, r8, lsr #4
    17c8:	a0910004 	addsge	r0, r1, r4
    17cc:	02289f7f 	eoreq	r9, r8, #508	; 0x1fc
    17d0:	02340000 	eorseq	r0, r4, #0, 0
    17d4:	00010000 	andeq	r0, r1, r0
    17d8:	00023452 	andeq	r3, r2, r2, asr r4
    17dc:	00025800 	andeq	r5, r2, r0, lsl #16
    17e0:	5e000100 	adfpls	f0, f0, f0
    17e4:	00000258 	andeq	r0, r0, r8, asr r2
    17e8:	0000025c 	andeq	r0, r0, ip, asr r2
    17ec:	017e0003 	cmneq	lr, r3
    17f0:	00025c9f 	muleq	r2, pc, ip	; <UNPREDICTABLE>
    17f4:	00026400 	andeq	r6, r2, r0, lsl #8
    17f8:	5e000100 	adfpls	f0, f0, f0
    17fc:	00000264 	andeq	r0, r0, r4, ror #4
    1800:	00000270 	andeq	r0, r0, r0, ror r2
    1804:	02710003 	rsbseq	r0, r1, #3, 0
    1808:	0002709f 	muleq	r2, pc, r0	; <UNPREDICTABLE>
    180c:	00027400 	andeq	r7, r2, r0, lsl #8
    1810:	5e000100 	adfpls	f0, f0, f0
    1814:	00000274 	andeq	r0, r0, r4, ror r2
    1818:	00000274 	andeq	r0, r0, r4, ror r2
    181c:	a0910004 	addsge	r0, r1, r4
    1820:	02749f7f 	rsbseq	r9, r4, #508	; 0x1fc
    1824:	02a00000 	adceq	r0, r0, #0, 0
    1828:	00040000 	andeq	r0, r4, r0
    182c:	9f7fa191 	svcls	0x007fa191
    1830:	000002c0 	andeq	r0, r0, r0, asr #5
    1834:	000002c8 	andeq	r0, r0, r8, asr #5
    1838:	c85e0001 	ldmdagt	lr, {r0}^
    183c:	cc000002 	stcgt	0, cr0, [r0], {2}
    1840:	01000002 	tsteq	r0, r2
    1844:	02cc5600 	sbceq	r5, ip, #0, 12
    1848:	02ec0000 	rsceq	r0, ip, #0, 0
    184c:	00040000 	andeq	r0, r4, r0
    1850:	9f7fa091 	svcls	0x007fa091
    1854:	000002ec 	andeq	r0, r0, ip, ror #5
    1858:	000002fc 	strdeq	r0, [r0], -ip
    185c:	a1910004 	orrsge	r0, r1, r4
    1860:	02fc9f7f 	rscseq	r9, ip, #508	; 0x1fc
    1864:	03280000 			; <UNDEFINED> instruction: 0x03280000
    1868:	00010000 	andeq	r0, r1, r0
    186c:	0000005e 	andeq	r0, r0, lr, asr r0
	...
    1884:	00000101 	andeq	r0, r0, r1, lsl #2
	...
    1894:	20000000 	andcs	r0, r0, r0
    1898:	70000000 	andvc	r0, r0, r0
    189c:	01000000 	mrseq	r0, (UNDEF: 0)
    18a0:	00705200 	rsbseq	r5, r0, r0, lsl #4
    18a4:	00940000 	addseq	r0, r4, r0
    18a8:	00010000 	andeq	r0, r1, r0
    18ac:	0001945c 	andeq	r9, r1, ip, asr r4
    18b0:	00019c00 	andeq	r9, r1, r0, lsl #24
    18b4:	52000100 	andpl	r0, r0, #0
    18b8:	0000019c 	muleq	r0, ip, r1
    18bc:	000001c0 	andeq	r0, r0, r0, asr #3
    18c0:	c85c0001 	ldmdagt	ip, {r0}^
    18c4:	10000001 	andne	r0, r0, r1
    18c8:	01000002 	tsteq	r0, r2
    18cc:	02105c00 	andseq	r5, r0, #0, 24
    18d0:	02240000 	eoreq	r0, r4, #0, 0
    18d4:	00010000 	andeq	r0, r1, r0
    18d8:	00022452 	andeq	r2, r2, r2, asr r4
    18dc:	00024800 	andeq	r4, r2, r0, lsl #16
    18e0:	5c000100 	stfpls	f0, [r0], {-0}
    18e4:	00000248 	andeq	r0, r0, r8, asr #4
    18e8:	0000025c 	andeq	r0, r0, ip, asr r2
    18ec:	5c550001 	mrrcpl	0, 0, r0, r5, cr1
    18f0:	68000002 	stmdavs	r0, {r1}
    18f4:	01000002 	tsteq	r0, r2
    18f8:	02685c00 	rsbeq	r5, r8, #0, 24
    18fc:	02740000 	rsbseq	r0, r4, #0, 0
    1900:	00190000 	andseq	r0, r9, r0
    1904:	2cf70075 	ldclcs	0, cr0, [r7], #468	; 0x1d4
    1908:	007625f7 	ldrshteq	r2, [r6], #-87	; 0xffffffa9
    190c:	25f72cf7 	ldrbcs	r2, [r7, #3319]!	; 0xcf7
    1910:	f720081e 			; <UNDEFINED> instruction: 0xf720081e
    1914:	2cf72525 	cfldr64cs	mvdx2, [r7], #148	; 0x94
    1918:	253300f7 	ldrcs	r0, [r3, #-247]!	; 0xffffff09
    191c:	0002749f 	muleq	r2, pc, r4	; <UNPREDICTABLE>
    1920:	00028800 	andeq	r8, r2, r0, lsl #16
    1924:	52000100 	andpl	r0, r0, #0
    1928:	00000288 	andeq	r0, r0, r8, lsl #5
    192c:	000002a0 	andeq	r0, r0, r0, lsr #5
    1930:	cc5c0001 	mrrcgt	0, 0, r0, ip, cr1
    1934:	d0000002 	andle	r0, r0, r2
    1938:	01000002 	tsteq	r0, r2
    193c:	02d05200 	sbcseq	r5, r0, #0, 4
    1940:	02e70000 	rsceq	r0, r7, #0, 0
    1944:	00010000 	andeq	r0, r1, r0
    1948:	0002e75c 	andeq	lr, r2, ip, asr r7
    194c:	0002ec00 	andeq	lr, r2, r0, lsl #24
    1950:	f3000400 	vshl.u8	d0, d0, d0
    1954:	ec9f5201 	lfm	f5, 4, [pc], {1}
    1958:	00000002 	andeq	r0, r0, r2
    195c:	01000003 	tsteq	r0, r3
    1960:	03005200 	movweq	r5, #512	; 0x200
    1964:	03280000 			; <UNDEFINED> instruction: 0x03280000
    1968:	00010000 	andeq	r0, r1, r0
    196c:	0000005c 	andeq	r0, r0, ip, asr r0
    1970:	00000000 	andeq	r0, r0, r0
    1974:	04000400 	streq	r0, [r0], #-1024	; 0xfffffc00
    1978:	00010000 	andeq	r0, r1, r0
    197c:	a4000400 	strge	r0, [r0], #-1024	; 0xfffffc00
    1980:	b0000000 	andlt	r0, r0, r0
    1984:	01000000 	mrseq	r0, (UNDEF: 0)
    1988:	027c5300 	rsbseq	r5, ip, #0, 6
    198c:	02900000 	addseq	r0, r0, #0, 0
    1990:	00010000 	andeq	r0, r1, r0
    1994:	00029053 	andeq	r9, r2, r3, asr r0
    1998:	00029c00 	andeq	r9, r2, r0, lsl #24
    199c:	f3000400 	vshl.u8	d0, d0, d0
    19a0:	c09f5301 	addsgt	r5, pc, r1, lsl #6
    19a4:	cc000002 	stcgt	0, cr0, [r0], {2}
    19a8:	01000002 	tsteq	r0, r2
    19ac:	02f05300 	rscseq	r5, r0, #0, 6
    19b0:	03280000 			; <UNDEFINED> instruction: 0x03280000
    19b4:	00030000 	andeq	r0, r3, r0
    19b8:	009f7f08 	addseq	r7, pc, r8, lsl #30
    19bc:	00000000 	andeq	r0, r0, r0
    19c0:	04000000 	streq	r0, [r0], #-0
    19c4:	04010000 	streq	r0, [r1], #-0
    19c8:	00010000 	andeq	r0, r1, r0
    19cc:	04000000 	streq	r0, [r0], #-0
    19d0:	a4000000 	strge	r0, [r0], #-0
    19d4:	b0000000 	andlt	r0, r0, r0
    19d8:	01000000 	mrseq	r0, (UNDEF: 0)
    19dc:	00b05200 	adcseq	r5, r0, r0, lsl #4
    19e0:	015c0000 	cmpeq	ip, r0
    19e4:	00040000 	andeq	r0, r4, r0
    19e8:	9f7fa091 	svcls	0x007fa091
    19ec:	0000027c 	andeq	r0, r0, ip, ror r2
    19f0:	00000294 	muleq	r0, r4, r2
    19f4:	a0910004 	addsge	r0, r1, r4
    19f8:	02949f7f 	addseq	r9, r4, #508	; 0x1fc
    19fc:	029c0000 	addseq	r0, ip, #0, 0
    1a00:	00010000 	andeq	r0, r1, r0
    1a04:	0002b45e 	andeq	fp, r2, lr, asr r4
    1a08:	0002c000 	andeq	ip, r2, r0
    1a0c:	91000400 	tstls	r0, r0, lsl #8
    1a10:	c09f7fa0 	addsgt	r7, pc, r0, lsr #31
    1a14:	cc000002 	stcgt	0, cr0, [r0], {2}
    1a18:	01000002 	tsteq	r0, r2
    1a1c:	02f05200 	rscseq	r5, r0, #0, 4
    1a20:	03000000 	movweq	r0, #0
    1a24:	00040000 	andeq	r0, r4, r0
    1a28:	9f7fa091 	svcls	0x007fa091
    1a2c:	00000300 	andeq	r0, r0, r0, lsl #6
    1a30:	00000328 	andeq	r0, r0, r8, lsr #6
    1a34:	00520001 	subseq	r0, r2, r1
    1a38:	00000000 	andeq	r0, r0, r0
    1a3c:	04000000 	streq	r0, [r0], #-0
    1a40:	01010000 	mrseq	r0, (UNDEF: 1)
    1a44:	03030101 	movweq	r0, #12545	; 0x3101
    1a48:	00010402 	andeq	r0, r1, r2, lsl #8
    1a4c:	04000000 	streq	r0, [r0], #-0
    1a50:	a4000000 	strge	r0, [r0], #-0
    1a54:	b0000000 	andlt	r0, r0, r0
    1a58:	01000000 	mrseq	r0, (UNDEF: 0)
    1a5c:	010c5e00 	tsteq	ip, r0, lsl #28
    1a60:	010c0000 	mrseq	r0, (UNDEF: 12)
    1a64:	00010000 	andeq	r0, r1, r0
    1a68:	00010c55 	andeq	r0, r1, r5, asr ip
    1a6c:	00012000 	andeq	r2, r1, r0
    1a70:	75000300 	strvc	r0, [r0, #-768]	; 0xfffffd00
    1a74:	01209f01 			; <UNDEFINED> instruction: 0x01209f01
    1a78:	012c0000 			; <UNDEFINED> instruction: 0x012c0000
    1a7c:	00030000 	andeq	r0, r3, r0
    1a80:	2c9f0275 	lfmcs	f0, 4, [pc], {117}	; 0x75
    1a84:	30000001 	andcc	r0, r0, r1
    1a88:	03000001 	movweq	r0, #1
    1a8c:	9f037500 	svcls	0x00037500
    1a90:	0000027c 	andeq	r0, r0, ip, ror r2
    1a94:	0000029c 	muleq	r0, ip, r2
    1a98:	a1910004 	orrsge	r0, r1, r4
    1a9c:	02c09f7f 	sbceq	r9, r0, #508	; 0x1fc
    1aa0:	02c80000 	sbceq	r0, r8, #0, 0
    1aa4:	00010000 	andeq	r0, r1, r0
    1aa8:	0002c85e 	andeq	ip, r2, lr, asr r8
    1aac:	0002cc00 	andeq	ip, r2, r0, lsl #24
    1ab0:	56000100 	strpl	r0, [r0], -r0, lsl #2
    1ab4:	000002f0 	strdeq	r0, [r0], -r0	; <UNPREDICTABLE>
    1ab8:	000002fc 	strdeq	r0, [r0], -ip
    1abc:	a1910004 	orrsge	r0, r1, r4
    1ac0:	02fc9f7f 	rscseq	r9, ip, #508	; 0x1fc
    1ac4:	03280000 			; <UNDEFINED> instruction: 0x03280000
    1ac8:	00010000 	andeq	r0, r1, r0
    1acc:	0000005e 	andeq	r0, r0, lr, asr r0
	...
    1ad8:	01010101 	tsteq	r1, r1, lsl #2
    1adc:	06020101 	streq	r0, [r2], -r1, lsl #2
    1ae0:	06000001 	streq	r0, [r0], -r1
    1ae4:	0000a800 	andeq	sl, r0, r0, lsl #16
    1ae8:	0000b000 	andeq	fp, r0, r0
    1aec:	51000100 	mrspl	r0, (UNDEF: 16)
    1af0:	0000010c 	andeq	r0, r0, ip, lsl #2
    1af4:	0000011c 	andeq	r0, r0, ip, lsl r1
    1af8:	1c5c0001 	mrrcne	0, 0, r0, ip, cr1
    1afc:	2c000001 	stccs	0, cr0, [r0], {1}
    1b00:	01000001 	tsteq	r0, r1
    1b04:	012c5800 			; <UNDEFINED> instruction: 0x012c5800
    1b08:	01300000 	teqeq	r0, r0
    1b0c:	00010000 	andeq	r0, r1, r0
    1b10:	0001305c 	andeq	r3, r1, ip, asr r0
    1b14:	00013000 	andeq	r3, r1, r0
    1b18:	7c000300 	stcvc	3, cr0, [r0], {-0}
    1b1c:	027c9f01 	rsbseq	r9, ip, #1, 30
    1b20:	029c0000 	addseq	r0, ip, #0, 0
    1b24:	00020000 	andeq	r0, r2, r0
    1b28:	02c09f31 	sbceq	r9, r0, #196	; 0xc4
    1b2c:	02cc0000 	sbceq	r0, ip, #0, 0
    1b30:	00010000 	andeq	r0, r1, r0
    1b34:	0002f051 	andeq	pc, r2, r1, asr r0	; <UNPREDICTABLE>
    1b38:	00032800 	andeq	r2, r3, r0, lsl #16
    1b3c:	31000200 	mrscc	r0, R8_usr
    1b40:	0000009f 	muleq	r0, pc, r0	; <UNPREDICTABLE>
    1b44:	00000000 	andeq	r0, r0, r0
    1b48:	06060100 	streq	r0, [r6], -r0, lsl #2
    1b4c:	00000101 	andeq	r0, r0, r1, lsl #2
    1b50:	00015c01 	andeq	r5, r1, r1, lsl #24
    1b54:	00015c00 	andeq	r5, r1, r0, lsl #24
    1b58:	91000400 	tstls	r0, r0, lsl #8
    1b5c:	5c9f7fa0 	ldcpl	15, cr7, [pc], {160}	; 0xa0
    1b60:	8c000001 	stchi	0, cr0, [r0], {1}
    1b64:	01000001 	tsteq	r0, r1
    1b68:	029c5200 	addseq	r5, ip, #0, 4
    1b6c:	02a00000 	adceq	r0, r0, #0, 0
    1b70:	00010000 	andeq	r0, r1, r0
    1b74:	0002a05e 	andeq	sl, r2, lr, asr r0
    1b78:	0002ac00 	andeq	sl, r2, r0, lsl #24
    1b7c:	52000100 	andpl	r0, r0, #0
	...
    1b88:	01000000 	mrseq	r0, (UNDEF: 0)
    1b8c:	07010001 	streq	r0, [r1, -r1]
    1b90:	0000016c 	andeq	r0, r0, ip, ror #2
    1b94:	00000170 	andeq	r0, r0, r0, ror r1
    1b98:	7f730003 	svcvc	0x00730003
    1b9c:	0001709f 	muleq	r1, pc, r0	; <UNPREDICTABLE>
    1ba0:	00017800 	andeq	r7, r1, r0, lsl #16
    1ba4:	53000100 	movwpl	r0, #256	; 0x100
    1ba8:	00000178 	andeq	r0, r0, r8, ror r1
    1bac:	00000184 	andeq	r0, r0, r4, lsl #3
    1bb0:	7f730003 	svcvc	0x00730003
    1bb4:	00029c9f 	muleq	r2, pc, ip	; <UNPREDICTABLE>
    1bb8:	00029c00 	andeq	r9, r2, r0, lsl #24
    1bbc:	91000400 	tstls	r0, r0, lsl #8
    1bc0:	009f7fa1 	addseq	r7, pc, r1, lsr #31
    1bc4:	00000000 	andeq	r0, r0, r0
    1bc8:	01000000 	mrseq	r0, (UNDEF: 0)
    1bcc:	5c010101 	stfpls	f0, [r1], {1}
    1bd0:	8c000001 	stchi	0, cr0, [r0], {1}
    1bd4:	03000001 	movweq	r0, #1
    1bd8:	9f800800 	svcls	0x00800800
    1bdc:	0000029c 	muleq	r0, ip, r2
    1be0:	000002ac 	andeq	r0, r0, ip, lsr #5
    1be4:	80080003 	andhi	r0, r8, r3
    1be8:	0000009f 	muleq	r0, pc, r0	; <UNPREDICTABLE>
    1bec:	00000000 	andeq	r0, r0, r0
    1bf0:	00000100 	andeq	r0, r0, r0, lsl #2
    1bf4:	00000101 	andeq	r0, r0, r1, lsl #2
    1bf8:	01010101 	tsteq	r1, r1, lsl #2
    1bfc:	5c010101 	stfpls	f0, [r1], {1}
    1c00:	6c000001 	stcvs	0, cr0, [r0], {1}
    1c04:	01000001 	tsteq	r0, r1
    1c08:	016c5000 	cmneq	ip, r0
    1c0c:	016c0000 	cmneq	ip, r0
    1c10:	00030000 	andeq	r0, r3, r0
    1c14:	6c9f017c 	ldfvss	f0, [pc], {124}	; 0x7c
    1c18:	78000001 	stmdavc	r0, {r0}
    1c1c:	03000001 	movweq	r0, #1
    1c20:	9f027c00 	svcls	0x00027c00
    1c24:	00000178 	andeq	r0, r0, r8, ror r1
    1c28:	00000188 	andeq	r0, r0, r8, lsl #3
    1c2c:	017c0003 	cmneq	ip, r3
    1c30:	0001889f 	muleq	r1, pc, r8	; <UNPREDICTABLE>
    1c34:	00018c00 	andeq	r8, r1, r0, lsl #24
    1c38:	7e000300 	cdpvc	3, 0, cr0, cr0, cr0, {0}
    1c3c:	029c9f01 	addseq	r9, ip, #1, 30
    1c40:	02a40000 	adceq	r0, r4, #0, 0
    1c44:	00010000 	andeq	r0, r1, r0
    1c48:	0002a450 	andeq	sl, r2, r0, asr r4
    1c4c:	0002ac00 	andeq	sl, r2, r0, lsl #24
    1c50:	7e000300 	cdpvc	3, 0, cr0, cr0, cr0, {0}
    1c54:	00009f01 	andeq	r9, r0, r1, lsl #30
    1c58:	00000000 	andeq	r0, r0, r0
    1c5c:	00040000 	andeq	r0, r4, r0
    1c60:	01000004 	tsteq	r0, r4
    1c64:	0000015c 	andeq	r0, r0, ip, asr r1
    1c68:	00000160 	andeq	r0, r0, r0, ror #2
    1c6c:	01710003 	cmneq	r1, r3
    1c70:	00029c9f 	muleq	r2, pc, ip	; <UNPREDICTABLE>
    1c74:	0002a000 	andeq	sl, r2, r0
    1c78:	32000200 	andcc	r0, r0, #0, 4
    1c7c:	0002a09f 	muleq	r2, pc, r0	; <UNPREDICTABLE>
    1c80:	0002ac00 	andeq	sl, r2, r0, lsl #24
    1c84:	71000300 	mrsvc	r0, LR_irq
    1c88:	00009f01 	andeq	r9, r0, r1, lsl #30
    1c8c:	00000000 	andeq	r0, r0, r0
    1c90:	00070000 	andeq	r0, r7, r0
    1c94:	015c0006 	cmpeq	ip, r6
    1c98:	01940000 	orrseq	r0, r4, r0
    1c9c:	00010000 	andeq	r0, r1, r0
    1ca0:	00029c50 	andeq	r9, r2, r0, asr ip
    1ca4:	0002b400 	andeq	fp, r2, r0, lsl #8
    1ca8:	50000100 	andpl	r0, r0, r0, lsl #2
	...
    1cb4:	00010101 	andeq	r0, r1, r1, lsl #2
    1cb8:	00000214 	andeq	r0, r0, r4, lsl r2
    1cbc:	00000220 	andeq	r0, r0, r0, lsr #4
    1cc0:	9f300002 	svcls	0x00300002
    1cc4:	00000220 	andeq	r0, r0, r0, lsr #4
    1cc8:	00000234 	andeq	r0, r0, r4, lsr r2
    1ccc:	9f310002 	svcls	0x00310002
	...
    1cd8:	02010100 	andeq	r0, r1, #0
    1cdc:	00000002 	andeq	r0, r0, r2
    1ce0:	00008ea0 	andeq	r8, r0, r0, lsr #29
    1ce4:	00008ea0 	andeq	r8, r0, r0, lsr #29
    1ce8:	a0530001 	subsge	r0, r3, r1
    1cec:	a000008e 	andge	r0, r0, lr, lsl #1
    1cf0:	0700008e 	streq	r0, [r0, -lr, lsl #1]
    1cf4:	0b007300 	bleq	1e8fc <__bss_end__+0x14e54>
    1cf8:	9f1aefff 	svcls	0x001aefff
    1cfc:	00008ea0 	andeq	r8, r0, r0, lsr #29
    1d00:	00008ea4 	andeq	r8, r0, r4, lsr #29
    1d04:	00730007 	rsbseq	r0, r3, r7
    1d08:	1ae7ff0b 	bne	ffa0193c <__bss_end__+0xff9f7e94>
    1d0c:	008ea49f 	umulleq	sl, lr, pc, r4	; <UNPREDICTABLE>
    1d10:	008eac00 	addeq	sl, lr, r0, lsl #24
    1d14:	53000100 	movwpl	r0, #256	; 0x100
	...
    1d20:	02010100 	andeq	r0, r1, #0
    1d24:	00000002 	andeq	r0, r0, r2
    1d28:	00008e90 	muleq	r0, r0, lr
    1d2c:	00008e90 	muleq	r0, r0, lr
    1d30:	90530001 	subsls	r0, r3, r1
    1d34:	9000008e 	andls	r0, r0, lr, lsl #1
    1d38:	0700008e 	streq	r0, [r0, -lr, lsl #1]
    1d3c:	0a007300 	beq	1e944 <__bss_end__+0x14e9c>
    1d40:	9f211000 	svcls	0x00211000
    1d44:	00008e90 	muleq	r0, r0, lr
    1d48:	00008e94 	muleq	r0, r4, lr
    1d4c:	00730007 	rsbseq	r0, r3, r7
    1d50:	2118000a 	tstcs	r8, sl
    1d54:	008e949f 	umulleq	r9, lr, pc, r4	; <UNPREDICTABLE>
    1d58:	008e9c00 	addeq	r9, lr, r0, lsl #24
    1d5c:	53000100 	movwpl	r0, #256	; 0x100
	...
    1d68:	00010100 	andeq	r0, r1, r0, lsl #2
    1d6c:	00010100 	andeq	r0, r1, r0, lsl #2
    1d70:	00010100 	andeq	r0, r1, r0, lsl #2
    1d74:	00010100 	andeq	r0, r1, r0, lsl #2
    1d78:	00010100 	andeq	r0, r1, r0, lsl #2
    1d7c:	01020200 	mrseq	r0, R10_usr
    1d80:	00000080 	andeq	r0, r0, r0, lsl #1
    1d84:	00000080 	andeq	r0, r0, r0, lsl #1
    1d88:	80530001 	subshi	r0, r3, r1
    1d8c:	8c000000 	stchi	0, cr0, [r0], {-0}
    1d90:	03000000 	movweq	r0, #0
    1d94:	9f047300 	svcls	0x00047300
    1d98:	0000008c 	andeq	r0, r0, ip, lsl #1
    1d9c:	00000094 	muleq	r0, r4, r0
    1da0:	94510001 	ldrbls	r0, [r1], #-1
    1da4:	98000000 	stmdals	r0, {}	; <UNPREDICTABLE>
    1da8:	03000000 	movweq	r0, #0
    1dac:	9f087300 	svcls	0x00087300
    1db0:	00000098 	muleq	r0, r8, r0
    1db4:	000000a4 	andeq	r0, r0, r4, lsr #1
    1db8:	a4510001 	ldrbge	r0, [r1], #-1
    1dbc:	a8000000 	stmdage	r0, {}	; <UNPREDICTABLE>
    1dc0:	03000000 	movweq	r0, #0
    1dc4:	9f0c7300 	svcls	0x000c7300
    1dc8:	000000a8 	andeq	r0, r0, r8, lsr #1
    1dcc:	000000b4 	strheq	r0, [r0], -r4
    1dd0:	b4510001 	ldrblt	r0, [r1], #-1
    1dd4:	b8000000 	stmdalt	r0, {}	; <UNPREDICTABLE>
    1dd8:	03000000 	movweq	r0, #0
    1ddc:	9f107300 	svcls	0x00107300
    1de0:	000000b8 	strheq	r0, [r0], -r8
    1de4:	000000c4 	andeq	r0, r0, r4, asr #1
    1de8:	c4510001 	ldrbgt	r0, [r1], #-1
    1dec:	c8000000 	stmdagt	r0, {}	; <UNPREDICTABLE>
    1df0:	03000000 	movweq	r0, #0
    1df4:	9f147300 	svcls	0x00147300
    1df8:	000000c8 	andeq	r0, r0, r8, asr #1
    1dfc:	000000d0 	ldrdeq	r0, [r0], -r0	; <UNPREDICTABLE>
    1e00:	d0510001 	subsle	r0, r1, r1
    1e04:	d4000000 	strle	r0, [r0], #-0
    1e08:	03000000 	movweq	r0, #0
    1e0c:	9f047100 	svcls	0x00047100
	...
    1e18:	00d80002 	sbcseq	r0, r8, r2
    1e1c:	00e80000 	rsceq	r0, r8, r0
    1e20:	00020000 	andeq	r0, r2, r0
    1e24:	00009f31 	andeq	r9, r0, r1, lsr pc
    1e28:	00000000 	andeq	r0, r0, r0
    1e2c:	00040000 	andeq	r0, r4, r0
    1e30:	90000100 	andls	r0, r0, r0, lsl #2
    1e34:	90080000 	andls	r0, r8, r0
    1e38:	00020000 	andeq	r0, r2, r0
    1e3c:	90089f30 	andls	r9, r8, r0, lsr pc
    1e40:	90080000 	andls	r0, r8, r0
    1e44:	00010000 	andeq	r0, r1, r0
    1e48:	00000053 	andeq	r0, r0, r3, asr r0
    1e4c:	00000000 	andeq	r0, r0, r0
    1e50:	00000300 	andeq	r0, r0, r0, lsl #6
    1e54:	00000000 	andeq	r0, r0, r0
    1e58:	00901400 	addseq	r1, r0, r0, lsl #8
    1e5c:	00901800 	addseq	r1, r0, r0, lsl #16
    1e60:	30000200 	andcc	r0, r0, r0, lsl #4
    1e64:	0090189f 	umullseq	r1, r0, pc, r8	; <UNPREDICTABLE>
    1e68:	00901c00 	addseq	r1, r0, r0, lsl #24
    1e6c:	53000100 	movwpl	r0, #256	; 0x100
    1e70:	0000901c 	andeq	r9, r0, ip, lsl r0
    1e74:	00009020 	andeq	r9, r0, r0, lsr #32
    1e78:	00730005 	rsbseq	r0, r3, r5
    1e7c:	209f2140 	addscs	r2, pc, r0, asr #2
    1e80:	24000090 	strcs	r0, [r0], #-144	; 0xffffff70
    1e84:	01000090 	swpeq	r0, r0, [r0]	; <UNPREDICTABLE>
    1e88:	00005300 	andeq	r5, r0, r0, lsl #6
    1e8c:	00000000 	andeq	r0, r0, r0
    1e90:	00020000 	andeq	r0, r2, r0
    1e94:	8fd40000 	svchi	0x00d40000
    1e98:	8fd80000 	svchi	0x00d80000
    1e9c:	00020000 	andeq	r0, r2, r0
    1ea0:	8fd89f30 	svchi	0x00d89f30
    1ea4:	8fdc0000 	svchi	0x00dc0000
    1ea8:	00010000 	andeq	r0, r1, r0
    1eac:	00000050 	andeq	r0, r0, r0, asr r0
    1eb0:	00000000 	andeq	r0, r0, r0
    1eb4:	00000200 	andeq	r0, r0, r0, lsl #4
    1eb8:	00000000 	andeq	r0, r0, r0
    1ebc:	008fec00 	addeq	lr, pc, r0, lsl #24
    1ec0:	008ff000 	addeq	pc, pc, r0
    1ec4:	30000200 	andcc	r0, r0, r0, lsl #4
    1ec8:	008ff09f 	umulleq	pc, pc, pc, r0	; <UNPREDICTABLE>
    1ecc:	008ff400 	addeq	pc, pc, r0, lsl #8
    1ed0:	53000100 	movwpl	r0, #256	; 0x100
    1ed4:	00008ff4 	strdeq	r8, [r0], -r4
    1ed8:	00008ff8 	strdeq	r8, [r0], -r8	; <UNPREDICTABLE>
    1edc:	00730005 	rsbseq	r0, r3, r5
    1ee0:	f89f2140 			; <UNDEFINED> instruction: 0xf89f2140
    1ee4:	0000008f 	andeq	r0, r0, pc, lsl #1
    1ee8:	01000090 	swpeq	r0, r0, [r0]	; <UNPREDICTABLE>
    1eec:	00005300 	andeq	r5, r0, r0, lsl #6
	...
    1ef8:	00c80000 	sbceq	r0, r8, r0
    1efc:	00d80000 	sbcseq	r0, r8, r0
    1f00:	00010000 	andeq	r0, r1, r0
    1f04:	0000d850 	andeq	sp, r0, r0, asr r8
    1f08:	00011c00 	andeq	r1, r1, r0, lsl #24
    1f0c:	f3000400 	vshl.u8	d0, d0, d0
    1f10:	009f5001 	addseq	r5, pc, r1
    1f14:	00000000 	andeq	r0, r0, r0
    1f18:	02000000 	andeq	r0, r0, #0, 0
    1f1c:	c8000000 	stmdagt	r0, {}	; <UNPREDICTABLE>
    1f20:	d8000000 	stmdale	r0, {}	; <UNPREDICTABLE>
    1f24:	07000000 	streq	r0, [r0, -r0]
    1f28:	0a007000 	beq	1df30 <__bss_end__+0x14488>
    1f2c:	9f1e03e8 	svcls	0x001e03e8
    1f30:	000000d8 	ldrdeq	r0, [r0], -r8
    1f34:	0000011c 	andeq	r0, r0, ip, lsl r1
    1f38:	01f30008 	mvnseq	r0, r8
    1f3c:	03e80a50 	mvneq	r0, #80, 20	; 0x50000
    1f40:	00009f1e 	andeq	r9, r0, lr, lsl pc
	...
    1f4c:	000000dc 	ldrdeq	r0, [r0], -ip
    1f50:	0000011c 	andeq	r0, r0, ip, lsl r1
    1f54:	00540001 	subseq	r0, r4, r1
    1f58:	00000000 	andeq	r0, r0, r0
    1f5c:	01000000 	mrseq	r0, (UNDEF: 0)
    1f60:	0000f000 	andeq	pc, r0, r0
    1f64:	00011c00 	andeq	r1, r1, r0, lsl #24
    1f68:	56000100 	strpl	r0, [r0], -r0, lsl #2
	...
    1f78:	000000ec 	andeq	r0, r0, ip, ror #1
    1f7c:	000000ef 	andeq	r0, r0, pc, ror #1
    1f80:	ef500001 	svc	0x00500001
    1f84:	1c000000 	stcne	0, cr0, [r0], {-0}
    1f88:	01000001 	tsteq	r0, r1
    1f8c:	00005600 	andeq	r5, r0, r0, lsl #12
	...
    1f98:	00000104 	andeq	r0, r0, r4, lsl #2
    1f9c:	0000010b 	andeq	r0, r0, fp, lsl #2
    1fa0:	00500001 	subseq	r0, r0, r1
	...
    1fac:	20000000 	andcs	r0, r0, r0
    1fb0:	23000000 	movwcs	r0, #0
    1fb4:	01000000 	mrseq	r0, (UNDEF: 0)
    1fb8:	00235000 	eoreq	r5, r3, r0
    1fbc:	00300000 	eorseq	r0, r0, r0
    1fc0:	00010000 	andeq	r0, r1, r0
    1fc4:	00000054 	andeq	r0, r0, r4, asr r0
	...
    1fd0:	00003000 	andeq	r3, r0, r0
    1fd4:	00003b00 	andeq	r3, r0, r0, lsl #22
    1fd8:	50000100 	andpl	r0, r0, r0, lsl #2
    1fdc:	0000003b 	andeq	r0, r0, fp, lsr r0
    1fe0:	00000078 	andeq	r0, r0, r8, ror r0
    1fe4:	00560001 	subseq	r0, r6, r1
    1fe8:	00000000 	andeq	r0, r0, r0
    1fec:	01000000 	mrseq	r0, (UNDEF: 0)
    1ff0:	00004c00 	andeq	r4, r0, r0, lsl #24
    1ff4:	00007800 	andeq	r7, r0, r0, lsl #16
    1ff8:	55000100 	strpl	r0, [r0, #-256]	; 0xffffff00
	...
    2008:	00000048 	andeq	r0, r0, r8, asr #32
    200c:	0000004b 	andeq	r0, r0, fp, asr #32
    2010:	4b500001 	blmi	140201c <__bss_end__+0x13f8574>
    2014:	78000000 	stmdavc	r0, {}	; <UNPREDICTABLE>
    2018:	01000000 	mrseq	r0, (UNDEF: 0)
    201c:	00005500 	andeq	r5, r0, r0, lsl #10
	...
    2028:	00000060 	andeq	r0, r0, r0, rrx
    202c:	00000067 	andeq	r0, r0, r7, rrx
    2030:	00500001 	subseq	r0, r0, r1
	...
    203c:	78000000 	stmdavc	r0, {}	; <UNPREDICTABLE>
    2040:	84000000 	strhi	r0, [r0], #-0
    2044:	01000000 	mrseq	r0, (UNDEF: 0)
    2048:	00845000 	addeq	r5, r4, r0
    204c:	00c80000 	sbceq	r0, r8, r0
    2050:	00040000 	andeq	r0, r4, r0
    2054:	9f5001f3 	svcls	0x005001f3
	...
    2060:	00880000 	addeq	r0, r8, r0
    2064:	00c80000 	sbceq	r0, r8, r0
    2068:	00010000 	andeq	r0, r1, r0
    206c:	00000054 	andeq	r0, r0, r4, asr r0
    2070:	00000000 	andeq	r0, r0, r0
    2074:	9c000100 	stflss	f0, [r0], {-0}
    2078:	c8000000 	stmdagt	r0, {}	; <UNPREDICTABLE>
    207c:	01000000 	mrseq	r0, (UNDEF: 0)
    2080:	00005600 	andeq	r5, r0, r0, lsl #12
	...
    208c:	00980000 	addseq	r0, r8, r0
    2090:	009b0000 	addseq	r0, fp, r0
    2094:	00010000 	andeq	r0, r1, r0
    2098:	00009b50 	andeq	r9, r0, r0, asr fp
    209c:	0000c800 	andeq	ip, r0, r0, lsl #16
    20a0:	56000100 	strpl	r0, [r0], -r0, lsl #2
	...
    20ac:	00b00000 	adcseq	r0, r0, r0
    20b0:	00b70000 	adcseq	r0, r7, r0
    20b4:	00010000 	andeq	r0, r1, r0
    20b8:	00000050 	andeq	r0, r0, r0, asr r0
	...
    20c4:	00015800 	andeq	r5, r1, r0, lsl #16
    20c8:	00016300 	andeq	r6, r1, r0, lsl #6
    20cc:	50000100 	andpl	r0, r0, r0, lsl #2
    20d0:	00000163 	andeq	r0, r0, r3, ror #2
    20d4:	00000188 	andeq	r0, r0, r8, lsl #3
    20d8:	00540001 	subseq	r0, r4, r1
	...
    20e4:	00014800 	andeq	r4, r1, r0, lsl #16
    20e8:	00015800 	andeq	r5, r1, r0, lsl #16
    20ec:	54000100 	strpl	r0, [r0], #-256	; 0xffffff00
	...
    2100:	0000000f 	andeq	r0, r0, pc
    2104:	0f500001 	svceq	0x00500001
    2108:	20000000 	andcs	r0, r0, r0
    210c:	01000000 	mrseq	r0, (UNDEF: 0)
    2110:	00005400 	andeq	r5, r0, r0, lsl #8
	...
    2120:	000f0000 	andeq	r0, pc, r0
    2124:	00010000 	andeq	r0, r1, r0
    2128:	00000f51 	andeq	r0, r0, r1, asr pc
    212c:	00002000 	andeq	r2, r0, r0
    2130:	55000100 	strpl	r0, [r0, #-256]	; 0xffffff00
	...
    2140:	00000020 	andeq	r0, r0, r0, lsr #32
    2144:	0000002f 	andeq	r0, r0, pc, lsr #32
    2148:	2f500001 	svccs	0x00500001
    214c:	40000000 	andmi	r0, r0, r0
    2150:	01000000 	mrseq	r0, (UNDEF: 0)
    2154:	00005400 	andeq	r5, r0, r0, lsl #8
	...
    2160:	00200000 	eoreq	r0, r0, r0
    2164:	002f0000 	eoreq	r0, pc, r0
    2168:	00010000 	andeq	r0, r1, r0
    216c:	00002f51 	andeq	r2, r0, r1, asr pc
    2170:	00004000 	andeq	r4, r0, r0
    2174:	55000100 	strpl	r0, [r0, #-256]	; 0xffffff00
	...
    2188:	0000000b 	andeq	r0, r0, fp
    218c:	0b500001 	bleq	1402198 <__bss_end__+0x13f86f0>
    2190:	14000000 	strne	r0, [r0], #-0
    2194:	01000000 	mrseq	r0, (UNDEF: 0)
    2198:	00005400 	andeq	r5, r0, r0, lsl #8
	...
    21a8:	00180000 	andseq	r0, r8, r0
    21ac:	00010000 	andeq	r0, r1, r0
    21b0:	00001851 	andeq	r1, r0, r1, asr r8
    21b4:	00002c00 	andeq	r2, r0, r0, lsl #24
    21b8:	f3000400 	vshl.u8	d0, d0, d0
    21bc:	009f5101 	addseq	r5, pc, r1, lsl #2
    21c0:	00000000 	andeq	r0, r0, r0
    21c4:	02000000 	andeq	r0, r0, #0, 0
	...
    21d0:	00000101 	andeq	r0, r0, r1, lsl #2
    21d4:	00000000 	andeq	r0, r0, r0
    21d8:	00000400 	andeq	r0, r0, r0, lsl #8
    21dc:	50000100 	andpl	r0, r0, r0, lsl #2
    21e0:	00000004 	andeq	r0, r0, r4
    21e4:	00000008 	andeq	r0, r0, r8
    21e8:	08520001 	ldmdaeq	r2, {r0}^
    21ec:	0c000000 	stceq	0, cr0, [r0], {-0}
    21f0:	03000000 	movweq	r0, #0
    21f4:	9f017200 	svcls	0x00017200
    21f8:	0000000c 	andeq	r0, r0, ip
    21fc:	00000018 	andeq	r0, r0, r8, lsl r0
    2200:	18520001 	ldmdane	r2, {r0}^
    2204:	1c000000 	stcne	0, cr0, [r0], {-0}
    2208:	01000000 	mrseq	r0, (UNDEF: 0)
    220c:	001c5300 	andseq	r5, ip, r0, lsl #6
    2210:	00240000 	eoreq	r0, r4, r0
    2214:	00030000 	andeq	r0, r3, r0
    2218:	249f0173 	ldrcs	r0, [pc], #371	; 2220 <__code_start__-0x5de0>
    221c:	2c000000 	stccs	0, cr0, [r0], {-0}
    2220:	01000000 	mrseq	r0, (UNDEF: 0)
    2224:	00005300 	andeq	r5, r0, r0, lsl #6
    2228:	00000000 	andeq	r0, r0, r0
    222c:	02030000 	andeq	r0, r3, #0, 0
    2230:	00000002 	andeq	r0, r0, r2
    2234:	00000000 	andeq	r0, r0, r0
    2238:	00000018 	andeq	r0, r0, r8, lsl r0
    223c:	18510001 	ldmdane	r1, {r0}^
    2240:	1c000000 	stcne	0, cr0, [r0], {-0}
    2244:	03000000 	movweq	r0, #0
    2248:	9f017100 	svcls	0x00017100
    224c:	0000001c 	andeq	r0, r0, ip, lsl r0
    2250:	0000002c 	andeq	r0, r0, ip, lsr #32
    2254:	00510001 	subseq	r0, r1, r1
	...
    2264:	00000800 	andeq	r0, r0, r0, lsl #16
    2268:	00000c00 	andeq	r0, r0, r0, lsl #24
    226c:	72000200 	andvc	r0, r0, #0, 4
    2270:	00000c00 	andeq	r0, r0, r0, lsl #24
    2274:	00001800 	andeq	r1, r0, r0, lsl #16
    2278:	73000200 	movwvc	r0, #512	; 0x200
    227c:	00001c00 	andeq	r1, r0, r0, lsl #24
    2280:	00002c00 	andeq	r2, r0, r0, lsl #24
    2284:	52000100 	andpl	r0, r0, #0
	...
    22a0:	00000014 	andeq	r0, r0, r4, lsl r0
    22a4:	14500001 	ldrbne	r0, [r0], #-1
    22a8:	18000000 	stmdane	r0, {}	; <UNPREDICTABLE>
    22ac:	03000000 	movweq	r0, #0
    22b0:	9f017000 	svcls	0x00017000
    22b4:	00000018 	andeq	r0, r0, r8, lsl r0
    22b8:	00000020 	andeq	r0, r0, r0, lsr #32
    22bc:	24500001 	ldrbcs	r0, [r0], #-1
    22c0:	28000000 	stmdacs	r0, {}	; <UNPREDICTABLE>
    22c4:	01000000 	mrseq	r0, (UNDEF: 0)
    22c8:	00285000 	eoreq	r5, r8, r0
    22cc:	00300000 	eorseq	r0, r0, r0
    22d0:	00030000 	andeq	r0, r3, r0
    22d4:	389f0170 	ldmcc	pc, {r4, r5, r6, r8}	; <UNPREDICTABLE>
    22d8:	40000000 	andmi	r0, r0, r0
    22dc:	01000000 	mrseq	r0, (UNDEF: 0)
    22e0:	00005000 	andeq	r5, r0, r0
	...
    22f4:	00000024 	andeq	r0, r0, r4, lsr #32
    22f8:	24510001 	ldrbcs	r0, [r1], #-1
    22fc:	28000000 	stmdacs	r0, {}	; <UNPREDICTABLE>
    2300:	01000000 	mrseq	r0, (UNDEF: 0)
    2304:	00285c00 	eoreq	r5, r8, r0, lsl #24
    2308:	00440000 	subeq	r0, r4, r0
    230c:	00010000 	andeq	r0, r1, r0
    2310:	00000051 	andeq	r0, r0, r1, asr r0
    2314:	00000000 	andeq	r0, r0, r0
    2318:	02020000 	andeq	r0, r2, #0, 0
    231c:	00000000 	andeq	r0, r0, r0
    2320:	04000000 	streq	r0, [r0], #-0
    2324:	01000000 	mrseq	r0, (UNDEF: 0)
    2328:	00045100 	andeq	r5, r4, r0, lsl #2
    232c:	00080000 	andeq	r0, r8, r0
    2330:	00030000 	andeq	r0, r3, r0
    2334:	089f0171 	ldmeq	pc, {r0, r4, r5, r6, r8}	; <UNPREDICTABLE>
    2338:	18000000 	stmdane	r0, {}	; <UNPREDICTABLE>
    233c:	01000000 	mrseq	r0, (UNDEF: 0)
    2340:	00005100 	andeq	r5, r0, r0, lsl #2
    2344:	00000000 	andeq	r0, r0, r0
    2348:	00020000 	andeq	r0, r2, r0
    234c:	00000000 	andeq	r0, r0, r0
    2350:	00000004 	andeq	r0, r0, r4
    2354:	00500001 	subseq	r0, r0, r1
	...
    2364:	08000000 	stmdaeq	r0, {}	; <UNPREDICTABLE>
    2368:	01000000 	mrseq	r0, (UNDEF: 0)
    236c:	00085000 	andeq	r5, r8, r0
    2370:	00300000 	eorseq	r0, r0, r0
    2374:	00040000 	andeq	r0, r4, r0
    2378:	9f5001f3 	svcls	0x005001f3
	...
    238c:	00000008 	andeq	r0, r0, r8
    2390:	08510001 	ldmdaeq	r1, {r0}^
    2394:	30000000 	andcc	r0, r0, r0
    2398:	04000000 	streq	r0, [r0], #-0
    239c:	5101f300 	mrspl	pc, SP_irq	; <UNPREDICTABLE>
    23a0:	0000009f 	muleq	r0, pc, r0	; <UNPREDICTABLE>
	...
    23ac:	01000000 	mrseq	r0, (UNDEF: 0)
    23b0:	00000202 	andeq	r0, r0, r2, lsl #4
    23b4:	04000000 	streq	r0, [r0], #-0
    23b8:	01000000 	mrseq	r0, (UNDEF: 0)
    23bc:	00045200 	andeq	r5, r4, r0, lsl #4
    23c0:	00080000 	andeq	r0, r8, r0
    23c4:	00040000 	andeq	r0, r4, r0
    23c8:	9f5201f3 	svcls	0x005201f3
    23cc:	00000008 	andeq	r0, r0, r8
    23d0:	00000018 	andeq	r0, r0, r8, lsl r0
    23d4:	01f30006 	mvnseq	r0, r6
    23d8:	9f1c3152 	svcls	0x001c3152
    23dc:	00000018 	andeq	r0, r0, r8, lsl r0
    23e0:	00000018 	andeq	r0, r0, r8, lsl r0
    23e4:	01f30004 	mvnseq	r0, r4
    23e8:	00189f52 	andseq	r9, r8, r2, asr pc
    23ec:	00300000 	eorseq	r0, r0, r0
    23f0:	00060000 	andeq	r0, r6, r0
    23f4:	315201f3 	ldrshcc	r0, [r2, #-19]	; 0xffffffed
    23f8:	00009f1c 	andeq	r9, r0, ip, lsl pc
    23fc:	00000000 	andeq	r0, r0, r0
    2400:	00020000 	andeq	r0, r2, r0
    2404:	00010000 	andeq	r0, r1, r0
    2408:	00000000 	andeq	r0, r0, r0
    240c:	000c0000 	andeq	r0, ip, r0
    2410:	00010000 	andeq	r0, r1, r0
    2414:	00000c50 	andeq	r0, r0, r0, asr ip
    2418:	00001800 	andeq	r1, r0, r0, lsl #16
    241c:	70000300 	andvc	r0, r0, r0, lsl #6
    2420:	00189f7f 	andseq	r9, r8, pc, ror pc
    2424:	00240000 	eoreq	r0, r4, r0
    2428:	00010000 	andeq	r0, r1, r0
    242c:	00002850 	andeq	r2, r0, r0, asr r8
    2430:	00002c00 	andeq	r2, r0, r0, lsl #24
    2434:	70000300 	andvc	r0, r0, r0, lsl #6
    2438:	00009f7f 	andeq	r9, r0, pc, ror pc
    243c:	00000000 	andeq	r0, r0, r0
    2440:	00020000 	andeq	r0, r2, r0
	...
    244c:	0000000c 	andeq	r0, r0, ip
    2450:	0c510001 	mrrceq	0, 0, r0, r1, cr1
    2454:	10000000 	andne	r0, r0, r0
    2458:	03000000 	movweq	r0, #0
    245c:	9f017100 	svcls	0x00017100
    2460:	00000010 	andeq	r0, r0, r0, lsl r0
    2464:	00000030 	andeq	r0, r0, r0, lsr r0
    2468:	00510001 	subseq	r0, r1, r1
    246c:	00000000 	andeq	r0, r0, r0
    2470:	Address 0x0000000000002470 is out of bounds.


Disassembly of section .debug_aranges:

00000000 <.debug_aranges>:
   0:	0000001c 	andeq	r0, r0, ip, lsl r0
   4:	00000002 	andeq	r0, r0, r2
   8:	00040000 	andeq	r0, r4, r0
   c:	00000000 	andeq	r0, r0, r0
  10:	00008040 	andeq	r8, r0, r0, asr #32
  14:	00000268 	andeq	r0, r0, r8, ror #4
	...
  20:	0000001c 	andeq	r0, r0, ip, lsl r0
  24:	07680002 	strbeq	r0, [r8, -r2]!
  28:	00040000 	andeq	r0, r4, r0
  2c:	00000000 	andeq	r0, r0, r0
  30:	000082a8 	andeq	r8, r0, r8, lsr #5
  34:	000001a0 	andeq	r0, r0, r0, lsr #3
	...
  40:	0000001c 	andeq	r0, r0, ip, lsl r0
  44:	0d850002 	stceq	0, cr0, [r5, #8]
  48:	00040000 	andeq	r0, r4, r0
  4c:	00000000 	andeq	r0, r0, r0
  50:	00008448 	andeq	r8, r0, r8, asr #8
  54:	00000058 	andeq	r0, r0, r8, asr r0
	...
  60:	0000001c 	andeq	r0, r0, ip, lsl r0
  64:	0f260002 	svceq	0x00260002
  68:	00040000 	andeq	r0, r4, r0
  6c:	00000000 	andeq	r0, r0, r0
  70:	000084a0 	andeq	r8, r0, r0, lsr #9
  74:	00000038 	andeq	r0, r0, r8, lsr r0
	...
  80:	0000001c 	andeq	r0, r0, ip, lsl r0
  84:	101d0002 	andsne	r0, sp, r2
  88:	00040000 	andeq	r0, r4, r0
  8c:	00000000 	andeq	r0, r0, r0
  90:	000084d8 	ldrdeq	r8, [r0], -r8	; <UNPREDICTABLE>
  94:	000009b4 			; <UNDEFINED> instruction: 0x000009b4
	...
  a0:	0000001c 	andeq	r0, r0, ip, lsl r0
  a4:	1ca00002 	stcne	0, cr0, [r0], #8
  a8:	00040000 	andeq	r0, r4, r0
  ac:	00000000 	andeq	r0, r0, r0
  b0:	00008e8c 	andeq	r8, r0, ip, lsl #29
  b4:	00000020 	andeq	r0, r0, r0, lsr #32
	...
  c0:	0000001c 	andeq	r0, r0, ip, lsl r0
  c4:	1dae0002 	stcne	0, cr0, [lr, #8]!
  c8:	00040000 	andeq	r0, r4, r0
  cc:	00000000 	andeq	r0, r0, r0
  d0:	00008eac 	andeq	r8, r0, ip, lsr #29
  d4:	0000002c 	andeq	r0, r0, ip, lsr #32
	...
  e0:	0000001c 	andeq	r0, r0, ip, lsl r0
  e4:	1ee10002 	cdpne	0, 14, cr0, cr1, cr2, {0}
  e8:	00040000 	andeq	r0, r4, r0
  ec:	00000000 	andeq	r0, r0, r0
  f0:	00008ed8 	ldrdeq	r8, [r0], -r8	; <UNPREDICTABLE>
  f4:	000000f8 	strdeq	r0, [r0], -r8
	...
 100:	0000001c 	andeq	r0, r0, ip, lsl r0
 104:	20750002 	rsbscs	r0, r5, r2
 108:	00040000 	andeq	r0, r4, r0
 10c:	00000000 	andeq	r0, r0, r0
 110:	00008fd0 	ldrdeq	r8, [r0], -r0
 114:	00000004 	andeq	r0, r0, r4
	...
 120:	0000001c 	andeq	r0, r0, ip, lsl r0
 124:	21470002 	cmpcs	r7, r2
 128:	00040000 	andeq	r0, r4, r0
 12c:	00000000 	andeq	r0, r0, r0
 130:	00008fd4 	ldrdeq	r8, [r0], -r4
 134:	0000008c 	andeq	r0, r0, ip, lsl #1
	...
 140:	0000001c 	andeq	r0, r0, ip, lsl r0
 144:	23c80002 	biccs	r0, r8, #2, 0
 148:	00040000 	andeq	r0, r4, r0
 14c:	00000000 	andeq	r0, r0, r0
 150:	00009060 	andeq	r9, r0, r0, rrx
 154:	0000011c 	andeq	r0, r0, ip, lsl r1
	...
 160:	0000001c 	andeq	r0, r0, ip, lsl r0
 164:	290b0002 	stmdbcs	fp, {r1}
 168:	00040000 	andeq	r0, r4, r0
 16c:	00000000 	andeq	r0, r0, r0
 170:	0000917c 	andeq	r9, r0, ip, ror r1
 174:	000001f0 	strdeq	r0, [r0], -r0	; <UNPREDICTABLE>
	...
 180:	0000001c 	andeq	r0, r0, ip, lsl r0
 184:	2edc0002 	cdpcs	0, 13, cr0, cr12, cr2, {0}
 188:	00040000 	andeq	r0, r4, r0
 18c:	00000000 	andeq	r0, r0, r0
 190:	0000936c 	andeq	r9, r0, ip, ror #6
 194:	0000003c 	andeq	r0, r0, ip, lsr r0
	...
 1a0:	0000001c 	andeq	r0, r0, ip, lsl r0
 1a4:	30290002 	eorcc	r0, r9, r2
 1a8:	00040000 	andeq	r0, r4, r0
 1ac:	00000000 	andeq	r0, r0, r0
 1b0:	000093a8 	andeq	r9, r0, r8, lsr #7
 1b4:	0000002c 	andeq	r0, r0, ip, lsr #32
	...
 1c0:	0000001c 	andeq	r0, r0, ip, lsl r0
 1c4:	31640002 	cmncc	r4, r2
 1c8:	00040000 	andeq	r0, r4, r0
 1cc:	00000000 	andeq	r0, r0, r0
 1d0:	000093d4 	ldrdeq	r9, [r0], -r4
 1d4:	00000044 	andeq	r0, r0, r4, asr #32
	...
 1e0:	0000001c 	andeq	r0, r0, ip, lsl r0
 1e4:	325f0002 	subscc	r0, pc, #2, 0
 1e8:	00040000 	andeq	r0, r4, r0
 1ec:	00000000 	andeq	r0, r0, r0
 1f0:	00009418 	andeq	r9, r0, r8, lsl r4
 1f4:	00000018 	andeq	r0, r0, r8, lsl r0
	...
 200:	0000001c 	andeq	r0, r0, ip, lsl r0
 204:	33720002 	cmncc	r2, #2, 0
 208:	00040000 	andeq	r0, r4, r0
 20c:	00000000 	andeq	r0, r0, r0
 210:	00009430 	andeq	r9, r0, r0, lsr r4
 214:	00000030 	andeq	r0, r0, r0, lsr r0
	...
 220:	0000001c 	andeq	r0, r0, ip, lsl r0
 224:	34c40002 	strbcc	r0, [r4], #2
 228:	00040000 	andeq	r0, r4, r0
 22c:	00000000 	andeq	r0, r0, r0
 230:	00009460 	andeq	r9, r0, r0, ror #8
 234:	00000004 	andeq	r0, r0, r4
	...

Disassembly of section .debug_ranges:

00000000 <.debug_ranges>:
	...
   8:	00000004 	andeq	r0, r0, r4
   c:	00000008 	andeq	r0, r0, r8
	...
  18:	00000008 	andeq	r0, r0, r8
  1c:	0000000c 	andeq	r0, r0, ip
  20:	00000010 	andeq	r0, r0, r0, lsl r0
  24:	00000010 	andeq	r0, r0, r0, lsl r0
  28:	00000014 	andeq	r0, r0, r4, lsl r0
  2c:	00000018 	andeq	r0, r0, r8, lsl r0
	...
  38:	00000010 	andeq	r0, r0, r0, lsl r0
  3c:	00000014 	andeq	r0, r0, r4, lsl r0
  40:	00000018 	andeq	r0, r0, r8, lsl r0
  44:	0000001c 	andeq	r0, r0, ip, lsl r0
	...
  50:	00000044 	andeq	r0, r0, r4, asr #32
  54:	00000048 	andeq	r0, r0, r8, asr #32
  58:	0000004c 	andeq	r0, r0, ip, asr #32
  5c:	0000004c 	andeq	r0, r0, ip, asr #32
  60:	0000004c 	andeq	r0, r0, ip, asr #32
  64:	00000050 	andeq	r0, r0, r0, asr r0
	...
  70:	000000d4 	ldrdeq	r0, [r0], -r4
  74:	000000dc 	ldrdeq	r0, [r0], -ip
  78:	000000dc 	ldrdeq	r0, [r0], -ip
  7c:	000000e0 	andeq	r0, r0, r0, ror #1
	...
  88:	000000dc 	ldrdeq	r0, [r0], -ip
  8c:	000000dc 	ldrdeq	r0, [r0], -ip
  90:	000000e0 	andeq	r0, r0, r0, ror #1
  94:	000000e8 	andeq	r0, r0, r8, ror #1
  98:	000000e8 	andeq	r0, r0, r8, ror #1
  9c:	00000214 	andeq	r0, r0, r4, lsl r2
  a0:	00000218 	andeq	r0, r0, r8, lsl r2
  a4:	00000268 	andeq	r0, r0, r8, ror #4
	...
  b0:	000000e0 	andeq	r0, r0, r0, ror #1
  b4:	000000e8 	andeq	r0, r0, r8, ror #1
  b8:	000000e8 	andeq	r0, r0, r8, ror #1
  bc:	0000020c 	andeq	r0, r0, ip, lsl #4
  c0:	00000218 	andeq	r0, r0, r8, lsl r2
  c4:	00000268 	andeq	r0, r0, r8, ror #4
	...
  d0:	000000e0 	andeq	r0, r0, r0, ror #1
  d4:	000000e4 	andeq	r0, r0, r4, ror #1
  d8:	000000e8 	andeq	r0, r0, r8, ror #1
  dc:	00000174 	andeq	r0, r0, r4, ror r1
  e0:	00000218 	andeq	r0, r0, r8, lsl r2
  e4:	00000220 	andeq	r0, r0, r0, lsr #4
	...
  f0:	000000e0 	andeq	r0, r0, r0, ror #1
  f4:	000000e4 	andeq	r0, r0, r4, ror #1
  f8:	000000f4 	strdeq	r0, [r0], -r4
  fc:	000000f8 	strdeq	r0, [r0], -r8
 100:	000000fc 	strdeq	r0, [r0], -ip
 104:	000000fc 	strdeq	r0, [r0], -ip
	...
 110:	000000e4 	andeq	r0, r0, r4, ror #1
 114:	000000e8 	andeq	r0, r0, r8, ror #1
 118:	00000174 	andeq	r0, r0, r4, ror r1
 11c:	0000020c 	andeq	r0, r0, ip, lsl #4
 120:	00000220 	andeq	r0, r0, r0, lsr #4
 124:	00000268 	andeq	r0, r0, r8, ror #4
	...
 130:	000000e4 	andeq	r0, r0, r4, ror #1
 134:	000000e8 	andeq	r0, r0, r8, ror #1
 138:	00000180 	andeq	r0, r0, r0, lsl #3
 13c:	00000188 	andeq	r0, r0, r8, lsl #3
 140:	0000018c 	andeq	r0, r0, ip, lsl #3
 144:	00000190 	muleq	r0, r0, r1
 148:	00000198 	muleq	r0, r8, r1
 14c:	00000200 	andeq	r0, r0, r0, lsl #4
 150:	00000240 	andeq	r0, r0, r0, asr #4
 154:	00000268 	andeq	r0, r0, r8, ror #4
	...
 160:	000000e4 	andeq	r0, r0, r4, ror #1
 164:	000000e8 	andeq	r0, r0, r8, ror #1
 168:	0000019c 	muleq	r0, ip, r1
 16c:	000001ec 	andeq	r0, r0, ip, ror #3
 170:	000001f8 	strdeq	r0, [r0], -r8
 174:	000001fc 	strdeq	r0, [r0], -ip
	...
 180:	000000a4 	andeq	r0, r0, r4, lsr #1
 184:	00000148 	andeq	r0, r0, r8, asr #2
 188:	00000158 	andeq	r0, r0, r8, asr r1
 18c:	0000015c 	andeq	r0, r0, ip, asr r1
 190:	00000274 	andeq	r0, r0, r4, ror r2
 194:	00000278 	andeq	r0, r0, r8, ror r2
 198:	0000027c 	andeq	r0, r0, ip, ror r2
 19c:	00000280 	andeq	r0, r0, r0, lsl #5
 1a0:	00000288 	andeq	r0, r0, r8, lsl #5
 1a4:	0000029c 	muleq	r0, ip, r2
 1a8:	000002c0 	andeq	r0, r0, r0, asr #5
 1ac:	000002cc 	andeq	r0, r0, ip, asr #5
 1b0:	000002f0 	strdeq	r0, [r0], -r0	; <UNPREDICTABLE>
 1b4:	000002f0 	strdeq	r0, [r0], -r0	; <UNPREDICTABLE>
 1b8:	000002f4 	strdeq	r0, [r0], -r4
 1bc:	000002f8 	strdeq	r0, [r0], -r8
	...
 1c8:	00000148 	andeq	r0, r0, r8, asr #2
 1cc:	00000158 	andeq	r0, r0, r8, asr r1
 1d0:	0000015c 	andeq	r0, r0, ip, asr r1
 1d4:	0000018c 	andeq	r0, r0, ip, lsl #3
 1d8:	0000029c 	muleq	r0, ip, r2
 1dc:	000002ac 	andeq	r0, r0, ip, lsr #5
	...
 1e8:	000003c8 	andeq	r0, r0, r8, asr #7
 1ec:	000003d0 	ldrdeq	r0, [r0], -r0	; <UNPREDICTABLE>
 1f0:	00000404 	andeq	r0, r0, r4, lsl #8
 1f4:	000004ac 	andeq	r0, r0, ip, lsr #9
 1f8:	000004c0 	andeq	r0, r0, r0, asr #9
 1fc:	00000920 	andeq	r0, r0, r0, lsr #18
 200:	00000928 	andeq	r0, r0, r8, lsr #18
 204:	000009b4 			; <UNDEFINED> instruction: 0x000009b4
	...
 210:	000003c8 	andeq	r0, r0, r8, asr #7
 214:	000003d0 	ldrdeq	r0, [r0], -r0	; <UNPREDICTABLE>
 218:	00000504 	andeq	r0, r0, r4, lsl #10
 21c:	000005d0 	ldrdeq	r0, [r0], -r0	; <UNPREDICTABLE>
 220:	00000800 	andeq	r0, r0, r0, lsl #16
 224:	00000888 	andeq	r0, r0, r8, lsl #17
 228:	00000930 	andeq	r0, r0, r0, lsr r9
 22c:	000009b4 			; <UNDEFINED> instruction: 0x000009b4
	...
 238:	00000404 	andeq	r0, r0, r4, lsl #8
 23c:	00000408 	andeq	r0, r0, r8, lsl #8
 240:	00000414 	andeq	r0, r0, r4, lsl r4
 244:	00000414 	andeq	r0, r0, r4, lsl r4
 248:	00000428 	andeq	r0, r0, r8, lsr #8
 24c:	0000042c 	andeq	r0, r0, ip, lsr #8
	...
 258:	000005fc 	strdeq	r0, [r0], -ip
 25c:	00000700 	andeq	r0, r0, r0, lsl #14
 260:	000007ec 	andeq	r0, r0, ip, ror #15
 264:	000007f4 	strdeq	r0, [r0], -r4
 268:	00000888 	andeq	r0, r0, r8, lsl #17
 26c:	00000894 	muleq	r0, r4, r8
 270:	000008a8 	andeq	r0, r0, r8, lsr #17
 274:	000008bc 			; <UNDEFINED> instruction: 0x000008bc
 278:	00000910 	andeq	r0, r0, r0, lsl r9
 27c:	00000920 	andeq	r0, r0, r0, lsr #18
	...
 288:	00000600 	andeq	r0, r0, r0, lsl #12
 28c:	00000604 	andeq	r0, r0, r4, lsl #12
 290:	00000608 	andeq	r0, r0, r8, lsl #12
 294:	000006b4 			; <UNDEFINED> instruction: 0x000006b4
 298:	000006cc 	andeq	r0, r0, ip, asr #13
 29c:	000006d0 	ldrdeq	r0, [r0], -r0	; <UNPREDICTABLE>
 2a0:	000008a8 	andeq	r0, r0, r8, lsr #17
 2a4:	000008b8 			; <UNDEFINED> instruction: 0x000008b8
 2a8:	00000910 	andeq	r0, r0, r0, lsl r9
 2ac:	00000920 	andeq	r0, r0, r0, lsr #18
	...
 2b8:	000006b4 			; <UNDEFINED> instruction: 0x000006b4
 2bc:	000006cc 	andeq	r0, r0, ip, asr #13
 2c0:	000006d0 	ldrdeq	r0, [r0], -r0	; <UNPREDICTABLE>
 2c4:	00000700 	andeq	r0, r0, r0, lsl #14
 2c8:	000007ec 	andeq	r0, r0, ip, ror #15
 2cc:	000007f4 	strdeq	r0, [r0], -r4
 2d0:	00000888 	andeq	r0, r0, r8, lsl #17
 2d4:	00000894 	muleq	r0, r4, r8
 2d8:	000008b8 			; <UNDEFINED> instruction: 0x000008b8
 2dc:	000008bc 			; <UNDEFINED> instruction: 0x000008bc
	...
 2e8:	00000700 	andeq	r0, r0, r0, lsl #14
 2ec:	00000708 	andeq	r0, r0, r8, lsl #14
 2f0:	0000070c 	andeq	r0, r0, ip, lsl #14
 2f4:	000007ec 	andeq	r0, r0, ip, ror #15
 2f8:	00000894 	muleq	r0, r4, r8
 2fc:	000008a8 	andeq	r0, r0, r8, lsr #17
	...
 308:	00000728 	andeq	r0, r0, r8, lsr #14
 30c:	000007a4 	andeq	r0, r0, r4, lsr #15
 310:	000007ac 	andeq	r0, r0, ip, lsr #15
 314:	000007b0 			; <UNDEFINED> instruction: 0x000007b0
 318:	00000894 	muleq	r0, r4, r8
 31c:	00000898 	muleq	r0, r8, r8
 320:	0000089c 	muleq	r0, ip, r8
 324:	000008a0 	andeq	r0, r0, r0, lsr #17
	...
 330:	000007a4 	andeq	r0, r0, r4, lsr #15
 334:	000007ac 	andeq	r0, r0, ip, lsr #15
 338:	000007b0 			; <UNDEFINED> instruction: 0x000007b0
 33c:	000007ec 	andeq	r0, r0, ip, ror #15
 340:	00000898 	muleq	r0, r8, r8
 344:	0000089c 	muleq	r0, ip, r8
 348:	000008a0 	andeq	r0, r0, r0, lsr #17
 34c:	000008a8 	andeq	r0, r0, r8, lsr #17
	...
 358:	00008e8c 	andeq	r8, r0, ip, lsl #29
 35c:	00008eac 	andeq	r8, r0, ip, lsr #29
	...
 368:	00009000 	andeq	r9, r0, r0
 36c:	00009000 	andeq	r9, r0, r0
 370:	00009004 	andeq	r9, r0, r4
 374:	0000900c 	andeq	r9, r0, ip
	...
 380:	00008fd4 	ldrdeq	r8, [r0], -r4
 384:	00009060 	andeq	r9, r0, r0, rrx
	...
 390:	00000030 	andeq	r0, r0, r0, lsr r0
 394:	00000030 	andeq	r0, r0, r0, lsr r0
 398:	00000038 	andeq	r0, r0, r8, lsr r0
 39c:	0000004c 	andeq	r0, r0, ip, asr #32
	...
 3a8:	0000004c 	andeq	r0, r0, ip, asr #32
 3ac:	00000050 	andeq	r0, r0, r0, asr r0
 3b0:	00000050 	andeq	r0, r0, r0, asr r0
 3b4:	00000078 	andeq	r0, r0, r8, ror r0
	...
 3c0:	0000004c 	andeq	r0, r0, ip, asr #32
 3c4:	00000050 	andeq	r0, r0, r0, asr r0
 3c8:	00000050 	andeq	r0, r0, r0, asr r0
 3cc:	00000060 	andeq	r0, r0, r0, rrx
 3d0:	00000064 	andeq	r0, r0, r4, rrx
 3d4:	00000068 	andeq	r0, r0, r8, rrx
	...
 3e0:	0000004c 	andeq	r0, r0, ip, asr #32
 3e4:	00000050 	andeq	r0, r0, r0, asr r0
 3e8:	00000054 	andeq	r0, r0, r4, asr r0
 3ec:	00000060 	andeq	r0, r0, r0, rrx
	...
 3f8:	0000009c 	muleq	r0, ip, r0
 3fc:	000000a0 	andeq	r0, r0, r0, lsr #1
 400:	000000a0 	andeq	r0, r0, r0, lsr #1
 404:	000000c8 	andeq	r0, r0, r8, asr #1
	...
 410:	0000009c 	muleq	r0, ip, r0
 414:	000000a0 	andeq	r0, r0, r0, lsr #1
 418:	000000a0 	andeq	r0, r0, r0, lsr #1
 41c:	000000b0 	strheq	r0, [r0], -r0	; <UNPREDICTABLE>
 420:	000000b4 	strheq	r0, [r0], -r4
 424:	000000b8 	strheq	r0, [r0], -r8
	...
 430:	0000009c 	muleq	r0, ip, r0
 434:	000000a0 	andeq	r0, r0, r0, lsr #1
 438:	000000a4 	andeq	r0, r0, r4, lsr #1
 43c:	000000b0 	strheq	r0, [r0], -r0	; <UNPREDICTABLE>
	...
 448:	000000c8 	andeq	r0, r0, r8, asr #1
 44c:	000000c8 	andeq	r0, r0, r8, asr #1
 450:	000000cc 	andeq	r0, r0, ip, asr #1
 454:	0000011c 	andeq	r0, r0, ip, lsl r1
	...
 460:	000000f0 	strdeq	r0, [r0], -r0	; <UNPREDICTABLE>
 464:	000000f4 	strdeq	r0, [r0], -r4
 468:	000000f4 	strdeq	r0, [r0], -r4
 46c:	0000011c 	andeq	r0, r0, ip, lsl r1
	...
 478:	000000f0 	strdeq	r0, [r0], -r0	; <UNPREDICTABLE>
 47c:	000000f4 	strdeq	r0, [r0], -r4
 480:	000000f4 	strdeq	r0, [r0], -r4
 484:	00000104 	andeq	r0, r0, r4, lsl #2
 488:	00000108 	andeq	r0, r0, r8, lsl #2
 48c:	0000010c 	andeq	r0, r0, ip, lsl #2
	...
 498:	000000f0 	strdeq	r0, [r0], -r0	; <UNPREDICTABLE>
 49c:	000000f4 	strdeq	r0, [r0], -r4
 4a0:	000000f8 	strdeq	r0, [r0], -r8
 4a4:	00000104 	andeq	r0, r0, r4, lsl #2
	...

Disassembly of section .debug_line:

00000000 <.debug_line>:
       0:	000003c1 	andeq	r0, r0, r1, asr #7
       4:	00dc0003 	sbcseq	r0, ip, r3
       8:	01020000 	mrseq	r0, (UNDEF: 2)
       c:	000d0efb 	strdeq	r0, [sp], -fp
      10:	01010101 	tsteq	r1, r1, lsl #2
      14:	01000000 	mrseq	r0, (UNDEF: 0)
      18:	2f010000 	svccs	0x00010000
      1c:	72657355 	rsbvc	r7, r5, #1409286145	; 0x54000001
      20:	696d2f73 	stmdbvs	sp!, {r0, r1, r4, r5, r6, r8, r9, sl, fp, sp}^
      24:	2f73656c 	svccs	0x0073656c
      28:	72756f53 	rsbsvc	r6, r5, #332	; 0x14c
      2c:	632f6563 			; <UNDEFINED> instruction: 0x632f6563
      30:	30343273 	eorscc	r3, r4, r3, ror r2
      34:	6c2f786c 	stcvs	8, cr7, [pc], #-432	; fffffe8c <__bss_end__+0xffff63e4>
      38:	69706269 	ldmdbvs	r0!, {r0, r3, r5, r6, r9, sp, lr}^
      3c:	636e692f 	cmnvs	lr, #770048	; 0xbc000
      40:	6564756c 	strbvs	r7, [r4, #-1388]!	; 0xfffffa94
      44:	706f2f00 	rsbvc	r2, pc, r0, lsl #30
      48:	6f682f74 	svcvs	0x00682f74
      4c:	7262656d 	rsbvc	r6, r2, #457179136	; 0x1b400000
      50:	432f7765 			; <UNDEFINED> instruction: 0x432f7765
      54:	616c6c65 	cmnvs	ip, r5, ror #24
      58:	72612f72 	rsbvc	r2, r1, #456	; 0x1c8
      5c:	6f6e2d6d 	svcvs	0x006e2d6d
      60:	652d656e 	strvs	r6, [sp, #-1390]!	; 0xfffffa92
      64:	2d696261 	sfmcs	f6, 2, [r9, #-388]!	; 0xfffffe7c
      68:	2d392f39 	ldccs	15, cr2, [r9, #-228]!	; 0xffffff1c
      6c:	39313032 	ldmdbcc	r1!, {r1, r4, r5, ip, sp}
      70:	632d3471 			; <UNDEFINED> instruction: 0x632d3471
      74:	37303173 			; <UNDEFINED> instruction: 0x37303173
      78:	696c2f65 	stmdbvs	ip!, {r0, r2, r5, r6, r8, r9, sl, fp, sp}^
      7c:	63672f62 	cmnvs	r7, #392	; 0x188
      80:	72612f63 	rsbvc	r2, r1, #396	; 0x18c
      84:	6f6e2d6d 	svcvs	0x006e2d6d
      88:	652d656e 	strvs	r6, [sp, #-1390]!	; 0xfffffa92
      8c:	2f696261 	svccs	0x00696261
      90:	2e322e39 	mrccs	14, 1, r2, cr2, cr9, {1}
      94:	6e692f31 	mcrvs	15, 3, r2, cr9, cr1, {1}
      98:	64756c63 	ldrbtvs	r6, [r5], #-3171	; 0xfffff39d
      9c:	73000065 	movwvc	r0, #101	; 0x65
      a0:	65706f63 	ldrbvs	r6, [r0, #-3939]!	; 0xfffff09d
      a4:	0000632e 	andeq	r6, r0, lr, lsr #6
      a8:	61730000 	cmnvs	r3, r0
      ac:	656c706d 	strbvs	r7, [ip, #-109]!	; 0xffffff93
      b0:	00682e73 	rsbeq	r2, r8, r3, ror lr
      b4:	63000000 	movwvs	r0, #0
      b8:	656c6379 	strbvs	r6, [ip, #-889]!	; 0xfffffc87
      bc:	0000682e 	andeq	r6, r0, lr, lsr #16
      c0:	70720000 	rsbsvc	r0, r2, r0
      c4:	00682e69 	rsbeq	r2, r8, r9, ror #28
      c8:	73000001 	movwvc	r0, #1
      cc:	6e696474 	mcrvs	4, 3, r6, cr9, cr4, {3}
      d0:	63672d74 	cmnvs	r7, #116, 26	; 0x1d00
      d4:	00682e63 	rsbeq	r2, r8, r3, ror #28
      d8:	67000002 	strvs	r0, [r0, -r2]
      dc:	2e6f6970 			; <UNDEFINED> instruction: 0x2e6f6970
      e0:	00010068 	andeq	r0, r1, r8, rrx
      e4:	51050000 	mrspl	r0, (UNDEF: 5)
      e8:	40020500 	andmi	r0, r2, r0, lsl #10
      ec:	03000080 	movweq	r0, #128	; 0x80
      f0:	05050122 	streq	r0, [r5, #-290]	; 0xfffffede
      f4:	14051313 	strne	r1, [r5], #-787	; 0xfffffced
      f8:	51050101 	tstpl	r5, r1, lsl #2
      fc:	14051006 	strne	r1, [r5], #-6
     100:	062e0630 			; <UNDEFINED> instruction: 0x062e0630
     104:	06050501 	streq	r0, [r5], -r1, lsl #10
     108:	060c0513 			; <UNDEFINED> instruction: 0x060c0513
     10c:	2e017903 	vmlacs.f16	s14, s2, s6	; <UNPREDICTABLE>
     110:	05190e05 	ldreq	r0, [r9, #-3589]	; 0xfffff1fb
     114:	052f0605 	streq	r0, [pc, #-1541]!	; fffffb17 <__bss_end__+0xffff606f>
     118:	01770318 	cmneq	r7, r8, lsl r3
     11c:	05130505 	ldreq	r0, [r3, #-1285]	; 0xfffffafb
     120:	4a01060c 	bmi	41958 <__bss_end__+0x37eb0>
     124:	03060505 	movweq	r0, #25861	; 0x6505
     128:	3905010b 	stmdbcc	r5, {r0, r1, r3, r8}
     12c:	01040200 	mrseq	r0, R12_usr
     130:	000a0501 	andeq	r0, sl, r1, lsl #10
     134:	01010402 	tsteq	r1, r2, lsl #8
     138:	02001805 	andeq	r1, r0, #327680	; 0x50000
     13c:	74030104 	strvc	r0, [r3], #-260	; 0xfffffefc
     140:	00050501 	andeq	r0, r5, r1, lsl #10
     144:	13010402 	movwne	r0, #5122	; 0x1402
     148:	02000c05 	andeq	r0, r0, #1280	; 0x500
     14c:	01060104 	tsteq	r6, r4, lsl #2
     150:	01040200 	mrseq	r0, R12_usr
     154:	0025052e 	eoreq	r0, r5, lr, lsr #10
     158:	03010402 	movweq	r0, #5122	; 0x1402
     15c:	0a05010b 	beq	140590 <__bss_end__+0x136ae8>
     160:	01040200 	mrseq	r0, R12_usr
     164:	0605052e 	streq	r0, [r5], -lr, lsr #10
     168:	0116054d 	tsteq	r6, sp, asr #10
     16c:	01062e01 	tsteq	r6, r1, lsl #28
     170:	13060505 	movwne	r0, #25861	; 0x6505
     174:	a00a0515 	andge	r0, sl, r5, lsl r5
     178:	03060e05 	movweq	r0, #28165	; 0x6e05
     17c:	0c050171 	stfeqs	f0, [r5], {113}	; 0x71
     180:	09052e29 	stmdbeq	r5, {r0, r3, r5, r9, sl, fp, sp}
     184:	01150306 	tsteq	r5, r6, lsl #6
     188:	0318052f 	tsteq	r8, #197132288	; 0xbc00000
     18c:	05050169 	streq	r0, [r5, #-361]	; 0xfffffe97
     190:	030d0513 	movweq	r0, #54547	; 0xd513
     194:	0c050119 	stfeqs	f0, [r5], {25}
     198:	01670306 	cmneq	r7, r6, lsl #6
     19c:	0609052e 	streq	r0, [r9], -lr, lsr #10
     1a0:	05011803 	streq	r1, [r1, #-2051]	; 0xfffff7fd
     1a4:	0513060e 	ldreq	r0, [r3, #-1550]	; 0xfffff9f2
     1a8:	0b052d10 	bleq	14b5f0 <__bss_end__+0x141b48>
     1ac:	4e10052e 	cfmul64mi	mvdx0, mvdx0, mvdx14
     1b0:	2e2c1605 	cfmadda32cs	mvax0, mvax1, mvfx12, mvfx5
     1b4:	05492005 	strbeq	r2, [r9, #-5]
     1b8:	0d052e1a 	stceq	14, cr2, [r5, #-104]	; 0xffffff98
     1bc:	14052f06 	strne	r2, [r5], #-3846	; 0xfffff0fa
     1c0:	0d050106 	stfeqs	f0, [r5, #-24]	; 0xffffffe8
     1c4:	0e052f06 	cdpeq	15, 0, cr2, cr5, cr6, {0}
     1c8:	0d050106 	stfeqs	f0, [r5, #-24]	; 0xffffffe8
     1cc:	09052f06 	stmdbeq	r5, {r1, r2, r8, r9, sl, fp, sp}
     1d0:	030a0516 	movweq	r0, #42262	; 0xa516
     1d4:	0b050174 	bleq	1407ac <__bss_end__+0x136d04>
     1d8:	010c0306 	tsteq	ip, r6, lsl #6
     1dc:	74030a05 	strvc	r0, [r3], #-2565	; 0xfffff5fb
     1e0:	0301054a 	movweq	r0, #5450	; 0x154a
     1e4:	052e4a12 	streq	r4, [lr, #-2578]!	; 0xfffff5ee
     1e8:	0629060d 	strteq	r0, [r9], -sp, lsl #12
     1ec:	052f062e 	streq	r0, [pc, #-1582]!	; fffffbc6 <__bss_end__+0xffff611e>
     1f0:	05160601 	ldreq	r0, [r6, #-1537]	; 0xfffff9ff
     1f4:	05f40614 	ldrbeq	r0, [r4, #1556]!	; 0x614
     1f8:	14051305 	strne	r1, [r5], #-773	; 0xfffffcfb
     1fc:	05051106 	streq	r1, [r5, #-262]	; 0xfffffefa
     200:	1331064b 	teqne	r1, #78643200	; 0x4b00000
     204:	4a01014d 	bmi	40740 <__bss_end__+0x36c98>
     208:	09051614 	stmdbeq	r5, {r2, r4, r9, sl, ip}
     20c:	01140501 	tsteq	r4, r1, lsl #10
     210:	03060505 	movweq	r0, #25861	; 0x6505
     214:	0c05017a 	stfeqs	f0, [r5], {122}	; 0x7a
     218:	042e5003 	strteq	r5, [lr], #-3
     21c:	30090502 	andcc	r0, r9, r2, lsl #10
     220:	0601042e 	streq	r0, [r1], -lr, lsr #8
     224:	06013503 	streq	r3, [r1], -r3, lsl #10
     228:	05030401 	streq	r0, [r3, #-1025]	; 0xfffffbff
     22c:	b6030605 	strlt	r0, [r3], -r5, lsl #12
     230:	0101017f 	tsteq	r1, pc, ror r1
     234:	0f0e1301 	svceq	0x000e1301
     238:	0a050104 	beq	140650 <__bss_end__+0x136ba8>
     23c:	05011d03 	streq	r1, [r1, #-3331]	; 0xfffff2fd
     240:	05131305 	ldreq	r1, [r3, #-773]	; 0xfffffcfb
     244:	2e010114 	mcrcs	1, 0, r0, cr1, cr4, {0}
     248:	05050106 	streq	r0, [r5, #-262]	; 0xfffffefa
     24c:	0e051306 	cdpeq	3, 0, cr1, cr5, cr6, {0}
     250:	052e0106 	streq	r0, [lr, #-262]!	; 0xfffffefa
     254:	2e79030c 	cdpcs	3, 7, cr0, cr9, cr12, {0}
     258:	05350e05 	ldreq	r0, [r5, #-3589]!	; 0xfffff1fb
     25c:	052f0605 	streq	r0, [pc, #-1541]!	; fffffc5f <__bss_end__+0xffff61b7>
     260:	01770318 	cmneq	r7, r8, lsl r3
     264:	06130505 	ldreq	r0, [r3], -r5, lsl #10
     268:	0b030601 	bleq	c1a74 <__bss_end__+0xb7fcc>
     26c:	01390501 	teqeq	r9, r1, lsl #10
     270:	05010a05 	streq	r0, [r1, #-2565]	; 0xfffff5fb
     274:	01740318 	cmneq	r4, r8, lsl r3
     278:	05130505 	ldreq	r0, [r3, #-1285]	; 0xfffffafb
     27c:	2e01060c 	cfmadd32cs	mvax0, mvfx0, mvfx1, mvfx12
     280:	0b032505 	bleq	c969c <__bss_end__+0xbfbf4>
     284:	2e0a0501 	cfsh32cs	mvfx0, mvfx10, #1
     288:	4d060505 	cfstr32mi	mvfx0, [r6, #-20]	; 0xffffffec
     28c:	01011605 	tsteq	r1, r5, lsl #12
     290:	0501062e 	streq	r0, [r1, #-1582]	; 0xfffff9d2
     294:	15130605 	ldrne	r0, [r3, #-1541]	; 0xfffff9fb
     298:	05840a05 	streq	r0, [r4, #2565]	; 0xa05
     29c:	7103060e 	tstvc	r3, lr, lsl #12
     2a0:	06090501 	streq	r0, [r9], -r1, lsl #10
     2a4:	2f2e1003 	svccs	0x002e1003
     2a8:	69031805 	stmdbvs	r3, {r0, r2, fp, ip}
     2ac:	13050501 	movwne	r0, #21761	; 0x5501
     2b0:	01060c05 	tsteq	r6, r5, lsl #24
     2b4:	0609052e 	streq	r0, [r9], -lr, lsr #10
     2b8:	05011803 	streq	r1, [r1, #-2051]	; 0xfffff7fd
     2bc:	05010610 	streq	r0, [r1, #-1552]	; 0xfffff9f0
     2c0:	0d052e0b 	stceq	14, cr2, [r5, #-44]	; 0xffffffd4
     2c4:	10054b06 	andne	r4, r5, r6, lsl #22
     2c8:	0e051506 	cfsh32eq	mvfx1, mvfx5, #6
     2cc:	2f16052b 	svccs	0x0016052b
     2d0:	052d0e05 	streq	r0, [sp, #-3589]!	; 0xfffff1fb
     2d4:	20052f16 	andcs	r2, r5, r6, lsl pc
     2d8:	2e1a052d 	cfmul64cs	mvdx0, mvdx10, mvdx13
     2dc:	2f060d05 	svccs	0x00060d05
     2e0:	01061605 	tsteq	r6, r5, lsl #12
     2e4:	2e2e1405 	cdpcs	4, 2, cr1, cr14, cr5, {0}
     2e8:	2f060d05 	svccs	0x00060d05
     2ec:	01060e05 	tsteq	r6, r5, lsl #28
     2f0:	2f060d05 	svccs	0x00060d05
     2f4:	05160905 	ldreq	r0, [r6, #-2309]	; 0xfffff6fb
     2f8:	0501060b 	streq	r0, [r1, #-1547]	; 0xfffff9f5
     2fc:	7403060a 	strvc	r0, [r3], #-1546	; 0xfffff9f6
     300:	044a064a 	strbeq	r0, [sl], #-1610	; 0xfffff9b6
     304:	06050502 	streq	r0, [r5], -r2, lsl #10
     308:	67016203 	strvs	r6, [r1, -r3, lsl #4]
     30c:	05010905 	streq	r0, [r1, #-2309]	; 0xfffff6fb
     310:	19050114 	stmdbne	r5, {r2, r4, r8}
     314:	052e0106 	streq	r0, [lr, #-262]!	; 0xfffffefa
     318:	2e770317 	mrccs	3, 3, r0, cr7, cr7, {0}
     31c:	09030d05 	stmdbeq	r3, {r0, r2, r8, sl, fp}
     320:	030e052e 	movweq	r0, #58670	; 0xe52e
     324:	19052e79 	stmdbne	r5, {r0, r3, r4, r5, r6, r9, sl, fp, sp}
     328:	06090551 			; <UNDEFINED> instruction: 0x06090551
     32c:	1205142f 	andne	r1, r5, #788529152	; 0x2f000000
     330:	052e2e06 	streq	r2, [lr, #-3590]!	; 0xfffff1fa
     334:	054b0609 	strbeq	r0, [fp, #-1545]	; 0xfffff9f7
     338:	0532062e 	ldreq	r0, [r2, #-1582]!	; 0xfffff9d2
     33c:	11056523 	tstne	r5, r3, lsr #10
     340:	30090530 	andcc	r0, r9, r0, lsr r5
     344:	0e059e2e 	cdpeq	14, 0, cr9, cr5, cr14, {1}
     348:	054a7903 	strbeq	r7, [sl, #-2307]	; 0xfffff6fd
     34c:	142f0609 	strtne	r0, [pc], #-1545	; 354 <__code_start__-0x7cac>
     350:	06141313 			; <UNDEFINED> instruction: 0x06141313
     354:	061d052e 	ldreq	r0, [sp], -lr, lsr #10
     358:	05017503 	streq	r7, [r1, #-1283]	; 0xfffffafd
     35c:	05050114 	streq	r0, [r5, #-276]	; 0xfffffeec
     360:	09052e06 	stmdbeq	r5, {r1, r2, r9, sl, fp, sp}
     364:	054a0b03 	strbeq	r0, [sl, #-2819]	; 0xfffff4fd
     368:	2e750305 	cdpcs	3, 7, cr0, cr5, cr5, {0}
     36c:	0d03062e 	stceq	6, cr0, [r3, #-184]	; 0xffffff48
     370:	01066701 	tsteq	r6, r1, lsl #14
     374:	1b050104 	blne	14078c <__bss_end__+0x136ce4>
     378:	01310306 	teqeq	r1, r6, lsl #6
     37c:	05011405 	streq	r1, [r1, #-1029]	; 0xfffffbfb
     380:	06010605 	streq	r0, [r1], -r5, lsl #12
     384:	030d054e 	movweq	r0, #54606	; 0xd54e
     388:	2e062e67 	cdpcs	14, 0, cr2, cr6, cr7, {3}
     38c:	01062f06 	tsteq	r6, r6, lsl #30
     390:	03060905 	movweq	r0, #26885	; 0x6905
     394:	02040116 	andeq	r0, r4, #-2147483643	; 0x80000005
     398:	b5031805 	strlt	r1, [r3, #-2053]	; 0xfffff7fb
     39c:	0505017f 	streq	r0, [r5, #-383]	; 0xfffffe81
     3a0:	05131413 	ldreq	r1, [r3, #-1043]	; 0xfffffbed
     3a4:	05010608 	streq	r0, [r1, #-1544]	; 0xfffff9f8
     3a8:	4b4b0609 	blmi	12c1bd4 <__bss_end__+0x12b812c>
     3ac:	01061005 	tsteq	r6, r5
     3b0:	31060505 	tstcc	r6, r5, lsl #10
     3b4:	01090567 	tsteq	r9, r7, ror #10
     3b8:	05011405 	streq	r1, [r1, #-1029]	; 0xfffffbfb
     3bc:	2e010605 	cfmadd32cs	mvax0, mvfx0, mvfx1, mvfx5
     3c0:	01001202 	tsteq	r0, r2, lsl #4
     3c4:	00025c01 	andeq	r5, r2, r1, lsl #24
     3c8:	a7000300 	strge	r0, [r0, -r0, lsl #6]
     3cc:	02000000 	andeq	r0, r0, #0, 0
     3d0:	0d0efb01 	vstreq	d15, [lr, #-4]
     3d4:	01010100 	mrseq	r0, (UNDEF: 17)
     3d8:	00000001 	andeq	r0, r0, r1
     3dc:	01000001 	tsteq	r0, r1
     3e0:	72732f2e 	rsbsvc	r2, r3, #184	; 0xb8
     3e4:	412f0063 			; <UNDEFINED> instruction: 0x412f0063
     3e8:	696c7070 	stmdbvs	ip!, {r4, r5, r6, ip, sp, lr}^
     3ec:	69746163 	ldmdbvs	r4!, {r0, r1, r5, r6, r8, sp, lr}^
     3f0:	2f736e6f 	svccs	0x00736e6f
     3f4:	2f4d5241 	svccs	0x004d5241
     3f8:	2f62696c 	svccs	0x0062696c
     3fc:	2f636367 	svccs	0x00636367
     400:	2d6d7261 	sfmcs	f7, 2, [sp, #-388]!	; 0xfffffe7c
     404:	656e6f6e 	strbvs	r6, [lr, #-3950]!	; 0xfffff092
     408:	6261652d 	rsbvs	r6, r1, #188743680	; 0xb400000
     40c:	31312f69 	teqcc	r1, r9, ror #30
     410:	312e322e 			; <UNDEFINED> instruction: 0x312e322e
     414:	636e692f 	cmnvs	lr, #770048	; 0xbc000
     418:	6564756c 	strbvs	r7, [r4, #-1388]!	; 0xfffffa94
     41c:	73552f00 	cmpvc	r5, #0, 30
     420:	2f737265 	svccs	0x00737265
     424:	656c696d 	strbvs	r6, [ip, #-2413]!	; 0xfffff693
     428:	6f532f73 	svcvs	0x00532f73
     42c:	65637275 	strbvs	r7, [r3, #-629]!	; 0xfffffd8b
     430:	3273632f 	rsbscc	r6, r3, #-1140850688	; 0xbc000000
     434:	786c3034 	stmdavc	ip!, {r2, r4, r5, ip, sp}^
     438:	62696c2f 	rsbvs	r6, r9, #12032	; 0x2f00
     43c:	692f6970 	stmdbvs	pc!, {r4, r5, r6, r8, fp, sp, lr}	; <UNPREDICTABLE>
     440:	756c636e 	strbvc	r6, [ip, #-878]!	; 0xfffffc92
     444:	00006564 	andeq	r6, r0, r4, ror #10
     448:	6f697067 	svcvs	0x00697067
     44c:	0100632e 	tsteq	r0, lr, lsr #6
     450:	74730000 	ldrbtvc	r0, [r3], #-0
     454:	746e6964 	strbtvc	r6, [lr], #-2404	; 0xfffff69c
     458:	6363672d 	cmnvs	r3, #11796480	; 0xb40000
     45c:	0200682e 	andeq	r6, r0, #3014656	; 0x2e0000
     460:	70670000 	rsbvc	r0, r7, r0
     464:	682e6f69 	stmdavs	lr!, {r0, r3, r5, r6, r8, r9, sl, fp, sp, lr}
     468:	00000300 	andeq	r0, r0, r0, lsl #6
     46c:	2e697072 	mcrcs	0, 3, r7, cr9, cr2, {3}
     470:	00030068 	andeq	r0, r3, r8, rrx
     474:	38050000 	stmdacc	r5, {}	; <UNPREDICTABLE>
     478:	a8020500 	stmdage	r2, {r8, sl}
     47c:	03000082 	movweq	r0, #130	; 0x82
     480:	05050127 	streq	r0, [r5, #-295]	; 0xfffffed9
     484:	06070513 			; <UNDEFINED> instruction: 0x06070513
     488:	06060501 	streq	r0, [r6], -r1, lsl #10
     48c:	15050549 	strne	r0, [r5, #-1353]	; 0xfffffab7
     490:	01060705 	tsteq	r6, r5, lsl #14
     494:	052b3805 	streq	r3, [fp, #-2053]!	; 0xfffff7fb
     498:	05054d07 	streq	r4, [r5, #-3335]	; 0xfffff2f9
     49c:	18053006 	stmdane	r5, {r1, r2, ip, sp}
     4a0:	1c050106 	stfnes	f0, [r5], {6}
     4a4:	4a0e0567 	bmi	381a48 <__bss_end__+0x377fa0>
     4a8:	052d1805 	streq	r1, [sp, #-2053]!	; 0xfffff7fb
     4ac:	2f2e4d12 	svccs	0x002e4d12
     4b0:	2b0e052d 	blcs	38196c <__bss_end__+0x377ec4>
     4b4:	2f060505 	svccs	0x00060505
     4b8:	07051314 	smladeq	r5, r4, r3, r1
     4bc:	05050106 	streq	r0, [r5, #-262]	; 0xfffffefa
     4c0:	06132f06 	ldreq	r2, [r3], -r6, lsl #30
     4c4:	1301054a 	movwne	r0, #5450	; 0x154a
     4c8:	2e2d0505 	cfsh64cs	mvdx0, mvdx13, #5
     4cc:	00062405 	andeq	r2, r6, r5, lsl #8
     4d0:	830c0205 	movwhi	r0, #49669	; 0xc205
     4d4:	05150000 	ldreq	r0, [r5, #-0]
     4d8:	06051305 	streq	r1, [r5], -r5, lsl #6
     4dc:	05017103 	streq	r7, [r1, #-259]	; 0xfffffefd
     4e0:	07051305 	streq	r1, [r5, -r5, lsl #6]
     4e4:	06050106 	streq	r0, [r5], -r6, lsl #2
     4e8:	05054906 	streq	r4, [r5, #-2310]	; 0xfffff6fa
     4ec:	18051415 	stmdane	r5, {r0, r2, r4, sl, ip}
     4f0:	24050106 	strcs	r0, [r5], #-262	; 0xfffffefa
     4f4:	052e0903 	streq	r0, [lr, #-2307]!	; 0xfffff6fd
     4f8:	2e770318 	mrccs	3, 3, r0, cr7, cr8, {0}
     4fc:	054b1c05 	strbeq	r1, [fp, #-3077]	; 0xfffff3fb
     500:	18054a0e 	stmdane	r5, {r1, r2, r3, r9, fp, lr}
     504:	4d12052d 	cfldr32mi	mvfx0, [r2, #-180]	; 0xffffff4c
     508:	052d2f2e 	streq	r2, [sp, #-3886]!	; 0xfffff0d2
     50c:	0e05300f 	cdpeq	0, 0, cr3, cr5, cr15, {0}
     510:	06050529 	streq	r0, [r5], -r9, lsr #10
     514:	0513142f 	ldreq	r1, [r3, #-1071]	; 0xfffffbd1
     518:	05010607 	streq	r0, [r1, #-1543]	; 0xfffff9f9
     51c:	132f0605 			; <UNDEFINED> instruction: 0x132f0605
     520:	01054a06 	tsteq	r5, r6, lsl #20
     524:	29050517 	stmdbcs	r5, {r0, r1, r2, r4, r8, sl}
     528:	0627052e 	strteq	r0, [r7], -lr, lsr #10
     52c:	68020500 	stmdavs	r2, {r8, sl}
     530:	1a000083 	bne	744 <__code_start__-0x78bc>
     534:	05130505 	ldreq	r0, [r3, #-1285]	; 0xfffffafb
     538:	05110627 	ldreq	r0, [r1, #-1575]	; 0xfffff9d9
     53c:	05052f18 	streq	r2, [r5, #-3864]	; 0xfffff0e8
     540:	054a2e2e 	strbeq	r2, [sl, #-3630]	; 0xfffff1d2
     544:	05000628 	streq	r0, [r0, #-1576]	; 0xfffff9d8
     548:	00838002 	addeq	r8, r3, r2
     54c:	05051600 	streq	r1, [r5, #-1536]	; 0xfffffa00
     550:	06280513 			; <UNDEFINED> instruction: 0x06280513
     554:	2f180511 	svccs	0x00180511
     558:	2e2e0505 	cfsh64cs	mvdx0, mvdx14, #5
     55c:	0623054a 	strteq	r0, [r3], -sl, asr #10
     560:	98020500 	stmdals	r2, {r8, sl}
     564:	16000083 	strne	r0, [r0], -r3, lsl #1
     568:	05130505 	ldreq	r0, [r3, #-1285]	; 0xfffffafb
     56c:	01620306 	cmneq	r2, r6, lsl #6
     570:	05130505 	ldreq	r0, [r3, #-1285]	; 0xfffffafb
     574:	05010607 	streq	r0, [r1, #-1543]	; 0xfffff9f9
     578:	05490606 	strbeq	r0, [r9, #-1542]	; 0xfffff9fa
     57c:	13141505 	tstne	r4, #20971520	; 0x1400000
     580:	03062305 	movweq	r2, #25349	; 0x6305
     584:	22050117 	andcs	r0, r5, #-1073741819	; 0xc0000005
     588:	052e6903 	streq	r6, [lr, #-2307]!	; 0xfffff6fd
     58c:	052e821c 	streq	r8, [lr, #-540]!	; 0xfffffde4
     590:	05052e0e 	streq	r2, [r5, #-3598]	; 0xfffff1f2
     594:	12053006 	andne	r3, r5, #6, 0
     598:	2d4b0106 	stfcse	f0, [fp, #-24]	; 0xffffffe8
     59c:	2f060505 	svccs	0x00060505
     5a0:	18051313 	stmdane	r5, {r0, r1, r4, r8, r9, ip}
     5a4:	017a0306 	cmneq	sl, r6, lsl #6
     5a8:	054a0e05 	strbeq	r0, [sl, #-3589]	; 0xfffff1fb
     5ac:	052e3405 	streq	r3, [lr, #-1029]!	; 0xfffffbfb
     5b0:	2e140301 	cdpcs	3, 1, cr0, cr4, cr1, {0}
     5b4:	6c030505 	cfstr32vs	mvfx0, [r3], {5}
     5b8:	2b052e2e 	blcs	14be78 <__bss_end__+0x1423d0>
     5bc:	02050006 	andeq	r0, r5, #6, 0
     5c0:	000083f0 	strdeq	r8, [r0], -r0
     5c4:	05011703 	streq	r1, [r1, #-1795]	; 0xfffff8fd
     5c8:	07051305 	streq	r1, [r5, -r5, lsl #6]
     5cc:	18050106 	stmdane	r5, {r1, r2, r8}
     5d0:	052e7103 	streq	r7, [lr, #-259]!	; 0xfffffefd
     5d4:	2e0e032b 	cdpcs	3, 0, cr0, cr14, cr11, {1}
     5d8:	052f0705 	streq	r0, [pc, #-1797]!	; fffffedb <__bss_end__+0xffff6433>
     5dc:	052f0609 	streq	r0, [pc, #-1545]!	; ffffffdb <__bss_end__+0xffff6533>
     5e0:	016f030d 	cmneq	pc, sp, lsl #6
     5e4:	06130505 	ldreq	r0, [r3], -r5, lsl #10
     5e8:	052e2e2e 	streq	r2, [lr, #-3630]!	; 0xfffff1d2
     5ec:	12030609 	andne	r0, r3, #9437184	; 0x900000
     5f0:	030d0501 	movweq	r0, #54529	; 0xd501
     5f4:	05050172 	streq	r0, [r5, #-370]	; 0xfffffe8e
     5f8:	2e2e0613 	mcrcs	6, 1, r0, cr14, cr3, {0}
     5fc:	03061d05 	movweq	r1, #27909	; 0x6d05
     600:	05056610 	streq	r6, [r5, #-1552]	; 0xfffff9f0
     604:	060e0513 			; <UNDEFINED> instruction: 0x060e0513
     608:	2d1d0501 	cfldr32cs	mvfx0, [sp, #-4]
     60c:	0605052e 	streq	r0, [r5], -lr, lsr #10
     610:	17051330 	smladxne	r5, r0, r3, r1
     614:	052e0106 	streq	r0, [lr, #-262]!	; 0xfffffefa
     618:	23052d0e 	movwcs	r2, #23822	; 0x5d0e
     61c:	2f01052f 	svccs	0x0001052f
     620:	01000602 	tsteq	r0, r2, lsl #12
     624:	00012001 	andeq	r2, r1, r1
     628:	db000300 	blle	1230 <__code_start__-0x6dd0>
     62c:	02000000 	andeq	r0, r0, #0, 0
     630:	0d0efb01 	vstreq	d15, [lr, #-4]
     634:	01010100 	mrseq	r0, (UNDEF: 17)
     638:	00000001 	andeq	r0, r0, r1
     63c:	01000001 	tsteq	r0, r1
     640:	696c2f2e 	stmdbvs	ip!, {r1, r2, r3, r5, r8, r9, sl, fp, sp}^
     644:	2f006362 	svccs	0x00006362
     648:	2f74706f 	svccs	0x0074706f
     64c:	656d6f68 	strbvs	r6, [sp, #-3944]!	; 0xfffff098
     650:	77657262 	strbvc	r7, [r5, -r2, ror #4]!
     654:	6c65432f 	stclvs	3, cr4, [r5], #-188	; 0xffffff44
     658:	2f72616c 	svccs	0x0072616c
     65c:	2d6d7261 	sfmcs	f7, 2, [sp, #-388]!	; 0xfffffe7c
     660:	656e6f6e 	strbvs	r6, [lr, #-3950]!	; 0xfffff092
     664:	6261652d 	rsbvs	r6, r1, #188743680	; 0xb400000
     668:	2f392d69 	svccs	0x00392d69
     66c:	30322d39 	eorscc	r2, r2, r9, lsr sp
     670:	34713931 	ldrbtcc	r3, [r1], #-2353	; 0xfffff6cf
     674:	3173632d 	cmncc	r3, sp, lsr #6
     678:	2f653730 	svccs	0x00653730
     67c:	2f62696c 	svccs	0x0062696c
     680:	2f636367 	svccs	0x00636367
     684:	2d6d7261 	sfmcs	f7, 2, [sp, #-388]!	; 0xfffffe7c
     688:	656e6f6e 	strbvs	r6, [lr, #-3950]!	; 0xfffff092
     68c:	6261652d 	rsbvs	r6, r1, #188743680	; 0xb400000
     690:	2e392f69 	cdpcs	15, 3, cr2, cr9, cr9, {3}
     694:	2f312e32 	svccs	0x00312e32
     698:	6c636e69 	stclvs	14, cr6, [r3], #-420	; 0xfffffe5c
     69c:	00656475 	rsbeq	r6, r5, r5, ror r4
     6a0:	6573552f 	ldrbvs	r5, [r3, #-1327]!	; 0xfffffad1
     6a4:	6d2f7372 	stcvs	3, cr7, [pc, #-456]!	; 4e4 <__code_start__-0x7b1c>
     6a8:	73656c69 	cmnvc	r5, #26880	; 0x6900
     6ac:	756f532f 	strbvc	r5, [pc, #-815]!	; 385 <__code_start__-0x7c7b>
     6b0:	2f656372 	svccs	0x00656372
     6b4:	34327363 	ldrtcc	r7, [r2], #-867	; 0xfffffc9d
     6b8:	2f786c30 	svccs	0x00786c30
     6bc:	7062696c 	rsbvc	r6, r2, ip, ror #18
     6c0:	6e692f69 	cdpvs	15, 6, cr2, cr9, cr9, {3}
     6c4:	64756c63 	ldrbtvs	r6, [r5], #-3171	; 0xfffff39d
     6c8:	70000065 	andvc	r0, r0, r5, rrx
     6cc:	746e6972 	strbtvc	r6, [lr], #-2418	; 0xfffff68e
     6d0:	00632e6b 	rsbeq	r2, r3, fp, ror #28
     6d4:	73000001 	movwvc	r0, #1
     6d8:	72616474 	rsbvc	r6, r1, #116, 8	; 0x74000000
     6dc:	00682e67 	rsbeq	r2, r8, r7, ror #28
     6e0:	72000002 	andvc	r0, r0, #2, 0
     6e4:	682e6970 	stmdavs	lr!, {r4, r5, r6, r8, fp, sp, lr}
     6e8:	00000300 	andeq	r0, r0, r0, lsl #6
     6ec:	6975623c 	ldmdbvs	r5!, {r2, r3, r4, r5, r9, sp, lr}^
     6f0:	692d746c 	pushvs	{r2, r3, r5, r6, sl, ip, sp, lr}
     6f4:	00003e6e 	andeq	r3, r0, lr, ror #28
     6f8:	61760000 	cmnvs	r6, r0
     6fc:	6972702d 	ldmdbvs	r2!, {r0, r2, r3, r5, ip, sp, lr}^
     700:	2e6b746e 	cdpcs	4, 6, cr7, cr11, cr14, {3}
     704:	00010068 	andeq	r0, r1, r8, rrx
     708:	22050000 	andcs	r0, r5, #0, 0
     70c:	48020500 	stmdami	r2, {r8, sl}
     710:	17000084 	strne	r0, [r0, -r4, lsl #1]
     714:	13140505 	tstne	r4, #20971520	; 0x1400000
     718:	06220514 			; <UNDEFINED> instruction: 0x06220514
     71c:	5012050d 	andspl	r0, r2, sp, lsl #10
     720:	7a032205 	bvc	c8f3c <__bss_end__+0xbf494>
     724:	3305052e 	movwcc	r0, #21806	; 0x552e
     728:	052f1205 	streq	r1, [pc, #-517]!	; 52b <__code_start__-0x7ad5>
     72c:	09056505 	stmdbeq	r5, {r0, r2, r8, sl, sp, lr}
     730:	12052f06 	andne	r2, r5, #6, 30
     734:	05050106 	streq	r0, [r5, #-262]	; 0xfffffefa
     738:	06164b06 	ldreq	r4, [r6], -r6, lsl #22
     73c:	0550064a 	ldrbeq	r0, [r0, #-1610]	; 0xfffff9b6
     740:	66130601 	ldrvs	r0, [r3], -r1, lsl #12
     744:	01000802 	tsteq	r0, r2, lsl #16
     748:	0000a001 	andeq	sl, r0, r1
     74c:	57000300 	strpl	r0, [r0, -r0, lsl #6]
     750:	02000000 	andeq	r0, r0, #0, 0
     754:	0d0efb01 	vstreq	d15, [lr, #-4]
     758:	01010100 	mrseq	r0, (UNDEF: 17)
     75c:	00000001 	andeq	r0, r0, r1
     760:	01000001 	tsteq	r0, r1
     764:	696c2f2e 	stmdbvs	ip!, {r1, r2, r3, r5, r8, r9, sl, fp, sp}^
     768:	2f006362 	svccs	0x00006362
     76c:	72657355 	rsbvc	r7, r5, #1409286145	; 0x54000001
     770:	696d2f73 	stmdbvs	sp!, {r0, r1, r4, r5, r6, r8, r9, sl, fp, sp}^
     774:	2f73656c 	svccs	0x0073656c
     778:	72756f53 	rsbsvc	r6, r5, #332	; 0x14c
     77c:	632f6563 			; <UNDEFINED> instruction: 0x632f6563
     780:	30343273 	eorscc	r3, r4, r3, ror r2
     784:	6c2f786c 	stcvs	8, cr7, [pc], #-432	; 5dc <__code_start__-0x7a24>
     788:	69706269 	ldmdbvs	r0!, {r0, r3, r5, r6, r9, sp, lr}^
     78c:	636e692f 	cmnvs	lr, #770048	; 0xbc000
     790:	6564756c 	strbvs	r7, [r4, #-1388]!	; 0xfffffa94
     794:	75700000 	ldrbvc	r0, [r0, #-0]!
     798:	632e6b74 			; <UNDEFINED> instruction: 0x632e6b74
     79c:	00000100 	andeq	r0, r0, r0, lsl #2
     7a0:	2e697072 	mcrcs	0, 3, r7, cr9, cr2, {3}
     7a4:	00020068 	andeq	r0, r2, r8, rrx
     7a8:	22050000 	andcs	r0, r5, #0, 0
     7ac:	a0020500 	andge	r0, r2, r0, lsl #10
     7b0:	15000084 	strne	r0, [r0, #-132]	; 0xffffff7c
     7b4:	05130505 	ldreq	r0, [r3, #-1285]	; 0xfffffafb
     7b8:	2e110622 	cfmsub32cs	mvax1, mvfx0, mvfx1, mvfx2
     7bc:	2f060b05 	svccs	0x00060b05
     7c0:	2e060505 	cfsh32cs	mvfx0, mvfx6, #5
     7c4:	02000905 	andeq	r0, r0, #81920	; 0x14000
     7c8:	67060204 	strvs	r0, [r6, -r4, lsl #4]
     7cc:	02000f05 	andeq	r0, r0, #5, 30
     7d0:	05490204 	strbeq	r0, [r9, #-516]	; 0xfffffdfc
     7d4:	0402000b 	streq	r0, [r2], #-11
     7d8:	05050102 	streq	r0, [r5, #-258]	; 0xfffffefe
     7dc:	02040200 	andeq	r0, r4, #0, 4
     7e0:	4e062e06 	cdpmi	14, 0, cr2, cr6, cr6, {0}
     7e4:	13060105 	movwne	r0, #24837	; 0x6105
     7e8:	01000602 	tsteq	r0, r2, lsl #12
     7ec:	0008fa01 	andeq	pc, r8, r1, lsl #20
     7f0:	f1000300 			; <UNDEFINED> instruction: 0xf1000300
     7f4:	02000000 	andeq	r0, r0, #0, 0
     7f8:	0d0efb01 	vstreq	d15, [lr, #-4]
     7fc:	01010100 	mrseq	r0, (UNDEF: 17)
     800:	00000001 	andeq	r0, r0, r1
     804:	01000001 	tsteq	r0, r1
     808:	696c2f2e 	stmdbvs	ip!, {r1, r2, r3, r5, r8, r9, sl, fp, sp}^
     80c:	2f006362 	svccs	0x00006362
     810:	2f74706f 	svccs	0x0074706f
     814:	656d6f68 	strbvs	r6, [sp, #-3944]!	; 0xfffff098
     818:	77657262 	strbvc	r7, [r5, -r2, ror #4]!
     81c:	6c65432f 	stclvs	3, cr4, [r5], #-188	; 0xffffff44
     820:	2f72616c 	svccs	0x0072616c
     824:	2d6d7261 	sfmcs	f7, 2, [sp, #-388]!	; 0xfffffe7c
     828:	656e6f6e 	strbvs	r6, [lr, #-3950]!	; 0xfffff092
     82c:	6261652d 	rsbvs	r6, r1, #188743680	; 0xb400000
     830:	2f392d69 	svccs	0x00392d69
     834:	30322d39 	eorscc	r2, r2, r9, lsr sp
     838:	34713931 	ldrbtcc	r3, [r1], #-2353	; 0xfffff6cf
     83c:	3173632d 	cmncc	r3, sp, lsr #6
     840:	2f653730 	svccs	0x00653730
     844:	2f62696c 	svccs	0x0062696c
     848:	2f636367 	svccs	0x00636367
     84c:	2d6d7261 	sfmcs	f7, 2, [sp, #-388]!	; 0xfffffe7c
     850:	656e6f6e 	strbvs	r6, [lr, #-3950]!	; 0xfffff092
     854:	6261652d 	rsbvs	r6, r1, #188743680	; 0xb400000
     858:	2e392f69 	cdpcs	15, 3, cr2, cr9, cr9, {3}
     85c:	2f312e32 	svccs	0x00312e32
     860:	6c636e69 	stclvs	14, cr6, [r3], #-420	; 0xfffffe5c
     864:	00656475 	rsbeq	r6, r5, r5, ror r4
     868:	6573552f 	ldrbvs	r5, [r3, #-1327]!	; 0xfffffad1
     86c:	6d2f7372 	stcvs	3, cr7, [pc, #-456]!	; 6ac <__code_start__-0x7954>
     870:	73656c69 	cmnvc	r5, #26880	; 0x6900
     874:	756f532f 	strbvc	r5, [pc, #-815]!	; 54d <__code_start__-0x7ab3>
     878:	2f656372 	svccs	0x00656372
     87c:	34327363 	ldrtcc	r7, [r2], #-867	; 0xfffffc9d
     880:	2f786c30 	svccs	0x00786c30
     884:	7062696c 	rsbvc	r6, r2, ip, ror #18
     888:	6e692f69 	cdpvs	15, 6, cr2, cr9, cr9, {3}
     88c:	64756c63 	ldrbtvs	r6, [r5], #-3171	; 0xfffff39d
     890:	76000065 	strvc	r0, [r0], -r5, rrx
     894:	72702d61 	rsbsvc	r2, r0, #6208	; 0x1840
     898:	6b746e69 	blvs	1d1c244 <__bss_end__+0x1d1279c>
     89c:	0100632e 	tsteq	r0, lr, lsr #6
     8a0:	74730000 	ldrbtvc	r0, [r3], #-0
     8a4:	746e6964 	strbtvc	r6, [lr], #-2404	; 0xfffff69c
     8a8:	6363672d 	cmnvs	r3, #11796480	; 0xb40000
     8ac:	0200682e 	andeq	r6, r0, #3014656	; 0x2e0000
     8b0:	70720000 	rsbsvc	r0, r2, r0
     8b4:	00682e69 	rsbeq	r2, r8, r9, ror #28
     8b8:	72000003 	andvc	r0, r0, #3, 0
     8bc:	692d6970 	pushvs	{r4, r5, r6, r8, fp, sp, lr}
     8c0:	7265746e 	rsbvc	r7, r5, #1845493760	; 0x6e000000
     8c4:	2e6c616e 	powcsez	f6, f4, #0.5
     8c8:	00030068 	andeq	r0, r3, r8, rrx
     8cc:	64747300 	ldrbtvs	r7, [r4], #-768	; 0xfffffd00
     8d0:	2e677261 	cdpcs	2, 6, cr7, cr7, cr1, {3}
     8d4:	00020068 	andeq	r0, r2, r8, rrx
     8d8:	75623c00 	strbvc	r3, [r2, #-3072]!	; 0xfffff400
     8dc:	2d746c69 	ldclcs	12, cr6, [r4, #-420]!	; 0xfffffe5c
     8e0:	003e6e69 	eorseq	r6, lr, r9, ror #28
     8e4:	00000000 	andeq	r0, r0, r0
     8e8:	05000105 	streq	r0, [r0, #-261]	; 0xfffffefb
     8ec:	0084d802 	addeq	sp, r4, r2, lsl #16
     8f0:	00c80300 	sbceq	r0, r8, r0, lsl #6
     8f4:	14020501 	strne	r0, [r2], #-1281	; 0xfffffaff
     8f8:	10060105 	andne	r0, r6, r5, lsl #2
     8fc:	05300405 	ldreq	r0, [r0, #-1029]!	; 0xfffffbfb
     900:	054a2c01 	strbeq	r2, [sl, #-3073]	; 0xfffff3ff
     904:	02053004 	andeq	r3, r5, #4, 0
     908:	05133106 	ldreq	r3, [r3, #-262]	; 0xfffffefa
     90c:	052e060b 	streq	r0, [lr, #-1547]!	; 0xfffff9f5
     910:	05300602 	ldreq	r0, [r0, #-1538]!	; 0xfffff9fe
     914:	24020609 	strcs	r0, [r2], #-1545	; 0xfffff9f7
     918:	052e2e0d 	streq	r2, [lr, #-3597]!	; 0xfffff1f3
     91c:	1703060d 	strne	r0, [r3, -sp, lsl #12]
     920:	1311054a 	tstne	r1, #310378496	; 0x12800000
     924:	01062d05 	tsteq	r6, r5, lsl #26
     928:	052e1605 	streq	r1, [lr, #-1541]!	; 0xfffff9fb
     92c:	16052f0d 	strne	r2, [r5], -sp, lsl #30
     930:	0614052d 	ldreq	r0, [r4], -sp, lsr #10
     934:	0617052f 	ldreq	r0, [r7], -pc, lsr #10
     938:	2e0d0501 	cfsh32cs	mvfx0, mvfx13, #1
     93c:	12052f06 	andne	r2, r5, #6, 30
     940:	2f2e0106 	svccs	0x002e0106
     944:	060d052d 	streq	r0, [sp], -sp, lsr #10
     948:	0612052f 	ldreq	r0, [r2], -pc, lsr #10
     94c:	06190501 	ldreq	r0, [r9], -r1, lsl #10
     950:	0304052f 	movweq	r0, #17711	; 0x452f
     954:	05010111 	streq	r0, [r1, #-273]	; 0xfffffeef
     958:	0e051502 	cfsh32eq	mvfx1, mvfx5, #2
     95c:	017fb203 	cmneq	pc, r3, lsl #4
     960:	05130205 	ldreq	r0, [r3, #-517]	; 0xfffffdfb
     964:	05010606 	streq	r0, [r1, #-1542]	; 0xfffff9fa
     968:	05300602 	ldreq	r0, [r0, #-1538]!	; 0xfffff9fe
     96c:	02050108 	andeq	r0, r5, #2
     970:	054a0106 	strbeq	r0, [sl, #-262]	; 0xfffffefa
     974:	05910808 	ldreq	r0, [r1, #2056]	; 0x808
     978:	054a0603 	strbeq	r0, [sl, #-1539]	; 0xfffff9fd
     97c:	05010608 	streq	r0, [r1, #-1544]	; 0xfffff9f8
     980:	052d0615 	streq	r0, [sp, #-1557]!	; 0xfffff9eb
     984:	03050108 	movweq	r0, #20744	; 0x5108
     988:	060805d7 			; <UNDEFINED> instruction: 0x060805d7
     98c:	2d180501 	cfldr32cs	mvfx0, [r8, #-4]
     990:	052e0205 	streq	r0, [lr, #-517]!	; 0xfffffdfb
     994:	15052f08 	strne	r2, [r5, #-3848]	; 0xfffff0f8
     998:	08052d06 	stmdaeq	r5, {r1, r2, r8, sl, fp, sp}
     99c:	06020501 	streq	r0, [r2], -r1, lsl #10
     9a0:	06030501 	streq	r0, [r3], -r1, lsl #10
     9a4:	0618052f 	ldreq	r0, [r8], -pc, lsr #10
     9a8:	2e020511 	mcrcs	5, 0, r0, cr2, cr1, {0}
     9ac:	052f0805 	streq	r0, [pc, #-2053]!	; 1af <__code_start__-0x7e51>
     9b0:	052d0615 	streq	r0, [sp, #-1557]!	; 0xfffff9eb
     9b4:	03050108 	movweq	r0, #20744	; 0x5108
     9b8:	06080513 			; <UNDEFINED> instruction: 0x06080513
     9bc:	06150501 	ldreq	r0, [r5], -r1, lsl #10
     9c0:	0108052d 	tsteq	r8, sp, lsr #10
     9c4:	02050106 	andeq	r0, r5, #-2147483647	; 0x80000001
     9c8:	0505a006 	streq	sl, [r5, #-6]
     9cc:	04050106 	streq	r0, [r5], #-262	; 0xfffffefa
     9d0:	2f110536 	svccs	0x00110536
     9d4:	052e0905 	streq	r0, [lr, #-2309]!	; 0xfffff6fb
     9d8:	05053302 	streq	r3, [r5, #-770]	; 0xfffffcfe
     9dc:	052e7203 	streq	r7, [lr, #-515]!	; 0xfffffdfd
     9e0:	062f0602 	strteq	r0, [pc], -r2, lsl #12
     9e4:	060e0501 	streq	r0, [lr], -r1, lsl #10
     9e8:	14020516 	strne	r0, [r2], #-1302	; 0xfffffaea
     9ec:	13030513 	movwne	r0, #13587	; 0x3513
     9f0:	15140205 	ldrne	r0, [r4, #-517]	; 0xfffffdfb
     9f4:	05010b05 	streq	r0, [r1, #-2821]	; 0xfffff4fb
     9f8:	2e010602 	cfmadd32cs	mvax0, mvfx0, mvfx1, mvfx2
     9fc:	67060305 	strvs	r0, [r6, -r5, lsl #6]
     a00:	01060a05 	tsteq	r6, r5, lsl #20
     a04:	052d0205 	streq	r0, [sp, #-517]!	; 0xfffffdfb
     a08:	17052f0a 	strne	r2, [r5, -sl, lsl #30]
     a0c:	0b052d06 	bleq	14be2c <__bss_end__+0x142384>
     a10:	06020501 	streq	r0, [r2], -r1, lsl #10
     a14:	4c090501 	cfstr32mi	mvfx0, [r9], {1}
     a18:	0602052e 	streq	r0, [r2], -lr, lsr #10
     a1c:	0609052e 	streq	r0, [r9], -lr, lsr #10
     a20:	06020501 	streq	r0, [r2], -r1, lsl #10
     a24:	05010630 	streq	r0, [r1, #-1584]	; 0xfffff9d0
     a28:	01380301 	teqeq	r8, r1, lsl #6
     a2c:	4f030905 	svcmi	0x00030905
     a30:	052e2e4a 	streq	r2, [lr, #-3658]!	; 0xfffff1b6
     a34:	27030619 	smladcs	r3, r9, r6, r0
     a38:	131a054a 	tstne	sl, #310378496	; 0x12800000
     a3c:	01062805 	tsteq	r6, r5, lsl #16
     a40:	052e1f05 	streq	r1, [lr, #-3845]!	; 0xfffff0fb
     a44:	1f052f04 	svcne	0x00052f04
     a48:	060b052d 	streq	r0, [fp], -sp, lsr #10
     a4c:	060e052f 	streq	r0, [lr], -pc, lsr #10
     a50:	2e040501 	cfsh32cs	mvfx0, mvfx4, #1
     a54:	03060205 	movweq	r0, #25093	; 0x6205
     a58:	05134a59 	ldreq	r4, [r3, #-2649]	; 0xfffff5a7
     a5c:	052e060b 	streq	r0, [lr, #-1547]!	; 0xfffff9f5
     a60:	05300602 	ldreq	r0, [r0, #-1538]!	; 0xfffff9fe
     a64:	24020609 	strcs	r0, [r2], #-1545	; 0xfffff9f7
     a68:	0604050d 	streq	r0, [r4], -sp, lsl #10
     a6c:	06051336 			; <UNDEFINED> instruction: 0x06051336
     a70:	05050106 	streq	r0, [r5, #-262]	; 0xfffffefa
     a74:	13136706 	tstne	r3, #1572864	; 0x180000
     a78:	11060905 	tstne	r6, r5, lsl #18
     a7c:	052b0d05 	streq	r0, [fp, #-3333]!	; 0xfffff2fb
     a80:	0d05300b 	stceq	0, cr3, [r5, #-44]	; 0xffffffd4
     a84:	351b052c 	ldrcc	r0, [fp, #-1324]	; 0xfffffad4
     a88:	2d060405 	cfstrscs	mvf0, [r6, #-20]	; 0xffffffec
     a8c:	05130505 	ldreq	r0, [r3, #-1285]	; 0xfffffafb
     a90:	052e061b 	streq	r0, [lr, #-1563]!	; 0xfffff9e5
     a94:	0405820a 	streq	r8, [r5], #-522	; 0xfffffdf6
     a98:	2e0e052f 	cfsh32cs	mvfx0, mvfx14, #31
     a9c:	05490a05 	strbeq	r0, [r9, #-2565]	; 0xfffff5fb
     aa0:	052f060b 	streq	r0, [pc, #-1547]!	; 49d <__code_start__-0x7b63>
     aa4:	06010604 	streq	r0, [r1], -r4, lsl #12
     aa8:	0606052f 	streq	r0, [r6], -pc, lsr #10
     aac:	06050501 	streq	r0, [r5], -r1, lsl #10
     ab0:	060a052f 	streq	r0, [sl], -pc, lsr #10
     ab4:	07052e01 	streq	r2, [r5, -r1, lsl #28]
     ab8:	052e2e2e 	streq	r2, [lr, #-3630]!	; 0xfffff1d2
     abc:	0d030604 	stceq	6, cr0, [r3, #-16]
     ac0:	06020501 	streq	r0, [r2], -r1, lsl #10
     ac4:	05014603 	streq	r4, [r1, #-1539]	; 0xfffff9fd
     ac8:	2e3a0309 	cdpcs	3, 3, cr0, cr10, cr9, {0}
     acc:	2f060405 	svccs	0x00060405
     ad0:	01010d03 	tsteq	r1, r3, lsl #26
     ad4:	05150205 	ldreq	r0, [r5, #-517]	; 0xfffffdfb
     ad8:	7fb2030e 	svcvc	0x00b2030e
     adc:	13020501 	movwne	r0, #9473	; 0x2501
     ae0:	01080514 	tsteq	r8, r4, lsl r5
     ae4:	10060605 	andne	r0, r6, r5, lsl #12
     ae8:	052e3c03 	streq	r3, [lr, #-3075]!	; 0xfffff3fd
     aec:	4a460302 	bmi	11816fc <__bss_end__+0x1177c54>
     af0:	05053006 	streq	r3, [r5, #-6]
     af4:	2e2e0106 	sufcse	f0, f6, f6
     af8:	4b060205 	blmi	181314 <__bss_end__+0x17786c>
     afc:	0e050106 	adfeqs	f0, f5, f6
     b00:	02051606 	andeq	r1, r5, #6291456	; 0x600000
     b04:	15151314 	ldrne	r1, [r5, #-788]	; 0xfffffcec
     b08:	05010b05 	streq	r0, [r1, #-2821]	; 0xfffff4fb
     b0c:	062e0602 	strteq	r0, [lr], -r2, lsl #12
     b10:	06090530 			; <UNDEFINED> instruction: 0x06090530
     b14:	06020501 	streq	r0, [r2], -r1, lsl #10
     b18:	0501064c 	streq	r0, [r1, #-1612]	; 0xfffff9b4
     b1c:	01380301 	teqeq	r8, r1, lsl #6
     b20:	6e030605 	cfmadd32vs	mvax0, mvfx0, mvfx3, mvfx5
     b24:	0302054a 	movweq	r0, #9546	; 0x254a
     b28:	2e4a6646 	cdpcs	6, 4, cr6, cr10, cr6, {2}
     b2c:	03060405 	movweq	r0, #25605	; 0x6405
     b30:	010100c8 	smlabteq	r1, r8, r0, r0
     b34:	2e060101 	adfcss	f0, f6, f1
     b38:	034a0682 	movteq	r0, #42626	; 0xa682
     b3c:	09052e72 	stmdbeq	r5, {r1, r4, r5, r6, r9, sl, fp, sp}
     b40:	04050106 	streq	r0, [r5], #-262	; 0xfffffefa
     b44:	0d032f06 	stceq	15, cr2, [r3, #-24]	; 0xffffffe8
     b48:	02050101 	andeq	r0, r5, #1073741824	; 0x40000000
     b4c:	030e0515 	movweq	r0, #58645	; 0xe515
     b50:	05017fb2 	streq	r7, [r1, #-4018]	; 0xfffff04e
     b54:	05141302 	ldreq	r1, [r4, #-770]	; 0xfffffcfe
     b58:	09050108 	stmdbeq	r5, {r3, r8}
     b5c:	011b0306 	tsteq	fp, r6, lsl #6
     b60:	63030605 	movwvs	r0, #13829	; 0x3605
     b64:	2e3c032e 	cdpcs	3, 3, cr0, cr12, cr14, {1}
     b68:	48052e2e 	stmdami	r5, {r1, r2, r3, r5, r9, sl, fp, sp}
     b6c:	7fb40306 	svcvc	0x00b40306
     b70:	05053c08 	streq	r3, [r5, #-3080]	; 0xfffff3f8
     b74:	2e060113 	mcrcs	1, 0, r0, cr6, cr3, {0}
     b78:	02040200 	andeq	r0, r4, #0, 4
     b7c:	02002e06 	andeq	r2, r0, #96	; 0x60
     b80:	00010204 	andeq	r0, r1, r4, lsl #4
     b84:	13020402 	movwne	r0, #9218	; 0x2402
     b88:	02001105 	andeq	r1, r0, #1073741825	; 0x40000001
     b8c:	01060204 	tsteq	r6, r4, lsl #4
     b90:	02000705 	andeq	r0, r0, #1310720	; 0x140000
     b94:	052f0204 	streq	r0, [pc, #-516]!	; 998 <__code_start__-0x7668>
     b98:	04020011 	streq	r0, [r2], #-17	; 0xffffffef
     b9c:	05052d02 	streq	r2, [r5, #-3330]	; 0xfffff2fe
     ba0:	02040200 	andeq	r0, r4, #0, 4
     ba4:	09052f06 	stmdbeq	r5, {r1, r2, r8, r9, sl, fp, sp}
     ba8:	02040200 	andeq	r0, r4, #0, 4
     bac:	000e0513 	andeq	r0, lr, r3, lsl r5
     bb0:	06020402 	streq	r0, [r2], -r2, lsl #8
     bb4:	00050501 	andeq	r0, r5, r1, lsl #10
     bb8:	06010402 	streq	r0, [r1], -r2, lsl #8
     bbc:	04020063 	streq	r0, [r2], #-99	; 0xffffff9d
     bc0:	48050101 	stmdami	r5, {r0, r8}
     bc4:	01040200 	mrseq	r0, R12_usr
     bc8:	05051106 	streq	r1, [r5, #-262]	; 0xfffffefa
     bcc:	01040200 	mrseq	r0, R12_usr
     bd0:	0048052f 	subeq	r0, r8, pc, lsr #10
     bd4:	2d010402 	cfstrscs	mvf0, [r1, #-8]
     bd8:	02000505 	andeq	r0, r0, #20971520	; 0x1400000
     bdc:	002f0104 	eoreq	r0, pc, r4, lsl #2
     be0:	4a010402 	bmi	41bf0 <__bss_end__+0x38148>
     be4:	01040200 	mrseq	r0, R12_usr
     be8:	0402004a 	streq	r0, [r2], #-74	; 0xffffffb6
     bec:	054a0601 	strbeq	r0, [sl, #-1537]	; 0xfffff9ff
     bf0:	00e10340 	rsceq	r0, r1, r0, asr #6
     bf4:	050106d6 	streq	r0, [r1, #-1750]	; 0xfffff92a
     bf8:	052e4e09 	streq	r4, [lr, #-3593]!	; 0xfffff1f7
     bfc:	1e053008 	cdpne	0, 0, cr3, cr5, cr8, {0}
     c00:	2e120529 	cfmul64cs	mvdx0, mvdx2, mvdx9
     c04:	05330d05 	ldreq	r0, [r3, #-3333]!	; 0xfffff2fb
     c08:	05450602 	strbeq	r0, [r5, #-1538]	; 0xfffff9fe
     c0c:	02051305 	andeq	r1, r5, #335544320	; 0x14000000
     c10:	13050514 	movwne	r0, #21780	; 0x5514
     c14:	05130205 	ldreq	r0, [r3, #-517]	; 0xfffffdfb
     c18:	40050108 	andmi	r0, r5, r8, lsl #2
     c1c:	017a0306 	cmneq	sl, r6, lsl #6
     c20:	340d052e 	strcc	r0, [sp], #-1326	; 0xfffffad2
     c24:	03110566 	tsteq	r1, #427819008	; 0x19800000
     c28:	054a4a20 	strbeq	r4, [sl, #-2592]	; 0xfffff5e0
     c2c:	62030604 	andvs	r0, r3, #4, 12	; 0x400000
     c30:	06090501 	streq	r0, [r9], -r1, lsl #10
     c34:	2e0f0501 	cfsh32cs	mvfx0, mvfx15, #1
     c38:	2c060805 	stccs	8, cr0, [r6], {5}
     c3c:	2e060d05 	cdpcs	13, 0, cr0, cr6, cr5, {0}
     c40:	67060305 	strvs	r0, [r6, -r5, lsl #6]
     c44:	01060505 	tsteq	r6, r5, lsl #10
     c48:	4d060805 	stcmi	8, cr0, [r6, #-20]	; 0xffffffec
     c4c:	01060e05 	tsteq	r6, r5, lsl #28
     c50:	052e0a05 	streq	r0, [lr, #-2565]!	; 0xfffff5fb
     c54:	04052f09 	streq	r2, [r5], #-3849	; 0xfffff0f7
     c58:	07052f06 	streq	r2, [r5, -r6, lsl #30]
     c5c:	0a050106 	beq	14107c <__bss_end__+0x1375d4>
     c60:	0604052c 	streq	r0, [r4], -ip, lsr #10
     c64:	062d0532 			; <UNDEFINED> instruction: 0x062d0532
     c68:	017f9803 	cmneq	pc, r3, lsl #16
     c6c:	ed030905 	vstr.16	s0, [r3, #-10]
     c70:	0d052e00 	stceq	14, cr2, [r5, #-0]
     c74:	2b07052c 	blcs	1c212c <__bss_end__+0x1b8684>
     c78:	30060405 	andcc	r0, r6, r5, lsl #8
     c7c:	09051413 	stmdbeq	r5, {r0, r1, r4, sl, ip}
     c80:	030c0501 	movweq	r0, #50433	; 0xc501
     c84:	05017f93 	streq	r7, [r1, #-3987]	; 0xfffff06d
     c88:	0106011d 	tsteq	r6, sp, lsl r1
     c8c:	ed030905 	vstr.16	s0, [r3, #-10]
     c90:	05050100 	streq	r0, [r5, #-256]	; 0xffffff00
     c94:	12052f06 	andne	r2, r5, #6, 30
     c98:	2d2e0106 	stfcss	f0, [lr, #-24]!	; 0xffffffe8
     c9c:	052f0b05 	streq	r0, [pc, #-2821]!	; 19f <__code_start__-0x7e61>
     ca0:	052f0605 	streq	r0, [pc, #-1541]!	; 6a3 <__code_start__-0x795d>
     ca4:	0c051009 	stceq	0, cr1, [r5], {9}
     ca8:	017f9303 	cmneq	pc, r3, lsl #6
     cac:	05011d05 	streq	r1, [r1, #-3333]	; 0xfffff2fb
     cb0:	0501062d 	streq	r0, [r1, #-1581]	; 0xfffff9d3
     cb4:	00ed0309 	rsceq	r0, sp, r9, lsl #6
     cb8:	0604052e 	streq	r0, [r4], -lr, lsr #10
     cbc:	0200014e 	andeq	r0, r0, #-2147483629	; 0x80000013
     cc0:	004a0204 	subeq	r0, sl, r4, lsl #4
     cc4:	01020402 	tsteq	r2, r2, lsl #8
     cc8:	02040200 	andeq	r0, r4, #0, 4
     ccc:	04020015 	streq	r0, [r2], #-21	; 0xffffffeb
     cd0:	36020602 	strcc	r0, [r2], -r2, lsl #12
     cd4:	04020012 	streq	r0, [r2], #-18	; 0xffffffee
     cd8:	02052e02 	andeq	r2, r5, #2, 28
     cdc:	00d10306 	sbcseq	r0, r1, r6, lsl #6
     ce0:	06070501 	streq	r0, [r7], -r1, lsl #10
     ce4:	02052e01 	andeq	r2, r5, #1, 28
     ce8:	0b052f06 	bleq	14c908 <__bss_end__+0x142e60>
     cec:	01050106 	tsteq	r5, r6, lsl #2
     cf0:	0605052f 	streq	r0, [r5], -pc, lsr #10
     cf4:	054a6503 	strbeq	r6, [sl, #-1283]	; 0xfffffafd
     cf8:	66010609 	strvs	r0, [r1], -r9, lsl #12
     cfc:	9f060505 	svcls	0x00060505
     d00:	11030405 	tstne	r3, r5, lsl #8
     d04:	06070501 	streq	r0, [r7], -r1, lsl #10
     d08:	06040501 	streq	r0, [r4], -r1, lsl #10
     d0c:	010a0531 	tsteq	sl, r1, lsr r5
     d10:	02001305 	andeq	r1, r0, #335544320	; 0x14000000
     d14:	2e060104 	adfcss	f0, f6, f4
     d18:	02001005 	andeq	r1, r0, #5, 0
     d1c:	052e0104 	streq	r0, [lr, #-260]!	; 0xfffffefc
     d20:	054b0605 	strbeq	r0, [fp, #-1541]	; 0xfffff9fb
     d24:	0601060a 	streq	r0, [r1], -sl, lsl #12
     d28:	0604052d 	streq	r0, [r4], -sp, lsr #10
     d2c:	06110501 	ldreq	r0, [r1], -r1, lsl #10
     d30:	667fb603 	ldrbtvs	fp, [pc], -r3, lsl #12
     d34:	02000113 	andeq	r0, r0, #-1073741820	; 0xc0000004
     d38:	ba060204 	blt	181550 <__bss_end__+0x177aa8>
     d3c:	1401ba06 	strne	fp, [r1], #-2566	; 0xfffff5fa
     d40:	13061a05 	movwne	r1, #27141	; 0x6a05
     d44:	11052e2e 	tstne	r5, lr, lsr #28
     d48:	1405674e 	strne	r6, [r5], #-1870	; 0xfffff8b2
     d4c:	82130568 	andshi	r0, r3, #104, 10	; 0x1a000000
     d50:	78031505 	stmdavc	r3, {r0, r2, r8, sl, ip}
     d54:	0611054a 	ldreq	r0, [r1], -sl, asr #10
     d58:	1413134b 	ldrne	r1, [r3], #-843	; 0xfffffcb5
     d5c:	13051413 	movwne	r1, #21523	; 0x5413
     d60:	09050106 	stmdbeq	r5, {r1, r2, r8}
     d64:	0d052f06 	stceq	15, cr2, [r5, #-24]	; 0xffffffe8
     d68:	2e2e0106 	sufcse	f0, f6, f6
     d6c:	05bb0905 	ldreq	r0, [fp, #2309]!	; 0x905
     d70:	09059d0d 	stmdbeq	r5, {r0, r2, r3, r8, sl, fp, ip, pc}
     d74:	15052f06 	strne	r2, [r5, #-3846]	; 0xfffff0fa
     d78:	7503062f 	strvc	r0, [r3, #-1583]	; 0xfffff9d1
     d7c:	2e0b034a 	cdpcs	3, 0, cr0, cr11, cr10, {2}
     d80:	0605054a 	streq	r0, [r5], -sl, asr #10
     d84:	05012303 	streq	r2, [r1, #-771]	; 0xfffffcfd
     d88:	2e010609 	cfmadd32cs	mvax0, mvfx0, mvfx1, mvfx9
     d8c:	d7060505 	strle	r0, [r6, -r5, lsl #10]
     d90:	032e6e03 			; <UNDEFINED> instruction: 0x032e6e03
     d94:	0905010e 	stmdbeq	r5, {r1, r2, r3, r8}
     d98:	05050106 	streq	r0, [r5, #-262]	; 0xfffffefa
     d9c:	4a100306 	bmi	4019bc <__bss_end__+0x3f7f14>
     da0:	ed030105 	stfs	f0, [r3, #-20]	; 0xffffffec
     da4:	0205017e 	andeq	r0, r5, #-2147483617	; 0x8000001f
     da8:	14131514 	ldrne	r1, [r3], #-1300	; 0xfffffaec
     dac:	1a030405 	bne	c1dc8 <__bss_end__+0xb8320>
     db0:	06090501 	streq	r0, [r9], -r1, lsl #10
     db4:	03020501 	movweq	r0, #9473	; 0x2501
     db8:	09052e46 	stmdbeq	r5, {r1, r2, r6, r9, sl, fp, sp}
     dbc:	052e3a03 	streq	r3, [lr, #-2563]!	; 0xfffff5fd
     dc0:	032f0604 			; <UNDEFINED> instruction: 0x032f0604
     dc4:	0501010d 	streq	r0, [r1, #-269]	; 0xfffffef3
     dc8:	0e051502 	cfsh32eq	mvfx1, mvfx5, #2
     dcc:	017fb203 	cmneq	pc, r3, lsl #4
     dd0:	14130205 	ldrne	r0, [r3], #-517	; 0xfffffdfb
     dd4:	05010805 	streq	r0, [r1, #-2053]	; 0xfffff7fb
     dd8:	05010602 	streq	r0, [r1, #-1538]	; 0xfffff9fe
     ddc:	03059f08 	movweq	r9, #24328	; 0x5f08
     de0:	01064a06 	tsteq	r6, r6, lsl #20
     de4:	052e0805 	streq	r0, [lr, #-2053]!	; 0xfffff7fb
     de8:	052d0615 	streq	r0, [sp, #-1557]!	; 0xfffff9eb
     dec:	03050108 	movweq	r0, #20744	; 0x5108
     df0:	0501062f 	streq	r0, [r1, #-1583]	; 0xfffff9d1
     df4:	15052e08 	strne	r2, [r5, #-3592]	; 0xfffff1f8
     df8:	08052d06 	stmdaeq	r5, {r1, r2, r8, sl, fp, sp}
     dfc:	2f030501 	svccs	0x00030501
     e00:	08050106 	stmdaeq	r5, {r1, r2, r8}
     e04:	0615052e 	ldreq	r0, [r5], -lr, lsr #10
     e08:	0108052d 	tsteq	r8, sp, lsr #10
     e0c:	062f0305 	strteq	r0, [pc], -r5, lsl #6
     e10:	2e080501 	cfsh32cs	mvfx0, mvfx8, #1
     e14:	2d061505 	cfstr32cs	mvfx1, [r6, #-20]	; 0xffffffec
     e18:	05010805 	streq	r0, [r1, #-2053]	; 0xfffff7fb
     e1c:	01062f03 	tsteq	r6, r3, lsl #30
     e20:	052e0805 	streq	r0, [lr, #-2053]!	; 0xfffff7fb
     e24:	052d0615 	streq	r0, [sp, #-1557]!	; 0xfffff9eb
     e28:	03050108 	movweq	r0, #20744	; 0x5108
     e2c:	0501062f 	streq	r0, [r1, #-1583]	; 0xfffff9d1
     e30:	15052e08 	strne	r2, [r5, #-3592]	; 0xfffff1f8
     e34:	08052d06 	stmdaeq	r5, {r1, r2, r8, sl, fp, sp}
     e38:	13030501 	movwne	r0, #13569	; 0x3501
     e3c:	01060805 	tsteq	r6, r5, lsl #16
     e40:	2d061505 	cfstr32cs	mvfx1, [r6, #-20]	; 0xffffffec
     e44:	06010805 	streq	r0, [r1], -r5, lsl #16
     e48:	06030566 	streq	r0, [r3], -r6, ror #10
     e4c:	06080567 	streq	r0, [r8], -r7, ror #10
     e50:	2d180501 	cfldr32cs	mvfx0, [r8, #-4]
     e54:	052e0205 	streq	r0, [lr, #-517]!	; 0xfffffdfb
     e58:	15052f08 	strne	r2, [r5, #-3848]	; 0xfffff0f8
     e5c:	08052d06 	stmdaeq	r5, {r1, r2, r8, sl, fp, sp}
     e60:	06020501 	streq	r0, [r2], -r1, lsl #10
     e64:	06030501 	streq	r0, [r3], -r1, lsl #10
     e68:	0618052f 	ldreq	r0, [r8], -pc, lsr #10
     e6c:	2e020511 	mcrcs	5, 0, r0, cr2, cr1, {0}
     e70:	052f0805 	streq	r0, [pc, #-2053]!	; 673 <__code_start__-0x798d>
     e74:	052d0615 	streq	r0, [sp, #-1557]!	; 0xfffff9eb
     e78:	03050108 	movweq	r0, #20744	; 0x5108
     e7c:	06080513 			; <UNDEFINED> instruction: 0x06080513
     e80:	06150501 	ldreq	r0, [r5], -r1, lsl #10
     e84:	0108052d 	tsteq	r8, sp, lsr #10
     e88:	14060505 	strne	r0, [r6], #-1285	; 0xfffffafb
     e8c:	0602054a 	streq	r0, [r2], -sl, asr #10
     e90:	060e052e 	streq	r0, [lr], -lr, lsr #10
     e94:	2f040519 	svccs	0x00040519
     e98:	052f1105 	streq	r1, [pc, #-261]!	; d9b <__code_start__-0x7265>
     e9c:	02054a09 	andeq	r4, r5, #36864	; 0x9000
     ea0:	03050533 	movweq	r0, #21811	; 0x5533
     ea4:	02052e72 	andeq	r2, r5, #1824	; 0x720
     ea8:	01062f06 	tsteq	r6, r6, lsl #30
     eac:	16060e05 	strne	r0, [r6], -r5, lsl #28
     eb0:	13140205 	tstne	r4, #1342177280	; 0x50000000
     eb4:	05130305 	ldreq	r0, [r3, #-773]	; 0xfffffcfb
     eb8:	05151402 	ldreq	r1, [r5, #-1026]	; 0xfffffbfe
     ebc:	0205010b 	andeq	r0, r5, #-1073741822	; 0xc0000002
     ec0:	662e0106 	strtvs	r0, [lr], -r6, lsl #2
     ec4:	2f060305 	svccs	0x00060305
     ec8:	01060a05 	tsteq	r6, r5, lsl #20
     ecc:	052d0205 	streq	r0, [sp, #-517]!	; 0xfffffdfb
     ed0:	17052f0a 	strne	r2, [r5, -sl, lsl #30]
     ed4:	0b052d06 	bleq	14c2f4 <__bss_end__+0x14284c>
     ed8:	06020501 	streq	r0, [r2], -r1, lsl #10
     edc:	054a4a01 	strbeq	r4, [sl, #-2561]	; 0xfffff5ff
     ee0:	95030605 	strls	r0, [r3, #-1541]	; 0xfffff9fb
     ee4:	11050101 	tstne	r5, r1, lsl #2
     ee8:	7ef80306 	cdpvc	3, 15, cr0, cr8, cr6, {0}
     eec:	031b0501 	tsteq	fp, #4194304	; 0x400000
     ef0:	054a0188 	strbeq	r0, [sl, #-392]	; 0xfffffe78
     ef4:	f3030601 	vmax.u8	d0, d3, d1
     ef8:	02052e7e 	andeq	r2, r5, #2016	; 0x7e0
     efc:	14131514 	ldrne	r1, [r3], #-1300	; 0xfffffaec
     f00:	22031905 	andcs	r1, r3, #81920	; 0x14000
     f04:	131a0501 	tstne	sl, #4194304	; 0x400000
     f08:	01062805 	tsteq	r6, r5, lsl #16
     f0c:	052e1f05 	streq	r1, [lr, #-3845]!	; 0xfffff0fb
     f10:	0e052f04 	cdpeq	15, 0, cr2, cr5, cr4, {0}
     f14:	2d1f054a 	cfldr32cs	mvfx0, [pc, #-296]	; df4 <__code_start__-0x720c>
     f18:	2f060b05 	svccs	0x00060b05
     f1c:	01060405 	tsteq	r6, r5, lsl #8
     f20:	05013206 	streq	r3, [r1, #-518]	; 0xfffffdfa
     f24:	0e051502 	cfsh32eq	mvfx1, mvfx5, #2
     f28:	017fb203 	cmneq	pc, r3, lsl #4
     f2c:	05130205 	ldreq	r0, [r3, #-517]	; 0xfffffdfb
     f30:	05010606 	streq	r0, [r1, #-1542]	; 0xfffff9fa
     f34:	05300602 	ldreq	r0, [r0, #-1538]!	; 0xfffff9fe
     f38:	02050108 	andeq	r0, r5, #2
     f3c:	03050106 	movweq	r0, #20742	; 0x5106
     f40:	05210806 	streq	r0, [r1, #-2054]!	; 0xfffff7fa
     f44:	05010608 	streq	r0, [r1, #-1544]	; 0xfffff9f8
     f48:	05490615 	strbeq	r0, [r9, #-1557]	; 0xfffff9eb
     f4c:	03050108 	movweq	r0, #20744	; 0x5108
     f50:	060805d7 			; <UNDEFINED> instruction: 0x060805d7
     f54:	2d180501 	cfldr32cs	mvfx0, [r8, #-4]
     f58:	052e0205 	streq	r0, [lr, #-517]!	; 0xfffffdfb
     f5c:	15052f08 	strne	r2, [r5, #-3848]	; 0xfffff0f8
     f60:	08052d06 	stmdaeq	r5, {r1, r2, r8, sl, fp, sp}
     f64:	06020501 	streq	r0, [r2], -r1, lsl #10
     f68:	06030501 	streq	r0, [r3], -r1, lsl #10
     f6c:	0618052f 	ldreq	r0, [r8], -pc, lsr #10
     f70:	2e020511 	mcrcs	5, 0, r0, cr2, cr1, {0}
     f74:	052f0805 	streq	r0, [pc, #-2053]!	; 777 <__code_start__-0x7889>
     f78:	052d0615 	streq	r0, [sp, #-1557]!	; 0xfffff9eb
     f7c:	03050108 	movweq	r0, #20744	; 0x5108
     f80:	06080513 			; <UNDEFINED> instruction: 0x06080513
     f84:	06150501 	ldreq	r0, [r5], -r1, lsl #10
     f88:	0108052d 	tsteq	r8, sp, lsr #10
     f8c:	14060505 	strne	r0, [r6], #-1285	; 0xfffffafb
     f90:	66060205 	strvs	r0, [r6], -r5, lsl #4
     f94:	1a060405 	bne	181fb0 <__bss_end__+0x178508>
     f98:	78030505 	stmdavc	r3, {r0, r2, r8, sl}
     f9c:	0602054a 	streq	r0, [r2], -sl, asr #10
     fa0:	0501062f 	streq	r0, [r1, #-1583]	; 0xfffff9d1
     fa4:	0516060e 	ldreq	r0, [r6, #-1550]	; 0xfffff9f2
     fa8:	05131402 	ldreq	r1, [r3, #-1026]	; 0xfffffbfe
     fac:	05010604 	streq	r0, [r1, #-1540]	; 0xfffff9fc
     fb0:	052f0603 	streq	r0, [pc, #-1539]!	; 9b5 <__code_start__-0x764b>
     fb4:	05010611 	streq	r0, [r1, #-1553]	; 0xfffff9ef
     fb8:	02052e09 	andeq	r2, r5, #144	; 0x90
     fbc:	05153006 	ldreq	r3, [r5, #-6]
     fc0:	0205010b 	andeq	r0, r5, #-1073741822	; 0xc0000002
     fc4:	4a4a0106 	bmi	12813e4 <__bss_end__+0x127793c>
     fc8:	0603052e 	streq	r0, [r3], -lr, lsr #10
     fcc:	060a052f 	streq	r0, [sl], -pc, lsr #10
     fd0:	2d020501 	cfstr32cs	mvfx0, [r2, #-4]
     fd4:	052f0a05 	streq	r0, [pc, #-2565]!	; 5d7 <__code_start__-0x7a29>
     fd8:	052d0617 	streq	r0, [sp, #-1559]!	; 0xfffff9e9
     fdc:	0205010b 	andeq	r0, r5, #-1073741822	; 0xc0000002
     fe0:	2e4a0106 	dvfcse	f0, f2, f6
     fe4:	09051406 	stmdbeq	r5, {r1, r2, sl, ip}
     fe8:	02050106 	andeq	r0, r5, #-2147483647	; 0x80000001
     fec:	01064c06 	tsteq	r6, r6, lsl #24
     ff0:	03060505 	movweq	r0, #25861	; 0x6505
     ff4:	2a010198 	bcs	4165c <__bss_end__+0x37bb4>
     ff8:	01060705 	tsteq	r6, r5, lsl #14
     ffc:	2f060505 	svccs	0x00060505
    1000:	53031805 	movwpl	r1, #14341	; 0x3805
    1004:	061b052e 	ldreq	r0, [fp], -lr, lsr #10
    1008:	821a0501 	andshi	r0, sl, #4194304	; 0x400000
    100c:	4b060905 	blmi	183428 <__bss_end__+0x179980>
    1010:	01060d05 	tsteq	r6, r5, lsl #26
    1014:	d709052e 	strle	r0, [r9, -lr, lsr #10]
    1018:	059d0d05 	ldreq	r0, [sp, #3333]	; 0xd05
    101c:	052f0609 	streq	r0, [pc, #-1545]!	; a1b <__code_start__-0x75e5>
    1020:	18053015 	stmdane	r5, {r0, r2, r4, ip, sp}
    1024:	17050106 	strne	r0, [r5, -r6, lsl #2]
    1028:	2f190566 	svccs	0x00190566
    102c:	05491705 	strbeq	r1, [r9, #-1797]	; 0xfffff8fb
    1030:	052f0619 	streq	r0, [pc, #-1561]!	; a1f <__code_start__-0x75e1>
    1034:	6f030615 	svcvs	0x00030615
    1038:	0619052e 	ldreq	r0, [r9], -lr, lsr #10
    103c:	054a1303 	strbeq	r1, [sl, #-771]	; 0xfffffcfd
    1040:	6d030615 	stcvs	6, cr0, [r3, #-84]	; 0xffffffac
    1044:	02054a2e 	andeq	r4, r5, #188416	; 0x2e000
    1048:	017fa003 	cmneq	pc, r3
    104c:	72030666 	andvc	r0, r3, #106954752	; 0x6600000
    1050:	06050501 	streq	r0, [r5], -r1, lsl #10
    1054:	36040501 	strcc	r0, [r4], -r1, lsl #10
    1058:	78030505 	stmdavc	r3, {r0, r2, r8, sl}
    105c:	0602052e 	streq	r0, [r2], -lr, lsr #10
    1060:	0501062f 	streq	r0, [r1, #-1583]	; 0xfffff9d1
    1064:	0516060e 	ldreq	r0, [r6, #-1550]	; 0xfffff9f2
    1068:	05131402 	ldreq	r1, [r3, #-1026]	; 0xfffffbfe
    106c:	4a010604 	bmi	42884 <__bss_end__+0x38ddc>
    1070:	03060205 	movweq	r0, #25093	; 0x6205
    1074:	05050178 	streq	r0, [r5, #-376]	; 0xfffffe88
    1078:	054a0106 	strbeq	r0, [sl, #-262]	; 0xfffffefa
    107c:	064b0602 	strbeq	r0, [fp], -r2, lsl #12
    1080:	060e0501 	streq	r0, [lr], -r1, lsl #10
    1084:	14020516 	strne	r0, [r2], #-1302	; 0xfffffaea
    1088:	05151513 	ldreq	r1, [r5, #-1299]	; 0xfffffaed
    108c:	2e06010b 	adfcss	f0, f6, #3.0
    1090:	03061105 	movweq	r1, #24837	; 0x6105
    1094:	0501019e 	streq	r0, [r1, #-414]	; 0xfffffe62
    1098:	05010622 	streq	r0, [r1, #-1570]	; 0xfffff9de
    109c:	22052f05 	andcs	r2, r5, #5, 30
    10a0:	0605052d 	streq	r0, [r5], -sp, lsr #10
    10a4:	4b11052f 	blmi	442568 <__bss_end__+0x438ac0>
    10a8:	01830505 	orreq	r0, r3, r5, lsl #10
    10ac:	2e5c039e 	mrccs	3, 2, r0, cr12, cr14, {4}
    10b0:	02059e01 	andeq	r9, r5, #1, 28
    10b4:	7ef30306 	cdpvc	3, 15, cr0, cr3, cr6, {0}
    10b8:	06052e2e 	streq	r2, [r5], -lr, lsr #28
    10bc:	0d054a2c 	vstreq	s8, [r5, #-176]	; 0xffffff50
    10c0:	0100d803 	tsteq	r0, r3, lsl #16
    10c4:	02000405 	andeq	r0, r0, #83886080	; 0x5000000
    10c8:	03060104 	movweq	r0, #24836	; 0x6104
    10cc:	02004a11 	andeq	r4, r0, #69632	; 0x11000
    10d0:	05010104 	streq	r0, [r1, #-260]	; 0xfffffefc
    10d4:	06510611 			; <UNDEFINED> instruction: 0x06510611
    10d8:	0315059e 	tsteq	r5, #662700032	; 0x27800000
    10dc:	ba012e17 	blt	4c940 <__bss_end__+0x42e98>
    10e0:	69031105 	stmdbvs	r3, {r0, r2, r8, ip}
    10e4:	2802012e 	stmdacs	r2, {r1, r2, r3, r5, r8}
    10e8:	a0010100 	andge	r0, r1, r0, lsl #2
    10ec:	03000000 	movweq	r0, #0
    10f0:	00005d00 	andeq	r5, r0, r0, lsl #26
    10f4:	fb010200 	blx	418fe <__bss_end__+0x37e56>
    10f8:	01000d0e 	tsteq	r0, lr, lsl #26
    10fc:	00010101 	andeq	r0, r1, r1, lsl #2
    1100:	00010000 	andeq	r0, r1, r0
    1104:	2f2e0100 	svccs	0x002e0100
    1108:	66617473 			; <UNDEFINED> instruction: 0x66617473
    110c:	72732d66 	rsbsvc	r2, r3, #6528	; 0x1980
    1110:	552f0063 	strpl	r0, [pc, #-99]!	; 10b5 <__code_start__-0x6f4b>
    1114:	73726573 	cmnvc	r2, #482344960	; 0x1cc00000
    1118:	6c696d2f 	stclvs	13, cr6, [r9], #-188	; 0xffffff44
    111c:	532f7365 			; <UNDEFINED> instruction: 0x532f7365
    1120:	6372756f 	cmnvs	r2, #465567744	; 0x1bc00000
    1124:	73632f65 	cmnvc	r3, #404	; 0x194
    1128:	6c303432 	cfldrsvs	mvf3, [r0], #-200	; 0xffffff38
    112c:	696c2f78 	stmdbvs	ip!, {r3, r4, r5, r6, r8, r9, sl, fp, sp}^
    1130:	2f697062 	svccs	0x00697062
    1134:	6c636e69 	stclvs	14, cr6, [r3], #-420	; 0xfffffe5c
    1138:	00656475 	rsbeq	r6, r5, r5, ror r4
    113c:	63616300 	cmnvs	r1, #0, 6
    1140:	632e6568 			; <UNDEFINED> instruction: 0x632e6568
    1144:	00000100 	andeq	r0, r0, r0, lsl #2
    1148:	2e697072 	mcrcs	0, 3, r7, cr9, cr2, {3}
    114c:	00020068 	andeq	r0, r2, r8, rrx
    1150:	19050000 	stmdbne	r5, {}	; <UNPREDICTABLE>
    1154:	8c020500 	cfstr32hi	mvfx0, [r2], {-0}
    1158:	1400008e 	strne	r0, [r0], #-142	; 0xffffff72
    115c:	13130505 	tstne	r3, #20971520	; 0x1400000
    1160:	132f0205 			; <UNDEFINED> instruction: 0x132f0205
    1164:	05130505 	ldreq	r0, [r3, #-1285]	; 0xfffffafb
    1168:	05110604 	ldreq	r0, [r1, #-1540]	; 0xfffff9fc
    116c:	01052f05 	tsteq	r5, r5, lsl #30
    1170:	061a052f 	ldreq	r0, [sl], -pc, lsr #10
    1174:	13050531 	movwne	r0, #21809	; 0x5531
    1178:	30020513 	andcc	r0, r2, r3, lsl r5
    117c:	13050513 	movwne	r0, #21779	; 0x5513
    1180:	11060405 	tstne	r6, r5, lsl #8
    1184:	052f0505 	streq	r0, [pc, #-1285]!	; c87 <__code_start__-0x7379>
    1188:	02022f01 	andeq	r2, r2, #1, 30
    118c:	87010100 	strhi	r0, [r1, -r0, lsl #2]
    1190:	03000000 	movweq	r0, #0
    1194:	00006400 	andeq	r6, r0, r0, lsl #8
    1198:	fb010200 	blx	419a2 <__bss_end__+0x37efa>
    119c:	01000d0e 	tsteq	r0, lr, lsl #26
    11a0:	00010101 	andeq	r0, r1, r1, lsl #2
    11a4:	00010000 	andeq	r0, r1, r0
    11a8:	2f2e0100 	svccs	0x002e0100
    11ac:	66617473 			; <UNDEFINED> instruction: 0x66617473
    11b0:	72732d66 	rsbsvc	r2, r3, #6528	; 0x1980
    11b4:	552f0063 	strpl	r0, [pc, #-99]!	; 1159 <__code_start__-0x6ea7>
    11b8:	73726573 	cmnvc	r2, #482344960	; 0x1cc00000
    11bc:	6c696d2f 	stclvs	13, cr6, [r9], #-188	; 0xffffff44
    11c0:	532f7365 			; <UNDEFINED> instruction: 0x532f7365
    11c4:	6372756f 	cmnvs	r2, #465567744	; 0x1bc00000
    11c8:	73632f65 	cmnvc	r3, #404	; 0x194
    11cc:	6c303432 	cfldrsvs	mvf3, [r0], #-200	; 0xffffff38
    11d0:	696c2f78 	stmdbvs	ip!, {r3, r4, r5, r6, r8, r9, sl, fp, sp}^
    11d4:	2f697062 	svccs	0x00697062
    11d8:	6c636e69 	stclvs	14, cr6, [r3], #-420	; 0xfffffe5c
    11dc:	00656475 	rsbeq	r6, r5, r5, ror r4
    11e0:	656c6300 	strbvs	r6, [ip, #-768]!	; 0xfffffd00
    11e4:	722d6e61 	eorvc	r6, sp, #1552	; 0x610
    11e8:	6f6f6265 	svcvs	0x006f6265
    11ec:	00632e74 	rsbeq	r2, r3, r4, ror lr
    11f0:	72000001 	andvc	r0, r0, #1, 0
    11f4:	682e6970 	stmdavs	lr!, {r4, r5, r6, r8, fp, sp, lr}
    11f8:	00000200 	andeq	r0, r0, r0, lsl #4
    11fc:	00190500 	andseq	r0, r9, r0, lsl #10
    1200:	8eac0205 	cdphi	2, 10, cr0, cr12, cr5, {0}
    1204:	05150000 	ldreq	r0, [r5, #-0]
    1208:	19051305 	stmdbne	r5, {r0, r2, r8, r9, ip}
    120c:	05052d06 	streq	r2, [r5, #-3334]	; 0xfffff2fa
    1210:	2f67062f 	svccs	0x0067062f
    1214:	0006024b 	andeq	r0, r6, fp, asr #4
    1218:	01120101 	tsteq	r2, r1, lsl #2
    121c:	00030000 	andeq	r0, r3, r0
    1220:	0000005e 	andeq	r0, r0, lr, asr r0
    1224:	0efb0102 	cdpeq	1, 15, cr0, cr11, cr2, {0}
    1228:	0101000d 	tsteq	r1, sp
    122c:	00000101 	andeq	r0, r0, r1, lsl #2
    1230:	00000100 	andeq	r0, r0, r0, lsl #2
    1234:	732f2e01 			; <UNDEFINED> instruction: 0x732f2e01
    1238:	66666174 			; <UNDEFINED> instruction: 0x66666174
    123c:	6372732d 	cmnvs	r2, #-1275068416	; 0xb4000000
    1240:	73552f00 	cmpvc	r5, #0, 30
    1244:	2f737265 	svccs	0x00737265
    1248:	656c696d 	strbvs	r6, [ip, #-2413]!	; 0xfffff693
    124c:	6f532f73 	svcvs	0x00532f73
    1250:	65637275 	strbvs	r7, [r3, #-629]!	; 0xfffffd8b
    1254:	3273632f 	rsbscc	r6, r3, #-1140850688	; 0xbc000000
    1258:	786c3034 	stmdavc	ip!, {r2, r4, r5, ip, sp}^
    125c:	62696c2f 	rsbvs	r6, r9, #12032	; 0x2f00
    1260:	692f6970 	stmdbvs	pc!, {r4, r5, r6, r8, fp, sp, lr}	; <UNPREDICTABLE>
    1264:	756c636e 	strbvc	r6, [ip, #-878]!	; 0xfffffc92
    1268:	00006564 	andeq	r6, r0, r4, ror #10
    126c:	61747363 	cmnvs	r4, r3, ror #6
    1270:	632e7472 			; <UNDEFINED> instruction: 0x632e7472
    1274:	00000100 	andeq	r0, r0, r0, lsl #2
    1278:	2e697072 	mcrcs	0, 3, r7, cr9, cr2, {3}
    127c:	00020068 	andeq	r0, r2, r8, rrx
    1280:	10050000 	andne	r0, r5, r0
    1284:	d8020500 	stmdale	r2, {r8, sl}
    1288:	1500008e 	strne	r0, [r0, #-142]	; 0xffffff72
    128c:	05130505 	ldreq	r0, [r3, #-1285]	; 0xfffffafb
    1290:	05051302 	streq	r1, [r5, #-770]	; 0xfffffcfe
    1294:	06100514 			; <UNDEFINED> instruction: 0x06100514
    1298:	3205050e 	andcc	r0, r5, #58720256	; 0x3800000
    129c:	14133006 	ldrne	r3, [r3], #-6
    12a0:	05010a05 	streq	r0, [r1, #-2565]	; 0xfffff5fb
    12a4:	05910809 	ldreq	r0, [r1, #2057]	; 0x809
    12a8:	05010610 	streq	r0, [r1, #-1552]	; 0xfffff9f0
    12ac:	10059a0a 	andne	r9, r5, sl, lsl #20
    12b0:	060a056a 	streq	r0, [sl], -sl, ror #10
    12b4:	2f09052d 	svccs	0x0009052d
    12b8:	01061005 	tsteq	r6, r5
    12bc:	2d060a05 	vstrcs	s0, [r6, #-20]	; 0xffffffec
    12c0:	05bb0905 	ldreq	r0, [fp, #2309]!	; 0x905
    12c4:	05010610 	streq	r0, [r1, #-1552]	; 0xfffff9f0
    12c8:	0565060a 	strbeq	r0, [r5, #-1546]!	; 0xfffff9f6
    12cc:	0d054b09 	vstreq	d4, [r5, #-36]	; 0xffffffdc
    12d0:	0a050106 	beq	1416f0 <__bss_end__+0x137c48>
    12d4:	2f10052d 	svccs	0x0010052d
    12d8:	2d060a05 	vstrcs	s0, [r6, #-20]	; 0xffffffec
    12dc:	052f0905 	streq	r0, [pc, #-2309]!	; 9df <__code_start__-0x7621>
    12e0:	0501060d 	streq	r0, [r1, #-1549]	; 0xfffff9f3
    12e4:	10052d0a 	andne	r2, r5, sl, lsl #26
    12e8:	060a052f 	streq	r0, [sl], -pc, lsr #10
    12ec:	2f09052d 	svccs	0x0009052d
    12f0:	01060d05 	tsteq	r6, r5, lsl #26
    12f4:	052d0a05 	streq	r0, [sp, #-2565]!	; 0xfffff5fb
    12f8:	0a052f10 	beq	14cf40 <__bss_end__+0x143498>
    12fc:	09052d06 	stmdbeq	r5, {r1, r2, r8, sl, fp, sp}
    1300:	060d052f 	streq	r0, [sp], -pc, lsr #10
    1304:	2d0a0501 	cfstr32cs	mvfx0, [sl, #-4]
    1308:	052f1005 	streq	r1, [pc, #-5]!	; 130b <__code_start__-0x6cf5>
    130c:	052d060a 	streq	r0, [sp, #-1546]!	; 0xfffff9f6
    1310:	10051309 	andne	r1, r5, r9, lsl #6
    1314:	0a050106 	beq	141734 <__bss_end__+0x137c8c>
    1318:	05052d06 	streq	r2, [r5, #-3334]	; 0xfffff2fa
    131c:	01013215 	tsteq	r1, r5, lsl r2
    1320:	0205144a 	andeq	r1, r5, #1241513984	; 0x4a000000
    1324:	060a052f 	streq	r0, [sl], -pc, lsr #10
    1328:	022e7303 	eoreq	r7, lr, #201326592	; 0xc000000
    132c:	01010008 	tsteq	r1, r8
    1330:	0000007d 	andeq	r0, r0, sp, ror r0
    1334:	00650003 	rsbeq	r0, r5, r3
    1338:	01020000 	mrseq	r0, (UNDEF: 2)
    133c:	000d0efb 	strdeq	r0, [sp], -fp
    1340:	01010101 	tsteq	r1, r1, lsl #2
    1344:	01000000 	mrseq	r0, (UNDEF: 0)
    1348:	2e010000 	cdpcs	0, 0, cr0, cr1, cr0, {0}
    134c:	6174732f 	cmnvs	r4, pc, lsr #6
    1350:	732d6666 			; <UNDEFINED> instruction: 0x732d6666
    1354:	2f006372 	svccs	0x00006372
    1358:	72657355 	rsbvc	r7, r5, #1409286145	; 0x54000001
    135c:	696d2f73 	stmdbvs	sp!, {r0, r1, r4, r5, r6, r8, r9, sl, fp, sp}^
    1360:	2f73656c 	svccs	0x0073656c
    1364:	72756f53 	rsbsvc	r6, r5, #332	; 0x14c
    1368:	632f6563 			; <UNDEFINED> instruction: 0x632f6563
    136c:	30343273 	eorscc	r3, r4, r3, ror r2
    1370:	6c2f786c 	stcvs	8, cr7, [pc], #-432	; 11c8 <__code_start__-0x6e38>
    1374:	69706269 	ldmdbvs	r0!, {r0, r3, r5, r6, r9, sp, lr}^
    1378:	636e692f 	cmnvs	lr, #770048	; 0xbc000
    137c:	6564756c 	strbvs	r7, [r4, #-1388]!	; 0xfffffa94
    1380:	75630000 	strbvc	r0, [r3, #-0]!
    1384:	6d6f7473 	cfstrdvs	mvd7, [pc, #-460]!	; 11c0 <__code_start__-0x6e40>
    1388:	616f6c2d 	cmnvs	pc, sp, lsr #24
    138c:	2e726564 	cdpcs	5, 7, cr6, cr2, cr4, {3}
    1390:	00010063 	andeq	r0, r1, r3, rrx
    1394:	69707200 	ldmdbvs	r0!, {r9, ip, sp, lr}^
    1398:	0200682e 	andeq	r6, r0, #3014656	; 0x2e0000
    139c:	05000000 	streq	r0, [r0, #-0]
    13a0:	0205001a 	andeq	r0, r5, #26, 0
    13a4:	00008fd0 	ldrdeq	r8, [r0], -r0
    13a8:	14010515 	strne	r0, [r1], #-1301	; 0xfffffaeb
    13ac:	01000202 	tsteq	r0, r2, lsl #4
    13b0:	00011401 	andeq	r1, r1, r1, lsl #8
    13b4:	5e000300 	cdppl	3, 0, cr0, cr0, cr0, {0}
    13b8:	02000000 	andeq	r0, r0, #0, 0
    13bc:	0d0efb01 	vstreq	d15, [lr, #-4]
    13c0:	01010100 	mrseq	r0, (UNDEF: 17)
    13c4:	00000001 	andeq	r0, r0, r1
    13c8:	01000001 	tsteq	r0, r1
    13cc:	74732f2e 	ldrbtvc	r2, [r3], #-3886	; 0xfffff0d2
    13d0:	2d666661 	stclcs	6, cr6, [r6, #-388]!	; 0xfffffe7c
    13d4:	00637273 	rsbeq	r7, r3, r3, ror r2
    13d8:	6573552f 	ldrbvs	r5, [r3, #-1327]!	; 0xfffffad1
    13dc:	6d2f7372 	stcvs	3, cr7, [pc, #-456]!	; 121c <__code_start__-0x6de4>
    13e0:	73656c69 	cmnvc	r5, #26880	; 0x6900
    13e4:	756f532f 	strbvc	r5, [pc, #-815]!	; 10bd <__code_start__-0x6f43>
    13e8:	2f656372 	svccs	0x00656372
    13ec:	34327363 	ldrtcc	r7, [r2], #-867	; 0xfffffc9d
    13f0:	2f786c30 	svccs	0x00786c30
    13f4:	7062696c 	rsbvc	r6, r2, ip, ror #18
    13f8:	6e692f69 	cdpvs	15, 6, cr2, cr9, cr9, {3}
    13fc:	64756c63 	ldrbtvs	r6, [r5], #-3171	; 0xfffff39d
    1400:	72000065 	andvc	r0, r0, #101, 0	; 0x65
    1404:	6f6f6265 	svcvs	0x006f6265
    1408:	00632e74 	rsbeq	r2, r3, r4, ror lr
    140c:	72000001 	andvc	r0, r0, #1, 0
    1410:	682e6970 	stmdavs	lr!, {r4, r5, r6, r8, fp, sp, lr}
    1414:	00000200 	andeq	r0, r0, r0, lsl #4
    1418:	00190500 	andseq	r0, r9, r0, lsl #10
    141c:	8fd40205 	svchi	0x00d40205
    1420:	0d030000 	stceq	0, cr0, [r3, #-0]
    1424:	13050501 	movwne	r0, #21761	; 0x5501
    1428:	13053113 	movwne	r3, #20755	; 0x5113
    142c:	01050106 	tsteq	r5, r6, lsl #2
    1430:	061b052f 	ldreq	r0, [fp], -pc, lsr #10
    1434:	13050585 	movwne	r0, #21893	; 0x5585
    1438:	2f090514 	svccs	0x00090514
    143c:	01061605 	tsteq	r6, r5, lsl #12
    1440:	2f060505 	svccs	0x00060505
    1444:	11060e05 	tstne	r6, r5, lsl #28
    1448:	052f0505 	streq	r0, [pc, #-1285]!	; f4b <__code_start__-0x70b5>
    144c:	17052f01 	strne	r2, [r5, -r1, lsl #30]
    1450:	05053006 	streq	r3, [r5, #-6]
    1454:	016e0313 	cmneq	lr, r3, lsl r3
    1458:	17051313 	smladne	r5, r3, r3, r1
    145c:	010f0306 	tsteq	pc, r6, lsl #6
    1460:	71030505 	tstvc	r3, r5, lsl #10
    1464:	0531062e 	ldreq	r0, [r1, #-1582]!	; 0xfffff9d2
    1468:	05010613 	streq	r0, [r1, #-1555]	; 0xfffff9ed
    146c:	2e0d0307 	cdpcs	3, 0, cr0, cr13, cr7, {0}
    1470:	4b060905 	blmi	18388c <__bss_end__+0x179de4>
    1474:	76030605 	strvc	r0, [r3], -r5, lsl #12
    1478:	13050501 	movwne	r0, #21761	; 0x5501
    147c:	2f090514 	svccs	0x00090514
    1480:	01061605 	tsteq	r6, r5, lsl #12
    1484:	2f060505 	svccs	0x00060505
    1488:	11060e05 	tstne	r6, r5, lsl #28
    148c:	2e2f0505 	cfsh64cs	mvdx0, mvdx15, #5
    1490:	010a0306 	tsteq	sl, r6, lsl #6
    1494:	134d2f30 	movtne	r2, #57136	; 0xdf30
    1498:	67151313 			; <UNDEFINED> instruction: 0x67151313
    149c:	01040200 	mrseq	r0, R12_usr
    14a0:	000d0567 	andeq	r0, sp, r7, ror #10
    14a4:	01010402 	tsteq	r1, r2, lsl #8
    14a8:	02000a05 	andeq	r0, r0, #20480	; 0x5000
    14ac:	05010104 	streq	r0, [r1, #-260]	; 0xfffffefc
    14b0:	04020005 	streq	r0, [r2], #-5
    14b4:	0d050101 	stfeqs	f0, [r5, #-4]
    14b8:	01040200 	mrseq	r0, R12_usr
    14bc:	000a0501 	andeq	r0, sl, r1, lsl #10
    14c0:	01010402 	tsteq	r1, r2, lsl #8
    14c4:	01000a02 	tsteq	r0, r2, lsl #20
    14c8:	0001fa01 	andeq	pc, r1, r1, lsl #20
    14cc:	5d000300 	stcpl	3, cr0, [r0, #-0]
    14d0:	02000000 	andeq	r0, r0, #0, 0
    14d4:	0d0efb01 	vstreq	d15, [lr, #-4]
    14d8:	01010100 	mrseq	r0, (UNDEF: 17)
    14dc:	00000001 	andeq	r0, r0, r1
    14e0:	01000001 	tsteq	r0, r1
    14e4:	74732f2e 	ldrbtvc	r2, [r3], #-3886	; 0xfffff0d2
    14e8:	2d666661 	stclcs	6, cr6, [r6, #-388]!	; 0xfffffe7c
    14ec:	00637273 	rsbeq	r7, r3, r3, ror r2
    14f0:	6573552f 	ldrbvs	r5, [r3, #-1327]!	; 0xfffffad1
    14f4:	6d2f7372 	stcvs	3, cr7, [pc, #-456]!	; 1334 <__code_start__-0x6ccc>
    14f8:	73656c69 	cmnvc	r5, #26880	; 0x6900
    14fc:	756f532f 	strbvc	r5, [pc, #-815]!	; 11d5 <__code_start__-0x6e2b>
    1500:	2f656372 	svccs	0x00656372
    1504:	34327363 	ldrtcc	r7, [r2], #-867	; 0xfffffc9d
    1508:	2f786c30 	svccs	0x00786c30
    150c:	7062696c 	rsbvc	r6, r2, ip, ror #18
    1510:	6e692f69 	cdpvs	15, 6, cr2, cr9, cr9, {3}
    1514:	64756c63 	ldrbtvs	r6, [r5], #-3171	; 0xfffff39d
    1518:	74000065 	strvc	r0, [r0], #-101	; 0xffffff9b
    151c:	72656d69 	rsbvc	r6, r5, #6720	; 0x1a40
    1520:	0100632e 	tsteq	r0, lr, lsr #6
    1524:	70720000 	rsbsvc	r0, r2, r0
    1528:	00682e69 	rsbeq	r2, r8, r9, ror #28
    152c:	00000002 	andeq	r0, r0, r2
    1530:	05002305 	streq	r2, [r0, #-773]	; 0xfffffcfb
    1534:	00906002 	addseq	r6, r0, r2
    1538:	05051500 	streq	r1, [r5, #-1280]	; 0xfffffb00
    153c:	060c0513 			; <UNDEFINED> instruction: 0x060c0513
    1540:	061f0501 	ldreq	r0, [pc], -r1, lsl #10
    1544:	1505056a 	strne	r0, [r5, #-1386]	; 0xfffffa96
    1548:	0f061f05 	svceq	0x00061f05
    154c:	06310505 	ldrteq	r0, [r1], -r5, lsl #10
    1550:	030a052f 	movweq	r0, #42287	; 0xa52f
    1554:	05050177 	streq	r0, [r5, #-375]	; 0xfffffe89
    1558:	060c0513 			; <UNDEFINED> instruction: 0x060c0513
    155c:	05056601 	streq	r6, [r5, #-1537]	; 0xfffff9ff
    1560:	01090306 	tsteq	r9, r6, lsl #6
    1564:	0601052f 	streq	r0, [r1], -pc, lsr #10
    1568:	061c0513 			; <UNDEFINED> instruction: 0x061c0513
    156c:	13050568 	movwne	r0, #21864	; 0x5568
    1570:	76030a05 	strvc	r0, [r3], -r5, lsl #20
    1574:	15050501 	strne	r0, [r5, #-1281]	; 0xfffffaff
    1578:	18061c05 	stmdane	r6, {r0, r2, sl, fp, ip}
    157c:	0305052e 	movweq	r0, #21806	; 0x552e
    1580:	2f062e7a 	svccs	0x00062e7a
    1584:	77030a05 	strvc	r0, [r3, -r5, lsl #20]
    1588:	13050501 	movwne	r0, #21761	; 0x5501
    158c:	01060c05 	tsteq	r6, r5, lsl #24
    1590:	06050566 	streq	r0, [r5], -r6, ror #10
    1594:	2f010903 	svccs	0x00010903
    1598:	0c050106 	stfeqs	f0, [r5], {6}
    159c:	05017603 	streq	r7, [r1, #-1539]	; 0xfffff9fd
    15a0:	0f030605 	svceq	0x00030605
    15a4:	1309052e 	movwne	r0, #38190	; 0x952e
    15a8:	74030a05 	strvc	r0, [r3], #-2565	; 0xfffff5fb
    15ac:	15050501 	strne	r0, [r5, #-1281]	; 0xfffffaff
    15b0:	030a052f 	movweq	r0, #42287	; 0xa52f
    15b4:	05050177 	streq	r0, [r5, #-375]	; 0xfffffe89
    15b8:	060c0513 			; <UNDEFINED> instruction: 0x060c0513
    15bc:	05056601 	streq	r6, [r5, #-1537]	; 0xfffff9ff
    15c0:	01090306 	tsteq	r9, r6, lsl #6
    15c4:	1a061105 	bne	1859e0 <__bss_end__+0x17bf38>
    15c8:	78030505 	stmdavc	r3, {r0, r2, r8, sl}
    15cc:	052f062e 	streq	r0, [pc, #-1582]!	; fa6 <__code_start__-0x705a>
    15d0:	0c051909 			; <UNDEFINED> instruction: 0x0c051909
    15d4:	1c050106 	stfnes	f0, [r5], {6}
    15d8:	05058706 	streq	r8, [r5, #-1798]	; 0xfffff8fa
    15dc:	061c0513 			; <UNDEFINED> instruction: 0x061c0513
    15e0:	2f050511 	svccs	0x00050511
    15e4:	0606054a 	streq	r0, [r6], -sl, asr #10
    15e8:	052e7603 	streq	r7, [lr, #-1539]!	; 0xfffff9fd
    15ec:	0a051305 	beq	146208 <__bss_end__+0x13c760>
    15f0:	05017603 	streq	r7, [r1, #-1539]	; 0xfffff9fd
    15f4:	052f1505 	streq	r1, [pc, #-1285]!	; 10f7 <__code_start__-0x6f09>
    15f8:	0177030a 	cmneq	r7, sl, lsl #6
    15fc:	05130505 	ldreq	r0, [r3, #-1285]	; 0xfffffafb
    1600:	6601060c 	strvs	r0, [r1], -ip, lsl #12
    1604:	03060505 	movweq	r0, #25861	; 0x6505
    1608:	062f0109 	strteq	r0, [pc], -r9, lsl #2
    160c:	030c0501 	movweq	r0, #50433	; 0xc501
    1610:	05050176 	streq	r0, [r5, #-374]	; 0xfffffe8a
    1614:	2e0f0306 	cdpcs	3, 0, cr0, cr15, cr6, {0}
    1618:	05130905 	ldreq	r0, [r3, #-2309]	; 0xfffff6fb
    161c:	0174030a 	cmneq	r4, sl, lsl #6
    1620:	2f150505 	svccs	0x00150505
    1624:	77030a05 	strvc	r0, [r3, -r5, lsl #20]
    1628:	13050501 	movwne	r0, #21761	; 0x5501
    162c:	01060c05 	tsteq	r6, r5, lsl #24
    1630:	06050566 	streq	r0, [r5], -r6, ror #10
    1634:	05010903 	streq	r0, [r1, #-2307]	; 0xfffff6fd
    1638:	051a0611 	ldreq	r0, [sl, #-1553]	; 0xfffff9ef
    163c:	2e780305 	cdpcs	3, 7, cr0, cr8, cr5, {0}
    1640:	09052f06 	stmdbeq	r5, {r1, r2, r8, r9, sl, fp, sp}
    1644:	060c0519 			; <UNDEFINED> instruction: 0x060c0519
    1648:	061e0501 	ldreq	r0, [lr], -r1, lsl #10
    164c:	1305058a 	movwne	r0, #21898	; 0x558a
    1650:	050e0605 	streq	r0, [lr, #-1541]	; 0xfffff9fb
    1654:	1e051305 	cdpne	3, 0, cr1, cr5, cr5, {0}
    1658:	05051406 	streq	r1, [r5, #-1030]	; 0xfffffbfa
    165c:	0605662c 	streq	r6, [r5], -ip, lsr #12
    1660:	2e760306 	cdpcs	3, 7, cr0, cr6, cr6, {0}
    1664:	05130505 	ldreq	r0, [r3, #-1285]	; 0xfffffafb
    1668:	0176030a 	cmneq	r6, sl, lsl #6
    166c:	2f150505 	svccs	0x00150505
    1670:	77030a05 	strvc	r0, [r3, -r5, lsl #20]
    1674:	13050501 	movwne	r0, #21761	; 0x5501
    1678:	01060c05 	tsteq	r6, r5, lsl #24
    167c:	06050566 	streq	r0, [r5], -r6, ror #10
    1680:	2f010903 	svccs	0x00010903
    1684:	0c050106 	stfeqs	f0, [r5], {6}
    1688:	05017603 	streq	r7, [r1, #-1539]	; 0xfffff9fd
    168c:	0f030605 	svceq	0x00030605
    1690:	1309052e 	movwne	r0, #38190	; 0x952e
    1694:	74030a05 	strvc	r0, [r3], #-2565	; 0xfffff5fb
    1698:	15050501 	strne	r0, [r5, #-1281]	; 0xfffffaff
    169c:	030a052f 	movweq	r0, #42287	; 0xa52f
    16a0:	05050177 	streq	r0, [r5, #-375]	; 0xfffffe89
    16a4:	060c0513 			; <UNDEFINED> instruction: 0x060c0513
    16a8:	05056601 	streq	r6, [r5, #-1537]	; 0xfffff9ff
    16ac:	01090306 	tsteq	r9, r6, lsl #6
    16b0:	1a061105 	bne	185acc <__bss_end__+0x17c024>
    16b4:	78030505 	stmdavc	r3, {r0, r2, r8, sl}
    16b8:	052f062e 	streq	r0, [pc, #-1582]!	; 1092 <__code_start__-0x6f6e>
    16bc:	0c051909 			; <UNDEFINED> instruction: 0x0c051909
    16c0:	08020106 	stmdaeq	r2, {r1, r2, r8}
    16c4:	04010100 	streq	r0, [r1], #-256	; 0xffffff00
    16c8:	03000002 	movweq	r0, #2
    16cc:	0000c800 	andeq	ip, r0, r0, lsl #16
    16d0:	fb010200 	blx	41eda <__bss_end__+0x38432>
    16d4:	01000d0e 	tsteq	r0, lr, lsl #26
    16d8:	00010101 	andeq	r0, r1, r1, lsl #2
    16dc:	00010000 	andeq	r0, r1, r0
    16e0:	682f0100 	stmdavs	pc!, {r8}	; <UNPREDICTABLE>
    16e4:	2f656d6f 	svccs	0x00656d6f
    16e8:	6c676e65 	stclvs	14, cr6, [r7], #-404	; 0xfffffe6c
    16ec:	632f7265 			; <UNDEFINED> instruction: 0x632f7265
    16f0:	7373616c 	cmnvc	r3, #27
    16f4:	3173632f 	cmncc	r3, pc, lsr #6
    16f8:	2d653034 	stclcs	0, cr3, [r5, #-208]!	; 0xffffff30
    16fc:	69773232 	ldmdbvs	r7!, {r1, r4, r5, r9, ip, sp}^
    1700:	6c2f2f6e 	stcvs	15, cr2, [pc], #-440	; 1550 <__code_start__-0x6ab0>
    1704:	69706269 	ldmdbvs	r0!, {r0, r3, r5, r6, r9, sp, lr}^
    1708:	636e692f 	cmnvs	lr, #770048	; 0xbc000
    170c:	6564756c 	strbvs	r7, [r4, #-1388]!	; 0xfffffa94
    1710:	73752f00 	cmnvc	r5, #0, 30
    1714:	68732f72 	ldmdavs	r3!, {r1, r4, r5, r6, r8, r9, sl, fp, sp}^
    1718:	2f657261 	svccs	0x00657261
    171c:	2d636367 	stclcs	3, cr6, [r3, #-412]!	; 0xfffffe64
    1720:	2d6d7261 	sfmcs	f7, 2, [sp, #-388]!	; 0xfffffe7c
    1724:	656e6f6e 	strbvs	r6, [lr, #-3950]!	; 0xfffff092
    1728:	6261652d 	rsbvs	r6, r1, #188743680	; 0xb400000
    172c:	30312d69 	eorscc	r2, r1, r9, ror #26
    1730:	322d332e 	eorcc	r3, sp, #-1207959552	; 0xb8000000
    1734:	2e313230 	mrccs	2, 1, r3, cr1, cr0, {1}
    1738:	6c2f3031 	stcvs	0, cr3, [pc], #-196	; 167c <__code_start__-0x6984>
    173c:	672f6269 	strvs	r6, [pc, -r9, ror #4]!
    1740:	612f6363 			; <UNDEFINED> instruction: 0x612f6363
    1744:	6e2d6d72 	mcrvs	13, 1, r6, cr13, cr2, {3}
    1748:	2d656e6f 	stclcs	14, cr6, [r5, #-444]!	; 0xfffffe44
    174c:	69626165 	stmdbvs	r2!, {r0, r2, r5, r6, r8, sp, lr}^
    1750:	2e30312f 	rsfcssp	f3, f0, #10.0
    1754:	2f312e33 	svccs	0x00312e33
    1758:	6c636e69 	stclvs	14, cr6, [r3], #-420	; 0xfffffe5c
    175c:	00656475 	rsbeq	r6, r5, r5, ror r4
    1760:	72617500 	rsbvc	r7, r1, #0, 10
    1764:	00632e74 	rsbeq	r2, r3, r4, ror lr
    1768:	75000000 	strvc	r0, [r0, #-0]
    176c:	2e747261 	cdpcs	2, 7, cr7, cr4, cr1, {3}
    1770:	00010068 	andeq	r0, r1, r8, rrx
    1774:	69707200 	ldmdbvs	r0!, {r9, ip, sp, lr}^
    1778:	0100682e 	tsteq	r0, lr, lsr #16
    177c:	70670000 	rsbvc	r0, r7, r0
    1780:	682e6f69 	stmdavs	lr!, {r0, r3, r5, r6, r8, r9, sl, fp, sp, lr}
    1784:	00000100 	andeq	r0, r0, r0, lsl #2
    1788:	69647473 	stmdbvs	r4!, {r0, r1, r4, r5, r6, sl, ip, sp, lr}^
    178c:	672d746e 	strvs	r7, [sp, -lr, ror #8]!
    1790:	682e6363 	stmdavs	lr!, {r0, r1, r5, r6, r8, r9, sp, lr}
    1794:	00000200 	andeq	r0, r0, r0, lsl #4
    1798:	00390500 	eorseq	r0, r9, r0, lsl #10
    179c:	917c0205 	cmnls	ip, r5, lsl #4
    17a0:	30030000 	andcc	r0, r3, r0
    17a4:	05010601 	streq	r0, [r1, #-1537]	; 0xfffff9ff
    17a8:	05670605 	strbeq	r0, [r7, #-1541]!	; 0xfffff9fb
    17ac:	05010611 	streq	r0, [r1, #-1553]	; 0xfffff9ef
    17b0:	01052e05 	tsteq	r5, r5, lsl #28
    17b4:	06380567 	ldrteq	r0, [r8], -r7, ror #10
    17b8:	05010629 	streq	r0, [r1, #-1577]	; 0xfffff9d7
    17bc:	05670605 	strbeq	r0, [r7, #-1541]!	; 0xfffff9fb
    17c0:	05010611 	streq	r0, [r1, #-1553]	; 0xfffff9ef
    17c4:	01052e05 	tsteq	r5, r5, lsl #28
    17c8:	06160567 	ldreq	r0, [r6], -r7, ror #10
    17cc:	052e1503 	streq	r1, [lr, #-1283]!	; 0xfffffafd
    17d0:	68673505 	stmdavs	r7!, {r0, r2, r8, sl, ip, sp}^
    17d4:	0c036835 	stceq	8, cr6, [r3], {53}	; 0x35
    17d8:	696b852e 	stmdbvs	fp!, {r1, r2, r3, r5, r8, sl, pc}^
    17dc:	660c0369 	strvs	r0, [ip], -r9, ror #6
    17e0:	05676b13 	strbeq	r6, [r7, #-2835]!	; 0xfffff4ed
    17e4:	052f0601 	streq	r0, [pc, #-1537]!	; 11eb <__code_start__-0x6e15>
    17e8:	25080619 	strcs	r0, [r8, #-1561]	; 0xfffff9e7
    17ec:	05340505 	ldreq	r0, [r4, #-1285]!	; 0xfffffafb
    17f0:	0501060d 	streq	r0, [r1, #-1549]	; 0xfffff9f3
    17f4:	19054c01 	stmdbne	r5, {r0, sl, fp, lr}
    17f8:	05056706 	streq	r6, [r5, #-1798]	; 0xfffff8fa
    17fc:	060d0536 			; <UNDEFINED> instruction: 0x060d0536
    1800:	4a280501 	bmi	a02c0c <__bss_end__+0x9f9164>
    1804:	05300105 	ldreq	r0, [r0, #-261]!	; 0xfffffefb
    1808:	05870615 	streq	r0, [r7, #1557]	; 0x615
    180c:	052f2f05 	streq	r2, [pc, #-3845]!	; 90f <__code_start__-0x76f1>
    1810:	04020009 	streq	r0, [r2], #-9
    1814:	0a051301 	beq	146420 <__bss_end__+0x13c978>
    1818:	01040200 	mrseq	r0, R12_usr
    181c:	000c0511 	andeq	r0, ip, r1, lsl r5
    1820:	06010402 	streq	r0, [r1], -r2, lsl #8
    1824:	000a0501 	andeq	r0, sl, r1, lsl #10
    1828:	2e010402 	cdpcs	4, 0, cr0, cr1, cr2, {0}
    182c:	4c060505 	cfstr32mi	mvfx0, [r6], {5}
    1830:	01060e05 	tsteq	r6, r5, lsl #28
    1834:	054a0905 	strbeq	r0, [sl, #-2309]	; 0xfffff6fb
    1838:	2f2f0605 	svccs	0x002f0605
    183c:	13060105 	movwne	r0, #24837	; 0x6105
    1840:	67061c05 	strvs	r1, [r6, -r5, lsl #24]
    1844:	05050106 	streq	r0, [r5, #-262]	; 0xfffffefa
    1848:	052f4b06 	streq	r4, [pc, #-2822]!	; d4a <__code_start__-0x72b6>
    184c:	04020009 	streq	r0, [r2], #-9
    1850:	0a051301 	beq	14645c <__bss_end__+0x13c9b4>
    1854:	01040200 	mrseq	r0, R12_usr
    1858:	000c0511 	andeq	r0, ip, r1, lsl r5
    185c:	06010402 	streq	r0, [r1], -r2, lsl #8
    1860:	000a0501 	andeq	r0, sl, r1, lsl #10
    1864:	2e010402 	cdpcs	4, 0, cr0, cr1, cr2, {0}
    1868:	4c060505 	cfstr32mi	mvfx0, [r6], {5}
    186c:	06010567 	streq	r0, [r1], -r7, ror #10
    1870:	0619052f 	ldreq	r0, [r9], -pc, lsr #10
    1874:	2e1b054c 	cfmac32cs	mvfx0, mvfx11, mvfx12
    1878:	052e2a05 	streq	r2, [lr, #-2565]!	; 0xfffff5fb
    187c:	05010631 	streq	r0, [r1, #-1585]	; 0xfffff9cf
    1880:	1c052e42 	stcne	14, cr2, [r5], {66}	; 0x42
    1884:	05053106 	streq	r3, [r5, #-262]	; 0xfffffefa
    1888:	2e09032f 	cdpcs	3, 0, cr0, cr9, cr15, {1}
    188c:	01060e05 	tsteq	r6, r5, lsl #28
    1890:	054a2105 	strbeq	r2, [sl, #-261]	; 0xfffffefb
    1894:	2e0a0301 	cdpcs	3, 0, cr0, cr10, cr1, {0}
    1898:	68061a05 	stmdavs	r6, {r0, r2, r9, fp, ip}
    189c:	02000905 	andeq	r0, r0, #81920	; 0x14000
    18a0:	05300104 	ldreq	r0, [r0, #-260]!	; 0xfffffefc
    18a4:	0402000a 	streq	r0, [r2], #-10
    18a8:	0c051101 	stfeqs	f1, [r5], {1}
    18ac:	01040200 	mrseq	r0, R12_usr
    18b0:	0a050106 	beq	141cd0 <__bss_end__+0x138228>
    18b4:	01040200 	mrseq	r0, R12_usr
    18b8:	0619052e 	ldreq	r0, [r9], -lr, lsr #10
    18bc:	667ee803 	ldrbtvs	lr, [lr], -r3, lsl #16
    18c0:	2f2f0505 	svccs	0x002f0505
    18c4:	0105672f 	tsteq	r5, pc, lsr #14
    18c8:	04022f06 	streq	r2, [r2], #-3846	; 0xfffff0fa
    18cc:	9e010100 	adflss	f0, f1, f0
    18d0:	03000000 	movweq	r0, #0
    18d4:	00005a00 	andeq	r5, r0, r0, lsl #20
    18d8:	fb010200 	blx	420e2 <__bss_end__+0x3863a>
    18dc:	01000d0e 	tsteq	r0, lr, lsl #26
    18e0:	00010101 	andeq	r0, r1, r1, lsl #2
    18e4:	00010000 	andeq	r0, r1, r0
    18e8:	2f2e0100 	svccs	0x002e0100
    18ec:	6362696c 	cmnvs	r2, #108, 18	; 0x1b0000
    18f0:	73552f00 	cmpvc	r5, #0, 30
    18f4:	2f737265 	svccs	0x00737265
    18f8:	656c696d 	strbvs	r6, [ip, #-2413]!	; 0xfffff693
    18fc:	6f532f73 	svcvs	0x00532f73
    1900:	65637275 	strbvs	r7, [r3, #-629]!	; 0xfffffd8b
    1904:	3273632f 	rsbscc	r6, r3, #-1140850688	; 0xbc000000
    1908:	786c3034 	stmdavc	ip!, {r2, r4, r5, ip, sp}^
    190c:	62696c2f 	rsbvs	r6, r9, #12032	; 0x2f00
    1910:	692f6970 	stmdbvs	pc!, {r4, r5, r6, r8, fp, sp, lr}	; <UNPREDICTABLE>
    1914:	756c636e 	strbvc	r6, [ip, #-878]!	; 0xfffffc92
    1918:	00006564 	andeq	r6, r0, r4, ror #10
    191c:	63747570 	cmnvs	r4, #112, 10	; 0x1c000000
    1920:	2e726168 	rpwcssz	f6, f2, #0.0
    1924:	00010063 	andeq	r0, r1, r3, rrx
    1928:	69707200 	ldmdbvs	r0!, {r9, ip, sp, lr}^
    192c:	0200682e 	andeq	r6, r0, #3014656	; 0x2e0000
    1930:	05000000 	streq	r0, [r0, #-0]
    1934:	02050024 	andeq	r0, r5, #36, 0	; 0x24
    1938:	0000936c 	andeq	r9, r0, ip, ror #6
    193c:	01260514 			; <UNDEFINED> instruction: 0x01260514
    1940:	01062405 	tsteq	r6, r5, lsl #8
    1944:	2e26052e 	cfsh64cs	mvdx0, mvdx6, #30
    1948:	2e063405 	cdpcs	4, 0, cr3, cr6, cr5, {0}
    194c:	01060105 	tsteq	r6, r5, lsl #2
    1950:	4f061b05 	svcmi	0x00061b05
    1954:	05130505 	ldreq	r0, [r3, #-1285]	; 0xfffffafb
    1958:	05010611 	streq	r0, [r1, #-1553]	; 0xfffff9ef
    195c:	23056701 	movwcs	r6, #22273	; 0x5701
    1960:	05056706 	streq	r6, [r5, #-1798]	; 0xfffff8fa
    1964:	06110513 			; <UNDEFINED> instruction: 0x06110513
    1968:	4b010501 	blmi	42d74 <__bss_end__+0x392cc>
    196c:	01000402 	tsteq	r0, r2, lsl #8
    1970:	0000e201 	andeq	lr, r0, r1, lsl #4
    1974:	59000300 	stmdbpl	r0, {r8, r9}
    1978:	02000000 	andeq	r0, r0, #0, 0
    197c:	0d0efb01 	vstreq	d15, [lr, #-4]
    1980:	01010100 	mrseq	r0, (UNDEF: 17)
    1984:	00000001 	andeq	r0, r0, r1
    1988:	01000001 	tsteq	r0, r1
    198c:	696c2f2e 	stmdbvs	ip!, {r1, r2, r3, r5, r8, r9, sl, fp, sp}^
    1990:	2f006362 	svccs	0x00006362
    1994:	72657355 	rsbvc	r7, r5, #1409286145	; 0x54000001
    1998:	696d2f73 	stmdbvs	sp!, {r0, r1, r4, r5, r6, r8, r9, sl, fp, sp}^
    199c:	2f73656c 	svccs	0x0073656c
    19a0:	72756f53 	rsbsvc	r6, r5, #332	; 0x14c
    19a4:	632f6563 			; <UNDEFINED> instruction: 0x632f6563
    19a8:	30343273 	eorscc	r3, r4, r3, ror r2
    19ac:	6c2f786c 	stcvs	8, cr7, [pc], #-432	; 1804 <__code_start__-0x67fc>
    19b0:	69706269 	ldmdbvs	r0!, {r0, r3, r5, r6, r9, sp, lr}^
    19b4:	636e692f 	cmnvs	lr, #770048	; 0xbc000
    19b8:	6564756c 	strbvs	r7, [r4, #-1388]!	; 0xfffffa94
    19bc:	74730000 	ldrbtvc	r0, [r3], #-0
    19c0:	74616372 	strbtvc	r6, [r1], #-882	; 0xfffffc8e
    19c4:	0100632e 	tsteq	r0, lr, lsr #6
    19c8:	70720000 	rsbsvc	r0, r2, r0
    19cc:	00682e69 	rsbeq	r2, r8, r9, ror #28
    19d0:	00000002 	andeq	r0, r0, r2
    19d4:	05002c05 	streq	r2, [r0, #-3077]	; 0xfffff3fb
    19d8:	0093a802 	addseq	sl, r3, r2, lsl #16
    19dc:	05051500 	streq	r1, [r5, #-1280]	; 0xfffffb00
    19e0:	0b051313 	bleq	146634 <__bss_end__+0x13cb8c>
    19e4:	05051106 	streq	r1, [r5, #-262]	; 0xfffffefa
    19e8:	01040200 	mrseq	r0, R12_usr
    19ec:	02003006 	andeq	r3, r0, #6, 0
    19f0:	05150104 	ldreq	r0, [r5, #-260]	; 0xfffffefc
    19f4:	04020009 	streq	r0, [r2], #-9
    19f8:	0b051301 	bleq	146604 <__bss_end__+0x13cb5c>
    19fc:	01040200 	mrseq	r0, R12_usr
    1a00:	0005052f 	andeq	r0, r5, pc, lsr #10
    1a04:	06010402 	streq	r0, [r1], -r2, lsl #8
    1a08:	04020001 	streq	r0, [r2], #-1
    1a0c:	4e062e01 	cdpmi	14, 0, cr2, cr6, cr1, {0}
    1a10:	01060805 	tsteq	r6, r5, lsl #16
    1a14:	02000505 	andeq	r0, r0, #20971520	; 0x1400000
    1a18:	2f060104 	svccs	0x00060104
    1a1c:	02000905 	andeq	r0, r0, #81920	; 0x14000
    1a20:	05130104 	ldreq	r0, [r3, #-260]	; 0xfffffefc
    1a24:	0402000b 	streq	r0, [r2], #-11
    1a28:	05010601 	streq	r0, [r1, #-1537]	; 0xfffff9ff
    1a2c:	04020009 	streq	r0, [r2], #-9
    1a30:	052f0601 	streq	r0, [pc, #-1537]!	; 1437 <__code_start__-0x6bc9>
    1a34:	04020005 	streq	r0, [r2], #-5
    1a38:	05130601 	ldreq	r0, [r3, #-1537]	; 0xfffff9ff
    1a3c:	0402000f 	streq	r0, [r2], #-15
    1a40:	0d052d01 	stceq	13, cr2, [r5, #-4]
    1a44:	01040200 	mrseq	r0, R12_usr
    1a48:	05052f06 	streq	r2, [r5, #-3846]	; 0xfffff0fa
    1a4c:	01040200 	mrseq	r0, R12_usr
    1a50:	04020106 	streq	r0, [r2], #-262	; 0xfffffefa
    1a54:	b2010100 	andlt	r0, r1, #0
    1a58:	03000000 	movweq	r0, #0
    1a5c:	00005900 	andeq	r5, r0, r0, lsl #18
    1a60:	fb010200 	blx	4226a <__bss_end__+0x387c2>
    1a64:	01000d0e 	tsteq	r0, lr, lsl #26
    1a68:	00010101 	andeq	r0, r1, r1, lsl #2
    1a6c:	00010000 	andeq	r0, r1, r0
    1a70:	2f2e0100 	svccs	0x002e0100
    1a74:	6362696c 	cmnvs	r2, #108, 18	; 0x1b0000
    1a78:	73552f00 	cmpvc	r5, #0, 30
    1a7c:	2f737265 	svccs	0x00737265
    1a80:	656c696d 	strbvs	r6, [ip, #-2413]!	; 0xfffff693
    1a84:	6f532f73 	svcvs	0x00532f73
    1a88:	65637275 	strbvs	r7, [r3, #-629]!	; 0xfffffd8b
    1a8c:	3273632f 	rsbscc	r6, r3, #-1140850688	; 0xbc000000
    1a90:	786c3034 	stmdavc	ip!, {r2, r4, r5, ip, sp}^
    1a94:	62696c2f 	rsbvs	r6, r9, #12032	; 0x2f00
    1a98:	692f6970 	stmdbvs	pc!, {r4, r5, r6, r8, fp, sp, lr}	; <UNPREDICTABLE>
    1a9c:	756c636e 	strbvc	r6, [ip, #-878]!	; 0xfffffc92
    1aa0:	00006564 	andeq	r6, r0, r4, ror #10
    1aa4:	63727473 	cmnvs	r2, #1929379840	; 0x73000000
    1aa8:	632e706d 			; <UNDEFINED> instruction: 0x632e706d
    1aac:	00000100 	andeq	r0, r0, r0, lsl #2
    1ab0:	2e697072 	mcrcs	0, 3, r7, cr9, cr2, {3}
    1ab4:	00020068 	andeq	r0, r2, r8, rrx
    1ab8:	2a050000 	bcs	141ac0 <__bss_end__+0x138018>
    1abc:	d4020500 	strle	r0, [r2], #-1280	; 0xfffffb00
    1ac0:	14000093 	strne	r0, [r0], #-147	; 0xffffff6d
    1ac4:	05130905 	ldreq	r0, [r3, #-2309]	; 0xfffff6fb
    1ac8:	05010610 	streq	r0, [r1, #-1552]	; 0xfffff9f0
    1acc:	052e060f 	streq	r0, [lr, #-1551]!	; 0xfffff9f1
    1ad0:	05820610 	streq	r0, [r2, #1552]	; 0x610
    1ad4:	11052e0f 	tstne	r5, pc, lsl #28
    1ad8:	01040200 	mrseq	r0, R12_usr
    1adc:	1c054b06 			; <UNDEFINED> instruction: 0x1c054b06
    1ae0:	01040200 	mrseq	r0, R12_usr
    1ae4:	0f052d06 	svceq	0x00052d06
    1ae8:	01040200 	mrseq	r0, R12_usr
    1aec:	13052e06 	movwne	r2, #24070	; 0x5e06
    1af0:	01040200 	mrseq	r0, R12_usr
    1af4:	09050106 	stmdbeq	r5, {r1, r2, r8}
    1af8:	01054c06 	tsteq	r5, r6, lsl #24
    1afc:	054a1306 	strbeq	r1, [sl, #-774]	; 0xfffffcfa
    1b00:	052d0609 	streq	r0, [sp, #-1545]!	; 0xfffff9f7
    1b04:	2e130601 	cfmsub32cs	mvax0, mvfx0, mvfx3, mvfx1
    1b08:	01000202 	tsteq	r0, r2, lsl #4
    1b0c:	00009d01 	andeq	r9, r0, r1, lsl #26
    1b10:	59000300 	stmdbpl	r0, {r8, r9}
    1b14:	02000000 	andeq	r0, r0, #0, 0
    1b18:	0d0efb01 	vstreq	d15, [lr, #-4]
    1b1c:	01010100 	mrseq	r0, (UNDEF: 17)
    1b20:	00000001 	andeq	r0, r0, r1
    1b24:	01000001 	tsteq	r0, r1
    1b28:	696c2f2e 	stmdbvs	ip!, {r1, r2, r3, r5, r8, r9, sl, fp, sp}^
    1b2c:	2f006362 	svccs	0x00006362
    1b30:	72657355 	rsbvc	r7, r5, #1409286145	; 0x54000001
    1b34:	696d2f73 	stmdbvs	sp!, {r0, r1, r4, r5, r6, r8, r9, sl, fp, sp}^
    1b38:	2f73656c 	svccs	0x0073656c
    1b3c:	72756f53 	rsbsvc	r6, r5, #332	; 0x14c
    1b40:	632f6563 			; <UNDEFINED> instruction: 0x632f6563
    1b44:	30343273 	eorscc	r3, r4, r3, ror r2
    1b48:	6c2f786c 	stcvs	8, cr7, [pc], #-432	; 19a0 <__code_start__-0x6660>
    1b4c:	69706269 	ldmdbvs	r0!, {r0, r3, r5, r6, r9, sp, lr}^
    1b50:	636e692f 	cmnvs	lr, #770048	; 0xbc000
    1b54:	6564756c 	strbvs	r7, [r4, #-1388]!	; 0xfffffa94
    1b58:	74730000 	ldrbtvc	r0, [r3], #-0
    1b5c:	79706372 	ldmdbvc	r0!, {r1, r4, r5, r6, r8, r9, sp, lr}^
    1b60:	0100632e 	tsteq	r0, lr, lsr #6
    1b64:	70720000 	rsbsvc	r0, r2, r0
    1b68:	00682e69 	rsbeq	r2, r8, r9, ror #28
    1b6c:	00000002 	andeq	r0, r0, r2
    1b70:	05002a05 	streq	r2, [r0, #-2565]	; 0xfffff5fb
    1b74:	00941802 	addseq	r1, r4, r2, lsl #16
    1b78:	05051400 	streq	r1, [r5, #-1024]	; 0xfffffc00
    1b7c:	22051313 	andcs	r1, r5, #1275068416	; 0x4c000000
    1b80:	01040200 	mrseq	r0, R12_usr
    1b84:	000b052e 	andeq	r0, fp, lr, lsr #10
    1b88:	01010402 	tsteq	r1, r2, lsl #8
    1b8c:	02001505 	andeq	r1, r0, #20971520	; 0x1400000
    1b90:	01060104 	tsteq	r6, r4, lsl #2
    1b94:	02000b05 	andeq	r0, r0, #5120	; 0x1400
    1b98:	052e0104 	streq	r0, [lr, #-260]!	; 0xfffffefc
    1b9c:	04020013 	streq	r0, [r2], #-19	; 0xffffffed
    1ba0:	0b052e01 	bleq	14d3ac <__bss_end__+0x143904>
    1ba4:	01040200 	mrseq	r0, R12_usr
    1ba8:	0004022e 	andeq	r0, r4, lr, lsr #4
    1bac:	00fd0101 	rscseq	r0, sp, r1, lsl #2
    1bb0:	00030000 	andeq	r0, r3, r0
    1bb4:	000000bf 	strheq	r0, [r0], -pc	; <UNPREDICTABLE>
    1bb8:	0efb0102 	cdpeq	1, 15, cr0, cr11, cr2, {0}
    1bbc:	0101000d 	tsteq	r1, sp
    1bc0:	00000101 	andeq	r0, r0, r1, lsl #2
    1bc4:	00000100 	andeq	r0, r0, r0, lsl #2
    1bc8:	6c2f2e01 	stcvs	14, cr2, [pc], #-4	; 1bcc <__code_start__-0x6434>
    1bcc:	00636269 	rsbeq	r6, r3, r9, ror #4
    1bd0:	6573552f 	ldrbvs	r5, [r3, #-1327]!	; 0xfffffad1
    1bd4:	6d2f7372 	stcvs	3, cr7, [pc, #-456]!	; 1a14 <__code_start__-0x65ec>
    1bd8:	73656c69 	cmnvc	r5, #26880	; 0x6900
    1bdc:	756f532f 	strbvc	r5, [pc, #-815]!	; 18b5 <__code_start__-0x674b>
    1be0:	2f656372 	svccs	0x00656372
    1be4:	34327363 	ldrtcc	r7, [r2], #-867	; 0xfffffc9d
    1be8:	2f786c30 	svccs	0x00786c30
    1bec:	7062696c 	rsbvc	r6, r2, ip, ror #18
    1bf0:	6e692f69 	cdpvs	15, 6, cr2, cr9, cr9, {3}
    1bf4:	64756c63 	ldrbtvs	r6, [r5], #-3171	; 0xfffff39d
    1bf8:	6f2f0065 	svcvs	0x002f0065
    1bfc:	682f7470 	stmdavs	pc!, {r4, r5, r6, sl, ip, sp, lr}	; <UNPREDICTABLE>
    1c00:	62656d6f 	rsbvs	r6, r5, #7104	; 0x1bc0
    1c04:	2f776572 	svccs	0x00776572
    1c08:	6c6c6543 	cfstr64vs	mvdx6, [ip], #-268	; 0xfffffef4
    1c0c:	612f7261 			; <UNDEFINED> instruction: 0x612f7261
    1c10:	6e2d6d72 	mcrvs	13, 1, r6, cr13, cr2, {3}
    1c14:	2d656e6f 	stclcs	14, cr6, [r5, #-444]!	; 0xfffffe44
    1c18:	69626165 	stmdbvs	r2!, {r0, r2, r5, r6, r8, sp, lr}^
    1c1c:	392f392d 	stmdbcc	pc!, {r0, r2, r3, r5, r8, fp, ip, sp}	; <UNPREDICTABLE>
    1c20:	3130322d 	teqcc	r0, sp, lsr #4
    1c24:	2d347139 	ldfcss	f7, [r4, #-228]!	; 0xffffff1c
    1c28:	30317363 	eorscc	r7, r1, r3, ror #6
    1c2c:	6c2f6537 	cfstr32vs	mvfx6, [pc], #-220	; 1b58 <__code_start__-0x64a8>
    1c30:	672f6269 	strvs	r6, [pc, -r9, ror #4]!
    1c34:	612f6363 			; <UNDEFINED> instruction: 0x612f6363
    1c38:	6e2d6d72 	mcrvs	13, 1, r6, cr13, cr2, {3}
    1c3c:	2d656e6f 	stclcs	14, cr6, [r5, #-444]!	; 0xfffffe44
    1c40:	69626165 	stmdbvs	r2!, {r0, r2, r5, r6, r8, sp, lr}^
    1c44:	322e392f 	eorcc	r3, lr, #770048	; 0xbc000
    1c48:	692f312e 	stmdbvs	pc!, {r1, r2, r3, r5, r8, ip, sp}	; <UNPREDICTABLE>
    1c4c:	756c636e 	strbvc	r6, [ip, #-878]!	; 0xfffffc92
    1c50:	00006564 	andeq	r6, r0, r4, ror #10
    1c54:	6e727473 	mrcvs	4, 3, r7, cr2, cr3, {3}
    1c58:	2e706d63 	cdpcs	13, 7, cr6, cr0, cr3, {3}
    1c5c:	00010063 	andeq	r0, r1, r3, rrx
    1c60:	69707200 	ldmdbvs	r0!, {r9, ip, sp, lr}^
    1c64:	0200682e 	andeq	r6, r0, #3014656	; 0x2e0000
    1c68:	74730000 	ldrbtvc	r0, [r3], #-0
    1c6c:	66656464 	strbtvs	r6, [r5], -r4, ror #8
    1c70:	0300682e 	movweq	r6, #2094	; 0x82e
    1c74:	05000000 	streq	r0, [r0, #-0]
    1c78:	02050039 	andeq	r0, r5, #57, 0	; 0x39
    1c7c:	00009430 	andeq	r9, r0, r0, lsr r4
    1c80:	13050515 	movwne	r0, #21781	; 0x5515
    1c84:	060a0513 			; <UNDEFINED> instruction: 0x060a0513
    1c88:	2f0c052e 	svccs	0x000c052e
    1c8c:	052e1305 	streq	r1, [lr, #-773]!	; 0xfffffcfb
    1c90:	09052e0b 	stmdbeq	r5, {r0, r1, r3, r9, sl, fp, sp}
    1c94:	0a054a06 	beq	1544b4 <__bss_end__+0x14aa0c>
    1c98:	05010611 	streq	r0, [r1, #-1553]	; 0xfffff9ef
    1c9c:	01054e0c 	tsteq	r5, ip, lsl #28
    1ca0:	060d052f 	streq	r0, [sp], -pc, lsr #10
    1ca4:	061b052b 	ldreq	r0, [fp], -fp, lsr #10
    1ca8:	02022e01 	andeq	r2, r2, #1, 28
    1cac:	8a010100 	bhi	420b4 <__bss_end__+0x3860c>
    1cb0:	03000000 	movweq	r0, #0
    1cb4:	00006e00 	andeq	r6, r0, r0, lsl #28
    1cb8:	fb010200 	blx	424c2 <__bss_end__+0x38a1a>
    1cbc:	01000d0e 	tsteq	r0, lr, lsl #26
    1cc0:	00010101 	andeq	r0, r1, r1, lsl #2
    1cc4:	00010000 	andeq	r0, r1, r0
    1cc8:	2f2e0100 	svccs	0x002e0100
    1ccc:	66617473 			; <UNDEFINED> instruction: 0x66617473
    1cd0:	72732d66 	rsbsvc	r2, r3, #6528	; 0x1980
    1cd4:	552f0063 	strpl	r0, [pc, #-99]!	; 1c79 <__code_start__-0x6387>
    1cd8:	73726573 	cmnvc	r2, #482344960	; 0x1cc00000
    1cdc:	6c696d2f 	stclvs	13, cr6, [r9], #-188	; 0xffffff44
    1ce0:	532f7365 			; <UNDEFINED> instruction: 0x532f7365
    1ce4:	6372756f 	cmnvs	r2, #465567744	; 0x1bc00000
    1ce8:	73632f65 	cmnvc	r3, #404	; 0x194
    1cec:	6c303432 	cfldrsvs	mvf3, [r0], #-200	; 0xffffff38
    1cf0:	696c2f78 	stmdbvs	ip!, {r3, r4, r5, r6, r8, r9, sl, fp, sp}^
    1cf4:	2f697062 	svccs	0x00697062
    1cf8:	6c636e69 	stclvs	14, cr6, [r3], #-420	; 0xfffffe5c
    1cfc:	00656475 	rsbeq	r6, r5, r5, ror r4
    1d00:	66656400 	strbtvs	r6, [r5], -r0, lsl #8
    1d04:	746c7561 	strbtvc	r7, [ip], #-1377	; 0xfffffa9f
    1d08:	6265722d 	rsbvs	r7, r5, #-805306366	; 0xd0000002
    1d0c:	2d746f6f 	ldclcs	15, cr6, [r4, #-444]!	; 0xfffffe44
    1d10:	6c6c6163 	stfvse	f6, [ip], #-396	; 0xfffffe74
    1d14:	2e74756f 	cdpcs	5, 7, cr7, cr4, cr15, {3}
    1d18:	00010063 	andeq	r0, r1, r3, rrx
    1d1c:	69707200 	ldmdbvs	r0!, {r9, ip, sp, lr}^
    1d20:	0200682e 	andeq	r6, r0, #3014656	; 0x2e0000
    1d24:	05000000 	streq	r0, [r0, #-0]
    1d28:	0205001b 	andeq	r0, r5, #27, 0
    1d2c:	00009460 	andeq	r9, r0, r0, ror #8
    1d30:	011c0514 	tsteq	ip, r4, lsl r5
    1d34:	01060105 	tsteq	r6, r5, lsl #2
    1d38:	01000202 	tsteq	r0, r2, lsl #4
    1d3c:	Address 0x0000000000001d3c is out of bounds.


Disassembly of section .debug_str:

00000000 <.debug_str>:
   0:	6573552f 	ldrbvs	r5, [r3, #-1327]!	; 0xfffffad1
   4:	6d2f7372 	stcvs	3, cr7, [pc, #-456]!	; fffffe44 <__bss_end__+0xffff639c>
   8:	73656c69 	cmnvc	r5, #26880	; 0x6900
   c:	756f532f 	strbvc	r5, [pc, #-815]!	; fffffce5 <__bss_end__+0xffff623d>
  10:	2f656372 	svccs	0x00656372
  14:	34327363 	ldrtcc	r7, [r2], #-867	; 0xfffffc9d
  18:	2f786c30 	svccs	0x00786c30
  1c:	7362616c 	cmnvc	r2, #27
  20:	642d332f 	strtvs	r3, [sp], #-815	; 0xfffffcd1
  24:	74696769 	strbtvc	r6, [r9], #-1897	; 0xfffff897
  28:	612d6c61 			; <UNDEFINED> instruction: 0x612d6c61
  2c:	796c616e 	stmdbvc	ip!, {r1, r2, r3, r5, r6, r8, sp, lr}^
  30:	2f72657a 	svccs	0x0072657a
  34:	65646f63 	strbvs	r6, [r4, #-3939]!	; 0xfffff09d
  38:	6f63732f 	svcvs	0x0063732f
  3c:	73006570 	movwvc	r6, #1392	; 0x570
  40:	74726f68 	ldrbtvc	r6, [r2], #-3944	; 0xfffff098
  44:	746e6920 	strbtvc	r6, [lr], #-2336	; 0xfffff6e0
  48:	756f5f00 	strbvc	r5, [pc, #-3840]!	; fffff150 <__bss_end__+0xffff56a8>
  4c:	70720074 	rsbsvc	r0, r2, r4, ror r0
  50:	75705f69 	ldrbvc	r5, [r0, #-3945]!	; 0xfffff097
  54:	61686374 	smcvs	34356	; 0x8634
  58:	63730072 	cmnvs	r3, #114, 0	; 0x72
  5c:	2e65706f 	cdpcs	0, 6, cr7, cr5, cr15, {3}
  60:	6c630063 	stclvs	0, cr0, [r3], #-396	; 0xfffffe74
  64:	5f6e6165 	svcpl	0x006e6165
  68:	6f626572 	svcvs	0x00626572
  6c:	7400746f 	strvc	r7, [r0], #-1135	; 0xfffffb91
  70:	655f746f 	ldrbvs	r7, [pc, #-1135]	; fffffc09 <__bss_end__+0xffff6161>
  74:	6c007272 	sfmvs	f7, 4, [r0], {114}	; 0x72
  78:	655f676f 	ldrbvs	r6, [pc, #-1903]	; fffff911 <__bss_end__+0xffff5e69>
  7c:	745f746e 	ldrbvc	r7, [pc], #-1134	; 84 <__code_start__-0x7f7c>
  80:	65737500 	ldrbvs	r7, [r3, #-1280]!	; 0xfffffb00
  84:	6f745f63 	svcvs	0x00745f63
  88:	6379635f 	cmnvs	r9, #2080374785	; 0x7c000001
  8c:	6700656c 	strvs	r6, [r0, -ip, ror #10]
  90:	5f6f6970 	svcpl	0x006f6970
  94:	64616572 	strbtvs	r6, [r1], #-1394	; 0xfffffa8e
  98:	6e69705f 	mcrvs	0, 3, r7, cr9, cr15, {2}
  9c:	6e6f6c00 	cdpvs	12, 6, cr6, cr15, cr0, {0}
  a0:	6f6c2067 	svcvs	0x006c2067
  a4:	6920676e 	stmdbvs	r0!, {r1, r2, r3, r5, r6, r8, r9, sl, sp, lr}
  a8:	6d00746e 	cfstrsvs	mvf7, [r0, #-440]	; 0xfffffe48
  ac:	5f636573 	svcpl	0x00636573
  b0:	635f6f74 	cmpvs	pc, #116, 30	; 0x1d0
  b4:	656c6379 	strbvs	r6, [ip, #-889]!	; 0xfffffc87
  b8:	72657000 	rsbvc	r7, r5, #0, 0
  bc:	00646f69 	rsbeq	r6, r4, r9, ror #30
  c0:	55465f5f 	strbpl	r5, [r6, #-3935]	; 0xfffff0a1
  c4:	4954434e 	ldmdbmi	r4, {r1, r2, r3, r6, r8, r9, lr}^
  c8:	5f5f4e4f 	svcpl	0x005f4e4f
  cc:	79636e00 	stmdbvc	r3!, {r9, sl, fp, sp, lr}^
  d0:	6e650063 	cdpvs	0, 6, cr0, cr5, cr3, {3}
  d4:	656c6261 	strbvs	r6, [ip, #-609]!	; 0xfffffd9f
  d8:	6361635f 	cmnvs	r1, #2080374785	; 0x7c000001
  dc:	50006568 	andpl	r6, r0, r8, ror #10
  e0:	4d5f4e49 	ldclmi	14, cr4, [pc, #-292]	; ffffffc4 <__bss_end__+0xffff651c>
  e4:	004b5341 	subeq	r5, fp, r1, asr #6
  e8:	69736e75 	ldmdbvs	r3!, {r0, r2, r4, r5, r6, r9, sl, fp, sp, lr}^
  ec:	64656e67 	strbtvs	r6, [r5], #-3687	; 0xfffff199
  f0:	61686320 	cmnvs	r8, r0, lsr #6
  f4:	636e0072 	cmnvs	lr, #114, 0	; 0x72
  f8:	656c6379 	strbvs	r6, [ip, #-889]!	; 0xfffffc87
  fc:	6f6c0073 	svcvs	0x006c0073
 100:	6c20676e 	stcvs	7, cr6, [r0], #-440	; 0xfffffe48
 104:	20676e6f 	rsbcs	r6, r7, pc, ror #28
 108:	69736e75 	ldmdbvs	r3!, {r0, r2, r4, r5, r6, r9, sl, fp, sp, lr}^
 10c:	64656e67 	strbtvs	r6, [r5], #-3687	; 0xfffff199
 110:	746e6920 	strbtvc	r6, [lr], #-2336	; 0xfffff6e0
 114:	6e697500 	cdpvs	5, 6, cr7, cr9, cr0, {0}
 118:	5f323374 	svcpl	0x00323374
 11c:	6f6e0074 	svcvs	0x006e0074
 120:	69616d74 	stmdbvs	r1!, {r2, r4, r5, r6, r8, sl, fp, sp, lr}^
 124:	6873006e 	ldmdavs	r3!, {r1, r2, r3, r5, r6}^
 128:	2074726f 	rsbscs	r7, r4, pc, ror #4
 12c:	69736e75 	ldmdbvs	r3!, {r0, r2, r4, r5, r6, r9, sl, fp, sp, lr}^
 130:	64656e67 	strbtvs	r6, [r5], #-3687	; 0xfffff199
 134:	746e6920 	strbtvc	r6, [lr], #-2336	; 0xfffff6e0
 138:	78616d00 	stmdavc	r1!, {r8, sl, fp, sp, lr}^
 13c:	6379635f 	cmnvs	r9, #2080374785	; 0x7c000001
 140:	0073656c 	rsbseq	r6, r3, ip, ror #10
 144:	20554e47 	subscs	r4, r5, r7, asr #28
 148:	20393943 	eorscs	r3, r9, r3, asr #18
 14c:	2e322e39 	mrccs	14, 1, r2, cr2, cr9, {1}
 150:	30322031 	eorscc	r2, r2, r1, lsr r0
 154:	30313931 	eorscc	r3, r1, r1, lsr r9
 158:	28203532 	stmdacs	r0!, {r1, r4, r5, r8, sl, ip, sp}
 15c:	656c6572 	strbvs	r6, [ip, #-1394]!	; 0xfffffa8e
 160:	29657361 	stmdbcs	r5!, {r0, r5, r6, r8, r9, ip, sp, lr}^
 164:	52415b20 	subpl	r5, r1, #32, 22	; 0x8000
 168:	72612f4d 	rsbvc	r2, r1, #308	; 0x134
 16c:	2d392d6d 	ldccs	13, cr2, [r9, #-436]!	; 0xfffffe4c
 170:	6e617262 	cdpvs	2, 6, cr7, cr1, cr2, {3}
 174:	72206863 	eorvc	r6, r0, #6488064	; 0x630000
 178:	73697665 	cmnvc	r9, #105906176	; 0x6500000
 17c:	206e6f69 	rsbcs	r6, lr, r9, ror #30
 180:	35373732 	ldrcc	r3, [r7, #-1842]!	; 0xfffff8ce
 184:	205d3939 	subscs	r3, sp, r9, lsr r9
 188:	70636d2d 	rsbvc	r6, r3, sp, lsr #26
 18c:	72613d75 	rsbvc	r3, r1, #7488	; 0x1d40
 190:	3731316d 	ldrcc	r3, [r1, -sp, ror #2]!
 194:	667a6a36 			; <UNDEFINED> instruction: 0x667a6a36
 198:	2d20732d 	stccs	3, cr7, [r0, #-180]!	; 0xffffff4c
 19c:	6e75746d 	cdpvs	4, 7, cr7, cr5, cr13, {3}
 1a0:	72613d65 	rsbvc	r3, r1, #6464	; 0x1940
 1a4:	3731316d 	ldrcc	r3, [r1, -sp, ror #2]!
 1a8:	667a6a36 			; <UNDEFINED> instruction: 0x667a6a36
 1ac:	2d20732d 	stccs	3, cr7, [r0, #-180]!	; 0xffffff4c
 1b0:	6f6c666d 	svcvs	0x006c666d
 1b4:	612d7461 			; <UNDEFINED> instruction: 0x612d7461
 1b8:	733d6962 	teqvc	sp, #1605632	; 0x188000
 1bc:	2074666f 	rsbscs	r6, r4, pc, ror #12
 1c0:	72616d2d 	rsbvc	r6, r1, #2880	; 0xb40
 1c4:	6d2d206d 	stcvs	0, cr2, [sp, #-436]!	; 0xfffffe4c
 1c8:	68637261 	stmdavs	r3!, {r0, r5, r6, r9, ip, sp, lr}^
 1cc:	6d72613d 	ldfvse	f6, [r2, #-244]!	; 0xffffff0c
 1d0:	7a6b3676 	bvc	1acdbb0 <__bss_end__+0x1ac4108>
 1d4:	67672d20 	strbvs	r2, [r7, -r0, lsr #26]!
 1d8:	2d206264 	sfmcs	f6, 4, [r0, #-400]!	; 0xfffffe70
 1dc:	7361664f 	cmnvc	r1, #82837504	; 0x4f00000
 1e0:	732d2074 			; <UNDEFINED> instruction: 0x732d2074
 1e4:	673d6474 			; <UNDEFINED> instruction: 0x673d6474
 1e8:	3939756e 	ldmdbcc	r9!, {r1, r2, r3, r5, r6, r8, sl, ip, sp, lr}
 1ec:	66662d20 	strbtvs	r2, [r6], -r0, lsr #26
 1f0:	73656572 	cmnvc	r5, #478150656	; 0x1c800000
 1f4:	646e6174 	strbtvs	r6, [lr], #-372	; 0xfffffe8c
 1f8:	00676e69 	rsbeq	r6, r7, r9, ror #28
 1fc:	706d7564 	rsbvc	r7, sp, r4, ror #10
 200:	6d61735f 	stclvs	3, cr7, [r1, #-380]!	; 0xfffffe84
 204:	73656c70 	cmnvc	r5, #112, 24	; 0x7000
 208:	69706700 	ldmdbvs	r0!, {r8, r9, sl, sp, lr}^
 20c:	656c5f6f 	strbvs	r5, [ip, #-3951]!	; 0xfffff091
 210:	65003076 	strvs	r3, [r0, #-118]	; 0xffffff8a
 214:	635f646e 	cmpvs	pc, #1845493760	; 0x6e000000
 218:	635f6379 	cmpvs	pc, #-469762047	; 0xe4000001
 21c:	746e756f 	strbtvc	r7, [lr], #-1391	; 0xfffffa91
 220:	69706700 	ldmdbvs	r0!, {r8, r9, sl, sp, lr}^
 224:	65735f6f 	ldrbvs	r5, [r3, #-3951]!	; 0xfffff091
 228:	6e695f74 	mcrvs	15, 3, r5, cr9, cr4, {3}
 22c:	00747570 	rsbseq	r7, r4, r0, ror r5
 230:	76657270 			; <UNDEFINED> instruction: 0x76657270
 234:	6d5f6e00 	ldclvs	14, cr6, [pc, #-0]	; 23c <__code_start__-0x7dc4>
 238:	67007861 	strvs	r7, [r0, -r1, ror #16]
 23c:	5f6f6970 	svcpl	0x006f6970
 240:	30726c63 	rsbscc	r6, r2, r3, ror #24
 244:	69706700 	ldmdbvs	r0!, {r8, r9, sl, sp, lr}^
 248:	65735f6f 	ldrbvs	r5, [r3, #-3951]!	; 0xfffff091
 24c:	67003074 	smlsdxvs	r0, r4, r0, r3
 250:	5f6f6970 	svcpl	0x006f6970
 254:	74697277 	strbtvc	r7, [r9], #-631	; 0xfffffd89
 258:	50470065 	subpl	r0, r7, r5, rrx
 25c:	465f4f49 	ldrbmi	r4, [pc], -r9, asr #30
 260:	5f434e55 	svcpl	0x00434e55
 264:	5054554f 	subspl	r5, r4, pc, asr #10
 268:	44005455 	strmi	r5, [r0], #-1109	; 0xfffffbab
 26c:	565f5645 	ldrbpl	r5, [pc], -r5, asr #12
 270:	32334c41 	eorscc	r4, r3, #16640	; 0x4100
 274:	554e4700 	strbpl	r4, [lr, #-1792]	; 0xfffff900
 278:	39394320 	ldmdbcc	r9!, {r5, r8, r9, lr}
 27c:	2e313120 	rsfcssp	f3, f1, f0
 280:	20312e32 	eorscs	r2, r1, r2, lsr lr
 284:	32323032 	eorscc	r3, r2, #50, 0	; 0x32
 288:	31313130 	teqcc	r1, r0, lsr r1
 28c:	636d2d20 	cmnvs	sp, #32, 26	; 0x800
 290:	613d7570 	teqvs	sp, r0, ror r5
 294:	31316d72 	teqcc	r1, r2, ror sp
 298:	7a6a3637 	bvc	1a8db7c <__bss_end__+0x1a840d4>
 29c:	20732d66 	rsbscs	r2, r3, r6, ror #26
 2a0:	75746d2d 	ldrbvc	r6, [r4, #-3373]!	; 0xfffff2d3
 2a4:	613d656e 	teqvs	sp, lr, ror #10
 2a8:	31316d72 	teqcc	r1, r2, ror sp
 2ac:	7a6a3637 	bvc	1a8db90 <__bss_end__+0x1a840e8>
 2b0:	20732d66 	rsbscs	r2, r3, r6, ror #26
 2b4:	6c666d2d 	stclvs	13, cr6, [r6], #-180	; 0xffffff4c
 2b8:	2d74616f 	ldfcse	f6, [r4, #-444]!	; 0xfffffe44
 2bc:	3d696261 	sfmcc	f6, 2, [r9, #-388]!	; 0xfffffe7c
 2c0:	74666f73 	strbtvc	r6, [r6], #-3955	; 0xfffff08d
 2c4:	616d2d20 	cmnvs	sp, r0, lsr #26
 2c8:	2d206d72 	stccs	13, cr6, [r0, #-456]!	; 0xfffffe38
 2cc:	6372616d 	cmnvs	r2, #1073741851	; 0x4000001b
 2d0:	72613d68 	rsbvc	r3, r1, #104, 26	; 0x1a00
 2d4:	6b36766d 	blvs	d9dc90 <__bss_end__+0xd941e8>
 2d8:	672d207a 			; <UNDEFINED> instruction: 0x672d207a
 2dc:	20626467 	rsbcs	r6, r2, r7, ror #8
 2e0:	61664f2d 	cmnvs	r6, sp, lsr #30
 2e4:	2d207473 	cfstrscs	mvf7, [r0, #-460]!	; 0xfffffe34
 2e8:	3d647473 	cfstrdcc	mvd7, [r4, #-460]!	; 0xfffffe34
 2ec:	39756e67 	ldmdbcc	r5!, {r0, r1, r2, r5, r6, r9, sl, fp, sp, lr}^
 2f0:	662d2039 			; <UNDEFINED> instruction: 0x662d2039
 2f4:	65657266 	strbvs	r7, [r5, #-614]!	; 0xfffffd9a
 2f8:	6e617473 	mcrvs	4, 3, r7, cr1, cr3, {3}
 2fc:	676e6964 	strbvs	r6, [lr, -r4, ror #18]!
 300:	54555000 	ldrbpl	r5, [r5], #-0
 304:	67003233 	smladxvs	r0, r3, r2, r3
 308:	5f6f6970 	svcpl	0x006f6970
 30c:	64616572 	strbtvs	r6, [r1], #-1394	; 0xfffffa8e
 310:	54454700 	strbpl	r4, [r5], #-1792	; 0xfffff900
 314:	47003233 	smladxmi	r0, r3, r2, r3
 318:	5f4f4950 	svcpl	0x004f4950
 31c:	434e5546 	movtmi	r5, #58694	; 0xe546
 320:	544c415f 	strbpl	r4, [ip], #-351	; 0xfffffea1
 324:	50470030 	subpl	r0, r7, r0, lsr r0
 328:	465f4f49 	ldrbmi	r4, [pc], -r9, asr #30
 32c:	5f434e55 	svcpl	0x00434e55
 330:	31544c41 	cmpcc	r4, r1, asr #24
 334:	49504700 	ldmdbmi	r0, {r8, r9, sl, lr}^
 338:	55465f4f 	strbpl	r5, [r6, #-3919]	; 0xfffff0b1
 33c:	415f434e 	cmpmi	pc, lr, asr #6
 340:	0032544c 	eorseq	r5, r2, ip, asr #8
 344:	4f495047 	svcmi	0x00495047
 348:	4e55465f 	mrcmi	6, 2, r4, cr5, cr15, {2}
 34c:	4c415f43 	mcrrmi	15, 4, r5, r1, cr3
 350:	47003354 	smlsdmi	r0, r4, r3, r3
 354:	5f4f4950 	svcpl	0x004f4950
 358:	434e5546 	movtmi	r5, #58694	; 0xe546
 35c:	544c415f 	strbpl	r4, [ip], #-351	; 0xfffffea1
 360:	2f2e0035 	svccs	0x002e0035
 364:	2f637273 	svccs	0x00637273
 368:	6f697067 	svcvs	0x00697067
 36c:	6700632e 	strvs	r6, [r0, -lr, lsr #6]
 370:	5f6f6970 	svcpl	0x006f6970
 374:	5f746573 	svcpl	0x00746573
 378:	0066666f 	rsbeq	r6, r6, pc, ror #12
 37c:	6f697067 	svcvs	0x00697067
 380:	7465735f 	strbtvc	r7, [r5], #-863	; 0xfffffca1
 384:	74756f5f 	ldrbtvc	r6, [r5], #-3935	; 0xfffff0a1
 388:	00747570 	rsbseq	r7, r4, r0, ror r5
 38c:	636e7566 	cmnvs	lr, #427819008	; 0x19800000
 390:	69706700 	ldmdbvs	r0!, {r8, r9, sl, sp, lr}^
 394:	75665f6f 	strbvc	r5, [r6, #-3951]!	; 0xfffff091
 398:	745f636e 	ldrbvc	r6, [pc], #-878	; 3a0 <__code_start__-0x7c60>
 39c:	49504700 	ldmdbmi	r0, {r8, r9, sl, lr}^
 3a0:	55465f4f 	strbpl	r5, [r6, #-3919]	; 0xfffff0b1
 3a4:	415f434e 	cmpmi	pc, lr, asr #6
 3a8:	0034544c 	eorseq	r5, r4, ip, asr #8
 3ac:	6573552f 	ldrbvs	r5, [r3, #-1327]!	; 0xfffffad1
 3b0:	6d2f7372 	stcvs	3, cr7, [pc, #-456]!	; 1f0 <__code_start__-0x7e10>
 3b4:	73656c69 	cmnvc	r5, #26880	; 0x6900
 3b8:	756f532f 	strbvc	r5, [pc, #-815]!	; 91 <__code_start__-0x7f6f>
 3bc:	2f656372 	svccs	0x00656372
 3c0:	34327363 	ldrtcc	r7, [r2], #-867	; 0xfffffc9d
 3c4:	2f786c30 	svccs	0x00786c30
 3c8:	7062696c 	rsbvc	r6, r2, ip, ror #18
 3cc:	61620069 	cmnvs	r2, r9, rrx
 3d0:	47006b6e 	strmi	r6, [r0, -lr, ror #22]
 3d4:	5f4f4950 	svcpl	0x004f4950
 3d8:	434e5546 	movtmi	r5, #58694	; 0xe546
 3dc:	504e495f 	subpl	r4, lr, pc, asr r9
 3e0:	67005455 	smlsdvs	r0, r5, r4, r5
 3e4:	5f6f6970 	svcpl	0x006f6970
 3e8:	5f746573 	svcpl	0x00746573
 3ec:	636e7566 	cmnvs	lr, #427819008	; 0x19800000
 3f0:	6e6f6974 			; <UNDEFINED> instruction: 0x6e6f6974
 3f4:	69706700 	ldmdbvs	r0!, {r8, r9, sl, sp, lr}^
 3f8:	65735f6f 	ldrbvs	r5, [r3, #-3951]!	; 0xfffff091
 3fc:	6e6f5f74 	mcrvs	15, 3, r5, cr15, cr4, {3}
 400:	67726100 	ldrbvs	r6, [r2, -r0, lsl #2]!
 404:	61760073 	cmnvs	r6, r3, ror r0
 408:	6972705f 	ldmdbvs	r2!, {r0, r1, r2, r3, r4, r6, ip, sp, lr}^
 40c:	006b746e 	rsbeq	r7, fp, lr, ror #8
 410:	6e675f5f 	mcrvs	15, 3, r5, cr7, cr15, {2}
 414:	765f6375 			; <UNDEFINED> instruction: 0x765f6375
 418:	696c5f61 	stmdbvs	ip!, {r0, r5, r6, r8, r9, sl, fp, ip, lr}^
 41c:	5f007473 	svcpl	0x00007473
 420:	0070615f 	rsbseq	r6, r0, pc, asr r1
 424:	696c2f2e 	stmdbvs	ip!, {r1, r2, r3, r5, r8, r9, sl, fp, sp}^
 428:	702f6362 	eorvc	r6, pc, r2, ror #6
 42c:	746e6972 	strbtvc	r6, [lr], #-2418	; 0xfffff68e
 430:	00632e6b 	rsbeq	r2, r3, fp, ror #28
 434:	61765f5f 	cmnvs	r6, pc, asr pc
 438:	73696c5f 	cmnvc	r9, #24320	; 0x5f00
 43c:	6e690074 	mcrvs	0, 3, r0, cr9, cr4, {3}
 440:	6e726574 	mrcvs	5, 3, r6, cr2, cr4, {3}
 444:	705f6c61 	subsvc	r6, pc, r1, ror #24
 448:	006b7475 	rsbeq	r7, fp, r5, ror r4
 44c:	696c2f2e 	stmdbvs	ip!, {r1, r2, r3, r5, r8, r9, sl, fp, sp}^
 450:	702f6362 	eorvc	r6, pc, r2, ror #6
 454:	2e6b7475 	mcrcs	4, 3, r7, cr11, cr5, {3}
 458:	73690063 	cmnvc	r9, #99, 0	; 0x63
 45c:	69676964 	stmdbvs	r7!, {r2, r5, r6, r8, fp, sp, lr}^
 460:	69750074 	ldmdbvs	r5!, {r2, r4, r5, r6}^
 464:	3436746e 	ldrtcc	r7, [r6], #-1134	; 0xfffffb92
 468:	2e00745f 	cfmvsrcs	mvf0, r7
 46c:	62696c2f 	rsbvs	r6, r9, #12032	; 0x2f00
 470:	61762f63 	cmnvs	r6, r3, ror #30
 474:	6972702d 	ldmdbvs	r2!, {r0, r2, r3, r5, ip, sp, lr}^
 478:	2e6b746e 	cdpcs	4, 6, cr7, cr11, cr14, {3}
 47c:	5f5f0063 	svcpl	0x005f0063
 480:	65646f63 	strbvs	r6, [r4, #-3939]!	; 0xfffff09d
 484:	6174735f 	cmnvs	r4, pc, asr r3
 488:	5f5f7472 	svcpl	0x005f7472
 48c:	625f5f00 	subsvs	r5, pc, #0, 30
 490:	735f7373 	cmpvc	pc, #-872415231	; 0xcc000001
 494:	74726174 	ldrbtvc	r6, [r2], #-372	; 0xfffffe8c
 498:	77005f5f 	smlsdvc	r0, pc, pc, r5	; <UNPREDICTABLE>
 49c:	68746469 	ldmdavs	r4!, {r0, r3, r5, r6, sl, sp, lr}^
 4a0:	645f5f00 	ldrbvs	r5, [pc], #-3840	; 4a8 <__code_start__-0x7b58>
 4a4:	5f617461 	svcpl	0x00617461
 4a8:	5f646e65 	svcpl	0x00646e65
 4ac:	7570005f 	ldrbvc	r0, [r0, #-95]!	; 0xffffffa1
 4b0:	665f6374 			; <UNDEFINED> instruction: 0x665f6374
 4b4:	5f5f0070 	svcpl	0x005f0070
 4b8:	5f737362 	svcpl	0x00737362
 4bc:	5f646e65 	svcpl	0x00646e65
 4c0:	5f5f005f 	svcpl	0x005f005f
 4c4:	70616568 	rsbvc	r6, r1, r8, ror #10
 4c8:	6174735f 	cmnvs	r4, pc, asr r3
 4cc:	5f5f7472 	svcpl	0x005f7472
 4d0:	69707200 	ldmdbvs	r0!, {r9, ip, sp, lr}^
 4d4:	7465735f 	strbtvc	r7, [r5], #-863	; 0xfffffca1
 4d8:	74756f5f 	ldrbtvc	r6, [r5], #-3935	; 0xfffff0a1
 4dc:	00747570 	rsbseq	r7, r4, r0, ror r5
 4e0:	5f746d66 	svcpl	0x00746d66
 4e4:	72617473 	rsbvc	r7, r1, #1929379840	; 0x73000000
 4e8:	74730074 	ldrbtvc	r0, [r3], #-116	; 0xffffff8c
 4ec:	74616372 	strbtvc	r6, [r1], #-882	; 0xfffffc8e
 4f0:	72747300 	rsbsvc	r7, r4, #0, 6
 4f4:	00797063 	rsbseq	r7, r9, r3, rrx
 4f8:	5f67656e 	svcpl	0x0067656e
 4fc:	5f5f0070 	svcpl	0x005f0070
 500:	65646f63 	strbvs	r6, [r4, #-3939]!	; 0xfffff09d
 504:	646e655f 	strbtvs	r6, [lr], #-1375	; 0xfffffaa1
 508:	65005f5f 	strvs	r5, [r0, #-3935]	; 0xfffff0a1
 50c:	0074696d 	rsbseq	r6, r4, sp, ror #18
 510:	65766572 	ldrbvs	r6, [r6, #-1394]!	; 0xfffffa8e
 514:	00657372 	rsbeq	r7, r5, r2, ror r3
 518:	63727473 	cmnvs	r2, #1929379840	; 0x73000000
 51c:	7000706d 	andvc	r7, r0, sp, rrx
 520:	5f737475 	svcpl	0x00737475
 524:	5f007066 	svcpl	0x00007066
 528:	7461645f 	strbtvc	r6, [r1], #-1119	; 0xfffffba1
 52c:	74735f61 	ldrbtvc	r5, [r3], #-3937	; 0xfffff09f
 530:	5f747261 	svcpl	0x00747261
 534:	5f5f005f 	svcpl	0x005f005f
 538:	676f7270 			; <UNDEFINED> instruction: 0x676f7270
 53c:	646e655f 	strbtvs	r6, [lr], #-1375	; 0xfffffaa1
 540:	6e005f5f 	mcrvs	15, 0, r5, cr0, cr15, {2}
 544:	00316d75 	eorseq	r6, r1, r5, ror sp
 548:	6e727473 	mrcvs	4, 3, r7, cr2, cr3, {3}
 54c:	00706d63 	rsbseq	r6, r0, r3, ror #26
 550:	65736162 	ldrbvs	r6, [r3, #-354]!	; 0xfffffe9e
 554:	67697300 	strbvs	r7, [r9, -r0, lsl #6]!
 558:	5f64656e 	svcpl	0x0064656e
 55c:	69640070 	stmdbvs	r4!, {r4, r5, r6}^
 560:	6c626173 	stfvse	f6, [r2], #-460	; 0xfffffe34
 564:	61635f65 	cmnvs	r3, r5, ror #30
 568:	00656863 	rsbeq	r6, r5, r3, ror #16
 56c:	74732f2e 	ldrbtvc	r2, [r3], #-3886	; 0xfffff0d2
 570:	2d666661 	stclcs	6, cr6, [r6, #-388]!	; 0xfffffe7c
 574:	2f637273 	svccs	0x00637273
 578:	68636163 	stmdavs	r3!, {r0, r1, r5, r6, r8, sp, lr}^
 57c:	00632e65 	rsbeq	r2, r3, r5, ror #28
 580:	5f697072 	svcpl	0x00697072
 584:	6f626572 	svcvs	0x00626572
 588:	6400746f 	strvs	r7, [r0], #-1135	; 0xfffffb91
 58c:	79616c65 	stmdbvc	r1!, {r0, r2, r5, r6, sl, fp, sp, lr}^
 590:	00736d5f 	rsbseq	r6, r3, pc, asr sp
 594:	74732f2e 	ldrbtvc	r2, [r3], #-3886	; 0xfffff0d2
 598:	2d666661 	stclcs	6, cr6, [r6, #-388]!	; 0xfffffe7c
 59c:	2f637273 	svccs	0x00637273
 5a0:	61656c63 	cmnvs	r5, r3, ror #24
 5a4:	65722d6e 	ldrbvs	r2, [r2, #-3438]!	; 0xfffff292
 5a8:	746f6f62 	strbtvc	r6, [pc], #-3938	; 5b0 <__code_start__-0x7a50>
 5ac:	7500632e 	strvc	r6, [r0, #-814]	; 0xfffffcd2
 5b0:	5f747261 	svcpl	0x00747261
 5b4:	73756c66 	cmnvc	r5, #26112	; 0x6600
 5b8:	78745f68 	ldmdavc	r4!, {r3, r5, r6, r8, r9, sl, fp, ip, lr}^
 5bc:	73635f00 	cmnvc	r3, #0, 30
 5c0:	74726174 	ldrbtvc	r6, [r2], #-372	; 0xfffffe8c
 5c4:	73736200 	cmnvc	r3, #0, 4
 5c8:	646e655f 	strbtvs	r6, [lr], #-1375	; 0xfffffaa1
 5cc:	72617500 	rsbvc	r7, r1, #0, 10
 5d0:	6e695f74 	mcrvs	15, 3, r5, cr9, cr4, {3}
 5d4:	63007469 	movwvs	r7, #1129	; 0x469
 5d8:	6f747375 	svcvs	0x00747375
 5dc:	6f6c5f6d 	svcvs	0x006c5f6d
 5e0:	72656461 	rsbvc	r6, r5, #1627389952	; 0x61000000
 5e4:	732f2e00 			; <UNDEFINED> instruction: 0x732f2e00
 5e8:	66666174 			; <UNDEFINED> instruction: 0x66666174
 5ec:	6372732d 	cmnvs	r2, #-1275068416	; 0xb4000000
 5f0:	7473632f 	ldrbtvc	r6, [r3], #-815	; 0xfffffcd1
 5f4:	2e747261 	cdpcs	2, 7, cr7, cr4, cr1, {3}
 5f8:	2f2e0063 	svccs	0x002e0063
 5fc:	66617473 			; <UNDEFINED> instruction: 0x66617473
 600:	72732d66 	rsbsvc	r2, r3, #6528	; 0x1980
 604:	75632f63 	strbvc	r2, [r3, #-3939]!	; 0xfffff09d
 608:	6d6f7473 	cfstrdvs	mvd7, [pc, #-460]!	; 444 <__code_start__-0x7bbc>
 60c:	616f6c2d 	cmnvs	pc, sp, lsr #24
 610:	2e726564 	cdpcs	5, 7, cr6, cr2, cr4, {3}
 614:	65720063 	ldrbvs	r0, [r2, #-99]!	; 0xffffff9d
 618:	746f6f62 	strbtvc	r6, [pc], #-3938	; 620 <__code_start__-0x79e0>
 61c:	6c61635f 	stclvs	3, cr6, [r1], #-380	; 0xfffffe84
 620:	74756f6c 	ldrbtvc	r6, [r5], #-3948	; 0xfffff094
 624:	5f4d5000 	svcpl	0x004d5000
 628:	474f4457 	smlsldmi	r4, pc, r7, r4	; <UNPREDICTABLE>
 62c:	74657300 	strbtvc	r7, [r5], #-768	; 0xfffffd00
 630:	6573755f 	ldrbvs	r7, [r3, #-1375]!	; 0xfffffaa1
 634:	656c5f72 	strbvs	r5, [ip, #-3954]!	; 0xfffff08e
 638:	006c6576 	rsbeq	r6, ip, r6, ror r5
 63c:	74732f2e 	ldrbtvc	r2, [r3], #-3886	; 0xfffff0d2
 640:	2d666661 	stclcs	6, cr6, [r6, #-388]!	; 0xfffffe7c
 644:	2f637273 	svccs	0x00637273
 648:	6f626572 	svcvs	0x00626572
 64c:	632e746f 			; <UNDEFINED> instruction: 0x632e746f
 650:	5f4d5000 	svcpl	0x004d5000
 654:	53534150 	cmppl	r3, #20
 658:	44524f57 	ldrbmi	r4, [r2], #-3927	; 0xfffff0a9
 65c:	5f746100 	svcpl	0x00746100
 660:	72657375 	rsbvc	r7, r5, #-738197503	; 0xd4000001
 664:	76656c5f 			; <UNDEFINED> instruction: 0x76656c5f
 668:	50006c65 	andpl	r6, r0, r5, ror #24
 66c:	53525f4d 	cmppl	r2, #308	; 0x134
 670:	575f4354 			; <UNDEFINED> instruction: 0x575f4354
 674:	47464352 	smlsldmi	r4, r6, r2, r3
 678:	4c55465f 	mrrcmi	6, 5, r4, r5, cr15
 67c:	45525f4c 	ldrbmi	r5, [r2, #-3916]	; 0xfffff0b4
 680:	00544553 	subseq	r4, r4, r3, asr r5
 684:	525f4d50 	subspl	r4, pc, #80, 26	; 0x1400
 688:	00435453 	subeq	r5, r3, r3, asr r4
 68c:	72737063 	rsbsvc	r7, r3, #99, 0	; 0x63
 690:	76656400 	strbtvc	r6, [r5], -r0, lsl #8
 694:	7261625f 	rsbvc	r6, r1, #-268435451	; 0xf0000005
 698:	72656972 	rsbvc	r6, r5, #1867776	; 0x1c8000
 69c:	6c656400 	cfstrdvs	mvd6, [r5], #-0
 6a0:	735f7961 	cmpvc	pc, #1589248	; 0x184000
 6a4:	2e006365 	cdpcs	3, 0, cr6, cr0, cr5, {3}
 6a8:	6174732f 	cmnvs	r4, pc, lsr #6
 6ac:	732d6666 			; <UNDEFINED> instruction: 0x732d6666
 6b0:	742f6372 	strtvc	r6, [pc], #-882	; 6b8 <__code_start__-0x7948>
 6b4:	72656d69 	rsbvc	r6, r5, #6720	; 0x1a40
 6b8:	7400632e 	strvc	r6, [r0], #-814	; 0xfffffcd2
 6bc:	72656d69 	rsbvc	r6, r5, #6720	; 0x1a40
 6c0:	7465675f 	strbtvc	r6, [r5], #-1887	; 0xfffff8a1
 6c4:	6573755f 	ldrbvs	r7, [r3, #-1375]!	; 0xfffffaa1
 6c8:	65640063 	strbvs	r0, [r4, #-99]!	; 0xffffff9d
 6cc:	5f79616c 	svcpl	0x0079616c
 6d0:	74007375 	strvc	r7, [r0], #-885	; 0xfffffc8b
 6d4:	72656d69 	rsbvc	r6, r5, #6720	; 0x1a40
 6d8:	7465675f 	strbtvc	r6, [r5], #-1887	; 0xfffff8a1
 6dc:	6573755f 	ldrbvs	r7, [r3, #-1375]!	; 0xfffffaa1
 6e0:	61725f63 	cmnvs	r2, r3, ror #30
 6e4:	61620077 	smcvs	8199	; 0x2007
 6e8:	765f6475 			; <UNDEFINED> instruction: 0x765f6475
 6ec:	73006c61 	movwvc	r6, #3169	; 0xc61
 6f0:	00746174 	rsbseq	r6, r4, r4, ror r1
 6f4:	74726175 	ldrbtvc	r6, [r2], #-373	; 0xfffffe8b
 6f8:	6e61635f 	mcrvs	3, 3, r6, cr1, cr15, {2}
 6fc:	7465675f 	strbtvc	r6, [r5], #-1887	; 0xfffff8a1
 700:	61750063 	cmnvs	r5, r3, rrx
 704:	632e7472 			; <UNDEFINED> instruction: 0x632e7472
 708:	72617500 	rsbvc	r7, r1, #0, 10
 70c:	61635f74 	smcvs	13812	; 0x35f4
 710:	75705f6e 	ldrbvc	r5, [r0, #-3950]!	; 0xfffff092
 714:	75006374 	strvc	r6, [r0, #-884]	; 0xfffffc8c
 718:	00747261 	rsbseq	r7, r4, r1, ror #4
 71c:	72646461 	rsbvc	r6, r4, #1627389952	; 0x61000000
 720:	72617500 	rsbvc	r7, r1, #0, 10
 724:	78745f74 	ldmdavc	r4!, {r2, r4, r5, r6, r8, r9, sl, fp, ip, lr}^
 728:	5f73695f 	svcpl	0x0073695f
 72c:	74706d65 	ldrbtvc	r6, [r0], #-3429	; 0xfffff29b
 730:	75700079 	ldrbvc	r0, [r0, #-121]!	; 0xffffff87
 734:	00323374 	eorseq	r3, r2, r4, ror r3
 738:	64756162 	ldrbtvs	r6, [r5], #-354	; 0xfffffe9e
 73c:	78756100 	ldmdavc	r5!, {r8, sp, lr}^
 740:	616e655f 	cmnvs	lr, pc, asr r5
 744:	73656c62 	cmnvc	r5, #25088	; 0x6200
 748:	72617500 	rsbvc	r7, r1, #0, 10
 74c:	65675f74 	strbvs	r5, [r7, #-3956]!	; 0xfffff08c
 750:	47006374 	smlsdxmi	r0, r4, r3, r6
 754:	4320554e 			; <UNDEFINED> instruction: 0x4320554e
 758:	31203939 			; <UNDEFINED> instruction: 0x31203939
 75c:	2e332e30 	mrccs	14, 1, r2, cr3, cr0, {1}
 760:	30322031 	eorscc	r2, r2, r1, lsr r0
 764:	38303132 	ldmdacc	r0!, {r1, r4, r5, r8, ip, sp}
 768:	28203432 	stmdacs	r0!, {r1, r4, r5, sl, ip, sp}
 76c:	656c6572 	strbvs	r6, [ip, #-1394]!	; 0xfffffa8e
 770:	29657361 	stmdbcs	r5!, {r0, r5, r6, r8, r9, ip, sp, lr}^
 774:	636d2d20 	cmnvs	sp, #32, 26	; 0x800
 778:	613d7570 	teqvs	sp, r0, ror r5
 77c:	31316d72 	teqcc	r1, r2, ror sp
 780:	7a6a3637 	bvc	1a8e064 <__bss_end__+0x1a845bc>
 784:	20732d66 	rsbscs	r2, r3, r6, ror #26
 788:	75746d2d 	ldrbvc	r6, [r4, #-3373]!	; 0xfffff2d3
 78c:	613d656e 	teqvs	sp, lr, ror #10
 790:	31316d72 	teqcc	r1, r2, ror sp
 794:	7a6a3637 	bvc	1a8e078 <__bss_end__+0x1a845d0>
 798:	20732d66 	rsbscs	r2, r3, r6, ror #26
 79c:	6c666d2d 	stclvs	13, cr6, [r6], #-180	; 0xffffff4c
 7a0:	2d74616f 	ldfcse	f6, [r4, #-444]!	; 0xfffffe44
 7a4:	3d696261 	sfmcc	f6, 2, [r9, #-388]!	; 0xfffffe7c
 7a8:	74666f73 	strbtvc	r6, [r6], #-3955	; 0xfffff08d
 7ac:	616d2d20 	cmnvs	sp, r0, lsr #26
 7b0:	2d206d72 	stccs	13, cr6, [r0, #-456]!	; 0xfffffe38
 7b4:	6372616d 	cmnvs	r2, #1073741851	; 0x4000001b
 7b8:	72613d68 	rsbvc	r3, r1, #104, 26	; 0x1a00
 7bc:	6b36766d 	blvs	d9e178 <__bss_end__+0xd946d0>
 7c0:	672d207a 			; <UNDEFINED> instruction: 0x672d207a
 7c4:	20626467 	rsbcs	r6, r2, r7, ror #8
 7c8:	20674f2d 	rsbcs	r4, r7, sp, lsr #30
 7cc:	6474732d 	ldrbtvs	r7, [r4], #-813	; 0xfffffcd3
 7d0:	756e673d 	strbvc	r6, [lr, #-1853]!	; 0xfffff8c3
 7d4:	2d203939 			; <UNDEFINED> instruction: 0x2d203939
 7d8:	65726666 	ldrbvs	r6, [r2, #-1638]!	; 0xfffff99a
 7dc:	61747365 	cmnvs	r4, r5, ror #6
 7e0:	6e69646e 	cdpvs	4, 6, cr6, cr9, cr14, {3}
 7e4:	6e630067 	cdpvs	0, 6, cr0, cr3, cr7, {3}
 7e8:	75006c74 	strvc	r6, [r0, #-3188]	; 0xfffff38c
 7ec:	5f747261 	svcpl	0x00747261
 7f0:	61736964 	cmnvs	r3, r4, ror #18
 7f4:	00656c62 	rsbeq	r6, r5, r2, ror #24
 7f8:	74726175 	ldrbtvc	r6, [r2], #-373	; 0xfffffe8b
 7fc:	7361685f 	cmnvc	r1, #6225920	; 0x5f0000
 800:	7461645f 	strbtvc	r6, [r1], #-1119	; 0xfffffba1
 804:	726f0061 	rsbvc	r0, pc, #97, 0	; 0x61
 808:	336e695f 	cmncc	lr, #1556480	; 0x17c000
 80c:	63730032 	cmnvs	r3, #50, 0	; 0x32
 810:	63746172 	cmnvs	r4, #-2147483620	; 0x8000001c
 814:	75610068 	strbvc	r0, [r1, #-104]!	; 0xffffff98
 818:	65705f78 	ldrbvs	r5, [r0, #-3960]!	; 0xfffff088
 81c:	68706972 	ldmdavs	r0!, {r1, r4, r5, r6, r8, fp, sp, lr}^
 820:	682f0073 	stmdavs	pc!, {r0, r1, r4, r5, r6}	; <UNPREDICTABLE>
 824:	2f656d6f 	svccs	0x00656d6f
 828:	6c676e65 	stclvs	14, cr6, [r7], #-404	; 0xfffffe6c
 82c:	632f7265 			; <UNDEFINED> instruction: 0x632f7265
 830:	7373616c 	cmnvc	r3, #27
 834:	3173632f 	cmncc	r3, pc, lsr #6
 838:	2d653034 	stclcs	0, cr3, [r5, #-208]!	; 0xffffff30
 83c:	69773232 	ldmdbvs	r7!, {r1, r4, r5, r9, ip, sp}^
 840:	696c2f6e 	stmdbvs	ip!, {r1, r2, r3, r5, r6, r8, r9, sl, fp, sp}^
 844:	2f697062 	svccs	0x00697062
 848:	66617473 			; <UNDEFINED> instruction: 0x66617473
 84c:	72702d66 	rsbsvc	r2, r0, #6528	; 0x1980
 850:	74617669 	strbtvc	r7, [r1], #-1641	; 0xfffff997
 854:	6e610065 	cdpvs	0, 6, cr0, cr1, cr5, {3}
 858:	6e695f64 	cdpvs	15, 6, cr5, cr9, cr4, {3}
 85c:	75003233 	strvc	r3, [r0, #-563]	; 0xfffffdcd
 860:	5f747261 	svcpl	0x00747261
 864:	63747570 	cmnvs	r4, #112, 10	; 0x1c000000
 868:	74656700 	strbtvc	r6, [r5], #-1792	; 0xfffff900
 86c:	69003233 	stmdbvs	r0, {r0, r1, r4, r5, r9, ip, sp}
 870:	7265746e 	rsbvc	r7, r5, #1845493760	; 0x6e000000
 874:	5f6c616e 	svcpl	0x006c616e
 878:	63747570 	cmnvs	r4, #112, 10	; 0x1c000000
 87c:	00726168 	rsbseq	r6, r2, r8, ror #2
 880:	5f697072 	svcpl	0x00697072
 884:	5f746573 	svcpl	0x00746573
 888:	63747570 	cmnvs	r4, #112, 10	; 0x1c000000
 88c:	6c2f2e00 	stcvs	14, cr2, [pc], #-0	; 894 <__code_start__-0x776c>
 890:	2f636269 	svccs	0x00636269
 894:	63747570 	cmnvs	r4, #112, 10	; 0x1c000000
 898:	2e726168 	rpwcssz	f6, f2, #0.0
 89c:	70720063 	rsbsvc	r0, r2, r3, rrx
 8a0:	65725f69 	ldrbvs	r5, [r2, #-3945]!	; 0xfffff097
 8a4:	5f746573 	svcpl	0x00746573
 8a8:	63747570 	cmnvs	r4, #112, 10	; 0x1c000000
 8ac:	6c2f2e00 	stcvs	14, cr2, [pc], #-0	; 8b4 <__code_start__-0x774c>
 8b0:	2f636269 	svccs	0x00636269
 8b4:	63727473 	cmnvs	r2, #1929379840	; 0x73000000
 8b8:	632e7461 			; <UNDEFINED> instruction: 0x632e7461
 8bc:	73656400 	cmnvc	r5, #0, 8
 8c0:	2f2e0074 	svccs	0x002e0074
 8c4:	6362696c 	cmnvs	r2, #108, 18	; 0x1b0000
 8c8:	7274732f 	rsbsvc	r7, r4, #-1140850688	; 0xbc000000
 8cc:	2e706d63 	cdpcs	13, 7, cr6, cr0, cr3, {3}
 8d0:	2f2e0063 	svccs	0x002e0063
 8d4:	6362696c 	cmnvs	r2, #108, 18	; 0x1b0000
 8d8:	7274732f 	rsbsvc	r7, r4, #-1140850688	; 0xbc000000
 8dc:	2e797063 	cdpcs	0, 7, cr7, cr9, cr3, {3}
 8e0:	69730063 	ldmdbvs	r3!, {r0, r1, r5, r6}^
 8e4:	745f657a 	ldrbvc	r6, [pc], #-1402	; 8ec <__code_start__-0x7714>
 8e8:	6c2f2e00 	stcvs	14, cr2, [pc], #-0	; 8f0 <__code_start__-0x7710>
 8ec:	2f636269 	svccs	0x00636269
 8f0:	6e727473 	mrcvs	4, 3, r7, cr2, cr3, {3}
 8f4:	2e706d63 	cdpcs	13, 7, cr6, cr0, cr3, {3}
 8f8:	2f2e0063 	svccs	0x002e0063
 8fc:	66617473 			; <UNDEFINED> instruction: 0x66617473
 900:	72732d66 	rsbsvc	r2, r3, #6528	; 0x1980
 904:	65642f63 	strbvs	r2, [r4, #-3939]!	; 0xfffff09d
 908:	6c756166 	ldfvse	f6, [r5], #-408	; 0xfffffe68
 90c:	65722d74 	ldrbvs	r2, [r2, #-3444]!	; 0xfffff28c
 910:	746f6f62 	strbtvc	r6, [pc], #-3938	; 918 <__code_start__-0x76e8>
 914:	6c61632d 	stclvs	3, cr6, [r1], #-180	; 0xffffff4c
 918:	74756f6c 	ldrbtvc	r6, [r5], #-3948	; 0xfffff094
 91c:	Address 0x000000000000091c is out of bounds.


Disassembly of section .debug_frame:

00000000 <.debug_frame>:
   0:	0000000c 	andeq	r0, r0, ip
   4:	ffffffff 			; <UNDEFINED> instruction: 0xffffffff
   8:	7c020001 	stcvc	0, cr0, [r2], {1}
   c:	000d0c0e 	andeq	r0, sp, lr, lsl #24
  10:	0000001c 	andeq	r0, r0, ip, lsl r0
  14:	00000000 	andeq	r0, r0, r0
  18:	00008040 	andeq	r8, r0, r0, asr #32
  1c:	000000b0 	strheq	r0, [r0], -r0	; <UNPREDICTABLE>
  20:	84180e42 	ldrhi	r0, [r8], #-3650	; 0xfffff1be
  24:	86058506 	strhi	r8, [r5], -r6, lsl #10
  28:	88038704 	stmdahi	r3, {r2, r8, r9, sl, pc}
  2c:	00018e02 	andeq	r8, r1, r2, lsl #28
  30:	00000028 	andeq	r0, r0, r8, lsr #32
  34:	00000000 	andeq	r0, r0, r0
  38:	00008100 	andeq	r8, r0, r0, lsl #2
  3c:	000001a8 	andeq	r0, r0, r8, lsr #3
  40:	84240e42 	strthi	r0, [r4], #-3650	; 0xfffff1be
  44:	86088509 	strhi	r8, [r8], -r9, lsl #10
  48:	88068707 	stmdahi	r6, {r0, r1, r2, r8, r9, sl, pc}
  4c:	8a048905 	bhi	122468 <__bss_end__+0x1189c0>
  50:	8e028b03 	vmlahi.f64	d8, d2, d3
  54:	b80e4201 	stmdalt	lr, {r0, r9, lr}
  58:	00000002 	andeq	r0, r0, r2
  5c:	0000000c 	andeq	r0, r0, ip
  60:	ffffffff 			; <UNDEFINED> instruction: 0xffffffff
  64:	7c020001 	stcvc	0, cr0, [r2], {1}
  68:	000d0c0e 	andeq	r0, sp, lr, lsl #24
  6c:	00000020 	andeq	r0, r0, r0, lsr #32
  70:	0000005c 	andeq	r0, r0, ip, asr r0
  74:	000082a8 	andeq	r8, r0, r8, lsr #5
  78:	00000064 	andeq	r0, r0, r4, rrx
  7c:	84100e48 	ldrhi	r0, [r0], #-3656	; 0xfffff1b8
  80:	86038504 	strhi	r8, [r3], -r4, lsl #10
  84:	66018e02 	strvs	r8, [r1], -r2, lsl #28
  88:	c4c5c6ce 	strbgt	ip, [r5], #1742	; 0x6ce
  8c:	0000000e 	andeq	r0, r0, lr
  90:	00000020 	andeq	r0, r0, r0, lsr #32
  94:	0000005c 	andeq	r0, r0, ip, asr r0
  98:	0000830c 	andeq	r8, r0, ip, lsl #6
  9c:	0000005c 	andeq	r0, r0, ip, asr r0
  a0:	84100e48 	ldrhi	r0, [r0], #-3656	; 0xfffff1b8
  a4:	86038504 	strhi	r8, [r3], -r4, lsl #10
  a8:	62018e02 	andvs	r8, r1, #2, 28
  ac:	c4c5c6ce 	strbgt	ip, [r5], #1742	; 0x6ce
  b0:	0000000e 	andeq	r0, r0, lr
  b4:	0000000c 	andeq	r0, r0, ip
  b8:	0000005c 	andeq	r0, r0, ip, asr r0
  bc:	00008368 	andeq	r8, r0, r8, ror #6
  c0:	00000018 	andeq	r0, r0, r8, lsl r0
  c4:	0000000c 	andeq	r0, r0, ip
  c8:	0000005c 	andeq	r0, r0, ip, asr r0
  cc:	00008380 	andeq	r8, r0, r0, lsl #7
  d0:	00000018 	andeq	r0, r0, r8, lsl r0
  d4:	00000020 	andeq	r0, r0, r0, lsr #32
  d8:	0000005c 	andeq	r0, r0, ip, asr r0
  dc:	00008398 	muleq	r0, r8, r3
  e0:	00000058 	andeq	r0, r0, r8, asr r0
  e4:	84100e46 	ldrhi	r0, [r0], #-3654	; 0xfffff1ba
  e8:	86038504 	strhi	r8, [r3], -r4, lsl #10
  ec:	62018e02 	andvs	r8, r1, #2, 28
  f0:	c4c5c6ce 	strbgt	ip, [r5], #1742	; 0x6ce
  f4:	0000000e 	andeq	r0, r0, lr
  f8:	0000000c 	andeq	r0, r0, ip
  fc:	0000005c 	andeq	r0, r0, ip, asr r0
 100:	000083f0 	strdeq	r8, [r0], -r0
 104:	00000030 	andeq	r0, r0, r0, lsr r0
 108:	00000014 	andeq	r0, r0, r4, lsl r0
 10c:	0000005c 	andeq	r0, r0, ip, asr r0
 110:	00008420 	andeq	r8, r0, r0, lsr #8
 114:	00000028 	andeq	r0, r0, r8, lsr #32
 118:	84080e44 	strhi	r0, [r8], #-3652	; 0xfffff1bc
 11c:	00018e02 	andeq	r8, r1, r2, lsl #28
 120:	0000000c 	andeq	r0, r0, ip
 124:	ffffffff 			; <UNDEFINED> instruction: 0xffffffff
 128:	7c020001 	stcvc	0, cr0, [r2], {1}
 12c:	000d0c0e 	andeq	r0, sp, lr, lsl #24
 130:	00000034 	andeq	r0, r0, r4, lsr r0
 134:	00000120 	andeq	r0, r0, r0, lsr #2
 138:	00008448 	andeq	r8, r0, r8, asr #8
 13c:	00000058 	andeq	r0, r0, r8, asr r0
 140:	80100e42 	andshi	r0, r0, r2, asr #28
 144:	82038104 	andhi	r8, r3, #1
 148:	42018302 	andmi	r8, r1, #134217728	; 0x8000000
 14c:	07841c0e 	streq	r1, [r4, lr, lsl #24]
 150:	058e0685 	streq	r0, [lr, #1669]	; 0x685
 154:	5a280e44 	bpl	a03a6c <__bss_end__+0x9f9fc4>
 158:	ce421c0e 	cdpgt	12, 4, cr1, cr2, cr14, {0}
 15c:	100ec4c5 	andne	ip, lr, r5, asr #9
 160:	c1c2c342 	bicgt	ip, r2, r2, asr #6
 164:	00000ec0 	andeq	r0, r0, r0, asr #29
 168:	0000000c 	andeq	r0, r0, ip
 16c:	ffffffff 			; <UNDEFINED> instruction: 0xffffffff
 170:	7c020001 	stcvc	0, cr0, [r2], {1}
 174:	000d0c0e 	andeq	r0, sp, lr, lsl #24
 178:	00000018 	andeq	r0, r0, r8, lsl r0
 17c:	00000168 	andeq	r0, r0, r8, ror #2
 180:	000084a0 	andeq	r8, r0, r0, lsr #9
 184:	00000038 	andeq	r0, r0, r8, lsr r0
 188:	84100e42 	ldrhi	r0, [r0], #-3650	; 0xfffff1be
 18c:	86038504 	strhi	r8, [r3], -r4, lsl #10
 190:	00018e02 	andeq	r8, r1, r2, lsl #28
 194:	0000000c 	andeq	r0, r0, ip
 198:	ffffffff 			; <UNDEFINED> instruction: 0xffffffff
 19c:	7c020001 	stcvc	0, cr0, [r2], {1}
 1a0:	000d0c0e 	andeq	r0, sp, lr, lsl #24
 1a4:	0000002c 	andeq	r0, r0, ip, lsr #32
 1a8:	00000194 	muleq	r0, r4, r1
 1ac:	000084d8 	ldrdeq	r8, [r0], -r8	; <UNPREDICTABLE>
 1b0:	00000328 	andeq	r0, r0, r8, lsr #6
 1b4:	84180e42 	ldrhi	r0, [r8], #-3650	; 0xfffff1be
 1b8:	86058506 	strhi	r8, [r5], -r6, lsl #10
 1bc:	88038704 	stmdahi	r3, {r2, r8, r9, sl, pc}
 1c0:	46018e02 	strmi	r8, [r1], -r2, lsl #28
 1c4:	c002600e 	andgt	r6, r2, lr
 1c8:	42180e0a 	andsmi	r0, r8, #160	; 0xa0
 1cc:	0a8e020b 	beq	fe380a00 <__bss_end__+0xfe376f58>
 1d0:	0b42180e 	bleq	1086210 <__bss_end__+0x107c768>
 1d4:	00000014 	andeq	r0, r0, r4, lsl r0
 1d8:	00000194 	muleq	r0, r4, r1
 1dc:	00008800 	andeq	r8, r0, r0, lsl #16
 1e0:	00000060 	andeq	r0, r0, r0, rrx
 1e4:	8e040e52 	mcrhi	14, 0, r0, cr4, cr2, {2}
 1e8:	100e4401 	andne	r4, lr, r1, lsl #8
 1ec:	0000002c 	andeq	r0, r0, ip, lsr #32
 1f0:	00000194 	muleq	r0, r4, r1
 1f4:	00008860 	andeq	r8, r0, r0, ror #16
 1f8:	0000062c 	andeq	r0, r0, ip, lsr #12
 1fc:	84240e42 	strthi	r0, [r4], #-3650	; 0xfffff1be
 200:	86088509 	strhi	r8, [r8], -r9, lsl #10
 204:	88068707 	stmdahi	r6, {r0, r1, r2, r8, r9, sl, pc}
 208:	8a048905 	bhi	122624 <__bss_end__+0x118b7c>
 20c:	8e028b03 	vmlahi.f64	d8, d2, d3
 210:	c00e5201 	andgt	r5, lr, r1, lsl #4
 214:	0a860202 	beq	fe180a24 <__bss_end__+0xfe176f7c>
 218:	0b42240e 	bleq	1089258 <__bss_end__+0x107f7b0>
 21c:	0000000c 	andeq	r0, r0, ip
 220:	ffffffff 			; <UNDEFINED> instruction: 0xffffffff
 224:	7c020001 	stcvc	0, cr0, [r2], {1}
 228:	000d0c0e 	andeq	r0, sp, lr, lsl #24
 22c:	0000000c 	andeq	r0, r0, ip
 230:	0000021c 	andeq	r0, r0, ip, lsl r2
 234:	00008e8c 	andeq	r8, r0, ip, lsl #29
 238:	00000010 	andeq	r0, r0, r0, lsl r0
 23c:	0000000c 	andeq	r0, r0, ip
 240:	0000021c 	andeq	r0, r0, ip, lsl r2
 244:	00008e9c 	muleq	r0, ip, lr
 248:	00000010 	andeq	r0, r0, r0, lsl r0
 24c:	0000000c 	andeq	r0, r0, ip
 250:	ffffffff 			; <UNDEFINED> instruction: 0xffffffff
 254:	7c020001 	stcvc	0, cr0, [r2], {1}
 258:	000d0c0e 	andeq	r0, sp, lr, lsl #24
 25c:	00000014 	andeq	r0, r0, r4, lsl r0
 260:	0000024c 	andeq	r0, r0, ip, asr #4
 264:	00008eac 	andeq	r8, r0, ip, lsr #29
 268:	0000002c 	andeq	r0, r0, ip, lsr #32
 26c:	84080e44 	strhi	r0, [r8], #-3652	; 0xfffff1bc
 270:	00018e02 	andeq	r8, r1, r2, lsl #28
 274:	0000000c 	andeq	r0, r0, ip
 278:	ffffffff 			; <UNDEFINED> instruction: 0xffffffff
 27c:	7c020001 	stcvc	0, cr0, [r2], {1}
 280:	000d0c0e 	andeq	r0, sp, lr, lsl #24
 284:	00000018 	andeq	r0, r0, r8, lsl r0
 288:	00000274 	andeq	r0, r0, r4, ror r2
 28c:	00008ed8 	ldrdeq	r8, [r0], -r8	; <UNPREDICTABLE>
 290:	000000f8 	strdeq	r0, [r0], -r8
 294:	84100e42 	ldrhi	r0, [r0], #-3650	; 0xfffff1be
 298:	86038504 	strhi	r8, [r3], -r4, lsl #10
 29c:	00018e02 	andeq	r8, r1, r2, lsl #28
 2a0:	0000000c 	andeq	r0, r0, ip
 2a4:	ffffffff 			; <UNDEFINED> instruction: 0xffffffff
 2a8:	7c020001 	stcvc	0, cr0, [r2], {1}
 2ac:	000d0c0e 	andeq	r0, sp, lr, lsl #24
 2b0:	0000000c 	andeq	r0, r0, ip
 2b4:	000002a0 	andeq	r0, r0, r0, lsr #5
 2b8:	00008fd0 	ldrdeq	r8, [r0], -r0
 2bc:	00000004 	andeq	r0, r0, r4
 2c0:	0000000c 	andeq	r0, r0, ip
 2c4:	ffffffff 			; <UNDEFINED> instruction: 0xffffffff
 2c8:	7c020001 	stcvc	0, cr0, [r2], {1}
 2cc:	000d0c0e 	andeq	r0, sp, lr, lsl #24
 2d0:	0000000c 	andeq	r0, r0, ip
 2d4:	000002c0 	andeq	r0, r0, r0, asr #5
 2d8:	00008fd4 	ldrdeq	r8, [r0], -r4
 2dc:	00000018 	andeq	r0, r0, r8, lsl r0
 2e0:	0000000c 	andeq	r0, r0, ip
 2e4:	000002c0 	andeq	r0, r0, r0, asr #5
 2e8:	00008fec 	andeq	r8, r0, ip, ror #31
 2ec:	00000014 	andeq	r0, r0, r4, lsl r0
 2f0:	00000014 	andeq	r0, r0, r4, lsl r0
 2f4:	000002c0 	andeq	r0, r0, r0, asr #5
 2f8:	00009000 	andeq	r9, r0, r0
 2fc:	00000060 	andeq	r0, r0, r0, rrx
 300:	84080e42 	strhi	r0, [r8], #-3650	; 0xfffff1be
 304:	00018e02 	andeq	r8, r1, r2, lsl #28
 308:	0000000c 	andeq	r0, r0, ip
 30c:	ffffffff 			; <UNDEFINED> instruction: 0xffffffff
 310:	7c020001 	stcvc	0, cr0, [r2], {1}
 314:	000d0c0e 	andeq	r0, sp, lr, lsl #24
 318:	0000000c 	andeq	r0, r0, ip
 31c:	00000308 	andeq	r0, r0, r8, lsl #6
 320:	00009060 	andeq	r9, r0, r0, rrx
 324:	0000000c 	andeq	r0, r0, ip
 328:	00000014 	andeq	r0, r0, r4, lsl r0
 32c:	00000308 	andeq	r0, r0, r8, lsl #6
 330:	0000906c 	andeq	r9, r0, ip, rrx
 334:	00000024 	andeq	r0, r0, r4, lsr #32
 338:	84080e42 	strhi	r0, [r8], #-3650	; 0xfffff1be
 33c:	00018e02 	andeq	r8, r1, r2, lsl #28
 340:	0000001c 	andeq	r0, r0, ip, lsl r0
 344:	00000308 	andeq	r0, r0, r8, lsl #6
 348:	00009090 	muleq	r0, r0, r0
 34c:	00000048 	andeq	r0, r0, r8, asr #32
 350:	84180e42 	ldrhi	r0, [r8], #-3650	; 0xfffff1be
 354:	86058506 	strhi	r8, [r5], -r6, lsl #10
 358:	88038704 	stmdahi	r3, {r2, r8, r9, sl, pc}
 35c:	00018e02 	andeq	r8, r1, r2, lsl #28
 360:	0000001c 	andeq	r0, r0, ip, lsl r0
 364:	00000308 	andeq	r0, r0, r8, lsl #6
 368:	000090d8 	ldrdeq	r9, [r0], -r8
 36c:	00000050 	andeq	r0, r0, r0, asr r0
 370:	84180e42 	ldrhi	r0, [r8], #-3650	; 0xfffff1be
 374:	86058506 	strhi	r8, [r5], -r6, lsl #10
 378:	88038704 	stmdahi	r3, {r2, r8, r9, sl, pc}
 37c:	00018e02 	andeq	r8, r1, r2, lsl #28
 380:	0000001c 	andeq	r0, r0, ip, lsl r0
 384:	00000308 	andeq	r0, r0, r8, lsl #6
 388:	00009128 	andeq	r9, r0, r8, lsr #2
 38c:	00000054 	andeq	r0, r0, r4, asr r0
 390:	84180e42 	ldrhi	r0, [r8], #-3650	; 0xfffff1be
 394:	86058506 	strhi	r8, [r5], -r6, lsl #10
 398:	88038704 	stmdahi	r3, {r2, r8, r9, sl, pc}
 39c:	00018e02 	andeq	r8, r1, r2, lsl #28
 3a0:	0000000c 	andeq	r0, r0, ip
 3a4:	ffffffff 			; <UNDEFINED> instruction: 0xffffffff
 3a8:	7c020001 	stcvc	0, cr0, [r2], {1}
 3ac:	000d0c0e 	andeq	r0, sp, lr, lsl #24
 3b0:	00000018 	andeq	r0, r0, r8, lsl r0
 3b4:	000003a0 	andeq	r0, r0, r0, lsr #7
 3b8:	0000917c 	andeq	r9, r0, ip, ror r1
 3bc:	00000020 	andeq	r0, r0, r0, lsr #32
 3c0:	84100e42 	ldrhi	r0, [r0], #-3650	; 0xfffff1be
 3c4:	86038504 	strhi	r8, [r3], -r4, lsl #10
 3c8:	00018e02 	andeq	r8, r1, r2, lsl #28
 3cc:	00000018 	andeq	r0, r0, r8, lsl r0
 3d0:	000003a0 	andeq	r0, r0, r0, lsr #7
 3d4:	0000919c 	muleq	r0, ip, r1
 3d8:	00000020 	andeq	r0, r0, r0, lsr #32
 3dc:	84100e42 	ldrhi	r0, [r0], #-3650	; 0xfffff1be
 3e0:	86038504 	strhi	r8, [r3], -r4, lsl #10
 3e4:	00018e02 	andeq	r8, r1, r2, lsl #28
 3e8:	00000014 	andeq	r0, r0, r4, lsl r0
 3ec:	000003a0 	andeq	r0, r0, r0, lsr #7
 3f0:	000091bc 			; <UNDEFINED> instruction: 0x000091bc
 3f4:	000000b0 	strheq	r0, [r0], -r0	; <UNPREDICTABLE>
 3f8:	84080e42 	strhi	r0, [r8], #-3650	; 0xfffff1be
 3fc:	00018e02 	andeq	r8, r1, r2, lsl #28
 400:	00000014 	andeq	r0, r0, r4, lsl r0
 404:	000003a0 	andeq	r0, r0, r0, lsr #7
 408:	0000926c 	andeq	r9, r0, ip, ror #4
 40c:	00000018 	andeq	r0, r0, r8, lsl r0
 410:	84080e42 	strhi	r0, [r8], #-3650	; 0xfffff1be
 414:	00018e02 	andeq	r8, r1, r2, lsl #28
 418:	00000014 	andeq	r0, r0, r4, lsl r0
 41c:	000003a0 	andeq	r0, r0, r0, lsr #7
 420:	00009284 	andeq	r9, r0, r4, lsl #5
 424:	00000020 	andeq	r0, r0, r0, lsr #32
 428:	84080e42 	strhi	r0, [r8], #-3650	; 0xfffff1be
 42c:	00018e02 	andeq	r8, r1, r2, lsl #28
 430:	00000014 	andeq	r0, r0, r4, lsl r0
 434:	000003a0 	andeq	r0, r0, r0, lsr #7
 438:	000092a4 	andeq	r9, r0, r4, lsr #5
 43c:	00000030 	andeq	r0, r0, r0, lsr r0
 440:	84080e42 	strhi	r0, [r8], #-3650	; 0xfffff1be
 444:	00018e02 	andeq	r8, r1, r2, lsl #28
 448:	00000014 	andeq	r0, r0, r4, lsl r0
 44c:	000003a0 	andeq	r0, r0, r0, lsr #7
 450:	000092d4 	ldrdeq	r9, [r0], -r4
 454:	00000030 	andeq	r0, r0, r0, lsr r0
 458:	84080e42 	strhi	r0, [r8], #-3650	; 0xfffff1be
 45c:	00018e02 	andeq	r8, r1, r2, lsl #28
 460:	00000014 	andeq	r0, r0, r4, lsl r0
 464:	000003a0 	andeq	r0, r0, r0, lsr #7
 468:	00009304 	andeq	r9, r0, r4, lsl #6
 46c:	00000010 	andeq	r0, r0, r0, lsl r0
 470:	84080e42 	strhi	r0, [r8], #-3650	; 0xfffff1be
 474:	00018e02 	andeq	r8, r1, r2, lsl #28
 478:	00000014 	andeq	r0, r0, r4, lsl r0
 47c:	000003a0 	andeq	r0, r0, r0, lsr #7
 480:	00009314 	andeq	r9, r0, r4, lsl r3
 484:	00000020 	andeq	r0, r0, r0, lsr #32
 488:	84080e42 	strhi	r0, [r8], #-3650	; 0xfffff1be
 48c:	00018e02 	andeq	r8, r1, r2, lsl #28
 490:	00000014 	andeq	r0, r0, r4, lsl r0
 494:	000003a0 	andeq	r0, r0, r0, lsr #7
 498:	00009334 	andeq	r9, r0, r4, lsr r3
 49c:	00000014 	andeq	r0, r0, r4, lsl r0
 4a0:	84080e42 	strhi	r0, [r8], #-3650	; 0xfffff1be
 4a4:	00018e02 	andeq	r8, r1, r2, lsl #28
 4a8:	00000014 	andeq	r0, r0, r4, lsl r0
 4ac:	000003a0 	andeq	r0, r0, r0, lsr #7
 4b0:	00009348 	andeq	r9, r0, r8, asr #6
 4b4:	00000024 	andeq	r0, r0, r4, lsr #32
 4b8:	84080e42 	strhi	r0, [r8], #-3650	; 0xfffff1be
 4bc:	00018e02 	andeq	r8, r1, r2, lsl #28
 4c0:	0000000c 	andeq	r0, r0, ip
 4c4:	ffffffff 			; <UNDEFINED> instruction: 0xffffffff
 4c8:	7c020001 	stcvc	0, cr0, [r2], {1}
 4cc:	000d0c0e 	andeq	r0, sp, lr, lsl #24
 4d0:	00000014 	andeq	r0, r0, r4, lsl r0
 4d4:	000004c0 	andeq	r0, r0, r0, asr #9
 4d8:	0000936c 	andeq	r9, r0, ip, ror #6
 4dc:	00000014 	andeq	r0, r0, r4, lsl r0
 4e0:	84080e42 	strhi	r0, [r8], #-3650	; 0xfffff1be
 4e4:	00018e02 	andeq	r8, r1, r2, lsl #28
 4e8:	0000000c 	andeq	r0, r0, ip
 4ec:	000004c0 	andeq	r0, r0, r0, asr #9
 4f0:	00009380 	andeq	r9, r0, r0, lsl #7
 4f4:	00000018 	andeq	r0, r0, r8, lsl r0
 4f8:	0000000c 	andeq	r0, r0, ip
 4fc:	000004c0 	andeq	r0, r0, r0, asr #9
 500:	00009398 	muleq	r0, r8, r3
 504:	00000010 	andeq	r0, r0, r0, lsl r0
 508:	0000000c 	andeq	r0, r0, ip
 50c:	ffffffff 			; <UNDEFINED> instruction: 0xffffffff
 510:	7c020001 	stcvc	0, cr0, [r2], {1}
 514:	000d0c0e 	andeq	r0, sp, lr, lsl #24
 518:	0000000c 	andeq	r0, r0, ip
 51c:	00000508 	andeq	r0, r0, r8, lsl #10
 520:	000093a8 	andeq	r9, r0, r8, lsr #7
 524:	0000002c 	andeq	r0, r0, ip, lsr #32
 528:	0000000c 	andeq	r0, r0, ip
 52c:	ffffffff 			; <UNDEFINED> instruction: 0xffffffff
 530:	7c020001 	stcvc	0, cr0, [r2], {1}
 534:	000d0c0e 	andeq	r0, sp, lr, lsl #24
 538:	0000000c 	andeq	r0, r0, ip
 53c:	00000528 	andeq	r0, r0, r8, lsr #10
 540:	000093d4 	ldrdeq	r9, [r0], -r4
 544:	00000044 	andeq	r0, r0, r4, asr #32
 548:	0000000c 	andeq	r0, r0, ip
 54c:	ffffffff 			; <UNDEFINED> instruction: 0xffffffff
 550:	7c020001 	stcvc	0, cr0, [r2], {1}
 554:	000d0c0e 	andeq	r0, sp, lr, lsl #24
 558:	0000000c 	andeq	r0, r0, ip
 55c:	00000548 	andeq	r0, r0, r8, asr #10
 560:	00009418 	andeq	r9, r0, r8, lsl r4
 564:	00000018 	andeq	r0, r0, r8, lsl r0
 568:	0000000c 	andeq	r0, r0, ip
 56c:	ffffffff 			; <UNDEFINED> instruction: 0xffffffff
 570:	7c020001 	stcvc	0, cr0, [r2], {1}
 574:	000d0c0e 	andeq	r0, sp, lr, lsl #24
 578:	0000000c 	andeq	r0, r0, ip
 57c:	00000568 	andeq	r0, r0, r8, ror #10
 580:	00009430 	andeq	r9, r0, r0, lsr r4
 584:	00000030 	andeq	r0, r0, r0, lsr r0
 588:	0000000c 	andeq	r0, r0, ip
 58c:	ffffffff 			; <UNDEFINED> instruction: 0xffffffff
 590:	7c020001 	stcvc	0, cr0, [r2], {1}
 594:	000d0c0e 	andeq	r0, sp, lr, lsl #24
 598:	0000000c 	andeq	r0, r0, ip
 59c:	00000588 	andeq	r0, r0, r8, lsl #11
 5a0:	00009460 	andeq	r9, r0, r0, ror #8
 5a4:	00000004 	andeq	r0, r0, r4

Disassembly of section .debug_loclists:

00000000 <.debug_loclists>:
   0:	00000438 	andeq	r0, r0, r8, lsr r4
   4:	00040005 	andeq	r0, r4, r5
	...
  10:	f8040000 			; <UNDEFINED> instruction: 0xf8040000
  14:	01038802 	tsteq	r3, r2, lsl #16
  18:	03880450 	orreq	r0, r8, #80, 8	; 0x50000000
  1c:	54010390 	strpl	r0, [r1], #-912	; 0xfffffc70
  20:	a0039004 	andge	r9, r3, r4
  24:	01a30403 			; <UNDEFINED> instruction: 0x01a30403
  28:	00009f50 	andeq	r9, r0, r0, asr pc
  2c:	00000000 	andeq	r0, r0, r0
  30:	04000000 	streq	r0, [r0], #-0
  34:	03880384 	orreq	r0, r8, #132, 6	; 0x10000002
  38:	3500700b 	strcc	r7, [r0, #-11]
  3c:	80b42325 	adcshi	r2, r4, r5, lsr #6
  40:	9f028180 	svcls	0x00028180
  44:	8b038804 	blhi	e205c <__bss_end__+0xd85b4>
  48:	04500103 	ldrbeq	r0, [r0], #-259	; 0xfffffefd
  4c:	0390038b 	orrseq	r0, r0, #738197506	; 0x2c000002
  50:	3500740b 	strcc	r7, [r0, #-1035]	; 0xfffffbf5
  54:	80b42325 	adcshi	r2, r4, r5, lsr #6
  58:	9f028180 	svcls	0x00028180
  5c:	a0039004 	andge	r9, r3, r4
  60:	01a30c03 			; <UNDEFINED> instruction: 0x01a30c03
  64:	23253550 			; <UNDEFINED> instruction: 0x23253550
  68:	818080b4 	strhhi	r8, [r0, r4]
  6c:	01009f02 	tsteq	r0, r2, lsl #30
  70:	00000000 	andeq	r0, r0, r0
  74:	03840400 	orreq	r0, r4, #0, 8
  78:	70050388 	andvc	r0, r5, r8, lsl #7
  7c:	9f1a4f00 	svcls	0x001a4f00
  80:	90038804 	andls	r8, r3, r4, lsl #16
  84:	00740503 	rsbseq	r0, r4, r3, lsl #10
  88:	049f1a4f 	ldreq	r1, [pc], #2639	; 90 <__code_start__-0x7f70>
  8c:	03a00390 	moveq	r0, #144, 6	; 0x40000002
  90:	00005401 	andeq	r5, r0, r1, lsl #8
	...
  9c:	04000000 	streq	r0, [r0], #-0
  a0:	02dc02c8 	sbcseq	r0, ip, #200, 4	; 0x8000000c
  a4:	dc045001 	stcle	0, cr5, [r4], {1}
  a8:	0102e002 	tsteq	r2, r2
  ac:	02e00451 	rsceq	r0, r0, #1358954496	; 0x51000000
  b0:	a30402e4 	movwge	r0, #17124	; 0x42e4
  b4:	049f5001 	ldreq	r5, [pc], #1	; bc <__code_start__-0x7f44>
  b8:	02e802e4 	rsceq	r0, r8, #228, 4	; 0x4000000e
  bc:	e8045001 	stmda	r4, {r0, ip, lr}
  c0:	0102ec02 	tsteq	r2, r2, lsl #24
  c4:	02ec0451 	rsceq	r0, ip, #1358954496	; 0x51000000
  c8:	a30402f8 	movwge	r0, #17144	; 0x42f8
  cc:	009f5001 	addseq	r5, pc, r1
  d0:	00000000 	andeq	r0, r0, r0
  d4:	d402c804 	strle	ip, [r2], #-2052	; 0xfffff7fc
  d8:	04510102 	ldrbeq	r0, [r1], #-258	; 0xfffffefe
  dc:	02f802d4 	rscseq	r0, r8, #212, 4	; 0x4000000d
  e0:	5101a304 	tstpl	r1, r4, lsl #6
  e4:	0001009f 	muleq	r1, pc, r0	; <UNPREDICTABLE>
  e8:	00000000 	andeq	r0, r0, r0
  ec:	dc02d804 	stcle	8, cr13, [r2], {4}
  f0:	04500102 	ldrbeq	r0, [r0], #-258	; 0xfffffefe
  f4:	02e002dc 	rsceq	r0, r0, #220, 4	; 0xc000000d
  f8:	e0045101 	and	r5, r4, r1, lsl #2
  fc:	0402e402 	streq	lr, [r2], #-1026	; 0xfffffbfe
 100:	9f5001a3 	svcls	0x005001a3
 104:	00000200 	andeq	r0, r0, r0, lsl #4
 108:	04000000 	streq	r0, [r0], #-0
 10c:	02e802e4 	rsceq	r0, r8, #228, 4	; 0x4000000e
 110:	e8045001 	stmda	r4, {r0, ip, lr}
 114:	0102ec02 	tsteq	r2, r2, lsl #24
 118:	02ec0451 	rsceq	r0, ip, #1358954496	; 0x51000000
 11c:	a30402f8 	movwge	r0, #17144	; 0x42f8
 120:	009f5001 	addseq	r5, pc, r1
 124:	00000000 	andeq	r0, r0, r0
 128:	f0040000 			; <UNDEFINED> instruction: 0xf0040000
 12c:	01029001 	tsteq	r2, r1
 130:	02900450 	addseq	r0, r0, #80, 8	; 0x50000000
 134:	540102b0 	strpl	r0, [r1], #-688	; 0xfffffd50
 138:	c802b004 	stmdagt	r2, {r2, ip, sp, pc}
 13c:	01a30402 			; <UNDEFINED> instruction: 0x01a30402
 140:	02009f50 	andeq	r9, r0, #80, 30	; 0x140
 144:	00000000 	andeq	r0, r0, r0
 148:	01f00400 	mvnseq	r0, r0, lsl #8
 14c:	50010290 	mulpl	r1, r0, r2
 150:	b0029004 	andlt	r9, r2, r4
 154:	04540102 	ldrbeq	r0, [r4], #-258	; 0xfffffefe
 158:	02c802b0 	sbceq	r0, r8, #176, 4
 15c:	5001a304 	andpl	sl, r1, r4, lsl #6
 160:	0000009f 	muleq	r0, pc, r0	; <UNPREDICTABLE>
 164:	00000000 	andeq	r0, r0, r0
 168:	9001f804 	andls	pc, r1, r4, lsl #16
 16c:	04500102 	ldrbeq	r0, [r0], #-258	; 0xfffffefe
 170:	02b00290 	adcseq	r0, r0, #144, 4
 174:	b0045401 	andlt	r5, r4, r1, lsl #8
 178:	0402c802 	streq	ip, [r2], #-2050	; 0xfffff7fe
 17c:	9f5001a3 	svcls	0x005001a3
 180:	00000300 	andeq	r0, r0, r0, lsl #6
 184:	04000000 	streq	r0, [r0], #-0
 188:	029001f8 	addseq	r0, r0, #62	; 0x3e
 18c:	3a007007 	bcc	1c1b0 <__bss_end__+0x12708>
 190:	9f1e331d 	svcls	0x001e331d
 194:	b0029004 	andlt	r9, r2, r4
 198:	00740702 	rsbseq	r0, r4, r2, lsl #14
 19c:	1e331d3a 	mrcne	13, 1, r1, cr3, cr10, {1}
 1a0:	02b0049f 	adcseq	r0, r0, #-1627389952	; 0x9f000000
 1a4:	a30802c8 	movwge	r0, #33480	; 0x82c8
 1a8:	1d3a5001 	ldcne	0, cr5, [sl, #-4]!
 1ac:	009f1e33 	addseq	r1, pc, r3, lsr lr	; <UNPREDICTABLE>
 1b0:	00000000 	andeq	r0, r0, r0
 1b4:	98040000 	stmdals	r4, {}	; <UNPREDICTABLE>
 1b8:	0102c002 	tsteq	r2, r2
 1bc:	02c00456 	sbceq	r0, r0, #1442840576	; 0x56000000
 1c0:	500102c3 	andpl	r0, r1, r3, asr #5
 1c4:	c802c304 	stmdagt	r2, {r2, r8, r9, lr, pc}
 1c8:	01a32602 			; <UNDEFINED> instruction: 0x01a32602
 1cc:	a82da850 	stmdage	sp!, {r4, r6, fp, sp, pc}
 1d0:	0826a426 	stmdaeq	r6!, {r1, r2, r5, sl, sp, pc}
 1d4:	cccccccd 	stclgt	12, cr12, [ip], {205}	; 0xcd
 1d8:	00000000 	andeq	r0, r0, r0
 1dc:	a820081e 	stmdage	r0!, {r1, r2, r3, r4, fp}
 1e0:	2da82526 	cfstr32cs	mvfx2, [r8, #152]!	; 0x98
 1e4:	253300a8 	ldrcs	r0, [r3, #-168]!	; 0xffffff58
 1e8:	a0808023 	addge	r8, r0, r3, lsr #32
 1ec:	9f243240 	svcls	0x00243240
 1f0:	01010000 	mrseq	r0, (UNDEF: 1)
 1f4:	00000000 	andeq	r0, r0, r0
 1f8:	02a80400 	adceq	r0, r8, #0, 8
 1fc:	500102a8 	andpl	r0, r1, r8, lsr #5
 200:	b002a804 	andlt	sl, r2, r4, lsl #16
 204:	74370d02 	ldrtvc	r0, [r7], #-3330	; 0xfffff2fe
 208:	331d3a00 	tstcc	sp, #0, 20
 20c:	7020241e 	eorvc	r2, r0, lr, lsl r4
 210:	049f1a00 	ldreq	r1, [pc], #2560	; 218 <__code_start__-0x7de8>
 214:	02b802b0 	adcseq	r0, r8, #176, 4
 218:	01a3370e 			; <UNDEFINED> instruction: 0x01a3370e
 21c:	331d3a50 	tstcc	sp, #80, 20	; 0x50000
 220:	7020241e 	eorvc	r2, r0, lr, lsl r4
 224:	049f1a00 	ldreq	r1, [pc], #2560	; 22c <__code_start__-0x7dd4>
 228:	02c302b8 	sbceq	r0, r3, #184, 4	; 0x8000000b
 22c:	01a3370e 			; <UNDEFINED> instruction: 0x01a3370e
 230:	331d3a50 	tstcc	sp, #80, 20	; 0x50000
 234:	7320241e 			; <UNDEFINED> instruction: 0x7320241e
 238:	009f1a00 	addseq	r1, pc, r0, lsl #20
 23c:	00000000 	andeq	r0, r0, r0
 240:	01946404 	orrseq	r6, r4, r4, lsl #8
 244:	94045001 	strls	r5, [r4], #-1
 248:	0401c001 	streq	ip, [r1], #-1
 24c:	9f5001a3 	svcls	0x005001a3
 250:	00000200 	andeq	r0, r0, r0, lsl #4
 254:	94640400 	strbtls	r0, [r4], #-1024	; 0xfffffc00
 258:	04500101 	ldrbeq	r0, [r0], #-257	; 0xfffffeff
 25c:	01c00194 			; <UNDEFINED> instruction: 0x01c00194
 260:	5001a304 	andpl	sl, r1, r4, lsl #6
 264:	0000009f 	muleq	r0, pc, r0	; <UNPREDICTABLE>
 268:	6c040000 	stcvs	0, cr0, [r4], {-0}
 26c:	50010194 	mulpl	r1, r4, r1
 270:	c0019404 	andgt	r9, r1, r4, lsl #8
 274:	01a30401 			; <UNDEFINED> instruction: 0x01a30401
 278:	00009f50 	andeq	r9, r0, r0, asr pc
 27c:	04000000 	streq	r0, [r0], #-0
 280:	01b801a8 			; <UNDEFINED> instruction: 0x01b801a8
 284:	b8045401 	stmdalt	r4, {r0, sl, ip, lr}
 288:	2901c001 	stmdbcs	r1, {r0, lr, pc}
 28c:	a35001a3 	cmpge	r0, #-1073741784	; 0xc0000028
 290:	2da85001 	stccs	0, cr5, [r8, #4]!
 294:	26a426a8 	strtcs	r2, [r4], r8, lsr #13
 298:	cccccd08 	stclgt	13, cr12, [ip], {8}
 29c:	000000cc 	andeq	r0, r0, ip, asr #1
 2a0:	20081e00 	andcs	r1, r8, r0, lsl #28
 2a4:	a82526a8 	stmdage	r5!, {r3, r5, r7, r9, sl, sp}
 2a8:	3300a82d 	movwcc	sl, #2093	; 0x82d
 2ac:	311e3525 	tstcc	lr, r5, lsr #10
 2b0:	1e331c24 	cdpne	12, 3, cr1, cr3, cr4, {1}
 2b4:	0001009f 	muleq	r1, pc, r0	; <UNPREDICTABLE>
 2b8:	00000000 	andeq	r0, r0, r0
 2bc:	b801a804 	stmdalt	r1, {r2, fp, sp, pc}
 2c0:	04550101 	ldrbeq	r0, [r5], #-257	; 0xfffffeff
 2c4:	01bb01b8 			; <UNDEFINED> instruction: 0x01bb01b8
 2c8:	bb045001 	bllt	1142d4 <__bss_end__+0x10a82c>
 2cc:	2601c001 	strcs	ip, [r1], -r1
 2d0:	a85001a3 	ldmdage	r0, {r0, r1, r5, r7, r8}^
 2d4:	a426a82d 	strtge	sl, [r6], #-2093	; 0xfffff7d3
 2d8:	cccd0826 	stclgt	8, cr0, [sp], {38}	; 0x26
 2dc:	0000cccc 	andeq	ip, r0, ip, asr #25
 2e0:	081e0000 	ldmdaeq	lr, {}	; <UNPREDICTABLE>
 2e4:	2526a820 	strcs	sl, [r6, #-2080]!	; 0xfffff7e0
 2e8:	00a82da8 	adceq	r2, r8, r8, lsr #27
 2ec:	80232533 	eorhi	r2, r3, r3, lsr r5
 2f0:	3240a080 	subcc	sl, r0, #128, 0	; 0x80
 2f4:	02009f24 	andeq	r9, r0, #36, 30	; 0x90
 2f8:	01010000 	mrseq	r0, (UNDEF: 1)
 2fc:	04000000 	streq	r0, [r0], #-0
 300:	01ac01a8 			; <UNDEFINED> instruction: 0x01ac01a8
 304:	ac045001 	stcge	0, cr5, [r4], {1}
 308:	0101ac01 	tsteq	r1, r1, lsl #24
 30c:	01ac0453 			; <UNDEFINED> instruction: 0x01ac0453
 310:	310801b4 			; <UNDEFINED> instruction: 0x310801b4
 314:	73240074 			; <UNDEFINED> instruction: 0x73240074
 318:	049f2100 	ldreq	r2, [pc], #256	; 320 <__code_start__-0x7ce0>
 31c:	01bb01b4 			; <UNDEFINED> instruction: 0x01bb01b4
 320:	00005101 	andeq	r5, r0, r1, lsl #2
 324:	04000000 	streq	r0, [r0], #-0
 328:	50013c00 	andpl	r3, r1, r0, lsl #24
 32c:	04643c04 	strbteq	r3, [r4], #-3076	; 0xfffff3fc
 330:	9f5001a3 	svcls	0x005001a3
 334:	00000000 	andeq	r0, r0, r0
 338:	3f000400 	svccc	0x00000400
 33c:	3f045101 	svccc	0x00045101
 340:	01a30464 			; <UNDEFINED> instruction: 0x01a30464
 344:	00009f51 	andeq	r9, r0, r1, asr pc
 348:	04000000 	streq	r0, [r0], #-0
 34c:	51013f08 	tstpl	r1, r8, lsl #30
 350:	04643f04 	strbteq	r3, [r4], #-3844	; 0xfffff0fc
 354:	9f5101a3 	svcls	0x005101a3
 358:	00000000 	andeq	r0, r0, r0
 35c:	3c080400 	cfstrscc	mvf0, [r8], {-0}
 360:	3c045001 	stccc	0, cr5, [r4], {1}
 364:	01a30464 			; <UNDEFINED> instruction: 0x01a30464
 368:	00009f50 	andeq	r9, r0, r0, asr pc
 36c:	04000000 	streq	r0, [r0], #-0
 370:	54015c4c 	strpl	r5, [r1], #-3148	; 0xfffff3b4
 374:	29645c04 	stmdbcs	r4!, {r2, sl, fp, ip, lr}^
 378:	a35001a3 	cmpge	r0, #-1073741784	; 0xc0000028
 37c:	2da85001 	stccs	0, cr5, [r8, #4]!
 380:	26a426a8 	strtcs	r2, [r4], r8, lsr #13
 384:	cccccd08 	stclgt	13, cr12, [ip], {8}
 388:	000000cc 	andeq	r0, r0, ip, asr #1
 38c:	20081e00 	andcs	r1, r8, r0, lsl #28
 390:	a82526a8 	stmdage	r5!, {r3, r5, r7, r9, sl, sp}
 394:	3300a82d 	movwcc	sl, #2093	; 0x82d
 398:	311e3525 	tstcc	lr, r5, lsr #10
 39c:	1e331c24 	cdpne	12, 3, cr1, cr3, cr4, {1}
 3a0:	0001009f 	muleq	r1, pc, r0	; <UNPREDICTABLE>
 3a4:	00000000 	andeq	r0, r0, r0
 3a8:	015c4c04 	cmpeq	ip, r4, lsl #24
 3ac:	5f5c0456 	svcpl	0x005c0456
 3b0:	5f045001 	svcpl	0x00045001
 3b4:	01a32664 			; <UNDEFINED> instruction: 0x01a32664
 3b8:	a82da850 	stmdage	sp!, {r4, r6, fp, sp, pc}
 3bc:	0826a426 	stmdaeq	r6!, {r1, r2, r5, sl, sp, pc}
 3c0:	cccccccd 	stclgt	12, cr12, [ip], {205}	; 0xcd
 3c4:	00000000 	andeq	r0, r0, r0
 3c8:	a820081e 	stmdage	r0!, {r1, r2, r3, r4, fp}
 3cc:	2da82526 	cfstr32cs	mvfx2, [r8, #152]!	; 0x98
 3d0:	253300a8 	ldrcs	r0, [r3, #-168]!	; 0xffffff58
 3d4:	a0808023 	addge	r8, r0, r3, lsr #32
 3d8:	9f243240 	svcls	0x00243240
 3dc:	00000200 	andeq	r0, r0, r0, lsl #4
 3e0:	04000101 	streq	r0, [r0], #-257	; 0xfffffeff
 3e4:	5001504c 	andpl	r5, r1, ip, asr #32
 3e8:	01505004 	cmpeq	r0, r4
 3ec:	58500451 	ldmdapl	r0, {r0, r4, r6, sl}^
 3f0:	0800750c 	stmdaeq	r0, {r2, r3, r8, sl, ip, sp, lr}
 3f4:	00741aff 	ldrshteq	r1, [r4], #-175	; 0xffffff51
 3f8:	21007124 	tstcs	r0, r4, lsr #2
 3fc:	0000009f 	muleq	r0, pc, r0	; <UNPREDICTABLE>
 400:	00000000 	andeq	r0, r0, r0
 404:	cc01c004 	stcgt	0, cr12, [r1], {4}
 408:	04500101 	ldrbeq	r0, [r0], #-257	; 0xfffffeff
 40c:	01d301cc 	bicseq	r0, r3, ip, asr #3
 410:	d3045301 	movwle	r5, #17153	; 0x4301
 414:	0401d801 	streq	sp, [r1], #-2049	; 0xfffff7ff
 418:	9f5001a3 	svcls	0x005001a3
 41c:	00000000 	andeq	r0, r0, r0
 420:	04000000 	streq	r0, [r0], #-0
 424:	01e401d8 	ldrdeq	r0, [r4, #24]!
 428:	e4045001 	str	r5, [r4], #-1
 42c:	0101eb01 	tsteq	r1, r1, lsl #22
 430:	01eb0453 	mvneq	r0, r3, asr r4
 434:	a30401f0 	movwge	r0, #16880	; 0x41f0
 438:	009f5001 	addseq	r5, pc, r1

Disassembly of section .debug_rnglists:

00000000 <.debug_rnglists>:
   0:	00000057 	andeq	r0, r0, r7, asr r0
   4:	00040005 	andeq	r0, r4, r5
   8:	00000000 	andeq	r0, r0, r0
   c:	040c0804 	streq	r0, [ip], #-2052	; 0xfffff7fc
  10:	5c045814 	stcpl	8, cr5, [r4], {20}
  14:	64040064 	strvs	r0, [r4], #-100	; 0xffffff9c
  18:	b4740470 	ldrbtlt	r0, [r4], #-1136	; 0xfffffb90
  1c:	01b80401 			; <UNDEFINED> instruction: 0x01b80401
  20:	040001c0 	streq	r0, [r0], #-448	; 0xfffffe40
  24:	7404706c 	strvc	r7, [r4], #-108	; 0xffffff94
  28:	b80401b4 	stmdalt	r4, {r2, r4, r5, r7, r8}
  2c:	0001c001 	andeq	ip, r1, r1
  30:	f801f004 			; <UNDEFINED> instruction: 0xf801f004
  34:	01fc0401 	mvnseq	r0, r1, lsl #8
  38:	c00402bc 			; <UNDEFINED> instruction: 0xc00402bc
  3c:	0002c802 	andeq	ip, r2, r2, lsl #16
  40:	f801f804 			; <UNDEFINED> instruction: 0xf801f804
  44:	01fc0401 	mvnseq	r0, r1, lsl #8
  48:	c00402bc 			; <UNDEFINED> instruction: 0xc00402bc
  4c:	0002c802 	andeq	ip, r2, r2, lsl #16
  50:	d002cc04 	andle	ip, r2, r4, lsl #24
  54:	02d80402 	sbcseq	r0, r8, #33554432	; 0x2000000
  58:	Address 0x0000000000000058 is out of bounds.

