
1-cache.elf:     file format elf32-littlearm


Disassembly of section .text:

00008000 <__code_start__>:
    8000:	e3a00013 	mov	r0, #19, 0
    8004:	e3800080 	orr	r0, r0, #128, 0	; 0x80
    8008:	e129f000 	msr	CPSR_fc, r0
    800c:	e3a01000 	mov	r1, #0, 0
    8010:	ee071f95 	mcr	15, 0, r1, cr7, cr5, {4}
    8014:	e3a0d302 	mov	sp, #134217728	; 0x8000000
    8018:	e3a0b000 	mov	fp, #0, 0
    801c:	eb0002f7 	bl	8c00 <_cstart>
    8020:	eb000311 	bl	8c6c <rpi_reboot>

00008024 <PUT32>:
    8024:	e5801000 	str	r1, [r0]
    8028:	e12fff1e 	bx	lr

0000802c <GET32>:
    802c:	e5900000 	ldr	r0, [r0]
    8030:	e12fff1e 	bx	lr

00008034 <BRANCHTO>:
    8034:	e12fff10 	bx	r0

00008038 <measure_null>:
    8038:	ee1f3f3c 	mrc	15, 0, r3, cr15, cr12, {1}
    803c:	e3a02000 	mov	r2, #0, 0
    8040:	e5922000 	ldr	r2, [r2]
    8044:	ee1f0f3c 	mrc	15, 0, r0, cr15, cr12, {1}
    8048:	e0400003 	sub	r0, r0, r3
    804c:	e12fff1e 	bx	lr

00008050 <measure>:
    8050:	e92d47f0 	push	{r4, r5, r6, r7, r8, r9, sl, lr}
    8054:	e1a04000 	mov	r4, r0
    8058:	e59f8244 	ldr	r8, [pc, #580]	; 82a4 <measure+0x254>
    805c:	e1a00008 	mov	r0, r8
    8060:	eb0000e0 	bl	83e8 <printk>
    8064:	e1a01004 	mov	r1, r4
    8068:	e59f0238 	ldr	r0, [pc, #568]	; 82a8 <measure+0x258>
    806c:	eb0000dd 	bl	83e8 <printk>
    8070:	ee1f3f3c 	mrc	15, 0, r3, cr15, cr12, {1}
    8074:	ee1f1f3c 	mrc	15, 0, r1, cr15, cr12, {1}
    8078:	e0411003 	sub	r1, r1, r3
    807c:	e59f0228 	ldr	r0, [pc, #552]	; 82ac <measure+0x25c>
    8080:	eb0000d8 	bl	83e8 <printk>
    8084:	ee1f2f3c 	mrc	15, 0, r2, cr15, cr12, {1}
    8088:	ee1f1f3c 	mrc	15, 0, r1, cr15, cr12, {1}
    808c:	e59f621c 	ldr	r6, [pc, #540]	; 82b0 <measure+0x260>
    8090:	e59f521c 	ldr	r5, [pc, #540]	; 82b4 <measure+0x264>
    8094:	e59f421c 	ldr	r4, [pc, #540]	; 82b8 <measure+0x268>
    8098:	e1a03006 	mov	r3, r6
    809c:	e0412002 	sub	r2, r1, r2
    80a0:	e1a01005 	mov	r1, r5
    80a4:	e1a00004 	mov	r0, r4
    80a8:	eb0000ce 	bl	83e8 <printk>
    80ac:	ee1f2f3c 	mrc	15, 0, r2, cr15, cr12, {1}
    80b0:	ee1f1f3c 	mrc	15, 0, r1, cr15, cr12, {1}
    80b4:	e1a03006 	mov	r3, r6
    80b8:	e0412002 	sub	r2, r1, r2
    80bc:	e1a01005 	mov	r1, r5
    80c0:	e1a00004 	mov	r0, r4
    80c4:	eb0000c7 	bl	83e8 <printk>
    80c8:	ee1f2f3c 	mrc	15, 0, r2, cr15, cr12, {1}
    80cc:	ee1f1f3c 	mrc	15, 0, r1, cr15, cr12, {1}
    80d0:	e1a03006 	mov	r3, r6
    80d4:	e0412002 	sub	r2, r1, r2
    80d8:	e1a01005 	mov	r1, r5
    80dc:	e1a00004 	mov	r0, r4
    80e0:	eb0000c0 	bl	83e8 <printk>
    80e4:	ebffffd3 	bl	8038 <measure_null>
    80e8:	e1a01000 	mov	r1, r0
    80ec:	e59f51c8 	ldr	r5, [pc, #456]	; 82bc <measure+0x26c>
    80f0:	e1a00005 	mov	r0, r5
    80f4:	eb0000bb 	bl	83e8 <printk>
    80f8:	ebffffce 	bl	8038 <measure_null>
    80fc:	e1a01000 	mov	r1, r0
    8100:	e1a00005 	mov	r0, r5
    8104:	eb0000b7 	bl	83e8 <printk>
    8108:	ee1f2f3c 	mrc	15, 0, r2, cr15, cr12, {1}
    810c:	e3a07000 	mov	r7, #0, 0
    8110:	e5973000 	ldr	r3, [r7]
    8114:	ee1f1f3c 	mrc	15, 0, r1, cr15, cr12, {1}
    8118:	e59f61a0 	ldr	r6, [pc, #416]	; 82c0 <measure+0x270>
    811c:	e59f51a0 	ldr	r5, [pc, #416]	; 82c4 <measure+0x274>
    8120:	e1a03006 	mov	r3, r6
    8124:	e0412002 	sub	r2, r1, r2
    8128:	e1a01005 	mov	r1, r5
    812c:	e1a00004 	mov	r0, r4
    8130:	eb0000ac 	bl	83e8 <printk>
    8134:	ee1f2f3c 	mrc	15, 0, r2, cr15, cr12, {1}
    8138:	e5973000 	ldr	r3, [r7]
    813c:	ee1f1f3c 	mrc	15, 0, r1, cr15, cr12, {1}
    8140:	e1a03006 	mov	r3, r6
    8144:	e0412002 	sub	r2, r1, r2
    8148:	e1a01005 	mov	r1, r5
    814c:	e1a00004 	mov	r0, r4
    8150:	eb0000a4 	bl	83e8 <printk>
    8154:	ee1f7f3c 	mrc	15, 0, r7, cr15, cr12, {1}
    8158:	ebffffb6 	bl	8038 <measure_null>
    815c:	ee1f2f3c 	mrc	15, 0, r2, cr15, cr12, {1}
    8160:	e59f6160 	ldr	r6, [pc, #352]	; 82c8 <measure+0x278>
    8164:	e59f5160 	ldr	r5, [pc, #352]	; 82cc <measure+0x27c>
    8168:	e1a03006 	mov	r3, r6
    816c:	e0422007 	sub	r2, r2, r7
    8170:	e1a01005 	mov	r1, r5
    8174:	e1a00004 	mov	r0, r4
    8178:	eb00009a 	bl	83e8 <printk>
    817c:	ee1f7f3c 	mrc	15, 0, r7, cr15, cr12, {1}
    8180:	ebffffac 	bl	8038 <measure_null>
    8184:	ee1f2f3c 	mrc	15, 0, r2, cr15, cr12, {1}
    8188:	e1a03006 	mov	r3, r6
    818c:	e0422007 	sub	r2, r2, r7
    8190:	e1a01005 	mov	r1, r5
    8194:	e1a00004 	mov	r0, r4
    8198:	eb000092 	bl	83e8 <printk>
    819c:	e3a00001 	mov	r0, #1, 0
    81a0:	eb000061 	bl	832c <measure_assign>
    81a4:	e1a01000 	mov	r1, r0
    81a8:	e59f5120 	ldr	r5, [pc, #288]	; 82d0 <measure+0x280>
    81ac:	e1a00005 	mov	r0, r5
    81b0:	eb00008c 	bl	83e8 <printk>
    81b4:	e3a00001 	mov	r0, #1, 0
    81b8:	eb00005b 	bl	832c <measure_assign>
    81bc:	e1a01000 	mov	r1, r0
    81c0:	e1a00005 	mov	r0, r5
    81c4:	eb000087 	bl	83e8 <printk>
    81c8:	ee1f2f3c 	mrc	15, 0, r2, cr15, cr12, {1}
    81cc:	e59f7100 	ldr	r7, [pc, #256]	; 82d4 <measure+0x284>
    81d0:	e3a05001 	mov	r5, #1, 0
    81d4:	e5875000 	str	r5, [r7]
    81d8:	ee1f1f3c 	mrc	15, 0, r1, cr15, cr12, {1}
    81dc:	e59f90f4 	ldr	r9, [pc, #244]	; 82d8 <measure+0x288>
    81e0:	e59f60f4 	ldr	r6, [pc, #244]	; 82dc <measure+0x28c>
    81e4:	e1a03009 	mov	r3, r9
    81e8:	e0412002 	sub	r2, r1, r2
    81ec:	e1a01006 	mov	r1, r6
    81f0:	e1a00004 	mov	r0, r4
    81f4:	eb00007b 	bl	83e8 <printk>
    81f8:	ee1f2f3c 	mrc	15, 0, r2, cr15, cr12, {1}
    81fc:	e5875000 	str	r5, [r7]
    8200:	ee1f1f3c 	mrc	15, 0, r1, cr15, cr12, {1}
    8204:	e1a03009 	mov	r3, r9
    8208:	e0412002 	sub	r2, r1, r2
    820c:	e1a01006 	mov	r1, r6
    8210:	e1a00004 	mov	r0, r4
    8214:	eb000073 	bl	83e8 <printk>
    8218:	e1a00005 	mov	r0, r5
    821c:	eb00004a 	bl	834c <measure_PUT32>
    8220:	e1a01000 	mov	r1, r0
    8224:	e59f90b4 	ldr	r9, [pc, #180]	; 82e0 <measure+0x290>
    8228:	e1a00009 	mov	r0, r9
    822c:	eb00006d 	bl	83e8 <printk>
    8230:	e1a00005 	mov	r0, r5
    8234:	eb000044 	bl	834c <measure_PUT32>
    8238:	e1a01000 	mov	r1, r0
    823c:	e1a00009 	mov	r0, r9
    8240:	eb000068 	bl	83e8 <printk>
    8244:	ee1faf3c 	mrc	15, 0, sl, cr15, cr12, {1}
    8248:	e1a01005 	mov	r1, r5
    824c:	e1a00007 	mov	r0, r7
    8250:	ebffff73 	bl	8024 <PUT32>
    8254:	ee1f2f3c 	mrc	15, 0, r2, cr15, cr12, {1}
    8258:	e59f9084 	ldr	r9, [pc, #132]	; 82e4 <measure+0x294>
    825c:	e1a03009 	mov	r3, r9
    8260:	e042200a 	sub	r2, r2, sl
    8264:	e1a01006 	mov	r1, r6
    8268:	e1a00004 	mov	r0, r4
    826c:	eb00005d 	bl	83e8 <printk>
    8270:	ee1faf3c 	mrc	15, 0, sl, cr15, cr12, {1}
    8274:	e1a01005 	mov	r1, r5
    8278:	e1a00007 	mov	r0, r7
    827c:	ebffff68 	bl	8024 <PUT32>
    8280:	ee1f2f3c 	mrc	15, 0, r2, cr15, cr12, {1}
    8284:	e1a03009 	mov	r3, r9
    8288:	e042200a 	sub	r2, r2, sl
    828c:	e1a01006 	mov	r1, r6
    8290:	e1a00004 	mov	r0, r4
    8294:	eb000053 	bl	83e8 <printk>
    8298:	e1a00008 	mov	r0, r8
    829c:	eb000051 	bl	83e8 <printk>
    82a0:	e8bd87f0 	pop	{r4, r5, r6, r7, r8, r9, sl, pc}
    82a4:	00009148 	andeq	r9, r0, r8, asr #2
    82a8:	00009180 	andeq	r9, r0, r0, lsl #3
    82ac:	00009194 	muleq	r0, r4, r1
    82b0:	000091bc 			; <UNDEFINED> instruction: 0x000091bc
    82b4:	000091c0 	andeq	r9, r0, r0, asr #3
    82b8:	000091cc 	andeq	r9, r0, ip, asr #3
    82bc:	000091e0 	andeq	r9, r0, r0, ror #3
    82c0:	00009200 	andeq	r9, r0, r0, lsl #4
    82c4:	00009218 	andeq	r9, r0, r8, lsl r2
    82c8:	00009220 	andeq	r9, r0, r0, lsr #4
    82cc:	00009230 	andeq	r9, r0, r0, lsr r2
    82d0:	00009240 	andeq	r9, r0, r0, asr #4
    82d4:	0000944c 	andeq	r9, r0, ip, asr #8
    82d8:	00009264 	andeq	r9, r0, r4, ror #4
    82dc:	0000926c 	andeq	r9, r0, ip, ror #4
    82e0:	00009278 	andeq	r9, r0, r8, ror r2
    82e4:	0000929c 	muleq	r0, ip, r2

000082e8 <notmain>:
    82e8:	e92d4010 	push	{r4, lr}
    82ec:	e3a03001 	mov	r3, #1, 0
    82f0:	ee0f3f1c 	mcr	15, 0, r3, cr15, cr12, {0}
    82f4:	e59f0010 	ldr	r0, [pc, #16]	; 830c <notmain+0x24>
    82f8:	ebffff54 	bl	8050 <measure>
    82fc:	eb00022c 	bl	8bb4 <enable_cache>
    8300:	e59f0008 	ldr	r0, [pc, #8]	; 8310 <notmain+0x28>
    8304:	ebffff51 	bl	8050 <measure>
    8308:	eb000231 	bl	8bd4 <clean_reboot>
    830c:	000092a8 	andeq	r9, r0, r8, lsr #5
    8310:	000092b4 			; <UNDEFINED> instruction: 0x000092b4

00008314 <measure_NULL>:
    8314:	ee1f3f3c 	mrc	15, 0, r3, cr15, cr12, {1}
    8318:	e3a02000 	mov	r2, #0, 0
    831c:	e5922000 	ldr	r2, [r2]
    8320:	ee1f0f3c 	mrc	15, 0, r0, cr15, cr12, {1}
    8324:	e0400003 	sub	r0, r0, r3
    8328:	e12fff1e 	bx	lr

0000832c <measure_assign>:
    832c:	ee1f3f3c 	mrc	15, 0, r3, cr15, cr12, {1}
    8330:	e59f2010 	ldr	r2, [pc, #16]	; 8348 <measure_assign+0x1c>
    8334:	e3a01001 	mov	r1, #1, 0
    8338:	e5821000 	str	r1, [r2]
    833c:	ee1f0f3c 	mrc	15, 0, r0, cr15, cr12, {1}
    8340:	e0400003 	sub	r0, r0, r3
    8344:	e12fff1e 	bx	lr
    8348:	00009450 	andeq	r9, r0, r0, asr r4

0000834c <measure_PUT32>:
    834c:	e92d4010 	push	{r4, lr}
    8350:	e1a01000 	mov	r1, r0
    8354:	ee1f4f3c 	mrc	15, 0, r4, cr15, cr12, {1}
    8358:	e59f000c 	ldr	r0, [pc, #12]	; 836c <measure_PUT32+0x20>
    835c:	ebffff30 	bl	8024 <PUT32>
    8360:	ee1f0f3c 	mrc	15, 0, r0, cr15, cr12, {1}
    8364:	e0400004 	sub	r0, r0, r4
    8368:	e8bd8010 	pop	{r4, pc}
    836c:	00009450 	andeq	r9, r0, r0, asr r4

00008370 <measure_empty>:
    8370:	ee1f3f3c 	mrc	15, 0, r3, cr15, cr12, {1}
    8374:	ee1f0f3c 	mrc	15, 0, r0, cr15, cr12, {1}
    8378:	e0400003 	sub	r0, r0, r3
    837c:	e12fff1e 	bx	lr

00008380 <measure_nop1>:
    8380:	ee1f3f3c 	mrc	15, 0, r3, cr15, cr12, {1}
    8384:	e320f000 	nop	{0}
    8388:	ee1f0f3c 	mrc	15, 0, r0, cr15, cr12, {1}
    838c:	e0400003 	sub	r0, r0, r3
    8390:	e12fff1e 	bx	lr

00008394 <measure_nop2>:
    8394:	ee1f3f3c 	mrc	15, 0, r3, cr15, cr12, {1}
    8398:	e320f000 	nop	{0}
    839c:	e320f000 	nop	{0}
    83a0:	ee1f0f3c 	mrc	15, 0, r0, cr15, cr12, {1}
    83a4:	e0400003 	sub	r0, r0, r3
    83a8:	e12fff1e 	bx	lr

000083ac <measure_nop3>:
    83ac:	ee1f3f3c 	mrc	15, 0, r3, cr15, cr12, {1}
    83b0:	e320f000 	nop	{0}
    83b4:	e320f000 	nop	{0}
    83b8:	e320f000 	nop	{0}
    83bc:	ee1f0f3c 	mrc	15, 0, r0, cr15, cr12, {1}
    83c0:	e0400003 	sub	r0, r0, r3
    83c4:	e12fff1e 	bx	lr

000083c8 <measure_nop4>:
    83c8:	ee1f3f3c 	mrc	15, 0, r3, cr15, cr12, {1}
    83cc:	e320f000 	nop	{0}
    83d0:	e320f000 	nop	{0}
    83d4:	e320f000 	nop	{0}
    83d8:	e320f000 	nop	{0}
    83dc:	ee1f0f3c 	mrc	15, 0, r0, cr15, cr12, {1}
    83e0:	e0400003 	sub	r0, r0, r3
    83e4:	e12fff1e 	bx	lr

000083e8 <printk>:
    83e8:	e92d000f 	push	{r0, r1, r2, r3}
    83ec:	e92d4030 	push	{r4, r5, lr}
    83f0:	e24dd00c 	sub	sp, sp, #12, 0
    83f4:	e28d301c 	add	r3, sp, #28, 0
    83f8:	e58d3004 	str	r3, [sp, #4]
    83fc:	e59f5034 	ldr	r5, [pc, #52]	; 8438 <printk+0x50>
    8400:	e59d2018 	ldr	r2, [sp, #24]
    8404:	e3a01b01 	mov	r1, #1024	; 0x400
    8408:	e1a00005 	mov	r0, r5
    840c:	eb0000ba 	bl	86fc <va_printk>
    8410:	e1a04000 	mov	r4, r0
    8414:	e59f3020 	ldr	r3, [pc, #32]	; 843c <printk+0x54>
    8418:	e5933000 	ldr	r3, [r3]
    841c:	e1a00005 	mov	r0, r5
    8420:	e12fff33 	blx	r3
    8424:	e1a00004 	mov	r0, r4
    8428:	e28dd00c 	add	sp, sp, #12, 0
    842c:	e8bd4030 	pop	{r4, r5, lr}
    8430:	e28dd010 	add	sp, sp, #16, 0
    8434:	e12fff1e 	bx	lr
    8438:	00009454 	andeq	r9, r0, r4, asr r4
    843c:	00009444 	andeq	r9, r0, r4, asr #8

00008440 <internal_putk>:
    8440:	e92d4010 	push	{r4, lr}
    8444:	e1a04000 	mov	r4, r0
    8448:	e5d40000 	ldrb	r0, [r4]
    844c:	e3500000 	cmp	r0, #0, 0
    8450:	0a000004 	beq	8468 <internal_putk+0x28>
    8454:	e59f3014 	ldr	r3, [pc, #20]	; 8470 <internal_putk+0x30>
    8458:	e5933000 	ldr	r3, [r3]
    845c:	e12fff33 	blx	r3
    8460:	e2844001 	add	r4, r4, #1, 0
    8464:	eafffff7 	b	8448 <internal_putk+0x8>
    8468:	e3a00001 	mov	r0, #1, 0
    846c:	e8bd8010 	pop	{r4, pc}
    8470:	00009448 	andeq	r9, r0, r8, asr #8

00008474 <isdigit>:
    8474:	e2400030 	sub	r0, r0, #48, 0	; 0x30
    8478:	e3500009 	cmp	r0, #9, 0
    847c:	83a00000 	movhi	r0, #0, 0
    8480:	93a00001 	movls	r0, #1, 0
    8484:	e12fff1e 	bx	lr

00008488 <pad>:
    8488:	e0401001 	sub	r1, r0, r1
    848c:	e1510002 	cmp	r1, r2
    8490:	b3a03020 	movlt	r3, #32, 0
    8494:	b4c03001 	strblt	r3, [r0], #1
    8498:	b2811001 	addlt	r1, r1, #1, 0
    849c:	bafffffa 	blt	848c <pad+0x4>
    84a0:	e3a03000 	mov	r3, #0, 0
    84a4:	e5c03000 	strb	r3, [r0]
    84a8:	e12fff1e 	bx	lr

000084ac <reverse>:
    84ac:	e042c003 	sub	ip, r2, r3
    84b0:	e28cc001 	add	ip, ip, #1, 0
    84b4:	e15c0001 	cmp	ip, r1
    84b8:	c04cc001 	subgt	ip, ip, r1
    84bc:	c083300c 	addgt	r3, r3, ip
    84c0:	e2421001 	sub	r1, r2, #1, 0
    84c4:	e1a02000 	mov	r2, r0
    84c8:	e1510003 	cmp	r1, r3
    84cc:	2451c001 	ldrbcs	ip, [r1], #-1
    84d0:	24c2c001 	strbcs	ip, [r2], #1
    84d4:	2afffffb 	bcs	84c8 <reverse+0x1c>
    84d8:	e3a03000 	mov	r3, #0, 0
    84dc:	e5c23000 	strb	r3, [r2]
    84e0:	e12fff1e 	bx	lr

000084e4 <emit>:
    84e4:	e92d40f0 	push	{r4, r5, r6, r7, lr}
    84e8:	e24dd04c 	sub	sp, sp, #76, 0	; 0x4c
    84ec:	e1a05001 	mov	r5, r1
    84f0:	e1a04002 	mov	r4, r2
    84f4:	e59d2060 	ldr	r2, [sp, #96]	; 0x60
    84f8:	e1520004 	cmp	r2, r4
    84fc:	c2442001 	subgt	r2, r4, #1, 0
    8500:	e1a0c003 	mov	ip, r3
    8504:	e2400002 	sub	r0, r0, #2, 0
    8508:	e350000e 	cmp	r0, #14, 0
    850c:	979ff100 	ldrls	pc, [pc, r0, lsl #2]
    8510:	ea000050 	b	8658 <emit+0x174>
    8514:	00008630 	andeq	r8, r0, r0, lsr r6
    8518:	00008658 	andeq	r8, r0, r8, asr r6
    851c:	00008658 	andeq	r8, r0, r8, asr r6
    8520:	00008658 	andeq	r8, r0, r8, asr r6
    8524:	00008658 	andeq	r8, r0, r8, asr r6
    8528:	00008658 	andeq	r8, r0, r8, asr r6
    852c:	00008624 	andeq	r8, r0, r4, lsr #12
    8530:	00008658 	andeq	r8, r0, r8, asr r6
    8534:	00008550 	andeq	r8, r0, r0, asr r5
    8538:	00008658 	andeq	r8, r0, r8, asr r6
    853c:	00008658 	andeq	r8, r0, r8, asr r6
    8540:	00008658 	andeq	r8, r0, r8, asr r6
    8544:	00008658 	andeq	r8, r0, r8, asr r6
    8548:	00008658 	andeq	r8, r0, r8, asr r6
    854c:	000085c8 	andeq	r8, r0, r8, asr #11
    8550:	e59d1064 	ldr	r1, [sp, #100]	; 0x64
    8554:	e2511000 	subs	r1, r1, #0, 0
    8558:	13a01001 	movne	r1, #1, 0
    855c:	e0111fa3 	ands	r1, r1, r3, lsr #31
    8560:	0a000016 	beq	85c0 <emit+0xdc>
    8564:	e263c000 	rsb	ip, r3, #0, 0
    8568:	e3a06001 	mov	r6, #1, 0
    856c:	e28d0008 	add	r0, sp, #8, 0
    8570:	e59f3100 	ldr	r3, [pc, #256]	; 8678 <emit+0x194>
    8574:	e0831c93 	umull	r1, r3, r3, ip
    8578:	e1a031a3 	lsr	r3, r3, #3
    857c:	e1a0e003 	mov	lr, r3
    8580:	e0833103 	add	r3, r3, r3, lsl #2
    8584:	e04c3083 	sub	r3, ip, r3, lsl #1
    8588:	e1a01000 	mov	r1, r0
    858c:	e2800001 	add	r0, r0, #1, 0
    8590:	e59f70e4 	ldr	r7, [pc, #228]	; 867c <emit+0x198>
    8594:	e7d73003 	ldrb	r3, [r7, r3]
    8598:	e5c13000 	strb	r3, [r1]
    859c:	e1a0300c 	mov	r3, ip
    85a0:	e1a0c00e 	mov	ip, lr
    85a4:	e3530009 	cmp	r3, #9, 0
    85a8:	8afffff0 	bhi	8570 <emit+0x8c>
    85ac:	e3560000 	cmp	r6, #0, 0
    85b0:	13a0302d 	movne	r3, #45, 0	; 0x2d
    85b4:	15c03000 	strbne	r3, [r0]
    85b8:	12810002 	addne	r0, r1, #2, 0
    85bc:	ea00000f 	b	8600 <emit+0x11c>
    85c0:	e3a06000 	mov	r6, #0, 0
    85c4:	eaffffe8 	b	856c <emit+0x88>
    85c8:	e28d1008 	add	r1, sp, #8, 0
    85cc:	e20c000f 	and	r0, ip, #15, 0
    85d0:	e59fe0a8 	ldr	lr, [pc, #168]	; 8680 <emit+0x19c>
    85d4:	e7de0000 	ldrb	r0, [lr, r0]
    85d8:	e5c10000 	strb	r0, [r1]
    85dc:	e2811001 	add	r1, r1, #1, 0
    85e0:	e35c000f 	cmp	ip, #15, 0
    85e4:	e1a0c22c 	lsr	ip, ip, #4
    85e8:	8afffff7 	bhi	85cc <emit+0xe8>
    85ec:	e1a00001 	mov	r0, r1
    85f0:	e3a03078 	mov	r3, #120, 0	; 0x78
    85f4:	e4c03002 	strb	r3, [r0], #2
    85f8:	e3a03030 	mov	r3, #48, 0	; 0x30
    85fc:	e5c13001 	strb	r3, [r1, #1]
    8600:	e28d1008 	add	r1, sp, #8, 0
    8604:	ebffff9f 	bl	8488 <pad>
    8608:	e1a02000 	mov	r2, r0
    860c:	e28d3008 	add	r3, sp, #8, 0
    8610:	e1a01004 	mov	r1, r4
    8614:	e1a00005 	mov	r0, r5
    8618:	ebffffa3 	bl	84ac <reverse>
    861c:	e28dd04c 	add	sp, sp, #76, 0	; 0x4c
    8620:	e8bd80f0 	pop	{r4, r5, r6, r7, pc}
    8624:	e5cd3008 	strb	r3, [sp, #8]
    8628:	e28d0009 	add	r0, sp, #9, 0
    862c:	eafffff3 	b	8600 <emit+0x11c>
    8630:	e28d0008 	add	r0, sp, #8, 0
    8634:	e20c1001 	and	r1, ip, #1, 0
    8638:	e59fe044 	ldr	lr, [pc, #68]	; 8684 <emit+0x1a0>
    863c:	e7de1001 	ldrb	r1, [lr, r1]
    8640:	e5c01000 	strb	r1, [r0]
    8644:	e2800001 	add	r0, r0, #1, 0
    8648:	e35c0001 	cmp	ip, #1, 0
    864c:	e1a0c0ac 	lsr	ip, ip, #1
    8650:	8afffff7 	bhi	8634 <emit+0x150>
    8654:	eaffffe9 	b	8600 <emit+0x11c>
    8658:	e59f3028 	ldr	r3, [pc, #40]	; 8688 <emit+0x1a4>
    865c:	e58d3000 	str	r3, [sp]
    8660:	e3a03079 	mov	r3, #121, 0	; 0x79
    8664:	e59f2020 	ldr	r2, [pc, #32]	; 868c <emit+0x1a8>
    8668:	e59f1020 	ldr	r1, [pc, #32]	; 8690 <emit+0x1ac>
    866c:	e59f0020 	ldr	r0, [pc, #32]	; 8694 <emit+0x1b0>
    8670:	ebffff5c 	bl	83e8 <printk>
    8674:	eb000156 	bl	8bd4 <clean_reboot>
    8678:	cccccccd 	stclgt	12, cr12, [ip], {205}	; 0xcd
    867c:	000092e8 	andeq	r9, r0, r8, ror #5
    8680:	000092f4 	strdeq	r9, [r0], -r4
    8684:	00009308 	andeq	r9, r0, r8, lsl #6
    8688:	000092e4 	andeq	r9, r0, r4, ror #5
    868c:	00009414 	andeq	r9, r0, r4, lsl r4
    8690:	000092bc 			; <UNDEFINED> instruction: 0x000092bc
    8694:	000092d0 	ldrdeq	r9, [r0], -r0

00008698 <rpi_set_output>:
    8698:	e3500000 	cmp	r0, #0, 0
    869c:	0a000006 	beq	86bc <rpi_set_output+0x24>
    86a0:	e59f303c 	ldr	r3, [pc, #60]	; 86e4 <rpi_set_output+0x4c>
    86a4:	e5830000 	str	r0, [r3]
    86a8:	e3510000 	cmp	r1, #0, 0
    86ac:	012fff1e 	bxeq	lr
    86b0:	e59f3030 	ldr	r3, [pc, #48]	; 86e8 <rpi_set_output+0x50>
    86b4:	e5831000 	str	r1, [r3]
    86b8:	e12fff1e 	bx	lr
    86bc:	e52de004 	push	{lr}		; (str lr, [sp, #-4]!)
    86c0:	e24dd00c 	sub	sp, sp, #12, 0
    86c4:	e59f3020 	ldr	r3, [pc, #32]	; 86ec <rpi_set_output+0x54>
    86c8:	e58d3000 	str	r3, [sp]
    86cc:	e3a03020 	mov	r3, #32, 0
    86d0:	e59f2018 	ldr	r2, [pc, #24]	; 86f0 <rpi_set_output+0x58>
    86d4:	e59f1018 	ldr	r1, [pc, #24]	; 86f4 <rpi_set_output+0x5c>
    86d8:	e59f0018 	ldr	r0, [pc, #24]	; 86f8 <rpi_set_output+0x60>
    86dc:	ebffff41 	bl	83e8 <printk>
    86e0:	eb00013b 	bl	8bd4 <clean_reboot>
    86e4:	00009448 	andeq	r9, r0, r8, asr #8
    86e8:	00009444 	andeq	r9, r0, r4, asr #8
    86ec:	0000930c 	andeq	r9, r0, ip, lsl #6
    86f0:	0000941c 	andeq	r9, r0, ip, lsl r4
    86f4:	000092bc 			; <UNDEFINED> instruction: 0x000092bc
    86f8:	000092d0 	ldrdeq	r9, [r0], -r0

000086fc <va_printk>:
    86fc:	e92d4ff0 	push	{r4, r5, r6, r7, r8, r9, sl, fp, lr}
    8700:	e24ddf45 	sub	sp, sp, #276	; 0x114
    8704:	e1a09000 	mov	r9, r0
    8708:	e58d2008 	str	r2, [sp, #8]
    870c:	e58d300c 	str	r3, [sp, #12]
    8710:	e2411001 	sub	r1, r1, #1, 0
    8714:	e0808001 	add	r8, r0, r1
    8718:	e3a03000 	mov	r3, #0, 0
    871c:	e5c03000 	strb	r3, [r0]
    8720:	e1a04000 	mov	r4, r0
    8724:	e1a06002 	mov	r6, r2
    8728:	ea000001 	b	8734 <va_printk+0x38>
    872c:	e2866001 	add	r6, r6, #1, 0
    8730:	e4c43001 	strb	r3, [r4], #1
    8734:	e5d63000 	ldrb	r3, [r6]
    8738:	e3530000 	cmp	r3, #0, 0
    873c:	0a000108 	beq	8b64 <va_printk+0x468>
    8740:	e1540008 	cmp	r4, r8
    8744:	2a000106 	bcs	8b64 <va_printk+0x468>
    8748:	e3530025 	cmp	r3, #37, 0	; 0x25
    874c:	1afffff6 	bne	872c <va_printk+0x30>
    8750:	e5d62001 	ldrb	r2, [r6, #1]
    8754:	e3520025 	cmp	r2, #37, 0	; 0x25
    8758:	04c43001 	strbeq	r3, [r4], #1
    875c:	02866002 	addeq	r6, r6, #2, 0
    8760:	0afffff3 	beq	8734 <va_printk+0x38>
    8764:	e2866001 	add	r6, r6, #1, 0
    8768:	e3a05000 	mov	r5, #0, 0
    876c:	e5d67000 	ldrb	r7, [r6]
    8770:	e1a0a007 	mov	sl, r7
    8774:	e1a00007 	mov	r0, r7
    8778:	ebffff3d 	bl	8474 <isdigit>
    877c:	e3500000 	cmp	r0, #0, 0
    8780:	0a000004 	beq	8798 <va_printk+0x9c>
    8784:	e0855105 	add	r5, r5, r5, lsl #2
    8788:	e0875085 	add	r5, r7, r5, lsl #1
    878c:	e2455030 	sub	r5, r5, #48, 0	; 0x30
    8790:	e2866001 	add	r6, r6, #1, 0
    8794:	eafffff4 	b	876c <va_printk+0x70>
    8798:	e355001f 	cmp	r5, #31, 0
    879c:	8a00001a 	bhi	880c <va_printk+0x110>
    87a0:	e2477062 	sub	r7, r7, #98, 0	; 0x62
    87a4:	e3570016 	cmp	r7, #22, 0
    87a8:	979ff107 	ldrls	pc, [pc, r7, lsl #2]
    87ac:	ea0000d4 	b	8b04 <va_printk+0x408>
    87b0:	00008a88 	andeq	r8, r0, r8, lsl #21
    87b4:	00008ad0 	ldrdeq	r8, [r0], -r0
    87b8:	000089e8 	andeq	r8, r0, r8, ror #19
    87bc:	00008b04 	andeq	r8, r0, r4, lsl #22
    87c0:	000089d0 	ldrdeq	r8, [r0], -r0
    87c4:	00008b04 	andeq	r8, r0, r4, lsl #22
    87c8:	00008b04 	andeq	r8, r0, r4, lsl #22
    87cc:	00008b04 	andeq	r8, r0, r4, lsl #22
    87d0:	00008b04 	andeq	r8, r0, r4, lsl #22
    87d4:	00008b04 	andeq	r8, r0, r4, lsl #22
    87d8:	0000882c 	andeq	r8, r0, ip, lsr #16
    87dc:	00008b04 	andeq	r8, r0, r4, lsl #22
    87e0:	00008b04 	andeq	r8, r0, r4, lsl #22
    87e4:	00008b04 	andeq	r8, r0, r4, lsl #22
    87e8:	00008a54 	andeq	r8, r0, r4, asr sl
    87ec:	00008b04 	andeq	r8, r0, r4, lsl #22
    87f0:	00008b04 	andeq	r8, r0, r4, lsl #22
    87f4:	00008abc 			; <UNDEFINED> instruction: 0x00008abc
    87f8:	00008b04 	andeq	r8, r0, r4, lsl #22
    87fc:	00008a20 	andeq	r8, r0, r0, lsr #20
    8800:	00008b04 	andeq	r8, r0, r4, lsl #22
    8804:	00008b04 	andeq	r8, r0, r4, lsl #22
    8808:	00008a54 	andeq	r8, r0, r4, asr sl
    880c:	e59f3364 	ldr	r3, [pc, #868]	; 8b78 <va_printk+0x47c>
    8810:	e58d3000 	str	r3, [sp]
    8814:	e3a03098 	mov	r3, #152, 0	; 0x98
    8818:	e59f235c 	ldr	r2, [pc, #860]	; 8b7c <va_printk+0x480>
    881c:	e59f135c 	ldr	r1, [pc, #860]	; 8b80 <va_printk+0x484>
    8820:	e59f035c 	ldr	r0, [pc, #860]	; 8b84 <va_printk+0x488>
    8824:	ebfffeef 	bl	83e8 <printk>
    8828:	eb0000e9 	bl	8bd4 <clean_reboot>
    882c:	e3a02003 	mov	r2, #3, 0
    8830:	e59f1350 	ldr	r1, [pc, #848]	; 8b88 <va_printk+0x48c>
    8834:	e1a00006 	mov	r0, r6
    8838:	eb00022f 	bl	90fc <strncmp>
    883c:	e3500000 	cmp	r0, #0, 0
    8840:	0a000005 	beq	885c <va_printk+0x160>
    8844:	e3a02003 	mov	r2, #3, 0
    8848:	e59f133c 	ldr	r1, [pc, #828]	; 8b8c <va_printk+0x490>
    884c:	e1a00006 	mov	r0, r6
    8850:	eb000229 	bl	90fc <strncmp>
    8854:	e3500000 	cmp	r0, #0, 0
    8858:	1a000033 	bne	892c <va_printk+0x230>
    885c:	e286b002 	add	fp, r6, #2, 0
    8860:	e59d300c 	ldr	r3, [sp, #12]
    8864:	e2833007 	add	r3, r3, #7, 0
    8868:	e3c33007 	bic	r3, r3, #7, 0
    886c:	e2832008 	add	r2, r3, #8, 0
    8870:	e58d200c 	str	r2, [sp, #12]
    8874:	e593a000 	ldr	sl, [r3]
    8878:	e5937004 	ldr	r7, [r3, #4]
    887c:	e1a01007 	mov	r1, r7
    8880:	e59f0308 	ldr	r0, [pc, #776]	; 8b90 <va_printk+0x494>
    8884:	ebfffed7 	bl	83e8 <printk>
    8888:	e1a0100a 	mov	r1, sl
    888c:	e59f0300 	ldr	r0, [pc, #768]	; 8b94 <va_printk+0x498>
    8890:	ebfffed4 	bl	83e8 <printk>
    8894:	e3a02003 	mov	r2, #3, 0
    8898:	e59f12e8 	ldr	r1, [pc, #744]	; 8b88 <va_printk+0x48c>
    889c:	e1a00006 	mov	r0, r6
    88a0:	eb000215 	bl	90fc <strncmp>
    88a4:	e3500000 	cmp	r0, #0, 0
    88a8:	0a000027 	beq	894c <va_printk+0x250>
    88ac:	e3a02003 	mov	r2, #3, 0
    88b0:	e59f12d4 	ldr	r1, [pc, #724]	; 8b8c <va_printk+0x490>
    88b4:	e1a00006 	mov	r0, r6
    88b8:	eb00020f 	bl	90fc <strncmp>
    88bc:	e3500000 	cmp	r0, #0, 0
    88c0:	1a00003b 	bne	89b4 <va_printk+0x2b8>
    88c4:	e3a06000 	mov	r6, #0, 0
    88c8:	e58d6004 	str	r6, [sp, #4]
    88cc:	e58d5000 	str	r5, [sp]
    88d0:	e1a03007 	mov	r3, r7
    88d4:	e3a02080 	mov	r2, #128, 0	; 0x80
    88d8:	e28d1010 	add	r1, sp, #16, 0
    88dc:	e3a0000a 	mov	r0, #10, 0
    88e0:	ebfffeff 	bl	84e4 <emit>
    88e4:	e1a07000 	mov	r7, r0
    88e8:	e58d6004 	str	r6, [sp, #4]
    88ec:	e58d5000 	str	r5, [sp]
    88f0:	e1a0300a 	mov	r3, sl
    88f4:	e3a02080 	mov	r2, #128, 0	; 0x80
    88f8:	e28d1090 	add	r1, sp, #144, 0	; 0x90
    88fc:	e3a0000a 	mov	r0, #10, 0
    8900:	ebfffef7 	bl	84e4 <emit>
    8904:	e59f128c 	ldr	r1, [pc, #652]	; 8b98 <va_printk+0x49c>
    8908:	e28d0010 	add	r0, sp, #16, 0
    890c:	eb0001e7 	bl	90b0 <strcmp>
    8910:	e1500006 	cmp	r0, r6
    8914:	1a000021 	bne	89a0 <va_printk+0x2a4>
    8918:	e28d1090 	add	r1, sp, #144, 0	; 0x90
    891c:	e28d0010 	add	r0, sp, #16, 0
    8920:	eb0001ed 	bl	90dc <strcpy>
    8924:	e1a0600b 	mov	r6, fp
    8928:	ea00003a 	b	8a18 <va_printk+0x31c>
    892c:	e59f3268 	ldr	r3, [pc, #616]	; 8b9c <va_printk+0x4a0>
    8930:	e58d3000 	str	r3, [sp]
    8934:	e3a0309f 	mov	r3, #159, 0	; 0x9f
    8938:	e59f223c 	ldr	r2, [pc, #572]	; 8b7c <va_printk+0x480>
    893c:	e59f123c 	ldr	r1, [pc, #572]	; 8b80 <va_printk+0x484>
    8940:	e59f023c 	ldr	r0, [pc, #572]	; 8b84 <va_printk+0x488>
    8944:	ebfffea7 	bl	83e8 <printk>
    8948:	eb0000a1 	bl	8bd4 <clean_reboot>
    894c:	e3a06000 	mov	r6, #0, 0
    8950:	e58d6004 	str	r6, [sp, #4]
    8954:	e58d5000 	str	r5, [sp]
    8958:	e1a03007 	mov	r3, r7
    895c:	e3a02080 	mov	r2, #128, 0	; 0x80
    8960:	e28d1010 	add	r1, sp, #16, 0
    8964:	e3a00010 	mov	r0, #16, 0
    8968:	ebfffedd 	bl	84e4 <emit>
    896c:	e1a07000 	mov	r7, r0
    8970:	e58d6004 	str	r6, [sp, #4]
    8974:	e58d5000 	str	r5, [sp]
    8978:	e1a0300a 	mov	r3, sl
    897c:	e3a02080 	mov	r2, #128, 0	; 0x80
    8980:	e28d1090 	add	r1, sp, #144, 0	; 0x90
    8984:	e3a00010 	mov	r0, #16, 0
    8988:	ebfffed5 	bl	84e4 <emit>
    898c:	e28d1092 	add	r1, sp, #146, 0	; 0x92
    8990:	e28d0010 	add	r0, sp, #16, 0
    8994:	eb0001b8 	bl	907c <strcat>
    8998:	e1a0600b 	mov	r6, fp
    899c:	ea00001d 	b	8a18 <va_printk+0x31c>
    89a0:	e28d1090 	add	r1, sp, #144, 0	; 0x90
    89a4:	e28d0010 	add	r0, sp, #16, 0
    89a8:	eb0001b3 	bl	907c <strcat>
    89ac:	e1a0600b 	mov	r6, fp
    89b0:	ea000018 	b	8a18 <va_printk+0x31c>
    89b4:	e58d6000 	str	r6, [sp]
    89b8:	e3a030b6 	mov	r3, #182, 0	; 0xb6
    89bc:	e59f21b8 	ldr	r2, [pc, #440]	; 8b7c <va_printk+0x480>
    89c0:	e59f11b8 	ldr	r1, [pc, #440]	; 8b80 <va_printk+0x484>
    89c4:	e59f01d4 	ldr	r0, [pc, #468]	; 8ba0 <va_printk+0x4a4>
    89c8:	ebfffe86 	bl	83e8 <printk>
    89cc:	eb000080 	bl	8bd4 <clean_reboot>
    89d0:	e3a030be 	mov	r3, #190, 0	; 0xbe
    89d4:	e59f21a0 	ldr	r2, [pc, #416]	; 8b7c <va_printk+0x480>
    89d8:	e59f11a0 	ldr	r1, [pc, #416]	; 8b80 <va_printk+0x484>
    89dc:	e59f01c0 	ldr	r0, [pc, #448]	; 8ba4 <va_printk+0x4a8>
    89e0:	ebfffe80 	bl	83e8 <printk>
    89e4:	eb00007a 	bl	8bd4 <clean_reboot>
    89e8:	e59d300c 	ldr	r3, [sp, #12]
    89ec:	e2832004 	add	r2, r3, #4, 0
    89f0:	e58d200c 	str	r2, [sp, #12]
    89f4:	e5933000 	ldr	r3, [r3]
    89f8:	e3a02001 	mov	r2, #1, 0
    89fc:	e58d2004 	str	r2, [sp, #4]
    8a00:	e58d5000 	str	r5, [sp]
    8a04:	e3a02080 	mov	r2, #128, 0	; 0x80
    8a08:	e28d1010 	add	r1, sp, #16, 0
    8a0c:	e3a0000a 	mov	r0, #10, 0
    8a10:	ebfffeb3 	bl	84e4 <emit>
    8a14:	e1a07000 	mov	r7, r0
    8a18:	e2866001 	add	r6, r6, #1, 0
    8a1c:	ea00004a 	b	8b4c <va_printk+0x450>
    8a20:	e59d300c 	ldr	r3, [sp, #12]
    8a24:	e2832004 	add	r2, r3, #4, 0
    8a28:	e58d200c 	str	r2, [sp, #12]
    8a2c:	e5933000 	ldr	r3, [r3]
    8a30:	e3a02000 	mov	r2, #0, 0
    8a34:	e58d2004 	str	r2, [sp, #4]
    8a38:	e58d5000 	str	r5, [sp]
    8a3c:	e3a02080 	mov	r2, #128, 0	; 0x80
    8a40:	e28d1010 	add	r1, sp, #16, 0
    8a44:	e3a0000a 	mov	r0, #10, 0
    8a48:	ebfffea5 	bl	84e4 <emit>
    8a4c:	e1a07000 	mov	r7, r0
    8a50:	eafffff0 	b	8a18 <va_printk+0x31c>
    8a54:	e59d300c 	ldr	r3, [sp, #12]
    8a58:	e2832004 	add	r2, r3, #4, 0
    8a5c:	e58d200c 	str	r2, [sp, #12]
    8a60:	e5933000 	ldr	r3, [r3]
    8a64:	e3a02000 	mov	r2, #0, 0
    8a68:	e58d2004 	str	r2, [sp, #4]
    8a6c:	e58d5000 	str	r5, [sp]
    8a70:	e3a02080 	mov	r2, #128, 0	; 0x80
    8a74:	e28d1010 	add	r1, sp, #16, 0
    8a78:	e3a00010 	mov	r0, #16, 0
    8a7c:	ebfffe98 	bl	84e4 <emit>
    8a80:	e1a07000 	mov	r7, r0
    8a84:	eaffffe3 	b	8a18 <va_printk+0x31c>
    8a88:	e59d300c 	ldr	r3, [sp, #12]
    8a8c:	e2832004 	add	r2, r3, #4, 0
    8a90:	e58d200c 	str	r2, [sp, #12]
    8a94:	e5933000 	ldr	r3, [r3]
    8a98:	e3a02000 	mov	r2, #0, 0
    8a9c:	e58d2004 	str	r2, [sp, #4]
    8aa0:	e58d5000 	str	r5, [sp]
    8aa4:	e3a02080 	mov	r2, #128, 0	; 0x80
    8aa8:	e28d1010 	add	r1, sp, #16, 0
    8aac:	e3a00002 	mov	r0, #2, 0
    8ab0:	ebfffe8b 	bl	84e4 <emit>
    8ab4:	e1a07000 	mov	r7, r0
    8ab8:	eaffffd6 	b	8a18 <va_printk+0x31c>
    8abc:	e59d300c 	ldr	r3, [sp, #12]
    8ac0:	e2832004 	add	r2, r3, #4, 0
    8ac4:	e58d200c 	str	r2, [sp, #12]
    8ac8:	e5937000 	ldr	r7, [r3]
    8acc:	eaffffd1 	b	8a18 <va_printk+0x31c>
    8ad0:	e59d300c 	ldr	r3, [sp, #12]
    8ad4:	e2832004 	add	r2, r3, #4, 0
    8ad8:	e58d200c 	str	r2, [sp, #12]
    8adc:	e5933000 	ldr	r3, [r3]
    8ae0:	e3a02000 	mov	r2, #0, 0
    8ae4:	e58d2004 	str	r2, [sp, #4]
    8ae8:	e58d5000 	str	r5, [sp]
    8aec:	e3a02080 	mov	r2, #128, 0	; 0x80
    8af0:	e28d1010 	add	r1, sp, #16, 0
    8af4:	e3a00008 	mov	r0, #8, 0
    8af8:	ebfffe79 	bl	84e4 <emit>
    8afc:	e1a07000 	mov	r7, r0
    8b00:	eaffffc4 	b	8a18 <va_printk+0x31c>
    8b04:	e3a03000 	mov	r3, #0, 0
    8b08:	e5c63001 	strb	r3, [r6, #1]
    8b0c:	e1a0200a 	mov	r2, sl
    8b10:	e1a0100a 	mov	r1, sl
    8b14:	e59f008c 	ldr	r0, [pc, #140]	; 8ba8 <va_printk+0x4ac>
    8b18:	ebfffe32 	bl	83e8 <printk>
    8b1c:	e59f3088 	ldr	r3, [pc, #136]	; 8bac <va_printk+0x4b0>
    8b20:	e5933000 	ldr	r3, [r3]
    8b24:	e59d0008 	ldr	r0, [sp, #8]
    8b28:	e12fff33 	blx	r3
    8b2c:	e3a030e2 	mov	r3, #226, 0	; 0xe2
    8b30:	e59f2044 	ldr	r2, [pc, #68]	; 8b7c <va_printk+0x480>
    8b34:	e59f1044 	ldr	r1, [pc, #68]	; 8b80 <va_printk+0x484>
    8b38:	e59f0070 	ldr	r0, [pc, #112]	; 8bb0 <va_printk+0x4b4>
    8b3c:	ebfffe29 	bl	83e8 <printk>
    8b40:	eb000023 	bl	8bd4 <clean_reboot>
    8b44:	e2877001 	add	r7, r7, #1, 0
    8b48:	e4c43001 	strb	r3, [r4], #1
    8b4c:	e1540008 	cmp	r4, r8
    8b50:	2afffef7 	bcs	8734 <va_printk+0x38>
    8b54:	e5d73000 	ldrb	r3, [r7]
    8b58:	e3530000 	cmp	r3, #0, 0
    8b5c:	1afffff8 	bne	8b44 <va_printk+0x448>
    8b60:	eafffef3 	b	8734 <va_printk+0x38>
    8b64:	e3a03000 	mov	r3, #0, 0
    8b68:	e4c43001 	strb	r3, [r4], #1
    8b6c:	e0440009 	sub	r0, r4, r9
    8b70:	e28ddf45 	add	sp, sp, #276	; 0x114
    8b74:	e8bd8ff0 	pop	{r4, r5, r6, r7, r8, r9, sl, fp, pc}
    8b78:	00009314 	andeq	r9, r0, r4, lsl r3
    8b7c:	0000942c 	andeq	r9, r0, ip, lsr #8
    8b80:	000092bc 			; <UNDEFINED> instruction: 0x000092bc
    8b84:	000092d0 	ldrdeq	r9, [r0], -r0
    8b88:	00009320 	andeq	r9, r0, r0, lsr #6
    8b8c:	00009324 	andeq	r9, r0, r4, lsr #6
    8b90:	00009328 	andeq	r9, r0, r8, lsr #6
    8b94:	00009330 	andeq	r9, r0, r0, lsr r3
    8b98:	000092e4 	andeq	r9, r0, r4, ror #5
    8b9c:	00009338 	andeq	r9, r0, r8, lsr r3
    8ba0:	00009374 	andeq	r9, r0, r4, ror r3
    8ba4:	0000939c 	muleq	r0, ip, r3
    8ba8:	000093c4 	andeq	r9, r0, r4, asr #7
    8bac:	00009444 	andeq	r9, r0, r4, asr #8
    8bb0:	000093f4 	strdeq	r9, [r0], -r4

00008bb4 <enable_cache>:
    8bb4:	ee113f10 	mrc	15, 0, r3, cr1, cr0, {0}
    8bb8:	e3833b06 	orr	r3, r3, #6144	; 0x1800
    8bbc:	ee013f10 	mcr	15, 0, r3, cr1, cr0, {0}
    8bc0:	e12fff1e 	bx	lr

00008bc4 <disable_cache>:
    8bc4:	ee113f10 	mrc	15, 0, r3, cr1, cr0, {0}
    8bc8:	e3c33b06 	bic	r3, r3, #6144	; 0x1800
    8bcc:	ee013f10 	mcr	15, 0, r3, cr1, cr0, {0}
    8bd0:	e12fff1e 	bx	lr

00008bd4 <clean_reboot>:
    8bd4:	e92d4010 	push	{r4, lr}
    8bd8:	e59f3018 	ldr	r3, [pc, #24]	; 8bf8 <clean_reboot+0x24>
    8bdc:	e5933000 	ldr	r3, [r3]
    8be0:	e59f0014 	ldr	r0, [pc, #20]	; 8bfc <clean_reboot+0x28>
    8be4:	e12fff33 	blx	r3
    8be8:	eb0000c3 	bl	8efc <uart_flush_tx>
    8bec:	e3a0000a 	mov	r0, #10, 0
    8bf0:	eb000047 	bl	8d14 <delay_ms>
    8bf4:	eb00001c 	bl	8c6c <rpi_reboot>
    8bf8:	00009444 	andeq	r9, r0, r4, asr #8
    8bfc:	00009438 	andeq	r9, r0, r8, lsr r4

00008c00 <_cstart>:
    8c00:	e92d4010 	push	{r4, lr}
    8c04:	eb00000c 	bl	8c3c <custom_loader>
    8c08:	e59f3024 	ldr	r3, [pc, #36]	; 8c34 <_cstart+0x34>
    8c0c:	e59f2024 	ldr	r2, [pc, #36]	; 8c38 <_cstart+0x38>
    8c10:	e1530002 	cmp	r3, r2
    8c14:	33a02000 	movcc	r2, #0, 0
    8c18:	34832004 	strcc	r2, [r3], #4
    8c1c:	3afffffa 	bcc	8c0c <_cstart+0xc>
    8c20:	eb000057 	bl	8d84 <uart_init>
    8c24:	e3a03001 	mov	r3, #1, 0
    8c28:	ee0f3f1c 	mcr	15, 0, r3, cr15, cr12, {0}
    8c2c:	ebfffdad 	bl	82e8 <notmain>
    8c30:	ebffffe7 	bl	8bd4 <clean_reboot>
    8c34:	0000944c 	andeq	r9, r0, ip, asr #8
    8c38:	00009858 	andeq	r9, r0, r8, asr r8

00008c3c <custom_loader>:
    8c3c:	e12fff1e 	bx	lr

00008c40 <at_user_level>:
    8c40:	e10f0000 	mrs	r0, CPSR
    8c44:	e200001f 	and	r0, r0, #31, 0
    8c48:	e3500010 	cmp	r0, #16, 0
    8c4c:	13a00000 	movne	r0, #0, 0
    8c50:	03a00001 	moveq	r0, #1, 0
    8c54:	e12fff1e 	bx	lr

00008c58 <set_user_level>:
    8c58:	e10f3000 	mrs	r3, CPSR
    8c5c:	e3c3301f 	bic	r3, r3, #31, 0
    8c60:	e3833010 	orr	r3, r3, #16, 0
    8c64:	e129f003 	msr	CPSR_fc, r3
    8c68:	e12fff1e 	bx	lr

00008c6c <rpi_reboot>:
    8c6c:	e92d4010 	push	{r4, lr}
    8c70:	ebfffff2 	bl	8c40 <at_user_level>
    8c74:	e3500000 	cmp	r0, #0, 0
    8c78:	1a00000a 	bne	8ca8 <rpi_reboot+0x3c>
    8c7c:	eb000129 	bl	9128 <reboot_callout>
    8c80:	eb00009d 	bl	8efc <uart_flush_tx>
    8c84:	e3a0000a 	mov	r0, #10, 0
    8c88:	eb000021 	bl	8d14 <delay_ms>
    8c8c:	e59f101c 	ldr	r1, [pc, #28]	; 8cb0 <rpi_reboot+0x44>
    8c90:	e59f001c 	ldr	r0, [pc, #28]	; 8cb4 <rpi_reboot+0x48>
    8c94:	ebfffce2 	bl	8024 <PUT32>
    8c98:	e59f1018 	ldr	r1, [pc, #24]	; 8cb8 <rpi_reboot+0x4c>
    8c9c:	e59f0018 	ldr	r0, [pc, #24]	; 8cbc <rpi_reboot+0x50>
    8ca0:	ebfffcdf 	bl	8024 <PUT32>
    8ca4:	eafffffe 	b	8ca4 <rpi_reboot+0x38>
    8ca8:	ebffffea 	bl	8c58 <set_user_level>
    8cac:	eafffff2 	b	8c7c <rpi_reboot+0x10>
    8cb0:	5a000001 	bpl	8cbc <rpi_reboot+0x50>
    8cb4:	20100024 	andscs	r0, r0, r4, lsr #32
    8cb8:	5a000020 	bpl	8d40 <delay_sec+0x14>
    8cbc:	2010001c 	andscs	r0, r0, ip, lsl r0

00008cc0 <timer_get_usec_raw>:
    8cc0:	e92d4010 	push	{r4, lr}
    8cc4:	e59f0004 	ldr	r0, [pc, #4]	; 8cd0 <timer_get_usec_raw+0x10>
    8cc8:	ebfffcd7 	bl	802c <GET32>
    8ccc:	e8bd8010 	pop	{r4, pc}
    8cd0:	20003004 	andcs	r3, r0, r4

00008cd4 <timer_get_usec>:
    8cd4:	e92d4010 	push	{r4, lr}
    8cd8:	eb000113 	bl	912c <dev_barrier>
    8cdc:	ebfffff7 	bl	8cc0 <timer_get_usec_raw>
    8ce0:	e1a04000 	mov	r4, r0
    8ce4:	eb000110 	bl	912c <dev_barrier>
    8ce8:	e1a00004 	mov	r0, r4
    8cec:	e8bd8010 	pop	{r4, pc}

00008cf0 <delay_us>:
    8cf0:	e92d4070 	push	{r4, r5, r6, lr}
    8cf4:	e1a05000 	mov	r5, r0
    8cf8:	ebfffff5 	bl	8cd4 <timer_get_usec>
    8cfc:	e1a04000 	mov	r4, r0
    8d00:	ebfffff3 	bl	8cd4 <timer_get_usec>
    8d04:	e0400004 	sub	r0, r0, r4
    8d08:	e1500005 	cmp	r0, r5
    8d0c:	3afffffb 	bcc	8d00 <delay_us+0x10>
    8d10:	e8bd8070 	pop	{r4, r5, r6, pc}

00008d14 <delay_ms>:
    8d14:	e92d4010 	push	{r4, lr}
    8d18:	e0603280 	rsb	r3, r0, r0, lsl #5
    8d1c:	e0800103 	add	r0, r0, r3, lsl #2
    8d20:	e1a00180 	lsl	r0, r0, #3
    8d24:	ebfffff1 	bl	8cf0 <delay_us>
    8d28:	e8bd8010 	pop	{r4, pc}

00008d2c <delay_sec>:
    8d2c:	e92d4010 	push	{r4, lr}
    8d30:	e0603280 	rsb	r3, r0, r0, lsl #5
    8d34:	e0800103 	add	r0, r0, r3, lsl #2
    8d38:	e1a00180 	lsl	r0, r0, #3
    8d3c:	ebfffff4 	bl	8d14 <delay_ms>
    8d40:	e8bd8010 	pop	{r4, pc}

00008d44 <and_in32>:
    8d44:	e92d4070 	push	{r4, r5, r6, lr}
    8d48:	e1a04000 	mov	r4, r0
    8d4c:	e1a05001 	mov	r5, r1
    8d50:	ebfffcb5 	bl	802c <GET32>
    8d54:	e0001005 	and	r1, r0, r5
    8d58:	e1a00004 	mov	r0, r4
    8d5c:	ebfffcb0 	bl	8024 <PUT32>
    8d60:	e8bd8070 	pop	{r4, r5, r6, pc}

00008d64 <or_in32>:
    8d64:	e92d4070 	push	{r4, r5, r6, lr}
    8d68:	e1a04000 	mov	r4, r0
    8d6c:	e1a05001 	mov	r5, r1
    8d70:	ebfffcad 	bl	802c <GET32>
    8d74:	e1801005 	orr	r1, r0, r5
    8d78:	e1a00004 	mov	r0, r4
    8d7c:	ebfffca8 	bl	8024 <PUT32>
    8d80:	e8bd8070 	pop	{r4, r5, r6, pc}

00008d84 <uart_init>:
    8d84:	e92d4010 	push	{r4, lr}
    8d88:	e3a01002 	mov	r1, #2, 0
    8d8c:	e3a0000e 	mov	r0, #14, 0
    8d90:	eb000067 	bl	8f34 <gpio_set_function>
    8d94:	e3a01002 	mov	r1, #2, 0
    8d98:	e3a0000f 	mov	r0, #15, 0
    8d9c:	eb000064 	bl	8f34 <gpio_set_function>
    8da0:	eb0000e1 	bl	912c <dev_barrier>
    8da4:	e3a01001 	mov	r1, #1, 0
    8da8:	e59f0064 	ldr	r0, [pc, #100]	; 8e14 <uart_init+0x90>
    8dac:	ebffffec 	bl	8d64 <or_in32>
    8db0:	eb0000dd 	bl	912c <dev_barrier>
    8db4:	e59f405c 	ldr	r4, [pc, #92]	; 8e18 <uart_init+0x94>
    8db8:	e3a01000 	mov	r1, #0, 0
    8dbc:	e1a00004 	mov	r0, r4
    8dc0:	ebfffc97 	bl	8024 <PUT32>
    8dc4:	e3a01000 	mov	r1, #0, 0
    8dc8:	e59f004c 	ldr	r0, [pc, #76]	; 8e1c <uart_init+0x98>
    8dcc:	ebfffc94 	bl	8024 <PUT32>
    8dd0:	e3a01003 	mov	r1, #3, 0
    8dd4:	e59f0044 	ldr	r0, [pc, #68]	; 8e20 <uart_init+0x9c>
    8dd8:	ebfffc91 	bl	8024 <PUT32>
    8ddc:	e3a01000 	mov	r1, #0, 0
    8de0:	e59f003c 	ldr	r0, [pc, #60]	; 8e24 <uart_init+0xa0>
    8de4:	ebfffc8e 	bl	8024 <PUT32>
    8de8:	e3a010c7 	mov	r1, #199, 0	; 0xc7
    8dec:	e59f0034 	ldr	r0, [pc, #52]	; 8e28 <uart_init+0xa4>
    8df0:	ebfffc8b 	bl	8024 <PUT32>
    8df4:	e59f1030 	ldr	r1, [pc, #48]	; 8e2c <uart_init+0xa8>
    8df8:	e59f0030 	ldr	r0, [pc, #48]	; 8e30 <uart_init+0xac>
    8dfc:	ebfffc88 	bl	8024 <PUT32>
    8e00:	e3a01003 	mov	r1, #3, 0
    8e04:	e1a00004 	mov	r0, r4
    8e08:	ebfffc85 	bl	8024 <PUT32>
    8e0c:	eb0000c6 	bl	912c <dev_barrier>
    8e10:	e8bd8010 	pop	{r4, pc}
    8e14:	20215004 	eorcs	r5, r1, r4
    8e18:	20215060 	eorcs	r5, r1, r0, rrx
    8e1c:	20215044 	eorcs	r5, r1, r4, asr #32
    8e20:	2021504c 	eorcs	r5, r1, ip, asr #32
    8e24:	20215050 	eorcs	r5, r1, r0, asr r0
    8e28:	20215048 	eorcs	r5, r1, r8, asr #32
    8e2c:	0000010e 	andeq	r0, r0, lr, lsl #2
    8e30:	20215068 	eorcs	r5, r1, r8, rrx

00008e34 <uart_can_getc>:
    8e34:	e92d4010 	push	{r4, lr}
    8e38:	e59f0008 	ldr	r0, [pc, #8]	; 8e48 <uart_can_getc+0x14>
    8e3c:	ebfffc7a 	bl	802c <GET32>
    8e40:	e2000001 	and	r0, r0, #1, 0
    8e44:	e8bd8010 	pop	{r4, pc}
    8e48:	20215064 	eorcs	r5, r1, r4, rrx

00008e4c <uart_can_putc>:
    8e4c:	e92d4010 	push	{r4, lr}
    8e50:	e59f0010 	ldr	r0, [pc, #16]	; 8e68 <uart_can_putc+0x1c>
    8e54:	ebfffc74 	bl	802c <GET32>
    8e58:	e3100002 	tst	r0, #2, 0
    8e5c:	13a00001 	movne	r0, #1, 0
    8e60:	03a00000 	moveq	r0, #0, 0
    8e64:	e8bd8010 	pop	{r4, pc}
    8e68:	20215064 	eorcs	r5, r1, r4, rrx

00008e6c <uart_getc>:
    8e6c:	e92d4010 	push	{r4, lr}
    8e70:	eb0000ad 	bl	912c <dev_barrier>
    8e74:	ebffffee 	bl	8e34 <uart_can_getc>
    8e78:	e3500000 	cmp	r0, #0, 0
    8e7c:	0afffffc 	beq	8e74 <uart_getc+0x8>
    8e80:	e59f0010 	ldr	r0, [pc, #16]	; 8e98 <uart_getc+0x2c>
    8e84:	ebfffc68 	bl	802c <GET32>
    8e88:	e6ef4070 	uxtb	r4, r0
    8e8c:	eb0000a6 	bl	912c <dev_barrier>
    8e90:	e1a00004 	mov	r0, r4
    8e94:	e8bd8010 	pop	{r4, pc}
    8e98:	20215040 	eorcs	r5, r1, r0, asr #32

00008e9c <uart_putc>:
    8e9c:	e92d4010 	push	{r4, lr}
    8ea0:	e1a04000 	mov	r4, r0
    8ea4:	eb0000a0 	bl	912c <dev_barrier>
    8ea8:	ebffffe7 	bl	8e4c <uart_can_putc>
    8eac:	e3500000 	cmp	r0, #0, 0
    8eb0:	0afffffc 	beq	8ea8 <uart_putc+0xc>
    8eb4:	e6ef1074 	uxtb	r1, r4
    8eb8:	e59f0008 	ldr	r0, [pc, #8]	; 8ec8 <uart_putc+0x2c>
    8ebc:	ebfffc58 	bl	8024 <PUT32>
    8ec0:	eb000099 	bl	912c <dev_barrier>
    8ec4:	e8bd8010 	pop	{r4, pc}
    8ec8:	20215040 	eorcs	r5, r1, r0, asr #32

00008ecc <uart_has_data>:
    8ecc:	e92d4010 	push	{r4, lr}
    8ed0:	eb000095 	bl	912c <dev_barrier>
    8ed4:	ebffffd6 	bl	8e34 <uart_can_getc>
    8ed8:	e8bd8010 	pop	{r4, pc}

00008edc <uart_tx_is_empty>:
    8edc:	e92d4010 	push	{r4, lr}
    8ee0:	eb000091 	bl	912c <dev_barrier>
    8ee4:	e59f000c 	ldr	r0, [pc, #12]	; 8ef8 <uart_tx_is_empty+0x1c>
    8ee8:	ebfffc4f 	bl	802c <GET32>
    8eec:	e1a004a0 	lsr	r0, r0, #9
    8ef0:	e2000001 	and	r0, r0, #1, 0
    8ef4:	e8bd8010 	pop	{r4, pc}
    8ef8:	20215064 	eorcs	r5, r1, r4, rrx

00008efc <uart_flush_tx>:
    8efc:	e92d4010 	push	{r4, lr}
    8f00:	ebfffff5 	bl	8edc <uart_tx_is_empty>
    8f04:	e3500000 	cmp	r0, #0, 0
    8f08:	0afffffc 	beq	8f00 <uart_flush_tx+0x4>
    8f0c:	e8bd8010 	pop	{r4, pc}

00008f10 <uart_disable>:
    8f10:	e92d4010 	push	{r4, lr}
    8f14:	ebfffff8 	bl	8efc <uart_flush_tx>
    8f18:	eb000083 	bl	912c <dev_barrier>
    8f1c:	e3e01001 	mvn	r1, #1, 0
    8f20:	e59f0008 	ldr	r0, [pc, #8]	; 8f30 <uart_disable+0x20>
    8f24:	ebffff86 	bl	8d44 <and_in32>
    8f28:	eb00007f 	bl	912c <dev_barrier>
    8f2c:	e8bd8010 	pop	{r4, pc}
    8f30:	20215004 	eorcs	r5, r1, r4

00008f34 <gpio_set_function>:
    8f34:	e350001f 	cmp	r0, #31, 0
    8f38:	812fff1e 	bxhi	lr
    8f3c:	e92d4070 	push	{r4, r5, r6, lr}
    8f40:	e1a05001 	mov	r5, r1
    8f44:	e3d13007 	bics	r3, r1, #7, 0
    8f48:	18bd8070 	popne	{r4, r5, r6, pc}
    8f4c:	e59f3040 	ldr	r3, [pc, #64]	; 8f94 <gpio_set_function+0x60>
    8f50:	e0832093 	umull	r2, r3, r3, r0
    8f54:	e1a031a3 	lsr	r3, r3, #3
    8f58:	e1a02003 	mov	r2, r3
    8f5c:	e0833103 	add	r3, r3, r3, lsl #2
    8f60:	e0403083 	sub	r3, r0, r3, lsl #1
    8f64:	e0834083 	add	r4, r3, r3, lsl #1
    8f68:	e2820302 	add	r0, r2, #134217728	; 0x8000000
    8f6c:	e2800702 	add	r0, r0, #524288	; 0x80000
    8f70:	e1a06100 	lsl	r6, r0, #2
    8f74:	e1a00006 	mov	r0, r6
    8f78:	ebfffc2b 	bl	802c <GET32>
    8f7c:	e3a01007 	mov	r1, #7, 0
    8f80:	e1c01411 	bic	r1, r0, r1, lsl r4
    8f84:	e1811415 	orr	r1, r1, r5, lsl r4
    8f88:	e1a00006 	mov	r0, r6
    8f8c:	ebfffc24 	bl	8024 <PUT32>
    8f90:	e8bd8070 	pop	{r4, r5, r6, pc}
    8f94:	cccccccd 	stclgt	12, cr12, [ip], {205}	; 0xcd

00008f98 <gpio_set_output>:
    8f98:	e92d4010 	push	{r4, lr}
    8f9c:	e3a01001 	mov	r1, #1, 0
    8fa0:	ebffffe3 	bl	8f34 <gpio_set_function>
    8fa4:	e8bd8010 	pop	{r4, pc}

00008fa8 <gpio_set_on>:
    8fa8:	e350001f 	cmp	r0, #31, 0
    8fac:	812fff1e 	bxhi	lr
    8fb0:	e92d4010 	push	{r4, lr}
    8fb4:	e3a01001 	mov	r1, #1, 0
    8fb8:	e1a01011 	lsl	r1, r1, r0
    8fbc:	e59f0004 	ldr	r0, [pc, #4]	; 8fc8 <gpio_set_on+0x20>
    8fc0:	ebfffc17 	bl	8024 <PUT32>
    8fc4:	e8bd8010 	pop	{r4, pc}
    8fc8:	2020001c 	eorcs	r0, r0, ip, lsl r0

00008fcc <gpio_set_off>:
    8fcc:	e350001f 	cmp	r0, #31, 0
    8fd0:	812fff1e 	bxhi	lr
    8fd4:	e92d4010 	push	{r4, lr}
    8fd8:	e3a01001 	mov	r1, #1, 0
    8fdc:	e1a01011 	lsl	r1, r1, r0
    8fe0:	e59f0004 	ldr	r0, [pc, #4]	; 8fec <gpio_set_off+0x20>
    8fe4:	ebfffc0e 	bl	8024 <PUT32>
    8fe8:	e8bd8010 	pop	{r4, pc}
    8fec:	20200028 	eorcs	r0, r0, r8, lsr #32

00008ff0 <gpio_set_input>:
    8ff0:	e92d4010 	push	{r4, lr}
    8ff4:	e3a01000 	mov	r1, #0, 0
    8ff8:	ebffffcd 	bl	8f34 <gpio_set_function>
    8ffc:	e8bd8010 	pop	{r4, pc}

00009000 <gpio_write>:
    9000:	e92d4010 	push	{r4, lr}
    9004:	e3510000 	cmp	r1, #0, 0
    9008:	0a000001 	beq	9014 <gpio_write+0x14>
    900c:	ebffffe5 	bl	8fa8 <gpio_set_on>
    9010:	e8bd8010 	pop	{r4, pc}
    9014:	ebffffec 	bl	8fcc <gpio_set_off>
    9018:	e8bd8010 	pop	{r4, pc}

0000901c <gpio_read>:
    901c:	e92d4010 	push	{r4, lr}
    9020:	e200401f 	and	r4, r0, #31, 0
    9024:	e59f3010 	ldr	r3, [pc, #16]	; 903c <gpio_read+0x20>
    9028:	e08302a0 	add	r0, r3, r0, lsr #5
    902c:	ebfffbfe 	bl	802c <GET32>
    9030:	e1a00430 	lsr	r0, r0, r4
    9034:	e2000001 	and	r0, r0, #1, 0
    9038:	e8bd8010 	pop	{r4, pc}
    903c:	20200034 	eorcs	r0, r0, r4, lsr r0

00009040 <internal_putchar>:
    9040:	e92d4010 	push	{r4, lr}
    9044:	e1a04000 	mov	r4, r0
    9048:	ebffff93 	bl	8e9c <uart_putc>
    904c:	e1a00004 	mov	r0, r4
    9050:	e8bd8010 	pop	{r4, pc}

00009054 <rpi_reset_putc>:
    9054:	e59f3008 	ldr	r3, [pc, #8]	; 9064 <rpi_reset_putc+0x10>
    9058:	e59f2008 	ldr	r2, [pc, #8]	; 9068 <rpi_reset_putc+0x14>
    905c:	e5832000 	str	r2, [r3]
    9060:	e12fff1e 	bx	lr
    9064:	00009448 	andeq	r9, r0, r8, asr #8
    9068:	00009040 	andeq	r9, r0, r0, asr #32

0000906c <rpi_set_putc>:
    906c:	e59f3004 	ldr	r3, [pc, #4]	; 9078 <rpi_set_putc+0xc>
    9070:	e5830000 	str	r0, [r3]
    9074:	e12fff1e 	bx	lr
    9078:	00009448 	andeq	r9, r0, r8, asr #8

0000907c <strcat>:
    907c:	e1a02000 	mov	r2, r0
    9080:	e1a03002 	mov	r3, r2
    9084:	e2822001 	add	r2, r2, #1, 0
    9088:	e5d3c000 	ldrb	ip, [r3]
    908c:	e35c0000 	cmp	ip, #0, 0
    9090:	1afffffa 	bne	9080 <strcat+0x4>
    9094:	e2433001 	sub	r3, r3, #1, 0
    9098:	e5d12000 	ldrb	r2, [r1]
    909c:	e2811001 	add	r1, r1, #1, 0
    90a0:	e5e32001 	strb	r2, [r3, #1]!
    90a4:	e3520000 	cmp	r2, #0, 0
    90a8:	1afffffa 	bne	9098 <strcat+0x1c>
    90ac:	e12fff1e 	bx	lr

000090b0 <strcmp>:
    90b0:	e5d03000 	ldrb	r3, [r0]
    90b4:	e3530000 	cmp	r3, #0, 0
    90b8:	0a000004 	beq	90d0 <strcmp+0x20>
    90bc:	e5d12000 	ldrb	r2, [r1]
    90c0:	e1530002 	cmp	r3, r2
    90c4:	02800001 	addeq	r0, r0, #1, 0
    90c8:	02811001 	addeq	r1, r1, #1, 0
    90cc:	0afffff7 	beq	90b0 <strcmp>
    90d0:	e5d10000 	ldrb	r0, [r1]
    90d4:	e0430000 	sub	r0, r3, r0
    90d8:	e12fff1e 	bx	lr

000090dc <strcpy>:
    90dc:	e1a0c000 	mov	ip, r0
    90e0:	e5d12000 	ldrb	r2, [r1]
    90e4:	e2811001 	add	r1, r1, #1, 0
    90e8:	e5cc2000 	strb	r2, [ip]
    90ec:	e28cc001 	add	ip, ip, #1, 0
    90f0:	e3520000 	cmp	r2, #0, 0
    90f4:	1afffff9 	bne	90e0 <strcpy+0x4>
    90f8:	e12fff1e 	bx	lr

000090fc <strncmp>:
    90fc:	e3520000 	cmp	r2, #0, 0
    9100:	e2422001 	sub	r2, r2, #1, 0
    9104:	0a000005 	beq	9120 <strncmp+0x24>
    9108:	e4d03001 	ldrb	r3, [r0], #1
    910c:	e4d1c001 	ldrb	ip, [r1], #1
    9110:	e153000c 	cmp	r3, ip
    9114:	0afffff8 	beq	90fc <strncmp>
    9118:	e043000c 	sub	r0, r3, ip
    911c:	e12fff1e 	bx	lr
    9120:	e3a00000 	mov	r0, #0, 0
    9124:	e12fff1e 	bx	lr

00009128 <reboot_callout>:
    9128:	e12fff1e 	bx	lr

0000912c <dev_barrier>:
    912c:	ea000002 	b	913c <dsb>

00009130 <dmb>:
    9130:	e3a00000 	mov	r0, #0, 0
    9134:	ee070fba 	mcr	15, 0, r0, cr7, cr10, {5}
    9138:	e12fff1e 	bx	lr

0000913c <dsb>:
    913c:	ee070f9a 	mcr	15, 0, r0, cr7, cr10, {4}
    9140:	e12fff1e 	bx	lr

00009144 <__code_end__>:
    9144:	00000000 	andeq	r0, r0, r0

Disassembly of section .rodata:

00009148 <__FUNCTION__.4000-0x2cc>:
    9148:	2d2d2d2d 	stccs	13, cr2, [sp, #-180]!	; 0xffffff4c
    914c:	2d2d2d2d 	stccs	13, cr2, [sp, #-180]!	; 0xffffff4c
    9150:	2d2d2d2d 	stccs	13, cr2, [sp, #-180]!	; 0xffffff4c
    9154:	2d2d2d2d 	stccs	13, cr2, [sp, #-180]!	; 0xffffff4c
    9158:	2d2d2d2d 	stccs	13, cr2, [sp, #-180]!	; 0xffffff4c
    915c:	2d2d2d2d 	stccs	13, cr2, [sp, #-180]!	; 0xffffff4c
    9160:	2d2d2d2d 	stccs	13, cr2, [sp, #-180]!	; 0xffffff4c
    9164:	2d2d2d2d 	stccs	13, cr2, [sp, #-180]!	; 0xffffff4c
    9168:	2d2d2d2d 	stccs	13, cr2, [sp, #-180]!	; 0xffffff4c
    916c:	2d2d2d2d 	stccs	13, cr2, [sp, #-180]!	; 0xffffff4c
    9170:	2d2d2d2d 	stccs	13, cr2, [sp, #-180]!	; 0xffffff4c
    9174:	2d2d2d2d 	stccs	13, cr2, [sp, #-180]!	; 0xffffff4c
    9178:	2d2d2d2d 	stccs	13, cr2, [sp, #-180]!	; 0xffffff4c
    917c:	00000a2d 	andeq	r0, r0, sp, lsr #20
    9180:	7361656d 	cmnvc	r1, #457179136	; 0x1b400000
    9184:	6e697275 	mcrvs	2, 3, r7, cr9, cr5, {3}
    9188:	3c203a67 			; <UNDEFINED> instruction: 0x3c203a67
    918c:	0a3e7325 	beq	fa5e28 <__bss_end__+0xf9c5d0>
    9190:	00000000 	andeq	r0, r0, r0
    9194:	6d697409 	cfstrdvs	mvd7, [r9, #-36]!	; 0xffffffdc
    9198:	6f742065 	svcvs	0x00742065
    919c:	206f6420 	rsbcs	r6, pc, r0, lsr #8
    91a0:	65206e61 	strvs	r6, [r0, #-3681]!	; 0xfffff19f
    91a4:	7974706d 	ldmdbvc	r4!, {r0, r2, r3, r5, r6, ip, sp, lr}^
    91a8:	61656d20 	cmnvs	r5, r0, lsr #26
    91ac:	65727573 	ldrbvs	r7, [r2, #-1395]!	; 0xfffffa8d
    91b0:	746e656d 	strbtvc	r6, [lr], #-1389	; 0xfffffa93
    91b4:	6425203a 	strtvs	r2, [r5], #-58	; 0xffffffc6
    91b8:	0000000a 	andeq	r0, r0, sl
    91bc:	00007d7b 	andeq	r7, r0, fp, ror sp
    91c0:	706d6509 	rsbvc	r6, sp, r9, lsl #10
    91c4:	203a7974 	eorscs	r7, sl, r4, ror r9
    91c8:	00000000 	andeq	r0, r0, r0
    91cc:	203a7325 	eorscs	r7, sl, r5, lsr #6
    91d0:	63206425 			; <UNDEFINED> instruction: 0x63206425
    91d4:	656c6379 	strbvs	r6, [ip, #-889]!	; 0xfffffc87
    91d8:	253c2073 	ldrcs	r2, [ip, #-115]!	; 0xffffff8d
    91dc:	000a3e73 	andeq	r3, sl, r3, ror lr
    91e0:	6d697409 	cfstrdvs	mvd7, [r9, #-36]!	; 0xffffffdc
    91e4:	6f742065 	svcvs	0x00742065
    91e8:	72656420 	rsbvc	r6, r5, #32, 8	; 0x20000000
    91ec:	72656665 	rsbvc	r6, r5, #105906176	; 0x6500000
    91f0:	65636e65 	strbvs	r6, [r3, #-3685]!	; 0xfffff19b
    91f4:	4c554e20 	mrrcmi	14, 2, r4, r5, cr0
    91f8:	25203a4c 	strcs	r3, [r0, #-2636]!	; 0xfffff5b4
    91fc:	00000a64 	andeq	r0, r0, r4, ror #20
    9200:	6f76282a 	svcvs	0x0076282a
    9204:	6974616c 	ldmdbvs	r4!, {r2, r3, r5, r6, r8, sp, lr}^
    9208:	7520656c 	strvc	r6, [r0, #-1388]!	; 0xfffffa94
    920c:	6769736e 	strbvs	r7, [r9, -lr, ror #6]!
    9210:	2064656e 	rsbcs	r6, r4, lr, ror #10
    9214:	0030292a 	eorseq	r2, r0, sl, lsr #18
    9218:	6c756e09 	ldclvs	14, cr6, [r5], #-36	; 0xffffffdc
    921c:	00203a6c 	eoreq	r3, r0, ip, ror #20
    9220:	7361656d 	cmnvc	r1, #457179136	; 0x1b400000
    9224:	5f657275 	svcpl	0x00657275
    9228:	6c6c756e 	cfstr64vs	mvdx7, [ip], #-440	; 0xfffffe48
    922c:	00002928 	andeq	r2, r0, r8, lsr #18
    9230:	6c616309 	stclvs	3, cr6, [r1], #-36	; 0xffffffdc
    9234:	74756f6c 	ldrbtvc	r6, [r5], #-3948	; 0xfffff094
    9238:	6c756e20 	ldclvs	14, cr6, [r5], #-128	; 0xffffff80
    923c:	00203a6c 	eoreq	r3, r0, ip, ror #20
    9240:	6d697409 	cfstrdvs	mvd7, [r9, #-36]!	; 0xffffffdc
    9244:	6f742065 	svcvs	0x00742065
    9248:	73736120 	cmnvc	r3, #8
    924c:	206e6769 	rsbcs	r6, lr, r9, ror #14
    9250:	6e697375 	mcrvs	3, 3, r7, cr9, cr5, {3}
    9254:	61632067 	cmnvs	r3, r7, rrx
    9258:	756f6c6c 	strbvc	r6, [pc, #-3180]!	; 85f4 <emit+0x110>
    925c:	25203a74 	strcs	r3, [r0, #-2676]!	; 0xfffff58c
    9260:	00000a64 	andeq	r0, r0, r4, ror #20
    9264:	203d2078 	eorscs	r2, sp, r8, ror r0
    9268:	00000031 	andeq	r0, r0, r1, lsr r0
    926c:	54555009 	ldrbpl	r5, [r5], #-9
    9270:	203a3233 	eorscs	r3, sl, r3, lsr r2
    9274:	00000000 	andeq	r0, r0, r0
    9278:	6d697409 	cfstrdvs	mvd7, [r9, #-36]!	; 0xffffffdc
    927c:	6f742065 	svcvs	0x00742065
    9280:	74757020 	ldrbtvc	r7, [r5], #-32	; 0xffffffe0
    9284:	75203233 	strvc	r3, [r0, #-563]!	; 0xfffffdcd
    9288:	676e6973 			; <UNDEFINED> instruction: 0x676e6973
    928c:	6c616320 	stclvs	3, cr6, [r1], #-128	; 0xffffff80
    9290:	74756f6c 	ldrbtvc	r6, [r5], #-3948	; 0xfffff094
    9294:	6425203a 	strtvs	r2, [r5], #-58	; 0xffffffc6
    9298:	0000000a 	andeq	r0, r0, sl
    929c:	33747570 	cmncc	r4, #112, 10	; 0x1c000000
    92a0:	78262832 	stmdavc	r6!, {r1, r4, r5, fp, sp}
    92a4:	0029312c 	eoreq	r3, r9, ip, lsr #2
    92a8:	61636e75 	smcvs	14053	; 0x36e5
    92ac:	64656863 	strbtvs	r6, [r5], #-2147	; 0xfffff79d
    92b0:	00000000 	andeq	r0, r0, r0
    92b4:	68636163 	stmdavs	r3!, {r0, r1, r5, r6, r8, sp, lr}^
    92b8:	00006465 	andeq	r6, r0, r5, ror #8
    92bc:	696c2f2e 	stmdbvs	ip!, {r1, r2, r3, r5, r8, r9, sl, fp, sp}^
    92c0:	762f6362 	strtvc	r6, [pc], -r2, ror #6
    92c4:	72702d61 	rsbsvc	r2, r0, #6208	; 0x1840
    92c8:	6b746e69 	blvs	1d24c74 <__bss_end__+0x1d1b41c>
    92cc:	0000632e 	andeq	r6, r0, lr, lsr #6
    92d0:	494e4150 	stmdbmi	lr, {r4, r6, r8, lr}^
    92d4:	73253a43 			; <UNDEFINED> instruction: 0x73253a43
    92d8:	3a73253a 	bcc	1cd27c8 <__bss_end__+0x1cc8f70>
    92dc:	253a6425 	ldrcs	r6, [sl, #-1061]!	; 0xfffffbdb
    92e0:	00000a73 	andeq	r0, r0, r3, ror sl
    92e4:	00000030 	andeq	r0, r0, r0, lsr r0
    92e8:	33323130 	teqcc	r2, #12
    92ec:	37363534 			; <UNDEFINED> instruction: 0x37363534
    92f0:	00003938 	andeq	r3, r0, r8, lsr r9
    92f4:	33323130 	teqcc	r2, #12
    92f8:	37363534 			; <UNDEFINED> instruction: 0x37363534
    92fc:	62613938 	rsbvs	r3, r1, #56, 18	; 0xe0000
    9300:	66656463 	strbtvs	r6, [r5], -r3, ror #8
    9304:	00000000 	andeq	r0, r0, r0
    9308:	00003130 	andeq	r3, r0, r0, lsr r1
    930c:	63747570 	cmnvs	r4, #112, 10	; 0x1c000000
    9310:	0070665f 	rsbseq	r6, r0, pc, asr r6
    9314:	74646977 	strbtvc	r6, [r4], #-2423	; 0xfffff689
    9318:	203c2068 	eorscs	r2, ip, r8, rrx
    931c:	00003233 	andeq	r3, r0, r3, lsr r2
    9320:	00786c6c 	rsbseq	r6, r8, ip, ror #24
    9324:	00646c6c 	rsbeq	r6, r4, ip, ror #24
    9328:	253d3078 	ldrcs	r3, [sp, #-120]!	; 0xffffff88
    932c:	00000a78 	andeq	r0, r0, r8, ror sl
    9330:	253d3178 	ldrcs	r3, [sp, #-376]!	; 0xfffffe88
    9334:	00000a78 	andeq	r0, r0, r8, ror sl
    9338:	6e727473 	mrcvs	4, 3, r7, cr2, cr3, {3}
    933c:	28706d63 	ldmdacs	r0!, {r0, r1, r5, r6, r8, sl, fp, sp, lr}^
    9340:	202c7974 	eorcs	r7, ip, r4, ror r9
    9344:	786c6c22 	stmdavc	ip!, {r1, r5, sl, fp, sp, lr}^
    9348:	33202c22 			; <UNDEFINED> instruction: 0x33202c22
    934c:	3d3d2029 	ldccc	0, cr2, [sp, #-164]!	; 0xffffff5c
    9350:	7c203020 	stcvc	0, cr3, [r0], #-128	; 0xffffff80
    9354:	7473207c 	ldrbtvc	r2, [r3], #-124	; 0xffffff84
    9358:	6d636e72 	stclvs	14, cr6, [r3, #-456]!	; 0xfffffe38
    935c:	79742870 	ldmdbvc	r4!, {r4, r5, r6, fp, sp}^
    9360:	6c22202c 	stcvs	0, cr2, [r2], #-176	; 0xffffff50
    9364:	2c22646c 	cfstrscs	mvf6, [r2], #-432	; 0xfffffe50
    9368:	20293320 	eorcs	r3, r9, r0, lsr #6
    936c:	30203d3d 	eorcc	r3, r0, sp, lsr sp
    9370:	00000000 	andeq	r0, r0, r0
    9374:	494e4150 	stmdbmi	lr, {r4, r6, r8, lr}^
    9378:	73253a43 			; <UNDEFINED> instruction: 0x73253a43
    937c:	3a73253a 	bcc	1cd286c <__bss_end__+0x1cc9014>
    9380:	693a6425 	ldmdbvs	sl!, {r0, r2, r5, sl, sp, lr}
    9384:	736f706d 	cmnvc	pc, #109, 0	; 0x6d
    9388:	6c626973 			; <UNDEFINED> instruction: 0x6c626973
    938c:	66203a65 	strtvs	r3, [r0], -r5, ror #20
    9390:	3c3d746d 	cfldrscc	mvf7, [sp], #-436	; 0xfffffe4c
    9394:	0a3e7325 	beq	fa6030 <__bss_end__+0xf9c7d8>
    9398:	0000000a 	andeq	r0, r0, sl
    939c:	494e4150 	stmdbmi	lr, {r4, r6, r8, lr}^
    93a0:	73253a43 			; <UNDEFINED> instruction: 0x73253a43
    93a4:	3a73253a 	bcc	1cd2894 <__bss_end__+0x1cc903c>
    93a8:	663a6425 	ldrtvs	r6, [sl], -r5, lsr #8
    93ac:	74616f6c 	strbtvc	r6, [r1], #-3948	; 0xfffff094
    93b0:	746f6e20 	strbtvc	r6, [pc], #-3616	; 93b8 <__code_end__+0x274>
    93b4:	616e6520 	cmnvs	lr, r0, lsr #10
    93b8:	64656c62 	strbtvs	r6, [r5], #-3170	; 0xfffff39e
    93bc:	0a212121 	beq	851848 <__bss_end__+0x847ff0>
    93c0:	00000000 	andeq	r0, r0, r0
    93c4:	6e697270 	mcrvs	2, 3, r7, cr9, cr0, {3}
    93c8:	203a6b74 	eorscs	r6, sl, r4, ror fp
    93cc:	20746f6e 	rsbscs	r6, r4, lr, ror #30
    93d0:	646e6168 	strbtvs	r6, [lr], #-360	; 0xfffffe98
    93d4:	676e696c 	strbvs	r6, [lr, -ip, ror #18]!
    93d8:	65707320 	ldrbvs	r7, [r0, #-800]!	; 0xfffffce0
    93dc:	69666963 	stmdbvs	r6!, {r0, r1, r5, r6, r8, fp, sp, lr}^
    93e0:	27207265 	strcs	r7, [r0, -r5, ror #4]!
    93e4:	20276325 	eorcs	r6, r7, r5, lsr #6
    93e8:	63736128 	cmnvs	r3, #10
    93ec:	253d6969 	ldrcs	r6, [sp, #-2409]!	; 0xfffff697
    93f0:	000a2964 	andeq	r2, sl, r4, ror #18
    93f4:	494e4150 	stmdbmi	lr, {r4, r6, r8, lr}^
    93f8:	73253a43 			; <UNDEFINED> instruction: 0x73253a43
    93fc:	3a73253a 	bcc	1cd28ec <__bss_end__+0x1cc9094>
    9400:	703a6425 	eorsvc	r6, sl, r5, lsr #8
    9404:	746e6972 	strbtvc	r6, [lr], #-2418	; 0xfffff68e
    9408:	7265206b 	rsbvc	r2, r5, #107, 0	; 0x6b
    940c:	0a726f72 	beq	1ca51dc <__bss_end__+0x1c9b984>
    9410:	0000000a 	andeq	r0, r0, sl

00009414 <__FUNCTION__.4000>:
    9414:	74696d65 	strbtvc	r6, [r9], #-3429	; 0xfffff29b
    9418:	00000000 	andeq	r0, r0, r0

0000941c <__FUNCTION__.3948>:
    941c:	5f697072 	svcpl	0x00697072
    9420:	5f746573 	svcpl	0x00746573
    9424:	7074756f 	rsbsvc	r7, r4, pc, ror #10
    9428:	00007475 	andeq	r7, r0, r5, ror r4

0000942c <__FUNCTION__.4026>:
    942c:	705f6176 	subsvc	r6, pc, r6, ror r1	; <UNPREDICTABLE>
    9430:	746e6972 	strbtvc	r6, [lr], #-2418	; 0xfffff68e
    9434:	0000006b 	andeq	r0, r0, fp, rrx
    9438:	454e4f44 	strbmi	r4, [lr, #-3908]	; 0xfffff0bc
    943c:	0a212121 	beq	8518c8 <__bss_end__+0x848070>
	...

Disassembly of section .data:

00009444 <putk>:
    9444:	00008440 	andeq	r8, r0, r0, asr #8

00009448 <rpi_putchar>:
    9448:	00009040 	andeq	r9, r0, r0, asr #32

Disassembly of section .bss:

0000944c <__bss_start__>:
    944c:	00000000 	andeq	r0, r0, r0

00009450 <v>:
    9450:	00000000 	andeq	r0, r0, r0

00009454 <buf.3940>:
	...

Disassembly of section .ARM.attributes:

00000000 <.ARM.attributes>:
   0:	00002a41 	andeq	r2, r0, r1, asr #20
   4:	61656100 	cmnvs	r5, r0, lsl #2
   8:	01006962 	tsteq	r0, r2, ror #18
   c:	00000020 	andeq	r0, r0, r0, lsr #32
  10:	4b5a3605 	blmi	168d82c <__bss_end__+0x1683fd4>
  14:	08070600 	stmdaeq	r7, {r9, sl}
  18:	12010901 	andne	r0, r1, #16384	; 0x4000
  1c:	15011404 	strne	r1, [r1, #-1028]	; 0xfffffbfc
  20:	18031701 	stmdane	r3, {r0, r8, r9, sl, ip}
  24:	22011a01 	andcs	r1, r1, #4096	; 0x1000
  28:	Address 0x0000000000000028 is out of bounds.


Disassembly of section .comment:

00000000 <.comment>:
   0:	3a434347 	bcc	10d0d24 <__bss_end__+0x10c74cc>
   4:	4e472820 	cdpmi	8, 4, cr2, cr7, cr0, {1}
   8:	6f542055 	svcvs	0x00542055
   c:	20736c6f 	rsbscs	r6, r3, pc, ror #24
  10:	20726f66 	rsbscs	r6, r2, r6, ror #30
  14:	206d7241 	rsbcs	r7, sp, r1, asr #4
  18:	65626d45 	strbvs	r6, [r2, #-3397]!	; 0xfffff2bb
  1c:	64656464 	strbtvs	r6, [r5], #-1124	; 0xfffffb9c
  20:	6f725020 	svcvs	0x00725020
  24:	73736563 	cmnvc	r3, #415236096	; 0x18c00000
  28:	2073726f 	rsbscs	r7, r3, pc, ror #4
  2c:	30322d39 	eorscc	r2, r2, r9, lsr sp
  30:	712d3931 			; <UNDEFINED> instruction: 0x712d3931
  34:	616d2d34 	cmnvs	sp, r4, lsr sp
  38:	29726f6a 	ldmdbcs	r2!, {r1, r3, r5, r6, r8, r9, sl, fp, sp, lr}^
  3c:	322e3920 	eorcc	r3, lr, #32, 18	; 0x80000
  40:	3220312e 	eorcc	r3, r0, #-2147483637	; 0x8000000b
  44:	31393130 	teqcc	r9, r0, lsr r1
  48:	20353230 	eorscs	r3, r5, r0, lsr r2
  4c:	6c657228 	sfmvs	f7, 2, [r5], #-160	; 0xffffff60
  50:	65736165 	ldrbvs	r6, [r3, #-357]!	; 0xfffffe9b
  54:	415b2029 	cmpmi	fp, r9, lsr #32
  58:	612f4d52 			; <UNDEFINED> instruction: 0x612f4d52
  5c:	392d6d72 	pushcc	{r1, r4, r5, r6, r8, sl, fp, sp, lr}
  60:	6172622d 	cmnvs	r2, sp, lsr #4
  64:	2068636e 	rsbcs	r6, r8, lr, ror #6
  68:	69766572 	ldmdbvs	r6!, {r1, r4, r5, r6, r8, sl, sp, lr}^
  6c:	6e6f6973 			; <UNDEFINED> instruction: 0x6e6f6973
  70:	37373220 	ldrcc	r3, [r7, -r0, lsr #4]!
  74:	5d393935 			; <UNDEFINED> instruction: 0x5d393935
  78:	43434700 	movtmi	r4, #14080	; 0x3700
  7c:	4728203a 			; <UNDEFINED> instruction: 0x4728203a
  80:	4120554e 			; <UNDEFINED> instruction: 0x4120554e
  84:	45206d72 	strmi	r6, [r0, #-3442]!	; 0xfffff28e
  88:	6465626d 	strbtvs	r6, [r5], #-621	; 0xfffffd93
  8c:	20646564 	rsbcs	r6, r4, r4, ror #10
  90:	6c6f6f54 	stclvs	15, cr6, [pc], #-336	; ffffff48 <__bss_end__+0xffff66f0>
  94:	69616863 	stmdbvs	r1!, {r0, r1, r5, r6, fp, sp, lr}^
  98:	3031206e 	eorscc	r2, r1, lr, rrx
  9c:	322d332e 	eorcc	r3, sp, #-1207959552	; 0xb8000000
  a0:	2e313230 	mrccs	2, 1, r3, cr1, cr0, {1}
  a4:	20293031 	eorcs	r3, r9, r1, lsr r0
  a8:	332e3031 			; <UNDEFINED> instruction: 0x332e3031
  ac:	3220312e 	eorcc	r3, r0, #-2147483637	; 0x8000000b
  b0:	30313230 	eorscc	r3, r1, r0, lsr r2
  b4:	20343238 	eorscs	r3, r4, r8, lsr r2
  b8:	6c657228 	sfmvs	f7, 2, [r5], #-160	; 0xffffff60
  bc:	65736165 	ldrbvs	r6, [r3, #-357]!	; 0xfffffe9b
  c0:	Address 0x00000000000000c0 is out of bounds.


Disassembly of section .debug_info:

00000000 <.debug_info>:
       0:	00000bbd 			; <UNDEFINED> instruction: 0x00000bbd
       4:	00000004 	andeq	r0, r0, r4
       8:	01040000 	mrseq	r0, (UNDEF: 4)
       c:	00000100 	andeq	r0, r0, r0, lsl #2
      10:	0000f60c 	andeq	pc, r0, ip, lsl #12
      14:	00001b00 	andeq	r1, r0, r0, lsl #22
      18:	00803800 	addeq	r3, r0, r0, lsl #16
      1c:	0002dc00 	andeq	sp, r2, r0, lsl #24
      20:	00000000 	andeq	r0, r0, r0
      24:	05040200 	streq	r0, [r4, #-512]	; 0xfffffe00
      28:	00746e69 	rsbseq	r6, r4, r9, ror #28
      2c:	00002503 	andeq	r2, r0, r3, lsl #10
      30:	07040400 	streq	r0, [r4, -r0, lsl #8]
      34:	000000b8 	strheq	r0, [r0], -r8
      38:	60060104 	andvs	r0, r6, r4, lsl #2
      3c:	04000000 	streq	r0, [r0], #-0
      40:	00df0502 	sbcseq	r0, pc, r2, lsl #10
      44:	04040000 	streq	r0, [r4], #-0
      48:	0000ca05 	andeq	ip, r0, r5, lsl #20
      4c:	05080400 	streq	r0, [r8, #-1024]	; 0xfffffc00
      50:	000000c5 	andeq	r0, r0, r5, asr #1
      54:	5e080104 	adfple	f0, f0, f4
      58:	04000000 	streq	r0, [r0], #-0
      5c:	00810702 	addeq	r0, r1, r2, lsl #14
      60:	04040000 	streq	r0, [r4], #-0
      64:	0000b307 	andeq	fp, r0, r7, lsl #6
      68:	07080400 	streq	r0, [r8, -r0, lsl #8]
      6c:	000000ae 	andeq	r0, r0, lr, lsr #1
      70:	00002505 	andeq	r2, r0, r5, lsl #10
      74:	00007f00 	andeq	r7, r0, r0, lsl #30
      78:	00250600 	eoreq	r0, r5, r0, lsl #12
      7c:	07000000 	streq	r0, [r0, -r0]
      80:	000000d3 	ldrdeq	r0, [r0], -r3
      84:	8b0e1c02 	blhi	387094 <__bss_end__+0x37d83c>
      88:	08000000 	stmdaeq	r0, {}	; <UNPREDICTABLE>
      8c:	00007004 	andeq	r7, r0, r4
      90:	00250500 	eoreq	r0, r5, r0, lsl #10
      94:	00a00000 	adceq	r0, r0, r0
      98:	a0060000 	andge	r0, r6, r0
      9c:	00000000 	andeq	r0, r0, r0
      a0:	00ad0408 	adceq	r0, sp, r8, lsl #8
      a4:	01040000 	mrseq	r0, (UNDEF: 4)
      a8:	00006708 	andeq	r6, r0, r8, lsl #14
      ac:	00a60900 	adceq	r0, r6, r0, lsl #18
      b0:	7a070000 	bvc	1c00b8 <__bss_end__+0x1b6860>
      b4:	02000002 	andeq	r0, r0, #2, 0
      b8:	00be0e21 	adcseq	r0, lr, r1, lsr #28
      bc:	04080000 	streq	r0, [r8], #-0
      c0:	00000091 	muleq	r0, r1, r0
      c4:	0100780a 	tsteq	r0, sl, lsl #16
      c8:	002c1506 	eoreq	r1, ip, r6, lsl #10
      cc:	03050000 	movweq	r0, #20480	; 0x5000
      d0:	0000944c 	andeq	r9, r0, ip, asr #8
      d4:	0000560b 	andeq	r5, r0, fp, lsl #12
      d8:	06350100 	ldrteq	r0, [r5], -r0, lsl #2
      dc:	000082e8 	andeq	r8, r0, r8, ror #5
      e0:	0000002c 	andeq	r0, r0, ip, lsr #32
      e4:	01459c01 	cmpeq	r5, r1, lsl #24
      e8:	ec0c0000 	stc	0, cr0, [ip], {-0}
      ec:	08000082 	stmdaeq	r0, {r1, r7}
      f0:	04000000 	streq	r0, [r0], #-0
      f4:	0d000001 	stceq	0, cr0, [r0, #-4]
      f8:	01006e69 	tsteq	r0, r9, ror #28
      fc:	00310536 	eorseq	r0, r1, r6, lsr r5
     100:	00010000 	andeq	r0, r1, r0
     104:	0082fc0e 	addeq	pc, r2, lr, lsl #24
     108:	00014500 	andeq	r4, r1, r0, lsl #10
     10c:	00011b00 	andeq	r1, r1, r0, lsl #22
     110:	50010f00 	andpl	r0, r1, r0, lsl #30
     114:	92a80305 	adcls	r0, r8, #335544320	; 0x14000000
     118:	10000000 	andne	r0, r0, r0
     11c:	00008300 	andeq	r8, r0, r0, lsl #6
     120:	00000b78 	andeq	r0, r0, r8, ror fp
     124:	0083080e 	addeq	r0, r3, lr, lsl #16
     128:	00014500 	andeq	r4, r1, r0, lsl #10
     12c:	00013b00 	andeq	r3, r1, r0, lsl #22
     130:	50010f00 	andpl	r0, r1, r0, lsl #30
     134:	92b40305 	adcsls	r0, r4, #335544320	; 0x14000000
     138:	10000000 	andne	r0, r0, r0
     13c:	0000830c 	andeq	r8, r0, ip, lsl #6
     140:	00000b84 	andeq	r0, r0, r4, lsl #23
     144:	00790b00 	rsbseq	r0, r9, r0, lsl #22
     148:	10010000 	andne	r0, r1, r0
     14c:	00805006 	addeq	r5, r0, r6
     150:	00029800 	andeq	r9, r2, r0, lsl #16
     154:	f59c0100 			; <UNDEFINED> instruction: 0xf59c0100
     158:	1100000a 	tstne	r0, sl
     15c:	0067736d 	rsbeq	r7, r7, sp, ror #6
     160:	a01a1001 	andsge	r1, sl, r1
     164:	06000000 	streq	r0, [r0], -r0
     168:	00000000 	andeq	r0, r0, r0
     16c:	12000000 	andne	r0, r0, #0, 0
     170:	0000032d 	andeq	r0, r0, sp, lsr #6
     174:	310e1601 	tstcc	lr, r1, lsl #12
     178:	34000000 	strcc	r0, [r0], #-0
     17c:	32000000 	andcc	r0, r0, #0, 0
     180:	13000000 	movwne	r0, #0
     184:	00646e65 	rsbeq	r6, r4, r5, ror #28
     188:	310e1701 	tstcc	lr, r1, lsl #14
     18c:	49000000 	stmdbmi	r0, {}	; <UNPREDICTABLE>
     190:	47000000 	strmi	r0, [r0, -r0]
     194:	0c000000 	stceq	0, cr0, [r0], {-0}
     198:	00008070 	andeq	r8, r0, r0, ror r0
     19c:	00000004 	andeq	r0, r0, r4
     1a0:	000001b9 			; <UNDEFINED> instruction: 0x000001b9
     1a4:	0000a912 	andeq	sl, r0, r2, lsl r9
     1a8:	16160100 	ldrne	r0, [r6], -r0, lsl #2
     1ac:	00000031 	andeq	r0, r0, r1, lsr r0
     1b0:	0000005e 	andeq	r0, r0, lr, asr r0
     1b4:	0000005c 	andeq	r0, r0, ip, asr r0
     1b8:	80740c00 	rsbshi	r0, r4, r0, lsl #24
     1bc:	00040000 	andeq	r0, r4, r0
     1c0:	01db0000 	bicseq	r0, fp, r0
     1c4:	a9120000 	ldmdbge	r2, {}	; <UNPREDICTABLE>
     1c8:	01000000 	mrseq	r0, (UNDEF: 0)
     1cc:	00311417 	eorseq	r1, r1, r7, lsl r4
     1d0:	00730000 	rsbseq	r0, r3, r0
     1d4:	00710000 	rsbseq	r0, r1, r0
     1d8:	0c000000 	stceq	0, cr0, [r0], {-0}
     1dc:	00008084 	andeq	r8, r0, r4, lsl #1
     1e0:	00000028 	andeq	r0, r0, r8, lsr #32
     1e4:	0000028c 	andeq	r0, r0, ip, lsl #5
     1e8:	00745f13 	rsbseq	r5, r4, r3, lsl pc
     1ec:	31051901 	tstcc	r5, r1, lsl #18
     1f0:	8a000000 	bhi	1f8 <__code_start__-0x7e08>
     1f4:	86000000 	strhi	r0, [r0], -r0
     1f8:	0c000000 	stceq	0, cr0, [r0], {-0}
     1fc:	00008084 	andeq	r8, r0, r4, lsl #1
     200:	00000008 	andeq	r0, r0, r8
     204:	0000026f 	andeq	r0, r0, pc, ror #4
     208:	00735f13 	rsbseq	r5, r3, r3, lsl pc
     20c:	31051901 	tstcc	r5, r1, lsl #18
     210:	af000000 	svcge	0x00000000
     214:	ad000000 	stcge	0, cr0, [r0, #-0]
     218:	13000000 	movwne	r0, #0
     21c:	0100655f 	tsteq	r0, pc, asr r5
     220:	00310519 	eorseq	r0, r1, r9, lsl r5
     224:	00c40000 	sbceq	r0, r4, r0
     228:	00c20000 	sbceq	r0, r2, r0
     22c:	840c0000 	strhi	r0, [ip], #-0
     230:	04000080 	streq	r0, [r0], #-128	; 0xffffff80
     234:	50000000 	andpl	r0, r0, r0
     238:	12000002 	andne	r0, r0, #2, 0
     23c:	000000a9 	andeq	r0, r0, r9, lsr #1
     240:	31051901 	tstcc	r5, r1, lsl #18
     244:	d9000000 	stmdble	r0, {}	; <UNPREDICTABLE>
     248:	d7000000 	strle	r0, [r0, -r0]
     24c:	00000000 	andeq	r0, r0, r0
     250:	00808814 	addeq	r8, r0, r4, lsl r8
     254:	00000400 	andeq	r0, r0, r0, lsl #8
     258:	00a91200 	adceq	r1, r9, r0, lsl #4
     25c:	19010000 	stmdbne	r1, {}	; <UNPREDICTABLE>
     260:	00003105 	andeq	r3, r0, r5, lsl #2
     264:	0000ee00 	andeq	lr, r0, r0, lsl #28
     268:	0000ec00 	andeq	lr, r0, r0, lsl #24
     26c:	15000000 	strne	r0, [r0, #-0]
     270:	000080ac 	andeq	r8, r0, ip, lsr #1
     274:	00000b90 	muleq	r0, r0, fp
     278:	0250010f 	subseq	r0, r0, #-1073741821	; 0xc0000003
     27c:	010f0074 	tsteq	pc, r4, ror r0	; <UNPREDICTABLE>
     280:	00750251 	rsbseq	r0, r5, r1, asr r2
     284:	0253010f 	subseq	r0, r3, #-1073741821	; 0xc0000003
     288:	00000076 	andeq	r0, r0, r6, ror r0
     28c:	0080ac0c 	addeq	sl, r0, ip, lsl #24
     290:	00001c00 	andeq	r1, r0, r0, lsl #24
     294:	00033d00 	andeq	r3, r3, r0, lsl #26
     298:	745f1300 	ldrbvc	r1, [pc], #-768	; 2a0 <__code_start__-0x7d60>
     29c:	051a0100 	ldreq	r0, [sl, #-256]	; 0xffffff00
     2a0:	00000031 	andeq	r0, r0, r1, lsr r0
     2a4:	00000105 	andeq	r0, r0, r5, lsl #2
     2a8:	00000101 	andeq	r0, r0, r1, lsl #2
     2ac:	0080ac0c 	addeq	sl, r0, ip, lsl #24
     2b0:	00000800 	andeq	r0, r0, r0, lsl #16
     2b4:	00032000 	andeq	r2, r3, r0
     2b8:	735f1300 	cmpvc	pc, #0, 6
     2bc:	051a0100 	ldreq	r0, [sl, #-256]	; 0xffffff00
     2c0:	00000031 	andeq	r0, r0, r1, lsr r0
     2c4:	0000012a 	andeq	r0, r0, sl, lsr #2
     2c8:	00000128 	andeq	r0, r0, r8, lsr #2
     2cc:	00655f13 	rsbeq	r5, r5, r3, lsl pc
     2d0:	31051a01 	tstcc	r5, r1, lsl #20
     2d4:	3f000000 	svccc	0x00000000
     2d8:	3d000001 	stccc	0, cr0, [r0, #-4]
     2dc:	0c000001 	stceq	0, cr0, [r0], {1}
     2e0:	000080ac 	andeq	r8, r0, ip, lsr #1
     2e4:	00000004 	andeq	r0, r0, r4
     2e8:	00000301 	andeq	r0, r0, r1, lsl #6
     2ec:	0000a912 	andeq	sl, r0, r2, lsl r9
     2f0:	051a0100 	ldreq	r0, [sl, #-256]	; 0xffffff00
     2f4:	00000031 	andeq	r0, r0, r1, lsr r0
     2f8:	00000154 	andeq	r0, r0, r4, asr r1
     2fc:	00000152 	andeq	r0, r0, r2, asr r1
     300:	80b01400 	adcshi	r1, r0, r0, lsl #8
     304:	00040000 	andeq	r0, r4, r0
     308:	a9120000 	ldmdbge	r2, {}	; <UNPREDICTABLE>
     30c:	01000000 	mrseq	r0, (UNDEF: 0)
     310:	0031051a 	eorseq	r0, r1, sl, lsl r5
     314:	01690000 	cmneq	r9, r0
     318:	01670000 	cmneq	r7, r0
     31c:	00000000 	andeq	r0, r0, r0
     320:	0080c815 	addeq	ip, r0, r5, lsl r8
     324:	000b9000 	andeq	r9, fp, r0
     328:	50010f00 	andpl	r0, r1, r0, lsl #30
     32c:	0f007402 	svceq	0x00007402
     330:	75025101 	strvc	r5, [r2, #-257]	; 0xfffffeff
     334:	53010f00 	movwpl	r0, #7936	; 0x1f00
     338:	00007602 	andeq	r7, r0, r2, lsl #12
     33c:	80c80c00 	sbchi	r0, r8, r0, lsl #24
     340:	001c0000 	andseq	r0, ip, r0
     344:	03ee0000 	mvneq	r0, #0, 0
     348:	5f130000 	svcpl	0x00130000
     34c:	1b010074 	blne	40524 <__bss_end__+0x36ccc>
     350:	00003105 	andeq	r3, r0, r5, lsl #2
     354:	00018000 	andeq	r8, r1, r0
     358:	00017c00 	andeq	r7, r1, r0, lsl #24
     35c:	80c80c00 	sbchi	r0, r8, r0, lsl #24
     360:	00080000 	andeq	r0, r8, r0
     364:	03d10000 	bicseq	r0, r1, #0, 0
     368:	5f130000 	svcpl	0x00130000
     36c:	1b010073 	blne	40540 <__bss_end__+0x36ce8>
     370:	00003105 	andeq	r3, r0, r5, lsl #2
     374:	0001a500 	andeq	sl, r1, r0, lsl #10
     378:	0001a300 	andeq	sl, r1, r0, lsl #6
     37c:	655f1300 	ldrbvs	r1, [pc, #-768]	; 84 <__code_start__-0x7f7c>
     380:	051b0100 	ldreq	r0, [fp, #-256]	; 0xffffff00
     384:	00000031 	andeq	r0, r0, r1, lsr r0
     388:	000001ba 			; <UNDEFINED> instruction: 0x000001ba
     38c:	000001b8 			; <UNDEFINED> instruction: 0x000001b8
     390:	0080c80c 	addeq	ip, r0, ip, lsl #16
     394:	00000400 	andeq	r0, r0, r0, lsl #8
     398:	0003b200 	andeq	fp, r3, r0, lsl #4
     39c:	00a91200 	adceq	r1, r9, r0, lsl #4
     3a0:	1b010000 	blne	403a8 <__bss_end__+0x36b50>
     3a4:	00003105 	andeq	r3, r0, r5, lsl #2
     3a8:	0001cf00 	andeq	ip, r1, r0, lsl #30
     3ac:	0001cd00 	andeq	ip, r1, r0, lsl #26
     3b0:	cc140000 	ldcgt	0, cr0, [r4], {-0}
     3b4:	04000080 	streq	r0, [r0], #-128	; 0xffffff80
     3b8:	12000000 	andne	r0, r0, #0, 0
     3bc:	000000a9 	andeq	r0, r0, r9, lsr #1
     3c0:	31051b01 	tstcc	r5, r1, lsl #22
     3c4:	e4000000 	str	r0, [r0], #-0
     3c8:	e2000001 	and	r0, r0, #1, 0
     3cc:	00000001 	andeq	r0, r0, r1
     3d0:	80e41500 	rschi	r1, r4, r0, lsl #10
     3d4:	0b900000 	bleq	fe4003dc <__bss_end__+0xfe3f6b84>
     3d8:	010f0000 	mrseq	r0, CPSR
     3dc:	00740250 	rsbseq	r0, r4, r0, asr r2
     3e0:	0251010f 	subseq	r0, r1, #-1073741821	; 0xc0000003
     3e4:	010f0075 	tsteq	pc, r5, ror r0	; <UNPREDICTABLE>
     3e8:	00760253 	rsbseq	r0, r6, r3, asr r2
     3ec:	080c0000 	stmdaeq	ip, {}	; <UNPREDICTABLE>
     3f0:	2c000081 	stccs	0, cr0, [r0], {129}	; 0x81
     3f4:	9f000000 	svcls	0x00000000
     3f8:	13000004 	movwne	r0, #4
     3fc:	0100745f 	tsteq	r0, pc, asr r4
     400:	00310520 	eorseq	r0, r1, r0, lsr #10
     404:	01fb0000 	mvnseq	r0, r0
     408:	01f70000 	mvnseq	r0, r0
     40c:	080c0000 	stmdaeq	ip, {}	; <UNPREDICTABLE>
     410:	10000081 	andne	r0, r0, r1, lsl #1
     414:	82000000 	andhi	r0, r0, #0, 0
     418:	13000004 	movwne	r0, #4
     41c:	0100735f 	tsteq	r0, pc, asr r3
     420:	00310520 	eorseq	r0, r1, r0, lsr #10
     424:	02200000 	eoreq	r0, r0, #0, 0
     428:	021e0000 	andseq	r0, lr, #0, 0
     42c:	5f130000 	svcpl	0x00130000
     430:	20010065 	andcs	r0, r1, r5, rrx
     434:	00003105 	andeq	r3, r0, r5, lsl #2
     438:	00023500 	andeq	r3, r2, r0, lsl #10
     43c:	00023300 	andeq	r3, r2, r0, lsl #6
     440:	81080c00 	tsthi	r8, r0, lsl #24
     444:	00040000 	andeq	r0, r4, r0
     448:	04630000 	strbteq	r0, [r3], #-0
     44c:	a9120000 	ldmdbge	r2, {}	; <UNPREDICTABLE>
     450:	01000000 	mrseq	r0, (UNDEF: 0)
     454:	00310520 	eorseq	r0, r1, r0, lsr #10
     458:	024a0000 	subeq	r0, sl, #0, 0
     45c:	02480000 	subeq	r0, r8, #0, 0
     460:	14000000 	strne	r0, [r0], #-0
     464:	00008114 	andeq	r8, r0, r4, lsl r1
     468:	00000004 	andeq	r0, r0, r4
     46c:	0000a912 	andeq	sl, r0, r2, lsl r9
     470:	05200100 	streq	r0, [r0, #-256]!	; 0xffffff00
     474:	00000031 	andeq	r0, r0, r1, lsr r0
     478:	0000025f 	andeq	r0, r0, pc, asr r2
     47c:	0000025d 	andeq	r0, r0, sp, asr r2
     480:	34150000 	ldrcc	r0, [r5], #-0
     484:	90000081 	andls	r0, r0, r1, lsl #1
     488:	0f00000b 	svceq	0x0000000b
     48c:	74025001 	strvc	r5, [r2], #-1
     490:	51010f00 	tstpl	r1, r0, lsl #30
     494:	0f007502 	svceq	0x00007502
     498:	76025301 	strvc	r5, [r2], -r1, lsl #6
     49c:	0c000000 	stceq	0, cr0, [r0], {-0}
     4a0:	00008134 	andeq	r8, r0, r4, lsr r1
     4a4:	00000020 	andeq	r0, r0, r0, lsr #32
     4a8:	00000550 	andeq	r0, r0, r0, asr r5
     4ac:	00745f13 	rsbseq	r5, r4, r3, lsl pc
     4b0:	31052101 	tstcc	r5, r1, lsl #2
     4b4:	76000000 	strvc	r0, [r0], -r0
     4b8:	72000002 	andvc	r0, r0, #2, 0
     4bc:	0c000002 	stceq	0, cr0, [r0], {2}
     4c0:	00008134 	andeq	r8, r0, r4, lsr r1
     4c4:	0000000c 	andeq	r0, r0, ip
     4c8:	00000533 	andeq	r0, r0, r3, lsr r5
     4cc:	00735f13 	rsbseq	r5, r3, r3, lsl pc
     4d0:	31052101 	tstcc	r5, r1, lsl #2
     4d4:	9b000000 	blls	4dc <__code_start__-0x7b24>
     4d8:	99000002 	stmdbls	r0, {r1}
     4dc:	13000002 	movwne	r0, #2
     4e0:	0100655f 	tsteq	r0, pc, asr r5
     4e4:	00310521 	eorseq	r0, r1, r1, lsr #10
     4e8:	02b00000 	adcseq	r0, r0, #0, 0
     4ec:	02ae0000 	adceq	r0, lr, #0, 0
     4f0:	340c0000 	strcc	r0, [ip], #-0
     4f4:	04000081 	streq	r0, [r0], #-129	; 0xffffff7f
     4f8:	14000000 	strne	r0, [r0], #-0
     4fc:	12000005 	andne	r0, r0, #5, 0
     500:	000000a9 	andeq	r0, r0, r9, lsr #1
     504:	31052101 	tstcc	r5, r1, lsl #2
     508:	c5000000 	strgt	r0, [r0, #-0]
     50c:	c3000002 	movwgt	r0, #2
     510:	00000002 	andeq	r0, r0, r2
     514:	00813c14 	addeq	r3, r1, r4, lsl ip
     518:	00000400 	andeq	r0, r0, r0, lsl #8
     51c:	00a91200 	adceq	r1, r9, r0, lsl #4
     520:	21010000 	mrscs	r0, (UNDEF: 1)
     524:	00003105 	andeq	r3, r0, r5, lsl #2
     528:	0002da00 	andeq	sp, r2, r0, lsl #20
     52c:	0002d800 	andeq	sp, r2, r0, lsl #16
     530:	15000000 	strne	r0, [r0, #-0]
     534:	00008154 	andeq	r8, r0, r4, asr r1
     538:	00000b90 	muleq	r0, r0, fp
     53c:	0250010f 	subseq	r0, r0, #-1073741821	; 0xc0000003
     540:	010f0074 	tsteq	pc, r4, ror r0	; <UNPREDICTABLE>
     544:	00750251 	rsbseq	r0, r5, r1, asr r2
     548:	0253010f 	subseq	r0, r3, #-1073741821	; 0xc0000003
     54c:	00000076 	andeq	r0, r0, r6, ror r0
     550:	0081540c 	addeq	r5, r1, ip, lsl #8
     554:	00002800 	andeq	r2, r0, r0, lsl #16
     558:	00060e00 	andeq	r0, r6, r0, lsl #28
     55c:	745f1300 	ldrbvc	r1, [pc], #-768	; 564 <__code_start__-0x7a9c>
     560:	05230100 	streq	r0, [r3, #-256]!	; 0xffffff00
     564:	00000031 	andeq	r0, r0, r1, lsr r0
     568:	000002f1 	strdeq	r0, [r0], -r1
     56c:	000002ed 	andeq	r0, r0, sp, ror #5
     570:	0081540c 	addeq	r5, r1, ip, lsl #8
     574:	00000c00 	andeq	r0, r0, r0, lsl #24
     578:	0005f100 	andeq	pc, r5, r0, lsl #2
     57c:	735f1300 	cmpvc	pc, #0, 6
     580:	05230100 	streq	r0, [r3, #-256]!	; 0xffffff00
     584:	00000031 	andeq	r0, r0, r1, lsr r0
     588:	00000316 	andeq	r0, r0, r6, lsl r3
     58c:	00000314 	andeq	r0, r0, r4, lsl r3
     590:	00655f13 	rsbeq	r5, r5, r3, lsl pc
     594:	31052301 	tstcc	r5, r1, lsl #6
     598:	2b000000 	blcs	5a0 <__code_start__-0x7a60>
     59c:	29000003 	stmdbcs	r0, {r0, r1}
     5a0:	0c000003 	stceq	0, cr0, [r0], {3}
     5a4:	00008154 	andeq	r8, r0, r4, asr r1
     5a8:	00000004 	andeq	r0, r0, r4
     5ac:	000005c5 	andeq	r0, r0, r5, asr #11
     5b0:	0000a912 	andeq	sl, r0, r2, lsl r9
     5b4:	05230100 	streq	r0, [r3, #-256]!	; 0xffffff00
     5b8:	00000031 	andeq	r0, r0, r1, lsr r0
     5bc:	00000340 	andeq	r0, r0, r0, asr #6
     5c0:	0000033e 	andeq	r0, r0, lr, lsr r3
     5c4:	815c0c00 	cmphi	ip, r0, lsl #24
     5c8:	00040000 	andeq	r0, r4, r0
     5cc:	05e70000 	strbeq	r0, [r7, #0]!
     5d0:	a9120000 	ldmdbge	r2, {}	; <UNPREDICTABLE>
     5d4:	01000000 	mrseq	r0, (UNDEF: 0)
     5d8:	00310523 	eorseq	r0, r1, r3, lsr #10
     5dc:	03550000 	cmpeq	r5, #0, 0
     5e0:	03530000 	cmpeq	r3, #0, 0
     5e4:	10000000 	andne	r0, r0, r0
     5e8:	0000815c 	andeq	r8, r0, ip, asr r1
     5ec:	00000af5 	strdeq	r0, [r0], -r5
     5f0:	817c1500 	cmnhi	ip, r0, lsl #10
     5f4:	0b900000 	bleq	fe4005fc <__bss_end__+0xfe3f6da4>
     5f8:	010f0000 	mrseq	r0, CPSR
     5fc:	00740250 	rsbseq	r0, r4, r0, asr r2
     600:	0251010f 	subseq	r0, r1, #-1073741821	; 0xc0000003
     604:	010f0075 	tsteq	pc, r5, ror r0	; <UNPREDICTABLE>
     608:	00760253 	rsbseq	r0, r6, r3, asr r2
     60c:	7c0c0000 	stcvc	0, cr0, [ip], {-0}
     610:	20000081 	andcs	r0, r0, r1, lsl #1
     614:	cc000000 	stcgt	0, cr0, [r0], {-0}
     618:	13000006 	movwne	r0, #6
     61c:	0100745f 	tsteq	r0, pc, asr r4
     620:	00310524 	eorseq	r0, r1, r4, lsr #10
     624:	036c0000 	cmneq	ip, #0, 0
     628:	03680000 	cmneq	r8, #0, 0
     62c:	7c0c0000 	stcvc	0, cr0, [ip], {-0}
     630:	0c000081 	stceq	0, cr0, [r0], {129}	; 0x81
     634:	af000000 	svcge	0x00000000
     638:	13000006 	movwne	r0, #6
     63c:	0100735f 	tsteq	r0, pc, asr r3
     640:	00310524 	eorseq	r0, r1, r4, lsr #10
     644:	03910000 	orrseq	r0, r1, #0, 0
     648:	038f0000 	orreq	r0, pc, #0, 0
     64c:	5f130000 	svcpl	0x00130000
     650:	24010065 	strcs	r0, [r1], #-101	; 0xffffff9b
     654:	00003105 	andeq	r3, r0, r5, lsl #2
     658:	0003a600 	andeq	sl, r3, r0, lsl #12
     65c:	0003a400 	andeq	sl, r3, r0, lsl #8
     660:	817c0c00 	cmnhi	ip, r0, lsl #24
     664:	00040000 	andeq	r0, r4, r0
     668:	06830000 	streq	r0, [r3], r0
     66c:	a9120000 	ldmdbge	r2, {}	; <UNPREDICTABLE>
     670:	01000000 	mrseq	r0, (UNDEF: 0)
     674:	00310524 	eorseq	r0, r1, r4, lsr #10
     678:	03bb0000 			; <UNDEFINED> instruction: 0x03bb0000
     67c:	03b90000 			; <UNDEFINED> instruction: 0x03b90000
     680:	0c000000 	stceq	0, cr0, [r0], {-0}
     684:	00008184 	andeq	r8, r0, r4, lsl #3
     688:	00000004 	andeq	r0, r0, r4
     68c:	000006a5 	andeq	r0, r0, r5, lsr #13
     690:	0000a912 	andeq	sl, r0, r2, lsl r9
     694:	05240100 	streq	r0, [r4, #-256]!	; 0xffffff00
     698:	00000031 	andeq	r0, r0, r1, lsr r0
     69c:	000003d0 	ldrdeq	r0, [r0], -r0	; <UNPREDICTABLE>
     6a0:	000003ce 	andeq	r0, r0, lr, asr #7
     6a4:	81841000 	orrhi	r1, r4, r0
     6a8:	0af50000 	beq	ffd406b0 <__bss_end__+0xffd36e58>
     6ac:	15000000 	strne	r0, [r0, #-0]
     6b0:	0000819c 	muleq	r0, ip, r1
     6b4:	00000b90 	muleq	r0, r0, fp
     6b8:	0250010f 	subseq	r0, r0, #-1073741821	; 0xc0000003
     6bc:	010f0074 	tsteq	pc, r4, ror r0	; <UNPREDICTABLE>
     6c0:	00750251 	rsbseq	r0, r5, r1, asr r2
     6c4:	0253010f 	subseq	r0, r3, #-1073741821	; 0xc0000003
     6c8:	00000076 	andeq	r0, r0, r6, ror r0
     6cc:	0081c80c 	addeq	ip, r1, ip, lsl #16
     6d0:	00003000 	andeq	r3, r0, r0
     6d4:	00077d00 	andeq	r7, r7, r0, lsl #26
     6d8:	745f1300 	ldrbvc	r1, [pc], #-768	; 6e0 <__code_start__-0x7920>
     6dc:	05290100 	streq	r0, [r9, #-256]!	; 0xffffff00
     6e0:	00000031 	andeq	r0, r0, r1, lsr r0
     6e4:	000003e7 	andeq	r0, r0, r7, ror #7
     6e8:	000003e3 	andeq	r0, r0, r3, ror #7
     6ec:	0081c80c 	addeq	ip, r1, ip, lsl #16
     6f0:	00001400 	andeq	r1, r0, r0, lsl #8
     6f4:	00076000 	andeq	r6, r7, r0
     6f8:	735f1300 	cmpvc	pc, #0, 6
     6fc:	05290100 	streq	r0, [r9, #-256]!	; 0xffffff00
     700:	00000031 	andeq	r0, r0, r1, lsr r0
     704:	0000040c 	andeq	r0, r0, ip, lsl #8
     708:	0000040a 	andeq	r0, r0, sl, lsl #8
     70c:	00655f13 	rsbeq	r5, r5, r3, lsl pc
     710:	31052901 	tstcc	r5, r1, lsl #18
     714:	21000000 	mrscs	r0, (UNDEF: 0)
     718:	1f000004 	svcne	0x00000004
     71c:	0c000004 	stceq	0, cr0, [r0], {4}
     720:	000081c8 	andeq	r8, r0, r8, asr #3
     724:	00000004 	andeq	r0, r0, r4
     728:	00000741 	andeq	r0, r0, r1, asr #14
     72c:	0000a912 	andeq	sl, r0, r2, lsl r9
     730:	05290100 	streq	r0, [r9, #-256]!	; 0xffffff00
     734:	00000031 	andeq	r0, r0, r1, lsr r0
     738:	00000436 	andeq	r0, r0, r6, lsr r4
     73c:	00000434 	andeq	r0, r0, r4, lsr r4
     740:	81d81400 	bicshi	r1, r8, r0, lsl #8
     744:	00040000 	andeq	r0, r4, r0
     748:	a9120000 	ldmdbge	r2, {}	; <UNPREDICTABLE>
     74c:	01000000 	mrseq	r0, (UNDEF: 0)
     750:	00310529 	eorseq	r0, r1, r9, lsr #10
     754:	044b0000 	strbeq	r0, [fp], #-0
     758:	04490000 	strbeq	r0, [r9], #-0
     75c:	00000000 	andeq	r0, r0, r0
     760:	0081f815 	addeq	pc, r1, r5, lsl r8	; <UNPREDICTABLE>
     764:	000b9000 	andeq	r9, fp, r0
     768:	50010f00 	andpl	r0, r1, r0, lsl #30
     76c:	0f007402 	svceq	0x00007402
     770:	76025101 	strvc	r5, [r2], -r1, lsl #2
     774:	53010f00 	movwpl	r0, #7936	; 0x1f00
     778:	00007902 	andeq	r7, r0, r2, lsl #18
     77c:	81f80c00 	mvnshi	r0, r0, lsl #24
     780:	00200000 	eoreq	r0, r0, r0
     784:	082e0000 	stmdaeq	lr!, {}	; <UNPREDICTABLE>
     788:	5f130000 	svcpl	0x00130000
     78c:	2a010074 	bcs	40964 <__bss_end__+0x3710c>
     790:	00003105 	andeq	r3, r0, r5, lsl #2
     794:	00046200 	andeq	r6, r4, r0, lsl #4
     798:	00045e00 	andeq	r5, r4, r0, lsl #28
     79c:	81f80c00 	mvnshi	r0, r0, lsl #24
     7a0:	000c0000 	andeq	r0, ip, r0
     7a4:	08110000 	ldmdaeq	r1, {}	; <UNPREDICTABLE>
     7a8:	5f130000 	svcpl	0x00130000
     7ac:	2a010073 	bcs	40980 <__bss_end__+0x37128>
     7b0:	00003105 	andeq	r3, r0, r5, lsl #2
     7b4:	00048700 	andeq	r8, r4, r0, lsl #14
     7b8:	00048500 	andeq	r8, r4, r0, lsl #10
     7bc:	655f1300 	ldrbvs	r1, [pc, #-768]	; 4c4 <__code_start__-0x7b3c>
     7c0:	052a0100 	streq	r0, [sl, #-256]!	; 0xffffff00
     7c4:	00000031 	andeq	r0, r0, r1, lsr r0
     7c8:	0000049c 	muleq	r0, ip, r4
     7cc:	0000049a 	muleq	r0, sl, r4
     7d0:	0081f80c 	addeq	pc, r1, ip, lsl #16
     7d4:	00000400 	andeq	r0, r0, r0, lsl #8
     7d8:	0007f200 	andeq	pc, r7, r0, lsl #4
     7dc:	00a91200 	adceq	r1, r9, r0, lsl #4
     7e0:	2a010000 	bcs	407e8 <__bss_end__+0x36f90>
     7e4:	00003105 	andeq	r3, r0, r5, lsl #2
     7e8:	0004b100 	andeq	fp, r4, r0, lsl #2
     7ec:	0004af00 	andeq	sl, r4, r0, lsl #30
     7f0:	00140000 	andseq	r0, r4, r0
     7f4:	04000082 	streq	r0, [r0], #-130	; 0xffffff7e
     7f8:	12000000 	andne	r0, r0, #0, 0
     7fc:	000000a9 	andeq	r0, r0, r9, lsr #1
     800:	31052a01 	tstcc	r5, r1, lsl #20
     804:	c6000000 	strgt	r0, [r0], -r0
     808:	c4000004 	strgt	r0, [r0], #-4
     80c:	00000004 	andeq	r0, r0, r4
     810:	82181500 	andshi	r1, r8, #0, 10
     814:	0b900000 	bleq	fe40081c <__bss_end__+0xfe3f6fc4>
     818:	010f0000 	mrseq	r0, CPSR
     81c:	00740250 	rsbseq	r0, r4, r0, asr r2
     820:	0251010f 	subseq	r0, r1, #-1073741821	; 0xc0000003
     824:	010f0076 	tsteq	pc, r6, ror r0	; <UNPREDICTABLE>
     828:	00790253 	rsbseq	r0, r9, r3, asr r2
     82c:	440c0000 	strmi	r0, [ip], #-0
     830:	2c000082 	stccs	0, cr0, [r0], {130}	; 0x82
     834:	f9000000 			; <UNDEFINED> instruction: 0xf9000000
     838:	13000008 	movwne	r0, #8
     83c:	0100745f 	tsteq	r0, pc, asr r4
     840:	0031052e 	eorseq	r0, r1, lr, lsr #10
     844:	04dd0000 	ldrbeq	r0, [sp], #0
     848:	04d90000 	ldrbeq	r0, [r9], #0
     84c:	440c0000 	strmi	r0, [ip], #-0
     850:	14000082 	strne	r0, [r0], #-130	; 0xffffff7e
     854:	dc000000 	stcle	0, cr0, [r0], {-0}
     858:	13000008 	movwne	r0, #8
     85c:	0100735f 	tsteq	r0, pc, asr r3
     860:	0031052e 	eorseq	r0, r1, lr, lsr #10
     864:	05020000 	streq	r0, [r2, #-0]
     868:	05000000 	streq	r0, [r0, #-0]
     86c:	5f130000 	svcpl	0x00130000
     870:	2e010065 	cdpcs	0, 0, cr0, cr1, cr5, {3}
     874:	00003105 	andeq	r3, r0, r5, lsl #2
     878:	00051700 	andeq	r1, r5, r0, lsl #14
     87c:	00051500 	andeq	r1, r5, r0, lsl #10
     880:	82440c00 	subhi	r0, r4, #0, 24
     884:	00040000 	andeq	r0, r4, r0
     888:	08a30000 	stmiaeq	r3!, {}	; <UNPREDICTABLE>
     88c:	a9120000 	ldmdbge	r2, {}	; <UNPREDICTABLE>
     890:	01000000 	mrseq	r0, (UNDEF: 0)
     894:	0031052e 	eorseq	r0, r1, lr, lsr #10
     898:	052c0000 	streq	r0, [ip, #-0]!
     89c:	052a0000 	streq	r0, [sl, #-0]!
     8a0:	0c000000 	stceq	0, cr0, [r0], {-0}
     8a4:	00008254 	andeq	r8, r0, r4, asr r2
     8a8:	00000004 	andeq	r0, r0, r4
     8ac:	000008c5 	andeq	r0, r0, r5, asr #17
     8b0:	0000a912 	andeq	sl, r0, r2, lsl r9
     8b4:	052e0100 	streq	r0, [lr, #-256]!	; 0xffffff00
     8b8:	00000031 	andeq	r0, r0, r1, lsr r0
     8bc:	00000541 	andeq	r0, r0, r1, asr #10
     8c0:	0000053f 	andeq	r0, r0, pc, lsr r5
     8c4:	82541500 	subshi	r1, r4, #0, 10
     8c8:	0b9c0000 	bleq	fe7008d0 <__bss_end__+0xfe6f7078>
     8cc:	010f0000 	mrseq	r0, CPSR
     8d0:	00770250 	rsbseq	r0, r7, r0, asr r2
     8d4:	0251010f 	subseq	r0, r1, #-1073741821	; 0xc0000003
     8d8:	00000075 	andeq	r0, r0, r5, ror r0
     8dc:	00827015 	addeq	r7, r2, r5, lsl r0
     8e0:	000b9000 	andeq	r9, fp, r0
     8e4:	50010f00 	andpl	r0, r1, r0, lsl #30
     8e8:	0f007402 	svceq	0x00007402
     8ec:	76025101 	strvc	r5, [r2], -r1, lsl #2
     8f0:	53010f00 	movwpl	r0, #7936	; 0x1f00
     8f4:	00007902 	andeq	r7, r0, r2, lsl #18
     8f8:	82700c00 	rsbshi	r0, r0, #0, 24
     8fc:	00280000 	eoreq	r0, r8, r0
     900:	09c40000 	stmibeq	r4, {}^	; <UNPREDICTABLE>
     904:	5f130000 	svcpl	0x00130000
     908:	2f010074 	svccs	0x00010074
     90c:	00003105 	andeq	r3, r0, r5, lsl #2
     910:	00055800 	andeq	r5, r5, r0, lsl #16
     914:	00055400 	andeq	r5, r5, r0, lsl #8
     918:	82700c00 	rsbshi	r0, r0, #0, 24
     91c:	00140000 	andseq	r0, r4, r0
     920:	09a70000 	stmibeq	r7!, {}	; <UNPREDICTABLE>
     924:	5f130000 	svcpl	0x00130000
     928:	2f010073 	svccs	0x00010073
     92c:	00003105 	andeq	r3, r0, r5, lsl #2
     930:	00057d00 	andeq	r7, r5, r0, lsl #26
     934:	00057b00 	andeq	r7, r5, r0, lsl #22
     938:	655f1300 	ldrbvs	r1, [pc, #-768]	; 640 <__code_start__-0x79c0>
     93c:	052f0100 	streq	r0, [pc, #-256]!	; 844 <__code_start__-0x77bc>
     940:	00000031 	andeq	r0, r0, r1, lsr r0
     944:	00000592 	muleq	r0, r2, r5
     948:	00000590 	muleq	r0, r0, r5
     94c:	0082700c 	addeq	r7, r2, ip
     950:	00000400 	andeq	r0, r0, r0, lsl #8
     954:	00096e00 	andeq	r6, r9, r0, lsl #28
     958:	00a91200 	adceq	r1, r9, r0, lsl #4
     95c:	2f010000 	svccs	0x00010000
     960:	00003105 	andeq	r3, r0, r5, lsl #2
     964:	0005a700 	andeq	sl, r5, r0, lsl #14
     968:	0005a500 	andeq	sl, r5, r0, lsl #10
     96c:	800c0000 	andhi	r0, ip, r0
     970:	04000082 	streq	r0, [r0], #-130	; 0xffffff7e
     974:	90000000 	andls	r0, r0, r0
     978:	12000009 	andne	r0, r0, #9, 0
     97c:	000000a9 	andeq	r0, r0, r9, lsr #1
     980:	31052f01 	tstcc	r5, r1, lsl #30
     984:	bc000000 	stclt	0, cr0, [r0], {-0}
     988:	ba000005 	blt	9a4 <__code_start__-0x765c>
     98c:	00000005 	andeq	r0, r0, r5
     990:	00828015 	addeq	r8, r2, r5, lsl r0
     994:	000b9c00 	andeq	r9, fp, r0, lsl #24
     998:	50010f00 	andpl	r0, r1, r0, lsl #30
     99c:	0f007702 	svceq	0x00007702
     9a0:	75025101 	strvc	r5, [r2, #-257]	; 0xfffffeff
     9a4:	15000000 	strne	r0, [r0, #-0]
     9a8:	00008298 	muleq	r0, r8, r2
     9ac:	00000b90 	muleq	r0, r0, fp
     9b0:	0250010f 	subseq	r0, r0, #-1073741821	; 0xc0000003
     9b4:	010f0074 	tsteq	pc, r4, ror r0	; <UNPREDICTABLE>
     9b8:	00760251 	rsbseq	r0, r6, r1, asr r2
     9bc:	0253010f 	subseq	r0, r3, #-1073741821	; 0xc0000003
     9c0:	00000079 	andeq	r0, r0, r9, ror r0
     9c4:	0080640e 	addeq	r6, r0, lr, lsl #8
     9c8:	000b9000 	andeq	r9, fp, r0
     9cc:	0009d800 	andeq	sp, r9, r0, lsl #16
     9d0:	50010f00 	andpl	r0, r1, r0, lsl #30
     9d4:	00007802 	andeq	r7, r0, r2, lsl #16
     9d8:	0080700e 	addeq	r7, r0, lr
     9dc:	000b9000 	andeq	r9, fp, r0
     9e0:	0009f500 	andeq	pc, r9, r0, lsl #10
     9e4:	50010f00 	andpl	r0, r1, r0, lsl #30
     9e8:	91800305 	orrls	r0, r0, r5, lsl #6
     9ec:	010f0000 	mrseq	r0, CPSR
     9f0:	00740251 	rsbseq	r0, r4, r1, asr r2
     9f4:	80840e00 	addhi	r0, r4, r0, lsl #28
     9f8:	0b900000 	bleq	fe400a00 <__bss_end__+0xfe3f71a8>
     9fc:	0a0c0000 	beq	300a04 <__bss_end__+0x2f71ac>
     a00:	010f0000 	mrseq	r0, CPSR
     a04:	94030550 	strls	r0, [r3], #-1360	; 0xfffffab0
     a08:	00000091 	muleq	r0, r1, r0
     a0c:	0080e810 	addeq	lr, r0, r0, lsl r8
     a10:	000af500 	andeq	pc, sl, r0, lsl #10
     a14:	80f80e00 	rscshi	r0, r8, r0, lsl #28
     a18:	0b900000 	bleq	fe400a20 <__bss_end__+0xfe3f71c8>
     a1c:	0a290000 	beq	a40a24 <__bss_end__+0xa371cc>
     a20:	010f0000 	mrseq	r0, CPSR
     a24:	00750250 	rsbseq	r0, r5, r0, asr r2
     a28:	80fc1000 	rscshi	r1, ip, r0
     a2c:	0af50000 	beq	ffd40a34 <__bss_end__+0xffd371dc>
     a30:	080e0000 	stmdaeq	lr, {}	; <UNPREDICTABLE>
     a34:	90000081 	andls	r0, r0, r1, lsl #1
     a38:	4600000b 	strmi	r0, [r0], -fp
     a3c:	0f00000a 	svceq	0x0000000a
     a40:	75025001 	strvc	r5, [r2, #-1]
     a44:	a40e0000 	strge	r0, [lr], #-0
     a48:	a8000081 	stmdage	r0, {r0, r7}
     a4c:	5900000b 	stmdbpl	r0, {r0, r1, r3}
     a50:	0f00000a 	svceq	0x0000000a
     a54:	31015001 	tstcc	r1, r1
     a58:	81b40e00 			; <UNDEFINED> instruction: 0x81b40e00
     a5c:	0b900000 	bleq	fe400a64 <__bss_end__+0xfe3f720c>
     a60:	0a6d0000 	beq	1b40a68 <__bss_end__+0x1b37210>
     a64:	010f0000 	mrseq	r0, CPSR
     a68:	00750250 	rsbseq	r0, r5, r0, asr r2
     a6c:	81bc0e00 			; <UNDEFINED> instruction: 0x81bc0e00
     a70:	0ba80000 	bleq	fea00a78 <__bss_end__+0xfe9f7220>
     a74:	0a800000 	beq	fe000a7c <__bss_end__+0xfdff7224>
     a78:	010f0000 	mrseq	r0, CPSR
     a7c:	00310150 	eorseq	r0, r1, r0, asr r1
     a80:	0081c80e 	addeq	ip, r1, lr, lsl #16
     a84:	000b9000 	andeq	r9, fp, r0
     a88:	000a9400 	andeq	r9, sl, r0, lsl #8
     a8c:	50010f00 	andpl	r0, r1, r0, lsl #30
     a90:	00007502 	andeq	r7, r0, r2, lsl #10
     a94:	0082200e 	addeq	r2, r2, lr
     a98:	000bb400 	andeq	fp, fp, r0, lsl #8
     a9c:	000aa800 	andeq	sl, sl, r0, lsl #16
     aa0:	50010f00 	andpl	r0, r1, r0, lsl #30
     aa4:	00007502 	andeq	r7, r0, r2, lsl #10
     aa8:	0082300e 	addeq	r3, r2, lr
     aac:	000b9000 	andeq	r9, fp, r0
     ab0:	000abc00 	andeq	fp, sl, r0, lsl #24
     ab4:	50010f00 	andpl	r0, r1, r0, lsl #30
     ab8:	00007902 	andeq	r7, r0, r2, lsl #18
     abc:	0082380e 	addeq	r3, r2, lr, lsl #16
     ac0:	000bb400 	andeq	fp, fp, r0, lsl #8
     ac4:	000ad000 	andeq	sp, sl, r0
     ac8:	50010f00 	andpl	r0, r1, r0, lsl #30
     acc:	00007502 	andeq	r7, r0, r2, lsl #10
     ad0:	0082440e 	addeq	r4, r2, lr, lsl #8
     ad4:	000b9000 	andeq	r9, fp, r0
     ad8:	000ae400 	andeq	lr, sl, r0, lsl #8
     adc:	50010f00 	andpl	r0, r1, r0, lsl #30
     ae0:	00007902 	andeq	r7, r0, r2, lsl #18
     ae4:	0082a015 	addeq	sl, r2, r5, lsl r0
     ae8:	000b9000 	andeq	r9, fp, r0
     aec:	50010f00 	andpl	r0, r1, r0, lsl #30
     af0:	00007802 	andeq	r7, r0, r2, lsl #16
     af4:	000e1600 	andeq	r1, lr, r0, lsl #12
     af8:	09010000 	stmdbeq	r1, {}	; <UNPREDICTABLE>
     afc:	0000310a 	andeq	r3, r0, sl, lsl #2
     b00:	00803800 	addeq	r3, r0, r0, lsl #16
     b04:	00001800 	andeq	r1, r0, r0, lsl #16
     b08:	789c0100 	ldmvc	ip, {r8}
     b0c:	1200000b 	andne	r0, r0, #11, 0
     b10:	0000032d 	andeq	r0, r0, sp, lsr #6
     b14:	310e0a01 	tstcc	lr, r1, lsl #20
     b18:	d1000000 	mrsle	r0, (UNDEF: 0)
     b1c:	cf000005 	svcgt	0x00000005
     b20:	13000005 	movwne	r0, #5
     b24:	00646e65 	rsbeq	r6, r4, r5, ror #28
     b28:	310e0c01 	tstcc	lr, r1, lsl #24
     b2c:	e6000000 	str	r0, [r0], -r0
     b30:	e4000005 	str	r0, [r0], #-5
     b34:	0c000005 	stceq	0, cr0, [r0], {5}
     b38:	00008038 	andeq	r8, r0, r8, lsr r0
     b3c:	00000004 	andeq	r0, r0, r4
     b40:	00000b59 	andeq	r0, r0, r9, asr fp
     b44:	0000a912 	andeq	sl, r0, r2, lsl r9
     b48:	160a0100 	strne	r0, [sl], -r0, lsl #2
     b4c:	00000031 	andeq	r0, r0, r1, lsr r0
     b50:	000005fb 	strdeq	r0, [r0], -fp
     b54:	000005f9 	strdeq	r0, [r0], -r9
     b58:	80441400 	subhi	r1, r4, r0, lsl #8
     b5c:	00040000 	andeq	r0, r4, r0
     b60:	a9120000 	ldmdbge	r2, {}	; <UNPREDICTABLE>
     b64:	01000000 	mrseq	r0, (UNDEF: 0)
     b68:	0031140c 	eorseq	r1, r1, ip, lsl #8
     b6c:	06100000 	ldreq	r0, [r0], -r0
     b70:	060e0000 	streq	r0, [lr], -r0
     b74:	00000000 	andeq	r0, r0, r0
     b78:	0000e917 	andeq	lr, r0, r7, lsl r9
     b7c:	0000e900 	andeq	lr, r0, r0, lsl #18
     b80:	06a00200 	strteq	r0, [r0], r0, lsl #4
     b84:	00006c17 	andeq	r6, r0, r7, lsl ip
     b88:	00006c00 	andeq	r6, r0, r0, lsl #24
     b8c:	066e0200 	strbteq	r0, [lr], -r0, lsl #4
     b90:	00021a17 	andeq	r1, r2, r7, lsl sl
     b94:	00021a00 	andeq	r1, r2, r0, lsl #20
     b98:	06280200 	strteq	r0, [r8], -r0, lsl #4
     b9c:	00009417 	andeq	r9, r0, r7, lsl r4
     ba0:	00009400 	andeq	r9, r0, r0, lsl #8
     ba4:	06ae0200 	strteq	r0, [lr], r0, lsl #4
     ba8:	00009a17 	andeq	r9, r0, r7, lsl sl
     bac:	00009a00 	andeq	r9, r0, r0, lsl #20
     bb0:	0a040300 	beq	1017b8 <__bss_end__+0xf7f60>
     bb4:	00000017 	andeq	r0, r0, r7, lsl r0
     bb8:	00000000 	andeq	r0, r0, r0
     bbc:	0a050300 	beq	1417c4 <__bss_end__+0x137f6c>
     bc0:	00051700 	andeq	r1, r5, r0, lsl #14
     bc4:	54000400 	strpl	r0, [r0], #-1024	; 0xfffffc00
     bc8:	04000001 	streq	r0, [r0], #-1
     bcc:	00010001 	andeq	r0, r1, r1
     bd0:	01f60c00 	mvnseq	r0, r0, lsl #24
     bd4:	001b0000 	andseq	r0, fp, r0
     bd8:	83140000 	tsthi	r4, #0, 0
     bdc:	00d40000 	sbcseq	r0, r4, r0
     be0:	02120000 	andseq	r0, r2, #0, 0
     be4:	04020000 	streq	r0, [r2], #-0
     be8:	746e6905 	strbtvc	r6, [lr], #-2309	; 0xfffff6fb
     bec:	00250300 	eoreq	r0, r5, r0, lsl #6
     bf0:	04040000 	streq	r0, [r4], #-0
     bf4:	0000b807 	andeq	fp, r0, r7, lsl #16
     bf8:	06010400 	streq	r0, [r1], -r0, lsl #8
     bfc:	00000060 	andeq	r0, r0, r0, rrx
     c00:	df050204 	svcle	0x00050204
     c04:	04000000 	streq	r0, [r0], #-0
     c08:	00ca0504 	sbceq	r0, sl, r4, lsl #10
     c0c:	08040000 	stmdaeq	r4, {}	; <UNPREDICTABLE>
     c10:	0000c505 	andeq	ip, r0, r5, lsl #10
     c14:	08010400 	stmdaeq	r1, {sl}
     c18:	0000005e 	andeq	r0, r0, lr, asr r0
     c1c:	81070204 	tsthi	r7, r4, lsl #4
     c20:	04000000 	streq	r0, [r0], #-0
     c24:	00b30704 	adcseq	r0, r3, r4, lsl #14
     c28:	08040000 	stmdaeq	r4, {}	; <UNPREDICTABLE>
     c2c:	0000ae07 	andeq	sl, r0, r7, lsl #28
     c30:	00250500 	eoreq	r0, r5, r0, lsl #10
     c34:	007f0000 	rsbseq	r0, pc, r0
     c38:	25060000 	strcs	r0, [r6, #-0]
     c3c:	00000000 	andeq	r0, r0, r0
     c40:	0000d307 	andeq	sp, r0, r7, lsl #6
     c44:	0e1c0200 	cdpeq	2, 1, cr0, cr12, cr0, {0}
     c48:	0000008b 	andeq	r0, r0, fp, lsl #1
     c4c:	00700408 	rsbseq	r0, r0, r8, lsl #8
     c50:	25050000 	strcs	r0, [r5, #-0]
     c54:	a0000000 	andge	r0, r0, r0
     c58:	06000000 	streq	r0, [r0], -r0
     c5c:	000000a0 	andeq	r0, r0, r0, lsr #1
     c60:	ad040800 	stcge	8, cr0, [r4, #-0]
     c64:	04000000 	streq	r0, [r0], #-0
     c68:	00670801 	rsbeq	r0, r7, r1, lsl #16
     c6c:	a6090000 	strge	r0, [r9], -r0
     c70:	07000000 	streq	r0, [r0, -r0]
     c74:	0000027a 	andeq	r0, r0, sl, ror r2
     c78:	be0e2102 	adflte	f2, f6, f2
     c7c:	08000000 	stmdaeq	r0, {}	; <UNPREDICTABLE>
     c80:	00009104 	andeq	r9, r0, r4, lsl #2
     c84:	00760a00 	rsbseq	r0, r6, r0, lsl #20
     c88:	2c150701 	ldccs	7, cr0, [r5], {1}
     c8c:	05000000 	streq	r0, [r0, #-0]
     c90:	00945003 	addseq	r5, r4, r3
     c94:	01e90b00 	mvneq	r0, r0, lsl #22
     c98:	3d010000 	stccc	0, cr0, [r1, #-0]
     c9c:	0000310a 	andeq	r3, r0, sl, lsl #2
     ca0:	0083c800 	addeq	ip, r3, r0, lsl #16
     ca4:	00002000 	andeq	r2, r0, r0
     ca8:	539c0100 	orrspl	r0, ip, #0
     cac:	0c000001 	stceq	0, cr0, [r0], {1}
     cb0:	3e010073 	mcrcc	0, 0, r0, cr1, cr3, {3}
     cb4:	0000310e 	andeq	r3, r0, lr, lsl #2
     cb8:	00062500 	andeq	r2, r6, r0, lsl #10
     cbc:	00062300 	andeq	r2, r6, r0, lsl #6
     cc0:	00650c00 	rsbeq	r0, r5, r0, lsl #24
     cc4:	310e4301 	tstcc	lr, r1, lsl #6
     cc8:	3a000000 	bcc	cd0 <__code_start__-0x7330>
     ccc:	38000006 	stmdacc	r0, {r1, r2}
     cd0:	0d000006 	stceq	0, cr0, [r0, #-24]	; 0xffffffe8
     cd4:	000083c8 	andeq	r8, r0, r8, asr #7
     cd8:	00000004 	andeq	r0, r0, r4
     cdc:	00000134 	andeq	r0, r0, r4, lsr r1
     ce0:	0000a90e 	andeq	sl, r0, lr, lsl #18
     ce4:	123e0100 	eorsne	r0, lr, #0
     ce8:	00000031 	andeq	r0, r0, r1, lsr r0
     cec:	0000064f 	andeq	r0, r0, pc, asr #12
     cf0:	0000064d 	andeq	r0, r0, sp, asr #12
     cf4:	83dc0f00 	bicshi	r0, ip, #0, 30
     cf8:	00040000 	andeq	r0, r4, r0
     cfc:	a90e0000 	stmdbge	lr, {}	; <UNPREDICTABLE>
     d00:	01000000 	mrseq	r0, (UNDEF: 0)
     d04:	00311243 	eorseq	r1, r1, r3, asr #4
     d08:	06640000 	strbteq	r0, [r4], -r0
     d0c:	06620000 	strbteq	r0, [r2], -r0
     d10:	00000000 	andeq	r0, r0, r0
     d14:	0001dc0b 	andeq	sp, r1, fp, lsl #24
     d18:	0a350100 	beq	d41120 <__bss_end__+0xd378c8>
     d1c:	00000031 	andeq	r0, r0, r1, lsr r0
     d20:	000083ac 	andeq	r8, r0, ip, lsr #7
     d24:	0000001c 	andeq	r0, r0, ip, lsl r0
     d28:	01d29c01 	bicseq	r9, r2, r1, lsl #24
     d2c:	730c0000 	movwvc	r0, #49152	; 0xc000
     d30:	0e360100 	rsfeqs	f0, f6, f0
     d34:	00000031 	andeq	r0, r0, r1, lsr r0
     d38:	00000679 	andeq	r0, r0, r9, ror r6
     d3c:	00000677 	andeq	r0, r0, r7, ror r6
     d40:	0100650c 	tsteq	r0, ip, lsl #10
     d44:	00310e3a 	eorseq	r0, r1, sl, lsr lr
     d48:	068e0000 	streq	r0, [lr], r0
     d4c:	068c0000 	streq	r0, [ip], r0
     d50:	ac0d0000 	stcge	0, cr0, [sp], {-0}
     d54:	04000083 	streq	r0, [r0], #-131	; 0xffffff7d
     d58:	b3000000 	movwlt	r0, #0
     d5c:	0e000001 	cdpeq	0, 0, cr0, cr0, cr1, {0}
     d60:	000000a9 	andeq	r0, r0, r9, lsr #1
     d64:	31123601 	tstcc	r2, r1, lsl #12
     d68:	a3000000 	movwge	r0, #0
     d6c:	a1000006 	tstge	r0, r6
     d70:	00000006 	andeq	r0, r0, r6
     d74:	0083bc0f 	addeq	fp, r3, pc, lsl #24
     d78:	00000400 	andeq	r0, r0, r0, lsl #8
     d7c:	00a90e00 	adceq	r0, r9, r0, lsl #28
     d80:	3a010000 	bcc	40d88 <__bss_end__+0x37530>
     d84:	00003112 	andeq	r3, r0, r2, lsl r1
     d88:	0006b800 	andeq	fp, r6, r0, lsl #16
     d8c:	0006b600 	andeq	fp, r6, r0, lsl #12
     d90:	0b000000 	bleq	d98 <__code_start__-0x7268>
     d94:	000001c2 	andeq	r0, r0, r2, asr #3
     d98:	310a2d01 	tstcc	sl, r1, lsl #26
     d9c:	94000000 	strls	r0, [r0], #-0
     da0:	18000083 	stmdane	r0, {r0, r1, r7}
     da4:	01000000 	mrseq	r0, (UNDEF: 0)
     da8:	0002519c 	muleq	r2, ip, r1
     dac:	00730c00 	rsbseq	r0, r3, r0, lsl #24
     db0:	310e2e01 	tstcc	lr, r1, lsl #28
     db4:	cd000000 	stcgt	0, cr0, [r0, #-0]
     db8:	cb000006 	blgt	dd8 <__code_start__-0x7228>
     dbc:	0c000006 	stceq	0, cr0, [r0], {6}
     dc0:	31010065 	tstcc	r1, r5, rrx
     dc4:	0000310e 	andeq	r3, r0, lr, lsl #2
     dc8:	0006e200 	andeq	lr, r6, r0, lsl #4
     dcc:	0006e000 	andeq	lr, r6, r0
     dd0:	83940d00 	orrshi	r0, r4, #0, 26
     dd4:	00040000 	andeq	r0, r4, r0
     dd8:	02320000 	eorseq	r0, r2, #0, 0
     ddc:	a90e0000 	stmdbge	lr, {}	; <UNPREDICTABLE>
     de0:	01000000 	mrseq	r0, (UNDEF: 0)
     de4:	0031122e 	eorseq	r1, r1, lr, lsr #4
     de8:	06f70000 	ldrbteq	r0, [r7], r0
     dec:	06f50000 	ldrbteq	r0, [r5], r0
     df0:	0f000000 	svceq	0x00000000
     df4:	000083a0 	andeq	r8, r0, r0, lsr #7
     df8:	00000004 	andeq	r0, r0, r4
     dfc:	0000a90e 	andeq	sl, r0, lr, lsl #18
     e00:	12310100 	eorsne	r0, r1, #0
     e04:	00000031 	andeq	r0, r0, r1, lsr r0
     e08:	0000070c 	andeq	r0, r0, ip, lsl #14
     e0c:	0000070a 	andeq	r0, r0, sl, lsl #14
     e10:	cf0b0000 	svcgt	0x000b0000
     e14:	01000001 	tsteq	r0, r1
     e18:	00310a26 	eorseq	r0, r1, r6, lsr #20
     e1c:	83800000 	orrhi	r0, r0, #0, 0
     e20:	00140000 	andseq	r0, r4, r0
     e24:	9c010000 	stcls	0, cr0, [r1], {-0}
     e28:	000002d0 	ldrdeq	r0, [r0], -r0	; <UNPREDICTABLE>
     e2c:	0100730c 	tsteq	r0, ip, lsl #6
     e30:	00310e27 	eorseq	r0, r1, r7, lsr #28
     e34:	07210000 	streq	r0, [r1, -r0]!
     e38:	071f0000 	ldreq	r0, [pc, -r0]
     e3c:	650c0000 	strvs	r0, [ip, #-0]
     e40:	0e290100 	sufeqe	f0, f1, f0
     e44:	00000031 	andeq	r0, r0, r1, lsr r0
     e48:	00000736 	andeq	r0, r0, r6, lsr r7
     e4c:	00000734 	andeq	r0, r0, r4, lsr r7
     e50:	0083800d 	addeq	r8, r3, sp
     e54:	00000400 	andeq	r0, r0, r0, lsl #8
     e58:	0002b100 	andeq	fp, r2, r0, lsl #2
     e5c:	00a90e00 	adceq	r0, r9, r0, lsl #28
     e60:	27010000 	strcs	r0, [r1, -r0]
     e64:	00003112 	andeq	r3, r0, r2, lsl r1
     e68:	00074b00 	andeq	r4, r7, r0, lsl #22
     e6c:	00074900 	andeq	r4, r7, r0, lsl #18
     e70:	880f0000 	stmdahi	pc, {}	; <UNPREDICTABLE>
     e74:	04000083 	streq	r0, [r0], #-131	; 0xffffff7d
     e78:	0e000000 	cdpeq	0, 0, cr0, cr0, cr0, {0}
     e7c:	000000a9 	andeq	r0, r0, r9, lsr #1
     e80:	31122901 	tstcc	r2, r1, lsl #18
     e84:	60000000 	andvs	r0, r0, r0
     e88:	5e000007 	cdppl	0, 0, cr0, cr0, cr7, {0}
     e8c:	00000007 	andeq	r0, r0, r7
     e90:	02040b00 	andeq	r0, r4, #0, 22
     e94:	20010000 	andcs	r0, r1, r0
     e98:	0000310a 	andeq	r3, r0, sl, lsl #2
     e9c:	00837000 	addeq	r7, r3, r0
     ea0:	00001000 	andeq	r1, r0, r0
     ea4:	4f9c0100 	svcmi	0x009c0100
     ea8:	0c000003 	stceq	0, cr0, [r0], {3}
     eac:	21010073 	tstcs	r1, r3, ror r0
     eb0:	0000310e 	andeq	r3, r0, lr, lsl #2
     eb4:	00077500 	andeq	r7, r7, r0, lsl #10
     eb8:	00077300 	andeq	r7, r7, r0, lsl #6
     ebc:	00650c00 	rsbeq	r0, r5, r0, lsl #24
     ec0:	310e2201 	tstcc	lr, r1, lsl #4
     ec4:	8a000000 	bhi	ecc <__code_start__-0x7134>
     ec8:	88000007 	stmdahi	r0, {r0, r1, r2}
     ecc:	0d000007 	stceq	0, cr0, [r0, #-28]	; 0xffffffe4
     ed0:	00008370 	andeq	r8, r0, r0, ror r3
     ed4:	00000004 	andeq	r0, r0, r4
     ed8:	00000330 	andeq	r0, r0, r0, lsr r3
     edc:	0000a90e 	andeq	sl, r0, lr, lsl #18
     ee0:	12210100 	eorne	r0, r1, #0
     ee4:	00000031 	andeq	r0, r0, r1, lsr r0
     ee8:	0000079f 	muleq	r0, pc, r7	; <UNPREDICTABLE>
     eec:	0000079d 	muleq	r0, sp, r7
     ef0:	83740f00 	cmnhi	r4, #0, 30
     ef4:	00040000 	andeq	r0, r4, r0
     ef8:	a90e0000 	stmdbge	lr, {}	; <UNPREDICTABLE>
     efc:	01000000 	mrseq	r0, (UNDEF: 0)
     f00:	00311222 	eorseq	r1, r1, r2, lsr #4
     f04:	07b40000 	ldreq	r0, [r4, r0]!
     f08:	07b20000 	ldreq	r0, [r2, r0]!
     f0c:	00000000 	andeq	r0, r0, r0
     f10:	0000000b 	andeq	r0, r0, fp
     f14:	0a190100 	beq	64131c <__bss_end__+0x637ac4>
     f18:	00000031 	andeq	r0, r0, r1, lsr r0
     f1c:	0000834c 	andeq	r8, r0, ip, asr #6
     f20:	00000024 	andeq	r0, r0, r4, lsr #32
     f24:	03fe9c01 	mvnseq	r9, #256	; 0x100
     f28:	78100000 	ldmdavc	r0, {}	; <UNPREDICTABLE>
     f2c:	1c190100 	ldfnes	f0, [r9], {-0}
     f30:	00000025 	andeq	r0, r0, r5, lsr #32
     f34:	000007cd 	andeq	r0, r0, sp, asr #15
     f38:	000007c7 	andeq	r0, r0, r7, asr #15
     f3c:	0100730c 	tsteq	r0, ip, lsl #6
     f40:	00310e1a 	eorseq	r0, r1, sl, lsl lr
     f44:	07fb0000 	ldrbeq	r0, [fp, r0]!
     f48:	07f90000 	ldrbeq	r0, [r9, r0]!
     f4c:	650c0000 	strvs	r0, [ip, #-0]
     f50:	0e1c0100 	mufeqe	f0, f4, f0
     f54:	00000031 	andeq	r0, r0, r1, lsr r0
     f58:	00000810 	andeq	r0, r0, r0, lsl r8
     f5c:	0000080e 	andeq	r0, r0, lr, lsl #16
     f60:	0083540d 	addeq	r5, r3, sp, lsl #8
     f64:	00000400 	andeq	r0, r0, r0, lsl #8
     f68:	0003c100 	andeq	ip, r3, r0, lsl #2
     f6c:	00a90e00 	adceq	r0, r9, r0, lsl #28
     f70:	1a010000 	bne	40f78 <__bss_end__+0x37720>
     f74:	00003112 	andeq	r3, r0, r2, lsl r1
     f78:	00082500 	andeq	r2, r8, r0, lsl #10
     f7c:	00082300 	andeq	r2, r8, r0, lsl #6
     f80:	600d0000 	andvs	r0, sp, r0
     f84:	04000083 	streq	r0, [r0], #-131	; 0xffffff7d
     f88:	e3000000 	movw	r0, #0
     f8c:	0e000003 	cdpeq	0, 0, cr0, cr0, cr3, {0}
     f90:	000000a9 	andeq	r0, r0, r9, lsr #1
     f94:	31121c01 	tstcc	r2, r1, lsl #24
     f98:	3a000000 	bcc	fa0 <__code_start__-0x7060>
     f9c:	38000008 	stmdacc	r0, {r3}
     fa0:	00000008 	andeq	r0, r0, r8
     fa4:	00836011 	addeq	r6, r3, r1, lsl r0
     fa8:	00050e00 	andeq	r0, r5, r0, lsl #28
     fac:	50011200 	andpl	r1, r1, r0, lsl #4
     fb0:	94500305 	ldrbls	r0, [r0], #-773	; 0xfffffcfb
     fb4:	01120000 	tsteq	r2, r0
     fb8:	01f30351 	mvnseq	r0, r1, asr r3
     fbc:	0b000050 	bleq	1104 <__code_start__-0x6efc>
     fc0:	0000009a 	muleq	r0, sl, r0
     fc4:	310a1201 	tstcc	sl, r1, lsl #4
     fc8:	2c000000 	stccs	0, cr0, [r0], {-0}
     fcc:	20000083 	andcs	r0, r0, r3, lsl #1
     fd0:	01000000 	mrseq	r0, (UNDEF: 0)
     fd4:	00048f9c 	muleq	r4, ip, pc	; <UNPREDICTABLE>
     fd8:	00781000 	rsbseq	r1, r8, r0
     fdc:	251d1201 	ldrcs	r1, [sp, #-513]	; 0xfffffdff
     fe0:	51000000 	mrspl	r0, (UNDEF: 0)
     fe4:	4d000008 	stcmi	0, cr0, [r0, #-32]	; 0xffffffe0
     fe8:	0c000008 	stceq	0, cr0, [r0], {8}
     fec:	13010073 	movwne	r0, #4211	; 0x1073
     ff0:	0000310e 	andeq	r3, r0, lr, lsl #2
     ff4:	00087400 	andeq	r7, r8, r0, lsl #8
     ff8:	00087200 	andeq	r7, r8, r0, lsl #4
     ffc:	00650c00 	rsbeq	r0, r5, r0, lsl #24
    1000:	310e1501 	tstcc	lr, r1, lsl #10
    1004:	89000000 	stmdbhi	r0, {}	; <UNPREDICTABLE>
    1008:	87000008 	strhi	r0, [r0, -r8]
    100c:	0d000008 	stceq	0, cr0, [r0, #-32]	; 0xffffffe0
    1010:	0000832c 	andeq	r8, r0, ip, lsr #6
    1014:	00000004 	andeq	r0, r0, r4
    1018:	00000470 	andeq	r0, r0, r0, ror r4
    101c:	0000a90e 	andeq	sl, r0, lr, lsl #18
    1020:	12130100 	andsne	r0, r3, #0
    1024:	00000031 	andeq	r0, r0, r1, lsr r0
    1028:	0000089e 	muleq	r0, lr, r8
    102c:	0000089c 	muleq	r0, ip, r8
    1030:	833c0f00 	teqhi	ip, #0, 30
    1034:	00040000 	andeq	r0, r4, r0
    1038:	a90e0000 	stmdbge	lr, {}	; <UNPREDICTABLE>
    103c:	01000000 	mrseq	r0, (UNDEF: 0)
    1040:	00311215 	eorseq	r1, r1, r5, lsl r2
    1044:	08b30000 	ldmeq	r3!, {}	; <UNPREDICTABLE>
    1048:	08b10000 	ldmeq	r1!, {}	; <UNPREDICTABLE>
    104c:	00000000 	andeq	r0, r0, r0
    1050:	0001b50b 	andeq	fp, r1, fp, lsl #10
    1054:	0a090100 	beq	24145c <__bss_end__+0x237c04>
    1058:	00000031 	andeq	r0, r0, r1, lsr r0
    105c:	00008314 	andeq	r8, r0, r4, lsl r3
    1060:	00000018 	andeq	r0, r0, r8, lsl r0
    1064:	050e9c01 	streq	r9, [lr, #-3073]	; 0xfffff3ff
    1068:	730c0000 	movwvc	r0, #49152	; 0xc000
    106c:	0e0a0100 	adfeqe	f0, f2, f0
    1070:	00000031 	andeq	r0, r0, r1, lsr r0
    1074:	000008c8 	andeq	r0, r0, r8, asr #17
    1078:	000008c6 	andeq	r0, r0, r6, asr #17
    107c:	0100650c 	tsteq	r0, ip, lsl #10
    1080:	00310e0e 	eorseq	r0, r1, lr, lsl #28
    1084:	08dd0000 	ldmeq	sp, {}^	; <UNPREDICTABLE>
    1088:	08db0000 	ldmeq	fp, {}^	; <UNPREDICTABLE>
    108c:	140d0000 	strne	r0, [sp], #-0
    1090:	04000083 	streq	r0, [r0], #-131	; 0xffffff7d
    1094:	ef000000 	svc	0x00000000
    1098:	0e000004 	cdpeq	0, 0, cr0, cr0, cr4, {0}
    109c:	000000a9 	andeq	r0, r0, r9, lsr #1
    10a0:	31120a01 	tstcc	r2, r1, lsl #20
    10a4:	f2000000 	vhadd.s8	d0, d0, d0
    10a8:	f0000008 			; <UNDEFINED> instruction: 0xf0000008
    10ac:	00000008 	andeq	r0, r0, r8
    10b0:	0083200f 	addeq	r2, r3, pc
    10b4:	00000400 	andeq	r0, r0, r0, lsl #8
    10b8:	00a90e00 	adceq	r0, r9, r0, lsl #28
    10bc:	0e010000 	cdpeq	0, 0, cr0, cr1, cr0, {0}
    10c0:	00003112 	andeq	r3, r0, r2, lsl r1
    10c4:	00090700 	andeq	r0, r9, r0, lsl #14
    10c8:	00090500 	andeq	r0, r9, r0, lsl #10
    10cc:	13000000 	movwne	r0, #0
    10d0:	00000094 	muleq	r0, r4, r0
    10d4:	00000094 	muleq	r0, r4, r0
    10d8:	0006ae02 	andeq	sl, r6, r2, lsl #28
    10dc:	0000019d 	muleq	r0, sp, r1
    10e0:	02630004 	rsbeq	r0, r3, #4, 0
    10e4:	01040000 	mrseq	r0, (UNDEF: 4)
    10e8:	00000100 	andeq	r0, r0, r0, lsl #2
    10ec:	0002350c 	andeq	r3, r2, ip, lsl #10
    10f0:	00024f00 	andeq	r4, r2, r0, lsl #30
    10f4:	0083e800 	addeq	lr, r3, r0, lsl #16
    10f8:	00005800 	andeq	r5, r0, r0, lsl #16
    10fc:	0003aa00 	andeq	sl, r3, r0, lsl #20
    1100:	02210200 	eoreq	r0, r1, #0, 4
    1104:	28020000 	stmdacs	r2, {}	; <UNPREDICTABLE>
    1108:	0000311b 	andeq	r3, r0, fp, lsl r1
    110c:	02450300 	subeq	r0, r5, #0, 6
    1110:	04040000 	streq	r0, [r4], #-0
    1114:	00004800 	andeq	r4, r0, r0, lsl #16
    1118:	02300400 	eorseq	r0, r0, #0, 8
    111c:	00480000 	subeq	r0, r8, r0
    1120:	00000000 	andeq	r0, r0, r0
    1124:	47020405 	strmi	r0, [r2, -r5, lsl #8]
    1128:	02000002 	andeq	r0, r0, #2, 0
    112c:	00251863 	eoreq	r1, r5, r3, ror #16
    1130:	04060000 	streq	r0, [r6], #-0
    1134:	746e6905 	strbtvc	r6, [lr], #-2309	; 0xfffff6fb
    1138:	07040700 	streq	r0, [r4, -r0, lsl #14]
    113c:	000000b8 	strheq	r0, [r0], -r8
    1140:	60060107 	andvs	r0, r6, r7, lsl #2
    1144:	07000000 	streq	r0, [r0, -r0]
    1148:	00df0502 	sbcseq	r0, pc, r2, lsl #10
    114c:	04070000 	streq	r0, [r7], #-0
    1150:	0000ca05 	andeq	ip, r0, r5, lsl #20
    1154:	05080700 	streq	r0, [r8, #-1792]	; 0xfffff900
    1158:	000000c5 	andeq	r0, r0, r5, asr #1
    115c:	5e080107 	adfple	f0, f0, f7
    1160:	07000000 	streq	r0, [r0, -r0]
    1164:	00810702 	addeq	r0, r1, r2, lsl #14
    1168:	04070000 	streq	r0, [r7], #-0
    116c:	0000b307 	andeq	fp, r0, r7, lsl #6
    1170:	07080700 	streq	r0, [r8, -r0, lsl #14]
    1174:	000000ae 	andeq	r0, r0, lr, lsr #1
    1178:	00005608 	andeq	r5, r0, r8, lsl #12
    117c:	0000ab00 	andeq	sl, r0, r0, lsl #22
    1180:	00560900 	subseq	r0, r6, r0, lsl #18
    1184:	0a000000 	beq	118c <__code_start__-0x6e74>
    1188:	000000d3 	ldrdeq	r0, [r0], -r3
    118c:	b70e1c03 	strlt	r1, [lr, -r3, lsl #24]
    1190:	0b000000 	bleq	1198 <__code_start__-0x6e68>
    1194:	00009c04 	andeq	r9, r0, r4, lsl #24
    1198:	00560800 	subseq	r0, r6, r0, lsl #16
    119c:	00cc0000 	sbceq	r0, ip, r0
    11a0:	cc090000 	stcgt	0, cr0, [r9], {-0}
    11a4:	00000000 	andeq	r0, r0, r0
    11a8:	00d9040b 	sbcseq	r0, r9, fp, lsl #8
    11ac:	01070000 	mrseq	r0, (UNDEF: 7)
    11b0:	00006708 	andeq	r6, r0, r8, lsl #14
    11b4:	00d20c00 	sbcseq	r0, r2, r0, lsl #24
    11b8:	7a0a0000 	bvc	2811c0 <__bss_end__+0x277968>
    11bc:	03000002 	movweq	r0, #2
    11c0:	00ea0e21 	rsceq	r0, sl, r1, lsr #28
    11c4:	040b0000 	streq	r0, [fp], #-0
    11c8:	000000bd 	strheq	r0, [r0], -sp
    11cc:	00021a0d 	andeq	r1, r2, sp, lsl #20
    11d0:	05060100 	streq	r0, [r6, #-256]	; 0xffffff00
    11d4:	00000056 	andeq	r0, r0, r6, asr r0
    11d8:	000083e8 	andeq	r8, r0, r8, ror #7
    11dc:	00000058 	andeq	r0, r0, r8, asr r0
    11e0:	01839c01 	orreq	r9, r3, r1, lsl #24
    11e4:	660e0000 	strvs	r0, [lr], -r0
    11e8:	0100746d 	tsteq	r0, sp, ror #8
    11ec:	00cc1806 	sbceq	r1, ip, r6, lsl #16
    11f0:	91020000 	mrsls	r0, (UNDEF: 2)
    11f4:	62100f70 	andsvs	r0, r0, #112, 30	; 0x1c0
    11f8:	01006675 	tsteq	r0, r5, ror r6
    11fc:	01831108 	orreq	r1, r3, r8, lsl #2
    1200:	03050000 	movweq	r0, #20480	; 0x5000
    1204:	00009454 	andeq	r9, r0, r4, asr r4
    1208:	00021211 	andeq	r1, r2, r1, lsl r2
    120c:	0d090100 	stfeqs	f0, [r9, #-0]
    1210:	0000004a 	andeq	r0, r0, sl, asr #32
    1214:	125c9102 	subsne	r9, ip, #-2147483648	; 0x80000000
    1218:	01007a73 	tsteq	r0, r3, ror sl
    121c:	00560d0c 	subseq	r0, r6, ip, lsl #26
    1220:	09200000 	stmdbeq	r0!, {}	; <UNPREDICTABLE>
    1224:	091a0000 	ldmdbeq	sl, {}	; <UNPREDICTABLE>
    1228:	10130000 	andsne	r0, r3, r0
    122c:	94000084 	strls	r0, [r0], #-132	; 0xffffff7c
    1230:	76000001 	strvc	r0, [r0], -r1
    1234:	14000001 	strne	r0, [r0], #-1
    1238:	75025001 	strvc	r5, [r2, #-1]
    123c:	51011400 	tstpl	r1, r0, lsl #8
    1240:	04000a03 	streq	r0, [r0], #-2563	; 0xfffff5fd
    1244:	03520114 	cmpeq	r2, #5
    1248:	14064891 	strne	r4, [r6], #-2193	; 0xfffff76f
    124c:	91025301 	tstls	r2, r1, lsl #6
    1250:	2415004c 	ldrcs	r0, [r5], #-76	; 0xffffffb4
    1254:	14000084 	strne	r0, [r0], #-132	; 0xffffff7c
    1258:	75025001 	strvc	r5, [r2, #-1]
    125c:	16000000 	strne	r0, [r0], -r0
    1260:	000000d2 	ldrdeq	r0, [r0], -r2
    1264:	00000194 	muleq	r0, r4, r1
    1268:	00005d17 	andeq	r5, r0, r7, lsl sp
    126c:	0003ff00 	andeq	pc, r3, r0, lsl #30
    1270:	00021718 	andeq	r1, r2, r8, lsl r7
    1274:	00021700 	andeq	r1, r2, r0, lsl #14
    1278:	05020500 	streq	r0, [r2, #-1280]	; 0xfffffb00
    127c:	0000f300 	andeq	pc, r0, r0, lsl #6
    1280:	a5000400 	strge	r0, [r0, #-1024]	; 0xfffffc00
    1284:	04000003 	streq	r0, [r0], #-3
    1288:	00010001 	andeq	r0, r1, r1
    128c:	027f0c00 	rsbseq	r0, pc, #0, 24
    1290:	024f0000 	subeq	r0, pc, #0, 0
    1294:	84400000 	strbhi	r0, [r0], #-0
    1298:	00340000 	eorseq	r0, r4, r0
    129c:	04be0000 	ldrteq	r0, [lr], #0
    12a0:	04020000 	streq	r0, [r2], #-0
    12a4:	746e6905 	strbtvc	r6, [lr], #-2309	; 0xfffff6fb
    12a8:	07040300 	streq	r0, [r4, -r0, lsl #6]
    12ac:	000000b8 	strheq	r0, [r0], -r8
    12b0:	60060103 	andvs	r0, r6, r3, lsl #2
    12b4:	03000000 	movweq	r0, #0
    12b8:	00df0502 	sbcseq	r0, pc, r2, lsl #10
    12bc:	04030000 	streq	r0, [r3], #-0
    12c0:	0000ca05 	andeq	ip, r0, r5, lsl #20
    12c4:	05080300 	streq	r0, [r8, #-768]	; 0xfffffd00
    12c8:	000000c5 	andeq	r0, r0, r5, asr #1
    12cc:	5e080103 	adfple	f0, f0, f3
    12d0:	03000000 	movweq	r0, #0
    12d4:	00810702 	addeq	r0, r1, r2, lsl #14
    12d8:	04030000 	streq	r0, [r3], #-0
    12dc:	0000b307 	andeq	fp, r0, r7, lsl #6
    12e0:	07080300 	streq	r0, [r8, -r0, lsl #6]
    12e4:	000000ae 	andeq	r0, r0, lr, lsr #1
    12e8:	00002504 	andeq	r2, r0, r4, lsl #10
    12ec:	00007a00 	andeq	r7, r0, r0, lsl #20
    12f0:	00250500 	eoreq	r0, r5, r0, lsl #10
    12f4:	06000000 	streq	r0, [r0], -r0
    12f8:	000000d3 	ldrdeq	r0, [r0], -r3
    12fc:	860e1c02 	strhi	r1, [lr], -r2, lsl #24
    1300:	07000000 	streq	r0, [r0, -r0]
    1304:	00006b04 	andeq	r6, r0, r4, lsl #22
    1308:	00250400 	eoreq	r0, r5, r0, lsl #8
    130c:	009b0000 	addseq	r0, fp, r0
    1310:	9b050000 	blls	141318 <__bss_end__+0x137ac0>
    1314:	00000000 	andeq	r0, r0, r0
    1318:	00a80407 	adceq	r0, r8, r7, lsl #8
    131c:	01030000 	mrseq	r0, (UNDEF: 3)
    1320:	00006708 	andeq	r6, r0, r8, lsl #14
    1324:	00a10800 	adceq	r0, r1, r0, lsl #16
    1328:	7a060000 	bvc	181330 <__bss_end__+0x177ad8>
    132c:	02000002 	andeq	r0, r0, #2, 0
    1330:	00b90e21 	adcseq	r0, r9, r1, lsr #28
    1334:	04070000 	streq	r0, [r7], #-0
    1338:	0000008c 	andeq	r0, r0, ip, lsl #1
    133c:	0000ad09 	andeq	sl, r0, r9, lsl #26
    1340:	070c0100 	streq	r0, [ip, -r0, lsl #2]
    1344:	94440305 	strbls	r0, [r4], #-773	; 0xfffffcfb
    1348:	710a0000 	mrsvc	r0, (UNDEF: 10)
    134c:	01000002 	tsteq	r0, r2
    1350:	00250504 	eoreq	r0, r5, r4, lsl #10
    1354:	84400000 	strbhi	r0, [r0], #-0
    1358:	00340000 	eorseq	r0, r4, r0
    135c:	9c010000 	stcls	0, cr0, [r1], {-0}
    1360:	0100700b 	tsteq	r0, fp
    1364:	009b1f04 	addseq	r1, fp, r4, lsl #30
    1368:	094d0000 	stmdbeq	sp, {}^	; <UNPREDICTABLE>
    136c:	09490000 	stmdbeq	r9, {}^	; <UNPREDICTABLE>
    1370:	00000000 	andeq	r0, r0, r0
    1374:	00000ad7 	ldrdeq	r0, [r0], -r7
    1378:	04430004 	strbeq	r0, [r3], #-4
    137c:	01040000 	mrseq	r0, (UNDEF: 4)
    1380:	00000100 	andeq	r0, r0, r0, lsl #2
    1384:	00029e0c 	andeq	r9, r2, ip, lsl #28
    1388:	00024f00 	andeq	r4, r2, r0, lsl #30
    138c:	00847400 	addeq	r7, r4, r0, lsl #8
    1390:	00074000 	andeq	r4, r7, r0
    1394:	00056700 	andeq	r6, r5, r0, lsl #14
    1398:	05040200 	streq	r0, [r4, #-512]	; 0xfffffe00
    139c:	00746e69 	rsbseq	r6, r4, r9, ror #28
    13a0:	b8070403 	stmdalt	r7, {r0, r1, sl}
    13a4:	03000000 	movweq	r0, #0
    13a8:	00600601 	rsbeq	r0, r0, r1, lsl #12
    13ac:	02030000 	andeq	r0, r3, #0, 0
    13b0:	0000df05 	andeq	sp, r0, r5, lsl #30
    13b4:	05040300 	streq	r0, [r4, #-768]	; 0xfffffd00
    13b8:	000000ca 	andeq	r0, r0, sl, asr #1
    13bc:	c5050803 	strgt	r0, [r5, #-2051]	; 0xfffff7fd
    13c0:	03000000 	movweq	r0, #0
    13c4:	005e0801 	subseq	r0, lr, r1, lsl #16
    13c8:	02030000 	andeq	r0, r3, #0, 0
    13cc:	00008107 	andeq	r8, r0, r7, lsl #2
    13d0:	03110400 	tsteq	r1, #0, 8
    13d4:	34020000 	strcc	r0, [r2], #-0
    13d8:	00006919 	andeq	r6, r0, r9, lsl r9
    13dc:	07040300 	streq	r0, [r4, -r0, lsl #6]
    13e0:	000000b3 	strheq	r0, [r0], -r3
    13e4:	00029504 	andeq	r9, r2, r4, lsl #10
    13e8:	19370200 	ldmdbne	r7!, {r9}
    13ec:	0000007c 	andeq	r0, r0, ip, ror r0
    13f0:	ae070803 	cdpge	8, 0, cr0, cr7, cr3, {0}
    13f4:	05000000 	streq	r0, [r0, #-0]
    13f8:	00000025 	andeq	r0, r0, r5, lsr #32
    13fc:	00000092 	muleq	r0, r2, r0
    1400:	00002506 	andeq	r2, r0, r6, lsl #10
    1404:	d3070000 	movwle	r0, #28672	; 0x7000
    1408:	03000000 	movweq	r0, #0
    140c:	009e0e1c 	addseq	r0, lr, ip, lsl lr
    1410:	04080000 	streq	r0, [r8], #-0
    1414:	00000083 	andeq	r0, r0, r3, lsl #1
    1418:	00002505 	andeq	r2, r0, r5, lsl #10
    141c:	0000b300 	andeq	fp, r0, r0, lsl #6
    1420:	00b30600 	adcseq	r0, r3, r0, lsl #12
    1424:	08000000 	stmdaeq	r0, {}	; <UNPREDICTABLE>
    1428:	0000c004 	andeq	ip, r0, r4
    142c:	08010300 	stmdaeq	r1, {r8, r9}
    1430:	00000067 	andeq	r0, r0, r7, rrx
    1434:	0000b909 	andeq	fp, r0, r9, lsl #18
    1438:	027a0700 	rsbseq	r0, sl, #0, 14
    143c:	21030000 	mrscs	r0, (UNDEF: 3)
    1440:	0000d10e 	andeq	sp, r0, lr, lsl #2
    1444:	a4040800 	strge	r0, [r4], #-2048	; 0xfffff800
    1448:	07000000 	streq	r0, [r0, -r0]
    144c:	000002b1 			; <UNDEFINED> instruction: 0x000002b1
    1450:	b90d0b04 	stmdblt	sp, {r2, r8, r9, fp}
    1454:	07000000 	streq	r0, [r0, -r0]
    1458:	00000347 	andeq	r0, r0, r7, asr #6
    145c:	b90d0c04 	stmdblt	sp, {r2, sl, fp}
    1460:	07000000 	streq	r0, [r0, -r0]
    1464:	000002c0 	andeq	r0, r0, r0, asr #5
    1468:	b90d0d04 	stmdblt	sp, {r2, r8, sl, fp}
    146c:	07000000 	streq	r0, [r0, -r0]
    1470:	000002f6 	strdeq	r0, [r0], -r6
    1474:	b90d0e04 	stmdblt	sp, {r2, r9, sl, fp}
    1478:	07000000 	streq	r0, [r0, -r0]
    147c:	00000370 	andeq	r0, r0, r0, ror r3
    1480:	b90d0f04 	stmdblt	sp, {r2, r8, r9, sl, fp}
    1484:	07000000 	streq	r0, [r0, -r0]
    1488:	000002e1 	andeq	r0, r0, r1, ror #5
    148c:	b90d1004 	stmdblt	sp, {r2, ip}
    1490:	07000000 	streq	r0, [r0, -r0]
    1494:	0000037f 	andeq	r0, r0, pc, ror r3
    1498:	b90d1104 	stmdblt	sp, {r2, r8, ip}
    149c:	07000000 	streq	r0, [r0, -r0]
    14a0:	00000302 	andeq	r0, r0, r2, lsl #6
    14a4:	b90d1204 	stmdblt	sp, {r2, r9, ip}
    14a8:	04000000 	streq	r0, [r0], #-0
    14ac:	00000221 	andeq	r0, r0, r1, lsr #4
    14b0:	431b2805 	tstmi	fp, #327680	; 0x50000
    14b4:	0a000001 	beq	14c0 <__code_start__-0x6b40>
    14b8:	00000245 	andeq	r0, r0, r5, asr #4
    14bc:	5a000604 	bpl	2cd4 <__code_start__-0x532c>
    14c0:	0b000001 	bleq	14cc <__code_start__-0x6b34>
    14c4:	00000230 	andeq	r0, r0, r0, lsr r2
    14c8:	0000015a 	andeq	r0, r0, sl, asr r1
    14cc:	040c0000 	streq	r0, [ip], #-0
    14d0:	00024704 	andeq	r4, r2, r4, lsl #14
    14d4:	18630500 	stmdane	r3!, {r8, sl}^
    14d8:	00000137 	andeq	r0, r0, r7, lsr r1
    14dc:	0002170d 	andeq	r1, r2, sp, lsl #14
    14e0:	05810100 	streq	r0, [r1, #256]	; 0x100
    14e4:	00000025 	andeq	r0, r0, r5, lsr #32
    14e8:	000086fc 	strdeq	r8, [r0], -ip
    14ec:	000004b8 			; <UNDEFINED> instruction: 0x000004b8
    14f0:	07179c01 	ldreq	r9, [r7, -r1, lsl #24]
    14f4:	620e0000 	andvs	r0, lr, #0, 0
    14f8:	01006675 	tsteq	r0, r5, ror r6
    14fc:	07171581 	ldreq	r1, [r7, -r1, lsl #11]
    1500:	09710000 	ldmdbeq	r1!, {}^	; <UNPREDICTABLE>
    1504:	096b0000 	stmdbeq	fp!, {}^	; <UNPREDICTABLE>
    1508:	6e0e0000 	cdpvs	0, 0, cr0, cr14, cr0, {0}
    150c:	1e810100 	rmfnes	f0, f1, f0
    1510:	00000025 	andeq	r0, r0, r5, lsr #32
    1514:	000009a3 	andeq	r0, r0, r3, lsr #19
    1518:	0000099d 	muleq	r0, sp, r9
    151c:	746d660e 	strbtvc	r6, [sp], #-1550	; 0xfffff9f2
    1520:	2d810100 	stfcss	f0, [r1]
    1524:	000000b3 	strheq	r0, [r0], -r3
    1528:	000009dd 	ldrdeq	r0, [r0], -sp
    152c:	000009d1 	ldrdeq	r0, [r0], -r1
    1530:	0002120f 	andeq	r1, r2, pc, lsl #4
    1534:	3a810100 	bcc	fe04193c <__bss_end__+0xfe0380e4>
    1538:	0000015c 	andeq	r0, r0, ip, asr r1
    153c:	7dd49103 	ldfvcp	f1, [r4, #12]
    1540:	01007010 	tsteq	r0, r0, lsl r0
    1544:	07170882 	ldreq	r0, [r7, -r2, lsl #17]
    1548:	0a3b0000 	beq	ec1550 <__bss_end__+0xeb7cf8>
    154c:	0a270000 	beq	9c1554 <__bss_end__+0x9b7cfc>
    1550:	65100000 	ldrvs	r0, [r0, #-0]
    1554:	12820100 	addne	r0, r2, #0
    1558:	00000717 	andeq	r0, r0, r7, lsl r7
    155c:	00000abd 			; <UNDEFINED> instruction: 0x00000abd
    1560:	00000ab9 			; <UNDEFINED> instruction: 0x00000ab9
    1564:	00307810 	eorseq	r7, r0, r0, lsl r8
    1568:	5d0e8301 	stcpl	3, cr8, [lr, #-4]
    156c:	ea000000 	b	1574 <__code_start__-0x6a8c>
    1570:	e400000a 	str	r0, [r0], #-10
    1574:	1000000a 	andne	r0, r0, sl
    1578:	01003178 	tsteq	r0, r8, ror r1
    157c:	005d1183 	subseq	r1, sp, r3, lsl #3
    1580:	0b170000 	bleq	5c1588 <__bss_end__+0x5b7d30>
    1584:	0b130000 	bleq	4c158c <__bss_end__+0x4b7d34>
    1588:	29110000 	ldmdbcs	r1, {}	; <UNPREDICTABLE>
    158c:	01000003 	tsteq	r0, r3
    1590:	00b31186 	adcseq	r1, r3, r6, lsl #3
    1594:	0b390000 	bleq	e4159c <__bss_end__+0xe37d44>
    1598:	0b350000 	bleq	d415a0 <__bss_end__+0xd37d48>
    159c:	d4120000 	ldrle	r0, [r2], #-0
    15a0:	2d000002 	stccs	0, cr0, [r0, #-8]
    15a4:	05000007 	streq	r0, [r0, #-7]
    15a8:	00942c03 	addseq	r2, r4, r3, lsl #24
    15ac:	87641300 	strbhi	r1, [r4, -r0, lsl #6]!
    15b0:	04000000 	streq	r0, [r0], #-0
    15b4:	73100000 	tstvc	r0, #0, 0
    15b8:	0a910100 	beq	fe4419c0 <__bss_end__+0xfe438168>
    15bc:	00000717 	andeq	r0, r0, r7, lsl r7
    15c0:	00000b6f 	andeq	r0, r0, pc, ror #22
    15c4:	00000b59 	andeq	r0, r0, r9, asr fp
    15c8:	6d756e14 	ldclvs	14, cr6, [r5, #-80]!	; 0xffffffb0
    15cc:	0d910100 	ldfeqs	f0, [r1]
    15d0:	00000732 	andeq	r0, r0, r2, lsr r7
    15d4:	7dd89103 	ldfvcp	f1, [r8, #12]
    15d8:	00038c15 	andeq	r8, r3, r5, lsl ip
    15dc:	17910100 	ldrne	r0, [r1, r0, lsl #2]
    15e0:	00000732 	andeq	r0, r0, r2, lsr r7
    15e4:	7ed89103 	atnvce	f1, f3
    15e8:	0002ce11 	andeq	ip, r2, r1, lsl lr
    15ec:	0d920100 	ldfeqs	f0, [r2]
    15f0:	0000002c 	andeq	r0, r0, ip, lsr #32
    15f4:	00000bf6 	strdeq	r0, [r0], -r6
    15f8:	00000bf0 	strdeq	r0, [r0], -r0	; <UNPREDICTABLE>
    15fc:	00882c16 	addeq	r2, r8, r6, lsl ip
    1600:	0001a400 	andeq	sl, r1, r0, lsl #8
    1604:	00053900 	andeq	r3, r5, r0, lsl #18
    1608:	79741000 	ldmdbvc	r4!, {ip}^
    160c:	1d9e0100 	ldfnes	f0, [lr]
    1610:	000000b3 	strheq	r0, [r0], -r3
    1614:	00000c2a 	andeq	r0, r0, sl, lsr #24
    1618:	00000c20 	andeq	r0, r0, r0, lsr #24
    161c:	00787817 	rsbseq	r7, r8, r7, lsl r8
    1620:	701aa201 	andsvc	sl, sl, r1, lsl #4
    1624:	18000000 	stmdane	r0, {}	; <UNPREDICTABLE>
    1628:	0000883c 	andeq	r8, r0, ip, lsr r8
    162c:	00000a92 	muleq	r0, r2, sl
    1630:	000002d5 	ldrdeq	r0, [r0], -r5
    1634:	02500119 	subseq	r0, r0, #1073741830	; 0x40000006
    1638:	01190076 	tsteq	r9, r6, ror r0
    163c:	20030551 	andcs	r0, r3, r1, asr r5
    1640:	19000093 	stmdbne	r0, {r0, r1, r4, r7}
    1644:	33015201 	movwcc	r5, #4609	; 0x1201
    1648:	88541800 	ldmdahi	r4, {fp, ip}^
    164c:	0a920000 	beq	fe481654 <__bss_end__+0xfe477dfc>
    1650:	02f70000 	rscseq	r0, r7, #0, 0
    1654:	01190000 	tsteq	r9, r0
    1658:	00760250 	rsbseq	r0, r6, r0, asr r2
    165c:	05510119 	ldrbeq	r0, [r1, #-281]	; 0xfffffee7
    1660:	00932403 	addseq	r2, r3, r3, lsl #8
    1664:	52011900 	andpl	r1, r1, #0, 18
    1668:	18003301 	stmdane	r0, {r0, r8, r9, ip, sp}
    166c:	00008888 	andeq	r8, r0, r8, lsl #17
    1670:	00000a9e 	muleq	r0, lr, sl
    1674:	00000314 	andeq	r0, r0, r4, lsl r3
    1678:	05500119 	ldrbeq	r0, [r0, #-281]	; 0xfffffee7
    167c:	00932803 	addseq	r2, r3, r3, lsl #16
    1680:	51011900 	tstpl	r1, r0, lsl #18
    1684:	00007702 	andeq	r7, r0, r2, lsl #14
    1688:	00889418 	addeq	r9, r8, r8, lsl r4
    168c:	000a9e00 	andeq	r9, sl, r0, lsl #28
    1690:	00033100 	andeq	r3, r3, r0, lsl #2
    1694:	50011900 	andpl	r1, r1, r0, lsl #18
    1698:	93300305 	teqls	r0, #335544320	; 0x14000000
    169c:	01190000 	tsteq	r9, r0
    16a0:	007a0251 	rsbseq	r0, sl, r1, asr r2
    16a4:	88a41800 	stmiahi	r4!, {fp, ip}
    16a8:	0a920000 	beq	fe4816b0 <__bss_end__+0xfe477e58>
    16ac:	03530000 	cmpeq	r3, #0, 0
    16b0:	01190000 	tsteq	r9, r0
    16b4:	00760250 	rsbseq	r0, r6, r0, asr r2
    16b8:	05510119 	ldrbeq	r0, [r1, #-281]	; 0xfffffee7
    16bc:	00932003 	addseq	r2, r3, r3
    16c0:	52011900 	andpl	r1, r1, #0, 18
    16c4:	18003301 	stmdane	r0, {r0, r8, r9, ip, sp}
    16c8:	000088bc 			; <UNDEFINED> instruction: 0x000088bc
    16cc:	00000a92 	muleq	r0, r2, sl
    16d0:	00000375 	andeq	r0, r0, r5, ror r3
    16d4:	02500119 	subseq	r0, r0, #1073741830	; 0x40000006
    16d8:	01190076 	tsteq	r9, r6, ror r0
    16dc:	24030551 	strcs	r0, [r3], #-1361	; 0xfffffaaf
    16e0:	19000093 	stmdbne	r0, {r0, r1, r4, r7}
    16e4:	33015201 	movwcc	r5, #4609	; 0x1201
    16e8:	88e41800 	stmiahi	r4!, {fp, ip}^
    16ec:	07420000 	strbeq	r0, [r2, -r0]
    16f0:	03a90000 			; <UNDEFINED> instruction: 0x03a90000
    16f4:	01190000 	tsteq	r9, r0
    16f8:	193a0150 	ldmdbne	sl!, {r4, r6, r8}
    16fc:	91035101 	tstls	r3, r1, lsl #2
    1700:	01197dd0 			; <UNDEFINED> instruction: 0x01197dd0
    1704:	80080252 	andhi	r0, r8, r2, asr r2
    1708:	02530119 	subseq	r0, r3, #1073741830	; 0x40000006
    170c:	02190077 	andseq	r0, r9, #119, 0	; 0x77
    1710:	7502007d 	strvc	r0, [r2, #-125]	; 0xffffff83
    1714:	7d021900 	vstrvc.16	s2, [r2, #-0]	; <UNPREDICTABLE>
    1718:	00760204 	rsbseq	r0, r6, r4, lsl #4
    171c:	89041800 	stmdbhi	r4, {fp, ip}
    1720:	07420000 	strbeq	r0, [r2, -r0]
    1724:	03dd0000 	bicseq	r0, sp, #0, 0
    1728:	01190000 	tsteq	r9, r0
    172c:	193a0150 	ldmdbne	sl!, {r4, r6, r8}
    1730:	91035101 	tstls	r3, r1, lsl #2
    1734:	01197ed0 			; <UNDEFINED> instruction: 0x01197ed0
    1738:	80080252 	andhi	r0, r8, r2, asr r2
    173c:	02530119 	subseq	r0, r3, #1073741830	; 0x40000006
    1740:	0219007a 	andseq	r0, r9, #122, 0	; 0x7a
    1744:	7502007d 	strvc	r0, [r2, #-125]	; 0xffffff83
    1748:	7d021900 	vstrvc.16	s2, [r2, #-0]	; <UNPREDICTABLE>
    174c:	00760204 	rsbseq	r0, r6, r4, lsl #4
    1750:	89101800 	ldmdbhi	r0, {fp, ip}
    1754:	0aaa0000 	beq	fea8175c <__bss_end__+0xfea77f04>
    1758:	03fb0000 	mvnseq	r0, #0, 0
    175c:	01190000 	tsteq	r9, r0
    1760:	d0910350 	addsle	r0, r1, r0, asr r3
    1764:	5101197d 	tstpl	r1, sp, ror r9
    1768:	92e40305 	rscls	r0, r4, #335544320	; 0x14000000
    176c:	18000000 	stmdane	r0, {}	; <UNPREDICTABLE>
    1770:	00008924 	andeq	r8, r0, r4, lsr #18
    1774:	00000ab6 			; <UNDEFINED> instruction: 0x00000ab6
    1778:	00000417 	andeq	r0, r0, r7, lsl r4
    177c:	03500119 	cmpeq	r0, #1073741830	; 0x40000006
    1780:	197dd091 	ldmdbne	sp!, {r0, r4, r7, ip, lr, pc}^
    1784:	91035101 	tstls	r3, r1, lsl #2
    1788:	18007ed0 	stmdane	r0, {r4, r6, r7, r9, sl, fp, ip, sp, lr}
    178c:	00008948 	andeq	r8, r0, r8, asr #18
    1790:	00000a9e 	muleq	r0, lr, sl
    1794:	00000450 	andeq	r0, r0, r0, asr r4
    1798:	05500119 	ldrbeq	r0, [r0, #-281]	; 0xfffffee7
    179c:	0092d003 	addseq	sp, r2, r3
    17a0:	51011900 	tstpl	r1, r0, lsl #18
    17a4:	92bc0305 	adcsls	r0, ip, #335544320	; 0x14000000
    17a8:	01190000 	tsteq	r9, r0
    17ac:	2c030552 	cfstr32cs	mvfx0, [r3], {82}	; 0x52
    17b0:	19000094 	stmdbne	r0, {r2, r4, r7}
    17b4:	08025301 	stmdaeq	r2, {r0, r8, r9, ip, lr}
    17b8:	7d02199f 	vstrvc.16	s2, [r2, #-318]	; 0xfffffec2	; <UNPREDICTABLE>
    17bc:	38030500 	stmdacc	r3, {r8, sl}
    17c0:	00000093 	muleq	r0, r3, r0
    17c4:	00894c1a 	addeq	r4, r9, sl, lsl ip
    17c8:	000ac200 	andeq	ip, sl, r0, lsl #4
    17cc:	896c1800 	stmdbhi	ip!, {fp, ip}^
    17d0:	07420000 	strbeq	r0, [r2, -r0]
    17d4:	048d0000 	streq	r0, [sp], #0
    17d8:	01190000 	tsteq	r9, r0
    17dc:	19400150 	stmdbne	r0, {r4, r6, r8}^
    17e0:	91035101 	tstls	r3, r1, lsl #2
    17e4:	01197dd0 			; <UNDEFINED> instruction: 0x01197dd0
    17e8:	80080252 	andhi	r0, r8, r2, asr r2
    17ec:	02530119 	subseq	r0, r3, #1073741830	; 0x40000006
    17f0:	02190077 	andseq	r0, r9, #119, 0	; 0x77
    17f4:	7502007d 	strvc	r0, [r2, #-125]	; 0xffffff83
    17f8:	7d021900 	vstrvc.16	s2, [r2, #-0]	; <UNPREDICTABLE>
    17fc:	00760204 	rsbseq	r0, r6, r4, lsl #4
    1800:	898c1800 	stmibhi	ip, {fp, ip}
    1804:	07420000 	strbeq	r0, [r2, -r0]
    1808:	04c10000 	strbeq	r0, [r1], #0
    180c:	01190000 	tsteq	r9, r0
    1810:	19400150 	stmdbne	r0, {r4, r6, r8}^
    1814:	91035101 	tstls	r3, r1, lsl #2
    1818:	01197ed0 			; <UNDEFINED> instruction: 0x01197ed0
    181c:	80080252 	andhi	r0, r8, r2, asr r2
    1820:	02530119 	subseq	r0, r3, #1073741830	; 0x40000006
    1824:	0219007a 	andseq	r0, r9, #122, 0	; 0x7a
    1828:	7502007d 	strvc	r0, [r2, #-125]	; 0xffffff83
    182c:	7d021900 	vstrvc.16	s2, [r2, #-0]	; <UNPREDICTABLE>
    1830:	00760204 	rsbseq	r0, r6, r4, lsl #4
    1834:	89981800 	ldmibhi	r8, {fp, ip}
    1838:	0ace0000 	beq	ff381840 <__bss_end__+0xff377fe8>
    183c:	04dd0000 	ldrbeq	r0, [sp], #0
    1840:	01190000 	tsteq	r9, r0
    1844:	d0910350 	addsle	r0, r1, r0, asr r3
    1848:	5101197d 	tstpl	r1, sp, ror r9
    184c:	7ed29103 	atnvcs	f1, f3
    1850:	89ac1800 	stmibhi	ip!, {fp, ip}
    1854:	0ace0000 	beq	ff38185c <__bss_end__+0xff378004>
    1858:	04f90000 	ldrbteq	r0, [r9], #0
    185c:	01190000 	tsteq	r9, r0
    1860:	d0910350 	addsle	r0, r1, r0, asr r3
    1864:	5101197d 	tstpl	r1, sp, ror r9
    1868:	7ed09103 	atnvcs	f1, f3
    186c:	89cc1800 	stmibhi	ip, {fp, ip}^
    1870:	0a9e0000 	beq	fe781878 <__bss_end__+0xfe778020>
    1874:	052f0000 	streq	r0, [pc, #-0]!	; 187c <__code_start__-0x6784>
    1878:	01190000 	tsteq	r9, r0
    187c:	74030550 	strvc	r0, [r3], #-1360	; 0xfffffab0
    1880:	19000093 	stmdbne	r0, {r0, r1, r4, r7}
    1884:	03055101 	movweq	r5, #20737	; 0x5101
    1888:	000092bc 			; <UNDEFINED> instruction: 0x000092bc
    188c:	05520119 	ldrbeq	r0, [r2, #-281]	; 0xfffffee7
    1890:	00942c03 	addseq	r2, r4, r3, lsl #24
    1894:	53011900 	movwpl	r1, #6400	; 0x1900
    1898:	19b60802 	ldmibne	r6!, {r1, fp}
    189c:	02007d02 	andeq	r7, r0, #128	; 0x80
    18a0:	1a000076 	bne	1a80 <__code_start__-0x6580>
    18a4:	000089d0 	ldrdeq	r8, [r0], -r0
    18a8:	00000ac2 	andeq	r0, r0, r2, asr #21
    18ac:	877c1800 	ldrbhi	r1, [ip, -r0, lsl #16]!
    18b0:	09c00000 	stmibeq	r0, {}^	; <UNPREDICTABLE>
    18b4:	054d0000 	strbeq	r0, [sp, #-0]
    18b8:	01190000 	tsteq	r9, r0
    18bc:	00770250 	rsbseq	r0, r7, r0, asr r2
    18c0:	88281800 	stmdahi	r8!, {fp, ip}
    18c4:	0a9e0000 	beq	fe7818cc <__bss_end__+0xfe778074>
    18c8:	05860000 	streq	r0, [r6]
    18cc:	01190000 	tsteq	r9, r0
    18d0:	d0030550 	andle	r0, r3, r0, asr r5
    18d4:	19000092 	stmdbne	r0, {r1, r4, r7}
    18d8:	03055101 	movweq	r5, #20737	; 0x5101
    18dc:	000092bc 			; <UNDEFINED> instruction: 0x000092bc
    18e0:	05520119 	ldrbeq	r0, [r2, #-281]	; 0xfffffee7
    18e4:	00942c03 	addseq	r2, r4, r3, lsl #24
    18e8:	53011900 	movwpl	r1, #6400	; 0x1900
    18ec:	19980802 	ldmibne	r8, {r1, fp}
    18f0:	05007d02 	streq	r7, [r0, #-3330]	; 0xfffff2fe
    18f4:	00931403 	addseq	r1, r3, r3, lsl #8
    18f8:	2c1a0000 	ldccs	0, cr0, [sl], {-0}
    18fc:	c2000088 	andgt	r0, r0, #136, 0	; 0x88
    1900:	1800000a 	stmdane	r0, {r1, r3}
    1904:	000089e4 	andeq	r8, r0, r4, ror #19
    1908:	00000a9e 	muleq	r0, lr, sl
    190c:	000005be 			; <UNDEFINED> instruction: 0x000005be
    1910:	05500119 	ldrbeq	r0, [r0, #-281]	; 0xfffffee7
    1914:	00939c03 	addseq	r9, r3, r3, lsl #24
    1918:	51011900 	tstpl	r1, r0, lsl #18
    191c:	92bc0305 	adcsls	r0, ip, #335544320	; 0x14000000
    1920:	01190000 	tsteq	r9, r0
    1924:	2c030552 	cfstr32cs	mvfx0, [r3], {82}	; 0x52
    1928:	19000094 	stmdbne	r0, {r2, r4, r7}
    192c:	08025301 	stmdaeq	r2, {r0, r8, r9, ip, lr}
    1930:	e81a00be 	ldmda	sl, {r1, r2, r3, r4, r5, r7}
    1934:	c2000089 	andgt	r0, r0, #137, 0	; 0x89
    1938:	1800000a 	stmdane	r0, {r1, r3}
    193c:	00008a14 	andeq	r8, r0, r4, lsl sl
    1940:	00000742 	andeq	r0, r0, r2, asr #14
    1944:	000005f4 	strdeq	r0, [r0], -r4
    1948:	01500119 	cmpeq	r0, r9, lsl r1
    194c:	5101193a 	tstpl	r1, sl, lsr r9
    1950:	7dd09103 	ldfvcp	f1, [r0, #12]
    1954:	02520119 	subseq	r0, r2, #1073741830	; 0x40000006
    1958:	02198008 	andseq	r8, r9, #8, 0
    195c:	7502007d 	strvc	r0, [r2, #-125]	; 0xffffff83
    1960:	7d021900 	vstrvc.16	s2, [r2, #-0]	; <UNPREDICTABLE>
    1964:	00310104 	eorseq	r0, r1, r4, lsl #2
    1968:	008a4c18 	addeq	r4, sl, r8, lsl ip
    196c:	00074200 	andeq	r4, r7, r0, lsl #4
    1970:	00062100 	andeq	r2, r6, r0, lsl #2
    1974:	50011900 	andpl	r1, r1, r0, lsl #18
    1978:	01193a01 	tsteq	r9, r1, lsl #20
    197c:	d0910351 	addsle	r0, r1, r1, asr r3
    1980:	5201197d 	andpl	r1, r1, #2048000	; 0x1f4000
    1984:	19800802 	stmibne	r0, {r1, fp}
    1988:	02007d02 	andeq	r7, r0, #128	; 0x80
    198c:	02190075 	andseq	r0, r9, #117, 0	; 0x75
    1990:	3001047d 	andcc	r0, r1, sp, ror r4
    1994:	8a801800 	bhi	fe00799c <__bss_end__+0xfdffe144>
    1998:	07420000 	strbeq	r0, [r2, -r0]
    199c:	064e0000 	strbeq	r0, [lr], -r0
    19a0:	01190000 	tsteq	r9, r0
    19a4:	19400150 	stmdbne	r0, {r4, r6, r8}^
    19a8:	91035101 	tstls	r3, r1, lsl #2
    19ac:	01197dd0 			; <UNDEFINED> instruction: 0x01197dd0
    19b0:	80080252 	andhi	r0, r8, r2, asr r2
    19b4:	007d0219 	rsbseq	r0, sp, r9, lsl r2
    19b8:	19007502 	stmdbne	r0, {r1, r8, sl, ip, sp, lr}
    19bc:	01047d02 	tsteq	r4, r2, lsl #26
    19c0:	b4180030 	ldrlt	r0, [r8], #-48	; 0xffffffd0
    19c4:	4200008a 	andmi	r0, r0, #138, 0	; 0x8a
    19c8:	7b000007 	blvc	19ec <__code_start__-0x6614>
    19cc:	19000006 	stmdbne	r0, {r1, r2}
    19d0:	32015001 	andcc	r5, r1, #1, 0
    19d4:	03510119 	cmpeq	r1, #1073741830	; 0x40000006
    19d8:	197dd091 	ldmdbne	sp!, {r0, r4, r7, ip, lr, pc}^
    19dc:	08025201 	stmdaeq	r2, {r0, r9, ip, lr}
    19e0:	7d021980 	vstrvc.16	s2, [r2, #-256]	; 0xffffff00	; <UNPREDICTABLE>
    19e4:	00750200 	rsbseq	r0, r5, r0, lsl #4
    19e8:	047d0219 	ldrbteq	r0, [sp], #-537	; 0xfffffde7
    19ec:	18003001 	stmdane	r0, {r0, ip, sp}
    19f0:	00008afc 	strdeq	r8, [r0], -ip
    19f4:	00000742 	andeq	r0, r0, r2, asr #14
    19f8:	000006a8 	andeq	r0, r0, r8, lsr #13
    19fc:	01500119 	cmpeq	r0, r9, lsl r1
    1a00:	51011938 	tstpl	r1, r8, lsr r9
    1a04:	7dd09103 	ldfvcp	f1, [r0, #12]
    1a08:	02520119 	subseq	r0, r2, #1073741830	; 0x40000006
    1a0c:	02198008 	andseq	r8, r9, #8, 0
    1a10:	7502007d 	strvc	r0, [r2, #-125]	; 0xffffff83
    1a14:	7d021900 	vstrvc.16	s2, [r2, #-0]	; <UNPREDICTABLE>
    1a18:	00300104 	eorseq	r0, r0, r4, lsl #2
    1a1c:	008b1c18 	addeq	r1, fp, r8, lsl ip
    1a20:	000a9e00 	andeq	r9, sl, r0, lsl #28
    1a24:	0006cb00 	andeq	ip, r6, r0, lsl #22
    1a28:	50011900 	andpl	r1, r1, r0, lsl #18
    1a2c:	93c40305 	bicls	r0, r4, #335544320	; 0x14000000
    1a30:	01190000 	tsteq	r9, r0
    1a34:	007a0251 	rsbseq	r0, sl, r1, asr r2
    1a38:	02520119 	subseq	r0, r2, #1073741830	; 0x40000006
    1a3c:	1b00007a 	blne	1c2c <__code_start__-0x63d4>
    1a40:	00008b2c 	andeq	r8, r0, ip, lsr #22
    1a44:	000006dd 	ldrdeq	r0, [r0], -sp
    1a48:	04500119 	ldrbeq	r0, [r0], #-281	; 0xfffffee7
    1a4c:	067dc891 			; <UNDEFINED> instruction: 0x067dc891
    1a50:	8b401800 	blhi	1007a58 <__bss_end__+0xffe200>
    1a54:	0a9e0000 	beq	fe781a5c <__bss_end__+0xfe778204>
    1a58:	070c0000 	streq	r0, [ip, -r0]
    1a5c:	01190000 	tsteq	r9, r0
    1a60:	f4030550 	vst3.16	{d0,d2,d4}, [r3 :64], r0
    1a64:	19000093 	stmdbne	r0, {r0, r1, r4, r7}
    1a68:	03055101 	movweq	r5, #20737	; 0x5101
    1a6c:	000092bc 			; <UNDEFINED> instruction: 0x000092bc
    1a70:	05520119 	ldrbeq	r0, [r2, #-281]	; 0xfffffee7
    1a74:	00942c03 	addseq	r2, r4, r3, lsl #24
    1a78:	53011900 	movwpl	r1, #6400	; 0x1900
    1a7c:	00e20802 	rsceq	r0, r2, r2, lsl #16
    1a80:	008b441a 	addeq	r4, fp, sl, lsl r4
    1a84:	000ac200 	andeq	ip, sl, r0, lsl #4
    1a88:	08000000 	stmdaeq	r0, {}	; <UNPREDICTABLE>
    1a8c:	0000b904 	andeq	fp, r0, r4, lsl #18
    1a90:	00c01c00 	sbceq	r1, r0, r0, lsl #24
    1a94:	072d0000 	streq	r0, [sp, -r0]!
    1a98:	2c1d0000 	ldccs	0, cr0, [sp], {-0}
    1a9c:	09000000 	stmdbeq	r0, {}	; <UNPREDICTABLE>
    1aa0:	071d0900 	ldreq	r0, [sp, -r0, lsl #18]
    1aa4:	b91c0000 	ldmdblt	ip, {}	; <UNPREDICTABLE>
    1aa8:	42000000 	andmi	r0, r0, #0, 0
    1aac:	1d000007 	stcne	0, cr0, [r0, #-28]	; 0xffffffe4
    1ab0:	0000002c 	andeq	r0, r0, ip, lsr #32
    1ab4:	541e007f 	ldrpl	r0, [lr], #-127	; 0xffffff81
    1ab8:	01000003 	tsteq	r0, r3
    1abc:	07170149 	ldreq	r0, [r7, -r9, asr #2]
    1ac0:	84e40000 	strbthi	r0, [r4], #0
    1ac4:	01b40000 			; <UNDEFINED> instruction: 0x01b40000
    1ac8:	9c010000 	stcls	0, cr0, [r1], {-0}
    1acc:	000008ab 	andeq	r0, r0, fp, lsr #17
    1ad0:	0003991f 	andeq	r9, r3, pc, lsl r9
    1ad4:	0f490100 	svceq	0x00490100
    1ad8:	0000002c 	andeq	r0, r0, ip, lsr #32
    1adc:	00000c73 	andeq	r0, r0, r3, ror ip
    1ae0:	00000c6d 	andeq	r0, r0, sp, ror #24
    1ae4:	7473640e 	ldrbtvc	r6, [r3], #-1038	; 0xfffffbf2
    1ae8:	1b490100 	blne	1241ef0 <__bss_end__+0x1238698>
    1aec:	00000717 	andeq	r0, r0, r7, lsl r7
    1af0:	00000cb1 			; <UNDEFINED> instruction: 0x00000cb1
    1af4:	00000ca1 	andeq	r0, r0, r1, lsr #25
    1af8:	01006e0e 	tsteq	r0, lr, lsl #28
    1afc:	00252449 	eoreq	r2, r5, r9, asr #8
    1b00:	0d150000 	ldceq	0, cr0, [r5, #-0]
    1b04:	0d110000 	ldceq	0, cr0, [r1, #-0]
    1b08:	760e0000 	strvc	r0, [lr], -r0
    1b0c:	01006c61 	tsteq	r0, r1, ror #24
    1b10:	00252b49 	eoreq	r2, r5, r9, asr #22
    1b14:	0d3f0000 	ldceq	0, cr0, [pc, #-0]	; 1b1c <__code_start__-0x64e4>
    1b18:	0d330000 	ldceq	0, cr0, [r3, #-0]
    1b1c:	ce1f0000 	cdpgt	0, 1, cr0, cr15, cr0, {0}
    1b20:	01000002 	tsteq	r0, r2
    1b24:	00253449 	eoreq	r3, r5, r9, asr #8
    1b28:	0d950000 	ldceq	0, cr0, [r5]
    1b2c:	0d8f0000 	stceq	0, cr0, [pc]	; 1b34 <__code_start__-0x64cc>
    1b30:	9e0f0000 	cdpls	0, 0, cr0, cr15, cr0, {0}
    1b34:	01000003 	tsteq	r0, r3
    1b38:	00253f49 	eoreq	r3, r5, r9, asr #30
    1b3c:	91020000 	mrsls	r0, (UNDEF: 2)
    1b40:	75621404 	strbvc	r1, [r2, #-1028]!	; 0xfffffbfc
    1b44:	4e010066 	cdpmi	0, 0, cr0, cr1, cr6, {3}
    1b48:	0008ab07 	andeq	sl, r8, r7, lsl #22
    1b4c:	a8910300 	ldmge	r1, {r8, r9}
    1b50:	0070107f 	rsbseq	r1, r0, pc, ror r0
    1b54:	17114e01 	ldrne	r4, [r1, -r1, lsl #28]
    1b58:	df000007 	svcle	0x00000007
    1b5c:	bf00000d 	svclt	0x0000000d
    1b60:	1000000d 	andne	r0, r0, sp
    1b64:	4f010075 	svcmi	0x00010075
    1b68:	00002c0b 	andeq	r2, r0, fp, lsl #24
    1b6c:	000ec500 	andeq	ip, lr, r0, lsl #10
    1b70:	000eb100 	andeq	fp, lr, r0, lsl #2
    1b74:	02d41200 	sbcseq	r1, r4, #0, 4
    1b78:	08cb0000 	stmiaeq	fp, {}^	; <UNPREDICTABLE>
    1b7c:	03050000 	movweq	r0, #20480	; 0x5000
    1b80:	00009414 	andeq	r9, r0, r4, lsl r4
    1b84:	00855016 	addeq	r5, r5, r6, lsl r0
    1b88:	00007800 	andeq	r7, r0, r0, lsl #16
    1b8c:	00083200 	andeq	r3, r8, r0, lsl #4
    1b90:	03411100 	movteq	r1, #4352	; 0x1100
    1b94:	54010000 	strpl	r0, [r1], #-0
    1b98:	00002c0d 	andeq	r2, r0, sp, lsl #24
    1b9c:	000f4600 	andeq	r4, pc, r0, lsl #12
    1ba0:	000f3e00 	andeq	r3, pc, r0, lsl #28
    1ba4:	08180000 	ldmdaeq	r8, {}	; <UNPREDICTABLE>
    1ba8:	5d000086 	stcpl	0, cr0, [r0, #-536]	; 0xfffffde8
    1bac:	47000009 	strmi	r0, [r0, -r9]
    1bb0:	19000008 	stmdbne	r0, {r3}
    1bb4:	91035101 	tstls	r3, r1, lsl #2
    1bb8:	18007fa0 	stmdane	r0, {r5, r7, r8, r9, sl, fp, ip, sp, lr}
    1bbc:	0000861c 	andeq	r8, r0, ip, lsl r6
    1bc0:	000008d0 	ldrdeq	r0, [r0], -r0	; <UNPREDICTABLE>
    1bc4:	00000868 	andeq	r0, r0, r8, ror #16
    1bc8:	02500119 	subseq	r0, r0, #1073741830	; 0x40000006
    1bcc:	01190075 	tsteq	r9, r5, ror r0
    1bd0:	00740251 	rsbseq	r0, r4, r1, asr r2
    1bd4:	03530119 	cmpeq	r3, #1073741830	; 0x40000006
    1bd8:	007fa091 			; <UNDEFINED> instruction: 0x007fa091
    1bdc:	00867418 	addeq	r7, r6, r8, lsl r4
    1be0:	000a9e00 	andeq	r9, sl, r0, lsl #28
    1be4:	0008a100 	andeq	sl, r8, r0, lsl #2
    1be8:	50011900 	andpl	r1, r1, r0, lsl #18
    1bec:	92d00305 	sbcsls	r0, r0, #335544320	; 0x14000000
    1bf0:	01190000 	tsteq	r9, r0
    1bf4:	bc030551 	cfstr32lt	mvfx0, [r3], {81}	; 0x51
    1bf8:	19000092 	stmdbne	r0, {r1, r4, r7}
    1bfc:	03055201 	movweq	r5, #20993	; 0x5201
    1c00:	00009414 	andeq	r9, r0, r4, lsl r4
    1c04:	02530119 	subseq	r0, r3, #1073741830	; 0x40000006
    1c08:	02197908 	andseq	r7, r9, #8, 18	; 0x20000
    1c0c:	0305007d 	movweq	r0, #20605	; 0x507d
    1c10:	000092e4 	andeq	r9, r0, r4, ror #5
    1c14:	86781a00 	ldrbthi	r1, [r8], -r0, lsl #20
    1c18:	0ac20000 	beq	ff081c20 <__bss_end__+0xff0783c8>
    1c1c:	1c000000 	stcne	0, cr0, [r0], {-0}
    1c20:	000000b9 	strheq	r0, [r0], -r9
    1c24:	000008bb 			; <UNDEFINED> instruction: 0x000008bb
    1c28:	00002c1d 	andeq	r2, r0, sp, lsl ip
    1c2c:	1c003f00 	stcne	15, cr3, [r0], {-0}
    1c30:	000000c0 	andeq	r0, r0, r0, asr #1
    1c34:	000008cb 	andeq	r0, r0, fp, asr #17
    1c38:	00002c1d 	andeq	r2, r0, sp, lsl ip
    1c3c:	09000400 	stmdbeq	r0, {sl}
    1c40:	000008bb 			; <UNDEFINED> instruction: 0x000008bb
    1c44:	0003611e 	andeq	r6, r3, lr, lsl r1
    1c48:	0e380100 	rsfeqe	f0, f0, f0
    1c4c:	00000717 	andeq	r0, r0, r7, lsl r7
    1c50:	000084ac 	andeq	r8, r0, ip, lsr #9
    1c54:	00000038 	andeq	r0, r0, r8, lsr r0
    1c58:	095d9c01 	ldmdbeq	sp, {r0, sl, fp, ip, pc}^
    1c5c:	640e0000 	strvs	r0, [lr], #-0
    1c60:	01007473 	tsteq	r0, r3, ror r4
    1c64:	07171c38 			; <UNDEFINED> instruction: 0x07171c38
    1c68:	0f870000 	svceq	0x00870000
    1c6c:	0f7d0000 	svceq	0x007d0000
    1c70:	6e0e0000 	cdpvs	0, 0, cr0, cr14, cr0, {0}
    1c74:	25380100 	ldrcs	r0, [r8, #-256]!	; 0xffffff00
    1c78:	00000025 	andeq	r0, r0, r5, lsr #32
    1c7c:	00000fce 	andeq	r0, r0, lr, asr #31
    1c80:	00000fca 	andeq	r0, r0, sl, asr #31
    1c84:	0100700e 	tsteq	r0, lr
    1c88:	07172e38 			; <UNDEFINED> instruction: 0x07172e38
    1c8c:	0ff70000 	svceq	0x00f70000
    1c90:	0fef0000 	svceq	0x00ef0000
    1c94:	2d1f0000 	ldccs	0, cr0, [pc, #-0]	; 1c9c <__code_start__-0x6364>
    1c98:	01000003 	tsteq	r0, r3
    1c9c:	07173738 			; <UNDEFINED> instruction: 0x07173738
    1ca0:	10310000 	eorsne	r0, r1, r0
    1ca4:	102d0000 	eorne	r0, sp, r0
    1ca8:	6c100000 	ldcvs	0, cr0, [r0], {-0}
    1cac:	01006e65 	tsteq	r0, r5, ror #28
    1cb0:	0025063a 	eoreq	r0, r5, sl, lsr r6
    1cb4:	10570000 	subsne	r0, r7, r0
    1cb8:	104f0000 	subne	r0, pc, r0
    1cbc:	73100000 	tstvc	r0, #0, 0
    1cc0:	083e0100 	ldmdaeq	lr!, {r8}
    1cc4:	00000717 	andeq	r0, r0, r7, lsl r7
    1cc8:	000010a5 	andeq	r1, r0, r5, lsr #1
    1ccc:	000010a3 	andeq	r1, r0, r3, lsr #1
    1cd0:	61702000 	cmnvs	r0, r0
    1cd4:	2e010064 	cdpcs	0, 0, cr0, cr1, cr4, {3}
    1cd8:	0007170e 	andeq	r1, r7, lr, lsl #14
    1cdc:	00848800 	addeq	r8, r4, r0, lsl #16
    1ce0:	00002400 	andeq	r2, r0, r0, lsl #8
    1ce4:	c09c0100 	addsgt	r0, ip, r0, lsl #2
    1ce8:	0e000009 	cdpeq	0, 0, cr0, cr0, cr9, {0}
    1cec:	2e010070 	mcrcs	0, 0, r0, cr1, cr0, {3}
    1cf0:	00071718 	andeq	r1, r7, r8, lsl r7
    1cf4:	0010be00 	andseq	fp, r0, r0, lsl #28
    1cf8:	0010b800 	andseq	fp, r0, r0, lsl #16
    1cfc:	03991f00 	orrseq	r1, r9, #0, 30
    1d00:	2e010000 	cdpcs	0, 0, cr0, cr1, cr0, {0}
    1d04:	00071722 	andeq	r1, r7, r2, lsr #14
    1d08:	0010ed00 	andseq	lr, r0, r0, lsl #26
    1d0c:	0010e900 	andseq	lr, r0, r0, lsl #18
    1d10:	02ce0f00 	sbceq	r0, lr, #0, 30
    1d14:	2e010000 	cdpcs	0, 0, cr0, cr1, cr0, {0}
    1d18:	0000252c 	andeq	r2, r0, ip, lsr #10
    1d1c:	10520100 	subsne	r0, r2, r0, lsl #2
    1d20:	006e656c 	rsbeq	r6, lr, ip, ror #10
    1d24:	25062f01 	strcs	r2, [r6, #-3841]	; 0xfffff0ff
    1d28:	10000000 	andne	r0, r0, r0
    1d2c:	0e000011 	mcreq	0, 0, r0, cr0, cr1, {0}
    1d30:	00000011 	andeq	r0, r0, r1, lsl r0
    1d34:	00028d1e 	andeq	r8, r2, lr, lsl sp
    1d38:	0c270100 	stfeqs	f0, [r7], #-0
    1d3c:	00000025 	andeq	r0, r0, r5, lsr #32
    1d40:	00008474 	andeq	r8, r0, r4, ror r4
    1d44:	00000014 	andeq	r0, r0, r4, lsl r0
    1d48:	09ed9c01 	stmibeq	sp!, {r0, sl, fp, ip, pc}^
    1d4c:	630e0000 	movwvs	r0, #57344	; 0xe000
    1d50:	18270100 	stmdane	r7!, {r8}
    1d54:	00000025 	andeq	r0, r0, r5, lsr #32
    1d58:	00001129 	andeq	r1, r0, r9, lsr #2
    1d5c:	00001123 	andeq	r1, r0, r3, lsr #2
    1d60:	031a2100 	tsteq	sl, #0
    1d64:	1f010000 	svcne	0x00010000
    1d68:	00869806 	addeq	r9, r6, r6, lsl #16
    1d6c:	00006400 	andeq	r6, r0, r0, lsl #8
    1d70:	7d9c0100 	ldfvcs	f0, [ip]
    1d74:	1f00000a 	svcne	0x0000000a
    1d78:	000002ee 	andeq	r0, r0, lr, ror #5
    1d7c:	9e1b1f01 	cdpls	15, 1, cr1, cr11, cr1, {0}
    1d80:	5b000000 	blpl	1d88 <__code_start__-0x6278>
    1d84:	57000011 	smladpl	r0, r1, r0, r0
    1d88:	1f000011 	svcne	0x00000011
    1d8c:	00000359 	andeq	r0, r0, r9, asr r3
    1d90:	d1301f01 	teqle	r0, r1, lsl #30
    1d94:	80000000 	andhi	r0, r0, r0
    1d98:	7c000011 	stcvc	0, cr0, [r0], {17}
    1d9c:	12000011 	andne	r0, r0, #17, 0
    1da0:	000002d4 	ldrdeq	r0, [r0], -r4
    1da4:	00000a8d 	andeq	r0, r0, sp, lsl #21
    1da8:	941c0305 	ldrls	r0, [ip], #-773	; 0xfffffcfb
    1dac:	e0180000 	ands	r0, r8, r0
    1db0:	9e000086 	cdpls	0, 0, cr0, cr0, cr6, {4}
    1db4:	7300000a 	movwvc	r0, #10
    1db8:	1900000a 	stmdbne	r0, {r1, r3}
    1dbc:	03055001 	movweq	r5, #20481	; 0x5001
    1dc0:	000092d0 	ldrdeq	r9, [r0], -r0
    1dc4:	05510119 	ldrbeq	r0, [r1, #-281]	; 0xfffffee7
    1dc8:	0092bc03 	addseq	fp, r2, r3, lsl #24
    1dcc:	52011900 	andpl	r1, r1, #0, 18
    1dd0:	941c0305 	ldrls	r0, [ip], #-773	; 0xfffffcfb
    1dd4:	01190000 	tsteq	r9, r0
    1dd8:	20080253 	andcs	r0, r8, r3, asr r2
    1ddc:	007d0219 	rsbseq	r0, sp, r9, lsl r2
    1de0:	930c0305 	movwls	r0, #49925	; 0xc305
    1de4:	1a000000 	bne	1dec <__code_start__-0x6214>
    1de8:	000086e4 	andeq	r8, r0, r4, ror #13
    1dec:	00000ac2 	andeq	r0, r0, r2, asr #21
    1df0:	00c01c00 	sbceq	r1, r0, r0, lsl #24
    1df4:	0a8d0000 	beq	fe341dfc <__bss_end__+0xfe3385a4>
    1df8:	2c1d0000 	ldccs	0, cr0, [sp], {-0}
    1dfc:	0e000000 	cdpeq	0, 0, cr0, cr0, cr0, {0}
    1e00:	0a7d0900 	beq	1f44208 <__bss_end__+0x1f3a9b0>
    1e04:	91220000 			; <UNDEFINED> instruction: 0x91220000
    1e08:	91000003 	tstls	r0, r3
    1e0c:	03000003 	movweq	r0, #3
    1e10:	1a2205eb 	bne	8835c4 <__bss_end__+0x879d6c>
    1e14:	1a000002 	bne	1e24 <__code_start__-0x61dc>
    1e18:	03000002 	movweq	r0, #2
    1e1c:	69220628 	stmdbvs	r2!, {r3, r5, r9, sl}
    1e20:	69000003 	stmdbvs	r0, {r0, r1}
    1e24:	03000003 	movweq	r0, #3
    1e28:	3a2205ea 	bcc	8835d8 <__bss_end__+0x879d80>
    1e2c:	3a000003 	bcc	1e40 <__code_start__-0x61c0>
    1e30:	03000003 	movweq	r0, #3
    1e34:	6c2207ed 	stcvs	7, cr0, [r2], #-948	; 0xfffffc4c
    1e38:	6c000000 	stcvs	0, cr0, [r0], {-0}
    1e3c:	03000000 	movweq	r0, #0
    1e40:	3322066e 			; <UNDEFINED> instruction: 0x3322066e
    1e44:	33000003 	movwcc	r0, #3
    1e48:	03000003 	movweq	r0, #3
    1e4c:	0a0007ee 	beq	3e0c <__code_start__-0x41f4>
    1e50:	04000001 	streq	r0, [r0], #-1
    1e54:	00064d00 	andeq	r4, r6, r0, lsl #26
    1e58:	00010400 	andeq	r0, r1, r0, lsl #8
    1e5c:	0c000001 	stceq	0, cr0, [r0], {1}
    1e60:	000003b5 			; <UNDEFINED> instruction: 0x000003b5
    1e64:	0000024f 	andeq	r0, r0, pc, asr #4
	...
    1e70:	00000b65 	andeq	r0, r0, r5, ror #22
    1e74:	69050402 	stmdbvs	r5, {r1, sl}
    1e78:	0300746e 	movweq	r7, #1134	; 0x46e
    1e7c:	00b80704 	adcseq	r0, r8, r4, lsl #14
    1e80:	01030000 	mrseq	r0, (UNDEF: 3)
    1e84:	00006006 	andeq	r6, r0, r6
    1e88:	05020300 	streq	r0, [r2, #-768]	; 0xfffffd00
    1e8c:	000000df 	ldrdeq	r0, [r0], -pc	; <UNPREDICTABLE>
    1e90:	ca050403 	bgt	142ea4 <__bss_end__+0x13964c>
    1e94:	03000000 	movweq	r0, #0
    1e98:	00c50508 	sbceq	r0, r5, r8, lsl #10
    1e9c:	01030000 	mrseq	r0, (UNDEF: 3)
    1ea0:	00005e08 	andeq	r5, r0, r8, lsl #28
    1ea4:	07020300 	streq	r0, [r2, -r0, lsl #6]
    1ea8:	00000081 	andeq	r0, r0, r1, lsl #1
    1eac:	b3070403 	movwlt	r0, #29699	; 0x7403
    1eb0:	03000000 	movweq	r0, #0
    1eb4:	00ae0708 	adceq	r0, lr, r8, lsl #14
    1eb8:	25040000 	strcs	r0, [r4, #-0]
    1ebc:	7a000000 	bvc	1ec4 <__code_start__-0x613c>
    1ec0:	05000000 	streq	r0, [r0, #-0]
    1ec4:	00000025 	andeq	r0, r0, r5, lsr #32
    1ec8:	00d30600 	sbcseq	r0, r3, r0, lsl #12
    1ecc:	1c020000 	stcne	0, cr0, [r2], {-0}
    1ed0:	0000860e 	andeq	r8, r0, lr, lsl #12
    1ed4:	6b040700 	blvs	103adc <__bss_end__+0xfa284>
    1ed8:	04000000 	streq	r0, [r0], #-0
    1edc:	00000025 	andeq	r0, r0, r5, lsr #32
    1ee0:	0000009b 	muleq	r0, fp, r0
    1ee4:	00009b05 	andeq	r9, r0, r5, lsl #22
    1ee8:	04070000 	streq	r0, [r7], #-0
    1eec:	000000a8 	andeq	r0, r0, r8, lsr #1
    1ef0:	67080103 	strvs	r0, [r8, -r3, lsl #2]
    1ef4:	08000000 	stmdaeq	r0, {}	; <UNPREDICTABLE>
    1ef8:	000000a1 	andeq	r0, r0, r1, lsr #1
    1efc:	00027a06 	andeq	r7, r2, r6, lsl #20
    1f00:	0e210200 	cdpeq	2, 2, cr0, cr1, cr0, {0}
    1f04:	000000b9 	strheq	r0, [r0], -r9
    1f08:	008c0407 	addeq	r0, ip, r7, lsl #8
    1f0c:	a7090000 	strge	r0, [r9, -r0]
    1f10:	01000003 	tsteq	r0, r3
    1f14:	8bc4060c 	blhi	ff10374c <__bss_end__+0xff0f9ef4>
    1f18:	00100000 	andseq	r0, r0, r0
    1f1c:	9c010000 	stcls	0, cr0, [r1], {-0}
    1f20:	000000e8 	andeq	r0, r0, r8, ror #1
    1f24:	0100720a 	tsteq	r0, sl, lsl #4
    1f28:	002c0e0d 	eoreq	r0, ip, sp, lsl #28
    1f2c:	11a70000 			; <UNDEFINED> instruction: 0x11a70000
    1f30:	11a10000 			; <UNDEFINED> instruction: 0x11a10000
    1f34:	0b000000 	bleq	1f3c <__code_start__-0x60c4>
    1f38:	000000e9 	andeq	r0, r0, r9, ror #1
    1f3c:	b4060301 	strlt	r0, [r6], #-769	; 0xfffffcff
    1f40:	1000008b 	andne	r0, r0, fp, lsl #1
    1f44:	01000000 	mrseq	r0, (UNDEF: 0)
    1f48:	00720a9c 			; <UNDEFINED> instruction: 0x00720a9c
    1f4c:	2c0e0401 	cfstrscs	mvf0, [lr], {1}
    1f50:	dc000000 	stcle	0, cr0, [r0], {-0}
    1f54:	d6000011 			; <UNDEFINED> instruction: 0xd6000011
    1f58:	00000011 	andeq	r0, r0, r1, lsl r0
    1f5c:	00012f00 	andeq	r2, r1, r0, lsl #30
    1f60:	f6000400 			; <UNDEFINED> instruction: 0xf6000400
    1f64:	04000006 	streq	r0, [r0], #-6
    1f68:	00010001 	andeq	r0, r1, r1
    1f6c:	03dd0c00 	bicseq	r0, sp, #0, 24
    1f70:	024f0000 	subeq	r0, pc, #0, 0
    1f74:	8bd40000 	blhi	ff501f7c <__bss_end__+0xff4f8724>
    1f78:	002c0000 	eoreq	r0, ip, r0
    1f7c:	0c070000 	stceq	0, cr0, [r7], {-0}
    1f80:	04020000 	streq	r0, [r2], #-0
    1f84:	746e6905 	strbtvc	r6, [lr], #-2309	; 0xfffff6fb
    1f88:	07040300 	streq	r0, [r4, -r0, lsl #6]
    1f8c:	000000b8 	strheq	r0, [r0], -r8
    1f90:	60060103 	andvs	r0, r6, r3, lsl #2
    1f94:	03000000 	movweq	r0, #0
    1f98:	00df0502 	sbcseq	r0, pc, r2, lsl #10
    1f9c:	04030000 	streq	r0, [r3], #-0
    1fa0:	0000ca05 	andeq	ip, r0, r5, lsl #20
    1fa4:	05080300 	streq	r0, [r8, #-768]	; 0xfffffd00
    1fa8:	000000c5 	andeq	r0, r0, r5, asr #1
    1fac:	5e080103 	adfple	f0, f0, f3
    1fb0:	03000000 	movweq	r0, #0
    1fb4:	00810702 	addeq	r0, r1, r2, lsl #14
    1fb8:	04030000 	streq	r0, [r3], #-0
    1fbc:	0000b307 	andeq	fp, r0, r7, lsl #6
    1fc0:	07080300 	streq	r0, [r8, -r0, lsl #6]
    1fc4:	000000ae 	andeq	r0, r0, lr, lsr #1
    1fc8:	00002504 	andeq	r2, r0, r4, lsl #10
    1fcc:	00007a00 	andeq	r7, r0, r0, lsl #20
    1fd0:	00250500 	eoreq	r0, r5, r0, lsl #10
    1fd4:	06000000 	streq	r0, [r0], -r0
    1fd8:	000000d3 	ldrdeq	r0, [r0], -r3
    1fdc:	860e1c02 	strhi	r1, [lr], -r2, lsl #24
    1fe0:	07000000 	streq	r0, [r0, -r0]
    1fe4:	00006b04 	andeq	r6, r0, r4, lsl #22
    1fe8:	00250400 	eoreq	r0, r5, r0, lsl #8
    1fec:	009b0000 	addseq	r0, fp, r0
    1ff0:	9b050000 	blls	141ff8 <__bss_end__+0x1387a0>
    1ff4:	00000000 	andeq	r0, r0, r0
    1ff8:	00a80407 	adceq	r0, r8, r7, lsl #8
    1ffc:	01030000 	mrseq	r0, (UNDEF: 3)
    2000:	00006708 	andeq	r6, r0, r8, lsl #14
    2004:	00a10800 	adceq	r0, r1, r0, lsl #16
    2008:	7a060000 	bvc	182010 <__bss_end__+0x1787b8>
    200c:	02000002 	andeq	r0, r0, #2, 0
    2010:	00b90e21 	adcseq	r0, r9, r1, lsr #28
    2014:	04070000 	streq	r0, [r7], #-0
    2018:	0000008c 	andeq	r0, r0, ip, lsl #1
    201c:	00006c09 	andeq	r6, r0, r9, lsl #24
    2020:	06040100 	streq	r0, [r4], -r0, lsl #2
    2024:	00008bd4 	ldrdeq	r8, [r0], -r4
    2028:	0000002c 	andeq	r0, r0, ip, lsr #32
    202c:	010e9c01 	tsteq	lr, r1, lsl #24
    2030:	e80a0000 	stmda	sl, {}	; <UNPREDICTABLE>
    2034:	e800008b 	stmda	r0, {r0, r1, r3, r7}
    2038:	0b000000 	bleq	2040 <__code_start__-0x5fc0>
    203c:	03055001 	movweq	r5, #20481	; 0x5001
    2040:	00009438 	andeq	r9, r0, r8, lsr r4
    2044:	8bec0c00 	blhi	ffb0504c <__bss_end__+0xffafb7f4>
    2048:	010e0000 	mrseq	r0, (UNDEF: 14)
    204c:	f40d0000 	vst4.8	{d0-d3}, [sp], r0
    2050:	1a00008b 	bne	2284 <__code_start__-0x5d7c>
    2054:	04000001 	streq	r0, [r0], #-1
    2058:	0b000001 	bleq	2064 <__code_start__-0x5f9c>
    205c:	3a015001 	bcc	56068 <__bss_end__+0x4c810>
    2060:	8bf80c00 	blhi	ffe05068 <__bss_end__+0xffdfb810>
    2064:	01260000 			; <UNDEFINED> instruction: 0x01260000
    2068:	0e000000 	cdpeq	0, 0, cr0, cr0, cr0, {0}
    206c:	000003f8 	strdeq	r0, [r0], -r8
    2070:	000003f8 	strdeq	r0, [r0], -r8
    2074:	0e064d02 	cdpeq	13, 0, cr4, cr6, cr2, {0}
    2078:	000003d4 	ldrdeq	r0, [r0], -r4
    207c:	000003d4 	ldrdeq	r0, [r0], -r4
    2080:	0e065802 	cdpeq	8, 0, cr5, cr6, cr2, {0}
    2084:	000003c9 	andeq	r0, r0, r9, asr #7
    2088:	000003c9 	andeq	r0, r0, r9, asr #7
    208c:	00066b02 	andeq	r6, r6, r2, lsl #22
    2090:	00000189 	andeq	r0, r0, r9, lsl #3
    2094:	07b60004 	ldreq	r0, [r6, r4]!
    2098:	01040000 	mrseq	r0, (UNDEF: 4)
    209c:	00000100 	andeq	r0, r0, r0, lsl #2
    20a0:	00042e0c 	andeq	r2, r4, ip, lsl #28
    20a4:	00024f00 	andeq	r4, r2, r0, lsl #30
    20a8:	008c0000 	addeq	r0, ip, r0
    20ac:	00003c00 	andeq	r3, r0, r0, lsl #24
    20b0:	000c8a00 	andeq	r8, ip, r0, lsl #20
    20b4:	05040200 	streq	r0, [r4, #-512]	; 0xfffffe00
    20b8:	00746e69 	rsbseq	r6, r4, r9, ror #28
    20bc:	b8070403 	stmdalt	r7, {r0, r1, sl}
    20c0:	03000000 	movweq	r0, #0
    20c4:	00600601 	rsbeq	r0, r0, r1, lsl #12
    20c8:	02030000 	andeq	r0, r3, #0, 0
    20cc:	0000df05 	andeq	sp, r0, r5, lsl #30
    20d0:	05040300 	streq	r0, [r4, #-768]	; 0xfffffd00
    20d4:	000000ca 	andeq	r0, r0, sl, asr #1
    20d8:	c5050803 	strgt	r0, [r5, #-2051]	; 0xfffff7fd
    20dc:	03000000 	movweq	r0, #0
    20e0:	005e0801 	subseq	r0, lr, r1, lsl #16
    20e4:	02030000 	andeq	r0, r3, #0, 0
    20e8:	00008107 	andeq	r8, r0, r7, lsl #2
    20ec:	07040300 	streq	r0, [r4, -r0, lsl #6]
    20f0:	000000b3 	strheq	r0, [r0], -r3
    20f4:	ae070803 	cdpge	8, 0, cr0, cr7, cr3, {0}
    20f8:	04000000 	streq	r0, [r0], #-0
    20fc:	00000025 	andeq	r0, r0, r5, lsr #32
    2100:	0000007a 	andeq	r0, r0, sl, ror r0
    2104:	00002505 	andeq	r2, r0, r5, lsl #10
    2108:	d3060000 	movwle	r0, #24576	; 0x6000
    210c:	02000000 	andeq	r0, r0, #0, 0
    2110:	00860e1c 	addeq	r0, r6, ip, lsl lr
    2114:	04070000 	streq	r0, [r7], #-0
    2118:	0000006b 	andeq	r0, r0, fp, rrx
    211c:	00002504 	andeq	r2, r0, r4, lsl #10
    2120:	00009b00 	andeq	r9, r0, r0, lsl #22
    2124:	009b0500 	addseq	r0, fp, r0, lsl #10
    2128:	07000000 	streq	r0, [r0, -r0]
    212c:	0000a804 	andeq	sl, r0, r4, lsl #16
    2130:	08010300 	stmdaeq	r1, {r8, r9}
    2134:	00000067 	andeq	r0, r0, r7, rrx
    2138:	0000a108 	andeq	sl, r0, r8, lsl #2
    213c:	027a0600 	rsbseq	r0, sl, #0, 12
    2140:	21020000 	mrscs	r0, (UNDEF: 2)
    2144:	0000b90e 	andeq	fp, r0, lr, lsl #18
    2148:	8c040700 	stchi	7, cr0, [r4], {-0}
    214c:	09000000 	stmdbeq	r0, {}	; <UNPREDICTABLE>
    2150:	00000406 	andeq	r0, r0, r6, lsl #8
    2154:	00060401 	andeq	r0, r6, r1, lsl #8
    2158:	3c00008c 	stccc	0, cr0, [r0], {140}	; 0x8c
    215c:	01000000 	mrseq	r0, (UNDEF: 0)
    2160:	0001549c 	muleq	r1, ip, r4
    2164:	02c00600 	sbceq	r0, r0, #0, 12
    2168:	05010000 	streq	r0, [r1, #-0]
    216c:	00002510 	andeq	r2, r0, r0, lsl r5
    2170:	02f60600 	rscseq	r0, r6, #0, 12
    2174:	05010000 	streq	r0, [r1, #-0]
    2178:	0000251f 	andeq	r2, r0, pc, lsl r5
    217c:	00560a00 	subseq	r0, r6, r0, lsl #20
    2180:	06010000 	streq	r0, [r1], -r0
    2184:	73620b07 	cmnvc	r2, #7168	; 0x1c00
    2188:	0a010073 	beq	4235c <__bss_end__+0x38b04>
    218c:	0001540a 	andeq	r5, r1, sl, lsl #8
    2190:	00121100 	andseq	r1, r2, r0, lsl #2
    2194:	00120b00 	andseq	r0, r2, r0, lsl #22
    2198:	040e0c00 	streq	r0, [lr], #-3072	; 0xfffff400
    219c:	0b010000 	bleq	421a4 <__bss_end__+0x3894c>
    21a0:	0001540a 	andeq	r5, r1, sl, lsl #8
    21a4:	8c240d00 	stchi	13, cr0, [r4], #-0
    21a8:	00080000 	andeq	r0, r8, r0
    21ac:	012f0000 			; <UNDEFINED> instruction: 0x012f0000
    21b0:	690e0000 	stmdbvs	lr, {}	; <UNPREDICTABLE>
    21b4:	1401006e 	strne	r0, [r1], #-110	; 0xffffff92
    21b8:	00002c05 	andeq	r2, r0, r5, lsl #24
    21bc:	0f000100 	svceq	0x00000100
    21c0:	00008c08 	andeq	r8, r0, r8, lsl #24
    21c4:	0000015a 	andeq	r0, r0, sl, asr r1
    21c8:	008c240f 	addeq	r2, ip, pc, lsl #8
    21cc:	00016700 	andeq	r6, r1, r0, lsl #14
    21d0:	8c300f00 	ldchi	15, cr0, [r0], #-0
    21d4:	01730000 	cmneq	r3, r0
    21d8:	340f0000 	strcc	r0, [pc], #-0	; 21e0 <__code_start__-0x5e20>
    21dc:	8000008c 	andhi	r0, r0, ip, lsl #1
    21e0:	00000001 	andeq	r0, r0, r1
    21e4:	00250407 	eoreq	r0, r5, r7, lsl #8
    21e8:	20100000 	andscs	r0, r0, r0
    21ec:	20000004 	andcs	r0, r0, r4
    21f0:	02000004 	andeq	r0, r0, #4, 0
    21f4:	11060131 	tstne	r6, r1, lsr r1
    21f8:	00000416 	andeq	r0, r0, r6, lsl r4
    21fc:	00000416 	andeq	r0, r0, r6, lsl r4
    2200:	10063b02 	andne	r3, r6, r2, lsl #22
    2204:	00000056 	andeq	r0, r0, r6, asr r0
    2208:	00000056 	andeq	r0, r0, r6, asr r0
    220c:	06010502 	streq	r0, [r1], -r2, lsl #10
    2210:	00006c11 	andeq	r6, r0, r1, lsl ip
    2214:	00006c00 	andeq	r6, r0, r0, lsl #24
    2218:	066e0200 	strbteq	r0, [lr], -r0, lsl #4
    221c:	0000ce00 	andeq	ip, r0, r0, lsl #28
    2220:	b2000400 	andlt	r0, r0, #0, 8
    2224:	04000008 	streq	r0, [r0], #-8
    2228:	00010001 	andeq	r0, r1, r1
    222c:	04430c00 	strbeq	r0, [r3], #-3072	; 0xfffff400
    2230:	024f0000 	subeq	r0, pc, #0, 0
    2234:	8c3c0000 	ldchi	0, cr0, [ip], #-0
    2238:	00040000 	andeq	r0, r4, r0
    223c:	0d270000 	stceq	0, cr0, [r7, #-0]
    2240:	04020000 	streq	r0, [r2], #-0
    2244:	746e6905 	strbtvc	r6, [lr], #-2309	; 0xfffff6fb
    2248:	07040300 	streq	r0, [r4, -r0, lsl #6]
    224c:	000000b8 	strheq	r0, [r0], -r8
    2250:	60060103 	andvs	r0, r6, r3, lsl #2
    2254:	03000000 	movweq	r0, #0
    2258:	00df0502 	sbcseq	r0, pc, r2, lsl #10
    225c:	04030000 	streq	r0, [r3], #-0
    2260:	0000ca05 	andeq	ip, r0, r5, lsl #20
    2264:	05080300 	streq	r0, [r8, #-768]	; 0xfffffd00
    2268:	000000c5 	andeq	r0, r0, r5, asr #1
    226c:	5e080103 	adfple	f0, f0, f3
    2270:	03000000 	movweq	r0, #0
    2274:	00810702 	addeq	r0, r1, r2, lsl #14
    2278:	04030000 	streq	r0, [r3], #-0
    227c:	0000b307 	andeq	fp, r0, r7, lsl #6
    2280:	07080300 	streq	r0, [r8, -r0, lsl #6]
    2284:	000000ae 	andeq	r0, r0, lr, lsr #1
    2288:	00002504 	andeq	r2, r0, r4, lsl #10
    228c:	00007a00 	andeq	r7, r0, r0, lsl #20
    2290:	00250500 	eoreq	r0, r5, r0, lsl #10
    2294:	06000000 	streq	r0, [r0], -r0
    2298:	000000d3 	ldrdeq	r0, [r0], -r3
    229c:	860e1c02 	strhi	r1, [lr], -r2, lsl #24
    22a0:	07000000 	streq	r0, [r0, -r0]
    22a4:	00006b04 	andeq	r6, r0, r4, lsl #22
    22a8:	00250400 	eoreq	r0, r5, r0, lsl #8
    22ac:	009b0000 	addseq	r0, fp, r0
    22b0:	9b050000 	blls	1422b8 <__bss_end__+0x138a60>
    22b4:	00000000 	andeq	r0, r0, r0
    22b8:	00a80407 	adceq	r0, r8, r7, lsl #8
    22bc:	01030000 	mrseq	r0, (UNDEF: 3)
    22c0:	00006708 	andeq	r6, r0, r8, lsl #14
    22c4:	00a10800 	adceq	r0, r1, r0, lsl #16
    22c8:	7a060000 	bvc	1822d0 <__bss_end__+0x178a78>
    22cc:	02000002 	andeq	r0, r0, #2, 0
    22d0:	00b90e21 	adcseq	r0, r9, r1, lsr #28
    22d4:	04070000 	streq	r0, [r7], #-0
    22d8:	0000008c 	andeq	r0, r0, ip, lsl #1
    22dc:	00042009 	andeq	r2, r4, r9
    22e0:	06040100 	streq	r0, [r4], -r0, lsl #2
    22e4:	00008c3c 	andeq	r8, r0, ip, lsr ip
    22e8:	00000004 	andeq	r0, r0, r4
    22ec:	36009c01 	strcc	r9, [r0], -r1, lsl #24
    22f0:	04000002 	streq	r0, [r0], #-2
    22f4:	00092b00 	andeq	r2, r9, r0, lsl #22
    22f8:	00010400 	andeq	r0, r1, r0, lsl #8
    22fc:	0c000001 	stceq	0, cr0, [r0], {1}
    2300:	00000485 	andeq	r0, r0, r5, lsl #9
    2304:	0000024f 	andeq	r0, r0, pc, asr #4
    2308:	00000010 	andeq	r0, r0, r0, lsl r0
    230c:	00000000 	andeq	r0, r0, r0
    2310:	00000da8 	andeq	r0, r0, r8, lsr #27
    2314:	69050402 	stmdbvs	r5, {r1, sl}
    2318:	0300746e 	movweq	r7, #1134	; 0x46e
    231c:	00000025 	andeq	r0, r0, r5, lsr #32
    2320:	b8070404 	stmdalt	r7, {r2, sl}
    2324:	04000000 	streq	r0, [r0], #-0
    2328:	00600601 	rsbeq	r0, r0, r1, lsl #12
    232c:	02040000 	andeq	r0, r4, #0, 0
    2330:	0000df05 	andeq	sp, r0, r5, lsl #30
    2334:	05040400 	streq	r0, [r4, #-1024]	; 0xfffffc00
    2338:	000000ca 	andeq	r0, r0, sl, asr #1
    233c:	c5050804 	strgt	r0, [r5, #-2052]	; 0xfffff7fc
    2340:	04000000 	streq	r0, [r0], #-0
    2344:	005e0801 	subseq	r0, lr, r1, lsl #16
    2348:	02040000 	andeq	r0, r4, #0, 0
    234c:	00008107 	andeq	r8, r0, r7, lsl #2
    2350:	07040400 	streq	r0, [r4, -r0, lsl #8]
    2354:	000000b3 	strheq	r0, [r0], -r3
    2358:	ae070804 	cdpge	8, 0, cr0, cr7, cr4, {0}
    235c:	05000000 	streq	r0, [r0, #-0]
    2360:	00000025 	andeq	r0, r0, r5, lsr #32
    2364:	0000007f 	andeq	r0, r0, pc, ror r0
    2368:	00002506 	andeq	r2, r0, r6, lsl #10
    236c:	d3070000 	movwle	r0, #28672	; 0x7000
    2370:	02000000 	andeq	r0, r0, #0, 0
    2374:	008b0e1c 	addeq	r0, fp, ip, lsl lr
    2378:	04080000 	streq	r0, [r8], #-0
    237c:	00000070 	andeq	r0, r0, r0, ror r0
    2380:	00002505 	andeq	r2, r0, r5, lsl #10
    2384:	0000a000 	andeq	sl, r0, r0
    2388:	00a00600 	adceq	r0, r0, r0, lsl #12
    238c:	08000000 	stmdaeq	r0, {}	; <UNPREDICTABLE>
    2390:	0000ad04 	andeq	sl, r0, r4, lsl #26
    2394:	08010400 	stmdaeq	r1, {sl}
    2398:	00000067 	andeq	r0, r0, r7, rrx
    239c:	0000a603 	andeq	sl, r0, r3, lsl #12
    23a0:	027a0700 	rsbseq	r0, sl, #0, 14
    23a4:	21020000 	mrscs	r0, (UNDEF: 2)
    23a8:	0000be0e 	andeq	fp, r0, lr, lsl #28
    23ac:	91040800 	tstls	r4, r0, lsl #16
    23b0:	09000000 	stmdbeq	r0, {}	; <UNPREDICTABLE>
    23b4:	000004a9 	andeq	r0, r0, r9, lsr #9
    23b8:	31110d01 	tstcc	r1, r1, lsl #26
    23bc:	0a000000 	beq	23c4 <__code_start__-0x5c3c>
    23c0:	000003c9 	andeq	r0, r0, r9, asr #7
    23c4:	6c061f01 	stcvs	15, cr1, [r6], {1}
    23c8:	5400008c 	strpl	r0, [r0], #-140	; 0xffffff74
    23cc:	01000000 	mrseq	r0, (UNDEF: 0)
    23d0:	0001ae9c 	muleq	r1, ip, lr
    23d4:	04cd0b00 	strbeq	r0, [sp], #2816	; 0xb00
    23d8:	2c010000 	stccs	0, cr0, [r1], {-0}
    23dc:	00002c0f 	andeq	r2, r0, pc, lsl #24
    23e0:	00123e00 	andseq	r3, r2, r0, lsl #28
    23e4:	00123c00 	andseq	r3, r2, r0, lsl #24
    23e8:	046e0b00 	strbteq	r0, [lr], #-2816	; 0xfffff500
    23ec:	2d010000 	stccs	0, cr0, [r1, #-0]
    23f0:	00002c0f 	andeq	r2, r0, pc, lsl #24
    23f4:	00125800 	andseq	r5, r2, r0, lsl #16
    23f8:	00125600 	andseq	r5, r2, r0, lsl #12
    23fc:	049a0b00 	ldreq	r0, [sl], #2816	; 0xb00
    2400:	2e010000 	cdpcs	0, 0, cr0, cr1, cr0, {0}
    2404:	00002c0f 	andeq	r2, r0, pc, lsl #24
    2408:	00127200 	andseq	r7, r2, r0, lsl #4
    240c:	00127000 	andseq	r7, r2, r0
    2410:	04b40b00 	ldrteq	r0, [r4], #2816	; 0xb00
    2414:	2f010000 	svccs	0x00010000
    2418:	00002c0f 	andeq	r2, r0, pc, lsl #24
    241c:	00128b00 	andseq	r8, r2, r0, lsl #22
    2420:	00128900 	andseq	r8, r2, r0, lsl #18
    2424:	8c740c00 	ldclhi	12, cr0, [r4], #-0
    2428:	01d90000 	bicseq	r0, r9, r0
    242c:	800c0000 	andhi	r0, ip, r0
    2430:	0800008c 	stmdaeq	r0, {r2, r3, r7}
    2434:	0c000002 	stceq	0, cr0, [r0], {2}
    2438:	00008c84 	andeq	r8, r0, r4, lsl #25
    243c:	00000215 	andeq	r0, r0, r5, lsl r2
    2440:	008c8c0d 	addeq	r8, ip, sp, lsl #24
    2444:	00022100 	andeq	r2, r2, r0, lsl #2
    2448:	00016400 	andeq	r6, r1, r0, lsl #8
    244c:	50010e00 	andpl	r0, r1, r0, lsl #28
    2450:	0d003a01 	vstreq	s6, [r0, #-4]
    2454:	00008c98 	muleq	r0, r8, ip
    2458:	0000022d 	andeq	r0, r0, sp, lsr #4
    245c:	00000184 	andeq	r0, r0, r4, lsl #3
    2460:	0550010e 	ldrbeq	r0, [r0, #-270]	; 0xfffffef2
    2464:	1000240c 	andne	r2, r0, ip, lsl #8
    2468:	51010e20 	tstpl	r1, r0, lsr #28
    246c:	00010c05 	andeq	r0, r1, r5, lsl #24
    2470:	0d005a00 	vstreq	s10, [r0, #-0]
    2474:	00008ca4 	andeq	r8, r0, r4, lsr #25
    2478:	0000022d 	andeq	r0, r0, sp, lsr #4
    247c:	000001a4 	andeq	r0, r0, r4, lsr #3
    2480:	0550010e 	ldrbeq	r0, [r0, #-270]	; 0xfffffef2
    2484:	10001c0c 	andne	r1, r0, ip, lsl #24
    2488:	51010e20 	tstpl	r1, r0, lsr #28
    248c:	00200c05 	eoreq	r0, r0, r5, lsl #24
    2490:	0c005a00 			; <UNDEFINED> instruction: 0x0c005a00
    2494:	00008cac 	andeq	r8, r0, ip, lsr #25
    2498:	000001ae 	andeq	r0, r0, lr, lsr #3
    249c:	04760f00 	ldrbteq	r0, [r6], #-3840	; 0xfffff100
    24a0:	17010000 	strne	r0, [r1, -r0]
    24a4:	008c5806 	addeq	r5, ip, r6, lsl #16
    24a8:	00001400 	andeq	r1, r0, r0, lsl #8
    24ac:	d99c0100 	ldmible	ip, {r8}
    24b0:	0b000001 	bleq	24bc <__code_start__-0x5b44>
    24b4:	000004d5 	ldrdeq	r0, [r0], -r5
    24b8:	310e1801 	tstcc	lr, r1, lsl #16
    24bc:	a6000000 	strge	r0, [r0], -r0
    24c0:	a0000012 	andge	r0, r0, r2, lsl r0
    24c4:	00000012 	andeq	r0, r0, r2, lsl r0
    24c8:	0004a610 	andeq	sl, r4, r0, lsl r6
    24cc:	050e0100 	streq	r0, [lr, #-256]	; 0xffffff00
    24d0:	00000025 	andeq	r0, r0, r5, lsr #32
    24d4:	00008c40 	andeq	r8, r0, r0, asr #24
    24d8:	00000018 	andeq	r0, r0, r8, lsl r0
    24dc:	02089c01 	andeq	r9, r8, #256	; 0x100
    24e0:	d50b0000 	strle	r0, [fp, #-0]
    24e4:	01000004 	tsteq	r0, r4
    24e8:	00310e0f 	eorseq	r0, r1, pc, lsl #28
    24ec:	12d40000 	sbcsne	r0, r4, #0, 0
    24f0:	12d00000 	sbcsne	r0, r0, #0, 0
    24f4:	11000000 	mrsne	r0, (UNDEF: 0)
    24f8:	0000045f 	andeq	r0, r0, pc, asr r4
    24fc:	0000045f 	andeq	r0, r0, pc, asr r4
    2500:	06013602 	streq	r3, [r1], -r2, lsl #12
    2504:	0003f812 	andeq	pc, r3, r2, lsl r8	; <UNPREDICTABLE>
    2508:	0003f800 	andeq	pc, r3, r0, lsl #16
    250c:	064d0200 	strbeq	r0, [sp], -r0, lsl #4
    2510:	0003d412 	andeq	sp, r3, r2, lsl r4
    2514:	0003d400 	andeq	sp, r3, r0, lsl #8
    2518:	06580200 	ldrbeq	r0, [r8], -r0, lsl #4
    251c:	00000812 	andeq	r0, r0, r2, lsl r8
    2520:	00000800 	andeq	r0, r0, r0, lsl #16
    2524:	06ad0200 	strteq	r0, [sp], r0, lsl #4
    2528:	00024d00 	andeq	r4, r2, r0, lsl #26
    252c:	50000400 	andpl	r0, r0, r0, lsl #8
    2530:	0400000a 	streq	r0, [r0], #-10
    2534:	00010001 	andeq	r0, r1, r1
    2538:	04f00c00 	ldrbteq	r0, [r0], #3072	; 0xc00
    253c:	024f0000 	subeq	r0, pc, #0, 0
    2540:	8cc00000 	stclhi	0, cr0, [r0], {0}
    2544:	00840000 	addeq	r0, r4, r0
    2548:	0e790000 	cdpeq	0, 7, cr0, cr9, cr0, {0}
    254c:	04020000 	streq	r0, [r2], #-0
    2550:	746e6905 	strbtvc	r6, [lr], #-2309	; 0xfffff6fb
    2554:	07040300 	streq	r0, [r4, -r0, lsl #6]
    2558:	000000b8 	strheq	r0, [r0], -r8
    255c:	60060103 	andvs	r0, r6, r3, lsl #2
    2560:	03000000 	movweq	r0, #0
    2564:	00df0502 	sbcseq	r0, pc, r2, lsl #10
    2568:	04030000 	streq	r0, [r3], #-0
    256c:	0000ca05 	andeq	ip, r0, r5, lsl #20
    2570:	05080300 	streq	r0, [r8, #-768]	; 0xfffffd00
    2574:	000000c5 	andeq	r0, r0, r5, asr #1
    2578:	5e080103 	adfple	f0, f0, f3
    257c:	03000000 	movweq	r0, #0
    2580:	00810702 	addeq	r0, r1, r2, lsl #14
    2584:	04030000 	streq	r0, [r3], #-0
    2588:	0000b307 	andeq	fp, r0, r7, lsl #6
    258c:	07080300 	streq	r0, [r8, -r0, lsl #6]
    2590:	000000ae 	andeq	r0, r0, lr, lsr #1
    2594:	00002504 	andeq	r2, r0, r4, lsl #10
    2598:	00007a00 	andeq	r7, r0, r0, lsl #20
    259c:	00250500 	eoreq	r0, r5, r0, lsl #10
    25a0:	06000000 	streq	r0, [r0], -r0
    25a4:	000000d3 	ldrdeq	r0, [r0], -r3
    25a8:	860e1c02 	strhi	r1, [lr], -r2, lsl #24
    25ac:	07000000 	streq	r0, [r0, -r0]
    25b0:	00006b04 	andeq	r6, r0, r4, lsl #22
    25b4:	00250400 	eoreq	r0, r5, r0, lsl #8
    25b8:	009b0000 	addseq	r0, fp, r0
    25bc:	9b050000 	blls	1425c4 <__bss_end__+0x138d6c>
    25c0:	00000000 	andeq	r0, r0, r0
    25c4:	00a80407 	adceq	r0, r8, r7, lsl #8
    25c8:	01030000 	mrseq	r0, (UNDEF: 3)
    25cc:	00006708 	andeq	r6, r0, r8, lsl #14
    25d0:	00a10800 	adceq	r0, r1, r0, lsl #16
    25d4:	7a060000 	bvc	1825dc <__bss_end__+0x178d84>
    25d8:	02000002 	andeq	r0, r0, #2, 0
    25dc:	00b90e21 	adcseq	r0, r9, r1, lsr #28
    25e0:	04070000 	streq	r0, [r7], #-0
    25e4:	0000008c 	andeq	r0, r0, ip, lsl #1
    25e8:	0004e609 	andeq	lr, r4, r9, lsl #12
    25ec:	061e0100 	ldreq	r0, [lr], -r0, lsl #2
    25f0:	00008d2c 	andeq	r8, r0, ip, lsr #26
    25f4:	00000018 	andeq	r0, r0, r8, lsl r0
    25f8:	01099c01 	tsteq	r9, r1, lsl #24
    25fc:	730a0000 	movwvc	r0, #40960	; 0xa000
    2600:	01006365 	tsteq	r0, r5, ror #6
    2604:	002c191e 	eoreq	r1, ip, lr, lsl r9
    2608:	12f70000 	rscsne	r0, r7, #0, 0
    260c:	12f30000 	rscsne	r0, r3, #0, 0
    2610:	400b0000 	andmi	r0, fp, r0
    2614:	0900008d 	stmdbeq	r0, {r0, r2, r3, r7}
    2618:	0c000001 	stceq	0, cr0, [r0], {1}
    261c:	f3115001 	vhadd.u16	d5, d1, d1
    2620:	24355001 	ldrtcs	r5, [r5], #-1
    2624:	1c5001f3 	ldfnee	f0, [r0], {243}	; 0xf3
    2628:	01f32432 	mvnseq	r2, r2, lsr r4
    262c:	24332250 	ldrtcs	r2, [r3], #-592	; 0xfffffdb0
    2630:	d4090000 	strle	r0, [r9], #-0
    2634:	01000003 	tsteq	r0, r3
    2638:	8d14061b 	ldchi	6, cr0, [r4, #-108]	; 0xffffff94
    263c:	00180000 	andseq	r0, r8, r0
    2640:	9c010000 	stcls	0, cr0, [r1], {-0}
    2644:	00000152 	andeq	r0, r0, r2, asr r1
    2648:	00736d0a 	rsbseq	r6, r3, sl, lsl #26
    264c:	2c181b01 			; <UNDEFINED> instruction: 0x2c181b01
    2650:	1c000000 	stcne	0, cr0, [r0], {-0}
    2654:	18000013 	stmdane	r0, {r0, r1, r4}
    2658:	0b000013 	bleq	26ac <__code_start__-0x5954>
    265c:	00008d28 	andeq	r8, r0, r8, lsr #26
    2660:	00000152 	andeq	r0, r0, r2, asr r1
    2664:	1150010c 	cmpne	r0, ip, lsl #2
    2668:	355001f3 	ldrbcc	r0, [r0, #-499]	; 0xfffffe0d
    266c:	5001f324 	andpl	pc, r1, r4, lsr #6
    2670:	f324321c 	vqsub.u32	d3, d4, d12
    2674:	33225001 			; <UNDEFINED> instruction: 0x33225001
    2678:	09000024 	stmdbeq	r0, {r2, r5}
    267c:	00000519 	andeq	r0, r0, r9, lsl r5
    2680:	f0061201 			; <UNDEFINED> instruction: 0xf0061201
    2684:	2400008c 	strcs	r0, [r0], #-140	; 0xffffff74
    2688:	01000000 	mrseq	r0, (UNDEF: 0)
    268c:	0001c29c 	muleq	r1, ip, r2
    2690:	73750a00 	cmnvc	r5, #0, 20
    2694:	18120100 	ldmdane	r2, {r8}
    2698:	0000002c 	andeq	r0, r0, ip, lsr #32
    269c:	00001341 	andeq	r1, r0, r1, asr #6
    26a0:	0000133d 	andeq	r1, r0, sp, lsr r3
    26a4:	0062720d 	rsbeq	r7, r2, sp, lsl #4
    26a8:	2c0e1301 	stccs	3, cr1, [lr], {1}
    26ac:	61000000 	mrsvs	r0, (UNDEF: 0)
    26b0:	5f000013 	svcpl	0x00000013
    26b4:	0e000013 	mcreq	0, 0, r0, cr0, cr3, {0}
    26b8:	00008d00 	andeq	r8, r0, r0, lsl #26
    26bc:	00000014 	andeq	r0, r0, r4, lsl r0
    26c0:	000001b8 			; <UNDEFINED> instruction: 0x000001b8
    26c4:	0061720d 	rsbeq	r7, r1, sp, lsl #4
    26c8:	2c121501 	cfldr32cs	mvfx1, [r2], {1}
    26cc:	76000000 	strvc	r0, [r0], -r0
    26d0:	74000013 	strvc	r0, [r0], #-19	; 0xffffffed
    26d4:	0f000013 	svceq	0x00000013
    26d8:	00008d04 	andeq	r8, r0, r4, lsl #26
    26dc:	000001c2 	andeq	r0, r0, r2, asr #3
    26e0:	8cfc0f00 	ldclhi	15, cr0, [ip]
    26e4:	01c20000 	biceq	r0, r2, r0
    26e8:	10000000 	andne	r0, r0, r0
    26ec:	0000050a 	andeq	r0, r0, sl, lsl #10
    26f0:	2c0a0901 			; <UNDEFINED> instruction: 0x2c0a0901
    26f4:	d4000000 	strle	r0, [r0], #-0
    26f8:	1c00008c 	stcne	0, cr0, [r0], {140}	; 0x8c
    26fc:	01000000 	mrseq	r0, (UNDEF: 0)
    2700:	00020a9c 	muleq	r2, ip, sl
    2704:	00750d00 	rsbseq	r0, r5, r0, lsl #26
    2708:	2c0e0d01 	stccs	13, cr0, [lr], {1}
    270c:	8d000000 	stchi	0, cr0, [r0, #-0]
    2710:	89000013 	stmdbhi	r0, {r0, r1, r4}
    2714:	0f000013 	svceq	0x00000013
    2718:	00008cdc 	ldrdeq	r8, [r0], -ip
    271c:	00000238 	andeq	r0, r0, r8, lsr r2
    2720:	008ce00f 	addeq	lr, ip, pc
    2724:	00020a00 	andeq	r0, r2, r0, lsl #20
    2728:	8ce80f00 	stclhi	15, cr0, [r8]
    272c:	02380000 	eorseq	r0, r8, #0, 0
    2730:	10000000 	andne	r0, r0, r0
    2734:	00000522 	andeq	r0, r0, r2, lsr #10
    2738:	2c0a0401 	cfstrscs	mvf0, [sl], {1}
    273c:	c0000000 	andgt	r0, r0, r0
    2740:	1400008c 	strne	r0, [r0], #-140	; 0xffffff74
    2744:	01000000 	mrseq	r0, (UNDEF: 0)
    2748:	0002389c 	muleq	r2, ip, r8
    274c:	8ccc0b00 	vstmiahi	ip, {d16-d15}
    2750:	02440000 	subeq	r0, r4, #0, 0
    2754:	010c0000 	mrseq	r0, (UNDEF: 12)
    2758:	040c0550 	streq	r0, [ip], #-1360	; 0xfffffab0
    275c:	00200030 	eoreq	r0, r0, r0, lsr r0
    2760:	04da1100 	ldrbeq	r1, [sl], #256	; 0x100
    2764:	04da0000 	ldrbeq	r0, [sl], #0
    2768:	9c020000 	stcls	0, cr0, [r2], {-0}
    276c:	05041106 	streq	r1, [r4, #-262]	; 0xfffffefa
    2770:	05040000 	streq	r0, [r4, #-0]
    2774:	c2020000 	andgt	r0, r2, #0, 0
    2778:	05cd000a 	strbeq	r0, [sp, #10]
    277c:	00040000 	andeq	r0, r4, r0
    2780:	00000b51 	andeq	r0, r0, r1, asr fp
    2784:	05f80104 	ldrbeq	r0, [r8, #260]!	; 0x104
    2788:	620c0000 	andvs	r0, ip, #0, 0
    278c:	d6000005 	strle	r0, [r0], -r5
    2790:	44000006 	strmi	r0, [r0], #-6
    2794:	f000008d 			; <UNDEFINED> instruction: 0xf000008d
    2798:	51000001 	tstpl	r0, r1
    279c:	0200000f 	andeq	r0, r0, #15, 0
    27a0:	6e690504 	cdpvs	5, 6, cr0, cr9, cr4, {0}
    27a4:	04030074 	streq	r0, [r3], #-116	; 0xffffff8c
    27a8:	0000b807 	andeq	fp, r0, r7, lsl #16
    27ac:	002c0400 	eoreq	r0, ip, r0, lsl #8
    27b0:	01030000 	mrseq	r0, (UNDEF: 3)
    27b4:	00006006 	andeq	r6, r0, r6
    27b8:	05020300 	streq	r0, [r2, #-768]	; 0xfffffd00
    27bc:	000000df 	ldrdeq	r0, [r0], -pc	; <UNPREDICTABLE>
    27c0:	ca050403 	bgt	1437d4 <__bss_end__+0x139f7c>
    27c4:	03000000 	movweq	r0, #0
    27c8:	00c50508 	sbceq	r0, r5, r8, lsl #10
    27cc:	01030000 	mrseq	r0, (UNDEF: 3)
    27d0:	00005e08 	andeq	r5, r0, r8, lsl #28
    27d4:	07020300 	streq	r0, [r2, -r0, lsl #6]
    27d8:	00000081 	andeq	r0, r0, r1, lsl #1
    27dc:	00031105 	andeq	r1, r3, r5, lsl #2
    27e0:	19340500 	ldmdbne	r4!, {r8, sl}
    27e4:	0000006e 	andeq	r0, r0, lr, rrx
    27e8:	b3070403 	movwlt	r0, #29699	; 0x7403
    27ec:	03000000 	movweq	r0, #0
    27f0:	00ae0708 	adceq	r0, lr, r8, lsl #14
    27f4:	01030000 	mrseq	r0, (UNDEF: 3)
    27f8:	00006708 	andeq	r6, r0, r8, lsl #14
    27fc:	01070600 	tsteq	r7, r0, lsl #12
    2800:	00000054 	andeq	r0, r0, r4, asr r0
    2804:	c20e0c04 	andgt	r0, lr, #4, 24	; 0x400
    2808:	07000000 	streq	r0, [r0, -r0]
    280c:	0000071d 	andeq	r0, r0, sp, lsl r7
    2810:	05510700 	ldrbeq	r0, [r1, #-1792]	; 0xfffff900
    2814:	07010000 	streq	r0, [r1, -r0]
    2818:	00000592 	muleq	r0, r2, r5
    281c:	05a10704 	streq	r0, [r1, #1796]!	; 0x704
    2820:	07050000 	streq	r0, [r5, -r0]
    2824:	000005b0 			; <UNDEFINED> instruction: 0x000005b0
    2828:	05bf0706 	ldreq	r0, [pc, #1798]!	; 2f36 <__code_start__-0x50ca>
    282c:	07070000 	streq	r0, [r7, -r0]
    2830:	000006ab 	andeq	r0, r0, fp, lsr #13
    2834:	05ce0703 	strbeq	r0, [lr, #1795]	; 0x703
    2838:	00020000 	andeq	r0, r2, r0
    283c:	0006ca08 	andeq	ip, r6, r8, lsl #20
    2840:	06022c00 	streq	r2, [r2], -r0, lsl #24
    2844:	00015e08 	andeq	r5, r1, r8, lsl #28
    2848:	6f690900 	svcvs	0x00690900
    284c:	09090200 	stmdbeq	r9, {r9}
    2850:	00000033 	andeq	r0, r0, r3, lsr r0
    2854:	65690900 	strbvs	r0, [r9, #-2304]!	; 0xfffff700
    2858:	0a020072 	beq	82a28 <__bss_end__+0x791d0>
    285c:	00003309 	andeq	r3, r0, r9, lsl #6
    2860:	69090400 	stmdbvs	r9, {sl}
    2864:	02007269 	andeq	r7, r0, #-1879048186	; 0x90000006
    2868:	00330911 	eorseq	r0, r3, r1, lsl r9
    286c:	09080000 	stmdbeq	r8, {}	; <UNPREDICTABLE>
    2870:	0072636c 	rsbseq	r6, r2, ip, ror #6
    2874:	33091302 	movwcc	r1, #37634	; 0x9302
    2878:	0c000000 	stceq	0, cr0, [r0], {-0}
    287c:	72636d09 	rsbvc	r6, r3, #576	; 0x240
    2880:	09140200 	ldmdbeq	r4, {r9}
    2884:	00000033 	andeq	r0, r0, r3, lsr r0
    2888:	736c0910 	cmnvc	ip, #16, 18	; 0x40000
    288c:	15020072 	strne	r0, [r2, #-114]	; 0xffffff8e
    2890:	00003309 	andeq	r3, r0, r9, lsl #6
    2894:	6d091400 	cfstrsvs	mvf1, [r9, #-0]
    2898:	02007273 	andeq	r7, r0, #805306375	; 0x30000007
    289c:	00330916 	eorseq	r0, r3, r6, lsl r9
    28a0:	0a180000 	beq	6028a8 <__bss_end__+0x5f9050>
    28a4:	000006c2 	andeq	r0, r0, r2, asr #13
    28a8:	33091702 	movwcc	r1, #38658	; 0x9702
    28ac:	1c000000 	stcne	0, cr0, [r0], {-0}
    28b0:	00068b0a 	andeq	r8, r6, sl, lsl #22
    28b4:	091b0200 	ldmdbeq	fp, {r9}
    28b8:	00000033 	andeq	r0, r0, r3, lsr r0
    28bc:	053e0a20 	ldreq	r0, [lr, #-2592]!	; 0xfffff5e0
    28c0:	1d020000 	stcne	0, cr0, [r2, #-0]
    28c4:	00003309 	andeq	r3, r0, r9, lsl #6
    28c8:	dd0a2400 	cfstrsle	mvf2, [sl, #-0]
    28cc:	02000005 	andeq	r0, r0, #5, 0
    28d0:	0033091e 	eorseq	r0, r3, lr, lsl r9
    28d4:	00280000 	eoreq	r0, r8, r0
    28d8:	0005e20b 	andeq	lr, r5, fp, lsl #4
    28dc:	09080100 	stmdbeq	r8, {r8}
    28e0:	00000174 	andeq	r0, r0, r4, ror r1
    28e4:	20215004 	eorcs	r5, r1, r4
    28e8:	0033040c 	eorseq	r0, r3, ip, lsl #8
    28ec:	6e0d0000 	cdpvs	0, 0, cr0, cr13, cr0, {0}
    28f0:	0b000001 	bleq	28fc <__code_start__-0x5704>
    28f4:	00000577 	andeq	r0, r0, r7, ror r5
    28f8:	8f232901 	svchi	0x00232901
    28fc:	40000001 	andmi	r0, r0, r1
    2900:	0c202150 	stfeqs	f2, [r0], #-320	; 0xfffffec0
    2904:	0000c204 	andeq	ip, r0, r4, lsl #4
    2908:	01890d00 	orreq	r0, r9, r0, lsl #26
    290c:	f80e0000 			; <UNDEFINED> instruction: 0xf80e0000
    2910:	01000003 	tsteq	r0, r3
    2914:	8efc06cc 	cdphi	6, 15, cr0, cr12, cr12, {6}
    2918:	00140000 	andseq	r0, r4, r0
    291c:	9c010000 	stcls	0, cr0, [r1], {-0}
    2920:	000001b4 			; <UNDEFINED> instruction: 0x000001b4
    2924:	008f040f 	addeq	r0, pc, pc, lsl #8
    2928:	0001b400 	andeq	fp, r1, r0, lsl #8
    292c:	81100000 	tsthi	r0, r0
    2930:	01000005 	tsteq	r0, r5
    2934:	002505b6 	strhteq	r0, [r5], -r6
    2938:	8edc0000 	cdphi	0, 13, cr0, cr12, cr0, {0}
    293c:	00200000 	eoreq	r0, r0, r0
    2940:	9c010000 	stcls	0, cr0, [r1], {-0}
    2944:	000001eb 	andeq	r0, r0, fp, ror #3
    2948:	008ee40f 	addeq	lr, lr, pc, lsl #8
    294c:	0005a000 	andeq	sl, r5, r0
    2950:	8eec1100 	cdphi	1, 14, cr1, cr12, cr0, {0}
    2954:	05ac0000 	streq	r0, [ip, #0]!
    2958:	01120000 	tsteq	r2, r0
    295c:	640c0550 	strvs	r0, [ip], #-1360	; 0xfffffab0
    2960:	00202150 	eoreq	r2, r0, r0, asr r1
    2964:	069d1000 	ldreq	r1, [sp], r0
    2968:	b3010000 	movwlt	r0, #4096	; 0x1000
    296c:	00002505 	andeq	r2, r0, r5, lsl #10
    2970:	008ecc00 	addeq	ip, lr, r0, lsl #24
    2974:	00001000 	andeq	r1, r0, r0
    2978:	189c0100 	ldmne	ip, {r8}
    297c:	0f000002 	svceq	0x00000002
    2980:	00008ed4 	ldrdeq	r8, [r0], -r4
    2984:	000005a0 	andeq	r0, r0, r0, lsr #11
    2988:	008ed80f 	addeq	sp, lr, pc, lsl #16
    298c:	00030900 	andeq	r0, r3, r0, lsl #18
    2990:	130e0000 	movwne	r0, #57344	; 0xe000
    2994:	01000007 	tsteq	r0, r7
    2998:	8e9c06ab 	cdphi	6, 9, cr0, cr12, cr11, {5}
    299c:	00300000 	eorseq	r0, r0, r0
    29a0:	9c010000 	stcls	0, cr0, [r1], {-0}
    29a4:	0000027c 	andeq	r0, r0, ip, ror r2
    29a8:	01006313 	tsteq	r0, r3, lsl r3
    29ac:	002c19ab 	eoreq	r1, ip, fp, lsr #19
    29b0:	13af0000 			; <UNDEFINED> instruction: 0x13af0000
    29b4:	13ab0000 			; <UNDEFINED> instruction: 0x13ab0000
    29b8:	a80f0000 	stmdage	pc, {}	; <UNPREDICTABLE>
    29bc:	a000008e 	andge	r0, r0, lr, lsl #1
    29c0:	0f000005 	svceq	0x00000005
    29c4:	00008eac 	andeq	r8, r0, ip, lsr #29
    29c8:	000002db 	ldrdeq	r0, [r0], -fp
    29cc:	008ec014 	addeq	ip, lr, r4, lsl r0
    29d0:	0005b800 	andeq	fp, r5, r0, lsl #16
    29d4:	00027200 	andeq	r7, r2, r0, lsl #4
    29d8:	50011200 	andpl	r1, r1, r0, lsl #4
    29dc:	50400c05 	subpl	r0, r0, r5, lsl #24
    29e0:	01122021 	tsteq	r2, r1, lsr #32
    29e4:	00740551 	rsbseq	r0, r4, r1, asr r5
    29e8:	001aff08 	andseq	pc, sl, r8, lsl #30
    29ec:	008ec40f 	addeq	ip, lr, pc, lsl #8
    29f0:	0005a000 	andeq	sl, r5, r0
    29f4:	ee100000 	cdp	0, 1, cr0, cr0, cr0, {0}
    29f8:	01000005 	tsteq	r0, r5
    29fc:	002505a3 	eoreq	r0, r5, r3, lsr #11
    2a00:	8e6c0000 	cdphi	0, 6, cr0, cr12, cr0, {0}
    2a04:	00300000 	eorseq	r0, r0, r0
    2a08:	9c010000 	stcls	0, cr0, [r1], {-0}
    2a0c:	000002db 	ldrdeq	r0, [r0], -fp
    2a10:	01006315 	tsteq	r0, r5, lsl r3
    2a14:	002509a7 	eoreq	r0, r5, r7, lsr #19
    2a18:	13cf0000 	bicne	r0, pc, #0, 0
    2a1c:	13cd0000 	bicne	r0, sp, #0, 0
    2a20:	740f0000 	strvc	r0, [pc], #-0	; 2a28 <__code_start__-0x55d8>
    2a24:	a000008e 	andge	r0, r0, lr, lsl #1
    2a28:	0f000005 	svceq	0x00000005
    2a2c:	00008e78 	andeq	r8, r0, r8, ror lr
    2a30:	00000309 	andeq	r0, r0, r9, lsl #6
    2a34:	008e8814 	addeq	r8, lr, r4, lsl r8
    2a38:	0005ac00 	andeq	sl, r5, r0, lsl #24
    2a3c:	0002d100 	andeq	sp, r2, r0, lsl #2
    2a40:	50011200 	andpl	r1, r1, r0, lsl #4
    2a44:	50400c05 	subpl	r0, r0, r5, lsl #24
    2a48:	0f002021 	svceq	0x00002021
    2a4c:	00008e90 	muleq	r0, r0, lr
    2a50:	000005a0 	andeq	r0, r0, r0, lsr #11
    2a54:	05691000 	strbeq	r1, [r9, #-0]!
    2a58:	94010000 	strls	r0, [r1], #-0
    2a5c:	00002505 	andeq	r2, r0, r5, lsl #10
    2a60:	008e4c00 	addeq	r4, lr, r0, lsl #24
    2a64:	00002000 	andeq	r2, r0, r0
    2a68:	099c0100 	ldmibeq	ip, {r8}
    2a6c:	11000003 	tstne	r0, r3
    2a70:	00008e58 	andeq	r8, r0, r8, asr lr
    2a74:	000005ac 	andeq	r0, r0, ip, lsr #11
    2a78:	05500112 	ldrbeq	r0, [r0, #-274]	; 0xfffffeee
    2a7c:	2150640c 	cmpcs	r0, ip, lsl #8
    2a80:	10000020 	andne	r0, r0, r0, lsr #32
    2a84:	00000543 	andeq	r0, r0, r3, asr #10
    2a88:	25058b01 	strcs	r8, [r5, #-2817]	; 0xfffff4ff
    2a8c:	34000000 	strcc	r0, [r0], #-0
    2a90:	1800008e 	stmdane	r0, {r1, r2, r3, r7}
    2a94:	01000000 	mrseq	r0, (UNDEF: 0)
    2a98:	0003379c 	muleq	r3, ip, r7
    2a9c:	8e401100 	dvfhis	f1, f0, f0
    2aa0:	05ac0000 	streq	r0, [ip, #0]!
    2aa4:	01120000 	tsteq	r2, r0
    2aa8:	640c0550 	strvs	r0, [ip], #-1360	; 0xfffffab0
    2aac:	00202150 	eoreq	r2, r0, r0, asr r1
    2ab0:	04160e00 	ldreq	r0, [r6], #-3584	; 0xfffff200
    2ab4:	45010000 	strmi	r0, [r1, #-0]
    2ab8:	008d8406 	addeq	r8, sp, r6, lsl #8
    2abc:	0000b000 	andeq	fp, r0, r0
    2ac0:	849c0100 	ldrhi	r0, [ip], #256	; 0x100
    2ac4:	16000004 	strne	r0, [r0], -r4
    2ac8:	00000535 	andeq	r0, r0, r5, lsr r5
    2acc:	620e7e01 	andvs	r7, lr, #1, 28
    2ad0:	0e000000 	cdpeq	0, 0, cr0, cr0, cr0, {0}
    2ad4:	8d941401 	cfldrshi	mvf1, [r4, #4]
    2ad8:	05c40000 	strbeq	r0, [r4]
    2adc:	03730000 	cmneq	r3, #0, 0
    2ae0:	01120000 	tsteq	r2, r0
    2ae4:	123e0150 	eorsne	r0, lr, #20
    2ae8:	32015101 	andcc	r5, r1, #1073741824	; 0x40000000
    2aec:	8da01400 	cfstrshi	mvf1, [r0]
    2af0:	05c40000 	strbeq	r0, [r4]
    2af4:	038b0000 	orreq	r0, fp, #0, 0
    2af8:	01120000 	tsteq	r2, r0
    2afc:	123f0150 	eorsne	r0, pc, #20
    2b00:	32015101 	andcc	r5, r1, #1073741824	; 0x40000000
    2b04:	8da40f00 	stchi	15, cr0, [r4]
    2b08:	05a00000 	streq	r0, [r0, #0]!
    2b0c:	b0140000 	andslt	r0, r4, r0
    2b10:	3d00008d 	stccc	0, cr0, [r0, #-564]	; 0xfffffdcc
    2b14:	b0000005 	andlt	r0, r0, r5
    2b18:	12000003 	andne	r0, r0, #3, 0
    2b1c:	0c055001 	stceq	0, cr5, [r5], {1}
    2b20:	20215004 	eorcs	r5, r1, r4
    2b24:	01510112 	cmpeq	r1, r2, lsl r1
    2b28:	b40f0031 	strlt	r0, [pc], #-49	; 2b30 <__code_start__-0x54d0>
    2b2c:	a000008d 	andge	r0, r0, sp, lsl #1
    2b30:	14000005 	strne	r0, [r0], #-5
    2b34:	00008dc4 	andeq	r8, r0, r4, asr #27
    2b38:	000005b8 			; <UNDEFINED> instruction: 0x000005b8
    2b3c:	000003d2 	ldrdeq	r0, [r0], -r2
    2b40:	02500112 	subseq	r0, r0, #-2147483644	; 0x80000004
    2b44:	01120074 	tsteq	r2, r4, ror r0
    2b48:	00300151 	eorseq	r0, r0, r1, asr r1
    2b4c:	008dd014 	addeq	sp, sp, r4, lsl r0
    2b50:	0005b800 	andeq	fp, r5, r0, lsl #16
    2b54:	0003ee00 	andeq	lr, r3, r0, lsl #28
    2b58:	50011200 	andpl	r1, r1, r0, lsl #4
    2b5c:	50440c05 	subpl	r0, r4, r5, lsl #24
    2b60:	01122021 	tsteq	r2, r1, lsr #32
    2b64:	00300151 	eorseq	r0, r0, r1, asr r1
    2b68:	008ddc14 	addeq	sp, sp, r4, lsl ip
    2b6c:	0005b800 	andeq	fp, r5, r0, lsl #16
    2b70:	00040a00 	andeq	r0, r4, r0, lsl #20
    2b74:	50011200 	andpl	r1, r1, r0, lsl #4
    2b78:	504c0c05 	subpl	r0, ip, r5, lsl #24
    2b7c:	01122021 	tsteq	r2, r1, lsr #32
    2b80:	00330151 	eorseq	r0, r3, r1, asr r1
    2b84:	008de814 	addeq	lr, sp, r4, lsl r8
    2b88:	0005b800 	andeq	fp, r5, r0, lsl #16
    2b8c:	00042600 	andeq	r2, r4, r0, lsl #12
    2b90:	50011200 	andpl	r1, r1, r0, lsl #4
    2b94:	50500c05 	subspl	r0, r0, r5, lsl #24
    2b98:	01122021 	tsteq	r2, r1, lsr #32
    2b9c:	00300151 	eorseq	r0, r0, r1, asr r1
    2ba0:	008df414 	addeq	pc, sp, r4, lsl r4	; <UNPREDICTABLE>
    2ba4:	0005b800 	andeq	fp, r5, r0, lsl #16
    2ba8:	00044300 	andeq	r4, r4, r0, lsl #6
    2bac:	50011200 	andpl	r1, r1, r0, lsl #4
    2bb0:	50480c05 	subpl	r0, r8, r5, lsl #24
    2bb4:	01122021 	tsteq	r2, r1, lsr #32
    2bb8:	c7080251 	smlsdgt	r8, r1, r2, r0
    2bbc:	8e001400 	cfcpyshi	mvf1, mvf0
    2bc0:	05b80000 	ldreq	r0, [r8, #0]!
    2bc4:	04610000 	strbteq	r0, [r1], #-0
    2bc8:	01120000 	tsteq	r2, r0
    2bcc:	680c0550 	stmdavs	ip, {r4, r6, r8, sl}
    2bd0:	12202150 	eorne	r2, r0, #20
    2bd4:	0a035101 	beq	d6fe0 <__bss_end__+0xcd788>
    2bd8:	1400010e 	strne	r0, [r0], #-270	; 0xfffffef2
    2bdc:	00008e0c 	andeq	r8, r0, ip, lsl #28
    2be0:	000005b8 			; <UNDEFINED> instruction: 0x000005b8
    2be4:	0000047a 	andeq	r0, r0, sl, ror r4
    2be8:	02500112 	subseq	r0, r0, #-2147483644	; 0x80000004
    2bec:	01120074 	tsteq	r2, r4, ror r0
    2bf0:	00330151 	eorseq	r0, r3, r1, asr r1
    2bf4:	008e100f 	addeq	r1, lr, pc
    2bf8:	0005a000 	andeq	sl, r5, r0
    2bfc:	900e0000 	andls	r0, lr, r0
    2c00:	01000006 	tsteq	r0, r6
    2c04:	8f100635 	svchi	0x00100635
    2c08:	00240000 	eoreq	r0, r4, r0
    2c0c:	9c010000 	stcls	0, cr0, [r1], {-0}
    2c10:	000004d3 	ldrdeq	r0, [r0], -r3
    2c14:	008f180f 	addeq	r1, pc, pc, lsl #16
    2c18:	00019400 	andeq	r9, r1, r0, lsl #8
    2c1c:	8f1c0f00 	svchi	0x001c0f00
    2c20:	05a00000 	streq	r0, [r0, #0]!
    2c24:	28140000 	ldmdacs	r4, {}	; <UNPREDICTABLE>
    2c28:	d300008f 	movwle	r0, #143	; 0x8f
    2c2c:	c9000004 	stmdbgt	r0, {r2}
    2c30:	12000004 	andne	r0, r0, #4, 0
    2c34:	0c055001 	stceq	0, cr5, [r5], {1}
    2c38:	20215004 	eorcs	r5, r1, r4
    2c3c:	02510112 	subseq	r0, r1, #-2147483644	; 0x80000004
    2c40:	0f00fe09 	svceq	0x0000fe09
    2c44:	00008f2c 	andeq	r8, r0, ip, lsr #30
    2c48:	000005a0 	andeq	r0, r0, r0, lsr #11
    2c4c:	070a1700 	streq	r1, [sl, -r0, lsl #14]
    2c50:	31010000 	mrscc	r0, (UNDEF: 1)
    2c54:	008d440d 	addeq	r4, sp, sp, lsl #8
    2c58:	00002000 	andeq	r2, r0, r0
    2c5c:	369c0100 	ldrcc	r0, [ip], r0, lsl #2
    2c60:	18000005 	stmdane	r0, {r0, r2}
    2c64:	0000057c 	andeq	r0, r0, ip, ror r5
    2c68:	36253101 	strtcc	r3, [r5], -r1, lsl #2
    2c6c:	e6000005 	str	r0, [r0], -r5
    2c70:	e2000013 	and	r0, r0, #19, 0
    2c74:	13000013 	movwne	r0, #19
    2c78:	006c6176 	rsbeq	r6, ip, r6, ror r1
    2c7c:	2c343101 	ldfcss	f3, [r4], #-4
    2c80:	08000000 	stmdaeq	r0, {}	; <UNPREDICTABLE>
    2c84:	04000014 	streq	r0, [r0], #-20	; 0xffffffec
    2c88:	14000014 	strne	r0, [r0], #-20	; 0xffffffec
    2c8c:	00008d54 	andeq	r8, r0, r4, asr sp
    2c90:	000005ac 	andeq	r0, r0, ip, lsr #11
    2c94:	00000525 	andeq	r0, r0, r5, lsr #10
    2c98:	02500112 	subseq	r0, r0, #-2147483644	; 0x80000004
    2c9c:	11000074 	tstne	r0, r4, ror r0
    2ca0:	00008d60 	andeq	r8, r0, r0, ror #26
    2ca4:	000005b8 			; <UNDEFINED> instruction: 0x000005b8
    2ca8:	02500112 	subseq	r0, r0, #-2147483644	; 0x80000004
    2cac:	00000074 	andeq	r0, r0, r4, ror r0
    2cb0:	053c040c 	ldreq	r0, [ip, #-1036]!	; 0xfffffbf4
    2cb4:	17190000 	ldrne	r0, [r9, -r0]
    2cb8:	000006ba 			; <UNDEFINED> instruction: 0x000006ba
    2cbc:	640d2e01 	strvs	r2, [sp], #-3585	; 0xfffff1ff
    2cc0:	2000008d 	andcs	r0, r0, sp, lsl #1
    2cc4:	01000000 	mrseq	r0, (UNDEF: 0)
    2cc8:	0005a09c 	muleq	r5, ip, r0
    2ccc:	057c1800 	ldrbeq	r1, [ip, #-2048]!	; 0xfffff800
    2cd0:	2e010000 	cdpcs	0, 0, cr0, cr1, cr0, {0}
    2cd4:	00053624 	andeq	r3, r5, r4, lsr #12
    2cd8:	00142a00 	andseq	r2, r4, r0, lsl #20
    2cdc:	00142600 	andseq	r2, r4, r0, lsl #12
    2ce0:	61761300 	cmnvs	r6, r0, lsl #6
    2ce4:	2e01006c 	cdpcs	0, 0, cr0, cr1, cr12, {3}
    2ce8:	00002c33 	andeq	r2, r0, r3, lsr ip
    2cec:	00144c00 	andseq	r4, r4, r0, lsl #24
    2cf0:	00144800 	andseq	r4, r4, r0, lsl #16
    2cf4:	8d741400 	cfldrdhi	mvd1, [r4, #-0]
    2cf8:	05ac0000 	streq	r0, [ip, #0]!
    2cfc:	058f0000 	streq	r0, [pc]	; 2d04 <__code_start__-0x52fc>
    2d00:	01120000 	tsteq	r2, r0
    2d04:	00740250 	rsbseq	r0, r4, r0, asr r2
    2d08:	8d801100 	stfhis	f1, [r0]
    2d0c:	05b80000 	ldreq	r0, [r8, #0]!
    2d10:	01120000 	tsteq	r2, r0
    2d14:	00740250 	rsbseq	r0, r4, r0, asr r2
    2d18:	da1a0000 	ble	682d20 <__bss_end__+0x6794c8>
    2d1c:	da000004 	ble	2d34 <__code_start__-0x52cc>
    2d20:	03000004 	movweq	r0, #4
    2d24:	3f1a069c 	svccc	0x001a069c
    2d28:	3f000007 	svccc	0x00000007
    2d2c:	03000007 	movweq	r0, #7
    2d30:	941a0bc3 	ldrls	r0, [sl], #-3011	; 0xfffff43d
    2d34:	94000000 	strls	r0, [r0], #-0
    2d38:	03000000 	movweq	r0, #0
    2d3c:	2d1a06ae 	ldccs	6, cr0, [sl, #-696]	; 0xfffffd48
    2d40:	2d000007 	stccs	0, cr0, [r0, #-28]	; 0xffffffe4
    2d44:	04000007 	streq	r0, [r0], #-7
    2d48:	f2000619 	vmin.s8	d0, d0, d9
    2d4c:	04000003 	streq	r0, [r0], #-3
    2d50:	000ce900 	andeq	lr, ip, r0, lsl #18
    2d54:	00010400 	andeq	r0, r1, r0, lsl #8
    2d58:	0c000001 	stceq	0, cr0, [r0], {1}
    2d5c:	00000778 	andeq	r0, r0, r8, ror r7
    2d60:	0000024f 	andeq	r0, r0, pc, asr #4
    2d64:	00008f34 	andeq	r8, r0, r4, lsr pc
    2d68:	0000010c 	andeq	r0, r0, ip, lsl #2
    2d6c:	00001159 	andeq	r1, r0, r9, asr r1
    2d70:	69050402 	stmdbvs	r5, {r1, sl}
    2d74:	0300746e 	movweq	r7, #1134	; 0x46e
    2d78:	00b80704 	adcseq	r0, r8, r4, lsl #14
    2d7c:	2c040000 	stccs	0, cr0, [r4], {-0}
    2d80:	03000000 	movweq	r0, #0
    2d84:	00600601 	rsbeq	r0, r0, r1, lsl #12
    2d88:	02030000 	andeq	r0, r3, #0, 0
    2d8c:	0000df05 	andeq	sp, r0, r5, lsl #30
    2d90:	05040300 	streq	r0, [r4, #-768]	; 0xfffffd00
    2d94:	000000ca 	andeq	r0, r0, sl, asr #1
    2d98:	c5050803 	strgt	r0, [r5, #-2051]	; 0xfffff7fd
    2d9c:	03000000 	movweq	r0, #0
    2da0:	005e0801 	subseq	r0, lr, r1, lsl #16
    2da4:	02030000 	andeq	r0, r3, #0, 0
    2da8:	00008107 	andeq	r8, r0, r7, lsl #2
    2dac:	03110500 	tsteq	r1, #0, 10
    2db0:	34030000 	strcc	r0, [r3], #-0
    2db4:	00006e19 	andeq	r6, r0, r9, lsl lr
    2db8:	07040300 	streq	r0, [r4, -r0, lsl #6]
    2dbc:	000000b3 	strheq	r0, [r0], -r3
    2dc0:	ae070803 	cdpge	8, 0, cr0, cr7, cr3, {0}
    2dc4:	06000000 	streq	r0, [r0], -r0
    2dc8:	00000025 	andeq	r0, r0, r5, lsr #32
    2dcc:	0000008b 	andeq	r0, r0, fp, lsl #1
    2dd0:	00002507 	andeq	r2, r0, r7, lsl #10
    2dd4:	d3080000 	movwle	r0, #32768	; 0x8000
    2dd8:	02000000 	andeq	r0, r0, #0, 0
    2ddc:	00970e1c 	addseq	r0, r7, ip, lsl lr
    2de0:	04090000 	streq	r0, [r9], #-0
    2de4:	0000007c 	andeq	r0, r0, ip, ror r0
    2de8:	00002506 	andeq	r2, r0, r6, lsl #10
    2dec:	0000ac00 	andeq	sl, r0, r0, lsl #24
    2df0:	00ac0700 	adceq	r0, ip, r0, lsl #14
    2df4:	09000000 	stmdbeq	r0, {}	; <UNPREDICTABLE>
    2df8:	0000b904 	andeq	fp, r0, r4, lsl #18
    2dfc:	08010300 	stmdaeq	r1, {r8, r9}
    2e00:	00000067 	andeq	r0, r0, r7, rrx
    2e04:	0000b204 	andeq	fp, r0, r4, lsl #4
    2e08:	027a0800 	rsbseq	r0, sl, #0, 16
    2e0c:	21020000 	mrscs	r0, (UNDEF: 2)
    2e10:	0000ca0e 	andeq	ip, r0, lr, lsl #20
    2e14:	9d040900 	vstrls.16	s0, [r4, #-0]	; <UNPREDICTABLE>
    2e18:	0a000000 	beq	2e20 <__code_start__-0x51e0>
    2e1c:	00540107 	subseq	r0, r4, r7, lsl #2
    2e20:	0c040000 	stceq	0, cr0, [r4], {-0}
    2e24:	00010f0e 	andeq	r0, r1, lr, lsl #30
    2e28:	071d0b00 	ldreq	r0, [sp, -r0, lsl #22]
    2e2c:	0b000000 	bleq	2e34 <__code_start__-0x51cc>
    2e30:	00000551 	andeq	r0, r0, r1, asr r5
    2e34:	05920b01 	ldreq	r0, [r2, #2817]	; 0xb01
    2e38:	0b040000 	bleq	102e40 <__bss_end__+0xf95e8>
    2e3c:	000005a1 	andeq	r0, r0, r1, lsr #11
    2e40:	05b00b05 	ldreq	r0, [r0, #2821]!	; 0xb05
    2e44:	0b060000 	bleq	182e4c <__bss_end__+0x1795f4>
    2e48:	000005bf 			; <UNDEFINED> instruction: 0x000005bf
    2e4c:	06ab0b07 	strteq	r0, [fp], r7, lsl #22
    2e50:	0b030000 	bleq	c2e58 <__bss_end__+0xb9600>
    2e54:	000005ce 	andeq	r0, r0, lr, asr #11
    2e58:	b6050002 	strlt	r0, [r5], -r2
    2e5c:	04000007 	streq	r0, [r0], #-7
    2e60:	00d00315 	sbcseq	r0, r0, r5, lsl r3
    2e64:	4f0c0000 	svcmi	0x000c0000
    2e68:	01000007 	tsteq	r0, r7
    2e6c:	0033171d 	eorseq	r1, r3, sp, lsl r7
    2e70:	001c0000 	andseq	r0, ip, r0
    2e74:	450c2020 	strmi	r2, [ip, #-32]	; 0xffffffe0
    2e78:	01000007 	tsteq	r0, r7
    2e7c:	0033171e 	eorseq	r1, r3, lr, lsl r7
    2e80:	00280000 	eoreq	r0, r8, r0
    2e84:	c20c2020 	andgt	r2, ip, #32, 0
    2e88:	01000007 	tsteq	r0, r7
    2e8c:	0033171f 	eorseq	r1, r3, pc, lsl r7
    2e90:	00340000 	eorseq	r0, r4, r0
    2e94:	6e0d2020 	cdpvs	0, 0, cr2, cr13, cr0, {1}
    2e98:	01000007 	tsteq	r0, r7
    2e9c:	00250555 	eoreq	r0, r5, r5, asr r5
    2ea0:	901c0000 	andsls	r0, ip, r0
    2ea4:	00240000 	eoreq	r0, r4, r0
    2ea8:	9c010000 	stcls	0, cr0, [r1], {-0}
    2eac:	000001bb 			; <UNDEFINED> instruction: 0x000001bb
    2eb0:	6e69700e 	cdpvs	0, 6, cr7, cr9, cr14, {0}
    2eb4:	18550100 	ldmdane	r5, {r8}^
    2eb8:	0000002c 	andeq	r0, r0, ip, lsr #32
    2ebc:	0000146e 	andeq	r1, r0, lr, ror #8
    2ec0:	0000146a 	andeq	r1, r0, sl, ror #8
    2ec4:	0007cc0f 	andeq	ip, r7, pc, lsl #24
    2ec8:	0e560100 	rdfeqs	f0, f6, f0
    2ecc:	0000002c 	andeq	r0, r0, ip, lsr #32
    2ed0:	00001495 	muleq	r0, r5, r4
    2ed4:	0000148f 	andeq	r1, r0, pc, lsl #9
    2ed8:	66666f10 	uqadd16vs	r6, r6, r0
    2edc:	0e570100 	rdfeqs	f0, f7, f0
    2ee0:	0000002c 	andeq	r0, r0, ip, lsr #32
    2ee4:	000014d5 	ldrdeq	r1, [r0], -r5
    2ee8:	000014d3 	ldrdeq	r1, [r0], -r3
    2eec:	00903011 	addseq	r3, r0, r1, lsl r0
    2ef0:	0003dd00 	andeq	sp, r3, r0, lsl #26
    2ef4:	50011200 	andpl	r1, r1, r0, lsl #4
    2ef8:	5001f30b 	andpl	pc, r1, fp, lsl #6
    2efc:	b4232535 	strtlt	r2, [r3], #-1333	; 0xfffffacb
    2f00:	02818080 	addeq	r8, r1, #128, 0	; 0x80
    2f04:	59130000 	ldmdbpl	r3, {}	; <UNPREDICTABLE>
    2f08:	01000007 	tsteq	r0, r7
    2f0c:	9000064e 	andls	r0, r0, lr, asr #12
    2f10:	001c0000 	andseq	r0, ip, r0
    2f14:	9c010000 	stcls	0, cr0, [r1], {-0}
    2f18:	00000216 	andeq	r0, r0, r6, lsl r2
    2f1c:	6e69700e 	cdpvs	0, 6, cr7, cr9, cr14, {0}
    2f20:	1a4e0100 	bne	1383328 <__bss_end__+0x1379ad0>
    2f24:	0000002c 	andeq	r0, r0, ip, lsr #32
    2f28:	000014f0 	strdeq	r1, [r0], -r0
    2f2c:	000014e8 	andeq	r1, r0, r8, ror #9
    2f30:	0100760e 	tsteq	r0, lr, lsl #12
    2f34:	002c284e 	eoreq	r2, ip, lr, asr #16
    2f38:	15320000 	ldrne	r0, [r2, #-0]!
    2f3c:	152a0000 	strne	r0, [sl, #-0]!
    2f40:	10140000 	andsne	r0, r4, r0
    2f44:	9e000090 	mcrls	0, 0, r0, cr0, cr0, {4}
    2f48:	0c000002 	stceq	0, cr0, [r0], {2}
    2f4c:	12000002 	andne	r0, r0, #2, 0
    2f50:	f3035001 	vhadd.u8	d5, d3, d1
    2f54:	15005001 	strne	r5, [r0, #-1]
    2f58:	00009018 	andeq	r9, r0, r8, lsl r0
    2f5c:	00000257 	andeq	r0, r0, r7, asr r2
    2f60:	07851300 	streq	r1, [r5, r0, lsl #6]
    2f64:	49010000 	stmdbmi	r1, {}	; <UNPREDICTABLE>
    2f68:	008ff006 	addeq	pc, pc, r6
    2f6c:	00001000 	andeq	r1, r0, r0
    2f70:	579c0100 	ldrpl	r0, [ip, r0, lsl #2]
    2f74:	0e000002 	cdpeq	0, 0, cr0, cr0, cr2, {0}
    2f78:	006e6970 	rsbeq	r6, lr, r0, ror r9
    2f7c:	2c1e4901 			; <UNDEFINED> instruction: 0x2c1e4901
    2f80:	70000000 	andvc	r0, r0, r0
    2f84:	6c000015 	stcvs	0, cr0, [r0], {21}
    2f88:	11000015 	tstne	r0, r5, lsl r0
    2f8c:	00008ffc 	strdeq	r8, [r0], -ip
    2f90:	00000326 	andeq	r0, r0, r6, lsr #6
    2f94:	03500112 	cmpeq	r0, #-2147483644	; 0x80000004
    2f98:	125001f3 	subsne	r0, r0, #-1073741764	; 0xc000003c
    2f9c:	30015101 	andcc	r5, r1, r1, lsl #2
    2fa0:	94130000 	ldrls	r0, [r3], #-0
    2fa4:	01000007 	tsteq	r0, r7
    2fa8:	8fcc0642 	svchi	0x00cc0642
    2fac:	00240000 	eoreq	r0, r4, r0
    2fb0:	9c010000 	stcls	0, cr0, [r1], {-0}
    2fb4:	0000029e 	muleq	r0, lr, r2
    2fb8:	6e69700e 	cdpvs	0, 6, cr7, cr9, cr14, {0}
    2fbc:	1c420100 	stfnee	f0, [r2], {-0}
    2fc0:	0000002c 	andeq	r0, r0, ip, lsr #32
    2fc4:	00001595 	muleq	r0, r5, r5
    2fc8:	00001591 	muleq	r0, r1, r5
    2fcc:	008fe811 	addeq	lr, pc, r1, lsl r8	; <UNPREDICTABLE>
    2fd0:	0003e900 	andeq	lr, r3, r0, lsl #18
    2fd4:	50011200 	andpl	r1, r1, r0, lsl #4
    2fd8:	00280c05 	eoreq	r0, r8, r5, lsl #24
    2fdc:	01122020 	tsteq	r2, r0, lsr #32
    2fe0:	f3310551 	vqrshl.u64	q0, <illegal reg q0.5>, <illegal reg q0.5>
    2fe4:	00245001 	eoreq	r5, r4, r1
    2fe8:	07d11300 	ldrbeq	r1, [r1, r0, lsl #6]
    2fec:	3b010000 	blcc	42ff4 <__bss_end__+0x3979c>
    2ff0:	008fa806 	addeq	sl, pc, r6, lsl #16
    2ff4:	00002400 	andeq	r2, r0, r0, lsl #8
    2ff8:	e59c0100 	ldr	r0, [ip, #256]	; 0x100
    2ffc:	0e000002 	cdpeq	0, 0, cr0, cr0, cr2, {0}
    3000:	006e6970 	rsbeq	r6, lr, r0, ror r9
    3004:	2c1b3b01 			; <UNDEFINED> instruction: 0x2c1b3b01
    3008:	ba000000 	blt	3010 <__code_start__-0x4ff0>
    300c:	b6000015 			; <UNDEFINED> instruction: 0xb6000015
    3010:	11000015 	tstne	r0, r5, lsl r0
    3014:	00008fc4 	andeq	r8, r0, r4, asr #31
    3018:	000003e9 	andeq	r0, r0, r9, ror #7
    301c:	05500112 	ldrbeq	r0, [r0, #-274]	; 0xfffffeee
    3020:	20001c0c 	andcs	r1, r0, ip, lsl #24
    3024:	51011220 	tstpl	r1, r0, lsr #4
    3028:	01f33105 	mvnseq	r3, r5, lsl #2
    302c:	00002450 	andeq	r2, r0, r0, asr r4
    3030:	0007a113 	andeq	sl, r7, r3, lsl r1
    3034:	06360100 	ldrteq	r0, [r6], -r0, lsl #2
    3038:	00008f98 	muleq	r0, r8, pc	; <UNPREDICTABLE>
    303c:	00000010 	andeq	r0, r0, r0, lsl r0
    3040:	03269c01 			; <UNDEFINED> instruction: 0x03269c01
    3044:	700e0000 	andvc	r0, lr, r0
    3048:	01006e69 	tsteq	r0, r9, ror #28
    304c:	002c1f36 	eoreq	r1, ip, r6, lsr pc
    3050:	15df0000 	ldrbne	r0, [pc]	; 3058 <__code_start__-0x4fa8>
    3054:	15db0000 	ldrbne	r0, [fp]
    3058:	a4110000 	ldrge	r0, [r1], #-0
    305c:	2600008f 	strcs	r0, [r0], -pc, lsl #1
    3060:	12000003 	andne	r0, r0, #3, 0
    3064:	f3035001 	vhadd.u8	d5, d3, d1
    3068:	01125001 	tsteq	r2, r1
    306c:	00310151 	eorseq	r0, r1, r1, asr r1
    3070:	072d1300 	streq	r1, [sp, -r0, lsl #6]!
    3074:	28010000 	stmdacs	r1, {}	; <UNPREDICTABLE>
    3078:	008f3406 	addeq	r3, pc, r6, lsl #8
    307c:	00006400 	andeq	r6, r0, r0, lsl #8
    3080:	c19c0100 	orrsgt	r0, ip, r0, lsl #2
    3084:	0e000003 	cdpeq	0, 0, cr0, cr0, cr3, {0}
    3088:	006e6970 	rsbeq	r6, lr, r0, ror r9
    308c:	2c212801 	stccs	8, cr2, [r1], #-4
    3090:	04000000 	streq	r0, [r0], #-0
    3094:	00000016 	andeq	r0, r0, r6, lsl r0
    3098:	16000016 			; <UNDEFINED> instruction: 0x16000016
    309c:	000007b1 			; <UNDEFINED> instruction: 0x000007b1
    30a0:	0f322801 	svceq	0x00322801
    30a4:	29000001 	stmdbcs	r0, {r0}
    30a8:	25000016 	strcs	r0, [r0, #-22]	; 0xffffffea
    30ac:	10000016 	andne	r0, r0, r6, lsl r0
    30b0:	0066666f 	rsbeq	r6, r6, pc, ror #12
    30b4:	2c0e2d01 	stccs	13, cr2, [lr], {1}
    30b8:	4c000000 	stcmi	0, cr0, [r0], {-0}
    30bc:	4a000016 	bmi	311c <__code_start__-0x4ee4>
    30c0:	10000016 	andne	r0, r0, r6, lsl r0
    30c4:	2e010067 	cdpcs	0, 0, cr0, cr1, cr7, {3}
    30c8:	00002c0e 	andeq	r2, r0, lr, lsl #24
    30cc:	00166100 	andseq	r6, r6, r0, lsl #2
    30d0:	00165f00 	andseq	r5, r6, r0, lsl #30
    30d4:	00761000 	rsbseq	r1, r6, r0
    30d8:	2c0e3001 	stccs	0, cr3, [lr], {1}
    30dc:	7c000000 	stcvc	0, cr0, [r0], {-0}
    30e0:	74000016 	strvc	r0, [r0], #-22	; 0xffffffea
    30e4:	14000016 	strne	r0, [r0], #-22	; 0xffffffea
    30e8:	00008f7c 	andeq	r8, r0, ip, ror pc
    30ec:	000003dd 	ldrdeq	r0, [r0], -sp
    30f0:	000003b0 			; <UNDEFINED> instruction: 0x000003b0
    30f4:	02500112 	subseq	r0, r0, #-2147483644	; 0x80000004
    30f8:	11000076 	tstne	r0, r6, ror r0
    30fc:	00008f90 	muleq	r0, r0, pc	; <UNPREDICTABLE>
    3100:	000003e9 	andeq	r0, r0, r9, ror #7
    3104:	02500112 	subseq	r0, r0, #-2147483644	; 0x80000004
    3108:	00000076 	andeq	r0, r0, r6, ror r0
    310c:	00076417 	andeq	r6, r7, r7, lsl r4
    3110:	18b10200 	ldmne	r1!, {r9}
    3114:	00000062 	andeq	r0, r0, r2, rrx
    3118:	0003dd03 	andeq	sp, r3, r3, lsl #26
    311c:	00781800 	rsbseq	r1, r8, r0, lsl #16
    3120:	622bb102 	eorvs	fp, fp, #-2147483648	; 0x80000000
    3124:	00000000 	andeq	r0, r0, r0
    3128:	00050419 	andeq	r0, r5, r9, lsl r4
    312c:	00050400 	andeq	r0, r5, r0, lsl #8
    3130:	0ac20200 	beq	ff083938 <__bss_end__+0xff07a0e0>
    3134:	00000819 	andeq	r0, r0, r9, lsl r8
    3138:	00000800 	andeq	r0, r0, r0, lsl #16
    313c:	06ad0200 	strteq	r0, [sp], r0, lsl #4
    3140:	00014900 	andeq	r4, r1, r0, lsl #18
    3144:	74000400 	strvc	r0, [r0], #-1024	; 0xfffffc00
    3148:	0400000e 	streq	r0, [r0], #-14
    314c:	00010001 	andeq	r0, r1, r1
    3150:	07fb0c00 	ldrbeq	r0, [fp, r0, lsl #24]!
    3154:	024f0000 	subeq	r0, pc, #0, 0
    3158:	90400000 	subls	r0, r0, r0
    315c:	003c0000 	eorseq	r0, ip, r0
    3160:	13140000 	tstne	r4, #0, 0
    3164:	04020000 	streq	r0, [r2], #-0
    3168:	746e6905 	strbtvc	r6, [lr], #-2309	; 0xfffff6fb
    316c:	07040300 	streq	r0, [r4, -r0, lsl #6]
    3170:	000000b8 	strheq	r0, [r0], -r8
    3174:	60060103 	andvs	r0, r6, r3, lsl #2
    3178:	03000000 	movweq	r0, #0
    317c:	00df0502 	sbcseq	r0, pc, r2, lsl #10
    3180:	04030000 	streq	r0, [r3], #-0
    3184:	0000ca05 	andeq	ip, r0, r5, lsl #20
    3188:	05080300 	streq	r0, [r8, #-768]	; 0xfffffd00
    318c:	000000c5 	andeq	r0, r0, r5, asr #1
    3190:	5e080103 	adfple	f0, f0, f3
    3194:	03000000 	movweq	r0, #0
    3198:	00810702 	addeq	r0, r1, r2, lsl #14
    319c:	04030000 	streq	r0, [r3], #-0
    31a0:	0000b307 	andeq	fp, r0, r7, lsl #6
    31a4:	07080300 	streq	r0, [r8, -r0, lsl #6]
    31a8:	000000ae 	andeq	r0, r0, lr, lsr #1
    31ac:	00002504 	andeq	r2, r0, r4, lsl #10
    31b0:	00007a00 	andeq	r7, r0, r0, lsl #20
    31b4:	00250500 	eoreq	r0, r5, r0, lsl #10
    31b8:	06000000 	streq	r0, [r0], -r0
    31bc:	000000d3 	ldrdeq	r0, [r0], -r3
    31c0:	860e1c02 	strhi	r1, [lr], -r2, lsl #24
    31c4:	07000000 	streq	r0, [r0, -r0]
    31c8:	00006b04 	andeq	r6, r0, r4, lsl #22
    31cc:	00250400 	eoreq	r0, r5, r0, lsl #8
    31d0:	009b0000 	addseq	r0, fp, r0
    31d4:	9b050000 	blls	1431dc <__bss_end__+0x139984>
    31d8:	00000000 	andeq	r0, r0, r0
    31dc:	00a80407 	adceq	r0, r8, r7, lsl #8
    31e0:	01030000 	mrseq	r0, (UNDEF: 3)
    31e4:	00006708 	andeq	r6, r0, r8, lsl #14
    31e8:	00a10800 	adceq	r0, r1, r0, lsl #16
    31ec:	7a060000 	bvc	1831f4 <__bss_end__+0x17999c>
    31f0:	02000002 	andeq	r0, r0, #2, 0
    31f4:	00b90e21 	adcseq	r0, r9, r1, lsr #28
    31f8:	04070000 	streq	r0, [r7], #-0
    31fc:	0000008c 	andeq	r0, r0, ip, lsl #1
    3200:	00007a09 	andeq	r7, r0, r9, lsl #20
    3204:	07060100 	streq	r0, [r6, -r0, lsl #2]
    3208:	94480305 	strbls	r0, [r8], #-773	; 0xfffffcfb
    320c:	ee0a0000 	cdp	0, 0, cr0, cr10, cr0, {0}
    3210:	01000007 	tsteq	r0, r7
    3214:	906c060b 	rsbls	r0, ip, fp, lsl #12
    3218:	00100000 	andseq	r0, r0, r0
    321c:	9c010000 	stcls	0, cr0, [r1], {-0}
    3220:	000000f1 	strdeq	r0, [r0], -r1
    3224:	0070660b 	rsbseq	r6, r0, fp, lsl #12
    3228:	86190b01 	ldrhi	r0, [r9], -r1, lsl #22
    322c:	01000000 	mrseq	r0, (UNDEF: 0)
    3230:	0c0c0050 	stceq	0, cr0, [ip], {80}	; 0x50
    3234:	01000008 	tsteq	r0, r8
    3238:	90540608 	subsls	r0, r4, r8, lsl #12
    323c:	00180000 	andseq	r0, r8, r0
    3240:	9c010000 	stcls	0, cr0, [r1], {-0}
    3244:	0007dd0d 	andeq	sp, r7, sp, lsl #26
    3248:	0c030100 	stfeqs	f0, [r3], {-0}
    324c:	00000025 	andeq	r0, r0, r5, lsr #32
    3250:	00009040 	andeq	r9, r0, r0, asr #32
    3254:	00000014 	andeq	r0, r0, r4, lsl r0
    3258:	01409c01 	cmpeq	r0, r1, lsl #24
    325c:	630e0000 	movwvs	r0, #57344	; 0xe000
    3260:	21030100 	mrscs	r0, (UNDEF: 19)
    3264:	00000025 	andeq	r0, r0, r5, lsr #32
    3268:	000016bc 			; <UNDEFINED> instruction: 0x000016bc
    326c:	000016b8 			; <UNDEFINED> instruction: 0x000016b8
    3270:	00904c0f 	addseq	r4, r0, pc, lsl #24
    3274:	00014000 	andeq	r4, r1, r0
    3278:	50011000 	andpl	r1, r1, r0
    327c:	00007402 	andeq	r7, r0, r2, lsl #8
    3280:	07131100 	ldreq	r1, [r3, -r0, lsl #2]
    3284:	07130000 	ldreq	r0, [r3, -r0]
    3288:	42020000 	andmi	r0, r2, #0, 0
    328c:	01370006 	teqeq	r7, r6
    3290:	00040000 	andeq	r0, r4, r0
    3294:	00000f83 	andeq	r0, r0, r3, lsl #31
    3298:	01000104 	tsteq	r0, r4, lsl #2
    329c:	200c0000 	andcs	r0, ip, r0
    32a0:	4f000008 	svcmi	0x00000008
    32a4:	7c000002 	stcvc	0, cr0, [r0], {2}
    32a8:	34000090 	strcc	r0, [r0], #-144	; 0xffffff70
    32ac:	b0000000 	andlt	r0, r0, r0
    32b0:	02000013 	andeq	r0, r0, #19, 0
    32b4:	6e690504 	cdpvs	5, 6, cr0, cr9, cr4, {0}
    32b8:	04030074 	streq	r0, [r3], #-116	; 0xffffff8c
    32bc:	0000b807 	andeq	fp, r0, r7, lsl #16
    32c0:	06010300 	streq	r0, [r1], -r0, lsl #6
    32c4:	00000060 	andeq	r0, r0, r0, rrx
    32c8:	df050203 	svcle	0x00050203
    32cc:	03000000 	movweq	r0, #0
    32d0:	00ca0504 	sbceq	r0, sl, r4, lsl #10
    32d4:	08030000 	stmdaeq	r3, {}	; <UNPREDICTABLE>
    32d8:	0000c505 	andeq	ip, r0, r5, lsl #10
    32dc:	08010300 	stmdaeq	r1, {r8, r9}
    32e0:	0000005e 	andeq	r0, r0, lr, asr r0
    32e4:	81070203 	tsthi	r7, r3, lsl #4
    32e8:	03000000 	movweq	r0, #0
    32ec:	00b30704 	adcseq	r0, r3, r4, lsl #14
    32f0:	08030000 	stmdaeq	r3, {}	; <UNPREDICTABLE>
    32f4:	0000ae07 	andeq	sl, r0, r7, lsl #28
    32f8:	00250400 	eoreq	r0, r5, r0, lsl #8
    32fc:	007a0000 	rsbseq	r0, sl, r0
    3300:	25050000 	strcs	r0, [r5, #-0]
    3304:	00000000 	andeq	r0, r0, r0
    3308:	0000d306 	andeq	sp, r0, r6, lsl #6
    330c:	0e1c0200 	cdpeq	2, 1, cr0, cr12, cr0, {0}
    3310:	00000086 	andeq	r0, r0, r6, lsl #1
    3314:	006b0407 	rsbeq	r0, fp, r7, lsl #8
    3318:	25040000 	strcs	r0, [r4, #-0]
    331c:	9b000000 	blls	3324 <__code_start__-0x4cdc>
    3320:	05000000 	streq	r0, [r0, #-0]
    3324:	0000009b 	muleq	r0, fp, r0
    3328:	a8040700 	stmdage	r4, {r8, r9, sl}
    332c:	03000000 	movweq	r0, #0
    3330:	00670801 	rsbeq	r0, r7, r1, lsl #16
    3334:	a1080000 	mrsge	r0, (UNDEF: 8)
    3338:	06000000 	streq	r0, [r0], -r0
    333c:	0000027a 	andeq	r0, r0, sl, ror r2
    3340:	b90e2102 	stmdblt	lr, {r1, r8, sp}
    3344:	07000000 	streq	r0, [r0, -r0]
    3348:	00008c04 	andeq	r8, r0, r4, lsl #24
    334c:	03330900 	teqeq	r3, #0, 18
    3350:	04010000 	streq	r0, [r1], #-0
    3354:	00013407 	andeq	r3, r1, r7, lsl #8
    3358:	00907c00 	addseq	r7, r0, r0, lsl #24
    335c:	00003400 	andeq	r3, r0, r0, lsl #8
    3360:	349c0100 	ldrcc	r0, [ip], #256	; 0x100
    3364:	0a000001 	beq	3370 <__code_start__-0x4c90>
    3368:	0000081b 	andeq	r0, r0, fp, lsl r8
    336c:	34150401 	ldrcc	r0, [r5], #-1025	; 0xfffffbff
    3370:	01000001 	tsteq	r0, r1
    3374:	72730b50 	rsbsvc	r0, r3, #80, 22	; 0x14000
    3378:	04010063 	streq	r0, [r1], #-99	; 0xffffff9d
    337c:	00009b27 	andeq	r9, r0, r7, lsr #22
    3380:	0016de00 	andseq	sp, r6, r0, lsl #28
    3384:	0016da00 	andseq	sp, r6, r0, lsl #20
    3388:	31730c00 	cmncc	r3, r0, lsl #24
    338c:	0b050100 	bleq	143794 <__bss_end__+0x139f3c>
    3390:	00000134 	andeq	r0, r0, r4, lsr r1
    3394:	00001709 	andeq	r1, r0, r9, lsl #14
    3398:	000016ff 	strdeq	r1, [r0], -pc	; <UNPREDICTABLE>
    339c:	0032730c 	eorseq	r7, r2, ip, lsl #6
    33a0:	9b110601 	blls	444bac <__bss_end__+0x43b354>
    33a4:	4e000000 	cdpmi	0, 0, cr0, cr0, cr0, {0}
    33a8:	4a000017 	bmi	340c <__code_start__-0x4bf4>
    33ac:	0c000017 	stceq	0, cr0, [r0], {23}
    33b0:	07010063 	streq	r0, [r1, -r3, rrx]
    33b4:	0000a10a 	andeq	sl, r0, sl, lsl #2
    33b8:	00177200 	andseq	r7, r7, r0, lsl #4
    33bc:	00176e00 	andseq	r6, r7, r0, lsl #28
    33c0:	04070000 	streq	r0, [r7], #-0
    33c4:	000000a1 	andeq	r0, r0, r1, lsr #1
    33c8:	0000f700 	andeq	pc, r0, r0, lsl #14
    33cc:	39000400 	stmdbcc	r0, {sl}
    33d0:	04000010 	streq	r0, [r0], #-16
    33d4:	00010001 	andeq	r0, r1, r1
    33d8:	08300c00 	ldmdaeq	r0!, {sl, fp}
    33dc:	024f0000 	subeq	r0, pc, #0, 0
    33e0:	90b00000 	adcsls	r0, r0, r0
    33e4:	002c0000 	eoreq	r0, ip, r0
    33e8:	14980000 	ldrne	r0, [r8], #0
    33ec:	04020000 	streq	r0, [r2], #-0
    33f0:	746e6905 	strbtvc	r6, [lr], #-2309	; 0xfffff6fb
    33f4:	07040300 	streq	r0, [r4, -r0, lsl #6]
    33f8:	000000b8 	strheq	r0, [r0], -r8
    33fc:	60060103 	andvs	r0, r6, r3, lsl #2
    3400:	03000000 	movweq	r0, #0
    3404:	00df0502 	sbcseq	r0, pc, r2, lsl #10
    3408:	04030000 	streq	r0, [r3], #-0
    340c:	0000ca05 	andeq	ip, r0, r5, lsl #20
    3410:	05080300 	streq	r0, [r8, #-768]	; 0xfffffd00
    3414:	000000c5 	andeq	r0, r0, r5, asr #1
    3418:	5e080103 	adfple	f0, f0, f3
    341c:	03000000 	movweq	r0, #0
    3420:	00810702 	addeq	r0, r1, r2, lsl #14
    3424:	04030000 	streq	r0, [r3], #-0
    3428:	0000b307 	andeq	fp, r0, r7, lsl #6
    342c:	07080300 	streq	r0, [r8, -r0, lsl #6]
    3430:	000000ae 	andeq	r0, r0, lr, lsr #1
    3434:	00002504 	andeq	r2, r0, r4, lsl #10
    3438:	00007a00 	andeq	r7, r0, r0, lsl #20
    343c:	00250500 	eoreq	r0, r5, r0, lsl #10
    3440:	06000000 	streq	r0, [r0], -r0
    3444:	000000d3 	ldrdeq	r0, [r0], -r3
    3448:	860e1c02 	strhi	r1, [lr], -r2, lsl #24
    344c:	07000000 	streq	r0, [r0, -r0]
    3450:	00006b04 	andeq	r6, r0, r4, lsl #22
    3454:	00250400 	eoreq	r0, r5, r0, lsl #8
    3458:	009b0000 	addseq	r0, fp, r0
    345c:	9b050000 	blls	143464 <__bss_end__+0x139c0c>
    3460:	00000000 	andeq	r0, r0, r0
    3464:	00a80407 	adceq	r0, r8, r7, lsl #8
    3468:	01030000 	mrseq	r0, (UNDEF: 3)
    346c:	00006708 	andeq	r6, r0, r8, lsl #14
    3470:	00a10800 	adceq	r0, r1, r0, lsl #16
    3474:	7a060000 	bvc	18347c <__bss_end__+0x179c24>
    3478:	02000002 	andeq	r0, r0, #2, 0
    347c:	00b90e21 	adcseq	r0, r9, r1, lsr #28
    3480:	04070000 	streq	r0, [r7], #-0
    3484:	0000008c 	andeq	r0, r0, ip, lsl #1
    3488:	00036909 	andeq	r6, r3, r9, lsl #18
    348c:	05030100 	streq	r0, [r3, #-256]	; 0xffffff00
    3490:	00000025 	andeq	r0, r0, r5, lsr #32
    3494:	000090b0 	strheq	r9, [r0], -r0
    3498:	0000002c 	andeq	r0, r0, ip, lsr #32
    349c:	610a9c01 	tstvs	sl, r1, lsl #24
    34a0:	18030100 	stmdane	r3, {r8}
    34a4:	0000009b 	muleq	r0, fp, r0
    34a8:	00001794 	muleq	r0, r4, r7
    34ac:	00001790 	muleq	r0, r0, r7
    34b0:	0100620a 	tsteq	r0, sl, lsl #4
    34b4:	009b2703 	addseq	r2, fp, r3, lsl #14
    34b8:	17b60000 	ldrne	r0, [r6, r0]!
    34bc:	17b20000 	ldrne	r0, [r2, r0]!
    34c0:	00000000 	andeq	r0, r0, r0
    34c4:	0000010f 	andeq	r0, r0, pc, lsl #2
    34c8:	10c80004 	sbcne	r0, r8, r4
    34cc:	01040000 	mrseq	r0, (UNDEF: 4)
    34d0:	00000100 	andeq	r0, r0, r0, lsl #2
    34d4:	0008400c 	andeq	r4, r8, ip
    34d8:	00024f00 	andeq	r4, r2, r0, lsl #30
    34dc:	0090dc00 	addseq	sp, r0, r0, lsl #24
    34e0:	00002000 	andeq	r2, r0, r0
    34e4:	00153900 	andseq	r3, r5, r0, lsl #18
    34e8:	05040200 	streq	r0, [r4, #-512]	; 0xfffffe00
    34ec:	00746e69 	rsbseq	r6, r4, r9, ror #28
    34f0:	b8070403 	stmdalt	r7, {r0, r1, sl}
    34f4:	03000000 	movweq	r0, #0
    34f8:	00600601 	rsbeq	r0, r0, r1, lsl #12
    34fc:	02030000 	andeq	r0, r3, #0, 0
    3500:	0000df05 	andeq	sp, r0, r5, lsl #30
    3504:	05040300 	streq	r0, [r4, #-768]	; 0xfffffd00
    3508:	000000ca 	andeq	r0, r0, sl, asr #1
    350c:	c5050803 	strgt	r0, [r5, #-2051]	; 0xfffff7fd
    3510:	03000000 	movweq	r0, #0
    3514:	005e0801 	subseq	r0, lr, r1, lsl #16
    3518:	02030000 	andeq	r0, r3, #0, 0
    351c:	00008107 	andeq	r8, r0, r7, lsl #2
    3520:	07040300 	streq	r0, [r4, -r0, lsl #6]
    3524:	000000b3 	strheq	r0, [r0], -r3
    3528:	ae070803 	cdpge	8, 0, cr0, cr7, cr3, {0}
    352c:	04000000 	streq	r0, [r0], #-0
    3530:	00000025 	andeq	r0, r0, r5, lsr #32
    3534:	0000007a 	andeq	r0, r0, sl, ror r0
    3538:	00002505 	andeq	r2, r0, r5, lsl #10
    353c:	d3060000 	movwle	r0, #24576	; 0x6000
    3540:	02000000 	andeq	r0, r0, #0, 0
    3544:	00860e1c 	addeq	r0, r6, ip, lsl lr
    3548:	04070000 	streq	r0, [r7], #-0
    354c:	0000006b 	andeq	r0, r0, fp, rrx
    3550:	00002504 	andeq	r2, r0, r4, lsl #10
    3554:	00009b00 	andeq	r9, r0, r0, lsl #22
    3558:	009b0500 	addseq	r0, fp, r0, lsl #10
    355c:	07000000 	streq	r0, [r0, -r0]
    3560:	0000a804 	andeq	sl, r0, r4, lsl #16
    3564:	08010300 	stmdaeq	r1, {r8, r9}
    3568:	00000067 	andeq	r0, r0, r7, rrx
    356c:	0000a108 	andeq	sl, r0, r8, lsl #2
    3570:	027a0600 	rsbseq	r0, sl, #0, 12
    3574:	21020000 	mrscs	r0, (UNDEF: 2)
    3578:	0000b90e 	andeq	fp, r0, lr, lsl #18
    357c:	8c040700 	stchi	7, cr0, [r4], {-0}
    3580:	09000000 	stmdbeq	r0, {}	; <UNPREDICTABLE>
    3584:	0000033a 	andeq	r0, r0, sl, lsr r3
    3588:	0c070301 	stceq	3, cr0, [r7], {1}
    358c:	dc000001 	stcle	0, cr0, [r0], {1}
    3590:	20000090 	mulcs	r0, r0, r0
    3594:	01000000 	mrseq	r0, (UNDEF: 0)
    3598:	00010c9c 	muleq	r1, ip, ip
    359c:	31730a00 	cmncc	r3, r0, lsl #20
    35a0:	15030100 	strne	r0, [r3, #-256]	; 0xffffff00
    35a4:	0000010c 	andeq	r0, r0, ip, lsl #2
    35a8:	730b5001 	movwvc	r5, #45057	; 0xb001
    35ac:	03010032 	movweq	r0, #4146	; 0x1032
    35b0:	00009b26 	andeq	r9, r0, r6, lsr #22
    35b4:	0017da00 	andseq	sp, r7, r0, lsl #20
    35b8:	0017d400 	andseq	sp, r7, r0, lsl #8
    35bc:	00730c00 	rsbseq	r0, r3, r0, lsl #24
    35c0:	0c140401 	cfldrseq	mvf0, [r4], {1}
    35c4:	0b000001 	bleq	35d0 <__code_start__-0x4a30>
    35c8:	05000018 	streq	r0, [r0, #-24]	; 0xffffffe8
    35cc:	00000018 	andeq	r0, r0, r8, lsl r0
    35d0:	00a10407 	adceq	r0, r1, r7, lsl #8
    35d4:	4e000000 	cdpmi	0, 0, cr0, cr0, cr0, {0}
    35d8:	04000001 	streq	r0, [r0], #-1
    35dc:	00117e00 	andseq	r7, r1, r0, lsl #28
    35e0:	00010400 	andeq	r0, r1, r0, lsl #8
    35e4:	0c000001 	stceq	0, cr0, [r0], {1}
    35e8:	00000857 	andeq	r0, r0, r7, asr r8
    35ec:	0000024f 	andeq	r0, r0, pc, asr #4
    35f0:	00000020 	andeq	r0, r0, r0, lsr #32
    35f4:	00000000 	andeq	r0, r0, r0
    35f8:	000015d8 	ldrdeq	r1, [r0], -r8
    35fc:	69050402 	stmdbvs	r5, {r1, sl}
    3600:	0300746e 	movweq	r7, #1134	; 0x46e
    3604:	00000850 	andeq	r0, r0, r0, asr r8
    3608:	3817d103 	ldmdacc	r7, {r0, r1, r8, ip, lr, pc}
    360c:	04000000 	streq	r0, [r0], #-0
    3610:	00b80704 	adcseq	r0, r8, r4, lsl #14
    3614:	01040000 	mrseq	r0, (UNDEF: 4)
    3618:	00006006 	andeq	r6, r0, r6
    361c:	05020400 	streq	r0, [r2, #-1024]	; 0xfffffc00
    3620:	000000df 	ldrdeq	r0, [r0], -pc	; <UNPREDICTABLE>
    3624:	ca050404 	bgt	14463c <__bss_end__+0x13ade4>
    3628:	04000000 	streq	r0, [r0], #-0
    362c:	00c50508 	sbceq	r0, r5, r8, lsl #10
    3630:	01040000 	mrseq	r0, (UNDEF: 4)
    3634:	00005e08 	andeq	r5, r0, r8, lsl #28
    3638:	005b0500 	subseq	r0, fp, r0, lsl #10
    363c:	02040000 	andeq	r0, r4, #0, 0
    3640:	00008107 	andeq	r8, r0, r7, lsl #2
    3644:	07040400 	streq	r0, [r4, -r0, lsl #8]
    3648:	000000b3 	strheq	r0, [r0], -r3
    364c:	ae070804 	cdpge	8, 0, cr0, cr7, cr4, {0}
    3650:	06000000 	streq	r0, [r0], -r0
    3654:	00000025 	andeq	r0, r0, r5, lsr #32
    3658:	0000008b 	andeq	r0, r0, fp, lsl #1
    365c:	00002507 	andeq	r2, r0, r7, lsl #10
    3660:	d3080000 	movwle	r0, #32768	; 0x8000
    3664:	02000000 	andeq	r0, r0, #0, 0
    3668:	00970e1c 	addseq	r0, r7, ip, lsl lr
    366c:	04090000 	streq	r0, [r9], #-0
    3670:	0000007c 	andeq	r0, r0, ip, ror r0
    3674:	00002506 	andeq	r2, r0, r6, lsl #10
    3678:	0000ac00 	andeq	sl, r0, r0, lsl #24
    367c:	00ac0700 	adceq	r0, ip, r0, lsl #14
    3680:	09000000 	stmdbeq	r0, {}	; <UNPREDICTABLE>
    3684:	0000b904 	andeq	fp, r0, r4, lsl #18
    3688:	08010400 	stmdaeq	r1, {sl}
    368c:	00000067 	andeq	r0, r0, r7, rrx
    3690:	0000b205 	andeq	fp, r0, r5, lsl #4
    3694:	027a0800 	rsbseq	r0, sl, #0, 16
    3698:	21020000 	mrscs	r0, (UNDEF: 2)
    369c:	0000ca0e 	andeq	ip, r0, lr, lsl #20
    36a0:	9d040900 	vstrls.16	s0, [r4, #-0]	; <UNPREDICTABLE>
    36a4:	0a000000 	beq	36ac <__code_start__-0x4954>
    36a8:	00000391 	muleq	r0, r1, r3
    36ac:	25050401 	strcs	r0, [r5, #-1025]	; 0xfffffbff
    36b0:	fc000000 	stc2	0, cr0, [r0], {-0}
    36b4:	2c000090 	stccs	0, cr0, [r0], {144}	; 0x90
    36b8:	01000000 	mrseq	r0, (UNDEF: 0)
    36bc:	00014b9c 	muleq	r1, ip, fp
    36c0:	735f0b00 	cmpvc	pc, #0, 22
    36c4:	04010031 	streq	r0, [r1], #-49	; 0xffffffcf
    36c8:	0000ac19 	andeq	sl, r0, r9, lsl ip
    36cc:	00183a00 	andseq	r3, r8, r0, lsl #20
    36d0:	00183600 	andseq	r3, r8, r0, lsl #12
    36d4:	735f0b00 	cmpvc	pc, #0, 22
    36d8:	04010032 	streq	r0, [r1], #-50	; 0xffffffce
    36dc:	0000ac2a 	andeq	sl, r0, sl, lsr #24
    36e0:	00185f00 	andseq	r5, r8, r0, lsl #30
    36e4:	00185b00 	andseq	r5, r8, r0, lsl #22
    36e8:	006e0b00 	rsbeq	r0, lr, r0, lsl #22
    36ec:	2c360401 	cfldrscs	mvf0, [r6], #-4
    36f0:	86000000 	strhi	r0, [r0], -r0
    36f4:	80000018 	andhi	r0, r0, r8, lsl r0
    36f8:	0c000018 	stceq	0, cr0, [r0], {24}
    36fc:	01003173 	tsteq	r0, r3, ror r1
    3700:	014b1a05 	cmpeq	fp, r5, lsl #20
    3704:	18b90000 	ldmne	r9!, {}	; <UNPREDICTABLE>
    3708:	18b10000 	ldmne	r1!, {}	; <UNPREDICTABLE>
    370c:	730c0000 	movwvc	r0, #49152	; 0xc000
    3710:	05010032 	streq	r0, [r1, #-50]	; 0xffffffce
    3714:	00014b2c 	andeq	r4, r1, ip, lsr #22
    3718:	0018f500 	andseq	pc, r8, r0, lsl #10
    371c:	0018ef00 	andseq	lr, r8, r0, lsl #30
    3720:	04090000 	streq	r0, [r9], #-0
    3724:	00000062 	andeq	r0, r0, r2, rrx
    3728:	0000ce00 	andeq	ip, r0, r0, lsl #28
    372c:	32000400 	andcc	r0, r0, #0, 8
    3730:	04000012 	streq	r0, [r0], #-18	; 0xffffffee
    3734:	00010001 	andeq	r0, r1, r1
    3738:	08680c00 	stmdaeq	r8!, {sl, fp}^
    373c:	024f0000 	subeq	r0, pc, #0, 0
    3740:	91280000 			; <UNDEFINED> instruction: 0x91280000
    3744:	00040000 	andeq	r0, r4, r0
    3748:	16da0000 	ldrbne	r0, [sl], r0
    374c:	04020000 	streq	r0, [r2], #-0
    3750:	746e6905 	strbtvc	r6, [lr], #-2309	; 0xfffff6fb
    3754:	07040300 	streq	r0, [r4, -r0, lsl #6]
    3758:	000000b8 	strheq	r0, [r0], -r8
    375c:	60060103 	andvs	r0, r6, r3, lsl #2
    3760:	03000000 	movweq	r0, #0
    3764:	00df0502 	sbcseq	r0, pc, r2, lsl #10
    3768:	04030000 	streq	r0, [r3], #-0
    376c:	0000ca05 	andeq	ip, r0, r5, lsl #20
    3770:	05080300 	streq	r0, [r8, #-768]	; 0xfffffd00
    3774:	000000c5 	andeq	r0, r0, r5, asr #1
    3778:	5e080103 	adfple	f0, f0, f3
    377c:	03000000 	movweq	r0, #0
    3780:	00810702 	addeq	r0, r1, r2, lsl #14
    3784:	04030000 	streq	r0, [r3], #-0
    3788:	0000b307 	andeq	fp, r0, r7, lsl #6
    378c:	07080300 	streq	r0, [r8, -r0, lsl #6]
    3790:	000000ae 	andeq	r0, r0, lr, lsr #1
    3794:	00002504 	andeq	r2, r0, r4, lsl #10
    3798:	00007a00 	andeq	r7, r0, r0, lsl #20
    379c:	00250500 	eoreq	r0, r5, r0, lsl #10
    37a0:	06000000 	streq	r0, [r0], -r0
    37a4:	000000d3 	ldrdeq	r0, [r0], -r3
    37a8:	860e1c02 	strhi	r1, [lr], -r2, lsl #24
    37ac:	07000000 	streq	r0, [r0, -r0]
    37b0:	00006b04 	andeq	r6, r0, r4, lsl #22
    37b4:	00250400 	eoreq	r0, r5, r0, lsl #8
    37b8:	009b0000 	addseq	r0, fp, r0
    37bc:	9b050000 	blls	1437c4 <__bss_end__+0x139f6c>
    37c0:	00000000 	andeq	r0, r0, r0
    37c4:	00a80407 	adceq	r0, r8, r7, lsl #8
    37c8:	01030000 	mrseq	r0, (UNDEF: 3)
    37cc:	00006708 	andeq	r6, r0, r8, lsl #14
    37d0:	00a10800 	adceq	r0, r1, r0, lsl #16
    37d4:	7a060000 	bvc	1837dc <__bss_end__+0x179f84>
    37d8:	02000002 	andeq	r0, r0, #2, 0
    37dc:	00b90e21 	adcseq	r0, r9, r1, lsr #28
    37e0:	04070000 	streq	r0, [r7], #-0
    37e4:	0000008c 	andeq	r0, r0, ip, lsl #1
    37e8:	00045f09 	andeq	r5, r4, r9, lsl #30
    37ec:	06030100 	streq	r0, [r3], -r0, lsl #2
    37f0:	00009128 	andeq	r9, r0, r8, lsr #2
    37f4:	00000004 	andeq	r0, r0, r4
    37f8:	Address 0x00000000000037f8 is out of bounds.


Disassembly of section .debug_abbrev:

00000000 <.debug_abbrev>:
       0:	25011101 	strcs	r1, [r1, #-257]	; 0xfffffeff
       4:	030b130e 	movweq	r1, #45838	; 0xb30e
       8:	110e1b0e 	tstne	lr, lr, lsl #22
       c:	10061201 	andne	r1, r6, r1, lsl #4
      10:	02000017 	andeq	r0, r0, #23, 0
      14:	0b0b0024 	bleq	2c00ac <__bss_end__+0x2b6854>
      18:	08030b3e 	stmdaeq	r3, {r1, r2, r3, r4, r5, r8, r9, fp}
      1c:	35030000 	strcc	r0, [r3, #-0]
      20:	00134900 	andseq	r4, r3, r0, lsl #18
      24:	00240400 	eoreq	r0, r4, r0, lsl #8
      28:	0b3e0b0b 	bleq	f82c5c <__bss_end__+0xf79404>
      2c:	00000e03 	andeq	r0, r0, r3, lsl #28
      30:	27011505 	strcs	r1, [r1, -r5, lsl #10]
      34:	01134919 	tsteq	r3, r9, lsl r9
      38:	06000013 			; <UNDEFINED> instruction: 0x06000013
      3c:	13490005 	movtne	r0, #36869	; 0x9005
      40:	34070000 	strcc	r0, [r7], #-0
      44:	3a0e0300 	bcc	380c4c <__bss_end__+0x3773f4>
      48:	390b3b0b 	stmdbcc	fp, {r0, r1, r3, r8, r9, fp, ip, sp}
      4c:	3f13490b 	svccc	0x0013490b
      50:	00193c19 	andseq	r3, r9, r9, lsl ip
      54:	000f0800 	andeq	r0, pc, r0, lsl #16
      58:	13490b0b 	movtne	r0, #39691	; 0x9b0b
      5c:	26090000 	strcs	r0, [r9], -r0
      60:	00134900 	andseq	r4, r3, r0, lsl #18
      64:	00340a00 	eorseq	r0, r4, r0, lsl #20
      68:	0b3a0803 	bleq	e8207c <__bss_end__+0xe78824>
      6c:	0b390b3b 	bleq	e42d60 <__bss_end__+0xe39508>
      70:	18021349 	stmdane	r2, {r0, r3, r6, r8, r9, ip}
      74:	2e0b0000 	cdpcs	0, 0, cr0, cr11, cr0, {0}
      78:	03193f01 	tsteq	r9, #1, 30
      7c:	3b0b3a0e 	blcc	2ce8bc <__bss_end__+0x2c5064>
      80:	270b390b 	strcs	r3, [fp, -fp, lsl #18]
      84:	12011119 	andne	r1, r1, #1073741830	; 0x40000006
      88:	97184006 	ldrls	r4, [r8, -r6]
      8c:	13011942 	movwne	r1, #6466	; 0x1942
      90:	0b0c0000 	bleq	300098 <__bss_end__+0x2f6840>
      94:	12011101 	andne	r1, r1, #1073741824	; 0x40000000
      98:	00130106 	andseq	r0, r3, r6, lsl #2
      9c:	00340d00 	eorseq	r0, r4, r0, lsl #26
      a0:	0b3a0803 	bleq	e820b4 <__bss_end__+0xe7885c>
      a4:	0b390b3b 	bleq	e42d98 <__bss_end__+0xe39540>
      a8:	0b1c1349 	bleq	704dd4 <__bss_end__+0x6fb57c>
      ac:	890e0000 	stmdbhi	lr, {}	; <UNPREDICTABLE>
      b0:	11010182 	smlabbne	r1, r2, r1, r0
      b4:	01133101 	tsteq	r3, r1, lsl #2
      b8:	0f000013 	svceq	0x00000013
      bc:	0001828a 	andeq	r8, r1, sl, lsl #5
      c0:	42911802 	addsmi	r1, r1, #131072	; 0x20000
      c4:	10000018 	andne	r0, r0, r8, lsl r0
      c8:	00018289 	andeq	r8, r1, r9, lsl #5
      cc:	13310111 	teqne	r1, #1073741828	; 0x40000004
      d0:	05110000 	ldreq	r0, [r1, #-0]
      d4:	3a080300 	bcc	200cdc <__bss_end__+0x1f7484>
      d8:	390b3b0b 	stmdbcc	fp, {r0, r1, r3, r8, r9, fp, ip, sp}
      dc:	0213490b 	andseq	r4, r3, #180224	; 0x2c000
      e0:	1742b717 	smlaldne	fp, r2, r7, r7
      e4:	34120000 	ldrcc	r0, [r2], #-0
      e8:	3a0e0300 	bcc	380cf0 <__bss_end__+0x377498>
      ec:	390b3b0b 	stmdbcc	fp, {r0, r1, r3, r8, r9, fp, ip, sp}
      f0:	0213490b 	andseq	r4, r3, #180224	; 0x2c000
      f4:	1742b717 	smlaldne	fp, r2, r7, r7
      f8:	34130000 	ldrcc	r0, [r3], #-0
      fc:	3a080300 	bcc	200d04 <__bss_end__+0x1f74ac>
     100:	390b3b0b 	stmdbcc	fp, {r0, r1, r3, r8, r9, fp, ip, sp}
     104:	0213490b 	andseq	r4, r3, #180224	; 0x2c000
     108:	1742b717 	smlaldne	fp, r2, r7, r7
     10c:	0b140000 	bleq	500114 <__bss_end__+0x4f68bc>
     110:	12011101 	andne	r1, r1, #1073741824	; 0x40000000
     114:	15000006 	strne	r0, [r0, #-6]
     118:	01018289 	smlabbeq	r1, r9, r2, r8
     11c:	13310111 	teqne	r1, #1073741828	; 0x40000004
     120:	2e160000 	cdpcs	0, 1, cr0, cr6, cr0, {0}
     124:	03193f01 	tsteq	r9, #1, 30
     128:	3b0b3a0e 	blcc	2ce968 <__bss_end__+0x2c5110>
     12c:	270b390b 	strcs	r3, [fp, -fp, lsl #18]
     130:	11134919 	tstne	r3, r9, lsl r9
     134:	40061201 	andmi	r1, r6, r1, lsl #4
     138:	19429718 	stmdbne	r2, {r3, r4, r8, r9, sl, ip, pc}^
     13c:	00001301 	andeq	r1, r0, r1, lsl #6
     140:	3f002e17 	svccc	0x00002e17
     144:	6e193c19 	mrcvs	12, 0, r3, cr9, cr9, {0}
     148:	3a0e030e 	bcc	380d88 <__bss_end__+0x377530>
     14c:	390b3b0b 	stmdbcc	fp, {r0, r1, r3, r8, r9, fp, ip, sp}
     150:	0000000b 	andeq	r0, r0, fp
     154:	25011101 	strcs	r1, [r1, #-257]	; 0xfffffeff
     158:	030b130e 	movweq	r1, #45838	; 0xb30e
     15c:	110e1b0e 	tstne	lr, lr, lsl #22
     160:	10061201 	andne	r1, r6, r1, lsl #4
     164:	02000017 	andeq	r0, r0, #23, 0
     168:	0b0b0024 	bleq	2c0200 <__bss_end__+0x2b69a8>
     16c:	08030b3e 	stmdaeq	r3, {r1, r2, r3, r4, r5, r8, r9, fp}
     170:	35030000 	strcc	r0, [r3, #-0]
     174:	00134900 	andseq	r4, r3, r0, lsl #18
     178:	00240400 	eoreq	r0, r4, r0, lsl #8
     17c:	0b3e0b0b 	bleq	f82db0 <__bss_end__+0xf79558>
     180:	00000e03 	andeq	r0, r0, r3, lsl #28
     184:	27011505 	strcs	r1, [r1, -r5, lsl #10]
     188:	01134919 	tsteq	r3, r9, lsl r9
     18c:	06000013 			; <UNDEFINED> instruction: 0x06000013
     190:	13490005 	movtne	r0, #36869	; 0x9005
     194:	34070000 	strcc	r0, [r7], #-0
     198:	3a0e0300 	bcc	380da0 <__bss_end__+0x377548>
     19c:	390b3b0b 	stmdbcc	fp, {r0, r1, r3, r8, r9, fp, ip, sp}
     1a0:	3f13490b 	svccc	0x0013490b
     1a4:	00193c19 	andseq	r3, r9, r9, lsl ip
     1a8:	000f0800 	andeq	r0, pc, r0, lsl #16
     1ac:	13490b0b 	movtne	r0, #39691	; 0x9b0b
     1b0:	26090000 	strcs	r0, [r9], -r0
     1b4:	00134900 	andseq	r4, r3, r0, lsl #18
     1b8:	00340a00 	eorseq	r0, r4, r0, lsl #20
     1bc:	0b3a0803 	bleq	e821d0 <__bss_end__+0xe78978>
     1c0:	0b390b3b 	bleq	e42eb4 <__bss_end__+0xe3965c>
     1c4:	18021349 	stmdane	r2, {r0, r3, r6, r8, r9, ip}
     1c8:	2e0b0000 	cdpcs	0, 0, cr0, cr11, cr0, {0}
     1cc:	03193f01 	tsteq	r9, #1, 30
     1d0:	3b0b3a0e 	blcc	2cea10 <__bss_end__+0x2c51b8>
     1d4:	270b390b 	strcs	r3, [fp, -fp, lsl #18]
     1d8:	11134919 	tstne	r3, r9, lsl r9
     1dc:	40061201 	andmi	r1, r6, r1, lsl #4
     1e0:	19429718 	stmdbne	r2, {r3, r4, r8, r9, sl, ip, pc}^
     1e4:	00001301 	andeq	r1, r0, r1, lsl #6
     1e8:	0300340c 	movweq	r3, #1036	; 0x40c
     1ec:	3b0b3a08 	blcc	2cea14 <__bss_end__+0x2c51bc>
     1f0:	490b390b 	stmdbmi	fp, {r0, r1, r3, r8, fp, ip, sp}
     1f4:	b7170213 			; <UNDEFINED> instruction: 0xb7170213
     1f8:	00001742 	andeq	r1, r0, r2, asr #14
     1fc:	11010b0d 	tstne	r1, sp, lsl #22
     200:	01061201 	tsteq	r6, r1, lsl #4
     204:	0e000013 	mcreq	0, 0, r0, cr0, cr3, {0}
     208:	0e030034 	mcreq	0, 0, r0, cr3, cr4, {1}
     20c:	0b3b0b3a 	bleq	ec2efc <__bss_end__+0xeb96a4>
     210:	13490b39 	movtne	r0, #39737	; 0x9b39
     214:	42b71702 	adcsmi	r1, r7, #524288	; 0x80000
     218:	0f000017 	svceq	0x00000017
     21c:	0111010b 	tsteq	r1, fp, lsl #2
     220:	00000612 	andeq	r0, r0, r2, lsl r6
     224:	03000510 	movweq	r0, #1296	; 0x510
     228:	3b0b3a08 	blcc	2cea50 <__bss_end__+0x2c51f8>
     22c:	490b390b 	stmdbmi	fp, {r0, r1, r3, r8, fp, ip, sp}
     230:	b7170213 			; <UNDEFINED> instruction: 0xb7170213
     234:	00001742 	andeq	r1, r0, r2, asr #14
     238:	01828911 	orreq	r8, r2, r1, lsl r9
     23c:	31011101 	tstcc	r1, r1, lsl #2
     240:	12000013 	andne	r0, r0, #19, 0
     244:	0001828a 	andeq	r8, r1, sl, lsl #5
     248:	42911802 	addsmi	r1, r1, #131072	; 0x20000
     24c:	13000018 	movwne	r0, #24
     250:	193f002e 	ldmdbne	pc!, {r1, r2, r3, r5}	; <UNPREDICTABLE>
     254:	0e6e193c 			; <UNDEFINED> instruction: 0x0e6e193c
     258:	0b3a0e03 	bleq	e83a6c <__bss_end__+0xe7a214>
     25c:	0b390b3b 	bleq	e42f50 <__bss_end__+0xe396f8>
     260:	01000000 	mrseq	r0, (UNDEF: 0)
     264:	0e250111 	mcreq	1, 1, r0, cr5, cr1, {0}
     268:	0e030b13 	vmoveq.32	d3[0], r0
     26c:	01110e1b 	tsteq	r1, fp, lsl lr
     270:	17100612 			; <UNDEFINED> instruction: 0x17100612
     274:	16020000 	strne	r0, [r2], -r0
     278:	3a0e0300 	bcc	380e80 <__bss_end__+0x377628>
     27c:	390b3b0b 	stmdbcc	fp, {r0, r1, r3, r8, r9, fp, ip, sp}
     280:	0013490b 	andseq	r4, r3, fp, lsl #18
     284:	01130300 	tsteq	r3, r0, lsl #6
     288:	0b0b0e03 	bleq	2c3a9c <__bss_end__+0x2ba244>
     28c:	0b3b0b3a 	bleq	ec2f7c <__bss_end__+0xeb9724>
     290:	00001301 	andeq	r1, r0, r1, lsl #6
     294:	03000d04 	movweq	r0, #3332	; 0xd04
     298:	3813490e 	ldmdacc	r3, {r1, r2, r3, r8, fp, lr}
     29c:	0019340b 	andseq	r3, r9, fp, lsl #8
     2a0:	000f0500 	andeq	r0, pc, r0, lsl #10
     2a4:	00000b0b 	andeq	r0, r0, fp, lsl #22
     2a8:	0b002406 	bleq	92c8 <__code_end__+0x184>
     2ac:	030b3e0b 	movweq	r3, #48651	; 0xbe0b
     2b0:	07000008 	streq	r0, [r0, -r8]
     2b4:	0b0b0024 	bleq	2c034c <__bss_end__+0x2b6af4>
     2b8:	0e030b3e 	vmoveq.16	d3[0], r0
     2bc:	15080000 	strne	r0, [r8, #-0]
     2c0:	49192701 	ldmdbmi	r9, {r0, r8, r9, sl, sp}
     2c4:	00130113 	andseq	r0, r3, r3, lsl r1
     2c8:	00050900 	andeq	r0, r5, r0, lsl #18
     2cc:	00001349 	andeq	r1, r0, r9, asr #6
     2d0:	0300340a 	movweq	r3, #1034	; 0x40a
     2d4:	3b0b3a0e 	blcc	2ceb14 <__bss_end__+0x2c52bc>
     2d8:	490b390b 	stmdbmi	fp, {r0, r1, r3, r8, fp, ip, sp}
     2dc:	3c193f13 	ldccc	15, cr3, [r9], {19}
     2e0:	0b000019 	bleq	34c <__code_start__-0x7cb4>
     2e4:	0b0b000f 	bleq	2c0328 <__bss_end__+0x2b6ad0>
     2e8:	00001349 	andeq	r1, r0, r9, asr #6
     2ec:	4900260c 	stmdbmi	r0, {r2, r3, r9, sl, sp}
     2f0:	0d000013 	stceq	0, cr0, [r0, #-76]	; 0xffffffb4
     2f4:	193f012e 	ldmdbne	pc!, {r1, r2, r3, r5, r8}	; <UNPREDICTABLE>
     2f8:	0b3a0e03 	bleq	e83b0c <__bss_end__+0xe7a2b4>
     2fc:	0b390b3b 	bleq	e42ff0 <__bss_end__+0xe39798>
     300:	13491927 	movtne	r1, #39207	; 0x9927
     304:	06120111 			; <UNDEFINED> instruction: 0x06120111
     308:	42971840 	addsmi	r1, r7, #64, 16	; 0x400000
     30c:	00130119 	andseq	r0, r3, r9, lsl r1
     310:	00050e00 	andeq	r0, r5, r0, lsl #28
     314:	0b3a0803 	bleq	e82328 <__bss_end__+0xe78ad0>
     318:	0b390b3b 	bleq	e4300c <__bss_end__+0xe397b4>
     31c:	18021349 	stmdane	r2, {r0, r3, r6, r8, r9, ip}
     320:	180f0000 	stmdane	pc, {}	; <UNPREDICTABLE>
     324:	10000000 	andne	r0, r0, r0
     328:	08030034 	stmdaeq	r3, {r2, r4, r5}
     32c:	0b3b0b3a 	bleq	ec301c <__bss_end__+0xeb97c4>
     330:	13490b39 	movtne	r0, #39737	; 0x9b39
     334:	00001802 	andeq	r1, r0, r2, lsl #16
     338:	03003411 	movweq	r3, #1041	; 0x411
     33c:	3b0b3a0e 	blcc	2ceb7c <__bss_end__+0x2c5324>
     340:	490b390b 	stmdbmi	fp, {r0, r1, r3, r8, fp, ip, sp}
     344:	00180213 	andseq	r0, r8, r3, lsl r2
     348:	00341200 	eorseq	r1, r4, r0, lsl #4
     34c:	0b3a0803 	bleq	e82360 <__bss_end__+0xe78b08>
     350:	0b390b3b 	bleq	e43044 <__bss_end__+0xe397ec>
     354:	17021349 	strne	r1, [r2, -r9, asr #6]
     358:	001742b7 			; <UNDEFINED> instruction: 0x001742b7
     35c:	82891300 	addhi	r1, r9, #0, 6
     360:	01110101 	tsteq	r1, r1, lsl #2
     364:	13011331 	movwne	r1, #4913	; 0x1331
     368:	8a140000 	bhi	500370 <__bss_end__+0x4f6b18>
     36c:	02000182 	andeq	r0, r0, #-2147483616	; 0x80000020
     370:	18429118 	stmdane	r2, {r3, r4, r8, ip, pc}^
     374:	89150000 	ldmdbhi	r5, {}	; <UNPREDICTABLE>
     378:	11010182 	smlabbne	r1, r2, r1, r0
     37c:	16000001 	strne	r0, [r0], -r1
     380:	13490101 	movtne	r0, #37121	; 0x9101
     384:	00001301 	andeq	r1, r0, r1, lsl #6
     388:	49002117 	stmdbmi	r0, {r0, r1, r2, r4, r8, sp}
     38c:	00052f13 	andeq	r2, r5, r3, lsl pc
     390:	002e1800 	eoreq	r1, lr, r0, lsl #16
     394:	193c193f 	ldmdbne	ip!, {r0, r1, r2, r3, r4, r5, r8, fp, ip}
     398:	0e030e6e 	cdpeq	14, 0, cr0, cr3, cr14, {3}
     39c:	0b3b0b3a 	bleq	ec308c <__bss_end__+0xeb9834>
     3a0:	00000b39 	andeq	r0, r0, r9, lsr fp
     3a4:	01110100 	tsteq	r1, r0, lsl #2
     3a8:	0b130e25 	bleq	4c3c44 <__bss_end__+0x4ba3ec>
     3ac:	0e1b0e03 	cdpeq	14, 1, cr0, cr11, cr3, {0}
     3b0:	06120111 			; <UNDEFINED> instruction: 0x06120111
     3b4:	00001710 	andeq	r1, r0, r0, lsl r7
     3b8:	0b002402 	bleq	93c8 <__code_end__+0x284>
     3bc:	030b3e0b 	movweq	r3, #48651	; 0xbe0b
     3c0:	03000008 	movweq	r0, #8
     3c4:	0b0b0024 	bleq	2c045c <__bss_end__+0x2b6c04>
     3c8:	0e030b3e 	vmoveq.16	d3[0], r0
     3cc:	15040000 	strne	r0, [r4, #-0]
     3d0:	49192701 	ldmdbmi	r9, {r0, r8, r9, sl, sp}
     3d4:	00130113 	andseq	r0, r3, r3, lsl r1
     3d8:	00050500 	andeq	r0, r5, r0, lsl #10
     3dc:	00001349 	andeq	r1, r0, r9, asr #6
     3e0:	03003406 	movweq	r3, #1030	; 0x406
     3e4:	3b0b3a0e 	blcc	2cec24 <__bss_end__+0x2c53cc>
     3e8:	490b390b 	stmdbmi	fp, {r0, r1, r3, r8, fp, ip, sp}
     3ec:	3c193f13 	ldccc	15, cr3, [r9], {19}
     3f0:	07000019 	smladeq	r0, r9, r0, r0
     3f4:	0b0b000f 	bleq	2c0438 <__bss_end__+0x2b6be0>
     3f8:	00001349 	andeq	r1, r0, r9, asr #6
     3fc:	49002608 	stmdbmi	r0, {r3, r9, sl, sp}
     400:	09000013 	stmdbeq	r0, {r0, r1, r4}
     404:	13470034 	movtne	r0, #28724	; 0x7034
     408:	0b3b0b3a 	bleq	ec30f8 <__bss_end__+0xeb98a0>
     40c:	18020b39 	stmdane	r2, {r0, r3, r4, r5, r8, r9, fp}
     410:	2e0a0000 	cdpcs	0, 0, cr0, cr10, cr0, {0}
     414:	03193f01 	tsteq	r9, #1, 30
     418:	3b0b3a0e 	blcc	2cec58 <__bss_end__+0x2c5400>
     41c:	270b390b 	strcs	r3, [fp, -fp, lsl #18]
     420:	11134919 	tstne	r3, r9, lsl r9
     424:	40061201 	andmi	r1, r6, r1, lsl #4
     428:	19429618 	stmdbne	r2, {r3, r4, r9, sl, ip, pc}^
     42c:	050b0000 	streq	r0, [fp, #-0]
     430:	3a080300 	bcc	201038 <__bss_end__+0x1f77e0>
     434:	390b3b0b 	stmdbcc	fp, {r0, r1, r3, r8, r9, fp, ip, sp}
     438:	0213490b 	andseq	r4, r3, #180224	; 0x2c000
     43c:	1742b717 	smlaldne	fp, r2, r7, r7
     440:	01000000 	mrseq	r0, (UNDEF: 0)
     444:	0e250111 	mcreq	1, 1, r0, cr5, cr1, {0}
     448:	0e030b13 	vmoveq.32	d3[0], r0
     44c:	01110e1b 	tsteq	r1, fp, lsl lr
     450:	17100612 			; <UNDEFINED> instruction: 0x17100612
     454:	24020000 	strcs	r0, [r2], #-0
     458:	3e0b0b00 	vmlacc.f64	d0, d11, d0
     45c:	0008030b 	andeq	r0, r8, fp, lsl #6
     460:	00240300 	eoreq	r0, r4, r0, lsl #6
     464:	0b3e0b0b 	bleq	f83098 <__bss_end__+0xf79840>
     468:	00000e03 	andeq	r0, r0, r3, lsl #28
     46c:	03001604 	movweq	r1, #1540	; 0x604
     470:	3b0b3a0e 	blcc	2cecb0 <__bss_end__+0x2c5458>
     474:	490b390b 	stmdbmi	fp, {r0, r1, r3, r8, fp, ip, sp}
     478:	05000013 	streq	r0, [r0, #-19]	; 0xffffffed
     47c:	19270115 	stmdbne	r7!, {r0, r2, r4, r8}
     480:	13011349 	movwne	r1, #4937	; 0x1349
     484:	05060000 	streq	r0, [r6, #-0]
     488:	00134900 	andseq	r4, r3, r0, lsl #18
     48c:	00340700 	eorseq	r0, r4, r0, lsl #14
     490:	0b3a0e03 	bleq	e83ca4 <__bss_end__+0xe7a44c>
     494:	0b390b3b 	bleq	e43188 <__bss_end__+0xe39930>
     498:	193f1349 	ldmdbne	pc!, {r0, r3, r6, r8, r9, ip}	; <UNPREDICTABLE>
     49c:	0000193c 	andeq	r1, r0, ip, lsr r9
     4a0:	0b000f08 	bleq	40c8 <__code_start__-0x3f38>
     4a4:	0013490b 	andseq	r4, r3, fp, lsl #18
     4a8:	00260900 	eoreq	r0, r6, r0, lsl #18
     4ac:	00001349 	andeq	r1, r0, r9, asr #6
     4b0:	0301130a 	movweq	r1, #4874	; 0x130a
     4b4:	3a0b0b0e 	bcc	2c30f4 <__bss_end__+0x2b989c>
     4b8:	010b3b0b 	tsteq	fp, fp, lsl #22
     4bc:	0b000013 	bleq	510 <__code_start__-0x7af0>
     4c0:	0e03000d 	cdpeq	0, 0, cr0, cr3, cr13, {0}
     4c4:	0b381349 	bleq	e051f0 <__bss_end__+0xdfb998>
     4c8:	00001934 	andeq	r1, r0, r4, lsr r9
     4cc:	0b000f0c 	bleq	4104 <__code_start__-0x3efc>
     4d0:	0d00000b 	stceq	0, cr0, [r0, #-44]	; 0xffffffd4
     4d4:	193f012e 	ldmdbne	pc!, {r1, r2, r3, r5, r8}	; <UNPREDICTABLE>
     4d8:	0b3a0e03 	bleq	e83cec <__bss_end__+0xe7a494>
     4dc:	0b390b3b 	bleq	e431d0 <__bss_end__+0xe39978>
     4e0:	13491927 	movtne	r1, #39207	; 0x9927
     4e4:	06120111 			; <UNDEFINED> instruction: 0x06120111
     4e8:	42971840 	addsmi	r1, r7, #64, 16	; 0x400000
     4ec:	00130119 	andseq	r0, r3, r9, lsl r1
     4f0:	00050e00 	andeq	r0, r5, r0, lsl #28
     4f4:	0b3a0803 	bleq	e82508 <__bss_end__+0xe78cb0>
     4f8:	0b390b3b 	bleq	e431ec <__bss_end__+0xe39994>
     4fc:	17021349 	strne	r1, [r2, -r9, asr #6]
     500:	001742b7 			; <UNDEFINED> instruction: 0x001742b7
     504:	00050f00 	andeq	r0, r5, r0, lsl #30
     508:	0b3a0e03 	bleq	e83d1c <__bss_end__+0xe7a4c4>
     50c:	0b390b3b 	bleq	e43200 <__bss_end__+0xe399a8>
     510:	18021349 	stmdane	r2, {r0, r3, r6, r8, r9, ip}
     514:	34100000 	ldrcc	r0, [r0], #-0
     518:	3a080300 	bcc	201120 <__bss_end__+0x1f78c8>
     51c:	390b3b0b 	stmdbcc	fp, {r0, r1, r3, r8, r9, fp, ip, sp}
     520:	0213490b 	andseq	r4, r3, #180224	; 0x2c000
     524:	1742b717 	smlaldne	fp, r2, r7, r7
     528:	34110000 	ldrcc	r0, [r1], #-0
     52c:	3a0e0300 	bcc	381134 <__bss_end__+0x3778dc>
     530:	390b3b0b 	stmdbcc	fp, {r0, r1, r3, r8, r9, fp, ip, sp}
     534:	0213490b 	andseq	r4, r3, #180224	; 0x2c000
     538:	1742b717 	smlaldne	fp, r2, r7, r7
     53c:	34120000 	ldrcc	r0, [r2], #-0
     540:	490e0300 	stmdbmi	lr, {r8, r9}
     544:	02193413 	andseq	r3, r9, #318767104	; 0x13000000
     548:	13000018 	movwne	r0, #24
     54c:	0111010b 	tsteq	r1, fp, lsl #2
     550:	00000612 	andeq	r0, r0, r2, lsl r6
     554:	03003414 	movweq	r3, #1044	; 0x414
     558:	3b0b3a08 	blcc	2ced80 <__bss_end__+0x2c5528>
     55c:	490b390b 	stmdbmi	fp, {r0, r1, r3, r8, fp, ip, sp}
     560:	00180213 	andseq	r0, r8, r3, lsl r2
     564:	00341500 	eorseq	r1, r4, r0, lsl #10
     568:	0b3a0e03 	bleq	e83d7c <__bss_end__+0xe7a524>
     56c:	0b390b3b 	bleq	e43260 <__bss_end__+0xe39a08>
     570:	18021349 	stmdane	r2, {r0, r3, r6, r8, r9, ip}
     574:	0b160000 	bleq	58057c <__bss_end__+0x576d24>
     578:	12011101 	andne	r1, r1, #1073741824	; 0x40000000
     57c:	00130106 	andseq	r0, r3, r6, lsl #2
     580:	00341700 	eorseq	r1, r4, r0, lsl #14
     584:	0b3a0803 	bleq	e82598 <__bss_end__+0xe78d40>
     588:	0b390b3b 	bleq	e4327c <__bss_end__+0xe39a24>
     58c:	00001349 	andeq	r1, r0, r9, asr #6
     590:	01828918 	orreq	r8, r2, r8, lsl r9
     594:	31011101 	tstcc	r1, r1, lsl #2
     598:	00130113 	andseq	r0, r3, r3, lsl r1
     59c:	828a1900 	addhi	r1, sl, #0, 18
     5a0:	18020001 	stmdane	r2, {r0}
     5a4:	00184291 	mulseq	r8, r1, r2
     5a8:	82891a00 	addhi	r1, r9, #0, 20
     5ac:	01110001 	tsteq	r1, r1
     5b0:	00001331 	andeq	r1, r0, r1, lsr r3
     5b4:	0182891b 	orreq	r8, r2, fp, lsl r9
     5b8:	01011101 	tsteq	r1, r1, lsl #2
     5bc:	1c000013 	stcne	0, cr0, [r0], {19}
     5c0:	13490101 	movtne	r0, #37121	; 0x9101
     5c4:	00001301 	andeq	r1, r0, r1, lsl #6
     5c8:	4900211d 	stmdbmi	r0, {r0, r2, r3, r4, r8, sp}
     5cc:	000b2f13 	andeq	r2, fp, r3, lsl pc
     5d0:	012e1e00 			; <UNDEFINED> instruction: 0x012e1e00
     5d4:	0b3a0e03 	bleq	e83de8 <__bss_end__+0xe7a590>
     5d8:	0b390b3b 	bleq	e432cc <__bss_end__+0xe39a74>
     5dc:	13491927 	movtne	r1, #39207	; 0x9927
     5e0:	06120111 			; <UNDEFINED> instruction: 0x06120111
     5e4:	42971840 	addsmi	r1, r7, #64, 16	; 0x400000
     5e8:	00130119 	andseq	r0, r3, r9, lsl r1
     5ec:	00051f00 	andeq	r1, r5, r0, lsl #30
     5f0:	0b3a0e03 	bleq	e83e04 <__bss_end__+0xe7a5ac>
     5f4:	0b390b3b 	bleq	e432e8 <__bss_end__+0xe39a90>
     5f8:	17021349 	strne	r1, [r2, -r9, asr #6]
     5fc:	001742b7 			; <UNDEFINED> instruction: 0x001742b7
     600:	012e2000 			; <UNDEFINED> instruction: 0x012e2000
     604:	0b3a0803 	bleq	e82618 <__bss_end__+0xe78dc0>
     608:	0b390b3b 	bleq	e432fc <__bss_end__+0xe39aa4>
     60c:	13491927 	movtne	r1, #39207	; 0x9927
     610:	06120111 			; <UNDEFINED> instruction: 0x06120111
     614:	42971840 	addsmi	r1, r7, #64, 16	; 0x400000
     618:	00130119 	andseq	r0, r3, r9, lsl r1
     61c:	012e2100 			; <UNDEFINED> instruction: 0x012e2100
     620:	0e03193f 			; <UNDEFINED> instruction: 0x0e03193f
     624:	0b3b0b3a 	bleq	ec3314 <__bss_end__+0xeb9abc>
     628:	19270b39 	stmdbne	r7!, {r0, r3, r4, r5, r8, r9, fp}
     62c:	06120111 			; <UNDEFINED> instruction: 0x06120111
     630:	42971840 	addsmi	r1, r7, #64, 16	; 0x400000
     634:	00130119 	andseq	r0, r3, r9, lsl r1
     638:	002e2200 	eoreq	r2, lr, r0, lsl #4
     63c:	193c193f 	ldmdbne	ip!, {r0, r1, r2, r3, r4, r5, r8, fp, ip}
     640:	0e030e6e 	cdpeq	14, 0, cr0, cr3, cr14, {3}
     644:	0b3b0b3a 	bleq	ec3334 <__bss_end__+0xeb9adc>
     648:	00000b39 	andeq	r0, r0, r9, lsr fp
     64c:	01110100 	tsteq	r1, r0, lsl #2
     650:	0b130e25 	bleq	4c3eec <__bss_end__+0x4ba694>
     654:	0e1b0e03 	cdpeq	14, 1, cr0, cr11, cr3, {0}
     658:	01111755 	tsteq	r1, r5, asr r7
     65c:	00001710 	andeq	r1, r0, r0, lsl r7
     660:	0b002402 	bleq	9670 <buf.3940+0x21c>
     664:	030b3e0b 	movweq	r3, #48651	; 0xbe0b
     668:	03000008 	movweq	r0, #8
     66c:	0b0b0024 	bleq	2c0704 <__bss_end__+0x2b6eac>
     670:	0e030b3e 	vmoveq.16	d3[0], r0
     674:	15040000 	strne	r0, [r4, #-0]
     678:	49192701 	ldmdbmi	r9, {r0, r8, r9, sl, sp}
     67c:	00130113 	andseq	r0, r3, r3, lsl r1
     680:	00050500 	andeq	r0, r5, r0, lsl #10
     684:	00001349 	andeq	r1, r0, r9, asr #6
     688:	03003406 	movweq	r3, #1030	; 0x406
     68c:	3b0b3a0e 	blcc	2ceecc <__bss_end__+0x2c5674>
     690:	490b390b 	stmdbmi	fp, {r0, r1, r3, r8, fp, ip, sp}
     694:	3c193f13 	ldccc	15, cr3, [r9], {19}
     698:	07000019 	smladeq	r0, r9, r0, r0
     69c:	0b0b000f 	bleq	2c06e0 <__bss_end__+0x2b6e88>
     6a0:	00001349 	andeq	r1, r0, r9, asr #6
     6a4:	49002608 	stmdbmi	r0, {r3, r9, sl, sp}
     6a8:	09000013 	stmdbeq	r0, {r0, r1, r4}
     6ac:	193f012e 	ldmdbne	pc!, {r1, r2, r3, r5, r8}	; <UNPREDICTABLE>
     6b0:	0b3a0e03 	bleq	e83ec4 <__bss_end__+0xe7a66c>
     6b4:	0b390b3b 	bleq	e433a8 <__bss_end__+0xe39b50>
     6b8:	01111927 	tsteq	r1, r7, lsr #18
     6bc:	18400612 	stmdane	r0, {r1, r4, r9, sl}^
     6c0:	01194297 			; <UNDEFINED> instruction: 0x01194297
     6c4:	0a000013 	beq	718 <__code_start__-0x78e8>
     6c8:	08030034 	stmdaeq	r3, {r2, r4, r5}
     6cc:	0b3b0b3a 	bleq	ec33bc <__bss_end__+0xeb9b64>
     6d0:	13490b39 	movtne	r0, #39737	; 0x9b39
     6d4:	42b71702 	adcsmi	r1, r7, #524288	; 0x80000
     6d8:	0b000017 	bleq	73c <__code_start__-0x78c4>
     6dc:	193f012e 	ldmdbne	pc!, {r1, r2, r3, r5, r8}	; <UNPREDICTABLE>
     6e0:	0b3a0e03 	bleq	e83ef4 <__bss_end__+0xe7a69c>
     6e4:	0b390b3b 	bleq	e433d8 <__bss_end__+0xe39b80>
     6e8:	01111927 	tsteq	r1, r7, lsr #18
     6ec:	18400612 	stmdane	r0, {r1, r4, r9, sl}^
     6f0:	00194297 	mulseq	r9, r7, r2
     6f4:	11010000 	mrsne	r0, (UNDEF: 1)
     6f8:	130e2501 	movwne	r2, #58625	; 0xe501
     6fc:	1b0e030b 	blne	381330 <__bss_end__+0x377ad8>
     700:	1201110e 	andne	r1, r1, #-2147483645	; 0x80000003
     704:	00171006 	andseq	r1, r7, r6
     708:	00240200 	eoreq	r0, r4, r0, lsl #4
     70c:	0b3e0b0b 	bleq	f83340 <__bss_end__+0xf79ae8>
     710:	00000803 	andeq	r0, r0, r3, lsl #16
     714:	0b002403 	bleq	9728 <buf.3940+0x2d4>
     718:	030b3e0b 	movweq	r3, #48651	; 0xbe0b
     71c:	0400000e 	streq	r0, [r0], #-14
     720:	19270115 	stmdbne	r7!, {r0, r2, r4, r8}
     724:	13011349 	movwne	r1, #4937	; 0x1349
     728:	05050000 	streq	r0, [r5, #-0]
     72c:	00134900 	andseq	r4, r3, r0, lsl #18
     730:	00340600 	eorseq	r0, r4, r0, lsl #12
     734:	0b3a0e03 	bleq	e83f48 <__bss_end__+0xe7a6f0>
     738:	0b390b3b 	bleq	e4342c <__bss_end__+0xe39bd4>
     73c:	193f1349 	ldmdbne	pc!, {r0, r3, r6, r8, r9, ip}	; <UNPREDICTABLE>
     740:	0000193c 	andeq	r1, r0, ip, lsr r9
     744:	0b000f07 	bleq	4368 <__code_start__-0x3c98>
     748:	0013490b 	andseq	r4, r3, fp, lsl #18
     74c:	00260800 	eoreq	r0, r6, r0, lsl #16
     750:	00001349 	andeq	r1, r0, r9, asr #6
     754:	3f012e09 	svccc	0x00012e09
     758:	3a0e0319 	bcc	3813c4 <__bss_end__+0x377b6c>
     75c:	390b3b0b 	stmdbcc	fp, {r0, r1, r3, r8, r9, fp, ip, sp}
     760:	8719270b 	ldrhi	r2, [r9, -fp, lsl #14]
     764:	01111901 	tsteq	r1, r1, lsl #18
     768:	18400612 	stmdane	r0, {r1, r4, r9, sl}^
     76c:	01194297 			; <UNDEFINED> instruction: 0x01194297
     770:	0a000013 	beq	7c4 <__code_start__-0x783c>
     774:	01018289 	smlabbeq	r1, r9, r2, r8
     778:	13010111 	movwne	r0, #4369	; 0x1111
     77c:	8a0b0000 	bhi	2c0784 <__bss_end__+0x2b6f2c>
     780:	02000182 	andeq	r0, r0, #-2147483616	; 0x80000020
     784:	18429118 	stmdane	r2, {r3, r4, r8, ip, pc}^
     788:	890c0000 	stmdbhi	ip, {}	; <UNPREDICTABLE>
     78c:	11000182 	smlabbne	r0, r2, r1, r0
     790:	00133101 	andseq	r3, r3, r1, lsl #2
     794:	82890d00 	addhi	r0, r9, #0, 26
     798:	01110101 	tsteq	r1, r1, lsl #2
     79c:	13011331 	movwne	r1, #4913	; 0x1331
     7a0:	2e0e0000 	cdpcs	0, 0, cr0, cr14, cr0, {0}
     7a4:	3c193f00 	ldccc	15, cr3, [r9], {-0}
     7a8:	030e6e19 	movweq	r6, #60953	; 0xee19
     7ac:	3b0b3a0e 	blcc	2cefec <__bss_end__+0x2c5794>
     7b0:	000b390b 	andeq	r3, fp, fp, lsl #18
     7b4:	11010000 	mrsne	r0, (UNDEF: 1)
     7b8:	130e2501 	movwne	r2, #58625	; 0xe501
     7bc:	1b0e030b 	blne	3813f0 <__bss_end__+0x377b98>
     7c0:	1201110e 	andne	r1, r1, #-2147483645	; 0x80000003
     7c4:	00171006 	andseq	r1, r7, r6
     7c8:	00240200 	eoreq	r0, r4, r0, lsl #4
     7cc:	0b3e0b0b 	bleq	f83400 <__bss_end__+0xf79ba8>
     7d0:	00000803 	andeq	r0, r0, r3, lsl #16
     7d4:	0b002403 	bleq	97e8 <buf.3940+0x394>
     7d8:	030b3e0b 	movweq	r3, #48651	; 0xbe0b
     7dc:	0400000e 	streq	r0, [r0], #-14
     7e0:	19270115 	stmdbne	r7!, {r0, r2, r4, r8}
     7e4:	13011349 	movwne	r1, #4937	; 0x1349
     7e8:	05050000 	streq	r0, [r5, #-0]
     7ec:	00134900 	andseq	r4, r3, r0, lsl #18
     7f0:	00340600 	eorseq	r0, r4, r0, lsl #12
     7f4:	0b3a0e03 	bleq	e84008 <__bss_end__+0xe7a7b0>
     7f8:	0b390b3b 	bleq	e434ec <__bss_end__+0xe39c94>
     7fc:	193f1349 	ldmdbne	pc!, {r0, r3, r6, r8, r9, ip}	; <UNPREDICTABLE>
     800:	0000193c 	andeq	r1, r0, ip, lsr r9
     804:	0b000f07 	bleq	4428 <__code_start__-0x3bd8>
     808:	0013490b 	andseq	r4, r3, fp, lsl #18
     80c:	00260800 	eoreq	r0, r6, r0, lsl #16
     810:	00001349 	andeq	r1, r0, r9, asr #6
     814:	3f012e09 	svccc	0x00012e09
     818:	3a0e0319 	bcc	381484 <__bss_end__+0x377c2c>
     81c:	390b3b0b 	stmdbcc	fp, {r0, r1, r3, r8, r9, fp, ip, sp}
     820:	1201110b 	andne	r1, r1, #-1073741822	; 0xc0000002
     824:	97184006 	ldrls	r4, [r8, -r6]
     828:	13011942 	movwne	r1, #6466	; 0x1942
     82c:	2e0a0000 	cdpcs	0, 0, cr0, cr10, cr0, {0}
     830:	03193f00 	tsteq	r9, #0, 30
     834:	3b0b3a0e 	blcc	2cf074 <__bss_end__+0x2c581c>
     838:	270b390b 	strcs	r3, [fp, -fp, lsl #18]
     83c:	00193c19 	andseq	r3, r9, r9, lsl ip
     840:	00340b00 	eorseq	r0, r4, r0, lsl #22
     844:	0b3a0803 	bleq	e82858 <__bss_end__+0xe79000>
     848:	0b390b3b 	bleq	e4353c <__bss_end__+0xe39ce4>
     84c:	17021349 	strne	r1, [r2, -r9, asr #6]
     850:	001742b7 			; <UNDEFINED> instruction: 0x001742b7
     854:	00340c00 	eorseq	r0, r4, r0, lsl #24
     858:	0b3a0e03 	bleq	e8406c <__bss_end__+0xe7a814>
     85c:	0b390b3b 	bleq	e43550 <__bss_end__+0xe39cf8>
     860:	00001349 	andeq	r1, r0, r9, asr #6
     864:	11010b0d 	tstne	r1, sp, lsl #22
     868:	01061201 	tsteq	r6, r1, lsl #4
     86c:	0e000013 	mcreq	0, 0, r0, cr0, cr3, {0}
     870:	08030034 	stmdaeq	r3, {r2, r4, r5}
     874:	0b3b0b3a 	bleq	ec3564 <__bss_end__+0xeb9d0c>
     878:	13490b39 	movtne	r0, #39737	; 0x9b39
     87c:	00000b1c 	andeq	r0, r0, ip, lsl fp
     880:	0182890f 	orreq	r8, r2, pc, lsl #18
     884:	31011100 	mrscc	r1, (UNDEF: 17)
     888:	10000013 	andne	r0, r0, r3, lsl r0
     88c:	193f002e 	ldmdbne	pc!, {r1, r2, r3, r5}	; <UNPREDICTABLE>
     890:	0e6e193c 			; <UNDEFINED> instruction: 0x0e6e193c
     894:	0b3a0e03 	bleq	e840a8 <__bss_end__+0xe7a850>
     898:	0b39053b 	bleq	e41d8c <__bss_end__+0xe38534>
     89c:	2e110000 	cdpcs	0, 1, cr0, cr1, cr0, {0}
     8a0:	3c193f00 	ldccc	15, cr3, [r9], {-0}
     8a4:	030e6e19 	movweq	r6, #60953	; 0xee19
     8a8:	3b0b3a0e 	blcc	2cf0e8 <__bss_end__+0x2c5890>
     8ac:	000b390b 	andeq	r3, fp, fp, lsl #18
     8b0:	11010000 	mrsne	r0, (UNDEF: 1)
     8b4:	130e2501 	movwne	r2, #58625	; 0xe501
     8b8:	1b0e030b 	blne	3814ec <__bss_end__+0x377c94>
     8bc:	1201110e 	andne	r1, r1, #-2147483645	; 0x80000003
     8c0:	00171006 	andseq	r1, r7, r6
     8c4:	00240200 	eoreq	r0, r4, r0, lsl #4
     8c8:	0b3e0b0b 	bleq	f834fc <__bss_end__+0xf79ca4>
     8cc:	00000803 	andeq	r0, r0, r3, lsl #16
     8d0:	0b002403 	bleq	98e4 <__bss_end__+0x8c>
     8d4:	030b3e0b 	movweq	r3, #48651	; 0xbe0b
     8d8:	0400000e 	streq	r0, [r0], #-14
     8dc:	19270115 	stmdbne	r7!, {r0, r2, r4, r8}
     8e0:	13011349 	movwne	r1, #4937	; 0x1349
     8e4:	05050000 	streq	r0, [r5, #-0]
     8e8:	00134900 	andseq	r4, r3, r0, lsl #18
     8ec:	00340600 	eorseq	r0, r4, r0, lsl #12
     8f0:	0b3a0e03 	bleq	e84104 <__bss_end__+0xe7a8ac>
     8f4:	0b390b3b 	bleq	e435e8 <__bss_end__+0xe39d90>
     8f8:	193f1349 	ldmdbne	pc!, {r0, r3, r6, r8, r9, ip}	; <UNPREDICTABLE>
     8fc:	0000193c 	andeq	r1, r0, ip, lsr r9
     900:	0b000f07 	bleq	4524 <__code_start__-0x3adc>
     904:	0013490b 	andseq	r4, r3, fp, lsl #18
     908:	00260800 	eoreq	r0, r6, r0, lsl #16
     90c:	00001349 	andeq	r1, r0, r9, asr #6
     910:	3f002e09 	svccc	0x00002e09
     914:	3a0e0319 	bcc	381580 <__bss_end__+0x377d28>
     918:	390b3b0b 	stmdbcc	fp, {r0, r1, r3, r8, r9, fp, ip, sp}
     91c:	1119270b 	tstne	r9, fp, lsl #14
     920:	40061201 	andmi	r1, r6, r1, lsl #4
     924:	19429718 	stmdbne	r2, {r3, r4, r8, r9, sl, ip, pc}^
     928:	01000000 	mrseq	r0, (UNDEF: 0)
     92c:	0e250111 	mcreq	1, 1, r0, cr5, cr1, {0}
     930:	0e030b13 	vmoveq.32	d3[0], r0
     934:	17550e1b 	smmlane	r5, fp, lr, r0
     938:	17100111 			; <UNDEFINED> instruction: 0x17100111
     93c:	24020000 	strcs	r0, [r2], #-0
     940:	3e0b0b00 	vmlacc.f64	d0, d11, d0
     944:	0008030b 	andeq	r0, r8, fp, lsl #6
     948:	00260300 	eoreq	r0, r6, r0, lsl #6
     94c:	00001349 	andeq	r1, r0, r9, asr #6
     950:	0b002404 	bleq	9968 <__bss_end__+0x110>
     954:	030b3e0b 	movweq	r3, #48651	; 0xbe0b
     958:	0500000e 	streq	r0, [r0, #-14]
     95c:	19270115 	stmdbne	r7!, {r0, r2, r4, r8}
     960:	13011349 	movwne	r1, #4937	; 0x1349
     964:	05060000 	streq	r0, [r6, #-0]
     968:	00134900 	andseq	r4, r3, r0, lsl #18
     96c:	00340700 	eorseq	r0, r4, r0, lsl #14
     970:	0b3a0e03 	bleq	e84184 <__bss_end__+0xe7a92c>
     974:	0b390b3b 	bleq	e43668 <__bss_end__+0xe39e10>
     978:	193f1349 	ldmdbne	pc!, {r0, r3, r6, r8, r9, ip}	; <UNPREDICTABLE>
     97c:	0000193c 	andeq	r1, r0, ip, lsr r9
     980:	0b000f08 	bleq	45a8 <__code_start__-0x3a58>
     984:	0013490b 	andseq	r4, r3, fp, lsl #18
     988:	00340900 	eorseq	r0, r4, r0, lsl #18
     98c:	0b3a0e03 	bleq	e841a0 <__bss_end__+0xe7a948>
     990:	0b390b3b 	bleq	e43684 <__bss_end__+0xe39e2c>
     994:	00001349 	andeq	r1, r0, r9, asr #6
     998:	3f012e0a 	svccc	0x00012e0a
     99c:	3a0e0319 	bcc	381608 <__bss_end__+0x377db0>
     9a0:	390b3b0b 	stmdbcc	fp, {r0, r1, r3, r8, r9, fp, ip, sp}
     9a4:	8719270b 	ldrhi	r2, [r9, -fp, lsl #14]
     9a8:	01111901 	tsteq	r1, r1, lsl #18
     9ac:	18400612 	stmdane	r0, {r1, r4, r9, sl}^
     9b0:	01194297 			; <UNDEFINED> instruction: 0x01194297
     9b4:	0b000013 	bleq	a08 <__code_start__-0x75f8>
     9b8:	0e030034 	mcreq	0, 0, r0, cr3, cr4, {1}
     9bc:	0b3b0b3a 	bleq	ec36ac <__bss_end__+0xeb9e54>
     9c0:	13490b39 	movtne	r0, #39737	; 0x9b39
     9c4:	42b71702 	adcsmi	r1, r7, #524288	; 0x80000
     9c8:	0c000017 	stceq	0, cr0, [r0], {23}
     9cc:	00018289 	andeq	r8, r1, r9, lsl #5
     9d0:	13310111 	teqne	r1, #1073741828	; 0x40000004
     9d4:	890d0000 	stmdbhi	sp, {}	; <UNPREDICTABLE>
     9d8:	11010182 	smlabbne	r1, r2, r1, r0
     9dc:	01133101 	tsteq	r3, r1, lsl #2
     9e0:	0e000013 	mcreq	0, 0, r0, cr0, cr3, {0}
     9e4:	0001828a 	andeq	r8, r1, sl, lsl #5
     9e8:	42911802 	addsmi	r1, r1, #131072	; 0x20000
     9ec:	0f000018 	svceq	0x00000018
     9f0:	193f012e 	ldmdbne	pc!, {r1, r2, r3, r5, r8}	; <UNPREDICTABLE>
     9f4:	0b3a0e03 	bleq	e84208 <__bss_end__+0xe7a9b0>
     9f8:	0b390b3b 	bleq	e436ec <__bss_end__+0xe39e94>
     9fc:	01111927 	tsteq	r1, r7, lsr #18
     a00:	18400612 	stmdane	r0, {r1, r4, r9, sl}^
     a04:	01194297 			; <UNDEFINED> instruction: 0x01194297
     a08:	10000013 	andne	r0, r0, r3, lsl r0
     a0c:	193f012e 	ldmdbne	pc!, {r1, r2, r3, r5, r8}	; <UNPREDICTABLE>
     a10:	0b3a0e03 	bleq	e84224 <__bss_end__+0xe7a9cc>
     a14:	0b390b3b 	bleq	e43708 <__bss_end__+0xe39eb0>
     a18:	13491927 	movtne	r1, #39207	; 0x9927
     a1c:	06120111 			; <UNDEFINED> instruction: 0x06120111
     a20:	42971840 	addsmi	r1, r7, #64, 16	; 0x400000
     a24:	00130119 	andseq	r0, r3, r9, lsl r1
     a28:	002e1100 	eoreq	r1, lr, r0, lsl #2
     a2c:	193c193f 	ldmdbne	ip!, {r0, r1, r2, r3, r4, r5, r8, fp, ip}
     a30:	0e030e6e 	cdpeq	14, 0, cr0, cr3, cr14, {3}
     a34:	053b0b3a 	ldreq	r0, [fp, #-2874]!	; 0xfffff4c6
     a38:	00000b39 	andeq	r0, r0, r9, lsr fp
     a3c:	3f002e12 	svccc	0x00002e12
     a40:	6e193c19 	mrcvs	12, 0, r3, cr9, cr9, {0}
     a44:	3a0e030e 	bcc	381684 <__bss_end__+0x377e2c>
     a48:	390b3b0b 	stmdbcc	fp, {r0, r1, r3, r8, r9, fp, ip, sp}
     a4c:	0000000b 	andeq	r0, r0, fp
     a50:	25011101 	strcs	r1, [r1, #-257]	; 0xfffffeff
     a54:	030b130e 	movweq	r1, #45838	; 0xb30e
     a58:	110e1b0e 	tstne	lr, lr, lsl #22
     a5c:	10061201 	andne	r1, r6, r1, lsl #4
     a60:	02000017 	andeq	r0, r0, #23, 0
     a64:	0b0b0024 	bleq	2c0afc <__bss_end__+0x2b72a4>
     a68:	08030b3e 	stmdaeq	r3, {r1, r2, r3, r4, r5, r8, r9, fp}
     a6c:	24030000 	strcs	r0, [r3], #-0
     a70:	3e0b0b00 	vmlacc.f64	d0, d11, d0
     a74:	000e030b 	andeq	r0, lr, fp, lsl #6
     a78:	01150400 	tsteq	r5, r0, lsl #8
     a7c:	13491927 	movtne	r1, #39207	; 0x9927
     a80:	00001301 	andeq	r1, r0, r1, lsl #6
     a84:	49000505 	stmdbmi	r0, {r0, r2, r8, sl}
     a88:	06000013 			; <UNDEFINED> instruction: 0x06000013
     a8c:	0e030034 	mcreq	0, 0, r0, cr3, cr4, {1}
     a90:	0b3b0b3a 	bleq	ec3780 <__bss_end__+0xeb9f28>
     a94:	13490b39 	movtne	r0, #39737	; 0x9b39
     a98:	193c193f 	ldmdbne	ip!, {r0, r1, r2, r3, r4, r5, r8, fp, ip}
     a9c:	0f070000 	svceq	0x00070000
     aa0:	490b0b00 	stmdbmi	fp, {r8, r9, fp}
     aa4:	08000013 	stmdaeq	r0, {r0, r1, r4}
     aa8:	13490026 	movtne	r0, #36902	; 0x9026
     aac:	2e090000 	cdpcs	0, 0, cr0, cr9, cr0, {0}
     ab0:	03193f01 	tsteq	r9, #1, 30
     ab4:	3b0b3a0e 	blcc	2cf2f4 <__bss_end__+0x2c5a9c>
     ab8:	270b390b 	strcs	r3, [fp, -fp, lsl #18]
     abc:	12011119 	andne	r1, r1, #1073741830	; 0x40000006
     ac0:	97184006 	ldrls	r4, [r8, -r6]
     ac4:	13011942 	movwne	r1, #6466	; 0x1942
     ac8:	050a0000 	streq	r0, [sl, #-0]
     acc:	3a080300 	bcc	2016d4 <__bss_end__+0x1f7e7c>
     ad0:	390b3b0b 	stmdbcc	fp, {r0, r1, r3, r8, r9, fp, ip, sp}
     ad4:	0213490b 	andseq	r4, r3, #180224	; 0x2c000
     ad8:	1742b717 	smlaldne	fp, r2, r7, r7
     adc:	890b0000 	stmdbhi	fp, {}	; <UNPREDICTABLE>
     ae0:	11010182 	smlabbne	r1, r2, r1, r0
     ae4:	00133101 	andseq	r3, r3, r1, lsl #2
     ae8:	828a0c00 	addhi	r0, sl, #0, 24
     aec:	18020001 	stmdane	r2, {r0}
     af0:	00184291 	mulseq	r8, r1, r2
     af4:	00340d00 	eorseq	r0, r4, r0, lsl #26
     af8:	0b3a0803 	bleq	e82b0c <__bss_end__+0xe792b4>
     afc:	0b390b3b 	bleq	e437f0 <__bss_end__+0xe39f98>
     b00:	17021349 	strne	r1, [r2, -r9, asr #6]
     b04:	001742b7 			; <UNDEFINED> instruction: 0x001742b7
     b08:	010b0e00 	tsteq	fp, r0, lsl #28
     b0c:	06120111 			; <UNDEFINED> instruction: 0x06120111
     b10:	00001301 	andeq	r1, r0, r1, lsl #6
     b14:	0182890f 	orreq	r8, r2, pc, lsl #18
     b18:	31011100 	mrscc	r1, (UNDEF: 17)
     b1c:	10000013 	andne	r0, r0, r3, lsl r0
     b20:	193f012e 	ldmdbne	pc!, {r1, r2, r3, r5, r8}	; <UNPREDICTABLE>
     b24:	0b3a0e03 	bleq	e84338 <__bss_end__+0xe7aae0>
     b28:	0b390b3b 	bleq	e4381c <__bss_end__+0xe39fc4>
     b2c:	13491927 	movtne	r1, #39207	; 0x9927
     b30:	06120111 			; <UNDEFINED> instruction: 0x06120111
     b34:	42971840 	addsmi	r1, r7, #64, 16	; 0x400000
     b38:	00130119 	andseq	r0, r3, r9, lsl r1
     b3c:	002e1100 	eoreq	r1, lr, r0, lsl #2
     b40:	193c193f 	ldmdbne	ip!, {r0, r1, r2, r3, r4, r5, r8, fp, ip}
     b44:	0e030e6e 	cdpeq	14, 0, cr0, cr3, cr14, {3}
     b48:	0b3b0b3a 	bleq	ec3838 <__bss_end__+0xeb9fe0>
     b4c:	00000b39 	andeq	r0, r0, r9, lsr fp
     b50:	01110100 	tsteq	r1, r0, lsl #2
     b54:	0b130e25 	bleq	4c43f0 <__bss_end__+0x4bab98>
     b58:	0e1b0e03 	cdpeq	14, 1, cr0, cr11, cr3, {0}
     b5c:	06120111 			; <UNDEFINED> instruction: 0x06120111
     b60:	00001710 	andeq	r1, r0, r0, lsl r7
     b64:	0b002402 	bleq	9b74 <__bss_end__+0x31c>
     b68:	030b3e0b 	movweq	r3, #48651	; 0xbe0b
     b6c:	03000008 	movweq	r0, #8
     b70:	0b0b0024 	bleq	2c0c08 <__bss_end__+0x2b73b0>
     b74:	0e030b3e 	vmoveq.16	d3[0], r0
     b78:	35040000 	strcc	r0, [r4, #-0]
     b7c:	00134900 	andseq	r4, r3, r0, lsl #18
     b80:	00160500 	andseq	r0, r6, r0, lsl #10
     b84:	0b3a0e03 	bleq	e84398 <__bss_end__+0xe7ab40>
     b88:	0b390b3b 	bleq	e4387c <__bss_end__+0xe3a024>
     b8c:	00001349 	andeq	r1, r0, r9, asr #6
     b90:	3e010406 	cdpcc	4, 0, cr0, cr1, cr6, {0}
     b94:	490b0b0b 	stmdbmi	fp, {r0, r1, r3, r8, r9, fp}
     b98:	3b0b3a13 	blcc	2cf3ec <__bss_end__+0x2c5b94>
     b9c:	010b390b 	tsteq	fp, fp, lsl #18
     ba0:	07000013 	smladeq	r0, r3, r0, r0
     ba4:	0e030028 	cdpeq	0, 0, cr0, cr3, cr8, {1}
     ba8:	00000b1c 	andeq	r0, r0, ip, lsl fp
     bac:	03011308 	movweq	r1, #4872	; 0x1308
     bb0:	3a0b0b0e 	bcc	2c37f0 <__bss_end__+0x2b9f98>
     bb4:	390b3b0b 	stmdbcc	fp, {r0, r1, r3, r8, r9, fp, ip, sp}
     bb8:	0013010b 	andseq	r0, r3, fp, lsl #2
     bbc:	000d0900 	andeq	r0, sp, r0, lsl #18
     bc0:	0b3a0803 	bleq	e82bd4 <__bss_end__+0xe7937c>
     bc4:	0b390b3b 	bleq	e438b8 <__bss_end__+0xe3a060>
     bc8:	0b381349 	bleq	e058f4 <__bss_end__+0xdfc09c>
     bcc:	0d0a0000 	stceq	0, cr0, [sl, #-0]
     bd0:	3a0e0300 	bcc	3817d8 <__bss_end__+0x377f80>
     bd4:	390b3b0b 	stmdbcc	fp, {r0, r1, r3, r8, r9, fp, ip, sp}
     bd8:	3813490b 	ldmdacc	r3, {r0, r1, r3, r8, fp, lr}
     bdc:	0b00000b 	bleq	c10 <__code_start__-0x73f0>
     be0:	0e030034 	mcreq	0, 0, r0, cr3, cr4, {1}
     be4:	0b3b0b3a 	bleq	ec38d4 <__bss_end__+0xeba07c>
     be8:	13490b39 	movtne	r0, #39737	; 0x9b39
     bec:	0000061c 	andeq	r0, r0, ip, lsl r6
     bf0:	0b000f0c 	bleq	4828 <__code_start__-0x37d8>
     bf4:	0013490b 	andseq	r4, r3, fp, lsl #18
     bf8:	00260d00 	eoreq	r0, r6, r0, lsl #26
     bfc:	00001349 	andeq	r1, r0, r9, asr #6
     c00:	3f012e0e 	svccc	0x00012e0e
     c04:	3a0e0319 	bcc	381870 <__bss_end__+0x378018>
     c08:	390b3b0b 	stmdbcc	fp, {r0, r1, r3, r8, r9, fp, ip, sp}
     c0c:	1119270b 	tstne	r9, fp, lsl #14
     c10:	40061201 	andmi	r1, r6, r1, lsl #4
     c14:	19429718 	stmdbne	r2, {r3, r4, r8, r9, sl, ip, pc}^
     c18:	00001301 	andeq	r1, r0, r1, lsl #6
     c1c:	0182890f 	orreq	r8, r2, pc, lsl #18
     c20:	31011100 	mrscc	r1, (UNDEF: 17)
     c24:	10000013 	andne	r0, r0, r3, lsl r0
     c28:	193f012e 	ldmdbne	pc!, {r1, r2, r3, r5, r8}	; <UNPREDICTABLE>
     c2c:	0b3a0e03 	bleq	e84440 <__bss_end__+0xe7abe8>
     c30:	0b390b3b 	bleq	e43924 <__bss_end__+0xe3a0cc>
     c34:	13491927 	movtne	r1, #39207	; 0x9927
     c38:	06120111 			; <UNDEFINED> instruction: 0x06120111
     c3c:	42971840 	addsmi	r1, r7, #64, 16	; 0x400000
     c40:	00130119 	andseq	r0, r3, r9, lsl r1
     c44:	82891100 	addhi	r1, r9, #0
     c48:	01110101 	tsteq	r1, r1, lsl #2
     c4c:	00001331 	andeq	r1, r0, r1, lsr r3
     c50:	01828a12 	orreq	r8, r2, r2, lsl sl
     c54:	91180200 	tstls	r8, r0, lsl #4
     c58:	00001842 	andeq	r1, r0, r2, asr #16
     c5c:	03000513 	movweq	r0, #1299	; 0x513
     c60:	3b0b3a08 	blcc	2cf488 <__bss_end__+0x2c5c30>
     c64:	490b390b 	stmdbmi	fp, {r0, r1, r3, r8, fp, ip, sp}
     c68:	b7170213 			; <UNDEFINED> instruction: 0xb7170213
     c6c:	00001742 	andeq	r1, r0, r2, asr #14
     c70:	01828914 	orreq	r8, r2, r4, lsl r9
     c74:	31011101 	tstcc	r1, r1, lsl #2
     c78:	00130113 	andseq	r0, r3, r3, lsl r1
     c7c:	00341500 	eorseq	r1, r4, r0, lsl #10
     c80:	0b3a0803 	bleq	e82c94 <__bss_end__+0xe7943c>
     c84:	0b390b3b 	bleq	e43978 <__bss_end__+0xe3a120>
     c88:	17021349 	strne	r1, [r2, -r9, asr #6]
     c8c:	001742b7 			; <UNDEFINED> instruction: 0x001742b7
     c90:	00341600 	eorseq	r1, r4, r0, lsl #12
     c94:	0b3a0e03 	bleq	e844a8 <__bss_end__+0xe7ac50>
     c98:	0b390b3b 	bleq	e4398c <__bss_end__+0xe3a134>
     c9c:	051c1349 	ldreq	r1, [ip, #-841]	; 0xfffffcb7
     ca0:	2e170000 	cdpcs	0, 1, cr0, cr7, cr0, {0}
     ca4:	3a0e0301 	bcc	3818b0 <__bss_end__+0x378058>
     ca8:	390b3b0b 	stmdbcc	fp, {r0, r1, r3, r8, r9, fp, ip, sp}
     cac:	1119270b 	tstne	r9, fp, lsl #14
     cb0:	40061201 	andmi	r1, r6, r1, lsl #4
     cb4:	19429718 	stmdbne	r2, {r3, r4, r8, r9, sl, ip, pc}^
     cb8:	00001301 	andeq	r1, r0, r1, lsl #6
     cbc:	03000518 	movweq	r0, #1304	; 0x518
     cc0:	3b0b3a0e 	blcc	2cf500 <__bss_end__+0x2c5ca8>
     cc4:	490b390b 	stmdbmi	fp, {r0, r1, r3, r8, fp, ip, sp}
     cc8:	b7170213 			; <UNDEFINED> instruction: 0xb7170213
     ccc:	00001742 	andeq	r1, r0, r2, asr #14
     cd0:	00003519 	andeq	r3, r0, r9, lsl r5
     cd4:	002e1a00 	eoreq	r1, lr, r0, lsl #20
     cd8:	193c193f 	ldmdbne	ip!, {r0, r1, r2, r3, r4, r5, r8, fp, ip}
     cdc:	0e030e6e 	cdpeq	14, 0, cr0, cr3, cr14, {3}
     ce0:	0b3b0b3a 	bleq	ec39d0 <__bss_end__+0xeba178>
     ce4:	00000b39 	andeq	r0, r0, r9, lsr fp
     ce8:	01110100 	tsteq	r1, r0, lsl #2
     cec:	0b130e25 	bleq	4c4588 <__bss_end__+0x4bad30>
     cf0:	0e1b0e03 	cdpeq	14, 1, cr0, cr11, cr3, {0}
     cf4:	06120111 			; <UNDEFINED> instruction: 0x06120111
     cf8:	00001710 	andeq	r1, r0, r0, lsl r7
     cfc:	0b002402 	bleq	9d0c <__bss_end__+0x4b4>
     d00:	030b3e0b 	movweq	r3, #48651	; 0xbe0b
     d04:	03000008 	movweq	r0, #8
     d08:	0b0b0024 	bleq	2c0da0 <__bss_end__+0x2b7548>
     d0c:	0e030b3e 	vmoveq.16	d3[0], r0
     d10:	26040000 	strcs	r0, [r4], -r0
     d14:	00134900 	andseq	r4, r3, r0, lsl #18
     d18:	00160500 	andseq	r0, r6, r0, lsl #10
     d1c:	0b3a0e03 	bleq	e84530 <__bss_end__+0xe7acd8>
     d20:	0b390b3b 	bleq	e43a14 <__bss_end__+0xe3a1bc>
     d24:	00001349 	andeq	r1, r0, r9, asr #6
     d28:	27011506 	strcs	r1, [r1, -r6, lsl #10]
     d2c:	01134919 	tsteq	r3, r9, lsl r9
     d30:	07000013 	smladeq	r0, r3, r0, r0
     d34:	13490005 	movtne	r0, #36869	; 0x9005
     d38:	34080000 	strcc	r0, [r8], #-0
     d3c:	3a0e0300 	bcc	381944 <__bss_end__+0x3780ec>
     d40:	390b3b0b 	stmdbcc	fp, {r0, r1, r3, r8, r9, fp, ip, sp}
     d44:	3f13490b 	svccc	0x0013490b
     d48:	00193c19 	andseq	r3, r9, r9, lsl ip
     d4c:	000f0900 	andeq	r0, pc, r0, lsl #18
     d50:	13490b0b 	movtne	r0, #39691	; 0x9b0b
     d54:	040a0000 	streq	r0, [sl], #-0
     d58:	0b0b3e01 	bleq	2d0564 <__bss_end__+0x2c6d0c>
     d5c:	3a13490b 	bcc	4d3190 <__bss_end__+0x4c9938>
     d60:	390b3b0b 	stmdbcc	fp, {r0, r1, r3, r8, r9, fp, ip, sp}
     d64:	0013010b 	andseq	r0, r3, fp, lsl #2
     d68:	00280b00 	eoreq	r0, r8, r0, lsl #22
     d6c:	0b1c0e03 	bleq	704580 <__bss_end__+0x6fad28>
     d70:	340c0000 	strcc	r0, [ip], #-0
     d74:	3a0e0300 	bcc	38197c <__bss_end__+0x378124>
     d78:	390b3b0b 	stmdbcc	fp, {r0, r1, r3, r8, r9, fp, ip, sp}
     d7c:	1c13490b 			; <UNDEFINED> instruction: 0x1c13490b
     d80:	0d000006 	stceq	0, cr0, [r0, #-24]	; 0xffffffe8
     d84:	193f012e 	ldmdbne	pc!, {r1, r2, r3, r5, r8}	; <UNPREDICTABLE>
     d88:	0b3a0e03 	bleq	e8459c <__bss_end__+0xe7ad44>
     d8c:	0b390b3b 	bleq	e43a80 <__bss_end__+0xe3a228>
     d90:	13491927 	movtne	r1, #39207	; 0x9927
     d94:	06120111 			; <UNDEFINED> instruction: 0x06120111
     d98:	42971840 	addsmi	r1, r7, #64, 16	; 0x400000
     d9c:	00130119 	andseq	r0, r3, r9, lsl r1
     da0:	00050e00 	andeq	r0, r5, r0, lsl #28
     da4:	0b3a0803 	bleq	e82db8 <__bss_end__+0xe79560>
     da8:	0b390b3b 	bleq	e43a9c <__bss_end__+0xe3a244>
     dac:	17021349 	strne	r1, [r2, -r9, asr #6]
     db0:	001742b7 			; <UNDEFINED> instruction: 0x001742b7
     db4:	00340f00 	eorseq	r0, r4, r0, lsl #30
     db8:	0b3a0e03 	bleq	e845cc <__bss_end__+0xe7ad74>
     dbc:	0b390b3b 	bleq	e43ab0 <__bss_end__+0xe3a258>
     dc0:	17021349 	strne	r1, [r2, -r9, asr #6]
     dc4:	001742b7 			; <UNDEFINED> instruction: 0x001742b7
     dc8:	00341000 	eorseq	r1, r4, r0
     dcc:	0b3a0803 	bleq	e82de0 <__bss_end__+0xe79588>
     dd0:	0b390b3b 	bleq	e43ac4 <__bss_end__+0xe3a26c>
     dd4:	17021349 	strne	r1, [r2, -r9, asr #6]
     dd8:	001742b7 			; <UNDEFINED> instruction: 0x001742b7
     ddc:	82891100 	addhi	r1, r9, #0
     de0:	01110101 	tsteq	r1, r1, lsl #2
     de4:	00001331 	andeq	r1, r0, r1, lsr r3
     de8:	01828a12 	orreq	r8, r2, r2, lsl sl
     dec:	91180200 	tstls	r8, r0, lsl #4
     df0:	00001842 	andeq	r1, r0, r2, asr #16
     df4:	3f012e13 	svccc	0x00012e13
     df8:	3a0e0319 	bcc	381a64 <__bss_end__+0x37820c>
     dfc:	390b3b0b 	stmdbcc	fp, {r0, r1, r3, r8, r9, fp, ip, sp}
     e00:	1119270b 	tstne	r9, fp, lsl #14
     e04:	40061201 	andmi	r1, r6, r1, lsl #4
     e08:	19429718 	stmdbne	r2, {r3, r4, r8, r9, sl, ip, pc}^
     e0c:	00001301 	andeq	r1, r0, r1, lsl #6
     e10:	01828914 	orreq	r8, r2, r4, lsl r9
     e14:	31011101 	tstcc	r1, r1, lsl #2
     e18:	00130113 	andseq	r0, r3, r3, lsl r1
     e1c:	82891500 	addhi	r1, r9, #0, 10
     e20:	01110001 	tsteq	r1, r1
     e24:	00001331 	andeq	r1, r0, r1, lsr r3
     e28:	03000516 	movweq	r0, #1302	; 0x516
     e2c:	3b0b3a0e 	blcc	2cf66c <__bss_end__+0x2c5e14>
     e30:	490b390b 	stmdbmi	fp, {r0, r1, r3, r8, fp, ip, sp}
     e34:	b7170213 			; <UNDEFINED> instruction: 0xb7170213
     e38:	00001742 	andeq	r1, r0, r2, asr #14
     e3c:	03012e17 	movweq	r2, #7703	; 0x1e17
     e40:	3b0b3a0e 	blcc	2cf680 <__bss_end__+0x2c5e28>
     e44:	270b390b 	strcs	r3, [fp, -fp, lsl #18]
     e48:	20134919 	andscs	r4, r3, r9, lsl r9
     e4c:	0013010b 	andseq	r0, r3, fp, lsl #2
     e50:	00051800 	andeq	r1, r5, r0, lsl #16
     e54:	0b3a0803 	bleq	e82e68 <__bss_end__+0xe79610>
     e58:	0b390b3b 	bleq	e43b4c <__bss_end__+0xe3a2f4>
     e5c:	00001349 	andeq	r1, r0, r9, asr #6
     e60:	3f002e19 	svccc	0x00002e19
     e64:	6e193c19 	mrcvs	12, 0, r3, cr9, cr9, {0}
     e68:	3a0e030e 	bcc	381aa8 <__bss_end__+0x378250>
     e6c:	390b3b0b 	stmdbcc	fp, {r0, r1, r3, r8, r9, fp, ip, sp}
     e70:	0000000b 	andeq	r0, r0, fp
     e74:	25011101 	strcs	r1, [r1, #-257]	; 0xfffffeff
     e78:	030b130e 	movweq	r1, #45838	; 0xb30e
     e7c:	110e1b0e 	tstne	lr, lr, lsl #22
     e80:	10061201 	andne	r1, r6, r1, lsl #4
     e84:	02000017 	andeq	r0, r0, #23, 0
     e88:	0b0b0024 	bleq	2c0f20 <__bss_end__+0x2b76c8>
     e8c:	08030b3e 	stmdaeq	r3, {r1, r2, r3, r4, r5, r8, r9, fp}
     e90:	24030000 	strcs	r0, [r3], #-0
     e94:	3e0b0b00 	vmlacc.f64	d0, d11, d0
     e98:	000e030b 	andeq	r0, lr, fp, lsl #6
     e9c:	01150400 	tsteq	r5, r0, lsl #8
     ea0:	13491927 	movtne	r1, #39207	; 0x9927
     ea4:	00001301 	andeq	r1, r0, r1, lsl #6
     ea8:	49000505 	stmdbmi	r0, {r0, r2, r8, sl}
     eac:	06000013 			; <UNDEFINED> instruction: 0x06000013
     eb0:	0e030034 	mcreq	0, 0, r0, cr3, cr4, {1}
     eb4:	0b3b0b3a 	bleq	ec3ba4 <__bss_end__+0xeba34c>
     eb8:	13490b39 	movtne	r0, #39737	; 0x9b39
     ebc:	193c193f 	ldmdbne	ip!, {r0, r1, r2, r3, r4, r5, r8, fp, ip}
     ec0:	0f070000 	svceq	0x00070000
     ec4:	490b0b00 	stmdbmi	fp, {r8, r9, fp}
     ec8:	08000013 	stmdaeq	r0, {r0, r1, r4}
     ecc:	13490026 	movtne	r0, #36902	; 0x9026
     ed0:	34090000 	strcc	r0, [r9], #-0
     ed4:	3a134700 	bcc	4d2adc <__bss_end__+0x4c9284>
     ed8:	390b3b0b 	stmdbcc	fp, {r0, r1, r3, r8, r9, fp, ip, sp}
     edc:	0018020b 	andseq	r0, r8, fp, lsl #4
     ee0:	012e0a00 			; <UNDEFINED> instruction: 0x012e0a00
     ee4:	0e03193f 			; <UNDEFINED> instruction: 0x0e03193f
     ee8:	0b3b0b3a 	bleq	ec3bd8 <__bss_end__+0xeba380>
     eec:	19270b39 	stmdbne	r7!, {r0, r3, r4, r5, r8, r9, fp}
     ef0:	06120111 			; <UNDEFINED> instruction: 0x06120111
     ef4:	42971840 	addsmi	r1, r7, #64, 16	; 0x400000
     ef8:	00130119 	andseq	r0, r3, r9, lsl r1
     efc:	00050b00 	andeq	r0, r5, r0, lsl #22
     f00:	0b3a0803 	bleq	e82f14 <__bss_end__+0xe796bc>
     f04:	0b390b3b 	bleq	e43bf8 <__bss_end__+0xe3a3a0>
     f08:	18021349 	stmdane	r2, {r0, r3, r6, r8, r9, ip}
     f0c:	2e0c0000 	cdpcs	0, 0, cr0, cr12, cr0, {0}
     f10:	03193f00 	tsteq	r9, #0, 30
     f14:	3b0b3a0e 	blcc	2cf754 <__bss_end__+0x2c5efc>
     f18:	270b390b 	strcs	r3, [fp, -fp, lsl #18]
     f1c:	12011119 	andne	r1, r1, #1073741830	; 0x40000006
     f20:	97184006 	ldrls	r4, [r8, -r6]
     f24:	00001942 	andeq	r1, r0, r2, asr #18
     f28:	03012e0d 	movweq	r2, #7693	; 0x1e0d
     f2c:	3b0b3a0e 	blcc	2cf76c <__bss_end__+0x2c5f14>
     f30:	270b390b 	strcs	r3, [fp, -fp, lsl #18]
     f34:	11134919 	tstne	r3, r9, lsl r9
     f38:	40061201 	andmi	r1, r6, r1, lsl #4
     f3c:	19429718 	stmdbne	r2, {r3, r4, r8, r9, sl, ip, pc}^
     f40:	00001301 	andeq	r1, r0, r1, lsl #6
     f44:	0300050e 	movweq	r0, #1294	; 0x50e
     f48:	3b0b3a08 	blcc	2cf770 <__bss_end__+0x2c5f18>
     f4c:	490b390b 	stmdbmi	fp, {r0, r1, r3, r8, fp, ip, sp}
     f50:	b7170213 			; <UNDEFINED> instruction: 0xb7170213
     f54:	00001742 	andeq	r1, r0, r2, asr #14
     f58:	0182890f 	orreq	r8, r2, pc, lsl #18
     f5c:	31011101 	tstcc	r1, r1, lsl #2
     f60:	10000013 	andne	r0, r0, r3, lsl r0
     f64:	0001828a 	andeq	r8, r1, sl, lsl #5
     f68:	42911802 	addsmi	r1, r1, #131072	; 0x20000
     f6c:	11000018 	tstne	r0, r8, lsl r0
     f70:	193f002e 	ldmdbne	pc!, {r1, r2, r3, r5}	; <UNPREDICTABLE>
     f74:	0e6e193c 			; <UNDEFINED> instruction: 0x0e6e193c
     f78:	0b3a0e03 	bleq	e8478c <__bss_end__+0xe7af34>
     f7c:	0b390b3b 	bleq	e43c70 <__bss_end__+0xe3a418>
     f80:	01000000 	mrseq	r0, (UNDEF: 0)
     f84:	0e250111 	mcreq	1, 1, r0, cr5, cr1, {0}
     f88:	0e030b13 	vmoveq.32	d3[0], r0
     f8c:	01110e1b 	tsteq	r1, fp, lsl lr
     f90:	17100612 			; <UNDEFINED> instruction: 0x17100612
     f94:	24020000 	strcs	r0, [r2], #-0
     f98:	3e0b0b00 	vmlacc.f64	d0, d11, d0
     f9c:	0008030b 	andeq	r0, r8, fp, lsl #6
     fa0:	00240300 	eoreq	r0, r4, r0, lsl #6
     fa4:	0b3e0b0b 	bleq	f83bd8 <__bss_end__+0xf7a380>
     fa8:	00000e03 	andeq	r0, r0, r3, lsl #28
     fac:	27011504 	strcs	r1, [r1, -r4, lsl #10]
     fb0:	01134919 	tsteq	r3, r9, lsl r9
     fb4:	05000013 	streq	r0, [r0, #-19]	; 0xffffffed
     fb8:	13490005 	movtne	r0, #36869	; 0x9005
     fbc:	34060000 	strcc	r0, [r6], #-0
     fc0:	3a0e0300 	bcc	381bc8 <__bss_end__+0x378370>
     fc4:	390b3b0b 	stmdbcc	fp, {r0, r1, r3, r8, r9, fp, ip, sp}
     fc8:	3f13490b 	svccc	0x0013490b
     fcc:	00193c19 	andseq	r3, r9, r9, lsl ip
     fd0:	000f0700 	andeq	r0, pc, r0, lsl #14
     fd4:	13490b0b 	movtne	r0, #39691	; 0x9b0b
     fd8:	26080000 	strcs	r0, [r8], -r0
     fdc:	00134900 	andseq	r4, r3, r0, lsl #18
     fe0:	012e0900 			; <UNDEFINED> instruction: 0x012e0900
     fe4:	0e03193f 			; <UNDEFINED> instruction: 0x0e03193f
     fe8:	0b3b0b3a 	bleq	ec3cd8 <__bss_end__+0xeba480>
     fec:	19270b39 	stmdbne	r7!, {r0, r3, r4, r5, r8, r9, fp}
     ff0:	01111349 	tsteq	r1, r9, asr #6
     ff4:	18400612 	stmdane	r0, {r1, r4, r9, sl}^
     ff8:	01194297 			; <UNDEFINED> instruction: 0x01194297
     ffc:	0a000013 	beq	1050 <__code_start__-0x6fb0>
    1000:	0e030005 	cdpeq	0, 0, cr0, cr3, cr5, {0}
    1004:	0b3b0b3a 	bleq	ec3cf4 <__bss_end__+0xeba49c>
    1008:	13490b39 	movtne	r0, #39737	; 0x9b39
    100c:	00001802 	andeq	r1, r0, r2, lsl #16
    1010:	0300050b 	movweq	r0, #1291	; 0x50b
    1014:	3b0b3a08 	blcc	2cf83c <__bss_end__+0x2c5fe4>
    1018:	490b390b 	stmdbmi	fp, {r0, r1, r3, r8, fp, ip, sp}
    101c:	b7170213 			; <UNDEFINED> instruction: 0xb7170213
    1020:	00001742 	andeq	r1, r0, r2, asr #14
    1024:	0300340c 	movweq	r3, #1036	; 0x40c
    1028:	3b0b3a08 	blcc	2cf850 <__bss_end__+0x2c5ff8>
    102c:	490b390b 	stmdbmi	fp, {r0, r1, r3, r8, fp, ip, sp}
    1030:	b7170213 			; <UNDEFINED> instruction: 0xb7170213
    1034:	00001742 	andeq	r1, r0, r2, asr #14
    1038:	01110100 	tsteq	r1, r0, lsl #2
    103c:	0b130e25 	bleq	4c48d8 <__bss_end__+0x4bb080>
    1040:	0e1b0e03 	cdpeq	14, 1, cr0, cr11, cr3, {0}
    1044:	06120111 			; <UNDEFINED> instruction: 0x06120111
    1048:	00001710 	andeq	r1, r0, r0, lsl r7
    104c:	0b002402 	bleq	a05c <__bss_end__+0x804>
    1050:	030b3e0b 	movweq	r3, #48651	; 0xbe0b
    1054:	03000008 	movweq	r0, #8
    1058:	0b0b0024 	bleq	2c10f0 <__bss_end__+0x2b7898>
    105c:	0e030b3e 	vmoveq.16	d3[0], r0
    1060:	15040000 	strne	r0, [r4, #-0]
    1064:	49192701 	ldmdbmi	r9, {r0, r8, r9, sl, sp}
    1068:	00130113 	andseq	r0, r3, r3, lsl r1
    106c:	00050500 	andeq	r0, r5, r0, lsl #10
    1070:	00001349 	andeq	r1, r0, r9, asr #6
    1074:	03003406 	movweq	r3, #1030	; 0x406
    1078:	3b0b3a0e 	blcc	2cf8b8 <__bss_end__+0x2c6060>
    107c:	490b390b 	stmdbmi	fp, {r0, r1, r3, r8, fp, ip, sp}
    1080:	3c193f13 	ldccc	15, cr3, [r9], {19}
    1084:	07000019 	smladeq	r0, r9, r0, r0
    1088:	0b0b000f 	bleq	2c10cc <__bss_end__+0x2b7874>
    108c:	00001349 	andeq	r1, r0, r9, asr #6
    1090:	49002608 	stmdbmi	r0, {r3, r9, sl, sp}
    1094:	09000013 	stmdbeq	r0, {r0, r1, r4}
    1098:	193f012e 	ldmdbne	pc!, {r1, r2, r3, r5, r8}	; <UNPREDICTABLE>
    109c:	0b3a0e03 	bleq	e848b0 <__bss_end__+0xe7b058>
    10a0:	0b390b3b 	bleq	e43d94 <__bss_end__+0xe3a53c>
    10a4:	13491927 	movtne	r1, #39207	; 0x9927
    10a8:	06120111 			; <UNDEFINED> instruction: 0x06120111
    10ac:	42971840 	addsmi	r1, r7, #64, 16	; 0x400000
    10b0:	0a000019 	beq	111c <__code_start__-0x6ee4>
    10b4:	08030005 	stmdaeq	r3, {r0, r2}
    10b8:	0b3b0b3a 	bleq	ec3da8 <__bss_end__+0xeba550>
    10bc:	13490b39 	movtne	r0, #39737	; 0x9b39
    10c0:	42b71702 	adcsmi	r1, r7, #524288	; 0x80000
    10c4:	00000017 	andeq	r0, r0, r7, lsl r0
    10c8:	25011101 	strcs	r1, [r1, #-257]	; 0xfffffeff
    10cc:	030b130e 	movweq	r1, #45838	; 0xb30e
    10d0:	110e1b0e 	tstne	lr, lr, lsl #22
    10d4:	10061201 	andne	r1, r6, r1, lsl #4
    10d8:	02000017 	andeq	r0, r0, #23, 0
    10dc:	0b0b0024 	bleq	2c1174 <__bss_end__+0x2b791c>
    10e0:	08030b3e 	stmdaeq	r3, {r1, r2, r3, r4, r5, r8, r9, fp}
    10e4:	24030000 	strcs	r0, [r3], #-0
    10e8:	3e0b0b00 	vmlacc.f64	d0, d11, d0
    10ec:	000e030b 	andeq	r0, lr, fp, lsl #6
    10f0:	01150400 	tsteq	r5, r0, lsl #8
    10f4:	13491927 	movtne	r1, #39207	; 0x9927
    10f8:	00001301 	andeq	r1, r0, r1, lsl #6
    10fc:	49000505 	stmdbmi	r0, {r0, r2, r8, sl}
    1100:	06000013 			; <UNDEFINED> instruction: 0x06000013
    1104:	0e030034 	mcreq	0, 0, r0, cr3, cr4, {1}
    1108:	0b3b0b3a 	bleq	ec3df8 <__bss_end__+0xeba5a0>
    110c:	13490b39 	movtne	r0, #39737	; 0x9b39
    1110:	193c193f 	ldmdbne	ip!, {r0, r1, r2, r3, r4, r5, r8, fp, ip}
    1114:	0f070000 	svceq	0x00070000
    1118:	490b0b00 	stmdbmi	fp, {r8, r9, fp}
    111c:	08000013 	stmdaeq	r0, {r0, r1, r4}
    1120:	13490026 	movtne	r0, #36902	; 0x9026
    1124:	2e090000 	cdpcs	0, 0, cr0, cr9, cr0, {0}
    1128:	03193f01 	tsteq	r9, #1, 30
    112c:	3b0b3a0e 	blcc	2cf96c <__bss_end__+0x2c6114>
    1130:	270b390b 	strcs	r3, [fp, -fp, lsl #18]
    1134:	11134919 	tstne	r3, r9, lsl r9
    1138:	40061201 	andmi	r1, r6, r1, lsl #4
    113c:	19429718 	stmdbne	r2, {r3, r4, r8, r9, sl, ip, pc}^
    1140:	00001301 	andeq	r1, r0, r1, lsl #6
    1144:	0300050a 	movweq	r0, #1290	; 0x50a
    1148:	3b0b3a08 	blcc	2cf970 <__bss_end__+0x2c6118>
    114c:	490b390b 	stmdbmi	fp, {r0, r1, r3, r8, fp, ip, sp}
    1150:	00180213 	andseq	r0, r8, r3, lsl r2
    1154:	00050b00 	andeq	r0, r5, r0, lsl #22
    1158:	0b3a0803 	bleq	e8316c <__bss_end__+0xe79914>
    115c:	0b390b3b 	bleq	e43e50 <__bss_end__+0xe3a5f8>
    1160:	17021349 	strne	r1, [r2, -r9, asr #6]
    1164:	001742b7 			; <UNDEFINED> instruction: 0x001742b7
    1168:	00340c00 	eorseq	r0, r4, r0, lsl #24
    116c:	0b3a0803 	bleq	e83180 <__bss_end__+0xe79928>
    1170:	0b390b3b 	bleq	e43e64 <__bss_end__+0xe3a60c>
    1174:	17021349 	strne	r1, [r2, -r9, asr #6]
    1178:	001742b7 			; <UNDEFINED> instruction: 0x001742b7
    117c:	11010000 	mrsne	r0, (UNDEF: 1)
    1180:	130e2501 	movwne	r2, #58625	; 0xe501
    1184:	1b0e030b 	blne	381db8 <__bss_end__+0x378560>
    1188:	1117550e 	tstne	r7, lr, lsl #10
    118c:	00171001 	andseq	r1, r7, r1
    1190:	00240200 	eoreq	r0, r4, r0, lsl #4
    1194:	0b3e0b0b 	bleq	f83dc8 <__bss_end__+0xf7a570>
    1198:	00000803 	andeq	r0, r0, r3, lsl #16
    119c:	03001603 	movweq	r1, #1539	; 0x603
    11a0:	3b0b3a0e 	blcc	2cf9e0 <__bss_end__+0x2c6188>
    11a4:	490b390b 	stmdbmi	fp, {r0, r1, r3, r8, fp, ip, sp}
    11a8:	04000013 	streq	r0, [r0], #-19	; 0xffffffed
    11ac:	0b0b0024 	bleq	2c1244 <__bss_end__+0x2b79ec>
    11b0:	0e030b3e 	vmoveq.16	d3[0], r0
    11b4:	26050000 	strcs	r0, [r5], -r0
    11b8:	00134900 	andseq	r4, r3, r0, lsl #18
    11bc:	01150600 	tsteq	r5, r0, lsl #12
    11c0:	13491927 	movtne	r1, #39207	; 0x9927
    11c4:	00001301 	andeq	r1, r0, r1, lsl #6
    11c8:	49000507 	stmdbmi	r0, {r0, r1, r2, r8, sl}
    11cc:	08000013 	stmdaeq	r0, {r0, r1, r4}
    11d0:	0e030034 	mcreq	0, 0, r0, cr3, cr4, {1}
    11d4:	0b3b0b3a 	bleq	ec3ec4 <__bss_end__+0xeba66c>
    11d8:	13490b39 	movtne	r0, #39737	; 0x9b39
    11dc:	193c193f 	ldmdbne	ip!, {r0, r1, r2, r3, r4, r5, r8, fp, ip}
    11e0:	0f090000 	svceq	0x00090000
    11e4:	490b0b00 	stmdbmi	fp, {r8, r9, fp}
    11e8:	0a000013 	beq	123c <__code_start__-0x6dc4>
    11ec:	193f012e 	ldmdbne	pc!, {r1, r2, r3, r5, r8}	; <UNPREDICTABLE>
    11f0:	0b3a0e03 	bleq	e84a04 <__bss_end__+0xe7b1ac>
    11f4:	0b390b3b 	bleq	e43ee8 <__bss_end__+0xe3a690>
    11f8:	13491927 	movtne	r1, #39207	; 0x9927
    11fc:	06120111 			; <UNDEFINED> instruction: 0x06120111
    1200:	42971840 	addsmi	r1, r7, #64, 16	; 0x400000
    1204:	00130119 	andseq	r0, r3, r9, lsl r1
    1208:	00050b00 	andeq	r0, r5, r0, lsl #22
    120c:	0b3a0803 	bleq	e83220 <__bss_end__+0xe799c8>
    1210:	0b390b3b 	bleq	e43f04 <__bss_end__+0xe3a6ac>
    1214:	17021349 	strne	r1, [r2, -r9, asr #6]
    1218:	001742b7 			; <UNDEFINED> instruction: 0x001742b7
    121c:	00340c00 	eorseq	r0, r4, r0, lsl #24
    1220:	0b3a0803 	bleq	e83234 <__bss_end__+0xe799dc>
    1224:	0b390b3b 	bleq	e43f18 <__bss_end__+0xe3a6c0>
    1228:	17021349 	strne	r1, [r2, -r9, asr #6]
    122c:	001742b7 			; <UNDEFINED> instruction: 0x001742b7
    1230:	11010000 	mrsne	r0, (UNDEF: 1)
    1234:	130e2501 	movwne	r2, #58625	; 0xe501
    1238:	1b0e030b 	blne	381e6c <__bss_end__+0x378614>
    123c:	1201110e 	andne	r1, r1, #-2147483645	; 0x80000003
    1240:	00171006 	andseq	r1, r7, r6
    1244:	00240200 	eoreq	r0, r4, r0, lsl #4
    1248:	0b3e0b0b 	bleq	f83e7c <__bss_end__+0xf7a624>
    124c:	00000803 	andeq	r0, r0, r3, lsl #16
    1250:	0b002403 	bleq	a264 <__bss_end__+0xa0c>
    1254:	030b3e0b 	movweq	r3, #48651	; 0xbe0b
    1258:	0400000e 	streq	r0, [r0], #-14
    125c:	19270115 	stmdbne	r7!, {r0, r2, r4, r8}
    1260:	13011349 	movwne	r1, #4937	; 0x1349
    1264:	05050000 	streq	r0, [r5, #-0]
    1268:	00134900 	andseq	r4, r3, r0, lsl #18
    126c:	00340600 	eorseq	r0, r4, r0, lsl #12
    1270:	0b3a0e03 	bleq	e84a84 <__bss_end__+0xe7b22c>
    1274:	0b390b3b 	bleq	e43f68 <__bss_end__+0xe3a710>
    1278:	193f1349 	ldmdbne	pc!, {r0, r3, r6, r8, r9, ip}	; <UNPREDICTABLE>
    127c:	0000193c 	andeq	r1, r0, ip, lsr r9
    1280:	0b000f07 	bleq	4ea4 <__code_start__-0x315c>
    1284:	0013490b 	andseq	r4, r3, fp, lsl #18
    1288:	00260800 	eoreq	r0, r6, r0, lsl #16
    128c:	00001349 	andeq	r1, r0, r9, asr #6
    1290:	3f002e09 	svccc	0x00002e09
    1294:	3a0e0319 	bcc	381f00 <__bss_end__+0x3786a8>
    1298:	390b3b0b 	stmdbcc	fp, {r0, r1, r3, r8, r9, fp, ip, sp}
    129c:	1119270b 	tstne	r9, fp, lsl #14
    12a0:	40061201 	andmi	r1, r6, r1, lsl #4
    12a4:	19429718 	stmdbne	r2, {r3, r4, r8, r9, sl, ip, pc}^
    12a8:	Address 0x00000000000012a8 is out of bounds.


Disassembly of section .debug_loc:

00000000 <.debug_loc>:
       0:	00000000 	andeq	r0, r0, r0
       4:	00180000 	andseq	r0, r8, r0
       8:	00280000 	eoreq	r0, r8, r0
       c:	00010000 	andeq	r0, r1, r0
      10:	00002850 	andeq	r2, r0, r0, asr r8
      14:	00006000 	andeq	r6, r0, r0
      18:	54000100 	strpl	r0, [r0], #-256	; 0xffffff00
      1c:	00000060 	andeq	r0, r0, r0, rrx
      20:	000002b0 			; <UNDEFINED> instruction: 0x000002b0
      24:	01f30004 	mvnseq	r0, r4
      28:	00009f50 	andeq	r9, r0, r0, asr pc
      2c:	00000000 	andeq	r0, r0, r0
      30:	00010000 	andeq	r0, r1, r0
      34:	0000003c 	andeq	r0, r0, ip, lsr r0
      38:	0000004b 	andeq	r0, r0, fp, asr #32
      3c:	00530001 	subseq	r0, r3, r1
      40:	00000000 	andeq	r0, r0, r0
      44:	01000000 	mrseq	r0, (UNDEF: 0)
      48:	00004000 	andeq	r4, r0, r0
      4c:	00004400 	andeq	r4, r0, r0, lsl #8
      50:	51000100 	mrspl	r0, (UNDEF: 16)
	...
      5c:	003c0000 	eorseq	r0, ip, r0
      60:	004b0000 	subeq	r0, fp, r0
      64:	00010000 	andeq	r0, r1, r0
      68:	00000053 	andeq	r0, r0, r3, asr r0
      6c:	00000000 	andeq	r0, r0, r0
      70:	40000000 	andmi	r0, r0, r0
      74:	44000000 	strmi	r0, [r0], #-0
      78:	01000000 	mrseq	r0, (UNDEF: 0)
      7c:	00005100 	andeq	r5, r0, r0, lsl #2
      80:	00000000 	andeq	r0, r0, r0
      84:	00030000 	andeq	r0, r3, r0
      88:	00540000 	subseq	r0, r4, r0
      8c:	00680000 	rsbeq	r0, r8, r0
      90:	00060000 	andeq	r0, r6, r0
      94:	00720071 	rsbseq	r0, r2, r1, ror r0
      98:	00689f1c 	rsbeq	r9, r8, ip, lsl pc
      9c:	00730000 	rsbseq	r0, r3, r0
      a0:	00010000 	andeq	r0, r1, r0
      a4:	00000052 	andeq	r0, r0, r2, asr r0
      a8:	00000000 	andeq	r0, r0, r0
      ac:	50000100 	andpl	r0, r0, r0, lsl #2
      b0:	68000000 	stmdavs	r0, {}	; <UNPREDICTABLE>
      b4:	01000000 	mrseq	r0, (UNDEF: 0)
      b8:	00005200 	andeq	r5, r0, r0, lsl #4
      bc:	00000000 	andeq	r0, r0, r0
      c0:	00010000 	andeq	r0, r1, r0
      c4:	00000054 	andeq	r0, r0, r4, asr r0
      c8:	0000006c 	andeq	r0, r0, ip, rrx
      cc:	00510001 	subseq	r0, r1, r1
	...
      d8:	00005000 	andeq	r5, r0, r0
      dc:	00006800 	andeq	r6, r0, r0, lsl #16
      e0:	52000100 	andpl	r0, r0, #0
	...
      ec:	00540000 	subseq	r0, r4, r0
      f0:	006c0000 	rsbeq	r0, ip, r0
      f4:	00010000 	andeq	r0, r1, r0
      f8:	00000051 	andeq	r0, r0, r1, asr r0
      fc:	00000000 	andeq	r0, r0, r0
     100:	00000300 	andeq	r0, r0, r0, lsl #6
     104:	00007c00 	andeq	r7, r0, r0, lsl #24
     108:	00008400 	andeq	r8, r0, r0, lsl #8
     10c:	71000600 	tstvc	r0, r0, lsl #12
     110:	1c007200 	sfmne	f7, 4, [r0], {-0}
     114:	0000849f 	muleq	r0, pc, r4	; <UNPREDICTABLE>
     118:	00008f00 	andeq	r8, r0, r0, lsl #30
     11c:	52000100 	andpl	r0, r0, #0
	...
     128:	00780001 	rsbseq	r0, r8, r1
     12c:	00840000 	addeq	r0, r4, r0
     130:	00010000 	andeq	r0, r1, r0
     134:	00000052 	andeq	r0, r0, r2, asr r0
     138:	00000000 	andeq	r0, r0, r0
     13c:	7c000100 	stfvcs	f0, [r0], {-0}
     140:	88000000 	stmdahi	r0, {}	; <UNPREDICTABLE>
     144:	01000000 	mrseq	r0, (UNDEF: 0)
     148:	00005100 	andeq	r5, r0, r0, lsl #2
	...
     154:	00000078 	andeq	r0, r0, r8, ror r0
     158:	00000084 	andeq	r0, r0, r4, lsl #1
     15c:	00520001 	subseq	r0, r2, r1
	...
     168:	00007c00 	andeq	r7, r0, r0, lsl #24
     16c:	00008800 	andeq	r8, r0, r0, lsl #16
     170:	51000100 	mrspl	r0, (UNDEF: 16)
	...
     17c:	00000003 	andeq	r0, r0, r3
     180:	00000098 	muleq	r0, r8, r0
     184:	000000a0 	andeq	r0, r0, r0, lsr #1
     188:	00710006 	rsbseq	r0, r1, r6
     18c:	9f1c0072 	svcls	0x001c0072
     190:	000000a0 	andeq	r0, r0, r0, lsr #1
     194:	000000ab 	andeq	r0, r0, fp, lsr #1
     198:	00520001 	subseq	r0, r2, r1
     19c:	00000000 	andeq	r0, r0, r0
     1a0:	01000000 	mrseq	r0, (UNDEF: 0)
     1a4:	00009400 	andeq	r9, r0, r0, lsl #8
     1a8:	0000a000 	andeq	sl, r0, r0
     1ac:	52000100 	andpl	r0, r0, #0
	...
     1b8:	00980001 	addseq	r0, r8, r1
     1bc:	00a40000 	adceq	r0, r4, r0
     1c0:	00010000 	andeq	r0, r1, r0
     1c4:	00000051 	andeq	r0, r0, r1, asr r0
     1c8:	00000000 	andeq	r0, r0, r0
     1cc:	94000000 	strls	r0, [r0], #-0
     1d0:	a0000000 	andge	r0, r0, r0
     1d4:	01000000 	mrseq	r0, (UNDEF: 0)
     1d8:	00005200 	andeq	r5, r0, r0, lsl #4
	...
     1e4:	00000098 	muleq	r0, r8, r0
     1e8:	000000a4 	andeq	r0, r0, r4, lsr #1
     1ec:	00510001 	subseq	r0, r1, r1
     1f0:	00000000 	andeq	r0, r0, r0
     1f4:	03000000 	movweq	r0, #0
     1f8:	e0000000 	and	r0, r0, r0
     1fc:	f0000000 			; <UNDEFINED> instruction: 0xf0000000
     200:	06000000 	streq	r0, [r0], -r0
     204:	72007100 	andvc	r7, r0, #0
     208:	f09f1c00 			; <UNDEFINED> instruction: 0xf09f1c00
     20c:	fb000000 	blx	216 <__code_start__-0x7dea>
     210:	01000000 	mrseq	r0, (UNDEF: 0)
     214:	00005200 	andeq	r5, r0, r0, lsl #4
     218:	00000000 	andeq	r0, r0, r0
     21c:	00010000 	andeq	r0, r1, r0
     220:	000000d4 	ldrdeq	r0, [r0], -r4
     224:	000000f0 	strdeq	r0, [r0], -r0	; <UNPREDICTABLE>
     228:	00520001 	subseq	r0, r2, r1
     22c:	00000000 	andeq	r0, r0, r0
     230:	01000000 	mrseq	r0, (UNDEF: 0)
     234:	0000e000 	andeq	lr, r0, r0
     238:	0000f400 	andeq	pc, r0, r0, lsl #8
     23c:	51000100 	mrspl	r0, (UNDEF: 16)
	...
     248:	00d40000 	sbcseq	r0, r4, r0
     24c:	00f00000 	rscseq	r0, r0, r0
     250:	00010000 	andeq	r0, r1, r0
     254:	00000052 	andeq	r0, r0, r2, asr r0
     258:	00000000 	andeq	r0, r0, r0
     25c:	e0000000 	and	r0, r0, r0
     260:	f4000000 	vst4.8	{d0-d3}, [r0], r0
     264:	01000000 	mrseq	r0, (UNDEF: 0)
     268:	00005100 	andeq	r5, r0, r0, lsl #2
     26c:	00000000 	andeq	r0, r0, r0
     270:	00030000 	andeq	r0, r3, r0
     274:	01080000 	mrseq	r0, (UNDEF: 8)
     278:	01100000 	tsteq	r0, r0
     27c:	00060000 	andeq	r0, r6, r0
     280:	00720071 	rsbseq	r0, r2, r1, ror r0
     284:	01109f1c 	tsteq	r0, ip, lsl pc
     288:	011b0000 	tsteq	fp, r0
     28c:	00010000 	andeq	r0, r1, r0
     290:	00000052 	andeq	r0, r0, r2, asr r0
     294:	00000000 	andeq	r0, r0, r0
     298:	00000100 	andeq	r0, r0, r0, lsl #2
     29c:	10000001 	andne	r0, r0, r1
     2a0:	01000001 	tsteq	r0, r1
     2a4:	00005200 	andeq	r5, r0, r0, lsl #4
     2a8:	00000000 	andeq	r0, r0, r0
     2ac:	00010000 	andeq	r0, r1, r0
     2b0:	00000108 	andeq	r0, r0, r8, lsl #2
     2b4:	00000114 	andeq	r0, r0, r4, lsl r1
     2b8:	00510001 	subseq	r0, r1, r1
	...
     2c4:	00010000 	andeq	r0, r1, r0
     2c8:	00011000 	andeq	r1, r1, r0
     2cc:	52000100 	andpl	r0, r0, #0
	...
     2d8:	01080000 	mrseq	r0, (UNDEF: 8)
     2dc:	01140000 	tsteq	r4, r0
     2e0:	00010000 	andeq	r0, r1, r0
     2e4:	00000051 	andeq	r0, r0, r1, asr r0
     2e8:	00000000 	andeq	r0, r0, r0
     2ec:	00000300 	andeq	r0, r0, r0, lsl #6
     2f0:	00012800 	andeq	r2, r1, r0, lsl #16
     2f4:	00013800 	andeq	r3, r1, r0, lsl #16
     2f8:	72000600 	andvc	r0, r0, #0, 12
     2fc:	1c007700 	stcne	7, cr7, [r0], {-0}
     300:	0001389f 	muleq	r1, pc, r8	; <UNPREDICTABLE>
     304:	00014300 	andeq	r4, r1, r0, lsl #6
     308:	52000100 	andpl	r0, r0, #0
	...
     314:	01200001 			; <UNDEFINED> instruction: 0x01200001
     318:	01480000 	mrseq	r0, (UNDEF: 72)
     31c:	00010000 	andeq	r0, r1, r0
     320:	00000057 	andeq	r0, r0, r7, asr r0
     324:	00000000 	andeq	r0, r0, r0
     328:	28000100 	stmdacs	r0, {r8}
     32c:	38000001 	stmdacc	r0, {r0}
     330:	01000001 	tsteq	r0, r1
     334:	00005200 	andeq	r5, r0, r0, lsl #4
	...
     340:	00000120 	andeq	r0, r0, r0, lsr #2
     344:	00000148 	andeq	r0, r0, r8, asr #2
     348:	00570001 	subseq	r0, r7, r1
	...
     354:	00012800 	andeq	r2, r1, r0, lsl #16
     358:	00013800 	andeq	r3, r1, r0, lsl #16
     35c:	52000100 	andpl	r0, r0, #0
	...
     368:	00000003 	andeq	r0, r0, r3
     36c:	00000150 	andeq	r0, r0, r0, asr r1
     370:	00000158 	andeq	r0, r0, r8, asr r1
     374:	00720006 	rsbseq	r0, r2, r6
     378:	9f1c0077 	svcls	0x001c0077
     37c:	00000158 	andeq	r0, r0, r8, asr r1
     380:	00000163 	andeq	r0, r0, r3, ror #2
     384:	00520001 	subseq	r0, r2, r1
     388:	00000000 	andeq	r0, r0, r0
     38c:	01000000 	mrseq	r0, (UNDEF: 0)
     390:	00014800 	andeq	r4, r1, r0, lsl #16
     394:	00019800 	andeq	r9, r1, r0, lsl #16
     398:	57000100 	strpl	r0, [r0, -r0, lsl #2]
	...
     3a4:	01500001 	cmpeq	r0, r1
     3a8:	01580000 	cmpeq	r8, r0
     3ac:	00010000 	andeq	r0, r1, r0
     3b0:	00000052 	andeq	r0, r0, r2, asr r0
     3b4:	00000000 	andeq	r0, r0, r0
     3b8:	48000000 	stmdami	r0, {}	; <UNPREDICTABLE>
     3bc:	98000001 	stmdals	r0, {r0}
     3c0:	01000001 	tsteq	r0, r1
     3c4:	00005700 	andeq	r5, r0, r0, lsl #14
	...
     3d0:	00000150 	andeq	r0, r0, r0, asr r1
     3d4:	00000158 	andeq	r0, r0, r8, asr r1
     3d8:	00520001 	subseq	r0, r2, r1
     3dc:	00000000 	andeq	r0, r0, r0
     3e0:	03000000 	movweq	r0, #0
     3e4:	a4000000 	strge	r0, [r0], #-0
     3e8:	b4000001 	strlt	r0, [r0], #-1
     3ec:	06000001 	streq	r0, [r0], -r1
     3f0:	72007100 	andvc	r7, r0, #0
     3f4:	b49f1c00 	ldrlt	r1, [pc], #3072	; 3fc <__code_start__-0x7c04>
     3f8:	bf000001 	svclt	0x00000001
     3fc:	01000001 	tsteq	r0, r1
     400:	00005200 	andeq	r5, r0, r0, lsl #4
     404:	00000000 	andeq	r0, r0, r0
     408:	00010000 	andeq	r0, r1, r0
     40c:	00000194 	muleq	r0, r4, r1
     410:	000001b4 			; <UNDEFINED> instruction: 0x000001b4
     414:	00520001 	subseq	r0, r2, r1
     418:	00000000 	andeq	r0, r0, r0
     41c:	01000000 	mrseq	r0, (UNDEF: 0)
     420:	0001a400 	andeq	sl, r1, r0, lsl #8
     424:	0001b800 	andeq	fp, r1, r0, lsl #16
     428:	51000100 	mrspl	r0, (UNDEF: 16)
	...
     434:	01940000 	orrseq	r0, r4, r0
     438:	01b40000 			; <UNDEFINED> instruction: 0x01b40000
     43c:	00010000 	andeq	r0, r1, r0
     440:	00000052 	andeq	r0, r0, r2, asr r0
     444:	00000000 	andeq	r0, r0, r0
     448:	a4000000 	strge	r0, [r0], #-0
     44c:	b8000001 	stmdalt	r0, {r0}
     450:	01000001 	tsteq	r0, r1
     454:	00005100 	andeq	r5, r0, r0, lsl #2
     458:	00000000 	andeq	r0, r0, r0
     45c:	00030000 	andeq	r0, r3, r0
     460:	01cc0000 	biceq	r0, ip, r0
     464:	01d40000 	bicseq	r0, r4, r0
     468:	00060000 	andeq	r0, r6, r0
     46c:	00720071 	rsbseq	r0, r2, r1, ror r0
     470:	01d49f1c 	bicseq	r9, r4, ip, lsl pc
     474:	01df0000 	bicseq	r0, pc, r0
     478:	00010000 	andeq	r0, r1, r0
     47c:	00000052 	andeq	r0, r0, r2, asr r0
     480:	00000000 	andeq	r0, r0, r0
     484:	c4000100 	strgt	r0, [r0], #-256	; 0xffffff00
     488:	d4000001 	strle	r0, [r0], #-1
     48c:	01000001 	tsteq	r0, r1
     490:	00005200 	andeq	r5, r0, r0, lsl #4
     494:	00000000 	andeq	r0, r0, r0
     498:	00010000 	andeq	r0, r1, r0
     49c:	000001cc 	andeq	r0, r0, ip, asr #3
     4a0:	000001d8 	ldrdeq	r0, [r0], -r8
     4a4:	00510001 	subseq	r0, r1, r1
	...
     4b0:	0001c400 	andeq	ip, r1, r0, lsl #8
     4b4:	0001d400 	andeq	sp, r1, r0, lsl #8
     4b8:	52000100 	andpl	r0, r0, #0
	...
     4c4:	01cc0000 	biceq	r0, ip, r0
     4c8:	01d80000 	bicseq	r0, r8, r0
     4cc:	00010000 	andeq	r0, r1, r0
     4d0:	00000051 	andeq	r0, r0, r1, asr r0
     4d4:	00000000 	andeq	r0, r0, r0
     4d8:	00000300 	andeq	r0, r0, r0, lsl #6
     4dc:	00022000 	andeq	r2, r2, r0
     4e0:	00022c00 	andeq	r2, r2, r0, lsl #24
     4e4:	72000600 	andvc	r0, r0, #0, 12
     4e8:	1c007a00 			; <UNDEFINED> instruction: 0x1c007a00
     4ec:	00022c9f 	muleq	r2, pc, ip	; <UNPREDICTABLE>
     4f0:	00023700 	andeq	r3, r2, r0, lsl #14
     4f4:	52000100 	andpl	r0, r0, #0
	...
     500:	02100001 	andseq	r0, r0, #1, 0
     504:	023c0000 	eorseq	r0, ip, #0, 0
     508:	00010000 	andeq	r0, r1, r0
     50c:	0000005a 	andeq	r0, r0, sl, asr r0
     510:	00000000 	andeq	r0, r0, r0
     514:	20000100 	andcs	r0, r0, r0, lsl #2
     518:	2c000002 	stccs	0, cr0, [r0], {2}
     51c:	01000002 	tsteq	r0, r2
     520:	00005200 	andeq	r5, r0, r0, lsl #4
	...
     52c:	00000210 	andeq	r0, r0, r0, lsl r2
     530:	0000023c 	andeq	r0, r0, ip, lsr r2
     534:	005a0001 	subseq	r0, sl, r1
	...
     540:	00022000 	andeq	r2, r2, r0
     544:	00022c00 	andeq	r2, r2, r0, lsl #24
     548:	52000100 	andpl	r0, r0, #0
	...
     554:	00000003 	andeq	r0, r0, r3
     558:	0000024c 	andeq	r0, r0, ip, asr #4
     55c:	00000254 	andeq	r0, r0, r4, asr r2
     560:	00720006 	rsbseq	r0, r2, r6
     564:	9f1c007a 	svcls	0x001c007a
     568:	00000254 	andeq	r0, r0, r4, asr r2
     56c:	0000025f 	andeq	r0, r0, pc, asr r2
     570:	00520001 	subseq	r0, r2, r1
     574:	00000000 	andeq	r0, r0, r0
     578:	01000000 	mrseq	r0, (UNDEF: 0)
     57c:	00023c00 	andeq	r3, r2, r0, lsl #24
     580:	0002b000 	andeq	fp, r2, r0
     584:	5a000100 	bpl	98c <__code_start__-0x7674>
	...
     590:	024c0001 	subeq	r0, ip, #1, 0
     594:	02540000 	subseq	r0, r4, #0, 0
     598:	00010000 	andeq	r0, r1, r0
     59c:	00000052 	andeq	r0, r0, r2, asr r0
     5a0:	00000000 	andeq	r0, r0, r0
     5a4:	3c000000 	stccc	0, cr0, [r0], {-0}
     5a8:	b0000002 	andlt	r0, r0, r2
     5ac:	01000002 	tsteq	r0, r2
     5b0:	00005a00 	andeq	r5, r0, r0, lsl #20
	...
     5bc:	0000024c 	andeq	r0, r0, ip, asr #4
     5c0:	00000254 	andeq	r0, r0, r4, asr r2
     5c4:	00520001 	subseq	r0, r2, r1
     5c8:	00000000 	andeq	r0, r0, r0
     5cc:	01000000 	mrseq	r0, (UNDEF: 0)
     5d0:	00000400 	andeq	r0, r0, r0, lsl #8
     5d4:	00001800 	andeq	r1, r0, r0, lsl #16
     5d8:	53000100 	movwpl	r0, #256	; 0x100
	...
     5e4:	00100001 	andseq	r0, r0, r1
     5e8:	00140000 	andseq	r0, r4, r0
     5ec:	00010000 	andeq	r0, r1, r0
     5f0:	00000050 	andeq	r0, r0, r0, asr r0
     5f4:	00000000 	andeq	r0, r0, r0
     5f8:	04000000 	streq	r0, [r0], #-0
     5fc:	18000000 	stmdane	r0, {}	; <UNPREDICTABLE>
     600:	01000000 	mrseq	r0, (UNDEF: 0)
     604:	00005300 	andeq	r5, r0, r0, lsl #6
	...
     610:	00000010 	andeq	r0, r0, r0, lsl r0
     614:	00000014 	andeq	r0, r0, r4, lsl r0
     618:	00500001 	subseq	r0, r0, r1
     61c:	00000000 	andeq	r0, r0, r0
     620:	01000000 	mrseq	r0, (UNDEF: 0)
     624:	0000b800 	andeq	fp, r0, r0, lsl #16
     628:	0000d400 	andeq	sp, r0, r0, lsl #8
     62c:	53000100 	movwpl	r0, #256	; 0x100
	...
     638:	00cc0001 	sbceq	r0, ip, r1
     63c:	00d00000 	sbcseq	r0, r0, r0
     640:	00010000 	andeq	r0, r1, r0
     644:	00000050 	andeq	r0, r0, r0, asr r0
     648:	00000000 	andeq	r0, r0, r0
     64c:	b8000000 	stmdalt	r0, {}	; <UNPREDICTABLE>
     650:	d4000000 	strle	r0, [r0], #-0
     654:	01000000 	mrseq	r0, (UNDEF: 0)
     658:	00005300 	andeq	r5, r0, r0, lsl #6
	...
     664:	000000cc 	andeq	r0, r0, ip, asr #1
     668:	000000d0 	ldrdeq	r0, [r0], -r0	; <UNPREDICTABLE>
     66c:	00500001 	subseq	r0, r0, r1
     670:	00000000 	andeq	r0, r0, r0
     674:	01000000 	mrseq	r0, (UNDEF: 0)
     678:	00009c00 	andeq	r9, r0, r0, lsl #24
     67c:	0000b400 	andeq	fp, r0, r0, lsl #8
     680:	53000100 	movwpl	r0, #256	; 0x100
	...
     68c:	00ac0001 	adceq	r0, ip, r1
     690:	00b00000 	adcseq	r0, r0, r0
     694:	00010000 	andeq	r0, r1, r0
     698:	00000050 	andeq	r0, r0, r0, asr r0
     69c:	00000000 	andeq	r0, r0, r0
     6a0:	9c000000 	stcls	0, cr0, [r0], {-0}
     6a4:	b4000000 	strlt	r0, [r0], #-0
     6a8:	01000000 	mrseq	r0, (UNDEF: 0)
     6ac:	00005300 	andeq	r5, r0, r0, lsl #6
	...
     6b8:	000000ac 	andeq	r0, r0, ip, lsr #1
     6bc:	000000b0 	strheq	r0, [r0], -r0	; <UNPREDICTABLE>
     6c0:	00500001 	subseq	r0, r0, r1
     6c4:	00000000 	andeq	r0, r0, r0
     6c8:	01000000 	mrseq	r0, (UNDEF: 0)
     6cc:	00008400 	andeq	r8, r0, r0, lsl #8
     6d0:	00009800 	andeq	r9, r0, r0, lsl #16
     6d4:	53000100 	movwpl	r0, #256	; 0x100
	...
     6e0:	00900001 	addseq	r0, r0, r1
     6e4:	00940000 	addseq	r0, r4, r0
     6e8:	00010000 	andeq	r0, r1, r0
     6ec:	00000050 	andeq	r0, r0, r0, asr r0
     6f0:	00000000 	andeq	r0, r0, r0
     6f4:	84000000 	strhi	r0, [r0], #-0
     6f8:	98000000 	stmdals	r0, {}	; <UNPREDICTABLE>
     6fc:	01000000 	mrseq	r0, (UNDEF: 0)
     700:	00005300 	andeq	r5, r0, r0, lsl #6
	...
     70c:	00000090 	muleq	r0, r0, r0
     710:	00000094 	muleq	r0, r4, r0
     714:	00500001 	subseq	r0, r0, r1
     718:	00000000 	andeq	r0, r0, r0
     71c:	01000000 	mrseq	r0, (UNDEF: 0)
     720:	00007000 	andeq	r7, r0, r0
     724:	00008000 	andeq	r8, r0, r0
     728:	53000100 	movwpl	r0, #256	; 0x100
	...
     734:	00780001 	rsbseq	r0, r8, r1
     738:	007c0000 	rsbseq	r0, ip, r0
     73c:	00010000 	andeq	r0, r1, r0
     740:	00000050 	andeq	r0, r0, r0, asr r0
     744:	00000000 	andeq	r0, r0, r0
     748:	70000000 	andvc	r0, r0, r0
     74c:	80000000 	andhi	r0, r0, r0
     750:	01000000 	mrseq	r0, (UNDEF: 0)
     754:	00005300 	andeq	r5, r0, r0, lsl #6
	...
     760:	00000078 	andeq	r0, r0, r8, ror r0
     764:	0000007c 	andeq	r0, r0, ip, ror r0
     768:	00500001 	subseq	r0, r0, r1
     76c:	00000000 	andeq	r0, r0, r0
     770:	01000000 	mrseq	r0, (UNDEF: 0)
     774:	00006000 	andeq	r6, r0, r0
     778:	00006c00 	andeq	r6, r0, r0, lsl #24
     77c:	53000100 	movwpl	r0, #256	; 0x100
	...
     788:	00640001 	rsbeq	r0, r4, r1
     78c:	00680000 	rsbeq	r0, r8, r0
     790:	00010000 	andeq	r0, r1, r0
     794:	00000050 	andeq	r0, r0, r0, asr r0
     798:	00000000 	andeq	r0, r0, r0
     79c:	60000000 	andvs	r0, r0, r0
     7a0:	6c000000 	stcvs	0, cr0, [r0], {-0}
     7a4:	01000000 	mrseq	r0, (UNDEF: 0)
     7a8:	00005300 	andeq	r5, r0, r0, lsl #6
	...
     7b4:	00000064 	andeq	r0, r0, r4, rrx
     7b8:	00000068 	andeq	r0, r0, r8, rrx
     7bc:	00500001 	subseq	r0, r0, r1
	...
     7cc:	00003800 	andeq	r3, r0, r0, lsl #16
     7d0:	00004800 	andeq	r4, r0, r0, lsl #16
     7d4:	50000100 	andpl	r0, r0, r0, lsl #2
     7d8:	00000048 	andeq	r0, r0, r8, asr #32
     7dc:	0000004b 	andeq	r0, r0, fp, asr #32
     7e0:	4b510001 	blmi	14407ec <__bss_end__+0x1436f94>
     7e4:	5c000000 	stcpl	0, cr0, [r0], {-0}
     7e8:	04000000 	streq	r0, [r0], #-0
     7ec:	5001f300 	andpl	pc, r1, r0, lsl #6
     7f0:	0000009f 	muleq	r0, pc, r0	; <UNPREDICTABLE>
     7f4:	00000000 	andeq	r0, r0, r0
     7f8:	44000100 	strmi	r0, [r0], #-256	; 0xffffff00
     7fc:	5c000000 	stcpl	0, cr0, [r0], {-0}
     800:	01000000 	mrseq	r0, (UNDEF: 0)
     804:	00005400 	andeq	r5, r0, r0, lsl #8
     808:	00000000 	andeq	r0, r0, r0
     80c:	00010000 	andeq	r0, r1, r0
     810:	00000050 	andeq	r0, r0, r0, asr r0
     814:	00000054 	andeq	r0, r0, r4, asr r0
     818:	00500001 	subseq	r0, r0, r1
	...
     824:	00004400 	andeq	r4, r0, r0, lsl #8
     828:	00005c00 	andeq	r5, r0, r0, lsl #24
     82c:	54000100 	strpl	r0, [r0], #-256	; 0xffffff00
	...
     838:	00500000 	subseq	r0, r0, r0
     83c:	00540000 	subseq	r0, r4, r0
     840:	00010000 	andeq	r0, r1, r0
     844:	00000050 	andeq	r0, r0, r0, asr r0
	...
     850:	00001800 	andeq	r1, r0, r0, lsl #16
     854:	00002c00 	andeq	r2, r0, r0, lsl #24
     858:	50000100 	andpl	r0, r0, r0, lsl #2
     85c:	0000002c 	andeq	r0, r0, ip, lsr #32
     860:	00000038 	andeq	r0, r0, r8, lsr r0
     864:	01f30004 	mvnseq	r0, r4
     868:	00009f50 	andeq	r9, r0, r0, asr pc
     86c:	00000000 	andeq	r0, r0, r0
     870:	00010000 	andeq	r0, r1, r0
     874:	0000001c 	andeq	r0, r0, ip, lsl r0
     878:	00000038 	andeq	r0, r0, r8, lsr r0
     87c:	00530001 	subseq	r0, r3, r1
     880:	00000000 	andeq	r0, r0, r0
     884:	01000000 	mrseq	r0, (UNDEF: 0)
     888:	00002c00 	andeq	r2, r0, r0, lsl #24
     88c:	00003000 	andeq	r3, r0, r0
     890:	50000100 	andpl	r0, r0, r0, lsl #2
	...
     89c:	001c0000 	andseq	r0, ip, r0
     8a0:	00380000 	eorseq	r0, r8, r0
     8a4:	00010000 	andeq	r0, r1, r0
     8a8:	00000053 	andeq	r0, r0, r3, asr r0
     8ac:	00000000 	andeq	r0, r0, r0
     8b0:	2c000000 	stccs	0, cr0, [r0], {-0}
     8b4:	30000000 	andcc	r0, r0, r0
     8b8:	01000000 	mrseq	r0, (UNDEF: 0)
     8bc:	00005000 	andeq	r5, r0, r0
     8c0:	00000000 	andeq	r0, r0, r0
     8c4:	00010000 	andeq	r0, r1, r0
     8c8:	00000004 	andeq	r0, r0, r4
     8cc:	00000018 	andeq	r0, r0, r8, lsl r0
     8d0:	00530001 	subseq	r0, r3, r1
     8d4:	00000000 	andeq	r0, r0, r0
     8d8:	01000000 	mrseq	r0, (UNDEF: 0)
     8dc:	00001000 	andeq	r1, r0, r0
     8e0:	00001400 	andeq	r1, r0, r0, lsl #8
     8e4:	50000100 	andpl	r0, r0, r0, lsl #2
	...
     8f0:	00040000 	andeq	r0, r4, r0
     8f4:	00180000 	andseq	r0, r8, r0
     8f8:	00010000 	andeq	r0, r1, r0
     8fc:	00000053 	andeq	r0, r0, r3, asr r0
     900:	00000000 	andeq	r0, r0, r0
     904:	10000000 	andne	r0, r0, r0
     908:	14000000 	strne	r0, [r0], #-0
     90c:	01000000 	mrseq	r0, (UNDEF: 0)
     910:	00005000 	andeq	r5, r0, r0
	...
     920:	0000002c 	andeq	r0, r0, ip, lsr #32
     924:	00000038 	andeq	r0, r0, r8, lsr r0
     928:	38500001 	ldmdacc	r0, {r0}^
     92c:	48000000 	stmdami	r0, {}	; <UNPREDICTABLE>
     930:	01000000 	mrseq	r0, (UNDEF: 0)
     934:	00485400 	subeq	r5, r8, r0, lsl #8
     938:	00580000 	subseq	r0, r8, r0
     93c:	00010000 	andeq	r0, r1, r0
     940:	00000050 	andeq	r0, r0, r0, asr r0
     944:	00000000 	andeq	r0, r0, r0
     948:	01010000 	mrseq	r0, (UNDEF: 1)
     94c:	00000000 	andeq	r0, r0, r0
     950:	00000800 	andeq	r0, r0, r0, lsl #16
     954:	50000100 	andpl	r0, r0, r0, lsl #2
     958:	00000008 	andeq	r0, r0, r8
     95c:	00000034 	andeq	r0, r0, r4, lsr r0
     960:	00540001 	subseq	r0, r4, r1
	...
     970:	00028800 	andeq	r8, r2, r0, lsl #16
     974:	0002b800 	andeq	fp, r2, r0, lsl #16
     978:	50000100 	andpl	r0, r0, r0, lsl #2
     97c:	000002b8 			; <UNDEFINED> instruction: 0x000002b8
     980:	00000704 	andeq	r0, r0, r4, lsl #14
     984:	04590001 	ldrbeq	r0, [r9], #-1
     988:	40000007 	andmi	r0, r0, r7
     98c:	04000007 	streq	r0, [r0], #-7
     990:	5001f300 	andpl	pc, r1, r0, lsl #6
     994:	0000009f 	muleq	r0, pc, r0	; <UNPREDICTABLE>
	...
     9a0:	88000000 	stmdahi	r0, {}	; <UNPREDICTABLE>
     9a4:	a0000002 	andge	r0, r0, r2
     9a8:	01000002 	tsteq	r0, r2
     9ac:	02a05100 	adceq	r5, r0, #0
     9b0:	02b80000 	adcseq	r0, r8, #0, 0
     9b4:	00030000 	andeq	r0, r3, r0
     9b8:	b89f0171 	ldmlt	pc, {r0, r4, r5, r6, r8}	; <UNPREDICTABLE>
     9bc:	40000002 	andmi	r0, r0, r2
     9c0:	04000007 	streq	r0, [r0], #-7
     9c4:	5101f300 	mrspl	pc, SP_irq	; <UNPREDICTABLE>
     9c8:	0000009f 	muleq	r0, pc, r0	; <UNPREDICTABLE>
	...
     9dc:	00028800 	andeq	r8, r2, r0, lsl #16
     9e0:	0002b800 	andeq	fp, r2, r0, lsl #16
     9e4:	52000100 	andpl	r0, r0, #0
     9e8:	000002b8 			; <UNDEFINED> instruction: 0x000002b8
     9ec:	000003ec 	andeq	r0, r0, ip, ror #7
     9f0:	ec560001 	mrrc	0, 0, r0, r6, cr1
     9f4:	b8000003 	stmdalt	r0, {r0, r1}
     9f8:	01000004 	tsteq	r0, r4
     9fc:	04b85b00 	ldrteq	r5, [r8], #2816	; 0xb00
     a00:	04d80000 	ldrbeq	r0, [r8], #0
     a04:	00010000 	andeq	r0, r1, r0
     a08:	0004d856 	andeq	sp, r4, r6, asr r8
     a0c:	00055c00 	andeq	r5, r5, r0, lsl #24
     a10:	5b000100 	blpl	e18 <__code_start__-0x71e8>
     a14:	0000055c 	andeq	r0, r0, ip, asr r5
     a18:	00000704 	andeq	r0, r0, r4, lsl #14
     a1c:	00560001 	subseq	r0, r6, r1
     a20:	00000000 	andeq	r0, r0, r0
     a24:	01000000 	mrseq	r0, (UNDEF: 0)
     a28:	00000000 	andeq	r0, r0, r0
     a2c:	01010000 	mrseq	r0, (UNDEF: 1)
     a30:	00000000 	andeq	r0, r0, r0
     a34:	02020000 	andeq	r0, r2, #0, 0
     a38:	9c000000 	stcls	0, cr0, [r0], {-0}
     a3c:	b8000002 	stmdalt	r0, {r1}
     a40:	01000002 	tsteq	r0, r2
     a44:	02b85000 	adcseq	r5, r8, #0, 0
     a48:	02bc0000 	adcseq	r0, ip, #0, 0
     a4c:	00010000 	andeq	r0, r1, r0
     a50:	0002bc54 	andeq	fp, r2, r4, asr ip
     a54:	0002c000 	andeq	ip, r2, r0
     a58:	74000300 	strvc	r0, [r0], #-768	; 0xfffffd00
     a5c:	02c09f01 	sbceq	r9, r0, #1, 30
     a60:	02e40000 	rsceq	r0, r4, #0, 0
     a64:	00010000 	andeq	r0, r1, r0
     a68:	0002e454 	andeq	lr, r2, r4, asr r4
     a6c:	0002e800 	andeq	lr, r2, r0, lsl #16
     a70:	74000300 	strvc	r0, [r0], #-768	; 0xfffffd00
     a74:	02e89f01 	rsceq	r9, r8, #1, 30
     a78:	06d40000 	ldrbeq	r0, [r4], r0
     a7c:	00010000 	andeq	r0, r1, r0
     a80:	0006d454 	andeq	sp, r6, r4, asr r4
     a84:	0006d800 	andeq	sp, r6, r0, lsl #16
     a88:	74000300 	strvc	r0, [r0], #-768	; 0xfffffd00
     a8c:	06d89f01 	ldrbeq	r9, [r8], r1, lsl #30
     a90:	06f00000 	ldrbteq	r0, [r0], r0
     a94:	00010000 	andeq	r0, r1, r0
     a98:	0006f054 	andeq	pc, r6, r4, asr r0	; <UNPREDICTABLE>
     a9c:	0006f800 	andeq	pc, r6, r0, lsl #16
     aa0:	74000300 	strvc	r0, [r0], #-768	; 0xfffffd00
     aa4:	06f89f01 	ldrbteq	r9, [r8], r1, lsl #30
     aa8:	07040000 	streq	r0, [r4, -r0]
     aac:	00010000 	andeq	r0, r1, r0
     ab0:	00000054 	andeq	r0, r0, r4, asr r0
	...
     abc:	0002a400 	andeq	sl, r2, r0, lsl #8
     ac0:	00070400 	andeq	r0, r7, r0, lsl #8
     ac4:	58000100 	stmdapl	r0, {r8}
     ac8:	00000704 	andeq	r0, r0, r4, lsl #14
     acc:	00000740 	andeq	r0, r0, r0, asr #14
     ad0:	01f3000a 	mvnseq	r0, sl
     ad4:	5001f351 	andpl	pc, r1, r1, asr r3	; <UNPREDICTABLE>
     ad8:	9f1c3122 	svcls	0x001c3122
	...
     ae4:	00000001 	andeq	r0, r0, r1
     ae8:	04080000 	streq	r0, [r8], #-0
     aec:	04740000 	ldrbteq	r0, [r4], #-0
     af0:	00010000 	andeq	r0, r1, r0
     af4:	0004d857 	andeq	sp, r4, r7, asr r8
     af8:	0004fc00 	andeq	pc, r4, r0, lsl #24
     afc:	57000100 	strpl	r0, [r0, -r0, lsl #2]
     b00:	00000540 	andeq	r0, r0, r0, asr #10
     b04:	0000055c 	andeq	r0, r0, ip, asr r5
     b08:	00570001 	subseq	r0, r7, r1
     b0c:	00000000 	andeq	r0, r0, r0
     b10:	02000000 	andeq	r0, r0, #0, 0
     b14:	08000000 	stmdaeq	r0, {}	; <UNPREDICTABLE>
     b18:	b8000004 	stmdalt	r0, {r2}
     b1c:	01000004 	tsteq	r0, r4
     b20:	04d85a00 	ldrbeq	r5, [r8], #2560	; 0xa00
     b24:	055c0000 	ldrbeq	r0, [ip, #-0]
     b28:	00010000 	andeq	r0, r1, r0
     b2c:	0000005a 	andeq	r0, r0, sl, asr r0
     b30:	00000000 	andeq	r0, r0, r0
     b34:	00000100 	andeq	r0, r0, r0, lsl #2
     b38:	0002ac00 	andeq	sl, r2, r0, lsl #24
     b3c:	0002b800 	andeq	fp, r2, r0, lsl #16
     b40:	52000100 	andpl	r0, r0, #0
     b44:	000002b8 			; <UNDEFINED> instruction: 0x000002b8
     b48:	00000740 	andeq	r0, r0, r0, asr #14
     b4c:	c8910003 	ldmgt	r1, {r0, r1}
     b50:	0000007d 	andeq	r0, r0, sp, ror r0
	...
     b60:	01010000 	mrseq	r0, (UNDEF: 1)
	...
     b6c:	74000000 	strvc	r0, [r0], #-0
     b70:	8c000004 	stchi	0, cr0, [r0], {4}
     b74:	01000004 	tsteq	r0, r4
     b78:	048c5000 	streq	r5, [ip], #0
     b7c:	04b80000 	ldrteq	r0, [r8], #0
     b80:	00010000 	andeq	r0, r1, r0
     b84:	0004fc57 	andeq	pc, r4, r7, asr ip	; <UNPREDICTABLE>
     b88:	00051400 	andeq	r1, r5, r0, lsl #8
     b8c:	50000100 	andpl	r0, r0, r0, lsl #2
     b90:	00000514 	andeq	r0, r0, r4, lsl r5
     b94:	00000540 	andeq	r0, r0, r0, asr #10
     b98:	a4570001 	ldrbge	r0, [r7], #-1
     b9c:	a4000005 	strge	r0, [r0], #-5
     ba0:	01000005 	tsteq	r0, r5
     ba4:	05a45000 	streq	r5, [r4, #0]!
     ba8:	05ac0000 	streq	r0, [ip, #0]!
     bac:	00010000 	andeq	r0, r1, r0
     bb0:	0005dc57 	andeq	sp, r5, r7, asr ip
     bb4:	0005e000 	andeq	lr, r5, r0
     bb8:	50000100 	andpl	r0, r0, r0, lsl #2
     bbc:	00000610 	andeq	r0, r0, r0, lsl r6
     bc0:	00000614 	andeq	r0, r0, r4, lsl r6
     bc4:	44500001 	ldrbmi	r0, [r0], #-1
     bc8:	48000006 	stmdami	r0, {r1, r2}
     bcc:	01000006 	tsteq	r0, r6
     bd0:	068c5000 	streq	r5, [ip], r0
     bd4:	06900000 	ldreq	r0, [r0], r0
     bd8:	00010000 	andeq	r0, r1, r0
     bdc:	0006d050 	andeq	sp, r6, r0, asr r0
     be0:	0006f000 	andeq	pc, r6, r0
     be4:	57000100 	strpl	r0, [r0, -r0, lsl #2]
	...
     bf0:	00000002 	andeq	r0, r0, r2
     bf4:	02f40000 	rscseq	r0, r4, #0, 0
     bf8:	02f80000 	rscseq	r0, r8, #0, 0
     bfc:	00020000 	andeq	r0, r2, r0
     c00:	02f89f30 	rscseq	r9, r8, #48, 30	; 0xc0
     c04:	03140000 	tsteq	r4, #0, 0
     c08:	00010000 	andeq	r0, r1, r0
     c0c:	00031c55 	andeq	r1, r3, r5, asr ip
     c10:	0006f000 	andeq	pc, r6, r0
     c14:	55000100 	strpl	r0, [r0, #-256]	; 0xffffff00
	...
     c20:	00000001 	andeq	r0, r0, r1
     c24:	00000000 	andeq	r0, r0, r0
     c28:	03b80000 			; <UNDEFINED> instruction: 0x03b80000
     c2c:	04540000 	ldrbeq	r0, [r4], #-0
     c30:	00010000 	andeq	r0, r1, r0
     c34:	00045456 	andeq	r5, r4, r6, asr r4
     c38:	0004b800 	andeq	fp, r4, r0, lsl #16
     c3c:	7b000300 	blvc	1844 <__code_start__-0x67bc>
     c40:	04b89f7e 	ldrteq	r9, [r8], #3966	; 0xf7e
     c44:	04dc0000 	ldrbeq	r0, [ip], #0
     c48:	00010000 	andeq	r0, r1, r0
     c4c:	0004dc56 	andeq	sp, r4, r6, asr ip
     c50:	00054000 	andeq	r4, r5, r0
     c54:	7b000300 	blvc	185c <__code_start__-0x67a4>
     c58:	05409f7e 	strbeq	r9, [r0, #-3966]	; 0xfffff082
     c5c:	055c0000 	ldrbeq	r0, [ip, #-0]
     c60:	00010000 	andeq	r0, r1, r0
     c64:	00000056 	andeq	r0, r0, r6, asr r0
	...
     c70:	70000000 	andvc	r0, r0, r0
     c74:	94000000 	strls	r0, [r0], #-0
     c78:	01000000 	mrseq	r0, (UNDEF: 0)
     c7c:	00945000 	addseq	r5, r4, r0
     c80:	00fc0000 	rscseq	r0, ip, r0
     c84:	00030000 	andeq	r0, r3, r0
     c88:	fc9f0270 	ldc2	2, cr0, [pc], {112}	; 0x70
     c8c:	24000000 	strcs	r0, [r0], #-0
     c90:	04000002 	streq	r0, [r0], #-2
     c94:	5001f300 	andpl	pc, r1, r0, lsl #6
     c98:	0000009f 	muleq	r0, pc, r0	; <UNPREDICTABLE>
	...
     cb0:	00007000 	andeq	r7, r0, r0
     cb4:	0000e000 	andeq	lr, r0, r0
     cb8:	51000100 	mrspl	r0, (UNDEF: 16)
     cbc:	000000e0 	andeq	r0, r0, r0, ror #1
     cc0:	00000154 	andeq	r0, r0, r4, asr r1
     cc4:	54550001 	ldrbpl	r0, [r5], #-1
     cc8:	58000001 	stmdapl	r0, {r0}
     ccc:	01000001 	tsteq	r0, r1
     cd0:	01585100 	cmpeq	r8, r0, lsl #2
     cd4:	01b00000 	movseq	r0, r0
     cd8:	00010000 	andeq	r0, r1, r0
     cdc:	0001b055 	andeq	fp, r1, r5, asr r0
     ce0:	0001c000 	andeq	ip, r1, r0
     ce4:	51000100 	mrspl	r0, (UNDEF: 16)
     ce8:	000001c0 	andeq	r0, r0, r0, asr #3
     cec:	000001e4 	andeq	r0, r0, r4, ror #3
     cf0:	e4550001 	ldrb	r0, [r5], #-1
     cf4:	f8000001 			; <UNDEFINED> instruction: 0xf8000001
     cf8:	01000001 	tsteq	r0, r1
     cfc:	01f85100 	mvnseq	r5, r0, lsl #2
     d00:	02240000 	eoreq	r0, r4, #0, 0
     d04:	00010000 	andeq	r0, r1, r0
     d08:	00000055 	andeq	r0, r0, r5, asr r0
	...
     d14:	00007000 	andeq	r7, r0, r0
     d18:	00008400 	andeq	r8, r0, r0, lsl #8
     d1c:	52000100 	andpl	r0, r0, #0
     d20:	00000084 	andeq	r0, r0, r4, lsl #1
     d24:	00000224 	andeq	r0, r0, r4, lsr #4
     d28:	00540001 	subseq	r0, r4, r1
	...
     d38:	00000001 	andeq	r0, r0, r1
     d3c:	70000000 	andvc	r0, r0, r0
     d40:	f4000000 	vst4.8	{d0-d3}, [r0], r0
     d44:	01000000 	mrseq	r0, (UNDEF: 0)
     d48:	014c5300 	mrseq	r5, SPSR_mon
     d4c:	01800000 	orreq	r0, r0, r0
     d50:	00010000 	andeq	r0, r1, r0
     d54:	00018053 	andeq	r8, r1, r3, asr r0
     d58:	00018c00 	andeq	r8, r1, r0, lsl #24
     d5c:	f3000400 	vshl.u8	d0, d0, d0
     d60:	b09f5301 	addslt	r5, pc, r1, lsl #6
     d64:	e8000001 	stmda	r0, {r0}
     d68:	01000001 	tsteq	r0, r1
     d6c:	01e85300 	mvneq	r5, r0, lsl #6
     d70:	01ff0000 	mvnseq	r0, r0
     d74:	00010000 	andeq	r0, r1, r0
     d78:	0001ff5c 	andeq	pc, r1, ip, asr pc	; <UNPREDICTABLE>
     d7c:	00022400 	andeq	r2, r2, r0, lsl #8
     d80:	f3000400 	vshl.u8	d0, d0, d0
     d84:	009f5301 	addseq	r5, pc, r1, lsl #6
	...
     d94:	00007000 	andeq	r7, r0, r0
     d98:	00008c00 	andeq	r8, r0, r0, lsl #24
     d9c:	91000200 	mrsls	r0, R8_usr
     da0:	00008c00 	andeq	r8, r0, r0, lsl #24
     da4:	00019300 	andeq	r9, r1, r0, lsl #6
     da8:	52000100 	andpl	r0, r0, #0
     dac:	000001b0 			; <UNDEFINED> instruction: 0x000001b0
     db0:	000001f4 	strdeq	r0, [r0], -r4
     db4:	00520001 	subseq	r0, r2, r1
     db8:	00000000 	andeq	r0, r0, r0
     dbc:	01000000 	mrseq	r0, (UNDEF: 0)
     dc0:	01010000 	mrseq	r0, (UNDEF: 1)
	...
     dcc:	01010101 	tsteq	r1, r1, lsl #2
     dd0:	01010000 	mrseq	r0, (UNDEF: 1)
	...
     ddc:	8c000000 	stchi	0, cr0, [r0], {-0}
     de0:	fc000000 	stc2	0, cr0, [r0], {-0}
     de4:	04000000 	streq	r0, [r0], #-0
     de8:	7fa09100 	svcvc	0x00a09100
     dec:	0000fc9f 	muleq	r0, pc, ip	; <UNPREDICTABLE>
     df0:	00013c00 	andeq	r3, r1, r0, lsl #24
     df4:	50000100 	andpl	r0, r0, r0, lsl #2
     df8:	0000013c 	andeq	r0, r0, ip, lsr r1
     dfc:	00000148 	andeq	r0, r0, r8, asr #2
     e00:	02710003 	rsbseq	r0, r1, #3, 0
     e04:	0001489f 	muleq	r1, pc, r8	; <UNPREDICTABLE>
     e08:	00014c00 	andeq	r4, r1, r0, lsl #24
     e0c:	50000100 	andpl	r0, r0, r0, lsl #2
     e10:	0000014c 	andeq	r0, r0, ip, asr #2
     e14:	00000158 	andeq	r0, r0, r8, asr r1
     e18:	a0910004 	addsge	r0, r1, r4
     e1c:	01589f7f 	cmpeq	r8, pc, ror pc
     e20:	016c0000 	cmneq	ip, r0
     e24:	00010000 	andeq	r0, r1, r0
     e28:	00016c51 	andeq	r6, r1, r1, asr ip
     e2c:	00017800 	andeq	r7, r1, r0, lsl #16
     e30:	71000300 	mrsvc	r0, LR_irq
     e34:	01789f7f 	cmneq	r8, pc, ror pc
     e38:	01840000 	orreq	r0, r4, r0
     e3c:	00030000 	andeq	r0, r3, r0
     e40:	849f0171 	ldrhi	r0, [pc], #369	; e48 <__code_start__-0x71b8>
     e44:	93000001 	movwls	r0, #1
     e48:	01000001 	tsteq	r0, r1
     e4c:	01b05000 	movseq	r5, r0
     e50:	01b00000 	movseq	r0, r0
     e54:	00040000 	andeq	r0, r4, r0
     e58:	9f7fa091 	svcls	0x007fa091
     e5c:	000001b0 			; <UNDEFINED> instruction: 0x000001b0
     e60:	000001b8 			; <UNDEFINED> instruction: 0x000001b8
     e64:	a1910004 	orrsge	r0, r1, r4
     e68:	01b89f7f 			; <UNDEFINED> instruction: 0x01b89f7f
     e6c:	01bc0000 			; <UNDEFINED> instruction: 0x01bc0000
     e70:	00010000 	andeq	r0, r1, r0
     e74:	0001bc50 	andeq	fp, r1, r0, asr ip
     e78:	0001c000 	andeq	ip, r1, r0
     e7c:	91000400 	tstls	r0, r0, lsl #8
     e80:	c09f7fa0 	addsgt	r7, pc, r0, lsr #31
     e84:	d4000001 	strle	r0, [r0], #-1
     e88:	01000001 	tsteq	r0, r1
     e8c:	01d45000 	bicseq	r5, r4, r0
     e90:	01e40000 	mvneq	r0, r0
     e94:	00030000 	andeq	r0, r3, r0
     e98:	e49f7f70 	ldr	r7, [pc], #3952	; ea0 <__code_start__-0x7160>
     e9c:	24000001 	strcs	r0, [r0], #-1
     ea0:	04000002 	streq	r0, [r0], #-2
     ea4:	7fa09100 	svcvc	0x00a09100
     ea8:	0000009f 	muleq	r0, pc, r0	; <UNPREDICTABLE>
	...
     eb4:	00000101 	andeq	r0, r0, r1, lsl #2
	...
     ec4:	00009000 	andeq	r9, r0, r0
     ec8:	0000dc00 	andeq	sp, r0, r0, lsl #24
     ecc:	5c000100 	stfpls	f0, [r0], {-0}
     ed0:	000000dc 	ldrdeq	r0, [r0], -ip
     ed4:	000000f4 	strdeq	r0, [r0], -r4
     ed8:	f4530001 			; <UNDEFINED> instruction: 0xf4530001
     edc:	4c000000 	stcmi	0, cr0, [r0], {-0}
     ee0:	01000001 	tsteq	r0, r1
     ee4:	014c5c00 	cmpeq	ip, r0, lsl #24
     ee8:	01580000 	cmpeq	r8, r0
     eec:	00010000 	andeq	r0, r1, r0
     ef0:	00015853 	andeq	r5, r1, r3, asr r8
     ef4:	00017400 	andeq	r7, r1, r0, lsl #8
     ef8:	5c000100 	stfpls	f0, [r0], {-0}
     efc:	000001b0 			; <UNDEFINED> instruction: 0x000001b0
     f00:	000001c0 	andeq	r0, r0, r0, asr #3
     f04:	c0530001 	subsgt	r0, r3, r1
     f08:	dc000001 	stcle	0, cr0, [r0], {1}
     f0c:	01000001 	tsteq	r0, r1
     f10:	01e45c00 	mvneq	r5, r0, lsl #24
     f14:	01e80000 	mvneq	r0, r0
     f18:	00010000 	andeq	r0, r1, r0
     f1c:	0001e853 	andeq	lr, r1, r3, asr r8
     f20:	0001ff00 	andeq	pc, r1, r0, lsl #30
     f24:	5c000100 	stfpls	f0, [r0], {-0}
     f28:	000001ff 	strdeq	r0, [r0], -pc	; <UNPREDICTABLE>
     f2c:	00000224 	andeq	r0, r0, r4, lsr #4
     f30:	01f30004 	mvnseq	r0, r4
     f34:	00009f53 	andeq	r9, r0, r3, asr pc
     f38:	00000000 	andeq	r0, r0, r0
     f3c:	01010000 	mrseq	r0, (UNDEF: 1)
     f40:	00000001 	andeq	r0, r0, r1
     f44:	00dc0000 	sbcseq	r0, ip, r0
     f48:	00f00000 	rscseq	r0, r0, r0
     f4c:	00020000 	andeq	r0, r2, r0
     f50:	00f09f30 	rscseq	r9, r0, r0, lsr pc
     f54:	00f80000 	rscseq	r0, r8, r0
     f58:	00020000 	andeq	r0, r2, r0
     f5c:	00fc9f31 	rscseq	r9, ip, r1, lsr pc
     f60:	014c0000 	mrseq	r0, (UNDEF: 76)
     f64:	00010000 	andeq	r0, r1, r0
     f68:	00014c56 	andeq	r4, r1, r6, asr ip
     f6c:	00015400 	andeq	r5, r1, r0, lsl #8
     f70:	30000200 	andcc	r0, r0, r0, lsl #4
     f74:	0000009f 	muleq	r0, pc, r0	; <UNPREDICTABLE>
	...
     f80:	00000101 	andeq	r0, r0, r1, lsl #2
     f84:	38000101 	stmdacc	r0, {r0, r8}
     f88:	54000000 	strpl	r0, [r0], #-0
     f8c:	01000000 	mrseq	r0, (UNDEF: 0)
     f90:	00545000 	subseq	r5, r4, r0
     f94:	00580000 	subseq	r0, r8, r0
     f98:	00010000 	andeq	r0, r1, r0
     f9c:	00005852 	andeq	r5, r0, r2, asr r8
     fa0:	00006000 	andeq	r6, r0, r0
     fa4:	72000300 	andvc	r0, r0, #0, 6
     fa8:	00609f01 	rsbeq	r9, r0, r1, lsl #30
     fac:	00640000 	rsbeq	r0, r4, r0
     fb0:	00010000 	andeq	r0, r1, r0
     fb4:	00006452 	andeq	r6, r0, r2, asr r4
     fb8:	00007000 	andeq	r7, r0, r0
     fbc:	72000300 	andvc	r0, r0, #0, 6
     fc0:	00009f01 	andeq	r9, r0, r1, lsl #30
	...
     fcc:	00380000 	eorseq	r0, r8, r0
     fd0:	00500000 	subseq	r0, r0, r0
     fd4:	00010000 	andeq	r0, r1, r0
     fd8:	00005051 	andeq	r5, r0, r1, asr r0
     fdc:	00007000 	andeq	r7, r0, r0
     fe0:	f3000400 	vshl.u8	d0, d0, d0
     fe4:	009f5101 	addseq	r5, pc, r1, lsl #2
	...
     ff4:	38000101 	stmdacc	r0, {r0, r8}
     ff8:	50000000 	andpl	r0, r0, r0
     ffc:	01000000 	mrseq	r0, (UNDEF: 0)
    1000:	00505200 	subseq	r5, r0, r0, lsl #4
    1004:	005c0000 	subseq	r0, ip, r0
    1008:	00010000 	andeq	r0, r1, r0
    100c:	00005c51 	andeq	r5, r0, r1, asr ip
    1010:	00006000 	andeq	r6, r0, r0
    1014:	71000300 	mrsvc	r0, LR_irq
    1018:	00609f01 	rsbeq	r9, r0, r1, lsl #30
    101c:	00700000 	rsbseq	r0, r0, r0
    1020:	00010000 	andeq	r0, r1, r0
    1024:	00000051 	andeq	r0, r0, r1, asr r0
	...
    1030:	00003800 	andeq	r3, r0, r0, lsl #16
    1034:	00004c00 	andeq	r4, r0, r0, lsl #24
    1038:	53000100 	movwpl	r0, #256	; 0x100
    103c:	0000004c 	andeq	r0, r0, ip, asr #32
    1040:	00000068 	andeq	r0, r0, r8, rrx
    1044:	00530001 	subseq	r0, r3, r1
	...
    1054:	40000000 	andmi	r0, r0, r0
    1058:	48000000 	stmdami	r0, {}	; <UNPREDICTABLE>
    105c:	01000000 	mrseq	r0, (UNDEF: 0)
    1060:	00485c00 	subeq	r5, r8, r0, lsl #24
    1064:	004c0000 	subeq	r0, ip, r0
    1068:	00080000 	andeq	r0, r8, r0
    106c:	00730072 	rsbseq	r0, r3, r2, ror r0
    1070:	9f01231c 	svcls	0x0001231c
    1074:	0000004c 	andeq	r0, r0, ip, asr #32
    1078:	00000054 	andeq	r0, r0, r4, asr r0
    107c:	00720009 	rsbseq	r0, r2, r9
    1080:	1c5301f3 	ldfnee	f0, [r3], {243}	; 0xf3
    1084:	549f0123 	ldrpl	r0, [pc], #291	; 108c <__code_start__-0x6f74>
    1088:	70000000 	andvc	r0, r0, r0
    108c:	0a000000 	beq	1094 <__code_start__-0x6f6c>
    1090:	5201f300 	andpl	pc, r1, #0, 6
    1094:	1c5301f3 	ldfnee	f0, [r3], {243}	; 0xf3
    1098:	009f0123 	addseq	r0, pc, r3, lsr #2
    109c:	00000000 	andeq	r0, r0, r0
    10a0:	01000000 	mrseq	r0, (UNDEF: 0)
    10a4:	00004c00 	andeq	r4, r0, r0, lsl #24
    10a8:	00007000 	andeq	r7, r0, r0
    10ac:	50000100 	andpl	r0, r0, r0, lsl #2
	...
    10b8:	00010100 	andeq	r0, r1, r0, lsl #2
    10bc:	00140000 	andseq	r0, r4, r0
    10c0:	001c0000 	andseq	r0, ip, r0
    10c4:	00010000 	andeq	r0, r1, r0
    10c8:	00001c50 	andeq	r1, r0, r0, asr ip
    10cc:	00002400 	andeq	r2, r0, r0, lsl #8
    10d0:	70000300 	andvc	r0, r0, r0, lsl #6
    10d4:	00249f01 	eoreq	r9, r4, r1, lsl #30
    10d8:	00380000 	eorseq	r0, r8, r0
    10dc:	00010000 	andeq	r0, r1, r0
    10e0:	00000050 	andeq	r0, r0, r0, asr r0
	...
    10ec:	00001400 	andeq	r1, r0, r0, lsl #8
    10f0:	00001800 	andeq	r1, r0, r0, lsl #16
    10f4:	51000100 	mrspl	r0, (UNDEF: 16)
    10f8:	00000018 	andeq	r0, r0, r8, lsl r0
    10fc:	00000038 	andeq	r0, r0, r8, lsr r0
    1100:	01f30004 	mvnseq	r0, r4
    1104:	00009f51 	andeq	r9, r0, r1, asr pc
	...
    1110:	00000018 	andeq	r0, r0, r8, lsl r0
    1114:	00000038 	andeq	r0, r0, r8, lsr r0
    1118:	00510001 	subseq	r0, r1, r1
	...
    112c:	00000400 	andeq	r0, r0, r0, lsl #8
    1130:	50000100 	andpl	r0, r0, r0, lsl #2
    1134:	00000004 	andeq	r0, r0, r4
    1138:	0000000c 	andeq	r0, r0, ip
    113c:	30700003 	rsbscc	r0, r0, r3
    1140:	00000c9f 	muleq	r0, pc, ip	; <UNPREDICTABLE>
    1144:	00001400 	andeq	r1, r0, r0, lsl #8
    1148:	f3000400 	vshl.u8	d0, d0, d0
    114c:	009f5001 	addseq	r5, pc, r1
	...
    1158:	24000000 	strcs	r0, [r0], #-0
    115c:	68000002 	stmdavs	r0, {r1}
    1160:	01000002 	tsteq	r0, r2
    1164:	02685000 	rsbeq	r5, r8, #0, 0
    1168:	02880000 	addeq	r0, r8, #0, 0
    116c:	00040000 	andeq	r0, r4, r0
    1170:	9f5001f3 	svcls	0x005001f3
	...
    1180:	00000224 	andeq	r0, r0, r4, lsr #4
    1184:	00000264 	andeq	r0, r0, r4, ror #4
    1188:	64510001 	ldrbvs	r0, [r1], #-1
    118c:	88000002 	stmdahi	r0, {r1}
    1190:	04000002 	streq	r0, [r0], #-2
    1194:	5101f300 	mrspl	pc, SP_irq	; <UNPREDICTABLE>
    1198:	0000009f 	muleq	r0, pc, r0	; <UNPREDICTABLE>
    119c:	00000000 	andeq	r0, r0, r0
    11a0:	01010000 	mrseq	r0, (UNDEF: 1)
    11a4:	c8000000 	stmdagt	r0, {}	; <UNPREDICTABLE>
    11a8:	c800008b 	stmdagt	r0, {r0, r1, r3, r7}
    11ac:	0100008b 	smlabbeq	r0, fp, r0, r0
    11b0:	8bc85300 	blhi	ff215db8 <__bss_end__+0xff20c560>
    11b4:	8bcc0000 	blhi	ff3011bc <__bss_end__+0xff2f7964>
    11b8:	00070000 	andeq	r0, r7, r0
    11bc:	ff0b0073 			; <UNDEFINED> instruction: 0xff0b0073
    11c0:	cc9f1aef 	vldmiagt	pc, {s2-s240}
    11c4:	d400008b 	strle	r0, [r0], #-139	; 0xffffff75
    11c8:	0100008b 	smlabbeq	r0, fp, r0, r0
    11cc:	00005300 	andeq	r5, r0, r0, lsl #6
    11d0:	00000000 	andeq	r0, r0, r0
    11d4:	01000000 	mrseq	r0, (UNDEF: 0)
    11d8:	00000001 	andeq	r0, r0, r1
    11dc:	00008bb8 			; <UNDEFINED> instruction: 0x00008bb8
    11e0:	00008bb8 			; <UNDEFINED> instruction: 0x00008bb8
    11e4:	b8530001 	ldmdalt	r3, {r0}^
    11e8:	bc00008b 	stclt	0, cr0, [r0], {139}	; 0x8b
    11ec:	0700008b 	streq	r0, [r0, -fp, lsl #1]
    11f0:	0a007300 	beq	1ddf8 <__bss_end__+0x145a0>
    11f4:	9f211000 	svcls	0x00211000
    11f8:	00008bbc 			; <UNDEFINED> instruction: 0x00008bbc
    11fc:	00008bc4 	andeq	r8, r0, r4, asr #23
    1200:	00530001 	subseq	r0, r3, r1
	...
    120c:	00000101 	andeq	r0, r0, r1, lsl #2
    1210:	00000c00 	andeq	r0, r0, r0, lsl #24
    1214:	00001400 	andeq	r1, r0, r0, lsl #8
    1218:	53000100 	movwpl	r0, #256	; 0x100
    121c:	00000014 	andeq	r0, r0, r4, lsl r0
    1220:	0000001c 	andeq	r0, r0, ip, lsl r0
    1224:	04730003 	ldrbteq	r0, [r3], #-3
    1228:	00001c9f 	muleq	r0, pc, ip	; <UNPREDICTABLE>
    122c:	00002300 	andeq	r2, r0, r0, lsl #6
    1230:	53000100 	movwpl	r0, #256	; 0x100
	...
    123c:	8c8c0001 	stchi	0, cr0, [ip], {1}
    1240:	8ca80000 	stchi	0, cr0, [r8]
    1244:	00060000 	andeq	r0, r6, r0
    1248:	10001c0c 	andne	r1, r0, ip, lsl #24
    124c:	00009f20 	andeq	r9, r0, r0, lsr #30
    1250:	00000000 	andeq	r0, r0, r0
    1254:	00020000 	andeq	r0, r2, r0
    1258:	00008c8c 	andeq	r8, r0, ip, lsl #25
    125c:	00008ca8 	andeq	r8, r0, r8, lsr #25
    1260:	240c0006 	strcs	r0, [ip], #-6
    1264:	9f201000 	svcls	0x00201000
	...
    1270:	8c8c0003 	stchi	0, cr0, [ip], {3}
    1274:	8ca80000 	stchi	0, cr0, [r8]
    1278:	00050000 	andeq	r0, r5, r0
    127c:	2447b408 	strbcs	fp, [r7], #-1032	; 0xfffffbf8
    1280:	0000009f 	muleq	r0, pc, r0	; <UNPREDICTABLE>
    1284:	00000000 	andeq	r0, r0, r0
    1288:	8c000400 	cfstrshi	mvf0, [r0], {-0}
    128c:	a800008c 	stmdage	r0, {r2, r3, r7}
    1290:	0300008c 	movweq	r0, #140	; 0x8c
    1294:	9f200800 	svcls	0x00200800
	...
    12a0:	00000002 	andeq	r0, r0, r2
    12a4:	8c580000 	mrahi	r0, r8, acc0
    12a8:	8c5c0000 	mrahi	r0, ip, acc0
    12ac:	00020000 	andeq	r0, r2, r0
    12b0:	8c5c9f30 	mrrchi	15, 3, r9, ip, cr0
    12b4:	8c600000 	stclhi	0, cr0, [r0], #-0
    12b8:	00010000 	andeq	r0, r1, r0
    12bc:	008c6453 	addeq	r6, ip, r3, asr r4
    12c0:	008c6c00 	addeq	r6, ip, r0, lsl #24
    12c4:	53000100 	movwpl	r0, #256	; 0x100
	...
    12d0:	00000002 	andeq	r0, r0, r2
    12d4:	00008c40 	andeq	r8, r0, r0, asr #24
    12d8:	00008c44 	andeq	r8, r0, r4, asr #24
    12dc:	9f300002 	svcls	0x00300002
    12e0:	00008c44 	andeq	r8, r0, r4, asr #24
    12e4:	00008c48 	andeq	r8, r0, r8, asr #24
    12e8:	00500001 	subseq	r0, r0, r1
	...
    12f4:	6c000000 	stcvs	0, cr0, [r0], {-0}
    12f8:	78000000 	stmdavc	r0, {}	; <UNPREDICTABLE>
    12fc:	01000000 	mrseq	r0, (UNDEF: 0)
    1300:	00785000 	rsbseq	r5, r8, r0
    1304:	00840000 	addeq	r0, r4, r0
    1308:	00040000 	andeq	r0, r4, r0
    130c:	9f5001f3 	svcls	0x005001f3
	...
    131c:	00000054 	andeq	r0, r0, r4, asr r0
    1320:	00000060 	andeq	r0, r0, r0, rrx
    1324:	60500001 	subsvs	r0, r0, r1
    1328:	6c000000 	stcvs	0, cr0, [r0], {-0}
    132c:	04000000 	streq	r0, [r0], #-0
    1330:	5001f300 	andpl	pc, r1, r0, lsl #6
    1334:	0000009f 	muleq	r0, pc, r0	; <UNPREDICTABLE>
	...
    1340:	00003000 	andeq	r3, r0, r0
    1344:	00003b00 	andeq	r3, r0, r0, lsl #22
    1348:	50000100 	andpl	r0, r0, r0, lsl #2
    134c:	0000003b 	andeq	r0, r0, fp, lsr r0
    1350:	00000054 	andeq	r0, r0, r4, asr r0
    1354:	00550001 	subseq	r0, r5, r1
	...
    1360:	00004000 	andeq	r4, r0, r0
    1364:	00005400 	andeq	r5, r0, r0, lsl #8
    1368:	54000100 	strpl	r0, [r0], #-256	; 0xffffff00
	...
    1374:	00440000 	subeq	r0, r4, r0
    1378:	00480000 	subeq	r0, r8, r0
    137c:	00010000 	andeq	r0, r1, r0
    1380:	00000050 	andeq	r0, r0, r0, asr r0
	...
    138c:	00002400 	andeq	r2, r0, r0, lsl #8
    1390:	00002700 	andeq	r2, r0, r0, lsl #14
    1394:	50000100 	andpl	r0, r0, r0, lsl #2
    1398:	00000027 	andeq	r0, r0, r7, lsr #32
    139c:	00000030 	andeq	r0, r0, r0, lsr r0
    13a0:	00540001 	subseq	r0, r4, r1
	...
    13ac:	58000000 	stmdapl	r0, {}	; <UNPREDICTABLE>
    13b0:	63000001 	movwvs	r0, #1
    13b4:	01000001 	tsteq	r0, r1
    13b8:	01635000 	cmneq	r3, r0
    13bc:	01880000 	orreq	r0, r8, r0
    13c0:	00010000 	andeq	r0, r1, r0
    13c4:	00000054 	andeq	r0, r0, r4, asr r0
    13c8:	00000000 	andeq	r0, r0, r0
    13cc:	48000000 	stmdami	r0, {}	; <UNPREDICTABLE>
    13d0:	58000001 	stmdapl	r0, {r0}
    13d4:	01000001 	tsteq	r0, r1
    13d8:	00005400 	andeq	r5, r0, r0, lsl #8
	...
    13e8:	000f0000 	andeq	r0, pc, r0
    13ec:	00010000 	andeq	r0, r1, r0
    13f0:	00000f50 	andeq	r0, r0, r0, asr pc
    13f4:	00002000 	andeq	r2, r0, r0
    13f8:	54000100 	strpl	r0, [r0], #-256	; 0xffffff00
	...
    140c:	0000000f 	andeq	r0, r0, pc
    1410:	0f510001 	svceq	0x00510001
    1414:	20000000 	andcs	r0, r0, r0
    1418:	01000000 	mrseq	r0, (UNDEF: 0)
    141c:	00005500 	andeq	r5, r0, r0, lsl #10
	...
    1428:	00200000 	eoreq	r0, r0, r0
    142c:	002f0000 	eoreq	r0, pc, r0
    1430:	00010000 	andeq	r0, r1, r0
    1434:	00002f50 	andeq	r2, r0, r0, asr pc
    1438:	00004000 	andeq	r4, r0, r0
    143c:	54000100 	strpl	r0, [r0], #-256	; 0xffffff00
	...
    144c:	00000020 	andeq	r0, r0, r0, lsr #32
    1450:	0000002f 	andeq	r0, r0, pc, lsr #32
    1454:	2f510001 	svccs	0x00510001
    1458:	40000000 	andmi	r0, r0, r0
    145c:	01000000 	mrseq	r0, (UNDEF: 0)
    1460:	00005500 	andeq	r5, r0, r0, lsl #10
	...
    146c:	00e80000 	rsceq	r0, r8, r0
    1470:	00f80000 	rscseq	r0, r8, r0
    1474:	00010000 	andeq	r0, r1, r0
    1478:	0000f850 	andeq	pc, r0, r0, asr r8	; <UNPREDICTABLE>
    147c:	00010c00 	andeq	r0, r1, r0, lsl #24
    1480:	f3000400 	vshl.u8	d0, d0, d0
    1484:	009f5001 	addseq	r5, pc, r1
    1488:	00000000 	andeq	r0, r0, r0
    148c:	01000000 	mrseq	r0, (UNDEF: 0)
    1490:	00000000 	andeq	r0, r0, r0
    1494:	0000ec00 	andeq	lr, r0, r0, lsl #24
    1498:	0000f800 	andeq	pc, r0, r0, lsl #16
    149c:	70000b00 	andvc	r0, r0, r0, lsl #22
    14a0:	23253500 			; <UNDEFINED> instruction: 0x23253500
    14a4:	818080b4 	strhhi	r8, [r0, r4]
    14a8:	00f89f02 	rscseq	r9, r8, r2, lsl #30
    14ac:	00fb0000 	rscseq	r0, fp, r0
    14b0:	00010000 	andeq	r0, r1, r0
    14b4:	0000fb50 	andeq	pc, r0, r0, asr fp	; <UNPREDICTABLE>
    14b8:	00010c00 	andeq	r0, r1, r0, lsl #24
    14bc:	f3000c00 			; <UNDEFINED> instruction: 0xf3000c00
    14c0:	25355001 	ldrcs	r5, [r5, #-1]!
    14c4:	8080b423 	addhi	fp, r0, r3, lsr #8
    14c8:	009f0281 	addseq	r0, pc, r1, lsl #5
	...
    14d4:	0000f000 	andeq	pc, r0, r0
    14d8:	00010c00 	andeq	r0, r1, r0, lsl #24
    14dc:	54000100 	strpl	r0, [r0], #-256	; 0xffffff00
	...
    14f0:	000000cc 	andeq	r0, r0, ip, asr #1
    14f4:	000000db 	ldrdeq	r0, [r0], -fp
    14f8:	db500001 	blle	1401504 <__bss_end__+0x13f7cac>
    14fc:	e0000000 	and	r0, r0, r0
    1500:	04000000 	streq	r0, [r0], #-0
    1504:	5001f300 	andpl	pc, r1, r0, lsl #6
    1508:	0000e09f 	muleq	r0, pc, r0	; <UNPREDICTABLE>
    150c:	0000e300 	andeq	lr, r0, r0, lsl #6
    1510:	50000100 	andpl	r0, r0, r0, lsl #2
    1514:	000000e3 	andeq	r0, r0, r3, ror #1
    1518:	000000e8 	andeq	r0, r0, r8, ror #1
    151c:	01f30004 	mvnseq	r0, r4
    1520:	00009f50 	andeq	r9, r0, r0, asr pc
	...
    1530:	00cc0000 	sbceq	r0, ip, r0
    1534:	00db0000 	sbcseq	r0, fp, r0
    1538:	00010000 	andeq	r0, r1, r0
    153c:	0000db51 	andeq	sp, r0, r1, asr fp
    1540:	0000e000 	andeq	lr, r0, r0
    1544:	f3000400 	vshl.u8	d0, d0, d0
    1548:	e09f5101 	adds	r5, pc, r1, lsl #2
    154c:	e3000000 	movw	r0, #0
    1550:	01000000 	mrseq	r0, (UNDEF: 0)
    1554:	00e35100 	rsceq	r5, r3, r0, lsl #2
    1558:	00e80000 	rsceq	r0, r8, r0
    155c:	00040000 	andeq	r0, r4, r0
    1560:	9f5101f3 	svcls	0x005101f3
	...
    1570:	000000bc 	strheq	r0, [r0], -ip
    1574:	000000c7 	andeq	r0, r0, r7, asr #1
    1578:	c7500001 	ldrbgt	r0, [r0, -r1]
    157c:	cc000000 	stcgt	0, cr0, [r0], {-0}
    1580:	04000000 	streq	r0, [r0], #-0
    1584:	5001f300 	andpl	pc, r1, r0, lsl #6
    1588:	0000009f 	muleq	r0, pc, r0	; <UNPREDICTABLE>
	...
    1594:	00009800 	andeq	r9, r0, r0, lsl #16
    1598:	0000b000 	andeq	fp, r0, r0
    159c:	50000100 	andpl	r0, r0, r0, lsl #2
    15a0:	000000b0 	strheq	r0, [r0], -r0	; <UNPREDICTABLE>
    15a4:	000000bc 	strheq	r0, [r0], -ip
    15a8:	01f30004 	mvnseq	r0, r4
    15ac:	00009f50 	andeq	r9, r0, r0, asr pc
	...
    15b8:	00740000 	rsbseq	r0, r4, r0
    15bc:	008c0000 	addeq	r0, ip, r0
    15c0:	00010000 	andeq	r0, r1, r0
    15c4:	00008c50 	andeq	r8, r0, r0, asr ip
    15c8:	00009800 	andeq	r9, r0, r0, lsl #16
    15cc:	f3000400 	vshl.u8	d0, d0, d0
    15d0:	009f5001 	addseq	r5, pc, r1
	...
    15dc:	64000000 	strvs	r0, [r0], #-0
    15e0:	6f000000 	svcvs	0x00000000
    15e4:	01000000 	mrseq	r0, (UNDEF: 0)
    15e8:	006f5000 	rsbeq	r5, pc, r0
    15ec:	00740000 	rsbseq	r0, r4, r0
    15f0:	00040000 	andeq	r0, r4, r0
    15f4:	9f5001f3 	svcls	0x005001f3
	...
    1608:	00000038 	andeq	r0, r0, r8, lsr r0
    160c:	38500001 	ldmdacc	r0, {r0}^
    1610:	64000000 	strvs	r0, [r0], #-0
    1614:	04000000 	streq	r0, [r0], #-0
    1618:	5001f300 	andpl	pc, r1, r0, lsl #6
    161c:	0000009f 	muleq	r0, pc, r0	; <UNPREDICTABLE>
	...
    162c:	00004700 	andeq	r4, r0, r0, lsl #14
    1630:	51000100 	mrspl	r0, (UNDEF: 16)
    1634:	00000047 	andeq	r0, r0, r7, asr #32
    1638:	00000064 	andeq	r0, r0, r4, rrx
    163c:	01f30004 	mvnseq	r0, r4
    1640:	00009f51 	andeq	r9, r0, r1, asr pc
	...
    164c:	00000034 	andeq	r0, r0, r4, lsr r0
    1650:	00000064 	andeq	r0, r0, r4, rrx
    1654:	00540001 	subseq	r0, r4, r1
	...
    1660:	00004000 	andeq	r4, r0, r0
    1664:	00006400 	andeq	r6, r0, r0, lsl #8
    1668:	56000100 	strpl	r0, [r0], -r0, lsl #2
	...
    1674:	01000000 	mrseq	r0, (UNDEF: 0)
    1678:	00000001 	andeq	r0, r0, r1
    167c:	00000048 	andeq	r0, r0, r8, asr #32
    1680:	00000050 	andeq	r0, r0, r0, asr r0
    1684:	50500001 	subspl	r0, r0, r1
    1688:	50000000 	andpl	r0, r0, r0
    168c:	01000000 	mrseq	r0, (UNDEF: 0)
    1690:	00505100 	subseq	r5, r0, r0, lsl #2
    1694:	00540000 	subseq	r0, r4, r0
    1698:	00090000 	andeq	r0, r9, r0
    169c:	00740075 	rsbseq	r0, r4, r5, ror r0
    16a0:	21007124 	tstcs	r0, r4, lsr #2
    16a4:	0000549f 	muleq	r0, pc, r4	; <UNPREDICTABLE>
    16a8:	00005b00 	andeq	r5, r0, r0, lsl #22
    16ac:	51000100 	mrspl	r0, (UNDEF: 16)
	...
    16c0:	0000000b 	andeq	r0, r0, fp
    16c4:	0b500001 	bleq	14016d0 <__bss_end__+0x13f7e78>
    16c8:	14000000 	strne	r0, [r0], #-0
    16cc:	01000000 	mrseq	r0, (UNDEF: 0)
    16d0:	00005400 	andeq	r5, r0, r0, lsl #8
	...
    16e0:	001c0000 	andseq	r0, ip, r0
    16e4:	00010000 	andeq	r0, r1, r0
    16e8:	00001c51 	andeq	r1, r0, r1, asr ip
    16ec:	00003400 	andeq	r3, r0, r0, lsl #8
    16f0:	f3000400 	vshl.u8	d0, d0, d0
    16f4:	009f5101 	addseq	r5, pc, r1, lsl #2
    16f8:	00000000 	andeq	r0, r0, r0
    16fc:	02000000 	andeq	r0, r0, #0, 0
    1700:	00000000 	andeq	r0, r0, r0
    1704:	00000101 	andeq	r0, r0, r1, lsl #2
    1708:	00000000 	andeq	r0, r0, r0
    170c:	00000400 	andeq	r0, r0, r0, lsl #8
    1710:	50000100 	andpl	r0, r0, r0, lsl #2
    1714:	00000004 	andeq	r0, r0, r4
    1718:	0000001c 	andeq	r0, r0, ip, lsl r0
    171c:	1c520001 	mrrcne	0, 0, r0, r2, cr1
    1720:	24000000 	strcs	r0, [r0], #-0
    1724:	01000000 	mrseq	r0, (UNDEF: 0)
    1728:	00245300 	eoreq	r5, r4, r0, lsl #6
    172c:	00280000 	eoreq	r0, r8, r0
    1730:	00030000 	andeq	r0, r3, r0
    1734:	289f0173 	ldmcs	pc, {r0, r1, r4, r5, r6, r8}	; <UNPREDICTABLE>
    1738:	34000000 	strcc	r0, [r0], #-0
    173c:	01000000 	mrseq	r0, (UNDEF: 0)
    1740:	00005300 	andeq	r5, r0, r0, lsl #6
    1744:	00000000 	andeq	r0, r0, r0
    1748:	00030000 	andeq	r0, r3, r0
    174c:	00000000 	andeq	r0, r0, r0
    1750:	00240000 	eoreq	r0, r4, r0
    1754:	00010000 	andeq	r0, r1, r0
    1758:	00002451 	andeq	r2, r0, r1, asr r4
    175c:	00003400 	andeq	r3, r0, r0, lsl #8
    1760:	71000300 	mrsvc	r0, LR_irq
    1764:	00009f7f 	andeq	r9, r0, pc, ror pc
	...
    1770:	00100000 	andseq	r0, r0, r0
    1774:	001c0000 	andseq	r0, ip, r0
    1778:	00010000 	andeq	r0, r1, r0
    177c:	0000245c 	andeq	r2, r0, ip, asr r4
    1780:	00003400 	andeq	r3, r0, r0, lsl #8
    1784:	52000100 	andpl	r0, r0, #0
	...
    1798:	00000018 	andeq	r0, r0, r8, lsl r0
    179c:	18500001 	ldmdane	r0, {r0}^
    17a0:	24000000 	strcs	r0, [r0], #-0
    17a4:	01000000 	mrseq	r0, (UNDEF: 0)
    17a8:	00005000 	andeq	r5, r0, r0
	...
    17b8:	001c0000 	andseq	r0, ip, r0
    17bc:	00010000 	andeq	r0, r1, r0
    17c0:	00001c51 	andeq	r1, r0, r1, asr ip
    17c4:	00002c00 	andeq	r2, r0, r0, lsl #24
    17c8:	51000100 	mrspl	r0, (UNDEF: 16)
	...
    17dc:	00040000 	andeq	r0, r4, r0
    17e0:	00010000 	andeq	r0, r1, r0
    17e4:	00000451 	andeq	r0, r0, r1, asr r4
    17e8:	00000c00 	andeq	r0, r0, r0, lsl #24
    17ec:	51000100 	mrspl	r0, (UNDEF: 16)
    17f0:	0000000c 	andeq	r0, r0, ip
    17f4:	00000020 	andeq	r0, r0, r0, lsr #32
    17f8:	7f710003 	svcvc	0x00710003
    17fc:	0000009f 	muleq	r0, pc, r0	; <UNPREDICTABLE>
    1800:	00000000 	andeq	r0, r0, r0
    1804:	00000200 	andeq	r0, r0, r0, lsl #4
    1808:	00000000 	andeq	r0, r0, r0
    180c:	04000000 	streq	r0, [r0], #-0
    1810:	01000000 	mrseq	r0, (UNDEF: 0)
    1814:	00045000 	andeq	r5, r4, r0
    1818:	00140000 	andseq	r0, r4, r0
    181c:	00010000 	andeq	r0, r1, r0
    1820:	0000145c 	andeq	r1, r0, ip, asr r4
    1824:	00002000 	andeq	r2, r0, r0
    1828:	7c000300 	stcvc	3, cr0, [r0], {-0}
    182c:	00009f7f 	andeq	r9, r0, pc, ror pc
    1830:	00000000 	andeq	r0, r0, r0
    1834:	03000000 	movweq	r0, #0
    1838:	90fc0003 	rscsls	r0, ip, r3
    183c:	90fc0000 	rscsls	r0, ip, r0
    1840:	00010000 	andeq	r0, r1, r0
    1844:	0090fc50 	addseq	pc, r0, r0, asr ip	; <UNPREDICTABLE>
    1848:	00912800 	addseq	r2, r1, r0, lsl #16
    184c:	f3000400 	vshl.u8	d0, d0, d0
    1850:	009f5001 	addseq	r5, pc, r1
	...
    185c:	fc000303 	stc2	3, cr0, [r0], {3}
    1860:	fc000090 	stc2	0, cr0, [r0], {144}	; 0x90
    1864:	01000090 	swpeq	r0, r0, [r0]	; <UNPREDICTABLE>
    1868:	90fc5100 	rscsls	r5, ip, r0, lsl #2
    186c:	91280000 			; <UNDEFINED> instruction: 0x91280000
    1870:	00040000 	andeq	r0, r4, r0
    1874:	9f5101f3 	svcls	0x005101f3
	...
    1880:	00030300 	andeq	r0, r3, r0, lsl #6
    1884:	90fc0000 	rscsls	r0, ip, r0
    1888:	90fc0000 	rscsls	r0, ip, r0
    188c:	00010000 	andeq	r0, r1, r0
    1890:	0090fc52 	addseq	pc, r0, r2, asr ip	; <UNPREDICTABLE>
    1894:	00910400 	addseq	r0, r1, r0, lsl #8
    1898:	52000100 	andpl	r0, r0, #0
    189c:	00009104 	andeq	r9, r0, r4, lsl #2
    18a0:	00009128 	andeq	r9, r0, r8, lsr #2
    18a4:	01720003 	cmneq	r2, r3
    18a8:	0000009f 	muleq	r0, pc, r0	; <UNPREDICTABLE>
    18ac:	00000000 	andeq	r0, r0, r0
    18b0:	01010200 	mrseq	r0, R9_usr
    18b4:	00000000 	andeq	r0, r0, r0
    18b8:	0090fc00 	addseq	pc, r0, r0, lsl #24
    18bc:	00910800 	addseq	r0, r1, r0, lsl #16
    18c0:	50000100 	andpl	r0, r0, r0, lsl #2
    18c4:	00009108 	andeq	r9, r0, r8, lsl #2
    18c8:	0000910c 	andeq	r9, r0, ip, lsl #2
    18cc:	01700003 	cmneq	r0, r3
    18d0:	00910c9f 	umullseq	r0, r1, pc, ip	; <UNPREDICTABLE>
    18d4:	00911c00 	addseq	r1, r1, r0, lsl #24
    18d8:	50000100 	andpl	r0, r0, r0, lsl #2
    18dc:	00009120 	andeq	r9, r0, r0, lsr #2
    18e0:	00009124 	andeq	r9, r0, r4, lsr #2
    18e4:	00500001 	subseq	r0, r0, r1
    18e8:	00000000 	andeq	r0, r0, r0
    18ec:	02000000 	andeq	r0, r0, #0, 0
    18f0:	00000000 	andeq	r0, r0, r0
    18f4:	0090fc00 	addseq	pc, r0, r0, lsl #24
    18f8:	00910c00 	addseq	r0, r1, r0, lsl #24
    18fc:	51000100 	mrspl	r0, (UNDEF: 16)
    1900:	0000910c 	andeq	r9, r0, ip, lsl #2
    1904:	00009110 	andeq	r9, r0, r0, lsl r1
    1908:	01710003 	cmneq	r1, r3
    190c:	0091109f 	umullseq	r1, r1, pc, r0	; <UNPREDICTABLE>
    1910:	00912800 	addseq	r2, r1, r0, lsl #16
    1914:	51000100 	mrspl	r0, (UNDEF: 16)
	...

Disassembly of section .debug_aranges:

00000000 <.debug_aranges>:
   0:	0000001c 	andeq	r0, r0, ip, lsl r0
   4:	00000002 	andeq	r0, r0, r2
   8:	00040000 	andeq	r0, r4, r0
   c:	00000000 	andeq	r0, r0, r0
  10:	00008038 	andeq	r8, r0, r8, lsr r0
  14:	000002dc 	ldrdeq	r0, [r0], -ip
	...
  20:	0000001c 	andeq	r0, r0, ip, lsl r0
  24:	0bc10002 	bleq	ff040034 <__bss_end__+0xff0367dc>
  28:	00040000 	andeq	r0, r4, r0
  2c:	00000000 	andeq	r0, r0, r0
  30:	00008314 	andeq	r8, r0, r4, lsl r3
  34:	000000d4 	ldrdeq	r0, [r0], -r4
	...
  40:	0000001c 	andeq	r0, r0, ip, lsl r0
  44:	10dc0002 	sbcsne	r0, ip, r2
  48:	00040000 	andeq	r0, r4, r0
  4c:	00000000 	andeq	r0, r0, r0
  50:	000083e8 	andeq	r8, r0, r8, ror #7
  54:	00000058 	andeq	r0, r0, r8, asr r0
	...
  60:	0000001c 	andeq	r0, r0, ip, lsl r0
  64:	127d0002 	rsbsne	r0, sp, #2, 0
  68:	00040000 	andeq	r0, r4, r0
  6c:	00000000 	andeq	r0, r0, r0
  70:	00008440 	andeq	r8, r0, r0, asr #8
  74:	00000034 	andeq	r0, r0, r4, lsr r0
	...
  80:	0000001c 	andeq	r0, r0, ip, lsl r0
  84:	13740002 	cmnne	r4, #2, 0
  88:	00040000 	andeq	r0, r4, r0
  8c:	00000000 	andeq	r0, r0, r0
  90:	00008474 	andeq	r8, r0, r4, ror r4
  94:	00000740 	andeq	r0, r0, r0, asr #14
	...
  a0:	0000001c 	andeq	r0, r0, ip, lsl r0
  a4:	1e4f0002 	cdpne	0, 4, cr0, cr15, cr2, {0}
  a8:	00040000 	andeq	r0, r4, r0
  ac:	00000000 	andeq	r0, r0, r0
  b0:	00008bb4 			; <UNDEFINED> instruction: 0x00008bb4
  b4:	00000020 	andeq	r0, r0, r0, lsr #32
	...
  c0:	0000001c 	andeq	r0, r0, ip, lsl r0
  c4:	1f5d0002 	svcne	0x005d0002
  c8:	00040000 	andeq	r0, r4, r0
  cc:	00000000 	andeq	r0, r0, r0
  d0:	00008bd4 	ldrdeq	r8, [r0], -r4
  d4:	0000002c 	andeq	r0, r0, ip, lsr #32
	...
  e0:	0000001c 	andeq	r0, r0, ip, lsl r0
  e4:	20900002 	addscs	r0, r0, r2
  e8:	00040000 	andeq	r0, r4, r0
  ec:	00000000 	andeq	r0, r0, r0
  f0:	00008c00 	andeq	r8, r0, r0, lsl #24
  f4:	0000003c 	andeq	r0, r0, ip, lsr r0
	...
 100:	0000001c 	andeq	r0, r0, ip, lsl r0
 104:	221d0002 	andscs	r0, sp, #2, 0
 108:	00040000 	andeq	r0, r4, r0
 10c:	00000000 	andeq	r0, r0, r0
 110:	00008c3c 	andeq	r8, r0, ip, lsr ip
 114:	00000004 	andeq	r0, r0, r4
	...
 120:	0000001c 	andeq	r0, r0, ip, lsl r0
 124:	22ef0002 	rsccs	r0, pc, #2, 0
 128:	00040000 	andeq	r0, r4, r0
 12c:	00000000 	andeq	r0, r0, r0
 130:	00008c40 	andeq	r8, r0, r0, asr #24
 134:	00000080 	andeq	r0, r0, r0, lsl #1
	...
 140:	0000001c 	andeq	r0, r0, ip, lsl r0
 144:	25290002 	strcs	r0, [r9, #-2]!
 148:	00040000 	andeq	r0, r4, r0
 14c:	00000000 	andeq	r0, r0, r0
 150:	00008cc0 	andeq	r8, r0, r0, asr #25
 154:	00000084 	andeq	r0, r0, r4, lsl #1
	...
 160:	0000001c 	andeq	r0, r0, ip, lsl r0
 164:	277a0002 	ldrbcs	r0, [sl, -r2]!
 168:	00040000 	andeq	r0, r4, r0
 16c:	00000000 	andeq	r0, r0, r0
 170:	00008d44 	andeq	r8, r0, r4, asr #26
 174:	000001f0 	strdeq	r0, [r0], -r0	; <UNPREDICTABLE>
	...
 180:	0000001c 	andeq	r0, r0, ip, lsl r0
 184:	2d4b0002 	stclcs	0, cr0, [fp, #-8]
 188:	00040000 	andeq	r0, r4, r0
 18c:	00000000 	andeq	r0, r0, r0
 190:	00008f34 	andeq	r8, r0, r4, lsr pc
 194:	0000010c 	andeq	r0, r0, ip, lsl #2
	...
 1a0:	0000001c 	andeq	r0, r0, ip, lsl r0
 1a4:	31410002 	cmpcc	r1, r2
 1a8:	00040000 	andeq	r0, r4, r0
 1ac:	00000000 	andeq	r0, r0, r0
 1b0:	00009040 	andeq	r9, r0, r0, asr #32
 1b4:	0000003c 	andeq	r0, r0, ip, lsr r0
	...
 1c0:	0000001c 	andeq	r0, r0, ip, lsl r0
 1c4:	328e0002 	addcc	r0, lr, #2, 0
 1c8:	00040000 	andeq	r0, r4, r0
 1cc:	00000000 	andeq	r0, r0, r0
 1d0:	0000907c 	andeq	r9, r0, ip, ror r0
 1d4:	00000034 	andeq	r0, r0, r4, lsr r0
	...
 1e0:	0000001c 	andeq	r0, r0, ip, lsl r0
 1e4:	33c90002 	biccc	r0, r9, #2, 0
 1e8:	00040000 	andeq	r0, r4, r0
 1ec:	00000000 	andeq	r0, r0, r0
 1f0:	000090b0 	strheq	r9, [r0], -r0
 1f4:	0000002c 	andeq	r0, r0, ip, lsr #32
	...
 200:	0000001c 	andeq	r0, r0, ip, lsl r0
 204:	34c40002 	strbcc	r0, [r4], #2
 208:	00040000 	andeq	r0, r4, r0
 20c:	00000000 	andeq	r0, r0, r0
 210:	000090dc 	ldrdeq	r9, [r0], -ip
 214:	00000020 	andeq	r0, r0, r0, lsr #32
	...
 220:	0000001c 	andeq	r0, r0, ip, lsl r0
 224:	35d70002 	ldrbcc	r0, [r7, #2]
 228:	00040000 	andeq	r0, r4, r0
 22c:	00000000 	andeq	r0, r0, r0
 230:	000090fc 	strdeq	r9, [r0], -ip
 234:	0000002c 	andeq	r0, r0, ip, lsr #32
	...
 240:	0000001c 	andeq	r0, r0, ip, lsl r0
 244:	37290002 	strcc	r0, [r9, -r2]!
 248:	00040000 	andeq	r0, r4, r0
 24c:	00000000 	andeq	r0, r0, r0
 250:	00009128 	andeq	r9, r0, r8, lsr #2
 254:	00000004 	andeq	r0, r0, r4
	...

Disassembly of section .debug_line:

00000000 <.debug_line>:
       0:	0000020e 	andeq	r0, r0, lr, lsl #4
       4:	00600003 	rsbeq	r0, r0, r3
       8:	01020000 	mrseq	r0, (UNDEF: 2)
       c:	000d0efb 	strdeq	r0, [sp], -fp
      10:	01010101 	tsteq	r1, r1, lsl #2
      14:	01000000 	mrseq	r0, (UNDEF: 0)
      18:	2f010000 	svccs	0x00010000
      1c:	72657355 	rsbvc	r7, r5, #1409286145	; 0x54000001
      20:	696d2f73 	stmdbvs	sp!, {r0, r1, r4, r5, r6, r8, r9, sl, fp, sp}^
      24:	2f73656c 	svccs	0x0073656c
      28:	72756f53 	rsbsvc	r6, r5, #332	; 0x14c
      2c:	632f6563 			; <UNDEFINED> instruction: 0x632f6563
      30:	30343273 	eorscc	r3, r4, r3, ror r2
      34:	6c2f786c 	stcvs	8, cr7, [pc], #-432	; fffffe8c <__bss_end__+0xffff6634>
      38:	69706269 	ldmdbvs	r0!, {r0, r3, r5, r6, r9, sp, lr}^
      3c:	636e692f 	cmnvs	lr, #770048	; 0xbc000
      40:	6564756c 	strbvs	r7, [r4, #-1388]!	; 0xfffffa94
      44:	2d310000 	ldccs	0, cr0, [r1, #-0]
      48:	68636163 	stmdavs	r3!, {r0, r1, r5, r6, r8, sp, lr}^
      4c:	00632e65 	rsbeq	r2, r3, r5, ror #28
      50:	72000000 	andvc	r0, r0, #0, 0
      54:	682e6970 	stmdavs	lr!, {r4, r5, r6, r8, fp, sp, lr}
      58:	00000100 	andeq	r0, r0, r0, lsl #2
      5c:	7361656d 	cmnvc	r1, #457179136	; 0x1b400000
      60:	2e657275 	mcrcs	2, 3, r7, cr5, cr5, {3}
      64:	00000068 	andeq	r0, r0, r8, rrx
      68:	1d050000 	stcne	0, cr0, [r5, #-0]
      6c:	38020500 	stmdacc	r2, {r8, sl}
      70:	1a000080 	bne	278 <__code_start__-0x7d88>
      74:	05130505 	ldreq	r0, [r3, #-1285]	; 0xfffffafb
      78:	2e010116 	mcrcs	1, 0, r0, cr1, cr6, {0}
      7c:	05050106 	streq	r0, [r5, #-262]	; 0xfffffefa
      80:	054b1306 	strbeq	r1, [fp, #-774]	; 0xfffffcfa
      84:	2e010114 	mcrcs	1, 0, r0, cr1, cr4, {0}
      88:	05050106 	streq	r0, [r5, #-262]	; 0xfffffefa
      8c:	01051306 	tsteq	r5, r6, lsl #6
      90:	052e1306 	streq	r1, [lr, #-774]!	; 0xfffffcfa
      94:	0630061f 			; <UNDEFINED> instruction: 0x0630061f
      98:	06050501 	streq	r0, [r5], -r1, lsl #10
      9c:	064a064c 	strbeq	r0, [sl], -ip, asr #12
      a0:	1605692f 	strne	r6, [r5], -pc, lsr #18
      a4:	062e0101 	strteq	r0, [lr], -r1, lsl #2
      a8:	06050501 	streq	r0, [r5], -r1, lsl #10
      ac:	01140513 	tsteq	r4, r3, lsl r5
      b0:	01062e01 	tsteq	r6, r1, lsl #28
      b4:	13060505 	movwne	r0, #25861	; 0x6505
      b8:	4b062e06 	blmi	18b8d8 <__bss_end__+0x182080>
      bc:	01010101 	tsteq	r1, r1, lsl #2
      c0:	0601062e 	streq	r0, [r1], -lr, lsr #12
      c4:	01010101 	tsteq	r1, r1, lsl #2
      c8:	01062e01 	tsteq	r6, r1, lsl #28
      cc:	01060106 	tsteq	r6, r6, lsl #2
      d0:	66060106 	strvs	r0, [r6], -r6, lsl #2
      d4:	064a2e4a 	strbeq	r2, [sl], -sl, asr #28
      d8:	01011301 	tsteq	r1, r1, lsl #6
      dc:	062e0101 	strteq	r0, [lr], -r1, lsl #2
      e0:	01010601 	tsteq	r1, r1, lsl #12
      e4:	2e010101 	adfcss	f0, f1, f1
      e8:	01060106 	tsteq	r6, r6, lsl #2
      ec:	01060106 	tsteq	r6, r6, lsl #2
      f0:	4a2e4a06 	bmi	b92910 <__bss_end__+0xb890b8>
      f4:	01130106 	tsteq	r3, r6, lsl #2
      f8:	2e010101 	adfcss	f0, f1, f1
      fc:	01060106 	tsteq	r6, r6, lsl #2
     100:	01010101 	tsteq	r1, r1, lsl #2
     104:	0601062e 	streq	r0, [r1], -lr, lsr #12
     108:	06010601 	streq	r0, [r1], -r1, lsl #12
     10c:	2e4a0601 	cdpcs	6, 4, cr0, cr10, cr1, {0}
     110:	1501064a 	strne	r0, [r1, #-1610]	; 0xfffff9b6
     114:	0101839f 			; <UNDEFINED> instruction: 0x0101839f
     118:	062e0101 	strteq	r0, [lr], -r1, lsl #2
     11c:	4a010601 	bmi	41928 <__bss_end__+0x380d0>
     120:	062e0101 	strteq	r0, [lr], -r1, lsl #2
     124:	06010601 	streq	r0, [r1], -r1, lsl #12
     128:	06010601 	streq	r0, [r1], -r1, lsl #12
     12c:	064a2e82 	strbeq	r2, [sl], -r2, lsl #29
     130:	01011301 	tsteq	r1, r1, lsl #6
     134:	062e0101 	strteq	r0, [lr], -r1, lsl #2
     138:	2e010601 	cfmadd32cs	mvax0, mvfx0, mvfx1, mvfx1
     13c:	062e0101 	strteq	r0, [lr], -r1, lsl #2
     140:	06010601 	streq	r0, [r1], -r1, lsl #12
     144:	06010601 	streq	r0, [r1], -r1, lsl #12
     148:	064a2e4a 	strbeq	r2, [sl], -sl, asr #28
     14c:	01011401 	tsteq	r1, r1, lsl #8
     150:	062e0101 	strteq	r0, [lr], -r1, lsl #2
     154:	2e010601 	cfmadd32cs	mvax0, mvfx0, mvfx1, mvfx1
     158:	062e0101 	strteq	r0, [lr], -r1, lsl #2
     15c:	06010601 	streq	r0, [r1], -r1, lsl #12
     160:	06010601 	streq	r0, [r1], -r1, lsl #12
     164:	01066682 	smlabbeq	r6, r2, r6, r6
     168:	01010113 	tsteq	r1, r3, lsl r1
     16c:	01062e01 	tsteq	r6, r1, lsl #28
     170:	012e0106 			; <UNDEFINED> instruction: 0x012e0106
     174:	01062e01 	tsteq	r6, r1, lsl #28
     178:	01060106 	tsteq	r6, r6, lsl #2
     17c:	4a060106 	bmi	18059c <__bss_end__+0x176d44>
     180:	15010666 	strne	r0, [r1, #-1638]	; 0xfffff99a
     184:	01019fbb 			; <UNDEFINED> instruction: 0x01019fbb
     188:	062e0101 	strteq	r0, [lr], -r1, lsl #2
     18c:	06010601 	streq	r0, [r1], -r1, lsl #12
     190:	014a062e 	cmpeq	sl, lr, lsr #12
     194:	01062e01 	tsteq	r6, r1, lsl #28
     198:	01060106 	tsteq	r6, r6, lsl #2
     19c:	82060106 	andhi	r0, r6, #-2147483647	; 0x80000001
     1a0:	01064a2e 	tsteq	r6, lr, lsr #20
     1a4:	01010113 	tsteq	r1, r3, lsl r1
     1a8:	01062e01 	tsteq	r6, r1, lsl #28
     1ac:	012e0106 			; <UNDEFINED> instruction: 0x012e0106
     1b0:	01062e01 	tsteq	r6, r1, lsl #28
     1b4:	01060106 	tsteq	r6, r6, lsl #2
     1b8:	4a060106 	bmi	1805d8 <__bss_end__+0x176d80>
     1bc:	01064a2e 	tsteq	r6, lr, lsr #20
     1c0:	019fbb14 	orrseq	fp, pc, r4, lsl fp	; <UNPREDICTABLE>
     1c4:	2e010101 	adfcss	f0, f1, f1
     1c8:	01060106 	tsteq	r6, r6, lsl #2
     1cc:	2e010166 	adfcssz	f0, f1, f6
     1d0:	01060106 	tsteq	r6, r6, lsl #2
     1d4:	01060106 	tsteq	r6, r6, lsl #2
     1d8:	06666606 	strbteq	r6, [r6], -r6, lsl #12
     1dc:	01011301 	tsteq	r1, r1, lsl #6
     1e0:	062e0101 	strteq	r0, [lr], -r1, lsl #2
     1e4:	66010601 	strvs	r0, [r1], -r1, lsl #12
     1e8:	062e0101 	strteq	r0, [lr], -r1, lsl #2
     1ec:	06010601 	streq	r0, [r1], -r1, lsl #12
     1f0:	06010601 	streq	r0, [r1], -r1, lsl #12
     1f4:	0106664a 	tsteq	r6, sl, asr #12
     1f8:	06010514 			; <UNDEFINED> instruction: 0x06010514
     1fc:	0614054b 	ldreq	r0, [r4], -fp, asr #10
     200:	05152402 	ldreq	r2, [r5, #-1026]	; 0xfffffbfe
     204:	01012f05 	tsteq	r1, r5, lsl #30
     208:	2f4b154a 	svccs	0x004b154a
     20c:	0006024c 	andeq	r0, r6, ip, asr #4
     210:	01940101 	orrseq	r0, r4, r1, lsl #2
     214:	00030000 	andeq	r0, r3, r0
     218:	00000057 	andeq	r0, r0, r7, asr r0
     21c:	0efb0102 	cdpeq	1, 15, cr0, cr11, cr2, {0}
     220:	0101000d 	tsteq	r1, sp
     224:	00000101 	andeq	r0, r0, r1, lsl #2
     228:	00000100 	andeq	r0, r0, r0, lsl #2
     22c:	73552f01 	cmpvc	r5, #1, 30
     230:	2f737265 	svccs	0x00737265
     234:	656c696d 	strbvs	r6, [ip, #-2413]!	; 0xfffff693
     238:	6f532f73 	svcvs	0x00532f73
     23c:	65637275 	strbvs	r7, [r3, #-629]!	; 0xfffffd8b
     240:	3273632f 	rsbscc	r6, r3, #-1140850688	; 0xbc000000
     244:	786c3034 	stmdavc	ip!, {r2, r4, r5, ip, sp}^
     248:	62696c2f 	rsbvs	r6, r9, #12032	; 0x2f00
     24c:	692f6970 	stmdbvs	pc!, {r4, r5, r6, r8, fp, sp, lr}	; <UNPREDICTABLE>
     250:	756c636e 	strbvc	r6, [ip, #-878]!	; 0xfffffc92
     254:	00006564 	andeq	r6, r0, r4, ror #10
     258:	706f7473 	rsbvc	r7, pc, r3, ror r4	; <UNPREDICTABLE>
     25c:	6c6e692d 			; <UNDEFINED> instruction: 0x6c6e692d
     260:	2e656e69 	cdpcs	14, 6, cr6, cr5, cr9, {3}
     264:	00000063 	andeq	r0, r0, r3, rrx
     268:	69707200 	ldmdbvs	r0!, {r9, ip, sp, lr}^
     26c:	0100682e 	tsteq	r0, lr, lsr #16
     270:	05000000 	streq	r0, [r0, #-0]
     274:	0205001d 	andeq	r0, r5, #29, 0
     278:	00008314 	andeq	r8, r0, r4, lsl r3
     27c:	1305051a 	movwne	r0, #21786	; 0x551a
     280:	01011205 	tsteq	r1, r5, lsl #4
     284:	0501062e 	streq	r0, [r1, #-1582]	; 0xfffff9d2
     288:	13130605 	tstne	r3, #5242880	; 0x500000
     28c:	1205134b 	andne	r1, r5, #738197505	; 0x2c000001
     290:	062e0101 	strteq	r0, [lr], -r1, lsl #2
     294:	06050501 	streq	r0, [r5], -r1, lsl #10
     298:	06010513 			; <UNDEFINED> instruction: 0x06010513
     29c:	20052e13 	andcs	r2, r5, r3, lsl lr
     2a0:	05053006 	streq	r3, [r5, #-6]
     2a4:	01120513 	tsteq	r2, r3, lsl r5
     2a8:	01062e01 	tsteq	r6, r1, lsl #28
     2ac:	13060505 	movwne	r0, #25861	; 0x6505
     2b0:	01060705 	tsteq	r6, r5, lsl #14
     2b4:	67060505 	strvs	r0, [r6, -r5, lsl #10]
     2b8:	01011205 	tsteq	r1, r5, lsl #4
     2bc:	0501062e 	streq	r0, [r1, #-1582]	; 0xfffff9d2
     2c0:	05130605 	ldreq	r0, [r3, #-1541]	; 0xfffff9fb
     2c4:	2e130601 	cfmsub32cs	mvax0, mvfx0, mvfx3, mvfx1
     2c8:	4c061f05 	stcmi	15, cr1, [r6], {5}
     2cc:	05050106 	streq	r0, [r5, #-262]	; 0xfffffefa
     2d0:	12054b06 	andne	r4, r5, #6144	; 0x1800
     2d4:	062e0101 	strteq	r0, [lr], -r1, lsl #2
     2d8:	06050501 	streq	r0, [r5], -r1, lsl #10
     2dc:	062e0613 			; <UNDEFINED> instruction: 0x062e0613
     2e0:	0112052f 	tsteq	r2, pc, lsr #10
     2e4:	01062e01 	tsteq	r6, r1, lsl #28
     2e8:	13060505 	movwne	r0, #25861	; 0x6505
     2ec:	13060105 	movwne	r0, #24837	; 0x6105
     2f0:	061e052e 	ldreq	r0, [lr], -lr, lsr #10
     2f4:	1305054c 	movwne	r0, #21836	; 0x554c
     2f8:	01011205 	tsteq	r1, r5, lsl #4
     2fc:	0501062e 	streq	r0, [r1, #-1582]	; 0xfffff9d2
     300:	05130605 	ldreq	r0, [r3, #-1541]	; 0xfffff9fb
     304:	2e010112 	mcrcs	1, 0, r0, cr1, cr2, {0}
     308:	05050106 	streq	r0, [r5, #-262]	; 0xfffffefa
     30c:	01051306 	tsteq	r5, r6, lsl #6
     310:	052e1306 	streq	r1, [lr, #-774]!	; 0xfffffcfa
     314:	0530061d 	ldreq	r0, [r0, #-1565]!	; 0xfffff9e3
     318:	12051305 	andne	r1, r5, #335544320	; 0x14000000
     31c:	062e0101 	strteq	r0, [lr], -r1, lsl #2
     320:	06050501 	streq	r0, [r5], -r1, lsl #10
     324:	12052f13 	andne	r2, r5, #76	; 0x4c
     328:	062e0101 	strteq	r0, [lr], -r1, lsl #2
     32c:	06050501 	streq	r0, [r5], -r1, lsl #10
     330:	06010513 			; <UNDEFINED> instruction: 0x06010513
     334:	1d052e13 	stcne	14, cr2, [r5, #-76]	; 0xffffffb4
     338:	05053006 	streq	r3, [r5, #-6]
     33c:	01120513 	tsteq	r2, r3, lsl r5
     340:	01062e01 	tsteq	r6, r1, lsl #28
     344:	13060505 	movwne	r0, #25861	; 0x6505
     348:	12052f2f 	andne	r2, r5, #188	; 0xbc
     34c:	062e0101 	strteq	r0, [lr], -r1, lsl #2
     350:	06050501 	streq	r0, [r5], -r1, lsl #10
     354:	06010513 			; <UNDEFINED> instruction: 0x06010513
     358:	1d052e13 	stcne	14, cr2, [r5, #-76]	; 0xffffffb4
     35c:	05053006 	streq	r3, [r5, #-6]
     360:	01120513 	tsteq	r2, r3, lsl r5
     364:	01062e01 	tsteq	r6, r1, lsl #28
     368:	13060505 	movwne	r0, #25861	; 0x6505
     36c:	052f2f2f 	streq	r2, [pc, #-3887]!	; fffff445 <__bss_end__+0xffff5bed>
     370:	2e010112 	mcrcs	1, 0, r0, cr1, cr2, {0}
     374:	05050106 	streq	r0, [r5, #-262]	; 0xfffffefa
     378:	01051306 	tsteq	r5, r6, lsl #6
     37c:	052e1306 	streq	r1, [lr, #-774]!	; 0xfffffcfa
     380:	052f061d 	streq	r0, [pc, #-1565]!	; fffffd6b <__bss_end__+0xffff6513>
     384:	12051305 	andne	r1, r5, #335544320	; 0x14000000
     388:	062e0101 	strteq	r0, [lr], -r1, lsl #2
     38c:	06050501 	streq	r0, [r5], -r1, lsl #10
     390:	2f2f2f13 	svccs	0x002f2f13
     394:	0112052f 	tsteq	r2, pc, lsr #10
     398:	01062e01 	tsteq	r6, r1, lsl #28
     39c:	13060505 	movwne	r0, #25861	; 0x6505
     3a0:	13060105 	movwne	r0, #24837	; 0x6105
     3a4:	0002022e 	andeq	r0, r2, lr, lsr #4
     3a8:	01100101 	tsteq	r0, r1, lsl #2
     3ac:	00030000 	andeq	r0, r3, r0
     3b0:	000000de 	ldrdeq	r0, [r0], -lr
     3b4:	0efb0102 	cdpeq	1, 15, cr0, cr11, cr2, {0}
     3b8:	0101000d 	tsteq	r1, sp
     3bc:	00000101 	andeq	r0, r0, r1, lsl #2
     3c0:	00000100 	andeq	r0, r0, r0, lsl #2
     3c4:	6c2f2e01 	stcvs	14, cr2, [pc], #-4	; 3c8 <__code_start__-0x7c38>
     3c8:	00636269 	rsbeq	r6, r3, r9, ror #4
     3cc:	74706f2f 	ldrbtvc	r6, [r0], #-3887	; 0xfffff0d1
     3d0:	6d6f682f 	stclvs	8, cr6, [pc, #-188]!	; 31c <__code_start__-0x7ce4>
     3d4:	65726265 	ldrbvs	r6, [r2, #-613]!	; 0xfffffd9b
     3d8:	65432f77 	strbvs	r2, [r3, #-3959]	; 0xfffff089
     3dc:	72616c6c 	rsbvc	r6, r1, #108, 24	; 0x6c00
     3e0:	6d72612f 	ldfvse	f6, [r2, #-188]!	; 0xffffff44
     3e4:	6e6f6e2d 	cdpvs	14, 6, cr6, cr15, cr13, {1}
     3e8:	61652d65 	cmnvs	r5, r5, ror #26
     3ec:	742d6962 	strtvc	r6, [sp], #-2402	; 0xfffff69e
     3f0:	2f747365 	svccs	0x00747365
     3f4:	30322d39 	eorscc	r2, r2, r9, lsr sp
     3f8:	34713931 	ldrbtcc	r3, [r1], #-2353	; 0xfffff6cf
     3fc:	3173632d 	cmncc	r3, sp, lsr #6
     400:	2f653730 	svccs	0x00653730
     404:	2f62696c 	svccs	0x0062696c
     408:	2f636367 	svccs	0x00636367
     40c:	2d6d7261 	sfmcs	f7, 2, [sp, #-388]!	; 0xfffffe7c
     410:	656e6f6e 	strbvs	r6, [lr, #-3950]!	; 0xfffff092
     414:	6261652d 	rsbvs	r6, r1, #188743680	; 0xb400000
     418:	2e392f69 	cdpcs	15, 3, cr2, cr9, cr9, {3}
     41c:	2f312e32 	svccs	0x00312e32
     420:	6c636e69 	stclvs	14, cr6, [r3], #-420	; 0xfffffe5c
     424:	00656475 	rsbeq	r6, r5, r5, ror r4
     428:	6573552f 	ldrbvs	r5, [r3, #-1327]!	; 0xfffffad1
     42c:	6d2f7372 	stcvs	3, cr7, [pc, #-456]!	; 26c <__code_start__-0x7d94>
     430:	73656c69 	cmnvc	r5, #26880	; 0x6900
     434:	756f532f 	strbvc	r5, [pc, #-815]!	; 10d <__code_start__-0x7ef3>
     438:	2f656372 	svccs	0x00656372
     43c:	34327363 	ldrtcc	r7, [r2], #-867	; 0xfffffc9d
     440:	2f786c30 	svccs	0x00786c30
     444:	7062696c 	rsbvc	r6, r2, ip, ror #18
     448:	6e692f69 	cdpvs	15, 6, cr2, cr9, cr9, {3}
     44c:	64756c63 	ldrbtvs	r6, [r5], #-3171	; 0xfffff39d
     450:	70000065 	andvc	r0, r0, r5, rrx
     454:	746e6972 	strbtvc	r6, [lr], #-2418	; 0xfffff68e
     458:	00632e6b 	rsbeq	r2, r3, fp, ror #28
     45c:	73000001 	movwvc	r0, #1
     460:	72616474 	rsbvc	r6, r1, #116, 8	; 0x74000000
     464:	00682e67 	rsbeq	r2, r8, r7, ror #28
     468:	72000002 	andvc	r0, r0, #2, 0
     46c:	682e6970 	stmdavs	lr!, {r4, r5, r6, r8, fp, sp, lr}
     470:	00000300 	andeq	r0, r0, r0, lsl #6
     474:	6975623c 	ldmdbvs	r5!, {r2, r3, r4, r5, r9, sp, lr}^
     478:	692d746c 	pushvs	{r2, r3, r5, r6, sl, ip, sp, lr}
     47c:	00003e6e 	andeq	r3, r0, lr, ror #28
     480:	61760000 	cmnvs	r6, r0
     484:	6972702d 	ldmdbvs	r2!, {r0, r2, r3, r5, ip, sp, lr}^
     488:	2e6b746e 	cdpcs	4, 6, cr7, cr11, cr14, {3}
     48c:	00010068 	andeq	r0, r1, r8, rrx
     490:	22050000 	andcs	r0, r5, #0, 0
     494:	e8020500 	stmda	r2, {r8, sl}
     498:	17000083 	strne	r0, [r0, -r3, lsl #1]
     49c:	05050106 	streq	r0, [r5, #-262]	; 0xfffffefa
     4a0:	14136806 	ldrne	r6, [r3], #-2054	; 0xfffff7fa
     4a4:	054b0905 	strbeq	r0, [fp, #-2309]	; 0xfffff6fb
     4a8:	05010612 	streq	r0, [r1, #-1554]	; 0xfffff9ee
     4ac:	16bb0605 	ldrtne	r0, [fp], r5, lsl #12
     4b0:	34066606 	strcc	r6, [r6], #-1542	; 0xfffff9fa
     4b4:	13060105 	movwne	r0, #24837	; 0x6105
     4b8:	00080266 	andeq	r0, r8, r6, ror #4
     4bc:	00a50101 	adceq	r0, r5, r1, lsl #2
     4c0:	00030000 	andeq	r0, r3, r0
     4c4:	00000057 	andeq	r0, r0, r7, asr r0
     4c8:	0efb0102 	cdpeq	1, 15, cr0, cr11, cr2, {0}
     4cc:	0101000d 	tsteq	r1, sp
     4d0:	00000101 	andeq	r0, r0, r1, lsl #2
     4d4:	00000100 	andeq	r0, r0, r0, lsl #2
     4d8:	6c2f2e01 	stcvs	14, cr2, [pc], #-4	; 4dc <__code_start__-0x7b24>
     4dc:	00636269 	rsbeq	r6, r3, r9, ror #4
     4e0:	6573552f 	ldrbvs	r5, [r3, #-1327]!	; 0xfffffad1
     4e4:	6d2f7372 	stcvs	3, cr7, [pc, #-456]!	; 324 <__code_start__-0x7cdc>
     4e8:	73656c69 	cmnvc	r5, #26880	; 0x6900
     4ec:	756f532f 	strbvc	r5, [pc, #-815]!	; 1c5 <__code_start__-0x7e3b>
     4f0:	2f656372 	svccs	0x00656372
     4f4:	34327363 	ldrtcc	r7, [r2], #-867	; 0xfffffc9d
     4f8:	2f786c30 	svccs	0x00786c30
     4fc:	7062696c 	rsbvc	r6, r2, ip, ror #18
     500:	6e692f69 	cdpvs	15, 6, cr2, cr9, cr9, {3}
     504:	64756c63 	ldrbtvs	r6, [r5], #-3171	; 0xfffff39d
     508:	70000065 	andvc	r0, r0, r5, rrx
     50c:	2e6b7475 	mcrcs	4, 3, r7, cr11, cr5, {3}
     510:	00010063 	andeq	r0, r1, r3, rrx
     514:	69707200 	ldmdbvs	r0!, {r9, ip, sp, lr}^
     518:	0200682e 	andeq	r6, r0, #3014656	; 0x2e0000
     51c:	05000000 	streq	r0, [r0, #-0]
     520:	02050022 	andeq	r0, r5, #34, 0	; 0x22
     524:	00008440 	andeq	r8, r0, r0, asr #8
     528:	05010615 	streq	r0, [r1, #-1557]	; 0xfffff9eb
     52c:	054b0605 	strbeq	r0, [fp, #-1541]	; 0xfffff9fb
     530:	0402000b 	streq	r0, [r2], #-11
     534:	05050101 	streq	r0, [r5, #-257]	; 0xfffffeff
     538:	01040200 	mrseq	r0, R12_usr
     53c:	09052e06 	stmdbeq	r5, {r1, r2, r9, sl, fp, sp}
     540:	02040200 	andeq	r0, r4, #0, 4
     544:	0f054b06 	svceq	0x00054b06
     548:	02040200 	andeq	r0, r4, #0, 4
     54c:	00100565 	andseq	r0, r0, r5, ror #10
     550:	06020402 	streq	r0, [r2], -r2, lsl #8
     554:	04020001 	streq	r0, [r2], #-1
     558:	05052e02 	streq	r2, [r5, #-3586]	; 0xfffff1fe
     55c:	01053206 	tsteq	r5, r6, lsl #4
     560:	06021306 	streq	r1, [r2], -r6, lsl #6
     564:	fa010100 	blx	4096c <__bss_end__+0x37114>
     568:	03000005 	movweq	r0, #5
     56c:	0000f400 	andeq	pc, r0, r0, lsl #8
     570:	fb010200 	blx	40d7a <__bss_end__+0x37522>
     574:	01000d0e 	tsteq	r0, lr, lsl #26
     578:	00010101 	andeq	r0, r1, r1, lsl #2
     57c:	00010000 	andeq	r0, r1, r0
     580:	2f2e0100 	svccs	0x002e0100
     584:	6362696c 	cmnvs	r2, #108, 18	; 0x1b0000
     588:	706f2f00 	rsbvc	r2, pc, r0, lsl #30
     58c:	6f682f74 	svcvs	0x00682f74
     590:	7262656d 	rsbvc	r6, r2, #457179136	; 0x1b400000
     594:	432f7765 			; <UNDEFINED> instruction: 0x432f7765
     598:	616c6c65 	cmnvs	ip, r5, ror #24
     59c:	72612f72 	rsbvc	r2, r1, #456	; 0x1c8
     5a0:	6f6e2d6d 	svcvs	0x006e2d6d
     5a4:	652d656e 	strvs	r6, [sp, #-1390]!	; 0xfffffa92
     5a8:	2d696261 	sfmcs	f6, 2, [r9, #-388]!	; 0xfffffe7c
     5ac:	74736574 	ldrbtvc	r6, [r3], #-1396	; 0xfffffa8c
     5b0:	322d392f 	eorcc	r3, sp, #770048	; 0xbc000
     5b4:	71393130 	teqvc	r9, r0, lsr r1
     5b8:	73632d34 	cmnvc	r3, #52, 26	; 0xd00
     5bc:	65373031 	ldrvs	r3, [r7, #-49]!	; 0xffffffcf
     5c0:	62696c2f 	rsbvs	r6, r9, #12032	; 0x2f00
     5c4:	6363672f 	cmnvs	r3, #12320768	; 0xbc0000
     5c8:	6d72612f 	ldfvse	f6, [r2, #-188]!	; 0xffffff44
     5cc:	6e6f6e2d 	cdpvs	14, 6, cr6, cr15, cr13, {1}
     5d0:	61652d65 	cmnvs	r5, r5, ror #26
     5d4:	392f6962 	stmdbcc	pc!, {r1, r5, r6, r8, fp, sp, lr}	; <UNPREDICTABLE>
     5d8:	312e322e 			; <UNDEFINED> instruction: 0x312e322e
     5dc:	636e692f 	cmnvs	lr, #770048	; 0xbc000
     5e0:	6564756c 	strbvs	r7, [r4, #-1388]!	; 0xfffffa94
     5e4:	73552f00 	cmpvc	r5, #0, 30
     5e8:	2f737265 	svccs	0x00737265
     5ec:	656c696d 	strbvs	r6, [ip, #-2413]!	; 0xfffff693
     5f0:	6f532f73 	svcvs	0x00532f73
     5f4:	65637275 	strbvs	r7, [r3, #-629]!	; 0xfffffd8b
     5f8:	3273632f 	rsbscc	r6, r3, #-1140850688	; 0xbc000000
     5fc:	786c3034 	stmdavc	ip!, {r2, r4, r5, ip, sp}^
     600:	62696c2f 	rsbvs	r6, r9, #12032	; 0x2f00
     604:	692f6970 	stmdbvs	pc!, {r4, r5, r6, r8, fp, sp, lr}	; <UNPREDICTABLE>
     608:	756c636e 	strbvc	r6, [ip, #-878]!	; 0xfffffc92
     60c:	00006564 	andeq	r6, r0, r4, ror #10
     610:	702d6176 	eorvc	r6, sp, r6, ror r1
     614:	746e6972 	strbtvc	r6, [lr], #-2418	; 0xfffff68e
     618:	00632e6b 	rsbeq	r2, r3, fp, ror #28
     61c:	73000001 	movwvc	r0, #1
     620:	6e696474 	mcrvs	4, 3, r6, cr9, cr4, {3}
     624:	63672d74 	cmnvs	r7, #116, 26	; 0x1d00
     628:	00682e63 	rsbeq	r2, r8, r3, ror #28
     62c:	72000002 	andvc	r0, r0, #2, 0
     630:	682e6970 	stmdavs	lr!, {r4, r5, r6, r8, fp, sp, lr}
     634:	00000300 	andeq	r0, r0, r0, lsl #6
     638:	2d697072 	stclcs	0, cr7, [r9, #-456]!	; 0xfffffe38
     63c:	65746e69 	ldrbvs	r6, [r4, #-3689]!	; 0xfffff197
     640:	6c616e72 	stclvs	14, cr6, [r1], #-456	; 0xfffffe38
     644:	0300682e 	movweq	r6, #2094	; 0x82e
     648:	74730000 	ldrbtvc	r0, [r3], #-0
     64c:	67726164 	ldrbvs	r6, [r2, -r4, ror #2]!
     650:	0200682e 	andeq	r6, r0, #3014656	; 0x2e0000
     654:	623c0000 	eorsvs	r0, ip, #0, 0
     658:	746c6975 	strbtvc	r6, [ip], #-2421	; 0xfffff68b
     65c:	3e6e692d 	vmulcc.f16	s13, s28, s27	; <UNPREDICTABLE>
     660:	00000000 	andeq	r0, r0, r0
     664:	001b0500 	andseq	r0, fp, r0, lsl #10
     668:	84740205 	ldrbthi	r0, [r4], #-517	; 0xfffffdfb
     66c:	26030000 	strcs	r0, [r3], -r0
     670:	011d0501 	tsteq	sp, r1, lsl #10
     674:	01062d05 	tsteq	r6, r5, lsl #26
     678:	4a2e0105 	bmi	b80a94 <__bss_end__+0xb7723c>
     67c:	51063305 	tstpl	r6, r5, lsl #6
     680:	05130205 	ldreq	r0, [r3, #-517]	; 0xfffffdfb
     684:	05010606 	streq	r0, [r1, #-1542]	; 0xfffff9fa
     688:	05300602 	ldreq	r0, [r0, #-1538]!	; 0xfffff9fe
     68c:	04020008 	streq	r0, [r2], #-8
     690:	02050101 	andeq	r0, r5, #1073741824	; 0x40000000
     694:	01040200 	mrseq	r0, R12_usr
     698:	03050106 	movweq	r0, #20742	; 0x5106
     69c:	02040200 	andeq	r0, r4, #0, 4
     6a0:	08052f06 	stmdaeq	r5, {r1, r2, r8, r9, sl, fp, sp}
     6a4:	02040200 	andeq	r0, r4, #0, 4
     6a8:	15050106 	strne	r0, [r5, #-262]	; 0xfffffefa
     6ac:	02040200 	andeq	r0, r4, #0, 4
     6b0:	18054906 	stmdane	r5, {r1, r2, r8, fp, lr}
     6b4:	02040200 	andeq	r0, r4, #0, 4
     6b8:	02000106 	andeq	r0, r0, #-2147483647	; 0x80000001
     6bc:	052e0204 	streq	r0, [lr, #-516]!	; 0xfffffdfc
     6c0:	05300602 	ldreq	r0, [r0, #-1538]!	; 0xfffff9fe
     6c4:	05010605 	streq	r0, [r1, #-1541]	; 0xfffff9fb
     6c8:	054b0602 	strbeq	r0, [fp, #-1538]	; 0xfffff9fe
     6cc:	05130601 	ldreq	r0, [r3, #-1537]	; 0xfffff9ff
     6d0:	0531063e 	ldreq	r0, [r1, #-1598]!	; 0xfffff9c2
     6d4:	0e051402 	cdpeq	4, 0, cr1, cr5, cr2, {0}
     6d8:	06050106 	streq	r0, [r5], -r6, lsl #2
     6dc:	0602052e 	streq	r0, [r2], -lr, lsr #10
     6e0:	0604052f 	streq	r0, [r4], -pc, lsr #10
     6e4:	06030501 	streq	r0, [r3], -r1, lsl #10
     6e8:	0611052f 	ldreq	r0, [r1], -pc, lsr #10
     6ec:	2e090501 	cfsh32cs	mvfx0, mvfx9, #1
     6f0:	30060205 	andcc	r0, r6, r5, lsl #4
     6f4:	06070515 			; <UNDEFINED> instruction: 0x06070515
     6f8:	2e020501 	cfsh32cs	mvfx0, mvfx2, #1
     6fc:	02000b05 	andeq	r0, r0, #5120	; 0x1400
     700:	2e060104 	adfcss	f0, f6, f4
     704:	02000205 	andeq	r0, r0, #1342177280	; 0x50000000
     708:	01060104 	tsteq	r6, r4, lsl #2
     70c:	02000305 	andeq	r0, r0, #335544320	; 0x14000000
     710:	2f060304 	svccs	0x00060304
     714:	02000c05 	andeq	r0, r0, #1280	; 0x500
     718:	01060304 	tsteq	r6, r4, lsl #6
     71c:	02000a05 	andeq	r0, r0, #20480	; 0x5000
     720:	052e0304 	streq	r0, [lr, #-772]!	; 0xfffffcfc
     724:	04020017 	streq	r0, [r2], #-23	; 0xffffffe9
     728:	002d0603 	eoreq	r0, sp, r3, lsl #12
     72c:	06030402 	streq	r0, [r3], -r2, lsl #8
     730:	06020501 	streq	r0, [r2], -r1, lsl #10
     734:	06090530 			; <UNDEFINED> instruction: 0x06090530
     738:	02052e01 	andeq	r2, r5, #1, 28
     73c:	01053006 	tsteq	r5, r6
     740:	49051306 	stmdbmi	r5, {r1, r2, r8, r9, ip}
     744:	01063106 	tsteq	r6, r6, lsl #2
     748:	a0060205 	andge	r0, r6, r5, lsl #4
     74c:	01060405 	tsteq	r6, r5, lsl #8
     750:	2f060305 	svccs	0x00060305
     754:	01060905 	tsteq	r6, r5, lsl #18
     758:	30060205 	andcc	r0, r6, r5, lsl #4
     75c:	060b0513 			; <UNDEFINED> instruction: 0x060b0513
     760:	06020501 	streq	r0, [r2], -r1, lsl #10
     764:	052e0630 	streq	r0, [lr, #-1584]!	; 0xfffff9d0
     768:	24020604 	strcs	r0, [r2], #-1540	; 0xfffff9fc
     76c:	0f051315 	svceq	0x00051315
     770:	052e0106 	streq	r0, [lr, #-262]!	; 0xfffffefa
     774:	05054a06 	streq	r4, [r5, #-2566]	; 0xfffff5fa
     778:	05134b06 	ldreq	r4, [r3, #-2822]	; 0xfffff4fa
     77c:	05010609 	streq	r0, [r1, #-1545]	; 0xfffff9f7
     780:	052f0605 	streq	r0, [pc, #-1541]!	; 183 <__code_start__-0x7e7d>
     784:	0510060b 	ldreq	r0, [r0, #-1547]	; 0xfffff9f5
     788:	0402000d 	streq	r0, [r2], #-13
     78c:	04052c01 	streq	r2, [r5], #-3073	; 0xfffff3ff
     790:	01040200 	mrseq	r0, R12_usr
     794:	05053406 	streq	r3, [r5, #-1030]	; 0xfffffbfa
     798:	01040200 	mrseq	r0, R12_usr
     79c:	001b0513 	andseq	r0, fp, r3, lsl r5
     7a0:	06010402 	streq	r0, [r1], -r2, lsl #8
     7a4:	00070501 	andeq	r0, r7, r1, lsl #10
     7a8:	d6010402 	strle	r0, [r1], -r2, lsl #8
     7ac:	02001805 	andeq	r1, r0, #327680	; 0x50000
     7b0:	052e0104 	streq	r0, [lr, #-260]!	; 0xfffffefc
     7b4:	0402000a 	streq	r0, [r2], #-10
     7b8:	0b054a01 	bleq	152fc4 <__bss_end__+0x14976c>
     7bc:	01040200 	mrseq	r0, R12_usr
     7c0:	0e052f06 	cdpeq	15, 0, cr2, cr5, cr6, {0}
     7c4:	01040200 	mrseq	r0, R12_usr
     7c8:	04052e06 	streq	r2, [r5], #-3590	; 0xfffff1fa
     7cc:	01040200 	mrseq	r0, R12_usr
     7d0:	054b062e 	strbeq	r0, [fp, #-1582]	; 0xfffff9d2
     7d4:	05010606 	streq	r0, [r1, #-1542]	; 0xfffff9fa
     7d8:	052f0605 	streq	r0, [pc, #-1541]!	; 1db <__code_start__-0x7e25>
     7dc:	0501060a 	streq	r0, [r1, #-1546]	; 0xfffff9f6
     7e0:	052e4a07 	streq	r4, [lr, #-2567]!	; 0xfffff5f9
     7e4:	2e76030d 	cdpcs	3, 7, cr0, cr6, cr13, {0}
     7e8:	0d0b054a 	cfstr32eq	mvfx0, [fp, #-296]	; 0xfffffed8
     7ec:	02000d05 	andeq	r0, r0, #320	; 0x140
     7f0:	03060104 	movweq	r0, #24836	; 0x6104
     7f4:	11052e14 	tstne	r5, r4, lsl lr
     7f8:	01040200 	mrseq	r0, R12_usr
     7fc:	002d0513 	eoreq	r0, sp, r3, lsl r5
     800:	06010402 	streq	r0, [r1], -r2, lsl #8
     804:	002a0501 	eoreq	r0, sl, r1, lsl #10
     808:	2e010402 	cdpcs	4, 0, cr0, cr1, cr2, {0}
     80c:	02001605 	andeq	r1, r0, #5242880	; 0x500000
     810:	054a0104 	strbeq	r0, [sl, #-260]	; 0xfffffefc
     814:	04020014 	streq	r0, [r2], #-20	; 0xffffffec
     818:	054b0601 	strbeq	r0, [fp, #-1537]	; 0xfffff9ff
     81c:	0402000d 	streq	r0, [r2], #-13
     820:	00010601 	andeq	r0, r1, r1, lsl #12
     824:	4a010402 	bmi	41834 <__bss_end__+0x37fdc>
     828:	12052f06 	andne	r2, r5, #6, 30
     82c:	054a0106 	strbeq	r0, [sl, #-262]	; 0xfffffefa
     830:	052f060d 	streq	r0, [pc, #-1549]!	; 22b <__code_start__-0x7dd5>
     834:	05010612 	streq	r0, [r1, #-1554]	; 0xfffff9ee
     838:	054b0619 	strbeq	r0, [fp, #-1561]	; 0xfffff9e7
     83c:	04020004 	streq	r0, [r2], #-4
     840:	01110302 	tsteq	r1, r2, lsl #6
     844:	02040200 	andeq	r0, r4, #0, 4
     848:	00020501 	andeq	r0, r2, r1, lsl #10
     84c:	15020402 	strne	r0, [r2, #-1026]	; 0xfffffbfe
     850:	02000905 	andeq	r0, r0, #81920	; 0x14000
     854:	01060204 	tsteq	r6, r4, lsl #4
     858:	02040200 	andeq	r0, r4, #0, 4
     85c:	0001054a 	andeq	r0, r1, sl, asr #10
     860:	9f020402 	svcls	0x00020402
     864:	03060405 	movweq	r0, #25605	; 0x6405
     868:	09054a6e 	stmdbeq	r5, {r1, r2, r3, r5, r6, r9, fp, lr}
     86c:	04050106 	streq	r0, [r5], #-262	; 0xfffffefa
     870:	06052f06 	streq	r2, [r5], -r6, lsl #30
     874:	04051106 	streq	r1, [r5], #-262	; 0xfffffefa
     878:	030b052f 	movweq	r0, #46383	; 0xb52f
     87c:	19052e63 	stmdbne	r5, {r0, r1, r5, r6, r9, sl, fp, sp}
     880:	01040200 	mrseq	r0, R12_usr
     884:	2e240306 	cdpcs	3, 2, cr0, cr4, cr6, {0}
     888:	02001a05 	andeq	r1, r0, #20480	; 0x5000
     88c:	05130104 	ldreq	r0, [r3, #-260]	; 0xfffffefc
     890:	04020028 	streq	r0, [r2], #-40	; 0xffffffd8
     894:	05010601 	streq	r0, [r1, #-1537]	; 0xfffff9ff
     898:	04020025 	streq	r0, [r2], #-37	; 0xffffffdb
     89c:	1f052e01 	svcne	0x00052e01
     8a0:	01040200 	mrseq	r0, R12_usr
     8a4:	000b054a 	andeq	r0, fp, sl, asr #10
     8a8:	06010402 	streq	r0, [r1], -r2, lsl #8
     8ac:	0004054b 	andeq	r0, r4, fp, asr #10
     8b0:	06010402 	streq	r0, [r1], -r2, lsl #8
     8b4:	04020001 	streq	r0, [r2], #-1
     8b8:	02004a01 	andeq	r4, r0, #4096	; 0x1000
     8bc:	4e060104 	adfmis	f0, f6, f4
     8c0:	01040200 	mrseq	r0, R12_usr
     8c4:	04020001 	streq	r0, [r2], #-1
     8c8:	02000101 	andeq	r0, r0, #1073741824	; 0x40000000
     8cc:	00010104 	andeq	r0, r1, r4, lsl #2
     8d0:	06010402 	streq	r0, [r1], -r2, lsl #8
     8d4:	0402002e 	streq	r0, [r2], #-46	; 0xffffffd2
     8d8:	02006601 	andeq	r6, r0, #1048576	; 0x100000
     8dc:	002e0104 	eoreq	r0, lr, r4, lsl #2
     8e0:	06010402 	streq	r0, [r1], -r2, lsl #8
     8e4:	0348054a 	movteq	r0, #34122	; 0x854a
     8e8:	20087fa6 	andcs	r7, r8, r6, lsr #31
     8ec:	01130505 	tsteq	r3, r5, lsl #10
     8f0:	02002e06 	andeq	r2, r0, #96	; 0x60
     8f4:	2e060204 	cdpcs	2, 0, cr0, cr6, cr4, {0}
     8f8:	02040200 	andeq	r0, r4, #0, 4
     8fc:	04020001 	streq	r0, [r2], #-1
     900:	11051302 	tstne	r5, r2, lsl #6
     904:	02040200 	andeq	r0, r4, #0, 4
     908:	05050106 	streq	r0, [r5, #-262]	; 0xfffffefa
     90c:	02040200 	andeq	r0, r4, #0, 4
     910:	07054b06 	streq	r4, [r5, -r6, lsl #22]
     914:	02040200 	andeq	r0, r4, #0, 4
     918:	09050106 	stmdbeq	r5, {r1, r2, r8}
     91c:	0e054b06 	vmlaeq.f64	d4, d5, d6
     920:	48050106 	stmdami	r5, {r1, r2, r8}
     924:	01040200 	mrseq	r0, R12_usr
     928:	00050562 	andeq	r0, r5, r2, ror #10
     92c:	06010402 	streq	r0, [r1], -r2, lsl #8
     930:	0402004b 	streq	r0, [r2], #-75	; 0xffffffb5
     934:	02000101 	andeq	r0, r0, #1073741824	; 0x40000000
     938:	9e060104 	adflss	f0, f6, f4
     93c:	01040200 	mrseq	r0, R12_usr
     940:	0402002e 	streq	r0, [r2], #-46	; 0xffffffd2
     944:	052e0601 	streq	r0, [lr, #-1537]!	; 0xfffff9ff
     948:	00e10340 	rsceq	r0, r1, r0, asr #6
     94c:	050106d6 	streq	r0, [r1, #-1750]	; 0xfffff92a
     950:	059f0602 	ldreq	r0, [pc, #1538]	; f5a <__code_start__-0x70a6>
     954:	0501061e 	streq	r0, [r1, #-1566]	; 0xfffff9e2
     958:	05052e12 	streq	r2, [r5, #-3602]	; 0xfffff1ee
     95c:	02052f06 	andeq	r2, r5, #6, 30
     960:	06090514 			; <UNDEFINED> instruction: 0x06090514
     964:	06050501 	streq	r0, [r5], -r1, lsl #10
     968:	1302054b 	movwne	r0, #9547	; 0x254b
     96c:	0d060805 	stceq	8, cr0, [r6, #-20]	; 0xffffffec
     970:	05330205 	ldreq	r0, [r3, #-517]!	; 0xfffffdfb
     974:	054c0604 	strbeq	r0, [ip, #-1540]	; 0xfffff9fc
     978:	0501060f 	streq	r0, [r1, #-1551]	; 0xfffff9f1
     97c:	08052e09 	stmdaeq	r5, {r0, r3, r9, sl, fp, sp}
     980:	02052c06 	andeq	r2, r5, #1536	; 0x600
     984:	0d052e06 	stceq	14, cr2, [r5, #-24]	; 0xffffffe8
     988:	01040200 	mrseq	r0, R12_usr
     98c:	0603054a 	streq	r0, [r3], -sl, asr #10
     990:	0605054b 	streq	r0, [r5], -fp, asr #10
     994:	06080501 	streq	r0, [r8], -r1, lsl #10
     998:	060e054d 	streq	r0, [lr], -sp, asr #10
     99c:	2e0a0501 	cfsh32cs	mvfx0, mvfx10, #1
     9a0:	2f060405 	svccs	0x00060405
     9a4:	01060905 	tsteq	r6, r5, lsl #18
     9a8:	2f060405 	svccs	0x00060405
     9ac:	01060705 	tsteq	r6, r5, lsl #14
     9b0:	0604052e 	streq	r0, [r4], -lr, lsr #10
     9b4:	06070530 			; <UNDEFINED> instruction: 0x06070530
     9b8:	06040501 	streq	r0, [r4], -r1, lsl #10
     9bc:	05141330 	ldreq	r1, [r4, #-816]	; 0xfffffcd0
     9c0:	0510060d 	ldreq	r0, [r0, #-1549]	; 0xfffff9f3
     9c4:	05300609 	ldreq	r0, [r0, #-1545]!	; 0xfffff9f7
     9c8:	05010612 	streq	r0, [r1, #-1554]	; 0xfffff9ee
     9cc:	09052e0a 	stmdbeq	r5, {r1, r3, r9, sl, fp, sp}
     9d0:	06050566 	streq	r0, [r5], -r6, ror #10
     9d4:	0612054b 	ldreq	r0, [r2], -fp, asr #10
     9d8:	2e160501 	cfmul32cs	mvfx0, mvfx6, mvfx1
     9dc:	052e0b05 	streq	r0, [lr, #-2821]!	; 0xfffff4fb
     9e0:	052f0605 	streq	r0, [pc, #-1541]!	; 3e3 <__code_start__-0x7c1d>
     9e4:	2e010608 	cfmadd32cs	mvax0, mvfx0, mvfx1, mvfx8
     9e8:	30060405 	andcc	r0, r6, r5, lsl #8
     9ec:	15014a01 	strne	r4, [r1, #-2561]	; 0xfffff5ff
     9f0:	01040200 	mrseq	r0, R12_usr
     9f4:	000f3602 	andeq	r3, pc, r2, lsl #12
     9f8:	01010402 	tsteq	r1, r2, lsl #8
     9fc:	01040200 	mrseq	r0, R12_usr
     a00:	341105d6 	ldrcc	r0, [r1], #-1494	; 0xfffffa2a
     a04:	02000113 	andeq	r0, r0, #-1073741820	; 0xc0000004
     a08:	ba060204 	blt	181220 <__bss_end__+0x1779c8>
     a0c:	03040200 	movweq	r0, #16896	; 0x4200
     a10:	0200ba06 	andeq	fp, r0, #24576	; 0x6000
     a14:	00010304 	andeq	r0, r1, r4, lsl #6
     a18:	14030402 	strne	r0, [r3], #-1026	; 0xfffffbfe
     a1c:	02001505 	andeq	r1, r0, #20971520	; 0x1400000
     a20:	01060304 	tsteq	r6, r4, lsl #6
     a24:	02001105 	andeq	r1, r0, #1073741825	; 0x40000001
     a28:	2f060304 	svccs	0x00060304
     a2c:	02001a05 	andeq	r1, r0, #20480	; 0x5000
     a30:	01060304 	tsteq	r6, r4, lsl #6
     a34:	02001105 	andeq	r1, r0, #1073741825	; 0x40000001
     a38:	d7060304 	strle	r0, [r6, -r4, lsl #6]
     a3c:	03040200 	movweq	r0, #16896	; 0x4200
     a40:	04020013 	streq	r0, [r2], #-19	; 0xffffffed
     a44:	02001403 	andeq	r1, r0, #50331648	; 0x3000000
     a48:	00670304 	rsbeq	r0, r7, r4, lsl #6
     a4c:	68030402 	stmdavs	r3, {r1, sl}
     a50:	02001405 	andeq	r1, r0, #83886080	; 0x5000000
     a54:	01060304 	tsteq	r6, r4, lsl #6
     a58:	02001305 	andeq	r1, r0, #335544320	; 0x14000000
     a5c:	05820304 	streq	r0, [r2, #772]	; 0x304
     a60:	054e0618 	strbeq	r0, [lr, #-1560]	; 0xfffff9e8
     a64:	0501061b 	streq	r0, [r1, #-1563]	; 0xfffff9e5
     a68:	0905821a 	stmdbeq	r5, {r1, r3, r4, r9, pc}
     a6c:	0d054b06 	vstreq	d4, [r5, #-24]	; 0xffffffe8
     a70:	052e0106 	streq	r0, [lr, #-262]!	; 0xfffffefa
     a74:	06f30609 	ldrbteq	r0, [r3], r9, lsl #12
     a78:	061505ba 			; <UNDEFINED> instruction: 0x061505ba
     a7c:	06180530 			; <UNDEFINED> instruction: 0x06180530
     a80:	66170501 	ldrvs	r0, [r7], -r1, lsl #10
     a84:	4b061905 	blmi	186ea0 <__bss_end__+0x17d648>
     a88:	03061505 	movweq	r1, #25861	; 0x6505
     a8c:	1105666f 	tstne	r5, pc, ror #12
     a90:	d6014806 	strle	r4, [r1], -r6, lsl #16
     a94:	0b030905 	bleq	c2eb0 <__bss_end__+0xb9658>
     a98:	060d052e 	streq	r0, [sp], -lr, lsr #10
     a9c:	09052e01 	stmdbeq	r5, {r0, r9, sl, fp, sp}
     aa0:	ba06f306 	blt	1bd6c0 <__bss_end__+0x1b3e68>
     aa4:	2f061505 	svccs	0x00061505
     aa8:	66750306 	ldrbtvs	r0, [r5], -r6, lsl #6
     aac:	03061905 	movweq	r1, #26885	; 0x6905
     ab0:	15054a13 	strne	r4, [r5, #-2579]	; 0xfffff5ed
     ab4:	666d0306 	strbtvs	r0, [sp], -r6, lsl #6
     ab8:	4a150306 	bmi	5416d8 <__bss_end__+0x537e80>
     abc:	2e06ba01 	vmlacs.f32	s22, s12, s2
     ac0:	1a060505 	bne	181edc <__bss_end__+0x178684>
     ac4:	032e9e01 			; <UNDEFINED> instruction: 0x032e9e01
     ac8:	0905010e 	stmdbeq	r5, {r1, r2, r3, r8}
     acc:	05050106 	streq	r0, [r5, #-262]	; 0xfffffefa
     ad0:	05750806 	ldrbeq	r0, [r5, #-2054]!	; 0xfffff7fa
     ad4:	01180304 	tsteq	r8, r4, lsl #6
     ad8:	01060705 	tsteq	r6, r5, lsl #14
     adc:	31060405 	tstcc	r6, r5, lsl #8
     ae0:	67030505 	strvs	r0, [r3, -r5, lsl #10]
     ae4:	061c052e 	ldreq	r0, [ip], -lr, lsr #10
     ae8:	82090501 	andhi	r0, r9, #4194304	; 0x400000
     aec:	f3060505 	vrshl.u8	d0, d5, d6
     af0:	061c0531 			; <UNDEFINED> instruction: 0x061c0531
     af4:	82090501 	andhi	r0, r9, #4194304	; 0x400000
     af8:	f3060505 	vrshl.u8	d0, d5, d6
     afc:	061b0530 			; <UNDEFINED> instruction: 0x061b0530
     b00:	82090501 	andhi	r0, r9, #4194304	; 0x400000
     b04:	f3060505 	vrshl.u8	d0, d5, d6
     b08:	06070530 			; <UNDEFINED> instruction: 0x06070530
     b0c:	06050501 	streq	r0, [r5], -r1, lsl #10
     b10:	09053083 	stmdbeq	r5, {r0, r1, r7, ip, sp}
     b14:	05050106 	streq	r0, [r5, #-262]	; 0xfffffefa
     b18:	05750806 	ldrbeq	r0, [r5, #-2054]!	; 0xfffff7fa
     b1c:	22053011 	andcs	r3, r5, #17, 0
     b20:	05050106 	streq	r0, [r5, #-262]	; 0xfffffefa
     b24:	11054b06 	tstne	r5, r6, lsl #22
     b28:	83050583 	movwhi	r0, #21891	; 0x5583
     b2c:	05359e01 	ldreq	r9, [r5, #-3585]!	; 0xfffff1ff
     b30:	0501060e 	streq	r0, [r1, #-1550]	; 0xfffff9f2
     b34:	2d062e0a 	stccs	14, cr2, [r6, #-40]	; 0xffffffd8
     b38:	01060405 	tsteq	r6, r5, lsl #8
     b3c:	02001305 	andeq	r1, r0, #335544320	; 0x14000000
     b40:	054a0104 	strbeq	r0, [sl, #-260]	; 0xfffffefc
     b44:	04020010 	streq	r0, [r2], #-16
     b48:	02002e01 	andeq	r2, r0, #1, 28
     b4c:	05660104 	strbeq	r0, [r6, #-260]!	; 0xfffffefc
     b50:	05160602 	ldreq	r0, [r6, #-1538]	; 0xfffff9fe
     b54:	05010607 	streq	r0, [r1, #-1543]	; 0xfffff9f9
     b58:	054b0602 	strbeq	r0, [fp, #-1538]	; 0xfffff9fe
     b5c:	66130601 	ldrvs	r0, [r3], -r1, lsl #12
     b60:	01001e02 	tsteq	r0, r2, lsl #28
     b64:	00009e01 	andeq	r9, r0, r1, lsl #28
     b68:	5d000300 	stcpl	3, cr0, [r0, #-0]
     b6c:	02000000 	andeq	r0, r0, #0, 0
     b70:	0d0efb01 	vstreq	d15, [lr, #-4]
     b74:	01010100 	mrseq	r0, (UNDEF: 17)
     b78:	00000001 	andeq	r0, r0, r1
     b7c:	01000001 	tsteq	r0, r1
     b80:	74732f2e 	ldrbtvc	r2, [r3], #-3886	; 0xfffff0d2
     b84:	2d666661 	stclcs	6, cr6, [r6, #-388]!	; 0xfffffe7c
     b88:	00637273 	rsbeq	r7, r3, r3, ror r2
     b8c:	6573552f 	ldrbvs	r5, [r3, #-1327]!	; 0xfffffad1
     b90:	6d2f7372 	stcvs	3, cr7, [pc, #-456]!	; 9d0 <__code_start__-0x7630>
     b94:	73656c69 	cmnvc	r5, #26880	; 0x6900
     b98:	756f532f 	strbvc	r5, [pc, #-815]!	; 871 <__code_start__-0x778f>
     b9c:	2f656372 	svccs	0x00656372
     ba0:	34327363 	ldrtcc	r7, [r2], #-867	; 0xfffffc9d
     ba4:	2f786c30 	svccs	0x00786c30
     ba8:	7062696c 	rsbvc	r6, r2, ip, ror #18
     bac:	6e692f69 	cdpvs	15, 6, cr2, cr9, cr9, {3}
     bb0:	64756c63 	ldrbtvs	r6, [r5], #-3171	; 0xfffff39d
     bb4:	63000065 	movwvs	r0, #101	; 0x65
     bb8:	65686361 	strbvs	r6, [r8, #-865]!	; 0xfffffc9f
     bbc:	0100632e 	tsteq	r0, lr, lsr #6
     bc0:	70720000 	rsbsvc	r0, r2, r0
     bc4:	00682e69 	rsbeq	r2, r8, r9, ror #28
     bc8:	00000002 	andeq	r0, r0, r2
     bcc:	05001905 	streq	r1, [r0, #-2309]	; 0xfffff6fb
     bd0:	008bb402 	addeq	fp, fp, r2, lsl #8
     bd4:	05051400 	streq	r1, [r5, #-1024]	; 0xfffffc00
     bd8:	02051313 	andeq	r1, r5, #1275068416	; 0x4c000000
     bdc:	0405132f 	streq	r1, [r5], #-815	; 0xfffffcd1
     be0:	05050106 	streq	r0, [r5, #-262]	; 0xfffffefa
     be4:	01052f06 	tsteq	r5, r6, lsl #30
     be8:	1a052f06 	bne	14c808 <__bss_end__+0x142fb0>
     bec:	05053106 	streq	r3, [r5, #-262]	; 0xfffffefa
     bf0:	02051313 	andeq	r1, r5, #1275068416	; 0x4c000000
     bf4:	04051330 	streq	r1, [r5], #-816	; 0xfffffcd0
     bf8:	05050106 	streq	r0, [r5, #-262]	; 0xfffffefa
     bfc:	01052f06 	tsteq	r5, r6, lsl #30
     c00:	02022f06 	andeq	r2, r2, #6, 30
     c04:	7f010100 	svcvc	0x00010100
     c08:	03000000 	movweq	r0, #0
     c0c:	00006400 	andeq	r6, r0, r0, lsl #8
     c10:	fb010200 	blx	4141a <__bss_end__+0x37bc2>
     c14:	01000d0e 	tsteq	r0, lr, lsl #26
     c18:	00010101 	andeq	r0, r1, r1, lsl #2
     c1c:	00010000 	andeq	r0, r1, r0
     c20:	2f2e0100 	svccs	0x002e0100
     c24:	66617473 			; <UNDEFINED> instruction: 0x66617473
     c28:	72732d66 	rsbsvc	r2, r3, #6528	; 0x1980
     c2c:	552f0063 	strpl	r0, [pc, #-99]!	; bd1 <__code_start__-0x742f>
     c30:	73726573 	cmnvc	r2, #482344960	; 0x1cc00000
     c34:	6c696d2f 	stclvs	13, cr6, [r9], #-188	; 0xffffff44
     c38:	532f7365 			; <UNDEFINED> instruction: 0x532f7365
     c3c:	6372756f 	cmnvs	r2, #465567744	; 0x1bc00000
     c40:	73632f65 	cmnvc	r3, #404	; 0x194
     c44:	6c303432 	cfldrsvs	mvf3, [r0], #-200	; 0xffffff38
     c48:	696c2f78 	stmdbvs	ip!, {r3, r4, r5, r6, r8, r9, sl, fp, sp}^
     c4c:	2f697062 	svccs	0x00697062
     c50:	6c636e69 	stclvs	14, cr6, [r3], #-420	; 0xfffffe5c
     c54:	00656475 	rsbeq	r6, r5, r5, ror r4
     c58:	656c6300 	strbvs	r6, [ip, #-768]!	; 0xfffffd00
     c5c:	722d6e61 	eorvc	r6, sp, #1552	; 0x610
     c60:	6f6f6265 	svcvs	0x006f6265
     c64:	00632e74 	rsbeq	r2, r3, r4, ror lr
     c68:	72000001 	andvc	r0, r0, #1, 0
     c6c:	682e6970 	stmdavs	lr!, {r4, r5, r6, r8, fp, sp, lr}
     c70:	00000200 	andeq	r0, r0, r0, lsl #4
     c74:	00190500 	andseq	r0, r9, r0, lsl #10
     c78:	8bd40205 	blhi	ff501494 <__bss_end__+0xff4f7c3c>
     c7c:	05150000 	ldreq	r0, [r5, #-0]
     c80:	2f832f05 	svccs	0x00832f05
     c84:	0006024b 	andeq	r0, r6, fp, asr #4
     c88:	00990101 	addseq	r0, r9, r1, lsl #2
     c8c:	00030000 	andeq	r0, r3, r0
     c90:	0000005e 	andeq	r0, r0, lr, asr r0
     c94:	0efb0102 	cdpeq	1, 15, cr0, cr11, cr2, {0}
     c98:	0101000d 	tsteq	r1, sp
     c9c:	00000101 	andeq	r0, r0, r1, lsl #2
     ca0:	00000100 	andeq	r0, r0, r0, lsl #2
     ca4:	732f2e01 			; <UNDEFINED> instruction: 0x732f2e01
     ca8:	66666174 			; <UNDEFINED> instruction: 0x66666174
     cac:	6372732d 	cmnvs	r2, #-1275068416	; 0xb4000000
     cb0:	73552f00 	cmpvc	r5, #0, 30
     cb4:	2f737265 	svccs	0x00737265
     cb8:	656c696d 	strbvs	r6, [ip, #-2413]!	; 0xfffff693
     cbc:	6f532f73 	svcvs	0x00532f73
     cc0:	65637275 	strbvs	r7, [r3, #-629]!	; 0xfffffd8b
     cc4:	3273632f 	rsbscc	r6, r3, #-1140850688	; 0xbc000000
     cc8:	786c3034 	stmdavc	ip!, {r2, r4, r5, ip, sp}^
     ccc:	62696c2f 	rsbvs	r6, r9, #12032	; 0x2f00
     cd0:	692f6970 	stmdbvs	pc!, {r4, r5, r6, r8, fp, sp, lr}	; <UNPREDICTABLE>
     cd4:	756c636e 	strbvc	r6, [ip, #-878]!	; 0xfffffc92
     cd8:	00006564 	andeq	r6, r0, r4, ror #10
     cdc:	61747363 	cmnvs	r4, r3, ror #6
     ce0:	632e7472 			; <UNDEFINED> instruction: 0x632e7472
     ce4:	00000100 	andeq	r0, r0, r0, lsl #2
     ce8:	2e697072 	mcrcs	0, 3, r7, cr9, cr2, {3}
     cec:	00020068 	andeq	r0, r2, r8, rrx
     cf0:	10050000 	andne	r0, r5, r0
     cf4:	00020500 	andeq	r0, r2, r0, lsl #10
     cf8:	1500008c 	strne	r0, [r0, #-140]	; 0xffffff74
     cfc:	052f0505 	streq	r0, [pc, #-1285]!	; 7ff <__code_start__-0x7801>
     d00:	05051302 	streq	r1, [r5, #-770]	; 0xfffffcfe
     d04:	14133014 	ldrne	r3, [r3], #-20	; 0xffffffec
     d08:	0f060a05 	svceq	0x00060a05
     d0c:	09053106 	stmdbeq	r5, {r1, r2, r8, ip, sp}
     d10:	0610054b 	ldreq	r0, [r0], -fp, asr #10
     d14:	05054a01 	streq	r4, [r5, #-2561]	; 0xfffff5ff
     d18:	01323006 	teqeq	r2, r6
     d1c:	05144a01 	ldreq	r4, [r4, #-2561]	; 0xfffff5ff
     d20:	06022f02 	streq	r2, [r2], -r2, lsl #30
     d24:	7d010100 	stfvcs	f0, [r1, #-0]
     d28:	03000000 	movweq	r0, #0
     d2c:	00006500 	andeq	r6, r0, r0, lsl #10
     d30:	fb010200 	blx	4153a <__bss_end__+0x37ce2>
     d34:	01000d0e 	tsteq	r0, lr, lsl #26
     d38:	00010101 	andeq	r0, r1, r1, lsl #2
     d3c:	00010000 	andeq	r0, r1, r0
     d40:	2f2e0100 	svccs	0x002e0100
     d44:	66617473 			; <UNDEFINED> instruction: 0x66617473
     d48:	72732d66 	rsbsvc	r2, r3, #6528	; 0x1980
     d4c:	552f0063 	strpl	r0, [pc, #-99]!	; cf1 <__code_start__-0x730f>
     d50:	73726573 	cmnvc	r2, #482344960	; 0x1cc00000
     d54:	6c696d2f 	stclvs	13, cr6, [r9], #-188	; 0xffffff44
     d58:	532f7365 			; <UNDEFINED> instruction: 0x532f7365
     d5c:	6372756f 	cmnvs	r2, #465567744	; 0x1bc00000
     d60:	73632f65 	cmnvc	r3, #404	; 0x194
     d64:	6c303432 	cfldrsvs	mvf3, [r0], #-200	; 0xffffff38
     d68:	696c2f78 	stmdbvs	ip!, {r3, r4, r5, r6, r8, r9, sl, fp, sp}^
     d6c:	2f697062 	svccs	0x00697062
     d70:	6c636e69 	stclvs	14, cr6, [r3], #-420	; 0xfffffe5c
     d74:	00656475 	rsbeq	r6, r5, r5, ror r4
     d78:	73756300 	cmnvc	r5, #0, 6
     d7c:	2d6d6f74 	stclcs	15, cr6, [sp, #-464]!	; 0xfffffe30
     d80:	64616f6c 	strbtvs	r6, [r1], #-3948	; 0xfffff094
     d84:	632e7265 			; <UNDEFINED> instruction: 0x632e7265
     d88:	00000100 	andeq	r0, r0, r0, lsl #2
     d8c:	2e697072 	mcrcs	0, 3, r7, cr9, cr2, {3}
     d90:	00020068 	andeq	r0, r2, r8, rrx
     d94:	1a050000 	bne	140d9c <__bss_end__+0x137544>
     d98:	3c020500 	cfstr32cc	mvfx0, [r2], {-0}
     d9c:	1500008c 	strne	r0, [r0, #-140]	; 0xffffff74
     da0:	02140105 	andseq	r0, r4, #1073741825	; 0x40000001
     da4:	01010002 	tsteq	r1, r2
     da8:	000000cd 	andeq	r0, r0, sp, asr #1
     dac:	005e0003 	subseq	r0, lr, r3
     db0:	01020000 	mrseq	r0, (UNDEF: 2)
     db4:	000d0efb 	strdeq	r0, [sp], -fp
     db8:	01010101 	tsteq	r1, r1, lsl #2
     dbc:	01000000 	mrseq	r0, (UNDEF: 0)
     dc0:	2e010000 	cdpcs	0, 0, cr0, cr1, cr0, {0}
     dc4:	6174732f 	cmnvs	r4, pc, lsr #6
     dc8:	732d6666 			; <UNDEFINED> instruction: 0x732d6666
     dcc:	2f006372 	svccs	0x00006372
     dd0:	72657355 	rsbvc	r7, r5, #1409286145	; 0x54000001
     dd4:	696d2f73 	stmdbvs	sp!, {r0, r1, r4, r5, r6, r8, r9, sl, fp, sp}^
     dd8:	2f73656c 	svccs	0x0073656c
     ddc:	72756f53 	rsbsvc	r6, r5, #332	; 0x14c
     de0:	632f6563 			; <UNDEFINED> instruction: 0x632f6563
     de4:	30343273 	eorscc	r3, r4, r3, ror r2
     de8:	6c2f786c 	stcvs	8, cr7, [pc], #-432	; c40 <__code_start__-0x73c0>
     dec:	69706269 	ldmdbvs	r0!, {r0, r3, r5, r6, r9, sp, lr}^
     df0:	636e692f 	cmnvs	lr, #770048	; 0xbc000
     df4:	6564756c 	strbvs	r7, [r4, #-1388]!	; 0xfffffa94
     df8:	65720000 	ldrbvs	r0, [r2, #-0]!
     dfc:	746f6f62 	strbtvc	r6, [pc], #-3938	; e04 <__code_start__-0x71fc>
     e00:	0100632e 	tsteq	r0, lr, lsr #6
     e04:	70720000 	rsbsvc	r0, r2, r0
     e08:	00682e69 	rsbeq	r2, r8, r9, ror #28
     e0c:	00000002 	andeq	r0, r0, r2
     e10:	05001905 	streq	r1, [r0, #-2309]	; 0xfffff6fb
     e14:	008c4002 	addeq	r4, ip, r2
     e18:	010d0300 	mrseq	r0, SP_mon
     e1c:	13130505 	tstne	r3, #20971520	; 0x1400000
     e20:	06130531 			; <UNDEFINED> instruction: 0x06130531
     e24:	2f010501 	svccs	0x00010501
     e28:	85061b05 	strhi	r1, [r6, #-2821]	; 0xfffff4fb
     e2c:	14130505 	ldrne	r0, [r3], #-1285	; 0xfffffafb
     e30:	052f0905 	streq	r0, [pc, #-2309]!	; 533 <__code_start__-0x7acd>
     e34:	05010616 	streq	r0, [r1, #-1558]	; 0xfffff9ea
     e38:	05052e0e 	streq	r2, [r5, #-3598]	; 0xfffff1f2
     e3c:	01052f06 	tsteq	r5, r6, lsl #30
     e40:	17052f06 	strne	r2, [r5, -r6, lsl #30]
     e44:	05053006 	streq	r3, [r5, #-6]
     e48:	0608052f 	streq	r0, [r8], -pc, lsr #10
     e4c:	2e070501 	cfsh32cs	mvfx0, mvfx7, #1
     e50:	50060505 	andpl	r0, r6, r5, lsl #10
     e54:	134d2f30 	movtne	r2, #57136	; 0xdf30
     e58:	67151313 			; <UNDEFINED> instruction: 0x67151313
     e5c:	01040200 	mrseq	r0, R12_usr
     e60:	000d0567 	andeq	r0, sp, r7, ror #10
     e64:	01010402 	tsteq	r1, r2, lsl #8
     e68:	02000a05 	andeq	r0, r0, #20480	; 0x5000
     e6c:	05010104 	streq	r0, [r1, #-260]	; 0xfffffefc
     e70:	2e6d0309 	cdpcs	3, 6, cr0, cr13, cr9, {0}
     e74:	01000c02 	tsteq	r0, r2, lsl #24
     e78:	0000d401 	andeq	sp, r0, r1, lsl #8
     e7c:	5d000300 	stcpl	3, cr0, [r0, #-0]
     e80:	02000000 	andeq	r0, r0, #0, 0
     e84:	0d0efb01 	vstreq	d15, [lr, #-4]
     e88:	01010100 	mrseq	r0, (UNDEF: 17)
     e8c:	00000001 	andeq	r0, r0, r1
     e90:	01000001 	tsteq	r0, r1
     e94:	74732f2e 	ldrbtvc	r2, [r3], #-3886	; 0xfffff0d2
     e98:	2d666661 	stclcs	6, cr6, [r6, #-388]!	; 0xfffffe7c
     e9c:	00637273 	rsbeq	r7, r3, r3, ror r2
     ea0:	6573552f 	ldrbvs	r5, [r3, #-1327]!	; 0xfffffad1
     ea4:	6d2f7372 	stcvs	3, cr7, [pc, #-456]!	; ce4 <__code_start__-0x731c>
     ea8:	73656c69 	cmnvc	r5, #26880	; 0x6900
     eac:	756f532f 	strbvc	r5, [pc, #-815]!	; b85 <__code_start__-0x747b>
     eb0:	2f656372 	svccs	0x00656372
     eb4:	34327363 	ldrtcc	r7, [r2], #-867	; 0xfffffc9d
     eb8:	2f786c30 	svccs	0x00786c30
     ebc:	7062696c 	rsbvc	r6, r2, ip, ror #18
     ec0:	6e692f69 	cdpvs	15, 6, cr2, cr9, cr9, {3}
     ec4:	64756c63 	ldrbtvs	r6, [r5], #-3171	; 0xfffff39d
     ec8:	74000065 	strvc	r0, [r0], #-101	; 0xffffff9b
     ecc:	72656d69 	rsbvc	r6, r5, #6720	; 0x1a40
     ed0:	0100632e 	tsteq	r0, lr, lsr #6
     ed4:	70720000 	rsbsvc	r0, r2, r0
     ed8:	00682e69 	rsbeq	r2, r8, r9, ror #28
     edc:	00000002 	andeq	r0, r0, r2
     ee0:	05002305 	streq	r2, [r0, #-773]	; 0xfffffcfb
     ee4:	008cc002 	addeq	ip, ip, r2
     ee8:	05051500 	streq	r1, [r5, #-1280]	; 0xfffffb00
     eec:	060c052f 	streq	r0, [ip], -pc, lsr #10
     ef0:	4b010501 	blmi	422fc <__bss_end__+0x38aa4>
     ef4:	4d061f05 	stcmi	15, cr1, [r6, #-20]	; 0xffffffec
     ef8:	2f310505 	svccs	0x00310505
     efc:	01061205 	tsteq	r6, r5, lsl #4
     f00:	4b060505 	blmi	18231c <__bss_end__+0x178ac4>
     f04:	0601052f 	streq	r0, [r1], -pc, lsr #10
     f08:	061c0513 			; <UNDEFINED> instruction: 0x061c0513
     f0c:	0501064c 	streq	r0, [r1, #-1612]	; 0xfffff9b4
     f10:	054b0605 	strbeq	r0, [fp, #-1541]	; 0xfffff9fb
     f14:	2e010613 	mcrcs	6, 0, r0, cr1, cr3, {0}
     f18:	2f060505 	svccs	0x00060505
     f1c:	05130905 	ldreq	r0, [r3, #-2309]	; 0xfffff6fb
     f20:	05010617 	streq	r0, [r1, #-1559]	; 0xfffff9e9
     f24:	052f0609 	streq	r0, [pc, #-1545]!	; 923 <__code_start__-0x76dd>
     f28:	05010611 	streq	r0, [r1, #-1553]	; 0xfffff9ef
     f2c:	1c052e0c 	stcne	14, cr2, [r5], {12}
     f30:	01066b06 	tsteq	r6, r6, lsl #22
     f34:	2f060505 	svccs	0x00060505
     f38:	01054a06 	tsteq	r5, r6, lsl #20
     f3c:	061e054b 	ldreq	r0, [lr], -fp, asr #10
     f40:	0501062f 	streq	r0, [r1, #-1583]	; 0xfffff9d1
     f44:	062f0605 	strteq	r0, [pc], -r5, lsl #12
     f48:	4b01054a 	blmi	42478 <__bss_end__+0x38c20>
     f4c:	01000202 	tsteq	r0, r2, lsl #4
     f50:	00020401 	andeq	r0, r2, r1, lsl #8
     f54:	c8000300 	stmdagt	r0, {r8, r9}
     f58:	02000000 	andeq	r0, r0, #0, 0
     f5c:	0d0efb01 	vstreq	d15, [lr, #-4]
     f60:	01010100 	mrseq	r0, (UNDEF: 17)
     f64:	00000001 	andeq	r0, r0, r1
     f68:	01000001 	tsteq	r0, r1
     f6c:	6d6f682f 	stclvs	8, cr6, [pc, #-188]!	; eb8 <__code_start__-0x7148>
     f70:	6e652f65 	cdpvs	15, 6, cr2, cr5, cr5, {3}
     f74:	72656c67 	rsbvc	r6, r5, #26368	; 0x6700
     f78:	616c632f 	cmnvs	ip, pc, lsr #6
     f7c:	632f7373 			; <UNDEFINED> instruction: 0x632f7373
     f80:	30343173 	eorscc	r3, r4, r3, ror r1
     f84:	32322d65 	eorscc	r2, r2, #6464	; 0x1940
     f88:	2f6e6977 	svccs	0x006e6977
     f8c:	62696c2f 	rsbvs	r6, r9, #12032	; 0x2f00
     f90:	692f6970 	stmdbvs	pc!, {r4, r5, r6, r8, fp, sp, lr}	; <UNPREDICTABLE>
     f94:	756c636e 	strbvc	r6, [ip, #-878]!	; 0xfffffc92
     f98:	2f006564 	svccs	0x00006564
     f9c:	2f727375 	svccs	0x00727375
     fa0:	72616873 	rsbvc	r6, r1, #7536640	; 0x730000
     fa4:	63672f65 	cmnvs	r7, #404	; 0x194
     fa8:	72612d63 	rsbvc	r2, r1, #6336	; 0x18c0
     fac:	6f6e2d6d 	svcvs	0x006e2d6d
     fb0:	652d656e 	strvs	r6, [sp, #-1390]!	; 0xfffffa92
     fb4:	2d696261 	sfmcs	f6, 2, [r9, #-388]!	; 0xfffffe7c
     fb8:	332e3031 			; <UNDEFINED> instruction: 0x332e3031
     fbc:	3230322d 	eorscc	r3, r0, #-805306366	; 0xd0000002
     fc0:	30312e31 	eorscc	r2, r1, r1, lsr lr
     fc4:	62696c2f 	rsbvs	r6, r9, #12032	; 0x2f00
     fc8:	6363672f 	cmnvs	r3, #12320768	; 0xbc0000
     fcc:	6d72612f 	ldfvse	f6, [r2, #-188]!	; 0xffffff44
     fd0:	6e6f6e2d 	cdpvs	14, 6, cr6, cr15, cr13, {1}
     fd4:	61652d65 	cmnvs	r5, r5, ror #26
     fd8:	312f6962 			; <UNDEFINED> instruction: 0x312f6962
     fdc:	2e332e30 	mrccs	14, 1, r2, cr3, cr0, {1}
     fe0:	6e692f31 	mcrvs	15, 3, r2, cr9, cr1, {1}
     fe4:	64756c63 	ldrbtvs	r6, [r5], #-3171	; 0xfffff39d
     fe8:	75000065 	strvc	r0, [r0, #-101]	; 0xffffff9b
     fec:	2e747261 	cdpcs	2, 7, cr7, cr4, cr1, {3}
     ff0:	00000063 	andeq	r0, r0, r3, rrx
     ff4:	72617500 	rsbvc	r7, r1, #0, 10
     ff8:	00682e74 	rsbeq	r2, r8, r4, ror lr
     ffc:	72000001 	andvc	r0, r0, #1, 0
    1000:	682e6970 	stmdavs	lr!, {r4, r5, r6, r8, fp, sp, lr}
    1004:	00000100 	andeq	r0, r0, r0, lsl #2
    1008:	6f697067 	svcvs	0x00697067
    100c:	0100682e 	tsteq	r0, lr, lsr #16
    1010:	74730000 	ldrbtvc	r0, [r3], #-0
    1014:	746e6964 	strbtvc	r6, [lr], #-2404	; 0xfffff69c
    1018:	6363672d 	cmnvs	r3, #11796480	; 0xb40000
    101c:	0200682e 	andeq	r6, r0, #3014656	; 0x2e0000
    1020:	05000000 	streq	r0, [r0, #-0]
    1024:	02050039 	andeq	r0, r5, #57, 0	; 0x39
    1028:	00008d44 	andeq	r8, r0, r4, asr #26
    102c:	06013003 	streq	r3, [r1], -r3
    1030:	06050501 	streq	r0, [r5], -r1, lsl #10
    1034:	06110567 	ldreq	r0, [r1], -r7, ror #10
    1038:	2e050501 	cfsh32cs	mvfx0, mvfx5, #1
    103c:	05670105 	strbeq	r0, [r7, #-261]!	; 0xfffffefb
    1040:	06290638 			; <UNDEFINED> instruction: 0x06290638
    1044:	06050501 	streq	r0, [r5], -r1, lsl #10
    1048:	06110567 	ldreq	r0, [r1], -r7, ror #10
    104c:	2e050501 	cfsh32cs	mvfx0, mvfx5, #1
    1050:	05670105 	strbeq	r0, [r7, #-261]!	; 0xfffffefb
    1054:	15030616 	strne	r0, [r3, #-1558]	; 0xfffff9ea
    1058:	3505052e 	strcc	r0, [r5, #-1326]	; 0xfffffad2
    105c:	68356867 	ldmdavs	r5!, {r0, r1, r2, r5, r6, fp, sp, lr}
    1060:	852e0c03 	strhi	r0, [lr, #-3075]!	; 0xfffff3fd
    1064:	0369696b 	cmneq	r9, #1753088	; 0x1ac000
    1068:	6b13660c 	blvs	4da8a0 <__bss_end__+0x4d1048>
    106c:	06010567 	streq	r0, [r1], -r7, ror #10
    1070:	0619052f 	ldreq	r0, [r9], -pc, lsr #10
    1074:	05052508 	streq	r2, [r5, #-1288]	; 0xfffffaf8
    1078:	060d0534 			; <UNDEFINED> instruction: 0x060d0534
    107c:	4c010501 	cfstr32mi	mvfx0, [r1], {1}
    1080:	67061905 	strvs	r1, [r6, -r5, lsl #18]
    1084:	05360505 	ldreq	r0, [r6, #-1285]!	; 0xfffffafb
    1088:	0501060d 	streq	r0, [r1, #-1549]	; 0xfffff9f3
    108c:	01054a28 	tsteq	r5, r8, lsr #20
    1090:	06150530 			; <UNDEFINED> instruction: 0x06150530
    1094:	2f050587 	svccs	0x00050587
    1098:	0009052f 	andeq	r0, r9, pc, lsr #10
    109c:	13010402 	movwne	r0, #5122	; 0x1402
    10a0:	02000a05 	andeq	r0, r0, #20480	; 0x5000
    10a4:	05110104 	ldreq	r0, [r1, #-260]	; 0xfffffefc
    10a8:	0402000c 	streq	r0, [r2], #-12
    10ac:	05010601 	streq	r0, [r1, #-1537]	; 0xfffff9ff
    10b0:	0402000a 	streq	r0, [r2], #-10
    10b4:	05052e01 	streq	r2, [r5, #-3585]	; 0xfffff1ff
    10b8:	0e054c06 	cdpeq	12, 0, cr4, cr5, cr6, {0}
    10bc:	09050106 	stmdbeq	r5, {r1, r2, r8}
    10c0:	0605054a 	streq	r0, [r5], -sl, asr #10
    10c4:	01052f2f 	tsteq	r5, pc, lsr #30
    10c8:	1c051306 	stcne	3, cr1, [r5], {6}
    10cc:	01066706 	tsteq	r6, r6, lsl #14
    10d0:	4b060505 	blmi	1824ec <__bss_end__+0x178c94>
    10d4:	0009052f 	andeq	r0, r9, pc, lsr #10
    10d8:	13010402 	movwne	r0, #5122	; 0x1402
    10dc:	02000a05 	andeq	r0, r0, #20480	; 0x5000
    10e0:	05110104 	ldreq	r0, [r1, #-260]	; 0xfffffefc
    10e4:	0402000c 	streq	r0, [r2], #-12
    10e8:	05010601 	streq	r0, [r1, #-1537]	; 0xfffff9ff
    10ec:	0402000a 	streq	r0, [r2], #-10
    10f0:	05052e01 	streq	r2, [r5, #-3585]	; 0xfffff1ff
    10f4:	05674c06 	strbeq	r4, [r7, #-3078]!	; 0xfffff3fa
    10f8:	052f0601 	streq	r0, [pc, #-1537]!	; aff <__code_start__-0x7501>
    10fc:	054c0619 	strbeq	r0, [ip, #-1561]	; 0xfffff9e7
    1100:	2a052e1b 	bcs	14c974 <__bss_end__+0x14311c>
    1104:	0631052e 	ldrteq	r0, [r1], -lr, lsr #10
    1108:	2e420501 	cdpcs	5, 4, cr0, cr2, cr1, {0}
    110c:	31061c05 	tstcc	r6, r5, lsl #24
    1110:	032f0505 			; <UNDEFINED> instruction: 0x032f0505
    1114:	0e052e09 	cdpeq	14, 0, cr2, cr5, cr9, {0}
    1118:	21050106 	tstcs	r5, r6, lsl #2
    111c:	0301054a 	movweq	r0, #5450	; 0x154a
    1120:	1a052e0a 	bne	14c950 <__bss_end__+0x1430f8>
    1124:	09056806 	stmdbeq	r5, {r1, r2, fp, sp, lr}
    1128:	01040200 	mrseq	r0, R12_usr
    112c:	000a0530 	andeq	r0, sl, r0, lsr r5
    1130:	11010402 	tstne	r1, r2, lsl #8
    1134:	02000c05 	andeq	r0, r0, #1280	; 0x500
    1138:	01060104 	tsteq	r6, r4, lsl #2
    113c:	02000a05 	andeq	r0, r0, #20480	; 0x5000
    1140:	052e0104 	streq	r0, [lr, #-260]!	; 0xfffffefc
    1144:	e8030619 	stmda	r3, {r0, r3, r4, r9, sl}
    1148:	0505667e 	streq	r6, [r5, #-1662]	; 0xfffff982
    114c:	672f2f2f 	strvs	r2, [pc, -pc, lsr #30]!
    1150:	2f060105 	svccs	0x00060105
    1154:	01000402 	tsteq	r0, r2, lsl #8
    1158:	0001b701 	andeq	fp, r1, r1, lsl #14
    115c:	cc000300 	stcgt	3, cr0, [r0], {-0}
    1160:	02000000 	andeq	r0, r0, #0, 0
    1164:	0d0efb01 	vstreq	d15, [lr, #-4]
    1168:	01010100 	mrseq	r0, (UNDEF: 17)
    116c:	00000001 	andeq	r0, r0, r1
    1170:	01000001 	tsteq	r0, r1
    1174:	72732f2e 	rsbsvc	r2, r3, #184	; 0xb8
    1178:	552f0063 	strpl	r0, [pc, #-99]!	; 111d <__code_start__-0x6ee3>
    117c:	73726573 	cmnvc	r2, #482344960	; 0x1cc00000
    1180:	6c696d2f 	stclvs	13, cr6, [r9], #-188	; 0xffffff44
    1184:	532f7365 			; <UNDEFINED> instruction: 0x532f7365
    1188:	6372756f 	cmnvs	r2, #465567744	; 0x1bc00000
    118c:	73632f65 	cmnvc	r3, #404	; 0x194
    1190:	6c303432 	cfldrsvs	mvf3, [r0], #-200	; 0xffffff38
    1194:	696c2f78 	stmdbvs	ip!, {r3, r4, r5, r6, r8, r9, sl, fp, sp}^
    1198:	2f697062 	svccs	0x00697062
    119c:	6c636e69 	stclvs	14, cr6, [r3], #-420	; 0xfffffe5c
    11a0:	00656475 	rsbeq	r6, r5, r5, ror r4
    11a4:	74706f2f 	ldrbtvc	r6, [r0], #-3887	; 0xfffff0d1
    11a8:	6d6f682f 	stclvs	8, cr6, [pc, #-188]!	; 10f4 <__code_start__-0x6f0c>
    11ac:	65726265 	ldrbvs	r6, [r2, #-613]!	; 0xfffffd9b
    11b0:	65432f77 	strbvs	r2, [r3, #-3959]	; 0xfffff089
    11b4:	72616c6c 	rsbvc	r6, r1, #108, 24	; 0x6c00
    11b8:	6d72612f 	ldfvse	f6, [r2, #-188]!	; 0xffffff44
    11bc:	6e6f6e2d 	cdpvs	14, 6, cr6, cr15, cr13, {1}
    11c0:	61652d65 	cmnvs	r5, r5, ror #26
    11c4:	742d6962 	strtvc	r6, [sp], #-2402	; 0xfffff69e
    11c8:	2f747365 	svccs	0x00747365
    11cc:	30322d39 	eorscc	r2, r2, r9, lsr sp
    11d0:	34713931 	ldrbtcc	r3, [r1], #-2353	; 0xfffff6cf
    11d4:	3173632d 	cmncc	r3, sp, lsr #6
    11d8:	2f653730 	svccs	0x00653730
    11dc:	2f62696c 	svccs	0x0062696c
    11e0:	2f636367 	svccs	0x00636367
    11e4:	2d6d7261 	sfmcs	f7, 2, [sp, #-388]!	; 0xfffffe7c
    11e8:	656e6f6e 	strbvs	r6, [lr, #-3950]!	; 0xfffff092
    11ec:	6261652d 	rsbvs	r6, r1, #188743680	; 0xb400000
    11f0:	2e392f69 	cdpcs	15, 3, cr2, cr9, cr9, {3}
    11f4:	2f312e32 	svccs	0x00312e32
    11f8:	6c636e69 	stclvs	14, cr6, [r3], #-420	; 0xfffffe5c
    11fc:	00656475 	rsbeq	r6, r5, r5, ror r4
    1200:	69706700 	ldmdbvs	r0!, {r8, r9, sl, sp, lr}^
    1204:	00632e6f 	rsbeq	r2, r3, pc, ror #28
    1208:	72000001 	andvc	r0, r0, #1, 0
    120c:	682e6970 	stmdavs	lr!, {r4, r5, r6, r8, fp, sp, lr}
    1210:	00000200 	andeq	r0, r0, r0, lsl #4
    1214:	69647473 	stmdbvs	r4!, {r0, r1, r4, r5, r6, sl, ip, sp, lr}^
    1218:	672d746e 	strvs	r7, [sp, -lr, ror #8]!
    121c:	682e6363 	stmdavs	lr!, {r0, r1, r5, r6, r8, r9, sp, lr}
    1220:	00000300 	andeq	r0, r0, r0, lsl #6
    1224:	6f697067 	svcvs	0x00697067
    1228:	0200682e 	andeq	r6, r0, #3014656	; 0x2e0000
    122c:	05000000 	streq	r0, [r0, #-0]
    1230:	02050038 	andeq	r0, r5, #56, 0	; 0x38
    1234:	00008f34 	andeq	r8, r0, r4, lsr pc
    1238:	05012703 	streq	r2, [r1, #-1795]	; 0xfffff8fd
    123c:	07051305 	streq	r1, [r5, -r5, lsl #6]
    1240:	38050106 	stmdacc	r5, {r1, r2, r8}
    1244:	06050549 	streq	r0, [r5], -r9, asr #10
    1248:	0607054d 	streq	r0, [r7], -sp, asr #10
    124c:	06050501 	streq	r0, [r5], -r1, lsl #10
    1250:	0618054c 	ldreq	r0, [r8], -ip, asr #10
    1254:	ba0e0501 	blt	382660 <__bss_end__+0x378e08>
    1258:	2f060505 	svccs	0x00060505
    125c:	01061c05 	tsteq	r6, r5, lsl #24
    1260:	2e0e052e 	cfsh32cs	mvfx0, mvfx14, #30
    1264:	30060505 	andcc	r0, r6, r5, lsl #10
    1268:	01061205 	tsteq	r6, r5, lsl #4
    126c:	4b060505 	blmi	182688 <__bss_end__+0x178e30>
    1270:	01060705 	tsteq	r6, r5, lsl #14
    1274:	4b060505 	blmi	182690 <__bss_end__+0x178e38>
    1278:	052e0613 	streq	r0, [lr, #-1555]!	; 0xfffff9ed
    127c:	24054b01 	strcs	r4, [r5], #-2817	; 0xfffff4ff
    1280:	01064c06 	tsteq	r6, r6, lsl #24
    1284:	2f060505 	svccs	0x00060505
    1288:	4b060105 	blmi	1816a4 <__bss_end__+0x177e4c>
    128c:	31062005 	tstcc	r6, r5
    1290:	05130505 	ldreq	r0, [r3, #-1285]	; 0xfffffafb
    1294:	05010607 	streq	r0, [r1, #-1543]	; 0xfffff9f9
    1298:	05054920 	streq	r4, [r5, #-2336]	; 0xfffff6e0
    129c:	66063106 	strvs	r3, [r6], -r6, lsl #2
    12a0:	052f0105 	streq	r0, [pc, #-261]!	; 11a3 <__code_start__-0x6e5d>
    12a4:	054d0621 	strbeq	r0, [sp, #-1569]	; 0xfffff9df
    12a8:	07051305 	streq	r1, [r5, -r5, lsl #6]
    12ac:	21050106 	tstcs	r5, r6, lsl #2
    12b0:	06050549 	streq	r0, [r5], -r9, asr #10
    12b4:	05660631 	strbeq	r0, [r6, #-1585]!	; 0xfffff9cf
    12b8:	23052f01 	movwcs	r2, #24321	; 0x5f01
    12bc:	01064d06 	tsteq	r6, r6, lsl #26
    12c0:	2f060505 	svccs	0x00060505
    12c4:	4b060105 	blmi	1816e0 <__bss_end__+0x177e88>
    12c8:	31062b05 	tstcc	r6, r5, lsl #22
    12cc:	05050106 	streq	r0, [r5, #-262]	; 0xfffffefa
    12d0:	07052f06 	streq	r2, [r5, -r6, lsl #30]
    12d4:	09050106 	stmdbeq	r5, {r1, r2, r8}
    12d8:	2e064b06 	vmlacs.f64	d4, d6, d6
    12dc:	01053006 	tsteq	r5, r6
    12e0:	1d052f06 	stcne	15, cr2, [r5, #-24]	; 0xffffffe8
    12e4:	01063006 	tsteq	r6, r6
    12e8:	2f060505 	svccs	0x00060505
    12ec:	060e0513 			; <UNDEFINED> instruction: 0x060e0513
    12f0:	06050501 	streq	r0, [r5], -r1, lsl #10
    12f4:	0617052f 	ldreq	r0, [r7], -pc, lsr #10
    12f8:	23054a01 	movwcs	r4, #23041	; 0x5a01
    12fc:	0502042e 	streq	r0, [r2, #-1070]	; 0xfffffbd2
    1300:	d9030630 	stmdble	r3, {r4, r5, r9, sl}
    1304:	01042e00 	tsteq	r4, r0, lsl #28
    1308:	03060105 	movweq	r0, #24837	; 0x6105
    130c:	02017fa8 	andeq	r7, r1, #168, 30	; 0x2a0
    1310:	01010006 	tsteq	r1, r6
    1314:	00000098 	muleq	r0, r8, r0
    1318:	005a0003 	subseq	r0, sl, r3
    131c:	01020000 	mrseq	r0, (UNDEF: 2)
    1320:	000d0efb 	strdeq	r0, [sp], -fp
    1324:	01010101 	tsteq	r1, r1, lsl #2
    1328:	01000000 	mrseq	r0, (UNDEF: 0)
    132c:	2e010000 	cdpcs	0, 0, cr0, cr1, cr0, {0}
    1330:	62696c2f 	rsbvs	r6, r9, #12032	; 0x2f00
    1334:	552f0063 	strpl	r0, [pc, #-99]!	; 12d9 <__code_start__-0x6d27>
    1338:	73726573 	cmnvc	r2, #482344960	; 0x1cc00000
    133c:	6c696d2f 	stclvs	13, cr6, [r9], #-188	; 0xffffff44
    1340:	532f7365 			; <UNDEFINED> instruction: 0x532f7365
    1344:	6372756f 	cmnvs	r2, #465567744	; 0x1bc00000
    1348:	73632f65 	cmnvc	r3, #404	; 0x194
    134c:	6c303432 	cfldrsvs	mvf3, [r0], #-200	; 0xffffff38
    1350:	696c2f78 	stmdbvs	ip!, {r3, r4, r5, r6, r8, r9, sl, fp, sp}^
    1354:	2f697062 	svccs	0x00697062
    1358:	6c636e69 	stclvs	14, cr6, [r3], #-420	; 0xfffffe5c
    135c:	00656475 	rsbeq	r6, r5, r5, ror r4
    1360:	74757000 	ldrbtvc	r7, [r5], #-0
    1364:	72616863 	rsbvc	r6, r1, #6488064	; 0x630000
    1368:	0100632e 	tsteq	r0, lr, lsr #6
    136c:	70720000 	rsbsvc	r0, r2, r0
    1370:	00682e69 	rsbeq	r2, r8, r9, ror #28
    1374:	00000002 	andeq	r0, r0, r2
    1378:	05002405 	streq	r2, [r0, #-1029]	; 0xfffffbfb
    137c:	00904002 	addseq	r4, r0, r2
    1380:	01061400 	tsteq	r6, r0, lsl #8
    1384:	4a062605 	bmi	18aba0 <__bss_end__+0x181348>
    1388:	052e3405 	streq	r3, [lr, #-1029]!	; 0xfffffbfb
    138c:	05010601 	streq	r0, [r1, #-1537]	; 0xfffff9ff
    1390:	054f061b 	strbeq	r0, [pc, #-1563]	; d7d <__code_start__-0x7283>
    1394:	11051305 	tstne	r5, r5, lsl #6
    1398:	01050106 	tsteq	r5, r6, lsl #2
    139c:	06230567 	strteq	r0, [r3], -r7, ror #10
    13a0:	13050567 	movwne	r0, #21863	; 0x5567
    13a4:	01061105 	tsteq	r6, r5, lsl #2
    13a8:	024b0105 	subeq	r0, fp, #1073741825	; 0x40000001
    13ac:	01010004 	tsteq	r1, r4
    13b0:	000000e4 	andeq	r0, r0, r4, ror #1
    13b4:	00590003 	subseq	r0, r9, r3
    13b8:	01020000 	mrseq	r0, (UNDEF: 2)
    13bc:	000d0efb 	strdeq	r0, [sp], -fp
    13c0:	01010101 	tsteq	r1, r1, lsl #2
    13c4:	01000000 	mrseq	r0, (UNDEF: 0)
    13c8:	2e010000 	cdpcs	0, 0, cr0, cr1, cr0, {0}
    13cc:	62696c2f 	rsbvs	r6, r9, #12032	; 0x2f00
    13d0:	552f0063 	strpl	r0, [pc, #-99]!	; 1375 <__code_start__-0x6c8b>
    13d4:	73726573 	cmnvc	r2, #482344960	; 0x1cc00000
    13d8:	6c696d2f 	stclvs	13, cr6, [r9], #-188	; 0xffffff44
    13dc:	532f7365 			; <UNDEFINED> instruction: 0x532f7365
    13e0:	6372756f 	cmnvs	r2, #465567744	; 0x1bc00000
    13e4:	73632f65 	cmnvc	r3, #404	; 0x194
    13e8:	6c303432 	cfldrsvs	mvf3, [r0], #-200	; 0xffffff38
    13ec:	696c2f78 	stmdbvs	ip!, {r3, r4, r5, r6, r8, r9, sl, fp, sp}^
    13f0:	2f697062 	svccs	0x00697062
    13f4:	6c636e69 	stclvs	14, cr6, [r3], #-420	; 0xfffffe5c
    13f8:	00656475 	rsbeq	r6, r5, r5, ror r4
    13fc:	72747300 	rsbsvc	r7, r4, #0, 6
    1400:	2e746163 	rpwcssz	f6, f4, f3
    1404:	00010063 	andeq	r0, r1, r3, rrx
    1408:	69707200 	ldmdbvs	r0!, {r9, ip, sp, lr}^
    140c:	0200682e 	andeq	r6, r0, #3014656	; 0x2e0000
    1410:	05000000 	streq	r0, [r0, #-0]
    1414:	0205002c 	andeq	r0, r5, #44, 0	; 0x2c
    1418:	0000907c 	andeq	r9, r0, ip, ror r0
    141c:	13050515 	movwne	r0, #21781	; 0x5515
    1420:	060b0513 			; <UNDEFINED> instruction: 0x060b0513
    1424:	00050511 	andeq	r0, r5, r1, lsl r5
    1428:	06010402 	streq	r0, [r1], -r2, lsl #8
    142c:	04020030 	streq	r0, [r2], #-48	; 0xffffffd0
    1430:	09051501 	stmdbeq	r5, {r0, r8, sl, ip}
    1434:	01040200 	mrseq	r0, R12_usr
    1438:	00100513 	andseq	r0, r0, r3, lsl r5
    143c:	06010402 	streq	r0, [r1], -r2, lsl #8
    1440:	000b052e 	andeq	r0, fp, lr, lsr #10
    1444:	2e010402 	cdpcs	4, 0, cr0, cr1, cr2, {0}
    1448:	01040200 	mrseq	r0, R12_usr
    144c:	05052f06 	streq	r2, [r5, #-3846]	; 0xfffff0fa
    1450:	01040200 	mrseq	r0, R12_usr
    1454:	4e060106 	adfmis	f0, f6, f6
    1458:	01060805 	tsteq	r6, r5, lsl #16
    145c:	02000505 	andeq	r0, r0, #20971520	; 0x1400000
    1460:	2f060104 	svccs	0x00060104
    1464:	02000905 	andeq	r0, r0, #81920	; 0x14000
    1468:	05130104 	ldreq	r0, [r3, #-260]	; 0xfffffefc
    146c:	0402000b 	streq	r0, [r2], #-11
    1470:	05010601 	streq	r0, [r1, #-1537]	; 0xfffff9ff
    1474:	04020009 	streq	r0, [r2], #-9
    1478:	054b0601 	strbeq	r0, [fp, #-1537]	; 0xfffff9ff
    147c:	0402000f 	streq	r0, [r2], #-15
    1480:	05010601 	streq	r0, [r1, #-1537]	; 0xfffff9ff
    1484:	0402000d 	streq	r0, [r2], #-13
    1488:	052f0601 	streq	r0, [pc, #-1537]!	; e8f <__code_start__-0x7171>
    148c:	04020005 	streq	r0, [r2], #-5
    1490:	02010601 	andeq	r0, r1, #1048576	; 0x100000
    1494:	01010006 	tsteq	r1, r6
    1498:	0000009d 	muleq	r0, sp, r0
    149c:	00590003 	subseq	r0, r9, r3
    14a0:	01020000 	mrseq	r0, (UNDEF: 2)
    14a4:	000d0efb 	strdeq	r0, [sp], -fp
    14a8:	01010101 	tsteq	r1, r1, lsl #2
    14ac:	01000000 	mrseq	r0, (UNDEF: 0)
    14b0:	2e010000 	cdpcs	0, 0, cr0, cr1, cr0, {0}
    14b4:	62696c2f 	rsbvs	r6, r9, #12032	; 0x2f00
    14b8:	552f0063 	strpl	r0, [pc, #-99]!	; 145d <__code_start__-0x6ba3>
    14bc:	73726573 	cmnvc	r2, #482344960	; 0x1cc00000
    14c0:	6c696d2f 	stclvs	13, cr6, [r9], #-188	; 0xffffff44
    14c4:	532f7365 			; <UNDEFINED> instruction: 0x532f7365
    14c8:	6372756f 	cmnvs	r2, #465567744	; 0x1bc00000
    14cc:	73632f65 	cmnvc	r3, #404	; 0x194
    14d0:	6c303432 	cfldrsvs	mvf3, [r0], #-200	; 0xffffff38
    14d4:	696c2f78 	stmdbvs	ip!, {r3, r4, r5, r6, r8, r9, sl, fp, sp}^
    14d8:	2f697062 	svccs	0x00697062
    14dc:	6c636e69 	stclvs	14, cr6, [r3], #-420	; 0xfffffe5c
    14e0:	00656475 	rsbeq	r6, r5, r5, ror r4
    14e4:	72747300 	rsbsvc	r7, r4, #0, 6
    14e8:	2e706d63 	cdpcs	13, 7, cr6, cr0, cr3, {3}
    14ec:	00010063 	andeq	r0, r1, r3, rrx
    14f0:	69707200 	ldmdbvs	r0!, {r9, ip, sp, lr}^
    14f4:	0200682e 	andeq	r6, r0, #3014656	; 0x2e0000
    14f8:	05000000 	streq	r0, [r0, #-0]
    14fc:	0205002a 	andeq	r0, r5, #42, 0	; 0x2a
    1500:	000090b0 	strheq	r9, [r0], -r0
    1504:	13090514 	movwne	r0, #38164	; 0x9514
    1508:	05010f05 	streq	r0, [r1, #-3845]	; 0xfffff0fb
    150c:	05010610 	streq	r0, [r1, #-1552]	; 0xfffff9f0
    1510:	1c052e0f 	stcne	14, cr2, [r5], {15}
    1514:	01040200 	mrseq	r0, R12_usr
    1518:	0013054a 	andseq	r0, r3, sl, asr #10
    151c:	2e010402 	cdpcs	4, 0, cr0, cr1, cr2, {0}
    1520:	2f061105 	svccs	0x00061105
    1524:	2e061605 	cfmadd32cs	mvax0, mvfx1, mvfx6, mvfx5
    1528:	0609052e 	streq	r0, [r9], -lr, lsr #10
    152c:	0615052f 	ldreq	r0, [r5], -pc, lsr #10
    1530:	2f010501 	svccs	0x00010501
    1534:	01000402 	tsteq	r0, r2, lsl #8
    1538:	00009b01 	andeq	r9, r0, r1, lsl #22
    153c:	59000300 	stmdbpl	r0, {r8, r9}
    1540:	02000000 	andeq	r0, r0, #0, 0
    1544:	0d0efb01 	vstreq	d15, [lr, #-4]
    1548:	01010100 	mrseq	r0, (UNDEF: 17)
    154c:	00000001 	andeq	r0, r0, r1
    1550:	01000001 	tsteq	r0, r1
    1554:	696c2f2e 	stmdbvs	ip!, {r1, r2, r3, r5, r8, r9, sl, fp, sp}^
    1558:	2f006362 	svccs	0x00006362
    155c:	72657355 	rsbvc	r7, r5, #1409286145	; 0x54000001
    1560:	696d2f73 	stmdbvs	sp!, {r0, r1, r4, r5, r6, r8, r9, sl, fp, sp}^
    1564:	2f73656c 	svccs	0x0073656c
    1568:	72756f53 	rsbsvc	r6, r5, #332	; 0x14c
    156c:	632f6563 			; <UNDEFINED> instruction: 0x632f6563
    1570:	30343273 	eorscc	r3, r4, r3, ror r2
    1574:	6c2f786c 	stcvs	8, cr7, [pc], #-432	; 13cc <__code_start__-0x6c34>
    1578:	69706269 	ldmdbvs	r0!, {r0, r3, r5, r6, r9, sp, lr}^
    157c:	636e692f 	cmnvs	lr, #770048	; 0xbc000
    1580:	6564756c 	strbvs	r7, [r4, #-1388]!	; 0xfffffa94
    1584:	74730000 	ldrbtvc	r0, [r3], #-0
    1588:	79706372 	ldmdbvc	r0!, {r1, r4, r5, r6, r8, r9, sp, lr}^
    158c:	0100632e 	tsteq	r0, lr, lsr #6
    1590:	70720000 	rsbsvc	r0, r2, r0
    1594:	00682e69 	rsbeq	r2, r8, r9, ror #28
    1598:	00000002 	andeq	r0, r0, r2
    159c:	05002a05 	streq	r2, [r0, #-2565]	; 0xfffff5fb
    15a0:	0090dc02 	addseq	sp, r0, r2, lsl #24
    15a4:	05051400 	streq	r1, [r5, #-1024]	; 0xfffffc00
    15a8:	14051313 	strne	r1, [r5], #-787	; 0xfffffced
    15ac:	22051106 	andcs	r1, r5, #-2147483647	; 0x80000001
    15b0:	01040200 	mrseq	r0, R12_usr
    15b4:	0b052f06 	bleq	14d1d4 <__bss_end__+0x14397c>
    15b8:	01040200 	mrseq	r0, R12_usr
    15bc:	00150501 	andseq	r0, r5, r1, lsl #10
    15c0:	06010402 	streq	r0, [r1], -r2, lsl #8
    15c4:	00130501 	andseq	r0, r3, r1, lsl #10
    15c8:	4a010402 	bmi	425d8 <__bss_end__+0x38d80>
    15cc:	02000b05 	andeq	r0, r0, #5120	; 0x1400
    15d0:	024a0104 	subeq	r0, sl, #1
    15d4:	01010006 	tsteq	r1, r6
    15d8:	000000fe 	strdeq	r0, [r0], -lr
    15dc:	00c20003 	sbceq	r0, r2, r3
    15e0:	01020000 	mrseq	r0, (UNDEF: 2)
    15e4:	000d0efb 	strdeq	r0, [sp], -fp
    15e8:	01010101 	tsteq	r1, r1, lsl #2
    15ec:	01000000 	mrseq	r0, (UNDEF: 0)
    15f0:	2e010000 	cdpcs	0, 0, cr0, cr1, cr0, {0}
    15f4:	62696c2f 	rsbvs	r6, r9, #12032	; 0x2f00
    15f8:	552f0063 	strpl	r0, [pc, #-99]!	; 159d <__code_start__-0x6a63>
    15fc:	73726573 	cmnvc	r2, #482344960	; 0x1cc00000
    1600:	6c696d2f 	stclvs	13, cr6, [r9], #-188	; 0xffffff44
    1604:	532f7365 			; <UNDEFINED> instruction: 0x532f7365
    1608:	6372756f 	cmnvs	r2, #465567744	; 0x1bc00000
    160c:	73632f65 	cmnvc	r3, #404	; 0x194
    1610:	6c303432 	cfldrsvs	mvf3, [r0], #-200	; 0xffffff38
    1614:	696c2f78 	stmdbvs	ip!, {r3, r4, r5, r6, r8, r9, sl, fp, sp}^
    1618:	2f697062 	svccs	0x00697062
    161c:	6c636e69 	stclvs	14, cr6, [r3], #-420	; 0xfffffe5c
    1620:	00656475 	rsbeq	r6, r5, r5, ror r4
    1624:	74706f2f 	ldrbtvc	r6, [r0], #-3887	; 0xfffff0d1
    1628:	6d6f682f 	stclvs	8, cr6, [pc, #-188]!	; 1574 <__code_start__-0x6a8c>
    162c:	65726265 	ldrbvs	r6, [r2, #-613]!	; 0xfffffd9b
    1630:	65432f77 	strbvs	r2, [r3, #-3959]	; 0xfffff089
    1634:	72616c6c 	rsbvc	r6, r1, #108, 24	; 0x6c00
    1638:	6d72612f 	ldfvse	f6, [r2, #-188]!	; 0xffffff44
    163c:	6e6f6e2d 	cdpvs	14, 6, cr6, cr15, cr13, {1}
    1640:	61652d65 	cmnvs	r5, r5, ror #26
    1644:	742d6962 	strtvc	r6, [sp], #-2402	; 0xfffff69e
    1648:	2f747365 	svccs	0x00747365
    164c:	30322d39 	eorscc	r2, r2, r9, lsr sp
    1650:	34713931 	ldrbtcc	r3, [r1], #-2353	; 0xfffff6cf
    1654:	3173632d 	cmncc	r3, sp, lsr #6
    1658:	2f653730 	svccs	0x00653730
    165c:	2f62696c 	svccs	0x0062696c
    1660:	2f636367 	svccs	0x00636367
    1664:	2d6d7261 	sfmcs	f7, 2, [sp, #-388]!	; 0xfffffe7c
    1668:	656e6f6e 	strbvs	r6, [lr, #-3950]!	; 0xfffff092
    166c:	6261652d 	rsbvs	r6, r1, #188743680	; 0xb400000
    1670:	2e392f69 	cdpcs	15, 3, cr2, cr9, cr9, {3}
    1674:	2f312e32 	svccs	0x00312e32
    1678:	6c636e69 	stclvs	14, cr6, [r3], #-420	; 0xfffffe5c
    167c:	00656475 	rsbeq	r6, r5, r5, ror r4
    1680:	72747300 	rsbsvc	r7, r4, #0, 6
    1684:	706d636e 	rsbvc	r6, sp, lr, ror #6
    1688:	0100632e 	tsteq	r0, lr, lsr #6
    168c:	70720000 	rsbsvc	r0, r2, r0
    1690:	00682e69 	rsbeq	r2, r8, r9, ror #28
    1694:	73000002 	movwvc	r0, #2
    1698:	65646474 	strbvs	r6, [r4, #-1140]!	; 0xfffffb8c
    169c:	00682e66 	rsbeq	r2, r8, r6, ror #28
    16a0:	00000003 	andeq	r0, r0, r3
    16a4:	05003905 	streq	r3, [r0, #-2309]	; 0xfffff6fb
    16a8:	0090fc02 	addseq	pc, r0, r2, lsl #24
    16ac:	05051500 	streq	r1, [r5, #-1280]	; 0xfffffb00
    16b0:	0a051313 	beq	146304 <__bss_end__+0x13caac>
    16b4:	4a010601 	bmi	42ec0 <__bss_end__+0x39668>
    16b8:	2f060905 	svccs	0x00060905
    16bc:	01060c05 	tsteq	r6, r5, lsl #24
    16c0:	052e1305 	streq	r1, [lr, #-773]!	; 0xfffffcfb
    16c4:	0d052e0b 	stceq	14, cr2, [r5, #-44]	; 0xffffffd4
    16c8:	1b054b06 	blne	1542e8 <__bss_end__+0x14aa90>
    16cc:	052e0106 	streq	r0, [lr, #-262]!	; 0xfffffefa
    16d0:	0105300c 	tsteq	r5, ip
    16d4:	0002022f 	andeq	r0, r2, pc, lsr #4
    16d8:	008a0101 	addeq	r0, sl, r1, lsl #2
    16dc:	00030000 	andeq	r0, r3, r0
    16e0:	0000006e 	andeq	r0, r0, lr, rrx
    16e4:	0efb0102 	cdpeq	1, 15, cr0, cr11, cr2, {0}
    16e8:	0101000d 	tsteq	r1, sp
    16ec:	00000101 	andeq	r0, r0, r1, lsl #2
    16f0:	00000100 	andeq	r0, r0, r0, lsl #2
    16f4:	732f2e01 			; <UNDEFINED> instruction: 0x732f2e01
    16f8:	66666174 			; <UNDEFINED> instruction: 0x66666174
    16fc:	6372732d 	cmnvs	r2, #-1275068416	; 0xb4000000
    1700:	73552f00 	cmpvc	r5, #0, 30
    1704:	2f737265 	svccs	0x00737265
    1708:	656c696d 	strbvs	r6, [ip, #-2413]!	; 0xfffff693
    170c:	6f532f73 	svcvs	0x00532f73
    1710:	65637275 	strbvs	r7, [r3, #-629]!	; 0xfffffd8b
    1714:	3273632f 	rsbscc	r6, r3, #-1140850688	; 0xbc000000
    1718:	786c3034 	stmdavc	ip!, {r2, r4, r5, ip, sp}^
    171c:	62696c2f 	rsbvs	r6, r9, #12032	; 0x2f00
    1720:	692f6970 	stmdbvs	pc!, {r4, r5, r6, r8, fp, sp, lr}	; <UNPREDICTABLE>
    1724:	756c636e 	strbvc	r6, [ip, #-878]!	; 0xfffffc92
    1728:	00006564 	andeq	r6, r0, r4, ror #10
    172c:	61666564 	cmnvs	r6, r4, ror #10
    1730:	2d746c75 	ldclcs	12, cr6, [r4, #-468]!	; 0xfffffe2c
    1734:	6f626572 	svcvs	0x00626572
    1738:	632d746f 			; <UNDEFINED> instruction: 0x632d746f
    173c:	6f6c6c61 	svcvs	0x006c6c61
    1740:	632e7475 			; <UNDEFINED> instruction: 0x632e7475
    1744:	00000100 	andeq	r0, r0, r0, lsl #2
    1748:	2e697072 	mcrcs	0, 3, r7, cr9, cr2, {3}
    174c:	00020068 	andeq	r0, r2, r8, rrx
    1750:	1b050000 	blne	141758 <__bss_end__+0x137f00>
    1754:	28020500 	stmdacs	r2, {r8, sl}
    1758:	14000091 	strne	r0, [r0], #-145	; 0xffffff6f
    175c:	05011c05 	streq	r1, [r1, #-3077]	; 0xfffff3fb
    1760:	02010601 	andeq	r0, r1, #1048576	; 0x100000
    1764:	01010002 	tsteq	r1, r2

Disassembly of section .debug_str:

00000000 <.debug_str>:
   0:	7361656d 	cmnvc	r1, #457179136	; 0x1b400000
   4:	5f657275 	svcpl	0x00657275
   8:	33545550 	cmpcc	r4, #80, 10	; 0x14000000
   c:	656d0032 	strbvs	r0, [sp, #-50]!	; 0xffffffce
  10:	72757361 	rsbsvc	r7, r5, #-2080374783	; 0x84000001
  14:	756e5f65 	strbvc	r5, [lr, #-3941]!	; 0xfffff09b
  18:	2f006c6c 	svccs	0x00006c6c
  1c:	72657355 	rsbvc	r7, r5, #1409286145	; 0x54000001
  20:	696d2f73 	stmdbvs	sp!, {r0, r1, r4, r5, r6, r8, r9, sl, fp, sp}^
  24:	2f73656c 	svccs	0x0073656c
  28:	72756f53 	rsbsvc	r6, r5, #332	; 0x14c
  2c:	632f6563 			; <UNDEFINED> instruction: 0x632f6563
  30:	30343273 	eorscc	r3, r4, r3, ror r2
  34:	6c2f786c 	stcvs	8, cr7, [pc], #-432	; fffffe8c <__bss_end__+0xffff6634>
  38:	2f736261 	svccs	0x00736261
  3c:	69642d33 	stmdbvs	r4!, {r0, r1, r4, r5, r8, sl, fp, sp}^
  40:	61746967 	cmnvs	r4, r7, ror #18
  44:	6e612d6c 	cdpvs	13, 6, cr2, cr1, cr12, {3}
  48:	7a796c61 	bvc	1e5b1d4 <__bss_end__+0x1e5197c>
  4c:	702f7265 	eorvc	r7, pc, r5, ror #4
  50:	616c6572 	smcvs	50770	; 0xc652
  54:	6f6e0062 	svcvs	0x006e0062
  58:	69616d74 	stmdbvs	r1!, {r2, r4, r5, r6, r8, sl, fp, sp, lr}^
  5c:	6e75006e 	cdpvs	0, 7, cr0, cr5, cr14, {3}
  60:	6e676973 			; <UNDEFINED> instruction: 0x6e676973
  64:	63206465 			; <UNDEFINED> instruction: 0x63206465
  68:	00726168 	rsbseq	r6, r2, r8, ror #2
  6c:	61656c63 	cmnvs	r5, r3, ror #24
  70:	65725f6e 	ldrbvs	r5, [r2, #-3950]!	; 0xfffff092
  74:	746f6f62 	strbtvc	r6, [pc], #-3938	; 7c <__code_start__-0x7f84>
  78:	61656d00 	cmnvs	r5, r0, lsl #26
  7c:	65727573 	ldrbvs	r7, [r2, #-1395]!	; 0xfffffa8d
  80:	6f687300 	svcvs	0x00687300
  84:	75207472 	strvc	r7, [r0, #-1138]!	; 0xfffffb8e
  88:	6769736e 	strbvs	r7, [r9, -lr, ror #6]!
  8c:	2064656e 	rsbcs	r6, r4, lr, ror #10
  90:	00746e69 	rsbseq	r6, r4, r9, ror #28
  94:	33747570 	cmncc	r4, #112, 10	; 0x1c000000
  98:	656d0032 	strbvs	r0, [sp, #-50]!	; 0xffffffce
  9c:	72757361 	rsbsvc	r7, r5, #-2080374783	; 0x84000001
  a0:	73615f65 	cmnvc	r1, #404	; 0x194
  a4:	6e676973 			; <UNDEFINED> instruction: 0x6e676973
  a8:	756f5f00 	strbvc	r5, [pc, #-3840]!	; fffff1b0 <__bss_end__+0xffff5958>
  ac:	6f6c0074 	svcvs	0x006c0074
  b0:	6c20676e 	stcvs	7, cr6, [r0], #-440	; 0xfffffe48
  b4:	20676e6f 	rsbcs	r6, r7, pc, ror #28
  b8:	69736e75 	ldmdbvs	r3!, {r0, r2, r4, r5, r6, r9, sl, fp, sp, lr}^
  bc:	64656e67 	strbtvs	r6, [r5], #-3687	; 0xfffff199
  c0:	746e6920 	strbtvc	r6, [lr], #-2336	; 0xfffff6e0
  c4:	6e6f6c00 	cdpvs	12, 6, cr6, cr15, cr0, {0}
  c8:	6f6c2067 	svcvs	0x006c2067
  cc:	6920676e 	stmdbvs	r0!, {r1, r2, r3, r5, r6, r8, r9, sl, sp, lr}
  d0:	7200746e 	andvc	r7, r0, #1845493760	; 0x6e000000
  d4:	705f6970 	subsvc	r6, pc, r0, ror r9	; <UNPREDICTABLE>
  d8:	68637475 	stmdavs	r3!, {r0, r2, r4, r5, r6, sl, ip, sp, lr}^
  dc:	73007261 	movwvc	r7, #609	; 0x261
  e0:	74726f68 	ldrbtvc	r6, [r2], #-3944	; 0xfffff098
  e4:	746e6920 	strbtvc	r6, [lr], #-2336	; 0xfffff6e0
  e8:	616e6500 	cmnvs	lr, r0, lsl #10
  ec:	5f656c62 	svcpl	0x00656c62
  f0:	68636163 	stmdavs	r3!, {r0, r1, r5, r6, r8, sp, lr}^
  f4:	2d310065 	ldccs	0, cr0, [r1, #-404]!	; 0xfffffe6c
  f8:	68636163 	stmdavs	r3!, {r0, r1, r5, r6, r8, sp, lr}^
  fc:	00632e65 	rsbeq	r2, r3, r5, ror #28
 100:	20554e47 	subscs	r4, r5, r7, asr #28
 104:	20393943 	eorscs	r3, r9, r3, asr #18
 108:	2e322e39 	mrccs	14, 1, r2, cr2, cr9, {1}
 10c:	30322031 	eorscc	r2, r2, r1, lsr r0
 110:	30313931 	eorscc	r3, r1, r1, lsr r9
 114:	28203532 	stmdacs	r0!, {r1, r4, r5, r8, sl, ip, sp}
 118:	656c6572 	strbvs	r6, [ip, #-1394]!	; 0xfffffa8e
 11c:	29657361 	stmdbcs	r5!, {r0, r5, r6, r8, r9, ip, sp, lr}^
 120:	52415b20 	subpl	r5, r1, #32, 22	; 0x8000
 124:	72612f4d 	rsbvc	r2, r1, #308	; 0x134
 128:	2d392d6d 	ldccs	13, cr2, [r9, #-436]!	; 0xfffffe4c
 12c:	6e617262 	cdpvs	2, 6, cr7, cr1, cr2, {3}
 130:	72206863 	eorvc	r6, r0, #6488064	; 0x630000
 134:	73697665 	cmnvc	r9, #105906176	; 0x6500000
 138:	206e6f69 	rsbcs	r6, lr, r9, ror #30
 13c:	35373732 	ldrcc	r3, [r7, #-1842]!	; 0xfffff8ce
 140:	205d3939 	subscs	r3, sp, r9, lsr r9
 144:	70636d2d 	rsbvc	r6, r3, sp, lsr #26
 148:	72613d75 	rsbvc	r3, r1, #7488	; 0x1d40
 14c:	3731316d 	ldrcc	r3, [r1, -sp, ror #2]!
 150:	667a6a36 			; <UNDEFINED> instruction: 0x667a6a36
 154:	2d20732d 	stccs	3, cr7, [r0, #-180]!	; 0xffffff4c
 158:	6e75746d 	cdpvs	4, 7, cr7, cr5, cr13, {3}
 15c:	72613d65 	rsbvc	r3, r1, #6464	; 0x1940
 160:	3731316d 	ldrcc	r3, [r1, -sp, ror #2]!
 164:	667a6a36 			; <UNDEFINED> instruction: 0x667a6a36
 168:	2d20732d 	stccs	3, cr7, [r0, #-180]!	; 0xffffff4c
 16c:	6f6c666d 	svcvs	0x006c666d
 170:	612d7461 			; <UNDEFINED> instruction: 0x612d7461
 174:	733d6962 	teqvc	sp, #1605632	; 0x188000
 178:	2074666f 	rsbscs	r6, r4, pc, ror #12
 17c:	72616d2d 	rsbvc	r6, r1, #2880	; 0xb40
 180:	6d2d206d 	stcvs	0, cr2, [sp, #-436]!	; 0xfffffe4c
 184:	68637261 	stmdavs	r3!, {r0, r5, r6, r9, ip, sp, lr}^
 188:	6d72613d 	ldfvse	f6, [r2, #-244]!	; 0xffffff0c
 18c:	7a6b3676 	bvc	1acdb6c <__bss_end__+0x1ac4314>
 190:	67672d20 	strbvs	r2, [r7, -r0, lsr #26]!
 194:	2d206264 	sfmcs	f6, 4, [r0, #-400]!	; 0xfffffe70
 198:	2d20674f 	stccs	7, cr6, [r0, #-316]!	; 0xfffffec4
 19c:	3d647473 	cfstrdcc	mvd7, [r4, #-460]!	; 0xfffffe34
 1a0:	39756e67 	ldmdbcc	r5!, {r0, r1, r2, r5, r6, r9, sl, fp, sp, lr}^
 1a4:	662d2039 			; <UNDEFINED> instruction: 0x662d2039
 1a8:	65657266 	strbvs	r7, [r5, #-614]!	; 0xfffffd9a
 1ac:	6e617473 	mcrvs	4, 3, r7, cr1, cr3, {3}
 1b0:	676e6964 	strbvs	r6, [lr, -r4, ror #18]!
 1b4:	61656d00 	cmnvs	r5, r0, lsl #26
 1b8:	65727573 	ldrbvs	r7, [r2, #-1395]!	; 0xfffffa8d
 1bc:	4c554e5f 	mrrcmi	14, 5, r4, r5, cr15
 1c0:	656d004c 	strbvs	r0, [sp, #-76]!	; 0xffffffb4
 1c4:	72757361 	rsbsvc	r7, r5, #-2080374783	; 0x84000001
 1c8:	6f6e5f65 	svcvs	0x006e5f65
 1cc:	6d003270 	sfmvs	f3, 4, [r0, #-448]	; 0xfffffe40
 1d0:	75736165 	ldrbvc	r6, [r3, #-357]!	; 0xfffffe9b
 1d4:	6e5f6572 	mrcvs	5, 2, r6, cr15, cr2, {3}
 1d8:	0031706f 	eorseq	r7, r1, pc, rrx
 1dc:	7361656d 	cmnvc	r1, #457179136	; 0x1b400000
 1e0:	5f657275 	svcpl	0x00657275
 1e4:	33706f6e 	cmncc	r0, #440	; 0x1b8
 1e8:	61656d00 	cmnvs	r5, r0, lsl #26
 1ec:	65727573 	ldrbvs	r7, [r2, #-1395]!	; 0xfffffa8d
 1f0:	706f6e5f 	rsbvc	r6, pc, pc, asr lr	; <UNPREDICTABLE>
 1f4:	74730034 	ldrbtvc	r0, [r3], #-52	; 0xffffffcc
 1f8:	692d706f 	pushvs	{r0, r1, r2, r3, r5, r6, ip, sp, lr}
 1fc:	6e696c6e 	cdpvs	12, 6, cr6, cr9, cr14, {3}
 200:	00632e65 	rsbeq	r2, r3, r5, ror #28
 204:	7361656d 	cmnvc	r1, #457179136	; 0x1b400000
 208:	5f657275 	svcpl	0x00657275
 20c:	74706d65 	ldrbtvc	r6, [r0], #-3429	; 0xfffff29b
 210:	72610079 	rsbvc	r0, r1, #121, 0	; 0x79
 214:	76007367 	strvc	r7, [r0], -r7, ror #6
 218:	72705f61 	rsbsvc	r5, r0, #388	; 0x184
 21c:	6b746e69 	blvs	1d1bbc8 <__bss_end__+0x1d12370>
 220:	675f5f00 	ldrbvs	r5, [pc, -r0, lsl #30]
 224:	5f63756e 	svcpl	0x0063756e
 228:	6c5f6176 	ldfvse	f6, [pc], {118}	; 0x76
 22c:	00747369 	rsbseq	r7, r4, r9, ror #6
 230:	70615f5f 	rsbvc	r5, r1, pc, asr pc
 234:	6c2f2e00 	stcvs	14, cr2, [pc], #-0	; 23c <__code_start__-0x7dc4>
 238:	2f636269 	svccs	0x00636269
 23c:	6e697270 	mcrvs	2, 3, r7, cr9, cr0, {3}
 240:	632e6b74 			; <UNDEFINED> instruction: 0x632e6b74
 244:	765f5f00 	ldrbvc	r5, [pc], -r0, lsl #30
 248:	696c5f61 	stmdbvs	ip!, {r0, r5, r6, r8, r9, sl, fp, ip, lr}^
 24c:	2f007473 	svccs	0x00007473
 250:	72657355 	rsbvc	r7, r5, #1409286145	; 0x54000001
 254:	696d2f73 	stmdbvs	sp!, {r0, r1, r4, r5, r6, r8, r9, sl, fp, sp}^
 258:	2f73656c 	svccs	0x0073656c
 25c:	72756f53 	rsbsvc	r6, r5, #332	; 0x14c
 260:	632f6563 			; <UNDEFINED> instruction: 0x632f6563
 264:	30343273 	eorscc	r3, r4, r3, ror r2
 268:	6c2f786c 	stcvs	8, cr7, [pc], #-432	; c0 <__code_start__-0x7f40>
 26c:	69706269 	ldmdbvs	r0!, {r0, r3, r5, r6, r9, sp, lr}^
 270:	746e6900 	strbtvc	r6, [lr], #-2304	; 0xfffff700
 274:	616e7265 	cmnvs	lr, r5, ror #4
 278:	75705f6c 	ldrbvc	r5, [r0, #-3948]!	; 0xfffff094
 27c:	2e006b74 	vmovcs.16	d0[1], r6
 280:	62696c2f 	rsbvs	r6, r9, #12032	; 0x2f00
 284:	75702f63 	ldrbvc	r2, [r0, #-3939]!	; 0xfffff09d
 288:	632e6b74 			; <UNDEFINED> instruction: 0x632e6b74
 28c:	64736900 	ldrbtvs	r6, [r3], #-2304	; 0xfffff700
 290:	74696769 	strbtvc	r6, [r9], #-1897	; 0xfffff897
 294:	6e697500 	cdpvs	5, 6, cr7, cr9, cr0, {0}
 298:	5f343674 	svcpl	0x00343674
 29c:	2f2e0074 	svccs	0x002e0074
 2a0:	6362696c 	cmnvs	r2, #108, 18	; 0x1b0000
 2a4:	2d61762f 	stclcs	6, cr7, [r1, #-188]!	; 0xffffff44
 2a8:	6e697270 	mcrvs	2, 3, r7, cr9, cr0, {3}
 2ac:	632e6b74 			; <UNDEFINED> instruction: 0x632e6b74
 2b0:	635f5f00 	cmpvs	pc, #0, 30
 2b4:	5f65646f 	svcpl	0x0065646f
 2b8:	72617473 	rsbvc	r7, r1, #1929379840	; 0x73000000
 2bc:	005f5f74 	subseq	r5, pc, r4, ror pc	; <UNPREDICTABLE>
 2c0:	73625f5f 	cmnvc	r2, #380	; 0x17c
 2c4:	74735f73 	ldrbtvc	r5, [r3], #-3955	; 0xfffff08d
 2c8:	5f747261 	svcpl	0x00747261
 2cc:	6977005f 	ldmdbvs	r7!, {r0, r1, r2, r3, r4, r6}^
 2d0:	00687464 	rsbeq	r7, r8, r4, ror #8
 2d4:	55465f5f 	strbpl	r5, [r6, #-3935]	; 0xfffff0a1
 2d8:	4954434e 	ldmdbmi	r4, {r1, r2, r3, r6, r8, r9, lr}^
 2dc:	5f5f4e4f 	svcpl	0x005f4e4f
 2e0:	645f5f00 	ldrbvs	r5, [pc], #-3840	; 2e8 <__code_start__-0x7d18>
 2e4:	5f617461 	svcpl	0x00617461
 2e8:	5f646e65 	svcpl	0x00646e65
 2ec:	7570005f 	ldrbvc	r0, [r0, #-95]!	; 0xffffffa1
 2f0:	665f6374 			; <UNDEFINED> instruction: 0x665f6374
 2f4:	5f5f0070 	svcpl	0x005f0070
 2f8:	5f737362 	svcpl	0x00737362
 2fc:	5f646e65 	svcpl	0x00646e65
 300:	5f5f005f 	svcpl	0x005f005f
 304:	70616568 	rsbvc	r6, r1, r8, ror #10
 308:	6174735f 	cmnvs	r4, pc, asr r3
 30c:	5f5f7472 	svcpl	0x005f7472
 310:	6e697500 	cdpvs	5, 6, cr7, cr9, cr0, {0}
 314:	5f323374 	svcpl	0x00323374
 318:	70720074 	rsbsvc	r0, r2, r4, ror r0
 31c:	65735f69 	ldrbvs	r5, [r3, #-3945]!	; 0xfffff097
 320:	756f5f74 	strbvc	r5, [pc, #-3956]!	; fffff3b4 <__bss_end__+0xffff5b5c>
 324:	74757074 	ldrbtvc	r7, [r5], #-116	; 0xffffff8c
 328:	746d6600 	strbtvc	r6, [sp], #-1536	; 0xfffffa00
 32c:	6174735f 	cmnvs	r4, pc, asr r3
 330:	73007472 	movwvc	r7, #1138	; 0x472
 334:	61637274 	smcvs	14116	; 0x3724
 338:	74730074 	ldrbtvc	r0, [r3], #-116	; 0xffffff8c
 33c:	79706372 	ldmdbvc	r0!, {r1, r4, r5, r6, r8, r9, sp, lr}^
 340:	67656e00 	strbvs	r6, [r5, -r0, lsl #28]!
 344:	5f00705f 	svcpl	0x0000705f
 348:	646f635f 	strbtvs	r6, [pc], #-863	; 350 <__code_start__-0x7cb0>
 34c:	6e655f65 	cdpvs	15, 6, cr5, cr5, cr5, {3}
 350:	005f5f64 	subseq	r5, pc, r4, ror #30
 354:	74696d65 	strbtvc	r6, [r9], #-3429	; 0xfffff29b
 358:	74757000 	ldrbtvc	r7, [r5], #-0
 35c:	70665f73 	rsbvc	r5, r6, r3, ror pc
 360:	76657200 	strbtvc	r7, [r5], -r0, lsl #4
 364:	65737265 	ldrbvs	r7, [r3, #-613]!	; 0xfffffd9b
 368:	72747300 	rsbsvc	r7, r4, #0, 6
 36c:	00706d63 	rsbseq	r6, r0, r3, ror #26
 370:	61645f5f 	cmnvs	r4, pc, asr pc
 374:	735f6174 	cmpvc	pc, #29
 378:	74726174 	ldrbtvc	r6, [r2], #-372	; 0xfffffe8c
 37c:	5f005f5f 	svcpl	0x00005f5f
 380:	6f72705f 	svcvs	0x0072705f
 384:	6e655f67 	cdpvs	15, 6, cr5, cr5, cr7, {3}
 388:	005f5f64 	subseq	r5, pc, r4, ror #30
 38c:	316d756e 	cmncc	sp, lr, ror #10
 390:	72747300 	rsbsvc	r7, r4, #0, 6
 394:	706d636e 	rsbvc	r6, sp, lr, ror #6
 398:	73616200 	cmnvc	r1, #0, 4
 39c:	69730065 	ldmdbvs	r3!, {r0, r2, r5, r6}^
 3a0:	64656e67 	strbtvs	r6, [r5], #-3687	; 0xfffff199
 3a4:	6400705f 	strvs	r7, [r0], #-95	; 0xffffffa1
 3a8:	62617369 	rsbvs	r7, r1, #-1543503871	; 0xa4000001
 3ac:	635f656c 	cmpvs	pc, #108, 10	; 0x1b000000
 3b0:	65686361 	strbvs	r6, [r8, #-865]!	; 0xfffffc9f
 3b4:	732f2e00 			; <UNDEFINED> instruction: 0x732f2e00
 3b8:	66666174 			; <UNDEFINED> instruction: 0x66666174
 3bc:	6372732d 	cmnvs	r2, #-1275068416	; 0xb4000000
 3c0:	6361632f 	cmnvs	r1, #-1140850688	; 0xbc000000
 3c4:	632e6568 			; <UNDEFINED> instruction: 0x632e6568
 3c8:	69707200 	ldmdbvs	r0!, {r9, ip, sp, lr}^
 3cc:	6265725f 	rsbvs	r7, r5, #-268435451	; 0xf0000005
 3d0:	00746f6f 	rsbseq	r6, r4, pc, ror #30
 3d4:	616c6564 	cmnvs	ip, r4, ror #10
 3d8:	736d5f79 	cmnvc	sp, #484	; 0x1e4
 3dc:	732f2e00 			; <UNDEFINED> instruction: 0x732f2e00
 3e0:	66666174 			; <UNDEFINED> instruction: 0x66666174
 3e4:	6372732d 	cmnvs	r2, #-1275068416	; 0xb4000000
 3e8:	656c632f 	strbvs	r6, [ip, #-815]!	; 0xfffffcd1
 3ec:	722d6e61 	eorvc	r6, sp, #1552	; 0x610
 3f0:	6f6f6265 	svcvs	0x006f6265
 3f4:	00632e74 	rsbeq	r2, r3, r4, ror lr
 3f8:	74726175 	ldrbtvc	r6, [r2], #-373	; 0xfffffe8b
 3fc:	756c665f 	strbvc	r6, [ip, #-1631]!	; 0xfffff9a1
 400:	745f6873 	ldrbvc	r6, [pc], #-2163	; 408 <__code_start__-0x7bf8>
 404:	635f0078 	cmpvs	pc, #120, 0	; 0x78
 408:	72617473 	rsbvc	r7, r1, #1929379840	; 0x73000000
 40c:	73620074 	cmnvc	r2, #116, 0	; 0x74
 410:	6e655f73 	mcrvs	15, 3, r5, cr5, cr3, {3}
 414:	61750064 	cmnvs	r5, r4, rrx
 418:	695f7472 	ldmdbvs	pc, {r1, r4, r5, r6, sl, ip, sp, lr}^	; <UNPREDICTABLE>
 41c:	0074696e 	rsbseq	r6, r4, lr, ror #18
 420:	74737563 	ldrbtvc	r7, [r3], #-1379	; 0xfffffa9d
 424:	6c5f6d6f 	mrrcvs	13, 6, r6, pc, cr15	; <UNPREDICTABLE>
 428:	6564616f 	strbvs	r6, [r4, #-367]!	; 0xfffffe91
 42c:	2f2e0072 	svccs	0x002e0072
 430:	66617473 			; <UNDEFINED> instruction: 0x66617473
 434:	72732d66 	rsbsvc	r2, r3, #6528	; 0x1980
 438:	73632f63 	cmnvc	r3, #396	; 0x18c
 43c:	74726174 	ldrbtvc	r6, [r2], #-372	; 0xfffffe8c
 440:	2e00632e 	cdpcs	3, 0, cr6, cr0, cr14, {1}
 444:	6174732f 	cmnvs	r4, pc, lsr #6
 448:	732d6666 			; <UNDEFINED> instruction: 0x732d6666
 44c:	632f6372 			; <UNDEFINED> instruction: 0x632f6372
 450:	6f747375 	svcvs	0x00747375
 454:	6f6c2d6d 	svcvs	0x006c2d6d
 458:	72656461 	rsbvc	r6, r5, #1627389952	; 0x61000000
 45c:	7200632e 	andvc	r6, r0, #-1207959552	; 0xb8000000
 460:	6f6f6265 	svcvs	0x006f6265
 464:	61635f74 	smcvs	13812	; 0x35f4
 468:	756f6c6c 	strbvc	r6, [pc, #-3180]!	; fffff804 <__bss_end__+0xffff5fac>
 46c:	4d500074 	ldclmi	0, cr0, [r0, #-464]	; 0xfffffe30
 470:	4f44575f 	svcmi	0x0044575f
 474:	65730047 	ldrbvs	r0, [r3, #-71]!	; 0xffffffb9
 478:	73755f74 	cmnvc	r5, #116, 30	; 0x1d0
 47c:	6c5f7265 	lfmvs	f7, 2, [pc], {101}	; 0x65
 480:	6c657665 	stclvs	6, cr7, [r5], #-404	; 0xfffffe6c
 484:	732f2e00 			; <UNDEFINED> instruction: 0x732f2e00
 488:	66666174 			; <UNDEFINED> instruction: 0x66666174
 48c:	6372732d 	cmnvs	r2, #-1275068416	; 0xb4000000
 490:	6265722f 	rsbvs	r7, r5, #-268435454	; 0xf0000002
 494:	2e746f6f 	cdpcs	15, 7, cr6, cr4, cr15, {3}
 498:	4d500063 	ldclmi	0, cr0, [r0, #-396]	; 0xfffffe74
 49c:	5341505f 	movtpl	r5, #4191	; 0x105f
 4a0:	524f5753 	subpl	r5, pc, #21757952	; 0x14c0000
 4a4:	74610044 	strbtvc	r0, [r1], #-68	; 0xffffffbc
 4a8:	6573755f 	ldrbvs	r7, [r3, #-1375]!	; 0xfffffaa1
 4ac:	656c5f72 	strbvs	r5, [ip, #-3954]!	; 0xfffff08e
 4b0:	006c6576 	rsbeq	r6, ip, r6, ror r5
 4b4:	525f4d50 	subspl	r4, pc, #80, 26	; 0x1400
 4b8:	5f435453 	svcpl	0x00435453
 4bc:	46435257 			; <UNDEFINED> instruction: 0x46435257
 4c0:	55465f47 	strbpl	r5, [r6, #-3911]	; 0xfffff0b9
 4c4:	525f4c4c 	subspl	r4, pc, #76, 24	; 0x4c00
 4c8:	54455345 	strbpl	r5, [r5], #-837	; 0xfffffcbb
 4cc:	5f4d5000 	svcpl	0x004d5000
 4d0:	43545352 	cmpmi	r4, #1207959553	; 0x48000001
 4d4:	73706300 	cmnvc	r0, #0, 6
 4d8:	65640072 	strbvs	r0, [r4, #-114]!	; 0xffffff8e
 4dc:	61625f76 	smcvs	9718	; 0x25f6
 4e0:	65697272 	strbvs	r7, [r9, #-626]!	; 0xfffffd8e
 4e4:	65640072 	strbvs	r0, [r4, #-114]!	; 0xffffff8e
 4e8:	5f79616c 	svcpl	0x0079616c
 4ec:	00636573 	rsbeq	r6, r3, r3, ror r5
 4f0:	74732f2e 	ldrbtvc	r2, [r3], #-3886	; 0xfffff0d2
 4f4:	2d666661 	stclcs	6, cr6, [r6, #-388]!	; 0xfffffe7c
 4f8:	2f637273 	svccs	0x00637273
 4fc:	656d6974 	strbvs	r6, [sp, #-2420]!	; 0xfffff68c
 500:	00632e72 	rsbeq	r2, r3, r2, ror lr
 504:	33544547 	cmpcc	r4, #297795584	; 0x11c00000
 508:	69740032 	ldmdbvs	r4!, {r1, r4, r5}^
 50c:	5f72656d 	svcpl	0x0072656d
 510:	5f746567 	svcpl	0x00746567
 514:	63657375 	cmnvs	r5, #-738197503	; 0xd4000001
 518:	6c656400 	cfstrdvs	mvd6, [r5], #-0
 51c:	755f7961 	ldrbvc	r7, [pc, #-2401]	; fffffbc3 <__bss_end__+0xffff636b>
 520:	69740073 	ldmdbvs	r4!, {r0, r1, r4, r5, r6}^
 524:	5f72656d 	svcpl	0x0072656d
 528:	5f746567 	svcpl	0x00746567
 52c:	63657375 	cmnvs	r5, #-738197503	; 0xd4000001
 530:	7761725f 			; <UNDEFINED> instruction: 0x7761725f
 534:	75616200 	strbvc	r6, [r1, #-512]!	; 0xfffffe00
 538:	61765f64 	cmnvs	r6, r4, ror #30
 53c:	7473006c 	ldrbtvc	r0, [r3], #-108	; 0xffffff94
 540:	75007461 	strvc	r7, [r0, #-1121]	; 0xfffffb9f
 544:	5f747261 	svcpl	0x00747261
 548:	5f6e6163 	svcpl	0x006e6163
 54c:	63746567 	cmnvs	r4, #432013312	; 0x19c00000
 550:	49504700 	ldmdbmi	r0, {r8, r9, sl, lr}^
 554:	55465f4f 	strbpl	r5, [r6, #-3919]	; 0xfffff0b1
 558:	4f5f434e 	svcmi	0x005f434e
 55c:	55505455 	ldrbpl	r5, [r0, #-1109]	; 0xfffffbab
 560:	61750054 	cmnvs	r5, r4, asr r0
 564:	632e7472 			; <UNDEFINED> instruction: 0x632e7472
 568:	72617500 	rsbvc	r7, r1, #0, 10
 56c:	61635f74 	smcvs	13812	; 0x35f4
 570:	75705f6e 	ldrbvc	r5, [r0, #-3950]!	; 0xfffff092
 574:	75006374 	strvc	r6, [r0, #-884]	; 0xfffffc8c
 578:	00747261 	rsbseq	r7, r4, r1, ror #4
 57c:	72646461 	rsbvc	r6, r4, #1627389952	; 0x61000000
 580:	72617500 	rsbvc	r7, r1, #0, 10
 584:	78745f74 	ldmdavc	r4!, {r2, r4, r5, r6, r8, r9, sl, fp, ip, lr}^
 588:	5f73695f 	svcpl	0x0073695f
 58c:	74706d65 	ldrbtvc	r6, [r0], #-3429	; 0xfffff29b
 590:	50470079 	subpl	r0, r7, r9, ror r0
 594:	465f4f49 	ldrbmi	r4, [pc], -r9, asr #30
 598:	5f434e55 	svcpl	0x00434e55
 59c:	30544c41 	subscc	r4, r4, r1, asr #24
 5a0:	49504700 	ldmdbmi	r0, {r8, r9, sl, lr}^
 5a4:	55465f4f 	strbpl	r5, [r6, #-3919]	; 0xfffff0b1
 5a8:	415f434e 	cmpmi	pc, lr, asr #6
 5ac:	0031544c 	eorseq	r5, r1, ip, asr #8
 5b0:	4f495047 	svcmi	0x00495047
 5b4:	4e55465f 	mrcmi	6, 2, r4, cr5, cr15, {2}
 5b8:	4c415f43 	mcrrmi	15, 4, r5, r1, cr3
 5bc:	47003254 	smlsdmi	r0, r4, r2, r3
 5c0:	5f4f4950 	svcpl	0x004f4950
 5c4:	434e5546 	movtmi	r5, #58694	; 0xe546
 5c8:	544c415f 	strbpl	r4, [ip], #-351	; 0xfffffea1
 5cc:	50470033 	subpl	r0, r7, r3, lsr r0
 5d0:	465f4f49 	ldrbmi	r4, [pc], -r9, asr #30
 5d4:	5f434e55 	svcpl	0x00434e55
 5d8:	35544c41 	ldrbcc	r4, [r4, #-3137]	; 0xfffff3bf
 5dc:	75616200 	strbvc	r6, [r1, #-512]!	; 0xfffffe00
 5e0:	75610064 	strbvc	r0, [r1, #-100]!	; 0xffffff9c
 5e4:	6e655f78 	mcrvs	15, 3, r5, cr5, cr8, {3}
 5e8:	656c6261 	strbvs	r6, [ip, #-609]!	; 0xfffffd9f
 5ec:	61750073 	cmnvs	r5, r3, ror r0
 5f0:	675f7472 			; <UNDEFINED> instruction: 0x675f7472
 5f4:	00637465 	rsbeq	r7, r3, r5, ror #8
 5f8:	20554e47 	subscs	r4, r5, r7, asr #28
 5fc:	20393943 	eorscs	r3, r9, r3, asr #18
 600:	332e3031 			; <UNDEFINED> instruction: 0x332e3031
 604:	3220312e 	eorcc	r3, r0, #-2147483637	; 0x8000000b
 608:	30313230 	eorscc	r3, r1, r0, lsr r2
 60c:	20343238 	eorscs	r3, r4, r8, lsr r2
 610:	6c657228 	sfmvs	f7, 2, [r5], #-160	; 0xffffff60
 614:	65736165 	ldrbvs	r6, [r3, #-357]!	; 0xfffffe9b
 618:	6d2d2029 	stcvs	0, cr2, [sp, #-164]!	; 0xffffff5c
 61c:	3d757063 	ldclcc	0, cr7, [r5, #-396]!	; 0xfffffe74
 620:	316d7261 	cmncc	sp, r1, ror #4
 624:	6a363731 	bvs	d8e2f0 <__bss_end__+0xd84a98>
 628:	732d667a 			; <UNDEFINED> instruction: 0x732d667a
 62c:	746d2d20 	strbtvc	r2, [sp], #-3360	; 0xfffff2e0
 630:	3d656e75 	stclcc	14, cr6, [r5, #-468]!	; 0xfffffe2c
 634:	316d7261 	cmncc	sp, r1, ror #4
 638:	6a363731 	bvs	d8e304 <__bss_end__+0xd84aac>
 63c:	732d667a 			; <UNDEFINED> instruction: 0x732d667a
 640:	666d2d20 	strbtvs	r2, [sp], -r0, lsr #26
 644:	74616f6c 	strbtvc	r6, [r1], #-3948	; 0xfffff094
 648:	6962612d 	stmdbvs	r2!, {r0, r2, r3, r5, r8, sp, lr}^
 64c:	666f733d 			; <UNDEFINED> instruction: 0x666f733d
 650:	6d2d2074 	stcvs	0, cr2, [sp, #-464]!	; 0xfffffe30
 654:	206d7261 	rsbcs	r7, sp, r1, ror #4
 658:	72616d2d 	rsbvc	r6, r1, #2880	; 0xb40
 65c:	613d6863 	teqvs	sp, r3, ror #16
 660:	36766d72 			; <UNDEFINED> instruction: 0x36766d72
 664:	2d207a6b 	vstmdbcs	r0!, {s14-s120}
 668:	62646767 	rsbvs	r6, r4, #27000832	; 0x19c0000
 66c:	674f2d20 	strbvs	r2, [pc, -r0, lsr #26]
 670:	74732d20 	ldrbtvc	r2, [r3], #-3360	; 0xfffff2e0
 674:	6e673d64 	cdpvs	13, 6, cr3, cr7, cr4, {3}
 678:	20393975 	eorscs	r3, r9, r5, ror r9
 67c:	7266662d 	rsbvc	r6, r6, #47185920	; 0x2d00000
 680:	74736565 	ldrbtvc	r6, [r3], #-1381	; 0xfffffa9b
 684:	69646e61 	stmdbvs	r4!, {r0, r5, r6, r9, sl, fp, sp, lr}^
 688:	6300676e 	movwvs	r6, #1902	; 0x76e
 68c:	006c746e 	rsbeq	r7, ip, lr, ror #8
 690:	74726175 	ldrbtvc	r6, [r2], #-373	; 0xfffffe8b
 694:	7369645f 	cmnvc	r9, #1593835520	; 0x5f000000
 698:	656c6261 	strbvs	r6, [ip, #-609]!	; 0xfffffd9f
 69c:	72617500 	rsbvc	r7, r1, #0, 10
 6a0:	61685f74 	smcvs	34292	; 0x85f4
 6a4:	61645f73 	smcvs	17907	; 0x45f3
 6a8:	47006174 	smlsdxmi	r0, r4, r1, r6
 6ac:	5f4f4950 	svcpl	0x004f4950
 6b0:	434e5546 	movtmi	r5, #58694	; 0xe546
 6b4:	544c415f 	strbpl	r4, [ip], #-351	; 0xfffffea1
 6b8:	726f0034 	rsbvc	r0, pc, #52, 0	; 0x34
 6bc:	336e695f 	cmncc	lr, #1556480	; 0x17c000
 6c0:	63730032 	cmnvs	r3, #50, 0	; 0x32
 6c4:	63746172 	cmnvs	r4, #-2147483620	; 0x8000001c
 6c8:	75610068 	strbvc	r0, [r1, #-104]!	; 0xffffff98
 6cc:	65705f78 	ldrbvs	r5, [r0, #-3960]!	; 0xfffff088
 6d0:	68706972 	ldmdavs	r0!, {r1, r4, r5, r6, r8, fp, sp, lr}^
 6d4:	682f0073 	stmdavs	pc!, {r0, r1, r4, r5, r6}	; <UNPREDICTABLE>
 6d8:	2f656d6f 	svccs	0x00656d6f
 6dc:	6c676e65 	stclvs	14, cr6, [r7], #-404	; 0xfffffe6c
 6e0:	632f7265 			; <UNDEFINED> instruction: 0x632f7265
 6e4:	7373616c 	cmnvc	r3, #27
 6e8:	3173632f 	cmncc	r3, pc, lsr #6
 6ec:	2d653034 	stclcs	0, cr3, [r5, #-208]!	; 0xffffff30
 6f0:	69773232 	ldmdbvs	r7!, {r1, r4, r5, r9, ip, sp}^
 6f4:	696c2f6e 	stmdbvs	ip!, {r1, r2, r3, r5, r6, r8, r9, sl, fp, sp}^
 6f8:	2f697062 	svccs	0x00697062
 6fc:	66617473 			; <UNDEFINED> instruction: 0x66617473
 700:	72702d66 	rsbsvc	r2, r0, #6528	; 0x1980
 704:	74617669 	strbtvc	r7, [r1], #-1641	; 0xfffff997
 708:	6e610065 	cdpvs	0, 6, cr0, cr1, cr5, {3}
 70c:	6e695f64 	cdpvs	15, 6, cr5, cr9, cr4, {3}
 710:	75003233 	strvc	r3, [r0, #-563]	; 0xfffffdcd
 714:	5f747261 	svcpl	0x00747261
 718:	63747570 	cmnvs	r4, #112, 10	; 0x1c000000
 71c:	49504700 	ldmdbmi	r0, {r8, r9, sl, lr}^
 720:	55465f4f 	strbpl	r5, [r6, #-3919]	; 0xfffff0b1
 724:	495f434e 	ldmdbmi	pc, {r1, r2, r3, r6, r8, r9, lr}^	; <UNPREDICTABLE>
 728:	5455504e 	ldrbpl	r5, [r5], #-78	; 0xffffffb2
 72c:	69706700 	ldmdbvs	r0!, {r8, r9, sl, sp, lr}^
 730:	65735f6f 	ldrbvs	r5, [r3, #-3951]!	; 0xfffff091
 734:	75665f74 	strbvc	r5, [r6, #-3956]!	; 0xfffff08c
 738:	6974636e 	ldmdbvs	r4!, {r1, r2, r3, r5, r6, r8, r9, sp, lr}^
 73c:	67006e6f 	strvs	r6, [r0, -pc, ror #28]
 740:	32337465 	eorscc	r7, r3, #1694498816	; 0x65000000
 744:	69706700 	ldmdbvs	r0!, {r8, r9, sl, sp, lr}^
 748:	6c635f6f 	stclvs	15, cr5, [r3], #-444	; 0xfffffe44
 74c:	67003072 	smlsdxvs	r0, r2, r0, r3
 750:	5f6f6970 	svcpl	0x006f6970
 754:	30746573 	rsbscc	r6, r4, r3, ror r5
 758:	69706700 	ldmdbvs	r0!, {r8, r9, sl, sp, lr}^
 75c:	72775f6f 	rsbsvc	r5, r7, #444	; 0x1bc
 760:	00657469 	rsbeq	r7, r5, r9, ror #8
 764:	5f564544 	svcpl	0x00564544
 768:	334c4156 	movtcc	r4, #49494	; 0xc156
 76c:	70670032 	rsbvc	r0, r7, r2, lsr r0
 770:	725f6f69 	subsvc	r6, pc, #420	; 0x1a4
 774:	00646165 	rsbeq	r6, r4, r5, ror #2
 778:	72732f2e 	rsbsvc	r2, r3, #184	; 0xb8
 77c:	70672f63 	rsbvc	r2, r7, r3, ror #30
 780:	632e6f69 			; <UNDEFINED> instruction: 0x632e6f69
 784:	69706700 	ldmdbvs	r0!, {r8, r9, sl, sp, lr}^
 788:	65735f6f 	ldrbvs	r5, [r3, #-3951]!	; 0xfffff091
 78c:	6e695f74 	mcrvs	15, 3, r5, cr9, cr4, {3}
 790:	00747570 	rsbseq	r7, r4, r0, ror r5
 794:	6f697067 	svcvs	0x00697067
 798:	7465735f 	strbtvc	r7, [r5], #-863	; 0xfffffca1
 79c:	66666f5f 	uqsaxvs	r6, r6, pc	; <UNPREDICTABLE>
 7a0:	69706700 	ldmdbvs	r0!, {r8, r9, sl, sp, lr}^
 7a4:	65735f6f 	ldrbvs	r5, [r3, #-3951]!	; 0xfffff091
 7a8:	756f5f74 	strbvc	r5, [pc, #-3956]!	; fffff83c <__bss_end__+0xffff5fe4>
 7ac:	74757074 	ldrbtvc	r7, [r5], #-116	; 0xffffff8c
 7b0:	6e756600 	cdpvs	6, 7, cr6, cr5, cr0, {0}
 7b4:	70670063 	rsbvc	r0, r7, r3, rrx
 7b8:	665f6f69 	ldrbvs	r6, [pc], -r9, ror #30
 7bc:	5f636e75 	svcpl	0x00636e75
 7c0:	70670074 	rsbvc	r0, r7, r4, ror r0
 7c4:	6c5f6f69 	mrrcvs	15, 6, r6, pc, cr9	; <UNPREDICTABLE>
 7c8:	00307665 	eorseq	r7, r0, r5, ror #12
 7cc:	6b6e6162 	blvs	1b98d5c <__bss_end__+0x1b8f504>
 7d0:	69706700 	ldmdbvs	r0!, {r8, r9, sl, sp, lr}^
 7d4:	65735f6f 	ldrbvs	r5, [r3, #-3951]!	; 0xfffff091
 7d8:	6e6f5f74 	mcrvs	15, 3, r5, cr15, cr4, {3}
 7dc:	746e6900 	strbtvc	r6, [lr], #-2304	; 0xfffff700
 7e0:	616e7265 	cmnvs	lr, r5, ror #4
 7e4:	75705f6c 	ldrbvc	r5, [r0, #-3948]!	; 0xfffff094
 7e8:	61686374 	smcvs	34356	; 0x8634
 7ec:	70720072 	rsbsvc	r0, r2, r2, ror r0
 7f0:	65735f69 	ldrbvs	r5, [r3, #-3945]!	; 0xfffff097
 7f4:	75705f74 	ldrbvc	r5, [r0, #-3956]!	; 0xfffff08c
 7f8:	2e006374 	mcrcs	3, 0, r6, cr0, cr4, {3}
 7fc:	62696c2f 	rsbvs	r6, r9, #12032	; 0x2f00
 800:	75702f63 	ldrbvc	r2, [r0, #-3939]!	; 0xfffff09d
 804:	61686374 	smcvs	34356	; 0x8634
 808:	00632e72 	rsbeq	r2, r3, r2, ror lr
 80c:	5f697072 	svcpl	0x00697072
 810:	65736572 	ldrbvs	r6, [r3, #-1394]!	; 0xfffffa8e
 814:	75705f74 	ldrbvc	r5, [r0, #-3956]!	; 0xfffff08c
 818:	64006374 	strvs	r6, [r0], #-884	; 0xfffffc8c
 81c:	00747365 	rsbseq	r7, r4, r5, ror #6
 820:	696c2f2e 	stmdbvs	ip!, {r1, r2, r3, r5, r8, r9, sl, fp, sp}^
 824:	732f6362 			; <UNDEFINED> instruction: 0x732f6362
 828:	61637274 	smcvs	14116	; 0x3724
 82c:	00632e74 	rsbeq	r2, r3, r4, ror lr
 830:	696c2f2e 	stmdbvs	ip!, {r1, r2, r3, r5, r8, r9, sl, fp, sp}^
 834:	732f6362 			; <UNDEFINED> instruction: 0x732f6362
 838:	6d637274 	sfmvs	f7, 2, [r3, #-464]!	; 0xfffffe30
 83c:	00632e70 	rsbeq	r2, r3, r0, ror lr
 840:	696c2f2e 	stmdbvs	ip!, {r1, r2, r3, r5, r8, r9, sl, fp, sp}^
 844:	732f6362 			; <UNDEFINED> instruction: 0x732f6362
 848:	70637274 	rsbvc	r7, r3, r4, ror r2
 84c:	00632e79 	rsbeq	r2, r3, r9, ror lr
 850:	657a6973 	ldrbvs	r6, [sl, #-2419]!	; 0xfffff68d
 854:	2e00745f 	cfmvsrcs	mvf0, r7
 858:	62696c2f 	rsbvs	r6, r9, #12032	; 0x2f00
 85c:	74732f63 	ldrbtvc	r2, [r3], #-3939	; 0xfffff09d
 860:	6d636e72 	stclvs	14, cr6, [r3, #-456]!	; 0xfffffe38
 864:	00632e70 	rsbeq	r2, r3, r0, ror lr
 868:	74732f2e 	ldrbtvc	r2, [r3], #-3886	; 0xfffff0d2
 86c:	2d666661 	stclcs	6, cr6, [r6, #-388]!	; 0xfffffe7c
 870:	2f637273 	svccs	0x00637273
 874:	61666564 	cmnvs	r6, r4, ror #10
 878:	2d746c75 	ldclcs	12, cr6, [r4, #-468]!	; 0xfffffe2c
 87c:	6f626572 	svcvs	0x00626572
 880:	632d746f 			; <UNDEFINED> instruction: 0x632d746f
 884:	6f6c6c61 	svcvs	0x006c6c61
 888:	632e7475 			; <UNDEFINED> instruction: 0x632e7475
	...

Disassembly of section .debug_frame:

00000000 <.debug_frame>:
   0:	0000000c 	andeq	r0, r0, ip
   4:	ffffffff 			; <UNDEFINED> instruction: 0xffffffff
   8:	7c020001 	stcvc	0, cr0, [r2], {1}
   c:	000d0c0e 	andeq	r0, sp, lr, lsl #24
  10:	0000000c 	andeq	r0, r0, ip
  14:	00000000 	andeq	r0, r0, r0
  18:	00008038 	andeq	r8, r0, r8, lsr r0
  1c:	00000018 	andeq	r0, r0, r8, lsl r0
  20:	00000020 	andeq	r0, r0, r0, lsr #32
  24:	00000000 	andeq	r0, r0, r0
  28:	00008050 	andeq	r8, r0, r0, asr r0
  2c:	00000298 	muleq	r0, r8, r2
  30:	84200e42 	strthi	r0, [r0], #-3650	; 0xfffff1be
  34:	86078508 	strhi	r8, [r7], -r8, lsl #10
  38:	88058706 	stmdahi	r5, {r1, r2, r8, r9, sl, pc}
  3c:	8a038904 	bhi	e2454 <__bss_end__+0xd8bfc>
  40:	00018e02 	andeq	r8, r1, r2, lsl #28
  44:	00000014 	andeq	r0, r0, r4, lsl r0
  48:	00000000 	andeq	r0, r0, r0
  4c:	000082e8 	andeq	r8, r0, r8, ror #5
  50:	0000002c 	andeq	r0, r0, ip, lsr #32
  54:	84080e42 	strhi	r0, [r8], #-3650	; 0xfffff1be
  58:	00018e02 	andeq	r8, r1, r2, lsl #28
  5c:	0000000c 	andeq	r0, r0, ip
  60:	ffffffff 			; <UNDEFINED> instruction: 0xffffffff
  64:	7c020001 	stcvc	0, cr0, [r2], {1}
  68:	000d0c0e 	andeq	r0, sp, lr, lsl #24
  6c:	0000000c 	andeq	r0, r0, ip
  70:	0000005c 	andeq	r0, r0, ip, asr r0
  74:	00008314 	andeq	r8, r0, r4, lsl r3
  78:	00000018 	andeq	r0, r0, r8, lsl r0
  7c:	0000000c 	andeq	r0, r0, ip
  80:	0000005c 	andeq	r0, r0, ip, asr r0
  84:	0000832c 	andeq	r8, r0, ip, lsr #6
  88:	00000020 	andeq	r0, r0, r0, lsr #32
  8c:	00000014 	andeq	r0, r0, r4, lsl r0
  90:	0000005c 	andeq	r0, r0, ip, asr r0
  94:	0000834c 	andeq	r8, r0, ip, asr #6
  98:	00000024 	andeq	r0, r0, r4, lsr #32
  9c:	84080e42 	strhi	r0, [r8], #-3650	; 0xfffff1be
  a0:	00018e02 	andeq	r8, r1, r2, lsl #28
  a4:	0000000c 	andeq	r0, r0, ip
  a8:	0000005c 	andeq	r0, r0, ip, asr r0
  ac:	00008370 	andeq	r8, r0, r0, ror r3
  b0:	00000010 	andeq	r0, r0, r0, lsl r0
  b4:	0000000c 	andeq	r0, r0, ip
  b8:	0000005c 	andeq	r0, r0, ip, asr r0
  bc:	00008380 	andeq	r8, r0, r0, lsl #7
  c0:	00000014 	andeq	r0, r0, r4, lsl r0
  c4:	0000000c 	andeq	r0, r0, ip
  c8:	0000005c 	andeq	r0, r0, ip, asr r0
  cc:	00008394 	muleq	r0, r4, r3
  d0:	00000018 	andeq	r0, r0, r8, lsl r0
  d4:	0000000c 	andeq	r0, r0, ip
  d8:	0000005c 	andeq	r0, r0, ip, asr r0
  dc:	000083ac 	andeq	r8, r0, ip, lsr #7
  e0:	0000001c 	andeq	r0, r0, ip, lsl r0
  e4:	0000000c 	andeq	r0, r0, ip
  e8:	0000005c 	andeq	r0, r0, ip, asr r0
  ec:	000083c8 	andeq	r8, r0, r8, asr #7
  f0:	00000020 	andeq	r0, r0, r0, lsr #32
  f4:	0000000c 	andeq	r0, r0, ip
  f8:	ffffffff 			; <UNDEFINED> instruction: 0xffffffff
  fc:	7c020001 	stcvc	0, cr0, [r2], {1}
 100:	000d0c0e 	andeq	r0, sp, lr, lsl #24
 104:	00000034 	andeq	r0, r0, r4, lsr r0
 108:	000000f4 	strdeq	r0, [r0], -r4
 10c:	000083e8 	andeq	r8, r0, r8, ror #7
 110:	00000058 	andeq	r0, r0, r8, asr r0
 114:	80100e42 	andshi	r0, r0, r2, asr #28
 118:	82038104 	andhi	r8, r3, #1
 11c:	42018302 	andmi	r8, r1, #134217728	; 0x8000000
 120:	07841c0e 	streq	r1, [r4, lr, lsl #24]
 124:	058e0685 	streq	r0, [lr, #1669]	; 0x685
 128:	5c280e42 	stcpl	14, cr0, [r8], #-264	; 0xfffffef8
 12c:	ce421c0e 	cdpgt	12, 4, cr1, cr2, cr14, {0}
 130:	100ec4c5 	andne	ip, lr, r5, asr #9
 134:	c1c2c342 	bicgt	ip, r2, r2, asr #6
 138:	00000ec0 	andeq	r0, r0, r0, asr #29
 13c:	0000000c 	andeq	r0, r0, ip
 140:	ffffffff 			; <UNDEFINED> instruction: 0xffffffff
 144:	7c020001 	stcvc	0, cr0, [r2], {1}
 148:	000d0c0e 	andeq	r0, sp, lr, lsl #24
 14c:	00000014 	andeq	r0, r0, r4, lsl r0
 150:	0000013c 	andeq	r0, r0, ip, lsr r1
 154:	00008440 	andeq	r8, r0, r0, asr #8
 158:	00000034 	andeq	r0, r0, r4, lsr r0
 15c:	84080e42 	strhi	r0, [r8], #-3650	; 0xfffff1be
 160:	00018e02 	andeq	r8, r1, r2, lsl #28
 164:	0000000c 	andeq	r0, r0, ip
 168:	ffffffff 			; <UNDEFINED> instruction: 0xffffffff
 16c:	7c020001 	stcvc	0, cr0, [r2], {1}
 170:	000d0c0e 	andeq	r0, sp, lr, lsl #24
 174:	0000000c 	andeq	r0, r0, ip
 178:	00000164 	andeq	r0, r0, r4, ror #2
 17c:	00008474 	andeq	r8, r0, r4, ror r4
 180:	00000014 	andeq	r0, r0, r4, lsl r0
 184:	0000000c 	andeq	r0, r0, ip
 188:	00000164 	andeq	r0, r0, r4, ror #2
 18c:	00008488 	andeq	r8, r0, r8, lsl #9
 190:	00000024 	andeq	r0, r0, r4, lsr #32
 194:	0000000c 	andeq	r0, r0, ip
 198:	00000164 	andeq	r0, r0, r4, ror #2
 19c:	000084ac 	andeq	r8, r0, ip, lsr #9
 1a0:	00000038 	andeq	r0, r0, r8, lsr r0
 1a4:	00000024 	andeq	r0, r0, r4, lsr #32
 1a8:	00000164 	andeq	r0, r0, r4, ror #2
 1ac:	000084e4 	andeq	r8, r0, r4, ror #9
 1b0:	000001b4 			; <UNDEFINED> instruction: 0x000001b4
 1b4:	84140e42 	ldrhi	r0, [r4], #-3650	; 0xfffff1be
 1b8:	86048505 	strhi	r8, [r4], -r5, lsl #10
 1bc:	8e028703 	cdphi	7, 0, cr8, cr2, cr3, {0}
 1c0:	600e4201 	andvs	r4, lr, r1, lsl #4
 1c4:	0e0a9a02 	vmlaeq.f32	s18, s20, s4
 1c8:	000b4214 	andeq	r4, fp, r4, lsl r2
 1cc:	00000014 	andeq	r0, r0, r4, lsl r0
 1d0:	00000164 	andeq	r0, r0, r4, ror #2
 1d4:	00008698 	muleq	r0, r8, r6
 1d8:	00000064 	andeq	r0, r0, r4, rrx
 1dc:	8e040e54 	mcrhi	14, 0, r0, cr4, cr4, {2}
 1e0:	100e4201 	andne	r4, lr, r1, lsl #4
 1e4:	0000002c 	andeq	r0, r0, ip, lsr #32
 1e8:	00000164 	andeq	r0, r0, r4, ror #2
 1ec:	000086fc 	strdeq	r8, [r0], -ip
 1f0:	000004b8 			; <UNDEFINED> instruction: 0x000004b8
 1f4:	84240e42 	strthi	r0, [r4], #-3650	; 0xfffff1be
 1f8:	86088509 	strhi	r8, [r8], -r9, lsl #10
 1fc:	88068707 	stmdahi	r6, {r0, r1, r2, r8, r9, sl, pc}
 200:	8a048905 	bhi	12261c <__bss_end__+0x118dc4>
 204:	8e028b03 	vmlahi.f64	d8, d2, d3
 208:	b80e4201 	stmdalt	lr, {r0, r9, lr}
 20c:	02380302 	eorseq	r0, r8, #134217728	; 0x8000000
 210:	0000240e 	andeq	r2, r0, lr, lsl #8
 214:	0000000c 	andeq	r0, r0, ip
 218:	ffffffff 			; <UNDEFINED> instruction: 0xffffffff
 21c:	7c020001 	stcvc	0, cr0, [r2], {1}
 220:	000d0c0e 	andeq	r0, sp, lr, lsl #24
 224:	0000000c 	andeq	r0, r0, ip
 228:	00000214 	andeq	r0, r0, r4, lsl r2
 22c:	00008bb4 			; <UNDEFINED> instruction: 0x00008bb4
 230:	00000010 	andeq	r0, r0, r0, lsl r0
 234:	0000000c 	andeq	r0, r0, ip
 238:	00000214 	andeq	r0, r0, r4, lsl r2
 23c:	00008bc4 	andeq	r8, r0, r4, asr #23
 240:	00000010 	andeq	r0, r0, r0, lsl r0
 244:	0000000c 	andeq	r0, r0, ip
 248:	ffffffff 			; <UNDEFINED> instruction: 0xffffffff
 24c:	7c020001 	stcvc	0, cr0, [r2], {1}
 250:	000d0c0e 	andeq	r0, sp, lr, lsl #24
 254:	00000014 	andeq	r0, r0, r4, lsl r0
 258:	00000244 	andeq	r0, r0, r4, asr #4
 25c:	00008bd4 	ldrdeq	r8, [r0], -r4
 260:	0000002c 	andeq	r0, r0, ip, lsr #32
 264:	84080e42 	strhi	r0, [r8], #-3650	; 0xfffff1be
 268:	00018e02 	andeq	r8, r1, r2, lsl #28
 26c:	0000000c 	andeq	r0, r0, ip
 270:	ffffffff 			; <UNDEFINED> instruction: 0xffffffff
 274:	7c020001 	stcvc	0, cr0, [r2], {1}
 278:	000d0c0e 	andeq	r0, sp, lr, lsl #24
 27c:	00000014 	andeq	r0, r0, r4, lsl r0
 280:	0000026c 	andeq	r0, r0, ip, ror #4
 284:	00008c00 	andeq	r8, r0, r0, lsl #24
 288:	0000003c 	andeq	r0, r0, ip, lsr r0
 28c:	84080e42 	strhi	r0, [r8], #-3650	; 0xfffff1be
 290:	00018e02 	andeq	r8, r1, r2, lsl #28
 294:	0000000c 	andeq	r0, r0, ip
 298:	ffffffff 			; <UNDEFINED> instruction: 0xffffffff
 29c:	7c020001 	stcvc	0, cr0, [r2], {1}
 2a0:	000d0c0e 	andeq	r0, sp, lr, lsl #24
 2a4:	0000000c 	andeq	r0, r0, ip
 2a8:	00000294 	muleq	r0, r4, r2
 2ac:	00008c3c 	andeq	r8, r0, ip, lsr ip
 2b0:	00000004 	andeq	r0, r0, r4
 2b4:	0000000c 	andeq	r0, r0, ip
 2b8:	ffffffff 			; <UNDEFINED> instruction: 0xffffffff
 2bc:	7c020001 	stcvc	0, cr0, [r2], {1}
 2c0:	000d0c0e 	andeq	r0, sp, lr, lsl #24
 2c4:	0000000c 	andeq	r0, r0, ip
 2c8:	000002b4 			; <UNDEFINED> instruction: 0x000002b4
 2cc:	00008c40 	andeq	r8, r0, r0, asr #24
 2d0:	00000018 	andeq	r0, r0, r8, lsl r0
 2d4:	0000000c 	andeq	r0, r0, ip
 2d8:	000002b4 			; <UNDEFINED> instruction: 0x000002b4
 2dc:	00008c58 	andeq	r8, r0, r8, asr ip
 2e0:	00000014 	andeq	r0, r0, r4, lsl r0
 2e4:	00000014 	andeq	r0, r0, r4, lsl r0
 2e8:	000002b4 			; <UNDEFINED> instruction: 0x000002b4
 2ec:	00008c6c 	andeq	r8, r0, ip, ror #24
 2f0:	00000054 	andeq	r0, r0, r4, asr r0
 2f4:	84080e42 	strhi	r0, [r8], #-3650	; 0xfffff1be
 2f8:	00018e02 	andeq	r8, r1, r2, lsl #28
 2fc:	0000000c 	andeq	r0, r0, ip
 300:	ffffffff 			; <UNDEFINED> instruction: 0xffffffff
 304:	7c020001 	stcvc	0, cr0, [r2], {1}
 308:	000d0c0e 	andeq	r0, sp, lr, lsl #24
 30c:	00000014 	andeq	r0, r0, r4, lsl r0
 310:	000002fc 	strdeq	r0, [r0], -ip
 314:	00008cc0 	andeq	r8, r0, r0, asr #25
 318:	00000014 	andeq	r0, r0, r4, lsl r0
 31c:	84080e42 	strhi	r0, [r8], #-3650	; 0xfffff1be
 320:	00018e02 	andeq	r8, r1, r2, lsl #28
 324:	00000014 	andeq	r0, r0, r4, lsl r0
 328:	000002fc 	strdeq	r0, [r0], -ip
 32c:	00008cd4 	ldrdeq	r8, [r0], -r4
 330:	0000001c 	andeq	r0, r0, ip, lsl r0
 334:	84080e42 	strhi	r0, [r8], #-3650	; 0xfffff1be
 338:	00018e02 	andeq	r8, r1, r2, lsl #28
 33c:	00000018 	andeq	r0, r0, r8, lsl r0
 340:	000002fc 	strdeq	r0, [r0], -ip
 344:	00008cf0 	strdeq	r8, [r0], -r0
 348:	00000024 	andeq	r0, r0, r4, lsr #32
 34c:	84100e42 	ldrhi	r0, [r0], #-3650	; 0xfffff1be
 350:	86038504 	strhi	r8, [r3], -r4, lsl #10
 354:	00018e02 	andeq	r8, r1, r2, lsl #28
 358:	00000014 	andeq	r0, r0, r4, lsl r0
 35c:	000002fc 	strdeq	r0, [r0], -ip
 360:	00008d14 	andeq	r8, r0, r4, lsl sp
 364:	00000018 	andeq	r0, r0, r8, lsl r0
 368:	84080e42 	strhi	r0, [r8], #-3650	; 0xfffff1be
 36c:	00018e02 	andeq	r8, r1, r2, lsl #28
 370:	00000014 	andeq	r0, r0, r4, lsl r0
 374:	000002fc 	strdeq	r0, [r0], -ip
 378:	00008d2c 	andeq	r8, r0, ip, lsr #26
 37c:	00000018 	andeq	r0, r0, r8, lsl r0
 380:	84080e42 	strhi	r0, [r8], #-3650	; 0xfffff1be
 384:	00018e02 	andeq	r8, r1, r2, lsl #28
 388:	0000000c 	andeq	r0, r0, ip
 38c:	ffffffff 			; <UNDEFINED> instruction: 0xffffffff
 390:	7c020001 	stcvc	0, cr0, [r2], {1}
 394:	000d0c0e 	andeq	r0, sp, lr, lsl #24
 398:	00000018 	andeq	r0, r0, r8, lsl r0
 39c:	00000388 	andeq	r0, r0, r8, lsl #7
 3a0:	00008d44 	andeq	r8, r0, r4, asr #26
 3a4:	00000020 	andeq	r0, r0, r0, lsr #32
 3a8:	84100e42 	ldrhi	r0, [r0], #-3650	; 0xfffff1be
 3ac:	86038504 	strhi	r8, [r3], -r4, lsl #10
 3b0:	00018e02 	andeq	r8, r1, r2, lsl #28
 3b4:	00000018 	andeq	r0, r0, r8, lsl r0
 3b8:	00000388 	andeq	r0, r0, r8, lsl #7
 3bc:	00008d64 	andeq	r8, r0, r4, ror #26
 3c0:	00000020 	andeq	r0, r0, r0, lsr #32
 3c4:	84100e42 	ldrhi	r0, [r0], #-3650	; 0xfffff1be
 3c8:	86038504 	strhi	r8, [r3], -r4, lsl #10
 3cc:	00018e02 	andeq	r8, r1, r2, lsl #28
 3d0:	00000014 	andeq	r0, r0, r4, lsl r0
 3d4:	00000388 	andeq	r0, r0, r8, lsl #7
 3d8:	00008d84 	andeq	r8, r0, r4, lsl #27
 3dc:	000000b0 	strheq	r0, [r0], -r0	; <UNPREDICTABLE>
 3e0:	84080e42 	strhi	r0, [r8], #-3650	; 0xfffff1be
 3e4:	00018e02 	andeq	r8, r1, r2, lsl #28
 3e8:	00000014 	andeq	r0, r0, r4, lsl r0
 3ec:	00000388 	andeq	r0, r0, r8, lsl #7
 3f0:	00008e34 	andeq	r8, r0, r4, lsr lr
 3f4:	00000018 	andeq	r0, r0, r8, lsl r0
 3f8:	84080e42 	strhi	r0, [r8], #-3650	; 0xfffff1be
 3fc:	00018e02 	andeq	r8, r1, r2, lsl #28
 400:	00000014 	andeq	r0, r0, r4, lsl r0
 404:	00000388 	andeq	r0, r0, r8, lsl #7
 408:	00008e4c 	andeq	r8, r0, ip, asr #28
 40c:	00000020 	andeq	r0, r0, r0, lsr #32
 410:	84080e42 	strhi	r0, [r8], #-3650	; 0xfffff1be
 414:	00018e02 	andeq	r8, r1, r2, lsl #28
 418:	00000014 	andeq	r0, r0, r4, lsl r0
 41c:	00000388 	andeq	r0, r0, r8, lsl #7
 420:	00008e6c 	andeq	r8, r0, ip, ror #28
 424:	00000030 	andeq	r0, r0, r0, lsr r0
 428:	84080e42 	strhi	r0, [r8], #-3650	; 0xfffff1be
 42c:	00018e02 	andeq	r8, r1, r2, lsl #28
 430:	00000014 	andeq	r0, r0, r4, lsl r0
 434:	00000388 	andeq	r0, r0, r8, lsl #7
 438:	00008e9c 	muleq	r0, ip, lr
 43c:	00000030 	andeq	r0, r0, r0, lsr r0
 440:	84080e42 	strhi	r0, [r8], #-3650	; 0xfffff1be
 444:	00018e02 	andeq	r8, r1, r2, lsl #28
 448:	00000014 	andeq	r0, r0, r4, lsl r0
 44c:	00000388 	andeq	r0, r0, r8, lsl #7
 450:	00008ecc 	andeq	r8, r0, ip, asr #29
 454:	00000010 	andeq	r0, r0, r0, lsl r0
 458:	84080e42 	strhi	r0, [r8], #-3650	; 0xfffff1be
 45c:	00018e02 	andeq	r8, r1, r2, lsl #28
 460:	00000014 	andeq	r0, r0, r4, lsl r0
 464:	00000388 	andeq	r0, r0, r8, lsl #7
 468:	00008edc 	ldrdeq	r8, [r0], -ip
 46c:	00000020 	andeq	r0, r0, r0, lsr #32
 470:	84080e42 	strhi	r0, [r8], #-3650	; 0xfffff1be
 474:	00018e02 	andeq	r8, r1, r2, lsl #28
 478:	00000014 	andeq	r0, r0, r4, lsl r0
 47c:	00000388 	andeq	r0, r0, r8, lsl #7
 480:	00008efc 	strdeq	r8, [r0], -ip
 484:	00000014 	andeq	r0, r0, r4, lsl r0
 488:	84080e42 	strhi	r0, [r8], #-3650	; 0xfffff1be
 48c:	00018e02 	andeq	r8, r1, r2, lsl #28
 490:	00000014 	andeq	r0, r0, r4, lsl r0
 494:	00000388 	andeq	r0, r0, r8, lsl #7
 498:	00008f10 	andeq	r8, r0, r0, lsl pc
 49c:	00000024 	andeq	r0, r0, r4, lsr #32
 4a0:	84080e42 	strhi	r0, [r8], #-3650	; 0xfffff1be
 4a4:	00018e02 	andeq	r8, r1, r2, lsl #28
 4a8:	0000000c 	andeq	r0, r0, ip
 4ac:	ffffffff 			; <UNDEFINED> instruction: 0xffffffff
 4b0:	7c020001 	stcvc	0, cr0, [r2], {1}
 4b4:	000d0c0e 	andeq	r0, sp, lr, lsl #24
 4b8:	00000018 	andeq	r0, r0, r8, lsl r0
 4bc:	000004a8 	andeq	r0, r0, r8, lsr #9
 4c0:	00008f34 	andeq	r8, r0, r4, lsr pc
 4c4:	00000064 	andeq	r0, r0, r4, rrx
 4c8:	84100e46 	ldrhi	r0, [r0], #-3654	; 0xfffff1ba
 4cc:	86038504 	strhi	r8, [r3], -r4, lsl #10
 4d0:	00018e02 	andeq	r8, r1, r2, lsl #28
 4d4:	00000014 	andeq	r0, r0, r4, lsl r0
 4d8:	000004a8 	andeq	r0, r0, r8, lsr #9
 4dc:	00008f98 	muleq	r0, r8, pc	; <UNPREDICTABLE>
 4e0:	00000010 	andeq	r0, r0, r0, lsl r0
 4e4:	84080e42 	strhi	r0, [r8], #-3650	; 0xfffff1be
 4e8:	00018e02 	andeq	r8, r1, r2, lsl #28
 4ec:	00000014 	andeq	r0, r0, r4, lsl r0
 4f0:	000004a8 	andeq	r0, r0, r8, lsr #9
 4f4:	00008fa8 	andeq	r8, r0, r8, lsr #31
 4f8:	00000024 	andeq	r0, r0, r4, lsr #32
 4fc:	84080e46 	strhi	r0, [r8], #-3654	; 0xfffff1ba
 500:	00018e02 	andeq	r8, r1, r2, lsl #28
 504:	00000014 	andeq	r0, r0, r4, lsl r0
 508:	000004a8 	andeq	r0, r0, r8, lsr #9
 50c:	00008fcc 	andeq	r8, r0, ip, asr #31
 510:	00000024 	andeq	r0, r0, r4, lsr #32
 514:	84080e46 	strhi	r0, [r8], #-3654	; 0xfffff1ba
 518:	00018e02 	andeq	r8, r1, r2, lsl #28
 51c:	00000014 	andeq	r0, r0, r4, lsl r0
 520:	000004a8 	andeq	r0, r0, r8, lsr #9
 524:	00008ff0 	strdeq	r8, [r0], -r0
 528:	00000010 	andeq	r0, r0, r0, lsl r0
 52c:	84080e42 	strhi	r0, [r8], #-3650	; 0xfffff1be
 530:	00018e02 	andeq	r8, r1, r2, lsl #28
 534:	00000014 	andeq	r0, r0, r4, lsl r0
 538:	000004a8 	andeq	r0, r0, r8, lsr #9
 53c:	00009000 	andeq	r9, r0, r0
 540:	0000001c 	andeq	r0, r0, ip, lsl r0
 544:	84080e42 	strhi	r0, [r8], #-3650	; 0xfffff1be
 548:	00018e02 	andeq	r8, r1, r2, lsl #28
 54c:	00000014 	andeq	r0, r0, r4, lsl r0
 550:	000004a8 	andeq	r0, r0, r8, lsr #9
 554:	0000901c 	andeq	r9, r0, ip, lsl r0
 558:	00000024 	andeq	r0, r0, r4, lsr #32
 55c:	84080e42 	strhi	r0, [r8], #-3650	; 0xfffff1be
 560:	00018e02 	andeq	r8, r1, r2, lsl #28
 564:	0000000c 	andeq	r0, r0, ip
 568:	ffffffff 			; <UNDEFINED> instruction: 0xffffffff
 56c:	7c020001 	stcvc	0, cr0, [r2], {1}
 570:	000d0c0e 	andeq	r0, sp, lr, lsl #24
 574:	00000014 	andeq	r0, r0, r4, lsl r0
 578:	00000564 	andeq	r0, r0, r4, ror #10
 57c:	00009040 	andeq	r9, r0, r0, asr #32
 580:	00000014 	andeq	r0, r0, r4, lsl r0
 584:	84080e42 	strhi	r0, [r8], #-3650	; 0xfffff1be
 588:	00018e02 	andeq	r8, r1, r2, lsl #28
 58c:	0000000c 	andeq	r0, r0, ip
 590:	00000564 	andeq	r0, r0, r4, ror #10
 594:	00009054 	andeq	r9, r0, r4, asr r0
 598:	00000018 	andeq	r0, r0, r8, lsl r0
 59c:	0000000c 	andeq	r0, r0, ip
 5a0:	00000564 	andeq	r0, r0, r4, ror #10
 5a4:	0000906c 	andeq	r9, r0, ip, rrx
 5a8:	00000010 	andeq	r0, r0, r0, lsl r0
 5ac:	0000000c 	andeq	r0, r0, ip
 5b0:	ffffffff 			; <UNDEFINED> instruction: 0xffffffff
 5b4:	7c020001 	stcvc	0, cr0, [r2], {1}
 5b8:	000d0c0e 	andeq	r0, sp, lr, lsl #24
 5bc:	0000000c 	andeq	r0, r0, ip
 5c0:	000005ac 	andeq	r0, r0, ip, lsr #11
 5c4:	0000907c 	andeq	r9, r0, ip, ror r0
 5c8:	00000034 	andeq	r0, r0, r4, lsr r0
 5cc:	0000000c 	andeq	r0, r0, ip
 5d0:	ffffffff 			; <UNDEFINED> instruction: 0xffffffff
 5d4:	7c020001 	stcvc	0, cr0, [r2], {1}
 5d8:	000d0c0e 	andeq	r0, sp, lr, lsl #24
 5dc:	0000000c 	andeq	r0, r0, ip
 5e0:	000005cc 	andeq	r0, r0, ip, asr #11
 5e4:	000090b0 	strheq	r9, [r0], -r0
 5e8:	0000002c 	andeq	r0, r0, ip, lsr #32
 5ec:	0000000c 	andeq	r0, r0, ip
 5f0:	ffffffff 			; <UNDEFINED> instruction: 0xffffffff
 5f4:	7c020001 	stcvc	0, cr0, [r2], {1}
 5f8:	000d0c0e 	andeq	r0, sp, lr, lsl #24
 5fc:	0000000c 	andeq	r0, r0, ip
 600:	000005ec 	andeq	r0, r0, ip, ror #11
 604:	000090dc 	ldrdeq	r9, [r0], -ip
 608:	00000020 	andeq	r0, r0, r0, lsr #32
 60c:	0000000c 	andeq	r0, r0, ip
 610:	ffffffff 			; <UNDEFINED> instruction: 0xffffffff
 614:	7c020001 	stcvc	0, cr0, [r2], {1}
 618:	000d0c0e 	andeq	r0, sp, lr, lsl #24
 61c:	0000000c 	andeq	r0, r0, ip
 620:	0000060c 	andeq	r0, r0, ip, lsl #12
 624:	000090fc 	strdeq	r9, [r0], -ip
 628:	0000002c 	andeq	r0, r0, ip, lsr #32
 62c:	0000000c 	andeq	r0, r0, ip
 630:	ffffffff 			; <UNDEFINED> instruction: 0xffffffff
 634:	7c020001 	stcvc	0, cr0, [r2], {1}
 638:	000d0c0e 	andeq	r0, sp, lr, lsl #24
 63c:	0000000c 	andeq	r0, r0, ip
 640:	0000062c 	andeq	r0, r0, ip, lsr #12
 644:	00009128 	andeq	r9, r0, r8, lsr #2
 648:	00000004 	andeq	r0, r0, r4

Disassembly of section .debug_ranges:

00000000 <.debug_ranges>:
   0:	00008bb4 			; <UNDEFINED> instruction: 0x00008bb4
   4:	00008bd4 	ldrdeq	r8, [r0], -r4
	...
  10:	00008c40 	andeq	r8, r0, r0, asr #24
  14:	00008cc0 	andeq	r8, r0, r0, asr #25
	...
  20:	000090fc 	strdeq	r9, [r0], -ip
  24:	00009128 	andeq	r9, r0, r8, lsr #2
	...
