
0-test-malloc.elf:     file format elf32-littlearm


Disassembly of section .text:

00008000 <__code_start__>:
    8000:	e3a00013 	mov	r0, #19, 0
    8004:	e3800080 	orr	r0, r0, #128, 0	; 0x80
    8008:	e129f000 	msr	CPSR_fc, r0
    800c:	e3a01000 	mov	r1, #0, 0
    8010:	ee071f95 	mcr	15, 0, r1, cr7, cr5, {4}
    8014:	e3a0d302 	mov	sp, #134217728	; 0x8000000
    8018:	e3a0b000 	mov	fp, #0, 0
    801c:	eb000343 	bl	8d30 <_cstart>
    8020:	eb00038c 	bl	8e58 <rpi_reboot>

00008024 <PUT32>:
    8024:	e5801000 	str	r1, [r0]
    8028:	e12fff1e 	bx	lr

0000802c <GET32>:
    802c:	e5900000 	ldr	r0, [r0]
    8030:	e12fff1e 	bx	lr

00008034 <BRANCHTO>:
    8034:	e12fff10 	bx	r0

00008038 <notmain>:
    8038:	e92d4070 	push	{r4, r5, r6, lr}
    803c:	e24dd008 	sub	sp, sp, #8, 0
    8040:	e3a00001 	mov	r0, #1, 0
    8044:	eb00006f 	bl	8208 <kr_malloc>
    8048:	e1a06000 	mov	r6, r0
    804c:	e3a05000 	mov	r5, #0, 0
    8050:	e3550009 	cmp	r5, #9, 0
    8054:	8a00001d 	bhi	80d0 <notmain+0x98>
    8058:	e3a00001 	mov	r0, #1, 0
    805c:	eb000069 	bl	8208 <kr_malloc>
    8060:	e1a04000 	mov	r4, r0
    8064:	e3a00001 	mov	r0, #1, 0
    8068:	eb000066 	bl	8208 <kr_malloc>
    806c:	e1a01000 	mov	r1, r0
    8070:	e0442006 	sub	r2, r4, r6
    8074:	e59f0070 	ldr	r0, [pc, #112]	; 80ec <notmain+0xb4>
    8078:	eb000090 	bl	82c0 <printk>
    807c:	e1a00004 	mov	r0, r4
    8080:	eb000020 	bl	8108 <kr_free>
    8084:	e3a00001 	mov	r0, #1, 0
    8088:	eb00005e 	bl	8208 <kr_malloc>
    808c:	e1540000 	cmp	r4, r0
    8090:	1a000007 	bne	80b4 <notmain+0x7c>
    8094:	e59f0054 	ldr	r0, [pc, #84]	; 80f0 <notmain+0xb8>
    8098:	eb000088 	bl	82c0 <printk>
    809c:	e1a01005 	mov	r1, r5
    80a0:	e59f004c 	ldr	r0, [pc, #76]	; 80f4 <notmain+0xbc>
    80a4:	eb000085 	bl	82c0 <printk>
    80a8:	e2855001 	add	r5, r5, #1, 0
    80ac:	e1a06004 	mov	r6, r4
    80b0:	eaffffe6 	b	8050 <notmain+0x18>
    80b4:	e58d4000 	str	r4, [sp]
    80b8:	e3a03012 	mov	r3, #18, 0
    80bc:	e59f2034 	ldr	r2, [pc, #52]	; 80f8 <notmain+0xc0>
    80c0:	e59f1034 	ldr	r1, [pc, #52]	; 80fc <notmain+0xc4>
    80c4:	e59f0034 	ldr	r0, [pc, #52]	; 8100 <notmain+0xc8>
    80c8:	eb00007c 	bl	82c0 <printk>
    80cc:	eb00030c 	bl	8d04 <clean_reboot>
    80d0:	e59f0018 	ldr	r0, [pc, #24]	; 80f0 <notmain+0xb8>
    80d4:	eb000079 	bl	82c0 <printk>
    80d8:	e3a0100a 	mov	r1, #10, 0
    80dc:	e59f0020 	ldr	r0, [pc, #32]	; 8104 <notmain+0xcc>
    80e0:	eb000076 	bl	82c0 <printk>
    80e4:	e28dd008 	add	sp, sp, #8, 0
    80e8:	e8bd8070 	pop	{r4, r5, r6, pc}
    80ec:	00009898 	muleq	r0, r8, r8
    80f0:	000098f8 	strdeq	r9, [r0], -r8
    80f4:	00009900 	andeq	r9, r0, r0, lsl #18
    80f8:	00009964 	andeq	r9, r0, r4, ror #18
    80fc:	000098b0 			; <UNDEFINED> instruction: 0x000098b0
    8100:	000098c0 	andeq	r9, r0, r0, asr #17
    8104:	00009930 	andeq	r9, r0, r0, lsr r9

00008108 <kr_free>:
    8108:	e52de004 	push	{lr}		; (str lr, [sp, #-4]!)
    810c:	e2401008 	sub	r1, r0, #8, 0
    8110:	e59f30a8 	ldr	r3, [pc, #168]	; 81c0 <kr_free+0xb8>
    8114:	e5933000 	ldr	r3, [r3]
    8118:	ea000000 	b	8120 <kr_free+0x18>
    811c:	e1a03002 	mov	r3, r2
    8120:	e1530001 	cmp	r3, r1
    8124:	2a000002 	bcs	8134 <kr_free+0x2c>
    8128:	e5932000 	ldr	r2, [r3]
    812c:	e1520001 	cmp	r2, r1
    8130:	8a000007 	bhi	8154 <kr_free+0x4c>
    8134:	e5932000 	ldr	r2, [r3]
    8138:	e1520003 	cmp	r2, r3
    813c:	8afffff6 	bhi	811c <kr_free+0x14>
    8140:	e1530001 	cmp	r3, r1
    8144:	3a000002 	bcc	8154 <kr_free+0x4c>
    8148:	e1520001 	cmp	r2, r1
    814c:	91a03002 	movls	r3, r2
    8150:	9afffff2 	bls	8120 <kr_free+0x18>
    8154:	e510c004 	ldr	ip, [r0, #-4]
    8158:	e081e18c 	add	lr, r1, ip, lsl #3
    815c:	e5932000 	ldr	r2, [r3]
    8160:	e15e0002 	cmp	lr, r2
    8164:	0a000008 	beq	818c <kr_free+0x84>
    8168:	e5002008 	str	r2, [r0, #-8]
    816c:	e5932004 	ldr	r2, [r3, #4]
    8170:	e083c182 	add	ip, r3, r2, lsl #3
    8174:	e15c0001 	cmp	ip, r1
    8178:	0a00000a 	beq	81a8 <kr_free+0xa0>
    817c:	e5831000 	str	r1, [r3]
    8180:	e59f2038 	ldr	r2, [pc, #56]	; 81c0 <kr_free+0xb8>
    8184:	e5823000 	str	r3, [r2]
    8188:	e49df004 	pop	{pc}		; (ldr pc, [sp], #4)
    818c:	e5922004 	ldr	r2, [r2, #4]
    8190:	e08cc002 	add	ip, ip, r2
    8194:	e500c004 	str	ip, [r0, #-4]
    8198:	e5932000 	ldr	r2, [r3]
    819c:	e5922000 	ldr	r2, [r2]
    81a0:	e5002008 	str	r2, [r0, #-8]
    81a4:	eafffff0 	b	816c <kr_free+0x64>
    81a8:	e5101004 	ldr	r1, [r0, #-4]
    81ac:	e0822001 	add	r2, r2, r1
    81b0:	e5832004 	str	r2, [r3, #4]
    81b4:	e5102008 	ldr	r2, [r0, #-8]
    81b8:	e5832000 	str	r2, [r3]
    81bc:	eaffffef 	b	8180 <kr_free+0x78>
    81c0:	00009d08 	andeq	r9, r0, r8, lsl #26

000081c4 <morecore>:
    81c4:	e92d4010 	push	{r4, lr}
    81c8:	e1a04000 	mov	r4, r0
    81cc:	e3500b01 	cmp	r0, #1024	; 0x400
    81d0:	33a04b01 	movcc	r4, #1024	; 0x400
    81d4:	e1a00184 	lsl	r0, r4, #3
    81d8:	eb000035 	bl	82b4 <sbrk>
    81dc:	e3700001 	cmn	r0, #1, 0
    81e0:	0a000005 	beq	81fc <morecore+0x38>
    81e4:	e5804004 	str	r4, [r0, #4]
    81e8:	e2800008 	add	r0, r0, #8, 0
    81ec:	ebffffc5 	bl	8108 <kr_free>
    81f0:	e59f300c 	ldr	r3, [pc, #12]	; 8204 <morecore+0x40>
    81f4:	e5930000 	ldr	r0, [r3]
    81f8:	e8bd8010 	pop	{r4, pc}
    81fc:	e3a00000 	mov	r0, #0, 0
    8200:	e8bd8010 	pop	{r4, pc}
    8204:	00009d08 	andeq	r9, r0, r8, lsl #26

00008208 <kr_malloc>:
    8208:	e92d4010 	push	{r4, lr}
    820c:	e2804007 	add	r4, r0, #7, 0
    8210:	e1a041a4 	lsr	r4, r4, #3
    8214:	e2844001 	add	r4, r4, #1, 0
    8218:	e59f3090 	ldr	r3, [pc, #144]	; 82b0 <kr_malloc+0xa8>
    821c:	e5932000 	ldr	r2, [r3]
    8220:	e3520000 	cmp	r2, #0, 0
    8224:	0a000001 	beq	8230 <kr_malloc+0x28>
    8228:	e5920000 	ldr	r0, [r2]
    822c:	ea000013 	b	8280 <kr_malloc+0x78>
    8230:	e2832008 	add	r2, r3, #8, 0
    8234:	e5832000 	str	r2, [r3]
    8238:	e5832008 	str	r2, [r3, #8]
    823c:	e3a01000 	mov	r1, #0, 0
    8240:	e583100c 	str	r1, [r3, #12]
    8244:	eafffff7 	b	8228 <kr_malloc+0x20>
    8248:	0a000007 	beq	826c <kr_malloc+0x64>
    824c:	e0433004 	sub	r3, r3, r4
    8250:	e5803004 	str	r3, [r0, #4]
    8254:	e0800183 	add	r0, r0, r3, lsl #3
    8258:	e5804004 	str	r4, [r0, #4]
    825c:	e59f304c 	ldr	r3, [pc, #76]	; 82b0 <kr_malloc+0xa8>
    8260:	e5832000 	str	r2, [r3]
    8264:	e2800008 	add	r0, r0, #8, 0
    8268:	e8bd8010 	pop	{r4, pc}
    826c:	e5903000 	ldr	r3, [r0]
    8270:	e5823000 	str	r3, [r2]
    8274:	eafffff8 	b	825c <kr_malloc+0x54>
    8278:	e1a02000 	mov	r2, r0
    827c:	e5900000 	ldr	r0, [r0]
    8280:	e5903004 	ldr	r3, [r0, #4]
    8284:	e1530004 	cmp	r3, r4
    8288:	2affffee 	bcs	8248 <kr_malloc+0x40>
    828c:	e59f301c 	ldr	r3, [pc, #28]	; 82b0 <kr_malloc+0xa8>
    8290:	e5933000 	ldr	r3, [r3]
    8294:	e1530000 	cmp	r3, r0
    8298:	1afffff6 	bne	8278 <kr_malloc+0x70>
    829c:	e1a00004 	mov	r0, r4
    82a0:	ebffffc7 	bl	81c4 <morecore>
    82a4:	e3500000 	cmp	r0, #0, 0
    82a8:	1afffff2 	bne	8278 <kr_malloc+0x70>
    82ac:	e8bd8010 	pop	{r4, pc}
    82b0:	00009d08 	andeq	r9, r0, r8, lsl #26

000082b4 <sbrk>:
    82b4:	e92d4010 	push	{r4, lr}
    82b8:	eb000430 	bl	9380 <kmalloc>
    82bc:	e8bd8010 	pop	{r4, pc}

000082c0 <printk>:
    82c0:	e92d000f 	push	{r0, r1, r2, r3}
    82c4:	e92d4030 	push	{r4, r5, lr}
    82c8:	e59f5040 	ldr	r5, [pc, #64]	; 8310 <printk+0x50>
    82cc:	e24dd00c 	sub	sp, sp, #12, 0
    82d0:	e28d301c 	add	r3, sp, #28, 0
    82d4:	e3a01b01 	mov	r1, #1024	; 0x400
    82d8:	e59d2018 	ldr	r2, [sp, #24]
    82dc:	e1a00005 	mov	r0, r5
    82e0:	e58d3004 	str	r3, [sp, #4]
    82e4:	eb0000fb 	bl	86d8 <va_printk>
    82e8:	e1a04000 	mov	r4, r0
    82ec:	e59f3020 	ldr	r3, [pc, #32]	; 8314 <printk+0x54>
    82f0:	e1a00005 	mov	r0, r5
    82f4:	e5933000 	ldr	r3, [r3]
    82f8:	e12fff33 	blx	r3
    82fc:	e1a00004 	mov	r0, r4
    8300:	e28dd00c 	add	sp, sp, #12, 0
    8304:	e8bd4030 	pop	{r4, r5, lr}
    8308:	e28dd010 	add	sp, sp, #16, 0
    830c:	e12fff1e 	bx	lr
    8310:	00009d18 	andeq	r9, r0, r8, lsl sp
    8314:	00009cf0 	strdeq	r9, [r0], -r0

00008318 <internal_putk>:
    8318:	e92d4070 	push	{r4, r5, r6, lr}
    831c:	e1a04000 	mov	r4, r0
    8320:	e5d00000 	ldrb	r0, [r0]
    8324:	e3500000 	cmp	r0, #0, 0
    8328:	0a000005 	beq	8344 <internal_putk+0x2c>
    832c:	e59f5018 	ldr	r5, [pc, #24]	; 834c <internal_putk+0x34>
    8330:	e5953000 	ldr	r3, [r5]
    8334:	e12fff33 	blx	r3
    8338:	e5f40001 	ldrb	r0, [r4, #1]!
    833c:	e3500000 	cmp	r0, #0, 0
    8340:	1afffffa 	bne	8330 <internal_putk+0x18>
    8344:	e3a00001 	mov	r0, #1, 0
    8348:	e8bd8070 	pop	{r4, r5, r6, pc}
    834c:	00009d00 	andeq	r9, r0, r0, lsl #26

00008350 <emit.constprop.0>:
    8350:	e92d41f0 	push	{r4, r5, r6, r7, r8, lr}
    8354:	e3530080 	cmp	r3, #128, 0	; 0x80
    8358:	e1a0c000 	mov	ip, r0
    835c:	e24dd048 	sub	sp, sp, #72, 0	; 0x48
    8360:	e1a00001 	mov	r0, r1
    8364:	ca000069 	bgt	8510 <emit.constprop.0+0x1c0>
    8368:	e24c1002 	sub	r1, ip, #2, 0
    836c:	e1a0c002 	mov	ip, r2
    8370:	e351000e 	cmp	r1, #14, 0
    8374:	979ff101 	ldrls	pc, [pc, r1, lsl #2]
    8378:	ea0000a7 	b	861c <emit.constprop.0+0x2cc>
    837c:	000084e8 	andeq	r8, r0, r8, ror #9
    8380:	0000861c 	andeq	r8, r0, ip, lsl r6
    8384:	0000861c 	andeq	r8, r0, ip, lsl r6
    8388:	0000861c 	andeq	r8, r0, ip, lsl r6
    838c:	0000861c 	andeq	r8, r0, ip, lsl r6
    8390:	0000861c 	andeq	r8, r0, ip, lsl r6
    8394:	000085c4 	andeq	r8, r0, r4, asr #11
    8398:	0000861c 	andeq	r8, r0, ip, lsl r6
    839c:	00008564 	andeq	r8, r0, r4, ror #10
    83a0:	0000861c 	andeq	r8, r0, ip, lsl r6
    83a4:	0000861c 	andeq	r8, r0, ip, lsl r6
    83a8:	0000861c 	andeq	r8, r0, ip, lsl r6
    83ac:	0000861c 	andeq	r8, r0, ip, lsl r6
    83b0:	0000861c 	andeq	r8, r0, ip, lsl r6
    83b4:	000083bc 			; <UNDEFINED> instruction: 0x000083bc
    83b8:	e3a0307f 	mov	r3, #127, 0	; 0x7f
    83bc:	e28d2008 	add	r2, sp, #8, 0
    83c0:	e1a04002 	mov	r4, r2
    83c4:	e59f1288 	ldr	r1, [pc, #648]	; 8654 <emit.constprop.0+0x304>
    83c8:	e20ce00f 	and	lr, ip, #15, 0
    83cc:	e7d1e00e 	ldrb	lr, [r1, lr]
    83d0:	e35c000f 	cmp	ip, #15, 0
    83d4:	e4c4e001 	strb	lr, [r4], #1
    83d8:	e1a0c22c 	lsr	ip, ip, #4
    83dc:	8afffff9 	bhi	83c8 <emit.constprop.0+0x78>
    83e0:	e3a0c078 	mov	ip, #120, 0	; 0x78
    83e4:	e1a0e004 	mov	lr, r4
    83e8:	e3a01030 	mov	r1, #48, 0	; 0x30
    83ec:	e4cec002 	strb	ip, [lr], #2
    83f0:	e5c41001 	strb	r1, [r4, #1]
    83f4:	e04e1002 	sub	r1, lr, r2
    83f8:	e1510003 	cmp	r1, r3
    83fc:	aa000083 	bge	8610 <emit.constprop.0+0x2c0>
    8400:	e1510003 	cmp	r1, r3
    8404:	a3a0c001 	movge	ip, #1, 0
    8408:	b3a0c000 	movlt	ip, #0, 0
    840c:	e2434001 	sub	r4, r3, #1, 0
    8410:	e0444001 	sub	r4, r4, r1
    8414:	b0436001 	sublt	r6, r3, r1
    8418:	a3a06001 	movge	r6, #1, 0
    841c:	e3540002 	cmp	r4, #2, 0
    8420:	938cc001 	orrls	ip, ip, #1, 0
    8424:	e35c0000 	cmp	ip, #0, 0
    8428:	1a000075 	bne	8604 <emit.constprop.0+0x2b4>
    842c:	e1a0c00e 	mov	ip, lr
    8430:	e3c65003 	bic	r5, r6, #3, 0
    8434:	e59f721c 	ldr	r7, [pc, #540]	; 8658 <emit.constprop.0+0x308>
    8438:	e085500e 	add	r5, r5, lr
    843c:	e48c7004 	str	r7, [ip], #4
    8440:	e15c0005 	cmp	ip, r5
    8444:	1afffffc 	bne	843c <emit.constprop.0+0xec>
    8448:	e3c6c003 	bic	ip, r6, #3, 0
    844c:	e156000c 	cmp	r6, ip
    8450:	e08e500c 	add	r5, lr, ip
    8454:	e08cc001 	add	ip, ip, r1
    8458:	0a000008 	beq	8480 <emit.constprop.0+0x130>
    845c:	e3a07020 	mov	r7, #32, 0
    8460:	e28c8001 	add	r8, ip, #1, 0
    8464:	e1580003 	cmp	r8, r3
    8468:	e5c57000 	strb	r7, [r5]
    846c:	aa000003 	bge	8480 <emit.constprop.0+0x130>
    8470:	e28cc002 	add	ip, ip, #2, 0
    8474:	e15c0003 	cmp	ip, r3
    8478:	e5c57001 	strb	r7, [r5, #1]
    847c:	b5c57002 	strblt	r7, [r5, #2]
    8480:	e1510003 	cmp	r1, r3
    8484:	a3a04000 	movge	r4, #0, 0
    8488:	e08e6006 	add	r6, lr, r6
    848c:	e0461002 	sub	r1, r6, r2
    8490:	e08ee004 	add	lr, lr, r4
    8494:	e3a03000 	mov	r3, #0, 0
    8498:	e351007f 	cmp	r1, #127, 0	; 0x7f
    849c:	c241407f 	subgt	r4, r1, #127, 0	; 0x7f
    84a0:	c0822004 	addgt	r2, r2, r4
    84a4:	e152000e 	cmp	r2, lr
    84a8:	e5c63000 	strb	r3, [r6]
    84ac:	8a00004f 	bhi	85f0 <emit.constprop.0+0x2a0>
    84b0:	e28ee001 	add	lr, lr, #1, 0
    84b4:	e1a0300e 	mov	r3, lr
    84b8:	e240c001 	sub	ip, r0, #1, 0
    84bc:	e5734001 	ldrb	r4, [r3, #-1]!
    84c0:	e1530002 	cmp	r3, r2
    84c4:	e5ec4001 	strb	r4, [ip, #1]!
    84c8:	1afffffb 	bne	84bc <emit.constprop.0+0x16c>
    84cc:	e04ee003 	sub	lr, lr, r3
    84d0:	e3a03000 	mov	r3, #0, 0
    84d4:	e080e00e 	add	lr, r0, lr
    84d8:	e5ce3000 	strb	r3, [lr]
    84dc:	e28dd048 	add	sp, sp, #72, 0	; 0x48
    84e0:	e8bd81f0 	pop	{r4, r5, r6, r7, r8, pc}
    84e4:	e3a0307f 	mov	r3, #127, 0	; 0x7f
    84e8:	e28d2008 	add	r2, sp, #8, 0
    84ec:	e1a0e002 	mov	lr, r2
    84f0:	e59f1164 	ldr	r1, [pc, #356]	; 865c <emit.constprop.0+0x30c>
    84f4:	e20c4001 	and	r4, ip, #1, 0
    84f8:	e7d14004 	ldrb	r4, [r1, r4]
    84fc:	e35c0001 	cmp	ip, #1, 0
    8500:	e4ce4001 	strb	r4, [lr], #1
    8504:	e1a0c0ac 	lsr	ip, ip, #1
    8508:	8afffff9 	bhi	84f4 <emit.constprop.0+0x1a4>
    850c:	eaffffb8 	b	83f4 <emit.constprop.0+0xa4>
    8510:	e24c3002 	sub	r3, ip, #2, 0
    8514:	e1a0c002 	mov	ip, r2
    8518:	e353000e 	cmp	r3, #14, 0
    851c:	979ff103 	ldrls	pc, [pc, r3, lsl #2]
    8520:	ea00003d 	b	861c <emit.constprop.0+0x2cc>
    8524:	000084e4 	andeq	r8, r0, r4, ror #9
    8528:	0000861c 	andeq	r8, r0, ip, lsl r6
    852c:	0000861c 	andeq	r8, r0, ip, lsl r6
    8530:	0000861c 	andeq	r8, r0, ip, lsl r6
    8534:	0000861c 	andeq	r8, r0, ip, lsl r6
    8538:	0000861c 	andeq	r8, r0, ip, lsl r6
    853c:	0000863c 	andeq	r8, r0, ip, lsr r6
    8540:	0000861c 	andeq	r8, r0, ip, lsl r6
    8544:	00008560 	andeq	r8, r0, r0, ror #10
    8548:	0000861c 	andeq	r8, r0, ip, lsl r6
    854c:	0000861c 	andeq	r8, r0, ip, lsl r6
    8550:	0000861c 	andeq	r8, r0, ip, lsl r6
    8554:	0000861c 	andeq	r8, r0, ip, lsl r6
    8558:	0000861c 	andeq	r8, r0, ip, lsl r6
    855c:	000083b8 			; <UNDEFINED> instruction: 0x000083b8
    8560:	e3a0307f 	mov	r3, #127, 0	; 0x7f
    8564:	e59d1060 	ldr	r1, [sp, #96]	; 0x60
    8568:	e59f70f0 	ldr	r7, [pc, #240]	; 8660 <emit.constprop.0+0x310>
    856c:	e0118fa2 	ands	r8, r1, r2, lsr #31
    8570:	1262c000 	rsbne	ip, r2, #0, 0
    8574:	e28d2008 	add	r2, sp, #8, 0
    8578:	13a08001 	movne	r8, #1, 0
    857c:	e1a0e002 	mov	lr, r2
    8580:	e59f60dc 	ldr	r6, [pc, #220]	; 8664 <emit.constprop.0+0x314>
    8584:	e1a0500c 	mov	r5, ip
    8588:	e0814c96 	umull	r4, r1, r6, ip
    858c:	e1a011a1 	lsr	r1, r1, #3
    8590:	e0814101 	add	r4, r1, r1, lsl #2
    8594:	e04cc084 	sub	ip, ip, r4, lsl #1
    8598:	e7d7400c 	ldrb	r4, [r7, ip]
    859c:	e3550009 	cmp	r5, #9, 0
    85a0:	e1a0c001 	mov	ip, r1
    85a4:	e1a0100e 	mov	r1, lr
    85a8:	e4ce4001 	strb	r4, [lr], #1
    85ac:	8afffff4 	bhi	8584 <emit.constprop.0+0x234>
    85b0:	e3580000 	cmp	r8, #0, 0
    85b4:	13a0c02d 	movne	ip, #45, 0	; 0x2d
    85b8:	15cec000 	strbne	ip, [lr]
    85bc:	1281e002 	addne	lr, r1, #2, 0
    85c0:	eaffff8b 	b	83f4 <emit.constprop.0+0xa4>
    85c4:	e3530001 	cmp	r3, #1, 0
    85c8:	e5cd2008 	strb	r2, [sp, #8]
    85cc:	c3a01001 	movgt	r1, #1, 0
    85d0:	c28de009 	addgt	lr, sp, #9, 0
    85d4:	c28d2008 	addgt	r2, sp, #8, 0
    85d8:	caffff88 	bgt	8400 <emit.constprop.0+0xb0>
    85dc:	e3a03000 	mov	r3, #0, 0
    85e0:	e28de008 	add	lr, sp, #8, 0
    85e4:	e1a0200e 	mov	r2, lr
    85e8:	e5cd3009 	strb	r3, [sp, #9]
    85ec:	eaffffaf 	b	84b0 <emit.constprop.0+0x160>
    85f0:	e1a0e000 	mov	lr, r0
    85f4:	e3a03000 	mov	r3, #0, 0
    85f8:	e5ce3000 	strb	r3, [lr]
    85fc:	e28dd048 	add	sp, sp, #72, 0	; 0x48
    8600:	e8bd81f0 	pop	{r4, r5, r6, r7, r8, pc}
    8604:	e1a0c001 	mov	ip, r1
    8608:	e1a0500e 	mov	r5, lr
    860c:	eaffff92 	b	845c <emit.constprop.0+0x10c>
    8610:	e1a0600e 	mov	r6, lr
    8614:	e24ee001 	sub	lr, lr, #1, 0
    8618:	eaffff9d 	b	8494 <emit.constprop.0+0x144>
    861c:	e59f2044 	ldr	r2, [pc, #68]	; 8668 <emit.constprop.0+0x318>
    8620:	e3a03079 	mov	r3, #121, 0	; 0x79
    8624:	e59f1040 	ldr	r1, [pc, #64]	; 866c <emit.constprop.0+0x31c>
    8628:	e58d2000 	str	r2, [sp]
    862c:	e59f003c 	ldr	r0, [pc, #60]	; 8670 <emit.constprop.0+0x320>
    8630:	e59f203c 	ldr	r2, [pc, #60]	; 8674 <emit.constprop.0+0x324>
    8634:	ebffff21 	bl	82c0 <printk>
    8638:	eb0001b1 	bl	8d04 <clean_reboot>
    863c:	e5cd2008 	strb	r2, [sp, #8]
    8640:	e3a0307f 	mov	r3, #127, 0	; 0x7f
    8644:	e3a01001 	mov	r1, #1, 0
    8648:	e28de009 	add	lr, sp, #9, 0
    864c:	e28d2008 	add	r2, sp, #8, 0
    8650:	eaffff6a 	b	8400 <emit.constprop.0+0xb0>
    8654:	00009998 	muleq	r0, r8, r9
    8658:	20202020 	eorcs	r2, r0, r0, lsr #32
    865c:	000099ac 	andeq	r9, r0, ip, lsr #19
    8660:	000099b0 			; <UNDEFINED> instruction: 0x000099b0
    8664:	cccccccd 	stclgt	12, cr12, [ip], {205}	; 0xcd
    8668:	00009994 	muleq	r0, r4, r9
    866c:	0000996c 	andeq	r9, r0, ip, ror #18
    8670:	00009980 	andeq	r9, r0, r0, lsl #19
    8674:	00009ac4 	andeq	r9, r0, r4, asr #21

00008678 <rpi_set_output>:
    8678:	e3500000 	cmp	r0, #0, 0
    867c:	0a000005 	beq	8698 <rpi_set_output+0x20>
    8680:	e59f3038 	ldr	r3, [pc, #56]	; 86c0 <rpi_set_output+0x48>
    8684:	e3510000 	cmp	r1, #0, 0
    8688:	e5830000 	str	r0, [r3]
    868c:	159f3030 	ldrne	r3, [pc, #48]	; 86c4 <rpi_set_output+0x4c>
    8690:	15831000 	strne	r1, [r3]
    8694:	e12fff1e 	bx	lr
    8698:	e52de004 	push	{lr}		; (str lr, [sp, #-4]!)
    869c:	e59f2024 	ldr	r2, [pc, #36]	; 86c8 <rpi_set_output+0x50>
    86a0:	e24dd00c 	sub	sp, sp, #12, 0
    86a4:	e3a03020 	mov	r3, #32, 0
    86a8:	e59f101c 	ldr	r1, [pc, #28]	; 86cc <rpi_set_output+0x54>
    86ac:	e58d2000 	str	r2, [sp]
    86b0:	e59f0018 	ldr	r0, [pc, #24]	; 86d0 <rpi_set_output+0x58>
    86b4:	e59f2018 	ldr	r2, [pc, #24]	; 86d4 <rpi_set_output+0x5c>
    86b8:	ebffff00 	bl	82c0 <printk>
    86bc:	eb000190 	bl	8d04 <clean_reboot>
    86c0:	00009d00 	andeq	r9, r0, r0, lsl #26
    86c4:	00009cf0 	strdeq	r9, [r0], -r0
    86c8:	000099bc 			; <UNDEFINED> instruction: 0x000099bc
    86cc:	0000996c 	andeq	r9, r0, ip, ror #18
    86d0:	00009980 	andeq	r9, r0, r0, lsl #19
    86d4:	00009acc 	andeq	r9, r0, ip, asr #21

000086d8 <va_printk>:
    86d8:	e92d4ff0 	push	{r4, r5, r6, r7, r8, r9, sl, fp, lr}
    86dc:	e1a0b000 	mov	fp, r0
    86e0:	e3a00000 	mov	r0, #0, 0
    86e4:	e5cb0000 	strb	r0, [fp]
    86e8:	e5d2c000 	ldrb	ip, [r2]
    86ec:	e2417001 	sub	r7, r1, #1, 0
    86f0:	e08b7007 	add	r7, fp, r7
    86f4:	e15c0000 	cmp	ip, r0
    86f8:	115b0007 	cmpne	fp, r7
    86fc:	e24ddf47 	sub	sp, sp, #284	; 0x11c
    8700:	e58d2010 	str	r2, [sp, #16]
    8704:	2a000159 	bcs	8c70 <va_printk+0x598>
    8708:	e1a06002 	mov	r6, r2
    870c:	e1a08003 	mov	r8, r3
    8710:	e1a0400b 	mov	r4, fp
    8714:	e59fa5a4 	ldr	sl, [pc, #1444]	; 8cc0 <va_printk+0x5e8>
    8718:	e58db00c 	str	fp, [sp, #12]
    871c:	ea000005 	b	8738 <va_printk+0x60>
    8720:	e4c4c001 	strb	ip, [r4], #1
    8724:	e2866001 	add	r6, r6, #1, 0
    8728:	e5d6c000 	ldrb	ip, [r6]
    872c:	e35c0000 	cmp	ip, #0, 0
    8730:	11570004 	cmpne	r7, r4
    8734:	9a00002f 	bls	87f8 <va_printk+0x120>
    8738:	e35c0025 	cmp	ip, #37, 0	; 0x25
    873c:	1afffff7 	bne	8720 <va_printk+0x48>
    8740:	e5d62001 	ldrb	r2, [r6, #1]
    8744:	e3520025 	cmp	r2, #37, 0	; 0x25
    8748:	04c4c001 	strbeq	ip, [r4], #1
    874c:	02866002 	addeq	r6, r6, #2, 0
    8750:	0afffff4 	beq	8728 <va_printk+0x50>
    8754:	e2423030 	sub	r3, r2, #48, 0	; 0x30
    8758:	e3530009 	cmp	r3, #9, 0
    875c:	e3a05000 	mov	r5, #0, 0
    8760:	e2866001 	add	r6, r6, #1, 0
    8764:	8a000008 	bhi	878c <va_printk+0xb4>
    8768:	e0855105 	add	r5, r5, r5, lsl #2
    876c:	e0825085 	add	r5, r2, r5, lsl #1
    8770:	e5f62001 	ldrb	r2, [r6, #1]!
    8774:	e2455030 	sub	r5, r5, #48, 0	; 0x30
    8778:	e2423030 	sub	r3, r2, #48, 0	; 0x30
    877c:	e3530009 	cmp	r3, #9, 0
    8780:	9afffff8 	bls	8768 <va_printk+0x90>
    8784:	e355001f 	cmp	r5, #31, 0
    8788:	8a00013a 	bhi	8c78 <va_printk+0x5a0>
    878c:	e2423062 	sub	r3, r2, #98, 0	; 0x62
    8790:	e3530016 	cmp	r3, #22, 0
    8794:	979ff103 	ldrls	pc, [pc, r3, lsl #2]
    8798:	ea00011b 	b	8c0c <va_printk+0x534>
    879c:	00008a50 	andeq	r8, r0, r0, asr sl
    87a0:	0000894c 	andeq	r8, r0, ip, asr #18
    87a4:	00008944 	andeq	r8, r0, r4, asr #18
    87a8:	00008c0c 	andeq	r8, r0, ip, lsl #24
    87ac:	00008c48 	andeq	r8, r0, r8, asr #24
    87b0:	00008c0c 	andeq	r8, r0, ip, lsl #24
    87b4:	00008c0c 	andeq	r8, r0, ip, lsl #24
    87b8:	00008c0c 	andeq	r8, r0, ip, lsl #24
    87bc:	00008c0c 	andeq	r8, r0, ip, lsl #24
    87c0:	00008c0c 	andeq	r8, r0, ip, lsl #24
    87c4:	00008854 	andeq	r8, r0, r4, asr r8
    87c8:	00008c0c 	andeq	r8, r0, ip, lsl #24
    87cc:	00008c0c 	andeq	r8, r0, ip, lsl #24
    87d0:	00008c0c 	andeq	r8, r0, ip, lsl #24
    87d4:	00008810 	andeq	r8, r0, r0, lsl r8
    87d8:	00008c0c 	andeq	r8, r0, ip, lsl #24
    87dc:	00008c0c 	andeq	r8, r0, ip, lsl #24
    87e0:	00008b48 	andeq	r8, r0, r8, asr #22
    87e4:	00008c0c 	andeq	r8, r0, ip, lsl #24
    87e8:	00008920 	andeq	r8, r0, r0, lsr #18
    87ec:	00008c0c 	andeq	r8, r0, ip, lsl #24
    87f0:	00008c0c 	andeq	r8, r0, ip, lsl #24
    87f4:	00008810 	andeq	r8, r0, r0, lsl r8
    87f8:	e59db00c 	ldr	fp, [sp, #12]
    87fc:	e3a03000 	mov	r3, #0, 0
    8800:	e4c43001 	strb	r3, [r4], #1
    8804:	e044000b 	sub	r0, r4, fp
    8808:	e28ddf47 	add	sp, sp, #284	; 0x11c
    880c:	e8bd8ff0 	pop	{r4, r5, r6, r7, r8, r9, sl, fp, pc}
    8810:	e3a01000 	mov	r1, #0, 0
    8814:	e1a03005 	mov	r3, r5
    8818:	e4982004 	ldr	r2, [r8], #4
    881c:	e3a00010 	mov	r0, #16, 0
    8820:	e58d1000 	str	r1, [sp]
    8824:	e28d1018 	add	r1, sp, #24, 0
    8828:	ebfffec8 	bl	8350 <emit.constprop.0>
    882c:	e1a05000 	mov	r5, r0
    8830:	e2866001 	add	r6, r6, #1, 0
    8834:	e2455001 	sub	r5, r5, #1, 0
    8838:	e5f53001 	ldrb	r3, [r5, #1]!
    883c:	e3530000 	cmp	r3, #0, 0
    8840:	0affffb8 	beq	8728 <va_printk+0x50>
    8844:	e4c43001 	strb	r3, [r4], #1
    8848:	e1570004 	cmp	r7, r4
    884c:	8afffff9 	bhi	8838 <va_printk+0x160>
    8850:	eaffffb4 	b	8728 <va_printk+0x50>
    8854:	e3a02003 	mov	r2, #3, 0
    8858:	e1a00006 	mov	r0, r6
    885c:	e59f1460 	ldr	r1, [pc, #1120]	; 8cc4 <va_printk+0x5ec>
    8860:	eb0003f8 	bl	9848 <strncmp>
    8864:	e3500000 	cmp	r0, #0, 0
    8868:	0a000005 	beq	8884 <va_printk+0x1ac>
    886c:	e3a02003 	mov	r2, #3, 0
    8870:	e1a00006 	mov	r0, r6
    8874:	e59f144c 	ldr	r1, [pc, #1100]	; 8cc8 <va_printk+0x5f0>
    8878:	eb0003f2 	bl	9848 <strncmp>
    887c:	e3500000 	cmp	r0, #0, 0
    8880:	1a00010b 	bne	8cb4 <va_printk+0x5dc>
    8884:	e2888007 	add	r8, r8, #7, 0
    8888:	e3c88007 	bic	r8, r8, #7, 0
    888c:	e598b004 	ldr	fp, [r8, #4]
    8890:	e4989008 	ldr	r9, [r8], #8
    8894:	e1a0100b 	mov	r1, fp
    8898:	e59f042c 	ldr	r0, [pc, #1068]	; 8ccc <va_printk+0x5f4>
    889c:	ebfffe87 	bl	82c0 <printk>
    88a0:	e1a01009 	mov	r1, r9
    88a4:	e59f0424 	ldr	r0, [pc, #1060]	; 8cd0 <va_printk+0x5f8>
    88a8:	ebfffe84 	bl	82c0 <printk>
    88ac:	e3a02003 	mov	r2, #3, 0
    88b0:	e1a00006 	mov	r0, r6
    88b4:	e59f1408 	ldr	r1, [pc, #1032]	; 8cc4 <va_printk+0x5ec>
    88b8:	eb0003e2 	bl	9848 <strncmp>
    88bc:	e2503000 	subs	r3, r0, #0, 0
    88c0:	e1a02003 	mov	r2, r3
    88c4:	e2863002 	add	r3, r6, #2, 0
    88c8:	e58d3014 	str	r3, [sp, #20]
    88cc:	1a00009f 	bne	8b50 <va_printk+0x478>
    88d0:	e1a06002 	mov	r6, r2
    88d4:	e1a03005 	mov	r3, r5
    88d8:	e58d2000 	str	r2, [sp]
    88dc:	e28d1018 	add	r1, sp, #24, 0
    88e0:	e1a0200b 	mov	r2, fp
    88e4:	e3a00010 	mov	r0, #16, 0
    88e8:	ebfffe98 	bl	8350 <emit.constprop.0>
    88ec:	e1a0c000 	mov	ip, r0
    88f0:	e1a03005 	mov	r3, r5
    88f4:	e58d6000 	str	r6, [sp]
    88f8:	e28d1098 	add	r1, sp, #152, 0	; 0x98
    88fc:	e1a02009 	mov	r2, r9
    8900:	e3a00010 	mov	r0, #16, 0
    8904:	e1a0500c 	mov	r5, ip
    8908:	ebfffe90 	bl	8350 <emit.constprop.0>
    890c:	e28d0018 	add	r0, sp, #24, 0
    8910:	e28d109a 	add	r1, sp, #154, 0	; 0x9a
    8914:	e59d6014 	ldr	r6, [sp, #20]
    8918:	eb0003a8 	bl	97c0 <strcat>
    891c:	eaffffc3 	b	8830 <va_printk+0x158>
    8920:	e3a01000 	mov	r1, #0, 0
    8924:	e1a03005 	mov	r3, r5
    8928:	e4982004 	ldr	r2, [r8], #4
    892c:	e3a0000a 	mov	r0, #10, 0
    8930:	e58d1000 	str	r1, [sp]
    8934:	e28d1018 	add	r1, sp, #24, 0
    8938:	ebfffe84 	bl	8350 <emit.constprop.0>
    893c:	e1a05000 	mov	r5, r0
    8940:	eaffffba 	b	8830 <va_printk+0x158>
    8944:	e3a01001 	mov	r1, #1, 0
    8948:	eafffff5 	b	8924 <va_printk+0x24c>
    894c:	e4983004 	ldr	r3, [r8], #4
    8950:	e3550001 	cmp	r5, #1, 0
    8954:	e5cd3098 	strb	r3, [sp, #152]	; 0x98
    8958:	9a0000a6 	bls	8bf8 <va_printk+0x520>
    895c:	e2453002 	sub	r3, r5, #2, 0
    8960:	e3530002 	cmp	r3, #2, 0
    8964:	e2451001 	sub	r1, r5, #1, 0
    8968:	9a0000bc 	bls	8c60 <va_printk+0x588>
    896c:	e59f0360 	ldr	r0, [pc, #864]	; 8cd4 <va_printk+0x5fc>
    8970:	e1a02121 	lsr	r2, r1, #2
    8974:	e3520001 	cmp	r2, #1, 0
    8978:	e58d0099 	str	r0, [sp, #153]	; 0x99
    897c:	0a00000e 	beq	89bc <va_printk+0x2e4>
    8980:	e3520002 	cmp	r2, #2, 0
    8984:	e58d009d 	str	r0, [sp, #157]	; 0x9d
    8988:	0a00000b 	beq	89bc <va_printk+0x2e4>
    898c:	e3520003 	cmp	r2, #3, 0
    8990:	e58d00a1 	str	r0, [sp, #161]	; 0xa1
    8994:	0a000008 	beq	89bc <va_printk+0x2e4>
    8998:	e3520004 	cmp	r2, #4, 0
    899c:	e58d00a5 	str	r0, [sp, #165]	; 0xa5
    89a0:	0a000005 	beq	89bc <va_printk+0x2e4>
    89a4:	e3520005 	cmp	r2, #5, 0
    89a8:	e58d00a9 	str	r0, [sp, #169]	; 0xa9
    89ac:	0a000002 	beq	89bc <va_printk+0x2e4>
    89b0:	e3520007 	cmp	r2, #7, 0
    89b4:	e58d00ad 	str	r0, [sp, #173]	; 0xad
    89b8:	058d00b1 	streq	r0, [sp, #177]	; 0xb1
    89bc:	e3c12003 	bic	r2, r1, #3, 0
    89c0:	e1510002 	cmp	r1, r2
    89c4:	e28dc099 	add	ip, sp, #153, 0	; 0x99
    89c8:	e08c0002 	add	r0, ip, r2
    89cc:	e2822001 	add	r2, r2, #1, 0
    89d0:	0a000008 	beq	89f8 <va_printk+0x320>
    89d4:	e3a0e020 	mov	lr, #32, 0
    89d8:	e2829001 	add	r9, r2, #1, 0
    89dc:	e1550009 	cmp	r5, r9
    89e0:	e5c0e000 	strb	lr, [r0]
    89e4:	da000003 	ble	89f8 <va_printk+0x320>
    89e8:	e2822002 	add	r2, r2, #2, 0
    89ec:	e1550002 	cmp	r5, r2
    89f0:	e5c0e001 	strb	lr, [r0, #1]
    89f4:	c5c0e002 	strbgt	lr, [r0, #2]
    89f8:	e3a0e000 	mov	lr, #0, 0
    89fc:	e28d0098 	add	r0, sp, #152, 0	; 0x98
    8a00:	e08c2001 	add	r2, ip, r1
    8a04:	e0422000 	sub	r2, r2, r0
    8a08:	e352007f 	cmp	r2, #127, 0	; 0x7f
    8a0c:	c242207f 	subgt	r2, r2, #127, 0	; 0x7f
    8a10:	e08c3003 	add	r3, ip, r3
    8a14:	c0800002 	addgt	r0, r0, r2
    8a18:	e1530000 	cmp	r3, r0
    8a1c:	e7cce001 	strb	lr, [ip, r1]
    8a20:	3a00006c 	bcc	8bd8 <va_printk+0x500>
    8a24:	e283c001 	add	ip, r3, #1, 0
    8a28:	e1a0300c 	mov	r3, ip
    8a2c:	e28d5018 	add	r5, sp, #24, 0
    8a30:	e2452001 	sub	r2, r5, #1, 0
    8a34:	e5731001 	ldrb	r1, [r3, #-1]!
    8a38:	e1500003 	cmp	r0, r3
    8a3c:	e5e21001 	strb	r1, [r2, #1]!
    8a40:	1afffffb 	bne	8a34 <va_printk+0x35c>
    8a44:	e04c3000 	sub	r3, ip, r0
    8a48:	e0853003 	add	r3, r5, r3
    8a4c:	ea00003a 	b	8b3c <va_printk+0x464>
    8a50:	e28d1098 	add	r1, sp, #152, 0	; 0x98
    8a54:	e1a03001 	mov	r3, r1
    8a58:	e4980004 	ldr	r0, [r8], #4
    8a5c:	e200c001 	and	ip, r0, #1, 0
    8a60:	e7dac00c 	ldrb	ip, [sl, ip]
    8a64:	e3500001 	cmp	r0, #1, 0
    8a68:	e1a02003 	mov	r2, r3
    8a6c:	e1a000a0 	lsr	r0, r0, #1
    8a70:	e4c3c001 	strb	ip, [r3], #1
    8a74:	8afffff8 	bhi	8a5c <va_printk+0x384>
    8a78:	e0430001 	sub	r0, r3, r1
    8a7c:	e1550000 	cmp	r5, r0
    8a80:	da000057 	ble	8be4 <va_printk+0x50c>
    8a84:	e045c000 	sub	ip, r5, r0
    8a88:	e24ce001 	sub	lr, ip, #1, 0
    8a8c:	e35e0002 	cmp	lr, #2, 0
    8a90:	e1a0e003 	mov	lr, r3
    8a94:	9a00000a 	bls	8ac4 <va_printk+0x3ec>
    8a98:	e3cc9003 	bic	r9, ip, #3, 0
    8a9c:	e0899003 	add	r9, r9, r3
    8aa0:	e59fb22c 	ldr	fp, [pc, #556]	; 8cd4 <va_printk+0x5fc>
    8aa4:	e48eb004 	str	fp, [lr], #4
    8aa8:	e15e0009 	cmp	lr, r9
    8aac:	1afffffb 	bne	8aa0 <va_printk+0x3c8>
    8ab0:	e3cce003 	bic	lr, ip, #3, 0
    8ab4:	e15e000c 	cmp	lr, ip
    8ab8:	e080000e 	add	r0, r0, lr
    8abc:	e083e00e 	add	lr, r3, lr
    8ac0:	0a000008 	beq	8ae8 <va_printk+0x410>
    8ac4:	e3a09020 	mov	r9, #32, 0
    8ac8:	e280b001 	add	fp, r0, #1, 0
    8acc:	e155000b 	cmp	r5, fp
    8ad0:	e5ce9000 	strb	r9, [lr]
    8ad4:	da000003 	ble	8ae8 <va_printk+0x410>
    8ad8:	e2800002 	add	r0, r0, #2, 0
    8adc:	e1550000 	cmp	r5, r0
    8ae0:	e5ce9001 	strb	r9, [lr, #1]
    8ae4:	c5ce9002 	strbgt	r9, [lr, #2]
    8ae8:	e3a0e000 	mov	lr, #0, 0
    8aec:	e083000c 	add	r0, r3, ip
    8af0:	e0400001 	sub	r0, r0, r1
    8af4:	e350007f 	cmp	r0, #127, 0	; 0x7f
    8af8:	e082200c 	add	r2, r2, ip
    8afc:	e7c3e00c 	strb	lr, [r3, ip]
    8b00:	da000001 	ble	8b0c <va_printk+0x434>
    8b04:	e240007f 	sub	r0, r0, #127, 0	; 0x7f
    8b08:	e0811000 	add	r1, r1, r0
    8b0c:	e1510002 	cmp	r1, r2
    8b10:	8a000030 	bhi	8bd8 <va_printk+0x500>
    8b14:	e2822001 	add	r2, r2, #1, 0
    8b18:	e1a03002 	mov	r3, r2
    8b1c:	e28d5018 	add	r5, sp, #24, 0
    8b20:	e245c001 	sub	ip, r5, #1, 0
    8b24:	e5730001 	ldrb	r0, [r3, #-1]!
    8b28:	e1530001 	cmp	r3, r1
    8b2c:	e5ec0001 	strb	r0, [ip, #1]!
    8b30:	1afffffb 	bne	8b24 <va_printk+0x44c>
    8b34:	e0423003 	sub	r3, r2, r3
    8b38:	e0853003 	add	r3, r5, r3
    8b3c:	e3a02000 	mov	r2, #0, 0
    8b40:	e5c32000 	strb	r2, [r3]
    8b44:	eaffff39 	b	8830 <va_printk+0x158>
    8b48:	e4985004 	ldr	r5, [r8], #4
    8b4c:	eaffff37 	b	8830 <va_printk+0x158>
    8b50:	e3a02003 	mov	r2, #3, 0
    8b54:	e1a00006 	mov	r0, r6
    8b58:	e59f1168 	ldr	r1, [pc, #360]	; 8cc8 <va_printk+0x5f0>
    8b5c:	eb000339 	bl	9848 <strncmp>
    8b60:	e2503000 	subs	r3, r0, #0, 0
    8b64:	1a00004b 	bne	8c98 <va_printk+0x5c0>
    8b68:	e1a06003 	mov	r6, r3
    8b6c:	e1a0200b 	mov	r2, fp
    8b70:	e58d3000 	str	r3, [sp]
    8b74:	e28d1018 	add	r1, sp, #24, 0
    8b78:	e1a03005 	mov	r3, r5
    8b7c:	e3a0000a 	mov	r0, #10, 0
    8b80:	ebfffdf2 	bl	8350 <emit.constprop.0>
    8b84:	e1a0c000 	mov	ip, r0
    8b88:	e1a03005 	mov	r3, r5
    8b8c:	e1a02009 	mov	r2, r9
    8b90:	e28d1098 	add	r1, sp, #152, 0	; 0x98
    8b94:	e3a0000a 	mov	r0, #10, 0
    8b98:	e58d6000 	str	r6, [sp]
    8b9c:	e1a0500c 	mov	r5, ip
    8ba0:	ebfffdea 	bl	8350 <emit.constprop.0>
    8ba4:	e59f112c 	ldr	r1, [pc, #300]	; 8cd8 <va_printk+0x600>
    8ba8:	e28d0018 	add	r0, sp, #24, 0
    8bac:	eb00030e 	bl	97ec <strcmp>
    8bb0:	e3500000 	cmp	r0, #0, 0
    8bb4:	e28d1098 	add	r1, sp, #152, 0	; 0x98
    8bb8:	e28d0018 	add	r0, sp, #24, 0
    8bbc:	1a000002 	bne	8bcc <va_printk+0x4f4>
    8bc0:	eb00031a 	bl	9830 <strcpy>
    8bc4:	e59d6014 	ldr	r6, [sp, #20]
    8bc8:	eaffff18 	b	8830 <va_printk+0x158>
    8bcc:	eb0002fb 	bl	97c0 <strcat>
    8bd0:	e59d6014 	ldr	r6, [sp, #20]
    8bd4:	eaffff15 	b	8830 <va_printk+0x158>
    8bd8:	e28d5018 	add	r5, sp, #24, 0
    8bdc:	e1a03005 	mov	r3, r5
    8be0:	eaffffd5 	b	8b3c <va_printk+0x464>
    8be4:	e3a0c000 	mov	ip, #0, 0
    8be8:	e350007f 	cmp	r0, #127, 0	; 0x7f
    8bec:	e5c3c000 	strb	ip, [r3]
    8bf0:	caffffc3 	bgt	8b04 <va_printk+0x42c>
    8bf4:	eaffffc6 	b	8b14 <va_printk+0x43c>
    8bf8:	e3a02000 	mov	r2, #0, 0
    8bfc:	e28d3098 	add	r3, sp, #152, 0	; 0x98
    8c00:	e1a00003 	mov	r0, r3
    8c04:	e5cd2099 	strb	r2, [sp, #153]	; 0x99
    8c08:	eaffff85 	b	8a24 <va_printk+0x34c>
    8c0c:	e3a03000 	mov	r3, #0, 0
    8c10:	e1a01002 	mov	r1, r2
    8c14:	e5c63001 	strb	r3, [r6, #1]
    8c18:	e59f00bc 	ldr	r0, [pc, #188]	; 8cdc <va_printk+0x604>
    8c1c:	ebfffda7 	bl	82c0 <printk>
    8c20:	e59f30b8 	ldr	r3, [pc, #184]	; 8ce0 <va_printk+0x608>
    8c24:	e59d0010 	ldr	r0, [sp, #16]
    8c28:	e5933000 	ldr	r3, [r3]
    8c2c:	e12fff33 	blx	r3
    8c30:	e3a030e2 	mov	r3, #226, 0	; 0xe2
    8c34:	e59f20a8 	ldr	r2, [pc, #168]	; 8ce4 <va_printk+0x60c>
    8c38:	e59f10a8 	ldr	r1, [pc, #168]	; 8ce8 <va_printk+0x610>
    8c3c:	e59f00a8 	ldr	r0, [pc, #168]	; 8cec <va_printk+0x614>
    8c40:	ebfffd9e 	bl	82c0 <printk>
    8c44:	eb00002e 	bl	8d04 <clean_reboot>
    8c48:	e3a030be 	mov	r3, #190, 0	; 0xbe
    8c4c:	e59f2090 	ldr	r2, [pc, #144]	; 8ce4 <va_printk+0x60c>
    8c50:	e59f1090 	ldr	r1, [pc, #144]	; 8ce8 <va_printk+0x610>
    8c54:	e59f0094 	ldr	r0, [pc, #148]	; 8cf0 <va_printk+0x618>
    8c58:	ebfffd98 	bl	82c0 <printk>
    8c5c:	eb000028 	bl	8d04 <clean_reboot>
    8c60:	e28dc099 	add	ip, sp, #153, 0	; 0x99
    8c64:	e1a0000c 	mov	r0, ip
    8c68:	e3a02001 	mov	r2, #1, 0
    8c6c:	eaffff58 	b	89d4 <va_printk+0x2fc>
    8c70:	e1a0400b 	mov	r4, fp
    8c74:	eafffee0 	b	87fc <va_printk+0x124>
    8c78:	e3a03098 	mov	r3, #152, 0	; 0x98
    8c7c:	e59f2070 	ldr	r2, [pc, #112]	; 8cf4 <va_printk+0x61c>
    8c80:	e59f1060 	ldr	r1, [pc, #96]	; 8ce8 <va_printk+0x610>
    8c84:	e58d2000 	str	r2, [sp]
    8c88:	e59f0068 	ldr	r0, [pc, #104]	; 8cf8 <va_printk+0x620>
    8c8c:	e59f2050 	ldr	r2, [pc, #80]	; 8ce4 <va_printk+0x60c>
    8c90:	ebfffd8a 	bl	82c0 <printk>
    8c94:	eb00001a 	bl	8d04 <clean_reboot>
    8c98:	e3a030b6 	mov	r3, #182, 0	; 0xb6
    8c9c:	e59f2040 	ldr	r2, [pc, #64]	; 8ce4 <va_printk+0x60c>
    8ca0:	e59f1040 	ldr	r1, [pc, #64]	; 8ce8 <va_printk+0x610>
    8ca4:	e59f0050 	ldr	r0, [pc, #80]	; 8cfc <va_printk+0x624>
    8ca8:	e58d6000 	str	r6, [sp]
    8cac:	ebfffd83 	bl	82c0 <printk>
    8cb0:	eb000013 	bl	8d04 <clean_reboot>
    8cb4:	e3a0309f 	mov	r3, #159, 0	; 0x9f
    8cb8:	e59f2040 	ldr	r2, [pc, #64]	; 8d00 <va_printk+0x628>
    8cbc:	eaffffef 	b	8c80 <va_printk+0x5a8>
    8cc0:	000099ac 	andeq	r9, r0, ip, lsr #19
    8cc4:	000099d0 	ldrdeq	r9, [r0], -r0
    8cc8:	000099e4 	andeq	r9, r0, r4, ror #19
    8ccc:	000099d4 	ldrdeq	r9, [r0], -r4
    8cd0:	000099dc 	ldrdeq	r9, [r0], -ip
    8cd4:	20202020 	eorcs	r2, r0, r0, lsr #32
    8cd8:	00009994 	muleq	r0, r4, r9
    8cdc:	00009a74 	andeq	r9, r0, r4, ror sl
    8ce0:	00009cf0 	strdeq	r9, [r0], -r0
    8ce4:	00009adc 	ldrdeq	r9, [r0], -ip
    8ce8:	0000996c 	andeq	r9, r0, ip, ror #18
    8cec:	00009aa4 	andeq	r9, r0, r4, lsr #21
    8cf0:	00009a4c 	andeq	r9, r0, ip, asr #20
    8cf4:	000099c4 	andeq	r9, r0, r4, asr #19
    8cf8:	00009980 	andeq	r9, r0, r0, lsl #19
    8cfc:	00009a24 	andeq	r9, r0, r4, lsr #20
    8d00:	000099e8 	andeq	r9, r0, r8, ror #19

00008d04 <clean_reboot>:
    8d04:	e59f301c 	ldr	r3, [pc, #28]	; 8d28 <clean_reboot+0x24>
    8d08:	e92d4010 	push	{r4, lr}
    8d0c:	e5933000 	ldr	r3, [r3]
    8d10:	e59f0014 	ldr	r0, [pc, #20]	; 8d2c <clean_reboot+0x28>
    8d14:	e12fff33 	blx	r3
    8d18:	eb00011b 	bl	918c <uart_flush_tx>
    8d1c:	e3a0000a 	mov	r0, #10, 0
    8d20:	eb000082 	bl	8f30 <delay_ms>
    8d24:	eb00004b 	bl	8e58 <rpi_reboot>
    8d28:	00009cf0 	strdeq	r9, [r0], -r0
    8d2c:	00009ae8 	andeq	r9, r0, r8, ror #21

00008d30 <_cstart>:
    8d30:	e92d4070 	push	{r4, r5, r6, lr}
    8d34:	eb00003b 	bl	8e28 <custom_loader>
    8d38:	e59f20e0 	ldr	r2, [pc, #224]	; 8e20 <_cstart+0xf0>
    8d3c:	e59fc0e0 	ldr	ip, [pc, #224]	; 8e24 <_cstart+0xf4>
    8d40:	e152000c 	cmp	r2, ip
    8d44:	2a00002e 	bcs	8e04 <_cstart+0xd4>
    8d48:	e24c1001 	sub	r1, ip, #1, 0
    8d4c:	e0411002 	sub	r1, r1, r2
    8d50:	e3510017 	cmp	r1, #23, 0
    8d54:	e1a03122 	lsr	r3, r2, #2
    8d58:	e1a01121 	lsr	r1, r1, #2
    8d5c:	e2811001 	add	r1, r1, #1, 0
    8d60:	e2033001 	and	r3, r3, #1, 0
    8d64:	9a00002b 	bls	8e18 <_cstart+0xe8>
    8d68:	e3530000 	cmp	r3, #0, 0
    8d6c:	11a00002 	movne	r0, r2
    8d70:	13a0e000 	movne	lr, #0, 0
    8d74:	e3a04000 	mov	r4, #0, 0
    8d78:	e3a05000 	mov	r5, #0, 0
    8d7c:	e0411003 	sub	r1, r1, r3
    8d80:	01a00002 	moveq	r0, r2
    8d84:	e0823103 	add	r3, r2, r3, lsl #2
    8d88:	e1a020a1 	lsr	r2, r1, #1
    8d8c:	1480e004 	strne	lr, [r0], #4
    8d90:	e0832182 	add	r2, r3, r2, lsl #3
    8d94:	e0c340f8 	strd	r4, [r3], #8
    8d98:	e1520003 	cmp	r2, r3
    8d9c:	1afffffc 	bne	8d94 <_cstart+0x64>
    8da0:	e3c13001 	bic	r3, r1, #1, 0
    8da4:	e1510003 	cmp	r1, r3
    8da8:	e0803103 	add	r3, r0, r3, lsl #2
    8dac:	0a000014 	beq	8e04 <_cstart+0xd4>
    8db0:	e1a01003 	mov	r1, r3
    8db4:	e3a02000 	mov	r2, #0, 0
    8db8:	e4812004 	str	r2, [r1], #4
    8dbc:	e151000c 	cmp	r1, ip
    8dc0:	2a00000f 	bcs	8e04 <_cstart+0xd4>
    8dc4:	e2831008 	add	r1, r3, #8, 0
    8dc8:	e151000c 	cmp	r1, ip
    8dcc:	e5832004 	str	r2, [r3, #4]
    8dd0:	2a00000b 	bcs	8e04 <_cstart+0xd4>
    8dd4:	e283100c 	add	r1, r3, #12, 0
    8dd8:	e151000c 	cmp	r1, ip
    8ddc:	e5832008 	str	r2, [r3, #8]
    8de0:	2a000007 	bcs	8e04 <_cstart+0xd4>
    8de4:	e2831010 	add	r1, r3, #16, 0
    8de8:	e151000c 	cmp	r1, ip
    8dec:	e583200c 	str	r2, [r3, #12]
    8df0:	2a000003 	bcs	8e04 <_cstart+0xd4>
    8df4:	e2831014 	add	r1, r3, #20, 0
    8df8:	e151000c 	cmp	r1, ip
    8dfc:	e5832010 	str	r2, [r3, #16]
    8e00:	35832014 	strcc	r2, [r3, #20]
    8e04:	eb000082 	bl	9014 <uart_init>
    8e08:	e3a03001 	mov	r3, #1, 0
    8e0c:	ee0f3f1c 	mcr	15, 0, r3, cr15, cr12, {0}
    8e10:	ebfffc88 	bl	8038 <notmain>
    8e14:	ebffffba 	bl	8d04 <clean_reboot>
    8e18:	e1a03002 	mov	r3, r2
    8e1c:	eaffffe3 	b	8db0 <_cstart+0x80>
    8e20:	00009d08 	andeq	r9, r0, r8, lsl #26
    8e24:	0000a120 	andeq	sl, r0, r0, lsr #2

00008e28 <custom_loader>:
    8e28:	e12fff1e 	bx	lr

00008e2c <at_user_level>:
    8e2c:	e10f0000 	mrs	r0, CPSR
    8e30:	e200001f 	and	r0, r0, #31, 0
    8e34:	e2400010 	sub	r0, r0, #16, 0
    8e38:	e16f0f10 	clz	r0, r0
    8e3c:	e1a002a0 	lsr	r0, r0, #5
    8e40:	e12fff1e 	bx	lr

00008e44 <set_user_level>:
    8e44:	e10f3000 	mrs	r3, CPSR
    8e48:	e3c3301f 	bic	r3, r3, #31, 0
    8e4c:	e3833010 	orr	r3, r3, #16, 0
    8e50:	e129f003 	msr	CPSR_fc, r3
    8e54:	e12fff1e 	bx	lr

00008e58 <rpi_reboot>:
    8e58:	e92d4010 	push	{r4, lr}
    8e5c:	e10f3000 	mrs	r3, CPSR
    8e60:	e203301f 	and	r3, r3, #31, 0
    8e64:	e3530010 	cmp	r3, #16, 0
    8e68:	1a000003 	bne	8e7c <rpi_reboot+0x24>
    8e6c:	e10f3000 	mrs	r3, CPSR
    8e70:	e3c3301f 	bic	r3, r3, #31, 0
    8e74:	e3833010 	orr	r3, r3, #16, 0
    8e78:	e129f003 	msr	CPSR_fc, r3
    8e7c:	eb00027d 	bl	9878 <reboot_callout>
    8e80:	eb0000c1 	bl	918c <uart_flush_tx>
    8e84:	e3a0000a 	mov	r0, #10, 0
    8e88:	eb000028 	bl	8f30 <delay_ms>
    8e8c:	e59f1014 	ldr	r1, [pc, #20]	; 8ea8 <rpi_reboot+0x50>
    8e90:	e59f0014 	ldr	r0, [pc, #20]	; 8eac <rpi_reboot+0x54>
    8e94:	ebfffc62 	bl	8024 <PUT32>
    8e98:	e59f1010 	ldr	r1, [pc, #16]	; 8eb0 <rpi_reboot+0x58>
    8e9c:	e59f0010 	ldr	r0, [pc, #16]	; 8eb4 <rpi_reboot+0x5c>
    8ea0:	ebfffc5f 	bl	8024 <PUT32>
    8ea4:	eafffffe 	b	8ea4 <rpi_reboot+0x4c>
    8ea8:	5a000001 	bpl	8eb4 <rpi_reboot+0x5c>
    8eac:	20100024 	andscs	r0, r0, r4, lsr #32
    8eb0:	5a000020 	bpl	8f38 <delay_ms+0x8>
    8eb4:	2010001c 	andscs	r0, r0, ip, lsl r0

00008eb8 <timer_get_usec_raw>:
    8eb8:	e59f0000 	ldr	r0, [pc]	; 8ec0 <timer_get_usec_raw+0x8>
    8ebc:	eafffc5a 	b	802c <GET32>
    8ec0:	20003004 	andcs	r3, r0, r4

00008ec4 <timer_get_usec>:
    8ec4:	e92d4010 	push	{r4, lr}
    8ec8:	eb00026b 	bl	987c <dev_barrier>
    8ecc:	e59f0010 	ldr	r0, [pc, #16]	; 8ee4 <timer_get_usec+0x20>
    8ed0:	ebfffc55 	bl	802c <GET32>
    8ed4:	e1a04000 	mov	r4, r0
    8ed8:	eb000267 	bl	987c <dev_barrier>
    8edc:	e1a00004 	mov	r0, r4
    8ee0:	e8bd8010 	pop	{r4, pc}
    8ee4:	20003004 	andcs	r3, r0, r4

00008ee8 <delay_us>:
    8ee8:	e92d41f0 	push	{r4, r5, r6, r7, r8, lr}
    8eec:	e1a06000 	mov	r6, r0
    8ef0:	eb000261 	bl	987c <dev_barrier>
    8ef4:	e59f0030 	ldr	r0, [pc, #48]	; 8f2c <delay_us+0x44>
    8ef8:	ebfffc4b 	bl	802c <GET32>
    8efc:	e1a05000 	mov	r5, r0
    8f00:	eb00025d 	bl	987c <dev_barrier>
    8f04:	e59f7020 	ldr	r7, [pc, #32]	; 8f2c <delay_us+0x44>
    8f08:	eb00025b 	bl	987c <dev_barrier>
    8f0c:	e1a00007 	mov	r0, r7
    8f10:	ebfffc45 	bl	802c <GET32>
    8f14:	e1a04000 	mov	r4, r0
    8f18:	e0444005 	sub	r4, r4, r5
    8f1c:	eb000256 	bl	987c <dev_barrier>
    8f20:	e1540006 	cmp	r4, r6
    8f24:	3afffff7 	bcc	8f08 <delay_us+0x20>
    8f28:	e8bd81f0 	pop	{r4, r5, r6, r7, r8, pc}
    8f2c:	20003004 	andcs	r3, r0, r4

00008f30 <delay_ms>:
    8f30:	e92d41f0 	push	{r4, r5, r6, r7, r8, lr}
    8f34:	e0604280 	rsb	r4, r0, r0, lsl #5
    8f38:	e0800104 	add	r0, r0, r4, lsl #2
    8f3c:	e1a04180 	lsl	r4, r0, #3
    8f40:	eb00024d 	bl	987c <dev_barrier>
    8f44:	e59f0030 	ldr	r0, [pc, #48]	; 8f7c <delay_ms+0x4c>
    8f48:	ebfffc37 	bl	802c <GET32>
    8f4c:	e1a06000 	mov	r6, r0
    8f50:	eb000249 	bl	987c <dev_barrier>
    8f54:	e59f7020 	ldr	r7, [pc, #32]	; 8f7c <delay_ms+0x4c>
    8f58:	eb000247 	bl	987c <dev_barrier>
    8f5c:	e1a00007 	mov	r0, r7
    8f60:	ebfffc31 	bl	802c <GET32>
    8f64:	e1a05000 	mov	r5, r0
    8f68:	e0455006 	sub	r5, r5, r6
    8f6c:	eb000242 	bl	987c <dev_barrier>
    8f70:	e1540005 	cmp	r4, r5
    8f74:	8afffff7 	bhi	8f58 <delay_ms+0x28>
    8f78:	e8bd81f0 	pop	{r4, r5, r6, r7, r8, pc}
    8f7c:	20003004 	andcs	r3, r0, r4

00008f80 <delay_sec>:
    8f80:	e92d41f0 	push	{r4, r5, r6, r7, r8, lr}
    8f84:	e0604280 	rsb	r4, r0, r0, lsl #5
    8f88:	e0644304 	rsb	r4, r4, r4, lsl #6
    8f8c:	e0800184 	add	r0, r0, r4, lsl #3
    8f90:	e1a04300 	lsl	r4, r0, #6
    8f94:	eb000238 	bl	987c <dev_barrier>
    8f98:	e59f0030 	ldr	r0, [pc, #48]	; 8fd0 <delay_sec+0x50>
    8f9c:	ebfffc22 	bl	802c <GET32>
    8fa0:	e1a06000 	mov	r6, r0
    8fa4:	eb000234 	bl	987c <dev_barrier>
    8fa8:	e59f7020 	ldr	r7, [pc, #32]	; 8fd0 <delay_sec+0x50>
    8fac:	eb000232 	bl	987c <dev_barrier>
    8fb0:	e1a00007 	mov	r0, r7
    8fb4:	ebfffc1c 	bl	802c <GET32>
    8fb8:	e1a05000 	mov	r5, r0
    8fbc:	e0455006 	sub	r5, r5, r6
    8fc0:	eb00022d 	bl	987c <dev_barrier>
    8fc4:	e1540005 	cmp	r4, r5
    8fc8:	8afffff7 	bhi	8fac <delay_sec+0x2c>
    8fcc:	e8bd81f0 	pop	{r4, r5, r6, r7, r8, pc}
    8fd0:	20003004 	andcs	r3, r0, r4

00008fd4 <and_in32>:
    8fd4:	e92d4070 	push	{r4, r5, r6, lr}
    8fd8:	e1a04000 	mov	r4, r0
    8fdc:	e1a05001 	mov	r5, r1
    8fe0:	ebfffc11 	bl	802c <GET32>
    8fe4:	e0001005 	and	r1, r0, r5
    8fe8:	e1a00004 	mov	r0, r4
    8fec:	ebfffc0c 	bl	8024 <PUT32>
    8ff0:	e8bd8070 	pop	{r4, r5, r6, pc}

00008ff4 <or_in32>:
    8ff4:	e92d4070 	push	{r4, r5, r6, lr}
    8ff8:	e1a04000 	mov	r4, r0
    8ffc:	e1a05001 	mov	r5, r1
    9000:	ebfffc09 	bl	802c <GET32>
    9004:	e1801005 	orr	r1, r0, r5
    9008:	e1a00004 	mov	r0, r4
    900c:	ebfffc04 	bl	8024 <PUT32>
    9010:	e8bd8070 	pop	{r4, r5, r6, pc}

00009014 <uart_init>:
    9014:	e92d4010 	push	{r4, lr}
    9018:	e3a01002 	mov	r1, #2, 0
    901c:	e3a0000e 	mov	r0, #14, 0
    9020:	eb000153 	bl	9574 <gpio_set_function>
    9024:	e3a01002 	mov	r1, #2, 0
    9028:	e3a0000f 	mov	r0, #15, 0
    902c:	eb000150 	bl	9574 <gpio_set_function>
    9030:	eb000211 	bl	987c <dev_barrier>
    9034:	e3a01001 	mov	r1, #1, 0
    9038:	e59f0064 	ldr	r0, [pc, #100]	; 90a4 <uart_init+0x90>
    903c:	ebffffec 	bl	8ff4 <or_in32>
    9040:	eb00020d 	bl	987c <dev_barrier>
    9044:	e59f405c 	ldr	r4, [pc, #92]	; 90a8 <uart_init+0x94>
    9048:	e3a01000 	mov	r1, #0, 0
    904c:	e1a00004 	mov	r0, r4
    9050:	ebfffbf3 	bl	8024 <PUT32>
    9054:	e3a01000 	mov	r1, #0, 0
    9058:	e59f004c 	ldr	r0, [pc, #76]	; 90ac <uart_init+0x98>
    905c:	ebfffbf0 	bl	8024 <PUT32>
    9060:	e3a01003 	mov	r1, #3, 0
    9064:	e59f0044 	ldr	r0, [pc, #68]	; 90b0 <uart_init+0x9c>
    9068:	ebfffbed 	bl	8024 <PUT32>
    906c:	e3a01000 	mov	r1, #0, 0
    9070:	e59f003c 	ldr	r0, [pc, #60]	; 90b4 <uart_init+0xa0>
    9074:	ebfffbea 	bl	8024 <PUT32>
    9078:	e3a010c7 	mov	r1, #199, 0	; 0xc7
    907c:	e59f0034 	ldr	r0, [pc, #52]	; 90b8 <uart_init+0xa4>
    9080:	ebfffbe7 	bl	8024 <PUT32>
    9084:	e59f1030 	ldr	r1, [pc, #48]	; 90bc <uart_init+0xa8>
    9088:	e59f0030 	ldr	r0, [pc, #48]	; 90c0 <uart_init+0xac>
    908c:	ebfffbe4 	bl	8024 <PUT32>
    9090:	e3a01003 	mov	r1, #3, 0
    9094:	e1a00004 	mov	r0, r4
    9098:	ebfffbe1 	bl	8024 <PUT32>
    909c:	eb0001f6 	bl	987c <dev_barrier>
    90a0:	e8bd8010 	pop	{r4, pc}
    90a4:	20215004 	eorcs	r5, r1, r4
    90a8:	20215060 	eorcs	r5, r1, r0, rrx
    90ac:	20215044 	eorcs	r5, r1, r4, asr #32
    90b0:	2021504c 	eorcs	r5, r1, ip, asr #32
    90b4:	20215050 	eorcs	r5, r1, r0, asr r0
    90b8:	20215048 	eorcs	r5, r1, r8, asr #32
    90bc:	0000010e 	andeq	r0, r0, lr, lsl #2
    90c0:	20215068 	eorcs	r5, r1, r8, rrx

000090c4 <uart_can_getc>:
    90c4:	e92d4010 	push	{r4, lr}
    90c8:	e59f0008 	ldr	r0, [pc, #8]	; 90d8 <uart_can_getc+0x14>
    90cc:	ebfffbd6 	bl	802c <GET32>
    90d0:	e2000001 	and	r0, r0, #1, 0
    90d4:	e8bd8010 	pop	{r4, pc}
    90d8:	20215064 	eorcs	r5, r1, r4, rrx

000090dc <uart_can_putc>:
    90dc:	e92d4010 	push	{r4, lr}
    90e0:	e59f0010 	ldr	r0, [pc, #16]	; 90f8 <uart_can_putc+0x1c>
    90e4:	ebfffbd0 	bl	802c <GET32>
    90e8:	e3100002 	tst	r0, #2, 0
    90ec:	13a00001 	movne	r0, #1, 0
    90f0:	03a00000 	moveq	r0, #0, 0
    90f4:	e8bd8010 	pop	{r4, pc}
    90f8:	20215064 	eorcs	r5, r1, r4, rrx

000090fc <uart_getc>:
    90fc:	e92d4010 	push	{r4, lr}
    9100:	eb0001dd 	bl	987c <dev_barrier>
    9104:	ebffffee 	bl	90c4 <uart_can_getc>
    9108:	e3500000 	cmp	r0, #0, 0
    910c:	0afffffc 	beq	9104 <uart_getc+0x8>
    9110:	e59f0010 	ldr	r0, [pc, #16]	; 9128 <uart_getc+0x2c>
    9114:	ebfffbc4 	bl	802c <GET32>
    9118:	e6ef4070 	uxtb	r4, r0
    911c:	eb0001d6 	bl	987c <dev_barrier>
    9120:	e1a00004 	mov	r0, r4
    9124:	e8bd8010 	pop	{r4, pc}
    9128:	20215040 	eorcs	r5, r1, r0, asr #32

0000912c <uart_putc>:
    912c:	e92d4010 	push	{r4, lr}
    9130:	e1a04000 	mov	r4, r0
    9134:	eb0001d0 	bl	987c <dev_barrier>
    9138:	ebffffe7 	bl	90dc <uart_can_putc>
    913c:	e3500000 	cmp	r0, #0, 0
    9140:	0afffffc 	beq	9138 <uart_putc+0xc>
    9144:	e6ef1074 	uxtb	r1, r4
    9148:	e59f0008 	ldr	r0, [pc, #8]	; 9158 <uart_putc+0x2c>
    914c:	ebfffbb4 	bl	8024 <PUT32>
    9150:	eb0001c9 	bl	987c <dev_barrier>
    9154:	e8bd8010 	pop	{r4, pc}
    9158:	20215040 	eorcs	r5, r1, r0, asr #32

0000915c <uart_has_data>:
    915c:	e92d4010 	push	{r4, lr}
    9160:	eb0001c5 	bl	987c <dev_barrier>
    9164:	ebffffd6 	bl	90c4 <uart_can_getc>
    9168:	e8bd8010 	pop	{r4, pc}

0000916c <uart_tx_is_empty>:
    916c:	e92d4010 	push	{r4, lr}
    9170:	eb0001c1 	bl	987c <dev_barrier>
    9174:	e59f000c 	ldr	r0, [pc, #12]	; 9188 <uart_tx_is_empty+0x1c>
    9178:	ebfffbab 	bl	802c <GET32>
    917c:	e1a004a0 	lsr	r0, r0, #9
    9180:	e2000001 	and	r0, r0, #1, 0
    9184:	e8bd8010 	pop	{r4, pc}
    9188:	20215064 	eorcs	r5, r1, r4, rrx

0000918c <uart_flush_tx>:
    918c:	e92d4010 	push	{r4, lr}
    9190:	ebfffff5 	bl	916c <uart_tx_is_empty>
    9194:	e3500000 	cmp	r0, #0, 0
    9198:	0afffffc 	beq	9190 <uart_flush_tx+0x4>
    919c:	e8bd8010 	pop	{r4, pc}

000091a0 <uart_disable>:
    91a0:	e92d4010 	push	{r4, lr}
    91a4:	ebfffff8 	bl	918c <uart_flush_tx>
    91a8:	eb0001b3 	bl	987c <dev_barrier>
    91ac:	e3e01001 	mvn	r1, #1, 0
    91b0:	e59f0008 	ldr	r0, [pc, #8]	; 91c0 <uart_disable+0x20>
    91b4:	ebffff86 	bl	8fd4 <and_in32>
    91b8:	eb0001af 	bl	987c <dev_barrier>
    91bc:	e8bd8010 	pop	{r4, pc}
    91c0:	20215004 	eorcs	r5, r1, r4

000091c4 <kmalloc_heap_end>:
    91c4:	e59f3004 	ldr	r3, [pc, #4]	; 91d0 <kmalloc_heap_end+0xc>
    91c8:	e5930000 	ldr	r0, [r3]
    91cc:	e12fff1e 	bx	lr
    91d0:	00009cf4 	strdeq	r9, [r0], -r4

000091d4 <kmalloc_heap_start>:
    91d4:	e59f3004 	ldr	r3, [pc, #4]	; 91e0 <kmalloc_heap_start+0xc>
    91d8:	e5930004 	ldr	r0, [r3, #4]
    91dc:	e12fff1e 	bx	lr
    91e0:	00009cf4 	strdeq	r9, [r0], -r4

000091e4 <kmalloc_heap_ptr>:
    91e4:	e59f3004 	ldr	r3, [pc, #4]	; 91f0 <kmalloc_heap_ptr+0xc>
    91e8:	e5930000 	ldr	r0, [r3]
    91ec:	e12fff1e 	bx	lr
    91f0:	00009cf4 	strdeq	r9, [r0], -r4

000091f4 <kmalloc_init_set_start>:
    91f4:	e52de004 	push	{lr}		; (str lr, [sp, #-4]!)
    91f8:	e24dd00c 	sub	sp, sp, #12, 0
    91fc:	e3510000 	cmp	r1, #0, 0
    9200:	0a00000a 	beq	9230 <kmalloc_init_set_start+0x3c>
    9204:	e59f306c 	ldr	r3, [pc, #108]	; 9278 <kmalloc_init_set_start+0x84>
    9208:	e5933000 	ldr	r3, [r3]
    920c:	e1530000 	cmp	r3, r0
    9210:	8a00000e 	bhi	9250 <kmalloc_init_set_start+0x5c>
    9214:	e59f305c 	ldr	r3, [pc, #92]	; 9278 <kmalloc_init_set_start+0x84>
    9218:	e5830000 	str	r0, [r3]
    921c:	e5830004 	str	r0, [r3, #4]
    9220:	e0800001 	add	r0, r0, r1
    9224:	e5830008 	str	r0, [r3, #8]
    9228:	e28dd00c 	add	sp, sp, #12, 0
    922c:	e49df004 	pop	{pc}		; (ldr pc, [sp], #4)
    9230:	e59f3044 	ldr	r3, [pc, #68]	; 927c <kmalloc_init_set_start+0x88>
    9234:	e58d3000 	str	r3, [sp]
    9238:	e3a03030 	mov	r3, #48, 0	; 0x30
    923c:	e59f203c 	ldr	r2, [pc, #60]	; 9280 <kmalloc_init_set_start+0x8c>
    9240:	e59f103c 	ldr	r1, [pc, #60]	; 9284 <kmalloc_init_set_start+0x90>
    9244:	e59f003c 	ldr	r0, [pc, #60]	; 9288 <kmalloc_init_set_start+0x94>
    9248:	ebfffc1c 	bl	82c0 <printk>
    924c:	ebfffeac 	bl	8d04 <clean_reboot>
    9250:	e59f3020 	ldr	r3, [pc, #32]	; 9278 <kmalloc_init_set_start+0x84>
    9254:	e5933008 	ldr	r3, [r3, #8]
    9258:	e58d3004 	str	r3, [sp, #4]
    925c:	e58d0000 	str	r0, [sp]
    9260:	e3a03034 	mov	r3, #52, 0	; 0x34
    9264:	e59f2014 	ldr	r2, [pc, #20]	; 9280 <kmalloc_init_set_start+0x8c>
    9268:	e59f1014 	ldr	r1, [pc, #20]	; 9284 <kmalloc_init_set_start+0x90>
    926c:	e59f0018 	ldr	r0, [pc, #24]	; 928c <kmalloc_init_set_start+0x98>
    9270:	ebfffc12 	bl	82c0 <printk>
    9274:	ebfffea2 	bl	8d04 <clean_reboot>
    9278:	00009cf4 	strdeq	r9, [r0], -r4
    927c:	00009b00 	andeq	r9, r0, r0, lsl #22
    9280:	00009c8c 	andeq	r9, r0, ip, lsl #25
    9284:	00009af4 	strdeq	r9, [r0], -r4
    9288:	00009980 	andeq	r9, r0, r0, lsl #19
    928c:	00009b0c 	andeq	r9, r0, ip, lsl #22

00009290 <kmalloc_init>:
    9290:	e92d4010 	push	{r4, lr}
    9294:	e59f303c 	ldr	r3, [pc, #60]	; 92d8 <kmalloc_init+0x48>
    9298:	e5933000 	ldr	r3, [r3]
    929c:	e3530000 	cmp	r3, #0, 0
    92a0:	1a000006 	bne	92c0 <kmalloc_init+0x30>
    92a4:	e59f302c 	ldr	r3, [pc, #44]	; 92d8 <kmalloc_init+0x48>
    92a8:	e3a02001 	mov	r2, #1, 0
    92ac:	e5832000 	str	r2, [r3]
    92b0:	e3a01201 	mov	r1, #268435456	; 0x10000000
    92b4:	e3a00601 	mov	r0, #1048576	; 0x100000
    92b8:	ebffffcd 	bl	91f4 <kmalloc_init_set_start>
    92bc:	e8bd8010 	pop	{r4, pc}
    92c0:	e3a03040 	mov	r3, #64, 0	; 0x40
    92c4:	e59f2010 	ldr	r2, [pc, #16]	; 92dc <kmalloc_init+0x4c>
    92c8:	e59f1010 	ldr	r1, [pc, #16]	; 92e0 <kmalloc_init+0x50>
    92cc:	e59f0010 	ldr	r0, [pc, #16]	; 92e4 <kmalloc_init+0x54>
    92d0:	ebfffbfa 	bl	82c0 <printk>
    92d4:	ebfffe8a 	bl	8d04 <clean_reboot>
    92d8:	0000a118 	andeq	sl, r0, r8, lsl r1
    92dc:	00009ca4 	andeq	r9, r0, r4, lsr #25
    92e0:	00009af4 	strdeq	r9, [r0], -r4
    92e4:	00009b50 	andeq	r9, r0, r0, asr fp

000092e8 <kmalloc_notzero>:
    92e8:	e52de004 	push	{lr}		; (str lr, [sp, #-4]!)
    92ec:	e24dd00c 	sub	sp, sp, #12, 0
    92f0:	e3500000 	cmp	r0, #0, 0
    92f4:	0a00000a 	beq	9324 <kmalloc_notzero+0x3c>
    92f8:	e2800007 	add	r0, r0, #7, 0
    92fc:	e3c03007 	bic	r3, r0, #7, 0
    9300:	e59f2060 	ldr	r2, [pc, #96]	; 9368 <kmalloc_notzero+0x80>
    9304:	e5920000 	ldr	r0, [r2]
    9308:	e0801003 	add	r1, r0, r3
    930c:	e5821000 	str	r1, [r2]
    9310:	e5922008 	ldr	r2, [r2, #8]
    9314:	e1510002 	cmp	r1, r2
    9318:	8a000009 	bhi	9344 <kmalloc_notzero+0x5c>
    931c:	e28dd00c 	add	sp, sp, #12, 0
    9320:	e49df004 	pop	{pc}		; (ldr pc, [sp], #4)
    9324:	e59f3040 	ldr	r3, [pc, #64]	; 936c <kmalloc_notzero+0x84>
    9328:	e58d3000 	str	r3, [sp]
    932c:	e3a03048 	mov	r3, #72, 0	; 0x48
    9330:	e59f2038 	ldr	r2, [pc, #56]	; 9370 <kmalloc_notzero+0x88>
    9334:	e59f1038 	ldr	r1, [pc, #56]	; 9374 <kmalloc_notzero+0x8c>
    9338:	e59f0038 	ldr	r0, [pc, #56]	; 9378 <kmalloc_notzero+0x90>
    933c:	ebfffbdf 	bl	82c0 <printk>
    9340:	ebfffe6f 	bl	8d04 <clean_reboot>
    9344:	e0422000 	sub	r2, r2, r0
    9348:	e58d2004 	str	r2, [sp, #4]
    934c:	e58d3000 	str	r3, [sp]
    9350:	e3a0304e 	mov	r3, #78, 0	; 0x4e
    9354:	e59f2014 	ldr	r2, [pc, #20]	; 9370 <kmalloc_notzero+0x88>
    9358:	e59f1014 	ldr	r1, [pc, #20]	; 9374 <kmalloc_notzero+0x8c>
    935c:	e59f0018 	ldr	r0, [pc, #24]	; 937c <kmalloc_notzero+0x94>
    9360:	ebfffbd6 	bl	82c0 <printk>
    9364:	ebfffe66 	bl	8d04 <clean_reboot>
    9368:	00009cf4 	strdeq	r9, [r0], -r4
    936c:	00009b04 	andeq	r9, r0, r4, lsl #22
    9370:	00009cb4 			; <UNDEFINED> instruction: 0x00009cb4
    9374:	00009af4 	strdeq	r9, [r0], -r4
    9378:	00009980 	andeq	r9, r0, r0, lsl #19
    937c:	00009b80 	andeq	r9, r0, r0, lsl #23

00009380 <kmalloc>:
    9380:	e92d4030 	push	{r4, r5, lr}
    9384:	e24dd00c 	sub	sp, sp, #12, 0
    9388:	e2504000 	subs	r4, r0, #0, 0
    938c:	0a000008 	beq	93b4 <kmalloc+0x34>
    9390:	e1a00004 	mov	r0, r4
    9394:	ebffffd3 	bl	92e8 <kmalloc_notzero>
    9398:	e1a05000 	mov	r5, r0
    939c:	e1a02004 	mov	r2, r4
    93a0:	e3a01000 	mov	r1, #0, 0
    93a4:	eb0000d8 	bl	970c <memset>
    93a8:	e1a00005 	mov	r0, r5
    93ac:	e28dd00c 	add	sp, sp, #12, 0
    93b0:	e8bd8030 	pop	{r4, r5, pc}
    93b4:	e59f3018 	ldr	r3, [pc, #24]	; 93d4 <kmalloc+0x54>
    93b8:	e58d3000 	str	r3, [sp]
    93bc:	e3a03054 	mov	r3, #84, 0	; 0x54
    93c0:	e59f2010 	ldr	r2, [pc, #16]	; 93d8 <kmalloc+0x58>
    93c4:	e59f1010 	ldr	r1, [pc, #16]	; 93dc <kmalloc+0x5c>
    93c8:	e59f0010 	ldr	r0, [pc, #16]	; 93e0 <kmalloc+0x60>
    93cc:	ebfffbbb 	bl	82c0 <printk>
    93d0:	ebfffe4b 	bl	8d04 <clean_reboot>
    93d4:	00009b04 	andeq	r9, r0, r4, lsl #22
    93d8:	00009cc4 	andeq	r9, r0, r4, asr #25
    93dc:	00009af4 	strdeq	r9, [r0], -r4
    93e0:	00009980 	andeq	r9, r0, r0, lsl #19

000093e4 <kmalloc_aligned>:
    93e4:	e52de004 	push	{lr}		; (str lr, [sp, #-4]!)
    93e8:	e24dd00c 	sub	sp, sp, #12, 0
    93ec:	e3500000 	cmp	r0, #0, 0
    93f0:	0a000014 	beq	9448 <kmalloc_aligned+0x64>
    93f4:	e2613000 	rsb	r3, r1, #0, 0
    93f8:	e1d13003 	bics	r3, r1, r3
    93fc:	1a000019 	bne	9468 <kmalloc_aligned+0x84>
    9400:	e3510008 	cmp	r1, #8, 0
    9404:	33a01008 	movcc	r1, #8, 0
    9408:	e59f30c0 	ldr	r3, [pc, #192]	; 94d0 <kmalloc_aligned+0xec>
    940c:	e5932000 	ldr	r2, [r3]
    9410:	e2613000 	rsb	r3, r1, #0, 0
    9414:	e1d1c003 	bics	ip, r1, r3
    9418:	1a00001b 	bne	948c <kmalloc_aligned+0xa8>
    941c:	e0822001 	add	r2, r2, r1
    9420:	e2422001 	sub	r2, r2, #1, 0
    9424:	e0033002 	and	r3, r3, r2
    9428:	e2411001 	sub	r1, r1, #1, 0
    942c:	e1110003 	tst	r1, r3
    9430:	1a00001d 	bne	94ac <kmalloc_aligned+0xc8>
    9434:	e59f2094 	ldr	r2, [pc, #148]	; 94d0 <kmalloc_aligned+0xec>
    9438:	e5823000 	str	r3, [r2]
    943c:	ebffffcf 	bl	9380 <kmalloc>
    9440:	e28dd00c 	add	sp, sp, #12, 0
    9444:	e49df004 	pop	{pc}		; (ldr pc, [sp], #4)
    9448:	e59f3084 	ldr	r3, [pc, #132]	; 94d4 <kmalloc_aligned+0xf0>
    944c:	e58d3000 	str	r3, [sp]
    9450:	e3a0305f 	mov	r3, #95, 0	; 0x5f
    9454:	e59f207c 	ldr	r2, [pc, #124]	; 94d8 <kmalloc_aligned+0xf4>
    9458:	e59f107c 	ldr	r1, [pc, #124]	; 94dc <kmalloc_aligned+0xf8>
    945c:	e59f007c 	ldr	r0, [pc, #124]	; 94e0 <kmalloc_aligned+0xfc>
    9460:	ebfffb96 	bl	82c0 <printk>
    9464:	ebfffe26 	bl	8d04 <clean_reboot>
    9468:	eb0000ca 	bl	9798 <rpi_reset_putc>
    946c:	e59f3070 	ldr	r3, [pc, #112]	; 94e4 <kmalloc_aligned+0x100>
    9470:	e58d3000 	str	r3, [sp]
    9474:	e3a03060 	mov	r3, #96, 0	; 0x60
    9478:	e59f2058 	ldr	r2, [pc, #88]	; 94d8 <kmalloc_aligned+0xf4>
    947c:	e59f1058 	ldr	r1, [pc, #88]	; 94dc <kmalloc_aligned+0xf8>
    9480:	e59f0060 	ldr	r0, [pc, #96]	; 94e8 <kmalloc_aligned+0x104>
    9484:	ebfffb8d 	bl	82c0 <printk>
    9488:	ebfffe1d 	bl	8d04 <clean_reboot>
    948c:	e59f3058 	ldr	r3, [pc, #88]	; 94ec <kmalloc_aligned+0x108>
    9490:	e58d3000 	str	r3, [sp]
    9494:	e3a03011 	mov	r3, #17, 0
    9498:	e59f2050 	ldr	r2, [pc, #80]	; 94f0 <kmalloc_aligned+0x10c>
    949c:	e59f1038 	ldr	r1, [pc, #56]	; 94dc <kmalloc_aligned+0xf8>
    94a0:	e59f0038 	ldr	r0, [pc, #56]	; 94e0 <kmalloc_aligned+0xfc>
    94a4:	ebfffb85 	bl	82c0 <printk>
    94a8:	ebfffe15 	bl	8d04 <clean_reboot>
    94ac:	eb0000b9 	bl	9798 <rpi_reset_putc>
    94b0:	e59f303c 	ldr	r3, [pc, #60]	; 94f4 <kmalloc_aligned+0x110>
    94b4:	e58d3000 	str	r3, [sp]
    94b8:	e3a03068 	mov	r3, #104, 0	; 0x68
    94bc:	e59f2014 	ldr	r2, [pc, #20]	; 94d8 <kmalloc_aligned+0xf4>
    94c0:	e59f1014 	ldr	r1, [pc, #20]	; 94dc <kmalloc_aligned+0xf8>
    94c4:	e59f002c 	ldr	r0, [pc, #44]	; 94f8 <kmalloc_aligned+0x114>
    94c8:	ebfffb7c 	bl	82c0 <printk>
    94cc:	ebfffe0c 	bl	8d04 <clean_reboot>
    94d0:	00009cf4 	strdeq	r9, [r0], -r4
    94d4:	00009b04 	andeq	r9, r0, r4, lsl #22
    94d8:	00009ccc 	andeq	r9, r0, ip, asr #25
    94dc:	00009af4 	strdeq	r9, [r0], -r4
    94e0:	00009980 	andeq	r9, r0, r0, lsl #19
    94e4:	00009bf4 	strdeq	r9, [r0], -r4
    94e8:	00009bc0 	andeq	r9, r0, r0, asr #23
    94ec:	00009c08 	andeq	r9, r0, r8, lsl #24
    94f0:	00009cdc 	ldrdeq	r9, [r0], -ip
    94f4:	00009c40 	andeq	r9, r0, r0, asr #24
    94f8:	00009c14 	andeq	r9, r0, r4, lsl ip

000094fc <kfree>:
    94fc:	e12fff1e 	bx	lr

00009500 <kfree_all>:
    9500:	e59f3008 	ldr	r3, [pc, #8]	; 9510 <kfree_all+0x10>
    9504:	e5932004 	ldr	r2, [r3, #4]
    9508:	e5832000 	str	r2, [r3]
    950c:	e12fff1e 	bx	lr
    9510:	00009cf4 	strdeq	r9, [r0], -r4

00009514 <kfree_pop>:
    9514:	e59f3048 	ldr	r3, [pc, #72]	; 9564 <kfree_pop+0x50>
    9518:	e5933004 	ldr	r3, [r3, #4]
    951c:	e1530000 	cmp	r3, r0
    9520:	8a000006 	bhi	9540 <kfree_pop+0x2c>
    9524:	e59f3038 	ldr	r3, [pc, #56]	; 9564 <kfree_pop+0x50>
    9528:	e5933008 	ldr	r3, [r3, #8]
    952c:	e1530000 	cmp	r3, r0
    9530:	3a000002 	bcc	9540 <kfree_pop+0x2c>
    9534:	e59f3028 	ldr	r3, [pc, #40]	; 9564 <kfree_pop+0x50>
    9538:	e5830000 	str	r0, [r3]
    953c:	e12fff1e 	bx	lr
    9540:	e52de004 	push	{lr}		; (str lr, [sp, #-4]!)
    9544:	e24dd00c 	sub	sp, sp, #12, 0
    9548:	e58d0000 	str	r0, [sp]
    954c:	e3a03077 	mov	r3, #119, 0	; 0x77
    9550:	e59f2010 	ldr	r2, [pc, #16]	; 9568 <kfree_pop+0x54>
    9554:	e59f1010 	ldr	r1, [pc, #16]	; 956c <kfree_pop+0x58>
    9558:	e59f0010 	ldr	r0, [pc, #16]	; 9570 <kfree_pop+0x5c>
    955c:	ebfffb57 	bl	82c0 <printk>
    9560:	ebfffde7 	bl	8d04 <clean_reboot>
    9564:	00009cf4 	strdeq	r9, [r0], -r4
    9568:	00009ce4 	andeq	r9, r0, r4, ror #25
    956c:	00009af4 	strdeq	r9, [r0], -r4
    9570:	00009c5c 	andeq	r9, r0, ip, asr ip

00009574 <gpio_set_function>:
    9574:	e350001f 	cmp	r0, #31, 0
    9578:	812fff1e 	bxhi	lr
    957c:	e3d13007 	bics	r3, r1, #7, 0
    9580:	e92d4070 	push	{r4, r5, r6, lr}
    9584:	e1a05001 	mov	r5, r1
    9588:	18bd8070 	popne	{r4, r5, r6, pc}
    958c:	e59f403c 	ldr	r4, [pc, #60]	; 95d0 <gpio_set_function+0x5c>
    9590:	e0843094 	umull	r3, r4, r4, r0
    9594:	e1a041a4 	lsr	r4, r4, #3
    9598:	e2843302 	add	r3, r4, #134217728	; 0x8000000
    959c:	e2833702 	add	r3, r3, #524288	; 0x80000
    95a0:	e1a06103 	lsl	r6, r3, #2
    95a4:	e0844104 	add	r4, r4, r4, lsl #2
    95a8:	e0404084 	sub	r4, r0, r4, lsl #1
    95ac:	e1a00006 	mov	r0, r6
    95b0:	ebfffa9d 	bl	802c <GET32>
    95b4:	e3a01007 	mov	r1, #7, 0
    95b8:	e0844084 	add	r4, r4, r4, lsl #1
    95bc:	e1c01411 	bic	r1, r0, r1, lsl r4
    95c0:	e1811415 	orr	r1, r1, r5, lsl r4
    95c4:	e1a00006 	mov	r0, r6
    95c8:	e8bd4070 	pop	{r4, r5, r6, lr}
    95cc:	eafffa94 	b	8024 <PUT32>
    95d0:	cccccccd 	stclgt	12, cr12, [ip], {205}	; 0xcd

000095d4 <gpio_set_output>:
    95d4:	e350001f 	cmp	r0, #31, 0
    95d8:	812fff1e 	bxhi	lr
    95dc:	e92d4070 	push	{r4, r5, r6, lr}
    95e0:	e59f4040 	ldr	r4, [pc, #64]	; 9628 <gpio_set_output+0x54>
    95e4:	e0843094 	umull	r3, r4, r4, r0
    95e8:	e1a041a4 	lsr	r4, r4, #3
    95ec:	e2843302 	add	r3, r4, #134217728	; 0x8000000
    95f0:	e2833702 	add	r3, r3, #524288	; 0x80000
    95f4:	e1a05103 	lsl	r5, r3, #2
    95f8:	e0844104 	add	r4, r4, r4, lsl #2
    95fc:	e0404084 	sub	r4, r0, r4, lsl #1
    9600:	e1a00005 	mov	r0, r5
    9604:	ebfffa88 	bl	802c <GET32>
    9608:	e3a03007 	mov	r3, #7, 0
    960c:	e3a01001 	mov	r1, #1, 0
    9610:	e0844084 	add	r4, r4, r4, lsl #1
    9614:	e1c03413 	bic	r3, r0, r3, lsl r4
    9618:	e1831411 	orr	r1, r3, r1, lsl r4
    961c:	e1a00005 	mov	r0, r5
    9620:	e8bd4070 	pop	{r4, r5, r6, lr}
    9624:	eafffa7e 	b	8024 <PUT32>
    9628:	cccccccd 	stclgt	12, cr12, [ip], {205}	; 0xcd

0000962c <gpio_set_on>:
    962c:	e1a03000 	mov	r3, r0
    9630:	e3a01001 	mov	r1, #1, 0
    9634:	e59f0004 	ldr	r0, [pc, #4]	; 9640 <gpio_set_on+0x14>
    9638:	e1a01311 	lsl	r1, r1, r3
    963c:	eafffa78 	b	8024 <PUT32>
    9640:	2020001c 	eorcs	r0, r0, ip, lsl r0

00009644 <gpio_set_off>:
    9644:	e1a03000 	mov	r3, r0
    9648:	e3a01001 	mov	r1, #1, 0
    964c:	e59f0004 	ldr	r0, [pc, #4]	; 9658 <gpio_set_off+0x14>
    9650:	e1a01311 	lsl	r1, r1, r3
    9654:	eafffa72 	b	8024 <PUT32>
    9658:	20200028 	eorcs	r0, r0, r8, lsr #32

0000965c <gpio_set_input>:
    965c:	e350001f 	cmp	r0, #31, 0
    9660:	812fff1e 	bxhi	lr
    9664:	e92d4070 	push	{r4, r5, r6, lr}
    9668:	e59f5040 	ldr	r5, [pc, #64]	; 96b0 <gpio_set_input+0x54>
    966c:	e1a04000 	mov	r4, r0
    9670:	e0853095 	umull	r3, r5, r5, r0
    9674:	e1a051a5 	lsr	r5, r5, #3
    9678:	e2850302 	add	r0, r5, #134217728	; 0x8000000
    967c:	e2800702 	add	r0, r0, #524288	; 0x80000
    9680:	e1a06100 	lsl	r6, r0, #2
    9684:	e1a00006 	mov	r0, r6
    9688:	ebfffa67 	bl	802c <GET32>
    968c:	e3a01007 	mov	r1, #7, 0
    9690:	e1a03000 	mov	r3, r0
    9694:	e0855105 	add	r5, r5, r5, lsl #2
    9698:	e0444085 	sub	r4, r4, r5, lsl #1
    969c:	e0844084 	add	r4, r4, r4, lsl #1
    96a0:	e1a00006 	mov	r0, r6
    96a4:	e1c31411 	bic	r1, r3, r1, lsl r4
    96a8:	e8bd4070 	pop	{r4, r5, r6, lr}
    96ac:	eafffa5c 	b	8024 <PUT32>
    96b0:	cccccccd 	stclgt	12, cr12, [ip], {205}	; 0xcd

000096b4 <gpio_write>:
    96b4:	e3510000 	cmp	r1, #0, 0
    96b8:	e3a03001 	mov	r3, #1, 0
    96bc:	e1a01000 	mov	r1, r0
    96c0:	0a000002 	beq	96d0 <gpio_write+0x1c>
    96c4:	e59f0010 	ldr	r0, [pc, #16]	; 96dc <gpio_write+0x28>
    96c8:	e1a01113 	lsl	r1, r3, r1
    96cc:	eafffa54 	b	8024 <PUT32>
    96d0:	e59f0008 	ldr	r0, [pc, #8]	; 96e0 <gpio_write+0x2c>
    96d4:	e1a01113 	lsl	r1, r3, r1
    96d8:	eafffa51 	b	8024 <PUT32>
    96dc:	2020001c 	eorcs	r0, r0, ip, lsl r0
    96e0:	20200028 	eorcs	r0, r0, r8, lsr #32

000096e4 <gpio_read>:
    96e4:	e92d4010 	push	{r4, lr}
    96e8:	e1a04000 	mov	r4, r0
    96ec:	e59f0014 	ldr	r0, [pc, #20]	; 9708 <gpio_read+0x24>
    96f0:	e08002a4 	add	r0, r0, r4, lsr #5
    96f4:	ebfffa4c 	bl	802c <GET32>
    96f8:	e204401f 	and	r4, r4, #31, 0
    96fc:	e1a00430 	lsr	r0, r0, r4
    9700:	e2000001 	and	r0, r0, #1, 0
    9704:	e8bd8010 	pop	{r4, pc}
    9708:	20200034 	eorcs	r0, r0, r4, lsr r0

0000970c <memset>:
    970c:	e92d4010 	push	{r4, lr}
    9710:	e0804002 	add	r4, r0, r2
    9714:	e1500004 	cmp	r0, r4
    9718:	28bd8010 	popcs	{r4, pc}
    971c:	e2423001 	sub	r3, r2, #1, 0
    9720:	e3530002 	cmp	r3, #2, 0
    9724:	e6ef1071 	uxtb	r1, r1
    9728:	e1a03000 	mov	r3, r0
    972c:	9a00000b 	bls	9760 <memset+0x54>
    9730:	e181e401 	orr	lr, r1, r1, lsl #8
    9734:	e18ee801 	orr	lr, lr, r1, lsl #16
    9738:	e3c2c003 	bic	ip, r2, #3, 0
    973c:	e18eec01 	orr	lr, lr, r1, lsl #24
    9740:	e08cc000 	add	ip, ip, r0
    9744:	e483e004 	str	lr, [r3], #4
    9748:	e153000c 	cmp	r3, ip
    974c:	1afffffc 	bne	9744 <memset+0x38>
    9750:	e3c23003 	bic	r3, r2, #3, 0
    9754:	e1520003 	cmp	r2, r3
    9758:	e0803003 	add	r3, r0, r3
    975c:	08bd8010 	popeq	{r4, pc}
    9760:	e1a02003 	mov	r2, r3
    9764:	e4c21001 	strb	r1, [r2], #1
    9768:	e1540002 	cmp	r4, r2
    976c:	98bd8010 	popls	{r4, pc}
    9770:	e2832002 	add	r2, r3, #2, 0
    9774:	e1540002 	cmp	r4, r2
    9778:	e5c31001 	strb	r1, [r3, #1]
    977c:	85c31002 	strbhi	r1, [r3, #2]
    9780:	e8bd8010 	pop	{r4, pc}

00009784 <internal_putchar>:
    9784:	e92d4010 	push	{r4, lr}
    9788:	e1a04000 	mov	r4, r0
    978c:	ebfffe66 	bl	912c <uart_putc>
    9790:	e1a00004 	mov	r0, r4
    9794:	e8bd8010 	pop	{r4, pc}

00009798 <rpi_reset_putc>:
    9798:	e59f3008 	ldr	r3, [pc, #8]	; 97a8 <rpi_reset_putc+0x10>
    979c:	e59f2008 	ldr	r2, [pc, #8]	; 97ac <rpi_reset_putc+0x14>
    97a0:	e5832000 	str	r2, [r3]
    97a4:	e12fff1e 	bx	lr
    97a8:	00009d00 	andeq	r9, r0, r0, lsl #26
    97ac:	00009784 	andeq	r9, r0, r4, lsl #15

000097b0 <rpi_set_putc>:
    97b0:	e59f3004 	ldr	r3, [pc, #4]	; 97bc <rpi_set_putc+0xc>
    97b4:	e5830000 	str	r0, [r3]
    97b8:	e12fff1e 	bx	lr
    97bc:	00009d00 	andeq	r9, r0, r0, lsl #26

000097c0 <strcat>:
    97c0:	e1a02000 	mov	r2, r0
    97c4:	e1a03002 	mov	r3, r2
    97c8:	e4d2c001 	ldrb	ip, [r2], #1
    97cc:	e35c0000 	cmp	ip, #0, 0
    97d0:	1afffffb 	bne	97c4 <strcat+0x4>
    97d4:	e2433001 	sub	r3, r3, #1, 0
    97d8:	e4d12001 	ldrb	r2, [r1], #1
    97dc:	e3520000 	cmp	r2, #0, 0
    97e0:	e5e32001 	strb	r2, [r3, #1]!
    97e4:	1afffffb 	bne	97d8 <strcat+0x18>
    97e8:	e12fff1e 	bx	lr

000097ec <strcmp>:
    97ec:	e5d03000 	ldrb	r3, [r0]
    97f0:	e3530000 	cmp	r3, #0, 0
    97f4:	05d12000 	ldrbeq	r2, [r1]
    97f8:	1a000003 	bne	980c <strcmp+0x20>
    97fc:	ea000006 	b	981c <strcmp+0x30>
    9800:	e5f03001 	ldrb	r3, [r0, #1]!
    9804:	e3530000 	cmp	r3, #0, 0
    9808:	0a000005 	beq	9824 <strcmp+0x38>
    980c:	e1a0c001 	mov	ip, r1
    9810:	e4d12001 	ldrb	r2, [r1], #1
    9814:	e1520003 	cmp	r2, r3
    9818:	0afffff8 	beq	9800 <strcmp+0x14>
    981c:	e0430002 	sub	r0, r3, r2
    9820:	e12fff1e 	bx	lr
    9824:	e5dc2001 	ldrb	r2, [ip, #1]
    9828:	e0430002 	sub	r0, r3, r2
    982c:	e12fff1e 	bx	lr

00009830 <strcpy>:
    9830:	e2402001 	sub	r2, r0, #1, 0
    9834:	e4d13001 	ldrb	r3, [r1], #1
    9838:	e3530000 	cmp	r3, #0, 0
    983c:	e5e23001 	strb	r3, [r2, #1]!
    9840:	1afffffb 	bne	9834 <strcpy+0x4>
    9844:	e12fff1e 	bx	lr

00009848 <strncmp>:
    9848:	e0802002 	add	r2, r0, r2
    984c:	ea000003 	b	9860 <strncmp+0x18>
    9850:	e4d03001 	ldrb	r3, [r0], #1
    9854:	e4d1c001 	ldrb	ip, [r1], #1
    9858:	e153000c 	cmp	r3, ip
    985c:	1a000003 	bne	9870 <strncmp+0x28>
    9860:	e1500002 	cmp	r0, r2
    9864:	1afffff9 	bne	9850 <strncmp+0x8>
    9868:	e3a00000 	mov	r0, #0, 0
    986c:	e12fff1e 	bx	lr
    9870:	e043000c 	sub	r0, r3, ip
    9874:	e12fff1e 	bx	lr

00009878 <reboot_callout>:
    9878:	e12fff1e 	bx	lr

0000987c <dev_barrier>:
    987c:	ea000002 	b	988c <dsb>

00009880 <dmb>:
    9880:	e3a00000 	mov	r0, #0, 0
    9884:	ee070fba 	mcr	15, 0, r0, cr7, cr10, {5}
    9888:	e12fff1e 	bx	lr

0000988c <dsb>:
    988c:	ee070f9a 	mcr	15, 0, r0, cr7, cr10, {4}
    9890:	e12fff1e 	bx	lr

00009894 <__code_end__>:
    9894:	00000000 	andeq	r0, r0, r0

Disassembly of section .rodata:

00009898 <__FUNCTION__.3951-0xcc>:
    9898:	6c6c616d 	stfvse	f6, [ip], #-436	; 0xfffffe4c
    989c:	3128636f 			; <UNDEFINED> instruction: 0x3128636f
    98a0:	70253d29 	eorvc	r3, r5, r9, lsr #26
    98a4:	6964202c 	stmdbvs	r4!, {r2, r3, r5, sp}^
    98a8:	253d6666 	ldrcs	r6, [sp, #-1638]!	; 0xfffff99a
    98ac:	000a646c 	andeq	r6, sl, ip, ror #8
    98b0:	65742d30 	ldrbvs	r2, [r4, #-3376]!	; 0xfffff2d0
    98b4:	6d2d7473 	cfstrsvs	mvf7, [sp, #-460]!	; 0xfffffe34
    98b8:	6f6c6c61 	svcvs	0x006c6c61
    98bc:	00632e63 	rsbeq	r2, r3, r3, ror #28
    98c0:	494e4150 	stmdbmi	lr, {r4, r6, r8, lr}^
    98c4:	73253a43 			; <UNDEFINED> instruction: 0x73253a43
    98c8:	3a73253a 	bcc	1cd2db8 <__bss_end__+0x1cc8c98>
    98cc:	653a6425 	ldrvs	r6, [sl, #-1061]!	; 0xfffffbdb
    98d0:	63657078 	cmnvs	r5, #120, 0	; 0x78
    98d4:	20646574 	rsbcs	r6, r4, r4, ror r5
    98d8:	72206f74 	eorvc	r6, r0, #116, 30	; 0x1d0
    98dc:	6c6c6165 	stfvse	f6, [ip], #-404	; 0xfffffe6c
    98e0:	7461636f 	strbtvc	r6, [r1], #-879	; 0xfffffc91
    98e4:	72662065 	rsbvc	r2, r6, #101, 0	; 0x65
    98e8:	20646565 	rsbcs	r6, r4, r5, ror #10
    98ec:	20727470 	rsbscs	r7, r2, r0, ror r4
    98f0:	0a0a7025 	beq	2a598c <__bss_end__+0x29b86c>
    98f4:	00000000 	andeq	r0, r0, r0
    98f8:	43415254 	movtmi	r5, #4692	; 0x1254
    98fc:	00003a45 	andeq	r3, r0, r5, asr #20
    9900:	72657469 	rsbvc	r7, r5, #1761607680	; 0x69000000
    9904:	3a64253d 	bcc	1912e00 <__bss_end__+0x1908ce0>
    9908:	69727420 	ldmdbvs	r2!, {r5, sl, ip, sp, lr}^
    990c:	6c616976 			; <UNDEFINED> instruction: 0x6c616976
    9910:	65726620 	ldrbvs	r6, [r2, #-1568]!	; 0xfffff9e0
    9914:	6c612f65 	stclvs	15, cr2, [r1], #-404	; 0xfffffe6c
    9918:	20636f6c 	rsbcs	r6, r3, ip, ror #30
    991c:	6b726f77 	blvs	1ca5700 <__bss_end__+0x1c9b5e0>
    9920:	61206465 			; <UNDEFINED> instruction: 0x61206465
    9924:	78652073 	stmdavc	r5!, {r0, r1, r4, r5, r6, sp}^
    9928:	74636570 	strbtvc	r6, [r3], #-1392	; 0xfffffa90
    992c:	000a6465 	andeq	r6, sl, r5, ror #8
    9930:	63637573 	cmnvs	r3, #482344960	; 0x1cc00000
    9934:	3a737365 	bcc	1ce66d0 <__bss_end__+0x1cdc5b0>
    9938:	6c616d20 	stclvs	13, cr6, [r1], #-128	; 0xffffff80
    993c:	2f636f6c 	svccs	0x00636f6c
    9940:	65657266 	strbvs	r7, [r5, #-614]!	; 0xfffffd9a
    9944:	70706120 	rsbsvc	r6, r0, r0, lsr #2
    9948:	20726165 	rsbscs	r6, r2, r5, ror #2
    994c:	77206f74 			; <UNDEFINED> instruction: 0x77206f74
    9950:	206b726f 	rsbcs	r7, fp, pc, ror #4
    9954:	25206e6f 	strcs	r6, [r0, #-3695]!	; 0xfffff191
    9958:	65742064 	ldrbvs	r2, [r4, #-100]!	; 0xffffff9c
    995c:	21737473 	cmncs	r3, r3, ror r4
    9960:	0000000a 	andeq	r0, r0, sl

00009964 <__FUNCTION__.3951>:
    9964:	6d746f6e 	ldclvs	15, cr6, [r4, #-440]!	; 0xfffffe48
    9968:	006e6961 	rsbeq	r6, lr, r1, ror #18
    996c:	696c2f2e 	stmdbvs	ip!, {r1, r2, r3, r5, r8, r9, sl, fp, sp}^
    9970:	762f6362 	strtvc	r6, [pc], -r2, ror #6
    9974:	72702d61 	rsbsvc	r2, r0, #6208	; 0x1840
    9978:	6b746e69 	blvs	1d25324 <__bss_end__+0x1d1b204>
    997c:	0000632e 	andeq	r6, r0, lr, lsr #6
    9980:	494e4150 	stmdbmi	lr, {r4, r6, r8, lr}^
    9984:	73253a43 			; <UNDEFINED> instruction: 0x73253a43
    9988:	3a73253a 	bcc	1cd2e78 <__bss_end__+0x1cc8d58>
    998c:	253a6425 	ldrcs	r6, [sl, #-1061]!	; 0xfffffbdb
    9990:	00000a73 	andeq	r0, r0, r3, ror sl
    9994:	00000030 	andeq	r0, r0, r0, lsr r0
    9998:	33323130 	teqcc	r2, #12
    999c:	37363534 			; <UNDEFINED> instruction: 0x37363534
    99a0:	62613938 	rsbvs	r3, r1, #56, 18	; 0xe0000
    99a4:	66656463 	strbtvs	r6, [r5], -r3, ror #8
    99a8:	00000000 	andeq	r0, r0, r0
    99ac:	00003130 	andeq	r3, r0, r0, lsr r1
    99b0:	33323130 	teqcc	r2, #12
    99b4:	37363534 			; <UNDEFINED> instruction: 0x37363534
    99b8:	00003938 	andeq	r3, r0, r8, lsr r9
    99bc:	63747570 	cmnvs	r4, #112, 10	; 0x1c000000
    99c0:	0070665f 	rsbseq	r6, r0, pc, asr r6
    99c4:	74646977 	strbtvc	r6, [r4], #-2423	; 0xfffff689
    99c8:	203c2068 	eorscs	r2, ip, r8, rrx
    99cc:	00003233 	andeq	r3, r0, r3, lsr r2
    99d0:	00786c6c 	rsbseq	r6, r8, ip, ror #24
    99d4:	253d3078 	ldrcs	r3, [sp, #-120]!	; 0xffffff88
    99d8:	00000a78 	andeq	r0, r0, r8, ror sl
    99dc:	253d3178 	ldrcs	r3, [sp, #-376]!	; 0xfffffe88
    99e0:	00000a78 	andeq	r0, r0, r8, ror sl
    99e4:	00646c6c 	rsbeq	r6, r4, ip, ror #24
    99e8:	6e727473 	mrcvs	4, 3, r7, cr2, cr3, {3}
    99ec:	28706d63 	ldmdacs	r0!, {r0, r1, r5, r6, r8, sl, fp, sp, lr}^
    99f0:	202c7974 	eorcs	r7, ip, r4, ror r9
    99f4:	786c6c22 	stmdavc	ip!, {r1, r5, sl, fp, sp, lr}^
    99f8:	33202c22 			; <UNDEFINED> instruction: 0x33202c22
    99fc:	3d3d2029 	ldccc	0, cr2, [sp, #-164]!	; 0xffffff5c
    9a00:	7c203020 	stcvc	0, cr3, [r0], #-128	; 0xffffff80
    9a04:	7473207c 	ldrbtvc	r2, [r3], #-124	; 0xffffff84
    9a08:	6d636e72 	stclvs	14, cr6, [r3, #-456]!	; 0xfffffe38
    9a0c:	79742870 	ldmdbvc	r4!, {r4, r5, r6, fp, sp}^
    9a10:	6c22202c 	stcvs	0, cr2, [r2], #-176	; 0xffffff50
    9a14:	2c22646c 	cfstrscs	mvf6, [r2], #-432	; 0xfffffe50
    9a18:	20293320 	eorcs	r3, r9, r0, lsr #6
    9a1c:	30203d3d 	eorcc	r3, r0, sp, lsr sp
    9a20:	00000000 	andeq	r0, r0, r0
    9a24:	494e4150 	stmdbmi	lr, {r4, r6, r8, lr}^
    9a28:	73253a43 			; <UNDEFINED> instruction: 0x73253a43
    9a2c:	3a73253a 	bcc	1cd2f1c <__bss_end__+0x1cc8dfc>
    9a30:	693a6425 	ldmdbvs	sl!, {r0, r2, r5, sl, sp, lr}
    9a34:	736f706d 	cmnvc	pc, #109, 0	; 0x6d
    9a38:	6c626973 			; <UNDEFINED> instruction: 0x6c626973
    9a3c:	66203a65 	strtvs	r3, [r0], -r5, ror #20
    9a40:	3c3d746d 	cfldrscc	mvf7, [sp], #-436	; 0xfffffe4c
    9a44:	0a3e7325 	beq	fa66e0 <__bss_end__+0xf9c5c0>
    9a48:	0000000a 	andeq	r0, r0, sl
    9a4c:	494e4150 	stmdbmi	lr, {r4, r6, r8, lr}^
    9a50:	73253a43 			; <UNDEFINED> instruction: 0x73253a43
    9a54:	3a73253a 	bcc	1cd2f44 <__bss_end__+0x1cc8e24>
    9a58:	663a6425 	ldrtvs	r6, [sl], -r5, lsr #8
    9a5c:	74616f6c 	strbtvc	r6, [r1], #-3948	; 0xfffff094
    9a60:	746f6e20 	strbtvc	r6, [pc], #-3616	; 9a68 <__FUNCTION__.3951+0x104>
    9a64:	616e6520 	cmnvs	lr, r0, lsr #10
    9a68:	64656c62 	strbtvs	r6, [r5], #-3170	; 0xfffff39e
    9a6c:	0a212121 	beq	851ef8 <__bss_end__+0x847dd8>
    9a70:	00000000 	andeq	r0, r0, r0
    9a74:	6e697270 	mcrvs	2, 3, r7, cr9, cr0, {3}
    9a78:	203a6b74 	eorscs	r6, sl, r4, ror fp
    9a7c:	20746f6e 	rsbscs	r6, r4, lr, ror #30
    9a80:	646e6168 	strbtvs	r6, [lr], #-360	; 0xfffffe98
    9a84:	676e696c 	strbvs	r6, [lr, -ip, ror #18]!
    9a88:	65707320 	ldrbvs	r7, [r0, #-800]!	; 0xfffffce0
    9a8c:	69666963 	stmdbvs	r6!, {r0, r1, r5, r6, r8, fp, sp, lr}^
    9a90:	27207265 	strcs	r7, [r0, -r5, ror #4]!
    9a94:	20276325 	eorcs	r6, r7, r5, lsr #6
    9a98:	63736128 	cmnvs	r3, #10
    9a9c:	253d6969 	ldrcs	r6, [sp, #-2409]!	; 0xfffff697
    9aa0:	000a2964 	andeq	r2, sl, r4, ror #18
    9aa4:	494e4150 	stmdbmi	lr, {r4, r6, r8, lr}^
    9aa8:	73253a43 			; <UNDEFINED> instruction: 0x73253a43
    9aac:	3a73253a 	bcc	1cd2f9c <__bss_end__+0x1cc8e7c>
    9ab0:	703a6425 	eorsvc	r6, sl, r5, lsr #8
    9ab4:	746e6972 	strbtvc	r6, [lr], #-2418	; 0xfffff68e
    9ab8:	7265206b 	rsbvc	r2, r5, #107, 0	; 0x6b
    9abc:	0a726f72 	beq	1ca588c <__bss_end__+0x1c9b76c>
    9ac0:	0000000a 	andeq	r0, r0, sl

00009ac4 <__FUNCTION__.4004>:
    9ac4:	74696d65 	strbtvc	r6, [r9], #-3429	; 0xfffff29b
    9ac8:	00000000 	andeq	r0, r0, r0

00009acc <__FUNCTION__.3952>:
    9acc:	5f697072 	svcpl	0x00697072
    9ad0:	5f746573 	svcpl	0x00746573
    9ad4:	7074756f 	rsbsvc	r7, r4, pc, ror #10
    9ad8:	00007475 	andeq	r7, r0, r5, ror r4

00009adc <__FUNCTION__.4030>:
    9adc:	705f6176 	subsvc	r6, pc, r6, ror r1	; <UNPREDICTABLE>
    9ae0:	746e6972 	strbtvc	r6, [lr], #-2418	; 0xfffff68e
    9ae4:	0000006b 	andeq	r0, r0, fp, rrx
    9ae8:	454e4f44 	strbmi	r4, [lr, #-3908]	; 0xfffff0bc
    9aec:	0a212121 	beq	851f78 <__bss_end__+0x847e58>
    9af0:	00000000 	andeq	r0, r0, r0
    9af4:	6c616d6b 	stclvs	13, cr6, [r1], #-428	; 0xfffffe54
    9af8:	2e636f6c 	cdpcs	15, 6, cr6, cr3, cr12, {3}
    9afc:	00000063 	andeq	r0, r0, r3, rrx
    9b00:	5f78616d 	svcpl	0x0078616d
    9b04:	7479626e 	ldrbtvc	r6, [r9], #-622	; 0xfffffd92
    9b08:	00007365 	andeq	r7, r0, r5, ror #6
    9b0c:	494e4150 	stmdbmi	lr, {r4, r6, r8, lr}^
    9b10:	73253a43 			; <UNDEFINED> instruction: 0x73253a43
    9b14:	3a73253a 	bcc	1cd3004 <__bss_end__+0x1cc8ee4>
    9b18:	733a6425 	teqvc	sl, #620756992	; 0x25000000
    9b1c:	69747465 	ldmdbvs	r4!, {r0, r2, r5, r6, sl, ip, sp, lr}^
    9b20:	6820676e 	stmdavs	r0!, {r1, r2, r3, r5, r6, r8, r9, sl, sp, lr}
    9b24:	20706165 	rsbscs	r6, r0, r5, ror #2
    9b28:	25206f74 	strcs	r6, [r0, #-3956]!	; 0xfffff08c
    9b2c:	77203a70 			; <UNDEFINED> instruction: 0x77203a70
    9b30:	206c6c69 	rsbcs	r6, ip, r9, ror #24
    9b34:	20746968 	rsbscs	r6, r4, r8, ror #18
    9b38:	20656874 	rsbcs	r6, r5, r4, ror r8
    9b3c:	20646c6f 	rsbcs	r6, r4, pc, ror #24
    9b40:	70616568 	rsbvc	r6, r1, r8, ror #10
    9b44:	20746120 	rsbscs	r6, r4, r0, lsr #2
    9b48:	0a0a7025 	beq	2a5be4 <__bss_end__+0x29bac4>
    9b4c:	00000000 	andeq	r0, r0, r0
    9b50:	494e4150 	stmdbmi	lr, {r4, r6, r8, lr}^
    9b54:	73253a43 			; <UNDEFINED> instruction: 0x73253a43
    9b58:	3a73253a 	bcc	1cd3048 <__bss_end__+0x1cc8f28>
    9b5c:	613a6425 	teqvs	sl, r5, lsr #8
    9b60:	6165726c 	cmnvs	r5, ip, ror #4
    9b64:	63207964 			; <UNDEFINED> instruction: 0x63207964
    9b68:	656c6c61 	strbvs	r6, [ip, #-3169]!	; 0xfffff39f
    9b6c:	6d6b2064 	stclvs	0, cr2, [fp, #-400]!	; 0xfffffe70
    9b70:	6f6c6c61 	svcvs	0x006c6c61
    9b74:	6e695f63 	cdpvs	15, 6, cr5, cr9, cr3, {3}
    9b78:	0a0a7469 	beq	2a6d24 <__bss_end__+0x29cc04>
    9b7c:	00000000 	andeq	r0, r0, r0
    9b80:	494e4150 	stmdbmi	lr, {r4, r6, r8, lr}^
    9b84:	73253a43 			; <UNDEFINED> instruction: 0x73253a43
    9b88:	3a73253a 	bcc	1cd3078 <__bss_end__+0x1cc8f58>
    9b8c:	253a6425 	ldrcs	r6, [sl, #-1061]!	; 0xfffffbdb
    9b90:	626e2064 	rsbvs	r2, lr, #100, 0	; 0x64
    9b94:	73657479 	cmnvc	r5, #2030043136	; 0x79000000
    9b98:	63786520 	cmnvs	r8, #32, 10	; 0x8000000
    9b9c:	65646565 	strbvs	r6, [r4, #-1381]!	; 0xfffffa9b
    9ba0:	69732064 	ldmdbvs	r3!, {r2, r5, r6, sp}^
    9ba4:	6f20657a 	svcvs	0x0020657a
    9ba8:	65682066 	strbvs	r2, [r8, #-102]!	; 0xffffff9a
    9bac:	62207061 	eorvs	r7, r0, #97, 0	; 0x61
    9bb0:	75252079 	strvc	r2, [r5, #-121]!	; 0xffffff87
    9bb4:	79626e20 	stmdbvc	r2!, {r5, r9, sl, fp, sp, lr}^
    9bb8:	0a736574 	beq	1ce3190 <__bss_end__+0x1cd9070>
    9bbc:	0000000a 	andeq	r0, r0, sl
    9bc0:	4f525245 	svcmi	0x00525245
    9bc4:	73253a52 			; <UNDEFINED> instruction: 0x73253a52
    9bc8:	3a73253a 	bcc	1cd30b8 <__bss_end__+0x1cc8f98>
    9bcc:	203a6425 	eorscs	r6, sl, r5, lsr #8
    9bd0:	534c4146 	movtpl	r4, #49478	; 0xc146
    9bd4:	253c2845 	ldrcs	r2, [ip, #-2117]!	; 0xfffff7bb
    9bd8:	3a293e73 	bcc	a595ac <__bss_end__+0xa4f48c>
    9bdc:	73736120 	cmnvc	r3, #8
    9be0:	6e696d75 	mcrvs	13, 3, r6, cr9, cr5, {3}
    9be4:	6f702067 	svcvs	0x00702067
    9be8:	20726577 	rsbscs	r6, r2, r7, ror r5
    9bec:	7420666f 	strtvc	r6, [r0], #-1647	; 0xfffff991
    9bf0:	000a6f77 	andeq	r6, sl, r7, ror pc
    9bf4:	705f7369 	subsvc	r7, pc, r9, ror #6
    9bf8:	2832776f 	ldmdacs	r2!, {r0, r1, r2, r3, r5, r6, r8, r9, sl, ip, sp, lr}
    9bfc:	67696c61 	strbvs	r6, [r9, -r1, ror #24]!
    9c00:	6e656d6e 	cdpvs	13, 6, cr6, cr5, cr14, {3}
    9c04:	00002974 	andeq	r2, r0, r4, ror r9
    9c08:	705f7369 	subsvc	r7, pc, r9, ror #6
    9c0c:	2832776f 	ldmdacs	r2!, {r0, r1, r2, r3, r5, r6, r8, r9, sl, ip, sp, lr}
    9c10:	0000296e 	andeq	r2, r0, lr, ror #18
    9c14:	4f525245 	svcmi	0x00525245
    9c18:	73253a52 			; <UNDEFINED> instruction: 0x73253a52
    9c1c:	3a73253a 	bcc	1cd310c <__bss_end__+0x1cc8fec>
    9c20:	203a6425 	eorscs	r6, sl, r5, lsr #8
    9c24:	534c4146 	movtpl	r4, #49478	; 0xc146
    9c28:	253c2845 	ldrcs	r2, [ip, #-2117]!	; 0xfffff7bb
    9c2c:	3a293e73 	bcc	a59600 <__bss_end__+0xa4f4e0>
    9c30:	706d6920 	rsbvc	r6, sp, r0, lsr #18
    9c34:	6973736f 	ldmdbvs	r3!, {r0, r1, r2, r3, r5, r6, r8, r9, ip, sp, lr}^
    9c38:	0a656c62 	beq	1964dc8 <__bss_end__+0x195aca8>
    9c3c:	00000000 	andeq	r0, r0, r0
    9c40:	615f7369 	cmpvs	pc, r9, ror #6
    9c44:	6e67696c 	vnmulvs.f16	s13, s14, s25	; <UNPREDICTABLE>
    9c48:	68286465 	stmdavs	r8!, {r0, r2, r5, r6, sl, sp, lr}
    9c4c:	6c61202c 	stclvs	0, cr2, [r1], #-176	; 0xffffff50
    9c50:	6d6e6769 	stclvs	7, cr6, [lr, #-420]!	; 0xfffffe5c
    9c54:	29746e65 	ldmdbcs	r4!, {r0, r2, r5, r6, r9, sl, fp, sp, lr}^
    9c58:	00000000 	andeq	r0, r0, r0
    9c5c:	494e4150 	stmdbmi	lr, {r4, r6, r8, lr}^
    9c60:	73253a43 			; <UNDEFINED> instruction: 0x73253a43
    9c64:	3a73253a 	bcc	1cd3154 <__bss_end__+0x1cc9034>
    9c68:	703a6425 	eorsvc	r6, sl, r5, lsr #8
    9c6c:	746e696f 	strbtvc	r6, [lr], #-2415	; 0xfffff691
    9c70:	25207265 	strcs	r7, [r0, #-613]!	; 0xfffffd9b
    9c74:	61772070 	cmnvs	r7, r0, ror r0
    9c78:	656e2073 	strbvs	r2, [lr, #-115]!	; 0xffffff8d
    9c7c:	20726576 	rsbscs	r6, r2, r6, ror r5
    9c80:	6f6c6c61 	svcvs	0x006c6c61
    9c84:	65746163 	ldrbvs	r6, [r4, #-355]!	; 0xfffffe9d
    9c88:	000a0a64 	andeq	r0, sl, r4, ror #20

00009c8c <__FUNCTION__.7>:
    9c8c:	6c616d6b 	stclvs	13, cr6, [r1], #-428	; 0xfffffe54
    9c90:	5f636f6c 	svcpl	0x00636f6c
    9c94:	74696e69 	strbtvc	r6, [r9], #-3689	; 0xfffff197
    9c98:	7465735f 	strbtvc	r7, [r5], #-863	; 0xfffffca1
    9c9c:	6174735f 	cmnvs	r4, pc, asr r3
    9ca0:	00007472 	andeq	r7, r0, r2, ror r4

00009ca4 <__FUNCTION__.5>:
    9ca4:	6c616d6b 	stclvs	13, cr6, [r1], #-428	; 0xfffffe54
    9ca8:	5f636f6c 	svcpl	0x00636f6c
    9cac:	74696e69 	strbtvc	r6, [r9], #-3689	; 0xfffff197
    9cb0:	00000000 	andeq	r0, r0, r0

00009cb4 <__FUNCTION__.4>:
    9cb4:	6c616d6b 	stclvs	13, cr6, [r1], #-428	; 0xfffffe54
    9cb8:	5f636f6c 	svcpl	0x00636f6c
    9cbc:	7a746f6e 	bvc	1d25a7c <__bss_end__+0x1d1b95c>
    9cc0:	006f7265 	rsbeq	r7, pc, r5, ror #4

00009cc4 <__FUNCTION__.2>:
    9cc4:	6c616d6b 	stclvs	13, cr6, [r1], #-428	; 0xfffffe54
    9cc8:	00636f6c 	rsbeq	r6, r3, ip, ror #30

00009ccc <__FUNCTION__.1>:
    9ccc:	6c616d6b 	stclvs	13, cr6, [r1], #-428	; 0xfffffe54
    9cd0:	5f636f6c 	svcpl	0x00636f6c
    9cd4:	67696c61 	strbvs	r6, [r9, -r1, ror #24]!
    9cd8:	0064656e 	rsbeq	r6, r4, lr, ror #10

00009cdc <__FUNCTION__.3>:
    9cdc:	6e756f72 	mrcvs	15, 3, r6, cr5, cr2, {3}
    9ce0:	00707564 	rsbseq	r7, r0, r4, ror #10

00009ce4 <__FUNCTION__.0>:
    9ce4:	6572666b 	ldrbvs	r6, [r2, #-1643]!	; 0xfffff995
    9ce8:	6f705f65 	svcvs	0x00705f65
    9cec:	Address 0x0000000000009cec is out of bounds.


Disassembly of section .data:

00009cf0 <putk>:
    9cf0:	00008318 	andeq	r8, r0, r8, lsl r3

00009cf4 <heap>:
    9cf4:	0000a120 	andeq	sl, r0, r0, lsr #2

00009cf8 <heap_start>:
    9cf8:	0000a120 	andeq	sl, r0, r0, lsr #2

00009cfc <heap_end>:
    9cfc:	0020a120 	eoreq	sl, r0, r0, lsr #2

00009d00 <rpi_putchar>:
    9d00:	00009784 	andeq	r9, r0, r4, lsl #15

Disassembly of section .bss:

00009d08 <__bss_start__>:
	...

00009d10 <base>:
	...

00009d18 <buf.3944>:
	...

0000a118 <init_p.6>:
	...

Disassembly of section .ARM.attributes:

00000000 <.ARM.attributes>:
   0:	00002a41 	andeq	r2, r0, r1, asr #20
   4:	61656100 	cmnvs	r5, r0, lsl #2
   8:	01006962 	tsteq	r0, r2, ror #18
   c:	00000020 	andeq	r0, r0, r0, lsr #32
  10:	4b5a3605 	blmi	168d82c <__bss_end__+0x168370c>
  14:	08070600 	stmdaeq	r7, {r9, sl}
  18:	12010901 	andne	r0, r1, #16384	; 0x4000
  1c:	15011404 	strne	r1, [r1, #-1028]	; 0xfffffbfc
  20:	18031701 	stmdane	r3, {r0, r8, r9, sl, ip}
  24:	22011a01 	andcs	r1, r1, #4096	; 0x1000
  28:	Address 0x0000000000000028 is out of bounds.


Disassembly of section .comment:

00000000 <.comment>:
   0:	3a434347 	bcc	10d0d24 <__bss_end__+0x10c6c04>
   4:	4e472820 	cdpmi	8, 4, cr2, cr7, cr0, {1}
   8:	6f542055 	svcvs	0x00542055
   c:	20736c6f 	rsbscs	r6, r3, pc, ror #24
  10:	20726f66 	rsbscs	r6, r2, r6, ror #30
  14:	206d7241 	rsbcs	r7, sp, r1, asr #4
  18:	65626d45 	strbvs	r6, [r2, #-3397]!	; 0xfffff2bb
  1c:	64656464 	strbtvs	r6, [r5], #-1124	; 0xfffffb9c
  20:	6f725020 	svcvs	0x00725020
  24:	73736563 	cmnvc	r3, #415236096	; 0x18c00000
  28:	2073726f 	rsbscs	r7, r3, pc, ror #4
  2c:	30322d39 	eorscc	r2, r2, r9, lsr sp
  30:	712d3931 			; <UNDEFINED> instruction: 0x712d3931
  34:	616d2d34 	cmnvs	sp, r4, lsr sp
  38:	29726f6a 	ldmdbcs	r2!, {r1, r3, r5, r6, r8, r9, sl, fp, sp, lr}^
  3c:	322e3920 	eorcc	r3, lr, #32, 18	; 0x80000
  40:	3220312e 	eorcc	r3, r0, #-2147483637	; 0x8000000b
  44:	31393130 	teqcc	r9, r0, lsr r1
  48:	20353230 	eorscs	r3, r5, r0, lsr r2
  4c:	6c657228 	sfmvs	f7, 2, [r5], #-160	; 0xffffff60
  50:	65736165 	ldrbvs	r6, [r3, #-357]!	; 0xfffffe9b
  54:	415b2029 	cmpmi	fp, r9, lsr #32
  58:	612f4d52 			; <UNDEFINED> instruction: 0x612f4d52
  5c:	392d6d72 	pushcc	{r1, r4, r5, r6, r8, sl, fp, sp, lr}
  60:	6172622d 	cmnvs	r2, sp, lsr #4
  64:	2068636e 	rsbcs	r6, r8, lr, ror #6
  68:	69766572 	ldmdbvs	r6!, {r1, r4, r5, r6, r8, sl, sp, lr}^
  6c:	6e6f6973 			; <UNDEFINED> instruction: 0x6e6f6973
  70:	37373220 	ldrcc	r3, [r7, -r0, lsr #4]!
  74:	5d393935 			; <UNDEFINED> instruction: 0x5d393935
  78:	43434700 	movtmi	r4, #14080	; 0x3700
  7c:	4728203a 			; <UNDEFINED> instruction: 0x4728203a
  80:	4120554e 			; <UNDEFINED> instruction: 0x4120554e
  84:	45206d72 	strmi	r6, [r0, #-3442]!	; 0xfffff28e
  88:	6465626d 	strbtvs	r6, [r5], #-621	; 0xfffffd93
  8c:	20646564 	rsbcs	r6, r4, r4, ror #10
  90:	6c6f6f54 	stclvs	15, cr6, [pc], #-336	; ffffff48 <__bss_end__+0xffff5e28>
  94:	69616863 	stmdbvs	r1!, {r0, r1, r5, r6, fp, sp, lr}^
  98:	3031206e 	eorscc	r2, r1, lr, rrx
  9c:	322d332e 	eorcc	r3, sp, #-1207959552	; 0xb8000000
  a0:	2e313230 	mrccs	2, 1, r3, cr1, cr0, {1}
  a4:	20293031 	eorcs	r3, r9, r1, lsr r0
  a8:	332e3031 			; <UNDEFINED> instruction: 0x332e3031
  ac:	3220312e 	eorcc	r3, r0, #-2147483637	; 0x8000000b
  b0:	30313230 	eorscc	r3, r1, r0, lsr r2
  b4:	20343238 	eorscs	r3, r4, r8, lsr r2
  b8:	6c657228 	sfmvs	f7, 2, [r5], #-160	; 0xffffff60
  bc:	65736165 	ldrbvs	r6, [r3, #-357]!	; 0xfffffe9b
  c0:	Address 0x00000000000000c0 is out of bounds.


Disassembly of section .debug_info:

00000000 <.debug_info>:
       0:	000002c2 	andeq	r0, r0, r2, asr #5
       4:	00000004 	andeq	r0, r0, r4
       8:	01040000 	mrseq	r0, (UNDEF: 4)
       c:	000000de 	ldrdeq	r0, [r0], -lr
      10:	00004b0c 	andeq	r4, r0, ip, lsl #22
      14:	00009300 	andeq	r9, r0, r0, lsl #6
      18:	00803800 	addeq	r3, r0, r0, lsl #16
      1c:	0000d000 	andeq	sp, r0, r0
      20:	00000000 	andeq	r0, r0, r0
      24:	05040200 	streq	r0, [r4, #-512]	; 0xfffffe00
      28:	00746e69 	rsbseq	r6, r4, r9, ror #28
      2c:	6c070403 	cfstrsvs	mvf0, [r7], {3}
      30:	03000000 	movweq	r0, #0
      34:	000a0601 	andeq	r0, sl, r1, lsl #12
      38:	02030000 	andeq	r0, r3, #0, 0
      3c:	0000ca05 	andeq	ip, r0, r5, lsl #20
      40:	05040300 	streq	r0, [r4, #-768]	; 0xfffffd00
      44:	0000007e 	andeq	r0, r0, lr, ror r0
      48:	79050803 	stmdbvc	r5, {r0, r1, fp}
      4c:	03000000 	movweq	r0, #0
      50:	00080801 	andeq	r0, r8, r1, lsl #16
      54:	02030000 	andeq	r0, r3, #0, 0
      58:	00002307 	andeq	r2, r0, r7, lsl #6
      5c:	07040300 	streq	r0, [r4, -r0, lsl #6]
      60:	00000067 	andeq	r0, r0, r7, rrx
      64:	62070803 	andvs	r0, r7, #196608	; 0x30000
      68:	04000000 	streq	r0, [r0], #-0
      6c:	00000025 	andeq	r0, r0, r5, lsr #32
      70:	0000007a 	andeq	r0, r0, sl, ror r0
      74:	00002505 	andeq	r2, r0, r5, lsl #10
      78:	87060000 	strhi	r0, [r6, -r0]
      7c:	02000000 	andeq	r0, r0, #0, 0
      80:	00860e1c 	addeq	r0, r6, ip, lsl lr
      84:	04070000 	streq	r0, [r7], #-0
      88:	0000006b 	andeq	r0, r0, fp, rrx
      8c:	00002504 	andeq	r2, r0, r4, lsl #10
      90:	00009b00 	andeq	r9, r0, r0, lsl #22
      94:	009b0500 	addseq	r0, fp, r0, lsl #10
      98:	07000000 	streq	r0, [r0, -r0]
      9c:	0000a804 	andeq	sl, r0, r4, lsl #16
      a0:	08010300 	stmdaeq	r1, {r8, r9}
      a4:	00000011 	andeq	r0, r0, r1, lsl r0
      a8:	0000a108 	andeq	sl, r0, r8, lsl #2
      ac:	03210600 			; <UNDEFINED> instruction: 0x03210600
      b0:	21020000 	mrscs	r0, (UNDEF: 2)
      b4:	0000b90e 	andeq	fp, r0, lr, lsl #18
      b8:	8c040700 	stchi	7, cr0, [r4], {-0}
      bc:	09000000 	stmdbeq	r0, {}	; <UNPREDICTABLE>
      c0:	00000000 	andeq	r0, r0, r0
      c4:	38060501 	stmdacc	r6, {r0, r8, sl}
      c8:	d0000080 	andle	r0, r0, r0, lsl #1
      cc:	01000000 	mrseq	r0, (UNDEF: 0)
      d0:	00027a9c 	muleq	r2, ip, sl
      d4:	01070a00 	tsteq	r7, r0, lsl #20
      d8:	0000004f 	andeq	r0, r0, pc, asr #32
      dc:	ea0a0601 	b	2818e8 <__bss_end__+0x2777c8>
      e0:	0b000000 	bleq	e8 <__code_start__-0x7f18>
      e4:	0000005b 	andeq	r0, r0, fp, asr r0
      e8:	700c000a 	andvc	r0, ip, sl
      ec:	08010030 	stmdaeq	r1, {r4, r5}
      f0:	00027a0b 	andeq	r7, r2, fp, lsl #20
      f4:	00000800 	andeq	r0, r0, r0, lsl #16
      f8:	00000000 	andeq	r0, r0, r0
      fc:	003e0d00 	eorseq	r0, lr, r0, lsl #26
     100:	02900000 	addseq	r0, r0, #0, 0
     104:	03050000 	movweq	r0, #20480	; 0x5000
     108:	00009964 	andeq	r9, r0, r4, ror #18
     10c:	00804c0e 	addeq	r4, r0, lr, lsl #24
     110:	00008400 	andeq	r8, r0, r0, lsl #8
     114:	00023700 	andeq	r3, r2, r0, lsl #14
     118:	00690c00 	rsbeq	r0, r9, r0, lsl #24
     11c:	2c120901 			; <UNDEFINED> instruction: 0x2c120901
     120:	40000000 	andmi	r0, r0, r0
     124:	3c000000 	stccc	0, cr0, [r0], {-0}
     128:	0f000000 	svceq	0x00000000
     12c:	00000000 	andeq	r0, r0, r0
     130:	0031700c 	eorseq	r7, r1, ip
     134:	7a0f0a01 	bvc	3c2940 <__bss_end__+0x3b8820>
     138:	63000002 	movwvs	r0, #2
     13c:	5f000000 	svcpl	0x00000000
     140:	0c000000 	stceq	0, cr0, [r0], {-0}
     144:	01003270 	tsteq	r0, r0, ror r2
     148:	027a0f10 	rsbseq	r0, sl, #16, 30	; 0x40
     14c:	00850000 	addeq	r0, r5, r0
     150:	00810000 	addeq	r0, r1, r0
     154:	60100000 	andsvs	r0, r0, r0
     158:	95000080 	strls	r0, [r0, #-128]	; 0xffffff80
     15c:	69000002 	stmdbvs	r0, {r1}
     160:	11000001 	tstne	r0, r1
     164:	31015001 	tstcc	r1, r1
     168:	806c1000 	rsbhi	r1, ip, r0
     16c:	02950000 	addseq	r0, r5, #0, 0
     170:	017c0000 	cmneq	ip, r0
     174:	01110000 	tsteq	r1, r0
     178:	00310150 	eorseq	r0, r1, r0, asr r1
     17c:	00807c10 	addeq	r7, r0, r0, lsl ip
     180:	0002a100 	andeq	sl, r2, r0, lsl #2
     184:	00019c00 	andeq	r9, r1, r0, lsl #24
     188:	50011100 	andpl	r1, r1, r0, lsl #2
     18c:	98980305 	ldmls	r8, {r0, r2, r8, r9}
     190:	01110000 	tsteq	r1, r0
     194:	00740552 	rsbseq	r0, r4, r2, asr r5
     198:	001c0076 	andseq	r0, ip, r6, ror r0
     19c:	00808410 	addeq	r8, r0, r0, lsl r4
     1a0:	0002ad00 	andeq	sl, r2, r0, lsl #26
     1a4:	0001b000 	andeq	fp, r1, r0
     1a8:	50011100 	andpl	r1, r1, r0, lsl #2
     1ac:	00007402 	andeq	r7, r0, r2, lsl #8
     1b0:	00808c10 	addeq	r8, r0, r0, lsl ip
     1b4:	00029500 	andeq	r9, r2, r0, lsl #10
     1b8:	0001c300 	andeq	ip, r1, r0, lsl #6
     1bc:	50011100 	andpl	r1, r1, r0, lsl #2
     1c0:	10003101 	andne	r3, r0, r1, lsl #2
     1c4:	0000809c 	muleq	r0, ip, r0
     1c8:	000002a1 	andeq	r0, r0, r1, lsr #5
     1cc:	000001da 	ldrdeq	r0, [r0], -sl
     1d0:	05500111 	ldrbeq	r0, [r0, #-273]	; 0xfffffeef
     1d4:	0098f803 	addseq	pc, r8, r3, lsl #16
     1d8:	a8100000 	ldmdage	r0, {}	; <UNPREDICTABLE>
     1dc:	a1000080 	smlabbge	r0, r0, r0, r0
     1e0:	f7000002 			; <UNDEFINED> instruction: 0xf7000002
     1e4:	11000001 	tstne	r0, r1
     1e8:	03055001 	movweq	r5, #20481	; 0x5001
     1ec:	00009900 	andeq	r9, r0, r0, lsl #18
     1f0:	02510111 	subseq	r0, r1, #1073741828	; 0x40000004
     1f4:	10000075 	andne	r0, r0, r5, ror r0
     1f8:	000080cc 	andeq	r8, r0, ip, asr #1
     1fc:	000002a1 	andeq	r0, r0, r1, lsr #5
     200:	0000022c 	andeq	r0, r0, ip, lsr #4
     204:	05500111 	ldrbeq	r0, [r0, #-273]	; 0xfffffeef
     208:	0098c003 	addseq	ip, r8, r3
     20c:	51011100 	mrspl	r1, (UNDEF: 17)
     210:	98b00305 	ldmls	r0!, {r0, r2, r8, r9}
     214:	01110000 	tsteq	r1, r0
     218:	64030552 	strvs	r0, [r3], #-1362	; 0xfffffaae
     21c:	11000099 	swpne	r0, r9, [r0]	; <UNPREDICTABLE>
     220:	42015301 	andmi	r5, r1, #67108864	; 0x4000000
     224:	007d0211 	rsbseq	r0, sp, r1, lsl r2
     228:	00007402 	andeq	r7, r0, r2, lsl #8
     22c:	0080d012 	addeq	sp, r0, r2, lsl r0
     230:	0002b900 	andeq	fp, r2, r0, lsl #18
     234:	10000000 	andne	r0, r0, r0
     238:	00008048 	andeq	r8, r0, r8, asr #32
     23c:	00000295 	muleq	r0, r5, r2
     240:	0000024a 	andeq	r0, r0, sl, asr #4
     244:	01500111 	cmpeq	r0, r1, lsl r1
     248:	d8100031 	ldmdale	r0, {r0, r4, r5}
     24c:	a1000080 	smlabbge	r0, r0, r0, r0
     250:	61000002 	tstvs	r0, r2
     254:	11000002 	tstne	r0, r2
     258:	03055001 	movweq	r5, #20481	; 0x5001
     25c:	000098f8 	strdeq	r9, [r0], -r8
     260:	80e41300 	rschi	r1, r4, r0, lsl #6
     264:	02a10000 	adceq	r0, r1, #0, 0
     268:	01110000 	tsteq	r1, r0
     26c:	30030550 	andcc	r0, r3, r0, asr r5
     270:	11000099 	swpne	r0, r9, [r0]	; <UNPREDICTABLE>
     274:	3a015101 	bcc	54680 <__bss_end__+0x4a560>
     278:	04070000 	streq	r0, [r7], #-0
     27c:	000000a1 	andeq	r0, r0, r1, lsr #1
     280:	0000a814 	andeq	sl, r0, r4, lsl r8
     284:	00029000 	andeq	r9, r2, r0
     288:	002c1500 	eoreq	r1, ip, r0, lsl #10
     28c:	00070000 	andeq	r0, r7, r0
     290:	00028008 	andeq	r8, r2, r8
     294:	00d41600 	sbcseq	r1, r4, r0, lsl #12
     298:	00d40000 	sbcseq	r0, r4, r0
     29c:	1e030000 	cdpne	0, 0, cr0, cr3, cr0, {0}
     2a0:	02091607 	andeq	r1, r9, #7340032	; 0x700000
     2a4:	02090000 	andeq	r0, r9, #0, 0
     2a8:	28020000 	stmdacs	r2, {}	; <UNPREDICTABLE>
     2ac:	00361606 	eorseq	r1, r6, r6, lsl #12
     2b0:	00360000 	eorseq	r0, r6, r0
     2b4:	1f030000 	svcne	0x00030000
     2b8:	00161606 	andseq	r1, r6, r6, lsl #12
     2bc:	00160000 	andseq	r0, r6, r0
     2c0:	6e020000 	cdpvs	0, 0, cr0, cr2, cr0, {0}
     2c4:	02c20006 	sbceq	r0, r2, #6, 0
     2c8:	00040000 	andeq	r0, r4, r0
     2cc:	0000011e 	andeq	r0, r0, lr, lsl r1
     2d0:	00de0104 	sbcseq	r0, lr, r4, lsl #2
     2d4:	b30c0000 	movwlt	r0, #49152	; 0xc000
     2d8:	93000001 	movwls	r0, #1
     2dc:	08000000 	stmdaeq	r0, {}	; <UNPREDICTABLE>
     2e0:	ac000081 	stcge	0, cr0, [r0], {129}	; 0x81
     2e4:	1c000001 	stcne	0, cr0, [r0], {1}
     2e8:	02000001 	andeq	r0, r0, #1, 0
     2ec:	6e690504 	cdpvs	5, 6, cr0, cr9, cr4, {0}
     2f0:	04030074 	streq	r0, [r3], #-116	; 0xffffff8c
     2f4:	00006c07 	andeq	r6, r0, r7, lsl #24
     2f8:	06010300 	streq	r0, [r1], -r0, lsl #6
     2fc:	0000000a 	andeq	r0, r0, sl
     300:	ca050203 	bgt	140b14 <__bss_end__+0x1369f4>
     304:	03000000 	movweq	r0, #0
     308:	007e0504 	rsbseq	r0, lr, r4, lsl #10
     30c:	08030000 	stmdaeq	r3, {}	; <UNPREDICTABLE>
     310:	00007905 	andeq	r7, r0, r5, lsl #18
     314:	08010300 	stmdaeq	r1, {r8, r9}
     318:	00000008 	andeq	r0, r0, r8
     31c:	23070203 	movwcs	r0, #29187	; 0x7203
     320:	03000000 	movweq	r0, #0
     324:	00670704 	rsbeq	r0, r7, r4, lsl #14
     328:	08030000 	stmdaeq	r3, {}	; <UNPREDICTABLE>
     32c:	00006207 	andeq	r6, r0, r7, lsl #4
     330:	00250400 	eoreq	r0, r5, r0, lsl #8
     334:	007a0000 	rsbseq	r0, sl, r0
     338:	25050000 	strcs	r0, [r5, #-0]
     33c:	00000000 	andeq	r0, r0, r0
     340:	00008706 	andeq	r8, r0, r6, lsl #14
     344:	0e1c0200 	cdpeq	2, 1, cr0, cr12, cr0, {0}
     348:	00000086 	andeq	r0, r0, r6, lsl #1
     34c:	006b0407 	rsbeq	r0, fp, r7, lsl #8
     350:	25040000 	strcs	r0, [r4, #-0]
     354:	9b000000 	blls	35c <__code_start__-0x7ca4>
     358:	05000000 	streq	r0, [r0, #-0]
     35c:	0000009b 	muleq	r0, fp, r0
     360:	a8040700 	stmdage	r4, {r8, r9, sl}
     364:	03000000 	movweq	r0, #0
     368:	00110801 	andseq	r0, r1, r1, lsl #16
     36c:	a1080000 	mrsge	r0, (UNDEF: 8)
     370:	06000000 	streq	r0, [r0], -r0
     374:	00000321 	andeq	r0, r0, r1, lsr #6
     378:	b90e2102 	stmdblt	lr, {r1, r8, sp}
     37c:	07000000 	streq	r0, [r0, -r0]
     380:	00008c04 	andeq	r8, r0, r4, lsl #24
     384:	01a00900 	lsleq	r0, r0, #18
     388:	01080000 	mrseq	r0, (UNDEF: 8)
     38c:	00ec0705 	rsceq	r0, ip, r5, lsl #14
     390:	640a0000 	strvs	r0, [sl], #-0
     394:	09070100 	stmdbeq	r7, {r8}
     398:	000000ec 	andeq	r0, r0, ip, ror #1
     39c:	0100700a 	tsteq	r0, sl
     3a0:	00f30808 	rscseq	r0, r3, r8, lsl #16
     3a4:	660a0000 	strvs	r0, [sl], -r0
     3a8:	09010070 	stmdbeq	r1, {r4, r5, r6}
     3ac:	0000f609 	andeq	pc, r0, r9, lsl #12
     3b0:	08030000 	stmdaeq	r3, {}	; <UNPREDICTABLE>
     3b4:	0001bf04 	andeq	fp, r1, r4, lsl #30
     3b8:	0c040b00 			; <UNDEFINED> instruction: 0x0c040b00
     3bc:	00f50407 	rscseq	r0, r5, r7, lsl #8
     3c0:	080d0000 	stmdaeq	sp, {}	; <UNPREDICTABLE>
     3c4:	20020e01 	andcs	r0, r2, r1, lsl #28
     3c8:	0e000001 	cdpeq	0, 0, cr0, cr0, cr1, {0}
     3cc:	00727470 	rsbseq	r7, r2, r0, ror r4
     3d0:	42111001 	andsmi	r1, r1, #1, 0
     3d4:	00000001 	andeq	r0, r0, r1
     3d8:	0001d90f 	andeq	sp, r1, pc, lsl #18
     3dc:	0c110100 	ldfeqs	f0, [r1], {-0}
     3e0:	0000002c 	andeq	r0, r0, ip, lsr #32
     3e4:	93090004 	movwls	r0, #36868	; 0x9004
     3e8:	08000001 	stmdaeq	r0, {r0}
     3ec:	420f0c01 	andmi	r0, pc, #256	; 0x100
     3f0:	0a000001 	beq	3fc <__code_start__-0x7c04>
     3f4:	12010073 	andne	r0, r1, #115, 0	; 0x73
     3f8:	0000fc04 	andeq	pc, r0, r4, lsl #24
     3fc:	00780a00 	rsbseq	r0, r8, r0, lsl #20
     400:	bf0e1301 	svclt	0x000e1301
     404:	00000000 	andeq	r0, r0, r0
     408:	01200407 			; <UNDEFINED> instruction: 0x01200407
     40c:	de100000 	cdple	0, 1, cr0, cr0, cr0, {0}
     410:	01000001 	tsteq	r0, r1
     414:	01200314 			; <UNDEFINED> instruction: 0x01200314
     418:	c6110000 	ldrgt	r0, [r1], -r0
     41c:	01000001 	tsteq	r0, r1
     420:	01480f18 	cmpeq	r8, r8, lsl pc
     424:	03050000 	movweq	r0, #20480	; 0x5000
     428:	00009d10 	andeq	r9, r0, r0, lsl sp
     42c:	0001a611 	andeq	sl, r1, r1, lsl r6
     430:	10190100 	andsne	r0, r9, r0, lsl #2
     434:	00000178 	andeq	r0, r0, r8, ror r1
     438:	9d080305 	stcls	3, cr0, [r8, #-20]	; 0xffffffec
     43c:	04070000 	streq	r0, [r7], #-0
     440:	00000148 	andeq	r0, r0, r8, asr #2
     444:	00003612 	andeq	r3, r0, r2, lsl r6
     448:	06520100 	ldrbeq	r0, [r2], -r0, lsl #2
     44c:	00008108 	andeq	r8, r0, r8, lsl #2
     450:	000000bc 	strheq	r0, [r0], -ip
     454:	01c79c01 	biceq	r9, r7, r1, lsl #24
     458:	61130000 	tstvs	r3, r0
     45c:	52010070 	andpl	r0, r1, #112, 0	; 0x70
     460:	0000f314 	andeq	pc, r0, r4, lsl r3	; <UNPREDICTABLE>
     464:	14500100 	ldrbne	r0, [r0], #-256	; 0xffffff00
     468:	01007062 	tsteq	r0, r2, rrx
     46c:	01780a54 	cmneq	r8, r4, asr sl
     470:	00ab0000 	adceq	r0, fp, r0
     474:	00a30000 	adceq	r0, r3, r0
     478:	70140000 	andsvc	r0, r4, r0
     47c:	0f540100 	svceq	0x00540100
     480:	00000178 	andeq	r0, r0, r8, ror r1
     484:	000000e7 	andeq	r0, r0, r7, ror #1
     488:	000000e3 	andeq	r0, r0, r3, ror #1
     48c:	00d41500 	sbcseq	r1, r4, r0, lsl #10
     490:	2a010000 	bcs	40498 <__bss_end__+0x36378>
     494:	0000f307 	andeq	pc, r0, r7, lsl #6
     498:	00820800 	addeq	r0, r2, r0, lsl #16
     49c:	0000ac00 	andeq	sl, r0, r0, lsl #24
     4a0:	409c0100 	addsmi	r0, ip, r0, lsl #2
     4a4:	16000002 	strne	r0, [r0], -r2
     4a8:	000007d7 	ldrdeq	r0, [r0], -r7
     4ac:	2c1a2a01 			; <UNDEFINED> instruction: 0x2c1a2a01
     4b0:	0d000000 	stceq	0, cr0, [r0, #-0]
     4b4:	05000001 	streq	r0, [r0, #-1]
     4b8:	14000001 	strne	r0, [r0], #-1
     4bc:	2c010070 	stccs	0, cr0, [r1], {112}	; 0x70
     4c0:	0001780a 	andeq	r7, r1, sl, lsl #16
     4c4:	00015500 	andeq	r5, r1, r0, lsl #10
     4c8:	00014700 	andeq	r4, r1, r0, lsl #14
     4cc:	019a1700 	orrseq	r1, sl, r0, lsl #14
     4d0:	2c010000 	stccs	0, cr0, [r1], {-0}
     4d4:	0001780e 	andeq	r7, r1, lr, lsl #16
     4d8:	0001b700 	andeq	fp, r1, r0, lsl #14
     4dc:	0001ad00 	andeq	sl, r1, r0, lsl #26
     4e0:	01ac1700 			; <UNDEFINED> instruction: 0x01ac1700
     4e4:	2d010000 	stccs	0, cr0, [r1, #-0]
     4e8:	00002c0b 	andeq	r2, r0, fp, lsl #24
     4ec:	0001fd00 	andeq	pc, r1, r0, lsl #26
     4f0:	0001fb00 	andeq	pc, r1, r0, lsl #22
     4f4:	82a41800 	adchi	r1, r4, #0, 16
     4f8:	02400000 	subeq	r0, r0, #0, 0
     4fc:	01190000 	tsteq	r9, r0
     500:	00740250 	rsbseq	r0, r4, r0, asr r2
     504:	d01a0000 	andsle	r0, sl, r0
     508:	01000001 	tsteq	r0, r1
     50c:	0178101c 	cmneq	r8, ip, lsl r0
     510:	81c40000 	bichi	r0, r4, r0
     514:	00440000 	subeq	r0, r4, r0
     518:	9c010000 	stcls	0, cr0, [r1], {-0}
     51c:	000002b3 			; <UNDEFINED> instruction: 0x000002b3
     520:	00756e1b 	rsbseq	r6, r5, fp, lsl lr
     524:	2c221c01 	stccs	12, cr1, [r2], #-4
     528:	14000000 	strne	r0, [r0], #-0
     52c:	10000002 	andne	r0, r0, r2
     530:	14000002 	strne	r0, [r0], #-2
     534:	01007063 	tsteq	r0, r3, rrx
     538:	02b30820 	adcseq	r0, r3, #32, 16	; 0x200000
     53c:	02380000 	eorseq	r0, r8, #0, 0
     540:	02320000 	eorseq	r0, r2, #0, 0
     544:	75140000 	ldrvc	r0, [r4, #-0]
     548:	23010070 	movwcs	r0, #4208	; 0x1070
     54c:	0001780a 	andeq	r7, r1, sl, lsl #16
     550:	00026700 	andeq	r6, r2, r0, lsl #14
     554:	00026300 	andeq	r6, r2, r0, lsl #6
     558:	81dc1c00 	bicshi	r1, ip, r0, lsl #24
     55c:	02b90000 	adcseq	r0, r9, #0, 0
     560:	02a90000 	adceq	r0, r9, #0, 0
     564:	01190000 	tsteq	r9, r0
     568:	00740450 	rsbseq	r0, r4, r0, asr r4
     56c:	1d002433 	cfstrsne	mvf2, [r0, #-204]	; 0xffffff34
     570:	000081f0 	strdeq	r8, [r0], -r0
     574:	0000017e 	andeq	r0, r0, lr, ror r1
     578:	a1040700 	tstge	r4, r0, lsl #14
     57c:	1e000000 	cdpne	0, 0, cr0, cr0, cr0, {0}
     580:	000001cb 	andeq	r0, r0, fp, asr #3
     584:	000001cb 	andeq	r0, r0, fp, asr #3
     588:	000b1a03 	andeq	r1, fp, r3, lsl #20
     58c:	0000010a 	andeq	r0, r0, sl, lsl #2
     590:	02f50004 	rscseq	r0, r5, #4, 0
     594:	01040000 	mrseq	r0, (UNDEF: 4)
     598:	000000de 	ldrdeq	r0, [r0], -lr
     59c:	0001f70c 	andeq	pc, r1, ip, lsl #14
     5a0:	00009300 	andeq	r9, r0, r0, lsl #6
     5a4:	0082b400 	addeq	fp, r2, r0, lsl #8
     5a8:	00000c00 	andeq	r0, r0, r0, lsl #24
     5ac:	00034700 	andeq	r4, r3, r0, lsl #14
     5b0:	05040200 	streq	r0, [r4, #-512]	; 0xfffffe00
     5b4:	00746e69 	rsbseq	r6, r4, r9, ror #28
     5b8:	6c070403 	cfstrsvs	mvf0, [r7], {3}
     5bc:	03000000 	movweq	r0, #0
     5c0:	000a0601 	andeq	r0, sl, r1, lsl #12
     5c4:	02030000 	andeq	r0, r3, #0, 0
     5c8:	0000ca05 	andeq	ip, r0, r5, lsl #20
     5cc:	05040300 	streq	r0, [r4, #-768]	; 0xfffffd00
     5d0:	0000007e 	andeq	r0, r0, lr, ror r0
     5d4:	79050803 	stmdbvc	r5, {r0, r1, fp}
     5d8:	03000000 	movweq	r0, #0
     5dc:	00080801 	andeq	r0, r8, r1, lsl #16
     5e0:	02030000 	andeq	r0, r3, #0, 0
     5e4:	00002307 	andeq	r2, r0, r7, lsl #6
     5e8:	07040300 	streq	r0, [r4, -r0, lsl #6]
     5ec:	00000067 	andeq	r0, r0, r7, rrx
     5f0:	62070803 	andvs	r0, r7, #196608	; 0x30000
     5f4:	04000000 	streq	r0, [r0], #-0
     5f8:	00000025 	andeq	r0, r0, r5, lsr #32
     5fc:	0000007a 	andeq	r0, r0, sl, ror r0
     600:	00002505 	andeq	r2, r0, r5, lsl #10
     604:	87060000 	strhi	r0, [r6, -r0]
     608:	02000000 	andeq	r0, r0, #0, 0
     60c:	00860e1c 	addeq	r0, r6, ip, lsl lr
     610:	04070000 	streq	r0, [r7], #-0
     614:	0000006b 	andeq	r0, r0, fp, rrx
     618:	00002504 	andeq	r2, r0, r4, lsl #10
     61c:	00009b00 	andeq	r9, r0, r0, lsl #22
     620:	009b0500 	addseq	r0, fp, r0, lsl #10
     624:	07000000 	streq	r0, [r0, -r0]
     628:	0000a804 	andeq	sl, r0, r4, lsl #16
     62c:	08010300 	stmdaeq	r1, {r8, r9}
     630:	00000011 	andeq	r0, r0, r1, lsl r0
     634:	0000a108 	andeq	sl, r0, r8, lsl #2
     638:	03210600 			; <UNDEFINED> instruction: 0x03210600
     63c:	21020000 	mrscs	r0, (UNDEF: 2)
     640:	0000b90e 	andeq	fp, r0, lr, lsl #18
     644:	8c040700 	stchi	7, cr0, [r4], {-0}
     648:	09000000 	stmdbeq	r0, {}	; <UNPREDICTABLE>
     64c:	000001cb 	andeq	r0, r0, fp, asr #3
     650:	ff070401 			; <UNDEFINED> instruction: 0xff070401
     654:	b4000000 	strlt	r0, [r0], #-0
     658:	0c000082 	stceq	0, cr0, [r0], {130}	; 0x82
     65c:	01000000 	mrseq	r0, (UNDEF: 0)
     660:	0000ff9c 	muleq	r0, ip, pc	; <UNPREDICTABLE>
     664:	01e50a00 	mvneq	r0, r0, lsl #20
     668:	04010000 	streq	r0, [r1], #-0
     66c:	00004111 	andeq	r4, r0, r1, lsl r1
     670:	00028b00 	andeq	r8, r2, r0, lsl #22
     674:	00028700 	andeq	r8, r2, r0, lsl #14
     678:	82bc0b00 	adcshi	r0, ip, #0, 22
     67c:	01010000 	mrseq	r0, (UNDEF: 1)
     680:	010c0000 	mrseq	r0, (UNDEF: 12)
     684:	01f30350 	mvnseq	r0, r0, asr r3
     688:	0d000050 	stceq	0, cr0, [r0, #-320]	; 0xfffffec0
     68c:	01ef0e04 	mvneq	r0, r4, lsl #28
     690:	01ef0000 	mvneq	r0, r0
     694:	7b020000 	blvc	8069c <__bss_end__+0x7657c>
     698:	019d0007 	orrseq	r0, sp, r7
     69c:	00040000 	andeq	r0, r4, r0
     6a0:	000003b7 			; <UNDEFINED> instruction: 0x000003b7
     6a4:	021f0104 	andseq	r0, pc, #1
     6a8:	dc0c0000 	stcle	0, cr0, [ip], {-0}
     6ac:	f6000002 			; <UNDEFINED> instruction: 0xf6000002
     6b0:	c0000002 	andgt	r0, r0, r2
     6b4:	58000082 	stmdapl	r0, {r1, r7}
     6b8:	c0000000 	andgt	r0, r0, r0
     6bc:	02000003 	andeq	r0, r0, #3, 0
     6c0:	00000210 	andeq	r0, r0, r0, lsl r2
     6c4:	311b2802 	tstcc	fp, r2, lsl #16
     6c8:	03000000 	movweq	r0, #0
     6cc:	000002ec 	andeq	r0, r0, ip, ror #5
     6d0:	48000404 	stmdami	r0, {r2, sl}
     6d4:	04000000 	streq	r0, [r0], #-0
     6d8:	000002d7 	ldrdeq	r0, [r0], -r7
     6dc:	00000048 	andeq	r0, r0, r8, asr #32
     6e0:	04050000 	streq	r0, [r5], #-0
     6e4:	0002ee02 	andeq	lr, r2, r2, lsl #28
     6e8:	18630200 	stmdane	r3!, {r9}^
     6ec:	00000025 	andeq	r0, r0, r5, lsr #32
     6f0:	69050406 	stmdbvs	r5, {r1, r2, sl}
     6f4:	0700746e 	streq	r7, [r0, -lr, ror #8]
     6f8:	006c0704 	rsbeq	r0, ip, r4, lsl #14
     6fc:	01070000 	mrseq	r0, (UNDEF: 7)
     700:	00000a06 	andeq	r0, r0, r6, lsl #20
     704:	05020700 	streq	r0, [r2, #-1792]	; 0xfffff900
     708:	000000ca 	andeq	r0, r0, sl, asr #1
     70c:	7e050407 	cdpvc	4, 0, cr0, cr5, cr7, {0}
     710:	07000000 	streq	r0, [r0, -r0]
     714:	00790508 	rsbseq	r0, r9, r8, lsl #10
     718:	01070000 	mrseq	r0, (UNDEF: 7)
     71c:	00000808 	andeq	r0, r0, r8, lsl #16
     720:	07020700 	streq	r0, [r2, -r0, lsl #14]
     724:	00000023 	andeq	r0, r0, r3, lsr #32
     728:	67070407 	strvs	r0, [r7, -r7, lsl #8]
     72c:	07000000 	streq	r0, [r0, -r0]
     730:	00620708 	rsbeq	r0, r2, r8, lsl #14
     734:	56080000 	strpl	r0, [r8], -r0
     738:	ab000000 	blge	740 <__code_start__-0x78c0>
     73c:	09000000 	stmdbeq	r0, {}	; <UNPREDICTABLE>
     740:	00000056 	andeq	r0, r0, r6, asr r0
     744:	00870a00 	addeq	r0, r7, r0, lsl #20
     748:	1c030000 	stcne	0, cr0, [r3], {-0}
     74c:	0000b70e 	andeq	fp, r0, lr, lsl #14
     750:	9c040b00 			; <UNDEFINED> instruction: 0x9c040b00
     754:	08000000 	stmdaeq	r0, {}	; <UNPREDICTABLE>
     758:	00000056 	andeq	r0, r0, r6, asr r0
     75c:	000000cc 	andeq	r0, r0, ip, asr #1
     760:	0000cc09 	andeq	ip, r0, r9, lsl #24
     764:	040b0000 	streq	r0, [fp], #-0
     768:	000000d9 	ldrdeq	r0, [r0], -r9
     76c:	11080107 	tstne	r8, r7, lsl #2
     770:	0c000000 	stceq	0, cr0, [r0], {-0}
     774:	000000d2 	ldrdeq	r0, [r0], -r2
     778:	0003210a 	andeq	r2, r3, sl, lsl #2
     77c:	0e210300 	cdpeq	3, 2, cr0, cr1, cr0, {0}
     780:	000000ea 	andeq	r0, r0, sl, ror #1
     784:	00bd040b 	adcseq	r0, sp, fp, lsl #8
     788:	090d0000 	stmdbeq	sp, {}	; <UNPREDICTABLE>
     78c:	01000002 	tsteq	r0, r2
     790:	00560506 	subseq	r0, r6, r6, lsl #10
     794:	82c00000 	sbchi	r0, r0, #0, 0
     798:	00580000 	subseq	r0, r8, r0
     79c:	9c010000 	stcls	0, cr0, [r1], {-0}
     7a0:	00000183 	andeq	r0, r0, r3, lsl #3
     7a4:	746d660e 	strbtvc	r6, [sp], #-1550	; 0xfffff9f2
     7a8:	18060100 	stmdane	r6, {r8}
     7ac:	000000cc 	andeq	r0, r0, ip, asr #1
     7b0:	0f709102 	svceq	0x00709102
     7b4:	66756210 			; <UNDEFINED> instruction: 0x66756210
     7b8:	11080100 	mrsne	r0, (UNDEF: 24)
     7bc:	00000183 	andeq	r0, r0, r3, lsl #3
     7c0:	9d180305 	ldcls	3, cr0, [r8, #-20]	; 0xffffffec
     7c4:	01110000 	tsteq	r1, r0
     7c8:	01000002 	tsteq	r0, r2
     7cc:	004a0d09 	subeq	r0, sl, r9, lsl #26
     7d0:	91020000 	mrsls	r0, (UNDEF: 2)
     7d4:	7a73125c 	bvc	1cc514c <__bss_end__+0x1cbb02c>
     7d8:	0d0c0100 	stfeqs	f0, [ip, #-0]
     7dc:	00000056 	andeq	r0, r0, r6, asr r0
     7e0:	000002b2 			; <UNDEFINED> instruction: 0x000002b2
     7e4:	000002ac 	andeq	r0, r0, ip, lsr #5
     7e8:	0082e813 	addeq	lr, r2, r3, lsl r8
     7ec:	00019400 	andeq	r9, r1, r0, lsl #8
     7f0:	00017600 	andeq	r7, r1, r0, lsl #12
     7f4:	50011400 	andpl	r1, r1, r0, lsl #8
     7f8:	14007502 	strne	r7, [r0], #-1282	; 0xfffffafe
     7fc:	0a035101 	beq	d4c08 <__bss_end__+0xcaae8>
     800:	01140400 	tsteq	r4, r0, lsl #8
     804:	48910352 	ldmmi	r1, {r1, r4, r6, r8, r9}
     808:	53011406 	movwpl	r1, #5126	; 0x1406
     80c:	004c9102 	subeq	r9, ip, r2, lsl #2
     810:	0082fc15 	addeq	pc, r2, r5, lsl ip	; <UNPREDICTABLE>
     814:	50011400 	andpl	r1, r1, r0, lsl #8
     818:	00007502 	andeq	r7, r0, r2, lsl #10
     81c:	00d21600 	sbcseq	r1, r2, r0, lsl #12
     820:	01940000 	orrseq	r0, r4, r0
     824:	5d170000 	ldcpl	0, cr0, [r7, #-0]
     828:	ff000000 			; <UNDEFINED> instruction: 0xff000000
     82c:	06180003 	ldreq	r0, [r8], -r3
     830:	06000002 	streq	r0, [r0], -r2
     834:	05000002 	streq	r0, [r0, #-2]
     838:	f3000502 	vrshl.u8	d0, d2, d0
     83c:	04000000 	streq	r0, [r0], #-0
     840:	0004f900 	andeq	pc, r4, r0, lsl #18
     844:	1f010400 	svcne	0x00010400
     848:	0c000002 	stceq	0, cr0, [r0], {2}
     84c:	00000326 	andeq	r0, r0, r6, lsr #6
     850:	000002f6 	strdeq	r0, [r0], -r6
     854:	00008318 	andeq	r8, r0, r8, lsl r3
     858:	00000038 	andeq	r0, r0, r8, lsr r0
     85c:	000004e4 	andeq	r0, r0, r4, ror #9
     860:	69050402 	stmdbvs	r5, {r1, sl}
     864:	0300746e 	movweq	r7, #1134	; 0x46e
     868:	006c0704 	rsbeq	r0, ip, r4, lsl #14
     86c:	01030000 	mrseq	r0, (UNDEF: 3)
     870:	00000a06 	andeq	r0, r0, r6, lsl #20
     874:	05020300 	streq	r0, [r2, #-768]	; 0xfffffd00
     878:	000000ca 	andeq	r0, r0, sl, asr #1
     87c:	7e050403 	cdpvc	4, 0, cr0, cr5, cr3, {0}
     880:	03000000 	movweq	r0, #0
     884:	00790508 	rsbseq	r0, r9, r8, lsl #10
     888:	01030000 	mrseq	r0, (UNDEF: 3)
     88c:	00000808 	andeq	r0, r0, r8, lsl #16
     890:	07020300 	streq	r0, [r2, -r0, lsl #6]
     894:	00000023 	andeq	r0, r0, r3, lsr #32
     898:	67070403 	strvs	r0, [r7, -r3, lsl #8]
     89c:	03000000 	movweq	r0, #0
     8a0:	00620708 	rsbeq	r0, r2, r8, lsl #14
     8a4:	25040000 	strcs	r0, [r4, #-0]
     8a8:	7a000000 	bvc	8b0 <__code_start__-0x7750>
     8ac:	05000000 	streq	r0, [r0, #-0]
     8b0:	00000025 	andeq	r0, r0, r5, lsr #32
     8b4:	00870600 	addeq	r0, r7, r0, lsl #12
     8b8:	1c020000 	stcne	0, cr0, [r2], {-0}
     8bc:	0000860e 	andeq	r8, r0, lr, lsl #12
     8c0:	6b040700 	blvs	1024c8 <__bss_end__+0xf83a8>
     8c4:	04000000 	streq	r0, [r0], #-0
     8c8:	00000025 	andeq	r0, r0, r5, lsr #32
     8cc:	0000009b 	muleq	r0, fp, r0
     8d0:	00009b05 	andeq	r9, r0, r5, lsl #22
     8d4:	04070000 	streq	r0, [r7], #-0
     8d8:	000000a8 	andeq	r0, r0, r8, lsr #1
     8dc:	11080103 	tstne	r8, r3, lsl #2
     8e0:	08000000 	stmdaeq	r0, {}	; <UNPREDICTABLE>
     8e4:	000000a1 	andeq	r0, r0, r1, lsr #1
     8e8:	00032106 	andeq	r2, r3, r6, lsl #2
     8ec:	0e210200 	cdpeq	2, 2, cr0, cr1, cr0, {0}
     8f0:	000000b9 	strheq	r0, [r0], -r9
     8f4:	008c0407 	addeq	r0, ip, r7, lsl #8
     8f8:	ad090000 	stcge	0, cr0, [r9, #-0]
     8fc:	01000000 	mrseq	r0, (UNDEF: 0)
     900:	0305070c 	movweq	r0, #22284	; 0x570c
     904:	00009cf0 	strdeq	r9, [r0], -r0
     908:	0003180a 	andeq	r1, r3, sl, lsl #16
     90c:	05040100 	streq	r0, [r4, #-256]	; 0xffffff00
     910:	00000025 	andeq	r0, r0, r5, lsr #32
     914:	00008318 	andeq	r8, r0, r8, lsl r3
     918:	00000038 	andeq	r0, r0, r8, lsr r0
     91c:	700b9c01 	andvc	r9, fp, r1, lsl #24
     920:	1f040100 	svcne	0x00040100
     924:	0000009b 	muleq	r0, fp, r0
     928:	000002e3 	andeq	r0, r0, r3, ror #5
     92c:	000002db 	ldrdeq	r0, [r0], -fp
     930:	0c7f0000 	ldcleq	0, cr0, [pc], #-0	; 938 <__code_start__-0x76c8>
     934:	00040000 	andeq	r0, r4, r0
     938:	00000597 	muleq	r0, r7, r5
     93c:	021f0104 	andseq	r0, pc, #1
     940:	450c0000 	strmi	r0, [ip, #-0]
     944:	f6000003 			; <UNDEFINED> instruction: 0xf6000003
     948:	50000002 	andpl	r0, r0, r2
     94c:	b4000083 	strlt	r0, [r0], #-131	; 0xffffff7d
     950:	88000009 	stmdahi	r0, {r0, r3}
     954:	02000005 	andeq	r0, r0, #5, 0
     958:	00620708 	rsbeq	r0, r2, r8, lsl #14
     95c:	04020000 	streq	r0, [r2], #-0
     960:	00006c07 	andeq	r6, r0, r7, lsl #24
     964:	05040300 	streq	r0, [r4, #-768]	; 0xfffffd00
     968:	00746e69 	rsbseq	r6, r4, r9, ror #28
     96c:	0a060102 	beq	180d7c <__bss_end__+0x176c5c>
     970:	02000000 	andeq	r0, r0, #0, 0
     974:	00ca0502 	sbceq	r0, sl, r2, lsl #10
     978:	04020000 	streq	r0, [r2], #-0
     97c:	00007e05 	andeq	r7, r0, r5, lsl #28
     980:	05080200 	streq	r0, [r8, #-512]	; 0xfffffe00
     984:	00000079 	andeq	r0, r0, r9, ror r0
     988:	08080102 	stmdaeq	r8, {r1, r8}
     98c:	02000000 	andeq	r0, r0, #0, 0
     990:	00230702 	eoreq	r0, r3, r2, lsl #14
     994:	ab040000 	blge	10099c <__bss_end__+0xf687c>
     998:	02000003 	andeq	r0, r0, #3, 0
     99c:	00701934 	rsbseq	r1, r0, r4, lsr r9
     9a0:	04020000 	streq	r0, [r2], #-0
     9a4:	00006707 	andeq	r6, r0, r7, lsl #14
     9a8:	033c0400 	teqeq	ip, #0, 8
     9ac:	37020000 	strcc	r0, [r2, -r0]
     9b0:	00002519 	andeq	r2, r0, r9, lsl r5
     9b4:	00330500 	eorseq	r0, r3, r0, lsl #10
     9b8:	00920000 	addseq	r0, r2, r0
     9bc:	33060000 	movwcc	r0, #24576	; 0x6000
     9c0:	00000000 	andeq	r0, r0, r0
     9c4:	00008707 	andeq	r8, r0, r7, lsl #14
     9c8:	0e1c0300 	cdpeq	3, 1, cr0, cr12, cr0, {0}
     9cc:	0000009e 	muleq	r0, lr, r0
     9d0:	00830408 	addeq	r0, r3, r8, lsl #8
     9d4:	33050000 	movwcc	r0, #20480	; 0x5000
     9d8:	b3000000 	movwlt	r0, #0
     9dc:	06000000 	streq	r0, [r0], -r0
     9e0:	000000b3 	strheq	r0, [r0], -r3
     9e4:	c0040800 	andgt	r0, r4, r0, lsl #16
     9e8:	02000000 	andeq	r0, r0, #0, 0
     9ec:	00110801 	andseq	r0, r1, r1, lsl #16
     9f0:	b9090000 	stmdblt	r9, {}	; <UNPREDICTABLE>
     9f4:	07000000 	streq	r0, [r0, -r0]
     9f8:	00000321 	andeq	r0, r0, r1, lsr #6
     9fc:	d10e2103 	tstle	lr, r3, lsl #2
     a00:	08000000 	stmdaeq	r0, {}	; <UNPREDICTABLE>
     a04:	0000a404 	andeq	sl, r0, r4, lsl #8
     a08:	03580700 	cmpeq	r8, #0, 14
     a0c:	0b040000 	bleq	100a14 <__bss_end__+0xf68f4>
     a10:	0000b90d 	andeq	fp, r0, sp, lsl #18
     a14:	03e10700 	mvneq	r0, #0, 14
     a18:	0c040000 	stceq	0, cr0, [r4], {-0}
     a1c:	0000b90d 	andeq	fp, r0, sp, lsl #18
     a20:	03670700 	cmneq	r7, #0, 14
     a24:	0d040000 	stceq	0, cr0, [r4, #-0]
     a28:	0000b90d 	andeq	fp, r0, sp, lsl #18
     a2c:	03900700 	orrseq	r0, r0, #0, 14
     a30:	0e040000 	cdpeq	0, 0, cr0, cr4, cr0, {0}
     a34:	0000b90d 	andeq	fp, r0, sp, lsl #18
     a38:	040a0700 	streq	r0, [sl], #-1792	; 0xfffff900
     a3c:	0f040000 	svceq	0x00040000
     a40:	0000b90d 	andeq	fp, r0, sp, lsl #18
     a44:	037b0700 	cmneq	fp, #0, 14
     a48:	10040000 	andne	r0, r4, r0
     a4c:	0000b90d 	andeq	fp, r0, sp, lsl #18
     a50:	04190700 	ldreq	r0, [r9], #-1792	; 0xfffff900
     a54:	11040000 	mrsne	r0, (UNDEF: 4)
     a58:	0000b90d 	andeq	fp, r0, sp, lsl #18
     a5c:	039c0700 	orrseq	r0, ip, #0, 14
     a60:	12040000 	andne	r0, r4, #0, 0
     a64:	0000b90d 	andeq	fp, r0, sp, lsl #18
     a68:	02100400 	andseq	r0, r0, #0, 8
     a6c:	28050000 	stmdacs	r5, {}	; <UNPREDICTABLE>
     a70:	0001431b 	andeq	r4, r1, fp, lsl r3
     a74:	02ec0a00 	rsceq	r0, ip, #0, 20
     a78:	06040000 	streq	r0, [r4], -r0
     a7c:	00015a00 	andeq	r5, r1, r0, lsl #20
     a80:	02d70b00 	sbcseq	r0, r7, #0, 22
     a84:	015a0000 	cmpeq	sl, r0
     a88:	00000000 	andeq	r0, r0, r0
     a8c:	ee04040c 	cdp	4, 0, cr0, cr4, cr12, {0}
     a90:	05000002 	streq	r0, [r0, #-2]
     a94:	01371863 	teqeq	r7, r3, ror #16
     a98:	060d0000 	streq	r0, [sp], -r0
     a9c:	01000002 	tsteq	r0, r2
     aa0:	00330581 	eorseq	r0, r3, r1, lsl #11
     aa4:	86d80000 	ldrbhi	r0, [r8], r0
     aa8:	062c0000 	strteq	r0, [ip], -r0
     aac:	9c010000 	stcls	0, cr0, [r1], {-0}
     ab0:	0000086a 	andeq	r0, r0, sl, ror #16
     ab4:	6675620e 	ldrbtvs	r6, [r5], -lr, lsl #4
     ab8:	15810100 	strne	r0, [r1, #256]	; 0x100
     abc:	0000086a 	andeq	r0, r0, sl, ror #16
     ac0:	00000323 	andeq	r0, r0, r3, lsr #6
     ac4:	00000319 	andeq	r0, r0, r9, lsl r3
     ac8:	01006e0e 	tsteq	r0, lr, lsl #28
     acc:	00331e81 	eorseq	r1, r3, r1, lsl #29
     ad0:	03700000 	cmneq	r0, #0, 0
     ad4:	03680000 	cmneq	r8, #0, 0
     ad8:	660e0000 	strvs	r0, [lr], -r0
     adc:	0100746d 	tsteq	r0, sp, ror #8
     ae0:	00b32d81 	adcseq	r2, r3, r1, lsl #27
     ae4:	03c20000 	biceq	r0, r2, #0, 0
     ae8:	03aa0000 			; <UNDEFINED> instruction: 0x03aa0000
     aec:	010f0000 	mrseq	r0, CPSR
     af0:	01000002 	tsteq	r0, r2
     af4:	015c3a81 	cmpeq	ip, r1, lsl #21
     af8:	04840000 	streq	r0, [r4], #0
     afc:	04560000 	ldrbeq	r0, [r6], #-0
     b00:	70100000 	andsvc	r0, r0, r0
     b04:	08820100 	stmeq	r2, {r8}
     b08:	0000086a 	andeq	r0, r0, sl, ror #16
     b0c:	000005d7 	ldrdeq	r0, [r0], -r7
     b10:	000005c1 	andeq	r0, r0, r1, asr #11
     b14:	01006510 	tsteq	r0, r0, lsl r5
     b18:	086a1282 	stmdaeq	sl!, {r1, r7, r9, ip}^
     b1c:	06600000 	strbteq	r0, [r0], -r0
     b20:	065e0000 	ldrbeq	r0, [lr], -r0
     b24:	78100000 	ldmdavc	r0, {}	; <UNPREDICTABLE>
     b28:	83010030 	movwhi	r0, #4144	; 0x1030
     b2c:	0000640e 	andeq	r6, r0, lr, lsl #8
     b30:	00067900 	andeq	r7, r6, r0, lsl #18
     b34:	00067300 	andeq	r7, r6, r0, lsl #6
     b38:	31781000 	cmncc	r8, r0
     b3c:	11830100 	orrne	r0, r3, r0, lsl #2
     b40:	00000064 	andeq	r0, r0, r4, rrx
     b44:	000006a8 	andeq	r0, r0, r8, lsr #13
     b48:	000006a2 	andeq	r0, r0, r2, lsr #13
     b4c:	0003c311 	andeq	ip, r3, r1, lsl r3
     b50:	11860100 	orrne	r0, r6, r0, lsl #2
     b54:	000000b3 	strheq	r0, [r0], -r3
     b58:	000006d9 	ldrdeq	r0, [r0], -r9
     b5c:	000006d1 	ldrdeq	r0, [r0], -r1
     b60:	00003e12 	andeq	r3, r0, r2, lsl lr
     b64:	00088000 	andeq	r8, r8, r0
     b68:	dc030500 	cfstr32le	mvfx0, [r3], {-0}
     b6c:	1300009a 	movwne	r0, #154	; 0x9a
     b70:	00000080 	andeq	r0, r0, r0, lsl #1
     b74:	01007310 	tsteq	r0, r0, lsl r3
     b78:	086a0a91 	stmdaeq	sl!, {r0, r4, r7, r9, fp}^
     b7c:	071f0000 	ldreq	r0, [pc, -r0]
     b80:	07130000 	ldreq	r0, [r3, -r0]
     b84:	6e140000 	cdpvs	0, 1, cr0, cr4, cr0, {0}
     b88:	01006d75 	tsteq	r0, r5, ror sp
     b8c:	08850d91 	stmeq	r5, {r0, r4, r7, r8, sl, fp}
     b90:	91030000 	mrsls	r0, (UNDEF: 3)
     b94:	26157dd8 			; <UNDEFINED> instruction: 0x26157dd8
     b98:	01000004 	tsteq	r0, r4
     b9c:	08851791 	stmeq	r5, {r0, r4, r7, r8, r9, sl, ip}
     ba0:	91030000 	mrsls	r0, (UNDEF: 3)
     ba4:	75117ed8 	ldrvc	r7, [r1, #-3800]	; 0xfffff128
     ba8:	01000003 	tsteq	r0, r3
     bac:	002c0d92 	mlaeq	ip, r2, sp, r0
     bb0:	07710000 	ldrbeq	r0, [r1, -r0]!
     bb4:	07690000 	strbeq	r0, [r9, -r0]!
     bb8:	a8160000 	ldmdage	r6, {}	; <UNPREDICTABLE>
     bbc:	f1000000 	cps	#0
     bc0:	10000004 	andne	r0, r0, r4
     bc4:	01007974 	tsteq	r0, r4, ror r9
     bc8:	00b31d9e 	umlalseq	r1, r3, lr, sp
     bcc:	07b20000 	ldreq	r0, [r2, r0]!
     bd0:	07a60000 	streq	r0, [r6, r0]!
     bd4:	78140000 	ldmdavc	r4, {}	; <UNPREDICTABLE>
     bd8:	a2010078 	andge	r0, r1, #120, 0	; 0x78
     bdc:	0000771a 	andeq	r7, r0, sl, lsl r7
     be0:	93590600 	cmpls	r9, #0, 12
     be4:	04935b04 	ldreq	r5, [r3], #2820	; 0xb04
     be8:	00886417 	addeq	r6, r8, r7, lsl r4
     bec:	000c3a00 	andeq	r3, ip, r0, lsl #20
     bf0:	0002d800 	andeq	sp, r2, r0, lsl #16
     bf4:	50011800 	andpl	r1, r1, r0, lsl #16
     bf8:	18007602 	stmdane	r0, {r1, r9, sl, ip, sp, lr}
     bfc:	03055101 	movweq	r5, #20737	; 0x5101
     c00:	000099d0 	ldrdeq	r9, [r0], -r0
     c04:	01520118 	cmpeq	r2, r8, lsl r1
     c08:	7c170033 	ldcvc	0, cr0, [r7], {51}	; 0x33
     c0c:	3a000088 	bcc	e34 <__code_start__-0x71cc>
     c10:	fa00000c 	blx	c48 <__code_start__-0x73b8>
     c14:	18000002 	stmdane	r0, {r1}
     c18:	76025001 	strvc	r5, [r2], -r1
     c1c:	51011800 	tstpl	r1, r0, lsl #16
     c20:	99e40305 	stmibls	r4!, {r0, r2, r8, r9}^
     c24:	01180000 	tsteq	r8, r0
     c28:	00330152 	eorseq	r0, r3, r2, asr r1
     c2c:	0088a017 	addeq	sl, r8, r7, lsl r0
     c30:	000c4600 	andeq	r4, ip, r0, lsl #12
     c34:	00031700 	andeq	r1, r3, r0, lsl #14
     c38:	50011800 	andpl	r1, r1, r0, lsl #16
     c3c:	99d40305 	ldmibls	r4, {r0, r2, r8, r9}^
     c40:	01180000 	tsteq	r8, r0
     c44:	007b0251 	rsbseq	r0, fp, r1, asr r2
     c48:	88ac1700 	stmiahi	ip!, {r8, r9, sl, ip}
     c4c:	0c460000 	mareq	acc0, r0, r6
     c50:	03340000 	teqeq	r4, #0, 0
     c54:	01180000 	tsteq	r8, r0
     c58:	dc030550 	cfstr32le	mvfx0, [r3], {80}	; 0x50
     c5c:	18000099 	stmdane	r0, {r0, r3, r4, r7}
     c60:	79025101 	stmdbvc	r2, {r0, r8, ip, lr}
     c64:	bc170000 	ldclt	0, cr0, [r7], {-0}
     c68:	3a000088 	bcc	e90 <__code_start__-0x7170>
     c6c:	5600000c 	strpl	r0, [r0], -ip
     c70:	18000003 	stmdane	r0, {r0, r1}
     c74:	76025001 	strvc	r5, [r2], -r1
     c78:	51011800 	tstpl	r1, r0, lsl #16
     c7c:	99d00305 	ldmibls	r0, {r0, r2, r8, r9}^
     c80:	01180000 	tsteq	r8, r0
     c84:	00330152 	eorseq	r0, r3, r2, asr r1
     c88:	0088ec17 	addeq	lr, r8, r7, lsl ip
     c8c:	000aa400 	andeq	sl, sl, r0, lsl #8
     c90:	00038300 	andeq	r8, r3, r0, lsl #6
     c94:	50011800 	andpl	r1, r1, r0, lsl #16
     c98:	01184001 	tsteq	r8, r1
     c9c:	d0910351 	addsle	r0, r1, r1, asr r3
     ca0:	5201187d 	andpl	r1, r1, #8192000	; 0x7d0000
     ca4:	18007b02 	stmdane	r0, {r1, r8, r9, fp, ip, sp, lr}
     ca8:	75025301 	strvc	r5, [r2, #-769]	; 0xfffffcff
     cac:	7d021800 	stcvc	8, cr1, [r2, #-0]
     cb0:	00760200 	rsbseq	r0, r6, r0, lsl #4
     cb4:	890c1700 	stmdbhi	ip, {r8, r9, sl, ip}
     cb8:	0aa40000 	beq	fe900cc0 <__bss_end__+0xfe8f6ba0>
     cbc:	03aa0000 			; <UNDEFINED> instruction: 0x03aa0000
     cc0:	01180000 	tsteq	r8, r0
     cc4:	18400150 	stmdane	r0, {r4, r6, r8}^
     cc8:	91035101 	tstls	r3, r1, lsl #2
     ccc:	01187ed0 			; <UNDEFINED> instruction: 0x01187ed0
     cd0:	00790252 	rsbseq	r0, r9, r2, asr r2
     cd4:	007d0218 	rsbseq	r0, sp, r8, lsl r2
     cd8:	00007602 	andeq	r7, r0, r2, lsl #12
     cdc:	00891c17 	addeq	r1, r9, r7, lsl ip
     ce0:	000c5200 	andeq	r5, ip, r0, lsl #4
     ce4:	0003c600 	andeq	ip, r3, r0, lsl #12
     ce8:	50011800 	andpl	r1, r1, r0, lsl #16
     cec:	7dd09103 	ldfvcp	f1, [r0, #12]
     cf0:	03510118 	cmpeq	r1, #6
     cf4:	007ed291 			; <UNDEFINED> instruction: 0x007ed291
     cf8:	008b6017 	addeq	r6, fp, r7, lsl r0
     cfc:	000c3a00 	andeq	r3, ip, r0, lsl #20
     d00:	0003e800 	andeq	lr, r3, r0, lsl #16
     d04:	50011800 	andpl	r1, r1, r0, lsl #16
     d08:	18007602 	stmdane	r0, {r1, r9, sl, ip, sp, lr}
     d0c:	03055101 	movweq	r5, #20737	; 0x5101
     d10:	000099e4 	andeq	r9, r0, r4, ror #19
     d14:	01520118 	cmpeq	r2, r8, lsl r1
     d18:	84170033 	ldrhi	r0, [r7], #-51	; 0xffffffcd
     d1c:	a400008b 	strge	r0, [r0], #-139	; 0xffffff75
     d20:	1500000a 	strne	r0, [r0, #-10]
     d24:	18000004 	stmdane	r0, {r2}
     d28:	3a015001 	bcc	54d34 <__bss_end__+0x4ac14>
     d2c:	03510118 	cmpeq	r1, #6
     d30:	187dd091 	ldmdane	sp!, {r0, r4, r7, ip, lr, pc}^
     d34:	7b025201 	blvc	95540 <__bss_end__+0x8b420>
     d38:	53011800 	movwpl	r1, #6144	; 0x1800
     d3c:	18007502 	stmdane	r0, {r1, r8, sl, ip, sp, lr}
     d40:	02007d02 	andeq	r7, r0, #128	; 0x80
     d44:	17000076 	smlsdxne	r0, r6, r0, r0
     d48:	00008ba4 	andeq	r8, r0, r4, lsr #23
     d4c:	00000aa4 	andeq	r0, r0, r4, lsr #21
     d50:	0000043c 	andeq	r0, r0, ip, lsr r4
     d54:	01500118 	cmpeq	r0, r8, lsl r1
     d58:	5101183a 	tstpl	r1, sl, lsr r8
     d5c:	7ed09103 	atnvcs	f1, f3
     d60:	02520118 	subseq	r0, r2, #6
     d64:	02180079 	andseq	r0, r8, #121, 0	; 0x79
     d68:	7602007d 			; <UNDEFINED> instruction: 0x7602007d
     d6c:	b0170000 	andslt	r0, r7, r0
     d70:	5e00008b 	cdppl	0, 0, cr0, cr0, cr11, {4}
     d74:	5a00000c 	bpl	dac <__code_start__-0x7254>
     d78:	18000004 	stmdane	r0, {r2}
     d7c:	91035001 	tstls	r3, r1
     d80:	01187dd0 			; <UNDEFINED> instruction: 0x01187dd0
     d84:	94030551 	strls	r0, [r3], #-1361	; 0xfffffaaf
     d88:	00000099 	muleq	r0, r9, r0
     d8c:	008bc417 	addeq	ip, fp, r7, lsl r4
     d90:	000c6a00 	andeq	r6, ip, r0, lsl #20
     d94:	00047600 	andeq	r7, r4, r0, lsl #12
     d98:	50011800 	andpl	r1, r1, r0, lsl #16
     d9c:	7dd09103 	ldfvcp	f1, [r0, #12]
     da0:	03510118 	cmpeq	r1, #6
     da4:	007ed091 			; <UNDEFINED> instruction: 0x007ed091
     da8:	008bd019 	addeq	sp, fp, r9, lsl r0
     dac:	000c5200 	andeq	r5, ip, r0, lsl #4
     db0:	8c941700 	ldchi	7, cr1, [r4], {0}
     db4:	0c460000 	mareq	acc0, r0, r6
     db8:	04a80000 	strteq	r0, [r8], #0
     dbc:	01180000 	tsteq	r8, r0
     dc0:	80030550 	andhi	r0, r3, r0, asr r5
     dc4:	18000099 	stmdane	r0, {r0, r3, r4, r7}
     dc8:	03055101 	movweq	r5, #20737	; 0x5101
     dcc:	0000996c 	andeq	r9, r0, ip, ror #18
     dd0:	05520118 	ldrbeq	r0, [r2, #-280]	; 0xfffffee8
     dd4:	009adc03 	addseq	sp, sl, r3, lsl #24
     dd8:	98190000 	ldmdals	r9, {}	; <UNPREDICTABLE>
     ddc:	7600008c 	strvc	r0, [r0], -ip, lsl #1
     de0:	1700000c 	strne	r0, [r0, -ip]
     de4:	00008cb0 			; <UNDEFINED> instruction: 0x00008cb0
     de8:	00000c46 	andeq	r0, r0, r6, asr #24
     dec:	000004e7 	andeq	r0, r0, r7, ror #9
     df0:	05500118 	ldrbeq	r0, [r0, #-280]	; 0xfffffee8
     df4:	009a2403 	addseq	r2, sl, r3, lsl #8
     df8:	51011800 	tstpl	r1, r0, lsl #16
     dfc:	996c0305 	stmdbls	ip!, {r0, r2, r8, r9}^
     e00:	01180000 	tsteq	r8, r0
     e04:	dc030552 	cfstr32le	mvfx0, [r3], {82}	; 0x52
     e08:	1800009a 	stmdane	r0, {r1, r3, r4, r7}
     e0c:	08025301 	stmdaeq	r2, {r0, r8, r9, ip, lr}
     e10:	7d0218b6 	stcvc	8, cr1, [r2, #-728]	; 0xfffffd28
     e14:	00760200 	rsbseq	r0, r6, r0, lsl #4
     e18:	8cb41900 			; <UNDEFINED> instruction: 0x8cb41900
     e1c:	0c760000 	ldcleq	0, cr0, [r6], #-0
     e20:	1a000000 	bne	e28 <__code_start__-0x71d8>
     e24:	000009e3 	andeq	r0, r0, r3, ror #19
     e28:	00008764 	andeq	r8, r0, r4, ror #14
     e2c:	00d00004 	sbcseq	r0, r0, r4
     e30:	94010000 	strls	r0, [r1], #-0
     e34:	0005150a 	andeq	r1, r5, sl, lsl #10
     e38:	09f41b00 	ldmibeq	r4!, {r8, r9, fp, ip}^
     e3c:	080e0000 	stmdaeq	lr, {}	; <UNPREDICTABLE>
     e40:	080a0000 	stmdaeq	sl, {}	; <UNPREDICTABLE>
     e44:	1a000000 	bne	e4c <__code_start__-0x71b4>
     e48:	00000895 	muleq	r0, r5, r8
     e4c:	0000894c 	andeq	r8, r0, ip, asr #18
     e50:	00f00001 	rscseq	r0, r0, r1
     e54:	dc010000 	stcle	0, cr0, [r1], {-0}
     e58:	00064b09 	andeq	r4, r6, r9, lsl #22
     e5c:	08be1b00 	ldmeq	lr!, {r8, r9, fp, ip}
     e60:	083c0000 	ldmdaeq	ip!, {}	; <UNPREDICTABLE>
     e64:	08360000 	ldmdaeq	r6!, {}	; <UNPREDICTABLE>
     e68:	e01b0000 	ands	r0, fp, r0
     e6c:	71000008 	tstvc	r0, r8
     e70:	6b000008 	blvs	e98 <__code_start__-0x7168>
     e74:	1b000008 	blne	e9c <__code_start__-0x7164>
     e78:	000008d4 	ldrdeq	r0, [r0], -r4
     e7c:	000008a3 	andeq	r0, r0, r3, lsr #17
     e80:	0000089d 	muleq	r0, sp, r8
     e84:	0008c81c 	andeq	ip, r8, ip, lsl r8
     e88:	08b21b00 	ldmeq	r2!, {r8, r9, fp, ip}
     e8c:	08d40000 	ldmeq	r4, {}^	; <UNPREDICTABLE>
     e90:	08cc0000 	stmiaeq	ip, {}^	; <UNPREDICTABLE>
     e94:	a61b0000 	ldrge	r0, [fp], -r0
     e98:	17000008 	strne	r0, [r0, -r8]
     e9c:	11000009 	tstne	r0, r9
     ea0:	13000009 	movwne	r0, #9
     ea4:	000000f0 	strdeq	r0, [r0], -r0	; <UNPREDICTABLE>
     ea8:	0008ec1d 	andeq	lr, r8, sp, lsl ip
     eac:	d8910300 	ldmle	r1, {r8, r9}
     eb0:	08f81e7e 	ldmeq	r8!, {r1, r2, r3, r4, r5, r6, r9, sl, fp, ip}^
     eb4:	09510000 	ldmdbeq	r1, {}^	; <UNPREDICTABLE>
     eb8:	09430000 	stmdbeq	r3, {}^	; <UNPREDICTABLE>
     ebc:	021f0000 	andseq	r0, pc, #0, 0
     ec0:	1a000009 	bne	eec <__code_start__-0x7114>
     ec4:	000009a3 	andeq	r0, r0, r3, lsr #19
     ec8:	00008958 	andeq	r8, r0, r8, asr r9
     ecc:	01200004 			; <UNDEFINED> instruction: 0x01200004
     ed0:	7c010000 	stcvc	0, cr0, [r1], {-0}
     ed4:	0005e209 	andeq	lr, r5, r9, lsl #4
     ed8:	09ca1b00 	stmibeq	sl, {r8, r9, fp, ip}^
     edc:	09bb0000 	ldmibeq	fp!, {}	; <UNPREDICTABLE>
     ee0:	09b50000 	ldmibeq	r5!, {}	; <UNPREDICTABLE>
     ee4:	be1b0000 	cdplt	0, 1, cr0, cr11, cr0, {0}
     ee8:	f0000009 			; <UNDEFINED> instruction: 0xf0000009
     eec:	e4000009 	str	r0, [r0], #-9
     ef0:	1b000009 	blne	f1c <__code_start__-0x70e4>
     ef4:	000009b4 			; <UNDEFINED> instruction: 0x000009b4
     ef8:	00000a56 	andeq	r0, r0, r6, asr sl
     efc:	00000a46 	andeq	r0, r0, r6, asr #20
     f00:	00012013 	andeq	r2, r1, r3, lsl r0
     f04:	09d61e00 	ldmibeq	r6, {r9, sl, fp, ip}^
     f08:	0ad30000 	beq	ff4c0f10 <__bss_end__+0xff4b6df0>
     f0c:	0ac50000 	beq	ff140f14 <__bss_end__+0xff136df4>
     f10:	00000000 	andeq	r0, r0, r0
     f14:	00094f20 	andeq	r4, r9, r0, lsr #30
     f18:	008a2000 	addeq	r2, sl, r0
     f1c:	50000200 	andpl	r0, r0, r0, lsl #4
     f20:	01000001 	tsteq	r0, r1
     f24:	801b097c 	andshi	r0, fp, ip, ror r9
     f28:	33000009 	movwcc	r0, #9
     f2c:	2d00000b 	stccs	0, cr0, [r0, #-44]	; 0xffffffd4
     f30:	1b00000b 	blne	f64 <__code_start__-0x709c>
     f34:	00000976 	andeq	r0, r0, r6, ror r9
     f38:	00000b69 	andeq	r0, r0, r9, ror #22
     f3c:	00000b5f 	andeq	r0, r0, pc, asr fp
     f40:	00096c1b 	andeq	r6, r9, fp, lsl ip
     f44:	000bb800 	andeq	fp, fp, r0, lsl #16
     f48:	000bb400 	andeq	fp, fp, r0, lsl #8
     f4c:	09601b00 	stmdbeq	r0!, {r8, r9, fp, ip}^
     f50:	0be80000 	bleq	ffa00f58 <__bss_end__+0xff9f6e38>
     f54:	0bda0000 	bleq	ff680f5c <__bss_end__+0xff676e3c>
     f58:	50130000 	andspl	r0, r3, r0
     f5c:	1e000001 	cdpne	0, 0, cr0, cr0, cr1, {0}
     f60:	0000098c 	andeq	r0, r0, ip, lsl #19
     f64:	00000c4d 	andeq	r0, r0, sp, asr #24
     f68:	00000c4b 	andeq	r0, r0, fp, asr #24
     f6c:	0009981e 	andeq	r9, r9, lr, lsl r8
     f70:	000c6700 	andeq	r6, ip, r0, lsl #14
     f74:	000c6100 	andeq	r6, ip, r0, lsl #2
     f78:	00000000 	andeq	r0, r0, r0
     f7c:	08951a00 	ldmeq	r5, {r9, fp, ip}
     f80:	8a5c0000 	bhi	1700f88 <__bss_end__+0x16f6e68>
     f84:	00000000 	andeq	r0, r0, r0
     f88:	00000180 	andeq	r0, r0, r0, lsl #3
     f8c:	8909d601 	stmdbhi	r9, {r0, r9, sl, ip, lr, pc}
     f90:	1b000007 	blne	fb4 <__code_start__-0x704c>
     f94:	000008be 			; <UNDEFINED> instruction: 0x000008be
     f98:	00000c9a 	muleq	r0, sl, ip
     f9c:	00000c96 	muleq	r0, r6, ip
     fa0:	0008e01b 	andeq	lr, r8, fp, lsl r0
     fa4:	000cc000 	andeq	ip, ip, r0
     fa8:	000cbc00 	andeq	fp, ip, r0, lsl #24
     fac:	08d41b00 	ldmeq	r4, {r8, r9, fp, ip}^
     fb0:	0ce40000 	stcleq	0, cr0, [r4]
     fb4:	0ce00000 	stcleq	0, cr0, [r0]
     fb8:	c81c0000 	ldmdagt	ip, {}	; <UNPREDICTABLE>
     fbc:	1b000008 	blne	fe4 <__code_start__-0x701c>
     fc0:	000008b2 			; <UNDEFINED> instruction: 0x000008b2
     fc4:	00000d08 	andeq	r0, r0, r8, lsl #26
     fc8:	00000d02 	andeq	r0, r0, r2, lsl #26
     fcc:	0008a61b 	andeq	sl, r8, fp, lsl r6
     fd0:	000d3b00 	andeq	r3, sp, r0, lsl #22
     fd4:	000d3700 	andeq	r3, sp, r0, lsl #14
     fd8:	01801300 	orreq	r1, r0, r0, lsl #6
     fdc:	ec1d0000 	ldc	0, cr0, [sp], {-0}
     fe0:	03000008 	movweq	r0, #8
     fe4:	1e7ed891 	mrcne	8, 3, sp, cr14, cr1, {4}
     fe8:	000008f8 	strdeq	r0, [r0], -r8
     fec:	00000d65 	andeq	r0, r0, r5, ror #26
     ff0:	00000d5b 	andeq	r0, r0, fp, asr sp
     ff4:	0009021e 	andeq	r0, r9, lr, lsl r2
     ff8:	000daa00 	andeq	sl, sp, r0, lsl #20
     ffc:	000da600 	andeq	sl, sp, r0, lsl #12
    1000:	09a31a00 	stmibeq	r3!, {r9, fp, ip}
    1004:	8a780000 	bhi	1e0100c <__bss_end__+0x1df6eec>
    1008:	00030000 	andeq	r0, r3, r0
    100c:	000001a0 	andeq	r0, r0, r0, lsr #3
    1010:	20097c01 	andcs	r7, r9, r1, lsl #24
    1014:	1b000007 	blne	1038 <__code_start__-0x6fc8>
    1018:	000009ca 	andeq	r0, r0, sl, asr #19
    101c:	00000dcc 	andeq	r0, r0, ip, asr #27
    1020:	00000dc8 	andeq	r0, r0, r8, asr #27
    1024:	0009be1b 	andeq	fp, r9, fp, lsl lr
    1028:	000dee00 	andeq	lr, sp, r0, lsl #28
    102c:	000dea00 	andeq	lr, sp, r0, lsl #20
    1030:	09b41b00 	ldmibeq	r4!, {r8, r9, fp, ip}
    1034:	0e180000 	cdpeq	0, 1, cr0, cr8, cr0, {0}
    1038:	0e0c0000 	cdpeq	0, 0, cr0, cr12, cr0, {0}
    103c:	a0130000 	andsge	r0, r3, r0
    1040:	1e000001 	cdpne	0, 0, cr0, cr0, cr1, {0}
    1044:	000009d6 	ldrdeq	r0, [r0], -r6
    1048:	00000e74 	andeq	r0, r0, r4, ror lr
    104c:	00000e68 	andeq	r0, r0, r8, ror #28
    1050:	4f200000 	svcmi	0x00200000
    1054:	00000009 	andeq	r0, r0, r9
    1058:	0200008b 	andeq	r0, r0, #139, 0	; 0x8b
    105c:	0001c800 	andeq	ip, r1, r0, lsl #16
    1060:	097c0100 	ldmdbeq	ip!, {r8}^
    1064:	0009801b 	andeq	r8, r9, fp, lsl r0
    1068:	000ec400 	andeq	ip, lr, r0, lsl #8
    106c:	000ec000 	andeq	ip, lr, r0
    1070:	09761b00 	ldmdbeq	r6!, {r8, r9, fp, ip}^
    1074:	0eec0000 	cdpeq	0, 14, cr0, cr12, cr0, {0}
    1078:	0ee20000 	cdpeq	0, 14, cr0, cr2, cr0, {0}
    107c:	6c1b0000 	ldcvs	0, cr0, [fp], {-0}
    1080:	38000009 	stmdacc	r0, {r0, r3}
    1084:	3400000f 	strcc	r0, [r0], #-15
    1088:	1b00000f 	blne	10cc <__code_start__-0x6f34>
    108c:	00000960 	andeq	r0, r0, r0, ror #18
    1090:	00000f66 	andeq	r0, r0, r6, ror #30
    1094:	00000f5a 	andeq	r0, r0, sl, asr pc
    1098:	0001c813 	andeq	ip, r1, r3, lsl r8
    109c:	098c1e00 	stmibeq	ip, {r9, sl, fp, ip}
    10a0:	0fc00000 	svceq	0x00c00000
    10a4:	0fbc0000 	svceq	0x00bc0000
    10a8:	981e0000 	ldmdals	lr, {}	; <UNPREDICTABLE>
    10ac:	e6000009 	str	r0, [r0], -r9
    10b0:	e200000f 	and	r0, r0, #15, 0
    10b4:	0000000f 	andeq	r0, r0, pc
    10b8:	17000000 	strne	r0, [r0, -r0]
    10bc:	0000882c 	andeq	r8, r0, ip, lsr #16
    10c0:	00000aa4 	andeq	r0, r0, r4, lsr #21
    10c4:	000007af 	andeq	r0, r0, pc, lsr #15
    10c8:	01500118 	cmpeq	r0, r8, lsl r1
    10cc:	51011840 	tstpl	r1, r0, asr #16
    10d0:	7dd09103 	ldfvcp	f1, [r0, #12]
    10d4:	02530118 	subseq	r0, r3, #6
    10d8:	02180075 	andseq	r0, r8, #117, 0	; 0x75
    10dc:	3001007d 	andcc	r0, r1, sp, ror r0
    10e0:	893c1700 	ldmdbhi	ip!, {r8, r9, sl, ip}
    10e4:	0aa40000 	beq	fe9010ec <__bss_end__+0xfe8f6fcc>
    10e8:	07cf0000 	strbeq	r0, [pc, r0]
    10ec:	01180000 	tsteq	r8, r0
    10f0:	183a0150 	ldmdane	sl!, {r4, r6, r8}
    10f4:	91035101 	tstls	r3, r1, lsl #2
    10f8:	01187dd0 			; <UNDEFINED> instruction: 0x01187dd0
    10fc:	00750253 	rsbseq	r0, r5, r3, asr r2
    1100:	8c201700 	stchi	7, cr1, [r0], #-0
    1104:	0c460000 	mareq	acc0, r0, r6
    1108:	07e60000 	strbeq	r0, [r6, r0]!
    110c:	01180000 	tsteq	r8, r0
    1110:	74030550 	strvc	r0, [r3], #-1360	; 0xfffffab0
    1114:	0000009a 	muleq	r0, sl, r0
    1118:	008c3021 	addeq	r3, ip, r1, lsr #32
    111c:	0007f800 	andeq	pc, r7, r0, lsl #16
    1120:	50011800 	andpl	r1, r1, r0, lsl #16
    1124:	7dc89104 	stfvcp	f1, [r8, #16]
    1128:	44170006 	ldrmi	r0, [r7], #-6
    112c:	4600008c 	strmi	r0, [r0], -ip, lsl #1
    1130:	2700000c 	strcs	r0, [r0, -ip]
    1134:	18000008 	stmdane	r0, {r3}
    1138:	03055001 	movweq	r5, #20481	; 0x5001
    113c:	00009aa4 	andeq	r9, r0, r4, lsr #21
    1140:	05510118 	ldrbeq	r0, [r1, #-280]	; 0xfffffee8
    1144:	00996c03 	addseq	r6, r9, r3, lsl #24
    1148:	52011800 	andpl	r1, r1, #0, 16
    114c:	9adc0305 	bls	ff701d68 <__bss_end__+0xff6f7c48>
    1150:	01180000 	tsteq	r8, r0
    1154:	e2080253 	and	r0, r8, #805306373	; 0x30000005
    1158:	8c481900 	mcrrhi	9, 0, r1, r8, cr0	; <UNPREDICTABLE>
    115c:	0c760000 	ldcleq	0, cr0, [r6], #-0
    1160:	5c170000 	ldcpl	0, cr0, [r7], {-0}
    1164:	4600008c 	strmi	r0, [r0], -ip, lsl #1
    1168:	5f00000c 	svcpl	0x0000000c
    116c:	18000008 	stmdane	r0, {r3}
    1170:	03055001 	movweq	r5, #20481	; 0x5001
    1174:	00009a4c 	andeq	r9, r0, ip, asr #20
    1178:	05510118 	ldrbeq	r0, [r1, #-280]	; 0xfffffee8
    117c:	00996c03 	addseq	r6, r9, r3, lsl #24
    1180:	52011800 	andpl	r1, r1, #0, 16
    1184:	9adc0305 	bls	ff701da0 <__bss_end__+0xff6f7c80>
    1188:	01180000 	tsteq	r8, r0
    118c:	be080253 	mcrlt	2, 0, r0, cr8, cr3, {2}
    1190:	8c601900 			; <UNDEFINED> instruction: 0x8c601900
    1194:	0c760000 	ldcleq	0, cr0, [r6], #-0
    1198:	00000000 	andeq	r0, r0, r0
    119c:	00b90408 	adcseq	r0, r9, r8, lsl #8
    11a0:	c0220000 	eorgt	r0, r2, r0
    11a4:	80000000 	andhi	r0, r0, r0
    11a8:	23000008 	movwcs	r0, #8
    11ac:	0000002c 	andeq	r0, r0, ip, lsr #32
    11b0:	70090009 	andvc	r0, r9, r9
    11b4:	22000008 	andcs	r0, r0, #8, 0
    11b8:	000000b9 	strheq	r0, [r0], -r9
    11bc:	00000895 	muleq	r0, r5, r8
    11c0:	00002c23 	andeq	r2, r0, r3, lsr #24
    11c4:	24007f00 	strcs	r7, [r0], #-3840	; 0xfffff100
    11c8:	000003ee 	andeq	r0, r0, lr, ror #7
    11cc:	6a014901 	bvs	535d8 <__bss_end__+0x494b8>
    11d0:	01000008 	tsteq	r0, r8
    11d4:	0000092a 	andeq	r0, r0, sl, lsr #18
    11d8:	0001c625 	andeq	ip, r1, r5, lsr #12
    11dc:	0f490100 	svceq	0x00490100
    11e0:	0000002c 	andeq	r0, r0, ip, lsr #32
    11e4:	74736426 	ldrbtvc	r6, [r3], #-1062	; 0xfffffbda
    11e8:	1b490100 	blne	12415f0 <__bss_end__+0x12374d0>
    11ec:	0000086a 	andeq	r0, r0, sl, ror #16
    11f0:	01006e26 	tsteq	r0, r6, lsr #28
    11f4:	00332449 	eorseq	r2, r3, r9, asr #8
    11f8:	76260000 	strtvc	r0, [r6], -r0
    11fc:	01006c61 	tsteq	r0, r1, ror #24
    1200:	00332b49 	eorseq	r2, r3, r9, asr #22
    1204:	75250000 	strvc	r0, [r5, #-0]!
    1208:	01000003 	tsteq	r0, r3
    120c:	00333449 	eorseq	r3, r3, r9, asr #8
    1210:	33250000 			; <UNDEFINED> instruction: 0x33250000
    1214:	01000004 	tsteq	r0, r4
    1218:	00333f49 	eorseq	r3, r3, r9, asr #30
    121c:	62270000 	eorvs	r0, r7, #0, 0
    1220:	01006675 	tsteq	r0, r5, ror r6
    1224:	092a074e 	stmdbeq	sl!, {r1, r2, r3, r6, r8, r9, sl}
    1228:	70270000 	eorvc	r0, r7, r0
    122c:	114e0100 	mrsne	r0, (UNDEF: 94)
    1230:	0000086a 	andeq	r0, r0, sl, ror #16
    1234:	01007527 	tsteq	r0, r7, lsr #10
    1238:	002c0b4f 	eoreq	r0, ip, pc, asr #22
    123c:	3e120000 	cdpcc	0, 1, cr0, cr2, cr0, {0}
    1240:	4a000000 	bmi	1248 <__code_start__-0x6db8>
    1244:	05000009 	streq	r0, [r0, #-9]
    1248:	009ac403 	addseq	ip, sl, r3, lsl #8
    124c:	db292800 	blle	a4b254 <__bss_end__+0xa41134>
    1250:	01000003 	tsteq	r0, r3
    1254:	002c0d54 	eoreq	r0, ip, r4, asr sp
    1258:	00000000 	andeq	r0, r0, r0
    125c:	0000b922 	andeq	fp, r0, r2, lsr #18
    1260:	00093a00 	andeq	r3, r9, r0, lsl #20
    1264:	002c2300 	eoreq	r2, ip, r0, lsl #6
    1268:	003f0000 	eorseq	r0, pc, r0
    126c:	0000c022 	andeq	ip, r0, r2, lsr #32
    1270:	00094a00 	andeq	r4, r9, r0, lsl #20
    1274:	002c2300 	eoreq	r2, ip, r0, lsl #6
    1278:	00040000 	andeq	r0, r4, r0
    127c:	00093a09 	andeq	r3, r9, r9, lsl #20
    1280:	03f32400 	mvnseq	r2, #0, 8
    1284:	38010000 	stmdacc	r1, {}	; <UNPREDICTABLE>
    1288:	00086a0e 	andeq	r6, r8, lr, lsl #20
    128c:	09a30100 	stmibeq	r3!, {r8}
    1290:	64260000 	strtvs	r0, [r6], #-0
    1294:	01007473 	tsteq	r0, r3, ror r4
    1298:	086a1c38 	stmdaeq	sl!, {r3, r4, r5, sl, fp, ip}^
    129c:	6e260000 	cdpvs	0, 2, cr0, cr6, cr0, {0}
    12a0:	25380100 	ldrcs	r0, [r8, #-256]!	; 0xffffff00
    12a4:	00000033 	andeq	r0, r0, r3, lsr r0
    12a8:	01007026 	tsteq	r0, r6, lsr #32
    12ac:	086a2e38 	stmdaeq	sl!, {r3, r4, r5, r9, sl, fp, sp}^
    12b0:	cd250000 	stcgt	0, cr0, [r5, #-0]
    12b4:	01000007 	tsteq	r0, r7
    12b8:	086a3738 	stmdaeq	sl!, {r3, r4, r5, r8, r9, sl, ip, sp}^
    12bc:	6c270000 	stcvs	0, cr0, [r7], #-0
    12c0:	01006e65 	tsteq	r0, r5, ror #28
    12c4:	0033063a 	eorseq	r0, r3, sl, lsr r6
    12c8:	73270000 			; <UNDEFINED> instruction: 0x73270000
    12cc:	083e0100 	ldmdaeq	lr!, {r8}
    12d0:	0000086a 	andeq	r0, r0, sl, ror #16
    12d4:	61702a00 	cmnvs	r0, r0, lsl #20
    12d8:	2e010064 	cdpcs	0, 0, cr0, cr1, cr4, {3}
    12dc:	00086a0e 	andeq	r6, r8, lr, lsl #20
    12e0:	09e30100 	stmibeq	r3!, {r8}^
    12e4:	70260000 	eorvc	r0, r6, r0
    12e8:	182e0100 	stmdane	lr!, {r8}
    12ec:	0000086a 	andeq	r0, r0, sl, ror #16
    12f0:	0001c625 	andeq	ip, r1, r5, lsr #12
    12f4:	222e0100 	eorcs	r0, lr, #0
    12f8:	0000086a 	andeq	r0, r0, sl, ror #16
    12fc:	00037525 	andeq	r7, r3, r5, lsr #10
    1300:	2c2e0100 	stfcss	f0, [lr], #-0
    1304:	00000033 	andeq	r0, r0, r3, lsr r0
    1308:	6e656c27 	cdpvs	12, 6, cr6, cr5, cr7, {1}
    130c:	062f0100 	strteq	r0, [pc], -r0, lsl #2
    1310:	00000033 	andeq	r0, r0, r3, lsr r0
    1314:	03342400 	teqeq	r4, #0, 8
    1318:	27010000 	strcs	r0, [r1, -r0]
    131c:	0000330c 	andeq	r3, r0, ip, lsl #6
    1320:	09ff0100 	ldmibeq	pc!, {r8}^	; <UNPREDICTABLE>
    1324:	63260000 			; <UNDEFINED> instruction: 0x63260000
    1328:	18270100 	stmdane	r7!, {r8}
    132c:	00000033 	andeq	r0, r0, r3, lsr r0
    1330:	03b42b00 			; <UNDEFINED> instruction: 0x03b42b00
    1334:	1f010000 	svcne	0x00010000
    1338:	00867806 	addeq	r7, r6, r6, lsl #16
    133c:	00006000 	andeq	r6, r0, r0
    1340:	8f9c0100 	svchi	0x009c0100
    1344:	0f00000a 	svceq	0x0000000a
    1348:	00000388 	andeq	r0, r0, r8, lsl #7
    134c:	9e1b1f01 	cdpls	15, 1, cr1, cr11, cr1, {0}
    1350:	0b000000 	bleq	1358 <__code_start__-0x6ca8>
    1354:	07000010 	smladeq	r0, r0, r0, r0
    1358:	0f000010 	svceq	0x00000010
    135c:	00000402 	andeq	r0, r0, r2, lsl #8
    1360:	d1301f01 	teqle	r0, r1, lsl #30
    1364:	30000000 	andcc	r0, r0, r0
    1368:	2c000010 	stccs	0, cr0, [r0], {16}
    136c:	12000010 	andne	r0, r0, #16, 0
    1370:	0000003e 	andeq	r0, r0, lr, lsr r0
    1374:	00000a9f 	muleq	r0, pc, sl	; <UNPREDICTABLE>
    1378:	9acc0305 	bls	ff301f94 <__bss_end__+0xff2f7e74>
    137c:	bc170000 	ldclt	0, cr0, [r7], {-0}
    1380:	46000086 	strmi	r0, [r0], -r6, lsl #1
    1384:	8500000c 	strhi	r0, [r0, #-12]
    1388:	1800000a 	stmdane	r0, {r1, r3}
    138c:	03055001 	movweq	r5, #20481	; 0x5001
    1390:	00009980 	andeq	r9, r0, r0, lsl #19
    1394:	05510118 	ldrbeq	r0, [r1, #-280]	; 0xfffffee8
    1398:	00996c03 	addseq	r6, r9, r3, lsl #24
    139c:	52011800 	andpl	r1, r1, #0, 16
    13a0:	9acc0305 	bls	ff301fbc <__bss_end__+0xff2f7e9c>
    13a4:	01180000 	tsteq	r8, r0
    13a8:	20080253 	andcs	r0, r8, r3, asr r2
    13ac:	007d0218 	rsbseq	r0, sp, r8, lsl r2
    13b0:	99bc0305 	ldmibls	ip!, {r0, r2, r8, r9}
    13b4:	19000000 	stmdbne	r0, {}	; <UNPREDICTABLE>
    13b8:	000086c0 	andeq	r8, r0, r0, asr #13
    13bc:	00000c76 	andeq	r0, r0, r6, ror ip
    13c0:	00c02200 	sbceq	r2, r0, r0, lsl #4
    13c4:	0a9f0000 	beq	fe7c13cc <__bss_end__+0xfe7b72ac>
    13c8:	2c230000 	stccs	0, cr0, [r3], #-0
    13cc:	0e000000 	cdpeq	0, 0, cr0, cr0, cr0, {0}
    13d0:	0a8f0900 	beq	fe3c37d8 <__bss_end__+0xfe3b96b8>
    13d4:	952c0000 	strls	r0, [ip, #-0]!
    13d8:	50000008 	andpl	r0, r0, r8
    13dc:	28000083 	stmdacs	r0, {r0, r1, r7}
    13e0:	01000003 	tsteq	r0, r3
    13e4:	000c3a9c 	muleq	ip, ip, sl
    13e8:	08a61b00 	stmiaeq	r6!, {r8, r9, fp, ip}
    13ec:	10690000 	rsbne	r0, r9, r0
    13f0:	10510000 	subsne	r0, r1, r0
    13f4:	b21b0000 	andslt	r0, fp, #0, 0
    13f8:	13000008 	movwne	r0, #8
    13fc:	0b000011 	bleq	1448 <__code_start__-0x6bb8>
    1400:	1b000011 	blne	144c <__code_start__-0x6bb4>
    1404:	000008c8 	andeq	r0, r0, r8, asr #17
    1408:	0000116a 	andeq	r1, r0, sl, ror #2
    140c:	0000114a 	andeq	r1, r0, sl, asr #2
    1410:	0008d41b 	andeq	sp, r8, fp, lsl r4
    1414:	00124000 	andseq	r4, r2, r0
    1418:	00123200 	andseq	r3, r2, r0, lsl #4
    141c:	08e02d00 	stmiaeq	r0!, {r8, sl, fp, sp}^
    1420:	91020000 	mrsls	r0, (UNDEF: 2)
    1424:	08ec1d00 	stmiaeq	ip!, {r8, sl, fp, ip}^
    1428:	91030000 	mrsls	r0, (UNDEF: 3)
    142c:	f81e7fa8 			; <UNDEFINED> instruction: 0xf81e7fa8
    1430:	d4000008 	strle	r0, [r0], #-8
    1434:	a0000012 	andge	r0, r0, r2, lsl r0
    1438:	1e000012 	mcrne	0, 0, r0, cr0, cr2, {0}
    143c:	00000902 	andeq	r0, r0, r2, lsl #18
    1440:	0000143b 	andeq	r1, r0, fp, lsr r4
    1444:	00001419 	andeq	r1, r0, r9, lsl r4
    1448:	0008be2e 	andeq	fp, r8, lr, lsr #28
    144c:	a31a8000 	tstge	sl, #0, 0
    1450:	f4000009 	vst4.8	{d0-d3}, [r0], r9
    1454:	04000083 	streq	r0, [r0], #-131	; 0xffffff7d
    1458:	00001800 	andeq	r1, r0, r0, lsl #16
    145c:	097c0100 	ldmdbeq	ip!, {r8}^
    1460:	00000b6d 	andeq	r0, r0, sp, ror #22
    1464:	0009ca1b 	andeq	ip, r9, fp, lsl sl
    1468:	00152300 	andseq	r2, r5, r0, lsl #6
    146c:	00151900 	andseq	r1, r5, r0, lsl #18
    1470:	09be1b00 	ldmibeq	lr!, {r8, r9, fp, ip}
    1474:	15770000 	ldrbne	r0, [r7, #-0]!
    1478:	15670000 	strbne	r0, [r7, #-0]!
    147c:	b41b0000 	ldrlt	r0, [fp], #-0
    1480:	f7000009 			; <UNDEFINED> instruction: 0xf7000009
    1484:	e3000015 	movw	r0, #21
    1488:	13000015 	movwne	r0, #21
    148c:	00000018 	andeq	r0, r0, r8, lsl r0
    1490:	0009d61e 	andeq	sp, r9, lr, lsl r6
    1494:	00168900 	andseq	r8, r6, r0, lsl #18
    1498:	00167900 	andseq	r7, r6, r0, lsl #18
    149c:	1a000000 	bne	14a4 <__code_start__-0x6b5c>
    14a0:	0000094f 	andeq	r0, r0, pc, asr #18
    14a4:	000084ac 	andeq	r8, r0, ip, lsr #9
    14a8:	00600002 	rsbeq	r0, r0, r2
    14ac:	7c010000 	stcvc	0, cr0, [r1], {-0}
    14b0:	000bd809 	andeq	sp, fp, r9, lsl #16
    14b4:	09801b00 	stmibeq	r0, {r8, r9, fp, ip}
    14b8:	16f50000 	ldrbtne	r0, [r5], r0
    14bc:	16ed0000 	strbtne	r0, [sp], r0
    14c0:	761b0000 	ldrvc	r0, [fp], -r0
    14c4:	34000009 	strcc	r0, [r0], #-9
    14c8:	2c000017 	stccs	0, cr0, [r0], {23}
    14cc:	1b000017 	blne	1530 <__code_start__-0x6ad0>
    14d0:	0000096c 	andeq	r0, r0, ip, ror #18
    14d4:	00001773 	andeq	r1, r0, r3, ror r7
    14d8:	0000176f 	andeq	r1, r0, pc, ror #14
    14dc:	0009601b 	andeq	r6, r9, fp, lsl r0
    14e0:	0017a300 	andseq	sl, r7, r0, lsl #6
    14e4:	00179500 	andseq	r9, r7, r0, lsl #10
    14e8:	00601300 	rsbeq	r1, r0, r0, lsl #6
    14ec:	8c1e0000 	ldchi	0, cr0, [lr], {-0}
    14f0:	08000009 	stmdaeq	r0, {r0, r3}
    14f4:	02000018 	andeq	r0, r0, #24, 0
    14f8:	1e000018 	mcrne	0, 0, r0, cr0, cr8, {0}
    14fc:	00000998 	muleq	r0, r8, r9
    1500:	0000183a 	andeq	r1, r0, sl, lsr r8
    1504:	00001836 	andeq	r1, r0, r6, lsr r8
    1508:	1b2f0000 	blne	bc1510 <__bss_end__+0xbb73f0>
    150c:	64000009 	strvs	r0, [r0], #-9
    1510:	60000085 	andvs	r0, r0, r5, lsl #1
    1514:	f7000000 			; <UNDEFINED> instruction: 0xf7000000
    1518:	1e00000b 	cdpne	0, 0, cr0, cr0, cr11, {0}
    151c:	0000091c 	andeq	r0, r0, ip, lsl r9
    1520:	0000185c 	andeq	r1, r0, ip, asr r8
    1524:	00001858 	andeq	r1, r0, r8, asr r8
    1528:	86381700 	ldrthi	r1, [r8], -r0, lsl #14
    152c:	0c460000 	mareq	acc0, r0, r6
    1530:	0c300000 	ldceq	0, cr0, [r0], #-0
    1534:	01180000 	tsteq	r8, r0
    1538:	80030550 	andhi	r0, r3, r0, asr r5
    153c:	18000099 	stmdane	r0, {r0, r3, r4, r7}
    1540:	03055101 	movweq	r5, #20737	; 0x5101
    1544:	0000996c 	andeq	r9, r0, ip, ror #18
    1548:	05520118 	ldrbeq	r0, [r2, #-280]	; 0xfffffee8
    154c:	009ac403 	addseq	ip, sl, r3, lsl #8
    1550:	53011800 	movwpl	r1, #6144	; 0x1800
    1554:	18790802 	ldmdane	r9!, {r1, fp}^
    1558:	05007d02 	streq	r7, [r0, #-3330]	; 0xfffff2fe
    155c:	00999403 	addseq	r9, r9, r3, lsl #8
    1560:	3c190000 	ldccc	0, cr0, [r9], {-0}
    1564:	76000086 	strvc	r0, [r0], -r6, lsl #1
    1568:	0000000c 	andeq	r0, r0, ip
    156c:	00042b30 	andeq	r2, r4, r0, lsr fp
    1570:	00042b00 	andeq	r2, r4, r0, lsl #22
    1574:	05eb0300 	strbeq	r0, [fp, #768]!	; 0x300
    1578:	00020930 	andeq	r0, r2, r0, lsr r9
    157c:	00020900 	andeq	r0, r2, r0, lsl #18
    1580:	06280300 	strteq	r0, [r8], -r0, lsl #6
    1584:	0003cd30 	andeq	ip, r3, r0, lsr sp
    1588:	0003cd00 	andeq	ip, r3, r0, lsl #26
    158c:	07ee0300 	strbeq	r0, [lr, r0, lsl #6]!
    1590:	0003fb30 	andeq	pc, r3, r0, lsr fp	; <UNPREDICTABLE>
    1594:	0003fb00 	andeq	pc, r3, r0, lsl #22
    1598:	05ea0300 	strbeq	r0, [sl, #768]!	; 0x300
    159c:	0003d430 	andeq	sp, r3, r0, lsr r4
    15a0:	0003d400 	andeq	sp, r3, r0, lsl #8
    15a4:	07ed0300 	strbeq	r0, [sp, r0, lsl #6]!
    15a8:	00001630 	andeq	r1, r0, r0, lsr r6
    15ac:	00001600 	andeq	r1, r0, r0, lsl #12
    15b0:	066e0300 	strbteq	r0, [lr], -r0, lsl #6
    15b4:	00012f00 	andeq	r2, r1, r0, lsl #30
    15b8:	3a000400 	bcc	25c0 <__code_start__-0x5a40>
    15bc:	04000008 	streq	r0, [r0], #-8
    15c0:	00021f01 	andeq	r1, r2, r1, lsl #30
    15c4:	04500c00 	ldrbeq	r0, [r0], #-3072	; 0xfffff400
    15c8:	02f60000 	rscseq	r0, r6, #0, 0
    15cc:	8d040000 	stchi	0, cr0, [r4, #-0]
    15d0:	002c0000 	eoreq	r0, ip, r0
    15d4:	0e860000 	cdpeq	0, 8, cr0, cr6, cr0, {0}
    15d8:	04020000 	streq	r0, [r2], #-0
    15dc:	746e6905 	strbtvc	r6, [lr], #-2309	; 0xfffff6fb
    15e0:	07040300 	streq	r0, [r4, -r0, lsl #6]
    15e4:	0000006c 	andeq	r0, r0, ip, rrx
    15e8:	0a060103 	beq	1819fc <__bss_end__+0x1778dc>
    15ec:	03000000 	movweq	r0, #0
    15f0:	00ca0502 	sbceq	r0, sl, r2, lsl #10
    15f4:	04030000 	streq	r0, [r3], #-0
    15f8:	00007e05 	andeq	r7, r0, r5, lsl #28
    15fc:	05080300 	streq	r0, [r8, #-768]	; 0xfffffd00
    1600:	00000079 	andeq	r0, r0, r9, ror r0
    1604:	08080103 	stmdaeq	r8, {r0, r1, r8}
    1608:	03000000 	movweq	r0, #0
    160c:	00230702 	eoreq	r0, r3, r2, lsl #14
    1610:	04030000 	streq	r0, [r3], #-0
    1614:	00006707 	andeq	r6, r0, r7, lsl #14
    1618:	07080300 	streq	r0, [r8, -r0, lsl #6]
    161c:	00000062 	andeq	r0, r0, r2, rrx
    1620:	00002504 	andeq	r2, r0, r4, lsl #10
    1624:	00007a00 	andeq	r7, r0, r0, lsl #20
    1628:	00250500 	eoreq	r0, r5, r0, lsl #10
    162c:	06000000 	streq	r0, [r0], -r0
    1630:	00000087 	andeq	r0, r0, r7, lsl #1
    1634:	860e1c02 	strhi	r1, [lr], -r2, lsl #24
    1638:	07000000 	streq	r0, [r0, -r0]
    163c:	00006b04 	andeq	r6, r0, r4, lsl #22
    1640:	00250400 	eoreq	r0, r5, r0, lsl #8
    1644:	009b0000 	addseq	r0, fp, r0
    1648:	9b050000 	blls	141650 <__bss_end__+0x137530>
    164c:	00000000 	andeq	r0, r0, r0
    1650:	00a80407 	adceq	r0, r8, r7, lsl #8
    1654:	01030000 	mrseq	r0, (UNDEF: 3)
    1658:	00001108 	andeq	r1, r0, r8, lsl #2
    165c:	00a10800 	adceq	r0, r1, r0, lsl #16
    1660:	21060000 	mrscs	r0, (UNDEF: 6)
    1664:	02000003 	andeq	r0, r0, #3, 0
    1668:	00b90e21 	adcseq	r0, r9, r1, lsr #28
    166c:	04070000 	streq	r0, [r7], #-0
    1670:	0000008c 	andeq	r0, r0, ip, lsl #1
    1674:	00001609 	andeq	r1, r0, r9, lsl #12
    1678:	06040100 	streq	r0, [r4], -r0, lsl #2
    167c:	00008d04 	andeq	r8, r0, r4, lsl #26
    1680:	0000002c 	andeq	r0, r0, ip, lsr #32
    1684:	010e9c01 	tsteq	lr, r1, lsl #24
    1688:	180a0000 	stmdane	sl, {}	; <UNPREDICTABLE>
    168c:	e800008d 	stmda	r0, {r0, r2, r3, r7}
    1690:	0b000000 	bleq	1698 <__code_start__-0x6968>
    1694:	03055001 	movweq	r5, #20481	; 0x5001
    1698:	00009ae8 	andeq	r9, r0, r8, ror #21
    169c:	8d1c0c00 	ldchi	12, cr0, [ip, #-0]
    16a0:	010e0000 	mrseq	r0, (UNDEF: 14)
    16a4:	240d0000 	strcs	r0, [sp], #-0
    16a8:	1a00008d 	bne	18e4 <__code_start__-0x671c>
    16ac:	04000001 	streq	r0, [r0], #-1
    16b0:	0b000001 	bleq	16bc <__code_start__-0x6944>
    16b4:	3a015001 	bcc	556c0 <__bss_end__+0x4b5a0>
    16b8:	8d280c00 	stchi	12, cr0, [r8, #-0]
    16bc:	01260000 			; <UNDEFINED> instruction: 0x01260000
    16c0:	0e000000 	cdpeq	0, 0, cr0, cr0, cr0, {0}
    16c4:	0000046b 	andeq	r0, r0, fp, ror #8
    16c8:	0000046b 	andeq	r0, r0, fp, ror #8
    16cc:	0e064d02 	cdpeq	13, 0, cr4, cr6, cr2, {0}
    16d0:	00000447 	andeq	r0, r0, r7, asr #8
    16d4:	00000447 	andeq	r0, r0, r7, asr #8
    16d8:	0e065802 	cdpeq	8, 0, cr5, cr6, cr2, {0}
    16dc:	0000043c 	andeq	r0, r0, ip, lsr r4
    16e0:	0000043c 	andeq	r0, r0, ip, lsr r4
    16e4:	00066b02 	andeq	r6, r6, r2, lsl #22
    16e8:	00000190 	muleq	r0, r0, r1
    16ec:	08fa0004 	ldmeq	sl!, {r2}^
    16f0:	01040000 	mrseq	r0, (UNDEF: 4)
    16f4:	0000021f 	andeq	r0, r0, pc, lsl r2
    16f8:	0004a10c 	andeq	sl, r4, ip, lsl #2
    16fc:	0002f600 	andeq	pc, r2, r0, lsl #12
    1700:	008d3000 	addeq	r3, sp, r0
    1704:	0000f800 	andeq	pc, r0, r0, lsl #16
    1708:	000f1100 	andeq	r1, pc, r0, lsl #2
    170c:	05040200 	streq	r0, [r4, #-512]	; 0xfffffe00
    1710:	00746e69 	rsbseq	r6, r4, r9, ror #28
    1714:	6c070403 	cfstrsvs	mvf0, [r7], {3}
    1718:	03000000 	movweq	r0, #0
    171c:	000a0601 	andeq	r0, sl, r1, lsl #12
    1720:	02030000 	andeq	r0, r3, #0, 0
    1724:	0000ca05 	andeq	ip, r0, r5, lsl #20
    1728:	05040300 	streq	r0, [r4, #-768]	; 0xfffffd00
    172c:	0000007e 	andeq	r0, r0, lr, ror r0
    1730:	79050803 	stmdbvc	r5, {r0, r1, fp}
    1734:	03000000 	movweq	r0, #0
    1738:	00080801 	andeq	r0, r8, r1, lsl #16
    173c:	02030000 	andeq	r0, r3, #0, 0
    1740:	00002307 	andeq	r2, r0, r7, lsl #6
    1744:	07040300 	streq	r0, [r4, -r0, lsl #6]
    1748:	00000067 	andeq	r0, r0, r7, rrx
    174c:	62070803 	andvs	r0, r7, #196608	; 0x30000
    1750:	04000000 	streq	r0, [r0], #-0
    1754:	00000025 	andeq	r0, r0, r5, lsr #32
    1758:	0000007a 	andeq	r0, r0, sl, ror r0
    175c:	00002505 	andeq	r2, r0, r5, lsl #10
    1760:	87060000 	strhi	r0, [r6, -r0]
    1764:	02000000 	andeq	r0, r0, #0, 0
    1768:	00860e1c 	addeq	r0, r6, ip, lsl lr
    176c:	04070000 	streq	r0, [r7], #-0
    1770:	0000006b 	andeq	r0, r0, fp, rrx
    1774:	00002504 	andeq	r2, r0, r4, lsl #10
    1778:	00009b00 	andeq	r9, r0, r0, lsl #22
    177c:	009b0500 	addseq	r0, fp, r0, lsl #10
    1780:	07000000 	streq	r0, [r0, -r0]
    1784:	0000a804 	andeq	sl, r0, r4, lsl #16
    1788:	08010300 	stmdaeq	r1, {r8, r9}
    178c:	00000011 	andeq	r0, r0, r1, lsl r0
    1790:	0000a108 	andeq	sl, r0, r8, lsl #2
    1794:	03210600 			; <UNDEFINED> instruction: 0x03210600
    1798:	21020000 	mrscs	r0, (UNDEF: 2)
    179c:	0000b90e 	andeq	fp, r0, lr, lsl #18
    17a0:	8c040700 	stchi	7, cr0, [r4], {-0}
    17a4:	09000000 	stmdbeq	r0, {}	; <UNPREDICTABLE>
    17a8:	00000479 	andeq	r0, r0, r9, ror r4
    17ac:	30060401 	andcc	r0, r6, r1, lsl #8
    17b0:	f800008d 			; <UNDEFINED> instruction: 0xf800008d
    17b4:	01000000 	mrseq	r0, (UNDEF: 0)
    17b8:	00015b9c 	muleq	r1, ip, fp
    17bc:	03670600 	cmneq	r7, #0, 12
    17c0:	05010000 	streq	r0, [r1, #-0]
    17c4:	00002510 	andeq	r2, r0, r0, lsl r5
    17c8:	03900600 	orrseq	r0, r0, #0, 12
    17cc:	05010000 	streq	r0, [r1, #-0]
    17d0:	0000251f 	andeq	r2, r0, pc, lsl r5
    17d4:	00000a00 	andeq	r0, r0, r0, lsl #20
    17d8:	06010000 	streq	r0, [r1], -r0
    17dc:	73620b07 	cmnvc	r2, #7168	; 0x1c00
    17e0:	0a010073 	beq	419b4 <__bss_end__+0x37894>
    17e4:	00015b0a 	andeq	r5, r1, sl, lsl #22
    17e8:	00189400 	andseq	r9, r8, r0, lsl #8
    17ec:	00187c00 	andseq	r7, r8, r0, lsl #24
    17f0:	04810c00 	streq	r0, [r1], #3072	; 0xc00
    17f4:	0b010000 	bleq	417fc <__bss_end__+0x376dc>
    17f8:	00015b0a 	andeq	r5, r1, sl, lsl #22
    17fc:	8e080d00 	cdphi	13, 0, cr0, cr8, cr0, {0}
    1800:	00080000 	andeq	r0, r8, r0
    1804:	01360000 	teqeq	r6, r0
    1808:	690b0000 	stmdbvs	fp, {}	; <UNPREDICTABLE>
    180c:	1401006e 	strne	r0, [r1], #-110	; 0xffffff92
    1810:	00002c05 	andeq	r2, r0, r5, lsl #24
    1814:	00192e00 	andseq	r2, r9, r0, lsl #28
    1818:	00192c00 	andseq	r2, r9, r0, lsl #24
    181c:	380e0000 	stmdacc	lr, {}	; <UNPREDICTABLE>
    1820:	6100008d 	smlabbvs	r0, sp, r0, r0
    1824:	0e000001 	cdpeq	0, 0, cr0, cr0, cr1, {0}
    1828:	00008e08 	andeq	r8, r0, r8, lsl #28
    182c:	0000016e 	andeq	r0, r0, lr, ror #2
    1830:	008e140e 	addeq	r1, lr, lr, lsl #8
    1834:	00017a00 	andeq	r7, r1, r0, lsl #20
    1838:	8e180e00 	cdphi	14, 1, cr0, cr8, cr0, {0}
    183c:	01870000 	orreq	r0, r7, r0
    1840:	07000000 	streq	r0, [r0, -r0]
    1844:	00002504 	andeq	r2, r0, r4, lsl #10
    1848:	04930f00 	ldreq	r0, [r3], #3840	; 0xf00
    184c:	04930000 	ldreq	r0, [r3], #0
    1850:	31020000 	mrscc	r0, (UNDEF: 2)
    1854:	89100601 	ldmdbhi	r0, {r0, r9, sl}
    1858:	89000004 	stmdbhi	r0, {r2}
    185c:	02000004 	andeq	r0, r0, #4, 0
    1860:	000f063b 	andeq	r0, pc, fp, lsr r6	; <UNPREDICTABLE>
    1864:	00000000 	andeq	r0, r0, r0
    1868:	02000000 	andeq	r0, r0, #0, 0
    186c:	10060105 	andne	r0, r6, r5, lsl #2
    1870:	00000016 	andeq	r0, r0, r6, lsl r0
    1874:	00000016 	andeq	r0, r0, r6, lsl r0
    1878:	00066e02 	andeq	r6, r6, r2, lsl #28
    187c:	000000ce 	andeq	r0, r0, lr, asr #1
    1880:	09e50004 	stmibeq	r5!, {r2}^
    1884:	01040000 	mrseq	r0, (UNDEF: 4)
    1888:	0000021f 	andeq	r0, r0, pc, lsl r2
    188c:	0004b60c 	andeq	fp, r4, ip, lsl #12
    1890:	0002f600 	andeq	pc, r2, r0, lsl #12
    1894:	008e2800 	addeq	r2, lr, r0, lsl #16
    1898:	00000400 	andeq	r0, r0, r0, lsl #8
    189c:	00102700 	andseq	r2, r0, r0, lsl #14
    18a0:	05040200 	streq	r0, [r4, #-512]	; 0xfffffe00
    18a4:	00746e69 	rsbseq	r6, r4, r9, ror #28
    18a8:	6c070403 	cfstrsvs	mvf0, [r7], {3}
    18ac:	03000000 	movweq	r0, #0
    18b0:	000a0601 	andeq	r0, sl, r1, lsl #12
    18b4:	02030000 	andeq	r0, r3, #0, 0
    18b8:	0000ca05 	andeq	ip, r0, r5, lsl #20
    18bc:	05040300 	streq	r0, [r4, #-768]	; 0xfffffd00
    18c0:	0000007e 	andeq	r0, r0, lr, ror r0
    18c4:	79050803 	stmdbvc	r5, {r0, r1, fp}
    18c8:	03000000 	movweq	r0, #0
    18cc:	00080801 	andeq	r0, r8, r1, lsl #16
    18d0:	02030000 	andeq	r0, r3, #0, 0
    18d4:	00002307 	andeq	r2, r0, r7, lsl #6
    18d8:	07040300 	streq	r0, [r4, -r0, lsl #6]
    18dc:	00000067 	andeq	r0, r0, r7, rrx
    18e0:	62070803 	andvs	r0, r7, #196608	; 0x30000
    18e4:	04000000 	streq	r0, [r0], #-0
    18e8:	00000025 	andeq	r0, r0, r5, lsr #32
    18ec:	0000007a 	andeq	r0, r0, sl, ror r0
    18f0:	00002505 	andeq	r2, r0, r5, lsl #10
    18f4:	87060000 	strhi	r0, [r6, -r0]
    18f8:	02000000 	andeq	r0, r0, #0, 0
    18fc:	00860e1c 	addeq	r0, r6, ip, lsl lr
    1900:	04070000 	streq	r0, [r7], #-0
    1904:	0000006b 	andeq	r0, r0, fp, rrx
    1908:	00002504 	andeq	r2, r0, r4, lsl #10
    190c:	00009b00 	andeq	r9, r0, r0, lsl #22
    1910:	009b0500 	addseq	r0, fp, r0, lsl #10
    1914:	07000000 	streq	r0, [r0, -r0]
    1918:	0000a804 	andeq	sl, r0, r4, lsl #16
    191c:	08010300 	stmdaeq	r1, {r8, r9}
    1920:	00000011 	andeq	r0, r0, r1, lsl r0
    1924:	0000a108 	andeq	sl, r0, r8, lsl #2
    1928:	03210600 			; <UNDEFINED> instruction: 0x03210600
    192c:	21020000 	mrscs	r0, (UNDEF: 2)
    1930:	0000b90e 	andeq	fp, r0, lr, lsl #18
    1934:	8c040700 	stchi	7, cr0, [r4], {-0}
    1938:	09000000 	stmdbeq	r0, {}	; <UNPREDICTABLE>
    193c:	00000493 	muleq	r0, r3, r4
    1940:	28060401 	stmdacs	r6, {r0, sl}
    1944:	0400008e 	streq	r0, [r0], #-142	; 0xffffff72
    1948:	01000000 	mrseq	r0, (UNDEF: 0)
    194c:	027d009c 	rsbseq	r0, sp, #156, 0	; 0x9c
    1950:	00040000 	andeq	r0, r4, r0
    1954:	00000a5e 	andeq	r0, r0, lr, asr sl
    1958:	021f0104 	andseq	r0, pc, #1
    195c:	fe0c0000 	cdp2	0, 0, cr0, cr12, cr0, {0}
    1960:	f6000004 			; <UNDEFINED> instruction: 0xf6000004
    1964:	08000002 	stmdaeq	r0, {r1}
    1968:	00000002 	andeq	r0, r0, r2
    196c:	a8000000 	stmdage	r0, {}	; <UNPREDICTABLE>
    1970:	02000010 	andeq	r0, r0, #16, 0
    1974:	6e690504 	cdpvs	5, 6, cr0, cr9, cr4, {0}
    1978:	25030074 	strcs	r0, [r3, #-116]	; 0xffffff8c
    197c:	04000000 	streq	r0, [r0], #-0
    1980:	006c0704 	rsbeq	r0, ip, r4, lsl #14
    1984:	01040000 	mrseq	r0, (UNDEF: 4)
    1988:	00000a06 	andeq	r0, r0, r6, lsl #20
    198c:	05020400 	streq	r0, [r2, #-1024]	; 0xfffffc00
    1990:	000000ca 	andeq	r0, r0, sl, asr #1
    1994:	7e050404 	cdpvc	4, 0, cr0, cr5, cr4, {0}
    1998:	04000000 	streq	r0, [r0], #-0
    199c:	00790508 	rsbseq	r0, r9, r8, lsl #10
    19a0:	01040000 	mrseq	r0, (UNDEF: 4)
    19a4:	00000808 	andeq	r0, r0, r8, lsl #16
    19a8:	07020400 	streq	r0, [r2, -r0, lsl #8]
    19ac:	00000023 	andeq	r0, r0, r3, lsr #32
    19b0:	67070404 	strvs	r0, [r7, -r4, lsl #8]
    19b4:	04000000 	streq	r0, [r0], #-0
    19b8:	00620708 	rsbeq	r0, r2, r8, lsl #14
    19bc:	25050000 	strcs	r0, [r5, #-0]
    19c0:	7f000000 	svcvc	0x00000000
    19c4:	06000000 	streq	r0, [r0], -r0
    19c8:	00000025 	andeq	r0, r0, r5, lsr #32
    19cc:	00870700 	addeq	r0, r7, r0, lsl #14
    19d0:	1c020000 	stcne	0, cr0, [r2], {-0}
    19d4:	00008b0e 	andeq	r8, r0, lr, lsl #22
    19d8:	70040800 	andvc	r0, r4, r0, lsl #16
    19dc:	05000000 	streq	r0, [r0, #-0]
    19e0:	00000025 	andeq	r0, r0, r5, lsr #32
    19e4:	000000a0 	andeq	r0, r0, r0, lsr #1
    19e8:	0000a006 	andeq	sl, r0, r6
    19ec:	04080000 	streq	r0, [r8], #-0
    19f0:	000000ad 	andeq	r0, r0, sp, lsr #1
    19f4:	11080104 	tstne	r8, r4, lsl #2
    19f8:	03000000 	movweq	r0, #0
    19fc:	000000a6 	andeq	r0, r0, r6, lsr #1
    1a00:	00032107 	andeq	r2, r3, r7, lsl #2
    1a04:	0e210200 	cdpeq	2, 2, cr0, cr1, cr0, {0}
    1a08:	000000be 	strheq	r0, [r0], -lr
    1a0c:	00910408 	addseq	r0, r1, r8, lsl #8
    1a10:	22090000 	andcs	r0, r9, #0, 0
    1a14:	01000005 	tsteq	r0, r5
    1a18:	0031110d 	eorseq	r1, r1, sp, lsl #2
    1a1c:	3c0a0000 	stccc	0, cr0, [sl], {-0}
    1a20:	01000004 	tsteq	r0, r4
    1a24:	8e58061f 	mrchi	6, 2, r0, cr8, cr15, {0}
    1a28:	00600000 	rsbeq	r0, r0, r0
    1a2c:	9c010000 	stcls	0, cr0, [r1], {-0}
    1a30:	000001d5 	ldrdeq	r0, [r0], -r5
    1a34:	0005460b 	andeq	r4, r5, fp, lsl #12
    1a38:	0f2c0100 	svceq	0x002c0100
    1a3c:	0000002c 	andeq	r0, r0, ip, lsr #32
    1a40:	2010001c 	andscs	r0, r0, ip, lsl r0
    1a44:	0004e10b 	andeq	lr, r4, fp, lsl #2
    1a48:	0f2d0100 	svceq	0x002d0100
    1a4c:	0000002c 	andeq	r0, r0, ip, lsr #32
    1a50:	20100024 	andscs	r0, r0, r4, lsr #32
    1a54:	0005130b 	andeq	r1, r5, fp, lsl #6
    1a58:	0f2e0100 	svceq	0x002e0100
    1a5c:	0000002c 	andeq	r0, r0, ip, lsr #32
    1a60:	5a000000 	bpl	1a68 <__code_start__-0x6598>
    1a64:	00052d0c 	andeq	r2, r5, ip, lsl #26
    1a68:	0f2f0100 	svceq	0x002f0100
    1a6c:	0000002c 	andeq	r0, r0, ip, lsr #32
    1a70:	01ef0d20 	mvneq	r0, r0, lsr #26
    1a74:	8e580000 	cdphi	0, 5, cr0, cr8, cr0, {0}
    1a78:	f0020000 			; <UNDEFINED> instruction: 0xf0020000
    1a7c:	01000001 	tsteq	r0, r1
    1a80:	014c0820 	cmpeq	ip, r0, lsr #16
    1a84:	f00e0000 			; <UNDEFINED> instruction: 0xf00e0000
    1a88:	0f000001 	svceq	0x00000001
    1a8c:	00000200 	andeq	r0, r0, r0, lsl #4
    1a90:	00001946 	andeq	r1, r0, r6, asr #18
    1a94:	00001942 	andeq	r1, r0, r2, asr #18
    1a98:	d5100000 	ldrle	r0, [r0, #-0]
    1a9c:	6c000001 	stcvs	0, cr0, [r0], {1}
    1aa0:	0100008e 	smlabbeq	r0, lr, r0, r0
    1aa4:	00008e6c 	andeq	r8, r0, ip, ror #28
    1aa8:	00000010 	andeq	r0, r0, r0, lsl r0
    1aac:	73092101 	movwvc	r2, #37121	; 0x9101
    1ab0:	0f000001 	svceq	0x00000001
    1ab4:	000001e2 	andeq	r0, r0, r2, ror #3
    1ab8:	0000196d 	andeq	r1, r0, sp, ror #18
    1abc:	00001965 	andeq	r1, r0, r5, ror #18
    1ac0:	8e801100 	rmfhis	f1, f0, f0
    1ac4:	024f0000 	subeq	r0, pc, #0, 0
    1ac8:	84110000 	ldrhi	r0, [r1], #-0
    1acc:	5c00008e 	stcpl	0, cr0, [r0], {142}	; 0x8e
    1ad0:	12000002 	andne	r0, r0, #2, 0
    1ad4:	00008e8c 	andeq	r8, r0, ip, lsl #29
    1ad8:	00000268 	andeq	r0, r0, r8, ror #4
    1adc:	00000198 	muleq	r0, r8, r1
    1ae0:	01500113 	cmpeq	r0, r3, lsl r1
    1ae4:	9812003a 	ldmdals	r2, {r1, r3, r4, r5}
    1ae8:	7400008e 	strvc	r0, [r0], #-142	; 0xffffff72
    1aec:	b8000002 	stmdalt	r0, {r1}
    1af0:	13000001 	movwne	r0, #1
    1af4:	0c055001 	stceq	0, cr5, [r5], {1}
    1af8:	20100024 	andscs	r0, r0, r4, lsr #32
    1afc:	05510113 	ldrbeq	r0, [r1, #-275]	; 0xfffffeed
    1b00:	0000010c 	andeq	r0, r0, ip, lsl #2
    1b04:	a414005a 	ldrge	r0, [r4], #-90	; 0xffffffa6
    1b08:	7400008e 	strvc	r0, [r0], #-142	; 0xffffff72
    1b0c:	13000002 	movwne	r0, #2
    1b10:	0c055001 	stceq	0, cr5, [r5], {1}
    1b14:	2010001c 	andscs	r0, r0, ip, lsl r0
    1b18:	05510113 	ldrbeq	r0, [r1, #-275]	; 0xfffffeed
    1b1c:	0000200c 	andeq	r2, r0, ip
    1b20:	1500005a 	strne	r0, [r0, #-90]	; 0xffffffa6
    1b24:	000004ef 	andeq	r0, r0, pc, ror #9
    1b28:	01061701 	tsteq	r6, r1, lsl #14
    1b2c:	000001ef 	andeq	r0, r0, pc, ror #3
    1b30:	00054e09 	andeq	r4, r5, r9, lsl #28
    1b34:	0e180100 	mufeqe	f0, f0, f0
    1b38:	00000031 	andeq	r0, r0, r1, lsr r0
    1b3c:	051f1600 	ldreq	r1, [pc, #-1536]	; 1544 <__code_start__-0x6abc>
    1b40:	0e010000 	cdpeq	0, 0, cr0, cr1, cr0, {0}
    1b44:	00002505 	andeq	r2, r0, r5, lsl #10
    1b48:	020d0100 	andeq	r0, sp, #0
    1b4c:	4e090000 	cdpmi	0, 0, cr0, cr9, cr0, {0}
    1b50:	01000005 	tsteq	r0, r5
    1b54:	00310e0f 	eorseq	r0, r1, pc, lsl #28
    1b58:	17000000 	strne	r0, [r0, -r0]
    1b5c:	000001ef 	andeq	r0, r0, pc, ror #3
    1b60:	00008e2c 	andeq	r8, r0, ip, lsr #28
    1b64:	00000018 	andeq	r0, r0, r8, lsl r0
    1b68:	022e9c01 	eoreq	r9, lr, #256	; 0x100
    1b6c:	000f0000 	andeq	r0, pc, r0
    1b70:	aa000002 	bge	1b80 <__code_start__-0x6480>
    1b74:	a6000019 			; <UNDEFINED> instruction: 0xa6000019
    1b78:	00000019 	andeq	r0, r0, r9, lsl r0
    1b7c:	0001d517 	andeq	sp, r1, r7, lsl r5
    1b80:	008e4400 	addeq	r4, lr, r0, lsl #8
    1b84:	00001400 	andeq	r1, r0, r0, lsl #8
    1b88:	4f9c0100 	svcmi	0x009c0100
    1b8c:	0f000002 	svceq	0x00000002
    1b90:	000001e2 	andeq	r0, r0, r2, ror #3
    1b94:	000019d1 	ldrdeq	r1, [r0], -r1	; <UNPREDICTABLE>
    1b98:	000019c9 	andeq	r1, r0, r9, asr #19
    1b9c:	04d21800 	ldrbeq	r1, [r2], #2048	; 0x800
    1ba0:	04d20000 	ldrbeq	r0, [r2], #0
    1ba4:	36020000 	strcc	r0, [r2], -r0
    1ba8:	6b190601 	blvs	6433b4 <__bss_end__+0x639294>
    1bac:	6b000004 	blvs	1bc4 <__code_start__-0x643c>
    1bb0:	02000004 	andeq	r0, r0, #4, 0
    1bb4:	4719064d 	ldrmi	r0, [r9, -sp, asr #12]
    1bb8:	47000004 	strmi	r0, [r0, -r4]
    1bbc:	02000004 	andeq	r0, r0, #4, 0
    1bc0:	e9190658 	ldmdb	r9, {r3, r4, r6, r9, sl}
    1bc4:	e9000004 	stmdb	r0, {r2}
    1bc8:	02000004 	andeq	r0, r0, #4, 0
    1bcc:	3f0006ad 	svccc	0x000006ad
    1bd0:	04000005 	streq	r0, [r0], #-5
    1bd4:	000be100 	andeq	lr, fp, r0, lsl #2
    1bd8:	1f010400 	svcne	0x00010400
    1bdc:	0c000002 	stceq	0, cr0, [r0], {2}
    1be0:	00000569 	andeq	r0, r0, r9, ror #10
    1be4:	000002f6 	strdeq	r0, [r0], -r6
    1be8:	00008eb8 			; <UNDEFINED> instruction: 0x00008eb8
    1bec:	0000011c 	andeq	r0, r0, ip, lsl r1
    1bf0:	000011c0 	andeq	r1, r0, r0, asr #3
    1bf4:	69050402 	stmdbvs	r5, {r1, sl}
    1bf8:	0300746e 	movweq	r7, #1134	; 0x46e
    1bfc:	006c0704 	rsbeq	r0, ip, r4, lsl #14
    1c00:	01030000 	mrseq	r0, (UNDEF: 3)
    1c04:	00000a06 	andeq	r0, r0, r6, lsl #20
    1c08:	05020300 	streq	r0, [r2, #-768]	; 0xfffffd00
    1c0c:	000000ca 	andeq	r0, r0, sl, asr #1
    1c10:	7e050403 	cdpvc	4, 0, cr0, cr5, cr3, {0}
    1c14:	03000000 	movweq	r0, #0
    1c18:	00790508 	rsbseq	r0, r9, r8, lsl #10
    1c1c:	01030000 	mrseq	r0, (UNDEF: 3)
    1c20:	00000808 	andeq	r0, r0, r8, lsl #16
    1c24:	07020300 	streq	r0, [r2, -r0, lsl #6]
    1c28:	00000023 	andeq	r0, r0, r3, lsr #32
    1c2c:	67070403 	strvs	r0, [r7, -r3, lsl #8]
    1c30:	03000000 	movweq	r0, #0
    1c34:	00620708 	rsbeq	r0, r2, r8, lsl #14
    1c38:	25040000 	strcs	r0, [r4, #-0]
    1c3c:	7a000000 	bvc	1c44 <__code_start__-0x63bc>
    1c40:	05000000 	streq	r0, [r0, #-0]
    1c44:	00000025 	andeq	r0, r0, r5, lsr #32
    1c48:	00870600 	addeq	r0, r7, r0, lsl #12
    1c4c:	1c020000 	stcne	0, cr0, [r2], {-0}
    1c50:	0000860e 	andeq	r8, r0, lr, lsl #12
    1c54:	6b040700 	blvs	10385c <__bss_end__+0xf973c>
    1c58:	04000000 	streq	r0, [r0], #-0
    1c5c:	00000025 	andeq	r0, r0, r5, lsr #32
    1c60:	0000009b 	muleq	r0, fp, r0
    1c64:	00009b05 	andeq	r9, r0, r5, lsl #22
    1c68:	04070000 	streq	r0, [r7], #-0
    1c6c:	000000a8 	andeq	r0, r0, r8, lsr #1
    1c70:	11080103 	tstne	r8, r3, lsl #2
    1c74:	08000000 	stmdaeq	r0, {}	; <UNPREDICTABLE>
    1c78:	000000a1 	andeq	r0, r0, r1, lsr #1
    1c7c:	00032106 	andeq	r2, r3, r6, lsl #2
    1c80:	0e210200 	cdpeq	2, 2, cr0, cr1, cr0, {0}
    1c84:	000000b9 	strheq	r0, [r0], -r9
    1c88:	008c0407 	addeq	r0, ip, r7, lsl #8
    1c8c:	5f090000 	svcpl	0x00090000
    1c90:	01000005 	tsteq	r0, r5
    1c94:	8f80061e 	svchi	0x0080061e
    1c98:	00540000 	subseq	r0, r4, r0
    1c9c:	9c010000 	stcls	0, cr0, [r1], {-0}
    1ca0:	0000020b 	andeq	r0, r0, fp, lsl #4
    1ca4:	6365730a 	cmnvs	r5, #671088640	; 0x28000000
    1ca8:	191e0100 	ldmdbne	lr, {r8}
    1cac:	0000002c 	andeq	r0, r0, ip, lsr #32
    1cb0:	00001a0e 	andeq	r1, r0, lr, lsl #20
    1cb4:	00001a0a 	andeq	r1, r0, sl, lsl #20
    1cb8:	00020b0b 	andeq	r0, r2, fp, lsl #22
    1cbc:	008f8000 	addeq	r8, pc, r0
    1cc0:	02d00200 	sbcseq	r0, r0, #0, 4
    1cc4:	1f010000 	svcne	0x00010000
    1cc8:	02180c05 	andseq	r0, r8, #1280	; 0x500
    1ccc:	1a330000 	bne	cc1cd4 <__bss_end__+0xcb7bb4>
    1cd0:	1a2f0000 	bne	bc1cd8 <__bss_end__+0xbb7bb8>
    1cd4:	240d0000 	strcs	r0, [sp], #-0
    1cd8:	94000002 	strls	r0, [r0], #-2
    1cdc:	0000008f 	andeq	r0, r0, pc, lsl #1
    1ce0:	00008f94 	muleq	r0, r4, pc	; <UNPREDICTABLE>
    1ce4:	00000040 	andeq	r0, r0, r0, asr #32
    1ce8:	0c051c01 	stceq	12, cr1, [r5], {1}
    1cec:	00000231 	andeq	r0, r0, r1, lsr r2
    1cf0:	00001a60 	andeq	r1, r0, r0, ror #20
    1cf4:	00001a5e 	andeq	r1, r0, lr, asr sl
    1cf8:	00023c0e 	andeq	r3, r2, lr, lsl #24
    1cfc:	001a7500 	andseq	r7, sl, r0, lsl #10
    1d00:	001a7300 	andseq	r7, sl, r0, lsl #6
    1d04:	02550f00 	subseq	r0, r5, #0, 30
    1d08:	8f940000 	svchi	0x00940000
    1d0c:	94020000 	strls	r0, [r2], #-0
    1d10:	1400008f 	strne	r0, [r0], #-143	; 0xffffff71
    1d14:	01000000 	mrseq	r0, (UNDEF: 0)
    1d18:	019c1313 	orrseq	r1, ip, r3, lsl r3
    1d1c:	660e0000 	strvs	r0, [lr], -r0
    1d20:	8c000002 	stchi	0, cr0, [r0], {2}
    1d24:	8800001a 	stmdahi	r0, {r1, r3, r4}
    1d28:	0f00001a 	svceq	0x0000001a
    1d2c:	00000271 	andeq	r0, r0, r1, ror r2
    1d30:	00008f98 	muleq	r0, r8, pc	; <UNPREDICTABLE>
    1d34:	008f9801 	addeq	r9, pc, r1, lsl #16
    1d38:	00000c00 	andeq	r0, r0, r0, lsl #24
    1d3c:	120d0100 	andne	r0, sp, #0
    1d40:	00000189 	andeq	r0, r0, r9, lsl #3
    1d44:	008fa010 	addeq	sl, pc, r0, lsl r0	; <UNPREDICTABLE>
    1d48:	00052a00 	andeq	r2, r5, r0, lsl #20
    1d4c:	50011100 	andpl	r1, r1, r0, lsl #2
    1d50:	30040c05 	andcc	r0, r4, r5, lsl #24
    1d54:	00002000 	andeq	r2, r0, r0
    1d58:	008f9812 	addeq	r9, pc, r2, lsl r8	; <UNPREDICTABLE>
    1d5c:	00053600 	andeq	r3, r5, r0, lsl #12
    1d60:	8fa81200 	svchi	0x00a81200
    1d64:	05360000 	ldreq	r0, [r6, #-0]!
    1d68:	13000000 	movwne	r0, #0
    1d6c:	00000247 	andeq	r0, r0, r7, asr #4
    1d70:	000002e8 	andeq	r0, r0, r8, ror #5
    1d74:	00024814 	andeq	r4, r2, r4, lsl r8
    1d78:	02550b00 	subseq	r0, r5, #0, 22
    1d7c:	8fac0000 	svchi	0x00ac0000
    1d80:	00020000 	andeq	r0, r2, r0
    1d84:	01000003 	tsteq	r0, r3
    1d88:	00151715 	andseq	r1, r5, r5, lsl r7
    1d8c:	0e000003 	cdpeq	0, 0, cr0, cr0, cr3, {0}
    1d90:	00000266 	andeq	r0, r0, r6, ror #4
    1d94:	00001aac 	andeq	r1, r0, ip, lsr #21
    1d98:	00001aaa 	andeq	r1, r0, sl, lsr #21
    1d9c:	00027116 	andeq	r7, r2, r6, lsl r1
    1da0:	008fb000 	addeq	fp, pc, r0
    1da4:	03200100 	nopeq	{0}	; <UNPREDICTABLE>
    1da8:	0d010000 	stceq	0, cr0, [r1, #-0]
    1dac:	0001f312 	andeq	pc, r1, r2, lsl r3	; <UNPREDICTABLE>
    1db0:	8fb81000 	svchi	0x00b81000
    1db4:	052a0000 	streq	r0, [sl, #-0]!
    1db8:	01110000 	tsteq	r1, r0
    1dbc:	00770250 	rsbseq	r0, r7, r0, asr r2
    1dc0:	b0120000 	andslt	r0, r2, r0
    1dc4:	3600008f 	strcc	r0, [r0], -pc, lsl #1
    1dc8:	12000005 	andne	r0, r0, #5, 0
    1dcc:	00008fc4 	andeq	r8, r0, r4, asr #31
    1dd0:	00000536 	andeq	r0, r0, r6, lsr r5
    1dd4:	00000000 	andeq	r0, r0, r0
    1dd8:	47170000 	ldrmi	r0, [r7, -r0]
    1ddc:	01000004 	tsteq	r0, r4
    1de0:	2401061b 	strcs	r0, [r1], #-1563	; 0xfffff9e5
    1de4:	18000002 	stmdane	r0, {r1}
    1de8:	0100736d 	tsteq	r0, sp, ror #6
    1dec:	002c181b 	eoreq	r1, ip, fp, lsl r8
    1df0:	17000000 	strne	r0, [r0, -r0]
    1df4:	00000592 	muleq	r0, r2, r5
    1df8:	01061201 	tsteq	r6, r1, lsl #4
    1dfc:	00000255 	andeq	r0, r0, r5, asr r2
    1e00:	00737518 	rsbseq	r7, r3, r8, lsl r5
    1e04:	2c181201 	lfmcs	f1, 4, [r8], {1}
    1e08:	19000000 	stmdbne	r0, {}	; <UNPREDICTABLE>
    1e0c:	01006272 	tsteq	r0, r2, ror r2
    1e10:	002c0e13 	eoreq	r0, ip, r3, lsl lr
    1e14:	191a0000 	ldmdbne	sl, {}	; <UNPREDICTABLE>
    1e18:	01006172 	tsteq	r0, r2, ror r1
    1e1c:	002c1215 	eoreq	r1, ip, r5, lsl r2
    1e20:	00000000 	andeq	r0, r0, r0
    1e24:	0005831b 	andeq	r8, r5, fp, lsl r3
    1e28:	0a090100 	beq	242230 <__bss_end__+0x238110>
    1e2c:	0000002c 	andeq	r0, r0, ip, lsr #32
    1e30:	00027101 	andeq	r7, r2, r1, lsl #2
    1e34:	00751900 	rsbseq	r1, r5, r0, lsl #18
    1e38:	2c0e0d01 	stccs	13, cr0, [lr], {1}
    1e3c:	00000000 	andeq	r0, r0, r0
    1e40:	00059b1c 	andeq	r9, r5, ip, lsl fp
    1e44:	0a040100 	beq	10224c <__bss_end__+0xf812c>
    1e48:	0000002c 	andeq	r0, r0, ip, lsr #32
    1e4c:	02711d01 	rsbseq	r1, r1, #64	; 0x40
    1e50:	8eb80000 	cdphi	0, 11, cr0, cr8, cr0, {0}
    1e54:	000c0000 	andeq	r0, ip, r0
    1e58:	9c010000 	stcls	0, cr0, [r1], {-0}
    1e5c:	000002a5 	andeq	r0, r0, r5, lsr #5
    1e60:	008ec01e 	addeq	ip, lr, lr, lsl r0
    1e64:	00052a00 	andeq	r2, r5, r0, lsl #20
    1e68:	50011100 	andpl	r1, r1, r0, lsl #2
    1e6c:	30040c05 	andcc	r0, r4, r5, lsl #24
    1e70:	00002000 	andeq	r2, r0, r0
    1e74:	0002551d 	andeq	r5, r2, sp, lsl r5
    1e78:	008ec400 	addeq	ip, lr, r0, lsl #8
    1e7c:	00002400 	andeq	r2, r0, r0, lsl #8
    1e80:	059c0100 	ldreq	r0, [ip, #256]	; 0x100
    1e84:	0e000003 	cdpeq	0, 0, cr0, cr0, cr3, {0}
    1e88:	00000266 	andeq	r0, r0, r6, ror #4
    1e8c:	00001ac3 	andeq	r1, r0, r3, asr #21
    1e90:	00001abf 			; <UNDEFINED> instruction: 0x00001abf
    1e94:	0002710f 	andeq	r7, r2, pc, lsl #2
    1e98:	008ecc00 	addeq	ip, lr, r0, lsl #24
    1e9c:	8ecc0100 	polhie	f0, f4, f0
    1ea0:	000c0000 	andeq	r0, ip, r0
    1ea4:	0d010000 	stceq	0, cr0, [r1, #-0]
    1ea8:	0002f212 	andeq	pc, r2, r2, lsl r2	; <UNPREDICTABLE>
    1eac:	8ed41000 	cdphi	0, 13, cr1, cr4, cr0, {0}
    1eb0:	052a0000 	streq	r0, [sl, #-0]!
    1eb4:	01110000 	tsteq	r1, r0
    1eb8:	040c0550 	streq	r0, [ip], #-1360	; 0xfffffab0
    1ebc:	00200030 	eoreq	r0, r0, r0, lsr r0
    1ec0:	8ecc1200 	cdphi	2, 12, cr1, cr12, cr0, {0}
    1ec4:	05360000 	ldreq	r0, [r6, #-0]!
    1ec8:	dc120000 	ldcle	0, cr0, [r2], {-0}
    1ecc:	3600008e 	strcc	r0, [r0], -lr, lsl #1
    1ed0:	00000005 	andeq	r0, r0, r5
    1ed4:	0002241d 	andeq	r2, r2, sp, lsl r4
    1ed8:	008ee800 	addeq	lr, lr, r0, lsl #16
    1edc:	00004800 	andeq	r4, r0, r0, lsl #16
    1ee0:	079c0100 	ldreq	r0, [ip, r0, lsl #2]
    1ee4:	0c000004 	stceq	0, cr0, [r0], {4}
    1ee8:	00000231 	andeq	r0, r0, r1, lsr r2
    1eec:	00001ae5 	andeq	r1, r0, r5, ror #21
    1ef0:	00001ae1 	andeq	r1, r0, r1, ror #21
    1ef4:	00023c0e 	andeq	r3, r2, lr, lsl #24
    1ef8:	001b0500 	andseq	r0, fp, r0, lsl #10
    1efc:	001b0300 	andseq	r0, fp, r0, lsl #6
    1f00:	02551600 	subseq	r1, r5, #0, 12
    1f04:	8ee80000 	cdphi	0, 14, cr0, cr8, cr0, {0}
    1f08:	18020000 	stmdane	r2, {}	; <UNPREDICTABLE>
    1f0c:	01000002 	tsteq	r0, r2
    1f10:	039a1313 	orrseq	r1, sl, #1275068416	; 0x4c000000
    1f14:	18150000 	ldmdane	r5, {}	; <UNPREDICTABLE>
    1f18:	0e000002 	cdpeq	0, 0, cr0, cr0, cr2, {0}
    1f1c:	00000266 	andeq	r0, r0, r6, ror #4
    1f20:	00001b1c 	andeq	r1, r0, ip, lsl fp
    1f24:	00001b18 	andeq	r1, r0, r8, lsl fp
    1f28:	0002710f 	andeq	r7, r2, pc, lsl #2
    1f2c:	008ef400 	addeq	pc, lr, r0, lsl #8
    1f30:	8ef40100 	cdphi	1, 15, cr0, cr4, cr0, {0}
    1f34:	000c0000 	andeq	r0, ip, r0
    1f38:	0d010000 	stceq	0, cr0, [r1, #-0]
    1f3c:	00038612 	andeq	r8, r3, r2, lsl r6
    1f40:	8efc1000 	cdphi	0, 15, cr1, cr12, cr0, {0}
    1f44:	052a0000 	streq	r0, [sl, #-0]!
    1f48:	01110000 	tsteq	r1, r0
    1f4c:	040c0550 	streq	r0, [ip], #-1360	; 0xfffffab0
    1f50:	00200030 	eoreq	r0, r0, r0, lsr r0
    1f54:	8ef41200 	cdphi	2, 15, cr1, cr4, cr0, {0}
    1f58:	05360000 	ldreq	r0, [r6, #-0]!
    1f5c:	04120000 	ldreq	r0, [r2], #-0
    1f60:	3600008f 	strcc	r0, [r0], -pc, lsl #1
    1f64:	00000005 	andeq	r0, r0, r5
    1f68:	02471300 	subeq	r1, r7, #0, 6
    1f6c:	02300000 	eorseq	r0, r0, #0, 0
    1f70:	48140000 	ldmdami	r4, {}	; <UNPREDICTABLE>
    1f74:	0b000002 	bleq	1f84 <__code_start__-0x607c>
    1f78:	00000255 	andeq	r0, r0, r5, asr r2
    1f7c:	00008f08 	andeq	r8, r0, r8, lsl #30
    1f80:	00024802 	andeq	r4, r2, r2, lsl #16
    1f84:	17150100 	ldrne	r0, [r5, -r0, lsl #2]
    1f88:	00024815 	andeq	r4, r2, r5, lsl r8
    1f8c:	02660e00 	rsbeq	r0, r6, #0, 28
    1f90:	1b3c0000 	blne	f01f98 <__bss_end__+0xef7e78>
    1f94:	1b3a0000 	blne	e81f9c <__bss_end__+0xe77e7c>
    1f98:	71160000 	tstvc	r6, r0
    1f9c:	0c000002 	stceq	0, cr0, [r0], {2}
    1fa0:	0100008f 	smlabbeq	r0, pc, r0, r0	; <UNPREDICTABLE>
    1fa4:	00000268 	andeq	r0, r0, r8, ror #4
    1fa8:	f1120d01 			; <UNDEFINED> instruction: 0xf1120d01
    1fac:	10000003 	andne	r0, r0, r3
    1fb0:	00008f14 	andeq	r8, r0, r4, lsl pc
    1fb4:	0000052a 	andeq	r0, r0, sl, lsr #10
    1fb8:	02500111 	subseq	r0, r0, #1073741828	; 0x40000004
    1fbc:	00000077 	andeq	r0, r0, r7, ror r0
    1fc0:	008f0c12 	addeq	r0, pc, r2, lsl ip	; <UNPREDICTABLE>
    1fc4:	00053600 	andeq	r3, r5, r0, lsl #12
    1fc8:	8f201200 	svchi	0x00201200
    1fcc:	05360000 	ldreq	r0, [r6, #-0]!
    1fd0:	00000000 	andeq	r0, r0, r0
    1fd4:	0b1d0000 	bleq	741fdc <__bss_end__+0x737ebc>
    1fd8:	30000002 	andcc	r0, r0, r2
    1fdc:	5000008f 	andpl	r0, r0, pc, lsl #1
    1fe0:	01000000 	mrseq	r0, (UNDEF: 0)
    1fe4:	00052a9c 	muleq	r5, ip, sl
    1fe8:	02180c00 	andseq	r0, r8, #0, 24
    1fec:	1b530000 	blne	14c1ff4 <__bss_end__+0x14b7ed4>
    1ff0:	1b4f0000 	blne	13c1ff8 <__bss_end__+0x13b7ed8>
    1ff4:	240d0000 	strcs	r0, [sp], #-0
    1ff8:	40000002 	andmi	r0, r0, r2
    1ffc:	0000008f 	andeq	r0, r0, pc, lsl #1
    2000:	00008f40 	andeq	r8, r0, r0, asr #30
    2004:	00000040 	andeq	r0, r0, r0, asr #32
    2008:	0c051c01 	stceq	12, cr1, [r5], {1}
    200c:	00000231 	andeq	r0, r0, r1, lsr r2
    2010:	00001b76 	andeq	r1, r0, r6, ror fp
    2014:	00001b74 	andeq	r1, r0, r4, ror fp
    2018:	00023c0e 	andeq	r3, r2, lr, lsl #24
    201c:	001b8b00 	andseq	r8, fp, r0, lsl #22
    2020:	001b8900 	andseq	r8, fp, r0, lsl #18
    2024:	02550f00 	subseq	r0, r5, #0, 30
    2028:	8f400000 	svchi	0x00400000
    202c:	40020000 	andmi	r0, r2, r0
    2030:	1400008f 	strne	r0, [r0], #-143	; 0xffffff71
    2034:	01000000 	mrseq	r0, (UNDEF: 0)
    2038:	04bc1313 	ldrteq	r1, [ip], #787	; 0x313
    203c:	660e0000 	strvs	r0, [lr], -r0
    2040:	a2000002 	andge	r0, r0, #2, 0
    2044:	9e00001b 	mcrls	0, 0, r0, cr0, cr11, {0}
    2048:	0f00001b 	svceq	0x0000001b
    204c:	00000271 	andeq	r0, r0, r1, ror r2
    2050:	00008f44 	andeq	r8, r0, r4, asr #30
    2054:	008f4401 	addeq	r4, pc, r1, lsl #8
    2058:	00000c00 	andeq	r0, r0, r0, lsl #24
    205c:	120d0100 	andne	r0, sp, #0
    2060:	000004a9 	andeq	r0, r0, r9, lsr #9
    2064:	008f4c10 	addeq	r4, pc, r0, lsl ip	; <UNPREDICTABLE>
    2068:	00052a00 	andeq	r2, r5, r0, lsl #20
    206c:	50011100 	andpl	r1, r1, r0, lsl #2
    2070:	30040c05 	andcc	r0, r4, r5, lsl #24
    2074:	00002000 	andeq	r2, r0, r0
    2078:	008f4412 	addeq	r4, pc, r2, lsl r4	; <UNPREDICTABLE>
    207c:	00053600 	andeq	r3, r5, r0, lsl #12
    2080:	8f541200 	svchi	0x00541200
    2084:	05360000 	ldreq	r0, [r6, #-0]!
    2088:	13000000 	movwne	r0, #0
    208c:	00000247 	andeq	r0, r0, r7, asr #4
    2090:	00000280 	andeq	r0, r0, r0, lsl #5
    2094:	00024814 	andeq	r4, r2, r4, lsl r8
    2098:	02550b00 	subseq	r0, r5, #0, 22
    209c:	8f580000 	svchi	0x00580000
    20a0:	98020000 	stmdals	r2, {}	; <UNPREDICTABLE>
    20a4:	01000002 	tsteq	r0, r2
    20a8:	98151715 	ldmdals	r5, {r0, r2, r4, r8, r9, sl, ip}
    20ac:	0e000002 	cdpeq	0, 0, cr0, cr0, cr2, {0}
    20b0:	00000266 	andeq	r0, r0, r6, ror #4
    20b4:	00001bc2 	andeq	r1, r0, r2, asr #23
    20b8:	00001bc0 	andeq	r1, r0, r0, asr #23
    20bc:	00027116 	andeq	r7, r2, r6, lsl r1
    20c0:	008f5c00 	addeq	r5, pc, r0, lsl #24
    20c4:	02b80100 	adcseq	r0, r8, #0
    20c8:	0d010000 	stceq	0, cr0, [r1, #-0]
    20cc:	00051312 	andeq	r1, r5, r2, lsl r3
    20d0:	8f641000 	svchi	0x00641000
    20d4:	052a0000 	streq	r0, [sl, #-0]!
    20d8:	01110000 	tsteq	r1, r0
    20dc:	00770250 	rsbseq	r0, r7, r0, asr r2
    20e0:	5c120000 	ldcpl	0, cr0, [r2], {-0}
    20e4:	3600008f 	strcc	r0, [r0], -pc, lsl #1
    20e8:	12000005 	andne	r0, r0, #5, 0
    20ec:	00008f70 	andeq	r8, r0, r0, ror pc
    20f0:	00000536 	andeq	r0, r0, r6, lsr r5
    20f4:	00000000 	andeq	r0, r0, r0
    20f8:	057d1f00 	ldrbeq	r1, [sp, #-3840]!	; 0xfffff100
    20fc:	057d0000 	ldrbeq	r0, [sp, #-0]!
    2100:	c2020000 	andgt	r0, r2, #0, 0
    2104:	05531f0a 	ldrbeq	r1, [r3, #-3850]	; 0xfffff0f6
    2108:	05530000 	ldrbeq	r0, [r3, #-0]
    210c:	9c020000 	stcls	0, cr0, [r2], {-0}
    2110:	05cd0006 	strbeq	r0, [sp, #6]
    2114:	00040000 	andeq	r0, r4, r0
    2118:	00000db0 			; <UNDEFINED> instruction: 0x00000db0
    211c:	06ae0104 	strteq	r0, [lr], r4, lsl #2
    2120:	ed0c0000 	stc	0, cr0, [ip, #-0]
    2124:	5e000005 	cdppl	0, 0, cr0, cr0, cr5, {0}
    2128:	d4000006 	strle	r0, [r0], #-6
    212c:	f000008f 			; <UNDEFINED> instruction: 0xf000008f
    2130:	be000001 	cdplt	0, 0, cr0, cr0, cr1, {0}
    2134:	02000013 	andeq	r0, r0, #19, 0
    2138:	6e690504 	cdpvs	5, 6, cr0, cr9, cr4, {0}
    213c:	04030074 	streq	r0, [r3], #-116	; 0xffffff8c
    2140:	00006c07 	andeq	r6, r0, r7, lsl #24
    2144:	002c0400 	eoreq	r0, ip, r0, lsl #8
    2148:	01030000 	mrseq	r0, (UNDEF: 3)
    214c:	00000a06 	andeq	r0, r0, r6, lsl #20
    2150:	05020300 	streq	r0, [r2, #-768]	; 0xfffffd00
    2154:	000000ca 	andeq	r0, r0, sl, asr #1
    2158:	7e050403 	cdpvc	4, 0, cr0, cr5, cr3, {0}
    215c:	03000000 	movweq	r0, #0
    2160:	00790508 	rsbseq	r0, r9, r8, lsl #10
    2164:	01030000 	mrseq	r0, (UNDEF: 3)
    2168:	00000808 	andeq	r0, r0, r8, lsl #16
    216c:	07020300 	streq	r0, [r2, -r0, lsl #6]
    2170:	00000023 	andeq	r0, r0, r3, lsr #32
    2174:	0003ab05 	andeq	sl, r3, r5, lsl #22
    2178:	19340500 	ldmdbne	r4!, {r8, sl}
    217c:	0000006e 	andeq	r0, r0, lr, rrx
    2180:	67070403 	strvs	r0, [r7, -r3, lsl #8]
    2184:	03000000 	movweq	r0, #0
    2188:	00620708 	rsbeq	r0, r2, r8, lsl #14
    218c:	01030000 	mrseq	r0, (UNDEF: 3)
    2190:	00001108 	andeq	r1, r0, r8, lsl #2
    2194:	01070600 	tsteq	r7, r0, lsl #12
    2198:	00000054 	andeq	r0, r0, r4, asr r0
    219c:	c20e0c04 	andgt	r0, lr, #4, 24	; 0x400
    21a0:	07000000 	streq	r0, [r0, -r0]
    21a4:	00000798 	muleq	r0, r8, r7
    21a8:	05d00700 	ldrbeq	r0, [r0, #1792]	; 0x700
    21ac:	07010000 	streq	r0, [r1, -r0]
    21b0:	00000613 	andeq	r0, r0, r3, lsl r6
    21b4:	06220704 	strteq	r0, [r2], -r4, lsl #14
    21b8:	07050000 	streq	r0, [r5, -r0]
    21bc:	00000631 	andeq	r0, r0, r1, lsr r6
    21c0:	06400706 	strbeq	r0, [r0], -r6, lsl #14
    21c4:	07070000 	streq	r0, [r7, -r0]
    21c8:	00000761 	andeq	r0, r0, r1, ror #14
    21cc:	064f0703 	strbeq	r0, [pc], -r3, lsl #14
    21d0:	00020000 	andeq	r0, r2, r0
    21d4:	0005e108 	andeq	lr, r5, r8, lsl #2
    21d8:	06022c00 	streq	r2, [r2], -r0, lsl #24
    21dc:	00015e08 	andeq	r5, r1, r8, lsl #28
    21e0:	6f690900 	svcvs	0x00690900
    21e4:	09090200 	stmdbeq	r9, {r9}
    21e8:	00000033 	andeq	r0, r0, r3, lsr r0
    21ec:	65690900 	strbvs	r0, [r9, #-2304]!	; 0xfffff700
    21f0:	0a020072 	beq	823c0 <__bss_end__+0x782a0>
    21f4:	00003309 	andeq	r3, r0, r9, lsl #6
    21f8:	69090400 	stmdbvs	r9, {sl}
    21fc:	02007269 	andeq	r7, r0, #-1879048186	; 0x90000006
    2200:	00330911 	eorseq	r0, r3, r1, lsl r9
    2204:	09080000 	stmdbeq	r8, {}	; <UNPREDICTABLE>
    2208:	0072636c 	rsbseq	r6, r2, ip, ror #6
    220c:	33091302 	movwcc	r1, #37634	; 0x9302
    2210:	0c000000 	stceq	0, cr0, [r0], {-0}
    2214:	72636d09 	rsbvc	r6, r3, #576	; 0x240
    2218:	09140200 	ldmdbeq	r4, {r9}
    221c:	00000033 	andeq	r0, r0, r3, lsr r0
    2220:	736c0910 	cmnvc	ip, #16, 18	; 0x40000
    2224:	15020072 	strne	r0, [r2, #-114]	; 0xffffff8e
    2228:	00003309 	andeq	r3, r0, r9, lsl #6
    222c:	6d091400 	cfstrsvs	mvf1, [r9, #-0]
    2230:	02007273 	andeq	r7, r0, #805306375	; 0x30000007
    2234:	00330916 	eorseq	r0, r3, r6, lsl r9
    2238:	0a180000 	beq	602240 <__bss_end__+0x5f8120>
    223c:	00000778 	andeq	r0, r0, r8, ror r7
    2240:	33091702 	movwcc	r1, #38658	; 0x9702
    2244:	1c000000 	stcne	0, cr0, [r0], {-0}
    2248:	0007410a 	andeq	r4, r7, sl, lsl #2
    224c:	091b0200 	ldmdbeq	fp, {r9}
    2250:	00000033 	andeq	r0, r0, r3, lsr r0
    2254:	05bd0a20 	ldreq	r0, [sp, #2592]!	; 0xa20
    2258:	1d020000 	stcne	0, cr0, [r2, #-0]
    225c:	00003309 	andeq	r3, r0, r9, lsl #6
    2260:	930a2400 	movwls	r2, #41984	; 0xa400
    2264:	02000006 	andeq	r0, r0, #6, 0
    2268:	0033091e 	eorseq	r0, r3, lr, lsl r9
    226c:	00280000 	eoreq	r0, r8, r0
    2270:	0006980b 	andeq	r9, r6, fp, lsl #16
    2274:	09080100 	stmdbeq	r8, {r8}
    2278:	00000174 	andeq	r0, r0, r4, ror r1
    227c:	20215004 	eorcs	r5, r1, r4
    2280:	0033040c 	eorseq	r0, r3, ip, lsl #8
    2284:	6e0d0000 	cdpvs	0, 0, cr0, cr13, cr0, {0}
    2288:	0b000001 	bleq	2294 <__code_start__-0x5d6c>
    228c:	00000780 	andeq	r0, r0, r0, lsl #15
    2290:	8f232901 	svchi	0x00232901
    2294:	40000001 	andmi	r0, r0, r1
    2298:	0c202150 	stfeqs	f2, [r0], #-320	; 0xfffffec0
    229c:	0000c204 	andeq	ip, r0, r4, lsl #4
    22a0:	01890d00 	orreq	r0, r9, r0, lsl #26
    22a4:	6b0e0000 	blvs	3822ac <__bss_end__+0x37818c>
    22a8:	01000004 	tsteq	r0, r4
    22ac:	918c06cc 	orrls	r0, ip, ip, asr #13
    22b0:	00140000 	andseq	r0, r4, r0
    22b4:	9c010000 	stcls	0, cr0, [r1], {-0}
    22b8:	000001b4 			; <UNDEFINED> instruction: 0x000001b4
    22bc:	0091940f 	addseq	r9, r1, pc, lsl #8
    22c0:	0001b400 	andeq	fp, r1, r0, lsl #8
    22c4:	02100000 	andseq	r0, r0, #0, 0
    22c8:	01000006 	tsteq	r0, r6
    22cc:	002505b6 	strhteq	r0, [r5], -r6
    22d0:	916c0000 	cmnls	ip, r0
    22d4:	00200000 	eoreq	r0, r0, r0
    22d8:	9c010000 	stcls	0, cr0, [r1], {-0}
    22dc:	000001eb 	andeq	r0, r0, fp, ror #3
    22e0:	0091740f 	addseq	r7, r1, pc, lsl #8
    22e4:	0005a000 	andeq	sl, r5, r0
    22e8:	917c1100 	cmnls	ip, r0, lsl #2
    22ec:	05ac0000 	streq	r0, [ip, #0]!
    22f0:	01120000 	tsteq	r2, r0
    22f4:	640c0550 	strvs	r0, [ip], #-1360	; 0xfffffab0
    22f8:	00202150 	eoreq	r2, r0, r0, asr r1
    22fc:	07531000 	ldrbeq	r1, [r3, -r0]
    2300:	b3010000 	movwlt	r0, #4096	; 0x1000
    2304:	00002505 	andeq	r2, r0, r5, lsl #10
    2308:	00915c00 	addseq	r5, r1, r0, lsl #24
    230c:	00001000 	andeq	r1, r0, r0
    2310:	189c0100 	ldmne	ip, {r8}
    2314:	0f000002 	svceq	0x00000002
    2318:	00009164 	andeq	r9, r0, r4, ror #2
    231c:	000005a0 	andeq	r0, r0, r0, lsr #11
    2320:	0091680f 	addseq	r6, r1, pc, lsl #16
    2324:	00030900 	andeq	r0, r3, r0, lsl #18
    2328:	8e0e0000 	cdphi	0, 0, cr0, cr14, cr0, {0}
    232c:	01000007 	tsteq	r0, r7
    2330:	912c06ab 	smulwbls	ip, fp, r6
    2334:	00300000 	eorseq	r0, r0, r0
    2338:	9c010000 	stcls	0, cr0, [r1], {-0}
    233c:	0000027c 	andeq	r0, r0, ip, ror r2
    2340:	01006313 	tsteq	r0, r3, lsl r3
    2344:	002c19ab 	eoreq	r1, ip, fp, lsr #19
    2348:	1bd90000 	blne	ff642350 <__bss_end__+0xff638230>
    234c:	1bd50000 	blne	ff542354 <__bss_end__+0xff538234>
    2350:	380f0000 	stmdacc	pc, {}	; <UNPREDICTABLE>
    2354:	a0000091 	mulge	r0, r1, r0
    2358:	0f000005 	svceq	0x00000005
    235c:	0000913c 	andeq	r9, r0, ip, lsr r1
    2360:	000002db 	ldrdeq	r0, [r0], -fp
    2364:	00915014 	addseq	r5, r1, r4, lsl r0
    2368:	0005b800 	andeq	fp, r5, r0, lsl #16
    236c:	00027200 	andeq	r7, r2, r0, lsl #4
    2370:	50011200 	andpl	r1, r1, r0, lsl #4
    2374:	50400c05 	subpl	r0, r0, r5, lsl #24
    2378:	01122021 	tsteq	r2, r1, lsr #32
    237c:	00740551 	rsbseq	r0, r4, r1, asr r5
    2380:	001aff08 	andseq	pc, sl, r8, lsl #30
    2384:	0091540f 	addseq	r5, r1, pc, lsl #8
    2388:	0005a000 	andeq	sl, r5, r0
    238c:	a4100000 	ldrge	r0, [r0], #-0
    2390:	01000006 	tsteq	r0, r6
    2394:	002505a3 	eoreq	r0, r5, r3, lsr #11
    2398:	90fc0000 	rscsls	r0, ip, r0
    239c:	00300000 	eorseq	r0, r0, r0
    23a0:	9c010000 	stcls	0, cr0, [r1], {-0}
    23a4:	000002db 	ldrdeq	r0, [r0], -fp
    23a8:	01006315 	tsteq	r0, r5, lsl r3
    23ac:	002509a7 	eoreq	r0, r5, r7, lsr #19
    23b0:	1bf90000 	blne	ffe423b8 <__bss_end__+0xffe38298>
    23b4:	1bf70000 	blne	ffdc23bc <__bss_end__+0xffdb829c>
    23b8:	040f0000 	streq	r0, [pc], #-0	; 23c0 <__code_start__-0x5c40>
    23bc:	a0000091 	mulge	r0, r1, r0
    23c0:	0f000005 	svceq	0x00000005
    23c4:	00009108 	andeq	r9, r0, r8, lsl #2
    23c8:	00000309 	andeq	r0, r0, r9, lsl #6
    23cc:	00911814 	addseq	r1, r1, r4, lsl r8
    23d0:	0005ac00 	andeq	sl, r5, r0, lsl #24
    23d4:	0002d100 	andeq	sp, r2, r0, lsl #2
    23d8:	50011200 	andpl	r1, r1, r0, lsl #4
    23dc:	50400c05 	subpl	r0, r0, r5, lsl #24
    23e0:	0f002021 	svceq	0x00002021
    23e4:	00009120 	andeq	r9, r0, r0, lsr #2
    23e8:	000005a0 	andeq	r0, r0, r0, lsr #11
    23ec:	05f41000 	ldrbeq	r1, [r4, #0]!
    23f0:	94010000 	strls	r0, [r1], #-0
    23f4:	00002505 	andeq	r2, r0, r5, lsl #10
    23f8:	0090dc00 	addseq	sp, r0, r0, lsl #24
    23fc:	00002000 	andeq	r2, r0, r0
    2400:	099c0100 	ldmibeq	ip, {r8}
    2404:	11000003 	tstne	r0, r3
    2408:	000090e8 	andeq	r9, r0, r8, ror #1
    240c:	000005ac 	andeq	r0, r0, ip, lsr #11
    2410:	05500112 	ldrbeq	r0, [r0, #-274]	; 0xfffffeee
    2414:	2150640c 	cmpcs	r0, ip, lsl #8
    2418:	10000020 	andne	r0, r0, r0, lsr #32
    241c:	000005c2 	andeq	r0, r0, r2, asr #11
    2420:	25058b01 	strcs	r8, [r5, #-2817]	; 0xfffff4ff
    2424:	c4000000 	strgt	r0, [r0], #-0
    2428:	18000090 	stmdane	r0, {r4, r7}
    242c:	01000000 	mrseq	r0, (UNDEF: 0)
    2430:	0003379c 	muleq	r3, ip, r7
    2434:	90d01100 	sbcsls	r1, r0, r0, lsl #2
    2438:	05ac0000 	streq	r0, [ip, #0]!
    243c:	01120000 	tsteq	r2, r0
    2440:	640c0550 	strvs	r0, [ip], #-1360	; 0xfffffab0
    2444:	00202150 	eoreq	r2, r0, r0, asr r1
    2448:	04890e00 	streq	r0, [r9], #3584	; 0xe00
    244c:	45010000 	strmi	r0, [r1, #-0]
    2450:	00901406 	addseq	r1, r0, r6, lsl #8
    2454:	0000b000 	andeq	fp, r0, r0
    2458:	849c0100 	ldrhi	r0, [ip], #256	; 0x100
    245c:	16000004 	strne	r0, [r0], -r4
    2460:	000005b4 			; <UNDEFINED> instruction: 0x000005b4
    2464:	620e7e01 	andvs	r7, lr, #1, 28
    2468:	0e000000 	cdpeq	0, 0, cr0, cr0, cr0, {0}
    246c:	90241401 	eorls	r1, r4, r1, lsl #8
    2470:	05c40000 	strbeq	r0, [r4]
    2474:	03730000 	cmneq	r3, #0, 0
    2478:	01120000 	tsteq	r2, r0
    247c:	123e0150 	eorsne	r0, lr, #20
    2480:	32015101 	andcc	r5, r1, #1073741824	; 0x40000000
    2484:	90301400 	eorsls	r1, r0, r0, lsl #8
    2488:	05c40000 	strbeq	r0, [r4]
    248c:	038b0000 	orreq	r0, fp, #0, 0
    2490:	01120000 	tsteq	r2, r0
    2494:	123f0150 	eorsne	r0, pc, #20
    2498:	32015101 	andcc	r5, r1, #1073741824	; 0x40000000
    249c:	90340f00 	eorsls	r0, r4, r0, lsl #30
    24a0:	05a00000 	streq	r0, [r0, #0]!
    24a4:	40140000 	andsmi	r0, r4, r0
    24a8:	3d000090 	stccc	0, cr0, [r0, #-576]	; 0xfffffdc0
    24ac:	b0000005 	andlt	r0, r0, r5
    24b0:	12000003 	andne	r0, r0, #3, 0
    24b4:	0c055001 	stceq	0, cr5, [r5], {1}
    24b8:	20215004 	eorcs	r5, r1, r4
    24bc:	01510112 	cmpeq	r1, r2, lsl r1
    24c0:	440f0031 	strmi	r0, [pc], #-49	; 24c8 <__code_start__-0x5b38>
    24c4:	a0000090 	mulge	r0, r0, r0
    24c8:	14000005 	strne	r0, [r0], #-5
    24cc:	00009054 	andeq	r9, r0, r4, asr r0
    24d0:	000005b8 			; <UNDEFINED> instruction: 0x000005b8
    24d4:	000003d2 	ldrdeq	r0, [r0], -r2
    24d8:	02500112 	subseq	r0, r0, #-2147483644	; 0x80000004
    24dc:	01120074 	tsteq	r2, r4, ror r0
    24e0:	00300151 	eorseq	r0, r0, r1, asr r1
    24e4:	00906014 	addseq	r6, r0, r4, lsl r0
    24e8:	0005b800 	andeq	fp, r5, r0, lsl #16
    24ec:	0003ee00 	andeq	lr, r3, r0, lsl #28
    24f0:	50011200 	andpl	r1, r1, r0, lsl #4
    24f4:	50440c05 	subpl	r0, r4, r5, lsl #24
    24f8:	01122021 	tsteq	r2, r1, lsr #32
    24fc:	00300151 	eorseq	r0, r0, r1, asr r1
    2500:	00906c14 	addseq	r6, r0, r4, lsl ip
    2504:	0005b800 	andeq	fp, r5, r0, lsl #16
    2508:	00040a00 	andeq	r0, r4, r0, lsl #20
    250c:	50011200 	andpl	r1, r1, r0, lsl #4
    2510:	504c0c05 	subpl	r0, ip, r5, lsl #24
    2514:	01122021 	tsteq	r2, r1, lsr #32
    2518:	00330151 	eorseq	r0, r3, r1, asr r1
    251c:	00907814 	addseq	r7, r0, r4, lsl r8
    2520:	0005b800 	andeq	fp, r5, r0, lsl #16
    2524:	00042600 	andeq	r2, r4, r0, lsl #12
    2528:	50011200 	andpl	r1, r1, r0, lsl #4
    252c:	50500c05 	subspl	r0, r0, r5, lsl #24
    2530:	01122021 	tsteq	r2, r1, lsr #32
    2534:	00300151 	eorseq	r0, r0, r1, asr r1
    2538:	00908414 	addseq	r8, r0, r4, lsl r4
    253c:	0005b800 	andeq	fp, r5, r0, lsl #16
    2540:	00044300 	andeq	r4, r4, r0, lsl #6
    2544:	50011200 	andpl	r1, r1, r0, lsl #4
    2548:	50480c05 	subpl	r0, r8, r5, lsl #24
    254c:	01122021 	tsteq	r2, r1, lsr #32
    2550:	c7080251 	smlsdgt	r8, r1, r2, r0
    2554:	90901400 	addsls	r1, r0, r0, lsl #8
    2558:	05b80000 	ldreq	r0, [r8, #0]!
    255c:	04610000 	strbteq	r0, [r1], #-0
    2560:	01120000 	tsteq	r2, r0
    2564:	680c0550 	stmdavs	ip, {r4, r6, r8, sl}
    2568:	12202150 	eorne	r2, r0, #20
    256c:	0a035101 	beq	d6978 <__bss_end__+0xcc858>
    2570:	1400010e 	strne	r0, [r0], #-270	; 0xfffffef2
    2574:	0000909c 	muleq	r0, ip, r0
    2578:	000005b8 			; <UNDEFINED> instruction: 0x000005b8
    257c:	0000047a 	andeq	r0, r0, sl, ror r4
    2580:	02500112 	subseq	r0, r0, #-2147483644	; 0x80000004
    2584:	01120074 	tsteq	r2, r4, ror r0
    2588:	00330151 	eorseq	r0, r3, r1, asr r1
    258c:	0090a00f 	addseq	sl, r0, pc
    2590:	0005a000 	andeq	sl, r5, r0
    2594:	460e0000 	strmi	r0, [lr], -r0
    2598:	01000007 	tsteq	r0, r7
    259c:	91a00635 	lsrls	r0, r5, r6
    25a0:	00240000 	eoreq	r0, r4, r0
    25a4:	9c010000 	stcls	0, cr0, [r1], {-0}
    25a8:	000004d3 	ldrdeq	r0, [r0], -r3
    25ac:	0091a80f 	addseq	sl, r1, pc, lsl #16
    25b0:	00019400 	andeq	r9, r1, r0, lsl #8
    25b4:	91ac0f00 			; <UNDEFINED> instruction: 0x91ac0f00
    25b8:	05a00000 	streq	r0, [r0, #0]!
    25bc:	b8140000 	ldmdalt	r4, {}	; <UNPREDICTABLE>
    25c0:	d3000091 	movwle	r0, #145	; 0x91
    25c4:	c9000004 	stmdbgt	r0, {r2}
    25c8:	12000004 	andne	r0, r0, #4, 0
    25cc:	0c055001 	stceq	0, cr5, [r5], {1}
    25d0:	20215004 	eorcs	r5, r1, r4
    25d4:	02510112 	subseq	r0, r1, #-2147483644	; 0x80000004
    25d8:	0f00fe09 	svceq	0x0000fe09
    25dc:	000091bc 			; <UNDEFINED> instruction: 0x000091bc
    25e0:	000005a0 	andeq	r0, r0, r0, lsr #11
    25e4:	07851700 	streq	r1, [r5, r0, lsl #14]
    25e8:	31010000 	mrscc	r0, (UNDEF: 1)
    25ec:	008fd40d 	addeq	sp, pc, sp, lsl #8
    25f0:	00002000 	andeq	r2, r0, r0
    25f4:	369c0100 	ldrcc	r0, [ip], r0, lsl #2
    25f8:	18000005 	stmdane	r0, {r0, r2}
    25fc:	000007df 	ldrdeq	r0, [r0], -pc	; <UNPREDICTABLE>
    2600:	36253101 	strtcc	r3, [r5], -r1, lsl #2
    2604:	10000005 	andne	r0, r0, r5
    2608:	0c00001c 	stceq	0, cr0, [r0], {28}
    260c:	1300001c 	movwne	r0, #28
    2610:	006c6176 	rsbeq	r6, ip, r6, ror r1
    2614:	2c343101 	ldfcss	f3, [r4], #-4
    2618:	32000000 	andcc	r0, r0, #0, 0
    261c:	2e00001c 	mcrcs	0, 0, r0, cr0, cr12, {0}
    2620:	1400001c 	strne	r0, [r0], #-28	; 0xffffffe4
    2624:	00008fe4 	andeq	r8, r0, r4, ror #31
    2628:	000005ac 	andeq	r0, r0, ip, lsr #11
    262c:	00000525 	andeq	r0, r0, r5, lsr #10
    2630:	02500112 	subseq	r0, r0, #-2147483644	; 0x80000004
    2634:	11000074 	tstne	r0, r4, ror r0
    2638:	00008ff0 	strdeq	r8, [r0], -r0
    263c:	000005b8 			; <UNDEFINED> instruction: 0x000005b8
    2640:	02500112 	subseq	r0, r0, #-2147483644	; 0x80000004
    2644:	00000074 	andeq	r0, r0, r4, ror r0
    2648:	053c040c 	ldreq	r0, [ip, #-1036]!	; 0xfffffbf4
    264c:	17190000 	ldrne	r0, [r9, -r0]
    2650:	00000770 	andeq	r0, r0, r0, ror r7
    2654:	f40d2e01 			; <UNDEFINED> instruction: 0xf40d2e01
    2658:	2000008f 	andcs	r0, r0, pc, lsl #1
    265c:	01000000 	mrseq	r0, (UNDEF: 0)
    2660:	0005a09c 	muleq	r5, ip, r0
    2664:	07df1800 	ldrbeq	r1, [pc, r0, lsl #16]
    2668:	2e010000 	cdpcs	0, 0, cr0, cr1, cr0, {0}
    266c:	00053624 	andeq	r3, r5, r4, lsr #12
    2670:	001c5400 	andseq	r5, ip, r0, lsl #8
    2674:	001c5000 	andseq	r5, ip, r0
    2678:	61761300 	cmnvs	r6, r0, lsl #6
    267c:	2e01006c 	cdpcs	0, 0, cr0, cr1, cr12, {3}
    2680:	00002c33 	andeq	r2, r0, r3, lsr ip
    2684:	001c7600 	andseq	r7, ip, r0, lsl #12
    2688:	001c7200 	andseq	r7, ip, r0, lsl #4
    268c:	90041400 	andls	r1, r4, r0, lsl #8
    2690:	05ac0000 	streq	r0, [ip, #0]!
    2694:	058f0000 	streq	r0, [pc]	; 269c <__code_start__-0x5964>
    2698:	01120000 	tsteq	r2, r0
    269c:	00740250 	rsbseq	r0, r4, r0, asr r2
    26a0:	90101100 	andsls	r1, r0, r0, lsl #2
    26a4:	05b80000 	ldreq	r0, [r8, #0]!
    26a8:	01120000 	tsteq	r2, r0
    26ac:	00740250 	rsbseq	r0, r4, r0, asr r2
    26b0:	531a0000 	tstpl	sl, #0, 0
    26b4:	53000005 	movwpl	r0, #5
    26b8:	03000005 	movweq	r0, #5
    26bc:	ba1a069c 	blt	684134 <__bss_end__+0x67a014>
    26c0:	ba000007 	blt	26e4 <__code_start__-0x591c>
    26c4:	03000007 	movweq	r0, #7
    26c8:	ae1a0bc3 	vnmlage.f64	d0, d26, d3
    26cc:	ae000005 	cdpge	0, 0, cr0, cr0, cr5, {0}
    26d0:	03000005 	movweq	r0, #5
    26d4:	a81a06ae 	ldmdage	sl, {r1, r2, r3, r5, r7, r9, sl}
    26d8:	a8000007 	stmdage	r0, {r0, r1, r2}
    26dc:	04000007 	streq	r0, [r0], #-7
    26e0:	e9000619 	stmdb	r0, {r0, r3, r4, r9, sl}
    26e4:	04000008 	streq	r0, [r0], #-8
    26e8:	000f4800 	andeq	r4, pc, r0, lsl #16
    26ec:	ae010400 	cfcpysge	mvf0, mvf1
    26f0:	0c000006 	stceq	0, cr0, [r0], {6}
    26f4:	00000863 	andeq	r0, r0, r3, ror #16
    26f8:	0000065e 	andeq	r0, r0, lr, asr r6
    26fc:	000091c4 	andeq	r9, r0, r4, asr #3
    2700:	000003b0 			; <UNDEFINED> instruction: 0x000003b0
    2704:	000015c6 	andeq	r1, r0, r6, asr #11
    2708:	69050402 	stmdbvs	r5, {r1, sl}
    270c:	0300746e 	movweq	r7, #1134	; 0x46e
    2710:	006c0704 	rsbeq	r0, ip, r4, lsl #14
    2714:	01030000 	mrseq	r0, (UNDEF: 3)
    2718:	00000a06 	andeq	r0, r0, r6, lsl #20
    271c:	05020300 	streq	r0, [r2, #-768]	; 0xfffffd00
    2720:	000000ca 	andeq	r0, r0, sl, asr #1
    2724:	7e050403 	cdpvc	4, 0, cr0, cr5, cr3, {0}
    2728:	03000000 	movweq	r0, #0
    272c:	00790508 	rsbseq	r0, r9, r8, lsl #10
    2730:	01030000 	mrseq	r0, (UNDEF: 3)
    2734:	00000808 	andeq	r0, r0, r8, lsl #16
    2738:	07020300 	streq	r0, [r2, -r0, lsl #6]
    273c:	00000023 	andeq	r0, r0, r3, lsr #32
    2740:	0003ab04 	andeq	sl, r3, r4, lsl #22
    2744:	19340300 	ldmdbne	r4!, {r8, r9}
    2748:	00000069 	andeq	r0, r0, r9, rrx
    274c:	67070403 	strvs	r0, [r7, -r3, lsl #8]
    2750:	03000000 	movweq	r0, #0
    2754:	00620708 	rsbeq	r0, r2, r8, lsl #14
    2758:	01030000 	mrseq	r0, (UNDEF: 3)
    275c:	00001108 	andeq	r1, r0, r8, lsl #2
    2760:	00770500 	rsbseq	r0, r7, r0, lsl #10
    2764:	08030000 	stmdaeq	r3, {}	; <UNPREDICTABLE>
    2768:	0001bf04 	andeq	fp, r1, r4, lsl #30
    276c:	07040600 	streq	r0, [r4, -r0, lsl #12]
    2770:	002c0407 	eoreq	r0, ip, r7, lsl #8
    2774:	1f010000 	svcne	0x00010000
    2778:	0000a406 	andeq	sl, r0, r6, lsl #8
    277c:	07ea0800 	strbeq	r0, [sl, r0, lsl #16]!
    2780:	00000000 	andeq	r0, r0, r0
    2784:	09000020 	stmdbeq	r0, {r5}
    2788:	0000039c 	muleq	r0, ip, r3
    278c:	770d2201 	strvc	r2, [sp, -r1, lsl #4]
    2790:	0a000000 	beq	2798 <__code_start__-0x5868>
    2794:	00000805 	andeq	r0, r0, r5, lsl #16
    2798:	c20e2301 	andgt	r2, lr, #67108864	; 0x4000000
    279c:	05000000 	streq	r0, [r0, #-0]
    27a0:	009cf403 	addseq	pc, ip, r3, lsl #8
    27a4:	77040b00 	strvc	r0, [r4, -r0, lsl #22]
    27a8:	0a000000 	beq	27b0 <__code_start__-0x5850>
    27ac:	000007c8 	andeq	r0, r0, r8, asr #15
    27b0:	c20e2401 	andgt	r2, lr, #16777216	; 0x1000000
    27b4:	05000000 	streq	r0, [r0, #-0]
    27b8:	009cf803 	addseq	pc, ip, r3, lsl #16
    27bc:	08420a00 	stmdaeq	r2, {r9, fp}^
    27c0:	25010000 	strcs	r0, [r1, #-0]
    27c4:	0000c20e 	andeq	ip, r0, lr, lsl #4
    27c8:	fc030500 	stc2	5, cr0, [r3], {-0}
    27cc:	0c00009c 	stceq	0, cr0, [r0], {156}	; 0x9c
    27d0:	00000811 	andeq	r0, r0, r1, lsl r8
    27d4:	14067501 	strne	r7, [r6], #-1281	; 0xfffffaff
    27d8:	60000095 	mulvs	r0, r5, r0
    27dc:	01000000 	mrseq	r0, (UNDEF: 0)
    27e0:	0001649c 	muleq	r1, ip, r4
    27e4:	00700d00 	rsbseq	r0, r0, r0, lsl #26
    27e8:	8a167501 	bhi	59fbf4 <__bss_end__+0x595ad4>
    27ec:	9a000000 	bls	27f4 <__code_start__-0x580c>
    27f0:	9400001c 	strls	r0, [r0], #-28	; 0xffffffe4
    27f4:	0e00001c 	mcreq	0, 0, r0, cr0, cr12, {0}
    27f8:	0000003e 	andeq	r0, r0, lr, lsr r0
    27fc:	00000174 	andeq	r0, r0, r4, ror r1
    2800:	9ce40305 	stclls	3, cr0, [r4], #20
    2804:	600f0000 	andvs	r0, pc, r0
    2808:	bc000095 	stclt	0, cr0, [r0], {149}	; 0x95
    280c:	5a000008 	bpl	2834 <__code_start__-0x57cc>
    2810:	10000001 	andne	r0, r0, r1
    2814:	03055001 	movweq	r5, #20481	; 0x5001
    2818:	00009c5c 	andeq	r9, r0, ip, asr ip
    281c:	05510110 	ldrbeq	r0, [r1, #-272]	; 0xfffffef0
    2820:	009af403 	addseq	pc, sl, r3, lsl #8
    2824:	52011000 	andpl	r1, r1, #0, 0
    2828:	9ce40305 	stclls	3, cr0, [r4], #20
    282c:	01100000 	tsteq	r0, r0
    2830:	77080253 	smlsdvc	r8, r3, r2, r0
    2834:	007d0210 	rsbseq	r0, sp, r0, lsl r2
    2838:	5001f303 	andpl	pc, r1, r3, lsl #6
    283c:	95641100 	strbls	r1, [r4, #-256]!	; 0xffffff00
    2840:	08c80000 	stmiaeq	r8, {}^	; <UNPREDICTABLE>
    2844:	12000000 	andne	r0, r0, #0, 0
    2848:	0000007e 	andeq	r0, r0, lr, ror r0
    284c:	00000174 	andeq	r0, r0, r4, ror r1
    2850:	00002c13 	andeq	r2, r0, r3, lsl ip
    2854:	05000900 	streq	r0, [r0, #-2304]	; 0xfffff700
    2858:	00000164 	andeq	r0, r0, r4, ror #2
    285c:	0007f314 	andeq	pc, r7, r4, lsl r3	; <UNPREDICTABLE>
    2860:	06720100 	ldrbteq	r0, [r2], -r0, lsl #2
    2864:	00009500 	andeq	r9, r0, r0, lsl #10
    2868:	00000014 	andeq	r0, r0, r4, lsl r0
    286c:	e40c9c01 	str	r9, [ip], #-3073	; 0xfffff3ff
    2870:	01000007 	tsteq	r0, r7
    2874:	94fc066f 	ldrbtls	r0, [ip], #1647	; 0x66f
    2878:	00040000 	andeq	r0, r4, r0
    287c:	9c010000 	stcls	0, cr0, [r1], {-0}
    2880:	000001ae 	andeq	r0, r0, lr, lsr #3
    2884:	01007015 	tsteq	r0, r5, lsl r0
    2888:	008a126f 	addeq	r1, sl, pc, ror #4
    288c:	50010000 	andpl	r0, r1, r0
    2890:	08bc1600 	ldmeq	ip!, {r9, sl, ip}
    2894:	5e010000 	cdppl	0, 0, cr0, cr1, cr0, {0}
    2898:	00008a07 	andeq	r8, r0, r7, lsl #20
    289c:	0093e400 	addseq	lr, r3, r0, lsl #8
    28a0:	00011800 	andeq	r1, r1, r0, lsl #16
    28a4:	2c9c0100 	ldfcss	f0, [ip], {0}
    28a8:	17000004 	strne	r0, [r0, -r4]
    28ac:	000007d7 	ldrdeq	r0, [r0], -r7
    28b0:	2c205e01 	stccs	14, cr5, [r0], #-4
    28b4:	db000000 	blle	28bc <__code_start__-0x5744>
    28b8:	c700001c 	smladgt	r0, ip, r0, r0
    28bc:	1700001c 	smladne	r0, ip, r0, r0
    28c0:	00000822 	andeq	r0, r0, r2, lsr #16
    28c4:	2c315e01 	ldccs	14, cr5, [r1], #-4
    28c8:	74000000 	strvc	r0, [r0], #-0
    28cc:	6000001d 	andvs	r0, r0, sp, lsl r0
    28d0:	0e00001d 	mcreq	0, 0, r0, cr0, cr13, {0}
    28d4:	0000003e 	andeq	r0, r0, lr, lsr r0
    28d8:	0000043c 	andeq	r0, r0, ip, lsr r4
    28dc:	9ccc0305 	stclls	3, cr0, [ip], {5}
    28e0:	68180000 	ldmdavs	r8, {}	; <UNPREDICTABLE>
    28e4:	0e660100 	poweqs	f0, f6, f0
    28e8:	0000002c 	andeq	r0, r0, ip, lsr #32
    28ec:	00001e2a 	andeq	r1, r0, sl, lsr #28
    28f0:	00001e1e 	andeq	r1, r0, lr, lsl lr
    28f4:	00085419 	andeq	r5, r8, r9, lsl r4
    28f8:	0093f400 	addseq	pc, r3, r0, lsl #8
    28fc:	93f40400 	mvnsls	r0, #0, 8
    2900:	00040000 	andeq	r0, r4, r0
    2904:	60010000 	andvs	r0, r1, r0
    2908:	00023805 	andeq	r3, r2, r5, lsl #16
    290c:	08651a00 	stmdaeq	r5!, {r9, fp, ip}^
    2910:	1e7e0000 	cdpne	0, 7, cr0, cr14, cr0, {0}
    2914:	1e7c0000 	cdpne	0, 7, cr0, cr12, cr0, {0}
    2918:	19000000 	stmdbne	r0, {}	; <UNPREDICTABLE>
    291c:	00000896 	muleq	r0, r6, r8
    2920:	00009400 	andeq	r9, r0, r0, lsl #8
    2924:	00940002 	addseq	r0, r4, r2
    2928:	00000800 	andeq	r0, r0, r0, lsl #16
    292c:	11610100 	cmnne	r1, r0, lsl #2
    2930:	0000026c 	andeq	r0, r0, ip, ror #4
    2934:	0008b11a 	andeq	fp, r8, sl, lsl r1
    2938:	001e9300 	andseq	r9, lr, r0, lsl #6
    293c:	001e9100 	andseq	r9, lr, r0, lsl #2
    2940:	08a71a00 	stmiaeq	r7!, {r9, fp, ip}
    2944:	1ea90000 	cdpne	0, 10, cr0, cr9, cr0, {0}
    2948:	1ea70000 	cdpne	0, 10, cr0, cr7, cr0, {0}
    294c:	1b000000 	blne	2954 <__code_start__-0x56ac>
    2950:	0000081f 	andeq	r0, r0, pc, lsl r8
    2954:	00009410 	andeq	r9, r0, r0, lsl r4
    2958:	00035001 	andeq	r5, r3, r1
    295c:	09670100 	stmdbeq	r7!, {r8}^
    2960:	0000030a 	andeq	r0, r0, sl, lsl #6
    2964:	00083a1a 	andeq	r3, r8, sl, lsl sl
    2968:	001ec200 	andseq	ip, lr, r0, lsl #4
    296c:	001ebc00 	andseq	fp, lr, r0, lsl #24
    2970:	08301a00 	ldmdaeq	r0!, {r9, fp, ip}
    2974:	1f090000 	svcne	0x00090000
    2978:	1f010000 	svcne	0x00010000
    297c:	501c0000 	andspl	r0, ip, r0
    2980:	19000003 	stmdbne	r0, {r0, r1}
    2984:	00000854 	andeq	r0, r0, r4, asr r8
    2988:	00009410 	andeq	r9, r0, r0, lsl r4
    298c:	00941004 	addseq	r1, r4, r4
    2990:	00000400 	andeq	r0, r0, r0, lsl #8
    2994:	05110100 	ldreq	r0, [r1, #-256]	; 0xffffff00
    2998:	000002c7 	andeq	r0, r0, r7, asr #5
    299c:	0008651a 	andeq	r6, r8, sl, lsl r5
    29a0:	001f4700 	andseq	r4, pc, r0, lsl #14
    29a4:	001f4500 	andseq	r4, pc, r0, lsl #10
    29a8:	a80f0000 	stmdage	pc, {}	; <UNPREDICTABLE>
    29ac:	bc000094 	stclt	0, cr0, [r0], {148}	; 0x94
    29b0:	ff000008 			; <UNDEFINED> instruction: 0xff000008
    29b4:	10000002 	andne	r0, r0, r2
    29b8:	03055001 	movweq	r5, #20481	; 0x5001
    29bc:	00009980 	andeq	r9, r0, r0, lsl #19
    29c0:	05510110 	ldrbeq	r0, [r1, #-272]	; 0xfffffef0
    29c4:	009af403 	addseq	pc, sl, r3, lsl #8
    29c8:	52011000 	andpl	r1, r1, #0, 0
    29cc:	9cdc0305 	ldclls	3, cr0, [ip], {5}
    29d0:	01100000 	tsteq	r0, r0
    29d4:	10410153 	subne	r0, r1, r3, asr r1
    29d8:	05007d02 	streq	r7, [r0, #-3330]	; 0xfffff2fe
    29dc:	009c0803 	addseq	r0, ip, r3, lsl #16
    29e0:	ac110000 	ldcge	0, cr0, [r1], {-0}
    29e4:	c8000094 	stmdagt	r0, {r2, r4, r7}
    29e8:	00000008 	andeq	r0, r0, r8
    29ec:	08701900 	ldmdaeq	r0!, {r8, fp, ip}^
    29f0:	94280000 	strtls	r0, [r8], #-0
    29f4:	28030000 	stmdacs	r3, {}	; <UNPREDICTABLE>
    29f8:	04000094 	streq	r0, [r0], #-148	; 0xffffff6c
    29fc:	01000000 	mrseq	r0, (UNDEF: 0)
    2a00:	033e0568 	teqeq	lr, #104, 10	; 0x1a000000
    2a04:	8b1a0000 	blhi	682a0c <__bss_end__+0x6788ec>
    2a08:	5c000008 	stcpl	0, cr0, [r0], {8}
    2a0c:	5a00001f 	bpl	2a90 <__code_start__-0x5570>
    2a10:	1a00001f 	bne	2a94 <__code_start__-0x556c>
    2a14:	00000881 	andeq	r0, r0, r1, lsl #17
    2a18:	00001f71 	andeq	r1, r0, r1, ror pc
    2a1c:	00001f6f 	andeq	r1, r0, pc, ror #30
    2a20:	94400f00 	strbls	r0, [r0], #-3840	; 0xfffff100
    2a24:	04410000 	strbeq	r0, [r1], #-0
    2a28:	03530000 	cmpeq	r3, #0, 0
    2a2c:	01100000 	tsteq	r0, r0
    2a30:	01f30350 	mvnseq	r0, r0, asr r3
    2a34:	640f0050 	strvs	r0, [pc], #-80	; 2a3c <__code_start__-0x55c4>
    2a38:	bc000094 	stclt	0, cr0, [r0], {148}	; 0x94
    2a3c:	8c000008 	stchi	0, cr0, [r0], {8}
    2a40:	10000003 	andne	r0, r0, r3
    2a44:	03055001 	movweq	r5, #20481	; 0x5001
    2a48:	00009980 	andeq	r9, r0, r0, lsl #19
    2a4c:	05510110 	ldrbeq	r0, [r1, #-272]	; 0xfffffef0
    2a50:	009af403 	addseq	pc, sl, r3, lsl #8
    2a54:	52011000 	andpl	r1, r1, #0, 0
    2a58:	9ccc0305 	stclls	3, cr0, [ip], {5}
    2a5c:	01100000 	tsteq	r0, r0
    2a60:	5f080253 	svcpl	0x00080253
    2a64:	007d0210 	rsbseq	r0, sp, r0, lsl r2
    2a68:	9b040305 	blls	103684 <__bss_end__+0xf9564>
    2a6c:	11000000 	mrsne	r0, (UNDEF: 0)
    2a70:	00009468 	andeq	r9, r0, r8, ror #8
    2a74:	000008c8 	andeq	r0, r0, r8, asr #17
    2a78:	00946c11 	addseq	r6, r4, r1, lsl ip
    2a7c:	0008d400 	andeq	sp, r8, r0, lsl #8
    2a80:	94880f00 	strls	r0, [r8], #3840	; 0xf00
    2a84:	08bc0000 	ldmeq	ip!, {}	; <UNPREDICTABLE>
    2a88:	03d70000 	bicseq	r0, r7, #0, 0
    2a8c:	01100000 	tsteq	r0, r0
    2a90:	c0030550 	andgt	r0, r3, r0, asr r5
    2a94:	1000009b 	mulne	r0, fp, r0
    2a98:	03055101 	movweq	r5, #20737	; 0x5101
    2a9c:	00009af4 	strdeq	r9, [r0], -r4
    2aa0:	05520110 	ldrbeq	r0, [r2, #-272]	; 0xfffffef0
    2aa4:	009ccc03 	addseq	ip, ip, r3, lsl #24
    2aa8:	53011000 	movwpl	r1, #4096	; 0x1000
    2aac:	10600802 	rsbne	r0, r0, r2, lsl #16
    2ab0:	05007d02 	streq	r7, [r0, #-3330]	; 0xfffff2fe
    2ab4:	009bf403 	addseq	pc, fp, r3, lsl #8
    2ab8:	8c110000 	ldchi	0, cr0, [r1], {-0}
    2abc:	c8000094 	stmdagt	r0, {r2, r4, r7}
    2ac0:	11000008 	tstne	r0, r8
    2ac4:	000094b0 			; <UNDEFINED> instruction: 0x000094b0
    2ac8:	000008d4 	ldrdeq	r0, [r0], -r4
    2acc:	0094cc0f 	addseq	ip, r4, pc, lsl #24
    2ad0:	0008bc00 	andeq	fp, r8, r0, lsl #24
    2ad4:	00042200 	andeq	r2, r4, r0, lsl #4
    2ad8:	50011000 	andpl	r1, r1, r0
    2adc:	9c140305 	ldcls	3, cr0, [r4], {5}
    2ae0:	01100000 	tsteq	r0, r0
    2ae4:	f4030551 	vst3.16	{d0,d2,d4}, [r3 :64], r1
    2ae8:	1000009a 	mulne	r0, sl, r0
    2aec:	03055201 	movweq	r5, #20993	; 0x5201
    2af0:	00009ccc 	andeq	r9, r0, ip, asr #25
    2af4:	02530110 	subseq	r0, r3, #4
    2af8:	02106808 	andseq	r6, r0, #8, 16	; 0x80000
    2afc:	0305007d 	movweq	r0, #20605	; 0x507d
    2b00:	00009c40 	andeq	r9, r0, r0, asr #24
    2b04:	94d01100 	ldrbls	r1, [r0], #256	; 0x100
    2b08:	08c80000 	stmiaeq	r8, {}^	; <UNPREDICTABLE>
    2b0c:	12000000 	andne	r0, r0, #0, 0
    2b10:	0000007e 	andeq	r0, r0, lr, ror r0
    2b14:	0000043c 	andeq	r0, r0, ip, lsr r4
    2b18:	00002c13 	andeq	r2, r0, r3, lsl ip
    2b1c:	05000f00 	streq	r0, [r0, #-3840]	; 0xfffff100
    2b20:	0000042c 	andeq	r0, r0, ip, lsr #8
    2b24:	0001ef16 	andeq	lr, r1, r6, lsl pc
    2b28:	07530100 	ldrbeq	r0, [r3, -r0, lsl #2]
    2b2c:	0000008a 	andeq	r0, r0, sl, lsl #1
    2b30:	00009380 	andeq	r9, r0, r0, lsl #7
    2b34:	00000064 	andeq	r0, r0, r4, rrx
    2b38:	05089c01 	streq	r9, [r8, #-3073]	; 0xfffff3ff
    2b3c:	d7170000 	ldrle	r0, [r7, -r0]
    2b40:	01000007 	tsteq	r0, r7
    2b44:	002c1853 	eoreq	r1, ip, r3, asr r8
    2b48:	1f8c0000 	svcne	0x008c0000
    2b4c:	1f840000 	svcne	0x00840000
    2b50:	3e0e0000 	cdpcc	0, 0, cr0, cr14, cr0, {0}
    2b54:	18000000 	stmdane	r0, {}	; <UNPREDICTABLE>
    2b58:	05000005 	streq	r0, [r0, #-5]
    2b5c:	009cc403 	addseq	ip, ip, r3, lsl #8
    2b60:	07df1d00 	ldrbeq	r1, [pc, r0, lsl #26]
    2b64:	55010000 	strpl	r0, [r1, #-0]
    2b68:	00008a0b 	andeq	r8, r0, fp, lsl #20
    2b6c:	001fc400 	andseq	ip, pc, r0, lsl #8
    2b70:	001fc000 	andseq	ip, pc, r0
    2b74:	93980f00 	orrsls	r0, r8, #0, 30
    2b78:	051d0000 	ldreq	r0, [sp, #-0]
    2b7c:	04a60000 	strteq	r0, [r6], #0
    2b80:	01100000 	tsteq	r0, r0
    2b84:	00740250 	rsbseq	r0, r4, r0, asr r2
    2b88:	93a80f00 			; <UNDEFINED> instruction: 0x93a80f00
    2b8c:	08e00000 	stmiaeq	r0!, {}^	; <UNPREDICTABLE>
    2b90:	04c50000 	strbeq	r0, [r5], #0
    2b94:	01100000 	tsteq	r0, r0
    2b98:	00750250 	rsbseq	r0, r5, r0, asr r2
    2b9c:	01510110 	cmpeq	r1, r0, lsl r1
    2ba0:	52011030 	andpl	r1, r1, #48, 0	; 0x30
    2ba4:	00007402 	andeq	r7, r0, r2, lsl #8
    2ba8:	0093d00f 	addseq	sp, r3, pc
    2bac:	0008bc00 	andeq	fp, r8, r0, lsl #24
    2bb0:	0004fe00 	andeq	pc, r4, r0, lsl #28
    2bb4:	50011000 	andpl	r1, r1, r0
    2bb8:	99800305 	stmibls	r0, {r0, r2, r8, r9}
    2bbc:	01100000 	tsteq	r0, r0
    2bc0:	f4030551 	vst3.16	{d0,d2,d4}, [r3 :64], r1
    2bc4:	1000009a 	mulne	r0, sl, r0
    2bc8:	03055201 	movweq	r5, #20993	; 0x5201
    2bcc:	00009cc4 	andeq	r9, r0, r4, asr #25
    2bd0:	02530110 	subseq	r0, r3, #4
    2bd4:	02105408 	andseq	r5, r0, #8, 8	; 0x8000000
    2bd8:	0305007d 	movweq	r0, #20605	; 0x507d
    2bdc:	00009b04 	andeq	r9, r0, r4, lsl #22
    2be0:	93d41100 	bicsls	r1, r4, #0
    2be4:	08c80000 	stmiaeq	r8, {}^	; <UNPREDICTABLE>
    2be8:	12000000 	andne	r0, r0, #0, 0
    2bec:	0000007e 	andeq	r0, r0, lr, ror r0
    2bf0:	00000518 	andeq	r0, r0, r8, lsl r5
    2bf4:	00002c13 	andeq	r2, r0, r3, lsl ip
    2bf8:	05000700 	streq	r0, [r0, #-1792]	; 0xfffff900
    2bfc:	00000508 	andeq	r0, r0, r8, lsl #10
    2c00:	00084b16 	andeq	r4, r8, r6, lsl fp
    2c04:	07470100 	strbeq	r0, [r7, -r0, lsl #2]
    2c08:	0000008a 	andeq	r0, r0, sl, lsl #1
    2c0c:	000092e8 	andeq	r9, r0, r8, ror #5
    2c10:	00000098 	muleq	r0, r8, r0
    2c14:	062b9c01 	strteq	r9, [fp], -r1, lsl #24
    2c18:	d7170000 	ldrle	r0, [r7, -r0]
    2c1c:	01000007 	tsteq	r0, r7
    2c20:	002c2047 	eoreq	r2, ip, r7, asr #32
    2c24:	1ff20000 	svcne	0x00f20000
    2c28:	1fe20000 	svcne	0x00e20000
    2c2c:	3e0e0000 	cdpcc	0, 0, cr0, cr14, cr0, {0}
    2c30:	3c000000 	stccc	0, cr0, [r0], {-0}
    2c34:	05000004 	streq	r0, [r0, #-4]
    2c38:	009cb403 	addseq	fp, ip, r3, lsl #8
    2c3c:	07df1d00 	ldrbeq	r1, [pc, r0, lsl #26]
    2c40:	4b010000 	blmi	42c48 <__bss_end__+0x38b28>
    2c44:	00008a0b 	andeq	r8, r0, fp, lsl #20
    2c48:	00206400 	eoreq	r6, r0, r0, lsl #8
    2c4c:	00206000 	eoreq	r6, r0, r0
    2c50:	081f1b00 	ldmdaeq	pc, {r8, r9, fp, ip}	; <UNPREDICTABLE>
    2c54:	92f80000 	rscsls	r0, r8, #0, 0
    2c58:	38030000 	stmdacc	r3, {}	; <UNPREDICTABLE>
    2c5c:	01000003 	tsteq	r0, r3
    2c60:	05a30e49 	streq	r0, [r3, #3657]!	; 0xe49
    2c64:	3a1a0000 	bcc	682c6c <__bss_end__+0x678b4c>
    2c68:	84000008 	strhi	r0, [r0], #-8
    2c6c:	82000020 	andhi	r0, r0, #32, 0
    2c70:	1a000020 	bne	2cf8 <__code_start__-0x5308>
    2c74:	00000830 	andeq	r0, r0, r0, lsr r8
    2c78:	0000209c 	muleq	r0, ip, r0
    2c7c:	00002098 	muleq	r0, r8, r0
    2c80:	0003381e 	andeq	r3, r3, lr, lsl r8
    2c84:	400f0000 	andmi	r0, pc, r0
    2c88:	bc000093 	stclt	0, cr0, [r0], {147}	; 0x93
    2c8c:	dc000008 	stcle	0, cr0, [r0], {8}
    2c90:	10000005 	andne	r0, r0, r5
    2c94:	03055001 	movweq	r5, #20481	; 0x5001
    2c98:	00009980 	andeq	r9, r0, r0, lsl #19
    2c9c:	05510110 	ldrbeq	r0, [r1, #-272]	; 0xfffffef0
    2ca0:	009af403 	addseq	pc, sl, r3, lsl #8
    2ca4:	52011000 	andpl	r1, r1, #0, 0
    2ca8:	9cb40305 	ldcls	3, cr0, [r4], #20
    2cac:	01100000 	tsteq	r0, r0
    2cb0:	48080253 	stmdami	r8, {r0, r1, r4, r6, r9}
    2cb4:	007d0210 	rsbseq	r0, sp, r0, lsl r2
    2cb8:	9b040305 	blls	1038d4 <__bss_end__+0xf97b4>
    2cbc:	11000000 	mrsne	r0, (UNDEF: 0)
    2cc0:	00009344 	andeq	r9, r0, r4, asr #6
    2cc4:	000008c8 	andeq	r0, r0, r8, asr #17
    2cc8:	0093640f 	addseq	r6, r3, pc, lsl #8
    2ccc:	0008bc00 	andeq	fp, r8, r0, lsl #24
    2cd0:	00062100 	andeq	r2, r6, r0, lsl #2
    2cd4:	50011000 	andpl	r1, r1, r0
    2cd8:	9b800305 	blls	fe0038f4 <__bss_end__+0xfdff97d4>
    2cdc:	01100000 	tsteq	r0, r0
    2ce0:	f4030551 	vst3.16	{d0,d2,d4}, [r3 :64], r1
    2ce4:	1000009a 	mulne	r0, sl, r0
    2ce8:	03055201 	movweq	r5, #20993	; 0x5201
    2cec:	00009cb4 			; <UNDEFINED> instruction: 0x00009cb4
    2cf0:	02530110 	subseq	r0, r3, #4
    2cf4:	02104e08 	andseq	r4, r0, #8, 28	; 0x80
    2cf8:	f308007d 	vqadd.u8	q0, q4, <illegal reg q14.5>
    2cfc:	07235001 	streq	r5, [r3, -r1]!
    2d00:	001af809 	andseq	pc, sl, r9, lsl #16
    2d04:	00936811 	addseq	r6, r3, r1, lsl r8
    2d08:	0008c800 	andeq	ip, r8, r0, lsl #16
    2d0c:	6d0c0000 	stcvs	0, cr0, [ip, #-0]
    2d10:	01000008 	tsteq	r0, r8
    2d14:	9290063c 	addsls	r0, r0, #60, 12	; 0x3c00000
    2d18:	00580000 	subseq	r0, r8, r0
    2d1c:	9c010000 	stcls	0, cr0, [r1], {-0}
    2d20:	000006cf 	andeq	r0, r0, pc, asr #13
    2d24:	00080a0a 	andeq	r0, r8, sl, lsl #20
    2d28:	103d0100 	eorsne	r0, sp, r0, lsl #2
    2d2c:	00000025 	andeq	r0, r0, r5, lsr #32
    2d30:	a1180305 	tstge	r8, r5, lsl #6
    2d34:	3e0e0000 	cdpcc	0, 0, cr0, cr14, cr0, {0}
    2d38:	df000000 	svcle	0x00000000
    2d3c:	05000006 	streq	r0, [r0, #-6]
    2d40:	009ca403 	addseq	sl, ip, r3, lsl #8
    2d44:	04070700 	streq	r0, [r7], #-1792	; 0xfffff900
    2d48:	0000002c 	andeq	r0, r0, ip, lsr #32
    2d4c:	7a0a4201 	bvc	293558 <__bss_end__+0x289438>
    2d50:	08000006 	stmdaeq	r0, {r1, r2}
    2d54:	00000834 	andeq	r0, r0, r4, lsr r8
    2d58:	00100000 	andseq	r0, r0, r0
    2d5c:	92bc0f00 	adcsls	r0, ip, #0, 30
    2d60:	06e40000 	strbteq	r0, [r4], r0
    2d64:	06960000 	ldreq	r0, [r6], r0
    2d68:	01100000 	tsteq	r0, r0
    2d6c:	40400350 	submi	r0, r0, r0, asr r3
    2d70:	51011024 	tstpl	r1, r4, lsr #32
    2d74:	24484003 	strbcs	r4, [r8], #-3
    2d78:	92d40f00 	sbcsls	r0, r4, #0, 30
    2d7c:	08bc0000 	ldmeq	ip!, {}	; <UNPREDICTABLE>
    2d80:	06c50000 	strbeq	r0, [r5], r0
    2d84:	01100000 	tsteq	r0, r0
    2d88:	50030550 	andpl	r0, r3, r0, asr r5
    2d8c:	1000009b 	mulne	r0, fp, r0
    2d90:	03055101 	movweq	r5, #20737	; 0x5101
    2d94:	00009af4 	strdeq	r9, [r0], -r4
    2d98:	05520110 	ldrbeq	r0, [r2, #-272]	; 0xfffffef0
    2d9c:	009ca403 	addseq	sl, ip, r3, lsl #8
    2da0:	53011000 	movwpl	r1, #4096	; 0x1000
    2da4:	00400802 	subeq	r0, r0, r2, lsl #16
    2da8:	0092d811 	addseq	sp, r2, r1, lsl r8
    2dac:	0008c800 	andeq	ip, r8, r0, lsl #16
    2db0:	7e120000 	cdpvc	0, 1, cr0, cr2, cr0, {0}
    2db4:	df000000 	svcle	0x00000000
    2db8:	13000006 	movwne	r0, #6
    2dbc:	0000002c 	andeq	r0, r0, ip, lsr #32
    2dc0:	cf05000c 	svcgt	0x0005000c
    2dc4:	0c000006 	stceq	0, cr0, [r0], {6}
    2dc8:	00000896 	muleq	r0, r6, r8
    2dcc:	f4062d01 			; <UNDEFINED> instruction: 0xf4062d01
    2dd0:	9c000091 	stcls	0, cr0, [r0], {145}	; 0x91
    2dd4:	01000000 	mrseq	r0, (UNDEF: 0)
    2dd8:	0007c89c 	muleq	r7, ip, r8
    2ddc:	07de1700 	ldrbeq	r1, [lr, r0, lsl #14]
    2de0:	2d010000 	stccs	0, cr0, [r1, #-0]
    2de4:	00002c26 	andeq	r2, r0, r6, lsr #24
    2de8:	0020ca00 	eoreq	ip, r0, r0, lsl #20
    2dec:	0020bc00 	eoreq	fp, r0, r0, lsl #24
    2df0:	07d31700 	ldrbeq	r1, [r3, r0, lsl #14]
    2df4:	2d010000 	stccs	0, cr0, [r1, #-0]
    2df8:	00002c36 	andeq	r2, r0, r6, lsr ip
    2dfc:	00213200 	eoreq	r3, r1, r0, lsl #4
    2e00:	00212a00 	eoreq	r2, r1, r0, lsl #20
    2e04:	07df1d00 	ldrbeq	r1, [pc, r0, lsl #26]
    2e08:	2e010000 	cdpcs	0, 0, cr0, cr1, cr0, {0}
    2e0c:	0000c20b 	andeq	ip, r0, fp, lsl #4
    2e10:	00217a00 	eoreq	r7, r1, r0, lsl #20
    2e14:	00216c00 	eoreq	r6, r1, r0, lsl #24
    2e18:	003e0e00 	eorseq	r0, lr, r0, lsl #28
    2e1c:	07d80000 	ldrbeq	r0, [r8, r0]
    2e20:	03050000 	movweq	r0, #20480	; 0x5000
    2e24:	00009c8c 	andeq	r9, r0, ip, lsl #25
    2e28:	00924c0f 	addseq	r4, r2, pc, lsl #24
    2e2c:	0008bc00 	andeq	fp, r8, r0, lsl #24
    2e30:	00077e00 	andeq	r7, r7, r0, lsl #28
    2e34:	50011000 	andpl	r1, r1, r0
    2e38:	99800305 	stmibls	r0, {r0, r2, r8, r9}
    2e3c:	01100000 	tsteq	r0, r0
    2e40:	f4030551 	vst3.16	{d0,d2,d4}, [r3 :64], r1
    2e44:	1000009a 	mulne	r0, sl, r0
    2e48:	03055201 	movweq	r5, #20993	; 0x5201
    2e4c:	00009c8c 	andeq	r9, r0, ip, lsl #25
    2e50:	02530110 	subseq	r0, r3, #4
    2e54:	02103008 	andseq	r3, r0, #8, 0
    2e58:	0305007d 	movweq	r0, #20605	; 0x507d
    2e5c:	00009b00 	andeq	r9, r0, r0, lsl #22
    2e60:	92501100 	subsls	r1, r0, #0
    2e64:	08c80000 	stmiaeq	r8, {}^	; <UNPREDICTABLE>
    2e68:	740f0000 	strvc	r0, [pc], #-0	; 2e70 <__code_start__-0x5190>
    2e6c:	bc000092 	stclt	0, cr0, [r0], {146}	; 0x92
    2e70:	be000008 	cdplt	0, 0, cr0, cr0, cr8, {0}
    2e74:	10000007 	andne	r0, r0, r7
    2e78:	03055001 	movweq	r5, #20481	; 0x5001
    2e7c:	00009b0c 	andeq	r9, r0, ip, lsl #22
    2e80:	05510110 	ldrbeq	r0, [r1, #-272]	; 0xfffffef0
    2e84:	009af403 	addseq	pc, sl, r3, lsl #8
    2e88:	52011000 	andpl	r1, r1, #0, 0
    2e8c:	9c8c0305 	stcls	3, cr0, [ip], {5}
    2e90:	01100000 	tsteq	r0, r0
    2e94:	34080253 	strcc	r0, [r8], #-595	; 0xfffffdad
    2e98:	007d0210 	rsbseq	r0, sp, r0, lsl r2
    2e9c:	5001f303 	andpl	pc, r1, r3, lsl #6
    2ea0:	92781100 	rsbsls	r1, r8, #0
    2ea4:	08c80000 	stmiaeq	r8, {}^	; <UNPREDICTABLE>
    2ea8:	12000000 	andne	r0, r0, #0, 0
    2eac:	0000007e 	andeq	r0, r0, lr, ror r0
    2eb0:	000007d8 	ldrdeq	r0, [r0], -r8
    2eb4:	00002c13 	andeq	r2, r0, r3, lsl ip
    2eb8:	05001600 	streq	r1, [r0, #-1536]	; 0xfffffa00
    2ebc:	000007c8 	andeq	r0, r0, r8, asr #15
    2ec0:	0008851f 	andeq	r8, r8, pc, lsl r5
    2ec4:	072a0100 	streq	r0, [sl, -r0, lsl #2]!
    2ec8:	0000008a 	andeq	r0, r0, sl, lsl #1
    2ecc:	000091e4 	andeq	r9, r0, r4, ror #3
    2ed0:	00000010 	andeq	r0, r0, r0, lsl r0
    2ed4:	c01f9c01 	andsgt	r9, pc, r1, lsl #24
    2ed8:	01000007 	tsteq	r0, r7
    2edc:	008a0729 	addeq	r0, sl, r9, lsr #14
    2ee0:	91d40000 	bicsls	r0, r4, r0
    2ee4:	00100000 	andseq	r0, r0, r0
    2ee8:	9c010000 	stcls	0, cr0, [r1], {-0}
    2eec:	00083a1f 	andeq	r3, r8, pc, lsl sl
    2ef0:	07280100 	streq	r0, [r8, -r0, lsl #2]!
    2ef4:	0000008a 	andeq	r0, r0, sl, lsl #1
    2ef8:	000091c4 	andeq	r9, r0, r4, asr #3
    2efc:	00000010 	andeq	r0, r0, r0, lsl r0
    2f00:	fd209c01 	stc2	12, cr9, [r0, #-4]!
    2f04:	01000007 	tsteq	r0, r7
    2f08:	002c1810 	eoreq	r1, ip, r0, lsl r8
    2f0c:	54030000 	strpl	r0, [r3], #-0
    2f10:	21000008 	tstcs	r0, r8
    2f14:	10010078 	andne	r0, r1, r8, ror r0
    2f18:	00002c29 	andeq	r2, r0, r9, lsr #24
    2f1c:	006e2100 	rsbeq	r2, lr, r0, lsl #2
    2f20:	2c351001 	ldccs	0, cr1, [r5], #-4
    2f24:	0e000000 	cdpeq	0, 0, cr0, cr0, cr0, {0}
    2f28:	0000003e 	andeq	r0, r0, lr, lsr r0
    2f2c:	00000518 	andeq	r0, r0, r8, lsl r5
    2f30:	9cdc0305 	ldclls	3, cr0, [ip], {5}
    2f34:	20000000 	andcs	r0, r0, r0
    2f38:	0000085b 	andeq	r0, r0, fp, asr r8
    2f3c:	2c180d01 	ldccs	13, cr0, [r8], {1}
    2f40:	03000000 	movweq	r0, #0
    2f44:	00000870 	andeq	r0, r0, r0, ror r8
    2f48:	01007821 	tsteq	r0, r1, lsr #16
    2f4c:	002c290d 	eoreq	r2, ip, sp, lsl #18
    2f50:	20000000 	andcs	r0, r0, r0
    2f54:	0000087a 	andeq	r0, r0, sl, ror r8
    2f58:	2c180701 	ldccs	7, cr0, [r8], {1}
    2f5c:	03000000 	movweq	r0, #0
    2f60:	00000896 	muleq	r0, r6, r8
    2f64:	01007821 	tsteq	r0, r1, lsr #16
    2f68:	002c2c07 	eoreq	r2, ip, r7, lsl #24
    2f6c:	6e210000 	cdpvs	0, 2, cr0, cr1, cr0, {0}
    2f70:	38070100 	stmdacc	r7, {r8}
    2f74:	0000002c 	andeq	r0, r0, ip, lsr #32
    2f78:	082c2000 	stmdaeq	ip!, {sp}
    2f7c:	04010000 	streq	r0, [r1], #-0
    2f80:	00005d18 	andeq	r5, r0, r8, lsl sp
    2f84:	08bc0300 	ldmeq	ip!, {r8, r9}
    2f88:	78210000 	stmdavc	r1!, {}	; <UNPREDICTABLE>
    2f8c:	29040100 	stmdbcs	r4, {r8}
    2f90:	0000005d 	andeq	r0, r0, sp, asr r0
    2f94:	01007921 	tsteq	r0, r1, lsr #18
    2f98:	005d3504 	subseq	r3, sp, r4, lsl #10
    2f9c:	22000000 	andcs	r0, r0, #0, 0
    2fa0:	00000209 	andeq	r0, r0, r9, lsl #4
    2fa4:	00000209 	andeq	r0, r0, r9, lsl #4
    2fa8:	22062802 	andcs	r2, r6, #131072	; 0x20000
    2fac:	00000016 	andeq	r0, r0, r6, lsl r0
    2fb0:	00000016 	andeq	r0, r0, r6, lsl r0
    2fb4:	22066e02 	andcs	r6, r6, #2, 28
    2fb8:	000008ad 	andeq	r0, r0, sp, lsr #17
    2fbc:	000008ad 	andeq	r0, r0, sp, lsr #17
    2fc0:	22061d02 	andcs	r1, r6, #128	; 0x80
    2fc4:	0000081b 	andeq	r0, r0, fp, lsl r8
    2fc8:	0000081b 	andeq	r0, r0, fp, lsl r8
    2fcc:	0007f202 	andeq	pc, r7, r2, lsl #4
    2fd0:	00000673 	andeq	r0, r0, r3, ror r6
    2fd4:	116b0004 	cmnne	fp, r4
    2fd8:	01040000 	mrseq	r0, (UNDEF: 4)
    2fdc:	0000021f 	andeq	r0, r0, pc, lsl r2
    2fe0:	0008ff0c 	andeq	pc, r8, ip, lsl #30
    2fe4:	0002f600 	andeq	pc, r2, r0, lsl #12
    2fe8:	00957400 	addseq	r7, r5, r0, lsl #8
    2fec:	00019800 	andeq	r9, r1, r0, lsl #16
    2ff0:	00195c00 	andseq	r5, r9, r0, lsl #24
    2ff4:	07080200 	streq	r0, [r8, -r0, lsl #4]
    2ff8:	00000062 	andeq	r0, r0, r2, rrx
    2ffc:	6c070402 	cfstrsvs	mvf0, [r7], {2}
    3000:	03000000 	movweq	r0, #0
    3004:	6e690504 	cdpvs	5, 6, cr0, cr9, cr4, {0}
    3008:	2c040074 	stccs	0, cr0, [r4], {116}	; 0x74
    300c:	02000000 	andeq	r0, r0, #0, 0
    3010:	000a0601 	andeq	r0, sl, r1, lsl #12
    3014:	02020000 	andeq	r0, r2, #0, 0
    3018:	0000ca05 	andeq	ip, r0, r5, lsl #20
    301c:	05040200 	streq	r0, [r4, #-512]	; 0xfffffe00
    3020:	0000007e 	andeq	r0, r0, lr, ror r0
    3024:	79050802 	stmdbvc	r5, {r1, fp}
    3028:	02000000 	andeq	r0, r0, #0, 0
    302c:	00080801 	andeq	r0, r8, r1, lsl #16
    3030:	02020000 	andeq	r0, r2, #0, 0
    3034:	00002307 	andeq	r2, r0, r7, lsl #6
    3038:	03ab0500 			; <UNDEFINED> instruction: 0x03ab0500
    303c:	34030000 	strcc	r0, [r3], #-0
    3040:	00007519 	andeq	r7, r0, r9, lsl r5
    3044:	07040200 	streq	r0, [r4, -r0, lsl #4]
    3048:	00000067 	andeq	r0, r0, r7, rrx
    304c:	00003306 	andeq	r3, r0, r6, lsl #6
    3050:	00008b00 	andeq	r8, r0, r0, lsl #22
    3054:	00330700 	eorseq	r0, r3, r0, lsl #14
    3058:	08000000 	stmdaeq	r0, {}	; <UNPREDICTABLE>
    305c:	00000087 	andeq	r0, r0, r7, lsl #1
    3060:	970e1c02 	strls	r1, [lr, -r2, lsl #24]
    3064:	09000000 	stmdbeq	r0, {}	; <UNPREDICTABLE>
    3068:	00007c04 	andeq	r7, r0, r4, lsl #24
    306c:	00330600 	eorseq	r0, r3, r0, lsl #12
    3070:	00ac0000 	adceq	r0, ip, r0
    3074:	ac070000 	stcge	0, cr0, [r7], {-0}
    3078:	00000000 	andeq	r0, r0, r0
    307c:	00b90409 	adcseq	r0, r9, r9, lsl #8
    3080:	01020000 	mrseq	r0, (UNDEF: 2)
    3084:	00001108 	andeq	r1, r0, r8, lsl #2
    3088:	00b20400 	adcseq	r0, r2, r0, lsl #8
    308c:	21080000 	mrscs	r0, (UNDEF: 8)
    3090:	02000003 	andeq	r0, r0, #3, 0
    3094:	00ca0e21 	sbceq	r0, sl, r1, lsr #28
    3098:	04090000 	streq	r0, [r9], #-0
    309c:	0000009d 	muleq	r0, sp, r0
    30a0:	5b01070a 	blpl	44cd0 <__bss_end__+0x3abb0>
    30a4:	04000000 	streq	r0, [r0], #-0
    30a8:	010f0e0c 	tsteq	pc, ip, lsl #28
    30ac:	980b0000 	stmdals	fp, {}	; <UNPREDICTABLE>
    30b0:	00000007 	andeq	r0, r0, r7
    30b4:	0005d00b 	andeq	sp, r5, fp
    30b8:	130b0100 	movwne	r0, #45312	; 0xb100
    30bc:	04000006 	streq	r0, [r0], #-6
    30c0:	0006220b 	andeq	r2, r6, fp, lsl #4
    30c4:	310b0500 	tstcc	fp, r0, lsl #10
    30c8:	06000006 	streq	r0, [r0], -r6
    30cc:	0006400b 	andeq	r4, r6, fp
    30d0:	610b0700 	tstvs	fp, r0, lsl #14
    30d4:	03000007 	movweq	r0, #7
    30d8:	00064f0b 	andeq	r4, r6, fp, lsl #30
    30dc:	05000200 	streq	r0, [r0, #-512]	; 0xfffffe00
    30e0:	0000093d 	andeq	r0, r0, sp, lsr r9
    30e4:	d0031504 	andle	r1, r3, r4, lsl #10
    30e8:	0c000000 	stceq	0, cr0, [r0], {-0}
    30ec:	000008d6 	ldrdeq	r0, [r0], -r6
    30f0:	3a171d01 	bcc	5ca4fc <__bss_end__+0x5c03dc>
    30f4:	1c000000 	stcne	0, cr0, [r0], {-0}
    30f8:	0c202000 	stceq	0, cr2, [r0], #-0
    30fc:	000008cc 	andeq	r0, r0, ip, asr #17
    3100:	3a171e01 	bcc	5ca90c <__bss_end__+0x5c07ec>
    3104:	28000000 	stmdacs	r0, {}	; <UNPREDICTABLE>
    3108:	0c202000 	stceq	0, cr2, [r0], #-0
    310c:	00000949 	andeq	r0, r0, r9, asr #18
    3110:	3a171f01 	bcc	5cad1c <__bss_end__+0x5c0bfc>
    3114:	34000000 	strcc	r0, [r0], #-0
    3118:	0d202000 	stceq	0, cr2, [r0, #-0]
    311c:	000008f5 	strdeq	r0, [r0], -r5
    3120:	33055101 	movwcc	r5, #20737	; 0x5101
    3124:	e4000000 	str	r0, [r0], #-0
    3128:	28000096 	stmdacs	r0, {r1, r2, r4, r7}
    312c:	01000000 	mrseq	r0, (UNDEF: 0)
    3130:	0001ba9c 	muleq	r1, ip, sl
    3134:	69700e00 	ldmdbvs	r0!, {r9, sl, fp}^
    3138:	5101006e 	tstpl	r1, lr, rrx
    313c:	00002c18 	andeq	r2, r0, r8, lsl ip
    3140:	0021e000 	eoreq	lr, r1, r0
    3144:	0021da00 	eoreq	sp, r1, r0, lsl #20
    3148:	09530f00 	ldmdbeq	r3, {r8, r9, sl, fp}^
    314c:	52010000 	andpl	r0, r1, #0, 0
    3150:	00002c0e 	andeq	r2, r0, lr, lsl #24
    3154:	00221600 	eoreq	r1, r2, r0, lsl #12
    3158:	00220c00 	eoreq	r0, r2, r0, lsl #24
    315c:	666f1000 	strbtvs	r1, [pc], -r0
    3160:	53010066 	movwpl	r0, #4198	; 0x1066
    3164:	00002c0e 	andeq	r2, r0, lr, lsl #24
    3168:	00228400 	eoreq	r8, r2, r0, lsl #8
    316c:	00227e00 	eoreq	r7, r2, r0, lsl #28
    3170:	96f81100 	ldrbtls	r1, [r8], r0, lsl #2
    3174:	065e0000 	ldrbeq	r0, [lr], -r0
    3178:	01120000 	tsteq	r2, r0
    317c:	00740a50 	rsbseq	r0, r4, r0, asr sl
    3180:	b4232535 	strtlt	r2, [r3], #-1333	; 0xfffffacb
    3184:	02818080 	addeq	r8, r1, #128, 0	; 0x80
    3188:	e0130000 	ands	r0, r3, r0
    318c:	01000008 	tsteq	r0, r8
    3190:	96b4064a 	ldrtls	r0, [r4], sl, asr #12
    3194:	00300000 	eorseq	r0, r0, r0
    3198:	9c010000 	stcls	0, cr0, [r1], {-0}
    319c:	00000275 	andeq	r0, r0, r5, ror r2
    31a0:	6e69700e 	cdpvs	0, 6, cr7, cr9, cr14, {0}
    31a4:	1a4a0100 	bne	12835ac <__bss_end__+0x127948c>
    31a8:	0000002c 	andeq	r0, r0, ip, lsr #32
    31ac:	000022c1 	andeq	r2, r0, r1, asr #5
    31b0:	000022b5 			; <UNDEFINED> instruction: 0x000022b5
    31b4:	0100760e 	tsteq	r0, lr, lsl #12
    31b8:	002c284a 	eoreq	r2, ip, sl, asr #16
    31bc:	23150000 	tstcs	r5, #0, 0
    31c0:	23110000 	tstcs	r1, #0, 0
    31c4:	8d140000 	ldchi	0, cr0, [r4, #-0]
    31c8:	c4000003 	strgt	r0, [r0], #-3
    31cc:	01000096 	swpeq	r0, r6, [r0]	; <UNPREDICTABLE>
    31d0:	00000408 	andeq	r0, r0, r8, lsl #8
    31d4:	35094c01 	strcc	r4, [r9, #-3073]	; 0xfffff3ff
    31d8:	15000002 	strne	r0, [r0, #-2]
    31dc:	0000039a 	muleq	r0, sl, r3
    31e0:	0000233c 	andeq	r2, r0, ip, lsr r3
    31e4:	00002336 	andeq	r2, r0, r6, lsr r3
    31e8:	0096d016 	addseq	sp, r6, r6, lsl r0
    31ec:	00066a00 	andeq	r6, r6, r0, lsl #20
    31f0:	50011200 	andpl	r1, r1, r0, lsl #4
    31f4:	001c0c05 	andseq	r0, ip, r5, lsl #24
    31f8:	01122020 	tsteq	r2, r0, lsr #32
    31fc:	f3310551 	vqrshl.u64	q0, <illegal reg q0.5>, <illegal reg q0.5>
    3200:	00245001 	eoreq	r5, r4, r1
    3204:	03731700 	cmneq	r3, #0, 14
    3208:	96d00000 	ldrbls	r0, [r0], r0
    320c:	d0020000 	andle	r0, r2, r0
    3210:	14000096 	strne	r0, [r0], #-150	; 0xffffff6a
    3214:	01000000 	mrseq	r0, (UNDEF: 0)
    3218:	8015094e 	andshi	r0, r5, lr, asr #18
    321c:	6e000003 	cdpvs	0, 0, cr0, cr0, cr3, {0}
    3220:	68000023 	stmdavs	r0, {r0, r1, r5}
    3224:	16000023 	strne	r0, [r0], -r3, lsr #32
    3228:	000096dc 	ldrdeq	r9, [r0], -ip
    322c:	0000066a 	andeq	r0, r0, sl, ror #12
    3230:	05500112 	ldrbeq	r0, [r0, #-274]	; 0xfffffeee
    3234:	2000280c 	andcs	r2, r0, ip, lsl #16
    3238:	51011220 	tstpl	r1, r0, lsr #4
    323c:	01f33105 	mvnseq	r3, r5, lsl #2
    3240:	00002450 	andeq	r2, r0, r0, asr r4
    3244:	090c1300 	stmdbeq	ip, {r8, r9, ip}
    3248:	45010000 	strmi	r0, [r1, #-0]
    324c:	00965c06 	addseq	r5, r6, r6, lsl #24
    3250:	00005800 	andeq	r5, r0, r0, lsl #16
    3254:	739c0100 	orrsvc	r0, ip, #0
    3258:	0e000003 	cdpeq	0, 0, cr0, cr0, cr3, {0}
    325c:	006e6970 	rsbeq	r6, lr, r0, ror r9
    3260:	2c1e4501 	cfldr32cs	mvfx4, [lr], {1}
    3264:	a0000000 	andge	r0, r0, r0
    3268:	9a000023 	bls	32fc <__code_start__-0x4d04>
    326c:	18000023 	stmdane	r0, {r0, r1, r5}
    3270:	000004a5 	andeq	r0, r0, r5, lsr #9
    3274:	0000965c 	andeq	r9, r0, ip, asr r6
    3278:	0003c802 	andeq	ip, r3, r2, lsl #16
    327c:	05460100 	strbeq	r0, [r6, #-256]	; 0xffffff00
    3280:	0004be19 	andeq	fp, r4, r9, lsl lr
    3284:	b2150000 	andslt	r0, r5, #0, 0
    3288:	d2000004 	andle	r0, r0, #4, 0
    328c:	cc000023 	stcgt	0, cr0, [r0], {35}	; 0x23
    3290:	1a000023 	bne	3324 <__code_start__-0x4cdc>
    3294:	000003c8 	andeq	r0, r0, r8, asr #7
    3298:	0004ca1b 	andeq	ip, r4, fp, lsl sl
    329c:	04d61b00 	ldrbeq	r1, [r6], #2816	; 0xb00
    32a0:	e01b0000 	ands	r0, fp, r0
    32a4:	18000004 	stmdane	r0, {r2}
    32a8:	000004a5 	andeq	r0, r0, r5, lsr #9
    32ac:	00009664 	andeq	r9, r0, r4, ror #12
    32b0:	0003e800 	andeq	lr, r3, r0, lsl #16
    32b4:	06280100 	strteq	r0, [r8], -r0, lsl #2
    32b8:	0004be19 	andeq	fp, r4, r9, lsl lr
    32bc:	b2150000 	andslt	r0, r5, #0, 0
    32c0:	04000004 	streq	r0, [r0], #-4
    32c4:	fe000024 	cdp2	0, 0, cr0, cr0, cr4, {1}
    32c8:	1a000023 	bne	335c <__code_start__-0x4ca4>
    32cc:	000003e8 	andeq	r0, r0, r8, ror #7
    32d0:	0004ca1c 	andeq	ip, r4, ip, lsl sl
    32d4:	00243600 	eoreq	r3, r4, r0, lsl #12
    32d8:	00243000 	eoreq	r3, r4, r0
    32dc:	04d61c00 	ldrbeq	r1, [r6], #3072	; 0xc00
    32e0:	24780000 	ldrbtcs	r0, [r8], #-0
    32e4:	24720000 	ldrbtcs	r0, [r2], #-0
    32e8:	e01c0000 	ands	r0, ip, r0
    32ec:	ce000004 	cdpgt	0, 0, cr0, cr0, cr4, {0}
    32f0:	c6000024 	strgt	r0, [r0], -r4, lsr #32
    32f4:	1d000024 	stcne	0, cr0, [r0, #-144]	; 0xffffff70
    32f8:	0000968c 	andeq	r9, r0, ip, lsl #13
    32fc:	0000065e 	andeq	r0, r0, lr, asr r6
    3300:	0000033b 	andeq	r0, r0, fp, lsr r3
    3304:	02500112 	subseq	r0, r0, #-2147483644	; 0x80000004
    3308:	16000076 			; <UNDEFINED> instruction: 0x16000076
    330c:	000096b0 			; <UNDEFINED> instruction: 0x000096b0
    3310:	0000066a 	andeq	r0, r0, sl, ror #12
    3314:	25500112 	ldrbcs	r0, [r0, #-274]	; 0xfffffeee
    3318:	f75001f3 			; <UNDEFINED> instruction: 0xf75001f3
    331c:	f425f72c 	vld1.8	{d15}, [r5 :128], ip
    3320:	cccd0825 	stclgt	8, cr0, [sp], {37}	; 0x25
    3324:	0000cccc 	andeq	ip, r0, ip, asr #25
    3328:	081e0000 	ldmdaeq	lr, {}	; <UNPREDICTABLE>
    332c:	2525f720 	strcs	pc, [r5, #-1824]!	; 0xfffff8e0
    3330:	00f72cf7 	ldrshteq	r2, [r7], #199	; 0xc7
    3334:	80232533 	eorhi	r2, r3, r3, lsr r5
    3338:	3240a080 	subcc	sl, r0, #128, 0	; 0x80
    333c:	00000024 	andeq	r0, r0, r4, lsr #32
    3340:	1e000000 	cdpne	0, 0, cr0, cr0, cr0, {0}
    3344:	0000091b 	andeq	r0, r0, fp, lsl r9
    3348:	030d4001 	movweq	r4, #53249	; 0xd001
    334c:	0000038d 	andeq	r0, r0, sp, lsl #7
    3350:	6e69701f 	mcrvs	0, 3, r7, cr9, cr15, {0}
    3354:	23400100 	movtcs	r0, #256	; 0x100
    3358:	0000002c 	andeq	r0, r0, ip, lsr #32
    335c:	09581e00 	ldmdbeq	r8, {r9, sl, fp, ip}^
    3360:	3b010000 	blcc	43368 <__bss_end__+0x39248>
    3364:	03a7030d 			; <UNDEFINED> instruction: 0x03a7030d
    3368:	701f0000 	andsvc	r0, pc, r0
    336c:	01006e69 	tsteq	r0, r9, ror #28
    3370:	002c223b 	eoreq	r2, ip, fp, lsr r2
    3374:	13000000 	movwne	r0, #0
    3378:	00000928 	andeq	r0, r0, r8, lsr #18
    337c:	d4063601 	strle	r3, [r6], #-1537	; 0xfffff9ff
    3380:	58000095 	stmdapl	r0, {r0, r2, r4, r7}
    3384:	01000000 	mrseq	r0, (UNDEF: 0)
    3388:	0004a59c 	muleq	r4, ip, r5
    338c:	69700e00 	ldmdbvs	r0!, {r9, sl, fp}^
    3390:	3601006e 	strcc	r0, [r1], -lr, rrx
    3394:	00002c1f 	andeq	r2, r0, pc, lsl ip
    3398:	00252c00 	eoreq	r2, r5, r0, lsl #24
    339c:	00252800 	eoreq	r2, r5, r0, lsl #16
    33a0:	04a51800 	strteq	r1, [r5], #2048	; 0x800
    33a4:	95d40000 	ldrbls	r0, [r4]
    33a8:	88020000 	stmdahi	r2, {}	; <UNPREDICTABLE>
    33ac:	01000003 	tsteq	r0, r3
    33b0:	be190537 	mrclt	5, 0, r0, cr9, cr7, {1}
    33b4:	01000004 	tsteq	r0, r4
    33b8:	0004b215 	andeq	fp, r4, r5, lsl r2
    33bc:	00255100 	eoreq	r5, r5, r0, lsl #2
    33c0:	00254d00 	eoreq	r4, r5, r0, lsl #26
    33c4:	03881a00 	orreq	r1, r8, #0, 20
    33c8:	ca1b0000 	bgt	6c33d0 <__bss_end__+0x6b92b0>
    33cc:	1b000004 	blne	33e4 <__code_start__-0x4c1c>
    33d0:	000004d6 	ldrdeq	r0, [r0], -r6
    33d4:	0004e01b 	andeq	lr, r4, fp, lsl r0
    33d8:	04a51800 	strteq	r1, [r5], #2048	; 0x800
    33dc:	95dc0000 	ldrbls	r0, [ip]
    33e0:	a8000000 	stmdage	r0, {}	; <UNPREDICTABLE>
    33e4:	01000003 	tsteq	r0, r3
    33e8:	be190628 	cfmsub32lt	mvax1, mvfx0, mvfx9, mvfx8
    33ec:	01000004 	tsteq	r0, r4
    33f0:	0004b215 	andeq	fp, r4, r5, lsl r2
    33f4:	00257600 	eoreq	r7, r5, r0, lsl #12
    33f8:	00257200 	eoreq	r7, r5, r0, lsl #4
    33fc:	03a81a00 			; <UNDEFINED> instruction: 0x03a81a00
    3400:	ca1c0000 	bgt	703408 <__bss_end__+0x6f92e8>
    3404:	9b000004 	blls	341c <__code_start__-0x4be4>
    3408:	97000025 	strls	r0, [r0, -r5, lsr #32]
    340c:	1c000025 	stcne	0, cr0, [r0], {37}	; 0x25
    3410:	000004d6 	ldrdeq	r0, [r0], -r6
    3414:	000025e7 	andeq	r2, r0, r7, ror #11
    3418:	000025e1 	andeq	r2, r0, r1, ror #11
    341c:	0004e01c 	andeq	lr, r4, ip, lsl r0
    3420:	00263d00 	eoreq	r3, r6, r0, lsl #26
    3424:	00263500 	eoreq	r3, r6, r0, lsl #10
    3428:	96081d00 	strls	r1, [r8], -r0, lsl #26
    342c:	065e0000 	ldrbeq	r0, [lr], -r0
    3430:	046d0000 	strbteq	r0, [sp], #-0
    3434:	01120000 	tsteq	r2, r0
    3438:	00750250 	rsbseq	r0, r5, r0, asr r2
    343c:	96281600 	strtls	r1, [r8], -r0, lsl #12
    3440:	066a0000 	strbteq	r0, [sl], -r0
    3444:	01120000 	tsteq	r2, r0
    3448:	01f32550 	mvnseq	r2, r0, asr r5
    344c:	f72cf750 			; <UNDEFINED> instruction: 0xf72cf750
    3450:	0825f425 	stmdaeq	r5!, {r0, r2, r5, sl, ip, sp, lr, pc}
    3454:	cccccccd 	stclgt	12, cr12, [ip], {205}	; 0xcd
    3458:	00000000 	andeq	r0, r0, r0
    345c:	f720081e 			; <UNDEFINED> instruction: 0xf720081e
    3460:	2cf72525 	cfldr64cs	mvdx2, [r7], #148	; 0x94
    3464:	253300f7 	ldrcs	r0, [r3, #-247]!	; 0xffffff09
    3468:	a0808023 	addge	r8, r0, r3, lsr #32
    346c:	00243240 	eoreq	r3, r4, r0, asr #4
    3470:	00000000 	andeq	r0, r0, r0
    3474:	07a81e00 	streq	r1, [r8, r0, lsl #28]!
    3478:	28010000 	stmdacs	r1, {}	; <UNPREDICTABLE>
    347c:	04eb0106 	strbteq	r0, [fp], #262	; 0x106
    3480:	701f0000 	andsvc	r0, pc, r0
    3484:	01006e69 	tsteq	r0, r9, ror #28
    3488:	002c2128 	eoreq	r2, ip, r8, lsr #2
    348c:	38200000 	stmdacc	r0!, {}	; <UNPREDICTABLE>
    3490:	01000009 	tsteq	r0, r9
    3494:	010f3228 	tsteq	pc, r8, lsr #4
    3498:	6f210000 	svcvs	0x00210000
    349c:	01006666 	tsteq	r0, r6, ror #12
    34a0:	002c0e2d 	eoreq	r0, ip, sp, lsr #28
    34a4:	67210000 	strvs	r0, [r1, -r0]!
    34a8:	0e2e0100 	sufeqe	f0, f6, f0
    34ac:	0000002c 	andeq	r0, r0, ip, lsr #32
    34b0:	01007621 	tsteq	r0, r1, lsr #12
    34b4:	002c0e30 	eoreq	r0, ip, r0, lsr lr
    34b8:	22000000 	andcs	r0, r0, #0, 0
    34bc:	000008eb 	andeq	r0, r0, fp, ror #17
    34c0:	6918b102 	ldmdbvs	r8, {r1, r8, ip, sp, pc}
    34c4:	03000000 	movweq	r0, #0
    34c8:	00000507 	andeq	r0, r0, r7, lsl #10
    34cc:	0200781f 	andeq	r7, r0, #2031616	; 0x1f0000
    34d0:	00692bb1 	strhteq	r2, [r9], #-177	; 0xffffff4f
    34d4:	23000000 	movwcs	r0, #0
    34d8:	000004a5 	andeq	r0, r0, r5, lsr #9
    34dc:	00009574 	andeq	r9, r0, r4, ror r5
    34e0:	00000060 	andeq	r0, r0, r0, rrx
    34e4:	05e49c01 	strbeq	r9, [r4, #3073]!	; 0xc01
    34e8:	b2150000 	andslt	r0, r5, #0, 0
    34ec:	7c000004 	stcvc	0, cr0, [r0], {4}
    34f0:	78000026 	stmdavc	r0, {r1, r2, r5}
    34f4:	15000026 	strne	r0, [r0, #-38]	; 0xffffffda
    34f8:	000004be 			; <UNDEFINED> instruction: 0x000004be
    34fc:	000026a1 	andeq	r2, r0, r1, lsr #13
    3500:	0000269d 	muleq	r0, sp, r6
    3504:	0004ca1b 	andeq	ip, r4, fp, lsl sl
    3508:	04d61b00 	ldrbeq	r1, [r6], #2816	; 0xb00
    350c:	e01b0000 	ands	r0, fp, r0
    3510:	18000004 	stmdane	r0, {r2}
    3514:	000004a5 	andeq	r0, r0, r5, lsr #9
    3518:	0000957c 	andeq	r9, r0, ip, ror r5
    351c:	00036800 	andeq	r6, r3, r0, lsl #16
    3520:	06280100 	strteq	r0, [r8], -r0, lsl #2
    3524:	0004be15 	andeq	fp, r4, r5, lsl lr
    3528:	0026c600 	eoreq	ip, r6, r0, lsl #12
    352c:	0026c200 	eoreq	ip, r6, r0, lsl #4
    3530:	04b21500 	ldrteq	r1, [r2], #1280	; 0x500
    3534:	26eb0000 	strbtcs	r0, [fp], r0
    3538:	26e70000 	strbtcs	r0, [r7], r0
    353c:	681a0000 	ldmdavs	sl, {}	; <UNPREDICTABLE>
    3540:	1c000003 	stcne	0, cr0, [r0], {3}
    3544:	000004ca 	andeq	r0, r0, sl, asr #9
    3548:	00002710 	andeq	r2, r0, r0, lsl r7
    354c:	0000270c 	andeq	r2, r0, ip, lsl #14
    3550:	0004d61c 	andeq	sp, r4, ip, lsl r6
    3554:	00275c00 	eoreq	r5, r7, r0, lsl #24
    3558:	00275600 	eoreq	r5, r7, r0, lsl #12
    355c:	04e01c00 	strbteq	r1, [r0], #3072	; 0xc00
    3560:	27b20000 	ldrcs	r0, [r2, r0]!
    3564:	27aa0000 	strcs	r0, [sl, r0]!
    3568:	b41d0000 	ldrlt	r0, [sp], #-0
    356c:	5e000095 	mcrpl	0, 0, r0, cr0, cr5, {4}
    3570:	ae000006 	cdpge	0, 0, cr0, cr0, cr6, {0}
    3574:	12000005 	andne	r0, r0, #5, 0
    3578:	76025001 	strvc	r5, [r2], -r1
    357c:	d0160000 	andsle	r0, r6, r0
    3580:	6a000095 	bvs	37dc <__code_start__-0x4824>
    3584:	12000006 	andne	r0, r0, #6, 0
    3588:	f3255001 	vhadd.u32	d5, d5, d1
    358c:	2cf75001 	ldclcs	0, cr5, [r7], #4
    3590:	25f425f7 	ldrbcs	r2, [r4, #1527]!	; 0x5f7
    3594:	cccccd08 	stclgt	13, cr12, [ip], {8}
    3598:	000000cc 	andeq	r0, r0, ip, asr #1
    359c:	20081e00 	andcs	r1, r8, r0, lsl #28
    35a0:	f72525f7 			; <UNDEFINED> instruction: 0xf72525f7
    35a4:	3300f72c 	movwcc	pc, #1836	; 0x72c	; <UNPREDICTABLE>
    35a8:	80802325 	addhi	r2, r0, r5, lsr #6
    35ac:	243240a0 	ldrtcs	r4, [r2], #-160	; 0xffffff60
    35b0:	00000000 	andeq	r0, r0, r0
    35b4:	00038d23 	andeq	r8, r3, r3, lsr #26
    35b8:	00962c00 	addseq	r2, r6, r0, lsl #24
    35bc:	00001800 	andeq	r1, r0, r0, lsl #16
    35c0:	219c0100 	orrscs	r0, ip, r0, lsl #2
    35c4:	15000006 	strne	r0, [r0, #-6]
    35c8:	0000039a 	muleq	r0, sl, r3
    35cc:	00002808 	andeq	r2, r0, r8, lsl #16
    35d0:	00002802 	andeq	r2, r0, r2, lsl #16
    35d4:	00964016 	addseq	r4, r6, r6, lsl r0
    35d8:	00066a00 	andeq	r6, r6, r0, lsl #20
    35dc:	50011200 	andpl	r1, r1, r0, lsl #4
    35e0:	001c0c05 	andseq	r0, ip, r5, lsl #24
    35e4:	01122020 	tsteq	r2, r0, lsr #32
    35e8:	f3310551 	vqrshl.u64	q0, <illegal reg q0.5>, <illegal reg q0.5>
    35ec:	00245001 	eoreq	r5, r4, r1
    35f0:	03732300 	cmneq	r3, #0, 6
    35f4:	96440000 	strbls	r0, [r4], -r0
    35f8:	00180000 	andseq	r0, r8, r0
    35fc:	9c010000 	stcls	0, cr0, [r1], {-0}
    3600:	0000065e 	andeq	r0, r0, lr, asr r6
    3604:	00038015 	andeq	r8, r3, r5, lsl r0
    3608:	00283a00 	eoreq	r3, r8, r0, lsl #20
    360c:	00283400 	eoreq	r3, r8, r0, lsl #8
    3610:	96581600 	ldrbls	r1, [r8], -r0, lsl #12
    3614:	066a0000 	strbteq	r0, [sl], -r0
    3618:	01120000 	tsteq	r2, r0
    361c:	280c0550 	stmdacs	ip, {r4, r6, r8, sl}
    3620:	12202000 	eorne	r2, r0, #0, 0
    3624:	31055101 	tstcc	r5, r1, lsl #2
    3628:	245001f3 	ldrbcs	r0, [r0], #-499	; 0xfffffe0d
    362c:	7d240000 	stcvc	0, cr0, [r4, #-0]
    3630:	7d000005 	stcvc	0, cr0, [r0, #-20]	; 0xffffffec
    3634:	02000005 	andeq	r0, r0, #5, 0
    3638:	e9240ac2 	stmdb	r4!, {r1, r6, r7, r9, fp}
    363c:	e9000004 	stmdb	r0, {r2}
    3640:	02000004 	andeq	r0, r0, #4, 0
    3644:	400006ad 	andmi	r0, r0, sp, lsr #13
    3648:	04000001 	streq	r0, [r0], #-1
    364c:	00139900 	andseq	r9, r3, r0, lsl #18
    3650:	1f010400 	svcne	0x00010400
    3654:	0c000002 	stceq	0, cr0, [r0], {2}
    3658:	0000096b 	andeq	r0, r0, fp, ror #18
    365c:	000002f6 	strdeq	r0, [r0], -r6
    3660:	0000970c 	andeq	r9, r0, ip, lsl #14
    3664:	00000078 	andeq	r0, r0, r8, ror r0
    3668:	00001be9 	andeq	r1, r0, r9, ror #23
    366c:	69050402 	stmdbvs	r5, {r1, sl}
    3670:	0300746e 	movweq	r7, #1134	; 0x46e
    3674:	00000964 	andeq	r0, r0, r4, ror #18
    3678:	3817d103 	ldmdacc	r7, {r0, r1, r8, ip, lr, pc}
    367c:	04000000 	streq	r0, [r0], #-0
    3680:	006c0704 	rsbeq	r0, ip, r4, lsl #14
    3684:	01040000 	mrseq	r0, (UNDEF: 4)
    3688:	00000a06 	andeq	r0, r0, r6, lsl #20
    368c:	05020400 	streq	r0, [r2, #-1024]	; 0xfffffc00
    3690:	000000ca 	andeq	r0, r0, sl, asr #1
    3694:	7e050404 	cdpvc	4, 0, cr0, cr5, cr4, {0}
    3698:	04000000 	streq	r0, [r0], #-0
    369c:	00790508 	rsbseq	r0, r9, r8, lsl #10
    36a0:	01040000 	mrseq	r0, (UNDEF: 4)
    36a4:	00000808 	andeq	r0, r0, r8, lsl #16
    36a8:	07020400 	streq	r0, [r2, -r0, lsl #8]
    36ac:	00000023 	andeq	r0, r0, r3, lsr #32
    36b0:	67070404 	strvs	r0, [r7, -r4, lsl #8]
    36b4:	04000000 	streq	r0, [r0], #-0
    36b8:	00620708 	rsbeq	r0, r2, r8, lsl #14
    36bc:	25050000 	strcs	r0, [r5, #-0]
    36c0:	86000000 	strhi	r0, [r0], -r0
    36c4:	06000000 	streq	r0, [r0], -r0
    36c8:	00000025 	andeq	r0, r0, r5, lsr #32
    36cc:	00870700 	addeq	r0, r7, r0, lsl #14
    36d0:	1c020000 	stcne	0, cr0, [r2], {-0}
    36d4:	0000920e 	andeq	r9, r0, lr, lsl #4
    36d8:	77040800 	strvc	r0, [r4, -r0, lsl #16]
    36dc:	05000000 	streq	r0, [r0, #-0]
    36e0:	00000025 	andeq	r0, r0, r5, lsr #32
    36e4:	000000a7 	andeq	r0, r0, r7, lsr #1
    36e8:	0000a706 	andeq	sl, r0, r6, lsl #14
    36ec:	04080000 	streq	r0, [r8], #-0
    36f0:	000000b4 	strheq	r0, [r0], -r4
    36f4:	11080104 	tstne	r8, r4, lsl #2
    36f8:	09000000 	stmdbeq	r0, {}	; <UNPREDICTABLE>
    36fc:	000000ad 	andeq	r0, r0, sp, lsr #1
    3700:	00032107 	andeq	r2, r3, r7, lsl #2
    3704:	0e210200 	cdpeq	2, 2, cr0, cr1, cr0, {0}
    3708:	000000c5 	andeq	r0, r0, r5, asr #1
    370c:	00980408 	addseq	r0, r8, r8, lsl #8
    3710:	1b0a0000 	blne	283718 <__bss_end__+0x2795f8>
    3714:	01000008 	tsteq	r0, r8
    3718:	013b0704 	teqeq	fp, r4, lsl #14
    371c:	970c0000 	strls	r0, [ip, -r0]
    3720:	00780000 	rsbseq	r0, r8, r0
    3724:	9c010000 	stcls	0, cr0, [r1], {-0}
    3728:	0000013b 	andeq	r0, r0, fp, lsr r1
    372c:	00705f0b 	rsbseq	r5, r0, fp, lsl #30
    3730:	3b140401 	blcc	50473c <__bss_end__+0x4fa61c>
    3734:	01000001 	tsteq	r0, r1
    3738:	00630c50 	rsbeq	r0, r3, r0, asr ip
    373c:	251c0401 	ldrcs	r0, [ip, #-1025]	; 0xfffffbff
    3740:	6a000000 	bvs	3748 <__code_start__-0x48b8>
    3744:	66000028 	strvs	r0, [r0], -r8, lsr #32
    3748:	0c000028 	stceq	0, cr0, [r0], {40}	; 0x28
    374c:	0401006e 	streq	r0, [r1], #-110	; 0xffffff92
    3750:	00002c26 	andeq	r2, r0, r6, lsr #24
    3754:	00288f00 	eoreq	r8, r8, r0, lsl #30
    3758:	00288b00 	eoreq	r8, r8, r0, lsl #22
    375c:	00700d00 	rsbseq	r0, r0, r0, lsl #26
    3760:	3d0b0501 	cfstr32cc	mvfx0, [fp, #-4]
    3764:	be000001 	cdplt	0, 0, cr0, cr0, cr1, {0}
    3768:	b0000028 	andlt	r0, r0, r8, lsr #32
    376c:	0d000028 	stceq	0, cr0, [r0, #-160]	; 0xffffff60
    3770:	05010065 	streq	r0, [r1, #-101]	; 0xffffff9b
    3774:	00013d14 	andeq	r3, r1, r4, lsl sp
    3778:	00291b00 	eoreq	r1, r9, r0, lsl #22
    377c:	00291900 	eoreq	r1, r9, r0, lsl #18
    3780:	040e0000 	streq	r0, [lr], #-0
    3784:	00ad0408 	adceq	r0, sp, r8, lsl #8
    3788:	49000000 	stmdbmi	r0, {}	; <UNPREDICTABLE>
    378c:	04000001 	streq	r0, [r0], #-1
    3790:	00146500 	andseq	r6, r4, r0, lsl #10
    3794:	1f010400 	svcne	0x00010400
    3798:	0c000002 	stceq	0, cr0, [r0], {2}
    379c:	00000999 	muleq	r0, r9, r9
    37a0:	000002f6 	strdeq	r0, [r0], -r6
    37a4:	00009784 	andeq	r9, r0, r4, lsl #15
    37a8:	0000003c 	andeq	r0, r0, ip, lsr r0
    37ac:	00001d0e 	andeq	r1, r0, lr, lsl #26
    37b0:	69050402 	stmdbvs	r5, {r1, sl}
    37b4:	0300746e 	movweq	r7, #1134	; 0x46e
    37b8:	006c0704 	rsbeq	r0, ip, r4, lsl #14
    37bc:	01030000 	mrseq	r0, (UNDEF: 3)
    37c0:	00000a06 	andeq	r0, r0, r6, lsl #20
    37c4:	05020300 	streq	r0, [r2, #-768]	; 0xfffffd00
    37c8:	000000ca 	andeq	r0, r0, sl, asr #1
    37cc:	7e050403 	cdpvc	4, 0, cr0, cr5, cr3, {0}
    37d0:	03000000 	movweq	r0, #0
    37d4:	00790508 	rsbseq	r0, r9, r8, lsl #10
    37d8:	01030000 	mrseq	r0, (UNDEF: 3)
    37dc:	00000808 	andeq	r0, r0, r8, lsl #16
    37e0:	07020300 	streq	r0, [r2, -r0, lsl #6]
    37e4:	00000023 	andeq	r0, r0, r3, lsr #32
    37e8:	67070403 	strvs	r0, [r7, -r3, lsl #8]
    37ec:	03000000 	movweq	r0, #0
    37f0:	00620708 	rsbeq	r0, r2, r8, lsl #14
    37f4:	25040000 	strcs	r0, [r4, #-0]
    37f8:	7a000000 	bvc	3800 <__code_start__-0x4800>
    37fc:	05000000 	streq	r0, [r0, #-0]
    3800:	00000025 	andeq	r0, r0, r5, lsr #32
    3804:	00870600 	addeq	r0, r7, r0, lsl #12
    3808:	1c020000 	stcne	0, cr0, [r2], {-0}
    380c:	0000860e 	andeq	r8, r0, lr, lsl #12
    3810:	6b040700 	blvs	105418 <__bss_end__+0xfb2f8>
    3814:	04000000 	streq	r0, [r0], #-0
    3818:	00000025 	andeq	r0, r0, r5, lsr #32
    381c:	0000009b 	muleq	r0, fp, r0
    3820:	00009b05 	andeq	r9, r0, r5, lsl #22
    3824:	04070000 	streq	r0, [r7], #-0
    3828:	000000a8 	andeq	r0, r0, r8, lsr #1
    382c:	11080103 	tstne	r8, r3, lsl #2
    3830:	08000000 	stmdaeq	r0, {}	; <UNPREDICTABLE>
    3834:	000000a1 	andeq	r0, r0, r1, lsr #1
    3838:	00032106 	andeq	r2, r3, r6, lsl #2
    383c:	0e210200 	cdpeq	2, 2, cr0, cr1, cr0, {0}
    3840:	000000b9 	strheq	r0, [r0], -r9
    3844:	008c0407 	addeq	r0, ip, r7, lsl #8
    3848:	7a090000 	bvc	243850 <__bss_end__+0x239730>
    384c:	01000000 	mrseq	r0, (UNDEF: 0)
    3850:	03050706 	movweq	r0, #22278	; 0x5706
    3854:	00009d00 	andeq	r9, r0, r0, lsl #26
    3858:	00098c0a 	andeq	r8, r9, sl, lsl #24
    385c:	060b0100 	streq	r0, [fp], -r0, lsl #2
    3860:	000097b0 			; <UNDEFINED> instruction: 0x000097b0
    3864:	00000010 	andeq	r0, r0, r0, lsl r0
    3868:	00f19c01 	rscseq	r9, r1, r1, lsl #24
    386c:	660b0000 	strvs	r0, [fp], -r0
    3870:	0b010070 	bleq	43a38 <__bss_end__+0x39918>
    3874:	00008619 	andeq	r8, r0, r9, lsl r6
    3878:	00500100 	subseq	r0, r0, r0, lsl #2
    387c:	0008ad0c 	andeq	sl, r8, ip, lsl #26
    3880:	06080100 	streq	r0, [r8], -r0, lsl #2
    3884:	00009798 	muleq	r0, r8, r7
    3888:	00000018 	andeq	r0, r0, r8, lsl r0
    388c:	7b0d9c01 	blvc	36a898 <__bss_end__+0x360778>
    3890:	01000009 	tsteq	r0, r9
    3894:	00250c03 	eoreq	r0, r5, r3, lsl #24
    3898:	97840000 	strls	r0, [r4, r0]
    389c:	00140000 	andseq	r0, r4, r0
    38a0:	9c010000 	stcls	0, cr0, [r1], {-0}
    38a4:	00000140 	andeq	r0, r0, r0, asr #2
    38a8:	0100630e 	tsteq	r0, lr, lsl #6
    38ac:	00252103 	eoreq	r2, r5, r3, lsl #2
    38b0:	29320000 	ldmdbcs	r2!, {}	; <UNPREDICTABLE>
    38b4:	292e0000 	stmdbcs	lr!, {}	; <UNPREDICTABLE>
    38b8:	900f0000 	andls	r0, pc, r0
    38bc:	40000097 	mulmi	r0, r7, r0
    38c0:	10000001 	andne	r0, r0, r1
    38c4:	74025001 	strvc	r5, [r2], #-1
    38c8:	11000000 	mrsne	r0, (UNDEF: 0)
    38cc:	0000078e 	andeq	r0, r0, lr, lsl #15
    38d0:	0000078e 	andeq	r0, r0, lr, lsl #15
    38d4:	00064202 	andeq	r4, r6, r2, lsl #4
    38d8:	00000137 	andeq	r0, r0, r7, lsr r1
    38dc:	15740004 	ldrbne	r0, [r4, #-4]!
    38e0:	01040000 	mrseq	r0, (UNDEF: 4)
    38e4:	0000021f 	andeq	r0, r0, pc, lsl r2
    38e8:	0009aa0c 	andeq	sl, r9, ip, lsl #20
    38ec:	0002f600 	andeq	pc, r2, r0, lsl #12
    38f0:	0097c000 	addseq	ip, r7, r0
    38f4:	00002c00 	andeq	r2, r0, r0, lsl #24
    38f8:	001db000 	andseq	fp, sp, r0
    38fc:	05040200 	streq	r0, [r4, #-512]	; 0xfffffe00
    3900:	00746e69 	rsbseq	r6, r4, r9, ror #28
    3904:	6c070403 	cfstrsvs	mvf0, [r7], {3}
    3908:	03000000 	movweq	r0, #0
    390c:	000a0601 	andeq	r0, sl, r1, lsl #12
    3910:	02030000 	andeq	r0, r3, #0, 0
    3914:	0000ca05 	andeq	ip, r0, r5, lsl #20
    3918:	05040300 	streq	r0, [r4, #-768]	; 0xfffffd00
    391c:	0000007e 	andeq	r0, r0, lr, ror r0
    3920:	79050803 	stmdbvc	r5, {r0, r1, fp}
    3924:	03000000 	movweq	r0, #0
    3928:	00080801 	andeq	r0, r8, r1, lsl #16
    392c:	02030000 	andeq	r0, r3, #0, 0
    3930:	00002307 	andeq	r2, r0, r7, lsl #6
    3934:	07040300 	streq	r0, [r4, -r0, lsl #6]
    3938:	00000067 	andeq	r0, r0, r7, rrx
    393c:	62070803 	andvs	r0, r7, #196608	; 0x30000
    3940:	04000000 	streq	r0, [r0], #-0
    3944:	00000025 	andeq	r0, r0, r5, lsr #32
    3948:	0000007a 	andeq	r0, r0, sl, ror r0
    394c:	00002505 	andeq	r2, r0, r5, lsl #10
    3950:	87060000 	strhi	r0, [r6, -r0]
    3954:	02000000 	andeq	r0, r0, #0, 0
    3958:	00860e1c 	addeq	r0, r6, ip, lsl lr
    395c:	04070000 	streq	r0, [r7], #-0
    3960:	0000006b 	andeq	r0, r0, fp, rrx
    3964:	00002504 	andeq	r2, r0, r4, lsl #10
    3968:	00009b00 	andeq	r9, r0, r0, lsl #22
    396c:	009b0500 	addseq	r0, fp, r0, lsl #10
    3970:	07000000 	streq	r0, [r0, -r0]
    3974:	0000a804 	andeq	sl, r0, r4, lsl #16
    3978:	08010300 	stmdaeq	r1, {r8, r9}
    397c:	00000011 	andeq	r0, r0, r1, lsl r0
    3980:	0000a108 	andeq	sl, r0, r8, lsl #2
    3984:	03210600 			; <UNDEFINED> instruction: 0x03210600
    3988:	21020000 	mrscs	r0, (UNDEF: 2)
    398c:	0000b90e 	andeq	fp, r0, lr, lsl #18
    3990:	8c040700 	stchi	7, cr0, [r4], {-0}
    3994:	09000000 	stmdbeq	r0, {}	; <UNPREDICTABLE>
    3998:	000003cd 	andeq	r0, r0, sp, asr #7
    399c:	34070401 	strcc	r0, [r7], #-1025	; 0xfffffbff
    39a0:	c0000001 	andgt	r0, r0, r1
    39a4:	2c000097 	stccs	0, cr0, [r0], {151}	; 0x97
    39a8:	01000000 	mrseq	r0, (UNDEF: 0)
    39ac:	0001349c 	muleq	r1, ip, r4
    39b0:	09ba0a00 	ldmibeq	sl!, {r9, fp}
    39b4:	04010000 	streq	r0, [r1], #-0
    39b8:	00013415 	andeq	r3, r1, r5, lsl r4
    39bc:	0b500100 	bleq	1403dc4 <__bss_end__+0x13f9ca4>
    39c0:	00637273 	rsbeq	r7, r3, r3, ror r2
    39c4:	9b270401 	blls	9c49d0 <__bss_end__+0x9ba8b0>
    39c8:	54000000 	strpl	r0, [r0], #-0
    39cc:	50000029 	andpl	r0, r0, r9, lsr #32
    39d0:	0c000029 	stceq	0, cr0, [r0], {41}	; 0x29
    39d4:	01003173 	tsteq	r0, r3, ror r1
    39d8:	01340b05 	teqeq	r4, r5, lsl #22
    39dc:	29830000 	stmibcs	r3, {}	; <UNPREDICTABLE>
    39e0:	29750000 	ldmdbcs	r5!, {}^	; <UNPREDICTABLE>
    39e4:	730c0000 	movwvc	r0, #49152	; 0xc000
    39e8:	06010032 			; <UNDEFINED> instruction: 0x06010032
    39ec:	00009b11 	andeq	r9, r0, r1, lsl fp
    39f0:	0029e200 	eoreq	lr, r9, r0, lsl #4
    39f4:	0029dc00 	eoreq	sp, r9, r0, lsl #24
    39f8:	00630c00 	rsbeq	r0, r3, r0, lsl #24
    39fc:	a10a0701 	tstge	sl, r1, lsl #14
    3a00:	13000000 	movwne	r0, #0
    3a04:	0d00002a 	stceq	0, cr0, [r0, #-168]	; 0xffffff58
    3a08:	0000002a 	andeq	r0, r0, sl, lsr #32
    3a0c:	00a10407 	adceq	r0, r1, r7, lsl #8
    3a10:	f7000000 			; <UNDEFINED> instruction: 0xf7000000
    3a14:	04000000 	streq	r0, [r0], #-0
    3a18:	00162a00 	andseq	r2, r6, r0, lsl #20
    3a1c:	1f010400 	svcne	0x00010400
    3a20:	0c000002 	stceq	0, cr0, [r0], {2}
    3a24:	000009bf 			; <UNDEFINED> instruction: 0x000009bf
    3a28:	000002f6 	strdeq	r0, [r0], -r6
    3a2c:	000097ec 	andeq	r9, r0, ip, ror #15
    3a30:	00000044 	andeq	r0, r0, r4, asr #32
    3a34:	00001e96 	muleq	r0, r6, lr
    3a38:	69050402 	stmdbvs	r5, {r1, sl}
    3a3c:	0300746e 	movweq	r7, #1134	; 0x46e
    3a40:	006c0704 	rsbeq	r0, ip, r4, lsl #14
    3a44:	01030000 	mrseq	r0, (UNDEF: 3)
    3a48:	00000a06 	andeq	r0, r0, r6, lsl #20
    3a4c:	05020300 	streq	r0, [r2, #-768]	; 0xfffffd00
    3a50:	000000ca 	andeq	r0, r0, sl, asr #1
    3a54:	7e050403 	cdpvc	4, 0, cr0, cr5, cr3, {0}
    3a58:	03000000 	movweq	r0, #0
    3a5c:	00790508 	rsbseq	r0, r9, r8, lsl #10
    3a60:	01030000 	mrseq	r0, (UNDEF: 3)
    3a64:	00000808 	andeq	r0, r0, r8, lsl #16
    3a68:	07020300 	streq	r0, [r2, -r0, lsl #6]
    3a6c:	00000023 	andeq	r0, r0, r3, lsr #32
    3a70:	67070403 	strvs	r0, [r7, -r3, lsl #8]
    3a74:	03000000 	movweq	r0, #0
    3a78:	00620708 	rsbeq	r0, r2, r8, lsl #14
    3a7c:	25040000 	strcs	r0, [r4, #-0]
    3a80:	7a000000 	bvc	3a88 <__code_start__-0x4578>
    3a84:	05000000 	streq	r0, [r0, #-0]
    3a88:	00000025 	andeq	r0, r0, r5, lsr #32
    3a8c:	00870600 	addeq	r0, r7, r0, lsl #12
    3a90:	1c020000 	stcne	0, cr0, [r2], {-0}
    3a94:	0000860e 	andeq	r8, r0, lr, lsl #12
    3a98:	6b040700 	blvs	1056a0 <__bss_end__+0xfb580>
    3a9c:	04000000 	streq	r0, [r0], #-0
    3aa0:	00000025 	andeq	r0, r0, r5, lsr #32
    3aa4:	0000009b 	muleq	r0, fp, r0
    3aa8:	00009b05 	andeq	r9, r0, r5, lsl #22
    3aac:	04070000 	streq	r0, [r7], #-0
    3ab0:	000000a8 	andeq	r0, r0, r8, lsr #1
    3ab4:	11080103 	tstne	r8, r3, lsl #2
    3ab8:	08000000 	stmdaeq	r0, {}	; <UNPREDICTABLE>
    3abc:	000000a1 	andeq	r0, r0, r1, lsr #1
    3ac0:	00032106 	andeq	r2, r3, r6, lsl #2
    3ac4:	0e210200 	cdpeq	2, 2, cr0, cr1, cr0, {0}
    3ac8:	000000b9 	strheq	r0, [r0], -r9
    3acc:	008c0407 	addeq	r0, ip, r7, lsl #8
    3ad0:	fb090000 	blx	243ada <__bss_end__+0x2399ba>
    3ad4:	01000003 	tsteq	r0, r3
    3ad8:	00250503 	eoreq	r0, r5, r3, lsl #10
    3adc:	97ec0000 	strbls	r0, [ip, r0]!
    3ae0:	00440000 	subeq	r0, r4, r0
    3ae4:	9c010000 	stcls	0, cr0, [r1], {-0}
    3ae8:	0100610a 	tsteq	r0, sl, lsl #2
    3aec:	009b1803 	addseq	r1, fp, r3, lsl #16
    3af0:	2a4a0000 	bcs	1283af8 <__bss_end__+0x12799d8>
    3af4:	2a3e0000 	bcs	f83afc <__bss_end__+0xf799dc>
    3af8:	620a0000 	andvs	r0, sl, #0, 0
    3afc:	27030100 	strcs	r0, [r3, -r0, lsl #2]
    3b00:	0000009b 	muleq	r0, fp, r0
    3b04:	00002a9e 	muleq	r0, lr, sl
    3b08:	00002a98 	muleq	r0, r8, sl
    3b0c:	010f0000 	mrseq	r0, CPSR
    3b10:	00040000 	andeq	r0, r4, r0
    3b14:	000016b9 			; <UNDEFINED> instruction: 0x000016b9
    3b18:	021f0104 	andseq	r0, pc, #1
    3b1c:	cf0c0000 	svcgt	0x000c0000
    3b20:	f6000009 			; <UNDEFINED> instruction: 0xf6000009
    3b24:	30000002 	andcc	r0, r0, r2
    3b28:	18000098 	stmdane	r0, {r3, r4, r7}
    3b2c:	4c000000 	stcmi	0, cr0, [r0], {-0}
    3b30:	0200001f 	andeq	r0, r0, #31, 0
    3b34:	6e690504 	cdpvs	5, 6, cr0, cr9, cr4, {0}
    3b38:	04030074 	streq	r0, [r3], #-116	; 0xffffff8c
    3b3c:	00006c07 	andeq	r6, r0, r7, lsl #24
    3b40:	06010300 	streq	r0, [r1], -r0, lsl #6
    3b44:	0000000a 	andeq	r0, r0, sl
    3b48:	ca050203 	bgt	14435c <__bss_end__+0x13a23c>
    3b4c:	03000000 	movweq	r0, #0
    3b50:	007e0504 	rsbseq	r0, lr, r4, lsl #10
    3b54:	08030000 	stmdaeq	r3, {}	; <UNPREDICTABLE>
    3b58:	00007905 	andeq	r7, r0, r5, lsl #18
    3b5c:	08010300 	stmdaeq	r1, {r8, r9}
    3b60:	00000008 	andeq	r0, r0, r8
    3b64:	23070203 	movwcs	r0, #29187	; 0x7203
    3b68:	03000000 	movweq	r0, #0
    3b6c:	00670704 	rsbeq	r0, r7, r4, lsl #14
    3b70:	08030000 	stmdaeq	r3, {}	; <UNPREDICTABLE>
    3b74:	00006207 	andeq	r6, r0, r7, lsl #4
    3b78:	00250400 	eoreq	r0, r5, r0, lsl #8
    3b7c:	007a0000 	rsbseq	r0, sl, r0
    3b80:	25050000 	strcs	r0, [r5, #-0]
    3b84:	00000000 	andeq	r0, r0, r0
    3b88:	00008706 	andeq	r8, r0, r6, lsl #14
    3b8c:	0e1c0200 	cdpeq	2, 1, cr0, cr12, cr0, {0}
    3b90:	00000086 	andeq	r0, r0, r6, lsl #1
    3b94:	006b0407 	rsbeq	r0, fp, r7, lsl #8
    3b98:	25040000 	strcs	r0, [r4, #-0]
    3b9c:	9b000000 	blls	3ba4 <__code_start__-0x445c>
    3ba0:	05000000 	streq	r0, [r0, #-0]
    3ba4:	0000009b 	muleq	r0, fp, r0
    3ba8:	a8040700 	stmdage	r4, {r8, r9, sl}
    3bac:	03000000 	movweq	r0, #0
    3bb0:	00110801 	andseq	r0, r1, r1, lsl #16
    3bb4:	a1080000 	mrsge	r0, (UNDEF: 8)
    3bb8:	06000000 	streq	r0, [r0], -r0
    3bbc:	00000321 	andeq	r0, r0, r1, lsr #6
    3bc0:	b90e2102 	stmdblt	lr, {r1, r8, sp}
    3bc4:	07000000 	streq	r0, [r0, -r0]
    3bc8:	00008c04 	andeq	r8, r0, r4, lsl #24
    3bcc:	03d40900 	bicseq	r0, r4, #0, 18
    3bd0:	03010000 	movweq	r0, #4096	; 0x1000
    3bd4:	00010c07 	andeq	r0, r1, r7, lsl #24
    3bd8:	00983000 	addseq	r3, r8, r0
    3bdc:	00001800 	andeq	r1, r0, r0, lsl #16
    3be0:	0c9c0100 	ldfeqs	f0, [ip], {0}
    3be4:	0a000001 	beq	3bf0 <__code_start__-0x4410>
    3be8:	01003173 	tsteq	r0, r3, ror r1
    3bec:	010c1503 	tsteq	ip, r3, lsl #10
    3bf0:	50010000 	andpl	r0, r1, r0
    3bf4:	0032730b 	eorseq	r7, r2, fp, lsl #6
    3bf8:	9b260301 	blls	984804 <__bss_end__+0x97a6e4>
    3bfc:	cd000000 	stcgt	0, cr0, [r0, #-0]
    3c00:	c700002a 	strgt	r0, [r0, -sl, lsr #32]
    3c04:	0c00002a 	stceq	0, cr0, [r0], {42}	; 0x2a
    3c08:	04010073 	streq	r0, [r1], #-115	; 0xffffff8d
    3c0c:	00010c14 	andeq	r0, r1, r4, lsl ip
    3c10:	002afa00 	eoreq	pc, sl, r0, lsl #20
    3c14:	002af800 	eoreq	pc, sl, r0, lsl #16
    3c18:	04070000 	streq	r0, [r7], #-0
    3c1c:	000000a1 	andeq	r0, r0, r1, lsr #1
    3c20:	00014e00 	andeq	r4, r1, r0, lsl #28
    3c24:	6f000400 	svcvs	0x00000400
    3c28:	04000017 	streq	r0, [r0], #-23	; 0xffffffe9
    3c2c:	00021f01 	andeq	r1, r2, r1, lsl #30
    3c30:	09df0c00 	ldmibeq	pc, {sl, fp}^	; <UNPREDICTABLE>
    3c34:	02f60000 	rscseq	r0, r6, #0, 0
    3c38:	98480000 	stmdals	r8, {}^	; <UNPREDICTABLE>
    3c3c:	00300000 	eorseq	r0, r0, r0
    3c40:	1fed0000 	svcne	0x00ed0000
    3c44:	04020000 	streq	r0, [r2], #-0
    3c48:	746e6905 	strbtvc	r6, [lr], #-2309	; 0xfffff6fb
    3c4c:	09640300 	stmdbeq	r4!, {r8, r9}^
    3c50:	d1030000 	mrsle	r0, (UNDEF: 3)
    3c54:	00003817 	andeq	r3, r0, r7, lsl r8
    3c58:	07040400 	streq	r0, [r4, -r0, lsl #8]
    3c5c:	0000006c 	andeq	r0, r0, ip, rrx
    3c60:	0a060104 	beq	184078 <__bss_end__+0x179f58>
    3c64:	04000000 	streq	r0, [r0], #-0
    3c68:	00ca0502 	sbceq	r0, sl, r2, lsl #10
    3c6c:	04040000 	streq	r0, [r4], #-0
    3c70:	00007e05 	andeq	r7, r0, r5, lsl #28
    3c74:	05080400 	streq	r0, [r8, #-1024]	; 0xfffffc00
    3c78:	00000079 	andeq	r0, r0, r9, ror r0
    3c7c:	08080104 	stmdaeq	r8, {r2, r8}
    3c80:	05000000 	streq	r0, [r0, #-0]
    3c84:	0000005b 	andeq	r0, r0, fp, asr r0
    3c88:	23070204 	movwcs	r0, #29188	; 0x7204
    3c8c:	04000000 	streq	r0, [r0], #-0
    3c90:	00670704 	rsbeq	r0, r7, r4, lsl #14
    3c94:	08040000 	stmdaeq	r4, {}	; <UNPREDICTABLE>
    3c98:	00006207 	andeq	r6, r0, r7, lsl #4
    3c9c:	00250600 	eoreq	r0, r5, r0, lsl #12
    3ca0:	008b0000 	addeq	r0, fp, r0
    3ca4:	25070000 	strcs	r0, [r7, #-0]
    3ca8:	00000000 	andeq	r0, r0, r0
    3cac:	00008708 	andeq	r8, r0, r8, lsl #14
    3cb0:	0e1c0200 	cdpeq	2, 1, cr0, cr12, cr0, {0}
    3cb4:	00000097 	muleq	r0, r7, r0
    3cb8:	007c0409 	rsbseq	r0, ip, r9, lsl #8
    3cbc:	25060000 	strcs	r0, [r6, #-0]
    3cc0:	ac000000 	stcge	0, cr0, [r0], {-0}
    3cc4:	07000000 	streq	r0, [r0, -r0]
    3cc8:	000000ac 	andeq	r0, r0, ip, lsr #1
    3ccc:	b9040900 	stmdblt	r4, {r8, fp}
    3cd0:	04000000 	streq	r0, [r0], #-0
    3cd4:	00110801 	andseq	r0, r1, r1, lsl #16
    3cd8:	b2050000 	andlt	r0, r5, #0, 0
    3cdc:	08000000 	stmdaeq	r0, {}	; <UNPREDICTABLE>
    3ce0:	00000321 	andeq	r0, r0, r1, lsr #6
    3ce4:	ca0e2102 	bgt	38c0f4 <__bss_end__+0x381fd4>
    3ce8:	09000000 	stmdbeq	r0, {}	; <UNPREDICTABLE>
    3cec:	00009d04 	andeq	r9, r0, r4, lsl #26
    3cf0:	042b0a00 	strteq	r0, [fp], #-2560	; 0xfffff600
    3cf4:	04010000 	streq	r0, [r1], #-0
    3cf8:	00002505 	andeq	r2, r0, r5, lsl #10
    3cfc:	00984800 	addseq	r4, r8, r0, lsl #16
    3d00:	00003000 	andeq	r3, r0, r0
    3d04:	4b9c0100 	blmi	fe70410c <__bss_end__+0xfe6f9fec>
    3d08:	0b000001 	bleq	3d14 <__code_start__-0x42ec>
    3d0c:	0031735f 	eorseq	r7, r1, pc, asr r3
    3d10:	ac190401 	cfldrsge	mvf0, [r9], {1}
    3d14:	11000000 	mrsne	r0, (UNDEF: 0)
    3d18:	0d00002b 	stceq	0, cr0, [r0, #-172]	; 0xffffff54
    3d1c:	0b00002b 	bleq	3dd0 <__code_start__-0x4230>
    3d20:	0032735f 	eorseq	r7, r2, pc, asr r3
    3d24:	ac2a0401 	cfstrsge	mvf0, [sl], #-4
    3d28:	36000000 	strcc	r0, [r0], -r0
    3d2c:	3200002b 	andcc	r0, r0, #43, 0	; 0x2b
    3d30:	0b00002b 	bleq	3de4 <__code_start__-0x421c>
    3d34:	0401006e 	streq	r0, [r1], #-110	; 0xffffff92
    3d38:	00002c36 	andeq	r2, r0, r6, lsr ip
    3d3c:	002b6100 	eoreq	r6, fp, r0, lsl #2
    3d40:	002b5700 	eoreq	r5, fp, r0, lsl #14
    3d44:	31730c00 	cmncc	r3, r0, lsl #24
    3d48:	1a050100 	bne	144150 <__bss_end__+0x13a030>
    3d4c:	0000014b 	andeq	r0, r0, fp, asr #2
    3d50:	00002bb8 			; <UNDEFINED> instruction: 0x00002bb8
    3d54:	00002bb0 			; <UNDEFINED> instruction: 0x00002bb0
    3d58:	0032730c 	eorseq	r7, r2, ip, lsl #6
    3d5c:	4b2c0501 	blmi	b05168 <__bss_end__+0xafb048>
    3d60:	f6000001 			; <UNDEFINED> instruction: 0xf6000001
    3d64:	f000002b 			; <UNDEFINED> instruction: 0xf000002b
    3d68:	0000002b 	andeq	r0, r0, fp, lsr #32
    3d6c:	00620409 	rsbeq	r0, r2, r9, lsl #8
    3d70:	ce000000 	cdpgt	0, 0, cr0, cr0, cr0, {0}
    3d74:	04000000 	streq	r0, [r0], #-0
    3d78:	00182300 	andseq	r2, r8, r0, lsl #6
    3d7c:	1f010400 	svcne	0x00010400
    3d80:	0c000002 	stceq	0, cr0, [r0], {2}
    3d84:	000009f0 	strdeq	r0, [r0], -r0	; <UNPREDICTABLE>
    3d88:	000002f6 	strdeq	r0, [r0], -r6
    3d8c:	00009878 	andeq	r9, r0, r8, ror r8
    3d90:	00000004 	andeq	r0, r0, r4
    3d94:	000020ee 	andeq	r2, r0, lr, ror #1
    3d98:	69050402 	stmdbvs	r5, {r1, sl}
    3d9c:	0300746e 	movweq	r7, #1134	; 0x46e
    3da0:	006c0704 	rsbeq	r0, ip, r4, lsl #14
    3da4:	01030000 	mrseq	r0, (UNDEF: 3)
    3da8:	00000a06 	andeq	r0, r0, r6, lsl #20
    3dac:	05020300 	streq	r0, [r2, #-768]	; 0xfffffd00
    3db0:	000000ca 	andeq	r0, r0, sl, asr #1
    3db4:	7e050403 	cdpvc	4, 0, cr0, cr5, cr3, {0}
    3db8:	03000000 	movweq	r0, #0
    3dbc:	00790508 	rsbseq	r0, r9, r8, lsl #10
    3dc0:	01030000 	mrseq	r0, (UNDEF: 3)
    3dc4:	00000808 	andeq	r0, r0, r8, lsl #16
    3dc8:	07020300 	streq	r0, [r2, -r0, lsl #6]
    3dcc:	00000023 	andeq	r0, r0, r3, lsr #32
    3dd0:	67070403 	strvs	r0, [r7, -r3, lsl #8]
    3dd4:	03000000 	movweq	r0, #0
    3dd8:	00620708 	rsbeq	r0, r2, r8, lsl #14
    3ddc:	25040000 	strcs	r0, [r4, #-0]
    3de0:	7a000000 	bvc	3de8 <__code_start__-0x4218>
    3de4:	05000000 	streq	r0, [r0, #-0]
    3de8:	00000025 	andeq	r0, r0, r5, lsr #32
    3dec:	00870600 	addeq	r0, r7, r0, lsl #12
    3df0:	1c020000 	stcne	0, cr0, [r2], {-0}
    3df4:	0000860e 	andeq	r8, r0, lr, lsl #12
    3df8:	6b040700 	blvs	105a00 <__bss_end__+0xfb8e0>
    3dfc:	04000000 	streq	r0, [r0], #-0
    3e00:	00000025 	andeq	r0, r0, r5, lsr #32
    3e04:	0000009b 	muleq	r0, fp, r0
    3e08:	00009b05 	andeq	r9, r0, r5, lsl #22
    3e0c:	04070000 	streq	r0, [r7], #-0
    3e10:	000000a8 	andeq	r0, r0, r8, lsr #1
    3e14:	11080103 	tstne	r8, r3, lsl #2
    3e18:	08000000 	stmdaeq	r0, {}	; <UNPREDICTABLE>
    3e1c:	000000a1 	andeq	r0, r0, r1, lsr #1
    3e20:	00032106 	andeq	r2, r3, r6, lsl #2
    3e24:	0e210200 	cdpeq	2, 2, cr0, cr1, cr0, {0}
    3e28:	000000b9 	strheq	r0, [r0], -r9
    3e2c:	008c0407 	addeq	r0, ip, r7, lsl #8
    3e30:	d2090000 	andle	r0, r9, #0, 0
    3e34:	01000004 	tsteq	r0, r4
    3e38:	98780603 	ldmdals	r8!, {r0, r1, r9, sl}^
    3e3c:	00040000 	andeq	r0, r4, r0
    3e40:	9c010000 	stcls	0, cr0, [r1], {-0}
	...

Disassembly of section .debug_abbrev:

00000000 <.debug_abbrev>:
       0:	25011101 	strcs	r1, [r1, #-257]	; 0xfffffeff
       4:	030b130e 	movweq	r1, #45838	; 0xb30e
       8:	110e1b0e 	tstne	lr, lr, lsl #22
       c:	10061201 	andne	r1, r6, r1, lsl #4
      10:	02000017 	andeq	r0, r0, #23, 0
      14:	0b0b0024 	bleq	2c00ac <__bss_end__+0x2b5f8c>
      18:	08030b3e 	stmdaeq	r3, {r1, r2, r3, r4, r5, r8, r9, fp}
      1c:	24030000 	strcs	r0, [r3], #-0
      20:	3e0b0b00 	vmlacc.f64	d0, d11, d0
      24:	000e030b 	andeq	r0, lr, fp, lsl #6
      28:	01150400 	tsteq	r5, r0, lsl #8
      2c:	13491927 	movtne	r1, #39207	; 0x9927
      30:	00001301 	andeq	r1, r0, r1, lsl #6
      34:	49000505 	stmdbmi	r0, {r0, r2, r8, sl}
      38:	06000013 			; <UNDEFINED> instruction: 0x06000013
      3c:	0e030034 	mcreq	0, 0, r0, cr3, cr4, {1}
      40:	0b3b0b3a 	bleq	ec2d30 <__bss_end__+0xeb8c10>
      44:	13490b39 	movtne	r0, #39737	; 0x9b39
      48:	193c193f 	ldmdbne	ip!, {r0, r1, r2, r3, r4, r5, r8, fp, ip}
      4c:	0f070000 	svceq	0x00070000
      50:	490b0b00 	stmdbmi	fp, {r8, r9, fp}
      54:	08000013 	stmdaeq	r0, {r0, r1, r4}
      58:	13490026 	movtne	r0, #36902	; 0x9026
      5c:	2e090000 	cdpcs	0, 0, cr0, cr9, cr0, {0}
      60:	03193f01 	tsteq	r9, #1, 30
      64:	3b0b3a0e 	blcc	2ce8a4 <__bss_end__+0x2c4784>
      68:	270b390b 	strcs	r3, [fp, -fp, lsl #18]
      6c:	12011119 	andne	r1, r1, #1073741830	; 0x40000006
      70:	97184006 	ldrls	r4, [r8, -r6]
      74:	13011942 	movwne	r1, #6466	; 0x1942
      78:	040a0000 	streq	r0, [sl], #-0
      7c:	0b0b3e01 	bleq	2cf888 <__bss_end__+0x2c5768>
      80:	3a13490b 	bcc	4d24b4 <__bss_end__+0x4c8394>
      84:	390b3b0b 	stmdbcc	fp, {r0, r1, r3, r8, r9, fp, ip, sp}
      88:	0013010b 	andseq	r0, r3, fp, lsl #2
      8c:	00280b00 	eoreq	r0, r8, r0, lsl #22
      90:	0b1c0e03 	bleq	7038a4 <__bss_end__+0x6f9784>
      94:	340c0000 	strcc	r0, [ip], #-0
      98:	3a080300 	bcc	200ca0 <__bss_end__+0x1f6b80>
      9c:	390b3b0b 	stmdbcc	fp, {r0, r1, r3, r8, r9, fp, ip, sp}
      a0:	0213490b 	andseq	r4, r3, #180224	; 0x2c000
      a4:	1742b717 	smlaldne	fp, r2, r7, r7
      a8:	340d0000 	strcc	r0, [sp], #-0
      ac:	490e0300 	stmdbmi	lr, {r8, r9}
      b0:	02193413 	andseq	r3, r9, #318767104	; 0x13000000
      b4:	0e000018 	mcreq	0, 0, r0, cr0, cr8, {0}
      b8:	0111010b 	tsteq	r1, fp, lsl #2
      bc:	13010612 	movwne	r0, #5650	; 0x1612
      c0:	0b0f0000 	bleq	3c00c8 <__bss_end__+0x3b5fa8>
      c4:	00175501 	andseq	r5, r7, r1, lsl #10
      c8:	82891000 	addhi	r1, r9, #0, 0
      cc:	01110101 	tsteq	r1, r1, lsl #2
      d0:	13011331 	movwne	r1, #4913	; 0x1331
      d4:	8a110000 	bhi	4400dc <__bss_end__+0x435fbc>
      d8:	02000182 	andeq	r0, r0, #-2147483616	; 0x80000020
      dc:	18429118 	stmdane	r2, {r3, r4, r8, ip, pc}^
      e0:	89120000 	ldmdbhi	r2, {}	; <UNPREDICTABLE>
      e4:	11000182 	smlabbne	r0, r2, r1, r0
      e8:	00133101 	andseq	r3, r3, r1, lsl #2
      ec:	82891300 	addhi	r1, r9, #0, 6
      f0:	01110101 	tsteq	r1, r1, lsl #2
      f4:	00001331 	andeq	r1, r0, r1, lsr r3
      f8:	49010114 	stmdbmi	r1, {r2, r4, r8}
      fc:	00130113 	andseq	r0, r3, r3, lsl r1
     100:	00211500 	eoreq	r1, r1, r0, lsl #10
     104:	0b2f1349 	bleq	bc4e30 <__bss_end__+0xbbad10>
     108:	2e160000 	cdpcs	0, 1, cr0, cr6, cr0, {0}
     10c:	3c193f00 	ldccc	15, cr3, [r9], {-0}
     110:	030e6e19 	movweq	r6, #60953	; 0xee19
     114:	3b0b3a0e 	blcc	2ce954 <__bss_end__+0x2c4834>
     118:	000b390b 	andeq	r3, fp, fp, lsl #18
     11c:	11010000 	mrsne	r0, (UNDEF: 1)
     120:	130e2501 	movwne	r2, #58625	; 0xe501
     124:	1b0e030b 	blne	380d58 <__bss_end__+0x376c38>
     128:	1201110e 	andne	r1, r1, #-2147483645	; 0x80000003
     12c:	00171006 	andseq	r1, r7, r6
     130:	00240200 	eoreq	r0, r4, r0, lsl #4
     134:	0b3e0b0b 	bleq	f82d68 <__bss_end__+0xf78c48>
     138:	00000803 	andeq	r0, r0, r3, lsl #16
     13c:	0b002403 	bleq	9150 <uart_putc+0x24>
     140:	030b3e0b 	movweq	r3, #48651	; 0xbe0b
     144:	0400000e 	streq	r0, [r0], #-14
     148:	19270115 	stmdbne	r7!, {r0, r2, r4, r8}
     14c:	13011349 	movwne	r1, #4937	; 0x1349
     150:	05050000 	streq	r0, [r5, #-0]
     154:	00134900 	andseq	r4, r3, r0, lsl #18
     158:	00340600 	eorseq	r0, r4, r0, lsl #12
     15c:	0b3a0e03 	bleq	e83970 <__bss_end__+0xe79850>
     160:	0b390b3b 	bleq	e42e54 <__bss_end__+0xe38d34>
     164:	193f1349 	ldmdbne	pc!, {r0, r3, r6, r8, r9, ip}	; <UNPREDICTABLE>
     168:	0000193c 	andeq	r1, r0, ip, lsr r9
     16c:	0b000f07 	bleq	3d90 <__code_start__-0x4270>
     170:	0013490b 	andseq	r4, r3, fp, lsl #18
     174:	00260800 	eoreq	r0, r6, r0, lsl #16
     178:	00001349 	andeq	r1, r0, r9, asr #6
     17c:	03011709 	movweq	r1, #5897	; 0x1709
     180:	3a0b0b0e 	bcc	2c2dc0 <__bss_end__+0x2b8ca0>
     184:	390b3b0b 	stmdbcc	fp, {r0, r1, r3, r8, r9, fp, ip, sp}
     188:	0013010b 	andseq	r0, r3, fp, lsl #2
     18c:	000d0a00 	andeq	r0, sp, r0, lsl #20
     190:	0b3a0803 	bleq	e821a4 <__bss_end__+0xe78084>
     194:	0b390b3b 	bleq	e42e88 <__bss_end__+0xe38d68>
     198:	00001349 	andeq	r1, r0, r9, asr #6
     19c:	0b000f0b 	bleq	3dd0 <__code_start__-0x4230>
     1a0:	0c00000b 	stceq	0, cr0, [r0], {11}
     1a4:	19270015 	stmdbne	r7!, {r0, r2, r4}
     1a8:	130d0000 	movwne	r0, #53248	; 0xd000
     1ac:	3a0b0b01 	bcc	2c2db8 <__bss_end__+0x2b8c98>
     1b0:	390b3b0b 	stmdbcc	fp, {r0, r1, r3, r8, r9, fp, ip, sp}
     1b4:	0013010b 	andseq	r0, r3, fp, lsl #2
     1b8:	000d0e00 	andeq	r0, sp, r0, lsl #28
     1bc:	0b3a0803 	bleq	e821d0 <__bss_end__+0xe780b0>
     1c0:	0b390b3b 	bleq	e42eb4 <__bss_end__+0xe38d94>
     1c4:	0b381349 	bleq	e04ef0 <__bss_end__+0xdfadd0>
     1c8:	0d0f0000 	stceq	0, cr0, [pc, #-0]	; 1d0 <__code_start__-0x7e30>
     1cc:	3a0e0300 	bcc	380dd4 <__bss_end__+0x376cb4>
     1d0:	390b3b0b 	stmdbcc	fp, {r0, r1, r3, r8, r9, fp, ip, sp}
     1d4:	3813490b 	ldmdacc	r3, {r0, r1, r3, r8, fp, lr}
     1d8:	1000000b 	andne	r0, r0, fp
     1dc:	0e030016 	mcreq	0, 0, r0, cr3, cr6, {0}
     1e0:	0b3b0b3a 	bleq	ec2ed0 <__bss_end__+0xeb8db0>
     1e4:	13490b39 	movtne	r0, #39737	; 0x9b39
     1e8:	34110000 	ldrcc	r0, [r1], #-0
     1ec:	3a0e0300 	bcc	380df4 <__bss_end__+0x376cd4>
     1f0:	390b3b0b 	stmdbcc	fp, {r0, r1, r3, r8, r9, fp, ip, sp}
     1f4:	0213490b 	andseq	r4, r3, #180224	; 0x2c000
     1f8:	12000018 	andne	r0, r0, #24, 0
     1fc:	193f012e 	ldmdbne	pc!, {r1, r2, r3, r5, r8}	; <UNPREDICTABLE>
     200:	0b3a0e03 	bleq	e83a14 <__bss_end__+0xe798f4>
     204:	0b390b3b 	bleq	e42ef8 <__bss_end__+0xe38dd8>
     208:	01111927 	tsteq	r1, r7, lsr #18
     20c:	18400612 	stmdane	r0, {r1, r4, r9, sl}^
     210:	01194297 			; <UNDEFINED> instruction: 0x01194297
     214:	13000013 	movwne	r0, #19
     218:	08030005 	stmdaeq	r3, {r0, r2}
     21c:	0b3b0b3a 	bleq	ec2f0c <__bss_end__+0xeb8dec>
     220:	13490b39 	movtne	r0, #39737	; 0x9b39
     224:	00001802 	andeq	r1, r0, r2, lsl #16
     228:	03003414 	movweq	r3, #1044	; 0x414
     22c:	3b0b3a08 	blcc	2cea54 <__bss_end__+0x2c4934>
     230:	490b390b 	stmdbmi	fp, {r0, r1, r3, r8, fp, ip, sp}
     234:	b7170213 			; <UNDEFINED> instruction: 0xb7170213
     238:	00001742 	andeq	r1, r0, r2, asr #14
     23c:	3f012e15 	svccc	0x00012e15
     240:	3a0e0319 	bcc	380eac <__bss_end__+0x376d8c>
     244:	390b3b0b 	stmdbcc	fp, {r0, r1, r3, r8, r9, fp, ip, sp}
     248:	4919270b 	ldmdbmi	r9, {r0, r1, r3, r8, r9, sl, sp}
     24c:	12011113 	andne	r1, r1, #-1073741820	; 0xc0000004
     250:	97184006 	ldrls	r4, [r8, -r6]
     254:	13011942 	movwne	r1, #6466	; 0x1942
     258:	05160000 	ldreq	r0, [r6, #-0]
     25c:	3a0e0300 	bcc	380e64 <__bss_end__+0x376d44>
     260:	390b3b0b 	stmdbcc	fp, {r0, r1, r3, r8, r9, fp, ip, sp}
     264:	0213490b 	andseq	r4, r3, #180224	; 0x2c000
     268:	1742b717 	smlaldne	fp, r2, r7, r7
     26c:	34170000 	ldrcc	r0, [r7], #-0
     270:	3a0e0300 	bcc	380e78 <__bss_end__+0x376d58>
     274:	390b3b0b 	stmdbcc	fp, {r0, r1, r3, r8, r9, fp, ip, sp}
     278:	0213490b 	andseq	r4, r3, #180224	; 0x2c000
     27c:	1742b717 	smlaldne	fp, r2, r7, r7
     280:	89180000 	ldmdbhi	r8, {}	; <UNPREDICTABLE>
     284:	11010182 	smlabbne	r1, r2, r1, r0
     288:	00133101 	andseq	r3, r3, r1, lsl #2
     28c:	828a1900 	addhi	r1, sl, #0, 18
     290:	18020001 	stmdane	r2, {r0}
     294:	00184291 	mulseq	r8, r1, r2
     298:	012e1a00 			; <UNDEFINED> instruction: 0x012e1a00
     29c:	0b3a0e03 	bleq	e83ab0 <__bss_end__+0xe79990>
     2a0:	0b390b3b 	bleq	e42f94 <__bss_end__+0xe38e74>
     2a4:	13491927 	movtne	r1, #39207	; 0x9927
     2a8:	06120111 			; <UNDEFINED> instruction: 0x06120111
     2ac:	42971840 	addsmi	r1, r7, #64, 16	; 0x400000
     2b0:	00130119 	andseq	r0, r3, r9, lsl r1
     2b4:	00051b00 	andeq	r1, r5, r0, lsl #22
     2b8:	0b3a0803 	bleq	e822cc <__bss_end__+0xe781ac>
     2bc:	0b390b3b 	bleq	e42fb0 <__bss_end__+0xe38e90>
     2c0:	17021349 	strne	r1, [r2, -r9, asr #6]
     2c4:	001742b7 			; <UNDEFINED> instruction: 0x001742b7
     2c8:	82891c00 	addhi	r1, r9, #0, 24
     2cc:	01110101 	tsteq	r1, r1, lsl #2
     2d0:	13011331 	movwne	r1, #4913	; 0x1331
     2d4:	891d0000 	ldmdbhi	sp, {}	; <UNPREDICTABLE>
     2d8:	11000182 	smlabbne	r0, r2, r1, r0
     2dc:	00133101 	andseq	r3, r3, r1, lsl #2
     2e0:	002e1e00 	eoreq	r1, lr, r0, lsl #28
     2e4:	193c193f 	ldmdbne	ip!, {r0, r1, r2, r3, r4, r5, r8, fp, ip}
     2e8:	0e030e6e 	cdpeq	14, 0, cr0, cr3, cr14, {3}
     2ec:	0b3b0b3a 	bleq	ec2fdc <__bss_end__+0xeb8ebc>
     2f0:	00000b39 	andeq	r0, r0, r9, lsr fp
     2f4:	01110100 	tsteq	r1, r0, lsl #2
     2f8:	0b130e25 	bleq	4c3b94 <__bss_end__+0x4b9a74>
     2fc:	0e1b0e03 	cdpeq	14, 1, cr0, cr11, cr3, {0}
     300:	06120111 			; <UNDEFINED> instruction: 0x06120111
     304:	00001710 	andeq	r1, r0, r0, lsl r7
     308:	0b002402 	bleq	9318 <kmalloc_notzero+0x30>
     30c:	030b3e0b 	movweq	r3, #48651	; 0xbe0b
     310:	03000008 	movweq	r0, #8
     314:	0b0b0024 	bleq	2c03ac <__bss_end__+0x2b628c>
     318:	0e030b3e 	vmoveq.16	d3[0], r0
     31c:	15040000 	strne	r0, [r4, #-0]
     320:	49192701 	ldmdbmi	r9, {r0, r8, r9, sl, sp}
     324:	00130113 	andseq	r0, r3, r3, lsl r1
     328:	00050500 	andeq	r0, r5, r0, lsl #10
     32c:	00001349 	andeq	r1, r0, r9, asr #6
     330:	03003406 	movweq	r3, #1030	; 0x406
     334:	3b0b3a0e 	blcc	2ceb74 <__bss_end__+0x2c4a54>
     338:	490b390b 	stmdbmi	fp, {r0, r1, r3, r8, fp, ip, sp}
     33c:	3c193f13 	ldccc	15, cr3, [r9], {19}
     340:	07000019 	smladeq	r0, r9, r0, r0
     344:	0b0b000f 	bleq	2c0388 <__bss_end__+0x2b6268>
     348:	00001349 	andeq	r1, r0, r9, asr #6
     34c:	49002608 	stmdbmi	r0, {r3, r9, sl, sp}
     350:	09000013 	stmdbeq	r0, {r0, r1, r4}
     354:	193f012e 	ldmdbne	pc!, {r1, r2, r3, r5, r8}	; <UNPREDICTABLE>
     358:	0b3a0e03 	bleq	e83b6c <__bss_end__+0xe79a4c>
     35c:	0b390b3b 	bleq	e43050 <__bss_end__+0xe38f30>
     360:	13491927 	movtne	r1, #39207	; 0x9927
     364:	06120111 			; <UNDEFINED> instruction: 0x06120111
     368:	42971840 	addsmi	r1, r7, #64, 16	; 0x400000
     36c:	00130119 	andseq	r0, r3, r9, lsl r1
     370:	00050a00 	andeq	r0, r5, r0, lsl #20
     374:	0b3a0e03 	bleq	e83b88 <__bss_end__+0xe79a68>
     378:	0b390b3b 	bleq	e4306c <__bss_end__+0xe38f4c>
     37c:	17021349 	strne	r1, [r2, -r9, asr #6]
     380:	001742b7 			; <UNDEFINED> instruction: 0x001742b7
     384:	82890b00 	addhi	r0, r9, #0, 22
     388:	01110101 	tsteq	r1, r1, lsl #2
     38c:	00001331 	andeq	r1, r0, r1, lsr r3
     390:	01828a0c 	orreq	r8, r2, ip, lsl #20
     394:	91180200 	tstls	r8, r0, lsl #4
     398:	00001842 	andeq	r1, r0, r2, asr #16
     39c:	0b000f0d 	bleq	3fd8 <__code_start__-0x4028>
     3a0:	0e00000b 	cdpeq	0, 0, cr0, cr0, cr11, {0}
     3a4:	193f002e 	ldmdbne	pc!, {r1, r2, r3, r5}	; <UNPREDICTABLE>
     3a8:	0e6e193c 			; <UNDEFINED> instruction: 0x0e6e193c
     3ac:	0b3a0e03 	bleq	e83bc0 <__bss_end__+0xe79aa0>
     3b0:	0b390b3b 	bleq	e430a4 <__bss_end__+0xe38f84>
     3b4:	01000000 	mrseq	r0, (UNDEF: 0)
     3b8:	0e250111 	mcreq	1, 1, r0, cr5, cr1, {0}
     3bc:	0e030b13 	vmoveq.32	d3[0], r0
     3c0:	01110e1b 	tsteq	r1, fp, lsl lr
     3c4:	17100612 			; <UNDEFINED> instruction: 0x17100612
     3c8:	16020000 	strne	r0, [r2], -r0
     3cc:	3a0e0300 	bcc	380fd4 <__bss_end__+0x376eb4>
     3d0:	390b3b0b 	stmdbcc	fp, {r0, r1, r3, r8, r9, fp, ip, sp}
     3d4:	0013490b 	andseq	r4, r3, fp, lsl #18
     3d8:	01130300 	tsteq	r3, r0, lsl #6
     3dc:	0b0b0e03 	bleq	2c3bf0 <__bss_end__+0x2b9ad0>
     3e0:	0b3b0b3a 	bleq	ec30d0 <__bss_end__+0xeb8fb0>
     3e4:	00001301 	andeq	r1, r0, r1, lsl #6
     3e8:	03000d04 	movweq	r0, #3332	; 0xd04
     3ec:	3813490e 	ldmdacc	r3, {r1, r2, r3, r8, fp, lr}
     3f0:	0019340b 	andseq	r3, r9, fp, lsl #8
     3f4:	000f0500 	andeq	r0, pc, r0, lsl #10
     3f8:	00000b0b 	andeq	r0, r0, fp, lsl #22
     3fc:	0b002406 	bleq	941c <kmalloc_aligned+0x38>
     400:	030b3e0b 	movweq	r3, #48651	; 0xbe0b
     404:	07000008 	streq	r0, [r0, -r8]
     408:	0b0b0024 	bleq	2c04a0 <__bss_end__+0x2b6380>
     40c:	0e030b3e 	vmoveq.16	d3[0], r0
     410:	15080000 	strne	r0, [r8, #-0]
     414:	49192701 	ldmdbmi	r9, {r0, r8, r9, sl, sp}
     418:	00130113 	andseq	r0, r3, r3, lsl r1
     41c:	00050900 	andeq	r0, r5, r0, lsl #18
     420:	00001349 	andeq	r1, r0, r9, asr #6
     424:	0300340a 	movweq	r3, #1034	; 0x40a
     428:	3b0b3a0e 	blcc	2cec68 <__bss_end__+0x2c4b48>
     42c:	490b390b 	stmdbmi	fp, {r0, r1, r3, r8, fp, ip, sp}
     430:	3c193f13 	ldccc	15, cr3, [r9], {19}
     434:	0b000019 	bleq	4a0 <__code_start__-0x7b60>
     438:	0b0b000f 	bleq	2c047c <__bss_end__+0x2b635c>
     43c:	00001349 	andeq	r1, r0, r9, asr #6
     440:	4900260c 	stmdbmi	r0, {r2, r3, r9, sl, sp}
     444:	0d000013 	stceq	0, cr0, [r0, #-76]	; 0xffffffb4
     448:	193f012e 	ldmdbne	pc!, {r1, r2, r3, r5, r8}	; <UNPREDICTABLE>
     44c:	0b3a0e03 	bleq	e83c60 <__bss_end__+0xe79b40>
     450:	0b390b3b 	bleq	e43144 <__bss_end__+0xe39024>
     454:	13491927 	movtne	r1, #39207	; 0x9927
     458:	06120111 			; <UNDEFINED> instruction: 0x06120111
     45c:	42971840 	addsmi	r1, r7, #64, 16	; 0x400000
     460:	00130119 	andseq	r0, r3, r9, lsl r1
     464:	00050e00 	andeq	r0, r5, r0, lsl #28
     468:	0b3a0803 	bleq	e8247c <__bss_end__+0xe7835c>
     46c:	0b390b3b 	bleq	e43160 <__bss_end__+0xe39040>
     470:	18021349 	stmdane	r2, {r0, r3, r6, r8, r9, ip}
     474:	180f0000 	stmdane	pc, {}	; <UNPREDICTABLE>
     478:	10000000 	andne	r0, r0, r0
     47c:	08030034 	stmdaeq	r3, {r2, r4, r5}
     480:	0b3b0b3a 	bleq	ec3170 <__bss_end__+0xeb9050>
     484:	13490b39 	movtne	r0, #39737	; 0x9b39
     488:	00001802 	andeq	r1, r0, r2, lsl #16
     48c:	03003411 	movweq	r3, #1041	; 0x411
     490:	3b0b3a0e 	blcc	2cecd0 <__bss_end__+0x2c4bb0>
     494:	490b390b 	stmdbmi	fp, {r0, r1, r3, r8, fp, ip, sp}
     498:	00180213 	andseq	r0, r8, r3, lsl r2
     49c:	00341200 	eorseq	r1, r4, r0, lsl #4
     4a0:	0b3a0803 	bleq	e824b4 <__bss_end__+0xe78394>
     4a4:	0b390b3b 	bleq	e43198 <__bss_end__+0xe39078>
     4a8:	17021349 	strne	r1, [r2, -r9, asr #6]
     4ac:	001742b7 			; <UNDEFINED> instruction: 0x001742b7
     4b0:	82891300 	addhi	r1, r9, #0, 6
     4b4:	01110101 	tsteq	r1, r1, lsl #2
     4b8:	13011331 	movwne	r1, #4913	; 0x1331
     4bc:	8a140000 	bhi	5004c4 <__bss_end__+0x4f63a4>
     4c0:	02000182 	andeq	r0, r0, #-2147483616	; 0x80000020
     4c4:	18429118 	stmdane	r2, {r3, r4, r8, ip, pc}^
     4c8:	89150000 	ldmdbhi	r5, {}	; <UNPREDICTABLE>
     4cc:	11010182 	smlabbne	r1, r2, r1, r0
     4d0:	16000001 	strne	r0, [r0], -r1
     4d4:	13490101 	movtne	r0, #37121	; 0x9101
     4d8:	00001301 	andeq	r1, r0, r1, lsl #6
     4dc:	49002117 	stmdbmi	r0, {r0, r1, r2, r4, r8, sp}
     4e0:	00052f13 	andeq	r2, r5, r3, lsl pc
     4e4:	002e1800 	eoreq	r1, lr, r0, lsl #16
     4e8:	193c193f 	ldmdbne	ip!, {r0, r1, r2, r3, r4, r5, r8, fp, ip}
     4ec:	0e030e6e 	cdpeq	14, 0, cr0, cr3, cr14, {3}
     4f0:	0b3b0b3a 	bleq	ec31e0 <__bss_end__+0xeb90c0>
     4f4:	00000b39 	andeq	r0, r0, r9, lsr fp
     4f8:	01110100 	tsteq	r1, r0, lsl #2
     4fc:	0b130e25 	bleq	4c3d98 <__bss_end__+0x4b9c78>
     500:	0e1b0e03 	cdpeq	14, 1, cr0, cr11, cr3, {0}
     504:	06120111 			; <UNDEFINED> instruction: 0x06120111
     508:	00001710 	andeq	r1, r0, r0, lsl r7
     50c:	0b002402 	bleq	951c <kfree_pop+0x8>
     510:	030b3e0b 	movweq	r3, #48651	; 0xbe0b
     514:	03000008 	movweq	r0, #8
     518:	0b0b0024 	bleq	2c05b0 <__bss_end__+0x2b6490>
     51c:	0e030b3e 	vmoveq.16	d3[0], r0
     520:	15040000 	strne	r0, [r4, #-0]
     524:	49192701 	ldmdbmi	r9, {r0, r8, r9, sl, sp}
     528:	00130113 	andseq	r0, r3, r3, lsl r1
     52c:	00050500 	andeq	r0, r5, r0, lsl #10
     530:	00001349 	andeq	r1, r0, r9, asr #6
     534:	03003406 	movweq	r3, #1030	; 0x406
     538:	3b0b3a0e 	blcc	2ced78 <__bss_end__+0x2c4c58>
     53c:	490b390b 	stmdbmi	fp, {r0, r1, r3, r8, fp, ip, sp}
     540:	3c193f13 	ldccc	15, cr3, [r9], {19}
     544:	07000019 	smladeq	r0, r9, r0, r0
     548:	0b0b000f 	bleq	2c058c <__bss_end__+0x2b646c>
     54c:	00001349 	andeq	r1, r0, r9, asr #6
     550:	49002608 	stmdbmi	r0, {r3, r9, sl, sp}
     554:	09000013 	stmdbeq	r0, {r0, r1, r4}
     558:	13470034 	movtne	r0, #28724	; 0x7034
     55c:	0b3b0b3a 	bleq	ec324c <__bss_end__+0xeb912c>
     560:	18020b39 	stmdane	r2, {r0, r3, r4, r5, r8, r9, fp}
     564:	2e0a0000 	cdpcs	0, 0, cr0, cr10, cr0, {0}
     568:	03193f01 	tsteq	r9, #1, 30
     56c:	3b0b3a0e 	blcc	2cedac <__bss_end__+0x2c4c8c>
     570:	270b390b 	strcs	r3, [fp, -fp, lsl #18]
     574:	11134919 	tstne	r3, r9, lsl r9
     578:	40061201 	andmi	r1, r6, r1, lsl #4
     57c:	19429618 	stmdbne	r2, {r3, r4, r9, sl, ip, pc}^
     580:	050b0000 	streq	r0, [fp, #-0]
     584:	3a080300 	bcc	20118c <__bss_end__+0x1f706c>
     588:	390b3b0b 	stmdbcc	fp, {r0, r1, r3, r8, r9, fp, ip, sp}
     58c:	0213490b 	andseq	r4, r3, #180224	; 0x2c000
     590:	1742b717 	smlaldne	fp, r2, r7, r7
     594:	01000000 	mrseq	r0, (UNDEF: 0)
     598:	0e250111 	mcreq	1, 1, r0, cr5, cr1, {0}
     59c:	0e030b13 	vmoveq.32	d3[0], r0
     5a0:	01110e1b 	tsteq	r1, fp, lsl lr
     5a4:	17100612 			; <UNDEFINED> instruction: 0x17100612
     5a8:	24020000 	strcs	r0, [r2], #-0
     5ac:	3e0b0b00 	vmlacc.f64	d0, d11, d0
     5b0:	000e030b 	andeq	r0, lr, fp, lsl #6
     5b4:	00240300 	eoreq	r0, r4, r0, lsl #6
     5b8:	0b3e0b0b 	bleq	f831ec <__bss_end__+0xf790cc>
     5bc:	00000803 	andeq	r0, r0, r3, lsl #16
     5c0:	03001604 	movweq	r1, #1540	; 0x604
     5c4:	3b0b3a0e 	blcc	2cee04 <__bss_end__+0x2c4ce4>
     5c8:	490b390b 	stmdbmi	fp, {r0, r1, r3, r8, fp, ip, sp}
     5cc:	05000013 	streq	r0, [r0, #-19]	; 0xffffffed
     5d0:	19270115 	stmdbne	r7!, {r0, r2, r4, r8}
     5d4:	13011349 	movwne	r1, #4937	; 0x1349
     5d8:	05060000 	streq	r0, [r6, #-0]
     5dc:	00134900 	andseq	r4, r3, r0, lsl #18
     5e0:	00340700 	eorseq	r0, r4, r0, lsl #14
     5e4:	0b3a0e03 	bleq	e83df8 <__bss_end__+0xe79cd8>
     5e8:	0b390b3b 	bleq	e432dc <__bss_end__+0xe391bc>
     5ec:	193f1349 	ldmdbne	pc!, {r0, r3, r6, r8, r9, ip}	; <UNPREDICTABLE>
     5f0:	0000193c 	andeq	r1, r0, ip, lsr r9
     5f4:	0b000f08 	bleq	421c <__code_start__-0x3de4>
     5f8:	0013490b 	andseq	r4, r3, fp, lsl #18
     5fc:	00260900 	eoreq	r0, r6, r0, lsl #18
     600:	00001349 	andeq	r1, r0, r9, asr #6
     604:	0301130a 	movweq	r1, #4874	; 0x130a
     608:	3a0b0b0e 	bcc	2c3248 <__bss_end__+0x2b9128>
     60c:	010b3b0b 	tsteq	fp, fp, lsl #22
     610:	0b000013 	bleq	664 <__code_start__-0x799c>
     614:	0e03000d 	cdpeq	0, 0, cr0, cr3, cr13, {0}
     618:	0b381349 	bleq	e05344 <__bss_end__+0xdfb224>
     61c:	00001934 	andeq	r1, r0, r4, lsr r9
     620:	0b000f0c 	bleq	4258 <__code_start__-0x3da8>
     624:	0d00000b 	stceq	0, cr0, [r0, #-44]	; 0xffffffd4
     628:	193f012e 	ldmdbne	pc!, {r1, r2, r3, r5, r8}	; <UNPREDICTABLE>
     62c:	0b3a0e03 	bleq	e83e40 <__bss_end__+0xe79d20>
     630:	0b390b3b 	bleq	e43324 <__bss_end__+0xe39204>
     634:	13491927 	movtne	r1, #39207	; 0x9927
     638:	06120111 			; <UNDEFINED> instruction: 0x06120111
     63c:	42971840 	addsmi	r1, r7, #64, 16	; 0x400000
     640:	00130119 	andseq	r0, r3, r9, lsl r1
     644:	00050e00 	andeq	r0, r5, r0, lsl #28
     648:	0b3a0803 	bleq	e8265c <__bss_end__+0xe7853c>
     64c:	0b390b3b 	bleq	e43340 <__bss_end__+0xe39220>
     650:	17021349 	strne	r1, [r2, -r9, asr #6]
     654:	001742b7 			; <UNDEFINED> instruction: 0x001742b7
     658:	00050f00 	andeq	r0, r5, r0, lsl #30
     65c:	0b3a0e03 	bleq	e83e70 <__bss_end__+0xe79d50>
     660:	0b390b3b 	bleq	e43354 <__bss_end__+0xe39234>
     664:	17021349 	strne	r1, [r2, -r9, asr #6]
     668:	001742b7 			; <UNDEFINED> instruction: 0x001742b7
     66c:	00341000 	eorseq	r1, r4, r0
     670:	0b3a0803 	bleq	e82684 <__bss_end__+0xe78564>
     674:	0b390b3b 	bleq	e43368 <__bss_end__+0xe39248>
     678:	17021349 	strne	r1, [r2, -r9, asr #6]
     67c:	001742b7 			; <UNDEFINED> instruction: 0x001742b7
     680:	00341100 	eorseq	r1, r4, r0, lsl #2
     684:	0b3a0e03 	bleq	e83e98 <__bss_end__+0xe79d78>
     688:	0b390b3b 	bleq	e4337c <__bss_end__+0xe3925c>
     68c:	17021349 	strne	r1, [r2, -r9, asr #6]
     690:	001742b7 			; <UNDEFINED> instruction: 0x001742b7
     694:	00341200 	eorseq	r1, r4, r0, lsl #4
     698:	13490e03 	movtne	r0, #40451	; 0x9e03
     69c:	18021934 	stmdane	r2, {r2, r4, r5, r8, fp, ip}
     6a0:	0b130000 	bleq	4c06a8 <__bss_end__+0x4b6588>
     6a4:	00175501 	andseq	r5, r7, r1, lsl #10
     6a8:	00341400 	eorseq	r1, r4, r0, lsl #8
     6ac:	0b3a0803 	bleq	e826c0 <__bss_end__+0xe785a0>
     6b0:	0b390b3b 	bleq	e433a4 <__bss_end__+0xe39284>
     6b4:	18021349 	stmdane	r2, {r0, r3, r6, r8, r9, ip}
     6b8:	34150000 	ldrcc	r0, [r5], #-0
     6bc:	3a0e0300 	bcc	3812c4 <__bss_end__+0x3771a4>
     6c0:	390b3b0b 	stmdbcc	fp, {r0, r1, r3, r8, r9, fp, ip, sp}
     6c4:	0213490b 	andseq	r4, r3, #180224	; 0x2c000
     6c8:	16000018 			; <UNDEFINED> instruction: 0x16000018
     6cc:	1755010b 	ldrbne	r0, [r5, -fp, lsl #2]
     6d0:	00001301 	andeq	r1, r0, r1, lsl #6
     6d4:	01828917 	orreq	r8, r2, r7, lsl r9
     6d8:	31011101 	tstcc	r1, r1, lsl #2
     6dc:	00130113 	andseq	r0, r3, r3, lsl r1
     6e0:	828a1800 	addhi	r1, sl, #0, 16
     6e4:	18020001 	stmdane	r2, {r0}
     6e8:	00184291 	mulseq	r8, r1, r2
     6ec:	82891900 	addhi	r1, r9, #0, 18
     6f0:	01110001 	tsteq	r1, r1
     6f4:	00001331 	andeq	r1, r0, r1, lsr r3
     6f8:	31011d1a 	tstcc	r1, sl, lsl sp
     6fc:	b8015213 	stmdalt	r1, {r0, r1, r4, r9, ip, lr}
     700:	17550542 	ldrbne	r0, [r5, -r2, asr #10]
     704:	0b590b58 	bleq	164346c <__bss_end__+0x163934c>
     708:	13010b57 	movwne	r0, #6999	; 0x1b57
     70c:	051b0000 	ldreq	r0, [fp, #-0]
     710:	02133100 	andseq	r3, r3, #0
     714:	1742b717 	smlaldne	fp, r2, r7, r7
     718:	051c0000 	ldreq	r0, [ip, #-0]
     71c:	00133100 	andseq	r3, r3, r0, lsl #2
     720:	00341d00 	eorseq	r1, r4, r0, lsl #26
     724:	18021331 	stmdane	r2, {r0, r4, r5, r8, r9, ip}
     728:	341e0000 	ldrcc	r0, [lr], #-0
     72c:	02133100 	andseq	r3, r3, #0
     730:	1742b717 	smlaldne	fp, r2, r7, r7
     734:	341f0000 	ldrcc	r0, [pc], #-0	; 73c <__code_start__-0x78c4>
     738:	00133100 	andseq	r3, r3, r0, lsl #2
     73c:	011d2000 	tsteq	sp, r0
     740:	01521331 	cmpeq	r2, r1, lsr r3
     744:	550542b8 	strpl	r4, [r5, #-696]	; 0xfffffd48
     748:	590b5817 	stmdbpl	fp, {r0, r1, r2, r4, fp, ip, lr}
     74c:	000b570b 	andeq	r5, fp, fp, lsl #14
     750:	82892100 	addhi	r2, r9, #0
     754:	01110101 	tsteq	r1, r1, lsl #2
     758:	00001301 	andeq	r1, r0, r1, lsl #6
     75c:	49010122 	stmdbmi	r1, {r1, r5, r8}
     760:	00130113 	andseq	r0, r3, r3, lsl r1
     764:	00212300 	eoreq	r2, r1, r0, lsl #6
     768:	0b2f1349 	bleq	bc5494 <__bss_end__+0xbbb374>
     76c:	2e240000 	cdpcs	0, 2, cr0, cr4, cr0, {0}
     770:	3a0e0301 	bcc	38137c <__bss_end__+0x37725c>
     774:	390b3b0b 	stmdbcc	fp, {r0, r1, r3, r8, r9, fp, ip, sp}
     778:	4919270b 	ldmdbmi	r9, {r0, r1, r3, r8, r9, sl, sp}
     77c:	010b2013 	tsteq	fp, r3, lsl r0
     780:	25000013 	strcs	r0, [r0, #-19]	; 0xffffffed
     784:	0e030005 	cdpeq	0, 0, cr0, cr3, cr5, {0}
     788:	0b3b0b3a 	bleq	ec3478 <__bss_end__+0xeb9358>
     78c:	13490b39 	movtne	r0, #39737	; 0x9b39
     790:	05260000 	streq	r0, [r6, #-0]!
     794:	3a080300 	bcc	20139c <__bss_end__+0x1f727c>
     798:	390b3b0b 	stmdbcc	fp, {r0, r1, r3, r8, r9, fp, ip, sp}
     79c:	0013490b 	andseq	r4, r3, fp, lsl #18
     7a0:	00342700 	eorseq	r2, r4, r0, lsl #14
     7a4:	0b3a0803 	bleq	e827b8 <__bss_end__+0xe78698>
     7a8:	0b390b3b 	bleq	e4349c <__bss_end__+0xe3937c>
     7ac:	00001349 	andeq	r1, r0, r9, asr #6
     7b0:	00010b28 	andeq	r0, r1, r8, lsr #22
     7b4:	00342900 	eorseq	r2, r4, r0, lsl #18
     7b8:	0b3a0e03 	bleq	e83fcc <__bss_end__+0xe79eac>
     7bc:	0b390b3b 	bleq	e434b0 <__bss_end__+0xe39390>
     7c0:	00001349 	andeq	r1, r0, r9, asr #6
     7c4:	03012e2a 	movweq	r2, #7722	; 0x1e2a
     7c8:	3b0b3a08 	blcc	2ceff0 <__bss_end__+0x2c4ed0>
     7cc:	270b390b 	strcs	r3, [fp, -fp, lsl #18]
     7d0:	20134919 	andscs	r4, r3, r9, lsl r9
     7d4:	0013010b 	andseq	r0, r3, fp, lsl #2
     7d8:	012e2b00 			; <UNDEFINED> instruction: 0x012e2b00
     7dc:	0e03193f 			; <UNDEFINED> instruction: 0x0e03193f
     7e0:	0b3b0b3a 	bleq	ec34d0 <__bss_end__+0xeb93b0>
     7e4:	19270b39 	stmdbne	r7!, {r0, r3, r4, r5, r8, r9, fp}
     7e8:	06120111 			; <UNDEFINED> instruction: 0x06120111
     7ec:	42971840 	addsmi	r1, r7, #64, 16	; 0x400000
     7f0:	00130119 	andseq	r0, r3, r9, lsl r1
     7f4:	012e2c00 			; <UNDEFINED> instruction: 0x012e2c00
     7f8:	01111331 	tsteq	r1, r1, lsr r3
     7fc:	18400612 	stmdane	r0, {r1, r4, r9, sl}^
     800:	01194297 			; <UNDEFINED> instruction: 0x01194297
     804:	2d000013 	stccs	0, cr0, [r0, #-76]	; 0xffffffb4
     808:	13310005 	teqne	r1, #5, 0
     80c:	00001802 	andeq	r1, r0, r2, lsl #16
     810:	3100052e 	tstcc	r0, lr, lsr #10
     814:	000b1c13 	andeq	r1, fp, r3, lsl ip
     818:	010b2f00 	tsteq	fp, r0, lsl #30
     81c:	01111331 	tsteq	r1, r1, lsr r3
     820:	13010612 	movwne	r0, #5650	; 0x1612
     824:	2e300000 	cdpcs	0, 3, cr0, cr0, cr0, {0}
     828:	3c193f00 	ldccc	15, cr3, [r9], {-0}
     82c:	030e6e19 	movweq	r6, #60953	; 0xee19
     830:	3b0b3a0e 	blcc	2cf070 <__bss_end__+0x2c4f50>
     834:	000b390b 	andeq	r3, fp, fp, lsl #18
     838:	11010000 	mrsne	r0, (UNDEF: 1)
     83c:	130e2501 	movwne	r2, #58625	; 0xe501
     840:	1b0e030b 	blne	381474 <__bss_end__+0x377354>
     844:	1201110e 	andne	r1, r1, #-2147483645	; 0x80000003
     848:	00171006 	andseq	r1, r7, r6
     84c:	00240200 	eoreq	r0, r4, r0, lsl #4
     850:	0b3e0b0b 	bleq	f83484 <__bss_end__+0xf79364>
     854:	00000803 	andeq	r0, r0, r3, lsl #16
     858:	0b002403 	bleq	986c <strncmp+0x24>
     85c:	030b3e0b 	movweq	r3, #48651	; 0xbe0b
     860:	0400000e 	streq	r0, [r0], #-14
     864:	19270115 	stmdbne	r7!, {r0, r2, r4, r8}
     868:	13011349 	movwne	r1, #4937	; 0x1349
     86c:	05050000 	streq	r0, [r5, #-0]
     870:	00134900 	andseq	r4, r3, r0, lsl #18
     874:	00340600 	eorseq	r0, r4, r0, lsl #12
     878:	0b3a0e03 	bleq	e8408c <__bss_end__+0xe79f6c>
     87c:	0b390b3b 	bleq	e43570 <__bss_end__+0xe39450>
     880:	193f1349 	ldmdbne	pc!, {r0, r3, r6, r8, r9, ip}	; <UNPREDICTABLE>
     884:	0000193c 	andeq	r1, r0, ip, lsr r9
     888:	0b000f07 	bleq	44ac <__code_start__-0x3b54>
     88c:	0013490b 	andseq	r4, r3, fp, lsl #18
     890:	00260800 	eoreq	r0, r6, r0, lsl #16
     894:	00001349 	andeq	r1, r0, r9, asr #6
     898:	3f012e09 	svccc	0x00012e09
     89c:	3a0e0319 	bcc	381508 <__bss_end__+0x3773e8>
     8a0:	390b3b0b 	stmdbcc	fp, {r0, r1, r3, r8, r9, fp, ip, sp}
     8a4:	8719270b 	ldrhi	r2, [r9, -fp, lsl #14]
     8a8:	01111901 	tsteq	r1, r1, lsl #18
     8ac:	18400612 	stmdane	r0, {r1, r4, r9, sl}^
     8b0:	01194297 			; <UNDEFINED> instruction: 0x01194297
     8b4:	0a000013 	beq	908 <__code_start__-0x76f8>
     8b8:	01018289 	smlabbeq	r1, r9, r2, r8
     8bc:	13010111 	movwne	r0, #4369	; 0x1111
     8c0:	8a0b0000 	bhi	2c08c8 <__bss_end__+0x2b67a8>
     8c4:	02000182 	andeq	r0, r0, #-2147483616	; 0x80000020
     8c8:	18429118 	stmdane	r2, {r3, r4, r8, ip, pc}^
     8cc:	890c0000 	stmdbhi	ip, {}	; <UNPREDICTABLE>
     8d0:	11000182 	smlabbne	r0, r2, r1, r0
     8d4:	00133101 	andseq	r3, r3, r1, lsl #2
     8d8:	82890d00 	addhi	r0, r9, #0, 26
     8dc:	01110101 	tsteq	r1, r1, lsl #2
     8e0:	13011331 	movwne	r1, #4913	; 0x1331
     8e4:	2e0e0000 	cdpcs	0, 0, cr0, cr14, cr0, {0}
     8e8:	3c193f00 	ldccc	15, cr3, [r9], {-0}
     8ec:	030e6e19 	movweq	r6, #60953	; 0xee19
     8f0:	3b0b3a0e 	blcc	2cf130 <__bss_end__+0x2c5010>
     8f4:	000b390b 	andeq	r3, fp, fp, lsl #18
     8f8:	11010000 	mrsne	r0, (UNDEF: 1)
     8fc:	130e2501 	movwne	r2, #58625	; 0xe501
     900:	1b0e030b 	blne	381534 <__bss_end__+0x377414>
     904:	1201110e 	andne	r1, r1, #-2147483645	; 0x80000003
     908:	00171006 	andseq	r1, r7, r6
     90c:	00240200 	eoreq	r0, r4, r0, lsl #4
     910:	0b3e0b0b 	bleq	f83544 <__bss_end__+0xf79424>
     914:	00000803 	andeq	r0, r0, r3, lsl #16
     918:	0b002403 	bleq	992c <__code_end__+0x98>
     91c:	030b3e0b 	movweq	r3, #48651	; 0xbe0b
     920:	0400000e 	streq	r0, [r0], #-14
     924:	19270115 	stmdbne	r7!, {r0, r2, r4, r8}
     928:	13011349 	movwne	r1, #4937	; 0x1349
     92c:	05050000 	streq	r0, [r5, #-0]
     930:	00134900 	andseq	r4, r3, r0, lsl #18
     934:	00340600 	eorseq	r0, r4, r0, lsl #12
     938:	0b3a0e03 	bleq	e8414c <__bss_end__+0xe7a02c>
     93c:	0b390b3b 	bleq	e43630 <__bss_end__+0xe39510>
     940:	193f1349 	ldmdbne	pc!, {r0, r3, r6, r8, r9, ip}	; <UNPREDICTABLE>
     944:	0000193c 	andeq	r1, r0, ip, lsr r9
     948:	0b000f07 	bleq	456c <__code_start__-0x3a94>
     94c:	0013490b 	andseq	r4, r3, fp, lsl #18
     950:	00260800 	eoreq	r0, r6, r0, lsl #16
     954:	00001349 	andeq	r1, r0, r9, asr #6
     958:	3f012e09 	svccc	0x00012e09
     95c:	3a0e0319 	bcc	3815c8 <__bss_end__+0x3774a8>
     960:	390b3b0b 	stmdbcc	fp, {r0, r1, r3, r8, r9, fp, ip, sp}
     964:	1201110b 	andne	r1, r1, #-1073741822	; 0xc0000002
     968:	97184006 	ldrls	r4, [r8, -r6]
     96c:	13011942 	movwne	r1, #6466	; 0x1942
     970:	2e0a0000 	cdpcs	0, 0, cr0, cr10, cr0, {0}
     974:	03193f00 	tsteq	r9, #0, 30
     978:	3b0b3a0e 	blcc	2cf1b8 <__bss_end__+0x2c5098>
     97c:	270b390b 	strcs	r3, [fp, -fp, lsl #18]
     980:	00193c19 	andseq	r3, r9, r9, lsl ip
     984:	00340b00 	eorseq	r0, r4, r0, lsl #22
     988:	0b3a0803 	bleq	e8299c <__bss_end__+0xe7887c>
     98c:	0b390b3b 	bleq	e43680 <__bss_end__+0xe39560>
     990:	17021349 	strne	r1, [r2, -r9, asr #6]
     994:	001742b7 			; <UNDEFINED> instruction: 0x001742b7
     998:	00340c00 	eorseq	r0, r4, r0, lsl #24
     99c:	0b3a0e03 	bleq	e841b0 <__bss_end__+0xe7a090>
     9a0:	0b390b3b 	bleq	e43694 <__bss_end__+0xe39574>
     9a4:	00001349 	andeq	r1, r0, r9, asr #6
     9a8:	11010b0d 	tstne	r1, sp, lsl #22
     9ac:	01061201 	tsteq	r6, r1, lsl #4
     9b0:	0e000013 	mcreq	0, 0, r0, cr0, cr3, {0}
     9b4:	00018289 	andeq	r8, r1, r9, lsl #5
     9b8:	13310111 	teqne	r1, #1073741828	; 0x40000004
     9bc:	2e0f0000 	cdpcs	0, 0, cr0, cr15, cr0, {0}
     9c0:	3c193f00 	ldccc	15, cr3, [r9], {-0}
     9c4:	030e6e19 	movweq	r6, #60953	; 0xee19
     9c8:	3b0b3a0e 	blcc	2cf208 <__bss_end__+0x2c50e8>
     9cc:	000b3905 	andeq	r3, fp, r5, lsl #18
     9d0:	002e1000 	eoreq	r1, lr, r0
     9d4:	193c193f 	ldmdbne	ip!, {r0, r1, r2, r3, r4, r5, r8, fp, ip}
     9d8:	0e030e6e 	cdpeq	14, 0, cr0, cr3, cr14, {3}
     9dc:	0b3b0b3a 	bleq	ec36cc <__bss_end__+0xeb95ac>
     9e0:	00000b39 	andeq	r0, r0, r9, lsr fp
     9e4:	01110100 	tsteq	r1, r0, lsl #2
     9e8:	0b130e25 	bleq	4c4284 <__bss_end__+0x4ba164>
     9ec:	0e1b0e03 	cdpeq	14, 1, cr0, cr11, cr3, {0}
     9f0:	06120111 			; <UNDEFINED> instruction: 0x06120111
     9f4:	00001710 	andeq	r1, r0, r0, lsl r7
     9f8:	0b002402 	bleq	9a08 <__FUNCTION__.3951+0xa4>
     9fc:	030b3e0b 	movweq	r3, #48651	; 0xbe0b
     a00:	03000008 	movweq	r0, #8
     a04:	0b0b0024 	bleq	2c0a9c <__bss_end__+0x2b697c>
     a08:	0e030b3e 	vmoveq.16	d3[0], r0
     a0c:	15040000 	strne	r0, [r4, #-0]
     a10:	49192701 	ldmdbmi	r9, {r0, r8, r9, sl, sp}
     a14:	00130113 	andseq	r0, r3, r3, lsl r1
     a18:	00050500 	andeq	r0, r5, r0, lsl #10
     a1c:	00001349 	andeq	r1, r0, r9, asr #6
     a20:	03003406 	movweq	r3, #1030	; 0x406
     a24:	3b0b3a0e 	blcc	2cf264 <__bss_end__+0x2c5144>
     a28:	490b390b 	stmdbmi	fp, {r0, r1, r3, r8, fp, ip, sp}
     a2c:	3c193f13 	ldccc	15, cr3, [r9], {19}
     a30:	07000019 	smladeq	r0, r9, r0, r0
     a34:	0b0b000f 	bleq	2c0a78 <__bss_end__+0x2b6958>
     a38:	00001349 	andeq	r1, r0, r9, asr #6
     a3c:	49002608 	stmdbmi	r0, {r3, r9, sl, sp}
     a40:	09000013 	stmdbeq	r0, {r0, r1, r4}
     a44:	193f002e 	ldmdbne	pc!, {r1, r2, r3, r5}	; <UNPREDICTABLE>
     a48:	0b3a0e03 	bleq	e8425c <__bss_end__+0xe7a13c>
     a4c:	0b390b3b 	bleq	e43740 <__bss_end__+0xe39620>
     a50:	01111927 	tsteq	r1, r7, lsr #18
     a54:	18400612 	stmdane	r0, {r1, r4, r9, sl}^
     a58:	00194297 	mulseq	r9, r7, r2
     a5c:	11010000 	mrsne	r0, (UNDEF: 1)
     a60:	130e2501 	movwne	r2, #58625	; 0xe501
     a64:	1b0e030b 	blne	381698 <__bss_end__+0x377578>
     a68:	1117550e 	tstne	r7, lr, lsl #10
     a6c:	00171001 	andseq	r1, r7, r1
     a70:	00240200 	eoreq	r0, r4, r0, lsl #4
     a74:	0b3e0b0b 	bleq	f836a8 <__bss_end__+0xf79588>
     a78:	00000803 	andeq	r0, r0, r3, lsl #16
     a7c:	49002603 	stmdbmi	r0, {r0, r1, r9, sl, sp}
     a80:	04000013 	streq	r0, [r0], #-19	; 0xffffffed
     a84:	0b0b0024 	bleq	2c0b1c <__bss_end__+0x2b69fc>
     a88:	0e030b3e 	vmoveq.16	d3[0], r0
     a8c:	15050000 	strne	r0, [r5, #-0]
     a90:	49192701 	ldmdbmi	r9, {r0, r8, r9, sl, sp}
     a94:	00130113 	andseq	r0, r3, r3, lsl r1
     a98:	00050600 	andeq	r0, r5, r0, lsl #12
     a9c:	00001349 	andeq	r1, r0, r9, asr #6
     aa0:	03003407 	movweq	r3, #1031	; 0x407
     aa4:	3b0b3a0e 	blcc	2cf2e4 <__bss_end__+0x2c51c4>
     aa8:	490b390b 	stmdbmi	fp, {r0, r1, r3, r8, fp, ip, sp}
     aac:	3c193f13 	ldccc	15, cr3, [r9], {19}
     ab0:	08000019 	stmdaeq	r0, {r0, r3, r4}
     ab4:	0b0b000f 	bleq	2c0af8 <__bss_end__+0x2b69d8>
     ab8:	00001349 	andeq	r1, r0, r9, asr #6
     abc:	03003409 	movweq	r3, #1033	; 0x409
     ac0:	3b0b3a0e 	blcc	2cf300 <__bss_end__+0x2c51e0>
     ac4:	490b390b 	stmdbmi	fp, {r0, r1, r3, r8, fp, ip, sp}
     ac8:	0a000013 	beq	b1c <__code_start__-0x74e4>
     acc:	193f012e 	ldmdbne	pc!, {r1, r2, r3, r5, r8}	; <UNPREDICTABLE>
     ad0:	0b3a0e03 	bleq	e842e4 <__bss_end__+0xe7a1c4>
     ad4:	0b390b3b 	bleq	e437c8 <__bss_end__+0xe396a8>
     ad8:	01871927 	orreq	r1, r7, r7, lsr #18
     adc:	12011119 	andne	r1, r1, #1073741830	; 0x40000006
     ae0:	97184006 	ldrls	r4, [r8, -r6]
     ae4:	13011942 	movwne	r1, #6466	; 0x1942
     ae8:	340b0000 	strcc	r0, [fp], #-0
     aec:	3a0e0300 	bcc	3816f4 <__bss_end__+0x3775d4>
     af0:	390b3b0b 	stmdbcc	fp, {r0, r1, r3, r8, r9, fp, ip, sp}
     af4:	1c13490b 			; <UNDEFINED> instruction: 0x1c13490b
     af8:	0c000006 	stceq	0, cr0, [r0], {6}
     afc:	0e030034 	mcreq	0, 0, r0, cr3, cr4, {1}
     b00:	0b3b0b3a 	bleq	ec37f0 <__bss_end__+0xeb96d0>
     b04:	13490b39 	movtne	r0, #39737	; 0x9b39
     b08:	00000b1c 	andeq	r0, r0, ip, lsl fp
     b0c:	31011d0d 	tstcc	r1, sp, lsl #26
     b10:	b8015213 	stmdalt	r1, {r0, r1, r4, r9, ip, lr}
     b14:	17550b42 	ldrbne	r0, [r5, -r2, asr #22]
     b18:	0b590b58 	bleq	1643880 <__bss_end__+0x1639760>
     b1c:	13010b57 	movwne	r0, #6999	; 0x1b57
     b20:	0b0e0000 	bleq	380b28 <__bss_end__+0x376a08>
     b24:	00175501 	andseq	r5, r7, r1, lsl #10
     b28:	00340f00 	eorseq	r0, r4, r0, lsl #30
     b2c:	17021331 	smladxne	r2, r1, r3, r1
     b30:	001742b7 			; <UNDEFINED> instruction: 0x001742b7
     b34:	011d1000 	tsteq	sp, r0
     b38:	01521331 	cmpeq	r2, r1, lsr r3
     b3c:	110b42b8 			; <UNDEFINED> instruction: 0x110b42b8
     b40:	58061201 	stmdapl	r6, {r0, r9, ip}
     b44:	570b590b 	strpl	r5, [fp, -fp, lsl #18]
     b48:	0013010b 	andseq	r0, r3, fp, lsl #2
     b4c:	82891100 	addhi	r1, r9, #0
     b50:	01110001 	tsteq	r1, r1
     b54:	00001331 	andeq	r1, r0, r1, lsr r3
     b58:	01828912 	orreq	r8, r2, r2, lsl r9
     b5c:	31011101 	tstcc	r1, r1, lsl #2
     b60:	00130113 	andseq	r0, r3, r3, lsl r1
     b64:	828a1300 	addhi	r1, sl, #0, 6
     b68:	18020001 	stmdane	r2, {r0}
     b6c:	00184291 	mulseq	r8, r1, r2
     b70:	82891400 	addhi	r1, r9, #0, 8
     b74:	01110101 	tsteq	r1, r1, lsl #2
     b78:	00001331 	andeq	r1, r0, r1, lsr r3
     b7c:	3f012e15 	svccc	0x00012e15
     b80:	3a0e0319 	bcc	3817ec <__bss_end__+0x3776cc>
     b84:	390b3b0b 	stmdbcc	fp, {r0, r1, r3, r8, r9, fp, ip, sp}
     b88:	2019270b 	andscs	r2, r9, fp, lsl #14
     b8c:	0013010b 	andseq	r0, r3, fp, lsl #2
     b90:	012e1600 			; <UNDEFINED> instruction: 0x012e1600
     b94:	0e03193f 			; <UNDEFINED> instruction: 0x0e03193f
     b98:	0b3b0b3a 	bleq	ec3888 <__bss_end__+0xeb9768>
     b9c:	19270b39 	stmdbne	r7!, {r0, r3, r4, r5, r8, r9, fp}
     ba0:	0b201349 	bleq	8058cc <__bss_end__+0x7fb7ac>
     ba4:	00001301 	andeq	r1, r0, r1, lsl #6
     ba8:	31012e17 	tstcc	r1, r7, lsl lr
     bac:	12011113 	andne	r1, r1, #-1073741820	; 0xc0000004
     bb0:	97184006 	ldrls	r4, [r8, -r6]
     bb4:	13011942 	movwne	r1, #6466	; 0x1942
     bb8:	2e180000 	cdpcs	0, 1, cr0, cr8, cr0, {0}
     bbc:	3c193f00 	ldccc	15, cr3, [r9], {-0}
     bc0:	030e6e19 	movweq	r6, #60953	; 0xee19
     bc4:	3b0b3a0e 	blcc	2cf404 <__bss_end__+0x2c52e4>
     bc8:	000b3905 	andeq	r3, fp, r5, lsl #18
     bcc:	002e1900 	eoreq	r1, lr, r0, lsl #18
     bd0:	193c193f 	ldmdbne	ip!, {r0, r1, r2, r3, r4, r5, r8, fp, ip}
     bd4:	0e030e6e 	cdpeq	14, 0, cr0, cr3, cr14, {3}
     bd8:	0b3b0b3a 	bleq	ec38c8 <__bss_end__+0xeb97a8>
     bdc:	00000b39 	andeq	r0, r0, r9, lsr fp
     be0:	01110100 	tsteq	r1, r0, lsl #2
     be4:	0b130e25 	bleq	4c4480 <__bss_end__+0x4ba360>
     be8:	0e1b0e03 	cdpeq	14, 1, cr0, cr11, cr3, {0}
     bec:	06120111 			; <UNDEFINED> instruction: 0x06120111
     bf0:	00001710 	andeq	r1, r0, r0, lsl r7
     bf4:	0b002402 	bleq	9c04 <__FUNCTION__.4030+0x128>
     bf8:	030b3e0b 	movweq	r3, #48651	; 0xbe0b
     bfc:	03000008 	movweq	r0, #8
     c00:	0b0b0024 	bleq	2c0c98 <__bss_end__+0x2b6b78>
     c04:	0e030b3e 	vmoveq.16	d3[0], r0
     c08:	15040000 	strne	r0, [r4, #-0]
     c0c:	49192701 	ldmdbmi	r9, {r0, r8, r9, sl, sp}
     c10:	00130113 	andseq	r0, r3, r3, lsl r1
     c14:	00050500 	andeq	r0, r5, r0, lsl #10
     c18:	00001349 	andeq	r1, r0, r9, asr #6
     c1c:	03003406 	movweq	r3, #1030	; 0x406
     c20:	3b0b3a0e 	blcc	2cf460 <__bss_end__+0x2c5340>
     c24:	490b390b 	stmdbmi	fp, {r0, r1, r3, r8, fp, ip, sp}
     c28:	3c193f13 	ldccc	15, cr3, [r9], {19}
     c2c:	07000019 	smladeq	r0, r9, r0, r0
     c30:	0b0b000f 	bleq	2c0c74 <__bss_end__+0x2b6b54>
     c34:	00001349 	andeq	r1, r0, r9, asr #6
     c38:	49002608 	stmdbmi	r0, {r3, r9, sl, sp}
     c3c:	09000013 	stmdbeq	r0, {r0, r1, r4}
     c40:	193f012e 	ldmdbne	pc!, {r1, r2, r3, r5, r8}	; <UNPREDICTABLE>
     c44:	0b3a0e03 	bleq	e84458 <__bss_end__+0xe7a338>
     c48:	0b390b3b 	bleq	e4393c <__bss_end__+0xe3981c>
     c4c:	01111927 	tsteq	r1, r7, lsr #18
     c50:	18400612 	stmdane	r0, {r1, r4, r9, sl}^
     c54:	01194297 			; <UNDEFINED> instruction: 0x01194297
     c58:	0a000013 	beq	cac <__code_start__-0x7354>
     c5c:	08030005 	stmdaeq	r3, {r0, r2}
     c60:	0b3b0b3a 	bleq	ec3950 <__bss_end__+0xeb9830>
     c64:	13490b39 	movtne	r0, #39737	; 0x9b39
     c68:	42b71702 	adcsmi	r1, r7, #524288	; 0x80000
     c6c:	0b000017 	bleq	cd0 <__code_start__-0x7330>
     c70:	1331011d 	teqne	r1, #1073741831	; 0x40000007
     c74:	42b80152 	adcsmi	r0, r8, #-2147483628	; 0x80000014
     c78:	5817550b 	ldmdapl	r7, {r0, r1, r3, r8, sl, ip, lr}
     c7c:	570b590b 	strpl	r5, [fp, -fp, lsl #18]
     c80:	0c00000b 	stceq	0, cr0, [r0], {11}
     c84:	13310005 	teqne	r1, #5, 0
     c88:	42b71702 	adcsmi	r1, r7, #524288	; 0x80000
     c8c:	0d000017 	stceq	0, cr0, [r0, #-92]	; 0xffffffa4
     c90:	1331011d 	teqne	r1, #1073741831	; 0x40000007
     c94:	42b80152 	adcsmi	r0, r8, #-2147483628	; 0x80000014
     c98:	1201110b 	andne	r1, r1, #-1073741822	; 0xc0000002
     c9c:	590b5806 	stmdbpl	fp, {r1, r2, fp, ip, lr}
     ca0:	000b570b 	andeq	r5, fp, fp, lsl #14
     ca4:	00340e00 	eorseq	r0, r4, r0, lsl #28
     ca8:	17021331 	smladxne	r2, r1, r3, r1
     cac:	001742b7 			; <UNDEFINED> instruction: 0x001742b7
     cb0:	011d0f00 	tsteq	sp, r0, lsl #30
     cb4:	01521331 	cmpeq	r2, r1, lsr r3
     cb8:	110b42b8 			; <UNDEFINED> instruction: 0x110b42b8
     cbc:	58061201 	stmdapl	r6, {r0, r9, ip}
     cc0:	570b590b 	strpl	r5, [fp, -fp, lsl #18]
     cc4:	0013010b 	andseq	r0, r3, fp, lsl #2
     cc8:	82891000 	addhi	r1, r9, #0, 0
     ccc:	01110101 	tsteq	r1, r1, lsl #2
     cd0:	00001331 	andeq	r1, r0, r1, lsr r3
     cd4:	01828a11 	orreq	r8, r2, r1, lsl sl
     cd8:	91180200 	tstls	r8, r0, lsl #4
     cdc:	00001842 	andeq	r1, r0, r2, asr #16
     ce0:	01828912 	orreq	r8, r2, r2, lsl r9
     ce4:	31011100 	mrscc	r1, (UNDEF: 17)
     ce8:	13000013 	movwne	r0, #19
     cec:	1331010b 	teqne	r1, #-1073741822	; 0xc0000002
     cf0:	00001755 	andeq	r1, r0, r5, asr r7
     cf4:	31003414 	tstcc	r0, r4, lsl r4
     cf8:	15000013 	strne	r0, [r0, #-19]	; 0xffffffed
     cfc:	1755010b 	ldrbne	r0, [r5, -fp, lsl #2]
     d00:	1d160000 	ldcne	0, cr0, [r6, #-0]
     d04:	52133101 	andspl	r3, r3, #1073741824	; 0x40000000
     d08:	0b42b801 	bleq	10aed14 <__bss_end__+0x10a4bf4>
     d0c:	0b581755 	bleq	1606a68 <__bss_end__+0x15fc948>
     d10:	0b570b59 	bleq	15c3a7c <__bss_end__+0x15b995c>
     d14:	00001301 	andeq	r1, r0, r1, lsl #6
     d18:	3f012e17 	svccc	0x00012e17
     d1c:	3a0e0319 	bcc	381988 <__bss_end__+0x377868>
     d20:	390b3b0b 	stmdbcc	fp, {r0, r1, r3, r8, r9, fp, ip, sp}
     d24:	2019270b 	andscs	r2, r9, fp, lsl #14
     d28:	0013010b 	andseq	r0, r3, fp, lsl #2
     d2c:	00051800 	andeq	r1, r5, r0, lsl #16
     d30:	0b3a0803 	bleq	e82d44 <__bss_end__+0xe78c24>
     d34:	0b390b3b 	bleq	e43a28 <__bss_end__+0xe39908>
     d38:	00001349 	andeq	r1, r0, r9, asr #6
     d3c:	03003419 	movweq	r3, #1049	; 0x419
     d40:	3b0b3a08 	blcc	2cf568 <__bss_end__+0x2c5448>
     d44:	490b390b 	stmdbmi	fp, {r0, r1, r3, r8, fp, ip, sp}
     d48:	1a000013 	bne	d9c <__code_start__-0x7264>
     d4c:	0000010b 	andeq	r0, r0, fp, lsl #2
     d50:	3f012e1b 	svccc	0x00012e1b
     d54:	3a0e0319 	bcc	3819c0 <__bss_end__+0x3778a0>
     d58:	390b3b0b 	stmdbcc	fp, {r0, r1, r3, r8, r9, fp, ip, sp}
     d5c:	4919270b 	ldmdbmi	r9, {r0, r1, r3, r8, r9, sl, sp}
     d60:	010b2013 	tsteq	fp, r3, lsl r0
     d64:	1c000013 	stcne	0, cr0, [r0], {19}
     d68:	193f002e 	ldmdbne	pc!, {r1, r2, r3, r5}	; <UNPREDICTABLE>
     d6c:	0b3a0e03 	bleq	e84580 <__bss_end__+0xe7a460>
     d70:	0b390b3b 	bleq	e43a64 <__bss_end__+0xe39944>
     d74:	13491927 	movtne	r1, #39207	; 0x9927
     d78:	00000b20 	andeq	r0, r0, r0, lsr #22
     d7c:	31012e1d 	tstcc	r1, sp, lsl lr
     d80:	12011113 	andne	r1, r1, #-1073741820	; 0xc0000004
     d84:	97184006 	ldrls	r4, [r8, -r6]
     d88:	13011942 	movwne	r1, #6466	; 0x1942
     d8c:	891e0000 	ldmdbhi	lr, {}	; <UNPREDICTABLE>
     d90:	11010182 	smlabbne	r1, r2, r1, r0
     d94:	19429501 	stmdbne	r2, {r0, r8, sl, ip, pc}^
     d98:	00001331 	andeq	r1, r0, r1, lsr r3
     d9c:	3f002e1f 	svccc	0x00002e1f
     da0:	6e193c19 	mrcvs	12, 0, r3, cr9, cr9, {0}
     da4:	3a0e030e 	bcc	3819e4 <__bss_end__+0x3778c4>
     da8:	390b3b0b 	stmdbcc	fp, {r0, r1, r3, r8, r9, fp, ip, sp}
     dac:	0000000b 	andeq	r0, r0, fp
     db0:	25011101 	strcs	r1, [r1, #-257]	; 0xfffffeff
     db4:	030b130e 	movweq	r1, #45838	; 0xb30e
     db8:	110e1b0e 	tstne	lr, lr, lsl #22
     dbc:	10061201 	andne	r1, r6, r1, lsl #4
     dc0:	02000017 	andeq	r0, r0, #23, 0
     dc4:	0b0b0024 	bleq	2c0e5c <__bss_end__+0x2b6d3c>
     dc8:	08030b3e 	stmdaeq	r3, {r1, r2, r3, r4, r5, r8, r9, fp}
     dcc:	24030000 	strcs	r0, [r3], #-0
     dd0:	3e0b0b00 	vmlacc.f64	d0, d11, d0
     dd4:	000e030b 	andeq	r0, lr, fp, lsl #6
     dd8:	00350400 	eorseq	r0, r5, r0, lsl #8
     ddc:	00001349 	andeq	r1, r0, r9, asr #6
     de0:	03001605 	movweq	r1, #1541	; 0x605
     de4:	3b0b3a0e 	blcc	2cf624 <__bss_end__+0x2c5504>
     de8:	490b390b 	stmdbmi	fp, {r0, r1, r3, r8, fp, ip, sp}
     dec:	06000013 			; <UNDEFINED> instruction: 0x06000013
     df0:	0b3e0104 	bleq	f81208 <__bss_end__+0xf770e8>
     df4:	13490b0b 	movtne	r0, #39691	; 0x9b0b
     df8:	0b3b0b3a 	bleq	ec3ae8 <__bss_end__+0xeb99c8>
     dfc:	13010b39 	movwne	r0, #6969	; 0x1b39
     e00:	28070000 	stmdacs	r7, {}	; <UNPREDICTABLE>
     e04:	1c0e0300 	stcne	3, cr0, [lr], {-0}
     e08:	0800000b 	stmdaeq	r0, {r0, r1, r3}
     e0c:	0e030113 	mcreq	1, 0, r0, cr3, cr3, {0}
     e10:	0b3a0b0b 	bleq	e83a44 <__bss_end__+0xe79924>
     e14:	0b390b3b 	bleq	e43b08 <__bss_end__+0xe399e8>
     e18:	00001301 	andeq	r1, r0, r1, lsl #6
     e1c:	03000d09 	movweq	r0, #3337	; 0xd09
     e20:	3b0b3a08 	blcc	2cf648 <__bss_end__+0x2c5528>
     e24:	490b390b 	stmdbmi	fp, {r0, r1, r3, r8, fp, ip, sp}
     e28:	000b3813 	andeq	r3, fp, r3, lsl r8
     e2c:	000d0a00 	andeq	r0, sp, r0, lsl #20
     e30:	0b3a0e03 	bleq	e84644 <__bss_end__+0xe7a524>
     e34:	0b390b3b 	bleq	e43b28 <__bss_end__+0xe39a08>
     e38:	0b381349 	bleq	e05b64 <__bss_end__+0xdfba44>
     e3c:	340b0000 	strcc	r0, [fp], #-0
     e40:	3a0e0300 	bcc	381a48 <__bss_end__+0x377928>
     e44:	390b3b0b 	stmdbcc	fp, {r0, r1, r3, r8, r9, fp, ip, sp}
     e48:	1c13490b 			; <UNDEFINED> instruction: 0x1c13490b
     e4c:	0c000006 	stceq	0, cr0, [r0], {6}
     e50:	0b0b000f 	bleq	2c0e94 <__bss_end__+0x2b6d74>
     e54:	00001349 	andeq	r1, r0, r9, asr #6
     e58:	4900260d 	stmdbmi	r0, {r0, r2, r3, r9, sl, sp}
     e5c:	0e000013 	mcreq	0, 0, r0, cr0, cr3, {0}
     e60:	193f012e 	ldmdbne	pc!, {r1, r2, r3, r5, r8}	; <UNPREDICTABLE>
     e64:	0b3a0e03 	bleq	e84678 <__bss_end__+0xe7a558>
     e68:	0b390b3b 	bleq	e43b5c <__bss_end__+0xe39a3c>
     e6c:	01111927 	tsteq	r1, r7, lsr #18
     e70:	18400612 	stmdane	r0, {r1, r4, r9, sl}^
     e74:	01194297 			; <UNDEFINED> instruction: 0x01194297
     e78:	0f000013 	svceq	0x00000013
     e7c:	00018289 	andeq	r8, r1, r9, lsl #5
     e80:	13310111 	teqne	r1, #1073741828	; 0x40000004
     e84:	2e100000 	cdpcs	0, 1, cr0, cr0, cr0, {0}
     e88:	03193f01 	tsteq	r9, #1, 30
     e8c:	3b0b3a0e 	blcc	2cf6cc <__bss_end__+0x2c55ac>
     e90:	270b390b 	strcs	r3, [fp, -fp, lsl #18]
     e94:	11134919 	tstne	r3, r9, lsl r9
     e98:	40061201 	andmi	r1, r6, r1, lsl #4
     e9c:	19429718 	stmdbne	r2, {r3, r4, r8, r9, sl, ip, pc}^
     ea0:	00001301 	andeq	r1, r0, r1, lsl #6
     ea4:	01828911 	orreq	r8, r2, r1, lsl r9
     ea8:	31011101 	tstcc	r1, r1, lsl #2
     eac:	12000013 	andne	r0, r0, #19, 0
     eb0:	0001828a 	andeq	r8, r1, sl, lsl #5
     eb4:	42911802 	addsmi	r1, r1, #131072	; 0x20000
     eb8:	13000018 	movwne	r0, #24
     ebc:	08030005 	stmdaeq	r3, {r0, r2}
     ec0:	0b3b0b3a 	bleq	ec3bb0 <__bss_end__+0xeb9a90>
     ec4:	13490b39 	movtne	r0, #39737	; 0x9b39
     ec8:	42b71702 	adcsmi	r1, r7, #524288	; 0x80000
     ecc:	14000017 	strne	r0, [r0], #-23	; 0xffffffe9
     ed0:	01018289 	smlabbeq	r1, r9, r2, r8
     ed4:	13310111 	teqne	r1, #1073741828	; 0x40000004
     ed8:	00001301 	andeq	r1, r0, r1, lsl #6
     edc:	03003415 	movweq	r3, #1045	; 0x415
     ee0:	3b0b3a08 	blcc	2cf708 <__bss_end__+0x2c55e8>
     ee4:	490b390b 	stmdbmi	fp, {r0, r1, r3, r8, fp, ip, sp}
     ee8:	b7170213 			; <UNDEFINED> instruction: 0xb7170213
     eec:	00001742 	andeq	r1, r0, r2, asr #14
     ef0:	03003416 	movweq	r3, #1046	; 0x416
     ef4:	3b0b3a0e 	blcc	2cf734 <__bss_end__+0x2c5614>
     ef8:	490b390b 	stmdbmi	fp, {r0, r1, r3, r8, fp, ip, sp}
     efc:	00051c13 	andeq	r1, r5, r3, lsl ip
     f00:	012e1700 			; <UNDEFINED> instruction: 0x012e1700
     f04:	0b3a0e03 	bleq	e84718 <__bss_end__+0xe7a5f8>
     f08:	0b390b3b 	bleq	e43bfc <__bss_end__+0xe39adc>
     f0c:	01111927 	tsteq	r1, r7, lsr #18
     f10:	18400612 	stmdane	r0, {r1, r4, r9, sl}^
     f14:	01194297 			; <UNDEFINED> instruction: 0x01194297
     f18:	18000013 	stmdane	r0, {r0, r1, r4}
     f1c:	0e030005 	cdpeq	0, 0, cr0, cr3, cr5, {0}
     f20:	0b3b0b3a 	bleq	ec3c10 <__bss_end__+0xeb9af0>
     f24:	13490b39 	movtne	r0, #39737	; 0x9b39
     f28:	42b71702 	adcsmi	r1, r7, #524288	; 0x80000
     f2c:	19000017 	stmdbne	r0, {r0, r1, r2, r4}
     f30:	00000035 	andeq	r0, r0, r5, lsr r0
     f34:	3f002e1a 	svccc	0x00002e1a
     f38:	6e193c19 	mrcvs	12, 0, r3, cr9, cr9, {0}
     f3c:	3a0e030e 	bcc	381b7c <__bss_end__+0x377a5c>
     f40:	390b3b0b 	stmdbcc	fp, {r0, r1, r3, r8, r9, fp, ip, sp}
     f44:	0000000b 	andeq	r0, r0, fp
     f48:	25011101 	strcs	r1, [r1, #-257]	; 0xfffffeff
     f4c:	030b130e 	movweq	r1, #45838	; 0xb30e
     f50:	110e1b0e 	tstne	lr, lr, lsl #22
     f54:	10061201 	andne	r1, r6, r1, lsl #4
     f58:	02000017 	andeq	r0, r0, #23, 0
     f5c:	0b0b0024 	bleq	2c0ff4 <__bss_end__+0x2b6ed4>
     f60:	08030b3e 	stmdaeq	r3, {r1, r2, r3, r4, r5, r8, r9, fp}
     f64:	24030000 	strcs	r0, [r3], #-0
     f68:	3e0b0b00 	vmlacc.f64	d0, d11, d0
     f6c:	000e030b 	andeq	r0, lr, fp, lsl #6
     f70:	00160400 	andseq	r0, r6, r0, lsl #8
     f74:	0b3a0e03 	bleq	e84788 <__bss_end__+0xe7a668>
     f78:	0b390b3b 	bleq	e43c6c <__bss_end__+0xe39b4c>
     f7c:	00001349 	andeq	r1, r0, r9, asr #6
     f80:	49002605 	stmdbmi	r0, {r0, r2, r9, sl, sp}
     f84:	06000013 			; <UNDEFINED> instruction: 0x06000013
     f88:	0b0b000f 	bleq	2c0fcc <__bss_end__+0x2b6eac>
     f8c:	04070000 	streq	r0, [r7], #-0
     f90:	0b0b3e01 	bleq	2d079c <__bss_end__+0x2c667c>
     f94:	3a13490b 	bcc	4d33c8 <__bss_end__+0x4c92a8>
     f98:	390b3b0b 	stmdbcc	fp, {r0, r1, r3, r8, r9, fp, ip, sp}
     f9c:	0013010b 	andseq	r0, r3, fp, lsl #2
     fa0:	00280800 	eoreq	r0, r8, r0, lsl #16
     fa4:	061c0e03 	ldreq	r0, [ip], -r3, lsl #28
     fa8:	34090000 	strcc	r0, [r9], #-0
     fac:	3a0e0300 	bcc	381bb4 <__bss_end__+0x377a94>
     fb0:	390b3b0b 	stmdbcc	fp, {r0, r1, r3, r8, r9, fp, ip, sp}
     fb4:	3f13490b 	svccc	0x0013490b
     fb8:	00193c19 	andseq	r3, r9, r9, lsl ip
     fbc:	00340a00 	eorseq	r0, r4, r0, lsl #20
     fc0:	0b3a0e03 	bleq	e847d4 <__bss_end__+0xe7a6b4>
     fc4:	0b390b3b 	bleq	e43cb8 <__bss_end__+0xe39b98>
     fc8:	18021349 	stmdane	r2, {r0, r3, r6, r8, r9, ip}
     fcc:	0f0b0000 	svceq	0x000b0000
     fd0:	490b0b00 	stmdbmi	fp, {r8, r9, fp}
     fd4:	0c000013 	stceq	0, cr0, [r0], {19}
     fd8:	193f012e 	ldmdbne	pc!, {r1, r2, r3, r5, r8}	; <UNPREDICTABLE>
     fdc:	0b3a0e03 	bleq	e847f0 <__bss_end__+0xe7a6d0>
     fe0:	0b390b3b 	bleq	e43cd4 <__bss_end__+0xe39bb4>
     fe4:	01111927 	tsteq	r1, r7, lsr #18
     fe8:	18400612 	stmdane	r0, {r1, r4, r9, sl}^
     fec:	01194297 			; <UNDEFINED> instruction: 0x01194297
     ff0:	0d000013 	stceq	0, cr0, [r0, #-76]	; 0xffffffb4
     ff4:	08030005 	stmdaeq	r3, {r0, r2}
     ff8:	0b3b0b3a 	bleq	ec3ce8 <__bss_end__+0xeb9bc8>
     ffc:	13490b39 	movtne	r0, #39737	; 0x9b39
    1000:	42b71702 	adcsmi	r1, r7, #524288	; 0x80000
    1004:	0e000017 	mcreq	0, 0, r0, cr0, cr7, {0}
    1008:	0e030034 	mcreq	0, 0, r0, cr3, cr4, {1}
    100c:	19341349 	ldmdbne	r4!, {r0, r3, r6, r8, r9, ip}
    1010:	00001802 	andeq	r1, r0, r2, lsl #16
    1014:	0182890f 	orreq	r8, r2, pc, lsl #18
    1018:	31011101 	tstcc	r1, r1, lsl #2
    101c:	00130113 	andseq	r0, r3, r3, lsl r1
    1020:	828a1000 	addhi	r1, sl, #0, 0
    1024:	18020001 	stmdane	r2, {r0}
    1028:	00184291 	mulseq	r8, r1, r2
    102c:	82891100 	addhi	r1, r9, #0
    1030:	01110001 	tsteq	r1, r1
    1034:	00001331 	andeq	r1, r0, r1, lsr r3
    1038:	49010112 	stmdbmi	r1, {r1, r4, r8}
    103c:	00130113 	andseq	r0, r3, r3, lsl r1
    1040:	00211300 	eoreq	r1, r1, r0, lsl #6
    1044:	0b2f1349 	bleq	bc5d70 <__bss_end__+0xbbbc50>
    1048:	2e140000 	cdpcs	0, 1, cr0, cr4, cr0, {0}
    104c:	03193f00 	tsteq	r9, #0, 30
    1050:	3b0b3a0e 	blcc	2cf890 <__bss_end__+0x2c5770>
    1054:	270b390b 	strcs	r3, [fp, -fp, lsl #18]
    1058:	12011119 	andne	r1, r1, #1073741830	; 0x40000006
    105c:	97184006 	ldrls	r4, [r8, -r6]
    1060:	00001942 	andeq	r1, r0, r2, asr #18
    1064:	03000515 	movweq	r0, #1301	; 0x515
    1068:	3b0b3a08 	blcc	2cf890 <__bss_end__+0x2c5770>
    106c:	490b390b 	stmdbmi	fp, {r0, r1, r3, r8, fp, ip, sp}
    1070:	00180213 	andseq	r0, r8, r3, lsl r2
    1074:	012e1600 			; <UNDEFINED> instruction: 0x012e1600
    1078:	0e03193f 			; <UNDEFINED> instruction: 0x0e03193f
    107c:	0b3b0b3a 	bleq	ec3d6c <__bss_end__+0xeb9c4c>
    1080:	19270b39 	stmdbne	r7!, {r0, r3, r4, r5, r8, r9, fp}
    1084:	01111349 	tsteq	r1, r9, asr #6
    1088:	18400612 	stmdane	r0, {r1, r4, r9, sl}^
    108c:	01194297 			; <UNDEFINED> instruction: 0x01194297
    1090:	17000013 	smladne	r0, r3, r0, r0
    1094:	0e030005 	cdpeq	0, 0, cr0, cr3, cr5, {0}
    1098:	0b3b0b3a 	bleq	ec3d88 <__bss_end__+0xeb9c68>
    109c:	13490b39 	movtne	r0, #39737	; 0x9b39
    10a0:	42b71702 	adcsmi	r1, r7, #524288	; 0x80000
    10a4:	18000017 	stmdane	r0, {r0, r1, r2, r4}
    10a8:	08030034 	stmdaeq	r3, {r2, r4, r5}
    10ac:	0b3b0b3a 	bleq	ec3d9c <__bss_end__+0xeb9c7c>
    10b0:	13490b39 	movtne	r0, #39737	; 0x9b39
    10b4:	42b71702 	adcsmi	r1, r7, #524288	; 0x80000
    10b8:	19000017 	stmdbne	r0, {r0, r1, r2, r4}
    10bc:	1331011d 	teqne	r1, #1073741831	; 0x40000007
    10c0:	42b80152 	adcsmi	r0, r8, #-2147483628	; 0x80000014
    10c4:	1201110b 	andne	r1, r1, #-1073741822	; 0xc0000002
    10c8:	590b5806 	stmdbpl	fp, {r1, r2, fp, ip, lr}
    10cc:	010b570b 	tsteq	fp, fp, lsl #14
    10d0:	1a000013 	bne	1124 <__code_start__-0x6edc>
    10d4:	13310005 	teqne	r1, #5, 0
    10d8:	42b71702 	adcsmi	r1, r7, #524288	; 0x80000
    10dc:	1b000017 	blne	1140 <__code_start__-0x6ec0>
    10e0:	1331011d 	teqne	r1, #1073741831	; 0x40000007
    10e4:	42b80152 	adcsmi	r0, r8, #-2147483628	; 0x80000014
    10e8:	5817550b 	ldmdapl	r7, {r0, r1, r3, r8, sl, ip, lr}
    10ec:	570b590b 	strpl	r5, [fp, -fp, lsl #18]
    10f0:	0013010b 	andseq	r0, r3, fp, lsl #2
    10f4:	010b1c00 	tsteq	fp, r0, lsl #24
    10f8:	00001755 	andeq	r1, r0, r5, asr r7
    10fc:	0300341d 	movweq	r3, #1053	; 0x41d
    1100:	3b0b3a0e 	blcc	2cf940 <__bss_end__+0x2c5820>
    1104:	490b390b 	stmdbmi	fp, {r0, r1, r3, r8, fp, ip, sp}
    1108:	b7170213 			; <UNDEFINED> instruction: 0xb7170213
    110c:	00001742 	andeq	r1, r0, r2, asr #14
    1110:	55000b1e 	strpl	r0, [r0, #-2846]	; 0xfffff4e2
    1114:	1f000017 	svcne	0x00000017
    1118:	193f002e 	ldmdbne	pc!, {r1, r2, r3, r5}	; <UNPREDICTABLE>
    111c:	0b3a0e03 	bleq	e84930 <__bss_end__+0xe7a810>
    1120:	0b390b3b 	bleq	e43e14 <__bss_end__+0xe39cf4>
    1124:	13491927 	movtne	r1, #39207	; 0x9927
    1128:	06120111 			; <UNDEFINED> instruction: 0x06120111
    112c:	42971840 	addsmi	r1, r7, #64, 16	; 0x400000
    1130:	20000019 	andcs	r0, r0, r9, lsl r0
    1134:	0e03012e 	adfeqsp	f0, f3, #0.5
    1138:	0b3b0b3a 	bleq	ec3e28 <__bss_end__+0xeb9d08>
    113c:	19270b39 	stmdbne	r7!, {r0, r3, r4, r5, r8, r9, fp}
    1140:	0b201349 	bleq	805e6c <__bss_end__+0x7fbd4c>
    1144:	00001301 	andeq	r1, r0, r1, lsl #6
    1148:	03000521 	movweq	r0, #1313	; 0x521
    114c:	3b0b3a08 	blcc	2cf974 <__bss_end__+0x2c5854>
    1150:	490b390b 	stmdbmi	fp, {r0, r1, r3, r8, fp, ip, sp}
    1154:	22000013 	andcs	r0, r0, #19, 0
    1158:	193f002e 	ldmdbne	pc!, {r1, r2, r3, r5}	; <UNPREDICTABLE>
    115c:	0e6e193c 			; <UNDEFINED> instruction: 0x0e6e193c
    1160:	0b3a0e03 	bleq	e84974 <__bss_end__+0xe7a854>
    1164:	0b390b3b 	bleq	e43e58 <__bss_end__+0xe39d38>
    1168:	01000000 	mrseq	r0, (UNDEF: 0)
    116c:	0e250111 	mcreq	1, 1, r0, cr5, cr1, {0}
    1170:	0e030b13 	vmoveq.32	d3[0], r0
    1174:	01110e1b 	tsteq	r1, fp, lsl lr
    1178:	17100612 			; <UNDEFINED> instruction: 0x17100612
    117c:	24020000 	strcs	r0, [r2], #-0
    1180:	3e0b0b00 	vmlacc.f64	d0, d11, d0
    1184:	000e030b 	andeq	r0, lr, fp, lsl #6
    1188:	00240300 	eoreq	r0, r4, r0, lsl #6
    118c:	0b3e0b0b 	bleq	f83dc0 <__bss_end__+0xf79ca0>
    1190:	00000803 	andeq	r0, r0, r3, lsl #16
    1194:	49002604 	stmdbmi	r0, {r2, r9, sl, sp}
    1198:	05000013 	streq	r0, [r0, #-19]	; 0xffffffed
    119c:	0e030016 	mcreq	0, 0, r0, cr3, cr6, {0}
    11a0:	0b3b0b3a 	bleq	ec3e90 <__bss_end__+0xeb9d70>
    11a4:	13490b39 	movtne	r0, #39737	; 0x9b39
    11a8:	15060000 	strne	r0, [r6, #-0]
    11ac:	49192701 	ldmdbmi	r9, {r0, r8, r9, sl, sp}
    11b0:	00130113 	andseq	r0, r3, r3, lsl r1
    11b4:	00050700 	andeq	r0, r5, r0, lsl #14
    11b8:	00001349 	andeq	r1, r0, r9, asr #6
    11bc:	03003408 	movweq	r3, #1032	; 0x408
    11c0:	3b0b3a0e 	blcc	2cfa00 <__bss_end__+0x2c58e0>
    11c4:	490b390b 	stmdbmi	fp, {r0, r1, r3, r8, fp, ip, sp}
    11c8:	3c193f13 	ldccc	15, cr3, [r9], {19}
    11cc:	09000019 	stmdbeq	r0, {r0, r3, r4}
    11d0:	0b0b000f 	bleq	2c1214 <__bss_end__+0x2b70f4>
    11d4:	00001349 	andeq	r1, r0, r9, asr #6
    11d8:	3e01040a 	cdpcc	4, 0, cr0, cr1, cr10, {0}
    11dc:	490b0b0b 	stmdbmi	fp, {r0, r1, r3, r8, r9, fp}
    11e0:	3b0b3a13 	blcc	2cfa34 <__bss_end__+0x2c5914>
    11e4:	010b390b 	tsteq	fp, fp, lsl #18
    11e8:	0b000013 	bleq	123c <__code_start__-0x6dc4>
    11ec:	0e030028 	cdpeq	0, 0, cr0, cr3, cr8, {1}
    11f0:	00000b1c 	andeq	r0, r0, ip, lsl fp
    11f4:	0300340c 	movweq	r3, #1036	; 0x40c
    11f8:	3b0b3a0e 	blcc	2cfa38 <__bss_end__+0x2c5918>
    11fc:	490b390b 	stmdbmi	fp, {r0, r1, r3, r8, fp, ip, sp}
    1200:	00061c13 	andeq	r1, r6, r3, lsl ip
    1204:	012e0d00 			; <UNDEFINED> instruction: 0x012e0d00
    1208:	0e03193f 			; <UNDEFINED> instruction: 0x0e03193f
    120c:	0b3b0b3a 	bleq	ec3efc <__bss_end__+0xeb9ddc>
    1210:	19270b39 	stmdbne	r7!, {r0, r3, r4, r5, r8, r9, fp}
    1214:	01111349 	tsteq	r1, r9, asr #6
    1218:	18400612 	stmdane	r0, {r1, r4, r9, sl}^
    121c:	01194297 			; <UNDEFINED> instruction: 0x01194297
    1220:	0e000013 	mcreq	0, 0, r0, cr0, cr3, {0}
    1224:	08030005 	stmdaeq	r3, {r0, r2}
    1228:	0b3b0b3a 	bleq	ec3f18 <__bss_end__+0xeb9df8>
    122c:	13490b39 	movtne	r0, #39737	; 0x9b39
    1230:	42b71702 	adcsmi	r1, r7, #524288	; 0x80000
    1234:	0f000017 	svceq	0x00000017
    1238:	0e030034 	mcreq	0, 0, r0, cr3, cr4, {1}
    123c:	0b3b0b3a 	bleq	ec3f2c <__bss_end__+0xeb9e0c>
    1240:	13490b39 	movtne	r0, #39737	; 0x9b39
    1244:	42b71702 	adcsmi	r1, r7, #524288	; 0x80000
    1248:	10000017 	andne	r0, r0, r7, lsl r0
    124c:	08030034 	stmdaeq	r3, {r2, r4, r5}
    1250:	0b3b0b3a 	bleq	ec3f40 <__bss_end__+0xeb9e20>
    1254:	13490b39 	movtne	r0, #39737	; 0x9b39
    1258:	42b71702 	adcsmi	r1, r7, #524288	; 0x80000
    125c:	11000017 	tstne	r0, r7, lsl r0
    1260:	01018289 	smlabbeq	r1, r9, r2, r8
    1264:	13310111 	teqne	r1, #1073741828	; 0x40000004
    1268:	8a120000 	bhi	481270 <__bss_end__+0x477150>
    126c:	02000182 	andeq	r0, r0, #-2147483616	; 0x80000020
    1270:	18429118 	stmdane	r2, {r3, r4, r8, ip, pc}^
    1274:	2e130000 	cdpcs	0, 1, cr0, cr3, cr0, {0}
    1278:	03193f01 	tsteq	r9, #1, 30
    127c:	3b0b3a0e 	blcc	2cfabc <__bss_end__+0x2c599c>
    1280:	270b390b 	strcs	r3, [fp, -fp, lsl #18]
    1284:	12011119 	andne	r1, r1, #1073741830	; 0x40000006
    1288:	97184006 	ldrls	r4, [r8, -r6]
    128c:	13011942 	movwne	r1, #6466	; 0x1942
    1290:	1d140000 	ldcne	0, cr0, [r4, #-0]
    1294:	52133101 	andspl	r3, r3, #1073741824	; 0x40000000
    1298:	0b42b801 	bleq	10af2a4 <__bss_end__+0x10a5184>
    129c:	0b581755 	bleq	1606ff8 <__bss_end__+0x15fced8>
    12a0:	0b570b59 	bleq	15c400c <__bss_end__+0x15b9eec>
    12a4:	00001301 	andeq	r1, r0, r1, lsl #6
    12a8:	31000515 	tstcc	r0, r5, lsl r5
    12ac:	b7170213 			; <UNDEFINED> instruction: 0xb7170213
    12b0:	00001742 	andeq	r1, r0, r2, asr #14
    12b4:	01828916 	orreq	r8, r2, r6, lsl r9
    12b8:	95011101 	strls	r1, [r1, #-257]	; 0xfffffeff
    12bc:	13311942 	teqne	r1, #1081344	; 0x108000
    12c0:	1d170000 	ldcne	0, cr0, [r7, #-0]
    12c4:	52133101 	andspl	r3, r3, #1073741824	; 0x40000000
    12c8:	0b42b801 	bleq	10af2d4 <__bss_end__+0x10a51b4>
    12cc:	06120111 			; <UNDEFINED> instruction: 0x06120111
    12d0:	0b590b58 	bleq	1644038 <__bss_end__+0x1639f18>
    12d4:	00000b57 	andeq	r0, r0, r7, asr fp
    12d8:	31011d18 	tstcc	r1, r8, lsl sp
    12dc:	b8015213 	stmdalt	r1, {r0, r1, r4, r9, ip, lr}
    12e0:	17550b42 	ldrbne	r0, [r5, -r2, asr #22]
    12e4:	0b590b58 	bleq	164404c <__bss_end__+0x1639f2c>
    12e8:	00000b57 	andeq	r0, r0, r7, asr fp
    12ec:	31000519 	tstcc	r0, r9, lsl r5
    12f0:	000b1c13 	andeq	r1, fp, r3, lsl ip
    12f4:	010b1a00 	tsteq	fp, r0, lsl #20
    12f8:	00001755 	andeq	r1, r0, r5, asr r7
    12fc:	3100341b 	tstcc	r0, fp, lsl r4
    1300:	1c000013 	stcne	0, cr0, [r0], {19}
    1304:	13310034 	teqne	r1, #52, 0	; 0x34
    1308:	42b71702 	adcsmi	r1, r7, #524288	; 0x80000
    130c:	1d000017 	stcne	0, cr0, [r0, #-92]	; 0xffffffa4
    1310:	01018289 	smlabbeq	r1, r9, r2, r8
    1314:	13310111 	teqne	r1, #1073741828	; 0x40000004
    1318:	00001301 	andeq	r1, r0, r1, lsl #6
    131c:	3f012e1e 	svccc	0x00012e1e
    1320:	3a0e0319 	bcc	381f8c <__bss_end__+0x377e6c>
    1324:	390b3b0b 	stmdbcc	fp, {r0, r1, r3, r8, r9, fp, ip, sp}
    1328:	2019270b 	andscs	r2, r9, fp, lsl #14
    132c:	0013010b 	andseq	r0, r3, fp, lsl #2
    1330:	00051f00 	andeq	r1, r5, r0, lsl #30
    1334:	0b3a0803 	bleq	e83348 <__bss_end__+0xe79228>
    1338:	0b390b3b 	bleq	e4402c <__bss_end__+0xe39f0c>
    133c:	00001349 	andeq	r1, r0, r9, asr #6
    1340:	03000520 	movweq	r0, #1312	; 0x520
    1344:	3b0b3a0e 	blcc	2cfb84 <__bss_end__+0x2c5a64>
    1348:	490b390b 	stmdbmi	fp, {r0, r1, r3, r8, fp, ip, sp}
    134c:	21000013 	tstcs	r0, r3, lsl r0
    1350:	08030034 	stmdaeq	r3, {r2, r4, r5}
    1354:	0b3b0b3a 	bleq	ec4044 <__bss_end__+0xeb9f24>
    1358:	13490b39 	movtne	r0, #39737	; 0x9b39
    135c:	2e220000 	cdpcs	0, 2, cr0, cr2, cr0, {0}
    1360:	3a0e0301 	bcc	381f6c <__bss_end__+0x377e4c>
    1364:	390b3b0b 	stmdbcc	fp, {r0, r1, r3, r8, r9, fp, ip, sp}
    1368:	4919270b 	ldmdbmi	r9, {r0, r1, r3, r8, r9, sl, sp}
    136c:	010b2013 	tsteq	fp, r3, lsl r0
    1370:	23000013 	movwcs	r0, #19
    1374:	1331012e 	teqne	r1, #-2147483637	; 0x8000000b
    1378:	06120111 			; <UNDEFINED> instruction: 0x06120111
    137c:	42971840 	addsmi	r1, r7, #64, 16	; 0x400000
    1380:	00130119 	andseq	r0, r3, r9, lsl r1
    1384:	002e2400 	eoreq	r2, lr, r0, lsl #8
    1388:	193c193f 	ldmdbne	ip!, {r0, r1, r2, r3, r4, r5, r8, fp, ip}
    138c:	0e030e6e 	cdpeq	14, 0, cr0, cr3, cr14, {3}
    1390:	0b3b0b3a 	bleq	ec4080 <__bss_end__+0xeb9f60>
    1394:	00000b39 	andeq	r0, r0, r9, lsr fp
    1398:	01110100 	tsteq	r1, r0, lsl #2
    139c:	0b130e25 	bleq	4c4c38 <__bss_end__+0x4bab18>
    13a0:	0e1b0e03 	cdpeq	14, 1, cr0, cr11, cr3, {0}
    13a4:	06120111 			; <UNDEFINED> instruction: 0x06120111
    13a8:	00001710 	andeq	r1, r0, r0, lsl r7
    13ac:	0b002402 	bleq	a3bc <__bss_end__+0x29c>
    13b0:	030b3e0b 	movweq	r3, #48651	; 0xbe0b
    13b4:	03000008 	movweq	r0, #8
    13b8:	0e030016 	mcreq	0, 0, r0, cr3, cr6, {0}
    13bc:	0b3b0b3a 	bleq	ec40ac <__bss_end__+0xeb9f8c>
    13c0:	13490b39 	movtne	r0, #39737	; 0x9b39
    13c4:	24040000 	strcs	r0, [r4], #-0
    13c8:	3e0b0b00 	vmlacc.f64	d0, d11, d0
    13cc:	000e030b 	andeq	r0, lr, fp, lsl #6
    13d0:	01150500 	tsteq	r5, r0, lsl #10
    13d4:	13491927 	movtne	r1, #39207	; 0x9927
    13d8:	00001301 	andeq	r1, r0, r1, lsl #6
    13dc:	49000506 	stmdbmi	r0, {r1, r2, r8, sl}
    13e0:	07000013 	smladeq	r0, r3, r0, r0
    13e4:	0e030034 	mcreq	0, 0, r0, cr3, cr4, {1}
    13e8:	0b3b0b3a 	bleq	ec40d8 <__bss_end__+0xeb9fb8>
    13ec:	13490b39 	movtne	r0, #39737	; 0x9b39
    13f0:	193c193f 	ldmdbne	ip!, {r0, r1, r2, r3, r4, r5, r8, fp, ip}
    13f4:	0f080000 	svceq	0x00080000
    13f8:	490b0b00 	stmdbmi	fp, {r8, r9, fp}
    13fc:	09000013 	stmdbeq	r0, {r0, r1, r4}
    1400:	13490026 	movtne	r0, #36902	; 0x9026
    1404:	2e0a0000 	cdpcs	0, 0, cr0, cr10, cr0, {0}
    1408:	03193f01 	tsteq	r9, #1, 30
    140c:	3b0b3a0e 	blcc	2cfc4c <__bss_end__+0x2c5b2c>
    1410:	270b390b 	strcs	r3, [fp, -fp, lsl #18]
    1414:	11134919 	tstne	r3, r9, lsl r9
    1418:	40061201 	andmi	r1, r6, r1, lsl #4
    141c:	19429718 	stmdbne	r2, {r3, r4, r8, r9, sl, ip, pc}^
    1420:	00001301 	andeq	r1, r0, r1, lsl #6
    1424:	0300050b 	movweq	r0, #1291	; 0x50b
    1428:	3b0b3a08 	blcc	2cfc50 <__bss_end__+0x2c5b30>
    142c:	490b390b 	stmdbmi	fp, {r0, r1, r3, r8, fp, ip, sp}
    1430:	00180213 	andseq	r0, r8, r3, lsl r2
    1434:	00050c00 	andeq	r0, r5, r0, lsl #24
    1438:	0b3a0803 	bleq	e8344c <__bss_end__+0xe7932c>
    143c:	0b390b3b 	bleq	e44130 <__bss_end__+0xe3a010>
    1440:	17021349 	strne	r1, [r2, -r9, asr #6]
    1444:	001742b7 			; <UNDEFINED> instruction: 0x001742b7
    1448:	00340d00 	eorseq	r0, r4, r0, lsl #26
    144c:	0b3a0803 	bleq	e83460 <__bss_end__+0xe79340>
    1450:	0b390b3b 	bleq	e44144 <__bss_end__+0xe3a024>
    1454:	17021349 	strne	r1, [r2, -r9, asr #6]
    1458:	001742b7 			; <UNDEFINED> instruction: 0x001742b7
    145c:	000f0e00 	andeq	r0, pc, r0, lsl #28
    1460:	00000b0b 	andeq	r0, r0, fp, lsl #22
    1464:	01110100 	tsteq	r1, r0, lsl #2
    1468:	0b130e25 	bleq	4c4d04 <__bss_end__+0x4babe4>
    146c:	0e1b0e03 	cdpeq	14, 1, cr0, cr11, cr3, {0}
    1470:	06120111 			; <UNDEFINED> instruction: 0x06120111
    1474:	00001710 	andeq	r1, r0, r0, lsl r7
    1478:	0b002402 	bleq	a488 <__bss_end__+0x368>
    147c:	030b3e0b 	movweq	r3, #48651	; 0xbe0b
    1480:	03000008 	movweq	r0, #8
    1484:	0b0b0024 	bleq	2c151c <__bss_end__+0x2b73fc>
    1488:	0e030b3e 	vmoveq.16	d3[0], r0
    148c:	15040000 	strne	r0, [r4, #-0]
    1490:	49192701 	ldmdbmi	r9, {r0, r8, r9, sl, sp}
    1494:	00130113 	andseq	r0, r3, r3, lsl r1
    1498:	00050500 	andeq	r0, r5, r0, lsl #10
    149c:	00001349 	andeq	r1, r0, r9, asr #6
    14a0:	03003406 	movweq	r3, #1030	; 0x406
    14a4:	3b0b3a0e 	blcc	2cfce4 <__bss_end__+0x2c5bc4>
    14a8:	490b390b 	stmdbmi	fp, {r0, r1, r3, r8, fp, ip, sp}
    14ac:	3c193f13 	ldccc	15, cr3, [r9], {19}
    14b0:	07000019 	smladeq	r0, r9, r0, r0
    14b4:	0b0b000f 	bleq	2c14f8 <__bss_end__+0x2b73d8>
    14b8:	00001349 	andeq	r1, r0, r9, asr #6
    14bc:	49002608 	stmdbmi	r0, {r3, r9, sl, sp}
    14c0:	09000013 	stmdbeq	r0, {r0, r1, r4}
    14c4:	13470034 	movtne	r0, #28724	; 0x7034
    14c8:	0b3b0b3a 	bleq	ec41b8 <__bss_end__+0xeba098>
    14cc:	18020b39 	stmdane	r2, {r0, r3, r4, r5, r8, r9, fp}
    14d0:	2e0a0000 	cdpcs	0, 0, cr0, cr10, cr0, {0}
    14d4:	03193f01 	tsteq	r9, #1, 30
    14d8:	3b0b3a0e 	blcc	2cfd18 <__bss_end__+0x2c5bf8>
    14dc:	270b390b 	strcs	r3, [fp, -fp, lsl #18]
    14e0:	12011119 	andne	r1, r1, #1073741830	; 0x40000006
    14e4:	97184006 	ldrls	r4, [r8, -r6]
    14e8:	13011942 	movwne	r1, #6466	; 0x1942
    14ec:	050b0000 	streq	r0, [fp, #-0]
    14f0:	3a080300 	bcc	2020f8 <__bss_end__+0x1f7fd8>
    14f4:	390b3b0b 	stmdbcc	fp, {r0, r1, r3, r8, r9, fp, ip, sp}
    14f8:	0213490b 	andseq	r4, r3, #180224	; 0x2c000
    14fc:	0c000018 	stceq	0, cr0, [r0], {24}
    1500:	193f002e 	ldmdbne	pc!, {r1, r2, r3, r5}	; <UNPREDICTABLE>
    1504:	0b3a0e03 	bleq	e84d18 <__bss_end__+0xe7abf8>
    1508:	0b390b3b 	bleq	e441fc <__bss_end__+0xe3a0dc>
    150c:	01111927 	tsteq	r1, r7, lsr #18
    1510:	18400612 	stmdane	r0, {r1, r4, r9, sl}^
    1514:	00194297 	mulseq	r9, r7, r2
    1518:	012e0d00 			; <UNDEFINED> instruction: 0x012e0d00
    151c:	0b3a0e03 	bleq	e84d30 <__bss_end__+0xe7ac10>
    1520:	0b390b3b 	bleq	e44214 <__bss_end__+0xe3a0f4>
    1524:	13491927 	movtne	r1, #39207	; 0x9927
    1528:	06120111 			; <UNDEFINED> instruction: 0x06120111
    152c:	42971840 	addsmi	r1, r7, #64, 16	; 0x400000
    1530:	00130119 	andseq	r0, r3, r9, lsl r1
    1534:	00050e00 	andeq	r0, r5, r0, lsl #28
    1538:	0b3a0803 	bleq	e8354c <__bss_end__+0xe7942c>
    153c:	0b390b3b 	bleq	e44230 <__bss_end__+0xe3a110>
    1540:	17021349 	strne	r1, [r2, -r9, asr #6]
    1544:	001742b7 			; <UNDEFINED> instruction: 0x001742b7
    1548:	82890f00 	addhi	r0, r9, #0, 30
    154c:	01110101 	tsteq	r1, r1, lsl #2
    1550:	00001331 	andeq	r1, r0, r1, lsr r3
    1554:	01828a10 	orreq	r8, r2, r0, lsl sl
    1558:	91180200 	tstls	r8, r0, lsl #4
    155c:	00001842 	andeq	r1, r0, r2, asr #16
    1560:	3f002e11 	svccc	0x00002e11
    1564:	6e193c19 	mrcvs	12, 0, r3, cr9, cr9, {0}
    1568:	3a0e030e 	bcc	3821a8 <__bss_end__+0x378088>
    156c:	390b3b0b 	stmdbcc	fp, {r0, r1, r3, r8, r9, fp, ip, sp}
    1570:	0000000b 	andeq	r0, r0, fp
    1574:	25011101 	strcs	r1, [r1, #-257]	; 0xfffffeff
    1578:	030b130e 	movweq	r1, #45838	; 0xb30e
    157c:	110e1b0e 	tstne	lr, lr, lsl #22
    1580:	10061201 	andne	r1, r6, r1, lsl #4
    1584:	02000017 	andeq	r0, r0, #23, 0
    1588:	0b0b0024 	bleq	2c1620 <__bss_end__+0x2b7500>
    158c:	08030b3e 	stmdaeq	r3, {r1, r2, r3, r4, r5, r8, r9, fp}
    1590:	24030000 	strcs	r0, [r3], #-0
    1594:	3e0b0b00 	vmlacc.f64	d0, d11, d0
    1598:	000e030b 	andeq	r0, lr, fp, lsl #6
    159c:	01150400 	tsteq	r5, r0, lsl #8
    15a0:	13491927 	movtne	r1, #39207	; 0x9927
    15a4:	00001301 	andeq	r1, r0, r1, lsl #6
    15a8:	49000505 	stmdbmi	r0, {r0, r2, r8, sl}
    15ac:	06000013 			; <UNDEFINED> instruction: 0x06000013
    15b0:	0e030034 	mcreq	0, 0, r0, cr3, cr4, {1}
    15b4:	0b3b0b3a 	bleq	ec42a4 <__bss_end__+0xeba184>
    15b8:	13490b39 	movtne	r0, #39737	; 0x9b39
    15bc:	193c193f 	ldmdbne	ip!, {r0, r1, r2, r3, r4, r5, r8, fp, ip}
    15c0:	0f070000 	svceq	0x00070000
    15c4:	490b0b00 	stmdbmi	fp, {r8, r9, fp}
    15c8:	08000013 	stmdaeq	r0, {r0, r1, r4}
    15cc:	13490026 	movtne	r0, #36902	; 0x9026
    15d0:	2e090000 	cdpcs	0, 0, cr0, cr9, cr0, {0}
    15d4:	03193f01 	tsteq	r9, #1, 30
    15d8:	3b0b3a0e 	blcc	2cfe18 <__bss_end__+0x2c5cf8>
    15dc:	270b390b 	strcs	r3, [fp, -fp, lsl #18]
    15e0:	11134919 	tstne	r3, r9, lsl r9
    15e4:	40061201 	andmi	r1, r6, r1, lsl #4
    15e8:	19429718 	stmdbne	r2, {r3, r4, r8, r9, sl, ip, pc}^
    15ec:	00001301 	andeq	r1, r0, r1, lsl #6
    15f0:	0300050a 	movweq	r0, #1290	; 0x50a
    15f4:	3b0b3a0e 	blcc	2cfe34 <__bss_end__+0x2c5d14>
    15f8:	490b390b 	stmdbmi	fp, {r0, r1, r3, r8, fp, ip, sp}
    15fc:	00180213 	andseq	r0, r8, r3, lsl r2
    1600:	00050b00 	andeq	r0, r5, r0, lsl #22
    1604:	0b3a0803 	bleq	e83618 <__bss_end__+0xe794f8>
    1608:	0b390b3b 	bleq	e442fc <__bss_end__+0xe3a1dc>
    160c:	17021349 	strne	r1, [r2, -r9, asr #6]
    1610:	001742b7 			; <UNDEFINED> instruction: 0x001742b7
    1614:	00340c00 	eorseq	r0, r4, r0, lsl #24
    1618:	0b3a0803 	bleq	e8362c <__bss_end__+0xe7950c>
    161c:	0b390b3b 	bleq	e44310 <__bss_end__+0xe3a1f0>
    1620:	17021349 	strne	r1, [r2, -r9, asr #6]
    1624:	001742b7 			; <UNDEFINED> instruction: 0x001742b7
    1628:	11010000 	mrsne	r0, (UNDEF: 1)
    162c:	130e2501 	movwne	r2, #58625	; 0xe501
    1630:	1b0e030b 	blne	382264 <__bss_end__+0x378144>
    1634:	1201110e 	andne	r1, r1, #-2147483645	; 0x80000003
    1638:	00171006 	andseq	r1, r7, r6
    163c:	00240200 	eoreq	r0, r4, r0, lsl #4
    1640:	0b3e0b0b 	bleq	f84274 <__bss_end__+0xf7a154>
    1644:	00000803 	andeq	r0, r0, r3, lsl #16
    1648:	0b002403 	bleq	a65c <__bss_end__+0x53c>
    164c:	030b3e0b 	movweq	r3, #48651	; 0xbe0b
    1650:	0400000e 	streq	r0, [r0], #-14
    1654:	19270115 	stmdbne	r7!, {r0, r2, r4, r8}
    1658:	13011349 	movwne	r1, #4937	; 0x1349
    165c:	05050000 	streq	r0, [r5, #-0]
    1660:	00134900 	andseq	r4, r3, r0, lsl #18
    1664:	00340600 	eorseq	r0, r4, r0, lsl #12
    1668:	0b3a0e03 	bleq	e84e7c <__bss_end__+0xe7ad5c>
    166c:	0b390b3b 	bleq	e44360 <__bss_end__+0xe3a240>
    1670:	193f1349 	ldmdbne	pc!, {r0, r3, r6, r8, r9, ip}	; <UNPREDICTABLE>
    1674:	0000193c 	andeq	r1, r0, ip, lsr r9
    1678:	0b000f07 	bleq	529c <__code_start__-0x2d64>
    167c:	0013490b 	andseq	r4, r3, fp, lsl #18
    1680:	00260800 	eoreq	r0, r6, r0, lsl #16
    1684:	00001349 	andeq	r1, r0, r9, asr #6
    1688:	3f012e09 	svccc	0x00012e09
    168c:	3a0e0319 	bcc	3822f8 <__bss_end__+0x3781d8>
    1690:	390b3b0b 	stmdbcc	fp, {r0, r1, r3, r8, r9, fp, ip, sp}
    1694:	4919270b 	ldmdbmi	r9, {r0, r1, r3, r8, r9, sl, sp}
    1698:	12011113 	andne	r1, r1, #-1073741820	; 0xc0000004
    169c:	97184006 	ldrls	r4, [r8, -r6]
    16a0:	00001942 	andeq	r1, r0, r2, asr #18
    16a4:	0300050a 	movweq	r0, #1290	; 0x50a
    16a8:	3b0b3a08 	blcc	2cfed0 <__bss_end__+0x2c5db0>
    16ac:	490b390b 	stmdbmi	fp, {r0, r1, r3, r8, fp, ip, sp}
    16b0:	b7170213 			; <UNDEFINED> instruction: 0xb7170213
    16b4:	00001742 	andeq	r1, r0, r2, asr #14
    16b8:	01110100 	tsteq	r1, r0, lsl #2
    16bc:	0b130e25 	bleq	4c4f58 <__bss_end__+0x4bae38>
    16c0:	0e1b0e03 	cdpeq	14, 1, cr0, cr11, cr3, {0}
    16c4:	06120111 			; <UNDEFINED> instruction: 0x06120111
    16c8:	00001710 	andeq	r1, r0, r0, lsl r7
    16cc:	0b002402 	bleq	a6dc <__bss_end__+0x5bc>
    16d0:	030b3e0b 	movweq	r3, #48651	; 0xbe0b
    16d4:	03000008 	movweq	r0, #8
    16d8:	0b0b0024 	bleq	2c1770 <__bss_end__+0x2b7650>
    16dc:	0e030b3e 	vmoveq.16	d3[0], r0
    16e0:	15040000 	strne	r0, [r4, #-0]
    16e4:	49192701 	ldmdbmi	r9, {r0, r8, r9, sl, sp}
    16e8:	00130113 	andseq	r0, r3, r3, lsl r1
    16ec:	00050500 	andeq	r0, r5, r0, lsl #10
    16f0:	00001349 	andeq	r1, r0, r9, asr #6
    16f4:	03003406 	movweq	r3, #1030	; 0x406
    16f8:	3b0b3a0e 	blcc	2cff38 <__bss_end__+0x2c5e18>
    16fc:	490b390b 	stmdbmi	fp, {r0, r1, r3, r8, fp, ip, sp}
    1700:	3c193f13 	ldccc	15, cr3, [r9], {19}
    1704:	07000019 	smladeq	r0, r9, r0, r0
    1708:	0b0b000f 	bleq	2c174c <__bss_end__+0x2b762c>
    170c:	00001349 	andeq	r1, r0, r9, asr #6
    1710:	49002608 	stmdbmi	r0, {r3, r9, sl, sp}
    1714:	09000013 	stmdbeq	r0, {r0, r1, r4}
    1718:	193f012e 	ldmdbne	pc!, {r1, r2, r3, r5, r8}	; <UNPREDICTABLE>
    171c:	0b3a0e03 	bleq	e84f30 <__bss_end__+0xe7ae10>
    1720:	0b390b3b 	bleq	e44414 <__bss_end__+0xe3a2f4>
    1724:	13491927 	movtne	r1, #39207	; 0x9927
    1728:	06120111 			; <UNDEFINED> instruction: 0x06120111
    172c:	42971840 	addsmi	r1, r7, #64, 16	; 0x400000
    1730:	00130119 	andseq	r0, r3, r9, lsl r1
    1734:	00050a00 	andeq	r0, r5, r0, lsl #20
    1738:	0b3a0803 	bleq	e8374c <__bss_end__+0xe7962c>
    173c:	0b390b3b 	bleq	e44430 <__bss_end__+0xe3a310>
    1740:	18021349 	stmdane	r2, {r0, r3, r6, r8, r9, ip}
    1744:	050b0000 	streq	r0, [fp, #-0]
    1748:	3a080300 	bcc	202350 <__bss_end__+0x1f8230>
    174c:	390b3b0b 	stmdbcc	fp, {r0, r1, r3, r8, r9, fp, ip, sp}
    1750:	0213490b 	andseq	r4, r3, #180224	; 0x2c000
    1754:	1742b717 	smlaldne	fp, r2, r7, r7
    1758:	340c0000 	strcc	r0, [ip], #-0
    175c:	3a080300 	bcc	202364 <__bss_end__+0x1f8244>
    1760:	390b3b0b 	stmdbcc	fp, {r0, r1, r3, r8, r9, fp, ip, sp}
    1764:	0213490b 	andseq	r4, r3, #180224	; 0x2c000
    1768:	1742b717 	smlaldne	fp, r2, r7, r7
    176c:	01000000 	mrseq	r0, (UNDEF: 0)
    1770:	0e250111 	mcreq	1, 1, r0, cr5, cr1, {0}
    1774:	0e030b13 	vmoveq.32	d3[0], r0
    1778:	01110e1b 	tsteq	r1, fp, lsl lr
    177c:	17100612 			; <UNDEFINED> instruction: 0x17100612
    1780:	24020000 	strcs	r0, [r2], #-0
    1784:	3e0b0b00 	vmlacc.f64	d0, d11, d0
    1788:	0008030b 	andeq	r0, r8, fp, lsl #6
    178c:	00160300 	andseq	r0, r6, r0, lsl #6
    1790:	0b3a0e03 	bleq	e84fa4 <__bss_end__+0xe7ae84>
    1794:	0b390b3b 	bleq	e44488 <__bss_end__+0xe3a368>
    1798:	00001349 	andeq	r1, r0, r9, asr #6
    179c:	0b002404 	bleq	a7b4 <__bss_end__+0x694>
    17a0:	030b3e0b 	movweq	r3, #48651	; 0xbe0b
    17a4:	0500000e 	streq	r0, [r0, #-14]
    17a8:	13490026 	movtne	r0, #36902	; 0x9026
    17ac:	15060000 	strne	r0, [r6, #-0]
    17b0:	49192701 	ldmdbmi	r9, {r0, r8, r9, sl, sp}
    17b4:	00130113 	andseq	r0, r3, r3, lsl r1
    17b8:	00050700 	andeq	r0, r5, r0, lsl #14
    17bc:	00001349 	andeq	r1, r0, r9, asr #6
    17c0:	03003408 	movweq	r3, #1032	; 0x408
    17c4:	3b0b3a0e 	blcc	2d0004 <__bss_end__+0x2c5ee4>
    17c8:	490b390b 	stmdbmi	fp, {r0, r1, r3, r8, fp, ip, sp}
    17cc:	3c193f13 	ldccc	15, cr3, [r9], {19}
    17d0:	09000019 	stmdbeq	r0, {r0, r3, r4}
    17d4:	0b0b000f 	bleq	2c1818 <__bss_end__+0x2b76f8>
    17d8:	00001349 	andeq	r1, r0, r9, asr #6
    17dc:	3f012e0a 	svccc	0x00012e0a
    17e0:	3a0e0319 	bcc	38244c <__bss_end__+0x37832c>
    17e4:	390b3b0b 	stmdbcc	fp, {r0, r1, r3, r8, r9, fp, ip, sp}
    17e8:	4919270b 	ldmdbmi	r9, {r0, r1, r3, r8, r9, sl, sp}
    17ec:	12011113 	andne	r1, r1, #-1073741820	; 0xc0000004
    17f0:	97184006 	ldrls	r4, [r8, -r6]
    17f4:	13011942 	movwne	r1, #6466	; 0x1942
    17f8:	050b0000 	streq	r0, [fp, #-0]
    17fc:	3a080300 	bcc	202404 <__bss_end__+0x1f82e4>
    1800:	390b3b0b 	stmdbcc	fp, {r0, r1, r3, r8, r9, fp, ip, sp}
    1804:	0213490b 	andseq	r4, r3, #180224	; 0x2c000
    1808:	1742b717 	smlaldne	fp, r2, r7, r7
    180c:	340c0000 	strcc	r0, [ip], #-0
    1810:	3a080300 	bcc	202418 <__bss_end__+0x1f82f8>
    1814:	390b3b0b 	stmdbcc	fp, {r0, r1, r3, r8, r9, fp, ip, sp}
    1818:	0213490b 	andseq	r4, r3, #180224	; 0x2c000
    181c:	1742b717 	smlaldne	fp, r2, r7, r7
    1820:	01000000 	mrseq	r0, (UNDEF: 0)
    1824:	0e250111 	mcreq	1, 1, r0, cr5, cr1, {0}
    1828:	0e030b13 	vmoveq.32	d3[0], r0
    182c:	01110e1b 	tsteq	r1, fp, lsl lr
    1830:	17100612 			; <UNDEFINED> instruction: 0x17100612
    1834:	24020000 	strcs	r0, [r2], #-0
    1838:	3e0b0b00 	vmlacc.f64	d0, d11, d0
    183c:	0008030b 	andeq	r0, r8, fp, lsl #6
    1840:	00240300 	eoreq	r0, r4, r0, lsl #6
    1844:	0b3e0b0b 	bleq	f84478 <__bss_end__+0xf7a358>
    1848:	00000e03 	andeq	r0, r0, r3, lsl #28
    184c:	27011504 	strcs	r1, [r1, -r4, lsl #10]
    1850:	01134919 	tsteq	r3, r9, lsl r9
    1854:	05000013 	streq	r0, [r0, #-19]	; 0xffffffed
    1858:	13490005 	movtne	r0, #36869	; 0x9005
    185c:	34060000 	strcc	r0, [r6], #-0
    1860:	3a0e0300 	bcc	382468 <__bss_end__+0x378348>
    1864:	390b3b0b 	stmdbcc	fp, {r0, r1, r3, r8, r9, fp, ip, sp}
    1868:	3f13490b 	svccc	0x0013490b
    186c:	00193c19 	andseq	r3, r9, r9, lsl ip
    1870:	000f0700 	andeq	r0, pc, r0, lsl #14
    1874:	13490b0b 	movtne	r0, #39691	; 0x9b0b
    1878:	26080000 	strcs	r0, [r8], -r0
    187c:	00134900 	andseq	r4, r3, r0, lsl #18
    1880:	002e0900 	eoreq	r0, lr, r0, lsl #18
    1884:	0e03193f 			; <UNDEFINED> instruction: 0x0e03193f
    1888:	0b3b0b3a 	bleq	ec4578 <__bss_end__+0xeba458>
    188c:	19270b39 	stmdbne	r7!, {r0, r3, r4, r5, r8, r9, fp}
    1890:	06120111 			; <UNDEFINED> instruction: 0x06120111
    1894:	42971840 	addsmi	r1, r7, #64, 16	; 0x400000
    1898:	00000019 	andeq	r0, r0, r9, lsl r0

Disassembly of section .debug_loc:

00000000 <.debug_loc>:
       0:	02000000 	andeq	r0, r0, #0, 0
       4:	00000002 	andeq	r0, r0, r2
       8:	00000014 	andeq	r0, r0, r4, lsl r0
       c:	00000018 	andeq	r0, r0, r8, lsl r0
      10:	18500001 	ldmdane	r0, {r0}^
      14:	5c000000 	stcpl	0, cr0, [r0], {-0}
      18:	01000000 	mrseq	r0, (UNDEF: 0)
      1c:	005c5600 	subseq	r5, ip, r0, lsl #12
      20:	007c0000 	rsbseq	r0, ip, r0
      24:	00010000 	andeq	r0, r1, r0
      28:	00007c54 	andeq	r7, r0, r4, asr ip
      2c:	0000b400 	andeq	fp, r0, r0, lsl #8
      30:	56000100 	strpl	r0, [r0], -r0, lsl #2
	...
      3c:	00000002 	andeq	r0, r0, r2
      40:	00000014 	andeq	r0, r0, r4, lsl r0
      44:	00000018 	andeq	r0, r0, r8, lsl r0
      48:	9f300002 	svcls	0x00300002
      4c:	00000018 	andeq	r0, r0, r8, lsl r0
      50:	000000b4 	strheq	r0, [r0], -r4
      54:	00550001 	subseq	r0, r5, r1
	...
      60:	2c000000 	stccs	0, cr0, [r0], {-0}
      64:	30000000 	andcc	r0, r0, r0
      68:	01000000 	mrseq	r0, (UNDEF: 0)
      6c:	00305000 	eorseq	r5, r0, r0
      70:	00980000 	addseq	r0, r8, r0
      74:	00010000 	andeq	r0, r1, r0
      78:	00000054 	andeq	r0, r0, r4, asr r0
	...
      84:	00005400 	andeq	r5, r0, r0, lsl #8
      88:	00006000 	andeq	r6, r0, r0
      8c:	50000100 	andpl	r0, r0, r0, lsl #2
      90:	0000007c 	andeq	r0, r0, ip, ror r0
      94:	00000090 	muleq	r0, r0, r0
      98:	00500001 	subseq	r0, r0, r1
	...
      a8:	08000000 	stmdaeq	r0, {}	; <UNPREDICTABLE>
      ac:	78000000 	stmdavc	r0, {}	; <UNPREDICTABLE>
      b0:	01000000 	mrseq	r0, (UNDEF: 0)
      b4:	00785100 	rsbseq	r5, r8, r0, lsl #2
      b8:	00840000 	addeq	r0, r4, r0
      bc:	00030000 	andeq	r0, r3, r0
      c0:	849f7870 	ldrhi	r7, [pc], #2160	; c8 <__code_start__-0x7f38>
      c4:	a4000000 	strge	r0, [r0], #-0
      c8:	01000000 	mrseq	r0, (UNDEF: 0)
      cc:	00a45100 	adceq	r5, r4, r0, lsl #2
      d0:	00bc0000 	adcseq	r0, ip, r0
      d4:	00030000 	andeq	r0, r3, r0
      d8:	009f7870 	addseq	r7, pc, r0, ror r8	; <UNPREDICTABLE>
	...
      e4:	10000000 	andne	r0, r0, r0
      e8:	48000000 	stmdami	r0, {}	; <UNPREDICTABLE>
      ec:	01000000 	mrseq	r0, (UNDEF: 0)
      f0:	004c5300 	subeq	r5, ip, r0, lsl #6
      f4:	00bc0000 	adcseq	r0, ip, r0
      f8:	00010000 	andeq	r0, r1, r0
      fc:	00000053 	andeq	r0, r0, r3, asr r0
	...
     10c:	00010000 	andeq	r0, r1, r0
     110:	00012400 	andeq	r2, r1, r0, lsl #8
     114:	50000100 	andpl	r0, r0, r0, lsl #2
     118:	00000124 	andeq	r0, r0, r4, lsr #2
     11c:	00000128 	andeq	r0, r0, r8, lsr #2
     120:	01f30004 	mvnseq	r0, r4
     124:	01289f50 			; <UNDEFINED> instruction: 0x01289f50
     128:	01400000 	mrseq	r0, (UNDEF: 64)
     12c:	00010000 	andeq	r0, r1, r0
     130:	00014050 	andeq	r4, r1, r0, asr r0
     134:	0001ac00 	andeq	sl, r1, r0, lsl #24
     138:	f3000400 	vshl.u8	d0, d0, d0
     13c:	009f5001 	addseq	r5, pc, r1
	...
     14c:	01010000 	mrseq	r0, (UNDEF: 1)
     150:	00000000 	andeq	r0, r0, r0
     154:	00012400 	andeq	r2, r1, r0, lsl #8
     158:	00012800 	andeq	r2, r1, r0, lsl #16
     15c:	50000100 	andpl	r0, r0, r0, lsl #2
     160:	00000140 	andeq	r0, r0, r0, asr #2
     164:	00000160 	andeq	r0, r0, r0, ror #2
     168:	60500001 	subsvs	r0, r0, r1
     16c:	64000001 	strvs	r0, [r0], #-1
     170:	03000001 	movweq	r0, #1
     174:	9f787000 	svcls	0x00787000
     178:	00000164 	andeq	r0, r0, r4, ror #2
     17c:	00000170 	andeq	r0, r0, r0, ror r1
     180:	70500001 	subsvc	r0, r0, r1
     184:	78000001 	stmdavc	r0, {r0}
     188:	02000001 	andeq	r0, r0, #1, 0
     18c:	78007000 	stmdavc	r0, {ip, sp, lr}
     190:	98000001 	stmdals	r0, {r0}
     194:	01000001 	tsteq	r0, r1
     198:	019c5000 	orrseq	r5, ip, r0
     19c:	01ac0000 			; <UNDEFINED> instruction: 0x01ac0000
     1a0:	00010000 	andeq	r0, r1, r0
     1a4:	00000050 	andeq	r0, r0, r0, asr r0
     1a8:	00000000 	andeq	r0, r0, r0
     1ac:	01010000 	mrseq	r0, (UNDEF: 1)
     1b0:	01000000 	mrseq	r0, (UNDEF: 0)
     1b4:	18000000 	stmdane	r0, {}	; <UNPREDICTABLE>
     1b8:	28000001 	stmdacs	r0, {r0}
     1bc:	01000001 	tsteq	r0, r1
     1c0:	01285200 			; <UNDEFINED> instruction: 0x01285200
     1c4:	01400000 	mrseq	r0, (UNDEF: 64)
     1c8:	00060000 	andeq	r0, r6, r0
     1cc:	009d1003 	addseq	r1, sp, r3
     1d0:	01409f00 	cmpeq	r0, r0, lsl #30
     1d4:	01700000 	cmneq	r0, r0
     1d8:	00010000 	andeq	r0, r1, r0
     1dc:	00017052 	andeq	r7, r1, r2, asr r0
     1e0:	00017800 	andeq	r7, r1, r0, lsl #16
     1e4:	50000100 	andpl	r0, r0, r0, lsl #2
     1e8:	00000178 	andeq	r0, r0, r8, ror r1
     1ec:	0000019b 	muleq	r0, fp, r1
     1f0:	00520001 	subseq	r0, r2, r1
	...
     1fc:	00011000 	andeq	r1, r1, r0
     200:	0001ac00 	andeq	sl, r1, r0, lsl #24
     204:	54000100 	strpl	r0, [r0], #-256	; 0xffffff00
	...
     214:	000000bc 	strheq	r0, [r0], -ip
     218:	000000cc 	andeq	r0, r0, ip, asr #1
     21c:	cc500001 	mrrcgt	0, 0, r0, r0, cr1	; <UNPREDICTABLE>
     220:	00000000 	andeq	r0, r0, r0
     224:	01000001 	tsteq	r0, r1
     228:	00005400 	andeq	r5, r0, r0, lsl #8
	...
     238:	000000d4 	ldrdeq	r0, [r0], -r4
     23c:	000000e4 	andeq	r0, r0, r4, ror #1
     240:	e4500001 	ldrb	r0, [r0], #-1
     244:	e7000000 	str	r0, [r0, -r0]
     248:	03000000 	movweq	r0, #0
     24c:	9f787000 	svcls	0x00787000
     250:	000000f4 	strdeq	r0, [r0], -r4
     254:	000000f8 	strdeq	r0, [r0], -r8
     258:	00500001 	subseq	r0, r0, r1
     25c:	00000000 	andeq	r0, r0, r0
     260:	01000000 	mrseq	r0, (UNDEF: 0)
     264:	dc000000 	stcle	0, cr0, [r0], {-0}
     268:	e4000000 	str	r0, [r0], #-0
     26c:	01000000 	mrseq	r0, (UNDEF: 0)
     270:	00e45000 	rsceq	r5, r4, r0
     274:	00e70000 	rsceq	r0, r7, r0
     278:	00030000 	andeq	r0, r3, r0
     27c:	009f7870 	addseq	r7, pc, r0, ror r8	; <UNPREDICTABLE>
	...
     28c:	07000000 	streq	r0, [r0, -r0]
     290:	01000000 	mrseq	r0, (UNDEF: 0)
     294:	00075000 	andeq	r5, r7, r0
     298:	000c0000 	andeq	r0, ip, r0
     29c:	00040000 	andeq	r0, r4, r0
     2a0:	9f5001f3 	svcls	0x005001f3
	...
     2b0:	002c0000 	eoreq	r0, ip, r0
     2b4:	00340000 	eorseq	r0, r4, r0
     2b8:	00010000 	andeq	r0, r1, r0
     2bc:	00003450 	andeq	r3, r0, r0, asr r4
     2c0:	00004800 	andeq	r4, r0, r0, lsl #16
     2c4:	54000100 	strpl	r0, [r0], #-256	; 0xffffff00
     2c8:	00000048 	andeq	r0, r0, r8, asr #32
     2cc:	00000058 	andeq	r0, r0, r8, asr r0
     2d0:	00500001 	subseq	r0, r0, r1
	...
     2dc:	01010000 	mrseq	r0, (UNDEF: 1)
     2e0:	00000000 	andeq	r0, r0, r0
     2e4:	0c000000 	stceq	0, cr0, [r0], {-0}
     2e8:	01000000 	mrseq	r0, (UNDEF: 0)
     2ec:	000c5000 	andeq	r5, ip, r0
     2f0:	00200000 	eoreq	r0, r0, r0
     2f4:	00010000 	andeq	r0, r1, r0
     2f8:	00002054 	andeq	r2, r0, r4, asr r0
     2fc:	00002400 	andeq	r2, r0, r0, lsl #8
     300:	74000300 	strvc	r0, [r0], #-768	; 0xfffffd00
     304:	00249f01 	eoreq	r9, r4, r1, lsl #30
     308:	00380000 	eorseq	r0, r8, r0
     30c:	00010000 	andeq	r0, r1, r0
     310:	00000054 	andeq	r0, r0, r4, asr r0
	...
     320:	88000000 	stmdahi	r0, {}	; <UNPREDICTABLE>
     324:	94000003 	strls	r0, [r0], #-3
     328:	01000003 	tsteq	r0, r3
     32c:	03945000 	orrseq	r5, r4, #0, 0
     330:	03d00000 	bicseq	r0, r0, #0, 0
     334:	00010000 	andeq	r0, r1, r0
     338:	0003d05b 	andeq	sp, r3, fp, asr r0
     33c:	00092000 	andeq	r2, r9, r0
     340:	f3000400 	vshl.u8	d0, d0, d0
     344:	209f5001 	addscs	r5, pc, r1
     348:	28000009 	stmdacs	r0, {r0, r3}
     34c:	01000009 	tsteq	r0, r9
     350:	09285b00 	stmdbeq	r8!, {r8, r9, fp, ip, lr}
     354:	09b40000 	ldmibeq	r4!, {}	; <UNPREDICTABLE>
     358:	00040000 	andeq	r0, r4, r0
     35c:	9f5001f3 	svcls	0x005001f3
	...
     370:	00000388 	andeq	r0, r0, r8, lsl #7
     374:	000003d0 	ldrdeq	r0, [r0], -r0	; <UNPREDICTABLE>
     378:	d0510001 	subsle	r0, r1, r1
     37c:	20000003 	andcs	r0, r0, r3
     380:	04000009 	streq	r0, [r0], #-9
     384:	5101f300 	mrspl	pc, SP_irq	; <UNPREDICTABLE>
     388:	0009209f 	muleq	r9, pc, r0	; <UNPREDICTABLE>
     38c:	00092800 	andeq	r2, r9, r0, lsl #16
     390:	51000100 	mrspl	r0, (UNDEF: 16)
     394:	00000928 	andeq	r0, r0, r8, lsr #18
     398:	000009b4 			; <UNDEFINED> instruction: 0x000009b4
     39c:	01f30004 	mvnseq	r0, r4
     3a0:	00009f51 	andeq	r9, r0, r1, asr pc
	...
     3b0:	00000100 	andeq	r0, r0, r0, lsl #2
     3b4:	00000001 	andeq	r0, r0, r1
	...
     3c0:	03880000 	orreq	r0, r8, #0, 0
     3c4:	03d00000 	bicseq	r0, r0, #0, 0
     3c8:	00010000 	andeq	r0, r1, r0
     3cc:	0003d052 	andeq	sp, r3, r2, asr r0
     3d0:	00040000 	andeq	r0, r4, r0
     3d4:	56000100 	strpl	r0, [r0], -r0, lsl #2
     3d8:	00000414 	andeq	r0, r0, r4, lsl r4
     3dc:	00000424 	andeq	r0, r0, r4, lsr #8
     3e0:	24560001 	ldrbcs	r0, [r6], #-1
     3e4:	28000004 	stmdacs	r0, {r2}
     3e8:	03000004 	movweq	r0, #4
     3ec:	9f7f7600 	svcls	0x007f7600
     3f0:	000004a8 	andeq	r0, r0, r8, lsr #9
     3f4:	000004ac 	andeq	r0, r0, ip, lsr #9
     3f8:	e0560001 	subs	r0, r6, r1
     3fc:	04000004 	streq	r0, [r0], #-4
     400:	01000005 	tsteq	r0, r5
     404:	057c5600 	ldrbeq	r5, [ip, #-1536]!	; 0xfffffa00
     408:	05880000 	streq	r0, [r8]
     40c:	00010000 	andeq	r0, r1, r0
     410:	00058853 	andeq	r8, r5, r3, asr r8
     414:	0005d000 	andeq	sp, r5, r0
     418:	91000300 	mrsls	r0, LR_irq
     41c:	08007dcc 	stmdaeq	r0, {r2, r3, r6, r7, r8, sl, fp, ip, sp, lr}
     420:	080f0000 	stmdaeq	pc, {}	; <UNPREDICTABLE>
     424:	00010000 	andeq	r0, r1, r0
     428:	00080f53 	andeq	r0, r8, r3, asr pc
     42c:	00088800 	andeq	r8, r8, r0, lsl #16
     430:	91000300 	mrsls	r0, LR_irq
     434:	09207dcc 	stmdbeq	r0!, {r2, r3, r6, r7, r8, sl, fp, ip, sp, lr}
     438:	09280000 	stmdbeq	r8!, {}	; <UNPREDICTABLE>
     43c:	00010000 	andeq	r0, r1, r0
     440:	00094852 	andeq	r4, r9, r2, asr r8
     444:	00096400 	andeq	r6, r9, r0, lsl #8
     448:	91000300 	mrsls	r0, LR_irq
     44c:	00007dcc 	andeq	r7, r0, ip, asr #27
	...
     45c:	01000000 	mrseq	r0, (UNDEF: 0)
     460:	01000001 	tsteq	r0, r1
     464:	00000001 	andeq	r0, r0, r1
     468:	00020200 	andeq	r0, r2, r0, lsl #4
     46c:	00020200 	andeq	r0, r2, r0, lsl #4
     470:	00010100 	andeq	r0, r1, r0, lsl #2
     474:	00020200 	andeq	r0, r2, r0, lsl #4
     478:	00010100 	andeq	r0, r1, r0, lsl #2
	...
     484:	00000388 	andeq	r0, r0, r8, lsl #7
     488:	000003ac 	andeq	r0, r0, ip, lsr #7
     48c:	ac530001 	mrrcge	0, 0, r0, r3, cr1
     490:	c0000003 	andgt	r0, r0, r3
     494:	03000003 	movweq	r0, #3
     498:	04935300 	ldreq	r5, [r3], #768	; 0x300
     49c:	000003d0 	ldrdeq	r0, [r0], -r0	; <UNPREDICTABLE>
     4a0:	000003e8 	andeq	r0, r0, r8, ror #7
     4a4:	93580003 	cmpls	r8, #3, 0
     4a8:	0003e804 	andeq	lr, r3, r4, lsl #16
     4ac:	0004ac00 	andeq	sl, r4, r0, lsl #24
     4b0:	58000300 	stmdapl	r0, {r8, r9}
     4b4:	04c00493 	strbeq	r0, [r0], #1171	; 0x493
     4b8:	04c00000 	strbeq	r0, [r0], #0
     4bc:	00030000 	andeq	r0, r3, r0
     4c0:	c0049358 	andgt	r9, r4, r8, asr r3
     4c4:	cc000004 	stcgt	0, cr0, [r0], {4}
     4c8:	05000004 	streq	r0, [r0, #-4]
     4cc:	9f047800 	svcls	0x00047800
     4d0:	04cc0493 	strbeq	r0, [ip], #1171	; 0x493
     4d4:	04e00000 	strbteq	r0, [r0], #0
     4d8:	00030000 	andeq	r0, r3, r0
     4dc:	e0049358 	and	r9, r4, r8, asr r3
     4e0:	38000004 	stmdacc	r0, {r2}
     4e4:	03000005 	movweq	r0, #5
     4e8:	04935800 	ldreq	r5, [r3], #2048	; 0x800
     4ec:	00000538 	andeq	r0, r0, r8, lsr r5
     4f0:	0000053c 	andeq	r0, r0, ip, lsr r5
     4f4:	79780005 	ldmdbvc	r8!, {r0, r2}^
     4f8:	d004939f 	mulle	r4, pc, r3	; <UNPREDICTABLE>
     4fc:	d0000005 	andle	r0, r0, r5
     500:	03000005 	movweq	r0, #5
     504:	04935800 	ldreq	r5, [r3], #2048	; 0x800
     508:	000005d0 	ldrdeq	r0, [r0], -r0	; <UNPREDICTABLE>
     50c:	000005d4 	ldrdeq	r0, [r0], -r4
     510:	04780005 	ldrbteq	r0, [r8], #-5
     514:	f404939f 	vst2.32	{d9-d12}, [r4 :64]
     518:	f4000005 	vst4.8	{d0-d3}, [r0], r5
     51c:	03000005 	movweq	r0, #5
     520:	04935800 	ldreq	r5, [r3], #2048	; 0x800
     524:	000005f4 	strdeq	r0, [r0], -r4
     528:	000005fc 	strdeq	r0, [r0], -ip
     52c:	04780005 	ldrbteq	r0, [r8], #-5
     530:	fc04939f 	stc2	3, cr9, [r4], {159}	; 0x9f
     534:	fc000005 	stc2	0, cr0, [r0], {5}
     538:	03000005 	movweq	r0, #5
     53c:	04935800 	ldreq	r5, [r3], #2048	; 0x800
     540:	000005fc 	strdeq	r0, [r0], -ip
     544:	00000600 	andeq	r0, r0, r0, lsl #12
     548:	04780005 	ldrbteq	r0, [r8], #-5
     54c:	0004939f 	muleq	r4, pc, r3	; <UNPREDICTABLE>
     550:	00000006 	andeq	r0, r0, r6
     554:	03000007 	movweq	r0, #7
     558:	04935800 	ldreq	r5, [r3], #2048	; 0x800
     55c:	00000700 	andeq	r0, r0, r0, lsl #14
     560:	0000070c 	andeq	r0, r0, ip, lsl #14
     564:	04780005 	ldrbteq	r0, [r8], #-5
     568:	0c04939f 	stceq	3, cr9, [r4], {159}	; 0x9f
     56c:	f8000007 			; <UNDEFINED> instruction: 0xf8000007
     570:	03000007 	movweq	r0, #7
     574:	04935800 	ldreq	r5, [r3], #2048	; 0x800
     578:	000007f8 	strdeq	r0, [r0], -r8
     57c:	000007fc 	strdeq	r0, [r0], -ip
     580:	04780005 	ldrbteq	r0, [r8], #-5
     584:	fc04939f 	stc2	3, cr9, [r4], {159}	; 0x9f
     588:	00000007 	andeq	r0, r0, r7
     58c:	03000008 	movweq	r0, #8
     590:	04935800 	ldreq	r5, [r3], #2048	; 0x800
     594:	00000888 	andeq	r0, r0, r8, lsl #17
     598:	00000920 	andeq	r0, r0, r0, lsr #18
     59c:	93580003 	cmpls	r8, #3, 0
     5a0:	00092004 	andeq	r2, r9, r4
     5a4:	00092800 	andeq	r2, r9, r0, lsl #16
     5a8:	53000100 	movwpl	r0, #256	; 0x100
     5ac:	00000964 	andeq	r0, r0, r4, ror #18
     5b0:	000009b4 			; <UNDEFINED> instruction: 0x000009b4
     5b4:	93580003 	cmpls	r8, #3, 0
     5b8:	00000004 	andeq	r0, r0, r4
     5bc:	00000000 	andeq	r0, r0, r0
     5c0:	00000100 	andeq	r0, r0, r0, lsl #2
     5c4:	00000000 	andeq	r0, r0, r0
     5c8:	02020000 	andeq	r0, r2, #0, 0
     5cc:	01000000 	mrseq	r0, (UNDEF: 0)
     5d0:	00000101 	andeq	r0, r0, r1, lsl #2
     5d4:	ac000000 	stcge	0, cr0, [r0], {-0}
     5d8:	d0000003 	andle	r0, r0, r3
     5dc:	01000003 	tsteq	r0, r3
     5e0:	03d05b00 	bicseq	r5, r0, #0, 22
     5e4:	03d40000 	bicseq	r0, r4, #0, 0
     5e8:	00010000 	andeq	r0, r1, r0
     5ec:	0003d454 	andeq	sp, r3, r4, asr r4
     5f0:	0003d800 	andeq	sp, r3, r0, lsl #16
     5f4:	74000300 	strvc	r0, [r0], #-768	; 0xfffffd00
     5f8:	03d89f7f 	bicseq	r9, r8, #508	; 0x1fc
     5fc:	03fc0000 	mvnseq	r0, #0, 0
     600:	00010000 	andeq	r0, r1, r0
     604:	0004a854 	andeq	sl, r4, r4, asr r8
     608:	0004ac00 	andeq	sl, r4, r0, lsl #24
     60c:	54000100 	strpl	r0, [r0], #-256	; 0xffffff00
     610:	000004ac 	andeq	r0, r0, ip, lsr #9
     614:	000004b4 			; <UNDEFINED> instruction: 0x000004b4
     618:	01740003 	cmneq	r4, r3
     61c:	0004b49f 	muleq	r4, pc, r4	; <UNPREDICTABLE>
     620:	0004c000 	andeq	ip, r4, r0
     624:	54000100 	strpl	r0, [r0], #-256	; 0xffffff00
     628:	000004e4 	andeq	r0, r0, r4, ror #9
     62c:	000004f4 	strdeq	r0, [r0], -r4
     630:	f4540001 			; <UNDEFINED> instruction: 0xf4540001
     634:	f8000004 			; <UNDEFINED> instruction: 0xf8000004
     638:	03000004 	movweq	r0, #4
     63c:	9f017400 	svcls	0x00017400
     640:	000004f8 	strdeq	r0, [r0], -r8
     644:	00000504 	andeq	r0, r0, r4, lsl #10
     648:	20540001 	subscs	r0, r4, r1
     64c:	28000009 	stmdacs	r0, {r0, r3}
     650:	01000009 	tsteq	r0, r9
     654:	00005b00 	andeq	r5, r0, r0, lsl #22
     658:	00000000 	andeq	r0, r0, r0
     65c:	00010000 	andeq	r0, r1, r0
     660:	000003ac 	andeq	r0, r0, ip, lsr #7
     664:	000009b4 			; <UNDEFINED> instruction: 0x000009b4
     668:	00570001 	subseq	r0, r7, r1
     66c:	00000000 	andeq	r0, r0, r0
     670:	02000000 	andeq	r0, r0, #0, 0
     674:	00000000 	andeq	r0, r0, r0
     678:	00057c00 	andeq	r7, r5, r0, lsl #24
     67c:	0005d000 	andeq	sp, r5, r0
     680:	5b000100 	blpl	a88 <__code_start__-0x7578>
     684:	00000800 	andeq	r0, r0, r0, lsl #16
     688:	00000888 	andeq	r0, r0, r8, lsl #17
     68c:	485b0001 	ldmdami	fp, {r0}^
     690:	64000009 	strvs	r0, [r0], #-9
     694:	01000009 	tsteq	r0, r9
     698:	00005b00 	andeq	r5, r0, r0, lsl #22
     69c:	00000000 	andeq	r0, r0, r0
     6a0:	00030000 	andeq	r0, r3, r0
     6a4:	00000000 	andeq	r0, r0, r0
     6a8:	0000057c 	andeq	r0, r0, ip, ror r5
     6ac:	000005d0 	ldrdeq	r0, [r0], -r0	; <UNPREDICTABLE>
     6b0:	00590001 	subseq	r0, r9, r1
     6b4:	88000008 	stmdahi	r0, {r3}
     6b8:	01000008 	tsteq	r0, r8
     6bc:	09485900 	stmdbeq	r8, {r8, fp, ip, lr}^
     6c0:	09640000 	stmdbeq	r4!, {}^	; <UNPREDICTABLE>
     6c4:	00010000 	andeq	r0, r1, r0
     6c8:	00000059 	andeq	r0, r0, r9, asr r0
     6cc:	00000000 	andeq	r0, r0, r0
     6d0:	00000400 	andeq	r0, r0, r0, lsl #8
     6d4:	00000000 	andeq	r0, r0, r0
     6d8:	0003ac00 	andeq	sl, r3, r0, lsl #24
     6dc:	0003d000 	andeq	sp, r3, r0
     6e0:	52000100 	andpl	r0, r0, #0
     6e4:	000003d0 	ldrdeq	r0, [r0], -r0	; <UNPREDICTABLE>
     6e8:	00000920 	andeq	r0, r0, r0, lsr #18
     6ec:	01f30004 	mvnseq	r0, r4
     6f0:	09209f52 	stmdbeq	r0!, {r1, r4, r6, r8, r9, sl, fp, ip, pc}
     6f4:	09280000 	stmdbeq	r8!, {}	; <UNPREDICTABLE>
     6f8:	00010000 	andeq	r0, r1, r0
     6fc:	00092852 	andeq	r2, r9, r2, asr r8
     700:	0009b400 	andeq	fp, r9, r0, lsl #8
     704:	f3000400 	vshl.u8	d0, d0, d0
     708:	009f5201 	addseq	r5, pc, r1, lsl #4
	...
     714:	00000101 	andeq	r0, r0, r1, lsl #2
     718:	01000000 	mrseq	r0, (UNDEF: 0)
     71c:	e0000000 	and	r0, r0, r0
     720:	e0000004 	and	r0, r0, r4
     724:	01000004 	tsteq	r0, r4
     728:	04e05000 	strbteq	r5, [r0], #0
     72c:	04e80000 	strbteq	r0, [r8], #0
     730:	00010000 	andeq	r0, r1, r0
     734:	0005b855 	andeq	fp, r5, r5, asr r8
     738:	0005d000 	andeq	sp, r5, r0
     73c:	55000100 	strpl	r0, [r0, #-256]	; 0xffffff00
     740:	000005f0 	strdeq	r0, [r0], -r0	; <UNPREDICTABLE>
     744:	000005f4 	strdeq	r0, [r0], -r4
     748:	f4500001 			; <UNDEFINED> instruction: 0xf4500001
     74c:	f8000007 			; <UNDEFINED> instruction: 0xf8000007
     750:	01000007 	tsteq	r0, r7
     754:	08505500 	ldmdaeq	r0, {r8, sl, ip, lr}^
     758:	08880000 	stmeq	r8, {}	; <UNPREDICTABLE>
     75c:	00010000 	andeq	r0, r1, r0
     760:	00000055 	andeq	r0, r0, r5, asr r0
     764:	00000000 	andeq	r0, r0, r0
     768:	00000200 	andeq	r0, r0, r0, lsl #4
     76c:	00000000 	andeq	r0, r0, r0
     770:	00041400 	andeq	r1, r4, r0, lsl #8
     774:	00041800 	andeq	r1, r4, r0, lsl #16
     778:	30000200 	andcc	r0, r0, r0, lsl #4
     77c:	0004189f 	muleq	r4, pc, r8	; <UNPREDICTABLE>
     780:	00041c00 	andeq	r1, r4, r0, lsl #24
     784:	55000100 	strpl	r0, [r0, #-256]	; 0xffffff00
     788:	00000428 	andeq	r0, r0, r8, lsr #8
     78c:	0000043c 	andeq	r0, r0, ip, lsr r4
     790:	28550001 	ldmdacs	r5, {r0}^
     794:	30000009 	andcc	r0, r0, r9
     798:	01000009 	tsteq	r0, r9
     79c:	00005500 	andeq	r5, r0, r0, lsl #10
     7a0:	00000000 	andeq	r0, r0, r0
     7a4:	00010000 	andeq	r0, r1, r0
	...
     7b0:	05040000 	streq	r0, [r4, #-0]
     7b4:	05840000 	streq	r0, [r4]
     7b8:	00010000 	andeq	r0, r1, r0
     7bc:	00058456 	andeq	r8, r5, r6, asr r4
     7c0:	00058800 	andeq	r8, r5, r0, lsl #16
     7c4:	73000300 	movwvc	r0, #768	; 0x300
     7c8:	05889f7e 	streq	r9, [r8, #3966]	; 0xf7e
     7cc:	05d00000 	ldrbeq	r0, [r0]
     7d0:	00070000 	andeq	r0, r7, r0
     7d4:	067dcc91 			; <UNDEFINED> instruction: 0x067dcc91
     7d8:	009f1c32 	addseq	r1, pc, r2, lsr ip	; <UNPREDICTABLE>
     7dc:	1c000008 	stcne	0, cr0, [r0], {8}
     7e0:	01000008 	tsteq	r0, r8
     7e4:	081c5600 	ldmdaeq	ip, {r9, sl, ip, lr}
     7e8:	08880000 	stmeq	r8, {}	; <UNPREDICTABLE>
     7ec:	00070000 	andeq	r0, r7, r0
     7f0:	067dcc91 			; <UNDEFINED> instruction: 0x067dcc91
     7f4:	489f1c32 	ldmmi	pc, {r1, r4, r5, sl, fp, ip}	; <UNPREDICTABLE>
     7f8:	b4000009 	strlt	r0, [r0], #-9
     7fc:	01000009 	tsteq	r0, r9
     800:	00005600 	andeq	r5, r0, r0, lsl #12
     804:	00000000 	andeq	r0, r0, r0
     808:	06040000 	streq	r0, [r4], -r0
     80c:	04140402 	ldreq	r0, [r4], #-1026	; 0xfffffbfe
     810:	04140000 	ldreq	r0, [r4], #-0
     814:	00060000 	andeq	r0, r6, r0
     818:	ff080072 			; <UNDEFINED> instruction: 0xff080072
     81c:	04289f1a 	strteq	r9, [r8], #-3866	; 0xfffff0e6
     820:	04280000 	strteq	r0, [r8], #-0
     824:	00060000 	andeq	r0, r6, r0
     828:	ff080072 			; <UNDEFINED> instruction: 0xff080072
     82c:	00009f1a 	andeq	r9, r0, sl, lsl pc
     830:	00000000 	andeq	r0, r0, r0
     834:	00020000 	andeq	r0, r2, r0
     838:	00000000 	andeq	r0, r0, r0
     83c:	000005fc 	strdeq	r0, [r0], -ip
     840:	00000700 	andeq	r0, r0, r0, lsl #14
     844:	80080003 	andhi	r0, r8, r3
     848:	0008a89f 	muleq	r8, pc, r8	; <UNPREDICTABLE>
     84c:	0008bc00 	andeq	fp, r8, r0, lsl #24
     850:	08000300 	stmdaeq	r0, {r8, r9}
     854:	09109f80 	ldmdbeq	r0, {r7, r8, r9, sl, fp, ip, pc}
     858:	09200000 	stmdbeq	r0!, {}	; <UNPREDICTABLE>
     85c:	00030000 	andeq	r0, r3, r0
     860:	009f8008 	addseq	r8, pc, r8
     864:	00000000 	andeq	r0, r0, r0
     868:	01000000 	mrseq	r0, (UNDEF: 0)
     86c:	00000000 	andeq	r0, r0, r0
     870:	0005fc00 	andeq	pc, r5, r0, lsl #24
     874:	00070000 	andeq	r0, r7, r0
     878:	30000200 	andcc	r0, r0, r0, lsl #4
     87c:	0008a89f 	muleq	r8, pc, r8	; <UNPREDICTABLE>
     880:	0008bc00 	andeq	fp, r8, r0, lsl #24
     884:	30000200 	andcc	r0, r0, r0, lsl #4
     888:	0009109f 	muleq	r9, pc, r0	; <UNPREDICTABLE>
     88c:	00092000 	andeq	r2, r9, r0
     890:	30000200 	andcc	r0, r0, r0, lsl #4
     894:	0000009f 	muleq	r0, pc, r0	; <UNPREDICTABLE>
     898:	00000000 	andeq	r0, r0, r0
     89c:	00000100 	andeq	r0, r0, r0, lsl #2
     8a0:	fc000000 	stc2	0, cr0, [r0], {-0}
     8a4:	e0000005 	and	r0, r0, r5
     8a8:	01000006 	tsteq	r0, r6
     8ac:	08a85500 	stmiaeq	r8!, {r8, sl, ip, lr}
     8b0:	08bc0000 	ldmeq	ip!, {}	; <UNPREDICTABLE>
     8b4:	00010000 	andeq	r0, r1, r0
     8b8:	00091055 	andeq	r1, r9, r5, asr r0
     8bc:	00092000 	andeq	r2, r9, r0
     8c0:	55000100 	strpl	r0, [r0, #-256]	; 0xffffff00
	...
     8cc:	00000001 	andeq	r0, r0, r1
     8d0:	00000000 	andeq	r0, r0, r0
     8d4:	000005fc 	strdeq	r0, [r0], -ip
     8d8:	000006e0 	andeq	r0, r0, r0, ror #13
     8dc:	d0910004 	addsle	r0, r1, r4
     8e0:	06e09f7d 			; <UNDEFINED> instruction: 0x06e09f7d
     8e4:	07000000 	streq	r0, [r0, -r0]
     8e8:	00010000 	andeq	r0, r1, r0
     8ec:	0008a855 	andeq	sl, r8, r5, asr r8
     8f0:	0008bc00 	andeq	fp, r8, r0, lsl #24
     8f4:	91000400 	tstls	r0, r0, lsl #8
     8f8:	109f7dd0 			; <UNDEFINED> instruction: 0x109f7dd0
     8fc:	20000009 	andcs	r0, r0, r9
     900:	04000009 	streq	r0, [r0], #-9
     904:	7dd09100 	ldfvcp	f1, [r0]
     908:	0000009f 	muleq	r0, pc, r0	; <UNPREDICTABLE>
     90c:	00000000 	andeq	r0, r0, r0
     910:	00000100 	andeq	r0, r0, r0, lsl #2
     914:	fc000000 	stc2	0, cr0, [r0], {-0}
     918:	00000005 	andeq	r0, r0, r5
     91c:	02000007 	andeq	r0, r0, #7, 0
     920:	a89f3800 	ldmge	pc, {fp, ip, sp}	; <UNPREDICTABLE>
     924:	bc000008 	stclt	0, cr0, [r0], {8}
     928:	02000008 	andeq	r0, r0, #8, 0
     92c:	109f3800 	addsne	r3, pc, r0, lsl #16
     930:	20000009 	andcs	r0, r0, r9
     934:	02000009 	andeq	r0, r0, #9, 0
     938:	009f3800 	addseq	r3, pc, r0, lsl #16
     93c:	00000000 	andeq	r0, r0, r0
     940:	04000000 	streq	r0, [r0], #-0
     944:	00000707 	andeq	r0, r0, r7, lsl #14
	...
     950:	0005fc00 	andeq	pc, r5, r0, lsl #24
     954:	0005fc00 	andeq	pc, r5, r0, lsl #24
     958:	91000400 	tstls	r0, r0, lsl #8
     95c:	fc9f7ed0 	ldc2	14, cr7, [pc], {208}	; 0xd0
     960:	78000005 	stmdavc	r0, {r0, r2}
     964:	04000006 	streq	r0, [r0], #-6
     968:	7ed19100 	atnvcs	f1, f0
     96c:	0006789f 	muleq	r6, pc, r8	; <UNPREDICTABLE>
     970:	0006d400 	andeq	sp, r6, r0, lsl #8
     974:	5c000100 	stfpls	f0, [r0], {-0}
     978:	000006d4 	ldrdeq	r0, [r0], -r4
     97c:	00000700 	andeq	r0, r0, r0, lsl #14
     980:	d1910004 	orrsle	r0, r1, r4
     984:	08a89f7e 	stmiaeq	r8!, {r1, r2, r3, r4, r5, r6, r8, r9, sl, fp, ip, pc}
     988:	08bc0000 	ldmeq	ip!, {}	; <UNPREDICTABLE>
     98c:	00040000 	andeq	r0, r4, r0
     990:	9f7ed191 	svcls	0x007ed191
     994:	00000910 	andeq	r0, r0, r0, lsl r9
     998:	00000914 	andeq	r0, r0, r4, lsl r9
     99c:	d1910004 	orrsle	r0, r1, r4
     9a0:	09149f7e 	ldmdbeq	r4, {r1, r2, r3, r4, r5, r6, r8, r9, sl, fp, ip, pc}
     9a4:	09200000 	stmdbeq	r0!, {}	; <UNPREDICTABLE>
     9a8:	00010000 	andeq	r0, r1, r0
     9ac:	0000005c 	andeq	r0, r0, ip, asr r0
     9b0:	00000000 	andeq	r0, r0, r0
     9b4:	00010400 	andeq	r0, r1, r0, lsl #8
     9b8:	08000001 	stmdaeq	r0, {r0}
     9bc:	d0000006 	andle	r0, r0, r6
     9c0:	01000006 	tsteq	r0, r6
     9c4:	08a85500 	stmiaeq	r8!, {r8, sl, ip, lr}
     9c8:	08b80000 	ldmeq	r8!, {}	; <UNPREDICTABLE>
     9cc:	00010000 	andeq	r0, r1, r0
     9d0:	00091055 	andeq	r1, r9, r5, asr r0
     9d4:	00092000 	andeq	r2, r9, r0
     9d8:	55000100 	strpl	r0, [r0, #-256]	; 0xffffff00
	...
     9e4:	00000004 	andeq	r0, r0, r4
     9e8:	00000100 	andeq	r0, r0, r0, lsl #2
     9ec:	00000100 	andeq	r0, r0, r0, lsl #2
     9f0:	00000608 	andeq	r0, r0, r8, lsl #12
     9f4:	000006b0 			; <UNDEFINED> instruction: 0x000006b0
     9f8:	d0910004 	addsle	r0, r1, r4
     9fc:	06b09f7e 			; <UNDEFINED> instruction: 0x06b09f7e
     a00:	06c80000 	strbeq	r0, [r8], r0
     a04:	00010000 	andeq	r0, r1, r0
     a08:	0006c850 	andeq	ip, r6, r0, asr r8
     a0c:	0006d000 	andeq	sp, r6, r0
     a10:	91000400 	tstls	r0, r0, lsl #8
     a14:	a89f7ed0 	ldmge	pc, {r4, r6, r7, r9, sl, fp, ip, sp, lr}	; <UNPREDICTABLE>
     a18:	b0000008 	andlt	r0, r0, r8
     a1c:	04000008 	streq	r0, [r0], #-8
     a20:	7ed09100 	atnvcs	f1, f0
     a24:	0008b09f 	muleq	r8, pc, r0	; <UNPREDICTABLE>
     a28:	0008b800 	andeq	fp, r8, r0, lsl #16
     a2c:	53000100 	movwpl	r0, #256	; 0x100
     a30:	00000910 	andeq	r0, r0, r0, lsl r9
     a34:	00000920 	andeq	r0, r0, r0, lsr #18
     a38:	d0910004 	addsle	r0, r1, r4
     a3c:	00009f7e 	andeq	r9, r0, lr, ror pc
     a40:	00000000 	andeq	r0, r0, r0
     a44:	00040000 	andeq	r0, r4, r0
     a48:	01010100 	mrseq	r0, (UNDEF: 17)
     a4c:	02030301 	andeq	r0, r3, #67108864	; 0x4000000
     a50:	00000100 	andeq	r0, r0, r0, lsl #2
     a54:	06080000 	streq	r0, [r8], -r0
     a58:	06240000 	strteq	r0, [r4], -r0
     a5c:	00040000 	andeq	r0, r4, r0
     a60:	9f7ed191 	svcls	0x007ed191
     a64:	00000684 	andeq	r0, r0, r4, lsl #13
     a68:	00000684 	andeq	r0, r0, r4, lsl #13
     a6c:	84500001 	ldrbhi	r0, [r0], #-1
     a70:	98000006 	stmdals	r0, {r1, r2}
     a74:	03000006 	movweq	r0, #6
     a78:	9f017000 	svcls	0x00017000
     a7c:	00000698 	muleq	r0, r8, r6
     a80:	000006a4 	andeq	r0, r0, r4, lsr #13
     a84:	02700003 	rsbseq	r0, r0, #3, 0
     a88:	0006a49f 	muleq	r6, pc, r4	; <UNPREDICTABLE>
     a8c:	0006a800 	andeq	sl, r6, r0, lsl #16
     a90:	70000300 	andvc	r0, r0, r0, lsl #6
     a94:	08a89f03 	stmiaeq	r8!, {r0, r1, r8, r9, sl, fp, ip, pc}
     a98:	08b80000 	ldmeq	r8!, {}	; <UNPREDICTABLE>
     a9c:	00040000 	andeq	r0, r4, r0
     aa0:	9f7ed191 	svcls	0x007ed191
     aa4:	00000910 	andeq	r0, r0, r0, lsl r9
     aa8:	00000914 	andeq	r0, r0, r4, lsl r9
     aac:	d1910004 	orrsle	r0, r1, r4
     ab0:	09149f7e 	ldmdbeq	r4, {r1, r2, r3, r4, r5, r6, r8, r9, sl, fp, ip, pc}
     ab4:	09200000 	stmdbeq	r0!, {}	; <UNPREDICTABLE>
     ab8:	00010000 	andeq	r0, r1, r0
     abc:	0000005c 	andeq	r0, r0, ip, asr r0
     ac0:	00000000 	andeq	r0, r0, r0
     ac4:	00000600 	andeq	r0, r0, r0, lsl #12
     ac8:	01010101 	tsteq	r1, r1, lsl #2
     acc:	00020101 	andeq	r0, r2, r1, lsl #2
     ad0:	08000001 	stmdaeq	r0, {r0}
     ad4:	24000006 	strcs	r0, [r0], #-6
     ad8:	02000006 	andeq	r0, r0, #6, 0
     adc:	849f3100 	ldrhi	r3, [pc], #256	; ae4 <__code_start__-0x751c>
     ae0:	94000006 	strls	r0, [r0], #-6
     ae4:	01000006 	tsteq	r0, r6
     ae8:	06945200 	ldreq	r5, [r4], r0, lsl #4
     aec:	06a40000 	strteq	r0, [r4], r0
     af0:	00010000 	andeq	r0, r1, r0
     af4:	0006a459 	andeq	sl, r6, r9, asr r4
     af8:	0006a800 	andeq	sl, r6, r0, lsl #16
     afc:	52000100 	andpl	r0, r0, #0
     b00:	000006a8 	andeq	r0, r0, r8, lsr #13
     b04:	000006a8 	andeq	r0, r0, r8, lsr #13
     b08:	01720003 	cmneq	r2, r3
     b0c:	0008a89f 	muleq	r8, pc, r8	; <UNPREDICTABLE>
     b10:	0008b800 	andeq	fp, r8, r0, lsl #16
     b14:	31000200 	mrscc	r0, R8_usr
     b18:	0009109f 	muleq	r9, pc, r0	; <UNPREDICTABLE>
     b1c:	00092000 	andeq	r2, r9, r0
     b20:	31000200 	mrscc	r0, R8_usr
     b24:	0000009f 	muleq	r0, pc, r0	; <UNPREDICTABLE>
     b28:	00000000 	andeq	r0, r0, r0
     b2c:	06060100 	streq	r0, [r6], -r0, lsl #2
     b30:	d0000100 	andle	r0, r0, r0, lsl #2
     b34:	d0000006 	andle	r0, r0, r6
     b38:	04000006 	streq	r0, [r0], #-6
     b3c:	7ed09100 	atnvcs	f1, f0
     b40:	0006d09f 	muleq	r6, pc, r0	; <UNPREDICTABLE>
     b44:	00070000 	andeq	r0, r7, r0
     b48:	50000100 	andpl	r0, r0, r0, lsl #2
     b4c:	000008b8 			; <UNDEFINED> instruction: 0x000008b8
     b50:	000008bc 			; <UNDEFINED> instruction: 0x000008bc
     b54:	00530001 	subseq	r0, r3, r1
     b58:	00000000 	andeq	r0, r0, r0
     b5c:	01000000 	mrseq	r0, (UNDEF: 0)
     b60:	00000008 	andeq	r0, r0, r8
     b64:	01000101 	tsteq	r0, r1, lsl #2
     b68:	0006d007 	andeq	sp, r6, r7
     b6c:	0006d000 	andeq	sp, r6, r0
     b70:	7c000600 	stcvc	6, cr0, [r0], {-0}
     b74:	22007100 	andcs	r7, r0, #0
     b78:	0006e49f 	muleq	r6, pc, r4	; <UNPREDICTABLE>
     b7c:	0006e800 	andeq	lr, r6, r0, lsl #16
     b80:	73000300 	movwvc	r0, #768	; 0x300
     b84:	06e89f7f 			; <UNDEFINED> instruction: 0x06e89f7f
     b88:	06f00000 	ldrbteq	r0, [r0], r0
     b8c:	00010000 	andeq	r0, r1, r0
     b90:	0006f053 	andeq	pc, r6, r3, asr r0	; <UNPREDICTABLE>
     b94:	0006f800 	andeq	pc, r6, r0, lsl #16
     b98:	73000300 	movwvc	r0, #768	; 0x300
     b9c:	08b89f7f 	ldmeq	r8!, {r0, r1, r2, r3, r4, r5, r6, r8, r9, sl, fp, ip, pc}
     ba0:	08b80000 	ldmeq	r8!, {}	; <UNPREDICTABLE>
     ba4:	00040000 	andeq	r0, r4, r0
     ba8:	9f7ed191 	svcls	0x007ed191
	...
     bb4:	00010001 	andeq	r0, r1, r1
     bb8:	000006d0 	ldrdeq	r0, [r0], -r0	; <UNPREDICTABLE>
     bbc:	00000700 	andeq	r0, r0, r0, lsl #14
     bc0:	80080003 	andhi	r0, r8, r3
     bc4:	0008b89f 	muleq	r8, pc, r8	; <UNPREDICTABLE>
     bc8:	0008bc00 	andeq	fp, r8, r0, lsl #24
     bcc:	08000300 	stmdaeq	r0, {r8, r9}
     bd0:	00009f80 	andeq	r9, r0, r0, lsl #31
     bd4:	00000000 	andeq	r0, r0, r0
     bd8:	00010000 	andeq	r0, r1, r0
     bdc:	01000000 	mrseq	r0, (UNDEF: 0)
     be0:	00000001 	andeq	r0, r0, r1
     be4:	00010102 	andeq	r0, r1, r2, lsl #2
     be8:	000006d0 	ldrdeq	r0, [r0], -r0	; <UNPREDICTABLE>
     bec:	000006e0 	andeq	r0, r0, r0, ror #13
     bf0:	d0910004 	addsle	r0, r1, r4
     bf4:	06e09f7d 			; <UNDEFINED> instruction: 0x06e09f7d
     bf8:	06e40000 	strbteq	r0, [r4], r0
     bfc:	00010000 	andeq	r0, r1, r0
     c00:	0006e455 	andeq	lr, r6, r5, asr r4
     c04:	0006e400 	andeq	lr, r6, r0, lsl #8
     c08:	72000300 	andvc	r0, r0, #0, 6
     c0c:	06e49f01 	strbteq	r9, [r4], r1, lsl #30
     c10:	06f00000 	ldrbteq	r0, [r0], r0
     c14:	00030000 	andeq	r0, r3, r0
     c18:	f09f0272 			; <UNDEFINED> instruction: 0xf09f0272
     c1c:	00000006 	andeq	r0, r0, r6
     c20:	03000007 	movweq	r0, #7
     c24:	9f017200 	svcls	0x00017200
     c28:	000007ec 	andeq	r0, r0, ip, ror #15
     c2c:	000007f4 	strdeq	r0, [r0], -r4
     c30:	01730003 	cmneq	r3, r3
     c34:	0008b89f 	muleq	r8, pc, r8	; <UNPREDICTABLE>
     c38:	0008bc00 	andeq	fp, r8, r0, lsl #24
     c3c:	91000400 	tstls	r0, r0, lsl #8
     c40:	009f7dd0 			; <UNDEFINED> instruction: 0x009f7dd0
     c44:	00000000 	andeq	r0, r0, r0
     c48:	04000000 	streq	r0, [r0], #-0
     c4c:	0008b800 	andeq	fp, r8, r0, lsl #16
     c50:	0008bc00 	andeq	fp, r8, r0, lsl #24
     c54:	32000200 	andcc	r0, r0, #0, 4
     c58:	0000009f 	muleq	r0, pc, r0	; <UNPREDICTABLE>
     c5c:	00000000 	andeq	r0, r0, r0
     c60:	00000700 	andeq	r0, r0, r0, lsl #14
     c64:	d0000600 	andle	r0, r0, r0, lsl #12
     c68:	e0000006 	and	r0, r0, r6
     c6c:	04000006 	streq	r0, [r0], #-6
     c70:	7dd09100 	ldfvcp	f1, [r0]
     c74:	0006e09f 	muleq	r6, pc, r0	; <UNPREDICTABLE>
     c78:	00070000 	andeq	r0, r7, r0
     c7c:	55000100 	strpl	r0, [r0, #-256]	; 0xffffff00
     c80:	000008b8 			; <UNDEFINED> instruction: 0x000008b8
     c84:	000008bc 			; <UNDEFINED> instruction: 0x000008bc
     c88:	d0910004 	addsle	r0, r1, r4
     c8c:	00009f7d 	andeq	r9, r0, sp, ror pc
     c90:	00000000 	andeq	r0, r0, r0
     c94:	00010000 	andeq	r0, r1, r0
     c98:	070c0000 	streq	r0, [ip, -r0]
     c9c:	07ec0000 	strbeq	r0, [ip, r0]!
     ca0:	00030000 	andeq	r0, r3, r0
     ca4:	949f8008 	ldrls	r8, [pc], #8	; cac <__code_start__-0x7354>
     ca8:	a8000008 	stmdage	r0, {r3}
     cac:	03000008 	movweq	r0, #8
     cb0:	9f800800 	svcls	0x00800800
	...
     cc0:	0000070c 	andeq	r0, r0, ip, lsl #14
     cc4:	000007ec 	andeq	r0, r0, ip, ror #15
     cc8:	9f300002 	svcls	0x00300002
     ccc:	00000894 	muleq	r0, r4, r8
     cd0:	000008a8 	andeq	r0, r0, r8, lsr #17
     cd4:	9f300002 	svcls	0x00300002
	...
     ce4:	0000070c 	andeq	r0, r0, ip, lsl #14
     ce8:	000007d0 	ldrdeq	r0, [r0], -r0	; <UNPREDICTABLE>
     cec:	94550001 	ldrbls	r0, [r5], #-1
     cf0:	a8000008 	stmdage	r0, {r3}
     cf4:	01000008 	tsteq	r0, r8
     cf8:	00005500 	andeq	r5, r0, r0, lsl #10
	...
     d08:	0000070c 	andeq	r0, r0, ip, lsl #14
     d0c:	000007d0 	ldrdeq	r0, [r0], -r0	; <UNPREDICTABLE>
     d10:	d0910004 	addsle	r0, r1, r4
     d14:	07d09f7d 			; <UNDEFINED> instruction: 0x07d09f7d
     d18:	07ec0000 	strbeq	r0, [ip, r0]!
     d1c:	00010000 	andeq	r0, r1, r0
     d20:	00089455 	andeq	r9, r8, r5, asr r4
     d24:	0008a800 	andeq	sl, r8, r0, lsl #16
     d28:	91000400 	tstls	r0, r0, lsl #8
     d2c:	009f7dd0 			; <UNDEFINED> instruction: 0x009f7dd0
	...
     d38:	0c000000 	stceq	0, cr0, [r0], {-0}
     d3c:	ec000007 	stc	0, cr0, [r0], {7}
     d40:	02000007 	andeq	r0, r0, #7, 0
     d44:	949f3200 	ldrls	r3, [pc], #512	; d4c <__code_start__-0x72b4>
     d48:	a8000008 	stmdage	r0, {r3}
     d4c:	02000008 	andeq	r0, r0, #8, 0
     d50:	009f3200 	addseq	r3, pc, r0, lsl #4
     d54:	00000000 	andeq	r0, r0, r0
     d58:	03000000 	movweq	r0, #0
     d5c:	00000505 	andeq	r0, r0, r5, lsl #10
     d60:	00000000 	andeq	r0, r0, r0
     d64:	00070c00 	andeq	r0, r7, r0, lsl #24
     d68:	00070c00 	andeq	r0, r7, r0, lsl #24
     d6c:	51000100 	mrspl	r0, (UNDEF: 16)
     d70:	0000070c 	andeq	r0, r0, ip, lsl #14
     d74:	0000071c 	andeq	r0, r0, ip, lsl r7
     d78:	1c530001 	mrrcne	0, 0, r0, r3, cr1
     d7c:	24000007 	strcs	r0, [r0], #-7
     d80:	03000007 	movweq	r0, #7
     d84:	9f017200 	svcls	0x00017200
     d88:	00000724 	andeq	r0, r0, r4, lsr #14
     d8c:	000007cc 	andeq	r0, r0, ip, asr #15
     d90:	94530001 	ldrbls	r0, [r3], #-1
     d94:	a8000008 	stmdage	r0, {r3}
     d98:	01000008 	tsteq	r0, r8
     d9c:	00005300 	andeq	r5, r0, r0, lsl #6
     da0:	00000000 	andeq	r0, r0, r0
     da4:	00050000 	andeq	r0, r5, r0
     da8:	070c0001 	streq	r0, [ip, -r1]
     dac:	07200000 	streq	r0, [r0, -r0]!
     db0:	00010000 	andeq	r0, r1, r0
     db4:	00072450 	andeq	r2, r7, r0, asr r4
     db8:	00072c00 	andeq	r2, r7, r0, lsl #24
     dbc:	50000100 	andpl	r0, r0, r0, lsl #2
	...
     dc8:	01000103 	tsteq	r0, r3, lsl #2
     dcc:	00000728 	andeq	r0, r0, r8, lsr #14
     dd0:	000007b0 			; <UNDEFINED> instruction: 0x000007b0
     dd4:	94550001 	ldrbls	r0, [r5], #-1
     dd8:	a0000008 	andge	r0, r0, r8
     ddc:	01000008 	tsteq	r0, r8
     de0:	00005500 	andeq	r5, r0, r0, lsl #10
     de4:	00000000 	andeq	r0, r0, r0
     de8:	01030000 	mrseq	r0, (UNDEF: 3)
     dec:	07280100 	streq	r0, [r8, -r0, lsl #2]!
     df0:	07b00000 	ldreq	r0, [r0, r0]!
     df4:	00010000 	andeq	r0, r1, r0
     df8:	00089451 	andeq	r9, r8, r1, asr r4
     dfc:	0008a000 	andeq	sl, r8, r0
     e00:	51000100 	mrspl	r0, (UNDEF: 16)
	...
     e0c:	01000003 	tsteq	r0, r3
     e10:	03010101 	movweq	r0, #4353	; 0x1101
     e14:	01000203 	tsteq	r0, r3, lsl #4
     e18:	00000728 	andeq	r0, r0, r8, lsr #14
     e1c:	00000750 	andeq	r0, r0, r0, asr r7
     e20:	74530001 	ldrbvc	r0, [r3], #-1
     e24:	74000007 	strvc	r0, [r0], #-7
     e28:	01000007 	tsteq	r0, r7
     e2c:	07745e00 	ldrbeq	r5, [r4, -r0, lsl #28]!
     e30:	07880000 	streq	r0, [r8, r0]
     e34:	00030000 	andeq	r0, r3, r0
     e38:	889f017e 	ldmhi	pc, {r1, r2, r3, r4, r5, r6, r8}	; <UNPREDICTABLE>
     e3c:	94000007 	strls	r0, [r0], #-7
     e40:	03000007 	movweq	r0, #7
     e44:	9f027e00 	svcls	0x00027e00
     e48:	00000794 	muleq	r0, r4, r7
     e4c:	00000798 	muleq	r0, r8, r7
     e50:	037e0003 	cmneq	lr, #3, 0
     e54:	0008949f 	muleq	r8, pc, r4	; <UNPREDICTABLE>
     e58:	0008a000 	andeq	sl, r8, r0
     e5c:	53000100 	movwpl	r0, #256	; 0x100
	...
     e68:	01000000 	mrseq	r0, (UNDEF: 0)
     e6c:	01010101 	tsteq	r1, r1, lsl #2
     e70:	01000201 	tsteq	r0, r1, lsl #4
     e74:	0000072c 	andeq	r0, r0, ip, lsr #14
     e78:	00000750 	andeq	r0, r0, r0, asr r7
     e7c:	74500001 	ldrbvc	r0, [r0], #-1
     e80:	84000007 	strhi	r0, [r0], #-7
     e84:	01000007 	tsteq	r0, r7
     e88:	07845000 	streq	r5, [r4, r0]
     e8c:	07940000 	ldreq	r0, [r4, r0]
     e90:	00010000 	andeq	r0, r1, r0
     e94:	0007945b 	andeq	r9, r7, fp, asr r4
     e98:	00079800 	andeq	r9, r7, r0, lsl #16
     e9c:	50000100 	andpl	r0, r0, r0, lsl #2
     ea0:	00000798 	muleq	r0, r8, r7
     ea4:	00000798 	muleq	r0, r8, r7
     ea8:	01700003 	cmneq	r0, r3
     eac:	0008949f 	muleq	r8, pc, r4	; <UNPREDICTABLE>
     eb0:	0008a000 	andeq	sl, r8, r0
     eb4:	50000100 	andpl	r0, r0, r0, lsl #2
	...
     ec0:	00010001 	andeq	r0, r1, r1
     ec4:	000007b0 			; <UNDEFINED> instruction: 0x000007b0
     ec8:	000007ec 	andeq	r0, r0, ip, ror #15
     ecc:	a0510001 	subsge	r0, r1, r1
     ed0:	a8000008 	stmdage	r0, {r3}
     ed4:	01000008 	tsteq	r0, r8
     ed8:	00005100 	andeq	r5, r0, r0, lsl #2
     edc:	00000000 	andeq	r0, r0, r0
     ee0:	00010000 	andeq	r0, r1, r0
     ee4:	01000000 	mrseq	r0, (UNDEF: 0)
     ee8:	00010001 	andeq	r0, r1, r1
     eec:	000007b0 			; <UNDEFINED> instruction: 0x000007b0
     ef0:	000007b4 			; <UNDEFINED> instruction: 0x000007b4
     ef4:	00730006 	rsbseq	r0, r3, r6
     ef8:	9f22007c 	svcls	0x0022007c
     efc:	000007d4 	ldrdeq	r0, [r0], -r4
     f00:	000007d8 	ldrdeq	r0, [r0], -r8
     f04:	7f730003 	svcvc	0x00730003
     f08:	0007d89f 	muleq	r7, pc, r8	; <UNPREDICTABLE>
     f0c:	0007e000 	andeq	lr, r7, r0
     f10:	53000100 	movwpl	r0, #256	; 0x100
     f14:	000007e0 	andeq	r0, r0, r0, ror #15
     f18:	000007e8 	andeq	r0, r0, r8, ror #15
     f1c:	7f730003 	svcvc	0x00730003
     f20:	0008a09f 	muleq	r8, pc, r0	; <UNPREDICTABLE>
     f24:	0008a800 	andeq	sl, r8, r0, lsl #16
     f28:	53000100 	movwpl	r0, #256	; 0x100
	...
     f34:	00010001 	andeq	r0, r1, r1
     f38:	000007b0 			; <UNDEFINED> instruction: 0x000007b0
     f3c:	000007ec 	andeq	r0, r0, ip, ror #15
     f40:	80080003 	andhi	r0, r8, r3
     f44:	0008a09f 	muleq	r8, pc, r0	; <UNPREDICTABLE>
     f48:	0008a800 	andeq	sl, r8, r0, lsl #16
     f4c:	08000300 	stmdaeq	r0, {r8, r9}
     f50:	00009f80 	andeq	r9, r0, r0, lsl #31
     f54:	00000000 	andeq	r0, r0, r0
     f58:	00010000 	andeq	r0, r1, r0
     f5c:	01000000 	mrseq	r0, (UNDEF: 0)
     f60:	00000001 	andeq	r0, r0, r1
     f64:	07b00001 	ldreq	r0, [r0, r1]!
     f68:	07d00000 	ldrbeq	r0, [r0, r0]
     f6c:	00040000 	andeq	r0, r4, r0
     f70:	9f7dd091 	svcls	0x007dd091
     f74:	000007d0 	ldrdeq	r0, [r0], -r0	; <UNPREDICTABLE>
     f78:	000007d4 	ldrdeq	r0, [r0], -r4
     f7c:	d4550001 	ldrble	r0, [r5], #-1
     f80:	d4000007 	strle	r0, [r0], #-7
     f84:	03000007 	movweq	r0, #7
     f88:	9f017c00 	svcls	0x00017c00
     f8c:	000007d4 	ldrdeq	r0, [r0], -r4
     f90:	000007e0 	andeq	r0, r0, r0, ror #15
     f94:	027c0003 	rsbseq	r0, ip, #3, 0
     f98:	0007e09f 	muleq	r7, pc, r0	; <UNPREDICTABLE>
     f9c:	0007ec00 	andeq	lr, r7, r0, lsl #24
     fa0:	7c000300 	stcvc	3, cr0, [r0], {-0}
     fa4:	08a09f01 	stmiaeq	r0!, {r0, r8, r9, sl, fp, ip, pc}
     fa8:	08a80000 	stmiaeq	r8!, {}	; <UNPREDICTABLE>
     fac:	00040000 	andeq	r0, r4, r0
     fb0:	9f7dd091 	svcls	0x007dd091
	...
     fbc:	00040004 	andeq	r0, r4, r4
     fc0:	000007b0 			; <UNDEFINED> instruction: 0x000007b0
     fc4:	000007b4 			; <UNDEFINED> instruction: 0x000007b4
     fc8:	01700003 	cmneq	r0, r3
     fcc:	0008a09f 	muleq	r8, pc, r0	; <UNPREDICTABLE>
     fd0:	0008a800 	andeq	sl, r8, r0, lsl #16
     fd4:	70000300 	andvc	r0, r0, r0, lsl #6
     fd8:	00009f01 	andeq	r9, r0, r1, lsl #30
     fdc:	00000000 	andeq	r0, r0, r0
     fe0:	00010000 	andeq	r0, r1, r0
     fe4:	07bc0000 	ldreq	r0, [ip, r0]!
     fe8:	07d00000 	ldrbeq	r0, [r0, r0]
     fec:	00040000 	andeq	r0, r4, r0
     ff0:	9f7dd091 	svcls	0x007dd091
     ff4:	000007d0 	ldrdeq	r0, [r0], -r0	; <UNPREDICTABLE>
     ff8:	000007ec 	andeq	r0, r0, ip, ror #15
     ffc:	00550001 	subseq	r0, r5, r1
	...
    1008:	28000000 	stmdacs	r0, {}	; <UNPREDICTABLE>
    100c:	64000003 	strvs	r0, [r0], #-3
    1010:	01000003 	tsteq	r0, r3
    1014:	03645000 	cmneq	r4, #0, 0
    1018:	03880000 	orreq	r0, r8, #0, 0
    101c:	00040000 	andeq	r0, r4, r0
    1020:	9f5001f3 	svcls	0x005001f3
	...
    1030:	00000328 	andeq	r0, r0, r8, lsr #6
    1034:	0000035c 	andeq	r0, r0, ip, asr r3
    1038:	5c510001 	mrrcpl	0, 0, r0, r1, cr1
    103c:	88000003 	stmdahi	r0, {r0, r1}
    1040:	04000003 	streq	r0, [r0], #-3
    1044:	5101f300 	mrspl	pc, SP_irq	; <UNPREDICTABLE>
    1048:	0000009f 	muleq	r0, pc, r0	; <UNPREDICTABLE>
	...
    106c:	00001400 	andeq	r1, r0, r0, lsl #8
    1070:	50000100 	andpl	r0, r0, r0, lsl #2
    1074:	00000014 	andeq	r0, r0, r4, lsl r0
    1078:	00000020 	andeq	r0, r0, r0, lsr #32
    107c:	205c0001 	subscs	r0, ip, r1
    1080:	68000000 	stmdavs	r0, {}	; <UNPREDICTABLE>
    1084:	03000000 	movweq	r0, #0
    1088:	9f027100 	svcls	0x00027100
    108c:	00000068 	andeq	r0, r0, r8, rrx
    1090:	0000006c 	andeq	r0, r0, ip, rrx
    1094:	02730003 	rsbseq	r0, r3, #3, 0
    1098:	00006c9f 	muleq	r0, pc, ip	; <UNPREDICTABLE>
    109c:	00019400 	andeq	r9, r1, r0, lsl #8
    10a0:	f3000400 	vshl.u8	d0, d0, d0
    10a4:	949f5001 	ldrls	r5, [pc], #1	; 10ac <__code_start__-0x6f54>
    10a8:	98000001 	stmdals	r0, {r0}
    10ac:	03000001 	movweq	r0, #1
    10b0:	9f027300 	svcls	0x00027300
    10b4:	00000198 	muleq	r0, r8, r1
    10b8:	000001c0 	andeq	r0, r0, r0, asr #3
    10bc:	01f30004 	mvnseq	r0, r4
    10c0:	01c09f50 	biceq	r9, r0, r0, asr pc
    10c4:	01c80000 	biceq	r0, r8, r0
    10c8:	00010000 	andeq	r0, r1, r0
    10cc:	0001c85c 	andeq	ip, r1, ip, asr r8
    10d0:	00021400 	andeq	r1, r2, r0, lsl #8
    10d4:	73000300 	movwvc	r0, #768	; 0x300
    10d8:	02149f02 	andseq	r9, r4, #2, 30
    10dc:	02ec0000 	rsceq	r0, ip, #0, 0
    10e0:	00040000 	andeq	r0, r4, r0
    10e4:	9f5001f3 	svcls	0x005001f3
    10e8:	000002ec 	andeq	r0, r0, ip, ror #5
    10ec:	000002f4 	strdeq	r0, [r0], -r4
    10f0:	02730003 	rsbseq	r0, r3, #3, 0
    10f4:	0002f49f 	muleq	r2, pc, r4	; <UNPREDICTABLE>
    10f8:	00032800 	andeq	r2, r3, r0, lsl #16
    10fc:	f3000400 	vshl.u8	d0, d0, d0
    1100:	009f5001 	addseq	r5, pc, r1
	...
    1114:	1c000000 	stcne	0, cr0, [r0], {-0}
    1118:	01000000 	mrseq	r0, (UNDEF: 0)
    111c:	001c5100 	andseq	r5, ip, r0, lsl #2
    1120:	02e00000 	rsceq	r0, r0, #0, 0
    1124:	00010000 	andeq	r0, r1, r0
    1128:	0002e050 	andeq	lr, r2, r0, asr r0
    112c:	0002ec00 	andeq	lr, r2, r0, lsl #24
    1130:	f3000400 	vshl.u8	d0, d0, d0
    1134:	ec9f5101 	ldfs	f5, [pc], {1}
    1138:	28000002 	stmdacs	r0, {r1}
    113c:	01000003 	tsteq	r0, r3
    1140:	00005000 	andeq	r5, r0, r0
	...
    114c:	01000000 	mrseq	r0, (UNDEF: 0)
    1150:	00000000 	andeq	r0, r0, r0
    1154:	02000000 	andeq	r0, r0, #0, 0
    1158:	00000002 	andeq	r0, r0, r2
	...
    116c:	00700000 	rsbseq	r0, r0, r0
    1170:	00010000 	andeq	r0, r1, r0
    1174:	00007052 	andeq	r7, r0, r2, asr r0
    1178:	00007800 	andeq	r7, r0, r0, lsl #16
    117c:	5c000100 	stfpls	f0, [r0], {-0}
    1180:	00000078 	andeq	r0, r0, r8, ror r0
    1184:	000000a4 	andeq	r0, r0, r4, lsr #1
    1188:	01f30004 	mvnseq	r0, r4
    118c:	01949f52 	orrseq	r9, r4, r2, asr pc
    1190:	019c0000 	orrseq	r0, ip, r0
    1194:	00010000 	andeq	r0, r1, r0
    1198:	00019c52 	andeq	r9, r1, r2, asr ip
    119c:	0001a400 	andeq	sl, r1, r0, lsl #8
    11a0:	5c000100 	stfpls	f0, [r0], {-0}
    11a4:	000001a4 	andeq	r0, r0, r4, lsr #3
    11a8:	000001c0 	andeq	r0, r0, r0, asr #3
    11ac:	01f30004 	mvnseq	r0, r4
    11b0:	01c09f52 	biceq	r9, r0, r2, asr pc
    11b4:	02200000 	eoreq	r0, r0, #0, 0
    11b8:	00010000 	andeq	r0, r1, r0
    11bc:	00022052 	andeq	r2, r2, r2, asr r0
    11c0:	00022800 	andeq	r2, r2, r0, lsl #16
    11c4:	72000400 	andvc	r0, r0, #0, 8
    11c8:	289f1f00 	ldmcs	pc, {r8, r9, sl, fp, ip}	; <UNPREDICTABLE>
    11cc:	74000002 	strvc	r0, [r0], #-2
    11d0:	05000002 	streq	r0, [r0, #-2]
    11d4:	5201f300 	andpl	pc, r1, #0, 6
    11d8:	02749f1f 	rsbseq	r9, r4, #124	; 0x7c
    11dc:	02880000 	addeq	r0, r8, #0, 0
    11e0:	00010000 	andeq	r0, r1, r0
    11e4:	00028852 	andeq	r8, r2, r2, asr r8
    11e8:	0002a000 	andeq	sl, r2, r0
    11ec:	5c000100 	stfpls	f0, [r0], {-0}
    11f0:	000002cc 	andeq	r0, r0, ip, asr #5
    11f4:	000002d0 	ldrdeq	r0, [r0], -r0	; <UNPREDICTABLE>
    11f8:	d0520001 	subsle	r0, r2, r1
    11fc:	e7000002 	str	r0, [r0, -r2]
    1200:	01000002 	tsteq	r0, r2
    1204:	02e75c00 	rsceq	r5, r7, #0, 24
    1208:	02ec0000 	rsceq	r0, ip, #0, 0
    120c:	00040000 	andeq	r0, r4, r0
    1210:	9f5201f3 	svcls	0x005201f3
    1214:	000002ec 	andeq	r0, r0, ip, ror #5
    1218:	00000300 	andeq	r0, r0, r0, lsl #6
    121c:	00520001 	subseq	r0, r2, r1
    1220:	28000003 	stmdacs	r0, {r0, r1}
    1224:	01000003 	tsteq	r0, r3
    1228:	00005c00 	andeq	r5, r0, r0, lsl #24
	...
    1244:	00000068 	andeq	r0, r0, r8, rrx
    1248:	68530001 	ldmdavs	r3, {r0}^
    124c:	6c000000 	stcvs	0, cr0, [r0], {-0}
    1250:	03000000 	movweq	r0, #0
    1254:	9f7f0800 	svcls	0x007f0800
    1258:	00000194 	muleq	r0, r4, r1
    125c:	00000198 	muleq	r0, r8, r1
    1260:	7f080003 	svcvc	0x00080003
    1264:	0001c09f 	muleq	r1, pc, r0	; <UNPREDICTABLE>
    1268:	00021400 	andeq	r1, r2, r0, lsl #8
    126c:	08000300 	stmdaeq	r0, {r8, r9}
    1270:	02749f7f 	rsbseq	r9, r4, #508	; 0x1fc
    1274:	02900000 	addseq	r0, r0, #0, 0
    1278:	00010000 	andeq	r0, r1, r0
    127c:	00029053 	andeq	r9, r2, r3, asr r0
    1280:	0002a000 	andeq	sl, r2, r0
    1284:	f3000400 	vshl.u8	d0, d0, d0
    1288:	ec9f5301 	ldc	3, cr5, [pc], {1}
    128c:	28000002 	stmdacs	r0, {r1}
    1290:	03000003 	movweq	r0, #3
    1294:	9f7f0800 	svcls	0x007f0800
	...
    12a0:	00000001 	andeq	r0, r0, r1
    12a4:	00020200 	andeq	r0, r2, r0, lsl #4
    12a8:	00010100 	andeq	r0, r1, r0, lsl #2
    12ac:	00000000 	andeq	r0, r0, r0
    12b0:	02000000 	andeq	r0, r0, #0, 0
    12b4:	00000002 	andeq	r0, r0, r2
    12b8:	00000001 	andeq	r0, r0, r1
    12bc:	00000000 	andeq	r0, r0, r0
    12c0:	00010100 	andeq	r0, r1, r0, lsl #2
    12c4:	02000000 	andeq	r0, r0, #0, 0
    12c8:	00000002 	andeq	r0, r0, r2
    12cc:	01000000 	mrseq	r0, (UNDEF: 0)
    12d0:	00000001 	andeq	r0, r0, r1
    12d4:	00000018 	andeq	r0, r0, r8, lsl r0
    12d8:	00000070 	andeq	r0, r0, r0, ror r0
    12dc:	a0910004 	addsge	r0, r1, r4
    12e0:	00709f7f 	rsbseq	r9, r0, pc, ror pc
    12e4:	00780000 	rsbseq	r0, r8, r0
    12e8:	00010000 	andeq	r0, r1, r0
    12ec:	00007852 	andeq	r7, r0, r2, asr r8
    12f0:	00007800 	andeq	r7, r0, r0, lsl #16
    12f4:	54000100 	strpl	r0, [r0], #-256	; 0xffffff00
    12f8:	00000078 	andeq	r0, r0, r8, ror r0
    12fc:	00000088 	andeq	r0, r0, r8, lsl #1
    1300:	01740003 	cmneq	r4, r3
    1304:	0000889f 	muleq	r0, pc, r8	; <UNPREDICTABLE>
    1308:	00009000 	andeq	r9, r0, r0
    130c:	54000100 	strpl	r0, [r0], #-256	; 0xffffff00
    1310:	00000090 	muleq	r0, r0, r0
    1314:	000000a0 	andeq	r0, r0, r0, lsr #1
    1318:	02740003 	rsbseq	r0, r4, #3, 0
    131c:	0000a09f 	muleq	r0, pc, r0	; <UNPREDICTABLE>
    1320:	0000b000 	andeq	fp, r0, r0
    1324:	5e000100 	adfpls	f0, f0, f0
    1328:	00000194 	muleq	r0, r4, r1
    132c:	0000019c 	muleq	r0, ip, r1
    1330:	a0910004 	addsge	r0, r1, r4
    1334:	019c9f7f 	orrseq	r9, ip, pc, ror pc
    1338:	01a40000 			; <UNDEFINED> instruction: 0x01a40000
    133c:	00010000 	andeq	r0, r1, r0
    1340:	0001a452 	andeq	sl, r1, r2, asr r4
    1344:	0001a400 	andeq	sl, r1, r0, lsl #8
    1348:	5e000100 	adfpls	f0, f0, f0
    134c:	000001a4 	andeq	r0, r0, r4, lsr #3
    1350:	000001b4 			; <UNDEFINED> instruction: 0x000001b4
    1354:	017e0003 	cmneq	lr, r3
    1358:	0001b49f 	muleq	r1, pc, r4	; <UNPREDICTABLE>
    135c:	0001c000 	andeq	ip, r1, r0
    1360:	5e000100 	adfpls	f0, f0, f0
    1364:	000001c0 	andeq	r0, r0, r0, asr #3
    1368:	00000228 	andeq	r0, r0, r8, lsr #4
    136c:	a0910004 	addsge	r0, r1, r4
    1370:	02289f7f 	eoreq	r9, r8, #508	; 0x1fc
    1374:	02340000 	eorseq	r0, r4, #0, 0
    1378:	00010000 	andeq	r0, r1, r0
    137c:	00023452 	andeq	r3, r2, r2, asr r4
    1380:	00025800 	andeq	r5, r2, r0, lsl #16
    1384:	5e000100 	adfpls	f0, f0, f0
    1388:	00000258 	andeq	r0, r0, r8, asr r2
    138c:	0000025c 	andeq	r0, r0, ip, asr r2
    1390:	017e0003 	cmneq	lr, r3
    1394:	00025c9f 	muleq	r2, pc, ip	; <UNPREDICTABLE>
    1398:	00026400 	andeq	r6, r2, r0, lsl #8
    139c:	5e000100 	adfpls	f0, f0, f0
    13a0:	00000264 	andeq	r0, r0, r4, ror #4
    13a4:	00000270 	andeq	r0, r0, r0, ror r2
    13a8:	02710003 	rsbseq	r0, r1, #3, 0
    13ac:	0002709f 	muleq	r2, pc, r0	; <UNPREDICTABLE>
    13b0:	00027400 	andeq	r7, r2, r0, lsl #8
    13b4:	5e000100 	adfpls	f0, f0, f0
    13b8:	00000274 	andeq	r0, r0, r4, ror r2
    13bc:	00000274 	andeq	r0, r0, r4, ror r2
    13c0:	a0910004 	addsge	r0, r1, r4
    13c4:	02749f7f 	rsbseq	r9, r4, #508	; 0x1fc
    13c8:	02a00000 	adceq	r0, r0, #0, 0
    13cc:	00040000 	andeq	r0, r4, r0
    13d0:	9f7fa191 	svcls	0x007fa191
    13d4:	000002c0 	andeq	r0, r0, r0, asr #5
    13d8:	000002c8 	andeq	r0, r0, r8, asr #5
    13dc:	c85e0001 	ldmdagt	lr, {r0}^
    13e0:	cc000002 	stcgt	0, cr0, [r0], {2}
    13e4:	01000002 	tsteq	r0, r2
    13e8:	02cc5600 	sbceq	r5, ip, #0, 12
    13ec:	02ec0000 	rsceq	r0, ip, #0, 0
    13f0:	00040000 	andeq	r0, r4, r0
    13f4:	9f7fa091 	svcls	0x007fa091
    13f8:	000002ec 	andeq	r0, r0, ip, ror #5
    13fc:	000002fc 	strdeq	r0, [r0], -ip
    1400:	a1910004 	orrsge	r0, r1, r4
    1404:	02fc9f7f 	rscseq	r9, ip, #508	; 0x1fc
    1408:	03280000 			; <UNDEFINED> instruction: 0x03280000
    140c:	00010000 	andeq	r0, r1, r0
    1410:	0000005e 	andeq	r0, r0, lr, asr r0
	...
    1428:	00000101 	andeq	r0, r0, r1, lsl #2
	...
    1438:	20000000 	andcs	r0, r0, r0
    143c:	70000000 	andvc	r0, r0, r0
    1440:	01000000 	mrseq	r0, (UNDEF: 0)
    1444:	00705200 	rsbseq	r5, r0, r0, lsl #4
    1448:	00940000 	addseq	r0, r4, r0
    144c:	00010000 	andeq	r0, r1, r0
    1450:	0001945c 	andeq	r9, r1, ip, asr r4
    1454:	00019c00 	andeq	r9, r1, r0, lsl #24
    1458:	52000100 	andpl	r0, r0, #0
    145c:	0000019c 	muleq	r0, ip, r1
    1460:	000001c0 	andeq	r0, r0, r0, asr #3
    1464:	c85c0001 	ldmdagt	ip, {r0}^
    1468:	10000001 	andne	r0, r0, r1
    146c:	01000002 	tsteq	r0, r2
    1470:	02105c00 	andseq	r5, r0, #0, 24
    1474:	02240000 	eoreq	r0, r4, #0, 0
    1478:	00010000 	andeq	r0, r1, r0
    147c:	00022452 	andeq	r2, r2, r2, asr r4
    1480:	00024800 	andeq	r4, r2, r0, lsl #16
    1484:	5c000100 	stfpls	f0, [r0], {-0}
    1488:	00000248 	andeq	r0, r0, r8, asr #4
    148c:	0000025c 	andeq	r0, r0, ip, asr r2
    1490:	5c550001 	mrrcpl	0, 0, r0, r5, cr1
    1494:	68000002 	stmdavs	r0, {r1}
    1498:	01000002 	tsteq	r0, r2
    149c:	02685c00 	rsbeq	r5, r8, #0, 24
    14a0:	02740000 	rsbseq	r0, r4, #0, 0
    14a4:	00190000 	andseq	r0, r9, r0
    14a8:	2cf70075 	ldclcs	0, cr0, [r7], #468	; 0x1d4
    14ac:	007625f7 	ldrshteq	r2, [r6], #-87	; 0xffffffa9
    14b0:	25f72cf7 	ldrbcs	r2, [r7, #3319]!	; 0xcf7
    14b4:	f720081e 			; <UNDEFINED> instruction: 0xf720081e
    14b8:	2cf72525 	cfldr64cs	mvdx2, [r7], #148	; 0x94
    14bc:	253300f7 	ldrcs	r0, [r3, #-247]!	; 0xffffff09
    14c0:	0002749f 	muleq	r2, pc, r4	; <UNPREDICTABLE>
    14c4:	00028800 	andeq	r8, r2, r0, lsl #16
    14c8:	52000100 	andpl	r0, r0, #0
    14cc:	00000288 	andeq	r0, r0, r8, lsl #5
    14d0:	000002a0 	andeq	r0, r0, r0, lsr #5
    14d4:	cc5c0001 	mrrcgt	0, 0, r0, ip, cr1
    14d8:	d0000002 	andle	r0, r0, r2
    14dc:	01000002 	tsteq	r0, r2
    14e0:	02d05200 	sbcseq	r5, r0, #0, 4
    14e4:	02e70000 	rsceq	r0, r7, #0, 0
    14e8:	00010000 	andeq	r0, r1, r0
    14ec:	0002e75c 	andeq	lr, r2, ip, asr r7
    14f0:	0002ec00 	andeq	lr, r2, r0, lsl #24
    14f4:	f3000400 	vshl.u8	d0, d0, d0
    14f8:	ec9f5201 	lfm	f5, 4, [pc], {1}
    14fc:	00000002 	andeq	r0, r0, r2
    1500:	01000003 	tsteq	r0, r3
    1504:	03005200 	movweq	r5, #512	; 0x200
    1508:	03280000 			; <UNDEFINED> instruction: 0x03280000
    150c:	00010000 	andeq	r0, r1, r0
    1510:	0000005c 	andeq	r0, r0, ip, asr r0
    1514:	00000000 	andeq	r0, r0, r0
    1518:	04000400 	streq	r0, [r0], #-1024	; 0xfffffc00
    151c:	00010000 	andeq	r0, r1, r0
    1520:	a4000400 	strge	r0, [r0], #-1024	; 0xfffffc00
    1524:	b0000000 	andlt	r0, r0, r0
    1528:	01000000 	mrseq	r0, (UNDEF: 0)
    152c:	027c5300 	rsbseq	r5, ip, #0, 6
    1530:	02900000 	addseq	r0, r0, #0, 0
    1534:	00010000 	andeq	r0, r1, r0
    1538:	00029053 	andeq	r9, r2, r3, asr r0
    153c:	00029c00 	andeq	r9, r2, r0, lsl #24
    1540:	f3000400 	vshl.u8	d0, d0, d0
    1544:	c09f5301 	addsgt	r5, pc, r1, lsl #6
    1548:	cc000002 	stcgt	0, cr0, [r0], {2}
    154c:	01000002 	tsteq	r0, r2
    1550:	02f05300 	rscseq	r5, r0, #0, 6
    1554:	03280000 			; <UNDEFINED> instruction: 0x03280000
    1558:	00030000 	andeq	r0, r3, r0
    155c:	009f7f08 	addseq	r7, pc, r8, lsl #30
    1560:	00000000 	andeq	r0, r0, r0
    1564:	04000000 	streq	r0, [r0], #-0
    1568:	04010000 	streq	r0, [r1], #-0
    156c:	00010000 	andeq	r0, r1, r0
    1570:	04000000 	streq	r0, [r0], #-0
    1574:	a4000000 	strge	r0, [r0], #-0
    1578:	b0000000 	andlt	r0, r0, r0
    157c:	01000000 	mrseq	r0, (UNDEF: 0)
    1580:	00b05200 	adcseq	r5, r0, r0, lsl #4
    1584:	015c0000 	cmpeq	ip, r0
    1588:	00040000 	andeq	r0, r4, r0
    158c:	9f7fa091 	svcls	0x007fa091
    1590:	0000027c 	andeq	r0, r0, ip, ror r2
    1594:	00000294 	muleq	r0, r4, r2
    1598:	a0910004 	addsge	r0, r1, r4
    159c:	02949f7f 	addseq	r9, r4, #508	; 0x1fc
    15a0:	029c0000 	addseq	r0, ip, #0, 0
    15a4:	00010000 	andeq	r0, r1, r0
    15a8:	0002b45e 	andeq	fp, r2, lr, asr r4
    15ac:	0002c000 	andeq	ip, r2, r0
    15b0:	91000400 	tstls	r0, r0, lsl #8
    15b4:	c09f7fa0 	addsgt	r7, pc, r0, lsr #31
    15b8:	cc000002 	stcgt	0, cr0, [r0], {2}
    15bc:	01000002 	tsteq	r0, r2
    15c0:	02f05200 	rscseq	r5, r0, #0, 4
    15c4:	03000000 	movweq	r0, #0
    15c8:	00040000 	andeq	r0, r4, r0
    15cc:	9f7fa091 	svcls	0x007fa091
    15d0:	00000300 	andeq	r0, r0, r0, lsl #6
    15d4:	00000328 	andeq	r0, r0, r8, lsr #6
    15d8:	00520001 	subseq	r0, r2, r1
    15dc:	00000000 	andeq	r0, r0, r0
    15e0:	04000000 	streq	r0, [r0], #-0
    15e4:	01010000 	mrseq	r0, (UNDEF: 1)
    15e8:	03030101 	movweq	r0, #12545	; 0x3101
    15ec:	00010402 	andeq	r0, r1, r2, lsl #8
    15f0:	04000000 	streq	r0, [r0], #-0
    15f4:	a4000000 	strge	r0, [r0], #-0
    15f8:	b0000000 	andlt	r0, r0, r0
    15fc:	01000000 	mrseq	r0, (UNDEF: 0)
    1600:	010c5e00 	tsteq	ip, r0, lsl #28
    1604:	010c0000 	mrseq	r0, (UNDEF: 12)
    1608:	00010000 	andeq	r0, r1, r0
    160c:	00010c55 	andeq	r0, r1, r5, asr ip
    1610:	00012000 	andeq	r2, r1, r0
    1614:	75000300 	strvc	r0, [r0, #-768]	; 0xfffffd00
    1618:	01209f01 			; <UNDEFINED> instruction: 0x01209f01
    161c:	012c0000 			; <UNDEFINED> instruction: 0x012c0000
    1620:	00030000 	andeq	r0, r3, r0
    1624:	2c9f0275 	lfmcs	f0, 4, [pc], {117}	; 0x75
    1628:	30000001 	andcc	r0, r0, r1
    162c:	03000001 	movweq	r0, #1
    1630:	9f037500 	svcls	0x00037500
    1634:	0000027c 	andeq	r0, r0, ip, ror r2
    1638:	0000029c 	muleq	r0, ip, r2
    163c:	a1910004 	orrsge	r0, r1, r4
    1640:	02c09f7f 	sbceq	r9, r0, #508	; 0x1fc
    1644:	02c80000 	sbceq	r0, r8, #0, 0
    1648:	00010000 	andeq	r0, r1, r0
    164c:	0002c85e 	andeq	ip, r2, lr, asr r8
    1650:	0002cc00 	andeq	ip, r2, r0, lsl #24
    1654:	56000100 	strpl	r0, [r0], -r0, lsl #2
    1658:	000002f0 	strdeq	r0, [r0], -r0	; <UNPREDICTABLE>
    165c:	000002fc 	strdeq	r0, [r0], -ip
    1660:	a1910004 	orrsge	r0, r1, r4
    1664:	02fc9f7f 	rscseq	r9, ip, #508	; 0x1fc
    1668:	03280000 			; <UNDEFINED> instruction: 0x03280000
    166c:	00010000 	andeq	r0, r1, r0
    1670:	0000005e 	andeq	r0, r0, lr, asr r0
	...
    167c:	01010101 	tsteq	r1, r1, lsl #2
    1680:	06020101 	streq	r0, [r2], -r1, lsl #2
    1684:	06000001 	streq	r0, [r0], -r1
    1688:	0000a800 	andeq	sl, r0, r0, lsl #16
    168c:	0000b000 	andeq	fp, r0, r0
    1690:	51000100 	mrspl	r0, (UNDEF: 16)
    1694:	0000010c 	andeq	r0, r0, ip, lsl #2
    1698:	0000011c 	andeq	r0, r0, ip, lsl r1
    169c:	1c5c0001 	mrrcne	0, 0, r0, ip, cr1
    16a0:	2c000001 	stccs	0, cr0, [r0], {1}
    16a4:	01000001 	tsteq	r0, r1
    16a8:	012c5800 			; <UNDEFINED> instruction: 0x012c5800
    16ac:	01300000 	teqeq	r0, r0
    16b0:	00010000 	andeq	r0, r1, r0
    16b4:	0001305c 	andeq	r3, r1, ip, asr r0
    16b8:	00013000 	andeq	r3, r1, r0
    16bc:	7c000300 	stcvc	3, cr0, [r0], {-0}
    16c0:	027c9f01 	rsbseq	r9, ip, #1, 30
    16c4:	029c0000 	addseq	r0, ip, #0, 0
    16c8:	00020000 	andeq	r0, r2, r0
    16cc:	02c09f31 	sbceq	r9, r0, #196	; 0xc4
    16d0:	02cc0000 	sbceq	r0, ip, #0, 0
    16d4:	00010000 	andeq	r0, r1, r0
    16d8:	0002f051 	andeq	pc, r2, r1, asr r0	; <UNPREDICTABLE>
    16dc:	00032800 	andeq	r2, r3, r0, lsl #16
    16e0:	31000200 	mrscc	r0, R8_usr
    16e4:	0000009f 	muleq	r0, pc, r0	; <UNPREDICTABLE>
    16e8:	00000000 	andeq	r0, r0, r0
    16ec:	06060100 	streq	r0, [r6], -r0, lsl #2
    16f0:	00000101 	andeq	r0, r0, r1, lsl #2
    16f4:	00015c01 	andeq	r5, r1, r1, lsl #24
    16f8:	00015c00 	andeq	r5, r1, r0, lsl #24
    16fc:	91000400 	tstls	r0, r0, lsl #8
    1700:	5c9f7fa0 	ldcpl	15, cr7, [pc], {160}	; 0xa0
    1704:	8c000001 	stchi	0, cr0, [r0], {1}
    1708:	01000001 	tsteq	r0, r1
    170c:	029c5200 	addseq	r5, ip, #0, 4
    1710:	02a00000 	adceq	r0, r0, #0, 0
    1714:	00010000 	andeq	r0, r1, r0
    1718:	0002a05e 	andeq	sl, r2, lr, asr r0
    171c:	0002ac00 	andeq	sl, r2, r0, lsl #24
    1720:	52000100 	andpl	r0, r0, #0
	...
    172c:	01000000 	mrseq	r0, (UNDEF: 0)
    1730:	07010001 	streq	r0, [r1, -r1]
    1734:	0000016c 	andeq	r0, r0, ip, ror #2
    1738:	00000170 	andeq	r0, r0, r0, ror r1
    173c:	7f730003 	svcvc	0x00730003
    1740:	0001709f 	muleq	r1, pc, r0	; <UNPREDICTABLE>
    1744:	00017800 	andeq	r7, r1, r0, lsl #16
    1748:	53000100 	movwpl	r0, #256	; 0x100
    174c:	00000178 	andeq	r0, r0, r8, ror r1
    1750:	00000184 	andeq	r0, r0, r4, lsl #3
    1754:	7f730003 	svcvc	0x00730003
    1758:	00029c9f 	muleq	r2, pc, ip	; <UNPREDICTABLE>
    175c:	00029c00 	andeq	r9, r2, r0, lsl #24
    1760:	91000400 	tstls	r0, r0, lsl #8
    1764:	009f7fa1 	addseq	r7, pc, r1, lsr #31
    1768:	00000000 	andeq	r0, r0, r0
    176c:	01000000 	mrseq	r0, (UNDEF: 0)
    1770:	5c010101 	stfpls	f0, [r1], {1}
    1774:	8c000001 	stchi	0, cr0, [r0], {1}
    1778:	03000001 	movweq	r0, #1
    177c:	9f800800 	svcls	0x00800800
    1780:	0000029c 	muleq	r0, ip, r2
    1784:	000002ac 	andeq	r0, r0, ip, lsr #5
    1788:	80080003 	andhi	r0, r8, r3
    178c:	0000009f 	muleq	r0, pc, r0	; <UNPREDICTABLE>
    1790:	00000000 	andeq	r0, r0, r0
    1794:	00000100 	andeq	r0, r0, r0, lsl #2
    1798:	00000101 	andeq	r0, r0, r1, lsl #2
    179c:	01010101 	tsteq	r1, r1, lsl #2
    17a0:	5c010101 	stfpls	f0, [r1], {1}
    17a4:	6c000001 	stcvs	0, cr0, [r0], {1}
    17a8:	01000001 	tsteq	r0, r1
    17ac:	016c5000 	cmneq	ip, r0
    17b0:	016c0000 	cmneq	ip, r0
    17b4:	00030000 	andeq	r0, r3, r0
    17b8:	6c9f017c 	ldfvss	f0, [pc], {124}	; 0x7c
    17bc:	78000001 	stmdavc	r0, {r0}
    17c0:	03000001 	movweq	r0, #1
    17c4:	9f027c00 	svcls	0x00027c00
    17c8:	00000178 	andeq	r0, r0, r8, ror r1
    17cc:	00000188 	andeq	r0, r0, r8, lsl #3
    17d0:	017c0003 	cmneq	ip, r3
    17d4:	0001889f 	muleq	r1, pc, r8	; <UNPREDICTABLE>
    17d8:	00018c00 	andeq	r8, r1, r0, lsl #24
    17dc:	7e000300 	cdpvc	3, 0, cr0, cr0, cr0, {0}
    17e0:	029c9f01 	addseq	r9, ip, #1, 30
    17e4:	02a40000 	adceq	r0, r4, #0, 0
    17e8:	00010000 	andeq	r0, r1, r0
    17ec:	0002a450 	andeq	sl, r2, r0, asr r4
    17f0:	0002ac00 	andeq	sl, r2, r0, lsl #24
    17f4:	7e000300 	cdpvc	3, 0, cr0, cr0, cr0, {0}
    17f8:	00009f01 	andeq	r9, r0, r1, lsl #30
    17fc:	00000000 	andeq	r0, r0, r0
    1800:	00040000 	andeq	r0, r4, r0
    1804:	01000004 	tsteq	r0, r4
    1808:	0000015c 	andeq	r0, r0, ip, asr r1
    180c:	00000160 	andeq	r0, r0, r0, ror #2
    1810:	01710003 	cmneq	r1, r3
    1814:	00029c9f 	muleq	r2, pc, ip	; <UNPREDICTABLE>
    1818:	0002a000 	andeq	sl, r2, r0
    181c:	32000200 	andcc	r0, r0, #0, 4
    1820:	0002a09f 	muleq	r2, pc, r0	; <UNPREDICTABLE>
    1824:	0002ac00 	andeq	sl, r2, r0, lsl #24
    1828:	71000300 	mrsvc	r0, LR_irq
    182c:	00009f01 	andeq	r9, r0, r1, lsl #30
    1830:	00000000 	andeq	r0, r0, r0
    1834:	00070000 	andeq	r0, r7, r0
    1838:	015c0006 	cmpeq	ip, r6
    183c:	01940000 	orrseq	r0, r4, r0
    1840:	00010000 	andeq	r0, r1, r0
    1844:	00029c50 	andeq	r9, r2, r0, asr ip
    1848:	0002b400 	andeq	fp, r2, r0, lsl #8
    184c:	50000100 	andpl	r0, r0, r0, lsl #2
	...
    1858:	00010101 	andeq	r0, r1, r1, lsl #2
    185c:	00000214 	andeq	r0, r0, r4, lsl r2
    1860:	00000220 	andeq	r0, r0, r0, lsr #4
    1864:	9f300002 	svcls	0x00300002
    1868:	00000220 	andeq	r0, r0, r0, lsr #4
    186c:	00000234 	andeq	r0, r0, r4, lsr r2
    1870:	9f310002 	svcls	0x00310002
	...
    187c:	00010100 	andeq	r0, r1, r0, lsl #2
    1880:	00010100 	andeq	r0, r1, r0, lsl #2
    1884:	00010100 	andeq	r0, r1, r0, lsl #2
    1888:	00010100 	andeq	r0, r1, r0, lsl #2
    188c:	00010100 	andeq	r0, r1, r0, lsl #2
    1890:	01020200 	mrseq	r0, R10_usr
    1894:	00000080 	andeq	r0, r0, r0, lsl #1
    1898:	00000080 	andeq	r0, r0, r0, lsl #1
    189c:	80530001 	subshi	r0, r3, r1
    18a0:	8c000000 	stchi	0, cr0, [r0], {-0}
    18a4:	03000000 	movweq	r0, #0
    18a8:	9f047300 	svcls	0x00047300
    18ac:	0000008c 	andeq	r0, r0, ip, lsl #1
    18b0:	00000094 	muleq	r0, r4, r0
    18b4:	94510001 	ldrbls	r0, [r1], #-1
    18b8:	98000000 	stmdals	r0, {}	; <UNPREDICTABLE>
    18bc:	03000000 	movweq	r0, #0
    18c0:	9f087300 	svcls	0x00087300
    18c4:	00000098 	muleq	r0, r8, r0
    18c8:	000000a4 	andeq	r0, r0, r4, lsr #1
    18cc:	a4510001 	ldrbge	r0, [r1], #-1
    18d0:	a8000000 	stmdage	r0, {}	; <UNPREDICTABLE>
    18d4:	03000000 	movweq	r0, #0
    18d8:	9f0c7300 	svcls	0x000c7300
    18dc:	000000a8 	andeq	r0, r0, r8, lsr #1
    18e0:	000000b4 	strheq	r0, [r0], -r4
    18e4:	b4510001 	ldrblt	r0, [r1], #-1
    18e8:	b8000000 	stmdalt	r0, {}	; <UNPREDICTABLE>
    18ec:	03000000 	movweq	r0, #0
    18f0:	9f107300 	svcls	0x00107300
    18f4:	000000b8 	strheq	r0, [r0], -r8
    18f8:	000000c4 	andeq	r0, r0, r4, asr #1
    18fc:	c4510001 	ldrbgt	r0, [r1], #-1
    1900:	c8000000 	stmdagt	r0, {}	; <UNPREDICTABLE>
    1904:	03000000 	movweq	r0, #0
    1908:	9f147300 	svcls	0x00147300
    190c:	000000c8 	andeq	r0, r0, r8, asr #1
    1910:	000000d0 	ldrdeq	r0, [r0], -r0	; <UNPREDICTABLE>
    1914:	d0510001 	subsle	r0, r1, r1
    1918:	d4000000 	strle	r0, [r0], #-0
    191c:	03000000 	movweq	r0, #0
    1920:	9f047100 	svcls	0x00047100
	...
    192c:	00d80002 	sbcseq	r0, r8, r2
    1930:	00e80000 	rsceq	r0, r8, r0
    1934:	00020000 	andeq	r0, r2, r0
    1938:	00009f31 	andeq	r9, r0, r1, lsr pc
    193c:	00000000 	andeq	r0, r0, r0
    1940:	00040000 	andeq	r0, r4, r0
    1944:	8e580100 	rdfhie	f0, f0, f0
    1948:	8e600000 	cdphi	0, 6, cr0, cr0, cr0, {0}
    194c:	00020000 	andeq	r0, r2, r0
    1950:	8e609f30 	mcrhi	15, 3, r9, cr0, cr0, {1}
    1954:	8e600000 	cdphi	0, 6, cr0, cr0, cr0, {0}
    1958:	00010000 	andeq	r0, r1, r0
    195c:	00000053 	andeq	r0, r0, r3, asr r0
    1960:	00000000 	andeq	r0, r0, r0
    1964:	00000300 	andeq	r0, r0, r0, lsl #6
    1968:	00000000 	andeq	r0, r0, r0
    196c:	008e6c00 	addeq	r6, lr, r0, lsl #24
    1970:	008e7000 	addeq	r7, lr, r0
    1974:	30000200 	andcc	r0, r0, r0, lsl #4
    1978:	008e709f 	umulleq	r7, lr, pc, r0	; <UNPREDICTABLE>
    197c:	008e7400 	addeq	r7, lr, r0, lsl #8
    1980:	53000100 	movwpl	r0, #256	; 0x100
    1984:	00008e74 	andeq	r8, r0, r4, ror lr
    1988:	00008e78 	andeq	r8, r0, r8, ror lr
    198c:	00730005 	rsbseq	r0, r3, r5
    1990:	789f2140 	ldmvc	pc, {r6, r8, sp}	; <UNPREDICTABLE>
    1994:	7c00008e 	stcvc	0, cr0, [r0], {142}	; 0x8e
    1998:	0100008e 	smlabbeq	r0, lr, r0, r0
    199c:	00005300 	andeq	r5, r0, r0, lsl #6
    19a0:	00000000 	andeq	r0, r0, r0
    19a4:	00020000 	andeq	r0, r2, r0
    19a8:	8e2c0000 	cdphi	0, 2, cr0, cr12, cr0, {0}
    19ac:	8e300000 	cdphi	0, 3, cr0, cr0, cr0, {0}
    19b0:	00020000 	andeq	r0, r2, r0
    19b4:	8e309f30 	mrchi	15, 1, r9, cr0, cr0, {1}
    19b8:	8e340000 	cdphi	0, 3, cr0, cr4, cr0, {0}
    19bc:	00010000 	andeq	r0, r1, r0
    19c0:	00000050 	andeq	r0, r0, r0, asr r0
    19c4:	00000000 	andeq	r0, r0, r0
    19c8:	00000200 	andeq	r0, r0, r0, lsl #4
    19cc:	00000000 	andeq	r0, r0, r0
    19d0:	008e4400 	addeq	r4, lr, r0, lsl #8
    19d4:	008e4800 	addeq	r4, lr, r0, lsl #16
    19d8:	30000200 	andcc	r0, r0, r0, lsl #4
    19dc:	008e489f 	umulleq	r4, lr, pc, r8	; <UNPREDICTABLE>
    19e0:	008e4c00 	addeq	r4, lr, r0, lsl #24
    19e4:	53000100 	movwpl	r0, #256	; 0x100
    19e8:	00008e4c 	andeq	r8, r0, ip, asr #28
    19ec:	00008e50 	andeq	r8, r0, r0, asr lr
    19f0:	00730005 	rsbseq	r0, r3, r5
    19f4:	509f2140 	addspl	r2, pc, r0, asr #2
    19f8:	5800008e 	stmdapl	r0, {r1, r2, r3, r7}
    19fc:	0100008e 	smlabbeq	r0, lr, r0, r0
    1a00:	00005300 	andeq	r5, r0, r0, lsl #6
	...
    1a0c:	00c80000 	sbceq	r0, r8, r0
    1a10:	00d80000 	sbcseq	r0, r8, r0
    1a14:	00010000 	andeq	r0, r1, r0
    1a18:	0000d850 	andeq	sp, r0, r0, asr r8
    1a1c:	00011c00 	andeq	r1, r1, r0, lsl #24
    1a20:	f3000400 	vshl.u8	d0, d0, d0
    1a24:	009f5001 	addseq	r5, pc, r1
    1a28:	00000000 	andeq	r0, r0, r0
    1a2c:	02000000 	andeq	r0, r0, #0, 0
    1a30:	c8000000 	stmdagt	r0, {}	; <UNPREDICTABLE>
    1a34:	d8000000 	stmdale	r0, {}	; <UNPREDICTABLE>
    1a38:	07000000 	streq	r0, [r0, -r0]
    1a3c:	0a007000 	beq	1da44 <__bss_end__+0x13924>
    1a40:	9f1e03e8 	svcls	0x001e03e8
    1a44:	000000d8 	ldrdeq	r0, [r0], -r8
    1a48:	0000011c 	andeq	r0, r0, ip, lsl r1
    1a4c:	01f30008 	mvnseq	r0, r8
    1a50:	03e80a50 	mvneq	r0, #80, 20	; 0x50000
    1a54:	00009f1e 	andeq	r9, r0, lr, lsl pc
	...
    1a60:	000000dc 	ldrdeq	r0, [r0], -ip
    1a64:	0000011c 	andeq	r0, r0, ip, lsl r1
    1a68:	00540001 	subseq	r0, r4, r1
    1a6c:	00000000 	andeq	r0, r0, r0
    1a70:	01000000 	mrseq	r0, (UNDEF: 0)
    1a74:	0000f000 	andeq	pc, r0, r0
    1a78:	00011c00 	andeq	r1, r1, r0, lsl #24
    1a7c:	56000100 	strpl	r0, [r0], -r0, lsl #2
	...
    1a8c:	000000ec 	andeq	r0, r0, ip, ror #1
    1a90:	000000ef 	andeq	r0, r0, pc, ror #1
    1a94:	ef500001 	svc	0x00500001
    1a98:	1c000000 	stcne	0, cr0, [r0], {-0}
    1a9c:	01000001 	tsteq	r0, r1
    1aa0:	00005600 	andeq	r5, r0, r0, lsl #12
	...
    1aac:	00000104 	andeq	r0, r0, r4, lsl #2
    1ab0:	0000010b 	andeq	r0, r0, fp, lsl #2
    1ab4:	00500001 	subseq	r0, r0, r1
	...
    1ac0:	20000000 	andcs	r0, r0, r0
    1ac4:	23000000 	movwcs	r0, #0
    1ac8:	01000000 	mrseq	r0, (UNDEF: 0)
    1acc:	00235000 	eoreq	r5, r3, r0
    1ad0:	00300000 	eorseq	r0, r0, r0
    1ad4:	00010000 	andeq	r0, r1, r0
    1ad8:	00000054 	andeq	r0, r0, r4, asr r0
	...
    1ae4:	00003000 	andeq	r3, r0, r0
    1ae8:	00003b00 	andeq	r3, r0, r0, lsl #22
    1aec:	50000100 	andpl	r0, r0, r0, lsl #2
    1af0:	0000003b 	andeq	r0, r0, fp, lsr r0
    1af4:	00000078 	andeq	r0, r0, r8, ror r0
    1af8:	00560001 	subseq	r0, r6, r1
    1afc:	00000000 	andeq	r0, r0, r0
    1b00:	01000000 	mrseq	r0, (UNDEF: 0)
    1b04:	00004c00 	andeq	r4, r0, r0, lsl #24
    1b08:	00007800 	andeq	r7, r0, r0, lsl #16
    1b0c:	55000100 	strpl	r0, [r0, #-256]	; 0xffffff00
	...
    1b1c:	00000048 	andeq	r0, r0, r8, asr #32
    1b20:	0000004b 	andeq	r0, r0, fp, asr #32
    1b24:	4b500001 	blmi	1401b30 <__bss_end__+0x13f7a10>
    1b28:	78000000 	stmdavc	r0, {}	; <UNPREDICTABLE>
    1b2c:	01000000 	mrseq	r0, (UNDEF: 0)
    1b30:	00005500 	andeq	r5, r0, r0, lsl #10
	...
    1b3c:	00000060 	andeq	r0, r0, r0, rrx
    1b40:	00000067 	andeq	r0, r0, r7, rrx
    1b44:	00500001 	subseq	r0, r0, r1
	...
    1b50:	78000000 	stmdavc	r0, {}	; <UNPREDICTABLE>
    1b54:	84000000 	strhi	r0, [r0], #-0
    1b58:	01000000 	mrseq	r0, (UNDEF: 0)
    1b5c:	00845000 	addeq	r5, r4, r0
    1b60:	00c80000 	sbceq	r0, r8, r0
    1b64:	00040000 	andeq	r0, r4, r0
    1b68:	9f5001f3 	svcls	0x005001f3
	...
    1b74:	00880000 	addeq	r0, r8, r0
    1b78:	00c80000 	sbceq	r0, r8, r0
    1b7c:	00010000 	andeq	r0, r1, r0
    1b80:	00000054 	andeq	r0, r0, r4, asr r0
    1b84:	00000000 	andeq	r0, r0, r0
    1b88:	9c000100 	stflss	f0, [r0], {-0}
    1b8c:	c8000000 	stmdagt	r0, {}	; <UNPREDICTABLE>
    1b90:	01000000 	mrseq	r0, (UNDEF: 0)
    1b94:	00005600 	andeq	r5, r0, r0, lsl #12
	...
    1ba0:	00980000 	addseq	r0, r8, r0
    1ba4:	009b0000 	addseq	r0, fp, r0
    1ba8:	00010000 	andeq	r0, r1, r0
    1bac:	00009b50 	andeq	r9, r0, r0, asr fp
    1bb0:	0000c800 	andeq	ip, r0, r0, lsl #16
    1bb4:	56000100 	strpl	r0, [r0], -r0, lsl #2
	...
    1bc0:	00b00000 	adcseq	r0, r0, r0
    1bc4:	00b70000 	adcseq	r0, r7, r0
    1bc8:	00010000 	andeq	r0, r1, r0
    1bcc:	00000050 	andeq	r0, r0, r0, asr r0
	...
    1bd8:	00015800 	andeq	r5, r1, r0, lsl #16
    1bdc:	00016300 	andeq	r6, r1, r0, lsl #6
    1be0:	50000100 	andpl	r0, r0, r0, lsl #2
    1be4:	00000163 	andeq	r0, r0, r3, ror #2
    1be8:	00000188 	andeq	r0, r0, r8, lsl #3
    1bec:	00540001 	subseq	r0, r4, r1
	...
    1bf8:	00014800 	andeq	r4, r1, r0, lsl #16
    1bfc:	00015800 	andeq	r5, r1, r0, lsl #16
    1c00:	54000100 	strpl	r0, [r0], #-256	; 0xffffff00
	...
    1c14:	0000000f 	andeq	r0, r0, pc
    1c18:	0f500001 	svceq	0x00500001
    1c1c:	20000000 	andcs	r0, r0, r0
    1c20:	01000000 	mrseq	r0, (UNDEF: 0)
    1c24:	00005400 	andeq	r5, r0, r0, lsl #8
	...
    1c34:	000f0000 	andeq	r0, pc, r0
    1c38:	00010000 	andeq	r0, r1, r0
    1c3c:	00000f51 	andeq	r0, r0, r1, asr pc
    1c40:	00002000 	andeq	r2, r0, r0
    1c44:	55000100 	strpl	r0, [r0, #-256]	; 0xffffff00
	...
    1c54:	00000020 	andeq	r0, r0, r0, lsr #32
    1c58:	0000002f 	andeq	r0, r0, pc, lsr #32
    1c5c:	2f500001 	svccs	0x00500001
    1c60:	40000000 	andmi	r0, r0, r0
    1c64:	01000000 	mrseq	r0, (UNDEF: 0)
    1c68:	00005400 	andeq	r5, r0, r0, lsl #8
	...
    1c74:	00200000 	eoreq	r0, r0, r0
    1c78:	002f0000 	eoreq	r0, pc, r0
    1c7c:	00010000 	andeq	r0, r1, r0
    1c80:	00002f51 	andeq	r2, r0, r1, asr pc
    1c84:	00004000 	andeq	r4, r0, r0
    1c88:	55000100 	strpl	r0, [r0, #-256]	; 0xffffff00
	...
    1c98:	03500000 	cmpeq	r0, #0, 0
    1c9c:	03980000 	orrseq	r0, r8, #0, 0
    1ca0:	00010000 	andeq	r0, r1, r0
    1ca4:	00039850 	andeq	r9, r3, r0, asr r8
    1ca8:	00039b00 	andeq	r9, r3, r0, lsl #22
    1cac:	91000200 	mrsls	r0, R8_usr
    1cb0:	00039b68 	andeq	r9, r3, r8, ror #22
    1cb4:	0003b000 	andeq	fp, r3, r0
    1cb8:	f3000400 	vshl.u8	d0, d0, d0
    1cbc:	009f5001 	addseq	r5, pc, r1
	...
    1cd8:	20000000 	andcs	r0, r0, r0
    1cdc:	7b000002 	blvc	1cec <__code_start__-0x6314>
    1ce0:	01000002 	tsteq	r0, r2
    1ce4:	027b5000 	rsbseq	r5, fp, #0, 0
    1ce8:	02840000 	addeq	r0, r4, #0, 0
    1cec:	00040000 	andeq	r0, r4, r0
    1cf0:	9f5001f3 	svcls	0x005001f3
    1cf4:	00000284 	andeq	r0, r0, r4, lsl #5
    1cf8:	0000029c 	muleq	r0, ip, r2
    1cfc:	9c500001 	mrrcls	0, 0, r0, r0, cr1	; <UNPREDICTABLE>
    1d00:	a4000002 	strge	r0, [r0], #-2
    1d04:	04000002 	streq	r0, [r0], #-2
    1d08:	5001f300 	andpl	pc, r1, r0, lsl #6
    1d0c:	0002a49f 	muleq	r2, pc, r4	; <UNPREDICTABLE>
    1d10:	0002a700 	andeq	sl, r2, r0, lsl #14
    1d14:	50000100 	andpl	r0, r0, r0, lsl #2
    1d18:	000002a7 	andeq	r0, r0, r7, lsr #5
    1d1c:	000002c8 	andeq	r0, r0, r8, asr #5
    1d20:	01f30004 	mvnseq	r0, r4
    1d24:	02c89f50 	sbceq	r9, r8, #80, 30	; 0x140
    1d28:	02e00000 	rsceq	r0, r0, #0, 0
    1d2c:	00010000 	andeq	r0, r1, r0
    1d30:	0002e050 	andeq	lr, r2, r0, asr r0
    1d34:	0002e800 	andeq	lr, r2, r0, lsl #16
    1d38:	f3000400 	vshl.u8	d0, d0, d0
    1d3c:	e89f5001 	ldm	pc, {r0, ip, lr}	; <UNPREDICTABLE>
    1d40:	eb000002 	bl	1d50 <__code_start__-0x62b0>
    1d44:	01000002 	tsteq	r0, r2
    1d48:	02eb5000 	rsceq	r5, fp, #0, 0
    1d4c:	03380000 	teqeq	r8, #0, 0
    1d50:	00040000 	andeq	r0, r4, r0
    1d54:	9f5001f3 	svcls	0x005001f3
	...
    1d74:	00000220 	andeq	r0, r0, r0, lsr #4
    1d78:	00000244 	andeq	r0, r0, r4, asr #4
    1d7c:	44510001 	ldrbmi	r0, [r1], #-1
    1d80:	68000002 	stmdavs	r0, {r1}
    1d84:	01000002 	tsteq	r0, r2
    1d88:	02685100 	rsbeq	r5, r8, #0
    1d8c:	027b0000 	rsbseq	r0, fp, #0, 0
    1d90:	00030000 	andeq	r0, r3, r0
    1d94:	7b9f0171 	blvc	fe7c2360 <__bss_end__+0xfe7b8240>
    1d98:	84000002 	strhi	r0, [r0], #-2
    1d9c:	17000002 	strne	r0, [r0, -r2]
    1da0:	01f33800 	mvnseq	r3, r0, lsl #16
    1da4:	5101f351 	tstpl	r1, r1, asr r3	; <UNPREDICTABLE>
    1da8:	22244b40 	eorcs	r4, r4, #64, 22	; 0x10000
    1dac:	0000080c 	andeq	r0, r0, ip, lsl #16
    1db0:	01282d80 	smlawbeq	r8, r0, sp, r2
    1db4:	9f131600 	svcls	0x00131600
    1db8:	00000284 	andeq	r0, r0, r4, lsl #5
    1dbc:	00000298 	muleq	r0, r8, r2
    1dc0:	98510001 	ldmdals	r1, {r0}^
    1dc4:	a4000002 	strge	r0, [r0], #-2
    1dc8:	04000002 	streq	r0, [r0], #-2
    1dcc:	5101f300 	mrspl	pc, SP_irq	; <UNPREDICTABLE>
    1dd0:	0002a49f 	muleq	r2, pc, r4	; <UNPREDICTABLE>
    1dd4:	0002a700 	andeq	sl, r2, r0, lsl #14
    1dd8:	51000100 	mrspl	r0, (UNDEF: 16)
    1ddc:	000002a7 	andeq	r0, r0, r7, lsr #5
    1de0:	000002c8 	andeq	r0, r0, r8, asr #5
    1de4:	01f30004 	mvnseq	r0, r4
    1de8:	02c89f51 	sbceq	r9, r8, #324	; 0x144
    1dec:	02dc0000 	sbcseq	r0, ip, #0, 0
    1df0:	00010000 	andeq	r0, r1, r0
    1df4:	0002dc51 	andeq	sp, r2, r1, asr ip
    1df8:	00033800 	andeq	r3, r3, r0, lsl #16
    1dfc:	38001700 	stmdacc	r0, {r8, r9, sl, ip}
    1e00:	f35101f3 	vbsl	q8, <illegal reg q8.5>, <illegal reg q9.5>
    1e04:	4b405101 	blmi	1016210 <__bss_end__+0x100c0f0>
    1e08:	080c2224 	stmdaeq	ip, {r2, r5, r9, sp}
    1e0c:	2d800000 	stccs	0, cr0, [r0]
    1e10:	16000128 	strne	r0, [r0], -r8, lsr #2
    1e14:	00009f13 	andeq	r9, r0, r3, lsl pc
	...
    1e28:	024c0000 	subeq	r0, ip, #0, 0
    1e2c:	025c0000 	subseq	r0, ip, #0, 0
    1e30:	00010000 	andeq	r0, r1, r0
    1e34:	00025c52 	andeq	r5, r2, r2, asr ip
    1e38:	00026400 	andeq	r6, r2, r0, lsl #8
    1e3c:	03000500 	movweq	r0, #1280	; 0x500
    1e40:	00009cf4 	strdeq	r9, [r0], -r4
    1e44:	00000264 	andeq	r0, r0, r4, ror #4
    1e48:	0000027b 	andeq	r0, r0, fp, ror r2
    1e4c:	c8530001 	ldmdagt	r3, {r0}^
    1e50:	d8000002 	stmdale	r0, {r1}
    1e54:	01000002 	tsteq	r0, r2
    1e58:	02d85200 	sbcseq	r5, r8, #0, 4
    1e5c:	02e30000 	rsceq	r0, r3, #0, 0
    1e60:	00050000 	andeq	r0, r5, r0
    1e64:	009cf403 	addseq	pc, ip, r3, lsl #8
    1e68:	0002e800 	andeq	lr, r2, r0, lsl #16
    1e6c:	0002eb00 	andeq	lr, r2, r0, lsl #22
    1e70:	53000100 	movwpl	r0, #256	; 0x100
	...
    1e7c:	02300004 	eorseq	r0, r0, #4, 0
    1e80:	02340000 	eorseq	r0, r4, #0, 0
    1e84:	00010000 	andeq	r0, r1, r0
    1e88:	00000051 	andeq	r0, r0, r1, asr r0
    1e8c:	00000000 	andeq	r0, r0, r0
    1e90:	3c000200 	sfmcc	f0, 4, [r0], {-0}
    1e94:	44000002 	strmi	r0, [r0], #-2
    1e98:	02000002 	andeq	r0, r0, #2, 0
    1e9c:	009f3800 	addseq	r3, pc, r0, lsl #16
    1ea0:	00000000 	andeq	r0, r0, r0
    1ea4:	02000000 	andeq	r0, r0, #0, 0
    1ea8:	00023c00 	andeq	r3, r2, r0, lsl #24
    1eac:	00024400 	andeq	r4, r2, r0, lsl #8
    1eb0:	51000100 	mrspl	r0, (UNDEF: 16)
	...
    1ebc:	00000001 	andeq	r0, r0, r1
    1ec0:	024c0000 	subeq	r0, ip, #0, 0
    1ec4:	02640000 	rsbeq	r0, r4, #0, 0
    1ec8:	00010000 	andeq	r0, r1, r0
    1ecc:	0002c851 	andeq	ip, r2, r1, asr r8
    1ed0:	0002dc00 	andeq	sp, r2, r0, lsl #24
    1ed4:	51000100 	mrspl	r0, (UNDEF: 16)
    1ed8:	000002dc 	ldrdeq	r0, [r0], -ip
    1edc:	000002e8 	andeq	r0, r0, r8, ror #5
    1ee0:	f3380017 	vqadd.u64	d0, d8, d7
    1ee4:	01f35101 	mvnseq	r5, r1, lsl #2
    1ee8:	244b4051 	strbcs	r4, [fp], #-81	; 0xffffffaf
    1eec:	00080c22 	andeq	r0, r8, r2, lsr #24
    1ef0:	282d8000 	stmdacs	sp!, {pc}
    1ef4:	13160001 	tstne	r6, #1, 0
    1ef8:	0000009f 	muleq	r0, pc, r0	; <UNPREDICTABLE>
    1efc:	00000000 	andeq	r0, r0, r0
    1f00:	00000100 	andeq	r0, r0, r0, lsl #2
    1f04:	00000000 	andeq	r0, r0, r0
    1f08:	00024c00 	andeq	r4, r2, r0, lsl #24
    1f0c:	00025c00 	andeq	r5, r2, r0, lsl #24
    1f10:	52000100 	andpl	r0, r0, #0
    1f14:	0000025c 	andeq	r0, r0, ip, asr r2
    1f18:	00000264 	andeq	r0, r0, r4, ror #4
    1f1c:	f4030005 	vst4.8	{d0-d3}, [r3], r5
    1f20:	c800009c 	stmdagt	r0, {r2, r3, r4, r7}
    1f24:	d8000002 	stmdale	r0, {r1}
    1f28:	01000002 	tsteq	r0, r2
    1f2c:	02d85200 	sbcseq	r5, r8, #0, 4
    1f30:	02e30000 	rsceq	r0, r3, #0, 0
    1f34:	00050000 	andeq	r0, r5, r0
    1f38:	009cf403 	addseq	pc, ip, r3, lsl #8
	...
    1f44:	4c000400 	cfstrsmi	mvf0, [r0], {-0}
    1f48:	50000002 	andpl	r0, r0, r2
    1f4c:	01000002 	tsteq	r0, r2
    1f50:	00005100 	andeq	r5, r0, r0, lsl #2
    1f54:	00000000 	andeq	r0, r0, r0
    1f58:	00030000 	andeq	r0, r3, r0
    1f5c:	00000264 	andeq	r0, r0, r4, ror #4
    1f60:	00000268 	andeq	r0, r0, r8, ror #4
    1f64:	00510001 	subseq	r0, r1, r1
    1f68:	00000000 	andeq	r0, r0, r0
    1f6c:	03000000 	movweq	r0, #0
    1f70:	00026400 	andeq	r6, r2, r0, lsl #8
    1f74:	00026800 	andeq	r6, r2, r0, lsl #16
    1f78:	53000100 	movwpl	r0, #256	; 0x100
	...
    1f8c:	000001bc 			; <UNDEFINED> instruction: 0x000001bc
    1f90:	000001d3 	ldrdeq	r0, [r0], -r3
    1f94:	d3500001 	cmple	r0, #1, 0
    1f98:	f0000001 			; <UNDEFINED> instruction: 0xf0000001
    1f9c:	01000001 	tsteq	r0, r1
    1fa0:	01f05400 	mvnseq	r5, r0, lsl #8
    1fa4:	02080000 	andeq	r0, r8, #0, 0
    1fa8:	00010000 	andeq	r0, r1, r0
    1fac:	00020850 	andeq	r0, r2, r0, asr r8
    1fb0:	00022000 	andeq	r2, r2, r0
    1fb4:	54000100 	strpl	r0, [r0], #-256	; 0xffffff00
	...
    1fc4:	000001d8 	ldrdeq	r0, [r0], -r8
    1fc8:	000001e3 	andeq	r0, r0, r3, ror #3
    1fcc:	e3500001 	cmp	r0, #1, 0
    1fd0:	f0000001 			; <UNDEFINED> instruction: 0xf0000001
    1fd4:	01000001 	tsteq	r0, r1
    1fd8:	00005500 	andeq	r5, r0, r0, lsl #10
	...
    1ff0:	01240000 			; <UNDEFINED> instruction: 0x01240000
    1ff4:	01380000 	teqeq	r8, r0
    1ff8:	00010000 	andeq	r0, r1, r0
    1ffc:	00013850 	andeq	r3, r1, r0, asr r8
    2000:	00013c00 	andeq	r3, r1, r0, lsl #24
    2004:	70000300 	andvc	r0, r0, r0, lsl #6
    2008:	013c9f79 	teqeq	ip, r9, ror pc
    200c:	01600000 	cmneq	r0, r0
    2010:	00010000 	andeq	r0, r1, r0
    2014:	00016053 	andeq	r6, r1, r3, asr r0
    2018:	00017800 	andeq	r7, r1, r0, lsl #16
    201c:	50000100 	andpl	r0, r0, r0, lsl #2
    2020:	00000178 	andeq	r0, r0, r8, ror r1
    2024:	00000180 	andeq	r0, r0, r0, lsl #3
    2028:	01f30004 	mvnseq	r0, r4
    202c:	01809f50 	orreq	r9, r0, r0, asr pc
    2030:	01900000 	orrseq	r0, r0, r0
    2034:	00010000 	andeq	r0, r1, r0
    2038:	00019053 	andeq	r9, r1, r3, asr r0
    203c:	00019f00 	andeq	r9, r1, r0, lsl #30
    2040:	91000200 	mrsls	r0, R8_usr
    2044:	00019f68 	andeq	r9, r1, r8, ror #30
    2048:	0001bc00 	andeq	fp, r1, r0, lsl #24
    204c:	f3000900 	vmls.i8	d0, d0, d0
    2050:	07235001 	streq	r5, [r3, -r1]!
    2054:	9f1af809 	svcls	0x001af809
	...
    2064:	00000144 	andeq	r0, r0, r4, asr #2
    2068:	00000160 	andeq	r0, r0, r0, ror #2
    206c:	80500001 	subshi	r0, r0, r1
    2070:	9c000001 	stcls	0, cr0, [r0], {1}
    2074:	01000001 	tsteq	r0, r1
    2078:	00005000 	andeq	r5, r0, r0
    207c:	00000000 	andeq	r0, r0, r0
    2080:	00030000 	andeq	r0, r3, r0
    2084:	00000134 	andeq	r0, r0, r4, lsr r1
    2088:	0000013c 	andeq	r0, r0, ip, lsr r1
    208c:	9f380002 	svcls	0x00380002
	...
    2098:	00000003 	andeq	r0, r0, r3
    209c:	00000134 	andeq	r0, r0, r4, lsr r1
    20a0:	00000138 	andeq	r0, r0, r8, lsr r1
    20a4:	38500001 	ldmdacc	r0, {r0}^
    20a8:	3c000001 	stccc	0, cr0, [r0], {1}
    20ac:	03000001 	movweq	r0, #1
    20b0:	9f797000 	svcls	0x00797000
	...
    20c8:	00300000 	eorseq	r0, r0, r0
    20cc:	00600000 	rsbeq	r0, r0, r0
    20d0:	00010000 	andeq	r0, r1, r0
    20d4:	00006050 	andeq	r6, r0, r0, asr r0
    20d8:	00006c00 	andeq	r6, r0, r0, lsl #24
    20dc:	03000500 	movweq	r0, #1280	; 0x500
    20e0:	00009cf4 	strdeq	r9, [r0], -r4
    20e4:	0000006c 	andeq	r0, r0, ip, rrx
    20e8:	00000084 	andeq	r0, r0, r4, lsl #1
    20ec:	84500001 	ldrbhi	r0, [r0], #-1
    20f0:	8c000000 	stchi	0, cr0, [r0], {-0}
    20f4:	04000000 	streq	r0, [r0], #-0
    20f8:	5001f300 	andpl	pc, r1, r0, lsl #6
    20fc:	00008c9f 	muleq	r0, pc, ip	; <UNPREDICTABLE>
    2100:	0000ac00 	andeq	sl, r0, r0, lsl #24
    2104:	50000100 	andpl	r0, r0, r0, lsl #2
    2108:	000000ac 	andeq	r0, r0, ip, lsr #1
    210c:	000000af 	andeq	r0, r0, pc, lsr #1
    2110:	68910002 	ldmvs	r1, {r1}
    2114:	000000af 	andeq	r0, r0, pc, lsr #1
    2118:	000000cc 	andeq	r0, r0, ip, asr #1
    211c:	01f30004 	mvnseq	r0, r4
    2120:	00009f50 	andeq	r9, r0, r0, asr pc
	...
    2130:	00300000 	eorseq	r0, r0, r0
    2134:	00800000 	addeq	r0, r0, r0
    2138:	00010000 	andeq	r0, r1, r0
    213c:	00008051 	andeq	r8, r0, r1, asr r0
    2140:	00008c00 	andeq	r8, r0, r0, lsl #24
    2144:	f3000400 	vshl.u8	d0, d0, d0
    2148:	8c9f5101 	ldfhis	f5, [pc], {1}
    214c:	a8000000 	stmdage	r0, {}	; <UNPREDICTABLE>
    2150:	01000000 	mrseq	r0, (UNDEF: 0)
    2154:	00a85100 	adceq	r5, r8, r0, lsl #2
    2158:	00cc0000 	sbceq	r0, ip, r0
    215c:	00040000 	andeq	r0, r4, r0
    2160:	9f5101f3 	svcls	0x005101f3
	...
    216c:	00000001 	andeq	r0, r0, r1
	...
    2178:	00380000 	eorseq	r0, r8, r0
    217c:	00600000 	rsbeq	r0, r0, r0
    2180:	00010000 	andeq	r0, r1, r0
    2184:	00006050 	andeq	r6, r0, r0, asr r0
    2188:	00006c00 	andeq	r6, r0, r0, lsl #24
    218c:	03000500 	movweq	r0, #1280	; 0x500
    2190:	00009cf4 	strdeq	r9, [r0], -r4
    2194:	0000006c 	andeq	r0, r0, ip, rrx
    2198:	00000084 	andeq	r0, r0, r4, lsl #1
    219c:	84500001 	ldrbhi	r0, [r0], #-1
    21a0:	8c000000 	stchi	0, cr0, [r0], {-0}
    21a4:	04000000 	streq	r0, [r0], #-0
    21a8:	5001f300 	andpl	pc, r1, r0, lsl #6
    21ac:	00008c9f 	muleq	r0, pc, ip	; <UNPREDICTABLE>
    21b0:	0000ac00 	andeq	sl, r0, r0, lsl #24
    21b4:	50000100 	andpl	r0, r0, r0, lsl #2
    21b8:	000000ac 	andeq	r0, r0, ip, lsr #1
    21bc:	000000af 	andeq	r0, r0, pc, lsr #1
    21c0:	68910002 	ldmvs	r1, {r1}
    21c4:	000000af 	andeq	r0, r0, pc, lsr #1
    21c8:	000000cc 	andeq	r0, r0, ip, asr #1
    21cc:	01f30004 	mvnseq	r0, r4
    21d0:	00009f50 	andeq	r9, r0, r0, asr pc
	...
    21e0:	00000170 	andeq	r0, r0, r0, ror r1
    21e4:	0000017c 	andeq	r0, r0, ip, ror r1
    21e8:	7c500001 	mrrcvc	0, 0, r0, r0, cr1	; <UNPREDICTABLE>
    21ec:	88000001 	stmdahi	r0, {r0}
    21f0:	01000001 	tsteq	r0, r1
    21f4:	01885400 	orreq	r5, r8, r0, lsl #8
    21f8:	01980000 	orrseq	r0, r8, r0
    21fc:	00040000 	andeq	r0, r4, r0
    2200:	9f5001f3 	svcls	0x005001f3
	...
    2214:	01780000 	cmneq	r8, r0
    2218:	017c0000 	cmneq	ip, r0
    221c:	000b0000 	andeq	r0, fp, r0
    2220:	25350070 	ldrcs	r0, [r5, #-112]!	; 0xffffff90
    2224:	8080b423 	addhi	fp, r0, r3, lsr #8
    2228:	7c9f0281 	lfmvc	f0, 4, [pc], {129}	; 0x81
    222c:	80000001 	andhi	r0, r0, r1
    2230:	0b000001 	bleq	223c <__code_start__-0x5dc4>
    2234:	35007400 	strcc	r7, [r0, #-1024]	; 0xfffffc00
    2238:	80b42325 	adcshi	r2, r4, r5, lsr #6
    223c:	9f028180 	svcls	0x00028180
    2240:	00000180 	andeq	r0, r0, r0, lsl #3
    2244:	00000183 	andeq	r0, r0, r3, lsl #3
    2248:	83500001 	cmphi	r0, #1, 0
    224c:	88000001 	stmdahi	r0, {r0}
    2250:	0b000001 	bleq	225c <__code_start__-0x5da4>
    2254:	35007400 	strcc	r7, [r0, #-1024]	; 0xfffffc00
    2258:	80b42325 	adcshi	r2, r4, r5, lsr #6
    225c:	9f028180 	svcls	0x00028180
    2260:	00000188 	andeq	r0, r0, r8, lsl #3
    2264:	00000198 	muleq	r0, r8, r1
    2268:	01f3000c 	mvnseq	r0, ip
    226c:	23253550 			; <UNDEFINED> instruction: 0x23253550
    2270:	818080b4 	strhhi	r8, [r0, r4]
    2274:	00009f02 	andeq	r9, r0, r2, lsl #30
    2278:	00000000 	andeq	r0, r0, r0
    227c:	00010000 	andeq	r0, r1, r0
    2280:	00000000 	andeq	r0, r0, r0
    2284:	00000178 	andeq	r0, r0, r8, ror r1
    2288:	0000017c 	andeq	r0, r0, ip, ror r1
    228c:	00700005 	rsbseq	r0, r0, r5
    2290:	7c9f1a4f 	vldmiavc	pc, {s2-s80}
    2294:	88000001 	stmdahi	r0, {r0}
    2298:	05000001 	streq	r0, [r0, #-1]
    229c:	4f007400 	svcmi	0x00007400
    22a0:	01889f1a 	orreq	r9, r8, sl, lsl pc
    22a4:	01980000 	orrseq	r0, r8, r0
    22a8:	00010000 	andeq	r0, r1, r0
    22ac:	00000054 	andeq	r0, r0, r4, asr r0
	...
    22c0:	00014000 	andeq	r4, r1, r0
    22c4:	00015400 	andeq	r5, r1, r0, lsl #8
    22c8:	50000100 	andpl	r0, r0, r0, lsl #2
    22cc:	00000154 	andeq	r0, r0, r4, asr r1
    22d0:	00000158 	andeq	r0, r0, r8, asr r1
    22d4:	58510001 	ldmdapl	r1, {r0}^
    22d8:	5c000001 	stcpl	0, cr0, [r0], {1}
    22dc:	04000001 	streq	r0, [r0], #-1
    22e0:	5001f300 	andpl	pc, r1, r0, lsl #6
    22e4:	00015c9f 	muleq	r1, pc, ip	; <UNPREDICTABLE>
    22e8:	00016000 	andeq	r6, r1, r0
    22ec:	50000100 	andpl	r0, r0, r0, lsl #2
    22f0:	00000160 	andeq	r0, r0, r0, ror #2
    22f4:	00000164 	andeq	r0, r0, r4, ror #2
    22f8:	64510001 	ldrbvs	r0, [r1], #-1
    22fc:	70000001 	andvc	r0, r0, r1
    2300:	04000001 	streq	r0, [r0], #-1
    2304:	5001f300 	andpl	pc, r1, r0, lsl #6
    2308:	0000009f 	muleq	r0, pc, r0	; <UNPREDICTABLE>
	...
    2314:	00014000 	andeq	r4, r1, r0
    2318:	00014c00 	andeq	r4, r1, r0, lsl #24
    231c:	51000100 	mrspl	r0, (UNDEF: 16)
    2320:	0000014c 	andeq	r0, r0, ip, asr #2
    2324:	00000170 	andeq	r0, r0, r0, ror r1
    2328:	01f30004 	mvnseq	r0, r4
    232c:	00009f51 	andeq	r9, r0, r1, asr pc
    2330:	00000000 	andeq	r0, r0, r0
    2334:	00010000 	andeq	r0, r1, r0
    2338:	00000000 	andeq	r0, r0, r0
    233c:	00000150 	andeq	r0, r0, r0, asr r1
    2340:	00000154 	andeq	r0, r0, r4, asr r1
    2344:	54500001 	ldrbpl	r0, [r0], #-1
    2348:	58000001 	stmdapl	r0, {r0}
    234c:	01000001 	tsteq	r0, r1
    2350:	01585100 	cmpeq	r8, r0, lsl #2
    2354:	015c0000 	cmpeq	ip, r0
    2358:	00040000 	andeq	r0, r4, r0
    235c:	9f5001f3 	svcls	0x005001f3
	...
    2368:	00000002 	andeq	r0, r0, r2
    236c:	015c0000 	cmpeq	ip, r0
    2370:	01600000 	cmneq	r0, r0
    2374:	00010000 	andeq	r0, r1, r0
    2378:	00016050 	andeq	r6, r1, r0, asr r0
    237c:	00016400 	andeq	r6, r1, r0, lsl #8
    2380:	51000100 	mrspl	r0, (UNDEF: 16)
    2384:	00000164 	andeq	r0, r0, r4, ror #2
    2388:	00000170 	andeq	r0, r0, r0, ror r1
    238c:	01f30004 	mvnseq	r0, r4
    2390:	00009f50 	andeq	r9, r0, r0, asr pc
	...
    23a0:	000000e8 	andeq	r0, r0, r8, ror #1
    23a4:	00000108 	andeq	r0, r0, r8, lsl #2
    23a8:	08500001 	ldmdaeq	r0, {r0}^
    23ac:	28000001 	stmdacs	r0, {r0}
    23b0:	01000001 	tsteq	r0, r1
    23b4:	01285400 			; <UNDEFINED> instruction: 0x01285400
    23b8:	01400000 	mrseq	r0, (UNDEF: 64)
    23bc:	00040000 	andeq	r0, r4, r0
    23c0:	9f5001f3 	svcls	0x005001f3
	...
    23cc:	00000002 	andeq	r0, r0, r2
    23d0:	00e80000 	rsceq	r0, r8, r0
    23d4:	01080000 	mrseq	r0, (UNDEF: 8)
    23d8:	00010000 	andeq	r0, r1, r0
    23dc:	00010850 	andeq	r0, r1, r0, asr r8
    23e0:	00012800 	andeq	r2, r1, r0, lsl #16
    23e4:	54000100 	strpl	r0, [r0], #-256	; 0xffffff00
    23e8:	00000128 	andeq	r0, r0, r8, lsr #2
    23ec:	00000140 	andeq	r0, r0, r0, asr #2
    23f0:	01f30004 	mvnseq	r0, r4
    23f4:	00009f50 	andeq	r9, r0, r0, asr pc
	...
    2404:	000000f0 	strdeq	r0, [r0], -r0	; <UNPREDICTABLE>
    2408:	00000108 	andeq	r0, r0, r8, lsl #2
    240c:	08500001 	ldmdaeq	r0, {r0}^
    2410:	28000001 	stmdacs	r0, {r0}
    2414:	01000001 	tsteq	r0, r1
    2418:	01285400 			; <UNDEFINED> instruction: 0x01285400
    241c:	01400000 	mrseq	r0, (UNDEF: 64)
    2420:	00040000 	andeq	r0, r4, r0
    2424:	9f5001f3 	svcls	0x005001f3
	...
    2430:	00000003 	andeq	r0, r0, r3
    2434:	00f00000 	rscseq	r0, r0, r0
    2438:	01080000 	mrseq	r0, (UNDEF: 8)
    243c:	00070000 	andeq	r0, r7, r0
    2440:	1d3a0070 	ldcne	0, cr0, [sl, #-448]!	; 0xfffffe40
    2444:	089f1e33 	ldmeq	pc, {r0, r1, r4, r5, r9, sl, fp, ip}	; <UNPREDICTABLE>
    2448:	28000001 	stmdacs	r0, {r0}
    244c:	07000001 	streq	r0, [r0, -r1]
    2450:	3a007400 	bcc	1f458 <__bss_end__+0x15338>
    2454:	9f1e331d 	svcls	0x001e331d
    2458:	00000128 	andeq	r0, r0, r8, lsr #2
    245c:	00000140 	andeq	r0, r0, r0, asr #2
    2460:	01f30008 	mvnseq	r0, r8
    2464:	331d3a50 	tstcc	sp, #80, 20	; 0x50000
    2468:	00009f1e 	andeq	r9, r0, lr, lsl pc
	...
    2478:	00000110 	andeq	r0, r0, r0, lsl r1
    247c:	00000138 	andeq	r0, r0, r8, lsr r1
    2480:	38560001 	ldmdacc	r6, {r0}^
    2484:	3b000001 	blcc	2490 <__code_start__-0x5b70>
    2488:	01000001 	tsteq	r0, r1
    248c:	013b5000 	teqeq	fp, r0
    2490:	01400000 	mrseq	r0, (UNDEF: 64)
    2494:	00260000 	eoreq	r0, r6, r0
    2498:	f75001f3 			; <UNDEFINED> instruction: 0xf75001f3
    249c:	f425f72c 	vld1.8	{d15}, [r5 :128], ip
    24a0:	cccd0825 	stclgt	8, cr0, [sp], {37}	; 0x25
    24a4:	0000cccc 	andeq	ip, r0, ip, asr #25
    24a8:	081e0000 	ldmdaeq	lr, {}	; <UNPREDICTABLE>
    24ac:	2525f720 	strcs	pc, [r5, #-1824]!	; 0xfffff8e0
    24b0:	00f72cf7 	ldrshteq	r2, [r7], #199	; 0xc7
    24b4:	80232533 	eorhi	r2, r3, r3, lsr r5
    24b8:	3240a080 	subcc	sl, r0, #128, 0	; 0x80
    24bc:	00009f24 	andeq	r9, r0, r4, lsr #30
    24c0:	00000000 	andeq	r0, r0, r0
    24c4:	01000000 	mrseq	r0, (UNDEF: 0)
    24c8:	00000001 	andeq	r0, r0, r1
    24cc:	01200000 			; <UNDEFINED> instruction: 0x01200000
    24d0:	01200000 			; <UNDEFINED> instruction: 0x01200000
    24d4:	00010000 	andeq	r0, r1, r0
    24d8:	00012050 	andeq	r2, r1, r0, asr r0
    24dc:	00012800 	andeq	r2, r1, r0, lsl #16
    24e0:	37000d00 	strcc	r0, [r0, -r0, lsl #26]
    24e4:	1d3a0074 	ldcne	0, cr0, [sl, #-464]!	; 0xfffffe30
    24e8:	20241e33 	eorcs	r1, r4, r3, lsr lr
    24ec:	9f1a0070 	svcls	0x001a0070
    24f0:	00000128 	andeq	r0, r0, r8, lsr #2
    24f4:	00000130 	andeq	r0, r0, r0, lsr r1
    24f8:	f337000e 	vhadd.u<illegal width 64>	d0, d7, d14
    24fc:	1d3a5001 	ldcne	0, cr5, [sl, #-4]!
    2500:	20241e33 	eorcs	r1, r4, r3, lsr lr
    2504:	9f1a0070 	svcls	0x001a0070
    2508:	00000130 	andeq	r0, r0, r0, lsr r1
    250c:	0000013b 	andeq	r0, r0, fp, lsr r1
    2510:	f337000e 	vhadd.u<illegal width 64>	d0, d7, d14
    2514:	1d3a5001 	ldcne	0, cr5, [sl, #-4]!
    2518:	20241e33 	eorcs	r1, r4, r3, lsr lr
    251c:	9f1a0073 	svcls	0x001a0073
	...
    252c:	00000060 	andeq	r0, r0, r0, rrx
    2530:	00000090 	muleq	r0, r0, r0
    2534:	90500001 	subsls	r0, r0, r1
    2538:	b8000000 	stmdalt	r0, {}	; <UNPREDICTABLE>
    253c:	04000000 	streq	r0, [r0], #-0
    2540:	5001f300 	andpl	pc, r1, r0, lsl #6
    2544:	0000009f 	muleq	r0, pc, r0	; <UNPREDICTABLE>
    2548:	00000000 	andeq	r0, r0, r0
    254c:	00000200 	andeq	r0, r0, r0, lsl #4
    2550:	00006000 	andeq	r6, r0, r0
    2554:	00009000 	andeq	r9, r0, r0
    2558:	50000100 	andpl	r0, r0, r0, lsl #2
    255c:	00000090 	muleq	r0, r0, r0
    2560:	000000b8 	strheq	r0, [r0], -r8
    2564:	01f30004 	mvnseq	r0, r4
    2568:	00009f50 	andeq	r9, r0, r0, asr pc
	...
    2574:	00680000 	rsbeq	r0, r8, r0
    2578:	00900000 	addseq	r0, r0, r0
    257c:	00010000 	andeq	r0, r1, r0
    2580:	00009050 	andeq	r9, r0, r0, asr r0
    2584:	0000b800 	andeq	fp, r0, r0, lsl #16
    2588:	f3000400 	vshl.u8	d0, d0, d0
    258c:	009f5001 	addseq	r5, pc, r1
	...
    2598:	a0000000 	andge	r0, r0, r0
    259c:	b0000000 	andlt	r0, r0, r0
    25a0:	01000000 	mrseq	r0, (UNDEF: 0)
    25a4:	00b05400 	adcseq	r5, r0, r0, lsl #8
    25a8:	00b80000 	adcseq	r0, r8, r0
    25ac:	00290000 	eoreq	r0, r9, r0
    25b0:	f35001f3 	vbsl	q8, q8, <illegal reg q9.5>
    25b4:	2cf75001 	ldclcs	0, cr5, [r7], #4
    25b8:	25f425f7 	ldrbcs	r2, [r4, #1527]!	; 0x5f7
    25bc:	cccccd08 	stclgt	13, cr12, [ip], {8}
    25c0:	000000cc 	andeq	r0, r0, ip, asr #1
    25c4:	20081e00 	andcs	r1, r8, r0, lsl #28
    25c8:	f72525f7 			; <UNDEFINED> instruction: 0xf72525f7
    25cc:	3300f72c 	movwcc	pc, #1836	; 0x72c	; <UNPREDICTABLE>
    25d0:	311e3525 	tstcc	lr, r5, lsr #10
    25d4:	1e331c24 	cdpne	12, 3, cr1, cr3, cr4, {1}
    25d8:	0000009f 	muleq	r0, pc, r0	; <UNPREDICTABLE>
    25dc:	00000000 	andeq	r0, r0, r0
    25e0:	00000100 	andeq	r0, r0, r0, lsl #2
    25e4:	a0000000 	andge	r0, r0, r0
    25e8:	b0000000 	andlt	r0, r0, r0
    25ec:	01000000 	mrseq	r0, (UNDEF: 0)
    25f0:	00b05500 	adcseq	r5, r0, r0, lsl #10
    25f4:	00b30000 	adcseq	r0, r3, r0
    25f8:	00010000 	andeq	r0, r1, r0
    25fc:	0000b350 	andeq	fp, r0, r0, asr r3
    2600:	0000b800 	andeq	fp, r0, r0, lsl #16
    2604:	f3002600 	vmax.u8	d2, d0, d0
    2608:	2cf75001 	ldclcs	0, cr5, [r7], #4
    260c:	25f425f7 	ldrbcs	r2, [r4, #1527]!	; 0x5f7
    2610:	cccccd08 	stclgt	13, cr12, [ip], {8}
    2614:	000000cc 	andeq	r0, r0, ip, asr #1
    2618:	20081e00 	andcs	r1, r8, r0, lsl #28
    261c:	f72525f7 			; <UNDEFINED> instruction: 0xf72525f7
    2620:	3300f72c 	movwcc	pc, #1836	; 0x72c	; <UNPREDICTABLE>
    2624:	80802325 	addhi	r2, r0, r5, lsr #6
    2628:	243240a0 	ldrtcs	r4, [r2], #-160	; 0xffffff60
    262c:	0000009f 	muleq	r0, pc, r0	; <UNPREDICTABLE>
    2630:	00000000 	andeq	r0, r0, r0
    2634:	00000200 	andeq	r0, r0, r0, lsl #4
    2638:	00000101 	andeq	r0, r0, r1, lsl #2
    263c:	0000a000 	andeq	sl, r0, r0
    2640:	0000a400 	andeq	sl, r0, r0, lsl #8
    2644:	50000100 	andpl	r0, r0, r0, lsl #2
    2648:	000000a4 	andeq	r0, r0, r4, lsr #1
    264c:	000000a4 	andeq	r0, r0, r4, lsr #1
    2650:	a4530001 	ldrbge	r0, [r3], #-1
    2654:	a8000000 	stmdage	r0, {}	; <UNPREDICTABLE>
    2658:	08000000 	stmdaeq	r0, {}	; <UNPREDICTABLE>
    265c:	00743100 	rsbseq	r3, r4, r0, lsl #2
    2660:	21007324 	tstcs	r0, r4, lsr #6
    2664:	0000a89f 	muleq	r0, pc, r8	; <UNPREDICTABLE>
    2668:	0000b300 	andeq	fp, r0, r0, lsl #6
    266c:	51000100 	mrspl	r0, (UNDEF: 16)
	...
    2680:	0000003c 	andeq	r0, r0, ip, lsr r0
    2684:	3c500001 	mrrccc	0, 0, r0, r0, cr1	; <UNPREDICTABLE>
    2688:	60000000 	andvs	r0, r0, r0
    268c:	04000000 	streq	r0, [r0], #-0
    2690:	5001f300 	andpl	pc, r1, r0, lsl #6
    2694:	0000009f 	muleq	r0, pc, r0	; <UNPREDICTABLE>
	...
    26a4:	00003f00 	andeq	r3, r0, r0, lsl #30
    26a8:	51000100 	mrspl	r0, (UNDEF: 16)
    26ac:	0000003f 	andeq	r0, r0, pc, lsr r0
    26b0:	00000060 	andeq	r0, r0, r0, rrx
    26b4:	01f30004 	mvnseq	r0, r4
    26b8:	00009f51 	andeq	r9, r0, r1, asr pc
	...
    26c4:	00080000 	andeq	r0, r8, r0
    26c8:	003f0000 	eorseq	r0, pc, r0
    26cc:	00010000 	andeq	r0, r1, r0
    26d0:	00003f51 	andeq	r3, r0, r1, asr pc
    26d4:	00006000 	andeq	r6, r0, r0
    26d8:	f3000400 	vshl.u8	d0, d0, d0
    26dc:	009f5101 	addseq	r5, pc, r1, lsl #2
	...
    26e8:	08000000 	stmdaeq	r0, {}	; <UNPREDICTABLE>
    26ec:	3c000000 	stccc	0, cr0, [r0], {-0}
    26f0:	01000000 	mrseq	r0, (UNDEF: 0)
    26f4:	003c5000 	eorseq	r5, ip, r0
    26f8:	00600000 	rsbeq	r0, r0, r0
    26fc:	00040000 	andeq	r0, r4, r0
    2700:	9f5001f3 	svcls	0x005001f3
	...
    2710:	00000048 	andeq	r0, r0, r8, asr #32
    2714:	00000058 	andeq	r0, r0, r8, asr r0
    2718:	58540001 	ldmdapl	r4, {r0}^
    271c:	60000000 	andvs	r0, r0, r0
    2720:	29000000 	stmdbcs	r0, {}	; <UNPREDICTABLE>
    2724:	5001f300 	andpl	pc, r1, r0, lsl #6
    2728:	f75001f3 			; <UNDEFINED> instruction: 0xf75001f3
    272c:	f425f72c 	vld1.8	{d15}, [r5 :128], ip
    2730:	cccd0825 	stclgt	8, cr0, [sp], {37}	; 0x25
    2734:	0000cccc 	andeq	ip, r0, ip, asr #25
    2738:	081e0000 	ldmdaeq	lr, {}	; <UNPREDICTABLE>
    273c:	2525f720 	strcs	pc, [r5, #-1824]!	; 0xfffff8e0
    2740:	00f72cf7 	ldrshteq	r2, [r7], #199	; 0xc7
    2744:	1e352533 	mrcne	5, 1, r2, cr5, cr3, {1}
    2748:	331c2431 	tstcc	ip, #822083584	; 0x31000000
    274c:	00009f1e 	andeq	r9, r0, lr, lsl pc
    2750:	00000000 	andeq	r0, r0, r0
    2754:	00010000 	andeq	r0, r1, r0
    2758:	00000000 	andeq	r0, r0, r0
    275c:	00000048 	andeq	r0, r0, r8, asr #32
    2760:	00000058 	andeq	r0, r0, r8, asr r0
    2764:	58560001 	ldmdapl	r6, {r0}^
    2768:	5b000000 	blpl	2770 <__code_start__-0x5890>
    276c:	01000000 	mrseq	r0, (UNDEF: 0)
    2770:	005b5000 	subseq	r5, fp, r0
    2774:	00600000 	rsbeq	r0, r0, r0
    2778:	00260000 	eoreq	r0, r6, r0
    277c:	f75001f3 			; <UNDEFINED> instruction: 0xf75001f3
    2780:	f425f72c 	vld1.8	{d15}, [r5 :128], ip
    2784:	cccd0825 	stclgt	8, cr0, [sp], {37}	; 0x25
    2788:	0000cccc 	andeq	ip, r0, ip, asr #25
    278c:	081e0000 	ldmdaeq	lr, {}	; <UNPREDICTABLE>
    2790:	2525f720 	strcs	pc, [r5, #-1824]!	; 0xfffff8e0
    2794:	00f72cf7 	ldrshteq	r2, [r7], #199	; 0xc7
    2798:	80232533 	eorhi	r2, r3, r3, lsr r5
    279c:	3240a080 	subcc	sl, r0, #128, 0	; 0x80
    27a0:	00009f24 	andeq	r9, r0, r4, lsr #30
    27a4:	00000000 	andeq	r0, r0, r0
    27a8:	00020000 	andeq	r0, r2, r0
    27ac:	00010100 	andeq	r0, r1, r0, lsl #2
    27b0:	00480000 	subeq	r0, r8, r0
    27b4:	004c0000 	subeq	r0, ip, r0
    27b8:	00010000 	andeq	r0, r1, r0
    27bc:	00004c50 	andeq	r4, r0, r0, asr ip
    27c0:	00004c00 	andeq	r4, r0, r0, lsl #24
    27c4:	51000100 	mrspl	r0, (UNDEF: 16)
    27c8:	0000004c 	andeq	r0, r0, ip, asr #32
    27cc:	00000050 	andeq	r0, r0, r0, asr r0
    27d0:	0075000c 	rsbseq	r0, r5, ip
    27d4:	741aff08 	ldrvc	pc, [sl], #-3848	; 0xfffff0f8
    27d8:	00712400 	rsbseq	r2, r1, r0, lsl #8
    27dc:	00509f21 	subseq	r9, r0, r1, lsr #30
    27e0:	00540000 	subseq	r0, r4, r0
    27e4:	00120000 	andseq	r0, r2, r0
    27e8:	24007437 	strcs	r7, [r0], #-1079	; 0xfffffbc9
    27ec:	1a007020 	bne	1e874 <__bss_end__+0x14754>
    27f0:	ff080075 			; <UNDEFINED> instruction: 0xff080075
    27f4:	2400741a 	strcs	r7, [r0], #-1050	; 0xfffffbe6
    27f8:	00009f21 	andeq	r9, r0, r1, lsr #30
	...
    2808:	000000b8 	strheq	r0, [r0], -r8
    280c:	000000c4 	andeq	r0, r0, r4, asr #1
    2810:	c4500001 	ldrbgt	r0, [r0], #-1
    2814:	cb000000 	blgt	281c <__code_start__-0x57e4>
    2818:	01000000 	mrseq	r0, (UNDEF: 0)
    281c:	00cb5300 	sbceq	r5, fp, r0, lsl #6
    2820:	00d00000 	sbcseq	r0, r0, r0
    2824:	00040000 	andeq	r0, r4, r0
    2828:	9f5001f3 	svcls	0x005001f3
	...
    2838:	00d00000 	sbcseq	r0, r0, r0
    283c:	00dc0000 	sbcseq	r0, ip, r0
    2840:	00010000 	andeq	r0, r1, r0
    2844:	0000dc50 	andeq	sp, r0, r0, asr ip
    2848:	0000e300 	andeq	lr, r0, r0, lsl #6
    284c:	53000100 	movwpl	r0, #256	; 0x100
    2850:	000000e3 	andeq	r0, r0, r3, ror #1
    2854:	000000e8 	andeq	r0, r0, r8, ror #1
    2858:	01f30004 	mvnseq	r0, r4
    285c:	00009f50 	andeq	r9, r0, r0, asr pc
	...
    286c:	001c0000 	andseq	r0, ip, r0
    2870:	00010000 	andeq	r0, r1, r0
    2874:	00001c51 	andeq	r1, r0, r1, asr ip
    2878:	00007800 	andeq	r7, r0, r0, lsl #16
    287c:	f3000400 	vshl.u8	d0, d0, d0
    2880:	009f5101 	addseq	r5, pc, r1, lsl #2
	...
    2890:	58000000 	stmdapl	r0, {}	; <UNPREDICTABLE>
    2894:	01000000 	mrseq	r0, (UNDEF: 0)
    2898:	00585200 	subseq	r5, r8, r0, lsl #4
    289c:	00780000 	rsbseq	r0, r8, r0
    28a0:	00040000 	andeq	r0, r4, r0
    28a4:	9f5201f3 	svcls	0x005201f3
	...
    28b0:	01000002 	tsteq	r0, r2
    28b4:	01000001 	tsteq	r0, r1
    28b8:	01000001 	tsteq	r0, r1
    28bc:	00000001 	andeq	r0, r0, r1
    28c0:	00380000 	eorseq	r0, r8, r0
    28c4:	00010000 	andeq	r0, r1, r0
    28c8:	00005450 	andeq	r5, r0, r0, asr r4
    28cc:	00005400 	andeq	r5, r0, r0, lsl #8
    28d0:	53000100 	movwpl	r0, #256	; 0x100
    28d4:	00000054 	andeq	r0, r0, r4, asr r0
    28d8:	0000005c 	andeq	r0, r0, ip, asr r0
    28dc:	01730003 	cmneq	r3, r3
    28e0:	00005c9f 	muleq	r0, pc, ip	; <UNPREDICTABLE>
    28e4:	00006400 	andeq	r6, r0, r0, lsl #8
    28e8:	52000100 	andpl	r0, r0, #0
    28ec:	00000064 	andeq	r0, r0, r4, rrx
    28f0:	00000068 	andeq	r0, r0, r8, rrx
    28f4:	02730003 	rsbseq	r0, r3, #3, 0
    28f8:	0000689f 	muleq	r0, pc, r8	; <UNPREDICTABLE>
    28fc:	00007400 	andeq	r7, r0, r0, lsl #8
    2900:	52000100 	andpl	r0, r0, #0
    2904:	00000074 	andeq	r0, r0, r4, ror r0
    2908:	00000078 	andeq	r0, r0, r8, ror r0
    290c:	01720003 	cmneq	r2, r3
    2910:	0000009f 	muleq	r0, pc, r0	; <UNPREDICTABLE>
    2914:	00000000 	andeq	r0, r0, r0
    2918:	08000000 	stmdaeq	r0, {}	; <UNPREDICTABLE>
    291c:	78000000 	stmdavc	r0, {}	; <UNPREDICTABLE>
    2920:	01000000 	mrseq	r0, (UNDEF: 0)
    2924:	00005400 	andeq	r5, r0, r0, lsl #8
	...
    2934:	000b0000 	andeq	r0, fp, r0
    2938:	00010000 	andeq	r0, r1, r0
    293c:	00000b50 	andeq	r0, r0, r0, asr fp
    2940:	00001400 	andeq	r1, r0, r0, lsl #8
    2944:	54000100 	strpl	r0, [r0], #-256	; 0xffffff00
	...
    2958:	00000018 	andeq	r0, r0, r8, lsl r0
    295c:	18510001 	ldmdane	r1, {r0}^
    2960:	2c000000 	stccs	0, cr0, [r0], {-0}
    2964:	04000000 	streq	r0, [r0], #-0
    2968:	5101f300 	mrspl	pc, SP_irq	; <UNPREDICTABLE>
    296c:	0000009f 	muleq	r0, pc, r0	; <UNPREDICTABLE>
    2970:	00000000 	andeq	r0, r0, r0
    2974:	00000200 	andeq	r0, r0, r0, lsl #4
    2978:	00000000 	andeq	r0, r0, r0
    297c:	01010000 	mrseq	r0, (UNDEF: 1)
    2980:	00000000 	andeq	r0, r0, r0
    2984:	04000000 	streq	r0, [r0], #-0
    2988:	01000000 	mrseq	r0, (UNDEF: 0)
    298c:	00045000 	andeq	r5, r4, r0
    2990:	00080000 	andeq	r0, r8, r0
    2994:	00010000 	andeq	r0, r1, r0
    2998:	00000852 	andeq	r0, r0, r2, asr r8
    299c:	00000c00 	andeq	r0, r0, r0, lsl #24
    29a0:	72000300 	andvc	r0, r0, #0, 6
    29a4:	000c9f01 	andeq	r9, ip, r1, lsl #30
    29a8:	00180000 	andseq	r0, r8, r0
    29ac:	00010000 	andeq	r0, r1, r0
    29b0:	00001852 	andeq	r1, r0, r2, asr r8
    29b4:	00001c00 	andeq	r1, r0, r0, lsl #24
    29b8:	53000100 	movwpl	r0, #256	; 0x100
    29bc:	0000001c 	andeq	r0, r0, ip, lsl r0
    29c0:	00000024 	andeq	r0, r0, r4, lsr #32
    29c4:	01730003 	cmneq	r3, r3
    29c8:	0000249f 	muleq	r0, pc, r4	; <UNPREDICTABLE>
    29cc:	00002c00 	andeq	r2, r0, r0, lsl #24
    29d0:	53000100 	movwpl	r0, #256	; 0x100
	...
    29dc:	00020203 	andeq	r0, r2, r3, lsl #4
    29e0:	00000000 	andeq	r0, r0, r0
    29e4:	00180000 	andseq	r0, r8, r0
    29e8:	00010000 	andeq	r0, r1, r0
    29ec:	00001851 	andeq	r1, r0, r1, asr r8
    29f0:	00001c00 	andeq	r1, r0, r0, lsl #24
    29f4:	71000300 	mrsvc	r0, LR_irq
    29f8:	001c9f01 	andseq	r9, ip, r1, lsl #30
    29fc:	002c0000 	eoreq	r0, ip, r0
    2a00:	00010000 	andeq	r0, r1, r0
    2a04:	00000051 	andeq	r0, r0, r1, asr r0
	...
    2a10:	08000000 	stmdaeq	r0, {}	; <UNPREDICTABLE>
    2a14:	0c000000 	stceq	0, cr0, [r0], {-0}
    2a18:	02000000 	andeq	r0, r0, #0, 0
    2a1c:	0c007200 	sfmeq	f7, 4, [r0], {-0}
    2a20:	18000000 	stmdane	r0, {}	; <UNPREDICTABLE>
    2a24:	02000000 	andeq	r0, r0, #0, 0
    2a28:	1c007300 	stcne	3, cr7, [r0], {-0}
    2a2c:	2c000000 	stccs	0, cr0, [r0], {-0}
    2a30:	01000000 	mrseq	r0, (UNDEF: 0)
    2a34:	00005200 	andeq	r5, r0, r0, lsl #4
	...
    2a4c:	00140000 	andseq	r0, r4, r0
    2a50:	00010000 	andeq	r0, r1, r0
    2a54:	00001450 	andeq	r1, r0, r0, asr r4
    2a58:	00001800 	andeq	r1, r0, r0, lsl #16
    2a5c:	70000300 	andvc	r0, r0, r0, lsl #6
    2a60:	00189f01 	andseq	r9, r8, r1, lsl #30
    2a64:	00200000 	eoreq	r0, r0, r0
    2a68:	00010000 	andeq	r0, r1, r0
    2a6c:	00002450 	andeq	r2, r0, r0, asr r4
    2a70:	00002800 	andeq	r2, r0, r0, lsl #16
    2a74:	50000100 	andpl	r0, r0, r0, lsl #2
    2a78:	00000028 	andeq	r0, r0, r8, lsr #32
    2a7c:	00000030 	andeq	r0, r0, r0, lsr r0
    2a80:	01700003 	cmneq	r0, r3
    2a84:	0000389f 	muleq	r0, pc, r8	; <UNPREDICTABLE>
    2a88:	00004000 	andeq	r4, r0, r0
    2a8c:	50000100 	andpl	r0, r0, r0, lsl #2
	...
    2aa0:	00240000 	eoreq	r0, r4, r0
    2aa4:	00010000 	andeq	r0, r1, r0
    2aa8:	00002451 	andeq	r2, r0, r1, asr r4
    2aac:	00002800 	andeq	r2, r0, r0, lsl #16
    2ab0:	5c000100 	stfpls	f0, [r0], {-0}
    2ab4:	00000028 	andeq	r0, r0, r8, lsr #32
    2ab8:	00000044 	andeq	r0, r0, r4, asr #32
    2abc:	00510001 	subseq	r0, r1, r1
	...
    2ac8:	00000202 	andeq	r0, r0, r2, lsl #4
    2acc:	00000000 	andeq	r0, r0, r0
    2ad0:	00000400 	andeq	r0, r0, r0, lsl #8
    2ad4:	51000100 	mrspl	r0, (UNDEF: 16)
    2ad8:	00000004 	andeq	r0, r0, r4
    2adc:	00000008 	andeq	r0, r0, r8
    2ae0:	01710003 	cmneq	r1, r3
    2ae4:	0000089f 	muleq	r0, pc, r8	; <UNPREDICTABLE>
    2ae8:	00001800 	andeq	r1, r0, r0, lsl #16
    2aec:	51000100 	mrspl	r0, (UNDEF: 16)
	...
    2af8:	00000002 	andeq	r0, r0, r2
    2afc:	00040000 	andeq	r0, r4, r0
    2b00:	00010000 	andeq	r0, r1, r0
    2b04:	00000050 	andeq	r0, r0, r0, asr r0
	...
    2b14:	00000800 	andeq	r0, r0, r0, lsl #16
    2b18:	50000100 	andpl	r0, r0, r0, lsl #2
    2b1c:	00000008 	andeq	r0, r0, r8
    2b20:	00000030 	andeq	r0, r0, r0, lsr r0
    2b24:	01f30004 	mvnseq	r0, r4
    2b28:	00009f50 	andeq	r9, r0, r0, asr pc
	...
    2b38:	00080000 	andeq	r0, r8, r0
    2b3c:	00010000 	andeq	r0, r1, r0
    2b40:	00000851 	andeq	r0, r0, r1, asr r8
    2b44:	00003000 	andeq	r3, r0, r0
    2b48:	f3000400 	vshl.u8	d0, d0, d0
    2b4c:	009f5101 	addseq	r5, pc, r1, lsl #2
	...
    2b5c:	02020100 	andeq	r0, r2, #0
    2b60:	00000000 	andeq	r0, r0, r0
    2b64:	00000400 	andeq	r0, r0, r0, lsl #8
    2b68:	52000100 	andpl	r0, r0, #0
    2b6c:	00000004 	andeq	r0, r0, r4
    2b70:	00000008 	andeq	r0, r0, r8
    2b74:	01f30004 	mvnseq	r0, r4
    2b78:	00089f52 	andeq	r9, r8, r2, asr pc
    2b7c:	00180000 	andseq	r0, r8, r0
    2b80:	00060000 	andeq	r0, r6, r0
    2b84:	315201f3 	ldrshcc	r0, [r2, #-19]	; 0xffffffed
    2b88:	00189f1c 	andseq	r9, r8, ip, lsl pc
    2b8c:	00180000 	andseq	r0, r8, r0
    2b90:	00040000 	andeq	r0, r4, r0
    2b94:	9f5201f3 	svcls	0x005201f3
    2b98:	00000018 	andeq	r0, r0, r8, lsl r0
    2b9c:	00000030 	andeq	r0, r0, r0, lsr r0
    2ba0:	01f30006 	mvnseq	r0, r6
    2ba4:	9f1c3152 	svcls	0x001c3152
	...
    2bb0:	00000002 	andeq	r0, r0, r2
    2bb4:	00000001 	andeq	r0, r0, r1
    2bb8:	00000000 	andeq	r0, r0, r0
    2bbc:	0000000c 	andeq	r0, r0, ip
    2bc0:	0c500001 	mrrceq	0, 0, r0, r0, cr1	; <UNPREDICTABLE>
    2bc4:	18000000 	stmdane	r0, {}	; <UNPREDICTABLE>
    2bc8:	03000000 	movweq	r0, #0
    2bcc:	9f7f7000 	svcls	0x007f7000
    2bd0:	00000018 	andeq	r0, r0, r8, lsl r0
    2bd4:	00000024 	andeq	r0, r0, r4, lsr #32
    2bd8:	28500001 	ldmdacs	r0, {r0}^
    2bdc:	2c000000 	stccs	0, cr0, [r0], {-0}
    2be0:	03000000 	movweq	r0, #0
    2be4:	9f7f7000 	svcls	0x007f7000
	...
    2bf0:	00000002 	andeq	r0, r0, r2
    2bf4:	00000000 	andeq	r0, r0, r0
    2bf8:	000c0000 	andeq	r0, ip, r0
    2bfc:	00010000 	andeq	r0, r1, r0
    2c00:	00000c51 	andeq	r0, r0, r1, asr ip
    2c04:	00001000 	andeq	r1, r0, r0
    2c08:	71000300 	mrsvc	r0, LR_irq
    2c0c:	00109f01 	andseq	r9, r0, r1, lsl #30
    2c10:	00300000 	eorseq	r0, r0, r0
    2c14:	00010000 	andeq	r0, r1, r0
    2c18:	00000051 	andeq	r0, r0, r1, asr r0
    2c1c:	00000000 	andeq	r0, r0, r0
	...

Disassembly of section .debug_aranges:

00000000 <.debug_aranges>:
   0:	0000001c 	andeq	r0, r0, ip, lsl r0
   4:	00000002 	andeq	r0, r0, r2
   8:	00040000 	andeq	r0, r4, r0
   c:	00000000 	andeq	r0, r0, r0
  10:	00008038 	andeq	r8, r0, r8, lsr r0
  14:	000000d0 	ldrdeq	r0, [r0], -r0	; <UNPREDICTABLE>
	...
  20:	0000001c 	andeq	r0, r0, ip, lsl r0
  24:	02c60002 	sbceq	r0, r6, #2, 0
  28:	00040000 	andeq	r0, r4, r0
  2c:	00000000 	andeq	r0, r0, r0
  30:	00008108 	andeq	r8, r0, r8, lsl #2
  34:	000001ac 	andeq	r0, r0, ip, lsr #3
	...
  40:	0000001c 	andeq	r0, r0, ip, lsl r0
  44:	058c0002 	streq	r0, [ip, #2]
  48:	00040000 	andeq	r0, r4, r0
  4c:	00000000 	andeq	r0, r0, r0
  50:	000082b4 			; <UNDEFINED> instruction: 0x000082b4
  54:	0000000c 	andeq	r0, r0, ip
	...
  60:	0000001c 	andeq	r0, r0, ip, lsl r0
  64:	069a0002 	ldreq	r0, [sl], r2
  68:	00040000 	andeq	r0, r4, r0
  6c:	00000000 	andeq	r0, r0, r0
  70:	000082c0 	andeq	r8, r0, r0, asr #5
  74:	00000058 	andeq	r0, r0, r8, asr r0
	...
  80:	0000001c 	andeq	r0, r0, ip, lsl r0
  84:	083b0002 	ldmdaeq	fp!, {r1}
  88:	00040000 	andeq	r0, r4, r0
  8c:	00000000 	andeq	r0, r0, r0
  90:	00008318 	andeq	r8, r0, r8, lsl r3
  94:	00000038 	andeq	r0, r0, r8, lsr r0
	...
  a0:	0000001c 	andeq	r0, r0, ip, lsl r0
  a4:	09320002 	ldmdbeq	r2!, {r1}
  a8:	00040000 	andeq	r0, r4, r0
  ac:	00000000 	andeq	r0, r0, r0
  b0:	00008350 	andeq	r8, r0, r0, asr r3
  b4:	000009b4 			; <UNDEFINED> instruction: 0x000009b4
	...
  c0:	0000001c 	andeq	r0, r0, ip, lsl r0
  c4:	15b50002 	ldrne	r0, [r5, #2]!
  c8:	00040000 	andeq	r0, r4, r0
  cc:	00000000 	andeq	r0, r0, r0
  d0:	00008d04 	andeq	r8, r0, r4, lsl #26
  d4:	0000002c 	andeq	r0, r0, ip, lsr #32
	...
  e0:	0000001c 	andeq	r0, r0, ip, lsl r0
  e4:	16e80002 	strbtne	r0, [r8], r2
  e8:	00040000 	andeq	r0, r4, r0
  ec:	00000000 	andeq	r0, r0, r0
  f0:	00008d30 	andeq	r8, r0, r0, lsr sp
  f4:	000000f8 	strdeq	r0, [r0], -r8
	...
 100:	0000001c 	andeq	r0, r0, ip, lsl r0
 104:	187c0002 	ldmdane	ip!, {r1}^
 108:	00040000 	andeq	r0, r4, r0
 10c:	00000000 	andeq	r0, r0, r0
 110:	00008e28 	andeq	r8, r0, r8, lsr #28
 114:	00000004 	andeq	r0, r0, r4
	...
 120:	0000001c 	andeq	r0, r0, ip, lsl r0
 124:	194e0002 	stmdbne	lr, {r1}^
 128:	00040000 	andeq	r0, r4, r0
 12c:	00000000 	andeq	r0, r0, r0
 130:	00008e2c 	andeq	r8, r0, ip, lsr #28
 134:	0000008c 	andeq	r0, r0, ip, lsl #1
	...
 140:	0000001c 	andeq	r0, r0, ip, lsl r0
 144:	1bcf0002 	blne	ff3c0154 <__bss_end__+0xff3b6034>
 148:	00040000 	andeq	r0, r4, r0
 14c:	00000000 	andeq	r0, r0, r0
 150:	00008eb8 			; <UNDEFINED> instruction: 0x00008eb8
 154:	0000011c 	andeq	r0, r0, ip, lsl r1
	...
 160:	0000001c 	andeq	r0, r0, ip, lsl r0
 164:	21120002 	tstcs	r2, r2
 168:	00040000 	andeq	r0, r4, r0
 16c:	00000000 	andeq	r0, r0, r0
 170:	00008fd4 	ldrdeq	r8, [r0], -r4
 174:	000001f0 	strdeq	r0, [r0], -r0	; <UNPREDICTABLE>
	...
 180:	0000001c 	andeq	r0, r0, ip, lsl r0
 184:	26e30002 	strbtcs	r0, [r3], r2
 188:	00040000 	andeq	r0, r4, r0
 18c:	00000000 	andeq	r0, r0, r0
 190:	000091c4 	andeq	r9, r0, r4, asr #3
 194:	000003b0 			; <UNDEFINED> instruction: 0x000003b0
	...
 1a0:	0000001c 	andeq	r0, r0, ip, lsl r0
 1a4:	2fd00002 	svccs	0x00d00002
 1a8:	00040000 	andeq	r0, r4, r0
 1ac:	00000000 	andeq	r0, r0, r0
 1b0:	00009574 	andeq	r9, r0, r4, ror r5
 1b4:	00000198 	muleq	r0, r8, r1
	...
 1c0:	0000001c 	andeq	r0, r0, ip, lsl r0
 1c4:	36470002 	strbcc	r0, [r7], -r2
 1c8:	00040000 	andeq	r0, r4, r0
 1cc:	00000000 	andeq	r0, r0, r0
 1d0:	0000970c 	andeq	r9, r0, ip, lsl #14
 1d4:	00000078 	andeq	r0, r0, r8, ror r0
	...
 1e0:	0000001c 	andeq	r0, r0, ip, lsl r0
 1e4:	378b0002 	strcc	r0, [fp, r2]
 1e8:	00040000 	andeq	r0, r4, r0
 1ec:	00000000 	andeq	r0, r0, r0
 1f0:	00009784 	andeq	r9, r0, r4, lsl #15
 1f4:	0000003c 	andeq	r0, r0, ip, lsr r0
	...
 200:	0000001c 	andeq	r0, r0, ip, lsl r0
 204:	38d80002 	ldmcc	r8, {r1}^
 208:	00040000 	andeq	r0, r4, r0
 20c:	00000000 	andeq	r0, r0, r0
 210:	000097c0 	andeq	r9, r0, r0, asr #15
 214:	0000002c 	andeq	r0, r0, ip, lsr #32
	...
 220:	0000001c 	andeq	r0, r0, ip, lsl r0
 224:	3a130002 	bcc	4c0234 <__bss_end__+0x4b6114>
 228:	00040000 	andeq	r0, r4, r0
 22c:	00000000 	andeq	r0, r0, r0
 230:	000097ec 	andeq	r9, r0, ip, ror #15
 234:	00000044 	andeq	r0, r0, r4, asr #32
	...
 240:	0000001c 	andeq	r0, r0, ip, lsl r0
 244:	3b0e0002 	blcc	380254 <__bss_end__+0x376134>
 248:	00040000 	andeq	r0, r4, r0
 24c:	00000000 	andeq	r0, r0, r0
 250:	00009830 	andeq	r9, r0, r0, lsr r8
 254:	00000018 	andeq	r0, r0, r8, lsl r0
	...
 260:	0000001c 	andeq	r0, r0, ip, lsl r0
 264:	3c210002 	stccc	0, cr0, [r1], #-8
 268:	00040000 	andeq	r0, r4, r0
 26c:	00000000 	andeq	r0, r0, r0
 270:	00009848 	andeq	r9, r0, r8, asr #16
 274:	00000030 	andeq	r0, r0, r0, lsr r0
	...
 280:	0000001c 	andeq	r0, r0, ip, lsl r0
 284:	3d730002 	ldclcc	0, cr0, [r3, #-8]!
 288:	00040000 	andeq	r0, r4, r0
 28c:	00000000 	andeq	r0, r0, r0
 290:	00009878 	andeq	r9, r0, r8, ror r8
 294:	00000004 	andeq	r0, r0, r4
	...

Disassembly of section .debug_ranges:

00000000 <.debug_ranges>:
   0:	00000020 	andeq	r0, r0, r0, lsr #32
   4:	00000070 	andeq	r0, r0, r0, ror r0
   8:	00000074 	andeq	r0, r0, r4, ror r0
   c:	00000098 	muleq	r0, r8, r0
	...
  18:	000000a4 	andeq	r0, r0, r4, lsr #1
  1c:	00000148 	andeq	r0, r0, r8, asr #2
  20:	00000158 	andeq	r0, r0, r8, asr r1
  24:	0000015c 	andeq	r0, r0, ip, asr r1
  28:	00000274 	andeq	r0, r0, r4, ror r2
  2c:	00000278 	andeq	r0, r0, r8, ror r2
  30:	0000027c 	andeq	r0, r0, ip, ror r2
  34:	00000280 	andeq	r0, r0, r0, lsl #5
  38:	00000288 	andeq	r0, r0, r8, lsl #5
  3c:	0000029c 	muleq	r0, ip, r2
  40:	000002c0 	andeq	r0, r0, r0, asr #5
  44:	000002cc 	andeq	r0, r0, ip, asr #5
  48:	000002f0 	strdeq	r0, [r0], -r0	; <UNPREDICTABLE>
  4c:	000002f0 	strdeq	r0, [r0], -r0	; <UNPREDICTABLE>
  50:	000002f4 	strdeq	r0, [r0], -r4
  54:	000002f8 	strdeq	r0, [r0], -r8
	...
  60:	00000148 	andeq	r0, r0, r8, asr #2
  64:	00000158 	andeq	r0, r0, r8, asr r1
  68:	0000015c 	andeq	r0, r0, ip, asr r1
  6c:	0000018c 	andeq	r0, r0, ip, lsl #3
  70:	0000029c 	muleq	r0, ip, r2
  74:	000002ac 	andeq	r0, r0, ip, lsr #5
	...
  80:	000003c8 	andeq	r0, r0, r8, asr #7
  84:	000003d0 	ldrdeq	r0, [r0], -r0	; <UNPREDICTABLE>
  88:	00000404 	andeq	r0, r0, r4, lsl #8
  8c:	000004ac 	andeq	r0, r0, ip, lsr #9
  90:	000004c0 	andeq	r0, r0, r0, asr #9
  94:	00000920 	andeq	r0, r0, r0, lsr #18
  98:	00000928 	andeq	r0, r0, r8, lsr #18
  9c:	000009b4 			; <UNDEFINED> instruction: 0x000009b4
	...
  a8:	000003c8 	andeq	r0, r0, r8, asr #7
  ac:	000003d0 	ldrdeq	r0, [r0], -r0	; <UNPREDICTABLE>
  b0:	00000504 	andeq	r0, r0, r4, lsl #10
  b4:	000005d0 	ldrdeq	r0, [r0], -r0	; <UNPREDICTABLE>
  b8:	00000800 	andeq	r0, r0, r0, lsl #16
  bc:	00000888 	andeq	r0, r0, r8, lsl #17
  c0:	00000930 	andeq	r0, r0, r0, lsr r9
  c4:	000009b4 			; <UNDEFINED> instruction: 0x000009b4
	...
  d0:	00000404 	andeq	r0, r0, r4, lsl #8
  d4:	00000408 	andeq	r0, r0, r8, lsl #8
  d8:	00000414 	andeq	r0, r0, r4, lsl r4
  dc:	00000414 	andeq	r0, r0, r4, lsl r4
  e0:	00000428 	andeq	r0, r0, r8, lsr #8
  e4:	0000042c 	andeq	r0, r0, ip, lsr #8
	...
  f0:	000005fc 	strdeq	r0, [r0], -ip
  f4:	00000700 	andeq	r0, r0, r0, lsl #14
  f8:	000007ec 	andeq	r0, r0, ip, ror #15
  fc:	000007f4 	strdeq	r0, [r0], -r4
 100:	00000888 	andeq	r0, r0, r8, lsl #17
 104:	00000894 	muleq	r0, r4, r8
 108:	000008a8 	andeq	r0, r0, r8, lsr #17
 10c:	000008bc 			; <UNDEFINED> instruction: 0x000008bc
 110:	00000910 	andeq	r0, r0, r0, lsl r9
 114:	00000920 	andeq	r0, r0, r0, lsr #18
	...
 120:	00000600 	andeq	r0, r0, r0, lsl #12
 124:	00000604 	andeq	r0, r0, r4, lsl #12
 128:	00000608 	andeq	r0, r0, r8, lsl #12
 12c:	000006b4 			; <UNDEFINED> instruction: 0x000006b4
 130:	000006cc 	andeq	r0, r0, ip, asr #13
 134:	000006d0 	ldrdeq	r0, [r0], -r0	; <UNPREDICTABLE>
 138:	000008a8 	andeq	r0, r0, r8, lsr #17
 13c:	000008b8 			; <UNDEFINED> instruction: 0x000008b8
 140:	00000910 	andeq	r0, r0, r0, lsl r9
 144:	00000920 	andeq	r0, r0, r0, lsr #18
	...
 150:	000006b4 			; <UNDEFINED> instruction: 0x000006b4
 154:	000006cc 	andeq	r0, r0, ip, asr #13
 158:	000006d0 	ldrdeq	r0, [r0], -r0	; <UNPREDICTABLE>
 15c:	00000700 	andeq	r0, r0, r0, lsl #14
 160:	000007ec 	andeq	r0, r0, ip, ror #15
 164:	000007f4 	strdeq	r0, [r0], -r4
 168:	00000888 	andeq	r0, r0, r8, lsl #17
 16c:	00000894 	muleq	r0, r4, r8
 170:	000008b8 			; <UNDEFINED> instruction: 0x000008b8
 174:	000008bc 			; <UNDEFINED> instruction: 0x000008bc
	...
 180:	00000700 	andeq	r0, r0, r0, lsl #14
 184:	00000708 	andeq	r0, r0, r8, lsl #14
 188:	0000070c 	andeq	r0, r0, ip, lsl #14
 18c:	000007ec 	andeq	r0, r0, ip, ror #15
 190:	00000894 	muleq	r0, r4, r8
 194:	000008a8 	andeq	r0, r0, r8, lsr #17
	...
 1a0:	00000728 	andeq	r0, r0, r8, lsr #14
 1a4:	000007a4 	andeq	r0, r0, r4, lsr #15
 1a8:	000007ac 	andeq	r0, r0, ip, lsr #15
 1ac:	000007b0 			; <UNDEFINED> instruction: 0x000007b0
 1b0:	00000894 	muleq	r0, r4, r8
 1b4:	00000898 	muleq	r0, r8, r8
 1b8:	0000089c 	muleq	r0, ip, r8
 1bc:	000008a0 	andeq	r0, r0, r0, lsr #17
	...
 1c8:	000007a4 	andeq	r0, r0, r4, lsr #15
 1cc:	000007ac 	andeq	r0, r0, ip, lsr #15
 1d0:	000007b0 			; <UNDEFINED> instruction: 0x000007b0
 1d4:	000007ec 	andeq	r0, r0, ip, ror #15
 1d8:	00000898 	muleq	r0, r8, r8
 1dc:	0000089c 	muleq	r0, ip, r8
 1e0:	000008a0 	andeq	r0, r0, r0, lsr #17
 1e4:	000008a8 	andeq	r0, r0, r8, lsr #17
	...
 1f0:	00008e58 	andeq	r8, r0, r8, asr lr
 1f4:	00008e58 	andeq	r8, r0, r8, asr lr
 1f8:	00008e5c 	andeq	r8, r0, ip, asr lr
 1fc:	00008e64 	andeq	r8, r0, r4, ror #28
	...
 208:	00008e2c 	andeq	r8, r0, ip, lsr #28
 20c:	00008eb8 			; <UNDEFINED> instruction: 0x00008eb8
	...
 218:	00000030 	andeq	r0, r0, r0, lsr r0
 21c:	00000030 	andeq	r0, r0, r0, lsr r0
 220:	00000038 	andeq	r0, r0, r8, lsr r0
 224:	0000004c 	andeq	r0, r0, ip, asr #32
	...
 230:	0000004c 	andeq	r0, r0, ip, asr #32
 234:	00000050 	andeq	r0, r0, r0, asr r0
 238:	00000050 	andeq	r0, r0, r0, asr r0
 23c:	00000078 	andeq	r0, r0, r8, ror r0
	...
 248:	0000004c 	andeq	r0, r0, ip, asr #32
 24c:	00000050 	andeq	r0, r0, r0, asr r0
 250:	00000050 	andeq	r0, r0, r0, asr r0
 254:	00000060 	andeq	r0, r0, r0, rrx
 258:	00000064 	andeq	r0, r0, r4, rrx
 25c:	00000068 	andeq	r0, r0, r8, rrx
	...
 268:	0000004c 	andeq	r0, r0, ip, asr #32
 26c:	00000050 	andeq	r0, r0, r0, asr r0
 270:	00000054 	andeq	r0, r0, r4, asr r0
 274:	00000060 	andeq	r0, r0, r0, rrx
	...
 280:	0000009c 	muleq	r0, ip, r0
 284:	000000a0 	andeq	r0, r0, r0, lsr #1
 288:	000000a0 	andeq	r0, r0, r0, lsr #1
 28c:	000000c8 	andeq	r0, r0, r8, asr #1
	...
 298:	0000009c 	muleq	r0, ip, r0
 29c:	000000a0 	andeq	r0, r0, r0, lsr #1
 2a0:	000000a0 	andeq	r0, r0, r0, lsr #1
 2a4:	000000b0 	strheq	r0, [r0], -r0	; <UNPREDICTABLE>
 2a8:	000000b4 	strheq	r0, [r0], -r4
 2ac:	000000b8 	strheq	r0, [r0], -r8
	...
 2b8:	0000009c 	muleq	r0, ip, r0
 2bc:	000000a0 	andeq	r0, r0, r0, lsr #1
 2c0:	000000a4 	andeq	r0, r0, r4, lsr #1
 2c4:	000000b0 	strheq	r0, [r0], -r0	; <UNPREDICTABLE>
	...
 2d0:	000000c8 	andeq	r0, r0, r8, asr #1
 2d4:	000000c8 	andeq	r0, r0, r8, asr #1
 2d8:	000000cc 	andeq	r0, r0, ip, asr #1
 2dc:	0000011c 	andeq	r0, r0, ip, lsl r1
	...
 2e8:	000000f0 	strdeq	r0, [r0], -r0	; <UNPREDICTABLE>
 2ec:	000000f4 	strdeq	r0, [r0], -r4
 2f0:	000000f4 	strdeq	r0, [r0], -r4
 2f4:	0000011c 	andeq	r0, r0, ip, lsl r1
	...
 300:	000000f0 	strdeq	r0, [r0], -r0	; <UNPREDICTABLE>
 304:	000000f4 	strdeq	r0, [r0], -r4
 308:	000000f4 	strdeq	r0, [r0], -r4
 30c:	00000104 	andeq	r0, r0, r4, lsl #2
 310:	00000108 	andeq	r0, r0, r8, lsl #2
 314:	0000010c 	andeq	r0, r0, ip, lsl #2
	...
 320:	000000f0 	strdeq	r0, [r0], -r0	; <UNPREDICTABLE>
 324:	000000f4 	strdeq	r0, [r0], -r4
 328:	000000f8 	strdeq	r0, [r0], -r8
 32c:	00000104 	andeq	r0, r0, r4, lsl #2
	...
 338:	00000134 	andeq	r0, r0, r4, lsr r1
 33c:	00000134 	andeq	r0, r0, r4, lsr r1
 340:	00000134 	andeq	r0, r0, r4, lsr r1
 344:	0000013c 	andeq	r0, r0, ip, lsr r1
	...
 350:	0000024c 	andeq	r0, r0, ip, asr #4
 354:	00000264 	andeq	r0, r0, r4, ror #4
 358:	000002c8 	andeq	r0, r0, r8, asr #5
 35c:	000002e8 	andeq	r0, r0, r8, ror #5
	...
 368:	00000008 	andeq	r0, r0, r8
 36c:	0000000c 	andeq	r0, r0, ip
 370:	00000014 	andeq	r0, r0, r4, lsl r0
 374:	00000054 	andeq	r0, r0, r4, asr r0
 378:	00000058 	andeq	r0, r0, r8, asr r0
 37c:	00000060 	andeq	r0, r0, r0, rrx
	...
 388:	00000060 	andeq	r0, r0, r0, rrx
 38c:	00000068 	andeq	r0, r0, r8, rrx
 390:	0000006c 	andeq	r0, r0, ip, rrx
 394:	000000ac 	andeq	r0, r0, ip, lsr #1
 398:	000000b0 	strheq	r0, [r0], -r0	; <UNPREDICTABLE>
 39c:	000000b8 	strheq	r0, [r0], -r8
	...
 3a8:	00000068 	andeq	r0, r0, r8, rrx
 3ac:	00000068 	andeq	r0, r0, r8, rrx
 3b0:	0000006c 	andeq	r0, r0, ip, rrx
 3b4:	000000ac 	andeq	r0, r0, ip, lsr #1
 3b8:	000000b0 	strheq	r0, [r0], -r0	; <UNPREDICTABLE>
 3bc:	000000b8 	strheq	r0, [r0], -r8
	...
 3c8:	000000e8 	andeq	r0, r0, r8, ror #1
 3cc:	000000f0 	strdeq	r0, [r0], -r0	; <UNPREDICTABLE>
 3d0:	000000f4 	strdeq	r0, [r0], -r4
 3d4:	00000134 	andeq	r0, r0, r4, lsr r1
 3d8:	00000138 	andeq	r0, r0, r8, lsr r1
 3dc:	00000140 	andeq	r0, r0, r0, asr #2
	...
 3e8:	000000f0 	strdeq	r0, [r0], -r0	; <UNPREDICTABLE>
 3ec:	000000f0 	strdeq	r0, [r0], -r0	; <UNPREDICTABLE>
 3f0:	000000f4 	strdeq	r0, [r0], -r4
 3f4:	00000134 	andeq	r0, r0, r4, lsr r1
 3f8:	00000138 	andeq	r0, r0, r8, lsr r1
 3fc:	00000140 	andeq	r0, r0, r0, asr #2
	...
 408:	00000144 	andeq	r0, r0, r4, asr #2
 40c:	00000148 	andeq	r0, r0, r8, asr #2
 410:	00000150 	andeq	r0, r0, r0, asr r1
 414:	0000015c 	andeq	r0, r0, ip, asr r1
	...

Disassembly of section .debug_line:

00000000 <.debug_line>:
       0:	00000118 	andeq	r0, r0, r8, lsl r1
       4:	00680003 	rsbeq	r0, r8, r3
       8:	01020000 	mrseq	r0, (UNDEF: 2)
       c:	000d0efb 	strdeq	r0, [sp], -fp
      10:	01010101 	tsteq	r1, r1, lsl #2
      14:	01000000 	mrseq	r0, (UNDEF: 0)
      18:	2f010000 	svccs	0x00010000
      1c:	72657355 	rsbvc	r7, r5, #1409286145	; 0x54000001
      20:	696d2f73 	stmdbvs	sp!, {r0, r1, r4, r5, r6, r8, r9, sl, fp, sp}^
      24:	2f73656c 	svccs	0x0073656c
      28:	72756f53 	rsbsvc	r6, r5, #332	; 0x14c
      2c:	632f6563 			; <UNDEFINED> instruction: 0x632f6563
      30:	30343273 	eorscc	r3, r4, r3, ror r2
      34:	6c2f786c 	stcvs	8, cr7, [pc], #-432	; fffffe8c <__bss_end__+0xffff5d6c>
      38:	69706269 	ldmdbvs	r0!, {r0, r3, r5, r6, r9, sp, lr}^
      3c:	636e692f 	cmnvs	lr, #770048	; 0xbc000
      40:	6564756c 	strbvs	r7, [r4, #-1388]!	; 0xfffffa94
      44:	2d300000 	ldccs	0, cr0, [r0, #-0]
      48:	74736574 	ldrbtvc	r6, [r3], #-1396	; 0xfffffa8c
      4c:	6c616d2d 	stclvs	13, cr6, [r1], #-180	; 0xffffff4c
      50:	2e636f6c 	cdpcs	15, 6, cr6, cr3, cr12, {3}
      54:	00000063 	andeq	r0, r0, r3, rrx
      58:	69707200 	ldmdbvs	r0!, {r9, ip, sp, lr}^
      5c:	0100682e 	tsteq	r0, lr, lsr #16
      60:	726b0000 	rsbvc	r0, fp, #0, 0
      64:	6c616d2d 	stclvs	13, cr6, [r1], #-180	; 0xffffff4c
      68:	2e636f6c 	cdpcs	15, 6, cr6, cr3, cr12, {3}
      6c:	00000068 	andeq	r0, r0, r8, rrx
      70:	14050000 	strne	r0, [r5], #-0
      74:	38020500 	stmdacc	r2, {r8, sl}
      78:	16000080 	strne	r0, [r0], -r0, lsl #1
      7c:	144b0505 	strbne	r0, [fp], #-1285	; 0xfffffafb
      80:	01061005 	tsteq	r6, r5
      84:	67060505 	strvs	r0, [r6, -r5, lsl #10]
      88:	05010905 	streq	r0, [r1, #-2309]	; 0xfffff6fb
      8c:	05010612 	streq	r0, [r1, #-1554]	; 0xfffff9ee
      90:	04020019 	streq	r0, [r2], #-25	; 0xffffffe7
      94:	052e0601 	streq	r0, [lr, #-1537]!	; 0xfffff9ff
      98:	04020005 	streq	r0, [r2], #-5
      9c:	05010601 	streq	r0, [r1, #-1537]	; 0xfffff9ff
      a0:	054b0609 	strbeq	r0, [fp, #-1545]	; 0xfffff9f7
      a4:	05010614 	streq	r0, [r1, #-1556]	; 0xfffff9ec
      a8:	06680609 	strbteq	r0, [r8], -r9, lsl #12
      ac:	4ba1062e 	blmi	fe84196c <__bss_end__+0xfe83784c>
      b0:	01061405 	tsteq	r6, r5, lsl #8
      b4:	4b060905 	blmi	1824d0 <__bss_end__+0x1783b0>
      b8:	01060b05 	tsteq	r6, r5, lsl #22
      bc:	02000d05 	andeq	r0, r0, #320	; 0x140
      c0:	4b060204 	blmi	1808d8 <__bss_end__+0x1767b8>
      c4:	02000905 	andeq	r0, r0, #81920	; 0x14000
      c8:	00130204 	andseq	r0, r3, r4, lsl #4
      cc:	13020402 	movwne	r0, #9218	; 0x2402
      d0:	02040200 	andeq	r0, r4, #0, 4
      d4:	04020001 	streq	r0, [r2], #-1
      d8:	002e0602 	eoreq	r0, lr, r2, lsl #12
      dc:	06020402 	streq	r0, [r2], -r2, lsl #8
      e0:	0402002e 	streq	r0, [r2], #-46	; 0xffffffd2
      e4:	25056602 	strcs	r6, [r5, #-1538]	; 0xfffff9fe
      e8:	02040200 	andeq	r0, r4, #0, 4
      ec:	05017503 	streq	r7, [r1, #-1283]	; 0xfffffafd
      f0:	04020026 	streq	r0, [r2], #-38	; 0xffffffda
      f4:	05010602 	streq	r0, [r1, #-1538]	; 0xfffff9fe
      f8:	0402000b 	streq	r0, [r2], #-11
      fc:	2e0a0302 	cdpcs	3, 0, cr0, cr10, cr2, {0}
     100:	49060d05 	stmdbmi	r6, {r0, r2, r8, sl, fp}
     104:	069e0601 	ldreq	r0, [lr], r1, lsl #12
     108:	052e062e 	streq	r0, [lr, #-1582]!	; 0xfffff9d2
     10c:	01170605 	tsteq	r7, r5, lsl #12
     110:	0105664a 	tsteq	r5, sl, asr #12
     114:	024a1306 	subeq	r1, sl, #402653184	; 0x18000000
     118:	0101000e 	tsteq	r1, lr
     11c:	00000227 	andeq	r0, r0, r7, lsr #4
     120:	00640003 	rsbeq	r0, r4, r3
     124:	01020000 	mrseq	r0, (UNDEF: 2)
     128:	000d0efb 	strdeq	r0, [sp], -fp
     12c:	01010101 	tsteq	r1, r1, lsl #2
     130:	01000000 	mrseq	r0, (UNDEF: 0)
     134:	2f010000 	svccs	0x00010000
     138:	72657355 	rsbvc	r7, r5, #1409286145	; 0x54000001
     13c:	696d2f73 	stmdbvs	sp!, {r0, r1, r4, r5, r6, r8, r9, sl, fp, sp}^
     140:	2f73656c 	svccs	0x0073656c
     144:	72756f53 	rsbsvc	r6, r5, #332	; 0x14c
     148:	632f6563 			; <UNDEFINED> instruction: 0x632f6563
     14c:	30343273 	eorscc	r3, r4, r3, ror r2
     150:	6c2f786c 	stcvs	8, cr7, [pc], #-432	; ffffffa8 <__bss_end__+0xffff5e88>
     154:	69706269 	ldmdbvs	r0!, {r0, r3, r5, r6, r9, sp, lr}^
     158:	636e692f 	cmnvs	lr, #770048	; 0xbc000
     15c:	6564756c 	strbvs	r7, [r4, #-1388]!	; 0xfffffa94
     160:	726b0000 	rsbvc	r0, fp, #0, 0
     164:	6c616d2d 	stclvs	13, cr6, [r1], #-180	; 0xffffff4c
     168:	2e636f6c 	cdpcs	15, 6, cr6, cr3, cr12, {3}
     16c:	00000063 	andeq	r0, r0, r3, rrx
     170:	69707200 	ldmdbvs	r0!, {r9, ip, sp, lr}^
     174:	0100682e 	tsteq	r0, lr, lsr #16
     178:	726b0000 	rsbvc	r0, fp, #0, 0
     17c:	6c616d2d 	stclvs	13, cr6, [r1], #-180	; 0xffffff4c
     180:	2e636f6c 	cdpcs	15, 6, cr6, cr3, cr12, {3}
     184:	00000068 	andeq	r0, r0, r8, rrx
     188:	01050000 	mrseq	r0, (UNDEF: 5)
     18c:	08020500 	stmdaeq	r2, {r8, sl}
     190:	03000081 	movweq	r0, #129	; 0x81
     194:	060100d2 			; <UNDEFINED> instruction: 0x060100d2
     198:	06020501 	streq	r0, [r2], -r1, lsl #10
     19c:	0505132f 	streq	r1, [r5, #-815]	; 0xfffffcd1
     1a0:	02050106 	andeq	r0, r5, #-2147483647	; 0x80000001
     1a4:	09052f06 	stmdbeq	r5, {r1, r2, r8, r9, sl, fp, sp}
     1a8:	02050106 	andeq	r0, r5, #-2147483647	; 0x80000001
     1ac:	12052e4a 	andne	r2, r5, #1184	; 0x4a0
     1b0:	01040200 	mrseq	r0, R12_usr
     1b4:	02052e06 	andeq	r2, r5, #96	; 0x60
     1b8:	01040200 	mrseq	r0, R12_usr
     1bc:	27050106 	strcs	r0, [r5, -r6, lsl #2]
     1c0:	03040200 	movweq	r0, #16896	; 0x4200
     1c4:	0012054a 	andseq	r0, r2, sl, asr #10
     1c8:	2e030402 	cdpcs	4, 0, cr0, cr3, cr2, {0}
     1cc:	4b060305 	blmi	180de8 <__bss_end__+0x176cc8>
     1d0:	01061005 	tsteq	r6, r5
     1d4:	052e0605 	streq	r0, [lr, #-1541]!	; 0xfffff9fb
     1d8:	04020015 	streq	r0, [r2], #-21	; 0xffffffeb
     1dc:	20054a01 	andcs	r4, r5, r1, lsl #20
     1e0:	02040200 	andeq	r0, r4, #0, 4
     1e4:	0402004a 	streq	r0, [r2], #-74	; 0xffffffb6
     1e8:	02054a02 	andeq	r4, r5, #8192	; 0x2000
     1ec:	10053006 	andne	r3, r5, r6
     1f0:	09050106 	stmdbeq	r5, {r1, r2, r8}
     1f4:	2e1d052e 	cfmul64cs	mvdx0, mvdx13, mvdx14
     1f8:	052e0505 	streq	r0, [lr, #-1285]!	; 0xfffffafb
     1fc:	05500603 	ldrbeq	r0, [r0, #-1539]	; 0xfffff9fd
     200:	0501060d 	streq	r0, [r1, #-1549]	; 0xfffff9f3
     204:	052f0602 	streq	r0, [pc, #-1538]!	; fffffc0a <__bss_end__+0xffff5aea>
     208:	0501060e 	streq	r0, [r1, #-1550]	; 0xfffff9f2
     20c:	05052e08 	streq	r2, [r5, #-3592]	; 0xfffff1f8
     210:	0603052e 	streq	r0, [r3], -lr, lsr #10
     214:	060c0550 			; <UNDEFINED> instruction: 0x060c0550
     218:	06020501 	streq	r0, [r2], -r1, lsl #10
     21c:	0608052f 	streq	r0, [r8], -pc, lsr #10
     220:	4b010501 	blmi	4162c <__bss_end__+0x3750c>
     224:	03060305 	movweq	r0, #25349	; 0x6305
     228:	1c052e73 	stcne	14, cr2, [r5], {115}	; 0x73
     22c:	0e050106 	adfeqs	f0, f5, f6
     230:	0603052e 	streq	r0, [r3], -lr, lsr #10
     234:	0613054b 	ldreq	r0, [r3], -fp, asr #10
     238:	2e1a0501 	cfmul32cs	mvfx0, mvfx10, mvfx1
     23c:	052e0d05 	streq	r0, [lr, #-3333]!	; 0xfffff2fb
     240:	05500603 	ldrbeq	r0, [r0, #-1539]	; 0xfffff9fd
     244:	05010615 	streq	r0, [r1, #-1557]	; 0xfffff9eb
     248:	03052e0d 	movweq	r2, #24077	; 0x5e0d
     24c:	13054b06 	movwne	r4, #23302	; 0x5b06
     250:	0c050106 	stfeqs	f0, [r5], {6}
     254:	0601052e 	streq	r0, [r1], -lr, lsr #10
     258:	667fba03 	ldrbtvs	fp, [pc], -r3, lsl #20
     25c:	02050106 	andeq	r0, r5, #-2147483647	; 0x80000001
     260:	05054b06 	streq	r4, [r5, #-2822]	; 0xfffff4fa
     264:	06050106 	streq	r0, [r5], -r6, lsl #2
     268:	0602052f 	streq	r0, [r2], -pc, lsr #10
     26c:	060d052f 	streq	r0, [sp], -pc, lsr #10
     270:	06020501 	streq	r0, [r2], -r1, lsl #10
     274:	0605054b 	streq	r0, [r5], -fp, asr #10
     278:	06020501 	streq	r0, [r2], -r1, lsl #10
     27c:	0d05134c 	stceq	3, cr1, [r5, #-304]	; 0xfffffed0
     280:	02050106 	andeq	r0, r5, #-2147483647	; 0x80000001
     284:	2e062f06 	cdpcs	15, 0, cr2, cr6, cr6, {0}
     288:	09052f06 	stmdbeq	r5, {r1, r2, r8, r9, sl, fp, sp}
     28c:	0a050106 	beq	1406ac <__bss_end__+0x13658c>
     290:	33010562 	movwcc	r0, #5474	; 0x1562
     294:	01064e06 	tsteq	r6, r6, lsl #28
     298:	2f060205 	svccs	0x00060205
     29c:	24051413 	strcs	r1, [r5], #-1043	; 0xfffffbed
     2a0:	29050106 	stmdbcs	r5, {r1, r2, r8}
     2a4:	2e09052e 	cfsh32cs	mvfx0, mvfx9, #30
     2a8:	2f060205 	svccs	0x00060205
     2ac:	01060d05 	tsteq	r6, r5, lsl #26
     2b0:	054a0505 	strbeq	r0, [sl, #-1285]	; 0xfffffafb
     2b4:	05500602 	ldrbeq	r0, [r0, #-1538]	; 0xfffff9fe
     2b8:	2e010609 	cfmadd32cs	mvax0, mvfx0, mvfx1, mvfx9
     2bc:	2a060305 	bcs	180ed8 <__bss_end__+0x176db8>
     2c0:	01061605 	tsteq	r6, r5, lsl #12
     2c4:	054a0e05 	strbeq	r0, [sl, #-3589]	; 0xfffff1fb
     2c8:	052f0603 	streq	r0, [pc, #-1539]!	; fffffccd <__bss_end__+0xffff5bad>
     2cc:	0501060f 	streq	r0, [r1, #-1551]	; 0xfffff9f1
     2d0:	056d0604 	strbeq	r0, [sp, #-1540]!	; 0xfffff9fc
     2d4:	05010607 	streq	r0, [r1, #-1543]	; 0xfffff9f9
     2d8:	05340605 	ldreq	r0, [r4, #-1541]!	; 0xfffff9fb
     2dc:	0501060f 	streq	r0, [r1, #-1551]	; 0xfffff9f1
     2e0:	054b0605 	strbeq	r0, [fp, #-1541]	; 0xfffff9fb
     2e4:	05010607 	streq	r0, [r1, #-1543]	; 0xfffff9f9
     2e8:	052f0605 	streq	r0, [pc, #-1541]!	; fffffceb <__bss_end__+0xffff5bcb>
     2ec:	0501060f 	streq	r0, [r1, #-1551]	; 0xfffff9f1
     2f0:	05300604 	ldreq	r0, [r0, #-1540]!	; 0xfffff9fc
     2f4:	0501060a 	streq	r0, [r1, #-1546]	; 0xfffff9f6
     2f8:	054b0604 	strbeq	r0, [fp, #-1540]	; 0xfffff9fc
     2fc:	2e01060b 	cfmadd32cs	mvax0, mvfx0, mvfx1, mvfx11
     300:	03060505 	movweq	r0, #25861	; 0x6505
     304:	18052e77 	stmdane	r5, {r0, r1, r2, r4, r5, r6, r9, sl, fp, sp}
     308:	12050106 	andne	r0, r5, #-2147483647	; 0x80000001
     30c:	061a052e 	ldreq	r0, [sl], -lr, lsr #10
     310:	054a7a03 	strbeq	r7, [sl, #-2563]	; 0xfffff5fd
     314:	20050118 	andcs	r0, r5, r8, lsl r1
     318:	27050106 	strcs	r0, [r5, -r6, lsl #2]
     31c:	0603052e 	streq	r0, [r3], -lr, lsr #10
     320:	060b0530 			; <UNDEFINED> instruction: 0x060b0530
     324:	2e060501 	cfsh32cs	mvfx0, mvfx6, #1
     328:	03060305 	movweq	r0, #25349	; 0x6305
     32c:	09054a0f 	stmdbeq	r5, {r0, r1, r2, r3, r9, fp, lr}
     330:	06050106 	streq	r0, [r5], -r6, lsl #2
     334:	0604054a 	streq	r0, [r4], -sl, asr #10
     338:	060d054c 	streq	r0, [sp], -ip, asr #10
     33c:	07052e01 	streq	r2, [r5, -r1, lsl #28]
     340:	06022e2e 	streq	r2, [r2], -lr, lsr #28
     344:	75010100 	strvc	r0, [r1, #-256]	; 0xffffff00
     348:	03000000 	movweq	r0, #0
     34c:	00005300 	andeq	r5, r0, r0, lsl #6
     350:	fb010200 	blx	40b5a <__bss_end__+0x36a3a>
     354:	01000d0e 	tsteq	r0, lr, lsl #26
     358:	00010101 	andeq	r0, r1, r1, lsl #2
     35c:	00010000 	andeq	r0, r1, r0
     360:	552f0100 	strpl	r0, [pc, #-256]!	; 268 <__code_start__-0x7d98>
     364:	73726573 	cmnvc	r2, #482344960	; 0x1cc00000
     368:	6c696d2f 	stclvs	13, cr6, [r9], #-188	; 0xffffff44
     36c:	532f7365 			; <UNDEFINED> instruction: 0x532f7365
     370:	6372756f 	cmnvs	r2, #465567744	; 0x1bc00000
     374:	73632f65 	cmnvc	r3, #404	; 0x194
     378:	6c303432 	cfldrsvs	mvf3, [r0], #-200	; 0xffffff38
     37c:	696c2f78 	stmdbvs	ip!, {r3, r4, r5, r6, r8, r9, sl, fp, sp}^
     380:	2f697062 	svccs	0x00697062
     384:	6c636e69 	stclvs	14, cr6, [r3], #-420	; 0xfffffe5c
     388:	00656475 	rsbeq	r6, r5, r5, ror r4
     38c:	2d697000 	stclcs	0, cr7, [r9, #-0]
     390:	6b726273 	blvs	1c98d64 <__bss_end__+0x1c8ec44>
     394:	0000632e 	andeq	r6, r0, lr, lsr #6
     398:	70720000 	rsbsvc	r0, r2, r0
     39c:	00682e69 	rsbeq	r2, r8, r9, ror #28
     3a0:	00000001 	andeq	r0, r0, r1
     3a4:	05001c05 	streq	r1, [r0, #-3077]	; 0xfffff3fb
     3a8:	0082b402 	addeq	fp, r2, r2, lsl #8
     3ac:	01061500 	tsteq	r6, r0, lsl #10
     3b0:	2f060505 	svccs	0x00060505
     3b4:	01060c05 	tsteq	r6, r5, lsl #24
     3b8:	022f0105 	eoreq	r0, pc, #1073741825	; 0x40000001
     3bc:	01010002 	tsteq	r1, r2
     3c0:	00000120 	andeq	r0, r0, r0, lsr #2
     3c4:	00db0003 	sbcseq	r0, fp, r3
     3c8:	01020000 	mrseq	r0, (UNDEF: 2)
     3cc:	000d0efb 	strdeq	r0, [sp], -fp
     3d0:	01010101 	tsteq	r1, r1, lsl #2
     3d4:	01000000 	mrseq	r0, (UNDEF: 0)
     3d8:	2e010000 	cdpcs	0, 0, cr0, cr1, cr0, {0}
     3dc:	62696c2f 	rsbvs	r6, r9, #12032	; 0x2f00
     3e0:	6f2f0063 	svcvs	0x002f0063
     3e4:	682f7470 	stmdavs	pc!, {r4, r5, r6, sl, ip, sp, lr}	; <UNPREDICTABLE>
     3e8:	62656d6f 	rsbvs	r6, r5, #7104	; 0x1bc0
     3ec:	2f776572 	svccs	0x00776572
     3f0:	6c6c6543 	cfstr64vs	mvdx6, [ip], #-268	; 0xfffffef4
     3f4:	612f7261 			; <UNDEFINED> instruction: 0x612f7261
     3f8:	6e2d6d72 	mcrvs	13, 1, r6, cr13, cr2, {3}
     3fc:	2d656e6f 	stclcs	14, cr6, [r5, #-444]!	; 0xfffffe44
     400:	69626165 	stmdbvs	r2!, {r0, r2, r5, r6, r8, sp, lr}^
     404:	392f392d 	stmdbcc	pc!, {r0, r2, r3, r5, r8, fp, ip, sp}	; <UNPREDICTABLE>
     408:	3130322d 	teqcc	r0, sp, lsr #4
     40c:	2d347139 	ldfcss	f7, [r4, #-228]!	; 0xffffff1c
     410:	30317363 	eorscc	r7, r1, r3, ror #6
     414:	6c2f6537 	cfstr32vs	mvfx6, [pc], #-220	; 340 <__code_start__-0x7cc0>
     418:	672f6269 	strvs	r6, [pc, -r9, ror #4]!
     41c:	612f6363 			; <UNDEFINED> instruction: 0x612f6363
     420:	6e2d6d72 	mcrvs	13, 1, r6, cr13, cr2, {3}
     424:	2d656e6f 	stclcs	14, cr6, [r5, #-444]!	; 0xfffffe44
     428:	69626165 	stmdbvs	r2!, {r0, r2, r5, r6, r8, sp, lr}^
     42c:	322e392f 	eorcc	r3, lr, #770048	; 0xbc000
     430:	692f312e 	stmdbvs	pc!, {r1, r2, r3, r5, r8, ip, sp}	; <UNPREDICTABLE>
     434:	756c636e 	strbvc	r6, [ip, #-878]!	; 0xfffffc92
     438:	2f006564 	svccs	0x00006564
     43c:	72657355 	rsbvc	r7, r5, #1409286145	; 0x54000001
     440:	696d2f73 	stmdbvs	sp!, {r0, r1, r4, r5, r6, r8, r9, sl, fp, sp}^
     444:	2f73656c 	svccs	0x0073656c
     448:	72756f53 	rsbsvc	r6, r5, #332	; 0x14c
     44c:	632f6563 			; <UNDEFINED> instruction: 0x632f6563
     450:	30343273 	eorscc	r3, r4, r3, ror r2
     454:	6c2f786c 	stcvs	8, cr7, [pc], #-432	; 2ac <__code_start__-0x7d54>
     458:	69706269 	ldmdbvs	r0!, {r0, r3, r5, r6, r9, sp, lr}^
     45c:	636e692f 	cmnvs	lr, #770048	; 0xbc000
     460:	6564756c 	strbvs	r7, [r4, #-1388]!	; 0xfffffa94
     464:	72700000 	rsbsvc	r0, r0, #0, 0
     468:	6b746e69 	blvs	1d1be14 <__bss_end__+0x1d11cf4>
     46c:	0100632e 	tsteq	r0, lr, lsr #6
     470:	74730000 	ldrbtvc	r0, [r3], #-0
     474:	67726164 	ldrbvs	r6, [r2, -r4, ror #2]!
     478:	0200682e 	andeq	r6, r0, #3014656	; 0x2e0000
     47c:	70720000 	rsbsvc	r0, r2, r0
     480:	00682e69 	rsbeq	r2, r8, r9, ror #28
     484:	3c000003 	stccc	0, cr0, [r0], {3}
     488:	6c697562 	cfstr64vs	mvdx7, [r9], #-392	; 0xfffffe78
     48c:	6e692d74 	mcrvs	13, 3, r2, cr9, cr4, {3}
     490:	0000003e 	andeq	r0, r0, lr, lsr r0
     494:	2d617600 	stclcs	6, cr7, [r1, #-0]
     498:	6e697270 	mcrvs	2, 3, r7, cr9, cr0, {3}
     49c:	682e6b74 	stmdavs	lr!, {r2, r4, r5, r6, r8, r9, fp, sp, lr}
     4a0:	00000100 	andeq	r0, r0, r0, lsl #2
     4a4:	00220500 	eoreq	r0, r2, r0, lsl #10
     4a8:	82c00205 	sbchi	r0, r0, #1342177280	; 0x50000000
     4ac:	05170000 	ldreq	r0, [r7, #-0]
     4b0:	14131405 	ldrne	r1, [r3], #-1029	; 0xfffffbfb
     4b4:	0d062205 	sfmeq	f2, 4, [r6, #-20]	; 0xffffffec
     4b8:	05501205 	ldrbeq	r1, [r0, #-517]	; 0xfffffdfb
     4bc:	2e7a0322 	cdpcs	3, 7, cr0, cr10, cr2, {1}
     4c0:	05330505 	ldreq	r0, [r3, #-1285]!	; 0xfffffafb
     4c4:	05052f12 	streq	r2, [r5, #-3858]	; 0xfffff0ee
     4c8:	06090565 	streq	r0, [r9], -r5, ror #10
     4cc:	0612052f 	ldreq	r0, [r2], -pc, lsr #10
     4d0:	06050501 	streq	r0, [r5], -r1, lsl #10
     4d4:	4a06164b 	bmi	185e08 <__bss_end__+0x17bce8>
     4d8:	01055006 	tsteq	r5, r6
     4dc:	02661306 	rsbeq	r1, r6, #402653184	; 0x18000000
     4e0:	01010008 	tsteq	r1, r8
     4e4:	000000a0 	andeq	r0, r0, r0, lsr #1
     4e8:	00570003 	subseq	r0, r7, r3
     4ec:	01020000 	mrseq	r0, (UNDEF: 2)
     4f0:	000d0efb 	strdeq	r0, [sp], -fp
     4f4:	01010101 	tsteq	r1, r1, lsl #2
     4f8:	01000000 	mrseq	r0, (UNDEF: 0)
     4fc:	2e010000 	cdpcs	0, 0, cr0, cr1, cr0, {0}
     500:	62696c2f 	rsbvs	r6, r9, #12032	; 0x2f00
     504:	552f0063 	strpl	r0, [pc, #-99]!	; 4a9 <__code_start__-0x7b57>
     508:	73726573 	cmnvc	r2, #482344960	; 0x1cc00000
     50c:	6c696d2f 	stclvs	13, cr6, [r9], #-188	; 0xffffff44
     510:	532f7365 			; <UNDEFINED> instruction: 0x532f7365
     514:	6372756f 	cmnvs	r2, #465567744	; 0x1bc00000
     518:	73632f65 	cmnvc	r3, #404	; 0x194
     51c:	6c303432 	cfldrsvs	mvf3, [r0], #-200	; 0xffffff38
     520:	696c2f78 	stmdbvs	ip!, {r3, r4, r5, r6, r8, r9, sl, fp, sp}^
     524:	2f697062 	svccs	0x00697062
     528:	6c636e69 	stclvs	14, cr6, [r3], #-420	; 0xfffffe5c
     52c:	00656475 	rsbeq	r6, r5, r5, ror r4
     530:	74757000 	ldrbtvc	r7, [r5], #-0
     534:	00632e6b 	rsbeq	r2, r3, fp, ror #28
     538:	72000001 	andvc	r0, r0, #1, 0
     53c:	682e6970 	stmdavs	lr!, {r4, r5, r6, r8, fp, sp, lr}
     540:	00000200 	andeq	r0, r0, r0, lsl #4
     544:	00220500 	eoreq	r0, r2, r0, lsl #10
     548:	83180205 	tsthi	r8, #1342177280	; 0x50000000
     54c:	05150000 	ldreq	r0, [r5, #-0]
     550:	22051305 	andcs	r1, r5, #335544320	; 0x14000000
     554:	052e1106 	streq	r1, [lr, #-262]!	; 0xfffffefa
     558:	052f060b 	streq	r0, [pc, #-1547]!	; ffffff55 <__bss_end__+0xffff5e35>
     55c:	052e0605 	streq	r0, [lr, #-1541]!	; 0xfffff9fb
     560:	04020009 	streq	r0, [r2], #-9
     564:	05670602 	strbeq	r0, [r7, #-1538]!	; 0xfffff9fe
     568:	0402000f 	streq	r0, [r2], #-15
     56c:	0b054902 	bleq	15297c <__bss_end__+0x14885c>
     570:	02040200 	andeq	r0, r4, #0, 4
     574:	00050501 	andeq	r0, r5, r1, lsl #10
     578:	06020402 	streq	r0, [r2], -r2, lsl #8
     57c:	054e062e 	strbeq	r0, [lr, #-1582]	; 0xfffff9d2
     580:	02130601 	andseq	r0, r3, #1048576	; 0x100000
     584:	01010006 	tsteq	r1, r6
     588:	000008fa 	strdeq	r0, [r0], -sl
     58c:	00f10003 	rscseq	r0, r1, r3
     590:	01020000 	mrseq	r0, (UNDEF: 2)
     594:	000d0efb 	strdeq	r0, [sp], -fp
     598:	01010101 	tsteq	r1, r1, lsl #2
     59c:	01000000 	mrseq	r0, (UNDEF: 0)
     5a0:	2e010000 	cdpcs	0, 0, cr0, cr1, cr0, {0}
     5a4:	62696c2f 	rsbvs	r6, r9, #12032	; 0x2f00
     5a8:	6f2f0063 	svcvs	0x002f0063
     5ac:	682f7470 	stmdavs	pc!, {r4, r5, r6, sl, ip, sp, lr}	; <UNPREDICTABLE>
     5b0:	62656d6f 	rsbvs	r6, r5, #7104	; 0x1bc0
     5b4:	2f776572 	svccs	0x00776572
     5b8:	6c6c6543 	cfstr64vs	mvdx6, [ip], #-268	; 0xfffffef4
     5bc:	612f7261 			; <UNDEFINED> instruction: 0x612f7261
     5c0:	6e2d6d72 	mcrvs	13, 1, r6, cr13, cr2, {3}
     5c4:	2d656e6f 	stclcs	14, cr6, [r5, #-444]!	; 0xfffffe44
     5c8:	69626165 	stmdbvs	r2!, {r0, r2, r5, r6, r8, sp, lr}^
     5cc:	392f392d 	stmdbcc	pc!, {r0, r2, r3, r5, r8, fp, ip, sp}	; <UNPREDICTABLE>
     5d0:	3130322d 	teqcc	r0, sp, lsr #4
     5d4:	2d347139 	ldfcss	f7, [r4, #-228]!	; 0xffffff1c
     5d8:	30317363 	eorscc	r7, r1, r3, ror #6
     5dc:	6c2f6537 	cfstr32vs	mvfx6, [pc], #-220	; 508 <__code_start__-0x7af8>
     5e0:	672f6269 	strvs	r6, [pc, -r9, ror #4]!
     5e4:	612f6363 			; <UNDEFINED> instruction: 0x612f6363
     5e8:	6e2d6d72 	mcrvs	13, 1, r6, cr13, cr2, {3}
     5ec:	2d656e6f 	stclcs	14, cr6, [r5, #-444]!	; 0xfffffe44
     5f0:	69626165 	stmdbvs	r2!, {r0, r2, r5, r6, r8, sp, lr}^
     5f4:	322e392f 	eorcc	r3, lr, #770048	; 0xbc000
     5f8:	692f312e 	stmdbvs	pc!, {r1, r2, r3, r5, r8, ip, sp}	; <UNPREDICTABLE>
     5fc:	756c636e 	strbvc	r6, [ip, #-878]!	; 0xfffffc92
     600:	2f006564 	svccs	0x00006564
     604:	72657355 	rsbvc	r7, r5, #1409286145	; 0x54000001
     608:	696d2f73 	stmdbvs	sp!, {r0, r1, r4, r5, r6, r8, r9, sl, fp, sp}^
     60c:	2f73656c 	svccs	0x0073656c
     610:	72756f53 	rsbsvc	r6, r5, #332	; 0x14c
     614:	632f6563 			; <UNDEFINED> instruction: 0x632f6563
     618:	30343273 	eorscc	r3, r4, r3, ror r2
     61c:	6c2f786c 	stcvs	8, cr7, [pc], #-432	; 474 <__code_start__-0x7b8c>
     620:	69706269 	ldmdbvs	r0!, {r0, r3, r5, r6, r9, sp, lr}^
     624:	636e692f 	cmnvs	lr, #770048	; 0xbc000
     628:	6564756c 	strbvs	r7, [r4, #-1388]!	; 0xfffffa94
     62c:	61760000 	cmnvs	r6, r0
     630:	6972702d 	ldmdbvs	r2!, {r0, r2, r3, r5, ip, sp, lr}^
     634:	2e6b746e 	cdpcs	4, 6, cr7, cr11, cr14, {3}
     638:	00010063 	andeq	r0, r1, r3, rrx
     63c:	64747300 	ldrbtvs	r7, [r4], #-768	; 0xfffffd00
     640:	2d746e69 	ldclcs	14, cr6, [r4, #-420]!	; 0xfffffe5c
     644:	2e636367 	cdpcs	3, 6, cr6, cr3, cr7, {3}
     648:	00020068 	andeq	r0, r2, r8, rrx
     64c:	69707200 	ldmdbvs	r0!, {r9, ip, sp, lr}^
     650:	0300682e 	movweq	r6, #2094	; 0x82e
     654:	70720000 	rsbsvc	r0, r2, r0
     658:	6e692d69 	cdpvs	13, 6, cr2, cr9, cr9, {3}
     65c:	6e726574 	mrcvs	5, 3, r6, cr2, cr4, {3}
     660:	682e6c61 	stmdavs	lr!, {r0, r5, r6, sl, fp, sp, lr}
     664:	00000300 	andeq	r0, r0, r0, lsl #6
     668:	61647473 	smcvs	18243	; 0x4743
     66c:	682e6772 	stmdavs	lr!, {r1, r4, r5, r6, r8, r9, sl, sp, lr}
     670:	00000200 	andeq	r0, r0, r0, lsl #4
     674:	6975623c 	ldmdbvs	r5!, {r2, r3, r4, r5, r9, sp, lr}^
     678:	692d746c 	pushvs	{r2, r3, r5, r6, sl, ip, sp, lr}
     67c:	00003e6e 	andeq	r3, r0, lr, ror #28
     680:	05000000 	streq	r0, [r0, #-0]
     684:	02050001 	andeq	r0, r5, #1, 0
     688:	00008350 	andeq	r8, r0, r0, asr r3
     68c:	0100c803 	tsteq	r0, r3, lsl #16
     690:	05140205 	ldreq	r0, [r4, #-517]	; 0xfffffdfb
     694:	05100601 	ldreq	r0, [r0, #-1537]	; 0xfffff9ff
     698:	01053004 	tsteq	r5, r4
     69c:	04054a2c 	streq	r4, [r5], #-2604	; 0xfffff5d4
     6a0:	06020530 			; <UNDEFINED> instruction: 0x06020530
     6a4:	0b051331 	bleq	145370 <__bss_end__+0x13b250>
     6a8:	02052e06 	andeq	r2, r5, #96	; 0x60
     6ac:	09053006 	stmdbeq	r5, {r1, r2, ip, sp}
     6b0:	0d240206 	sfmeq	f0, 4, [r4, #-24]!	; 0xffffffe8
     6b4:	0d052e2e 	stceq	14, cr2, [r5, #-184]	; 0xffffff48
     6b8:	4a170306 	bmi	5c12d8 <__bss_end__+0x5b71b8>
     6bc:	05131105 	ldreq	r1, [r3, #-261]	; 0xfffffefb
     6c0:	0501062d 	streq	r0, [r1, #-1581]	; 0xfffff9d3
     6c4:	0d052e16 	stceq	14, cr2, [r5, #-88]	; 0xffffffa8
     6c8:	2d16052f 	cfldr32cs	mvfx0, [r6, #-188]	; 0xffffff44
     6cc:	2f061405 	svccs	0x00061405
     6d0:	01061705 	tsteq	r6, r5, lsl #14
     6d4:	062e0d05 	strteq	r0, [lr], -r5, lsl #26
     6d8:	0612052f 	ldreq	r0, [r2], -pc, lsr #10
     6dc:	2d2f2e01 	stccs	14, cr2, [pc, #-4]!	; 6e0 <__code_start__-0x7920>
     6e0:	2f060d05 	svccs	0x00060d05
     6e4:	01061205 	tsteq	r6, r5, lsl #4
     6e8:	2f061905 	svccs	0x00061905
     6ec:	11030405 	tstne	r3, r5, lsl #8
     6f0:	02050101 	andeq	r0, r5, #1073741824	; 0x40000000
     6f4:	030e0515 	movweq	r0, #58645	; 0xe515
     6f8:	05017fb2 	streq	r7, [r1, #-4018]	; 0xfffff04e
     6fc:	06051302 	streq	r1, [r5], -r2, lsl #6
     700:	02050106 	andeq	r0, r5, #-2147483647	; 0x80000001
     704:	08053006 	stmdaeq	r5, {r1, r2, ip, sp}
     708:	06020501 	streq	r0, [r2], -r1, lsl #10
     70c:	08054a01 	stmdaeq	r5, {r0, r9, fp, lr}
     710:	03059108 	movweq	r9, #20744	; 0x5108
     714:	08054a06 	stmdaeq	r5, {r1, r2, r9, fp, lr}
     718:	15050106 	strne	r0, [r5, #-262]	; 0xfffffefa
     71c:	08052d06 	stmdaeq	r5, {r1, r2, r8, sl, fp, sp}
     720:	d7030501 	strle	r0, [r3, -r1, lsl #10]
     724:	01060805 	tsteq	r6, r5, lsl #16
     728:	052d1805 	streq	r1, [sp, #-2053]!	; 0xfffff7fb
     72c:	08052e02 	stmdaeq	r5, {r1, r9, sl, fp, sp}
     730:	0615052f 	ldreq	r0, [r5], -pc, lsr #10
     734:	0108052d 	tsteq	r8, sp, lsr #10
     738:	01060205 	tsteq	r6, r5, lsl #4
     73c:	2f060305 	svccs	0x00060305
     740:	11061805 	tstne	r6, r5, lsl #16
     744:	052e0205 	streq	r0, [lr, #-517]!	; 0xfffffdfb
     748:	15052f08 	strne	r2, [r5, #-3848]	; 0xfffff0f8
     74c:	08052d06 	stmdaeq	r5, {r1, r2, r8, sl, fp, sp}
     750:	13030501 	movwne	r0, #13569	; 0x3501
     754:	01060805 	tsteq	r6, r5, lsl #16
     758:	2d061505 	cfstr32cs	mvfx1, [r6, #-20]	; 0xffffffec
     75c:	06010805 	streq	r0, [r1], -r5, lsl #16
     760:	06020501 	streq	r0, [r2], -r1, lsl #10
     764:	060505a0 	streq	r0, [r5], -r0, lsr #11
     768:	36040501 	strcc	r0, [r4], -r1, lsl #10
     76c:	052f1105 	streq	r1, [pc, #-261]!	; 66f <__code_start__-0x7991>
     770:	02052e09 	andeq	r2, r5, #144	; 0x90
     774:	03050533 	movweq	r0, #21811	; 0x5533
     778:	02052e72 	andeq	r2, r5, #1824	; 0x720
     77c:	01062f06 	tsteq	r6, r6, lsl #30
     780:	16060e05 	strne	r0, [r6], -r5, lsl #28
     784:	13140205 	tstne	r4, #1342177280	; 0x50000000
     788:	05130305 	ldreq	r0, [r3, #-773]	; 0xfffffcfb
     78c:	05151402 	ldreq	r1, [r5, #-1026]	; 0xfffffbfe
     790:	0205010b 	andeq	r0, r5, #-1073741822	; 0xc0000002
     794:	052e0106 	streq	r0, [lr, #-262]!	; 0xfffffefa
     798:	05670603 	strbeq	r0, [r7, #-1539]!	; 0xfffff9fd
     79c:	0501060a 	streq	r0, [r1, #-1546]	; 0xfffff9f6
     7a0:	0a052d02 	beq	14bbb0 <__bss_end__+0x141a90>
     7a4:	0617052f 	ldreq	r0, [r7], -pc, lsr #10
     7a8:	010b052d 	tsteq	fp, sp, lsr #10
     7ac:	01060205 	tsteq	r6, r5, lsl #4
     7b0:	2e4c0905 	vmlacs.f16	s1, s24, s10	; <UNPREDICTABLE>
     7b4:	2e060205 	cdpcs	2, 0, cr0, cr6, cr5, {0}
     7b8:	01060905 	tsteq	r6, r5, lsl #18
     7bc:	30060205 	andcc	r0, r6, r5, lsl #4
     7c0:	01050106 	tsteq	r5, r6, lsl #2
     7c4:	05013803 	streq	r3, [r1, #-2051]	; 0xfffff7fd
     7c8:	4a4f0309 	bmi	13c13f4 <__bss_end__+0x13b72d4>
     7cc:	19052e2e 	stmdbne	r5, {r1, r2, r3, r5, r9, sl, fp, sp}
     7d0:	4a270306 	bmi	9c13f0 <__bss_end__+0x9b72d0>
     7d4:	05131a05 	ldreq	r1, [r3, #-2565]	; 0xfffff5fb
     7d8:	05010628 	streq	r0, [r1, #-1576]	; 0xfffff9d8
     7dc:	04052e1f 	streq	r2, [r5], #-3615	; 0xfffff1e1
     7e0:	2d1f052f 	cfldr32cs	mvfx0, [pc, #-188]	; 72c <__code_start__-0x78d4>
     7e4:	2f060b05 	svccs	0x00060b05
     7e8:	01060e05 	tsteq	r6, r5, lsl #28
     7ec:	052e0405 	streq	r0, [lr, #-1029]!	; 0xfffffbfb
     7f0:	59030602 	stmdbpl	r3, {r1, r9, sl}
     7f4:	0b05134a 	bleq	145524 <__bss_end__+0x13b404>
     7f8:	02052e06 	andeq	r2, r5, #96	; 0x60
     7fc:	09053006 	stmdbeq	r5, {r1, r2, ip, sp}
     800:	0d240206 	sfmeq	f0, 4, [r4, #-24]!	; 0xffffffe8
     804:	36060405 	strcc	r0, [r6], -r5, lsl #8
     808:	06060513 			; <UNDEFINED> instruction: 0x06060513
     80c:	06050501 	streq	r0, [r5], -r1, lsl #10
     810:	05131367 	ldreq	r1, [r3, #-871]	; 0xfffffc99
     814:	05110609 	ldreq	r0, [r1, #-1545]	; 0xfffff9f7
     818:	0b052b0d 	bleq	14b454 <__bss_end__+0x141334>
     81c:	2c0d0530 	cfstr32cs	mvfx0, [sp], {48}	; 0x30
     820:	05351b05 	ldreq	r1, [r5, #-2821]!	; 0xfffff4fb
     824:	052d0604 	streq	r0, [sp, #-1540]!	; 0xfffff9fc
     828:	1b051305 	blne	145444 <__bss_end__+0x13b324>
     82c:	0a052e06 	beq	14c04c <__bss_end__+0x141f2c>
     830:	2f040582 	svccs	0x00040582
     834:	052e0e05 	streq	r0, [lr, #-3589]!	; 0xfffff1fb
     838:	0b05490a 	bleq	152c68 <__bss_end__+0x148b48>
     83c:	04052f06 	streq	r2, [r5], #-3846	; 0xfffff0fa
     840:	2f060106 	svccs	0x00060106
     844:	01060605 	tsteq	r6, r5, lsl #12
     848:	2f060505 	svccs	0x00060505
     84c:	01060a05 	tsteq	r6, r5, lsl #20
     850:	2e07052e 	cfsh32cs	mvfx0, mvfx7, #30
     854:	04052e2e 	streq	r2, [r5], #-3630	; 0xfffff1d2
     858:	010d0306 	tsteq	sp, r6, lsl #6
     85c:	03060205 	movweq	r0, #25093	; 0x6205
     860:	09050146 	stmdbeq	r5, {r1, r2, r6, r8}
     864:	052e3a03 	streq	r3, [lr, #-2563]!	; 0xfffff5fd
     868:	032f0604 			; <UNDEFINED> instruction: 0x032f0604
     86c:	0501010d 	streq	r0, [r1, #-269]	; 0xfffffef3
     870:	0e051502 	cfsh32eq	mvfx1, mvfx5, #2
     874:	017fb203 	cmneq	pc, r3, lsl #4
     878:	14130205 	ldrne	r0, [r3], #-517	; 0xfffffdfb
     87c:	05010805 	streq	r0, [r1, #-2053]	; 0xfffff7fb
     880:	03100606 	tsteq	r0, #6291456	; 0x600000
     884:	02052e3c 	andeq	r2, r5, #60, 28	; 0x3c0
     888:	064a4603 	strbeq	r4, [sl], -r3, lsl #12
     88c:	06050530 			; <UNDEFINED> instruction: 0x06050530
     890:	052e2e01 	streq	r2, [lr, #-3585]!	; 0xfffff1ff
     894:	064b0602 	strbeq	r0, [fp], -r2, lsl #12
     898:	060e0501 	streq	r0, [lr], -r1, lsl #10
     89c:	14020516 	strne	r0, [r2], #-1302	; 0xfffffaea
     8a0:	05151513 	ldreq	r1, [r5, #-1299]	; 0xfffffaed
     8a4:	0205010b 	andeq	r0, r5, #-1073741822	; 0xc0000002
     8a8:	30062e06 	andcc	r2, r6, r6, lsl #28
     8ac:	01060905 	tsteq	r6, r5, lsl #18
     8b0:	4c060205 	sfmmi	f0, 4, [r6], {5}
     8b4:	01050106 	tsteq	r5, r6, lsl #2
     8b8:	05013803 	streq	r3, [r1, #-2051]	; 0xfffff7fd
     8bc:	4a6e0306 	bmi	1b814dc <__bss_end__+0x1b773bc>
     8c0:	46030205 	strmi	r0, [r3], -r5, lsl #4
     8c4:	052e4a66 	streq	r4, [lr, #-2662]!	; 0xfffff59a
     8c8:	c8030604 	stmdagt	r3, {r2, r9, sl}
     8cc:	01010100 	mrseq	r0, (UNDEF: 17)
     8d0:	822e0601 	eorhi	r0, lr, #1048576	; 0x100000
     8d4:	72034a06 	andvc	r4, r3, #24576	; 0x6000
     8d8:	0609052e 	streq	r0, [r9], -lr, lsr #10
     8dc:	06040501 	streq	r0, [r4], -r1, lsl #10
     8e0:	010d032f 	tsteq	sp, pc, lsr #6
     8e4:	15020501 	strne	r0, [r2, #-1281]	; 0xfffffaff
     8e8:	b2030e05 	andlt	r0, r3, #80	; 0x50
     8ec:	0205017f 	andeq	r0, r5, #-1073741793	; 0xc000001f
     8f0:	08051413 	stmdaeq	r5, {r0, r1, r4, sl, ip}
     8f4:	06090501 	streq	r0, [r9], -r1, lsl #10
     8f8:	05011b03 	streq	r1, [r1, #-2819]	; 0xfffff4fd
     8fc:	2e630306 	cdpcs	3, 6, cr0, cr3, cr6, {0}
     900:	2e2e3c03 	cdpcs	12, 2, cr3, cr14, cr3, {0}
     904:	0648052e 	strbeq	r0, [r8], -lr, lsr #10
     908:	087fb403 	ldmdaeq	pc!, {r0, r1, sl, ip, sp, pc}^	; <UNPREDICTABLE>
     90c:	1305053c 	movwne	r0, #21820	; 0x553c
     910:	002e0601 	eoreq	r0, lr, r1, lsl #12
     914:	06020402 	streq	r0, [r2], -r2, lsl #8
     918:	0402002e 	streq	r0, [r2], #-46	; 0xffffffd2
     91c:	02000102 	andeq	r0, r0, #-2147483648	; 0x80000000
     920:	05130204 	ldreq	r0, [r3, #-516]	; 0xfffffdfc
     924:	04020011 	streq	r0, [r2], #-17	; 0xffffffef
     928:	05010602 	streq	r0, [r1, #-1538]	; 0xfffff9fe
     92c:	04020007 	streq	r0, [r2], #-7
     930:	11052f02 	tstne	r5, r2, lsl #30
     934:	02040200 	andeq	r0, r4, #0, 4
     938:	0005052d 	andeq	r0, r5, sp, lsr #10
     93c:	06020402 	streq	r0, [r2], -r2, lsl #8
     940:	0009052f 	andeq	r0, r9, pc, lsr #10
     944:	13020402 	movwne	r0, #9218	; 0x2402
     948:	02000e05 	andeq	r0, r0, #80	; 0x50
     94c:	01060204 	tsteq	r6, r4, lsl #4
     950:	02000505 	andeq	r0, r0, #20971520	; 0x1400000
     954:	63060104 	movwvs	r0, #24836	; 0x6104
     958:	01040200 	mrseq	r0, R12_usr
     95c:	00480501 	subeq	r0, r8, r1, lsl #10
     960:	06010402 	streq	r0, [r1], -r2, lsl #8
     964:	00050511 	andeq	r0, r5, r1, lsl r5
     968:	2f010402 	svccs	0x00010402
     96c:	02004805 	andeq	r4, r0, #327680	; 0x50000
     970:	052d0104 	streq	r0, [sp, #-260]!	; 0xfffffefc
     974:	04020005 	streq	r0, [r2], #-5
     978:	02002f01 	andeq	r2, r0, #1, 30
     97c:	004a0104 	subeq	r0, sl, r4, lsl #2
     980:	4a010402 	bmi	41990 <__bss_end__+0x37870>
     984:	01040200 	mrseq	r0, R12_usr
     988:	40054a06 	andmi	r4, r5, r6, lsl #20
     98c:	d600e103 	strle	lr, [r0], -r3, lsl #2
     990:	09050106 	stmdbeq	r5, {r1, r2, r8}
     994:	08052e4e 	stmdaeq	r5, {r1, r2, r3, r6, r9, sl, fp, sp}
     998:	291e0530 	ldmdbcs	lr, {r4, r5, r8, sl}
     99c:	052e1205 	streq	r1, [lr, #-517]!	; 0xfffffdfb
     9a0:	0205330d 	andeq	r3, r5, #872415232	; 0x34000000
     9a4:	05054506 	streq	r4, [r5, #-1286]	; 0xfffffafa
     9a8:	14020513 	strne	r0, [r2], #-1299	; 0xfffffaed
     9ac:	05130505 	ldreq	r0, [r3, #-1285]	; 0xfffffafb
     9b0:	08051302 	stmdaeq	r5, {r1, r8, r9, ip}
     9b4:	06400501 	strbeq	r0, [r0], -r1, lsl #10
     9b8:	2e017a03 	vmlacs.f32	s14, s2, s6
     9bc:	66340d05 	ldrtvs	r0, [r4], -r5, lsl #26
     9c0:	20031105 	andcs	r1, r3, r5, lsl #2
     9c4:	04054a4a 	streq	r4, [r5], #-2634	; 0xfffff5b6
     9c8:	01620306 	cmneq	r2, r6, lsl #6
     9cc:	01060905 	tsteq	r6, r5, lsl #18
     9d0:	052e0f05 	streq	r0, [lr, #-3845]!	; 0xfffff0fb
     9d4:	052c0608 	streq	r0, [ip, #-1544]!	; 0xfffff9f8
     9d8:	052e060d 	streq	r0, [lr, #-1549]!	; 0xfffff9f3
     9dc:	05670603 	strbeq	r0, [r7, #-1539]!	; 0xfffff9fd
     9e0:	05010605 	streq	r0, [r1, #-1541]	; 0xfffff9fb
     9e4:	054d0608 	strbeq	r0, [sp, #-1544]	; 0xfffff9f8
     9e8:	0501060e 	streq	r0, [r1, #-1550]	; 0xfffff9f2
     9ec:	09052e0a 	stmdbeq	r5, {r1, r3, r9, sl, fp, sp}
     9f0:	0604052f 	streq	r0, [r4], -pc, lsr #10
     9f4:	0607052f 	streq	r0, [r7], -pc, lsr #10
     9f8:	2c0a0501 	cfstr32cs	mvfx0, [sl], {1}
     9fc:	32060405 	andcc	r0, r6, #83886080	; 0x5000000
     a00:	03062d05 	movweq	r2, #27909	; 0x6d05
     a04:	05017f98 	streq	r7, [r1, #-3992]	; 0xfffff068
     a08:	00ed0309 	rsceq	r0, sp, r9, lsl #6
     a0c:	2c0d052e 	cfstr32cs	mvfx0, [sp], {46}	; 0x2e
     a10:	052b0705 	streq	r0, [fp, #-1797]!	; 0xfffff8fb
     a14:	13300604 	teqne	r0, #4, 12	; 0x400000
     a18:	01090514 	tsteq	r9, r4, lsl r5
     a1c:	93030c05 	movwls	r0, #15365	; 0x3c05
     a20:	1d05017f 	stfnes	f0, [r5, #-508]	; 0xfffffe04
     a24:	05010601 	streq	r0, [r1, #-1537]	; 0xfffff9ff
     a28:	00ed0309 	rsceq	r0, sp, r9, lsl #6
     a2c:	06050501 	streq	r0, [r5], -r1, lsl #10
     a30:	0612052f 	ldreq	r0, [r2], -pc, lsr #10
     a34:	052d2e01 	streq	r2, [sp, #-3585]!	; 0xfffff1ff
     a38:	05052f0b 	streq	r2, [r5, #-3851]	; 0xfffff0f5
     a3c:	09052f06 	stmdbeq	r5, {r1, r2, r8, r9, sl, fp, sp}
     a40:	030c0510 	movweq	r0, #50448	; 0xc510
     a44:	05017f93 	streq	r7, [r1, #-3987]	; 0xfffff06d
     a48:	2d05011d 	stfcss	f0, [r5, #-116]	; 0xffffff8c
     a4c:	09050106 	stmdbeq	r5, {r1, r2, r8}
     a50:	2e00ed03 	cdpcs	13, 0, cr14, cr0, cr3, {0}
     a54:	4e060405 	cdpmi	4, 0, cr0, cr6, cr5, {0}
     a58:	04020001 	streq	r0, [r2], #-1
     a5c:	02004a02 	andeq	r4, r0, #8192	; 0x2000
     a60:	00010204 	andeq	r0, r1, r4, lsl #4
     a64:	15020402 	strne	r0, [r2, #-1026]	; 0xfffffbfe
     a68:	02040200 	andeq	r0, r4, #0, 4
     a6c:	12360206 	eorsne	r0, r6, #1610612736	; 0x60000000
     a70:	02040200 	andeq	r0, r4, #0, 4
     a74:	0602052e 	streq	r0, [r2], -lr, lsr #10
     a78:	0100d103 	tsteq	r0, r3, lsl #2
     a7c:	01060705 	tsteq	r6, r5, lsl #14
     a80:	0602052e 	streq	r0, [r2], -lr, lsr #10
     a84:	060b052f 	streq	r0, [fp], -pc, lsr #10
     a88:	2f010501 	svccs	0x00010501
     a8c:	03060505 	movweq	r0, #25861	; 0x6505
     a90:	09054a65 	stmdbeq	r5, {r0, r2, r5, r6, r9, fp, lr}
     a94:	05660106 	strbeq	r0, [r6, #-262]!	; 0xfffffefa
     a98:	059f0605 	ldreq	r0, [pc, #1541]	; 10a5 <__code_start__-0x6f5b>
     a9c:	01110304 	tsteq	r1, r4, lsl #6
     aa0:	01060705 	tsteq	r6, r5, lsl #14
     aa4:	31060405 	tstcc	r6, r5, lsl #8
     aa8:	05010a05 	streq	r0, [r1, #-2565]	; 0xfffff5fb
     aac:	04020013 	streq	r0, [r2], #-19	; 0xffffffed
     ab0:	052e0601 	streq	r0, [lr, #-1537]!	; 0xfffff9ff
     ab4:	04020010 	streq	r0, [r2], #-16
     ab8:	05052e01 	streq	r2, [r5, #-3585]	; 0xfffff1ff
     abc:	0a054b06 	beq	1536dc <__bss_end__+0x1495bc>
     ac0:	2d060106 	stfcss	f0, [r6, #-24]	; 0xffffffe8
     ac4:	01060405 	tsteq	r6, r5, lsl #8
     ac8:	03061105 	movweq	r1, #24837	; 0x6105
     acc:	13667fb6 	cmnne	r6, #728	; 0x2d8
     ad0:	04020001 	streq	r0, [r2], #-1
     ad4:	06ba0602 	ldrteq	r0, [sl], r2, lsl #12
     ad8:	051401ba 	ldreq	r0, [r4, #-442]	; 0xfffffe46
     adc:	2e13061a 	mrccs	6, 0, r0, cr3, cr10, {0}
     ae0:	4e11052e 	cfmul64mi	mvdx0, mvdx1, mvdx14
     ae4:	68140567 	ldmdavs	r4, {r0, r1, r2, r5, r6, r8, sl}
     ae8:	05821305 	streq	r1, [r2, #773]	; 0x305
     aec:	4a780315 	bmi	1e01748 <__bss_end__+0x1df7628>
     af0:	4b061105 	blmi	184f0c <__bss_end__+0x17adec>
     af4:	13141313 	tstne	r4, #1275068416	; 0x4c000000
     af8:	06130514 			; <UNDEFINED> instruction: 0x06130514
     afc:	06090501 	streq	r0, [r9], -r1, lsl #10
     b00:	060d052f 	streq	r0, [sp], -pc, lsr #10
     b04:	052e2e01 	streq	r2, [lr, #-3585]!	; 0xfffff1ff
     b08:	0d05bb09 	vstreq	d11, [r5, #-36]	; 0xffffffdc
     b0c:	0609059d 			; <UNDEFINED> instruction: 0x0609059d
     b10:	2f15052f 	svccs	0x0015052f
     b14:	4a750306 	bmi	1d41734 <__bss_end__+0x1d37614>
     b18:	4a2e0b03 	bmi	b8372c <__bss_end__+0xb7960c>
     b1c:	03060505 	movweq	r0, #25861	; 0x6505
     b20:	09050123 	stmdbeq	r5, {r0, r1, r5, r8}
     b24:	052e0106 	streq	r0, [lr, #-262]!	; 0xfffffefa
     b28:	03d70605 	bicseq	r0, r7, #5242880	; 0x500000
     b2c:	0e032e6e 	cdpeq	14, 0, cr2, cr3, cr14, {3}
     b30:	06090501 	streq	r0, [r9], -r1, lsl #10
     b34:	06050501 	streq	r0, [r5], -r1, lsl #10
     b38:	054a1003 	strbeq	r1, [sl, #-3]
     b3c:	7eed0301 	cdpvc	3, 14, cr0, cr13, cr1, {0}
     b40:	14020501 	strne	r0, [r2], #-1281	; 0xfffffaff
     b44:	05141315 	ldreq	r1, [r4, #-789]	; 0xfffffceb
     b48:	011a0304 	tsteq	sl, r4, lsl #6
     b4c:	01060905 	tsteq	r6, r5, lsl #18
     b50:	46030205 	strmi	r0, [r3], -r5, lsl #4
     b54:	0309052e 	movweq	r0, #38190	; 0x952e
     b58:	04052e3a 	streq	r2, [r5], #-3642	; 0xfffff1c6
     b5c:	0d032f06 	stceq	15, cr2, [r3, #-24]	; 0xffffffe8
     b60:	02050101 	andeq	r0, r5, #1073741824	; 0x40000000
     b64:	030e0515 	movweq	r0, #58645	; 0xe515
     b68:	05017fb2 	streq	r7, [r1, #-4018]	; 0xfffff04e
     b6c:	05141302 	ldreq	r1, [r4, #-770]	; 0xfffffcfe
     b70:	02050108 	andeq	r0, r5, #2
     b74:	08050106 	stmdaeq	r5, {r1, r2, r8}
     b78:	0603059f 			; <UNDEFINED> instruction: 0x0603059f
     b7c:	0501064a 	streq	r0, [r1, #-1610]	; 0xfffff9b6
     b80:	15052e08 	strne	r2, [r5, #-3592]	; 0xfffff1f8
     b84:	08052d06 	stmdaeq	r5, {r1, r2, r8, sl, fp, sp}
     b88:	2f030501 	svccs	0x00030501
     b8c:	08050106 	stmdaeq	r5, {r1, r2, r8}
     b90:	0615052e 	ldreq	r0, [r5], -lr, lsr #10
     b94:	0108052d 	tsteq	r8, sp, lsr #10
     b98:	062f0305 	strteq	r0, [pc], -r5, lsl #6
     b9c:	2e080501 	cfsh32cs	mvfx0, mvfx8, #1
     ba0:	2d061505 	cfstr32cs	mvfx1, [r6, #-20]	; 0xffffffec
     ba4:	05010805 	streq	r0, [r1, #-2053]	; 0xfffff7fb
     ba8:	01062f03 	tsteq	r6, r3, lsl #30
     bac:	052e0805 	streq	r0, [lr, #-2053]!	; 0xfffff7fb
     bb0:	052d0615 	streq	r0, [sp, #-1557]!	; 0xfffff9eb
     bb4:	03050108 	movweq	r0, #20744	; 0x5108
     bb8:	0501062f 	streq	r0, [r1, #-1583]	; 0xfffff9d1
     bbc:	15052e08 	strne	r2, [r5, #-3592]	; 0xfffff1f8
     bc0:	08052d06 	stmdaeq	r5, {r1, r2, r8, sl, fp, sp}
     bc4:	2f030501 	svccs	0x00030501
     bc8:	08050106 	stmdaeq	r5, {r1, r2, r8}
     bcc:	0615052e 	ldreq	r0, [r5], -lr, lsr #10
     bd0:	0108052d 	tsteq	r8, sp, lsr #10
     bd4:	05130305 	ldreq	r0, [r3, #-773]	; 0xfffffcfb
     bd8:	05010608 	streq	r0, [r1, #-1544]	; 0xfffff9f8
     bdc:	052d0615 	streq	r0, [sp, #-1557]!	; 0xfffff9eb
     be0:	66060108 	strvs	r0, [r6], -r8, lsl #2
     be4:	67060305 	strvs	r0, [r6, -r5, lsl #6]
     be8:	01060805 	tsteq	r6, r5, lsl #16
     bec:	052d1805 	streq	r1, [sp, #-2053]!	; 0xfffff7fb
     bf0:	08052e02 	stmdaeq	r5, {r1, r9, sl, fp, sp}
     bf4:	0615052f 	ldreq	r0, [r5], -pc, lsr #10
     bf8:	0108052d 	tsteq	r8, sp, lsr #10
     bfc:	01060205 	tsteq	r6, r5, lsl #4
     c00:	2f060305 	svccs	0x00060305
     c04:	11061805 	tstne	r6, r5, lsl #16
     c08:	052e0205 	streq	r0, [lr, #-517]!	; 0xfffffdfb
     c0c:	15052f08 	strne	r2, [r5, #-3848]	; 0xfffff0f8
     c10:	08052d06 	stmdaeq	r5, {r1, r2, r8, sl, fp, sp}
     c14:	13030501 	movwne	r0, #13569	; 0x3501
     c18:	01060805 	tsteq	r6, r5, lsl #16
     c1c:	2d061505 	cfstr32cs	mvfx1, [r6, #-20]	; 0xffffffec
     c20:	05010805 	streq	r0, [r1, #-2053]	; 0xfffff7fb
     c24:	4a140605 	bmi	502440 <__bss_end__+0x4f8320>
     c28:	2e060205 	cdpcs	2, 0, cr0, cr6, cr5, {0}
     c2c:	19060e05 	stmdbne	r6, {r0, r2, r9, sl, fp}
     c30:	052f0405 	streq	r0, [pc, #-1029]!	; 833 <__code_start__-0x77cd>
     c34:	09052f11 	stmdbeq	r5, {r0, r4, r8, r9, sl, fp, sp}
     c38:	3302054a 	movwcc	r0, #9546	; 0x254a
     c3c:	72030505 	andvc	r0, r3, #20971520	; 0x1400000
     c40:	0602052e 	streq	r0, [r2], -lr, lsr #10
     c44:	0501062f 	streq	r0, [r1, #-1583]	; 0xfffff9d1
     c48:	0516060e 	ldreq	r0, [r6, #-1550]	; 0xfffff9f2
     c4c:	05131402 	ldreq	r1, [r3, #-1026]	; 0xfffffbfe
     c50:	02051303 	andeq	r1, r5, #201326592	; 0xc000000
     c54:	0b051514 	bleq	1460ac <__bss_end__+0x13bf8c>
     c58:	06020501 	streq	r0, [r2], -r1, lsl #10
     c5c:	05662e01 	strbeq	r2, [r6, #-3585]!	; 0xfffff1ff
     c60:	052f0603 	streq	r0, [pc, #-1539]!	; 665 <__code_start__-0x799b>
     c64:	0501060a 	streq	r0, [r1, #-1546]	; 0xfffff9f6
     c68:	0a052d02 	beq	14c078 <__bss_end__+0x141f58>
     c6c:	0617052f 	ldreq	r0, [r7], -pc, lsr #10
     c70:	010b052d 	tsteq	fp, sp, lsr #10
     c74:	01060205 	tsteq	r6, r5, lsl #4
     c78:	05054a4a 	streq	r4, [r5, #-2634]	; 0xfffff5b6
     c7c:	01950306 	orrseq	r0, r5, r6, lsl #6
     c80:	06110501 	ldreq	r0, [r1], -r1, lsl #10
     c84:	017ef803 	cmneq	lr, r3, lsl #16	; <UNPREDICTABLE>
     c88:	88031b05 	stmdahi	r3, {r0, r2, r8, r9, fp, ip}
     c8c:	01054a01 	tsteq	r5, r1, lsl #20
     c90:	7ef30306 	cdpvc	3, 15, cr0, cr3, cr6, {0}
     c94:	1402052e 	strne	r0, [r2], #-1326	; 0xfffffad2
     c98:	05141315 	ldreq	r1, [r4, #-789]	; 0xfffffceb
     c9c:	01220319 			; <UNDEFINED> instruction: 0x01220319
     ca0:	05131a05 	ldreq	r1, [r3, #-2565]	; 0xfffff5fb
     ca4:	05010628 	streq	r0, [r1, #-1576]	; 0xfffff9d8
     ca8:	04052e1f 	streq	r2, [r5], #-3615	; 0xfffff1e1
     cac:	4a0e052f 	bmi	382170 <__bss_end__+0x378050>
     cb0:	052d1f05 	streq	r1, [sp, #-3845]!	; 0xfffff0fb
     cb4:	052f060b 	streq	r0, [pc, #-1547]!	; 6b1 <__code_start__-0x794f>
     cb8:	06010604 	streq	r0, [r1], -r4, lsl #12
     cbc:	02050132 	andeq	r0, r5, #-2147483636	; 0x8000000c
     cc0:	030e0515 	movweq	r0, #58645	; 0xe515
     cc4:	05017fb2 	streq	r7, [r1, #-4018]	; 0xfffff04e
     cc8:	06051302 	streq	r1, [r5], -r2, lsl #6
     ccc:	02050106 	andeq	r0, r5, #-2147483647	; 0x80000001
     cd0:	08053006 	stmdaeq	r5, {r1, r2, ip, sp}
     cd4:	06020501 	streq	r0, [r2], -r1, lsl #10
     cd8:	06030501 	streq	r0, [r3], -r1, lsl #10
     cdc:	08052108 	stmdaeq	r5, {r3, r8, sp}
     ce0:	15050106 	strne	r0, [r5, #-262]	; 0xfffffefa
     ce4:	08054906 	stmdaeq	r5, {r1, r2, r8, fp, lr}
     ce8:	d7030501 	strle	r0, [r3, -r1, lsl #10]
     cec:	01060805 	tsteq	r6, r5, lsl #16
     cf0:	052d1805 	streq	r1, [sp, #-2053]!	; 0xfffff7fb
     cf4:	08052e02 	stmdaeq	r5, {r1, r9, sl, fp, sp}
     cf8:	0615052f 	ldreq	r0, [r5], -pc, lsr #10
     cfc:	0108052d 	tsteq	r8, sp, lsr #10
     d00:	01060205 	tsteq	r6, r5, lsl #4
     d04:	2f060305 	svccs	0x00060305
     d08:	11061805 	tstne	r6, r5, lsl #16
     d0c:	052e0205 	streq	r0, [lr, #-517]!	; 0xfffffdfb
     d10:	15052f08 	strne	r2, [r5, #-3848]	; 0xfffff0f8
     d14:	08052d06 	stmdaeq	r5, {r1, r2, r8, sl, fp, sp}
     d18:	13030501 	movwne	r0, #13569	; 0x3501
     d1c:	01060805 	tsteq	r6, r5, lsl #16
     d20:	2d061505 	cfstr32cs	mvfx1, [r6, #-20]	; 0xffffffec
     d24:	05010805 	streq	r0, [r1, #-2053]	; 0xfffff7fb
     d28:	05140605 	ldreq	r0, [r4, #-1541]	; 0xfffff9fb
     d2c:	05660602 	strbeq	r0, [r6, #-1538]!	; 0xfffff9fe
     d30:	051a0604 	ldreq	r0, [sl, #-1540]	; 0xfffff9fc
     d34:	4a780305 	bmi	1e01950 <__bss_end__+0x1df7830>
     d38:	2f060205 	svccs	0x00060205
     d3c:	0e050106 	adfeqs	f0, f5, f6
     d40:	02051606 	andeq	r1, r5, #6291456	; 0x600000
     d44:	04051314 	streq	r1, [r5], #-788	; 0xfffffcec
     d48:	03050106 	movweq	r0, #20742	; 0x5106
     d4c:	11052f06 	tstne	r5, r6, lsl #30
     d50:	09050106 	stmdbeq	r5, {r1, r2, r8}
     d54:	0602052e 	streq	r0, [r2], -lr, lsr #10
     d58:	0b051530 	bleq	146220 <__bss_end__+0x13c100>
     d5c:	06020501 	streq	r0, [r2], -r1, lsl #10
     d60:	2e4a4a01 	vmlacs.f32	s9, s20, s2
     d64:	2f060305 	svccs	0x00060305
     d68:	01060a05 	tsteq	r6, r5, lsl #20
     d6c:	052d0205 	streq	r0, [sp, #-517]!	; 0xfffffdfb
     d70:	17052f0a 	strne	r2, [r5, -sl, lsl #30]
     d74:	0b052d06 	bleq	14c194 <__bss_end__+0x142074>
     d78:	06020501 	streq	r0, [r2], -r1, lsl #10
     d7c:	062e4a01 	strteq	r4, [lr], -r1, lsl #20
     d80:	06090514 			; <UNDEFINED> instruction: 0x06090514
     d84:	06020501 	streq	r0, [r2], -r1, lsl #10
     d88:	0501064c 	streq	r0, [r1, #-1612]	; 0xfffff9b4
     d8c:	98030605 	stmdals	r3, {r0, r2, r9, sl}
     d90:	052a0101 	streq	r0, [sl, #-257]!	; 0xfffffeff
     d94:	05010607 	streq	r0, [r1, #-1543]	; 0xfffff9f9
     d98:	052f0605 	streq	r0, [pc, #-1541]!	; 79b <__code_start__-0x7865>
     d9c:	2e530318 	mrccs	3, 2, r0, cr3, cr8, {0}
     da0:	01061b05 	tsteq	r6, r5, lsl #22
     da4:	05821a05 	streq	r1, [r2, #2565]	; 0xa05
     da8:	054b0609 	strbeq	r0, [fp, #-1545]	; 0xfffff9f7
     dac:	2e01060d 	cfmadd32cs	mvax0, mvfx0, mvfx1, mvfx13
     db0:	05d70905 	ldrbeq	r0, [r7, #2309]	; 0x905
     db4:	09059d0d 	stmdbeq	r5, {r0, r2, r3, r8, sl, fp, ip, pc}
     db8:	15052f06 	strne	r2, [r5, #-3846]	; 0xfffff0fa
     dbc:	06180530 			; <UNDEFINED> instruction: 0x06180530
     dc0:	66170501 	ldrvs	r0, [r7], -r1, lsl #10
     dc4:	052f1905 	streq	r1, [pc, #-2309]!	; 4c7 <__code_start__-0x7b39>
     dc8:	19054917 	stmdbne	r5, {r0, r1, r2, r4, r8, fp, lr}
     dcc:	15052f06 	strne	r2, [r5, #-3846]	; 0xfffff0fa
     dd0:	2e6f0306 	cdpcs	3, 6, cr0, cr15, cr6, {0}
     dd4:	03061905 	movweq	r1, #26885	; 0x6905
     dd8:	15054a13 	strne	r4, [r5, #-2579]	; 0xfffff5ed
     ddc:	2e6d0306 	cdpcs	3, 6, cr0, cr13, cr6, {0}
     de0:	0302054a 	movweq	r0, #9546	; 0x254a
     de4:	66017fa0 	strvs	r7, [r1], -r0, lsr #31
     de8:	01720306 	cmneq	r2, r6, lsl #6
     dec:	01060505 	tsteq	r6, r5, lsl #10
     df0:	05360405 	ldreq	r0, [r6, #-1029]!	; 0xfffffbfb
     df4:	2e780305 	cdpcs	3, 7, cr0, cr8, cr5, {0}
     df8:	2f060205 	svccs	0x00060205
     dfc:	0e050106 	adfeqs	f0, f5, f6
     e00:	02051606 	andeq	r1, r5, #6291456	; 0x600000
     e04:	04051314 	streq	r1, [r5], #-788	; 0xfffffcec
     e08:	054a0106 	strbeq	r0, [sl, #-262]	; 0xfffffefa
     e0c:	78030602 	stmdavc	r3, {r1, r9, sl}
     e10:	06050501 	streq	r0, [r5], -r1, lsl #10
     e14:	02054a01 	andeq	r4, r5, #4096	; 0x1000
     e18:	01064b06 	tsteq	r6, r6, lsl #22
     e1c:	16060e05 	strne	r0, [r6], -r5, lsl #28
     e20:	13140205 	tstne	r4, #1342177280	; 0x50000000
     e24:	0b051515 	bleq	146280 <__bss_end__+0x13c160>
     e28:	052e0601 	streq	r0, [lr, #-1537]!	; 0xfffff9ff
     e2c:	9e030611 	mcrls	6, 0, r0, cr3, cr1, {0}
     e30:	22050101 	andcs	r0, r5, #1073741824	; 0x40000000
     e34:	05050106 	streq	r0, [r5, #-262]	; 0xfffffefa
     e38:	2d22052f 	cfstr32cs	mvfx0, [r2, #-188]!	; 0xffffff44
     e3c:	2f060505 	svccs	0x00060505
     e40:	054b1105 	strbeq	r1, [fp, #-261]	; 0xfffffefb
     e44:	9e018305 	cdpls	3, 0, cr8, cr1, cr5, {0}
     e48:	012e5c03 			; <UNDEFINED> instruction: 0x012e5c03
     e4c:	0602059e 			; <UNDEFINED> instruction: 0x0602059e
     e50:	2e7ef303 	cdpcs	3, 7, cr15, cr14, cr3, {0}
     e54:	2c06052e 	cfstr32cs	mvfx0, [r6], {46}	; 0x2e
     e58:	030d054a 	movweq	r0, #54602	; 0xd54a
     e5c:	050100d8 	streq	r0, [r1, #-216]	; 0xffffff28
     e60:	04020004 	streq	r0, [r2], #-4
     e64:	11030601 	tstne	r3, r1, lsl #12
     e68:	0402004a 	streq	r0, [r2], #-74	; 0xffffffb6
     e6c:	11050101 	tstne	r5, r1, lsl #2
     e70:	9e065106 	adflss	f5, f6, f6
     e74:	17031505 	strne	r1, [r3, -r5, lsl #10]
     e78:	05ba012e 	ldreq	r0, [sl, #302]!	; 0x12e
     e7c:	2e690311 	mcrcs	3, 3, r0, cr9, cr1, {0}
     e80:	00280201 	eoreq	r0, r8, r1, lsl #4
     e84:	00870101 	addeq	r0, r7, r1, lsl #2
     e88:	00030000 	andeq	r0, r3, r0
     e8c:	00000064 	andeq	r0, r0, r4, rrx
     e90:	0efb0102 	cdpeq	1, 15, cr0, cr11, cr2, {0}
     e94:	0101000d 	tsteq	r1, sp
     e98:	00000101 	andeq	r0, r0, r1, lsl #2
     e9c:	00000100 	andeq	r0, r0, r0, lsl #2
     ea0:	732f2e01 			; <UNDEFINED> instruction: 0x732f2e01
     ea4:	66666174 			; <UNDEFINED> instruction: 0x66666174
     ea8:	6372732d 	cmnvs	r2, #-1275068416	; 0xb4000000
     eac:	73552f00 	cmpvc	r5, #0, 30
     eb0:	2f737265 	svccs	0x00737265
     eb4:	656c696d 	strbvs	r6, [ip, #-2413]!	; 0xfffff693
     eb8:	6f532f73 	svcvs	0x00532f73
     ebc:	65637275 	strbvs	r7, [r3, #-629]!	; 0xfffffd8b
     ec0:	3273632f 	rsbscc	r6, r3, #-1140850688	; 0xbc000000
     ec4:	786c3034 	stmdavc	ip!, {r2, r4, r5, ip, sp}^
     ec8:	62696c2f 	rsbvs	r6, r9, #12032	; 0x2f00
     ecc:	692f6970 	stmdbvs	pc!, {r4, r5, r6, r8, fp, sp, lr}	; <UNPREDICTABLE>
     ed0:	756c636e 	strbvc	r6, [ip, #-878]!	; 0xfffffc92
     ed4:	00006564 	andeq	r6, r0, r4, ror #10
     ed8:	61656c63 	cmnvs	r5, r3, ror #24
     edc:	65722d6e 	ldrbvs	r2, [r2, #-3438]!	; 0xfffff292
     ee0:	746f6f62 	strbtvc	r6, [pc], #-3938	; ee8 <__code_start__-0x7118>
     ee4:	0100632e 	tsteq	r0, lr, lsr #6
     ee8:	70720000 	rsbsvc	r0, r2, r0
     eec:	00682e69 	rsbeq	r2, r8, r9, ror #28
     ef0:	00000002 	andeq	r0, r0, r2
     ef4:	05001905 	streq	r1, [r0, #-2309]	; 0xfffff6fb
     ef8:	008d0402 	addeq	r0, sp, r2, lsl #8
     efc:	05051500 	streq	r1, [r5, #-1280]	; 0xfffffb00
     f00:	06190513 			; <UNDEFINED> instruction: 0x06190513
     f04:	2f05052d 	svccs	0x0005052d
     f08:	4b2f6706 	blmi	bdab28 <__bss_end__+0xbd0a08>
     f0c:	01000602 	tsteq	r0, r2, lsl #12
     f10:	00011201 	andeq	r1, r1, r1, lsl #4
     f14:	5e000300 	cdppl	3, 0, cr0, cr0, cr0, {0}
     f18:	02000000 	andeq	r0, r0, #0, 0
     f1c:	0d0efb01 	vstreq	d15, [lr, #-4]
     f20:	01010100 	mrseq	r0, (UNDEF: 17)
     f24:	00000001 	andeq	r0, r0, r1
     f28:	01000001 	tsteq	r0, r1
     f2c:	74732f2e 	ldrbtvc	r2, [r3], #-3886	; 0xfffff0d2
     f30:	2d666661 	stclcs	6, cr6, [r6, #-388]!	; 0xfffffe7c
     f34:	00637273 	rsbeq	r7, r3, r3, ror r2
     f38:	6573552f 	ldrbvs	r5, [r3, #-1327]!	; 0xfffffad1
     f3c:	6d2f7372 	stcvs	3, cr7, [pc, #-456]!	; d7c <__code_start__-0x7284>
     f40:	73656c69 	cmnvc	r5, #26880	; 0x6900
     f44:	756f532f 	strbvc	r5, [pc, #-815]!	; c1d <__code_start__-0x73e3>
     f48:	2f656372 	svccs	0x00656372
     f4c:	34327363 	ldrtcc	r7, [r2], #-867	; 0xfffffc9d
     f50:	2f786c30 	svccs	0x00786c30
     f54:	7062696c 	rsbvc	r6, r2, ip, ror #18
     f58:	6e692f69 	cdpvs	15, 6, cr2, cr9, cr9, {3}
     f5c:	64756c63 	ldrbtvs	r6, [r5], #-3171	; 0xfffff39d
     f60:	63000065 	movwvs	r0, #101	; 0x65
     f64:	72617473 	rsbvc	r7, r1, #1929379840	; 0x73000000
     f68:	00632e74 	rsbeq	r2, r3, r4, ror lr
     f6c:	72000001 	andvc	r0, r0, #1, 0
     f70:	682e6970 	stmdavs	lr!, {r4, r5, r6, r8, fp, sp, lr}
     f74:	00000200 	andeq	r0, r0, r0, lsl #4
     f78:	00100500 	andseq	r0, r0, r0, lsl #10
     f7c:	8d300205 	lfmhi	f0, 4, [r0, #-20]!	; 0xffffffec
     f80:	05150000 	ldreq	r0, [r5, #-0]
     f84:	02051305 	andeq	r1, r5, #335544320	; 0x14000000
     f88:	14050513 	strne	r0, [r5], #-1299	; 0xfffffaed
     f8c:	0e061005 	cdpeq	0, 0, cr1, cr6, cr5, {0}
     f90:	06320505 	ldrteq	r0, [r2], -r5, lsl #10
     f94:	05141330 	ldreq	r1, [r4, #-816]	; 0xfffffcd0
     f98:	0905010a 	stmdbeq	r5, {r1, r3, r8}
     f9c:	10059108 	andne	r9, r5, r8, lsl #2
     fa0:	0a050106 	beq	1413c0 <__bss_end__+0x1372a0>
     fa4:	6a10059a 	bvs	402614 <__bss_end__+0x3f84f4>
     fa8:	2d060a05 	vstrcs	s0, [r6, #-20]	; 0xffffffec
     fac:	052f0905 	streq	r0, [pc, #-2309]!	; 6af <__code_start__-0x7951>
     fb0:	05010610 	streq	r0, [r1, #-1552]	; 0xfffff9f0
     fb4:	052d060a 	streq	r0, [sp, #-1546]!	; 0xfffff9f6
     fb8:	1005bb09 	andne	fp, r5, r9, lsl #22
     fbc:	0a050106 	beq	1413dc <__bss_end__+0x1372bc>
     fc0:	09056506 	stmdbeq	r5, {r1, r2, r8, sl, sp, lr}
     fc4:	060d054b 	streq	r0, [sp], -fp, asr #10
     fc8:	2d0a0501 	cfstr32cs	mvfx0, [sl, #-4]
     fcc:	052f1005 	streq	r1, [pc, #-5]!	; fcf <__code_start__-0x7031>
     fd0:	052d060a 	streq	r0, [sp, #-1546]!	; 0xfffff9f6
     fd4:	0d052f09 	stceq	15, cr2, [r5, #-36]	; 0xffffffdc
     fd8:	0a050106 	beq	1413f8 <__bss_end__+0x1372d8>
     fdc:	2f10052d 	svccs	0x0010052d
     fe0:	2d060a05 	vstrcs	s0, [r6, #-20]	; 0xffffffec
     fe4:	052f0905 	streq	r0, [pc, #-2309]!	; 6e7 <__code_start__-0x7919>
     fe8:	0501060d 	streq	r0, [r1, #-1549]	; 0xfffff9f3
     fec:	10052d0a 	andne	r2, r5, sl, lsl #26
     ff0:	060a052f 	streq	r0, [sl], -pc, lsr #10
     ff4:	2f09052d 	svccs	0x0009052d
     ff8:	01060d05 	tsteq	r6, r5, lsl #26
     ffc:	052d0a05 	streq	r0, [sp, #-2565]!	; 0xfffff5fb
    1000:	0a052f10 	beq	14cc48 <__bss_end__+0x142b28>
    1004:	09052d06 	stmdbeq	r5, {r1, r2, r8, sl, fp, sp}
    1008:	06100513 			; <UNDEFINED> instruction: 0x06100513
    100c:	060a0501 	streq	r0, [sl], -r1, lsl #10
    1010:	1505052d 	strne	r0, [r5, #-1325]	; 0xfffffad3
    1014:	4a010132 	bmi	414e4 <__bss_end__+0x373c4>
    1018:	2f020514 	svccs	0x00020514
    101c:	03060a05 	movweq	r0, #27141	; 0x6a05
    1020:	08022e73 	stmdaeq	r2, {r0, r1, r4, r5, r6, r9, sl, fp, sp}
    1024:	7d010100 	stfvcs	f0, [r1, #-0]
    1028:	03000000 	movweq	r0, #0
    102c:	00006500 	andeq	r6, r0, r0, lsl #10
    1030:	fb010200 	blx	4183a <__bss_end__+0x3771a>
    1034:	01000d0e 	tsteq	r0, lr, lsl #26
    1038:	00010101 	andeq	r0, r1, r1, lsl #2
    103c:	00010000 	andeq	r0, r1, r0
    1040:	2f2e0100 	svccs	0x002e0100
    1044:	66617473 			; <UNDEFINED> instruction: 0x66617473
    1048:	72732d66 	rsbsvc	r2, r3, #6528	; 0x1980
    104c:	552f0063 	strpl	r0, [pc, #-99]!	; ff1 <__code_start__-0x700f>
    1050:	73726573 	cmnvc	r2, #482344960	; 0x1cc00000
    1054:	6c696d2f 	stclvs	13, cr6, [r9], #-188	; 0xffffff44
    1058:	532f7365 			; <UNDEFINED> instruction: 0x532f7365
    105c:	6372756f 	cmnvs	r2, #465567744	; 0x1bc00000
    1060:	73632f65 	cmnvc	r3, #404	; 0x194
    1064:	6c303432 	cfldrsvs	mvf3, [r0], #-200	; 0xffffff38
    1068:	696c2f78 	stmdbvs	ip!, {r3, r4, r5, r6, r8, r9, sl, fp, sp}^
    106c:	2f697062 	svccs	0x00697062
    1070:	6c636e69 	stclvs	14, cr6, [r3], #-420	; 0xfffffe5c
    1074:	00656475 	rsbeq	r6, r5, r5, ror r4
    1078:	73756300 	cmnvc	r5, #0, 6
    107c:	2d6d6f74 	stclcs	15, cr6, [sp, #-464]!	; 0xfffffe30
    1080:	64616f6c 	strbtvs	r6, [r1], #-3948	; 0xfffff094
    1084:	632e7265 			; <UNDEFINED> instruction: 0x632e7265
    1088:	00000100 	andeq	r0, r0, r0, lsl #2
    108c:	2e697072 	mcrcs	0, 3, r7, cr9, cr2, {3}
    1090:	00020068 	andeq	r0, r2, r8, rrx
    1094:	1a050000 	bne	14109c <__bss_end__+0x136f7c>
    1098:	28020500 	stmdacs	r2, {r8, sl}
    109c:	1500008e 	strne	r0, [r0, #-142]	; 0xffffff72
    10a0:	02140105 	andseq	r0, r4, #1073741825	; 0x40000001
    10a4:	01010002 	tsteq	r1, r2
    10a8:	00000114 	andeq	r0, r0, r4, lsl r1
    10ac:	005e0003 	subseq	r0, lr, r3
    10b0:	01020000 	mrseq	r0, (UNDEF: 2)
    10b4:	000d0efb 	strdeq	r0, [sp], -fp
    10b8:	01010101 	tsteq	r1, r1, lsl #2
    10bc:	01000000 	mrseq	r0, (UNDEF: 0)
    10c0:	2e010000 	cdpcs	0, 0, cr0, cr1, cr0, {0}
    10c4:	6174732f 	cmnvs	r4, pc, lsr #6
    10c8:	732d6666 			; <UNDEFINED> instruction: 0x732d6666
    10cc:	2f006372 	svccs	0x00006372
    10d0:	72657355 	rsbvc	r7, r5, #1409286145	; 0x54000001
    10d4:	696d2f73 	stmdbvs	sp!, {r0, r1, r4, r5, r6, r8, r9, sl, fp, sp}^
    10d8:	2f73656c 	svccs	0x0073656c
    10dc:	72756f53 	rsbsvc	r6, r5, #332	; 0x14c
    10e0:	632f6563 			; <UNDEFINED> instruction: 0x632f6563
    10e4:	30343273 	eorscc	r3, r4, r3, ror r2
    10e8:	6c2f786c 	stcvs	8, cr7, [pc], #-432	; f40 <__code_start__-0x70c0>
    10ec:	69706269 	ldmdbvs	r0!, {r0, r3, r5, r6, r9, sp, lr}^
    10f0:	636e692f 	cmnvs	lr, #770048	; 0xbc000
    10f4:	6564756c 	strbvs	r7, [r4, #-1388]!	; 0xfffffa94
    10f8:	65720000 	ldrbvs	r0, [r2, #-0]!
    10fc:	746f6f62 	strbtvc	r6, [pc], #-3938	; 1104 <__code_start__-0x6efc>
    1100:	0100632e 	tsteq	r0, lr, lsr #6
    1104:	70720000 	rsbsvc	r0, r2, r0
    1108:	00682e69 	rsbeq	r2, r8, r9, ror #28
    110c:	00000002 	andeq	r0, r0, r2
    1110:	05001905 	streq	r1, [r0, #-2309]	; 0xfffff6fb
    1114:	008e2c02 	addeq	r2, lr, r2, lsl #24
    1118:	010d0300 	mrseq	r0, SP_mon
    111c:	13130505 	tstne	r3, #20971520	; 0x1400000
    1120:	06130531 			; <UNDEFINED> instruction: 0x06130531
    1124:	2f010501 	svccs	0x00010501
    1128:	85061b05 	strhi	r1, [r6, #-2821]	; 0xfffff4fb
    112c:	14130505 	ldrne	r0, [r3], #-1285	; 0xfffffafb
    1130:	052f0905 	streq	r0, [pc, #-2309]!	; 833 <__code_start__-0x77cd>
    1134:	05010616 	streq	r0, [r1, #-1558]	; 0xfffff9ea
    1138:	052f0605 	streq	r0, [pc, #-1541]!	; b3b <__code_start__-0x74c5>
    113c:	0511060e 	ldreq	r0, [r1, #-1550]	; 0xfffff9f2
    1140:	01052f05 	tsteq	r5, r5, lsl #30
    1144:	0617052f 	ldreq	r0, [r7], -pc, lsr #10
    1148:	13050530 	movwne	r0, #21808	; 0x5530
    114c:	13016e03 	movwne	r6, #7683	; 0x1e03
    1150:	06170513 			; <UNDEFINED> instruction: 0x06170513
    1154:	05010f03 	streq	r0, [r1, #-3843]	; 0xfffff0fd
    1158:	2e710305 	cdpcs	3, 7, cr0, cr1, cr5, {0}
    115c:	13053106 	movwne	r3, #20742	; 0x5106
    1160:	07050106 	streq	r0, [r5, -r6, lsl #2]
    1164:	052e0d03 	streq	r0, [lr, #-3331]!	; 0xfffff2fd
    1168:	054b0609 	strbeq	r0, [fp, #-1545]	; 0xfffff9f7
    116c:	01760306 	cmneq	r6, r6, lsl #6
    1170:	14130505 	ldrne	r0, [r3], #-1285	; 0xfffffafb
    1174:	052f0905 	streq	r0, [pc, #-2309]!	; 877 <__code_start__-0x7789>
    1178:	05010616 	streq	r0, [r1, #-1558]	; 0xfffff9ea
    117c:	052f0605 	streq	r0, [pc, #-1541]!	; b7f <__code_start__-0x7481>
    1180:	0511060e 	ldreq	r0, [r1, #-1550]	; 0xfffff9f2
    1184:	062e2f05 	strteq	r2, [lr], -r5, lsl #30
    1188:	30010a03 	andcc	r0, r1, r3, lsl #20
    118c:	13134d2f 	tstne	r3, #3008	; 0xbc0
    1190:	00671513 	rsbeq	r1, r7, r3, lsl r5
    1194:	67010402 	strvs	r0, [r1, -r2, lsl #8]
    1198:	02000d05 	andeq	r0, r0, #320	; 0x140
    119c:	05010104 	streq	r0, [r1, #-260]	; 0xfffffefc
    11a0:	0402000a 	streq	r0, [r2], #-10
    11a4:	05050101 	streq	r0, [r5, #-257]	; 0xfffffeff
    11a8:	01040200 	mrseq	r0, R12_usr
    11ac:	000d0501 	andeq	r0, sp, r1, lsl #10
    11b0:	01010402 	tsteq	r1, r2, lsl #8
    11b4:	02000a05 	andeq	r0, r0, #20480	; 0x5000
    11b8:	02010104 	andeq	r0, r1, #1
    11bc:	0101000a 	tsteq	r1, sl
    11c0:	000001fa 	strdeq	r0, [r0], -sl
    11c4:	005d0003 	subseq	r0, sp, r3
    11c8:	01020000 	mrseq	r0, (UNDEF: 2)
    11cc:	000d0efb 	strdeq	r0, [sp], -fp
    11d0:	01010101 	tsteq	r1, r1, lsl #2
    11d4:	01000000 	mrseq	r0, (UNDEF: 0)
    11d8:	2e010000 	cdpcs	0, 0, cr0, cr1, cr0, {0}
    11dc:	6174732f 	cmnvs	r4, pc, lsr #6
    11e0:	732d6666 			; <UNDEFINED> instruction: 0x732d6666
    11e4:	2f006372 	svccs	0x00006372
    11e8:	72657355 	rsbvc	r7, r5, #1409286145	; 0x54000001
    11ec:	696d2f73 	stmdbvs	sp!, {r0, r1, r4, r5, r6, r8, r9, sl, fp, sp}^
    11f0:	2f73656c 	svccs	0x0073656c
    11f4:	72756f53 	rsbsvc	r6, r5, #332	; 0x14c
    11f8:	632f6563 			; <UNDEFINED> instruction: 0x632f6563
    11fc:	30343273 	eorscc	r3, r4, r3, ror r2
    1200:	6c2f786c 	stcvs	8, cr7, [pc], #-432	; 1058 <__code_start__-0x6fa8>
    1204:	69706269 	ldmdbvs	r0!, {r0, r3, r5, r6, r9, sp, lr}^
    1208:	636e692f 	cmnvs	lr, #770048	; 0xbc000
    120c:	6564756c 	strbvs	r7, [r4, #-1388]!	; 0xfffffa94
    1210:	69740000 	ldmdbvs	r4!, {}^	; <UNPREDICTABLE>
    1214:	2e72656d 	cdpcs	5, 7, cr6, cr2, cr13, {3}
    1218:	00010063 	andeq	r0, r1, r3, rrx
    121c:	69707200 	ldmdbvs	r0!, {r9, ip, sp, lr}^
    1220:	0200682e 	andeq	r6, r0, #3014656	; 0x2e0000
    1224:	05000000 	streq	r0, [r0, #-0]
    1228:	02050023 	andeq	r0, r5, #35, 0	; 0x23
    122c:	00008eb8 			; <UNDEFINED> instruction: 0x00008eb8
    1230:	13050515 	movwne	r0, #21781	; 0x5515
    1234:	01060c05 	tsteq	r6, r5, lsl #24
    1238:	6a061f05 	bvs	188e54 <__bss_end__+0x17ed34>
    123c:	05150505 	ldreq	r0, [r5, #-1285]	; 0xfffffafb
    1240:	050f061f 	streq	r0, [pc, #-1567]	; c29 <__code_start__-0x73d7>
    1244:	2f063105 	svccs	0x00063105
    1248:	77030a05 	strvc	r0, [r3, -r5, lsl #20]
    124c:	13050501 	movwne	r0, #21761	; 0x5501
    1250:	01060c05 	tsteq	r6, r5, lsl #24
    1254:	06050566 	streq	r0, [r5], -r6, ror #10
    1258:	2f010903 	svccs	0x00010903
    125c:	13060105 	movwne	r0, #24837	; 0x6105
    1260:	68061c05 	stmdavs	r6, {r0, r2, sl, fp, ip}
    1264:	05130505 	ldreq	r0, [r3, #-1285]	; 0xfffffafb
    1268:	0176030a 	cmneq	r6, sl, lsl #6
    126c:	05150505 	ldreq	r0, [r5, #-1285]	; 0xfffffafb
    1270:	2e18061c 	mrccs	6, 0, r0, cr8, cr12, {0}
    1274:	7a030505 	bvc	c2690 <__bss_end__+0xb8570>
    1278:	052f062e 	streq	r0, [pc, #-1582]!	; c52 <__code_start__-0x73ae>
    127c:	0177030a 	cmneq	r7, sl, lsl #6
    1280:	05130505 	ldreq	r0, [r3, #-1285]	; 0xfffffafb
    1284:	6601060c 	strvs	r0, [r1], -ip, lsl #12
    1288:	03060505 	movweq	r0, #25861	; 0x6505
    128c:	062f0109 	strteq	r0, [pc], -r9, lsl #2
    1290:	030c0501 	movweq	r0, #50433	; 0xc501
    1294:	05050176 	streq	r0, [r5, #-374]	; 0xfffffe8a
    1298:	2e0f0306 	cdpcs	3, 0, cr0, cr15, cr6, {0}
    129c:	05130905 	ldreq	r0, [r3, #-2309]	; 0xfffff6fb
    12a0:	0174030a 	cmneq	r4, sl, lsl #6
    12a4:	2f150505 	svccs	0x00150505
    12a8:	77030a05 	strvc	r0, [r3, -r5, lsl #20]
    12ac:	13050501 	movwne	r0, #21761	; 0x5501
    12b0:	01060c05 	tsteq	r6, r5, lsl #24
    12b4:	06050566 	streq	r0, [r5], -r6, ror #10
    12b8:	05010903 	streq	r0, [r1, #-2307]	; 0xfffff6fd
    12bc:	051a0611 	ldreq	r0, [sl, #-1553]	; 0xfffff9ef
    12c0:	2e780305 	cdpcs	3, 7, cr0, cr8, cr5, {0}
    12c4:	09052f06 	stmdbeq	r5, {r1, r2, r8, r9, sl, fp, sp}
    12c8:	060c0519 			; <UNDEFINED> instruction: 0x060c0519
    12cc:	061c0501 	ldreq	r0, [ip], -r1, lsl #10
    12d0:	13050587 	movwne	r0, #21895	; 0x5587
    12d4:	11061c05 	tstne	r6, r5, lsl #24
    12d8:	4a2f0505 	bmi	bc26f4 <__bss_end__+0xbb85d4>
    12dc:	03060605 	movweq	r0, #26117	; 0x6605
    12e0:	05052e76 	streq	r2, [r5, #-3702]	; 0xfffff18a
    12e4:	030a0513 	movweq	r0, #42259	; 0xa513
    12e8:	05050176 	streq	r0, [r5, #-374]	; 0xfffffe8a
    12ec:	0a052f15 	beq	14cf48 <__bss_end__+0x142e28>
    12f0:	05017703 	streq	r7, [r1, #-1795]	; 0xfffff8fd
    12f4:	0c051305 	stceq	3, cr1, [r5], {5}
    12f8:	05660106 	strbeq	r0, [r6, #-262]!	; 0xfffffefa
    12fc:	09030605 	stmdbeq	r3, {r0, r2, r9, sl}
    1300:	01062f01 	tsteq	r6, r1, lsl #30
    1304:	76030c05 	strvc	r0, [r3], -r5, lsl #24
    1308:	06050501 	streq	r0, [r5], -r1, lsl #10
    130c:	052e0f03 	streq	r0, [lr, #-3843]!	; 0xfffff0fd
    1310:	0a051309 	beq	145f3c <__bss_end__+0x13be1c>
    1314:	05017403 	streq	r7, [r1, #-1027]	; 0xfffffbfd
    1318:	052f1505 	streq	r1, [pc, #-1285]!	; e1b <__code_start__-0x71e5>
    131c:	0177030a 	cmneq	r7, sl, lsl #6
    1320:	05130505 	ldreq	r0, [r3, #-1285]	; 0xfffffafb
    1324:	6601060c 	strvs	r0, [r1], -ip, lsl #12
    1328:	03060505 	movweq	r0, #25861	; 0x6505
    132c:	11050109 	tstne	r5, r9, lsl #2
    1330:	05051a06 	streq	r1, [r5, #-2566]	; 0xfffff5fa
    1334:	062e7803 	strteq	r7, [lr], -r3, lsl #16
    1338:	1909052f 	stmdbne	r9, {r0, r1, r2, r3, r5, r8, sl}
    133c:	01060c05 	tsteq	r6, r5, lsl #24
    1340:	8a061e05 	bhi	188b5c <__bss_end__+0x17ea3c>
    1344:	05130505 	ldreq	r0, [r3, #-1285]	; 0xfffffafb
    1348:	05050e06 	streq	r0, [r5, #-3590]	; 0xfffff1fa
    134c:	061e0513 			; <UNDEFINED> instruction: 0x061e0513
    1350:	2c050514 	cfstr32cs	mvfx0, [r5], {20}
    1354:	06060566 	streq	r0, [r6], -r6, ror #10
    1358:	052e7603 	streq	r7, [lr, #-1539]!	; 0xfffff9fd
    135c:	0a051305 	beq	145f78 <__bss_end__+0x13be58>
    1360:	05017603 	streq	r7, [r1, #-1539]	; 0xfffff9fd
    1364:	052f1505 	streq	r1, [pc, #-1285]!	; e67 <__code_start__-0x7199>
    1368:	0177030a 	cmneq	r7, sl, lsl #6
    136c:	05130505 	ldreq	r0, [r3, #-1285]	; 0xfffffafb
    1370:	6601060c 	strvs	r0, [r1], -ip, lsl #12
    1374:	03060505 	movweq	r0, #25861	; 0x6505
    1378:	062f0109 	strteq	r0, [pc], -r9, lsl #2
    137c:	030c0501 	movweq	r0, #50433	; 0xc501
    1380:	05050176 	streq	r0, [r5, #-374]	; 0xfffffe8a
    1384:	2e0f0306 	cdpcs	3, 0, cr0, cr15, cr6, {0}
    1388:	05130905 	ldreq	r0, [r3, #-2309]	; 0xfffff6fb
    138c:	0174030a 	cmneq	r4, sl, lsl #6
    1390:	2f150505 	svccs	0x00150505
    1394:	77030a05 	strvc	r0, [r3, -r5, lsl #20]
    1398:	13050501 	movwne	r0, #21761	; 0x5501
    139c:	01060c05 	tsteq	r6, r5, lsl #24
    13a0:	06050566 	streq	r0, [r5], -r6, ror #10
    13a4:	05010903 	streq	r0, [r1, #-2307]	; 0xfffff6fd
    13a8:	051a0611 	ldreq	r0, [sl, #-1553]	; 0xfffff9ef
    13ac:	2e780305 	cdpcs	3, 7, cr0, cr8, cr5, {0}
    13b0:	09052f06 	stmdbeq	r5, {r1, r2, r8, r9, sl, fp, sp}
    13b4:	060c0519 			; <UNDEFINED> instruction: 0x060c0519
    13b8:	00080201 	andeq	r0, r8, r1, lsl #4
    13bc:	02040101 	andeq	r0, r4, #1073741824	; 0x40000000
    13c0:	00030000 	andeq	r0, r3, r0
    13c4:	000000c8 	andeq	r0, r0, r8, asr #1
    13c8:	0efb0102 	cdpeq	1, 15, cr0, cr11, cr2, {0}
    13cc:	0101000d 	tsteq	r1, sp
    13d0:	00000101 	andeq	r0, r0, r1, lsl #2
    13d4:	00000100 	andeq	r0, r0, r0, lsl #2
    13d8:	6f682f01 	svcvs	0x00682f01
    13dc:	652f656d 	strvs	r6, [pc, #-1389]!	; e77 <__code_start__-0x7189>
    13e0:	656c676e 	strbvs	r6, [ip, #-1902]!	; 0xfffff892
    13e4:	6c632f72 	stclvs	15, cr2, [r3], #-456	; 0xfffffe38
    13e8:	2f737361 	svccs	0x00737361
    13ec:	34317363 	ldrtcc	r7, [r1], #-867	; 0xfffffc9d
    13f0:	322d6530 	eorcc	r6, sp, #48, 10	; 0xc000000
    13f4:	6e697732 	mcrvs	7, 3, r7, cr9, cr2, {1}
    13f8:	696c2f2f 	stmdbvs	ip!, {r0, r1, r2, r3, r5, r8, r9, sl, fp, sp}^
    13fc:	2f697062 	svccs	0x00697062
    1400:	6c636e69 	stclvs	14, cr6, [r3], #-420	; 0xfffffe5c
    1404:	00656475 	rsbeq	r6, r5, r5, ror r4
    1408:	7273752f 	rsbsvc	r7, r3, #197132288	; 0xbc00000
    140c:	6168732f 	cmnvs	r8, pc, lsr #6
    1410:	672f6572 			; <UNDEFINED> instruction: 0x672f6572
    1414:	612d6363 			; <UNDEFINED> instruction: 0x612d6363
    1418:	6e2d6d72 	mcrvs	13, 1, r6, cr13, cr2, {3}
    141c:	2d656e6f 	stclcs	14, cr6, [r5, #-444]!	; 0xfffffe44
    1420:	69626165 	stmdbvs	r2!, {r0, r2, r5, r6, r8, sp, lr}^
    1424:	2e30312d 	rsfcssp	f3, f0, #5.0
    1428:	30322d33 	eorscc	r2, r2, r3, lsr sp
    142c:	312e3132 			; <UNDEFINED> instruction: 0x312e3132
    1430:	696c2f30 	stmdbvs	ip!, {r4, r5, r8, r9, sl, fp, sp}^
    1434:	63672f62 	cmnvs	r7, #392	; 0x188
    1438:	72612f63 	rsbvc	r2, r1, #396	; 0x18c
    143c:	6f6e2d6d 	svcvs	0x006e2d6d
    1440:	652d656e 	strvs	r6, [sp, #-1390]!	; 0xfffffa92
    1444:	2f696261 	svccs	0x00696261
    1448:	332e3031 			; <UNDEFINED> instruction: 0x332e3031
    144c:	692f312e 	stmdbvs	pc!, {r1, r2, r3, r5, r8, ip, sp}	; <UNPREDICTABLE>
    1450:	756c636e 	strbvc	r6, [ip, #-878]!	; 0xfffffc92
    1454:	00006564 	andeq	r6, r0, r4, ror #10
    1458:	74726175 	ldrbtvc	r6, [r2], #-373	; 0xfffffe8b
    145c:	0000632e 	andeq	r6, r0, lr, lsr #6
    1460:	61750000 	cmnvs	r5, r0
    1464:	682e7472 	stmdavs	lr!, {r1, r4, r5, r6, sl, ip, sp, lr}
    1468:	00000100 	andeq	r0, r0, r0, lsl #2
    146c:	2e697072 	mcrcs	0, 3, r7, cr9, cr2, {3}
    1470:	00010068 	andeq	r0, r1, r8, rrx
    1474:	69706700 	ldmdbvs	r0!, {r8, r9, sl, sp, lr}^
    1478:	00682e6f 	rsbeq	r2, r8, pc, ror #28
    147c:	73000001 	movwvc	r0, #1
    1480:	6e696474 	mcrvs	4, 3, r6, cr9, cr4, {3}
    1484:	63672d74 	cmnvs	r7, #116, 26	; 0x1d00
    1488:	00682e63 	rsbeq	r2, r8, r3, ror #28
    148c:	00000002 	andeq	r0, r0, r2
    1490:	05003905 	streq	r3, [r0, #-2309]	; 0xfffff6fb
    1494:	008fd402 	addeq	sp, pc, r2, lsl #8
    1498:	01300300 	teqeq	r0, r0, lsl #6
    149c:	05050106 	streq	r0, [r5, #-262]	; 0xfffffefa
    14a0:	11056706 	tstne	r5, r6, lsl #14
    14a4:	05050106 	streq	r0, [r5, #-262]	; 0xfffffefa
    14a8:	6701052e 	strvs	r0, [r1, -lr, lsr #10]
    14ac:	29063805 	stmdbcs	r6, {r0, r2, fp, ip, sp}
    14b0:	05050106 	streq	r0, [r5, #-262]	; 0xfffffefa
    14b4:	11056706 	tstne	r5, r6, lsl #14
    14b8:	05050106 	streq	r0, [r5, #-262]	; 0xfffffefa
    14bc:	6701052e 	strvs	r0, [r1, -lr, lsr #10]
    14c0:	03061605 	movweq	r1, #26117	; 0x6605
    14c4:	05052e15 	streq	r2, [r5, #-3605]	; 0xfffff1eb
    14c8:	35686735 	strbcc	r6, [r8, #-1845]!	; 0xfffff8cb
    14cc:	2e0c0368 	cdpcs	3, 0, cr0, cr12, cr8, {3}
    14d0:	69696b85 	stmdbvs	r9!, {r0, r2, r7, r8, r9, fp, sp, lr}^
    14d4:	13660c03 	cmnne	r6, #768	; 0x300
    14d8:	0105676b 	tsteq	r5, fp, ror #14
    14dc:	19052f06 	stmdbne	r5, {r1, r2, r8, r9, sl, fp, sp}
    14e0:	05250806 	streq	r0, [r5, #-2054]!	; 0xfffff7fa
    14e4:	0d053405 	cfstrseq	mvf3, [r5, #-20]	; 0xffffffec
    14e8:	01050106 	tsteq	r5, r6, lsl #2
    14ec:	0619054c 	ldreq	r0, [r9], -ip, asr #10
    14f0:	36050567 	strcc	r0, [r5], -r7, ror #10
    14f4:	01060d05 	tsteq	r6, r5, lsl #26
    14f8:	054a2805 	strbeq	r2, [sl, #-2053]	; 0xfffff7fb
    14fc:	15053001 	strne	r3, [r5, #-1]
    1500:	05058706 	streq	r8, [r5, #-1798]	; 0xfffff8fa
    1504:	09052f2f 	stmdbeq	r5, {r0, r1, r2, r3, r5, r8, r9, sl, fp, sp}
    1508:	01040200 	mrseq	r0, R12_usr
    150c:	000a0513 	andeq	r0, sl, r3, lsl r5
    1510:	11010402 	tstne	r1, r2, lsl #8
    1514:	02000c05 	andeq	r0, r0, #1280	; 0x500
    1518:	01060104 	tsteq	r6, r4, lsl #2
    151c:	02000a05 	andeq	r0, r0, #20480	; 0x5000
    1520:	052e0104 	streq	r0, [lr, #-260]!	; 0xfffffefc
    1524:	054c0605 	strbeq	r0, [ip, #-1541]	; 0xfffff9fb
    1528:	0501060e 	streq	r0, [r1, #-1550]	; 0xfffff9f2
    152c:	05054a09 	streq	r4, [r5, #-2569]	; 0xfffff5f7
    1530:	052f2f06 	streq	r2, [pc, #-3846]!	; 632 <__code_start__-0x79ce>
    1534:	05130601 	ldreq	r0, [r3, #-1537]	; 0xfffff9ff
    1538:	0667061c 			; <UNDEFINED> instruction: 0x0667061c
    153c:	06050501 	streq	r0, [r5], -r1, lsl #10
    1540:	09052f4b 	stmdbeq	r5, {r0, r1, r3, r6, r8, r9, sl, fp, sp}
    1544:	01040200 	mrseq	r0, R12_usr
    1548:	000a0513 	andeq	r0, sl, r3, lsl r5
    154c:	11010402 	tstne	r1, r2, lsl #8
    1550:	02000c05 	andeq	r0, r0, #1280	; 0x500
    1554:	01060104 	tsteq	r6, r4, lsl #2
    1558:	02000a05 	andeq	r0, r0, #20480	; 0x5000
    155c:	052e0104 	streq	r0, [lr, #-260]!	; 0xfffffefc
    1560:	674c0605 	strbvs	r0, [ip, -r5, lsl #12]
    1564:	2f060105 	svccs	0x00060105
    1568:	4c061905 			; <UNDEFINED> instruction: 0x4c061905
    156c:	052e1b05 	streq	r1, [lr, #-2821]!	; 0xfffff4fb
    1570:	31052e2a 	tstcc	r5, sl, lsr #28
    1574:	42050106 	andmi	r0, r5, #-2147483647	; 0x80000001
    1578:	061c052e 	ldreq	r0, [ip], -lr, lsr #10
    157c:	2f050531 	svccs	0x00050531
    1580:	052e0903 	streq	r0, [lr, #-2307]!	; 0xfffff6fd
    1584:	0501060e 	streq	r0, [r1, #-1550]	; 0xfffff9f2
    1588:	01054a21 	tsteq	r5, r1, lsr #20
    158c:	052e0a03 	streq	r0, [lr, #-2563]!	; 0xfffff5fd
    1590:	0568061a 	strbeq	r0, [r8, #-1562]!	; 0xfffff9e6
    1594:	04020009 	streq	r0, [r2], #-9
    1598:	0a053001 	beq	14d5a4 <__bss_end__+0x143484>
    159c:	01040200 	mrseq	r0, R12_usr
    15a0:	000c0511 	andeq	r0, ip, r1, lsl r5
    15a4:	06010402 	streq	r0, [r1], -r2, lsl #8
    15a8:	000a0501 	andeq	r0, sl, r1, lsl #10
    15ac:	2e010402 	cdpcs	4, 0, cr0, cr1, cr2, {0}
    15b0:	03061905 	movweq	r1, #26885	; 0x6905
    15b4:	05667ee8 	strbeq	r7, [r6, #-3816]!	; 0xfffff118
    15b8:	2f2f2f05 	svccs	0x002f2f05
    15bc:	06010567 	streq	r0, [r1], -r7, ror #10
    15c0:	0004022f 	andeq	r0, r4, pc, lsr #4
    15c4:	03920101 	orrseq	r0, r2, #1073741824	; 0x40000000
    15c8:	00030000 	andeq	r0, r3, r0
    15cc:	000000b7 	strheq	r0, [r0], -r7
    15d0:	0efb0102 	cdpeq	1, 15, cr0, cr11, cr2, {0}
    15d4:	0101000d 	tsteq	r1, sp
    15d8:	00000101 	andeq	r0, r0, r1, lsl #2
    15dc:	00000100 	andeq	r0, r0, r0, lsl #2
    15e0:	6f682f01 	svcvs	0x00682f01
    15e4:	652f656d 	strvs	r6, [pc, #-1389]!	; 107f <__code_start__-0x6f81>
    15e8:	656c676e 	strbvs	r6, [ip, #-1902]!	; 0xfffff892
    15ec:	6c632f72 	stclvs	15, cr2, [r3], #-456	; 0xfffffe38
    15f0:	2f737361 	svccs	0x00737361
    15f4:	34317363 	ldrtcc	r7, [r1], #-867	; 0xfffffc9d
    15f8:	322d6530 	eorcc	r6, sp, #48, 10	; 0xc000000
    15fc:	6e697732 	mcrvs	7, 3, r7, cr9, cr2, {1}
    1600:	696c2f2f 	stmdbvs	ip!, {r0, r1, r2, r3, r5, r8, r9, sl, fp, sp}^
    1604:	2f697062 	svccs	0x00697062
    1608:	6c636e69 	stclvs	14, cr6, [r3], #-420	; 0xfffffe5c
    160c:	00656475 	rsbeq	r6, r5, r5, ror r4
    1610:	7273752f 	rsbsvc	r7, r3, #197132288	; 0xbc00000
    1614:	6168732f 	cmnvs	r8, pc, lsr #6
    1618:	672f6572 			; <UNDEFINED> instruction: 0x672f6572
    161c:	612d6363 			; <UNDEFINED> instruction: 0x612d6363
    1620:	6e2d6d72 	mcrvs	13, 1, r6, cr13, cr2, {3}
    1624:	2d656e6f 	stclcs	14, cr6, [r5, #-444]!	; 0xfffffe44
    1628:	69626165 	stmdbvs	r2!, {r0, r2, r5, r6, r8, sp, lr}^
    162c:	2e30312d 	rsfcssp	f3, f0, #5.0
    1630:	30322d33 	eorscc	r2, r2, r3, lsr sp
    1634:	312e3132 			; <UNDEFINED> instruction: 0x312e3132
    1638:	696c2f30 	stmdbvs	ip!, {r4, r5, r8, r9, sl, fp, sp}^
    163c:	63672f62 	cmnvs	r7, #392	; 0x188
    1640:	72612f63 	rsbvc	r2, r1, #396	; 0x18c
    1644:	6f6e2d6d 	svcvs	0x006e2d6d
    1648:	652d656e 	strvs	r6, [sp, #-1390]!	; 0xfffffa92
    164c:	2f696261 	svccs	0x00696261
    1650:	332e3031 			; <UNDEFINED> instruction: 0x332e3031
    1654:	692f312e 	stmdbvs	pc!, {r1, r2, r3, r5, r8, ip, sp}	; <UNPREDICTABLE>
    1658:	756c636e 	strbvc	r6, [ip, #-878]!	; 0xfffffc92
    165c:	00006564 	andeq	r6, r0, r4, ror #10
    1660:	6c616d6b 	stclvs	13, cr6, [r1], #-428	; 0xfffffe54
    1664:	2e636f6c 	cdpcs	15, 6, cr6, cr3, cr12, {3}
    1668:	00000063 	andeq	r0, r0, r3, rrx
    166c:	69707200 	ldmdbvs	r0!, {r9, ip, sp, lr}^
    1670:	0100682e 	tsteq	r0, lr, lsr #16
    1674:	74730000 	ldrbtvc	r0, [r3], #-0
    1678:	746e6964 	strbtvc	r6, [lr], #-2404	; 0xfffff69c
    167c:	6363672d 	cmnvs	r3, #11796480	; 0xb40000
    1680:	0200682e 	andeq	r6, r0, #3014656	; 0x2e0000
    1684:	05000000 	streq	r0, [r0, #-0]
    1688:	0205001e 	andeq	r0, r5, #30, 0
    168c:	000091c4 	andeq	r9, r0, r4, asr #3
    1690:	05012703 	streq	r2, [r1, #-1795]	; 0xfffff8fd
    1694:	2d050120 	stfcss	f0, [r5, #-128]	; 0xffffff80
    1698:	20050106 	andcs	r0, r5, r6, lsl #2
    169c:	22058306 	andcs	r8, r5, #402653184	; 0x18000000
    16a0:	06350501 	ldrteq	r0, [r5], -r1, lsl #10
    16a4:	061e0501 	ldreq	r0, [lr], -r1, lsl #10
    16a8:	01200583 	smlawbeq	r0, r3, r5, r0
    16ac:	01062d05 	tsteq	r6, r5, lsl #26
    16b0:	85064205 	strhi	r4, [r6, #-517]	; 0xfffffdfb
    16b4:	05050106 	streq	r0, [r5, #-262]	; 0xfffffefa
    16b8:	01144b06 	tsteq	r4, r6, lsl #22
    16bc:	02002e06 	andeq	r2, r0, #96	; 0x60
    16c0:	2e060204 	cdpcs	2, 0, cr0, cr6, cr4, {0}
    16c4:	02040200 	andeq	r0, r4, #0, 4
    16c8:	04020001 	streq	r0, [r2], #-1
    16cc:	0d051502 	cfstr32eq	mvfx1, [r5, #-8]
    16d0:	02040200 	andeq	r0, r4, #0, 4
    16d4:	07050106 	streq	r0, [r5, -r6, lsl #2]
    16d8:	02040200 	andeq	r0, r4, #0, 4
    16dc:	0609054a 	streq	r0, [r9], -sl, asr #10
    16e0:	1505054b 	strne	r0, [r5, #-1355]	; 0xfffffab5
    16e4:	01061705 	tsteq	r6, r5, lsl #14
    16e8:	054a1005 	strbeq	r1, [sl, #-5]
    16ec:	052f0605 	streq	r0, [pc, #-1541]!	; 10ef <__code_start__-0x6f11>
    16f0:	0501061b 	streq	r0, [r1, #-1563]	; 0xfffff9e5
    16f4:	01052e0e 	tsteq	r5, lr, lsl #28
    16f8:	0005052f 	andeq	r0, r5, pc, lsr #10
    16fc:	06010402 	streq	r0, [r1], -r2, lsl #8
    1700:	004a7703 	subeq	r7, sl, r3, lsl #14
    1704:	01010402 	tsteq	r1, r2, lsl #8
    1708:	01040200 	mrseq	r0, R12_usr
    170c:	02009e06 	andeq	r9, r0, #96	; 0x60
    1710:	002e0104 	eoreq	r0, lr, r4, lsl #2
    1714:	06010402 	streq	r0, [r1], -r2, lsl #8
    1718:	3209052e 	andcc	r0, r9, #192937984	; 0xb800000
    171c:	2ed60601 	cdpcs	6, 13, cr0, cr6, cr1, {0}
    1720:	19052e06 	stmdbne	r5, {r1, r2, r9, sl, fp, sp}
    1724:	2f0505de 	svccs	0x000505de
    1728:	06080514 			; <UNDEFINED> instruction: 0x06080514
    172c:	4a070501 	bmi	1c2b38 <__bss_end__+0x1b8a18>
    1730:	4b060905 	blmi	183b4c <__bss_end__+0x179a2c>
    1734:	05130505 	ldreq	r0, [r3, #-1285]	; 0xfffffafb
    1738:	0501060c 	streq	r0, [r1, #-1548]	; 0xfffff9f4
    173c:	13670605 	cmnne	r7, #5242880	; 0x500000
    1740:	67060105 	strvs	r0, [r6, -r5, lsl #2]
    1744:	2a060905 	bcs	183b60 <__bss_end__+0x179a40>
    1748:	28059e01 	stmdacs	r5, {r0, r9, sl, fp, ip, pc}
    174c:	050106a5 	streq	r0, [r1, #-1701]	; 0xfffff95b
    1750:	014b0605 	cmpeq	fp, r5, lsl #12
    1754:	2e062e06 	cdpcs	14, 0, cr2, cr6, cr6, {0}
    1758:	18051301 	stmdane	r5, {r0, r8, r9, ip}
    175c:	05014703 	streq	r4, [r1, #-1795]	; 0xfffff8fd
    1760:	06011305 	streq	r1, [r1], -r5, lsl #6
    1764:	150f0601 	strne	r0, [pc, #-1537]	; 116b <__code_start__-0x6e95>
    1768:	0e051301 	cdpeq	3, 0, cr1, cr5, cr1, {0}
    176c:	16050106 	strne	r0, [r5], -r6, lsl #2
    1770:	05052e2e 	streq	r2, [r5, #-3630]	; 0xfffff1d2
    1774:	01390306 	teqeq	r9, r6, lsl #6
    1778:	01060b05 	tsteq	r6, r5, lsl #22
    177c:	4b060505 	blmi	182b98 <__bss_end__+0x178a78>
    1780:	01060a05 	tsteq	r6, r5, lsl #20
    1784:	4b060505 	blmi	182ba0 <__bss_end__+0x178a80>
    1788:	01060d05 	tsteq	r6, r5, lsl #26
    178c:	052e0705 	streq	r0, [lr, #-1797]!	; 0xfffff8fb
    1790:	05054d01 	streq	r4, [r5, #-3329]	; 0xfffff2ff
    1794:	01040200 	mrseq	r0, R12_usr
    1798:	4a780306 	bmi	1e023b8 <__bss_end__+0x1df8298>
    179c:	01040200 	mrseq	r0, R12_usr
    17a0:	04020001 	streq	r0, [r2], #-1
    17a4:	00ba0601 	adcseq	r0, sl, r1, lsl #12
    17a8:	06010402 	streq	r0, [r1], -r2, lsl #8
    17ac:	3409052e 	strcc	r0, [r9], #-1326	; 0xfffffad2
    17b0:	66820601 	strvs	r0, [r2], r1, lsl #12
    17b4:	20052e06 	andcs	r2, r5, r6, lsl #28
    17b8:	050106db 	streq	r0, [r1, #-1755]	; 0xfffff925
    17bc:	014b0605 	cmpeq	fp, r5, lsl #12
    17c0:	02040200 	andeq	r0, r4, #0, 4
    17c4:	0402004a 	streq	r0, [r2], #-74	; 0xffffffb6
    17c8:	02000102 	andeq	r0, r0, #-2147483648	; 0x80000000
    17cc:	05130204 	ldreq	r0, [r3, #-516]	; 0xfffffdfc
    17d0:	04020012 	streq	r0, [r2], #-18	; 0xffffffee
    17d4:	00010602 	andeq	r0, r1, r2, lsl #12
    17d8:	2e020402 	cdpcs	4, 0, cr0, cr2, cr2, {0}
    17dc:	02040200 	andeq	r0, r4, #0, 4
    17e0:	0005052e 	andeq	r0, r5, lr, lsr #10
    17e4:	06020402 	streq	r0, [r2], -r2, lsl #8
    17e8:	0402002f 	streq	r0, [r2], #-47	; 0xffffffd1
    17ec:	01056702 	tsteq	r5, r2, lsl #14
    17f0:	02040200 	andeq	r0, r4, #0, 4
    17f4:	05051306 	streq	r1, [r5, #-774]	; 0xfffffcfa
    17f8:	01040200 	mrseq	r0, R12_usr
    17fc:	02006206 	andeq	r6, r0, #1610612736	; 0x60000000
    1800:	00010104 	andeq	r0, r1, r4, lsl #2
    1804:	06010402 	streq	r0, [r1], -r2, lsl #8
    1808:	040200ba 	streq	r0, [r2], #-186	; 0xffffff46
    180c:	052e0601 	streq	r0, [lr, #-1537]!	; 0xfffff9ff
    1810:	9e0a033c 	mcrls	3, 0, r0, cr10, cr12, {1}
    1814:	05050106 	streq	r0, [r5, #-262]	; 0xfffffefa
    1818:	06014b06 	streq	r4, [r1], -r6, lsl #22
    181c:	012e062e 			; <UNDEFINED> instruction: 0x012e062e
    1820:	18050113 	stmdane	r5, {r0, r1, r4, r8}
    1824:	017fad03 	cmneq	pc, r3, lsl #26
    1828:	05130505 	ldreq	r0, [r3, #-1285]	; 0xfffffafb
    182c:	2e010611 	mcrcs	6, 0, r0, cr1, cr1, {0}
    1830:	d2030505 	andle	r0, r3, #20971520	; 0x1400000
    1834:	4a060100 	bmi	181c3c <__bss_end__+0x177b1c>
    1838:	03180513 	tsteq	r8, #79691776	; 0x4c00000
    183c:	05017fa3 	streq	r7, [r1, #-4003]	; 0xfffff05d
    1840:	16051305 	strne	r1, [r5], -r5, lsl #6
    1844:	054a0106 	strbeq	r0, [sl, #-262]	; 0xfffffefa
    1848:	e1030605 	tst	r3, r5, lsl #12
    184c:	12050100 	andne	r0, r5, #0
    1850:	05050106 	streq	r0, [r5, #-262]	; 0xfffffefa
    1854:	18054b06 	stmdane	r5, {r1, r2, r8, r9, fp, lr}
    1858:	017fa903 	cmneq	pc, r3, lsl #18
    185c:	01130505 	tsteq	r3, r5, lsl #10
    1860:	050e1805 	streq	r1, [lr, #-2053]	; 0xfffff7fb
    1864:	11051305 	tstne	r5, r5, lsl #6
    1868:	052e0106 	streq	r0, [lr, #-262]!	; 0xfffffefa
    186c:	4a061505 	bmi	186c88 <__bss_end__+0x17cb68>
    1870:	0e051301 	cdpeq	3, 0, cr1, cr5, cr1, {0}
    1874:	052e0106 	streq	r0, [lr, #-262]!	; 0xfffffefa
    1878:	052e2e16 	streq	r2, [lr, #-3606]!	; 0xfffff1ea
    187c:	d6030605 	strle	r0, [r3], -r5, lsl #12
    1880:	05010100 	streq	r0, [r1, #-256]	; 0xffffff00
    1884:	7f9f0318 	svcvc	0x009f0318
    1888:	13050501 	movwne	r0, #21761	; 0x5501
    188c:	01061905 	tsteq	r6, r5, lsl #18
    1890:	0305052e 	movweq	r0, #21806	; 0x552e
    1894:	000100e0 	andeq	r0, r1, r0, ror #1
    1898:	06020402 	streq	r0, [r2], -r2, lsl #8
    189c:	0402004a 	streq	r0, [r2], #-74	; 0xffffffb6
    18a0:	0a051402 	beq	1468b0 <__bss_end__+0x13c790>
    18a4:	02040200 	andeq	r0, r4, #0, 4
    18a8:	05050106 	streq	r0, [r5, #-262]	; 0xfffffefa
    18ac:	02040200 	andeq	r0, r4, #0, 4
    18b0:	0c054b06 			; <UNDEFINED> instruction: 0x0c054b06
    18b4:	02040200 	andeq	r0, r4, #0, 4
    18b8:	01050106 	tsteq	r5, r6, lsl #2
    18bc:	02040200 	andeq	r0, r4, #0, 4
    18c0:	0005052f 	andeq	r0, r5, pc, lsr #10
    18c4:	06010402 	streq	r0, [r1], -r2, lsl #8
    18c8:	004a7303 	subeq	r7, sl, r3, lsl #6
    18cc:	01010402 	tsteq	r1, r2, lsl #8
    18d0:	01040200 	mrseq	r0, R12_usr
    18d4:	02009e06 	andeq	r9, r0, #96	; 0x60
    18d8:	002e0104 	eoreq	r0, lr, r4, lsl #2
    18dc:	06010402 	streq	r0, [r1], -r2, lsl #8
    18e0:	0402002e 	streq	r0, [r2], #-46	; 0xffffffd2
    18e4:	02002f01 	andeq	r2, r0, #1, 30
    18e8:	002e0104 	eoreq	r0, lr, r4, lsl #2
    18ec:	d6010402 	strle	r0, [r1], -r2, lsl #8
    18f0:	2e7fb103 	expcse	f3, f3
    18f4:	2e820601 	cdpcs	6, 8, cr0, cr2, cr1, {0}
    18f8:	062e062e 	strteq	r0, [lr], -lr, lsr #12
    18fc:	0402002e 	streq	r0, [r2], #-46	; 0xffffffd2
    1900:	d7030601 	strle	r0, [r3, -r1, lsl #12]
    1904:	02000100 	andeq	r0, r0, #0
    1908:	002e0104 	eoreq	r0, lr, r4, lsl #2
    190c:	d6010402 	strle	r0, [r1], -r2, lsl #8
    1910:	7b081505 	blvc	206d2c <__bss_end__+0x1fcc0c>
    1914:	05011705 	streq	r1, [r1, #-1797]	; 0xfffff8fb
    1918:	18053116 	stmdane	r5, {r1, r2, r4, r8, ip, sp}
    191c:	061d0501 	ldreq	r0, [sp], -r1, lsl #10
    1920:	662b0501 	strtvs	r0, [fp], -r1, lsl #10
    1924:	4d061905 	vstrmi.16	s2, [r6, #-10]	; <UNPREDICTABLE>
    1928:	05130505 	ldreq	r0, [r3, #-1285]	; 0xfffffafb
    192c:	0501060c 	streq	r0, [r1, #-1548]	; 0xfffff9f4
    1930:	25054a07 	strcs	r4, [r5, #-2567]	; 0xfffff5f9
    1934:	01040200 	mrseq	r0, R12_usr
    1938:	001e054a 	andseq	r0, lr, sl, asr #10
    193c:	4a010402 	bmi	4294c <__bss_end__+0x3882c>
    1940:	4b060905 	blmi	183d5c <__bss_end__+0x179c3c>
    1944:	05130505 	ldreq	r0, [r3, #-1285]	; 0xfffffafb
    1948:	0501060a 	streq	r0, [r1, #-1546]	; 0xfffff9f6
    194c:	09056319 	stmdbeq	r5, {r0, r3, r4, r8, r9, sp, lr}
    1950:	06014c06 	streq	r4, [r1], -r6, lsl #24
    1954:	022e069e 	eoreq	r0, lr, #165675008	; 0x9e00000
    1958:	0101000a 	tsteq	r1, sl
    195c:	00000289 	andeq	r0, r0, r9, lsl #5
    1960:	00c90003 	sbceq	r0, r9, r3
    1964:	01020000 	mrseq	r0, (UNDEF: 2)
    1968:	000d0efb 	strdeq	r0, [sp], -fp
    196c:	01010101 	tsteq	r1, r1, lsl #2
    1970:	01000000 	mrseq	r0, (UNDEF: 0)
    1974:	2e010000 	cdpcs	0, 0, cr0, cr1, cr0, {0}
    1978:	6372732f 	cmnvs	r2, #-1140850688	; 0xbc000000
    197c:	73552f00 	cmpvc	r5, #0, 30
    1980:	2f737265 	svccs	0x00737265
    1984:	656c696d 	strbvs	r6, [ip, #-2413]!	; 0xfffff693
    1988:	6f532f73 	svcvs	0x00532f73
    198c:	65637275 	strbvs	r7, [r3, #-629]!	; 0xfffffd8b
    1990:	3273632f 	rsbscc	r6, r3, #-1140850688	; 0xbc000000
    1994:	786c3034 	stmdavc	ip!, {r2, r4, r5, ip, sp}^
    1998:	62696c2f 	rsbvs	r6, r9, #12032	; 0x2f00
    199c:	692f6970 	stmdbvs	pc!, {r4, r5, r6, r8, fp, sp, lr}	; <UNPREDICTABLE>
    19a0:	756c636e 	strbvc	r6, [ip, #-878]!	; 0xfffffc92
    19a4:	2f006564 	svccs	0x00006564
    19a8:	2f74706f 	svccs	0x0074706f
    19ac:	656d6f68 	strbvs	r6, [sp, #-3944]!	; 0xfffff098
    19b0:	77657262 	strbvc	r7, [r5, -r2, ror #4]!
    19b4:	6c65432f 	stclvs	3, cr4, [r5], #-188	; 0xffffff44
    19b8:	2f72616c 	svccs	0x0072616c
    19bc:	2d6d7261 	sfmcs	f7, 2, [sp, #-388]!	; 0xfffffe7c
    19c0:	656e6f6e 	strbvs	r6, [lr, #-3950]!	; 0xfffff092
    19c4:	6261652d 	rsbvs	r6, r1, #188743680	; 0xb400000
    19c8:	2f392d69 	svccs	0x00392d69
    19cc:	30322d39 	eorscc	r2, r2, r9, lsr sp
    19d0:	34713931 	ldrbtcc	r3, [r1], #-2353	; 0xfffff6cf
    19d4:	3173632d 	cmncc	r3, sp, lsr #6
    19d8:	2f653730 	svccs	0x00653730
    19dc:	2f62696c 	svccs	0x0062696c
    19e0:	2f636367 	svccs	0x00636367
    19e4:	2d6d7261 	sfmcs	f7, 2, [sp, #-388]!	; 0xfffffe7c
    19e8:	656e6f6e 	strbvs	r6, [lr, #-3950]!	; 0xfffff092
    19ec:	6261652d 	rsbvs	r6, r1, #188743680	; 0xb400000
    19f0:	2e392f69 	cdpcs	15, 3, cr2, cr9, cr9, {3}
    19f4:	2f312e32 	svccs	0x00312e32
    19f8:	6c636e69 	stclvs	14, cr6, [r3], #-420	; 0xfffffe5c
    19fc:	00656475 	rsbeq	r6, r5, r5, ror r4
    1a00:	69706700 	ldmdbvs	r0!, {r8, r9, sl, sp, lr}^
    1a04:	00632e6f 	rsbeq	r2, r3, pc, ror #28
    1a08:	72000001 	andvc	r0, r0, #1, 0
    1a0c:	682e6970 	stmdavs	lr!, {r4, r5, r6, r8, fp, sp, lr}
    1a10:	00000200 	andeq	r0, r0, r0, lsl #4
    1a14:	69647473 	stmdbvs	r4!, {r0, r1, r4, r5, r6, sl, ip, sp, lr}^
    1a18:	672d746e 	strvs	r7, [sp, -lr, ror #8]!
    1a1c:	682e6363 	stmdavs	lr!, {r0, r1, r5, r6, r8, r9, sp, lr}
    1a20:	00000300 	andeq	r0, r0, r0, lsl #6
    1a24:	6f697067 	svcvs	0x00697067
    1a28:	0200682e 	andeq	r6, r0, #3014656	; 0x2e0000
    1a2c:	05000000 	streq	r0, [r0, #-0]
    1a30:	02050038 	andeq	r0, r5, #56, 0	; 0x38
    1a34:	00009574 	andeq	r9, r0, r4, ror r5
    1a38:	05012703 	streq	r2, [r1, #-1795]	; 0xfffff8fd
    1a3c:	07051305 	streq	r1, [r5, -r5, lsl #6]
    1a40:	06050106 	streq	r0, [r5], -r6, lsl #2
    1a44:	05054906 	streq	r4, [r5, #-2310]	; 0xfffff6fa
    1a48:	06070515 			; <UNDEFINED> instruction: 0x06070515
    1a4c:	2b380501 	blcs	e02e58 <__bss_end__+0xdf8d38>
    1a50:	054d0705 	strbeq	r0, [sp, #-1797]	; 0xfffff8fb
    1a54:	05300605 	ldreq	r0, [r0, #-1541]!	; 0xfffff9fb
    1a58:	05010618 	streq	r0, [r1, #-1560]	; 0xfffff9e8
    1a5c:	0e05671c 	mcreq	7, 0, r6, cr5, cr12, {0}
    1a60:	2d18054a 	cfldr32cs	mvfx0, [r8, #-296]	; 0xfffffed8
    1a64:	2e4d1205 	cdpcs	2, 4, cr1, cr13, cr5, {0}
    1a68:	2a0e052f 	bcs	382f2c <__bss_end__+0x378e0c>
    1a6c:	2f060505 	svccs	0x00060505
    1a70:	07051314 	smladeq	r5, r4, r3, r1
    1a74:	05050106 	streq	r0, [r5, #-262]	; 0xfffffefa
    1a78:	06132f06 	ldreq	r2, [r3], -r6, lsl #30
    1a7c:	01052e2e 	tsteq	r5, lr, lsr #28
    1a80:	2d050513 	cfstr32cs	mvfx0, [r5, #-76]	; 0xffffffb4
    1a84:	0624052e 	strteq	r0, [r4], -lr, lsr #10
    1a88:	d4020500 	strle	r0, [r2], #-1280	; 0xfffffb00
    1a8c:	15000095 	strne	r0, [r0, #-149]	; 0xffffff6b
    1a90:	05130505 	ldreq	r0, [r3, #-1285]	; 0xfffffafb
    1a94:	01710306 	cmneq	r1, r6, lsl #6
    1a98:	05130505 	ldreq	r0, [r3, #-1285]	; 0xfffffafb
    1a9c:	05010607 	streq	r0, [r1, #-1543]	; 0xfffff9f9
    1aa0:	05490606 	strbeq	r0, [r9, #-1542]	; 0xfffff9fa
    1aa4:	05141505 	ldreq	r1, [r4, #-1285]	; 0xfffffafb
    1aa8:	09030624 	stmdbeq	r3, {r2, r5, r9, sl}
    1aac:	03180501 	tsteq	r8, #4194304	; 0x400000
    1ab0:	1c052e77 	stcne	14, cr2, [r5], {119}	; 0x77
    1ab4:	4a0e0567 	bmi	383058 <__bss_end__+0x378f38>
    1ab8:	052d1805 	streq	r1, [sp, #-2053]!	; 0xfffff7fb
    1abc:	2f2e4d12 	svccs	0x002e4d12
    1ac0:	052f0f05 	streq	r0, [pc, #-3845]!	; bc3 <__code_start__-0x743d>
    1ac4:	0505290e 	streq	r2, [r5, #-2318]	; 0xfffff6f2
    1ac8:	13142f06 	tstne	r4, #6, 30
    1acc:	01060705 	tsteq	r6, r5, lsl #14
    1ad0:	2f060505 	svccs	0x00060505
    1ad4:	052e0613 	streq	r0, [lr, #-1555]!	; 0xfffff9ed
    1ad8:	05053301 	streq	r3, [r5, #-769]	; 0xfffffcff
    1adc:	27052e29 	strcs	r2, [r5, -r9, lsr #28]
    1ae0:	02050006 	andeq	r0, r5, #6, 0
    1ae4:	0000962c 	andeq	r9, r0, ip, lsr #12
    1ae8:	1305051a 	movwne	r0, #21786	; 0x551a
    1aec:	11062705 	tstne	r6, r5, lsl #14
    1af0:	052f1805 	streq	r1, [pc, #-2053]!	; 12f3 <__code_start__-0x6d0d>
    1af4:	4a2e2e05 	bmi	b8d310 <__bss_end__+0xb831f0>
    1af8:	00062805 	andeq	r2, r6, r5, lsl #16
    1afc:	96440205 	strbls	r0, [r4], -r5, lsl #4
    1b00:	05160000 	ldreq	r0, [r6, #-0]
    1b04:	28051305 	stmdacs	r5, {r0, r2, r8, r9, ip}
    1b08:	18051106 	stmdane	r5, {r1, r2, r8, ip}
    1b0c:	2e05052f 	cfsh32cs	mvfx0, mvfx5, #31
    1b10:	23054a2e 	movwcs	r4, #23086	; 0x5a2e
    1b14:	02050006 	andeq	r0, r5, #6, 0
    1b18:	0000965c 	andeq	r9, r0, ip, asr r6
    1b1c:	13050516 	movwne	r0, #21782	; 0x5516
    1b20:	62030605 	andvs	r0, r3, #5242880	; 0x500000
    1b24:	13050501 	movwne	r0, #21761	; 0x5501
    1b28:	01060705 	tsteq	r6, r5, lsl #14
    1b2c:	49060605 	stmdbmi	r6, {r0, r2, r9, sl}
    1b30:	14150505 	ldrne	r0, [r5], #-1285	; 0xfffffafb
    1b34:	06230513 			; <UNDEFINED> instruction: 0x06230513
    1b38:	05011703 	streq	r1, [r1, #-1795]	; 0xfffff8fd
    1b3c:	2e690322 	cdpcs	3, 6, cr0, cr9, cr2, {1}
    1b40:	2e821c05 	cdpcs	12, 8, cr1, cr2, cr5, {0}
    1b44:	052e0e05 	streq	r0, [lr, #-3589]!	; 0xfffff1fb
    1b48:	05300605 	ldreq	r0, [r0, #-1541]!	; 0xfffff9fb
    1b4c:	4b010612 	blmi	4339c <__bss_end__+0x3927c>
    1b50:	0605052d 	streq	r0, [r5], -sp, lsr #10
    1b54:	0513132f 	ldreq	r1, [r3, #-815]	; 0xfffffcd1
    1b58:	7a030618 	bvc	c33c0 <__bss_end__+0xb92a0>
    1b5c:	4a0e0501 	bmi	382f68 <__bss_end__+0x378e48>
    1b60:	2e340505 	cdpcs	5, 3, cr0, cr4, cr5, {0}
    1b64:	14030105 	strne	r0, [r3], #-261	; 0xfffffefb
    1b68:	0305052e 	movweq	r0, #21806	; 0x552e
    1b6c:	052e2e6c 	streq	r2, [lr, #-3692]!	; 0xfffff194
    1b70:	0500062b 	streq	r0, [r0, #-1579]	; 0xfffff9d5
    1b74:	0096b402 	addseq	fp, r6, r2, lsl #8
    1b78:	01170300 	tsteq	r7, r0, lsl #6
    1b7c:	05130505 	ldreq	r0, [r3, #-1285]	; 0xfffffafb
    1b80:	05010607 	streq	r0, [r1, #-1543]	; 0xfffff9f9
    1b84:	2e710318 	mrccs	3, 3, r0, cr1, cr8, {0}
    1b88:	0e032b05 	vmlaeq.f64	d2, d3, d5
    1b8c:	2f07052e 	svccs	0x0007052e
    1b90:	2f060905 	svccs	0x00060905
    1b94:	6f030d05 	svcvs	0x00030d05
    1b98:	13050501 	movwne	r0, #21761	; 0x5501
    1b9c:	2e2e2e06 	cdpcs	14, 2, cr2, cr14, cr6, {0}
    1ba0:	03060905 	movweq	r0, #26885	; 0x6905
    1ba4:	0d050112 	stfeqs	f0, [r5, #-72]	; 0xffffffb8
    1ba8:	05017203 	streq	r7, [r1, #-515]	; 0xfffffdfd
    1bac:	2e061305 	cdpcs	3, 0, cr1, cr6, cr5, {0}
    1bb0:	061d052e 	ldreq	r0, [sp], -lr, lsr #10
    1bb4:	05661003 	strbeq	r1, [r6, #-3]!
    1bb8:	1d051305 	stcne	3, cr1, [r5, #-20]	; 0xffffffec
    1bbc:	052e1106 	streq	r1, [lr, #-262]!	; 0xfffffefa
    1bc0:	13300605 	teqne	r0, #5242880	; 0x500000
    1bc4:	10060e05 	andne	r0, r6, r5, lsl #28
    1bc8:	2e301705 	cdpcs	7, 3, cr1, cr0, cr5, {0}
    1bcc:	30050204 	andcc	r0, r5, r4, lsl #4
    1bd0:	00dd0306 	sbcseq	r0, sp, r6, lsl #6
    1bd4:	0501042e 	streq	r0, [r1, #-1070]	; 0xfffffbd2
    1bd8:	a203060e 	andge	r0, r3, #14680064	; 0xe00000
    1bdc:	2305017f 	movwcs	r0, #20863	; 0x517f
    1be0:	2f01052f 	svccs	0x0001052f
    1be4:	01000602 	tsteq	r0, r2, lsl #12
    1be8:	00012101 	andeq	r2, r1, r1, lsl #2
    1bec:	be000300 	cdplt	3, 0, cr0, cr0, cr0, {0}
    1bf0:	02000000 	andeq	r0, r0, #0, 0
    1bf4:	0d0efb01 	vstreq	d15, [lr, #-4]
    1bf8:	01010100 	mrseq	r0, (UNDEF: 17)
    1bfc:	00000001 	andeq	r0, r0, r1
    1c00:	01000001 	tsteq	r0, r1
    1c04:	696c2f2e 	stmdbvs	ip!, {r1, r2, r3, r5, r8, r9, sl, fp, sp}^
    1c08:	2f006362 	svccs	0x00006362
    1c0c:	72657355 	rsbvc	r7, r5, #1409286145	; 0x54000001
    1c10:	696d2f73 	stmdbvs	sp!, {r0, r1, r4, r5, r6, r8, r9, sl, fp, sp}^
    1c14:	2f73656c 	svccs	0x0073656c
    1c18:	72756f53 	rsbsvc	r6, r5, #332	; 0x14c
    1c1c:	632f6563 			; <UNDEFINED> instruction: 0x632f6563
    1c20:	30343273 	eorscc	r3, r4, r3, ror r2
    1c24:	6c2f786c 	stcvs	8, cr7, [pc], #-432	; 1a7c <__code_start__-0x6584>
    1c28:	69706269 	ldmdbvs	r0!, {r0, r3, r5, r6, r9, sp, lr}^
    1c2c:	636e692f 	cmnvs	lr, #770048	; 0xbc000
    1c30:	6564756c 	strbvs	r7, [r4, #-1388]!	; 0xfffffa94
    1c34:	706f2f00 	rsbvc	r2, pc, r0, lsl #30
    1c38:	6f682f74 	svcvs	0x00682f74
    1c3c:	7262656d 	rsbvc	r6, r2, #457179136	; 0x1b400000
    1c40:	432f7765 			; <UNDEFINED> instruction: 0x432f7765
    1c44:	616c6c65 	cmnvs	ip, r5, ror #24
    1c48:	72612f72 	rsbvc	r2, r1, #456	; 0x1c8
    1c4c:	6f6e2d6d 	svcvs	0x006e2d6d
    1c50:	652d656e 	strvs	r6, [sp, #-1390]!	; 0xfffffa92
    1c54:	2d696261 	sfmcs	f6, 2, [r9, #-388]!	; 0xfffffe7c
    1c58:	2d392f39 	ldccs	15, cr2, [r9, #-228]!	; 0xffffff1c
    1c5c:	39313032 	ldmdbcc	r1!, {r1, r4, r5, ip, sp}
    1c60:	632d3471 			; <UNDEFINED> instruction: 0x632d3471
    1c64:	37303173 			; <UNDEFINED> instruction: 0x37303173
    1c68:	696c2f65 	stmdbvs	ip!, {r0, r2, r5, r6, r8, r9, sl, fp, sp}^
    1c6c:	63672f62 	cmnvs	r7, #392	; 0x188
    1c70:	72612f63 	rsbvc	r2, r1, #396	; 0x18c
    1c74:	6f6e2d6d 	svcvs	0x006e2d6d
    1c78:	652d656e 	strvs	r6, [sp, #-1390]!	; 0xfffffa92
    1c7c:	2f696261 	svccs	0x00696261
    1c80:	2e322e39 	mrccs	14, 1, r2, cr2, cr9, {1}
    1c84:	6e692f31 	mcrvs	15, 3, r2, cr9, cr1, {1}
    1c88:	64756c63 	ldrbtvs	r6, [r5], #-3171	; 0xfffff39d
    1c8c:	6d000065 	stcvs	0, cr0, [r0, #-404]	; 0xfffffe6c
    1c90:	65736d65 	ldrbvs	r6, [r3, #-3429]!	; 0xfffff29b
    1c94:	00632e74 	rsbeq	r2, r3, r4, ror lr
    1c98:	72000001 	andvc	r0, r0, #1, 0
    1c9c:	682e6970 	stmdavs	lr!, {r4, r5, r6, r8, fp, sp, lr}
    1ca0:	00000200 	andeq	r0, r0, r0, lsl #4
    1ca4:	64647473 	strbtvs	r7, [r4], #-1139	; 0xfffffb8d
    1ca8:	682e6665 	stmdavs	lr!, {r0, r2, r5, r6, r9, sl, sp, lr}
    1cac:	00000300 	andeq	r0, r0, r0, lsl #6
    1cb0:	00290500 	eoreq	r0, r9, r0, lsl #10
    1cb4:	970c0205 	strls	r0, [ip, -r5, lsl #4]
    1cb8:	05150000 	ldreq	r0, [r5, #-0]
    1cbc:	29051305 	stmdbcs	r5, {r0, r2, r8, r9, ip}
    1cc0:	14051106 	strne	r1, [r5], #-262	; 0xfffffefa
    1cc4:	0605052f 	streq	r0, [r5], -pc, lsr #10
    1cc8:	010a0530 	tsteq	sl, r0, lsr r5
    1ccc:	09059e06 	stmdbeq	r5, {r1, r2, r9, sl, fp, ip, pc}
    1cd0:	0e05d706 	cdpeq	7, 0, cr13, cr5, cr6, {0}
    1cd4:	0a050106 	beq	1420f4 <__bss_end__+0x137fd4>
    1cd8:	09052d06 	stmdbeq	r5, {r1, r2, r8, sl, fp, sp}
    1cdc:	060e05bb 			; <UNDEFINED> instruction: 0x060e05bb
    1ce0:	0a052e01 	beq	14d4ec <__bss_end__+0x1433cc>
    1ce4:	09052d06 	stmdbeq	r5, {r1, r2, r8, sl, fp, sp}
    1ce8:	060b054b 	streq	r0, [fp], -fp, asr #10
    1cec:	2d0a0501 	cfstr32cs	mvfx0, [sl, #-4]
    1cf0:	052f0e05 	streq	r0, [pc, #-3589]!	; ef3 <__code_start__-0x710d>
    1cf4:	052d060a 	streq	r0, [sp, #-1546]!	; 0xfffff9f6
    1cf8:	0513060e 	ldreq	r0, [r3, #-1550]	; 0xfffff9f2
    1cfc:	052e0609 	streq	r0, [lr, #-1545]!	; 0xfffff9f7
    1d00:	0505110a 	streq	r1, [r5, #-266]	; 0xfffffef6
    1d04:	06010514 			; <UNDEFINED> instruction: 0x06010514
    1d08:	00020213 	andeq	r0, r2, r3, lsl r2
    1d0c:	009e0101 	addseq	r0, lr, r1, lsl #2
    1d10:	00030000 	andeq	r0, r3, r0
    1d14:	0000005a 	andeq	r0, r0, sl, asr r0
    1d18:	0efb0102 	cdpeq	1, 15, cr0, cr11, cr2, {0}
    1d1c:	0101000d 	tsteq	r1, sp
    1d20:	00000101 	andeq	r0, r0, r1, lsl #2
    1d24:	00000100 	andeq	r0, r0, r0, lsl #2
    1d28:	6c2f2e01 	stcvs	14, cr2, [pc], #-4	; 1d2c <__code_start__-0x62d4>
    1d2c:	00636269 	rsbeq	r6, r3, r9, ror #4
    1d30:	6573552f 	ldrbvs	r5, [r3, #-1327]!	; 0xfffffad1
    1d34:	6d2f7372 	stcvs	3, cr7, [pc, #-456]!	; 1b74 <__code_start__-0x648c>
    1d38:	73656c69 	cmnvc	r5, #26880	; 0x6900
    1d3c:	756f532f 	strbvc	r5, [pc, #-815]!	; 1a15 <__code_start__-0x65eb>
    1d40:	2f656372 	svccs	0x00656372
    1d44:	34327363 	ldrtcc	r7, [r2], #-867	; 0xfffffc9d
    1d48:	2f786c30 	svccs	0x00786c30
    1d4c:	7062696c 	rsbvc	r6, r2, ip, ror #18
    1d50:	6e692f69 	cdpvs	15, 6, cr2, cr9, cr9, {3}
    1d54:	64756c63 	ldrbtvs	r6, [r5], #-3171	; 0xfffff39d
    1d58:	70000065 	andvc	r0, r0, r5, rrx
    1d5c:	68637475 	stmdavs	r3!, {r0, r2, r4, r5, r6, sl, ip, sp, lr}^
    1d60:	632e7261 			; <UNDEFINED> instruction: 0x632e7261
    1d64:	00000100 	andeq	r0, r0, r0, lsl #2
    1d68:	2e697072 	mcrcs	0, 3, r7, cr9, cr2, {3}
    1d6c:	00020068 	andeq	r0, r2, r8, rrx
    1d70:	24050000 	strcs	r0, [r5], #-0
    1d74:	84020500 	strhi	r0, [r2], #-1280	; 0xfffffb00
    1d78:	14000097 	strne	r0, [r0], #-151	; 0xffffff69
    1d7c:	05012605 	streq	r2, [r1, #-1541]	; 0xfffff9fb
    1d80:	2e010624 	cfmadd32cs	mvax1, mvfx0, mvfx1, mvfx4
    1d84:	052e2605 	streq	r2, [lr, #-1541]!	; 0xfffff9fb
    1d88:	052e0634 	streq	r0, [lr, #-1588]!	; 0xfffff9cc
    1d8c:	05010601 	streq	r0, [r1, #-1537]	; 0xfffff9ff
    1d90:	054f061b 	strbeq	r0, [pc, #-1563]	; 177d <__code_start__-0x6883>
    1d94:	11051305 	tstne	r5, r5, lsl #6
    1d98:	01050106 	tsteq	r5, r6, lsl #2
    1d9c:	06230567 	strteq	r0, [r3], -r7, ror #10
    1da0:	13050567 	movwne	r0, #21863	; 0x5567
    1da4:	01061105 	tsteq	r6, r5, lsl #2
    1da8:	024b0105 	subeq	r0, fp, #1073741825	; 0x40000001
    1dac:	01010004 	tsteq	r1, r4
    1db0:	000000e2 	andeq	r0, r0, r2, ror #1
    1db4:	00590003 	subseq	r0, r9, r3
    1db8:	01020000 	mrseq	r0, (UNDEF: 2)
    1dbc:	000d0efb 	strdeq	r0, [sp], -fp
    1dc0:	01010101 	tsteq	r1, r1, lsl #2
    1dc4:	01000000 	mrseq	r0, (UNDEF: 0)
    1dc8:	2e010000 	cdpcs	0, 0, cr0, cr1, cr0, {0}
    1dcc:	62696c2f 	rsbvs	r6, r9, #12032	; 0x2f00
    1dd0:	552f0063 	strpl	r0, [pc, #-99]!	; 1d75 <__code_start__-0x628b>
    1dd4:	73726573 	cmnvc	r2, #482344960	; 0x1cc00000
    1dd8:	6c696d2f 	stclvs	13, cr6, [r9], #-188	; 0xffffff44
    1ddc:	532f7365 			; <UNDEFINED> instruction: 0x532f7365
    1de0:	6372756f 	cmnvs	r2, #465567744	; 0x1bc00000
    1de4:	73632f65 	cmnvc	r3, #404	; 0x194
    1de8:	6c303432 	cfldrsvs	mvf3, [r0], #-200	; 0xffffff38
    1dec:	696c2f78 	stmdbvs	ip!, {r3, r4, r5, r6, r8, r9, sl, fp, sp}^
    1df0:	2f697062 	svccs	0x00697062
    1df4:	6c636e69 	stclvs	14, cr6, [r3], #-420	; 0xfffffe5c
    1df8:	00656475 	rsbeq	r6, r5, r5, ror r4
    1dfc:	72747300 	rsbsvc	r7, r4, #0, 6
    1e00:	2e746163 	rpwcssz	f6, f4, f3
    1e04:	00010063 	andeq	r0, r1, r3, rrx
    1e08:	69707200 	ldmdbvs	r0!, {r9, ip, sp, lr}^
    1e0c:	0200682e 	andeq	r6, r0, #3014656	; 0x2e0000
    1e10:	05000000 	streq	r0, [r0, #-0]
    1e14:	0205002c 	andeq	r0, r5, #44, 0	; 0x2c
    1e18:	000097c0 	andeq	r9, r0, r0, asr #15
    1e1c:	13050515 	movwne	r0, #21781	; 0x5515
    1e20:	060b0513 			; <UNDEFINED> instruction: 0x060b0513
    1e24:	00050511 	andeq	r0, r5, r1, lsl r5
    1e28:	06010402 	streq	r0, [r1], -r2, lsl #8
    1e2c:	04020030 	streq	r0, [r2], #-48	; 0xffffffd0
    1e30:	09051501 	stmdbeq	r5, {r0, r8, sl, ip}
    1e34:	01040200 	mrseq	r0, R12_usr
    1e38:	000b0513 	andeq	r0, fp, r3, lsl r5
    1e3c:	2f010402 	svccs	0x00010402
    1e40:	02000505 	andeq	r0, r0, #20971520	; 0x1400000
    1e44:	01060104 	tsteq	r6, r4, lsl #2
    1e48:	01040200 	mrseq	r0, R12_usr
    1e4c:	054e062e 	strbeq	r0, [lr, #-1582]	; 0xfffff9d2
    1e50:	05010608 	streq	r0, [r1, #-1544]	; 0xfffff9f8
    1e54:	04020005 	streq	r0, [r2], #-5
    1e58:	052f0601 	streq	r0, [pc, #-1537]!	; 185f <__code_start__-0x67a1>
    1e5c:	04020009 	streq	r0, [r2], #-9
    1e60:	0b051301 	bleq	146a6c <__bss_end__+0x13c94c>
    1e64:	01040200 	mrseq	r0, R12_usr
    1e68:	09050106 	stmdbeq	r5, {r1, r2, r8}
    1e6c:	01040200 	mrseq	r0, R12_usr
    1e70:	05052f06 	streq	r2, [r5, #-3846]	; 0xfffff0fa
    1e74:	01040200 	mrseq	r0, R12_usr
    1e78:	0f051306 	svceq	0x00051306
    1e7c:	01040200 	mrseq	r0, R12_usr
    1e80:	000d052d 	andeq	r0, sp, sp, lsr #10
    1e84:	06010402 	streq	r0, [r1], -r2, lsl #8
    1e88:	0005052f 	andeq	r0, r5, pc, lsr #10
    1e8c:	06010402 	streq	r0, [r1], -r2, lsl #8
    1e90:	00040201 	andeq	r0, r4, r1, lsl #4
    1e94:	00b20101 	adcseq	r0, r2, r1, lsl #2
    1e98:	00030000 	andeq	r0, r3, r0
    1e9c:	00000059 	andeq	r0, r0, r9, asr r0
    1ea0:	0efb0102 	cdpeq	1, 15, cr0, cr11, cr2, {0}
    1ea4:	0101000d 	tsteq	r1, sp
    1ea8:	00000101 	andeq	r0, r0, r1, lsl #2
    1eac:	00000100 	andeq	r0, r0, r0, lsl #2
    1eb0:	6c2f2e01 	stcvs	14, cr2, [pc], #-4	; 1eb4 <__code_start__-0x614c>
    1eb4:	00636269 	rsbeq	r6, r3, r9, ror #4
    1eb8:	6573552f 	ldrbvs	r5, [r3, #-1327]!	; 0xfffffad1
    1ebc:	6d2f7372 	stcvs	3, cr7, [pc, #-456]!	; 1cfc <__code_start__-0x6304>
    1ec0:	73656c69 	cmnvc	r5, #26880	; 0x6900
    1ec4:	756f532f 	strbvc	r5, [pc, #-815]!	; 1b9d <__code_start__-0x6463>
    1ec8:	2f656372 	svccs	0x00656372
    1ecc:	34327363 	ldrtcc	r7, [r2], #-867	; 0xfffffc9d
    1ed0:	2f786c30 	svccs	0x00786c30
    1ed4:	7062696c 	rsbvc	r6, r2, ip, ror #18
    1ed8:	6e692f69 	cdpvs	15, 6, cr2, cr9, cr9, {3}
    1edc:	64756c63 	ldrbtvs	r6, [r5], #-3171	; 0xfffff39d
    1ee0:	73000065 	movwvc	r0, #101	; 0x65
    1ee4:	6d637274 	sfmvs	f7, 2, [r3, #-464]!	; 0xfffffe30
    1ee8:	00632e70 	rsbeq	r2, r3, r0, ror lr
    1eec:	72000001 	andvc	r0, r0, #1, 0
    1ef0:	682e6970 	stmdavs	lr!, {r4, r5, r6, r8, fp, sp, lr}
    1ef4:	00000200 	andeq	r0, r0, r0, lsl #4
    1ef8:	002a0500 	eoreq	r0, sl, r0, lsl #10
    1efc:	97ec0205 	strbls	r0, [ip, r5, lsl #4]!
    1f00:	05140000 	ldreq	r0, [r4, #-0]
    1f04:	10051309 	andne	r1, r5, r9, lsl #6
    1f08:	0f050106 	svceq	0x00050106
    1f0c:	10052e06 	andne	r2, r5, r6, lsl #28
    1f10:	0f058206 	svceq	0x00058206
    1f14:	0011052e 	andseq	r0, r1, lr, lsr #10
    1f18:	06010402 	streq	r0, [r1], -r2, lsl #8
    1f1c:	001c054b 	andseq	r0, ip, fp, asr #10
    1f20:	06010402 	streq	r0, [r1], -r2, lsl #8
    1f24:	000f052d 	andeq	r0, pc, sp, lsr #10
    1f28:	06010402 	streq	r0, [r1], -r2, lsl #8
    1f2c:	0013052e 	andseq	r0, r3, lr, lsr #10
    1f30:	06010402 	streq	r0, [r1], -r2, lsl #8
    1f34:	06090501 	streq	r0, [r9], -r1, lsl #10
    1f38:	0601054c 	streq	r0, [r1], -ip, asr #10
    1f3c:	09054a13 	stmdbeq	r5, {r0, r1, r4, r9, fp, lr}
    1f40:	01052d06 	tsteq	r5, r6, lsl #26
    1f44:	022e1306 	eoreq	r1, lr, #402653184	; 0x18000000
    1f48:	01010002 	tsteq	r1, r2
    1f4c:	0000009d 	muleq	r0, sp, r0
    1f50:	00590003 	subseq	r0, r9, r3
    1f54:	01020000 	mrseq	r0, (UNDEF: 2)
    1f58:	000d0efb 	strdeq	r0, [sp], -fp
    1f5c:	01010101 	tsteq	r1, r1, lsl #2
    1f60:	01000000 	mrseq	r0, (UNDEF: 0)
    1f64:	2e010000 	cdpcs	0, 0, cr0, cr1, cr0, {0}
    1f68:	62696c2f 	rsbvs	r6, r9, #12032	; 0x2f00
    1f6c:	552f0063 	strpl	r0, [pc, #-99]!	; 1f11 <__code_start__-0x60ef>
    1f70:	73726573 	cmnvc	r2, #482344960	; 0x1cc00000
    1f74:	6c696d2f 	stclvs	13, cr6, [r9], #-188	; 0xffffff44
    1f78:	532f7365 			; <UNDEFINED> instruction: 0x532f7365
    1f7c:	6372756f 	cmnvs	r2, #465567744	; 0x1bc00000
    1f80:	73632f65 	cmnvc	r3, #404	; 0x194
    1f84:	6c303432 	cfldrsvs	mvf3, [r0], #-200	; 0xffffff38
    1f88:	696c2f78 	stmdbvs	ip!, {r3, r4, r5, r6, r8, r9, sl, fp, sp}^
    1f8c:	2f697062 	svccs	0x00697062
    1f90:	6c636e69 	stclvs	14, cr6, [r3], #-420	; 0xfffffe5c
    1f94:	00656475 	rsbeq	r6, r5, r5, ror r4
    1f98:	72747300 	rsbsvc	r7, r4, #0, 6
    1f9c:	2e797063 	cdpcs	0, 7, cr7, cr9, cr3, {3}
    1fa0:	00010063 	andeq	r0, r1, r3, rrx
    1fa4:	69707200 	ldmdbvs	r0!, {r9, ip, sp, lr}^
    1fa8:	0200682e 	andeq	r6, r0, #3014656	; 0x2e0000
    1fac:	05000000 	streq	r0, [r0, #-0]
    1fb0:	0205002a 	andeq	r0, r5, #42, 0	; 0x2a
    1fb4:	00009830 	andeq	r9, r0, r0, lsr r8
    1fb8:	13050514 	movwne	r0, #21780	; 0x5514
    1fbc:	00220513 	eoreq	r0, r2, r3, lsl r5
    1fc0:	2e010402 	cdpcs	4, 0, cr0, cr1, cr2, {0}
    1fc4:	02000b05 	andeq	r0, r0, #5120	; 0x1400
    1fc8:	05010104 	streq	r0, [r1, #-260]	; 0xfffffefc
    1fcc:	04020015 	streq	r0, [r2], #-21	; 0xffffffeb
    1fd0:	05010601 	streq	r0, [r1, #-1537]	; 0xfffff9ff
    1fd4:	0402000b 	streq	r0, [r2], #-11
    1fd8:	13052e01 	movwne	r2, #24065	; 0x5e01
    1fdc:	01040200 	mrseq	r0, R12_usr
    1fe0:	000b052e 	andeq	r0, fp, lr, lsr #10
    1fe4:	2e010402 	cdpcs	4, 0, cr0, cr1, cr2, {0}
    1fe8:	01000402 	tsteq	r0, r2, lsl #8
    1fec:	0000fd01 	andeq	pc, r0, r1, lsl #26
    1ff0:	bf000300 	svclt	0x00000300
    1ff4:	02000000 	andeq	r0, r0, #0, 0
    1ff8:	0d0efb01 	vstreq	d15, [lr, #-4]
    1ffc:	01010100 	mrseq	r0, (UNDEF: 17)
    2000:	00000001 	andeq	r0, r0, r1
    2004:	01000001 	tsteq	r0, r1
    2008:	696c2f2e 	stmdbvs	ip!, {r1, r2, r3, r5, r8, r9, sl, fp, sp}^
    200c:	2f006362 	svccs	0x00006362
    2010:	72657355 	rsbvc	r7, r5, #1409286145	; 0x54000001
    2014:	696d2f73 	stmdbvs	sp!, {r0, r1, r4, r5, r6, r8, r9, sl, fp, sp}^
    2018:	2f73656c 	svccs	0x0073656c
    201c:	72756f53 	rsbsvc	r6, r5, #332	; 0x14c
    2020:	632f6563 			; <UNDEFINED> instruction: 0x632f6563
    2024:	30343273 	eorscc	r3, r4, r3, ror r2
    2028:	6c2f786c 	stcvs	8, cr7, [pc], #-432	; 1e80 <__code_start__-0x6180>
    202c:	69706269 	ldmdbvs	r0!, {r0, r3, r5, r6, r9, sp, lr}^
    2030:	636e692f 	cmnvs	lr, #770048	; 0xbc000
    2034:	6564756c 	strbvs	r7, [r4, #-1388]!	; 0xfffffa94
    2038:	706f2f00 	rsbvc	r2, pc, r0, lsl #30
    203c:	6f682f74 	svcvs	0x00682f74
    2040:	7262656d 	rsbvc	r6, r2, #457179136	; 0x1b400000
    2044:	432f7765 			; <UNDEFINED> instruction: 0x432f7765
    2048:	616c6c65 	cmnvs	ip, r5, ror #24
    204c:	72612f72 	rsbvc	r2, r1, #456	; 0x1c8
    2050:	6f6e2d6d 	svcvs	0x006e2d6d
    2054:	652d656e 	strvs	r6, [sp, #-1390]!	; 0xfffffa92
    2058:	2d696261 	sfmcs	f6, 2, [r9, #-388]!	; 0xfffffe7c
    205c:	2d392f39 	ldccs	15, cr2, [r9, #-228]!	; 0xffffff1c
    2060:	39313032 	ldmdbcc	r1!, {r1, r4, r5, ip, sp}
    2064:	632d3471 			; <UNDEFINED> instruction: 0x632d3471
    2068:	37303173 			; <UNDEFINED> instruction: 0x37303173
    206c:	696c2f65 	stmdbvs	ip!, {r0, r2, r5, r6, r8, r9, sl, fp, sp}^
    2070:	63672f62 	cmnvs	r7, #392	; 0x188
    2074:	72612f63 	rsbvc	r2, r1, #396	; 0x18c
    2078:	6f6e2d6d 	svcvs	0x006e2d6d
    207c:	652d656e 	strvs	r6, [sp, #-1390]!	; 0xfffffa92
    2080:	2f696261 	svccs	0x00696261
    2084:	2e322e39 	mrccs	14, 1, r2, cr2, cr9, {1}
    2088:	6e692f31 	mcrvs	15, 3, r2, cr9, cr1, {1}
    208c:	64756c63 	ldrbtvs	r6, [r5], #-3171	; 0xfffff39d
    2090:	73000065 	movwvc	r0, #101	; 0x65
    2094:	636e7274 	cmnvs	lr, #116, 4	; 0x40000007
    2098:	632e706d 			; <UNDEFINED> instruction: 0x632e706d
    209c:	00000100 	andeq	r0, r0, r0, lsl #2
    20a0:	2e697072 	mcrcs	0, 3, r7, cr9, cr2, {3}
    20a4:	00020068 	andeq	r0, r2, r8, rrx
    20a8:	64747300 	ldrbtvs	r7, [r4], #-768	; 0xfffffd00
    20ac:	2e666564 	cdpcs	5, 6, cr6, cr6, cr4, {3}
    20b0:	00030068 	andeq	r0, r3, r8, rrx
    20b4:	39050000 	stmdbcc	r5, {}	; <UNPREDICTABLE>
    20b8:	48020500 	stmdami	r2, {r8, sl}
    20bc:	15000098 	strne	r0, [r0, #-152]	; 0xffffff68
    20c0:	13130505 	tstne	r3, #20971520	; 0x1400000
    20c4:	2e060a05 	vmlacs.f32	s0, s12, s10
    20c8:	052f0c05 	streq	r0, [pc, #-3077]!	; 14cb <__code_start__-0x6b35>
    20cc:	0b052e13 	bleq	14d920 <__bss_end__+0x143800>
    20d0:	0609052e 	streq	r0, [r9], -lr, lsr #10
    20d4:	110a054a 	tstne	sl, sl, asr #10
    20d8:	0c050106 	stfeqs	f0, [r5], {6}
    20dc:	2f01054e 	svccs	0x0001054e
    20e0:	2b060d05 	blcs	1854fc <__bss_end__+0x17b3dc>
    20e4:	01061b05 	tsteq	r6, r5, lsl #22
    20e8:	0002022e 	andeq	r0, r2, lr, lsr #4
    20ec:	008a0101 	addeq	r0, sl, r1, lsl #2
    20f0:	00030000 	andeq	r0, r3, r0
    20f4:	0000006e 	andeq	r0, r0, lr, rrx
    20f8:	0efb0102 	cdpeq	1, 15, cr0, cr11, cr2, {0}
    20fc:	0101000d 	tsteq	r1, sp
    2100:	00000101 	andeq	r0, r0, r1, lsl #2
    2104:	00000100 	andeq	r0, r0, r0, lsl #2
    2108:	732f2e01 			; <UNDEFINED> instruction: 0x732f2e01
    210c:	66666174 			; <UNDEFINED> instruction: 0x66666174
    2110:	6372732d 	cmnvs	r2, #-1275068416	; 0xb4000000
    2114:	73552f00 	cmpvc	r5, #0, 30
    2118:	2f737265 	svccs	0x00737265
    211c:	656c696d 	strbvs	r6, [ip, #-2413]!	; 0xfffff693
    2120:	6f532f73 	svcvs	0x00532f73
    2124:	65637275 	strbvs	r7, [r3, #-629]!	; 0xfffffd8b
    2128:	3273632f 	rsbscc	r6, r3, #-1140850688	; 0xbc000000
    212c:	786c3034 	stmdavc	ip!, {r2, r4, r5, ip, sp}^
    2130:	62696c2f 	rsbvs	r6, r9, #12032	; 0x2f00
    2134:	692f6970 	stmdbvs	pc!, {r4, r5, r6, r8, fp, sp, lr}	; <UNPREDICTABLE>
    2138:	756c636e 	strbvc	r6, [ip, #-878]!	; 0xfffffc92
    213c:	00006564 	andeq	r6, r0, r4, ror #10
    2140:	61666564 	cmnvs	r6, r4, ror #10
    2144:	2d746c75 	ldclcs	12, cr6, [r4, #-468]!	; 0xfffffe2c
    2148:	6f626572 	svcvs	0x00626572
    214c:	632d746f 			; <UNDEFINED> instruction: 0x632d746f
    2150:	6f6c6c61 	svcvs	0x006c6c61
    2154:	632e7475 			; <UNDEFINED> instruction: 0x632e7475
    2158:	00000100 	andeq	r0, r0, r0, lsl #2
    215c:	2e697072 	mcrcs	0, 3, r7, cr9, cr2, {3}
    2160:	00020068 	andeq	r0, r2, r8, rrx
    2164:	1b050000 	blne	14216c <__bss_end__+0x13804c>
    2168:	78020500 	stmdavc	r2, {r8, sl}
    216c:	14000098 	strne	r0, [r0], #-152	; 0xffffff68
    2170:	05011c05 	streq	r1, [r1, #-3077]	; 0xfffff3fb
    2174:	02010601 	andeq	r0, r1, #1048576	; 0x100000
    2178:	01010002 	tsteq	r1, r2

Disassembly of section .debug_str:

00000000 <.debug_str>:
   0:	6d746f6e 	ldclvs	15, cr6, [r4, #-440]!	; 0xfffffe48
   4:	006e6961 	rsbeq	r6, lr, r1, ror #18
   8:	69736e75 	ldmdbvs	r3!, {r0, r2, r4, r5, r6, r9, sl, fp, sp, lr}^
   c:	64656e67 	strbtvs	r6, [r5], #-3687	; 0xfffff199
  10:	61686320 	cmnvs	r8, r0, lsr #6
  14:	6c630072 	stclvs	0, cr0, [r3], #-456	; 0xfffffe38
  18:	5f6e6165 	svcpl	0x006e6165
  1c:	6f626572 	svcvs	0x00626572
  20:	7300746f 	movwvc	r7, #1135	; 0x46f
  24:	74726f68 	ldrbtvc	r6, [r2], #-3944	; 0xfffff098
  28:	736e7520 	cmnvc	lr, #32, 10	; 0x8000000
  2c:	656e6769 	strbvs	r6, [lr, #-1897]!	; 0xfffff897
  30:	6e692064 	cdpvs	0, 6, cr2, cr9, cr4, {3}
  34:	726b0074 	rsbvc	r0, fp, #116, 0	; 0x74
  38:	6572665f 	ldrbvs	r6, [r2, #-1631]!	; 0xfffff9a1
  3c:	5f5f0065 	svcpl	0x005f0065
  40:	434e5546 	movtmi	r5, #58694	; 0xe546
  44:	4e4f4954 			; <UNDEFINED> instruction: 0x4e4f4954
  48:	30005f5f 	andcc	r5, r0, pc, asr pc
  4c:	7365742d 	cmnvc	r5, #754974720	; 0x2d000000
  50:	616d2d74 	smcvs	53972	; 0xd2d4
  54:	636f6c6c 	cmnvs	pc, #108, 24	; 0x6c00
  58:	6e00632e 	cdpvs	3, 0, cr6, cr0, cr14, {1}
  5c:	74736574 	ldrbtvc	r6, [r3], #-1396	; 0xfffffa8c
  60:	6f6c0073 	svcvs	0x006c0073
  64:	6c20676e 	stcvs	7, cr6, [r0], #-440	; 0xfffffe48
  68:	20676e6f 	rsbcs	r6, r7, pc, ror #28
  6c:	69736e75 	ldmdbvs	r3!, {r0, r2, r4, r5, r6, r9, sl, fp, sp, lr}^
  70:	64656e67 	strbtvs	r6, [r5], #-3687	; 0xfffff199
  74:	746e6920 	strbtvc	r6, [lr], #-2336	; 0xfffff6e0
  78:	6e6f6c00 	cdpvs	12, 6, cr6, cr15, cr0, {0}
  7c:	6f6c2067 	svcvs	0x006c2067
  80:	6920676e 	stmdbvs	r0!, {r1, r2, r3, r5, r6, r8, r9, sl, sp, lr}
  84:	7200746e 	andvc	r7, r0, #1845493760	; 0x6e000000
  88:	705f6970 	subsvc	r6, pc, r0, ror r9	; <UNPREDICTABLE>
  8c:	68637475 	stmdavs	r3!, {r0, r2, r4, r5, r6, sl, ip, sp, lr}^
  90:	2f007261 	svccs	0x00007261
  94:	72657355 	rsbvc	r7, r5, #1409286145	; 0x54000001
  98:	696d2f73 	stmdbvs	sp!, {r0, r1, r4, r5, r6, r8, r9, sl, fp, sp}^
  9c:	2f73656c 	svccs	0x0073656c
  a0:	72756f53 	rsbsvc	r6, r5, #332	; 0x14c
  a4:	632f6563 			; <UNDEFINED> instruction: 0x632f6563
  a8:	30343273 	eorscc	r3, r4, r3, ror r2
  ac:	6c2f786c 	stcvs	8, cr7, [pc], #-432	; ffffff04 <__bss_end__+0xffff5de4>
  b0:	2f736261 	svccs	0x00736261
  b4:	616d2d35 	cmnvs	sp, r5, lsr sp
  b8:	636f6c6c 	cmnvs	pc, #108, 24	; 0x6c00
  bc:	2f63672b 	svccs	0x0063672b
  c0:	6b632d32 	blvs	18cb590 <__bss_end__+0x18c1470>
  c4:	6f6c6c61 	svcvs	0x006c6c61
  c8:	68730063 	ldmdavs	r3!, {r0, r1, r5, r6}^
  cc:	2074726f 	rsbscs	r7, r4, pc, ror #4
  d0:	00746e69 	rsbseq	r6, r4, r9, ror #28
  d4:	6d5f726b 	lfmvs	f7, 2, [pc, #-428]	; ffffff30 <__bss_end__+0xffff5e10>
  d8:	6f6c6c61 	svcvs	0x006c6c61
  dc:	4e470063 	cdpmi	0, 4, cr0, cr7, cr3, {3}
  e0:	39432055 	stmdbcc	r3, {r0, r2, r4, r6, sp}^
  e4:	2e392039 	mrccs	0, 1, r2, cr9, cr9, {1}
  e8:	20312e32 	eorscs	r2, r1, r2, lsr lr
  ec:	39313032 	ldmdbcc	r1!, {r1, r4, r5, ip, sp}
  f0:	35323031 	ldrcc	r3, [r2, #-49]!	; 0xffffffcf
  f4:	65722820 	ldrbvs	r2, [r2, #-2080]!	; 0xfffff7e0
  f8:	7361656c 	cmnvc	r1, #108, 10	; 0x1b000000
  fc:	5b202965 	blpl	80a698 <__bss_end__+0x800578>
 100:	2f4d5241 	svccs	0x004d5241
 104:	2d6d7261 	sfmcs	f7, 2, [sp, #-388]!	; 0xfffffe7c
 108:	72622d39 	rsbvc	r2, r2, #3648	; 0xe40
 10c:	68636e61 	stmdavs	r3!, {r0, r5, r6, r9, sl, fp, sp, lr}^
 110:	76657220 	strbtvc	r7, [r5], -r0, lsr #4
 114:	6f697369 	svcvs	0x00697369
 118:	3732206e 	ldrcc	r2, [r2, -lr, rrx]!
 11c:	39393537 	ldmdbcc	r9!, {r0, r1, r2, r4, r5, r8, sl, ip, sp}
 120:	6d2d205d 	stcvs	0, cr2, [sp, #-372]!	; 0xfffffe8c
 124:	3d757063 	ldclcc	0, cr7, [r5, #-396]!	; 0xfffffe74
 128:	316d7261 	cmncc	sp, r1, ror #4
 12c:	6a363731 	bvs	d8ddf8 <__bss_end__+0xd83cd8>
 130:	732d667a 			; <UNDEFINED> instruction: 0x732d667a
 134:	746d2d20 	strbtvc	r2, [sp], #-3360	; 0xfffff2e0
 138:	3d656e75 	stclcc	14, cr6, [r5, #-468]!	; 0xfffffe2c
 13c:	316d7261 	cmncc	sp, r1, ror #4
 140:	6a363731 	bvs	d8de0c <__bss_end__+0xd83cec>
 144:	732d667a 			; <UNDEFINED> instruction: 0x732d667a
 148:	666d2d20 	strbtvs	r2, [sp], -r0, lsr #26
 14c:	74616f6c 	strbtvc	r6, [r1], #-3948	; 0xfffff094
 150:	6962612d 	stmdbvs	r2!, {r0, r2, r3, r5, r8, sp, lr}^
 154:	666f733d 			; <UNDEFINED> instruction: 0x666f733d
 158:	6d2d2074 	stcvs	0, cr2, [sp, #-464]!	; 0xfffffe30
 15c:	206d7261 	rsbcs	r7, sp, r1, ror #4
 160:	72616d2d 	rsbvc	r6, r1, #2880	; 0xb40
 164:	613d6863 	teqvs	sp, r3, ror #16
 168:	36766d72 			; <UNDEFINED> instruction: 0x36766d72
 16c:	2d207a6b 	vstmdbcs	r0!, {s14-s120}
 170:	62646767 	rsbvs	r6, r4, #27000832	; 0x19c0000
 174:	674f2d20 	strbvs	r2, [pc, -r0, lsr #26]
 178:	74732d20 	ldrbtvc	r2, [r3], #-3360	; 0xfffff2e0
 17c:	6e673d64 	cdpvs	13, 6, cr3, cr7, cr4, {3}
 180:	20393975 	eorscs	r3, r9, r5, ror r9
 184:	7266662d 	rsbvc	r6, r6, #47185920	; 0x2d00000
 188:	74736565 	ldrbtvc	r6, [r3], #-1381	; 0xfffffa9b
 18c:	69646e61 	stmdbvs	r4!, {r0, r5, r6, r9, sl, fp, sp, lr}^
 190:	6800676e 	stmdavs	r0, {r1, r2, r3, r5, r6, r8, r9, sl, sp, lr}
 194:	65646165 	strbvs	r6, [r4, #-357]!	; 0xfffffe9b
 198:	72700072 	rsbsvc	r0, r0, #114, 0	; 0x72
 19c:	00707665 	rsbseq	r7, r0, r5, ror #12
 1a0:	67696c61 	strbvs	r6, [r9, -r1, ror #24]!
 1a4:	7266006e 	rsbvc	r0, r6, #110, 0	; 0x6e
 1a8:	00706565 	rsbseq	r6, r0, r5, ror #10
 1ac:	696e756e 	stmdbvs	lr!, {r1, r2, r3, r5, r6, r8, sl, ip, sp, lr}^
 1b0:	6b007374 	blvs	1cf88 <__bss_end__+0x12e68>
 1b4:	616d2d72 	smcvs	53970	; 0xd2d2
 1b8:	636f6c6c 	cmnvs	pc, #108, 24	; 0x6c00
 1bc:	6400632e 	strvs	r6, [r0], #-814	; 0xfffffcd2
 1c0:	6c62756f 	cfstr64vs	mvdx7, [r2], #-444	; 0xfffffe44
 1c4:	61620065 	cmnvs	r2, r5, rrx
 1c8:	73006573 	movwvc	r6, #1395	; 0x573
 1cc:	006b7262 	rsbeq	r7, fp, r2, ror #4
 1d0:	65726f6d 	ldrbvs	r6, [r2, #-3949]!	; 0xfffff093
 1d4:	65726f63 	ldrbvs	r6, [r2, #-3939]!	; 0xfffff09d
 1d8:	7a697300 	bvc	1a5cde0 <__bss_end__+0x1a52cc0>
 1dc:	65480065 	strbvs	r0, [r8, #-101]	; 0xffffff9b
 1e0:	72656461 	rsbvc	r6, r5, #1627389952	; 0x61000000
 1e4:	636e6900 	cmnvs	lr, #0, 18
 1e8:	656d6572 	strbvs	r6, [sp, #-1394]!	; 0xfffffa8e
 1ec:	6b00746e 	blvs	1d3ac <__bss_end__+0x1328c>
 1f0:	6c6c616d 	stfvse	f6, [ip], #-436	; 0xfffffe4c
 1f4:	7000636f 	andvc	r6, r0, pc, ror #6
 1f8:	62732d69 	rsbsvs	r2, r3, #6720	; 0x1a40
 1fc:	632e6b72 			; <UNDEFINED> instruction: 0x632e6b72
 200:	67726100 	ldrbvs	r6, [r2, -r0, lsl #2]!
 204:	61760073 	cmnvs	r6, r3, ror r0
 208:	6972705f 	ldmdbvs	r2!, {r0, r1, r2, r3, r4, r6, ip, sp, lr}^
 20c:	006b746e 	rsbeq	r7, fp, lr, ror #8
 210:	6e675f5f 	mcrvs	15, 3, r5, cr7, cr15, {2}
 214:	765f6375 			; <UNDEFINED> instruction: 0x765f6375
 218:	696c5f61 	stmdbvs	ip!, {r0, r5, r6, r8, r9, sl, fp, ip, lr}^
 21c:	47007473 	smlsdxmi	r0, r3, r4, r7
 220:	4320554e 			; <UNDEFINED> instruction: 0x4320554e
 224:	39203939 	stmdbcc	r0!, {r0, r3, r4, r5, r8, fp, ip, sp}
 228:	312e322e 			; <UNDEFINED> instruction: 0x312e322e
 22c:	31303220 	teqcc	r0, r0, lsr #4
 230:	32303139 	eorscc	r3, r0, #1073741838	; 0x4000000e
 234:	72282035 	eorvc	r2, r8, #53, 0	; 0x35
 238:	61656c65 	cmnvs	r5, r5, ror #24
 23c:	20296573 	eorcs	r6, r9, r3, ror r5
 240:	4d52415b 	ldfmie	f4, [r2, #-364]	; 0xfffffe94
 244:	6d72612f 	ldfvse	f6, [r2, #-188]!	; 0xffffff44
 248:	622d392d 	eorvs	r3, sp, #737280	; 0xb4000
 24c:	636e6172 	cmnvs	lr, #-2147483620	; 0x8000001c
 250:	65722068 	ldrbvs	r2, [r2, #-104]!	; 0xffffff98
 254:	69736976 	ldmdbvs	r3!, {r1, r2, r4, r5, r6, r8, fp, sp, lr}^
 258:	32206e6f 	eorcc	r6, r0, #1776	; 0x6f0
 25c:	39353737 	ldmdbcc	r5!, {r0, r1, r2, r4, r5, r8, r9, sl, ip, sp}
 260:	2d205d39 	stccs	13, cr5, [r0, #-228]!	; 0xffffff1c
 264:	7570636d 	ldrbvc	r6, [r0, #-877]!	; 0xfffffc93
 268:	6d72613d 	ldfvse	f6, [r2, #-244]!	; 0xffffff0c
 26c:	36373131 			; <UNDEFINED> instruction: 0x36373131
 270:	2d667a6a 	vstmdbcs	r6!, {s15-s120}
 274:	6d2d2073 	stcvs	0, cr2, [sp, #-460]!	; 0xfffffe34
 278:	656e7574 	strbvs	r7, [lr, #-1396]!	; 0xfffffa8c
 27c:	6d72613d 	ldfvse	f6, [r2, #-244]!	; 0xffffff0c
 280:	36373131 			; <UNDEFINED> instruction: 0x36373131
 284:	2d667a6a 	vstmdbcs	r6!, {s15-s120}
 288:	6d2d2073 	stcvs	0, cr2, [sp, #-460]!	; 0xfffffe34
 28c:	616f6c66 	cmnvs	pc, r6, ror #24
 290:	62612d74 	rsbvs	r2, r1, #116, 26	; 0x1d00
 294:	6f733d69 	svcvs	0x00733d69
 298:	2d207466 	cfstrscs	mvf7, [r0, #-408]!	; 0xfffffe68
 29c:	6d72616d 	ldfvse	f6, [r2, #-436]!	; 0xfffffe4c
 2a0:	616d2d20 	cmnvs	sp, r0, lsr #26
 2a4:	3d686372 	stclcc	3, cr6, [r8, #-456]!	; 0xfffffe38
 2a8:	766d7261 	strbtvc	r7, [sp], -r1, ror #4
 2ac:	207a6b36 	rsbscs	r6, sl, r6, lsr fp
 2b0:	6467672d 	strbtvs	r6, [r7], #-1837	; 0xfffff8d3
 2b4:	4f2d2062 	svcmi	0x002d2062
 2b8:	74736166 	ldrbtvc	r6, [r3], #-358	; 0xfffffe9a
 2bc:	74732d20 	ldrbtvc	r2, [r3], #-3360	; 0xfffff2e0
 2c0:	6e673d64 	cdpvs	13, 6, cr3, cr7, cr4, {3}
 2c4:	20393975 	eorscs	r3, r9, r5, ror r9
 2c8:	7266662d 	rsbvc	r6, r6, #47185920	; 0x2d00000
 2cc:	74736565 	ldrbtvc	r6, [r3], #-1381	; 0xfffffa9b
 2d0:	69646e61 	stmdbvs	r4!, {r0, r5, r6, r9, sl, fp, sp, lr}^
 2d4:	5f00676e 	svcpl	0x0000676e
 2d8:	0070615f 	rsbseq	r6, r0, pc, asr r1
 2dc:	696c2f2e 	stmdbvs	ip!, {r1, r2, r3, r5, r8, r9, sl, fp, sp}^
 2e0:	702f6362 	eorvc	r6, pc, r2, ror #6
 2e4:	746e6972 	strbtvc	r6, [lr], #-2418	; 0xfffff68e
 2e8:	00632e6b 	rsbeq	r2, r3, fp, ror #28
 2ec:	61765f5f 	cmnvs	r6, pc, asr pc
 2f0:	73696c5f 	cmnvc	r9, #24320	; 0x5f00
 2f4:	552f0074 	strpl	r0, [pc, #-116]!	; 288 <__code_start__-0x7d78>
 2f8:	73726573 	cmnvc	r2, #482344960	; 0x1cc00000
 2fc:	6c696d2f 	stclvs	13, cr6, [r9], #-188	; 0xffffff44
 300:	532f7365 			; <UNDEFINED> instruction: 0x532f7365
 304:	6372756f 	cmnvs	r2, #465567744	; 0x1bc00000
 308:	73632f65 	cmnvc	r3, #404	; 0x194
 30c:	6c303432 	cfldrsvs	mvf3, [r0], #-200	; 0xffffff38
 310:	696c2f78 	stmdbvs	ip!, {r3, r4, r5, r6, r8, r9, sl, fp, sp}^
 314:	00697062 	rsbeq	r7, r9, r2, rrx
 318:	65746e69 	ldrbvs	r6, [r4, #-3689]!	; 0xfffff197
 31c:	6c616e72 	stclvs	14, cr6, [r1], #-456	; 0xfffffe38
 320:	7475705f 	ldrbtvc	r7, [r5], #-95	; 0xffffffa1
 324:	2f2e006b 	svccs	0x002e006b
 328:	6362696c 	cmnvs	r2, #108, 18	; 0x1b0000
 32c:	7475702f 	ldrbtvc	r7, [r5], #-47	; 0xffffffd1
 330:	00632e6b 	rsbeq	r2, r3, fp, ror #28
 334:	69647369 	stmdbvs	r4!, {r0, r3, r5, r6, r8, r9, ip, sp, lr}^
 338:	00746967 	rsbseq	r6, r4, r7, ror #18
 33c:	746e6975 	strbtvc	r6, [lr], #-2421	; 0xfffff68b
 340:	745f3436 	ldrbvc	r3, [pc], #-1078	; 348 <__code_start__-0x7cb8>
 344:	6c2f2e00 	stcvs	14, cr2, [pc], #-0	; 34c <__code_start__-0x7cb4>
 348:	2f636269 	svccs	0x00636269
 34c:	702d6176 	eorvc	r6, sp, r6, ror r1
 350:	746e6972 	strbtvc	r6, [lr], #-2418	; 0xfffff68e
 354:	00632e6b 	rsbeq	r2, r3, fp, ror #28
 358:	6f635f5f 	svcvs	0x00635f5f
 35c:	735f6564 	cmpvc	pc, #100, 10	; 0x19000000
 360:	74726174 	ldrbtvc	r6, [r2], #-372	; 0xfffffe8c
 364:	5f005f5f 	svcpl	0x00005f5f
 368:	7373625f 	cmnvc	r3, #-268435451	; 0xf0000005
 36c:	6174735f 	cmnvs	r4, pc, asr r3
 370:	5f5f7472 	svcpl	0x005f7472
 374:	64697700 	strbtvs	r7, [r9], #-1792	; 0xfffff900
 378:	5f006874 	svcpl	0x00006874
 37c:	7461645f 	strbtvc	r6, [r1], #-1119	; 0xfffffba1
 380:	6e655f61 	cdpvs	15, 6, cr5, cr5, cr1, {3}
 384:	005f5f64 	subseq	r5, pc, r4, ror #30
 388:	63747570 	cmnvs	r4, #112, 10	; 0x1c000000
 38c:	0070665f 	rsbseq	r6, r0, pc, asr r6
 390:	73625f5f 	cmnvc	r2, #380	; 0x17c
 394:	6e655f73 	mcrvs	15, 3, r5, cr5, cr3, {3}
 398:	005f5f64 	subseq	r5, pc, r4, ror #30
 39c:	65685f5f 	strbvs	r5, [r8, #-3935]!	; 0xfffff0a1
 3a0:	735f7061 	cmpvc	pc, #97, 0	; 0x61
 3a4:	74726174 	ldrbtvc	r6, [r2], #-372	; 0xfffffe8c
 3a8:	75005f5f 	strvc	r5, [r0, #-3935]	; 0xfffff0a1
 3ac:	33746e69 	cmncc	r4, #1680	; 0x690
 3b0:	00745f32 	rsbseq	r5, r4, r2, lsr pc
 3b4:	5f697072 	svcpl	0x00697072
 3b8:	5f746573 	svcpl	0x00746573
 3bc:	7074756f 	rsbsvc	r7, r4, pc, ror #10
 3c0:	66007475 			; <UNDEFINED> instruction: 0x66007475
 3c4:	735f746d 	cmpvc	pc, #1828716544	; 0x6d000000
 3c8:	74726174 	ldrbtvc	r6, [r2], #-372	; 0xfffffe8c
 3cc:	72747300 	rsbsvc	r7, r4, #0, 6
 3d0:	00746163 	rsbseq	r6, r4, r3, ror #2
 3d4:	63727473 	cmnvs	r2, #1929379840	; 0x73000000
 3d8:	6e007970 			; <UNDEFINED> instruction: 0x6e007970
 3dc:	705f6765 	subsvc	r6, pc, r5, ror #14
 3e0:	635f5f00 	cmpvs	pc, #0, 30
 3e4:	5f65646f 	svcpl	0x0065646f
 3e8:	5f646e65 	svcpl	0x00646e65
 3ec:	6d65005f 	stclvs	0, cr0, [r5, #-380]!	; 0xfffffe84
 3f0:	72007469 	andvc	r7, r0, #1761607680	; 0x69000000
 3f4:	72657665 	rsbvc	r7, r5, #105906176	; 0x6500000
 3f8:	73006573 	movwvc	r6, #1395	; 0x573
 3fc:	6d637274 	sfmvs	f7, 2, [r3, #-464]!	; 0xfffffe30
 400:	75700070 	ldrbvc	r0, [r0, #-112]!	; 0xffffff90
 404:	665f7374 			; <UNDEFINED> instruction: 0x665f7374
 408:	5f5f0070 	svcpl	0x005f0070
 40c:	61746164 	cmnvs	r4, r4, ror #2
 410:	6174735f 	cmnvs	r4, pc, asr r3
 414:	5f5f7472 	svcpl	0x005f7472
 418:	705f5f00 	subsvc	r5, pc, r0, lsl #30
 41c:	5f676f72 	svcpl	0x00676f72
 420:	5f646e65 	svcpl	0x00646e65
 424:	756e005f 	strbvc	r0, [lr, #-95]!	; 0xffffffa1
 428:	7300316d 	movwvc	r3, #365	; 0x16d
 42c:	636e7274 	cmnvs	lr, #116, 4	; 0x40000007
 430:	7300706d 	movwvc	r7, #109	; 0x6d
 434:	656e6769 	strbvs	r6, [lr, #-1897]!	; 0xfffff897
 438:	00705f64 	rsbseq	r5, r0, r4, ror #30
 43c:	5f697072 	svcpl	0x00697072
 440:	6f626572 	svcvs	0x00626572
 444:	6400746f 	strvs	r7, [r0], #-1135	; 0xfffffb91
 448:	79616c65 	stmdbvc	r1!, {r0, r2, r5, r6, sl, fp, sp, lr}^
 44c:	00736d5f 	rsbseq	r6, r3, pc, asr sp
 450:	74732f2e 	ldrbtvc	r2, [r3], #-3886	; 0xfffff0d2
 454:	2d666661 	stclcs	6, cr6, [r6, #-388]!	; 0xfffffe7c
 458:	2f637273 	svccs	0x00637273
 45c:	61656c63 	cmnvs	r5, r3, ror #24
 460:	65722d6e 	ldrbvs	r2, [r2, #-3438]!	; 0xfffff292
 464:	746f6f62 	strbtvc	r6, [pc], #-3938	; 46c <__code_start__-0x7b94>
 468:	7500632e 	strvc	r6, [r0, #-814]	; 0xfffffcd2
 46c:	5f747261 	svcpl	0x00747261
 470:	73756c66 	cmnvc	r5, #26112	; 0x6600
 474:	78745f68 	ldmdavc	r4!, {r3, r5, r6, r8, r9, sl, fp, ip, lr}^
 478:	73635f00 	cmnvc	r3, #0, 30
 47c:	74726174 	ldrbtvc	r6, [r2], #-372	; 0xfffffe8c
 480:	73736200 	cmnvc	r3, #0, 4
 484:	646e655f 	strbtvs	r6, [lr], #-1375	; 0xfffffaa1
 488:	72617500 	rsbvc	r7, r1, #0, 10
 48c:	6e695f74 	mcrvs	15, 3, r5, cr9, cr4, {3}
 490:	63007469 	movwvs	r7, #1129	; 0x469
 494:	6f747375 	svcvs	0x00747375
 498:	6f6c5f6d 	svcvs	0x006c5f6d
 49c:	72656461 	rsbvc	r6, r5, #1627389952	; 0x61000000
 4a0:	732f2e00 			; <UNDEFINED> instruction: 0x732f2e00
 4a4:	66666174 			; <UNDEFINED> instruction: 0x66666174
 4a8:	6372732d 	cmnvs	r2, #-1275068416	; 0xb4000000
 4ac:	7473632f 	ldrbtvc	r6, [r3], #-815	; 0xfffffcd1
 4b0:	2e747261 	cdpcs	2, 7, cr7, cr4, cr1, {3}
 4b4:	2f2e0063 	svccs	0x002e0063
 4b8:	66617473 			; <UNDEFINED> instruction: 0x66617473
 4bc:	72732d66 	rsbsvc	r2, r3, #6528	; 0x1980
 4c0:	75632f63 	strbvc	r2, [r3, #-3939]!	; 0xfffff09d
 4c4:	6d6f7473 	cfstrdvs	mvd7, [pc, #-460]!	; 300 <__code_start__-0x7d00>
 4c8:	616f6c2d 	cmnvs	pc, sp, lsr #24
 4cc:	2e726564 	cdpcs	5, 7, cr6, cr2, cr4, {3}
 4d0:	65720063 	ldrbvs	r0, [r2, #-99]!	; 0xffffff9d
 4d4:	746f6f62 	strbtvc	r6, [pc], #-3938	; 4dc <__code_start__-0x7b24>
 4d8:	6c61635f 	stclvs	3, cr6, [r1], #-380	; 0xfffffe84
 4dc:	74756f6c 	ldrbtvc	r6, [r5], #-3948	; 0xfffff094
 4e0:	5f4d5000 	svcpl	0x004d5000
 4e4:	474f4457 	smlsldmi	r4, pc, r7, r4	; <UNPREDICTABLE>
 4e8:	54555000 	ldrbpl	r5, [r5], #-0
 4ec:	73003233 	movwvc	r3, #563	; 0x233
 4f0:	755f7465 	ldrbvc	r7, [pc, #-1125]	; 93 <__code_start__-0x7f6d>
 4f4:	5f726573 	svcpl	0x00726573
 4f8:	6576656c 	ldrbvs	r6, [r6, #-1388]!	; 0xfffffa94
 4fc:	2f2e006c 	svccs	0x002e006c
 500:	66617473 			; <UNDEFINED> instruction: 0x66617473
 504:	72732d66 	rsbsvc	r2, r3, #6528	; 0x1980
 508:	65722f63 	ldrbvs	r2, [r2, #-3939]!	; 0xfffff09d
 50c:	746f6f62 	strbtvc	r6, [pc], #-3938	; 514 <__code_start__-0x7aec>
 510:	5000632e 	andpl	r6, r0, lr, lsr #6
 514:	41505f4d 	cmpmi	r0, sp, asr #30
 518:	4f575353 	svcmi	0x00575353
 51c:	61004452 	tstvs	r0, r2, asr r4
 520:	73755f74 	cmnvc	r5, #116, 30	; 0x1d0
 524:	6c5f7265 	lfmvs	f7, 2, [pc], {101}	; 0x65
 528:	6c657665 	stclvs	6, cr7, [r5], #-404	; 0xfffffe6c
 52c:	5f4d5000 	svcpl	0x004d5000
 530:	43545352 	cmpmi	r4, #1207959553	; 0x48000001
 534:	4352575f 	cmpmi	r2, #24903680	; 0x17c0000
 538:	465f4746 	ldrbmi	r4, [pc], -r6, asr #14
 53c:	5f4c4c55 	svcpl	0x004c4c55
 540:	45534552 	ldrbmi	r4, [r3, #-1362]	; 0xfffffaae
 544:	4d500054 	ldclmi	0, cr0, [r0, #-336]	; 0xfffffeb0
 548:	5453525f 	ldrbpl	r5, [r3], #-607	; 0xfffffda1
 54c:	70630043 	rsbvc	r0, r3, r3, asr #32
 550:	64007273 	strvs	r7, [r0], #-627	; 0xfffffd8d
 554:	625f7665 	subsvs	r7, pc, #105906176	; 0x6500000
 558:	69727261 	ldmdbvs	r2!, {r0, r5, r6, r9, ip, sp, lr}^
 55c:	64007265 	strvs	r7, [r0], #-613	; 0xfffffd9b
 560:	79616c65 	stmdbvc	r1!, {r0, r2, r5, r6, sl, fp, sp, lr}^
 564:	6365735f 	cmnvs	r5, #2080374785	; 0x7c000001
 568:	732f2e00 			; <UNDEFINED> instruction: 0x732f2e00
 56c:	66666174 			; <UNDEFINED> instruction: 0x66666174
 570:	6372732d 	cmnvs	r2, #-1275068416	; 0xb4000000
 574:	6d69742f 	cfstrdvs	mvd7, [r9, #-188]!	; 0xffffff44
 578:	632e7265 			; <UNDEFINED> instruction: 0x632e7265
 57c:	54454700 	strbpl	r4, [r5], #-1792	; 0xfffff900
 580:	74003233 	strvc	r3, [r0], #-563	; 0xfffffdcd
 584:	72656d69 	rsbvc	r6, r5, #6720	; 0x1a40
 588:	7465675f 	strbtvc	r6, [r5], #-1887	; 0xfffff8a1
 58c:	6573755f 	ldrbvs	r7, [r3, #-1375]!	; 0xfffffaa1
 590:	65640063 	strbvs	r0, [r4, #-99]!	; 0xffffff9d
 594:	5f79616c 	svcpl	0x0079616c
 598:	74007375 	strvc	r7, [r0], #-885	; 0xfffffc8b
 59c:	72656d69 	rsbvc	r6, r5, #6720	; 0x1a40
 5a0:	7465675f 	strbtvc	r6, [r5], #-1887	; 0xfffff8a1
 5a4:	6573755f 	ldrbvs	r7, [r3, #-1375]!	; 0xfffffaa1
 5a8:	61725f63 	cmnvs	r2, r3, ror #30
 5ac:	75700077 	ldrbvc	r0, [r0, #-119]!	; 0xffffff89
 5b0:	00323374 	eorseq	r3, r2, r4, ror r3
 5b4:	64756162 	ldrbtvs	r6, [r5], #-354	; 0xfffffe9e
 5b8:	6c61765f 	stclvs	6, cr7, [r1], #-380	; 0xfffffe84
 5bc:	61747300 	cmnvs	r4, r0, lsl #6
 5c0:	61750074 	cmnvs	r5, r4, ror r0
 5c4:	635f7472 	cmpvs	pc, #1912602624	; 0x72000000
 5c8:	675f6e61 	ldrbvs	r6, [pc, -r1, ror #28]
 5cc:	00637465 	rsbeq	r7, r3, r5, ror #8
 5d0:	4f495047 	svcmi	0x00495047
 5d4:	4e55465f 	mrcmi	6, 2, r4, cr5, cr15, {2}
 5d8:	554f5f43 	strbpl	r5, [pc, #-3907]	; fffff69d <__bss_end__+0xffff557d>
 5dc:	54555054 	ldrbpl	r5, [r5], #-84	; 0xffffffac
 5e0:	78756100 	ldmdavc	r5!, {r8, sp, lr}^
 5e4:	7265705f 	rsbvc	r7, r5, #95, 0	; 0x5f
 5e8:	73687069 	cmnvc	r8, #105, 0	; 0x69
 5ec:	72617500 	rsbvc	r7, r1, #0, 10
 5f0:	00632e74 	rsbeq	r2, r3, r4, ror lr
 5f4:	74726175 	ldrbtvc	r6, [r2], #-373	; 0xfffffe8b
 5f8:	6e61635f 	mcrvs	3, 3, r6, cr1, cr15, {2}
 5fc:	7475705f 	ldrbtvc	r7, [r5], #-95	; 0xffffffa1
 600:	61750063 	cmnvs	r5, r3, rrx
 604:	745f7472 	ldrbvc	r7, [pc], #-1138	; 60c <__code_start__-0x79f4>
 608:	73695f78 	cmnvc	r9, #120, 30	; 0x1e0
 60c:	706d655f 	rsbvc	r6, sp, pc, asr r5
 610:	47007974 	smlsdxmi	r0, r4, r9, r7
 614:	5f4f4950 	svcpl	0x004f4950
 618:	434e5546 	movtmi	r5, #58694	; 0xe546
 61c:	544c415f 	strbpl	r4, [ip], #-351	; 0xfffffea1
 620:	50470030 	subpl	r0, r7, r0, lsr r0
 624:	465f4f49 	ldrbmi	r4, [pc], -r9, asr #30
 628:	5f434e55 	svcpl	0x00434e55
 62c:	31544c41 	cmpcc	r4, r1, asr #24
 630:	49504700 	ldmdbmi	r0, {r8, r9, sl, lr}^
 634:	55465f4f 	strbpl	r5, [r6, #-3919]	; 0xfffff0b1
 638:	415f434e 	cmpmi	pc, lr, asr #6
 63c:	0032544c 	eorseq	r5, r2, ip, asr #8
 640:	4f495047 	svcmi	0x00495047
 644:	4e55465f 	mrcmi	6, 2, r4, cr5, cr15, {2}
 648:	4c415f43 	mcrrmi	15, 4, r5, r1, cr3
 64c:	47003354 	smlsdmi	r0, r4, r3, r3
 650:	5f4f4950 	svcpl	0x004f4950
 654:	434e5546 	movtmi	r5, #58694	; 0xe546
 658:	544c415f 	strbpl	r4, [ip], #-351	; 0xfffffea1
 65c:	682f0035 	stmdavs	pc!, {r0, r2, r4, r5}	; <UNPREDICTABLE>
 660:	2f656d6f 	svccs	0x00656d6f
 664:	6c676e65 	stclvs	14, cr6, [r7], #-404	; 0xfffffe6c
 668:	632f7265 			; <UNDEFINED> instruction: 0x632f7265
 66c:	7373616c 	cmnvc	r3, #27
 670:	3273632f 	rsbscc	r6, r3, #-1140850688	; 0xbc000000
 674:	786c3034 	stmdavc	ip!, {r2, r4, r5, ip, sp}^
 678:	7332322d 	teqvc	r2, #-805306366	; 0xd0000002
 67c:	6c2f7270 	sfmvs	f7, 4, [pc], #-448	; 4c4 <__code_start__-0x7b3c>
 680:	69706269 	ldmdbvs	r0!, {r0, r3, r5, r6, r9, sp, lr}^
 684:	6174732f 	cmnvs	r4, pc, lsr #6
 688:	702d6666 	eorvc	r6, sp, r6, ror #12
 68c:	61766972 	cmnvs	r6, r2, ror r9
 690:	62006574 	andvs	r6, r0, #116, 10	; 0x1d000000
 694:	00647561 	rsbeq	r7, r4, r1, ror #10
 698:	5f787561 	svcpl	0x00787561
 69c:	62616e65 	rsbvs	r6, r1, #1616	; 0x650
 6a0:	0073656c 	rsbseq	r6, r3, ip, ror #10
 6a4:	74726175 	ldrbtvc	r6, [r2], #-373	; 0xfffffe8b
 6a8:	7465675f 	strbtvc	r6, [r5], #-1887	; 0xfffff8a1
 6ac:	4e470063 	cdpmi	0, 4, cr0, cr7, cr3, {3}
 6b0:	39432055 	stmdbcc	r3, {r0, r2, r4, r6, sp}^
 6b4:	30312039 	eorscc	r2, r1, r9, lsr r0
 6b8:	312e332e 			; <UNDEFINED> instruction: 0x312e332e
 6bc:	32303220 	eorscc	r3, r0, #32, 4
 6c0:	32383031 	eorscc	r3, r8, #49, 0	; 0x31
 6c4:	72282034 	eorvc	r2, r8, #52, 0	; 0x34
 6c8:	61656c65 	cmnvs	r5, r5, ror #24
 6cc:	20296573 	eorcs	r6, r9, r3, ror r5
 6d0:	70636d2d 	rsbvc	r6, r3, sp, lsr #26
 6d4:	72613d75 	rsbvc	r3, r1, #7488	; 0x1d40
 6d8:	3731316d 	ldrcc	r3, [r1, -sp, ror #2]!
 6dc:	667a6a36 			; <UNDEFINED> instruction: 0x667a6a36
 6e0:	2d20732d 	stccs	3, cr7, [r0, #-180]!	; 0xffffff4c
 6e4:	6e75746d 	cdpvs	4, 7, cr7, cr5, cr13, {3}
 6e8:	72613d65 	rsbvc	r3, r1, #6464	; 0x1940
 6ec:	3731316d 	ldrcc	r3, [r1, -sp, ror #2]!
 6f0:	667a6a36 			; <UNDEFINED> instruction: 0x667a6a36
 6f4:	2d20732d 	stccs	3, cr7, [r0, #-180]!	; 0xffffff4c
 6f8:	6f6c666d 	svcvs	0x006c666d
 6fc:	612d7461 			; <UNDEFINED> instruction: 0x612d7461
 700:	733d6962 	teqvc	sp, #1605632	; 0x188000
 704:	2074666f 	rsbscs	r6, r4, pc, ror #12
 708:	72616d2d 	rsbvc	r6, r1, #2880	; 0xb40
 70c:	6d2d206d 	stcvs	0, cr2, [sp, #-436]!	; 0xfffffe4c
 710:	68637261 	stmdavs	r3!, {r0, r5, r6, r9, ip, sp, lr}^
 714:	6d72613d 	ldfvse	f6, [r2, #-244]!	; 0xffffff0c
 718:	7a6b3676 	bvc	1ace0f8 <__bss_end__+0x1ac3fd8>
 71c:	67672d20 	strbvs	r2, [r7, -r0, lsr #26]!
 720:	2d206264 	sfmcs	f6, 4, [r0, #-400]!	; 0xfffffe70
 724:	2d20674f 	stccs	7, cr6, [r0, #-316]!	; 0xfffffec4
 728:	3d647473 	cfstrdcc	mvd7, [r4, #-460]!	; 0xfffffe34
 72c:	39756e67 	ldmdbcc	r5!, {r0, r1, r2, r5, r6, r9, sl, fp, sp, lr}^
 730:	662d2039 			; <UNDEFINED> instruction: 0x662d2039
 734:	65657266 	strbvs	r7, [r5, #-614]!	; 0xfffffd9a
 738:	6e617473 	mcrvs	4, 3, r7, cr1, cr3, {3}
 73c:	676e6964 	strbvs	r6, [lr, -r4, ror #18]!
 740:	746e6300 	strbtvc	r6, [lr], #-768	; 0xfffffd00
 744:	6175006c 	cmnvs	r5, ip, rrx
 748:	645f7472 	ldrbvs	r7, [pc], #-1138	; 750 <__code_start__-0x78b0>
 74c:	62617369 	rsbvs	r7, r1, #-1543503871	; 0xa4000001
 750:	7500656c 	strvc	r6, [r0, #-1388]	; 0xfffffa94
 754:	5f747261 	svcpl	0x00747261
 758:	5f736168 	svcpl	0x00736168
 75c:	61746164 	cmnvs	r4, r4, ror #2
 760:	49504700 	ldmdbmi	r0, {r8, r9, sl, lr}^
 764:	55465f4f 	strbpl	r5, [r6, #-3919]	; 0xfffff0b1
 768:	415f434e 	cmpmi	pc, lr, asr #6
 76c:	0034544c 	eorseq	r5, r4, ip, asr #8
 770:	695f726f 	ldmdbvs	pc, {r0, r1, r2, r3, r5, r6, r9, ip, sp, lr}^	; <UNPREDICTABLE>
 774:	0032336e 	eorseq	r3, r2, lr, ror #6
 778:	61726373 	cmnvs	r2, r3, ror r3
 77c:	00686374 	rsbeq	r6, r8, r4, ror r3
 780:	74726175 	ldrbtvc	r6, [r2], #-373	; 0xfffffe8b
 784:	646e6100 	strbtvs	r6, [lr], #-256	; 0xffffff00
 788:	336e695f 	cmncc	lr, #1556480	; 0x17c000
 78c:	61750032 	cmnvs	r5, r2, lsr r0
 790:	705f7472 	subsvc	r7, pc, r2, ror r4	; <UNPREDICTABLE>
 794:	00637475 	rsbeq	r7, r3, r5, ror r4
 798:	4f495047 	svcmi	0x00495047
 79c:	4e55465f 	mrcmi	6, 2, r4, cr5, cr15, {2}
 7a0:	4e495f43 	cdpmi	15, 4, cr5, cr9, cr3, {2}
 7a4:	00545550 	subseq	r5, r4, r0, asr r5
 7a8:	6f697067 	svcvs	0x00697067
 7ac:	7465735f 	strbtvc	r7, [r5], #-863	; 0xfffffca1
 7b0:	6e75665f 	mrcvs	6, 3, r6, cr5, cr15, {2}
 7b4:	6f697463 	svcvs	0x00697463
 7b8:	6567006e 	strbvs	r0, [r7, #-110]!	; 0xffffff92
 7bc:	00323374 	eorseq	r3, r2, r4, ror r3
 7c0:	6c616d6b 	stclvs	13, cr6, [r1], #-428	; 0xfffffe54
 7c4:	5f636f6c 	svcpl	0x00636f6c
 7c8:	70616568 	rsbvc	r6, r1, r8, ror #10
 7cc:	6174735f 	cmnvs	r4, pc, asr r3
 7d0:	6d007472 	cfstrsvs	mvf7, [r0, #-456]	; 0xfffffe38
 7d4:	6e5f7861 	cdpvs	8, 5, cr7, cr15, cr1, {3}
 7d8:	65747962 	ldrbvs	r7, [r4, #-2402]!	; 0xfffff69e
 7dc:	615f0073 	cmpvs	pc, r3, ror r0	; <UNPREDICTABLE>
 7e0:	00726464 	rsbseq	r6, r2, r4, ror #8
 7e4:	6572666b 	ldrbvs	r6, [r2, #-1643]!	; 0xfffff995
 7e8:	65680065 	strbvs	r0, [r8, #-101]!	; 0xffffff9b
 7ec:	6d5f7061 	ldclvs	0, cr7, [pc, #-388]	; 670 <__code_start__-0x7990>
 7f0:	6b007861 	blvs	1e97c <__bss_end__+0x1485c>
 7f4:	65657266 	strbvs	r7, [r5, #-614]!	; 0xfffffd9a
 7f8:	6c6c615f 	stfvse	f6, [ip], #-380	; 0xfffffe84
 7fc:	756f7200 	strbvc	r7, [pc, #-512]!	; 604 <__code_start__-0x79fc>
 800:	7075646e 	rsbsvc	r6, r5, lr, ror #8
 804:	61656800 	cmnvs	r5, r0, lsl #16
 808:	6e690070 	mcrvs	0, 3, r0, cr9, cr0, {3}
 80c:	705f7469 	subsvc	r7, pc, r9, ror #8
 810:	72666b00 	rsbvc	r6, r6, #0, 22
 814:	705f6565 	subsvc	r6, pc, r5, ror #10
 818:	6d00706f 	stcvs	0, cr7, [r0, #-444]	; 0xfffffe44
 81c:	65736d65 	ldrbvs	r6, [r3, #-3429]!	; 0xfffff29b
 820:	6c610074 	stclvs	0, cr0, [r1], #-464	; 0xfffffe30
 824:	6d6e6769 	stclvs	7, cr6, [lr, #-420]!	; 0xfffffe5c
 828:	00746e65 	rsbseq	r6, r4, r5, ror #28
 82c:	5f78616d 	svcpl	0x0078616d
 830:	00323375 	eorseq	r3, r2, r5, ror r3
 834:	4d656e4f 	stclmi	14, cr6, [r5, #-316]!	; 0xfffffec4
 838:	6d6b0042 	stclvs	0, cr0, [fp, #-264]!	; 0xfffffef8
 83c:	6f6c6c61 	svcvs	0x006c6c61
 840:	65685f63 	strbvs	r5, [r8, #-3939]!	; 0xfffff09d
 844:	655f7061 	ldrbvs	r7, [pc, #-97]	; 7eb <__code_start__-0x7815>
 848:	6b00646e 	blvs	19a08 <__bss_end__+0xf8e8>
 84c:	6c6c616d 	stfvse	f6, [ip], #-436	; 0xfffffe4c
 850:	6e5f636f 	cdpvs	3, 5, cr6, cr15, cr15, {3}
 854:	657a746f 	ldrbvs	r7, [sl, #-1135]!	; 0xfffffb91
 858:	69006f72 	stmdbvs	r0, {r1, r4, r5, r6, r8, r9, sl, fp, sp, lr}
 85c:	6f705f73 	svcvs	0x00705f73
 860:	6b003277 	blvs	d244 <__bss_end__+0x3124>
 864:	6c6c616d 	stfvse	f6, [ip], #-436	; 0xfffffe4c
 868:	632e636f 			; <UNDEFINED> instruction: 0x632e636f
 86c:	616d6b00 	cmnvs	sp, r0, lsl #22
 870:	636f6c6c 	cmnvs	pc, #108, 24	; 0x6c00
 874:	696e695f 	stmdbvs	lr!, {r0, r1, r2, r3, r4, r6, r8, fp, sp, lr}^
 878:	73690074 	cmnvc	r9, #116, 0	; 0x74
 87c:	696c615f 	stmdbvs	ip!, {r0, r1, r2, r3, r4, r6, r8, sp, lr}^
 880:	64656e67 	strbtvs	r6, [r5], #-3687	; 0xfffff199
 884:	616d6b00 	cmnvs	sp, r0, lsl #22
 888:	636f6c6c 	cmnvs	pc, #108, 24	; 0x6c00
 88c:	6165685f 	cmnvs	r5, pc, asr r8
 890:	74705f70 	ldrbtvc	r5, [r0], #-3952	; 0xfffff090
 894:	6d6b0072 	stclvs	0, cr0, [fp, #-456]!	; 0xfffffe38
 898:	6f6c6c61 	svcvs	0x006c6c61
 89c:	6e695f63 	cdpvs	15, 6, cr5, cr9, cr3, {3}
 8a0:	735f7469 	cmpvc	pc, #1761607680	; 0x69000000
 8a4:	735f7465 	cmpvc	pc, #1694498816	; 0x65000000
 8a8:	74726174 	ldrbtvc	r6, [r2], #-372	; 0xfffffe8c
 8ac:	69707200 	ldmdbvs	r0!, {r9, ip, sp, lr}^
 8b0:	7365725f 	cmnvc	r5, #-268435451	; 0xf0000005
 8b4:	705f7465 	subsvc	r7, pc, r5, ror #8
 8b8:	00637475 	rsbeq	r7, r3, r5, ror r4
 8bc:	6c616d6b 	stclvs	13, cr6, [r1], #-428	; 0xfffffe54
 8c0:	5f636f6c 	svcpl	0x00636f6c
 8c4:	67696c61 	strbvs	r6, [r9, -r1, ror #24]!
 8c8:	0064656e 	rsbeq	r6, r4, lr, ror #10
 8cc:	6f697067 	svcvs	0x00697067
 8d0:	726c635f 	rsbvc	r6, ip, #2080374785	; 0x7c000001
 8d4:	70670030 	rsbvc	r0, r7, r0, lsr r0
 8d8:	735f6f69 	cmpvc	pc, #420	; 0x1a4
 8dc:	00307465 	eorseq	r7, r0, r5, ror #8
 8e0:	6f697067 	svcvs	0x00697067
 8e4:	6972775f 	ldmdbvs	r2!, {r0, r1, r2, r3, r4, r6, r8, r9, sl, ip, sp, lr}^
 8e8:	44006574 	strmi	r6, [r0], #-1396	; 0xfffffa8c
 8ec:	565f5645 	ldrbpl	r5, [pc], -r5, asr #12
 8f0:	32334c41 	eorscc	r4, r3, #16640	; 0x4100
 8f4:	69706700 	ldmdbvs	r0!, {r8, r9, sl, sp, lr}^
 8f8:	65725f6f 	ldrbvs	r5, [r2, #-3951]!	; 0xfffff091
 8fc:	2e006461 	cdpcs	4, 0, cr6, cr0, cr1, {3}
 900:	6372732f 	cmnvs	r2, #-1140850688	; 0xbc000000
 904:	6970672f 	ldmdbvs	r0!, {r0, r1, r2, r3, r5, r8, r9, sl, sp, lr}^
 908:	00632e6f 	rsbeq	r2, r3, pc, ror #28
 90c:	6f697067 	svcvs	0x00697067
 910:	7465735f 	strbtvc	r7, [r5], #-863	; 0xfffffca1
 914:	706e695f 	rsbvc	r6, lr, pc, asr r9
 918:	67007475 	smlsdxvs	r0, r5, r4, r7
 91c:	5f6f6970 	svcpl	0x006f6970
 920:	5f746573 	svcpl	0x00746573
 924:	0066666f 	rsbeq	r6, r6, pc, ror #12
 928:	6f697067 	svcvs	0x00697067
 92c:	7465735f 	strbtvc	r7, [r5], #-863	; 0xfffffca1
 930:	74756f5f 	ldrbtvc	r6, [r5], #-3935	; 0xfffff0a1
 934:	00747570 	rsbseq	r7, r4, r0, ror r5
 938:	636e7566 	cmnvs	lr, #427819008	; 0x19800000
 93c:	69706700 	ldmdbvs	r0!, {r8, r9, sl, sp, lr}^
 940:	75665f6f 	strbvc	r5, [r6, #-3951]!	; 0xfffff091
 944:	745f636e 	ldrbvc	r6, [pc], #-878	; 94c <__code_start__-0x76b4>
 948:	69706700 	ldmdbvs	r0!, {r8, r9, sl, sp, lr}^
 94c:	656c5f6f 	strbvs	r5, [ip, #-3951]!	; 0xfffff091
 950:	62003076 	andvs	r3, r0, #118, 0	; 0x76
 954:	006b6e61 	rsbeq	r6, fp, r1, ror #28
 958:	6f697067 	svcvs	0x00697067
 95c:	7465735f 	strbtvc	r7, [r5], #-863	; 0xfffffca1
 960:	006e6f5f 	rsbeq	r6, lr, pc, asr pc
 964:	657a6973 	ldrbvs	r6, [sl, #-2419]!	; 0xfffff68d
 968:	2e00745f 	cfmvsrcs	mvf0, r7
 96c:	62696c2f 	rsbvs	r6, r9, #12032	; 0x2f00
 970:	656d2f63 	strbvs	r2, [sp, #-3939]!	; 0xfffff09d
 974:	7465736d 	strbtvc	r7, [r5], #-877	; 0xfffffc93
 978:	6900632e 	stmdbvs	r0, {r1, r2, r3, r5, r8, r9, sp, lr}
 97c:	7265746e 	rsbvc	r7, r5, #1845493760	; 0x6e000000
 980:	5f6c616e 	svcpl	0x006c616e
 984:	63747570 	cmnvs	r4, #112, 10	; 0x1c000000
 988:	00726168 	rsbseq	r6, r2, r8, ror #2
 98c:	5f697072 	svcpl	0x00697072
 990:	5f746573 	svcpl	0x00746573
 994:	63747570 	cmnvs	r4, #112, 10	; 0x1c000000
 998:	6c2f2e00 	stcvs	14, cr2, [pc], #-0	; 9a0 <__code_start__-0x7660>
 99c:	2f636269 	svccs	0x00636269
 9a0:	63747570 	cmnvs	r4, #112, 10	; 0x1c000000
 9a4:	2e726168 	rpwcssz	f6, f2, #0.0
 9a8:	2f2e0063 	svccs	0x002e0063
 9ac:	6362696c 	cmnvs	r2, #108, 18	; 0x1b0000
 9b0:	7274732f 	rsbsvc	r7, r4, #-1140850688	; 0xbc000000
 9b4:	2e746163 	rpwcssz	f6, f4, f3
 9b8:	65640063 	strbvs	r0, [r4, #-99]!	; 0xffffff9d
 9bc:	2e007473 	mcrcs	4, 0, r7, cr0, cr3, {3}
 9c0:	62696c2f 	rsbvs	r6, r9, #12032	; 0x2f00
 9c4:	74732f63 	ldrbtvc	r2, [r3], #-3939	; 0xfffff09d
 9c8:	706d6372 	rsbvc	r6, sp, r2, ror r3
 9cc:	2e00632e 	cdpcs	3, 0, cr6, cr0, cr14, {1}
 9d0:	62696c2f 	rsbvs	r6, r9, #12032	; 0x2f00
 9d4:	74732f63 	ldrbtvc	r2, [r3], #-3939	; 0xfffff09d
 9d8:	79706372 	ldmdbvc	r0!, {r1, r4, r5, r6, r8, r9, sp, lr}^
 9dc:	2e00632e 	cdpcs	3, 0, cr6, cr0, cr14, {1}
 9e0:	62696c2f 	rsbvs	r6, r9, #12032	; 0x2f00
 9e4:	74732f63 	ldrbtvc	r2, [r3], #-3939	; 0xfffff09d
 9e8:	6d636e72 	stclvs	14, cr6, [r3, #-456]!	; 0xfffffe38
 9ec:	00632e70 	rsbeq	r2, r3, r0, ror lr
 9f0:	74732f2e 	ldrbtvc	r2, [r3], #-3886	; 0xfffff0d2
 9f4:	2d666661 	stclcs	6, cr6, [r6, #-388]!	; 0xfffffe7c
 9f8:	2f637273 	svccs	0x00637273
 9fc:	61666564 	cmnvs	r6, r4, ror #10
 a00:	2d746c75 	ldclcs	12, cr6, [r4, #-468]!	; 0xfffffe2c
 a04:	6f626572 	svcvs	0x00626572
 a08:	632d746f 			; <UNDEFINED> instruction: 0x632d746f
 a0c:	6f6c6c61 	svcvs	0x006c6c61
 a10:	632e7475 			; <UNDEFINED> instruction: 0x632e7475
	...

Disassembly of section .debug_frame:

00000000 <.debug_frame>:
   0:	0000000c 	andeq	r0, r0, ip
   4:	ffffffff 			; <UNDEFINED> instruction: 0xffffffff
   8:	7c020001 	stcvc	0, cr0, [r2], {1}
   c:	000d0c0e 	andeq	r0, sp, lr, lsl #24
  10:	00000020 	andeq	r0, r0, r0, lsr #32
  14:	00000000 	andeq	r0, r0, r0
  18:	00008038 	andeq	r8, r0, r8, lsr r0
  1c:	000000d0 	ldrdeq	r0, [r0], -r0	; <UNPREDICTABLE>
  20:	84100e42 	ldrhi	r0, [r0], #-3650	; 0xfffff1be
  24:	86038504 	strhi	r8, [r3], -r4, lsl #10
  28:	42018e02 	andmi	r8, r1, #2, 28
  2c:	5402180e 	strpl	r1, [r2], #-2062	; 0xfffff7f2
  30:	0000100e 	andeq	r1, r0, lr
  34:	0000000c 	andeq	r0, r0, ip
  38:	ffffffff 			; <UNDEFINED> instruction: 0xffffffff
  3c:	7c020001 	stcvc	0, cr0, [r2], {1}
  40:	000d0c0e 	andeq	r0, sp, lr, lsl #24
  44:	00000014 	andeq	r0, r0, r4, lsl r0
  48:	00000034 	andeq	r0, r0, r4, lsr r0
  4c:	00008108 	andeq	r8, r0, r8, lsl #2
  50:	000000bc 	strheq	r0, [r0], -ip
  54:	8e040e42 	cdphi	14, 0, cr0, cr4, cr2, {2}
  58:	00000001 	andeq	r0, r0, r1
  5c:	00000014 	andeq	r0, r0, r4, lsl r0
  60:	00000034 	andeq	r0, r0, r4, lsr r0
  64:	000081c4 	andeq	r8, r0, r4, asr #3
  68:	00000044 	andeq	r0, r0, r4, asr #32
  6c:	84080e42 	strhi	r0, [r8], #-3650	; 0xfffff1be
  70:	00018e02 	andeq	r8, r1, r2, lsl #28
  74:	00000014 	andeq	r0, r0, r4, lsl r0
  78:	00000034 	andeq	r0, r0, r4, lsr r0
  7c:	00008208 	andeq	r8, r0, r8, lsl #4
  80:	000000ac 	andeq	r0, r0, ip, lsr #1
  84:	84080e42 	strhi	r0, [r8], #-3650	; 0xfffff1be
  88:	00018e02 	andeq	r8, r1, r2, lsl #28
  8c:	0000000c 	andeq	r0, r0, ip
  90:	ffffffff 			; <UNDEFINED> instruction: 0xffffffff
  94:	7c020001 	stcvc	0, cr0, [r2], {1}
  98:	000d0c0e 	andeq	r0, sp, lr, lsl #24
  9c:	00000014 	andeq	r0, r0, r4, lsl r0
  a0:	0000008c 	andeq	r0, r0, ip, lsl #1
  a4:	000082b4 			; <UNDEFINED> instruction: 0x000082b4
  a8:	0000000c 	andeq	r0, r0, ip
  ac:	84080e42 	strhi	r0, [r8], #-3650	; 0xfffff1be
  b0:	00018e02 	andeq	r8, r1, r2, lsl #28
  b4:	0000000c 	andeq	r0, r0, ip
  b8:	ffffffff 			; <UNDEFINED> instruction: 0xffffffff
  bc:	7c020001 	stcvc	0, cr0, [r2], {1}
  c0:	000d0c0e 	andeq	r0, sp, lr, lsl #24
  c4:	00000034 	andeq	r0, r0, r4, lsr r0
  c8:	000000b4 	strheq	r0, [r0], -r4
  cc:	000082c0 	andeq	r8, r0, r0, asr #5
  d0:	00000058 	andeq	r0, r0, r8, asr r0
  d4:	80100e42 	andshi	r0, r0, r2, asr #28
  d8:	82038104 	andhi	r8, r3, #1
  dc:	42018302 	andmi	r8, r1, #134217728	; 0x8000000
  e0:	07841c0e 	streq	r1, [r4, lr, lsl #24]
  e4:	058e0685 	streq	r0, [lr, #1669]	; 0x685
  e8:	5a280e44 	bpl	a03a00 <__bss_end__+0x9f98e0>
  ec:	ce421c0e 	cdpgt	12, 4, cr1, cr2, cr14, {0}
  f0:	100ec4c5 	andne	ip, lr, r5, asr #9
  f4:	c1c2c342 	bicgt	ip, r2, r2, asr #6
  f8:	00000ec0 	andeq	r0, r0, r0, asr #29
  fc:	0000000c 	andeq	r0, r0, ip
 100:	ffffffff 			; <UNDEFINED> instruction: 0xffffffff
 104:	7c020001 	stcvc	0, cr0, [r2], {1}
 108:	000d0c0e 	andeq	r0, sp, lr, lsl #24
 10c:	00000018 	andeq	r0, r0, r8, lsl r0
 110:	000000fc 	strdeq	r0, [r0], -ip
 114:	00008318 	andeq	r8, r0, r8, lsl r3
 118:	00000038 	andeq	r0, r0, r8, lsr r0
 11c:	84100e42 	ldrhi	r0, [r0], #-3650	; 0xfffff1be
 120:	86038504 	strhi	r8, [r3], -r4, lsl #10
 124:	00018e02 	andeq	r8, r1, r2, lsl #28
 128:	0000000c 	andeq	r0, r0, ip
 12c:	ffffffff 			; <UNDEFINED> instruction: 0xffffffff
 130:	7c020001 	stcvc	0, cr0, [r2], {1}
 134:	000d0c0e 	andeq	r0, sp, lr, lsl #24
 138:	0000002c 	andeq	r0, r0, ip, lsr #32
 13c:	00000128 	andeq	r0, r0, r8, lsr #2
 140:	00008350 	andeq	r8, r0, r0, asr r3
 144:	00000328 	andeq	r0, r0, r8, lsr #6
 148:	84180e42 	ldrhi	r0, [r8], #-3650	; 0xfffff1be
 14c:	86058506 	strhi	r8, [r5], -r6, lsl #10
 150:	88038704 	stmdahi	r3, {r2, r8, r9, sl, pc}
 154:	46018e02 	strmi	r8, [r1], -r2, lsl #28
 158:	c002600e 	andgt	r6, r2, lr
 15c:	42180e0a 	andsmi	r0, r8, #160	; 0xa0
 160:	0a8e020b 	beq	fe380994 <__bss_end__+0xfe376874>
 164:	0b42180e 	bleq	10861a4 <__bss_end__+0x107c084>
 168:	00000014 	andeq	r0, r0, r4, lsl r0
 16c:	00000128 	andeq	r0, r0, r8, lsr #2
 170:	00008678 	andeq	r8, r0, r8, ror r6
 174:	00000060 	andeq	r0, r0, r0, rrx
 178:	8e040e52 	mcrhi	14, 0, r0, cr4, cr2, {2}
 17c:	100e4401 	andne	r4, lr, r1, lsl #8
 180:	0000002c 	andeq	r0, r0, ip, lsr #32
 184:	00000128 	andeq	r0, r0, r8, lsr #2
 188:	000086d8 	ldrdeq	r8, [r0], -r8	; <UNPREDICTABLE>
 18c:	0000062c 	andeq	r0, r0, ip, lsr #12
 190:	84240e42 	strthi	r0, [r4], #-3650	; 0xfffff1be
 194:	86088509 	strhi	r8, [r8], -r9, lsl #10
 198:	88068707 	stmdahi	r6, {r0, r1, r2, r8, r9, sl, pc}
 19c:	8a048905 	bhi	1225b8 <__bss_end__+0x118498>
 1a0:	8e028b03 	vmlahi.f64	d8, d2, d3
 1a4:	c00e5201 	andgt	r5, lr, r1, lsl #4
 1a8:	0a860202 	beq	fe1809b8 <__bss_end__+0xfe176898>
 1ac:	0b42240e 	bleq	10891ec <__bss_end__+0x107f0cc>
 1b0:	0000000c 	andeq	r0, r0, ip
 1b4:	ffffffff 			; <UNDEFINED> instruction: 0xffffffff
 1b8:	7c020001 	stcvc	0, cr0, [r2], {1}
 1bc:	000d0c0e 	andeq	r0, sp, lr, lsl #24
 1c0:	00000014 	andeq	r0, r0, r4, lsl r0
 1c4:	000001b0 			; <UNDEFINED> instruction: 0x000001b0
 1c8:	00008d04 	andeq	r8, r0, r4, lsl #26
 1cc:	0000002c 	andeq	r0, r0, ip, lsr #32
 1d0:	84080e44 	strhi	r0, [r8], #-3652	; 0xfffff1bc
 1d4:	00018e02 	andeq	r8, r1, r2, lsl #28
 1d8:	0000000c 	andeq	r0, r0, ip
 1dc:	ffffffff 			; <UNDEFINED> instruction: 0xffffffff
 1e0:	7c020001 	stcvc	0, cr0, [r2], {1}
 1e4:	000d0c0e 	andeq	r0, sp, lr, lsl #24
 1e8:	00000018 	andeq	r0, r0, r8, lsl r0
 1ec:	000001d8 	ldrdeq	r0, [r0], -r8
 1f0:	00008d30 	andeq	r8, r0, r0, lsr sp
 1f4:	000000f8 	strdeq	r0, [r0], -r8
 1f8:	84100e42 	ldrhi	r0, [r0], #-3650	; 0xfffff1be
 1fc:	86038504 	strhi	r8, [r3], -r4, lsl #10
 200:	00018e02 	andeq	r8, r1, r2, lsl #28
 204:	0000000c 	andeq	r0, r0, ip
 208:	ffffffff 			; <UNDEFINED> instruction: 0xffffffff
 20c:	7c020001 	stcvc	0, cr0, [r2], {1}
 210:	000d0c0e 	andeq	r0, sp, lr, lsl #24
 214:	0000000c 	andeq	r0, r0, ip
 218:	00000204 	andeq	r0, r0, r4, lsl #4
 21c:	00008e28 	andeq	r8, r0, r8, lsr #28
 220:	00000004 	andeq	r0, r0, r4
 224:	0000000c 	andeq	r0, r0, ip
 228:	ffffffff 			; <UNDEFINED> instruction: 0xffffffff
 22c:	7c020001 	stcvc	0, cr0, [r2], {1}
 230:	000d0c0e 	andeq	r0, sp, lr, lsl #24
 234:	0000000c 	andeq	r0, r0, ip
 238:	00000224 	andeq	r0, r0, r4, lsr #4
 23c:	00008e2c 	andeq	r8, r0, ip, lsr #28
 240:	00000018 	andeq	r0, r0, r8, lsl r0
 244:	0000000c 	andeq	r0, r0, ip
 248:	00000224 	andeq	r0, r0, r4, lsr #4
 24c:	00008e44 	andeq	r8, r0, r4, asr #28
 250:	00000014 	andeq	r0, r0, r4, lsl r0
 254:	00000014 	andeq	r0, r0, r4, lsl r0
 258:	00000224 	andeq	r0, r0, r4, lsr #4
 25c:	00008e58 	andeq	r8, r0, r8, asr lr
 260:	00000060 	andeq	r0, r0, r0, rrx
 264:	84080e42 	strhi	r0, [r8], #-3650	; 0xfffff1be
 268:	00018e02 	andeq	r8, r1, r2, lsl #28
 26c:	0000000c 	andeq	r0, r0, ip
 270:	ffffffff 			; <UNDEFINED> instruction: 0xffffffff
 274:	7c020001 	stcvc	0, cr0, [r2], {1}
 278:	000d0c0e 	andeq	r0, sp, lr, lsl #24
 27c:	0000000c 	andeq	r0, r0, ip
 280:	0000026c 	andeq	r0, r0, ip, ror #4
 284:	00008eb8 			; <UNDEFINED> instruction: 0x00008eb8
 288:	0000000c 	andeq	r0, r0, ip
 28c:	00000014 	andeq	r0, r0, r4, lsl r0
 290:	0000026c 	andeq	r0, r0, ip, ror #4
 294:	00008ec4 	andeq	r8, r0, r4, asr #29
 298:	00000024 	andeq	r0, r0, r4, lsr #32
 29c:	84080e42 	strhi	r0, [r8], #-3650	; 0xfffff1be
 2a0:	00018e02 	andeq	r8, r1, r2, lsl #28
 2a4:	0000001c 	andeq	r0, r0, ip, lsl r0
 2a8:	0000026c 	andeq	r0, r0, ip, ror #4
 2ac:	00008ee8 	andeq	r8, r0, r8, ror #29
 2b0:	00000048 	andeq	r0, r0, r8, asr #32
 2b4:	84180e42 	ldrhi	r0, [r8], #-3650	; 0xfffff1be
 2b8:	86058506 	strhi	r8, [r5], -r6, lsl #10
 2bc:	88038704 	stmdahi	r3, {r2, r8, r9, sl, pc}
 2c0:	00018e02 	andeq	r8, r1, r2, lsl #28
 2c4:	0000001c 	andeq	r0, r0, ip, lsl r0
 2c8:	0000026c 	andeq	r0, r0, ip, ror #4
 2cc:	00008f30 	andeq	r8, r0, r0, lsr pc
 2d0:	00000050 	andeq	r0, r0, r0, asr r0
 2d4:	84180e42 	ldrhi	r0, [r8], #-3650	; 0xfffff1be
 2d8:	86058506 	strhi	r8, [r5], -r6, lsl #10
 2dc:	88038704 	stmdahi	r3, {r2, r8, r9, sl, pc}
 2e0:	00018e02 	andeq	r8, r1, r2, lsl #28
 2e4:	0000001c 	andeq	r0, r0, ip, lsl r0
 2e8:	0000026c 	andeq	r0, r0, ip, ror #4
 2ec:	00008f80 	andeq	r8, r0, r0, lsl #31
 2f0:	00000054 	andeq	r0, r0, r4, asr r0
 2f4:	84180e42 	ldrhi	r0, [r8], #-3650	; 0xfffff1be
 2f8:	86058506 	strhi	r8, [r5], -r6, lsl #10
 2fc:	88038704 	stmdahi	r3, {r2, r8, r9, sl, pc}
 300:	00018e02 	andeq	r8, r1, r2, lsl #28
 304:	0000000c 	andeq	r0, r0, ip
 308:	ffffffff 			; <UNDEFINED> instruction: 0xffffffff
 30c:	7c020001 	stcvc	0, cr0, [r2], {1}
 310:	000d0c0e 	andeq	r0, sp, lr, lsl #24
 314:	00000018 	andeq	r0, r0, r8, lsl r0
 318:	00000304 	andeq	r0, r0, r4, lsl #6
 31c:	00008fd4 	ldrdeq	r8, [r0], -r4
 320:	00000020 	andeq	r0, r0, r0, lsr #32
 324:	84100e42 	ldrhi	r0, [r0], #-3650	; 0xfffff1be
 328:	86038504 	strhi	r8, [r3], -r4, lsl #10
 32c:	00018e02 	andeq	r8, r1, r2, lsl #28
 330:	00000018 	andeq	r0, r0, r8, lsl r0
 334:	00000304 	andeq	r0, r0, r4, lsl #6
 338:	00008ff4 	strdeq	r8, [r0], -r4
 33c:	00000020 	andeq	r0, r0, r0, lsr #32
 340:	84100e42 	ldrhi	r0, [r0], #-3650	; 0xfffff1be
 344:	86038504 	strhi	r8, [r3], -r4, lsl #10
 348:	00018e02 	andeq	r8, r1, r2, lsl #28
 34c:	00000014 	andeq	r0, r0, r4, lsl r0
 350:	00000304 	andeq	r0, r0, r4, lsl #6
 354:	00009014 	andeq	r9, r0, r4, lsl r0
 358:	000000b0 	strheq	r0, [r0], -r0	; <UNPREDICTABLE>
 35c:	84080e42 	strhi	r0, [r8], #-3650	; 0xfffff1be
 360:	00018e02 	andeq	r8, r1, r2, lsl #28
 364:	00000014 	andeq	r0, r0, r4, lsl r0
 368:	00000304 	andeq	r0, r0, r4, lsl #6
 36c:	000090c4 	andeq	r9, r0, r4, asr #1
 370:	00000018 	andeq	r0, r0, r8, lsl r0
 374:	84080e42 	strhi	r0, [r8], #-3650	; 0xfffff1be
 378:	00018e02 	andeq	r8, r1, r2, lsl #28
 37c:	00000014 	andeq	r0, r0, r4, lsl r0
 380:	00000304 	andeq	r0, r0, r4, lsl #6
 384:	000090dc 	ldrdeq	r9, [r0], -ip
 388:	00000020 	andeq	r0, r0, r0, lsr #32
 38c:	84080e42 	strhi	r0, [r8], #-3650	; 0xfffff1be
 390:	00018e02 	andeq	r8, r1, r2, lsl #28
 394:	00000014 	andeq	r0, r0, r4, lsl r0
 398:	00000304 	andeq	r0, r0, r4, lsl #6
 39c:	000090fc 	strdeq	r9, [r0], -ip
 3a0:	00000030 	andeq	r0, r0, r0, lsr r0
 3a4:	84080e42 	strhi	r0, [r8], #-3650	; 0xfffff1be
 3a8:	00018e02 	andeq	r8, r1, r2, lsl #28
 3ac:	00000014 	andeq	r0, r0, r4, lsl r0
 3b0:	00000304 	andeq	r0, r0, r4, lsl #6
 3b4:	0000912c 	andeq	r9, r0, ip, lsr #2
 3b8:	00000030 	andeq	r0, r0, r0, lsr r0
 3bc:	84080e42 	strhi	r0, [r8], #-3650	; 0xfffff1be
 3c0:	00018e02 	andeq	r8, r1, r2, lsl #28
 3c4:	00000014 	andeq	r0, r0, r4, lsl r0
 3c8:	00000304 	andeq	r0, r0, r4, lsl #6
 3cc:	0000915c 	andeq	r9, r0, ip, asr r1
 3d0:	00000010 	andeq	r0, r0, r0, lsl r0
 3d4:	84080e42 	strhi	r0, [r8], #-3650	; 0xfffff1be
 3d8:	00018e02 	andeq	r8, r1, r2, lsl #28
 3dc:	00000014 	andeq	r0, r0, r4, lsl r0
 3e0:	00000304 	andeq	r0, r0, r4, lsl #6
 3e4:	0000916c 	andeq	r9, r0, ip, ror #2
 3e8:	00000020 	andeq	r0, r0, r0, lsr #32
 3ec:	84080e42 	strhi	r0, [r8], #-3650	; 0xfffff1be
 3f0:	00018e02 	andeq	r8, r1, r2, lsl #28
 3f4:	00000014 	andeq	r0, r0, r4, lsl r0
 3f8:	00000304 	andeq	r0, r0, r4, lsl #6
 3fc:	0000918c 	andeq	r9, r0, ip, lsl #3
 400:	00000014 	andeq	r0, r0, r4, lsl r0
 404:	84080e42 	strhi	r0, [r8], #-3650	; 0xfffff1be
 408:	00018e02 	andeq	r8, r1, r2, lsl #28
 40c:	00000014 	andeq	r0, r0, r4, lsl r0
 410:	00000304 	andeq	r0, r0, r4, lsl #6
 414:	000091a0 	andeq	r9, r0, r0, lsr #3
 418:	00000024 	andeq	r0, r0, r4, lsr #32
 41c:	84080e42 	strhi	r0, [r8], #-3650	; 0xfffff1be
 420:	00018e02 	andeq	r8, r1, r2, lsl #28
 424:	0000000c 	andeq	r0, r0, ip
 428:	ffffffff 			; <UNDEFINED> instruction: 0xffffffff
 42c:	7c020001 	stcvc	0, cr0, [r2], {1}
 430:	000d0c0e 	andeq	r0, sp, lr, lsl #24
 434:	0000000c 	andeq	r0, r0, ip
 438:	00000424 	andeq	r0, r0, r4, lsr #8
 43c:	000091c4 	andeq	r9, r0, r4, asr #3
 440:	00000010 	andeq	r0, r0, r0, lsl r0
 444:	0000000c 	andeq	r0, r0, ip
 448:	00000424 	andeq	r0, r0, r4, lsr #8
 44c:	000091d4 	ldrdeq	r9, [r0], -r4
 450:	00000010 	andeq	r0, r0, r0, lsl r0
 454:	0000000c 	andeq	r0, r0, ip
 458:	00000424 	andeq	r0, r0, r4, lsr #8
 45c:	000091e4 	andeq	r9, r0, r4, ror #3
 460:	00000010 	andeq	r0, r0, r0, lsl r0
 464:	0000001c 	andeq	r0, r0, ip, lsl r0
 468:	00000424 	andeq	r0, r0, r4, lsr #8
 46c:	000091f4 	strdeq	r9, [r0], -r4
 470:	0000009c 	muleq	r0, ip, r0
 474:	8e040e42 	cdphi	14, 0, cr0, cr4, cr2, {2}
 478:	100e4201 	andne	r4, lr, r1, lsl #4
 47c:	040e0a58 	streq	r0, [lr], #-2648	; 0xfffff5a8
 480:	00000b42 	andeq	r0, r0, r2, asr #22
 484:	00000014 	andeq	r0, r0, r4, lsl r0
 488:	00000424 	andeq	r0, r0, r4, lsr #8
 48c:	00009290 	muleq	r0, r0, r2
 490:	00000058 	andeq	r0, r0, r8, asr r0
 494:	84080e42 	strhi	r0, [r8], #-3650	; 0xfffff1be
 498:	00018e02 	andeq	r8, r1, r2, lsl #28
 49c:	0000001c 	andeq	r0, r0, ip, lsl r0
 4a0:	00000424 	andeq	r0, r0, r4, lsr #8
 4a4:	000092e8 	andeq	r9, r0, r8, ror #5
 4a8:	00000098 	muleq	r0, r8, r0
 4ac:	8e040e42 	cdphi	14, 0, cr0, cr4, cr2, {2}
 4b0:	100e4201 	andne	r4, lr, r1, lsl #4
 4b4:	040e0a58 	streq	r0, [lr], #-2648	; 0xfffff5a8
 4b8:	00000b42 	andeq	r0, r0, r2, asr #22
 4bc:	00000020 	andeq	r0, r0, r0, lsr #32
 4c0:	00000424 	andeq	r0, r0, r4, lsr #8
 4c4:	00009380 	andeq	r9, r0, r0, lsl #7
 4c8:	00000064 	andeq	r0, r0, r4, rrx
 4cc:	840c0e42 	strhi	r0, [ip], #-3650	; 0xfffff1be
 4d0:	8e028503 	cfsh32hi	mvfx8, mvfx2, #3
 4d4:	180e4201 	stmdane	lr, {r0, r9, lr}
 4d8:	0c0e0a54 			; <UNDEFINED> instruction: 0x0c0e0a54
 4dc:	00000b42 	andeq	r0, r0, r2, asr #22
 4e0:	0000001c 	andeq	r0, r0, ip, lsl r0
 4e4:	00000424 	andeq	r0, r0, r4, lsr #8
 4e8:	000093e4 	andeq	r9, r0, r4, ror #7
 4ec:	00000118 	andeq	r0, r0, r8, lsl r1
 4f0:	8e040e42 	cdphi	14, 0, cr0, cr4, cr2, {2}
 4f4:	100e4201 	andne	r4, lr, r1, lsl #4
 4f8:	040e0a6c 	streq	r0, [lr], #-2668	; 0xfffff594
 4fc:	00000b42 	andeq	r0, r0, r2, asr #22
 500:	0000000c 	andeq	r0, r0, ip
 504:	00000424 	andeq	r0, r0, r4, lsr #8
 508:	000094fc 	strdeq	r9, [r0], -ip
 50c:	00000004 	andeq	r0, r0, r4
 510:	0000000c 	andeq	r0, r0, ip
 514:	00000424 	andeq	r0, r0, r4, lsr #8
 518:	00009500 	andeq	r9, r0, r0, lsl #10
 51c:	00000014 	andeq	r0, r0, r4, lsl r0
 520:	00000014 	andeq	r0, r0, r4, lsl r0
 524:	00000424 	andeq	r0, r0, r4, lsr #8
 528:	00009514 	andeq	r9, r0, r4, lsl r5
 52c:	00000060 	andeq	r0, r0, r0, rrx
 530:	8e040e58 	mcrhi	14, 0, r0, cr4, cr8, {2}
 534:	100e4201 	andne	r4, lr, r1, lsl #4
 538:	0000000c 	andeq	r0, r0, ip
 53c:	ffffffff 			; <UNDEFINED> instruction: 0xffffffff
 540:	7c020001 	stcvc	0, cr0, [r2], {1}
 544:	000d0c0e 	andeq	r0, sp, lr, lsl #24
 548:	00000020 	andeq	r0, r0, r0, lsr #32
 54c:	00000538 	andeq	r0, r0, r8, lsr r5
 550:	00009574 	andeq	r9, r0, r4, ror r5
 554:	00000060 	andeq	r0, r0, r0, rrx
 558:	84100e48 	ldrhi	r0, [r0], #-3656	; 0xfffff1b8
 55c:	86038504 	strhi	r8, [r3], -r4, lsl #10
 560:	64018e02 	strvs	r8, [r1], #-3586	; 0xfffff1fe
 564:	c4c5c6ce 	strbgt	ip, [r5], #1742	; 0x6ce
 568:	0000000e 	andeq	r0, r0, lr
 56c:	00000020 	andeq	r0, r0, r0, lsr #32
 570:	00000538 	andeq	r0, r0, r8, lsr r5
 574:	000095d4 	ldrdeq	r9, [r0], -r4
 578:	00000058 	andeq	r0, r0, r8, asr r0
 57c:	84100e46 	ldrhi	r0, [r0], #-3654	; 0xfffff1ba
 580:	86038504 	strhi	r8, [r3], -r4, lsl #10
 584:	62018e02 	andvs	r8, r1, #2, 28
 588:	c4c5c6ce 	strbgt	ip, [r5], #1742	; 0x6ce
 58c:	0000000e 	andeq	r0, r0, lr
 590:	0000000c 	andeq	r0, r0, ip
 594:	00000538 	andeq	r0, r0, r8, lsr r5
 598:	0000962c 	andeq	r9, r0, ip, lsr #12
 59c:	00000018 	andeq	r0, r0, r8, lsl r0
 5a0:	0000000c 	andeq	r0, r0, ip
 5a4:	00000538 	andeq	r0, r0, r8, lsr r5
 5a8:	00009644 	andeq	r9, r0, r4, asr #12
 5ac:	00000018 	andeq	r0, r0, r8, lsl r0
 5b0:	00000020 	andeq	r0, r0, r0, lsr #32
 5b4:	00000538 	andeq	r0, r0, r8, lsr r5
 5b8:	0000965c 	andeq	r9, r0, ip, asr r6
 5bc:	00000058 	andeq	r0, r0, r8, asr r0
 5c0:	84100e46 	ldrhi	r0, [r0], #-3654	; 0xfffff1ba
 5c4:	86038504 	strhi	r8, [r3], -r4, lsl #10
 5c8:	62018e02 	andvs	r8, r1, #2, 28
 5cc:	c4c5c6ce 	strbgt	ip, [r5], #1742	; 0x6ce
 5d0:	0000000e 	andeq	r0, r0, lr
 5d4:	0000000c 	andeq	r0, r0, ip
 5d8:	00000538 	andeq	r0, r0, r8, lsr r5
 5dc:	000096b4 			; <UNDEFINED> instruction: 0x000096b4
 5e0:	00000030 	andeq	r0, r0, r0, lsr r0
 5e4:	00000014 	andeq	r0, r0, r4, lsl r0
 5e8:	00000538 	andeq	r0, r0, r8, lsr r5
 5ec:	000096e4 	andeq	r9, r0, r4, ror #13
 5f0:	00000028 	andeq	r0, r0, r8, lsr #32
 5f4:	84080e42 	strhi	r0, [r8], #-3650	; 0xfffff1be
 5f8:	00018e02 	andeq	r8, r1, r2, lsl #28
 5fc:	0000000c 	andeq	r0, r0, ip
 600:	ffffffff 			; <UNDEFINED> instruction: 0xffffffff
 604:	7c020001 	stcvc	0, cr0, [r2], {1}
 608:	000d0c0e 	andeq	r0, sp, lr, lsl #24
 60c:	00000014 	andeq	r0, r0, r4, lsl r0
 610:	000005fc 	strdeq	r0, [r0], -ip
 614:	0000970c 	andeq	r9, r0, ip, lsl #14
 618:	00000078 	andeq	r0, r0, r8, ror r0
 61c:	84080e42 	strhi	r0, [r8], #-3650	; 0xfffff1be
 620:	00018e02 	andeq	r8, r1, r2, lsl #28
 624:	0000000c 	andeq	r0, r0, ip
 628:	ffffffff 			; <UNDEFINED> instruction: 0xffffffff
 62c:	7c020001 	stcvc	0, cr0, [r2], {1}
 630:	000d0c0e 	andeq	r0, sp, lr, lsl #24
 634:	00000014 	andeq	r0, r0, r4, lsl r0
 638:	00000624 	andeq	r0, r0, r4, lsr #12
 63c:	00009784 	andeq	r9, r0, r4, lsl #15
 640:	00000014 	andeq	r0, r0, r4, lsl r0
 644:	84080e42 	strhi	r0, [r8], #-3650	; 0xfffff1be
 648:	00018e02 	andeq	r8, r1, r2, lsl #28
 64c:	0000000c 	andeq	r0, r0, ip
 650:	00000624 	andeq	r0, r0, r4, lsr #12
 654:	00009798 	muleq	r0, r8, r7
 658:	00000018 	andeq	r0, r0, r8, lsl r0
 65c:	0000000c 	andeq	r0, r0, ip
 660:	00000624 	andeq	r0, r0, r4, lsr #12
 664:	000097b0 			; <UNDEFINED> instruction: 0x000097b0
 668:	00000010 	andeq	r0, r0, r0, lsl r0
 66c:	0000000c 	andeq	r0, r0, ip
 670:	ffffffff 			; <UNDEFINED> instruction: 0xffffffff
 674:	7c020001 	stcvc	0, cr0, [r2], {1}
 678:	000d0c0e 	andeq	r0, sp, lr, lsl #24
 67c:	0000000c 	andeq	r0, r0, ip
 680:	0000066c 	andeq	r0, r0, ip, ror #12
 684:	000097c0 	andeq	r9, r0, r0, asr #15
 688:	0000002c 	andeq	r0, r0, ip, lsr #32
 68c:	0000000c 	andeq	r0, r0, ip
 690:	ffffffff 			; <UNDEFINED> instruction: 0xffffffff
 694:	7c020001 	stcvc	0, cr0, [r2], {1}
 698:	000d0c0e 	andeq	r0, sp, lr, lsl #24
 69c:	0000000c 	andeq	r0, r0, ip
 6a0:	0000068c 	andeq	r0, r0, ip, lsl #13
 6a4:	000097ec 	andeq	r9, r0, ip, ror #15
 6a8:	00000044 	andeq	r0, r0, r4, asr #32
 6ac:	0000000c 	andeq	r0, r0, ip
 6b0:	ffffffff 			; <UNDEFINED> instruction: 0xffffffff
 6b4:	7c020001 	stcvc	0, cr0, [r2], {1}
 6b8:	000d0c0e 	andeq	r0, sp, lr, lsl #24
 6bc:	0000000c 	andeq	r0, r0, ip
 6c0:	000006ac 	andeq	r0, r0, ip, lsr #13
 6c4:	00009830 	andeq	r9, r0, r0, lsr r8
 6c8:	00000018 	andeq	r0, r0, r8, lsl r0
 6cc:	0000000c 	andeq	r0, r0, ip
 6d0:	ffffffff 			; <UNDEFINED> instruction: 0xffffffff
 6d4:	7c020001 	stcvc	0, cr0, [r2], {1}
 6d8:	000d0c0e 	andeq	r0, sp, lr, lsl #24
 6dc:	0000000c 	andeq	r0, r0, ip
 6e0:	000006cc 	andeq	r0, r0, ip, asr #13
 6e4:	00009848 	andeq	r9, r0, r8, asr #16
 6e8:	00000030 	andeq	r0, r0, r0, lsr r0
 6ec:	0000000c 	andeq	r0, r0, ip
 6f0:	ffffffff 			; <UNDEFINED> instruction: 0xffffffff
 6f4:	7c020001 	stcvc	0, cr0, [r2], {1}
 6f8:	000d0c0e 	andeq	r0, sp, lr, lsl #24
 6fc:	0000000c 	andeq	r0, r0, ip
 700:	000006ec 	andeq	r0, r0, ip, ror #13
 704:	00009878 	andeq	r9, r0, r8, ror r8
 708:	00000004 	andeq	r0, r0, r4
