
1-test-malloc.elf:     file format elf32-littlearm


Disassembly of section .text:

00008000 <__code_start__>:
    8000:	e3a00013 	mov	r0, #19, 0
    8004:	e3800080 	orr	r0, r0, #128, 0	; 0x80
    8008:	e129f000 	msr	CPSR_fc, r0
    800c:	e3a01000 	mov	r1, #0, 0
    8010:	ee071f95 	mcr	15, 0, r1, cr7, cr5, {4}
    8014:	e3a0d302 	mov	sp, #134217728	; 0x8000000
    8018:	e3a0b000 	mov	fp, #0, 0
    801c:	eb00031e 	bl	8c9c <_cstart>
    8020:	eb000367 	bl	8dc4 <rpi_reboot>

00008024 <PUT32>:
    8024:	e5801000 	str	r1, [r0]
    8028:	e12fff1e 	bx	lr

0000802c <GET32>:
    802c:	e5900000 	ldr	r0, [r0]
    8030:	e12fff1e 	bx	lr

00008034 <BRANCHTO>:
    8034:	e12fff10 	bx	r0

00008038 <notmain>:
    8038:	e52de004 	push	{lr}		; (str lr, [sp, #-4]!)
    803c:	e24dd00c 	sub	sp, sp, #12, 0
    8040:	e3a00001 	mov	r0, #1, 0
    8044:	eb00004a 	bl	8174 <kr_malloc>
    8048:	e3a03010 	mov	r3, #16, 0
    804c:	e58d3000 	str	r3, [sp]
    8050:	e3a03019 	mov	r3, #25, 0
    8054:	e59f200c 	ldr	r2, [pc, #12]	; 8068 <notmain+0x30>
    8058:	e59f100c 	ldr	r1, [pc, #12]	; 806c <notmain+0x34>
    805c:	e59f000c 	ldr	r0, [pc, #12]	; 8070 <notmain+0x38>
    8060:	eb000071 	bl	822c <printk>
    8064:	eb000301 	bl	8c70 <clean_reboot>
    8068:	00009828 	andeq	r9, r0, r8, lsr #16
    806c:	00009800 	andeq	r9, r0, r0, lsl #16
    8070:	00009810 	andeq	r9, r0, r0, lsl r8

00008074 <kr_free>:
    8074:	e52de004 	push	{lr}		; (str lr, [sp, #-4]!)
    8078:	e2401008 	sub	r1, r0, #8, 0
    807c:	e59f30a8 	ldr	r3, [pc, #168]	; 812c <kr_free+0xb8>
    8080:	e5933000 	ldr	r3, [r3]
    8084:	ea000000 	b	808c <kr_free+0x18>
    8088:	e1a03002 	mov	r3, r2
    808c:	e1530001 	cmp	r3, r1
    8090:	2a000002 	bcs	80a0 <kr_free+0x2c>
    8094:	e5932000 	ldr	r2, [r3]
    8098:	e1520001 	cmp	r2, r1
    809c:	8a000007 	bhi	80c0 <kr_free+0x4c>
    80a0:	e5932000 	ldr	r2, [r3]
    80a4:	e1520003 	cmp	r2, r3
    80a8:	8afffff6 	bhi	8088 <kr_free+0x14>
    80ac:	e1530001 	cmp	r3, r1
    80b0:	3a000002 	bcc	80c0 <kr_free+0x4c>
    80b4:	e1520001 	cmp	r2, r1
    80b8:	91a03002 	movls	r3, r2
    80bc:	9afffff2 	bls	808c <kr_free+0x18>
    80c0:	e510c004 	ldr	ip, [r0, #-4]
    80c4:	e081e18c 	add	lr, r1, ip, lsl #3
    80c8:	e5932000 	ldr	r2, [r3]
    80cc:	e15e0002 	cmp	lr, r2
    80d0:	0a000008 	beq	80f8 <kr_free+0x84>
    80d4:	e5002008 	str	r2, [r0, #-8]
    80d8:	e5932004 	ldr	r2, [r3, #4]
    80dc:	e083c182 	add	ip, r3, r2, lsl #3
    80e0:	e15c0001 	cmp	ip, r1
    80e4:	0a00000a 	beq	8114 <kr_free+0xa0>
    80e8:	e5831000 	str	r1, [r3]
    80ec:	e59f2038 	ldr	r2, [pc, #56]	; 812c <kr_free+0xb8>
    80f0:	e5823000 	str	r3, [r2]
    80f4:	e49df004 	pop	{pc}		; (ldr pc, [sp], #4)
    80f8:	e5922004 	ldr	r2, [r2, #4]
    80fc:	e08cc002 	add	ip, ip, r2
    8100:	e500c004 	str	ip, [r0, #-4]
    8104:	e5932000 	ldr	r2, [r3]
    8108:	e5922000 	ldr	r2, [r2]
    810c:	e5002008 	str	r2, [r0, #-8]
    8110:	eafffff0 	b	80d8 <kr_free+0x64>
    8114:	e5101004 	ldr	r1, [r0, #-4]
    8118:	e0822001 	add	r2, r2, r1
    811c:	e5832004 	str	r2, [r3, #4]
    8120:	e5102008 	ldr	r2, [r0, #-8]
    8124:	e5832000 	str	r2, [r3]
    8128:	eaffffef 	b	80ec <kr_free+0x78>
    812c:	00009bc8 	andeq	r9, r0, r8, asr #23

00008130 <morecore>:
    8130:	e92d4010 	push	{r4, lr}
    8134:	e1a04000 	mov	r4, r0
    8138:	e3500b01 	cmp	r0, #1024	; 0x400
    813c:	33a04b01 	movcc	r4, #1024	; 0x400
    8140:	e1a00184 	lsl	r0, r4, #3
    8144:	eb000035 	bl	8220 <sbrk>
    8148:	e3700001 	cmn	r0, #1, 0
    814c:	0a000005 	beq	8168 <morecore+0x38>
    8150:	e5804004 	str	r4, [r0, #4]
    8154:	e2800008 	add	r0, r0, #8, 0
    8158:	ebffffc5 	bl	8074 <kr_free>
    815c:	e59f300c 	ldr	r3, [pc, #12]	; 8170 <morecore+0x40>
    8160:	e5930000 	ldr	r0, [r3]
    8164:	e8bd8010 	pop	{r4, pc}
    8168:	e3a00000 	mov	r0, #0, 0
    816c:	e8bd8010 	pop	{r4, pc}
    8170:	00009bc8 	andeq	r9, r0, r8, asr #23

00008174 <kr_malloc>:
    8174:	e92d4010 	push	{r4, lr}
    8178:	e2804007 	add	r4, r0, #7, 0
    817c:	e1a041a4 	lsr	r4, r4, #3
    8180:	e2844001 	add	r4, r4, #1, 0
    8184:	e59f3090 	ldr	r3, [pc, #144]	; 821c <kr_malloc+0xa8>
    8188:	e5932000 	ldr	r2, [r3]
    818c:	e3520000 	cmp	r2, #0, 0
    8190:	0a000001 	beq	819c <kr_malloc+0x28>
    8194:	e5920000 	ldr	r0, [r2]
    8198:	ea000013 	b	81ec <kr_malloc+0x78>
    819c:	e2832008 	add	r2, r3, #8, 0
    81a0:	e5832000 	str	r2, [r3]
    81a4:	e5832008 	str	r2, [r3, #8]
    81a8:	e3a01000 	mov	r1, #0, 0
    81ac:	e583100c 	str	r1, [r3, #12]
    81b0:	eafffff7 	b	8194 <kr_malloc+0x20>
    81b4:	0a000007 	beq	81d8 <kr_malloc+0x64>
    81b8:	e0433004 	sub	r3, r3, r4
    81bc:	e5803004 	str	r3, [r0, #4]
    81c0:	e0800183 	add	r0, r0, r3, lsl #3
    81c4:	e5804004 	str	r4, [r0, #4]
    81c8:	e59f304c 	ldr	r3, [pc, #76]	; 821c <kr_malloc+0xa8>
    81cc:	e5832000 	str	r2, [r3]
    81d0:	e2800008 	add	r0, r0, #8, 0
    81d4:	e8bd8010 	pop	{r4, pc}
    81d8:	e5903000 	ldr	r3, [r0]
    81dc:	e5823000 	str	r3, [r2]
    81e0:	eafffff8 	b	81c8 <kr_malloc+0x54>
    81e4:	e1a02000 	mov	r2, r0
    81e8:	e5900000 	ldr	r0, [r0]
    81ec:	e5903004 	ldr	r3, [r0, #4]
    81f0:	e1530004 	cmp	r3, r4
    81f4:	2affffee 	bcs	81b4 <kr_malloc+0x40>
    81f8:	e59f301c 	ldr	r3, [pc, #28]	; 821c <kr_malloc+0xa8>
    81fc:	e5933000 	ldr	r3, [r3]
    8200:	e1530000 	cmp	r3, r0
    8204:	1afffff6 	bne	81e4 <kr_malloc+0x70>
    8208:	e1a00004 	mov	r0, r4
    820c:	ebffffc7 	bl	8130 <morecore>
    8210:	e3500000 	cmp	r0, #0, 0
    8214:	1afffff2 	bne	81e4 <kr_malloc+0x70>
    8218:	e8bd8010 	pop	{r4, pc}
    821c:	00009bc8 	andeq	r9, r0, r8, asr #23

00008220 <sbrk>:
    8220:	e92d4010 	push	{r4, lr}
    8224:	eb000430 	bl	92ec <kmalloc>
    8228:	e8bd8010 	pop	{r4, pc}

0000822c <printk>:
    822c:	e92d000f 	push	{r0, r1, r2, r3}
    8230:	e92d4030 	push	{r4, r5, lr}
    8234:	e59f5040 	ldr	r5, [pc, #64]	; 827c <printk+0x50>
    8238:	e24dd00c 	sub	sp, sp, #12, 0
    823c:	e28d301c 	add	r3, sp, #28, 0
    8240:	e3a01b01 	mov	r1, #1024	; 0x400
    8244:	e59d2018 	ldr	r2, [sp, #24]
    8248:	e1a00005 	mov	r0, r5
    824c:	e58d3004 	str	r3, [sp, #4]
    8250:	eb0000fb 	bl	8644 <va_printk>
    8254:	e1a04000 	mov	r4, r0
    8258:	e59f3020 	ldr	r3, [pc, #32]	; 8280 <printk+0x54>
    825c:	e1a00005 	mov	r0, r5
    8260:	e5933000 	ldr	r3, [r3]
    8264:	e12fff33 	blx	r3
    8268:	e1a00004 	mov	r0, r4
    826c:	e28dd00c 	add	sp, sp, #12, 0
    8270:	e8bd4030 	pop	{r4, r5, lr}
    8274:	e28dd010 	add	sp, sp, #16, 0
    8278:	e12fff1e 	bx	lr
    827c:	00009bd8 	ldrdeq	r9, [r0], -r8
    8280:	00009bb4 			; <UNDEFINED> instruction: 0x00009bb4

00008284 <internal_putk>:
    8284:	e92d4070 	push	{r4, r5, r6, lr}
    8288:	e1a04000 	mov	r4, r0
    828c:	e5d00000 	ldrb	r0, [r0]
    8290:	e3500000 	cmp	r0, #0, 0
    8294:	0a000005 	beq	82b0 <internal_putk+0x2c>
    8298:	e59f5018 	ldr	r5, [pc, #24]	; 82b8 <internal_putk+0x34>
    829c:	e5953000 	ldr	r3, [r5]
    82a0:	e12fff33 	blx	r3
    82a4:	e5f40001 	ldrb	r0, [r4, #1]!
    82a8:	e3500000 	cmp	r0, #0, 0
    82ac:	1afffffa 	bne	829c <internal_putk+0x18>
    82b0:	e3a00001 	mov	r0, #1, 0
    82b4:	e8bd8070 	pop	{r4, r5, r6, pc}
    82b8:	00009bc4 	andeq	r9, r0, r4, asr #23

000082bc <emit.constprop.0>:
    82bc:	e92d41f0 	push	{r4, r5, r6, r7, r8, lr}
    82c0:	e3530080 	cmp	r3, #128, 0	; 0x80
    82c4:	e1a0c000 	mov	ip, r0
    82c8:	e24dd048 	sub	sp, sp, #72, 0	; 0x48
    82cc:	e1a00001 	mov	r0, r1
    82d0:	ca000069 	bgt	847c <emit.constprop.0+0x1c0>
    82d4:	e24c1002 	sub	r1, ip, #2, 0
    82d8:	e1a0c002 	mov	ip, r2
    82dc:	e351000e 	cmp	r1, #14, 0
    82e0:	979ff101 	ldrls	pc, [pc, r1, lsl #2]
    82e4:	ea0000a7 	b	8588 <emit.constprop.0+0x2cc>
    82e8:	00008454 	andeq	r8, r0, r4, asr r4
    82ec:	00008588 	andeq	r8, r0, r8, lsl #11
    82f0:	00008588 	andeq	r8, r0, r8, lsl #11
    82f4:	00008588 	andeq	r8, r0, r8, lsl #11
    82f8:	00008588 	andeq	r8, r0, r8, lsl #11
    82fc:	00008588 	andeq	r8, r0, r8, lsl #11
    8300:	00008530 	andeq	r8, r0, r0, lsr r5
    8304:	00008588 	andeq	r8, r0, r8, lsl #11
    8308:	000084d0 	ldrdeq	r8, [r0], -r0
    830c:	00008588 	andeq	r8, r0, r8, lsl #11
    8310:	00008588 	andeq	r8, r0, r8, lsl #11
    8314:	00008588 	andeq	r8, r0, r8, lsl #11
    8318:	00008588 	andeq	r8, r0, r8, lsl #11
    831c:	00008588 	andeq	r8, r0, r8, lsl #11
    8320:	00008328 	andeq	r8, r0, r8, lsr #6
    8324:	e3a0307f 	mov	r3, #127, 0	; 0x7f
    8328:	e28d2008 	add	r2, sp, #8, 0
    832c:	e1a04002 	mov	r4, r2
    8330:	e59f1288 	ldr	r1, [pc, #648]	; 85c0 <emit.constprop.0+0x304>
    8334:	e20ce00f 	and	lr, ip, #15, 0
    8338:	e7d1e00e 	ldrb	lr, [r1, lr]
    833c:	e35c000f 	cmp	ip, #15, 0
    8340:	e4c4e001 	strb	lr, [r4], #1
    8344:	e1a0c22c 	lsr	ip, ip, #4
    8348:	8afffff9 	bhi	8334 <emit.constprop.0+0x78>
    834c:	e3a0c078 	mov	ip, #120, 0	; 0x78
    8350:	e1a0e004 	mov	lr, r4
    8354:	e3a01030 	mov	r1, #48, 0	; 0x30
    8358:	e4cec002 	strb	ip, [lr], #2
    835c:	e5c41001 	strb	r1, [r4, #1]
    8360:	e04e1002 	sub	r1, lr, r2
    8364:	e1510003 	cmp	r1, r3
    8368:	aa000083 	bge	857c <emit.constprop.0+0x2c0>
    836c:	e1510003 	cmp	r1, r3
    8370:	a3a0c001 	movge	ip, #1, 0
    8374:	b3a0c000 	movlt	ip, #0, 0
    8378:	e2434001 	sub	r4, r3, #1, 0
    837c:	e0444001 	sub	r4, r4, r1
    8380:	b0436001 	sublt	r6, r3, r1
    8384:	a3a06001 	movge	r6, #1, 0
    8388:	e3540002 	cmp	r4, #2, 0
    838c:	938cc001 	orrls	ip, ip, #1, 0
    8390:	e35c0000 	cmp	ip, #0, 0
    8394:	1a000075 	bne	8570 <emit.constprop.0+0x2b4>
    8398:	e1a0c00e 	mov	ip, lr
    839c:	e3c65003 	bic	r5, r6, #3, 0
    83a0:	e59f721c 	ldr	r7, [pc, #540]	; 85c4 <emit.constprop.0+0x308>
    83a4:	e085500e 	add	r5, r5, lr
    83a8:	e48c7004 	str	r7, [ip], #4
    83ac:	e15c0005 	cmp	ip, r5
    83b0:	1afffffc 	bne	83a8 <emit.constprop.0+0xec>
    83b4:	e3c6c003 	bic	ip, r6, #3, 0
    83b8:	e156000c 	cmp	r6, ip
    83bc:	e08e500c 	add	r5, lr, ip
    83c0:	e08cc001 	add	ip, ip, r1
    83c4:	0a000008 	beq	83ec <emit.constprop.0+0x130>
    83c8:	e3a07020 	mov	r7, #32, 0
    83cc:	e28c8001 	add	r8, ip, #1, 0
    83d0:	e1580003 	cmp	r8, r3
    83d4:	e5c57000 	strb	r7, [r5]
    83d8:	aa000003 	bge	83ec <emit.constprop.0+0x130>
    83dc:	e28cc002 	add	ip, ip, #2, 0
    83e0:	e15c0003 	cmp	ip, r3
    83e4:	e5c57001 	strb	r7, [r5, #1]
    83e8:	b5c57002 	strblt	r7, [r5, #2]
    83ec:	e1510003 	cmp	r1, r3
    83f0:	a3a04000 	movge	r4, #0, 0
    83f4:	e08e6006 	add	r6, lr, r6
    83f8:	e0461002 	sub	r1, r6, r2
    83fc:	e08ee004 	add	lr, lr, r4
    8400:	e3a03000 	mov	r3, #0, 0
    8404:	e351007f 	cmp	r1, #127, 0	; 0x7f
    8408:	c241407f 	subgt	r4, r1, #127, 0	; 0x7f
    840c:	c0822004 	addgt	r2, r2, r4
    8410:	e152000e 	cmp	r2, lr
    8414:	e5c63000 	strb	r3, [r6]
    8418:	8a00004f 	bhi	855c <emit.constprop.0+0x2a0>
    841c:	e28ee001 	add	lr, lr, #1, 0
    8420:	e1a0300e 	mov	r3, lr
    8424:	e240c001 	sub	ip, r0, #1, 0
    8428:	e5734001 	ldrb	r4, [r3, #-1]!
    842c:	e1530002 	cmp	r3, r2
    8430:	e5ec4001 	strb	r4, [ip, #1]!
    8434:	1afffffb 	bne	8428 <emit.constprop.0+0x16c>
    8438:	e04ee003 	sub	lr, lr, r3
    843c:	e3a03000 	mov	r3, #0, 0
    8440:	e080e00e 	add	lr, r0, lr
    8444:	e5ce3000 	strb	r3, [lr]
    8448:	e28dd048 	add	sp, sp, #72, 0	; 0x48
    844c:	e8bd81f0 	pop	{r4, r5, r6, r7, r8, pc}
    8450:	e3a0307f 	mov	r3, #127, 0	; 0x7f
    8454:	e28d2008 	add	r2, sp, #8, 0
    8458:	e1a0e002 	mov	lr, r2
    845c:	e59f1164 	ldr	r1, [pc, #356]	; 85c8 <emit.constprop.0+0x30c>
    8460:	e20c4001 	and	r4, ip, #1, 0
    8464:	e7d14004 	ldrb	r4, [r1, r4]
    8468:	e35c0001 	cmp	ip, #1, 0
    846c:	e4ce4001 	strb	r4, [lr], #1
    8470:	e1a0c0ac 	lsr	ip, ip, #1
    8474:	8afffff9 	bhi	8460 <emit.constprop.0+0x1a4>
    8478:	eaffffb8 	b	8360 <emit.constprop.0+0xa4>
    847c:	e24c3002 	sub	r3, ip, #2, 0
    8480:	e1a0c002 	mov	ip, r2
    8484:	e353000e 	cmp	r3, #14, 0
    8488:	979ff103 	ldrls	pc, [pc, r3, lsl #2]
    848c:	ea00003d 	b	8588 <emit.constprop.0+0x2cc>
    8490:	00008450 	andeq	r8, r0, r0, asr r4
    8494:	00008588 	andeq	r8, r0, r8, lsl #11
    8498:	00008588 	andeq	r8, r0, r8, lsl #11
    849c:	00008588 	andeq	r8, r0, r8, lsl #11
    84a0:	00008588 	andeq	r8, r0, r8, lsl #11
    84a4:	00008588 	andeq	r8, r0, r8, lsl #11
    84a8:	000085a8 	andeq	r8, r0, r8, lsr #11
    84ac:	00008588 	andeq	r8, r0, r8, lsl #11
    84b0:	000084cc 	andeq	r8, r0, ip, asr #9
    84b4:	00008588 	andeq	r8, r0, r8, lsl #11
    84b8:	00008588 	andeq	r8, r0, r8, lsl #11
    84bc:	00008588 	andeq	r8, r0, r8, lsl #11
    84c0:	00008588 	andeq	r8, r0, r8, lsl #11
    84c4:	00008588 	andeq	r8, r0, r8, lsl #11
    84c8:	00008324 	andeq	r8, r0, r4, lsr #6
    84cc:	e3a0307f 	mov	r3, #127, 0	; 0x7f
    84d0:	e59d1060 	ldr	r1, [sp, #96]	; 0x60
    84d4:	e59f70f0 	ldr	r7, [pc, #240]	; 85cc <emit.constprop.0+0x310>
    84d8:	e0118fa2 	ands	r8, r1, r2, lsr #31
    84dc:	1262c000 	rsbne	ip, r2, #0, 0
    84e0:	e28d2008 	add	r2, sp, #8, 0
    84e4:	13a08001 	movne	r8, #1, 0
    84e8:	e1a0e002 	mov	lr, r2
    84ec:	e59f60dc 	ldr	r6, [pc, #220]	; 85d0 <emit.constprop.0+0x314>
    84f0:	e1a0500c 	mov	r5, ip
    84f4:	e0814c96 	umull	r4, r1, r6, ip
    84f8:	e1a011a1 	lsr	r1, r1, #3
    84fc:	e0814101 	add	r4, r1, r1, lsl #2
    8500:	e04cc084 	sub	ip, ip, r4, lsl #1
    8504:	e7d7400c 	ldrb	r4, [r7, ip]
    8508:	e3550009 	cmp	r5, #9, 0
    850c:	e1a0c001 	mov	ip, r1
    8510:	e1a0100e 	mov	r1, lr
    8514:	e4ce4001 	strb	r4, [lr], #1
    8518:	8afffff4 	bhi	84f0 <emit.constprop.0+0x234>
    851c:	e3580000 	cmp	r8, #0, 0
    8520:	13a0c02d 	movne	ip, #45, 0	; 0x2d
    8524:	15cec000 	strbne	ip, [lr]
    8528:	1281e002 	addne	lr, r1, #2, 0
    852c:	eaffff8b 	b	8360 <emit.constprop.0+0xa4>
    8530:	e3530001 	cmp	r3, #1, 0
    8534:	e5cd2008 	strb	r2, [sp, #8]
    8538:	c3a01001 	movgt	r1, #1, 0
    853c:	c28de009 	addgt	lr, sp, #9, 0
    8540:	c28d2008 	addgt	r2, sp, #8, 0
    8544:	caffff88 	bgt	836c <emit.constprop.0+0xb0>
    8548:	e3a03000 	mov	r3, #0, 0
    854c:	e28de008 	add	lr, sp, #8, 0
    8550:	e1a0200e 	mov	r2, lr
    8554:	e5cd3009 	strb	r3, [sp, #9]
    8558:	eaffffaf 	b	841c <emit.constprop.0+0x160>
    855c:	e1a0e000 	mov	lr, r0
    8560:	e3a03000 	mov	r3, #0, 0
    8564:	e5ce3000 	strb	r3, [lr]
    8568:	e28dd048 	add	sp, sp, #72, 0	; 0x48
    856c:	e8bd81f0 	pop	{r4, r5, r6, r7, r8, pc}
    8570:	e1a0c001 	mov	ip, r1
    8574:	e1a0500e 	mov	r5, lr
    8578:	eaffff92 	b	83c8 <emit.constprop.0+0x10c>
    857c:	e1a0600e 	mov	r6, lr
    8580:	e24ee001 	sub	lr, lr, #1, 0
    8584:	eaffff9d 	b	8400 <emit.constprop.0+0x144>
    8588:	e59f2044 	ldr	r2, [pc, #68]	; 85d4 <emit.constprop.0+0x318>
    858c:	e3a03079 	mov	r3, #121, 0	; 0x79
    8590:	e59f1040 	ldr	r1, [pc, #64]	; 85d8 <emit.constprop.0+0x31c>
    8594:	e58d2000 	str	r2, [sp]
    8598:	e59f003c 	ldr	r0, [pc, #60]	; 85dc <emit.constprop.0+0x320>
    859c:	e59f203c 	ldr	r2, [pc, #60]	; 85e0 <emit.constprop.0+0x324>
    85a0:	ebffff21 	bl	822c <printk>
    85a4:	eb0001b1 	bl	8c70 <clean_reboot>
    85a8:	e5cd2008 	strb	r2, [sp, #8]
    85ac:	e3a0307f 	mov	r3, #127, 0	; 0x7f
    85b0:	e3a01001 	mov	r1, #1, 0
    85b4:	e28de009 	add	lr, sp, #9, 0
    85b8:	e28d2008 	add	r2, sp, #8, 0
    85bc:	eaffff6a 	b	836c <emit.constprop.0+0xb0>
    85c0:	0000985c 	andeq	r9, r0, ip, asr r8
    85c4:	20202020 	eorcs	r2, r0, r0, lsr #32
    85c8:	00009870 	andeq	r9, r0, r0, ror r8
    85cc:	00009874 	andeq	r9, r0, r4, ror r8
    85d0:	cccccccd 	stclgt	12, cr12, [ip], {205}	; 0xcd
    85d4:	00009858 	andeq	r9, r0, r8, asr r8
    85d8:	00009830 	andeq	r9, r0, r0, lsr r8
    85dc:	00009844 	andeq	r9, r0, r4, asr #16
    85e0:	00009988 	andeq	r9, r0, r8, lsl #19

000085e4 <rpi_set_output>:
    85e4:	e3500000 	cmp	r0, #0, 0
    85e8:	0a000005 	beq	8604 <rpi_set_output+0x20>
    85ec:	e59f3038 	ldr	r3, [pc, #56]	; 862c <rpi_set_output+0x48>
    85f0:	e3510000 	cmp	r1, #0, 0
    85f4:	e5830000 	str	r0, [r3]
    85f8:	159f3030 	ldrne	r3, [pc, #48]	; 8630 <rpi_set_output+0x4c>
    85fc:	15831000 	strne	r1, [r3]
    8600:	e12fff1e 	bx	lr
    8604:	e52de004 	push	{lr}		; (str lr, [sp, #-4]!)
    8608:	e59f2024 	ldr	r2, [pc, #36]	; 8634 <rpi_set_output+0x50>
    860c:	e24dd00c 	sub	sp, sp, #12, 0
    8610:	e3a03020 	mov	r3, #32, 0
    8614:	e59f101c 	ldr	r1, [pc, #28]	; 8638 <rpi_set_output+0x54>
    8618:	e58d2000 	str	r2, [sp]
    861c:	e59f0018 	ldr	r0, [pc, #24]	; 863c <rpi_set_output+0x58>
    8620:	e59f2018 	ldr	r2, [pc, #24]	; 8640 <rpi_set_output+0x5c>
    8624:	ebffff00 	bl	822c <printk>
    8628:	eb000190 	bl	8c70 <clean_reboot>
    862c:	00009bc4 	andeq	r9, r0, r4, asr #23
    8630:	00009bb4 			; <UNDEFINED> instruction: 0x00009bb4
    8634:	00009880 	andeq	r9, r0, r0, lsl #17
    8638:	00009830 	andeq	r9, r0, r0, lsr r8
    863c:	00009844 	andeq	r9, r0, r4, asr #16
    8640:	00009990 	muleq	r0, r0, r9

00008644 <va_printk>:
    8644:	e92d4ff0 	push	{r4, r5, r6, r7, r8, r9, sl, fp, lr}
    8648:	e1a0b000 	mov	fp, r0
    864c:	e3a00000 	mov	r0, #0, 0
    8650:	e5cb0000 	strb	r0, [fp]
    8654:	e5d2c000 	ldrb	ip, [r2]
    8658:	e2417001 	sub	r7, r1, #1, 0
    865c:	e08b7007 	add	r7, fp, r7
    8660:	e15c0000 	cmp	ip, r0
    8664:	115b0007 	cmpne	fp, r7
    8668:	e24ddf47 	sub	sp, sp, #284	; 0x11c
    866c:	e58d2010 	str	r2, [sp, #16]
    8670:	2a000159 	bcs	8bdc <va_printk+0x598>
    8674:	e1a06002 	mov	r6, r2
    8678:	e1a08003 	mov	r8, r3
    867c:	e1a0400b 	mov	r4, fp
    8680:	e59fa5a4 	ldr	sl, [pc, #1444]	; 8c2c <va_printk+0x5e8>
    8684:	e58db00c 	str	fp, [sp, #12]
    8688:	ea000005 	b	86a4 <va_printk+0x60>
    868c:	e4c4c001 	strb	ip, [r4], #1
    8690:	e2866001 	add	r6, r6, #1, 0
    8694:	e5d6c000 	ldrb	ip, [r6]
    8698:	e35c0000 	cmp	ip, #0, 0
    869c:	11570004 	cmpne	r7, r4
    86a0:	9a00002f 	bls	8764 <va_printk+0x120>
    86a4:	e35c0025 	cmp	ip, #37, 0	; 0x25
    86a8:	1afffff7 	bne	868c <va_printk+0x48>
    86ac:	e5d62001 	ldrb	r2, [r6, #1]
    86b0:	e3520025 	cmp	r2, #37, 0	; 0x25
    86b4:	04c4c001 	strbeq	ip, [r4], #1
    86b8:	02866002 	addeq	r6, r6, #2, 0
    86bc:	0afffff4 	beq	8694 <va_printk+0x50>
    86c0:	e2423030 	sub	r3, r2, #48, 0	; 0x30
    86c4:	e3530009 	cmp	r3, #9, 0
    86c8:	e3a05000 	mov	r5, #0, 0
    86cc:	e2866001 	add	r6, r6, #1, 0
    86d0:	8a000008 	bhi	86f8 <va_printk+0xb4>
    86d4:	e0855105 	add	r5, r5, r5, lsl #2
    86d8:	e0825085 	add	r5, r2, r5, lsl #1
    86dc:	e5f62001 	ldrb	r2, [r6, #1]!
    86e0:	e2455030 	sub	r5, r5, #48, 0	; 0x30
    86e4:	e2423030 	sub	r3, r2, #48, 0	; 0x30
    86e8:	e3530009 	cmp	r3, #9, 0
    86ec:	9afffff8 	bls	86d4 <va_printk+0x90>
    86f0:	e355001f 	cmp	r5, #31, 0
    86f4:	8a00013a 	bhi	8be4 <va_printk+0x5a0>
    86f8:	e2423062 	sub	r3, r2, #98, 0	; 0x62
    86fc:	e3530016 	cmp	r3, #22, 0
    8700:	979ff103 	ldrls	pc, [pc, r3, lsl #2]
    8704:	ea00011b 	b	8b78 <va_printk+0x534>
    8708:	000089bc 			; <UNDEFINED> instruction: 0x000089bc
    870c:	000088b8 			; <UNDEFINED> instruction: 0x000088b8
    8710:	000088b0 			; <UNDEFINED> instruction: 0x000088b0
    8714:	00008b78 	andeq	r8, r0, r8, ror fp
    8718:	00008bb4 			; <UNDEFINED> instruction: 0x00008bb4
    871c:	00008b78 	andeq	r8, r0, r8, ror fp
    8720:	00008b78 	andeq	r8, r0, r8, ror fp
    8724:	00008b78 	andeq	r8, r0, r8, ror fp
    8728:	00008b78 	andeq	r8, r0, r8, ror fp
    872c:	00008b78 	andeq	r8, r0, r8, ror fp
    8730:	000087c0 	andeq	r8, r0, r0, asr #15
    8734:	00008b78 	andeq	r8, r0, r8, ror fp
    8738:	00008b78 	andeq	r8, r0, r8, ror fp
    873c:	00008b78 	andeq	r8, r0, r8, ror fp
    8740:	0000877c 	andeq	r8, r0, ip, ror r7
    8744:	00008b78 	andeq	r8, r0, r8, ror fp
    8748:	00008b78 	andeq	r8, r0, r8, ror fp
    874c:	00008ab4 			; <UNDEFINED> instruction: 0x00008ab4
    8750:	00008b78 	andeq	r8, r0, r8, ror fp
    8754:	0000888c 	andeq	r8, r0, ip, lsl #17
    8758:	00008b78 	andeq	r8, r0, r8, ror fp
    875c:	00008b78 	andeq	r8, r0, r8, ror fp
    8760:	0000877c 	andeq	r8, r0, ip, ror r7
    8764:	e59db00c 	ldr	fp, [sp, #12]
    8768:	e3a03000 	mov	r3, #0, 0
    876c:	e4c43001 	strb	r3, [r4], #1
    8770:	e044000b 	sub	r0, r4, fp
    8774:	e28ddf47 	add	sp, sp, #284	; 0x11c
    8778:	e8bd8ff0 	pop	{r4, r5, r6, r7, r8, r9, sl, fp, pc}
    877c:	e3a01000 	mov	r1, #0, 0
    8780:	e1a03005 	mov	r3, r5
    8784:	e4982004 	ldr	r2, [r8], #4
    8788:	e3a00010 	mov	r0, #16, 0
    878c:	e58d1000 	str	r1, [sp]
    8790:	e28d1018 	add	r1, sp, #24, 0
    8794:	ebfffec8 	bl	82bc <emit.constprop.0>
    8798:	e1a05000 	mov	r5, r0
    879c:	e2866001 	add	r6, r6, #1, 0
    87a0:	e2455001 	sub	r5, r5, #1, 0
    87a4:	e5f53001 	ldrb	r3, [r5, #1]!
    87a8:	e3530000 	cmp	r3, #0, 0
    87ac:	0affffb8 	beq	8694 <va_printk+0x50>
    87b0:	e4c43001 	strb	r3, [r4], #1
    87b4:	e1570004 	cmp	r7, r4
    87b8:	8afffff9 	bhi	87a4 <va_printk+0x160>
    87bc:	eaffffb4 	b	8694 <va_printk+0x50>
    87c0:	e3a02003 	mov	r2, #3, 0
    87c4:	e1a00006 	mov	r0, r6
    87c8:	e59f1460 	ldr	r1, [pc, #1120]	; 8c30 <va_printk+0x5ec>
    87cc:	eb0003f8 	bl	97b4 <strncmp>
    87d0:	e3500000 	cmp	r0, #0, 0
    87d4:	0a000005 	beq	87f0 <va_printk+0x1ac>
    87d8:	e3a02003 	mov	r2, #3, 0
    87dc:	e1a00006 	mov	r0, r6
    87e0:	e59f144c 	ldr	r1, [pc, #1100]	; 8c34 <va_printk+0x5f0>
    87e4:	eb0003f2 	bl	97b4 <strncmp>
    87e8:	e3500000 	cmp	r0, #0, 0
    87ec:	1a00010b 	bne	8c20 <va_printk+0x5dc>
    87f0:	e2888007 	add	r8, r8, #7, 0
    87f4:	e3c88007 	bic	r8, r8, #7, 0
    87f8:	e598b004 	ldr	fp, [r8, #4]
    87fc:	e4989008 	ldr	r9, [r8], #8
    8800:	e1a0100b 	mov	r1, fp
    8804:	e59f042c 	ldr	r0, [pc, #1068]	; 8c38 <va_printk+0x5f4>
    8808:	ebfffe87 	bl	822c <printk>
    880c:	e1a01009 	mov	r1, r9
    8810:	e59f0424 	ldr	r0, [pc, #1060]	; 8c3c <va_printk+0x5f8>
    8814:	ebfffe84 	bl	822c <printk>
    8818:	e3a02003 	mov	r2, #3, 0
    881c:	e1a00006 	mov	r0, r6
    8820:	e59f1408 	ldr	r1, [pc, #1032]	; 8c30 <va_printk+0x5ec>
    8824:	eb0003e2 	bl	97b4 <strncmp>
    8828:	e2503000 	subs	r3, r0, #0, 0
    882c:	e1a02003 	mov	r2, r3
    8830:	e2863002 	add	r3, r6, #2, 0
    8834:	e58d3014 	str	r3, [sp, #20]
    8838:	1a00009f 	bne	8abc <va_printk+0x478>
    883c:	e1a06002 	mov	r6, r2
    8840:	e1a03005 	mov	r3, r5
    8844:	e58d2000 	str	r2, [sp]
    8848:	e28d1018 	add	r1, sp, #24, 0
    884c:	e1a0200b 	mov	r2, fp
    8850:	e3a00010 	mov	r0, #16, 0
    8854:	ebfffe98 	bl	82bc <emit.constprop.0>
    8858:	e1a0c000 	mov	ip, r0
    885c:	e1a03005 	mov	r3, r5
    8860:	e58d6000 	str	r6, [sp]
    8864:	e28d1098 	add	r1, sp, #152, 0	; 0x98
    8868:	e1a02009 	mov	r2, r9
    886c:	e3a00010 	mov	r0, #16, 0
    8870:	e1a0500c 	mov	r5, ip
    8874:	ebfffe90 	bl	82bc <emit.constprop.0>
    8878:	e28d0018 	add	r0, sp, #24, 0
    887c:	e28d109a 	add	r1, sp, #154, 0	; 0x9a
    8880:	e59d6014 	ldr	r6, [sp, #20]
    8884:	eb0003a8 	bl	972c <strcat>
    8888:	eaffffc3 	b	879c <va_printk+0x158>
    888c:	e3a01000 	mov	r1, #0, 0
    8890:	e1a03005 	mov	r3, r5
    8894:	e4982004 	ldr	r2, [r8], #4
    8898:	e3a0000a 	mov	r0, #10, 0
    889c:	e58d1000 	str	r1, [sp]
    88a0:	e28d1018 	add	r1, sp, #24, 0
    88a4:	ebfffe84 	bl	82bc <emit.constprop.0>
    88a8:	e1a05000 	mov	r5, r0
    88ac:	eaffffba 	b	879c <va_printk+0x158>
    88b0:	e3a01001 	mov	r1, #1, 0
    88b4:	eafffff5 	b	8890 <va_printk+0x24c>
    88b8:	e4983004 	ldr	r3, [r8], #4
    88bc:	e3550001 	cmp	r5, #1, 0
    88c0:	e5cd3098 	strb	r3, [sp, #152]	; 0x98
    88c4:	9a0000a6 	bls	8b64 <va_printk+0x520>
    88c8:	e2453002 	sub	r3, r5, #2, 0
    88cc:	e3530002 	cmp	r3, #2, 0
    88d0:	e2451001 	sub	r1, r5, #1, 0
    88d4:	9a0000bc 	bls	8bcc <va_printk+0x588>
    88d8:	e59f0360 	ldr	r0, [pc, #864]	; 8c40 <va_printk+0x5fc>
    88dc:	e1a02121 	lsr	r2, r1, #2
    88e0:	e3520001 	cmp	r2, #1, 0
    88e4:	e58d0099 	str	r0, [sp, #153]	; 0x99
    88e8:	0a00000e 	beq	8928 <va_printk+0x2e4>
    88ec:	e3520002 	cmp	r2, #2, 0
    88f0:	e58d009d 	str	r0, [sp, #157]	; 0x9d
    88f4:	0a00000b 	beq	8928 <va_printk+0x2e4>
    88f8:	e3520003 	cmp	r2, #3, 0
    88fc:	e58d00a1 	str	r0, [sp, #161]	; 0xa1
    8900:	0a000008 	beq	8928 <va_printk+0x2e4>
    8904:	e3520004 	cmp	r2, #4, 0
    8908:	e58d00a5 	str	r0, [sp, #165]	; 0xa5
    890c:	0a000005 	beq	8928 <va_printk+0x2e4>
    8910:	e3520005 	cmp	r2, #5, 0
    8914:	e58d00a9 	str	r0, [sp, #169]	; 0xa9
    8918:	0a000002 	beq	8928 <va_printk+0x2e4>
    891c:	e3520007 	cmp	r2, #7, 0
    8920:	e58d00ad 	str	r0, [sp, #173]	; 0xad
    8924:	058d00b1 	streq	r0, [sp, #177]	; 0xb1
    8928:	e3c12003 	bic	r2, r1, #3, 0
    892c:	e1510002 	cmp	r1, r2
    8930:	e28dc099 	add	ip, sp, #153, 0	; 0x99
    8934:	e08c0002 	add	r0, ip, r2
    8938:	e2822001 	add	r2, r2, #1, 0
    893c:	0a000008 	beq	8964 <va_printk+0x320>
    8940:	e3a0e020 	mov	lr, #32, 0
    8944:	e2829001 	add	r9, r2, #1, 0
    8948:	e1550009 	cmp	r5, r9
    894c:	e5c0e000 	strb	lr, [r0]
    8950:	da000003 	ble	8964 <va_printk+0x320>
    8954:	e2822002 	add	r2, r2, #2, 0
    8958:	e1550002 	cmp	r5, r2
    895c:	e5c0e001 	strb	lr, [r0, #1]
    8960:	c5c0e002 	strbgt	lr, [r0, #2]
    8964:	e3a0e000 	mov	lr, #0, 0
    8968:	e28d0098 	add	r0, sp, #152, 0	; 0x98
    896c:	e08c2001 	add	r2, ip, r1
    8970:	e0422000 	sub	r2, r2, r0
    8974:	e352007f 	cmp	r2, #127, 0	; 0x7f
    8978:	c242207f 	subgt	r2, r2, #127, 0	; 0x7f
    897c:	e08c3003 	add	r3, ip, r3
    8980:	c0800002 	addgt	r0, r0, r2
    8984:	e1530000 	cmp	r3, r0
    8988:	e7cce001 	strb	lr, [ip, r1]
    898c:	3a00006c 	bcc	8b44 <va_printk+0x500>
    8990:	e283c001 	add	ip, r3, #1, 0
    8994:	e1a0300c 	mov	r3, ip
    8998:	e28d5018 	add	r5, sp, #24, 0
    899c:	e2452001 	sub	r2, r5, #1, 0
    89a0:	e5731001 	ldrb	r1, [r3, #-1]!
    89a4:	e1500003 	cmp	r0, r3
    89a8:	e5e21001 	strb	r1, [r2, #1]!
    89ac:	1afffffb 	bne	89a0 <va_printk+0x35c>
    89b0:	e04c3000 	sub	r3, ip, r0
    89b4:	e0853003 	add	r3, r5, r3
    89b8:	ea00003a 	b	8aa8 <va_printk+0x464>
    89bc:	e28d1098 	add	r1, sp, #152, 0	; 0x98
    89c0:	e1a03001 	mov	r3, r1
    89c4:	e4980004 	ldr	r0, [r8], #4
    89c8:	e200c001 	and	ip, r0, #1, 0
    89cc:	e7dac00c 	ldrb	ip, [sl, ip]
    89d0:	e3500001 	cmp	r0, #1, 0
    89d4:	e1a02003 	mov	r2, r3
    89d8:	e1a000a0 	lsr	r0, r0, #1
    89dc:	e4c3c001 	strb	ip, [r3], #1
    89e0:	8afffff8 	bhi	89c8 <va_printk+0x384>
    89e4:	e0430001 	sub	r0, r3, r1
    89e8:	e1550000 	cmp	r5, r0
    89ec:	da000057 	ble	8b50 <va_printk+0x50c>
    89f0:	e045c000 	sub	ip, r5, r0
    89f4:	e24ce001 	sub	lr, ip, #1, 0
    89f8:	e35e0002 	cmp	lr, #2, 0
    89fc:	e1a0e003 	mov	lr, r3
    8a00:	9a00000a 	bls	8a30 <va_printk+0x3ec>
    8a04:	e3cc9003 	bic	r9, ip, #3, 0
    8a08:	e0899003 	add	r9, r9, r3
    8a0c:	e59fb22c 	ldr	fp, [pc, #556]	; 8c40 <va_printk+0x5fc>
    8a10:	e48eb004 	str	fp, [lr], #4
    8a14:	e15e0009 	cmp	lr, r9
    8a18:	1afffffb 	bne	8a0c <va_printk+0x3c8>
    8a1c:	e3cce003 	bic	lr, ip, #3, 0
    8a20:	e15e000c 	cmp	lr, ip
    8a24:	e080000e 	add	r0, r0, lr
    8a28:	e083e00e 	add	lr, r3, lr
    8a2c:	0a000008 	beq	8a54 <va_printk+0x410>
    8a30:	e3a09020 	mov	r9, #32, 0
    8a34:	e280b001 	add	fp, r0, #1, 0
    8a38:	e155000b 	cmp	r5, fp
    8a3c:	e5ce9000 	strb	r9, [lr]
    8a40:	da000003 	ble	8a54 <va_printk+0x410>
    8a44:	e2800002 	add	r0, r0, #2, 0
    8a48:	e1550000 	cmp	r5, r0
    8a4c:	e5ce9001 	strb	r9, [lr, #1]
    8a50:	c5ce9002 	strbgt	r9, [lr, #2]
    8a54:	e3a0e000 	mov	lr, #0, 0
    8a58:	e083000c 	add	r0, r3, ip
    8a5c:	e0400001 	sub	r0, r0, r1
    8a60:	e350007f 	cmp	r0, #127, 0	; 0x7f
    8a64:	e082200c 	add	r2, r2, ip
    8a68:	e7c3e00c 	strb	lr, [r3, ip]
    8a6c:	da000001 	ble	8a78 <va_printk+0x434>
    8a70:	e240007f 	sub	r0, r0, #127, 0	; 0x7f
    8a74:	e0811000 	add	r1, r1, r0
    8a78:	e1510002 	cmp	r1, r2
    8a7c:	8a000030 	bhi	8b44 <va_printk+0x500>
    8a80:	e2822001 	add	r2, r2, #1, 0
    8a84:	e1a03002 	mov	r3, r2
    8a88:	e28d5018 	add	r5, sp, #24, 0
    8a8c:	e245c001 	sub	ip, r5, #1, 0
    8a90:	e5730001 	ldrb	r0, [r3, #-1]!
    8a94:	e1530001 	cmp	r3, r1
    8a98:	e5ec0001 	strb	r0, [ip, #1]!
    8a9c:	1afffffb 	bne	8a90 <va_printk+0x44c>
    8aa0:	e0423003 	sub	r3, r2, r3
    8aa4:	e0853003 	add	r3, r5, r3
    8aa8:	e3a02000 	mov	r2, #0, 0
    8aac:	e5c32000 	strb	r2, [r3]
    8ab0:	eaffff39 	b	879c <va_printk+0x158>
    8ab4:	e4985004 	ldr	r5, [r8], #4
    8ab8:	eaffff37 	b	879c <va_printk+0x158>
    8abc:	e3a02003 	mov	r2, #3, 0
    8ac0:	e1a00006 	mov	r0, r6
    8ac4:	e59f1168 	ldr	r1, [pc, #360]	; 8c34 <va_printk+0x5f0>
    8ac8:	eb000339 	bl	97b4 <strncmp>
    8acc:	e2503000 	subs	r3, r0, #0, 0
    8ad0:	1a00004b 	bne	8c04 <va_printk+0x5c0>
    8ad4:	e1a06003 	mov	r6, r3
    8ad8:	e1a0200b 	mov	r2, fp
    8adc:	e58d3000 	str	r3, [sp]
    8ae0:	e28d1018 	add	r1, sp, #24, 0
    8ae4:	e1a03005 	mov	r3, r5
    8ae8:	e3a0000a 	mov	r0, #10, 0
    8aec:	ebfffdf2 	bl	82bc <emit.constprop.0>
    8af0:	e1a0c000 	mov	ip, r0
    8af4:	e1a03005 	mov	r3, r5
    8af8:	e1a02009 	mov	r2, r9
    8afc:	e28d1098 	add	r1, sp, #152, 0	; 0x98
    8b00:	e3a0000a 	mov	r0, #10, 0
    8b04:	e58d6000 	str	r6, [sp]
    8b08:	e1a0500c 	mov	r5, ip
    8b0c:	ebfffdea 	bl	82bc <emit.constprop.0>
    8b10:	e59f112c 	ldr	r1, [pc, #300]	; 8c44 <va_printk+0x600>
    8b14:	e28d0018 	add	r0, sp, #24, 0
    8b18:	eb00030e 	bl	9758 <strcmp>
    8b1c:	e3500000 	cmp	r0, #0, 0
    8b20:	e28d1098 	add	r1, sp, #152, 0	; 0x98
    8b24:	e28d0018 	add	r0, sp, #24, 0
    8b28:	1a000002 	bne	8b38 <va_printk+0x4f4>
    8b2c:	eb00031a 	bl	979c <strcpy>
    8b30:	e59d6014 	ldr	r6, [sp, #20]
    8b34:	eaffff18 	b	879c <va_printk+0x158>
    8b38:	eb0002fb 	bl	972c <strcat>
    8b3c:	e59d6014 	ldr	r6, [sp, #20]
    8b40:	eaffff15 	b	879c <va_printk+0x158>
    8b44:	e28d5018 	add	r5, sp, #24, 0
    8b48:	e1a03005 	mov	r3, r5
    8b4c:	eaffffd5 	b	8aa8 <va_printk+0x464>
    8b50:	e3a0c000 	mov	ip, #0, 0
    8b54:	e350007f 	cmp	r0, #127, 0	; 0x7f
    8b58:	e5c3c000 	strb	ip, [r3]
    8b5c:	caffffc3 	bgt	8a70 <va_printk+0x42c>
    8b60:	eaffffc6 	b	8a80 <va_printk+0x43c>
    8b64:	e3a02000 	mov	r2, #0, 0
    8b68:	e28d3098 	add	r3, sp, #152, 0	; 0x98
    8b6c:	e1a00003 	mov	r0, r3
    8b70:	e5cd2099 	strb	r2, [sp, #153]	; 0x99
    8b74:	eaffff85 	b	8990 <va_printk+0x34c>
    8b78:	e3a03000 	mov	r3, #0, 0
    8b7c:	e1a01002 	mov	r1, r2
    8b80:	e5c63001 	strb	r3, [r6, #1]
    8b84:	e59f00bc 	ldr	r0, [pc, #188]	; 8c48 <va_printk+0x604>
    8b88:	ebfffda7 	bl	822c <printk>
    8b8c:	e59f30b8 	ldr	r3, [pc, #184]	; 8c4c <va_printk+0x608>
    8b90:	e59d0010 	ldr	r0, [sp, #16]
    8b94:	e5933000 	ldr	r3, [r3]
    8b98:	e12fff33 	blx	r3
    8b9c:	e3a030e2 	mov	r3, #226, 0	; 0xe2
    8ba0:	e59f20a8 	ldr	r2, [pc, #168]	; 8c50 <va_printk+0x60c>
    8ba4:	e59f10a8 	ldr	r1, [pc, #168]	; 8c54 <va_printk+0x610>
    8ba8:	e59f00a8 	ldr	r0, [pc, #168]	; 8c58 <va_printk+0x614>
    8bac:	ebfffd9e 	bl	822c <printk>
    8bb0:	eb00002e 	bl	8c70 <clean_reboot>
    8bb4:	e3a030be 	mov	r3, #190, 0	; 0xbe
    8bb8:	e59f2090 	ldr	r2, [pc, #144]	; 8c50 <va_printk+0x60c>
    8bbc:	e59f1090 	ldr	r1, [pc, #144]	; 8c54 <va_printk+0x610>
    8bc0:	e59f0094 	ldr	r0, [pc, #148]	; 8c5c <va_printk+0x618>
    8bc4:	ebfffd98 	bl	822c <printk>
    8bc8:	eb000028 	bl	8c70 <clean_reboot>
    8bcc:	e28dc099 	add	ip, sp, #153, 0	; 0x99
    8bd0:	e1a0000c 	mov	r0, ip
    8bd4:	e3a02001 	mov	r2, #1, 0
    8bd8:	eaffff58 	b	8940 <va_printk+0x2fc>
    8bdc:	e1a0400b 	mov	r4, fp
    8be0:	eafffee0 	b	8768 <va_printk+0x124>
    8be4:	e3a03098 	mov	r3, #152, 0	; 0x98
    8be8:	e59f2070 	ldr	r2, [pc, #112]	; 8c60 <va_printk+0x61c>
    8bec:	e59f1060 	ldr	r1, [pc, #96]	; 8c54 <va_printk+0x610>
    8bf0:	e58d2000 	str	r2, [sp]
    8bf4:	e59f0068 	ldr	r0, [pc, #104]	; 8c64 <va_printk+0x620>
    8bf8:	e59f2050 	ldr	r2, [pc, #80]	; 8c50 <va_printk+0x60c>
    8bfc:	ebfffd8a 	bl	822c <printk>
    8c00:	eb00001a 	bl	8c70 <clean_reboot>
    8c04:	e3a030b6 	mov	r3, #182, 0	; 0xb6
    8c08:	e59f2040 	ldr	r2, [pc, #64]	; 8c50 <va_printk+0x60c>
    8c0c:	e59f1040 	ldr	r1, [pc, #64]	; 8c54 <va_printk+0x610>
    8c10:	e59f0050 	ldr	r0, [pc, #80]	; 8c68 <va_printk+0x624>
    8c14:	e58d6000 	str	r6, [sp]
    8c18:	ebfffd83 	bl	822c <printk>
    8c1c:	eb000013 	bl	8c70 <clean_reboot>
    8c20:	e3a0309f 	mov	r3, #159, 0	; 0x9f
    8c24:	e59f2040 	ldr	r2, [pc, #64]	; 8c6c <va_printk+0x628>
    8c28:	eaffffef 	b	8bec <va_printk+0x5a8>
    8c2c:	00009870 	andeq	r9, r0, r0, ror r8
    8c30:	00009894 	muleq	r0, r4, r8
    8c34:	000098a8 	andeq	r9, r0, r8, lsr #17
    8c38:	00009898 	muleq	r0, r8, r8
    8c3c:	000098a0 	andeq	r9, r0, r0, lsr #17
    8c40:	20202020 	eorcs	r2, r0, r0, lsr #32
    8c44:	00009858 	andeq	r9, r0, r8, asr r8
    8c48:	00009938 	andeq	r9, r0, r8, lsr r9
    8c4c:	00009bb4 			; <UNDEFINED> instruction: 0x00009bb4
    8c50:	000099a0 	andeq	r9, r0, r0, lsr #19
    8c54:	00009830 	andeq	r9, r0, r0, lsr r8
    8c58:	00009968 	andeq	r9, r0, r8, ror #18
    8c5c:	00009910 	andeq	r9, r0, r0, lsl r9
    8c60:	00009888 	andeq	r9, r0, r8, lsl #17
    8c64:	00009844 	andeq	r9, r0, r4, asr #16
    8c68:	000098e8 	andeq	r9, r0, r8, ror #17
    8c6c:	000098ac 	andeq	r9, r0, ip, lsr #17

00008c70 <clean_reboot>:
    8c70:	e59f301c 	ldr	r3, [pc, #28]	; 8c94 <clean_reboot+0x24>
    8c74:	e92d4010 	push	{r4, lr}
    8c78:	e5933000 	ldr	r3, [r3]
    8c7c:	e59f0014 	ldr	r0, [pc, #20]	; 8c98 <clean_reboot+0x28>
    8c80:	e12fff33 	blx	r3
    8c84:	eb00011b 	bl	90f8 <uart_flush_tx>
    8c88:	e3a0000a 	mov	r0, #10, 0
    8c8c:	eb000082 	bl	8e9c <delay_ms>
    8c90:	eb00004b 	bl	8dc4 <rpi_reboot>
    8c94:	00009bb4 			; <UNDEFINED> instruction: 0x00009bb4
    8c98:	000099ac 	andeq	r9, r0, ip, lsr #19

00008c9c <_cstart>:
    8c9c:	e92d4070 	push	{r4, r5, r6, lr}
    8ca0:	eb00003b 	bl	8d94 <custom_loader>
    8ca4:	e59f20e0 	ldr	r2, [pc, #224]	; 8d8c <_cstart+0xf0>
    8ca8:	e59fc0e0 	ldr	ip, [pc, #224]	; 8d90 <_cstart+0xf4>
    8cac:	e152000c 	cmp	r2, ip
    8cb0:	2a00002e 	bcs	8d70 <_cstart+0xd4>
    8cb4:	e24c1001 	sub	r1, ip, #1, 0
    8cb8:	e0411002 	sub	r1, r1, r2
    8cbc:	e3510017 	cmp	r1, #23, 0
    8cc0:	e1a03122 	lsr	r3, r2, #2
    8cc4:	e1a01121 	lsr	r1, r1, #2
    8cc8:	e2811001 	add	r1, r1, #1, 0
    8ccc:	e2033001 	and	r3, r3, #1, 0
    8cd0:	9a00002b 	bls	8d84 <_cstart+0xe8>
    8cd4:	e3530000 	cmp	r3, #0, 0
    8cd8:	11a00002 	movne	r0, r2
    8cdc:	13a0e000 	movne	lr, #0, 0
    8ce0:	e3a04000 	mov	r4, #0, 0
    8ce4:	e3a05000 	mov	r5, #0, 0
    8ce8:	e0411003 	sub	r1, r1, r3
    8cec:	01a00002 	moveq	r0, r2
    8cf0:	e0823103 	add	r3, r2, r3, lsl #2
    8cf4:	e1a020a1 	lsr	r2, r1, #1
    8cf8:	1480e004 	strne	lr, [r0], #4
    8cfc:	e0832182 	add	r2, r3, r2, lsl #3
    8d00:	e0c340f8 	strd	r4, [r3], #8
    8d04:	e1520003 	cmp	r2, r3
    8d08:	1afffffc 	bne	8d00 <_cstart+0x64>
    8d0c:	e3c13001 	bic	r3, r1, #1, 0
    8d10:	e1510003 	cmp	r1, r3
    8d14:	e0803103 	add	r3, r0, r3, lsl #2
    8d18:	0a000014 	beq	8d70 <_cstart+0xd4>
    8d1c:	e1a01003 	mov	r1, r3
    8d20:	e3a02000 	mov	r2, #0, 0
    8d24:	e4812004 	str	r2, [r1], #4
    8d28:	e151000c 	cmp	r1, ip
    8d2c:	2a00000f 	bcs	8d70 <_cstart+0xd4>
    8d30:	e2831008 	add	r1, r3, #8, 0
    8d34:	e151000c 	cmp	r1, ip
    8d38:	e5832004 	str	r2, [r3, #4]
    8d3c:	2a00000b 	bcs	8d70 <_cstart+0xd4>
    8d40:	e283100c 	add	r1, r3, #12, 0
    8d44:	e151000c 	cmp	r1, ip
    8d48:	e5832008 	str	r2, [r3, #8]
    8d4c:	2a000007 	bcs	8d70 <_cstart+0xd4>
    8d50:	e2831010 	add	r1, r3, #16, 0
    8d54:	e151000c 	cmp	r1, ip
    8d58:	e583200c 	str	r2, [r3, #12]
    8d5c:	2a000003 	bcs	8d70 <_cstart+0xd4>
    8d60:	e2831014 	add	r1, r3, #20, 0
    8d64:	e151000c 	cmp	r1, ip
    8d68:	e5832010 	str	r2, [r3, #16]
    8d6c:	35832014 	strcc	r2, [r3, #20]
    8d70:	eb000082 	bl	8f80 <uart_init>
    8d74:	e3a03001 	mov	r3, #1, 0
    8d78:	ee0f3f1c 	mcr	15, 0, r3, cr15, cr12, {0}
    8d7c:	ebfffcad 	bl	8038 <notmain>
    8d80:	ebffffba 	bl	8c70 <clean_reboot>
    8d84:	e1a03002 	mov	r3, r2
    8d88:	eaffffe3 	b	8d1c <_cstart+0x80>
    8d8c:	00009bc8 	andeq	r9, r0, r8, asr #23
    8d90:	00009fe0 	andeq	r9, r0, r0, ror #31

00008d94 <custom_loader>:
    8d94:	e12fff1e 	bx	lr

00008d98 <at_user_level>:
    8d98:	e10f0000 	mrs	r0, CPSR
    8d9c:	e200001f 	and	r0, r0, #31, 0
    8da0:	e2400010 	sub	r0, r0, #16, 0
    8da4:	e16f0f10 	clz	r0, r0
    8da8:	e1a002a0 	lsr	r0, r0, #5
    8dac:	e12fff1e 	bx	lr

00008db0 <set_user_level>:
    8db0:	e10f3000 	mrs	r3, CPSR
    8db4:	e3c3301f 	bic	r3, r3, #31, 0
    8db8:	e3833010 	orr	r3, r3, #16, 0
    8dbc:	e129f003 	msr	CPSR_fc, r3
    8dc0:	e12fff1e 	bx	lr

00008dc4 <rpi_reboot>:
    8dc4:	e92d4010 	push	{r4, lr}
    8dc8:	e10f3000 	mrs	r3, CPSR
    8dcc:	e203301f 	and	r3, r3, #31, 0
    8dd0:	e3530010 	cmp	r3, #16, 0
    8dd4:	1a000003 	bne	8de8 <rpi_reboot+0x24>
    8dd8:	e10f3000 	mrs	r3, CPSR
    8ddc:	e3c3301f 	bic	r3, r3, #31, 0
    8de0:	e3833010 	orr	r3, r3, #16, 0
    8de4:	e129f003 	msr	CPSR_fc, r3
    8de8:	eb00027d 	bl	97e4 <reboot_callout>
    8dec:	eb0000c1 	bl	90f8 <uart_flush_tx>
    8df0:	e3a0000a 	mov	r0, #10, 0
    8df4:	eb000028 	bl	8e9c <delay_ms>
    8df8:	e59f1014 	ldr	r1, [pc, #20]	; 8e14 <rpi_reboot+0x50>
    8dfc:	e59f0014 	ldr	r0, [pc, #20]	; 8e18 <rpi_reboot+0x54>
    8e00:	ebfffc87 	bl	8024 <PUT32>
    8e04:	e59f1010 	ldr	r1, [pc, #16]	; 8e1c <rpi_reboot+0x58>
    8e08:	e59f0010 	ldr	r0, [pc, #16]	; 8e20 <rpi_reboot+0x5c>
    8e0c:	ebfffc84 	bl	8024 <PUT32>
    8e10:	eafffffe 	b	8e10 <rpi_reboot+0x4c>
    8e14:	5a000001 	bpl	8e20 <rpi_reboot+0x5c>
    8e18:	20100024 	andscs	r0, r0, r4, lsr #32
    8e1c:	5a000020 	bpl	8ea4 <delay_ms+0x8>
    8e20:	2010001c 	andscs	r0, r0, ip, lsl r0

00008e24 <timer_get_usec_raw>:
    8e24:	e59f0000 	ldr	r0, [pc]	; 8e2c <timer_get_usec_raw+0x8>
    8e28:	eafffc7f 	b	802c <GET32>
    8e2c:	20003004 	andcs	r3, r0, r4

00008e30 <timer_get_usec>:
    8e30:	e92d4010 	push	{r4, lr}
    8e34:	eb00026b 	bl	97e8 <dev_barrier>
    8e38:	e59f0010 	ldr	r0, [pc, #16]	; 8e50 <timer_get_usec+0x20>
    8e3c:	ebfffc7a 	bl	802c <GET32>
    8e40:	e1a04000 	mov	r4, r0
    8e44:	eb000267 	bl	97e8 <dev_barrier>
    8e48:	e1a00004 	mov	r0, r4
    8e4c:	e8bd8010 	pop	{r4, pc}
    8e50:	20003004 	andcs	r3, r0, r4

00008e54 <delay_us>:
    8e54:	e92d41f0 	push	{r4, r5, r6, r7, r8, lr}
    8e58:	e1a06000 	mov	r6, r0
    8e5c:	eb000261 	bl	97e8 <dev_barrier>
    8e60:	e59f0030 	ldr	r0, [pc, #48]	; 8e98 <delay_us+0x44>
    8e64:	ebfffc70 	bl	802c <GET32>
    8e68:	e1a05000 	mov	r5, r0
    8e6c:	eb00025d 	bl	97e8 <dev_barrier>
    8e70:	e59f7020 	ldr	r7, [pc, #32]	; 8e98 <delay_us+0x44>
    8e74:	eb00025b 	bl	97e8 <dev_barrier>
    8e78:	e1a00007 	mov	r0, r7
    8e7c:	ebfffc6a 	bl	802c <GET32>
    8e80:	e1a04000 	mov	r4, r0
    8e84:	e0444005 	sub	r4, r4, r5
    8e88:	eb000256 	bl	97e8 <dev_barrier>
    8e8c:	e1540006 	cmp	r4, r6
    8e90:	3afffff7 	bcc	8e74 <delay_us+0x20>
    8e94:	e8bd81f0 	pop	{r4, r5, r6, r7, r8, pc}
    8e98:	20003004 	andcs	r3, r0, r4

00008e9c <delay_ms>:
    8e9c:	e92d41f0 	push	{r4, r5, r6, r7, r8, lr}
    8ea0:	e0604280 	rsb	r4, r0, r0, lsl #5
    8ea4:	e0800104 	add	r0, r0, r4, lsl #2
    8ea8:	e1a04180 	lsl	r4, r0, #3
    8eac:	eb00024d 	bl	97e8 <dev_barrier>
    8eb0:	e59f0030 	ldr	r0, [pc, #48]	; 8ee8 <delay_ms+0x4c>
    8eb4:	ebfffc5c 	bl	802c <GET32>
    8eb8:	e1a06000 	mov	r6, r0
    8ebc:	eb000249 	bl	97e8 <dev_barrier>
    8ec0:	e59f7020 	ldr	r7, [pc, #32]	; 8ee8 <delay_ms+0x4c>
    8ec4:	eb000247 	bl	97e8 <dev_barrier>
    8ec8:	e1a00007 	mov	r0, r7
    8ecc:	ebfffc56 	bl	802c <GET32>
    8ed0:	e1a05000 	mov	r5, r0
    8ed4:	e0455006 	sub	r5, r5, r6
    8ed8:	eb000242 	bl	97e8 <dev_barrier>
    8edc:	e1540005 	cmp	r4, r5
    8ee0:	8afffff7 	bhi	8ec4 <delay_ms+0x28>
    8ee4:	e8bd81f0 	pop	{r4, r5, r6, r7, r8, pc}
    8ee8:	20003004 	andcs	r3, r0, r4

00008eec <delay_sec>:
    8eec:	e92d41f0 	push	{r4, r5, r6, r7, r8, lr}
    8ef0:	e0604280 	rsb	r4, r0, r0, lsl #5
    8ef4:	e0644304 	rsb	r4, r4, r4, lsl #6
    8ef8:	e0800184 	add	r0, r0, r4, lsl #3
    8efc:	e1a04300 	lsl	r4, r0, #6
    8f00:	eb000238 	bl	97e8 <dev_barrier>
    8f04:	e59f0030 	ldr	r0, [pc, #48]	; 8f3c <delay_sec+0x50>
    8f08:	ebfffc47 	bl	802c <GET32>
    8f0c:	e1a06000 	mov	r6, r0
    8f10:	eb000234 	bl	97e8 <dev_barrier>
    8f14:	e59f7020 	ldr	r7, [pc, #32]	; 8f3c <delay_sec+0x50>
    8f18:	eb000232 	bl	97e8 <dev_barrier>
    8f1c:	e1a00007 	mov	r0, r7
    8f20:	ebfffc41 	bl	802c <GET32>
    8f24:	e1a05000 	mov	r5, r0
    8f28:	e0455006 	sub	r5, r5, r6
    8f2c:	eb00022d 	bl	97e8 <dev_barrier>
    8f30:	e1540005 	cmp	r4, r5
    8f34:	8afffff7 	bhi	8f18 <delay_sec+0x2c>
    8f38:	e8bd81f0 	pop	{r4, r5, r6, r7, r8, pc}
    8f3c:	20003004 	andcs	r3, r0, r4

00008f40 <and_in32>:
    8f40:	e92d4070 	push	{r4, r5, r6, lr}
    8f44:	e1a04000 	mov	r4, r0
    8f48:	e1a05001 	mov	r5, r1
    8f4c:	ebfffc36 	bl	802c <GET32>
    8f50:	e0001005 	and	r1, r0, r5
    8f54:	e1a00004 	mov	r0, r4
    8f58:	ebfffc31 	bl	8024 <PUT32>
    8f5c:	e8bd8070 	pop	{r4, r5, r6, pc}

00008f60 <or_in32>:
    8f60:	e92d4070 	push	{r4, r5, r6, lr}
    8f64:	e1a04000 	mov	r4, r0
    8f68:	e1a05001 	mov	r5, r1
    8f6c:	ebfffc2e 	bl	802c <GET32>
    8f70:	e1801005 	orr	r1, r0, r5
    8f74:	e1a00004 	mov	r0, r4
    8f78:	ebfffc29 	bl	8024 <PUT32>
    8f7c:	e8bd8070 	pop	{r4, r5, r6, pc}

00008f80 <uart_init>:
    8f80:	e92d4010 	push	{r4, lr}
    8f84:	e3a01002 	mov	r1, #2, 0
    8f88:	e3a0000e 	mov	r0, #14, 0
    8f8c:	eb000153 	bl	94e0 <gpio_set_function>
    8f90:	e3a01002 	mov	r1, #2, 0
    8f94:	e3a0000f 	mov	r0, #15, 0
    8f98:	eb000150 	bl	94e0 <gpio_set_function>
    8f9c:	eb000211 	bl	97e8 <dev_barrier>
    8fa0:	e3a01001 	mov	r1, #1, 0
    8fa4:	e59f0064 	ldr	r0, [pc, #100]	; 9010 <uart_init+0x90>
    8fa8:	ebffffec 	bl	8f60 <or_in32>
    8fac:	eb00020d 	bl	97e8 <dev_barrier>
    8fb0:	e59f405c 	ldr	r4, [pc, #92]	; 9014 <uart_init+0x94>
    8fb4:	e3a01000 	mov	r1, #0, 0
    8fb8:	e1a00004 	mov	r0, r4
    8fbc:	ebfffc18 	bl	8024 <PUT32>
    8fc0:	e3a01000 	mov	r1, #0, 0
    8fc4:	e59f004c 	ldr	r0, [pc, #76]	; 9018 <uart_init+0x98>
    8fc8:	ebfffc15 	bl	8024 <PUT32>
    8fcc:	e3a01003 	mov	r1, #3, 0
    8fd0:	e59f0044 	ldr	r0, [pc, #68]	; 901c <uart_init+0x9c>
    8fd4:	ebfffc12 	bl	8024 <PUT32>
    8fd8:	e3a01000 	mov	r1, #0, 0
    8fdc:	e59f003c 	ldr	r0, [pc, #60]	; 9020 <uart_init+0xa0>
    8fe0:	ebfffc0f 	bl	8024 <PUT32>
    8fe4:	e3a010c7 	mov	r1, #199, 0	; 0xc7
    8fe8:	e59f0034 	ldr	r0, [pc, #52]	; 9024 <uart_init+0xa4>
    8fec:	ebfffc0c 	bl	8024 <PUT32>
    8ff0:	e59f1030 	ldr	r1, [pc, #48]	; 9028 <uart_init+0xa8>
    8ff4:	e59f0030 	ldr	r0, [pc, #48]	; 902c <uart_init+0xac>
    8ff8:	ebfffc09 	bl	8024 <PUT32>
    8ffc:	e3a01003 	mov	r1, #3, 0
    9000:	e1a00004 	mov	r0, r4
    9004:	ebfffc06 	bl	8024 <PUT32>
    9008:	eb0001f6 	bl	97e8 <dev_barrier>
    900c:	e8bd8010 	pop	{r4, pc}
    9010:	20215004 	eorcs	r5, r1, r4
    9014:	20215060 	eorcs	r5, r1, r0, rrx
    9018:	20215044 	eorcs	r5, r1, r4, asr #32
    901c:	2021504c 	eorcs	r5, r1, ip, asr #32
    9020:	20215050 	eorcs	r5, r1, r0, asr r0
    9024:	20215048 	eorcs	r5, r1, r8, asr #32
    9028:	0000010e 	andeq	r0, r0, lr, lsl #2
    902c:	20215068 	eorcs	r5, r1, r8, rrx

00009030 <uart_can_getc>:
    9030:	e92d4010 	push	{r4, lr}
    9034:	e59f0008 	ldr	r0, [pc, #8]	; 9044 <uart_can_getc+0x14>
    9038:	ebfffbfb 	bl	802c <GET32>
    903c:	e2000001 	and	r0, r0, #1, 0
    9040:	e8bd8010 	pop	{r4, pc}
    9044:	20215064 	eorcs	r5, r1, r4, rrx

00009048 <uart_can_putc>:
    9048:	e92d4010 	push	{r4, lr}
    904c:	e59f0010 	ldr	r0, [pc, #16]	; 9064 <uart_can_putc+0x1c>
    9050:	ebfffbf5 	bl	802c <GET32>
    9054:	e3100002 	tst	r0, #2, 0
    9058:	13a00001 	movne	r0, #1, 0
    905c:	03a00000 	moveq	r0, #0, 0
    9060:	e8bd8010 	pop	{r4, pc}
    9064:	20215064 	eorcs	r5, r1, r4, rrx

00009068 <uart_getc>:
    9068:	e92d4010 	push	{r4, lr}
    906c:	eb0001dd 	bl	97e8 <dev_barrier>
    9070:	ebffffee 	bl	9030 <uart_can_getc>
    9074:	e3500000 	cmp	r0, #0, 0
    9078:	0afffffc 	beq	9070 <uart_getc+0x8>
    907c:	e59f0010 	ldr	r0, [pc, #16]	; 9094 <uart_getc+0x2c>
    9080:	ebfffbe9 	bl	802c <GET32>
    9084:	e6ef4070 	uxtb	r4, r0
    9088:	eb0001d6 	bl	97e8 <dev_barrier>
    908c:	e1a00004 	mov	r0, r4
    9090:	e8bd8010 	pop	{r4, pc}
    9094:	20215040 	eorcs	r5, r1, r0, asr #32

00009098 <uart_putc>:
    9098:	e92d4010 	push	{r4, lr}
    909c:	e1a04000 	mov	r4, r0
    90a0:	eb0001d0 	bl	97e8 <dev_barrier>
    90a4:	ebffffe7 	bl	9048 <uart_can_putc>
    90a8:	e3500000 	cmp	r0, #0, 0
    90ac:	0afffffc 	beq	90a4 <uart_putc+0xc>
    90b0:	e6ef1074 	uxtb	r1, r4
    90b4:	e59f0008 	ldr	r0, [pc, #8]	; 90c4 <uart_putc+0x2c>
    90b8:	ebfffbd9 	bl	8024 <PUT32>
    90bc:	eb0001c9 	bl	97e8 <dev_barrier>
    90c0:	e8bd8010 	pop	{r4, pc}
    90c4:	20215040 	eorcs	r5, r1, r0, asr #32

000090c8 <uart_has_data>:
    90c8:	e92d4010 	push	{r4, lr}
    90cc:	eb0001c5 	bl	97e8 <dev_barrier>
    90d0:	ebffffd6 	bl	9030 <uart_can_getc>
    90d4:	e8bd8010 	pop	{r4, pc}

000090d8 <uart_tx_is_empty>:
    90d8:	e92d4010 	push	{r4, lr}
    90dc:	eb0001c1 	bl	97e8 <dev_barrier>
    90e0:	e59f000c 	ldr	r0, [pc, #12]	; 90f4 <uart_tx_is_empty+0x1c>
    90e4:	ebfffbd0 	bl	802c <GET32>
    90e8:	e1a004a0 	lsr	r0, r0, #9
    90ec:	e2000001 	and	r0, r0, #1, 0
    90f0:	e8bd8010 	pop	{r4, pc}
    90f4:	20215064 	eorcs	r5, r1, r4, rrx

000090f8 <uart_flush_tx>:
    90f8:	e92d4010 	push	{r4, lr}
    90fc:	ebfffff5 	bl	90d8 <uart_tx_is_empty>
    9100:	e3500000 	cmp	r0, #0, 0
    9104:	0afffffc 	beq	90fc <uart_flush_tx+0x4>
    9108:	e8bd8010 	pop	{r4, pc}

0000910c <uart_disable>:
    910c:	e92d4010 	push	{r4, lr}
    9110:	ebfffff8 	bl	90f8 <uart_flush_tx>
    9114:	eb0001b3 	bl	97e8 <dev_barrier>
    9118:	e3e01001 	mvn	r1, #1, 0
    911c:	e59f0008 	ldr	r0, [pc, #8]	; 912c <uart_disable+0x20>
    9120:	ebffff86 	bl	8f40 <and_in32>
    9124:	eb0001af 	bl	97e8 <dev_barrier>
    9128:	e8bd8010 	pop	{r4, pc}
    912c:	20215004 	eorcs	r5, r1, r4

00009130 <kmalloc_heap_end>:
    9130:	e59f3004 	ldr	r3, [pc, #4]	; 913c <kmalloc_heap_end+0xc>
    9134:	e5930000 	ldr	r0, [r3]
    9138:	e12fff1e 	bx	lr
    913c:	00009bb8 			; <UNDEFINED> instruction: 0x00009bb8

00009140 <kmalloc_heap_start>:
    9140:	e59f3004 	ldr	r3, [pc, #4]	; 914c <kmalloc_heap_start+0xc>
    9144:	e5930004 	ldr	r0, [r3, #4]
    9148:	e12fff1e 	bx	lr
    914c:	00009bb8 			; <UNDEFINED> instruction: 0x00009bb8

00009150 <kmalloc_heap_ptr>:
    9150:	e59f3004 	ldr	r3, [pc, #4]	; 915c <kmalloc_heap_ptr+0xc>
    9154:	e5930000 	ldr	r0, [r3]
    9158:	e12fff1e 	bx	lr
    915c:	00009bb8 			; <UNDEFINED> instruction: 0x00009bb8

00009160 <kmalloc_init_set_start>:
    9160:	e52de004 	push	{lr}		; (str lr, [sp, #-4]!)
    9164:	e24dd00c 	sub	sp, sp, #12, 0
    9168:	e3510000 	cmp	r1, #0, 0
    916c:	0a00000a 	beq	919c <kmalloc_init_set_start+0x3c>
    9170:	e59f306c 	ldr	r3, [pc, #108]	; 91e4 <kmalloc_init_set_start+0x84>
    9174:	e5933000 	ldr	r3, [r3]
    9178:	e1530000 	cmp	r3, r0
    917c:	8a00000e 	bhi	91bc <kmalloc_init_set_start+0x5c>
    9180:	e59f305c 	ldr	r3, [pc, #92]	; 91e4 <kmalloc_init_set_start+0x84>
    9184:	e5830000 	str	r0, [r3]
    9188:	e5830004 	str	r0, [r3, #4]
    918c:	e0800001 	add	r0, r0, r1
    9190:	e5830008 	str	r0, [r3, #8]
    9194:	e28dd00c 	add	sp, sp, #12, 0
    9198:	e49df004 	pop	{pc}		; (ldr pc, [sp], #4)
    919c:	e59f3044 	ldr	r3, [pc, #68]	; 91e8 <kmalloc_init_set_start+0x88>
    91a0:	e58d3000 	str	r3, [sp]
    91a4:	e3a03030 	mov	r3, #48, 0	; 0x30
    91a8:	e59f203c 	ldr	r2, [pc, #60]	; 91ec <kmalloc_init_set_start+0x8c>
    91ac:	e59f103c 	ldr	r1, [pc, #60]	; 91f0 <kmalloc_init_set_start+0x90>
    91b0:	e59f003c 	ldr	r0, [pc, #60]	; 91f4 <kmalloc_init_set_start+0x94>
    91b4:	ebfffc1c 	bl	822c <printk>
    91b8:	ebfffeac 	bl	8c70 <clean_reboot>
    91bc:	e59f3020 	ldr	r3, [pc, #32]	; 91e4 <kmalloc_init_set_start+0x84>
    91c0:	e5933008 	ldr	r3, [r3, #8]
    91c4:	e58d3004 	str	r3, [sp, #4]
    91c8:	e58d0000 	str	r0, [sp]
    91cc:	e3a03034 	mov	r3, #52, 0	; 0x34
    91d0:	e59f2014 	ldr	r2, [pc, #20]	; 91ec <kmalloc_init_set_start+0x8c>
    91d4:	e59f1014 	ldr	r1, [pc, #20]	; 91f0 <kmalloc_init_set_start+0x90>
    91d8:	e59f0018 	ldr	r0, [pc, #24]	; 91f8 <kmalloc_init_set_start+0x98>
    91dc:	ebfffc12 	bl	822c <printk>
    91e0:	ebfffea2 	bl	8c70 <clean_reboot>
    91e4:	00009bb8 			; <UNDEFINED> instruction: 0x00009bb8
    91e8:	000099c4 	andeq	r9, r0, r4, asr #19
    91ec:	00009b50 	andeq	r9, r0, r0, asr fp
    91f0:	000099b8 			; <UNDEFINED> instruction: 0x000099b8
    91f4:	00009844 	andeq	r9, r0, r4, asr #16
    91f8:	000099d0 	ldrdeq	r9, [r0], -r0

000091fc <kmalloc_init>:
    91fc:	e92d4010 	push	{r4, lr}
    9200:	e59f303c 	ldr	r3, [pc, #60]	; 9244 <kmalloc_init+0x48>
    9204:	e5933000 	ldr	r3, [r3]
    9208:	e3530000 	cmp	r3, #0, 0
    920c:	1a000006 	bne	922c <kmalloc_init+0x30>
    9210:	e59f302c 	ldr	r3, [pc, #44]	; 9244 <kmalloc_init+0x48>
    9214:	e3a02001 	mov	r2, #1, 0
    9218:	e5832000 	str	r2, [r3]
    921c:	e3a01201 	mov	r1, #268435456	; 0x10000000
    9220:	e3a00601 	mov	r0, #1048576	; 0x100000
    9224:	ebffffcd 	bl	9160 <kmalloc_init_set_start>
    9228:	e8bd8010 	pop	{r4, pc}
    922c:	e3a03040 	mov	r3, #64, 0	; 0x40
    9230:	e59f2010 	ldr	r2, [pc, #16]	; 9248 <kmalloc_init+0x4c>
    9234:	e59f1010 	ldr	r1, [pc, #16]	; 924c <kmalloc_init+0x50>
    9238:	e59f0010 	ldr	r0, [pc, #16]	; 9250 <kmalloc_init+0x54>
    923c:	ebfffbfa 	bl	822c <printk>
    9240:	ebfffe8a 	bl	8c70 <clean_reboot>
    9244:	00009fd8 	ldrdeq	r9, [r0], -r8
    9248:	00009b68 	andeq	r9, r0, r8, ror #22
    924c:	000099b8 			; <UNDEFINED> instruction: 0x000099b8
    9250:	00009a14 	andeq	r9, r0, r4, lsl sl

00009254 <kmalloc_notzero>:
    9254:	e52de004 	push	{lr}		; (str lr, [sp, #-4]!)
    9258:	e24dd00c 	sub	sp, sp, #12, 0
    925c:	e3500000 	cmp	r0, #0, 0
    9260:	0a00000a 	beq	9290 <kmalloc_notzero+0x3c>
    9264:	e2800007 	add	r0, r0, #7, 0
    9268:	e3c03007 	bic	r3, r0, #7, 0
    926c:	e59f2060 	ldr	r2, [pc, #96]	; 92d4 <kmalloc_notzero+0x80>
    9270:	e5920000 	ldr	r0, [r2]
    9274:	e0801003 	add	r1, r0, r3
    9278:	e5821000 	str	r1, [r2]
    927c:	e5922008 	ldr	r2, [r2, #8]
    9280:	e1510002 	cmp	r1, r2
    9284:	8a000009 	bhi	92b0 <kmalloc_notzero+0x5c>
    9288:	e28dd00c 	add	sp, sp, #12, 0
    928c:	e49df004 	pop	{pc}		; (ldr pc, [sp], #4)
    9290:	e59f3040 	ldr	r3, [pc, #64]	; 92d8 <kmalloc_notzero+0x84>
    9294:	e58d3000 	str	r3, [sp]
    9298:	e3a03048 	mov	r3, #72, 0	; 0x48
    929c:	e59f2038 	ldr	r2, [pc, #56]	; 92dc <kmalloc_notzero+0x88>
    92a0:	e59f1038 	ldr	r1, [pc, #56]	; 92e0 <kmalloc_notzero+0x8c>
    92a4:	e59f0038 	ldr	r0, [pc, #56]	; 92e4 <kmalloc_notzero+0x90>
    92a8:	ebfffbdf 	bl	822c <printk>
    92ac:	ebfffe6f 	bl	8c70 <clean_reboot>
    92b0:	e0422000 	sub	r2, r2, r0
    92b4:	e58d2004 	str	r2, [sp, #4]
    92b8:	e58d3000 	str	r3, [sp]
    92bc:	e3a0304e 	mov	r3, #78, 0	; 0x4e
    92c0:	e59f2014 	ldr	r2, [pc, #20]	; 92dc <kmalloc_notzero+0x88>
    92c4:	e59f1014 	ldr	r1, [pc, #20]	; 92e0 <kmalloc_notzero+0x8c>
    92c8:	e59f0018 	ldr	r0, [pc, #24]	; 92e8 <kmalloc_notzero+0x94>
    92cc:	ebfffbd6 	bl	822c <printk>
    92d0:	ebfffe66 	bl	8c70 <clean_reboot>
    92d4:	00009bb8 			; <UNDEFINED> instruction: 0x00009bb8
    92d8:	000099c8 	andeq	r9, r0, r8, asr #19
    92dc:	00009b78 	andeq	r9, r0, r8, ror fp
    92e0:	000099b8 			; <UNDEFINED> instruction: 0x000099b8
    92e4:	00009844 	andeq	r9, r0, r4, asr #16
    92e8:	00009a44 	andeq	r9, r0, r4, asr #20

000092ec <kmalloc>:
    92ec:	e92d4030 	push	{r4, r5, lr}
    92f0:	e24dd00c 	sub	sp, sp, #12, 0
    92f4:	e2504000 	subs	r4, r0, #0, 0
    92f8:	0a000008 	beq	9320 <kmalloc+0x34>
    92fc:	e1a00004 	mov	r0, r4
    9300:	ebffffd3 	bl	9254 <kmalloc_notzero>
    9304:	e1a05000 	mov	r5, r0
    9308:	e1a02004 	mov	r2, r4
    930c:	e3a01000 	mov	r1, #0, 0
    9310:	eb0000d8 	bl	9678 <memset>
    9314:	e1a00005 	mov	r0, r5
    9318:	e28dd00c 	add	sp, sp, #12, 0
    931c:	e8bd8030 	pop	{r4, r5, pc}
    9320:	e59f3018 	ldr	r3, [pc, #24]	; 9340 <kmalloc+0x54>
    9324:	e58d3000 	str	r3, [sp]
    9328:	e3a03054 	mov	r3, #84, 0	; 0x54
    932c:	e59f2010 	ldr	r2, [pc, #16]	; 9344 <kmalloc+0x58>
    9330:	e59f1010 	ldr	r1, [pc, #16]	; 9348 <kmalloc+0x5c>
    9334:	e59f0010 	ldr	r0, [pc, #16]	; 934c <kmalloc+0x60>
    9338:	ebfffbbb 	bl	822c <printk>
    933c:	ebfffe4b 	bl	8c70 <clean_reboot>
    9340:	000099c8 	andeq	r9, r0, r8, asr #19
    9344:	00009b88 	andeq	r9, r0, r8, lsl #23
    9348:	000099b8 			; <UNDEFINED> instruction: 0x000099b8
    934c:	00009844 	andeq	r9, r0, r4, asr #16

00009350 <kmalloc_aligned>:
    9350:	e52de004 	push	{lr}		; (str lr, [sp, #-4]!)
    9354:	e24dd00c 	sub	sp, sp, #12, 0
    9358:	e3500000 	cmp	r0, #0, 0
    935c:	0a000014 	beq	93b4 <kmalloc_aligned+0x64>
    9360:	e2613000 	rsb	r3, r1, #0, 0
    9364:	e1d13003 	bics	r3, r1, r3
    9368:	1a000019 	bne	93d4 <kmalloc_aligned+0x84>
    936c:	e3510008 	cmp	r1, #8, 0
    9370:	33a01008 	movcc	r1, #8, 0
    9374:	e59f30c0 	ldr	r3, [pc, #192]	; 943c <kmalloc_aligned+0xec>
    9378:	e5932000 	ldr	r2, [r3]
    937c:	e2613000 	rsb	r3, r1, #0, 0
    9380:	e1d1c003 	bics	ip, r1, r3
    9384:	1a00001b 	bne	93f8 <kmalloc_aligned+0xa8>
    9388:	e0822001 	add	r2, r2, r1
    938c:	e2422001 	sub	r2, r2, #1, 0
    9390:	e0033002 	and	r3, r3, r2
    9394:	e2411001 	sub	r1, r1, #1, 0
    9398:	e1110003 	tst	r1, r3
    939c:	1a00001d 	bne	9418 <kmalloc_aligned+0xc8>
    93a0:	e59f2094 	ldr	r2, [pc, #148]	; 943c <kmalloc_aligned+0xec>
    93a4:	e5823000 	str	r3, [r2]
    93a8:	ebffffcf 	bl	92ec <kmalloc>
    93ac:	e28dd00c 	add	sp, sp, #12, 0
    93b0:	e49df004 	pop	{pc}		; (ldr pc, [sp], #4)
    93b4:	e59f3084 	ldr	r3, [pc, #132]	; 9440 <kmalloc_aligned+0xf0>
    93b8:	e58d3000 	str	r3, [sp]
    93bc:	e3a0305f 	mov	r3, #95, 0	; 0x5f
    93c0:	e59f207c 	ldr	r2, [pc, #124]	; 9444 <kmalloc_aligned+0xf4>
    93c4:	e59f107c 	ldr	r1, [pc, #124]	; 9448 <kmalloc_aligned+0xf8>
    93c8:	e59f007c 	ldr	r0, [pc, #124]	; 944c <kmalloc_aligned+0xfc>
    93cc:	ebfffb96 	bl	822c <printk>
    93d0:	ebfffe26 	bl	8c70 <clean_reboot>
    93d4:	eb0000ca 	bl	9704 <rpi_reset_putc>
    93d8:	e59f3070 	ldr	r3, [pc, #112]	; 9450 <kmalloc_aligned+0x100>
    93dc:	e58d3000 	str	r3, [sp]
    93e0:	e3a03060 	mov	r3, #96, 0	; 0x60
    93e4:	e59f2058 	ldr	r2, [pc, #88]	; 9444 <kmalloc_aligned+0xf4>
    93e8:	e59f1058 	ldr	r1, [pc, #88]	; 9448 <kmalloc_aligned+0xf8>
    93ec:	e59f0060 	ldr	r0, [pc, #96]	; 9454 <kmalloc_aligned+0x104>
    93f0:	ebfffb8d 	bl	822c <printk>
    93f4:	ebfffe1d 	bl	8c70 <clean_reboot>
    93f8:	e59f3058 	ldr	r3, [pc, #88]	; 9458 <kmalloc_aligned+0x108>
    93fc:	e58d3000 	str	r3, [sp]
    9400:	e3a03011 	mov	r3, #17, 0
    9404:	e59f2050 	ldr	r2, [pc, #80]	; 945c <kmalloc_aligned+0x10c>
    9408:	e59f1038 	ldr	r1, [pc, #56]	; 9448 <kmalloc_aligned+0xf8>
    940c:	e59f0038 	ldr	r0, [pc, #56]	; 944c <kmalloc_aligned+0xfc>
    9410:	ebfffb85 	bl	822c <printk>
    9414:	ebfffe15 	bl	8c70 <clean_reboot>
    9418:	eb0000b9 	bl	9704 <rpi_reset_putc>
    941c:	e59f303c 	ldr	r3, [pc, #60]	; 9460 <kmalloc_aligned+0x110>
    9420:	e58d3000 	str	r3, [sp]
    9424:	e3a03068 	mov	r3, #104, 0	; 0x68
    9428:	e59f2014 	ldr	r2, [pc, #20]	; 9444 <kmalloc_aligned+0xf4>
    942c:	e59f1014 	ldr	r1, [pc, #20]	; 9448 <kmalloc_aligned+0xf8>
    9430:	e59f002c 	ldr	r0, [pc, #44]	; 9464 <kmalloc_aligned+0x114>
    9434:	ebfffb7c 	bl	822c <printk>
    9438:	ebfffe0c 	bl	8c70 <clean_reboot>
    943c:	00009bb8 			; <UNDEFINED> instruction: 0x00009bb8
    9440:	000099c8 	andeq	r9, r0, r8, asr #19
    9444:	00009b90 	muleq	r0, r0, fp
    9448:	000099b8 			; <UNDEFINED> instruction: 0x000099b8
    944c:	00009844 	andeq	r9, r0, r4, asr #16
    9450:	00009ab8 			; <UNDEFINED> instruction: 0x00009ab8
    9454:	00009a84 	andeq	r9, r0, r4, lsl #21
    9458:	00009acc 	andeq	r9, r0, ip, asr #21
    945c:	00009ba0 	andeq	r9, r0, r0, lsr #23
    9460:	00009b04 	andeq	r9, r0, r4, lsl #22
    9464:	00009ad8 	ldrdeq	r9, [r0], -r8

00009468 <kfree>:
    9468:	e12fff1e 	bx	lr

0000946c <kfree_all>:
    946c:	e59f3008 	ldr	r3, [pc, #8]	; 947c <kfree_all+0x10>
    9470:	e5932004 	ldr	r2, [r3, #4]
    9474:	e5832000 	str	r2, [r3]
    9478:	e12fff1e 	bx	lr
    947c:	00009bb8 			; <UNDEFINED> instruction: 0x00009bb8

00009480 <kfree_pop>:
    9480:	e59f3048 	ldr	r3, [pc, #72]	; 94d0 <kfree_pop+0x50>
    9484:	e5933004 	ldr	r3, [r3, #4]
    9488:	e1530000 	cmp	r3, r0
    948c:	8a000006 	bhi	94ac <kfree_pop+0x2c>
    9490:	e59f3038 	ldr	r3, [pc, #56]	; 94d0 <kfree_pop+0x50>
    9494:	e5933008 	ldr	r3, [r3, #8]
    9498:	e1530000 	cmp	r3, r0
    949c:	3a000002 	bcc	94ac <kfree_pop+0x2c>
    94a0:	e59f3028 	ldr	r3, [pc, #40]	; 94d0 <kfree_pop+0x50>
    94a4:	e5830000 	str	r0, [r3]
    94a8:	e12fff1e 	bx	lr
    94ac:	e52de004 	push	{lr}		; (str lr, [sp, #-4]!)
    94b0:	e24dd00c 	sub	sp, sp, #12, 0
    94b4:	e58d0000 	str	r0, [sp]
    94b8:	e3a03077 	mov	r3, #119, 0	; 0x77
    94bc:	e59f2010 	ldr	r2, [pc, #16]	; 94d4 <kfree_pop+0x54>
    94c0:	e59f1010 	ldr	r1, [pc, #16]	; 94d8 <kfree_pop+0x58>
    94c4:	e59f0010 	ldr	r0, [pc, #16]	; 94dc <kfree_pop+0x5c>
    94c8:	ebfffb57 	bl	822c <printk>
    94cc:	ebfffde7 	bl	8c70 <clean_reboot>
    94d0:	00009bb8 			; <UNDEFINED> instruction: 0x00009bb8
    94d4:	00009ba8 	andeq	r9, r0, r8, lsr #23
    94d8:	000099b8 			; <UNDEFINED> instruction: 0x000099b8
    94dc:	00009b20 	andeq	r9, r0, r0, lsr #22

000094e0 <gpio_set_function>:
    94e0:	e350001f 	cmp	r0, #31, 0
    94e4:	812fff1e 	bxhi	lr
    94e8:	e3d13007 	bics	r3, r1, #7, 0
    94ec:	e92d4070 	push	{r4, r5, r6, lr}
    94f0:	e1a05001 	mov	r5, r1
    94f4:	18bd8070 	popne	{r4, r5, r6, pc}
    94f8:	e59f403c 	ldr	r4, [pc, #60]	; 953c <gpio_set_function+0x5c>
    94fc:	e0843094 	umull	r3, r4, r4, r0
    9500:	e1a041a4 	lsr	r4, r4, #3
    9504:	e2843302 	add	r3, r4, #134217728	; 0x8000000
    9508:	e2833702 	add	r3, r3, #524288	; 0x80000
    950c:	e1a06103 	lsl	r6, r3, #2
    9510:	e0844104 	add	r4, r4, r4, lsl #2
    9514:	e0404084 	sub	r4, r0, r4, lsl #1
    9518:	e1a00006 	mov	r0, r6
    951c:	ebfffac2 	bl	802c <GET32>
    9520:	e3a01007 	mov	r1, #7, 0
    9524:	e0844084 	add	r4, r4, r4, lsl #1
    9528:	e1c01411 	bic	r1, r0, r1, lsl r4
    952c:	e1811415 	orr	r1, r1, r5, lsl r4
    9530:	e1a00006 	mov	r0, r6
    9534:	e8bd4070 	pop	{r4, r5, r6, lr}
    9538:	eafffab9 	b	8024 <PUT32>
    953c:	cccccccd 	stclgt	12, cr12, [ip], {205}	; 0xcd

00009540 <gpio_set_output>:
    9540:	e350001f 	cmp	r0, #31, 0
    9544:	812fff1e 	bxhi	lr
    9548:	e92d4070 	push	{r4, r5, r6, lr}
    954c:	e59f4040 	ldr	r4, [pc, #64]	; 9594 <gpio_set_output+0x54>
    9550:	e0843094 	umull	r3, r4, r4, r0
    9554:	e1a041a4 	lsr	r4, r4, #3
    9558:	e2843302 	add	r3, r4, #134217728	; 0x8000000
    955c:	e2833702 	add	r3, r3, #524288	; 0x80000
    9560:	e1a05103 	lsl	r5, r3, #2
    9564:	e0844104 	add	r4, r4, r4, lsl #2
    9568:	e0404084 	sub	r4, r0, r4, lsl #1
    956c:	e1a00005 	mov	r0, r5
    9570:	ebfffaad 	bl	802c <GET32>
    9574:	e3a03007 	mov	r3, #7, 0
    9578:	e3a01001 	mov	r1, #1, 0
    957c:	e0844084 	add	r4, r4, r4, lsl #1
    9580:	e1c03413 	bic	r3, r0, r3, lsl r4
    9584:	e1831411 	orr	r1, r3, r1, lsl r4
    9588:	e1a00005 	mov	r0, r5
    958c:	e8bd4070 	pop	{r4, r5, r6, lr}
    9590:	eafffaa3 	b	8024 <PUT32>
    9594:	cccccccd 	stclgt	12, cr12, [ip], {205}	; 0xcd

00009598 <gpio_set_on>:
    9598:	e1a03000 	mov	r3, r0
    959c:	e3a01001 	mov	r1, #1, 0
    95a0:	e59f0004 	ldr	r0, [pc, #4]	; 95ac <gpio_set_on+0x14>
    95a4:	e1a01311 	lsl	r1, r1, r3
    95a8:	eafffa9d 	b	8024 <PUT32>
    95ac:	2020001c 	eorcs	r0, r0, ip, lsl r0

000095b0 <gpio_set_off>:
    95b0:	e1a03000 	mov	r3, r0
    95b4:	e3a01001 	mov	r1, #1, 0
    95b8:	e59f0004 	ldr	r0, [pc, #4]	; 95c4 <gpio_set_off+0x14>
    95bc:	e1a01311 	lsl	r1, r1, r3
    95c0:	eafffa97 	b	8024 <PUT32>
    95c4:	20200028 	eorcs	r0, r0, r8, lsr #32

000095c8 <gpio_set_input>:
    95c8:	e350001f 	cmp	r0, #31, 0
    95cc:	812fff1e 	bxhi	lr
    95d0:	e92d4070 	push	{r4, r5, r6, lr}
    95d4:	e59f5040 	ldr	r5, [pc, #64]	; 961c <gpio_set_input+0x54>
    95d8:	e1a04000 	mov	r4, r0
    95dc:	e0853095 	umull	r3, r5, r5, r0
    95e0:	e1a051a5 	lsr	r5, r5, #3
    95e4:	e2850302 	add	r0, r5, #134217728	; 0x8000000
    95e8:	e2800702 	add	r0, r0, #524288	; 0x80000
    95ec:	e1a06100 	lsl	r6, r0, #2
    95f0:	e1a00006 	mov	r0, r6
    95f4:	ebfffa8c 	bl	802c <GET32>
    95f8:	e3a01007 	mov	r1, #7, 0
    95fc:	e1a03000 	mov	r3, r0
    9600:	e0855105 	add	r5, r5, r5, lsl #2
    9604:	e0444085 	sub	r4, r4, r5, lsl #1
    9608:	e0844084 	add	r4, r4, r4, lsl #1
    960c:	e1a00006 	mov	r0, r6
    9610:	e1c31411 	bic	r1, r3, r1, lsl r4
    9614:	e8bd4070 	pop	{r4, r5, r6, lr}
    9618:	eafffa81 	b	8024 <PUT32>
    961c:	cccccccd 	stclgt	12, cr12, [ip], {205}	; 0xcd

00009620 <gpio_write>:
    9620:	e3510000 	cmp	r1, #0, 0
    9624:	e3a03001 	mov	r3, #1, 0
    9628:	e1a01000 	mov	r1, r0
    962c:	0a000002 	beq	963c <gpio_write+0x1c>
    9630:	e59f0010 	ldr	r0, [pc, #16]	; 9648 <gpio_write+0x28>
    9634:	e1a01113 	lsl	r1, r3, r1
    9638:	eafffa79 	b	8024 <PUT32>
    963c:	e59f0008 	ldr	r0, [pc, #8]	; 964c <gpio_write+0x2c>
    9640:	e1a01113 	lsl	r1, r3, r1
    9644:	eafffa76 	b	8024 <PUT32>
    9648:	2020001c 	eorcs	r0, r0, ip, lsl r0
    964c:	20200028 	eorcs	r0, r0, r8, lsr #32

00009650 <gpio_read>:
    9650:	e92d4010 	push	{r4, lr}
    9654:	e1a04000 	mov	r4, r0
    9658:	e59f0014 	ldr	r0, [pc, #20]	; 9674 <gpio_read+0x24>
    965c:	e08002a4 	add	r0, r0, r4, lsr #5
    9660:	ebfffa71 	bl	802c <GET32>
    9664:	e204401f 	and	r4, r4, #31, 0
    9668:	e1a00430 	lsr	r0, r0, r4
    966c:	e2000001 	and	r0, r0, #1, 0
    9670:	e8bd8010 	pop	{r4, pc}
    9674:	20200034 	eorcs	r0, r0, r4, lsr r0

00009678 <memset>:
    9678:	e92d4010 	push	{r4, lr}
    967c:	e0804002 	add	r4, r0, r2
    9680:	e1500004 	cmp	r0, r4
    9684:	28bd8010 	popcs	{r4, pc}
    9688:	e2423001 	sub	r3, r2, #1, 0
    968c:	e3530002 	cmp	r3, #2, 0
    9690:	e6ef1071 	uxtb	r1, r1
    9694:	e1a03000 	mov	r3, r0
    9698:	9a00000b 	bls	96cc <memset+0x54>
    969c:	e181e401 	orr	lr, r1, r1, lsl #8
    96a0:	e18ee801 	orr	lr, lr, r1, lsl #16
    96a4:	e3c2c003 	bic	ip, r2, #3, 0
    96a8:	e18eec01 	orr	lr, lr, r1, lsl #24
    96ac:	e08cc000 	add	ip, ip, r0
    96b0:	e483e004 	str	lr, [r3], #4
    96b4:	e153000c 	cmp	r3, ip
    96b8:	1afffffc 	bne	96b0 <memset+0x38>
    96bc:	e3c23003 	bic	r3, r2, #3, 0
    96c0:	e1520003 	cmp	r2, r3
    96c4:	e0803003 	add	r3, r0, r3
    96c8:	08bd8010 	popeq	{r4, pc}
    96cc:	e1a02003 	mov	r2, r3
    96d0:	e4c21001 	strb	r1, [r2], #1
    96d4:	e1540002 	cmp	r4, r2
    96d8:	98bd8010 	popls	{r4, pc}
    96dc:	e2832002 	add	r2, r3, #2, 0
    96e0:	e1540002 	cmp	r4, r2
    96e4:	e5c31001 	strb	r1, [r3, #1]
    96e8:	85c31002 	strbhi	r1, [r3, #2]
    96ec:	e8bd8010 	pop	{r4, pc}

000096f0 <internal_putchar>:
    96f0:	e92d4010 	push	{r4, lr}
    96f4:	e1a04000 	mov	r4, r0
    96f8:	ebfffe66 	bl	9098 <uart_putc>
    96fc:	e1a00004 	mov	r0, r4
    9700:	e8bd8010 	pop	{r4, pc}

00009704 <rpi_reset_putc>:
    9704:	e59f3008 	ldr	r3, [pc, #8]	; 9714 <rpi_reset_putc+0x10>
    9708:	e59f2008 	ldr	r2, [pc, #8]	; 9718 <rpi_reset_putc+0x14>
    970c:	e5832000 	str	r2, [r3]
    9710:	e12fff1e 	bx	lr
    9714:	00009bc4 	andeq	r9, r0, r4, asr #23
    9718:	000096f0 	strdeq	r9, [r0], -r0

0000971c <rpi_set_putc>:
    971c:	e59f3004 	ldr	r3, [pc, #4]	; 9728 <rpi_set_putc+0xc>
    9720:	e5830000 	str	r0, [r3]
    9724:	e12fff1e 	bx	lr
    9728:	00009bc4 	andeq	r9, r0, r4, asr #23

0000972c <strcat>:
    972c:	e1a02000 	mov	r2, r0
    9730:	e1a03002 	mov	r3, r2
    9734:	e4d2c001 	ldrb	ip, [r2], #1
    9738:	e35c0000 	cmp	ip, #0, 0
    973c:	1afffffb 	bne	9730 <strcat+0x4>
    9740:	e2433001 	sub	r3, r3, #1, 0
    9744:	e4d12001 	ldrb	r2, [r1], #1
    9748:	e3520000 	cmp	r2, #0, 0
    974c:	e5e32001 	strb	r2, [r3, #1]!
    9750:	1afffffb 	bne	9744 <strcat+0x18>
    9754:	e12fff1e 	bx	lr

00009758 <strcmp>:
    9758:	e5d03000 	ldrb	r3, [r0]
    975c:	e3530000 	cmp	r3, #0, 0
    9760:	05d12000 	ldrbeq	r2, [r1]
    9764:	1a000003 	bne	9778 <strcmp+0x20>
    9768:	ea000006 	b	9788 <strcmp+0x30>
    976c:	e5f03001 	ldrb	r3, [r0, #1]!
    9770:	e3530000 	cmp	r3, #0, 0
    9774:	0a000005 	beq	9790 <strcmp+0x38>
    9778:	e1a0c001 	mov	ip, r1
    977c:	e4d12001 	ldrb	r2, [r1], #1
    9780:	e1520003 	cmp	r2, r3
    9784:	0afffff8 	beq	976c <strcmp+0x14>
    9788:	e0430002 	sub	r0, r3, r2
    978c:	e12fff1e 	bx	lr
    9790:	e5dc2001 	ldrb	r2, [ip, #1]
    9794:	e0430002 	sub	r0, r3, r2
    9798:	e12fff1e 	bx	lr

0000979c <strcpy>:
    979c:	e2402001 	sub	r2, r0, #1, 0
    97a0:	e4d13001 	ldrb	r3, [r1], #1
    97a4:	e3530000 	cmp	r3, #0, 0
    97a8:	e5e23001 	strb	r3, [r2, #1]!
    97ac:	1afffffb 	bne	97a0 <strcpy+0x4>
    97b0:	e12fff1e 	bx	lr

000097b4 <strncmp>:
    97b4:	e0802002 	add	r2, r0, r2
    97b8:	ea000003 	b	97cc <strncmp+0x18>
    97bc:	e4d03001 	ldrb	r3, [r0], #1
    97c0:	e4d1c001 	ldrb	ip, [r1], #1
    97c4:	e153000c 	cmp	r3, ip
    97c8:	1a000003 	bne	97dc <strncmp+0x28>
    97cc:	e1500002 	cmp	r0, r2
    97d0:	1afffff9 	bne	97bc <strncmp+0x8>
    97d4:	e3a00000 	mov	r0, #0, 0
    97d8:	e12fff1e 	bx	lr
    97dc:	e043000c 	sub	r0, r3, ip
    97e0:	e12fff1e 	bx	lr

000097e4 <reboot_callout>:
    97e4:	e12fff1e 	bx	lr

000097e8 <dev_barrier>:
    97e8:	ea000002 	b	97f8 <dsb>

000097ec <dmb>:
    97ec:	e3a00000 	mov	r0, #0, 0
    97f0:	ee070fba 	mcr	15, 0, r0, cr7, cr10, {5}
    97f4:	e12fff1e 	bx	lr

000097f8 <dsb>:
    97f8:	ee070f9a 	mcr	15, 0, r0, cr7, cr10, {4}
    97fc:	e12fff1e 	bx	lr

Disassembly of section .rodata:

00009800 <__FUNCTION__.3959-0x28>:
    9800:	65742d31 	ldrbvs	r2, [r4, #-3377]!	; 0xfffff2cf
    9804:	6d2d7473 	cfstrsvs	mvf7, [sp, #-460]!	; 0xfffffe34
    9808:	6f6c6c61 	svcvs	0x006c6c61
    980c:	00632e63 	rsbeq	r2, r3, r3, ror #28
    9810:	494e4150 	stmdbmi	lr, {r4, r6, r8, lr}^
    9814:	73253a43 			; <UNDEFINED> instruction: 0x73253a43
    9818:	3a73253a 	bcc	1cd2d08 <__bss_end__+0x1cc8d28>
    981c:	6e3a6425 	cdpvs	4, 3, cr6, cr10, cr5, {1}
    9820:	0a64253d 	beq	1912d1c <__bss_end__+0x1908d3c>
    9824:	0000000a 	andeq	r0, r0, sl

00009828 <__FUNCTION__.3959>:
    9828:	6d746f6e 	ldclvs	15, cr6, [r4, #-440]!	; 0xfffffe48
    982c:	006e6961 	rsbeq	r6, lr, r1, ror #18
    9830:	696c2f2e 	stmdbvs	ip!, {r1, r2, r3, r5, r8, r9, sl, fp, sp}^
    9834:	762f6362 	strtvc	r6, [pc], -r2, ror #6
    9838:	72702d61 	rsbsvc	r2, r0, #6208	; 0x1840
    983c:	6b746e69 	blvs	1d251e8 <__bss_end__+0x1d1b208>
    9840:	0000632e 	andeq	r6, r0, lr, lsr #6
    9844:	494e4150 	stmdbmi	lr, {r4, r6, r8, lr}^
    9848:	73253a43 			; <UNDEFINED> instruction: 0x73253a43
    984c:	3a73253a 	bcc	1cd2d3c <__bss_end__+0x1cc8d5c>
    9850:	253a6425 	ldrcs	r6, [sl, #-1061]!	; 0xfffffbdb
    9854:	00000a73 	andeq	r0, r0, r3, ror sl
    9858:	00000030 	andeq	r0, r0, r0, lsr r0
    985c:	33323130 	teqcc	r2, #12
    9860:	37363534 			; <UNDEFINED> instruction: 0x37363534
    9864:	62613938 	rsbvs	r3, r1, #56, 18	; 0xe0000
    9868:	66656463 	strbtvs	r6, [r5], -r3, ror #8
    986c:	00000000 	andeq	r0, r0, r0
    9870:	00003130 	andeq	r3, r0, r0, lsr r1
    9874:	33323130 	teqcc	r2, #12
    9878:	37363534 			; <UNDEFINED> instruction: 0x37363534
    987c:	00003938 	andeq	r3, r0, r8, lsr r9
    9880:	63747570 	cmnvs	r4, #112, 10	; 0x1c000000
    9884:	0070665f 	rsbseq	r6, r0, pc, asr r6
    9888:	74646977 	strbtvc	r6, [r4], #-2423	; 0xfffff689
    988c:	203c2068 	eorscs	r2, ip, r8, rrx
    9890:	00003233 	andeq	r3, r0, r3, lsr r2
    9894:	00786c6c 	rsbseq	r6, r8, ip, ror #24
    9898:	253d3078 	ldrcs	r3, [sp, #-120]!	; 0xffffff88
    989c:	00000a78 	andeq	r0, r0, r8, ror sl
    98a0:	253d3178 	ldrcs	r3, [sp, #-376]!	; 0xfffffe88
    98a4:	00000a78 	andeq	r0, r0, r8, ror sl
    98a8:	00646c6c 	rsbeq	r6, r4, ip, ror #24
    98ac:	6e727473 	mrcvs	4, 3, r7, cr2, cr3, {3}
    98b0:	28706d63 	ldmdacs	r0!, {r0, r1, r5, r6, r8, sl, fp, sp, lr}^
    98b4:	202c7974 	eorcs	r7, ip, r4, ror r9
    98b8:	786c6c22 	stmdavc	ip!, {r1, r5, sl, fp, sp, lr}^
    98bc:	33202c22 			; <UNDEFINED> instruction: 0x33202c22
    98c0:	3d3d2029 	ldccc	0, cr2, [sp, #-164]!	; 0xffffff5c
    98c4:	7c203020 	stcvc	0, cr3, [r0], #-128	; 0xffffff80
    98c8:	7473207c 	ldrbtvc	r2, [r3], #-124	; 0xffffff84
    98cc:	6d636e72 	stclvs	14, cr6, [r3, #-456]!	; 0xfffffe38
    98d0:	79742870 	ldmdbvc	r4!, {r4, r5, r6, fp, sp}^
    98d4:	6c22202c 	stcvs	0, cr2, [r2], #-176	; 0xffffff50
    98d8:	2c22646c 	cfstrscs	mvf6, [r2], #-432	; 0xfffffe50
    98dc:	20293320 	eorcs	r3, r9, r0, lsr #6
    98e0:	30203d3d 	eorcc	r3, r0, sp, lsr sp
    98e4:	00000000 	andeq	r0, r0, r0
    98e8:	494e4150 	stmdbmi	lr, {r4, r6, r8, lr}^
    98ec:	73253a43 			; <UNDEFINED> instruction: 0x73253a43
    98f0:	3a73253a 	bcc	1cd2de0 <__bss_end__+0x1cc8e00>
    98f4:	693a6425 	ldmdbvs	sl!, {r0, r2, r5, sl, sp, lr}
    98f8:	736f706d 	cmnvc	pc, #109, 0	; 0x6d
    98fc:	6c626973 			; <UNDEFINED> instruction: 0x6c626973
    9900:	66203a65 	strtvs	r3, [r0], -r5, ror #20
    9904:	3c3d746d 	cfldrscc	mvf7, [sp], #-436	; 0xfffffe4c
    9908:	0a3e7325 	beq	fa65a4 <__bss_end__+0xf9c5c4>
    990c:	0000000a 	andeq	r0, r0, sl
    9910:	494e4150 	stmdbmi	lr, {r4, r6, r8, lr}^
    9914:	73253a43 			; <UNDEFINED> instruction: 0x73253a43
    9918:	3a73253a 	bcc	1cd2e08 <__bss_end__+0x1cc8e28>
    991c:	663a6425 	ldrtvs	r6, [sl], -r5, lsr #8
    9920:	74616f6c 	strbtvc	r6, [r1], #-3948	; 0xfffff094
    9924:	746f6e20 	strbtvc	r6, [pc], #-3616	; 992c <__FUNCTION__.3959+0x104>
    9928:	616e6520 	cmnvs	lr, r0, lsr #10
    992c:	64656c62 	strbtvs	r6, [r5], #-3170	; 0xfffff39e
    9930:	0a212121 	beq	851dbc <__bss_end__+0x847ddc>
    9934:	00000000 	andeq	r0, r0, r0
    9938:	6e697270 	mcrvs	2, 3, r7, cr9, cr0, {3}
    993c:	203a6b74 	eorscs	r6, sl, r4, ror fp
    9940:	20746f6e 	rsbscs	r6, r4, lr, ror #30
    9944:	646e6168 	strbtvs	r6, [lr], #-360	; 0xfffffe98
    9948:	676e696c 	strbvs	r6, [lr, -ip, ror #18]!
    994c:	65707320 	ldrbvs	r7, [r0, #-800]!	; 0xfffffce0
    9950:	69666963 	stmdbvs	r6!, {r0, r1, r5, r6, r8, fp, sp, lr}^
    9954:	27207265 	strcs	r7, [r0, -r5, ror #4]!
    9958:	20276325 	eorcs	r6, r7, r5, lsr #6
    995c:	63736128 	cmnvs	r3, #10
    9960:	253d6969 	ldrcs	r6, [sp, #-2409]!	; 0xfffff697
    9964:	000a2964 	andeq	r2, sl, r4, ror #18
    9968:	494e4150 	stmdbmi	lr, {r4, r6, r8, lr}^
    996c:	73253a43 			; <UNDEFINED> instruction: 0x73253a43
    9970:	3a73253a 	bcc	1cd2e60 <__bss_end__+0x1cc8e80>
    9974:	703a6425 	eorsvc	r6, sl, r5, lsr #8
    9978:	746e6972 	strbtvc	r6, [lr], #-2418	; 0xfffff68e
    997c:	7265206b 	rsbvc	r2, r5, #107, 0	; 0x6b
    9980:	0a726f72 	beq	1ca5750 <__bss_end__+0x1c9b770>
    9984:	0000000a 	andeq	r0, r0, sl

00009988 <__FUNCTION__.4004>:
    9988:	74696d65 	strbtvc	r6, [r9], #-3429	; 0xfffff29b
    998c:	00000000 	andeq	r0, r0, r0

00009990 <__FUNCTION__.3952>:
    9990:	5f697072 	svcpl	0x00697072
    9994:	5f746573 	svcpl	0x00746573
    9998:	7074756f 	rsbsvc	r7, r4, pc, ror #10
    999c:	00007475 	andeq	r7, r0, r5, ror r4

000099a0 <__FUNCTION__.4030>:
    99a0:	705f6176 	subsvc	r6, pc, r6, ror r1	; <UNPREDICTABLE>
    99a4:	746e6972 	strbtvc	r6, [lr], #-2418	; 0xfffff68e
    99a8:	0000006b 	andeq	r0, r0, fp, rrx
    99ac:	454e4f44 	strbmi	r4, [lr, #-3908]	; 0xfffff0bc
    99b0:	0a212121 	beq	851e3c <__bss_end__+0x847e5c>
    99b4:	00000000 	andeq	r0, r0, r0
    99b8:	6c616d6b 	stclvs	13, cr6, [r1], #-428	; 0xfffffe54
    99bc:	2e636f6c 	cdpcs	15, 6, cr6, cr3, cr12, {3}
    99c0:	00000063 	andeq	r0, r0, r3, rrx
    99c4:	5f78616d 	svcpl	0x0078616d
    99c8:	7479626e 	ldrbtvc	r6, [r9], #-622	; 0xfffffd92
    99cc:	00007365 	andeq	r7, r0, r5, ror #6
    99d0:	494e4150 	stmdbmi	lr, {r4, r6, r8, lr}^
    99d4:	73253a43 			; <UNDEFINED> instruction: 0x73253a43
    99d8:	3a73253a 	bcc	1cd2ec8 <__bss_end__+0x1cc8ee8>
    99dc:	733a6425 	teqvc	sl, #620756992	; 0x25000000
    99e0:	69747465 	ldmdbvs	r4!, {r0, r2, r5, r6, sl, ip, sp, lr}^
    99e4:	6820676e 	stmdavs	r0!, {r1, r2, r3, r5, r6, r8, r9, sl, sp, lr}
    99e8:	20706165 	rsbscs	r6, r0, r5, ror #2
    99ec:	25206f74 	strcs	r6, [r0, #-3956]!	; 0xfffff08c
    99f0:	77203a70 			; <UNDEFINED> instruction: 0x77203a70
    99f4:	206c6c69 	rsbcs	r6, ip, r9, ror #24
    99f8:	20746968 	rsbscs	r6, r4, r8, ror #18
    99fc:	20656874 	rsbcs	r6, r5, r4, ror r8
    9a00:	20646c6f 	rsbcs	r6, r4, pc, ror #24
    9a04:	70616568 	rsbvc	r6, r1, r8, ror #10
    9a08:	20746120 	rsbscs	r6, r4, r0, lsr #2
    9a0c:	0a0a7025 	beq	2a5aa8 <__bss_end__+0x29bac8>
    9a10:	00000000 	andeq	r0, r0, r0
    9a14:	494e4150 	stmdbmi	lr, {r4, r6, r8, lr}^
    9a18:	73253a43 			; <UNDEFINED> instruction: 0x73253a43
    9a1c:	3a73253a 	bcc	1cd2f0c <__bss_end__+0x1cc8f2c>
    9a20:	613a6425 	teqvs	sl, r5, lsr #8
    9a24:	6165726c 	cmnvs	r5, ip, ror #4
    9a28:	63207964 			; <UNDEFINED> instruction: 0x63207964
    9a2c:	656c6c61 	strbvs	r6, [ip, #-3169]!	; 0xfffff39f
    9a30:	6d6b2064 	stclvs	0, cr2, [fp, #-400]!	; 0xfffffe70
    9a34:	6f6c6c61 	svcvs	0x006c6c61
    9a38:	6e695f63 	cdpvs	15, 6, cr5, cr9, cr3, {3}
    9a3c:	0a0a7469 	beq	2a6be8 <__bss_end__+0x29cc08>
    9a40:	00000000 	andeq	r0, r0, r0
    9a44:	494e4150 	stmdbmi	lr, {r4, r6, r8, lr}^
    9a48:	73253a43 			; <UNDEFINED> instruction: 0x73253a43
    9a4c:	3a73253a 	bcc	1cd2f3c <__bss_end__+0x1cc8f5c>
    9a50:	253a6425 	ldrcs	r6, [sl, #-1061]!	; 0xfffffbdb
    9a54:	626e2064 	rsbvs	r2, lr, #100, 0	; 0x64
    9a58:	73657479 	cmnvc	r5, #2030043136	; 0x79000000
    9a5c:	63786520 	cmnvs	r8, #32, 10	; 0x8000000
    9a60:	65646565 	strbvs	r6, [r4, #-1381]!	; 0xfffffa9b
    9a64:	69732064 	ldmdbvs	r3!, {r2, r5, r6, sp}^
    9a68:	6f20657a 	svcvs	0x0020657a
    9a6c:	65682066 	strbvs	r2, [r8, #-102]!	; 0xffffff9a
    9a70:	62207061 	eorvs	r7, r0, #97, 0	; 0x61
    9a74:	75252079 	strvc	r2, [r5, #-121]!	; 0xffffff87
    9a78:	79626e20 	stmdbvc	r2!, {r5, r9, sl, fp, sp, lr}^
    9a7c:	0a736574 	beq	1ce3054 <__bss_end__+0x1cd9074>
    9a80:	0000000a 	andeq	r0, r0, sl
    9a84:	4f525245 	svcmi	0x00525245
    9a88:	73253a52 			; <UNDEFINED> instruction: 0x73253a52
    9a8c:	3a73253a 	bcc	1cd2f7c <__bss_end__+0x1cc8f9c>
    9a90:	203a6425 	eorscs	r6, sl, r5, lsr #8
    9a94:	534c4146 	movtpl	r4, #49478	; 0xc146
    9a98:	253c2845 	ldrcs	r2, [ip, #-2117]!	; 0xfffff7bb
    9a9c:	3a293e73 	bcc	a59470 <__bss_end__+0xa4f490>
    9aa0:	73736120 	cmnvc	r3, #8
    9aa4:	6e696d75 	mcrvs	13, 3, r6, cr9, cr5, {3}
    9aa8:	6f702067 	svcvs	0x00702067
    9aac:	20726577 	rsbscs	r6, r2, r7, ror r5
    9ab0:	7420666f 	strtvc	r6, [r0], #-1647	; 0xfffff991
    9ab4:	000a6f77 	andeq	r6, sl, r7, ror pc
    9ab8:	705f7369 	subsvc	r7, pc, r9, ror #6
    9abc:	2832776f 	ldmdacs	r2!, {r0, r1, r2, r3, r5, r6, r8, r9, sl, ip, sp, lr}
    9ac0:	67696c61 	strbvs	r6, [r9, -r1, ror #24]!
    9ac4:	6e656d6e 	cdpvs	13, 6, cr6, cr5, cr14, {3}
    9ac8:	00002974 	andeq	r2, r0, r4, ror r9
    9acc:	705f7369 	subsvc	r7, pc, r9, ror #6
    9ad0:	2832776f 	ldmdacs	r2!, {r0, r1, r2, r3, r5, r6, r8, r9, sl, ip, sp, lr}
    9ad4:	0000296e 	andeq	r2, r0, lr, ror #18
    9ad8:	4f525245 	svcmi	0x00525245
    9adc:	73253a52 			; <UNDEFINED> instruction: 0x73253a52
    9ae0:	3a73253a 	bcc	1cd2fd0 <__bss_end__+0x1cc8ff0>
    9ae4:	203a6425 	eorscs	r6, sl, r5, lsr #8
    9ae8:	534c4146 	movtpl	r4, #49478	; 0xc146
    9aec:	253c2845 	ldrcs	r2, [ip, #-2117]!	; 0xfffff7bb
    9af0:	3a293e73 	bcc	a594c4 <__bss_end__+0xa4f4e4>
    9af4:	706d6920 	rsbvc	r6, sp, r0, lsr #18
    9af8:	6973736f 	ldmdbvs	r3!, {r0, r1, r2, r3, r5, r6, r8, r9, ip, sp, lr}^
    9afc:	0a656c62 	beq	1964c8c <__bss_end__+0x195acac>
    9b00:	00000000 	andeq	r0, r0, r0
    9b04:	615f7369 	cmpvs	pc, r9, ror #6
    9b08:	6e67696c 	vnmulvs.f16	s13, s14, s25	; <UNPREDICTABLE>
    9b0c:	68286465 	stmdavs	r8!, {r0, r2, r5, r6, sl, sp, lr}
    9b10:	6c61202c 	stclvs	0, cr2, [r1], #-176	; 0xffffff50
    9b14:	6d6e6769 	stclvs	7, cr6, [lr, #-420]!	; 0xfffffe5c
    9b18:	29746e65 	ldmdbcs	r4!, {r0, r2, r5, r6, r9, sl, fp, sp, lr}^
    9b1c:	00000000 	andeq	r0, r0, r0
    9b20:	494e4150 	stmdbmi	lr, {r4, r6, r8, lr}^
    9b24:	73253a43 			; <UNDEFINED> instruction: 0x73253a43
    9b28:	3a73253a 	bcc	1cd3018 <__bss_end__+0x1cc9038>
    9b2c:	703a6425 	eorsvc	r6, sl, r5, lsr #8
    9b30:	746e696f 	strbtvc	r6, [lr], #-2415	; 0xfffff691
    9b34:	25207265 	strcs	r7, [r0, #-613]!	; 0xfffffd9b
    9b38:	61772070 	cmnvs	r7, r0, ror r0
    9b3c:	656e2073 	strbvs	r2, [lr, #-115]!	; 0xffffff8d
    9b40:	20726576 	rsbscs	r6, r2, r6, ror r5
    9b44:	6f6c6c61 	svcvs	0x006c6c61
    9b48:	65746163 	ldrbvs	r6, [r4, #-355]!	; 0xfffffe9d
    9b4c:	000a0a64 	andeq	r0, sl, r4, ror #20

00009b50 <__FUNCTION__.7>:
    9b50:	6c616d6b 	stclvs	13, cr6, [r1], #-428	; 0xfffffe54
    9b54:	5f636f6c 	svcpl	0x00636f6c
    9b58:	74696e69 	strbtvc	r6, [r9], #-3689	; 0xfffff197
    9b5c:	7465735f 	strbtvc	r7, [r5], #-863	; 0xfffffca1
    9b60:	6174735f 	cmnvs	r4, pc, asr r3
    9b64:	00007472 	andeq	r7, r0, r2, ror r4

00009b68 <__FUNCTION__.5>:
    9b68:	6c616d6b 	stclvs	13, cr6, [r1], #-428	; 0xfffffe54
    9b6c:	5f636f6c 	svcpl	0x00636f6c
    9b70:	74696e69 	strbtvc	r6, [r9], #-3689	; 0xfffff197
    9b74:	00000000 	andeq	r0, r0, r0

00009b78 <__FUNCTION__.4>:
    9b78:	6c616d6b 	stclvs	13, cr6, [r1], #-428	; 0xfffffe54
    9b7c:	5f636f6c 	svcpl	0x00636f6c
    9b80:	7a746f6e 	bvc	1d25940 <__bss_end__+0x1d1b960>
    9b84:	006f7265 	rsbeq	r7, pc, r5, ror #4

00009b88 <__FUNCTION__.2>:
    9b88:	6c616d6b 	stclvs	13, cr6, [r1], #-428	; 0xfffffe54
    9b8c:	00636f6c 	rsbeq	r6, r3, ip, ror #30

00009b90 <__FUNCTION__.1>:
    9b90:	6c616d6b 	stclvs	13, cr6, [r1], #-428	; 0xfffffe54
    9b94:	5f636f6c 	svcpl	0x00636f6c
    9b98:	67696c61 	strbvs	r6, [r9, -r1, ror #24]!
    9b9c:	0064656e 	rsbeq	r6, r4, lr, ror #10

00009ba0 <__FUNCTION__.3>:
    9ba0:	6e756f72 	mrcvs	15, 3, r6, cr5, cr2, {3}
    9ba4:	00707564 	rsbseq	r7, r0, r4, ror #10

00009ba8 <__FUNCTION__.0>:
    9ba8:	6572666b 	ldrbvs	r6, [r2, #-1643]!	; 0xfffff995
    9bac:	6f705f65 	svcvs	0x00705f65
    9bb0:	Address 0x0000000000009bb0 is out of bounds.


Disassembly of section .data:

00009bb4 <putk>:
    9bb4:	00008284 	andeq	r8, r0, r4, lsl #5

00009bb8 <heap>:
    9bb8:	00009fe0 	andeq	r9, r0, r0, ror #31

00009bbc <heap_start>:
    9bbc:	00009fe0 	andeq	r9, r0, r0, ror #31

00009bc0 <heap_end>:
    9bc0:	00209fe0 	eoreq	r9, r0, r0, ror #31

00009bc4 <rpi_putchar>:
    9bc4:	000096f0 	strdeq	r9, [r0], -r0

Disassembly of section .bss:

00009bc8 <__bss_start__>:
	...

00009bd0 <base>:
	...

00009bd8 <buf.3944>:
	...

00009fd8 <init_p.6>:
	...

Disassembly of section .ARM.attributes:

00000000 <.ARM.attributes>:
   0:	00002a41 	andeq	r2, r0, r1, asr #20
   4:	61656100 	cmnvs	r5, r0, lsl #2
   8:	01006962 	tsteq	r0, r2, ror #18
   c:	00000020 	andeq	r0, r0, r0, lsr #32
  10:	4b5a3605 	blmi	168d82c <__bss_end__+0x168384c>
  14:	08070600 	stmdaeq	r7, {r9, sl}
  18:	12010901 	andne	r0, r1, #16384	; 0x4000
  1c:	15011404 	strne	r1, [r1, #-1028]	; 0xfffffbfc
  20:	18031701 	stmdane	r3, {r0, r8, r9, sl, ip}
  24:	22011a01 	andcs	r1, r1, #4096	; 0x1000
  28:	Address 0x0000000000000028 is out of bounds.


Disassembly of section .comment:

00000000 <.comment>:
   0:	3a434347 	bcc	10d0d24 <__bss_end__+0x10c6d44>
   4:	4e472820 	cdpmi	8, 4, cr2, cr7, cr0, {1}
   8:	6f542055 	svcvs	0x00542055
   c:	20736c6f 	rsbscs	r6, r3, pc, ror #24
  10:	20726f66 	rsbscs	r6, r2, r6, ror #30
  14:	206d7241 	rsbcs	r7, sp, r1, asr #4
  18:	65626d45 	strbvs	r6, [r2, #-3397]!	; 0xfffff2bb
  1c:	64656464 	strbtvs	r6, [r5], #-1124	; 0xfffffb9c
  20:	6f725020 	svcvs	0x00725020
  24:	73736563 	cmnvc	r3, #415236096	; 0x18c00000
  28:	2073726f 	rsbscs	r7, r3, pc, ror #4
  2c:	30322d39 	eorscc	r2, r2, r9, lsr sp
  30:	712d3931 			; <UNDEFINED> instruction: 0x712d3931
  34:	616d2d34 	cmnvs	sp, r4, lsr sp
  38:	29726f6a 	ldmdbcs	r2!, {r1, r3, r5, r6, r8, r9, sl, fp, sp, lr}^
  3c:	322e3920 	eorcc	r3, lr, #32, 18	; 0x80000
  40:	3220312e 	eorcc	r3, r0, #-2147483637	; 0x8000000b
  44:	31393130 	teqcc	r9, r0, lsr r1
  48:	20353230 	eorscs	r3, r5, r0, lsr r2
  4c:	6c657228 	sfmvs	f7, 2, [r5], #-160	; 0xffffff60
  50:	65736165 	ldrbvs	r6, [r3, #-357]!	; 0xfffffe9b
  54:	415b2029 	cmpmi	fp, r9, lsr #32
  58:	612f4d52 			; <UNDEFINED> instruction: 0x612f4d52
  5c:	392d6d72 	pushcc	{r1, r4, r5, r6, r8, sl, fp, sp, lr}
  60:	6172622d 	cmnvs	r2, sp, lsr #4
  64:	2068636e 	rsbcs	r6, r8, lr, ror #6
  68:	69766572 	ldmdbvs	r6!, {r1, r4, r5, r6, r8, sl, sp, lr}^
  6c:	6e6f6973 			; <UNDEFINED> instruction: 0x6e6f6973
  70:	37373220 	ldrcc	r3, [r7, -r0, lsr #4]!
  74:	5d393935 			; <UNDEFINED> instruction: 0x5d393935
  78:	43434700 	movtmi	r4, #14080	; 0x3700
  7c:	4728203a 			; <UNDEFINED> instruction: 0x4728203a
  80:	4120554e 			; <UNDEFINED> instruction: 0x4120554e
  84:	45206d72 	strmi	r6, [r0, #-3442]!	; 0xfffff28e
  88:	6465626d 	strbtvs	r6, [r5], #-621	; 0xfffffd93
  8c:	20646564 	rsbcs	r6, r4, r4, ror #10
  90:	6c6f6f54 	stclvs	15, cr6, [pc], #-336	; ffffff48 <__bss_end__+0xffff5f68>
  94:	69616863 	stmdbvs	r1!, {r0, r1, r5, r6, fp, sp, lr}^
  98:	3031206e 	eorscc	r2, r1, lr, rrx
  9c:	322d332e 	eorcc	r3, sp, #-1207959552	; 0xb8000000
  a0:	2e313230 	mrccs	2, 1, r3, cr1, cr0, {1}
  a4:	20293031 	eorcs	r3, r9, r1, lsr r0
  a8:	332e3031 			; <UNDEFINED> instruction: 0x332e3031
  ac:	3220312e 	eorcc	r3, r0, #-2147483637	; 0x8000000b
  b0:	30313230 	eorscc	r3, r1, r0, lsr r2
  b4:	20343238 	eorscs	r3, r4, r8, lsr r2
  b8:	6c657228 	sfmvs	f7, 2, [r5], #-160	; 0xffffff60
  bc:	65736165 	ldrbvs	r6, [r3, #-357]!	; 0xfffffe9b
  c0:	Address 0x00000000000000c0 is out of bounds.


Disassembly of section .debug_info:

00000000 <.debug_info>:
       0:	000001b7 			; <UNDEFINED> instruction: 0x000001b7
       4:	00000004 	andeq	r0, r0, r4
       8:	01040000 	mrseq	r0, (UNDEF: 4)
       c:	000000dd 	ldrdeq	r0, [r0], -sp
      10:	0000510c 	andeq	r5, r0, ip, lsl #2
      14:	00009200 	andeq	r9, r0, r0, lsl #4
      18:	00803800 	addeq	r3, r0, r0, lsl #16
      1c:	00003c00 	andeq	r3, r0, r0, lsl #24
      20:	00000000 	andeq	r0, r0, r0
      24:	05040200 	streq	r0, [r4, #-512]	; 0xfffffe00
      28:	00746e69 	rsbseq	r6, r4, r9, ror #28
      2c:	6b070403 	blvs	1c1040 <__bss_end__+0x1b7060>
      30:	03000000 	movweq	r0, #0
      34:	000a0601 	andeq	r0, sl, r1, lsl #12
      38:	02030000 	andeq	r0, r3, #0, 0
      3c:	0000c905 	andeq	ip, r0, r5, lsl #18
      40:	05040300 	streq	r0, [r4, #-768]	; 0xfffffd00
      44:	0000007d 	andeq	r0, r0, sp, ror r0
      48:	78050803 	stmdavc	r5, {r0, r1, fp}
      4c:	03000000 	movweq	r0, #0
      50:	00080801 	andeq	r0, r8, r1, lsl #16
      54:	02030000 	andeq	r0, r3, #0, 0
      58:	00002307 	andeq	r2, r0, r7, lsl #6
      5c:	07040300 	streq	r0, [r4, -r0, lsl #6]
      60:	00000066 	andeq	r0, r0, r6, rrx
      64:	61070803 	tstvs	r7, r3, lsl #16
      68:	04000000 	streq	r0, [r0], #-0
      6c:	00000025 	andeq	r0, r0, r5, lsr #32
      70:	0000007a 	andeq	r0, r0, sl, ror r0
      74:	00002505 	andeq	r2, r0, r5, lsl #10
      78:	86060000 	strhi	r0, [r6], -r0
      7c:	02000000 	andeq	r0, r0, #0, 0
      80:	00860e1c 	addeq	r0, r6, ip, lsl lr
      84:	04070000 	streq	r0, [r7], #-0
      88:	0000006b 	andeq	r0, r0, fp, rrx
      8c:	00002504 	andeq	r2, r0, r4, lsl #10
      90:	00009b00 	andeq	r9, r0, r0, lsl #22
      94:	009b0500 	addseq	r0, fp, r0, lsl #10
      98:	07000000 	streq	r0, [r0, -r0]
      9c:	0000a804 	andeq	sl, r0, r4, lsl #16
      a0:	08010300 	stmdaeq	r1, {r8, r9}
      a4:	00000011 	andeq	r0, r0, r1, lsl r0
      a8:	0000a108 	andeq	sl, r0, r8, lsl #2
      ac:	03210600 			; <UNDEFINED> instruction: 0x03210600
      b0:	21020000 	mrscs	r0, (UNDEF: 2)
      b4:	0000b90e 	andeq	fp, r0, lr, lsl #18
      b8:	8c040700 	stchi	7, cr0, [r4], {-0}
      bc:	03000000 	movweq	r0, #0
      c0:	00360408 	eorseq	r0, r6, r8, lsl #8
      c4:	00090000 	andeq	r0, r9, r0
      c8:	01000000 	mrseq	r0, (UNDEF: 0)
      cc:	80380615 	eorshi	r0, r8, r5, lsl r6
      d0:	003c0000 	eorseq	r0, ip, r0
      d4:	9c010000 	stcls	0, cr0, [r1], {-0}
      d8:	0000017b 	andeq	r0, r0, fp, ror r1
      dc:	0030700a 	eorseq	r7, r0, sl
      e0:	7b0b1601 	blvc	2c58ec <__bss_end__+0x2bb90c>
      e4:	0b000001 	bleq	f0 <__code_start__-0x7f10>
      e8:	1701006e 	strne	r0, [r1, -lr, rrx]
      ec:	00002c0e 	andeq	r2, r0, lr, lsl #24
      f0:	3d0c1000 	stccc	0, cr1, [ip, #-0]
      f4:	91000000 	mrsls	r0, (UNDEF: 0)
      f8:	05000001 	streq	r0, [r0, #-1]
      fc:	00982803 	addseq	r2, r8, r3, lsl #16
     100:	004a0d00 	subeq	r0, sl, r0, lsl #26
     104:	1a010000 	bne	4010c <__bss_end__+0x3612c>
     108:	00002509 	andeq	r2, r0, r9, lsl #10
     10c:	012a0e00 			; <UNDEFINED> instruction: 0x012a0e00
     110:	690a0000 	stmdbvs	sl, {}	; <UNPREDICTABLE>
     114:	0d1d0100 	ldfeqs	f0, [sp, #-0]
     118:	00000025 	andeq	r0, r0, r5, lsr #32
     11c:	31700a0f 	cmncc	r0, pc, lsl #20
     120:	0f1e0100 	svceq	0x001e0100
     124:	0000017b 	andeq	r0, r0, fp, ror r1
     128:	48100000 	ldmdami	r0, {}	; <UNPREDICTABLE>
     12c:	96000080 	strls	r0, [r0], -r0, lsl #1
     130:	3d000001 	stccc	0, cr0, [r0, #-4]
     134:	11000001 	tstne	r0, r1
     138:	31015001 	tstcc	r1, r1
     13c:	80641000 	rsbhi	r1, r4, r0
     140:	01a20000 			; <UNDEFINED> instruction: 0x01a20000
     144:	01710000 	cmneq	r1, r0
     148:	01110000 	tsteq	r1, r0
     14c:	10030550 	andne	r0, r3, r0, asr r5
     150:	11000098 	swpne	r0, r8, [r0]	; <UNPREDICTABLE>
     154:	03055101 	movweq	r5, #20737	; 0x5101
     158:	00009800 	andeq	r9, r0, r0, lsl #16
     15c:	05520111 	ldrbeq	r0, [r2, #-273]	; 0xfffffeef
     160:	00982803 	addseq	r2, r8, r3, lsl #16
     164:	53011100 	movwpl	r1, #4352	; 0x1100
     168:	02114901 	andseq	r4, r1, #16384	; 0x4000
     16c:	4001007d 	andmi	r0, r1, sp, ror r0
     170:	80681200 	rsbhi	r1, r8, r0, lsl #4
     174:	01ae0000 			; <UNDEFINED> instruction: 0x01ae0000
     178:	07000000 	streq	r0, [r0, -r0]
     17c:	0000a104 	andeq	sl, r0, r4, lsl #2
     180:	00a81300 	adceq	r1, r8, r0, lsl #6
     184:	01910000 	orrseq	r0, r1, r0
     188:	2c140000 	ldccs	0, cr0, [r4], {-0}
     18c:	07000000 	streq	r0, [r0, -r0]
     190:	01810800 	orreq	r0, r1, r0, lsl #16
     194:	d3150000 	tstle	r5, #0, 0
     198:	d3000000 	movwle	r0, #0
     19c:	03000000 	movweq	r0, #0
     1a0:	0915071e 	ldmdbeq	r5, {r1, r2, r3, r4, r8, r9, sl}
     1a4:	09000002 	stmdbeq	r0, {r1}
     1a8:	02000002 	andeq	r0, r0, #2, 0
     1ac:	16150628 	ldrne	r0, [r5], -r8, lsr #12
     1b0:	16000000 	strne	r0, [r0], -r0
     1b4:	02000000 	andeq	r0, r0, #0, 0
     1b8:	c200066e 	andgt	r0, r0, #115343360	; 0x6e00000
     1bc:	04000002 	streq	r0, [r0], #-2
     1c0:	00010c00 	andeq	r0, r1, r0, lsl #24
     1c4:	dd010400 	cfstrsle	mvf0, [r1, #-0]
     1c8:	0c000000 	stceq	0, cr0, [r0], {-0}
     1cc:	000001ba 			; <UNDEFINED> instruction: 0x000001ba
     1d0:	00000092 	muleq	r0, r2, r0
     1d4:	00008074 	andeq	r8, r0, r4, ror r0
     1d8:	000001ac 	andeq	r0, r0, ip, lsr #3
     1dc:	00000091 	muleq	r0, r1, r0
     1e0:	69050402 	stmdbvs	r5, {r1, sl}
     1e4:	0300746e 	movweq	r7, #1134	; 0x46e
     1e8:	006b0704 	rsbeq	r0, fp, r4, lsl #14
     1ec:	01030000 	mrseq	r0, (UNDEF: 3)
     1f0:	00000a06 	andeq	r0, r0, r6, lsl #20
     1f4:	05020300 	streq	r0, [r2, #-768]	; 0xfffffd00
     1f8:	000000c9 	andeq	r0, r0, r9, asr #1
     1fc:	7d050403 	cfstrsvc	mvf0, [r5, #-12]
     200:	03000000 	movweq	r0, #0
     204:	00780508 	rsbseq	r0, r8, r8, lsl #10
     208:	01030000 	mrseq	r0, (UNDEF: 3)
     20c:	00000808 	andeq	r0, r0, r8, lsl #16
     210:	07020300 	streq	r0, [r2, -r0, lsl #6]
     214:	00000023 	andeq	r0, r0, r3, lsr #32
     218:	66070403 	strvs	r0, [r7], -r3, lsl #8
     21c:	03000000 	movweq	r0, #0
     220:	00610708 	rsbeq	r0, r1, r8, lsl #14
     224:	25040000 	strcs	r0, [r4, #-0]
     228:	7a000000 	bvc	230 <__code_start__-0x7dd0>
     22c:	05000000 	streq	r0, [r0, #-0]
     230:	00000025 	andeq	r0, r0, r5, lsr #32
     234:	00860600 	addeq	r0, r6, r0, lsl #12
     238:	1c020000 	stcne	0, cr0, [r2], {-0}
     23c:	0000860e 	andeq	r8, r0, lr, lsl #12
     240:	6b040700 	blvs	101e48 <__bss_end__+0xf7e68>
     244:	04000000 	streq	r0, [r0], #-0
     248:	00000025 	andeq	r0, r0, r5, lsr #32
     24c:	0000009b 	muleq	r0, fp, r0
     250:	00009b05 	andeq	r9, r0, r5, lsl #22
     254:	04070000 	streq	r0, [r7], #-0
     258:	000000a8 	andeq	r0, r0, r8, lsr #1
     25c:	11080103 	tstne	r8, r3, lsl #2
     260:	08000000 	stmdaeq	r0, {}	; <UNPREDICTABLE>
     264:	000000a1 	andeq	r0, r0, r1, lsr #1
     268:	00032106 	andeq	r2, r3, r6, lsl #2
     26c:	0e210200 	cdpeq	2, 2, cr0, cr1, cr0, {0}
     270:	000000b9 	strheq	r0, [r0], -r9
     274:	008c0407 	addeq	r0, ip, r7, lsl #8
     278:	9f090000 	svcls	0x00090000
     27c:	08000001 	stmdaeq	r0, {r0}
     280:	ec070501 	cfstr32	mvfx0, [r7], {1}
     284:	0a000000 	beq	28c <__code_start__-0x7d74>
     288:	07010064 	streq	r0, [r1, -r4, rrx]
     28c:	0000ec09 	andeq	lr, r0, r9, lsl #24
     290:	00700a00 	rsbseq	r0, r0, r0, lsl #20
     294:	f3080801 	vsub.i8	d0, d8, d1
     298:	0a000000 	beq	2a0 <__code_start__-0x7d60>
     29c:	01007066 	tsteq	r0, r6, rrx
     2a0:	00f60909 	rscseq	r0, r6, r9, lsl #18
     2a4:	03000000 	movweq	r0, #0
     2a8:	00360408 	eorseq	r0, r6, r8, lsl #8
     2ac:	040b0000 	streq	r0, [fp], #-0
     2b0:	f504070c 			; <UNDEFINED> instruction: 0xf504070c
     2b4:	0d000000 	stceq	0, cr0, [r0, #-0]
     2b8:	020e0108 	andeq	r0, lr, #2
     2bc:	00000120 	andeq	r0, r0, r0, lsr #2
     2c0:	7274700e 	rsbsvc	r7, r4, #14, 0
     2c4:	11100100 	tstne	r0, r0, lsl #2
     2c8:	00000142 	andeq	r0, r0, r2, asr #2
     2cc:	01d90f00 	bicseq	r0, r9, r0, lsl #30
     2d0:	11010000 	mrsne	r0, (UNDEF: 1)
     2d4:	00002c0c 	andeq	r2, r0, ip, lsl #24
     2d8:	09000400 	stmdbeq	r0, {sl}
     2dc:	00000192 	muleq	r0, r2, r1
     2e0:	0f0c0108 	svceq	0x000c0108
     2e4:	00000142 	andeq	r0, r0, r2, asr #2
     2e8:	0100730a 	tsteq	r0, sl, lsl #6
     2ec:	00fc0412 	rscseq	r0, ip, r2, lsl r4
     2f0:	780a0000 	stmdavc	sl, {}	; <UNPREDICTABLE>
     2f4:	0e130100 	mufeqs	f0, f3, f0
     2f8:	000000bf 	strheq	r0, [r0], -pc	; <UNPREDICTABLE>
     2fc:	20040700 	andcs	r0, r4, r0, lsl #14
     300:	10000001 	andne	r0, r0, r1
     304:	000001de 	ldrdeq	r0, [r0], -lr
     308:	20031401 	andcs	r1, r3, r1, lsl #8
     30c:	11000001 	tstne	r0, r1
     310:	000001c6 	andeq	r0, r0, r6, asr #3
     314:	480f1801 	stmdami	pc, {r0, fp, ip}	; <UNPREDICTABLE>
     318:	05000001 	streq	r0, [r0, #-1]
     31c:	009bd003 	addseq	sp, fp, r3
     320:	01ad1100 			; <UNDEFINED> instruction: 0x01ad1100
     324:	19010000 	stmdbne	r1, {}	; <UNPREDICTABLE>
     328:	00017810 	andeq	r7, r1, r0, lsl r8
     32c:	c8030500 	stmdagt	r3, {r8, sl}
     330:	0700009b 			; <UNDEFINED> instruction: 0x0700009b
     334:	00014804 	andeq	r4, r1, r4, lsl #16
     338:	01a51200 			; <UNDEFINED> instruction: 0x01a51200
     33c:	52010000 	andpl	r0, r1, #0, 0
     340:	00807406 	addeq	r7, r0, r6, lsl #8
     344:	0000bc00 	andeq	fp, r0, r0, lsl #24
     348:	c79c0100 	ldrgt	r0, [ip, r0, lsl #2]
     34c:	13000001 	movwne	r0, #1
     350:	01007061 	tsteq	r0, r1, rrx
     354:	00f31452 	rscseq	r1, r3, r2, asr r4
     358:	50010000 	andpl	r0, r1, r0
     35c:	00706214 	rsbseq	r6, r0, r4, lsl r2
     360:	780a5401 	stmdavc	sl, {r0, sl, ip, lr}
     364:	08000001 	stmdaeq	r0, {r0}
     368:	00000000 	andeq	r0, r0, r0
     36c:	14000000 	strne	r0, [r0], #-0
     370:	54010070 	strpl	r0, [r1], #-112	; 0xffffff90
     374:	0001780f 	andeq	r7, r1, pc, lsl #16
     378:	00004400 	andeq	r4, r0, r0, lsl #8
     37c:	00004000 	andeq	r4, r0, r0
     380:	d3150000 	tstle	r5, #0, 0
     384:	01000000 	mrseq	r0, (UNDEF: 0)
     388:	00f3072a 	rscseq	r0, r3, sl, lsr #14
     38c:	81740000 	cmnhi	r4, r0
     390:	00ac0000 	adceq	r0, ip, r0
     394:	9c010000 	stcls	0, cr0, [r1], {-0}
     398:	00000240 	andeq	r0, r0, r0, asr #4
     39c:	0007d716 	andeq	sp, r7, r6, lsl r7
     3a0:	1a2a0100 	bne	a807a8 <__bss_end__+0xa767c8>
     3a4:	0000002c 	andeq	r0, r0, ip, lsr #32
     3a8:	0000006a 	andeq	r0, r0, sl, rrx
     3ac:	00000062 	andeq	r0, r0, r2, rrx
     3b0:	01007014 	tsteq	r0, r4, lsl r0
     3b4:	01780a2c 	cmneq	r8, ip, lsr #20
     3b8:	00b20000 	adcseq	r0, r2, r0
     3bc:	00a40000 	adceq	r0, r4, r0
     3c0:	99170000 	ldmdbls	r7, {}	; <UNPREDICTABLE>
     3c4:	01000001 	tsteq	r0, r1
     3c8:	01780e2c 	cmneq	r8, ip, lsr #28
     3cc:	01140000 	tsteq	r4, r0
     3d0:	010a0000 	mrseq	r0, (UNDEF: 10)
     3d4:	b3170000 	tstlt	r7, #0, 0
     3d8:	01000001 	tsteq	r0, r1
     3dc:	002c0b2d 	eoreq	r0, ip, sp, lsr #22
     3e0:	015a0000 	cmpeq	sl, r0
     3e4:	01580000 	cmpeq	r8, r0
     3e8:	10180000 	andsne	r0, r8, r0
     3ec:	40000082 	andmi	r0, r0, r2, lsl #1
     3f0:	19000002 	stmdbne	r0, {r1}
     3f4:	74025001 	strvc	r5, [r2], #-1
     3f8:	1a000000 	bne	400 <__code_start__-0x7c00>
     3fc:	000001d0 	ldrdeq	r0, [r0], -r0	; <UNPREDICTABLE>
     400:	78101c01 	ldmdavc	r0, {r0, sl, fp, ip}
     404:	30000001 	andcc	r0, r0, r1
     408:	44000081 	strmi	r0, [r0], #-129	; 0xffffff7f
     40c:	01000000 	mrseq	r0, (UNDEF: 0)
     410:	0002b39c 	muleq	r2, ip, r3
     414:	756e1b00 	strbvc	r1, [lr, #-2816]!	; 0xfffff500
     418:	221c0100 	andscs	r0, ip, #0
     41c:	0000002c 	andeq	r0, r0, ip, lsr #32
     420:	00000171 	andeq	r0, r0, r1, ror r1
     424:	0000016d 	andeq	r0, r0, sp, ror #2
     428:	00706314 	rsbseq	r6, r0, r4, lsl r3
     42c:	b3082001 	movwlt	r2, #32769	; 0x8001
     430:	95000002 	strls	r0, [r0, #-2]
     434:	8f000001 	svchi	0x00000001
     438:	14000001 	strne	r0, [r0], #-1
     43c:	01007075 	tsteq	r0, r5, ror r0
     440:	01780a23 	cmneq	r8, r3, lsr #20
     444:	01c40000 	biceq	r0, r4, r0
     448:	01c00000 	biceq	r0, r0, r0
     44c:	481c0000 	ldmdami	ip, {}	; <UNPREDICTABLE>
     450:	b9000081 	stmdblt	r0, {r0, r7}
     454:	a9000002 	stmdbge	r0, {r1}
     458:	19000002 	stmdbne	r0, {r1}
     45c:	74045001 	strvc	r5, [r4], #-1
     460:	00243300 	eoreq	r3, r4, r0, lsl #6
     464:	00815c1d 	addeq	r5, r1, sp, lsl ip
     468:	00017e00 	andeq	r7, r1, r0, lsl #28
     46c:	04070000 	streq	r0, [r7], #-0
     470:	000000a1 	andeq	r0, r0, r1, lsr #1
     474:	0001cb1e 	andeq	ip, r1, lr, lsl fp
     478:	0001cb00 	andeq	ip, r1, r0, lsl #22
     47c:	0b1a0300 	bleq	681084 <__bss_end__+0x6770a4>
     480:	00010a00 	andeq	r0, r1, r0, lsl #20
     484:	e3000400 	movw	r0, #1024	; 0x400
     488:	04000002 	streq	r0, [r0], #-2
     48c:	0000dd01 	andeq	sp, r0, r1, lsl #26
     490:	01f70c00 	mvnseq	r0, r0, lsl #24
     494:	00920000 	addseq	r0, r2, r0
     498:	82200000 	eorhi	r0, r0, #0, 0
     49c:	000c0000 	andeq	r0, ip, r0
     4a0:	02bc0000 	adcseq	r0, ip, #0, 0
     4a4:	04020000 	streq	r0, [r2], #-0
     4a8:	746e6905 	strbtvc	r6, [lr], #-2309	; 0xfffff6fb
     4ac:	07040300 	streq	r0, [r4, -r0, lsl #6]
     4b0:	0000006b 	andeq	r0, r0, fp, rrx
     4b4:	0a060103 	beq	1808c8 <__bss_end__+0x1768e8>
     4b8:	03000000 	movweq	r0, #0
     4bc:	00c90502 	sbceq	r0, r9, r2, lsl #10
     4c0:	04030000 	streq	r0, [r3], #-0
     4c4:	00007d05 	andeq	r7, r0, r5, lsl #26
     4c8:	05080300 	streq	r0, [r8, #-768]	; 0xfffffd00
     4cc:	00000078 	andeq	r0, r0, r8, ror r0
     4d0:	08080103 	stmdaeq	r8, {r0, r1, r8}
     4d4:	03000000 	movweq	r0, #0
     4d8:	00230702 	eoreq	r0, r3, r2, lsl #14
     4dc:	04030000 	streq	r0, [r3], #-0
     4e0:	00006607 	andeq	r6, r0, r7, lsl #12
     4e4:	07080300 	streq	r0, [r8, -r0, lsl #6]
     4e8:	00000061 	andeq	r0, r0, r1, rrx
     4ec:	00002504 	andeq	r2, r0, r4, lsl #10
     4f0:	00007a00 	andeq	r7, r0, r0, lsl #20
     4f4:	00250500 	eoreq	r0, r5, r0, lsl #10
     4f8:	06000000 	streq	r0, [r0], -r0
     4fc:	00000086 	andeq	r0, r0, r6, lsl #1
     500:	860e1c02 	strhi	r1, [lr], -r2, lsl #24
     504:	07000000 	streq	r0, [r0, -r0]
     508:	00006b04 	andeq	r6, r0, r4, lsl #22
     50c:	00250400 	eoreq	r0, r5, r0, lsl #8
     510:	009b0000 	addseq	r0, fp, r0
     514:	9b050000 	blls	14051c <__bss_end__+0x13653c>
     518:	00000000 	andeq	r0, r0, r0
     51c:	00a80407 	adceq	r0, r8, r7, lsl #8
     520:	01030000 	mrseq	r0, (UNDEF: 3)
     524:	00001108 	andeq	r1, r0, r8, lsl #2
     528:	00a10800 	adceq	r0, r1, r0, lsl #16
     52c:	21060000 	mrscs	r0, (UNDEF: 6)
     530:	02000003 	andeq	r0, r0, #3, 0
     534:	00b90e21 	adcseq	r0, r9, r1, lsr #28
     538:	04070000 	streq	r0, [r7], #-0
     53c:	0000008c 	andeq	r0, r0, ip, lsl #1
     540:	0001cb09 	andeq	ip, r1, r9, lsl #22
     544:	07040100 	streq	r0, [r4, -r0, lsl #2]
     548:	000000ff 	strdeq	r0, [r0], -pc	; <UNPREDICTABLE>
     54c:	00008220 	andeq	r8, r0, r0, lsr #4
     550:	0000000c 	andeq	r0, r0, ip
     554:	00ff9c01 	rscseq	r9, pc, r1, lsl #24
     558:	e50a0000 	str	r0, [sl, #-0]
     55c:	01000001 	tsteq	r0, r1
     560:	00411104 	subeq	r1, r1, r4, lsl #2
     564:	01e80000 	mvneq	r0, r0
     568:	01e40000 	mvneq	r0, r0
     56c:	280b0000 	stmdacs	fp, {}	; <UNPREDICTABLE>
     570:	01000082 	smlabbeq	r0, r2, r0, r0
     574:	0c000001 	stceq	0, cr0, [r0], {1}
     578:	f3035001 	vhadd.u8	d5, d3, d1
     57c:	00005001 	andeq	r5, r0, r1
     580:	ef0e040d 	svc	0x000e040d
     584:	ef000001 	svc	0x00000001
     588:	02000001 	andeq	r0, r0, #1, 0
     58c:	9d00077b 	stcls	7, cr0, [r0, #-492]	; 0xfffffe14
     590:	04000001 	streq	r0, [r0], #-1
     594:	0003a500 	andeq	sl, r3, r0, lsl #10
     598:	1f010400 	svcne	0x00010400
     59c:	0c000002 	stceq	0, cr0, [r0], {2}
     5a0:	000002dc 	ldrdeq	r0, [r0], -ip
     5a4:	000002f6 	strdeq	r0, [r0], -r6
     5a8:	0000822c 	andeq	r8, r0, ip, lsr #4
     5ac:	00000058 	andeq	r0, r0, r8, asr r0
     5b0:	00000335 	andeq	r0, r0, r5, lsr r3
     5b4:	00021002 	andeq	r1, r2, r2
     5b8:	1b280200 	blne	a00dc0 <__bss_end__+0x9f6de0>
     5bc:	00000031 	andeq	r0, r0, r1, lsr r0
     5c0:	0002ec03 	andeq	lr, r2, r3, lsl #24
     5c4:	00040400 	andeq	r0, r4, r0, lsl #8
     5c8:	00000048 	andeq	r0, r0, r8, asr #32
     5cc:	0002d704 	andeq	sp, r2, r4, lsl #14
     5d0:	00004800 	andeq	r4, r0, r0, lsl #16
     5d4:	05000000 	streq	r0, [r0, #-0]
     5d8:	02ee0204 	rsceq	r0, lr, #4, 4	; 0x40000000
     5dc:	63020000 	movwvs	r0, #8192	; 0x2000
     5e0:	00002518 	andeq	r2, r0, r8, lsl r5
     5e4:	05040600 	streq	r0, [r4, #-1536]	; 0xfffffa00
     5e8:	00746e69 	rsbseq	r6, r4, r9, ror #28
     5ec:	6b070407 	blvs	1c1610 <__bss_end__+0x1b7630>
     5f0:	07000000 	streq	r0, [r0, -r0]
     5f4:	000a0601 	andeq	r0, sl, r1, lsl #12
     5f8:	02070000 	andeq	r0, r7, #0, 0
     5fc:	0000c905 	andeq	ip, r0, r5, lsl #18
     600:	05040700 	streq	r0, [r4, #-1792]	; 0xfffff900
     604:	0000007d 	andeq	r0, r0, sp, ror r0
     608:	78050807 	stmdavc	r5, {r0, r1, r2, fp}
     60c:	07000000 	streq	r0, [r0, -r0]
     610:	00080801 	andeq	r0, r8, r1, lsl #16
     614:	02070000 	andeq	r0, r7, #0, 0
     618:	00002307 	andeq	r2, r0, r7, lsl #6
     61c:	07040700 	streq	r0, [r4, -r0, lsl #14]
     620:	00000066 	andeq	r0, r0, r6, rrx
     624:	61070807 	tstvs	r7, r7, lsl #16
     628:	08000000 	stmdaeq	r0, {}	; <UNPREDICTABLE>
     62c:	00000056 	andeq	r0, r0, r6, asr r0
     630:	000000ab 	andeq	r0, r0, fp, lsr #1
     634:	00005609 	andeq	r5, r0, r9, lsl #12
     638:	860a0000 	strhi	r0, [sl], -r0
     63c:	03000000 	movweq	r0, #0
     640:	00b70e1c 	adcseq	r0, r7, ip, lsl lr
     644:	040b0000 	streq	r0, [fp], #-0
     648:	0000009c 	muleq	r0, ip, r0
     64c:	00005608 	andeq	r5, r0, r8, lsl #12
     650:	0000cc00 	andeq	ip, r0, r0, lsl #24
     654:	00cc0900 	sbceq	r0, ip, r0, lsl #18
     658:	0b000000 	bleq	660 <__code_start__-0x79a0>
     65c:	0000d904 	andeq	sp, r0, r4, lsl #18
     660:	08010700 	stmdaeq	r1, {r8, r9, sl}
     664:	00000011 	andeq	r0, r0, r1, lsl r0
     668:	0000d20c 	andeq	sp, r0, ip, lsl #4
     66c:	03210a00 			; <UNDEFINED> instruction: 0x03210a00
     670:	21030000 	mrscs	r0, (UNDEF: 3)
     674:	0000ea0e 	andeq	lr, r0, lr, lsl #20
     678:	bd040b00 	vstrlt	d0, [r4, #-0]
     67c:	0d000000 	stceq	0, cr0, [r0, #-0]
     680:	00000209 	andeq	r0, r0, r9, lsl #4
     684:	56050601 	strpl	r0, [r5], -r1, lsl #12
     688:	2c000000 	stccs	0, cr0, [r0], {-0}
     68c:	58000082 	stmdapl	r0, {r1, r7}
     690:	01000000 	mrseq	r0, (UNDEF: 0)
     694:	0001839c 	muleq	r1, ip, r3
     698:	6d660e00 	stclvs	14, cr0, [r6, #-0]
     69c:	06010074 			; <UNDEFINED> instruction: 0x06010074
     6a0:	0000cc18 	andeq	ip, r0, r8, lsl ip
     6a4:	70910200 	addsvc	r0, r1, r0, lsl #4
     6a8:	7562100f 	strbvc	r1, [r2, #-15]!
     6ac:	08010066 	stmdaeq	r1, {r1, r2, r5, r6}
     6b0:	00018311 	andeq	r8, r1, r1, lsl r3
     6b4:	d8030500 	stmdale	r3, {r8, sl}
     6b8:	1100009b 	swpne	r0, fp, [r0]	; <UNPREDICTABLE>
     6bc:	00000201 	andeq	r0, r0, r1, lsl #4
     6c0:	4a0d0901 	bmi	342acc <__bss_end__+0x338aec>
     6c4:	02000000 	andeq	r0, r0, #0, 0
     6c8:	73125c91 	tstvc	r2, #37120	; 0x9100
     6cc:	0c01007a 	stceq	0, cr0, [r1], {122}	; 0x7a
     6d0:	0000560d 	andeq	r5, r0, sp, lsl #12
     6d4:	00020f00 	andeq	r0, r2, r0, lsl #30
     6d8:	00020900 	andeq	r0, r2, r0, lsl #18
     6dc:	82541300 	subshi	r1, r4, #0, 6
     6e0:	01940000 	orrseq	r0, r4, r0
     6e4:	01760000 	cmneq	r6, r0
     6e8:	01140000 	tsteq	r4, r0
     6ec:	00750250 	rsbseq	r0, r5, r0, asr r2
     6f0:	03510114 	cmpeq	r1, #5
     6f4:	1404000a 	strne	r0, [r4], #-10
     6f8:	91035201 	tstls	r3, r1, lsl #4
     6fc:	01140648 	tsteq	r4, r8, asr #12
     700:	4c910253 	lfmmi	f0, 4, [r1], {83}	; 0x53
     704:	82681500 	rsbhi	r1, r8, #0, 10
     708:	01140000 	tsteq	r4, r0
     70c:	00750250 	rsbseq	r0, r5, r0, asr r2
     710:	d2160000 	andsle	r0, r6, #0, 0
     714:	94000000 	strls	r0, [r0], #-0
     718:	17000001 	strne	r0, [r0, -r1]
     71c:	0000005d 	andeq	r0, r0, sp, asr r0
     720:	180003ff 	stmdane	r0, {r0, r1, r2, r3, r4, r5, r6, r7, r8, r9}
     724:	00000206 	andeq	r0, r0, r6, lsl #4
     728:	00000206 	andeq	r0, r0, r6, lsl #4
     72c:	00050205 	andeq	r0, r5, r5, lsl #4
     730:	000000f3 	strdeq	r0, [r0], -r3
     734:	04e70004 	strbteq	r0, [r7], #4
     738:	01040000 	mrseq	r0, (UNDEF: 4)
     73c:	0000021f 	andeq	r0, r0, pc, lsl r2
     740:	0003260c 	andeq	r2, r3, ip, lsl #12
     744:	0002f600 	andeq	pc, r2, r0, lsl #12
     748:	00828400 	addeq	r8, r2, r0, lsl #8
     74c:	00003800 	andeq	r3, r0, r0, lsl #16
     750:	00045900 	andeq	r5, r4, r0, lsl #18
     754:	05040200 	streq	r0, [r4, #-512]	; 0xfffffe00
     758:	00746e69 	rsbseq	r6, r4, r9, ror #28
     75c:	6b070403 	blvs	1c1770 <__bss_end__+0x1b7790>
     760:	03000000 	movweq	r0, #0
     764:	000a0601 	andeq	r0, sl, r1, lsl #12
     768:	02030000 	andeq	r0, r3, #0, 0
     76c:	0000c905 	andeq	ip, r0, r5, lsl #18
     770:	05040300 	streq	r0, [r4, #-768]	; 0xfffffd00
     774:	0000007d 	andeq	r0, r0, sp, ror r0
     778:	78050803 	stmdavc	r5, {r0, r1, fp}
     77c:	03000000 	movweq	r0, #0
     780:	00080801 	andeq	r0, r8, r1, lsl #16
     784:	02030000 	andeq	r0, r3, #0, 0
     788:	00002307 	andeq	r2, r0, r7, lsl #6
     78c:	07040300 	streq	r0, [r4, -r0, lsl #6]
     790:	00000066 	andeq	r0, r0, r6, rrx
     794:	61070803 	tstvs	r7, r3, lsl #16
     798:	04000000 	streq	r0, [r0], #-0
     79c:	00000025 	andeq	r0, r0, r5, lsr #32
     7a0:	0000007a 	andeq	r0, r0, sl, ror r0
     7a4:	00002505 	andeq	r2, r0, r5, lsl #10
     7a8:	86060000 	strhi	r0, [r6], -r0
     7ac:	02000000 	andeq	r0, r0, #0, 0
     7b0:	00860e1c 	addeq	r0, r6, ip, lsl lr
     7b4:	04070000 	streq	r0, [r7], #-0
     7b8:	0000006b 	andeq	r0, r0, fp, rrx
     7bc:	00002504 	andeq	r2, r0, r4, lsl #10
     7c0:	00009b00 	andeq	r9, r0, r0, lsl #22
     7c4:	009b0500 	addseq	r0, fp, r0, lsl #10
     7c8:	07000000 	streq	r0, [r0, -r0]
     7cc:	0000a804 	andeq	sl, r0, r4, lsl #16
     7d0:	08010300 	stmdaeq	r1, {r8, r9}
     7d4:	00000011 	andeq	r0, r0, r1, lsl r0
     7d8:	0000a108 	andeq	sl, r0, r8, lsl #2
     7dc:	03210600 			; <UNDEFINED> instruction: 0x03210600
     7e0:	21020000 	mrscs	r0, (UNDEF: 2)
     7e4:	0000b90e 	andeq	fp, r0, lr, lsl #18
     7e8:	8c040700 	stchi	7, cr0, [r4], {-0}
     7ec:	09000000 	stmdbeq	r0, {}	; <UNPREDICTABLE>
     7f0:	000000ad 	andeq	r0, r0, sp, lsr #1
     7f4:	05070c01 	streq	r0, [r7, #-3073]	; 0xfffff3ff
     7f8:	009bb403 	addseq	fp, fp, r3, lsl #8
     7fc:	03180a00 	tsteq	r8, #0, 20
     800:	04010000 	streq	r0, [r1], #-0
     804:	00002505 	andeq	r2, r0, r5, lsl #10
     808:	00828400 	addeq	r8, r2, r0, lsl #8
     80c:	00003800 	andeq	r3, r0, r0, lsl #16
     810:	0b9c0100 	bleq	fe700c18 <__bss_end__+0xfe6f6c38>
     814:	04010070 	streq	r0, [r1], #-112	; 0xffffff90
     818:	00009b1f 	andeq	r9, r0, pc, lsl fp
     81c:	00024000 	andeq	r4, r2, r0
     820:	00023800 	andeq	r3, r2, r0, lsl #16
     824:	7f000000 	svcvc	0x00000000
     828:	0400000c 	streq	r0, [r0], #-12
     82c:	00058500 	andeq	r8, r5, r0, lsl #10
     830:	1f010400 	svcne	0x00010400
     834:	0c000002 	stceq	0, cr0, [r0], {2}
     838:	00000345 	andeq	r0, r0, r5, asr #6
     83c:	000002f6 	strdeq	r0, [r0], -r6
     840:	000082bc 			; <UNDEFINED> instruction: 0x000082bc
     844:	000009b4 			; <UNDEFINED> instruction: 0x000009b4
     848:	000004fd 	strdeq	r0, [r0], -sp
     84c:	61070802 	tstvs	r7, r2, lsl #16
     850:	02000000 	andeq	r0, r0, #0, 0
     854:	006b0704 	rsbeq	r0, fp, r4, lsl #14
     858:	04030000 	streq	r0, [r3], #-0
     85c:	746e6905 	strbtvc	r6, [lr], #-2309	; 0xfffff6fb
     860:	06010200 	streq	r0, [r1], -r0, lsl #4
     864:	0000000a 	andeq	r0, r0, sl
     868:	c9050202 	stmdbgt	r5, {r1, r9}
     86c:	02000000 	andeq	r0, r0, #0, 0
     870:	007d0504 	rsbseq	r0, sp, r4, lsl #10
     874:	08020000 	stmdaeq	r2, {}	; <UNPREDICTABLE>
     878:	00007805 	andeq	r7, r0, r5, lsl #16
     87c:	08010200 	stmdaeq	r1, {r9}
     880:	00000008 	andeq	r0, r0, r8
     884:	23070202 	movwcs	r0, #29186	; 0x7202
     888:	04000000 	streq	r0, [r0], #-0
     88c:	000003ab 	andeq	r0, r0, fp, lsr #7
     890:	70193402 	andsvc	r3, r9, r2, lsl #8
     894:	02000000 	andeq	r0, r0, #0, 0
     898:	00660704 	rsbeq	r0, r6, r4, lsl #14
     89c:	3c040000 	stccc	0, cr0, [r4], {-0}
     8a0:	02000003 	andeq	r0, r0, #3, 0
     8a4:	00251937 	eoreq	r1, r5, r7, lsr r9
     8a8:	33050000 	movwcc	r0, #20480	; 0x5000
     8ac:	92000000 	andls	r0, r0, #0, 0
     8b0:	06000000 	streq	r0, [r0], -r0
     8b4:	00000033 	andeq	r0, r0, r3, lsr r0
     8b8:	00860700 	addeq	r0, r6, r0, lsl #14
     8bc:	1c030000 	stcne	0, cr0, [r3], {-0}
     8c0:	00009e0e 	andeq	r9, r0, lr, lsl #28
     8c4:	83040800 	movwhi	r0, #18432	; 0x4800
     8c8:	05000000 	streq	r0, [r0, #-0]
     8cc:	00000033 	andeq	r0, r0, r3, lsr r0
     8d0:	000000b3 	strheq	r0, [r0], -r3
     8d4:	0000b306 	andeq	fp, r0, r6, lsl #6
     8d8:	04080000 	streq	r0, [r8], #-0
     8dc:	000000c0 	andeq	r0, r0, r0, asr #1
     8e0:	11080102 	tstne	r8, r2, lsl #2
     8e4:	09000000 	stmdbeq	r0, {}	; <UNPREDICTABLE>
     8e8:	000000b9 	strheq	r0, [r0], -r9
     8ec:	00032107 	andeq	r2, r3, r7, lsl #2
     8f0:	0e210300 	cdpeq	3, 2, cr0, cr1, cr0, {0}
     8f4:	000000d1 	ldrdeq	r0, [r0], -r1
     8f8:	00a40408 	adceq	r0, r4, r8, lsl #8
     8fc:	58070000 	stmdapl	r7, {}	; <UNPREDICTABLE>
     900:	04000003 	streq	r0, [r0], #-3
     904:	00b90d0b 	adcseq	r0, r9, fp, lsl #26
     908:	e1070000 	mrs	r0, (UNDEF: 7)
     90c:	04000003 	streq	r0, [r0], #-3
     910:	00b90d0c 	adcseq	r0, r9, ip, lsl #26
     914:	67070000 	strvs	r0, [r7, -r0]
     918:	04000003 	streq	r0, [r0], #-3
     91c:	00b90d0d 	adcseq	r0, r9, sp, lsl #26
     920:	90070000 	andls	r0, r7, r0
     924:	04000003 	streq	r0, [r0], #-3
     928:	00b90d0e 	adcseq	r0, r9, lr, lsl #26
     92c:	0a070000 	beq	1c0934 <__bss_end__+0x1b6954>
     930:	04000004 	streq	r0, [r0], #-4
     934:	00b90d0f 	adcseq	r0, r9, pc, lsl #26
     938:	7b070000 	blvc	1c0940 <__bss_end__+0x1b6960>
     93c:	04000003 	streq	r0, [r0], #-3
     940:	00b90d10 	adcseq	r0, r9, r0, lsl sp
     944:	19070000 	stmdbne	r7, {}	; <UNPREDICTABLE>
     948:	04000004 	streq	r0, [r0], #-4
     94c:	00b90d11 	adcseq	r0, r9, r1, lsl sp
     950:	9c070000 	stcls	0, cr0, [r7], {-0}
     954:	04000003 	streq	r0, [r0], #-3
     958:	00b90d12 	adcseq	r0, r9, r2, lsl sp
     95c:	10040000 	andne	r0, r4, r0
     960:	05000002 	streq	r0, [r0, #-2]
     964:	01431b28 	cmpeq	r3, r8, lsr #22
     968:	ec0a0000 	stc	0, cr0, [sl], {-0}
     96c:	04000002 	streq	r0, [r0], #-2
     970:	015a0006 	cmpeq	sl, r6
     974:	d70b0000 	strle	r0, [fp, -r0]
     978:	5a000002 	bpl	988 <__code_start__-0x7678>
     97c:	00000001 	andeq	r0, r0, r1
     980:	04040c00 	streq	r0, [r4], #-3072	; 0xfffff400
     984:	000002ee 	andeq	r0, r0, lr, ror #5
     988:	37186305 	ldrcc	r6, [r8, -r5, lsl #6]
     98c:	0d000001 	stceq	0, cr0, [r0, #-4]
     990:	00000206 	andeq	r0, r0, r6, lsl #4
     994:	33058101 	movwcc	r8, #20737	; 0x5101
     998:	44000000 	strmi	r0, [r0], #-0
     99c:	2c000086 	stccs	0, cr0, [r0], {134}	; 0x86
     9a0:	01000006 	tsteq	r0, r6
     9a4:	00086a9c 	muleq	r8, ip, sl
     9a8:	75620e00 	strbvc	r0, [r2, #-3584]!	; 0xfffff200
     9ac:	81010066 	tsthi	r1, r6, rrx
     9b0:	00086a15 	andeq	r6, r8, r5, lsl sl
     9b4:	00028000 	andeq	r8, r2, r0
     9b8:	00027600 	andeq	r7, r2, r0, lsl #12
     9bc:	006e0e00 	rsbeq	r0, lr, r0, lsl #28
     9c0:	331e8101 	tstcc	lr, #1073741824	; 0x40000000
     9c4:	cd000000 	stcgt	0, cr0, [r0, #-0]
     9c8:	c5000002 	strgt	r0, [r0, #-2]
     9cc:	0e000002 	cdpeq	0, 0, cr0, cr0, cr2, {0}
     9d0:	00746d66 	rsbseq	r6, r4, r6, ror #26
     9d4:	b32d8101 			; <UNDEFINED> instruction: 0xb32d8101
     9d8:	1f000000 	svcne	0x00000000
     9dc:	07000003 	streq	r0, [r0, -r3]
     9e0:	0f000003 	svceq	0x00000003
     9e4:	00000201 	andeq	r0, r0, r1, lsl #4
     9e8:	5c3a8101 	ldfpld	f0, [sl], #-4
     9ec:	e1000001 	tst	r0, r1
     9f0:	b3000003 	movwlt	r0, #3
     9f4:	10000003 	andne	r0, r0, r3
     9f8:	82010070 	andhi	r0, r1, #112, 0	; 0x70
     9fc:	00086a08 	andeq	r6, r8, r8, lsl #20
     a00:	00053400 	andeq	r3, r5, r0, lsl #8
     a04:	00051e00 	andeq	r1, r5, r0, lsl #28
     a08:	00651000 	rsbeq	r1, r5, r0
     a0c:	6a128201 	bvs	4a1218 <__bss_end__+0x497238>
     a10:	bd000008 	stclt	0, cr0, [r0, #-32]	; 0xffffffe0
     a14:	bb000005 	bllt	a30 <__code_start__-0x75d0>
     a18:	10000005 	andne	r0, r0, r5
     a1c:	01003078 	tsteq	r0, r8, ror r0
     a20:	00640e83 	rsbeq	r0, r4, r3, lsl #29
     a24:	05d60000 	ldrbeq	r0, [r6]
     a28:	05d00000 	ldrbeq	r0, [r0]
     a2c:	78100000 	ldmdavc	r0, {}	; <UNPREDICTABLE>
     a30:	83010031 	movwhi	r0, #4145	; 0x1031
     a34:	00006411 	andeq	r6, r0, r1, lsl r4
     a38:	00060500 	andeq	r0, r6, r0, lsl #10
     a3c:	0005ff00 	andeq	pc, r5, r0, lsl #30
     a40:	03c31100 	biceq	r1, r3, #0
     a44:	86010000 	strhi	r0, [r1], -r0
     a48:	0000b311 	andeq	fp, r0, r1, lsl r3
     a4c:	00063600 	andeq	r3, r6, r0, lsl #12
     a50:	00062e00 	andeq	r2, r6, r0, lsl #28
     a54:	003d1200 	eorseq	r1, sp, r0, lsl #4
     a58:	08800000 	stmeq	r0, {}	; <UNPREDICTABLE>
     a5c:	03050000 	movweq	r0, #20480	; 0x5000
     a60:	000099a0 	andeq	r9, r0, r0, lsr #19
     a64:	00006813 	andeq	r6, r0, r3, lsl r8
     a68:	00731000 	rsbseq	r1, r3, r0
     a6c:	6a0a9101 	bvs	2a4e78 <__bss_end__+0x29ae98>
     a70:	7c000008 	stcvc	0, cr0, [r0], {8}
     a74:	70000006 	andvc	r0, r0, r6
     a78:	14000006 	strne	r0, [r0], #-6
     a7c:	006d756e 	rsbeq	r7, sp, lr, ror #10
     a80:	850d9101 	strhi	r9, [sp, #-257]	; 0xfffffeff
     a84:	03000008 	movweq	r0, #8
     a88:	157dd891 	ldrbne	sp, [sp, #-2193]!	; 0xfffff76f
     a8c:	00000426 	andeq	r0, r0, r6, lsr #8
     a90:	85179101 	ldrhi	r9, [r7, #-257]	; 0xfffffeff
     a94:	03000008 	movweq	r0, #8
     a98:	117ed891 			; <UNDEFINED> instruction: 0x117ed891
     a9c:	00000375 	andeq	r0, r0, r5, ror r3
     aa0:	2c0d9201 	sfmcs	f1, 1, [sp], {1}
     aa4:	ce000000 	cdpgt	0, 0, cr0, cr0, cr0, {0}
     aa8:	c6000006 	strgt	r0, [r0], -r6
     aac:	16000006 	strne	r0, [r0], -r6
     ab0:	00000090 	muleq	r0, r0, r0
     ab4:	000004f1 	strdeq	r0, [r0], -r1
     ab8:	00797410 	rsbseq	r7, r9, r0, lsl r4
     abc:	b31d9e01 	tstlt	sp, #1, 28
     ac0:	0f000000 	svceq	0x00000000
     ac4:	03000007 	movweq	r0, #7
     ac8:	14000007 	strne	r0, [r0], #-7
     acc:	01007878 	tsteq	r0, r8, ror r8
     ad0:	00771aa2 	rsbseq	r1, r7, r2, lsr #21
     ad4:	59060000 	stmdbpl	r6, {}	; <UNPREDICTABLE>
     ad8:	935b0493 	cmpls	fp, #-1828716544	; 0x93000000
     adc:	87d01704 	ldrbhi	r1, [r0, r4, lsl #14]
     ae0:	0c3a0000 	ldceq	0, cr0, [sl], #-0
     ae4:	02d80000 	sbcseq	r0, r8, #0, 0
     ae8:	01180000 	tsteq	r8, r0
     aec:	00760250 	rsbseq	r0, r6, r0, asr r2
     af0:	05510118 	ldrbeq	r0, [r1, #-280]	; 0xfffffee8
     af4:	00989403 	addseq	r9, r8, r3, lsl #8
     af8:	52011800 	andpl	r1, r1, #0, 16
     afc:	17003301 	strne	r3, [r0, -r1, lsl #6]
     b00:	000087e8 	andeq	r8, r0, r8, ror #15
     b04:	00000c3a 	andeq	r0, r0, sl, lsr ip
     b08:	000002fa 	strdeq	r0, [r0], -sl
     b0c:	02500118 	subseq	r0, r0, #6
     b10:	01180076 	tsteq	r8, r6, ror r0
     b14:	a8030551 	stmdage	r3, {r0, r4, r6, r8, sl}
     b18:	18000098 	stmdane	r0, {r3, r4, r7}
     b1c:	33015201 	movwcc	r5, #4609	; 0x1201
     b20:	880c1700 	stmdahi	ip, {r8, r9, sl, ip}
     b24:	0c460000 	mareq	acc0, r0, r6
     b28:	03170000 	tsteq	r7, #0, 0
     b2c:	01180000 	tsteq	r8, r0
     b30:	98030550 	stmdals	r3, {r4, r6, r8, sl}
     b34:	18000098 	stmdane	r0, {r3, r4, r7}
     b38:	7b025101 	blvc	94f44 <__bss_end__+0x8af64>
     b3c:	18170000 	ldmdane	r7, {}	; <UNPREDICTABLE>
     b40:	46000088 	strmi	r0, [r0], -r8, lsl #1
     b44:	3400000c 	strcc	r0, [r0], #-12
     b48:	18000003 	stmdane	r0, {r0, r1}
     b4c:	03055001 	movweq	r5, #20481	; 0x5001
     b50:	000098a0 	andeq	r9, r0, r0, lsr #17
     b54:	02510118 	subseq	r0, r1, #6
     b58:	17000079 	smlsdxne	r0, r9, r0, r0
     b5c:	00008828 	andeq	r8, r0, r8, lsr #16
     b60:	00000c3a 	andeq	r0, r0, sl, lsr ip
     b64:	00000356 	andeq	r0, r0, r6, asr r3
     b68:	02500118 	subseq	r0, r0, #6
     b6c:	01180076 	tsteq	r8, r6, ror r0
     b70:	94030551 	strls	r0, [r3], #-1361	; 0xfffffaaf
     b74:	18000098 	stmdane	r0, {r3, r4, r7}
     b78:	33015201 	movwcc	r5, #4609	; 0x1201
     b7c:	88581700 	ldmdahi	r8, {r8, r9, sl, ip}^
     b80:	0aa40000 	beq	fe900b88 <__bss_end__+0xfe8f6ba8>
     b84:	03830000 	orreq	r0, r3, #0, 0
     b88:	01180000 	tsteq	r8, r0
     b8c:	18400150 	stmdane	r0, {r4, r6, r8}^
     b90:	91035101 	tstls	r3, r1, lsl #2
     b94:	01187dd0 			; <UNDEFINED> instruction: 0x01187dd0
     b98:	007b0252 	rsbseq	r0, fp, r2, asr r2
     b9c:	02530118 	subseq	r0, r3, #6
     ba0:	02180075 	andseq	r0, r8, #117, 0	; 0x75
     ba4:	7602007d 			; <UNDEFINED> instruction: 0x7602007d
     ba8:	78170000 	ldmdavc	r7, {}	; <UNPREDICTABLE>
     bac:	a4000088 	strge	r0, [r0], #-136	; 0xffffff78
     bb0:	aa00000a 	bge	be0 <__code_start__-0x7420>
     bb4:	18000003 	stmdane	r0, {r0, r1}
     bb8:	40015001 	andmi	r5, r1, r1
     bbc:	03510118 	cmpeq	r1, #6
     bc0:	187ed091 	ldmdane	lr!, {r0, r4, r7, ip, lr, pc}^
     bc4:	79025201 	stmdbvc	r2, {r0, r9, ip, lr}
     bc8:	7d021800 	stcvc	8, cr1, [r2, #-0]
     bcc:	00760200 	rsbseq	r0, r6, r0, lsl #4
     bd0:	88881700 	stmhi	r8, {r8, r9, sl, ip}
     bd4:	0c520000 	mraeq	r0, r2, acc0
     bd8:	03c60000 	biceq	r0, r6, #0, 0
     bdc:	01180000 	tsteq	r8, r0
     be0:	d0910350 	addsle	r0, r1, r0, asr r3
     be4:	5101187d 	tstpl	r1, sp, ror r8
     be8:	7ed29103 	atnvcs	f1, f3
     bec:	8acc1700 	bhi	ff3067f4 <__bss_end__+0xff2fc814>
     bf0:	0c3a0000 	ldceq	0, cr0, [sl], #-0
     bf4:	03e80000 	mvneq	r0, #0, 0
     bf8:	01180000 	tsteq	r8, r0
     bfc:	00760250 	rsbseq	r0, r6, r0, asr r2
     c00:	05510118 	ldrbeq	r0, [r1, #-280]	; 0xfffffee8
     c04:	0098a803 	addseq	sl, r8, r3, lsl #16
     c08:	52011800 	andpl	r1, r1, #0, 16
     c0c:	17003301 	strne	r3, [r0, -r1, lsl #6]
     c10:	00008af0 	strdeq	r8, [r0], -r0
     c14:	00000aa4 	andeq	r0, r0, r4, lsr #21
     c18:	00000415 	andeq	r0, r0, r5, lsl r4
     c1c:	01500118 	cmpeq	r0, r8, lsl r1
     c20:	5101183a 	tstpl	r1, sl, lsr r8
     c24:	7dd09103 	ldfvcp	f1, [r0, #12]
     c28:	02520118 	subseq	r0, r2, #6
     c2c:	0118007b 	tsteq	r8, fp, ror r0
     c30:	00750253 	rsbseq	r0, r5, r3, asr r2
     c34:	007d0218 	rsbseq	r0, sp, r8, lsl r2
     c38:	00007602 	andeq	r7, r0, r2, lsl #12
     c3c:	008b1017 	addeq	r1, fp, r7, lsl r0
     c40:	000aa400 	andeq	sl, sl, r0, lsl #8
     c44:	00043c00 	andeq	r3, r4, r0, lsl #24
     c48:	50011800 	andpl	r1, r1, r0, lsl #16
     c4c:	01183a01 	tsteq	r8, r1, lsl #20
     c50:	d0910351 	addsle	r0, r1, r1, asr r3
     c54:	5201187e 	andpl	r1, r1, #8257536	; 0x7e0000
     c58:	18007902 	stmdane	r0, {r1, r8, fp, ip, sp, lr}
     c5c:	02007d02 	andeq	r7, r0, #128	; 0x80
     c60:	17000076 	smlsdxne	r0, r6, r0, r0
     c64:	00008b1c 	andeq	r8, r0, ip, lsl fp
     c68:	00000c5e 	andeq	r0, r0, lr, asr ip
     c6c:	0000045a 	andeq	r0, r0, sl, asr r4
     c70:	03500118 	cmpeq	r0, #6
     c74:	187dd091 	ldmdane	sp!, {r0, r4, r7, ip, lr, pc}^
     c78:	03055101 	movweq	r5, #20737	; 0x5101
     c7c:	00009858 	andeq	r9, r0, r8, asr r8
     c80:	8b301700 	blhi	c06888 <__bss_end__+0xbfc8a8>
     c84:	0c6a0000 	stcleq	0, cr0, [sl], #-0
     c88:	04760000 	ldrbteq	r0, [r6], #-0
     c8c:	01180000 	tsteq	r8, r0
     c90:	d0910350 	addsle	r0, r1, r0, asr r3
     c94:	5101187d 	tstpl	r1, sp, ror r8
     c98:	7ed09103 	atnvcs	f1, f3
     c9c:	8b3c1900 	blhi	f070a4 <__bss_end__+0xefd0c4>
     ca0:	0c520000 	mraeq	r0, r2, acc0
     ca4:	00170000 	andseq	r0, r7, r0
     ca8:	4600008c 	strmi	r0, [r0], -ip, lsl #1
     cac:	a800000c 	stmdage	r0, {r2, r3}
     cb0:	18000004 	stmdane	r0, {r2}
     cb4:	03055001 	movweq	r5, #20481	; 0x5001
     cb8:	00009844 	andeq	r9, r0, r4, asr #16
     cbc:	05510118 	ldrbeq	r0, [r1, #-280]	; 0xfffffee8
     cc0:	00983003 	addseq	r3, r8, r3
     cc4:	52011800 	andpl	r1, r1, #0, 16
     cc8:	99a00305 	stmibls	r0!, {r0, r2, r8, r9}
     ccc:	19000000 	stmdbne	r0, {}	; <UNPREDICTABLE>
     cd0:	00008c04 	andeq	r8, r0, r4, lsl #24
     cd4:	00000c76 	andeq	r0, r0, r6, ror ip
     cd8:	008c1c17 	addeq	r1, ip, r7, lsl ip
     cdc:	000c4600 	andeq	r4, ip, r0, lsl #12
     ce0:	0004e700 	andeq	lr, r4, r0, lsl #14
     ce4:	50011800 	andpl	r1, r1, r0, lsl #16
     ce8:	98e80305 	stmials	r8!, {r0, r2, r8, r9}^
     cec:	01180000 	tsteq	r8, r0
     cf0:	30030551 	andcc	r0, r3, r1, asr r5
     cf4:	18000098 	stmdane	r0, {r3, r4, r7}
     cf8:	03055201 	movweq	r5, #20993	; 0x5201
     cfc:	000099a0 	andeq	r9, r0, r0, lsr #19
     d00:	02530118 	subseq	r0, r3, #6
     d04:	0218b608 	andseq	fp, r8, #8, 12	; 0x800000
     d08:	7602007d 			; <UNDEFINED> instruction: 0x7602007d
     d0c:	20190000 	andscs	r0, r9, r0
     d10:	7600008c 	strvc	r0, [r0], -ip, lsl #1
     d14:	0000000c 	andeq	r0, r0, ip
     d18:	0009e31a 	andeq	lr, r9, sl, lsl r3
     d1c:	0086d000 	addeq	sp, r6, r0
     d20:	b8000400 	stmdalt	r0, {sl}
     d24:	01000000 	mrseq	r0, (UNDEF: 0)
     d28:	05150a94 	ldreq	r0, [r5, #-2708]	; 0xfffff56c
     d2c:	f41b0000 			; <UNDEFINED> instruction: 0xf41b0000
     d30:	6b000009 	blvs	d5c <__code_start__-0x72a4>
     d34:	67000007 	strvs	r0, [r0, -r7]
     d38:	00000007 	andeq	r0, r0, r7
     d3c:	0008951a 	andeq	r9, r8, sl, lsl r5
     d40:	0088b800 	addeq	fp, r8, r0, lsl #16
     d44:	d8000100 	stmdale	r0, {r8}
     d48:	01000000 	mrseq	r0, (UNDEF: 0)
     d4c:	064b09dc 			; <UNDEFINED> instruction: 0x064b09dc
     d50:	be1b0000 	cdplt	0, 1, cr0, cr11, cr0, {0}
     d54:	99000008 	stmdbls	r0, {r3}
     d58:	93000007 	movwls	r0, #7
     d5c:	1b000007 	blne	d80 <__code_start__-0x7280>
     d60:	000008e0 	andeq	r0, r0, r0, ror #17
     d64:	000007ce 	andeq	r0, r0, lr, asr #15
     d68:	000007c8 	andeq	r0, r0, r8, asr #15
     d6c:	0008d41b 	andeq	sp, r8, fp, lsl r4
     d70:	00080000 	andeq	r0, r8, r0
     d74:	0007fa00 	andeq	pc, r7, r0, lsl #20
     d78:	08c81c00 	stmiaeq	r8, {sl, fp, ip}^
     d7c:	b21b0000 	andslt	r0, fp, #0, 0
     d80:	31000008 	tstcc	r0, r8
     d84:	29000008 	stmdbcs	r0, {r3}
     d88:	1b000008 	blne	db0 <__code_start__-0x7250>
     d8c:	000008a6 	andeq	r0, r0, r6, lsr #17
     d90:	00000874 	andeq	r0, r0, r4, ror r8
     d94:	0000086e 	andeq	r0, r0, lr, ror #16
     d98:	0000d813 	andeq	sp, r0, r3, lsl r8
     d9c:	08ec1d00 	stmiaeq	ip!, {r8, sl, fp, ip}^
     da0:	91030000 	mrsls	r0, (UNDEF: 3)
     da4:	f81e7ed8 			; <UNDEFINED> instruction: 0xf81e7ed8
     da8:	ae000008 	cdpge	0, 0, cr0, cr0, cr8, {0}
     dac:	a0000008 	andge	r0, r0, r8
     db0:	1f000008 	svcne	0x00000008
     db4:	00000902 	andeq	r0, r0, r2, lsl #18
     db8:	0009a31a 	andeq	sl, r9, sl, lsl r3
     dbc:	0088c400 	addeq	ip, r8, r0, lsl #8
     dc0:	08000400 	stmdaeq	r0, {sl}
     dc4:	01000001 	tsteq	r0, r1
     dc8:	05e2097c 	strbeq	r0, [r2, #2428]!	; 0x97c
     dcc:	ca1b0000 	bgt	6c0dd4 <__bss_end__+0x6b6df4>
     dd0:	18000009 	stmdane	r0, {r0, r3}
     dd4:	12000009 	andne	r0, r0, #9, 0
     dd8:	1b000009 	blne	e04 <__code_start__-0x71fc>
     ddc:	000009be 			; <UNDEFINED> instruction: 0x000009be
     de0:	0000094d 	andeq	r0, r0, sp, asr #18
     de4:	00000941 	andeq	r0, r0, r1, asr #18
     de8:	0009b41b 	andeq	fp, r9, fp, lsl r4
     dec:	0009b300 	andeq	fp, r9, r0, lsl #6
     df0:	0009a300 	andeq	sl, r9, r0, lsl #6
     df4:	01081300 	mrseq	r1, (UNDEF: 56)
     df8:	d61e0000 	ldrle	r0, [lr], -r0
     dfc:	30000009 	andcc	r0, r0, r9
     e00:	2200000a 	andcs	r0, r0, #10, 0
     e04:	0000000a 	andeq	r0, r0, sl
     e08:	094f2000 	stmdbeq	pc, {sp}^	; <UNPREDICTABLE>
     e0c:	898c0000 	stmibhi	ip, {}	; <UNPREDICTABLE>
     e10:	00020000 	andeq	r0, r2, r0
     e14:	00000138 	andeq	r0, r0, r8, lsr r1
     e18:	1b097c01 	blne	25fe24 <__bss_end__+0x255e44>
     e1c:	00000980 	andeq	r0, r0, r0, lsl #19
     e20:	00000a90 	muleq	r0, r0, sl
     e24:	00000a8a 	andeq	r0, r0, sl, lsl #21
     e28:	0009761b 	andeq	r7, r9, fp, lsl r6
     e2c:	000ac600 	andeq	ip, sl, r0, lsl #12
     e30:	000abc00 	andeq	fp, sl, r0, lsl #24
     e34:	096c1b00 	stmdbeq	ip!, {r8, r9, fp, ip}^
     e38:	0b150000 	bleq	540e40 <__bss_end__+0x536e60>
     e3c:	0b110000 	bleq	440e44 <__bss_end__+0x436e64>
     e40:	601b0000 	andsvs	r0, fp, r0
     e44:	45000009 	strmi	r0, [r0, #-9]
     e48:	3700000b 	strcc	r0, [r0, -fp]
     e4c:	1300000b 	movwne	r0, #11
     e50:	00000138 	andeq	r0, r0, r8, lsr r1
     e54:	00098c1e 	andeq	r8, r9, lr, lsl ip
     e58:	000baa00 	andeq	sl, fp, r0, lsl #20
     e5c:	000ba800 	andeq	sl, fp, r0, lsl #16
     e60:	09981e00 	ldmibeq	r8, {r9, sl, fp, ip}
     e64:	0bc40000 	bleq	ff100e6c <__bss_end__+0xff0f6e8c>
     e68:	0bbe0000 	bleq	fef80e70 <__bss_end__+0xfef76e90>
     e6c:	00000000 	andeq	r0, r0, r0
     e70:	951a0000 	ldrls	r0, [sl, #-0]
     e74:	c8000008 	stmdagt	r0, {r3}
     e78:	00000089 	andeq	r0, r0, r9, lsl #1
     e7c:	00016800 	andeq	r6, r1, r0, lsl #16
     e80:	09d60100 	ldmibeq	r6, {r8}^
     e84:	00000789 	andeq	r0, r0, r9, lsl #15
     e88:	0008be1b 	andeq	fp, r8, fp, lsl lr
     e8c:	000bf700 	andeq	pc, fp, r0, lsl #14
     e90:	000bf300 	andeq	pc, fp, r0, lsl #6
     e94:	08e01b00 	stmiaeq	r0!, {r8, r9, fp, ip}^
     e98:	0c1d0000 	ldceq	0, cr0, [sp], {-0}
     e9c:	0c190000 	ldceq	0, cr0, [r9], {-0}
     ea0:	d41b0000 	ldrle	r0, [fp], #-0
     ea4:	41000008 	tstmi	r0, r8
     ea8:	3d00000c 	stccc	0, cr0, [r0, #-48]	; 0xffffffd0
     eac:	1c00000c 	stcne	0, cr0, [r0], {12}
     eb0:	000008c8 	andeq	r0, r0, r8, asr #17
     eb4:	0008b21b 	andeq	fp, r8, fp, lsl r2
     eb8:	000c6500 	andeq	r6, ip, r0, lsl #10
     ebc:	000c5f00 	andeq	r5, ip, r0, lsl #30
     ec0:	08a61b00 	stmiaeq	r6!, {r8, r9, fp, ip}
     ec4:	0c980000 	ldceq	0, cr0, [r8], {0}
     ec8:	0c940000 	ldceq	0, cr0, [r4], {0}
     ecc:	68130000 	ldmdavs	r3, {}	; <UNPREDICTABLE>
     ed0:	1d000001 	stcne	0, cr0, [r0, #-4]
     ed4:	000008ec 	andeq	r0, r0, ip, ror #17
     ed8:	7ed89103 	atnvce	f1, f3
     edc:	0008f81e 	andeq	pc, r8, lr, lsl r8	; <UNPREDICTABLE>
     ee0:	000cc200 	andeq	ip, ip, r0, lsl #4
     ee4:	000cb800 	andeq	fp, ip, r0, lsl #16
     ee8:	09021e00 	stmdbeq	r2, {r9, sl, fp, ip}
     eec:	0d070000 	stceq	0, cr0, [r7, #-0]
     ef0:	0d030000 	stceq	0, cr0, [r3, #-0]
     ef4:	a31a0000 	tstge	sl, #0, 0
     ef8:	e4000009 	str	r0, [r0], #-9
     efc:	03000089 	movweq	r0, #137	; 0x89
     f00:	00018800 	andeq	r8, r1, r0, lsl #16
     f04:	097c0100 	ldmdbeq	ip!, {r8}^
     f08:	00000720 	andeq	r0, r0, r0, lsr #14
     f0c:	0009ca1b 	andeq	ip, r9, fp, lsl sl
     f10:	000d2900 	andeq	r2, sp, r0, lsl #18
     f14:	000d2500 	andeq	r2, sp, r0, lsl #10
     f18:	09be1b00 	ldmibeq	lr!, {r8, r9, fp, ip}
     f1c:	0d4b0000 	stcleq	0, cr0, [fp, #-0]
     f20:	0d470000 	stcleq	0, cr0, [r7, #-0]
     f24:	b41b0000 	ldrlt	r0, [fp], #-0
     f28:	75000009 	strvc	r0, [r0, #-9]
     f2c:	6900000d 	stmdbvs	r0, {r0, r2, r3}
     f30:	1300000d 	movwne	r0, #13
     f34:	00000188 	andeq	r0, r0, r8, lsl #3
     f38:	0009d61e 	andeq	sp, r9, lr, lsl r6
     f3c:	000dd100 	andeq	sp, sp, r0, lsl #2
     f40:	000dc500 	andeq	ip, sp, r0, lsl #10
     f44:	20000000 	andcs	r0, r0, r0
     f48:	0000094f 	andeq	r0, r0, pc, asr #18
     f4c:	00008a6c 	andeq	r8, r0, ip, ror #20
     f50:	01b00002 	movseq	r0, r2
     f54:	7c010000 	stcvc	0, cr0, [r1], {-0}
     f58:	09801b09 	stmibeq	r0, {r0, r3, r8, r9, fp, ip}
     f5c:	0e210000 	cdpeq	0, 2, cr0, cr1, cr0, {0}
     f60:	0e1d0000 	cdpeq	0, 1, cr0, cr13, cr0, {0}
     f64:	761b0000 	ldrvc	r0, [fp], -r0
     f68:	49000009 	stmdbmi	r0, {r0, r3}
     f6c:	3f00000e 	svccc	0x0000000e
     f70:	1b00000e 	blne	fb0 <__code_start__-0x7050>
     f74:	0000096c 	andeq	r0, r0, ip, ror #18
     f78:	00000e95 	muleq	r0, r5, lr
     f7c:	00000e91 	muleq	r0, r1, lr
     f80:	0009601b 	andeq	r6, r9, fp, lsl r0
     f84:	000ec300 	andeq	ip, lr, r0, lsl #6
     f88:	000eb700 	andeq	fp, lr, r0, lsl #14
     f8c:	01b01300 	lslseq	r1, r0, #6
     f90:	8c1e0000 	ldchi	0, cr0, [lr], {-0}
     f94:	1d000009 	stcne	0, cr0, [r0, #-36]	; 0xffffffdc
     f98:	1900000f 	stmdbne	r0, {r0, r1, r2, r3}
     f9c:	1e00000f 	cdpne	0, 0, cr0, cr0, cr15, {0}
     fa0:	00000998 	muleq	r0, r8, r9
     fa4:	00000f43 	andeq	r0, r0, r3, asr #30
     fa8:	00000f3f 	andeq	r0, r0, pc, lsr pc
     fac:	00000000 	andeq	r0, r0, r0
     fb0:	00879817 	addeq	r9, r7, r7, lsl r8
     fb4:	000aa400 	andeq	sl, sl, r0, lsl #8
     fb8:	0007af00 	andeq	sl, r7, r0, lsl #30
     fbc:	50011800 	andpl	r1, r1, r0, lsl #16
     fc0:	01184001 	tsteq	r8, r1
     fc4:	d0910351 	addsle	r0, r1, r1, asr r3
     fc8:	5301187d 	movwpl	r1, #6269	; 0x187d
     fcc:	18007502 	stmdane	r0, {r1, r8, sl, ip, sp, lr}
     fd0:	01007d02 	tsteq	r0, r2, lsl #26
     fd4:	a8170030 	ldmdage	r7, {r4, r5}
     fd8:	a4000088 	strge	r0, [r0], #-136	; 0xffffff78
     fdc:	cf00000a 	svcgt	0x0000000a
     fe0:	18000007 	stmdane	r0, {r0, r1, r2}
     fe4:	3a015001 	bcc	54ff0 <__bss_end__+0x4b010>
     fe8:	03510118 	cmpeq	r1, #6
     fec:	187dd091 	ldmdane	sp!, {r0, r4, r7, ip, lr, pc}^
     ff0:	75025301 	strvc	r5, [r2, #-769]	; 0xfffffcff
     ff4:	8c170000 	ldchi	0, cr0, [r7], {-0}
     ff8:	4600008b 	strmi	r0, [r0], -fp, lsl #1
     ffc:	e600000c 	str	r0, [r0], -ip
    1000:	18000007 	stmdane	r0, {r0, r1, r2}
    1004:	03055001 	movweq	r5, #20481	; 0x5001
    1008:	00009938 	andeq	r9, r0, r8, lsr r9
    100c:	8b9c2100 	blhi	fe709414 <__bss_end__+0xfe6ff434>
    1010:	07f80000 	ldrbeq	r0, [r8, r0]!
    1014:	01180000 	tsteq	r8, r0
    1018:	c8910450 	ldmgt	r1, {r4, r6, sl}
    101c:	1700067d 	smlsdxne	r0, sp, r6, r0
    1020:	00008bb0 			; <UNDEFINED> instruction: 0x00008bb0
    1024:	00000c46 	andeq	r0, r0, r6, asr #24
    1028:	00000827 	andeq	r0, r0, r7, lsr #16
    102c:	05500118 	ldrbeq	r0, [r0, #-280]	; 0xfffffee8
    1030:	00996803 	addseq	r6, r9, r3, lsl #16
    1034:	51011800 	tstpl	r1, r0, lsl #16
    1038:	98300305 	ldmdals	r0!, {r0, r2, r8, r9}
    103c:	01180000 	tsteq	r8, r0
    1040:	a0030552 	andge	r0, r3, r2, asr r5
    1044:	18000099 	stmdane	r0, {r0, r3, r4, r7}
    1048:	08025301 	stmdaeq	r2, {r0, r8, r9, ip, lr}
    104c:	b41900e2 	ldrlt	r0, [r9], #-226	; 0xffffff1e
    1050:	7600008b 	strvc	r0, [r0], -fp, lsl #1
    1054:	1700000c 	strne	r0, [r0, -ip]
    1058:	00008bc8 	andeq	r8, r0, r8, asr #23
    105c:	00000c46 	andeq	r0, r0, r6, asr #24
    1060:	0000085f 	andeq	r0, r0, pc, asr r8
    1064:	05500118 	ldrbeq	r0, [r0, #-280]	; 0xfffffee8
    1068:	00991003 	addseq	r1, r9, r3
    106c:	51011800 	tstpl	r1, r0, lsl #16
    1070:	98300305 	ldmdals	r0!, {r0, r2, r8, r9}
    1074:	01180000 	tsteq	r8, r0
    1078:	a0030552 	andge	r0, r3, r2, asr r5
    107c:	18000099 	stmdane	r0, {r0, r3, r4, r7}
    1080:	08025301 	stmdaeq	r2, {r0, r8, r9, ip, lr}
    1084:	cc1900be 	ldcgt	0, cr0, [r9], {190}	; 0xbe
    1088:	7600008b 	strvc	r0, [r0], -fp, lsl #1
    108c:	0000000c 	andeq	r0, r0, ip
    1090:	b9040800 	stmdblt	r4, {fp}
    1094:	22000000 	andcs	r0, r0, #0, 0
    1098:	000000c0 	andeq	r0, r0, r0, asr #1
    109c:	00000880 	andeq	r0, r0, r0, lsl #17
    10a0:	00002c23 	andeq	r2, r0, r3, lsr #24
    10a4:	09000900 	stmdbeq	r0, {r8, fp}
    10a8:	00000870 	andeq	r0, r0, r0, ror r8
    10ac:	0000b922 	andeq	fp, r0, r2, lsr #18
    10b0:	00089500 	andeq	r9, r8, r0, lsl #10
    10b4:	002c2300 	eoreq	r2, ip, r0, lsl #6
    10b8:	007f0000 	rsbseq	r0, pc, r0
    10bc:	0003ee24 	andeq	lr, r3, r4, lsr #28
    10c0:	01490100 	mrseq	r0, (UNDEF: 89)
    10c4:	0000086a 	andeq	r0, r0, sl, ror #16
    10c8:	00092a01 	andeq	r2, r9, r1, lsl #20
    10cc:	01c62500 	biceq	r2, r6, r0, lsl #10
    10d0:	49010000 	stmdbmi	r1, {}	; <UNPREDICTABLE>
    10d4:	00002c0f 	andeq	r2, r0, pc, lsl #24
    10d8:	73642600 	cmnvc	r4, #0, 12
    10dc:	49010074 	stmdbmi	r1, {r2, r4, r5, r6}
    10e0:	00086a1b 	andeq	r6, r8, fp, lsl sl
    10e4:	006e2600 	rsbeq	r2, lr, r0, lsl #12
    10e8:	33244901 			; <UNDEFINED> instruction: 0x33244901
    10ec:	26000000 	strcs	r0, [r0], -r0
    10f0:	006c6176 	rsbeq	r6, ip, r6, ror r1
    10f4:	332b4901 			; <UNDEFINED> instruction: 0x332b4901
    10f8:	25000000 	strcs	r0, [r0, #-0]
    10fc:	00000375 	andeq	r0, r0, r5, ror r3
    1100:	33344901 	teqcc	r4, #16384	; 0x4000
    1104:	25000000 	strcs	r0, [r0, #-0]
    1108:	00000433 	andeq	r0, r0, r3, lsr r4
    110c:	333f4901 	teqcc	pc, #16384	; 0x4000
    1110:	27000000 	strcs	r0, [r0, -r0]
    1114:	00667562 	rsbeq	r7, r6, r2, ror #10
    1118:	2a074e01 	bcs	1d4924 <__bss_end__+0x1ca944>
    111c:	27000009 	strcs	r0, [r0, -r9]
    1120:	4e010070 	mcrmi	0, 0, r0, cr1, cr0, {3}
    1124:	00086a11 	andeq	r6, r8, r1, lsl sl
    1128:	00752700 	rsbseq	r2, r5, r0, lsl #14
    112c:	2c0b4f01 	stccs	15, cr4, [fp], {1}
    1130:	12000000 	andne	r0, r0, #0, 0
    1134:	0000003d 	andeq	r0, r0, sp, lsr r0
    1138:	0000094a 	andeq	r0, r0, sl, asr #18
    113c:	99880305 	stmibls	r8, {r0, r2, r8, r9}
    1140:	29280000 	stmdbcs	r8!, {}	; <UNPREDICTABLE>
    1144:	000003db 	ldrdeq	r0, [r0], -fp
    1148:	2c0d5401 	cfstrscs	mvf5, [sp], {1}
    114c:	00000000 	andeq	r0, r0, r0
    1150:	00b92200 	adcseq	r2, r9, r0, lsl #4
    1154:	093a0000 	ldmdbeq	sl!, {}	; <UNPREDICTABLE>
    1158:	2c230000 	stccs	0, cr0, [r3], #-0
    115c:	3f000000 	svccc	0x00000000
    1160:	00c02200 	sbceq	r2, r0, r0, lsl #4
    1164:	094a0000 	stmdbeq	sl, {}^	; <UNPREDICTABLE>
    1168:	2c230000 	stccs	0, cr0, [r3], #-0
    116c:	04000000 	streq	r0, [r0], #-0
    1170:	093a0900 	ldmdbeq	sl!, {r8, fp}
    1174:	f3240000 	vhadd.u32	d0, d4, d0
    1178:	01000003 	tsteq	r0, r3
    117c:	086a0e38 	stmdaeq	sl!, {r3, r4, r5, r9, sl, fp}^
    1180:	a3010000 	movwge	r0, #4096	; 0x1000
    1184:	26000009 	strcs	r0, [r0], -r9
    1188:	00747364 	rsbseq	r7, r4, r4, ror #6
    118c:	6a1c3801 	bvs	70f198 <__bss_end__+0x7051b8>
    1190:	26000008 	strcs	r0, [r0], -r8
    1194:	3801006e 	stmdacc	r1, {r1, r2, r3, r5, r6}
    1198:	00003325 	andeq	r3, r0, r5, lsr #6
    119c:	00702600 	rsbseq	r2, r0, r0, lsl #12
    11a0:	6a2e3801 	bvs	b8f1ac <__bss_end__+0xb851cc>
    11a4:	25000008 	strcs	r0, [r0, #-8]
    11a8:	000007cd 	andeq	r0, r0, sp, asr #15
    11ac:	6a373801 	bvs	dcf1b8 <__bss_end__+0xdc51d8>
    11b0:	27000008 	strcs	r0, [r0, -r8]
    11b4:	006e656c 	rsbeq	r6, lr, ip, ror #10
    11b8:	33063a01 	movwcc	r3, #27137	; 0x6a01
    11bc:	27000000 	strcs	r0, [r0, -r0]
    11c0:	3e010073 	mcrcc	0, 0, r0, cr1, cr3, {3}
    11c4:	00086a08 	andeq	r6, r8, r8, lsl #20
    11c8:	702a0000 	eorvc	r0, sl, r0
    11cc:	01006461 	tsteq	r0, r1, ror #8
    11d0:	086a0e2e 	stmdaeq	sl!, {r1, r2, r3, r5, r9, sl, fp}^
    11d4:	e3010000 	movw	r0, #4096	; 0x1000
    11d8:	26000009 	strcs	r0, [r0], -r9
    11dc:	2e010070 	mcrcs	0, 0, r0, cr1, cr0, {3}
    11e0:	00086a18 	andeq	r6, r8, r8, lsl sl
    11e4:	01c62500 	biceq	r2, r6, r0, lsl #10
    11e8:	2e010000 	cdpcs	0, 0, cr0, cr1, cr0, {0}
    11ec:	00086a22 	andeq	r6, r8, r2, lsr #20
    11f0:	03752500 	cmneq	r5, #0, 10
    11f4:	2e010000 	cdpcs	0, 0, cr0, cr1, cr0, {0}
    11f8:	0000332c 	andeq	r3, r0, ip, lsr #6
    11fc:	656c2700 	strbvs	r2, [ip, #-1792]!	; 0xfffff900
    1200:	2f01006e 	svccs	0x0001006e
    1204:	00003306 	andeq	r3, r0, r6, lsl #6
    1208:	34240000 	strtcc	r0, [r4], #-0
    120c:	01000003 	tsteq	r0, r3
    1210:	00330c27 	eorseq	r0, r3, r7, lsr #24
    1214:	ff010000 			; <UNDEFINED> instruction: 0xff010000
    1218:	26000009 	strcs	r0, [r0], -r9
    121c:	27010063 	strcs	r0, [r1, -r3, rrx]
    1220:	00003318 	andeq	r3, r0, r8, lsl r3
    1224:	b42b0000 	strtlt	r0, [fp], #-0
    1228:	01000003 	tsteq	r0, r3
    122c:	85e4061f 	strbhi	r0, [r4, #1567]!	; 0x61f
    1230:	00600000 	rsbeq	r0, r0, r0
    1234:	9c010000 	stcls	0, cr0, [r1], {-0}
    1238:	00000a8f 	andeq	r0, r0, pc, lsl #21
    123c:	0003880f 	andeq	r8, r3, pc, lsl #16
    1240:	1b1f0100 	blne	7c1648 <__bss_end__+0x7b7668>
    1244:	0000009e 	muleq	r0, lr, r0
    1248:	00000f68 	andeq	r0, r0, r8, ror #30
    124c:	00000f64 	andeq	r0, r0, r4, ror #30
    1250:	0004020f 	andeq	r0, r4, pc, lsl #4
    1254:	301f0100 	andscc	r0, pc, r0, lsl #2
    1258:	000000d1 	ldrdeq	r0, [r0], -r1
    125c:	00000f8d 	andeq	r0, r0, sp, lsl #31
    1260:	00000f89 	andeq	r0, r0, r9, lsl #31
    1264:	00003d12 	andeq	r3, r0, r2, lsl sp
    1268:	000a9f00 	andeq	r9, sl, r0, lsl #30
    126c:	90030500 	andls	r0, r3, r0, lsl #10
    1270:	17000099 			; <UNDEFINED> instruction: 0x17000099
    1274:	00008628 	andeq	r8, r0, r8, lsr #12
    1278:	00000c46 	andeq	r0, r0, r6, asr #24
    127c:	00000a85 	andeq	r0, r0, r5, lsl #21
    1280:	05500118 	ldrbeq	r0, [r0, #-280]	; 0xfffffee8
    1284:	00984403 	addseq	r4, r8, r3, lsl #8
    1288:	51011800 	tstpl	r1, r0, lsl #16
    128c:	98300305 	ldmdals	r0!, {r0, r2, r8, r9}
    1290:	01180000 	tsteq	r8, r0
    1294:	90030552 	andls	r0, r3, r2, asr r5
    1298:	18000099 	stmdane	r0, {r0, r3, r4, r7}
    129c:	08025301 	stmdaeq	r2, {r0, r8, r9, ip, lr}
    12a0:	7d021820 	stcvc	8, cr1, [r2, #-128]	; 0xffffff80
    12a4:	80030500 	andhi	r0, r3, r0, lsl #10
    12a8:	00000098 	muleq	r0, r8, r0
    12ac:	00862c19 	addeq	r2, r6, r9, lsl ip
    12b0:	000c7600 	andeq	r7, ip, r0, lsl #12
    12b4:	c0220000 	eorgt	r0, r2, r0
    12b8:	9f000000 	svcls	0x00000000
    12bc:	2300000a 	movwcs	r0, #10
    12c0:	0000002c 	andeq	r0, r0, ip, lsr #32
    12c4:	8f09000e 	svchi	0x0009000e
    12c8:	2c00000a 	stccs	0, cr0, [r0], {10}
    12cc:	00000895 	muleq	r0, r5, r8
    12d0:	000082bc 			; <UNDEFINED> instruction: 0x000082bc
    12d4:	00000328 	andeq	r0, r0, r8, lsr #6
    12d8:	0c3a9c01 	ldceq	12, cr9, [sl], #-4
    12dc:	a61b0000 	ldrge	r0, [fp], -r0
    12e0:	c6000008 	strgt	r0, [r0], -r8
    12e4:	ae00000f 	cdpge	0, 0, cr0, cr0, cr15, {0}
    12e8:	1b00000f 	blne	132c <__code_start__-0x6cd4>
    12ec:	000008b2 			; <UNDEFINED> instruction: 0x000008b2
    12f0:	00001070 	andeq	r1, r0, r0, ror r0
    12f4:	00001068 	andeq	r1, r0, r8, rrx
    12f8:	0008c81b 	andeq	ip, r8, fp, lsl r8
    12fc:	0010c700 	andseq	ip, r0, r0, lsl #14
    1300:	0010a700 	andseq	sl, r0, r0, lsl #14
    1304:	08d41b00 	ldmeq	r4, {r8, r9, fp, ip}^
    1308:	119d0000 	orrsne	r0, sp, r0
    130c:	118f0000 	orrne	r0, pc, r0
    1310:	e02d0000 	eor	r0, sp, r0
    1314:	02000008 	andeq	r0, r0, #8, 0
    1318:	ec1d0091 	ldc	0, cr0, [sp], {145}	; 0x91
    131c:	03000008 	movweq	r0, #8
    1320:	1e7fa891 	mrcne	8, 3, sl, cr15, cr1, {4}
    1324:	000008f8 	strdeq	r0, [r0], -r8
    1328:	00001231 	andeq	r1, r0, r1, lsr r2
    132c:	000011fd 	strdeq	r1, [r0], -sp
    1330:	0009021e 	andeq	r0, r9, lr, lsl r2
    1334:	00139800 	andseq	r9, r3, r0, lsl #16
    1338:	00137600 	andseq	r7, r3, r0, lsl #12
    133c:	08be2e00 	ldmeq	lr!, {r9, sl, fp, sp}
    1340:	1a800000 	bne	fe001348 <__bss_end__+0xfdff7368>
    1344:	000009a3 	andeq	r0, r0, r3, lsr #19
    1348:	00008360 	andeq	r8, r0, r0, ror #6
    134c:	00000004 	andeq	r0, r0, r4
    1350:	7c010000 	stcvc	0, cr0, [r1], {-0}
    1354:	000b6d09 	andeq	r6, fp, r9, lsl #26
    1358:	09ca1b00 	stmibeq	sl, {r8, r9, fp, ip}^
    135c:	14800000 	strne	r0, [r0], #0
    1360:	14760000 	ldrbtne	r0, [r6], #-0
    1364:	be1b0000 	cdplt	0, 1, cr0, cr11, cr0, {0}
    1368:	d4000009 	strle	r0, [r0], #-9
    136c:	c4000014 	strgt	r0, [r0], #-20	; 0xffffffec
    1370:	1b000014 	blne	13c8 <__code_start__-0x6c38>
    1374:	000009b4 			; <UNDEFINED> instruction: 0x000009b4
    1378:	00001554 	andeq	r1, r0, r4, asr r5
    137c:	00001540 	andeq	r1, r0, r0, asr #10
    1380:	00000013 	andeq	r0, r0, r3, lsl r0
    1384:	09d61e00 	ldmibeq	r6, {r9, sl, fp, ip}^
    1388:	15e60000 	strbne	r0, [r6, #0]!
    138c:	15d60000 	ldrbne	r0, [r6]
    1390:	00000000 	andeq	r0, r0, r0
    1394:	00094f1a 	andeq	r4, r9, sl, lsl pc
    1398:	00841800 	addeq	r1, r4, r0, lsl #16
    139c:	48000200 	stmdami	r0, {r9}
    13a0:	01000000 	mrseq	r0, (UNDEF: 0)
    13a4:	0bd8097c 	bleq	ff60399c <__bss_end__+0xff5f99bc>
    13a8:	801b0000 	andshi	r0, fp, r0
    13ac:	52000009 	andpl	r0, r0, #9, 0
    13b0:	4a000016 	bmi	1410 <__code_start__-0x6bf0>
    13b4:	1b000016 	blne	1414 <__code_start__-0x6bec>
    13b8:	00000976 	andeq	r0, r0, r6, ror r9
    13bc:	00001691 	muleq	r0, r1, r6
    13c0:	00001689 	andeq	r1, r0, r9, lsl #13
    13c4:	00096c1b 	andeq	r6, r9, fp, lsl ip
    13c8:	0016d000 	andseq	sp, r6, r0
    13cc:	0016cc00 	andseq	ip, r6, r0, lsl #24
    13d0:	09601b00 	stmdbeq	r0!, {r8, r9, fp, ip}^
    13d4:	17000000 	strne	r0, [r0, -r0]
    13d8:	16f20000 	ldrbtne	r0, [r2], r0
    13dc:	48130000 	ldmdami	r3, {}	; <UNPREDICTABLE>
    13e0:	1e000000 	cdpne	0, 0, cr0, cr0, cr0, {0}
    13e4:	0000098c 	andeq	r0, r0, ip, lsl #19
    13e8:	00001765 	andeq	r1, r0, r5, ror #14
    13ec:	0000175f 	andeq	r1, r0, pc, asr r7
    13f0:	0009981e 	andeq	r9, r9, lr, lsl r8
    13f4:	00179700 	andseq	r9, r7, r0, lsl #14
    13f8:	00179300 	andseq	r9, r7, r0, lsl #6
    13fc:	2f000000 	svccs	0x00000000
    1400:	0000091b 	andeq	r0, r0, fp, lsl r9
    1404:	000084d0 	ldrdeq	r8, [r0], -r0
    1408:	00000060 	andeq	r0, r0, r0, rrx
    140c:	00000bf7 	strdeq	r0, [r0], -r7
    1410:	00091c1e 	andeq	r1, r9, lr, lsl ip
    1414:	0017b900 	andseq	fp, r7, r0, lsl #18
    1418:	0017b500 	andseq	fp, r7, r0, lsl #10
    141c:	a4170000 	ldrge	r0, [r7], #-0
    1420:	46000085 	strmi	r0, [r0], -r5, lsl #1
    1424:	3000000c 	andcc	r0, r0, ip
    1428:	1800000c 	stmdane	r0, {r2, r3}
    142c:	03055001 	movweq	r5, #20481	; 0x5001
    1430:	00009844 	andeq	r9, r0, r4, asr #16
    1434:	05510118 	ldrbeq	r0, [r1, #-280]	; 0xfffffee8
    1438:	00983003 	addseq	r3, r8, r3
    143c:	52011800 	andpl	r1, r1, #0, 16
    1440:	99880305 	stmibls	r8, {r0, r2, r8, r9}
    1444:	01180000 	tsteq	r8, r0
    1448:	79080253 	stmdbvc	r8, {r0, r1, r4, r6, r9}
    144c:	007d0218 	rsbseq	r0, sp, r8, lsl r2
    1450:	98580305 	ldmdals	r8, {r0, r2, r8, r9}^
    1454:	19000000 	stmdbne	r0, {}	; <UNPREDICTABLE>
    1458:	000085a8 	andeq	r8, r0, r8, lsr #11
    145c:	00000c76 	andeq	r0, r0, r6, ror ip
    1460:	042b3000 	strteq	r3, [fp], #-0
    1464:	042b0000 	strteq	r0, [fp], #-0
    1468:	eb030000 	bl	c1470 <__bss_end__+0xb7490>
    146c:	02093005 	andeq	r3, r9, #5, 0
    1470:	02090000 	andeq	r0, r9, #0, 0
    1474:	28030000 	stmdacs	r3, {}	; <UNPREDICTABLE>
    1478:	03cd3006 	biceq	r3, sp, #6, 0
    147c:	03cd0000 	biceq	r0, sp, #0, 0
    1480:	ee030000 	cdp	0, 0, cr0, cr3, cr0, {0}
    1484:	03fb3007 	mvnseq	r3, #7, 0
    1488:	03fb0000 	mvnseq	r0, #0, 0
    148c:	ea030000 	b	c1494 <__bss_end__+0xb74b4>
    1490:	03d43005 	bicseq	r3, r4, #5, 0
    1494:	03d40000 	bicseq	r0, r4, #0, 0
    1498:	ed030000 	stc	0, cr0, [r3, #-0]
    149c:	00163007 	andseq	r3, r6, r7
    14a0:	00160000 	andseq	r0, r6, r0
    14a4:	6e030000 	cdpvs	0, 0, cr0, cr3, cr0, {0}
    14a8:	012f0006 			; <UNDEFINED> instruction: 0x012f0006
    14ac:	00040000 	andeq	r0, r4, r0
    14b0:	00000828 	andeq	r0, r0, r8, lsr #16
    14b4:	021f0104 	andseq	r0, pc, #1
    14b8:	500c0000 	andpl	r0, ip, r0
    14bc:	f6000004 			; <UNDEFINED> instruction: 0xf6000004
    14c0:	70000002 	andvc	r0, r0, r2
    14c4:	2c00008c 	stccs	0, cr0, [r0], {140}	; 0x8c
    14c8:	fb000000 	blx	14d2 <__code_start__-0x6b2e>
    14cc:	0200000d 	andeq	r0, r0, #13, 0
    14d0:	6e690504 	cdpvs	5, 6, cr0, cr9, cr4, {0}
    14d4:	04030074 	streq	r0, [r3], #-116	; 0xffffff8c
    14d8:	00006b07 	andeq	r6, r0, r7, lsl #22
    14dc:	06010300 	streq	r0, [r1], -r0, lsl #6
    14e0:	0000000a 	andeq	r0, r0, sl
    14e4:	c9050203 	stmdbgt	r5, {r0, r1, r9}
    14e8:	03000000 	movweq	r0, #0
    14ec:	007d0504 	rsbseq	r0, sp, r4, lsl #10
    14f0:	08030000 	stmdaeq	r3, {}	; <UNPREDICTABLE>
    14f4:	00007805 	andeq	r7, r0, r5, lsl #16
    14f8:	08010300 	stmdaeq	r1, {r8, r9}
    14fc:	00000008 	andeq	r0, r0, r8
    1500:	23070203 	movwcs	r0, #29187	; 0x7203
    1504:	03000000 	movweq	r0, #0
    1508:	00660704 	rsbeq	r0, r6, r4, lsl #14
    150c:	08030000 	stmdaeq	r3, {}	; <UNPREDICTABLE>
    1510:	00006107 	andeq	r6, r0, r7, lsl #2
    1514:	00250400 	eoreq	r0, r5, r0, lsl #8
    1518:	007a0000 	rsbseq	r0, sl, r0
    151c:	25050000 	strcs	r0, [r5, #-0]
    1520:	00000000 	andeq	r0, r0, r0
    1524:	00008606 	andeq	r8, r0, r6, lsl #12
    1528:	0e1c0200 	cdpeq	2, 1, cr0, cr12, cr0, {0}
    152c:	00000086 	andeq	r0, r0, r6, lsl #1
    1530:	006b0407 	rsbeq	r0, fp, r7, lsl #8
    1534:	25040000 	strcs	r0, [r4, #-0]
    1538:	9b000000 	blls	1540 <__code_start__-0x6ac0>
    153c:	05000000 	streq	r0, [r0, #-0]
    1540:	0000009b 	muleq	r0, fp, r0
    1544:	a8040700 	stmdage	r4, {r8, r9, sl}
    1548:	03000000 	movweq	r0, #0
    154c:	00110801 	andseq	r0, r1, r1, lsl #16
    1550:	a1080000 	mrsge	r0, (UNDEF: 8)
    1554:	06000000 	streq	r0, [r0], -r0
    1558:	00000321 	andeq	r0, r0, r1, lsr #6
    155c:	b90e2102 	stmdblt	lr, {r1, r8, sp}
    1560:	07000000 	streq	r0, [r0, -r0]
    1564:	00008c04 	andeq	r8, r0, r4, lsl #24
    1568:	00160900 	andseq	r0, r6, r0, lsl #18
    156c:	04010000 	streq	r0, [r1], #-0
    1570:	008c7006 	addeq	r7, ip, r6
    1574:	00002c00 	andeq	r2, r0, r0, lsl #24
    1578:	0e9c0100 	fmleqe	f0, f4, f0
    157c:	0a000001 	beq	1588 <__code_start__-0x6a78>
    1580:	00008c84 	andeq	r8, r0, r4, lsl #25
    1584:	000000e8 	andeq	r0, r0, r8, ror #1
    1588:	0550010b 	ldrbeq	r0, [r0, #-267]	; 0xfffffef5
    158c:	0099ac03 	addseq	sl, r9, r3, lsl #24
    1590:	880c0000 	stmdahi	ip, {}	; <UNPREDICTABLE>
    1594:	0e00008c 	cdpeq	0, 0, cr0, cr0, cr12, {4}
    1598:	0d000001 	stceq	0, cr0, [r0, #-4]
    159c:	00008c90 	muleq	r0, r0, ip
    15a0:	0000011a 	andeq	r0, r0, sl, lsl r1
    15a4:	00000104 	andeq	r0, r0, r4, lsl #2
    15a8:	0150010b 	cmpeq	r0, fp, lsl #2
    15ac:	940c003a 	strls	r0, [ip], #-58	; 0xffffffc6
    15b0:	2600008c 	strcs	r0, [r0], -ip, lsl #1
    15b4:	00000001 	andeq	r0, r0, r1
    15b8:	00046b0e 	andeq	r6, r4, lr, lsl #22
    15bc:	00046b00 	andeq	r6, r4, r0, lsl #22
    15c0:	064d0200 	strbeq	r0, [sp], -r0, lsl #4
    15c4:	0004470e 	andeq	r4, r4, lr, lsl #14
    15c8:	00044700 	andeq	r4, r4, r0, lsl #14
    15cc:	06580200 	ldrbeq	r0, [r8], -r0, lsl #4
    15d0:	00043c0e 	andeq	r3, r4, lr, lsl #24
    15d4:	00043c00 	andeq	r3, r4, r0, lsl #24
    15d8:	066b0200 	strbteq	r0, [fp], -r0, lsl #4
    15dc:	00019000 	andeq	r9, r1, r0
    15e0:	e8000400 	stmda	r0, {sl}
    15e4:	04000008 	streq	r0, [r0], #-8
    15e8:	00021f01 	andeq	r1, r2, r1, lsl #30
    15ec:	04a10c00 	strteq	r0, [r1], #3072	; 0xc00
    15f0:	02f60000 	rscseq	r0, r6, #0, 0
    15f4:	8c9c0000 	ldchi	0, cr0, [ip], {0}
    15f8:	00f80000 	rscseq	r0, r8, r0
    15fc:	0e860000 	cdpeq	0, 8, cr0, cr6, cr0, {0}
    1600:	04020000 	streq	r0, [r2], #-0
    1604:	746e6905 	strbtvc	r6, [lr], #-2309	; 0xfffff6fb
    1608:	07040300 	streq	r0, [r4, -r0, lsl #6]
    160c:	0000006b 	andeq	r0, r0, fp, rrx
    1610:	0a060103 	beq	181a24 <__bss_end__+0x177a44>
    1614:	03000000 	movweq	r0, #0
    1618:	00c90502 	sbceq	r0, r9, r2, lsl #10
    161c:	04030000 	streq	r0, [r3], #-0
    1620:	00007d05 	andeq	r7, r0, r5, lsl #26
    1624:	05080300 	streq	r0, [r8, #-768]	; 0xfffffd00
    1628:	00000078 	andeq	r0, r0, r8, ror r0
    162c:	08080103 	stmdaeq	r8, {r0, r1, r8}
    1630:	03000000 	movweq	r0, #0
    1634:	00230702 	eoreq	r0, r3, r2, lsl #14
    1638:	04030000 	streq	r0, [r3], #-0
    163c:	00006607 	andeq	r6, r0, r7, lsl #12
    1640:	07080300 	streq	r0, [r8, -r0, lsl #6]
    1644:	00000061 	andeq	r0, r0, r1, rrx
    1648:	00002504 	andeq	r2, r0, r4, lsl #10
    164c:	00007a00 	andeq	r7, r0, r0, lsl #20
    1650:	00250500 	eoreq	r0, r5, r0, lsl #10
    1654:	06000000 	streq	r0, [r0], -r0
    1658:	00000086 	andeq	r0, r0, r6, lsl #1
    165c:	860e1c02 	strhi	r1, [lr], -r2, lsl #24
    1660:	07000000 	streq	r0, [r0, -r0]
    1664:	00006b04 	andeq	r6, r0, r4, lsl #22
    1668:	00250400 	eoreq	r0, r5, r0, lsl #8
    166c:	009b0000 	addseq	r0, fp, r0
    1670:	9b050000 	blls	141678 <__bss_end__+0x137698>
    1674:	00000000 	andeq	r0, r0, r0
    1678:	00a80407 	adceq	r0, r8, r7, lsl #8
    167c:	01030000 	mrseq	r0, (UNDEF: 3)
    1680:	00001108 	andeq	r1, r0, r8, lsl #2
    1684:	00a10800 	adceq	r0, r1, r0, lsl #16
    1688:	21060000 	mrscs	r0, (UNDEF: 6)
    168c:	02000003 	andeq	r0, r0, #3, 0
    1690:	00b90e21 	adcseq	r0, r9, r1, lsr #28
    1694:	04070000 	streq	r0, [r7], #-0
    1698:	0000008c 	andeq	r0, r0, ip, lsl #1
    169c:	00047909 	andeq	r7, r4, r9, lsl #18
    16a0:	06040100 	streq	r0, [r4], -r0, lsl #2
    16a4:	00008c9c 	muleq	r0, ip, ip
    16a8:	000000f8 	strdeq	r0, [r0], -r8
    16ac:	015b9c01 	cmpeq	fp, r1, lsl #24
    16b0:	67060000 	strvs	r0, [r6, -r0]
    16b4:	01000003 	tsteq	r0, r3
    16b8:	00251005 	eoreq	r1, r5, r5
    16bc:	90060000 	andls	r0, r6, r0
    16c0:	01000003 	tsteq	r0, r3
    16c4:	00251f05 	eoreq	r1, r5, r5, lsl #30
    16c8:	000a0000 	andeq	r0, sl, r0
    16cc:	01000000 	mrseq	r0, (UNDEF: 0)
    16d0:	620b0706 	andvs	r0, fp, #1572864	; 0x180000
    16d4:	01007373 	tsteq	r0, r3, ror r3
    16d8:	015b0a0a 	cmpeq	fp, sl, lsl #20
    16dc:	17f10000 	ldrbne	r0, [r1, r0]!
    16e0:	17d90000 	ldrbne	r0, [r9, r0]
    16e4:	810c0000 	mrshi	r0, (UNDEF: 12)
    16e8:	01000004 	tsteq	r0, r4
    16ec:	015b0a0b 	cmpeq	fp, fp, lsl #20
    16f0:	740d0000 	strvc	r0, [sp], #-0
    16f4:	0800008d 	stmdaeq	r0, {r0, r2, r3, r7}
    16f8:	36000000 	strcc	r0, [r0], -r0
    16fc:	0b000001 	bleq	1708 <__code_start__-0x68f8>
    1700:	01006e69 	tsteq	r0, r9, ror #28
    1704:	002c0514 	eoreq	r0, ip, r4, lsl r5
    1708:	188b0000 	stmne	fp, {}	; <UNPREDICTABLE>
    170c:	18890000 	stmne	r9, {}	; <UNPREDICTABLE>
    1710:	0e000000 	cdpeq	0, 0, cr0, cr0, cr0, {0}
    1714:	00008ca4 	andeq	r8, r0, r4, lsr #25
    1718:	00000161 	andeq	r0, r0, r1, ror #2
    171c:	008d740e 	addeq	r7, sp, lr, lsl #8
    1720:	00016e00 	andeq	r6, r1, r0, lsl #28
    1724:	8d800e00 	stchi	14, cr0, [r0]
    1728:	017a0000 	cmneq	sl, r0
    172c:	840e0000 	strhi	r0, [lr], #-0
    1730:	8700008d 	strhi	r0, [r0, -sp, lsl #1]
    1734:	00000001 	andeq	r0, r0, r1
    1738:	00250407 	eoreq	r0, r5, r7, lsl #8
    173c:	930f0000 	movwls	r0, #61440	; 0xf000
    1740:	93000004 	movwls	r0, #4
    1744:	02000004 	andeq	r0, r0, #4, 0
    1748:	10060131 	andne	r0, r6, r1, lsr r1
    174c:	00000489 	andeq	r0, r0, r9, lsl #9
    1750:	00000489 	andeq	r0, r0, r9, lsl #9
    1754:	0f063b02 	svceq	0x00063b02
	...
    1760:	06010502 	streq	r0, [r1], -r2, lsl #10
    1764:	00001610 	andeq	r1, r0, r0, lsl r6
    1768:	00001600 	andeq	r1, r0, r0, lsl #12
    176c:	066e0200 	strbteq	r0, [lr], -r0, lsl #4
    1770:	0000ce00 	andeq	ip, r0, r0, lsl #28
    1774:	d3000400 	movwle	r0, #1024	; 0x400
    1778:	04000009 	streq	r0, [r0], #-9
    177c:	00021f01 	andeq	r1, r2, r1, lsl #30
    1780:	04b60c00 	ldrteq	r0, [r6], #3072	; 0xc00
    1784:	02f60000 	rscseq	r0, r6, #0, 0
    1788:	8d940000 	ldchi	0, cr0, [r4]
    178c:	00040000 	andeq	r0, r4, r0
    1790:	0f9c0000 	svceq	0x009c0000
    1794:	04020000 	streq	r0, [r2], #-0
    1798:	746e6905 	strbtvc	r6, [lr], #-2309	; 0xfffff6fb
    179c:	07040300 	streq	r0, [r4, -r0, lsl #6]
    17a0:	0000006b 	andeq	r0, r0, fp, rrx
    17a4:	0a060103 	beq	181bb8 <__bss_end__+0x177bd8>
    17a8:	03000000 	movweq	r0, #0
    17ac:	00c90502 	sbceq	r0, r9, r2, lsl #10
    17b0:	04030000 	streq	r0, [r3], #-0
    17b4:	00007d05 	andeq	r7, r0, r5, lsl #26
    17b8:	05080300 	streq	r0, [r8, #-768]	; 0xfffffd00
    17bc:	00000078 	andeq	r0, r0, r8, ror r0
    17c0:	08080103 	stmdaeq	r8, {r0, r1, r8}
    17c4:	03000000 	movweq	r0, #0
    17c8:	00230702 	eoreq	r0, r3, r2, lsl #14
    17cc:	04030000 	streq	r0, [r3], #-0
    17d0:	00006607 	andeq	r6, r0, r7, lsl #12
    17d4:	07080300 	streq	r0, [r8, -r0, lsl #6]
    17d8:	00000061 	andeq	r0, r0, r1, rrx
    17dc:	00002504 	andeq	r2, r0, r4, lsl #10
    17e0:	00007a00 	andeq	r7, r0, r0, lsl #20
    17e4:	00250500 	eoreq	r0, r5, r0, lsl #10
    17e8:	06000000 	streq	r0, [r0], -r0
    17ec:	00000086 	andeq	r0, r0, r6, lsl #1
    17f0:	860e1c02 	strhi	r1, [lr], -r2, lsl #24
    17f4:	07000000 	streq	r0, [r0, -r0]
    17f8:	00006b04 	andeq	r6, r0, r4, lsl #22
    17fc:	00250400 	eoreq	r0, r5, r0, lsl #8
    1800:	009b0000 	addseq	r0, fp, r0
    1804:	9b050000 	blls	14180c <__bss_end__+0x13782c>
    1808:	00000000 	andeq	r0, r0, r0
    180c:	00a80407 	adceq	r0, r8, r7, lsl #8
    1810:	01030000 	mrseq	r0, (UNDEF: 3)
    1814:	00001108 	andeq	r1, r0, r8, lsl #2
    1818:	00a10800 	adceq	r0, r1, r0, lsl #16
    181c:	21060000 	mrscs	r0, (UNDEF: 6)
    1820:	02000003 	andeq	r0, r0, #3, 0
    1824:	00b90e21 	adcseq	r0, r9, r1, lsr #28
    1828:	04070000 	streq	r0, [r7], #-0
    182c:	0000008c 	andeq	r0, r0, ip, lsl #1
    1830:	00049309 	andeq	r9, r4, r9, lsl #6
    1834:	06040100 	streq	r0, [r4], -r0, lsl #2
    1838:	00008d94 	muleq	r0, r4, sp
    183c:	00000004 	andeq	r0, r0, r4
    1840:	7d009c01 	stcvc	12, cr9, [r0, #-4]
    1844:	04000002 	streq	r0, [r0], #-2
    1848:	000a4c00 	andeq	r4, sl, r0, lsl #24
    184c:	1f010400 	svcne	0x00010400
    1850:	0c000002 	stceq	0, cr0, [r0], {2}
    1854:	000004fe 	strdeq	r0, [r0], -lr
    1858:	000002f6 	strdeq	r0, [r0], -r6
    185c:	000001f0 	strdeq	r0, [r0], -r0	; <UNPREDICTABLE>
    1860:	00000000 	andeq	r0, r0, r0
    1864:	0000101d 	andeq	r1, r0, sp, lsl r0
    1868:	69050402 	stmdbvs	r5, {r1, sl}
    186c:	0300746e 	movweq	r7, #1134	; 0x46e
    1870:	00000025 	andeq	r0, r0, r5, lsr #32
    1874:	6b070404 	blvs	1c288c <__bss_end__+0x1b88ac>
    1878:	04000000 	streq	r0, [r0], #-0
    187c:	000a0601 	andeq	r0, sl, r1, lsl #12
    1880:	02040000 	andeq	r0, r4, #0, 0
    1884:	0000c905 	andeq	ip, r0, r5, lsl #18
    1888:	05040400 	streq	r0, [r4, #-1024]	; 0xfffffc00
    188c:	0000007d 	andeq	r0, r0, sp, ror r0
    1890:	78050804 	stmdavc	r5, {r2, fp}
    1894:	04000000 	streq	r0, [r0], #-0
    1898:	00080801 	andeq	r0, r8, r1, lsl #16
    189c:	02040000 	andeq	r0, r4, #0, 0
    18a0:	00002307 	andeq	r2, r0, r7, lsl #6
    18a4:	07040400 	streq	r0, [r4, -r0, lsl #8]
    18a8:	00000066 	andeq	r0, r0, r6, rrx
    18ac:	61070804 	tstvs	r7, r4, lsl #16
    18b0:	05000000 	streq	r0, [r0, #-0]
    18b4:	00000025 	andeq	r0, r0, r5, lsr #32
    18b8:	0000007f 	andeq	r0, r0, pc, ror r0
    18bc:	00002506 	andeq	r2, r0, r6, lsl #10
    18c0:	86070000 	strhi	r0, [r7], -r0
    18c4:	02000000 	andeq	r0, r0, #0, 0
    18c8:	008b0e1c 	addeq	r0, fp, ip, lsl lr
    18cc:	04080000 	streq	r0, [r8], #-0
    18d0:	00000070 	andeq	r0, r0, r0, ror r0
    18d4:	00002505 	andeq	r2, r0, r5, lsl #10
    18d8:	0000a000 	andeq	sl, r0, r0
    18dc:	00a00600 	adceq	r0, r0, r0, lsl #12
    18e0:	08000000 	stmdaeq	r0, {}	; <UNPREDICTABLE>
    18e4:	0000ad04 	andeq	sl, r0, r4, lsl #26
    18e8:	08010400 	stmdaeq	r1, {sl}
    18ec:	00000011 	andeq	r0, r0, r1, lsl r0
    18f0:	0000a603 	andeq	sl, r0, r3, lsl #12
    18f4:	03210700 			; <UNDEFINED> instruction: 0x03210700
    18f8:	21020000 	mrscs	r0, (UNDEF: 2)
    18fc:	0000be0e 	andeq	fp, r0, lr, lsl #28
    1900:	91040800 	tstls	r4, r0, lsl #16
    1904:	09000000 	stmdbeq	r0, {}	; <UNPREDICTABLE>
    1908:	00000522 	andeq	r0, r0, r2, lsr #10
    190c:	31110d01 	tstcc	r1, r1, lsl #26
    1910:	0a000000 	beq	1918 <__code_start__-0x66e8>
    1914:	0000043c 	andeq	r0, r0, ip, lsr r4
    1918:	c4061f01 	strgt	r1, [r6], #-3841	; 0xfffff0ff
    191c:	6000008d 	andvs	r0, r0, sp, lsl #1
    1920:	01000000 	mrseq	r0, (UNDEF: 0)
    1924:	0001d59c 	muleq	r1, ip, r5
    1928:	05460b00 	strbeq	r0, [r6, #-2816]	; 0xfffff500
    192c:	2c010000 	stccs	0, cr0, [r1], {-0}
    1930:	00002c0f 	andeq	r2, r0, pc, lsl #24
    1934:	10001c00 	andne	r1, r0, r0, lsl #24
    1938:	04e10b20 	strbteq	r0, [r1], #2848	; 0xb20
    193c:	2d010000 	stccs	0, cr0, [r1, #-0]
    1940:	00002c0f 	andeq	r2, r0, pc, lsl #24
    1944:	10002400 	andne	r2, r0, r0, lsl #8
    1948:	05130b20 	ldreq	r0, [r3, #-2848]	; 0xfffff4e0
    194c:	2e010000 	cdpcs	0, 0, cr0, cr1, cr0, {0}
    1950:	00002c0f 	andeq	r2, r0, pc, lsl #24
    1954:	00000000 	andeq	r0, r0, r0
    1958:	052d0c5a 	streq	r0, [sp, #-3162]!	; 0xfffff3a6
    195c:	2f010000 	svccs	0x00010000
    1960:	00002c0f 	andeq	r2, r0, pc, lsl #24
    1964:	ef0d2000 	svc	0x000d2000
    1968:	c4000001 	strgt	r0, [r0], #-1
    196c:	0200008d 	andeq	r0, r0, #141, 0	; 0x8d
    1970:	000001d8 	ldrdeq	r0, [r0], -r8
    1974:	4c082001 	stcmi	0, cr2, [r8], {1}
    1978:	0e000001 	cdpeq	0, 0, cr0, cr0, cr1, {0}
    197c:	000001d8 	ldrdeq	r0, [r0], -r8
    1980:	0002000f 	andeq	r0, r2, pc
    1984:	0018a300 	andseq	sl, r8, r0, lsl #6
    1988:	00189f00 	andseq	r9, r8, r0, lsl #30
    198c:	10000000 	andne	r0, r0, r0
    1990:	000001d5 	ldrdeq	r0, [r0], -r5
    1994:	00008dd8 	ldrdeq	r8, [r0], -r8	; <UNPREDICTABLE>
    1998:	008dd801 	addeq	sp, sp, r1, lsl #16
    199c:	00001000 	andeq	r1, r0, r0
    19a0:	09210100 	stmdbeq	r1!, {r8}
    19a4:	00000173 	andeq	r0, r0, r3, ror r1
    19a8:	0001e20f 	andeq	lr, r1, pc, lsl #4
    19ac:	0018ca00 	andseq	ip, r8, r0, lsl #20
    19b0:	0018c200 	andseq	ip, r8, r0, lsl #4
    19b4:	ec110000 	ldc	0, cr0, [r1], {-0}
    19b8:	4f00008d 	svcmi	0x0000008d
    19bc:	11000002 	tstne	r0, r2
    19c0:	00008df0 	strdeq	r8, [r0], -r0
    19c4:	0000025c 	andeq	r0, r0, ip, asr r2
    19c8:	008df812 	addeq	pc, sp, r2, lsl r8	; <UNPREDICTABLE>
    19cc:	00026800 	andeq	r6, r2, r0, lsl #16
    19d0:	00019800 	andeq	r9, r1, r0, lsl #16
    19d4:	50011300 	andpl	r1, r1, r0, lsl #6
    19d8:	12003a01 	andne	r3, r0, #4096	; 0x1000
    19dc:	00008e04 	andeq	r8, r0, r4, lsl #28
    19e0:	00000274 	andeq	r0, r0, r4, ror r2
    19e4:	000001b8 			; <UNDEFINED> instruction: 0x000001b8
    19e8:	05500113 	ldrbeq	r0, [r0, #-275]	; 0xfffffeed
    19ec:	1000240c 	andne	r2, r0, ip, lsl #8
    19f0:	51011320 	tstpl	r1, r0, lsr #6
    19f4:	00010c05 	andeq	r0, r1, r5, lsl #24
    19f8:	14005a00 	strne	r5, [r0], #-2560	; 0xfffff600
    19fc:	00008e10 	andeq	r8, r0, r0, lsl lr
    1a00:	00000274 	andeq	r0, r0, r4, ror r2
    1a04:	05500113 	ldrbeq	r0, [r0, #-275]	; 0xfffffeed
    1a08:	10001c0c 	andne	r1, r0, ip, lsl #24
    1a0c:	51011320 	tstpl	r1, r0, lsr #6
    1a10:	00200c05 	eoreq	r0, r0, r5, lsl #24
    1a14:	00005a00 	andeq	r5, r0, r0, lsl #20
    1a18:	0004ef15 	andeq	lr, r4, r5, lsl pc
    1a1c:	06170100 	ldreq	r0, [r7], -r0, lsl #2
    1a20:	0001ef01 	andeq	lr, r1, r1, lsl #30
    1a24:	054e0900 	strbeq	r0, [lr, #-2304]	; 0xfffff700
    1a28:	18010000 	stmdane	r1, {}	; <UNPREDICTABLE>
    1a2c:	0000310e 	andeq	r3, r0, lr, lsl #2
    1a30:	1f160000 	svcne	0x00160000
    1a34:	01000005 	tsteq	r0, r5
    1a38:	0025050e 	eoreq	r0, r5, lr, lsl #10
    1a3c:	0d010000 	stceq	0, cr0, [r1, #-0]
    1a40:	09000002 	stmdbeq	r0, {r1}
    1a44:	0000054e 	andeq	r0, r0, lr, asr #10
    1a48:	310e0f01 	tstcc	lr, r1, lsl #30
    1a4c:	00000000 	andeq	r0, r0, r0
    1a50:	0001ef17 	andeq	lr, r1, r7, lsl pc
    1a54:	008d9800 	addeq	r9, sp, r0, lsl #16
    1a58:	00001800 	andeq	r1, r0, r0, lsl #16
    1a5c:	2e9c0100 	fmlcse	f0, f4, f0
    1a60:	0f000002 	svceq	0x00000002
    1a64:	00000200 	andeq	r0, r0, r0, lsl #4
    1a68:	00001907 	andeq	r1, r0, r7, lsl #18
    1a6c:	00001903 	andeq	r1, r0, r3, lsl #18
    1a70:	01d51700 	bicseq	r1, r5, r0, lsl #14
    1a74:	8db00000 	ldchi	0, cr0, [r0]
    1a78:	00140000 	andseq	r0, r4, r0
    1a7c:	9c010000 	stcls	0, cr0, [r1], {-0}
    1a80:	0000024f 	andeq	r0, r0, pc, asr #4
    1a84:	0001e20f 	andeq	lr, r1, pc, lsl #4
    1a88:	00192e00 	andseq	r2, r9, r0, lsl #28
    1a8c:	00192600 	andseq	r2, r9, r0, lsl #12
    1a90:	d2180000 	andsle	r0, r8, #0, 0
    1a94:	d2000004 	andle	r0, r0, #4, 0
    1a98:	02000004 	andeq	r0, r0, #4, 0
    1a9c:	19060136 	stmdbne	r6, {r1, r2, r4, r5, r8}
    1aa0:	0000046b 	andeq	r0, r0, fp, ror #8
    1aa4:	0000046b 	andeq	r0, r0, fp, ror #8
    1aa8:	19064d02 	stmdbne	r6, {r1, r8, sl, fp, lr}
    1aac:	00000447 	andeq	r0, r0, r7, asr #8
    1ab0:	00000447 	andeq	r0, r0, r7, asr #8
    1ab4:	19065802 	stmdbne	r6, {r1, fp, ip, lr}
    1ab8:	000004e9 	andeq	r0, r0, r9, ror #9
    1abc:	000004e9 	andeq	r0, r0, r9, ror #9
    1ac0:	0006ad02 	andeq	sl, r6, r2, lsl #26
    1ac4:	0000053f 	andeq	r0, r0, pc, lsr r5
    1ac8:	0bcf0004 	bleq	ff3c1ae0 <__bss_end__+0xff3b7b00>
    1acc:	01040000 	mrseq	r0, (UNDEF: 4)
    1ad0:	0000021f 	andeq	r0, r0, pc, lsl r2
    1ad4:	0005690c 	andeq	r6, r5, ip, lsl #18
    1ad8:	0002f600 	andeq	pc, r2, r0, lsl #12
    1adc:	008e2400 	addeq	r2, lr, r0, lsl #8
    1ae0:	00011c00 	andeq	r1, r1, r0, lsl #24
    1ae4:	00113500 	andseq	r3, r1, r0, lsl #10
    1ae8:	05040200 	streq	r0, [r4, #-512]	; 0xfffffe00
    1aec:	00746e69 	rsbseq	r6, r4, r9, ror #28
    1af0:	6b070403 	blvs	1c2b04 <__bss_end__+0x1b8b24>
    1af4:	03000000 	movweq	r0, #0
    1af8:	000a0601 	andeq	r0, sl, r1, lsl #12
    1afc:	02030000 	andeq	r0, r3, #0, 0
    1b00:	0000c905 	andeq	ip, r0, r5, lsl #18
    1b04:	05040300 	streq	r0, [r4, #-768]	; 0xfffffd00
    1b08:	0000007d 	andeq	r0, r0, sp, ror r0
    1b0c:	78050803 	stmdavc	r5, {r0, r1, fp}
    1b10:	03000000 	movweq	r0, #0
    1b14:	00080801 	andeq	r0, r8, r1, lsl #16
    1b18:	02030000 	andeq	r0, r3, #0, 0
    1b1c:	00002307 	andeq	r2, r0, r7, lsl #6
    1b20:	07040300 	streq	r0, [r4, -r0, lsl #6]
    1b24:	00000066 	andeq	r0, r0, r6, rrx
    1b28:	61070803 	tstvs	r7, r3, lsl #16
    1b2c:	04000000 	streq	r0, [r0], #-0
    1b30:	00000025 	andeq	r0, r0, r5, lsr #32
    1b34:	0000007a 	andeq	r0, r0, sl, ror r0
    1b38:	00002505 	andeq	r2, r0, r5, lsl #10
    1b3c:	86060000 	strhi	r0, [r6], -r0
    1b40:	02000000 	andeq	r0, r0, #0, 0
    1b44:	00860e1c 	addeq	r0, r6, ip, lsl lr
    1b48:	04070000 	streq	r0, [r7], #-0
    1b4c:	0000006b 	andeq	r0, r0, fp, rrx
    1b50:	00002504 	andeq	r2, r0, r4, lsl #10
    1b54:	00009b00 	andeq	r9, r0, r0, lsl #22
    1b58:	009b0500 	addseq	r0, fp, r0, lsl #10
    1b5c:	07000000 	streq	r0, [r0, -r0]
    1b60:	0000a804 	andeq	sl, r0, r4, lsl #16
    1b64:	08010300 	stmdaeq	r1, {r8, r9}
    1b68:	00000011 	andeq	r0, r0, r1, lsl r0
    1b6c:	0000a108 	andeq	sl, r0, r8, lsl #2
    1b70:	03210600 			; <UNDEFINED> instruction: 0x03210600
    1b74:	21020000 	mrscs	r0, (UNDEF: 2)
    1b78:	0000b90e 	andeq	fp, r0, lr, lsl #18
    1b7c:	8c040700 	stchi	7, cr0, [r4], {-0}
    1b80:	09000000 	stmdbeq	r0, {}	; <UNPREDICTABLE>
    1b84:	0000055f 	andeq	r0, r0, pc, asr r5
    1b88:	ec061e01 	stc	14, cr1, [r6], {1}
    1b8c:	5400008e 	strpl	r0, [r0], #-142	; 0xffffff72
    1b90:	01000000 	mrseq	r0, (UNDEF: 0)
    1b94:	00020b9c 	muleq	r2, ip, fp
    1b98:	65730a00 	ldrbvs	r0, [r3, #-2560]!	; 0xfffff600
    1b9c:	1e010063 	cdpne	0, 0, cr0, cr1, cr3, {3}
    1ba0:	00002c19 	andeq	r2, r0, r9, lsl ip
    1ba4:	00196b00 	andseq	r6, r9, r0, lsl #22
    1ba8:	00196700 	andseq	r6, r9, r0, lsl #14
    1bac:	020b0b00 	andeq	r0, fp, #0, 22
    1bb0:	8eec0000 	cdphi	0, 14, cr0, cr12, cr0, {0}
    1bb4:	b8020000 	stmdalt	r2, {}	; <UNPREDICTABLE>
    1bb8:	01000002 	tsteq	r0, r2
    1bbc:	180c051f 	stmdane	ip, {r0, r1, r2, r3, r4, r8, sl}
    1bc0:	90000002 	andls	r0, r0, r2
    1bc4:	8c000019 	stchi	0, cr0, [r0], {25}
    1bc8:	0d000019 	stceq	0, cr0, [r0, #-100]	; 0xffffff9c
    1bcc:	00000224 	andeq	r0, r0, r4, lsr #4
    1bd0:	00008f00 	andeq	r8, r0, r0, lsl #30
    1bd4:	008f0000 	addeq	r0, pc, r0
    1bd8:	00004000 	andeq	r4, r0, r0
    1bdc:	051c0100 	ldreq	r0, [ip, #-256]	; 0xffffff00
    1be0:	0002310c 	andeq	r3, r2, ip, lsl #2
    1be4:	0019bd00 	andseq	fp, r9, r0, lsl #26
    1be8:	0019bb00 	andseq	fp, r9, r0, lsl #22
    1bec:	023c0e00 	eorseq	r0, ip, #0, 28
    1bf0:	19d20000 	ldmibne	r2, {}^	; <UNPREDICTABLE>
    1bf4:	19d00000 	ldmibne	r0, {}^	; <UNPREDICTABLE>
    1bf8:	550f0000 	strpl	r0, [pc, #-0]	; 1c00 <__code_start__-0x6400>
    1bfc:	00000002 	andeq	r0, r0, r2
    1c00:	0200008f 	andeq	r0, r0, #143, 0	; 0x8f
    1c04:	00008f00 	andeq	r8, r0, r0, lsl #30
    1c08:	00000014 	andeq	r0, r0, r4, lsl r0
    1c0c:	9c131301 	ldcls	3, cr1, [r3], {1}
    1c10:	0e000001 	cdpeq	0, 0, cr0, cr0, cr1, {0}
    1c14:	00000266 	andeq	r0, r0, r6, ror #4
    1c18:	000019e9 	andeq	r1, r0, r9, ror #19
    1c1c:	000019e5 	andeq	r1, r0, r5, ror #19
    1c20:	0002710f 	andeq	r7, r2, pc, lsl #2
    1c24:	008f0400 	addeq	r0, pc, r0, lsl #8
    1c28:	8f040100 	svchi	0x00040100
    1c2c:	000c0000 	andeq	r0, ip, r0
    1c30:	0d010000 	stceq	0, cr0, [r1, #-0]
    1c34:	00018912 	andeq	r8, r1, r2, lsl r9
    1c38:	8f0c1000 	svchi	0x000c1000
    1c3c:	052a0000 	streq	r0, [sl, #-0]!
    1c40:	01110000 	tsteq	r1, r0
    1c44:	040c0550 	streq	r0, [ip], #-1360	; 0xfffffab0
    1c48:	00200030 	eoreq	r0, r0, r0, lsr r0
    1c4c:	8f041200 	svchi	0x00041200
    1c50:	05360000 	ldreq	r0, [r6, #-0]!
    1c54:	14120000 	ldrne	r0, [r2], #-0
    1c58:	3600008f 	strcc	r0, [r0], -pc, lsl #1
    1c5c:	00000005 	andeq	r0, r0, r5
    1c60:	00024713 	andeq	r4, r2, r3, lsl r7
    1c64:	0002d000 	andeq	sp, r2, r0
    1c68:	02481400 	subeq	r1, r8, #0, 8
    1c6c:	550b0000 	strpl	r0, [fp, #-0]
    1c70:	18000002 	stmdane	r0, {r1}
    1c74:	0200008f 	andeq	r0, r0, #143, 0	; 0x8f
    1c78:	000002e8 	andeq	r0, r0, r8, ror #5
    1c7c:	15171501 	ldrne	r1, [r7, #-1281]	; 0xfffffaff
    1c80:	000002e8 	andeq	r0, r0, r8, ror #5
    1c84:	0002660e 	andeq	r6, r2, lr, lsl #12
    1c88:	001a0900 	andseq	r0, sl, r0, lsl #18
    1c8c:	001a0700 	andseq	r0, sl, r0, lsl #14
    1c90:	02711600 	rsbseq	r1, r1, #0, 12
    1c94:	8f1c0000 	svchi	0x001c0000
    1c98:	08010000 	stmdaeq	r1, {}	; <UNPREDICTABLE>
    1c9c:	01000003 	tsteq	r0, r3
    1ca0:	01f3120d 	mvnseq	r1, sp, lsl #4
    1ca4:	24100000 	ldrcs	r0, [r0], #-0
    1ca8:	2a00008f 	bcs	1eec <__code_start__-0x6114>
    1cac:	11000005 	tstne	r0, r5
    1cb0:	77025001 	strvc	r5, [r2, -r1]
    1cb4:	12000000 	andne	r0, r0, #0, 0
    1cb8:	00008f1c 	andeq	r8, r0, ip, lsl pc
    1cbc:	00000536 	andeq	r0, r0, r6, lsr r5
    1cc0:	008f3012 	addeq	r3, pc, r2, lsl r0	; <UNPREDICTABLE>
    1cc4:	00053600 	andeq	r3, r5, r0, lsl #12
    1cc8:	00000000 	andeq	r0, r0, r0
    1ccc:	17000000 	strne	r0, [r0, -r0]
    1cd0:	00000447 	andeq	r0, r0, r7, asr #8
    1cd4:	01061b01 	tsteq	r6, r1, lsl #22
    1cd8:	00000224 	andeq	r0, r0, r4, lsr #4
    1cdc:	00736d18 	rsbseq	r6, r3, r8, lsl sp
    1ce0:	2c181b01 			; <UNDEFINED> instruction: 0x2c181b01
    1ce4:	00000000 	andeq	r0, r0, r0
    1ce8:	00059217 	andeq	r9, r5, r7, lsl r2
    1cec:	06120100 	ldreq	r0, [r2], -r0, lsl #2
    1cf0:	00025501 	andeq	r5, r2, r1, lsl #10
    1cf4:	73751800 	cmnvc	r5, #0, 16
    1cf8:	18120100 	ldmdane	r2, {r8}
    1cfc:	0000002c 	andeq	r0, r0, ip, lsr #32
    1d00:	00627219 	rsbeq	r7, r2, r9, lsl r2
    1d04:	2c0e1301 	stccs	3, cr1, [lr], {1}
    1d08:	1a000000 	bne	1d10 <__code_start__-0x62f0>
    1d0c:	00617219 	rsbeq	r7, r1, r9, lsl r2
    1d10:	2c121501 	cfldr32cs	mvfx1, [r2], {1}
    1d14:	00000000 	andeq	r0, r0, r0
    1d18:	05831b00 	streq	r1, [r3, #2816]	; 0xb00
    1d1c:	09010000 	stmdbeq	r1, {}	; <UNPREDICTABLE>
    1d20:	00002c0a 	andeq	r2, r0, sl, lsl #24
    1d24:	02710100 	rsbseq	r0, r1, #0
    1d28:	75190000 	ldrvc	r0, [r9, #-0]
    1d2c:	0e0d0100 	adfeqe	f0, f5, f0
    1d30:	0000002c 	andeq	r0, r0, ip, lsr #32
    1d34:	059b1c00 	ldreq	r1, [fp, #3072]	; 0xc00
    1d38:	04010000 	streq	r0, [r1], #-0
    1d3c:	00002c0a 	andeq	r2, r0, sl, lsl #24
    1d40:	711d0100 	tstvc	sp, r0, lsl #2
    1d44:	24000002 	strcs	r0, [r0], #-2
    1d48:	0c00008e 	stceq	0, cr0, [r0], {142}	; 0x8e
    1d4c:	01000000 	mrseq	r0, (UNDEF: 0)
    1d50:	0002a59c 	muleq	r2, ip, r5
    1d54:	8e2c1e00 	cdphi	14, 2, cr1, cr12, cr0, {0}
    1d58:	052a0000 	streq	r0, [sl, #-0]!
    1d5c:	01110000 	tsteq	r1, r0
    1d60:	040c0550 	streq	r0, [ip], #-1360	; 0xfffffab0
    1d64:	00200030 	eoreq	r0, r0, r0, lsr r0
    1d68:	02551d00 	subseq	r1, r5, #0, 26
    1d6c:	8e300000 	cdphi	0, 3, cr0, cr0, cr0, {0}
    1d70:	00240000 	eoreq	r0, r4, r0
    1d74:	9c010000 	stcls	0, cr0, [r1], {-0}
    1d78:	00000305 	andeq	r0, r0, r5, lsl #6
    1d7c:	0002660e 	andeq	r6, r2, lr, lsl #12
    1d80:	001a2000 	andseq	r2, sl, r0
    1d84:	001a1c00 	andseq	r1, sl, r0, lsl #24
    1d88:	02710f00 	rsbseq	r0, r1, #0, 30
    1d8c:	8e380000 	cdphi	0, 3, cr0, cr8, cr0, {0}
    1d90:	38010000 	stmdacc	r1, {}	; <UNPREDICTABLE>
    1d94:	0c00008e 	stceq	0, cr0, [r0], {142}	; 0x8e
    1d98:	01000000 	mrseq	r0, (UNDEF: 0)
    1d9c:	02f2120d 	rscseq	r1, r2, #-805306368	; 0xd0000000
    1da0:	40100000 	andsmi	r0, r0, r0
    1da4:	2a00008e 	bcs	1fe4 <__code_start__-0x601c>
    1da8:	11000005 	tstne	r0, r5
    1dac:	0c055001 	stceq	0, cr5, [r5], {1}
    1db0:	20003004 	andcs	r3, r0, r4
    1db4:	38120000 	ldmdacc	r2, {}	; <UNPREDICTABLE>
    1db8:	3600008e 	strcc	r0, [r0], -lr, lsl #1
    1dbc:	12000005 	andne	r0, r0, #5, 0
    1dc0:	00008e48 	andeq	r8, r0, r8, asr #28
    1dc4:	00000536 	andeq	r0, r0, r6, lsr r5
    1dc8:	02241d00 	eoreq	r1, r4, #0, 26
    1dcc:	8e540000 	cdphi	0, 5, cr0, cr4, cr0, {0}
    1dd0:	00480000 	subeq	r0, r8, r0
    1dd4:	9c010000 	stcls	0, cr0, [r1], {-0}
    1dd8:	00000407 	andeq	r0, r0, r7, lsl #8
    1ddc:	0002310c 	andeq	r3, r2, ip, lsl #2
    1de0:	001a4200 	andseq	r4, sl, r0, lsl #4
    1de4:	001a3e00 	andseq	r3, sl, r0, lsl #28
    1de8:	023c0e00 	eorseq	r0, ip, #0, 28
    1dec:	1a620000 	bne	1881df4 <__bss_end__+0x1877e14>
    1df0:	1a600000 	bne	1801df8 <__bss_end__+0x17f7e18>
    1df4:	55160000 	ldrpl	r0, [r6, #-0]
    1df8:	54000002 	strpl	r0, [r0], #-2
    1dfc:	0200008e 	andeq	r0, r0, #142, 0	; 0x8e
    1e00:	00000200 	andeq	r0, r0, r0, lsl #4
    1e04:	9a131301 	bls	4c6a10 <__bss_end__+0x4bca30>
    1e08:	15000003 	strne	r0, [r0, #-3]
    1e0c:	00000200 	andeq	r0, r0, r0, lsl #4
    1e10:	0002660e 	andeq	r6, r2, lr, lsl #12
    1e14:	001a7900 	andseq	r7, sl, r0, lsl #18
    1e18:	001a7500 	andseq	r7, sl, r0, lsl #10
    1e1c:	02710f00 	rsbseq	r0, r1, #0, 30
    1e20:	8e600000 	cdphi	0, 6, cr0, cr0, cr0, {0}
    1e24:	60010000 	andvs	r0, r1, r0
    1e28:	0c00008e 	stceq	0, cr0, [r0], {142}	; 0x8e
    1e2c:	01000000 	mrseq	r0, (UNDEF: 0)
    1e30:	0386120d 	orreq	r1, r6, #-805306368	; 0xd0000000
    1e34:	68100000 	ldmdavs	r0, {}	; <UNPREDICTABLE>
    1e38:	2a00008e 	bcs	2078 <__code_start__-0x5f88>
    1e3c:	11000005 	tstne	r0, r5
    1e40:	0c055001 	stceq	0, cr5, [r5], {1}
    1e44:	20003004 	andcs	r3, r0, r4
    1e48:	60120000 	andsvs	r0, r2, r0
    1e4c:	3600008e 	strcc	r0, [r0], -lr, lsl #1
    1e50:	12000005 	andne	r0, r0, #5, 0
    1e54:	00008e70 	andeq	r8, r0, r0, ror lr
    1e58:	00000536 	andeq	r0, r0, r6, lsr r5
    1e5c:	47130000 	ldrmi	r0, [r3, -r0]
    1e60:	18000002 	stmdane	r0, {r1}
    1e64:	14000002 	strne	r0, [r0], #-2
    1e68:	00000248 	andeq	r0, r0, r8, asr #4
    1e6c:	0002550b 	andeq	r5, r2, fp, lsl #10
    1e70:	008e7400 	addeq	r7, lr, r0, lsl #8
    1e74:	02300200 	eorseq	r0, r0, #0, 4
    1e78:	15010000 	strne	r0, [r1, #-0]
    1e7c:	02301517 	eorseq	r1, r0, #96468992	; 0x5c00000
    1e80:	660e0000 	strvs	r0, [lr], -r0
    1e84:	99000002 	stmdbls	r0, {r1}
    1e88:	9700001a 	smladls	r0, sl, r0, r0
    1e8c:	1600001a 			; <UNDEFINED> instruction: 0x1600001a
    1e90:	00000271 	andeq	r0, r0, r1, ror r2
    1e94:	00008e78 	andeq	r8, r0, r8, ror lr
    1e98:	00025001 	andeq	r5, r2, r1
    1e9c:	120d0100 	andne	r0, sp, #0
    1ea0:	000003f1 	strdeq	r0, [r0], -r1
    1ea4:	008e8010 	addeq	r8, lr, r0, lsl r0
    1ea8:	00052a00 	andeq	r2, r5, r0, lsl #20
    1eac:	50011100 	andpl	r1, r1, r0, lsl #2
    1eb0:	00007702 	andeq	r7, r0, r2, lsl #14
    1eb4:	8e781200 	cdphi	2, 7, cr1, cr8, cr0, {0}
    1eb8:	05360000 	ldreq	r0, [r6, #-0]!
    1ebc:	8c120000 	ldchi	0, cr0, [r2], {-0}
    1ec0:	3600008e 	strcc	r0, [r0], -lr, lsl #1
    1ec4:	00000005 	andeq	r0, r0, r5
    1ec8:	1d000000 	stcne	0, cr0, [r0, #-0]
    1ecc:	0000020b 	andeq	r0, r0, fp, lsl #4
    1ed0:	00008e9c 	muleq	r0, ip, lr
    1ed4:	00000050 	andeq	r0, r0, r0, asr r0
    1ed8:	052a9c01 	streq	r9, [sl, #-3073]!	; 0xfffff3ff
    1edc:	180c0000 	stmdane	ip, {}	; <UNPREDICTABLE>
    1ee0:	b0000002 	andlt	r0, r0, r2
    1ee4:	ac00001a 	stcge	0, cr0, [r0], {26}
    1ee8:	0d00001a 	stceq	0, cr0, [r0, #-104]	; 0xffffff98
    1eec:	00000224 	andeq	r0, r0, r4, lsr #4
    1ef0:	00008eac 	andeq	r8, r0, ip, lsr #29
    1ef4:	008eac00 	addeq	sl, lr, r0, lsl #24
    1ef8:	00004000 	andeq	r4, r0, r0
    1efc:	051c0100 	ldreq	r0, [ip, #-256]	; 0xffffff00
    1f00:	0002310c 	andeq	r3, r2, ip, lsl #2
    1f04:	001ad300 	andseq	sp, sl, r0, lsl #6
    1f08:	001ad100 	andseq	sp, sl, r0, lsl #2
    1f0c:	023c0e00 	eorseq	r0, ip, #0, 28
    1f10:	1ae80000 	bne	ffa01f18 <__bss_end__+0xff9f7f38>
    1f14:	1ae60000 	bne	ff981f1c <__bss_end__+0xff977f3c>
    1f18:	550f0000 	strpl	r0, [pc, #-0]	; 1f20 <__code_start__-0x60e0>
    1f1c:	ac000002 	stcge	0, cr0, [r0], {2}
    1f20:	0200008e 	andeq	r0, r0, #142, 0	; 0x8e
    1f24:	00008eac 	andeq	r8, r0, ip, lsr #29
    1f28:	00000014 	andeq	r0, r0, r4, lsl r0
    1f2c:	bc131301 	ldclt	3, cr1, [r3], {1}
    1f30:	0e000004 	cdpeq	0, 0, cr0, cr0, cr4, {0}
    1f34:	00000266 	andeq	r0, r0, r6, ror #4
    1f38:	00001aff 	strdeq	r1, [r0], -pc	; <UNPREDICTABLE>
    1f3c:	00001afb 	strdeq	r1, [r0], -fp
    1f40:	0002710f 	andeq	r7, r2, pc, lsl #2
    1f44:	008eb000 	addeq	fp, lr, r0
    1f48:	8eb00100 	frdhis	f0, f0, f0
    1f4c:	000c0000 	andeq	r0, ip, r0
    1f50:	0d010000 	stceq	0, cr0, [r1, #-0]
    1f54:	0004a912 	andeq	sl, r4, r2, lsl r9
    1f58:	8eb81000 	cdphi	0, 11, cr1, cr8, cr0, {0}
    1f5c:	052a0000 	streq	r0, [sl, #-0]!
    1f60:	01110000 	tsteq	r1, r0
    1f64:	040c0550 	streq	r0, [ip], #-1360	; 0xfffffab0
    1f68:	00200030 	eoreq	r0, r0, r0, lsr r0
    1f6c:	8eb01200 	cdphi	2, 11, cr1, cr0, cr0, {0}
    1f70:	05360000 	ldreq	r0, [r6, #-0]!
    1f74:	c0120000 	andsgt	r0, r2, r0
    1f78:	3600008e 	strcc	r0, [r0], -lr, lsl #1
    1f7c:	00000005 	andeq	r0, r0, r5
    1f80:	00024713 	andeq	r4, r2, r3, lsl r7
    1f84:	00026800 	andeq	r6, r2, r0, lsl #16
    1f88:	02481400 	subeq	r1, r8, #0, 8
    1f8c:	550b0000 	strpl	r0, [fp, #-0]
    1f90:	c4000002 	strgt	r0, [r0], #-2
    1f94:	0200008e 	andeq	r0, r0, #142, 0	; 0x8e
    1f98:	00000280 	andeq	r0, r0, r0, lsl #5
    1f9c:	15171501 	ldrne	r1, [r7, #-1281]	; 0xfffffaff
    1fa0:	00000280 	andeq	r0, r0, r0, lsl #5
    1fa4:	0002660e 	andeq	r6, r2, lr, lsl #12
    1fa8:	001b1f00 	andseq	r1, fp, r0, lsl #30
    1fac:	001b1d00 	andseq	r1, fp, r0, lsl #26
    1fb0:	02711600 	rsbseq	r1, r1, #0, 12
    1fb4:	8ec80000 	cdphi	0, 12, cr0, cr8, cr0, {0}
    1fb8:	a0010000 	andge	r0, r1, r0
    1fbc:	01000002 	tsteq	r0, r2
    1fc0:	0513120d 	ldreq	r1, [r3, #-525]	; 0xfffffdf3
    1fc4:	d0100000 	andsle	r0, r0, r0
    1fc8:	2a00008e 	bcs	2208 <__code_start__-0x5df8>
    1fcc:	11000005 	tstne	r0, r5
    1fd0:	77025001 	strvc	r5, [r2, -r1]
    1fd4:	12000000 	andne	r0, r0, #0, 0
    1fd8:	00008ec8 	andeq	r8, r0, r8, asr #29
    1fdc:	00000536 	andeq	r0, r0, r6, lsr r5
    1fe0:	008edc12 	addeq	sp, lr, r2, lsl ip
    1fe4:	00053600 	andeq	r3, r5, r0, lsl #12
    1fe8:	00000000 	andeq	r0, r0, r0
    1fec:	7d1f0000 	ldcvc	0, cr0, [pc, #-0]	; 1ff4 <__code_start__-0x600c>
    1ff0:	7d000005 	stcvc	0, cr0, [r0, #-20]	; 0xffffffec
    1ff4:	02000005 	andeq	r0, r0, #5, 0
    1ff8:	531f0ac2 	tstpl	pc, #794624	; 0xc2000
    1ffc:	53000005 	movwpl	r0, #5
    2000:	02000005 	andeq	r0, r0, #5, 0
    2004:	cd00069c 	stcgt	6, cr0, [r0, #-624]	; 0xfffffd90
    2008:	04000005 	streq	r0, [r0], #-5
    200c:	000d9e00 	andeq	r9, sp, r0, lsl #28
    2010:	ae010400 	cfcpysge	mvf0, mvf1
    2014:	0c000006 	stceq	0, cr0, [r0], {6}
    2018:	000005ed 	andeq	r0, r0, sp, ror #11
    201c:	0000065e 	andeq	r0, r0, lr, asr r6
    2020:	00008f40 	andeq	r8, r0, r0, asr #30
    2024:	000001f0 	strdeq	r0, [r0], -r0	; <UNPREDICTABLE>
    2028:	00001333 	andeq	r1, r0, r3, lsr r3
    202c:	69050402 	stmdbvs	r5, {r1, sl}
    2030:	0300746e 	movweq	r7, #1134	; 0x46e
    2034:	006b0704 	rsbeq	r0, fp, r4, lsl #14
    2038:	2c040000 	stccs	0, cr0, [r4], {-0}
    203c:	03000000 	movweq	r0, #0
    2040:	000a0601 	andeq	r0, sl, r1, lsl #12
    2044:	02030000 	andeq	r0, r3, #0, 0
    2048:	0000c905 	andeq	ip, r0, r5, lsl #18
    204c:	05040300 	streq	r0, [r4, #-768]	; 0xfffffd00
    2050:	0000007d 	andeq	r0, r0, sp, ror r0
    2054:	78050803 	stmdavc	r5, {r0, r1, fp}
    2058:	03000000 	movweq	r0, #0
    205c:	00080801 	andeq	r0, r8, r1, lsl #16
    2060:	02030000 	andeq	r0, r3, #0, 0
    2064:	00002307 	andeq	r2, r0, r7, lsl #6
    2068:	03ab0500 			; <UNDEFINED> instruction: 0x03ab0500
    206c:	34050000 	strcc	r0, [r5], #-0
    2070:	00006e19 	andeq	r6, r0, r9, lsl lr
    2074:	07040300 	streq	r0, [r4, -r0, lsl #6]
    2078:	00000066 	andeq	r0, r0, r6, rrx
    207c:	61070803 	tstvs	r7, r3, lsl #16
    2080:	03000000 	movweq	r0, #0
    2084:	00110801 	andseq	r0, r1, r1, lsl #16
    2088:	07060000 	streq	r0, [r6, -r0]
    208c:	00005401 	andeq	r5, r0, r1, lsl #8
    2090:	0e0c0400 	cfcpyseq	mvf0, mvf12
    2094:	000000c2 	andeq	r0, r0, r2, asr #1
    2098:	00079807 	andeq	r9, r7, r7, lsl #16
    209c:	d0070000 	andle	r0, r7, r0
    20a0:	01000005 	tsteq	r0, r5
    20a4:	00061307 	andeq	r1, r6, r7, lsl #6
    20a8:	22070400 	andcs	r0, r7, #0, 8
    20ac:	05000006 	streq	r0, [r0, #-6]
    20b0:	00063107 	andeq	r3, r6, r7, lsl #2
    20b4:	40070600 	andmi	r0, r7, r0, lsl #12
    20b8:	07000006 	streq	r0, [r0, -r6]
    20bc:	00076107 	andeq	r6, r7, r7, lsl #2
    20c0:	4f070300 	svcmi	0x00070300
    20c4:	02000006 	andeq	r0, r0, #6, 0
    20c8:	05e10800 	strbeq	r0, [r1, #2048]!	; 0x800
    20cc:	022c0000 	eoreq	r0, ip, #0, 0
    20d0:	015e0806 	cmpeq	lr, r6, lsl #16
    20d4:	69090000 	stmdbvs	r9, {}	; <UNPREDICTABLE>
    20d8:	0902006f 	stmdbeq	r2, {r0, r1, r2, r3, r5, r6}
    20dc:	00003309 	andeq	r3, r0, r9, lsl #6
    20e0:	69090000 	stmdbvs	r9, {}	; <UNPREDICTABLE>
    20e4:	02007265 	andeq	r7, r0, #1342177286	; 0x50000006
    20e8:	0033090a 	eorseq	r0, r3, sl, lsl #18
    20ec:	09040000 	stmdbeq	r4, {}	; <UNPREDICTABLE>
    20f0:	00726969 	rsbseq	r6, r2, r9, ror #18
    20f4:	33091102 	movwcc	r1, #37122	; 0x9102
    20f8:	08000000 	stmdaeq	r0, {}	; <UNPREDICTABLE>
    20fc:	72636c09 	rsbvc	r6, r3, #2304	; 0x900
    2100:	09130200 	ldmdbeq	r3, {r9}
    2104:	00000033 	andeq	r0, r0, r3, lsr r0
    2108:	636d090c 	cmnvs	sp, #12, 18	; 0x30000
    210c:	14020072 	strne	r0, [r2], #-114	; 0xffffff8e
    2110:	00003309 	andeq	r3, r0, r9, lsl #6
    2114:	6c091000 	stcvs	0, cr1, [r9], {-0}
    2118:	02007273 	andeq	r7, r0, #805306375	; 0x30000007
    211c:	00330915 	eorseq	r0, r3, r5, lsl r9
    2120:	09140000 	ldmdbeq	r4, {}	; <UNPREDICTABLE>
    2124:	0072736d 	rsbseq	r7, r2, sp, ror #6
    2128:	33091602 	movwcc	r1, #38402	; 0x9602
    212c:	18000000 	stmdane	r0, {}	; <UNPREDICTABLE>
    2130:	0007780a 	andeq	r7, r7, sl, lsl #16
    2134:	09170200 	ldmdbeq	r7, {r9}
    2138:	00000033 	andeq	r0, r0, r3, lsr r0
    213c:	07410a1c 	smlaldeq	r0, r1, ip, sl
    2140:	1b020000 	blne	82148 <__bss_end__+0x78168>
    2144:	00003309 	andeq	r3, r0, r9, lsl #6
    2148:	bd0a2000 	stclt	0, cr2, [sl, #-0]
    214c:	02000005 	andeq	r0, r0, #5, 0
    2150:	0033091d 	eorseq	r0, r3, sp, lsl r9
    2154:	0a240000 	beq	90215c <__bss_end__+0x8f817c>
    2158:	00000693 	muleq	r0, r3, r6
    215c:	33091e02 	movwcc	r1, #40450	; 0x9e02
    2160:	28000000 	stmdacs	r0, {}	; <UNPREDICTABLE>
    2164:	06980b00 	ldreq	r0, [r8], r0, lsl #22
    2168:	08010000 	stmdaeq	r1, {}	; <UNPREDICTABLE>
    216c:	00017409 	andeq	r7, r1, r9, lsl #8
    2170:	21500400 	cmpcs	r0, r0, lsl #8
    2174:	33040c20 	movwcc	r0, #19488	; 0x4c20
    2178:	0d000000 	stceq	0, cr0, [r0, #-0]
    217c:	0000016e 	andeq	r0, r0, lr, ror #2
    2180:	0007800b 	andeq	r8, r7, fp
    2184:	23290100 			; <UNDEFINED> instruction: 0x23290100
    2188:	0000018f 	andeq	r0, r0, pc, lsl #3
    218c:	20215040 	eorcs	r5, r1, r0, asr #32
    2190:	00c2040c 	sbceq	r0, r2, ip, lsl #8
    2194:	890d0000 	stmdbhi	sp, {}	; <UNPREDICTABLE>
    2198:	0e000001 	cdpeq	0, 0, cr0, cr0, cr1, {0}
    219c:	0000046b 	andeq	r0, r0, fp, ror #8
    21a0:	f806cc01 			; <UNDEFINED> instruction: 0xf806cc01
    21a4:	14000090 	strne	r0, [r0], #-144	; 0xffffff70
    21a8:	01000000 	mrseq	r0, (UNDEF: 0)
    21ac:	0001b49c 	muleq	r1, ip, r4
    21b0:	91000f00 	tstls	r0, r0, lsl #30
    21b4:	01b40000 			; <UNDEFINED> instruction: 0x01b40000
    21b8:	10000000 	andne	r0, r0, r0
    21bc:	00000602 	andeq	r0, r0, r2, lsl #12
    21c0:	2505b601 	strcs	fp, [r5, #-1537]	; 0xfffff9ff
    21c4:	d8000000 	stmdale	r0, {}	; <UNPREDICTABLE>
    21c8:	20000090 	mulcs	r0, r0, r0
    21cc:	01000000 	mrseq	r0, (UNDEF: 0)
    21d0:	0001eb9c 	muleq	r1, ip, fp
    21d4:	90e00f00 	rscls	r0, r0, r0, lsl #30
    21d8:	05a00000 	streq	r0, [r0, #0]!
    21dc:	e8110000 	ldmda	r1, {}	; <UNPREDICTABLE>
    21e0:	ac000090 	stcge	0, cr0, [r0], {144}	; 0x90
    21e4:	12000005 	andne	r0, r0, #5, 0
    21e8:	0c055001 	stceq	0, cr5, [r5], {1}
    21ec:	20215064 	eorcs	r5, r1, r4, rrx
    21f0:	53100000 	tstpl	r0, #0, 0
    21f4:	01000007 	tsteq	r0, r7
    21f8:	002505b3 	strhteq	r0, [r5], -r3
    21fc:	90c80000 	sbcls	r0, r8, r0
    2200:	00100000 	andseq	r0, r0, r0
    2204:	9c010000 	stcls	0, cr0, [r1], {-0}
    2208:	00000218 	andeq	r0, r0, r8, lsl r2
    220c:	0090d00f 	addseq	sp, r0, pc
    2210:	0005a000 	andeq	sl, r5, r0
    2214:	90d40f00 	sbcsls	r0, r4, r0, lsl #30
    2218:	03090000 	movweq	r0, #36864	; 0x9000
    221c:	0e000000 	cdpeq	0, 0, cr0, cr0, cr0, {0}
    2220:	0000078e 	andeq	r0, r0, lr, lsl #15
    2224:	9806ab01 	stmdals	r6, {r0, r8, r9, fp, sp, pc}
    2228:	30000090 	mulcc	r0, r0, r0
    222c:	01000000 	mrseq	r0, (UNDEF: 0)
    2230:	00027c9c 	muleq	r2, ip, ip
    2234:	00631300 	rsbeq	r1, r3, r0, lsl #6
    2238:	2c19ab01 			; <UNDEFINED> instruction: 0x2c19ab01
    223c:	36000000 	strcc	r0, [r0], -r0
    2240:	3200001b 	andcc	r0, r0, #27, 0
    2244:	0f00001b 	svceq	0x0000001b
    2248:	000090a4 	andeq	r9, r0, r4, lsr #1
    224c:	000005a0 	andeq	r0, r0, r0, lsr #11
    2250:	0090a80f 	addseq	sl, r0, pc, lsl #16
    2254:	0002db00 	andeq	sp, r2, r0, lsl #22
    2258:	90bc1400 	adcsls	r1, ip, r0, lsl #8
    225c:	05b80000 	ldreq	r0, [r8, #0]!
    2260:	02720000 	rsbseq	r0, r2, #0, 0
    2264:	01120000 	tsteq	r2, r0
    2268:	400c0550 	andmi	r0, ip, r0, asr r5
    226c:	12202150 	eorne	r2, r0, #20
    2270:	74055101 	strvc	r5, [r5], #-257	; 0xfffffeff
    2274:	1aff0800 	bne	fffc427c <__bss_end__+0xfffba29c>
    2278:	90c00f00 	sbcls	r0, r0, r0, lsl #30
    227c:	05a00000 	streq	r0, [r0, #0]!
    2280:	10000000 	andne	r0, r0, r0
    2284:	000006a4 	andeq	r0, r0, r4, lsr #13
    2288:	2505a301 	strcs	sl, [r5, #-769]	; 0xfffffcff
    228c:	68000000 	stmdavs	r0, {}	; <UNPREDICTABLE>
    2290:	30000090 	mulcc	r0, r0, r0
    2294:	01000000 	mrseq	r0, (UNDEF: 0)
    2298:	0002db9c 	muleq	r2, ip, fp
    229c:	00631500 	rsbeq	r1, r3, r0, lsl #10
    22a0:	2509a701 	strcs	sl, [r9, #-1793]	; 0xfffff8ff
    22a4:	56000000 	strpl	r0, [r0], -r0
    22a8:	5400001b 	strpl	r0, [r0], #-27	; 0xffffffe5
    22ac:	0f00001b 	svceq	0x0000001b
    22b0:	00009070 	andeq	r9, r0, r0, ror r0
    22b4:	000005a0 	andeq	r0, r0, r0, lsr #11
    22b8:	0090740f 	addseq	r7, r0, pc, lsl #8
    22bc:	00030900 	andeq	r0, r3, r0, lsl #18
    22c0:	90841400 	addls	r1, r4, r0, lsl #8
    22c4:	05ac0000 	streq	r0, [ip, #0]!
    22c8:	02d10000 	sbcseq	r0, r1, #0, 0
    22cc:	01120000 	tsteq	r2, r0
    22d0:	400c0550 	andmi	r0, ip, r0, asr r5
    22d4:	00202150 	eoreq	r2, r0, r0, asr r1
    22d8:	00908c0f 	addseq	r8, r0, pc, lsl #24
    22dc:	0005a000 	andeq	sl, r5, r0
    22e0:	f4100000 			; <UNDEFINED> instruction: 0xf4100000
    22e4:	01000005 	tsteq	r0, r5
    22e8:	00250594 	mlaeq	r5, r4, r5, r0
    22ec:	90480000 	subls	r0, r8, r0
    22f0:	00200000 	eoreq	r0, r0, r0
    22f4:	9c010000 	stcls	0, cr0, [r1], {-0}
    22f8:	00000309 	andeq	r0, r0, r9, lsl #6
    22fc:	00905411 	addseq	r5, r0, r1, lsl r4
    2300:	0005ac00 	andeq	sl, r5, r0, lsl #24
    2304:	50011200 	andpl	r1, r1, r0, lsl #4
    2308:	50640c05 	rsbpl	r0, r4, r5, lsl #24
    230c:	00002021 	andeq	r2, r0, r1, lsr #32
    2310:	0005c210 	andeq	ip, r5, r0, lsl r2
    2314:	058b0100 	streq	r0, [fp, #256]	; 0x100
    2318:	00000025 	andeq	r0, r0, r5, lsr #32
    231c:	00009030 	andeq	r9, r0, r0, lsr r0
    2320:	00000018 	andeq	r0, r0, r8, lsl r0
    2324:	03379c01 	teqeq	r7, #256	; 0x100
    2328:	3c110000 	ldccc	0, cr0, [r1], {-0}
    232c:	ac000090 	stcge	0, cr0, [r0], {144}	; 0x90
    2330:	12000005 	andne	r0, r0, #5, 0
    2334:	0c055001 	stceq	0, cr5, [r5], {1}
    2338:	20215064 	eorcs	r5, r1, r4, rrx
    233c:	890e0000 	stmdbhi	lr, {}	; <UNPREDICTABLE>
    2340:	01000004 	tsteq	r0, r4
    2344:	8f800645 	svchi	0x00800645
    2348:	00b00000 	adcseq	r0, r0, r0
    234c:	9c010000 	stcls	0, cr0, [r1], {-0}
    2350:	00000484 	andeq	r0, r0, r4, lsl #9
    2354:	0005b416 	andeq	fp, r5, r6, lsl r4
    2358:	0e7e0100 	rpweqe	f0, f6, f0
    235c:	00000062 	andeq	r0, r0, r2, rrx
    2360:	9014010e 	andsls	r0, r4, lr, lsl #2
    2364:	c400008f 	strgt	r0, [r0], #-143	; 0xffffff71
    2368:	73000005 	movwvc	r0, #5
    236c:	12000003 	andne	r0, r0, #3, 0
    2370:	3e015001 	cdpcc	0, 0, cr5, cr1, cr1, {0}
    2374:	01510112 	cmpeq	r1, r2, lsl r1
    2378:	9c140032 	ldcls	0, cr0, [r4], {50}	; 0x32
    237c:	c400008f 	strgt	r0, [r0], #-143	; 0xffffff71
    2380:	8b000005 	blhi	239c <__code_start__-0x5c64>
    2384:	12000003 	andne	r0, r0, #3, 0
    2388:	3f015001 	svccc	0x00015001
    238c:	01510112 	cmpeq	r1, r2, lsl r1
    2390:	a00f0032 	andge	r0, pc, r2, lsr r0	; <UNPREDICTABLE>
    2394:	a000008f 	andge	r0, r0, pc, lsl #1
    2398:	14000005 	strne	r0, [r0], #-5
    239c:	00008fac 	andeq	r8, r0, ip, lsr #31
    23a0:	0000053d 	andeq	r0, r0, sp, lsr r5
    23a4:	000003b0 			; <UNDEFINED> instruction: 0x000003b0
    23a8:	05500112 	ldrbeq	r0, [r0, #-274]	; 0xfffffeee
    23ac:	2150040c 	cmpcs	r0, ip, lsl #8
    23b0:	51011220 	tstpl	r1, r0, lsr #4
    23b4:	0f003101 	svceq	0x00003101
    23b8:	00008fb0 			; <UNDEFINED> instruction: 0x00008fb0
    23bc:	000005a0 	andeq	r0, r0, r0, lsr #11
    23c0:	008fc014 	addeq	ip, pc, r4, lsl r0	; <UNPREDICTABLE>
    23c4:	0005b800 	andeq	fp, r5, r0, lsl #16
    23c8:	0003d200 	andeq	sp, r3, r0, lsl #4
    23cc:	50011200 	andpl	r1, r1, r0, lsl #4
    23d0:	12007402 	andne	r7, r0, #33554432	; 0x2000000
    23d4:	30015101 	andcc	r5, r1, r1, lsl #2
    23d8:	8fcc1400 	svchi	0x00cc1400
    23dc:	05b80000 	ldreq	r0, [r8, #0]!
    23e0:	03ee0000 	mvneq	r0, #0, 0
    23e4:	01120000 	tsteq	r2, r0
    23e8:	440c0550 	strmi	r0, [ip], #-1360	; 0xfffffab0
    23ec:	12202150 	eorne	r2, r0, #20
    23f0:	30015101 	andcc	r5, r1, r1, lsl #2
    23f4:	8fd81400 	svchi	0x00d81400
    23f8:	05b80000 	ldreq	r0, [r8, #0]!
    23fc:	040a0000 	streq	r0, [sl], #-0
    2400:	01120000 	tsteq	r2, r0
    2404:	4c0c0550 	cfstr32mi	mvfx0, [ip], {80}	; 0x50
    2408:	12202150 	eorne	r2, r0, #20
    240c:	33015101 	movwcc	r5, #4353	; 0x1101
    2410:	8fe41400 	svchi	0x00e41400
    2414:	05b80000 	ldreq	r0, [r8, #0]!
    2418:	04260000 	strteq	r0, [r6], #-0
    241c:	01120000 	tsteq	r2, r0
    2420:	500c0550 	andpl	r0, ip, r0, asr r5
    2424:	12202150 	eorne	r2, r0, #20
    2428:	30015101 	andcc	r5, r1, r1, lsl #2
    242c:	8ff01400 	svchi	0x00f01400
    2430:	05b80000 	ldreq	r0, [r8, #0]!
    2434:	04430000 	strbeq	r0, [r3], #-0
    2438:	01120000 	tsteq	r2, r0
    243c:	480c0550 	stmdami	ip, {r4, r6, r8, sl}
    2440:	12202150 	eorne	r2, r0, #20
    2444:	08025101 	stmdaeq	r2, {r0, r8, ip, lr}
    2448:	fc1400c7 	ldc2	0, cr0, [r4], {199}	; 0xc7
    244c:	b800008f 	stmdalt	r0, {r0, r1, r2, r3, r7}
    2450:	61000005 	tstvs	r0, r5
    2454:	12000004 	andne	r0, r0, #4, 0
    2458:	0c055001 	stceq	0, cr5, [r5], {1}
    245c:	20215068 	eorcs	r5, r1, r8, rrx
    2460:	03510112 	cmpeq	r1, #-2147483644	; 0x80000004
    2464:	00010e0a 	andeq	r0, r1, sl, lsl #28
    2468:	00900814 	addseq	r0, r0, r4, lsl r8
    246c:	0005b800 	andeq	fp, r5, r0, lsl #16
    2470:	00047a00 	andeq	r7, r4, r0, lsl #20
    2474:	50011200 	andpl	r1, r1, r0, lsl #4
    2478:	12007402 	andne	r7, r0, #33554432	; 0x2000000
    247c:	33015101 	movwcc	r5, #4353	; 0x1101
    2480:	900c0f00 	andls	r0, ip, r0, lsl #30
    2484:	05a00000 	streq	r0, [r0, #0]!
    2488:	0e000000 	cdpeq	0, 0, cr0, cr0, cr0, {0}
    248c:	00000746 	andeq	r0, r0, r6, asr #14
    2490:	0c063501 	cfstr32eq	mvfx3, [r6], {1}
    2494:	24000091 	strcs	r0, [r0], #-145	; 0xffffff6f
    2498:	01000000 	mrseq	r0, (UNDEF: 0)
    249c:	0004d39c 	muleq	r4, ip, r3
    24a0:	91140f00 	tstls	r4, r0, lsl #30
    24a4:	01940000 	orrseq	r0, r4, r0
    24a8:	180f0000 	stmdane	pc, {}	; <UNPREDICTABLE>
    24ac:	a0000091 	mulge	r0, r1, r0
    24b0:	14000005 	strne	r0, [r0], #-5
    24b4:	00009124 	andeq	r9, r0, r4, lsr #2
    24b8:	000004d3 	ldrdeq	r0, [r0], -r3
    24bc:	000004c9 	andeq	r0, r0, r9, asr #9
    24c0:	05500112 	ldrbeq	r0, [r0, #-274]	; 0xfffffeee
    24c4:	2150040c 	cmpcs	r0, ip, lsl #8
    24c8:	51011220 	tstpl	r1, r0, lsr #4
    24cc:	00fe0902 	rscseq	r0, lr, r2, lsl #18
    24d0:	0091280f 	addseq	r2, r1, pc, lsl #16
    24d4:	0005a000 	andeq	sl, r5, r0
    24d8:	85170000 	ldrhi	r0, [r7, #-0]
    24dc:	01000007 	tsteq	r0, r7
    24e0:	8f400d31 	svchi	0x00400d31
    24e4:	00200000 	eoreq	r0, r0, r0
    24e8:	9c010000 	stcls	0, cr0, [r1], {-0}
    24ec:	00000536 	andeq	r0, r0, r6, lsr r5
    24f0:	0007df18 	andeq	sp, r7, r8, lsl pc
    24f4:	25310100 	ldrcs	r0, [r1, #-256]!	; 0xffffff00
    24f8:	00000536 	andeq	r0, r0, r6, lsr r5
    24fc:	00001b6d 	andeq	r1, r0, sp, ror #22
    2500:	00001b69 	andeq	r1, r0, r9, ror #22
    2504:	6c617613 	stclvs	6, cr7, [r1], #-76	; 0xffffffb4
    2508:	34310100 	ldrtcc	r0, [r1], #-256	; 0xffffff00
    250c:	0000002c 	andeq	r0, r0, ip, lsr #32
    2510:	00001b8f 	andeq	r1, r0, pc, lsl #23
    2514:	00001b8b 	andeq	r1, r0, fp, lsl #23
    2518:	008f5014 	addeq	r5, pc, r4, lsl r0	; <UNPREDICTABLE>
    251c:	0005ac00 	andeq	sl, r5, r0, lsl #24
    2520:	00052500 	andeq	r2, r5, r0, lsl #10
    2524:	50011200 	andpl	r1, r1, r0, lsl #4
    2528:	00007402 	andeq	r7, r0, r2, lsl #8
    252c:	008f5c11 	addeq	r5, pc, r1, lsl ip	; <UNPREDICTABLE>
    2530:	0005b800 	andeq	fp, r5, r0, lsl #16
    2534:	50011200 	andpl	r1, r1, r0, lsl #4
    2538:	00007402 	andeq	r7, r0, r2, lsl #8
    253c:	3c040c00 	stccc	12, cr0, [r4], {-0}
    2540:	19000005 	stmdbne	r0, {r0, r2}
    2544:	00077017 	andeq	r7, r7, r7, lsl r0
    2548:	0d2e0100 	stfeqs	f0, [lr, #-0]
    254c:	00008f60 	andeq	r8, r0, r0, ror #30
    2550:	00000020 	andeq	r0, r0, r0, lsr #32
    2554:	05a09c01 	streq	r9, [r0, #3073]!	; 0xc01
    2558:	df180000 	svcle	0x00180000
    255c:	01000007 	tsteq	r0, r7
    2560:	0536242e 	ldreq	r2, [r6, #-1070]!	; 0xfffffbd2
    2564:	1bb10000 	blne	fec4256c <__bss_end__+0xfec3858c>
    2568:	1bad0000 	blne	feb42570 <__bss_end__+0xfeb38590>
    256c:	76130000 	ldrvc	r0, [r3], -r0
    2570:	01006c61 	tsteq	r0, r1, ror #24
    2574:	002c332e 	eoreq	r3, ip, lr, lsr #6
    2578:	1bd30000 	blne	ff4c2580 <__bss_end__+0xff4b85a0>
    257c:	1bcf0000 	blne	ff3c2584 <__bss_end__+0xff3b85a4>
    2580:	70140000 	andsvc	r0, r4, r0
    2584:	ac00008f 	stcge	0, cr0, [r0], {143}	; 0x8f
    2588:	8f000005 	svchi	0x00000005
    258c:	12000005 	andne	r0, r0, #5, 0
    2590:	74025001 	strvc	r5, [r2], #-1
    2594:	7c110000 	ldcvc	0, cr0, [r1], {-0}
    2598:	b800008f 	stmdalt	r0, {r0, r1, r2, r3, r7}
    259c:	12000005 	andne	r0, r0, #5, 0
    25a0:	74025001 	strvc	r5, [r2], #-1
    25a4:	1a000000 	bne	25ac <__code_start__-0x5a54>
    25a8:	00000553 	andeq	r0, r0, r3, asr r5
    25ac:	00000553 	andeq	r0, r0, r3, asr r5
    25b0:	1a069c03 	bne	1a95c4 <__bss_end__+0x19f5e4>
    25b4:	000007ba 			; <UNDEFINED> instruction: 0x000007ba
    25b8:	000007ba 			; <UNDEFINED> instruction: 0x000007ba
    25bc:	1a0bc303 	bne	2f31d0 <__bss_end__+0x2e91f0>
    25c0:	000005ae 	andeq	r0, r0, lr, lsr #11
    25c4:	000005ae 	andeq	r0, r0, lr, lsr #11
    25c8:	1a06ae03 	bne	1adddc <__bss_end__+0x1a3dfc>
    25cc:	000007a8 	andeq	r0, r0, r8, lsr #15
    25d0:	000007a8 	andeq	r0, r0, r8, lsr #15
    25d4:	00061904 	andeq	r1, r6, r4, lsl #18
    25d8:	000008e9 	andeq	r0, r0, r9, ror #17
    25dc:	0f360004 	svceq	0x00360004
    25e0:	01040000 	mrseq	r0, (UNDEF: 4)
    25e4:	000006ae 	andeq	r0, r0, lr, lsr #13
    25e8:	0008630c 	andeq	r6, r8, ip, lsl #6
    25ec:	00065e00 	andeq	r5, r6, r0, lsl #28
    25f0:	00913000 	addseq	r3, r1, r0
    25f4:	0003b000 	andeq	fp, r3, r0
    25f8:	00153b00 	andseq	r3, r5, r0, lsl #22
    25fc:	05040200 	streq	r0, [r4, #-512]	; 0xfffffe00
    2600:	00746e69 	rsbseq	r6, r4, r9, ror #28
    2604:	6b070403 	blvs	1c3618 <__bss_end__+0x1b9638>
    2608:	03000000 	movweq	r0, #0
    260c:	000a0601 	andeq	r0, sl, r1, lsl #12
    2610:	02030000 	andeq	r0, r3, #0, 0
    2614:	0000c905 	andeq	ip, r0, r5, lsl #18
    2618:	05040300 	streq	r0, [r4, #-768]	; 0xfffffd00
    261c:	0000007d 	andeq	r0, r0, sp, ror r0
    2620:	78050803 	stmdavc	r5, {r0, r1, fp}
    2624:	03000000 	movweq	r0, #0
    2628:	00080801 	andeq	r0, r8, r1, lsl #16
    262c:	02030000 	andeq	r0, r3, #0, 0
    2630:	00002307 	andeq	r2, r0, r7, lsl #6
    2634:	03ab0400 			; <UNDEFINED> instruction: 0x03ab0400
    2638:	34030000 	strcc	r0, [r3], #-0
    263c:	00006919 	andeq	r6, r0, r9, lsl r9
    2640:	07040300 	streq	r0, [r4, -r0, lsl #6]
    2644:	00000066 	andeq	r0, r0, r6, rrx
    2648:	61070803 	tstvs	r7, r3, lsl #16
    264c:	03000000 	movweq	r0, #0
    2650:	00110801 	andseq	r0, r1, r1, lsl #16
    2654:	77050000 	strvc	r0, [r5, -r0]
    2658:	03000000 	movweq	r0, #0
    265c:	00360408 	eorseq	r0, r6, r8, lsl #8
    2660:	04060000 	streq	r0, [r6], #-0
    2664:	2c040707 	stccs	7, cr0, [r4], {7}
    2668:	01000000 	mrseq	r0, (UNDEF: 0)
    266c:	00a4061f 	adceq	r0, r4, pc, lsl r6
    2670:	ea080000 	b	202678 <__bss_end__+0x1f8698>
    2674:	00000007 	andeq	r0, r0, r7
    2678:	00002000 	andeq	r2, r0, r0
    267c:	00039c09 	andeq	r9, r3, r9, lsl #24
    2680:	0d220100 	stfeqs	f0, [r2, #-0]
    2684:	00000077 	andeq	r0, r0, r7, ror r0
    2688:	0008050a 	andeq	r0, r8, sl, lsl #10
    268c:	0e230100 	sufeqs	f0, f3, f0
    2690:	000000c2 	andeq	r0, r0, r2, asr #1
    2694:	9bb80305 	blls	fee032b0 <__bss_end__+0xfedf92d0>
    2698:	040b0000 	streq	r0, [fp], #-0
    269c:	00000077 	andeq	r0, r0, r7, ror r0
    26a0:	0007c80a 	andeq	ip, r7, sl, lsl #16
    26a4:	0e240100 	sufeqs	f0, f4, f0
    26a8:	000000c2 	andeq	r0, r0, r2, asr #1
    26ac:	9bbc0305 	blls	fef032c8 <__bss_end__+0xfeef92e8>
    26b0:	420a0000 	andmi	r0, sl, #0, 0
    26b4:	01000008 	tsteq	r0, r8
    26b8:	00c20e25 	sbceq	r0, r2, r5, lsr #28
    26bc:	03050000 	movweq	r0, #20480	; 0x5000
    26c0:	00009bc0 	andeq	r9, r0, r0, asr #23
    26c4:	0008110c 	andeq	r1, r8, ip, lsl #2
    26c8:	06750100 	ldrbteq	r0, [r5], -r0, lsl #2
    26cc:	00009480 	andeq	r9, r0, r0, lsl #9
    26d0:	00000060 	andeq	r0, r0, r0, rrx
    26d4:	01649c01 	cmneq	r4, r1, lsl #24
    26d8:	700d0000 	andvc	r0, sp, r0
    26dc:	16750100 	ldrbtne	r0, [r5], -r0, lsl #2
    26e0:	0000008a 	andeq	r0, r0, sl, lsl #1
    26e4:	00001bf7 	strdeq	r1, [r0], -r7
    26e8:	00001bf1 	strdeq	r1, [r0], -r1	; <UNPREDICTABLE>
    26ec:	00003d0e 	andeq	r3, r0, lr, lsl #26
    26f0:	00017400 	andeq	r7, r1, r0, lsl #8
    26f4:	a8030500 	stmdage	r3, {r8, sl}
    26f8:	0f00009b 	svceq	0x0000009b
    26fc:	000094cc 	andeq	r9, r0, ip, asr #9
    2700:	000008bc 			; <UNDEFINED> instruction: 0x000008bc
    2704:	0000015a 	andeq	r0, r0, sl, asr r1
    2708:	05500110 	ldrbeq	r0, [r0, #-272]	; 0xfffffef0
    270c:	009b2003 	addseq	r2, fp, r3
    2710:	51011000 	mrspl	r1, (UNDEF: 1)
    2714:	99b80305 	ldmibls	r8!, {r0, r2, r8, r9}
    2718:	01100000 	tsteq	r0, r0
    271c:	a8030552 	stmdage	r3, {r1, r4, r6, r8, sl}
    2720:	1000009b 	mulne	r0, fp, r0
    2724:	08025301 	stmdaeq	r2, {r0, r8, r9, ip, lr}
    2728:	7d021077 	stcvc	0, cr1, [r2, #-476]	; 0xfffffe24
    272c:	01f30300 	mvnseq	r0, r0, lsl #6
    2730:	d0110050 	andsle	r0, r1, r0, asr r0
    2734:	c8000094 	stmdagt	r0, {r2, r4, r7}
    2738:	00000008 	andeq	r0, r0, r8
    273c:	00007e12 	andeq	r7, r0, r2, lsl lr
    2740:	00017400 	andeq	r7, r1, r0, lsl #8
    2744:	002c1300 	eoreq	r1, ip, r0, lsl #6
    2748:	00090000 	andeq	r0, r9, r0
    274c:	00016405 	andeq	r6, r1, r5, lsl #8
    2750:	07f31400 	ldrbeq	r1, [r3, r0, lsl #8]!
    2754:	72010000 	andvc	r0, r1, #0, 0
    2758:	00946c06 	addseq	r6, r4, r6, lsl #24
    275c:	00001400 	andeq	r1, r0, r0, lsl #8
    2760:	0c9c0100 	ldfeqs	f0, [ip], {0}
    2764:	000007e4 	andeq	r0, r0, r4, ror #15
    2768:	68066f01 	stmdavs	r6, {r0, r8, r9, sl, fp, sp, lr}
    276c:	04000094 	streq	r0, [r0], #-148	; 0xffffff6c
    2770:	01000000 	mrseq	r0, (UNDEF: 0)
    2774:	0001ae9c 	muleq	r1, ip, lr
    2778:	00701500 	rsbseq	r1, r0, r0, lsl #10
    277c:	8a126f01 	bhi	49e388 <__bss_end__+0x4943a8>
    2780:	01000000 	mrseq	r0, (UNDEF: 0)
    2784:	bc160050 	ldclt	0, cr0, [r6], {80}	; 0x50
    2788:	01000008 	tsteq	r0, r8
    278c:	008a075e 	addeq	r0, sl, lr, asr r7
    2790:	93500000 	cmpls	r0, #0, 0
    2794:	01180000 	tsteq	r8, r0
    2798:	9c010000 	stcls	0, cr0, [r1], {-0}
    279c:	0000042c 	andeq	r0, r0, ip, lsr #8
    27a0:	0007d717 	andeq	sp, r7, r7, lsl r7
    27a4:	205e0100 	subscs	r0, lr, r0, lsl #2
    27a8:	0000002c 	andeq	r0, r0, ip, lsr #32
    27ac:	00001c38 	andeq	r1, r0, r8, lsr ip
    27b0:	00001c24 	andeq	r1, r0, r4, lsr #24
    27b4:	00082217 	andeq	r2, r8, r7, lsl r2
    27b8:	315e0100 	cmpcc	lr, r0, lsl #2
    27bc:	0000002c 	andeq	r0, r0, ip, lsr #32
    27c0:	00001cd1 	ldrdeq	r1, [r0], -r1	; <UNPREDICTABLE>
    27c4:	00001cbd 			; <UNDEFINED> instruction: 0x00001cbd
    27c8:	00003d0e 	andeq	r3, r0, lr, lsl #26
    27cc:	00043c00 	andeq	r3, r4, r0, lsl #24
    27d0:	90030500 	andls	r0, r3, r0, lsl #10
    27d4:	1800009b 	stmdane	r0, {r0, r1, r3, r4, r7}
    27d8:	66010068 	strvs	r0, [r1], -r8, rrx
    27dc:	00002c0e 	andeq	r2, r0, lr, lsl #24
    27e0:	001d8700 	andseq	r8, sp, r0, lsl #14
    27e4:	001d7b00 	andseq	r7, sp, r0, lsl #22
    27e8:	08541900 	ldmdaeq	r4, {r8, fp, ip}^
    27ec:	93600000 	cmnls	r0, #0, 0
    27f0:	60040000 	andvs	r0, r4, r0
    27f4:	04000093 	streq	r0, [r0], #-147	; 0xffffff6d
    27f8:	01000000 	mrseq	r0, (UNDEF: 0)
    27fc:	02380560 	eorseq	r0, r8, #96, 10	; 0x18000000
    2800:	651a0000 	ldrvs	r0, [sl, #-0]
    2804:	db000008 	blle	282c <__code_start__-0x57d4>
    2808:	d900001d 	stmdble	r0, {r0, r2, r3, r4}
    280c:	0000001d 	andeq	r0, r0, sp, lsl r0
    2810:	00089619 	andeq	r9, r8, r9, lsl r6
    2814:	00936c00 	addseq	r6, r3, r0, lsl #24
    2818:	936c0200 	cmnls	ip, #0, 4
    281c:	00080000 	andeq	r0, r8, r0
    2820:	61010000 	mrsvs	r0, (UNDEF: 1)
    2824:	00026c11 	andeq	r6, r2, r1, lsl ip
    2828:	08b11a00 	ldmeq	r1!, {r9, fp, ip}
    282c:	1df00000 	ldclne	0, cr0, [r0]
    2830:	1dee0000 	stclne	0, cr0, [lr]
    2834:	a71a0000 	ldrge	r0, [sl, -r0]
    2838:	06000008 	streq	r0, [r0], -r8
    283c:	0400001e 	streq	r0, [r0], #-30	; 0xffffffe2
    2840:	0000001e 	andeq	r0, r0, lr, lsl r0
    2844:	00081f1b 	andeq	r1, r8, fp, lsl pc
    2848:	00937c00 	addseq	r7, r3, r0, lsl #24
    284c:	03380100 	teqeq	r8, #0
    2850:	67010000 	strvs	r0, [r1, -r0]
    2854:	00030a09 	andeq	r0, r3, r9, lsl #20
    2858:	083a1a00 	ldmdaeq	sl!, {r9, fp, ip}
    285c:	1e1f0000 	cdpne	0, 1, cr0, cr15, cr0, {0}
    2860:	1e190000 	cdpne	0, 1, cr0, cr9, cr0, {0}
    2864:	301a0000 	andscc	r0, sl, r0
    2868:	66000008 	strvs	r0, [r0], -r8
    286c:	5e00001e 	mcrpl	0, 0, r0, cr0, cr14, {0}
    2870:	1c00001e 	stcne	0, cr0, [r0], {30}
    2874:	00000338 	andeq	r0, r0, r8, lsr r3
    2878:	00085419 	andeq	r5, r8, r9, lsl r4
    287c:	00937c00 	addseq	r7, r3, r0, lsl #24
    2880:	937c0400 	cmnls	ip, #0, 8
    2884:	00040000 	andeq	r0, r4, r0
    2888:	11010000 	mrsne	r0, (UNDEF: 1)
    288c:	0002c705 	andeq	ip, r2, r5, lsl #14
    2890:	08651a00 	stmdaeq	r5!, {r9, fp, ip}^
    2894:	1ea40000 	cdpne	0, 10, cr0, cr4, cr0, {0}
    2898:	1ea20000 	cdpne	0, 10, cr0, cr2, cr0, {0}
    289c:	0f000000 	svceq	0x00000000
    28a0:	00009414 	andeq	r9, r0, r4, lsl r4
    28a4:	000008bc 			; <UNDEFINED> instruction: 0x000008bc
    28a8:	000002ff 	strdeq	r0, [r0], -pc	; <UNPREDICTABLE>
    28ac:	05500110 	ldrbeq	r0, [r0, #-272]	; 0xfffffef0
    28b0:	00984403 	addseq	r4, r8, r3, lsl #8
    28b4:	51011000 	mrspl	r1, (UNDEF: 1)
    28b8:	99b80305 	ldmibls	r8!, {r0, r2, r8, r9}
    28bc:	01100000 	tsteq	r0, r0
    28c0:	a0030552 	andge	r0, r3, r2, asr r5
    28c4:	1000009b 	mulne	r0, fp, r0
    28c8:	41015301 	tstmi	r1, r1, lsl #6
    28cc:	007d0210 	rsbseq	r0, sp, r0, lsl r2
    28d0:	9acc0305 	bls	ff3034ec <__bss_end__+0xff2f950c>
    28d4:	11000000 	mrsne	r0, (UNDEF: 0)
    28d8:	00009418 	andeq	r9, r0, r8, lsl r4
    28dc:	000008c8 	andeq	r0, r0, r8, asr #17
    28e0:	70190000 	andsvc	r0, r9, r0
    28e4:	94000008 	strls	r0, [r0], #-8
    28e8:	03000093 	movweq	r0, #147	; 0x93
    28ec:	00009394 	muleq	r0, r4, r3
    28f0:	00000004 	andeq	r0, r0, r4
    28f4:	3e056801 	cdpcc	8, 0, cr6, cr5, cr1, {0}
    28f8:	1a000003 	bne	290c <__code_start__-0x56f4>
    28fc:	0000088b 	andeq	r0, r0, fp, lsl #17
    2900:	00001eb9 			; <UNDEFINED> instruction: 0x00001eb9
    2904:	00001eb7 			; <UNDEFINED> instruction: 0x00001eb7
    2908:	0008811a 	andeq	r8, r8, sl, lsl r1
    290c:	001ece00 	andseq	ip, lr, r0, lsl #28
    2910:	001ecc00 	andseq	ip, lr, r0, lsl #24
    2914:	ac0f0000 	stcge	0, cr0, [pc], {-0}
    2918:	41000093 	swpmi	r0, r3, [r0]	; <UNPREDICTABLE>
    291c:	53000004 	movwpl	r0, #4
    2920:	10000003 	andne	r0, r0, r3
    2924:	f3035001 	vhadd.u8	d5, d3, d1
    2928:	0f005001 	svceq	0x00005001
    292c:	000093d0 	ldrdeq	r9, [r0], -r0
    2930:	000008bc 			; <UNDEFINED> instruction: 0x000008bc
    2934:	0000038c 	andeq	r0, r0, ip, lsl #7
    2938:	05500110 	ldrbeq	r0, [r0, #-272]	; 0xfffffef0
    293c:	00984403 	addseq	r4, r8, r3, lsl #8
    2940:	51011000 	mrspl	r1, (UNDEF: 1)
    2944:	99b80305 	ldmibls	r8!, {r0, r2, r8, r9}
    2948:	01100000 	tsteq	r0, r0
    294c:	90030552 	andls	r0, r3, r2, asr r5
    2950:	1000009b 	mulne	r0, fp, r0
    2954:	08025301 	stmdaeq	r2, {r0, r8, r9, ip, lr}
    2958:	7d02105f 	stcvc	0, cr1, [r2, #-380]	; 0xfffffe84
    295c:	c8030500 	stmdagt	r3, {r8, sl}
    2960:	00000099 	muleq	r0, r9, r0
    2964:	0093d411 	addseq	sp, r3, r1, lsl r4
    2968:	0008c800 	andeq	ip, r8, r0, lsl #16
    296c:	93d81100 	bicsls	r1, r8, #0
    2970:	08d40000 	ldmeq	r4, {}^	; <UNPREDICTABLE>
    2974:	f40f0000 	vst4.8	{d0-d3}, [pc], r0
    2978:	bc000093 	stclt	0, cr0, [r0], {147}	; 0x93
    297c:	d7000008 	strle	r0, [r0, -r8]
    2980:	10000003 	andne	r0, r0, r3
    2984:	03055001 	movweq	r5, #20481	; 0x5001
    2988:	00009a84 	andeq	r9, r0, r4, lsl #21
    298c:	05510110 	ldrbeq	r0, [r1, #-272]	; 0xfffffef0
    2990:	0099b803 	addseq	fp, r9, r3, lsl #16
    2994:	52011000 	andpl	r1, r1, #0, 0
    2998:	9b900305 	blls	fe4035b4 <__bss_end__+0xfe3f95d4>
    299c:	01100000 	tsteq	r0, r0
    29a0:	60080253 	andvs	r0, r8, r3, asr r2
    29a4:	007d0210 	rsbseq	r0, sp, r0, lsl r2
    29a8:	9ab80305 	bls	fee035c4 <__bss_end__+0xfedf95e4>
    29ac:	11000000 	mrsne	r0, (UNDEF: 0)
    29b0:	000093f8 	strdeq	r9, [r0], -r8
    29b4:	000008c8 	andeq	r0, r0, r8, asr #17
    29b8:	00941c11 	addseq	r1, r4, r1, lsl ip
    29bc:	0008d400 	andeq	sp, r8, r0, lsl #8
    29c0:	94380f00 	ldrtls	r0, [r8], #-3840	; 0xfffff100
    29c4:	08bc0000 	ldmeq	ip!, {}	; <UNPREDICTABLE>
    29c8:	04220000 	strteq	r0, [r2], #-0
    29cc:	01100000 	tsteq	r0, r0
    29d0:	d8030550 	stmdale	r3, {r4, r6, r8, sl}
    29d4:	1000009a 	mulne	r0, sl, r0
    29d8:	03055101 	movweq	r5, #20737	; 0x5101
    29dc:	000099b8 			; <UNDEFINED> instruction: 0x000099b8
    29e0:	05520110 	ldrbeq	r0, [r2, #-272]	; 0xfffffef0
    29e4:	009b9003 	addseq	r9, fp, r3
    29e8:	53011000 	movwpl	r1, #4096	; 0x1000
    29ec:	10680802 	rsbne	r0, r8, r2, lsl #16
    29f0:	05007d02 	streq	r7, [r0, #-3330]	; 0xfffff2fe
    29f4:	009b0403 	addseq	r0, fp, r3, lsl #8
    29f8:	3c110000 	ldccc	0, cr0, [r1], {-0}
    29fc:	c8000094 	stmdagt	r0, {r2, r4, r7}
    2a00:	00000008 	andeq	r0, r0, r8
    2a04:	00007e12 	andeq	r7, r0, r2, lsl lr
    2a08:	00043c00 	andeq	r3, r4, r0, lsl #24
    2a0c:	002c1300 	eoreq	r1, ip, r0, lsl #6
    2a10:	000f0000 	andeq	r0, pc, r0
    2a14:	00042c05 	andeq	r2, r4, r5, lsl #24
    2a18:	01ef1600 	mvneq	r1, r0, lsl #12
    2a1c:	53010000 	movwpl	r0, #4096	; 0x1000
    2a20:	00008a07 	andeq	r8, r0, r7, lsl #20
    2a24:	0092ec00 	addseq	lr, r2, r0, lsl #24
    2a28:	00006400 	andeq	r6, r0, r0, lsl #8
    2a2c:	089c0100 	ldmeq	ip, {r8}
    2a30:	17000005 	strne	r0, [r0, -r5]
    2a34:	000007d7 	ldrdeq	r0, [r0], -r7
    2a38:	2c185301 	ldccs	3, cr5, [r8], {1}
    2a3c:	e9000000 	stmdb	r0, {}	; <UNPREDICTABLE>
    2a40:	e100001e 	tst	r0, lr, lsl r0
    2a44:	0e00001e 	mcreq	0, 0, r0, cr0, cr14, {0}
    2a48:	0000003d 	andeq	r0, r0, sp, lsr r0
    2a4c:	00000518 	andeq	r0, r0, r8, lsl r5
    2a50:	9b880305 	blls	fe20366c <__bss_end__+0xfe1f968c>
    2a54:	df1d0000 	svcle	0x001d0000
    2a58:	01000007 	tsteq	r0, r7
    2a5c:	008a0b55 	addeq	r0, sl, r5, asr fp
    2a60:	1f210000 	svcne	0x00210000
    2a64:	1f1d0000 	svcne	0x001d0000
    2a68:	040f0000 	streq	r0, [pc], #-0	; 2a70 <__code_start__-0x5590>
    2a6c:	1d000093 	stcne	0, cr0, [r0, #-588]	; 0xfffffdb4
    2a70:	a6000005 	strge	r0, [r0], -r5
    2a74:	10000004 	andne	r0, r0, r4
    2a78:	74025001 	strvc	r5, [r2], #-1
    2a7c:	140f0000 	strne	r0, [pc], #-0	; 2a84 <__code_start__-0x557c>
    2a80:	e0000093 	mul	r0, r3, r0
    2a84:	c5000008 	strgt	r0, [r0, #-8]
    2a88:	10000004 	andne	r0, r0, r4
    2a8c:	75025001 	strvc	r5, [r2, #-1]
    2a90:	51011000 	mrspl	r1, (UNDEF: 1)
    2a94:	01103001 	tsteq	r0, r1
    2a98:	00740252 	rsbseq	r0, r4, r2, asr r2
    2a9c:	933c0f00 	teqls	ip, #0, 30
    2aa0:	08bc0000 	ldmeq	ip!, {}	; <UNPREDICTABLE>
    2aa4:	04fe0000 	ldrbteq	r0, [lr], #0
    2aa8:	01100000 	tsteq	r0, r0
    2aac:	44030550 	strmi	r0, [r3], #-1360	; 0xfffffab0
    2ab0:	10000098 	mulne	r0, r8, r0
    2ab4:	03055101 	movweq	r5, #20737	; 0x5101
    2ab8:	000099b8 			; <UNDEFINED> instruction: 0x000099b8
    2abc:	05520110 	ldrbeq	r0, [r2, #-272]	; 0xfffffef0
    2ac0:	009b8803 	addseq	r8, fp, r3, lsl #16
    2ac4:	53011000 	movwpl	r1, #4096	; 0x1000
    2ac8:	10540802 	subsne	r0, r4, r2, lsl #16
    2acc:	05007d02 	streq	r7, [r0, #-3330]	; 0xfffff2fe
    2ad0:	0099c803 	addseq	ip, r9, r3, lsl #16
    2ad4:	40110000 	andsmi	r0, r1, r0
    2ad8:	c8000093 	stmdagt	r0, {r0, r1, r4, r7}
    2adc:	00000008 	andeq	r0, r0, r8
    2ae0:	00007e12 	andeq	r7, r0, r2, lsl lr
    2ae4:	00051800 	andeq	r1, r5, r0, lsl #16
    2ae8:	002c1300 	eoreq	r1, ip, r0, lsl #6
    2aec:	00070000 	andeq	r0, r7, r0
    2af0:	00050805 	andeq	r0, r5, r5, lsl #16
    2af4:	084b1600 	stmdaeq	fp, {r9, sl, ip}^
    2af8:	47010000 	strmi	r0, [r1, -r0]
    2afc:	00008a07 	andeq	r8, r0, r7, lsl #20
    2b00:	00925400 	addseq	r5, r2, r0, lsl #8
    2b04:	00009800 	andeq	r9, r0, r0, lsl #16
    2b08:	2b9c0100 	blcs	fe702f10 <__bss_end__+0xfe6f8f30>
    2b0c:	17000006 	strne	r0, [r0, -r6]
    2b10:	000007d7 	ldrdeq	r0, [r0], -r7
    2b14:	2c204701 	stccs	7, cr4, [r0], #-4
    2b18:	4f000000 	svcmi	0x00000000
    2b1c:	3f00001f 	svccc	0x0000001f
    2b20:	0e00001f 	mcreq	0, 0, r0, cr0, cr15, {0}
    2b24:	0000003d 	andeq	r0, r0, sp, lsr r0
    2b28:	0000043c 	andeq	r0, r0, ip, lsr r4
    2b2c:	9b780305 	blls	1e03748 <__bss_end__+0x1df9768>
    2b30:	df1d0000 	svcle	0x001d0000
    2b34:	01000007 	tsteq	r0, r7
    2b38:	008a0b4b 	addeq	r0, sl, fp, asr #22
    2b3c:	1fc10000 	svcne	0x00c10000
    2b40:	1fbd0000 	svcne	0x00bd0000
    2b44:	1f1b0000 	svcne	0x001b0000
    2b48:	64000008 	strvs	r0, [r0], #-8
    2b4c:	03000092 	movweq	r0, #146	; 0x92
    2b50:	00000320 	andeq	r0, r0, r0, lsr #6
    2b54:	a30e4901 	movwge	r4, #59649	; 0xe901
    2b58:	1a000005 	bne	2b74 <__code_start__-0x548c>
    2b5c:	0000083a 	andeq	r0, r0, sl, lsr r8
    2b60:	00001fe1 	andeq	r1, r0, r1, ror #31
    2b64:	00001fdf 	ldrdeq	r1, [r0], -pc	; <UNPREDICTABLE>
    2b68:	0008301a 	andeq	r3, r8, sl, lsl r0
    2b6c:	001ff900 	andseq	pc, pc, r0, lsl #18
    2b70:	001ff500 	andseq	pc, pc, r0, lsl #10
    2b74:	03201e00 	nopeq	{0}	; <UNPREDICTABLE>
    2b78:	0f000000 	svceq	0x00000000
    2b7c:	000092ac 	andeq	r9, r0, ip, lsr #5
    2b80:	000008bc 			; <UNDEFINED> instruction: 0x000008bc
    2b84:	000005dc 	ldrdeq	r0, [r0], -ip
    2b88:	05500110 	ldrbeq	r0, [r0, #-272]	; 0xfffffef0
    2b8c:	00984403 	addseq	r4, r8, r3, lsl #8
    2b90:	51011000 	mrspl	r1, (UNDEF: 1)
    2b94:	99b80305 	ldmibls	r8!, {r0, r2, r8, r9}
    2b98:	01100000 	tsteq	r0, r0
    2b9c:	78030552 	stmdavc	r3, {r1, r4, r6, r8, sl}
    2ba0:	1000009b 	mulne	r0, fp, r0
    2ba4:	08025301 	stmdaeq	r2, {r0, r8, r9, ip, lr}
    2ba8:	7d021048 	stcvc	0, cr1, [r2, #-288]	; 0xfffffee0
    2bac:	c8030500 	stmdagt	r3, {r8, sl}
    2bb0:	00000099 	muleq	r0, r9, r0
    2bb4:	0092b011 	addseq	fp, r2, r1, lsl r0
    2bb8:	0008c800 	andeq	ip, r8, r0, lsl #16
    2bbc:	92d00f00 	sbcsls	r0, r0, #0, 30
    2bc0:	08bc0000 	ldmeq	ip!, {}	; <UNPREDICTABLE>
    2bc4:	06210000 	strteq	r0, [r1], -r0
    2bc8:	01100000 	tsteq	r0, r0
    2bcc:	44030550 	strmi	r0, [r3], #-1360	; 0xfffffab0
    2bd0:	1000009a 	mulne	r0, sl, r0
    2bd4:	03055101 	movweq	r5, #20737	; 0x5101
    2bd8:	000099b8 			; <UNDEFINED> instruction: 0x000099b8
    2bdc:	05520110 	ldrbeq	r0, [r2, #-272]	; 0xfffffef0
    2be0:	009b7803 	addseq	r7, fp, r3, lsl #16
    2be4:	53011000 	movwpl	r1, #4096	; 0x1000
    2be8:	104e0802 	subne	r0, lr, r2, lsl #16
    2bec:	08007d02 	stmdaeq	r0, {r1, r8, sl, fp, ip, sp, lr}
    2bf0:	235001f3 	cmpcs	r0, #-1073741764	; 0xc000003c
    2bf4:	1af80907 	bne	ffe05018 <__bss_end__+0xffdfb038>
    2bf8:	92d41100 	sbcsls	r1, r4, #0
    2bfc:	08c80000 	stmiaeq	r8, {}^	; <UNPREDICTABLE>
    2c00:	0c000000 	stceq	0, cr0, [r0], {-0}
    2c04:	0000086d 	andeq	r0, r0, sp, ror #16
    2c08:	fc063c01 	stc2	12, cr3, [r6], {1}
    2c0c:	58000091 	stmdapl	r0, {r0, r4, r7}
    2c10:	01000000 	mrseq	r0, (UNDEF: 0)
    2c14:	0006cf9c 	muleq	r6, ip, pc	; <UNPREDICTABLE>
    2c18:	080a0a00 	stmdaeq	sl, {r9, fp}
    2c1c:	3d010000 	stccc	0, cr0, [r1, #-0]
    2c20:	00002510 	andeq	r2, r0, r0, lsl r5
    2c24:	d8030500 	stmdale	r3, {r8, sl}
    2c28:	0e00009f 	mcreq	0, 0, r0, cr0, cr15, {4}
    2c2c:	0000003d 	andeq	r0, r0, sp, lsr r0
    2c30:	000006df 	ldrdeq	r0, [r0], -pc	; <UNPREDICTABLE>
    2c34:	9b680305 	blls	1a03850 <__bss_end__+0x19f9870>
    2c38:	07070000 	streq	r0, [r7, -r0]
    2c3c:	00002c04 	andeq	r2, r0, r4, lsl #24
    2c40:	0a420100 	beq	1083048 <__bss_end__+0x1079068>
    2c44:	0000067a 	andeq	r0, r0, sl, ror r6
    2c48:	00083408 	andeq	r3, r8, r8, lsl #8
    2c4c:	10000000 	andne	r0, r0, r0
    2c50:	280f0000 	stmdacs	pc, {}	; <UNPREDICTABLE>
    2c54:	e4000092 	str	r0, [r0], #-146	; 0xffffff6e
    2c58:	96000006 	strls	r0, [r0], -r6
    2c5c:	10000006 	andne	r0, r0, r6
    2c60:	40035001 	andmi	r5, r3, r1
    2c64:	01102440 	tsteq	r0, r0, asr #8
    2c68:	48400351 	stmdami	r0, {r0, r4, r6, r8, r9}^
    2c6c:	400f0024 	andmi	r0, pc, r4, lsr #32
    2c70:	bc000092 	stclt	0, cr0, [r0], {146}	; 0x92
    2c74:	c5000008 	strgt	r0, [r0, #-8]
    2c78:	10000006 	andne	r0, r0, r6
    2c7c:	03055001 	movweq	r5, #20481	; 0x5001
    2c80:	00009a14 	andeq	r9, r0, r4, lsl sl
    2c84:	05510110 	ldrbeq	r0, [r1, #-272]	; 0xfffffef0
    2c88:	0099b803 	addseq	fp, r9, r3, lsl #16
    2c8c:	52011000 	andpl	r1, r1, #0, 0
    2c90:	9b680305 	blls	1a038ac <__bss_end__+0x19f98cc>
    2c94:	01100000 	tsteq	r0, r0
    2c98:	40080253 	andmi	r0, r8, r3, asr r2
    2c9c:	92441100 	subls	r1, r4, #0
    2ca0:	08c80000 	stmiaeq	r8, {}^	; <UNPREDICTABLE>
    2ca4:	12000000 	andne	r0, r0, #0, 0
    2ca8:	0000007e 	andeq	r0, r0, lr, ror r0
    2cac:	000006df 	ldrdeq	r0, [r0], -pc	; <UNPREDICTABLE>
    2cb0:	00002c13 	andeq	r2, r0, r3, lsl ip
    2cb4:	05000c00 	streq	r0, [r0, #-3072]	; 0xfffff400
    2cb8:	000006cf 	andeq	r0, r0, pc, asr #13
    2cbc:	0008960c 	andeq	r9, r8, ip, lsl #12
    2cc0:	062d0100 	strteq	r0, [sp], -r0, lsl #2
    2cc4:	00009160 	andeq	r9, r0, r0, ror #2
    2cc8:	0000009c 	muleq	r0, ip, r0
    2ccc:	07c89c01 	strbeq	r9, [r8, r1, lsl #24]
    2cd0:	de170000 	cdple	0, 1, cr0, cr7, cr0, {0}
    2cd4:	01000007 	tsteq	r0, r7
    2cd8:	002c262d 	eoreq	r2, ip, sp, lsr #12
    2cdc:	20270000 	eorcs	r0, r7, r0
    2ce0:	20190000 	andscs	r0, r9, r0
    2ce4:	d3170000 	tstle	r7, #0, 0
    2ce8:	01000007 	tsteq	r0, r7
    2cec:	002c362d 	eoreq	r3, ip, sp, lsr #12
    2cf0:	208f0000 	addcs	r0, pc, r0
    2cf4:	20870000 	addcs	r0, r7, r0
    2cf8:	df1d0000 	svcle	0x001d0000
    2cfc:	01000007 	tsteq	r0, r7
    2d00:	00c20b2e 	sbceq	r0, r2, lr, lsr #22
    2d04:	20d70000 	sbcscs	r0, r7, r0
    2d08:	20c90000 	sbccs	r0, r9, r0
    2d0c:	3d0e0000 	stccc	0, cr0, [lr, #-0]
    2d10:	d8000000 	stmdale	r0, {}	; <UNPREDICTABLE>
    2d14:	05000007 	streq	r0, [r0, #-7]
    2d18:	009b5003 	addseq	r5, fp, r3
    2d1c:	91b80f00 			; <UNDEFINED> instruction: 0x91b80f00
    2d20:	08bc0000 	ldmeq	ip!, {}	; <UNPREDICTABLE>
    2d24:	077e0000 	ldrbeq	r0, [lr, -r0]!
    2d28:	01100000 	tsteq	r0, r0
    2d2c:	44030550 	strmi	r0, [r3], #-1360	; 0xfffffab0
    2d30:	10000098 	mulne	r0, r8, r0
    2d34:	03055101 	movweq	r5, #20737	; 0x5101
    2d38:	000099b8 			; <UNDEFINED> instruction: 0x000099b8
    2d3c:	05520110 	ldrbeq	r0, [r2, #-272]	; 0xfffffef0
    2d40:	009b5003 	addseq	r5, fp, r3
    2d44:	53011000 	movwpl	r1, #4096	; 0x1000
    2d48:	10300802 	eorsne	r0, r0, r2, lsl #16
    2d4c:	05007d02 	streq	r7, [r0, #-3330]	; 0xfffff2fe
    2d50:	0099c403 	addseq	ip, r9, r3, lsl #8
    2d54:	bc110000 	ldclt	0, cr0, [r1], {-0}
    2d58:	c8000091 	stmdagt	r0, {r0, r4, r7}
    2d5c:	0f000008 	svceq	0x00000008
    2d60:	000091e0 	andeq	r9, r0, r0, ror #3
    2d64:	000008bc 			; <UNDEFINED> instruction: 0x000008bc
    2d68:	000007be 			; <UNDEFINED> instruction: 0x000007be
    2d6c:	05500110 	ldrbeq	r0, [r0, #-272]	; 0xfffffef0
    2d70:	0099d003 	addseq	sp, r9, r3
    2d74:	51011000 	mrspl	r1, (UNDEF: 1)
    2d78:	99b80305 	ldmibls	r8!, {r0, r2, r8, r9}
    2d7c:	01100000 	tsteq	r0, r0
    2d80:	50030552 	andpl	r0, r3, r2, asr r5
    2d84:	1000009b 	mulne	r0, fp, r0
    2d88:	08025301 	stmdaeq	r2, {r0, r8, r9, ip, lr}
    2d8c:	7d021034 	stcvc	0, cr1, [r2, #-208]	; 0xffffff30
    2d90:	01f30300 	mvnseq	r0, r0, lsl #6
    2d94:	e4110050 	ldr	r0, [r1], #-80	; 0xffffffb0
    2d98:	c8000091 	stmdagt	r0, {r0, r4, r7}
    2d9c:	00000008 	andeq	r0, r0, r8
    2da0:	00007e12 	andeq	r7, r0, r2, lsl lr
    2da4:	0007d800 	andeq	sp, r7, r0, lsl #16
    2da8:	002c1300 	eoreq	r1, ip, r0, lsl #6
    2dac:	00160000 	andseq	r0, r6, r0
    2db0:	0007c805 	andeq	ip, r7, r5, lsl #16
    2db4:	08851f00 	stmeq	r5, {r8, r9, sl, fp, ip}
    2db8:	2a010000 	bcs	42dc0 <__bss_end__+0x38de0>
    2dbc:	00008a07 	andeq	r8, r0, r7, lsl #20
    2dc0:	00915000 	addseq	r5, r1, r0
    2dc4:	00001000 	andeq	r1, r0, r0
    2dc8:	1f9c0100 	svcne	0x009c0100
    2dcc:	000007c0 	andeq	r0, r0, r0, asr #15
    2dd0:	8a072901 	bhi	1cd1dc <__bss_end__+0x1c31fc>
    2dd4:	40000000 	andmi	r0, r0, r0
    2dd8:	10000091 	mulne	r0, r1, r0
    2ddc:	01000000 	mrseq	r0, (UNDEF: 0)
    2de0:	083a1f9c 	ldmdaeq	sl!, {r2, r3, r4, r7, r8, r9, sl, fp, ip}
    2de4:	28010000 	stmdacs	r1, {}	; <UNPREDICTABLE>
    2de8:	00008a07 	andeq	r8, r0, r7, lsl #20
    2dec:	00913000 	addseq	r3, r1, r0
    2df0:	00001000 	andeq	r1, r0, r0
    2df4:	209c0100 	addscs	r0, ip, r0, lsl #2
    2df8:	000007fd 	strdeq	r0, [r0], -sp
    2dfc:	2c181001 	ldccs	0, cr1, [r8], {1}
    2e00:	03000000 	movweq	r0, #0
    2e04:	00000854 	andeq	r0, r0, r4, asr r8
    2e08:	01007821 	tsteq	r0, r1, lsr #16
    2e0c:	002c2910 	eoreq	r2, ip, r0, lsl r9
    2e10:	6e210000 	cdpvs	0, 2, cr0, cr1, cr0, {0}
    2e14:	35100100 	ldrcc	r0, [r0, #-256]	; 0xffffff00
    2e18:	0000002c 	andeq	r0, r0, ip, lsr #32
    2e1c:	00003d0e 	andeq	r3, r0, lr, lsl #26
    2e20:	00051800 	andeq	r1, r5, r0, lsl #16
    2e24:	a0030500 	andge	r0, r3, r0, lsl #10
    2e28:	0000009b 	muleq	r0, fp, r0
    2e2c:	00085b20 	andeq	r5, r8, r0, lsr #22
    2e30:	180d0100 	stmdane	sp, {r8}
    2e34:	0000002c 	andeq	r0, r0, ip, lsr #32
    2e38:	00087003 	andeq	r7, r8, r3
    2e3c:	00782100 	rsbseq	r2, r8, r0, lsl #2
    2e40:	2c290d01 	stccs	13, cr0, [r9], #-4
    2e44:	00000000 	andeq	r0, r0, r0
    2e48:	00087a20 	andeq	r7, r8, r0, lsr #20
    2e4c:	18070100 	stmdane	r7, {r8}
    2e50:	0000002c 	andeq	r0, r0, ip, lsr #32
    2e54:	00089603 	andeq	r9, r8, r3, lsl #12
    2e58:	00782100 	rsbseq	r2, r8, r0, lsl #2
    2e5c:	2c2c0701 	stccs	7, cr0, [ip], #-4
    2e60:	21000000 	mrscs	r0, (UNDEF: 0)
    2e64:	0701006e 	streq	r0, [r1, -lr, rrx]
    2e68:	00002c38 	andeq	r2, r0, r8, lsr ip
    2e6c:	2c200000 	stccs	0, cr0, [r0], #-0
    2e70:	01000008 	tsteq	r0, r8
    2e74:	005d1804 	subseq	r1, sp, r4, lsl #16
    2e78:	bc030000 	stclt	0, cr0, [r3], {-0}
    2e7c:	21000008 	tstcs	r0, r8
    2e80:	04010078 	streq	r0, [r1], #-120	; 0xffffff88
    2e84:	00005d29 	andeq	r5, r0, r9, lsr #26
    2e88:	00792100 	rsbseq	r2, r9, r0, lsl #2
    2e8c:	5d350401 	cfldrspl	mvf0, [r5, #-4]!
    2e90:	00000000 	andeq	r0, r0, r0
    2e94:	00020922 	andeq	r0, r2, r2, lsr #18
    2e98:	00020900 	andeq	r0, r2, r0, lsl #18
    2e9c:	06280200 	strteq	r0, [r8], -r0, lsl #4
    2ea0:	00001622 	andeq	r1, r0, r2, lsr #12
    2ea4:	00001600 	andeq	r1, r0, r0, lsl #12
    2ea8:	066e0200 	strbteq	r0, [lr], -r0, lsl #4
    2eac:	0008ad22 	andeq	sl, r8, r2, lsr #26
    2eb0:	0008ad00 	andeq	sl, r8, r0, lsl #26
    2eb4:	061d0200 	ldreq	r0, [sp], -r0, lsl #4
    2eb8:	00081b22 	andeq	r1, r8, r2, lsr #22
    2ebc:	00081b00 	andeq	r1, r8, r0, lsl #22
    2ec0:	07f20200 	ldrbeq	r0, [r2, r0, lsl #4]!
    2ec4:	00067300 	andeq	r7, r6, r0, lsl #6
    2ec8:	59000400 	stmdbpl	r0, {sl}
    2ecc:	04000011 	streq	r0, [r0], #-17	; 0xffffffef
    2ed0:	00021f01 	andeq	r1, r2, r1, lsl #30
    2ed4:	08ff0c00 	ldmeq	pc!, {sl, fp}^	; <UNPREDICTABLE>
    2ed8:	02f60000 	rscseq	r0, r6, #0, 0
    2edc:	94e00000 	strbtls	r0, [r0], #0
    2ee0:	01980000 	orrseq	r0, r8, r0
    2ee4:	18d10000 	ldmne	r1, {}^	; <UNPREDICTABLE>
    2ee8:	08020000 	stmdaeq	r2, {}	; <UNPREDICTABLE>
    2eec:	00006107 	andeq	r6, r0, r7, lsl #2
    2ef0:	07040200 	streq	r0, [r4, -r0, lsl #4]
    2ef4:	0000006b 	andeq	r0, r0, fp, rrx
    2ef8:	69050403 	stmdbvs	r5, {r0, r1, sl}
    2efc:	0400746e 	streq	r7, [r0], #-1134	; 0xfffffb92
    2f00:	0000002c 	andeq	r0, r0, ip, lsr #32
    2f04:	0a060102 	beq	183314 <__bss_end__+0x179334>
    2f08:	02000000 	andeq	r0, r0, #0, 0
    2f0c:	00c90502 	sbceq	r0, r9, r2, lsl #10
    2f10:	04020000 	streq	r0, [r2], #-0
    2f14:	00007d05 	andeq	r7, r0, r5, lsl #26
    2f18:	05080200 	streq	r0, [r8, #-512]	; 0xfffffe00
    2f1c:	00000078 	andeq	r0, r0, r8, ror r0
    2f20:	08080102 	stmdaeq	r8, {r1, r8}
    2f24:	02000000 	andeq	r0, r0, #0, 0
    2f28:	00230702 	eoreq	r0, r3, r2, lsl #14
    2f2c:	ab050000 	blge	142f34 <__bss_end__+0x138f54>
    2f30:	03000003 	movweq	r0, #3
    2f34:	00751934 	rsbseq	r1, r5, r4, lsr r9
    2f38:	04020000 	streq	r0, [r2], #-0
    2f3c:	00006607 	andeq	r6, r0, r7, lsl #12
    2f40:	00330600 	eorseq	r0, r3, r0, lsl #12
    2f44:	008b0000 	addeq	r0, fp, r0
    2f48:	33070000 	movwcc	r0, #28672	; 0x7000
    2f4c:	00000000 	andeq	r0, r0, r0
    2f50:	00008608 	andeq	r8, r0, r8, lsl #12
    2f54:	0e1c0200 	cdpeq	2, 1, cr0, cr12, cr0, {0}
    2f58:	00000097 	muleq	r0, r7, r0
    2f5c:	007c0409 	rsbseq	r0, ip, r9, lsl #8
    2f60:	33060000 	movwcc	r0, #24576	; 0x6000
    2f64:	ac000000 	stcge	0, cr0, [r0], {-0}
    2f68:	07000000 	streq	r0, [r0, -r0]
    2f6c:	000000ac 	andeq	r0, r0, ip, lsr #1
    2f70:	b9040900 	stmdblt	r4, {r8, fp}
    2f74:	02000000 	andeq	r0, r0, #0, 0
    2f78:	00110801 	andseq	r0, r1, r1, lsl #16
    2f7c:	b2040000 	andlt	r0, r4, #0, 0
    2f80:	08000000 	stmdaeq	r0, {}	; <UNPREDICTABLE>
    2f84:	00000321 	andeq	r0, r0, r1, lsr #6
    2f88:	ca0e2102 	bgt	38b398 <__bss_end__+0x3813b8>
    2f8c:	09000000 	stmdbeq	r0, {}	; <UNPREDICTABLE>
    2f90:	00009d04 	andeq	r9, r0, r4, lsl #26
    2f94:	01070a00 	tsteq	r7, r0, lsl #20
    2f98:	0000005b 	andeq	r0, r0, fp, asr r0
    2f9c:	0f0e0c04 	svceq	0x000e0c04
    2fa0:	0b000001 	bleq	2fac <__code_start__-0x5054>
    2fa4:	00000798 	muleq	r0, r8, r7
    2fa8:	05d00b00 	ldrbeq	r0, [r0, #2816]	; 0xb00
    2fac:	0b010000 	bleq	42fb4 <__bss_end__+0x38fd4>
    2fb0:	00000613 	andeq	r0, r0, r3, lsl r6
    2fb4:	06220b04 	strteq	r0, [r2], -r4, lsl #22
    2fb8:	0b050000 	bleq	142fc0 <__bss_end__+0x138fe0>
    2fbc:	00000631 	andeq	r0, r0, r1, lsr r6
    2fc0:	06400b06 	strbeq	r0, [r0], -r6, lsl #22
    2fc4:	0b070000 	bleq	1c2fcc <__bss_end__+0x1b8fec>
    2fc8:	00000761 	andeq	r0, r0, r1, ror #14
    2fcc:	064f0b03 	strbeq	r0, [pc], -r3, lsl #22
    2fd0:	00020000 	andeq	r0, r2, r0
    2fd4:	00093d05 	andeq	r3, r9, r5, lsl #26
    2fd8:	03150400 	tsteq	r5, #0, 8
    2fdc:	000000d0 	ldrdeq	r0, [r0], -r0	; <UNPREDICTABLE>
    2fe0:	0008d60c 	andeq	sp, r8, ip, lsl #12
    2fe4:	171d0100 	ldrne	r0, [sp, -r0, lsl #2]
    2fe8:	0000003a 	andeq	r0, r0, sl, lsr r0
    2fec:	2020001c 	eorcs	r0, r0, ip, lsl r0
    2ff0:	0008cc0c 	andeq	ip, r8, ip, lsl #24
    2ff4:	171e0100 	ldrne	r0, [lr, -r0, lsl #2]
    2ff8:	0000003a 	andeq	r0, r0, sl, lsr r0
    2ffc:	20200028 	eorcs	r0, r0, r8, lsr #32
    3000:	0009490c 	andeq	r4, r9, ip, lsl #18
    3004:	171f0100 	ldrne	r0, [pc, -r0, lsl #2]
    3008:	0000003a 	andeq	r0, r0, sl, lsr r0
    300c:	20200034 	eorcs	r0, r0, r4, lsr r0
    3010:	0008f50d 	andeq	pc, r8, sp, lsl #10
    3014:	05510100 	ldrbeq	r0, [r1, #-256]	; 0xffffff00
    3018:	00000033 	andeq	r0, r0, r3, lsr r0
    301c:	00009650 	andeq	r9, r0, r0, asr r6
    3020:	00000028 	andeq	r0, r0, r8, lsr #32
    3024:	01ba9c01 			; <UNDEFINED> instruction: 0x01ba9c01
    3028:	700e0000 	andvc	r0, lr, r0
    302c:	01006e69 	tsteq	r0, r9, ror #28
    3030:	002c1851 	eoreq	r1, ip, r1, asr r8
    3034:	213d0000 	teqcs	sp, r0
    3038:	21370000 	teqcs	r7, r0
    303c:	530f0000 	movwpl	r0, #61440	; 0xf000
    3040:	01000009 	tsteq	r0, r9
    3044:	002c0e52 	eoreq	r0, ip, r2, asr lr
    3048:	21730000 	cmncs	r3, r0
    304c:	21690000 	cmncs	r9, r0
    3050:	6f100000 	svcvs	0x00100000
    3054:	01006666 	tsteq	r0, r6, ror #12
    3058:	002c0e53 	eoreq	r0, ip, r3, asr lr
    305c:	21e10000 	mvncs	r0, r0
    3060:	21db0000 	bicscs	r0, fp, r0
    3064:	64110000 	ldrvs	r0, [r1], #-0
    3068:	5e000096 	mcrpl	0, 0, r0, cr0, cr6, {4}
    306c:	12000006 	andne	r0, r0, #6, 0
    3070:	740a5001 	strvc	r5, [sl], #-1
    3074:	23253500 			; <UNDEFINED> instruction: 0x23253500
    3078:	818080b4 	strhhi	r8, [r0, r4]
    307c:	13000002 	movwne	r0, #2
    3080:	000008e0 	andeq	r0, r0, r0, ror #17
    3084:	20064a01 	andcs	r4, r6, r1, lsl #20
    3088:	30000096 	mulcc	r0, r6, r0
    308c:	01000000 	mrseq	r0, (UNDEF: 0)
    3090:	0002759c 	muleq	r2, ip, r5
    3094:	69700e00 	ldmdbvs	r0!, {r9, sl, fp}^
    3098:	4a01006e 	bmi	43258 <__bss_end__+0x39278>
    309c:	00002c1a 	andeq	r2, r0, sl, lsl ip
    30a0:	00221e00 	eoreq	r1, r2, r0, lsl #28
    30a4:	00221200 	eoreq	r1, r2, r0, lsl #4
    30a8:	00760e00 	rsbseq	r0, r6, r0, lsl #28
    30ac:	2c284a01 			; <UNDEFINED> instruction: 0x2c284a01
    30b0:	72000000 	andvc	r0, r0, #0, 0
    30b4:	6e000022 	cdpvs	0, 0, cr0, cr0, cr2, {1}
    30b8:	14000022 	strne	r0, [r0], #-34	; 0xffffffde
    30bc:	0000038d 	andeq	r0, r0, sp, lsl #7
    30c0:	00009630 	andeq	r9, r0, r0, lsr r6
    30c4:	0003f001 	andeq	pc, r3, r1
    30c8:	094c0100 	stmdbeq	ip, {r8}^
    30cc:	00000235 	andeq	r0, r0, r5, lsr r2
    30d0:	00039a15 	andeq	r9, r3, r5, lsl sl
    30d4:	00229900 	eoreq	r9, r2, r0, lsl #18
    30d8:	00229300 	eoreq	r9, r2, r0, lsl #6
    30dc:	963c1600 	ldrtls	r1, [ip], -r0, lsl #12
    30e0:	066a0000 	strbteq	r0, [sl], -r0
    30e4:	01120000 	tsteq	r2, r0
    30e8:	1c0c0550 	cfstr32ne	mvfx0, [ip], {80}	; 0x50
    30ec:	12202000 	eorne	r2, r0, #0, 0
    30f0:	31055101 	tstcc	r5, r1, lsl #2
    30f4:	245001f3 	ldrbcs	r0, [r0], #-499	; 0xfffffe0d
    30f8:	73170000 	tstvc	r7, #0, 0
    30fc:	3c000003 	stccc	0, cr0, [r0], {3}
    3100:	02000096 	andeq	r0, r0, #150, 0	; 0x96
    3104:	0000963c 	andeq	r9, r0, ip, lsr r6
    3108:	00000014 	andeq	r0, r0, r4, lsl r0
    310c:	15094e01 	strne	r4, [r9, #-3585]	; 0xfffff1ff
    3110:	00000380 	andeq	r0, r0, r0, lsl #7
    3114:	000022cb 	andeq	r2, r0, fp, asr #5
    3118:	000022c5 	andeq	r2, r0, r5, asr #5
    311c:	00964816 	addseq	r4, r6, r6, lsl r8
    3120:	00066a00 	andeq	r6, r6, r0, lsl #20
    3124:	50011200 	andpl	r1, r1, r0, lsl #4
    3128:	00280c05 	eoreq	r0, r8, r5, lsl #24
    312c:	01122020 	tsteq	r2, r0, lsr #32
    3130:	f3310551 	vqrshl.u64	q0, <illegal reg q0.5>, <illegal reg q0.5>
    3134:	00245001 	eoreq	r5, r4, r1
    3138:	0c130000 	ldceq	0, cr0, [r3], {-0}
    313c:	01000009 	tsteq	r0, r9
    3140:	95c80645 	strbls	r0, [r8, #1605]	; 0x645
    3144:	00580000 	subseq	r0, r8, r0
    3148:	9c010000 	stcls	0, cr0, [r1], {-0}
    314c:	00000373 	andeq	r0, r0, r3, ror r3
    3150:	6e69700e 	cdpvs	0, 6, cr7, cr9, cr14, {0}
    3154:	1e450100 	dvfnes	f0, f5, f0
    3158:	0000002c 	andeq	r0, r0, ip, lsr #32
    315c:	000022fd 	strdeq	r2, [r0], -sp
    3160:	000022f7 	strdeq	r2, [r0], -r7
    3164:	0004a518 	andeq	sl, r4, r8, lsl r5
    3168:	0095c800 	addseq	ip, r5, r0, lsl #16
    316c:	03b00200 	movseq	r0, #0, 4
    3170:	46010000 	strmi	r0, [r1], -r0
    3174:	04be1905 	ldrteq	r1, [lr], #2309	; 0x905
    3178:	15000000 	strne	r0, [r0, #-0]
    317c:	000004b2 			; <UNDEFINED> instruction: 0x000004b2
    3180:	0000232f 	andeq	r2, r0, pc, lsr #6
    3184:	00002329 	andeq	r2, r0, r9, lsr #6
    3188:	0003b01a 	andeq	fp, r3, sl, lsl r0
    318c:	04ca1b00 	strbeq	r1, [sl], #2816	; 0xb00
    3190:	d61b0000 	ldrle	r0, [fp], -r0
    3194:	1b000004 	blne	31ac <__code_start__-0x4e54>
    3198:	000004e0 	andeq	r0, r0, r0, ror #9
    319c:	0004a518 	andeq	sl, r4, r8, lsl r5
    31a0:	0095d000 	addseq	sp, r5, r0
    31a4:	03d00000 	bicseq	r0, r0, #0, 0
    31a8:	28010000 	stmdacs	r1, {}	; <UNPREDICTABLE>
    31ac:	04be1906 	ldrteq	r1, [lr], #2310	; 0x906
    31b0:	15000000 	strne	r0, [r0, #-0]
    31b4:	000004b2 			; <UNDEFINED> instruction: 0x000004b2
    31b8:	00002361 	andeq	r2, r0, r1, ror #6
    31bc:	0000235b 	andeq	r2, r0, fp, asr r3
    31c0:	0003d01a 	andeq	sp, r3, sl, lsl r0
    31c4:	04ca1c00 	strbeq	r1, [sl], #3072	; 0xc00
    31c8:	23930000 	orrscs	r0, r3, #0, 0
    31cc:	238d0000 	orrcs	r0, sp, #0, 0
    31d0:	d61c0000 	ldrle	r0, [ip], -r0
    31d4:	d5000004 	strle	r0, [r0, #-4]
    31d8:	cf000023 	svcgt	0x00000023
    31dc:	1c000023 	stcne	0, cr0, [r0], {35}	; 0x23
    31e0:	000004e0 	andeq	r0, r0, r0, ror #9
    31e4:	0000242b 	andeq	r2, r0, fp, lsr #8
    31e8:	00002423 	andeq	r2, r0, r3, lsr #8
    31ec:	0095f81d 	addseq	pc, r5, sp, lsl r8	; <UNPREDICTABLE>
    31f0:	00065e00 	andeq	r5, r6, r0, lsl #28
    31f4:	00033b00 	andeq	r3, r3, r0, lsl #22
    31f8:	50011200 	andpl	r1, r1, r0, lsl #4
    31fc:	00007602 	andeq	r7, r0, r2, lsl #12
    3200:	00961c16 	addseq	r1, r6, r6, lsl ip
    3204:	00066a00 	andeq	r6, r6, r0, lsl #20
    3208:	50011200 	andpl	r1, r1, r0, lsl #4
    320c:	5001f325 	andpl	pc, r1, r5, lsr #6
    3210:	25f72cf7 	ldrbcs	r2, [r7, #3319]!	; 0xcf7
    3214:	cd0825f4 	cfstr32gt	mvfx2, [r8, #-976]	; 0xfffffc30
    3218:	00cccccc 	sbceq	ip, ip, ip, asr #25
    321c:	1e000000 	cdpne	0, 0, cr0, cr0, cr0, {0}
    3220:	25f72008 	ldrbcs	r2, [r7, #8]!
    3224:	f72cf725 			; <UNDEFINED> instruction: 0xf72cf725
    3228:	23253300 			; <UNDEFINED> instruction: 0x23253300
    322c:	40a08080 	adcmi	r8, r0, r0, lsl #1
    3230:	00002432 	andeq	r2, r0, r2, lsr r4
    3234:	00000000 	andeq	r0, r0, r0
    3238:	00091b1e 	andeq	r1, r9, lr, lsl fp
    323c:	0d400100 	stfeqe	f0, [r0, #-0]
    3240:	00038d03 	andeq	r8, r3, r3, lsl #26
    3244:	69701f00 	ldmdbvs	r0!, {r8, r9, sl, fp, ip}^
    3248:	4001006e 	andmi	r0, r1, lr, rrx
    324c:	00002c23 	andeq	r2, r0, r3, lsr #24
    3250:	581e0000 	ldmdapl	lr, {}	; <UNPREDICTABLE>
    3254:	01000009 	tsteq	r0, r9
    3258:	a7030d3b 	smladxge	r3, fp, sp, r0
    325c:	1f000003 	svcne	0x00000003
    3260:	006e6970 	rsbeq	r6, lr, r0, ror r9
    3264:	2c223b01 			; <UNDEFINED> instruction: 0x2c223b01
    3268:	00000000 	andeq	r0, r0, r0
    326c:	00092813 	andeq	r2, r9, r3, lsl r8
    3270:	06360100 	ldrteq	r0, [r6], -r0, lsl #2
    3274:	00009540 	andeq	r9, r0, r0, asr #10
    3278:	00000058 	andeq	r0, r0, r8, asr r0
    327c:	04a59c01 	strteq	r9, [r5], #3073	; 0xc01
    3280:	700e0000 	andvc	r0, lr, r0
    3284:	01006e69 	tsteq	r0, r9, ror #28
    3288:	002c1f36 	eoreq	r1, ip, r6, lsr pc
    328c:	24890000 	strcs	r0, [r9], #0
    3290:	24850000 	strcs	r0, [r5], #0
    3294:	a5180000 	ldrge	r0, [r8, #-0]
    3298:	40000004 	andmi	r0, r0, r4
    329c:	02000095 	andeq	r0, r0, #149, 0	; 0x95
    32a0:	00000370 	andeq	r0, r0, r0, ror r3
    32a4:	19053701 	stmdbne	r5, {r0, r8, r9, sl, ip, sp}
    32a8:	000004be 			; <UNDEFINED> instruction: 0x000004be
    32ac:	04b21501 	ldrteq	r1, [r2], #1281	; 0x501
    32b0:	24ae0000 	strtcs	r0, [lr], #0
    32b4:	24aa0000 	strtcs	r0, [sl], #0
    32b8:	701a0000 	andsvc	r0, sl, r0
    32bc:	1b000003 	blne	32d0 <__code_start__-0x4d30>
    32c0:	000004ca 	andeq	r0, r0, sl, asr #9
    32c4:	0004d61b 	andeq	sp, r4, fp, lsl r6
    32c8:	04e01b00 	strbteq	r1, [r0], #2816	; 0xb00
    32cc:	a5180000 	ldrge	r0, [r8, #-0]
    32d0:	48000004 	stmdami	r0, {r2}
    32d4:	00000095 	muleq	r0, r5, r0
    32d8:	00000390 	muleq	r0, r0, r3
    32dc:	19062801 	stmdbne	r6, {r0, fp, sp}
    32e0:	000004be 			; <UNDEFINED> instruction: 0x000004be
    32e4:	04b21501 	ldrteq	r1, [r2], #1281	; 0x501
    32e8:	24d30000 	ldrbcs	r0, [r3], #0
    32ec:	24cf0000 	strbcs	r0, [pc], #0	; 32f4 <__code_start__-0x4d0c>
    32f0:	901a0000 	andsls	r0, sl, r0
    32f4:	1c000003 	stcne	0, cr0, [r0], {3}
    32f8:	000004ca 	andeq	r0, r0, sl, asr #9
    32fc:	000024f8 	strdeq	r2, [r0], -r8
    3300:	000024f4 	strdeq	r2, [r0], -r4
    3304:	0004d61c 	andeq	sp, r4, ip, lsl r6
    3308:	00254400 	eoreq	r4, r5, r0, lsl #8
    330c:	00253e00 	eoreq	r3, r5, r0, lsl #28
    3310:	04e01c00 	strbteq	r1, [r0], #3072	; 0xc00
    3314:	259a0000 	ldrcs	r0, [sl]
    3318:	25920000 	ldrcs	r0, [r2]
    331c:	741d0000 	ldrvc	r0, [sp], #-0
    3320:	5e000095 	mcrpl	0, 0, r0, cr0, cr5, {4}
    3324:	6d000006 	stcvs	0, cr0, [r0, #-24]	; 0xffffffe8
    3328:	12000004 	andne	r0, r0, #4, 0
    332c:	75025001 	strvc	r5, [r2, #-1]
    3330:	94160000 	ldrls	r0, [r6], #-0
    3334:	6a000095 	bvs	3590 <__code_start__-0x4a70>
    3338:	12000006 	andne	r0, r0, #6, 0
    333c:	f3255001 	vhadd.u32	d5, d5, d1
    3340:	2cf75001 	ldclcs	0, cr5, [r7], #4
    3344:	25f425f7 	ldrbcs	r2, [r4, #1527]!	; 0x5f7
    3348:	cccccd08 	stclgt	13, cr12, [ip], {8}
    334c:	000000cc 	andeq	r0, r0, ip, asr #1
    3350:	20081e00 	andcs	r1, r8, r0, lsl #28
    3354:	f72525f7 			; <UNDEFINED> instruction: 0xf72525f7
    3358:	3300f72c 	movwcc	pc, #1836	; 0x72c	; <UNPREDICTABLE>
    335c:	80802325 	addhi	r2, r0, r5, lsr #6
    3360:	243240a0 	ldrtcs	r4, [r2], #-160	; 0xffffff60
    3364:	00000000 	andeq	r0, r0, r0
    3368:	a81e0000 	ldmdage	lr, {}	; <UNPREDICTABLE>
    336c:	01000007 	tsteq	r0, r7
    3370:	eb010628 	bl	44c18 <__bss_end__+0x3ac38>
    3374:	1f000004 	svcne	0x00000004
    3378:	006e6970 	rsbeq	r6, lr, r0, ror r9
    337c:	2c212801 	stccs	8, cr2, [r1], #-4
    3380:	20000000 	andcs	r0, r0, r0
    3384:	00000938 	andeq	r0, r0, r8, lsr r9
    3388:	0f322801 	svceq	0x00322801
    338c:	21000001 	tstcs	r0, r1
    3390:	0066666f 	rsbeq	r6, r6, pc, ror #12
    3394:	2c0e2d01 	stccs	13, cr2, [lr], {1}
    3398:	21000000 	mrscs	r0, (UNDEF: 0)
    339c:	2e010067 	cdpcs	0, 0, cr0, cr1, cr7, {3}
    33a0:	00002c0e 	andeq	r2, r0, lr, lsl #24
    33a4:	00762100 	rsbseq	r2, r6, r0, lsl #2
    33a8:	2c0e3001 	stccs	0, cr3, [lr], {1}
    33ac:	00000000 	andeq	r0, r0, r0
    33b0:	0008eb22 	andeq	lr, r8, r2, lsr #22
    33b4:	18b10200 	ldmne	r1!, {r9}
    33b8:	00000069 	andeq	r0, r0, r9, rrx
    33bc:	00050703 	andeq	r0, r5, r3, lsl #14
    33c0:	00781f00 	rsbseq	r1, r8, r0, lsl #30
    33c4:	692bb102 	stmdbvs	fp!, {r1, r8, ip, sp, pc}
    33c8:	00000000 	andeq	r0, r0, r0
    33cc:	0004a523 	andeq	sl, r4, r3, lsr #10
    33d0:	0094e000 	addseq	lr, r4, r0
    33d4:	00006000 	andeq	r6, r0, r0
    33d8:	e49c0100 	ldr	r0, [ip], #256	; 0x100
    33dc:	15000005 	strne	r0, [r0, #-5]
    33e0:	000004b2 			; <UNDEFINED> instruction: 0x000004b2
    33e4:	000025d9 	ldrdeq	r2, [r0], -r9
    33e8:	000025d5 	ldrdeq	r2, [r0], -r5
    33ec:	0004be15 	andeq	fp, r4, r5, lsl lr
    33f0:	0025fe00 	eoreq	pc, r5, r0, lsl #28
    33f4:	0025fa00 	eoreq	pc, r5, r0, lsl #20
    33f8:	04ca1b00 	strbeq	r1, [sl], #2816	; 0xb00
    33fc:	d61b0000 	ldrle	r0, [fp], -r0
    3400:	1b000004 	blne	3418 <__code_start__-0x4be8>
    3404:	000004e0 	andeq	r0, r0, r0, ror #9
    3408:	0004a518 	andeq	sl, r4, r8, lsl r5
    340c:	0094e800 	addseq	lr, r4, r0, lsl #16
    3410:	03500000 	cmpeq	r0, #0, 0
    3414:	28010000 	stmdacs	r1, {}	; <UNPREDICTABLE>
    3418:	04be1506 	ldrteq	r1, [lr], #1286	; 0x506
    341c:	26230000 	strtcs	r0, [r3], -r0
    3420:	261f0000 	ldrcs	r0, [pc], -r0
    3424:	b2150000 	andslt	r0, r5, #0, 0
    3428:	48000004 	stmdami	r0, {r2}
    342c:	44000026 	strmi	r0, [r0], #-38	; 0xffffffda
    3430:	1a000026 	bne	34d0 <__code_start__-0x4b30>
    3434:	00000350 	andeq	r0, r0, r0, asr r3
    3438:	0004ca1c 	andeq	ip, r4, ip, lsl sl
    343c:	00266d00 	eoreq	r6, r6, r0, lsl #26
    3440:	00266900 	eoreq	r6, r6, r0, lsl #18
    3444:	04d61c00 	ldrbeq	r1, [r6], #3072	; 0xc00
    3448:	26b90000 	ldrtcs	r0, [r9], r0
    344c:	26b30000 	ldrtcs	r0, [r3], r0
    3450:	e01c0000 	ands	r0, ip, r0
    3454:	0f000004 	svceq	0x00000004
    3458:	07000027 	streq	r0, [r0, -r7, lsr #32]
    345c:	1d000027 	stcne	0, cr0, [r0, #-156]	; 0xffffff64
    3460:	00009520 	andeq	r9, r0, r0, lsr #10
    3464:	0000065e 	andeq	r0, r0, lr, asr r6
    3468:	000005ae 	andeq	r0, r0, lr, lsr #11
    346c:	02500112 	subseq	r0, r0, #-2147483644	; 0x80000004
    3470:	16000076 			; <UNDEFINED> instruction: 0x16000076
    3474:	0000953c 	andeq	r9, r0, ip, lsr r5
    3478:	0000066a 	andeq	r0, r0, sl, ror #12
    347c:	25500112 	ldrbcs	r0, [r0, #-274]	; 0xfffffeee
    3480:	f75001f3 			; <UNDEFINED> instruction: 0xf75001f3
    3484:	f425f72c 	vld1.8	{d15}, [r5 :128], ip
    3488:	cccd0825 	stclgt	8, cr0, [sp], {37}	; 0x25
    348c:	0000cccc 	andeq	ip, r0, ip, asr #25
    3490:	081e0000 	ldmdaeq	lr, {}	; <UNPREDICTABLE>
    3494:	2525f720 	strcs	pc, [r5, #-1824]!	; 0xfffff8e0
    3498:	00f72cf7 	ldrshteq	r2, [r7], #199	; 0xc7
    349c:	80232533 	eorhi	r2, r3, r3, lsr r5
    34a0:	3240a080 	subcc	sl, r0, #128, 0	; 0x80
    34a4:	00000024 	andeq	r0, r0, r4, lsr #32
    34a8:	038d2300 	orreq	r2, sp, #0, 6
    34ac:	95980000 	ldrls	r0, [r8]
    34b0:	00180000 	andseq	r0, r8, r0
    34b4:	9c010000 	stcls	0, cr0, [r1], {-0}
    34b8:	00000621 	andeq	r0, r0, r1, lsr #12
    34bc:	00039a15 	andeq	r9, r3, r5, lsl sl
    34c0:	00276500 	eoreq	r6, r7, r0, lsl #10
    34c4:	00275f00 	eoreq	r5, r7, r0, lsl #30
    34c8:	95ac1600 	strls	r1, [ip, #1536]!	; 0x600
    34cc:	066a0000 	strbteq	r0, [sl], -r0
    34d0:	01120000 	tsteq	r2, r0
    34d4:	1c0c0550 	cfstr32ne	mvfx0, [ip], {80}	; 0x50
    34d8:	12202000 	eorne	r2, r0, #0, 0
    34dc:	31055101 	tstcc	r5, r1, lsl #2
    34e0:	245001f3 	ldrbcs	r0, [r0], #-499	; 0xfffffe0d
    34e4:	73230000 			; <UNDEFINED> instruction: 0x73230000
    34e8:	b0000003 	andlt	r0, r0, r3
    34ec:	18000095 	stmdane	r0, {r0, r2, r4, r7}
    34f0:	01000000 	mrseq	r0, (UNDEF: 0)
    34f4:	00065e9c 	muleq	r6, ip, lr
    34f8:	03801500 	orreq	r1, r0, #0, 10
    34fc:	27970000 	ldrcs	r0, [r7, r0]
    3500:	27910000 	ldrcs	r0, [r1, r0]
    3504:	c4160000 	ldrgt	r0, [r6], #-0
    3508:	6a000095 	bvs	3764 <__code_start__-0x489c>
    350c:	12000006 	andne	r0, r0, #6, 0
    3510:	0c055001 	stceq	0, cr5, [r5], {1}
    3514:	20200028 	eorcs	r0, r0, r8, lsr #32
    3518:	05510112 	ldrbeq	r0, [r1, #-274]	; 0xfffffeee
    351c:	5001f331 	andpl	pc, r1, r1, lsr r3	; <UNPREDICTABLE>
    3520:	24000024 	strcs	r0, [r0], #-36	; 0xffffffdc
    3524:	0000057d 	andeq	r0, r0, sp, ror r5
    3528:	0000057d 	andeq	r0, r0, sp, ror r5
    352c:	240ac202 	strcs	ip, [sl], #-514	; 0xfffffdfe
    3530:	000004e9 	andeq	r0, r0, r9, ror #9
    3534:	000004e9 	andeq	r0, r0, r9, ror #9
    3538:	0006ad02 	andeq	sl, r6, r2, lsl #26
    353c:	00000140 	andeq	r0, r0, r0, asr #2
    3540:	13870004 	orrne	r0, r7, #4, 0
    3544:	01040000 	mrseq	r0, (UNDEF: 4)
    3548:	0000021f 	andeq	r0, r0, pc, lsl r2
    354c:	00096b0c 	andeq	r6, r9, ip, lsl #22
    3550:	0002f600 	andeq	pc, r2, r0, lsl #12
    3554:	00967800 	addseq	r7, r6, r0, lsl #16
    3558:	00007800 	andeq	r7, r0, r0, lsl #16
    355c:	001b5e00 	andseq	r5, fp, r0, lsl #28
    3560:	05040200 	streq	r0, [r4, #-512]	; 0xfffffe00
    3564:	00746e69 	rsbseq	r6, r4, r9, ror #28
    3568:	00096403 	andeq	r6, r9, r3, lsl #8
    356c:	17d10300 	ldrbne	r0, [r1, r0, lsl #6]
    3570:	00000038 	andeq	r0, r0, r8, lsr r0
    3574:	6b070404 	blvs	1c458c <__bss_end__+0x1ba5ac>
    3578:	04000000 	streq	r0, [r0], #-0
    357c:	000a0601 	andeq	r0, sl, r1, lsl #12
    3580:	02040000 	andeq	r0, r4, #0, 0
    3584:	0000c905 	andeq	ip, r0, r5, lsl #18
    3588:	05040400 	streq	r0, [r4, #-1024]	; 0xfffffc00
    358c:	0000007d 	andeq	r0, r0, sp, ror r0
    3590:	78050804 	stmdavc	r5, {r2, fp}
    3594:	04000000 	streq	r0, [r0], #-0
    3598:	00080801 	andeq	r0, r8, r1, lsl #16
    359c:	02040000 	andeq	r0, r4, #0, 0
    35a0:	00002307 	andeq	r2, r0, r7, lsl #6
    35a4:	07040400 	streq	r0, [r4, -r0, lsl #8]
    35a8:	00000066 	andeq	r0, r0, r6, rrx
    35ac:	61070804 	tstvs	r7, r4, lsl #16
    35b0:	05000000 	streq	r0, [r0, #-0]
    35b4:	00000025 	andeq	r0, r0, r5, lsr #32
    35b8:	00000086 	andeq	r0, r0, r6, lsl #1
    35bc:	00002506 	andeq	r2, r0, r6, lsl #10
    35c0:	86070000 	strhi	r0, [r7], -r0
    35c4:	02000000 	andeq	r0, r0, #0, 0
    35c8:	00920e1c 	addseq	r0, r2, ip, lsl lr
    35cc:	04080000 	streq	r0, [r8], #-0
    35d0:	00000077 	andeq	r0, r0, r7, ror r0
    35d4:	00002505 	andeq	r2, r0, r5, lsl #10
    35d8:	0000a700 	andeq	sl, r0, r0, lsl #14
    35dc:	00a70600 	adceq	r0, r7, r0, lsl #12
    35e0:	08000000 	stmdaeq	r0, {}	; <UNPREDICTABLE>
    35e4:	0000b404 	andeq	fp, r0, r4, lsl #8
    35e8:	08010400 	stmdaeq	r1, {sl}
    35ec:	00000011 	andeq	r0, r0, r1, lsl r0
    35f0:	0000ad09 	andeq	sl, r0, r9, lsl #26
    35f4:	03210700 			; <UNDEFINED> instruction: 0x03210700
    35f8:	21020000 	mrscs	r0, (UNDEF: 2)
    35fc:	0000c50e 	andeq	ip, r0, lr, lsl #10
    3600:	98040800 	stmdals	r4, {fp}
    3604:	0a000000 	beq	360c <__code_start__-0x49f4>
    3608:	0000081b 	andeq	r0, r0, fp, lsl r8
    360c:	3b070401 	blcc	1c4618 <__bss_end__+0x1ba638>
    3610:	78000001 	stmdavc	r0, {r0}
    3614:	78000096 	stmdavc	r0, {r1, r2, r4, r7}
    3618:	01000000 	mrseq	r0, (UNDEF: 0)
    361c:	00013b9c 	muleq	r1, ip, fp
    3620:	705f0b00 	subsvc	r0, pc, r0, lsl #22
    3624:	14040100 	strne	r0, [r4], #-256	; 0xffffff00
    3628:	0000013b 	andeq	r0, r0, fp, lsr r1
    362c:	630c5001 	movwvs	r5, #49153	; 0xc001
    3630:	1c040100 	stfnes	f0, [r4], {-0}
    3634:	00000025 	andeq	r0, r0, r5, lsr #32
    3638:	000027c7 	andeq	r2, r0, r7, asr #15
    363c:	000027c3 	andeq	r2, r0, r3, asr #15
    3640:	01006e0c 	tsteq	r0, ip, lsl #28
    3644:	002c2604 	eoreq	r2, ip, r4, lsl #12
    3648:	27ec0000 	strbcs	r0, [ip, r0]!
    364c:	27e80000 	strbcs	r0, [r8, r0]!
    3650:	700d0000 	andvc	r0, sp, r0
    3654:	0b050100 	bleq	143a5c <__bss_end__+0x139a7c>
    3658:	0000013d 	andeq	r0, r0, sp, lsr r1
    365c:	0000281b 	andeq	r2, r0, fp, lsl r8
    3660:	0000280d 	andeq	r2, r0, sp, lsl #16
    3664:	0100650d 	tsteq	r0, sp, lsl #10
    3668:	013d1405 	teqeq	sp, r5, lsl #8
    366c:	28780000 	ldmdacs	r8!, {}^	; <UNPREDICTABLE>
    3670:	28760000 	ldmdacs	r6!, {}^	; <UNPREDICTABLE>
    3674:	0e000000 	cdpeq	0, 0, cr0, cr0, cr0, {0}
    3678:	ad040804 	stcge	8, cr0, [r4, #-16]
    367c:	00000000 	andeq	r0, r0, r0
    3680:	00000149 	andeq	r0, r0, r9, asr #2
    3684:	14530004 	ldrbne	r0, [r3], #-4
    3688:	01040000 	mrseq	r0, (UNDEF: 4)
    368c:	0000021f 	andeq	r0, r0, pc, lsl r2
    3690:	0009990c 	andeq	r9, r9, ip, lsl #18
    3694:	0002f600 	andeq	pc, r2, r0, lsl #12
    3698:	0096f000 	addseq	pc, r6, r0
    369c:	00003c00 	andeq	r3, r0, r0, lsl #24
    36a0:	001c8300 	andseq	r8, ip, r0, lsl #6
    36a4:	05040200 	streq	r0, [r4, #-512]	; 0xfffffe00
    36a8:	00746e69 	rsbseq	r6, r4, r9, ror #28
    36ac:	6b070403 	blvs	1c46c0 <__bss_end__+0x1ba6e0>
    36b0:	03000000 	movweq	r0, #0
    36b4:	000a0601 	andeq	r0, sl, r1, lsl #12
    36b8:	02030000 	andeq	r0, r3, #0, 0
    36bc:	0000c905 	andeq	ip, r0, r5, lsl #18
    36c0:	05040300 	streq	r0, [r4, #-768]	; 0xfffffd00
    36c4:	0000007d 	andeq	r0, r0, sp, ror r0
    36c8:	78050803 	stmdavc	r5, {r0, r1, fp}
    36cc:	03000000 	movweq	r0, #0
    36d0:	00080801 	andeq	r0, r8, r1, lsl #16
    36d4:	02030000 	andeq	r0, r3, #0, 0
    36d8:	00002307 	andeq	r2, r0, r7, lsl #6
    36dc:	07040300 	streq	r0, [r4, -r0, lsl #6]
    36e0:	00000066 	andeq	r0, r0, r6, rrx
    36e4:	61070803 	tstvs	r7, r3, lsl #16
    36e8:	04000000 	streq	r0, [r0], #-0
    36ec:	00000025 	andeq	r0, r0, r5, lsr #32
    36f0:	0000007a 	andeq	r0, r0, sl, ror r0
    36f4:	00002505 	andeq	r2, r0, r5, lsl #10
    36f8:	86060000 	strhi	r0, [r6], -r0
    36fc:	02000000 	andeq	r0, r0, #0, 0
    3700:	00860e1c 	addeq	r0, r6, ip, lsl lr
    3704:	04070000 	streq	r0, [r7], #-0
    3708:	0000006b 	andeq	r0, r0, fp, rrx
    370c:	00002504 	andeq	r2, r0, r4, lsl #10
    3710:	00009b00 	andeq	r9, r0, r0, lsl #22
    3714:	009b0500 	addseq	r0, fp, r0, lsl #10
    3718:	07000000 	streq	r0, [r0, -r0]
    371c:	0000a804 	andeq	sl, r0, r4, lsl #16
    3720:	08010300 	stmdaeq	r1, {r8, r9}
    3724:	00000011 	andeq	r0, r0, r1, lsl r0
    3728:	0000a108 	andeq	sl, r0, r8, lsl #2
    372c:	03210600 			; <UNDEFINED> instruction: 0x03210600
    3730:	21020000 	mrscs	r0, (UNDEF: 2)
    3734:	0000b90e 	andeq	fp, r0, lr, lsl #18
    3738:	8c040700 	stchi	7, cr0, [r4], {-0}
    373c:	09000000 	stmdbeq	r0, {}	; <UNPREDICTABLE>
    3740:	0000007a 	andeq	r0, r0, sl, ror r0
    3744:	05070601 	streq	r0, [r7, #-1537]	; 0xfffff9ff
    3748:	009bc403 	addseq	ip, fp, r3, lsl #8
    374c:	098c0a00 	stmibeq	ip, {r9, fp}
    3750:	0b010000 	bleq	43758 <__bss_end__+0x39778>
    3754:	00971c06 	addseq	r1, r7, r6, lsl #24
    3758:	00001000 	andeq	r1, r0, r0
    375c:	f19c0100 			; <UNDEFINED> instruction: 0xf19c0100
    3760:	0b000000 	bleq	3768 <__code_start__-0x4898>
    3764:	01007066 	tsteq	r0, r6, rrx
    3768:	0086190b 	addeq	r1, r6, fp, lsl #18
    376c:	50010000 	andpl	r0, r1, r0
    3770:	08ad0c00 	stmiaeq	sp!, {sl, fp}
    3774:	08010000 	stmdaeq	r1, {}	; <UNPREDICTABLE>
    3778:	00970406 	addseq	r0, r7, r6, lsl #8
    377c:	00001800 	andeq	r1, r0, r0, lsl #16
    3780:	0d9c0100 	ldfeqs	f0, [ip]
    3784:	0000097b 	andeq	r0, r0, fp, ror r9
    3788:	250c0301 	strcs	r0, [ip, #-769]	; 0xfffffcff
    378c:	f0000000 			; <UNDEFINED> instruction: 0xf0000000
    3790:	14000096 	strne	r0, [r0], #-150	; 0xffffff6a
    3794:	01000000 	mrseq	r0, (UNDEF: 0)
    3798:	0001409c 	muleq	r1, ip, r0
    379c:	00630e00 	rsbeq	r0, r3, r0, lsl #28
    37a0:	25210301 	strcs	r0, [r1, #-769]!	; 0xfffffcff
    37a4:	8f000000 	svchi	0x00000000
    37a8:	8b000028 	blhi	3850 <__code_start__-0x47b0>
    37ac:	0f000028 	svceq	0x00000028
    37b0:	000096fc 	strdeq	r9, [r0], -ip
    37b4:	00000140 	andeq	r0, r0, r0, asr #2
    37b8:	02500110 	subseq	r0, r0, #4
    37bc:	00000074 	andeq	r0, r0, r4, ror r0
    37c0:	00078e11 	andeq	r8, r7, r1, lsl lr
    37c4:	00078e00 	andeq	r8, r7, r0, lsl #28
    37c8:	06420200 	strbeq	r0, [r2], -r0, lsl #4
    37cc:	00013700 	andeq	r3, r1, r0, lsl #14
    37d0:	62000400 	andvs	r0, r0, #0, 8
    37d4:	04000015 	streq	r0, [r0], #-21	; 0xffffffeb
    37d8:	00021f01 	andeq	r1, r2, r1, lsl #30
    37dc:	09aa0c00 	stmibeq	sl!, {sl, fp}
    37e0:	02f60000 	rscseq	r0, r6, #0, 0
    37e4:	972c0000 	strls	r0, [ip, -r0]!
    37e8:	002c0000 	eoreq	r0, ip, r0
    37ec:	1d250000 	stcne	0, cr0, [r5, #-0]
    37f0:	04020000 	streq	r0, [r2], #-0
    37f4:	746e6905 	strbtvc	r6, [lr], #-2309	; 0xfffff6fb
    37f8:	07040300 	streq	r0, [r4, -r0, lsl #6]
    37fc:	0000006b 	andeq	r0, r0, fp, rrx
    3800:	0a060103 	beq	183c14 <__bss_end__+0x179c34>
    3804:	03000000 	movweq	r0, #0
    3808:	00c90502 	sbceq	r0, r9, r2, lsl #10
    380c:	04030000 	streq	r0, [r3], #-0
    3810:	00007d05 	andeq	r7, r0, r5, lsl #26
    3814:	05080300 	streq	r0, [r8, #-768]	; 0xfffffd00
    3818:	00000078 	andeq	r0, r0, r8, ror r0
    381c:	08080103 	stmdaeq	r8, {r0, r1, r8}
    3820:	03000000 	movweq	r0, #0
    3824:	00230702 	eoreq	r0, r3, r2, lsl #14
    3828:	04030000 	streq	r0, [r3], #-0
    382c:	00006607 	andeq	r6, r0, r7, lsl #12
    3830:	07080300 	streq	r0, [r8, -r0, lsl #6]
    3834:	00000061 	andeq	r0, r0, r1, rrx
    3838:	00002504 	andeq	r2, r0, r4, lsl #10
    383c:	00007a00 	andeq	r7, r0, r0, lsl #20
    3840:	00250500 	eoreq	r0, r5, r0, lsl #10
    3844:	06000000 	streq	r0, [r0], -r0
    3848:	00000086 	andeq	r0, r0, r6, lsl #1
    384c:	860e1c02 	strhi	r1, [lr], -r2, lsl #24
    3850:	07000000 	streq	r0, [r0, -r0]
    3854:	00006b04 	andeq	r6, r0, r4, lsl #22
    3858:	00250400 	eoreq	r0, r5, r0, lsl #8
    385c:	009b0000 	addseq	r0, fp, r0
    3860:	9b050000 	blls	143868 <__bss_end__+0x139888>
    3864:	00000000 	andeq	r0, r0, r0
    3868:	00a80407 	adceq	r0, r8, r7, lsl #8
    386c:	01030000 	mrseq	r0, (UNDEF: 3)
    3870:	00001108 	andeq	r1, r0, r8, lsl #2
    3874:	00a10800 	adceq	r0, r1, r0, lsl #16
    3878:	21060000 	mrscs	r0, (UNDEF: 6)
    387c:	02000003 	andeq	r0, r0, #3, 0
    3880:	00b90e21 	adcseq	r0, r9, r1, lsr #28
    3884:	04070000 	streq	r0, [r7], #-0
    3888:	0000008c 	andeq	r0, r0, ip, lsl #1
    388c:	0003cd09 	andeq	ip, r3, r9, lsl #26
    3890:	07040100 	streq	r0, [r4, -r0, lsl #2]
    3894:	00000134 	andeq	r0, r0, r4, lsr r1
    3898:	0000972c 	andeq	r9, r0, ip, lsr #14
    389c:	0000002c 	andeq	r0, r0, ip, lsr #32
    38a0:	01349c01 	teqeq	r4, r1, lsl #24
    38a4:	ba0a0000 	blt	2838ac <__bss_end__+0x2798cc>
    38a8:	01000009 	tsteq	r0, r9
    38ac:	01341504 	teqeq	r4, r4, lsl #10
    38b0:	50010000 	andpl	r0, r1, r0
    38b4:	6372730b 	cmnvs	r2, #738197504	; 0x2c000000
    38b8:	27040100 	strcs	r0, [r4, -r0, lsl #2]
    38bc:	0000009b 	muleq	r0, fp, r0
    38c0:	000028b1 			; <UNDEFINED> instruction: 0x000028b1
    38c4:	000028ad 	andeq	r2, r0, sp, lsr #17
    38c8:	0031730c 	eorseq	r7, r1, ip, lsl #6
    38cc:	340b0501 	strcc	r0, [fp], #-1281	; 0xfffffaff
    38d0:	e0000001 	and	r0, r0, r1
    38d4:	d2000028 	andle	r0, r0, #40, 0	; 0x28
    38d8:	0c000028 	stceq	0, cr0, [r0], {40}	; 0x28
    38dc:	01003273 	tsteq	r0, r3, ror r2
    38e0:	009b1106 	addseq	r1, fp, r6, lsl #2
    38e4:	293f0000 	ldmdbcs	pc!, {}	; <UNPREDICTABLE>
    38e8:	29390000 	ldmdbcs	r9!, {}	; <UNPREDICTABLE>
    38ec:	630c0000 	movwvs	r0, #49152	; 0xc000
    38f0:	0a070100 	beq	1c3cf8 <__bss_end__+0x1b9d18>
    38f4:	000000a1 	andeq	r0, r0, r1, lsr #1
    38f8:	00002970 	andeq	r2, r0, r0, ror r9
    38fc:	0000296a 	andeq	r2, r0, sl, ror #18
    3900:	a1040700 	tstge	r4, r0, lsl #14
    3904:	00000000 	andeq	r0, r0, r0
    3908:	000000f7 	strdeq	r0, [r0], -r7
    390c:	16180004 	ldrne	r0, [r8], -r4
    3910:	01040000 	mrseq	r0, (UNDEF: 4)
    3914:	0000021f 	andeq	r0, r0, pc, lsl r2
    3918:	0009bf0c 	andeq	fp, r9, ip, lsl #30
    391c:	0002f600 	andeq	pc, r2, r0, lsl #12
    3920:	00975800 	addseq	r5, r7, r0, lsl #16
    3924:	00004400 	andeq	r4, r0, r0, lsl #8
    3928:	001e0b00 	andseq	r0, lr, r0, lsl #22
    392c:	05040200 	streq	r0, [r4, #-512]	; 0xfffffe00
    3930:	00746e69 	rsbseq	r6, r4, r9, ror #28
    3934:	6b070403 	blvs	1c4948 <__bss_end__+0x1ba968>
    3938:	03000000 	movweq	r0, #0
    393c:	000a0601 	andeq	r0, sl, r1, lsl #12
    3940:	02030000 	andeq	r0, r3, #0, 0
    3944:	0000c905 	andeq	ip, r0, r5, lsl #18
    3948:	05040300 	streq	r0, [r4, #-768]	; 0xfffffd00
    394c:	0000007d 	andeq	r0, r0, sp, ror r0
    3950:	78050803 	stmdavc	r5, {r0, r1, fp}
    3954:	03000000 	movweq	r0, #0
    3958:	00080801 	andeq	r0, r8, r1, lsl #16
    395c:	02030000 	andeq	r0, r3, #0, 0
    3960:	00002307 	andeq	r2, r0, r7, lsl #6
    3964:	07040300 	streq	r0, [r4, -r0, lsl #6]
    3968:	00000066 	andeq	r0, r0, r6, rrx
    396c:	61070803 	tstvs	r7, r3, lsl #16
    3970:	04000000 	streq	r0, [r0], #-0
    3974:	00000025 	andeq	r0, r0, r5, lsr #32
    3978:	0000007a 	andeq	r0, r0, sl, ror r0
    397c:	00002505 	andeq	r2, r0, r5, lsl #10
    3980:	86060000 	strhi	r0, [r6], -r0
    3984:	02000000 	andeq	r0, r0, #0, 0
    3988:	00860e1c 	addeq	r0, r6, ip, lsl lr
    398c:	04070000 	streq	r0, [r7], #-0
    3990:	0000006b 	andeq	r0, r0, fp, rrx
    3994:	00002504 	andeq	r2, r0, r4, lsl #10
    3998:	00009b00 	andeq	r9, r0, r0, lsl #22
    399c:	009b0500 	addseq	r0, fp, r0, lsl #10
    39a0:	07000000 	streq	r0, [r0, -r0]
    39a4:	0000a804 	andeq	sl, r0, r4, lsl #16
    39a8:	08010300 	stmdaeq	r1, {r8, r9}
    39ac:	00000011 	andeq	r0, r0, r1, lsl r0
    39b0:	0000a108 	andeq	sl, r0, r8, lsl #2
    39b4:	03210600 			; <UNDEFINED> instruction: 0x03210600
    39b8:	21020000 	mrscs	r0, (UNDEF: 2)
    39bc:	0000b90e 	andeq	fp, r0, lr, lsl #18
    39c0:	8c040700 	stchi	7, cr0, [r4], {-0}
    39c4:	09000000 	stmdbeq	r0, {}	; <UNPREDICTABLE>
    39c8:	000003fb 	strdeq	r0, [r0], -fp
    39cc:	25050301 	strcs	r0, [r5, #-769]	; 0xfffffcff
    39d0:	58000000 	stmdapl	r0, {}	; <UNPREDICTABLE>
    39d4:	44000097 	strmi	r0, [r0], #-151	; 0xffffff69
    39d8:	01000000 	mrseq	r0, (UNDEF: 0)
    39dc:	00610a9c 	mlseq	r1, ip, sl, r0
    39e0:	9b180301 	blls	6045ec <__bss_end__+0x5fa60c>
    39e4:	a7000000 	strge	r0, [r0, -r0]
    39e8:	9b000029 	blls	3a94 <__code_start__-0x456c>
    39ec:	0a000029 	beq	3a98 <__code_start__-0x4568>
    39f0:	03010062 	movweq	r0, #4194	; 0x1062
    39f4:	00009b27 	andeq	r9, r0, r7, lsr #22
    39f8:	0029fb00 	eoreq	pc, r9, r0, lsl #22
    39fc:	0029f500 	eoreq	pc, r9, r0, lsl #10
    3a00:	0f000000 	svceq	0x00000000
    3a04:	04000001 	streq	r0, [r0], #-1
    3a08:	0016a700 	andseq	sl, r6, r0, lsl #14
    3a0c:	1f010400 	svcne	0x00010400
    3a10:	0c000002 	stceq	0, cr0, [r0], {2}
    3a14:	000009cf 	andeq	r0, r0, pc, asr #19
    3a18:	000002f6 	strdeq	r0, [r0], -r6
    3a1c:	0000979c 	muleq	r0, ip, r7
    3a20:	00000018 	andeq	r0, r0, r8, lsl r0
    3a24:	00001ec1 	andeq	r1, r0, r1, asr #29
    3a28:	69050402 	stmdbvs	r5, {r1, sl}
    3a2c:	0300746e 	movweq	r7, #1134	; 0x46e
    3a30:	006b0704 	rsbeq	r0, fp, r4, lsl #14
    3a34:	01030000 	mrseq	r0, (UNDEF: 3)
    3a38:	00000a06 	andeq	r0, r0, r6, lsl #20
    3a3c:	05020300 	streq	r0, [r2, #-768]	; 0xfffffd00
    3a40:	000000c9 	andeq	r0, r0, r9, asr #1
    3a44:	7d050403 	cfstrsvc	mvf0, [r5, #-12]
    3a48:	03000000 	movweq	r0, #0
    3a4c:	00780508 	rsbseq	r0, r8, r8, lsl #10
    3a50:	01030000 	mrseq	r0, (UNDEF: 3)
    3a54:	00000808 	andeq	r0, r0, r8, lsl #16
    3a58:	07020300 	streq	r0, [r2, -r0, lsl #6]
    3a5c:	00000023 	andeq	r0, r0, r3, lsr #32
    3a60:	66070403 	strvs	r0, [r7], -r3, lsl #8
    3a64:	03000000 	movweq	r0, #0
    3a68:	00610708 	rsbeq	r0, r1, r8, lsl #14
    3a6c:	25040000 	strcs	r0, [r4, #-0]
    3a70:	7a000000 	bvc	3a78 <__code_start__-0x4588>
    3a74:	05000000 	streq	r0, [r0, #-0]
    3a78:	00000025 	andeq	r0, r0, r5, lsr #32
    3a7c:	00860600 	addeq	r0, r6, r0, lsl #12
    3a80:	1c020000 	stcne	0, cr0, [r2], {-0}
    3a84:	0000860e 	andeq	r8, r0, lr, lsl #12
    3a88:	6b040700 	blvs	105690 <__bss_end__+0xfb6b0>
    3a8c:	04000000 	streq	r0, [r0], #-0
    3a90:	00000025 	andeq	r0, r0, r5, lsr #32
    3a94:	0000009b 	muleq	r0, fp, r0
    3a98:	00009b05 	andeq	r9, r0, r5, lsl #22
    3a9c:	04070000 	streq	r0, [r7], #-0
    3aa0:	000000a8 	andeq	r0, r0, r8, lsr #1
    3aa4:	11080103 	tstne	r8, r3, lsl #2
    3aa8:	08000000 	stmdaeq	r0, {}	; <UNPREDICTABLE>
    3aac:	000000a1 	andeq	r0, r0, r1, lsr #1
    3ab0:	00032106 	andeq	r2, r3, r6, lsl #2
    3ab4:	0e210200 	cdpeq	2, 2, cr0, cr1, cr0, {0}
    3ab8:	000000b9 	strheq	r0, [r0], -r9
    3abc:	008c0407 	addeq	r0, ip, r7, lsl #8
    3ac0:	d4090000 	strle	r0, [r9], #-0
    3ac4:	01000003 	tsteq	r0, r3
    3ac8:	010c0703 	tsteq	ip, r3, lsl #14
    3acc:	979c0000 	ldrls	r0, [ip, r0]
    3ad0:	00180000 	andseq	r0, r8, r0
    3ad4:	9c010000 	stcls	0, cr0, [r1], {-0}
    3ad8:	0000010c 	andeq	r0, r0, ip, lsl #2
    3adc:	0031730a 	eorseq	r7, r1, sl, lsl #6
    3ae0:	0c150301 	ldceq	3, cr0, [r5], {1}
    3ae4:	01000001 	tsteq	r0, r1
    3ae8:	32730b50 	rsbscc	r0, r3, #80, 22	; 0x14000
    3aec:	26030100 	strcs	r0, [r3], -r0, lsl #2
    3af0:	0000009b 	muleq	r0, fp, r0
    3af4:	00002a2a 	andeq	r2, r0, sl, lsr #20
    3af8:	00002a24 	andeq	r2, r0, r4, lsr #20
    3afc:	0100730c 	tsteq	r0, ip, lsl #6
    3b00:	010c1404 	tsteq	ip, r4, lsl #8
    3b04:	2a570000 	bcs	15c3b0c <__bss_end__+0x15b9b2c>
    3b08:	2a550000 	bcs	1543b10 <__bss_end__+0x1539b30>
    3b0c:	07000000 	streq	r0, [r0, -r0]
    3b10:	0000a104 	andeq	sl, r0, r4, lsl #2
    3b14:	014e0000 	mrseq	r0, (UNDEF: 78)
    3b18:	00040000 	andeq	r0, r4, r0
    3b1c:	0000175d 	andeq	r1, r0, sp, asr r7
    3b20:	021f0104 	andseq	r0, pc, #1
    3b24:	df0c0000 	svcle	0x000c0000
    3b28:	f6000009 			; <UNDEFINED> instruction: 0xf6000009
    3b2c:	b4000002 	strlt	r0, [r0], #-2
    3b30:	30000097 	mulcc	r0, r7, r0
    3b34:	62000000 	andvs	r0, r0, #0, 0
    3b38:	0200001f 	andeq	r0, r0, #31, 0
    3b3c:	6e690504 	cdpvs	5, 6, cr0, cr9, cr4, {0}
    3b40:	64030074 	strvs	r0, [r3], #-116	; 0xffffff8c
    3b44:	03000009 	movweq	r0, #9
    3b48:	003817d1 	ldrsbteq	r1, [r8], -r1
    3b4c:	04040000 	streq	r0, [r4], #-0
    3b50:	00006b07 	andeq	r6, r0, r7, lsl #22
    3b54:	06010400 	streq	r0, [r1], -r0, lsl #8
    3b58:	0000000a 	andeq	r0, r0, sl
    3b5c:	c9050204 	stmdbgt	r5, {r2, r9}
    3b60:	04000000 	streq	r0, [r0], #-0
    3b64:	007d0504 	rsbseq	r0, sp, r4, lsl #10
    3b68:	08040000 	stmdaeq	r4, {}	; <UNPREDICTABLE>
    3b6c:	00007805 	andeq	r7, r0, r5, lsl #16
    3b70:	08010400 	stmdaeq	r1, {sl}
    3b74:	00000008 	andeq	r0, r0, r8
    3b78:	00005b05 	andeq	r5, r0, r5, lsl #22
    3b7c:	07020400 	streq	r0, [r2, -r0, lsl #8]
    3b80:	00000023 	andeq	r0, r0, r3, lsr #32
    3b84:	66070404 	strvs	r0, [r7], -r4, lsl #8
    3b88:	04000000 	streq	r0, [r0], #-0
    3b8c:	00610708 	rsbeq	r0, r1, r8, lsl #14
    3b90:	25060000 	strcs	r0, [r6, #-0]
    3b94:	8b000000 	blhi	3b9c <__code_start__-0x4464>
    3b98:	07000000 	streq	r0, [r0, -r0]
    3b9c:	00000025 	andeq	r0, r0, r5, lsr #32
    3ba0:	00860800 	addeq	r0, r6, r0, lsl #16
    3ba4:	1c020000 	stcne	0, cr0, [r2], {-0}
    3ba8:	0000970e 	andeq	r9, r0, lr, lsl #14
    3bac:	7c040900 			; <UNDEFINED> instruction: 0x7c040900
    3bb0:	06000000 	streq	r0, [r0], -r0
    3bb4:	00000025 	andeq	r0, r0, r5, lsr #32
    3bb8:	000000ac 	andeq	r0, r0, ip, lsr #1
    3bbc:	0000ac07 	andeq	sl, r0, r7, lsl #24
    3bc0:	04090000 	streq	r0, [r9], #-0
    3bc4:	000000b9 	strheq	r0, [r0], -r9
    3bc8:	11080104 	tstne	r8, r4, lsl #2
    3bcc:	05000000 	streq	r0, [r0, #-0]
    3bd0:	000000b2 	strheq	r0, [r0], -r2
    3bd4:	00032108 	andeq	r2, r3, r8, lsl #2
    3bd8:	0e210200 	cdpeq	2, 2, cr0, cr1, cr0, {0}
    3bdc:	000000ca 	andeq	r0, r0, sl, asr #1
    3be0:	009d0409 	addseq	r0, sp, r9, lsl #8
    3be4:	2b0a0000 	blcs	283bec <__bss_end__+0x279c0c>
    3be8:	01000004 	tsteq	r0, r4
    3bec:	00250504 	eoreq	r0, r5, r4, lsl #10
    3bf0:	97b40000 	ldrls	r0, [r4, r0]!
    3bf4:	00300000 	eorseq	r0, r0, r0
    3bf8:	9c010000 	stcls	0, cr0, [r1], {-0}
    3bfc:	0000014b 	andeq	r0, r0, fp, asr #2
    3c00:	31735f0b 	cmncc	r3, fp, lsl #30
    3c04:	19040100 	stmdbne	r4, {r8}
    3c08:	000000ac 	andeq	r0, r0, ip, lsr #1
    3c0c:	00002a6e 	andeq	r2, r0, lr, ror #20
    3c10:	00002a6a 	andeq	r2, r0, sl, ror #20
    3c14:	32735f0b 	rsbscc	r5, r3, #11, 30	; 0x2c
    3c18:	2a040100 	bcs	104020 <__bss_end__+0xfa040>
    3c1c:	000000ac 	andeq	r0, r0, ip, lsr #1
    3c20:	00002a93 	muleq	r0, r3, sl
    3c24:	00002a8f 	andeq	r2, r0, pc, lsl #21
    3c28:	01006e0b 	tsteq	r0, fp, lsl #28
    3c2c:	002c3604 	eoreq	r3, ip, r4, lsl #12
    3c30:	2abe0000 	bcs	fef83c38 <__bss_end__+0xfef79c58>
    3c34:	2ab40000 	bcs	fed03c3c <__bss_end__+0xfecf9c5c>
    3c38:	730c0000 	movwvc	r0, #49152	; 0xc000
    3c3c:	05010031 	streq	r0, [r1, #-49]	; 0xffffffcf
    3c40:	00014b1a 	andeq	r4, r1, sl, lsl fp
    3c44:	002b1500 	eoreq	r1, fp, r0, lsl #10
    3c48:	002b0d00 	eoreq	r0, fp, r0, lsl #26
    3c4c:	32730c00 	rsbscc	r0, r3, #0, 24
    3c50:	2c050100 	stfcss	f0, [r5], {-0}
    3c54:	0000014b 	andeq	r0, r0, fp, asr #2
    3c58:	00002b53 	andeq	r2, r0, r3, asr fp
    3c5c:	00002b4d 	andeq	r2, r0, sp, asr #22
    3c60:	62040900 	andvs	r0, r4, #0, 18
    3c64:	00000000 	andeq	r0, r0, r0
    3c68:	000000ce 	andeq	r0, r0, lr, asr #1
    3c6c:	18110004 	ldmdane	r1, {r2}
    3c70:	01040000 	mrseq	r0, (UNDEF: 4)
    3c74:	0000021f 	andeq	r0, r0, pc, lsl r2
    3c78:	0009f00c 	andeq	pc, r9, ip
    3c7c:	0002f600 	andeq	pc, r2, r0, lsl #12
    3c80:	0097e400 	addseq	lr, r7, r0, lsl #8
    3c84:	00000400 	andeq	r0, r0, r0, lsl #8
    3c88:	00206300 	eoreq	r6, r0, r0, lsl #6
    3c8c:	05040200 	streq	r0, [r4, #-512]	; 0xfffffe00
    3c90:	00746e69 	rsbseq	r6, r4, r9, ror #28
    3c94:	6b070403 	blvs	1c4ca8 <__bss_end__+0x1bacc8>
    3c98:	03000000 	movweq	r0, #0
    3c9c:	000a0601 	andeq	r0, sl, r1, lsl #12
    3ca0:	02030000 	andeq	r0, r3, #0, 0
    3ca4:	0000c905 	andeq	ip, r0, r5, lsl #18
    3ca8:	05040300 	streq	r0, [r4, #-768]	; 0xfffffd00
    3cac:	0000007d 	andeq	r0, r0, sp, ror r0
    3cb0:	78050803 	stmdavc	r5, {r0, r1, fp}
    3cb4:	03000000 	movweq	r0, #0
    3cb8:	00080801 	andeq	r0, r8, r1, lsl #16
    3cbc:	02030000 	andeq	r0, r3, #0, 0
    3cc0:	00002307 	andeq	r2, r0, r7, lsl #6
    3cc4:	07040300 	streq	r0, [r4, -r0, lsl #6]
    3cc8:	00000066 	andeq	r0, r0, r6, rrx
    3ccc:	61070803 	tstvs	r7, r3, lsl #16
    3cd0:	04000000 	streq	r0, [r0], #-0
    3cd4:	00000025 	andeq	r0, r0, r5, lsr #32
    3cd8:	0000007a 	andeq	r0, r0, sl, ror r0
    3cdc:	00002505 	andeq	r2, r0, r5, lsl #10
    3ce0:	86060000 	strhi	r0, [r6], -r0
    3ce4:	02000000 	andeq	r0, r0, #0, 0
    3ce8:	00860e1c 	addeq	r0, r6, ip, lsl lr
    3cec:	04070000 	streq	r0, [r7], #-0
    3cf0:	0000006b 	andeq	r0, r0, fp, rrx
    3cf4:	00002504 	andeq	r2, r0, r4, lsl #10
    3cf8:	00009b00 	andeq	r9, r0, r0, lsl #22
    3cfc:	009b0500 	addseq	r0, fp, r0, lsl #10
    3d00:	07000000 	streq	r0, [r0, -r0]
    3d04:	0000a804 	andeq	sl, r0, r4, lsl #16
    3d08:	08010300 	stmdaeq	r1, {r8, r9}
    3d0c:	00000011 	andeq	r0, r0, r1, lsl r0
    3d10:	0000a108 	andeq	sl, r0, r8, lsl #2
    3d14:	03210600 			; <UNDEFINED> instruction: 0x03210600
    3d18:	21020000 	mrscs	r0, (UNDEF: 2)
    3d1c:	0000b90e 	andeq	fp, r0, lr, lsl #18
    3d20:	8c040700 	stchi	7, cr0, [r4], {-0}
    3d24:	09000000 	stmdbeq	r0, {}	; <UNPREDICTABLE>
    3d28:	000004d2 	ldrdeq	r0, [r0], -r2
    3d2c:	e4060301 	str	r0, [r6], #-769	; 0xfffffcff
    3d30:	04000097 	streq	r0, [r0], #-151	; 0xffffff69
    3d34:	01000000 	mrseq	r0, (UNDEF: 0)
    3d38:	Address 0x0000000000003d38 is out of bounds.


Disassembly of section .debug_abbrev:

00000000 <.debug_abbrev>:
       0:	25011101 	strcs	r1, [r1, #-257]	; 0xfffffeff
       4:	030b130e 	movweq	r1, #45838	; 0xb30e
       8:	110e1b0e 	tstne	lr, lr, lsl #22
       c:	10061201 	andne	r1, r6, r1, lsl #4
      10:	02000017 	andeq	r0, r0, #23, 0
      14:	0b0b0024 	bleq	2c00ac <__bss_end__+0x2b60cc>
      18:	08030b3e 	stmdaeq	r3, {r1, r2, r3, r4, r5, r8, r9, fp}
      1c:	24030000 	strcs	r0, [r3], #-0
      20:	3e0b0b00 	vmlacc.f64	d0, d11, d0
      24:	000e030b 	andeq	r0, lr, fp, lsl #6
      28:	01150400 	tsteq	r5, r0, lsl #8
      2c:	13491927 	movtne	r1, #39207	; 0x9927
      30:	00001301 	andeq	r1, r0, r1, lsl #6
      34:	49000505 	stmdbmi	r0, {r0, r2, r8, sl}
      38:	06000013 			; <UNDEFINED> instruction: 0x06000013
      3c:	0e030034 	mcreq	0, 0, r0, cr3, cr4, {1}
      40:	0b3b0b3a 	bleq	ec2d30 <__bss_end__+0xeb8d50>
      44:	13490b39 	movtne	r0, #39737	; 0x9b39
      48:	193c193f 	ldmdbne	ip!, {r0, r1, r2, r3, r4, r5, r8, fp, ip}
      4c:	0f070000 	svceq	0x00070000
      50:	490b0b00 	stmdbmi	fp, {r8, r9, fp}
      54:	08000013 	stmdaeq	r0, {r0, r1, r4}
      58:	13490026 	movtne	r0, #36902	; 0x9026
      5c:	2e090000 	cdpcs	0, 0, cr0, cr9, cr0, {0}
      60:	03193f01 	tsteq	r9, #1, 30
      64:	3b0b3a0e 	blcc	2ce8a4 <__bss_end__+0x2c48c4>
      68:	270b390b 	strcs	r3, [fp, -fp, lsl #18]
      6c:	12011119 	andne	r1, r1, #1073741830	; 0x40000006
      70:	97184006 	ldrls	r4, [r8, -r6]
      74:	13011942 	movwne	r1, #6466	; 0x1942
      78:	340a0000 	strcc	r0, [sl], #-0
      7c:	3a080300 	bcc	200c84 <__bss_end__+0x1f6ca4>
      80:	390b3b0b 	stmdbcc	fp, {r0, r1, r3, r8, r9, fp, ip, sp}
      84:	0013490b 	andseq	r4, r3, fp, lsl #18
      88:	00340b00 	eorseq	r0, r4, r0, lsl #22
      8c:	0b3a0803 	bleq	e820a0 <__bss_end__+0xe780c0>
      90:	0b390b3b 	bleq	e42d84 <__bss_end__+0xe38da4>
      94:	0b1c1349 	bleq	704dc0 <__bss_end__+0x6fade0>
      98:	340c0000 	strcc	r0, [ip], #-0
      9c:	490e0300 	stmdbmi	lr, {r8, r9}
      a0:	02193413 	andseq	r3, r9, #318767104	; 0x13000000
      a4:	0d000018 	stceq	0, cr0, [r0, #-96]	; 0xffffffa0
      a8:	0e030034 	mcreq	0, 0, r0, cr3, cr4, {1}
      ac:	0b3b0b3a 	bleq	ec2d9c <__bss_end__+0xeb8dbc>
      b0:	13490b39 	movtne	r0, #39737	; 0x9b39
      b4:	0b0e0000 	bleq	3800bc <__bss_end__+0x3760dc>
      b8:	00130101 	andseq	r0, r3, r1, lsl #2
      bc:	010b0f00 	tsteq	fp, r0, lsl #30
      c0:	89100000 	ldmdbhi	r0, {}	; <UNPREDICTABLE>
      c4:	11010182 	smlabbne	r1, r2, r1, r0
      c8:	01133101 	tsteq	r3, r1, lsl #2
      cc:	11000013 	tstne	r0, r3, lsl r0
      d0:	0001828a 	andeq	r8, r1, sl, lsl #5
      d4:	42911802 	addsmi	r1, r1, #131072	; 0x20000
      d8:	12000018 	andne	r0, r0, #24, 0
      dc:	00018289 	andeq	r8, r1, r9, lsl #5
      e0:	13310111 	teqne	r1, #1073741828	; 0x40000004
      e4:	01130000 	tsteq	r3, r0
      e8:	01134901 	tsteq	r3, r1, lsl #18
      ec:	14000013 	strne	r0, [r0], #-19	; 0xffffffed
      f0:	13490021 	movtne	r0, #36897	; 0x9021
      f4:	00000b2f 	andeq	r0, r0, pc, lsr #22
      f8:	3f002e15 	svccc	0x00002e15
      fc:	6e193c19 	mrcvs	12, 0, r3, cr9, cr9, {0}
     100:	3a0e030e 	bcc	380d40 <__bss_end__+0x376d60>
     104:	390b3b0b 	stmdbcc	fp, {r0, r1, r3, r8, r9, fp, ip, sp}
     108:	0000000b 	andeq	r0, r0, fp
     10c:	25011101 	strcs	r1, [r1, #-257]	; 0xfffffeff
     110:	030b130e 	movweq	r1, #45838	; 0xb30e
     114:	110e1b0e 	tstne	lr, lr, lsl #22
     118:	10061201 	andne	r1, r6, r1, lsl #4
     11c:	02000017 	andeq	r0, r0, #23, 0
     120:	0b0b0024 	bleq	2c01b8 <__bss_end__+0x2b61d8>
     124:	08030b3e 	stmdaeq	r3, {r1, r2, r3, r4, r5, r8, r9, fp}
     128:	24030000 	strcs	r0, [r3], #-0
     12c:	3e0b0b00 	vmlacc.f64	d0, d11, d0
     130:	000e030b 	andeq	r0, lr, fp, lsl #6
     134:	01150400 	tsteq	r5, r0, lsl #8
     138:	13491927 	movtne	r1, #39207	; 0x9927
     13c:	00001301 	andeq	r1, r0, r1, lsl #6
     140:	49000505 	stmdbmi	r0, {r0, r2, r8, sl}
     144:	06000013 			; <UNDEFINED> instruction: 0x06000013
     148:	0e030034 	mcreq	0, 0, r0, cr3, cr4, {1}
     14c:	0b3b0b3a 	bleq	ec2e3c <__bss_end__+0xeb8e5c>
     150:	13490b39 	movtne	r0, #39737	; 0x9b39
     154:	193c193f 	ldmdbne	ip!, {r0, r1, r2, r3, r4, r5, r8, fp, ip}
     158:	0f070000 	svceq	0x00070000
     15c:	490b0b00 	stmdbmi	fp, {r8, r9, fp}
     160:	08000013 	stmdaeq	r0, {r0, r1, r4}
     164:	13490026 	movtne	r0, #36902	; 0x9026
     168:	17090000 	strne	r0, [r9, -r0]
     16c:	0b0e0301 	bleq	380d78 <__bss_end__+0x376d98>
     170:	3b0b3a0b 	blcc	2ce9a4 <__bss_end__+0x2c49c4>
     174:	010b390b 	tsteq	fp, fp, lsl #18
     178:	0a000013 	beq	1cc <__code_start__-0x7e34>
     17c:	0803000d 	stmdaeq	r3, {r0, r2, r3}
     180:	0b3b0b3a 	bleq	ec2e70 <__bss_end__+0xeb8e90>
     184:	13490b39 	movtne	r0, #39737	; 0x9b39
     188:	0f0b0000 	svceq	0x000b0000
     18c:	000b0b00 	andeq	r0, fp, r0, lsl #22
     190:	00150c00 	andseq	r0, r5, r0, lsl #24
     194:	00001927 	andeq	r1, r0, r7, lsr #18
     198:	0b01130d 	bleq	44dd4 <__bss_end__+0x3adf4>
     19c:	3b0b3a0b 	blcc	2ce9d0 <__bss_end__+0x2c49f0>
     1a0:	010b390b 	tsteq	fp, fp, lsl #18
     1a4:	0e000013 	mcreq	0, 0, r0, cr0, cr3, {0}
     1a8:	0803000d 	stmdaeq	r3, {r0, r2, r3}
     1ac:	0b3b0b3a 	bleq	ec2e9c <__bss_end__+0xeb8ebc>
     1b0:	13490b39 	movtne	r0, #39737	; 0x9b39
     1b4:	00000b38 	andeq	r0, r0, r8, lsr fp
     1b8:	03000d0f 	movweq	r0, #3343	; 0xd0f
     1bc:	3b0b3a0e 	blcc	2ce9fc <__bss_end__+0x2c4a1c>
     1c0:	490b390b 	stmdbmi	fp, {r0, r1, r3, r8, fp, ip, sp}
     1c4:	000b3813 	andeq	r3, fp, r3, lsl r8
     1c8:	00161000 	andseq	r1, r6, r0
     1cc:	0b3a0e03 	bleq	e839e0 <__bss_end__+0xe79a00>
     1d0:	0b390b3b 	bleq	e42ec4 <__bss_end__+0xe38ee4>
     1d4:	00001349 	andeq	r1, r0, r9, asr #6
     1d8:	03003411 	movweq	r3, #1041	; 0x411
     1dc:	3b0b3a0e 	blcc	2cea1c <__bss_end__+0x2c4a3c>
     1e0:	490b390b 	stmdbmi	fp, {r0, r1, r3, r8, fp, ip, sp}
     1e4:	00180213 	andseq	r0, r8, r3, lsl r2
     1e8:	012e1200 			; <UNDEFINED> instruction: 0x012e1200
     1ec:	0e03193f 			; <UNDEFINED> instruction: 0x0e03193f
     1f0:	0b3b0b3a 	bleq	ec2ee0 <__bss_end__+0xeb8f00>
     1f4:	19270b39 	stmdbne	r7!, {r0, r3, r4, r5, r8, r9, fp}
     1f8:	06120111 			; <UNDEFINED> instruction: 0x06120111
     1fc:	42971840 	addsmi	r1, r7, #64, 16	; 0x400000
     200:	00130119 	andseq	r0, r3, r9, lsl r1
     204:	00051300 	andeq	r1, r5, r0, lsl #6
     208:	0b3a0803 	bleq	e8221c <__bss_end__+0xe7823c>
     20c:	0b390b3b 	bleq	e42f00 <__bss_end__+0xe38f20>
     210:	18021349 	stmdane	r2, {r0, r3, r6, r8, r9, ip}
     214:	34140000 	ldrcc	r0, [r4], #-0
     218:	3a080300 	bcc	200e20 <__bss_end__+0x1f6e40>
     21c:	390b3b0b 	stmdbcc	fp, {r0, r1, r3, r8, r9, fp, ip, sp}
     220:	0213490b 	andseq	r4, r3, #180224	; 0x2c000
     224:	1742b717 	smlaldne	fp, r2, r7, r7
     228:	2e150000 	cdpcs	0, 1, cr0, cr5, cr0, {0}
     22c:	03193f01 	tsteq	r9, #1, 30
     230:	3b0b3a0e 	blcc	2cea70 <__bss_end__+0x2c4a90>
     234:	270b390b 	strcs	r3, [fp, -fp, lsl #18]
     238:	11134919 	tstne	r3, r9, lsl r9
     23c:	40061201 	andmi	r1, r6, r1, lsl #4
     240:	19429718 	stmdbne	r2, {r3, r4, r8, r9, sl, ip, pc}^
     244:	00001301 	andeq	r1, r0, r1, lsl #6
     248:	03000516 	movweq	r0, #1302	; 0x516
     24c:	3b0b3a0e 	blcc	2cea8c <__bss_end__+0x2c4aac>
     250:	490b390b 	stmdbmi	fp, {r0, r1, r3, r8, fp, ip, sp}
     254:	b7170213 			; <UNDEFINED> instruction: 0xb7170213
     258:	00001742 	andeq	r1, r0, r2, asr #14
     25c:	03003417 	movweq	r3, #1047	; 0x417
     260:	3b0b3a0e 	blcc	2ceaa0 <__bss_end__+0x2c4ac0>
     264:	490b390b 	stmdbmi	fp, {r0, r1, r3, r8, fp, ip, sp}
     268:	b7170213 			; <UNDEFINED> instruction: 0xb7170213
     26c:	00001742 	andeq	r1, r0, r2, asr #14
     270:	01828918 	orreq	r8, r2, r8, lsl r9
     274:	31011101 	tstcc	r1, r1, lsl #2
     278:	19000013 	stmdbne	r0, {r0, r1, r4}
     27c:	0001828a 	andeq	r8, r1, sl, lsl #5
     280:	42911802 	addsmi	r1, r1, #131072	; 0x20000
     284:	1a000018 	bne	2ec <__code_start__-0x7d14>
     288:	0e03012e 	adfeqsp	f0, f3, #0.5
     28c:	0b3b0b3a 	bleq	ec2f7c <__bss_end__+0xeb8f9c>
     290:	19270b39 	stmdbne	r7!, {r0, r3, r4, r5, r8, r9, fp}
     294:	01111349 	tsteq	r1, r9, asr #6
     298:	18400612 	stmdane	r0, {r1, r4, r9, sl}^
     29c:	01194297 			; <UNDEFINED> instruction: 0x01194297
     2a0:	1b000013 	blne	2f4 <__code_start__-0x7d0c>
     2a4:	08030005 	stmdaeq	r3, {r0, r2}
     2a8:	0b3b0b3a 	bleq	ec2f98 <__bss_end__+0xeb8fb8>
     2ac:	13490b39 	movtne	r0, #39737	; 0x9b39
     2b0:	42b71702 	adcsmi	r1, r7, #524288	; 0x80000
     2b4:	1c000017 	stcne	0, cr0, [r0], {23}
     2b8:	01018289 	smlabbeq	r1, r9, r2, r8
     2bc:	13310111 	teqne	r1, #1073741828	; 0x40000004
     2c0:	00001301 	andeq	r1, r0, r1, lsl #6
     2c4:	0182891d 	orreq	r8, r2, sp, lsl r9
     2c8:	31011100 	mrscc	r1, (UNDEF: 17)
     2cc:	1e000013 	mcrne	0, 0, r0, cr0, cr3, {0}
     2d0:	193f002e 	ldmdbne	pc!, {r1, r2, r3, r5}	; <UNPREDICTABLE>
     2d4:	0e6e193c 			; <UNDEFINED> instruction: 0x0e6e193c
     2d8:	0b3a0e03 	bleq	e83aec <__bss_end__+0xe79b0c>
     2dc:	0b390b3b 	bleq	e42fd0 <__bss_end__+0xe38ff0>
     2e0:	01000000 	mrseq	r0, (UNDEF: 0)
     2e4:	0e250111 	mcreq	1, 1, r0, cr5, cr1, {0}
     2e8:	0e030b13 	vmoveq.32	d3[0], r0
     2ec:	01110e1b 	tsteq	r1, fp, lsl lr
     2f0:	17100612 			; <UNDEFINED> instruction: 0x17100612
     2f4:	24020000 	strcs	r0, [r2], #-0
     2f8:	3e0b0b00 	vmlacc.f64	d0, d11, d0
     2fc:	0008030b 	andeq	r0, r8, fp, lsl #6
     300:	00240300 	eoreq	r0, r4, r0, lsl #6
     304:	0b3e0b0b 	bleq	f82f38 <__bss_end__+0xf78f58>
     308:	00000e03 	andeq	r0, r0, r3, lsl #28
     30c:	27011504 	strcs	r1, [r1, -r4, lsl #10]
     310:	01134919 	tsteq	r3, r9, lsl r9
     314:	05000013 	streq	r0, [r0, #-19]	; 0xffffffed
     318:	13490005 	movtne	r0, #36869	; 0x9005
     31c:	34060000 	strcc	r0, [r6], #-0
     320:	3a0e0300 	bcc	380f28 <__bss_end__+0x376f48>
     324:	390b3b0b 	stmdbcc	fp, {r0, r1, r3, r8, r9, fp, ip, sp}
     328:	3f13490b 	svccc	0x0013490b
     32c:	00193c19 	andseq	r3, r9, r9, lsl ip
     330:	000f0700 	andeq	r0, pc, r0, lsl #14
     334:	13490b0b 	movtne	r0, #39691	; 0x9b0b
     338:	26080000 	strcs	r0, [r8], -r0
     33c:	00134900 	andseq	r4, r3, r0, lsl #18
     340:	012e0900 			; <UNDEFINED> instruction: 0x012e0900
     344:	0e03193f 			; <UNDEFINED> instruction: 0x0e03193f
     348:	0b3b0b3a 	bleq	ec3038 <__bss_end__+0xeb9058>
     34c:	19270b39 	stmdbne	r7!, {r0, r3, r4, r5, r8, r9, fp}
     350:	01111349 	tsteq	r1, r9, asr #6
     354:	18400612 	stmdane	r0, {r1, r4, r9, sl}^
     358:	01194297 			; <UNDEFINED> instruction: 0x01194297
     35c:	0a000013 	beq	3b0 <__code_start__-0x7c50>
     360:	0e030005 	cdpeq	0, 0, cr0, cr3, cr5, {0}
     364:	0b3b0b3a 	bleq	ec3054 <__bss_end__+0xeb9074>
     368:	13490b39 	movtne	r0, #39737	; 0x9b39
     36c:	42b71702 	adcsmi	r1, r7, #524288	; 0x80000
     370:	0b000017 	bleq	3d4 <__code_start__-0x7c2c>
     374:	01018289 	smlabbeq	r1, r9, r2, r8
     378:	13310111 	teqne	r1, #1073741828	; 0x40000004
     37c:	8a0c0000 	bhi	300384 <__bss_end__+0x2f63a4>
     380:	02000182 	andeq	r0, r0, #-2147483616	; 0x80000020
     384:	18429118 	stmdane	r2, {r3, r4, r8, ip, pc}^
     388:	0f0d0000 	svceq	0x000d0000
     38c:	000b0b00 	andeq	r0, fp, r0, lsl #22
     390:	002e0e00 	eoreq	r0, lr, r0, lsl #28
     394:	193c193f 	ldmdbne	ip!, {r0, r1, r2, r3, r4, r5, r8, fp, ip}
     398:	0e030e6e 	cdpeq	14, 0, cr0, cr3, cr14, {3}
     39c:	0b3b0b3a 	bleq	ec308c <__bss_end__+0xeb90ac>
     3a0:	00000b39 	andeq	r0, r0, r9, lsr fp
     3a4:	01110100 	tsteq	r1, r0, lsl #2
     3a8:	0b130e25 	bleq	4c3c44 <__bss_end__+0x4b9c64>
     3ac:	0e1b0e03 	cdpeq	14, 1, cr0, cr11, cr3, {0}
     3b0:	06120111 			; <UNDEFINED> instruction: 0x06120111
     3b4:	00001710 	andeq	r1, r0, r0, lsl r7
     3b8:	03001602 	movweq	r1, #1538	; 0x602
     3bc:	3b0b3a0e 	blcc	2cebfc <__bss_end__+0x2c4c1c>
     3c0:	490b390b 	stmdbmi	fp, {r0, r1, r3, r8, fp, ip, sp}
     3c4:	03000013 	movweq	r0, #19
     3c8:	0e030113 	mcreq	1, 0, r0, cr3, cr3, {0}
     3cc:	0b3a0b0b 	bleq	e83000 <__bss_end__+0xe79020>
     3d0:	13010b3b 	movwne	r0, #6971	; 0x1b3b
     3d4:	0d040000 	stceq	0, cr0, [r4, #-0]
     3d8:	490e0300 	stmdbmi	lr, {r8, r9}
     3dc:	340b3813 	strcc	r3, [fp], #-2067	; 0xfffff7ed
     3e0:	05000019 	streq	r0, [r0, #-25]	; 0xffffffe7
     3e4:	0b0b000f 	bleq	2c0428 <__bss_end__+0x2b6448>
     3e8:	24060000 	strcs	r0, [r6], #-0
     3ec:	3e0b0b00 	vmlacc.f64	d0, d11, d0
     3f0:	0008030b 	andeq	r0, r8, fp, lsl #6
     3f4:	00240700 	eoreq	r0, r4, r0, lsl #14
     3f8:	0b3e0b0b 	bleq	f8302c <__bss_end__+0xf7904c>
     3fc:	00000e03 	andeq	r0, r0, r3, lsl #28
     400:	27011508 	strcs	r1, [r1, -r8, lsl #10]
     404:	01134919 	tsteq	r3, r9, lsl r9
     408:	09000013 	stmdbeq	r0, {r0, r1, r4}
     40c:	13490005 	movtne	r0, #36869	; 0x9005
     410:	340a0000 	strcc	r0, [sl], #-0
     414:	3a0e0300 	bcc	38101c <__bss_end__+0x37703c>
     418:	390b3b0b 	stmdbcc	fp, {r0, r1, r3, r8, r9, fp, ip, sp}
     41c:	3f13490b 	svccc	0x0013490b
     420:	00193c19 	andseq	r3, r9, r9, lsl ip
     424:	000f0b00 	andeq	r0, pc, r0, lsl #22
     428:	13490b0b 	movtne	r0, #39691	; 0x9b0b
     42c:	260c0000 	strcs	r0, [ip], -r0
     430:	00134900 	andseq	r4, r3, r0, lsl #18
     434:	012e0d00 			; <UNDEFINED> instruction: 0x012e0d00
     438:	0e03193f 			; <UNDEFINED> instruction: 0x0e03193f
     43c:	0b3b0b3a 	bleq	ec312c <__bss_end__+0xeb914c>
     440:	19270b39 	stmdbne	r7!, {r0, r3, r4, r5, r8, r9, fp}
     444:	01111349 	tsteq	r1, r9, asr #6
     448:	18400612 	stmdane	r0, {r1, r4, r9, sl}^
     44c:	01194297 			; <UNDEFINED> instruction: 0x01194297
     450:	0e000013 	mcreq	0, 0, r0, cr0, cr3, {0}
     454:	08030005 	stmdaeq	r3, {r0, r2}
     458:	0b3b0b3a 	bleq	ec3148 <__bss_end__+0xeb9168>
     45c:	13490b39 	movtne	r0, #39737	; 0x9b39
     460:	00001802 	andeq	r1, r0, r2, lsl #16
     464:	0000180f 	andeq	r1, r0, pc, lsl #16
     468:	00341000 	eorseq	r1, r4, r0
     46c:	0b3a0803 	bleq	e82480 <__bss_end__+0xe784a0>
     470:	0b390b3b 	bleq	e43164 <__bss_end__+0xe39184>
     474:	18021349 	stmdane	r2, {r0, r3, r6, r8, r9, ip}
     478:	34110000 	ldrcc	r0, [r1], #-0
     47c:	3a0e0300 	bcc	381084 <__bss_end__+0x3770a4>
     480:	390b3b0b 	stmdbcc	fp, {r0, r1, r3, r8, r9, fp, ip, sp}
     484:	0213490b 	andseq	r4, r3, #180224	; 0x2c000
     488:	12000018 	andne	r0, r0, #24, 0
     48c:	08030034 	stmdaeq	r3, {r2, r4, r5}
     490:	0b3b0b3a 	bleq	ec3180 <__bss_end__+0xeb91a0>
     494:	13490b39 	movtne	r0, #39737	; 0x9b39
     498:	42b71702 	adcsmi	r1, r7, #524288	; 0x80000
     49c:	13000017 	movwne	r0, #23
     4a0:	01018289 	smlabbeq	r1, r9, r2, r8
     4a4:	13310111 	teqne	r1, #1073741828	; 0x40000004
     4a8:	00001301 	andeq	r1, r0, r1, lsl #6
     4ac:	01828a14 	orreq	r8, r2, r4, lsl sl
     4b0:	91180200 	tstls	r8, r0, lsl #4
     4b4:	00001842 	andeq	r1, r0, r2, asr #16
     4b8:	01828915 	orreq	r8, r2, r5, lsl r9
     4bc:	00011101 	andeq	r1, r1, r1, lsl #2
     4c0:	01011600 	tsteq	r1, r0, lsl #12
     4c4:	13011349 	movwne	r1, #4937	; 0x1349
     4c8:	21170000 	tstcs	r7, r0
     4cc:	2f134900 	svccs	0x00134900
     4d0:	18000005 	stmdane	r0, {r0, r2}
     4d4:	193f002e 	ldmdbne	pc!, {r1, r2, r3, r5}	; <UNPREDICTABLE>
     4d8:	0e6e193c 			; <UNDEFINED> instruction: 0x0e6e193c
     4dc:	0b3a0e03 	bleq	e83cf0 <__bss_end__+0xe79d10>
     4e0:	0b390b3b 	bleq	e431d4 <__bss_end__+0xe391f4>
     4e4:	01000000 	mrseq	r0, (UNDEF: 0)
     4e8:	0e250111 	mcreq	1, 1, r0, cr5, cr1, {0}
     4ec:	0e030b13 	vmoveq.32	d3[0], r0
     4f0:	01110e1b 	tsteq	r1, fp, lsl lr
     4f4:	17100612 			; <UNDEFINED> instruction: 0x17100612
     4f8:	24020000 	strcs	r0, [r2], #-0
     4fc:	3e0b0b00 	vmlacc.f64	d0, d11, d0
     500:	0008030b 	andeq	r0, r8, fp, lsl #6
     504:	00240300 	eoreq	r0, r4, r0, lsl #6
     508:	0b3e0b0b 	bleq	f8313c <__bss_end__+0xf7915c>
     50c:	00000e03 	andeq	r0, r0, r3, lsl #28
     510:	27011504 	strcs	r1, [r1, -r4, lsl #10]
     514:	01134919 	tsteq	r3, r9, lsl r9
     518:	05000013 	streq	r0, [r0, #-19]	; 0xffffffed
     51c:	13490005 	movtne	r0, #36869	; 0x9005
     520:	34060000 	strcc	r0, [r6], #-0
     524:	3a0e0300 	bcc	38112c <__bss_end__+0x37714c>
     528:	390b3b0b 	stmdbcc	fp, {r0, r1, r3, r8, r9, fp, ip, sp}
     52c:	3f13490b 	svccc	0x0013490b
     530:	00193c19 	andseq	r3, r9, r9, lsl ip
     534:	000f0700 	andeq	r0, pc, r0, lsl #14
     538:	13490b0b 	movtne	r0, #39691	; 0x9b0b
     53c:	26080000 	strcs	r0, [r8], -r0
     540:	00134900 	andseq	r4, r3, r0, lsl #18
     544:	00340900 	eorseq	r0, r4, r0, lsl #18
     548:	0b3a1347 	bleq	e8526c <__bss_end__+0xe7b28c>
     54c:	0b390b3b 	bleq	e43240 <__bss_end__+0xe39260>
     550:	00001802 	andeq	r1, r0, r2, lsl #16
     554:	3f012e0a 	svccc	0x00012e0a
     558:	3a0e0319 	bcc	3811c4 <__bss_end__+0x3771e4>
     55c:	390b3b0b 	stmdbcc	fp, {r0, r1, r3, r8, r9, fp, ip, sp}
     560:	4919270b 	ldmdbmi	r9, {r0, r1, r3, r8, r9, sl, sp}
     564:	12011113 	andne	r1, r1, #-1073741820	; 0xc0000004
     568:	96184006 	ldrls	r4, [r8], -r6
     56c:	00001942 	andeq	r1, r0, r2, asr #18
     570:	0300050b 	movweq	r0, #1291	; 0x50b
     574:	3b0b3a08 	blcc	2ced9c <__bss_end__+0x2c4dbc>
     578:	490b390b 	stmdbmi	fp, {r0, r1, r3, r8, fp, ip, sp}
     57c:	b7170213 			; <UNDEFINED> instruction: 0xb7170213
     580:	00001742 	andeq	r1, r0, r2, asr #14
     584:	01110100 	tsteq	r1, r0, lsl #2
     588:	0b130e25 	bleq	4c3e24 <__bss_end__+0x4b9e44>
     58c:	0e1b0e03 	cdpeq	14, 1, cr0, cr11, cr3, {0}
     590:	06120111 			; <UNDEFINED> instruction: 0x06120111
     594:	00001710 	andeq	r1, r0, r0, lsl r7
     598:	0b002402 	bleq	95a8 <gpio_set_on+0x10>
     59c:	030b3e0b 	movweq	r3, #48651	; 0xbe0b
     5a0:	0300000e 	movweq	r0, #14
     5a4:	0b0b0024 	bleq	2c063c <__bss_end__+0x2b665c>
     5a8:	08030b3e 	stmdaeq	r3, {r1, r2, r3, r4, r5, r8, r9, fp}
     5ac:	16040000 	strne	r0, [r4], -r0
     5b0:	3a0e0300 	bcc	3811b8 <__bss_end__+0x3771d8>
     5b4:	390b3b0b 	stmdbcc	fp, {r0, r1, r3, r8, r9, fp, ip, sp}
     5b8:	0013490b 	andseq	r4, r3, fp, lsl #18
     5bc:	01150500 	tsteq	r5, r0, lsl #10
     5c0:	13491927 	movtne	r1, #39207	; 0x9927
     5c4:	00001301 	andeq	r1, r0, r1, lsl #6
     5c8:	49000506 	stmdbmi	r0, {r1, r2, r8, sl}
     5cc:	07000013 	smladeq	r0, r3, r0, r0
     5d0:	0e030034 	mcreq	0, 0, r0, cr3, cr4, {1}
     5d4:	0b3b0b3a 	bleq	ec32c4 <__bss_end__+0xeb92e4>
     5d8:	13490b39 	movtne	r0, #39737	; 0x9b39
     5dc:	193c193f 	ldmdbne	ip!, {r0, r1, r2, r3, r4, r5, r8, fp, ip}
     5e0:	0f080000 	svceq	0x00080000
     5e4:	490b0b00 	stmdbmi	fp, {r8, r9, fp}
     5e8:	09000013 	stmdbeq	r0, {r0, r1, r4}
     5ec:	13490026 	movtne	r0, #36902	; 0x9026
     5f0:	130a0000 	movwne	r0, #40960	; 0xa000
     5f4:	0b0e0301 	bleq	381200 <__bss_end__+0x377220>
     5f8:	3b0b3a0b 	blcc	2cee2c <__bss_end__+0x2c4e4c>
     5fc:	0013010b 	andseq	r0, r3, fp, lsl #2
     600:	000d0b00 	andeq	r0, sp, r0, lsl #22
     604:	13490e03 	movtne	r0, #40451	; 0x9e03
     608:	19340b38 	ldmdbne	r4!, {r3, r4, r5, r8, r9, fp}
     60c:	0f0c0000 	svceq	0x000c0000
     610:	000b0b00 	andeq	r0, fp, r0, lsl #22
     614:	012e0d00 			; <UNDEFINED> instruction: 0x012e0d00
     618:	0e03193f 			; <UNDEFINED> instruction: 0x0e03193f
     61c:	0b3b0b3a 	bleq	ec330c <__bss_end__+0xeb932c>
     620:	19270b39 	stmdbne	r7!, {r0, r3, r4, r5, r8, r9, fp}
     624:	01111349 	tsteq	r1, r9, asr #6
     628:	18400612 	stmdane	r0, {r1, r4, r9, sl}^
     62c:	01194297 			; <UNDEFINED> instruction: 0x01194297
     630:	0e000013 	mcreq	0, 0, r0, cr0, cr3, {0}
     634:	08030005 	stmdaeq	r3, {r0, r2}
     638:	0b3b0b3a 	bleq	ec3328 <__bss_end__+0xeb9348>
     63c:	13490b39 	movtne	r0, #39737	; 0x9b39
     640:	42b71702 	adcsmi	r1, r7, #524288	; 0x80000
     644:	0f000017 	svceq	0x00000017
     648:	0e030005 	cdpeq	0, 0, cr0, cr3, cr5, {0}
     64c:	0b3b0b3a 	bleq	ec333c <__bss_end__+0xeb935c>
     650:	13490b39 	movtne	r0, #39737	; 0x9b39
     654:	42b71702 	adcsmi	r1, r7, #524288	; 0x80000
     658:	10000017 	andne	r0, r0, r7, lsl r0
     65c:	08030034 	stmdaeq	r3, {r2, r4, r5}
     660:	0b3b0b3a 	bleq	ec3350 <__bss_end__+0xeb9370>
     664:	13490b39 	movtne	r0, #39737	; 0x9b39
     668:	42b71702 	adcsmi	r1, r7, #524288	; 0x80000
     66c:	11000017 	tstne	r0, r7, lsl r0
     670:	0e030034 	mcreq	0, 0, r0, cr3, cr4, {1}
     674:	0b3b0b3a 	bleq	ec3364 <__bss_end__+0xeb9384>
     678:	13490b39 	movtne	r0, #39737	; 0x9b39
     67c:	42b71702 	adcsmi	r1, r7, #524288	; 0x80000
     680:	12000017 	andne	r0, r0, #23, 0
     684:	0e030034 	mcreq	0, 0, r0, cr3, cr4, {1}
     688:	19341349 	ldmdbne	r4!, {r0, r3, r6, r8, r9, ip}
     68c:	00001802 	andeq	r1, r0, r2, lsl #16
     690:	55010b13 	strpl	r0, [r1, #-2835]	; 0xfffff4ed
     694:	14000017 	strne	r0, [r0], #-23	; 0xffffffe9
     698:	08030034 	stmdaeq	r3, {r2, r4, r5}
     69c:	0b3b0b3a 	bleq	ec338c <__bss_end__+0xeb93ac>
     6a0:	13490b39 	movtne	r0, #39737	; 0x9b39
     6a4:	00001802 	andeq	r1, r0, r2, lsl #16
     6a8:	03003415 	movweq	r3, #1045	; 0x415
     6ac:	3b0b3a0e 	blcc	2ceeec <__bss_end__+0x2c4f0c>
     6b0:	490b390b 	stmdbmi	fp, {r0, r1, r3, r8, fp, ip, sp}
     6b4:	00180213 	andseq	r0, r8, r3, lsl r2
     6b8:	010b1600 	tsteq	fp, r0, lsl #12
     6bc:	13011755 	movwne	r1, #5973	; 0x1755
     6c0:	89170000 	ldmdbhi	r7, {}	; <UNPREDICTABLE>
     6c4:	11010182 	smlabbne	r1, r2, r1, r0
     6c8:	01133101 	tsteq	r3, r1, lsl #2
     6cc:	18000013 	stmdane	r0, {r0, r1, r4}
     6d0:	0001828a 	andeq	r8, r1, sl, lsl #5
     6d4:	42911802 	addsmi	r1, r1, #131072	; 0x20000
     6d8:	19000018 	stmdbne	r0, {r3, r4}
     6dc:	00018289 	andeq	r8, r1, r9, lsl #5
     6e0:	13310111 	teqne	r1, #1073741828	; 0x40000004
     6e4:	1d1a0000 	ldcne	0, cr0, [sl, #-0]
     6e8:	52133101 	andspl	r3, r3, #1073741824	; 0x40000000
     6ec:	0542b801 	strbeq	fp, [r2, #-2049]	; 0xfffff7ff
     6f0:	0b581755 	bleq	160644c <__bss_end__+0x15fc46c>
     6f4:	0b570b59 	bleq	15c3460 <__bss_end__+0x15b9480>
     6f8:	00001301 	andeq	r1, r0, r1, lsl #6
     6fc:	3100051b 	tstcc	r0, fp, lsl r5
     700:	b7170213 			; <UNDEFINED> instruction: 0xb7170213
     704:	00001742 	andeq	r1, r0, r2, asr #14
     708:	3100051c 	tstcc	r0, ip, lsl r5
     70c:	1d000013 	stcne	0, cr0, [r0, #-76]	; 0xffffffb4
     710:	13310034 	teqne	r1, #52, 0	; 0x34
     714:	00001802 	andeq	r1, r0, r2, lsl #16
     718:	3100341e 	tstcc	r0, lr, lsl r4
     71c:	b7170213 			; <UNDEFINED> instruction: 0xb7170213
     720:	00001742 	andeq	r1, r0, r2, asr #14
     724:	3100341f 	tstcc	r0, pc, lsl r4
     728:	20000013 	andcs	r0, r0, r3, lsl r0
     72c:	1331011d 	teqne	r1, #1073741831	; 0x40000007
     730:	42b80152 	adcsmi	r0, r8, #-2147483628	; 0x80000014
     734:	58175505 	ldmdapl	r7, {r0, r2, r8, sl, ip, lr}
     738:	570b590b 	strpl	r5, [fp, -fp, lsl #18]
     73c:	2100000b 	tstcs	r0, fp
     740:	01018289 	smlabbeq	r1, r9, r2, r8
     744:	13010111 	movwne	r0, #4369	; 0x1111
     748:	01220000 			; <UNDEFINED> instruction: 0x01220000
     74c:	01134901 	tsteq	r3, r1, lsl #18
     750:	23000013 	movwcs	r0, #19
     754:	13490021 	movtne	r0, #36897	; 0x9021
     758:	00000b2f 	andeq	r0, r0, pc, lsr #22
     75c:	03012e24 	movweq	r2, #7716	; 0x1e24
     760:	3b0b3a0e 	blcc	2cefa0 <__bss_end__+0x2c4fc0>
     764:	270b390b 	strcs	r3, [fp, -fp, lsl #18]
     768:	20134919 	andscs	r4, r3, r9, lsl r9
     76c:	0013010b 	andseq	r0, r3, fp, lsl #2
     770:	00052500 	andeq	r2, r5, r0, lsl #10
     774:	0b3a0e03 	bleq	e83f88 <__bss_end__+0xe79fa8>
     778:	0b390b3b 	bleq	e4346c <__bss_end__+0xe3948c>
     77c:	00001349 	andeq	r1, r0, r9, asr #6
     780:	03000526 	movweq	r0, #1318	; 0x526
     784:	3b0b3a08 	blcc	2cefac <__bss_end__+0x2c4fcc>
     788:	490b390b 	stmdbmi	fp, {r0, r1, r3, r8, fp, ip, sp}
     78c:	27000013 	smladcs	r0, r3, r0, r0
     790:	08030034 	stmdaeq	r3, {r2, r4, r5}
     794:	0b3b0b3a 	bleq	ec3484 <__bss_end__+0xeb94a4>
     798:	13490b39 	movtne	r0, #39737	; 0x9b39
     79c:	0b280000 	bleq	a007a4 <__bss_end__+0x9f67c4>
     7a0:	29000001 	stmdbcs	r0, {r0}
     7a4:	0e030034 	mcreq	0, 0, r0, cr3, cr4, {1}
     7a8:	0b3b0b3a 	bleq	ec3498 <__bss_end__+0xeb94b8>
     7ac:	13490b39 	movtne	r0, #39737	; 0x9b39
     7b0:	2e2a0000 	cdpcs	0, 2, cr0, cr10, cr0, {0}
     7b4:	3a080301 	bcc	2013c0 <__bss_end__+0x1f73e0>
     7b8:	390b3b0b 	stmdbcc	fp, {r0, r1, r3, r8, r9, fp, ip, sp}
     7bc:	4919270b 	ldmdbmi	r9, {r0, r1, r3, r8, r9, sl, sp}
     7c0:	010b2013 	tsteq	fp, r3, lsl r0
     7c4:	2b000013 	blcs	818 <__code_start__-0x77e8>
     7c8:	193f012e 	ldmdbne	pc!, {r1, r2, r3, r5, r8}	; <UNPREDICTABLE>
     7cc:	0b3a0e03 	bleq	e83fe0 <__bss_end__+0xe7a000>
     7d0:	0b390b3b 	bleq	e434c4 <__bss_end__+0xe394e4>
     7d4:	01111927 	tsteq	r1, r7, lsr #18
     7d8:	18400612 	stmdane	r0, {r1, r4, r9, sl}^
     7dc:	01194297 			; <UNDEFINED> instruction: 0x01194297
     7e0:	2c000013 	stccs	0, cr0, [r0], {19}
     7e4:	1331012e 	teqne	r1, #-2147483637	; 0x8000000b
     7e8:	06120111 			; <UNDEFINED> instruction: 0x06120111
     7ec:	42971840 	addsmi	r1, r7, #64, 16	; 0x400000
     7f0:	00130119 	andseq	r0, r3, r9, lsl r1
     7f4:	00052d00 	andeq	r2, r5, r0, lsl #26
     7f8:	18021331 	stmdane	r2, {r0, r4, r5, r8, r9, ip}
     7fc:	052e0000 	streq	r0, [lr, #-0]!
     800:	1c133100 	ldfnes	f3, [r3], {-0}
     804:	2f00000b 	svccs	0x0000000b
     808:	1331010b 	teqne	r1, #-1073741822	; 0xc0000002
     80c:	06120111 			; <UNDEFINED> instruction: 0x06120111
     810:	00001301 	andeq	r1, r0, r1, lsl #6
     814:	3f002e30 	svccc	0x00002e30
     818:	6e193c19 	mrcvs	12, 0, r3, cr9, cr9, {0}
     81c:	3a0e030e 	bcc	38145c <__bss_end__+0x37747c>
     820:	390b3b0b 	stmdbcc	fp, {r0, r1, r3, r8, r9, fp, ip, sp}
     824:	0000000b 	andeq	r0, r0, fp
     828:	25011101 	strcs	r1, [r1, #-257]	; 0xfffffeff
     82c:	030b130e 	movweq	r1, #45838	; 0xb30e
     830:	110e1b0e 	tstne	lr, lr, lsl #22
     834:	10061201 	andne	r1, r6, r1, lsl #4
     838:	02000017 	andeq	r0, r0, #23, 0
     83c:	0b0b0024 	bleq	2c08d4 <__bss_end__+0x2b68f4>
     840:	08030b3e 	stmdaeq	r3, {r1, r2, r3, r4, r5, r8, r9, fp}
     844:	24030000 	strcs	r0, [r3], #-0
     848:	3e0b0b00 	vmlacc.f64	d0, d11, d0
     84c:	000e030b 	andeq	r0, lr, fp, lsl #6
     850:	01150400 	tsteq	r5, r0, lsl #8
     854:	13491927 	movtne	r1, #39207	; 0x9927
     858:	00001301 	andeq	r1, r0, r1, lsl #6
     85c:	49000505 	stmdbmi	r0, {r0, r2, r8, sl}
     860:	06000013 			; <UNDEFINED> instruction: 0x06000013
     864:	0e030034 	mcreq	0, 0, r0, cr3, cr4, {1}
     868:	0b3b0b3a 	bleq	ec3558 <__bss_end__+0xeb9578>
     86c:	13490b39 	movtne	r0, #39737	; 0x9b39
     870:	193c193f 	ldmdbne	ip!, {r0, r1, r2, r3, r4, r5, r8, fp, ip}
     874:	0f070000 	svceq	0x00070000
     878:	490b0b00 	stmdbmi	fp, {r8, r9, fp}
     87c:	08000013 	stmdaeq	r0, {r0, r1, r4}
     880:	13490026 	movtne	r0, #36902	; 0x9026
     884:	2e090000 	cdpcs	0, 0, cr0, cr9, cr0, {0}
     888:	03193f01 	tsteq	r9, #1, 30
     88c:	3b0b3a0e 	blcc	2cf0cc <__bss_end__+0x2c50ec>
     890:	270b390b 	strcs	r3, [fp, -fp, lsl #18]
     894:	19018719 	stmdbne	r1, {r0, r3, r4, r8, r9, sl, pc}
     898:	06120111 			; <UNDEFINED> instruction: 0x06120111
     89c:	42971840 	addsmi	r1, r7, #64, 16	; 0x400000
     8a0:	00130119 	andseq	r0, r3, r9, lsl r1
     8a4:	82890a00 	addhi	r0, r9, #0, 20
     8a8:	01110101 	tsteq	r1, r1, lsl #2
     8ac:	00001301 	andeq	r1, r0, r1, lsl #6
     8b0:	01828a0b 	orreq	r8, r2, fp, lsl #20
     8b4:	91180200 	tstls	r8, r0, lsl #4
     8b8:	00001842 	andeq	r1, r0, r2, asr #16
     8bc:	0182890c 	orreq	r8, r2, ip, lsl #18
     8c0:	31011100 	mrscc	r1, (UNDEF: 17)
     8c4:	0d000013 	stceq	0, cr0, [r0, #-76]	; 0xffffffb4
     8c8:	01018289 	smlabbeq	r1, r9, r2, r8
     8cc:	13310111 	teqne	r1, #1073741828	; 0x40000004
     8d0:	00001301 	andeq	r1, r0, r1, lsl #6
     8d4:	3f002e0e 	svccc	0x00002e0e
     8d8:	6e193c19 	mrcvs	12, 0, r3, cr9, cr9, {0}
     8dc:	3a0e030e 	bcc	38151c <__bss_end__+0x37753c>
     8e0:	390b3b0b 	stmdbcc	fp, {r0, r1, r3, r8, r9, fp, ip, sp}
     8e4:	0000000b 	andeq	r0, r0, fp
     8e8:	25011101 	strcs	r1, [r1, #-257]	; 0xfffffeff
     8ec:	030b130e 	movweq	r1, #45838	; 0xb30e
     8f0:	110e1b0e 	tstne	lr, lr, lsl #22
     8f4:	10061201 	andne	r1, r6, r1, lsl #4
     8f8:	02000017 	andeq	r0, r0, #23, 0
     8fc:	0b0b0024 	bleq	2c0994 <__bss_end__+0x2b69b4>
     900:	08030b3e 	stmdaeq	r3, {r1, r2, r3, r4, r5, r8, r9, fp}
     904:	24030000 	strcs	r0, [r3], #-0
     908:	3e0b0b00 	vmlacc.f64	d0, d11, d0
     90c:	000e030b 	andeq	r0, lr, fp, lsl #6
     910:	01150400 	tsteq	r5, r0, lsl #8
     914:	13491927 	movtne	r1, #39207	; 0x9927
     918:	00001301 	andeq	r1, r0, r1, lsl #6
     91c:	49000505 	stmdbmi	r0, {r0, r2, r8, sl}
     920:	06000013 			; <UNDEFINED> instruction: 0x06000013
     924:	0e030034 	mcreq	0, 0, r0, cr3, cr4, {1}
     928:	0b3b0b3a 	bleq	ec3618 <__bss_end__+0xeb9638>
     92c:	13490b39 	movtne	r0, #39737	; 0x9b39
     930:	193c193f 	ldmdbne	ip!, {r0, r1, r2, r3, r4, r5, r8, fp, ip}
     934:	0f070000 	svceq	0x00070000
     938:	490b0b00 	stmdbmi	fp, {r8, r9, fp}
     93c:	08000013 	stmdaeq	r0, {r0, r1, r4}
     940:	13490026 	movtne	r0, #36902	; 0x9026
     944:	2e090000 	cdpcs	0, 0, cr0, cr9, cr0, {0}
     948:	03193f01 	tsteq	r9, #1, 30
     94c:	3b0b3a0e 	blcc	2cf18c <__bss_end__+0x2c51ac>
     950:	110b390b 	tstne	fp, fp, lsl #18
     954:	40061201 	andmi	r1, r6, r1, lsl #4
     958:	19429718 	stmdbne	r2, {r3, r4, r8, r9, sl, ip, pc}^
     95c:	00001301 	andeq	r1, r0, r1, lsl #6
     960:	3f002e0a 	svccc	0x00002e0a
     964:	3a0e0319 	bcc	3815d0 <__bss_end__+0x3775f0>
     968:	390b3b0b 	stmdbcc	fp, {r0, r1, r3, r8, r9, fp, ip, sp}
     96c:	3c19270b 	ldccc	7, cr2, [r9], {11}
     970:	0b000019 	bleq	9dc <__code_start__-0x7624>
     974:	08030034 	stmdaeq	r3, {r2, r4, r5}
     978:	0b3b0b3a 	bleq	ec3668 <__bss_end__+0xeb9688>
     97c:	13490b39 	movtne	r0, #39737	; 0x9b39
     980:	42b71702 	adcsmi	r1, r7, #524288	; 0x80000
     984:	0c000017 	stceq	0, cr0, [r0], {23}
     988:	0e030034 	mcreq	0, 0, r0, cr3, cr4, {1}
     98c:	0b3b0b3a 	bleq	ec367c <__bss_end__+0xeb969c>
     990:	13490b39 	movtne	r0, #39737	; 0x9b39
     994:	0b0d0000 	bleq	34099c <__bss_end__+0x3369bc>
     998:	12011101 	andne	r1, r1, #1073741824	; 0x40000000
     99c:	00130106 	andseq	r0, r3, r6, lsl #2
     9a0:	82890e00 	addhi	r0, r9, #0, 28
     9a4:	01110001 	tsteq	r1, r1
     9a8:	00001331 	andeq	r1, r0, r1, lsr r3
     9ac:	3f002e0f 	svccc	0x00002e0f
     9b0:	6e193c19 	mrcvs	12, 0, r3, cr9, cr9, {0}
     9b4:	3a0e030e 	bcc	3815f4 <__bss_end__+0x377614>
     9b8:	39053b0b 	stmdbcc	r5, {r0, r1, r3, r8, r9, fp, ip, sp}
     9bc:	1000000b 	andne	r0, r0, fp
     9c0:	193f002e 	ldmdbne	pc!, {r1, r2, r3, r5}	; <UNPREDICTABLE>
     9c4:	0e6e193c 			; <UNDEFINED> instruction: 0x0e6e193c
     9c8:	0b3a0e03 	bleq	e841dc <__bss_end__+0xe7a1fc>
     9cc:	0b390b3b 	bleq	e436c0 <__bss_end__+0xe396e0>
     9d0:	01000000 	mrseq	r0, (UNDEF: 0)
     9d4:	0e250111 	mcreq	1, 1, r0, cr5, cr1, {0}
     9d8:	0e030b13 	vmoveq.32	d3[0], r0
     9dc:	01110e1b 	tsteq	r1, fp, lsl lr
     9e0:	17100612 			; <UNDEFINED> instruction: 0x17100612
     9e4:	24020000 	strcs	r0, [r2], #-0
     9e8:	3e0b0b00 	vmlacc.f64	d0, d11, d0
     9ec:	0008030b 	andeq	r0, r8, fp, lsl #6
     9f0:	00240300 	eoreq	r0, r4, r0, lsl #6
     9f4:	0b3e0b0b 	bleq	f83628 <__bss_end__+0xf79648>
     9f8:	00000e03 	andeq	r0, r0, r3, lsl #28
     9fc:	27011504 	strcs	r1, [r1, -r4, lsl #10]
     a00:	01134919 	tsteq	r3, r9, lsl r9
     a04:	05000013 	streq	r0, [r0, #-19]	; 0xffffffed
     a08:	13490005 	movtne	r0, #36869	; 0x9005
     a0c:	34060000 	strcc	r0, [r6], #-0
     a10:	3a0e0300 	bcc	381618 <__bss_end__+0x377638>
     a14:	390b3b0b 	stmdbcc	fp, {r0, r1, r3, r8, r9, fp, ip, sp}
     a18:	3f13490b 	svccc	0x0013490b
     a1c:	00193c19 	andseq	r3, r9, r9, lsl ip
     a20:	000f0700 	andeq	r0, pc, r0, lsl #14
     a24:	13490b0b 	movtne	r0, #39691	; 0x9b0b
     a28:	26080000 	strcs	r0, [r8], -r0
     a2c:	00134900 	andseq	r4, r3, r0, lsl #18
     a30:	002e0900 	eoreq	r0, lr, r0, lsl #18
     a34:	0e03193f 			; <UNDEFINED> instruction: 0x0e03193f
     a38:	0b3b0b3a 	bleq	ec3728 <__bss_end__+0xeb9748>
     a3c:	19270b39 	stmdbne	r7!, {r0, r3, r4, r5, r8, r9, fp}
     a40:	06120111 			; <UNDEFINED> instruction: 0x06120111
     a44:	42971840 	addsmi	r1, r7, #64, 16	; 0x400000
     a48:	00000019 	andeq	r0, r0, r9, lsl r0
     a4c:	25011101 	strcs	r1, [r1, #-257]	; 0xfffffeff
     a50:	030b130e 	movweq	r1, #45838	; 0xb30e
     a54:	550e1b0e 	strpl	r1, [lr, #-2830]	; 0xfffff4f2
     a58:	10011117 	andne	r1, r1, r7, lsl r1
     a5c:	02000017 	andeq	r0, r0, #23, 0
     a60:	0b0b0024 	bleq	2c0af8 <__bss_end__+0x2b6b18>
     a64:	08030b3e 	stmdaeq	r3, {r1, r2, r3, r4, r5, r8, r9, fp}
     a68:	26030000 	strcs	r0, [r3], -r0
     a6c:	00134900 	andseq	r4, r3, r0, lsl #18
     a70:	00240400 	eoreq	r0, r4, r0, lsl #8
     a74:	0b3e0b0b 	bleq	f836a8 <__bss_end__+0xf796c8>
     a78:	00000e03 	andeq	r0, r0, r3, lsl #28
     a7c:	27011505 	strcs	r1, [r1, -r5, lsl #10]
     a80:	01134919 	tsteq	r3, r9, lsl r9
     a84:	06000013 			; <UNDEFINED> instruction: 0x06000013
     a88:	13490005 	movtne	r0, #36869	; 0x9005
     a8c:	34070000 	strcc	r0, [r7], #-0
     a90:	3a0e0300 	bcc	381698 <__bss_end__+0x3776b8>
     a94:	390b3b0b 	stmdbcc	fp, {r0, r1, r3, r8, r9, fp, ip, sp}
     a98:	3f13490b 	svccc	0x0013490b
     a9c:	00193c19 	andseq	r3, r9, r9, lsl ip
     aa0:	000f0800 	andeq	r0, pc, r0, lsl #16
     aa4:	13490b0b 	movtne	r0, #39691	; 0x9b0b
     aa8:	34090000 	strcc	r0, [r9], #-0
     aac:	3a0e0300 	bcc	3816b4 <__bss_end__+0x3776d4>
     ab0:	390b3b0b 	stmdbcc	fp, {r0, r1, r3, r8, r9, fp, ip, sp}
     ab4:	0013490b 	andseq	r4, r3, fp, lsl #18
     ab8:	012e0a00 			; <UNDEFINED> instruction: 0x012e0a00
     abc:	0e03193f 			; <UNDEFINED> instruction: 0x0e03193f
     ac0:	0b3b0b3a 	bleq	ec37b0 <__bss_end__+0xeb97d0>
     ac4:	19270b39 	stmdbne	r7!, {r0, r3, r4, r5, r8, r9, fp}
     ac8:	11190187 	tstne	r9, r7, lsl #3
     acc:	40061201 	andmi	r1, r6, r1, lsl #4
     ad0:	19429718 	stmdbne	r2, {r3, r4, r8, r9, sl, ip, pc}^
     ad4:	00001301 	andeq	r1, r0, r1, lsl #6
     ad8:	0300340b 	movweq	r3, #1035	; 0x40b
     adc:	3b0b3a0e 	blcc	2cf31c <__bss_end__+0x2c533c>
     ae0:	490b390b 	stmdbmi	fp, {r0, r1, r3, r8, fp, ip, sp}
     ae4:	00061c13 	andeq	r1, r6, r3, lsl ip
     ae8:	00340c00 	eorseq	r0, r4, r0, lsl #24
     aec:	0b3a0e03 	bleq	e84300 <__bss_end__+0xe7a320>
     af0:	0b390b3b 	bleq	e437e4 <__bss_end__+0xe39804>
     af4:	0b1c1349 	bleq	705820 <__bss_end__+0x6fb840>
     af8:	1d0d0000 	stcne	0, cr0, [sp, #-0]
     afc:	52133101 	andspl	r3, r3, #1073741824	; 0x40000000
     b00:	0b42b801 	bleq	10aeb0c <__bss_end__+0x10a4b2c>
     b04:	0b581755 	bleq	1606860 <__bss_end__+0x15fc880>
     b08:	0b570b59 	bleq	15c3874 <__bss_end__+0x15b9894>
     b0c:	00001301 	andeq	r1, r0, r1, lsl #6
     b10:	55010b0e 	strpl	r0, [r1, #-2830]	; 0xfffff4f2
     b14:	0f000017 	svceq	0x00000017
     b18:	13310034 	teqne	r1, #52, 0	; 0x34
     b1c:	42b71702 	adcsmi	r1, r7, #524288	; 0x80000
     b20:	10000017 	andne	r0, r0, r7, lsl r0
     b24:	1331011d 	teqne	r1, #1073741831	; 0x40000007
     b28:	42b80152 	adcsmi	r0, r8, #-2147483628	; 0x80000014
     b2c:	1201110b 	andne	r1, r1, #-1073741822	; 0xc0000002
     b30:	590b5806 	stmdbpl	fp, {r1, r2, fp, ip, lr}
     b34:	010b570b 	tsteq	fp, fp, lsl #14
     b38:	11000013 	tstne	r0, r3, lsl r0
     b3c:	00018289 	andeq	r8, r1, r9, lsl #5
     b40:	13310111 	teqne	r1, #1073741828	; 0x40000004
     b44:	89120000 	ldmdbhi	r2, {}	; <UNPREDICTABLE>
     b48:	11010182 	smlabbne	r1, r2, r1, r0
     b4c:	01133101 	tsteq	r3, r1, lsl #2
     b50:	13000013 	movwne	r0, #19
     b54:	0001828a 	andeq	r8, r1, sl, lsl #5
     b58:	42911802 	addsmi	r1, r1, #131072	; 0x20000
     b5c:	14000018 	strne	r0, [r0], #-24	; 0xffffffe8
     b60:	01018289 	smlabbeq	r1, r9, r2, r8
     b64:	13310111 	teqne	r1, #1073741828	; 0x40000004
     b68:	2e150000 	cdpcs	0, 1, cr0, cr5, cr0, {0}
     b6c:	03193f01 	tsteq	r9, #1, 30
     b70:	3b0b3a0e 	blcc	2cf3b0 <__bss_end__+0x2c53d0>
     b74:	270b390b 	strcs	r3, [fp, -fp, lsl #18]
     b78:	010b2019 	tsteq	fp, r9, lsl r0
     b7c:	16000013 			; <UNDEFINED> instruction: 0x16000013
     b80:	193f012e 	ldmdbne	pc!, {r1, r2, r3, r5, r8}	; <UNPREDICTABLE>
     b84:	0b3a0e03 	bleq	e84398 <__bss_end__+0xe7a3b8>
     b88:	0b390b3b 	bleq	e4387c <__bss_end__+0xe3989c>
     b8c:	13491927 	movtne	r1, #39207	; 0x9927
     b90:	13010b20 	movwne	r0, #6944	; 0x1b20
     b94:	2e170000 	cdpcs	0, 1, cr0, cr7, cr0, {0}
     b98:	11133101 	tstne	r3, r1, lsl #2
     b9c:	40061201 	andmi	r1, r6, r1, lsl #4
     ba0:	19429718 	stmdbne	r2, {r3, r4, r8, r9, sl, ip, pc}^
     ba4:	00001301 	andeq	r1, r0, r1, lsl #6
     ba8:	3f002e18 	svccc	0x00002e18
     bac:	6e193c19 	mrcvs	12, 0, r3, cr9, cr9, {0}
     bb0:	3a0e030e 	bcc	3817f0 <__bss_end__+0x377810>
     bb4:	39053b0b 	stmdbcc	r5, {r0, r1, r3, r8, r9, fp, ip, sp}
     bb8:	1900000b 	stmdbne	r0, {r0, r1, r3}
     bbc:	193f002e 	ldmdbne	pc!, {r1, r2, r3, r5}	; <UNPREDICTABLE>
     bc0:	0e6e193c 			; <UNDEFINED> instruction: 0x0e6e193c
     bc4:	0b3a0e03 	bleq	e843d8 <__bss_end__+0xe7a3f8>
     bc8:	0b390b3b 	bleq	e438bc <__bss_end__+0xe398dc>
     bcc:	01000000 	mrseq	r0, (UNDEF: 0)
     bd0:	0e250111 	mcreq	1, 1, r0, cr5, cr1, {0}
     bd4:	0e030b13 	vmoveq.32	d3[0], r0
     bd8:	01110e1b 	tsteq	r1, fp, lsl lr
     bdc:	17100612 			; <UNDEFINED> instruction: 0x17100612
     be0:	24020000 	strcs	r0, [r2], #-0
     be4:	3e0b0b00 	vmlacc.f64	d0, d11, d0
     be8:	0008030b 	andeq	r0, r8, fp, lsl #6
     bec:	00240300 	eoreq	r0, r4, r0, lsl #6
     bf0:	0b3e0b0b 	bleq	f83824 <__bss_end__+0xf79844>
     bf4:	00000e03 	andeq	r0, r0, r3, lsl #28
     bf8:	27011504 	strcs	r1, [r1, -r4, lsl #10]
     bfc:	01134919 	tsteq	r3, r9, lsl r9
     c00:	05000013 	streq	r0, [r0, #-19]	; 0xffffffed
     c04:	13490005 	movtne	r0, #36869	; 0x9005
     c08:	34060000 	strcc	r0, [r6], #-0
     c0c:	3a0e0300 	bcc	381814 <__bss_end__+0x377834>
     c10:	390b3b0b 	stmdbcc	fp, {r0, r1, r3, r8, r9, fp, ip, sp}
     c14:	3f13490b 	svccc	0x0013490b
     c18:	00193c19 	andseq	r3, r9, r9, lsl ip
     c1c:	000f0700 	andeq	r0, pc, r0, lsl #14
     c20:	13490b0b 	movtne	r0, #39691	; 0x9b0b
     c24:	26080000 	strcs	r0, [r8], -r0
     c28:	00134900 	andseq	r4, r3, r0, lsl #18
     c2c:	012e0900 			; <UNDEFINED> instruction: 0x012e0900
     c30:	0e03193f 			; <UNDEFINED> instruction: 0x0e03193f
     c34:	0b3b0b3a 	bleq	ec3924 <__bss_end__+0xeb9944>
     c38:	19270b39 	stmdbne	r7!, {r0, r3, r4, r5, r8, r9, fp}
     c3c:	06120111 			; <UNDEFINED> instruction: 0x06120111
     c40:	42971840 	addsmi	r1, r7, #64, 16	; 0x400000
     c44:	00130119 	andseq	r0, r3, r9, lsl r1
     c48:	00050a00 	andeq	r0, r5, r0, lsl #20
     c4c:	0b3a0803 	bleq	e82c60 <__bss_end__+0xe78c80>
     c50:	0b390b3b 	bleq	e43944 <__bss_end__+0xe39964>
     c54:	17021349 	strne	r1, [r2, -r9, asr #6]
     c58:	001742b7 			; <UNDEFINED> instruction: 0x001742b7
     c5c:	011d0b00 	tsteq	sp, r0, lsl #22
     c60:	01521331 	cmpeq	r2, r1, lsr r3
     c64:	550b42b8 	strpl	r4, [fp, #-696]	; 0xfffffd48
     c68:	590b5817 	stmdbpl	fp, {r0, r1, r2, r4, fp, ip, lr}
     c6c:	000b570b 	andeq	r5, fp, fp, lsl #14
     c70:	00050c00 	andeq	r0, r5, r0, lsl #24
     c74:	17021331 	smladxne	r2, r1, r3, r1
     c78:	001742b7 			; <UNDEFINED> instruction: 0x001742b7
     c7c:	011d0d00 	tsteq	sp, r0, lsl #26
     c80:	01521331 	cmpeq	r2, r1, lsr r3
     c84:	110b42b8 			; <UNDEFINED> instruction: 0x110b42b8
     c88:	58061201 	stmdapl	r6, {r0, r9, ip}
     c8c:	570b590b 	strpl	r5, [fp, -fp, lsl #18]
     c90:	0e00000b 	cdpeq	0, 0, cr0, cr0, cr11, {0}
     c94:	13310034 	teqne	r1, #52, 0	; 0x34
     c98:	42b71702 	adcsmi	r1, r7, #524288	; 0x80000
     c9c:	0f000017 	svceq	0x00000017
     ca0:	1331011d 	teqne	r1, #1073741831	; 0x40000007
     ca4:	42b80152 	adcsmi	r0, r8, #-2147483628	; 0x80000014
     ca8:	1201110b 	andne	r1, r1, #-1073741822	; 0xc0000002
     cac:	590b5806 	stmdbpl	fp, {r1, r2, fp, ip, lr}
     cb0:	010b570b 	tsteq	fp, fp, lsl #14
     cb4:	10000013 	andne	r0, r0, r3, lsl r0
     cb8:	01018289 	smlabbeq	r1, r9, r2, r8
     cbc:	13310111 	teqne	r1, #1073741828	; 0x40000004
     cc0:	8a110000 	bhi	440cc8 <__bss_end__+0x436ce8>
     cc4:	02000182 	andeq	r0, r0, #-2147483616	; 0x80000020
     cc8:	18429118 	stmdane	r2, {r3, r4, r8, ip, pc}^
     ccc:	89120000 	ldmdbhi	r2, {}	; <UNPREDICTABLE>
     cd0:	11000182 	smlabbne	r0, r2, r1, r0
     cd4:	00133101 	andseq	r3, r3, r1, lsl #2
     cd8:	010b1300 	mrseq	r1, (UNDEF: 59)
     cdc:	17551331 	smmlarne	r5, r1, r3, r1
     ce0:	34140000 	ldrcc	r0, [r4], #-0
     ce4:	00133100 	andseq	r3, r3, r0, lsl #2
     ce8:	010b1500 	tsteq	fp, r0, lsl #10
     cec:	00001755 	andeq	r1, r0, r5, asr r7
     cf0:	31011d16 	tstcc	r1, r6, lsl sp
     cf4:	b8015213 	stmdalt	r1, {r0, r1, r4, r9, ip, lr}
     cf8:	17550b42 	ldrbne	r0, [r5, -r2, asr #22]
     cfc:	0b590b58 	bleq	1643a64 <__bss_end__+0x1639a84>
     d00:	13010b57 	movwne	r0, #6999	; 0x1b57
     d04:	2e170000 	cdpcs	0, 1, cr0, cr7, cr0, {0}
     d08:	03193f01 	tsteq	r9, #1, 30
     d0c:	3b0b3a0e 	blcc	2cf54c <__bss_end__+0x2c556c>
     d10:	270b390b 	strcs	r3, [fp, -fp, lsl #18]
     d14:	010b2019 	tsteq	fp, r9, lsl r0
     d18:	18000013 	stmdane	r0, {r0, r1, r4}
     d1c:	08030005 	stmdaeq	r3, {r0, r2}
     d20:	0b3b0b3a 	bleq	ec3a10 <__bss_end__+0xeb9a30>
     d24:	13490b39 	movtne	r0, #39737	; 0x9b39
     d28:	34190000 	ldrcc	r0, [r9], #-0
     d2c:	3a080300 	bcc	201934 <__bss_end__+0x1f7954>
     d30:	390b3b0b 	stmdbcc	fp, {r0, r1, r3, r8, r9, fp, ip, sp}
     d34:	0013490b 	andseq	r4, r3, fp, lsl #18
     d38:	010b1a00 	tsteq	fp, r0, lsl #20
     d3c:	2e1b0000 	cdpcs	0, 1, cr0, cr11, cr0, {0}
     d40:	03193f01 	tsteq	r9, #1, 30
     d44:	3b0b3a0e 	blcc	2cf584 <__bss_end__+0x2c55a4>
     d48:	270b390b 	strcs	r3, [fp, -fp, lsl #18]
     d4c:	20134919 	andscs	r4, r3, r9, lsl r9
     d50:	0013010b 	andseq	r0, r3, fp, lsl #2
     d54:	002e1c00 	eoreq	r1, lr, r0, lsl #24
     d58:	0e03193f 			; <UNDEFINED> instruction: 0x0e03193f
     d5c:	0b3b0b3a 	bleq	ec3a4c <__bss_end__+0xeb9a6c>
     d60:	19270b39 	stmdbne	r7!, {r0, r3, r4, r5, r8, r9, fp}
     d64:	0b201349 	bleq	805a90 <__bss_end__+0x7fbab0>
     d68:	2e1d0000 	cdpcs	0, 1, cr0, cr13, cr0, {0}
     d6c:	11133101 	tstne	r3, r1, lsl #2
     d70:	40061201 	andmi	r1, r6, r1, lsl #4
     d74:	19429718 	stmdbne	r2, {r3, r4, r8, r9, sl, ip, pc}^
     d78:	00001301 	andeq	r1, r0, r1, lsl #6
     d7c:	0182891e 	orreq	r8, r2, lr, lsl r9
     d80:	95011101 	strls	r1, [r1, #-257]	; 0xfffffeff
     d84:	13311942 	teqne	r1, #1081344	; 0x108000
     d88:	2e1f0000 	cdpcs	0, 1, cr0, cr15, cr0, {0}
     d8c:	3c193f00 	ldccc	15, cr3, [r9], {-0}
     d90:	030e6e19 	movweq	r6, #60953	; 0xee19
     d94:	3b0b3a0e 	blcc	2cf5d4 <__bss_end__+0x2c55f4>
     d98:	000b390b 	andeq	r3, fp, fp, lsl #18
     d9c:	11010000 	mrsne	r0, (UNDEF: 1)
     da0:	130e2501 	movwne	r2, #58625	; 0xe501
     da4:	1b0e030b 	blne	3819d8 <__bss_end__+0x3779f8>
     da8:	1201110e 	andne	r1, r1, #-2147483645	; 0x80000003
     dac:	00171006 	andseq	r1, r7, r6
     db0:	00240200 	eoreq	r0, r4, r0, lsl #4
     db4:	0b3e0b0b 	bleq	f839e8 <__bss_end__+0xf79a08>
     db8:	00000803 	andeq	r0, r0, r3, lsl #16
     dbc:	0b002403 	bleq	9dd0 <buf.3944+0x1f8>
     dc0:	030b3e0b 	movweq	r3, #48651	; 0xbe0b
     dc4:	0400000e 	streq	r0, [r0], #-14
     dc8:	13490035 	movtne	r0, #36917	; 0x9035
     dcc:	16050000 	strne	r0, [r5], -r0
     dd0:	3a0e0300 	bcc	3819d8 <__bss_end__+0x3779f8>
     dd4:	390b3b0b 	stmdbcc	fp, {r0, r1, r3, r8, r9, fp, ip, sp}
     dd8:	0013490b 	andseq	r4, r3, fp, lsl #18
     ddc:	01040600 	tsteq	r4, r0, lsl #12
     de0:	0b0b0b3e 	bleq	2c3ae0 <__bss_end__+0x2b9b00>
     de4:	0b3a1349 	bleq	e85b10 <__bss_end__+0xe7bb30>
     de8:	0b390b3b 	bleq	e43adc <__bss_end__+0xe39afc>
     dec:	00001301 	andeq	r1, r0, r1, lsl #6
     df0:	03002807 	movweq	r2, #2055	; 0x807
     df4:	000b1c0e 	andeq	r1, fp, lr, lsl #24
     df8:	01130800 	tsteq	r3, r0, lsl #16
     dfc:	0b0b0e03 	bleq	2c4610 <__bss_end__+0x2ba630>
     e00:	0b3b0b3a 	bleq	ec3af0 <__bss_end__+0xeb9b10>
     e04:	13010b39 	movwne	r0, #6969	; 0x1b39
     e08:	0d090000 	stceq	0, cr0, [r9, #-0]
     e0c:	3a080300 	bcc	201a14 <__bss_end__+0x1f7a34>
     e10:	390b3b0b 	stmdbcc	fp, {r0, r1, r3, r8, r9, fp, ip, sp}
     e14:	3813490b 	ldmdacc	r3, {r0, r1, r3, r8, fp, lr}
     e18:	0a00000b 	beq	e4c <__code_start__-0x71b4>
     e1c:	0e03000d 	cdpeq	0, 0, cr0, cr3, cr13, {0}
     e20:	0b3b0b3a 	bleq	ec3b10 <__bss_end__+0xeb9b30>
     e24:	13490b39 	movtne	r0, #39737	; 0x9b39
     e28:	00000b38 	andeq	r0, r0, r8, lsr fp
     e2c:	0300340b 	movweq	r3, #1035	; 0x40b
     e30:	3b0b3a0e 	blcc	2cf670 <__bss_end__+0x2c5690>
     e34:	490b390b 	stmdbmi	fp, {r0, r1, r3, r8, fp, ip, sp}
     e38:	00061c13 	andeq	r1, r6, r3, lsl ip
     e3c:	000f0c00 	andeq	r0, pc, r0, lsl #24
     e40:	13490b0b 	movtne	r0, #39691	; 0x9b0b
     e44:	260d0000 	strcs	r0, [sp], -r0
     e48:	00134900 	andseq	r4, r3, r0, lsl #18
     e4c:	012e0e00 			; <UNDEFINED> instruction: 0x012e0e00
     e50:	0e03193f 			; <UNDEFINED> instruction: 0x0e03193f
     e54:	0b3b0b3a 	bleq	ec3b44 <__bss_end__+0xeb9b64>
     e58:	19270b39 	stmdbne	r7!, {r0, r3, r4, r5, r8, r9, fp}
     e5c:	06120111 			; <UNDEFINED> instruction: 0x06120111
     e60:	42971840 	addsmi	r1, r7, #64, 16	; 0x400000
     e64:	00130119 	andseq	r0, r3, r9, lsl r1
     e68:	82890f00 	addhi	r0, r9, #0, 30
     e6c:	01110001 	tsteq	r1, r1
     e70:	00001331 	andeq	r1, r0, r1, lsr r3
     e74:	3f012e10 	svccc	0x00012e10
     e78:	3a0e0319 	bcc	381ae4 <__bss_end__+0x377b04>
     e7c:	390b3b0b 	stmdbcc	fp, {r0, r1, r3, r8, r9, fp, ip, sp}
     e80:	4919270b 	ldmdbmi	r9, {r0, r1, r3, r8, r9, sl, sp}
     e84:	12011113 	andne	r1, r1, #-1073741820	; 0xc0000004
     e88:	97184006 	ldrls	r4, [r8, -r6]
     e8c:	13011942 	movwne	r1, #6466	; 0x1942
     e90:	89110000 	ldmdbhi	r1, {}	; <UNPREDICTABLE>
     e94:	11010182 	smlabbne	r1, r2, r1, r0
     e98:	00133101 	andseq	r3, r3, r1, lsl #2
     e9c:	828a1200 	addhi	r1, sl, #0, 4
     ea0:	18020001 	stmdane	r2, {r0}
     ea4:	00184291 	mulseq	r8, r1, r2
     ea8:	00051300 	andeq	r1, r5, r0, lsl #6
     eac:	0b3a0803 	bleq	e82ec0 <__bss_end__+0xe78ee0>
     eb0:	0b390b3b 	bleq	e43ba4 <__bss_end__+0xe39bc4>
     eb4:	17021349 	strne	r1, [r2, -r9, asr #6]
     eb8:	001742b7 			; <UNDEFINED> instruction: 0x001742b7
     ebc:	82891400 	addhi	r1, r9, #0, 8
     ec0:	01110101 	tsteq	r1, r1, lsl #2
     ec4:	13011331 	movwne	r1, #4913	; 0x1331
     ec8:	34150000 	ldrcc	r0, [r5], #-0
     ecc:	3a080300 	bcc	201ad4 <__bss_end__+0x1f7af4>
     ed0:	390b3b0b 	stmdbcc	fp, {r0, r1, r3, r8, r9, fp, ip, sp}
     ed4:	0213490b 	andseq	r4, r3, #180224	; 0x2c000
     ed8:	1742b717 	smlaldne	fp, r2, r7, r7
     edc:	34160000 	ldrcc	r0, [r6], #-0
     ee0:	3a0e0300 	bcc	381ae8 <__bss_end__+0x377b08>
     ee4:	390b3b0b 	stmdbcc	fp, {r0, r1, r3, r8, r9, fp, ip, sp}
     ee8:	1c13490b 			; <UNDEFINED> instruction: 0x1c13490b
     eec:	17000005 	strne	r0, [r0, -r5]
     ef0:	0e03012e 	adfeqsp	f0, f3, #0.5
     ef4:	0b3b0b3a 	bleq	ec3be4 <__bss_end__+0xeb9c04>
     ef8:	19270b39 	stmdbne	r7!, {r0, r3, r4, r5, r8, r9, fp}
     efc:	06120111 			; <UNDEFINED> instruction: 0x06120111
     f00:	42971840 	addsmi	r1, r7, #64, 16	; 0x400000
     f04:	00130119 	andseq	r0, r3, r9, lsl r1
     f08:	00051800 	andeq	r1, r5, r0, lsl #16
     f0c:	0b3a0e03 	bleq	e84720 <__bss_end__+0xe7a740>
     f10:	0b390b3b 	bleq	e43c04 <__bss_end__+0xe39c24>
     f14:	17021349 	strne	r1, [r2, -r9, asr #6]
     f18:	001742b7 			; <UNDEFINED> instruction: 0x001742b7
     f1c:	00351900 	eorseq	r1, r5, r0, lsl #18
     f20:	2e1a0000 	cdpcs	0, 1, cr0, cr10, cr0, {0}
     f24:	3c193f00 	ldccc	15, cr3, [r9], {-0}
     f28:	030e6e19 	movweq	r6, #60953	; 0xee19
     f2c:	3b0b3a0e 	blcc	2cf76c <__bss_end__+0x2c578c>
     f30:	000b390b 	andeq	r3, fp, fp, lsl #18
     f34:	11010000 	mrsne	r0, (UNDEF: 1)
     f38:	130e2501 	movwne	r2, #58625	; 0xe501
     f3c:	1b0e030b 	blne	381b70 <__bss_end__+0x377b90>
     f40:	1201110e 	andne	r1, r1, #-2147483645	; 0x80000003
     f44:	00171006 	andseq	r1, r7, r6
     f48:	00240200 	eoreq	r0, r4, r0, lsl #4
     f4c:	0b3e0b0b 	bleq	f83b80 <__bss_end__+0xf79ba0>
     f50:	00000803 	andeq	r0, r0, r3, lsl #16
     f54:	0b002403 	bleq	9f68 <buf.3944+0x390>
     f58:	030b3e0b 	movweq	r3, #48651	; 0xbe0b
     f5c:	0400000e 	streq	r0, [r0], #-14
     f60:	0e030016 	mcreq	0, 0, r0, cr3, cr6, {0}
     f64:	0b3b0b3a 	bleq	ec3c54 <__bss_end__+0xeb9c74>
     f68:	13490b39 	movtne	r0, #39737	; 0x9b39
     f6c:	26050000 	strcs	r0, [r5], -r0
     f70:	00134900 	andseq	r4, r3, r0, lsl #18
     f74:	000f0600 	andeq	r0, pc, r0, lsl #12
     f78:	00000b0b 	andeq	r0, r0, fp, lsl #22
     f7c:	3e010407 	cdpcc	4, 0, cr0, cr1, cr7, {0}
     f80:	490b0b0b 	stmdbmi	fp, {r0, r1, r3, r8, r9, fp}
     f84:	3b0b3a13 	blcc	2cf7d8 <__bss_end__+0x2c57f8>
     f88:	010b390b 	tsteq	fp, fp, lsl #18
     f8c:	08000013 	stmdaeq	r0, {r0, r1, r4}
     f90:	0e030028 	cdpeq	0, 0, cr0, cr3, cr8, {1}
     f94:	0000061c 	andeq	r0, r0, ip, lsl r6
     f98:	03003409 	movweq	r3, #1033	; 0x409
     f9c:	3b0b3a0e 	blcc	2cf7dc <__bss_end__+0x2c57fc>
     fa0:	490b390b 	stmdbmi	fp, {r0, r1, r3, r8, fp, ip, sp}
     fa4:	3c193f13 	ldccc	15, cr3, [r9], {19}
     fa8:	0a000019 	beq	1014 <__code_start__-0x6fec>
     fac:	0e030034 	mcreq	0, 0, r0, cr3, cr4, {1}
     fb0:	0b3b0b3a 	bleq	ec3ca0 <__bss_end__+0xeb9cc0>
     fb4:	13490b39 	movtne	r0, #39737	; 0x9b39
     fb8:	00001802 	andeq	r1, r0, r2, lsl #16
     fbc:	0b000f0b 	bleq	4bf0 <__code_start__-0x3410>
     fc0:	0013490b 	andseq	r4, r3, fp, lsl #18
     fc4:	012e0c00 			; <UNDEFINED> instruction: 0x012e0c00
     fc8:	0e03193f 			; <UNDEFINED> instruction: 0x0e03193f
     fcc:	0b3b0b3a 	bleq	ec3cbc <__bss_end__+0xeb9cdc>
     fd0:	19270b39 	stmdbne	r7!, {r0, r3, r4, r5, r8, r9, fp}
     fd4:	06120111 			; <UNDEFINED> instruction: 0x06120111
     fd8:	42971840 	addsmi	r1, r7, #64, 16	; 0x400000
     fdc:	00130119 	andseq	r0, r3, r9, lsl r1
     fe0:	00050d00 	andeq	r0, r5, r0, lsl #26
     fe4:	0b3a0803 	bleq	e82ff8 <__bss_end__+0xe79018>
     fe8:	0b390b3b 	bleq	e43cdc <__bss_end__+0xe39cfc>
     fec:	17021349 	strne	r1, [r2, -r9, asr #6]
     ff0:	001742b7 			; <UNDEFINED> instruction: 0x001742b7
     ff4:	00340e00 	eorseq	r0, r4, r0, lsl #28
     ff8:	13490e03 	movtne	r0, #40451	; 0x9e03
     ffc:	18021934 	stmdane	r2, {r2, r4, r5, r8, fp, ip}
    1000:	890f0000 	stmdbhi	pc, {}	; <UNPREDICTABLE>
    1004:	11010182 	smlabbne	r1, r2, r1, r0
    1008:	01133101 	tsteq	r3, r1, lsl #2
    100c:	10000013 	andne	r0, r0, r3, lsl r0
    1010:	0001828a 	andeq	r8, r1, sl, lsl #5
    1014:	42911802 	addsmi	r1, r1, #131072	; 0x20000
    1018:	11000018 	tstne	r0, r8, lsl r0
    101c:	00018289 	andeq	r8, r1, r9, lsl #5
    1020:	13310111 	teqne	r1, #1073741828	; 0x40000004
    1024:	01120000 	tsteq	r2, r0
    1028:	01134901 	tsteq	r3, r1, lsl #18
    102c:	13000013 	movwne	r0, #19
    1030:	13490021 	movtne	r0, #36897	; 0x9021
    1034:	00000b2f 	andeq	r0, r0, pc, lsr #22
    1038:	3f002e14 	svccc	0x00002e14
    103c:	3a0e0319 	bcc	381ca8 <__bss_end__+0x377cc8>
    1040:	390b3b0b 	stmdbcc	fp, {r0, r1, r3, r8, r9, fp, ip, sp}
    1044:	1119270b 	tstne	r9, fp, lsl #14
    1048:	40061201 	andmi	r1, r6, r1, lsl #4
    104c:	19429718 	stmdbne	r2, {r3, r4, r8, r9, sl, ip, pc}^
    1050:	05150000 	ldreq	r0, [r5, #-0]
    1054:	3a080300 	bcc	201c5c <__bss_end__+0x1f7c7c>
    1058:	390b3b0b 	stmdbcc	fp, {r0, r1, r3, r8, r9, fp, ip, sp}
    105c:	0213490b 	andseq	r4, r3, #180224	; 0x2c000
    1060:	16000018 			; <UNDEFINED> instruction: 0x16000018
    1064:	193f012e 	ldmdbne	pc!, {r1, r2, r3, r5, r8}	; <UNPREDICTABLE>
    1068:	0b3a0e03 	bleq	e8487c <__bss_end__+0xe7a89c>
    106c:	0b390b3b 	bleq	e43d60 <__bss_end__+0xe39d80>
    1070:	13491927 	movtne	r1, #39207	; 0x9927
    1074:	06120111 			; <UNDEFINED> instruction: 0x06120111
    1078:	42971840 	addsmi	r1, r7, #64, 16	; 0x400000
    107c:	00130119 	andseq	r0, r3, r9, lsl r1
    1080:	00051700 	andeq	r1, r5, r0, lsl #14
    1084:	0b3a0e03 	bleq	e84898 <__bss_end__+0xe7a8b8>
    1088:	0b390b3b 	bleq	e43d7c <__bss_end__+0xe39d9c>
    108c:	17021349 	strne	r1, [r2, -r9, asr #6]
    1090:	001742b7 			; <UNDEFINED> instruction: 0x001742b7
    1094:	00341800 	eorseq	r1, r4, r0, lsl #16
    1098:	0b3a0803 	bleq	e830ac <__bss_end__+0xe790cc>
    109c:	0b390b3b 	bleq	e43d90 <__bss_end__+0xe39db0>
    10a0:	17021349 	strne	r1, [r2, -r9, asr #6]
    10a4:	001742b7 			; <UNDEFINED> instruction: 0x001742b7
    10a8:	011d1900 	tsteq	sp, r0, lsl #18
    10ac:	01521331 	cmpeq	r2, r1, lsr r3
    10b0:	110b42b8 			; <UNDEFINED> instruction: 0x110b42b8
    10b4:	58061201 	stmdapl	r6, {r0, r9, ip}
    10b8:	570b590b 	strpl	r5, [fp, -fp, lsl #18]
    10bc:	0013010b 	andseq	r0, r3, fp, lsl #2
    10c0:	00051a00 	andeq	r1, r5, r0, lsl #20
    10c4:	17021331 	smladxne	r2, r1, r3, r1
    10c8:	001742b7 			; <UNDEFINED> instruction: 0x001742b7
    10cc:	011d1b00 	tsteq	sp, r0, lsl #22
    10d0:	01521331 	cmpeq	r2, r1, lsr r3
    10d4:	550b42b8 	strpl	r4, [fp, #-696]	; 0xfffffd48
    10d8:	590b5817 	stmdbpl	fp, {r0, r1, r2, r4, fp, ip, lr}
    10dc:	010b570b 	tsteq	fp, fp, lsl #14
    10e0:	1c000013 	stcne	0, cr0, [r0], {19}
    10e4:	1755010b 	ldrbne	r0, [r5, -fp, lsl #2]
    10e8:	341d0000 	ldrcc	r0, [sp], #-0
    10ec:	3a0e0300 	bcc	381cf4 <__bss_end__+0x377d14>
    10f0:	390b3b0b 	stmdbcc	fp, {r0, r1, r3, r8, r9, fp, ip, sp}
    10f4:	0213490b 	andseq	r4, r3, #180224	; 0x2c000
    10f8:	1742b717 	smlaldne	fp, r2, r7, r7
    10fc:	0b1e0000 	bleq	781104 <__bss_end__+0x777124>
    1100:	00175500 	andseq	r5, r7, r0, lsl #10
    1104:	002e1f00 	eoreq	r1, lr, r0, lsl #30
    1108:	0e03193f 			; <UNDEFINED> instruction: 0x0e03193f
    110c:	0b3b0b3a 	bleq	ec3dfc <__bss_end__+0xeb9e1c>
    1110:	19270b39 	stmdbne	r7!, {r0, r3, r4, r5, r8, r9, fp}
    1114:	01111349 	tsteq	r1, r9, asr #6
    1118:	18400612 	stmdane	r0, {r1, r4, r9, sl}^
    111c:	00194297 	mulseq	r9, r7, r2
    1120:	012e2000 			; <UNDEFINED> instruction: 0x012e2000
    1124:	0b3a0e03 	bleq	e84938 <__bss_end__+0xe7a958>
    1128:	0b390b3b 	bleq	e43e1c <__bss_end__+0xe39e3c>
    112c:	13491927 	movtne	r1, #39207	; 0x9927
    1130:	13010b20 	movwne	r0, #6944	; 0x1b20
    1134:	05210000 	streq	r0, [r1, #-0]!
    1138:	3a080300 	bcc	201d40 <__bss_end__+0x1f7d60>
    113c:	390b3b0b 	stmdbcc	fp, {r0, r1, r3, r8, r9, fp, ip, sp}
    1140:	0013490b 	andseq	r4, r3, fp, lsl #18
    1144:	002e2200 	eoreq	r2, lr, r0, lsl #4
    1148:	193c193f 	ldmdbne	ip!, {r0, r1, r2, r3, r4, r5, r8, fp, ip}
    114c:	0e030e6e 	cdpeq	14, 0, cr0, cr3, cr14, {3}
    1150:	0b3b0b3a 	bleq	ec3e40 <__bss_end__+0xeb9e60>
    1154:	00000b39 	andeq	r0, r0, r9, lsr fp
    1158:	01110100 	tsteq	r1, r0, lsl #2
    115c:	0b130e25 	bleq	4c49f8 <__bss_end__+0x4baa18>
    1160:	0e1b0e03 	cdpeq	14, 1, cr0, cr11, cr3, {0}
    1164:	06120111 			; <UNDEFINED> instruction: 0x06120111
    1168:	00001710 	andeq	r1, r0, r0, lsl r7
    116c:	0b002402 	bleq	a17c <__bss_end__+0x19c>
    1170:	030b3e0b 	movweq	r3, #48651	; 0xbe0b
    1174:	0300000e 	movweq	r0, #14
    1178:	0b0b0024 	bleq	2c1210 <__bss_end__+0x2b7230>
    117c:	08030b3e 	stmdaeq	r3, {r1, r2, r3, r4, r5, r8, r9, fp}
    1180:	26040000 	strcs	r0, [r4], -r0
    1184:	00134900 	andseq	r4, r3, r0, lsl #18
    1188:	00160500 	andseq	r0, r6, r0, lsl #10
    118c:	0b3a0e03 	bleq	e849a0 <__bss_end__+0xe7a9c0>
    1190:	0b390b3b 	bleq	e43e84 <__bss_end__+0xe39ea4>
    1194:	00001349 	andeq	r1, r0, r9, asr #6
    1198:	27011506 	strcs	r1, [r1, -r6, lsl #10]
    119c:	01134919 	tsteq	r3, r9, lsl r9
    11a0:	07000013 	smladeq	r0, r3, r0, r0
    11a4:	13490005 	movtne	r0, #36869	; 0x9005
    11a8:	34080000 	strcc	r0, [r8], #-0
    11ac:	3a0e0300 	bcc	381db4 <__bss_end__+0x377dd4>
    11b0:	390b3b0b 	stmdbcc	fp, {r0, r1, r3, r8, r9, fp, ip, sp}
    11b4:	3f13490b 	svccc	0x0013490b
    11b8:	00193c19 	andseq	r3, r9, r9, lsl ip
    11bc:	000f0900 	andeq	r0, pc, r0, lsl #18
    11c0:	13490b0b 	movtne	r0, #39691	; 0x9b0b
    11c4:	040a0000 	streq	r0, [sl], #-0
    11c8:	0b0b3e01 	bleq	2d09d4 <__bss_end__+0x2c69f4>
    11cc:	3a13490b 	bcc	4d3600 <__bss_end__+0x4c9620>
    11d0:	390b3b0b 	stmdbcc	fp, {r0, r1, r3, r8, r9, fp, ip, sp}
    11d4:	0013010b 	andseq	r0, r3, fp, lsl #2
    11d8:	00280b00 	eoreq	r0, r8, r0, lsl #22
    11dc:	0b1c0e03 	bleq	7049f0 <__bss_end__+0x6faa10>
    11e0:	340c0000 	strcc	r0, [ip], #-0
    11e4:	3a0e0300 	bcc	381dec <__bss_end__+0x377e0c>
    11e8:	390b3b0b 	stmdbcc	fp, {r0, r1, r3, r8, r9, fp, ip, sp}
    11ec:	1c13490b 			; <UNDEFINED> instruction: 0x1c13490b
    11f0:	0d000006 	stceq	0, cr0, [r0, #-24]	; 0xffffffe8
    11f4:	193f012e 	ldmdbne	pc!, {r1, r2, r3, r5, r8}	; <UNPREDICTABLE>
    11f8:	0b3a0e03 	bleq	e84a0c <__bss_end__+0xe7aa2c>
    11fc:	0b390b3b 	bleq	e43ef0 <__bss_end__+0xe39f10>
    1200:	13491927 	movtne	r1, #39207	; 0x9927
    1204:	06120111 			; <UNDEFINED> instruction: 0x06120111
    1208:	42971840 	addsmi	r1, r7, #64, 16	; 0x400000
    120c:	00130119 	andseq	r0, r3, r9, lsl r1
    1210:	00050e00 	andeq	r0, r5, r0, lsl #28
    1214:	0b3a0803 	bleq	e83228 <__bss_end__+0xe79248>
    1218:	0b390b3b 	bleq	e43f0c <__bss_end__+0xe39f2c>
    121c:	17021349 	strne	r1, [r2, -r9, asr #6]
    1220:	001742b7 			; <UNDEFINED> instruction: 0x001742b7
    1224:	00340f00 	eorseq	r0, r4, r0, lsl #30
    1228:	0b3a0e03 	bleq	e84a3c <__bss_end__+0xe7aa5c>
    122c:	0b390b3b 	bleq	e43f20 <__bss_end__+0xe39f40>
    1230:	17021349 	strne	r1, [r2, -r9, asr #6]
    1234:	001742b7 			; <UNDEFINED> instruction: 0x001742b7
    1238:	00341000 	eorseq	r1, r4, r0
    123c:	0b3a0803 	bleq	e83250 <__bss_end__+0xe79270>
    1240:	0b390b3b 	bleq	e43f34 <__bss_end__+0xe39f54>
    1244:	17021349 	strne	r1, [r2, -r9, asr #6]
    1248:	001742b7 			; <UNDEFINED> instruction: 0x001742b7
    124c:	82891100 	addhi	r1, r9, #0
    1250:	01110101 	tsteq	r1, r1, lsl #2
    1254:	00001331 	andeq	r1, r0, r1, lsr r3
    1258:	01828a12 	orreq	r8, r2, r2, lsl sl
    125c:	91180200 	tstls	r8, r0, lsl #4
    1260:	00001842 	andeq	r1, r0, r2, asr #16
    1264:	3f012e13 	svccc	0x00012e13
    1268:	3a0e0319 	bcc	381ed4 <__bss_end__+0x377ef4>
    126c:	390b3b0b 	stmdbcc	fp, {r0, r1, r3, r8, r9, fp, ip, sp}
    1270:	1119270b 	tstne	r9, fp, lsl #14
    1274:	40061201 	andmi	r1, r6, r1, lsl #4
    1278:	19429718 	stmdbne	r2, {r3, r4, r8, r9, sl, ip, pc}^
    127c:	00001301 	andeq	r1, r0, r1, lsl #6
    1280:	31011d14 	tstcc	r1, r4, lsl sp
    1284:	b8015213 	stmdalt	r1, {r0, r1, r4, r9, ip, lr}
    1288:	17550b42 	ldrbne	r0, [r5, -r2, asr #22]
    128c:	0b590b58 	bleq	1643ff4 <__bss_end__+0x163a014>
    1290:	13010b57 	movwne	r0, #6999	; 0x1b57
    1294:	05150000 	ldreq	r0, [r5, #-0]
    1298:	02133100 	andseq	r3, r3, #0
    129c:	1742b717 	smlaldne	fp, r2, r7, r7
    12a0:	89160000 	ldmdbhi	r6, {}	; <UNPREDICTABLE>
    12a4:	11010182 	smlabbne	r1, r2, r1, r0
    12a8:	19429501 	stmdbne	r2, {r0, r8, sl, ip, pc}^
    12ac:	00001331 	andeq	r1, r0, r1, lsr r3
    12b0:	31011d17 	tstcc	r1, r7, lsl sp
    12b4:	b8015213 	stmdalt	r1, {r0, r1, r4, r9, ip, lr}
    12b8:	01110b42 	tsteq	r1, r2, asr #22
    12bc:	0b580612 	bleq	1602b0c <__bss_end__+0x15f8b2c>
    12c0:	0b570b59 	bleq	15c402c <__bss_end__+0x15ba04c>
    12c4:	1d180000 	ldcne	0, cr0, [r8, #-0]
    12c8:	52133101 	andspl	r3, r3, #1073741824	; 0x40000000
    12cc:	0b42b801 	bleq	10af2d8 <__bss_end__+0x10a52f8>
    12d0:	0b581755 	bleq	160702c <__bss_end__+0x15fd04c>
    12d4:	0b570b59 	bleq	15c4040 <__bss_end__+0x15ba060>
    12d8:	05190000 	ldreq	r0, [r9, #-0]
    12dc:	1c133100 	ldfnes	f3, [r3], {-0}
    12e0:	1a00000b 	bne	1314 <__code_start__-0x6cec>
    12e4:	1755010b 	ldrbne	r0, [r5, -fp, lsl #2]
    12e8:	341b0000 	ldrcc	r0, [fp], #-0
    12ec:	00133100 	andseq	r3, r3, r0, lsl #2
    12f0:	00341c00 	eorseq	r1, r4, r0, lsl #24
    12f4:	17021331 	smladxne	r2, r1, r3, r1
    12f8:	001742b7 			; <UNDEFINED> instruction: 0x001742b7
    12fc:	82891d00 	addhi	r1, r9, #0, 26
    1300:	01110101 	tsteq	r1, r1, lsl #2
    1304:	13011331 	movwne	r1, #4913	; 0x1331
    1308:	2e1e0000 	cdpcs	0, 1, cr0, cr14, cr0, {0}
    130c:	03193f01 	tsteq	r9, #1, 30
    1310:	3b0b3a0e 	blcc	2cfb50 <__bss_end__+0x2c5b70>
    1314:	270b390b 	strcs	r3, [fp, -fp, lsl #18]
    1318:	010b2019 	tsteq	fp, r9, lsl r0
    131c:	1f000013 	svcne	0x00000013
    1320:	08030005 	stmdaeq	r3, {r0, r2}
    1324:	0b3b0b3a 	bleq	ec4014 <__bss_end__+0xeba034>
    1328:	13490b39 	movtne	r0, #39737	; 0x9b39
    132c:	05200000 	streq	r0, [r0, #-0]!
    1330:	3a0e0300 	bcc	381f38 <__bss_end__+0x377f58>
    1334:	390b3b0b 	stmdbcc	fp, {r0, r1, r3, r8, r9, fp, ip, sp}
    1338:	0013490b 	andseq	r4, r3, fp, lsl #18
    133c:	00342100 	eorseq	r2, r4, r0, lsl #2
    1340:	0b3a0803 	bleq	e83354 <__bss_end__+0xe79374>
    1344:	0b390b3b 	bleq	e44038 <__bss_end__+0xe3a058>
    1348:	00001349 	andeq	r1, r0, r9, asr #6
    134c:	03012e22 	movweq	r2, #7714	; 0x1e22
    1350:	3b0b3a0e 	blcc	2cfb90 <__bss_end__+0x2c5bb0>
    1354:	270b390b 	strcs	r3, [fp, -fp, lsl #18]
    1358:	20134919 	andscs	r4, r3, r9, lsl r9
    135c:	0013010b 	andseq	r0, r3, fp, lsl #2
    1360:	012e2300 			; <UNDEFINED> instruction: 0x012e2300
    1364:	01111331 	tsteq	r1, r1, lsr r3
    1368:	18400612 	stmdane	r0, {r1, r4, r9, sl}^
    136c:	01194297 			; <UNDEFINED> instruction: 0x01194297
    1370:	24000013 	strcs	r0, [r0], #-19	; 0xffffffed
    1374:	193f002e 	ldmdbne	pc!, {r1, r2, r3, r5}	; <UNPREDICTABLE>
    1378:	0e6e193c 			; <UNDEFINED> instruction: 0x0e6e193c
    137c:	0b3a0e03 	bleq	e84b90 <__bss_end__+0xe7abb0>
    1380:	0b390b3b 	bleq	e44074 <__bss_end__+0xe3a094>
    1384:	01000000 	mrseq	r0, (UNDEF: 0)
    1388:	0e250111 	mcreq	1, 1, r0, cr5, cr1, {0}
    138c:	0e030b13 	vmoveq.32	d3[0], r0
    1390:	01110e1b 	tsteq	r1, fp, lsl lr
    1394:	17100612 			; <UNDEFINED> instruction: 0x17100612
    1398:	24020000 	strcs	r0, [r2], #-0
    139c:	3e0b0b00 	vmlacc.f64	d0, d11, d0
    13a0:	0008030b 	andeq	r0, r8, fp, lsl #6
    13a4:	00160300 	andseq	r0, r6, r0, lsl #6
    13a8:	0b3a0e03 	bleq	e84bbc <__bss_end__+0xe7abdc>
    13ac:	0b390b3b 	bleq	e440a0 <__bss_end__+0xe3a0c0>
    13b0:	00001349 	andeq	r1, r0, r9, asr #6
    13b4:	0b002404 	bleq	a3cc <__bss_end__+0x3ec>
    13b8:	030b3e0b 	movweq	r3, #48651	; 0xbe0b
    13bc:	0500000e 	streq	r0, [r0, #-14]
    13c0:	19270115 	stmdbne	r7!, {r0, r2, r4, r8}
    13c4:	13011349 	movwne	r1, #4937	; 0x1349
    13c8:	05060000 	streq	r0, [r6, #-0]
    13cc:	00134900 	andseq	r4, r3, r0, lsl #18
    13d0:	00340700 	eorseq	r0, r4, r0, lsl #14
    13d4:	0b3a0e03 	bleq	e84be8 <__bss_end__+0xe7ac08>
    13d8:	0b390b3b 	bleq	e440cc <__bss_end__+0xe3a0ec>
    13dc:	193f1349 	ldmdbne	pc!, {r0, r3, r6, r8, r9, ip}	; <UNPREDICTABLE>
    13e0:	0000193c 	andeq	r1, r0, ip, lsr r9
    13e4:	0b000f08 	bleq	500c <__code_start__-0x2ff4>
    13e8:	0013490b 	andseq	r4, r3, fp, lsl #18
    13ec:	00260900 	eoreq	r0, r6, r0, lsl #18
    13f0:	00001349 	andeq	r1, r0, r9, asr #6
    13f4:	3f012e0a 	svccc	0x00012e0a
    13f8:	3a0e0319 	bcc	382064 <__bss_end__+0x378084>
    13fc:	390b3b0b 	stmdbcc	fp, {r0, r1, r3, r8, r9, fp, ip, sp}
    1400:	4919270b 	ldmdbmi	r9, {r0, r1, r3, r8, r9, sl, sp}
    1404:	12011113 	andne	r1, r1, #-1073741820	; 0xc0000004
    1408:	97184006 	ldrls	r4, [r8, -r6]
    140c:	13011942 	movwne	r1, #6466	; 0x1942
    1410:	050b0000 	streq	r0, [fp, #-0]
    1414:	3a080300 	bcc	20201c <__bss_end__+0x1f803c>
    1418:	390b3b0b 	stmdbcc	fp, {r0, r1, r3, r8, r9, fp, ip, sp}
    141c:	0213490b 	andseq	r4, r3, #180224	; 0x2c000
    1420:	0c000018 	stceq	0, cr0, [r0], {24}
    1424:	08030005 	stmdaeq	r3, {r0, r2}
    1428:	0b3b0b3a 	bleq	ec4118 <__bss_end__+0xeba138>
    142c:	13490b39 	movtne	r0, #39737	; 0x9b39
    1430:	42b71702 	adcsmi	r1, r7, #524288	; 0x80000
    1434:	0d000017 	stceq	0, cr0, [r0, #-92]	; 0xffffffa4
    1438:	08030034 	stmdaeq	r3, {r2, r4, r5}
    143c:	0b3b0b3a 	bleq	ec412c <__bss_end__+0xeba14c>
    1440:	13490b39 	movtne	r0, #39737	; 0x9b39
    1444:	42b71702 	adcsmi	r1, r7, #524288	; 0x80000
    1448:	0e000017 	mcreq	0, 0, r0, cr0, cr7, {0}
    144c:	0b0b000f 	bleq	2c1490 <__bss_end__+0x2b74b0>
    1450:	01000000 	mrseq	r0, (UNDEF: 0)
    1454:	0e250111 	mcreq	1, 1, r0, cr5, cr1, {0}
    1458:	0e030b13 	vmoveq.32	d3[0], r0
    145c:	01110e1b 	tsteq	r1, fp, lsl lr
    1460:	17100612 			; <UNDEFINED> instruction: 0x17100612
    1464:	24020000 	strcs	r0, [r2], #-0
    1468:	3e0b0b00 	vmlacc.f64	d0, d11, d0
    146c:	0008030b 	andeq	r0, r8, fp, lsl #6
    1470:	00240300 	eoreq	r0, r4, r0, lsl #6
    1474:	0b3e0b0b 	bleq	f840a8 <__bss_end__+0xf7a0c8>
    1478:	00000e03 	andeq	r0, r0, r3, lsl #28
    147c:	27011504 	strcs	r1, [r1, -r4, lsl #10]
    1480:	01134919 	tsteq	r3, r9, lsl r9
    1484:	05000013 	streq	r0, [r0, #-19]	; 0xffffffed
    1488:	13490005 	movtne	r0, #36869	; 0x9005
    148c:	34060000 	strcc	r0, [r6], #-0
    1490:	3a0e0300 	bcc	382098 <__bss_end__+0x3780b8>
    1494:	390b3b0b 	stmdbcc	fp, {r0, r1, r3, r8, r9, fp, ip, sp}
    1498:	3f13490b 	svccc	0x0013490b
    149c:	00193c19 	andseq	r3, r9, r9, lsl ip
    14a0:	000f0700 	andeq	r0, pc, r0, lsl #14
    14a4:	13490b0b 	movtne	r0, #39691	; 0x9b0b
    14a8:	26080000 	strcs	r0, [r8], -r0
    14ac:	00134900 	andseq	r4, r3, r0, lsl #18
    14b0:	00340900 	eorseq	r0, r4, r0, lsl #18
    14b4:	0b3a1347 	bleq	e861d8 <__bss_end__+0xe7c1f8>
    14b8:	0b390b3b 	bleq	e441ac <__bss_end__+0xe3a1cc>
    14bc:	00001802 	andeq	r1, r0, r2, lsl #16
    14c0:	3f012e0a 	svccc	0x00012e0a
    14c4:	3a0e0319 	bcc	382130 <__bss_end__+0x378150>
    14c8:	390b3b0b 	stmdbcc	fp, {r0, r1, r3, r8, r9, fp, ip, sp}
    14cc:	1119270b 	tstne	r9, fp, lsl #14
    14d0:	40061201 	andmi	r1, r6, r1, lsl #4
    14d4:	19429718 	stmdbne	r2, {r3, r4, r8, r9, sl, ip, pc}^
    14d8:	00001301 	andeq	r1, r0, r1, lsl #6
    14dc:	0300050b 	movweq	r0, #1291	; 0x50b
    14e0:	3b0b3a08 	blcc	2cfd08 <__bss_end__+0x2c5d28>
    14e4:	490b390b 	stmdbmi	fp, {r0, r1, r3, r8, fp, ip, sp}
    14e8:	00180213 	andseq	r0, r8, r3, lsl r2
    14ec:	002e0c00 	eoreq	r0, lr, r0, lsl #24
    14f0:	0e03193f 			; <UNDEFINED> instruction: 0x0e03193f
    14f4:	0b3b0b3a 	bleq	ec41e4 <__bss_end__+0xeba204>
    14f8:	19270b39 	stmdbne	r7!, {r0, r3, r4, r5, r8, r9, fp}
    14fc:	06120111 			; <UNDEFINED> instruction: 0x06120111
    1500:	42971840 	addsmi	r1, r7, #64, 16	; 0x400000
    1504:	0d000019 	stceq	0, cr0, [r0, #-100]	; 0xffffff9c
    1508:	0e03012e 	adfeqsp	f0, f3, #0.5
    150c:	0b3b0b3a 	bleq	ec41fc <__bss_end__+0xeba21c>
    1510:	19270b39 	stmdbne	r7!, {r0, r3, r4, r5, r8, r9, fp}
    1514:	01111349 	tsteq	r1, r9, asr #6
    1518:	18400612 	stmdane	r0, {r1, r4, r9, sl}^
    151c:	01194297 			; <UNDEFINED> instruction: 0x01194297
    1520:	0e000013 	mcreq	0, 0, r0, cr0, cr3, {0}
    1524:	08030005 	stmdaeq	r3, {r0, r2}
    1528:	0b3b0b3a 	bleq	ec4218 <__bss_end__+0xeba238>
    152c:	13490b39 	movtne	r0, #39737	; 0x9b39
    1530:	42b71702 	adcsmi	r1, r7, #524288	; 0x80000
    1534:	0f000017 	svceq	0x00000017
    1538:	01018289 	smlabbeq	r1, r9, r2, r8
    153c:	13310111 	teqne	r1, #1073741828	; 0x40000004
    1540:	8a100000 	bhi	401548 <__bss_end__+0x3f7568>
    1544:	02000182 	andeq	r0, r0, #-2147483616	; 0x80000020
    1548:	18429118 	stmdane	r2, {r3, r4, r8, ip, pc}^
    154c:	2e110000 	cdpcs	0, 1, cr0, cr1, cr0, {0}
    1550:	3c193f00 	ldccc	15, cr3, [r9], {-0}
    1554:	030e6e19 	movweq	r6, #60953	; 0xee19
    1558:	3b0b3a0e 	blcc	2cfd98 <__bss_end__+0x2c5db8>
    155c:	000b390b 	andeq	r3, fp, fp, lsl #18
    1560:	11010000 	mrsne	r0, (UNDEF: 1)
    1564:	130e2501 	movwne	r2, #58625	; 0xe501
    1568:	1b0e030b 	blne	38219c <__bss_end__+0x3781bc>
    156c:	1201110e 	andne	r1, r1, #-2147483645	; 0x80000003
    1570:	00171006 	andseq	r1, r7, r6
    1574:	00240200 	eoreq	r0, r4, r0, lsl #4
    1578:	0b3e0b0b 	bleq	f841ac <__bss_end__+0xf7a1cc>
    157c:	00000803 	andeq	r0, r0, r3, lsl #16
    1580:	0b002403 	bleq	a594 <__bss_end__+0x5b4>
    1584:	030b3e0b 	movweq	r3, #48651	; 0xbe0b
    1588:	0400000e 	streq	r0, [r0], #-14
    158c:	19270115 	stmdbne	r7!, {r0, r2, r4, r8}
    1590:	13011349 	movwne	r1, #4937	; 0x1349
    1594:	05050000 	streq	r0, [r5, #-0]
    1598:	00134900 	andseq	r4, r3, r0, lsl #18
    159c:	00340600 	eorseq	r0, r4, r0, lsl #12
    15a0:	0b3a0e03 	bleq	e84db4 <__bss_end__+0xe7add4>
    15a4:	0b390b3b 	bleq	e44298 <__bss_end__+0xe3a2b8>
    15a8:	193f1349 	ldmdbne	pc!, {r0, r3, r6, r8, r9, ip}	; <UNPREDICTABLE>
    15ac:	0000193c 	andeq	r1, r0, ip, lsr r9
    15b0:	0b000f07 	bleq	51d4 <__code_start__-0x2e2c>
    15b4:	0013490b 	andseq	r4, r3, fp, lsl #18
    15b8:	00260800 	eoreq	r0, r6, r0, lsl #16
    15bc:	00001349 	andeq	r1, r0, r9, asr #6
    15c0:	3f012e09 	svccc	0x00012e09
    15c4:	3a0e0319 	bcc	382230 <__bss_end__+0x378250>
    15c8:	390b3b0b 	stmdbcc	fp, {r0, r1, r3, r8, r9, fp, ip, sp}
    15cc:	4919270b 	ldmdbmi	r9, {r0, r1, r3, r8, r9, sl, sp}
    15d0:	12011113 	andne	r1, r1, #-1073741820	; 0xc0000004
    15d4:	97184006 	ldrls	r4, [r8, -r6]
    15d8:	13011942 	movwne	r1, #6466	; 0x1942
    15dc:	050a0000 	streq	r0, [sl, #-0]
    15e0:	3a0e0300 	bcc	3821e8 <__bss_end__+0x378208>
    15e4:	390b3b0b 	stmdbcc	fp, {r0, r1, r3, r8, r9, fp, ip, sp}
    15e8:	0213490b 	andseq	r4, r3, #180224	; 0x2c000
    15ec:	0b000018 	bleq	1654 <__code_start__-0x69ac>
    15f0:	08030005 	stmdaeq	r3, {r0, r2}
    15f4:	0b3b0b3a 	bleq	ec42e4 <__bss_end__+0xeba304>
    15f8:	13490b39 	movtne	r0, #39737	; 0x9b39
    15fc:	42b71702 	adcsmi	r1, r7, #524288	; 0x80000
    1600:	0c000017 	stceq	0, cr0, [r0], {23}
    1604:	08030034 	stmdaeq	r3, {r2, r4, r5}
    1608:	0b3b0b3a 	bleq	ec42f8 <__bss_end__+0xeba318>
    160c:	13490b39 	movtne	r0, #39737	; 0x9b39
    1610:	42b71702 	adcsmi	r1, r7, #524288	; 0x80000
    1614:	00000017 	andeq	r0, r0, r7, lsl r0
    1618:	25011101 	strcs	r1, [r1, #-257]	; 0xfffffeff
    161c:	030b130e 	movweq	r1, #45838	; 0xb30e
    1620:	110e1b0e 	tstne	lr, lr, lsl #22
    1624:	10061201 	andne	r1, r6, r1, lsl #4
    1628:	02000017 	andeq	r0, r0, #23, 0
    162c:	0b0b0024 	bleq	2c16c4 <__bss_end__+0x2b76e4>
    1630:	08030b3e 	stmdaeq	r3, {r1, r2, r3, r4, r5, r8, r9, fp}
    1634:	24030000 	strcs	r0, [r3], #-0
    1638:	3e0b0b00 	vmlacc.f64	d0, d11, d0
    163c:	000e030b 	andeq	r0, lr, fp, lsl #6
    1640:	01150400 	tsteq	r5, r0, lsl #8
    1644:	13491927 	movtne	r1, #39207	; 0x9927
    1648:	00001301 	andeq	r1, r0, r1, lsl #6
    164c:	49000505 	stmdbmi	r0, {r0, r2, r8, sl}
    1650:	06000013 			; <UNDEFINED> instruction: 0x06000013
    1654:	0e030034 	mcreq	0, 0, r0, cr3, cr4, {1}
    1658:	0b3b0b3a 	bleq	ec4348 <__bss_end__+0xeba368>
    165c:	13490b39 	movtne	r0, #39737	; 0x9b39
    1660:	193c193f 	ldmdbne	ip!, {r0, r1, r2, r3, r4, r5, r8, fp, ip}
    1664:	0f070000 	svceq	0x00070000
    1668:	490b0b00 	stmdbmi	fp, {r8, r9, fp}
    166c:	08000013 	stmdaeq	r0, {r0, r1, r4}
    1670:	13490026 	movtne	r0, #36902	; 0x9026
    1674:	2e090000 	cdpcs	0, 0, cr0, cr9, cr0, {0}
    1678:	03193f01 	tsteq	r9, #1, 30
    167c:	3b0b3a0e 	blcc	2cfebc <__bss_end__+0x2c5edc>
    1680:	270b390b 	strcs	r3, [fp, -fp, lsl #18]
    1684:	11134919 	tstne	r3, r9, lsl r9
    1688:	40061201 	andmi	r1, r6, r1, lsl #4
    168c:	19429718 	stmdbne	r2, {r3, r4, r8, r9, sl, ip, pc}^
    1690:	050a0000 	streq	r0, [sl, #-0]
    1694:	3a080300 	bcc	20229c <__bss_end__+0x1f82bc>
    1698:	390b3b0b 	stmdbcc	fp, {r0, r1, r3, r8, r9, fp, ip, sp}
    169c:	0213490b 	andseq	r4, r3, #180224	; 0x2c000
    16a0:	1742b717 	smlaldne	fp, r2, r7, r7
    16a4:	01000000 	mrseq	r0, (UNDEF: 0)
    16a8:	0e250111 	mcreq	1, 1, r0, cr5, cr1, {0}
    16ac:	0e030b13 	vmoveq.32	d3[0], r0
    16b0:	01110e1b 	tsteq	r1, fp, lsl lr
    16b4:	17100612 			; <UNDEFINED> instruction: 0x17100612
    16b8:	24020000 	strcs	r0, [r2], #-0
    16bc:	3e0b0b00 	vmlacc.f64	d0, d11, d0
    16c0:	0008030b 	andeq	r0, r8, fp, lsl #6
    16c4:	00240300 	eoreq	r0, r4, r0, lsl #6
    16c8:	0b3e0b0b 	bleq	f842fc <__bss_end__+0xf7a31c>
    16cc:	00000e03 	andeq	r0, r0, r3, lsl #28
    16d0:	27011504 	strcs	r1, [r1, -r4, lsl #10]
    16d4:	01134919 	tsteq	r3, r9, lsl r9
    16d8:	05000013 	streq	r0, [r0, #-19]	; 0xffffffed
    16dc:	13490005 	movtne	r0, #36869	; 0x9005
    16e0:	34060000 	strcc	r0, [r6], #-0
    16e4:	3a0e0300 	bcc	3822ec <__bss_end__+0x37830c>
    16e8:	390b3b0b 	stmdbcc	fp, {r0, r1, r3, r8, r9, fp, ip, sp}
    16ec:	3f13490b 	svccc	0x0013490b
    16f0:	00193c19 	andseq	r3, r9, r9, lsl ip
    16f4:	000f0700 	andeq	r0, pc, r0, lsl #14
    16f8:	13490b0b 	movtne	r0, #39691	; 0x9b0b
    16fc:	26080000 	strcs	r0, [r8], -r0
    1700:	00134900 	andseq	r4, r3, r0, lsl #18
    1704:	012e0900 			; <UNDEFINED> instruction: 0x012e0900
    1708:	0e03193f 			; <UNDEFINED> instruction: 0x0e03193f
    170c:	0b3b0b3a 	bleq	ec43fc <__bss_end__+0xeba41c>
    1710:	19270b39 	stmdbne	r7!, {r0, r3, r4, r5, r8, r9, fp}
    1714:	01111349 	tsteq	r1, r9, asr #6
    1718:	18400612 	stmdane	r0, {r1, r4, r9, sl}^
    171c:	01194297 			; <UNDEFINED> instruction: 0x01194297
    1720:	0a000013 	beq	1774 <__code_start__-0x688c>
    1724:	08030005 	stmdaeq	r3, {r0, r2}
    1728:	0b3b0b3a 	bleq	ec4418 <__bss_end__+0xeba438>
    172c:	13490b39 	movtne	r0, #39737	; 0x9b39
    1730:	00001802 	andeq	r1, r0, r2, lsl #16
    1734:	0300050b 	movweq	r0, #1291	; 0x50b
    1738:	3b0b3a08 	blcc	2cff60 <__bss_end__+0x2c5f80>
    173c:	490b390b 	stmdbmi	fp, {r0, r1, r3, r8, fp, ip, sp}
    1740:	b7170213 			; <UNDEFINED> instruction: 0xb7170213
    1744:	00001742 	andeq	r1, r0, r2, asr #14
    1748:	0300340c 	movweq	r3, #1036	; 0x40c
    174c:	3b0b3a08 	blcc	2cff74 <__bss_end__+0x2c5f94>
    1750:	490b390b 	stmdbmi	fp, {r0, r1, r3, r8, fp, ip, sp}
    1754:	b7170213 			; <UNDEFINED> instruction: 0xb7170213
    1758:	00001742 	andeq	r1, r0, r2, asr #14
    175c:	01110100 	tsteq	r1, r0, lsl #2
    1760:	0b130e25 	bleq	4c4ffc <__bss_end__+0x4bb01c>
    1764:	0e1b0e03 	cdpeq	14, 1, cr0, cr11, cr3, {0}
    1768:	06120111 			; <UNDEFINED> instruction: 0x06120111
    176c:	00001710 	andeq	r1, r0, r0, lsl r7
    1770:	0b002402 	bleq	a780 <__bss_end__+0x7a0>
    1774:	030b3e0b 	movweq	r3, #48651	; 0xbe0b
    1778:	03000008 	movweq	r0, #8
    177c:	0e030016 	mcreq	0, 0, r0, cr3, cr6, {0}
    1780:	0b3b0b3a 	bleq	ec4470 <__bss_end__+0xeba490>
    1784:	13490b39 	movtne	r0, #39737	; 0x9b39
    1788:	24040000 	strcs	r0, [r4], #-0
    178c:	3e0b0b00 	vmlacc.f64	d0, d11, d0
    1790:	000e030b 	andeq	r0, lr, fp, lsl #6
    1794:	00260500 	eoreq	r0, r6, r0, lsl #10
    1798:	00001349 	andeq	r1, r0, r9, asr #6
    179c:	27011506 	strcs	r1, [r1, -r6, lsl #10]
    17a0:	01134919 	tsteq	r3, r9, lsl r9
    17a4:	07000013 	smladeq	r0, r3, r0, r0
    17a8:	13490005 	movtne	r0, #36869	; 0x9005
    17ac:	34080000 	strcc	r0, [r8], #-0
    17b0:	3a0e0300 	bcc	3823b8 <__bss_end__+0x3783d8>
    17b4:	390b3b0b 	stmdbcc	fp, {r0, r1, r3, r8, r9, fp, ip, sp}
    17b8:	3f13490b 	svccc	0x0013490b
    17bc:	00193c19 	andseq	r3, r9, r9, lsl ip
    17c0:	000f0900 	andeq	r0, pc, r0, lsl #18
    17c4:	13490b0b 	movtne	r0, #39691	; 0x9b0b
    17c8:	2e0a0000 	cdpcs	0, 0, cr0, cr10, cr0, {0}
    17cc:	03193f01 	tsteq	r9, #1, 30
    17d0:	3b0b3a0e 	blcc	2d0010 <__bss_end__+0x2c6030>
    17d4:	270b390b 	strcs	r3, [fp, -fp, lsl #18]
    17d8:	11134919 	tstne	r3, r9, lsl r9
    17dc:	40061201 	andmi	r1, r6, r1, lsl #4
    17e0:	19429718 	stmdbne	r2, {r3, r4, r8, r9, sl, ip, pc}^
    17e4:	00001301 	andeq	r1, r0, r1, lsl #6
    17e8:	0300050b 	movweq	r0, #1291	; 0x50b
    17ec:	3b0b3a08 	blcc	2d0014 <__bss_end__+0x2c6034>
    17f0:	490b390b 	stmdbmi	fp, {r0, r1, r3, r8, fp, ip, sp}
    17f4:	b7170213 			; <UNDEFINED> instruction: 0xb7170213
    17f8:	00001742 	andeq	r1, r0, r2, asr #14
    17fc:	0300340c 	movweq	r3, #1036	; 0x40c
    1800:	3b0b3a08 	blcc	2d0028 <__bss_end__+0x2c6048>
    1804:	490b390b 	stmdbmi	fp, {r0, r1, r3, r8, fp, ip, sp}
    1808:	b7170213 			; <UNDEFINED> instruction: 0xb7170213
    180c:	00001742 	andeq	r1, r0, r2, asr #14
    1810:	01110100 	tsteq	r1, r0, lsl #2
    1814:	0b130e25 	bleq	4c50b0 <__bss_end__+0x4bb0d0>
    1818:	0e1b0e03 	cdpeq	14, 1, cr0, cr11, cr3, {0}
    181c:	06120111 			; <UNDEFINED> instruction: 0x06120111
    1820:	00001710 	andeq	r1, r0, r0, lsl r7
    1824:	0b002402 	bleq	a834 <__bss_end__+0x854>
    1828:	030b3e0b 	movweq	r3, #48651	; 0xbe0b
    182c:	03000008 	movweq	r0, #8
    1830:	0b0b0024 	bleq	2c18c8 <__bss_end__+0x2b78e8>
    1834:	0e030b3e 	vmoveq.16	d3[0], r0
    1838:	15040000 	strne	r0, [r4, #-0]
    183c:	49192701 	ldmdbmi	r9, {r0, r8, r9, sl, sp}
    1840:	00130113 	andseq	r0, r3, r3, lsl r1
    1844:	00050500 	andeq	r0, r5, r0, lsl #10
    1848:	00001349 	andeq	r1, r0, r9, asr #6
    184c:	03003406 	movweq	r3, #1030	; 0x406
    1850:	3b0b3a0e 	blcc	2d0090 <__bss_end__+0x2c60b0>
    1854:	490b390b 	stmdbmi	fp, {r0, r1, r3, r8, fp, ip, sp}
    1858:	3c193f13 	ldccc	15, cr3, [r9], {19}
    185c:	07000019 	smladeq	r0, r9, r0, r0
    1860:	0b0b000f 	bleq	2c18a4 <__bss_end__+0x2b78c4>
    1864:	00001349 	andeq	r1, r0, r9, asr #6
    1868:	49002608 	stmdbmi	r0, {r3, r9, sl, sp}
    186c:	09000013 	stmdbeq	r0, {r0, r1, r4}
    1870:	193f002e 	ldmdbne	pc!, {r1, r2, r3, r5}	; <UNPREDICTABLE>
    1874:	0b3a0e03 	bleq	e85088 <__bss_end__+0xe7b0a8>
    1878:	0b390b3b 	bleq	e4456c <__bss_end__+0xe3a58c>
    187c:	01111927 	tsteq	r1, r7, lsr #18
    1880:	18400612 	stmdane	r0, {r1, r4, r9, sl}^
    1884:	00194297 	mulseq	r9, r7, r2
	...

Disassembly of section .debug_aranges:

00000000 <.debug_aranges>:
   0:	0000001c 	andeq	r0, r0, ip, lsl r0
   4:	00000002 	andeq	r0, r0, r2
   8:	00040000 	andeq	r0, r4, r0
   c:	00000000 	andeq	r0, r0, r0
  10:	00008038 	andeq	r8, r0, r8, lsr r0
  14:	0000003c 	andeq	r0, r0, ip, lsr r0
	...
  20:	0000001c 	andeq	r0, r0, ip, lsl r0
  24:	01bb0002 			; <UNDEFINED> instruction: 0x01bb0002
  28:	00040000 	andeq	r0, r4, r0
  2c:	00000000 	andeq	r0, r0, r0
  30:	00008074 	andeq	r8, r0, r4, ror r0
  34:	000001ac 	andeq	r0, r0, ip, lsr #3
	...
  40:	0000001c 	andeq	r0, r0, ip, lsl r0
  44:	04810002 	streq	r0, [r1], #2
  48:	00040000 	andeq	r0, r4, r0
  4c:	00000000 	andeq	r0, r0, r0
  50:	00008220 	andeq	r8, r0, r0, lsr #4
  54:	0000000c 	andeq	r0, r0, ip
	...
  60:	0000001c 	andeq	r0, r0, ip, lsl r0
  64:	058f0002 	streq	r0, [pc, #2]	; 6e <__code_start__-0x7f92>
  68:	00040000 	andeq	r0, r4, r0
  6c:	00000000 	andeq	r0, r0, r0
  70:	0000822c 	andeq	r8, r0, ip, lsr #4
  74:	00000058 	andeq	r0, r0, r8, asr r0
	...
  80:	0000001c 	andeq	r0, r0, ip, lsl r0
  84:	07300002 	ldreq	r0, [r0, -r2]!
  88:	00040000 	andeq	r0, r4, r0
  8c:	00000000 	andeq	r0, r0, r0
  90:	00008284 	andeq	r8, r0, r4, lsl #5
  94:	00000038 	andeq	r0, r0, r8, lsr r0
	...
  a0:	0000001c 	andeq	r0, r0, ip, lsl r0
  a4:	08270002 	stmdaeq	r7!, {r1}
  a8:	00040000 	andeq	r0, r4, r0
  ac:	00000000 	andeq	r0, r0, r0
  b0:	000082bc 			; <UNDEFINED> instruction: 0x000082bc
  b4:	000009b4 			; <UNDEFINED> instruction: 0x000009b4
	...
  c0:	0000001c 	andeq	r0, r0, ip, lsl r0
  c4:	14aa0002 	strtne	r0, [sl], #2
  c8:	00040000 	andeq	r0, r4, r0
  cc:	00000000 	andeq	r0, r0, r0
  d0:	00008c70 	andeq	r8, r0, r0, ror ip
  d4:	0000002c 	andeq	r0, r0, ip, lsr #32
	...
  e0:	0000001c 	andeq	r0, r0, ip, lsl r0
  e4:	15dd0002 	ldrbne	r0, [sp, #2]
  e8:	00040000 	andeq	r0, r4, r0
  ec:	00000000 	andeq	r0, r0, r0
  f0:	00008c9c 	muleq	r0, ip, ip
  f4:	000000f8 	strdeq	r0, [r0], -r8
	...
 100:	0000001c 	andeq	r0, r0, ip, lsl r0
 104:	17710002 	ldrbne	r0, [r1, -r2]!
 108:	00040000 	andeq	r0, r4, r0
 10c:	00000000 	andeq	r0, r0, r0
 110:	00008d94 	muleq	r0, r4, sp
 114:	00000004 	andeq	r0, r0, r4
	...
 120:	0000001c 	andeq	r0, r0, ip, lsl r0
 124:	18430002 	stmdane	r3, {r1}^
 128:	00040000 	andeq	r0, r4, r0
 12c:	00000000 	andeq	r0, r0, r0
 130:	00008d98 	muleq	r0, r8, sp
 134:	0000008c 	andeq	r0, r0, ip, lsl #1
	...
 140:	0000001c 	andeq	r0, r0, ip, lsl r0
 144:	1ac40002 	bne	ff100154 <__bss_end__+0xff0f6174>
 148:	00040000 	andeq	r0, r4, r0
 14c:	00000000 	andeq	r0, r0, r0
 150:	00008e24 	andeq	r8, r0, r4, lsr #28
 154:	0000011c 	andeq	r0, r0, ip, lsl r1
	...
 160:	0000001c 	andeq	r0, r0, ip, lsl r0
 164:	20070002 	andcs	r0, r7, r2
 168:	00040000 	andeq	r0, r4, r0
 16c:	00000000 	andeq	r0, r0, r0
 170:	00008f40 	andeq	r8, r0, r0, asr #30
 174:	000001f0 	strdeq	r0, [r0], -r0	; <UNPREDICTABLE>
	...
 180:	0000001c 	andeq	r0, r0, ip, lsl r0
 184:	25d80002 	ldrbcs	r0, [r8, #2]
 188:	00040000 	andeq	r0, r4, r0
 18c:	00000000 	andeq	r0, r0, r0
 190:	00009130 	andeq	r9, r0, r0, lsr r1
 194:	000003b0 			; <UNDEFINED> instruction: 0x000003b0
	...
 1a0:	0000001c 	andeq	r0, r0, ip, lsl r0
 1a4:	2ec50002 	cdpcs	0, 12, cr0, cr5, cr2, {0}
 1a8:	00040000 	andeq	r0, r4, r0
 1ac:	00000000 	andeq	r0, r0, r0
 1b0:	000094e0 	andeq	r9, r0, r0, ror #9
 1b4:	00000198 	muleq	r0, r8, r1
	...
 1c0:	0000001c 	andeq	r0, r0, ip, lsl r0
 1c4:	353c0002 	ldrcc	r0, [ip, #-2]!
 1c8:	00040000 	andeq	r0, r4, r0
 1cc:	00000000 	andeq	r0, r0, r0
 1d0:	00009678 	andeq	r9, r0, r8, ror r6
 1d4:	00000078 	andeq	r0, r0, r8, ror r0
	...
 1e0:	0000001c 	andeq	r0, r0, ip, lsl r0
 1e4:	36800002 	strcc	r0, [r0], r2
 1e8:	00040000 	andeq	r0, r4, r0
 1ec:	00000000 	andeq	r0, r0, r0
 1f0:	000096f0 	strdeq	r9, [r0], -r0
 1f4:	0000003c 	andeq	r0, r0, ip, lsr r0
	...
 200:	0000001c 	andeq	r0, r0, ip, lsl r0
 204:	37cd0002 	strbcc	r0, [sp, r2]
 208:	00040000 	andeq	r0, r4, r0
 20c:	00000000 	andeq	r0, r0, r0
 210:	0000972c 	andeq	r9, r0, ip, lsr #14
 214:	0000002c 	andeq	r0, r0, ip, lsr #32
	...
 220:	0000001c 	andeq	r0, r0, ip, lsl r0
 224:	39080002 	stmdbcc	r8, {r1}
 228:	00040000 	andeq	r0, r4, r0
 22c:	00000000 	andeq	r0, r0, r0
 230:	00009758 	andeq	r9, r0, r8, asr r7
 234:	00000044 	andeq	r0, r0, r4, asr #32
	...
 240:	0000001c 	andeq	r0, r0, ip, lsl r0
 244:	3a030002 	bcc	c0254 <__bss_end__+0xb6274>
 248:	00040000 	andeq	r0, r4, r0
 24c:	00000000 	andeq	r0, r0, r0
 250:	0000979c 	muleq	r0, ip, r7
 254:	00000018 	andeq	r0, r0, r8, lsl r0
	...
 260:	0000001c 	andeq	r0, r0, ip, lsl r0
 264:	3b160002 	blcc	580274 <__bss_end__+0x576294>
 268:	00040000 	andeq	r0, r4, r0
 26c:	00000000 	andeq	r0, r0, r0
 270:	000097b4 			; <UNDEFINED> instruction: 0x000097b4
 274:	00000030 	andeq	r0, r0, r0, lsr r0
	...
 280:	0000001c 	andeq	r0, r0, ip, lsl r0
 284:	3c680002 	stclcc	0, cr0, [r8], #-8
 288:	00040000 	andeq	r0, r4, r0
 28c:	00000000 	andeq	r0, r0, r0
 290:	000097e4 	andeq	r9, r0, r4, ror #15
 294:	00000004 	andeq	r0, r0, r4
	...

Disassembly of section .debug_line:

00000000 <.debug_line>:
       0:	0000008d 	andeq	r0, r0, sp, lsl #1
       4:	00680003 	rsbeq	r0, r8, r3
       8:	01020000 	mrseq	r0, (UNDEF: 2)
       c:	000d0efb 	strdeq	r0, [sp], -fp
      10:	01010101 	tsteq	r1, r1, lsl #2
      14:	01000000 	mrseq	r0, (UNDEF: 0)
      18:	2f010000 	svccs	0x00010000
      1c:	72657355 	rsbvc	r7, r5, #1409286145	; 0x54000001
      20:	696d2f73 	stmdbvs	sp!, {r0, r1, r4, r5, r6, r8, r9, sl, fp, sp}^
      24:	2f73656c 	svccs	0x0073656c
      28:	72756f53 	rsbsvc	r6, r5, #332	; 0x14c
      2c:	632f6563 			; <UNDEFINED> instruction: 0x632f6563
      30:	30343273 	eorscc	r3, r4, r3, ror r2
      34:	6c2f786c 	stcvs	8, cr7, [pc], #-432	; fffffe8c <__bss_end__+0xffff5eac>
      38:	69706269 	ldmdbvs	r0!, {r0, r3, r5, r6, r9, sp, lr}^
      3c:	636e692f 	cmnvs	lr, #770048	; 0xbc000
      40:	6564756c 	strbvs	r7, [r4, #-1388]!	; 0xfffffa94
      44:	2d310000 	ldccs	0, cr0, [r1, #-0]
      48:	74736574 	ldrbtvc	r6, [r3], #-1396	; 0xfffffa8c
      4c:	6c616d2d 	stclvs	13, cr6, [r1], #-180	; 0xffffff4c
      50:	2e636f6c 	cdpcs	15, 6, cr6, cr3, cr12, {3}
      54:	00000063 	andeq	r0, r0, r3, rrx
      58:	69707200 	ldmdbvs	r0!, {r9, ip, sp, lr}^
      5c:	0100682e 	tsteq	r0, lr, lsr #16
      60:	726b0000 	rsbvc	r0, fp, #0, 0
      64:	6c616d2d 	stclvs	13, cr6, [r1], #-180	; 0xffffff4c
      68:	2e636f6c 	cdpcs	15, 6, cr6, cr3, cr12, {3}
      6c:	00000068 	andeq	r0, r0, r8, rrx
      70:	14050000 	strne	r0, [r5], #-0
      74:	38020500 	stmdacc	r2, {r8, sl}
      78:	03000080 	movweq	r0, #128	; 0x80
      7c:	05050114 	streq	r0, [r5, #-276]	; 0xfffffeec
      80:	0610054b 	ldreq	r0, [r0], -fp, asr #10
      84:	06050501 	streq	r0, [r5], -r1, lsl #10
      88:	d601144b 	strle	r1, [r1], -fp, asr #8
      8c:	01000802 	tsteq	r0, r2, lsl #16
      90:	00022701 	andeq	r2, r2, r1, lsl #14
      94:	64000300 	strvs	r0, [r0], #-768	; 0xfffffd00
      98:	02000000 	andeq	r0, r0, #0, 0
      9c:	0d0efb01 	vstreq	d15, [lr, #-4]
      a0:	01010100 	mrseq	r0, (UNDEF: 17)
      a4:	00000001 	andeq	r0, r0, r1
      a8:	01000001 	tsteq	r0, r1
      ac:	6573552f 	ldrbvs	r5, [r3, #-1327]!	; 0xfffffad1
      b0:	6d2f7372 	stcvs	3, cr7, [pc, #-456]!	; fffffef0 <__bss_end__+0xffff5f10>
      b4:	73656c69 	cmnvc	r5, #26880	; 0x6900
      b8:	756f532f 	strbvc	r5, [pc, #-815]!	; fffffd91 <__bss_end__+0xffff5db1>
      bc:	2f656372 	svccs	0x00656372
      c0:	34327363 	ldrtcc	r7, [r2], #-867	; 0xfffffc9d
      c4:	2f786c30 	svccs	0x00786c30
      c8:	7062696c 	rsbvc	r6, r2, ip, ror #18
      cc:	6e692f69 	cdpvs	15, 6, cr2, cr9, cr9, {3}
      d0:	64756c63 	ldrbtvs	r6, [r5], #-3171	; 0xfffff39d
      d4:	6b000065 	blvs	270 <__code_start__-0x7d90>
      d8:	616d2d72 	smcvs	53970	; 0xd2d2
      dc:	636f6c6c 	cmnvs	pc, #108, 24	; 0x6c00
      e0:	0000632e 	andeq	r6, r0, lr, lsr #6
      e4:	70720000 	rsbsvc	r0, r2, r0
      e8:	00682e69 	rsbeq	r2, r8, r9, ror #28
      ec:	6b000001 	blvs	f8 <__code_start__-0x7f08>
      f0:	616d2d72 	smcvs	53970	; 0xd2d2
      f4:	636f6c6c 	cmnvs	pc, #108, 24	; 0x6c00
      f8:	0000682e 	andeq	r6, r0, lr, lsr #16
      fc:	05000000 	streq	r0, [r0, #-0]
     100:	02050001 	andeq	r0, r5, #1, 0
     104:	00008074 	andeq	r8, r0, r4, ror r0
     108:	0100d203 	tsteq	r0, r3, lsl #4
     10c:	02050106 	andeq	r0, r5, #-2147483647	; 0x80000001
     110:	05132f06 	ldreq	r2, [r3, #-3846]	; 0xfffff0fa
     114:	05010605 	streq	r0, [r1, #-1541]	; 0xfffff9fb
     118:	052f0602 	streq	r0, [pc, #-1538]!	; fffffb1e <__bss_end__+0xffff5b3e>
     11c:	05010609 	streq	r0, [r1, #-1545]	; 0xfffff9f7
     120:	052e4a02 	streq	r4, [lr, #-2562]!	; 0xfffff5fe
     124:	04020012 	streq	r0, [r2], #-18	; 0xffffffee
     128:	052e0601 	streq	r0, [lr, #-1537]!	; 0xfffff9ff
     12c:	04020002 	streq	r0, [r2], #-2
     130:	05010601 	streq	r0, [r1, #-1537]	; 0xfffff9ff
     134:	04020027 	streq	r0, [r2], #-39	; 0xffffffd9
     138:	12054a03 	andne	r4, r5, #12288	; 0x3000
     13c:	03040200 	movweq	r0, #16896	; 0x4200
     140:	0603052e 	streq	r0, [r3], -lr, lsr #10
     144:	0610054b 	ldreq	r0, [r0], -fp, asr #10
     148:	2e060501 	cfsh32cs	mvfx0, mvfx6, #1
     14c:	02001505 	andeq	r1, r0, #20971520	; 0x1400000
     150:	054a0104 	strbeq	r0, [sl, #-260]	; 0xfffffefc
     154:	04020020 	streq	r0, [r2], #-32	; 0xffffffe0
     158:	02004a02 	andeq	r4, r0, #8192	; 0x2000
     15c:	054a0204 	strbeq	r0, [sl, #-516]	; 0xfffffdfc
     160:	05300602 	ldreq	r0, [r0, #-1538]!	; 0xfffff9fe
     164:	05010610 	streq	r0, [r1, #-1552]	; 0xfffff9f0
     168:	1d052e09 	stcne	14, cr2, [r5, #-36]	; 0xffffffdc
     16c:	2e05052e 	cfsh32cs	mvfx0, mvfx5, #30
     170:	50060305 	andpl	r0, r6, r5, lsl #6
     174:	01060d05 	tsteq	r6, r5, lsl #26
     178:	2f060205 	svccs	0x00060205
     17c:	01060e05 	tsteq	r6, r5, lsl #28
     180:	052e0805 	streq	r0, [lr, #-2053]!	; 0xfffff7fb
     184:	03052e05 	movweq	r2, #24069	; 0x5e05
     188:	0c055006 	stceq	0, cr5, [r5], {6}
     18c:	02050106 	andeq	r0, r5, #-2147483647	; 0x80000001
     190:	08052f06 	stmdaeq	r5, {r1, r2, r8, r9, sl, fp, sp}
     194:	01050106 	tsteq	r5, r6, lsl #2
     198:	0603054b 	streq	r0, [r3], -fp, asr #10
     19c:	052e7303 	streq	r7, [lr, #-771]!	; 0xfffffcfd
     1a0:	0501061c 	streq	r0, [r1, #-1564]	; 0xfffff9e4
     1a4:	03052e0e 	movweq	r2, #24078	; 0x5e0e
     1a8:	13054b06 	movwne	r4, #23302	; 0x5b06
     1ac:	1a050106 	bne	1405cc <__bss_end__+0x1365ec>
     1b0:	2e0d052e 	cfsh32cs	mvfx0, mvfx13, #30
     1b4:	50060305 	andpl	r0, r6, r5, lsl #6
     1b8:	01061505 	tsteq	r6, r5, lsl #10
     1bc:	052e0d05 	streq	r0, [lr, #-3333]!	; 0xfffff2fb
     1c0:	054b0603 	strbeq	r0, [fp, #-1539]	; 0xfffff9fd
     1c4:	05010613 	streq	r0, [r1, #-1555]	; 0xfffff9ed
     1c8:	01052e0c 	tsteq	r5, ip, lsl #28
     1cc:	7fba0306 	svcvc	0x00ba0306
     1d0:	05010666 	streq	r0, [r1, #-1638]	; 0xfffff99a
     1d4:	054b0602 	strbeq	r0, [fp, #-1538]	; 0xfffff9fe
     1d8:	05010605 	streq	r0, [r1, #-1541]	; 0xfffff9fb
     1dc:	02052f06 	andeq	r2, r5, #6, 30
     1e0:	0d052f06 	stceq	15, cr2, [r5, #-24]	; 0xffffffe8
     1e4:	02050106 	andeq	r0, r5, #-2147483647	; 0x80000001
     1e8:	05054b06 	streq	r4, [r5, #-2822]	; 0xfffff4fa
     1ec:	02050106 	andeq	r0, r5, #-2147483647	; 0x80000001
     1f0:	05134c06 	ldreq	r4, [r3, #-3078]	; 0xfffff3fa
     1f4:	0501060d 	streq	r0, [r1, #-1549]	; 0xfffff9f3
     1f8:	062f0602 	strteq	r0, [pc], -r2, lsl #12
     1fc:	052f062e 	streq	r0, [pc, #-1582]!	; fffffbd6 <__bss_end__+0xffff5bf6>
     200:	05010609 	streq	r0, [r1, #-1545]	; 0xfffff9f7
     204:	0105620a 	tsteq	r5, sl, lsl #4
     208:	064e0633 			; <UNDEFINED> instruction: 0x064e0633
     20c:	06020501 	streq	r0, [r2], -r1, lsl #10
     210:	0514132f 	ldreq	r1, [r4, #-815]	; 0xfffffcd1
     214:	05010624 	streq	r0, [r1, #-1572]	; 0xfffff9dc
     218:	09052e29 	stmdbeq	r5, {r0, r3, r5, r9, sl, fp, sp}
     21c:	0602052e 	streq	r0, [r2], -lr, lsr #10
     220:	060d052f 	streq	r0, [sp], -pc, lsr #10
     224:	4a050501 	bmi	141630 <__bss_end__+0x137650>
     228:	50060205 	andpl	r0, r6, r5, lsl #4
     22c:	01060905 	tsteq	r6, r5, lsl #18
     230:	0603052e 	streq	r0, [r3], -lr, lsr #10
     234:	0616052a 	ldreq	r0, [r6], -sl, lsr #10
     238:	4a0e0501 	bmi	381644 <__bss_end__+0x377664>
     23c:	2f060305 	svccs	0x00060305
     240:	01060f05 	tsteq	r6, r5, lsl #30
     244:	6d060405 	cfstrsvs	mvf0, [r6, #-20]	; 0xffffffec
     248:	01060705 	tsteq	r6, r5, lsl #14
     24c:	34060505 	strcc	r0, [r6], #-1285	; 0xfffffafb
     250:	01060f05 	tsteq	r6, r5, lsl #30
     254:	4b060505 	blmi	181670 <__bss_end__+0x177690>
     258:	01060705 	tsteq	r6, r5, lsl #14
     25c:	2f060505 	svccs	0x00060505
     260:	01060f05 	tsteq	r6, r5, lsl #30
     264:	30060405 	andcc	r0, r6, r5, lsl #8
     268:	01060a05 	tsteq	r6, r5, lsl #20
     26c:	4b060405 	blmi	181288 <__bss_end__+0x1772a8>
     270:	01060b05 	tsteq	r6, r5, lsl #22
     274:	0605052e 	streq	r0, [r5], -lr, lsr #10
     278:	052e7703 	streq	r7, [lr, #-1795]!	; 0xfffff8fd
     27c:	05010618 	streq	r0, [r1, #-1560]	; 0xfffff9e8
     280:	1a052e12 	bne	14bad0 <__bss_end__+0x141af0>
     284:	4a7a0306 	bmi	1e80ea4 <__bss_end__+0x1e76ec4>
     288:	05011805 	streq	r1, [r1, #-2053]	; 0xfffff7fb
     28c:	05010620 	streq	r0, [r1, #-1568]	; 0xfffff9e0
     290:	03052e27 	movweq	r2, #24103	; 0x5e27
     294:	0b053006 	bleq	14c2b4 <__bss_end__+0x1422d4>
     298:	06050106 	streq	r0, [r5], -r6, lsl #2
     29c:	0603052e 	streq	r0, [r3], -lr, lsr #10
     2a0:	054a0f03 	strbeq	r0, [sl, #-3843]	; 0xfffff0fd
     2a4:	05010609 	streq	r0, [r1, #-1545]	; 0xfffff9f7
     2a8:	04054a06 	streq	r4, [r5], #-2566	; 0xfffff5fa
     2ac:	0d054c06 	stceq	12, cr4, [r5, #-24]	; 0xffffffe8
     2b0:	052e0106 	streq	r0, [lr, #-262]!	; 0xfffffefa
     2b4:	022e2e07 	eoreq	r2, lr, #112	; 0x70
     2b8:	01010006 	tsteq	r1, r6
     2bc:	00000075 	andeq	r0, r0, r5, ror r0
     2c0:	00530003 	subseq	r0, r3, r3
     2c4:	01020000 	mrseq	r0, (UNDEF: 2)
     2c8:	000d0efb 	strdeq	r0, [sp], -fp
     2cc:	01010101 	tsteq	r1, r1, lsl #2
     2d0:	01000000 	mrseq	r0, (UNDEF: 0)
     2d4:	2f010000 	svccs	0x00010000
     2d8:	72657355 	rsbvc	r7, r5, #1409286145	; 0x54000001
     2dc:	696d2f73 	stmdbvs	sp!, {r0, r1, r4, r5, r6, r8, r9, sl, fp, sp}^
     2e0:	2f73656c 	svccs	0x0073656c
     2e4:	72756f53 	rsbsvc	r6, r5, #332	; 0x14c
     2e8:	632f6563 			; <UNDEFINED> instruction: 0x632f6563
     2ec:	30343273 	eorscc	r3, r4, r3, ror r2
     2f0:	6c2f786c 	stcvs	8, cr7, [pc], #-432	; 148 <__code_start__-0x7eb8>
     2f4:	69706269 	ldmdbvs	r0!, {r0, r3, r5, r6, r9, sp, lr}^
     2f8:	636e692f 	cmnvs	lr, #770048	; 0xbc000
     2fc:	6564756c 	strbvs	r7, [r4, #-1388]!	; 0xfffffa94
     300:	69700000 	ldmdbvs	r0!, {}^	; <UNPREDICTABLE>
     304:	7262732d 	rsbvc	r7, r2, #-1275068416	; 0xb4000000
     308:	00632e6b 	rsbeq	r2, r3, fp, ror #28
     30c:	72000000 	andvc	r0, r0, #0, 0
     310:	682e6970 	stmdavs	lr!, {r4, r5, r6, r8, fp, sp, lr}
     314:	00000100 	andeq	r0, r0, r0, lsl #2
     318:	001c0500 	andseq	r0, ip, r0, lsl #10
     31c:	82200205 	eorhi	r0, r0, #1342177280	; 0x50000000
     320:	06150000 	ldreq	r0, [r5], -r0
     324:	06050501 	streq	r0, [r5], -r1, lsl #10
     328:	060c052f 	streq	r0, [ip], -pc, lsr #10
     32c:	2f010501 	svccs	0x00010501
     330:	01000202 	tsteq	r0, r2, lsl #4
     334:	00012001 	andeq	r2, r1, r1
     338:	db000300 	blle	f40 <__code_start__-0x70c0>
     33c:	02000000 	andeq	r0, r0, #0, 0
     340:	0d0efb01 	vstreq	d15, [lr, #-4]
     344:	01010100 	mrseq	r0, (UNDEF: 17)
     348:	00000001 	andeq	r0, r0, r1
     34c:	01000001 	tsteq	r0, r1
     350:	696c2f2e 	stmdbvs	ip!, {r1, r2, r3, r5, r8, r9, sl, fp, sp}^
     354:	2f006362 	svccs	0x00006362
     358:	2f74706f 	svccs	0x0074706f
     35c:	656d6f68 	strbvs	r6, [sp, #-3944]!	; 0xfffff098
     360:	77657262 	strbvc	r7, [r5, -r2, ror #4]!
     364:	6c65432f 	stclvs	3, cr4, [r5], #-188	; 0xffffff44
     368:	2f72616c 	svccs	0x0072616c
     36c:	2d6d7261 	sfmcs	f7, 2, [sp, #-388]!	; 0xfffffe7c
     370:	656e6f6e 	strbvs	r6, [lr, #-3950]!	; 0xfffff092
     374:	6261652d 	rsbvs	r6, r1, #188743680	; 0xb400000
     378:	2f392d69 	svccs	0x00392d69
     37c:	30322d39 	eorscc	r2, r2, r9, lsr sp
     380:	34713931 	ldrbtcc	r3, [r1], #-2353	; 0xfffff6cf
     384:	3173632d 	cmncc	r3, sp, lsr #6
     388:	2f653730 	svccs	0x00653730
     38c:	2f62696c 	svccs	0x0062696c
     390:	2f636367 	svccs	0x00636367
     394:	2d6d7261 	sfmcs	f7, 2, [sp, #-388]!	; 0xfffffe7c
     398:	656e6f6e 	strbvs	r6, [lr, #-3950]!	; 0xfffff092
     39c:	6261652d 	rsbvs	r6, r1, #188743680	; 0xb400000
     3a0:	2e392f69 	cdpcs	15, 3, cr2, cr9, cr9, {3}
     3a4:	2f312e32 	svccs	0x00312e32
     3a8:	6c636e69 	stclvs	14, cr6, [r3], #-420	; 0xfffffe5c
     3ac:	00656475 	rsbeq	r6, r5, r5, ror r4
     3b0:	6573552f 	ldrbvs	r5, [r3, #-1327]!	; 0xfffffad1
     3b4:	6d2f7372 	stcvs	3, cr7, [pc, #-456]!	; 1f4 <__code_start__-0x7e0c>
     3b8:	73656c69 	cmnvc	r5, #26880	; 0x6900
     3bc:	756f532f 	strbvc	r5, [pc, #-815]!	; 95 <__code_start__-0x7f6b>
     3c0:	2f656372 	svccs	0x00656372
     3c4:	34327363 	ldrtcc	r7, [r2], #-867	; 0xfffffc9d
     3c8:	2f786c30 	svccs	0x00786c30
     3cc:	7062696c 	rsbvc	r6, r2, ip, ror #18
     3d0:	6e692f69 	cdpvs	15, 6, cr2, cr9, cr9, {3}
     3d4:	64756c63 	ldrbtvs	r6, [r5], #-3171	; 0xfffff39d
     3d8:	70000065 	andvc	r0, r0, r5, rrx
     3dc:	746e6972 	strbtvc	r6, [lr], #-2418	; 0xfffff68e
     3e0:	00632e6b 	rsbeq	r2, r3, fp, ror #28
     3e4:	73000001 	movwvc	r0, #1
     3e8:	72616474 	rsbvc	r6, r1, #116, 8	; 0x74000000
     3ec:	00682e67 	rsbeq	r2, r8, r7, ror #28
     3f0:	72000002 	andvc	r0, r0, #2, 0
     3f4:	682e6970 	stmdavs	lr!, {r4, r5, r6, r8, fp, sp, lr}
     3f8:	00000300 	andeq	r0, r0, r0, lsl #6
     3fc:	6975623c 	ldmdbvs	r5!, {r2, r3, r4, r5, r9, sp, lr}^
     400:	692d746c 	pushvs	{r2, r3, r5, r6, sl, ip, sp, lr}
     404:	00003e6e 	andeq	r3, r0, lr, ror #28
     408:	61760000 	cmnvs	r6, r0
     40c:	6972702d 	ldmdbvs	r2!, {r0, r2, r3, r5, ip, sp, lr}^
     410:	2e6b746e 	cdpcs	4, 6, cr7, cr11, cr14, {3}
     414:	00010068 	andeq	r0, r1, r8, rrx
     418:	22050000 	andcs	r0, r5, #0, 0
     41c:	2c020500 	cfstr32cs	mvfx0, [r2], {-0}
     420:	17000082 	strne	r0, [r0, -r2, lsl #1]
     424:	13140505 	tstne	r4, #20971520	; 0x1400000
     428:	06220514 			; <UNDEFINED> instruction: 0x06220514
     42c:	5012050d 	andspl	r0, r2, sp, lsl #10
     430:	7a032205 	bvc	c8c4c <__bss_end__+0xbec6c>
     434:	3305052e 	movwcc	r0, #21806	; 0x552e
     438:	052f1205 	streq	r1, [pc, #-517]!	; 23b <__code_start__-0x7dc5>
     43c:	09056505 	stmdbeq	r5, {r0, r2, r8, sl, sp, lr}
     440:	12052f06 	andne	r2, r5, #6, 30
     444:	05050106 	streq	r0, [r5, #-262]	; 0xfffffefa
     448:	06164b06 	ldreq	r4, [r6], -r6, lsl #22
     44c:	0550064a 	ldrbeq	r0, [r0, #-1610]	; 0xfffff9b6
     450:	66130601 	ldrvs	r0, [r3], -r1, lsl #12
     454:	01000802 	tsteq	r0, r2, lsl #16
     458:	0000a001 	andeq	sl, r0, r1
     45c:	57000300 	strpl	r0, [r0, -r0, lsl #6]
     460:	02000000 	andeq	r0, r0, #0, 0
     464:	0d0efb01 	vstreq	d15, [lr, #-4]
     468:	01010100 	mrseq	r0, (UNDEF: 17)
     46c:	00000001 	andeq	r0, r0, r1
     470:	01000001 	tsteq	r0, r1
     474:	696c2f2e 	stmdbvs	ip!, {r1, r2, r3, r5, r8, r9, sl, fp, sp}^
     478:	2f006362 	svccs	0x00006362
     47c:	72657355 	rsbvc	r7, r5, #1409286145	; 0x54000001
     480:	696d2f73 	stmdbvs	sp!, {r0, r1, r4, r5, r6, r8, r9, sl, fp, sp}^
     484:	2f73656c 	svccs	0x0073656c
     488:	72756f53 	rsbsvc	r6, r5, #332	; 0x14c
     48c:	632f6563 			; <UNDEFINED> instruction: 0x632f6563
     490:	30343273 	eorscc	r3, r4, r3, ror r2
     494:	6c2f786c 	stcvs	8, cr7, [pc], #-432	; 2ec <__code_start__-0x7d14>
     498:	69706269 	ldmdbvs	r0!, {r0, r3, r5, r6, r9, sp, lr}^
     49c:	636e692f 	cmnvs	lr, #770048	; 0xbc000
     4a0:	6564756c 	strbvs	r7, [r4, #-1388]!	; 0xfffffa94
     4a4:	75700000 	ldrbvc	r0, [r0, #-0]!
     4a8:	632e6b74 			; <UNDEFINED> instruction: 0x632e6b74
     4ac:	00000100 	andeq	r0, r0, r0, lsl #2
     4b0:	2e697072 	mcrcs	0, 3, r7, cr9, cr2, {3}
     4b4:	00020068 	andeq	r0, r2, r8, rrx
     4b8:	22050000 	andcs	r0, r5, #0, 0
     4bc:	84020500 	strhi	r0, [r2], #-1280	; 0xfffffb00
     4c0:	15000082 	strne	r0, [r0, #-130]	; 0xffffff7e
     4c4:	05130505 	ldreq	r0, [r3, #-1285]	; 0xfffffafb
     4c8:	2e110622 	cfmsub32cs	mvax1, mvfx0, mvfx1, mvfx2
     4cc:	2f060b05 	svccs	0x00060b05
     4d0:	2e060505 	cfsh32cs	mvfx0, mvfx6, #5
     4d4:	02000905 	andeq	r0, r0, #81920	; 0x14000
     4d8:	67060204 	strvs	r0, [r6, -r4, lsl #4]
     4dc:	02000f05 	andeq	r0, r0, #5, 30
     4e0:	05490204 	strbeq	r0, [r9, #-516]	; 0xfffffdfc
     4e4:	0402000b 	streq	r0, [r2], #-11
     4e8:	05050102 	streq	r0, [r5, #-258]	; 0xfffffefe
     4ec:	02040200 	andeq	r0, r4, #0, 4
     4f0:	4e062e06 	cdpmi	14, 0, cr2, cr6, cr6, {0}
     4f4:	13060105 	movwne	r0, #24837	; 0x6105
     4f8:	01000602 	tsteq	r0, r2, lsl #12
     4fc:	0008fa01 	andeq	pc, r8, r1, lsl #20
     500:	f1000300 			; <UNDEFINED> instruction: 0xf1000300
     504:	02000000 	andeq	r0, r0, #0, 0
     508:	0d0efb01 	vstreq	d15, [lr, #-4]
     50c:	01010100 	mrseq	r0, (UNDEF: 17)
     510:	00000001 	andeq	r0, r0, r1
     514:	01000001 	tsteq	r0, r1
     518:	696c2f2e 	stmdbvs	ip!, {r1, r2, r3, r5, r8, r9, sl, fp, sp}^
     51c:	2f006362 	svccs	0x00006362
     520:	2f74706f 	svccs	0x0074706f
     524:	656d6f68 	strbvs	r6, [sp, #-3944]!	; 0xfffff098
     528:	77657262 	strbvc	r7, [r5, -r2, ror #4]!
     52c:	6c65432f 	stclvs	3, cr4, [r5], #-188	; 0xffffff44
     530:	2f72616c 	svccs	0x0072616c
     534:	2d6d7261 	sfmcs	f7, 2, [sp, #-388]!	; 0xfffffe7c
     538:	656e6f6e 	strbvs	r6, [lr, #-3950]!	; 0xfffff092
     53c:	6261652d 	rsbvs	r6, r1, #188743680	; 0xb400000
     540:	2f392d69 	svccs	0x00392d69
     544:	30322d39 	eorscc	r2, r2, r9, lsr sp
     548:	34713931 	ldrbtcc	r3, [r1], #-2353	; 0xfffff6cf
     54c:	3173632d 	cmncc	r3, sp, lsr #6
     550:	2f653730 	svccs	0x00653730
     554:	2f62696c 	svccs	0x0062696c
     558:	2f636367 	svccs	0x00636367
     55c:	2d6d7261 	sfmcs	f7, 2, [sp, #-388]!	; 0xfffffe7c
     560:	656e6f6e 	strbvs	r6, [lr, #-3950]!	; 0xfffff092
     564:	6261652d 	rsbvs	r6, r1, #188743680	; 0xb400000
     568:	2e392f69 	cdpcs	15, 3, cr2, cr9, cr9, {3}
     56c:	2f312e32 	svccs	0x00312e32
     570:	6c636e69 	stclvs	14, cr6, [r3], #-420	; 0xfffffe5c
     574:	00656475 	rsbeq	r6, r5, r5, ror r4
     578:	6573552f 	ldrbvs	r5, [r3, #-1327]!	; 0xfffffad1
     57c:	6d2f7372 	stcvs	3, cr7, [pc, #-456]!	; 3bc <__code_start__-0x7c44>
     580:	73656c69 	cmnvc	r5, #26880	; 0x6900
     584:	756f532f 	strbvc	r5, [pc, #-815]!	; 25d <__code_start__-0x7da3>
     588:	2f656372 	svccs	0x00656372
     58c:	34327363 	ldrtcc	r7, [r2], #-867	; 0xfffffc9d
     590:	2f786c30 	svccs	0x00786c30
     594:	7062696c 	rsbvc	r6, r2, ip, ror #18
     598:	6e692f69 	cdpvs	15, 6, cr2, cr9, cr9, {3}
     59c:	64756c63 	ldrbtvs	r6, [r5], #-3171	; 0xfffff39d
     5a0:	76000065 	strvc	r0, [r0], -r5, rrx
     5a4:	72702d61 	rsbsvc	r2, r0, #6208	; 0x1840
     5a8:	6b746e69 	blvs	1d1bf54 <__bss_end__+0x1d11f74>
     5ac:	0100632e 	tsteq	r0, lr, lsr #6
     5b0:	74730000 	ldrbtvc	r0, [r3], #-0
     5b4:	746e6964 	strbtvc	r6, [lr], #-2404	; 0xfffff69c
     5b8:	6363672d 	cmnvs	r3, #11796480	; 0xb40000
     5bc:	0200682e 	andeq	r6, r0, #3014656	; 0x2e0000
     5c0:	70720000 	rsbsvc	r0, r2, r0
     5c4:	00682e69 	rsbeq	r2, r8, r9, ror #28
     5c8:	72000003 	andvc	r0, r0, #3, 0
     5cc:	692d6970 	pushvs	{r4, r5, r6, r8, fp, sp, lr}
     5d0:	7265746e 	rsbvc	r7, r5, #1845493760	; 0x6e000000
     5d4:	2e6c616e 	powcsez	f6, f4, #0.5
     5d8:	00030068 	andeq	r0, r3, r8, rrx
     5dc:	64747300 	ldrbtvs	r7, [r4], #-768	; 0xfffffd00
     5e0:	2e677261 	cdpcs	2, 6, cr7, cr7, cr1, {3}
     5e4:	00020068 	andeq	r0, r2, r8, rrx
     5e8:	75623c00 	strbvc	r3, [r2, #-3072]!	; 0xfffff400
     5ec:	2d746c69 	ldclcs	12, cr6, [r4, #-420]!	; 0xfffffe5c
     5f0:	003e6e69 	eorseq	r6, lr, r9, ror #28
     5f4:	00000000 	andeq	r0, r0, r0
     5f8:	05000105 	streq	r0, [r0, #-261]	; 0xfffffefb
     5fc:	0082bc02 	addeq	fp, r2, r2, lsl #24
     600:	00c80300 	sbceq	r0, r8, r0, lsl #6
     604:	14020501 	strne	r0, [r2], #-1281	; 0xfffffaff
     608:	10060105 	andne	r0, r6, r5, lsl #2
     60c:	05300405 	ldreq	r0, [r0, #-1029]!	; 0xfffffbfb
     610:	054a2c01 	strbeq	r2, [sl, #-3073]	; 0xfffff3ff
     614:	02053004 	andeq	r3, r5, #4, 0
     618:	05133106 	ldreq	r3, [r3, #-262]	; 0xfffffefa
     61c:	052e060b 	streq	r0, [lr, #-1547]!	; 0xfffff9f5
     620:	05300602 	ldreq	r0, [r0, #-1538]!	; 0xfffff9fe
     624:	24020609 	strcs	r0, [r2], #-1545	; 0xfffff9f7
     628:	052e2e0d 	streq	r2, [lr, #-3597]!	; 0xfffff1f3
     62c:	1703060d 	strne	r0, [r3, -sp, lsl #12]
     630:	1311054a 	tstne	r1, #310378496	; 0x12800000
     634:	01062d05 	tsteq	r6, r5, lsl #26
     638:	052e1605 	streq	r1, [lr, #-1541]!	; 0xfffff9fb
     63c:	16052f0d 	strne	r2, [r5], -sp, lsl #30
     640:	0614052d 	ldreq	r0, [r4], -sp, lsr #10
     644:	0617052f 	ldreq	r0, [r7], -pc, lsr #10
     648:	2e0d0501 	cfsh32cs	mvfx0, mvfx13, #1
     64c:	12052f06 	andne	r2, r5, #6, 30
     650:	2f2e0106 	svccs	0x002e0106
     654:	060d052d 	streq	r0, [sp], -sp, lsr #10
     658:	0612052f 	ldreq	r0, [r2], -pc, lsr #10
     65c:	06190501 	ldreq	r0, [r9], -r1, lsl #10
     660:	0304052f 	movweq	r0, #17711	; 0x452f
     664:	05010111 	streq	r0, [r1, #-273]	; 0xfffffeef
     668:	0e051502 	cfsh32eq	mvfx1, mvfx5, #2
     66c:	017fb203 	cmneq	pc, r3, lsl #4
     670:	05130205 	ldreq	r0, [r3, #-517]	; 0xfffffdfb
     674:	05010606 	streq	r0, [r1, #-1542]	; 0xfffff9fa
     678:	05300602 	ldreq	r0, [r0, #-1538]!	; 0xfffff9fe
     67c:	02050108 	andeq	r0, r5, #2
     680:	054a0106 	strbeq	r0, [sl, #-262]	; 0xfffffefa
     684:	05910808 	ldreq	r0, [r1, #2056]	; 0x808
     688:	054a0603 	strbeq	r0, [sl, #-1539]	; 0xfffff9fd
     68c:	05010608 	streq	r0, [r1, #-1544]	; 0xfffff9f8
     690:	052d0615 	streq	r0, [sp, #-1557]!	; 0xfffff9eb
     694:	03050108 	movweq	r0, #20744	; 0x5108
     698:	060805d7 			; <UNDEFINED> instruction: 0x060805d7
     69c:	2d180501 	cfldr32cs	mvfx0, [r8, #-4]
     6a0:	052e0205 	streq	r0, [lr, #-517]!	; 0xfffffdfb
     6a4:	15052f08 	strne	r2, [r5, #-3848]	; 0xfffff0f8
     6a8:	08052d06 	stmdaeq	r5, {r1, r2, r8, sl, fp, sp}
     6ac:	06020501 	streq	r0, [r2], -r1, lsl #10
     6b0:	06030501 	streq	r0, [r3], -r1, lsl #10
     6b4:	0618052f 	ldreq	r0, [r8], -pc, lsr #10
     6b8:	2e020511 	mcrcs	5, 0, r0, cr2, cr1, {0}
     6bc:	052f0805 	streq	r0, [pc, #-2053]!	; fffffebf <__bss_end__+0xffff5edf>
     6c0:	052d0615 	streq	r0, [sp, #-1557]!	; 0xfffff9eb
     6c4:	03050108 	movweq	r0, #20744	; 0x5108
     6c8:	06080513 			; <UNDEFINED> instruction: 0x06080513
     6cc:	06150501 	ldreq	r0, [r5], -r1, lsl #10
     6d0:	0108052d 	tsteq	r8, sp, lsr #10
     6d4:	02050106 	andeq	r0, r5, #-2147483647	; 0x80000001
     6d8:	0505a006 	streq	sl, [r5, #-6]
     6dc:	04050106 	streq	r0, [r5], #-262	; 0xfffffefa
     6e0:	2f110536 	svccs	0x00110536
     6e4:	052e0905 	streq	r0, [lr, #-2309]!	; 0xfffff6fb
     6e8:	05053302 	streq	r3, [r5, #-770]	; 0xfffffcfe
     6ec:	052e7203 	streq	r7, [lr, #-515]!	; 0xfffffdfd
     6f0:	062f0602 	strteq	r0, [pc], -r2, lsl #12
     6f4:	060e0501 	streq	r0, [lr], -r1, lsl #10
     6f8:	14020516 	strne	r0, [r2], #-1302	; 0xfffffaea
     6fc:	13030513 	movwne	r0, #13587	; 0x3513
     700:	15140205 	ldrne	r0, [r4, #-517]	; 0xfffffdfb
     704:	05010b05 	streq	r0, [r1, #-2821]	; 0xfffff4fb
     708:	2e010602 	cfmadd32cs	mvax0, mvfx0, mvfx1, mvfx2
     70c:	67060305 	strvs	r0, [r6, -r5, lsl #6]
     710:	01060a05 	tsteq	r6, r5, lsl #20
     714:	052d0205 	streq	r0, [sp, #-517]!	; 0xfffffdfb
     718:	17052f0a 	strne	r2, [r5, -sl, lsl #30]
     71c:	0b052d06 	bleq	14bb3c <__bss_end__+0x141b5c>
     720:	06020501 	streq	r0, [r2], -r1, lsl #10
     724:	4c090501 	cfstr32mi	mvfx0, [r9], {1}
     728:	0602052e 	streq	r0, [r2], -lr, lsr #10
     72c:	0609052e 	streq	r0, [r9], -lr, lsr #10
     730:	06020501 	streq	r0, [r2], -r1, lsl #10
     734:	05010630 	streq	r0, [r1, #-1584]	; 0xfffff9d0
     738:	01380301 	teqeq	r8, r1, lsl #6
     73c:	4f030905 	svcmi	0x00030905
     740:	052e2e4a 	streq	r2, [lr, #-3658]!	; 0xfffff1b6
     744:	27030619 	smladcs	r3, r9, r6, r0
     748:	131a054a 	tstne	sl, #310378496	; 0x12800000
     74c:	01062805 	tsteq	r6, r5, lsl #16
     750:	052e1f05 	streq	r1, [lr, #-3845]!	; 0xfffff0fb
     754:	1f052f04 	svcne	0x00052f04
     758:	060b052d 	streq	r0, [fp], -sp, lsr #10
     75c:	060e052f 	streq	r0, [lr], -pc, lsr #10
     760:	2e040501 	cfsh32cs	mvfx0, mvfx4, #1
     764:	03060205 	movweq	r0, #25093	; 0x6205
     768:	05134a59 	ldreq	r4, [r3, #-2649]	; 0xfffff5a7
     76c:	052e060b 	streq	r0, [lr, #-1547]!	; 0xfffff9f5
     770:	05300602 	ldreq	r0, [r0, #-1538]!	; 0xfffff9fe
     774:	24020609 	strcs	r0, [r2], #-1545	; 0xfffff9f7
     778:	0604050d 	streq	r0, [r4], -sp, lsl #10
     77c:	06051336 			; <UNDEFINED> instruction: 0x06051336
     780:	05050106 	streq	r0, [r5, #-262]	; 0xfffffefa
     784:	13136706 	tstne	r3, #1572864	; 0x180000
     788:	11060905 	tstne	r6, r5, lsl #18
     78c:	052b0d05 	streq	r0, [fp, #-3333]!	; 0xfffff2fb
     790:	0d05300b 	stceq	0, cr3, [r5, #-44]	; 0xffffffd4
     794:	351b052c 	ldrcc	r0, [fp, #-1324]	; 0xfffffad4
     798:	2d060405 	cfstrscs	mvf0, [r6, #-20]	; 0xffffffec
     79c:	05130505 	ldreq	r0, [r3, #-1285]	; 0xfffffafb
     7a0:	052e061b 	streq	r0, [lr, #-1563]!	; 0xfffff9e5
     7a4:	0405820a 	streq	r8, [r5], #-522	; 0xfffffdf6
     7a8:	2e0e052f 	cfsh32cs	mvfx0, mvfx14, #31
     7ac:	05490a05 	strbeq	r0, [r9, #-2565]	; 0xfffff5fb
     7b0:	052f060b 	streq	r0, [pc, #-1547]!	; 1ad <__code_start__-0x7e53>
     7b4:	06010604 	streq	r0, [r1], -r4, lsl #12
     7b8:	0606052f 	streq	r0, [r6], -pc, lsr #10
     7bc:	06050501 	streq	r0, [r5], -r1, lsl #10
     7c0:	060a052f 	streq	r0, [sl], -pc, lsr #10
     7c4:	07052e01 	streq	r2, [r5, -r1, lsl #28]
     7c8:	052e2e2e 	streq	r2, [lr, #-3630]!	; 0xfffff1d2
     7cc:	0d030604 	stceq	6, cr0, [r3, #-16]
     7d0:	06020501 	streq	r0, [r2], -r1, lsl #10
     7d4:	05014603 	streq	r4, [r1, #-1539]	; 0xfffff9fd
     7d8:	2e3a0309 	cdpcs	3, 3, cr0, cr10, cr9, {0}
     7dc:	2f060405 	svccs	0x00060405
     7e0:	01010d03 	tsteq	r1, r3, lsl #26
     7e4:	05150205 	ldreq	r0, [r5, #-517]	; 0xfffffdfb
     7e8:	7fb2030e 	svcvc	0x00b2030e
     7ec:	13020501 	movwne	r0, #9473	; 0x2501
     7f0:	01080514 	tsteq	r8, r4, lsl r5
     7f4:	10060605 	andne	r0, r6, r5, lsl #12
     7f8:	052e3c03 	streq	r3, [lr, #-3075]!	; 0xfffff3fd
     7fc:	4a460302 	bmi	118140c <__bss_end__+0x117742c>
     800:	05053006 	streq	r3, [r5, #-6]
     804:	2e2e0106 	sufcse	f0, f6, f6
     808:	4b060205 	blmi	181024 <__bss_end__+0x177044>
     80c:	0e050106 	adfeqs	f0, f5, f6
     810:	02051606 	andeq	r1, r5, #6291456	; 0x600000
     814:	15151314 	ldrne	r1, [r5, #-788]	; 0xfffffcec
     818:	05010b05 	streq	r0, [r1, #-2821]	; 0xfffff4fb
     81c:	062e0602 	strteq	r0, [lr], -r2, lsl #12
     820:	06090530 			; <UNDEFINED> instruction: 0x06090530
     824:	06020501 	streq	r0, [r2], -r1, lsl #10
     828:	0501064c 	streq	r0, [r1, #-1612]	; 0xfffff9b4
     82c:	01380301 	teqeq	r8, r1, lsl #6
     830:	6e030605 	cfmadd32vs	mvax0, mvfx0, mvfx3, mvfx5
     834:	0302054a 	movweq	r0, #9546	; 0x254a
     838:	2e4a6646 	cdpcs	6, 4, cr6, cr10, cr6, {2}
     83c:	03060405 	movweq	r0, #25605	; 0x6405
     840:	010100c8 	smlabteq	r1, r8, r0, r0
     844:	2e060101 	adfcss	f0, f6, f1
     848:	034a0682 	movteq	r0, #42626	; 0xa682
     84c:	09052e72 	stmdbeq	r5, {r1, r4, r5, r6, r9, sl, fp, sp}
     850:	04050106 	streq	r0, [r5], #-262	; 0xfffffefa
     854:	0d032f06 	stceq	15, cr2, [r3, #-24]	; 0xffffffe8
     858:	02050101 	andeq	r0, r5, #1073741824	; 0x40000000
     85c:	030e0515 	movweq	r0, #58645	; 0xe515
     860:	05017fb2 	streq	r7, [r1, #-4018]	; 0xfffff04e
     864:	05141302 	ldreq	r1, [r4, #-770]	; 0xfffffcfe
     868:	09050108 	stmdbeq	r5, {r3, r8}
     86c:	011b0306 	tsteq	fp, r6, lsl #6
     870:	63030605 	movwvs	r0, #13829	; 0x3605
     874:	2e3c032e 	cdpcs	3, 3, cr0, cr12, cr14, {1}
     878:	48052e2e 	stmdami	r5, {r1, r2, r3, r5, r9, sl, fp, sp}
     87c:	7fb40306 	svcvc	0x00b40306
     880:	05053c08 	streq	r3, [r5, #-3080]	; 0xfffff3f8
     884:	2e060113 	mcrcs	1, 0, r0, cr6, cr3, {0}
     888:	02040200 	andeq	r0, r4, #0, 4
     88c:	02002e06 	andeq	r2, r0, #96	; 0x60
     890:	00010204 	andeq	r0, r1, r4, lsl #4
     894:	13020402 	movwne	r0, #9218	; 0x2402
     898:	02001105 	andeq	r1, r0, #1073741825	; 0x40000001
     89c:	01060204 	tsteq	r6, r4, lsl #4
     8a0:	02000705 	andeq	r0, r0, #1310720	; 0x140000
     8a4:	052f0204 	streq	r0, [pc, #-516]!	; 6a8 <__code_start__-0x7958>
     8a8:	04020011 	streq	r0, [r2], #-17	; 0xffffffef
     8ac:	05052d02 	streq	r2, [r5, #-3330]	; 0xfffff2fe
     8b0:	02040200 	andeq	r0, r4, #0, 4
     8b4:	09052f06 	stmdbeq	r5, {r1, r2, r8, r9, sl, fp, sp}
     8b8:	02040200 	andeq	r0, r4, #0, 4
     8bc:	000e0513 	andeq	r0, lr, r3, lsl r5
     8c0:	06020402 	streq	r0, [r2], -r2, lsl #8
     8c4:	00050501 	andeq	r0, r5, r1, lsl #10
     8c8:	06010402 	streq	r0, [r1], -r2, lsl #8
     8cc:	04020063 	streq	r0, [r2], #-99	; 0xffffff9d
     8d0:	48050101 	stmdami	r5, {r0, r8}
     8d4:	01040200 	mrseq	r0, R12_usr
     8d8:	05051106 	streq	r1, [r5, #-262]	; 0xfffffefa
     8dc:	01040200 	mrseq	r0, R12_usr
     8e0:	0048052f 	subeq	r0, r8, pc, lsr #10
     8e4:	2d010402 	cfstrscs	mvf0, [r1, #-8]
     8e8:	02000505 	andeq	r0, r0, #20971520	; 0x1400000
     8ec:	002f0104 	eoreq	r0, pc, r4, lsl #2
     8f0:	4a010402 	bmi	41900 <__bss_end__+0x37920>
     8f4:	01040200 	mrseq	r0, R12_usr
     8f8:	0402004a 	streq	r0, [r2], #-74	; 0xffffffb6
     8fc:	054a0601 	strbeq	r0, [sl, #-1537]	; 0xfffff9ff
     900:	00e10340 	rsceq	r0, r1, r0, asr #6
     904:	050106d6 	streq	r0, [r1, #-1750]	; 0xfffff92a
     908:	052e4e09 	streq	r4, [lr, #-3593]!	; 0xfffff1f7
     90c:	1e053008 	cdpne	0, 0, cr3, cr5, cr8, {0}
     910:	2e120529 	cfmul64cs	mvdx0, mvdx2, mvdx9
     914:	05330d05 	ldreq	r0, [r3, #-3333]!	; 0xfffff2fb
     918:	05450602 	strbeq	r0, [r5, #-1538]	; 0xfffff9fe
     91c:	02051305 	andeq	r1, r5, #335544320	; 0x14000000
     920:	13050514 	movwne	r0, #21780	; 0x5514
     924:	05130205 	ldreq	r0, [r3, #-517]	; 0xfffffdfb
     928:	40050108 	andmi	r0, r5, r8, lsl #2
     92c:	017a0306 	cmneq	sl, r6, lsl #6
     930:	340d052e 	strcc	r0, [sp], #-1326	; 0xfffffad2
     934:	03110566 	tsteq	r1, #427819008	; 0x19800000
     938:	054a4a20 	strbeq	r4, [sl, #-2592]	; 0xfffff5e0
     93c:	62030604 	andvs	r0, r3, #4, 12	; 0x400000
     940:	06090501 	streq	r0, [r9], -r1, lsl #10
     944:	2e0f0501 	cfsh32cs	mvfx0, mvfx15, #1
     948:	2c060805 	stccs	8, cr0, [r6], {5}
     94c:	2e060d05 	cdpcs	13, 0, cr0, cr6, cr5, {0}
     950:	67060305 	strvs	r0, [r6, -r5, lsl #6]
     954:	01060505 	tsteq	r6, r5, lsl #10
     958:	4d060805 	stcmi	8, cr0, [r6, #-20]	; 0xffffffec
     95c:	01060e05 	tsteq	r6, r5, lsl #28
     960:	052e0a05 	streq	r0, [lr, #-2565]!	; 0xfffff5fb
     964:	04052f09 	streq	r2, [r5], #-3849	; 0xfffff0f7
     968:	07052f06 	streq	r2, [r5, -r6, lsl #30]
     96c:	0a050106 	beq	140d8c <__bss_end__+0x136dac>
     970:	0604052c 	streq	r0, [r4], -ip, lsr #10
     974:	062d0532 			; <UNDEFINED> instruction: 0x062d0532
     978:	017f9803 	cmneq	pc, r3, lsl #16
     97c:	ed030905 	vstr.16	s0, [r3, #-10]
     980:	0d052e00 	stceq	14, cr2, [r5, #-0]
     984:	2b07052c 	blcs	1c1e3c <__bss_end__+0x1b7e5c>
     988:	30060405 	andcc	r0, r6, r5, lsl #8
     98c:	09051413 	stmdbeq	r5, {r0, r1, r4, sl, ip}
     990:	030c0501 	movweq	r0, #50433	; 0xc501
     994:	05017f93 	streq	r7, [r1, #-3987]	; 0xfffff06d
     998:	0106011d 	tsteq	r6, sp, lsl r1
     99c:	ed030905 	vstr.16	s0, [r3, #-10]
     9a0:	05050100 	streq	r0, [r5, #-256]	; 0xffffff00
     9a4:	12052f06 	andne	r2, r5, #6, 30
     9a8:	2d2e0106 	stfcss	f0, [lr, #-24]!	; 0xffffffe8
     9ac:	052f0b05 	streq	r0, [pc, #-2821]!	; fffffeaf <__bss_end__+0xffff5ecf>
     9b0:	052f0605 	streq	r0, [pc, #-1541]!	; 3b3 <__code_start__-0x7c4d>
     9b4:	0c051009 	stceq	0, cr1, [r5], {9}
     9b8:	017f9303 	cmneq	pc, r3, lsl #6
     9bc:	05011d05 	streq	r1, [r1, #-3333]	; 0xfffff2fb
     9c0:	0501062d 	streq	r0, [r1, #-1581]	; 0xfffff9d3
     9c4:	00ed0309 	rsceq	r0, sp, r9, lsl #6
     9c8:	0604052e 	streq	r0, [r4], -lr, lsr #10
     9cc:	0200014e 	andeq	r0, r0, #-2147483629	; 0x80000013
     9d0:	004a0204 	subeq	r0, sl, r4, lsl #4
     9d4:	01020402 	tsteq	r2, r2, lsl #8
     9d8:	02040200 	andeq	r0, r4, #0, 4
     9dc:	04020015 	streq	r0, [r2], #-21	; 0xffffffeb
     9e0:	36020602 	strcc	r0, [r2], -r2, lsl #12
     9e4:	04020012 	streq	r0, [r2], #-18	; 0xffffffee
     9e8:	02052e02 	andeq	r2, r5, #2, 28
     9ec:	00d10306 	sbcseq	r0, r1, r6, lsl #6
     9f0:	06070501 	streq	r0, [r7], -r1, lsl #10
     9f4:	02052e01 	andeq	r2, r5, #1, 28
     9f8:	0b052f06 	bleq	14c618 <__bss_end__+0x142638>
     9fc:	01050106 	tsteq	r5, r6, lsl #2
     a00:	0605052f 	streq	r0, [r5], -pc, lsr #10
     a04:	054a6503 	strbeq	r6, [sl, #-1283]	; 0xfffffafd
     a08:	66010609 	strvs	r0, [r1], -r9, lsl #12
     a0c:	9f060505 	svcls	0x00060505
     a10:	11030405 	tstne	r3, r5, lsl #8
     a14:	06070501 	streq	r0, [r7], -r1, lsl #10
     a18:	06040501 	streq	r0, [r4], -r1, lsl #10
     a1c:	010a0531 	tsteq	sl, r1, lsr r5
     a20:	02001305 	andeq	r1, r0, #335544320	; 0x14000000
     a24:	2e060104 	adfcss	f0, f6, f4
     a28:	02001005 	andeq	r1, r0, #5, 0
     a2c:	052e0104 	streq	r0, [lr, #-260]!	; 0xfffffefc
     a30:	054b0605 	strbeq	r0, [fp, #-1541]	; 0xfffff9fb
     a34:	0601060a 	streq	r0, [r1], -sl, lsl #12
     a38:	0604052d 	streq	r0, [r4], -sp, lsr #10
     a3c:	06110501 	ldreq	r0, [r1], -r1, lsl #10
     a40:	667fb603 	ldrbtvs	fp, [pc], -r3, lsl #12
     a44:	02000113 	andeq	r0, r0, #-1073741820	; 0xc0000004
     a48:	ba060204 	blt	181260 <__bss_end__+0x177280>
     a4c:	1401ba06 	strne	fp, [r1], #-2566	; 0xfffff5fa
     a50:	13061a05 	movwne	r1, #27141	; 0x6a05
     a54:	11052e2e 	tstne	r5, lr, lsr #28
     a58:	1405674e 	strne	r6, [r5], #-1870	; 0xfffff8b2
     a5c:	82130568 	andshi	r0, r3, #104, 10	; 0x1a000000
     a60:	78031505 	stmdavc	r3, {r0, r2, r8, sl, ip}
     a64:	0611054a 	ldreq	r0, [r1], -sl, asr #10
     a68:	1413134b 	ldrne	r1, [r3], #-843	; 0xfffffcb5
     a6c:	13051413 	movwne	r1, #21523	; 0x5413
     a70:	09050106 	stmdbeq	r5, {r1, r2, r8}
     a74:	0d052f06 	stceq	15, cr2, [r5, #-24]	; 0xffffffe8
     a78:	2e2e0106 	sufcse	f0, f6, f6
     a7c:	05bb0905 	ldreq	r0, [fp, #2309]!	; 0x905
     a80:	09059d0d 	stmdbeq	r5, {r0, r2, r3, r8, sl, fp, ip, pc}
     a84:	15052f06 	strne	r2, [r5, #-3846]	; 0xfffff0fa
     a88:	7503062f 	strvc	r0, [r3, #-1583]	; 0xfffff9d1
     a8c:	2e0b034a 	cdpcs	3, 0, cr0, cr11, cr10, {2}
     a90:	0605054a 	streq	r0, [r5], -sl, asr #10
     a94:	05012303 	streq	r2, [r1, #-771]	; 0xfffffcfd
     a98:	2e010609 	cfmadd32cs	mvax0, mvfx0, mvfx1, mvfx9
     a9c:	d7060505 	strle	r0, [r6, -r5, lsl #10]
     aa0:	032e6e03 			; <UNDEFINED> instruction: 0x032e6e03
     aa4:	0905010e 	stmdbeq	r5, {r1, r2, r3, r8}
     aa8:	05050106 	streq	r0, [r5, #-262]	; 0xfffffefa
     aac:	4a100306 	bmi	4016cc <__bss_end__+0x3f76ec>
     ab0:	ed030105 	stfs	f0, [r3, #-20]	; 0xffffffec
     ab4:	0205017e 	andeq	r0, r5, #-2147483617	; 0x8000001f
     ab8:	14131514 	ldrne	r1, [r3], #-1300	; 0xfffffaec
     abc:	1a030405 	bne	c1ad8 <__bss_end__+0xb7af8>
     ac0:	06090501 	streq	r0, [r9], -r1, lsl #10
     ac4:	03020501 	movweq	r0, #9473	; 0x2501
     ac8:	09052e46 	stmdbeq	r5, {r1, r2, r6, r9, sl, fp, sp}
     acc:	052e3a03 	streq	r3, [lr, #-2563]!	; 0xfffff5fd
     ad0:	032f0604 			; <UNDEFINED> instruction: 0x032f0604
     ad4:	0501010d 	streq	r0, [r1, #-269]	; 0xfffffef3
     ad8:	0e051502 	cfsh32eq	mvfx1, mvfx5, #2
     adc:	017fb203 	cmneq	pc, r3, lsl #4
     ae0:	14130205 	ldrne	r0, [r3], #-517	; 0xfffffdfb
     ae4:	05010805 	streq	r0, [r1, #-2053]	; 0xfffff7fb
     ae8:	05010602 	streq	r0, [r1, #-1538]	; 0xfffff9fe
     aec:	03059f08 	movweq	r9, #24328	; 0x5f08
     af0:	01064a06 	tsteq	r6, r6, lsl #20
     af4:	052e0805 	streq	r0, [lr, #-2053]!	; 0xfffff7fb
     af8:	052d0615 	streq	r0, [sp, #-1557]!	; 0xfffff9eb
     afc:	03050108 	movweq	r0, #20744	; 0x5108
     b00:	0501062f 	streq	r0, [r1, #-1583]	; 0xfffff9d1
     b04:	15052e08 	strne	r2, [r5, #-3592]	; 0xfffff1f8
     b08:	08052d06 	stmdaeq	r5, {r1, r2, r8, sl, fp, sp}
     b0c:	2f030501 	svccs	0x00030501
     b10:	08050106 	stmdaeq	r5, {r1, r2, r8}
     b14:	0615052e 	ldreq	r0, [r5], -lr, lsr #10
     b18:	0108052d 	tsteq	r8, sp, lsr #10
     b1c:	062f0305 	strteq	r0, [pc], -r5, lsl #6
     b20:	2e080501 	cfsh32cs	mvfx0, mvfx8, #1
     b24:	2d061505 	cfstr32cs	mvfx1, [r6, #-20]	; 0xffffffec
     b28:	05010805 	streq	r0, [r1, #-2053]	; 0xfffff7fb
     b2c:	01062f03 	tsteq	r6, r3, lsl #30
     b30:	052e0805 	streq	r0, [lr, #-2053]!	; 0xfffff7fb
     b34:	052d0615 	streq	r0, [sp, #-1557]!	; 0xfffff9eb
     b38:	03050108 	movweq	r0, #20744	; 0x5108
     b3c:	0501062f 	streq	r0, [r1, #-1583]	; 0xfffff9d1
     b40:	15052e08 	strne	r2, [r5, #-3592]	; 0xfffff1f8
     b44:	08052d06 	stmdaeq	r5, {r1, r2, r8, sl, fp, sp}
     b48:	13030501 	movwne	r0, #13569	; 0x3501
     b4c:	01060805 	tsteq	r6, r5, lsl #16
     b50:	2d061505 	cfstr32cs	mvfx1, [r6, #-20]	; 0xffffffec
     b54:	06010805 	streq	r0, [r1], -r5, lsl #16
     b58:	06030566 	streq	r0, [r3], -r6, ror #10
     b5c:	06080567 	streq	r0, [r8], -r7, ror #10
     b60:	2d180501 	cfldr32cs	mvfx0, [r8, #-4]
     b64:	052e0205 	streq	r0, [lr, #-517]!	; 0xfffffdfb
     b68:	15052f08 	strne	r2, [r5, #-3848]	; 0xfffff0f8
     b6c:	08052d06 	stmdaeq	r5, {r1, r2, r8, sl, fp, sp}
     b70:	06020501 	streq	r0, [r2], -r1, lsl #10
     b74:	06030501 	streq	r0, [r3], -r1, lsl #10
     b78:	0618052f 	ldreq	r0, [r8], -pc, lsr #10
     b7c:	2e020511 	mcrcs	5, 0, r0, cr2, cr1, {0}
     b80:	052f0805 	streq	r0, [pc, #-2053]!	; 383 <__code_start__-0x7c7d>
     b84:	052d0615 	streq	r0, [sp, #-1557]!	; 0xfffff9eb
     b88:	03050108 	movweq	r0, #20744	; 0x5108
     b8c:	06080513 			; <UNDEFINED> instruction: 0x06080513
     b90:	06150501 	ldreq	r0, [r5], -r1, lsl #10
     b94:	0108052d 	tsteq	r8, sp, lsr #10
     b98:	14060505 	strne	r0, [r6], #-1285	; 0xfffffafb
     b9c:	0602054a 	streq	r0, [r2], -sl, asr #10
     ba0:	060e052e 	streq	r0, [lr], -lr, lsr #10
     ba4:	2f040519 	svccs	0x00040519
     ba8:	052f1105 	streq	r1, [pc, #-261]!	; aab <__code_start__-0x7555>
     bac:	02054a09 	andeq	r4, r5, #36864	; 0x9000
     bb0:	03050533 	movweq	r0, #21811	; 0x5533
     bb4:	02052e72 	andeq	r2, r5, #1824	; 0x720
     bb8:	01062f06 	tsteq	r6, r6, lsl #30
     bbc:	16060e05 	strne	r0, [r6], -r5, lsl #28
     bc0:	13140205 	tstne	r4, #1342177280	; 0x50000000
     bc4:	05130305 	ldreq	r0, [r3, #-773]	; 0xfffffcfb
     bc8:	05151402 	ldreq	r1, [r5, #-1026]	; 0xfffffbfe
     bcc:	0205010b 	andeq	r0, r5, #-1073741822	; 0xc0000002
     bd0:	662e0106 	strtvs	r0, [lr], -r6, lsl #2
     bd4:	2f060305 	svccs	0x00060305
     bd8:	01060a05 	tsteq	r6, r5, lsl #20
     bdc:	052d0205 	streq	r0, [sp, #-517]!	; 0xfffffdfb
     be0:	17052f0a 	strne	r2, [r5, -sl, lsl #30]
     be4:	0b052d06 	bleq	14c004 <__bss_end__+0x142024>
     be8:	06020501 	streq	r0, [r2], -r1, lsl #10
     bec:	054a4a01 	strbeq	r4, [sl, #-2561]	; 0xfffff5ff
     bf0:	95030605 	strls	r0, [r3, #-1541]	; 0xfffff9fb
     bf4:	11050101 	tstne	r5, r1, lsl #2
     bf8:	7ef80306 	cdpvc	3, 15, cr0, cr8, cr6, {0}
     bfc:	031b0501 	tsteq	fp, #4194304	; 0x400000
     c00:	054a0188 	strbeq	r0, [sl, #-392]	; 0xfffffe78
     c04:	f3030601 	vmax.u8	d0, d3, d1
     c08:	02052e7e 	andeq	r2, r5, #2016	; 0x7e0
     c0c:	14131514 	ldrne	r1, [r3], #-1300	; 0xfffffaec
     c10:	22031905 	andcs	r1, r3, #81920	; 0x14000
     c14:	131a0501 	tstne	sl, #4194304	; 0x400000
     c18:	01062805 	tsteq	r6, r5, lsl #16
     c1c:	052e1f05 	streq	r1, [lr, #-3845]!	; 0xfffff0fb
     c20:	0e052f04 	cdpeq	15, 0, cr2, cr5, cr4, {0}
     c24:	2d1f054a 	cfldr32cs	mvfx0, [pc, #-296]	; b04 <__code_start__-0x74fc>
     c28:	2f060b05 	svccs	0x00060b05
     c2c:	01060405 	tsteq	r6, r5, lsl #8
     c30:	05013206 	streq	r3, [r1, #-518]	; 0xfffffdfa
     c34:	0e051502 	cfsh32eq	mvfx1, mvfx5, #2
     c38:	017fb203 	cmneq	pc, r3, lsl #4
     c3c:	05130205 	ldreq	r0, [r3, #-517]	; 0xfffffdfb
     c40:	05010606 	streq	r0, [r1, #-1542]	; 0xfffff9fa
     c44:	05300602 	ldreq	r0, [r0, #-1538]!	; 0xfffff9fe
     c48:	02050108 	andeq	r0, r5, #2
     c4c:	03050106 	movweq	r0, #20742	; 0x5106
     c50:	05210806 	streq	r0, [r1, #-2054]!	; 0xfffff7fa
     c54:	05010608 	streq	r0, [r1, #-1544]	; 0xfffff9f8
     c58:	05490615 	strbeq	r0, [r9, #-1557]	; 0xfffff9eb
     c5c:	03050108 	movweq	r0, #20744	; 0x5108
     c60:	060805d7 			; <UNDEFINED> instruction: 0x060805d7
     c64:	2d180501 	cfldr32cs	mvfx0, [r8, #-4]
     c68:	052e0205 	streq	r0, [lr, #-517]!	; 0xfffffdfb
     c6c:	15052f08 	strne	r2, [r5, #-3848]	; 0xfffff0f8
     c70:	08052d06 	stmdaeq	r5, {r1, r2, r8, sl, fp, sp}
     c74:	06020501 	streq	r0, [r2], -r1, lsl #10
     c78:	06030501 	streq	r0, [r3], -r1, lsl #10
     c7c:	0618052f 	ldreq	r0, [r8], -pc, lsr #10
     c80:	2e020511 	mcrcs	5, 0, r0, cr2, cr1, {0}
     c84:	052f0805 	streq	r0, [pc, #-2053]!	; 487 <__code_start__-0x7b79>
     c88:	052d0615 	streq	r0, [sp, #-1557]!	; 0xfffff9eb
     c8c:	03050108 	movweq	r0, #20744	; 0x5108
     c90:	06080513 			; <UNDEFINED> instruction: 0x06080513
     c94:	06150501 	ldreq	r0, [r5], -r1, lsl #10
     c98:	0108052d 	tsteq	r8, sp, lsr #10
     c9c:	14060505 	strne	r0, [r6], #-1285	; 0xfffffafb
     ca0:	66060205 	strvs	r0, [r6], -r5, lsl #4
     ca4:	1a060405 	bne	181cc0 <__bss_end__+0x177ce0>
     ca8:	78030505 	stmdavc	r3, {r0, r2, r8, sl}
     cac:	0602054a 	streq	r0, [r2], -sl, asr #10
     cb0:	0501062f 	streq	r0, [r1, #-1583]	; 0xfffff9d1
     cb4:	0516060e 	ldreq	r0, [r6, #-1550]	; 0xfffff9f2
     cb8:	05131402 	ldreq	r1, [r3, #-1026]	; 0xfffffbfe
     cbc:	05010604 	streq	r0, [r1, #-1540]	; 0xfffff9fc
     cc0:	052f0603 	streq	r0, [pc, #-1539]!	; 6c5 <__code_start__-0x793b>
     cc4:	05010611 	streq	r0, [r1, #-1553]	; 0xfffff9ef
     cc8:	02052e09 	andeq	r2, r5, #144	; 0x90
     ccc:	05153006 	ldreq	r3, [r5, #-6]
     cd0:	0205010b 	andeq	r0, r5, #-1073741822	; 0xc0000002
     cd4:	4a4a0106 	bmi	12810f4 <__bss_end__+0x1277114>
     cd8:	0603052e 	streq	r0, [r3], -lr, lsr #10
     cdc:	060a052f 	streq	r0, [sl], -pc, lsr #10
     ce0:	2d020501 	cfstr32cs	mvfx0, [r2, #-4]
     ce4:	052f0a05 	streq	r0, [pc, #-2565]!	; 2e7 <__code_start__-0x7d19>
     ce8:	052d0617 	streq	r0, [sp, #-1559]!	; 0xfffff9e9
     cec:	0205010b 	andeq	r0, r5, #-1073741822	; 0xc0000002
     cf0:	2e4a0106 	dvfcse	f0, f2, f6
     cf4:	09051406 	stmdbeq	r5, {r1, r2, sl, ip}
     cf8:	02050106 	andeq	r0, r5, #-2147483647	; 0x80000001
     cfc:	01064c06 	tsteq	r6, r6, lsl #24
     d00:	03060505 	movweq	r0, #25861	; 0x6505
     d04:	2a010198 	bcs	4136c <__bss_end__+0x3738c>
     d08:	01060705 	tsteq	r6, r5, lsl #14
     d0c:	2f060505 	svccs	0x00060505
     d10:	53031805 	movwpl	r1, #14341	; 0x3805
     d14:	061b052e 	ldreq	r0, [fp], -lr, lsr #10
     d18:	821a0501 	andshi	r0, sl, #4194304	; 0x400000
     d1c:	4b060905 	blmi	183138 <__bss_end__+0x179158>
     d20:	01060d05 	tsteq	r6, r5, lsl #26
     d24:	d709052e 	strle	r0, [r9, -lr, lsr #10]
     d28:	059d0d05 	ldreq	r0, [sp, #3333]	; 0xd05
     d2c:	052f0609 	streq	r0, [pc, #-1545]!	; 72b <__code_start__-0x78d5>
     d30:	18053015 	stmdane	r5, {r0, r2, r4, ip, sp}
     d34:	17050106 	strne	r0, [r5, -r6, lsl #2]
     d38:	2f190566 	svccs	0x00190566
     d3c:	05491705 	strbeq	r1, [r9, #-1797]	; 0xfffff8fb
     d40:	052f0619 	streq	r0, [pc, #-1561]!	; 72f <__code_start__-0x78d1>
     d44:	6f030615 	svcvs	0x00030615
     d48:	0619052e 	ldreq	r0, [r9], -lr, lsr #10
     d4c:	054a1303 	strbeq	r1, [sl, #-771]	; 0xfffffcfd
     d50:	6d030615 	stcvs	6, cr0, [r3, #-84]	; 0xffffffac
     d54:	02054a2e 	andeq	r4, r5, #188416	; 0x2e000
     d58:	017fa003 	cmneq	pc, r3
     d5c:	72030666 	andvc	r0, r3, #106954752	; 0x6600000
     d60:	06050501 	streq	r0, [r5], -r1, lsl #10
     d64:	36040501 	strcc	r0, [r4], -r1, lsl #10
     d68:	78030505 	stmdavc	r3, {r0, r2, r8, sl}
     d6c:	0602052e 	streq	r0, [r2], -lr, lsr #10
     d70:	0501062f 	streq	r0, [r1, #-1583]	; 0xfffff9d1
     d74:	0516060e 	ldreq	r0, [r6, #-1550]	; 0xfffff9f2
     d78:	05131402 	ldreq	r1, [r3, #-1026]	; 0xfffffbfe
     d7c:	4a010604 	bmi	42594 <__bss_end__+0x385b4>
     d80:	03060205 	movweq	r0, #25093	; 0x6205
     d84:	05050178 	streq	r0, [r5, #-376]	; 0xfffffe88
     d88:	054a0106 	strbeq	r0, [sl, #-262]	; 0xfffffefa
     d8c:	064b0602 	strbeq	r0, [fp], -r2, lsl #12
     d90:	060e0501 	streq	r0, [lr], -r1, lsl #10
     d94:	14020516 	strne	r0, [r2], #-1302	; 0xfffffaea
     d98:	05151513 	ldreq	r1, [r5, #-1299]	; 0xfffffaed
     d9c:	2e06010b 	adfcss	f0, f6, #3.0
     da0:	03061105 	movweq	r1, #24837	; 0x6105
     da4:	0501019e 	streq	r0, [r1, #-414]	; 0xfffffe62
     da8:	05010622 	streq	r0, [r1, #-1570]	; 0xfffff9de
     dac:	22052f05 	andcs	r2, r5, #5, 30
     db0:	0605052d 	streq	r0, [r5], -sp, lsr #10
     db4:	4b11052f 	blmi	442278 <__bss_end__+0x438298>
     db8:	01830505 	orreq	r0, r3, r5, lsl #10
     dbc:	2e5c039e 	mrccs	3, 2, r0, cr12, cr14, {4}
     dc0:	02059e01 	andeq	r9, r5, #1, 28
     dc4:	7ef30306 	cdpvc	3, 15, cr0, cr3, cr6, {0}
     dc8:	06052e2e 	streq	r2, [r5], -lr, lsr #28
     dcc:	0d054a2c 	vstreq	s8, [r5, #-176]	; 0xffffff50
     dd0:	0100d803 	tsteq	r0, r3, lsl #16
     dd4:	02000405 	andeq	r0, r0, #83886080	; 0x5000000
     dd8:	03060104 	movweq	r0, #24836	; 0x6104
     ddc:	02004a11 	andeq	r4, r0, #69632	; 0x11000
     de0:	05010104 	streq	r0, [r1, #-260]	; 0xfffffefc
     de4:	06510611 			; <UNDEFINED> instruction: 0x06510611
     de8:	0315059e 	tsteq	r5, #662700032	; 0x27800000
     dec:	ba012e17 	blt	4c650 <__bss_end__+0x42670>
     df0:	69031105 	stmdbvs	r3, {r0, r2, r8, ip}
     df4:	2802012e 	stmdacs	r2, {r1, r2, r3, r5, r8}
     df8:	87010100 	strhi	r0, [r1, -r0, lsl #2]
     dfc:	03000000 	movweq	r0, #0
     e00:	00006400 	andeq	r6, r0, r0, lsl #8
     e04:	fb010200 	blx	4160e <__bss_end__+0x3762e>
     e08:	01000d0e 	tsteq	r0, lr, lsl #26
     e0c:	00010101 	andeq	r0, r1, r1, lsl #2
     e10:	00010000 	andeq	r0, r1, r0
     e14:	2f2e0100 	svccs	0x002e0100
     e18:	66617473 			; <UNDEFINED> instruction: 0x66617473
     e1c:	72732d66 	rsbsvc	r2, r3, #6528	; 0x1980
     e20:	552f0063 	strpl	r0, [pc, #-99]!	; dc5 <__code_start__-0x723b>
     e24:	73726573 	cmnvc	r2, #482344960	; 0x1cc00000
     e28:	6c696d2f 	stclvs	13, cr6, [r9], #-188	; 0xffffff44
     e2c:	532f7365 			; <UNDEFINED> instruction: 0x532f7365
     e30:	6372756f 	cmnvs	r2, #465567744	; 0x1bc00000
     e34:	73632f65 	cmnvc	r3, #404	; 0x194
     e38:	6c303432 	cfldrsvs	mvf3, [r0], #-200	; 0xffffff38
     e3c:	696c2f78 	stmdbvs	ip!, {r3, r4, r5, r6, r8, r9, sl, fp, sp}^
     e40:	2f697062 	svccs	0x00697062
     e44:	6c636e69 	stclvs	14, cr6, [r3], #-420	; 0xfffffe5c
     e48:	00656475 	rsbeq	r6, r5, r5, ror r4
     e4c:	656c6300 	strbvs	r6, [ip, #-768]!	; 0xfffffd00
     e50:	722d6e61 	eorvc	r6, sp, #1552	; 0x610
     e54:	6f6f6265 	svcvs	0x006f6265
     e58:	00632e74 	rsbeq	r2, r3, r4, ror lr
     e5c:	72000001 	andvc	r0, r0, #1, 0
     e60:	682e6970 	stmdavs	lr!, {r4, r5, r6, r8, fp, sp, lr}
     e64:	00000200 	andeq	r0, r0, r0, lsl #4
     e68:	00190500 	andseq	r0, r9, r0, lsl #10
     e6c:	8c700205 	lfmhi	f0, 2, [r0], #-20	; 0xffffffec
     e70:	05150000 	ldreq	r0, [r5, #-0]
     e74:	19051305 	stmdbne	r5, {r0, r2, r8, r9, ip}
     e78:	05052d06 	streq	r2, [r5, #-3334]	; 0xfffff2fa
     e7c:	2f67062f 	svccs	0x0067062f
     e80:	0006024b 	andeq	r0, r6, fp, asr #4
     e84:	01120101 	tsteq	r2, r1, lsl #2
     e88:	00030000 	andeq	r0, r3, r0
     e8c:	0000005e 	andeq	r0, r0, lr, asr r0
     e90:	0efb0102 	cdpeq	1, 15, cr0, cr11, cr2, {0}
     e94:	0101000d 	tsteq	r1, sp
     e98:	00000101 	andeq	r0, r0, r1, lsl #2
     e9c:	00000100 	andeq	r0, r0, r0, lsl #2
     ea0:	732f2e01 			; <UNDEFINED> instruction: 0x732f2e01
     ea4:	66666174 			; <UNDEFINED> instruction: 0x66666174
     ea8:	6372732d 	cmnvs	r2, #-1275068416	; 0xb4000000
     eac:	73552f00 	cmpvc	r5, #0, 30
     eb0:	2f737265 	svccs	0x00737265
     eb4:	656c696d 	strbvs	r6, [ip, #-2413]!	; 0xfffff693
     eb8:	6f532f73 	svcvs	0x00532f73
     ebc:	65637275 	strbvs	r7, [r3, #-629]!	; 0xfffffd8b
     ec0:	3273632f 	rsbscc	r6, r3, #-1140850688	; 0xbc000000
     ec4:	786c3034 	stmdavc	ip!, {r2, r4, r5, ip, sp}^
     ec8:	62696c2f 	rsbvs	r6, r9, #12032	; 0x2f00
     ecc:	692f6970 	stmdbvs	pc!, {r4, r5, r6, r8, fp, sp, lr}	; <UNPREDICTABLE>
     ed0:	756c636e 	strbvc	r6, [ip, #-878]!	; 0xfffffc92
     ed4:	00006564 	andeq	r6, r0, r4, ror #10
     ed8:	61747363 	cmnvs	r4, r3, ror #6
     edc:	632e7472 			; <UNDEFINED> instruction: 0x632e7472
     ee0:	00000100 	andeq	r0, r0, r0, lsl #2
     ee4:	2e697072 	mcrcs	0, 3, r7, cr9, cr2, {3}
     ee8:	00020068 	andeq	r0, r2, r8, rrx
     eec:	10050000 	andne	r0, r5, r0
     ef0:	9c020500 	cfstr32ls	mvfx0, [r2], {-0}
     ef4:	1500008c 	strne	r0, [r0, #-140]	; 0xffffff74
     ef8:	05130505 	ldreq	r0, [r3, #-1285]	; 0xfffffafb
     efc:	05051302 	streq	r1, [r5, #-770]	; 0xfffffcfe
     f00:	06100514 			; <UNDEFINED> instruction: 0x06100514
     f04:	3205050e 	andcc	r0, r5, #58720256	; 0x3800000
     f08:	14133006 	ldrne	r3, [r3], #-6
     f0c:	05010a05 	streq	r0, [r1, #-2565]	; 0xfffff5fb
     f10:	05910809 	ldreq	r0, [r1, #2057]	; 0x809
     f14:	05010610 	streq	r0, [r1, #-1552]	; 0xfffff9f0
     f18:	10059a0a 	andne	r9, r5, sl, lsl #20
     f1c:	060a056a 	streq	r0, [sl], -sl, ror #10
     f20:	2f09052d 	svccs	0x0009052d
     f24:	01061005 	tsteq	r6, r5
     f28:	2d060a05 	vstrcs	s0, [r6, #-20]	; 0xffffffec
     f2c:	05bb0905 	ldreq	r0, [fp, #2309]!	; 0x905
     f30:	05010610 	streq	r0, [r1, #-1552]	; 0xfffff9f0
     f34:	0565060a 	strbeq	r0, [r5, #-1546]!	; 0xfffff9f6
     f38:	0d054b09 	vstreq	d4, [r5, #-36]	; 0xffffffdc
     f3c:	0a050106 	beq	14135c <__bss_end__+0x13737c>
     f40:	2f10052d 	svccs	0x0010052d
     f44:	2d060a05 	vstrcs	s0, [r6, #-20]	; 0xffffffec
     f48:	052f0905 	streq	r0, [pc, #-2309]!	; 64b <__code_start__-0x79b5>
     f4c:	0501060d 	streq	r0, [r1, #-1549]	; 0xfffff9f3
     f50:	10052d0a 	andne	r2, r5, sl, lsl #26
     f54:	060a052f 	streq	r0, [sl], -pc, lsr #10
     f58:	2f09052d 	svccs	0x0009052d
     f5c:	01060d05 	tsteq	r6, r5, lsl #26
     f60:	052d0a05 	streq	r0, [sp, #-2565]!	; 0xfffff5fb
     f64:	0a052f10 	beq	14cbac <__bss_end__+0x142bcc>
     f68:	09052d06 	stmdbeq	r5, {r1, r2, r8, sl, fp, sp}
     f6c:	060d052f 	streq	r0, [sp], -pc, lsr #10
     f70:	2d0a0501 	cfstr32cs	mvfx0, [sl, #-4]
     f74:	052f1005 	streq	r1, [pc, #-5]!	; f77 <__code_start__-0x7089>
     f78:	052d060a 	streq	r0, [sp, #-1546]!	; 0xfffff9f6
     f7c:	10051309 	andne	r1, r5, r9, lsl #6
     f80:	0a050106 	beq	1413a0 <__bss_end__+0x1373c0>
     f84:	05052d06 	streq	r2, [r5, #-3334]	; 0xfffff2fa
     f88:	01013215 	tsteq	r1, r5, lsl r2
     f8c:	0205144a 	andeq	r1, r5, #1241513984	; 0x4a000000
     f90:	060a052f 	streq	r0, [sl], -pc, lsr #10
     f94:	022e7303 	eoreq	r7, lr, #201326592	; 0xc000000
     f98:	01010008 	tsteq	r1, r8
     f9c:	0000007d 	andeq	r0, r0, sp, ror r0
     fa0:	00650003 	rsbeq	r0, r5, r3
     fa4:	01020000 	mrseq	r0, (UNDEF: 2)
     fa8:	000d0efb 	strdeq	r0, [sp], -fp
     fac:	01010101 	tsteq	r1, r1, lsl #2
     fb0:	01000000 	mrseq	r0, (UNDEF: 0)
     fb4:	2e010000 	cdpcs	0, 0, cr0, cr1, cr0, {0}
     fb8:	6174732f 	cmnvs	r4, pc, lsr #6
     fbc:	732d6666 			; <UNDEFINED> instruction: 0x732d6666
     fc0:	2f006372 	svccs	0x00006372
     fc4:	72657355 	rsbvc	r7, r5, #1409286145	; 0x54000001
     fc8:	696d2f73 	stmdbvs	sp!, {r0, r1, r4, r5, r6, r8, r9, sl, fp, sp}^
     fcc:	2f73656c 	svccs	0x0073656c
     fd0:	72756f53 	rsbsvc	r6, r5, #332	; 0x14c
     fd4:	632f6563 			; <UNDEFINED> instruction: 0x632f6563
     fd8:	30343273 	eorscc	r3, r4, r3, ror r2
     fdc:	6c2f786c 	stcvs	8, cr7, [pc], #-432	; e34 <__code_start__-0x71cc>
     fe0:	69706269 	ldmdbvs	r0!, {r0, r3, r5, r6, r9, sp, lr}^
     fe4:	636e692f 	cmnvs	lr, #770048	; 0xbc000
     fe8:	6564756c 	strbvs	r7, [r4, #-1388]!	; 0xfffffa94
     fec:	75630000 	strbvc	r0, [r3, #-0]!
     ff0:	6d6f7473 	cfstrdvs	mvd7, [pc, #-460]!	; e2c <__code_start__-0x71d4>
     ff4:	616f6c2d 	cmnvs	pc, sp, lsr #24
     ff8:	2e726564 	cdpcs	5, 7, cr6, cr2, cr4, {3}
     ffc:	00010063 	andeq	r0, r1, r3, rrx
    1000:	69707200 	ldmdbvs	r0!, {r9, ip, sp, lr}^
    1004:	0200682e 	andeq	r6, r0, #3014656	; 0x2e0000
    1008:	05000000 	streq	r0, [r0, #-0]
    100c:	0205001a 	andeq	r0, r5, #26, 0
    1010:	00008d94 	muleq	r0, r4, sp
    1014:	14010515 	strne	r0, [r1], #-1301	; 0xfffffaeb
    1018:	01000202 	tsteq	r0, r2, lsl #4
    101c:	00011401 	andeq	r1, r1, r1, lsl #8
    1020:	5e000300 	cdppl	3, 0, cr0, cr0, cr0, {0}
    1024:	02000000 	andeq	r0, r0, #0, 0
    1028:	0d0efb01 	vstreq	d15, [lr, #-4]
    102c:	01010100 	mrseq	r0, (UNDEF: 17)
    1030:	00000001 	andeq	r0, r0, r1
    1034:	01000001 	tsteq	r0, r1
    1038:	74732f2e 	ldrbtvc	r2, [r3], #-3886	; 0xfffff0d2
    103c:	2d666661 	stclcs	6, cr6, [r6, #-388]!	; 0xfffffe7c
    1040:	00637273 	rsbeq	r7, r3, r3, ror r2
    1044:	6573552f 	ldrbvs	r5, [r3, #-1327]!	; 0xfffffad1
    1048:	6d2f7372 	stcvs	3, cr7, [pc, #-456]!	; e88 <__code_start__-0x7178>
    104c:	73656c69 	cmnvc	r5, #26880	; 0x6900
    1050:	756f532f 	strbvc	r5, [pc, #-815]!	; d29 <__code_start__-0x72d7>
    1054:	2f656372 	svccs	0x00656372
    1058:	34327363 	ldrtcc	r7, [r2], #-867	; 0xfffffc9d
    105c:	2f786c30 	svccs	0x00786c30
    1060:	7062696c 	rsbvc	r6, r2, ip, ror #18
    1064:	6e692f69 	cdpvs	15, 6, cr2, cr9, cr9, {3}
    1068:	64756c63 	ldrbtvs	r6, [r5], #-3171	; 0xfffff39d
    106c:	72000065 	andvc	r0, r0, #101, 0	; 0x65
    1070:	6f6f6265 	svcvs	0x006f6265
    1074:	00632e74 	rsbeq	r2, r3, r4, ror lr
    1078:	72000001 	andvc	r0, r0, #1, 0
    107c:	682e6970 	stmdavs	lr!, {r4, r5, r6, r8, fp, sp, lr}
    1080:	00000200 	andeq	r0, r0, r0, lsl #4
    1084:	00190500 	andseq	r0, r9, r0, lsl #10
    1088:	8d980205 	lfmhi	f0, 4, [r8, #20]
    108c:	0d030000 	stceq	0, cr0, [r3, #-0]
    1090:	13050501 	movwne	r0, #21761	; 0x5501
    1094:	13053113 	movwne	r3, #20755	; 0x5113
    1098:	01050106 	tsteq	r5, r6, lsl #2
    109c:	061b052f 	ldreq	r0, [fp], -pc, lsr #10
    10a0:	13050585 	movwne	r0, #21893	; 0x5585
    10a4:	2f090514 	svccs	0x00090514
    10a8:	01061605 	tsteq	r6, r5, lsl #12
    10ac:	2f060505 	svccs	0x00060505
    10b0:	11060e05 	tstne	r6, r5, lsl #28
    10b4:	052f0505 	streq	r0, [pc, #-1285]!	; bb7 <__code_start__-0x7449>
    10b8:	17052f01 	strne	r2, [r5, -r1, lsl #30]
    10bc:	05053006 	streq	r3, [r5, #-6]
    10c0:	016e0313 	cmneq	lr, r3, lsl r3
    10c4:	17051313 	smladne	r5, r3, r3, r1
    10c8:	010f0306 	tsteq	pc, r6, lsl #6
    10cc:	71030505 	tstvc	r3, r5, lsl #10
    10d0:	0531062e 	ldreq	r0, [r1, #-1582]!	; 0xfffff9d2
    10d4:	05010613 	streq	r0, [r1, #-1555]	; 0xfffff9ed
    10d8:	2e0d0307 	cdpcs	3, 0, cr0, cr13, cr7, {0}
    10dc:	4b060905 	blmi	1834f8 <__bss_end__+0x179518>
    10e0:	76030605 	strvc	r0, [r3], -r5, lsl #12
    10e4:	13050501 	movwne	r0, #21761	; 0x5501
    10e8:	2f090514 	svccs	0x00090514
    10ec:	01061605 	tsteq	r6, r5, lsl #12
    10f0:	2f060505 	svccs	0x00060505
    10f4:	11060e05 	tstne	r6, r5, lsl #28
    10f8:	2e2f0505 	cfsh64cs	mvdx0, mvdx15, #5
    10fc:	010a0306 	tsteq	sl, r6, lsl #6
    1100:	134d2f30 	movtne	r2, #57136	; 0xdf30
    1104:	67151313 			; <UNDEFINED> instruction: 0x67151313
    1108:	01040200 	mrseq	r0, R12_usr
    110c:	000d0567 	andeq	r0, sp, r7, ror #10
    1110:	01010402 	tsteq	r1, r2, lsl #8
    1114:	02000a05 	andeq	r0, r0, #20480	; 0x5000
    1118:	05010104 	streq	r0, [r1, #-260]	; 0xfffffefc
    111c:	04020005 	streq	r0, [r2], #-5
    1120:	0d050101 	stfeqs	f0, [r5, #-4]
    1124:	01040200 	mrseq	r0, R12_usr
    1128:	000a0501 	andeq	r0, sl, r1, lsl #10
    112c:	01010402 	tsteq	r1, r2, lsl #8
    1130:	01000a02 	tsteq	r0, r2, lsl #20
    1134:	0001fa01 	andeq	pc, r1, r1, lsl #20
    1138:	5d000300 	stcpl	3, cr0, [r0, #-0]
    113c:	02000000 	andeq	r0, r0, #0, 0
    1140:	0d0efb01 	vstreq	d15, [lr, #-4]
    1144:	01010100 	mrseq	r0, (UNDEF: 17)
    1148:	00000001 	andeq	r0, r0, r1
    114c:	01000001 	tsteq	r0, r1
    1150:	74732f2e 	ldrbtvc	r2, [r3], #-3886	; 0xfffff0d2
    1154:	2d666661 	stclcs	6, cr6, [r6, #-388]!	; 0xfffffe7c
    1158:	00637273 	rsbeq	r7, r3, r3, ror r2
    115c:	6573552f 	ldrbvs	r5, [r3, #-1327]!	; 0xfffffad1
    1160:	6d2f7372 	stcvs	3, cr7, [pc, #-456]!	; fa0 <__code_start__-0x7060>
    1164:	73656c69 	cmnvc	r5, #26880	; 0x6900
    1168:	756f532f 	strbvc	r5, [pc, #-815]!	; e41 <__code_start__-0x71bf>
    116c:	2f656372 	svccs	0x00656372
    1170:	34327363 	ldrtcc	r7, [r2], #-867	; 0xfffffc9d
    1174:	2f786c30 	svccs	0x00786c30
    1178:	7062696c 	rsbvc	r6, r2, ip, ror #18
    117c:	6e692f69 	cdpvs	15, 6, cr2, cr9, cr9, {3}
    1180:	64756c63 	ldrbtvs	r6, [r5], #-3171	; 0xfffff39d
    1184:	74000065 	strvc	r0, [r0], #-101	; 0xffffff9b
    1188:	72656d69 	rsbvc	r6, r5, #6720	; 0x1a40
    118c:	0100632e 	tsteq	r0, lr, lsr #6
    1190:	70720000 	rsbsvc	r0, r2, r0
    1194:	00682e69 	rsbeq	r2, r8, r9, ror #28
    1198:	00000002 	andeq	r0, r0, r2
    119c:	05002305 	streq	r2, [r0, #-773]	; 0xfffffcfb
    11a0:	008e2402 	addeq	r2, lr, r2, lsl #8
    11a4:	05051500 	streq	r1, [r5, #-1280]	; 0xfffffb00
    11a8:	060c0513 			; <UNDEFINED> instruction: 0x060c0513
    11ac:	061f0501 	ldreq	r0, [pc], -r1, lsl #10
    11b0:	1505056a 	strne	r0, [r5, #-1386]	; 0xfffffa96
    11b4:	0f061f05 	svceq	0x00061f05
    11b8:	06310505 	ldrteq	r0, [r1], -r5, lsl #10
    11bc:	030a052f 	movweq	r0, #42287	; 0xa52f
    11c0:	05050177 	streq	r0, [r5, #-375]	; 0xfffffe89
    11c4:	060c0513 			; <UNDEFINED> instruction: 0x060c0513
    11c8:	05056601 	streq	r6, [r5, #-1537]	; 0xfffff9ff
    11cc:	01090306 	tsteq	r9, r6, lsl #6
    11d0:	0601052f 	streq	r0, [r1], -pc, lsr #10
    11d4:	061c0513 			; <UNDEFINED> instruction: 0x061c0513
    11d8:	13050568 	movwne	r0, #21864	; 0x5568
    11dc:	76030a05 	strvc	r0, [r3], -r5, lsl #20
    11e0:	15050501 	strne	r0, [r5, #-1281]	; 0xfffffaff
    11e4:	18061c05 	stmdane	r6, {r0, r2, sl, fp, ip}
    11e8:	0305052e 	movweq	r0, #21806	; 0x552e
    11ec:	2f062e7a 	svccs	0x00062e7a
    11f0:	77030a05 	strvc	r0, [r3, -r5, lsl #20]
    11f4:	13050501 	movwne	r0, #21761	; 0x5501
    11f8:	01060c05 	tsteq	r6, r5, lsl #24
    11fc:	06050566 	streq	r0, [r5], -r6, ror #10
    1200:	2f010903 	svccs	0x00010903
    1204:	0c050106 	stfeqs	f0, [r5], {6}
    1208:	05017603 	streq	r7, [r1, #-1539]	; 0xfffff9fd
    120c:	0f030605 	svceq	0x00030605
    1210:	1309052e 	movwne	r0, #38190	; 0x952e
    1214:	74030a05 	strvc	r0, [r3], #-2565	; 0xfffff5fb
    1218:	15050501 	strne	r0, [r5, #-1281]	; 0xfffffaff
    121c:	030a052f 	movweq	r0, #42287	; 0xa52f
    1220:	05050177 	streq	r0, [r5, #-375]	; 0xfffffe89
    1224:	060c0513 			; <UNDEFINED> instruction: 0x060c0513
    1228:	05056601 	streq	r6, [r5, #-1537]	; 0xfffff9ff
    122c:	01090306 	tsteq	r9, r6, lsl #6
    1230:	1a061105 	bne	18564c <__bss_end__+0x17b66c>
    1234:	78030505 	stmdavc	r3, {r0, r2, r8, sl}
    1238:	052f062e 	streq	r0, [pc, #-1582]!	; c12 <__code_start__-0x73ee>
    123c:	0c051909 			; <UNDEFINED> instruction: 0x0c051909
    1240:	1c050106 	stfnes	f0, [r5], {6}
    1244:	05058706 	streq	r8, [r5, #-1798]	; 0xfffff8fa
    1248:	061c0513 			; <UNDEFINED> instruction: 0x061c0513
    124c:	2f050511 	svccs	0x00050511
    1250:	0606054a 	streq	r0, [r6], -sl, asr #10
    1254:	052e7603 	streq	r7, [lr, #-1539]!	; 0xfffff9fd
    1258:	0a051305 	beq	145e74 <__bss_end__+0x13be94>
    125c:	05017603 	streq	r7, [r1, #-1539]	; 0xfffff9fd
    1260:	052f1505 	streq	r1, [pc, #-1285]!	; d63 <__code_start__-0x729d>
    1264:	0177030a 	cmneq	r7, sl, lsl #6
    1268:	05130505 	ldreq	r0, [r3, #-1285]	; 0xfffffafb
    126c:	6601060c 	strvs	r0, [r1], -ip, lsl #12
    1270:	03060505 	movweq	r0, #25861	; 0x6505
    1274:	062f0109 	strteq	r0, [pc], -r9, lsl #2
    1278:	030c0501 	movweq	r0, #50433	; 0xc501
    127c:	05050176 	streq	r0, [r5, #-374]	; 0xfffffe8a
    1280:	2e0f0306 	cdpcs	3, 0, cr0, cr15, cr6, {0}
    1284:	05130905 	ldreq	r0, [r3, #-2309]	; 0xfffff6fb
    1288:	0174030a 	cmneq	r4, sl, lsl #6
    128c:	2f150505 	svccs	0x00150505
    1290:	77030a05 	strvc	r0, [r3, -r5, lsl #20]
    1294:	13050501 	movwne	r0, #21761	; 0x5501
    1298:	01060c05 	tsteq	r6, r5, lsl #24
    129c:	06050566 	streq	r0, [r5], -r6, ror #10
    12a0:	05010903 	streq	r0, [r1, #-2307]	; 0xfffff6fd
    12a4:	051a0611 	ldreq	r0, [sl, #-1553]	; 0xfffff9ef
    12a8:	2e780305 	cdpcs	3, 7, cr0, cr8, cr5, {0}
    12ac:	09052f06 	stmdbeq	r5, {r1, r2, r8, r9, sl, fp, sp}
    12b0:	060c0519 			; <UNDEFINED> instruction: 0x060c0519
    12b4:	061e0501 	ldreq	r0, [lr], -r1, lsl #10
    12b8:	1305058a 	movwne	r0, #21898	; 0x558a
    12bc:	050e0605 	streq	r0, [lr, #-1541]	; 0xfffff9fb
    12c0:	1e051305 	cdpne	3, 0, cr1, cr5, cr5, {0}
    12c4:	05051406 	streq	r1, [r5, #-1030]	; 0xfffffbfa
    12c8:	0605662c 	streq	r6, [r5], -ip, lsr #12
    12cc:	2e760306 	cdpcs	3, 7, cr0, cr6, cr6, {0}
    12d0:	05130505 	ldreq	r0, [r3, #-1285]	; 0xfffffafb
    12d4:	0176030a 	cmneq	r6, sl, lsl #6
    12d8:	2f150505 	svccs	0x00150505
    12dc:	77030a05 	strvc	r0, [r3, -r5, lsl #20]
    12e0:	13050501 	movwne	r0, #21761	; 0x5501
    12e4:	01060c05 	tsteq	r6, r5, lsl #24
    12e8:	06050566 	streq	r0, [r5], -r6, ror #10
    12ec:	2f010903 	svccs	0x00010903
    12f0:	0c050106 	stfeqs	f0, [r5], {6}
    12f4:	05017603 	streq	r7, [r1, #-1539]	; 0xfffff9fd
    12f8:	0f030605 	svceq	0x00030605
    12fc:	1309052e 	movwne	r0, #38190	; 0x952e
    1300:	74030a05 	strvc	r0, [r3], #-2565	; 0xfffff5fb
    1304:	15050501 	strne	r0, [r5, #-1281]	; 0xfffffaff
    1308:	030a052f 	movweq	r0, #42287	; 0xa52f
    130c:	05050177 	streq	r0, [r5, #-375]	; 0xfffffe89
    1310:	060c0513 			; <UNDEFINED> instruction: 0x060c0513
    1314:	05056601 	streq	r6, [r5, #-1537]	; 0xfffff9ff
    1318:	01090306 	tsteq	r9, r6, lsl #6
    131c:	1a061105 	bne	185738 <__bss_end__+0x17b758>
    1320:	78030505 	stmdavc	r3, {r0, r2, r8, sl}
    1324:	052f062e 	streq	r0, [pc, #-1582]!	; cfe <__code_start__-0x7302>
    1328:	0c051909 			; <UNDEFINED> instruction: 0x0c051909
    132c:	08020106 	stmdaeq	r2, {r1, r2, r8}
    1330:	04010100 	streq	r0, [r1], #-256	; 0xffffff00
    1334:	03000002 	movweq	r0, #2
    1338:	0000c800 	andeq	ip, r0, r0, lsl #16
    133c:	fb010200 	blx	41b46 <__bss_end__+0x37b66>
    1340:	01000d0e 	tsteq	r0, lr, lsl #26
    1344:	00010101 	andeq	r0, r1, r1, lsl #2
    1348:	00010000 	andeq	r0, r1, r0
    134c:	682f0100 	stmdavs	pc!, {r8}	; <UNPREDICTABLE>
    1350:	2f656d6f 	svccs	0x00656d6f
    1354:	6c676e65 	stclvs	14, cr6, [r7], #-404	; 0xfffffe6c
    1358:	632f7265 			; <UNDEFINED> instruction: 0x632f7265
    135c:	7373616c 	cmnvc	r3, #27
    1360:	3173632f 	cmncc	r3, pc, lsr #6
    1364:	2d653034 	stclcs	0, cr3, [r5, #-208]!	; 0xffffff30
    1368:	69773232 	ldmdbvs	r7!, {r1, r4, r5, r9, ip, sp}^
    136c:	6c2f2f6e 	stcvs	15, cr2, [pc], #-440	; 11bc <__code_start__-0x6e44>
    1370:	69706269 	ldmdbvs	r0!, {r0, r3, r5, r6, r9, sp, lr}^
    1374:	636e692f 	cmnvs	lr, #770048	; 0xbc000
    1378:	6564756c 	strbvs	r7, [r4, #-1388]!	; 0xfffffa94
    137c:	73752f00 	cmnvc	r5, #0, 30
    1380:	68732f72 	ldmdavs	r3!, {r1, r4, r5, r6, r8, r9, sl, fp, sp}^
    1384:	2f657261 	svccs	0x00657261
    1388:	2d636367 	stclcs	3, cr6, [r3, #-412]!	; 0xfffffe64
    138c:	2d6d7261 	sfmcs	f7, 2, [sp, #-388]!	; 0xfffffe7c
    1390:	656e6f6e 	strbvs	r6, [lr, #-3950]!	; 0xfffff092
    1394:	6261652d 	rsbvs	r6, r1, #188743680	; 0xb400000
    1398:	30312d69 	eorscc	r2, r1, r9, ror #26
    139c:	322d332e 	eorcc	r3, sp, #-1207959552	; 0xb8000000
    13a0:	2e313230 	mrccs	2, 1, r3, cr1, cr0, {1}
    13a4:	6c2f3031 	stcvs	0, cr3, [pc], #-196	; 12e8 <__code_start__-0x6d18>
    13a8:	672f6269 	strvs	r6, [pc, -r9, ror #4]!
    13ac:	612f6363 			; <UNDEFINED> instruction: 0x612f6363
    13b0:	6e2d6d72 	mcrvs	13, 1, r6, cr13, cr2, {3}
    13b4:	2d656e6f 	stclcs	14, cr6, [r5, #-444]!	; 0xfffffe44
    13b8:	69626165 	stmdbvs	r2!, {r0, r2, r5, r6, r8, sp, lr}^
    13bc:	2e30312f 	rsfcssp	f3, f0, #10.0
    13c0:	2f312e33 	svccs	0x00312e33
    13c4:	6c636e69 	stclvs	14, cr6, [r3], #-420	; 0xfffffe5c
    13c8:	00656475 	rsbeq	r6, r5, r5, ror r4
    13cc:	72617500 	rsbvc	r7, r1, #0, 10
    13d0:	00632e74 	rsbeq	r2, r3, r4, ror lr
    13d4:	75000000 	strvc	r0, [r0, #-0]
    13d8:	2e747261 	cdpcs	2, 7, cr7, cr4, cr1, {3}
    13dc:	00010068 	andeq	r0, r1, r8, rrx
    13e0:	69707200 	ldmdbvs	r0!, {r9, ip, sp, lr}^
    13e4:	0100682e 	tsteq	r0, lr, lsr #16
    13e8:	70670000 	rsbvc	r0, r7, r0
    13ec:	682e6f69 	stmdavs	lr!, {r0, r3, r5, r6, r8, r9, sl, fp, sp, lr}
    13f0:	00000100 	andeq	r0, r0, r0, lsl #2
    13f4:	69647473 	stmdbvs	r4!, {r0, r1, r4, r5, r6, sl, ip, sp, lr}^
    13f8:	672d746e 	strvs	r7, [sp, -lr, ror #8]!
    13fc:	682e6363 	stmdavs	lr!, {r0, r1, r5, r6, r8, r9, sp, lr}
    1400:	00000200 	andeq	r0, r0, r0, lsl #4
    1404:	00390500 	eorseq	r0, r9, r0, lsl #10
    1408:	8f400205 	svchi	0x00400205
    140c:	30030000 	andcc	r0, r3, r0
    1410:	05010601 	streq	r0, [r1, #-1537]	; 0xfffff9ff
    1414:	05670605 	strbeq	r0, [r7, #-1541]!	; 0xfffff9fb
    1418:	05010611 	streq	r0, [r1, #-1553]	; 0xfffff9ef
    141c:	01052e05 	tsteq	r5, r5, lsl #28
    1420:	06380567 	ldrteq	r0, [r8], -r7, ror #10
    1424:	05010629 	streq	r0, [r1, #-1577]	; 0xfffff9d7
    1428:	05670605 	strbeq	r0, [r7, #-1541]!	; 0xfffff9fb
    142c:	05010611 	streq	r0, [r1, #-1553]	; 0xfffff9ef
    1430:	01052e05 	tsteq	r5, r5, lsl #28
    1434:	06160567 	ldreq	r0, [r6], -r7, ror #10
    1438:	052e1503 	streq	r1, [lr, #-1283]!	; 0xfffffafd
    143c:	68673505 	stmdavs	r7!, {r0, r2, r8, sl, ip, sp}^
    1440:	0c036835 	stceq	8, cr6, [r3], {53}	; 0x35
    1444:	696b852e 	stmdbvs	fp!, {r1, r2, r3, r5, r8, sl, pc}^
    1448:	660c0369 	strvs	r0, [ip], -r9, ror #6
    144c:	05676b13 	strbeq	r6, [r7, #-2835]!	; 0xfffff4ed
    1450:	052f0601 	streq	r0, [pc, #-1537]!	; e57 <__code_start__-0x71a9>
    1454:	25080619 	strcs	r0, [r8, #-1561]	; 0xfffff9e7
    1458:	05340505 	ldreq	r0, [r4, #-1285]!	; 0xfffffafb
    145c:	0501060d 	streq	r0, [r1, #-1549]	; 0xfffff9f3
    1460:	19054c01 	stmdbne	r5, {r0, sl, fp, lr}
    1464:	05056706 	streq	r6, [r5, #-1798]	; 0xfffff8fa
    1468:	060d0536 			; <UNDEFINED> instruction: 0x060d0536
    146c:	4a280501 	bmi	a02878 <__bss_end__+0x9f8898>
    1470:	05300105 	ldreq	r0, [r0, #-261]!	; 0xfffffefb
    1474:	05870615 	streq	r0, [r7, #1557]	; 0x615
    1478:	052f2f05 	streq	r2, [pc, #-3845]!	; 57b <__code_start__-0x7a85>
    147c:	04020009 	streq	r0, [r2], #-9
    1480:	0a051301 	beq	14608c <__bss_end__+0x13c0ac>
    1484:	01040200 	mrseq	r0, R12_usr
    1488:	000c0511 	andeq	r0, ip, r1, lsl r5
    148c:	06010402 	streq	r0, [r1], -r2, lsl #8
    1490:	000a0501 	andeq	r0, sl, r1, lsl #10
    1494:	2e010402 	cdpcs	4, 0, cr0, cr1, cr2, {0}
    1498:	4c060505 	cfstr32mi	mvfx0, [r6], {5}
    149c:	01060e05 	tsteq	r6, r5, lsl #28
    14a0:	054a0905 	strbeq	r0, [sl, #-2309]	; 0xfffff6fb
    14a4:	2f2f0605 	svccs	0x002f0605
    14a8:	13060105 	movwne	r0, #24837	; 0x6105
    14ac:	67061c05 	strvs	r1, [r6, -r5, lsl #24]
    14b0:	05050106 	streq	r0, [r5, #-262]	; 0xfffffefa
    14b4:	052f4b06 	streq	r4, [pc, #-2822]!	; 9b6 <__code_start__-0x764a>
    14b8:	04020009 	streq	r0, [r2], #-9
    14bc:	0a051301 	beq	1460c8 <__bss_end__+0x13c0e8>
    14c0:	01040200 	mrseq	r0, R12_usr
    14c4:	000c0511 	andeq	r0, ip, r1, lsl r5
    14c8:	06010402 	streq	r0, [r1], -r2, lsl #8
    14cc:	000a0501 	andeq	r0, sl, r1, lsl #10
    14d0:	2e010402 	cdpcs	4, 0, cr0, cr1, cr2, {0}
    14d4:	4c060505 	cfstr32mi	mvfx0, [r6], {5}
    14d8:	06010567 	streq	r0, [r1], -r7, ror #10
    14dc:	0619052f 	ldreq	r0, [r9], -pc, lsr #10
    14e0:	2e1b054c 	cfmac32cs	mvfx0, mvfx11, mvfx12
    14e4:	052e2a05 	streq	r2, [lr, #-2565]!	; 0xfffff5fb
    14e8:	05010631 	streq	r0, [r1, #-1585]	; 0xfffff9cf
    14ec:	1c052e42 	stcne	14, cr2, [r5], {66}	; 0x42
    14f0:	05053106 	streq	r3, [r5, #-262]	; 0xfffffefa
    14f4:	2e09032f 	cdpcs	3, 0, cr0, cr9, cr15, {1}
    14f8:	01060e05 	tsteq	r6, r5, lsl #28
    14fc:	054a2105 	strbeq	r2, [sl, #-261]	; 0xfffffefb
    1500:	2e0a0301 	cdpcs	3, 0, cr0, cr10, cr1, {0}
    1504:	68061a05 	stmdavs	r6, {r0, r2, r9, fp, ip}
    1508:	02000905 	andeq	r0, r0, #81920	; 0x14000
    150c:	05300104 	ldreq	r0, [r0, #-260]!	; 0xfffffefc
    1510:	0402000a 	streq	r0, [r2], #-10
    1514:	0c051101 	stfeqs	f1, [r5], {1}
    1518:	01040200 	mrseq	r0, R12_usr
    151c:	0a050106 	beq	14193c <__bss_end__+0x13795c>
    1520:	01040200 	mrseq	r0, R12_usr
    1524:	0619052e 	ldreq	r0, [r9], -lr, lsr #10
    1528:	667ee803 	ldrbtvs	lr, [lr], -r3, lsl #16
    152c:	2f2f0505 	svccs	0x002f0505
    1530:	0105672f 	tsteq	r5, pc, lsr #14
    1534:	04022f06 	streq	r2, [r2], #-3846	; 0xfffff0fa
    1538:	92010100 	andls	r0, r1, #0
    153c:	03000003 	movweq	r0, #3
    1540:	0000b700 	andeq	fp, r0, r0, lsl #14
    1544:	fb010200 	blx	41d4e <__bss_end__+0x37d6e>
    1548:	01000d0e 	tsteq	r0, lr, lsl #26
    154c:	00010101 	andeq	r0, r1, r1, lsl #2
    1550:	00010000 	andeq	r0, r1, r0
    1554:	682f0100 	stmdavs	pc!, {r8}	; <UNPREDICTABLE>
    1558:	2f656d6f 	svccs	0x00656d6f
    155c:	6c676e65 	stclvs	14, cr6, [r7], #-404	; 0xfffffe6c
    1560:	632f7265 			; <UNDEFINED> instruction: 0x632f7265
    1564:	7373616c 	cmnvc	r3, #27
    1568:	3173632f 	cmncc	r3, pc, lsr #6
    156c:	2d653034 	stclcs	0, cr3, [r5, #-208]!	; 0xffffff30
    1570:	69773232 	ldmdbvs	r7!, {r1, r4, r5, r9, ip, sp}^
    1574:	6c2f2f6e 	stcvs	15, cr2, [pc], #-440	; 13c4 <__code_start__-0x6c3c>
    1578:	69706269 	ldmdbvs	r0!, {r0, r3, r5, r6, r9, sp, lr}^
    157c:	636e692f 	cmnvs	lr, #770048	; 0xbc000
    1580:	6564756c 	strbvs	r7, [r4, #-1388]!	; 0xfffffa94
    1584:	73752f00 	cmnvc	r5, #0, 30
    1588:	68732f72 	ldmdavs	r3!, {r1, r4, r5, r6, r8, r9, sl, fp, sp}^
    158c:	2f657261 	svccs	0x00657261
    1590:	2d636367 	stclcs	3, cr6, [r3, #-412]!	; 0xfffffe64
    1594:	2d6d7261 	sfmcs	f7, 2, [sp, #-388]!	; 0xfffffe7c
    1598:	656e6f6e 	strbvs	r6, [lr, #-3950]!	; 0xfffff092
    159c:	6261652d 	rsbvs	r6, r1, #188743680	; 0xb400000
    15a0:	30312d69 	eorscc	r2, r1, r9, ror #26
    15a4:	322d332e 	eorcc	r3, sp, #-1207959552	; 0xb8000000
    15a8:	2e313230 	mrccs	2, 1, r3, cr1, cr0, {1}
    15ac:	6c2f3031 	stcvs	0, cr3, [pc], #-196	; 14f0 <__code_start__-0x6b10>
    15b0:	672f6269 	strvs	r6, [pc, -r9, ror #4]!
    15b4:	612f6363 			; <UNDEFINED> instruction: 0x612f6363
    15b8:	6e2d6d72 	mcrvs	13, 1, r6, cr13, cr2, {3}
    15bc:	2d656e6f 	stclcs	14, cr6, [r5, #-444]!	; 0xfffffe44
    15c0:	69626165 	stmdbvs	r2!, {r0, r2, r5, r6, r8, sp, lr}^
    15c4:	2e30312f 	rsfcssp	f3, f0, #10.0
    15c8:	2f312e33 	svccs	0x00312e33
    15cc:	6c636e69 	stclvs	14, cr6, [r3], #-420	; 0xfffffe5c
    15d0:	00656475 	rsbeq	r6, r5, r5, ror r4
    15d4:	616d6b00 	cmnvs	sp, r0, lsl #22
    15d8:	636f6c6c 	cmnvs	pc, #108, 24	; 0x6c00
    15dc:	0000632e 	andeq	r6, r0, lr, lsr #6
    15e0:	70720000 	rsbsvc	r0, r2, r0
    15e4:	00682e69 	rsbeq	r2, r8, r9, ror #28
    15e8:	73000001 	movwvc	r0, #1
    15ec:	6e696474 	mcrvs	4, 3, r6, cr9, cr4, {3}
    15f0:	63672d74 	cmnvs	r7, #116, 26	; 0x1d00
    15f4:	00682e63 	rsbeq	r2, r8, r3, ror #28
    15f8:	00000002 	andeq	r0, r0, r2
    15fc:	05001e05 	streq	r1, [r0, #-3589]	; 0xfffff1fb
    1600:	00913002 	addseq	r3, r1, r2
    1604:	01270300 			; <UNDEFINED> instruction: 0x01270300
    1608:	05012005 	streq	r2, [r1, #-5]
    160c:	0501062d 	streq	r0, [r1, #-1581]	; 0xfffff9d3
    1610:	05830620 	streq	r0, [r3, #1568]	; 0x620
    1614:	35050122 	strcc	r0, [r5, #-290]	; 0xfffffede
    1618:	1e050106 	adfnes	f0, f5, f6
    161c:	20058306 	andcs	r8, r5, r6, lsl #6
    1620:	062d0501 	strteq	r0, [sp], -r1, lsl #10
    1624:	06420501 	strbeq	r0, [r2], -r1, lsl #10
    1628:	05010685 	streq	r0, [r1, #-1669]	; 0xfffff97b
    162c:	144b0605 	strbne	r0, [fp], #-1541	; 0xfffff9fb
    1630:	002e0601 	eoreq	r0, lr, r1, lsl #12
    1634:	06020402 	streq	r0, [r2], -r2, lsl #8
    1638:	0402002e 	streq	r0, [r2], #-46	; 0xffffffd2
    163c:	02000102 	andeq	r0, r0, #-2147483648	; 0x80000000
    1640:	05150204 	ldreq	r0, [r5, #-516]	; 0xfffffdfc
    1644:	0402000d 	streq	r0, [r2], #-13
    1648:	05010602 	streq	r0, [r1, #-1538]	; 0xfffff9fe
    164c:	04020007 	streq	r0, [r2], #-7
    1650:	09054a02 	stmdbeq	r5, {r1, r9, fp, lr}
    1654:	05054b06 	streq	r4, [r5, #-2822]	; 0xfffff4fa
    1658:	06170515 			; <UNDEFINED> instruction: 0x06170515
    165c:	4a100501 	bmi	402a68 <__bss_end__+0x3f8a88>
    1660:	2f060505 	svccs	0x00060505
    1664:	01061b05 	tsteq	r6, r5, lsl #22
    1668:	052e0e05 	streq	r0, [lr, #-3589]!	; 0xfffff1fb
    166c:	05052f01 	streq	r2, [r5, #-3841]	; 0xfffff0ff
    1670:	01040200 	mrseq	r0, R12_usr
    1674:	4a770306 	bmi	1dc2294 <__bss_end__+0x1db82b4>
    1678:	01040200 	mrseq	r0, R12_usr
    167c:	04020001 	streq	r0, [r2], #-1
    1680:	009e0601 	addseq	r0, lr, r1, lsl #12
    1684:	2e010402 	cdpcs	4, 0, cr0, cr1, cr2, {0}
    1688:	01040200 	mrseq	r0, R12_usr
    168c:	09052e06 	stmdbeq	r5, {r1, r2, r9, sl, fp, sp}
    1690:	d6060132 			; <UNDEFINED> instruction: 0xd6060132
    1694:	052e062e 	streq	r0, [lr, #-1582]!	; 0xfffff9d2
    1698:	0505de19 	streq	sp, [r5, #-3609]	; 0xfffff1e7
    169c:	0805142f 	stmdaeq	r5, {r0, r1, r2, r3, r5, sl, ip}
    16a0:	07050106 	streq	r0, [r5, -r6, lsl #2]
    16a4:	0609054a 	streq	r0, [r9], -sl, asr #10
    16a8:	1305054b 	movwne	r0, #21835	; 0x554b
    16ac:	01060c05 	tsteq	r6, r5, lsl #24
    16b0:	67060505 	strvs	r0, [r6, -r5, lsl #10]
    16b4:	06010513 			; <UNDEFINED> instruction: 0x06010513
    16b8:	06090567 	streq	r0, [r9], -r7, ror #10
    16bc:	059e012a 	ldreq	r0, [lr, #298]	; 0x12a
    16c0:	0106a528 	tsteq	r6, r8, lsr #10
    16c4:	4b060505 	blmi	182ae0 <__bss_end__+0x178b00>
    16c8:	062e0601 	strteq	r0, [lr], -r1, lsl #12
    16cc:	0513012e 	ldreq	r0, [r3, #-302]	; 0xfffffed2
    16d0:	01470318 	cmpeq	r7, r8, lsl r3
    16d4:	01130505 	tsteq	r3, r5, lsl #10
    16d8:	0f060106 	svceq	0x00060106
    16dc:	05130115 	ldreq	r0, [r3, #-277]	; 0xfffffeeb
    16e0:	0501060e 	streq	r0, [r1, #-1550]	; 0xfffff9f2
    16e4:	052e2e16 	streq	r2, [lr, #-3606]!	; 0xfffff1ea
    16e8:	39030605 	stmdbcc	r3, {r0, r2, r9, sl}
    16ec:	060b0501 	streq	r0, [fp], -r1, lsl #10
    16f0:	06050501 	streq	r0, [r5], -r1, lsl #10
    16f4:	060a054b 	streq	r0, [sl], -fp, asr #10
    16f8:	06050501 	streq	r0, [r5], -r1, lsl #10
    16fc:	060d054b 	streq	r0, [sp], -fp, asr #10
    1700:	2e070501 	cfsh32cs	mvfx0, mvfx7, #1
    1704:	054d0105 	strbeq	r0, [sp, #-261]	; 0xfffffefb
    1708:	04020005 	streq	r0, [r2], #-5
    170c:	78030601 	stmdavc	r3, {r0, r9, sl}
    1710:	0402004a 	streq	r0, [r2], #-74	; 0xffffffb6
    1714:	02000101 	andeq	r0, r0, #1073741824	; 0x40000000
    1718:	ba060104 	blt	181b30 <__bss_end__+0x177b50>
    171c:	01040200 	mrseq	r0, R12_usr
    1720:	09052e06 	stmdbeq	r5, {r1, r2, r9, sl, fp, sp}
    1724:	82060134 	andhi	r0, r6, #13
    1728:	052e0666 	streq	r0, [lr, #-1638]!	; 0xfffff99a
    172c:	0106db20 	tsteq	r6, r0, lsr #22
    1730:	4b060505 	blmi	182b4c <__bss_end__+0x178b6c>
    1734:	04020001 	streq	r0, [r2], #-1
    1738:	02004a02 	andeq	r4, r0, #8192	; 0x2000
    173c:	00010204 	andeq	r0, r1, r4, lsl #4
    1740:	13020402 	movwne	r0, #9218	; 0x2402
    1744:	02001205 	andeq	r1, r0, #1342177280	; 0x50000000
    1748:	01060204 	tsteq	r6, r4, lsl #4
    174c:	02040200 	andeq	r0, r4, #0, 4
    1750:	0402002e 	streq	r0, [r2], #-46	; 0xffffffd2
    1754:	05052e02 	streq	r2, [r5, #-3586]	; 0xfffff1fe
    1758:	02040200 	andeq	r0, r4, #0, 4
    175c:	02002f06 	andeq	r2, r0, #6, 30
    1760:	05670204 	strbeq	r0, [r7, #-516]!	; 0xfffffdfc
    1764:	04020001 	streq	r0, [r2], #-1
    1768:	05130602 	ldreq	r0, [r3, #-1538]	; 0xfffff9fe
    176c:	04020005 	streq	r0, [r2], #-5
    1770:	00620601 	rsbeq	r0, r2, r1, lsl #12
    1774:	01010402 	tsteq	r1, r2, lsl #8
    1778:	01040200 	mrseq	r0, R12_usr
    177c:	0200ba06 	andeq	fp, r0, #24576	; 0x6000
    1780:	2e060104 	adfcss	f0, f6, f4
    1784:	0a033c05 	beq	d07a0 <__bss_end__+0xc67c0>
    1788:	0501069e 	streq	r0, [r1, #-1694]	; 0xfffff962
    178c:	014b0605 	cmpeq	fp, r5, lsl #12
    1790:	2e062e06 	cdpcs	14, 0, cr2, cr6, cr6, {0}
    1794:	05011301 	streq	r1, [r1, #-769]	; 0xfffffcff
    1798:	7fad0318 	svcvc	0x00ad0318
    179c:	13050501 	movwne	r0, #21761	; 0x5501
    17a0:	01061105 	tsteq	r6, r5, lsl #2
    17a4:	0305052e 	movweq	r0, #21806	; 0x552e
    17a8:	060100d2 			; <UNDEFINED> instruction: 0x060100d2
    17ac:	1805134a 	stmdane	r5, {r1, r3, r6, r8, r9, ip}
    17b0:	017fa303 	cmneq	pc, r3, lsl #6
    17b4:	05130505 	ldreq	r0, [r3, #-1285]	; 0xfffffafb
    17b8:	4a010616 	bmi	43018 <__bss_end__+0x39038>
    17bc:	03060505 	movweq	r0, #25861	; 0x6505
    17c0:	050100e1 	streq	r0, [r1, #-225]	; 0xffffff1f
    17c4:	05010612 	streq	r0, [r1, #-1554]	; 0xfffff9ee
    17c8:	054b0605 	strbeq	r0, [fp, #-1541]	; 0xfffff9fb
    17cc:	7fa90318 	svcvc	0x00a90318
    17d0:	13050501 	movwne	r0, #21761	; 0x5501
    17d4:	0e180501 	cfmul32eq	mvfx0, mvfx8, mvfx1
    17d8:	05130505 	ldreq	r0, [r3, #-1285]	; 0xfffffafb
    17dc:	2e010611 	mcrcs	6, 0, r0, cr1, cr1, {0}
    17e0:	06150505 	ldreq	r0, [r5], -r5, lsl #10
    17e4:	0513014a 	ldreq	r0, [r3, #-330]	; 0xfffffeb6
    17e8:	2e01060e 	cfmadd32cs	mvax0, mvfx0, mvfx1, mvfx14
    17ec:	2e2e1605 	cfmadda32cs	mvax0, mvax1, mvfx14, mvfx5
    17f0:	03060505 	movweq	r0, #25861	; 0x6505
    17f4:	010100d6 	ldrdeq	r0, [r1, -r6]
    17f8:	9f031805 	svcls	0x00031805
    17fc:	0505017f 	streq	r0, [r5, #-383]	; 0xfffffe81
    1800:	06190513 			; <UNDEFINED> instruction: 0x06190513
    1804:	05052e01 	streq	r2, [r5, #-3585]	; 0xfffff1ff
    1808:	0100e003 	tsteq	r0, r3
    180c:	02040200 	andeq	r0, r4, #0, 4
    1810:	02004a06 	andeq	r4, r0, #24576	; 0x6000
    1814:	05140204 	ldreq	r0, [r4, #-516]	; 0xfffffdfc
    1818:	0402000a 	streq	r0, [r2], #-10
    181c:	05010602 	streq	r0, [r1, #-1538]	; 0xfffff9fe
    1820:	04020005 	streq	r0, [r2], #-5
    1824:	054b0602 	strbeq	r0, [fp, #-1538]	; 0xfffff9fe
    1828:	0402000c 	streq	r0, [r2], #-12
    182c:	05010602 	streq	r0, [r1, #-1538]	; 0xfffff9fe
    1830:	04020001 	streq	r0, [r2], #-1
    1834:	05052f02 	streq	r2, [r5, #-3842]	; 0xfffff0fe
    1838:	01040200 	mrseq	r0, R12_usr
    183c:	4a730306 	bmi	1cc245c <__bss_end__+0x1cb847c>
    1840:	01040200 	mrseq	r0, R12_usr
    1844:	04020001 	streq	r0, [r2], #-1
    1848:	009e0601 	addseq	r0, lr, r1, lsl #12
    184c:	2e010402 	cdpcs	4, 0, cr0, cr1, cr2, {0}
    1850:	01040200 	mrseq	r0, R12_usr
    1854:	02002e06 	andeq	r2, r0, #96	; 0x60
    1858:	002f0104 	eoreq	r0, pc, r4, lsl #2
    185c:	2e010402 	cdpcs	4, 0, cr0, cr1, cr2, {0}
    1860:	01040200 	mrseq	r0, R12_usr
    1864:	7fb103d6 	svcvc	0x00b103d6
    1868:	8206012e 	andhi	r0, r6, #-2147483637	; 0x8000000b
    186c:	2e062e2e 	cdpcs	14, 0, cr2, cr6, cr14, {1}
    1870:	02002e06 	andeq	r2, r0, #96	; 0x60
    1874:	03060104 	movweq	r0, #24836	; 0x6104
    1878:	000100d7 	ldrdeq	r0, [r1], -r7
    187c:	2e010402 	cdpcs	4, 0, cr0, cr1, cr2, {0}
    1880:	01040200 	mrseq	r0, R12_usr
    1884:	081505d6 	ldmdaeq	r5, {r1, r2, r4, r6, r7, r8, sl}
    1888:	0117057b 	tsteq	r7, fp, ror r5
    188c:	05311605 	ldreq	r1, [r1, #-1541]!	; 0xfffff9fb
    1890:	1d050118 	stfnes	f0, [r5, #-96]	; 0xffffffa0
    1894:	2b050106 	blcs	141cb4 <__bss_end__+0x137cd4>
    1898:	06190566 	ldreq	r0, [r9], -r6, ror #10
    189c:	1305054d 	movwne	r0, #21837	; 0x554d
    18a0:	01060c05 	tsteq	r6, r5, lsl #24
    18a4:	054a0705 	strbeq	r0, [sl, #-1797]	; 0xfffff8fb
    18a8:	04020025 	streq	r0, [r2], #-37	; 0xffffffdb
    18ac:	1e054a01 	vmlane.f32	s8, s10, s2
    18b0:	01040200 	mrseq	r0, R12_usr
    18b4:	0609054a 	streq	r0, [r9], -sl, asr #10
    18b8:	1305054b 	movwne	r0, #21835	; 0x554b
    18bc:	01060a05 	tsteq	r6, r5, lsl #20
    18c0:	05631905 	strbeq	r1, [r3, #-2309]!	; 0xfffff6fb
    18c4:	014c0609 	cmpeq	ip, r9, lsl #12
    18c8:	2e069e06 	cdpcs	14, 0, cr9, cr6, cr6, {0}
    18cc:	01000a02 	tsteq	r0, r2, lsl #20
    18d0:	00028901 	andeq	r8, r2, r1, lsl #18
    18d4:	c9000300 	stmdbgt	r0, {r8, r9}
    18d8:	02000000 	andeq	r0, r0, #0, 0
    18dc:	0d0efb01 	vstreq	d15, [lr, #-4]
    18e0:	01010100 	mrseq	r0, (UNDEF: 17)
    18e4:	00000001 	andeq	r0, r0, r1
    18e8:	01000001 	tsteq	r0, r1
    18ec:	72732f2e 	rsbsvc	r2, r3, #184	; 0xb8
    18f0:	552f0063 	strpl	r0, [pc, #-99]!	; 1895 <__code_start__-0x676b>
    18f4:	73726573 	cmnvc	r2, #482344960	; 0x1cc00000
    18f8:	6c696d2f 	stclvs	13, cr6, [r9], #-188	; 0xffffff44
    18fc:	532f7365 			; <UNDEFINED> instruction: 0x532f7365
    1900:	6372756f 	cmnvs	r2, #465567744	; 0x1bc00000
    1904:	73632f65 	cmnvc	r3, #404	; 0x194
    1908:	6c303432 	cfldrsvs	mvf3, [r0], #-200	; 0xffffff38
    190c:	696c2f78 	stmdbvs	ip!, {r3, r4, r5, r6, r8, r9, sl, fp, sp}^
    1910:	2f697062 	svccs	0x00697062
    1914:	6c636e69 	stclvs	14, cr6, [r3], #-420	; 0xfffffe5c
    1918:	00656475 	rsbeq	r6, r5, r5, ror r4
    191c:	74706f2f 	ldrbtvc	r6, [r0], #-3887	; 0xfffff0d1
    1920:	6d6f682f 	stclvs	8, cr6, [pc, #-188]!	; 186c <__code_start__-0x6794>
    1924:	65726265 	ldrbvs	r6, [r2, #-613]!	; 0xfffffd9b
    1928:	65432f77 	strbvs	r2, [r3, #-3959]	; 0xfffff089
    192c:	72616c6c 	rsbvc	r6, r1, #108, 24	; 0x6c00
    1930:	6d72612f 	ldfvse	f6, [r2, #-188]!	; 0xffffff44
    1934:	6e6f6e2d 	cdpvs	14, 6, cr6, cr15, cr13, {1}
    1938:	61652d65 	cmnvs	r5, r5, ror #26
    193c:	392d6962 	pushcc	{r1, r5, r6, r8, fp, sp, lr}
    1940:	322d392f 	eorcc	r3, sp, #770048	; 0xbc000
    1944:	71393130 	teqvc	r9, r0, lsr r1
    1948:	73632d34 	cmnvc	r3, #52, 26	; 0xd00
    194c:	65373031 	ldrvs	r3, [r7, #-49]!	; 0xffffffcf
    1950:	62696c2f 	rsbvs	r6, r9, #12032	; 0x2f00
    1954:	6363672f 	cmnvs	r3, #12320768	; 0xbc0000
    1958:	6d72612f 	ldfvse	f6, [r2, #-188]!	; 0xffffff44
    195c:	6e6f6e2d 	cdpvs	14, 6, cr6, cr15, cr13, {1}
    1960:	61652d65 	cmnvs	r5, r5, ror #26
    1964:	392f6962 	stmdbcc	pc!, {r1, r5, r6, r8, fp, sp, lr}	; <UNPREDICTABLE>
    1968:	312e322e 			; <UNDEFINED> instruction: 0x312e322e
    196c:	636e692f 	cmnvs	lr, #770048	; 0xbc000
    1970:	6564756c 	strbvs	r7, [r4, #-1388]!	; 0xfffffa94
    1974:	70670000 	rsbvc	r0, r7, r0
    1978:	632e6f69 			; <UNDEFINED> instruction: 0x632e6f69
    197c:	00000100 	andeq	r0, r0, r0, lsl #2
    1980:	2e697072 	mcrcs	0, 3, r7, cr9, cr2, {3}
    1984:	00020068 	andeq	r0, r2, r8, rrx
    1988:	64747300 	ldrbtvs	r7, [r4], #-768	; 0xfffffd00
    198c:	2d746e69 	ldclcs	14, cr6, [r4, #-420]!	; 0xfffffe5c
    1990:	2e636367 	cdpcs	3, 6, cr6, cr3, cr7, {3}
    1994:	00030068 	andeq	r0, r3, r8, rrx
    1998:	69706700 	ldmdbvs	r0!, {r8, r9, sl, sp, lr}^
    199c:	00682e6f 	rsbeq	r2, r8, pc, ror #28
    19a0:	00000002 	andeq	r0, r0, r2
    19a4:	05003805 	streq	r3, [r0, #-2053]	; 0xfffff7fb
    19a8:	0094e002 	addseq	lr, r4, r2
    19ac:	01270300 			; <UNDEFINED> instruction: 0x01270300
    19b0:	05130505 	ldreq	r0, [r3, #-1285]	; 0xfffffafb
    19b4:	05010607 	streq	r0, [r1, #-1543]	; 0xfffff9f9
    19b8:	05490606 	strbeq	r0, [r9, #-1542]	; 0xfffff9fa
    19bc:	07051505 	streq	r1, [r5, -r5, lsl #10]
    19c0:	38050106 	stmdacc	r5, {r1, r2, r8}
    19c4:	4d07052b 	cfstr32mi	mvfx0, [r7, #-172]	; 0xffffff54
    19c8:	30060505 	andcc	r0, r6, r5, lsl #10
    19cc:	01061805 	tsteq	r6, r5, lsl #16
    19d0:	05671c05 	strbeq	r1, [r7, #-3077]!	; 0xfffff3fb
    19d4:	18054a0e 	stmdane	r5, {r1, r2, r3, r9, fp, lr}
    19d8:	4d12052d 	cfldr32mi	mvfx0, [r2, #-180]	; 0xffffff4c
    19dc:	0e052f2e 	cdpeq	15, 0, cr2, cr5, cr14, {1}
    19e0:	0605052a 	streq	r0, [r5], -sl, lsr #10
    19e4:	0513142f 	ldreq	r1, [r3, #-1071]	; 0xfffffbd1
    19e8:	05010607 	streq	r0, [r1, #-1543]	; 0xfffff9f9
    19ec:	132f0605 			; <UNDEFINED> instruction: 0x132f0605
    19f0:	052e2e06 	streq	r2, [lr, #-3590]!	; 0xfffff1fa
    19f4:	05051301 	streq	r1, [r5, #-769]	; 0xfffffcff
    19f8:	24052e2d 	strcs	r2, [r5], #-3629	; 0xfffff1d3
    19fc:	02050006 	andeq	r0, r5, #6, 0
    1a00:	00009540 	andeq	r9, r0, r0, asr #10
    1a04:	13050515 	movwne	r0, #21781	; 0x5515
    1a08:	71030605 	tstvc	r3, r5, lsl #12
    1a0c:	13050501 	movwne	r0, #21761	; 0x5501
    1a10:	01060705 	tsteq	r6, r5, lsl #14
    1a14:	49060605 	stmdbmi	r6, {r0, r2, r9, sl}
    1a18:	14150505 	ldrne	r0, [r5], #-1285	; 0xfffffafb
    1a1c:	03062405 	movweq	r2, #25605	; 0x6405
    1a20:	18050109 	stmdane	r5, {r0, r3, r8}
    1a24:	052e7703 	streq	r7, [lr, #-1795]!	; 0xfffff8fd
    1a28:	0e05671c 	mcreq	7, 0, r6, cr5, cr12, {0}
    1a2c:	2d18054a 	cfldr32cs	mvfx0, [r8, #-296]	; 0xfffffed8
    1a30:	2e4d1205 	cdpcs	2, 4, cr1, cr13, cr5, {0}
    1a34:	2f0f052f 	svccs	0x000f052f
    1a38:	05290e05 	streq	r0, [r9, #-3589]!	; 0xfffff1fb
    1a3c:	142f0605 	strtne	r0, [pc], #-1541	; 1a44 <__code_start__-0x65bc>
    1a40:	06070513 			; <UNDEFINED> instruction: 0x06070513
    1a44:	06050501 	streq	r0, [r5], -r1, lsl #10
    1a48:	2e06132f 	cdpcs	3, 0, cr1, cr6, cr15, {1}
    1a4c:	05330105 	ldreq	r0, [r3, #-261]!	; 0xfffffefb
    1a50:	052e2905 	streq	r2, [lr, #-2309]!	; 0xfffff6fb
    1a54:	05000627 	streq	r0, [r0, #-1575]	; 0xfffff9d9
    1a58:	00959802 	addseq	r9, r5, r2, lsl #16
    1a5c:	05051a00 	streq	r1, [r5, #-2560]	; 0xfffff600
    1a60:	06270513 			; <UNDEFINED> instruction: 0x06270513
    1a64:	2f180511 	svccs	0x00180511
    1a68:	2e2e0505 	cfsh64cs	mvdx0, mvdx14, #5
    1a6c:	0628054a 	strteq	r0, [r8], -sl, asr #10
    1a70:	b0020500 	andlt	r0, r2, r0, lsl #10
    1a74:	16000095 			; <UNDEFINED> instruction: 0x16000095
    1a78:	05130505 	ldreq	r0, [r3, #-1285]	; 0xfffffafb
    1a7c:	05110628 	ldreq	r0, [r1, #-1576]	; 0xfffff9d8
    1a80:	05052f18 	streq	r2, [r5, #-3864]	; 0xfffff0e8
    1a84:	054a2e2e 	strbeq	r2, [sl, #-3630]	; 0xfffff1d2
    1a88:	05000623 	streq	r0, [r0, #-1571]	; 0xfffff9dd
    1a8c:	0095c802 	addseq	ip, r5, r2, lsl #16
    1a90:	05051600 	streq	r1, [r5, #-1536]	; 0xfffffa00
    1a94:	03060513 	movweq	r0, #25875	; 0x6513
    1a98:	05050162 	streq	r0, [r5, #-354]	; 0xfffffe9e
    1a9c:	06070513 			; <UNDEFINED> instruction: 0x06070513
    1aa0:	06060501 	streq	r0, [r6], -r1, lsl #10
    1aa4:	15050549 	strne	r0, [r5, #-1353]	; 0xfffffab7
    1aa8:	23051314 	movwcs	r1, #21268	; 0x5314
    1aac:	01170306 	tsteq	r7, r6, lsl #6
    1ab0:	69032205 	stmdbvs	r3, {r0, r2, r9, sp}
    1ab4:	821c052e 	andshi	r0, ip, #192937984	; 0xb800000
    1ab8:	2e0e052e 	cfsh32cs	mvfx0, mvfx14, #30
    1abc:	30060505 	andcc	r0, r6, r5, lsl #10
    1ac0:	01061205 	tsteq	r6, r5, lsl #4
    1ac4:	05052d4b 	streq	r2, [r5, #-3403]	; 0xfffff2b5
    1ac8:	13132f06 	tstne	r3, #6, 30
    1acc:	03061805 	movweq	r1, #26629	; 0x6805
    1ad0:	0e05017a 	mcreq	1, 0, r0, cr5, cr10, {3}
    1ad4:	3405054a 	strcc	r0, [r5], #-1354	; 0xfffffab6
    1ad8:	0301052e 	movweq	r0, #5422	; 0x152e
    1adc:	05052e14 	streq	r2, [r5, #-3604]	; 0xfffff1ec
    1ae0:	2e2e6c03 	cdpcs	12, 2, cr6, cr14, cr3, {0}
    1ae4:	00062b05 	andeq	r2, r6, r5, lsl #22
    1ae8:	96200205 	strtls	r0, [r0], -r5, lsl #4
    1aec:	17030000 	strne	r0, [r3, -r0]
    1af0:	13050501 	movwne	r0, #21761	; 0x5501
    1af4:	01060705 	tsteq	r6, r5, lsl #14
    1af8:	71031805 	tstvc	r3, r5, lsl #16
    1afc:	032b052e 			; <UNDEFINED> instruction: 0x032b052e
    1b00:	07052e0e 	streq	r2, [r5, -lr, lsl #28]
    1b04:	0609052f 	streq	r0, [r9], -pc, lsr #10
    1b08:	030d052f 	movweq	r0, #54575	; 0xd52f
    1b0c:	0505016f 	streq	r0, [r5, #-367]	; 0xfffffe91
    1b10:	2e2e0613 	mcrcs	6, 1, r0, cr14, cr3, {0}
    1b14:	0609052e 	streq	r0, [r9], -lr, lsr #10
    1b18:	05011203 	streq	r1, [r1, #-515]	; 0xfffffdfd
    1b1c:	0172030d 	cmneq	r2, sp, lsl #6
    1b20:	06130505 	ldreq	r0, [r3], -r5, lsl #10
    1b24:	1d052e2e 	stcne	14, cr2, [r5, #-184]	; 0xffffff48
    1b28:	66100306 	ldrvs	r0, [r0], -r6, lsl #6
    1b2c:	05130505 	ldreq	r0, [r3, #-1285]	; 0xfffffafb
    1b30:	2e11061d 	mrccs	6, 0, r0, cr1, cr13, {0}
    1b34:	30060505 	andcc	r0, r6, r5, lsl #10
    1b38:	060e0513 			; <UNDEFINED> instruction: 0x060e0513
    1b3c:	30170510 	andscc	r0, r7, r0, lsl r5
    1b40:	0502042e 	streq	r0, [r2, #-1070]	; 0xfffffbd2
    1b44:	dd030630 	stcle	6, cr0, [r3, #-192]	; 0xffffff40
    1b48:	01042e00 	tsteq	r4, r0, lsl #28
    1b4c:	03060e05 	movweq	r0, #28165	; 0x6e05
    1b50:	05017fa2 	streq	r7, [r1, #-4002]	; 0xfffff05e
    1b54:	01052f23 	tsteq	r5, r3, lsr #30
    1b58:	0006022f 	andeq	r0, r6, pc, lsr #4
    1b5c:	01210101 			; <UNDEFINED> instruction: 0x01210101
    1b60:	00030000 	andeq	r0, r3, r0
    1b64:	000000be 	strheq	r0, [r0], -lr
    1b68:	0efb0102 	cdpeq	1, 15, cr0, cr11, cr2, {0}
    1b6c:	0101000d 	tsteq	r1, sp
    1b70:	00000101 	andeq	r0, r0, r1, lsl #2
    1b74:	00000100 	andeq	r0, r0, r0, lsl #2
    1b78:	6c2f2e01 	stcvs	14, cr2, [pc], #-4	; 1b7c <__code_start__-0x6484>
    1b7c:	00636269 	rsbeq	r6, r3, r9, ror #4
    1b80:	6573552f 	ldrbvs	r5, [r3, #-1327]!	; 0xfffffad1
    1b84:	6d2f7372 	stcvs	3, cr7, [pc, #-456]!	; 19c4 <__code_start__-0x663c>
    1b88:	73656c69 	cmnvc	r5, #26880	; 0x6900
    1b8c:	756f532f 	strbvc	r5, [pc, #-815]!	; 1865 <__code_start__-0x679b>
    1b90:	2f656372 	svccs	0x00656372
    1b94:	34327363 	ldrtcc	r7, [r2], #-867	; 0xfffffc9d
    1b98:	2f786c30 	svccs	0x00786c30
    1b9c:	7062696c 	rsbvc	r6, r2, ip, ror #18
    1ba0:	6e692f69 	cdpvs	15, 6, cr2, cr9, cr9, {3}
    1ba4:	64756c63 	ldrbtvs	r6, [r5], #-3171	; 0xfffff39d
    1ba8:	6f2f0065 	svcvs	0x002f0065
    1bac:	682f7470 	stmdavs	pc!, {r4, r5, r6, sl, ip, sp, lr}	; <UNPREDICTABLE>
    1bb0:	62656d6f 	rsbvs	r6, r5, #7104	; 0x1bc0
    1bb4:	2f776572 	svccs	0x00776572
    1bb8:	6c6c6543 	cfstr64vs	mvdx6, [ip], #-268	; 0xfffffef4
    1bbc:	612f7261 			; <UNDEFINED> instruction: 0x612f7261
    1bc0:	6e2d6d72 	mcrvs	13, 1, r6, cr13, cr2, {3}
    1bc4:	2d656e6f 	stclcs	14, cr6, [r5, #-444]!	; 0xfffffe44
    1bc8:	69626165 	stmdbvs	r2!, {r0, r2, r5, r6, r8, sp, lr}^
    1bcc:	392f392d 	stmdbcc	pc!, {r0, r2, r3, r5, r8, fp, ip, sp}	; <UNPREDICTABLE>
    1bd0:	3130322d 	teqcc	r0, sp, lsr #4
    1bd4:	2d347139 	ldfcss	f7, [r4, #-228]!	; 0xffffff1c
    1bd8:	30317363 	eorscc	r7, r1, r3, ror #6
    1bdc:	6c2f6537 	cfstr32vs	mvfx6, [pc], #-220	; 1b08 <__code_start__-0x64f8>
    1be0:	672f6269 	strvs	r6, [pc, -r9, ror #4]!
    1be4:	612f6363 			; <UNDEFINED> instruction: 0x612f6363
    1be8:	6e2d6d72 	mcrvs	13, 1, r6, cr13, cr2, {3}
    1bec:	2d656e6f 	stclcs	14, cr6, [r5, #-444]!	; 0xfffffe44
    1bf0:	69626165 	stmdbvs	r2!, {r0, r2, r5, r6, r8, sp, lr}^
    1bf4:	322e392f 	eorcc	r3, lr, #770048	; 0xbc000
    1bf8:	692f312e 	stmdbvs	pc!, {r1, r2, r3, r5, r8, ip, sp}	; <UNPREDICTABLE>
    1bfc:	756c636e 	strbvc	r6, [ip, #-878]!	; 0xfffffc92
    1c00:	00006564 	andeq	r6, r0, r4, ror #10
    1c04:	736d656d 	cmnvc	sp, #457179136	; 0x1b400000
    1c08:	632e7465 			; <UNDEFINED> instruction: 0x632e7465
    1c0c:	00000100 	andeq	r0, r0, r0, lsl #2
    1c10:	2e697072 	mcrcs	0, 3, r7, cr9, cr2, {3}
    1c14:	00020068 	andeq	r0, r2, r8, rrx
    1c18:	64747300 	ldrbtvs	r7, [r4], #-768	; 0xfffffd00
    1c1c:	2e666564 	cdpcs	5, 6, cr6, cr6, cr4, {3}
    1c20:	00030068 	andeq	r0, r3, r8, rrx
    1c24:	29050000 	stmdbcs	r5, {}	; <UNPREDICTABLE>
    1c28:	78020500 	stmdavc	r2, {r8, sl}
    1c2c:	15000096 	strne	r0, [r0, #-150]	; 0xffffff6a
    1c30:	05130505 	ldreq	r0, [r3, #-1285]	; 0xfffffafb
    1c34:	05110629 	ldreq	r0, [r1, #-1577]	; 0xfffff9d7
    1c38:	05052f14 	streq	r2, [r5, #-3860]	; 0xfffff0ec
    1c3c:	0a053006 	beq	14dc5c <__bss_end__+0x143c7c>
    1c40:	059e0601 	ldreq	r0, [lr, #1537]	; 0x601
    1c44:	05d70609 	ldrbeq	r0, [r7, #1545]	; 0x609
    1c48:	0501060e 	streq	r0, [r1, #-1550]	; 0xfffff9f2
    1c4c:	052d060a 	streq	r0, [sp, #-1546]!	; 0xfffff9f6
    1c50:	0e05bb09 	vmlaeq.f64	d11, d5, d9
    1c54:	052e0106 	streq	r0, [lr, #-262]!	; 0xfffffefa
    1c58:	052d060a 	streq	r0, [sp, #-1546]!	; 0xfffff9f6
    1c5c:	0b054b09 	bleq	154888 <__bss_end__+0x14a8a8>
    1c60:	0a050106 	beq	142080 <__bss_end__+0x1380a0>
    1c64:	2f0e052d 	svccs	0x000e052d
    1c68:	2d060a05 	vstrcs	s0, [r6, #-20]	; 0xffffffec
    1c6c:	13060e05 	movwne	r0, #28165	; 0x6e05
    1c70:	2e060905 	vmlacs.f16	s0, s12, s10	; <UNPREDICTABLE>
    1c74:	05110a05 	ldreq	r0, [r1, #-2565]	; 0xfffff5fb
    1c78:	01051405 	tsteq	r5, r5, lsl #8
    1c7c:	02021306 	andeq	r1, r2, #402653184	; 0x18000000
    1c80:	9e010100 	adflss	f0, f1, f0
    1c84:	03000000 	movweq	r0, #0
    1c88:	00005a00 	andeq	r5, r0, r0, lsl #20
    1c8c:	fb010200 	blx	42496 <__bss_end__+0x384b6>
    1c90:	01000d0e 	tsteq	r0, lr, lsl #26
    1c94:	00010101 	andeq	r0, r1, r1, lsl #2
    1c98:	00010000 	andeq	r0, r1, r0
    1c9c:	2f2e0100 	svccs	0x002e0100
    1ca0:	6362696c 	cmnvs	r2, #108, 18	; 0x1b0000
    1ca4:	73552f00 	cmpvc	r5, #0, 30
    1ca8:	2f737265 	svccs	0x00737265
    1cac:	656c696d 	strbvs	r6, [ip, #-2413]!	; 0xfffff693
    1cb0:	6f532f73 	svcvs	0x00532f73
    1cb4:	65637275 	strbvs	r7, [r3, #-629]!	; 0xfffffd8b
    1cb8:	3273632f 	rsbscc	r6, r3, #-1140850688	; 0xbc000000
    1cbc:	786c3034 	stmdavc	ip!, {r2, r4, r5, ip, sp}^
    1cc0:	62696c2f 	rsbvs	r6, r9, #12032	; 0x2f00
    1cc4:	692f6970 	stmdbvs	pc!, {r4, r5, r6, r8, fp, sp, lr}	; <UNPREDICTABLE>
    1cc8:	756c636e 	strbvc	r6, [ip, #-878]!	; 0xfffffc92
    1ccc:	00006564 	andeq	r6, r0, r4, ror #10
    1cd0:	63747570 	cmnvs	r4, #112, 10	; 0x1c000000
    1cd4:	2e726168 	rpwcssz	f6, f2, #0.0
    1cd8:	00010063 	andeq	r0, r1, r3, rrx
    1cdc:	69707200 	ldmdbvs	r0!, {r9, ip, sp, lr}^
    1ce0:	0200682e 	andeq	r6, r0, #3014656	; 0x2e0000
    1ce4:	05000000 	streq	r0, [r0, #-0]
    1ce8:	02050024 	andeq	r0, r5, #36, 0	; 0x24
    1cec:	000096f0 	strdeq	r9, [r0], -r0
    1cf0:	01260514 			; <UNDEFINED> instruction: 0x01260514
    1cf4:	01062405 	tsteq	r6, r5, lsl #8
    1cf8:	2e26052e 	cfsh64cs	mvdx0, mvdx6, #30
    1cfc:	2e063405 	cdpcs	4, 0, cr3, cr6, cr5, {0}
    1d00:	01060105 	tsteq	r6, r5, lsl #2
    1d04:	4f061b05 	svcmi	0x00061b05
    1d08:	05130505 	ldreq	r0, [r3, #-1285]	; 0xfffffafb
    1d0c:	05010611 	streq	r0, [r1, #-1553]	; 0xfffff9ef
    1d10:	23056701 	movwcs	r6, #22273	; 0x5701
    1d14:	05056706 	streq	r6, [r5, #-1798]	; 0xfffff8fa
    1d18:	06110513 			; <UNDEFINED> instruction: 0x06110513
    1d1c:	4b010501 	blmi	43128 <__bss_end__+0x39148>
    1d20:	01000402 	tsteq	r0, r2, lsl #8
    1d24:	0000e201 	andeq	lr, r0, r1, lsl #4
    1d28:	59000300 	stmdbpl	r0, {r8, r9}
    1d2c:	02000000 	andeq	r0, r0, #0, 0
    1d30:	0d0efb01 	vstreq	d15, [lr, #-4]
    1d34:	01010100 	mrseq	r0, (UNDEF: 17)
    1d38:	00000001 	andeq	r0, r0, r1
    1d3c:	01000001 	tsteq	r0, r1
    1d40:	696c2f2e 	stmdbvs	ip!, {r1, r2, r3, r5, r8, r9, sl, fp, sp}^
    1d44:	2f006362 	svccs	0x00006362
    1d48:	72657355 	rsbvc	r7, r5, #1409286145	; 0x54000001
    1d4c:	696d2f73 	stmdbvs	sp!, {r0, r1, r4, r5, r6, r8, r9, sl, fp, sp}^
    1d50:	2f73656c 	svccs	0x0073656c
    1d54:	72756f53 	rsbsvc	r6, r5, #332	; 0x14c
    1d58:	632f6563 			; <UNDEFINED> instruction: 0x632f6563
    1d5c:	30343273 	eorscc	r3, r4, r3, ror r2
    1d60:	6c2f786c 	stcvs	8, cr7, [pc], #-432	; 1bb8 <__code_start__-0x6448>
    1d64:	69706269 	ldmdbvs	r0!, {r0, r3, r5, r6, r9, sp, lr}^
    1d68:	636e692f 	cmnvs	lr, #770048	; 0xbc000
    1d6c:	6564756c 	strbvs	r7, [r4, #-1388]!	; 0xfffffa94
    1d70:	74730000 	ldrbtvc	r0, [r3], #-0
    1d74:	74616372 	strbtvc	r6, [r1], #-882	; 0xfffffc8e
    1d78:	0100632e 	tsteq	r0, lr, lsr #6
    1d7c:	70720000 	rsbsvc	r0, r2, r0
    1d80:	00682e69 	rsbeq	r2, r8, r9, ror #28
    1d84:	00000002 	andeq	r0, r0, r2
    1d88:	05002c05 	streq	r2, [r0, #-3077]	; 0xfffff3fb
    1d8c:	00972c02 	addseq	r2, r7, r2, lsl #24
    1d90:	05051500 	streq	r1, [r5, #-1280]	; 0xfffffb00
    1d94:	0b051313 	bleq	1469e8 <__bss_end__+0x13ca08>
    1d98:	05051106 	streq	r1, [r5, #-262]	; 0xfffffefa
    1d9c:	01040200 	mrseq	r0, R12_usr
    1da0:	02003006 	andeq	r3, r0, #6, 0
    1da4:	05150104 	ldreq	r0, [r5, #-260]	; 0xfffffefc
    1da8:	04020009 	streq	r0, [r2], #-9
    1dac:	0b051301 	bleq	1469b8 <__bss_end__+0x13c9d8>
    1db0:	01040200 	mrseq	r0, R12_usr
    1db4:	0005052f 	andeq	r0, r5, pc, lsr #10
    1db8:	06010402 	streq	r0, [r1], -r2, lsl #8
    1dbc:	04020001 	streq	r0, [r2], #-1
    1dc0:	4e062e01 	cdpmi	14, 0, cr2, cr6, cr1, {0}
    1dc4:	01060805 	tsteq	r6, r5, lsl #16
    1dc8:	02000505 	andeq	r0, r0, #20971520	; 0x1400000
    1dcc:	2f060104 	svccs	0x00060104
    1dd0:	02000905 	andeq	r0, r0, #81920	; 0x14000
    1dd4:	05130104 	ldreq	r0, [r3, #-260]	; 0xfffffefc
    1dd8:	0402000b 	streq	r0, [r2], #-11
    1ddc:	05010601 	streq	r0, [r1, #-1537]	; 0xfffff9ff
    1de0:	04020009 	streq	r0, [r2], #-9
    1de4:	052f0601 	streq	r0, [pc, #-1537]!	; 17eb <__code_start__-0x6815>
    1de8:	04020005 	streq	r0, [r2], #-5
    1dec:	05130601 	ldreq	r0, [r3, #-1537]	; 0xfffff9ff
    1df0:	0402000f 	streq	r0, [r2], #-15
    1df4:	0d052d01 	stceq	13, cr2, [r5, #-4]
    1df8:	01040200 	mrseq	r0, R12_usr
    1dfc:	05052f06 	streq	r2, [r5, #-3846]	; 0xfffff0fa
    1e00:	01040200 	mrseq	r0, R12_usr
    1e04:	04020106 	streq	r0, [r2], #-262	; 0xfffffefa
    1e08:	b2010100 	andlt	r0, r1, #0
    1e0c:	03000000 	movweq	r0, #0
    1e10:	00005900 	andeq	r5, r0, r0, lsl #18
    1e14:	fb010200 	blx	4261e <__bss_end__+0x3863e>
    1e18:	01000d0e 	tsteq	r0, lr, lsl #26
    1e1c:	00010101 	andeq	r0, r1, r1, lsl #2
    1e20:	00010000 	andeq	r0, r1, r0
    1e24:	2f2e0100 	svccs	0x002e0100
    1e28:	6362696c 	cmnvs	r2, #108, 18	; 0x1b0000
    1e2c:	73552f00 	cmpvc	r5, #0, 30
    1e30:	2f737265 	svccs	0x00737265
    1e34:	656c696d 	strbvs	r6, [ip, #-2413]!	; 0xfffff693
    1e38:	6f532f73 	svcvs	0x00532f73
    1e3c:	65637275 	strbvs	r7, [r3, #-629]!	; 0xfffffd8b
    1e40:	3273632f 	rsbscc	r6, r3, #-1140850688	; 0xbc000000
    1e44:	786c3034 	stmdavc	ip!, {r2, r4, r5, ip, sp}^
    1e48:	62696c2f 	rsbvs	r6, r9, #12032	; 0x2f00
    1e4c:	692f6970 	stmdbvs	pc!, {r4, r5, r6, r8, fp, sp, lr}	; <UNPREDICTABLE>
    1e50:	756c636e 	strbvc	r6, [ip, #-878]!	; 0xfffffc92
    1e54:	00006564 	andeq	r6, r0, r4, ror #10
    1e58:	63727473 	cmnvs	r2, #1929379840	; 0x73000000
    1e5c:	632e706d 			; <UNDEFINED> instruction: 0x632e706d
    1e60:	00000100 	andeq	r0, r0, r0, lsl #2
    1e64:	2e697072 	mcrcs	0, 3, r7, cr9, cr2, {3}
    1e68:	00020068 	andeq	r0, r2, r8, rrx
    1e6c:	2a050000 	bcs	141e74 <__bss_end__+0x137e94>
    1e70:	58020500 	stmdapl	r2, {r8, sl}
    1e74:	14000097 	strne	r0, [r0], #-151	; 0xffffff69
    1e78:	05130905 	ldreq	r0, [r3, #-2309]	; 0xfffff6fb
    1e7c:	05010610 	streq	r0, [r1, #-1552]	; 0xfffff9f0
    1e80:	052e060f 	streq	r0, [lr, #-1551]!	; 0xfffff9f1
    1e84:	05820610 	streq	r0, [r2, #1552]	; 0x610
    1e88:	11052e0f 	tstne	r5, pc, lsl #28
    1e8c:	01040200 	mrseq	r0, R12_usr
    1e90:	1c054b06 			; <UNDEFINED> instruction: 0x1c054b06
    1e94:	01040200 	mrseq	r0, R12_usr
    1e98:	0f052d06 	svceq	0x00052d06
    1e9c:	01040200 	mrseq	r0, R12_usr
    1ea0:	13052e06 	movwne	r2, #24070	; 0x5e06
    1ea4:	01040200 	mrseq	r0, R12_usr
    1ea8:	09050106 	stmdbeq	r5, {r1, r2, r8}
    1eac:	01054c06 	tsteq	r5, r6, lsl #24
    1eb0:	054a1306 	strbeq	r1, [sl, #-774]	; 0xfffffcfa
    1eb4:	052d0609 	streq	r0, [sp, #-1545]!	; 0xfffff9f7
    1eb8:	2e130601 	cfmsub32cs	mvax0, mvfx0, mvfx3, mvfx1
    1ebc:	01000202 	tsteq	r0, r2, lsl #4
    1ec0:	00009d01 	andeq	r9, r0, r1, lsl #26
    1ec4:	59000300 	stmdbpl	r0, {r8, r9}
    1ec8:	02000000 	andeq	r0, r0, #0, 0
    1ecc:	0d0efb01 	vstreq	d15, [lr, #-4]
    1ed0:	01010100 	mrseq	r0, (UNDEF: 17)
    1ed4:	00000001 	andeq	r0, r0, r1
    1ed8:	01000001 	tsteq	r0, r1
    1edc:	696c2f2e 	stmdbvs	ip!, {r1, r2, r3, r5, r8, r9, sl, fp, sp}^
    1ee0:	2f006362 	svccs	0x00006362
    1ee4:	72657355 	rsbvc	r7, r5, #1409286145	; 0x54000001
    1ee8:	696d2f73 	stmdbvs	sp!, {r0, r1, r4, r5, r6, r8, r9, sl, fp, sp}^
    1eec:	2f73656c 	svccs	0x0073656c
    1ef0:	72756f53 	rsbsvc	r6, r5, #332	; 0x14c
    1ef4:	632f6563 			; <UNDEFINED> instruction: 0x632f6563
    1ef8:	30343273 	eorscc	r3, r4, r3, ror r2
    1efc:	6c2f786c 	stcvs	8, cr7, [pc], #-432	; 1d54 <__code_start__-0x62ac>
    1f00:	69706269 	ldmdbvs	r0!, {r0, r3, r5, r6, r9, sp, lr}^
    1f04:	636e692f 	cmnvs	lr, #770048	; 0xbc000
    1f08:	6564756c 	strbvs	r7, [r4, #-1388]!	; 0xfffffa94
    1f0c:	74730000 	ldrbtvc	r0, [r3], #-0
    1f10:	79706372 	ldmdbvc	r0!, {r1, r4, r5, r6, r8, r9, sp, lr}^
    1f14:	0100632e 	tsteq	r0, lr, lsr #6
    1f18:	70720000 	rsbsvc	r0, r2, r0
    1f1c:	00682e69 	rsbeq	r2, r8, r9, ror #28
    1f20:	00000002 	andeq	r0, r0, r2
    1f24:	05002a05 	streq	r2, [r0, #-2565]	; 0xfffff5fb
    1f28:	00979c02 	addseq	r9, r7, r2, lsl #24
    1f2c:	05051400 	streq	r1, [r5, #-1024]	; 0xfffffc00
    1f30:	22051313 	andcs	r1, r5, #1275068416	; 0x4c000000
    1f34:	01040200 	mrseq	r0, R12_usr
    1f38:	000b052e 	andeq	r0, fp, lr, lsr #10
    1f3c:	01010402 	tsteq	r1, r2, lsl #8
    1f40:	02001505 	andeq	r1, r0, #20971520	; 0x1400000
    1f44:	01060104 	tsteq	r6, r4, lsl #2
    1f48:	02000b05 	andeq	r0, r0, #5120	; 0x1400
    1f4c:	052e0104 	streq	r0, [lr, #-260]!	; 0xfffffefc
    1f50:	04020013 	streq	r0, [r2], #-19	; 0xffffffed
    1f54:	0b052e01 	bleq	14d760 <__bss_end__+0x143780>
    1f58:	01040200 	mrseq	r0, R12_usr
    1f5c:	0004022e 	andeq	r0, r4, lr, lsr #4
    1f60:	00fd0101 	rscseq	r0, sp, r1, lsl #2
    1f64:	00030000 	andeq	r0, r3, r0
    1f68:	000000bf 	strheq	r0, [r0], -pc	; <UNPREDICTABLE>
    1f6c:	0efb0102 	cdpeq	1, 15, cr0, cr11, cr2, {0}
    1f70:	0101000d 	tsteq	r1, sp
    1f74:	00000101 	andeq	r0, r0, r1, lsl #2
    1f78:	00000100 	andeq	r0, r0, r0, lsl #2
    1f7c:	6c2f2e01 	stcvs	14, cr2, [pc], #-4	; 1f80 <__code_start__-0x6080>
    1f80:	00636269 	rsbeq	r6, r3, r9, ror #4
    1f84:	6573552f 	ldrbvs	r5, [r3, #-1327]!	; 0xfffffad1
    1f88:	6d2f7372 	stcvs	3, cr7, [pc, #-456]!	; 1dc8 <__code_start__-0x6238>
    1f8c:	73656c69 	cmnvc	r5, #26880	; 0x6900
    1f90:	756f532f 	strbvc	r5, [pc, #-815]!	; 1c69 <__code_start__-0x6397>
    1f94:	2f656372 	svccs	0x00656372
    1f98:	34327363 	ldrtcc	r7, [r2], #-867	; 0xfffffc9d
    1f9c:	2f786c30 	svccs	0x00786c30
    1fa0:	7062696c 	rsbvc	r6, r2, ip, ror #18
    1fa4:	6e692f69 	cdpvs	15, 6, cr2, cr9, cr9, {3}
    1fa8:	64756c63 	ldrbtvs	r6, [r5], #-3171	; 0xfffff39d
    1fac:	6f2f0065 	svcvs	0x002f0065
    1fb0:	682f7470 	stmdavs	pc!, {r4, r5, r6, sl, ip, sp, lr}	; <UNPREDICTABLE>
    1fb4:	62656d6f 	rsbvs	r6, r5, #7104	; 0x1bc0
    1fb8:	2f776572 	svccs	0x00776572
    1fbc:	6c6c6543 	cfstr64vs	mvdx6, [ip], #-268	; 0xfffffef4
    1fc0:	612f7261 			; <UNDEFINED> instruction: 0x612f7261
    1fc4:	6e2d6d72 	mcrvs	13, 1, r6, cr13, cr2, {3}
    1fc8:	2d656e6f 	stclcs	14, cr6, [r5, #-444]!	; 0xfffffe44
    1fcc:	69626165 	stmdbvs	r2!, {r0, r2, r5, r6, r8, sp, lr}^
    1fd0:	392f392d 	stmdbcc	pc!, {r0, r2, r3, r5, r8, fp, ip, sp}	; <UNPREDICTABLE>
    1fd4:	3130322d 	teqcc	r0, sp, lsr #4
    1fd8:	2d347139 	ldfcss	f7, [r4, #-228]!	; 0xffffff1c
    1fdc:	30317363 	eorscc	r7, r1, r3, ror #6
    1fe0:	6c2f6537 	cfstr32vs	mvfx6, [pc], #-220	; 1f0c <__code_start__-0x60f4>
    1fe4:	672f6269 	strvs	r6, [pc, -r9, ror #4]!
    1fe8:	612f6363 			; <UNDEFINED> instruction: 0x612f6363
    1fec:	6e2d6d72 	mcrvs	13, 1, r6, cr13, cr2, {3}
    1ff0:	2d656e6f 	stclcs	14, cr6, [r5, #-444]!	; 0xfffffe44
    1ff4:	69626165 	stmdbvs	r2!, {r0, r2, r5, r6, r8, sp, lr}^
    1ff8:	322e392f 	eorcc	r3, lr, #770048	; 0xbc000
    1ffc:	692f312e 	stmdbvs	pc!, {r1, r2, r3, r5, r8, ip, sp}	; <UNPREDICTABLE>
    2000:	756c636e 	strbvc	r6, [ip, #-878]!	; 0xfffffc92
    2004:	00006564 	andeq	r6, r0, r4, ror #10
    2008:	6e727473 	mrcvs	4, 3, r7, cr2, cr3, {3}
    200c:	2e706d63 	cdpcs	13, 7, cr6, cr0, cr3, {3}
    2010:	00010063 	andeq	r0, r1, r3, rrx
    2014:	69707200 	ldmdbvs	r0!, {r9, ip, sp, lr}^
    2018:	0200682e 	andeq	r6, r0, #3014656	; 0x2e0000
    201c:	74730000 	ldrbtvc	r0, [r3], #-0
    2020:	66656464 	strbtvs	r6, [r5], -r4, ror #8
    2024:	0300682e 	movweq	r6, #2094	; 0x82e
    2028:	05000000 	streq	r0, [r0, #-0]
    202c:	02050039 	andeq	r0, r5, #57, 0	; 0x39
    2030:	000097b4 			; <UNDEFINED> instruction: 0x000097b4
    2034:	13050515 	movwne	r0, #21781	; 0x5515
    2038:	060a0513 			; <UNDEFINED> instruction: 0x060a0513
    203c:	2f0c052e 	svccs	0x000c052e
    2040:	052e1305 	streq	r1, [lr, #-773]!	; 0xfffffcfb
    2044:	09052e0b 	stmdbeq	r5, {r0, r1, r3, r9, sl, fp, sp}
    2048:	0a054a06 	beq	154868 <__bss_end__+0x14a888>
    204c:	05010611 	streq	r0, [r1, #-1553]	; 0xfffff9ef
    2050:	01054e0c 	tsteq	r5, ip, lsl #28
    2054:	060d052f 	streq	r0, [sp], -pc, lsr #10
    2058:	061b052b 	ldreq	r0, [fp], -fp, lsr #10
    205c:	02022e01 	andeq	r2, r2, #1, 28
    2060:	8a010100 	bhi	42468 <__bss_end__+0x38488>
    2064:	03000000 	movweq	r0, #0
    2068:	00006e00 	andeq	r6, r0, r0, lsl #28
    206c:	fb010200 	blx	42876 <__bss_end__+0x38896>
    2070:	01000d0e 	tsteq	r0, lr, lsl #26
    2074:	00010101 	andeq	r0, r1, r1, lsl #2
    2078:	00010000 	andeq	r0, r1, r0
    207c:	2f2e0100 	svccs	0x002e0100
    2080:	66617473 			; <UNDEFINED> instruction: 0x66617473
    2084:	72732d66 	rsbsvc	r2, r3, #6528	; 0x1980
    2088:	552f0063 	strpl	r0, [pc, #-99]!	; 202d <__code_start__-0x5fd3>
    208c:	73726573 	cmnvc	r2, #482344960	; 0x1cc00000
    2090:	6c696d2f 	stclvs	13, cr6, [r9], #-188	; 0xffffff44
    2094:	532f7365 			; <UNDEFINED> instruction: 0x532f7365
    2098:	6372756f 	cmnvs	r2, #465567744	; 0x1bc00000
    209c:	73632f65 	cmnvc	r3, #404	; 0x194
    20a0:	6c303432 	cfldrsvs	mvf3, [r0], #-200	; 0xffffff38
    20a4:	696c2f78 	stmdbvs	ip!, {r3, r4, r5, r6, r8, r9, sl, fp, sp}^
    20a8:	2f697062 	svccs	0x00697062
    20ac:	6c636e69 	stclvs	14, cr6, [r3], #-420	; 0xfffffe5c
    20b0:	00656475 	rsbeq	r6, r5, r5, ror r4
    20b4:	66656400 	strbtvs	r6, [r5], -r0, lsl #8
    20b8:	746c7561 	strbtvc	r7, [ip], #-1377	; 0xfffffa9f
    20bc:	6265722d 	rsbvs	r7, r5, #-805306366	; 0xd0000002
    20c0:	2d746f6f 	ldclcs	15, cr6, [r4, #-444]!	; 0xfffffe44
    20c4:	6c6c6163 	stfvse	f6, [ip], #-396	; 0xfffffe74
    20c8:	2e74756f 	cdpcs	5, 7, cr7, cr4, cr15, {3}
    20cc:	00010063 	andeq	r0, r1, r3, rrx
    20d0:	69707200 	ldmdbvs	r0!, {r9, ip, sp, lr}^
    20d4:	0200682e 	andeq	r6, r0, #3014656	; 0x2e0000
    20d8:	05000000 	streq	r0, [r0, #-0]
    20dc:	0205001b 	andeq	r0, r5, #27, 0
    20e0:	000097e4 	andeq	r9, r0, r4, ror #15
    20e4:	011c0514 	tsteq	ip, r4, lsl r5
    20e8:	01060105 	tsteq	r6, r5, lsl #2
    20ec:	01000202 	tsteq	r0, r2, lsl #4
    20f0:	Address 0x00000000000020f0 is out of bounds.


Disassembly of section .debug_str:

00000000 <.debug_str>:
   0:	6d746f6e 	ldclvs	15, cr6, [r4, #-440]!	; 0xfffffe48
   4:	006e6961 	rsbeq	r6, lr, r1, ror #18
   8:	69736e75 	ldmdbvs	r3!, {r0, r2, r4, r5, r6, r9, sl, fp, sp, lr}^
   c:	64656e67 	strbtvs	r6, [r5], #-3687	; 0xfffff199
  10:	61686320 	cmnvs	r8, r0, lsr #6
  14:	6c630072 	stclvs	0, cr0, [r3], #-456	; 0xfffffe38
  18:	5f6e6165 	svcpl	0x006e6165
  1c:	6f626572 	svcvs	0x00626572
  20:	7300746f 	movwvc	r7, #1135	; 0x46f
  24:	74726f68 	ldrbtvc	r6, [r2], #-3944	; 0xfffff098
  28:	736e7520 	cmnvc	lr, #32, 10	; 0x8000000
  2c:	656e6769 	strbvs	r6, [lr, #-1897]!	; 0xfffff897
  30:	6e692064 	cdpvs	0, 6, cr2, cr9, cr4, {3}
  34:	6f640074 	svcvs	0x00640074
  38:	656c6275 	strbvs	r6, [ip, #-629]!	; 0xfffffd8b
  3c:	465f5f00 	ldrbmi	r5, [pc], -r0, lsl #30
  40:	54434e55 	strbpl	r4, [r3], #-3669	; 0xfffff1ab
  44:	5f4e4f49 	svcpl	0x004e4f49
  48:	746e005f 	strbtvc	r0, [lr], #-95	; 0xffffffa1
  4c:	73747365 	cmnvc	r4, #-1811939327	; 0x94000001
  50:	742d3100 	strtvc	r3, [sp], #-256	; 0xffffff00
  54:	2d747365 	ldclcs	3, cr7, [r4, #-404]!	; 0xfffffe6c
  58:	6c6c616d 	stfvse	f6, [ip], #-436	; 0xfffffe4c
  5c:	632e636f 			; <UNDEFINED> instruction: 0x632e636f
  60:	6e6f6c00 	cdpvs	12, 6, cr6, cr15, cr0, {0}
  64:	6f6c2067 	svcvs	0x006c2067
  68:	7520676e 	strvc	r6, [r0, #-1902]!	; 0xfffff892
  6c:	6769736e 	strbvs	r7, [r9, -lr, ror #6]!
  70:	2064656e 	rsbcs	r6, r4, lr, ror #10
  74:	00746e69 	rsbseq	r6, r4, r9, ror #28
  78:	676e6f6c 	strbvs	r6, [lr, -ip, ror #30]!
  7c:	6e6f6c20 	cdpvs	12, 6, cr6, cr15, cr0, {1}
  80:	6e692067 	cdpvs	0, 6, cr2, cr9, cr7, {3}
  84:	70720074 	rsbsvc	r0, r2, r4, ror r0
  88:	75705f69 	ldrbvc	r5, [r0, #-3945]!	; 0xfffff097
  8c:	61686374 	smcvs	34356	; 0x8634
  90:	552f0072 	strpl	r0, [pc, #-114]!	; 26 <__code_start__-0x7fda>
  94:	73726573 	cmnvc	r2, #482344960	; 0x1cc00000
  98:	6c696d2f 	stclvs	13, cr6, [r9], #-188	; 0xffffff44
  9c:	532f7365 			; <UNDEFINED> instruction: 0x532f7365
  a0:	6372756f 	cmnvs	r2, #465567744	; 0x1bc00000
  a4:	73632f65 	cmnvc	r3, #404	; 0x194
  a8:	6c303432 	cfldrsvs	mvf3, [r0], #-200	; 0xffffff38
  ac:	616c2f78 	smcvs	49912	; 0xc2f8
  b0:	352f7362 	strcc	r7, [pc, #-866]!	; fffffd56 <__bss_end__+0xffff5d76>
  b4:	6c616d2d 	stclvs	13, cr6, [r1], #-180	; 0xffffff4c
  b8:	2b636f6c 	blcs	18dbe70 <__bss_end__+0x18d1e90>
  bc:	322f6367 	eorcc	r6, pc, #-1677721599	; 0x9c000001
  c0:	616b632d 	cmnvs	fp, sp, lsr #6
  c4:	636f6c6c 	cmnvs	pc, #108, 24	; 0x6c00
  c8:	6f687300 	svcvs	0x00687300
  cc:	69207472 	stmdbvs	r0!, {r1, r4, r5, r6, sl, ip, sp, lr}
  d0:	6b00746e 	blvs	1d290 <__bss_end__+0x132b0>
  d4:	616d5f72 	smcvs	54770	; 0xd5f2
  d8:	636f6c6c 	cmnvs	pc, #108, 24	; 0x6c00
  dc:	554e4700 	strbpl	r4, [lr, #-1792]	; 0xfffff900
  e0:	39394320 	ldmdbcc	r9!, {r5, r8, r9, lr}
  e4:	322e3920 	eorcc	r3, lr, #32, 18	; 0x80000
  e8:	3220312e 	eorcc	r3, r0, #-2147483637	; 0x8000000b
  ec:	31393130 	teqcc	r9, r0, lsr r1
  f0:	20353230 	eorscs	r3, r5, r0, lsr r2
  f4:	6c657228 	sfmvs	f7, 2, [r5], #-160	; 0xffffff60
  f8:	65736165 	ldrbvs	r6, [r3, #-357]!	; 0xfffffe9b
  fc:	415b2029 	cmpmi	fp, r9, lsr #32
 100:	612f4d52 			; <UNDEFINED> instruction: 0x612f4d52
 104:	392d6d72 	pushcc	{r1, r4, r5, r6, r8, sl, fp, sp, lr}
 108:	6172622d 	cmnvs	r2, sp, lsr #4
 10c:	2068636e 	rsbcs	r6, r8, lr, ror #6
 110:	69766572 	ldmdbvs	r6!, {r1, r4, r5, r6, r8, sl, sp, lr}^
 114:	6e6f6973 			; <UNDEFINED> instruction: 0x6e6f6973
 118:	37373220 	ldrcc	r3, [r7, -r0, lsr #4]!
 11c:	5d393935 			; <UNDEFINED> instruction: 0x5d393935
 120:	636d2d20 	cmnvs	sp, #32, 26	; 0x800
 124:	613d7570 	teqvs	sp, r0, ror r5
 128:	31316d72 	teqcc	r1, r2, ror sp
 12c:	7a6a3637 	bvc	1a8da10 <__bss_end__+0x1a83a30>
 130:	20732d66 	rsbscs	r2, r3, r6, ror #26
 134:	75746d2d 	ldrbvc	r6, [r4, #-3373]!	; 0xfffff2d3
 138:	613d656e 	teqvs	sp, lr, ror #10
 13c:	31316d72 	teqcc	r1, r2, ror sp
 140:	7a6a3637 	bvc	1a8da24 <__bss_end__+0x1a83a44>
 144:	20732d66 	rsbscs	r2, r3, r6, ror #26
 148:	6c666d2d 	stclvs	13, cr6, [r6], #-180	; 0xffffff4c
 14c:	2d74616f 	ldfcse	f6, [r4, #-444]!	; 0xfffffe44
 150:	3d696261 	sfmcc	f6, 2, [r9, #-388]!	; 0xfffffe7c
 154:	74666f73 	strbtvc	r6, [r6], #-3955	; 0xfffff08d
 158:	616d2d20 	cmnvs	sp, r0, lsr #26
 15c:	2d206d72 	stccs	13, cr6, [r0, #-456]!	; 0xfffffe38
 160:	6372616d 	cmnvs	r2, #1073741851	; 0x4000001b
 164:	72613d68 	rsbvc	r3, r1, #104, 26	; 0x1a00
 168:	6b36766d 	blvs	d9db24 <__bss_end__+0xd93b44>
 16c:	672d207a 			; <UNDEFINED> instruction: 0x672d207a
 170:	20626467 	rsbcs	r6, r2, r7, ror #8
 174:	20674f2d 	rsbcs	r4, r7, sp, lsr #30
 178:	6474732d 	ldrbtvs	r7, [r4], #-813	; 0xfffffcd3
 17c:	756e673d 	strbvc	r6, [lr, #-1853]!	; 0xfffff8c3
 180:	2d203939 			; <UNDEFINED> instruction: 0x2d203939
 184:	65726666 	ldrbvs	r6, [r2, #-1638]!	; 0xfffff99a
 188:	61747365 	cmnvs	r4, r5, ror #6
 18c:	6e69646e 	cdpvs	4, 6, cr6, cr9, cr14, {3}
 190:	65680067 	strbvs	r0, [r8, #-103]!	; 0xffffff99
 194:	72656461 	rsbvc	r6, r5, #1627389952	; 0x61000000
 198:	65727000 	ldrbvs	r7, [r2, #-0]!
 19c:	61007076 	tstvs	r0, r6, ror r0
 1a0:	6e67696c 	vnmulvs.f16	s13, s14, s25	; <UNPREDICTABLE>
 1a4:	5f726b00 	svcpl	0x00726b00
 1a8:	65657266 	strbvs	r7, [r5, #-614]!	; 0xfffffd9a
 1ac:	65726600 	ldrbvs	r6, [r2, #-1536]!	; 0xfffffa00
 1b0:	6e007065 	cdpvs	0, 0, cr7, cr0, cr5, {3}
 1b4:	74696e75 	strbtvc	r6, [r9], #-3701	; 0xfffff18b
 1b8:	726b0073 	rsbvc	r0, fp, #115, 0	; 0x73
 1bc:	6c616d2d 	stclvs	13, cr6, [r1], #-180	; 0xffffff4c
 1c0:	2e636f6c 	cdpcs	15, 6, cr6, cr3, cr12, {3}
 1c4:	61620063 	cmnvs	r2, r3, rrx
 1c8:	73006573 	movwvc	r6, #1395	; 0x573
 1cc:	006b7262 	rsbeq	r7, fp, r2, ror #4
 1d0:	65726f6d 	ldrbvs	r6, [r2, #-3949]!	; 0xfffff093
 1d4:	65726f63 	ldrbvs	r6, [r2, #-3939]!	; 0xfffff09d
 1d8:	7a697300 	bvc	1a5cde0 <__bss_end__+0x1a52e00>
 1dc:	65480065 	strbvs	r0, [r8, #-101]	; 0xffffff9b
 1e0:	72656461 	rsbvc	r6, r5, #1627389952	; 0x61000000
 1e4:	636e6900 	cmnvs	lr, #0, 18
 1e8:	656d6572 	strbvs	r6, [sp, #-1394]!	; 0xfffffa8e
 1ec:	6b00746e 	blvs	1d3ac <__bss_end__+0x133cc>
 1f0:	6c6c616d 	stfvse	f6, [ip], #-436	; 0xfffffe4c
 1f4:	7000636f 	andvc	r6, r0, pc, ror #6
 1f8:	62732d69 	rsbsvs	r2, r3, #6720	; 0x1a40
 1fc:	632e6b72 			; <UNDEFINED> instruction: 0x632e6b72
 200:	67726100 	ldrbvs	r6, [r2, -r0, lsl #2]!
 204:	61760073 	cmnvs	r6, r3, ror r0
 208:	6972705f 	ldmdbvs	r2!, {r0, r1, r2, r3, r4, r6, ip, sp, lr}^
 20c:	006b746e 	rsbeq	r7, fp, lr, ror #8
 210:	6e675f5f 	mcrvs	15, 3, r5, cr7, cr15, {2}
 214:	765f6375 			; <UNDEFINED> instruction: 0x765f6375
 218:	696c5f61 	stmdbvs	ip!, {r0, r5, r6, r8, r9, sl, fp, ip, lr}^
 21c:	47007473 	smlsdxmi	r0, r3, r4, r7
 220:	4320554e 			; <UNDEFINED> instruction: 0x4320554e
 224:	39203939 	stmdbcc	r0!, {r0, r3, r4, r5, r8, fp, ip, sp}
 228:	312e322e 			; <UNDEFINED> instruction: 0x312e322e
 22c:	31303220 	teqcc	r0, r0, lsr #4
 230:	32303139 	eorscc	r3, r0, #1073741838	; 0x4000000e
 234:	72282035 	eorvc	r2, r8, #53, 0	; 0x35
 238:	61656c65 	cmnvs	r5, r5, ror #24
 23c:	20296573 	eorcs	r6, r9, r3, ror r5
 240:	4d52415b 	ldfmie	f4, [r2, #-364]	; 0xfffffe94
 244:	6d72612f 	ldfvse	f6, [r2, #-188]!	; 0xffffff44
 248:	622d392d 	eorvs	r3, sp, #737280	; 0xb4000
 24c:	636e6172 	cmnvs	lr, #-2147483620	; 0x8000001c
 250:	65722068 	ldrbvs	r2, [r2, #-104]!	; 0xffffff98
 254:	69736976 	ldmdbvs	r3!, {r1, r2, r4, r5, r6, r8, fp, sp, lr}^
 258:	32206e6f 	eorcc	r6, r0, #1776	; 0x6f0
 25c:	39353737 	ldmdbcc	r5!, {r0, r1, r2, r4, r5, r8, r9, sl, ip, sp}
 260:	2d205d39 	stccs	13, cr5, [r0, #-228]!	; 0xffffff1c
 264:	7570636d 	ldrbvc	r6, [r0, #-877]!	; 0xfffffc93
 268:	6d72613d 	ldfvse	f6, [r2, #-244]!	; 0xffffff0c
 26c:	36373131 			; <UNDEFINED> instruction: 0x36373131
 270:	2d667a6a 	vstmdbcs	r6!, {s15-s120}
 274:	6d2d2073 	stcvs	0, cr2, [sp, #-460]!	; 0xfffffe34
 278:	656e7574 	strbvs	r7, [lr, #-1396]!	; 0xfffffa8c
 27c:	6d72613d 	ldfvse	f6, [r2, #-244]!	; 0xffffff0c
 280:	36373131 			; <UNDEFINED> instruction: 0x36373131
 284:	2d667a6a 	vstmdbcs	r6!, {s15-s120}
 288:	6d2d2073 	stcvs	0, cr2, [sp, #-460]!	; 0xfffffe34
 28c:	616f6c66 	cmnvs	pc, r6, ror #24
 290:	62612d74 	rsbvs	r2, r1, #116, 26	; 0x1d00
 294:	6f733d69 	svcvs	0x00733d69
 298:	2d207466 	cfstrscs	mvf7, [r0, #-408]!	; 0xfffffe68
 29c:	6d72616d 	ldfvse	f6, [r2, #-436]!	; 0xfffffe4c
 2a0:	616d2d20 	cmnvs	sp, r0, lsr #26
 2a4:	3d686372 	stclcc	3, cr6, [r8, #-456]!	; 0xfffffe38
 2a8:	766d7261 	strbtvc	r7, [sp], -r1, ror #4
 2ac:	207a6b36 	rsbscs	r6, sl, r6, lsr fp
 2b0:	6467672d 	strbtvs	r6, [r7], #-1837	; 0xfffff8d3
 2b4:	4f2d2062 	svcmi	0x002d2062
 2b8:	74736166 	ldrbtvc	r6, [r3], #-358	; 0xfffffe9a
 2bc:	74732d20 	ldrbtvc	r2, [r3], #-3360	; 0xfffff2e0
 2c0:	6e673d64 	cdpvs	13, 6, cr3, cr7, cr4, {3}
 2c4:	20393975 	eorscs	r3, r9, r5, ror r9
 2c8:	7266662d 	rsbvc	r6, r6, #47185920	; 0x2d00000
 2cc:	74736565 	ldrbtvc	r6, [r3], #-1381	; 0xfffffa9b
 2d0:	69646e61 	stmdbvs	r4!, {r0, r5, r6, r9, sl, fp, sp, lr}^
 2d4:	5f00676e 	svcpl	0x0000676e
 2d8:	0070615f 	rsbseq	r6, r0, pc, asr r1
 2dc:	696c2f2e 	stmdbvs	ip!, {r1, r2, r3, r5, r8, r9, sl, fp, sp}^
 2e0:	702f6362 	eorvc	r6, pc, r2, ror #6
 2e4:	746e6972 	strbtvc	r6, [lr], #-2418	; 0xfffff68e
 2e8:	00632e6b 	rsbeq	r2, r3, fp, ror #28
 2ec:	61765f5f 	cmnvs	r6, pc, asr pc
 2f0:	73696c5f 	cmnvc	r9, #24320	; 0x5f00
 2f4:	552f0074 	strpl	r0, [pc, #-116]!	; 288 <__code_start__-0x7d78>
 2f8:	73726573 	cmnvc	r2, #482344960	; 0x1cc00000
 2fc:	6c696d2f 	stclvs	13, cr6, [r9], #-188	; 0xffffff44
 300:	532f7365 			; <UNDEFINED> instruction: 0x532f7365
 304:	6372756f 	cmnvs	r2, #465567744	; 0x1bc00000
 308:	73632f65 	cmnvc	r3, #404	; 0x194
 30c:	6c303432 	cfldrsvs	mvf3, [r0], #-200	; 0xffffff38
 310:	696c2f78 	stmdbvs	ip!, {r3, r4, r5, r6, r8, r9, sl, fp, sp}^
 314:	00697062 	rsbeq	r7, r9, r2, rrx
 318:	65746e69 	ldrbvs	r6, [r4, #-3689]!	; 0xfffff197
 31c:	6c616e72 	stclvs	14, cr6, [r1], #-456	; 0xfffffe38
 320:	7475705f 	ldrbtvc	r7, [r5], #-95	; 0xffffffa1
 324:	2f2e006b 	svccs	0x002e006b
 328:	6362696c 	cmnvs	r2, #108, 18	; 0x1b0000
 32c:	7475702f 	ldrbtvc	r7, [r5], #-47	; 0xffffffd1
 330:	00632e6b 	rsbeq	r2, r3, fp, ror #28
 334:	69647369 	stmdbvs	r4!, {r0, r3, r5, r6, r8, r9, ip, sp, lr}^
 338:	00746967 	rsbseq	r6, r4, r7, ror #18
 33c:	746e6975 	strbtvc	r6, [lr], #-2421	; 0xfffff68b
 340:	745f3436 	ldrbvc	r3, [pc], #-1078	; 348 <__code_start__-0x7cb8>
 344:	6c2f2e00 	stcvs	14, cr2, [pc], #-0	; 34c <__code_start__-0x7cb4>
 348:	2f636269 	svccs	0x00636269
 34c:	702d6176 	eorvc	r6, sp, r6, ror r1
 350:	746e6972 	strbtvc	r6, [lr], #-2418	; 0xfffff68e
 354:	00632e6b 	rsbeq	r2, r3, fp, ror #28
 358:	6f635f5f 	svcvs	0x00635f5f
 35c:	735f6564 	cmpvc	pc, #100, 10	; 0x19000000
 360:	74726174 	ldrbtvc	r6, [r2], #-372	; 0xfffffe8c
 364:	5f005f5f 	svcpl	0x00005f5f
 368:	7373625f 	cmnvc	r3, #-268435451	; 0xf0000005
 36c:	6174735f 	cmnvs	r4, pc, asr r3
 370:	5f5f7472 	svcpl	0x005f7472
 374:	64697700 	strbtvs	r7, [r9], #-1792	; 0xfffff900
 378:	5f006874 	svcpl	0x00006874
 37c:	7461645f 	strbtvc	r6, [r1], #-1119	; 0xfffffba1
 380:	6e655f61 	cdpvs	15, 6, cr5, cr5, cr1, {3}
 384:	005f5f64 	subseq	r5, pc, r4, ror #30
 388:	63747570 	cmnvs	r4, #112, 10	; 0x1c000000
 38c:	0070665f 	rsbseq	r6, r0, pc, asr r6
 390:	73625f5f 	cmnvc	r2, #380	; 0x17c
 394:	6e655f73 	mcrvs	15, 3, r5, cr5, cr3, {3}
 398:	005f5f64 	subseq	r5, pc, r4, ror #30
 39c:	65685f5f 	strbvs	r5, [r8, #-3935]!	; 0xfffff0a1
 3a0:	735f7061 	cmpvc	pc, #97, 0	; 0x61
 3a4:	74726174 	ldrbtvc	r6, [r2], #-372	; 0xfffffe8c
 3a8:	75005f5f 	strvc	r5, [r0, #-3935]	; 0xfffff0a1
 3ac:	33746e69 	cmncc	r4, #1680	; 0x690
 3b0:	00745f32 	rsbseq	r5, r4, r2, lsr pc
 3b4:	5f697072 	svcpl	0x00697072
 3b8:	5f746573 	svcpl	0x00746573
 3bc:	7074756f 	rsbsvc	r7, r4, pc, ror #10
 3c0:	66007475 			; <UNDEFINED> instruction: 0x66007475
 3c4:	735f746d 	cmpvc	pc, #1828716544	; 0x6d000000
 3c8:	74726174 	ldrbtvc	r6, [r2], #-372	; 0xfffffe8c
 3cc:	72747300 	rsbsvc	r7, r4, #0, 6
 3d0:	00746163 	rsbseq	r6, r4, r3, ror #2
 3d4:	63727473 	cmnvs	r2, #1929379840	; 0x73000000
 3d8:	6e007970 			; <UNDEFINED> instruction: 0x6e007970
 3dc:	705f6765 	subsvc	r6, pc, r5, ror #14
 3e0:	635f5f00 	cmpvs	pc, #0, 30
 3e4:	5f65646f 	svcpl	0x0065646f
 3e8:	5f646e65 	svcpl	0x00646e65
 3ec:	6d65005f 	stclvs	0, cr0, [r5, #-380]!	; 0xfffffe84
 3f0:	72007469 	andvc	r7, r0, #1761607680	; 0x69000000
 3f4:	72657665 	rsbvc	r7, r5, #105906176	; 0x6500000
 3f8:	73006573 	movwvc	r6, #1395	; 0x573
 3fc:	6d637274 	sfmvs	f7, 2, [r3, #-464]!	; 0xfffffe30
 400:	75700070 	ldrbvc	r0, [r0, #-112]!	; 0xffffff90
 404:	665f7374 			; <UNDEFINED> instruction: 0x665f7374
 408:	5f5f0070 	svcpl	0x005f0070
 40c:	61746164 	cmnvs	r4, r4, ror #2
 410:	6174735f 	cmnvs	r4, pc, asr r3
 414:	5f5f7472 	svcpl	0x005f7472
 418:	705f5f00 	subsvc	r5, pc, r0, lsl #30
 41c:	5f676f72 	svcpl	0x00676f72
 420:	5f646e65 	svcpl	0x00646e65
 424:	756e005f 	strbvc	r0, [lr, #-95]!	; 0xffffffa1
 428:	7300316d 	movwvc	r3, #365	; 0x16d
 42c:	636e7274 	cmnvs	lr, #116, 4	; 0x40000007
 430:	7300706d 	movwvc	r7, #109	; 0x6d
 434:	656e6769 	strbvs	r6, [lr, #-1897]!	; 0xfffff897
 438:	00705f64 	rsbseq	r5, r0, r4, ror #30
 43c:	5f697072 	svcpl	0x00697072
 440:	6f626572 	svcvs	0x00626572
 444:	6400746f 	strvs	r7, [r0], #-1135	; 0xfffffb91
 448:	79616c65 	stmdbvc	r1!, {r0, r2, r5, r6, sl, fp, sp, lr}^
 44c:	00736d5f 	rsbseq	r6, r3, pc, asr sp
 450:	74732f2e 	ldrbtvc	r2, [r3], #-3886	; 0xfffff0d2
 454:	2d666661 	stclcs	6, cr6, [r6, #-388]!	; 0xfffffe7c
 458:	2f637273 	svccs	0x00637273
 45c:	61656c63 	cmnvs	r5, r3, ror #24
 460:	65722d6e 	ldrbvs	r2, [r2, #-3438]!	; 0xfffff292
 464:	746f6f62 	strbtvc	r6, [pc], #-3938	; 46c <__code_start__-0x7b94>
 468:	7500632e 	strvc	r6, [r0, #-814]	; 0xfffffcd2
 46c:	5f747261 	svcpl	0x00747261
 470:	73756c66 	cmnvc	r5, #26112	; 0x6600
 474:	78745f68 	ldmdavc	r4!, {r3, r5, r6, r8, r9, sl, fp, ip, lr}^
 478:	73635f00 	cmnvc	r3, #0, 30
 47c:	74726174 	ldrbtvc	r6, [r2], #-372	; 0xfffffe8c
 480:	73736200 	cmnvc	r3, #0, 4
 484:	646e655f 	strbtvs	r6, [lr], #-1375	; 0xfffffaa1
 488:	72617500 	rsbvc	r7, r1, #0, 10
 48c:	6e695f74 	mcrvs	15, 3, r5, cr9, cr4, {3}
 490:	63007469 	movwvs	r7, #1129	; 0x469
 494:	6f747375 	svcvs	0x00747375
 498:	6f6c5f6d 	svcvs	0x006c5f6d
 49c:	72656461 	rsbvc	r6, r5, #1627389952	; 0x61000000
 4a0:	732f2e00 			; <UNDEFINED> instruction: 0x732f2e00
 4a4:	66666174 			; <UNDEFINED> instruction: 0x66666174
 4a8:	6372732d 	cmnvs	r2, #-1275068416	; 0xb4000000
 4ac:	7473632f 	ldrbtvc	r6, [r3], #-815	; 0xfffffcd1
 4b0:	2e747261 	cdpcs	2, 7, cr7, cr4, cr1, {3}
 4b4:	2f2e0063 	svccs	0x002e0063
 4b8:	66617473 			; <UNDEFINED> instruction: 0x66617473
 4bc:	72732d66 	rsbsvc	r2, r3, #6528	; 0x1980
 4c0:	75632f63 	strbvc	r2, [r3, #-3939]!	; 0xfffff09d
 4c4:	6d6f7473 	cfstrdvs	mvd7, [pc, #-460]!	; 300 <__code_start__-0x7d00>
 4c8:	616f6c2d 	cmnvs	pc, sp, lsr #24
 4cc:	2e726564 	cdpcs	5, 7, cr6, cr2, cr4, {3}
 4d0:	65720063 	ldrbvs	r0, [r2, #-99]!	; 0xffffff9d
 4d4:	746f6f62 	strbtvc	r6, [pc], #-3938	; 4dc <__code_start__-0x7b24>
 4d8:	6c61635f 	stclvs	3, cr6, [r1], #-380	; 0xfffffe84
 4dc:	74756f6c 	ldrbtvc	r6, [r5], #-3948	; 0xfffff094
 4e0:	5f4d5000 	svcpl	0x004d5000
 4e4:	474f4457 	smlsldmi	r4, pc, r7, r4	; <UNPREDICTABLE>
 4e8:	54555000 	ldrbpl	r5, [r5], #-0
 4ec:	73003233 	movwvc	r3, #563	; 0x233
 4f0:	755f7465 	ldrbvc	r7, [pc, #-1125]	; 93 <__code_start__-0x7f6d>
 4f4:	5f726573 	svcpl	0x00726573
 4f8:	6576656c 	ldrbvs	r6, [r6, #-1388]!	; 0xfffffa94
 4fc:	2f2e006c 	svccs	0x002e006c
 500:	66617473 			; <UNDEFINED> instruction: 0x66617473
 504:	72732d66 	rsbsvc	r2, r3, #6528	; 0x1980
 508:	65722f63 	ldrbvs	r2, [r2, #-3939]!	; 0xfffff09d
 50c:	746f6f62 	strbtvc	r6, [pc], #-3938	; 514 <__code_start__-0x7aec>
 510:	5000632e 	andpl	r6, r0, lr, lsr #6
 514:	41505f4d 	cmpmi	r0, sp, asr #30
 518:	4f575353 	svcmi	0x00575353
 51c:	61004452 	tstvs	r0, r2, asr r4
 520:	73755f74 	cmnvc	r5, #116, 30	; 0x1d0
 524:	6c5f7265 	lfmvs	f7, 2, [pc], {101}	; 0x65
 528:	6c657665 	stclvs	6, cr7, [r5], #-404	; 0xfffffe6c
 52c:	5f4d5000 	svcpl	0x004d5000
 530:	43545352 	cmpmi	r4, #1207959553	; 0x48000001
 534:	4352575f 	cmpmi	r2, #24903680	; 0x17c0000
 538:	465f4746 	ldrbmi	r4, [pc], -r6, asr #14
 53c:	5f4c4c55 	svcpl	0x004c4c55
 540:	45534552 	ldrbmi	r4, [r3, #-1362]	; 0xfffffaae
 544:	4d500054 	ldclmi	0, cr0, [r0, #-336]	; 0xfffffeb0
 548:	5453525f 	ldrbpl	r5, [r3], #-607	; 0xfffffda1
 54c:	70630043 	rsbvc	r0, r3, r3, asr #32
 550:	64007273 	strvs	r7, [r0], #-627	; 0xfffffd8d
 554:	625f7665 	subsvs	r7, pc, #105906176	; 0x6500000
 558:	69727261 	ldmdbvs	r2!, {r0, r5, r6, r9, ip, sp, lr}^
 55c:	64007265 	strvs	r7, [r0], #-613	; 0xfffffd9b
 560:	79616c65 	stmdbvc	r1!, {r0, r2, r5, r6, sl, fp, sp, lr}^
 564:	6365735f 	cmnvs	r5, #2080374785	; 0x7c000001
 568:	732f2e00 			; <UNDEFINED> instruction: 0x732f2e00
 56c:	66666174 			; <UNDEFINED> instruction: 0x66666174
 570:	6372732d 	cmnvs	r2, #-1275068416	; 0xb4000000
 574:	6d69742f 	cfstrdvs	mvd7, [r9, #-188]!	; 0xffffff44
 578:	632e7265 			; <UNDEFINED> instruction: 0x632e7265
 57c:	54454700 	strbpl	r4, [r5], #-1792	; 0xfffff900
 580:	74003233 	strvc	r3, [r0], #-563	; 0xfffffdcd
 584:	72656d69 	rsbvc	r6, r5, #6720	; 0x1a40
 588:	7465675f 	strbtvc	r6, [r5], #-1887	; 0xfffff8a1
 58c:	6573755f 	ldrbvs	r7, [r3, #-1375]!	; 0xfffffaa1
 590:	65640063 	strbvs	r0, [r4, #-99]!	; 0xffffff9d
 594:	5f79616c 	svcpl	0x0079616c
 598:	74007375 	strvc	r7, [r0], #-885	; 0xfffffc8b
 59c:	72656d69 	rsbvc	r6, r5, #6720	; 0x1a40
 5a0:	7465675f 	strbtvc	r6, [r5], #-1887	; 0xfffff8a1
 5a4:	6573755f 	ldrbvs	r7, [r3, #-1375]!	; 0xfffffaa1
 5a8:	61725f63 	cmnvs	r2, r3, ror #30
 5ac:	75700077 	ldrbvc	r0, [r0, #-119]!	; 0xffffff89
 5b0:	00323374 	eorseq	r3, r2, r4, ror r3
 5b4:	64756162 	ldrbtvs	r6, [r5], #-354	; 0xfffffe9e
 5b8:	6c61765f 	stclvs	6, cr7, [r1], #-380	; 0xfffffe84
 5bc:	61747300 	cmnvs	r4, r0, lsl #6
 5c0:	61750074 	cmnvs	r5, r4, ror r0
 5c4:	635f7472 	cmpvs	pc, #1912602624	; 0x72000000
 5c8:	675f6e61 	ldrbvs	r6, [pc, -r1, ror #28]
 5cc:	00637465 	rsbeq	r7, r3, r5, ror #8
 5d0:	4f495047 	svcmi	0x00495047
 5d4:	4e55465f 	mrcmi	6, 2, r4, cr5, cr15, {2}
 5d8:	554f5f43 	strbpl	r5, [pc, #-3907]	; fffff69d <__bss_end__+0xffff56bd>
 5dc:	54555054 	ldrbpl	r5, [r5], #-84	; 0xffffffac
 5e0:	78756100 	ldmdavc	r5!, {r8, sp, lr}^
 5e4:	7265705f 	rsbvc	r7, r5, #95, 0	; 0x5f
 5e8:	73687069 	cmnvc	r8, #105, 0	; 0x69
 5ec:	72617500 	rsbvc	r7, r1, #0, 10
 5f0:	00632e74 	rsbeq	r2, r3, r4, ror lr
 5f4:	74726175 	ldrbtvc	r6, [r2], #-373	; 0xfffffe8b
 5f8:	6e61635f 	mcrvs	3, 3, r6, cr1, cr15, {2}
 5fc:	7475705f 	ldrbtvc	r7, [r5], #-95	; 0xffffffa1
 600:	61750063 	cmnvs	r5, r3, rrx
 604:	745f7472 	ldrbvc	r7, [pc], #-1138	; 60c <__code_start__-0x79f4>
 608:	73695f78 	cmnvc	r9, #120, 30	; 0x1e0
 60c:	706d655f 	rsbvc	r6, sp, pc, asr r5
 610:	47007974 	smlsdxmi	r0, r4, r9, r7
 614:	5f4f4950 	svcpl	0x004f4950
 618:	434e5546 	movtmi	r5, #58694	; 0xe546
 61c:	544c415f 	strbpl	r4, [ip], #-351	; 0xfffffea1
 620:	50470030 	subpl	r0, r7, r0, lsr r0
 624:	465f4f49 	ldrbmi	r4, [pc], -r9, asr #30
 628:	5f434e55 	svcpl	0x00434e55
 62c:	31544c41 	cmpcc	r4, r1, asr #24
 630:	49504700 	ldmdbmi	r0, {r8, r9, sl, lr}^
 634:	55465f4f 	strbpl	r5, [r6, #-3919]	; 0xfffff0b1
 638:	415f434e 	cmpmi	pc, lr, asr #6
 63c:	0032544c 	eorseq	r5, r2, ip, asr #8
 640:	4f495047 	svcmi	0x00495047
 644:	4e55465f 	mrcmi	6, 2, r4, cr5, cr15, {2}
 648:	4c415f43 	mcrrmi	15, 4, r5, r1, cr3
 64c:	47003354 	smlsdmi	r0, r4, r3, r3
 650:	5f4f4950 	svcpl	0x004f4950
 654:	434e5546 	movtmi	r5, #58694	; 0xe546
 658:	544c415f 	strbpl	r4, [ip], #-351	; 0xfffffea1
 65c:	682f0035 	stmdavs	pc!, {r0, r2, r4, r5}	; <UNPREDICTABLE>
 660:	2f656d6f 	svccs	0x00656d6f
 664:	6c676e65 	stclvs	14, cr6, [r7], #-404	; 0xfffffe6c
 668:	632f7265 			; <UNDEFINED> instruction: 0x632f7265
 66c:	7373616c 	cmnvc	r3, #27
 670:	3273632f 	rsbscc	r6, r3, #-1140850688	; 0xbc000000
 674:	786c3034 	stmdavc	ip!, {r2, r4, r5, ip, sp}^
 678:	7332322d 	teqvc	r2, #-805306366	; 0xd0000002
 67c:	6c2f7270 	sfmvs	f7, 4, [pc], #-448	; 4c4 <__code_start__-0x7b3c>
 680:	69706269 	ldmdbvs	r0!, {r0, r3, r5, r6, r9, sp, lr}^
 684:	6174732f 	cmnvs	r4, pc, lsr #6
 688:	702d6666 	eorvc	r6, sp, r6, ror #12
 68c:	61766972 	cmnvs	r6, r2, ror r9
 690:	62006574 	andvs	r6, r0, #116, 10	; 0x1d000000
 694:	00647561 	rsbeq	r7, r4, r1, ror #10
 698:	5f787561 	svcpl	0x00787561
 69c:	62616e65 	rsbvs	r6, r1, #1616	; 0x650
 6a0:	0073656c 	rsbseq	r6, r3, ip, ror #10
 6a4:	74726175 	ldrbtvc	r6, [r2], #-373	; 0xfffffe8b
 6a8:	7465675f 	strbtvc	r6, [r5], #-1887	; 0xfffff8a1
 6ac:	4e470063 	cdpmi	0, 4, cr0, cr7, cr3, {3}
 6b0:	39432055 	stmdbcc	r3, {r0, r2, r4, r6, sp}^
 6b4:	30312039 	eorscc	r2, r1, r9, lsr r0
 6b8:	312e332e 			; <UNDEFINED> instruction: 0x312e332e
 6bc:	32303220 	eorscc	r3, r0, #32, 4
 6c0:	32383031 	eorscc	r3, r8, #49, 0	; 0x31
 6c4:	72282034 	eorvc	r2, r8, #52, 0	; 0x34
 6c8:	61656c65 	cmnvs	r5, r5, ror #24
 6cc:	20296573 	eorcs	r6, r9, r3, ror r5
 6d0:	70636d2d 	rsbvc	r6, r3, sp, lsr #26
 6d4:	72613d75 	rsbvc	r3, r1, #7488	; 0x1d40
 6d8:	3731316d 	ldrcc	r3, [r1, -sp, ror #2]!
 6dc:	667a6a36 			; <UNDEFINED> instruction: 0x667a6a36
 6e0:	2d20732d 	stccs	3, cr7, [r0, #-180]!	; 0xffffff4c
 6e4:	6e75746d 	cdpvs	4, 7, cr7, cr5, cr13, {3}
 6e8:	72613d65 	rsbvc	r3, r1, #6464	; 0x1940
 6ec:	3731316d 	ldrcc	r3, [r1, -sp, ror #2]!
 6f0:	667a6a36 			; <UNDEFINED> instruction: 0x667a6a36
 6f4:	2d20732d 	stccs	3, cr7, [r0, #-180]!	; 0xffffff4c
 6f8:	6f6c666d 	svcvs	0x006c666d
 6fc:	612d7461 			; <UNDEFINED> instruction: 0x612d7461
 700:	733d6962 	teqvc	sp, #1605632	; 0x188000
 704:	2074666f 	rsbscs	r6, r4, pc, ror #12
 708:	72616d2d 	rsbvc	r6, r1, #2880	; 0xb40
 70c:	6d2d206d 	stcvs	0, cr2, [sp, #-436]!	; 0xfffffe4c
 710:	68637261 	stmdavs	r3!, {r0, r5, r6, r9, ip, sp, lr}^
 714:	6d72613d 	ldfvse	f6, [r2, #-244]!	; 0xffffff0c
 718:	7a6b3676 	bvc	1ace0f8 <__bss_end__+0x1ac4118>
 71c:	67672d20 	strbvs	r2, [r7, -r0, lsr #26]!
 720:	2d206264 	sfmcs	f6, 4, [r0, #-400]!	; 0xfffffe70
 724:	2d20674f 	stccs	7, cr6, [r0, #-316]!	; 0xfffffec4
 728:	3d647473 	cfstrdcc	mvd7, [r4, #-460]!	; 0xfffffe34
 72c:	39756e67 	ldmdbcc	r5!, {r0, r1, r2, r5, r6, r9, sl, fp, sp, lr}^
 730:	662d2039 			; <UNDEFINED> instruction: 0x662d2039
 734:	65657266 	strbvs	r7, [r5, #-614]!	; 0xfffffd9a
 738:	6e617473 	mcrvs	4, 3, r7, cr1, cr3, {3}
 73c:	676e6964 	strbvs	r6, [lr, -r4, ror #18]!
 740:	746e6300 	strbtvc	r6, [lr], #-768	; 0xfffffd00
 744:	6175006c 	cmnvs	r5, ip, rrx
 748:	645f7472 	ldrbvs	r7, [pc], #-1138	; 750 <__code_start__-0x78b0>
 74c:	62617369 	rsbvs	r7, r1, #-1543503871	; 0xa4000001
 750:	7500656c 	strvc	r6, [r0, #-1388]	; 0xfffffa94
 754:	5f747261 	svcpl	0x00747261
 758:	5f736168 	svcpl	0x00736168
 75c:	61746164 	cmnvs	r4, r4, ror #2
 760:	49504700 	ldmdbmi	r0, {r8, r9, sl, lr}^
 764:	55465f4f 	strbpl	r5, [r6, #-3919]	; 0xfffff0b1
 768:	415f434e 	cmpmi	pc, lr, asr #6
 76c:	0034544c 	eorseq	r5, r4, ip, asr #8
 770:	695f726f 	ldmdbvs	pc, {r0, r1, r2, r3, r5, r6, r9, ip, sp, lr}^	; <UNPREDICTABLE>
 774:	0032336e 	eorseq	r3, r2, lr, ror #6
 778:	61726373 	cmnvs	r2, r3, ror r3
 77c:	00686374 	rsbeq	r6, r8, r4, ror r3
 780:	74726175 	ldrbtvc	r6, [r2], #-373	; 0xfffffe8b
 784:	646e6100 	strbtvs	r6, [lr], #-256	; 0xffffff00
 788:	336e695f 	cmncc	lr, #1556480	; 0x17c000
 78c:	61750032 	cmnvs	r5, r2, lsr r0
 790:	705f7472 	subsvc	r7, pc, r2, ror r4	; <UNPREDICTABLE>
 794:	00637475 	rsbeq	r7, r3, r5, ror r4
 798:	4f495047 	svcmi	0x00495047
 79c:	4e55465f 	mrcmi	6, 2, r4, cr5, cr15, {2}
 7a0:	4e495f43 	cdpmi	15, 4, cr5, cr9, cr3, {2}
 7a4:	00545550 	subseq	r5, r4, r0, asr r5
 7a8:	6f697067 	svcvs	0x00697067
 7ac:	7465735f 	strbtvc	r7, [r5], #-863	; 0xfffffca1
 7b0:	6e75665f 	mrcvs	6, 3, r6, cr5, cr15, {2}
 7b4:	6f697463 	svcvs	0x00697463
 7b8:	6567006e 	strbvs	r0, [r7, #-110]!	; 0xffffff92
 7bc:	00323374 	eorseq	r3, r2, r4, ror r3
 7c0:	6c616d6b 	stclvs	13, cr6, [r1], #-428	; 0xfffffe54
 7c4:	5f636f6c 	svcpl	0x00636f6c
 7c8:	70616568 	rsbvc	r6, r1, r8, ror #10
 7cc:	6174735f 	cmnvs	r4, pc, asr r3
 7d0:	6d007472 	cfstrsvs	mvf7, [r0, #-456]	; 0xfffffe38
 7d4:	6e5f7861 	cdpvs	8, 5, cr7, cr15, cr1, {3}
 7d8:	65747962 	ldrbvs	r7, [r4, #-2402]!	; 0xfffff69e
 7dc:	615f0073 	cmpvs	pc, r3, ror r0	; <UNPREDICTABLE>
 7e0:	00726464 	rsbseq	r6, r2, r4, ror #8
 7e4:	6572666b 	ldrbvs	r6, [r2, #-1643]!	; 0xfffff995
 7e8:	65680065 	strbvs	r0, [r8, #-101]!	; 0xffffff9b
 7ec:	6d5f7061 	ldclvs	0, cr7, [pc, #-388]	; 670 <__code_start__-0x7990>
 7f0:	6b007861 	blvs	1e97c <__bss_end__+0x1499c>
 7f4:	65657266 	strbvs	r7, [r5, #-614]!	; 0xfffffd9a
 7f8:	6c6c615f 	stfvse	f6, [ip], #-380	; 0xfffffe84
 7fc:	756f7200 	strbvc	r7, [pc, #-512]!	; 604 <__code_start__-0x79fc>
 800:	7075646e 	rsbsvc	r6, r5, lr, ror #8
 804:	61656800 	cmnvs	r5, r0, lsl #16
 808:	6e690070 	mcrvs	0, 3, r0, cr9, cr0, {3}
 80c:	705f7469 	subsvc	r7, pc, r9, ror #8
 810:	72666b00 	rsbvc	r6, r6, #0, 22
 814:	705f6565 	subsvc	r6, pc, r5, ror #10
 818:	6d00706f 	stcvs	0, cr7, [r0, #-444]	; 0xfffffe44
 81c:	65736d65 	ldrbvs	r6, [r3, #-3429]!	; 0xfffff29b
 820:	6c610074 	stclvs	0, cr0, [r1], #-464	; 0xfffffe30
 824:	6d6e6769 	stclvs	7, cr6, [lr, #-420]!	; 0xfffffe5c
 828:	00746e65 	rsbseq	r6, r4, r5, ror #28
 82c:	5f78616d 	svcpl	0x0078616d
 830:	00323375 	eorseq	r3, r2, r5, ror r3
 834:	4d656e4f 	stclmi	14, cr6, [r5, #-316]!	; 0xfffffec4
 838:	6d6b0042 	stclvs	0, cr0, [fp, #-264]!	; 0xfffffef8
 83c:	6f6c6c61 	svcvs	0x006c6c61
 840:	65685f63 	strbvs	r5, [r8, #-3939]!	; 0xfffff09d
 844:	655f7061 	ldrbvs	r7, [pc, #-97]	; 7eb <__code_start__-0x7815>
 848:	6b00646e 	blvs	19a08 <__bss_end__+0xfa28>
 84c:	6c6c616d 	stfvse	f6, [ip], #-436	; 0xfffffe4c
 850:	6e5f636f 	cdpvs	3, 5, cr6, cr15, cr15, {3}
 854:	657a746f 	ldrbvs	r7, [sl, #-1135]!	; 0xfffffb91
 858:	69006f72 	stmdbvs	r0, {r1, r4, r5, r6, r8, r9, sl, fp, sp, lr}
 85c:	6f705f73 	svcvs	0x00705f73
 860:	6b003277 	blvs	d244 <__bss_end__+0x3264>
 864:	6c6c616d 	stfvse	f6, [ip], #-436	; 0xfffffe4c
 868:	632e636f 			; <UNDEFINED> instruction: 0x632e636f
 86c:	616d6b00 	cmnvs	sp, r0, lsl #22
 870:	636f6c6c 	cmnvs	pc, #108, 24	; 0x6c00
 874:	696e695f 	stmdbvs	lr!, {r0, r1, r2, r3, r4, r6, r8, fp, sp, lr}^
 878:	73690074 	cmnvc	r9, #116, 0	; 0x74
 87c:	696c615f 	stmdbvs	ip!, {r0, r1, r2, r3, r4, r6, r8, sp, lr}^
 880:	64656e67 	strbtvs	r6, [r5], #-3687	; 0xfffff199
 884:	616d6b00 	cmnvs	sp, r0, lsl #22
 888:	636f6c6c 	cmnvs	pc, #108, 24	; 0x6c00
 88c:	6165685f 	cmnvs	r5, pc, asr r8
 890:	74705f70 	ldrbtvc	r5, [r0], #-3952	; 0xfffff090
 894:	6d6b0072 	stclvs	0, cr0, [fp, #-456]!	; 0xfffffe38
 898:	6f6c6c61 	svcvs	0x006c6c61
 89c:	6e695f63 	cdpvs	15, 6, cr5, cr9, cr3, {3}
 8a0:	735f7469 	cmpvc	pc, #1761607680	; 0x69000000
 8a4:	735f7465 	cmpvc	pc, #1694498816	; 0x65000000
 8a8:	74726174 	ldrbtvc	r6, [r2], #-372	; 0xfffffe8c
 8ac:	69707200 	ldmdbvs	r0!, {r9, ip, sp, lr}^
 8b0:	7365725f 	cmnvc	r5, #-268435451	; 0xf0000005
 8b4:	705f7465 	subsvc	r7, pc, r5, ror #8
 8b8:	00637475 	rsbeq	r7, r3, r5, ror r4
 8bc:	6c616d6b 	stclvs	13, cr6, [r1], #-428	; 0xfffffe54
 8c0:	5f636f6c 	svcpl	0x00636f6c
 8c4:	67696c61 	strbvs	r6, [r9, -r1, ror #24]!
 8c8:	0064656e 	rsbeq	r6, r4, lr, ror #10
 8cc:	6f697067 	svcvs	0x00697067
 8d0:	726c635f 	rsbvc	r6, ip, #2080374785	; 0x7c000001
 8d4:	70670030 	rsbvc	r0, r7, r0, lsr r0
 8d8:	735f6f69 	cmpvc	pc, #420	; 0x1a4
 8dc:	00307465 	eorseq	r7, r0, r5, ror #8
 8e0:	6f697067 	svcvs	0x00697067
 8e4:	6972775f 	ldmdbvs	r2!, {r0, r1, r2, r3, r4, r6, r8, r9, sl, ip, sp, lr}^
 8e8:	44006574 	strmi	r6, [r0], #-1396	; 0xfffffa8c
 8ec:	565f5645 	ldrbpl	r5, [pc], -r5, asr #12
 8f0:	32334c41 	eorscc	r4, r3, #16640	; 0x4100
 8f4:	69706700 	ldmdbvs	r0!, {r8, r9, sl, sp, lr}^
 8f8:	65725f6f 	ldrbvs	r5, [r2, #-3951]!	; 0xfffff091
 8fc:	2e006461 	cdpcs	4, 0, cr6, cr0, cr1, {3}
 900:	6372732f 	cmnvs	r2, #-1140850688	; 0xbc000000
 904:	6970672f 	ldmdbvs	r0!, {r0, r1, r2, r3, r5, r8, r9, sl, sp, lr}^
 908:	00632e6f 	rsbeq	r2, r3, pc, ror #28
 90c:	6f697067 	svcvs	0x00697067
 910:	7465735f 	strbtvc	r7, [r5], #-863	; 0xfffffca1
 914:	706e695f 	rsbvc	r6, lr, pc, asr r9
 918:	67007475 	smlsdxvs	r0, r5, r4, r7
 91c:	5f6f6970 	svcpl	0x006f6970
 920:	5f746573 	svcpl	0x00746573
 924:	0066666f 	rsbeq	r6, r6, pc, ror #12
 928:	6f697067 	svcvs	0x00697067
 92c:	7465735f 	strbtvc	r7, [r5], #-863	; 0xfffffca1
 930:	74756f5f 	ldrbtvc	r6, [r5], #-3935	; 0xfffff0a1
 934:	00747570 	rsbseq	r7, r4, r0, ror r5
 938:	636e7566 	cmnvs	lr, #427819008	; 0x19800000
 93c:	69706700 	ldmdbvs	r0!, {r8, r9, sl, sp, lr}^
 940:	75665f6f 	strbvc	r5, [r6, #-3951]!	; 0xfffff091
 944:	745f636e 	ldrbvc	r6, [pc], #-878	; 94c <__code_start__-0x76b4>
 948:	69706700 	ldmdbvs	r0!, {r8, r9, sl, sp, lr}^
 94c:	656c5f6f 	strbvs	r5, [ip, #-3951]!	; 0xfffff091
 950:	62003076 	andvs	r3, r0, #118, 0	; 0x76
 954:	006b6e61 	rsbeq	r6, fp, r1, ror #28
 958:	6f697067 	svcvs	0x00697067
 95c:	7465735f 	strbtvc	r7, [r5], #-863	; 0xfffffca1
 960:	006e6f5f 	rsbeq	r6, lr, pc, asr pc
 964:	657a6973 	ldrbvs	r6, [sl, #-2419]!	; 0xfffff68d
 968:	2e00745f 	cfmvsrcs	mvf0, r7
 96c:	62696c2f 	rsbvs	r6, r9, #12032	; 0x2f00
 970:	656d2f63 	strbvs	r2, [sp, #-3939]!	; 0xfffff09d
 974:	7465736d 	strbtvc	r7, [r5], #-877	; 0xfffffc93
 978:	6900632e 	stmdbvs	r0, {r1, r2, r3, r5, r8, r9, sp, lr}
 97c:	7265746e 	rsbvc	r7, r5, #1845493760	; 0x6e000000
 980:	5f6c616e 	svcpl	0x006c616e
 984:	63747570 	cmnvs	r4, #112, 10	; 0x1c000000
 988:	00726168 	rsbseq	r6, r2, r8, ror #2
 98c:	5f697072 	svcpl	0x00697072
 990:	5f746573 	svcpl	0x00746573
 994:	63747570 	cmnvs	r4, #112, 10	; 0x1c000000
 998:	6c2f2e00 	stcvs	14, cr2, [pc], #-0	; 9a0 <__code_start__-0x7660>
 99c:	2f636269 	svccs	0x00636269
 9a0:	63747570 	cmnvs	r4, #112, 10	; 0x1c000000
 9a4:	2e726168 	rpwcssz	f6, f2, #0.0
 9a8:	2f2e0063 	svccs	0x002e0063
 9ac:	6362696c 	cmnvs	r2, #108, 18	; 0x1b0000
 9b0:	7274732f 	rsbsvc	r7, r4, #-1140850688	; 0xbc000000
 9b4:	2e746163 	rpwcssz	f6, f4, f3
 9b8:	65640063 	strbvs	r0, [r4, #-99]!	; 0xffffff9d
 9bc:	2e007473 	mcrcs	4, 0, r7, cr0, cr3, {3}
 9c0:	62696c2f 	rsbvs	r6, r9, #12032	; 0x2f00
 9c4:	74732f63 	ldrbtvc	r2, [r3], #-3939	; 0xfffff09d
 9c8:	706d6372 	rsbvc	r6, sp, r2, ror r3
 9cc:	2e00632e 	cdpcs	3, 0, cr6, cr0, cr14, {1}
 9d0:	62696c2f 	rsbvs	r6, r9, #12032	; 0x2f00
 9d4:	74732f63 	ldrbtvc	r2, [r3], #-3939	; 0xfffff09d
 9d8:	79706372 	ldmdbvc	r0!, {r1, r4, r5, r6, r8, r9, sp, lr}^
 9dc:	2e00632e 	cdpcs	3, 0, cr6, cr0, cr14, {1}
 9e0:	62696c2f 	rsbvs	r6, r9, #12032	; 0x2f00
 9e4:	74732f63 	ldrbtvc	r2, [r3], #-3939	; 0xfffff09d
 9e8:	6d636e72 	stclvs	14, cr6, [r3, #-456]!	; 0xfffffe38
 9ec:	00632e70 	rsbeq	r2, r3, r0, ror lr
 9f0:	74732f2e 	ldrbtvc	r2, [r3], #-3886	; 0xfffff0d2
 9f4:	2d666661 	stclcs	6, cr6, [r6, #-388]!	; 0xfffffe7c
 9f8:	2f637273 	svccs	0x00637273
 9fc:	61666564 	cmnvs	r6, r4, ror #10
 a00:	2d746c75 	ldclcs	12, cr6, [r4, #-468]!	; 0xfffffe2c
 a04:	6f626572 	svcvs	0x00626572
 a08:	632d746f 			; <UNDEFINED> instruction: 0x632d746f
 a0c:	6f6c6c61 	svcvs	0x006c6c61
 a10:	632e7475 			; <UNDEFINED> instruction: 0x632e7475
	...

Disassembly of section .debug_frame:

00000000 <.debug_frame>:
   0:	0000000c 	andeq	r0, r0, ip
   4:	ffffffff 			; <UNDEFINED> instruction: 0xffffffff
   8:	7c020001 	stcvc	0, cr0, [r2], {1}
   c:	000d0c0e 	andeq	r0, sp, lr, lsl #24
  10:	00000014 	andeq	r0, r0, r4, lsl r0
  14:	00000000 	andeq	r0, r0, r0
  18:	00008038 	andeq	r8, r0, r8, lsr r0
  1c:	0000003c 	andeq	r0, r0, ip, lsr r0
  20:	8e040e42 	cdphi	14, 0, cr0, cr4, cr2, {2}
  24:	100e4201 	andne	r4, lr, r1, lsl #4
  28:	0000000c 	andeq	r0, r0, ip
  2c:	ffffffff 			; <UNDEFINED> instruction: 0xffffffff
  30:	7c020001 	stcvc	0, cr0, [r2], {1}
  34:	000d0c0e 	andeq	r0, sp, lr, lsl #24
  38:	00000014 	andeq	r0, r0, r4, lsl r0
  3c:	00000028 	andeq	r0, r0, r8, lsr #32
  40:	00008074 	andeq	r8, r0, r4, ror r0
  44:	000000bc 	strheq	r0, [r0], -ip
  48:	8e040e42 	cdphi	14, 0, cr0, cr4, cr2, {2}
  4c:	00000001 	andeq	r0, r0, r1
  50:	00000014 	andeq	r0, r0, r4, lsl r0
  54:	00000028 	andeq	r0, r0, r8, lsr #32
  58:	00008130 	andeq	r8, r0, r0, lsr r1
  5c:	00000044 	andeq	r0, r0, r4, asr #32
  60:	84080e42 	strhi	r0, [r8], #-3650	; 0xfffff1be
  64:	00018e02 	andeq	r8, r1, r2, lsl #28
  68:	00000014 	andeq	r0, r0, r4, lsl r0
  6c:	00000028 	andeq	r0, r0, r8, lsr #32
  70:	00008174 	andeq	r8, r0, r4, ror r1
  74:	000000ac 	andeq	r0, r0, ip, lsr #1
  78:	84080e42 	strhi	r0, [r8], #-3650	; 0xfffff1be
  7c:	00018e02 	andeq	r8, r1, r2, lsl #28
  80:	0000000c 	andeq	r0, r0, ip
  84:	ffffffff 			; <UNDEFINED> instruction: 0xffffffff
  88:	7c020001 	stcvc	0, cr0, [r2], {1}
  8c:	000d0c0e 	andeq	r0, sp, lr, lsl #24
  90:	00000014 	andeq	r0, r0, r4, lsl r0
  94:	00000080 	andeq	r0, r0, r0, lsl #1
  98:	00008220 	andeq	r8, r0, r0, lsr #4
  9c:	0000000c 	andeq	r0, r0, ip
  a0:	84080e42 	strhi	r0, [r8], #-3650	; 0xfffff1be
  a4:	00018e02 	andeq	r8, r1, r2, lsl #28
  a8:	0000000c 	andeq	r0, r0, ip
  ac:	ffffffff 			; <UNDEFINED> instruction: 0xffffffff
  b0:	7c020001 	stcvc	0, cr0, [r2], {1}
  b4:	000d0c0e 	andeq	r0, sp, lr, lsl #24
  b8:	00000034 	andeq	r0, r0, r4, lsr r0
  bc:	000000a8 	andeq	r0, r0, r8, lsr #1
  c0:	0000822c 	andeq	r8, r0, ip, lsr #4
  c4:	00000058 	andeq	r0, r0, r8, asr r0
  c8:	80100e42 	andshi	r0, r0, r2, asr #28
  cc:	82038104 	andhi	r8, r3, #1
  d0:	42018302 	andmi	r8, r1, #134217728	; 0x8000000
  d4:	07841c0e 	streq	r1, [r4, lr, lsl #24]
  d8:	058e0685 	streq	r0, [lr, #1669]	; 0x685
  dc:	5a280e44 	bpl	a039f4 <__bss_end__+0x9f9a14>
  e0:	ce421c0e 	cdpgt	12, 4, cr1, cr2, cr14, {0}
  e4:	100ec4c5 	andne	ip, lr, r5, asr #9
  e8:	c1c2c342 	bicgt	ip, r2, r2, asr #6
  ec:	00000ec0 	andeq	r0, r0, r0, asr #29
  f0:	0000000c 	andeq	r0, r0, ip
  f4:	ffffffff 			; <UNDEFINED> instruction: 0xffffffff
  f8:	7c020001 	stcvc	0, cr0, [r2], {1}
  fc:	000d0c0e 	andeq	r0, sp, lr, lsl #24
 100:	00000018 	andeq	r0, r0, r8, lsl r0
 104:	000000f0 	strdeq	r0, [r0], -r0	; <UNPREDICTABLE>
 108:	00008284 	andeq	r8, r0, r4, lsl #5
 10c:	00000038 	andeq	r0, r0, r8, lsr r0
 110:	84100e42 	ldrhi	r0, [r0], #-3650	; 0xfffff1be
 114:	86038504 	strhi	r8, [r3], -r4, lsl #10
 118:	00018e02 	andeq	r8, r1, r2, lsl #28
 11c:	0000000c 	andeq	r0, r0, ip
 120:	ffffffff 			; <UNDEFINED> instruction: 0xffffffff
 124:	7c020001 	stcvc	0, cr0, [r2], {1}
 128:	000d0c0e 	andeq	r0, sp, lr, lsl #24
 12c:	0000002c 	andeq	r0, r0, ip, lsr #32
 130:	0000011c 	andeq	r0, r0, ip, lsl r1
 134:	000082bc 			; <UNDEFINED> instruction: 0x000082bc
 138:	00000328 	andeq	r0, r0, r8, lsr #6
 13c:	84180e42 	ldrhi	r0, [r8], #-3650	; 0xfffff1be
 140:	86058506 	strhi	r8, [r5], -r6, lsl #10
 144:	88038704 	stmdahi	r3, {r2, r8, r9, sl, pc}
 148:	46018e02 	strmi	r8, [r1], -r2, lsl #28
 14c:	c002600e 	andgt	r6, r2, lr
 150:	42180e0a 	andsmi	r0, r8, #160	; 0xa0
 154:	0a8e020b 	beq	fe380988 <__bss_end__+0xfe3769a8>
 158:	0b42180e 	bleq	1086198 <__bss_end__+0x107c1b8>
 15c:	00000014 	andeq	r0, r0, r4, lsl r0
 160:	0000011c 	andeq	r0, r0, ip, lsl r1
 164:	000085e4 	andeq	r8, r0, r4, ror #11
 168:	00000060 	andeq	r0, r0, r0, rrx
 16c:	8e040e52 	mcrhi	14, 0, r0, cr4, cr2, {2}
 170:	100e4401 	andne	r4, lr, r1, lsl #8
 174:	0000002c 	andeq	r0, r0, ip, lsr #32
 178:	0000011c 	andeq	r0, r0, ip, lsl r1
 17c:	00008644 	andeq	r8, r0, r4, asr #12
 180:	0000062c 	andeq	r0, r0, ip, lsr #12
 184:	84240e42 	strthi	r0, [r4], #-3650	; 0xfffff1be
 188:	86088509 	strhi	r8, [r8], -r9, lsl #10
 18c:	88068707 	stmdahi	r6, {r0, r1, r2, r8, r9, sl, pc}
 190:	8a048905 	bhi	1225ac <__bss_end__+0x1185cc>
 194:	8e028b03 	vmlahi.f64	d8, d2, d3
 198:	c00e5201 	andgt	r5, lr, r1, lsl #4
 19c:	0a860202 	beq	fe1809ac <__bss_end__+0xfe1769cc>
 1a0:	0b42240e 	bleq	10891e0 <__bss_end__+0x107f200>
 1a4:	0000000c 	andeq	r0, r0, ip
 1a8:	ffffffff 			; <UNDEFINED> instruction: 0xffffffff
 1ac:	7c020001 	stcvc	0, cr0, [r2], {1}
 1b0:	000d0c0e 	andeq	r0, sp, lr, lsl #24
 1b4:	00000014 	andeq	r0, r0, r4, lsl r0
 1b8:	000001a4 	andeq	r0, r0, r4, lsr #3
 1bc:	00008c70 	andeq	r8, r0, r0, ror ip
 1c0:	0000002c 	andeq	r0, r0, ip, lsr #32
 1c4:	84080e44 	strhi	r0, [r8], #-3652	; 0xfffff1bc
 1c8:	00018e02 	andeq	r8, r1, r2, lsl #28
 1cc:	0000000c 	andeq	r0, r0, ip
 1d0:	ffffffff 			; <UNDEFINED> instruction: 0xffffffff
 1d4:	7c020001 	stcvc	0, cr0, [r2], {1}
 1d8:	000d0c0e 	andeq	r0, sp, lr, lsl #24
 1dc:	00000018 	andeq	r0, r0, r8, lsl r0
 1e0:	000001cc 	andeq	r0, r0, ip, asr #3
 1e4:	00008c9c 	muleq	r0, ip, ip
 1e8:	000000f8 	strdeq	r0, [r0], -r8
 1ec:	84100e42 	ldrhi	r0, [r0], #-3650	; 0xfffff1be
 1f0:	86038504 	strhi	r8, [r3], -r4, lsl #10
 1f4:	00018e02 	andeq	r8, r1, r2, lsl #28
 1f8:	0000000c 	andeq	r0, r0, ip
 1fc:	ffffffff 			; <UNDEFINED> instruction: 0xffffffff
 200:	7c020001 	stcvc	0, cr0, [r2], {1}
 204:	000d0c0e 	andeq	r0, sp, lr, lsl #24
 208:	0000000c 	andeq	r0, r0, ip
 20c:	000001f8 	strdeq	r0, [r0], -r8
 210:	00008d94 	muleq	r0, r4, sp
 214:	00000004 	andeq	r0, r0, r4
 218:	0000000c 	andeq	r0, r0, ip
 21c:	ffffffff 			; <UNDEFINED> instruction: 0xffffffff
 220:	7c020001 	stcvc	0, cr0, [r2], {1}
 224:	000d0c0e 	andeq	r0, sp, lr, lsl #24
 228:	0000000c 	andeq	r0, r0, ip
 22c:	00000218 	andeq	r0, r0, r8, lsl r2
 230:	00008d98 	muleq	r0, r8, sp
 234:	00000018 	andeq	r0, r0, r8, lsl r0
 238:	0000000c 	andeq	r0, r0, ip
 23c:	00000218 	andeq	r0, r0, r8, lsl r2
 240:	00008db0 			; <UNDEFINED> instruction: 0x00008db0
 244:	00000014 	andeq	r0, r0, r4, lsl r0
 248:	00000014 	andeq	r0, r0, r4, lsl r0
 24c:	00000218 	andeq	r0, r0, r8, lsl r2
 250:	00008dc4 	andeq	r8, r0, r4, asr #27
 254:	00000060 	andeq	r0, r0, r0, rrx
 258:	84080e42 	strhi	r0, [r8], #-3650	; 0xfffff1be
 25c:	00018e02 	andeq	r8, r1, r2, lsl #28
 260:	0000000c 	andeq	r0, r0, ip
 264:	ffffffff 			; <UNDEFINED> instruction: 0xffffffff
 268:	7c020001 	stcvc	0, cr0, [r2], {1}
 26c:	000d0c0e 	andeq	r0, sp, lr, lsl #24
 270:	0000000c 	andeq	r0, r0, ip
 274:	00000260 	andeq	r0, r0, r0, ror #4
 278:	00008e24 	andeq	r8, r0, r4, lsr #28
 27c:	0000000c 	andeq	r0, r0, ip
 280:	00000014 	andeq	r0, r0, r4, lsl r0
 284:	00000260 	andeq	r0, r0, r0, ror #4
 288:	00008e30 	andeq	r8, r0, r0, lsr lr
 28c:	00000024 	andeq	r0, r0, r4, lsr #32
 290:	84080e42 	strhi	r0, [r8], #-3650	; 0xfffff1be
 294:	00018e02 	andeq	r8, r1, r2, lsl #28
 298:	0000001c 	andeq	r0, r0, ip, lsl r0
 29c:	00000260 	andeq	r0, r0, r0, ror #4
 2a0:	00008e54 	andeq	r8, r0, r4, asr lr
 2a4:	00000048 	andeq	r0, r0, r8, asr #32
 2a8:	84180e42 	ldrhi	r0, [r8], #-3650	; 0xfffff1be
 2ac:	86058506 	strhi	r8, [r5], -r6, lsl #10
 2b0:	88038704 	stmdahi	r3, {r2, r8, r9, sl, pc}
 2b4:	00018e02 	andeq	r8, r1, r2, lsl #28
 2b8:	0000001c 	andeq	r0, r0, ip, lsl r0
 2bc:	00000260 	andeq	r0, r0, r0, ror #4
 2c0:	00008e9c 	muleq	r0, ip, lr
 2c4:	00000050 	andeq	r0, r0, r0, asr r0
 2c8:	84180e42 	ldrhi	r0, [r8], #-3650	; 0xfffff1be
 2cc:	86058506 	strhi	r8, [r5], -r6, lsl #10
 2d0:	88038704 	stmdahi	r3, {r2, r8, r9, sl, pc}
 2d4:	00018e02 	andeq	r8, r1, r2, lsl #28
 2d8:	0000001c 	andeq	r0, r0, ip, lsl r0
 2dc:	00000260 	andeq	r0, r0, r0, ror #4
 2e0:	00008eec 	andeq	r8, r0, ip, ror #29
 2e4:	00000054 	andeq	r0, r0, r4, asr r0
 2e8:	84180e42 	ldrhi	r0, [r8], #-3650	; 0xfffff1be
 2ec:	86058506 	strhi	r8, [r5], -r6, lsl #10
 2f0:	88038704 	stmdahi	r3, {r2, r8, r9, sl, pc}
 2f4:	00018e02 	andeq	r8, r1, r2, lsl #28
 2f8:	0000000c 	andeq	r0, r0, ip
 2fc:	ffffffff 			; <UNDEFINED> instruction: 0xffffffff
 300:	7c020001 	stcvc	0, cr0, [r2], {1}
 304:	000d0c0e 	andeq	r0, sp, lr, lsl #24
 308:	00000018 	andeq	r0, r0, r8, lsl r0
 30c:	000002f8 	strdeq	r0, [r0], -r8
 310:	00008f40 	andeq	r8, r0, r0, asr #30
 314:	00000020 	andeq	r0, r0, r0, lsr #32
 318:	84100e42 	ldrhi	r0, [r0], #-3650	; 0xfffff1be
 31c:	86038504 	strhi	r8, [r3], -r4, lsl #10
 320:	00018e02 	andeq	r8, r1, r2, lsl #28
 324:	00000018 	andeq	r0, r0, r8, lsl r0
 328:	000002f8 	strdeq	r0, [r0], -r8
 32c:	00008f60 	andeq	r8, r0, r0, ror #30
 330:	00000020 	andeq	r0, r0, r0, lsr #32
 334:	84100e42 	ldrhi	r0, [r0], #-3650	; 0xfffff1be
 338:	86038504 	strhi	r8, [r3], -r4, lsl #10
 33c:	00018e02 	andeq	r8, r1, r2, lsl #28
 340:	00000014 	andeq	r0, r0, r4, lsl r0
 344:	000002f8 	strdeq	r0, [r0], -r8
 348:	00008f80 	andeq	r8, r0, r0, lsl #31
 34c:	000000b0 	strheq	r0, [r0], -r0	; <UNPREDICTABLE>
 350:	84080e42 	strhi	r0, [r8], #-3650	; 0xfffff1be
 354:	00018e02 	andeq	r8, r1, r2, lsl #28
 358:	00000014 	andeq	r0, r0, r4, lsl r0
 35c:	000002f8 	strdeq	r0, [r0], -r8
 360:	00009030 	andeq	r9, r0, r0, lsr r0
 364:	00000018 	andeq	r0, r0, r8, lsl r0
 368:	84080e42 	strhi	r0, [r8], #-3650	; 0xfffff1be
 36c:	00018e02 	andeq	r8, r1, r2, lsl #28
 370:	00000014 	andeq	r0, r0, r4, lsl r0
 374:	000002f8 	strdeq	r0, [r0], -r8
 378:	00009048 	andeq	r9, r0, r8, asr #32
 37c:	00000020 	andeq	r0, r0, r0, lsr #32
 380:	84080e42 	strhi	r0, [r8], #-3650	; 0xfffff1be
 384:	00018e02 	andeq	r8, r1, r2, lsl #28
 388:	00000014 	andeq	r0, r0, r4, lsl r0
 38c:	000002f8 	strdeq	r0, [r0], -r8
 390:	00009068 	andeq	r9, r0, r8, rrx
 394:	00000030 	andeq	r0, r0, r0, lsr r0
 398:	84080e42 	strhi	r0, [r8], #-3650	; 0xfffff1be
 39c:	00018e02 	andeq	r8, r1, r2, lsl #28
 3a0:	00000014 	andeq	r0, r0, r4, lsl r0
 3a4:	000002f8 	strdeq	r0, [r0], -r8
 3a8:	00009098 	muleq	r0, r8, r0
 3ac:	00000030 	andeq	r0, r0, r0, lsr r0
 3b0:	84080e42 	strhi	r0, [r8], #-3650	; 0xfffff1be
 3b4:	00018e02 	andeq	r8, r1, r2, lsl #28
 3b8:	00000014 	andeq	r0, r0, r4, lsl r0
 3bc:	000002f8 	strdeq	r0, [r0], -r8
 3c0:	000090c8 	andeq	r9, r0, r8, asr #1
 3c4:	00000010 	andeq	r0, r0, r0, lsl r0
 3c8:	84080e42 	strhi	r0, [r8], #-3650	; 0xfffff1be
 3cc:	00018e02 	andeq	r8, r1, r2, lsl #28
 3d0:	00000014 	andeq	r0, r0, r4, lsl r0
 3d4:	000002f8 	strdeq	r0, [r0], -r8
 3d8:	000090d8 	ldrdeq	r9, [r0], -r8
 3dc:	00000020 	andeq	r0, r0, r0, lsr #32
 3e0:	84080e42 	strhi	r0, [r8], #-3650	; 0xfffff1be
 3e4:	00018e02 	andeq	r8, r1, r2, lsl #28
 3e8:	00000014 	andeq	r0, r0, r4, lsl r0
 3ec:	000002f8 	strdeq	r0, [r0], -r8
 3f0:	000090f8 	strdeq	r9, [r0], -r8
 3f4:	00000014 	andeq	r0, r0, r4, lsl r0
 3f8:	84080e42 	strhi	r0, [r8], #-3650	; 0xfffff1be
 3fc:	00018e02 	andeq	r8, r1, r2, lsl #28
 400:	00000014 	andeq	r0, r0, r4, lsl r0
 404:	000002f8 	strdeq	r0, [r0], -r8
 408:	0000910c 	andeq	r9, r0, ip, lsl #2
 40c:	00000024 	andeq	r0, r0, r4, lsr #32
 410:	84080e42 	strhi	r0, [r8], #-3650	; 0xfffff1be
 414:	00018e02 	andeq	r8, r1, r2, lsl #28
 418:	0000000c 	andeq	r0, r0, ip
 41c:	ffffffff 			; <UNDEFINED> instruction: 0xffffffff
 420:	7c020001 	stcvc	0, cr0, [r2], {1}
 424:	000d0c0e 	andeq	r0, sp, lr, lsl #24
 428:	0000000c 	andeq	r0, r0, ip
 42c:	00000418 	andeq	r0, r0, r8, lsl r4
 430:	00009130 	andeq	r9, r0, r0, lsr r1
 434:	00000010 	andeq	r0, r0, r0, lsl r0
 438:	0000000c 	andeq	r0, r0, ip
 43c:	00000418 	andeq	r0, r0, r8, lsl r4
 440:	00009140 	andeq	r9, r0, r0, asr #2
 444:	00000010 	andeq	r0, r0, r0, lsl r0
 448:	0000000c 	andeq	r0, r0, ip
 44c:	00000418 	andeq	r0, r0, r8, lsl r4
 450:	00009150 	andeq	r9, r0, r0, asr r1
 454:	00000010 	andeq	r0, r0, r0, lsl r0
 458:	0000001c 	andeq	r0, r0, ip, lsl r0
 45c:	00000418 	andeq	r0, r0, r8, lsl r4
 460:	00009160 	andeq	r9, r0, r0, ror #2
 464:	0000009c 	muleq	r0, ip, r0
 468:	8e040e42 	cdphi	14, 0, cr0, cr4, cr2, {2}
 46c:	100e4201 	andne	r4, lr, r1, lsl #4
 470:	040e0a58 	streq	r0, [lr], #-2648	; 0xfffff5a8
 474:	00000b42 	andeq	r0, r0, r2, asr #22
 478:	00000014 	andeq	r0, r0, r4, lsl r0
 47c:	00000418 	andeq	r0, r0, r8, lsl r4
 480:	000091fc 	strdeq	r9, [r0], -ip
 484:	00000058 	andeq	r0, r0, r8, asr r0
 488:	84080e42 	strhi	r0, [r8], #-3650	; 0xfffff1be
 48c:	00018e02 	andeq	r8, r1, r2, lsl #28
 490:	0000001c 	andeq	r0, r0, ip, lsl r0
 494:	00000418 	andeq	r0, r0, r8, lsl r4
 498:	00009254 	andeq	r9, r0, r4, asr r2
 49c:	00000098 	muleq	r0, r8, r0
 4a0:	8e040e42 	cdphi	14, 0, cr0, cr4, cr2, {2}
 4a4:	100e4201 	andne	r4, lr, r1, lsl #4
 4a8:	040e0a58 	streq	r0, [lr], #-2648	; 0xfffff5a8
 4ac:	00000b42 	andeq	r0, r0, r2, asr #22
 4b0:	00000020 	andeq	r0, r0, r0, lsr #32
 4b4:	00000418 	andeq	r0, r0, r8, lsl r4
 4b8:	000092ec 	andeq	r9, r0, ip, ror #5
 4bc:	00000064 	andeq	r0, r0, r4, rrx
 4c0:	840c0e42 	strhi	r0, [ip], #-3650	; 0xfffff1be
 4c4:	8e028503 	cfsh32hi	mvfx8, mvfx2, #3
 4c8:	180e4201 	stmdane	lr, {r0, r9, lr}
 4cc:	0c0e0a54 			; <UNDEFINED> instruction: 0x0c0e0a54
 4d0:	00000b42 	andeq	r0, r0, r2, asr #22
 4d4:	0000001c 	andeq	r0, r0, ip, lsl r0
 4d8:	00000418 	andeq	r0, r0, r8, lsl r4
 4dc:	00009350 	andeq	r9, r0, r0, asr r3
 4e0:	00000118 	andeq	r0, r0, r8, lsl r1
 4e4:	8e040e42 	cdphi	14, 0, cr0, cr4, cr2, {2}
 4e8:	100e4201 	andne	r4, lr, r1, lsl #4
 4ec:	040e0a6c 	streq	r0, [lr], #-2668	; 0xfffff594
 4f0:	00000b42 	andeq	r0, r0, r2, asr #22
 4f4:	0000000c 	andeq	r0, r0, ip
 4f8:	00000418 	andeq	r0, r0, r8, lsl r4
 4fc:	00009468 	andeq	r9, r0, r8, ror #8
 500:	00000004 	andeq	r0, r0, r4
 504:	0000000c 	andeq	r0, r0, ip
 508:	00000418 	andeq	r0, r0, r8, lsl r4
 50c:	0000946c 	andeq	r9, r0, ip, ror #8
 510:	00000014 	andeq	r0, r0, r4, lsl r0
 514:	00000014 	andeq	r0, r0, r4, lsl r0
 518:	00000418 	andeq	r0, r0, r8, lsl r4
 51c:	00009480 	andeq	r9, r0, r0, lsl #9
 520:	00000060 	andeq	r0, r0, r0, rrx
 524:	8e040e58 	mcrhi	14, 0, r0, cr4, cr8, {2}
 528:	100e4201 	andne	r4, lr, r1, lsl #4
 52c:	0000000c 	andeq	r0, r0, ip
 530:	ffffffff 			; <UNDEFINED> instruction: 0xffffffff
 534:	7c020001 	stcvc	0, cr0, [r2], {1}
 538:	000d0c0e 	andeq	r0, sp, lr, lsl #24
 53c:	00000020 	andeq	r0, r0, r0, lsr #32
 540:	0000052c 	andeq	r0, r0, ip, lsr #10
 544:	000094e0 	andeq	r9, r0, r0, ror #9
 548:	00000060 	andeq	r0, r0, r0, rrx
 54c:	84100e48 	ldrhi	r0, [r0], #-3656	; 0xfffff1b8
 550:	86038504 	strhi	r8, [r3], -r4, lsl #10
 554:	64018e02 	strvs	r8, [r1], #-3586	; 0xfffff1fe
 558:	c4c5c6ce 	strbgt	ip, [r5], #1742	; 0x6ce
 55c:	0000000e 	andeq	r0, r0, lr
 560:	00000020 	andeq	r0, r0, r0, lsr #32
 564:	0000052c 	andeq	r0, r0, ip, lsr #10
 568:	00009540 	andeq	r9, r0, r0, asr #10
 56c:	00000058 	andeq	r0, r0, r8, asr r0
 570:	84100e46 	ldrhi	r0, [r0], #-3654	; 0xfffff1ba
 574:	86038504 	strhi	r8, [r3], -r4, lsl #10
 578:	62018e02 	andvs	r8, r1, #2, 28
 57c:	c4c5c6ce 	strbgt	ip, [r5], #1742	; 0x6ce
 580:	0000000e 	andeq	r0, r0, lr
 584:	0000000c 	andeq	r0, r0, ip
 588:	0000052c 	andeq	r0, r0, ip, lsr #10
 58c:	00009598 	muleq	r0, r8, r5
 590:	00000018 	andeq	r0, r0, r8, lsl r0
 594:	0000000c 	andeq	r0, r0, ip
 598:	0000052c 	andeq	r0, r0, ip, lsr #10
 59c:	000095b0 			; <UNDEFINED> instruction: 0x000095b0
 5a0:	00000018 	andeq	r0, r0, r8, lsl r0
 5a4:	00000020 	andeq	r0, r0, r0, lsr #32
 5a8:	0000052c 	andeq	r0, r0, ip, lsr #10
 5ac:	000095c8 	andeq	r9, r0, r8, asr #11
 5b0:	00000058 	andeq	r0, r0, r8, asr r0
 5b4:	84100e46 	ldrhi	r0, [r0], #-3654	; 0xfffff1ba
 5b8:	86038504 	strhi	r8, [r3], -r4, lsl #10
 5bc:	62018e02 	andvs	r8, r1, #2, 28
 5c0:	c4c5c6ce 	strbgt	ip, [r5], #1742	; 0x6ce
 5c4:	0000000e 	andeq	r0, r0, lr
 5c8:	0000000c 	andeq	r0, r0, ip
 5cc:	0000052c 	andeq	r0, r0, ip, lsr #10
 5d0:	00009620 	andeq	r9, r0, r0, lsr #12
 5d4:	00000030 	andeq	r0, r0, r0, lsr r0
 5d8:	00000014 	andeq	r0, r0, r4, lsl r0
 5dc:	0000052c 	andeq	r0, r0, ip, lsr #10
 5e0:	00009650 	andeq	r9, r0, r0, asr r6
 5e4:	00000028 	andeq	r0, r0, r8, lsr #32
 5e8:	84080e42 	strhi	r0, [r8], #-3650	; 0xfffff1be
 5ec:	00018e02 	andeq	r8, r1, r2, lsl #28
 5f0:	0000000c 	andeq	r0, r0, ip
 5f4:	ffffffff 			; <UNDEFINED> instruction: 0xffffffff
 5f8:	7c020001 	stcvc	0, cr0, [r2], {1}
 5fc:	000d0c0e 	andeq	r0, sp, lr, lsl #24
 600:	00000014 	andeq	r0, r0, r4, lsl r0
 604:	000005f0 	strdeq	r0, [r0], -r0	; <UNPREDICTABLE>
 608:	00009678 	andeq	r9, r0, r8, ror r6
 60c:	00000078 	andeq	r0, r0, r8, ror r0
 610:	84080e42 	strhi	r0, [r8], #-3650	; 0xfffff1be
 614:	00018e02 	andeq	r8, r1, r2, lsl #28
 618:	0000000c 	andeq	r0, r0, ip
 61c:	ffffffff 			; <UNDEFINED> instruction: 0xffffffff
 620:	7c020001 	stcvc	0, cr0, [r2], {1}
 624:	000d0c0e 	andeq	r0, sp, lr, lsl #24
 628:	00000014 	andeq	r0, r0, r4, lsl r0
 62c:	00000618 	andeq	r0, r0, r8, lsl r6
 630:	000096f0 	strdeq	r9, [r0], -r0
 634:	00000014 	andeq	r0, r0, r4, lsl r0
 638:	84080e42 	strhi	r0, [r8], #-3650	; 0xfffff1be
 63c:	00018e02 	andeq	r8, r1, r2, lsl #28
 640:	0000000c 	andeq	r0, r0, ip
 644:	00000618 	andeq	r0, r0, r8, lsl r6
 648:	00009704 	andeq	r9, r0, r4, lsl #14
 64c:	00000018 	andeq	r0, r0, r8, lsl r0
 650:	0000000c 	andeq	r0, r0, ip
 654:	00000618 	andeq	r0, r0, r8, lsl r6
 658:	0000971c 	andeq	r9, r0, ip, lsl r7
 65c:	00000010 	andeq	r0, r0, r0, lsl r0
 660:	0000000c 	andeq	r0, r0, ip
 664:	ffffffff 			; <UNDEFINED> instruction: 0xffffffff
 668:	7c020001 	stcvc	0, cr0, [r2], {1}
 66c:	000d0c0e 	andeq	r0, sp, lr, lsl #24
 670:	0000000c 	andeq	r0, r0, ip
 674:	00000660 	andeq	r0, r0, r0, ror #12
 678:	0000972c 	andeq	r9, r0, ip, lsr #14
 67c:	0000002c 	andeq	r0, r0, ip, lsr #32
 680:	0000000c 	andeq	r0, r0, ip
 684:	ffffffff 			; <UNDEFINED> instruction: 0xffffffff
 688:	7c020001 	stcvc	0, cr0, [r2], {1}
 68c:	000d0c0e 	andeq	r0, sp, lr, lsl #24
 690:	0000000c 	andeq	r0, r0, ip
 694:	00000680 	andeq	r0, r0, r0, lsl #13
 698:	00009758 	andeq	r9, r0, r8, asr r7
 69c:	00000044 	andeq	r0, r0, r4, asr #32
 6a0:	0000000c 	andeq	r0, r0, ip
 6a4:	ffffffff 			; <UNDEFINED> instruction: 0xffffffff
 6a8:	7c020001 	stcvc	0, cr0, [r2], {1}
 6ac:	000d0c0e 	andeq	r0, sp, lr, lsl #24
 6b0:	0000000c 	andeq	r0, r0, ip
 6b4:	000006a0 	andeq	r0, r0, r0, lsr #13
 6b8:	0000979c 	muleq	r0, ip, r7
 6bc:	00000018 	andeq	r0, r0, r8, lsl r0
 6c0:	0000000c 	andeq	r0, r0, ip
 6c4:	ffffffff 			; <UNDEFINED> instruction: 0xffffffff
 6c8:	7c020001 	stcvc	0, cr0, [r2], {1}
 6cc:	000d0c0e 	andeq	r0, sp, lr, lsl #24
 6d0:	0000000c 	andeq	r0, r0, ip
 6d4:	000006c0 	andeq	r0, r0, r0, asr #13
 6d8:	000097b4 			; <UNDEFINED> instruction: 0x000097b4
 6dc:	00000030 	andeq	r0, r0, r0, lsr r0
 6e0:	0000000c 	andeq	r0, r0, ip
 6e4:	ffffffff 			; <UNDEFINED> instruction: 0xffffffff
 6e8:	7c020001 	stcvc	0, cr0, [r2], {1}
 6ec:	000d0c0e 	andeq	r0, sp, lr, lsl #24
 6f0:	0000000c 	andeq	r0, r0, ip
 6f4:	000006e0 	andeq	r0, r0, r0, ror #13
 6f8:	000097e4 	andeq	r9, r0, r4, ror #15
 6fc:	00000004 	andeq	r0, r0, r4

Disassembly of section .debug_loc:

00000000 <.debug_loc>:
	...
       8:	00000008 	andeq	r0, r0, r8
       c:	00000078 	andeq	r0, r0, r8, ror r0
      10:	78510001 	ldmdavc	r1, {r0}^
      14:	84000000 	strhi	r0, [r0], #-0
      18:	03000000 	movweq	r0, #0
      1c:	9f787000 	svcls	0x00787000
      20:	00000084 	andeq	r0, r0, r4, lsl #1
      24:	000000a4 	andeq	r0, r0, r4, lsr #1
      28:	a4510001 	ldrbge	r0, [r1], #-1
      2c:	bc000000 	stclt	0, cr0, [r0], {-0}
      30:	03000000 	movweq	r0, #0
      34:	9f787000 	svcls	0x00787000
	...
      44:	00000010 	andeq	r0, r0, r0, lsl r0
      48:	00000048 	andeq	r0, r0, r8, asr #32
      4c:	4c530001 	mrrcmi	0, 0, r0, r3, cr1
      50:	bc000000 	stclt	0, cr0, [r0], {-0}
      54:	01000000 	mrseq	r0, (UNDEF: 0)
      58:	00005300 	andeq	r5, r0, r0, lsl #6
	...
      68:	01000000 	mrseq	r0, (UNDEF: 0)
      6c:	01240000 			; <UNDEFINED> instruction: 0x01240000
      70:	00010000 	andeq	r0, r1, r0
      74:	00012450 	andeq	r2, r1, r0, asr r4
      78:	00012800 	andeq	r2, r1, r0, lsl #16
      7c:	f3000400 	vshl.u8	d0, d0, d0
      80:	289f5001 	ldmcs	pc, {r0, ip, lr}	; <UNPREDICTABLE>
      84:	40000001 	andmi	r0, r0, r1
      88:	01000001 	tsteq	r0, r1
      8c:	01405000 	mrseq	r5, (UNDEF: 64)
      90:	01ac0000 			; <UNDEFINED> instruction: 0x01ac0000
      94:	00040000 	andeq	r0, r4, r0
      98:	9f5001f3 	svcls	0x005001f3
	...
      a8:	01000000 	mrseq	r0, (UNDEF: 0)
      ac:	00000001 	andeq	r0, r0, r1
      b0:	01240000 			; <UNDEFINED> instruction: 0x01240000
      b4:	01280000 			; <UNDEFINED> instruction: 0x01280000
      b8:	00010000 	andeq	r0, r1, r0
      bc:	00014050 	andeq	r4, r1, r0, asr r0
      c0:	00016000 	andeq	r6, r1, r0
      c4:	50000100 	andpl	r0, r0, r0, lsl #2
      c8:	00000160 	andeq	r0, r0, r0, ror #2
      cc:	00000164 	andeq	r0, r0, r4, ror #2
      d0:	78700003 	ldmdavc	r0!, {r0, r1}^
      d4:	0001649f 	muleq	r1, pc, r4	; <UNPREDICTABLE>
      d8:	00017000 	andeq	r7, r1, r0
      dc:	50000100 	andpl	r0, r0, r0, lsl #2
      e0:	00000170 	andeq	r0, r0, r0, ror r1
      e4:	00000178 	andeq	r0, r0, r8, ror r1
      e8:	00700002 	rsbseq	r0, r0, r2
      ec:	00000178 	andeq	r0, r0, r8, ror r1
      f0:	00000198 	muleq	r0, r8, r1
      f4:	9c500001 	mrrcls	0, 0, r0, r0, cr1	; <UNPREDICTABLE>
      f8:	ac000001 	stcge	0, cr0, [r0], {1}
      fc:	01000001 	tsteq	r0, r1
     100:	00005000 	andeq	r5, r0, r0
     104:	00000000 	andeq	r0, r0, r0
     108:	01000000 	mrseq	r0, (UNDEF: 0)
     10c:	00000001 	andeq	r0, r0, r1
     110:	00000001 	andeq	r0, r0, r1
     114:	00000118 	andeq	r0, r0, r8, lsl r1
     118:	00000128 	andeq	r0, r0, r8, lsr #2
     11c:	28520001 	ldmdacs	r2, {r0}^
     120:	40000001 	andmi	r0, r0, r1
     124:	06000001 	streq	r0, [r0], -r1
     128:	9bd00300 	blls	ff400d30 <__bss_end__+0xff3f6d50>
     12c:	409f0000 	addsmi	r0, pc, r0
     130:	70000001 	andvc	r0, r0, r1
     134:	01000001 	tsteq	r0, r1
     138:	01705200 	cmneq	r0, r0, lsl #4
     13c:	01780000 	cmneq	r8, r0
     140:	00010000 	andeq	r0, r1, r0
     144:	00017850 	andeq	r7, r1, r0, asr r8
     148:	00019b00 	andeq	r9, r1, r0, lsl #22
     14c:	52000100 	andpl	r0, r0, #0
	...
     158:	01100000 	tsteq	r0, r0
     15c:	01ac0000 			; <UNDEFINED> instruction: 0x01ac0000
     160:	00010000 	andeq	r0, r1, r0
     164:	00000054 	andeq	r0, r0, r4, asr r0
	...
     170:	0000bc00 	andeq	fp, r0, r0, lsl #24
     174:	0000cc00 	andeq	ip, r0, r0, lsl #24
     178:	50000100 	andpl	r0, r0, r0, lsl #2
     17c:	000000cc 	andeq	r0, r0, ip, asr #1
     180:	00000100 	andeq	r0, r0, r0, lsl #2
     184:	00540001 	subseq	r0, r4, r1
	...
     194:	0000d400 	andeq	sp, r0, r0, lsl #8
     198:	0000e400 	andeq	lr, r0, r0, lsl #8
     19c:	50000100 	andpl	r0, r0, r0, lsl #2
     1a0:	000000e4 	andeq	r0, r0, r4, ror #1
     1a4:	000000e7 	andeq	r0, r0, r7, ror #1
     1a8:	78700003 	ldmdavc	r0!, {r0, r1}^
     1ac:	0000f49f 	muleq	r0, pc, r4	; <UNPREDICTABLE>
     1b0:	0000f800 	andeq	pc, r0, r0, lsl #16
     1b4:	50000100 	andpl	r0, r0, r0, lsl #2
	...
     1c0:	00000001 	andeq	r0, r0, r1
     1c4:	000000dc 	ldrdeq	r0, [r0], -ip
     1c8:	000000e4 	andeq	r0, r0, r4, ror #1
     1cc:	e4500001 	ldrb	r0, [r0], #-1
     1d0:	e7000000 	str	r0, [r0, -r0]
     1d4:	03000000 	movweq	r0, #0
     1d8:	9f787000 	svcls	0x00787000
	...
     1ec:	00000007 	andeq	r0, r0, r7
     1f0:	07500001 	ldrbeq	r0, [r0, -r1]
     1f4:	0c000000 	stceq	0, cr0, [r0], {-0}
     1f8:	04000000 	streq	r0, [r0], #-0
     1fc:	5001f300 	andpl	pc, r1, r0, lsl #6
     200:	0000009f 	muleq	r0, pc, r0	; <UNPREDICTABLE>
	...
     20c:	2c000000 	stccs	0, cr0, [r0], {-0}
     210:	34000000 	strcc	r0, [r0], #-0
     214:	01000000 	mrseq	r0, (UNDEF: 0)
     218:	00345000 	eorseq	r5, r4, r0
     21c:	00480000 	subeq	r0, r8, r0
     220:	00010000 	andeq	r0, r1, r0
     224:	00004854 	andeq	r4, r0, r4, asr r8
     228:	00005800 	andeq	r5, r0, r0, lsl #16
     22c:	50000100 	andpl	r0, r0, r0, lsl #2
	...
     238:	01000000 	mrseq	r0, (UNDEF: 0)
     23c:	00000001 	andeq	r0, r0, r1
     240:	00000000 	andeq	r0, r0, r0
     244:	0000000c 	andeq	r0, r0, ip
     248:	0c500001 	mrrceq	0, 0, r0, r0, cr1	; <UNPREDICTABLE>
     24c:	20000000 	andcs	r0, r0, r0
     250:	01000000 	mrseq	r0, (UNDEF: 0)
     254:	00205400 	eoreq	r5, r0, r0, lsl #8
     258:	00240000 	eoreq	r0, r4, r0
     25c:	00030000 	andeq	r0, r3, r0
     260:	249f0174 	ldrcs	r0, [pc], #372	; 268 <__code_start__-0x7d98>
     264:	38000000 	stmdacc	r0, {}	; <UNPREDICTABLE>
     268:	01000000 	mrseq	r0, (UNDEF: 0)
     26c:	00005400 	andeq	r5, r0, r0, lsl #8
	...
     280:	00000388 	andeq	r0, r0, r8, lsl #7
     284:	00000394 	muleq	r0, r4, r3
     288:	94500001 	ldrbls	r0, [r0], #-1
     28c:	d0000003 	andle	r0, r0, r3
     290:	01000003 	tsteq	r0, r3
     294:	03d05b00 	bicseq	r5, r0, #0, 22
     298:	09200000 	stmdbeq	r0!, {}	; <UNPREDICTABLE>
     29c:	00040000 	andeq	r0, r4, r0
     2a0:	9f5001f3 	svcls	0x005001f3
     2a4:	00000920 	andeq	r0, r0, r0, lsr #18
     2a8:	00000928 	andeq	r0, r0, r8, lsr #18
     2ac:	285b0001 	ldmdacs	fp, {r0}^
     2b0:	b4000009 	strlt	r0, [r0], #-9
     2b4:	04000009 	streq	r0, [r0], #-9
     2b8:	5001f300 	andpl	pc, r1, r0, lsl #6
     2bc:	0000009f 	muleq	r0, pc, r0	; <UNPREDICTABLE>
	...
     2cc:	00038800 	andeq	r8, r3, r0, lsl #16
     2d0:	0003d000 	andeq	sp, r3, r0
     2d4:	51000100 	mrspl	r0, (UNDEF: 16)
     2d8:	000003d0 	ldrdeq	r0, [r0], -r0	; <UNPREDICTABLE>
     2dc:	00000920 	andeq	r0, r0, r0, lsr #18
     2e0:	01f30004 	mvnseq	r0, r4
     2e4:	09209f51 	stmdbeq	r0!, {r0, r4, r6, r8, r9, sl, fp, ip, pc}
     2e8:	09280000 	stmdbeq	r8!, {}	; <UNPREDICTABLE>
     2ec:	00010000 	andeq	r0, r1, r0
     2f0:	00092851 	andeq	r2, r9, r1, asr r8
     2f4:	0009b400 	andeq	fp, r9, r0, lsl #8
     2f8:	f3000400 	vshl.u8	d0, d0, d0
     2fc:	009f5101 	addseq	r5, pc, r1, lsl #2
	...
     30c:	00010000 	andeq	r0, r1, r0
     310:	00000100 	andeq	r0, r0, r0, lsl #2
	...
     31c:	88000000 	stmdahi	r0, {}	; <UNPREDICTABLE>
     320:	d0000003 	andle	r0, r0, r3
     324:	01000003 	tsteq	r0, r3
     328:	03d05200 	bicseq	r5, r0, #0, 4
     32c:	04000000 	streq	r0, [r0], #-0
     330:	00010000 	andeq	r0, r1, r0
     334:	00041456 	andeq	r1, r4, r6, asr r4
     338:	00042400 	andeq	r2, r4, r0, lsl #8
     33c:	56000100 	strpl	r0, [r0], -r0, lsl #2
     340:	00000424 	andeq	r0, r0, r4, lsr #8
     344:	00000428 	andeq	r0, r0, r8, lsr #8
     348:	7f760003 	svcvc	0x00760003
     34c:	0004a89f 	muleq	r4, pc, r8	; <UNPREDICTABLE>
     350:	0004ac00 	andeq	sl, r4, r0, lsl #24
     354:	56000100 	strpl	r0, [r0], -r0, lsl #2
     358:	000004e0 	andeq	r0, r0, r0, ror #9
     35c:	00000504 	andeq	r0, r0, r4, lsl #10
     360:	7c560001 	mrrcvc	0, 0, r0, r6, cr1
     364:	88000005 	stmdahi	r0, {r0, r2}
     368:	01000005 	tsteq	r0, r5
     36c:	05885300 	streq	r5, [r8, #768]	; 0x300
     370:	05d00000 	ldrbeq	r0, [r0]
     374:	00030000 	andeq	r0, r3, r0
     378:	007dcc91 			; <UNDEFINED> instruction: 0x007dcc91
     37c:	0f000008 	svceq	0x00000008
     380:	01000008 	tsteq	r0, r8
     384:	080f5300 	stmdaeq	pc, {r8, r9, ip, lr}	; <UNPREDICTABLE>
     388:	08880000 	stmeq	r8, {}	; <UNPREDICTABLE>
     38c:	00030000 	andeq	r0, r3, r0
     390:	207dcc91 			; <UNDEFINED> instruction: 0x207dcc91
     394:	28000009 	stmdacs	r0, {r0, r3}
     398:	01000009 	tsteq	r0, r9
     39c:	09485200 	stmdbeq	r8, {r9, ip, lr}^
     3a0:	09640000 	stmdbeq	r4!, {}^	; <UNPREDICTABLE>
     3a4:	00030000 	andeq	r0, r3, r0
     3a8:	007dcc91 			; <UNDEFINED> instruction: 0x007dcc91
	...
     3bc:	00000101 	andeq	r0, r0, r1, lsl #2
     3c0:	00000101 	andeq	r0, r0, r1, lsl #2
     3c4:	02020000 	andeq	r0, r2, #0, 0
     3c8:	02020000 	andeq	r0, r2, #0, 0
     3cc:	01010000 	mrseq	r0, (UNDEF: 1)
     3d0:	02020000 	andeq	r0, r2, #0, 0
     3d4:	01010000 	mrseq	r0, (UNDEF: 1)
	...
     3e0:	00038800 	andeq	r8, r3, r0, lsl #16
     3e4:	0003ac00 	andeq	sl, r3, r0, lsl #24
     3e8:	53000100 	movwpl	r0, #256	; 0x100
     3ec:	000003ac 	andeq	r0, r0, ip, lsr #7
     3f0:	000003c0 	andeq	r0, r0, r0, asr #7
     3f4:	93530003 	cmpls	r3, #3, 0
     3f8:	0003d004 	andeq	sp, r3, r4
     3fc:	0003e800 	andeq	lr, r3, r0, lsl #16
     400:	58000300 	stmdapl	r0, {r8, r9}
     404:	03e80493 	mvneq	r0, #-1828716544	; 0x93000000
     408:	04ac0000 	strteq	r0, [ip], #0
     40c:	00030000 	andeq	r0, r3, r0
     410:	c0049358 	andgt	r9, r4, r8, asr r3
     414:	c0000004 	andgt	r0, r0, r4
     418:	03000004 	movweq	r0, #4
     41c:	04935800 	ldreq	r5, [r3], #2048	; 0x800
     420:	000004c0 	andeq	r0, r0, r0, asr #9
     424:	000004cc 	andeq	r0, r0, ip, asr #9
     428:	04780005 	ldrbteq	r0, [r8], #-5
     42c:	cc04939f 	stcgt	3, cr9, [r4], {159}	; 0x9f
     430:	e0000004 	and	r0, r0, r4
     434:	03000004 	movweq	r0, #4
     438:	04935800 	ldreq	r5, [r3], #2048	; 0x800
     43c:	000004e0 	andeq	r0, r0, r0, ror #9
     440:	00000538 	andeq	r0, r0, r8, lsr r5
     444:	93580003 	cmpls	r8, #3, 0
     448:	00053804 	andeq	r3, r5, r4, lsl #16
     44c:	00053c00 	andeq	r3, r5, r0, lsl #24
     450:	78000500 	stmdavc	r0, {r8, sl}
     454:	04939f79 	ldreq	r9, [r3], #3961	; 0xf79
     458:	000005d0 	ldrdeq	r0, [r0], -r0	; <UNPREDICTABLE>
     45c:	000005d0 	ldrdeq	r0, [r0], -r0	; <UNPREDICTABLE>
     460:	93580003 	cmpls	r8, #3, 0
     464:	0005d004 	andeq	sp, r5, r4
     468:	0005d400 	andeq	sp, r5, r0, lsl #8
     46c:	78000500 	stmdavc	r0, {r8, sl}
     470:	04939f04 	ldreq	r9, [r3], #3844	; 0xf04
     474:	000005f4 	strdeq	r0, [r0], -r4
     478:	000005f4 	strdeq	r0, [r0], -r4
     47c:	93580003 	cmpls	r8, #3, 0
     480:	0005f404 	andeq	pc, r5, r4, lsl #8
     484:	0005fc00 	andeq	pc, r5, r0, lsl #24
     488:	78000500 	stmdavc	r0, {r8, sl}
     48c:	04939f04 	ldreq	r9, [r3], #3844	; 0xf04
     490:	000005fc 	strdeq	r0, [r0], -ip
     494:	000005fc 	strdeq	r0, [r0], -ip
     498:	93580003 	cmpls	r8, #3, 0
     49c:	0005fc04 	andeq	pc, r5, r4, lsl #24
     4a0:	00060000 	andeq	r0, r6, r0
     4a4:	78000500 	stmdavc	r0, {r8, sl}
     4a8:	04939f04 	ldreq	r9, [r3], #3844	; 0xf04
     4ac:	00000600 	andeq	r0, r0, r0, lsl #12
     4b0:	00000700 	andeq	r0, r0, r0, lsl #14
     4b4:	93580003 	cmpls	r8, #3, 0
     4b8:	00070004 	andeq	r0, r7, r4
     4bc:	00070c00 	andeq	r0, r7, r0, lsl #24
     4c0:	78000500 	stmdavc	r0, {r8, sl}
     4c4:	04939f04 	ldreq	r9, [r3], #3844	; 0xf04
     4c8:	0000070c 	andeq	r0, r0, ip, lsl #14
     4cc:	000007f8 	strdeq	r0, [r0], -r8
     4d0:	93580003 	cmpls	r8, #3, 0
     4d4:	0007f804 	andeq	pc, r7, r4, lsl #16
     4d8:	0007fc00 	andeq	pc, r7, r0, lsl #24
     4dc:	78000500 	stmdavc	r0, {r8, sl}
     4e0:	04939f04 	ldreq	r9, [r3], #3844	; 0xf04
     4e4:	000007fc 	strdeq	r0, [r0], -ip
     4e8:	00000800 	andeq	r0, r0, r0, lsl #16
     4ec:	93580003 	cmpls	r8, #3, 0
     4f0:	00088804 	andeq	r8, r8, r4, lsl #16
     4f4:	00092000 	andeq	r2, r9, r0
     4f8:	58000300 	stmdapl	r0, {r8, r9}
     4fc:	09200493 	stmdbeq	r0!, {r0, r1, r4, r7, sl}
     500:	09280000 	stmdbeq	r8!, {}	; <UNPREDICTABLE>
     504:	00010000 	andeq	r0, r1, r0
     508:	00096453 	andeq	r6, r9, r3, asr r4
     50c:	0009b400 	andeq	fp, r9, r0, lsl #8
     510:	58000300 	stmdapl	r0, {r8, r9}
     514:	00000493 	muleq	r0, r3, r4
     518:	00000000 	andeq	r0, r0, r0
     51c:	00010000 	andeq	r0, r1, r0
     520:	00000000 	andeq	r0, r0, r0
     524:	02000000 	andeq	r0, r0, #0, 0
     528:	00000002 	andeq	r0, r0, r2
     52c:	00010101 	andeq	r0, r1, r1, lsl #2
     530:	00000000 	andeq	r0, r0, r0
     534:	000003ac 	andeq	r0, r0, ip, lsr #7
     538:	000003d0 	ldrdeq	r0, [r0], -r0	; <UNPREDICTABLE>
     53c:	d05b0001 	subsle	r0, fp, r1
     540:	d4000003 	strle	r0, [r0], #-3
     544:	01000003 	tsteq	r0, r3
     548:	03d45400 	bicseq	r5, r4, #0, 8
     54c:	03d80000 	bicseq	r0, r8, #0, 0
     550:	00030000 	andeq	r0, r3, r0
     554:	d89f7f74 	ldmle	pc, {r2, r4, r5, r6, r8, r9, sl, fp, ip, sp, lr}	; <UNPREDICTABLE>
     558:	fc000003 	stc2	0, cr0, [r0], {3}
     55c:	01000003 	tsteq	r0, r3
     560:	04a85400 	strteq	r5, [r8], #1024	; 0x400
     564:	04ac0000 	strteq	r0, [ip], #0
     568:	00010000 	andeq	r0, r1, r0
     56c:	0004ac54 	andeq	sl, r4, r4, asr ip
     570:	0004b400 	andeq	fp, r4, r0, lsl #8
     574:	74000300 	strvc	r0, [r0], #-768	; 0xfffffd00
     578:	04b49f01 	ldrteq	r9, [r4], #3841	; 0xf01
     57c:	04c00000 	strbeq	r0, [r0], #0
     580:	00010000 	andeq	r0, r1, r0
     584:	0004e454 	andeq	lr, r4, r4, asr r4
     588:	0004f400 	andeq	pc, r4, r0, lsl #8
     58c:	54000100 	strpl	r0, [r0], #-256	; 0xffffff00
     590:	000004f4 	strdeq	r0, [r0], -r4
     594:	000004f8 	strdeq	r0, [r0], -r8
     598:	01740003 	cmneq	r4, r3
     59c:	0004f89f 	muleq	r4, pc, r8	; <UNPREDICTABLE>
     5a0:	00050400 	andeq	r0, r5, r0, lsl #8
     5a4:	54000100 	strpl	r0, [r0], #-256	; 0xffffff00
     5a8:	00000920 	andeq	r0, r0, r0, lsr #18
     5ac:	00000928 	andeq	r0, r0, r8, lsr #18
     5b0:	005b0001 	subseq	r0, fp, r1
     5b4:	00000000 	andeq	r0, r0, r0
     5b8:	01000000 	mrseq	r0, (UNDEF: 0)
     5bc:	0003ac00 	andeq	sl, r3, r0, lsl #24
     5c0:	0009b400 	andeq	fp, r9, r0, lsl #8
     5c4:	57000100 	strpl	r0, [r0, -r0, lsl #2]
	...
     5d0:	00000002 	andeq	r0, r0, r2
     5d4:	057c0000 	ldrbeq	r0, [ip, #-0]!
     5d8:	05d00000 	ldrbeq	r0, [r0]
     5dc:	00010000 	andeq	r0, r1, r0
     5e0:	0008005b 	andeq	r0, r8, fp, asr r0
     5e4:	00088800 	andeq	r8, r8, r0, lsl #16
     5e8:	5b000100 	blpl	9f0 <__code_start__-0x7610>
     5ec:	00000948 	andeq	r0, r0, r8, asr #18
     5f0:	00000964 	andeq	r0, r0, r4, ror #18
     5f4:	005b0001 	subseq	r0, fp, r1
     5f8:	00000000 	andeq	r0, r0, r0
     5fc:	03000000 	movweq	r0, #0
     600:	00000000 	andeq	r0, r0, r0
     604:	00057c00 	andeq	r7, r5, r0, lsl #24
     608:	0005d000 	andeq	sp, r5, r0
     60c:	59000100 	stmdbpl	r0, {r8}
     610:	00000800 	andeq	r0, r0, r0, lsl #16
     614:	00000888 	andeq	r0, r0, r8, lsl #17
     618:	48590001 	ldmdami	r9, {r0}^
     61c:	64000009 	strvs	r0, [r0], #-9
     620:	01000009 	tsteq	r0, r9
     624:	00005900 	andeq	r5, r0, r0, lsl #18
     628:	00000000 	andeq	r0, r0, r0
     62c:	00040000 	andeq	r0, r4, r0
     630:	00000000 	andeq	r0, r0, r0
     634:	03ac0000 			; <UNDEFINED> instruction: 0x03ac0000
     638:	03d00000 	bicseq	r0, r0, #0, 0
     63c:	00010000 	andeq	r0, r1, r0
     640:	0003d052 	andeq	sp, r3, r2, asr r0
     644:	00092000 	andeq	r2, r9, r0
     648:	f3000400 	vshl.u8	d0, d0, d0
     64c:	209f5201 	addscs	r5, pc, r1, lsl #4
     650:	28000009 	stmdacs	r0, {r0, r3}
     654:	01000009 	tsteq	r0, r9
     658:	09285200 	stmdbeq	r8!, {r9, ip, lr}
     65c:	09b40000 	ldmibeq	r4!, {}	; <UNPREDICTABLE>
     660:	00040000 	andeq	r0, r4, r0
     664:	9f5201f3 	svcls	0x005201f3
	...
     670:	00010100 	andeq	r0, r1, r0, lsl #2
     674:	00000000 	andeq	r0, r0, r0
     678:	00000001 	andeq	r0, r0, r1
     67c:	000004e0 	andeq	r0, r0, r0, ror #9
     680:	000004e0 	andeq	r0, r0, r0, ror #9
     684:	e0500001 	subs	r0, r0, r1
     688:	e8000004 	stmda	r0, {r2}
     68c:	01000004 	tsteq	r0, r4
     690:	05b85500 	ldreq	r5, [r8, #1280]!	; 0x500
     694:	05d00000 	ldrbeq	r0, [r0]
     698:	00010000 	andeq	r0, r1, r0
     69c:	0005f055 	andeq	pc, r5, r5, asr r0	; <UNPREDICTABLE>
     6a0:	0005f400 	andeq	pc, r5, r0, lsl #8
     6a4:	50000100 	andpl	r0, r0, r0, lsl #2
     6a8:	000007f4 	strdeq	r0, [r0], -r4
     6ac:	000007f8 	strdeq	r0, [r0], -r8
     6b0:	50550001 	subspl	r0, r5, r1
     6b4:	88000008 	stmdahi	r0, {r3}
     6b8:	01000008 	tsteq	r0, r8
     6bc:	00005500 	andeq	r5, r0, r0, lsl #10
     6c0:	00000000 	andeq	r0, r0, r0
     6c4:	00020000 	andeq	r0, r2, r0
     6c8:	00000000 	andeq	r0, r0, r0
     6cc:	04140000 	ldreq	r0, [r4], #-0
     6d0:	04180000 	ldreq	r0, [r8], #-0
     6d4:	00020000 	andeq	r0, r2, r0
     6d8:	04189f30 	ldreq	r9, [r8], #-3888	; 0xfffff0d0
     6dc:	041c0000 	ldreq	r0, [ip], #-0
     6e0:	00010000 	andeq	r0, r1, r0
     6e4:	00042855 	andeq	r2, r4, r5, asr r8
     6e8:	00043c00 	andeq	r3, r4, r0, lsl #24
     6ec:	55000100 	strpl	r0, [r0, #-256]	; 0xffffff00
     6f0:	00000928 	andeq	r0, r0, r8, lsr #18
     6f4:	00000930 	andeq	r0, r0, r0, lsr r9
     6f8:	00550001 	subseq	r0, r5, r1
     6fc:	00000000 	andeq	r0, r0, r0
     700:	01000000 	mrseq	r0, (UNDEF: 0)
	...
     70c:	04000000 	streq	r0, [r0], #-0
     710:	84000005 	strhi	r0, [r0], #-5
     714:	01000005 	tsteq	r0, r5
     718:	05845600 	streq	r5, [r4, #1536]	; 0x600
     71c:	05880000 	streq	r0, [r8]
     720:	00030000 	andeq	r0, r3, r0
     724:	889f7e73 	ldmhi	pc, {r0, r1, r4, r5, r6, r9, sl, fp, ip, sp, lr}	; <UNPREDICTABLE>
     728:	d0000005 	andle	r0, r0, r5
     72c:	07000005 	streq	r0, [r0, -r5]
     730:	7dcc9100 	stfvcp	f1, [ip]
     734:	9f1c3206 	svcls	0x001c3206
     738:	00000800 	andeq	r0, r0, r0, lsl #16
     73c:	0000081c 	andeq	r0, r0, ip, lsl r8
     740:	1c560001 	mrrcne	0, 0, r0, r6, cr1
     744:	88000008 	stmdahi	r0, {r3}
     748:	07000008 	streq	r0, [r0, -r8]
     74c:	7dcc9100 	stfvcp	f1, [ip]
     750:	9f1c3206 	svcls	0x001c3206
     754:	00000948 	andeq	r0, r0, r8, asr #18
     758:	000009b4 			; <UNDEFINED> instruction: 0x000009b4
     75c:	00560001 	subseq	r0, r6, r1
     760:	00000000 	andeq	r0, r0, r0
     764:	04000000 	streq	r0, [r0], #-0
     768:	14040206 	strne	r0, [r4], #-518	; 0xfffffdfa
     76c:	14000004 	strne	r0, [r0], #-4
     770:	06000004 	streq	r0, [r0], -r4
     774:	08007200 	stmdaeq	r0, {r9, ip, sp, lr}
     778:	289f1aff 	ldmcs	pc, {r0, r1, r2, r3, r4, r5, r6, r7, r9, fp, ip}	; <UNPREDICTABLE>
     77c:	28000004 	stmdacs	r0, {r2}
     780:	06000004 	streq	r0, [r0], -r4
     784:	08007200 	stmdaeq	r0, {r9, ip, sp, lr}
     788:	009f1aff 			; <UNDEFINED> instruction: 0x009f1aff
     78c:	00000000 	andeq	r0, r0, r0
     790:	02000000 	andeq	r0, r0, #0, 0
     794:	00000000 	andeq	r0, r0, r0
     798:	0005fc00 	andeq	pc, r5, r0, lsl #24
     79c:	00070000 	andeq	r0, r7, r0
     7a0:	08000300 	stmdaeq	r0, {r8, r9}
     7a4:	08a89f80 	stmiaeq	r8!, {r7, r8, r9, sl, fp, ip, pc}
     7a8:	08bc0000 	ldmeq	ip!, {}	; <UNPREDICTABLE>
     7ac:	00030000 	andeq	r0, r3, r0
     7b0:	109f8008 	addsne	r8, pc, r8
     7b4:	20000009 	andcs	r0, r0, r9
     7b8:	03000009 	movweq	r0, #9
     7bc:	9f800800 	svcls	0x00800800
	...
     7c8:	00000001 	andeq	r0, r0, r1
     7cc:	05fc0000 	ldrbeq	r0, [ip, #0]!
     7d0:	07000000 	streq	r0, [r0, -r0]
     7d4:	00020000 	andeq	r0, r2, r0
     7d8:	08a89f30 	stmiaeq	r8!, {r4, r5, r8, r9, sl, fp, ip, pc}
     7dc:	08bc0000 	ldmeq	ip!, {}	; <UNPREDICTABLE>
     7e0:	00020000 	andeq	r0, r2, r0
     7e4:	09109f30 	ldmdbeq	r0, {r4, r5, r8, r9, sl, fp, ip, pc}
     7e8:	09200000 	stmdbeq	r0!, {}	; <UNPREDICTABLE>
     7ec:	00020000 	andeq	r0, r2, r0
     7f0:	00009f30 	andeq	r9, r0, r0, lsr pc
     7f4:	00000000 	andeq	r0, r0, r0
     7f8:	00010000 	andeq	r0, r1, r0
     7fc:	00000000 	andeq	r0, r0, r0
     800:	000005fc 	strdeq	r0, [r0], -ip
     804:	000006e0 	andeq	r0, r0, r0, ror #13
     808:	a8550001 	ldmdage	r5, {r0}^
     80c:	bc000008 	stclt	0, cr0, [r0], {8}
     810:	01000008 	tsteq	r0, r8
     814:	09105500 	ldmdbeq	r0, {r8, sl, ip, lr}
     818:	09200000 	stmdbeq	r0!, {}	; <UNPREDICTABLE>
     81c:	00010000 	andeq	r0, r1, r0
     820:	00000055 	andeq	r0, r0, r5, asr r0
     824:	00000000 	andeq	r0, r0, r0
     828:	00000100 	andeq	r0, r0, r0, lsl #2
     82c:	00000000 	andeq	r0, r0, r0
     830:	0005fc00 	andeq	pc, r5, r0, lsl #24
     834:	0006e000 	andeq	lr, r6, r0
     838:	91000400 	tstls	r0, r0, lsl #8
     83c:	e09f7dd0 			; <UNDEFINED> instruction: 0xe09f7dd0
     840:	00000006 	andeq	r0, r0, r6
     844:	01000007 	tsteq	r0, r7
     848:	08a85500 	stmiaeq	r8!, {r8, sl, ip, lr}
     84c:	08bc0000 	ldmeq	ip!, {}	; <UNPREDICTABLE>
     850:	00040000 	andeq	r0, r4, r0
     854:	9f7dd091 	svcls	0x007dd091
     858:	00000910 	andeq	r0, r0, r0, lsl r9
     85c:	00000920 	andeq	r0, r0, r0, lsr #18
     860:	d0910004 	addsle	r0, r1, r4
     864:	00009f7d 	andeq	r9, r0, sp, ror pc
     868:	00000000 	andeq	r0, r0, r0
     86c:	00010000 	andeq	r0, r1, r0
     870:	00000000 	andeq	r0, r0, r0
     874:	000005fc 	strdeq	r0, [r0], -ip
     878:	00000700 	andeq	r0, r0, r0, lsl #14
     87c:	9f380002 	svcls	0x00380002
     880:	000008a8 	andeq	r0, r0, r8, lsr #17
     884:	000008bc 			; <UNDEFINED> instruction: 0x000008bc
     888:	9f380002 	svcls	0x00380002
     88c:	00000910 	andeq	r0, r0, r0, lsl r9
     890:	00000920 	andeq	r0, r0, r0, lsr #18
     894:	9f380002 	svcls	0x00380002
	...
     8a0:	00070704 	andeq	r0, r7, r4, lsl #14
	...
     8ac:	05fc0000 	ldrbeq	r0, [ip, #0]!
     8b0:	05fc0000 	ldrbeq	r0, [ip, #0]!
     8b4:	00040000 	andeq	r0, r4, r0
     8b8:	9f7ed091 	svcls	0x007ed091
     8bc:	000005fc 	strdeq	r0, [r0], -ip
     8c0:	00000678 	andeq	r0, r0, r8, ror r6
     8c4:	d1910004 	orrsle	r0, r1, r4
     8c8:	06789f7e 	uhsub16eq	r9, r8, lr
     8cc:	06d40000 	ldrbeq	r0, [r4], r0
     8d0:	00010000 	andeq	r0, r1, r0
     8d4:	0006d45c 	andeq	sp, r6, ip, asr r4
     8d8:	00070000 	andeq	r0, r7, r0
     8dc:	91000400 	tstls	r0, r0, lsl #8
     8e0:	a89f7ed1 	ldmge	pc, {r0, r4, r6, r7, r9, sl, fp, ip, sp, lr}	; <UNPREDICTABLE>
     8e4:	bc000008 	stclt	0, cr0, [r0], {8}
     8e8:	04000008 	streq	r0, [r0], #-8
     8ec:	7ed19100 	atnvcs	f1, f0
     8f0:	0009109f 	muleq	r9, pc, r0	; <UNPREDICTABLE>
     8f4:	00091400 	andeq	r1, r9, r0, lsl #8
     8f8:	91000400 	tstls	r0, r0, lsl #8
     8fc:	149f7ed1 	ldrne	r7, [pc], #3793	; 904 <__code_start__-0x76fc>
     900:	20000009 	andcs	r0, r0, r9
     904:	01000009 	tsteq	r0, r9
     908:	00005c00 	andeq	r5, r0, r0, lsl #24
     90c:	00000000 	andeq	r0, r0, r0
     910:	01040000 	mrseq	r0, (UNDEF: 4)
     914:	00000100 	andeq	r0, r0, r0, lsl #2
     918:	00000608 	andeq	r0, r0, r8, lsl #12
     91c:	000006d0 	ldrdeq	r0, [r0], -r0	; <UNPREDICTABLE>
     920:	a8550001 	ldmdage	r5, {r0}^
     924:	b8000008 	stmdalt	r0, {r3}
     928:	01000008 	tsteq	r0, r8
     92c:	09105500 	ldmdbeq	r0, {r8, sl, ip, lr}
     930:	09200000 	stmdbeq	r0!, {}	; <UNPREDICTABLE>
     934:	00010000 	andeq	r0, r1, r0
     938:	00000055 	andeq	r0, r0, r5, asr r0
     93c:	00000000 	andeq	r0, r0, r0
     940:	00000400 	andeq	r0, r0, r0, lsl #8
     944:	00010000 	andeq	r0, r1, r0
     948:	00010000 	andeq	r0, r1, r0
     94c:	00060800 	andeq	r0, r6, r0, lsl #16
     950:	0006b000 	andeq	fp, r6, r0
     954:	91000400 	tstls	r0, r0, lsl #8
     958:	b09f7ed0 			; <UNDEFINED> instruction: 0xb09f7ed0
     95c:	c8000006 	stmdagt	r0, {r1, r2}
     960:	01000006 	tsteq	r0, r6
     964:	06c85000 	strbeq	r5, [r8], r0
     968:	06d00000 	ldrbeq	r0, [r0], r0
     96c:	00040000 	andeq	r0, r4, r0
     970:	9f7ed091 	svcls	0x007ed091
     974:	000008a8 	andeq	r0, r0, r8, lsr #17
     978:	000008b0 			; <UNDEFINED> instruction: 0x000008b0
     97c:	d0910004 	addsle	r0, r1, r4
     980:	08b09f7e 	ldmeq	r0!, {r1, r2, r3, r4, r5, r6, r8, r9, sl, fp, ip, pc}
     984:	08b80000 	ldmeq	r8!, {}	; <UNPREDICTABLE>
     988:	00010000 	andeq	r0, r1, r0
     98c:	00091053 	andeq	r1, r9, r3, asr r0
     990:	00092000 	andeq	r2, r9, r0
     994:	91000400 	tstls	r0, r0, lsl #8
     998:	009f7ed0 			; <UNDEFINED> instruction: 0x009f7ed0
     99c:	00000000 	andeq	r0, r0, r0
     9a0:	04000000 	streq	r0, [r0], #-0
     9a4:	01010000 	mrseq	r0, (UNDEF: 1)
     9a8:	03030101 	movweq	r0, #12545	; 0x3101
     9ac:	00010002 	andeq	r0, r1, r2
     9b0:	08000000 	stmdaeq	r0, {}	; <UNPREDICTABLE>
     9b4:	24000006 	strcs	r0, [r0], #-6
     9b8:	04000006 	streq	r0, [r0], #-6
     9bc:	7ed19100 	atnvcs	f1, f0
     9c0:	0006849f 	muleq	r6, pc, r4	; <UNPREDICTABLE>
     9c4:	00068400 	andeq	r8, r6, r0, lsl #8
     9c8:	50000100 	andpl	r0, r0, r0, lsl #2
     9cc:	00000684 	andeq	r0, r0, r4, lsl #13
     9d0:	00000698 	muleq	r0, r8, r6
     9d4:	01700003 	cmneq	r0, r3
     9d8:	0006989f 	muleq	r6, pc, r8	; <UNPREDICTABLE>
     9dc:	0006a400 	andeq	sl, r6, r0, lsl #8
     9e0:	70000300 	andvc	r0, r0, r0, lsl #6
     9e4:	06a49f02 	strteq	r9, [r4], r2, lsl #30
     9e8:	06a80000 	strteq	r0, [r8], r0
     9ec:	00030000 	andeq	r0, r3, r0
     9f0:	a89f0370 	ldmge	pc, {r4, r5, r6, r8, r9}	; <UNPREDICTABLE>
     9f4:	b8000008 	stmdalt	r0, {r3}
     9f8:	04000008 	streq	r0, [r0], #-8
     9fc:	7ed19100 	atnvcs	f1, f0
     a00:	0009109f 	muleq	r9, pc, r0	; <UNPREDICTABLE>
     a04:	00091400 	andeq	r1, r9, r0, lsl #8
     a08:	91000400 	tstls	r0, r0, lsl #8
     a0c:	149f7ed1 	ldrne	r7, [pc], #3793	; a14 <__code_start__-0x75ec>
     a10:	20000009 	andcs	r0, r0, r9
     a14:	01000009 	tsteq	r0, r9
     a18:	00005c00 	andeq	r5, r0, r0, lsl #24
     a1c:	00000000 	andeq	r0, r0, r0
     a20:	00060000 	andeq	r0, r6, r0
     a24:	01010100 	mrseq	r0, (UNDEF: 17)
     a28:	02010101 	andeq	r0, r1, #1073741824	; 0x40000000
     a2c:	00000100 	andeq	r0, r0, r0, lsl #2
     a30:	00000608 	andeq	r0, r0, r8, lsl #12
     a34:	00000624 	andeq	r0, r0, r4, lsr #12
     a38:	9f310002 	svcls	0x00310002
     a3c:	00000684 	andeq	r0, r0, r4, lsl #13
     a40:	00000694 	muleq	r0, r4, r6
     a44:	94520001 	ldrbls	r0, [r2], #-1
     a48:	a4000006 	strge	r0, [r0], #-6
     a4c:	01000006 	tsteq	r0, r6
     a50:	06a45900 	strteq	r5, [r4], r0, lsl #18
     a54:	06a80000 	strteq	r0, [r8], r0
     a58:	00010000 	andeq	r0, r1, r0
     a5c:	0006a852 	andeq	sl, r6, r2, asr r8
     a60:	0006a800 	andeq	sl, r6, r0, lsl #16
     a64:	72000300 	andvc	r0, r0, #0, 6
     a68:	08a89f01 	stmiaeq	r8!, {r0, r8, r9, sl, fp, ip, pc}
     a6c:	08b80000 	ldmeq	r8!, {}	; <UNPREDICTABLE>
     a70:	00020000 	andeq	r0, r2, r0
     a74:	09109f31 	ldmdbeq	r0, {r0, r4, r5, r8, r9, sl, fp, ip, pc}
     a78:	09200000 	stmdbeq	r0!, {}	; <UNPREDICTABLE>
     a7c:	00020000 	andeq	r0, r2, r0
     a80:	00009f31 	andeq	r9, r0, r1, lsr pc
     a84:	00000000 	andeq	r0, r0, r0
     a88:	06010000 	streq	r0, [r1], -r0
     a8c:	00010006 	andeq	r0, r1, r6
     a90:	000006d0 	ldrdeq	r0, [r0], -r0	; <UNPREDICTABLE>
     a94:	000006d0 	ldrdeq	r0, [r0], -r0	; <UNPREDICTABLE>
     a98:	d0910004 	addsle	r0, r1, r4
     a9c:	06d09f7e 			; <UNDEFINED> instruction: 0x06d09f7e
     aa0:	07000000 	streq	r0, [r0, -r0]
     aa4:	00010000 	andeq	r0, r1, r0
     aa8:	0008b850 	andeq	fp, r8, r0, asr r8
     aac:	0008bc00 	andeq	fp, r8, r0, lsl #24
     ab0:	53000100 	movwpl	r0, #256	; 0x100
	...
     abc:	00000801 	andeq	r0, r0, r1, lsl #16
     ac0:	00010100 	andeq	r0, r1, r0, lsl #2
     ac4:	06d00701 	ldrbeq	r0, [r0], r1, lsl #14
     ac8:	06d00000 	ldrbeq	r0, [r0], r0
     acc:	00060000 	andeq	r0, r6, r0
     ad0:	0071007c 	rsbseq	r0, r1, ip, ror r0
     ad4:	06e49f22 	strbteq	r9, [r4], r2, lsr #30
     ad8:	06e80000 	strbteq	r0, [r8], r0
     adc:	00030000 	andeq	r0, r3, r0
     ae0:	e89f7f73 	ldm	pc, {r0, r1, r4, r5, r6, r8, r9, sl, fp, ip, sp, lr}	; <UNPREDICTABLE>
     ae4:	f0000006 			; <UNDEFINED> instruction: 0xf0000006
     ae8:	01000006 	tsteq	r0, r6
     aec:	06f05300 	ldrbteq	r5, [r0], r0, lsl #6
     af0:	06f80000 	ldrbteq	r0, [r8], r0
     af4:	00030000 	andeq	r0, r3, r0
     af8:	b89f7f73 	ldmlt	pc, {r0, r1, r4, r5, r6, r8, r9, sl, fp, ip, sp, lr}	; <UNPREDICTABLE>
     afc:	b8000008 	stmdalt	r0, {r3}
     b00:	04000008 	streq	r0, [r0], #-8
     b04:	7ed19100 	atnvcs	f1, f0
     b08:	0000009f 	muleq	r0, pc, r0	; <UNPREDICTABLE>
     b0c:	00000000 	andeq	r0, r0, r0
     b10:	01000100 	mrseq	r0, (UNDEF: 16)
     b14:	0006d000 	andeq	sp, r6, r0
     b18:	00070000 	andeq	r0, r7, r0
     b1c:	08000300 	stmdaeq	r0, {r8, r9}
     b20:	08b89f80 	ldmeq	r8!, {r7, r8, r9, sl, fp, ip, pc}
     b24:	08bc0000 	ldmeq	ip!, {}	; <UNPREDICTABLE>
     b28:	00030000 	andeq	r0, r3, r0
     b2c:	009f8008 	addseq	r8, pc, r8
     b30:	00000000 	andeq	r0, r0, r0
     b34:	01000000 	mrseq	r0, (UNDEF: 0)
     b38:	00000000 	andeq	r0, r0, r0
     b3c:	00000101 	andeq	r0, r0, r1, lsl #2
     b40:	01010200 	mrseq	r0, R9_usr
     b44:	0006d000 	andeq	sp, r6, r0
     b48:	0006e000 	andeq	lr, r6, r0
     b4c:	91000400 	tstls	r0, r0, lsl #8
     b50:	e09f7dd0 			; <UNDEFINED> instruction: 0xe09f7dd0
     b54:	e4000006 	str	r0, [r0], #-6
     b58:	01000006 	tsteq	r0, r6
     b5c:	06e45500 	strbteq	r5, [r4], r0, lsl #10
     b60:	06e40000 	strbteq	r0, [r4], r0
     b64:	00030000 	andeq	r0, r3, r0
     b68:	e49f0172 	ldr	r0, [pc], #370	; b70 <__code_start__-0x7490>
     b6c:	f0000006 			; <UNDEFINED> instruction: 0xf0000006
     b70:	03000006 	movweq	r0, #6
     b74:	9f027200 	svcls	0x00027200
     b78:	000006f0 	strdeq	r0, [r0], -r0	; <UNPREDICTABLE>
     b7c:	00000700 	andeq	r0, r0, r0, lsl #14
     b80:	01720003 	cmneq	r2, r3
     b84:	0007ec9f 	muleq	r7, pc, ip	; <UNPREDICTABLE>
     b88:	0007f400 	andeq	pc, r7, r0, lsl #8
     b8c:	73000300 	movwvc	r0, #768	; 0x300
     b90:	08b89f01 	ldmeq	r8!, {r0, r8, r9, sl, fp, ip, pc}
     b94:	08bc0000 	ldmeq	ip!, {}	; <UNPREDICTABLE>
     b98:	00040000 	andeq	r0, r4, r0
     b9c:	9f7dd091 	svcls	0x007dd091
	...
     ba8:	08b80004 	ldmeq	r8!, {r2}
     bac:	08bc0000 	ldmeq	ip!, {}	; <UNPREDICTABLE>
     bb0:	00020000 	andeq	r0, r2, r0
     bb4:	00009f32 	andeq	r9, r0, r2, lsr pc
     bb8:	00000000 	andeq	r0, r0, r0
     bbc:	00070000 	andeq	r0, r7, r0
     bc0:	00060000 	andeq	r0, r6, r0
     bc4:	000006d0 	ldrdeq	r0, [r0], -r0	; <UNPREDICTABLE>
     bc8:	000006e0 	andeq	r0, r0, r0, ror #13
     bcc:	d0910004 	addsle	r0, r1, r4
     bd0:	06e09f7d 			; <UNDEFINED> instruction: 0x06e09f7d
     bd4:	07000000 	streq	r0, [r0, -r0]
     bd8:	00010000 	andeq	r0, r1, r0
     bdc:	0008b855 	andeq	fp, r8, r5, asr r8
     be0:	0008bc00 	andeq	fp, r8, r0, lsl #24
     be4:	91000400 	tstls	r0, r0, lsl #8
     be8:	009f7dd0 			; <UNDEFINED> instruction: 0x009f7dd0
     bec:	00000000 	andeq	r0, r0, r0
     bf0:	01000000 	mrseq	r0, (UNDEF: 0)
     bf4:	0c000000 	stceq	0, cr0, [r0], {-0}
     bf8:	ec000007 	stc	0, cr0, [r0], {7}
     bfc:	03000007 	movweq	r0, #7
     c00:	9f800800 	svcls	0x00800800
     c04:	00000894 	muleq	r0, r4, r8
     c08:	000008a8 	andeq	r0, r0, r8, lsr #17
     c0c:	80080003 	andhi	r0, r8, r3
     c10:	0000009f 	muleq	r0, pc, r0	; <UNPREDICTABLE>
	...
     c1c:	00070c00 	andeq	r0, r7, r0, lsl #24
     c20:	0007ec00 	andeq	lr, r7, r0, lsl #24
     c24:	30000200 	andcc	r0, r0, r0, lsl #4
     c28:	0008949f 	muleq	r8, pc, r4	; <UNPREDICTABLE>
     c2c:	0008a800 	andeq	sl, r8, r0, lsl #16
     c30:	30000200 	andcc	r0, r0, r0, lsl #4
     c34:	0000009f 	muleq	r0, pc, r0	; <UNPREDICTABLE>
	...
     c40:	00070c00 	andeq	r0, r7, r0, lsl #24
     c44:	0007d000 	andeq	sp, r7, r0
     c48:	55000100 	strpl	r0, [r0, #-256]	; 0xffffff00
     c4c:	00000894 	muleq	r0, r4, r8
     c50:	000008a8 	andeq	r0, r0, r8, lsr #17
     c54:	00550001 	subseq	r0, r5, r1
	...
     c64:	00070c00 	andeq	r0, r7, r0, lsl #24
     c68:	0007d000 	andeq	sp, r7, r0
     c6c:	91000400 	tstls	r0, r0, lsl #8
     c70:	d09f7dd0 			; <UNDEFINED> instruction: 0xd09f7dd0
     c74:	ec000007 	stc	0, cr0, [r0], {7}
     c78:	01000007 	tsteq	r0, r7
     c7c:	08945500 	ldmeq	r4, {r8, sl, ip, lr}
     c80:	08a80000 	stmiaeq	r8!, {}	; <UNPREDICTABLE>
     c84:	00040000 	andeq	r0, r4, r0
     c88:	9f7dd091 	svcls	0x007dd091
	...
     c98:	0000070c 	andeq	r0, r0, ip, lsl #14
     c9c:	000007ec 	andeq	r0, r0, ip, ror #15
     ca0:	9f320002 	svcls	0x00320002
     ca4:	00000894 	muleq	r0, r4, r8
     ca8:	000008a8 	andeq	r0, r0, r8, lsr #17
     cac:	9f320002 	svcls	0x00320002
	...
     cb8:	00050503 	andeq	r0, r5, r3, lsl #10
     cbc:	00000000 	andeq	r0, r0, r0
     cc0:	070c0000 	streq	r0, [ip, -r0]
     cc4:	070c0000 	streq	r0, [ip, -r0]
     cc8:	00010000 	andeq	r0, r1, r0
     ccc:	00070c51 	andeq	r0, r7, r1, asr ip
     cd0:	00071c00 	andeq	r1, r7, r0, lsl #24
     cd4:	53000100 	movwpl	r0, #256	; 0x100
     cd8:	0000071c 	andeq	r0, r0, ip, lsl r7
     cdc:	00000724 	andeq	r0, r0, r4, lsr #14
     ce0:	01720003 	cmneq	r2, r3
     ce4:	0007249f 	muleq	r7, pc, r4	; <UNPREDICTABLE>
     ce8:	0007cc00 	andeq	ip, r7, r0, lsl #24
     cec:	53000100 	movwpl	r0, #256	; 0x100
     cf0:	00000894 	muleq	r0, r4, r8
     cf4:	000008a8 	andeq	r0, r0, r8, lsr #17
     cf8:	00530001 	subseq	r0, r3, r1
     cfc:	00000000 	andeq	r0, r0, r0
     d00:	05000000 	streq	r0, [r0, #-0]
     d04:	0c000100 	stfeqs	f0, [r0], {-0}
     d08:	20000007 	andcs	r0, r0, r7
     d0c:	01000007 	tsteq	r0, r7
     d10:	07245000 	streq	r5, [r4, -r0]!
     d14:	072c0000 	streq	r0, [ip, -r0]!
     d18:	00010000 	andeq	r0, r1, r0
     d1c:	00000050 	andeq	r0, r0, r0, asr r0
     d20:	00000000 	andeq	r0, r0, r0
     d24:	00010300 	andeq	r0, r1, r0, lsl #6
     d28:	00072801 	andeq	r2, r7, r1, lsl #16
     d2c:	0007b000 	andeq	fp, r7, r0
     d30:	55000100 	strpl	r0, [r0, #-256]	; 0xffffff00
     d34:	00000894 	muleq	r0, r4, r8
     d38:	000008a0 	andeq	r0, r0, r0, lsr #17
     d3c:	00550001 	subseq	r0, r5, r1
     d40:	00000000 	andeq	r0, r0, r0
     d44:	03000000 	movweq	r0, #0
     d48:	28010001 	stmdacs	r1, {r0}
     d4c:	b0000007 	andlt	r0, r0, r7
     d50:	01000007 	tsteq	r0, r7
     d54:	08945100 	ldmeq	r4, {r8, ip, lr}
     d58:	08a00000 	stmiaeq	r0!, {}	; <UNPREDICTABLE>
     d5c:	00010000 	andeq	r0, r1, r0
     d60:	00000051 	andeq	r0, r0, r1, asr r0
     d64:	00000000 	andeq	r0, r0, r0
     d68:	00000300 	andeq	r0, r0, r0, lsl #6
     d6c:	01010101 	tsteq	r1, r1, lsl #2
     d70:	00020303 	andeq	r0, r2, r3, lsl #6
     d74:	00072801 	andeq	r2, r7, r1, lsl #16
     d78:	00075000 	andeq	r5, r7, r0
     d7c:	53000100 	movwpl	r0, #256	; 0x100
     d80:	00000774 	andeq	r0, r0, r4, ror r7
     d84:	00000774 	andeq	r0, r0, r4, ror r7
     d88:	745e0001 	ldrbvc	r0, [lr], #-1
     d8c:	88000007 	stmdahi	r0, {r0, r1, r2}
     d90:	03000007 	movweq	r0, #7
     d94:	9f017e00 	svcls	0x00017e00
     d98:	00000788 	andeq	r0, r0, r8, lsl #15
     d9c:	00000794 	muleq	r0, r4, r7
     da0:	027e0003 	rsbseq	r0, lr, #3, 0
     da4:	0007949f 	muleq	r7, pc, r4	; <UNPREDICTABLE>
     da8:	00079800 	andeq	r9, r7, r0, lsl #16
     dac:	7e000300 	cdpvc	3, 0, cr0, cr0, cr0, {0}
     db0:	08949f03 	ldmeq	r4, {r0, r1, r8, r9, sl, fp, ip, pc}
     db4:	08a00000 	stmiaeq	r0!, {}	; <UNPREDICTABLE>
     db8:	00010000 	andeq	r0, r1, r0
     dbc:	00000053 	andeq	r0, r0, r3, asr r0
	...
     dc8:	01010101 	tsteq	r1, r1, lsl #2
     dcc:	00020101 	andeq	r0, r2, r1, lsl #2
     dd0:	00072c01 	andeq	r2, r7, r1, lsl #24
     dd4:	00075000 	andeq	r5, r7, r0
     dd8:	50000100 	andpl	r0, r0, r0, lsl #2
     ddc:	00000774 	andeq	r0, r0, r4, ror r7
     de0:	00000784 	andeq	r0, r0, r4, lsl #15
     de4:	84500001 	ldrbhi	r0, [r0], #-1
     de8:	94000007 	strls	r0, [r0], #-7
     dec:	01000007 	tsteq	r0, r7
     df0:	07945b00 	ldreq	r5, [r4, r0, lsl #22]
     df4:	07980000 	ldreq	r0, [r8, r0]
     df8:	00010000 	andeq	r0, r1, r0
     dfc:	00079850 	andeq	r9, r7, r0, asr r8
     e00:	00079800 	andeq	r9, r7, r0, lsl #16
     e04:	70000300 	andvc	r0, r0, r0, lsl #6
     e08:	08949f01 	ldmeq	r4, {r0, r8, r9, sl, fp, ip, pc}
     e0c:	08a00000 	stmiaeq	r0!, {}	; <UNPREDICTABLE>
     e10:	00010000 	andeq	r0, r1, r0
     e14:	00000050 	andeq	r0, r0, r0, asr r0
     e18:	00000000 	andeq	r0, r0, r0
     e1c:	01000100 	mrseq	r0, (UNDEF: 16)
     e20:	0007b000 	andeq	fp, r7, r0
     e24:	0007ec00 	andeq	lr, r7, r0, lsl #24
     e28:	51000100 	mrspl	r0, (UNDEF: 16)
     e2c:	000008a0 	andeq	r0, r0, r0, lsr #17
     e30:	000008a8 	andeq	r0, r0, r8, lsr #17
     e34:	00510001 	subseq	r0, r1, r1
     e38:	00000000 	andeq	r0, r0, r0
     e3c:	01000000 	mrseq	r0, (UNDEF: 0)
     e40:	00000000 	andeq	r0, r0, r0
     e44:	01000101 	tsteq	r0, r1, lsl #2
     e48:	0007b000 	andeq	fp, r7, r0
     e4c:	0007b400 	andeq	fp, r7, r0, lsl #8
     e50:	73000600 	movwvc	r0, #1536	; 0x600
     e54:	22007c00 	andcs	r7, r0, #0, 24
     e58:	0007d49f 	muleq	r7, pc, r4	; <UNPREDICTABLE>
     e5c:	0007d800 	andeq	sp, r7, r0, lsl #16
     e60:	73000300 	movwvc	r0, #768	; 0x300
     e64:	07d89f7f 			; <UNDEFINED> instruction: 0x07d89f7f
     e68:	07e00000 	strbeq	r0, [r0, r0]!
     e6c:	00010000 	andeq	r0, r1, r0
     e70:	0007e053 	andeq	lr, r7, r3, asr r0
     e74:	0007e800 	andeq	lr, r7, r0, lsl #16
     e78:	73000300 	movwvc	r0, #768	; 0x300
     e7c:	08a09f7f 	stmiaeq	r0!, {r0, r1, r2, r3, r4, r5, r6, r8, r9, sl, fp, ip, pc}
     e80:	08a80000 	stmiaeq	r8!, {}	; <UNPREDICTABLE>
     e84:	00010000 	andeq	r0, r1, r0
     e88:	00000053 	andeq	r0, r0, r3, asr r0
     e8c:	00000000 	andeq	r0, r0, r0
     e90:	01000100 	mrseq	r0, (UNDEF: 16)
     e94:	0007b000 	andeq	fp, r7, r0
     e98:	0007ec00 	andeq	lr, r7, r0, lsl #24
     e9c:	08000300 	stmdaeq	r0, {r8, r9}
     ea0:	08a09f80 	stmiaeq	r0!, {r7, r8, r9, sl, fp, ip, pc}
     ea4:	08a80000 	stmiaeq	r8!, {}	; <UNPREDICTABLE>
     ea8:	00030000 	andeq	r0, r3, r0
     eac:	009f8008 	addseq	r8, pc, r8
     eb0:	00000000 	andeq	r0, r0, r0
     eb4:	01000000 	mrseq	r0, (UNDEF: 0)
     eb8:	00000000 	andeq	r0, r0, r0
     ebc:	00000101 	andeq	r0, r0, r1, lsl #2
     ec0:	b0000100 	andlt	r0, r0, r0, lsl #2
     ec4:	d0000007 	andle	r0, r0, r7
     ec8:	04000007 	streq	r0, [r0], #-7
     ecc:	7dd09100 	ldfvcp	f1, [r0]
     ed0:	0007d09f 	muleq	r7, pc, r0	; <UNPREDICTABLE>
     ed4:	0007d400 	andeq	sp, r7, r0, lsl #8
     ed8:	55000100 	strpl	r0, [r0, #-256]	; 0xffffff00
     edc:	000007d4 	ldrdeq	r0, [r0], -r4
     ee0:	000007d4 	ldrdeq	r0, [r0], -r4
     ee4:	017c0003 	cmneq	ip, r3
     ee8:	0007d49f 	muleq	r7, pc, r4	; <UNPREDICTABLE>
     eec:	0007e000 	andeq	lr, r7, r0
     ef0:	7c000300 	stcvc	3, cr0, [r0], {-0}
     ef4:	07e09f02 	strbeq	r9, [r0, r2, lsl #30]!
     ef8:	07ec0000 	strbeq	r0, [ip, r0]!
     efc:	00030000 	andeq	r0, r3, r0
     f00:	a09f017c 	addsge	r0, pc, ip, ror r1	; <UNPREDICTABLE>
     f04:	a8000008 	stmdage	r0, {r3}
     f08:	04000008 	streq	r0, [r0], #-8
     f0c:	7dd09100 	ldfvcp	f1, [r0]
     f10:	0000009f 	muleq	r0, pc, r0	; <UNPREDICTABLE>
     f14:	00000000 	andeq	r0, r0, r0
     f18:	04000400 	streq	r0, [r0], #-1024	; 0xfffffc00
     f1c:	0007b000 	andeq	fp, r7, r0
     f20:	0007b400 	andeq	fp, r7, r0, lsl #8
     f24:	70000300 	andvc	r0, r0, r0, lsl #6
     f28:	08a09f01 	stmiaeq	r0!, {r0, r8, r9, sl, fp, ip, pc}
     f2c:	08a80000 	stmiaeq	r8!, {}	; <UNPREDICTABLE>
     f30:	00030000 	andeq	r0, r3, r0
     f34:	009f0170 	addseq	r0, pc, r0, ror r1	; <UNPREDICTABLE>
     f38:	00000000 	andeq	r0, r0, r0
     f3c:	01000000 	mrseq	r0, (UNDEF: 0)
     f40:	bc000000 	stclt	0, cr0, [r0], {-0}
     f44:	d0000007 	andle	r0, r0, r7
     f48:	04000007 	streq	r0, [r0], #-7
     f4c:	7dd09100 	ldfvcp	f1, [r0]
     f50:	0007d09f 	muleq	r7, pc, r0	; <UNPREDICTABLE>
     f54:	0007ec00 	andeq	lr, r7, r0, lsl #24
     f58:	55000100 	strpl	r0, [r0, #-256]	; 0xffffff00
	...
     f68:	00000328 	andeq	r0, r0, r8, lsr #6
     f6c:	00000364 	andeq	r0, r0, r4, ror #6
     f70:	64500001 	ldrbvs	r0, [r0], #-1
     f74:	88000003 	stmdahi	r0, {r0, r1}
     f78:	04000003 	streq	r0, [r0], #-3
     f7c:	5001f300 	andpl	pc, r1, r0, lsl #6
     f80:	0000009f 	muleq	r0, pc, r0	; <UNPREDICTABLE>
	...
     f8c:	00032800 	andeq	r2, r3, r0, lsl #16
     f90:	00035c00 	andeq	r5, r3, r0, lsl #24
     f94:	51000100 	mrspl	r0, (UNDEF: 16)
     f98:	0000035c 	andeq	r0, r0, ip, asr r3
     f9c:	00000388 	andeq	r0, r0, r8, lsl #7
     fa0:	01f30004 	mvnseq	r0, r4
     fa4:	00009f51 	andeq	r9, r0, r1, asr pc
	...
     fc8:	00140000 	andseq	r0, r4, r0
     fcc:	00010000 	andeq	r0, r1, r0
     fd0:	00001450 	andeq	r1, r0, r0, asr r4
     fd4:	00002000 	andeq	r2, r0, r0
     fd8:	5c000100 	stfpls	f0, [r0], {-0}
     fdc:	00000020 	andeq	r0, r0, r0, lsr #32
     fe0:	00000068 	andeq	r0, r0, r8, rrx
     fe4:	02710003 	rsbseq	r0, r1, #3, 0
     fe8:	0000689f 	muleq	r0, pc, r8	; <UNPREDICTABLE>
     fec:	00006c00 	andeq	r6, r0, r0, lsl #24
     ff0:	73000300 	movwvc	r0, #768	; 0x300
     ff4:	006c9f02 	rsbeq	r9, ip, r2, lsl #30
     ff8:	01940000 	orrseq	r0, r4, r0
     ffc:	00040000 	andeq	r0, r4, r0
    1000:	9f5001f3 	svcls	0x005001f3
    1004:	00000194 	muleq	r0, r4, r1
    1008:	00000198 	muleq	r0, r8, r1
    100c:	02730003 	rsbseq	r0, r3, #3, 0
    1010:	0001989f 	muleq	r1, pc, r8	; <UNPREDICTABLE>
    1014:	0001c000 	andeq	ip, r1, r0
    1018:	f3000400 	vshl.u8	d0, d0, d0
    101c:	c09f5001 	addsgt	r5, pc, r1
    1020:	c8000001 	stmdagt	r0, {r0}
    1024:	01000001 	tsteq	r0, r1
    1028:	01c85c00 	biceq	r5, r8, r0, lsl #24
    102c:	02140000 	andseq	r0, r4, #0, 0
    1030:	00030000 	andeq	r0, r3, r0
    1034:	149f0273 	ldrne	r0, [pc], #627	; 103c <__code_start__-0x6fc4>
    1038:	ec000002 	stc	0, cr0, [r0], {2}
    103c:	04000002 	streq	r0, [r0], #-2
    1040:	5001f300 	andpl	pc, r1, r0, lsl #6
    1044:	0002ec9f 	muleq	r2, pc, ip	; <UNPREDICTABLE>
    1048:	0002f400 	andeq	pc, r2, r0, lsl #8
    104c:	73000300 	movwvc	r0, #768	; 0x300
    1050:	02f49f02 	rscseq	r9, r4, #2, 30
    1054:	03280000 			; <UNDEFINED> instruction: 0x03280000
    1058:	00040000 	andeq	r0, r4, r0
    105c:	9f5001f3 	svcls	0x005001f3
	...
    1074:	0000001c 	andeq	r0, r0, ip, lsl r0
    1078:	1c510001 	mrrcne	0, 0, r0, r1, cr1
    107c:	e0000000 	and	r0, r0, r0
    1080:	01000002 	tsteq	r0, r2
    1084:	02e05000 	rsceq	r5, r0, #0, 0
    1088:	02ec0000 	rsceq	r0, ip, #0, 0
    108c:	00040000 	andeq	r0, r4, r0
    1090:	9f5101f3 	svcls	0x005101f3
    1094:	000002ec 	andeq	r0, r0, ip, ror #5
    1098:	00000328 	andeq	r0, r0, r8, lsr #6
    109c:	00500001 	subseq	r0, r0, r1
	...
    10ac:	00000001 	andeq	r0, r0, r1
    10b0:	00000000 	andeq	r0, r0, r0
    10b4:	00000202 	andeq	r0, r0, r2, lsl #4
	...
    10c8:	70000000 	andvc	r0, r0, r0
    10cc:	01000000 	mrseq	r0, (UNDEF: 0)
    10d0:	00705200 	rsbseq	r5, r0, r0, lsl #4
    10d4:	00780000 	rsbseq	r0, r8, r0
    10d8:	00010000 	andeq	r0, r1, r0
    10dc:	0000785c 	andeq	r7, r0, ip, asr r8
    10e0:	0000a400 	andeq	sl, r0, r0, lsl #8
    10e4:	f3000400 	vshl.u8	d0, d0, d0
    10e8:	949f5201 	ldrls	r5, [pc], #513	; 10f0 <__code_start__-0x6f10>
    10ec:	9c000001 	stcls	0, cr0, [r0], {1}
    10f0:	01000001 	tsteq	r0, r1
    10f4:	019c5200 	orrseq	r5, ip, r0, lsl #4
    10f8:	01a40000 			; <UNDEFINED> instruction: 0x01a40000
    10fc:	00010000 	andeq	r0, r1, r0
    1100:	0001a45c 	andeq	sl, r1, ip, asr r4
    1104:	0001c000 	andeq	ip, r1, r0
    1108:	f3000400 	vshl.u8	d0, d0, d0
    110c:	c09f5201 	addsgt	r5, pc, r1, lsl #4
    1110:	20000001 	andcs	r0, r0, r1
    1114:	01000002 	tsteq	r0, r2
    1118:	02205200 	eoreq	r5, r0, #0, 4
    111c:	02280000 	eoreq	r0, r8, #0, 0
    1120:	00040000 	andeq	r0, r4, r0
    1124:	9f1f0072 	svcls	0x001f0072
    1128:	00000228 	andeq	r0, r0, r8, lsr #4
    112c:	00000274 	andeq	r0, r0, r4, ror r2
    1130:	01f30005 	mvnseq	r0, r5
    1134:	749f1f52 	ldrvc	r1, [pc], #3922	; 113c <__code_start__-0x6ec4>
    1138:	88000002 	stmdahi	r0, {r1}
    113c:	01000002 	tsteq	r0, r2
    1140:	02885200 	addeq	r5, r8, #0, 4
    1144:	02a00000 	adceq	r0, r0, #0, 0
    1148:	00010000 	andeq	r0, r1, r0
    114c:	0002cc5c 	andeq	ip, r2, ip, asr ip
    1150:	0002d000 	andeq	sp, r2, r0
    1154:	52000100 	andpl	r0, r0, #0
    1158:	000002d0 	ldrdeq	r0, [r0], -r0	; <UNPREDICTABLE>
    115c:	000002e7 	andeq	r0, r0, r7, ror #5
    1160:	e75c0001 	ldrb	r0, [ip, -r1]
    1164:	ec000002 	stc	0, cr0, [r0], {2}
    1168:	04000002 	streq	r0, [r0], #-2
    116c:	5201f300 	andpl	pc, r1, #0, 6
    1170:	0002ec9f 	muleq	r2, pc, ip	; <UNPREDICTABLE>
    1174:	00030000 	andeq	r0, r3, r0
    1178:	52000100 	andpl	r0, r0, #0
    117c:	00000300 	andeq	r0, r0, r0, lsl #6
    1180:	00000328 	andeq	r0, r0, r8, lsr #6
    1184:	005c0001 	subseq	r0, ip, r1
	...
    11a0:	00006800 	andeq	r6, r0, r0, lsl #16
    11a4:	53000100 	movwpl	r0, #256	; 0x100
    11a8:	00000068 	andeq	r0, r0, r8, rrx
    11ac:	0000006c 	andeq	r0, r0, ip, rrx
    11b0:	7f080003 	svcvc	0x00080003
    11b4:	0001949f 	muleq	r1, pc, r4	; <UNPREDICTABLE>
    11b8:	00019800 	andeq	r9, r1, r0, lsl #16
    11bc:	08000300 	stmdaeq	r0, {r8, r9}
    11c0:	01c09f7f 	biceq	r9, r0, pc, ror pc
    11c4:	02140000 	andseq	r0, r4, #0, 0
    11c8:	00030000 	andeq	r0, r3, r0
    11cc:	749f7f08 	ldrvc	r7, [pc], #3848	; 11d4 <__code_start__-0x6e2c>
    11d0:	90000002 	andls	r0, r0, r2
    11d4:	01000002 	tsteq	r0, r2
    11d8:	02905300 	addseq	r5, r0, #0, 6
    11dc:	02a00000 	adceq	r0, r0, #0, 0
    11e0:	00040000 	andeq	r0, r4, r0
    11e4:	9f5301f3 	svcls	0x005301f3
    11e8:	000002ec 	andeq	r0, r0, ip, ror #5
    11ec:	00000328 	andeq	r0, r0, r8, lsr #6
    11f0:	7f080003 	svcvc	0x00080003
    11f4:	0000009f 	muleq	r0, pc, r0	; <UNPREDICTABLE>
    11f8:	00000000 	andeq	r0, r0, r0
    11fc:	00000100 	andeq	r0, r0, r0, lsl #2
    1200:	02020000 	andeq	r0, r2, #0, 0
    1204:	01010000 	mrseq	r0, (UNDEF: 1)
	...
    1210:	00000202 	andeq	r0, r0, r2, lsl #4
    1214:	00000100 	andeq	r0, r0, r0, lsl #2
    1218:	00000000 	andeq	r0, r0, r0
    121c:	01010000 	mrseq	r0, (UNDEF: 1)
    1220:	00000000 	andeq	r0, r0, r0
    1224:	00000202 	andeq	r0, r0, r2, lsl #4
    1228:	00000000 	andeq	r0, r0, r0
    122c:	00000101 	andeq	r0, r0, r1, lsl #2
    1230:	00001800 	andeq	r1, r0, r0, lsl #16
    1234:	00007000 	andeq	r7, r0, r0
    1238:	91000400 	tstls	r0, r0, lsl #8
    123c:	709f7fa0 	addsvc	r7, pc, r0, lsr #31
    1240:	78000000 	stmdavc	r0, {}	; <UNPREDICTABLE>
    1244:	01000000 	mrseq	r0, (UNDEF: 0)
    1248:	00785200 	rsbseq	r5, r8, r0, lsl #4
    124c:	00780000 	rsbseq	r0, r8, r0
    1250:	00010000 	andeq	r0, r1, r0
    1254:	00007854 	andeq	r7, r0, r4, asr r8
    1258:	00008800 	andeq	r8, r0, r0, lsl #16
    125c:	74000300 	strvc	r0, [r0], #-768	; 0xfffffd00
    1260:	00889f01 	addeq	r9, r8, r1, lsl #30
    1264:	00900000 	addseq	r0, r0, r0
    1268:	00010000 	andeq	r0, r1, r0
    126c:	00009054 	andeq	r9, r0, r4, asr r0
    1270:	0000a000 	andeq	sl, r0, r0
    1274:	74000300 	strvc	r0, [r0], #-768	; 0xfffffd00
    1278:	00a09f02 	adceq	r9, r0, r2, lsl #30
    127c:	00b00000 	adcseq	r0, r0, r0
    1280:	00010000 	andeq	r0, r1, r0
    1284:	0001945e 	andeq	r9, r1, lr, asr r4
    1288:	00019c00 	andeq	r9, r1, r0, lsl #24
    128c:	91000400 	tstls	r0, r0, lsl #8
    1290:	9c9f7fa0 	ldcls	15, cr7, [pc], {160}	; 0xa0
    1294:	a4000001 	strge	r0, [r0], #-1
    1298:	01000001 	tsteq	r0, r1
    129c:	01a45200 			; <UNDEFINED> instruction: 0x01a45200
    12a0:	01a40000 			; <UNDEFINED> instruction: 0x01a40000
    12a4:	00010000 	andeq	r0, r1, r0
    12a8:	0001a45e 	andeq	sl, r1, lr, asr r4
    12ac:	0001b400 	andeq	fp, r1, r0, lsl #8
    12b0:	7e000300 	cdpvc	3, 0, cr0, cr0, cr0, {0}
    12b4:	01b49f01 			; <UNDEFINED> instruction: 0x01b49f01
    12b8:	01c00000 	biceq	r0, r0, r0
    12bc:	00010000 	andeq	r0, r1, r0
    12c0:	0001c05e 	andeq	ip, r1, lr, asr r0
    12c4:	00022800 	andeq	r2, r2, r0, lsl #16
    12c8:	91000400 	tstls	r0, r0, lsl #8
    12cc:	289f7fa0 	ldmcs	pc, {r5, r7, r8, r9, sl, fp, ip, sp, lr}	; <UNPREDICTABLE>
    12d0:	34000002 	strcc	r0, [r0], #-2
    12d4:	01000002 	tsteq	r0, r2
    12d8:	02345200 	eorseq	r5, r4, #0, 4
    12dc:	02580000 	subseq	r0, r8, #0, 0
    12e0:	00010000 	andeq	r0, r1, r0
    12e4:	0002585e 	andeq	r5, r2, lr, asr r8
    12e8:	00025c00 	andeq	r5, r2, r0, lsl #24
    12ec:	7e000300 	cdpvc	3, 0, cr0, cr0, cr0, {0}
    12f0:	025c9f01 	subseq	r9, ip, #1, 30
    12f4:	02640000 	rsbeq	r0, r4, #0, 0
    12f8:	00010000 	andeq	r0, r1, r0
    12fc:	0002645e 	andeq	r6, r2, lr, asr r4
    1300:	00027000 	andeq	r7, r2, r0
    1304:	71000300 	mrsvc	r0, LR_irq
    1308:	02709f02 	rsbseq	r9, r0, #2, 30
    130c:	02740000 	rsbseq	r0, r4, #0, 0
    1310:	00010000 	andeq	r0, r1, r0
    1314:	0002745e 	andeq	r7, r2, lr, asr r4
    1318:	00027400 	andeq	r7, r2, r0, lsl #8
    131c:	91000400 	tstls	r0, r0, lsl #8
    1320:	749f7fa0 	ldrvc	r7, [pc], #4000	; 1328 <__code_start__-0x6cd8>
    1324:	a0000002 	andge	r0, r0, r2
    1328:	04000002 	streq	r0, [r0], #-2
    132c:	7fa19100 	svcvc	0x00a19100
    1330:	0002c09f 	muleq	r2, pc, r0	; <UNPREDICTABLE>
    1334:	0002c800 	andeq	ip, r2, r0, lsl #16
    1338:	5e000100 	adfpls	f0, f0, f0
    133c:	000002c8 	andeq	r0, r0, r8, asr #5
    1340:	000002cc 	andeq	r0, r0, ip, asr #5
    1344:	cc560001 	mrrcgt	0, 0, r0, r6, cr1
    1348:	ec000002 	stc	0, cr0, [r0], {2}
    134c:	04000002 	streq	r0, [r0], #-2
    1350:	7fa09100 	svcvc	0x00a09100
    1354:	0002ec9f 	muleq	r2, pc, ip	; <UNPREDICTABLE>
    1358:	0002fc00 	andeq	pc, r2, r0, lsl #24
    135c:	91000400 	tstls	r0, r0, lsl #8
    1360:	fc9f7fa1 	ldc2	15, cr7, [pc], {161}	; 0xa1
    1364:	28000002 	stmdacs	r0, {r1}
    1368:	01000003 	tsteq	r0, r3
    136c:	00005e00 	andeq	r5, r0, r0, lsl #28
	...
    1384:	00010100 	andeq	r0, r1, r0, lsl #2
	...
    1398:	00000020 	andeq	r0, r0, r0, lsr #32
    139c:	00000070 	andeq	r0, r0, r0, ror r0
    13a0:	70520001 	subsvc	r0, r2, r1
    13a4:	94000000 	strls	r0, [r0], #-0
    13a8:	01000000 	mrseq	r0, (UNDEF: 0)
    13ac:	01945c00 	orrseq	r5, r4, r0, lsl #24
    13b0:	019c0000 	orrseq	r0, ip, r0
    13b4:	00010000 	andeq	r0, r1, r0
    13b8:	00019c52 	andeq	r9, r1, r2, asr ip
    13bc:	0001c000 	andeq	ip, r1, r0
    13c0:	5c000100 	stfpls	f0, [r0], {-0}
    13c4:	000001c8 	andeq	r0, r0, r8, asr #3
    13c8:	00000210 	andeq	r0, r0, r0, lsl r2
    13cc:	105c0001 	subsne	r0, ip, r1
    13d0:	24000002 	strcs	r0, [r0], #-2
    13d4:	01000002 	tsteq	r0, r2
    13d8:	02245200 	eoreq	r5, r4, #0, 4
    13dc:	02480000 	subeq	r0, r8, #0, 0
    13e0:	00010000 	andeq	r0, r1, r0
    13e4:	0002485c 	andeq	r4, r2, ip, asr r8
    13e8:	00025c00 	andeq	r5, r2, r0, lsl #24
    13ec:	55000100 	strpl	r0, [r0, #-256]	; 0xffffff00
    13f0:	0000025c 	andeq	r0, r0, ip, asr r2
    13f4:	00000268 	andeq	r0, r0, r8, ror #4
    13f8:	685c0001 	ldmdavs	ip, {r0}^
    13fc:	74000002 	strvc	r0, [r0], #-2
    1400:	19000002 	stmdbne	r0, {r1}
    1404:	f7007500 			; <UNDEFINED> instruction: 0xf7007500
    1408:	7625f72c 	strtvc	pc, [r5], -ip, lsr #14
    140c:	f72cf700 			; <UNDEFINED> instruction: 0xf72cf700
    1410:	20081e25 	andcs	r1, r8, r5, lsr #28
    1414:	f72525f7 			; <UNDEFINED> instruction: 0xf72525f7
    1418:	3300f72c 	movwcc	pc, #1836	; 0x72c	; <UNPREDICTABLE>
    141c:	02749f25 	rsbseq	r9, r4, #148	; 0x94
    1420:	02880000 	addeq	r0, r8, #0, 0
    1424:	00010000 	andeq	r0, r1, r0
    1428:	00028852 	andeq	r8, r2, r2, asr r8
    142c:	0002a000 	andeq	sl, r2, r0
    1430:	5c000100 	stfpls	f0, [r0], {-0}
    1434:	000002cc 	andeq	r0, r0, ip, asr #5
    1438:	000002d0 	ldrdeq	r0, [r0], -r0	; <UNPREDICTABLE>
    143c:	d0520001 	subsle	r0, r2, r1
    1440:	e7000002 	str	r0, [r0, -r2]
    1444:	01000002 	tsteq	r0, r2
    1448:	02e75c00 	rsceq	r5, r7, #0, 24
    144c:	02ec0000 	rsceq	r0, ip, #0, 0
    1450:	00040000 	andeq	r0, r4, r0
    1454:	9f5201f3 	svcls	0x005201f3
    1458:	000002ec 	andeq	r0, r0, ip, ror #5
    145c:	00000300 	andeq	r0, r0, r0, lsl #6
    1460:	00520001 	subseq	r0, r2, r1
    1464:	28000003 	stmdacs	r0, {r0, r1}
    1468:	01000003 	tsteq	r0, r3
    146c:	00005c00 	andeq	r5, r0, r0, lsl #24
    1470:	00000000 	andeq	r0, r0, r0
    1474:	00040000 	andeq	r0, r4, r0
    1478:	01000004 	tsteq	r0, r4
    147c:	00040000 	andeq	r0, r4, r0
    1480:	000000a4 	andeq	r0, r0, r4, lsr #1
    1484:	000000b0 	strheq	r0, [r0], -r0	; <UNPREDICTABLE>
    1488:	7c530001 	mrrcvc	0, 0, r0, r3, cr1
    148c:	90000002 	andls	r0, r0, r2
    1490:	01000002 	tsteq	r0, r2
    1494:	02905300 	addseq	r5, r0, #0, 6
    1498:	029c0000 	addseq	r0, ip, #0, 0
    149c:	00040000 	andeq	r0, r4, r0
    14a0:	9f5301f3 	svcls	0x005301f3
    14a4:	000002c0 	andeq	r0, r0, r0, asr #5
    14a8:	000002cc 	andeq	r0, r0, ip, asr #5
    14ac:	f0530001 			; <UNDEFINED> instruction: 0xf0530001
    14b0:	28000002 	stmdacs	r0, {r1}
    14b4:	03000003 	movweq	r0, #3
    14b8:	9f7f0800 	svcls	0x007f0800
	...
    14c4:	01000004 	tsteq	r0, r4
    14c8:	01000004 	tsteq	r0, r4
    14cc:	00000000 	andeq	r0, r0, r0
    14d0:	00000004 	andeq	r0, r0, r4
    14d4:	000000a4 	andeq	r0, r0, r4, lsr #1
    14d8:	000000b0 	strheq	r0, [r0], -r0	; <UNPREDICTABLE>
    14dc:	b0520001 	subslt	r0, r2, r1
    14e0:	5c000000 	stcpl	0, cr0, [r0], {-0}
    14e4:	04000001 	streq	r0, [r0], #-1
    14e8:	7fa09100 	svcvc	0x00a09100
    14ec:	00027c9f 	muleq	r2, pc, ip	; <UNPREDICTABLE>
    14f0:	00029400 	andeq	r9, r2, r0, lsl #8
    14f4:	91000400 	tstls	r0, r0, lsl #8
    14f8:	949f7fa0 	ldrls	r7, [pc], #4000	; 1500 <__code_start__-0x6b00>
    14fc:	9c000002 	stcls	0, cr0, [r0], {2}
    1500:	01000002 	tsteq	r0, r2
    1504:	02b45e00 	adcseq	r5, r4, #0, 28
    1508:	02c00000 	sbceq	r0, r0, #0, 0
    150c:	00040000 	andeq	r0, r4, r0
    1510:	9f7fa091 	svcls	0x007fa091
    1514:	000002c0 	andeq	r0, r0, r0, asr #5
    1518:	000002cc 	andeq	r0, r0, ip, asr #5
    151c:	f0520001 			; <UNDEFINED> instruction: 0xf0520001
    1520:	00000002 	andeq	r0, r0, r2
    1524:	04000003 	streq	r0, [r0], #-3
    1528:	7fa09100 	svcvc	0x00a09100
    152c:	0003009f 	muleq	r3, pc, r0	; <UNPREDICTABLE>
    1530:	00032800 	andeq	r2, r3, r0, lsl #16
    1534:	52000100 	andpl	r0, r0, #0
	...
    1540:	01000004 	tsteq	r0, r4
    1544:	03010101 	movweq	r0, #4353	; 0x1101
    1548:	01040203 	tsteq	r4, r3, lsl #4
    154c:	00000000 	andeq	r0, r0, r0
    1550:	00000004 	andeq	r0, r0, r4
    1554:	000000a4 	andeq	r0, r0, r4, lsr #1
    1558:	000000b0 	strheq	r0, [r0], -r0	; <UNPREDICTABLE>
    155c:	0c5e0001 	mrrceq	0, 0, r0, lr, cr1
    1560:	0c000001 	stceq	0, cr0, [r0], {1}
    1564:	01000001 	tsteq	r0, r1
    1568:	010c5500 	tsteq	ip, r0, lsl #10
    156c:	01200000 			; <UNDEFINED> instruction: 0x01200000
    1570:	00030000 	andeq	r0, r3, r0
    1574:	209f0175 	addscs	r0, pc, r5, ror r1	; <UNPREDICTABLE>
    1578:	2c000001 	stccs	0, cr0, [r0], {1}
    157c:	03000001 	movweq	r0, #1
    1580:	9f027500 	svcls	0x00027500
    1584:	0000012c 	andeq	r0, r0, ip, lsr #2
    1588:	00000130 	andeq	r0, r0, r0, lsr r1
    158c:	03750003 	cmneq	r5, #3, 0
    1590:	00027c9f 	muleq	r2, pc, ip	; <UNPREDICTABLE>
    1594:	00029c00 	andeq	r9, r2, r0, lsl #24
    1598:	91000400 	tstls	r0, r0, lsl #8
    159c:	c09f7fa1 	addsgt	r7, pc, r1, lsr #31
    15a0:	c8000002 	stmdagt	r0, {r1}
    15a4:	01000002 	tsteq	r0, r2
    15a8:	02c85e00 	sbceq	r5, r8, #0, 28
    15ac:	02cc0000 	sbceq	r0, ip, #0, 0
    15b0:	00010000 	andeq	r0, r1, r0
    15b4:	0002f056 	andeq	pc, r2, r6, asr r0	; <UNPREDICTABLE>
    15b8:	0002fc00 	andeq	pc, r2, r0, lsl #24
    15bc:	91000400 	tstls	r0, r0, lsl #8
    15c0:	fc9f7fa1 	ldc2	15, cr7, [pc], {161}	; 0xa1
    15c4:	28000002 	stmdacs	r0, {r1}
    15c8:	01000003 	tsteq	r0, r3
    15cc:	00005e00 	andeq	r5, r0, r0, lsl #28
	...
    15d8:	01010100 	mrseq	r0, (UNDEF: 17)
    15dc:	02010101 	andeq	r0, r1, #1073741824	; 0x40000000
    15e0:	00000106 	andeq	r0, r0, r6, lsl #2
    15e4:	00a80006 	adceq	r0, r8, r6
    15e8:	00b00000 	adcseq	r0, r0, r0
    15ec:	00010000 	andeq	r0, r1, r0
    15f0:	00010c51 	andeq	r0, r1, r1, asr ip
    15f4:	00011c00 	andeq	r1, r1, r0, lsl #24
    15f8:	5c000100 	stfpls	f0, [r0], {-0}
    15fc:	0000011c 	andeq	r0, r0, ip, lsl r1
    1600:	0000012c 	andeq	r0, r0, ip, lsr #2
    1604:	2c580001 	mrrccs	0, 0, r0, r8, cr1
    1608:	30000001 	andcc	r0, r0, r1
    160c:	01000001 	tsteq	r0, r1
    1610:	01305c00 	teqeq	r0, r0, lsl #24
    1614:	01300000 	teqeq	r0, r0
    1618:	00030000 	andeq	r0, r3, r0
    161c:	7c9f017c 	ldfvcs	f0, [pc], {124}	; 0x7c
    1620:	9c000002 	stcls	0, cr0, [r0], {2}
    1624:	02000002 	andeq	r0, r0, #2, 0
    1628:	c09f3100 	addsgt	r3, pc, r0, lsl #2
    162c:	cc000002 	stcgt	0, cr0, [r0], {2}
    1630:	01000002 	tsteq	r0, r2
    1634:	02f05100 	rscseq	r5, r0, #0
    1638:	03280000 			; <UNDEFINED> instruction: 0x03280000
    163c:	00020000 	andeq	r0, r2, r0
    1640:	00009f31 	andeq	r9, r0, r1, lsr pc
    1644:	00000000 	andeq	r0, r0, r0
    1648:	06010000 	streq	r0, [r1], -r0
    164c:	00010106 	andeq	r0, r1, r6, lsl #2
    1650:	015c0100 	cmpeq	ip, r0, lsl #2
    1654:	015c0000 	cmpeq	ip, r0
    1658:	00040000 	andeq	r0, r4, r0
    165c:	9f7fa091 	svcls	0x007fa091
    1660:	0000015c 	andeq	r0, r0, ip, asr r1
    1664:	0000018c 	andeq	r0, r0, ip, lsl #3
    1668:	9c520001 	mrrcls	0, 0, r0, r2, cr1
    166c:	a0000002 	andge	r0, r0, r2
    1670:	01000002 	tsteq	r0, r2
    1674:	02a05e00 	adceq	r5, r0, #0, 28
    1678:	02ac0000 	adceq	r0, ip, #0, 0
    167c:	00010000 	andeq	r0, r1, r0
    1680:	00000052 	andeq	r0, r0, r2, asr r0
	...
    168c:	01000101 	tsteq	r0, r1, lsl #2
    1690:	00016c07 	andeq	r6, r1, r7, lsl #24
    1694:	00017000 	andeq	r7, r1, r0
    1698:	73000300 	movwvc	r0, #768	; 0x300
    169c:	01709f7f 	cmneq	r0, pc, ror pc
    16a0:	01780000 	cmneq	r8, r0
    16a4:	00010000 	andeq	r0, r1, r0
    16a8:	00017853 	andeq	r7, r1, r3, asr r8
    16ac:	00018400 	andeq	r8, r1, r0, lsl #8
    16b0:	73000300 	movwvc	r0, #768	; 0x300
    16b4:	029c9f7f 	addseq	r9, ip, #508	; 0x1fc
    16b8:	029c0000 	addseq	r0, ip, #0, 0
    16bc:	00040000 	andeq	r0, r4, r0
    16c0:	9f7fa191 	svcls	0x007fa191
	...
    16cc:	01010101 	tsteq	r1, r1, lsl #2
    16d0:	0000015c 	andeq	r0, r0, ip, asr r1
    16d4:	0000018c 	andeq	r0, r0, ip, lsl #3
    16d8:	80080003 	andhi	r0, r8, r3
    16dc:	00029c9f 	muleq	r2, pc, ip	; <UNPREDICTABLE>
    16e0:	0002ac00 	andeq	sl, r2, r0, lsl #24
    16e4:	08000300 	stmdaeq	r0, {r8, r9}
    16e8:	00009f80 	andeq	r9, r0, r0, lsl #31
    16ec:	00000000 	andeq	r0, r0, r0
    16f0:	00010000 	andeq	r0, r1, r0
    16f4:	00010100 	andeq	r0, r1, r0, lsl #2
    16f8:	01010100 	mrseq	r0, (UNDEF: 17)
    16fc:	01010101 	tsteq	r1, r1, lsl #2
    1700:	0000015c 	andeq	r0, r0, ip, asr r1
    1704:	0000016c 	andeq	r0, r0, ip, ror #2
    1708:	6c500001 	mrrcvs	0, 0, r0, r0, cr1	; <UNPREDICTABLE>
    170c:	6c000001 	stcvs	0, cr0, [r0], {1}
    1710:	03000001 	movweq	r0, #1
    1714:	9f017c00 	svcls	0x00017c00
    1718:	0000016c 	andeq	r0, r0, ip, ror #2
    171c:	00000178 	andeq	r0, r0, r8, ror r1
    1720:	027c0003 	rsbseq	r0, ip, #3, 0
    1724:	0001789f 	muleq	r1, pc, r8	; <UNPREDICTABLE>
    1728:	00018800 	andeq	r8, r1, r0, lsl #16
    172c:	7c000300 	stcvc	3, cr0, [r0], {-0}
    1730:	01889f01 	orreq	r9, r8, r1, lsl #30
    1734:	018c0000 	orreq	r0, ip, r0
    1738:	00030000 	andeq	r0, r3, r0
    173c:	9c9f017e 	ldflss	f0, [pc], {126}	; 0x7e
    1740:	a4000002 	strge	r0, [r0], #-2
    1744:	01000002 	tsteq	r0, r2
    1748:	02a45000 	adceq	r5, r4, #0, 0
    174c:	02ac0000 	adceq	r0, ip, #0, 0
    1750:	00030000 	andeq	r0, r3, r0
    1754:	009f017e 	addseq	r0, pc, lr, ror r1	; <UNPREDICTABLE>
    1758:	00000000 	andeq	r0, r0, r0
    175c:	04000000 	streq	r0, [r0], #-0
    1760:	00000400 	andeq	r0, r0, r0, lsl #8
    1764:	00015c01 	andeq	r5, r1, r1, lsl #24
    1768:	00016000 	andeq	r6, r1, r0
    176c:	71000300 	mrsvc	r0, LR_irq
    1770:	029c9f01 	addseq	r9, ip, #1, 30
    1774:	02a00000 	adceq	r0, r0, #0, 0
    1778:	00020000 	andeq	r0, r2, r0
    177c:	02a09f32 	adceq	r9, r0, #200	; 0xc8
    1780:	02ac0000 	adceq	r0, ip, #0, 0
    1784:	00030000 	andeq	r0, r3, r0
    1788:	009f0171 	addseq	r0, pc, r1, ror r1	; <UNPREDICTABLE>
    178c:	00000000 	andeq	r0, r0, r0
    1790:	07000000 	streq	r0, [r0, -r0]
    1794:	5c000600 	stcpl	6, cr0, [r0], {-0}
    1798:	94000001 	strls	r0, [r0], #-1
    179c:	01000001 	tsteq	r0, r1
    17a0:	029c5000 	addseq	r5, ip, #0, 0
    17a4:	02b40000 	adcseq	r0, r4, #0, 0
    17a8:	00010000 	andeq	r0, r1, r0
    17ac:	00000050 	andeq	r0, r0, r0, asr r0
    17b0:	00000000 	andeq	r0, r0, r0
    17b4:	01010100 	mrseq	r0, (UNDEF: 17)
    17b8:	00021400 	andeq	r1, r2, r0, lsl #8
    17bc:	00022000 	andeq	r2, r2, r0
    17c0:	30000200 	andcc	r0, r0, r0, lsl #4
    17c4:	0002209f 	muleq	r2, pc, r0	; <UNPREDICTABLE>
    17c8:	00023400 	andeq	r3, r2, r0, lsl #8
    17cc:	31000200 	mrscc	r0, R8_usr
    17d0:	0000009f 	muleq	r0, pc, r0	; <UNPREDICTABLE>
    17d4:	00000000 	andeq	r0, r0, r0
    17d8:	01010000 	mrseq	r0, (UNDEF: 1)
    17dc:	01010000 	mrseq	r0, (UNDEF: 1)
    17e0:	01010000 	mrseq	r0, (UNDEF: 1)
    17e4:	01010000 	mrseq	r0, (UNDEF: 1)
    17e8:	01010000 	mrseq	r0, (UNDEF: 1)
    17ec:	02020000 	andeq	r0, r2, #0, 0
    17f0:	00008001 	andeq	r8, r0, r1
    17f4:	00008000 	andeq	r8, r0, r0
    17f8:	53000100 	movwpl	r0, #256	; 0x100
    17fc:	00000080 	andeq	r0, r0, r0, lsl #1
    1800:	0000008c 	andeq	r0, r0, ip, lsl #1
    1804:	04730003 	ldrbteq	r0, [r3], #-3
    1808:	00008c9f 	muleq	r0, pc, ip	; <UNPREDICTABLE>
    180c:	00009400 	andeq	r9, r0, r0, lsl #8
    1810:	51000100 	mrspl	r0, (UNDEF: 16)
    1814:	00000094 	muleq	r0, r4, r0
    1818:	00000098 	muleq	r0, r8, r0
    181c:	08730003 	ldmdaeq	r3!, {r0, r1}^
    1820:	0000989f 	muleq	r0, pc, r8	; <UNPREDICTABLE>
    1824:	0000a400 	andeq	sl, r0, r0, lsl #8
    1828:	51000100 	mrspl	r0, (UNDEF: 16)
    182c:	000000a4 	andeq	r0, r0, r4, lsr #1
    1830:	000000a8 	andeq	r0, r0, r8, lsr #1
    1834:	0c730003 	ldcleq	0, cr0, [r3], #-12
    1838:	0000a89f 	muleq	r0, pc, r8	; <UNPREDICTABLE>
    183c:	0000b400 	andeq	fp, r0, r0, lsl #8
    1840:	51000100 	mrspl	r0, (UNDEF: 16)
    1844:	000000b4 	strheq	r0, [r0], -r4
    1848:	000000b8 	strheq	r0, [r0], -r8
    184c:	10730003 	rsbsne	r0, r3, r3
    1850:	0000b89f 	muleq	r0, pc, r8	; <UNPREDICTABLE>
    1854:	0000c400 	andeq	ip, r0, r0, lsl #8
    1858:	51000100 	mrspl	r0, (UNDEF: 16)
    185c:	000000c4 	andeq	r0, r0, r4, asr #1
    1860:	000000c8 	andeq	r0, r0, r8, asr #1
    1864:	14730003 	ldrbtne	r0, [r3], #-3
    1868:	0000c89f 	muleq	r0, pc, r8	; <UNPREDICTABLE>
    186c:	0000d000 	andeq	sp, r0, r0
    1870:	51000100 	mrspl	r0, (UNDEF: 16)
    1874:	000000d0 	ldrdeq	r0, [r0], -r0	; <UNPREDICTABLE>
    1878:	000000d4 	ldrdeq	r0, [r0], -r4
    187c:	04710003 	ldrbteq	r0, [r1], #-3
    1880:	0000009f 	muleq	r0, pc, r0	; <UNPREDICTABLE>
    1884:	00000000 	andeq	r0, r0, r0
    1888:	d8000200 	stmdale	r0, {r9}
    188c:	e8000000 	stmda	r0, {}	; <UNPREDICTABLE>
    1890:	02000000 	andeq	r0, r0, #0, 0
    1894:	009f3100 	addseq	r3, pc, r0, lsl #2
    1898:	00000000 	andeq	r0, r0, r0
    189c:	04000000 	streq	r0, [r0], #-0
    18a0:	c4010000 	strgt	r0, [r1], #-0
    18a4:	cc00008d 	stcgt	0, cr0, [r0], {141}	; 0x8d
    18a8:	0200008d 	andeq	r0, r0, #141, 0	; 0x8d
    18ac:	cc9f3000 	ldcgt	0, cr3, [pc], {0}
    18b0:	cc00008d 	stcgt	0, cr0, [r0], {141}	; 0x8d
    18b4:	0100008d 	smlabbeq	r0, sp, r0, r0
    18b8:	00005300 	andeq	r5, r0, r0, lsl #6
    18bc:	00000000 	andeq	r0, r0, r0
    18c0:	00030000 	andeq	r0, r3, r0
    18c4:	00000000 	andeq	r0, r0, r0
    18c8:	8dd80000 	ldclhi	0, cr0, [r8]
    18cc:	8ddc0000 	ldclhi	0, cr0, [ip]
    18d0:	00020000 	andeq	r0, r2, r0
    18d4:	8ddc9f30 	ldclhi	15, cr9, [ip, #192]	; 0xc0
    18d8:	8de00000 	stclhi	0, cr0, [r0]
    18dc:	00010000 	andeq	r0, r1, r0
    18e0:	008de053 	addeq	lr, sp, r3, asr r0
    18e4:	008de400 	addeq	lr, sp, r0, lsl #8
    18e8:	73000500 	movwvc	r0, #1280	; 0x500
    18ec:	9f214000 	svcls	0x00214000
    18f0:	00008de4 	andeq	r8, r0, r4, ror #27
    18f4:	00008de8 	andeq	r8, r0, r8, ror #27
    18f8:	00530001 	subseq	r0, r3, r1
    18fc:	00000000 	andeq	r0, r0, r0
    1900:	02000000 	andeq	r0, r0, #0, 0
    1904:	98000000 	stmdals	r0, {}	; <UNPREDICTABLE>
    1908:	9c00008d 	stcls	0, cr0, [r0], {141}	; 0x8d
    190c:	0200008d 	andeq	r0, r0, #141, 0	; 0x8d
    1910:	9c9f3000 	ldcls	0, cr3, [pc], {0}
    1914:	a000008d 	andge	r0, r0, sp, lsl #1
    1918:	0100008d 	smlabbeq	r0, sp, r0, r0
    191c:	00005000 	andeq	r5, r0, r0
    1920:	00000000 	andeq	r0, r0, r0
    1924:	00020000 	andeq	r0, r2, r0
    1928:	00000000 	andeq	r0, r0, r0
    192c:	8db00000 	ldchi	0, cr0, [r0]
    1930:	8db40000 	ldchi	0, cr0, [r4]
    1934:	00020000 	andeq	r0, r2, r0
    1938:	8db49f30 	ldchi	15, cr9, [r4, #192]!	; 0xc0
    193c:	8db80000 	ldchi	0, cr0, [r8]
    1940:	00010000 	andeq	r0, r1, r0
    1944:	008db853 	addeq	fp, sp, r3, asr r8
    1948:	008dbc00 	addeq	fp, sp, r0, lsl #24
    194c:	73000500 	movwvc	r0, #1280	; 0x500
    1950:	9f214000 	svcls	0x00214000
    1954:	00008dbc 			; <UNDEFINED> instruction: 0x00008dbc
    1958:	00008dc4 	andeq	r8, r0, r4, asr #27
    195c:	00530001 	subseq	r0, r3, r1
	...
    1968:	c8000000 	stmdagt	r0, {}	; <UNPREDICTABLE>
    196c:	d8000000 	stmdale	r0, {}	; <UNPREDICTABLE>
    1970:	01000000 	mrseq	r0, (UNDEF: 0)
    1974:	00d85000 	sbcseq	r5, r8, r0
    1978:	011c0000 	tsteq	ip, r0
    197c:	00040000 	andeq	r0, r4, r0
    1980:	9f5001f3 	svcls	0x005001f3
	...
    198c:	00000002 	andeq	r0, r0, r2
    1990:	000000c8 	andeq	r0, r0, r8, asr #1
    1994:	000000d8 	ldrdeq	r0, [r0], -r8
    1998:	00700007 	rsbseq	r0, r0, r7
    199c:	1e03e80a 	cdpne	8, 0, cr14, cr3, cr10, {0}
    19a0:	0000d89f 	muleq	r0, pc, r8	; <UNPREDICTABLE>
    19a4:	00011c00 	andeq	r1, r1, r0, lsl #24
    19a8:	f3000800 	vsub.i8	d0, d0, d0
    19ac:	e80a5001 	stmda	sl, {r0, ip, lr}
    19b0:	009f1e03 	addseq	r1, pc, r3, lsl #28
	...
    19bc:	0000dc00 	andeq	sp, r0, r0, lsl #24
    19c0:	00011c00 	andeq	r1, r1, r0, lsl #24
    19c4:	54000100 	strpl	r0, [r0], #-256	; 0xffffff00
	...
    19d0:	00f00001 	rscseq	r0, r0, r1
    19d4:	011c0000 	tsteq	ip, r0
    19d8:	00010000 	andeq	r0, r1, r0
    19dc:	00000056 	andeq	r0, r0, r6, asr r0
	...
    19e8:	0000ec00 	andeq	lr, r0, r0, lsl #24
    19ec:	0000ef00 	andeq	lr, r0, r0, lsl #30
    19f0:	50000100 	andpl	r0, r0, r0, lsl #2
    19f4:	000000ef 	andeq	r0, r0, pc, ror #1
    19f8:	0000011c 	andeq	r0, r0, ip, lsl r1
    19fc:	00560001 	subseq	r0, r6, r1
	...
    1a08:	00010400 	andeq	r0, r1, r0, lsl #8
    1a0c:	00010b00 	andeq	r0, r1, r0, lsl #22
    1a10:	50000100 	andpl	r0, r0, r0, lsl #2
	...
    1a20:	00000020 	andeq	r0, r0, r0, lsr #32
    1a24:	00000023 	andeq	r0, r0, r3, lsr #32
    1a28:	23500001 	cmpcs	r0, #1, 0
    1a2c:	30000000 	andcc	r0, r0, r0
    1a30:	01000000 	mrseq	r0, (UNDEF: 0)
    1a34:	00005400 	andeq	r5, r0, r0, lsl #8
	...
    1a40:	00300000 	eorseq	r0, r0, r0
    1a44:	003b0000 	eorseq	r0, fp, r0
    1a48:	00010000 	andeq	r0, r1, r0
    1a4c:	00003b50 	andeq	r3, r0, r0, asr fp
    1a50:	00007800 	andeq	r7, r0, r0, lsl #16
    1a54:	56000100 	strpl	r0, [r0], -r0, lsl #2
	...
    1a60:	004c0001 	subeq	r0, ip, r1
    1a64:	00780000 	rsbseq	r0, r8, r0
    1a68:	00010000 	andeq	r0, r1, r0
    1a6c:	00000055 	andeq	r0, r0, r5, asr r0
	...
    1a78:	00004800 	andeq	r4, r0, r0, lsl #16
    1a7c:	00004b00 	andeq	r4, r0, r0, lsl #22
    1a80:	50000100 	andpl	r0, r0, r0, lsl #2
    1a84:	0000004b 	andeq	r0, r0, fp, asr #32
    1a88:	00000078 	andeq	r0, r0, r8, ror r0
    1a8c:	00550001 	subseq	r0, r5, r1
	...
    1a98:	00006000 	andeq	r6, r0, r0
    1a9c:	00006700 	andeq	r6, r0, r0, lsl #14
    1aa0:	50000100 	andpl	r0, r0, r0, lsl #2
	...
    1ab0:	00000078 	andeq	r0, r0, r8, ror r0
    1ab4:	00000084 	andeq	r0, r0, r4, lsl #1
    1ab8:	84500001 	ldrbhi	r0, [r0], #-1
    1abc:	c8000000 	stmdagt	r0, {}	; <UNPREDICTABLE>
    1ac0:	04000000 	streq	r0, [r0], #-0
    1ac4:	5001f300 	andpl	pc, r1, r0, lsl #6
    1ac8:	0000009f 	muleq	r0, pc, r0	; <UNPREDICTABLE>
    1acc:	00000000 	andeq	r0, r0, r0
    1ad0:	88000000 	stmdahi	r0, {}	; <UNPREDICTABLE>
    1ad4:	c8000000 	stmdagt	r0, {}	; <UNPREDICTABLE>
    1ad8:	01000000 	mrseq	r0, (UNDEF: 0)
    1adc:	00005400 	andeq	r5, r0, r0, lsl #8
    1ae0:	00000000 	andeq	r0, r0, r0
    1ae4:	00010000 	andeq	r0, r1, r0
    1ae8:	0000009c 	muleq	r0, ip, r0
    1aec:	000000c8 	andeq	r0, r0, r8, asr #1
    1af0:	00560001 	subseq	r0, r6, r1
	...
    1afc:	98000000 	stmdals	r0, {}	; <UNPREDICTABLE>
    1b00:	9b000000 	blls	1b08 <__code_start__-0x64f8>
    1b04:	01000000 	mrseq	r0, (UNDEF: 0)
    1b08:	009b5000 	addseq	r5, fp, r0
    1b0c:	00c80000 	sbceq	r0, r8, r0
    1b10:	00010000 	andeq	r0, r1, r0
    1b14:	00000056 	andeq	r0, r0, r6, asr r0
    1b18:	00000000 	andeq	r0, r0, r0
    1b1c:	b0000000 	andlt	r0, r0, r0
    1b20:	b7000000 	strlt	r0, [r0, -r0]
    1b24:	01000000 	mrseq	r0, (UNDEF: 0)
    1b28:	00005000 	andeq	r5, r0, r0
	...
    1b34:	01580000 	cmpeq	r8, r0
    1b38:	01630000 	cmneq	r3, r0
    1b3c:	00010000 	andeq	r0, r1, r0
    1b40:	00016350 	andeq	r6, r1, r0, asr r3
    1b44:	00018800 	andeq	r8, r1, r0, lsl #16
    1b48:	54000100 	strpl	r0, [r0], #-256	; 0xffffff00
	...
    1b54:	01480000 	mrseq	r0, (UNDEF: 72)
    1b58:	01580000 	cmpeq	r8, r0
    1b5c:	00010000 	andeq	r0, r1, r0
    1b60:	00000054 	andeq	r0, r0, r4, asr r0
	...
    1b70:	00000f00 	andeq	r0, r0, r0, lsl #30
    1b74:	50000100 	andpl	r0, r0, r0, lsl #2
    1b78:	0000000f 	andeq	r0, r0, pc
    1b7c:	00000020 	andeq	r0, r0, r0, lsr #32
    1b80:	00540001 	subseq	r0, r4, r1
	...
    1b90:	0f000000 	svceq	0x00000000
    1b94:	01000000 	mrseq	r0, (UNDEF: 0)
    1b98:	000f5100 	andeq	r5, pc, r0, lsl #2
    1b9c:	00200000 	eoreq	r0, r0, r0
    1ba0:	00010000 	andeq	r0, r1, r0
    1ba4:	00000055 	andeq	r0, r0, r5, asr r0
	...
    1bb0:	00002000 	andeq	r2, r0, r0
    1bb4:	00002f00 	andeq	r2, r0, r0, lsl #30
    1bb8:	50000100 	andpl	r0, r0, r0, lsl #2
    1bbc:	0000002f 	andeq	r0, r0, pc, lsr #32
    1bc0:	00000040 	andeq	r0, r0, r0, asr #32
    1bc4:	00540001 	subseq	r0, r4, r1
	...
    1bd0:	20000000 	andcs	r0, r0, r0
    1bd4:	2f000000 	svccs	0x00000000
    1bd8:	01000000 	mrseq	r0, (UNDEF: 0)
    1bdc:	002f5100 	eoreq	r5, pc, r0, lsl #2
    1be0:	00400000 	subeq	r0, r0, r0
    1be4:	00010000 	andeq	r0, r1, r0
    1be8:	00000055 	andeq	r0, r0, r5, asr r0
	...
    1bf4:	50000000 	andpl	r0, r0, r0
    1bf8:	98000003 	stmdals	r0, {r0, r1}
    1bfc:	01000003 	tsteq	r0, r3
    1c00:	03985000 	orrseq	r5, r8, #0, 0
    1c04:	039b0000 	orrseq	r0, fp, #0, 0
    1c08:	00020000 	andeq	r0, r2, r0
    1c0c:	039b6891 	orrseq	r6, fp, #9502720	; 0x910000
    1c10:	03b00000 	movseq	r0, #0, 0
    1c14:	00040000 	andeq	r0, r4, r0
    1c18:	9f5001f3 	svcls	0x005001f3
	...
    1c38:	00000220 	andeq	r0, r0, r0, lsr #4
    1c3c:	0000027b 	andeq	r0, r0, fp, ror r2
    1c40:	7b500001 	blvc	1401c4c <__bss_end__+0x13f7c6c>
    1c44:	84000002 	strhi	r0, [r0], #-2
    1c48:	04000002 	streq	r0, [r0], #-2
    1c4c:	5001f300 	andpl	pc, r1, r0, lsl #6
    1c50:	0002849f 	muleq	r2, pc, r4	; <UNPREDICTABLE>
    1c54:	00029c00 	andeq	r9, r2, r0, lsl #24
    1c58:	50000100 	andpl	r0, r0, r0, lsl #2
    1c5c:	0000029c 	muleq	r0, ip, r2
    1c60:	000002a4 	andeq	r0, r0, r4, lsr #5
    1c64:	01f30004 	mvnseq	r0, r4
    1c68:	02a49f50 	adceq	r9, r4, #80, 30	; 0x140
    1c6c:	02a70000 	adceq	r0, r7, #0, 0
    1c70:	00010000 	andeq	r0, r1, r0
    1c74:	0002a750 	andeq	sl, r2, r0, asr r7
    1c78:	0002c800 	andeq	ip, r2, r0, lsl #16
    1c7c:	f3000400 	vshl.u8	d0, d0, d0
    1c80:	c89f5001 	ldmgt	pc, {r0, ip, lr}	; <UNPREDICTABLE>
    1c84:	e0000002 	and	r0, r0, r2
    1c88:	01000002 	tsteq	r0, r2
    1c8c:	02e05000 	rsceq	r5, r0, #0, 0
    1c90:	02e80000 	rsceq	r0, r8, #0, 0
    1c94:	00040000 	andeq	r0, r4, r0
    1c98:	9f5001f3 	svcls	0x005001f3
    1c9c:	000002e8 	andeq	r0, r0, r8, ror #5
    1ca0:	000002eb 	andeq	r0, r0, fp, ror #5
    1ca4:	eb500001 	bl	1401cb0 <__bss_end__+0x13f7cd0>
    1ca8:	38000002 	stmdacc	r0, {r1}
    1cac:	04000003 	streq	r0, [r0], #-3
    1cb0:	5001f300 	andpl	pc, r1, r0, lsl #6
    1cb4:	0000009f 	muleq	r0, pc, r0	; <UNPREDICTABLE>
	...
    1cd0:	00022000 	andeq	r2, r2, r0
    1cd4:	00024400 	andeq	r4, r2, r0, lsl #8
    1cd8:	51000100 	mrspl	r0, (UNDEF: 16)
    1cdc:	00000244 	andeq	r0, r0, r4, asr #4
    1ce0:	00000268 	andeq	r0, r0, r8, ror #4
    1ce4:	68510001 	ldmdavs	r1, {r0}^
    1ce8:	7b000002 	blvc	1cf8 <__code_start__-0x6308>
    1cec:	03000002 	movweq	r0, #2
    1cf0:	9f017100 	svcls	0x00017100
    1cf4:	0000027b 	andeq	r0, r0, fp, ror r2
    1cf8:	00000284 	andeq	r0, r0, r4, lsl #5
    1cfc:	f3380017 	vqadd.u64	d0, d8, d7
    1d00:	01f35101 	mvnseq	r5, r1, lsl #2
    1d04:	244b4051 	strbcs	r4, [fp], #-81	; 0xffffffaf
    1d08:	00080c22 	andeq	r0, r8, r2, lsr #24
    1d0c:	282d8000 	stmdacs	sp!, {pc}
    1d10:	13160001 	tstne	r6, #1, 0
    1d14:	0002849f 	muleq	r2, pc, r4	; <UNPREDICTABLE>
    1d18:	00029800 	andeq	r9, r2, r0, lsl #16
    1d1c:	51000100 	mrspl	r0, (UNDEF: 16)
    1d20:	00000298 	muleq	r0, r8, r2
    1d24:	000002a4 	andeq	r0, r0, r4, lsr #5
    1d28:	01f30004 	mvnseq	r0, r4
    1d2c:	02a49f51 	adceq	r9, r4, #324	; 0x144
    1d30:	02a70000 	adceq	r0, r7, #0, 0
    1d34:	00010000 	andeq	r0, r1, r0
    1d38:	0002a751 	andeq	sl, r2, r1, asr r7
    1d3c:	0002c800 	andeq	ip, r2, r0, lsl #16
    1d40:	f3000400 	vshl.u8	d0, d0, d0
    1d44:	c89f5101 	ldmgt	pc, {r0, r8, ip, lr}	; <UNPREDICTABLE>
    1d48:	dc000002 	stcle	0, cr0, [r0], {2}
    1d4c:	01000002 	tsteq	r0, r2
    1d50:	02dc5100 	sbcseq	r5, ip, #0
    1d54:	03380000 	teqeq	r8, #0, 0
    1d58:	00170000 	andseq	r0, r7, r0
    1d5c:	5101f338 	tstpl	r1, r8, lsr r3	; <UNPREDICTABLE>
    1d60:	405101f3 	ldrshmi	r0, [r1], #-19	; 0xffffffed
    1d64:	0c22244b 	cfstrseq	mvf2, [r2], #-300	; 0xfffffed4
    1d68:	80000008 	andhi	r0, r0, r8
    1d6c:	0001282d 	andeq	r2, r1, sp, lsr #16
    1d70:	009f1316 	addseq	r1, pc, r6, lsl r3	; <UNPREDICTABLE>
	...
    1d84:	4c000000 	stcmi	0, cr0, [r0], {-0}
    1d88:	5c000002 	stcpl	0, cr0, [r0], {2}
    1d8c:	01000002 	tsteq	r0, r2
    1d90:	025c5200 	subseq	r5, ip, #0, 4
    1d94:	02640000 	rsbeq	r0, r4, #0, 0
    1d98:	00050000 	andeq	r0, r5, r0
    1d9c:	009bb803 	addseq	fp, fp, r3, lsl #16
    1da0:	00026400 	andeq	r6, r2, r0, lsl #8
    1da4:	00027b00 	andeq	r7, r2, r0, lsl #22
    1da8:	53000100 	movwpl	r0, #256	; 0x100
    1dac:	000002c8 	andeq	r0, r0, r8, asr #5
    1db0:	000002d8 	ldrdeq	r0, [r0], -r8
    1db4:	d8520001 	ldmdale	r2, {r0}^
    1db8:	e3000002 	movw	r0, #2
    1dbc:	05000002 	streq	r0, [r0, #-2]
    1dc0:	9bb80300 	blls	fee029c8 <__bss_end__+0xfedf89e8>
    1dc4:	02e80000 	rsceq	r0, r8, #0, 0
    1dc8:	02eb0000 	rsceq	r0, fp, #0, 0
    1dcc:	00010000 	andeq	r0, r1, r0
    1dd0:	00000053 	andeq	r0, r0, r3, asr r0
    1dd4:	00000000 	andeq	r0, r0, r0
    1dd8:	30000400 	andcc	r0, r0, r0, lsl #8
    1ddc:	34000002 	strcc	r0, [r0], #-2
    1de0:	01000002 	tsteq	r0, r2
    1de4:	00005100 	andeq	r5, r0, r0, lsl #2
    1de8:	00000000 	andeq	r0, r0, r0
    1dec:	00020000 	andeq	r0, r2, r0
    1df0:	0000023c 	andeq	r0, r0, ip, lsr r2
    1df4:	00000244 	andeq	r0, r0, r4, asr #4
    1df8:	9f380002 	svcls	0x00380002
	...
    1e04:	023c0002 	eorseq	r0, ip, #2, 0
    1e08:	02440000 	subeq	r0, r4, #0, 0
    1e0c:	00010000 	andeq	r0, r1, r0
    1e10:	00000051 	andeq	r0, r0, r1, asr r0
    1e14:	00000000 	andeq	r0, r0, r0
    1e18:	00000100 	andeq	r0, r0, r0, lsl #2
    1e1c:	4c000000 	stcmi	0, cr0, [r0], {-0}
    1e20:	64000002 	strvs	r0, [r0], #-2
    1e24:	01000002 	tsteq	r0, r2
    1e28:	02c85100 	sbceq	r5, r8, #0
    1e2c:	02dc0000 	sbcseq	r0, ip, #0, 0
    1e30:	00010000 	andeq	r0, r1, r0
    1e34:	0002dc51 	andeq	sp, r2, r1, asr ip
    1e38:	0002e800 	andeq	lr, r2, r0, lsl #16
    1e3c:	38001700 	stmdacc	r0, {r8, r9, sl, ip}
    1e40:	f35101f3 	vbsl	q8, <illegal reg q8.5>, <illegal reg q9.5>
    1e44:	4b405101 	blmi	1016250 <__bss_end__+0x100c270>
    1e48:	080c2224 	stmdaeq	ip, {r2, r5, r9, sp}
    1e4c:	2d800000 	stccs	0, cr0, [r0]
    1e50:	16000128 	strne	r0, [r0], -r8, lsr #2
    1e54:	00009f13 	andeq	r9, r0, r3, lsl pc
    1e58:	00000000 	andeq	r0, r0, r0
    1e5c:	00010000 	andeq	r0, r1, r0
    1e60:	00000000 	andeq	r0, r0, r0
    1e64:	024c0000 	subeq	r0, ip, #0, 0
    1e68:	025c0000 	subseq	r0, ip, #0, 0
    1e6c:	00010000 	andeq	r0, r1, r0
    1e70:	00025c52 	andeq	r5, r2, r2, asr ip
    1e74:	00026400 	andeq	r6, r2, r0, lsl #8
    1e78:	03000500 	movweq	r0, #1280	; 0x500
    1e7c:	00009bb8 			; <UNDEFINED> instruction: 0x00009bb8
    1e80:	000002c8 	andeq	r0, r0, r8, asr #5
    1e84:	000002d8 	ldrdeq	r0, [r0], -r8
    1e88:	d8520001 	ldmdale	r2, {r0}^
    1e8c:	e3000002 	movw	r0, #2
    1e90:	05000002 	streq	r0, [r0, #-2]
    1e94:	9bb80300 	blls	fee02a9c <__bss_end__+0xfedf8abc>
	...
    1ea0:	00040000 	andeq	r0, r4, r0
    1ea4:	0000024c 	andeq	r0, r0, ip, asr #4
    1ea8:	00000250 	andeq	r0, r0, r0, asr r2
    1eac:	00510001 	subseq	r0, r1, r1
    1eb0:	00000000 	andeq	r0, r0, r0
    1eb4:	03000000 	movweq	r0, #0
    1eb8:	00026400 	andeq	r6, r2, r0, lsl #8
    1ebc:	00026800 	andeq	r6, r2, r0, lsl #16
    1ec0:	51000100 	mrspl	r0, (UNDEF: 16)
	...
    1ecc:	02640003 	rsbeq	r0, r4, #3, 0
    1ed0:	02680000 	rsbeq	r0, r8, #0, 0
    1ed4:	00010000 	andeq	r0, r1, r0
    1ed8:	00000053 	andeq	r0, r0, r3, asr r0
	...
    1ee8:	0001bc00 	andeq	fp, r1, r0, lsl #24
    1eec:	0001d300 	andeq	sp, r1, r0, lsl #6
    1ef0:	50000100 	andpl	r0, r0, r0, lsl #2
    1ef4:	000001d3 	ldrdeq	r0, [r0], -r3
    1ef8:	000001f0 	strdeq	r0, [r0], -r0	; <UNPREDICTABLE>
    1efc:	f0540001 			; <UNDEFINED> instruction: 0xf0540001
    1f00:	08000001 	stmdaeq	r0, {r0}
    1f04:	01000002 	tsteq	r0, r2
    1f08:	02085000 	andeq	r5, r8, #0, 0
    1f0c:	02200000 	eoreq	r0, r0, #0, 0
    1f10:	00010000 	andeq	r0, r1, r0
    1f14:	00000054 	andeq	r0, r0, r4, asr r0
	...
    1f20:	0001d800 	andeq	sp, r1, r0, lsl #16
    1f24:	0001e300 	andeq	lr, r1, r0, lsl #6
    1f28:	50000100 	andpl	r0, r0, r0, lsl #2
    1f2c:	000001e3 	andeq	r0, r0, r3, ror #3
    1f30:	000001f0 	strdeq	r0, [r0], -r0	; <UNPREDICTABLE>
    1f34:	00550001 	subseq	r0, r5, r1
	...
    1f4c:	24000000 	strcs	r0, [r0], #-0
    1f50:	38000001 	stmdacc	r0, {r0}
    1f54:	01000001 	tsteq	r0, r1
    1f58:	01385000 	teqeq	r8, r0
    1f5c:	013c0000 	teqeq	ip, r0
    1f60:	00030000 	andeq	r0, r3, r0
    1f64:	3c9f7970 			; <UNDEFINED> instruction: 0x3c9f7970
    1f68:	60000001 	andvs	r0, r0, r1
    1f6c:	01000001 	tsteq	r0, r1
    1f70:	01605300 	cmneq	r0, r0, lsl #6
    1f74:	01780000 	cmneq	r8, r0
    1f78:	00010000 	andeq	r0, r1, r0
    1f7c:	00017850 	andeq	r7, r1, r0, asr r8
    1f80:	00018000 	andeq	r8, r1, r0
    1f84:	f3000400 	vshl.u8	d0, d0, d0
    1f88:	809f5001 	addshi	r5, pc, r1
    1f8c:	90000001 	andls	r0, r0, r1
    1f90:	01000001 	tsteq	r0, r1
    1f94:	01905300 	orrseq	r5, r0, r0, lsl #6
    1f98:	019f0000 	orrseq	r0, pc, r0
    1f9c:	00020000 	andeq	r0, r2, r0
    1fa0:	019f6891 			; <UNDEFINED> instruction: 0x019f6891
    1fa4:	01bc0000 			; <UNDEFINED> instruction: 0x01bc0000
    1fa8:	00090000 	andeq	r0, r9, r0
    1fac:	235001f3 	cmpcs	r0, #-1073741764	; 0xc000003c
    1fb0:	1af80907 	bne	ffe043d4 <__bss_end__+0xffdfa3f4>
    1fb4:	0000009f 	muleq	r0, pc, r0	; <UNPREDICTABLE>
	...
    1fc0:	00014400 	andeq	r4, r1, r0, lsl #8
    1fc4:	00016000 	andeq	r6, r1, r0
    1fc8:	50000100 	andpl	r0, r0, r0, lsl #2
    1fcc:	00000180 	andeq	r0, r0, r0, lsl #3
    1fd0:	0000019c 	muleq	r0, ip, r1
    1fd4:	00500001 	subseq	r0, r0, r1
    1fd8:	00000000 	andeq	r0, r0, r0
    1fdc:	03000000 	movweq	r0, #0
    1fe0:	00013400 	andeq	r3, r1, r0, lsl #8
    1fe4:	00013c00 	andeq	r3, r1, r0, lsl #24
    1fe8:	38000200 	stmdacc	r0, {r9}
    1fec:	0000009f 	muleq	r0, pc, r0	; <UNPREDICTABLE>
    1ff0:	00000000 	andeq	r0, r0, r0
    1ff4:	00000300 	andeq	r0, r0, r0, lsl #6
    1ff8:	00013400 	andeq	r3, r1, r0, lsl #8
    1ffc:	00013800 	andeq	r3, r1, r0, lsl #16
    2000:	50000100 	andpl	r0, r0, r0, lsl #2
    2004:	00000138 	andeq	r0, r0, r8, lsr r1
    2008:	0000013c 	andeq	r0, r0, ip, lsr r1
    200c:	79700003 	ldmdbvc	r0!, {r0, r1}^
    2010:	0000009f 	muleq	r0, pc, r0	; <UNPREDICTABLE>
	...
    2024:	30000000 	andcc	r0, r0, r0
    2028:	60000000 	andvs	r0, r0, r0
    202c:	01000000 	mrseq	r0, (UNDEF: 0)
    2030:	00605000 	rsbeq	r5, r0, r0
    2034:	006c0000 	rsbeq	r0, ip, r0
    2038:	00050000 	andeq	r0, r5, r0
    203c:	009bb803 	addseq	fp, fp, r3, lsl #16
    2040:	00006c00 	andeq	r6, r0, r0, lsl #24
    2044:	00008400 	andeq	r8, r0, r0, lsl #8
    2048:	50000100 	andpl	r0, r0, r0, lsl #2
    204c:	00000084 	andeq	r0, r0, r4, lsl #1
    2050:	0000008c 	andeq	r0, r0, ip, lsl #1
    2054:	01f30004 	mvnseq	r0, r4
    2058:	008c9f50 	addeq	r9, ip, r0, asr pc
    205c:	00ac0000 	adceq	r0, ip, r0
    2060:	00010000 	andeq	r0, r1, r0
    2064:	0000ac50 	andeq	sl, r0, r0, asr ip
    2068:	0000af00 	andeq	sl, r0, r0, lsl #30
    206c:	91000200 	mrsls	r0, R8_usr
    2070:	0000af68 	andeq	sl, r0, r8, ror #30
    2074:	0000cc00 	andeq	ip, r0, r0, lsl #24
    2078:	f3000400 	vshl.u8	d0, d0, d0
    207c:	009f5001 	addseq	r5, pc, r1
	...
    208c:	30000000 	andcc	r0, r0, r0
    2090:	80000000 	andhi	r0, r0, r0
    2094:	01000000 	mrseq	r0, (UNDEF: 0)
    2098:	00805100 	addeq	r5, r0, r0, lsl #2
    209c:	008c0000 	addeq	r0, ip, r0
    20a0:	00040000 	andeq	r0, r4, r0
    20a4:	9f5101f3 	svcls	0x005101f3
    20a8:	0000008c 	andeq	r0, r0, ip, lsl #1
    20ac:	000000a8 	andeq	r0, r0, r8, lsr #1
    20b0:	a8510001 	ldmdage	r1, {r0}^
    20b4:	cc000000 	stcgt	0, cr0, [r0], {-0}
    20b8:	04000000 	streq	r0, [r0], #-0
    20bc:	5101f300 	mrspl	pc, SP_irq	; <UNPREDICTABLE>
    20c0:	0000009f 	muleq	r0, pc, r0	; <UNPREDICTABLE>
    20c4:	00000000 	andeq	r0, r0, r0
    20c8:	00000100 	andeq	r0, r0, r0, lsl #2
	...
    20d4:	38000000 	stmdacc	r0, {}	; <UNPREDICTABLE>
    20d8:	60000000 	andvs	r0, r0, r0
    20dc:	01000000 	mrseq	r0, (UNDEF: 0)
    20e0:	00605000 	rsbeq	r5, r0, r0
    20e4:	006c0000 	rsbeq	r0, ip, r0
    20e8:	00050000 	andeq	r0, r5, r0
    20ec:	009bb803 	addseq	fp, fp, r3, lsl #16
    20f0:	00006c00 	andeq	r6, r0, r0, lsl #24
    20f4:	00008400 	andeq	r8, r0, r0, lsl #8
    20f8:	50000100 	andpl	r0, r0, r0, lsl #2
    20fc:	00000084 	andeq	r0, r0, r4, lsl #1
    2100:	0000008c 	andeq	r0, r0, ip, lsl #1
    2104:	01f30004 	mvnseq	r0, r4
    2108:	008c9f50 	addeq	r9, ip, r0, asr pc
    210c:	00ac0000 	adceq	r0, ip, r0
    2110:	00010000 	andeq	r0, r1, r0
    2114:	0000ac50 	andeq	sl, r0, r0, asr ip
    2118:	0000af00 	andeq	sl, r0, r0, lsl #30
    211c:	91000200 	mrsls	r0, R8_usr
    2120:	0000af68 	andeq	sl, r0, r8, ror #30
    2124:	0000cc00 	andeq	ip, r0, r0, lsl #24
    2128:	f3000400 	vshl.u8	d0, d0, d0
    212c:	009f5001 	addseq	r5, pc, r1
	...
    213c:	00017000 	andeq	r7, r1, r0
    2140:	00017c00 	andeq	r7, r1, r0, lsl #24
    2144:	50000100 	andpl	r0, r0, r0, lsl #2
    2148:	0000017c 	andeq	r0, r0, ip, ror r1
    214c:	00000188 	andeq	r0, r0, r8, lsl #3
    2150:	88540001 	ldmdahi	r4, {r0}^
    2154:	98000001 	stmdals	r0, {r0}
    2158:	04000001 	streq	r0, [r0], #-1
    215c:	5001f300 	andpl	pc, r1, r0, lsl #6
    2160:	0000009f 	muleq	r0, pc, r0	; <UNPREDICTABLE>
	...
    2170:	78000000 	stmdavc	r0, {}	; <UNPREDICTABLE>
    2174:	7c000001 	stcvc	0, cr0, [r0], {1}
    2178:	0b000001 	bleq	2184 <__code_start__-0x5e7c>
    217c:	35007000 	strcc	r7, [r0, #-0]
    2180:	80b42325 	adcshi	r2, r4, r5, lsr #6
    2184:	9f028180 	svcls	0x00028180
    2188:	0000017c 	andeq	r0, r0, ip, ror r1
    218c:	00000180 	andeq	r0, r0, r0, lsl #3
    2190:	0074000b 	rsbseq	r0, r4, fp
    2194:	b4232535 	strtlt	r2, [r3], #-1333	; 0xfffffacb
    2198:	02818080 	addeq	r8, r1, #128, 0	; 0x80
    219c:	0001809f 	muleq	r1, pc, r0	; <UNPREDICTABLE>
    21a0:	00018300 	andeq	r8, r1, r0, lsl #6
    21a4:	50000100 	andpl	r0, r0, r0, lsl #2
    21a8:	00000183 	andeq	r0, r0, r3, lsl #3
    21ac:	00000188 	andeq	r0, r0, r8, lsl #3
    21b0:	0074000b 	rsbseq	r0, r4, fp
    21b4:	b4232535 	strtlt	r2, [r3], #-1333	; 0xfffffacb
    21b8:	02818080 	addeq	r8, r1, #128, 0	; 0x80
    21bc:	0001889f 	muleq	r1, pc, r8	; <UNPREDICTABLE>
    21c0:	00019800 	andeq	r9, r1, r0, lsl #16
    21c4:	f3000c00 			; <UNDEFINED> instruction: 0xf3000c00
    21c8:	25355001 	ldrcs	r5, [r5, #-1]!
    21cc:	8080b423 	addhi	fp, r0, r3, lsr #8
    21d0:	009f0281 	addseq	r0, pc, r1, lsl #5
    21d4:	00000000 	andeq	r0, r0, r0
    21d8:	01000000 	mrseq	r0, (UNDEF: 0)
    21dc:	00000000 	andeq	r0, r0, r0
    21e0:	00017800 	andeq	r7, r1, r0, lsl #16
    21e4:	00017c00 	andeq	r7, r1, r0, lsl #24
    21e8:	70000500 	andvc	r0, r0, r0, lsl #10
    21ec:	9f1a4f00 	svcls	0x001a4f00
    21f0:	0000017c 	andeq	r0, r0, ip, ror r1
    21f4:	00000188 	andeq	r0, r0, r8, lsl #3
    21f8:	00740005 	rsbseq	r0, r4, r5
    21fc:	889f1a4f 	ldmhi	pc, {r0, r1, r2, r3, r6, r9, fp, ip}	; <UNPREDICTABLE>
    2200:	98000001 	stmdals	r0, {r0}
    2204:	01000001 	tsteq	r0, r1
    2208:	00005400 	andeq	r5, r0, r0, lsl #8
	...
    221c:	01400000 	mrseq	r0, (UNDEF: 64)
    2220:	01540000 	cmpeq	r4, r0
    2224:	00010000 	andeq	r0, r1, r0
    2228:	00015450 	andeq	r5, r1, r0, asr r4
    222c:	00015800 	andeq	r5, r1, r0, lsl #16
    2230:	51000100 	mrspl	r0, (UNDEF: 16)
    2234:	00000158 	andeq	r0, r0, r8, asr r1
    2238:	0000015c 	andeq	r0, r0, ip, asr r1
    223c:	01f30004 	mvnseq	r0, r4
    2240:	015c9f50 	cmpeq	ip, r0, asr pc
    2244:	01600000 	cmneq	r0, r0
    2248:	00010000 	andeq	r0, r1, r0
    224c:	00016050 	andeq	r6, r1, r0, asr r0
    2250:	00016400 	andeq	r6, r1, r0, lsl #8
    2254:	51000100 	mrspl	r0, (UNDEF: 16)
    2258:	00000164 	andeq	r0, r0, r4, ror #2
    225c:	00000170 	andeq	r0, r0, r0, ror r1
    2260:	01f30004 	mvnseq	r0, r4
    2264:	00009f50 	andeq	r9, r0, r0, asr pc
	...
    2270:	01400000 	mrseq	r0, (UNDEF: 64)
    2274:	014c0000 	mrseq	r0, (UNDEF: 76)
    2278:	00010000 	andeq	r0, r1, r0
    227c:	00014c51 	andeq	r4, r1, r1, asr ip
    2280:	00017000 	andeq	r7, r1, r0
    2284:	f3000400 	vshl.u8	d0, d0, d0
    2288:	009f5101 	addseq	r5, pc, r1, lsl #2
    228c:	00000000 	andeq	r0, r0, r0
    2290:	01000000 	mrseq	r0, (UNDEF: 0)
    2294:	00000000 	andeq	r0, r0, r0
    2298:	00015000 	andeq	r5, r1, r0
    229c:	00015400 	andeq	r5, r1, r0, lsl #8
    22a0:	50000100 	andpl	r0, r0, r0, lsl #2
    22a4:	00000154 	andeq	r0, r0, r4, asr r1
    22a8:	00000158 	andeq	r0, r0, r8, asr r1
    22ac:	58510001 	ldmdapl	r1, {r0}^
    22b0:	5c000001 	stcpl	0, cr0, [r0], {1}
    22b4:	04000001 	streq	r0, [r0], #-1
    22b8:	5001f300 	andpl	pc, r1, r0, lsl #6
    22bc:	0000009f 	muleq	r0, pc, r0	; <UNPREDICTABLE>
    22c0:	00000000 	andeq	r0, r0, r0
    22c4:	00000200 	andeq	r0, r0, r0, lsl #4
    22c8:	5c000000 	stcpl	0, cr0, [r0], {-0}
    22cc:	60000001 	andvs	r0, r0, r1
    22d0:	01000001 	tsteq	r0, r1
    22d4:	01605000 	cmneq	r0, r0
    22d8:	01640000 	cmneq	r4, r0
    22dc:	00010000 	andeq	r0, r1, r0
    22e0:	00016451 	andeq	r6, r1, r1, asr r4
    22e4:	00017000 	andeq	r7, r1, r0
    22e8:	f3000400 	vshl.u8	d0, d0, d0
    22ec:	009f5001 	addseq	r5, pc, r1
	...
    22fc:	0000e800 	andeq	lr, r0, r0, lsl #16
    2300:	00010800 	andeq	r0, r1, r0, lsl #16
    2304:	50000100 	andpl	r0, r0, r0, lsl #2
    2308:	00000108 	andeq	r0, r0, r8, lsl #2
    230c:	00000128 	andeq	r0, r0, r8, lsr #2
    2310:	28540001 	ldmdacs	r4, {r0}^
    2314:	40000001 	andmi	r0, r0, r1
    2318:	04000001 	streq	r0, [r0], #-1
    231c:	5001f300 	andpl	pc, r1, r0, lsl #6
    2320:	0000009f 	muleq	r0, pc, r0	; <UNPREDICTABLE>
    2324:	00000000 	andeq	r0, r0, r0
    2328:	00000200 	andeq	r0, r0, r0, lsl #4
    232c:	e8000000 	stmda	r0, {}	; <UNPREDICTABLE>
    2330:	08000000 	stmdaeq	r0, {}	; <UNPREDICTABLE>
    2334:	01000001 	tsteq	r0, r1
    2338:	01085000 	mrseq	r5, (UNDEF: 8)
    233c:	01280000 			; <UNDEFINED> instruction: 0x01280000
    2340:	00010000 	andeq	r0, r1, r0
    2344:	00012854 	andeq	r2, r1, r4, asr r8
    2348:	00014000 	andeq	r4, r1, r0
    234c:	f3000400 	vshl.u8	d0, d0, d0
    2350:	009f5001 	addseq	r5, pc, r1
	...
    2360:	0000f000 	andeq	pc, r0, r0
    2364:	00010800 	andeq	r0, r1, r0, lsl #16
    2368:	50000100 	andpl	r0, r0, r0, lsl #2
    236c:	00000108 	andeq	r0, r0, r8, lsl #2
    2370:	00000128 	andeq	r0, r0, r8, lsr #2
    2374:	28540001 	ldmdacs	r4, {r0}^
    2378:	40000001 	andmi	r0, r0, r1
    237c:	04000001 	streq	r0, [r0], #-1
    2380:	5001f300 	andpl	pc, r1, r0, lsl #6
    2384:	0000009f 	muleq	r0, pc, r0	; <UNPREDICTABLE>
    2388:	00000000 	andeq	r0, r0, r0
    238c:	00000300 	andeq	r0, r0, r0, lsl #6
    2390:	f0000000 			; <UNDEFINED> instruction: 0xf0000000
    2394:	08000000 	stmdaeq	r0, {}	; <UNPREDICTABLE>
    2398:	07000001 	streq	r0, [r0, -r1]
    239c:	3a007000 	bcc	1e3a4 <__bss_end__+0x143c4>
    23a0:	9f1e331d 	svcls	0x001e331d
    23a4:	00000108 	andeq	r0, r0, r8, lsl #2
    23a8:	00000128 	andeq	r0, r0, r8, lsr #2
    23ac:	00740007 	rsbseq	r0, r4, r7
    23b0:	1e331d3a 	mrcne	13, 1, r1, cr3, cr10, {1}
    23b4:	0001289f 	muleq	r1, pc, r8	; <UNPREDICTABLE>
    23b8:	00014000 	andeq	r4, r1, r0
    23bc:	f3000800 	vsub.i8	d0, d0, d0
    23c0:	1d3a5001 	ldcne	0, cr5, [sl, #-4]!
    23c4:	009f1e33 	addseq	r1, pc, r3, lsr lr	; <UNPREDICTABLE>
	...
    23d4:	00011000 	andeq	r1, r1, r0
    23d8:	00013800 	andeq	r3, r1, r0, lsl #16
    23dc:	56000100 	strpl	r0, [r0], -r0, lsl #2
    23e0:	00000138 	andeq	r0, r0, r8, lsr r1
    23e4:	0000013b 	andeq	r0, r0, fp, lsr r1
    23e8:	3b500001 	blcc	14023f4 <__bss_end__+0x13f8414>
    23ec:	40000001 	andmi	r0, r0, r1
    23f0:	26000001 	strcs	r0, [r0], -r1
    23f4:	5001f300 	andpl	pc, r1, r0, lsl #6
    23f8:	25f72cf7 	ldrbcs	r2, [r7, #3319]!	; 0xcf7
    23fc:	cd0825f4 	cfstr32gt	mvfx2, [r8, #-976]	; 0xfffffc30
    2400:	00cccccc 	sbceq	ip, ip, ip, asr #25
    2404:	1e000000 	cdpne	0, 0, cr0, cr0, cr0, {0}
    2408:	25f72008 	ldrbcs	r2, [r7, #8]!
    240c:	f72cf725 			; <UNDEFINED> instruction: 0xf72cf725
    2410:	23253300 			; <UNDEFINED> instruction: 0x23253300
    2414:	40a08080 	adcmi	r8, r0, r0, lsl #1
    2418:	009f2432 	addseq	r2, pc, r2, lsr r4	; <UNPREDICTABLE>
	...
    2424:	00000101 	andeq	r0, r0, r1, lsl #2
    2428:	20000000 	andcs	r0, r0, r0
    242c:	20000001 	andcs	r0, r0, r1
    2430:	01000001 	tsteq	r0, r1
    2434:	01205000 			; <UNDEFINED> instruction: 0x01205000
    2438:	01280000 			; <UNDEFINED> instruction: 0x01280000
    243c:	000d0000 	andeq	r0, sp, r0
    2440:	3a007437 	bcc	1f524 <__bss_end__+0x15544>
    2444:	241e331d 	ldrcs	r3, [lr], #-797	; 0xfffffce3
    2448:	1a007020 	bne	1e4d0 <__bss_end__+0x144f0>
    244c:	0001289f 	muleq	r1, pc, r8	; <UNPREDICTABLE>
    2450:	00013000 	andeq	r3, r1, r0
    2454:	37000e00 	strcc	r0, [r0, -r0, lsl #28]
    2458:	3a5001f3 	bcc	1402c2c <__bss_end__+0x13f8c4c>
    245c:	241e331d 	ldrcs	r3, [lr], #-797	; 0xfffffce3
    2460:	1a007020 	bne	1e4e8 <__bss_end__+0x14508>
    2464:	0001309f 	muleq	r1, pc, r0	; <UNPREDICTABLE>
    2468:	00013b00 	andeq	r3, r1, r0, lsl #22
    246c:	37000e00 	strcc	r0, [r0, -r0, lsl #28]
    2470:	3a5001f3 	bcc	1402c44 <__bss_end__+0x13f8c64>
    2474:	241e331d 	ldrcs	r3, [lr], #-797	; 0xfffffce3
    2478:	1a007320 	bne	1f100 <__bss_end__+0x15120>
    247c:	0000009f 	muleq	r0, pc, r0	; <UNPREDICTABLE>
	...
    2488:	00006000 	andeq	r6, r0, r0
    248c:	00009000 	andeq	r9, r0, r0
    2490:	50000100 	andpl	r0, r0, r0, lsl #2
    2494:	00000090 	muleq	r0, r0, r0
    2498:	000000b8 	strheq	r0, [r0], -r8
    249c:	01f30004 	mvnseq	r0, r4
    24a0:	00009f50 	andeq	r9, r0, r0, asr pc
    24a4:	00000000 	andeq	r0, r0, r0
    24a8:	00020000 	andeq	r0, r2, r0
    24ac:	00600000 	rsbeq	r0, r0, r0
    24b0:	00900000 	addseq	r0, r0, r0
    24b4:	00010000 	andeq	r0, r1, r0
    24b8:	00009050 	andeq	r9, r0, r0, asr r0
    24bc:	0000b800 	andeq	fp, r0, r0, lsl #16
    24c0:	f3000400 	vshl.u8	d0, d0, d0
    24c4:	009f5001 	addseq	r5, pc, r1
	...
    24d0:	68000000 	stmdavs	r0, {}	; <UNPREDICTABLE>
    24d4:	90000000 	andls	r0, r0, r0
    24d8:	01000000 	mrseq	r0, (UNDEF: 0)
    24dc:	00905000 	addseq	r5, r0, r0
    24e0:	00b80000 	adcseq	r0, r8, r0
    24e4:	00040000 	andeq	r0, r4, r0
    24e8:	9f5001f3 	svcls	0x005001f3
	...
    24f8:	000000a0 	andeq	r0, r0, r0, lsr #1
    24fc:	000000b0 	strheq	r0, [r0], -r0	; <UNPREDICTABLE>
    2500:	b0540001 	subslt	r0, r4, r1
    2504:	b8000000 	stmdalt	r0, {}	; <UNPREDICTABLE>
    2508:	29000000 	stmdbcs	r0, {}	; <UNPREDICTABLE>
    250c:	5001f300 	andpl	pc, r1, r0, lsl #6
    2510:	f75001f3 			; <UNDEFINED> instruction: 0xf75001f3
    2514:	f425f72c 	vld1.8	{d15}, [r5 :128], ip
    2518:	cccd0825 	stclgt	8, cr0, [sp], {37}	; 0x25
    251c:	0000cccc 	andeq	ip, r0, ip, asr #25
    2520:	081e0000 	ldmdaeq	lr, {}	; <UNPREDICTABLE>
    2524:	2525f720 	strcs	pc, [r5, #-1824]!	; 0xfffff8e0
    2528:	00f72cf7 	ldrshteq	r2, [r7], #199	; 0xc7
    252c:	1e352533 	mrcne	5, 1, r2, cr5, cr3, {1}
    2530:	331c2431 	tstcc	ip, #822083584	; 0x31000000
    2534:	00009f1e 	andeq	r9, r0, lr, lsl pc
    2538:	00000000 	andeq	r0, r0, r0
    253c:	00010000 	andeq	r0, r1, r0
    2540:	00000000 	andeq	r0, r0, r0
    2544:	000000a0 	andeq	r0, r0, r0, lsr #1
    2548:	000000b0 	strheq	r0, [r0], -r0	; <UNPREDICTABLE>
    254c:	b0550001 	subslt	r0, r5, r1
    2550:	b3000000 	movwlt	r0, #0
    2554:	01000000 	mrseq	r0, (UNDEF: 0)
    2558:	00b35000 	adcseq	r5, r3, r0
    255c:	00b80000 	adcseq	r0, r8, r0
    2560:	00260000 	eoreq	r0, r6, r0
    2564:	f75001f3 			; <UNDEFINED> instruction: 0xf75001f3
    2568:	f425f72c 	vld1.8	{d15}, [r5 :128], ip
    256c:	cccd0825 	stclgt	8, cr0, [sp], {37}	; 0x25
    2570:	0000cccc 	andeq	ip, r0, ip, asr #25
    2574:	081e0000 	ldmdaeq	lr, {}	; <UNPREDICTABLE>
    2578:	2525f720 	strcs	pc, [r5, #-1824]!	; 0xfffff8e0
    257c:	00f72cf7 	ldrshteq	r2, [r7], #199	; 0xc7
    2580:	80232533 	eorhi	r2, r3, r3, lsr r5
    2584:	3240a080 	subcc	sl, r0, #128, 0	; 0x80
    2588:	00009f24 	andeq	r9, r0, r4, lsr #30
    258c:	00000000 	andeq	r0, r0, r0
    2590:	00020000 	andeq	r0, r2, r0
    2594:	00010100 	andeq	r0, r1, r0, lsl #2
    2598:	00a00000 	adceq	r0, r0, r0
    259c:	00a40000 	adceq	r0, r4, r0
    25a0:	00010000 	andeq	r0, r1, r0
    25a4:	0000a450 	andeq	sl, r0, r0, asr r4
    25a8:	0000a400 	andeq	sl, r0, r0, lsl #8
    25ac:	53000100 	movwpl	r0, #256	; 0x100
    25b0:	000000a4 	andeq	r0, r0, r4, lsr #1
    25b4:	000000a8 	andeq	r0, r0, r8, lsr #1
    25b8:	74310008 	ldrtvc	r0, [r1], #-8
    25bc:	00732400 	rsbseq	r2, r3, r0, lsl #8
    25c0:	00a89f21 	adceq	r9, r8, r1, lsr #30
    25c4:	00b30000 	adcseq	r0, r3, r0
    25c8:	00010000 	andeq	r0, r1, r0
    25cc:	00000051 	andeq	r0, r0, r1, asr r0
	...
    25dc:	00003c00 	andeq	r3, r0, r0, lsl #24
    25e0:	50000100 	andpl	r0, r0, r0, lsl #2
    25e4:	0000003c 	andeq	r0, r0, ip, lsr r0
    25e8:	00000060 	andeq	r0, r0, r0, rrx
    25ec:	01f30004 	mvnseq	r0, r4
    25f0:	00009f50 	andeq	r9, r0, r0, asr pc
	...
    2600:	003f0000 	eorseq	r0, pc, r0
    2604:	00010000 	andeq	r0, r1, r0
    2608:	00003f51 	andeq	r3, r0, r1, asr pc
    260c:	00006000 	andeq	r6, r0, r0
    2610:	f3000400 	vshl.u8	d0, d0, d0
    2614:	009f5101 	addseq	r5, pc, r1, lsl #2
	...
    2620:	08000000 	stmdaeq	r0, {}	; <UNPREDICTABLE>
    2624:	3f000000 	svccc	0x00000000
    2628:	01000000 	mrseq	r0, (UNDEF: 0)
    262c:	003f5100 	eorseq	r5, pc, r0, lsl #2
    2630:	00600000 	rsbeq	r0, r0, r0
    2634:	00040000 	andeq	r0, r4, r0
    2638:	9f5101f3 	svcls	0x005101f3
	...
    2648:	00000008 	andeq	r0, r0, r8
    264c:	0000003c 	andeq	r0, r0, ip, lsr r0
    2650:	3c500001 	mrrccc	0, 0, r0, r0, cr1	; <UNPREDICTABLE>
    2654:	60000000 	andvs	r0, r0, r0
    2658:	04000000 	streq	r0, [r0], #-0
    265c:	5001f300 	andpl	pc, r1, r0, lsl #6
    2660:	0000009f 	muleq	r0, pc, r0	; <UNPREDICTABLE>
	...
    266c:	00004800 	andeq	r4, r0, r0, lsl #16
    2670:	00005800 	andeq	r5, r0, r0, lsl #16
    2674:	54000100 	strpl	r0, [r0], #-256	; 0xffffff00
    2678:	00000058 	andeq	r0, r0, r8, asr r0
    267c:	00000060 	andeq	r0, r0, r0, rrx
    2680:	01f30029 	mvnseq	r0, r9, lsr #32
    2684:	5001f350 	andpl	pc, r1, r0, asr r3	; <UNPREDICTABLE>
    2688:	25f72cf7 	ldrbcs	r2, [r7, #3319]!	; 0xcf7
    268c:	cd0825f4 	cfstr32gt	mvfx2, [r8, #-976]	; 0xfffffc30
    2690:	00cccccc 	sbceq	ip, ip, ip, asr #25
    2694:	1e000000 	cdpne	0, 0, cr0, cr0, cr0, {0}
    2698:	25f72008 	ldrbcs	r2, [r7, #8]!
    269c:	f72cf725 			; <UNDEFINED> instruction: 0xf72cf725
    26a0:	35253300 	strcc	r3, [r5, #-768]!	; 0xfffffd00
    26a4:	1c24311e 	stfnes	f3, [r4], #-120	; 0xffffff88
    26a8:	009f1e33 	addseq	r1, pc, r3, lsr lr	; <UNPREDICTABLE>
    26ac:	00000000 	andeq	r0, r0, r0
    26b0:	01000000 	mrseq	r0, (UNDEF: 0)
    26b4:	00000000 	andeq	r0, r0, r0
    26b8:	00004800 	andeq	r4, r0, r0, lsl #16
    26bc:	00005800 	andeq	r5, r0, r0, lsl #16
    26c0:	56000100 	strpl	r0, [r0], -r0, lsl #2
    26c4:	00000058 	andeq	r0, r0, r8, asr r0
    26c8:	0000005b 	andeq	r0, r0, fp, asr r0
    26cc:	5b500001 	blpl	14026d8 <__bss_end__+0x13f86f8>
    26d0:	60000000 	andvs	r0, r0, r0
    26d4:	26000000 	strcs	r0, [r0], -r0
    26d8:	5001f300 	andpl	pc, r1, r0, lsl #6
    26dc:	25f72cf7 	ldrbcs	r2, [r7, #3319]!	; 0xcf7
    26e0:	cd0825f4 	cfstr32gt	mvfx2, [r8, #-976]	; 0xfffffc30
    26e4:	00cccccc 	sbceq	ip, ip, ip, asr #25
    26e8:	1e000000 	cdpne	0, 0, cr0, cr0, cr0, {0}
    26ec:	25f72008 	ldrbcs	r2, [r7, #8]!
    26f0:	f72cf725 			; <UNDEFINED> instruction: 0xf72cf725
    26f4:	23253300 			; <UNDEFINED> instruction: 0x23253300
    26f8:	40a08080 	adcmi	r8, r0, r0, lsl #1
    26fc:	009f2432 	addseq	r2, pc, r2, lsr r4	; <UNPREDICTABLE>
    2700:	00000000 	andeq	r0, r0, r0
    2704:	02000000 	andeq	r0, r0, #0, 0
    2708:	01010000 	mrseq	r0, (UNDEF: 1)
    270c:	48000000 	stmdami	r0, {}	; <UNPREDICTABLE>
    2710:	4c000000 	stcmi	0, cr0, [r0], {-0}
    2714:	01000000 	mrseq	r0, (UNDEF: 0)
    2718:	004c5000 	subeq	r5, ip, r0
    271c:	004c0000 	subeq	r0, ip, r0
    2720:	00010000 	andeq	r0, r1, r0
    2724:	00004c51 	andeq	r4, r0, r1, asr ip
    2728:	00005000 	andeq	r5, r0, r0
    272c:	75000c00 	strvc	r0, [r0, #-3072]	; 0xfffff400
    2730:	1aff0800 	bne	fffc4738 <__bss_end__+0xfffba758>
    2734:	71240074 			; <UNDEFINED> instruction: 0x71240074
    2738:	509f2100 	addspl	r2, pc, r0, lsl #2
    273c:	54000000 	strpl	r0, [r0], #-0
    2740:	12000000 	andne	r0, r0, #0, 0
    2744:	00743700 	rsbseq	r3, r4, r0, lsl #14
    2748:	00702024 	rsbseq	r2, r0, r4, lsr #32
    274c:	0800751a 	stmdaeq	r0, {r1, r3, r4, r8, sl, ip, sp, lr}
    2750:	00741aff 	ldrshteq	r1, [r4], #-175	; 0xffffff51
    2754:	009f2124 	addseq	r2, pc, r4, lsr #2
	...
    2764:	0000b800 	andeq	fp, r0, r0, lsl #16
    2768:	0000c400 	andeq	ip, r0, r0, lsl #8
    276c:	50000100 	andpl	r0, r0, r0, lsl #2
    2770:	000000c4 	andeq	r0, r0, r4, asr #1
    2774:	000000cb 	andeq	r0, r0, fp, asr #1
    2778:	cb530001 	blgt	14c2784 <__bss_end__+0x14b87a4>
    277c:	d0000000 	andle	r0, r0, r0
    2780:	04000000 	streq	r0, [r0], #-0
    2784:	5001f300 	andpl	pc, r1, r0, lsl #6
    2788:	0000009f 	muleq	r0, pc, r0	; <UNPREDICTABLE>
	...
    2794:	d0000000 	andle	r0, r0, r0
    2798:	dc000000 	stcle	0, cr0, [r0], {-0}
    279c:	01000000 	mrseq	r0, (UNDEF: 0)
    27a0:	00dc5000 	sbcseq	r5, ip, r0
    27a4:	00e30000 	rsceq	r0, r3, r0
    27a8:	00010000 	andeq	r0, r1, r0
    27ac:	0000e353 	andeq	lr, r0, r3, asr r3
    27b0:	0000e800 	andeq	lr, r0, r0, lsl #16
    27b4:	f3000400 	vshl.u8	d0, d0, d0
    27b8:	009f5001 	addseq	r5, pc, r1
	...
    27c8:	1c000000 	stcne	0, cr0, [r0], {-0}
    27cc:	01000000 	mrseq	r0, (UNDEF: 0)
    27d0:	001c5100 	andseq	r5, ip, r0, lsl #2
    27d4:	00780000 	rsbseq	r0, r8, r0
    27d8:	00040000 	andeq	r0, r4, r0
    27dc:	9f5101f3 	svcls	0x005101f3
	...
    27f0:	00000058 	andeq	r0, r0, r8, asr r0
    27f4:	58520001 	ldmdapl	r2, {r0}^
    27f8:	78000000 	stmdavc	r0, {}	; <UNPREDICTABLE>
    27fc:	04000000 	streq	r0, [r0], #-0
    2800:	5201f300 	andpl	pc, r1, #0, 6
    2804:	0000009f 	muleq	r0, pc, r0	; <UNPREDICTABLE>
    2808:	00000000 	andeq	r0, r0, r0
    280c:	00000200 	andeq	r0, r0, r0, lsl #4
    2810:	00000101 	andeq	r0, r0, r1, lsl #2
    2814:	00000101 	andeq	r0, r0, r1, lsl #2
    2818:	00000101 	andeq	r0, r0, r1, lsl #2
    281c:	38000000 	stmdacc	r0, {}	; <UNPREDICTABLE>
    2820:	01000000 	mrseq	r0, (UNDEF: 0)
    2824:	00545000 	subseq	r5, r4, r0
    2828:	00540000 	subseq	r0, r4, r0
    282c:	00010000 	andeq	r0, r1, r0
    2830:	00005453 	andeq	r5, r0, r3, asr r4
    2834:	00005c00 	andeq	r5, r0, r0, lsl #24
    2838:	73000300 	movwvc	r0, #768	; 0x300
    283c:	005c9f01 	subseq	r9, ip, r1, lsl #30
    2840:	00640000 	rsbeq	r0, r4, r0
    2844:	00010000 	andeq	r0, r1, r0
    2848:	00006452 	andeq	r6, r0, r2, asr r4
    284c:	00006800 	andeq	r6, r0, r0, lsl #16
    2850:	73000300 	movwvc	r0, #768	; 0x300
    2854:	00689f02 	rsbeq	r9, r8, r2, lsl #30
    2858:	00740000 	rsbseq	r0, r4, r0
    285c:	00010000 	andeq	r0, r1, r0
    2860:	00007452 	andeq	r7, r0, r2, asr r4
    2864:	00007800 	andeq	r7, r0, r0, lsl #16
    2868:	72000300 	andvc	r0, r0, #0, 6
    286c:	00009f01 	andeq	r9, r0, r1, lsl #30
	...
    2878:	00000008 	andeq	r0, r0, r8
    287c:	00000078 	andeq	r0, r0, r8, ror r0
    2880:	00540001 	subseq	r0, r4, r1
	...
    2890:	0b000000 	bleq	2898 <__code_start__-0x5768>
    2894:	01000000 	mrseq	r0, (UNDEF: 0)
    2898:	000b5000 	andeq	r5, fp, r0
    289c:	00140000 	andseq	r0, r4, r0
    28a0:	00010000 	andeq	r0, r1, r0
    28a4:	00000054 	andeq	r0, r0, r4, asr r0
	...
    28b4:	00001800 	andeq	r1, r0, r0, lsl #16
    28b8:	51000100 	mrspl	r0, (UNDEF: 16)
    28bc:	00000018 	andeq	r0, r0, r8, lsl r0
    28c0:	0000002c 	andeq	r0, r0, ip, lsr #32
    28c4:	01f30004 	mvnseq	r0, r4
    28c8:	00009f51 	andeq	r9, r0, r1, asr pc
    28cc:	00000000 	andeq	r0, r0, r0
    28d0:	00020000 	andeq	r0, r2, r0
    28d4:	00000000 	andeq	r0, r0, r0
    28d8:	01000000 	mrseq	r0, (UNDEF: 0)
    28dc:	00000001 	andeq	r0, r0, r1
    28e0:	00000000 	andeq	r0, r0, r0
    28e4:	00000004 	andeq	r0, r0, r4
    28e8:	04500001 	ldrbeq	r0, [r0], #-1
    28ec:	08000000 	stmdaeq	r0, {}	; <UNPREDICTABLE>
    28f0:	01000000 	mrseq	r0, (UNDEF: 0)
    28f4:	00085200 	andeq	r5, r8, r0, lsl #4
    28f8:	000c0000 	andeq	r0, ip, r0
    28fc:	00030000 	andeq	r0, r3, r0
    2900:	0c9f0172 	ldfeqs	f0, [pc], {114}	; 0x72
    2904:	18000000 	stmdane	r0, {}	; <UNPREDICTABLE>
    2908:	01000000 	mrseq	r0, (UNDEF: 0)
    290c:	00185200 	andseq	r5, r8, r0, lsl #4
    2910:	001c0000 	andseq	r0, ip, r0
    2914:	00010000 	andeq	r0, r1, r0
    2918:	00001c53 	andeq	r1, r0, r3, asr ip
    291c:	00002400 	andeq	r2, r0, r0, lsl #8
    2920:	73000300 	movwvc	r0, #768	; 0x300
    2924:	00249f01 	eoreq	r9, r4, r1, lsl #30
    2928:	002c0000 	eoreq	r0, ip, r0
    292c:	00010000 	andeq	r0, r1, r0
    2930:	00000053 	andeq	r0, r0, r3, asr r0
    2934:	00000000 	andeq	r0, r0, r0
    2938:	02020300 	andeq	r0, r2, #0, 6
    293c:	00000000 	andeq	r0, r0, r0
    2940:	18000000 	stmdane	r0, {}	; <UNPREDICTABLE>
    2944:	01000000 	mrseq	r0, (UNDEF: 0)
    2948:	00185100 	andseq	r5, r8, r0, lsl #2
    294c:	001c0000 	andseq	r0, ip, r0
    2950:	00030000 	andeq	r0, r3, r0
    2954:	1c9f0171 	ldfnes	f0, [pc], {113}	; 0x71
    2958:	2c000000 	stccs	0, cr0, [r0], {-0}
    295c:	01000000 	mrseq	r0, (UNDEF: 0)
    2960:	00005100 	andeq	r5, r0, r0, lsl #2
	...
    2970:	00000008 	andeq	r0, r0, r8
    2974:	0000000c 	andeq	r0, r0, ip
    2978:	00720002 	rsbseq	r0, r2, r2
    297c:	0000000c 	andeq	r0, r0, ip
    2980:	00000018 	andeq	r0, r0, r8, lsl r0
    2984:	00730002 	rsbseq	r0, r3, r2
    2988:	0000001c 	andeq	r0, r0, ip, lsl r0
    298c:	0000002c 	andeq	r0, r0, ip, lsr #32
    2990:	00520001 	subseq	r0, r2, r1
	...
    29a8:	14000000 	strne	r0, [r0], #-0
    29ac:	01000000 	mrseq	r0, (UNDEF: 0)
    29b0:	00145000 	andseq	r5, r4, r0
    29b4:	00180000 	andseq	r0, r8, r0
    29b8:	00030000 	andeq	r0, r3, r0
    29bc:	189f0170 	ldmne	pc, {r4, r5, r6, r8}	; <UNPREDICTABLE>
    29c0:	20000000 	andcs	r0, r0, r0
    29c4:	01000000 	mrseq	r0, (UNDEF: 0)
    29c8:	00245000 	eoreq	r5, r4, r0
    29cc:	00280000 	eoreq	r0, r8, r0
    29d0:	00010000 	andeq	r0, r1, r0
    29d4:	00002850 	andeq	r2, r0, r0, asr r8
    29d8:	00003000 	andeq	r3, r0, r0
    29dc:	70000300 	andvc	r0, r0, r0, lsl #6
    29e0:	00389f01 	eorseq	r9, r8, r1, lsl #30
    29e4:	00400000 	subeq	r0, r0, r0
    29e8:	00010000 	andeq	r0, r1, r0
    29ec:	00000050 	andeq	r0, r0, r0, asr r0
	...
    29fc:	24000000 	strcs	r0, [r0], #-0
    2a00:	01000000 	mrseq	r0, (UNDEF: 0)
    2a04:	00245100 	eoreq	r5, r4, r0, lsl #2
    2a08:	00280000 	eoreq	r0, r8, r0
    2a0c:	00010000 	andeq	r0, r1, r0
    2a10:	0000285c 	andeq	r2, r0, ip, asr r8
    2a14:	00004400 	andeq	r4, r0, r0, lsl #8
    2a18:	51000100 	mrspl	r0, (UNDEF: 16)
	...
    2a24:	00020200 	andeq	r0, r2, r0, lsl #4
    2a28:	00000000 	andeq	r0, r0, r0
    2a2c:	00040000 	andeq	r0, r4, r0
    2a30:	00010000 	andeq	r0, r1, r0
    2a34:	00000451 	andeq	r0, r0, r1, asr r4
    2a38:	00000800 	andeq	r0, r0, r0, lsl #16
    2a3c:	71000300 	mrsvc	r0, LR_irq
    2a40:	00089f01 	andeq	r9, r8, r1, lsl #30
    2a44:	00180000 	andseq	r0, r8, r0
    2a48:	00010000 	andeq	r0, r1, r0
    2a4c:	00000051 	andeq	r0, r0, r1, asr r0
    2a50:	00000000 	andeq	r0, r0, r0
    2a54:	00000200 	andeq	r0, r0, r0, lsl #4
    2a58:	04000000 	streq	r0, [r0], #-0
    2a5c:	01000000 	mrseq	r0, (UNDEF: 0)
    2a60:	00005000 	andeq	r5, r0, r0
	...
    2a70:	00080000 	andeq	r0, r8, r0
    2a74:	00010000 	andeq	r0, r1, r0
    2a78:	00000850 	andeq	r0, r0, r0, asr r8
    2a7c:	00003000 	andeq	r3, r0, r0
    2a80:	f3000400 	vshl.u8	d0, d0, d0
    2a84:	009f5001 	addseq	r5, pc, r1
	...
    2a94:	08000000 	stmdaeq	r0, {}	; <UNPREDICTABLE>
    2a98:	01000000 	mrseq	r0, (UNDEF: 0)
    2a9c:	00085100 	andeq	r5, r8, r0, lsl #2
    2aa0:	00300000 	eorseq	r0, r0, r0
    2aa4:	00040000 	andeq	r0, r4, r0
    2aa8:	9f5101f3 	svcls	0x005101f3
	...
    2ab8:	02010000 	andeq	r0, r1, #0, 0
    2abc:	00000002 	andeq	r0, r0, r2
    2ac0:	00040000 	andeq	r0, r4, r0
    2ac4:	00010000 	andeq	r0, r1, r0
    2ac8:	00000452 	andeq	r0, r0, r2, asr r4
    2acc:	00000800 	andeq	r0, r0, r0, lsl #16
    2ad0:	f3000400 	vshl.u8	d0, d0, d0
    2ad4:	089f5201 	ldmeq	pc, {r0, r9, ip, lr}	; <UNPREDICTABLE>
    2ad8:	18000000 	stmdane	r0, {}	; <UNPREDICTABLE>
    2adc:	06000000 	streq	r0, [r0], -r0
    2ae0:	5201f300 	andpl	pc, r1, #0, 6
    2ae4:	189f1c31 	ldmne	pc, {r0, r4, r5, sl, fp, ip}	; <UNPREDICTABLE>
    2ae8:	18000000 	stmdane	r0, {}	; <UNPREDICTABLE>
    2aec:	04000000 	streq	r0, [r0], #-0
    2af0:	5201f300 	andpl	pc, r1, #0, 6
    2af4:	0000189f 	muleq	r0, pc, r8	; <UNPREDICTABLE>
    2af8:	00003000 	andeq	r3, r0, r0
    2afc:	f3000600 	vmax.u8	d0, d0, d0
    2b00:	1c315201 	lfmne	f5, 4, [r1], #-4
    2b04:	0000009f 	muleq	r0, pc, r0	; <UNPREDICTABLE>
    2b08:	00000000 	andeq	r0, r0, r0
    2b0c:	00000200 	andeq	r0, r0, r0, lsl #4
    2b10:	00000100 	andeq	r0, r0, r0, lsl #2
    2b14:	00000000 	andeq	r0, r0, r0
    2b18:	00000c00 	andeq	r0, r0, r0, lsl #24
    2b1c:	50000100 	andpl	r0, r0, r0, lsl #2
    2b20:	0000000c 	andeq	r0, r0, ip
    2b24:	00000018 	andeq	r0, r0, r8, lsl r0
    2b28:	7f700003 	svcvc	0x00700003
    2b2c:	0000189f 	muleq	r0, pc, r8	; <UNPREDICTABLE>
    2b30:	00002400 	andeq	r2, r0, r0, lsl #8
    2b34:	50000100 	andpl	r0, r0, r0, lsl #2
    2b38:	00000028 	andeq	r0, r0, r8, lsr #32
    2b3c:	0000002c 	andeq	r0, r0, ip, lsr #32
    2b40:	7f700003 	svcvc	0x00700003
    2b44:	0000009f 	muleq	r0, pc, r0	; <UNPREDICTABLE>
    2b48:	00000000 	andeq	r0, r0, r0
    2b4c:	00000200 	andeq	r0, r0, r0, lsl #4
    2b50:	00000000 	andeq	r0, r0, r0
    2b54:	0c000000 	stceq	0, cr0, [r0], {-0}
    2b58:	01000000 	mrseq	r0, (UNDEF: 0)
    2b5c:	000c5100 	andeq	r5, ip, r0, lsl #2
    2b60:	00100000 	andseq	r0, r0, r0
    2b64:	00030000 	andeq	r0, r3, r0
    2b68:	109f0171 	addsne	r0, pc, r1, ror r1	; <UNPREDICTABLE>
    2b6c:	30000000 	andcc	r0, r0, r0
    2b70:	01000000 	mrseq	r0, (UNDEF: 0)
    2b74:	00005100 	andeq	r5, r0, r0, lsl #2
    2b78:	00000000 	andeq	r0, r0, r0
	...

Disassembly of section .debug_ranges:

00000000 <.debug_ranges>:
   0:	000000a4 	andeq	r0, r0, r4, lsr #1
   4:	00000148 	andeq	r0, r0, r8, asr #2
   8:	00000158 	andeq	r0, r0, r8, asr r1
   c:	0000015c 	andeq	r0, r0, ip, asr r1
  10:	00000274 	andeq	r0, r0, r4, ror r2
  14:	00000278 	andeq	r0, r0, r8, ror r2
  18:	0000027c 	andeq	r0, r0, ip, ror r2
  1c:	00000280 	andeq	r0, r0, r0, lsl #5
  20:	00000288 	andeq	r0, r0, r8, lsl #5
  24:	0000029c 	muleq	r0, ip, r2
  28:	000002c0 	andeq	r0, r0, r0, asr #5
  2c:	000002cc 	andeq	r0, r0, ip, asr #5
  30:	000002f0 	strdeq	r0, [r0], -r0	; <UNPREDICTABLE>
  34:	000002f0 	strdeq	r0, [r0], -r0	; <UNPREDICTABLE>
  38:	000002f4 	strdeq	r0, [r0], -r4
  3c:	000002f8 	strdeq	r0, [r0], -r8
	...
  48:	00000148 	andeq	r0, r0, r8, asr #2
  4c:	00000158 	andeq	r0, r0, r8, asr r1
  50:	0000015c 	andeq	r0, r0, ip, asr r1
  54:	0000018c 	andeq	r0, r0, ip, lsl #3
  58:	0000029c 	muleq	r0, ip, r2
  5c:	000002ac 	andeq	r0, r0, ip, lsr #5
	...
  68:	000003c8 	andeq	r0, r0, r8, asr #7
  6c:	000003d0 	ldrdeq	r0, [r0], -r0	; <UNPREDICTABLE>
  70:	00000404 	andeq	r0, r0, r4, lsl #8
  74:	000004ac 	andeq	r0, r0, ip, lsr #9
  78:	000004c0 	andeq	r0, r0, r0, asr #9
  7c:	00000920 	andeq	r0, r0, r0, lsr #18
  80:	00000928 	andeq	r0, r0, r8, lsr #18
  84:	000009b4 			; <UNDEFINED> instruction: 0x000009b4
	...
  90:	000003c8 	andeq	r0, r0, r8, asr #7
  94:	000003d0 	ldrdeq	r0, [r0], -r0	; <UNPREDICTABLE>
  98:	00000504 	andeq	r0, r0, r4, lsl #10
  9c:	000005d0 	ldrdeq	r0, [r0], -r0	; <UNPREDICTABLE>
  a0:	00000800 	andeq	r0, r0, r0, lsl #16
  a4:	00000888 	andeq	r0, r0, r8, lsl #17
  a8:	00000930 	andeq	r0, r0, r0, lsr r9
  ac:	000009b4 			; <UNDEFINED> instruction: 0x000009b4
	...
  b8:	00000404 	andeq	r0, r0, r4, lsl #8
  bc:	00000408 	andeq	r0, r0, r8, lsl #8
  c0:	00000414 	andeq	r0, r0, r4, lsl r4
  c4:	00000414 	andeq	r0, r0, r4, lsl r4
  c8:	00000428 	andeq	r0, r0, r8, lsr #8
  cc:	0000042c 	andeq	r0, r0, ip, lsr #8
	...
  d8:	000005fc 	strdeq	r0, [r0], -ip
  dc:	00000700 	andeq	r0, r0, r0, lsl #14
  e0:	000007ec 	andeq	r0, r0, ip, ror #15
  e4:	000007f4 	strdeq	r0, [r0], -r4
  e8:	00000888 	andeq	r0, r0, r8, lsl #17
  ec:	00000894 	muleq	r0, r4, r8
  f0:	000008a8 	andeq	r0, r0, r8, lsr #17
  f4:	000008bc 			; <UNDEFINED> instruction: 0x000008bc
  f8:	00000910 	andeq	r0, r0, r0, lsl r9
  fc:	00000920 	andeq	r0, r0, r0, lsr #18
	...
 108:	00000600 	andeq	r0, r0, r0, lsl #12
 10c:	00000604 	andeq	r0, r0, r4, lsl #12
 110:	00000608 	andeq	r0, r0, r8, lsl #12
 114:	000006b4 			; <UNDEFINED> instruction: 0x000006b4
 118:	000006cc 	andeq	r0, r0, ip, asr #13
 11c:	000006d0 	ldrdeq	r0, [r0], -r0	; <UNPREDICTABLE>
 120:	000008a8 	andeq	r0, r0, r8, lsr #17
 124:	000008b8 			; <UNDEFINED> instruction: 0x000008b8
 128:	00000910 	andeq	r0, r0, r0, lsl r9
 12c:	00000920 	andeq	r0, r0, r0, lsr #18
	...
 138:	000006b4 			; <UNDEFINED> instruction: 0x000006b4
 13c:	000006cc 	andeq	r0, r0, ip, asr #13
 140:	000006d0 	ldrdeq	r0, [r0], -r0	; <UNPREDICTABLE>
 144:	00000700 	andeq	r0, r0, r0, lsl #14
 148:	000007ec 	andeq	r0, r0, ip, ror #15
 14c:	000007f4 	strdeq	r0, [r0], -r4
 150:	00000888 	andeq	r0, r0, r8, lsl #17
 154:	00000894 	muleq	r0, r4, r8
 158:	000008b8 			; <UNDEFINED> instruction: 0x000008b8
 15c:	000008bc 			; <UNDEFINED> instruction: 0x000008bc
	...
 168:	00000700 	andeq	r0, r0, r0, lsl #14
 16c:	00000708 	andeq	r0, r0, r8, lsl #14
 170:	0000070c 	andeq	r0, r0, ip, lsl #14
 174:	000007ec 	andeq	r0, r0, ip, ror #15
 178:	00000894 	muleq	r0, r4, r8
 17c:	000008a8 	andeq	r0, r0, r8, lsr #17
	...
 188:	00000728 	andeq	r0, r0, r8, lsr #14
 18c:	000007a4 	andeq	r0, r0, r4, lsr #15
 190:	000007ac 	andeq	r0, r0, ip, lsr #15
 194:	000007b0 			; <UNDEFINED> instruction: 0x000007b0
 198:	00000894 	muleq	r0, r4, r8
 19c:	00000898 	muleq	r0, r8, r8
 1a0:	0000089c 	muleq	r0, ip, r8
 1a4:	000008a0 	andeq	r0, r0, r0, lsr #17
	...
 1b0:	000007a4 	andeq	r0, r0, r4, lsr #15
 1b4:	000007ac 	andeq	r0, r0, ip, lsr #15
 1b8:	000007b0 			; <UNDEFINED> instruction: 0x000007b0
 1bc:	000007ec 	andeq	r0, r0, ip, ror #15
 1c0:	00000898 	muleq	r0, r8, r8
 1c4:	0000089c 	muleq	r0, ip, r8
 1c8:	000008a0 	andeq	r0, r0, r0, lsr #17
 1cc:	000008a8 	andeq	r0, r0, r8, lsr #17
	...
 1d8:	00008dc4 	andeq	r8, r0, r4, asr #27
 1dc:	00008dc4 	andeq	r8, r0, r4, asr #27
 1e0:	00008dc8 	andeq	r8, r0, r8, asr #27
 1e4:	00008dd0 	ldrdeq	r8, [r0], -r0
	...
 1f0:	00008d98 	muleq	r0, r8, sp
 1f4:	00008e24 	andeq	r8, r0, r4, lsr #28
	...
 200:	00000030 	andeq	r0, r0, r0, lsr r0
 204:	00000030 	andeq	r0, r0, r0, lsr r0
 208:	00000038 	andeq	r0, r0, r8, lsr r0
 20c:	0000004c 	andeq	r0, r0, ip, asr #32
	...
 218:	0000004c 	andeq	r0, r0, ip, asr #32
 21c:	00000050 	andeq	r0, r0, r0, asr r0
 220:	00000050 	andeq	r0, r0, r0, asr r0
 224:	00000078 	andeq	r0, r0, r8, ror r0
	...
 230:	0000004c 	andeq	r0, r0, ip, asr #32
 234:	00000050 	andeq	r0, r0, r0, asr r0
 238:	00000050 	andeq	r0, r0, r0, asr r0
 23c:	00000060 	andeq	r0, r0, r0, rrx
 240:	00000064 	andeq	r0, r0, r4, rrx
 244:	00000068 	andeq	r0, r0, r8, rrx
	...
 250:	0000004c 	andeq	r0, r0, ip, asr #32
 254:	00000050 	andeq	r0, r0, r0, asr r0
 258:	00000054 	andeq	r0, r0, r4, asr r0
 25c:	00000060 	andeq	r0, r0, r0, rrx
	...
 268:	0000009c 	muleq	r0, ip, r0
 26c:	000000a0 	andeq	r0, r0, r0, lsr #1
 270:	000000a0 	andeq	r0, r0, r0, lsr #1
 274:	000000c8 	andeq	r0, r0, r8, asr #1
	...
 280:	0000009c 	muleq	r0, ip, r0
 284:	000000a0 	andeq	r0, r0, r0, lsr #1
 288:	000000a0 	andeq	r0, r0, r0, lsr #1
 28c:	000000b0 	strheq	r0, [r0], -r0	; <UNPREDICTABLE>
 290:	000000b4 	strheq	r0, [r0], -r4
 294:	000000b8 	strheq	r0, [r0], -r8
	...
 2a0:	0000009c 	muleq	r0, ip, r0
 2a4:	000000a0 	andeq	r0, r0, r0, lsr #1
 2a8:	000000a4 	andeq	r0, r0, r4, lsr #1
 2ac:	000000b0 	strheq	r0, [r0], -r0	; <UNPREDICTABLE>
	...
 2b8:	000000c8 	andeq	r0, r0, r8, asr #1
 2bc:	000000c8 	andeq	r0, r0, r8, asr #1
 2c0:	000000cc 	andeq	r0, r0, ip, asr #1
 2c4:	0000011c 	andeq	r0, r0, ip, lsl r1
	...
 2d0:	000000f0 	strdeq	r0, [r0], -r0	; <UNPREDICTABLE>
 2d4:	000000f4 	strdeq	r0, [r0], -r4
 2d8:	000000f4 	strdeq	r0, [r0], -r4
 2dc:	0000011c 	andeq	r0, r0, ip, lsl r1
	...
 2e8:	000000f0 	strdeq	r0, [r0], -r0	; <UNPREDICTABLE>
 2ec:	000000f4 	strdeq	r0, [r0], -r4
 2f0:	000000f4 	strdeq	r0, [r0], -r4
 2f4:	00000104 	andeq	r0, r0, r4, lsl #2
 2f8:	00000108 	andeq	r0, r0, r8, lsl #2
 2fc:	0000010c 	andeq	r0, r0, ip, lsl #2
	...
 308:	000000f0 	strdeq	r0, [r0], -r0	; <UNPREDICTABLE>
 30c:	000000f4 	strdeq	r0, [r0], -r4
 310:	000000f8 	strdeq	r0, [r0], -r8
 314:	00000104 	andeq	r0, r0, r4, lsl #2
	...
 320:	00000134 	andeq	r0, r0, r4, lsr r1
 324:	00000134 	andeq	r0, r0, r4, lsr r1
 328:	00000134 	andeq	r0, r0, r4, lsr r1
 32c:	0000013c 	andeq	r0, r0, ip, lsr r1
	...
 338:	0000024c 	andeq	r0, r0, ip, asr #4
 33c:	00000264 	andeq	r0, r0, r4, ror #4
 340:	000002c8 	andeq	r0, r0, r8, asr #5
 344:	000002e8 	andeq	r0, r0, r8, ror #5
	...
 350:	00000008 	andeq	r0, r0, r8
 354:	0000000c 	andeq	r0, r0, ip
 358:	00000014 	andeq	r0, r0, r4, lsl r0
 35c:	00000054 	andeq	r0, r0, r4, asr r0
 360:	00000058 	andeq	r0, r0, r8, asr r0
 364:	00000060 	andeq	r0, r0, r0, rrx
	...
 370:	00000060 	andeq	r0, r0, r0, rrx
 374:	00000068 	andeq	r0, r0, r8, rrx
 378:	0000006c 	andeq	r0, r0, ip, rrx
 37c:	000000ac 	andeq	r0, r0, ip, lsr #1
 380:	000000b0 	strheq	r0, [r0], -r0	; <UNPREDICTABLE>
 384:	000000b8 	strheq	r0, [r0], -r8
	...
 390:	00000068 	andeq	r0, r0, r8, rrx
 394:	00000068 	andeq	r0, r0, r8, rrx
 398:	0000006c 	andeq	r0, r0, ip, rrx
 39c:	000000ac 	andeq	r0, r0, ip, lsr #1
 3a0:	000000b0 	strheq	r0, [r0], -r0	; <UNPREDICTABLE>
 3a4:	000000b8 	strheq	r0, [r0], -r8
	...
 3b0:	000000e8 	andeq	r0, r0, r8, ror #1
 3b4:	000000f0 	strdeq	r0, [r0], -r0	; <UNPREDICTABLE>
 3b8:	000000f4 	strdeq	r0, [r0], -r4
 3bc:	00000134 	andeq	r0, r0, r4, lsr r1
 3c0:	00000138 	andeq	r0, r0, r8, lsr r1
 3c4:	00000140 	andeq	r0, r0, r0, asr #2
	...
 3d0:	000000f0 	strdeq	r0, [r0], -r0	; <UNPREDICTABLE>
 3d4:	000000f0 	strdeq	r0, [r0], -r0	; <UNPREDICTABLE>
 3d8:	000000f4 	strdeq	r0, [r0], -r4
 3dc:	00000134 	andeq	r0, r0, r4, lsr r1
 3e0:	00000138 	andeq	r0, r0, r8, lsr r1
 3e4:	00000140 	andeq	r0, r0, r0, asr #2
	...
 3f0:	00000144 	andeq	r0, r0, r4, asr #2
 3f4:	00000148 	andeq	r0, r0, r8, asr #2
 3f8:	00000150 	andeq	r0, r0, r0, asr r1
 3fc:	0000015c 	andeq	r0, r0, ip, asr r1
	...
