
3-ckalloc.elf:     file format elf32-littlearm


Disassembly of section .text:

00008000 <__code_start__>:
    8000:	e3a00013 	mov	r0, #19, 0
    8004:	e3800080 	orr	r0, r0, #128, 0	; 0x80
    8008:	e129f000 	msr	CPSR_fc, r0
    800c:	e3a01000 	mov	r1, #0, 0
    8010:	ee071f95 	mcr	15, 0, r1, cr7, cr5, {4}
    8014:	e3a0d302 	mov	sp, #134217728	; 0x8000000
    8018:	e3a0b000 	mov	fp, #0, 0
    801c:	eb000403 	bl	9030 <_cstart>
    8020:	eb00044c 	bl	9158 <rpi_reboot>

00008024 <PUT32>:
    8024:	e5801000 	str	r1, [r0]
    8028:	e12fff1e 	bx	lr

0000802c <GET32>:
    802c:	e5900000 	ldr	r0, [r0]
    8030:	e12fff1e 	bx	lr

00008034 <BRANCHTO>:
    8034:	e12fff10 	bx	r0

00008038 <notmain>:
    8038:	e92d4030 	push	{r4, r5, lr}
    803c:	e24dd01c 	sub	sp, sp, #28, 0
    8040:	e59f5044 	ldr	r5, [pc, #68]	; 808c <notmain+0x54>
    8044:	e58d5000 	str	r5, [sp]
    8048:	e59f4040 	ldr	r4, [pc, #64]	; 8090 <notmain+0x58>
    804c:	e58d4004 	str	r4, [sp, #4]
    8050:	e3a03007 	mov	r3, #7, 0
    8054:	e58d3008 	str	r3, [sp, #8]
    8058:	e1a0300d 	mov	r3, sp
    805c:	e893000e 	ldm	r3, {r1, r2, r3}
    8060:	e3a00004 	mov	r0, #4, 0
    8064:	eb000113 	bl	84b8 <ckalloc>
    8068:	e58d500c 	str	r5, [sp, #12]
    806c:	e58d4010 	str	r4, [sp, #16]
    8070:	e3a03008 	mov	r3, #8, 0
    8074:	e58d3014 	str	r3, [sp, #20]
    8078:	e28d3018 	add	r3, sp, #24, 0
    807c:	e913000e 	ldmdb	r3, {r1, r2, r3}
    8080:	eb0000d1 	bl	83cc <ckfree>
    8084:	e28dd01c 	add	sp, sp, #28, 0
    8088:	e8bd8030 	pop	{r4, r5, pc}
    808c:	00009b20 	andeq	r9, r0, r0, lsr #22
    8090:	00009b2c 	andeq	r9, r0, ip, lsr #22

00008094 <kr_free>:
    8094:	e52de004 	push	{lr}		; (str lr, [sp, #-4]!)
    8098:	e2401008 	sub	r1, r0, #8, 0
    809c:	e59f30a8 	ldr	r3, [pc, #168]	; 814c <kr_free+0xb8>
    80a0:	e5933000 	ldr	r3, [r3]
    80a4:	ea000000 	b	80ac <kr_free+0x18>
    80a8:	e1a03002 	mov	r3, r2
    80ac:	e1530001 	cmp	r3, r1
    80b0:	2a000002 	bcs	80c0 <kr_free+0x2c>
    80b4:	e5932000 	ldr	r2, [r3]
    80b8:	e1520001 	cmp	r2, r1
    80bc:	8a000007 	bhi	80e0 <kr_free+0x4c>
    80c0:	e5932000 	ldr	r2, [r3]
    80c4:	e1520003 	cmp	r2, r3
    80c8:	8afffff6 	bhi	80a8 <kr_free+0x14>
    80cc:	e1530001 	cmp	r3, r1
    80d0:	3a000002 	bcc	80e0 <kr_free+0x4c>
    80d4:	e1520001 	cmp	r2, r1
    80d8:	91a03002 	movls	r3, r2
    80dc:	9afffff2 	bls	80ac <kr_free+0x18>
    80e0:	e510c004 	ldr	ip, [r0, #-4]
    80e4:	e081e18c 	add	lr, r1, ip, lsl #3
    80e8:	e5932000 	ldr	r2, [r3]
    80ec:	e15e0002 	cmp	lr, r2
    80f0:	0a000008 	beq	8118 <kr_free+0x84>
    80f4:	e5002008 	str	r2, [r0, #-8]
    80f8:	e5932004 	ldr	r2, [r3, #4]
    80fc:	e083c182 	add	ip, r3, r2, lsl #3
    8100:	e15c0001 	cmp	ip, r1
    8104:	0a00000a 	beq	8134 <kr_free+0xa0>
    8108:	e5831000 	str	r1, [r3]
    810c:	e59f2038 	ldr	r2, [pc, #56]	; 814c <kr_free+0xb8>
    8110:	e5823000 	str	r3, [r2]
    8114:	e49df004 	pop	{pc}		; (ldr pc, [sp], #4)
    8118:	e5922004 	ldr	r2, [r2, #4]
    811c:	e08cc002 	add	ip, ip, r2
    8120:	e500c004 	str	ip, [r0, #-4]
    8124:	e5932000 	ldr	r2, [r3]
    8128:	e5922000 	ldr	r2, [r2]
    812c:	e5002008 	str	r2, [r0, #-8]
    8130:	eafffff0 	b	80f8 <kr_free+0x64>
    8134:	e5101004 	ldr	r1, [r0, #-4]
    8138:	e0822001 	add	r2, r2, r1
    813c:	e5832004 	str	r2, [r3, #4]
    8140:	e5102008 	ldr	r2, [r0, #-8]
    8144:	e5832000 	str	r2, [r3]
    8148:	eaffffef 	b	810c <kr_free+0x78>
    814c:	00009fb0 			; <UNDEFINED> instruction: 0x00009fb0

00008150 <morecore>:
    8150:	e92d4010 	push	{r4, lr}
    8154:	e1a04000 	mov	r4, r0
    8158:	e3500b01 	cmp	r0, #1024	; 0x400
    815c:	33a04b01 	movcc	r4, #1024	; 0x400
    8160:	e1a00184 	lsl	r0, r4, #3
    8164:	eb000035 	bl	8240 <sbrk>
    8168:	e3700001 	cmn	r0, #1, 0
    816c:	0a000005 	beq	8188 <morecore+0x38>
    8170:	e5804004 	str	r4, [r0, #4]
    8174:	e2800008 	add	r0, r0, #8, 0
    8178:	ebffffc5 	bl	8094 <kr_free>
    817c:	e59f300c 	ldr	r3, [pc, #12]	; 8190 <morecore+0x40>
    8180:	e5930000 	ldr	r0, [r3]
    8184:	e8bd8010 	pop	{r4, pc}
    8188:	e3a00000 	mov	r0, #0, 0
    818c:	e8bd8010 	pop	{r4, pc}
    8190:	00009fb0 			; <UNDEFINED> instruction: 0x00009fb0

00008194 <kr_malloc>:
    8194:	e92d4010 	push	{r4, lr}
    8198:	e2804007 	add	r4, r0, #7, 0
    819c:	e1a041a4 	lsr	r4, r4, #3
    81a0:	e2844001 	add	r4, r4, #1, 0
    81a4:	e59f3090 	ldr	r3, [pc, #144]	; 823c <kr_malloc+0xa8>
    81a8:	e5932000 	ldr	r2, [r3]
    81ac:	e3520000 	cmp	r2, #0, 0
    81b0:	0a000001 	beq	81bc <kr_malloc+0x28>
    81b4:	e5920000 	ldr	r0, [r2]
    81b8:	ea000013 	b	820c <kr_malloc+0x78>
    81bc:	e2832008 	add	r2, r3, #8, 0
    81c0:	e5832000 	str	r2, [r3]
    81c4:	e5832008 	str	r2, [r3, #8]
    81c8:	e3a01000 	mov	r1, #0, 0
    81cc:	e583100c 	str	r1, [r3, #12]
    81d0:	eafffff7 	b	81b4 <kr_malloc+0x20>
    81d4:	0a000007 	beq	81f8 <kr_malloc+0x64>
    81d8:	e0433004 	sub	r3, r3, r4
    81dc:	e5803004 	str	r3, [r0, #4]
    81e0:	e0800183 	add	r0, r0, r3, lsl #3
    81e4:	e5804004 	str	r4, [r0, #4]
    81e8:	e59f304c 	ldr	r3, [pc, #76]	; 823c <kr_malloc+0xa8>
    81ec:	e5832000 	str	r2, [r3]
    81f0:	e2800008 	add	r0, r0, #8, 0
    81f4:	e8bd8010 	pop	{r4, pc}
    81f8:	e5903000 	ldr	r3, [r0]
    81fc:	e5823000 	str	r3, [r2]
    8200:	eafffff8 	b	81e8 <kr_malloc+0x54>
    8204:	e1a02000 	mov	r2, r0
    8208:	e5900000 	ldr	r0, [r0]
    820c:	e5903004 	ldr	r3, [r0, #4]
    8210:	e1530004 	cmp	r3, r4
    8214:	2affffee 	bcs	81d4 <kr_malloc+0x40>
    8218:	e59f301c 	ldr	r3, [pc, #28]	; 823c <kr_malloc+0xa8>
    821c:	e5933000 	ldr	r3, [r3]
    8220:	e1530000 	cmp	r3, r0
    8224:	1afffff6 	bne	8204 <kr_malloc+0x70>
    8228:	e1a00004 	mov	r0, r4
    822c:	ebffffc7 	bl	8150 <morecore>
    8230:	e3500000 	cmp	r0, #0, 0
    8234:	1afffff2 	bne	8204 <kr_malloc+0x70>
    8238:	e8bd8010 	pop	{r4, pc}
    823c:	00009fb0 			; <UNDEFINED> instruction: 0x00009fb0

00008240 <sbrk>:
    8240:	e92d4010 	push	{r4, lr}
    8244:	eb00050d 	bl	9680 <kmalloc>
    8248:	e8bd8010 	pop	{r4, pc}

0000824c <ck_first_hdr>:
    824c:	e59f3004 	ldr	r3, [pc, #4]	; 8258 <ck_first_hdr+0xc>
    8250:	e5930000 	ldr	r0, [r3]
    8254:	e12fff1e 	bx	lr
    8258:	00009fc0 	andeq	r9, r0, r0, asr #31

0000825c <ck_next_hdr>:
    825c:	e3500000 	cmp	r0, #0, 0
    8260:	012fff1e 	bxeq	lr
    8264:	e5900000 	ldr	r0, [r0]
    8268:	e12fff1e 	bx	lr

0000826c <list_remove>:
    826c:	e92d4030 	push	{r4, r5, lr}
    8270:	e24dd00c 	sub	sp, sp, #12, 0
    8274:	e2503000 	subs	r3, r0, #0, 0
    8278:	0a00000d 	beq	82b4 <list_remove+0x48>
    827c:	e1a04001 	mov	r4, r1
    8280:	e5930000 	ldr	r0, [r3]
    8284:	e1500001 	cmp	r0, r1
    8288:	0a000011 	beq	82d4 <list_remove+0x68>
    828c:	e1a05000 	mov	r5, r0
    8290:	ebfffff1 	bl	825c <ck_next_hdr>
    8294:	e3500000 	cmp	r0, #0, 0
    8298:	0a000010 	beq	82e0 <list_remove+0x74>
    829c:	e1540000 	cmp	r4, r0
    82a0:	1afffff9 	bne	828c <list_remove+0x20>
    82a4:	e5903000 	ldr	r3, [r0]
    82a8:	e5853000 	str	r3, [r5]
    82ac:	e28dd00c 	add	sp, sp, #12, 0
    82b0:	e8bd8030 	pop	{r4, r5, pc}
    82b4:	e59f3040 	ldr	r3, [pc, #64]	; 82fc <list_remove+0x90>
    82b8:	e58d3000 	str	r3, [sp]
    82bc:	e3a0303d 	mov	r3, #61, 0	; 0x3d
    82c0:	e59f2038 	ldr	r2, [pc, #56]	; 8300 <list_remove+0x94>
    82c4:	e59f1038 	ldr	r1, [pc, #56]	; 8304 <list_remove+0x98>
    82c8:	e59f0038 	ldr	r0, [pc, #56]	; 8308 <list_remove+0x9c>
    82cc:	eb0000bb 	bl	85c0 <printk>
    82d0:	eb00034b 	bl	9004 <clean_reboot>
    82d4:	e5912000 	ldr	r2, [r1]
    82d8:	e5832000 	str	r2, [r3]
    82dc:	eafffff2 	b	82ac <list_remove+0x40>
    82e0:	e58d4000 	str	r4, [sp]
    82e4:	e3a03050 	mov	r3, #80, 0	; 0x50
    82e8:	e59f2010 	ldr	r2, [pc, #16]	; 8300 <list_remove+0x94>
    82ec:	e59f1010 	ldr	r1, [pc, #16]	; 8304 <list_remove+0x98>
    82f0:	e59f0014 	ldr	r0, [pc, #20]	; 830c <list_remove+0xa0>
    82f4:	eb0000b1 	bl	85c0 <printk>
    82f8:	eb000341 	bl	9004 <clean_reboot>
    82fc:	00009b54 	andeq	r9, r0, r4, asr fp
    8300:	00009c18 	andeq	r9, r0, r8, lsl ip
    8304:	00009b34 	andeq	r9, r0, r4, lsr fp
    8308:	00009b40 	andeq	r9, r0, r0, asr #22
    830c:	00009b58 	andeq	r9, r0, r8, asr fp

00008310 <ck_hdr_start>:
    8310:	e2800024 	add	r0, r0, #36, 0	; 0x24
    8314:	e12fff1e 	bx	lr

00008318 <ck_hdr_end>:
    8318:	e92d4010 	push	{r4, lr}
    831c:	e1a04000 	mov	r4, r0
    8320:	ebfffffa 	bl	8310 <ck_hdr_start>
    8324:	e5943004 	ldr	r3, [r4, #4]
    8328:	e0800003 	add	r0, r0, r3
    832c:	e8bd8010 	pop	{r4, pc}

00008330 <ck_ptr_in_block>:
    8330:	e1510000 	cmp	r1, r0
    8334:	3a000008 	bcc	835c <ck_ptr_in_block+0x2c>
    8338:	e5903004 	ldr	r3, [r0, #4]
    833c:	e0833183 	add	r3, r3, r3, lsl #3
    8340:	e1a03103 	lsl	r3, r3, #2
    8344:	e2833090 	add	r3, r3, #144, 0	; 0x90
    8348:	e0800003 	add	r0, r0, r3
    834c:	e1500001 	cmp	r0, r1
    8350:	2a000003 	bcs	8364 <ck_ptr_in_block+0x34>
    8354:	e3a00000 	mov	r0, #0, 0
    8358:	e12fff1e 	bx	lr
    835c:	e3a00000 	mov	r0, #0, 0
    8360:	e12fff1e 	bx	lr
    8364:	e3a00001 	mov	r0, #1, 0
    8368:	e12fff1e 	bx	lr

0000836c <ck_ptr_is_alloced>:
    836c:	e92d4070 	push	{r4, r5, r6, lr}
    8370:	e1a05000 	mov	r5, r0
    8374:	ebffffb4 	bl	824c <ck_first_hdr>
    8378:	e1a04000 	mov	r4, r0
    837c:	e3540000 	cmp	r4, #0, 0
    8380:	0a00000e 	beq	83c0 <ck_ptr_is_alloced+0x54>
    8384:	e1a01005 	mov	r1, r5
    8388:	e1a00004 	mov	r0, r4
    838c:	ebffffe7 	bl	8330 <ck_ptr_in_block>
    8390:	e3500000 	cmp	r0, #0, 0
    8394:	1a000003 	bne	83a8 <ck_ptr_is_alloced+0x3c>
    8398:	e1a00004 	mov	r0, r4
    839c:	ebffffae 	bl	825c <ck_next_hdr>
    83a0:	e1a04000 	mov	r4, r0
    83a4:	eafffff4 	b	837c <ck_ptr_is_alloced+0x10>
    83a8:	e1a02004 	mov	r2, r4
    83ac:	e1a01005 	mov	r1, r5
    83b0:	e59f0010 	ldr	r0, [pc, #16]	; 83c8 <ck_ptr_is_alloced+0x5c>
    83b4:	eb000081 	bl	85c0 <printk>
    83b8:	e3a00001 	mov	r0, #1, 0
    83bc:	e8bd8070 	pop	{r4, r5, r6, pc}
    83c0:	e3a00000 	mov	r0, #0, 0
    83c4:	e8bd8070 	pop	{r4, r5, r6, pc}
    83c8:	00009b84 	andeq	r9, r0, r4, lsl #23

000083cc <ckfree>:
    83cc:	e92d41f0 	push	{r4, r5, r6, r7, r8, lr}
    83d0:	e24dd018 	sub	sp, sp, #24, 0
    83d4:	e1a04000 	mov	r4, r0
    83d8:	e28d0018 	add	r0, sp, #24, 0
    83dc:	e900000e 	stmdb	r0, {r1, r2, r3}
    83e0:	e59d600c 	ldr	r6, [sp, #12]
    83e4:	e59d7010 	ldr	r7, [sp, #16]
    83e8:	e59d8014 	ldr	r8, [sp, #20]
    83ec:	e1a03008 	mov	r3, r8
    83f0:	e1a02007 	mov	r2, r7
    83f4:	e1a01006 	mov	r1, r6
    83f8:	e59f0094 	ldr	r0, [pc, #148]	; 8494 <ckfree+0xc8>
    83fc:	eb00006f 	bl	85c0 <printk>
    8400:	e1a01004 	mov	r1, r4
    8404:	e59f008c 	ldr	r0, [pc, #140]	; 8498 <ckfree+0xcc>
    8408:	eb00006c 	bl	85c0 <printk>
    840c:	e514301c 	ldr	r3, [r4, #-28]	; 0xffffffe4
    8410:	e353000b 	cmp	r3, #11, 0
    8414:	1a00000d 	bne	8450 <ckfree+0x84>
    8418:	e2445024 	sub	r5, r4, #36, 0	; 0x24
    841c:	e3a0300c 	mov	r3, #12, 0
    8420:	e504301c 	str	r3, [r4, #-28]	; 0xffffffe4
    8424:	e1a00004 	mov	r0, r4
    8428:	ebffffcf 	bl	836c <ck_ptr_is_alloced>
    842c:	e3500000 	cmp	r0, #0, 0
    8430:	0a00000f 	beq	8474 <ckfree+0xa8>
    8434:	e1a01005 	mov	r1, r5
    8438:	e59f005c 	ldr	r0, [pc, #92]	; 849c <ckfree+0xd0>
    843c:	ebffff8a 	bl	826c <list_remove>
    8440:	e1a00005 	mov	r0, r5
    8444:	ebffff12 	bl	8094 <kr_free>
    8448:	e28dd018 	add	sp, sp, #24, 0
    844c:	e8bd81f0 	pop	{r4, r5, r6, r7, r8, pc}
    8450:	e1a03008 	mov	r3, r8
    8454:	e1a02007 	mov	r2, r7
    8458:	e1a01006 	mov	r1, r6
    845c:	e59f003c 	ldr	r0, [pc, #60]	; 84a0 <ckfree+0xd4>
    8460:	eb000056 	bl	85c0 <printk>
    8464:	e514101c 	ldr	r1, [r4, #-28]	; 0xffffffe4
    8468:	e59f0034 	ldr	r0, [pc, #52]	; 84a4 <ckfree+0xd8>
    846c:	eb000053 	bl	85c0 <printk>
    8470:	eb0002e3 	bl	9004 <clean_reboot>
    8474:	e59f302c 	ldr	r3, [pc, #44]	; 84a8 <ckfree+0xdc>
    8478:	e58d3000 	str	r3, [sp]
    847c:	e3a0305e 	mov	r3, #94, 0	; 0x5e
    8480:	e59f2024 	ldr	r2, [pc, #36]	; 84ac <ckfree+0xe0>
    8484:	e59f1024 	ldr	r1, [pc, #36]	; 84b0 <ckfree+0xe4>
    8488:	e59f0024 	ldr	r0, [pc, #36]	; 84b4 <ckfree+0xe8>
    848c:	eb00004b 	bl	85c0 <printk>
    8490:	eb0002db 	bl	9004 <clean_reboot>
    8494:	00009b94 	muleq	r0, r4, fp
    8498:	00009ba0 	andeq	r9, r0, r0, lsr #23
    849c:	00009fc0 	andeq	r9, r0, r0, asr #31
    84a0:	00009bb0 			; <UNDEFINED> instruction: 0x00009bb0
    84a4:	00009bc8 	andeq	r9, r0, r8, asr #23
    84a8:	00009bf0 	strdeq	r9, [r0], -r0
    84ac:	00009c24 	andeq	r9, r0, r4, lsr #24
    84b0:	00009b34 	andeq	r9, r0, r4, lsr fp
    84b4:	00009b40 	andeq	r9, r0, r0, asr #22

000084b8 <ckalloc>:
    84b8:	e92d4070 	push	{r4, r5, r6, lr}
    84bc:	e24dd010 	sub	sp, sp, #16, 0
    84c0:	e1a06000 	mov	r6, r0
    84c4:	e28d5004 	add	r5, sp, #4, 0
    84c8:	e885000e 	stm	r5, {r1, r2, r3}
    84cc:	e2800024 	add	r0, r0, #36, 0	; 0x24
    84d0:	ebffff2f 	bl	8194 <kr_malloc>
    84d4:	e1a04000 	mov	r4, r0
    84d8:	e3a02024 	mov	r2, #36, 0	; 0x24
    84dc:	e3a01000 	mov	r1, #0, 0
    84e0:	eb000018 	bl	8548 <memset>
    84e4:	e5846004 	str	r6, [r4, #4]
    84e8:	e3a0300b 	mov	r3, #11, 0
    84ec:	e5843008 	str	r3, [r4, #8]
    84f0:	e284300c 	add	r3, r4, #12, 0
    84f4:	e8950007 	ldm	r5, {r0, r1, r2}
    84f8:	e8830007 	stm	r3, {r0, r1, r2}
    84fc:	e59d300c 	ldr	r3, [sp, #12]
    8500:	e59d2008 	ldr	r2, [sp, #8]
    8504:	e59d1004 	ldr	r1, [sp, #4]
    8508:	e59f002c 	ldr	r0, [pc, #44]	; 853c <ckalloc+0x84>
    850c:	eb00002b 	bl	85c0 <printk>
    8510:	e2845024 	add	r5, r4, #36, 0	; 0x24
    8514:	e1a01005 	mov	r1, r5
    8518:	e59f0020 	ldr	r0, [pc, #32]	; 8540 <ckalloc+0x88>
    851c:	eb000027 	bl	85c0 <printk>
    8520:	e59f301c 	ldr	r3, [pc, #28]	; 8544 <ckalloc+0x8c>
    8524:	e5932000 	ldr	r2, [r3]
    8528:	e5842000 	str	r2, [r4]
    852c:	e5834000 	str	r4, [r3]
    8530:	e1a00005 	mov	r0, r5
    8534:	e28dd010 	add	sp, sp, #16, 0
    8538:	e8bd8070 	pop	{r4, r5, r6, pc}
    853c:	00009b94 	muleq	r0, r4, fp
    8540:	00009c08 	andeq	r9, r0, r8, lsl #24
    8544:	00009fc0 	andeq	r9, r0, r0, asr #31

00008548 <memset>:
    8548:	e92d4010 	push	{r4, lr}
    854c:	e0804002 	add	r4, r0, r2
    8550:	e1500004 	cmp	r0, r4
    8554:	28bd8010 	popcs	{r4, pc}
    8558:	e2423001 	sub	r3, r2, #1, 0
    855c:	e3530002 	cmp	r3, #2, 0
    8560:	e6ef1071 	uxtb	r1, r1
    8564:	e1a03000 	mov	r3, r0
    8568:	9a00000b 	bls	859c <memset+0x54>
    856c:	e181e401 	orr	lr, r1, r1, lsl #8
    8570:	e18ee801 	orr	lr, lr, r1, lsl #16
    8574:	e3c2c003 	bic	ip, r2, #3, 0
    8578:	e18eec01 	orr	lr, lr, r1, lsl #24
    857c:	e08cc000 	add	ip, ip, r0
    8580:	e483e004 	str	lr, [r3], #4
    8584:	e153000c 	cmp	r3, ip
    8588:	1afffffc 	bne	8580 <memset+0x38>
    858c:	e3c23003 	bic	r3, r2, #3, 0
    8590:	e1520003 	cmp	r2, r3
    8594:	e0803003 	add	r3, r0, r3
    8598:	08bd8010 	popeq	{r4, pc}
    859c:	e1a02003 	mov	r2, r3
    85a0:	e4c21001 	strb	r1, [r2], #1
    85a4:	e1540002 	cmp	r4, r2
    85a8:	98bd8010 	popls	{r4, pc}
    85ac:	e2832002 	add	r2, r3, #2, 0
    85b0:	e1540002 	cmp	r4, r2
    85b4:	e5c31001 	strb	r1, [r3, #1]
    85b8:	85c31002 	strbhi	r1, [r3, #2]
    85bc:	e8bd8010 	pop	{r4, pc}

000085c0 <printk>:
    85c0:	e92d000f 	push	{r0, r1, r2, r3}
    85c4:	e92d4030 	push	{r4, r5, lr}
    85c8:	e59f5040 	ldr	r5, [pc, #64]	; 8610 <printk+0x50>
    85cc:	e24dd00c 	sub	sp, sp, #12, 0
    85d0:	e28d301c 	add	r3, sp, #28, 0
    85d4:	e3a01b01 	mov	r1, #1024	; 0x400
    85d8:	e59d2018 	ldr	r2, [sp, #24]
    85dc:	e1a00005 	mov	r0, r5
    85e0:	e58d3004 	str	r3, [sp, #4]
    85e4:	eb0000fb 	bl	89d8 <va_printk>
    85e8:	e1a04000 	mov	r4, r0
    85ec:	e59f3020 	ldr	r3, [pc, #32]	; 8614 <printk+0x54>
    85f0:	e1a00005 	mov	r0, r5
    85f4:	e5933000 	ldr	r3, [r3]
    85f8:	e12fff33 	blx	r3
    85fc:	e1a00004 	mov	r0, r4
    8600:	e28dd00c 	add	sp, sp, #12, 0
    8604:	e8bd4030 	pop	{r4, r5, lr}
    8608:	e28dd010 	add	sp, sp, #16, 0
    860c:	e12fff1e 	bx	lr
    8610:	00009fc4 	andeq	r9, r0, r4, asr #31
    8614:	00009f9c 	muleq	r0, ip, pc	; <UNPREDICTABLE>

00008618 <internal_putk>:
    8618:	e92d4070 	push	{r4, r5, r6, lr}
    861c:	e1a04000 	mov	r4, r0
    8620:	e5d00000 	ldrb	r0, [r0]
    8624:	e3500000 	cmp	r0, #0, 0
    8628:	0a000005 	beq	8644 <internal_putk+0x2c>
    862c:	e59f5018 	ldr	r5, [pc, #24]	; 864c <internal_putk+0x34>
    8630:	e5953000 	ldr	r3, [r5]
    8634:	e12fff33 	blx	r3
    8638:	e5f40001 	ldrb	r0, [r4, #1]!
    863c:	e3500000 	cmp	r0, #0, 0
    8640:	1afffffa 	bne	8630 <internal_putk+0x18>
    8644:	e3a00001 	mov	r0, #1, 0
    8648:	e8bd8070 	pop	{r4, r5, r6, pc}
    864c:	00009fac 	andeq	r9, r0, ip, lsr #31

00008650 <emit.constprop.0>:
    8650:	e92d41f0 	push	{r4, r5, r6, r7, r8, lr}
    8654:	e3530080 	cmp	r3, #128, 0	; 0x80
    8658:	e1a0c000 	mov	ip, r0
    865c:	e24dd048 	sub	sp, sp, #72, 0	; 0x48
    8660:	e1a00001 	mov	r0, r1
    8664:	ca000069 	bgt	8810 <emit.constprop.0+0x1c0>
    8668:	e24c1002 	sub	r1, ip, #2, 0
    866c:	e1a0c002 	mov	ip, r2
    8670:	e351000e 	cmp	r1, #14, 0
    8674:	979ff101 	ldrls	pc, [pc, r1, lsl #2]
    8678:	ea0000a7 	b	891c <emit.constprop.0+0x2cc>
    867c:	000087e8 	andeq	r8, r0, r8, ror #15
    8680:	0000891c 	andeq	r8, r0, ip, lsl r9
    8684:	0000891c 	andeq	r8, r0, ip, lsl r9
    8688:	0000891c 	andeq	r8, r0, ip, lsl r9
    868c:	0000891c 	andeq	r8, r0, ip, lsl r9
    8690:	0000891c 	andeq	r8, r0, ip, lsl r9
    8694:	000088c4 	andeq	r8, r0, r4, asr #17
    8698:	0000891c 	andeq	r8, r0, ip, lsl r9
    869c:	00008864 	andeq	r8, r0, r4, ror #16
    86a0:	0000891c 	andeq	r8, r0, ip, lsl r9
    86a4:	0000891c 	andeq	r8, r0, ip, lsl r9
    86a8:	0000891c 	andeq	r8, r0, ip, lsl r9
    86ac:	0000891c 	andeq	r8, r0, ip, lsl r9
    86b0:	0000891c 	andeq	r8, r0, ip, lsl r9
    86b4:	000086bc 			; <UNDEFINED> instruction: 0x000086bc
    86b8:	e3a0307f 	mov	r3, #127, 0	; 0x7f
    86bc:	e28d2008 	add	r2, sp, #8, 0
    86c0:	e1a04002 	mov	r4, r2
    86c4:	e59f1288 	ldr	r1, [pc, #648]	; 8954 <emit.constprop.0+0x304>
    86c8:	e20ce00f 	and	lr, ip, #15, 0
    86cc:	e7d1e00e 	ldrb	lr, [r1, lr]
    86d0:	e35c000f 	cmp	ip, #15, 0
    86d4:	e4c4e001 	strb	lr, [r4], #1
    86d8:	e1a0c22c 	lsr	ip, ip, #4
    86dc:	8afffff9 	bhi	86c8 <emit.constprop.0+0x78>
    86e0:	e3a0c078 	mov	ip, #120, 0	; 0x78
    86e4:	e1a0e004 	mov	lr, r4
    86e8:	e3a01030 	mov	r1, #48, 0	; 0x30
    86ec:	e4cec002 	strb	ip, [lr], #2
    86f0:	e5c41001 	strb	r1, [r4, #1]
    86f4:	e04e1002 	sub	r1, lr, r2
    86f8:	e1510003 	cmp	r1, r3
    86fc:	aa000083 	bge	8910 <emit.constprop.0+0x2c0>
    8700:	e1510003 	cmp	r1, r3
    8704:	a3a0c001 	movge	ip, #1, 0
    8708:	b3a0c000 	movlt	ip, #0, 0
    870c:	e2434001 	sub	r4, r3, #1, 0
    8710:	e0444001 	sub	r4, r4, r1
    8714:	b0436001 	sublt	r6, r3, r1
    8718:	a3a06001 	movge	r6, #1, 0
    871c:	e3540002 	cmp	r4, #2, 0
    8720:	938cc001 	orrls	ip, ip, #1, 0
    8724:	e35c0000 	cmp	ip, #0, 0
    8728:	1a000075 	bne	8904 <emit.constprop.0+0x2b4>
    872c:	e1a0c00e 	mov	ip, lr
    8730:	e3c65003 	bic	r5, r6, #3, 0
    8734:	e59f721c 	ldr	r7, [pc, #540]	; 8958 <emit.constprop.0+0x308>
    8738:	e085500e 	add	r5, r5, lr
    873c:	e48c7004 	str	r7, [ip], #4
    8740:	e15c0005 	cmp	ip, r5
    8744:	1afffffc 	bne	873c <emit.constprop.0+0xec>
    8748:	e3c6c003 	bic	ip, r6, #3, 0
    874c:	e156000c 	cmp	r6, ip
    8750:	e08e500c 	add	r5, lr, ip
    8754:	e08cc001 	add	ip, ip, r1
    8758:	0a000008 	beq	8780 <emit.constprop.0+0x130>
    875c:	e3a07020 	mov	r7, #32, 0
    8760:	e28c8001 	add	r8, ip, #1, 0
    8764:	e1580003 	cmp	r8, r3
    8768:	e5c57000 	strb	r7, [r5]
    876c:	aa000003 	bge	8780 <emit.constprop.0+0x130>
    8770:	e28cc002 	add	ip, ip, #2, 0
    8774:	e15c0003 	cmp	ip, r3
    8778:	e5c57001 	strb	r7, [r5, #1]
    877c:	b5c57002 	strblt	r7, [r5, #2]
    8780:	e1510003 	cmp	r1, r3
    8784:	a3a04000 	movge	r4, #0, 0
    8788:	e08e6006 	add	r6, lr, r6
    878c:	e0461002 	sub	r1, r6, r2
    8790:	e08ee004 	add	lr, lr, r4
    8794:	e3a03000 	mov	r3, #0, 0
    8798:	e351007f 	cmp	r1, #127, 0	; 0x7f
    879c:	c241407f 	subgt	r4, r1, #127, 0	; 0x7f
    87a0:	c0822004 	addgt	r2, r2, r4
    87a4:	e152000e 	cmp	r2, lr
    87a8:	e5c63000 	strb	r3, [r6]
    87ac:	8a00004f 	bhi	88f0 <emit.constprop.0+0x2a0>
    87b0:	e28ee001 	add	lr, lr, #1, 0
    87b4:	e1a0300e 	mov	r3, lr
    87b8:	e240c001 	sub	ip, r0, #1, 0
    87bc:	e5734001 	ldrb	r4, [r3, #-1]!
    87c0:	e1530002 	cmp	r3, r2
    87c4:	e5ec4001 	strb	r4, [ip, #1]!
    87c8:	1afffffb 	bne	87bc <emit.constprop.0+0x16c>
    87cc:	e04ee003 	sub	lr, lr, r3
    87d0:	e3a03000 	mov	r3, #0, 0
    87d4:	e080e00e 	add	lr, r0, lr
    87d8:	e5ce3000 	strb	r3, [lr]
    87dc:	e28dd048 	add	sp, sp, #72, 0	; 0x48
    87e0:	e8bd81f0 	pop	{r4, r5, r6, r7, r8, pc}
    87e4:	e3a0307f 	mov	r3, #127, 0	; 0x7f
    87e8:	e28d2008 	add	r2, sp, #8, 0
    87ec:	e1a0e002 	mov	lr, r2
    87f0:	e59f1164 	ldr	r1, [pc, #356]	; 895c <emit.constprop.0+0x30c>
    87f4:	e20c4001 	and	r4, ip, #1, 0
    87f8:	e7d14004 	ldrb	r4, [r1, r4]
    87fc:	e35c0001 	cmp	ip, #1, 0
    8800:	e4ce4001 	strb	r4, [lr], #1
    8804:	e1a0c0ac 	lsr	ip, ip, #1
    8808:	8afffff9 	bhi	87f4 <emit.constprop.0+0x1a4>
    880c:	eaffffb8 	b	86f4 <emit.constprop.0+0xa4>
    8810:	e24c3002 	sub	r3, ip, #2, 0
    8814:	e1a0c002 	mov	ip, r2
    8818:	e353000e 	cmp	r3, #14, 0
    881c:	979ff103 	ldrls	pc, [pc, r3, lsl #2]
    8820:	ea00003d 	b	891c <emit.constprop.0+0x2cc>
    8824:	000087e4 	andeq	r8, r0, r4, ror #15
    8828:	0000891c 	andeq	r8, r0, ip, lsl r9
    882c:	0000891c 	andeq	r8, r0, ip, lsl r9
    8830:	0000891c 	andeq	r8, r0, ip, lsl r9
    8834:	0000891c 	andeq	r8, r0, ip, lsl r9
    8838:	0000891c 	andeq	r8, r0, ip, lsl r9
    883c:	0000893c 	andeq	r8, r0, ip, lsr r9
    8840:	0000891c 	andeq	r8, r0, ip, lsl r9
    8844:	00008860 	andeq	r8, r0, r0, ror #16
    8848:	0000891c 	andeq	r8, r0, ip, lsl r9
    884c:	0000891c 	andeq	r8, r0, ip, lsl r9
    8850:	0000891c 	andeq	r8, r0, ip, lsl r9
    8854:	0000891c 	andeq	r8, r0, ip, lsl r9
    8858:	0000891c 	andeq	r8, r0, ip, lsl r9
    885c:	000086b8 			; <UNDEFINED> instruction: 0x000086b8
    8860:	e3a0307f 	mov	r3, #127, 0	; 0x7f
    8864:	e59d1060 	ldr	r1, [sp, #96]	; 0x60
    8868:	e59f70f0 	ldr	r7, [pc, #240]	; 8960 <emit.constprop.0+0x310>
    886c:	e0118fa2 	ands	r8, r1, r2, lsr #31
    8870:	1262c000 	rsbne	ip, r2, #0, 0
    8874:	e28d2008 	add	r2, sp, #8, 0
    8878:	13a08001 	movne	r8, #1, 0
    887c:	e1a0e002 	mov	lr, r2
    8880:	e59f60dc 	ldr	r6, [pc, #220]	; 8964 <emit.constprop.0+0x314>
    8884:	e1a0500c 	mov	r5, ip
    8888:	e0814c96 	umull	r4, r1, r6, ip
    888c:	e1a011a1 	lsr	r1, r1, #3
    8890:	e0814101 	add	r4, r1, r1, lsl #2
    8894:	e04cc084 	sub	ip, ip, r4, lsl #1
    8898:	e7d7400c 	ldrb	r4, [r7, ip]
    889c:	e3550009 	cmp	r5, #9, 0
    88a0:	e1a0c001 	mov	ip, r1
    88a4:	e1a0100e 	mov	r1, lr
    88a8:	e4ce4001 	strb	r4, [lr], #1
    88ac:	8afffff4 	bhi	8884 <emit.constprop.0+0x234>
    88b0:	e3580000 	cmp	r8, #0, 0
    88b4:	13a0c02d 	movne	ip, #45, 0	; 0x2d
    88b8:	15cec000 	strbne	ip, [lr]
    88bc:	1281e002 	addne	lr, r1, #2, 0
    88c0:	eaffff8b 	b	86f4 <emit.constprop.0+0xa4>
    88c4:	e3530001 	cmp	r3, #1, 0
    88c8:	e5cd2008 	strb	r2, [sp, #8]
    88cc:	c3a01001 	movgt	r1, #1, 0
    88d0:	c28de009 	addgt	lr, sp, #9, 0
    88d4:	c28d2008 	addgt	r2, sp, #8, 0
    88d8:	caffff88 	bgt	8700 <emit.constprop.0+0xb0>
    88dc:	e3a03000 	mov	r3, #0, 0
    88e0:	e28de008 	add	lr, sp, #8, 0
    88e4:	e1a0200e 	mov	r2, lr
    88e8:	e5cd3009 	strb	r3, [sp, #9]
    88ec:	eaffffaf 	b	87b0 <emit.constprop.0+0x160>
    88f0:	e1a0e000 	mov	lr, r0
    88f4:	e3a03000 	mov	r3, #0, 0
    88f8:	e5ce3000 	strb	r3, [lr]
    88fc:	e28dd048 	add	sp, sp, #72, 0	; 0x48
    8900:	e8bd81f0 	pop	{r4, r5, r6, r7, r8, pc}
    8904:	e1a0c001 	mov	ip, r1
    8908:	e1a0500e 	mov	r5, lr
    890c:	eaffff92 	b	875c <emit.constprop.0+0x10c>
    8910:	e1a0600e 	mov	r6, lr
    8914:	e24ee001 	sub	lr, lr, #1, 0
    8918:	eaffff9d 	b	8794 <emit.constprop.0+0x144>
    891c:	e59f2044 	ldr	r2, [pc, #68]	; 8968 <emit.constprop.0+0x318>
    8920:	e3a03079 	mov	r3, #121, 0	; 0x79
    8924:	e59f1040 	ldr	r1, [pc, #64]	; 896c <emit.constprop.0+0x31c>
    8928:	e58d2000 	str	r2, [sp]
    892c:	e59f003c 	ldr	r0, [pc, #60]	; 8970 <emit.constprop.0+0x320>
    8930:	e59f203c 	ldr	r2, [pc, #60]	; 8974 <emit.constprop.0+0x324>
    8934:	ebffff21 	bl	85c0 <printk>
    8938:	eb0001b1 	bl	9004 <clean_reboot>
    893c:	e5cd2008 	strb	r2, [sp, #8]
    8940:	e3a0307f 	mov	r3, #127, 0	; 0x7f
    8944:	e3a01001 	mov	r1, #1, 0
    8948:	e28de009 	add	lr, sp, #9, 0
    894c:	e28d2008 	add	r2, sp, #8, 0
    8950:	eaffff6a 	b	8700 <emit.constprop.0+0xb0>
    8954:	00009c44 	andeq	r9, r0, r4, asr #24
    8958:	20202020 	eorcs	r2, r0, r0, lsr #32
    895c:	00009c58 	andeq	r9, r0, r8, asr ip
    8960:	00009c5c 	andeq	r9, r0, ip, asr ip
    8964:	cccccccd 	stclgt	12, cr12, [ip], {205}	; 0xcd
    8968:	00009c40 	andeq	r9, r0, r0, asr #24
    896c:	00009c2c 	andeq	r9, r0, ip, lsr #24
    8970:	00009b40 	andeq	r9, r0, r0, asr #22
    8974:	00009d70 	andeq	r9, r0, r0, ror sp

00008978 <rpi_set_output>:
    8978:	e3500000 	cmp	r0, #0, 0
    897c:	0a000005 	beq	8998 <rpi_set_output+0x20>
    8980:	e59f3038 	ldr	r3, [pc, #56]	; 89c0 <rpi_set_output+0x48>
    8984:	e3510000 	cmp	r1, #0, 0
    8988:	e5830000 	str	r0, [r3]
    898c:	159f3030 	ldrne	r3, [pc, #48]	; 89c4 <rpi_set_output+0x4c>
    8990:	15831000 	strne	r1, [r3]
    8994:	e12fff1e 	bx	lr
    8998:	e52de004 	push	{lr}		; (str lr, [sp, #-4]!)
    899c:	e59f2024 	ldr	r2, [pc, #36]	; 89c8 <rpi_set_output+0x50>
    89a0:	e24dd00c 	sub	sp, sp, #12, 0
    89a4:	e3a03020 	mov	r3, #32, 0
    89a8:	e59f101c 	ldr	r1, [pc, #28]	; 89cc <rpi_set_output+0x54>
    89ac:	e58d2000 	str	r2, [sp]
    89b0:	e59f0018 	ldr	r0, [pc, #24]	; 89d0 <rpi_set_output+0x58>
    89b4:	e59f2018 	ldr	r2, [pc, #24]	; 89d4 <rpi_set_output+0x5c>
    89b8:	ebffff00 	bl	85c0 <printk>
    89bc:	eb000190 	bl	9004 <clean_reboot>
    89c0:	00009fac 	andeq	r9, r0, ip, lsr #31
    89c4:	00009f9c 	muleq	r0, ip, pc	; <UNPREDICTABLE>
    89c8:	00009c68 	andeq	r9, r0, r8, ror #24
    89cc:	00009c2c 	andeq	r9, r0, ip, lsr #24
    89d0:	00009b40 	andeq	r9, r0, r0, asr #22
    89d4:	00009d78 	andeq	r9, r0, r8, ror sp

000089d8 <va_printk>:
    89d8:	e92d4ff0 	push	{r4, r5, r6, r7, r8, r9, sl, fp, lr}
    89dc:	e1a0b000 	mov	fp, r0
    89e0:	e3a00000 	mov	r0, #0, 0
    89e4:	e5cb0000 	strb	r0, [fp]
    89e8:	e5d2c000 	ldrb	ip, [r2]
    89ec:	e2417001 	sub	r7, r1, #1, 0
    89f0:	e08b7007 	add	r7, fp, r7
    89f4:	e15c0000 	cmp	ip, r0
    89f8:	115b0007 	cmpne	fp, r7
    89fc:	e24ddf47 	sub	sp, sp, #284	; 0x11c
    8a00:	e58d2010 	str	r2, [sp, #16]
    8a04:	2a000159 	bcs	8f70 <va_printk+0x598>
    8a08:	e1a06002 	mov	r6, r2
    8a0c:	e1a08003 	mov	r8, r3
    8a10:	e1a0400b 	mov	r4, fp
    8a14:	e59fa5a4 	ldr	sl, [pc, #1444]	; 8fc0 <va_printk+0x5e8>
    8a18:	e58db00c 	str	fp, [sp, #12]
    8a1c:	ea000005 	b	8a38 <va_printk+0x60>
    8a20:	e4c4c001 	strb	ip, [r4], #1
    8a24:	e2866001 	add	r6, r6, #1, 0
    8a28:	e5d6c000 	ldrb	ip, [r6]
    8a2c:	e35c0000 	cmp	ip, #0, 0
    8a30:	11570004 	cmpne	r7, r4
    8a34:	9a00002f 	bls	8af8 <va_printk+0x120>
    8a38:	e35c0025 	cmp	ip, #37, 0	; 0x25
    8a3c:	1afffff7 	bne	8a20 <va_printk+0x48>
    8a40:	e5d62001 	ldrb	r2, [r6, #1]
    8a44:	e3520025 	cmp	r2, #37, 0	; 0x25
    8a48:	04c4c001 	strbeq	ip, [r4], #1
    8a4c:	02866002 	addeq	r6, r6, #2, 0
    8a50:	0afffff4 	beq	8a28 <va_printk+0x50>
    8a54:	e2423030 	sub	r3, r2, #48, 0	; 0x30
    8a58:	e3530009 	cmp	r3, #9, 0
    8a5c:	e3a05000 	mov	r5, #0, 0
    8a60:	e2866001 	add	r6, r6, #1, 0
    8a64:	8a000008 	bhi	8a8c <va_printk+0xb4>
    8a68:	e0855105 	add	r5, r5, r5, lsl #2
    8a6c:	e0825085 	add	r5, r2, r5, lsl #1
    8a70:	e5f62001 	ldrb	r2, [r6, #1]!
    8a74:	e2455030 	sub	r5, r5, #48, 0	; 0x30
    8a78:	e2423030 	sub	r3, r2, #48, 0	; 0x30
    8a7c:	e3530009 	cmp	r3, #9, 0
    8a80:	9afffff8 	bls	8a68 <va_printk+0x90>
    8a84:	e355001f 	cmp	r5, #31, 0
    8a88:	8a00013a 	bhi	8f78 <va_printk+0x5a0>
    8a8c:	e2423062 	sub	r3, r2, #98, 0	; 0x62
    8a90:	e3530016 	cmp	r3, #22, 0
    8a94:	979ff103 	ldrls	pc, [pc, r3, lsl #2]
    8a98:	ea00011b 	b	8f0c <va_printk+0x534>
    8a9c:	00008d50 	andeq	r8, r0, r0, asr sp
    8aa0:	00008c4c 	andeq	r8, r0, ip, asr #24
    8aa4:	00008c44 	andeq	r8, r0, r4, asr #24
    8aa8:	00008f0c 	andeq	r8, r0, ip, lsl #30
    8aac:	00008f48 	andeq	r8, r0, r8, asr #30
    8ab0:	00008f0c 	andeq	r8, r0, ip, lsl #30
    8ab4:	00008f0c 	andeq	r8, r0, ip, lsl #30
    8ab8:	00008f0c 	andeq	r8, r0, ip, lsl #30
    8abc:	00008f0c 	andeq	r8, r0, ip, lsl #30
    8ac0:	00008f0c 	andeq	r8, r0, ip, lsl #30
    8ac4:	00008b54 	andeq	r8, r0, r4, asr fp
    8ac8:	00008f0c 	andeq	r8, r0, ip, lsl #30
    8acc:	00008f0c 	andeq	r8, r0, ip, lsl #30
    8ad0:	00008f0c 	andeq	r8, r0, ip, lsl #30
    8ad4:	00008b10 	andeq	r8, r0, r0, lsl fp
    8ad8:	00008f0c 	andeq	r8, r0, ip, lsl #30
    8adc:	00008f0c 	andeq	r8, r0, ip, lsl #30
    8ae0:	00008e48 	andeq	r8, r0, r8, asr #28
    8ae4:	00008f0c 	andeq	r8, r0, ip, lsl #30
    8ae8:	00008c20 	andeq	r8, r0, r0, lsr #24
    8aec:	00008f0c 	andeq	r8, r0, ip, lsl #30
    8af0:	00008f0c 	andeq	r8, r0, ip, lsl #30
    8af4:	00008b10 	andeq	r8, r0, r0, lsl fp
    8af8:	e59db00c 	ldr	fp, [sp, #12]
    8afc:	e3a03000 	mov	r3, #0, 0
    8b00:	e4c43001 	strb	r3, [r4], #1
    8b04:	e044000b 	sub	r0, r4, fp
    8b08:	e28ddf47 	add	sp, sp, #284	; 0x11c
    8b0c:	e8bd8ff0 	pop	{r4, r5, r6, r7, r8, r9, sl, fp, pc}
    8b10:	e3a01000 	mov	r1, #0, 0
    8b14:	e1a03005 	mov	r3, r5
    8b18:	e4982004 	ldr	r2, [r8], #4
    8b1c:	e3a00010 	mov	r0, #16, 0
    8b20:	e58d1000 	str	r1, [sp]
    8b24:	e28d1018 	add	r1, sp, #24, 0
    8b28:	ebfffec8 	bl	8650 <emit.constprop.0>
    8b2c:	e1a05000 	mov	r5, r0
    8b30:	e2866001 	add	r6, r6, #1, 0
    8b34:	e2455001 	sub	r5, r5, #1, 0
    8b38:	e5f53001 	ldrb	r3, [r5, #1]!
    8b3c:	e3530000 	cmp	r3, #0, 0
    8b40:	0affffb8 	beq	8a28 <va_printk+0x50>
    8b44:	e4c43001 	strb	r3, [r4], #1
    8b48:	e1570004 	cmp	r7, r4
    8b4c:	8afffff9 	bhi	8b38 <va_printk+0x160>
    8b50:	eaffffb4 	b	8a28 <va_printk+0x50>
    8b54:	e3a02003 	mov	r2, #3, 0
    8b58:	e1a00006 	mov	r0, r6
    8b5c:	e59f1460 	ldr	r1, [pc, #1120]	; 8fc4 <va_printk+0x5ec>
    8b60:	eb0003da 	bl	9ad0 <strncmp>
    8b64:	e3500000 	cmp	r0, #0, 0
    8b68:	0a000005 	beq	8b84 <va_printk+0x1ac>
    8b6c:	e3a02003 	mov	r2, #3, 0
    8b70:	e1a00006 	mov	r0, r6
    8b74:	e59f144c 	ldr	r1, [pc, #1100]	; 8fc8 <va_printk+0x5f0>
    8b78:	eb0003d4 	bl	9ad0 <strncmp>
    8b7c:	e3500000 	cmp	r0, #0, 0
    8b80:	1a00010b 	bne	8fb4 <va_printk+0x5dc>
    8b84:	e2888007 	add	r8, r8, #7, 0
    8b88:	e3c88007 	bic	r8, r8, #7, 0
    8b8c:	e598b004 	ldr	fp, [r8, #4]
    8b90:	e4989008 	ldr	r9, [r8], #8
    8b94:	e1a0100b 	mov	r1, fp
    8b98:	e59f042c 	ldr	r0, [pc, #1068]	; 8fcc <va_printk+0x5f4>
    8b9c:	ebfffe87 	bl	85c0 <printk>
    8ba0:	e1a01009 	mov	r1, r9
    8ba4:	e59f0424 	ldr	r0, [pc, #1060]	; 8fd0 <va_printk+0x5f8>
    8ba8:	ebfffe84 	bl	85c0 <printk>
    8bac:	e3a02003 	mov	r2, #3, 0
    8bb0:	e1a00006 	mov	r0, r6
    8bb4:	e59f1408 	ldr	r1, [pc, #1032]	; 8fc4 <va_printk+0x5ec>
    8bb8:	eb0003c4 	bl	9ad0 <strncmp>
    8bbc:	e2503000 	subs	r3, r0, #0, 0
    8bc0:	e1a02003 	mov	r2, r3
    8bc4:	e2863002 	add	r3, r6, #2, 0
    8bc8:	e58d3014 	str	r3, [sp, #20]
    8bcc:	1a00009f 	bne	8e50 <va_printk+0x478>
    8bd0:	e1a06002 	mov	r6, r2
    8bd4:	e1a03005 	mov	r3, r5
    8bd8:	e58d2000 	str	r2, [sp]
    8bdc:	e28d1018 	add	r1, sp, #24, 0
    8be0:	e1a0200b 	mov	r2, fp
    8be4:	e3a00010 	mov	r0, #16, 0
    8be8:	ebfffe98 	bl	8650 <emit.constprop.0>
    8bec:	e1a0c000 	mov	ip, r0
    8bf0:	e1a03005 	mov	r3, r5
    8bf4:	e58d6000 	str	r6, [sp]
    8bf8:	e28d1098 	add	r1, sp, #152, 0	; 0x98
    8bfc:	e1a02009 	mov	r2, r9
    8c00:	e3a00010 	mov	r0, #16, 0
    8c04:	e1a0500c 	mov	r5, ip
    8c08:	ebfffe90 	bl	8650 <emit.constprop.0>
    8c0c:	e28d0018 	add	r0, sp, #24, 0
    8c10:	e28d109a 	add	r1, sp, #154, 0	; 0x9a
    8c14:	e59d6014 	ldr	r6, [sp, #20]
    8c18:	eb00038a 	bl	9a48 <strcat>
    8c1c:	eaffffc3 	b	8b30 <va_printk+0x158>
    8c20:	e3a01000 	mov	r1, #0, 0
    8c24:	e1a03005 	mov	r3, r5
    8c28:	e4982004 	ldr	r2, [r8], #4
    8c2c:	e3a0000a 	mov	r0, #10, 0
    8c30:	e58d1000 	str	r1, [sp]
    8c34:	e28d1018 	add	r1, sp, #24, 0
    8c38:	ebfffe84 	bl	8650 <emit.constprop.0>
    8c3c:	e1a05000 	mov	r5, r0
    8c40:	eaffffba 	b	8b30 <va_printk+0x158>
    8c44:	e3a01001 	mov	r1, #1, 0
    8c48:	eafffff5 	b	8c24 <va_printk+0x24c>
    8c4c:	e4983004 	ldr	r3, [r8], #4
    8c50:	e3550001 	cmp	r5, #1, 0
    8c54:	e5cd3098 	strb	r3, [sp, #152]	; 0x98
    8c58:	9a0000a6 	bls	8ef8 <va_printk+0x520>
    8c5c:	e2453002 	sub	r3, r5, #2, 0
    8c60:	e3530002 	cmp	r3, #2, 0
    8c64:	e2451001 	sub	r1, r5, #1, 0
    8c68:	9a0000bc 	bls	8f60 <va_printk+0x588>
    8c6c:	e59f0360 	ldr	r0, [pc, #864]	; 8fd4 <va_printk+0x5fc>
    8c70:	e1a02121 	lsr	r2, r1, #2
    8c74:	e3520001 	cmp	r2, #1, 0
    8c78:	e58d0099 	str	r0, [sp, #153]	; 0x99
    8c7c:	0a00000e 	beq	8cbc <va_printk+0x2e4>
    8c80:	e3520002 	cmp	r2, #2, 0
    8c84:	e58d009d 	str	r0, [sp, #157]	; 0x9d
    8c88:	0a00000b 	beq	8cbc <va_printk+0x2e4>
    8c8c:	e3520003 	cmp	r2, #3, 0
    8c90:	e58d00a1 	str	r0, [sp, #161]	; 0xa1
    8c94:	0a000008 	beq	8cbc <va_printk+0x2e4>
    8c98:	e3520004 	cmp	r2, #4, 0
    8c9c:	e58d00a5 	str	r0, [sp, #165]	; 0xa5
    8ca0:	0a000005 	beq	8cbc <va_printk+0x2e4>
    8ca4:	e3520005 	cmp	r2, #5, 0
    8ca8:	e58d00a9 	str	r0, [sp, #169]	; 0xa9
    8cac:	0a000002 	beq	8cbc <va_printk+0x2e4>
    8cb0:	e3520007 	cmp	r2, #7, 0
    8cb4:	e58d00ad 	str	r0, [sp, #173]	; 0xad
    8cb8:	058d00b1 	streq	r0, [sp, #177]	; 0xb1
    8cbc:	e3c12003 	bic	r2, r1, #3, 0
    8cc0:	e1510002 	cmp	r1, r2
    8cc4:	e28dc099 	add	ip, sp, #153, 0	; 0x99
    8cc8:	e08c0002 	add	r0, ip, r2
    8ccc:	e2822001 	add	r2, r2, #1, 0
    8cd0:	0a000008 	beq	8cf8 <va_printk+0x320>
    8cd4:	e3a0e020 	mov	lr, #32, 0
    8cd8:	e2829001 	add	r9, r2, #1, 0
    8cdc:	e1550009 	cmp	r5, r9
    8ce0:	e5c0e000 	strb	lr, [r0]
    8ce4:	da000003 	ble	8cf8 <va_printk+0x320>
    8ce8:	e2822002 	add	r2, r2, #2, 0
    8cec:	e1550002 	cmp	r5, r2
    8cf0:	e5c0e001 	strb	lr, [r0, #1]
    8cf4:	c5c0e002 	strbgt	lr, [r0, #2]
    8cf8:	e3a0e000 	mov	lr, #0, 0
    8cfc:	e28d0098 	add	r0, sp, #152, 0	; 0x98
    8d00:	e08c2001 	add	r2, ip, r1
    8d04:	e0422000 	sub	r2, r2, r0
    8d08:	e352007f 	cmp	r2, #127, 0	; 0x7f
    8d0c:	c242207f 	subgt	r2, r2, #127, 0	; 0x7f
    8d10:	e08c3003 	add	r3, ip, r3
    8d14:	c0800002 	addgt	r0, r0, r2
    8d18:	e1530000 	cmp	r3, r0
    8d1c:	e7cce001 	strb	lr, [ip, r1]
    8d20:	3a00006c 	bcc	8ed8 <va_printk+0x500>
    8d24:	e283c001 	add	ip, r3, #1, 0
    8d28:	e1a0300c 	mov	r3, ip
    8d2c:	e28d5018 	add	r5, sp, #24, 0
    8d30:	e2452001 	sub	r2, r5, #1, 0
    8d34:	e5731001 	ldrb	r1, [r3, #-1]!
    8d38:	e1500003 	cmp	r0, r3
    8d3c:	e5e21001 	strb	r1, [r2, #1]!
    8d40:	1afffffb 	bne	8d34 <va_printk+0x35c>
    8d44:	e04c3000 	sub	r3, ip, r0
    8d48:	e0853003 	add	r3, r5, r3
    8d4c:	ea00003a 	b	8e3c <va_printk+0x464>
    8d50:	e28d1098 	add	r1, sp, #152, 0	; 0x98
    8d54:	e1a03001 	mov	r3, r1
    8d58:	e4980004 	ldr	r0, [r8], #4
    8d5c:	e200c001 	and	ip, r0, #1, 0
    8d60:	e7dac00c 	ldrb	ip, [sl, ip]
    8d64:	e3500001 	cmp	r0, #1, 0
    8d68:	e1a02003 	mov	r2, r3
    8d6c:	e1a000a0 	lsr	r0, r0, #1
    8d70:	e4c3c001 	strb	ip, [r3], #1
    8d74:	8afffff8 	bhi	8d5c <va_printk+0x384>
    8d78:	e0430001 	sub	r0, r3, r1
    8d7c:	e1550000 	cmp	r5, r0
    8d80:	da000057 	ble	8ee4 <va_printk+0x50c>
    8d84:	e045c000 	sub	ip, r5, r0
    8d88:	e24ce001 	sub	lr, ip, #1, 0
    8d8c:	e35e0002 	cmp	lr, #2, 0
    8d90:	e1a0e003 	mov	lr, r3
    8d94:	9a00000a 	bls	8dc4 <va_printk+0x3ec>
    8d98:	e3cc9003 	bic	r9, ip, #3, 0
    8d9c:	e0899003 	add	r9, r9, r3
    8da0:	e59fb22c 	ldr	fp, [pc, #556]	; 8fd4 <va_printk+0x5fc>
    8da4:	e48eb004 	str	fp, [lr], #4
    8da8:	e15e0009 	cmp	lr, r9
    8dac:	1afffffb 	bne	8da0 <va_printk+0x3c8>
    8db0:	e3cce003 	bic	lr, ip, #3, 0
    8db4:	e15e000c 	cmp	lr, ip
    8db8:	e080000e 	add	r0, r0, lr
    8dbc:	e083e00e 	add	lr, r3, lr
    8dc0:	0a000008 	beq	8de8 <va_printk+0x410>
    8dc4:	e3a09020 	mov	r9, #32, 0
    8dc8:	e280b001 	add	fp, r0, #1, 0
    8dcc:	e155000b 	cmp	r5, fp
    8dd0:	e5ce9000 	strb	r9, [lr]
    8dd4:	da000003 	ble	8de8 <va_printk+0x410>
    8dd8:	e2800002 	add	r0, r0, #2, 0
    8ddc:	e1550000 	cmp	r5, r0
    8de0:	e5ce9001 	strb	r9, [lr, #1]
    8de4:	c5ce9002 	strbgt	r9, [lr, #2]
    8de8:	e3a0e000 	mov	lr, #0, 0
    8dec:	e083000c 	add	r0, r3, ip
    8df0:	e0400001 	sub	r0, r0, r1
    8df4:	e350007f 	cmp	r0, #127, 0	; 0x7f
    8df8:	e082200c 	add	r2, r2, ip
    8dfc:	e7c3e00c 	strb	lr, [r3, ip]
    8e00:	da000001 	ble	8e0c <va_printk+0x434>
    8e04:	e240007f 	sub	r0, r0, #127, 0	; 0x7f
    8e08:	e0811000 	add	r1, r1, r0
    8e0c:	e1510002 	cmp	r1, r2
    8e10:	8a000030 	bhi	8ed8 <va_printk+0x500>
    8e14:	e2822001 	add	r2, r2, #1, 0
    8e18:	e1a03002 	mov	r3, r2
    8e1c:	e28d5018 	add	r5, sp, #24, 0
    8e20:	e245c001 	sub	ip, r5, #1, 0
    8e24:	e5730001 	ldrb	r0, [r3, #-1]!
    8e28:	e1530001 	cmp	r3, r1
    8e2c:	e5ec0001 	strb	r0, [ip, #1]!
    8e30:	1afffffb 	bne	8e24 <va_printk+0x44c>
    8e34:	e0423003 	sub	r3, r2, r3
    8e38:	e0853003 	add	r3, r5, r3
    8e3c:	e3a02000 	mov	r2, #0, 0
    8e40:	e5c32000 	strb	r2, [r3]
    8e44:	eaffff39 	b	8b30 <va_printk+0x158>
    8e48:	e4985004 	ldr	r5, [r8], #4
    8e4c:	eaffff37 	b	8b30 <va_printk+0x158>
    8e50:	e3a02003 	mov	r2, #3, 0
    8e54:	e1a00006 	mov	r0, r6
    8e58:	e59f1168 	ldr	r1, [pc, #360]	; 8fc8 <va_printk+0x5f0>
    8e5c:	eb00031b 	bl	9ad0 <strncmp>
    8e60:	e2503000 	subs	r3, r0, #0, 0
    8e64:	1a00004b 	bne	8f98 <va_printk+0x5c0>
    8e68:	e1a06003 	mov	r6, r3
    8e6c:	e1a0200b 	mov	r2, fp
    8e70:	e58d3000 	str	r3, [sp]
    8e74:	e28d1018 	add	r1, sp, #24, 0
    8e78:	e1a03005 	mov	r3, r5
    8e7c:	e3a0000a 	mov	r0, #10, 0
    8e80:	ebfffdf2 	bl	8650 <emit.constprop.0>
    8e84:	e1a0c000 	mov	ip, r0
    8e88:	e1a03005 	mov	r3, r5
    8e8c:	e1a02009 	mov	r2, r9
    8e90:	e28d1098 	add	r1, sp, #152, 0	; 0x98
    8e94:	e3a0000a 	mov	r0, #10, 0
    8e98:	e58d6000 	str	r6, [sp]
    8e9c:	e1a0500c 	mov	r5, ip
    8ea0:	ebfffdea 	bl	8650 <emit.constprop.0>
    8ea4:	e59f112c 	ldr	r1, [pc, #300]	; 8fd8 <va_printk+0x600>
    8ea8:	e28d0018 	add	r0, sp, #24, 0
    8eac:	eb0002f0 	bl	9a74 <strcmp>
    8eb0:	e3500000 	cmp	r0, #0, 0
    8eb4:	e28d1098 	add	r1, sp, #152, 0	; 0x98
    8eb8:	e28d0018 	add	r0, sp, #24, 0
    8ebc:	1a000002 	bne	8ecc <va_printk+0x4f4>
    8ec0:	eb0002fc 	bl	9ab8 <strcpy>
    8ec4:	e59d6014 	ldr	r6, [sp, #20]
    8ec8:	eaffff18 	b	8b30 <va_printk+0x158>
    8ecc:	eb0002dd 	bl	9a48 <strcat>
    8ed0:	e59d6014 	ldr	r6, [sp, #20]
    8ed4:	eaffff15 	b	8b30 <va_printk+0x158>
    8ed8:	e28d5018 	add	r5, sp, #24, 0
    8edc:	e1a03005 	mov	r3, r5
    8ee0:	eaffffd5 	b	8e3c <va_printk+0x464>
    8ee4:	e3a0c000 	mov	ip, #0, 0
    8ee8:	e350007f 	cmp	r0, #127, 0	; 0x7f
    8eec:	e5c3c000 	strb	ip, [r3]
    8ef0:	caffffc3 	bgt	8e04 <va_printk+0x42c>
    8ef4:	eaffffc6 	b	8e14 <va_printk+0x43c>
    8ef8:	e3a02000 	mov	r2, #0, 0
    8efc:	e28d3098 	add	r3, sp, #152, 0	; 0x98
    8f00:	e1a00003 	mov	r0, r3
    8f04:	e5cd2099 	strb	r2, [sp, #153]	; 0x99
    8f08:	eaffff85 	b	8d24 <va_printk+0x34c>
    8f0c:	e3a03000 	mov	r3, #0, 0
    8f10:	e1a01002 	mov	r1, r2
    8f14:	e5c63001 	strb	r3, [r6, #1]
    8f18:	e59f00bc 	ldr	r0, [pc, #188]	; 8fdc <va_printk+0x604>
    8f1c:	ebfffda7 	bl	85c0 <printk>
    8f20:	e59f30b8 	ldr	r3, [pc, #184]	; 8fe0 <va_printk+0x608>
    8f24:	e59d0010 	ldr	r0, [sp, #16]
    8f28:	e5933000 	ldr	r3, [r3]
    8f2c:	e12fff33 	blx	r3
    8f30:	e3a030e2 	mov	r3, #226, 0	; 0xe2
    8f34:	e59f20a8 	ldr	r2, [pc, #168]	; 8fe4 <va_printk+0x60c>
    8f38:	e59f10a8 	ldr	r1, [pc, #168]	; 8fe8 <va_printk+0x610>
    8f3c:	e59f00a8 	ldr	r0, [pc, #168]	; 8fec <va_printk+0x614>
    8f40:	ebfffd9e 	bl	85c0 <printk>
    8f44:	eb00002e 	bl	9004 <clean_reboot>
    8f48:	e3a030be 	mov	r3, #190, 0	; 0xbe
    8f4c:	e59f2090 	ldr	r2, [pc, #144]	; 8fe4 <va_printk+0x60c>
    8f50:	e59f1090 	ldr	r1, [pc, #144]	; 8fe8 <va_printk+0x610>
    8f54:	e59f0094 	ldr	r0, [pc, #148]	; 8ff0 <va_printk+0x618>
    8f58:	ebfffd98 	bl	85c0 <printk>
    8f5c:	eb000028 	bl	9004 <clean_reboot>
    8f60:	e28dc099 	add	ip, sp, #153, 0	; 0x99
    8f64:	e1a0000c 	mov	r0, ip
    8f68:	e3a02001 	mov	r2, #1, 0
    8f6c:	eaffff58 	b	8cd4 <va_printk+0x2fc>
    8f70:	e1a0400b 	mov	r4, fp
    8f74:	eafffee0 	b	8afc <va_printk+0x124>
    8f78:	e3a03098 	mov	r3, #152, 0	; 0x98
    8f7c:	e59f2070 	ldr	r2, [pc, #112]	; 8ff4 <va_printk+0x61c>
    8f80:	e59f1060 	ldr	r1, [pc, #96]	; 8fe8 <va_printk+0x610>
    8f84:	e58d2000 	str	r2, [sp]
    8f88:	e59f0068 	ldr	r0, [pc, #104]	; 8ff8 <va_printk+0x620>
    8f8c:	e59f2050 	ldr	r2, [pc, #80]	; 8fe4 <va_printk+0x60c>
    8f90:	ebfffd8a 	bl	85c0 <printk>
    8f94:	eb00001a 	bl	9004 <clean_reboot>
    8f98:	e3a030b6 	mov	r3, #182, 0	; 0xb6
    8f9c:	e59f2040 	ldr	r2, [pc, #64]	; 8fe4 <va_printk+0x60c>
    8fa0:	e59f1040 	ldr	r1, [pc, #64]	; 8fe8 <va_printk+0x610>
    8fa4:	e59f0050 	ldr	r0, [pc, #80]	; 8ffc <va_printk+0x624>
    8fa8:	e58d6000 	str	r6, [sp]
    8fac:	ebfffd83 	bl	85c0 <printk>
    8fb0:	eb000013 	bl	9004 <clean_reboot>
    8fb4:	e3a0309f 	mov	r3, #159, 0	; 0x9f
    8fb8:	e59f2040 	ldr	r2, [pc, #64]	; 9000 <va_printk+0x628>
    8fbc:	eaffffef 	b	8f80 <va_printk+0x5a8>
    8fc0:	00009c58 	andeq	r9, r0, r8, asr ip
    8fc4:	00009c7c 	andeq	r9, r0, ip, ror ip
    8fc8:	00009c90 	muleq	r0, r0, ip
    8fcc:	00009c80 	andeq	r9, r0, r0, lsl #25
    8fd0:	00009c88 	andeq	r9, r0, r8, lsl #25
    8fd4:	20202020 	eorcs	r2, r0, r0, lsr #32
    8fd8:	00009c40 	andeq	r9, r0, r0, asr #24
    8fdc:	00009d20 	andeq	r9, r0, r0, lsr #26
    8fe0:	00009f9c 	muleq	r0, ip, pc	; <UNPREDICTABLE>
    8fe4:	00009d88 	andeq	r9, r0, r8, lsl #27
    8fe8:	00009c2c 	andeq	r9, r0, ip, lsr #24
    8fec:	00009d50 	andeq	r9, r0, r0, asr sp
    8ff0:	00009cf8 	strdeq	r9, [r0], -r8
    8ff4:	00009c70 	andeq	r9, r0, r0, ror ip
    8ff8:	00009b40 	andeq	r9, r0, r0, asr #22
    8ffc:	00009cd0 	ldrdeq	r9, [r0], -r0
    9000:	00009c94 	muleq	r0, r4, ip

00009004 <clean_reboot>:
    9004:	e59f301c 	ldr	r3, [pc, #28]	; 9028 <clean_reboot+0x24>
    9008:	e92d4010 	push	{r4, lr}
    900c:	e5933000 	ldr	r3, [r3]
    9010:	e59f0014 	ldr	r0, [pc, #20]	; 902c <clean_reboot+0x28>
    9014:	e12fff33 	blx	r3
    9018:	eb00011b 	bl	948c <uart_flush_tx>
    901c:	e3a0000a 	mov	r0, #10, 0
    9020:	eb000082 	bl	9230 <delay_ms>
    9024:	eb00004b 	bl	9158 <rpi_reboot>
    9028:	00009f9c 	muleq	r0, ip, pc	; <UNPREDICTABLE>
    902c:	00009d94 	muleq	r0, r4, sp

00009030 <_cstart>:
    9030:	e92d4070 	push	{r4, r5, r6, lr}
    9034:	eb00003b 	bl	9128 <custom_loader>
    9038:	e59f20e0 	ldr	r2, [pc, #224]	; 9120 <_cstart+0xf0>
    903c:	e59fc0e0 	ldr	ip, [pc, #224]	; 9124 <_cstart+0xf4>
    9040:	e152000c 	cmp	r2, ip
    9044:	2a00002e 	bcs	9104 <_cstart+0xd4>
    9048:	e24c1001 	sub	r1, ip, #1, 0
    904c:	e0411002 	sub	r1, r1, r2
    9050:	e3510017 	cmp	r1, #23, 0
    9054:	e1a03122 	lsr	r3, r2, #2
    9058:	e1a01121 	lsr	r1, r1, #2
    905c:	e2811001 	add	r1, r1, #1, 0
    9060:	e2033001 	and	r3, r3, #1, 0
    9064:	9a00002b 	bls	9118 <_cstart+0xe8>
    9068:	e3530000 	cmp	r3, #0, 0
    906c:	11a00002 	movne	r0, r2
    9070:	13a0e000 	movne	lr, #0, 0
    9074:	e3a04000 	mov	r4, #0, 0
    9078:	e3a05000 	mov	r5, #0, 0
    907c:	e0411003 	sub	r1, r1, r3
    9080:	01a00002 	moveq	r0, r2
    9084:	e0823103 	add	r3, r2, r3, lsl #2
    9088:	e1a020a1 	lsr	r2, r1, #1
    908c:	1480e004 	strne	lr, [r0], #4
    9090:	e0832182 	add	r2, r3, r2, lsl #3
    9094:	e0c340f8 	strd	r4, [r3], #8
    9098:	e1520003 	cmp	r2, r3
    909c:	1afffffc 	bne	9094 <_cstart+0x64>
    90a0:	e3c13001 	bic	r3, r1, #1, 0
    90a4:	e1510003 	cmp	r1, r3
    90a8:	e0803103 	add	r3, r0, r3, lsl #2
    90ac:	0a000014 	beq	9104 <_cstart+0xd4>
    90b0:	e1a01003 	mov	r1, r3
    90b4:	e3a02000 	mov	r2, #0, 0
    90b8:	e4812004 	str	r2, [r1], #4
    90bc:	e151000c 	cmp	r1, ip
    90c0:	2a00000f 	bcs	9104 <_cstart+0xd4>
    90c4:	e2831008 	add	r1, r3, #8, 0
    90c8:	e151000c 	cmp	r1, ip
    90cc:	e5832004 	str	r2, [r3, #4]
    90d0:	2a00000b 	bcs	9104 <_cstart+0xd4>
    90d4:	e283100c 	add	r1, r3, #12, 0
    90d8:	e151000c 	cmp	r1, ip
    90dc:	e5832008 	str	r2, [r3, #8]
    90e0:	2a000007 	bcs	9104 <_cstart+0xd4>
    90e4:	e2831010 	add	r1, r3, #16, 0
    90e8:	e151000c 	cmp	r1, ip
    90ec:	e583200c 	str	r2, [r3, #12]
    90f0:	2a000003 	bcs	9104 <_cstart+0xd4>
    90f4:	e2831014 	add	r1, r3, #20, 0
    90f8:	e151000c 	cmp	r1, ip
    90fc:	e5832010 	str	r2, [r3, #16]
    9100:	35832014 	strcc	r2, [r3, #20]
    9104:	eb000082 	bl	9314 <uart_init>
    9108:	e3a03001 	mov	r3, #1, 0
    910c:	ee0f3f1c 	mcr	15, 0, r3, cr15, cr12, {0}
    9110:	ebfffbc8 	bl	8038 <notmain>
    9114:	ebffffba 	bl	9004 <clean_reboot>
    9118:	e1a03002 	mov	r3, r2
    911c:	eaffffe3 	b	90b0 <_cstart+0x80>
    9120:	00009fb0 			; <UNDEFINED> instruction: 0x00009fb0
    9124:	0000a3c8 	andeq	sl, r0, r8, asr #7

00009128 <custom_loader>:
    9128:	e12fff1e 	bx	lr

0000912c <at_user_level>:
    912c:	e10f0000 	mrs	r0, CPSR
    9130:	e200001f 	and	r0, r0, #31, 0
    9134:	e2400010 	sub	r0, r0, #16, 0
    9138:	e16f0f10 	clz	r0, r0
    913c:	e1a002a0 	lsr	r0, r0, #5
    9140:	e12fff1e 	bx	lr

00009144 <set_user_level>:
    9144:	e10f3000 	mrs	r3, CPSR
    9148:	e3c3301f 	bic	r3, r3, #31, 0
    914c:	e3833010 	orr	r3, r3, #16, 0
    9150:	e129f003 	msr	CPSR_fc, r3
    9154:	e12fff1e 	bx	lr

00009158 <rpi_reboot>:
    9158:	e92d4010 	push	{r4, lr}
    915c:	e10f3000 	mrs	r3, CPSR
    9160:	e203301f 	and	r3, r3, #31, 0
    9164:	e3530010 	cmp	r3, #16, 0
    9168:	1a000003 	bne	917c <rpi_reboot+0x24>
    916c:	e10f3000 	mrs	r3, CPSR
    9170:	e3c3301f 	bic	r3, r3, #31, 0
    9174:	e3833010 	orr	r3, r3, #16, 0
    9178:	e129f003 	msr	CPSR_fc, r3
    917c:	eb00025f 	bl	9b00 <reboot_callout>
    9180:	eb0000c1 	bl	948c <uart_flush_tx>
    9184:	e3a0000a 	mov	r0, #10, 0
    9188:	eb000028 	bl	9230 <delay_ms>
    918c:	e59f1014 	ldr	r1, [pc, #20]	; 91a8 <rpi_reboot+0x50>
    9190:	e59f0014 	ldr	r0, [pc, #20]	; 91ac <rpi_reboot+0x54>
    9194:	ebfffba2 	bl	8024 <PUT32>
    9198:	e59f1010 	ldr	r1, [pc, #16]	; 91b0 <rpi_reboot+0x58>
    919c:	e59f0010 	ldr	r0, [pc, #16]	; 91b4 <rpi_reboot+0x5c>
    91a0:	ebfffb9f 	bl	8024 <PUT32>
    91a4:	eafffffe 	b	91a4 <rpi_reboot+0x4c>
    91a8:	5a000001 	bpl	91b4 <rpi_reboot+0x5c>
    91ac:	20100024 	andscs	r0, r0, r4, lsr #32
    91b0:	5a000020 	bpl	9238 <delay_ms+0x8>
    91b4:	2010001c 	andscs	r0, r0, ip, lsl r0

000091b8 <timer_get_usec_raw>:
    91b8:	e59f0000 	ldr	r0, [pc]	; 91c0 <timer_get_usec_raw+0x8>
    91bc:	eafffb9a 	b	802c <GET32>
    91c0:	20003004 	andcs	r3, r0, r4

000091c4 <timer_get_usec>:
    91c4:	e92d4010 	push	{r4, lr}
    91c8:	eb00024d 	bl	9b04 <dev_barrier>
    91cc:	e59f0010 	ldr	r0, [pc, #16]	; 91e4 <timer_get_usec+0x20>
    91d0:	ebfffb95 	bl	802c <GET32>
    91d4:	e1a04000 	mov	r4, r0
    91d8:	eb000249 	bl	9b04 <dev_barrier>
    91dc:	e1a00004 	mov	r0, r4
    91e0:	e8bd8010 	pop	{r4, pc}
    91e4:	20003004 	andcs	r3, r0, r4

000091e8 <delay_us>:
    91e8:	e92d41f0 	push	{r4, r5, r6, r7, r8, lr}
    91ec:	e1a06000 	mov	r6, r0
    91f0:	eb000243 	bl	9b04 <dev_barrier>
    91f4:	e59f0030 	ldr	r0, [pc, #48]	; 922c <delay_us+0x44>
    91f8:	ebfffb8b 	bl	802c <GET32>
    91fc:	e1a05000 	mov	r5, r0
    9200:	eb00023f 	bl	9b04 <dev_barrier>
    9204:	e59f7020 	ldr	r7, [pc, #32]	; 922c <delay_us+0x44>
    9208:	eb00023d 	bl	9b04 <dev_barrier>
    920c:	e1a00007 	mov	r0, r7
    9210:	ebfffb85 	bl	802c <GET32>
    9214:	e1a04000 	mov	r4, r0
    9218:	e0444005 	sub	r4, r4, r5
    921c:	eb000238 	bl	9b04 <dev_barrier>
    9220:	e1540006 	cmp	r4, r6
    9224:	3afffff7 	bcc	9208 <delay_us+0x20>
    9228:	e8bd81f0 	pop	{r4, r5, r6, r7, r8, pc}
    922c:	20003004 	andcs	r3, r0, r4

00009230 <delay_ms>:
    9230:	e92d41f0 	push	{r4, r5, r6, r7, r8, lr}
    9234:	e0604280 	rsb	r4, r0, r0, lsl #5
    9238:	e0800104 	add	r0, r0, r4, lsl #2
    923c:	e1a04180 	lsl	r4, r0, #3
    9240:	eb00022f 	bl	9b04 <dev_barrier>
    9244:	e59f0030 	ldr	r0, [pc, #48]	; 927c <delay_ms+0x4c>
    9248:	ebfffb77 	bl	802c <GET32>
    924c:	e1a06000 	mov	r6, r0
    9250:	eb00022b 	bl	9b04 <dev_barrier>
    9254:	e59f7020 	ldr	r7, [pc, #32]	; 927c <delay_ms+0x4c>
    9258:	eb000229 	bl	9b04 <dev_barrier>
    925c:	e1a00007 	mov	r0, r7
    9260:	ebfffb71 	bl	802c <GET32>
    9264:	e1a05000 	mov	r5, r0
    9268:	e0455006 	sub	r5, r5, r6
    926c:	eb000224 	bl	9b04 <dev_barrier>
    9270:	e1540005 	cmp	r4, r5
    9274:	8afffff7 	bhi	9258 <delay_ms+0x28>
    9278:	e8bd81f0 	pop	{r4, r5, r6, r7, r8, pc}
    927c:	20003004 	andcs	r3, r0, r4

00009280 <delay_sec>:
    9280:	e92d41f0 	push	{r4, r5, r6, r7, r8, lr}
    9284:	e0604280 	rsb	r4, r0, r0, lsl #5
    9288:	e0644304 	rsb	r4, r4, r4, lsl #6
    928c:	e0800184 	add	r0, r0, r4, lsl #3
    9290:	e1a04300 	lsl	r4, r0, #6
    9294:	eb00021a 	bl	9b04 <dev_barrier>
    9298:	e59f0030 	ldr	r0, [pc, #48]	; 92d0 <delay_sec+0x50>
    929c:	ebfffb62 	bl	802c <GET32>
    92a0:	e1a06000 	mov	r6, r0
    92a4:	eb000216 	bl	9b04 <dev_barrier>
    92a8:	e59f7020 	ldr	r7, [pc, #32]	; 92d0 <delay_sec+0x50>
    92ac:	eb000214 	bl	9b04 <dev_barrier>
    92b0:	e1a00007 	mov	r0, r7
    92b4:	ebfffb5c 	bl	802c <GET32>
    92b8:	e1a05000 	mov	r5, r0
    92bc:	e0455006 	sub	r5, r5, r6
    92c0:	eb00020f 	bl	9b04 <dev_barrier>
    92c4:	e1540005 	cmp	r4, r5
    92c8:	8afffff7 	bhi	92ac <delay_sec+0x2c>
    92cc:	e8bd81f0 	pop	{r4, r5, r6, r7, r8, pc}
    92d0:	20003004 	andcs	r3, r0, r4

000092d4 <and_in32>:
    92d4:	e92d4070 	push	{r4, r5, r6, lr}
    92d8:	e1a04000 	mov	r4, r0
    92dc:	e1a05001 	mov	r5, r1
    92e0:	ebfffb51 	bl	802c <GET32>
    92e4:	e0001005 	and	r1, r0, r5
    92e8:	e1a00004 	mov	r0, r4
    92ec:	ebfffb4c 	bl	8024 <PUT32>
    92f0:	e8bd8070 	pop	{r4, r5, r6, pc}

000092f4 <or_in32>:
    92f4:	e92d4070 	push	{r4, r5, r6, lr}
    92f8:	e1a04000 	mov	r4, r0
    92fc:	e1a05001 	mov	r5, r1
    9300:	ebfffb49 	bl	802c <GET32>
    9304:	e1801005 	orr	r1, r0, r5
    9308:	e1a00004 	mov	r0, r4
    930c:	ebfffb44 	bl	8024 <PUT32>
    9310:	e8bd8070 	pop	{r4, r5, r6, pc}

00009314 <uart_init>:
    9314:	e92d4010 	push	{r4, lr}
    9318:	e3a01002 	mov	r1, #2, 0
    931c:	e3a0000e 	mov	r0, #14, 0
    9320:	eb000153 	bl	9874 <gpio_set_function>
    9324:	e3a01002 	mov	r1, #2, 0
    9328:	e3a0000f 	mov	r0, #15, 0
    932c:	eb000150 	bl	9874 <gpio_set_function>
    9330:	eb0001f3 	bl	9b04 <dev_barrier>
    9334:	e3a01001 	mov	r1, #1, 0
    9338:	e59f0064 	ldr	r0, [pc, #100]	; 93a4 <uart_init+0x90>
    933c:	ebffffec 	bl	92f4 <or_in32>
    9340:	eb0001ef 	bl	9b04 <dev_barrier>
    9344:	e59f405c 	ldr	r4, [pc, #92]	; 93a8 <uart_init+0x94>
    9348:	e3a01000 	mov	r1, #0, 0
    934c:	e1a00004 	mov	r0, r4
    9350:	ebfffb33 	bl	8024 <PUT32>
    9354:	e3a01000 	mov	r1, #0, 0
    9358:	e59f004c 	ldr	r0, [pc, #76]	; 93ac <uart_init+0x98>
    935c:	ebfffb30 	bl	8024 <PUT32>
    9360:	e3a01003 	mov	r1, #3, 0
    9364:	e59f0044 	ldr	r0, [pc, #68]	; 93b0 <uart_init+0x9c>
    9368:	ebfffb2d 	bl	8024 <PUT32>
    936c:	e3a01000 	mov	r1, #0, 0
    9370:	e59f003c 	ldr	r0, [pc, #60]	; 93b4 <uart_init+0xa0>
    9374:	ebfffb2a 	bl	8024 <PUT32>
    9378:	e3a010c7 	mov	r1, #199, 0	; 0xc7
    937c:	e59f0034 	ldr	r0, [pc, #52]	; 93b8 <uart_init+0xa4>
    9380:	ebfffb27 	bl	8024 <PUT32>
    9384:	e59f1030 	ldr	r1, [pc, #48]	; 93bc <uart_init+0xa8>
    9388:	e59f0030 	ldr	r0, [pc, #48]	; 93c0 <uart_init+0xac>
    938c:	ebfffb24 	bl	8024 <PUT32>
    9390:	e3a01003 	mov	r1, #3, 0
    9394:	e1a00004 	mov	r0, r4
    9398:	ebfffb21 	bl	8024 <PUT32>
    939c:	eb0001d8 	bl	9b04 <dev_barrier>
    93a0:	e8bd8010 	pop	{r4, pc}
    93a4:	20215004 	eorcs	r5, r1, r4
    93a8:	20215060 	eorcs	r5, r1, r0, rrx
    93ac:	20215044 	eorcs	r5, r1, r4, asr #32
    93b0:	2021504c 	eorcs	r5, r1, ip, asr #32
    93b4:	20215050 	eorcs	r5, r1, r0, asr r0
    93b8:	20215048 	eorcs	r5, r1, r8, asr #32
    93bc:	0000010e 	andeq	r0, r0, lr, lsl #2
    93c0:	20215068 	eorcs	r5, r1, r8, rrx

000093c4 <uart_can_getc>:
    93c4:	e92d4010 	push	{r4, lr}
    93c8:	e59f0008 	ldr	r0, [pc, #8]	; 93d8 <uart_can_getc+0x14>
    93cc:	ebfffb16 	bl	802c <GET32>
    93d0:	e2000001 	and	r0, r0, #1, 0
    93d4:	e8bd8010 	pop	{r4, pc}
    93d8:	20215064 	eorcs	r5, r1, r4, rrx

000093dc <uart_can_putc>:
    93dc:	e92d4010 	push	{r4, lr}
    93e0:	e59f0010 	ldr	r0, [pc, #16]	; 93f8 <uart_can_putc+0x1c>
    93e4:	ebfffb10 	bl	802c <GET32>
    93e8:	e3100002 	tst	r0, #2, 0
    93ec:	13a00001 	movne	r0, #1, 0
    93f0:	03a00000 	moveq	r0, #0, 0
    93f4:	e8bd8010 	pop	{r4, pc}
    93f8:	20215064 	eorcs	r5, r1, r4, rrx

000093fc <uart_getc>:
    93fc:	e92d4010 	push	{r4, lr}
    9400:	eb0001bf 	bl	9b04 <dev_barrier>
    9404:	ebffffee 	bl	93c4 <uart_can_getc>
    9408:	e3500000 	cmp	r0, #0, 0
    940c:	0afffffc 	beq	9404 <uart_getc+0x8>
    9410:	e59f0010 	ldr	r0, [pc, #16]	; 9428 <uart_getc+0x2c>
    9414:	ebfffb04 	bl	802c <GET32>
    9418:	e6ef4070 	uxtb	r4, r0
    941c:	eb0001b8 	bl	9b04 <dev_barrier>
    9420:	e1a00004 	mov	r0, r4
    9424:	e8bd8010 	pop	{r4, pc}
    9428:	20215040 	eorcs	r5, r1, r0, asr #32

0000942c <uart_putc>:
    942c:	e92d4010 	push	{r4, lr}
    9430:	e1a04000 	mov	r4, r0
    9434:	eb0001b2 	bl	9b04 <dev_barrier>
    9438:	ebffffe7 	bl	93dc <uart_can_putc>
    943c:	e3500000 	cmp	r0, #0, 0
    9440:	0afffffc 	beq	9438 <uart_putc+0xc>
    9444:	e6ef1074 	uxtb	r1, r4
    9448:	e59f0008 	ldr	r0, [pc, #8]	; 9458 <uart_putc+0x2c>
    944c:	ebfffaf4 	bl	8024 <PUT32>
    9450:	eb0001ab 	bl	9b04 <dev_barrier>
    9454:	e8bd8010 	pop	{r4, pc}
    9458:	20215040 	eorcs	r5, r1, r0, asr #32

0000945c <uart_has_data>:
    945c:	e92d4010 	push	{r4, lr}
    9460:	eb0001a7 	bl	9b04 <dev_barrier>
    9464:	ebffffd6 	bl	93c4 <uart_can_getc>
    9468:	e8bd8010 	pop	{r4, pc}

0000946c <uart_tx_is_empty>:
    946c:	e92d4010 	push	{r4, lr}
    9470:	eb0001a3 	bl	9b04 <dev_barrier>
    9474:	e59f000c 	ldr	r0, [pc, #12]	; 9488 <uart_tx_is_empty+0x1c>
    9478:	ebfffaeb 	bl	802c <GET32>
    947c:	e1a004a0 	lsr	r0, r0, #9
    9480:	e2000001 	and	r0, r0, #1, 0
    9484:	e8bd8010 	pop	{r4, pc}
    9488:	20215064 	eorcs	r5, r1, r4, rrx

0000948c <uart_flush_tx>:
    948c:	e92d4010 	push	{r4, lr}
    9490:	ebfffff5 	bl	946c <uart_tx_is_empty>
    9494:	e3500000 	cmp	r0, #0, 0
    9498:	0afffffc 	beq	9490 <uart_flush_tx+0x4>
    949c:	e8bd8010 	pop	{r4, pc}

000094a0 <uart_disable>:
    94a0:	e92d4010 	push	{r4, lr}
    94a4:	ebfffff8 	bl	948c <uart_flush_tx>
    94a8:	eb000195 	bl	9b04 <dev_barrier>
    94ac:	e3e01001 	mvn	r1, #1, 0
    94b0:	e59f0008 	ldr	r0, [pc, #8]	; 94c0 <uart_disable+0x20>
    94b4:	ebffff86 	bl	92d4 <and_in32>
    94b8:	eb000191 	bl	9b04 <dev_barrier>
    94bc:	e8bd8010 	pop	{r4, pc}
    94c0:	20215004 	eorcs	r5, r1, r4

000094c4 <kmalloc_heap_end>:
    94c4:	e59f3004 	ldr	r3, [pc, #4]	; 94d0 <kmalloc_heap_end+0xc>
    94c8:	e5930000 	ldr	r0, [r3]
    94cc:	e12fff1e 	bx	lr
    94d0:	00009fa0 	andeq	r9, r0, r0, lsr #31

000094d4 <kmalloc_heap_start>:
    94d4:	e59f3004 	ldr	r3, [pc, #4]	; 94e0 <kmalloc_heap_start+0xc>
    94d8:	e5930004 	ldr	r0, [r3, #4]
    94dc:	e12fff1e 	bx	lr
    94e0:	00009fa0 	andeq	r9, r0, r0, lsr #31

000094e4 <kmalloc_heap_ptr>:
    94e4:	e59f3004 	ldr	r3, [pc, #4]	; 94f0 <kmalloc_heap_ptr+0xc>
    94e8:	e5930000 	ldr	r0, [r3]
    94ec:	e12fff1e 	bx	lr
    94f0:	00009fa0 	andeq	r9, r0, r0, lsr #31

000094f4 <kmalloc_init_set_start>:
    94f4:	e52de004 	push	{lr}		; (str lr, [sp, #-4]!)
    94f8:	e24dd00c 	sub	sp, sp, #12, 0
    94fc:	e3510000 	cmp	r1, #0, 0
    9500:	0a00000a 	beq	9530 <kmalloc_init_set_start+0x3c>
    9504:	e59f306c 	ldr	r3, [pc, #108]	; 9578 <kmalloc_init_set_start+0x84>
    9508:	e5933000 	ldr	r3, [r3]
    950c:	e1530000 	cmp	r3, r0
    9510:	8a00000e 	bhi	9550 <kmalloc_init_set_start+0x5c>
    9514:	e59f305c 	ldr	r3, [pc, #92]	; 9578 <kmalloc_init_set_start+0x84>
    9518:	e5830000 	str	r0, [r3]
    951c:	e5830004 	str	r0, [r3, #4]
    9520:	e0800001 	add	r0, r0, r1
    9524:	e5830008 	str	r0, [r3, #8]
    9528:	e28dd00c 	add	sp, sp, #12, 0
    952c:	e49df004 	pop	{pc}		; (ldr pc, [sp], #4)
    9530:	e59f3044 	ldr	r3, [pc, #68]	; 957c <kmalloc_init_set_start+0x88>
    9534:	e58d3000 	str	r3, [sp]
    9538:	e3a03030 	mov	r3, #48, 0	; 0x30
    953c:	e59f203c 	ldr	r2, [pc, #60]	; 9580 <kmalloc_init_set_start+0x8c>
    9540:	e59f103c 	ldr	r1, [pc, #60]	; 9584 <kmalloc_init_set_start+0x90>
    9544:	e59f003c 	ldr	r0, [pc, #60]	; 9588 <kmalloc_init_set_start+0x94>
    9548:	ebfffc1c 	bl	85c0 <printk>
    954c:	ebfffeac 	bl	9004 <clean_reboot>
    9550:	e59f3020 	ldr	r3, [pc, #32]	; 9578 <kmalloc_init_set_start+0x84>
    9554:	e5933008 	ldr	r3, [r3, #8]
    9558:	e58d3004 	str	r3, [sp, #4]
    955c:	e58d0000 	str	r0, [sp]
    9560:	e3a03034 	mov	r3, #52, 0	; 0x34
    9564:	e59f2014 	ldr	r2, [pc, #20]	; 9580 <kmalloc_init_set_start+0x8c>
    9568:	e59f1014 	ldr	r1, [pc, #20]	; 9584 <kmalloc_init_set_start+0x90>
    956c:	e59f0018 	ldr	r0, [pc, #24]	; 958c <kmalloc_init_set_start+0x98>
    9570:	ebfffc12 	bl	85c0 <printk>
    9574:	ebfffea2 	bl	9004 <clean_reboot>
    9578:	00009fa0 	andeq	r9, r0, r0, lsr #31
    957c:	00009dac 	andeq	r9, r0, ip, lsr #27
    9580:	00009f38 	andeq	r9, r0, r8, lsr pc
    9584:	00009da0 	andeq	r9, r0, r0, lsr #27
    9588:	00009b40 	andeq	r9, r0, r0, asr #22
    958c:	00009db8 			; <UNDEFINED> instruction: 0x00009db8

00009590 <kmalloc_init>:
    9590:	e92d4010 	push	{r4, lr}
    9594:	e59f303c 	ldr	r3, [pc, #60]	; 95d8 <kmalloc_init+0x48>
    9598:	e5933000 	ldr	r3, [r3]
    959c:	e3530000 	cmp	r3, #0, 0
    95a0:	1a000006 	bne	95c0 <kmalloc_init+0x30>
    95a4:	e59f302c 	ldr	r3, [pc, #44]	; 95d8 <kmalloc_init+0x48>
    95a8:	e3a02001 	mov	r2, #1, 0
    95ac:	e5832000 	str	r2, [r3]
    95b0:	e3a01201 	mov	r1, #268435456	; 0x10000000
    95b4:	e3a00601 	mov	r0, #1048576	; 0x100000
    95b8:	ebffffcd 	bl	94f4 <kmalloc_init_set_start>
    95bc:	e8bd8010 	pop	{r4, pc}
    95c0:	e3a03040 	mov	r3, #64, 0	; 0x40
    95c4:	e59f2010 	ldr	r2, [pc, #16]	; 95dc <kmalloc_init+0x4c>
    95c8:	e59f1010 	ldr	r1, [pc, #16]	; 95e0 <kmalloc_init+0x50>
    95cc:	e59f0010 	ldr	r0, [pc, #16]	; 95e4 <kmalloc_init+0x54>
    95d0:	ebfffbfa 	bl	85c0 <printk>
    95d4:	ebfffe8a 	bl	9004 <clean_reboot>
    95d8:	0000a3c4 	andeq	sl, r0, r4, asr #7
    95dc:	00009f50 	andeq	r9, r0, r0, asr pc
    95e0:	00009da0 	andeq	r9, r0, r0, lsr #27
    95e4:	00009dfc 	strdeq	r9, [r0], -ip

000095e8 <kmalloc_notzero>:
    95e8:	e52de004 	push	{lr}		; (str lr, [sp, #-4]!)
    95ec:	e24dd00c 	sub	sp, sp, #12, 0
    95f0:	e3500000 	cmp	r0, #0, 0
    95f4:	0a00000a 	beq	9624 <kmalloc_notzero+0x3c>
    95f8:	e2800007 	add	r0, r0, #7, 0
    95fc:	e3c03007 	bic	r3, r0, #7, 0
    9600:	e59f2060 	ldr	r2, [pc, #96]	; 9668 <kmalloc_notzero+0x80>
    9604:	e5920000 	ldr	r0, [r2]
    9608:	e0801003 	add	r1, r0, r3
    960c:	e5821000 	str	r1, [r2]
    9610:	e5922008 	ldr	r2, [r2, #8]
    9614:	e1510002 	cmp	r1, r2
    9618:	8a000009 	bhi	9644 <kmalloc_notzero+0x5c>
    961c:	e28dd00c 	add	sp, sp, #12, 0
    9620:	e49df004 	pop	{pc}		; (ldr pc, [sp], #4)
    9624:	e59f3040 	ldr	r3, [pc, #64]	; 966c <kmalloc_notzero+0x84>
    9628:	e58d3000 	str	r3, [sp]
    962c:	e3a03048 	mov	r3, #72, 0	; 0x48
    9630:	e59f2038 	ldr	r2, [pc, #56]	; 9670 <kmalloc_notzero+0x88>
    9634:	e59f1038 	ldr	r1, [pc, #56]	; 9674 <kmalloc_notzero+0x8c>
    9638:	e59f0038 	ldr	r0, [pc, #56]	; 9678 <kmalloc_notzero+0x90>
    963c:	ebfffbdf 	bl	85c0 <printk>
    9640:	ebfffe6f 	bl	9004 <clean_reboot>
    9644:	e0422000 	sub	r2, r2, r0
    9648:	e58d2004 	str	r2, [sp, #4]
    964c:	e58d3000 	str	r3, [sp]
    9650:	e3a0304e 	mov	r3, #78, 0	; 0x4e
    9654:	e59f2014 	ldr	r2, [pc, #20]	; 9670 <kmalloc_notzero+0x88>
    9658:	e59f1014 	ldr	r1, [pc, #20]	; 9674 <kmalloc_notzero+0x8c>
    965c:	e59f0018 	ldr	r0, [pc, #24]	; 967c <kmalloc_notzero+0x94>
    9660:	ebfffbd6 	bl	85c0 <printk>
    9664:	ebfffe66 	bl	9004 <clean_reboot>
    9668:	00009fa0 	andeq	r9, r0, r0, lsr #31
    966c:	00009db0 			; <UNDEFINED> instruction: 0x00009db0
    9670:	00009f60 	andeq	r9, r0, r0, ror #30
    9674:	00009da0 	andeq	r9, r0, r0, lsr #27
    9678:	00009b40 	andeq	r9, r0, r0, asr #22
    967c:	00009e2c 	andeq	r9, r0, ip, lsr #28

00009680 <kmalloc>:
    9680:	e92d4030 	push	{r4, r5, lr}
    9684:	e24dd00c 	sub	sp, sp, #12, 0
    9688:	e2504000 	subs	r4, r0, #0, 0
    968c:	0a000008 	beq	96b4 <kmalloc+0x34>
    9690:	e1a00004 	mov	r0, r4
    9694:	ebffffd3 	bl	95e8 <kmalloc_notzero>
    9698:	e1a05000 	mov	r5, r0
    969c:	e1a02004 	mov	r2, r4
    96a0:	e3a01000 	mov	r1, #0, 0
    96a4:	ebfffba7 	bl	8548 <memset>
    96a8:	e1a00005 	mov	r0, r5
    96ac:	e28dd00c 	add	sp, sp, #12, 0
    96b0:	e8bd8030 	pop	{r4, r5, pc}
    96b4:	e59f3018 	ldr	r3, [pc, #24]	; 96d4 <kmalloc+0x54>
    96b8:	e58d3000 	str	r3, [sp]
    96bc:	e3a03054 	mov	r3, #84, 0	; 0x54
    96c0:	e59f2010 	ldr	r2, [pc, #16]	; 96d8 <kmalloc+0x58>
    96c4:	e59f1010 	ldr	r1, [pc, #16]	; 96dc <kmalloc+0x5c>
    96c8:	e59f0010 	ldr	r0, [pc, #16]	; 96e0 <kmalloc+0x60>
    96cc:	ebfffbbb 	bl	85c0 <printk>
    96d0:	ebfffe4b 	bl	9004 <clean_reboot>
    96d4:	00009db0 			; <UNDEFINED> instruction: 0x00009db0
    96d8:	00009f70 	andeq	r9, r0, r0, ror pc
    96dc:	00009da0 	andeq	r9, r0, r0, lsr #27
    96e0:	00009b40 	andeq	r9, r0, r0, asr #22

000096e4 <kmalloc_aligned>:
    96e4:	e52de004 	push	{lr}		; (str lr, [sp, #-4]!)
    96e8:	e24dd00c 	sub	sp, sp, #12, 0
    96ec:	e3500000 	cmp	r0, #0, 0
    96f0:	0a000014 	beq	9748 <kmalloc_aligned+0x64>
    96f4:	e2613000 	rsb	r3, r1, #0, 0
    96f8:	e1d13003 	bics	r3, r1, r3
    96fc:	1a000019 	bne	9768 <kmalloc_aligned+0x84>
    9700:	e3510008 	cmp	r1, #8, 0
    9704:	33a01008 	movcc	r1, #8, 0
    9708:	e59f30c0 	ldr	r3, [pc, #192]	; 97d0 <kmalloc_aligned+0xec>
    970c:	e5932000 	ldr	r2, [r3]
    9710:	e2613000 	rsb	r3, r1, #0, 0
    9714:	e1d1c003 	bics	ip, r1, r3
    9718:	1a00001b 	bne	978c <kmalloc_aligned+0xa8>
    971c:	e0822001 	add	r2, r2, r1
    9720:	e2422001 	sub	r2, r2, #1, 0
    9724:	e0033002 	and	r3, r3, r2
    9728:	e2411001 	sub	r1, r1, #1, 0
    972c:	e1110003 	tst	r1, r3
    9730:	1a00001d 	bne	97ac <kmalloc_aligned+0xc8>
    9734:	e59f2094 	ldr	r2, [pc, #148]	; 97d0 <kmalloc_aligned+0xec>
    9738:	e5823000 	str	r3, [r2]
    973c:	ebffffcf 	bl	9680 <kmalloc>
    9740:	e28dd00c 	add	sp, sp, #12, 0
    9744:	e49df004 	pop	{pc}		; (ldr pc, [sp], #4)
    9748:	e59f3084 	ldr	r3, [pc, #132]	; 97d4 <kmalloc_aligned+0xf0>
    974c:	e58d3000 	str	r3, [sp]
    9750:	e3a0305f 	mov	r3, #95, 0	; 0x5f
    9754:	e59f207c 	ldr	r2, [pc, #124]	; 97d8 <kmalloc_aligned+0xf4>
    9758:	e59f107c 	ldr	r1, [pc, #124]	; 97dc <kmalloc_aligned+0xf8>
    975c:	e59f007c 	ldr	r0, [pc, #124]	; 97e0 <kmalloc_aligned+0xfc>
    9760:	ebfffb96 	bl	85c0 <printk>
    9764:	ebfffe26 	bl	9004 <clean_reboot>
    9768:	eb0000ac 	bl	9a20 <rpi_reset_putc>
    976c:	e59f3070 	ldr	r3, [pc, #112]	; 97e4 <kmalloc_aligned+0x100>
    9770:	e58d3000 	str	r3, [sp]
    9774:	e3a03060 	mov	r3, #96, 0	; 0x60
    9778:	e59f2058 	ldr	r2, [pc, #88]	; 97d8 <kmalloc_aligned+0xf4>
    977c:	e59f1058 	ldr	r1, [pc, #88]	; 97dc <kmalloc_aligned+0xf8>
    9780:	e59f0060 	ldr	r0, [pc, #96]	; 97e8 <kmalloc_aligned+0x104>
    9784:	ebfffb8d 	bl	85c0 <printk>
    9788:	ebfffe1d 	bl	9004 <clean_reboot>
    978c:	e59f3058 	ldr	r3, [pc, #88]	; 97ec <kmalloc_aligned+0x108>
    9790:	e58d3000 	str	r3, [sp]
    9794:	e3a03011 	mov	r3, #17, 0
    9798:	e59f2050 	ldr	r2, [pc, #80]	; 97f0 <kmalloc_aligned+0x10c>
    979c:	e59f1038 	ldr	r1, [pc, #56]	; 97dc <kmalloc_aligned+0xf8>
    97a0:	e59f0038 	ldr	r0, [pc, #56]	; 97e0 <kmalloc_aligned+0xfc>
    97a4:	ebfffb85 	bl	85c0 <printk>
    97a8:	ebfffe15 	bl	9004 <clean_reboot>
    97ac:	eb00009b 	bl	9a20 <rpi_reset_putc>
    97b0:	e59f303c 	ldr	r3, [pc, #60]	; 97f4 <kmalloc_aligned+0x110>
    97b4:	e58d3000 	str	r3, [sp]
    97b8:	e3a03068 	mov	r3, #104, 0	; 0x68
    97bc:	e59f2014 	ldr	r2, [pc, #20]	; 97d8 <kmalloc_aligned+0xf4>
    97c0:	e59f1014 	ldr	r1, [pc, #20]	; 97dc <kmalloc_aligned+0xf8>
    97c4:	e59f002c 	ldr	r0, [pc, #44]	; 97f8 <kmalloc_aligned+0x114>
    97c8:	ebfffb7c 	bl	85c0 <printk>
    97cc:	ebfffe0c 	bl	9004 <clean_reboot>
    97d0:	00009fa0 	andeq	r9, r0, r0, lsr #31
    97d4:	00009db0 			; <UNDEFINED> instruction: 0x00009db0
    97d8:	00009f78 	andeq	r9, r0, r8, ror pc
    97dc:	00009da0 	andeq	r9, r0, r0, lsr #27
    97e0:	00009b40 	andeq	r9, r0, r0, asr #22
    97e4:	00009ea0 	andeq	r9, r0, r0, lsr #29
    97e8:	00009e6c 	andeq	r9, r0, ip, ror #28
    97ec:	00009eb4 			; <UNDEFINED> instruction: 0x00009eb4
    97f0:	00009f88 	andeq	r9, r0, r8, lsl #31
    97f4:	00009eec 	andeq	r9, r0, ip, ror #29
    97f8:	00009ec0 	andeq	r9, r0, r0, asr #29

000097fc <kfree>:
    97fc:	e12fff1e 	bx	lr

00009800 <kfree_all>:
    9800:	e59f3008 	ldr	r3, [pc, #8]	; 9810 <kfree_all+0x10>
    9804:	e5932004 	ldr	r2, [r3, #4]
    9808:	e5832000 	str	r2, [r3]
    980c:	e12fff1e 	bx	lr
    9810:	00009fa0 	andeq	r9, r0, r0, lsr #31

00009814 <kfree_pop>:
    9814:	e59f3048 	ldr	r3, [pc, #72]	; 9864 <kfree_pop+0x50>
    9818:	e5933004 	ldr	r3, [r3, #4]
    981c:	e1530000 	cmp	r3, r0
    9820:	8a000006 	bhi	9840 <kfree_pop+0x2c>
    9824:	e59f3038 	ldr	r3, [pc, #56]	; 9864 <kfree_pop+0x50>
    9828:	e5933008 	ldr	r3, [r3, #8]
    982c:	e1530000 	cmp	r3, r0
    9830:	3a000002 	bcc	9840 <kfree_pop+0x2c>
    9834:	e59f3028 	ldr	r3, [pc, #40]	; 9864 <kfree_pop+0x50>
    9838:	e5830000 	str	r0, [r3]
    983c:	e12fff1e 	bx	lr
    9840:	e52de004 	push	{lr}		; (str lr, [sp, #-4]!)
    9844:	e24dd00c 	sub	sp, sp, #12, 0
    9848:	e58d0000 	str	r0, [sp]
    984c:	e3a03077 	mov	r3, #119, 0	; 0x77
    9850:	e59f2010 	ldr	r2, [pc, #16]	; 9868 <kfree_pop+0x54>
    9854:	e59f1010 	ldr	r1, [pc, #16]	; 986c <kfree_pop+0x58>
    9858:	e59f0010 	ldr	r0, [pc, #16]	; 9870 <kfree_pop+0x5c>
    985c:	ebfffb57 	bl	85c0 <printk>
    9860:	ebfffde7 	bl	9004 <clean_reboot>
    9864:	00009fa0 	andeq	r9, r0, r0, lsr #31
    9868:	00009f90 	muleq	r0, r0, pc	; <UNPREDICTABLE>
    986c:	00009da0 	andeq	r9, r0, r0, lsr #27
    9870:	00009f08 	andeq	r9, r0, r8, lsl #30

00009874 <gpio_set_function>:
    9874:	e350001f 	cmp	r0, #31, 0
    9878:	812fff1e 	bxhi	lr
    987c:	e3d13007 	bics	r3, r1, #7, 0
    9880:	e92d4070 	push	{r4, r5, r6, lr}
    9884:	e1a05001 	mov	r5, r1
    9888:	18bd8070 	popne	{r4, r5, r6, pc}
    988c:	e59f403c 	ldr	r4, [pc, #60]	; 98d0 <gpio_set_function+0x5c>
    9890:	e0843094 	umull	r3, r4, r4, r0
    9894:	e1a041a4 	lsr	r4, r4, #3
    9898:	e2843302 	add	r3, r4, #134217728	; 0x8000000
    989c:	e2833702 	add	r3, r3, #524288	; 0x80000
    98a0:	e1a06103 	lsl	r6, r3, #2
    98a4:	e0844104 	add	r4, r4, r4, lsl #2
    98a8:	e0404084 	sub	r4, r0, r4, lsl #1
    98ac:	e1a00006 	mov	r0, r6
    98b0:	ebfff9dd 	bl	802c <GET32>
    98b4:	e3a01007 	mov	r1, #7, 0
    98b8:	e0844084 	add	r4, r4, r4, lsl #1
    98bc:	e1c01411 	bic	r1, r0, r1, lsl r4
    98c0:	e1811415 	orr	r1, r1, r5, lsl r4
    98c4:	e1a00006 	mov	r0, r6
    98c8:	e8bd4070 	pop	{r4, r5, r6, lr}
    98cc:	eafff9d4 	b	8024 <PUT32>
    98d0:	cccccccd 	stclgt	12, cr12, [ip], {205}	; 0xcd

000098d4 <gpio_set_output>:
    98d4:	e350001f 	cmp	r0, #31, 0
    98d8:	812fff1e 	bxhi	lr
    98dc:	e92d4070 	push	{r4, r5, r6, lr}
    98e0:	e59f4040 	ldr	r4, [pc, #64]	; 9928 <gpio_set_output+0x54>
    98e4:	e0843094 	umull	r3, r4, r4, r0
    98e8:	e1a041a4 	lsr	r4, r4, #3
    98ec:	e2843302 	add	r3, r4, #134217728	; 0x8000000
    98f0:	e2833702 	add	r3, r3, #524288	; 0x80000
    98f4:	e1a05103 	lsl	r5, r3, #2
    98f8:	e0844104 	add	r4, r4, r4, lsl #2
    98fc:	e0404084 	sub	r4, r0, r4, lsl #1
    9900:	e1a00005 	mov	r0, r5
    9904:	ebfff9c8 	bl	802c <GET32>
    9908:	e3a03007 	mov	r3, #7, 0
    990c:	e3a01001 	mov	r1, #1, 0
    9910:	e0844084 	add	r4, r4, r4, lsl #1
    9914:	e1c03413 	bic	r3, r0, r3, lsl r4
    9918:	e1831411 	orr	r1, r3, r1, lsl r4
    991c:	e1a00005 	mov	r0, r5
    9920:	e8bd4070 	pop	{r4, r5, r6, lr}
    9924:	eafff9be 	b	8024 <PUT32>
    9928:	cccccccd 	stclgt	12, cr12, [ip], {205}	; 0xcd

0000992c <gpio_set_on>:
    992c:	e1a03000 	mov	r3, r0
    9930:	e3a01001 	mov	r1, #1, 0
    9934:	e59f0004 	ldr	r0, [pc, #4]	; 9940 <gpio_set_on+0x14>
    9938:	e1a01311 	lsl	r1, r1, r3
    993c:	eafff9b8 	b	8024 <PUT32>
    9940:	2020001c 	eorcs	r0, r0, ip, lsl r0

00009944 <gpio_set_off>:
    9944:	e1a03000 	mov	r3, r0
    9948:	e3a01001 	mov	r1, #1, 0
    994c:	e59f0004 	ldr	r0, [pc, #4]	; 9958 <gpio_set_off+0x14>
    9950:	e1a01311 	lsl	r1, r1, r3
    9954:	eafff9b2 	b	8024 <PUT32>
    9958:	20200028 	eorcs	r0, r0, r8, lsr #32

0000995c <gpio_set_input>:
    995c:	e350001f 	cmp	r0, #31, 0
    9960:	812fff1e 	bxhi	lr
    9964:	e92d4070 	push	{r4, r5, r6, lr}
    9968:	e59f5040 	ldr	r5, [pc, #64]	; 99b0 <gpio_set_input+0x54>
    996c:	e1a04000 	mov	r4, r0
    9970:	e0853095 	umull	r3, r5, r5, r0
    9974:	e1a051a5 	lsr	r5, r5, #3
    9978:	e2850302 	add	r0, r5, #134217728	; 0x8000000
    997c:	e2800702 	add	r0, r0, #524288	; 0x80000
    9980:	e1a06100 	lsl	r6, r0, #2
    9984:	e1a00006 	mov	r0, r6
    9988:	ebfff9a7 	bl	802c <GET32>
    998c:	e3a01007 	mov	r1, #7, 0
    9990:	e1a03000 	mov	r3, r0
    9994:	e0855105 	add	r5, r5, r5, lsl #2
    9998:	e0444085 	sub	r4, r4, r5, lsl #1
    999c:	e0844084 	add	r4, r4, r4, lsl #1
    99a0:	e1a00006 	mov	r0, r6
    99a4:	e1c31411 	bic	r1, r3, r1, lsl r4
    99a8:	e8bd4070 	pop	{r4, r5, r6, lr}
    99ac:	eafff99c 	b	8024 <PUT32>
    99b0:	cccccccd 	stclgt	12, cr12, [ip], {205}	; 0xcd

000099b4 <gpio_write>:
    99b4:	e3510000 	cmp	r1, #0, 0
    99b8:	e3a03001 	mov	r3, #1, 0
    99bc:	e1a01000 	mov	r1, r0
    99c0:	0a000002 	beq	99d0 <gpio_write+0x1c>
    99c4:	e59f0010 	ldr	r0, [pc, #16]	; 99dc <gpio_write+0x28>
    99c8:	e1a01113 	lsl	r1, r3, r1
    99cc:	eafff994 	b	8024 <PUT32>
    99d0:	e59f0008 	ldr	r0, [pc, #8]	; 99e0 <gpio_write+0x2c>
    99d4:	e1a01113 	lsl	r1, r3, r1
    99d8:	eafff991 	b	8024 <PUT32>
    99dc:	2020001c 	eorcs	r0, r0, ip, lsl r0
    99e0:	20200028 	eorcs	r0, r0, r8, lsr #32

000099e4 <gpio_read>:
    99e4:	e92d4010 	push	{r4, lr}
    99e8:	e1a04000 	mov	r4, r0
    99ec:	e59f0014 	ldr	r0, [pc, #20]	; 9a08 <gpio_read+0x24>
    99f0:	e08002a4 	add	r0, r0, r4, lsr #5
    99f4:	ebfff98c 	bl	802c <GET32>
    99f8:	e204401f 	and	r4, r4, #31, 0
    99fc:	e1a00430 	lsr	r0, r0, r4
    9a00:	e2000001 	and	r0, r0, #1, 0
    9a04:	e8bd8010 	pop	{r4, pc}
    9a08:	20200034 	eorcs	r0, r0, r4, lsr r0

00009a0c <internal_putchar>:
    9a0c:	e92d4010 	push	{r4, lr}
    9a10:	e1a04000 	mov	r4, r0
    9a14:	ebfffe84 	bl	942c <uart_putc>
    9a18:	e1a00004 	mov	r0, r4
    9a1c:	e8bd8010 	pop	{r4, pc}

00009a20 <rpi_reset_putc>:
    9a20:	e59f3008 	ldr	r3, [pc, #8]	; 9a30 <rpi_reset_putc+0x10>
    9a24:	e59f2008 	ldr	r2, [pc, #8]	; 9a34 <rpi_reset_putc+0x14>
    9a28:	e5832000 	str	r2, [r3]
    9a2c:	e12fff1e 	bx	lr
    9a30:	00009fac 	andeq	r9, r0, ip, lsr #31
    9a34:	00009a0c 	andeq	r9, r0, ip, lsl #20

00009a38 <rpi_set_putc>:
    9a38:	e59f3004 	ldr	r3, [pc, #4]	; 9a44 <rpi_set_putc+0xc>
    9a3c:	e5830000 	str	r0, [r3]
    9a40:	e12fff1e 	bx	lr
    9a44:	00009fac 	andeq	r9, r0, ip, lsr #31

00009a48 <strcat>:
    9a48:	e1a02000 	mov	r2, r0
    9a4c:	e1a03002 	mov	r3, r2
    9a50:	e4d2c001 	ldrb	ip, [r2], #1
    9a54:	e35c0000 	cmp	ip, #0, 0
    9a58:	1afffffb 	bne	9a4c <strcat+0x4>
    9a5c:	e2433001 	sub	r3, r3, #1, 0
    9a60:	e4d12001 	ldrb	r2, [r1], #1
    9a64:	e3520000 	cmp	r2, #0, 0
    9a68:	e5e32001 	strb	r2, [r3, #1]!
    9a6c:	1afffffb 	bne	9a60 <strcat+0x18>
    9a70:	e12fff1e 	bx	lr

00009a74 <strcmp>:
    9a74:	e5d03000 	ldrb	r3, [r0]
    9a78:	e3530000 	cmp	r3, #0, 0
    9a7c:	05d12000 	ldrbeq	r2, [r1]
    9a80:	1a000003 	bne	9a94 <strcmp+0x20>
    9a84:	ea000006 	b	9aa4 <strcmp+0x30>
    9a88:	e5f03001 	ldrb	r3, [r0, #1]!
    9a8c:	e3530000 	cmp	r3, #0, 0
    9a90:	0a000005 	beq	9aac <strcmp+0x38>
    9a94:	e1a0c001 	mov	ip, r1
    9a98:	e4d12001 	ldrb	r2, [r1], #1
    9a9c:	e1520003 	cmp	r2, r3
    9aa0:	0afffff8 	beq	9a88 <strcmp+0x14>
    9aa4:	e0430002 	sub	r0, r3, r2
    9aa8:	e12fff1e 	bx	lr
    9aac:	e5dc2001 	ldrb	r2, [ip, #1]
    9ab0:	e0430002 	sub	r0, r3, r2
    9ab4:	e12fff1e 	bx	lr

00009ab8 <strcpy>:
    9ab8:	e2402001 	sub	r2, r0, #1, 0
    9abc:	e4d13001 	ldrb	r3, [r1], #1
    9ac0:	e3530000 	cmp	r3, #0, 0
    9ac4:	e5e23001 	strb	r3, [r2, #1]!
    9ac8:	1afffffb 	bne	9abc <strcpy+0x4>
    9acc:	e12fff1e 	bx	lr

00009ad0 <strncmp>:
    9ad0:	e0802002 	add	r2, r0, r2
    9ad4:	ea000003 	b	9ae8 <strncmp+0x18>
    9ad8:	e4d03001 	ldrb	r3, [r0], #1
    9adc:	e4d1c001 	ldrb	ip, [r1], #1
    9ae0:	e153000c 	cmp	r3, ip
    9ae4:	1a000003 	bne	9af8 <strncmp+0x28>
    9ae8:	e1500002 	cmp	r0, r2
    9aec:	1afffff9 	bne	9ad8 <strncmp+0x8>
    9af0:	e3a00000 	mov	r0, #0, 0
    9af4:	e12fff1e 	bx	lr
    9af8:	e043000c 	sub	r0, r3, ip
    9afc:	e12fff1e 	bx	lr

00009b00 <reboot_callout>:
    9b00:	e12fff1e 	bx	lr

00009b04 <dev_barrier>:
    9b04:	ea000002 	b	9b14 <dsb>

00009b08 <dmb>:
    9b08:	e3a00000 	mov	r0, #0, 0
    9b0c:	ee070fba 	mcr	15, 0, r0, cr7, cr10, {5}
    9b10:	e12fff1e 	bx	lr

00009b14 <dsb>:
    9b14:	ee070f9a 	mcr	15, 0, r0, cr7, cr10, {4}
    9b18:	e12fff1e 	bx	lr

00009b1c <__code_end__>:
    9b1c:	00000000 	andeq	r0, r0, r0

Disassembly of section .rodata:

00009b20 <__FUNCTION__.3992-0xc>:
    9b20:	6b632d33 	blvs	18d4ff4 <__bss_end__+0x18cac2c>
    9b24:	6f6c6c61 	svcvs	0x006c6c61
    9b28:	00632e63 	rsbeq	r2, r3, r3, ror #28

00009b2c <__FUNCTION__.3992>:
    9b2c:	6d746f6e 	ldclvs	15, cr6, [r4, #-440]!	; 0xfffffe48
    9b30:	006e6961 	rsbeq	r6, lr, r1, ror #18
    9b34:	6c616b63 			; <UNDEFINED> instruction: 0x6c616b63
    9b38:	2e636f6c 	cdpcs	15, 6, cr6, cr3, cr12, {3}
    9b3c:	00000063 	andeq	r0, r0, r3, rrx
    9b40:	494e4150 	stmdbmi	lr, {r4, r6, r8, lr}^
    9b44:	73253a43 			; <UNDEFINED> instruction: 0x73253a43
    9b48:	3a73253a 	bcc	1cd3038 <__bss_end__+0x1cc8c70>
    9b4c:	253a6425 	ldrcs	r6, [sl, #-1061]!	; 0xfffffbdb
    9b50:	00000a73 	andeq	r0, r0, r3, ror sl
    9b54:	0000006c 	andeq	r0, r0, ip, rrx
    9b58:	494e4150 	stmdbmi	lr, {r4, r6, r8, lr}^
    9b5c:	73253a43 			; <UNDEFINED> instruction: 0x73253a43
    9b60:	3a73253a 	bcc	1cd3050 <__bss_end__+0x1cc8c88>
    9b64:	643a6425 	ldrtvs	r6, [sl], #-1061	; 0xfffffbdb
    9b68:	6e206469 	cdpvs	4, 2, cr6, cr0, cr9, {3}
    9b6c:	6620746f 	strtvs	r7, [r0], -pc, ror #8
    9b70:	20646e69 	rsbcs	r6, r4, r9, ror #28
    9b74:	69207025 	stmdbvs	r0!, {r0, r2, r5, ip, sp, lr}
    9b78:	696c206e 	stmdbvs	ip!, {r1, r2, r3, r5, r6, sp}^
    9b7c:	0a0a7473 	beq	2a6d50 <__bss_end__+0x29c988>
    9b80:	00000000 	andeq	r0, r0, r0
    9b84:	6e756f66 	cdpvs	15, 7, cr6, cr5, cr6, {3}
    9b88:	70252064 	eorvc	r2, r5, r4, rrx
    9b8c:	206e6920 	rsbcs	r6, lr, r0, lsr #18
    9b90:	000a7025 	andeq	r7, sl, r5, lsr #32
    9b94:	253a7325 	ldrcs	r7, [sl, #-805]!	; 0xfffffcdb
    9b98:	64253a73 	strtvs	r3, [r5], #-2675	; 0xfffff58d
    9b9c:	0000003a 	andeq	r0, r0, sl, lsr r0
    9ba0:	65657266 	strbvs	r7, [r5, #-614]!	; 0xfffffd9a
    9ba4:	20676e69 	rsbcs	r6, r7, r9, ror #28
    9ba8:	0a702509 	beq	1c12fd4 <__bss_end__+0x1c08c0c>
    9bac:	00000000 	andeq	r0, r0, r0
    9bb0:	5f434f4c 	svcpl	0x00434f4c
    9bb4:	494e4150 	stmdbmi	lr, {r4, r6, r8, lr}^
    9bb8:	25203a43 	strcs	r3, [r0, #-2627]!	; 0xfffff5bd
    9bbc:	73253a73 			; <UNDEFINED> instruction: 0x73253a73
    9bc0:	3a64253a 	bcc	19130b0 <__bss_end__+0x1908ce8>
    9bc4:	00000000 	andeq	r0, r0, r0
    9bc8:	65657266 	strbvs	r7, [r5, #-614]!	; 0xfffffd9a
    9bcc:	20676e69 	rsbcs	r6, r7, r9, ror #28
    9bd0:	6c616e75 	stclvs	14, cr6, [r1], #-468	; 0xfffffe2c
    9bd4:	61636f6c 	cmnvs	r3, ip, ror #30
    9bd8:	20646574 	rsbcs	r6, r4, r4, ror r5
    9bdc:	6f6d656d 	svcvs	0x006d656d
    9be0:	203a7972 	eorscs	r7, sl, r2, ror r9
    9be4:	74617473 	strbtvc	r7, [r1], #-1139	; 0xfffffb8d
    9be8:	64253d65 	strtvs	r3, [r5], #-3429	; 0xfffff29b
    9bec:	0000000a 	andeq	r0, r0, sl
    9bf0:	705f6b63 	subsvc	r6, pc, r3, ror #22
    9bf4:	695f7274 	ldmdbvs	pc, {r2, r4, r5, r6, r9, ip, sp, lr}^	; <UNPREDICTABLE>
    9bf8:	6c615f73 	stclvs	15, cr5, [r1], #-460	; 0xfffffe34
    9bfc:	65636f6c 	strbvs	r6, [r3, #-3948]!	; 0xfffff094
    9c00:	64612864 	strbtvs	r2, [r1], #-2148	; 0xfffff79c
    9c04:	00297264 	eoreq	r7, r9, r4, ror #4
    9c08:	6f6c6c61 	svcvs	0x006c6c61
    9c0c:	69746163 	ldmdbvs	r4!, {r0, r1, r5, r6, r8, sp, lr}^
    9c10:	0920676e 	stmdbeq	r0!, {r1, r2, r3, r5, r6, r8, r9, sl, sp, lr}
    9c14:	000a7025 	andeq	r7, sl, r5, lsr #32

00009c18 <__FUNCTION__.4016>:
    9c18:	7473696c 	ldrbtvc	r6, [r3], #-2412	; 0xfffff694
    9c1c:	6d65725f 	sfmvs	f7, 2, [r5, #-380]!	; 0xfffffe84
    9c20:	0065766f 	rsbeq	r7, r5, pc, ror #12

00009c24 <__FUNCTION__.4027>:
    9c24:	72666b63 	rsbvc	r6, r6, #101376	; 0x18c00
    9c28:	00006565 	andeq	r6, r0, r5, ror #10
    9c2c:	696c2f2e 	stmdbvs	ip!, {r1, r2, r3, r5, r8, r9, sl, fp, sp}^
    9c30:	762f6362 	strtvc	r6, [pc], -r2, ror #6
    9c34:	72702d61 	rsbsvc	r2, r0, #6208	; 0x1840
    9c38:	6b746e69 	blvs	1d255e4 <__bss_end__+0x1d1b21c>
    9c3c:	0000632e 	andeq	r6, r0, lr, lsr #6
    9c40:	00000030 	andeq	r0, r0, r0, lsr r0
    9c44:	33323130 	teqcc	r2, #12
    9c48:	37363534 			; <UNDEFINED> instruction: 0x37363534
    9c4c:	62613938 	rsbvs	r3, r1, #56, 18	; 0xe0000
    9c50:	66656463 	strbtvs	r6, [r5], -r3, ror #8
    9c54:	00000000 	andeq	r0, r0, r0
    9c58:	00003130 	andeq	r3, r0, r0, lsr r1
    9c5c:	33323130 	teqcc	r2, #12
    9c60:	37363534 			; <UNDEFINED> instruction: 0x37363534
    9c64:	00003938 	andeq	r3, r0, r8, lsr r9
    9c68:	63747570 	cmnvs	r4, #112, 10	; 0x1c000000
    9c6c:	0070665f 	rsbseq	r6, r0, pc, asr r6
    9c70:	74646977 	strbtvc	r6, [r4], #-2423	; 0xfffff689
    9c74:	203c2068 	eorscs	r2, ip, r8, rrx
    9c78:	00003233 	andeq	r3, r0, r3, lsr r2
    9c7c:	00786c6c 	rsbseq	r6, r8, ip, ror #24
    9c80:	253d3078 	ldrcs	r3, [sp, #-120]!	; 0xffffff88
    9c84:	00000a78 	andeq	r0, r0, r8, ror sl
    9c88:	253d3178 	ldrcs	r3, [sp, #-376]!	; 0xfffffe88
    9c8c:	00000a78 	andeq	r0, r0, r8, ror sl
    9c90:	00646c6c 	rsbeq	r6, r4, ip, ror #24
    9c94:	6e727473 	mrcvs	4, 3, r7, cr2, cr3, {3}
    9c98:	28706d63 	ldmdacs	r0!, {r0, r1, r5, r6, r8, sl, fp, sp, lr}^
    9c9c:	202c7974 	eorcs	r7, ip, r4, ror r9
    9ca0:	786c6c22 	stmdavc	ip!, {r1, r5, sl, fp, sp, lr}^
    9ca4:	33202c22 			; <UNDEFINED> instruction: 0x33202c22
    9ca8:	3d3d2029 	ldccc	0, cr2, [sp, #-164]!	; 0xffffff5c
    9cac:	7c203020 	stcvc	0, cr3, [r0], #-128	; 0xffffff80
    9cb0:	7473207c 	ldrbtvc	r2, [r3], #-124	; 0xffffff84
    9cb4:	6d636e72 	stclvs	14, cr6, [r3, #-456]!	; 0xfffffe38
    9cb8:	79742870 	ldmdbvc	r4!, {r4, r5, r6, fp, sp}^
    9cbc:	6c22202c 	stcvs	0, cr2, [r2], #-176	; 0xffffff50
    9cc0:	2c22646c 	cfstrscs	mvf6, [r2], #-432	; 0xfffffe50
    9cc4:	20293320 	eorcs	r3, r9, r0, lsr #6
    9cc8:	30203d3d 	eorcc	r3, r0, sp, lsr sp
    9ccc:	00000000 	andeq	r0, r0, r0
    9cd0:	494e4150 	stmdbmi	lr, {r4, r6, r8, lr}^
    9cd4:	73253a43 			; <UNDEFINED> instruction: 0x73253a43
    9cd8:	3a73253a 	bcc	1cd31c8 <__bss_end__+0x1cc8e00>
    9cdc:	693a6425 	ldmdbvs	sl!, {r0, r2, r5, sl, sp, lr}
    9ce0:	736f706d 	cmnvc	pc, #109, 0	; 0x6d
    9ce4:	6c626973 			; <UNDEFINED> instruction: 0x6c626973
    9ce8:	66203a65 	strtvs	r3, [r0], -r5, ror #20
    9cec:	3c3d746d 	cfldrscc	mvf7, [sp], #-436	; 0xfffffe4c
    9cf0:	0a3e7325 	beq	fa698c <__bss_end__+0xf9c5c4>
    9cf4:	0000000a 	andeq	r0, r0, sl
    9cf8:	494e4150 	stmdbmi	lr, {r4, r6, r8, lr}^
    9cfc:	73253a43 			; <UNDEFINED> instruction: 0x73253a43
    9d00:	3a73253a 	bcc	1cd31f0 <__bss_end__+0x1cc8e28>
    9d04:	663a6425 	ldrtvs	r6, [sl], -r5, lsr #8
    9d08:	74616f6c 	strbtvc	r6, [r1], #-3948	; 0xfffff094
    9d0c:	746f6e20 	strbtvc	r6, [pc], #-3616	; 9d14 <__FUNCTION__.4027+0xf0>
    9d10:	616e6520 	cmnvs	lr, r0, lsr #10
    9d14:	64656c62 	strbtvs	r6, [r5], #-3170	; 0xfffff39e
    9d18:	0a212121 	beq	8521a4 <__bss_end__+0x847ddc>
    9d1c:	00000000 	andeq	r0, r0, r0
    9d20:	6e697270 	mcrvs	2, 3, r7, cr9, cr0, {3}
    9d24:	203a6b74 	eorscs	r6, sl, r4, ror fp
    9d28:	20746f6e 	rsbscs	r6, r4, lr, ror #30
    9d2c:	646e6168 	strbtvs	r6, [lr], #-360	; 0xfffffe98
    9d30:	676e696c 	strbvs	r6, [lr, -ip, ror #18]!
    9d34:	65707320 	ldrbvs	r7, [r0, #-800]!	; 0xfffffce0
    9d38:	69666963 	stmdbvs	r6!, {r0, r1, r5, r6, r8, fp, sp, lr}^
    9d3c:	27207265 	strcs	r7, [r0, -r5, ror #4]!
    9d40:	20276325 	eorcs	r6, r7, r5, lsr #6
    9d44:	63736128 	cmnvs	r3, #10
    9d48:	253d6969 	ldrcs	r6, [sp, #-2409]!	; 0xfffff697
    9d4c:	000a2964 	andeq	r2, sl, r4, ror #18
    9d50:	494e4150 	stmdbmi	lr, {r4, r6, r8, lr}^
    9d54:	73253a43 			; <UNDEFINED> instruction: 0x73253a43
    9d58:	3a73253a 	bcc	1cd3248 <__bss_end__+0x1cc8e80>
    9d5c:	703a6425 	eorsvc	r6, sl, r5, lsr #8
    9d60:	746e6972 	strbtvc	r6, [lr], #-2418	; 0xfffff68e
    9d64:	7265206b 	rsbvc	r2, r5, #107, 0	; 0x6b
    9d68:	0a726f72 	beq	1ca5b38 <__bss_end__+0x1c9b770>
    9d6c:	0000000a 	andeq	r0, r0, sl

00009d70 <__FUNCTION__.4004>:
    9d70:	74696d65 	strbtvc	r6, [r9], #-3429	; 0xfffff29b
    9d74:	00000000 	andeq	r0, r0, r0

00009d78 <__FUNCTION__.3952>:
    9d78:	5f697072 	svcpl	0x00697072
    9d7c:	5f746573 	svcpl	0x00746573
    9d80:	7074756f 	rsbsvc	r7, r4, pc, ror #10
    9d84:	00007475 	andeq	r7, r0, r5, ror r4

00009d88 <__FUNCTION__.4030>:
    9d88:	705f6176 	subsvc	r6, pc, r6, ror r1	; <UNPREDICTABLE>
    9d8c:	746e6972 	strbtvc	r6, [lr], #-2418	; 0xfffff68e
    9d90:	0000006b 	andeq	r0, r0, fp, rrx
    9d94:	454e4f44 	strbmi	r4, [lr, #-3908]	; 0xfffff0bc
    9d98:	0a212121 	beq	852224 <__bss_end__+0x847e5c>
    9d9c:	00000000 	andeq	r0, r0, r0
    9da0:	6c616d6b 	stclvs	13, cr6, [r1], #-428	; 0xfffffe54
    9da4:	2e636f6c 	cdpcs	15, 6, cr6, cr3, cr12, {3}
    9da8:	00000063 	andeq	r0, r0, r3, rrx
    9dac:	5f78616d 	svcpl	0x0078616d
    9db0:	7479626e 	ldrbtvc	r6, [r9], #-622	; 0xfffffd92
    9db4:	00007365 	andeq	r7, r0, r5, ror #6
    9db8:	494e4150 	stmdbmi	lr, {r4, r6, r8, lr}^
    9dbc:	73253a43 			; <UNDEFINED> instruction: 0x73253a43
    9dc0:	3a73253a 	bcc	1cd32b0 <__bss_end__+0x1cc8ee8>
    9dc4:	733a6425 	teqvc	sl, #620756992	; 0x25000000
    9dc8:	69747465 	ldmdbvs	r4!, {r0, r2, r5, r6, sl, ip, sp, lr}^
    9dcc:	6820676e 	stmdavs	r0!, {r1, r2, r3, r5, r6, r8, r9, sl, sp, lr}
    9dd0:	20706165 	rsbscs	r6, r0, r5, ror #2
    9dd4:	25206f74 	strcs	r6, [r0, #-3956]!	; 0xfffff08c
    9dd8:	77203a70 			; <UNDEFINED> instruction: 0x77203a70
    9ddc:	206c6c69 	rsbcs	r6, ip, r9, ror #24
    9de0:	20746968 	rsbscs	r6, r4, r8, ror #18
    9de4:	20656874 	rsbcs	r6, r5, r4, ror r8
    9de8:	20646c6f 	rsbcs	r6, r4, pc, ror #24
    9dec:	70616568 	rsbvc	r6, r1, r8, ror #10
    9df0:	20746120 	rsbscs	r6, r4, r0, lsr #2
    9df4:	0a0a7025 	beq	2a5e90 <__bss_end__+0x29bac8>
    9df8:	00000000 	andeq	r0, r0, r0
    9dfc:	494e4150 	stmdbmi	lr, {r4, r6, r8, lr}^
    9e00:	73253a43 			; <UNDEFINED> instruction: 0x73253a43
    9e04:	3a73253a 	bcc	1cd32f4 <__bss_end__+0x1cc8f2c>
    9e08:	613a6425 	teqvs	sl, r5, lsr #8
    9e0c:	6165726c 	cmnvs	r5, ip, ror #4
    9e10:	63207964 			; <UNDEFINED> instruction: 0x63207964
    9e14:	656c6c61 	strbvs	r6, [ip, #-3169]!	; 0xfffff39f
    9e18:	6d6b2064 	stclvs	0, cr2, [fp, #-400]!	; 0xfffffe70
    9e1c:	6f6c6c61 	svcvs	0x006c6c61
    9e20:	6e695f63 	cdpvs	15, 6, cr5, cr9, cr3, {3}
    9e24:	0a0a7469 	beq	2a6fd0 <__bss_end__+0x29cc08>
    9e28:	00000000 	andeq	r0, r0, r0
    9e2c:	494e4150 	stmdbmi	lr, {r4, r6, r8, lr}^
    9e30:	73253a43 			; <UNDEFINED> instruction: 0x73253a43
    9e34:	3a73253a 	bcc	1cd3324 <__bss_end__+0x1cc8f5c>
    9e38:	253a6425 	ldrcs	r6, [sl, #-1061]!	; 0xfffffbdb
    9e3c:	626e2064 	rsbvs	r2, lr, #100, 0	; 0x64
    9e40:	73657479 	cmnvc	r5, #2030043136	; 0x79000000
    9e44:	63786520 	cmnvs	r8, #32, 10	; 0x8000000
    9e48:	65646565 	strbvs	r6, [r4, #-1381]!	; 0xfffffa9b
    9e4c:	69732064 	ldmdbvs	r3!, {r2, r5, r6, sp}^
    9e50:	6f20657a 	svcvs	0x0020657a
    9e54:	65682066 	strbvs	r2, [r8, #-102]!	; 0xffffff9a
    9e58:	62207061 	eorvs	r7, r0, #97, 0	; 0x61
    9e5c:	75252079 	strvc	r2, [r5, #-121]!	; 0xffffff87
    9e60:	79626e20 	stmdbvc	r2!, {r5, r9, sl, fp, sp, lr}^
    9e64:	0a736574 	beq	1ce343c <__bss_end__+0x1cd9074>
    9e68:	0000000a 	andeq	r0, r0, sl
    9e6c:	4f525245 	svcmi	0x00525245
    9e70:	73253a52 			; <UNDEFINED> instruction: 0x73253a52
    9e74:	3a73253a 	bcc	1cd3364 <__bss_end__+0x1cc8f9c>
    9e78:	203a6425 	eorscs	r6, sl, r5, lsr #8
    9e7c:	534c4146 	movtpl	r4, #49478	; 0xc146
    9e80:	253c2845 	ldrcs	r2, [ip, #-2117]!	; 0xfffff7bb
    9e84:	3a293e73 	bcc	a59858 <__bss_end__+0xa4f490>
    9e88:	73736120 	cmnvc	r3, #8
    9e8c:	6e696d75 	mcrvs	13, 3, r6, cr9, cr5, {3}
    9e90:	6f702067 	svcvs	0x00702067
    9e94:	20726577 	rsbscs	r6, r2, r7, ror r5
    9e98:	7420666f 	strtvc	r6, [r0], #-1647	; 0xfffff991
    9e9c:	000a6f77 	andeq	r6, sl, r7, ror pc
    9ea0:	705f7369 	subsvc	r7, pc, r9, ror #6
    9ea4:	2832776f 	ldmdacs	r2!, {r0, r1, r2, r3, r5, r6, r8, r9, sl, ip, sp, lr}
    9ea8:	67696c61 	strbvs	r6, [r9, -r1, ror #24]!
    9eac:	6e656d6e 	cdpvs	13, 6, cr6, cr5, cr14, {3}
    9eb0:	00002974 	andeq	r2, r0, r4, ror r9
    9eb4:	705f7369 	subsvc	r7, pc, r9, ror #6
    9eb8:	2832776f 	ldmdacs	r2!, {r0, r1, r2, r3, r5, r6, r8, r9, sl, ip, sp, lr}
    9ebc:	0000296e 	andeq	r2, r0, lr, ror #18
    9ec0:	4f525245 	svcmi	0x00525245
    9ec4:	73253a52 			; <UNDEFINED> instruction: 0x73253a52
    9ec8:	3a73253a 	bcc	1cd33b8 <__bss_end__+0x1cc8ff0>
    9ecc:	203a6425 	eorscs	r6, sl, r5, lsr #8
    9ed0:	534c4146 	movtpl	r4, #49478	; 0xc146
    9ed4:	253c2845 	ldrcs	r2, [ip, #-2117]!	; 0xfffff7bb
    9ed8:	3a293e73 	bcc	a598ac <__bss_end__+0xa4f4e4>
    9edc:	706d6920 	rsbvc	r6, sp, r0, lsr #18
    9ee0:	6973736f 	ldmdbvs	r3!, {r0, r1, r2, r3, r5, r6, r8, r9, ip, sp, lr}^
    9ee4:	0a656c62 	beq	1965074 <__bss_end__+0x195acac>
    9ee8:	00000000 	andeq	r0, r0, r0
    9eec:	615f7369 	cmpvs	pc, r9, ror #6
    9ef0:	6e67696c 	vnmulvs.f16	s13, s14, s25	; <UNPREDICTABLE>
    9ef4:	68286465 	stmdavs	r8!, {r0, r2, r5, r6, sl, sp, lr}
    9ef8:	6c61202c 	stclvs	0, cr2, [r1], #-176	; 0xffffff50
    9efc:	6d6e6769 	stclvs	7, cr6, [lr, #-420]!	; 0xfffffe5c
    9f00:	29746e65 	ldmdbcs	r4!, {r0, r2, r5, r6, r9, sl, fp, sp, lr}^
    9f04:	00000000 	andeq	r0, r0, r0
    9f08:	494e4150 	stmdbmi	lr, {r4, r6, r8, lr}^
    9f0c:	73253a43 			; <UNDEFINED> instruction: 0x73253a43
    9f10:	3a73253a 	bcc	1cd3400 <__bss_end__+0x1cc9038>
    9f14:	703a6425 	eorsvc	r6, sl, r5, lsr #8
    9f18:	746e696f 	strbtvc	r6, [lr], #-2415	; 0xfffff691
    9f1c:	25207265 	strcs	r7, [r0, #-613]!	; 0xfffffd9b
    9f20:	61772070 	cmnvs	r7, r0, ror r0
    9f24:	656e2073 	strbvs	r2, [lr, #-115]!	; 0xffffff8d
    9f28:	20726576 	rsbscs	r6, r2, r6, ror r5
    9f2c:	6f6c6c61 	svcvs	0x006c6c61
    9f30:	65746163 	ldrbvs	r6, [r4, #-355]!	; 0xfffffe9d
    9f34:	000a0a64 	andeq	r0, sl, r4, ror #20

00009f38 <__FUNCTION__.7>:
    9f38:	6c616d6b 	stclvs	13, cr6, [r1], #-428	; 0xfffffe54
    9f3c:	5f636f6c 	svcpl	0x00636f6c
    9f40:	74696e69 	strbtvc	r6, [r9], #-3689	; 0xfffff197
    9f44:	7465735f 	strbtvc	r7, [r5], #-863	; 0xfffffca1
    9f48:	6174735f 	cmnvs	r4, pc, asr r3
    9f4c:	00007472 	andeq	r7, r0, r2, ror r4

00009f50 <__FUNCTION__.5>:
    9f50:	6c616d6b 	stclvs	13, cr6, [r1], #-428	; 0xfffffe54
    9f54:	5f636f6c 	svcpl	0x00636f6c
    9f58:	74696e69 	strbtvc	r6, [r9], #-3689	; 0xfffff197
    9f5c:	00000000 	andeq	r0, r0, r0

00009f60 <__FUNCTION__.4>:
    9f60:	6c616d6b 	stclvs	13, cr6, [r1], #-428	; 0xfffffe54
    9f64:	5f636f6c 	svcpl	0x00636f6c
    9f68:	7a746f6e 	bvc	1d25d28 <__bss_end__+0x1d1b960>
    9f6c:	006f7265 	rsbeq	r7, pc, r5, ror #4

00009f70 <__FUNCTION__.2>:
    9f70:	6c616d6b 	stclvs	13, cr6, [r1], #-428	; 0xfffffe54
    9f74:	00636f6c 	rsbeq	r6, r3, ip, ror #30

00009f78 <__FUNCTION__.1>:
    9f78:	6c616d6b 	stclvs	13, cr6, [r1], #-428	; 0xfffffe54
    9f7c:	5f636f6c 	svcpl	0x00636f6c
    9f80:	67696c61 	strbvs	r6, [r9, -r1, ror #24]!
    9f84:	0064656e 	rsbeq	r6, r4, lr, ror #10

00009f88 <__FUNCTION__.3>:
    9f88:	6e756f72 	mrcvs	15, 3, r6, cr5, cr2, {3}
    9f8c:	00707564 	rsbseq	r7, r0, r4, ror #10

00009f90 <__FUNCTION__.0>:
    9f90:	6572666b 	ldrbvs	r6, [r2, #-1643]!	; 0xfffff995
    9f94:	6f705f65 	svcvs	0x00705f65
    9f98:	Address 0x0000000000009f98 is out of bounds.


Disassembly of section .data:

00009f9c <putk>:
    9f9c:	00008618 	andeq	r8, r0, r8, lsl r6

00009fa0 <heap>:
    9fa0:	0000a3c8 	andeq	sl, r0, r8, asr #7

00009fa4 <heap_start>:
    9fa4:	0000a3c8 	andeq	sl, r0, r8, asr #7

00009fa8 <heap_end>:
    9fa8:	0020a3c8 	eoreq	sl, r0, r8, asr #7

00009fac <rpi_putchar>:
    9fac:	00009a0c 	andeq	r9, r0, ip, lsl #20

Disassembly of section .bss:

00009fb0 <__bss_start__>:
	...

00009fb8 <base>:
	...

00009fc0 <alloc_list>:
    9fc0:	00000000 	andeq	r0, r0, r0

00009fc4 <buf.3944>:
	...

0000a3c4 <init_p.6>:
    a3c4:	00000000 	andeq	r0, r0, r0

Disassembly of section .ARM.attributes:

00000000 <.ARM.attributes>:
   0:	00002a41 	andeq	r2, r0, r1, asr #20
   4:	61656100 	cmnvs	r5, r0, lsl #2
   8:	01006962 	tsteq	r0, r2, ror #18
   c:	00000020 	andeq	r0, r0, r0, lsr #32
  10:	4b5a3605 	blmi	168d82c <__bss_end__+0x1683464>
  14:	08070600 	stmdaeq	r7, {r9, sl}
  18:	12010901 	andne	r0, r1, #16384	; 0x4000
  1c:	15011404 	strne	r1, [r1, #-1028]	; 0xfffffbfc
  20:	18031701 	stmdane	r3, {r0, r8, r9, sl, ip}
  24:	22011a01 	andcs	r1, r1, #4096	; 0x1000
  28:	Address 0x0000000000000028 is out of bounds.


Disassembly of section .comment:

00000000 <.comment>:
   0:	3a434347 	bcc	10d0d24 <__bss_end__+0x10c695c>
   4:	4e472820 	cdpmi	8, 4, cr2, cr7, cr0, {1}
   8:	6f542055 	svcvs	0x00542055
   c:	20736c6f 	rsbscs	r6, r3, pc, ror #24
  10:	20726f66 	rsbscs	r6, r2, r6, ror #30
  14:	206d7241 	rsbcs	r7, sp, r1, asr #4
  18:	65626d45 	strbvs	r6, [r2, #-3397]!	; 0xfffff2bb
  1c:	64656464 	strbtvs	r6, [r5], #-1124	; 0xfffffb9c
  20:	6f725020 	svcvs	0x00725020
  24:	73736563 	cmnvc	r3, #415236096	; 0x18c00000
  28:	2073726f 	rsbscs	r7, r3, pc, ror #4
  2c:	30322d39 	eorscc	r2, r2, r9, lsr sp
  30:	712d3931 			; <UNDEFINED> instruction: 0x712d3931
  34:	616d2d34 	cmnvs	sp, r4, lsr sp
  38:	29726f6a 	ldmdbcs	r2!, {r1, r3, r5, r6, r8, r9, sl, fp, sp, lr}^
  3c:	322e3920 	eorcc	r3, lr, #32, 18	; 0x80000
  40:	3220312e 	eorcc	r3, r0, #-2147483637	; 0x8000000b
  44:	31393130 	teqcc	r9, r0, lsr r1
  48:	20353230 	eorscs	r3, r5, r0, lsr r2
  4c:	6c657228 	sfmvs	f7, 2, [r5], #-160	; 0xffffff60
  50:	65736165 	ldrbvs	r6, [r3, #-357]!	; 0xfffffe9b
  54:	415b2029 	cmpmi	fp, r9, lsr #32
  58:	612f4d52 			; <UNDEFINED> instruction: 0x612f4d52
  5c:	392d6d72 	pushcc	{r1, r4, r5, r6, r8, sl, fp, sp, lr}
  60:	6172622d 	cmnvs	r2, sp, lsr #4
  64:	2068636e 	rsbcs	r6, r8, lr, ror #6
  68:	69766572 	ldmdbvs	r6!, {r1, r4, r5, r6, r8, sl, sp, lr}^
  6c:	6e6f6973 			; <UNDEFINED> instruction: 0x6e6f6973
  70:	37373220 	ldrcc	r3, [r7, -r0, lsr #4]!
  74:	5d393935 			; <UNDEFINED> instruction: 0x5d393935
  78:	43434700 	movtmi	r4, #14080	; 0x3700
  7c:	4728203a 			; <UNDEFINED> instruction: 0x4728203a
  80:	4120554e 			; <UNDEFINED> instruction: 0x4120554e
  84:	45206d72 	strmi	r6, [r0, #-3442]!	; 0xfffff28e
  88:	6465626d 	strbtvs	r6, [r5], #-621	; 0xfffffd93
  8c:	20646564 	rsbcs	r6, r4, r4, ror #10
  90:	6c6f6f54 	stclvs	15, cr6, [pc], #-336	; ffffff48 <__bss_end__+0xffff5b80>
  94:	69616863 	stmdbvs	r1!, {r0, r1, r5, r6, fp, sp, lr}^
  98:	3031206e 	eorscc	r2, r1, lr, rrx
  9c:	322d332e 	eorcc	r3, sp, #-1207959552	; 0xb8000000
  a0:	2e313230 	mrccs	2, 1, r3, cr1, cr0, {1}
  a4:	20293031 	eorcs	r3, r9, r1, lsr r0
  a8:	332e3031 			; <UNDEFINED> instruction: 0x332e3031
  ac:	3220312e 	eorcc	r3, r0, #-2147483637	; 0x8000000b
  b0:	30313230 	eorscc	r3, r1, r0, lsr r2
  b4:	20343238 	eorscs	r3, r4, r8, lsr r2
  b8:	6c657228 	sfmvs	f7, 2, [r5], #-160	; 0xffffff60
  bc:	65736165 	ldrbvs	r6, [r3, #-357]!	; 0xfffffe9b
  c0:	Address 0x00000000000000c0 is out of bounds.


Disassembly of section .debug_info:

00000000 <.debug_info>:
       0:	00000240 	andeq	r0, r0, r0, asr #4
       4:	00000004 	andeq	r0, r0, r4
       8:	01040000 	mrseq	r0, (UNDEF: 4)
       c:	000000e1 	andeq	r0, r0, r1, ror #1
      10:	0000290c 	andeq	r2, r0, ip, lsl #18
      14:	00009600 	andeq	r9, r0, r0, lsl #12
      18:	00803800 	addeq	r3, r0, r0, lsl #16
      1c:	00005c00 	andeq	r5, r0, r0, lsl #24
      20:	00000000 	andeq	r0, r0, r0
      24:	05040200 	streq	r0, [r4, #-512]	; 0xfffffe00
      28:	00746e69 	rsbseq	r6, r4, r9, ror #28
      2c:	6f070403 	svcvs	0x00070403
      30:	03000000 	movweq	r0, #0
      34:	001d0601 	andseq	r0, sp, r1, lsl #12
      38:	02030000 	andeq	r0, r3, #0, 0
      3c:	0000cd05 	andeq	ip, r0, r5, lsl #26
      40:	05040300 	streq	r0, [r4, #-768]	; 0xfffffd00
      44:	00000081 	andeq	r0, r0, r1, lsl #1
      48:	7c050803 	stcvc	8, cr0, [r5], {3}
      4c:	03000000 	movweq	r0, #0
      50:	001b0801 	andseq	r0, fp, r1, lsl #16
      54:	02030000 	andeq	r0, r3, #0, 0
      58:	00003507 	andeq	r3, r0, r7, lsl #10
      5c:	07040300 	streq	r0, [r4, -r0, lsl #6]
      60:	0000006a 	andeq	r0, r0, sl, rrx
      64:	65070803 	strvs	r0, [r7, #-2051]	; 0xfffff7fd
      68:	04000000 	streq	r0, [r0], #-0
      6c:	00000025 	andeq	r0, r0, r5, lsr #32
      70:	0000007a 	andeq	r0, r0, sl, ror r0
      74:	00002505 	andeq	r2, r0, r5, lsl #10
      78:	8a060000 	bhi	180080 <__bss_end__+0x175cb8>
      7c:	03000000 	movweq	r0, #0
      80:	00860e1c 	addeq	r0, r6, ip, lsl lr
      84:	04070000 	streq	r0, [r7], #-0
      88:	0000006b 	andeq	r0, r0, fp, rrx
      8c:	00002504 	andeq	r2, r0, r4, lsl #10
      90:	00009b00 	andeq	r9, r0, r0, lsl #22
      94:	009b0500 	addseq	r0, fp, r0, lsl #10
      98:	07000000 	streq	r0, [r0, -r0]
      9c:	0000a804 	andeq	sl, r0, r4, lsl #16
      a0:	08010300 	stmdaeq	r1, {r8, r9}
      a4:	00000024 	andeq	r0, r0, r4, lsr #32
      a8:	0000a108 	andeq	sl, r0, r8, lsl #2
      ac:	04450600 	strbeq	r0, [r5], #-1536	; 0xfffffa00
      b0:	21030000 	mrscs	r0, (UNDEF: 3)
      b4:	0000b90e 	andeq	fp, r0, lr, lsl #18
      b8:	8c040700 	stchi	7, cr0, [r4], {-0}
      bc:	09000000 	stmdbeq	r0, {}	; <UNPREDICTABLE>
      c0:	0904020c 	stmdbeq	r4, {r2, r3, r9}
      c4:	000000f0 	strdeq	r0, [r0], -r0	; <UNPREDICTABLE>
      c8:	0000160a 	andeq	r1, r0, sl, lsl #12
      cc:	11060200 	mrsne	r0, LR_usr
      d0:	0000009b 	muleq	r0, fp, r0
      d4:	00530a00 	subseq	r0, r3, r0, lsl #20
      d8:	07020000 	streq	r0, [r2, -r0]
      dc:	00009b11 	andeq	r9, r0, r1, lsl fp
      e0:	070a0400 	streq	r0, [sl, -r0, lsl #8]
      e4:	02000000 	andeq	r0, r0, #0, 0
      e8:	002c0e08 	eoreq	r0, ip, r8, lsl #28
      ec:	00080000 	andeq	r0, r8, r0
      f0:	0000d70b 	andeq	sp, r0, fp, lsl #14
      f4:	03090200 	movweq	r0, #37376	; 0x9200
      f8:	000000bf 	strheq	r0, [r0], -pc	; <UNPREDICTABLE>
      fc:	00000e0c 	andeq	r0, r0, ip, lsl #28
     100:	06060100 	streq	r0, [r6], -r0, lsl #2
     104:	00008038 	andeq	r8, r0, r8, lsr r0
     108:	0000005c 	andeq	r0, r0, ip, asr r0
     10c:	01d29c01 	bicseq	r9, r2, r1, lsl #24
     110:	700d0000 	andvc	r0, sp, r0
     114:	0b070100 	bleq	1c051c <__bss_end__+0x1b6154>
     118:	000001d2 	ldrdeq	r0, [r0], -r2
     11c:	00000002 	andeq	r0, r0, r2
     120:	00000000 	andeq	r0, r0, r0
     124:	0000580e 	andeq	r5, r0, lr, lsl #16
     128:	0001e400 	andeq	lr, r1, r0, lsl #8
     12c:	2c030500 	cfstr32cs	mvfx0, [r3], {-0}
     130:	0f00009b 	svceq	0x0000009b
     134:	000001e9 	andeq	r0, r0, r9, ror #3
     138:	00008040 	andeq	r8, r0, r0, asr #32
     13c:	00804001 	addeq	r4, r0, r1
     140:	00001800 	andeq	r1, r0, r0, lsl #16
     144:	0f070100 	svceq	0x00070100
     148:	00000174 	andeq	r0, r0, r4, ror r1
     14c:	00021210 	andeq	r1, r2, r0, lsl r2
     150:	00001700 	andeq	r1, r0, r0, lsl #14
     154:	00001500 	andeq	r1, r0, r0, lsl #10
     158:	02061000 	andeq	r1, r6, #0, 0
     15c:	002d0000 	eoreq	r0, sp, r0
     160:	002b0000 	eoreq	r0, fp, r0
     164:	fa100000 	blx	40016c <__bss_end__+0x3f5da4>
     168:	47000001 	strmi	r0, [r0, -r1]
     16c:	45000000 	strmi	r0, [r0, #-0]
     170:	00000000 	andeq	r0, r0, r0
     174:	0001e90f 	andeq	lr, r1, pc, lsl #18
     178:	00806800 	addeq	r6, r0, r0, lsl #16
     17c:	80680100 	rsbhi	r0, r8, r0, lsl #2
     180:	00100000 	andseq	r0, r0, r0
     184:	08010000 	stmdaeq	r1, {}	; <UNPREDICTABLE>
     188:	0001b505 	andeq	fp, r1, r5, lsl #10
     18c:	02121000 	andseq	r1, r2, #0, 0
     190:	00610000 	rsbeq	r0, r1, r0
     194:	005f0000 	subseq	r0, pc, r0
     198:	06100000 	ldreq	r0, [r0], -r0
     19c:	77000002 	strvc	r0, [r0, -r2]
     1a0:	75000000 	strvc	r0, [r0, #-0]
     1a4:	10000000 	andne	r0, r0, r0
     1a8:	000001fa 	strdeq	r0, [r0], -sl
     1ac:	00000091 	muleq	r0, r1, r0
     1b0:	0000008f 	andeq	r0, r0, pc, lsl #1
     1b4:	80681100 	rsbhi	r1, r8, r0, lsl #2
     1b8:	022b0000 	eoreq	r0, fp, #0, 0
     1bc:	01c80000 	biceq	r0, r8, r0
     1c0:	01120000 	tsteq	r2, r0
     1c4:	00340150 	eorseq	r0, r4, r0, asr r1
     1c8:	00808413 	addeq	r8, r0, r3, lsl r4
     1cc:	00023700 	andeq	r3, r2, r0, lsl #14
     1d0:	04140000 	ldreq	r0, [r4], #-0
     1d4:	0000a815 	andeq	sl, r0, r5, lsl r8
     1d8:	0001e400 	andeq	lr, r1, r0, lsl #8
     1dc:	002c1600 	eoreq	r1, ip, r0, lsl #12
     1e0:	00070000 	andeq	r0, r7, r0
     1e4:	0001d408 	andeq	sp, r1, r8, lsl #8
     1e8:	00481700 	subeq	r1, r8, r0, lsl #14
     1ec:	0c020000 	stceq	0, cr0, [r2], {-0}
     1f0:	0000f00b 	andeq	pc, r0, fp
     1f4:	021f0300 	andseq	r0, pc, #0, 6
     1f8:	16180000 	ldrne	r0, [r8], -r0
     1fc:	02000000 	andeq	r0, r0, #0, 0
     200:	009b220c 	addseq	r2, fp, ip, lsl #4
     204:	53180000 	tstpl	r8, #0, 0
     208:	02000000 	andeq	r0, r0, #0, 0
     20c:	009b340c 	addseq	r3, fp, ip, lsl #8
     210:	07180000 	ldreq	r0, [r8, -r0]
     214:	02000000 	andeq	r0, r0, #0, 0
     218:	002c430c 	eoreq	r4, ip, ip, lsl #6
     21c:	19000000 	stmdbne	r0, {}	; <UNPREDICTABLE>
     220:	6e089e0a 	cdpvs	14, 0, cr9, cr8, cr10, {0}
     224:	616d746f 	cmnvs	sp, pc, ror #8
     228:	1a006e69 	bne	1bbd4 <__bss_end__+0x1180c>
     22c:	000000c5 	andeq	r0, r0, r5, asr #1
     230:	000000c5 	andeq	r0, r0, r5, asr #1
     234:	1a083204 	bne	20ca4c <__bss_end__+0x202684>
	...
     240:	00073304 	andeq	r3, r7, r4, lsl #6
     244:	000002c2 	andeq	r0, r0, r2, asr #5
     248:	016a0004 	cmneq	sl, r4
     24c:	01040000 	mrseq	r0, (UNDEF: 4)
     250:	000000e1 	andeq	r0, r0, r1, ror #1
     254:	0001be0c 	andeq	fp, r1, ip, lsl #28
     258:	00009600 	andeq	r9, r0, r0, lsl #12
     25c:	00809400 	addeq	r9, r0, r0, lsl #8
     260:	0001ac00 	andeq	sl, r1, r0, lsl #24
     264:	0000b800 	andeq	fp, r0, r0, lsl #16
     268:	05040200 	streq	r0, [r4, #-512]	; 0xfffffe00
     26c:	00746e69 	rsbseq	r6, r4, r9, ror #28
     270:	6f070403 	svcvs	0x00070403
     274:	03000000 	movweq	r0, #0
     278:	001d0601 	andseq	r0, sp, r1, lsl #12
     27c:	02030000 	andeq	r0, r3, #0, 0
     280:	0000cd05 	andeq	ip, r0, r5, lsl #26
     284:	05040300 	streq	r0, [r4, #-768]	; 0xfffffd00
     288:	00000081 	andeq	r0, r0, r1, lsl #1
     28c:	7c050803 	stcvc	8, cr0, [r5], {3}
     290:	03000000 	movweq	r0, #0
     294:	001b0801 	andseq	r0, fp, r1, lsl #16
     298:	02030000 	andeq	r0, r3, #0, 0
     29c:	00003507 	andeq	r3, r0, r7, lsl #10
     2a0:	07040300 	streq	r0, [r4, -r0, lsl #6]
     2a4:	0000006a 	andeq	r0, r0, sl, rrx
     2a8:	65070803 	strvs	r0, [r7, #-2051]	; 0xfffff7fd
     2ac:	04000000 	streq	r0, [r0], #-0
     2b0:	00000025 	andeq	r0, r0, r5, lsr #32
     2b4:	0000007a 	andeq	r0, r0, sl, ror r0
     2b8:	00002505 	andeq	r2, r0, r5, lsl #10
     2bc:	8a060000 	bhi	1802c4 <__bss_end__+0x175efc>
     2c0:	02000000 	andeq	r0, r0, #0, 0
     2c4:	00860e1c 	addeq	r0, r6, ip, lsl lr
     2c8:	04070000 	streq	r0, [r7], #-0
     2cc:	0000006b 	andeq	r0, r0, fp, rrx
     2d0:	00002504 	andeq	r2, r0, r4, lsl #10
     2d4:	00009b00 	andeq	r9, r0, r0, lsl #22
     2d8:	009b0500 	addseq	r0, fp, r0, lsl #10
     2dc:	07000000 	streq	r0, [r0, -r0]
     2e0:	0000a804 	andeq	sl, r0, r4, lsl #16
     2e4:	08010300 	stmdaeq	r1, {r8, r9}
     2e8:	00000024 	andeq	r0, r0, r4, lsr #32
     2ec:	0000a108 	andeq	sl, r0, r8, lsl #2
     2f0:	04450600 	strbeq	r0, [r5], #-1536	; 0xfffffa00
     2f4:	21020000 	mrscs	r0, (UNDEF: 2)
     2f8:	0000b90e 	andeq	fp, r0, lr, lsl #18
     2fc:	8c040700 	stchi	7, cr0, [r4], {-0}
     300:	09000000 	stmdbeq	r0, {}	; <UNPREDICTABLE>
     304:	000001a3 	andeq	r0, r0, r3, lsr #3
     308:	07050108 	streq	r0, [r5, -r8, lsl #2]
     30c:	000000ec 	andeq	r0, r0, ip, ror #1
     310:	0100640a 	tsteq	r0, sl, lsl #8
     314:	00ec0907 	rsceq	r0, ip, r7, lsl #18
     318:	700a0000 	andvc	r0, sl, r0
     31c:	08080100 	stmdaeq	r8, {r8}
     320:	000000f3 	strdeq	r0, [r0], -r3
     324:	0070660a 	rsbseq	r6, r0, sl, lsl #12
     328:	f6090901 			; <UNDEFINED> instruction: 0xf6090901
     32c:	00000000 	andeq	r0, r0, r0
     330:	ca040803 	bgt	102344 <__bss_end__+0xf7f7c>
     334:	0b000001 	bleq	340 <__code_start__-0x7cc0>
     338:	04070c04 	streq	r0, [r7], #-3076	; 0xfffff3fc
     33c:	000000f5 	strdeq	r0, [r0], -r5
     340:	0e01080d 	cdpeq	8, 0, cr0, cr1, cr13, {0}
     344:	00012002 	andeq	r2, r1, r2
     348:	74700e00 	ldrbtvc	r0, [r0], #-3584	; 0xfffff200
     34c:	10010072 	andne	r0, r1, r2, ror r0
     350:	00014211 	andeq	r4, r1, r1, lsl r2
     354:	ee0f0000 	cdp	0, 0, cr0, cr15, cr0, {0}
     358:	01000001 	tsteq	r0, r1
     35c:	002c0c11 	eoreq	r0, ip, r1, lsl ip
     360:	00040000 	andeq	r0, r4, r0
     364:	00019609 	andeq	r9, r1, r9, lsl #12
     368:	0c010800 	stceq	8, cr0, [r1], {-0}
     36c:	0001420f 	andeq	r4, r1, pc, lsl #4
     370:	00730a00 	rsbseq	r0, r3, r0, lsl #20
     374:	fc041201 	stc2	2, cr1, [r4], {1}
     378:	0a000000 	beq	380 <__code_start__-0x7c80>
     37c:	13010078 	movwne	r0, #4216	; 0x1078
     380:	0000bf0e 	andeq	fp, r0, lr, lsl #30
     384:	04070000 	streq	r0, [r7], #-0
     388:	00000120 	andeq	r0, r0, r0, lsr #2
     38c:	0001f310 	andeq	pc, r1, r0, lsl r3	; <UNPREDICTABLE>
     390:	03140100 	tsteq	r4, #0
     394:	00000120 	andeq	r0, r0, r0, lsr #2
     398:	0001d111 	andeq	sp, r1, r1, lsl r1
     39c:	0f180100 	svceq	0x00180100
     3a0:	00000148 	andeq	r0, r0, r8, asr #2
     3a4:	9fb80305 	svcls	0x00b80305
     3a8:	b1110000 	tstlt	r1, r0
     3ac:	01000001 	tsteq	r0, r1
     3b0:	01781019 	cmneq	r8, r9, lsl r0
     3b4:	03050000 	movweq	r0, #20480	; 0x5000
     3b8:	00009fb0 			; <UNDEFINED> instruction: 0x00009fb0
     3bc:	01480407 	cmpeq	r8, r7, lsl #8
     3c0:	a9120000 	ldmdbge	r2, {}	; <UNPREDICTABLE>
     3c4:	01000001 	tsteq	r0, r1
     3c8:	80940652 	addshi	r0, r4, r2, asr r6
     3cc:	00bc0000 	adcseq	r0, ip, r0
     3d0:	9c010000 	stcls	0, cr0, [r1], {-0}
     3d4:	000001c7 	andeq	r0, r0, r7, asr #3
     3d8:	00706113 	rsbseq	r6, r0, r3, lsl r1
     3dc:	f3145201 	vhsub.u16	d5, d4, d1
     3e0:	01000000 	mrseq	r0, (UNDEF: 0)
     3e4:	70621450 	rsbvc	r1, r2, r0, asr r4
     3e8:	0a540100 	beq	15007f0 <__bss_end__+0x14f6428>
     3ec:	00000178 	andeq	r0, r0, r8, ror r1
     3f0:	000000b1 	strheq	r0, [r0], -r1
     3f4:	000000a9 	andeq	r0, r0, r9, lsr #1
     3f8:	01007014 	tsteq	r0, r4, lsl r0
     3fc:	01780f54 	cmneq	r8, r4, asr pc
     400:	00ed0000 	rsceq	r0, sp, r0
     404:	00e90000 	rsceq	r0, r9, r0
     408:	15000000 	strne	r0, [r0, #-0]
     40c:	000001e4 	andeq	r0, r0, r4, ror #3
     410:	f3072a01 	vpmax.u8	d2, d7, d1
     414:	94000000 	strls	r0, [r0], #-0
     418:	ac000081 	stcge	0, cr0, [r0], {129}	; 0x81
     41c:	01000000 	mrseq	r0, (UNDEF: 0)
     420:	0002409c 	muleq	r2, ip, r0
     424:	02191600 	andseq	r1, r9, #0, 12
     428:	2a010000 	bcs	40430 <__bss_end__+0x36068>
     42c:	00002c1a 	andeq	r2, r0, sl, lsl ip
     430:	00011300 	andeq	r1, r1, r0, lsl #6
     434:	00010b00 	andeq	r0, r1, r0, lsl #22
     438:	00701400 	rsbseq	r1, r0, r0, lsl #8
     43c:	780a2c01 	stmdavc	sl, {r0, sl, fp, sp}
     440:	5b000001 	blpl	44c <__code_start__-0x7bb4>
     444:	4d000001 	stcmi	0, cr0, [r0, #-4]
     448:	17000001 	strne	r0, [r0, -r1]
     44c:	0000019d 	muleq	r0, sp, r1
     450:	780e2c01 	stmdavc	lr, {r0, sl, fp, sp}
     454:	bd000001 	stclt	0, cr0, [r0, #-4]
     458:	b3000001 	movwlt	r0, #1
     45c:	17000001 	strne	r0, [r0, -r1]
     460:	000001b7 			; <UNDEFINED> instruction: 0x000001b7
     464:	2c0b2d01 	stccs	13, cr2, [fp], {1}
     468:	03000000 	movweq	r0, #0
     46c:	01000002 	tsteq	r0, r2
     470:	18000002 	stmdane	r0, {r1}
     474:	00008230 	andeq	r8, r0, r0, lsr r2
     478:	00000240 	andeq	r0, r0, r0, asr #4
     47c:	02500119 	subseq	r0, r0, #1073741830	; 0x40000006
     480:	00000074 	andeq	r0, r0, r4, ror r0
     484:	0001db1a 	andeq	sp, r1, sl, lsl fp
     488:	101c0100 	andsne	r0, ip, r0, lsl #2
     48c:	00000178 	andeq	r0, r0, r8, ror r1
     490:	00008150 	andeq	r8, r0, r0, asr r1
     494:	00000044 	andeq	r0, r0, r4, asr #32
     498:	02b39c01 	adcseq	r9, r3, #256	; 0x100
     49c:	6e1b0000 	cdpvs	0, 1, cr0, cr11, cr0, {0}
     4a0:	1c010075 	stcne	0, cr0, [r1], {117}	; 0x75
     4a4:	00002c22 	andeq	r2, r0, r2, lsr #24
     4a8:	00021a00 	andeq	r1, r2, r0, lsl #20
     4ac:	00021600 	andeq	r1, r2, r0, lsl #12
     4b0:	70631400 	rsbvc	r1, r3, r0, lsl #8
     4b4:	08200100 	stmdaeq	r0!, {r8}
     4b8:	000002b3 			; <UNDEFINED> instruction: 0x000002b3
     4bc:	0000023e 	andeq	r0, r0, lr, lsr r2
     4c0:	00000238 	andeq	r0, r0, r8, lsr r2
     4c4:	00707514 	rsbseq	r7, r0, r4, lsl r5
     4c8:	780a2301 	stmdavc	sl, {r0, r8, r9, sp}
     4cc:	6d000001 	stcvs	0, cr0, [r0, #-4]
     4d0:	69000002 	stmdbvs	r0, {r1}
     4d4:	1c000002 	stcne	0, cr0, [r0], {2}
     4d8:	00008168 	andeq	r8, r0, r8, ror #2
     4dc:	000002b9 			; <UNDEFINED> instruction: 0x000002b9
     4e0:	000002a9 	andeq	r0, r0, r9, lsr #5
     4e4:	04500119 	ldrbeq	r0, [r0], #-281	; 0xfffffee7
     4e8:	24330074 	ldrtcs	r0, [r3], #-116	; 0xffffff8c
     4ec:	817c1d00 	cmnhi	ip, r0, lsl #26
     4f0:	017e0000 	cmneq	lr, r0
     4f4:	07000000 	streq	r0, [r0, -r0]
     4f8:	0000a104 	andeq	sl, r0, r4, lsl #2
     4fc:	01d61e00 	bicseq	r1, r6, r0, lsl #28
     500:	01d60000 	bicseq	r0, r6, r0
     504:	1a030000 	bne	c050c <__bss_end__+0xb6144>
     508:	010a000b 	tsteq	sl, fp
     50c:	00040000 	andeq	r0, r4, r0
     510:	00000341 	andeq	r0, r0, r1, asr #6
     514:	00e10104 	rsceq	r0, r1, r4, lsl #2
     518:	0c0c0000 	stceq	0, cr0, [ip], {-0}
     51c:	96000002 	strls	r0, [r0], -r2
     520:	40000000 	andmi	r0, r0, r0
     524:	0c000082 	stceq	0, cr0, [r0], {130}	; 0x82
     528:	e3000000 	movw	r0, #0
     52c:	02000002 	andeq	r0, r0, #2, 0
     530:	6e690504 	cdpvs	5, 6, cr0, cr9, cr4, {0}
     534:	04030074 	streq	r0, [r3], #-116	; 0xffffff8c
     538:	00006f07 	andeq	r6, r0, r7, lsl #30
     53c:	06010300 	streq	r0, [r1], -r0, lsl #6
     540:	0000001d 	andeq	r0, r0, sp, lsl r0
     544:	cd050203 	sfmgt	f0, 4, [r5, #-12]
     548:	03000000 	movweq	r0, #0
     54c:	00810504 	addeq	r0, r1, r4, lsl #10
     550:	08030000 	stmdaeq	r3, {}	; <UNPREDICTABLE>
     554:	00007c05 	andeq	r7, r0, r5, lsl #24
     558:	08010300 	stmdaeq	r1, {r8, r9}
     55c:	0000001b 	andeq	r0, r0, fp, lsl r0
     560:	35070203 	strcc	r0, [r7, #-515]	; 0xfffffdfd
     564:	03000000 	movweq	r0, #0
     568:	006a0704 	rsbeq	r0, sl, r4, lsl #14
     56c:	08030000 	stmdaeq	r3, {}	; <UNPREDICTABLE>
     570:	00006507 	andeq	r6, r0, r7, lsl #10
     574:	00250400 	eoreq	r0, r5, r0, lsl #8
     578:	007a0000 	rsbseq	r0, sl, r0
     57c:	25050000 	strcs	r0, [r5, #-0]
     580:	00000000 	andeq	r0, r0, r0
     584:	00008a06 	andeq	r8, r0, r6, lsl #20
     588:	0e1c0200 	cdpeq	2, 1, cr0, cr12, cr0, {0}
     58c:	00000086 	andeq	r0, r0, r6, lsl #1
     590:	006b0407 	rsbeq	r0, fp, r7, lsl #8
     594:	25040000 	strcs	r0, [r4, #-0]
     598:	9b000000 	blls	5a0 <__code_start__-0x7a60>
     59c:	05000000 	streq	r0, [r0, #-0]
     5a0:	0000009b 	muleq	r0, fp, r0
     5a4:	a8040700 	stmdage	r4, {r8, r9, sl}
     5a8:	03000000 	movweq	r0, #0
     5ac:	00240801 	eoreq	r0, r4, r1, lsl #16
     5b0:	a1080000 	mrsge	r0, (UNDEF: 8)
     5b4:	06000000 	streq	r0, [r0], -r0
     5b8:	00000445 	andeq	r0, r0, r5, asr #8
     5bc:	b90e2102 	stmdblt	lr, {r1, r8, sp}
     5c0:	07000000 	streq	r0, [r0, -r0]
     5c4:	00008c04 	andeq	r8, r0, r4, lsl #24
     5c8:	01d60900 	bicseq	r0, r6, r0, lsl #18
     5cc:	04010000 	streq	r0, [r1], #-0
     5d0:	0000ff07 	andeq	pc, r0, r7, lsl #30
     5d4:	00824000 	addeq	r4, r2, r0
     5d8:	00000c00 	andeq	r0, r0, r0, lsl #24
     5dc:	ff9c0100 			; <UNDEFINED> instruction: 0xff9c0100
     5e0:	0a000000 	beq	5e8 <__code_start__-0x7a18>
     5e4:	000001fa 	strdeq	r0, [r0], -sl
     5e8:	41110401 	tstmi	r1, r1, lsl #8
     5ec:	91000000 	mrsls	r0, (UNDEF: 0)
     5f0:	8d000002 	stchi	0, cr0, [r0, #-8]
     5f4:	0b000002 	bleq	604 <__code_start__-0x79fc>
     5f8:	00008248 	andeq	r8, r0, r8, asr #4
     5fc:	00000101 	andeq	r0, r0, r1, lsl #2
     600:	0350010c 	cmpeq	r0, #3
     604:	005001f3 	ldrsheq	r0, [r0], #-19	; 0xffffffed
     608:	0e040d00 	cdpeq	13, 0, cr0, cr4, cr0, {0}
     60c:	00000204 	andeq	r0, r0, r4, lsl #4
     610:	00000204 	andeq	r0, r0, r4, lsl #4
     614:	00077b02 	andeq	r7, r7, r2, lsl #22
     618:	00000733 	andeq	r0, r0, r3, lsr r7
     61c:	04030004 	streq	r0, [r3], #-4
     620:	01040000 	mrseq	r0, (UNDEF: 4)
     624:	000000e1 	andeq	r0, r0, r1, ror #1
     628:	00002b0c 	andeq	r2, r0, ip, lsl #22
     62c:	00009600 	andeq	r9, r0, r0, lsl #12
     630:	00824c00 	addeq	r4, r2, r0, lsl #24
     634:	0002fc00 	andeq	pc, r2, r0, lsl #24
     638:	00035c00 	andeq	r5, r3, r0, lsl #24
     63c:	05040200 	streq	r0, [r4, #-512]	; 0xfffffe00
     640:	00746e69 	rsbseq	r6, r4, r9, ror #28
     644:	6f070403 	svcvs	0x00070403
     648:	03000000 	movweq	r0, #0
     64c:	001d0601 	andseq	r0, sp, r1, lsl #12
     650:	02030000 	andeq	r0, r3, #0, 0
     654:	0000cd05 	andeq	ip, r0, r5, lsl #26
     658:	05040300 	streq	r0, [r4, #-768]	; 0xfffffd00
     65c:	00000081 	andeq	r0, r0, r1, lsl #1
     660:	7c050803 	stcvc	8, cr0, [r5], {3}
     664:	03000000 	movweq	r0, #0
     668:	001b0801 	andseq	r0, fp, r1, lsl #16
     66c:	d4040000 	strle	r0, [r4], #-0
     670:	03000002 	movweq	r0, #2
     674:	00621931 	rsbeq	r1, r2, r1, lsr r9
     678:	02030000 	andeq	r0, r3, #0, 0
     67c:	00003507 	andeq	r3, r0, r7, lsl #10
     680:	02dd0400 	sbcseq	r0, sp, #0, 8
     684:	34030000 	strcc	r0, [r3], #-0
     688:	00007519 	andeq	r7, r0, r9, lsl r5
     68c:	07040300 	streq	r0, [r4, -r0, lsl #6]
     690:	0000006a 	andeq	r0, r0, sl, rrx
     694:	65070803 	strvs	r0, [r7, #-2051]	; 0xfffff7fd
     698:	05000000 	streq	r0, [r0, #-0]
     69c:	00000025 	andeq	r0, r0, r5, lsr #32
     6a0:	00000092 	muleq	r0, r2, r0
     6a4:	00002506 	andeq	r2, r0, r6, lsl #10
     6a8:	8a070000 	bhi	1c06b0 <__bss_end__+0x1b62e8>
     6ac:	04000000 	streq	r0, [r0], #-0
     6b0:	009e0e1c 	addseq	r0, lr, ip, lsl lr
     6b4:	04080000 	streq	r0, [r8], #-0
     6b8:	00000083 	andeq	r0, r0, r3, lsl #1
     6bc:	00002505 	andeq	r2, r0, r5, lsl #10
     6c0:	0000b300 	andeq	fp, r0, r0, lsl #6
     6c4:	00b30600 	adcseq	r0, r3, r0, lsl #12
     6c8:	08000000 	stmdaeq	r0, {}	; <UNPREDICTABLE>
     6cc:	0000c004 	andeq	ip, r0, r4
     6d0:	08010300 	stmdaeq	r1, {r8, r9}
     6d4:	00000024 	andeq	r0, r0, r4, lsr #32
     6d8:	0000b909 	andeq	fp, r0, r9, lsl #18
     6dc:	04450700 	strbeq	r0, [r5], #-1792	; 0xfffff900
     6e0:	21040000 	mrscs	r0, (UNDEF: 4)
     6e4:	0000d10e 	andeq	sp, r0, lr, lsl #2
     6e8:	a4040800 	strge	r0, [r4], #-2048	; 0xfffff800
     6ec:	0a000000 	beq	6f4 <__code_start__-0x790c>
     6f0:	0904050c 	stmdbeq	r4, {r2, r3, r8, sl}
     6f4:	00000108 	andeq	r0, r0, r8, lsl #2
     6f8:	0000160b 	andeq	r1, r0, fp, lsl #12
     6fc:	11060500 	tstne	r6, r0, lsl #10
     700:	000000b3 	strheq	r0, [r0], -r3
     704:	00530b00 	subseq	r0, r3, r0, lsl #22
     708:	07050000 	streq	r0, [r5, -r0]
     70c:	0000b311 	andeq	fp, r0, r1, lsl r3
     710:	070b0400 	streq	r0, [fp, -r0, lsl #8]
     714:	05000000 	streq	r0, [r0, #-0]
     718:	002c0e08 	eoreq	r0, ip, r8, lsl #28
     71c:	00080000 	andeq	r0, r8, r0
     720:	0000d704 	andeq	sp, r0, r4, lsl #14
     724:	03090500 	movweq	r0, #38144	; 0x9500
     728:	000000d7 	ldrdeq	r0, [r0], -r7
     72c:	4f01070c 	svcmi	0x0001070c
     730:	02000000 	andeq	r0, r0, #0, 0
     734:	012f0e09 			; <UNDEFINED> instruction: 0x012f0e09
     738:	310d0000 	mrscc	r0, (UNDEF: 13)
     73c:	0b000002 	bleq	74c <__code_start__-0x78b4>
     740:	00025d0d 	andeq	r5, r2, sp, lsl #26
     744:	0e000c00 	cdpeq	12, 0, cr0, cr0, cr0, {0}
     748:	0000027d 	andeq	r0, r0, sp, ror r2
     74c:	100c0224 	andne	r0, ip, r4, lsr #4
     750:	00000198 	muleq	r0, r8, r1
     754:	0002260b 	andeq	r2, r2, fp, lsl #12
     758:	140d0200 	strne	r0, [sp], #-512	; 0xfffffe00
     75c:	00000198 	muleq	r0, r8, r1
     760:	02630b00 	rsbeq	r0, r3, #0, 22
     764:	0e020000 	cdpeq	0, 0, cr0, cr2, cr0, {0}
     768:	0000690e 	andeq	r6, r0, lr, lsl #18
     76c:	2b0b0400 	blcs	2c1774 <__bss_end__+0x2b73ac>
     770:	02000002 	andeq	r0, r0, #2, 0
     774:	00690e0f 	rsbeq	r0, r9, pc, lsl #28
     778:	0b080000 	bleq	200780 <__bss_end__+0x1f63b8>
     77c:	000002a3 	andeq	r0, r0, r3, lsr #5
     780:	080f1102 	stmdaeq	pc, {r1, r8, ip}	; <UNPREDICTABLE>
     784:	0c000001 	stceq	0, cr0, [r0], {1}
     788:	0002f20b 	andeq	pc, r2, fp, lsl #4
     78c:	0e140200 	cdpeq	2, 1, cr0, cr4, cr0, {0}
     790:	00000069 	andeq	r0, r0, r9, rrx
     794:	03020b18 	movweq	r0, #11032	; 0x2b18
     798:	15020000 	strne	r0, [r2, #-0]
     79c:	0000690e 	andeq	r6, r0, lr, lsl #18
     7a0:	580b1c00 	stmdapl	fp, {sl, fp, ip}
     7a4:	02000002 	andeq	r0, r0, #2, 0
     7a8:	00560e17 	subseq	r0, r6, r7, lsl lr
     7ac:	00200000 	eoreq	r0, r0, r0
     7b0:	012f0408 			; <UNDEFINED> instruction: 0x012f0408
     7b4:	20040000 	andcs	r0, r4, r0
     7b8:	02000002 	andeq	r0, r0, #2, 0
     7bc:	012f0318 			; <UNDEFINED> instruction: 0x012f0318
     7c0:	8b0f0000 	blhi	3c07c8 <__bss_end__+0x3b6400>
     7c4:	01000002 	tsteq	r0, r2
     7c8:	01bc0f08 			; <UNDEFINED> instruction: 0x01bc0f08
     7cc:	03050000 	movweq	r0, #20480	; 0x5000
     7d0:	00009fc0 	andeq	r9, r0, r0, asr #31
     7d4:	019e0408 	orrseq	r0, lr, r8, lsl #8
     7d8:	c5100000 	ldrgt	r0, [r0, #-0]
     7dc:	01000000 	mrseq	r0, (UNDEF: 0)
     7e0:	02880867 	addeq	r0, r8, #6750208	; 0x670000
     7e4:	84b80000 	ldrthi	r0, [r8], #0
     7e8:	00900000 	addseq	r0, r0, r0
     7ec:	9c010000 	stcls	0, cr0, [r1], {-0}
     7f0:	00000288 	andeq	r0, r0, r8, lsl #5
     7f4:	00021911 	andeq	r1, r2, r1, lsl r9
     7f8:	1a670100 	bne	19c0c00 <__bss_end__+0x19b6838>
     7fc:	0000002c 	andeq	r0, r0, ip, lsr #32
     800:	000002b8 			; <UNDEFINED> instruction: 0x000002b8
     804:	000002b2 			; <UNDEFINED> instruction: 0x000002b2
     808:	01006c12 	tsteq	r0, r2, lsl ip
     80c:	01082c67 	tsteq	r8, r7, ror #24
     810:	91020000 	mrsls	r0, (UNDEF: 2)
     814:	00681364 	rsbeq	r1, r8, r4, ror #6
     818:	bc0c6901 			; <UNDEFINED> instruction: 0xbc0c6901
     81c:	ea000001 	b	828 <__code_start__-0x77d8>
     820:	e4000002 	str	r0, [r0], #-2
     824:	14000002 	strne	r0, [r0], #-2
     828:	000084d4 	ldrdeq	r8, [r0], -r4
     82c:	000006fa 	strdeq	r0, [r0], -sl
     830:	00000223 	andeq	r0, r0, r3, lsr #4
     834:	02500115 	subseq	r0, r0, #1073741829	; 0x40000005
     838:	14002476 	strne	r2, [r0], #-1142	; 0xfffffb8a
     83c:	000084e4 	andeq	r8, r0, r4, ror #9
     840:	00000706 	andeq	r0, r0, r6, lsl #14
     844:	00000242 	andeq	r0, r0, r2, asr #4
     848:	02500115 	subseq	r0, r0, #1073741829	; 0x40000005
     84c:	01150074 	tsteq	r5, r4, ror r0
     850:	15300151 	ldrne	r0, [r0, #-337]!	; 0xfffffeaf
     854:	08025201 	stmdaeq	r2, {r0, r9, ip, lr}
     858:	10140024 	andsne	r0, r4, r4, lsr #32
     85c:	12000085 	andne	r0, r0, #133, 0	; 0x85
     860:	6e000007 	cdpvs	0, 0, cr0, cr0, cr7, {0}
     864:	15000002 	strne	r0, [r0, #-2]
     868:	03055001 	movweq	r5, #20481	; 0x5001
     86c:	00009b94 	muleq	r0, r4, fp
     870:	03510115 	cmpeq	r1, #1073741829	; 0x40000005
     874:	15060075 	strne	r0, [r6, #-117]	; 0xffffff8b
     878:	91035201 	tstls	r3, r1, lsl #4
     87c:	01150660 	tsteq	r5, r0, ror #12
     880:	64910353 	ldrvs	r0, [r1], #851	; 0x353
     884:	20160006 	andscs	r0, r6, r6
     888:	12000085 	andne	r0, r0, #133, 0	; 0x85
     88c:	15000007 	strne	r0, [r0, #-7]
     890:	03055001 	movweq	r5, #20481	; 0x5001
     894:	00009c08 	andeq	r9, r0, r8, lsl #24
     898:	02510115 	subseq	r0, r1, #1073741829	; 0x40000005
     89c:	00000075 	andeq	r0, r0, r5, ror r0
     8a0:	00180417 	andseq	r0, r8, r7, lsl r4
     8a4:	01000000 	mrseq	r0, (UNDEF: 0)
     8a8:	83cc0654 	bichi	r0, ip, #84, 12	; 0x5400000
     8ac:	00ec0000 	rsceq	r0, ip, r0
     8b0:	9c010000 	stcls	0, cr0, [r1], {-0}
     8b4:	000003f9 	strdeq	r0, [r0], -r9
     8b8:	0008fa11 	andeq	pc, r8, r1, lsl sl	; <UNPREDICTABLE>
     8bc:	14540100 	ldrbne	r0, [r4], #-256	; 0xffffff00
     8c0:	00000288 	andeq	r0, r0, r8, lsl #5
     8c4:	0000031b 	andeq	r0, r0, fp, lsl r3
     8c8:	00000317 	andeq	r0, r0, r7, lsl r3
     8cc:	01006c12 	tsteq	r0, r2, lsl ip
     8d0:	01082454 	tsteq	r8, r4, asr r4
     8d4:	91020000 	mrsls	r0, (UNDEF: 2)
     8d8:	0068135c 	rsbeq	r1, r8, ip, asr r3
     8dc:	bc0c5601 	stclt	6, cr5, [ip], {1}
     8e0:	43000001 	movwmi	r0, #1
     8e4:	39000003 	stmdbcc	r0, {r0, r1}
     8e8:	19000003 	stmdbne	r0, {r0, r1}
     8ec:	00000058 	andeq	r0, r0, r8, asr r0
     8f0:	00000409 	andeq	r0, r0, r9, lsl #8
     8f4:	9c240305 	stcls	3, cr0, [r4], #-20	; 0xffffffec
     8f8:	00140000 	andseq	r0, r4, r0
     8fc:	12000084 	andne	r0, r0, #132, 0	; 0x84
     900:	0b000007 	bleq	924 <__code_start__-0x76dc>
     904:	15000003 	strne	r0, [r0, #-3]
     908:	03055001 	movweq	r5, #20481	; 0x5001
     90c:	00009b94 	muleq	r0, r4, fp
     910:	02510115 	subseq	r0, r1, #1073741829	; 0x40000005
     914:	01150076 	tsteq	r5, r6, ror r0
     918:	00770252 	rsbseq	r0, r7, r2, asr r2
     91c:	02530115 	subseq	r0, r3, #1073741829	; 0x40000005
     920:	14000078 	strne	r0, [r0], #-120	; 0xffffff88
     924:	0000840c 	andeq	r8, r0, ip, lsl #8
     928:	00000712 	andeq	r0, r0, r2, lsl r7
     92c:	00000328 	andeq	r0, r0, r8, lsr #6
     930:	05500115 	ldrbeq	r0, [r0, #-277]	; 0xfffffeeb
     934:	009ba003 	addseq	sl, fp, r3
     938:	51011500 	tstpl	r1, r0, lsl #10
     93c:	00007402 	andeq	r7, r0, r2, lsl #8
     940:	00842c14 	addeq	r2, r4, r4, lsl ip
     944:	00052e00 	andeq	r2, r5, r0, lsl #28
     948:	00033c00 	andeq	r3, r3, r0, lsl #24
     94c:	50011500 	andpl	r1, r1, r0, lsl #10
     950:	00007402 	andeq	r7, r0, r2, lsl #8
     954:	00844014 	addeq	r4, r4, r4, lsl r0
     958:	00040e00 	andeq	r0, r4, r0, lsl #28
     95c:	00035900 	andeq	r5, r3, r0, lsl #18
     960:	50011500 	andpl	r1, r1, r0, lsl #10
     964:	9fc00305 	svcls	0x00c00305
     968:	01150000 	tsteq	r5, r0
     96c:	00750251 	rsbseq	r0, r5, r1, asr r2
     970:	84481400 	strbhi	r1, [r8], #-1024	; 0xfffffc00
     974:	071e0000 	ldreq	r0, [lr, -r0]
     978:	036d0000 	cmneq	sp, #0, 0
     97c:	01150000 	tsteq	r5, r0
     980:	00750250 	rsbseq	r0, r5, r0, asr r2
     984:	84641400 	strbthi	r1, [r4], #-1024	; 0xfffffc00
     988:	07120000 	ldreq	r0, [r2, -r0]
     98c:	03960000 	orrseq	r0, r6, #0, 0
     990:	01150000 	tsteq	r5, r0
     994:	b0030550 	andlt	r0, r3, r0, asr r5
     998:	1500009b 	strne	r0, [r0, #-155]	; 0xffffff65
     99c:	76025101 	strvc	r5, [r2], -r1, lsl #2
     9a0:	52011500 	andpl	r1, r1, #0, 10
     9a4:	15007702 	strne	r7, [r0, #-1794]	; 0xfffff8fe
     9a8:	78025301 	stmdavc	r2, {r0, r8, r9, ip, lr}
     9ac:	70140000 	andsvc	r0, r4, r0
     9b0:	12000084 	andne	r0, r0, #132, 0	; 0x84
     9b4:	ad000007 	stcge	0, cr0, [r0, #-28]	; 0xffffffe4
     9b8:	15000003 	strne	r0, [r0, #-3]
     9bc:	03055001 	movweq	r5, #20481	; 0x5001
     9c0:	00009bc8 	andeq	r9, r0, r8, asr #23
     9c4:	84741a00 	ldrbthi	r1, [r4], #-2560	; 0xfffff600
     9c8:	072a0000 	streq	r0, [sl, -r0]!
     9cc:	90140000 	andsls	r0, r4, r0
     9d0:	12000084 	andne	r0, r0, #132, 0	; 0x84
     9d4:	ef000007 	svc	0x00000007
     9d8:	15000003 	strne	r0, [r0, #-3]
     9dc:	03055001 	movweq	r5, #20481	; 0x5001
     9e0:	00009b40 	andeq	r9, r0, r0, asr #22
     9e4:	05510115 	ldrbeq	r0, [r1, #-277]	; 0xfffffeeb
     9e8:	009b3403 	addseq	r3, fp, r3, lsl #8
     9ec:	52011500 	andpl	r1, r1, #0, 10
     9f0:	9c240305 	stcls	3, cr0, [r4], #-20	; 0xffffffec
     9f4:	01150000 	tsteq	r5, r0
     9f8:	5e080253 	mcrpl	2, 0, r0, cr8, cr3, {2}
     9fc:	007d0215 	rsbseq	r0, sp, r5, lsl r2
     a00:	9bf00305 	blls	ffc0161c <__bss_end__+0xffbf7254>
     a04:	1a000000 	bne	a0c <__code_start__-0x75f4>
     a08:	00008494 	muleq	r0, r4, r4
     a0c:	0000072a 	andeq	r0, r0, sl, lsr #14
     a10:	00c01b00 	sbceq	r1, r0, r0, lsl #22
     a14:	04090000 	streq	r0, [r9], #-0
     a18:	2c1c0000 	ldccs	0, cr0, [ip], {-0}
     a1c:	06000000 	streq	r0, [r0], -r0
     a20:	03f90900 	mvnseq	r0, #0, 18
     a24:	ad1d0000 	ldcge	0, cr0, [sp, #-0]
     a28:	01000002 	tsteq	r0, r2
     a2c:	826c0d3b 	rsbhi	r0, ip, #3776	; 0xec0
     a30:	00a40000 	adceq	r0, r4, r0
     a34:	9c010000 	stcls	0, cr0, [r1], {-0}
     a38:	00000513 	andeq	r0, r0, r3, lsl r5
     a3c:	01006c1e 	tsteq	r0, lr, lsl ip
     a40:	0513213b 	ldreq	r2, [r3, #-315]	; 0xfffffec5
     a44:	03940000 	orrseq	r0, r4, #0, 0
     a48:	03860000 	orreq	r0, r6, #0, 0
     a4c:	681e0000 	ldmdavs	lr, {}	; <UNPREDICTABLE>
     a50:	2b3b0100 	blcs	ec0e58 <__bss_end__+0xeb6a90>
     a54:	000001bc 			; <UNDEFINED> instruction: 0x000001bc
     a58:	000003fe 	strdeq	r0, [r0], -lr
     a5c:	000003f2 	strdeq	r0, [r0], -r2
     a60:	00005819 	andeq	r5, r0, r9, lsl r8
     a64:	00052900 	andeq	r2, r5, r0, lsl #18
     a68:	18030500 	stmdane	r3, {r8, sl}
     a6c:	1f00009c 	svcne	0x0000009c
     a70:	000002fd 	strdeq	r0, [r0], -sp
     a74:	bc0c3e01 	stclt	14, cr3, [ip], {1}
     a78:	53000001 	movwpl	r0, #1
     a7c:	4b000004 	blmi	a94 <__code_start__-0x756c>
     a80:	13000004 	movwne	r0, #4
     a84:	46010070 			; <UNDEFINED> instruction: 0x46010070
     a88:	0001bc0c 	andeq	fp, r1, ip, lsl #24
     a8c:	00048b00 	andeq	r8, r4, r0, lsl #22
     a90:	00048700 	andeq	r8, r4, r0, lsl #14
     a94:	82941400 	addshi	r1, r4, #0, 8
     a98:	069b0000 	ldreq	r0, [fp], r0
     a9c:	04910000 	ldreq	r0, [r1], #0
     aa0:	01150000 	tsteq	r5, r0
     aa4:	00750250 	rsbseq	r0, r5, r0, asr r2
     aa8:	82d01400 	sbcshi	r1, r0, #0, 8
     aac:	07120000 	ldreq	r0, [r2, -r0]
     ab0:	04ca0000 	strbeq	r0, [sl], #0
     ab4:	01150000 	tsteq	r5, r0
     ab8:	40030550 	andmi	r0, r3, r0, asr r5
     abc:	1500009b 	strne	r0, [r0, #-155]	; 0xffffff65
     ac0:	03055101 	movweq	r5, #20737	; 0x5101
     ac4:	00009b34 	andeq	r9, r0, r4, lsr fp
     ac8:	05520115 	ldrbeq	r0, [r2, #-277]	; 0xfffffeeb
     acc:	009c1803 	addseq	r1, ip, r3, lsl #16
     ad0:	53011500 	movwpl	r1, #5376	; 0x1500
     ad4:	153d0802 	ldrne	r0, [sp, #-2050]!	; 0xfffff7fe
     ad8:	05007d02 	streq	r7, [r0, #-3330]	; 0xfffff2fe
     adc:	009b5403 	addseq	r5, fp, r3, lsl #8
     ae0:	d41a0000 	ldrle	r0, [sl], #-0
     ae4:	2a000082 	bcs	cf4 <__code_start__-0x730c>
     ae8:	14000007 	strne	r0, [r0], #-7
     aec:	000082f8 	strdeq	r8, [r0], -r8	; <UNPREDICTABLE>
     af0:	00000712 	andeq	r0, r0, r2, lsl r7
     af4:	00000509 	andeq	r0, r0, r9, lsl #10
     af8:	05500115 	ldrbeq	r0, [r0, #-277]	; 0xfffffeeb
     afc:	009b5803 	addseq	r5, fp, r3, lsl #16
     b00:	51011500 	tstpl	r1, r0, lsl #10
     b04:	9b340305 	blls	d01720 <__bss_end__+0xcf7358>
     b08:	01150000 	tsteq	r5, r0
     b0c:	18030552 	stmdane	r3, {r1, r4, r6, r8, sl}
     b10:	1500009c 	strne	r0, [r0, #-156]	; 0xffffff64
     b14:	08025301 	stmdaeq	r2, {r0, r8, r9, ip, lr}
     b18:	7d021550 	cfstr32vc	mvfx1, [r2, #-320]	; 0xfffffec0
     b1c:	00740200 	rsbseq	r0, r4, r0, lsl #4
     b20:	82fc1a00 	rscshi	r1, ip, #0, 20
     b24:	072a0000 	streq	r0, [sl, -r0]!
     b28:	08000000 	stmdaeq	r0, {}	; <UNPREDICTABLE>
     b2c:	0001bc04 	andeq	fp, r1, r4, lsl #24
     b30:	00c01b00 	sbceq	r1, r0, r0, lsl #22
     b34:	05290000 	streq	r0, [r9, #-0]!
     b38:	2c1c0000 	ldccs	0, cr0, [ip], {-0}
     b3c:	0b000000 	bleq	b44 <__code_start__-0x74bc>
     b40:	05190900 	ldreq	r0, [r9, #-2304]	; 0xfffff700
     b44:	46100000 	ldrmi	r0, [r0], -r0
     b48:	01000002 	tsteq	r0, r2
     b4c:	00250529 	eoreq	r0, r5, r9, lsr #10
     b50:	836c0000 	cmnhi	ip, #0, 0
     b54:	00600000 	rsbeq	r0, r0, r0
     b58:	9c010000 	stcls	0, cr0, [r1], {-0}
     b5c:	000005cf 	andeq	r0, r0, pc, asr #11
     b60:	7274701e 	rsbsvc	r7, r4, #30, 0
     b64:	1d290100 	stfnes	f0, [r9, #-0]
     b68:	00000288 	andeq	r0, r0, r8, lsl #5
     b6c:	000004ad 	andeq	r0, r0, sp, lsr #9
     b70:	000004a9 	andeq	r0, r0, r9, lsr #9
     b74:	00837420 	addeq	r7, r3, r0, lsr #8
     b78:	00004c00 	andeq	r4, r0, r0, lsl #24
     b7c:	00681300 	rsbeq	r1, r8, r0, lsl #6
     b80:	bc112c01 	ldclt	12, cr2, [r1], {1}
     b84:	d7000001 	strle	r0, [r0, -r1]
     b88:	cb000004 	blgt	ba0 <__code_start__-0x7460>
     b8c:	1a000004 	bne	ba4 <__code_start__-0x745c>
     b90:	00008378 	andeq	r8, r0, r8, ror r3
     b94:	000006c8 	andeq	r0, r0, r8, asr #13
     b98:	00839014 	addeq	r9, r3, r4, lsl r0
     b9c:	0005cf00 	andeq	ip, r5, r0, lsl #30
     ba0:	00059a00 	andeq	r9, r5, r0, lsl #20
     ba4:	50011500 	andpl	r1, r1, r0, lsl #10
     ba8:	15007402 	strne	r7, [r0, #-1026]	; 0xfffffbfe
     bac:	75025101 	strvc	r5, [r2, #-257]	; 0xfffffeff
     bb0:	a0140000 	andsge	r0, r4, r0
     bb4:	9b000083 	blls	dc8 <__code_start__-0x7238>
     bb8:	ae000006 	cdpge	0, 0, cr0, cr0, cr6, {0}
     bbc:	15000005 	strne	r0, [r0, #-5]
     bc0:	74025001 	strvc	r5, [r2], #-1
     bc4:	b8160000 	ldmdalt	r6, {}	; <UNPREDICTABLE>
     bc8:	12000083 	andne	r0, r0, #131, 0	; 0x83
     bcc:	15000007 	strne	r0, [r0, #-7]
     bd0:	03055001 	movweq	r5, #20481	; 0x5001
     bd4:	00009b84 	andeq	r9, r0, r4, lsl #23
     bd8:	02510115 	subseq	r0, r1, #1073741829	; 0x40000005
     bdc:	01150075 	tsteq	r5, r5, ror r0
     be0:	00740252 	rsbseq	r0, r4, r2, asr r2
     be4:	10000000 	andne	r0, r0, r0
     be8:	000002c4 	andeq	r0, r0, r4, asr #5
     bec:	2c0a2401 	cfstrscs	mvf2, [sl], {1}
     bf0:	30000000 	andcc	r0, r0, r0
     bf4:	3c000083 	stccc	0, cr0, [r0], {131}	; 0x83
     bf8:	01000000 	mrseq	r0, (UNDEF: 0)
     bfc:	00060a9c 	muleq	r6, ip, sl
     c00:	00681e00 	rsbeq	r1, r8, r0, lsl #28
     c04:	bc212401 	cfstrslt	mvf2, [r1], #-4
     c08:	29000001 	stmdbcs	r0, {r0}
     c0c:	21000005 	tstcs	r0, r5
     c10:	12000005 	andne	r0, r0, #5, 0
     c14:	00727470 	rsbseq	r7, r2, r0, ror r4
     c18:	882a2401 	stmdahi	sl!, {r0, sl, sp}
     c1c:	01000002 	tsteq	r0, r2
     c20:	b9100051 	ldmdblt	r0, {r0, r4, r6}
     c24:	01000002 	tsteq	r0, r2
     c28:	0288071e 	addeq	r0, r8, #7864320	; 0x780000
     c2c:	83180000 	tsthi	r8, #0, 0
     c30:	00180000 	andseq	r0, r8, r0
     c34:	9c010000 	stcls	0, cr0, [r1], {-0}
     c38:	0000066e 	andeq	r0, r0, lr, ror #12
     c3c:	0100681e 	tsteq	r0, lr, lsl r8
     c40:	01bc191e 			; <UNDEFINED> instruction: 0x01bc191e
     c44:	05670000 	strbeq	r0, [r7, #-0]!
     c48:	05630000 	strbeq	r0, [r3, #-0]!
     c4c:	de210000 	cdple	0, 2, cr0, cr1, cr0, {0}
     c50:	24000006 	strcs	r0, [r0], #-6
     c54:	00000083 	andeq	r0, r0, r3, lsl #1
     c58:	00008324 	andeq	r8, r0, r4, lsr #6
     c5c:	00000004 	andeq	r0, r0, r4
     c60:	5d262001 	stcpl	0, cr2, [r6, #-4]!
     c64:	22000006 	andcs	r0, r0, #6, 0
     c68:	000006ef 	andeq	r0, r0, pc, ror #13
     c6c:	00000587 	andeq	r0, r0, r7, lsl #11
     c70:	00000585 	andeq	r0, r0, r5, lsl #11
     c74:	83241600 			; <UNDEFINED> instruction: 0x83241600
     c78:	066e0000 	strbteq	r0, [lr], -r0
     c7c:	01150000 	tsteq	r5, r0
     c80:	00740250 	rsbseq	r0, r4, r0, asr r2
     c84:	39100000 	ldmdbcc	r0, {}	; <UNPREDICTABLE>
     c88:	01000002 	tsteq	r0, r2
     c8c:	02880718 	addeq	r0, r8, #24, 14	; 0x600000
     c90:	83100000 	tsthi	r0, #0, 0
     c94:	00080000 	andeq	r0, r8, r0
     c98:	9c010000 	stcls	0, cr0, [r1], {-0}
     c9c:	0000069b 	muleq	r0, fp, r6
     ca0:	0100681e 	tsteq	r0, lr, lsl r8
     ca4:	01bc1b18 			; <UNDEFINED> instruction: 0x01bc1b18
     ca8:	059e0000 	ldreq	r0, [lr]
     cac:	059a0000 	ldreq	r0, [sl]
     cb0:	10000000 	andne	r0, r0, r0
     cb4:	000002e6 	andeq	r0, r0, r6, ror #5
     cb8:	bc081101 	stflts	f1, [r8], {1}
     cbc:	5c000001 	stcpl	0, cr0, [r0], {1}
     cc0:	10000082 	andne	r0, r0, r2, lsl #1
     cc4:	01000000 	mrseq	r0, (UNDEF: 0)
     cc8:	0006c89c 	muleq	r6, ip, r8
     ccc:	00701e00 	rsbseq	r1, r0, r0, lsl #28
     cd0:	bc1b1101 	ldflts	f1, [fp], {1}
     cd4:	c2000001 	andgt	r0, r0, #1, 0
     cd8:	be000005 	cdplt	0, 0, cr0, cr0, cr5, {0}
     cdc:	00000005 	andeq	r0, r0, r5
     ce0:	00029623 	andeq	r9, r2, r3, lsr #12
     ce4:	080b0100 	stmdaeq	fp, {r8}
     ce8:	000001bc 			; <UNDEFINED> instruction: 0x000001bc
     cec:	0000824c 	andeq	r8, r0, ip, asr #4
     cf0:	00000010 	andeq	r0, r0, r0, lsl r0
     cf4:	16249c01 	strtne	r9, [r4], -r1, lsl #24
     cf8:	02000002 	andeq	r0, r0, #2, 0
     cfc:	002c1821 	eoreq	r1, ip, r1, lsr #16
     d00:	fa030000 	blx	c0d08 <__bss_end__+0xb6940>
     d04:	25000006 	strcs	r0, [r0, #-6]
     d08:	21020068 	tstcs	r2, r8, rrx
     d0c:	0001bc29 	andeq	fp, r1, r9, lsr #24
     d10:	e4260000 	strt	r0, [r6], #-0
     d14:	e4000001 	str	r0, [r0], #-1
     d18:	06000001 	streq	r0, [r0], -r1
     d1c:	8426071e 	strthi	r0, [r6], #-1822	; 0xfffff8e2
     d20:	84000002 	strhi	r0, [r0], #-2
     d24:	04000002 	streq	r0, [r0], #-2
     d28:	072607f2 			; <UNDEFINED> instruction: 0x072607f2
     d2c:	07000004 	streq	r0, [r0, -r4]
     d30:	04000004 	streq	r0, [r0], #-4
     d34:	a9260628 	stmdbge	r6!, {r3, r5, r9, sl}
     d38:	a9000001 	stmdbge	r0, {r0}
     d3c:	06000001 	streq	r0, [r0], -r1
     d40:	7026061f 	eorvc	r0, r6, pc, lsl r6
     d44:	70000002 	andvc	r0, r0, r2
     d48:	04000002 	streq	r0, [r0], #-2
     d4c:	4000066e 	andmi	r0, r0, lr, ror #12
     d50:	04000001 	streq	r0, [r0], #-1
     d54:	00065900 	andeq	r5, r6, r0, lsl #18
     d58:	25010400 	strcs	r0, [r1, #-1024]	; 0xfffffc00
     d5c:	0c000003 	stceq	0, cr0, [r0], {3}
     d60:	00000315 	andeq	r0, r0, r5, lsl r3
     d64:	000003dd 	ldrdeq	r0, [r0], -sp
     d68:	00008548 	andeq	r8, r0, r8, asr #10
     d6c:	00000078 	andeq	r0, r0, r8, ror r0
     d70:	0000065f 	andeq	r0, r0, pc, asr r6
     d74:	69050402 	stmdbvs	r5, {r1, sl}
     d78:	0300746e 	movweq	r7, #1134	; 0x46e
     d7c:	0000030e 	andeq	r0, r0, lr, lsl #6
     d80:	3817d103 	ldmdacc	r7, {r0, r1, r8, ip, lr, pc}
     d84:	04000000 	streq	r0, [r0], #-0
     d88:	006f0704 	rsbeq	r0, pc, r4, lsl #14
     d8c:	01040000 	mrseq	r0, (UNDEF: 4)
     d90:	00001d06 	andeq	r1, r0, r6, lsl #26
     d94:	05020400 	streq	r0, [r2, #-1024]	; 0xfffffc00
     d98:	000000cd 	andeq	r0, r0, sp, asr #1
     d9c:	81050404 	tsthi	r5, r4, lsl #8
     da0:	04000000 	streq	r0, [r0], #-0
     da4:	007c0508 	rsbseq	r0, ip, r8, lsl #10
     da8:	01040000 	mrseq	r0, (UNDEF: 4)
     dac:	00001b08 	andeq	r1, r0, r8, lsl #22
     db0:	07020400 	streq	r0, [r2, -r0, lsl #8]
     db4:	00000035 	andeq	r0, r0, r5, lsr r0
     db8:	6a070404 	bvs	1c1dd0 <__bss_end__+0x1b7a08>
     dbc:	04000000 	streq	r0, [r0], #-0
     dc0:	00650708 	rsbeq	r0, r5, r8, lsl #14
     dc4:	25050000 	strcs	r0, [r5, #-0]
     dc8:	86000000 	strhi	r0, [r0], -r0
     dcc:	06000000 	streq	r0, [r0], -r0
     dd0:	00000025 	andeq	r0, r0, r5, lsr #32
     dd4:	008a0700 	addeq	r0, sl, r0, lsl #14
     dd8:	1c020000 	stcne	0, cr0, [r2], {-0}
     ddc:	0000920e 	andeq	r9, r0, lr, lsl #4
     de0:	77040800 	strvc	r0, [r4, -r0, lsl #16]
     de4:	05000000 	streq	r0, [r0, #-0]
     de8:	00000025 	andeq	r0, r0, r5, lsr #32
     dec:	000000a7 	andeq	r0, r0, r7, lsr #1
     df0:	0000a706 	andeq	sl, r0, r6, lsl #14
     df4:	04080000 	streq	r0, [r8], #-0
     df8:	000000b4 	strheq	r0, [r0], -r4
     dfc:	24080104 	strcs	r0, [r8], #-260	; 0xfffffefc
     e00:	09000000 	stmdbeq	r0, {}	; <UNPREDICTABLE>
     e04:	000000ad 	andeq	r0, r0, sp, lsr #1
     e08:	00044507 	andeq	r4, r4, r7, lsl #10
     e0c:	0e210200 	cdpeq	2, 2, cr0, cr1, cr0, {0}
     e10:	000000c5 	andeq	r0, r0, r5, asr #1
     e14:	00980408 	addseq	r0, r8, r8, lsl #8
     e18:	840a0000 	strhi	r0, [sl], #-0
     e1c:	01000002 	tsteq	r0, r2
     e20:	013b0704 	teqeq	fp, r4, lsl #14
     e24:	85480000 	strbhi	r0, [r8, #-0]
     e28:	00780000 	rsbseq	r0, r8, r0
     e2c:	9c010000 	stcls	0, cr0, [r1], {-0}
     e30:	0000013b 	andeq	r0, r0, fp, lsr r1
     e34:	00705f0b 	rsbseq	r5, r0, fp, lsl #30
     e38:	3b140401 	blcc	501e44 <__bss_end__+0x4f7a7c>
     e3c:	01000001 	tsteq	r0, r1
     e40:	00630c50 	rsbeq	r0, r3, r0, asr ip
     e44:	251c0401 	ldrcs	r0, [ip, #-1025]	; 0xfffffbff
     e48:	e7000000 	str	r0, [r0, -r0]
     e4c:	e3000005 	movw	r0, #5
     e50:	0c000005 	stceq	0, cr0, [r0], {5}
     e54:	0401006e 	streq	r0, [r1], #-110	; 0xffffff92
     e58:	00002c26 	andeq	r2, r0, r6, lsr #24
     e5c:	00060c00 	andeq	r0, r6, r0, lsl #24
     e60:	00060800 	andeq	r0, r6, r0, lsl #16
     e64:	00700d00 	rsbseq	r0, r0, r0, lsl #26
     e68:	3d0b0501 	cfstr32cc	mvfx0, [fp, #-4]
     e6c:	3b000001 	blcc	e78 <__code_start__-0x7188>
     e70:	2d000006 	stccs	0, cr0, [r0, #-24]	; 0xffffffe8
     e74:	0d000006 	stceq	0, cr0, [r0, #-24]	; 0xffffffe8
     e78:	05010065 	streq	r0, [r1, #-101]	; 0xffffff9b
     e7c:	00013d14 	andeq	r3, r1, r4, lsl sp
     e80:	00069800 	andeq	r9, r6, r0, lsl #16
     e84:	00069600 	andeq	r9, r6, r0, lsl #12
     e88:	040e0000 	streq	r0, [lr], #-0
     e8c:	00ad0408 	adceq	r0, sp, r8, lsl #8
     e90:	9d000000 	stcls	0, cr0, [r0, #-0]
     e94:	04000001 	streq	r0, [r0], #-1
     e98:	00072500 	andeq	r2, r7, r0, lsl #10
     e9c:	25010400 	strcs	r0, [r1, #-1024]	; 0xfffffc00
     ea0:	0c000003 	stceq	0, cr0, [r0], {3}
     ea4:	00000422 	andeq	r0, r0, r2, lsr #8
     ea8:	000003dd 	ldrdeq	r0, [r0], -sp
     eac:	000085c0 	andeq	r8, r0, r0, asr #11
     eb0:	00000058 	andeq	r0, r0, r8, asr r0
     eb4:	00000784 	andeq	r0, r0, r4, lsl #15
     eb8:	00040e02 	andeq	r0, r4, r2, lsl #28
     ebc:	1b280200 	blne	a016c4 <__bss_end__+0x9f72fc>
     ec0:	00000031 	andeq	r0, r0, r1, lsr r0
     ec4:	00043203 	andeq	r3, r4, r3, lsl #4
     ec8:	00040400 	andeq	r0, r4, r0, lsl #8
     ecc:	00000048 	andeq	r0, r0, r8, asr #32
     ed0:	00041d04 	andeq	r1, r4, r4, lsl #26
     ed4:	00004800 	andeq	r4, r0, r0, lsl #16
     ed8:	05000000 	streq	r0, [r0, #-0]
     edc:	04340204 	ldrteq	r0, [r4], #-516	; 0xfffffdfc
     ee0:	63020000 	movwvs	r0, #8192	; 0x2000
     ee4:	00002518 	andeq	r2, r0, r8, lsl r5
     ee8:	05040600 	streq	r0, [r4, #-1536]	; 0xfffffa00
     eec:	00746e69 	rsbseq	r6, r4, r9, ror #28
     ef0:	6f070407 	svcvs	0x00070407
     ef4:	07000000 	streq	r0, [r0, -r0]
     ef8:	001d0601 	andseq	r0, sp, r1, lsl #12
     efc:	02070000 	andeq	r0, r7, #0, 0
     f00:	0000cd05 	andeq	ip, r0, r5, lsl #26
     f04:	05040700 	streq	r0, [r4, #-1792]	; 0xfffff900
     f08:	00000081 	andeq	r0, r0, r1, lsl #1
     f0c:	7c050807 	stcvc	8, cr0, [r5], {7}
     f10:	07000000 	streq	r0, [r0, -r0]
     f14:	001b0801 	andseq	r0, fp, r1, lsl #16
     f18:	02070000 	andeq	r0, r7, #0, 0
     f1c:	00003507 	andeq	r3, r0, r7, lsl #10
     f20:	07040700 	streq	r0, [r4, -r0, lsl #14]
     f24:	0000006a 	andeq	r0, r0, sl, rrx
     f28:	65070807 	strvs	r0, [r7, #-2055]	; 0xfffff7f9
     f2c:	08000000 	stmdaeq	r0, {}	; <UNPREDICTABLE>
     f30:	00000056 	andeq	r0, r0, r6, asr r0
     f34:	000000ab 	andeq	r0, r0, fp, lsr #1
     f38:	00005609 	andeq	r5, r0, r9, lsl #12
     f3c:	8a0a0000 	bhi	280f44 <__bss_end__+0x276b7c>
     f40:	03000000 	movweq	r0, #0
     f44:	00b70e1c 	adcseq	r0, r7, ip, lsl lr
     f48:	040b0000 	streq	r0, [fp], #-0
     f4c:	0000009c 	muleq	r0, ip, r0
     f50:	00005608 	andeq	r5, r0, r8, lsl #12
     f54:	0000cc00 	andeq	ip, r0, r0, lsl #24
     f58:	00cc0900 	sbceq	r0, ip, r0, lsl #18
     f5c:	0b000000 	bleq	f64 <__code_start__-0x709c>
     f60:	0000d904 	andeq	sp, r0, r4, lsl #18
     f64:	08010700 	stmdaeq	r1, {r8, r9, sl}
     f68:	00000024 	andeq	r0, r0, r4, lsr #32
     f6c:	0000d20c 	andeq	sp, r0, ip, lsl #4
     f70:	04450a00 	strbeq	r0, [r5], #-2560	; 0xfffff600
     f74:	21030000 	mrscs	r0, (UNDEF: 3)
     f78:	0000ea0e 	andeq	lr, r0, lr, lsl #20
     f7c:	bd040b00 	vstrlt	d0, [r4, #-0]
     f80:	0d000000 	stceq	0, cr0, [r0, #-0]
     f84:	00000407 	andeq	r0, r0, r7, lsl #8
     f88:	56050601 	strpl	r0, [r5], -r1, lsl #12
     f8c:	c0000000 	andgt	r0, r0, r0
     f90:	58000085 	stmdapl	r0, {r0, r2, r7}
     f94:	01000000 	mrseq	r0, (UNDEF: 0)
     f98:	0001839c 	muleq	r1, ip, r3
     f9c:	6d660e00 	stclvs	14, cr0, [r6, #-0]
     fa0:	06010074 			; <UNDEFINED> instruction: 0x06010074
     fa4:	0000cc18 	andeq	ip, r0, r8, lsl ip
     fa8:	70910200 	addsvc	r0, r1, r0, lsl #4
     fac:	7562100f 	strbvc	r1, [r2, #-15]!
     fb0:	08010066 	stmdaeq	r1, {r1, r2, r5, r6}
     fb4:	00018311 	andeq	r8, r1, r1, lsl r3
     fb8:	c4030500 	strgt	r0, [r3], #-1280	; 0xfffffb00
     fbc:	1100009f 	swpne	r0, pc, [r0]	; <UNPREDICTABLE>
     fc0:	000003ff 	strdeq	r0, [r0], -pc	; <UNPREDICTABLE>
     fc4:	4a0d0901 	bmi	3433d0 <__bss_end__+0x339008>
     fc8:	02000000 	andeq	r0, r0, #0, 0
     fcc:	73125c91 	tstvc	r2, #37120	; 0x9100
     fd0:	0c01007a 	stceq	0, cr0, [r1], {122}	; 0x7a
     fd4:	0000560d 	andeq	r5, r0, sp, lsl #12
     fd8:	0006b100 	andeq	fp, r6, r0, lsl #2
     fdc:	0006ab00 	andeq	sl, r6, r0, lsl #22
     fe0:	85e81300 	strbhi	r1, [r8, #768]!	; 0x300
     fe4:	01940000 	orrseq	r0, r4, r0
     fe8:	01760000 	cmneq	r6, r0
     fec:	01140000 	tsteq	r4, r0
     ff0:	00750250 	rsbseq	r0, r5, r0, asr r2
     ff4:	03510114 	cmpeq	r1, #5
     ff8:	1404000a 	strne	r0, [r4], #-10
     ffc:	91035201 	tstls	r3, r1, lsl #4
    1000:	01140648 	tsteq	r4, r8, asr #12
    1004:	4c910253 	lfmmi	f0, 4, [r1], {83}	; 0x53
    1008:	85fc1500 	ldrbhi	r1, [ip, #1280]!	; 0x500
    100c:	01140000 	tsteq	r4, r0
    1010:	00750250 	rsbseq	r0, r5, r0, asr r2
    1014:	d2160000 	andsle	r0, r6, #0, 0
    1018:	94000000 	strls	r0, [r0], #-0
    101c:	17000001 	strne	r0, [r0, -r1]
    1020:	0000005d 	andeq	r0, r0, sp, asr r0
    1024:	180003ff 	stmdane	r0, {r0, r1, r2, r3, r4, r5, r6, r7, r8, r9}
    1028:	00000404 	andeq	r0, r0, r4, lsl #8
    102c:	00000404 	andeq	r0, r0, r4, lsl #8
    1030:	00050205 	andeq	r0, r5, r5, lsl #4
    1034:	000000f3 	strdeq	r0, [r0], -r3
    1038:	08670004 	stmdaeq	r7!, {r2}^
    103c:	01040000 	mrseq	r0, (UNDEF: 4)
    1040:	00000325 	andeq	r0, r0, r5, lsr #6
    1044:	00044a0c 	andeq	r4, r4, ip, lsl #20
    1048:	0003dd00 	andeq	sp, r3, r0, lsl #26
    104c:	00861800 	addeq	r1, r6, r0, lsl #16
    1050:	00003800 	andeq	r3, r0, r0, lsl #16
    1054:	0008a800 	andeq	sl, r8, r0, lsl #16
    1058:	05040200 	streq	r0, [r4, #-512]	; 0xfffffe00
    105c:	00746e69 	rsbseq	r6, r4, r9, ror #28
    1060:	6f070403 	svcvs	0x00070403
    1064:	03000000 	movweq	r0, #0
    1068:	001d0601 	andseq	r0, sp, r1, lsl #12
    106c:	02030000 	andeq	r0, r3, #0, 0
    1070:	0000cd05 	andeq	ip, r0, r5, lsl #26
    1074:	05040300 	streq	r0, [r4, #-768]	; 0xfffffd00
    1078:	00000081 	andeq	r0, r0, r1, lsl #1
    107c:	7c050803 	stcvc	8, cr0, [r5], {3}
    1080:	03000000 	movweq	r0, #0
    1084:	001b0801 	andseq	r0, fp, r1, lsl #16
    1088:	02030000 	andeq	r0, r3, #0, 0
    108c:	00003507 	andeq	r3, r0, r7, lsl #10
    1090:	07040300 	streq	r0, [r4, -r0, lsl #6]
    1094:	0000006a 	andeq	r0, r0, sl, rrx
    1098:	65070803 	strvs	r0, [r7, #-2051]	; 0xfffff7fd
    109c:	04000000 	streq	r0, [r0], #-0
    10a0:	00000025 	andeq	r0, r0, r5, lsr #32
    10a4:	0000007a 	andeq	r0, r0, sl, ror r0
    10a8:	00002505 	andeq	r2, r0, r5, lsl #10
    10ac:	8a060000 	bhi	1810b4 <__bss_end__+0x176cec>
    10b0:	02000000 	andeq	r0, r0, #0, 0
    10b4:	00860e1c 	addeq	r0, r6, ip, lsl lr
    10b8:	04070000 	streq	r0, [r7], #-0
    10bc:	0000006b 	andeq	r0, r0, fp, rrx
    10c0:	00002504 	andeq	r2, r0, r4, lsl #10
    10c4:	00009b00 	andeq	r9, r0, r0, lsl #22
    10c8:	009b0500 	addseq	r0, fp, r0, lsl #10
    10cc:	07000000 	streq	r0, [r0, -r0]
    10d0:	0000a804 	andeq	sl, r0, r4, lsl #16
    10d4:	08010300 	stmdaeq	r1, {r8, r9}
    10d8:	00000024 	andeq	r0, r0, r4, lsr #32
    10dc:	0000a108 	andeq	sl, r0, r8, lsl #2
    10e0:	04450600 	strbeq	r0, [r5], #-1536	; 0xfffffa00
    10e4:	21020000 	mrscs	r0, (UNDEF: 2)
    10e8:	0000b90e 	andeq	fp, r0, lr, lsl #18
    10ec:	8c040700 	stchi	7, cr0, [r4], {-0}
    10f0:	09000000 	stmdbeq	r0, {}	; <UNPREDICTABLE>
    10f4:	000000ad 	andeq	r0, r0, sp, lsr #1
    10f8:	05070c01 	streq	r0, [r7, #-3073]	; 0xfffff3ff
    10fc:	009f9c03 	addseq	r9, pc, r3, lsl #24
    1100:	043c0a00 	ldrteq	r0, [ip], #-2560	; 0xfffff600
    1104:	04010000 	streq	r0, [r1], #-0
    1108:	00002505 	andeq	r2, r0, r5, lsl #10
    110c:	00861800 	addeq	r1, r6, r0, lsl #16
    1110:	00003800 	andeq	r3, r0, r0, lsl #16
    1114:	0b9c0100 	bleq	fe70151c <__bss_end__+0xfe6f7154>
    1118:	04010070 	streq	r0, [r1], #-112	; 0xffffff90
    111c:	00009b1f 	andeq	r9, r0, pc, lsl fp
    1120:	0006e200 	andeq	lr, r6, r0, lsl #4
    1124:	0006da00 	andeq	sp, r6, r0, lsl #20
    1128:	7f000000 	svcvc	0x00000000
    112c:	0400000c 	streq	r0, [r0], #-12
    1130:	00090500 	andeq	r0, r9, r0, lsl #10
    1134:	25010400 	strcs	r0, [r1, #-1024]	; 0xfffffc00
    1138:	0c000003 	stceq	0, cr0, [r0], {3}
    113c:	00000469 	andeq	r0, r0, r9, ror #8
    1140:	000003dd 	ldrdeq	r0, [r0], -sp
    1144:	00008650 	andeq	r8, r0, r0, asr r6
    1148:	000009b4 			; <UNDEFINED> instruction: 0x000009b4
    114c:	0000094c 	andeq	r0, r0, ip, asr #18
    1150:	65070802 	strvs	r0, [r7, #-2050]	; 0xfffff7fe
    1154:	02000000 	andeq	r0, r0, #0, 0
    1158:	006f0704 	rsbeq	r0, pc, r4, lsl #14
    115c:	04030000 	streq	r0, [r3], #-0
    1160:	746e6905 	strbtvc	r6, [lr], #-2309	; 0xfffff6fb
    1164:	06010200 	streq	r0, [r1], -r0, lsl #4
    1168:	0000001d 	andeq	r0, r0, sp, lsl r0
    116c:	cd050202 	sfmgt	f0, 4, [r5, #-8]
    1170:	02000000 	andeq	r0, r0, #0, 0
    1174:	00810504 	addeq	r0, r1, r4, lsl #10
    1178:	08020000 	stmdaeq	r2, {}	; <UNPREDICTABLE>
    117c:	00007c05 	andeq	r7, r0, r5, lsl #24
    1180:	08010200 	stmdaeq	r1, {r9}
    1184:	0000001b 	andeq	r0, r0, fp, lsl r0
    1188:	35070202 	strcc	r0, [r7, #-514]	; 0xfffffdfe
    118c:	04000000 	streq	r0, [r0], #-0
    1190:	000002dd 	ldrdeq	r0, [r0], -sp
    1194:	70193402 	andsvc	r3, r9, r2, lsl #8
    1198:	02000000 	andeq	r0, r0, #0, 0
    119c:	006a0704 	rsbeq	r0, sl, r4, lsl #14
    11a0:	60040000 	andvs	r0, r4, r0
    11a4:	02000004 	andeq	r0, r0, #4, 0
    11a8:	00251937 	eoreq	r1, r5, r7, lsr r9
    11ac:	33050000 	movwcc	r0, #20480	; 0x5000
    11b0:	92000000 	andls	r0, r0, #0, 0
    11b4:	06000000 	streq	r0, [r0], -r0
    11b8:	00000033 	andeq	r0, r0, r3, lsr r0
    11bc:	008a0700 	addeq	r0, sl, r0, lsl #14
    11c0:	1c030000 	stcne	0, cr0, [r3], {-0}
    11c4:	00009e0e 	andeq	r9, r0, lr, lsl #28
    11c8:	83040800 	movwhi	r0, #18432	; 0x4800
    11cc:	05000000 	streq	r0, [r0, #-0]
    11d0:	00000033 	andeq	r0, r0, r3, lsr r0
    11d4:	000000b3 	strheq	r0, [r0], -r3
    11d8:	0000b306 	andeq	fp, r0, r6, lsl #6
    11dc:	04080000 	streq	r0, [r8], #-0
    11e0:	000000c0 	andeq	r0, r0, r0, asr #1
    11e4:	24080102 	strcs	r0, [r8], #-258	; 0xfffffefe
    11e8:	09000000 	stmdbeq	r0, {}	; <UNPREDICTABLE>
    11ec:	000000b9 	strheq	r0, [r0], -r9
    11f0:	00044507 	andeq	r4, r4, r7, lsl #10
    11f4:	0e210300 	cdpeq	3, 2, cr0, cr1, cr0, {0}
    11f8:	000000d1 	ldrdeq	r0, [r0], -r1
    11fc:	00a40408 	adceq	r0, r4, r8, lsl #8
    1200:	7c070000 	stcvc	0, cr0, [r7], {-0}
    1204:	04000004 	streq	r0, [r0], #-4
    1208:	00b90d0b 	adcseq	r0, r9, fp, lsl #26
    120c:	fc070000 	stc2	0, cr0, [r7], {-0}
    1210:	04000004 	streq	r0, [r0], #-4
    1214:	00b90d0c 	adcseq	r0, r9, ip, lsl #26
    1218:	8b070000 	blhi	1c1220 <__bss_end__+0x1b6e58>
    121c:	04000004 	streq	r0, [r0], #-4
    1220:	00b90d0d 	adcseq	r0, r9, sp, lsl #26
    1224:	b4070000 	strlt	r0, [r7], #-0
    1228:	04000004 	streq	r0, [r0], #-4
    122c:	00b90d0e 	adcseq	r0, r9, lr, lsl #26
    1230:	25070000 	strcs	r0, [r7, #-0]
    1234:	04000005 	streq	r0, [r0], #-5
    1238:	00b90d0f 	adcseq	r0, r9, pc, lsl #26
    123c:	9f070000 	svcls	0x00070000
    1240:	04000004 	streq	r0, [r0], #-4
    1244:	00b90d10 	adcseq	r0, r9, r0, lsl sp
    1248:	34070000 	strcc	r0, [r7], #-0
    124c:	04000005 	streq	r0, [r0], #-5
    1250:	00b90d11 	adcseq	r0, r9, r1, lsl sp
    1254:	c0070000 	andgt	r0, r7, r0
    1258:	04000004 	streq	r0, [r0], #-4
    125c:	00b90d12 	adcseq	r0, r9, r2, lsl sp
    1260:	0e040000 	cdpeq	0, 0, cr0, cr4, cr0, {0}
    1264:	05000004 	streq	r0, [r0, #-4]
    1268:	01431b28 	cmpeq	r3, r8, lsr #22
    126c:	320a0000 	andcc	r0, sl, #0, 0
    1270:	04000004 	streq	r0, [r0], #-4
    1274:	015a0006 	cmpeq	sl, r6
    1278:	1d0b0000 	stcne	0, cr0, [fp, #-0]
    127c:	5a000004 	bpl	1294 <__code_start__-0x6d6c>
    1280:	00000001 	andeq	r0, r0, r1
    1284:	04040c00 	streq	r0, [r4], #-3072	; 0xfffff400
    1288:	00000434 	andeq	r0, r0, r4, lsr r4
    128c:	37186305 	ldrcc	r6, [r8, -r5, lsl #6]
    1290:	0d000001 	stceq	0, cr0, [r0, #-4]
    1294:	00000404 	andeq	r0, r0, r4, lsl #8
    1298:	33058101 	movwcc	r8, #20737	; 0x5101
    129c:	d8000000 	stmdale	r0, {}	; <UNPREDICTABLE>
    12a0:	2c000089 	stccs	0, cr0, [r0], {137}	; 0x89
    12a4:	01000006 	tsteq	r0, r6
    12a8:	00086a9c 	muleq	r8, ip, sl
    12ac:	75620e00 	strbvc	r0, [r2, #-3584]!	; 0xfffff200
    12b0:	81010066 	tsthi	r1, r6, rrx
    12b4:	00086a15 	andeq	r6, r8, r5, lsl sl
    12b8:	00072200 	andeq	r2, r7, r0, lsl #4
    12bc:	00071800 	andeq	r1, r7, r0, lsl #16
    12c0:	006e0e00 	rsbeq	r0, lr, r0, lsl #28
    12c4:	331e8101 	tstcc	lr, #1073741824	; 0x40000000
    12c8:	6f000000 	svcvs	0x00000000
    12cc:	67000007 	strvs	r0, [r0, -r7]
    12d0:	0e000007 	cdpeq	0, 0, cr0, cr0, cr7, {0}
    12d4:	00746d66 	rsbseq	r6, r4, r6, ror #26
    12d8:	b32d8101 			; <UNDEFINED> instruction: 0xb32d8101
    12dc:	c1000000 	mrsgt	r0, (UNDEF: 0)
    12e0:	a9000007 	stmdbge	r0, {r0, r1, r2}
    12e4:	0f000007 	svceq	0x00000007
    12e8:	000003ff 	strdeq	r0, [r0], -pc	; <UNPREDICTABLE>
    12ec:	5c3a8101 	ldfpld	f0, [sl], #-4
    12f0:	83000001 	movwhi	r0, #1
    12f4:	55000008 	strpl	r0, [r0, #-8]
    12f8:	10000008 	andne	r0, r0, r8
    12fc:	82010070 	andhi	r0, r1, #112, 0	; 0x70
    1300:	00086a08 	andeq	r6, r8, r8, lsl #20
    1304:	0009d600 	andeq	sp, r9, r0, lsl #12
    1308:	0009c000 	andeq	ip, r9, r0
    130c:	00651000 	rsbeq	r1, r5, r0
    1310:	6a128201 	bvs	4a1b1c <__bss_end__+0x497754>
    1314:	5f000008 	svcpl	0x00000008
    1318:	5d00000a 	stcpl	0, cr0, [r0, #-40]	; 0xffffffd8
    131c:	1000000a 	andne	r0, r0, sl
    1320:	01003078 	tsteq	r0, r8, ror r0
    1324:	00640e83 	rsbeq	r0, r4, r3, lsl #29
    1328:	0a780000 	beq	1e01330 <__bss_end__+0x1df6f68>
    132c:	0a720000 	beq	1c81334 <__bss_end__+0x1c76f6c>
    1330:	78100000 	ldmdavc	r0, {}	; <UNPREDICTABLE>
    1334:	83010031 	movwhi	r0, #4145	; 0x1031
    1338:	00006411 	andeq	r6, r0, r1, lsl r4
    133c:	000aa700 	andeq	sl, sl, r0, lsl #14
    1340:	000aa100 	andeq	sl, sl, r0, lsl #2
    1344:	04de1100 	ldrbeq	r1, [lr], #256	; 0x100
    1348:	86010000 	strhi	r0, [r1], -r0
    134c:	0000b311 	andeq	fp, r0, r1, lsl r3
    1350:	000ad800 	andeq	sp, sl, r0, lsl #16
    1354:	000ad000 	andeq	sp, sl, r0
    1358:	00581200 	subseq	r1, r8, r0, lsl #4
    135c:	08800000 	stmeq	r0, {}	; <UNPREDICTABLE>
    1360:	03050000 	movweq	r0, #20480	; 0x5000
    1364:	00009d88 	andeq	r9, r0, r8, lsl #27
    1368:	00006813 	andeq	r6, r0, r3, lsl r8
    136c:	00731000 	rsbseq	r1, r3, r0
    1370:	6a0a9101 	bvs	2a577c <__bss_end__+0x29b3b4>
    1374:	1e000008 	cdpne	0, 0, cr0, cr0, cr8, {0}
    1378:	1200000b 	andne	r0, r0, #11, 0
    137c:	1400000b 	strne	r0, [r0], #-11
    1380:	006d756e 	rsbeq	r7, sp, lr, ror #10
    1384:	850d9101 	strhi	r9, [sp, #-257]	; 0xfffffeff
    1388:	03000008 	movweq	r0, #8
    138c:	157dd891 	ldrbne	sp, [sp, #-2193]!	; 0xfffff76f
    1390:	00000541 	andeq	r0, r0, r1, asr #10
    1394:	85179101 	ldrhi	r9, [r7, #-257]	; 0xfffffeff
    1398:	03000008 	movweq	r0, #8
    139c:	117ed891 			; <UNDEFINED> instruction: 0x117ed891
    13a0:	00000499 	muleq	r0, r9, r4
    13a4:	2c0d9201 	sfmcs	f1, 1, [sp], {1}
    13a8:	70000000 	andvc	r0, r0, r0
    13ac:	6800000b 	stmdavs	r0, {r0, r1, r3}
    13b0:	1600000b 	strne	r0, [r0], -fp
    13b4:	00000090 	muleq	r0, r0, r0
    13b8:	000004f1 	strdeq	r0, [r0], -r1
    13bc:	00797410 	rsbseq	r7, r9, r0, lsl r4
    13c0:	b31d9e01 	tstlt	sp, #1, 28
    13c4:	b1000000 	mrslt	r0, (UNDEF: 0)
    13c8:	a500000b 	strge	r0, [r0, #-11]
    13cc:	1400000b 	strne	r0, [r0], #-11
    13d0:	01007878 	tsteq	r0, r8, ror r8
    13d4:	00771aa2 	rsbseq	r1, r7, r2, lsr #21
    13d8:	59060000 	stmdbpl	r6, {}	; <UNPREDICTABLE>
    13dc:	935b0493 	cmpls	fp, #-1828716544	; 0x93000000
    13e0:	8b641704 	blhi	1906ff8 <__bss_end__+0x18fcc30>
    13e4:	0c3a0000 	ldceq	0, cr0, [sl], #-0
    13e8:	02d80000 	sbcseq	r0, r8, #0, 0
    13ec:	01180000 	tsteq	r8, r0
    13f0:	00760250 	rsbseq	r0, r6, r0, asr r2
    13f4:	05510118 	ldrbeq	r0, [r1, #-280]	; 0xfffffee8
    13f8:	009c7c03 	addseq	r7, ip, r3, lsl #24
    13fc:	52011800 	andpl	r1, r1, #0, 16
    1400:	17003301 	strne	r3, [r0, -r1, lsl #6]
    1404:	00008b7c 	andeq	r8, r0, ip, ror fp
    1408:	00000c3a 	andeq	r0, r0, sl, lsr ip
    140c:	000002fa 	strdeq	r0, [r0], -sl
    1410:	02500118 	subseq	r0, r0, #6
    1414:	01180076 	tsteq	r8, r6, ror r0
    1418:	90030551 	andls	r0, r3, r1, asr r5
    141c:	1800009c 	stmdane	r0, {r2, r3, r4, r7}
    1420:	33015201 	movwcc	r5, #4609	; 0x1201
    1424:	8ba01700 	blhi	fe80702c <__bss_end__+0xfe7fcc64>
    1428:	0c460000 	mareq	acc0, r0, r6
    142c:	03170000 	tsteq	r7, #0, 0
    1430:	01180000 	tsteq	r8, r0
    1434:	80030550 	andhi	r0, r3, r0, asr r5
    1438:	1800009c 	stmdane	r0, {r2, r3, r4, r7}
    143c:	7b025101 	blvc	95848 <__bss_end__+0x8b480>
    1440:	ac170000 	ldcge	0, cr0, [r7], {-0}
    1444:	4600008b 	strmi	r0, [r0], -fp, lsl #1
    1448:	3400000c 	strcc	r0, [r0], #-12
    144c:	18000003 	stmdane	r0, {r0, r1}
    1450:	03055001 	movweq	r5, #20481	; 0x5001
    1454:	00009c88 	andeq	r9, r0, r8, lsl #25
    1458:	02510118 	subseq	r0, r1, #6
    145c:	17000079 	smlsdxne	r0, r9, r0, r0
    1460:	00008bbc 			; <UNDEFINED> instruction: 0x00008bbc
    1464:	00000c3a 	andeq	r0, r0, sl, lsr ip
    1468:	00000356 	andeq	r0, r0, r6, asr r3
    146c:	02500118 	subseq	r0, r0, #6
    1470:	01180076 	tsteq	r8, r6, ror r0
    1474:	7c030551 	cfstr32vc	mvfx0, [r3], {81}	; 0x51
    1478:	1800009c 	stmdane	r0, {r2, r3, r4, r7}
    147c:	33015201 	movwcc	r5, #4609	; 0x1201
    1480:	8bec1700 	blhi	ffb07088 <__bss_end__+0xffafccc0>
    1484:	0aa40000 	beq	fe90148c <__bss_end__+0xfe8f70c4>
    1488:	03830000 	orreq	r0, r3, #0, 0
    148c:	01180000 	tsteq	r8, r0
    1490:	18400150 	stmdane	r0, {r4, r6, r8}^
    1494:	91035101 	tstls	r3, r1, lsl #2
    1498:	01187dd0 			; <UNDEFINED> instruction: 0x01187dd0
    149c:	007b0252 	rsbseq	r0, fp, r2, asr r2
    14a0:	02530118 	subseq	r0, r3, #6
    14a4:	02180075 	andseq	r0, r8, #117, 0	; 0x75
    14a8:	7602007d 			; <UNDEFINED> instruction: 0x7602007d
    14ac:	0c170000 	ldceq	0, cr0, [r7], {-0}
    14b0:	a400008c 	strge	r0, [r0], #-140	; 0xffffff74
    14b4:	aa00000a 	bge	14e4 <__code_start__-0x6b1c>
    14b8:	18000003 	stmdane	r0, {r0, r1}
    14bc:	40015001 	andmi	r5, r1, r1
    14c0:	03510118 	cmpeq	r1, #6
    14c4:	187ed091 	ldmdane	lr!, {r0, r4, r7, ip, lr, pc}^
    14c8:	79025201 	stmdbvc	r2, {r0, r9, ip, lr}
    14cc:	7d021800 	stcvc	8, cr1, [r2, #-0]
    14d0:	00760200 	rsbseq	r0, r6, r0, lsl #4
    14d4:	8c1c1700 	ldchi	7, cr1, [ip], {-0}
    14d8:	0c520000 	mraeq	r0, r2, acc0
    14dc:	03c60000 	biceq	r0, r6, #0, 0
    14e0:	01180000 	tsteq	r8, r0
    14e4:	d0910350 	addsle	r0, r1, r0, asr r3
    14e8:	5101187d 	tstpl	r1, sp, ror r8
    14ec:	7ed29103 	atnvcs	f1, f3
    14f0:	8e601700 	cdphi	7, 6, cr1, cr0, cr0, {0}
    14f4:	0c3a0000 	ldceq	0, cr0, [sl], #-0
    14f8:	03e80000 	mvneq	r0, #0, 0
    14fc:	01180000 	tsteq	r8, r0
    1500:	00760250 	rsbseq	r0, r6, r0, asr r2
    1504:	05510118 	ldrbeq	r0, [r1, #-280]	; 0xfffffee8
    1508:	009c9003 	addseq	r9, ip, r3
    150c:	52011800 	andpl	r1, r1, #0, 16
    1510:	17003301 	strne	r3, [r0, -r1, lsl #6]
    1514:	00008e84 	andeq	r8, r0, r4, lsl #29
    1518:	00000aa4 	andeq	r0, r0, r4, lsr #21
    151c:	00000415 	andeq	r0, r0, r5, lsl r4
    1520:	01500118 	cmpeq	r0, r8, lsl r1
    1524:	5101183a 	tstpl	r1, sl, lsr r8
    1528:	7dd09103 	ldfvcp	f1, [r0, #12]
    152c:	02520118 	subseq	r0, r2, #6
    1530:	0118007b 	tsteq	r8, fp, ror r0
    1534:	00750253 	rsbseq	r0, r5, r3, asr r2
    1538:	007d0218 	rsbseq	r0, sp, r8, lsl r2
    153c:	00007602 	andeq	r7, r0, r2, lsl #12
    1540:	008ea417 	addeq	sl, lr, r7, lsl r4
    1544:	000aa400 	andeq	sl, sl, r0, lsl #8
    1548:	00043c00 	andeq	r3, r4, r0, lsl #24
    154c:	50011800 	andpl	r1, r1, r0, lsl #16
    1550:	01183a01 	tsteq	r8, r1, lsl #20
    1554:	d0910351 	addsle	r0, r1, r1, asr r3
    1558:	5201187e 	andpl	r1, r1, #8257536	; 0x7e0000
    155c:	18007902 	stmdane	r0, {r1, r8, fp, ip, sp, lr}
    1560:	02007d02 	andeq	r7, r0, #128	; 0x80
    1564:	17000076 	smlsdxne	r0, r6, r0, r0
    1568:	00008eb0 			; <UNDEFINED> instruction: 0x00008eb0
    156c:	00000c5e 	andeq	r0, r0, lr, asr ip
    1570:	0000045a 	andeq	r0, r0, sl, asr r4
    1574:	03500118 	cmpeq	r0, #6
    1578:	187dd091 	ldmdane	sp!, {r0, r4, r7, ip, lr, pc}^
    157c:	03055101 	movweq	r5, #20737	; 0x5101
    1580:	00009c40 	andeq	r9, r0, r0, asr #24
    1584:	8ec41700 	cdphi	7, 12, cr1, cr4, cr0, {0}
    1588:	0c6a0000 	stcleq	0, cr0, [sl], #-0
    158c:	04760000 	ldrbteq	r0, [r6], #-0
    1590:	01180000 	tsteq	r8, r0
    1594:	d0910350 	addsle	r0, r1, r0, asr r3
    1598:	5101187d 	tstpl	r1, sp, ror r8
    159c:	7ed09103 	atnvcs	f1, f3
    15a0:	8ed01900 	vfnmshi.f16	s3, s0, s0	; <UNPREDICTABLE>
    15a4:	0c520000 	mraeq	r0, r2, acc0
    15a8:	94170000 	ldrls	r0, [r7], #-0
    15ac:	4600008f 	strmi	r0, [r0], -pc, lsl #1
    15b0:	a800000c 	stmdage	r0, {r2, r3}
    15b4:	18000004 	stmdane	r0, {r2}
    15b8:	03055001 	movweq	r5, #20481	; 0x5001
    15bc:	00009b40 	andeq	r9, r0, r0, asr #22
    15c0:	05510118 	ldrbeq	r0, [r1, #-280]	; 0xfffffee8
    15c4:	009c2c03 	addseq	r2, ip, r3, lsl #24
    15c8:	52011800 	andpl	r1, r1, #0, 16
    15cc:	9d880305 	stcls	3, cr0, [r8, #20]
    15d0:	19000000 	stmdbne	r0, {}	; <UNPREDICTABLE>
    15d4:	00008f98 	muleq	r0, r8, pc	; <UNPREDICTABLE>
    15d8:	00000c76 	andeq	r0, r0, r6, ror ip
    15dc:	008fb017 	addeq	fp, pc, r7, lsl r0	; <UNPREDICTABLE>
    15e0:	000c4600 	andeq	r4, ip, r0, lsl #12
    15e4:	0004e700 	andeq	lr, r4, r0, lsl #14
    15e8:	50011800 	andpl	r1, r1, r0, lsl #16
    15ec:	9cd00305 	ldclls	3, cr0, [r0], {5}
    15f0:	01180000 	tsteq	r8, r0
    15f4:	2c030551 	cfstr32cs	mvfx0, [r3], {81}	; 0x51
    15f8:	1800009c 	stmdane	r0, {r2, r3, r4, r7}
    15fc:	03055201 	movweq	r5, #20993	; 0x5201
    1600:	00009d88 	andeq	r9, r0, r8, lsl #27
    1604:	02530118 	subseq	r0, r3, #6
    1608:	0218b608 	andseq	fp, r8, #8, 12	; 0x800000
    160c:	7602007d 			; <UNDEFINED> instruction: 0x7602007d
    1610:	b4190000 	ldrlt	r0, [r9], #-0
    1614:	7600008f 	strvc	r0, [r0], -pc, lsl #1
    1618:	0000000c 	andeq	r0, r0, ip
    161c:	0009e31a 	andeq	lr, r9, sl, lsl r3
    1620:	008a6400 	addeq	r6, sl, r0, lsl #8
    1624:	b8000400 	stmdalt	r0, {sl}
    1628:	01000000 	mrseq	r0, (UNDEF: 0)
    162c:	05150a94 	ldreq	r0, [r5, #-2708]	; 0xfffff56c
    1630:	f41b0000 			; <UNDEFINED> instruction: 0xf41b0000
    1634:	0d000009 	stceq	0, cr0, [r0, #-36]	; 0xffffffdc
    1638:	0900000c 	stmdbeq	r0, {r2, r3}
    163c:	0000000c 	andeq	r0, r0, ip
    1640:	0008951a 	andeq	r9, r8, sl, lsl r5
    1644:	008c4c00 	addeq	r4, ip, r0, lsl #24
    1648:	d8000100 	stmdale	r0, {r8}
    164c:	01000000 	mrseq	r0, (UNDEF: 0)
    1650:	064b09dc 			; <UNDEFINED> instruction: 0x064b09dc
    1654:	be1b0000 	cdplt	0, 1, cr0, cr11, cr0, {0}
    1658:	3b000008 	blcc	1680 <__code_start__-0x6980>
    165c:	3500000c 	strcc	r0, [r0, #-12]
    1660:	1b00000c 	blne	1698 <__code_start__-0x6968>
    1664:	000008e0 	andeq	r0, r0, r0, ror #17
    1668:	00000c70 	andeq	r0, r0, r0, ror ip
    166c:	00000c6a 	andeq	r0, r0, sl, ror #24
    1670:	0008d41b 	andeq	sp, r8, fp, lsl r4
    1674:	000ca200 	andeq	sl, ip, r0, lsl #4
    1678:	000c9c00 	andeq	r9, ip, r0, lsl #24
    167c:	08c81c00 	stmiaeq	r8, {sl, fp, ip}^
    1680:	b21b0000 	andslt	r0, fp, #0, 0
    1684:	d3000008 	movwle	r0, #8
    1688:	cb00000c 	blgt	16c0 <__code_start__-0x6940>
    168c:	1b00000c 	blne	16c4 <__code_start__-0x693c>
    1690:	000008a6 	andeq	r0, r0, r6, lsr #17
    1694:	00000d16 	andeq	r0, r0, r6, lsl sp
    1698:	00000d10 	andeq	r0, r0, r0, lsl sp
    169c:	0000d813 	andeq	sp, r0, r3, lsl r8
    16a0:	08ec1d00 	stmiaeq	ip!, {r8, sl, fp, ip}^
    16a4:	91030000 	mrsls	r0, (UNDEF: 3)
    16a8:	f81e7ed8 			; <UNDEFINED> instruction: 0xf81e7ed8
    16ac:	50000008 	andpl	r0, r0, r8
    16b0:	4200000d 	andmi	r0, r0, #13, 0
    16b4:	1f00000d 	svcne	0x0000000d
    16b8:	00000902 	andeq	r0, r0, r2, lsl #18
    16bc:	0009a31a 	andeq	sl, r9, sl, lsl r3
    16c0:	008c5800 	addeq	r5, ip, r0, lsl #16
    16c4:	08000400 	stmdaeq	r0, {sl}
    16c8:	01000001 	tsteq	r0, r1
    16cc:	05e2097c 	strbeq	r0, [r2, #2428]!	; 0x97c
    16d0:	ca1b0000 	bgt	6c16d8 <__bss_end__+0x6b7310>
    16d4:	ba000009 	blt	1700 <__code_start__-0x6900>
    16d8:	b400000d 	strlt	r0, [r0], #-13
    16dc:	1b00000d 	blne	1718 <__code_start__-0x68e8>
    16e0:	000009be 			; <UNDEFINED> instruction: 0x000009be
    16e4:	00000def 	andeq	r0, r0, pc, ror #27
    16e8:	00000de3 	andeq	r0, r0, r3, ror #27
    16ec:	0009b41b 	andeq	fp, r9, fp, lsl r4
    16f0:	000e5500 	andeq	r5, lr, r0, lsl #10
    16f4:	000e4500 	andeq	r4, lr, r0, lsl #10
    16f8:	01081300 	mrseq	r1, (UNDEF: 56)
    16fc:	d61e0000 	ldrle	r0, [lr], -r0
    1700:	d2000009 	andle	r0, r0, #9, 0
    1704:	c400000e 	strgt	r0, [r0], #-14
    1708:	0000000e 	andeq	r0, r0, lr
    170c:	094f2000 	stmdbeq	pc, {sp}^	; <UNPREDICTABLE>
    1710:	8d200000 	stchi	0, cr0, [r0, #-0]
    1714:	00020000 	andeq	r0, r2, r0
    1718:	00000138 	andeq	r0, r0, r8, lsr r1
    171c:	1b097c01 	blne	260728 <__bss_end__+0x256360>
    1720:	00000980 	andeq	r0, r0, r0, lsl #19
    1724:	00000f32 	andeq	r0, r0, r2, lsr pc
    1728:	00000f2c 	andeq	r0, r0, ip, lsr #30
    172c:	0009761b 	andeq	r7, r9, fp, lsl r6
    1730:	000f6800 	andeq	r6, pc, r0, lsl #16
    1734:	000f5e00 	andeq	r5, pc, r0, lsl #28
    1738:	096c1b00 	stmdbeq	ip!, {r8, r9, fp, ip}^
    173c:	0fb70000 	svceq	0x00b70000
    1740:	0fb30000 	svceq	0x00b30000
    1744:	601b0000 	andsvs	r0, fp, r0
    1748:	e7000009 	str	r0, [r0, -r9]
    174c:	d900000f 	stmdble	r0, {r0, r1, r2, r3}
    1750:	1300000f 	movwne	r0, #15
    1754:	00000138 	andeq	r0, r0, r8, lsr r1
    1758:	00098c1e 	andeq	r8, r9, lr, lsl ip
    175c:	00104c00 	andseq	r4, r0, r0, lsl #24
    1760:	00104a00 	andseq	r4, r0, r0, lsl #20
    1764:	09981e00 	ldmibeq	r8, {r9, sl, fp, ip}
    1768:	10660000 	rsbne	r0, r6, r0
    176c:	10600000 	rsbne	r0, r0, r0
    1770:	00000000 	andeq	r0, r0, r0
    1774:	951a0000 	ldrls	r0, [sl, #-0]
    1778:	5c000008 	stcpl	0, cr0, [r0], {8}
    177c:	0000008d 	andeq	r0, r0, sp, lsl #1
    1780:	00016800 	andeq	r6, r1, r0, lsl #16
    1784:	09d60100 	ldmibeq	r6, {r8}^
    1788:	00000789 	andeq	r0, r0, r9, lsl #15
    178c:	0008be1b 	andeq	fp, r8, fp, lsl lr
    1790:	00109900 	andseq	r9, r0, r0, lsl #18
    1794:	00109500 	andseq	r9, r0, r0, lsl #10
    1798:	08e01b00 	stmiaeq	r0!, {r8, r9, fp, ip}^
    179c:	10bf0000 	adcsne	r0, pc, r0
    17a0:	10bb0000 	adcsne	r0, fp, r0
    17a4:	d41b0000 	ldrle	r0, [fp], #-0
    17a8:	e3000008 	movw	r0, #8
    17ac:	df000010 	svcle	0x00000010
    17b0:	1c000010 	stcne	0, cr0, [r0], {16}
    17b4:	000008c8 	andeq	r0, r0, r8, asr #17
    17b8:	0008b21b 	andeq	fp, r8, fp, lsl r2
    17bc:	00110700 	andseq	r0, r1, r0, lsl #14
    17c0:	00110100 	andseq	r0, r1, r0, lsl #2
    17c4:	08a61b00 	stmiaeq	r6!, {r8, r9, fp, ip}
    17c8:	113a0000 	teqne	sl, r0
    17cc:	11360000 	teqne	r6, r0
    17d0:	68130000 	ldmdavs	r3, {}	; <UNPREDICTABLE>
    17d4:	1d000001 	stcne	0, cr0, [r0, #-4]
    17d8:	000008ec 	andeq	r0, r0, ip, ror #17
    17dc:	7ed89103 	atnvce	f1, f3
    17e0:	0008f81e 	andeq	pc, r8, lr, lsl r8	; <UNPREDICTABLE>
    17e4:	00116400 	andseq	r6, r1, r0, lsl #8
    17e8:	00115a00 	andseq	r5, r1, r0, lsl #20
    17ec:	09021e00 	stmdbeq	r2, {r9, sl, fp, ip}
    17f0:	11a90000 			; <UNDEFINED> instruction: 0x11a90000
    17f4:	11a50000 			; <UNDEFINED> instruction: 0x11a50000
    17f8:	a31a0000 	tstge	sl, #0, 0
    17fc:	78000009 	stmdavc	r0, {r0, r3}
    1800:	0300008d 	movweq	r0, #141	; 0x8d
    1804:	00018800 	andeq	r8, r1, r0, lsl #16
    1808:	097c0100 	ldmdbeq	ip!, {r8}^
    180c:	00000720 	andeq	r0, r0, r0, lsr #14
    1810:	0009ca1b 	andeq	ip, r9, fp, lsl sl
    1814:	0011cb00 	andseq	ip, r1, r0, lsl #22
    1818:	0011c700 	andseq	ip, r1, r0, lsl #14
    181c:	09be1b00 	ldmibeq	lr!, {r8, r9, fp, ip}
    1820:	11ed0000 	mvnne	r0, r0
    1824:	11e90000 	mvnne	r0, r0
    1828:	b41b0000 	ldrlt	r0, [fp], #-0
    182c:	17000009 	strne	r0, [r0, -r9]
    1830:	0b000012 	bleq	1880 <__code_start__-0x6780>
    1834:	13000012 	movwne	r0, #18
    1838:	00000188 	andeq	r0, r0, r8, lsl #3
    183c:	0009d61e 	andeq	sp, r9, lr, lsl r6
    1840:	00127300 	andseq	r7, r2, r0, lsl #6
    1844:	00126700 	andseq	r6, r2, r0, lsl #14
    1848:	20000000 	andcs	r0, r0, r0
    184c:	0000094f 	andeq	r0, r0, pc, asr #18
    1850:	00008e00 	andeq	r8, r0, r0, lsl #28
    1854:	01b00002 	movseq	r0, r2
    1858:	7c010000 	stcvc	0, cr0, [r1], {-0}
    185c:	09801b09 	stmibeq	r0, {r0, r3, r8, r9, fp, ip}
    1860:	12c30000 	sbcne	r0, r3, #0, 0
    1864:	12bf0000 	adcsne	r0, pc, #0, 0
    1868:	761b0000 	ldrvc	r0, [fp], -r0
    186c:	eb000009 	bl	1898 <__code_start__-0x6768>
    1870:	e1000012 	tst	r0, r2, lsl r0
    1874:	1b000012 	blne	18c4 <__code_start__-0x673c>
    1878:	0000096c 	andeq	r0, r0, ip, ror #18
    187c:	00001337 	andeq	r1, r0, r7, lsr r3
    1880:	00001333 	andeq	r1, r0, r3, lsr r3
    1884:	0009601b 	andeq	r6, r9, fp, lsl r0
    1888:	00136500 	andseq	r6, r3, r0, lsl #10
    188c:	00135900 	andseq	r5, r3, r0, lsl #18
    1890:	01b01300 	lslseq	r1, r0, #6
    1894:	8c1e0000 	ldchi	0, cr0, [lr], {-0}
    1898:	bf000009 	svclt	0x00000009
    189c:	bb000013 	bllt	18f0 <__code_start__-0x6710>
    18a0:	1e000013 	mcrne	0, 0, r0, cr0, cr3, {0}
    18a4:	00000998 	muleq	r0, r8, r9
    18a8:	000013e5 	andeq	r1, r0, r5, ror #7
    18ac:	000013e1 	andeq	r1, r0, r1, ror #7
    18b0:	00000000 	andeq	r0, r0, r0
    18b4:	008b2c17 	addeq	r2, fp, r7, lsl ip
    18b8:	000aa400 	andeq	sl, sl, r0, lsl #8
    18bc:	0007af00 	andeq	sl, r7, r0, lsl #30
    18c0:	50011800 	andpl	r1, r1, r0, lsl #16
    18c4:	01184001 	tsteq	r8, r1
    18c8:	d0910351 	addsle	r0, r1, r1, asr r3
    18cc:	5301187d 	movwpl	r1, #6269	; 0x187d
    18d0:	18007502 	stmdane	r0, {r1, r8, sl, ip, sp, lr}
    18d4:	01007d02 	tsteq	r0, r2, lsl #26
    18d8:	3c170030 	ldccc	0, cr0, [r7], {48}	; 0x30
    18dc:	a400008c 	strge	r0, [r0], #-140	; 0xffffff74
    18e0:	cf00000a 	svcgt	0x0000000a
    18e4:	18000007 	stmdane	r0, {r0, r1, r2}
    18e8:	3a015001 	bcc	558f4 <__bss_end__+0x4b52c>
    18ec:	03510118 	cmpeq	r1, #6
    18f0:	187dd091 	ldmdane	sp!, {r0, r4, r7, ip, lr, pc}^
    18f4:	75025301 	strvc	r5, [r2, #-769]	; 0xfffffcff
    18f8:	20170000 	andscs	r0, r7, r0
    18fc:	4600008f 	strmi	r0, [r0], -pc, lsl #1
    1900:	e600000c 	str	r0, [r0], -ip
    1904:	18000007 	stmdane	r0, {r0, r1, r2}
    1908:	03055001 	movweq	r5, #20481	; 0x5001
    190c:	00009d20 	andeq	r9, r0, r0, lsr #26
    1910:	8f302100 	svchi	0x00302100
    1914:	07f80000 	ldrbeq	r0, [r8, r0]!
    1918:	01180000 	tsteq	r8, r0
    191c:	c8910450 	ldmgt	r1, {r4, r6, sl}
    1920:	1700067d 	smlsdxne	r0, sp, r6, r0
    1924:	00008f44 	andeq	r8, r0, r4, asr #30
    1928:	00000c46 	andeq	r0, r0, r6, asr #24
    192c:	00000827 	andeq	r0, r0, r7, lsr #16
    1930:	05500118 	ldrbeq	r0, [r0, #-280]	; 0xfffffee8
    1934:	009d5003 	addseq	r5, sp, r3
    1938:	51011800 	tstpl	r1, r0, lsl #16
    193c:	9c2c0305 	stcls	3, cr0, [ip], #-20	; 0xffffffec
    1940:	01180000 	tsteq	r8, r0
    1944:	88030552 	stmdahi	r3, {r1, r4, r6, r8, sl}
    1948:	1800009d 	stmdane	r0, {r0, r2, r3, r4, r7}
    194c:	08025301 	stmdaeq	r2, {r0, r8, r9, ip, lr}
    1950:	481900e2 	ldmdami	r9, {r1, r5, r6, r7}
    1954:	7600008f 	strvc	r0, [r0], -pc, lsl #1
    1958:	1700000c 	strne	r0, [r0, -ip]
    195c:	00008f5c 	andeq	r8, r0, ip, asr pc
    1960:	00000c46 	andeq	r0, r0, r6, asr #24
    1964:	0000085f 	andeq	r0, r0, pc, asr r8
    1968:	05500118 	ldrbeq	r0, [r0, #-280]	; 0xfffffee8
    196c:	009cf803 	addseq	pc, ip, r3, lsl #16
    1970:	51011800 	tstpl	r1, r0, lsl #16
    1974:	9c2c0305 	stcls	3, cr0, [ip], #-20	; 0xffffffec
    1978:	01180000 	tsteq	r8, r0
    197c:	88030552 	stmdahi	r3, {r1, r4, r6, r8, sl}
    1980:	1800009d 	stmdane	r0, {r0, r2, r3, r4, r7}
    1984:	08025301 	stmdaeq	r2, {r0, r8, r9, ip, lr}
    1988:	601900be 	ldrhvs	r0, [r9], -lr
    198c:	7600008f 	strvc	r0, [r0], -pc, lsl #1
    1990:	0000000c 	andeq	r0, r0, ip
    1994:	b9040800 	stmdblt	r4, {fp}
    1998:	22000000 	andcs	r0, r0, #0, 0
    199c:	000000c0 	andeq	r0, r0, r0, asr #1
    19a0:	00000880 	andeq	r0, r0, r0, lsl #17
    19a4:	00002c23 	andeq	r2, r0, r3, lsr #24
    19a8:	09000900 	stmdbeq	r0, {r8, fp}
    19ac:	00000870 	andeq	r0, r0, r0, ror r8
    19b0:	0000b922 	andeq	fp, r0, r2, lsr #18
    19b4:	00089500 	andeq	r9, r8, r0, lsl #10
    19b8:	002c2300 	eoreq	r2, ip, r0, lsl #6
    19bc:	007f0000 	rsbseq	r0, pc, r0
    19c0:	00050924 	andeq	r0, r5, r4, lsr #18
    19c4:	01490100 	mrseq	r0, (UNDEF: 89)
    19c8:	0000086a 	andeq	r0, r0, sl, ror #16
    19cc:	00092a01 	andeq	r2, r9, r1, lsl #20
    19d0:	01d12500 	bicseq	r2, r1, r0, lsl #10
    19d4:	49010000 	stmdbmi	r1, {}	; <UNPREDICTABLE>
    19d8:	00002c0f 	andeq	r2, r0, pc, lsl #24
    19dc:	73642600 	cmnvc	r4, #0, 12
    19e0:	49010074 	stmdbmi	r1, {r2, r4, r5, r6}
    19e4:	00086a1b 	andeq	r6, r8, fp, lsl sl
    19e8:	006e2600 	rsbeq	r2, lr, r0, lsl #12
    19ec:	33244901 			; <UNDEFINED> instruction: 0x33244901
    19f0:	26000000 	strcs	r0, [r0], -r0
    19f4:	006c6176 	rsbeq	r6, ip, r6, ror r1
    19f8:	332b4901 			; <UNDEFINED> instruction: 0x332b4901
    19fc:	25000000 	strcs	r0, [r0, #-0]
    1a00:	00000499 	muleq	r0, r9, r4
    1a04:	33344901 	teqcc	r4, #16384	; 0x4000
    1a08:	25000000 	strcs	r0, [r0, #-0]
    1a0c:	0000054e 	andeq	r0, r0, lr, asr #10
    1a10:	333f4901 	teqcc	pc, #16384	; 0x4000
    1a14:	27000000 	strcs	r0, [r0, -r0]
    1a18:	00667562 	rsbeq	r7, r6, r2, ror #10
    1a1c:	2a074e01 	bcs	1d5228 <__bss_end__+0x1cae60>
    1a20:	27000009 	strcs	r0, [r0, -r9]
    1a24:	4e010070 	mcrmi	0, 0, r0, cr1, cr0, {3}
    1a28:	00086a11 	andeq	r6, r8, r1, lsl sl
    1a2c:	00752700 	rsbseq	r2, r5, r0, lsl #14
    1a30:	2c0b4f01 	stccs	15, cr4, [fp], {1}
    1a34:	12000000 	andne	r0, r0, #0, 0
    1a38:	00000058 	andeq	r0, r0, r8, asr r0
    1a3c:	0000094a 	andeq	r0, r0, sl, asr #18
    1a40:	9d700305 	ldclls	3, cr0, [r0, #-20]!	; 0xffffffec
    1a44:	29280000 	stmdbcs	r8!, {}	; <UNPREDICTABLE>
    1a48:	000004f6 	strdeq	r0, [r0], -r6
    1a4c:	2c0d5401 	cfstrscs	mvf5, [sp], {1}
    1a50:	00000000 	andeq	r0, r0, r0
    1a54:	00b92200 	adcseq	r2, r9, r0, lsl #4
    1a58:	093a0000 	ldmdbeq	sl!, {}	; <UNPREDICTABLE>
    1a5c:	2c230000 	stccs	0, cr0, [r3], #-0
    1a60:	3f000000 	svccc	0x00000000
    1a64:	00c02200 	sbceq	r2, r0, r0, lsl #4
    1a68:	094a0000 	stmdbeq	sl, {}^	; <UNPREDICTABLE>
    1a6c:	2c230000 	stccs	0, cr0, [r3], #-0
    1a70:	04000000 	streq	r0, [r0], #-0
    1a74:	093a0900 	ldmdbeq	sl!, {r8, fp}
    1a78:	0e240000 	cdpeq	0, 2, cr0, cr4, cr0, {0}
    1a7c:	01000005 	tsteq	r0, r5
    1a80:	086a0e38 	stmdaeq	sl!, {r3, r4, r5, r9, sl, fp}^
    1a84:	a3010000 	movwge	r0, #4096	; 0x1000
    1a88:	26000009 	strcs	r0, [r0], -r9
    1a8c:	00747364 	rsbseq	r7, r4, r4, ror #6
    1a90:	6a1c3801 	bvs	70fa9c <__bss_end__+0x7056d4>
    1a94:	26000008 	strcs	r0, [r0], -r8
    1a98:	3801006e 	stmdacc	r1, {r1, r2, r3, r5, r6}
    1a9c:	00003325 	andeq	r3, r0, r5, lsr #6
    1aa0:	00702600 	rsbseq	r2, r0, r0, lsl #12
    1aa4:	6a2e3801 	bvs	b8fab0 <__bss_end__+0xb856e8>
    1aa8:	25000008 	strcs	r0, [r0, #-8]
    1aac:	000008e8 	andeq	r0, r0, r8, ror #17
    1ab0:	6a373801 	bvs	dcfabc <__bss_end__+0xdc56f4>
    1ab4:	27000008 	strcs	r0, [r0, -r8]
    1ab8:	006e656c 	rsbeq	r6, lr, ip, ror #10
    1abc:	33063a01 	movwcc	r3, #27137	; 0x6a01
    1ac0:	27000000 	strcs	r0, [r0, -r0]
    1ac4:	3e010073 	mcrcc	0, 0, r0, cr1, cr3, {3}
    1ac8:	00086a08 	andeq	r6, r8, r8, lsl #20
    1acc:	702a0000 	eorvc	r0, sl, r0
    1ad0:	01006461 	tsteq	r0, r1, ror #8
    1ad4:	086a0e2e 	stmdaeq	sl!, {r1, r2, r3, r5, r9, sl, fp}^
    1ad8:	e3010000 	movw	r0, #4096	; 0x1000
    1adc:	26000009 	strcs	r0, [r0], -r9
    1ae0:	2e010070 	mcrcs	0, 0, r0, cr1, cr0, {3}
    1ae4:	00086a18 	andeq	r6, r8, r8, lsl sl
    1ae8:	01d12500 	bicseq	r2, r1, r0, lsl #10
    1aec:	2e010000 	cdpcs	0, 0, cr0, cr1, cr0, {0}
    1af0:	00086a22 	andeq	r6, r8, r2, lsr #20
    1af4:	04992500 	ldreq	r2, [r9], #1280	; 0x500
    1af8:	2e010000 	cdpcs	0, 0, cr0, cr1, cr0, {0}
    1afc:	0000332c 	andeq	r3, r0, ip, lsr #6
    1b00:	656c2700 	strbvs	r2, [ip, #-1792]!	; 0xfffff900
    1b04:	2f01006e 	svccs	0x0001006e
    1b08:	00003306 	andeq	r3, r0, r6, lsl #6
    1b0c:	58240000 	stmdapl	r4!, {}	; <UNPREDICTABLE>
    1b10:	01000004 	tsteq	r0, r4
    1b14:	00330c27 	eorseq	r0, r3, r7, lsr #24
    1b18:	ff010000 			; <UNDEFINED> instruction: 0xff010000
    1b1c:	26000009 	strcs	r0, [r0], -r9
    1b20:	27010063 	strcs	r0, [r1, -r3, rrx]
    1b24:	00003318 	andeq	r3, r0, r8, lsl r3
    1b28:	cf2b0000 	svcgt	0x002b0000
    1b2c:	01000004 	tsteq	r0, r4
    1b30:	8978061f 	ldmdbhi	r8!, {r0, r1, r2, r3, r4, r9, sl}^
    1b34:	00600000 	rsbeq	r0, r0, r0
    1b38:	9c010000 	stcls	0, cr0, [r1], {-0}
    1b3c:	00000a8f 	andeq	r0, r0, pc, lsl #21
    1b40:	0004ac0f 	andeq	sl, r4, pc, lsl #24
    1b44:	1b1f0100 	blne	7c1f4c <__bss_end__+0x7b7b84>
    1b48:	0000009e 	muleq	r0, lr, r0
    1b4c:	0000140a 	andeq	r1, r0, sl, lsl #8
    1b50:	00001406 	andeq	r1, r0, r6, lsl #8
    1b54:	00051d0f 	andeq	r1, r5, pc, lsl #26
    1b58:	301f0100 	andscc	r0, pc, r0, lsl #2
    1b5c:	000000d1 	ldrdeq	r0, [r0], -r1
    1b60:	0000142f 	andeq	r1, r0, pc, lsr #8
    1b64:	0000142b 	andeq	r1, r0, fp, lsr #8
    1b68:	00005812 	andeq	r5, r0, r2, lsl r8
    1b6c:	000a9f00 	andeq	r9, sl, r0, lsl #30
    1b70:	78030500 	stmdavc	r3, {r8, sl}
    1b74:	1700009d 			; <UNDEFINED> instruction: 0x1700009d
    1b78:	000089bc 			; <UNDEFINED> instruction: 0x000089bc
    1b7c:	00000c46 	andeq	r0, r0, r6, asr #24
    1b80:	00000a85 	andeq	r0, r0, r5, lsl #21
    1b84:	05500118 	ldrbeq	r0, [r0, #-280]	; 0xfffffee8
    1b88:	009b4003 	addseq	r4, fp, r3
    1b8c:	51011800 	tstpl	r1, r0, lsl #16
    1b90:	9c2c0305 	stcls	3, cr0, [ip], #-20	; 0xffffffec
    1b94:	01180000 	tsteq	r8, r0
    1b98:	78030552 	stmdavc	r3, {r1, r4, r6, r8, sl}
    1b9c:	1800009d 	stmdane	r0, {r0, r2, r3, r4, r7}
    1ba0:	08025301 	stmdaeq	r2, {r0, r8, r9, ip, lr}
    1ba4:	7d021820 	stcvc	8, cr1, [r2, #-128]	; 0xffffff80
    1ba8:	68030500 	stmdavs	r3, {r8, sl}
    1bac:	0000009c 	muleq	r0, ip, r0
    1bb0:	0089c019 	addeq	ip, r9, r9, lsl r0
    1bb4:	000c7600 	andeq	r7, ip, r0, lsl #12
    1bb8:	c0220000 	eorgt	r0, r2, r0
    1bbc:	9f000000 	svcls	0x00000000
    1bc0:	2300000a 	movwcs	r0, #10
    1bc4:	0000002c 	andeq	r0, r0, ip, lsr #32
    1bc8:	8f09000e 	svchi	0x0009000e
    1bcc:	2c00000a 	stccs	0, cr0, [r0], {10}
    1bd0:	00000895 	muleq	r0, r5, r8
    1bd4:	00008650 	andeq	r8, r0, r0, asr r6
    1bd8:	00000328 	andeq	r0, r0, r8, lsr #6
    1bdc:	0c3a9c01 	ldceq	12, cr9, [sl], #-4
    1be0:	a61b0000 	ldrge	r0, [fp], -r0
    1be4:	68000008 	stmdavs	r0, {r3}
    1be8:	50000014 	andpl	r0, r0, r4, lsl r0
    1bec:	1b000014 	blne	1c44 <__code_start__-0x63bc>
    1bf0:	000008b2 			; <UNDEFINED> instruction: 0x000008b2
    1bf4:	00001512 	andeq	r1, r0, r2, lsl r5
    1bf8:	0000150a 	andeq	r1, r0, sl, lsl #10
    1bfc:	0008c81b 	andeq	ip, r8, fp, lsl r8
    1c00:	00156900 	andseq	r6, r5, r0, lsl #18
    1c04:	00154900 	andseq	r4, r5, r0, lsl #18
    1c08:	08d41b00 	ldmeq	r4, {r8, r9, fp, ip}^
    1c0c:	163f0000 	ldrtne	r0, [pc], -r0
    1c10:	16310000 	ldrtne	r0, [r1], -r0
    1c14:	e02d0000 	eor	r0, sp, r0
    1c18:	02000008 	andeq	r0, r0, #8, 0
    1c1c:	ec1d0091 	ldc	0, cr0, [sp], {145}	; 0x91
    1c20:	03000008 	movweq	r0, #8
    1c24:	1e7fa891 	mrcne	8, 3, sl, cr15, cr1, {4}
    1c28:	000008f8 	strdeq	r0, [r0], -r8
    1c2c:	000016d3 	ldrdeq	r1, [r0], -r3
    1c30:	0000169f 	muleq	r0, pc, r6	; <UNPREDICTABLE>
    1c34:	0009021e 	andeq	r0, r9, lr, lsl r2
    1c38:	00183a00 	andseq	r3, r8, r0, lsl #20
    1c3c:	00181800 	andseq	r1, r8, r0, lsl #16
    1c40:	08be2e00 	ldmeq	lr!, {r9, sl, fp, sp}
    1c44:	1a800000 	bne	fe001c4c <__bss_end__+0xfdff7884>
    1c48:	000009a3 	andeq	r0, r0, r3, lsr #19
    1c4c:	000086f4 	strdeq	r8, [r0], -r4
    1c50:	00000004 	andeq	r0, r0, r4
    1c54:	7c010000 	stcvc	0, cr0, [r1], {-0}
    1c58:	000b6d09 	andeq	r6, fp, r9, lsl #26
    1c5c:	09ca1b00 	stmibeq	sl, {r8, r9, fp, ip}^
    1c60:	19220000 	stmdbne	r2!, {}	; <UNPREDICTABLE>
    1c64:	19180000 	ldmdbne	r8, {}	; <UNPREDICTABLE>
    1c68:	be1b0000 	cdplt	0, 1, cr0, cr11, cr0, {0}
    1c6c:	76000009 	strvc	r0, [r0], -r9
    1c70:	66000019 			; <UNDEFINED> instruction: 0x66000019
    1c74:	1b000019 	blne	1ce0 <__code_start__-0x6320>
    1c78:	000009b4 			; <UNDEFINED> instruction: 0x000009b4
    1c7c:	000019f6 	strdeq	r1, [r0], -r6
    1c80:	000019e2 	andeq	r1, r0, r2, ror #19
    1c84:	00000013 	andeq	r0, r0, r3, lsl r0
    1c88:	09d61e00 	ldmibeq	r6, {r9, sl, fp, ip}^
    1c8c:	1a880000 	bne	fe201c94 <__bss_end__+0xfe1f78cc>
    1c90:	1a780000 	bne	1e01c98 <__bss_end__+0x1df78d0>
    1c94:	00000000 	andeq	r0, r0, r0
    1c98:	00094f1a 	andeq	r4, r9, sl, lsl pc
    1c9c:	0087ac00 	addeq	sl, r7, r0, lsl #24
    1ca0:	48000200 	stmdami	r0, {r9}
    1ca4:	01000000 	mrseq	r0, (UNDEF: 0)
    1ca8:	0bd8097c 	bleq	ff6042a0 <__bss_end__+0xff5f9ed8>
    1cac:	801b0000 	andshi	r0, fp, r0
    1cb0:	f4000009 	vst4.8	{d0-d3}, [r0], r9
    1cb4:	ec00001a 	stc	0, cr0, [r0], {26}
    1cb8:	1b00001a 	blne	1d28 <__code_start__-0x62d8>
    1cbc:	00000976 	andeq	r0, r0, r6, ror r9
    1cc0:	00001b33 	andeq	r1, r0, r3, lsr fp
    1cc4:	00001b2b 	andeq	r1, r0, fp, lsr #22
    1cc8:	00096c1b 	andeq	r6, r9, fp, lsl ip
    1ccc:	001b7200 	andseq	r7, fp, r0, lsl #4
    1cd0:	001b6e00 	andseq	r6, fp, r0, lsl #28
    1cd4:	09601b00 	stmdbeq	r0!, {r8, r9, fp, ip}^
    1cd8:	1ba20000 	blne	fe881ce0 <__bss_end__+0xfe877918>
    1cdc:	1b940000 	blne	fe501ce4 <__bss_end__+0xfe4f791c>
    1ce0:	48130000 	ldmdami	r3, {}	; <UNPREDICTABLE>
    1ce4:	1e000000 	cdpne	0, 0, cr0, cr0, cr0, {0}
    1ce8:	0000098c 	andeq	r0, r0, ip, lsl #19
    1cec:	00001c07 	andeq	r1, r0, r7, lsl #24
    1cf0:	00001c01 	andeq	r1, r0, r1, lsl #24
    1cf4:	0009981e 	andeq	r9, r9, lr, lsl r8
    1cf8:	001c3900 	andseq	r3, ip, r0, lsl #18
    1cfc:	001c3500 	andseq	r3, ip, r0, lsl #10
    1d00:	2f000000 	svccs	0x00000000
    1d04:	0000091b 	andeq	r0, r0, fp, lsl r9
    1d08:	00008864 	andeq	r8, r0, r4, ror #16
    1d0c:	00000060 	andeq	r0, r0, r0, rrx
    1d10:	00000bf7 	strdeq	r0, [r0], -r7
    1d14:	00091c1e 	andeq	r1, r9, lr, lsl ip
    1d18:	001c5b00 	andseq	r5, ip, r0, lsl #22
    1d1c:	001c5700 	andseq	r5, ip, r0, lsl #14
    1d20:	38170000 	ldmdacc	r7, {}	; <UNPREDICTABLE>
    1d24:	46000089 	strmi	r0, [r0], -r9, lsl #1
    1d28:	3000000c 	andcc	r0, r0, ip
    1d2c:	1800000c 	stmdane	r0, {r2, r3}
    1d30:	03055001 	movweq	r5, #20481	; 0x5001
    1d34:	00009b40 	andeq	r9, r0, r0, asr #22
    1d38:	05510118 	ldrbeq	r0, [r1, #-280]	; 0xfffffee8
    1d3c:	009c2c03 	addseq	r2, ip, r3, lsl #24
    1d40:	52011800 	andpl	r1, r1, #0, 16
    1d44:	9d700305 	ldclls	3, cr0, [r0, #-20]!	; 0xffffffec
    1d48:	01180000 	tsteq	r8, r0
    1d4c:	79080253 	stmdbvc	r8, {r0, r1, r4, r6, r9}
    1d50:	007d0218 	rsbseq	r0, sp, r8, lsl r2
    1d54:	9c400305 	mcrrls	3, 0, r0, r0, cr5
    1d58:	19000000 	stmdbne	r0, {}	; <UNPREDICTABLE>
    1d5c:	0000893c 	andeq	r8, r0, ip, lsr r9
    1d60:	00000c76 	andeq	r0, r0, r6, ror ip
    1d64:	05463000 	strbeq	r3, [r6, #-0]
    1d68:	05460000 	strbeq	r0, [r6, #-0]
    1d6c:	eb030000 	bl	c1d74 <__bss_end__+0xb79ac>
    1d70:	04073005 	streq	r3, [r7], #-5
    1d74:	04070000 	streq	r0, [r7], #-0
    1d78:	28030000 	stmdacs	r3, {}	; <UNPREDICTABLE>
    1d7c:	04e83006 	strbteq	r3, [r8], #6
    1d80:	04e80000 	strbteq	r0, [r8], #0
    1d84:	ee030000 	cdp	0, 0, cr0, cr3, cr0, {0}
    1d88:	05163007 	ldreq	r3, [r6, #-7]
    1d8c:	05160000 	ldreq	r0, [r6, #-0]
    1d90:	ea030000 	b	c1d98 <__bss_end__+0xb79d0>
    1d94:	04ef3005 	strbteq	r3, [pc], #5	; 1d9c <__code_start__-0x6264>
    1d98:	04ef0000 	strbteq	r0, [pc], #0	; 1da0 <__code_start__-0x6260>
    1d9c:	ed030000 	stc	0, cr0, [r3, #-0]
    1da0:	02703007 	rsbseq	r3, r0, #7, 0
    1da4:	02700000 	rsbseq	r0, r0, #0, 0
    1da8:	6e030000 	cdpvs	0, 0, cr0, cr3, cr0, {0}
    1dac:	012f0006 			; <UNDEFINED> instruction: 0x012f0006
    1db0:	00040000 	andeq	r0, r4, r0
    1db4:	00000ba8 	andeq	r0, r0, r8, lsr #23
    1db8:	03250104 			; <UNDEFINED> instruction: 0x03250104
    1dbc:	6b0c0000 	blvs	301dc4 <__bss_end__+0x2f79fc>
    1dc0:	dd000005 	stcle	0, cr0, [r0, #-20]	; 0xffffffec
    1dc4:	04000003 	streq	r0, [r0], #-3
    1dc8:	2c000090 	stccs	0, cr0, [r0], {144}	; 0x90
    1dcc:	4a000000 	bmi	1dd4 <__code_start__-0x622c>
    1dd0:	02000012 	andeq	r0, r0, #18, 0
    1dd4:	6e690504 	cdpvs	5, 6, cr0, cr9, cr4, {0}
    1dd8:	04030074 	streq	r0, [r3], #-116	; 0xffffff8c
    1ddc:	00006f07 	andeq	r6, r0, r7, lsl #30
    1de0:	06010300 	streq	r0, [r1], -r0, lsl #6
    1de4:	0000001d 	andeq	r0, r0, sp, lsl r0
    1de8:	cd050203 	sfmgt	f0, 4, [r5, #-12]
    1dec:	03000000 	movweq	r0, #0
    1df0:	00810504 	addeq	r0, r1, r4, lsl #10
    1df4:	08030000 	stmdaeq	r3, {}	; <UNPREDICTABLE>
    1df8:	00007c05 	andeq	r7, r0, r5, lsl #24
    1dfc:	08010300 	stmdaeq	r1, {r8, r9}
    1e00:	0000001b 	andeq	r0, r0, fp, lsl r0
    1e04:	35070203 	strcc	r0, [r7, #-515]	; 0xfffffdfd
    1e08:	03000000 	movweq	r0, #0
    1e0c:	006a0704 	rsbeq	r0, sl, r4, lsl #14
    1e10:	08030000 	stmdaeq	r3, {}	; <UNPREDICTABLE>
    1e14:	00006507 	andeq	r6, r0, r7, lsl #10
    1e18:	00250400 	eoreq	r0, r5, r0, lsl #8
    1e1c:	007a0000 	rsbseq	r0, sl, r0
    1e20:	25050000 	strcs	r0, [r5, #-0]
    1e24:	00000000 	andeq	r0, r0, r0
    1e28:	00008a06 	andeq	r8, r0, r6, lsl #20
    1e2c:	0e1c0200 	cdpeq	2, 1, cr0, cr12, cr0, {0}
    1e30:	00000086 	andeq	r0, r0, r6, lsl #1
    1e34:	006b0407 	rsbeq	r0, fp, r7, lsl #8
    1e38:	25040000 	strcs	r0, [r4, #-0]
    1e3c:	9b000000 	blls	1e44 <__code_start__-0x61bc>
    1e40:	05000000 	streq	r0, [r0, #-0]
    1e44:	0000009b 	muleq	r0, fp, r0
    1e48:	a8040700 	stmdage	r4, {r8, r9, sl}
    1e4c:	03000000 	movweq	r0, #0
    1e50:	00240801 	eoreq	r0, r4, r1, lsl #16
    1e54:	a1080000 	mrsge	r0, (UNDEF: 8)
    1e58:	06000000 	streq	r0, [r0], -r0
    1e5c:	00000445 	andeq	r0, r0, r5, asr #8
    1e60:	b90e2102 	stmdblt	lr, {r1, r8, sp}
    1e64:	07000000 	streq	r0, [r0, -r0]
    1e68:	00008c04 	andeq	r8, r0, r4, lsl #24
    1e6c:	02700900 	rsbseq	r0, r0, #0, 18
    1e70:	04010000 	streq	r0, [r1], #-0
    1e74:	00900406 	addseq	r0, r0, r6, lsl #8
    1e78:	00002c00 	andeq	r2, r0, r0, lsl #24
    1e7c:	0e9c0100 	fmleqe	f0, f4, f0
    1e80:	0a000001 	beq	1e8c <__code_start__-0x6174>
    1e84:	00009018 	andeq	r9, r0, r8, lsl r0
    1e88:	000000e8 	andeq	r0, r0, r8, ror #1
    1e8c:	0550010b 	ldrbeq	r0, [r0, #-267]	; 0xfffffef5
    1e90:	009d9403 	addseq	r9, sp, r3, lsl #8
    1e94:	1c0c0000 	stcne	0, cr0, [ip], {-0}
    1e98:	0e000090 	mcreq	0, 0, r0, cr0, cr0, {4}
    1e9c:	0d000001 	stceq	0, cr0, [r0, #-4]
    1ea0:	00009024 	andeq	r9, r0, r4, lsr #32
    1ea4:	0000011a 	andeq	r0, r0, sl, lsl r1
    1ea8:	00000104 	andeq	r0, r0, r4, lsl #2
    1eac:	0150010b 	cmpeq	r0, fp, lsl #2
    1eb0:	280c003a 	stmdacs	ip, {r1, r3, r4, r5}
    1eb4:	26000090 			; <UNDEFINED> instruction: 0x26000090
    1eb8:	00000001 	andeq	r0, r0, r1
    1ebc:	0005860e 	andeq	r8, r5, lr, lsl #12
    1ec0:	00058600 	andeq	r8, r5, r0, lsl #12
    1ec4:	064d0200 	strbeq	r0, [sp], -r0, lsl #4
    1ec8:	0005620e 	andeq	r6, r5, lr, lsl #4
    1ecc:	00056200 	andeq	r6, r5, r0, lsl #4
    1ed0:	06580200 	ldrbeq	r0, [r8], -r0, lsl #4
    1ed4:	0005570e 	andeq	r5, r5, lr, lsl #14
    1ed8:	00055700 	andeq	r5, r5, r0, lsl #14
    1edc:	066b0200 	strbteq	r0, [fp], -r0, lsl #4
    1ee0:	00019000 	andeq	r9, r1, r0
    1ee4:	68000400 	stmdavs	r0, {sl}
    1ee8:	0400000c 	streq	r0, [r0], #-12
    1eec:	00032501 	andeq	r2, r3, r1, lsl #10
    1ef0:	05bc0c00 	ldreq	r0, [ip, #3072]!	; 0xc00
    1ef4:	03dd0000 	bicseq	r0, sp, #0, 0
    1ef8:	90300000 	eorsls	r0, r0, r0
    1efc:	00f80000 	rscseq	r0, r8, r0
    1f00:	12d50000 	sbcsne	r0, r5, #0, 0
    1f04:	04020000 	streq	r0, [r2], #-0
    1f08:	746e6905 	strbtvc	r6, [lr], #-2309	; 0xfffff6fb
    1f0c:	07040300 	streq	r0, [r4, -r0, lsl #6]
    1f10:	0000006f 	andeq	r0, r0, pc, rrx
    1f14:	1d060103 	stfnes	f0, [r6, #-12]
    1f18:	03000000 	movweq	r0, #0
    1f1c:	00cd0502 	sbceq	r0, sp, r2, lsl #10
    1f20:	04030000 	streq	r0, [r3], #-0
    1f24:	00008105 	andeq	r8, r0, r5, lsl #2
    1f28:	05080300 	streq	r0, [r8, #-768]	; 0xfffffd00
    1f2c:	0000007c 	andeq	r0, r0, ip, ror r0
    1f30:	1b080103 	blne	202344 <__bss_end__+0x1f7f7c>
    1f34:	03000000 	movweq	r0, #0
    1f38:	00350702 	eorseq	r0, r5, r2, lsl #14
    1f3c:	04030000 	streq	r0, [r3], #-0
    1f40:	00006a07 	andeq	r6, r0, r7, lsl #20
    1f44:	07080300 	streq	r0, [r8, -r0, lsl #6]
    1f48:	00000065 	andeq	r0, r0, r5, rrx
    1f4c:	00002504 	andeq	r2, r0, r4, lsl #10
    1f50:	00007a00 	andeq	r7, r0, r0, lsl #20
    1f54:	00250500 	eoreq	r0, r5, r0, lsl #10
    1f58:	06000000 	streq	r0, [r0], -r0
    1f5c:	0000008a 	andeq	r0, r0, sl, lsl #1
    1f60:	860e1c02 	strhi	r1, [lr], -r2, lsl #24
    1f64:	07000000 	streq	r0, [r0, -r0]
    1f68:	00006b04 	andeq	r6, r0, r4, lsl #22
    1f6c:	00250400 	eoreq	r0, r5, r0, lsl #8
    1f70:	009b0000 	addseq	r0, fp, r0
    1f74:	9b050000 	blls	141f7c <__bss_end__+0x137bb4>
    1f78:	00000000 	andeq	r0, r0, r0
    1f7c:	00a80407 	adceq	r0, r8, r7, lsl #8
    1f80:	01030000 	mrseq	r0, (UNDEF: 3)
    1f84:	00002408 	andeq	r2, r0, r8, lsl #8
    1f88:	00a10800 	adceq	r0, r1, r0, lsl #16
    1f8c:	45060000 	strmi	r0, [r6, #-0]
    1f90:	02000004 	andeq	r0, r0, #4, 0
    1f94:	00b90e21 	adcseq	r0, r9, r1, lsr #28
    1f98:	04070000 	streq	r0, [r7], #-0
    1f9c:	0000008c 	andeq	r0, r0, ip, lsl #1
    1fa0:	00059409 	andeq	r9, r5, r9, lsl #8
    1fa4:	06040100 	streq	r0, [r4], -r0, lsl #2
    1fa8:	00009030 	andeq	r9, r0, r0, lsr r0
    1fac:	000000f8 	strdeq	r0, [r0], -r8
    1fb0:	015b9c01 	cmpeq	fp, r1, lsl #24
    1fb4:	8b060000 	blhi	181fbc <__bss_end__+0x177bf4>
    1fb8:	01000004 	tsteq	r0, r4
    1fbc:	00251005 	eoreq	r1, r5, r5
    1fc0:	b4060000 	strlt	r0, [r6], #-0
    1fc4:	01000004 	tsteq	r0, r4
    1fc8:	00251f05 	eoreq	r1, r5, r5, lsl #30
    1fcc:	0e0a0000 	cdpeq	0, 0, cr0, cr10, cr0, {0}
    1fd0:	01000000 	mrseq	r0, (UNDEF: 0)
    1fd4:	620b0706 	andvs	r0, fp, #1572864	; 0x180000
    1fd8:	01007373 	tsteq	r0, r3, ror r3
    1fdc:	015b0a0a 	cmpeq	fp, sl, lsl #20
    1fe0:	1c930000 	ldcne	0, cr0, [r3], {0}
    1fe4:	1c7b0000 	ldclne	0, cr0, [fp], #-0
    1fe8:	9c0c0000 	stcls	0, cr0, [ip], {-0}
    1fec:	01000005 	tsteq	r0, r5
    1ff0:	015b0a0b 	cmpeq	fp, fp, lsl #20
    1ff4:	080d0000 	stmdaeq	sp, {}	; <UNPREDICTABLE>
    1ff8:	08000091 	stmdaeq	r0, {r0, r4, r7}
    1ffc:	36000000 	strcc	r0, [r0], -r0
    2000:	0b000001 	bleq	200c <__code_start__-0x5ff4>
    2004:	01006e69 	tsteq	r0, r9, ror #28
    2008:	002c0514 	eoreq	r0, ip, r4, lsl r5
    200c:	1d2d0000 	stcne	0, cr0, [sp, #-0]
    2010:	1d2b0000 	stcne	0, cr0, [fp, #-0]
    2014:	0e000000 	cdpeq	0, 0, cr0, cr0, cr0, {0}
    2018:	00009038 	andeq	r9, r0, r8, lsr r0
    201c:	00000161 	andeq	r0, r0, r1, ror #2
    2020:	0091080e 	addseq	r0, r1, lr, lsl #16
    2024:	00016e00 	andeq	r6, r1, r0, lsl #28
    2028:	91140e00 	tstls	r4, r0, lsl #28
    202c:	017a0000 	cmneq	sl, r0
    2030:	180e0000 	stmdane	lr, {}	; <UNPREDICTABLE>
    2034:	87000091 			; <UNDEFINED> instruction: 0x87000091
    2038:	00000001 	andeq	r0, r0, r1
    203c:	00250407 	eoreq	r0, r5, r7, lsl #8
    2040:	ae0f0000 	cdpge	0, 0, cr0, cr15, cr0, {0}
    2044:	ae000005 	cdpge	0, 0, cr0, cr0, cr5, {0}
    2048:	02000005 	andeq	r0, r0, #5, 0
    204c:	10060131 	andne	r0, r6, r1, lsr r1
    2050:	000005a4 	andeq	r0, r0, r4, lsr #11
    2054:	000005a4 	andeq	r0, r0, r4, lsr #11
    2058:	0f063b02 	svceq	0x00063b02
    205c:	0000000e 	andeq	r0, r0, lr
    2060:	0000000e 	andeq	r0, r0, lr
    2064:	06010502 	streq	r0, [r1], -r2, lsl #10
    2068:	00027010 	andeq	r7, r2, r0, lsl r0
    206c:	00027000 	andeq	r7, r2, r0
    2070:	066e0200 	strbteq	r0, [lr], -r0, lsl #4
    2074:	0000ce00 	andeq	ip, r0, r0, lsl #28
    2078:	53000400 	movwpl	r0, #1024	; 0x400
    207c:	0400000d 	streq	r0, [r0], #-13
    2080:	00032501 	andeq	r2, r3, r1, lsl #10
    2084:	05d10c00 	ldrbeq	r0, [r1, #3072]	; 0xc00
    2088:	03dd0000 	bicseq	r0, sp, #0, 0
    208c:	91280000 			; <UNDEFINED> instruction: 0x91280000
    2090:	00040000 	andeq	r0, r4, r0
    2094:	13eb0000 	mvnne	r0, #0, 0
    2098:	04020000 	streq	r0, [r2], #-0
    209c:	746e6905 	strbtvc	r6, [lr], #-2309	; 0xfffff6fb
    20a0:	07040300 	streq	r0, [r4, -r0, lsl #6]
    20a4:	0000006f 	andeq	r0, r0, pc, rrx
    20a8:	1d060103 	stfnes	f0, [r6, #-12]
    20ac:	03000000 	movweq	r0, #0
    20b0:	00cd0502 	sbceq	r0, sp, r2, lsl #10
    20b4:	04030000 	streq	r0, [r3], #-0
    20b8:	00008105 	andeq	r8, r0, r5, lsl #2
    20bc:	05080300 	streq	r0, [r8, #-768]	; 0xfffffd00
    20c0:	0000007c 	andeq	r0, r0, ip, ror r0
    20c4:	1b080103 	blne	2024d8 <__bss_end__+0x1f8110>
    20c8:	03000000 	movweq	r0, #0
    20cc:	00350702 	eorseq	r0, r5, r2, lsl #14
    20d0:	04030000 	streq	r0, [r3], #-0
    20d4:	00006a07 	andeq	r6, r0, r7, lsl #20
    20d8:	07080300 	streq	r0, [r8, -r0, lsl #6]
    20dc:	00000065 	andeq	r0, r0, r5, rrx
    20e0:	00002504 	andeq	r2, r0, r4, lsl #10
    20e4:	00007a00 	andeq	r7, r0, r0, lsl #20
    20e8:	00250500 	eoreq	r0, r5, r0, lsl #10
    20ec:	06000000 	streq	r0, [r0], -r0
    20f0:	0000008a 	andeq	r0, r0, sl, lsl #1
    20f4:	860e1c02 	strhi	r1, [lr], -r2, lsl #24
    20f8:	07000000 	streq	r0, [r0, -r0]
    20fc:	00006b04 	andeq	r6, r0, r4, lsl #22
    2100:	00250400 	eoreq	r0, r5, r0, lsl #8
    2104:	009b0000 	addseq	r0, fp, r0
    2108:	9b050000 	blls	142110 <__bss_end__+0x137d48>
    210c:	00000000 	andeq	r0, r0, r0
    2110:	00a80407 	adceq	r0, r8, r7, lsl #8
    2114:	01030000 	mrseq	r0, (UNDEF: 3)
    2118:	00002408 	andeq	r2, r0, r8, lsl #8
    211c:	00a10800 	adceq	r0, r1, r0, lsl #16
    2120:	45060000 	strmi	r0, [r6, #-0]
    2124:	02000004 	andeq	r0, r0, #4, 0
    2128:	00b90e21 	adcseq	r0, r9, r1, lsr #28
    212c:	04070000 	streq	r0, [r7], #-0
    2130:	0000008c 	andeq	r0, r0, ip, lsl #1
    2134:	0005ae09 	andeq	sl, r5, r9, lsl #28
    2138:	06040100 	streq	r0, [r4], -r0, lsl #2
    213c:	00009128 	andeq	r9, r0, r8, lsr #2
    2140:	00000004 	andeq	r0, r0, r4
    2144:	7d009c01 	stcvc	12, cr9, [r0, #-4]
    2148:	04000002 	streq	r0, [r0], #-2
    214c:	000dcc00 	andeq	ip, sp, r0, lsl #24
    2150:	25010400 	strcs	r0, [r1, #-1024]	; 0xfffffc00
    2154:	0c000003 	stceq	0, cr0, [r0], {3}
    2158:	00000619 	andeq	r0, r0, r9, lsl r6
    215c:	000003dd 	ldrdeq	r0, [r0], -sp
    2160:	000001f0 	strdeq	r0, [r0], -r0	; <UNPREDICTABLE>
    2164:	00000000 	andeq	r0, r0, r0
    2168:	0000146c 	andeq	r1, r0, ip, ror #8
    216c:	69050402 	stmdbvs	r5, {r1, sl}
    2170:	0300746e 	movweq	r7, #1134	; 0x46e
    2174:	00000025 	andeq	r0, r0, r5, lsr #32
    2178:	6f070404 	svcvs	0x00070404
    217c:	04000000 	streq	r0, [r0], #-0
    2180:	001d0601 	andseq	r0, sp, r1, lsl #12
    2184:	02040000 	andeq	r0, r4, #0, 0
    2188:	0000cd05 	andeq	ip, r0, r5, lsl #26
    218c:	05040400 	streq	r0, [r4, #-1024]	; 0xfffffc00
    2190:	00000081 	andeq	r0, r0, r1, lsl #1
    2194:	7c050804 	stcvc	8, cr0, [r5], {4}
    2198:	04000000 	streq	r0, [r0], #-0
    219c:	001b0801 	andseq	r0, fp, r1, lsl #16
    21a0:	02040000 	andeq	r0, r4, #0, 0
    21a4:	00003507 	andeq	r3, r0, r7, lsl #10
    21a8:	07040400 	streq	r0, [r4, -r0, lsl #8]
    21ac:	0000006a 	andeq	r0, r0, sl, rrx
    21b0:	65070804 	strvs	r0, [r7, #-2052]	; 0xfffff7fc
    21b4:	05000000 	streq	r0, [r0, #-0]
    21b8:	00000025 	andeq	r0, r0, r5, lsr #32
    21bc:	0000007f 	andeq	r0, r0, pc, ror r0
    21c0:	00002506 	andeq	r2, r0, r6, lsl #10
    21c4:	8a070000 	bhi	1c21cc <__bss_end__+0x1b7e04>
    21c8:	02000000 	andeq	r0, r0, #0, 0
    21cc:	008b0e1c 	addeq	r0, fp, ip, lsl lr
    21d0:	04080000 	streq	r0, [r8], #-0
    21d4:	00000070 	andeq	r0, r0, r0, ror r0
    21d8:	00002505 	andeq	r2, r0, r5, lsl #10
    21dc:	0000a000 	andeq	sl, r0, r0
    21e0:	00a00600 	adceq	r0, r0, r0, lsl #12
    21e4:	08000000 	stmdaeq	r0, {}	; <UNPREDICTABLE>
    21e8:	0000ad04 	andeq	sl, r0, r4, lsl #26
    21ec:	08010400 	stmdaeq	r1, {sl}
    21f0:	00000024 	andeq	r0, r0, r4, lsr #32
    21f4:	0000a603 	andeq	sl, r0, r3, lsl #12
    21f8:	04450700 	strbeq	r0, [r5], #-1792	; 0xfffff900
    21fc:	21020000 	mrscs	r0, (UNDEF: 2)
    2200:	0000be0e 	andeq	fp, r0, lr, lsl #28
    2204:	91040800 	tstls	r4, r0, lsl #16
    2208:	09000000 	stmdbeq	r0, {}	; <UNPREDICTABLE>
    220c:	0000063d 	andeq	r0, r0, sp, lsr r6
    2210:	31110d01 	tstcc	r1, r1, lsl #26
    2214:	0a000000 	beq	221c <__code_start__-0x5de4>
    2218:	00000557 	andeq	r0, r0, r7, asr r5
    221c:	58061f01 	stmdapl	r6, {r0, r8, r9, sl, fp, ip}
    2220:	60000091 	mulvs	r0, r1, r0
    2224:	01000000 	mrseq	r0, (UNDEF: 0)
    2228:	0001d59c 	muleq	r1, ip, r5
    222c:	06610b00 	strbteq	r0, [r1], -r0, lsl #22
    2230:	2c010000 	stccs	0, cr0, [r1], {-0}
    2234:	00002c0f 	andeq	r2, r0, pc, lsl #24
    2238:	10001c00 	andne	r1, r0, r0, lsl #24
    223c:	05fc0b20 	ldrbeq	r0, [ip, #2848]!	; 0xb20
    2240:	2d010000 	stccs	0, cr0, [r1, #-0]
    2244:	00002c0f 	andeq	r2, r0, pc, lsl #24
    2248:	10002400 	andne	r2, r0, r0, lsl #8
    224c:	062e0b20 	strteq	r0, [lr], -r0, lsr #22
    2250:	2e010000 	cdpcs	0, 0, cr0, cr1, cr0, {0}
    2254:	00002c0f 	andeq	r2, r0, pc, lsl #24
    2258:	00000000 	andeq	r0, r0, r0
    225c:	06480c5a 			; <UNDEFINED> instruction: 0x06480c5a
    2260:	2f010000 	svccs	0x00010000
    2264:	00002c0f 	andeq	r2, r0, pc, lsl #24
    2268:	ef0d2000 	svc	0x000d2000
    226c:	58000001 	stmdapl	r0, {r0}
    2270:	02000091 	andeq	r0, r0, #145, 0	; 0x91
    2274:	000001d8 	ldrdeq	r0, [r0], -r8
    2278:	4c082001 	stcmi	0, cr2, [r8], {1}
    227c:	0e000001 	cdpeq	0, 0, cr0, cr0, cr1, {0}
    2280:	000001d8 	ldrdeq	r0, [r0], -r8
    2284:	0002000f 	andeq	r0, r2, pc
    2288:	001d4500 	andseq	r4, sp, r0, lsl #10
    228c:	001d4100 	andseq	r4, sp, r0, lsl #2
    2290:	10000000 	andne	r0, r0, r0
    2294:	000001d5 	ldrdeq	r0, [r0], -r5
    2298:	0000916c 	andeq	r9, r0, ip, ror #2
    229c:	00916c01 	addseq	r6, r1, r1, lsl #24
    22a0:	00001000 	andeq	r1, r0, r0
    22a4:	09210100 	stmdbeq	r1!, {r8}
    22a8:	00000173 	andeq	r0, r0, r3, ror r1
    22ac:	0001e20f 	andeq	lr, r1, pc, lsl #4
    22b0:	001d6c00 	andseq	r6, sp, r0, lsl #24
    22b4:	001d6400 	andseq	r6, sp, r0, lsl #8
    22b8:	80110000 	andshi	r0, r1, r0
    22bc:	4f000091 	svcmi	0x00000091
    22c0:	11000002 	tstne	r0, r2
    22c4:	00009184 	andeq	r9, r0, r4, lsl #3
    22c8:	0000025c 	andeq	r0, r0, ip, asr r2
    22cc:	00918c12 	addseq	r8, r1, r2, lsl ip
    22d0:	00026800 	andeq	r6, r2, r0, lsl #16
    22d4:	00019800 	andeq	r9, r1, r0, lsl #16
    22d8:	50011300 	andpl	r1, r1, r0, lsl #6
    22dc:	12003a01 	andne	r3, r0, #4096	; 0x1000
    22e0:	00009198 	muleq	r0, r8, r1
    22e4:	00000274 	andeq	r0, r0, r4, ror r2
    22e8:	000001b8 			; <UNDEFINED> instruction: 0x000001b8
    22ec:	05500113 	ldrbeq	r0, [r0, #-275]	; 0xfffffeed
    22f0:	1000240c 	andne	r2, r0, ip, lsl #8
    22f4:	51011320 	tstpl	r1, r0, lsr #6
    22f8:	00010c05 	andeq	r0, r1, r5, lsl #24
    22fc:	14005a00 	strne	r5, [r0], #-2560	; 0xfffff600
    2300:	000091a4 	andeq	r9, r0, r4, lsr #3
    2304:	00000274 	andeq	r0, r0, r4, ror r2
    2308:	05500113 	ldrbeq	r0, [r0, #-275]	; 0xfffffeed
    230c:	10001c0c 	andne	r1, r0, ip, lsl #24
    2310:	51011320 	tstpl	r1, r0, lsr #6
    2314:	00200c05 	eoreq	r0, r0, r5, lsl #24
    2318:	00005a00 	andeq	r5, r0, r0, lsl #20
    231c:	00060a15 	andeq	r0, r6, r5, lsl sl
    2320:	06170100 	ldreq	r0, [r7], -r0, lsl #2
    2324:	0001ef01 	andeq	lr, r1, r1, lsl #30
    2328:	06690900 	strbteq	r0, [r9], -r0, lsl #18
    232c:	18010000 	stmdane	r1, {}	; <UNPREDICTABLE>
    2330:	0000310e 	andeq	r3, r0, lr, lsl #2
    2334:	3a160000 	bcc	58233c <__bss_end__+0x577f74>
    2338:	01000006 	tsteq	r0, r6
    233c:	0025050e 	eoreq	r0, r5, lr, lsl #10
    2340:	0d010000 	stceq	0, cr0, [r1, #-0]
    2344:	09000002 	stmdbeq	r0, {r1}
    2348:	00000669 	andeq	r0, r0, r9, ror #12
    234c:	310e0f01 	tstcc	lr, r1, lsl #30
    2350:	00000000 	andeq	r0, r0, r0
    2354:	0001ef17 	andeq	lr, r1, r7, lsl pc
    2358:	00912c00 	addseq	r2, r1, r0, lsl #24
    235c:	00001800 	andeq	r1, r0, r0, lsl #16
    2360:	2e9c0100 	fmlcse	f0, f4, f0
    2364:	0f000002 	svceq	0x00000002
    2368:	00000200 	andeq	r0, r0, r0, lsl #4
    236c:	00001da9 	andeq	r1, r0, r9, lsr #27
    2370:	00001da5 	andeq	r1, r0, r5, lsr #27
    2374:	01d51700 	bicseq	r1, r5, r0, lsl #14
    2378:	91440000 	mrsls	r0, (UNDEF: 68)
    237c:	00140000 	andseq	r0, r4, r0
    2380:	9c010000 	stcls	0, cr0, [r1], {-0}
    2384:	0000024f 	andeq	r0, r0, pc, asr #4
    2388:	0001e20f 	andeq	lr, r1, pc, lsl #4
    238c:	001dd000 	andseq	sp, sp, r0
    2390:	001dc800 	andseq	ip, sp, r0, lsl #16
    2394:	ed180000 	ldc	0, cr0, [r8, #-0]
    2398:	ed000005 	stc	0, cr0, [r0, #-20]	; 0xffffffec
    239c:	02000005 	andeq	r0, r0, #5, 0
    23a0:	19060136 	stmdbne	r6, {r1, r2, r4, r5, r8}
    23a4:	00000586 	andeq	r0, r0, r6, lsl #11
    23a8:	00000586 	andeq	r0, r0, r6, lsl #11
    23ac:	19064d02 	stmdbne	r6, {r1, r8, sl, fp, lr}
    23b0:	00000562 	andeq	r0, r0, r2, ror #10
    23b4:	00000562 	andeq	r0, r0, r2, ror #10
    23b8:	19065802 	stmdbne	r6, {r1, fp, ip, lr}
    23bc:	00000604 	andeq	r0, r0, r4, lsl #12
    23c0:	00000604 	andeq	r0, r0, r4, lsl #12
    23c4:	0006ad02 	andeq	sl, r6, r2, lsl #26
    23c8:	0000053f 	andeq	r0, r0, pc, lsr r5
    23cc:	0f4f0004 	svceq	0x004f0004
    23d0:	01040000 	mrseq	r0, (UNDEF: 4)
    23d4:	00000325 	andeq	r0, r0, r5, lsr #6
    23d8:	0006840c 	andeq	r8, r6, ip, lsl #8
    23dc:	0003dd00 	andeq	sp, r3, r0, lsl #26
    23e0:	0091b800 	addseq	fp, r1, r0, lsl #16
    23e4:	00011c00 	andeq	r1, r1, r0, lsl #24
    23e8:	00158400 	andseq	r8, r5, r0, lsl #8
    23ec:	05040200 	streq	r0, [r4, #-512]	; 0xfffffe00
    23f0:	00746e69 	rsbseq	r6, r4, r9, ror #28
    23f4:	6f070403 	svcvs	0x00070403
    23f8:	03000000 	movweq	r0, #0
    23fc:	001d0601 	andseq	r0, sp, r1, lsl #12
    2400:	02030000 	andeq	r0, r3, #0, 0
    2404:	0000cd05 	andeq	ip, r0, r5, lsl #26
    2408:	05040300 	streq	r0, [r4, #-768]	; 0xfffffd00
    240c:	00000081 	andeq	r0, r0, r1, lsl #1
    2410:	7c050803 	stcvc	8, cr0, [r5], {3}
    2414:	03000000 	movweq	r0, #0
    2418:	001b0801 	andseq	r0, fp, r1, lsl #16
    241c:	02030000 	andeq	r0, r3, #0, 0
    2420:	00003507 	andeq	r3, r0, r7, lsl #10
    2424:	07040300 	streq	r0, [r4, -r0, lsl #6]
    2428:	0000006a 	andeq	r0, r0, sl, rrx
    242c:	65070803 	strvs	r0, [r7, #-2051]	; 0xfffff7fd
    2430:	04000000 	streq	r0, [r0], #-0
    2434:	00000025 	andeq	r0, r0, r5, lsr #32
    2438:	0000007a 	andeq	r0, r0, sl, ror r0
    243c:	00002505 	andeq	r2, r0, r5, lsl #10
    2440:	8a060000 	bhi	182448 <__bss_end__+0x178080>
    2444:	02000000 	andeq	r0, r0, #0, 0
    2448:	00860e1c 	addeq	r0, r6, ip, lsl lr
    244c:	04070000 	streq	r0, [r7], #-0
    2450:	0000006b 	andeq	r0, r0, fp, rrx
    2454:	00002504 	andeq	r2, r0, r4, lsl #10
    2458:	00009b00 	andeq	r9, r0, r0, lsl #22
    245c:	009b0500 	addseq	r0, fp, r0, lsl #10
    2460:	07000000 	streq	r0, [r0, -r0]
    2464:	0000a804 	andeq	sl, r0, r4, lsl #16
    2468:	08010300 	stmdaeq	r1, {r8, r9}
    246c:	00000024 	andeq	r0, r0, r4, lsr #32
    2470:	0000a108 	andeq	sl, r0, r8, lsl #2
    2474:	04450600 	strbeq	r0, [r5], #-1536	; 0xfffffa00
    2478:	21020000 	mrscs	r0, (UNDEF: 2)
    247c:	0000b90e 	andeq	fp, r0, lr, lsl #18
    2480:	8c040700 	stchi	7, cr0, [r4], {-0}
    2484:	09000000 	stmdbeq	r0, {}	; <UNPREDICTABLE>
    2488:	0000067a 	andeq	r0, r0, sl, ror r6
    248c:	80061e01 	andhi	r1, r6, r1, lsl #28
    2490:	54000092 	strpl	r0, [r0], #-146	; 0xffffff6e
    2494:	01000000 	mrseq	r0, (UNDEF: 0)
    2498:	00020b9c 	muleq	r2, ip, fp
    249c:	65730a00 	ldrbvs	r0, [r3, #-2560]!	; 0xfffff600
    24a0:	1e010063 	cdpne	0, 0, cr0, cr1, cr3, {3}
    24a4:	00002c19 	andeq	r2, r0, r9, lsl ip
    24a8:	001e0d00 	andseq	r0, lr, r0, lsl #26
    24ac:	001e0900 	andseq	r0, lr, r0, lsl #18
    24b0:	020b0b00 	andeq	r0, fp, #0, 22
    24b4:	92800000 	addls	r0, r0, #0, 0
    24b8:	b8020000 	stmdalt	r2, {}	; <UNPREDICTABLE>
    24bc:	01000002 	tsteq	r0, r2
    24c0:	180c051f 	stmdane	ip, {r0, r1, r2, r3, r4, r8, sl}
    24c4:	32000002 	andcc	r0, r0, #2, 0
    24c8:	2e00001e 	mcrcs	0, 0, r0, cr0, cr14, {0}
    24cc:	0d00001e 	stceq	0, cr0, [r0, #-120]	; 0xffffff88
    24d0:	00000224 	andeq	r0, r0, r4, lsr #4
    24d4:	00009294 	muleq	r0, r4, r2
    24d8:	00929400 	addseq	r9, r2, r0, lsl #8
    24dc:	00004000 	andeq	r4, r0, r0
    24e0:	051c0100 	ldreq	r0, [ip, #-256]	; 0xffffff00
    24e4:	0002310c 	andeq	r3, r2, ip, lsl #2
    24e8:	001e5f00 	andseq	r5, lr, r0, lsl #30
    24ec:	001e5d00 	andseq	r5, lr, r0, lsl #26
    24f0:	023c0e00 	eorseq	r0, ip, #0, 28
    24f4:	1e740000 	cdpne	0, 7, cr0, cr4, cr0, {0}
    24f8:	1e720000 	cdpne	0, 7, cr0, cr2, cr0, {0}
    24fc:	550f0000 	strpl	r0, [pc, #-0]	; 2504 <__code_start__-0x5afc>
    2500:	94000002 	strls	r0, [r0], #-2
    2504:	02000092 	andeq	r0, r0, #146, 0	; 0x92
    2508:	00009294 	muleq	r0, r4, r2
    250c:	00000014 	andeq	r0, r0, r4, lsl r0
    2510:	9c131301 	ldcls	3, cr1, [r3], {1}
    2514:	0e000001 	cdpeq	0, 0, cr0, cr0, cr1, {0}
    2518:	00000266 	andeq	r0, r0, r6, ror #4
    251c:	00001e8b 	andeq	r1, r0, fp, lsl #29
    2520:	00001e87 	andeq	r1, r0, r7, lsl #29
    2524:	0002710f 	andeq	r7, r2, pc, lsl #2
    2528:	00929800 	addseq	r9, r2, r0, lsl #16
    252c:	92980100 	addsls	r0, r8, #0
    2530:	000c0000 	andeq	r0, ip, r0
    2534:	0d010000 	stceq	0, cr0, [r1, #-0]
    2538:	00018912 	andeq	r8, r1, r2, lsl r9
    253c:	92a01000 	adcls	r1, r0, #0, 0
    2540:	052a0000 	streq	r0, [sl, #-0]!
    2544:	01110000 	tsteq	r1, r0
    2548:	040c0550 	streq	r0, [ip], #-1360	; 0xfffffab0
    254c:	00200030 	eoreq	r0, r0, r0, lsr r0
    2550:	92981200 	addsls	r1, r8, #0, 4
    2554:	05360000 	ldreq	r0, [r6, #-0]!
    2558:	a8120000 	ldmdage	r2, {}	; <UNPREDICTABLE>
    255c:	36000092 			; <UNDEFINED> instruction: 0x36000092
    2560:	00000005 	andeq	r0, r0, r5
    2564:	00024713 	andeq	r4, r2, r3, lsl r7
    2568:	0002d000 	andeq	sp, r2, r0
    256c:	02481400 	subeq	r1, r8, #0, 8
    2570:	550b0000 	strpl	r0, [fp, #-0]
    2574:	ac000002 	stcge	0, cr0, [r0], {2}
    2578:	02000092 	andeq	r0, r0, #146, 0	; 0x92
    257c:	000002e8 	andeq	r0, r0, r8, ror #5
    2580:	15171501 	ldrne	r1, [r7, #-1281]	; 0xfffffaff
    2584:	000002e8 	andeq	r0, r0, r8, ror #5
    2588:	0002660e 	andeq	r6, r2, lr, lsl #12
    258c:	001eab00 	andseq	sl, lr, r0, lsl #22
    2590:	001ea900 	andseq	sl, lr, r0, lsl #18
    2594:	02711600 	rsbseq	r1, r1, #0, 12
    2598:	92b00000 	adcsls	r0, r0, #0, 0
    259c:	08010000 	stmdaeq	r1, {}	; <UNPREDICTABLE>
    25a0:	01000003 	tsteq	r0, r3
    25a4:	01f3120d 	mvnseq	r1, sp, lsl #4
    25a8:	b8100000 	ldmdalt	r0, {}	; <UNPREDICTABLE>
    25ac:	2a000092 	bcs	27fc <__code_start__-0x5804>
    25b0:	11000005 	tstne	r0, r5
    25b4:	77025001 	strvc	r5, [r2, -r1]
    25b8:	12000000 	andne	r0, r0, #0, 0
    25bc:	000092b0 			; <UNDEFINED> instruction: 0x000092b0
    25c0:	00000536 	andeq	r0, r0, r6, lsr r5
    25c4:	0092c412 	addseq	ip, r2, r2, lsl r4
    25c8:	00053600 	andeq	r3, r5, r0, lsl #12
    25cc:	00000000 	andeq	r0, r0, r0
    25d0:	17000000 	strne	r0, [r0, -r0]
    25d4:	00000562 	andeq	r0, r0, r2, ror #10
    25d8:	01061b01 	tsteq	r6, r1, lsl #22
    25dc:	00000224 	andeq	r0, r0, r4, lsr #4
    25e0:	00736d18 	rsbseq	r6, r3, r8, lsl sp
    25e4:	2c181b01 			; <UNDEFINED> instruction: 0x2c181b01
    25e8:	00000000 	andeq	r0, r0, r0
    25ec:	0006ad17 	andeq	sl, r6, r7, lsl sp
    25f0:	06120100 	ldreq	r0, [r2], -r0, lsl #2
    25f4:	00025501 	andeq	r5, r2, r1, lsl #10
    25f8:	73751800 	cmnvc	r5, #0, 16
    25fc:	18120100 	ldmdane	r2, {r8}
    2600:	0000002c 	andeq	r0, r0, ip, lsr #32
    2604:	00627219 	rsbeq	r7, r2, r9, lsl r2
    2608:	2c0e1301 	stccs	3, cr1, [lr], {1}
    260c:	1a000000 	bne	2614 <__code_start__-0x59ec>
    2610:	00617219 	rsbeq	r7, r1, r9, lsl r2
    2614:	2c121501 	cfldr32cs	mvfx1, [r2], {1}
    2618:	00000000 	andeq	r0, r0, r0
    261c:	069e1b00 	ldreq	r1, [lr], r0, lsl #22
    2620:	09010000 	stmdbeq	r1, {}	; <UNPREDICTABLE>
    2624:	00002c0a 	andeq	r2, r0, sl, lsl #24
    2628:	02710100 	rsbseq	r0, r1, #0
    262c:	75190000 	ldrvc	r0, [r9, #-0]
    2630:	0e0d0100 	adfeqe	f0, f5, f0
    2634:	0000002c 	andeq	r0, r0, ip, lsr #32
    2638:	06b61c00 	ldrteq	r1, [r6], r0, lsl #24
    263c:	04010000 	streq	r0, [r1], #-0
    2640:	00002c0a 	andeq	r2, r0, sl, lsl #24
    2644:	711d0100 	tstvc	sp, r0, lsl #2
    2648:	b8000002 	stmdalt	r0, {r1}
    264c:	0c000091 	stceq	0, cr0, [r0], {145}	; 0x91
    2650:	01000000 	mrseq	r0, (UNDEF: 0)
    2654:	0002a59c 	muleq	r2, ip, r5
    2658:	91c01e00 	bicls	r1, r0, r0, lsl #28
    265c:	052a0000 	streq	r0, [sl, #-0]!
    2660:	01110000 	tsteq	r1, r0
    2664:	040c0550 	streq	r0, [ip], #-1360	; 0xfffffab0
    2668:	00200030 	eoreq	r0, r0, r0, lsr r0
    266c:	02551d00 	subseq	r1, r5, #0, 26
    2670:	91c40000 	bicls	r0, r4, r0
    2674:	00240000 	eoreq	r0, r4, r0
    2678:	9c010000 	stcls	0, cr0, [r1], {-0}
    267c:	00000305 	andeq	r0, r0, r5, lsl #6
    2680:	0002660e 	andeq	r6, r2, lr, lsl #12
    2684:	001ec200 	andseq	ip, lr, r0, lsl #4
    2688:	001ebe00 	andseq	fp, lr, r0, lsl #28
    268c:	02710f00 	rsbseq	r0, r1, #0, 30
    2690:	91cc0000 	bicls	r0, ip, r0
    2694:	cc010000 	stcgt	0, cr0, [r1], {-0}
    2698:	0c000091 	stceq	0, cr0, [r0], {145}	; 0x91
    269c:	01000000 	mrseq	r0, (UNDEF: 0)
    26a0:	02f2120d 	rscseq	r1, r2, #-805306368	; 0xd0000000
    26a4:	d4100000 	ldrle	r0, [r0], #-0
    26a8:	2a000091 	bcs	28f4 <__code_start__-0x570c>
    26ac:	11000005 	tstne	r0, r5
    26b0:	0c055001 	stceq	0, cr5, [r5], {1}
    26b4:	20003004 	andcs	r3, r0, r4
    26b8:	cc120000 	ldcgt	0, cr0, [r2], {-0}
    26bc:	36000091 			; <UNDEFINED> instruction: 0x36000091
    26c0:	12000005 	andne	r0, r0, #5, 0
    26c4:	000091dc 	ldrdeq	r9, [r0], -ip
    26c8:	00000536 	andeq	r0, r0, r6, lsr r5
    26cc:	02241d00 	eoreq	r1, r4, #0, 26
    26d0:	91e80000 	mvnls	r0, r0
    26d4:	00480000 	subeq	r0, r8, r0
    26d8:	9c010000 	stcls	0, cr0, [r1], {-0}
    26dc:	00000407 	andeq	r0, r0, r7, lsl #8
    26e0:	0002310c 	andeq	r3, r2, ip, lsl #2
    26e4:	001ee400 	andseq	lr, lr, r0, lsl #8
    26e8:	001ee000 	andseq	lr, lr, r0
    26ec:	023c0e00 	eorseq	r0, ip, #0, 28
    26f0:	1f040000 	svcne	0x00040000
    26f4:	1f020000 	svcne	0x00020000
    26f8:	55160000 	ldrpl	r0, [r6, #-0]
    26fc:	e8000002 	stmda	r0, {r1}
    2700:	02000091 	andeq	r0, r0, #145, 0	; 0x91
    2704:	00000200 	andeq	r0, r0, r0, lsl #4
    2708:	9a131301 	bls	4c7314 <__bss_end__+0x4bcf4c>
    270c:	15000003 	strne	r0, [r0, #-3]
    2710:	00000200 	andeq	r0, r0, r0, lsl #4
    2714:	0002660e 	andeq	r6, r2, lr, lsl #12
    2718:	001f1b00 	andseq	r1, pc, r0, lsl #22
    271c:	001f1700 	andseq	r1, pc, r0, lsl #14
    2720:	02710f00 	rsbseq	r0, r1, #0, 30
    2724:	91f40000 	mvnsls	r0, r0
    2728:	f4010000 	vst4.8	{d0-d3}, [r1], r0
    272c:	0c000091 	stceq	0, cr0, [r0], {145}	; 0x91
    2730:	01000000 	mrseq	r0, (UNDEF: 0)
    2734:	0386120d 	orreq	r1, r6, #-805306368	; 0xd0000000
    2738:	fc100000 	ldc2	0, cr0, [r0], {-0}
    273c:	2a000091 	bcs	2988 <__code_start__-0x5678>
    2740:	11000005 	tstne	r0, r5
    2744:	0c055001 	stceq	0, cr5, [r5], {1}
    2748:	20003004 	andcs	r3, r0, r4
    274c:	f4120000 			; <UNDEFINED> instruction: 0xf4120000
    2750:	36000091 			; <UNDEFINED> instruction: 0x36000091
    2754:	12000005 	andne	r0, r0, #5, 0
    2758:	00009204 	andeq	r9, r0, r4, lsl #4
    275c:	00000536 	andeq	r0, r0, r6, lsr r5
    2760:	47130000 	ldrmi	r0, [r3, -r0]
    2764:	18000002 	stmdane	r0, {r1}
    2768:	14000002 	strne	r0, [r0], #-2
    276c:	00000248 	andeq	r0, r0, r8, asr #4
    2770:	0002550b 	andeq	r5, r2, fp, lsl #10
    2774:	00920800 	addseq	r0, r2, r0, lsl #16
    2778:	02300200 	eorseq	r0, r0, #0, 4
    277c:	15010000 	strne	r0, [r1, #-0]
    2780:	02301517 	eorseq	r1, r0, #96468992	; 0x5c00000
    2784:	660e0000 	strvs	r0, [lr], -r0
    2788:	3b000002 	blcc	2798 <__code_start__-0x5868>
    278c:	3900001f 	stmdbcc	r0, {r0, r1, r2, r3, r4}
    2790:	1600001f 			; <UNDEFINED> instruction: 0x1600001f
    2794:	00000271 	andeq	r0, r0, r1, ror r2
    2798:	0000920c 	andeq	r9, r0, ip, lsl #4
    279c:	00025001 	andeq	r5, r2, r1
    27a0:	120d0100 	andne	r0, sp, #0
    27a4:	000003f1 	strdeq	r0, [r0], -r1
    27a8:	00921410 	addseq	r1, r2, r0, lsl r4
    27ac:	00052a00 	andeq	r2, r5, r0, lsl #20
    27b0:	50011100 	andpl	r1, r1, r0, lsl #2
    27b4:	00007702 	andeq	r7, r0, r2, lsl #14
    27b8:	920c1200 	andls	r1, ip, #0, 4
    27bc:	05360000 	ldreq	r0, [r6, #-0]!
    27c0:	20120000 	andscs	r0, r2, r0
    27c4:	36000092 			; <UNDEFINED> instruction: 0x36000092
    27c8:	00000005 	andeq	r0, r0, r5
    27cc:	1d000000 	stcne	0, cr0, [r0, #-0]
    27d0:	0000020b 	andeq	r0, r0, fp, lsl #4
    27d4:	00009230 	andeq	r9, r0, r0, lsr r2
    27d8:	00000050 	andeq	r0, r0, r0, asr r0
    27dc:	052a9c01 	streq	r9, [sl, #-3073]!	; 0xfffff3ff
    27e0:	180c0000 	stmdane	ip, {}	; <UNPREDICTABLE>
    27e4:	52000002 	andpl	r0, r0, #2, 0
    27e8:	4e00001f 	mcrmi	0, 0, r0, cr0, cr15, {0}
    27ec:	0d00001f 	stceq	0, cr0, [r0, #-124]	; 0xffffff84
    27f0:	00000224 	andeq	r0, r0, r4, lsr #4
    27f4:	00009240 	andeq	r9, r0, r0, asr #4
    27f8:	00924000 	addseq	r4, r2, r0
    27fc:	00004000 	andeq	r4, r0, r0
    2800:	051c0100 	ldreq	r0, [ip, #-256]	; 0xffffff00
    2804:	0002310c 	andeq	r3, r2, ip, lsl #2
    2808:	001f7500 	andseq	r7, pc, r0, lsl #10
    280c:	001f7300 	andseq	r7, pc, r0, lsl #6
    2810:	023c0e00 	eorseq	r0, ip, #0, 28
    2814:	1f8a0000 	svcne	0x008a0000
    2818:	1f880000 	svcne	0x00880000
    281c:	550f0000 	strpl	r0, [pc, #-0]	; 2824 <__code_start__-0x57dc>
    2820:	40000002 	andmi	r0, r0, r2
    2824:	02000092 	andeq	r0, r0, #146, 0	; 0x92
    2828:	00009240 	andeq	r9, r0, r0, asr #4
    282c:	00000014 	andeq	r0, r0, r4, lsl r0
    2830:	bc131301 	ldclt	3, cr1, [r3], {1}
    2834:	0e000004 	cdpeq	0, 0, cr0, cr0, cr4, {0}
    2838:	00000266 	andeq	r0, r0, r6, ror #4
    283c:	00001fa1 	andeq	r1, r0, r1, lsr #31
    2840:	00001f9d 	muleq	r0, sp, pc	; <UNPREDICTABLE>
    2844:	0002710f 	andeq	r7, r2, pc, lsl #2
    2848:	00924400 	addseq	r4, r2, r0, lsl #8
    284c:	92440100 	subls	r0, r4, #0
    2850:	000c0000 	andeq	r0, ip, r0
    2854:	0d010000 	stceq	0, cr0, [r1, #-0]
    2858:	0004a912 	andeq	sl, r4, r2, lsl r9
    285c:	924c1000 	subls	r1, ip, #0, 0
    2860:	052a0000 	streq	r0, [sl, #-0]!
    2864:	01110000 	tsteq	r1, r0
    2868:	040c0550 	streq	r0, [ip], #-1360	; 0xfffffab0
    286c:	00200030 	eoreq	r0, r0, r0, lsr r0
    2870:	92441200 	subls	r1, r4, #0, 4
    2874:	05360000 	ldreq	r0, [r6, #-0]!
    2878:	54120000 	ldrpl	r0, [r2], #-0
    287c:	36000092 			; <UNDEFINED> instruction: 0x36000092
    2880:	00000005 	andeq	r0, r0, r5
    2884:	00024713 	andeq	r4, r2, r3, lsl r7
    2888:	00026800 	andeq	r6, r2, r0, lsl #16
    288c:	02481400 	subeq	r1, r8, #0, 8
    2890:	550b0000 	strpl	r0, [fp, #-0]
    2894:	58000002 	stmdapl	r0, {r1}
    2898:	02000092 	andeq	r0, r0, #146, 0	; 0x92
    289c:	00000280 	andeq	r0, r0, r0, lsl #5
    28a0:	15171501 	ldrne	r1, [r7, #-1281]	; 0xfffffaff
    28a4:	00000280 	andeq	r0, r0, r0, lsl #5
    28a8:	0002660e 	andeq	r6, r2, lr, lsl #12
    28ac:	001fc100 	andseq	ip, pc, r0, lsl #2
    28b0:	001fbf00 	andseq	fp, pc, r0, lsl #30
    28b4:	02711600 	rsbseq	r1, r1, #0, 12
    28b8:	925c0000 	subsls	r0, ip, #0, 0
    28bc:	a0010000 	andge	r0, r1, r0
    28c0:	01000002 	tsteq	r0, r2
    28c4:	0513120d 	ldreq	r1, [r3, #-525]	; 0xfffffdf3
    28c8:	64100000 	ldrvs	r0, [r0], #-0
    28cc:	2a000092 	bcs	2b1c <__code_start__-0x54e4>
    28d0:	11000005 	tstne	r0, r5
    28d4:	77025001 	strvc	r5, [r2, -r1]
    28d8:	12000000 	andne	r0, r0, #0, 0
    28dc:	0000925c 	andeq	r9, r0, ip, asr r2
    28e0:	00000536 	andeq	r0, r0, r6, lsr r5
    28e4:	00927012 	addseq	r7, r2, r2, lsl r0
    28e8:	00053600 	andeq	r3, r5, r0, lsl #12
    28ec:	00000000 	andeq	r0, r0, r0
    28f0:	981f0000 	ldmdals	pc, {}	; <UNPREDICTABLE>
    28f4:	98000006 	stmdals	r0, {r1, r2}
    28f8:	02000006 	andeq	r0, r0, #6, 0
    28fc:	6e1f0ac2 	vnmlavs.f32	s0, s31, s4
    2900:	6e000006 	cdpvs	0, 0, cr0, cr0, cr6, {0}
    2904:	02000006 	andeq	r0, r0, #6, 0
    2908:	cd00069c 	stcgt	6, cr0, [r0, #-624]	; 0xfffffd90
    290c:	04000005 	streq	r0, [r0], #-5
    2910:	00111e00 	andseq	r1, r1, r0, lsl #28
    2914:	c9010400 	stmdbgt	r1, {sl}
    2918:	0c000007 	stceq	0, cr0, [r0], {7}
    291c:	00000708 	andeq	r0, r0, r8, lsl #14
    2920:	00000779 	andeq	r0, r0, r9, ror r7
    2924:	000092d4 	ldrdeq	r9, [r0], -r4
    2928:	000001f0 	strdeq	r0, [r0], -r0	; <UNPREDICTABLE>
    292c:	00001782 	andeq	r1, r0, r2, lsl #15
    2930:	69050402 	stmdbvs	r5, {r1, sl}
    2934:	0300746e 	movweq	r7, #1134	; 0x46e
    2938:	006f0704 	rsbeq	r0, pc, r4, lsl #14
    293c:	2c040000 	stccs	0, cr0, [r4], {-0}
    2940:	03000000 	movweq	r0, #0
    2944:	001d0601 	andseq	r0, sp, r1, lsl #12
    2948:	02030000 	andeq	r0, r3, #0, 0
    294c:	0000cd05 	andeq	ip, r0, r5, lsl #26
    2950:	05040300 	streq	r0, [r4, #-768]	; 0xfffffd00
    2954:	00000081 	andeq	r0, r0, r1, lsl #1
    2958:	7c050803 	stcvc	8, cr0, [r5], {3}
    295c:	03000000 	movweq	r0, #0
    2960:	001b0801 	andseq	r0, fp, r1, lsl #16
    2964:	02030000 	andeq	r0, r3, #0, 0
    2968:	00003507 	andeq	r3, r0, r7, lsl #10
    296c:	02dd0500 	sbcseq	r0, sp, #0, 10
    2970:	34050000 	strcc	r0, [r5], #-0
    2974:	00006e19 	andeq	r6, r0, r9, lsl lr
    2978:	07040300 	streq	r0, [r4, -r0, lsl #6]
    297c:	0000006a 	andeq	r0, r0, sl, rrx
    2980:	65070803 	strvs	r0, [r7, #-2051]	; 0xfffff7fd
    2984:	03000000 	movweq	r0, #0
    2988:	00240801 	eoreq	r0, r4, r1, lsl #16
    298c:	07060000 	streq	r0, [r6, -r0]
    2990:	00005401 	andeq	r5, r0, r1, lsl #8
    2994:	0e0c0400 	cfcpyseq	mvf0, mvf12
    2998:	000000c2 	andeq	r0, r0, r2, asr #1
    299c:	0008b307 	andeq	fp, r8, r7, lsl #6
    29a0:	eb070000 	bl	1c29a8 <__bss_end__+0x1b85e0>
    29a4:	01000006 	tsteq	r0, r6
    29a8:	00072e07 	andeq	r2, r7, r7, lsl #28
    29ac:	3d070400 	cfstrscc	mvf0, [r7, #-0]
    29b0:	05000007 	streq	r0, [r0, #-7]
    29b4:	00074c07 	andeq	r4, r7, r7, lsl #24
    29b8:	5b070600 	blpl	1c41c0 <__bss_end__+0x1b9df8>
    29bc:	07000007 	streq	r0, [r0, -r7]
    29c0:	00087c07 	andeq	r7, r8, r7, lsl #24
    29c4:	6a070300 	bvs	1c35cc <__bss_end__+0x1b9204>
    29c8:	02000007 	andeq	r0, r0, #7, 0
    29cc:	06fc0800 	ldrbteq	r0, [ip], r0, lsl #16
    29d0:	022c0000 	eoreq	r0, ip, #0, 0
    29d4:	015e0806 	cmpeq	lr, r6, lsl #16
    29d8:	69090000 	stmdbvs	r9, {}	; <UNPREDICTABLE>
    29dc:	0902006f 	stmdbeq	r2, {r0, r1, r2, r3, r5, r6}
    29e0:	00003309 	andeq	r3, r0, r9, lsl #6
    29e4:	69090000 	stmdbvs	r9, {}	; <UNPREDICTABLE>
    29e8:	02007265 	andeq	r7, r0, #1342177286	; 0x50000006
    29ec:	0033090a 	eorseq	r0, r3, sl, lsl #18
    29f0:	09040000 	stmdbeq	r4, {}	; <UNPREDICTABLE>
    29f4:	00726969 	rsbseq	r6, r2, r9, ror #18
    29f8:	33091102 	movwcc	r1, #37122	; 0x9102
    29fc:	08000000 	stmdaeq	r0, {}	; <UNPREDICTABLE>
    2a00:	72636c09 	rsbvc	r6, r3, #2304	; 0x900
    2a04:	09130200 	ldmdbeq	r3, {r9}
    2a08:	00000033 	andeq	r0, r0, r3, lsr r0
    2a0c:	636d090c 	cmnvs	sp, #12, 18	; 0x30000
    2a10:	14020072 	strne	r0, [r2], #-114	; 0xffffff8e
    2a14:	00003309 	andeq	r3, r0, r9, lsl #6
    2a18:	6c091000 	stcvs	0, cr1, [r9], {-0}
    2a1c:	02007273 	andeq	r7, r0, #805306375	; 0x30000007
    2a20:	00330915 	eorseq	r0, r3, r5, lsl r9
    2a24:	09140000 	ldmdbeq	r4, {}	; <UNPREDICTABLE>
    2a28:	0072736d 	rsbseq	r7, r2, sp, ror #6
    2a2c:	33091602 	movwcc	r1, #38402	; 0x9602
    2a30:	18000000 	stmdane	r0, {}	; <UNPREDICTABLE>
    2a34:	0008930a 	andeq	r9, r8, sl, lsl #6
    2a38:	09170200 	ldmdbeq	r7, {r9}
    2a3c:	00000033 	andeq	r0, r0, r3, lsr r0
    2a40:	085c0a1c 	ldmdaeq	ip, {r2, r3, r4, r9, fp}^
    2a44:	1b020000 	blne	82a4c <__bss_end__+0x78684>
    2a48:	00003309 	andeq	r3, r0, r9, lsl #6
    2a4c:	d80a2000 	stmdale	sl, {sp}
    2a50:	02000006 	andeq	r0, r0, #6, 0
    2a54:	0033091d 	eorseq	r0, r3, sp, lsl r9
    2a58:	0a240000 	beq	902a60 <__bss_end__+0x8f8698>
    2a5c:	000007ae 	andeq	r0, r0, lr, lsr #15
    2a60:	33091e02 	movwcc	r1, #40450	; 0x9e02
    2a64:	28000000 	stmdacs	r0, {}	; <UNPREDICTABLE>
    2a68:	07b30b00 	ldreq	r0, [r3, r0, lsl #22]!
    2a6c:	08010000 	stmdaeq	r1, {}	; <UNPREDICTABLE>
    2a70:	00017409 	andeq	r7, r1, r9, lsl #8
    2a74:	21500400 	cmpcs	r0, r0, lsl #8
    2a78:	33040c20 	movwcc	r0, #19488	; 0x4c20
    2a7c:	0d000000 	stceq	0, cr0, [r0, #-0]
    2a80:	0000016e 	andeq	r0, r0, lr, ror #2
    2a84:	00089b0b 	andeq	r9, r8, fp, lsl #22
    2a88:	23290100 			; <UNDEFINED> instruction: 0x23290100
    2a8c:	0000018f 	andeq	r0, r0, pc, lsl #3
    2a90:	20215040 	eorcs	r5, r1, r0, asr #32
    2a94:	00c2040c 	sbceq	r0, r2, ip, lsl #8
    2a98:	890d0000 	stmdbhi	sp, {}	; <UNPREDICTABLE>
    2a9c:	0e000001 	cdpeq	0, 0, cr0, cr0, cr1, {0}
    2aa0:	00000586 	andeq	r0, r0, r6, lsl #11
    2aa4:	8c06cc01 	stchi	12, cr12, [r6], {1}
    2aa8:	14000094 	strne	r0, [r0], #-148	; 0xffffff6c
    2aac:	01000000 	mrseq	r0, (UNDEF: 0)
    2ab0:	0001b49c 	muleq	r1, ip, r4
    2ab4:	94940f00 	ldrls	r0, [r4], #3840	; 0xf00
    2ab8:	01b40000 			; <UNDEFINED> instruction: 0x01b40000
    2abc:	10000000 	andne	r0, r0, r0
    2ac0:	0000071d 	andeq	r0, r0, sp, lsl r7
    2ac4:	2505b601 	strcs	fp, [r5, #-1537]	; 0xfffff9ff
    2ac8:	6c000000 	stcvs	0, cr0, [r0], {-0}
    2acc:	20000094 	mulcs	r0, r4, r0
    2ad0:	01000000 	mrseq	r0, (UNDEF: 0)
    2ad4:	0001eb9c 	muleq	r1, ip, fp
    2ad8:	94740f00 	ldrbtls	r0, [r4], #-3840	; 0xfffff100
    2adc:	05a00000 	streq	r0, [r0, #0]!
    2ae0:	7c110000 	ldcvc	0, cr0, [r1], {-0}
    2ae4:	ac000094 	stcge	0, cr0, [r0], {148}	; 0x94
    2ae8:	12000005 	andne	r0, r0, #5, 0
    2aec:	0c055001 	stceq	0, cr5, [r5], {1}
    2af0:	20215064 	eorcs	r5, r1, r4, rrx
    2af4:	6e100000 	cdpvs	0, 1, cr0, cr0, cr0, {0}
    2af8:	01000008 	tsteq	r0, r8
    2afc:	002505b3 	strhteq	r0, [r5], -r3
    2b00:	945c0000 	ldrbls	r0, [ip], #-0
    2b04:	00100000 	andseq	r0, r0, r0
    2b08:	9c010000 	stcls	0, cr0, [r1], {-0}
    2b0c:	00000218 	andeq	r0, r0, r8, lsl r2
    2b10:	0094640f 	addseq	r6, r4, pc, lsl #8
    2b14:	0005a000 	andeq	sl, r5, r0
    2b18:	94680f00 	strbtls	r0, [r8], #-3840	; 0xfffff100
    2b1c:	03090000 	movweq	r0, #36864	; 0x9000
    2b20:	0e000000 	cdpeq	0, 0, cr0, cr0, cr0, {0}
    2b24:	000008a9 	andeq	r0, r0, r9, lsr #17
    2b28:	2c06ab01 			; <UNDEFINED> instruction: 0x2c06ab01
    2b2c:	30000094 	mulcc	r0, r4, r0
    2b30:	01000000 	mrseq	r0, (UNDEF: 0)
    2b34:	00027c9c 	muleq	r2, ip, ip
    2b38:	00631300 	rsbeq	r1, r3, r0, lsl #6
    2b3c:	2c19ab01 			; <UNDEFINED> instruction: 0x2c19ab01
    2b40:	d8000000 	stmdale	r0, {}	; <UNPREDICTABLE>
    2b44:	d400001f 	strle	r0, [r0], #-31	; 0xffffffe1
    2b48:	0f00001f 	svceq	0x0000001f
    2b4c:	00009438 	andeq	r9, r0, r8, lsr r4
    2b50:	000005a0 	andeq	r0, r0, r0, lsr #11
    2b54:	00943c0f 	addseq	r3, r4, pc, lsl #24
    2b58:	0002db00 	andeq	sp, r2, r0, lsl #22
    2b5c:	94501400 	ldrbls	r1, [r0], #-1024	; 0xfffffc00
    2b60:	05b80000 	ldreq	r0, [r8, #0]!
    2b64:	02720000 	rsbseq	r0, r2, #0, 0
    2b68:	01120000 	tsteq	r2, r0
    2b6c:	400c0550 	andmi	r0, ip, r0, asr r5
    2b70:	12202150 	eorne	r2, r0, #20
    2b74:	74055101 	strvc	r5, [r5], #-257	; 0xfffffeff
    2b78:	1aff0800 	bne	fffc4b80 <__bss_end__+0xfffba7b8>
    2b7c:	94540f00 	ldrbls	r0, [r4], #-3840	; 0xfffff100
    2b80:	05a00000 	streq	r0, [r0, #0]!
    2b84:	10000000 	andne	r0, r0, r0
    2b88:	000007bf 			; <UNDEFINED> instruction: 0x000007bf
    2b8c:	2505a301 	strcs	sl, [r5, #-769]	; 0xfffffcff
    2b90:	fc000000 	stc2	0, cr0, [r0], {-0}
    2b94:	30000093 	mulcc	r0, r3, r0
    2b98:	01000000 	mrseq	r0, (UNDEF: 0)
    2b9c:	0002db9c 	muleq	r2, ip, fp
    2ba0:	00631500 	rsbeq	r1, r3, r0, lsl #10
    2ba4:	2509a701 	strcs	sl, [r9, #-1793]	; 0xfffff8ff
    2ba8:	f8000000 			; <UNDEFINED> instruction: 0xf8000000
    2bac:	f600001f 			; <UNDEFINED> instruction: 0xf600001f
    2bb0:	0f00001f 	svceq	0x0000001f
    2bb4:	00009404 	andeq	r9, r0, r4, lsl #8
    2bb8:	000005a0 	andeq	r0, r0, r0, lsr #11
    2bbc:	0094080f 	addseq	r0, r4, pc, lsl #16
    2bc0:	00030900 	andeq	r0, r3, r0, lsl #18
    2bc4:	94181400 	ldrls	r1, [r8], #-1024	; 0xfffffc00
    2bc8:	05ac0000 	streq	r0, [ip, #0]!
    2bcc:	02d10000 	sbcseq	r0, r1, #0, 0
    2bd0:	01120000 	tsteq	r2, r0
    2bd4:	400c0550 	andmi	r0, ip, r0, asr r5
    2bd8:	00202150 	eoreq	r2, r0, r0, asr r1
    2bdc:	0094200f 	addseq	r2, r4, pc
    2be0:	0005a000 	andeq	sl, r5, r0
    2be4:	0f100000 	svceq	0x00100000
    2be8:	01000007 	tsteq	r0, r7
    2bec:	00250594 	mlaeq	r5, r4, r5, r0
    2bf0:	93dc0000 	bicsls	r0, ip, #0, 0
    2bf4:	00200000 	eoreq	r0, r0, r0
    2bf8:	9c010000 	stcls	0, cr0, [r1], {-0}
    2bfc:	00000309 	andeq	r0, r0, r9, lsl #6
    2c00:	0093e811 	addseq	lr, r3, r1, lsl r8
    2c04:	0005ac00 	andeq	sl, r5, r0, lsl #24
    2c08:	50011200 	andpl	r1, r1, r0, lsl #4
    2c0c:	50640c05 	rsbpl	r0, r4, r5, lsl #24
    2c10:	00002021 	andeq	r2, r0, r1, lsr #32
    2c14:	0006dd10 	andeq	sp, r6, r0, lsl sp
    2c18:	058b0100 	streq	r0, [fp, #256]	; 0x100
    2c1c:	00000025 	andeq	r0, r0, r5, lsr #32
    2c20:	000093c4 	andeq	r9, r0, r4, asr #7
    2c24:	00000018 	andeq	r0, r0, r8, lsl r0
    2c28:	03379c01 	teqeq	r7, #256	; 0x100
    2c2c:	d0110000 	andsle	r0, r1, r0
    2c30:	ac000093 	stcge	0, cr0, [r0], {147}	; 0x93
    2c34:	12000005 	andne	r0, r0, #5, 0
    2c38:	0c055001 	stceq	0, cr5, [r5], {1}
    2c3c:	20215064 	eorcs	r5, r1, r4, rrx
    2c40:	a40e0000 	strge	r0, [lr], #-0
    2c44:	01000005 	tsteq	r0, r5
    2c48:	93140645 	tstls	r4, #72351744	; 0x4500000
    2c4c:	00b00000 	adcseq	r0, r0, r0
    2c50:	9c010000 	stcls	0, cr0, [r1], {-0}
    2c54:	00000484 	andeq	r0, r0, r4, lsl #9
    2c58:	0006cf16 	andeq	ip, r6, r6, lsl pc
    2c5c:	0e7e0100 	rpweqe	f0, f6, f0
    2c60:	00000062 	andeq	r0, r0, r2, rrx
    2c64:	2414010e 	ldrcs	r0, [r4], #-270	; 0xfffffef2
    2c68:	c4000093 	strgt	r0, [r0], #-147	; 0xffffff6d
    2c6c:	73000005 	movwvc	r0, #5
    2c70:	12000003 	andne	r0, r0, #3, 0
    2c74:	3e015001 	cdpcc	0, 0, cr5, cr1, cr1, {0}
    2c78:	01510112 	cmpeq	r1, r2, lsl r1
    2c7c:	30140032 	andscc	r0, r4, r2, lsr r0
    2c80:	c4000093 	strgt	r0, [r0], #-147	; 0xffffff6d
    2c84:	8b000005 	blhi	2ca0 <__code_start__-0x5360>
    2c88:	12000003 	andne	r0, r0, #3, 0
    2c8c:	3f015001 	svccc	0x00015001
    2c90:	01510112 	cmpeq	r1, r2, lsl r1
    2c94:	340f0032 	strcc	r0, [pc], #-50	; 2c9c <__code_start__-0x5364>
    2c98:	a0000093 	mulge	r0, r3, r0
    2c9c:	14000005 	strne	r0, [r0], #-5
    2ca0:	00009340 	andeq	r9, r0, r0, asr #6
    2ca4:	0000053d 	andeq	r0, r0, sp, lsr r5
    2ca8:	000003b0 			; <UNDEFINED> instruction: 0x000003b0
    2cac:	05500112 	ldrbeq	r0, [r0, #-274]	; 0xfffffeee
    2cb0:	2150040c 	cmpcs	r0, ip, lsl #8
    2cb4:	51011220 	tstpl	r1, r0, lsr #4
    2cb8:	0f003101 	svceq	0x00003101
    2cbc:	00009344 	andeq	r9, r0, r4, asr #6
    2cc0:	000005a0 	andeq	r0, r0, r0, lsr #11
    2cc4:	00935414 	addseq	r5, r3, r4, lsl r4
    2cc8:	0005b800 	andeq	fp, r5, r0, lsl #16
    2ccc:	0003d200 	andeq	sp, r3, r0, lsl #4
    2cd0:	50011200 	andpl	r1, r1, r0, lsl #4
    2cd4:	12007402 	andne	r7, r0, #33554432	; 0x2000000
    2cd8:	30015101 	andcc	r5, r1, r1, lsl #2
    2cdc:	93601400 	cmnls	r0, #0, 8
    2ce0:	05b80000 	ldreq	r0, [r8, #0]!
    2ce4:	03ee0000 	mvneq	r0, #0, 0
    2ce8:	01120000 	tsteq	r2, r0
    2cec:	440c0550 	strmi	r0, [ip], #-1360	; 0xfffffab0
    2cf0:	12202150 	eorne	r2, r0, #20
    2cf4:	30015101 	andcc	r5, r1, r1, lsl #2
    2cf8:	936c1400 	cmnls	ip, #0, 8
    2cfc:	05b80000 	ldreq	r0, [r8, #0]!
    2d00:	040a0000 	streq	r0, [sl], #-0
    2d04:	01120000 	tsteq	r2, r0
    2d08:	4c0c0550 	cfstr32mi	mvfx0, [ip], {80}	; 0x50
    2d0c:	12202150 	eorne	r2, r0, #20
    2d10:	33015101 	movwcc	r5, #4353	; 0x1101
    2d14:	93781400 	cmnls	r8, #0, 8
    2d18:	05b80000 	ldreq	r0, [r8, #0]!
    2d1c:	04260000 	strteq	r0, [r6], #-0
    2d20:	01120000 	tsteq	r2, r0
    2d24:	500c0550 	andpl	r0, ip, r0, asr r5
    2d28:	12202150 	eorne	r2, r0, #20
    2d2c:	30015101 	andcc	r5, r1, r1, lsl #2
    2d30:	93841400 	orrls	r1, r4, #0, 8
    2d34:	05b80000 	ldreq	r0, [r8, #0]!
    2d38:	04430000 	strbeq	r0, [r3], #-0
    2d3c:	01120000 	tsteq	r2, r0
    2d40:	480c0550 	stmdami	ip, {r4, r6, r8, sl}
    2d44:	12202150 	eorne	r2, r0, #20
    2d48:	08025101 	stmdaeq	r2, {r0, r8, ip, lr}
    2d4c:	901400c7 	andsls	r0, r4, r7, asr #1
    2d50:	b8000093 	stmdalt	r0, {r0, r1, r4, r7}
    2d54:	61000005 	tstvs	r0, r5
    2d58:	12000004 	andne	r0, r0, #4, 0
    2d5c:	0c055001 	stceq	0, cr5, [r5], {1}
    2d60:	20215068 	eorcs	r5, r1, r8, rrx
    2d64:	03510112 	cmpeq	r1, #-2147483644	; 0x80000004
    2d68:	00010e0a 	andeq	r0, r1, sl, lsl #28
    2d6c:	00939c14 	addseq	r9, r3, r4, lsl ip
    2d70:	0005b800 	andeq	fp, r5, r0, lsl #16
    2d74:	00047a00 	andeq	r7, r4, r0, lsl #20
    2d78:	50011200 	andpl	r1, r1, r0, lsl #4
    2d7c:	12007402 	andne	r7, r0, #33554432	; 0x2000000
    2d80:	33015101 	movwcc	r5, #4353	; 0x1101
    2d84:	93a00f00 	movls	r0, #0, 30
    2d88:	05a00000 	streq	r0, [r0, #0]!
    2d8c:	0e000000 	cdpeq	0, 0, cr0, cr0, cr0, {0}
    2d90:	00000861 	andeq	r0, r0, r1, ror #16
    2d94:	a0063501 	andge	r3, r6, r1, lsl #10
    2d98:	24000094 	strcs	r0, [r0], #-148	; 0xffffff6c
    2d9c:	01000000 	mrseq	r0, (UNDEF: 0)
    2da0:	0004d39c 	muleq	r4, ip, r3
    2da4:	94a80f00 	strtls	r0, [r8], #3840	; 0xf00
    2da8:	01940000 	orrseq	r0, r4, r0
    2dac:	ac0f0000 	stcge	0, cr0, [pc], {-0}
    2db0:	a0000094 	mulge	r0, r4, r0
    2db4:	14000005 	strne	r0, [r0], #-5
    2db8:	000094b8 			; <UNDEFINED> instruction: 0x000094b8
    2dbc:	000004d3 	ldrdeq	r0, [r0], -r3
    2dc0:	000004c9 	andeq	r0, r0, r9, asr #9
    2dc4:	05500112 	ldrbeq	r0, [r0, #-274]	; 0xfffffeee
    2dc8:	2150040c 	cmpcs	r0, ip, lsl #8
    2dcc:	51011220 	tstpl	r1, r0, lsr #4
    2dd0:	00fe0902 	rscseq	r0, lr, r2, lsl #18
    2dd4:	0094bc0f 	addseq	fp, r4, pc, lsl #24
    2dd8:	0005a000 	andeq	sl, r5, r0
    2ddc:	a0170000 	andsge	r0, r7, r0
    2de0:	01000008 	tsteq	r0, r8
    2de4:	92d40d31 	sbcsls	r0, r4, #3136	; 0xc40
    2de8:	00200000 	eoreq	r0, r0, r0
    2dec:	9c010000 	stcls	0, cr0, [r1], {-0}
    2df0:	00000536 	andeq	r0, r0, r6, lsr r5
    2df4:	0008fa18 	andeq	pc, r8, r8, lsl sl	; <UNPREDICTABLE>
    2df8:	25310100 	ldrcs	r0, [r1, #-256]!	; 0xffffff00
    2dfc:	00000536 	andeq	r0, r0, r6, lsr r5
    2e00:	0000200f 	andeq	r2, r0, pc
    2e04:	0000200b 	andeq	r2, r0, fp
    2e08:	6c617613 	stclvs	6, cr7, [r1], #-76	; 0xffffffb4
    2e0c:	34310100 	ldrtcc	r0, [r1], #-256	; 0xffffff00
    2e10:	0000002c 	andeq	r0, r0, ip, lsr #32
    2e14:	00002031 	andeq	r2, r0, r1, lsr r0
    2e18:	0000202d 	andeq	r2, r0, sp, lsr #32
    2e1c:	0092e414 	addseq	lr, r2, r4, lsl r4
    2e20:	0005ac00 	andeq	sl, r5, r0, lsl #24
    2e24:	00052500 	andeq	r2, r5, r0, lsl #10
    2e28:	50011200 	andpl	r1, r1, r0, lsl #4
    2e2c:	00007402 	andeq	r7, r0, r2, lsl #8
    2e30:	0092f011 	addseq	pc, r2, r1, lsl r0	; <UNPREDICTABLE>
    2e34:	0005b800 	andeq	fp, r5, r0, lsl #16
    2e38:	50011200 	andpl	r1, r1, r0, lsl #4
    2e3c:	00007402 	andeq	r7, r0, r2, lsl #8
    2e40:	3c040c00 	stccc	12, cr0, [r4], {-0}
    2e44:	19000005 	stmdbne	r0, {r0, r2}
    2e48:	00088b17 	andeq	r8, r8, r7, lsl fp
    2e4c:	0d2e0100 	stfeqs	f0, [lr, #-0]
    2e50:	000092f4 	strdeq	r9, [r0], -r4
    2e54:	00000020 	andeq	r0, r0, r0, lsr #32
    2e58:	05a09c01 	streq	r9, [r0, #3073]!	; 0xc01
    2e5c:	fa180000 	blx	602e64 <__bss_end__+0x5f8a9c>
    2e60:	01000008 	tsteq	r0, r8
    2e64:	0536242e 	ldreq	r2, [r6, #-1070]!	; 0xfffffbd2
    2e68:	20530000 	subscs	r0, r3, r0
    2e6c:	204f0000 	subcs	r0, pc, r0
    2e70:	76130000 	ldrvc	r0, [r3], -r0
    2e74:	01006c61 	tsteq	r0, r1, ror #24
    2e78:	002c332e 	eoreq	r3, ip, lr, lsr #6
    2e7c:	20750000 	rsbscs	r0, r5, r0
    2e80:	20710000 	rsbscs	r0, r1, r0
    2e84:	04140000 	ldreq	r0, [r4], #-0
    2e88:	ac000093 	stcge	0, cr0, [r0], {147}	; 0x93
    2e8c:	8f000005 	svchi	0x00000005
    2e90:	12000005 	andne	r0, r0, #5, 0
    2e94:	74025001 	strvc	r5, [r2], #-1
    2e98:	10110000 	andsne	r0, r1, r0
    2e9c:	b8000093 	stmdalt	r0, {r0, r1, r4, r7}
    2ea0:	12000005 	andne	r0, r0, #5, 0
    2ea4:	74025001 	strvc	r5, [r2], #-1
    2ea8:	1a000000 	bne	2eb0 <__code_start__-0x5150>
    2eac:	0000066e 	andeq	r0, r0, lr, ror #12
    2eb0:	0000066e 	andeq	r0, r0, lr, ror #12
    2eb4:	1a069c03 	bne	1a9ec8 <__bss_end__+0x19fb00>
    2eb8:	000008d5 	ldrdeq	r0, [r0], -r5
    2ebc:	000008d5 	ldrdeq	r0, [r0], -r5
    2ec0:	1a0bc303 	bne	2f3ad4 <__bss_end__+0x2e970c>
    2ec4:	000006c9 	andeq	r0, r0, r9, asr #13
    2ec8:	000006c9 	andeq	r0, r0, r9, asr #13
    2ecc:	1a06ae03 	bne	1ae6e0 <__bss_end__+0x1a4318>
    2ed0:	000008c3 	andeq	r0, r0, r3, asr #17
    2ed4:	000008c3 	andeq	r0, r0, r3, asr #17
    2ed8:	00061904 	andeq	r1, r6, r4, lsl #18
    2edc:	000008e9 	andeq	r0, r0, r9, ror #17
    2ee0:	12b60004 	adcsne	r0, r6, #4, 0
    2ee4:	01040000 	mrseq	r0, (UNDEF: 4)
    2ee8:	000007c9 	andeq	r0, r0, r9, asr #15
    2eec:	0009710c 	andeq	r7, r9, ip, lsl #2
    2ef0:	00077900 	andeq	r7, r7, r0, lsl #18
    2ef4:	0094c400 	addseq	ip, r4, r0, lsl #8
    2ef8:	0003b000 	andeq	fp, r3, r0
    2efc:	00198a00 	andseq	r8, r9, r0, lsl #20
    2f00:	05040200 	streq	r0, [r4, #-512]	; 0xfffffe00
    2f04:	00746e69 	rsbseq	r6, r4, r9, ror #28
    2f08:	6f070403 	svcvs	0x00070403
    2f0c:	03000000 	movweq	r0, #0
    2f10:	001d0601 	andseq	r0, sp, r1, lsl #12
    2f14:	02030000 	andeq	r0, r3, #0, 0
    2f18:	0000cd05 	andeq	ip, r0, r5, lsl #26
    2f1c:	05040300 	streq	r0, [r4, #-768]	; 0xfffffd00
    2f20:	00000081 	andeq	r0, r0, r1, lsl #1
    2f24:	7c050803 	stcvc	8, cr0, [r5], {3}
    2f28:	03000000 	movweq	r0, #0
    2f2c:	001b0801 	andseq	r0, fp, r1, lsl #16
    2f30:	02030000 	andeq	r0, r3, #0, 0
    2f34:	00003507 	andeq	r3, r0, r7, lsl #10
    2f38:	02dd0400 	sbcseq	r0, sp, #0, 8
    2f3c:	34030000 	strcc	r0, [r3], #-0
    2f40:	00006919 	andeq	r6, r0, r9, lsl r9
    2f44:	07040300 	streq	r0, [r4, -r0, lsl #6]
    2f48:	0000006a 	andeq	r0, r0, sl, rrx
    2f4c:	65070803 	strvs	r0, [r7, #-2051]	; 0xfffff7fd
    2f50:	03000000 	movweq	r0, #0
    2f54:	00240801 	eoreq	r0, r4, r1, lsl #16
    2f58:	77050000 	strvc	r0, [r5, -r0]
    2f5c:	03000000 	movweq	r0, #0
    2f60:	01ca0408 	biceq	r0, sl, r8, lsl #8
    2f64:	04060000 	streq	r0, [r6], #-0
    2f68:	2c040707 	stccs	7, cr0, [r4], {7}
    2f6c:	01000000 	mrseq	r0, (UNDEF: 0)
    2f70:	00a4061f 	adceq	r0, r4, pc, lsl r6
    2f74:	ff080000 			; <UNDEFINED> instruction: 0xff080000
    2f78:	00000008 	andeq	r0, r0, r8
    2f7c:	00002000 	andeq	r2, r0, r0
    2f80:	0004c009 	andeq	ip, r4, r9
    2f84:	0d220100 	stfeqs	f0, [r2, #-0]
    2f88:	00000077 	andeq	r0, r0, r7, ror r0
    2f8c:	00091a0a 	andeq	r1, r9, sl, lsl #20
    2f90:	0e230100 	sufeqs	f0, f3, f0
    2f94:	000000c2 	andeq	r0, r0, r2, asr #1
    2f98:	9fa00305 	svcls	0x00a00305
    2f9c:	040b0000 	streq	r0, [fp], #-0
    2fa0:	00000077 	andeq	r0, r0, r7, ror r0
    2fa4:	0008e30a 	andeq	lr, r8, sl, lsl #6
    2fa8:	0e240100 	sufeqs	f0, f4, f0
    2fac:	000000c2 	andeq	r0, r0, r2, asr #1
    2fb0:	9fa40305 	svcls	0x00a40305
    2fb4:	500a0000 	andpl	r0, sl, r0
    2fb8:	01000009 	tsteq	r0, r9
    2fbc:	00c20e25 	sbceq	r0, r2, r5, lsr #28
    2fc0:	03050000 	movweq	r0, #20480	; 0x5000
    2fc4:	00009fa8 	andeq	r9, r0, r8, lsr #31
    2fc8:	0009260c 	andeq	r2, r9, ip, lsl #12
    2fcc:	06750100 	ldrbteq	r0, [r5], -r0, lsl #2
    2fd0:	00009814 	andeq	r9, r0, r4, lsl r8
    2fd4:	00000060 	andeq	r0, r0, r0, rrx
    2fd8:	01649c01 	cmneq	r4, r1, lsl #24
    2fdc:	700d0000 	andvc	r0, sp, r0
    2fe0:	16750100 	ldrbtne	r0, [r5], -r0, lsl #2
    2fe4:	0000008a 	andeq	r0, r0, sl, lsl #1
    2fe8:	00002099 	muleq	r0, r9, r0
    2fec:	00002093 	muleq	r0, r3, r0
    2ff0:	0000580e 	andeq	r5, r0, lr, lsl #16
    2ff4:	00017400 	andeq	r7, r1, r0, lsl #8
    2ff8:	90030500 	andls	r0, r3, r0, lsl #10
    2ffc:	0f00009f 	svceq	0x0000009f
    3000:	00009860 	andeq	r9, r0, r0, ror #16
    3004:	000008bc 			; <UNDEFINED> instruction: 0x000008bc
    3008:	0000015a 	andeq	r0, r0, sl, asr r1
    300c:	05500110 	ldrbeq	r0, [r0, #-272]	; 0xfffffef0
    3010:	009f0803 	addseq	r0, pc, r3, lsl #16
    3014:	51011000 	mrspl	r1, (UNDEF: 1)
    3018:	9da00305 	stcls	3, cr0, [r0, #20]!
    301c:	01100000 	tsteq	r0, r0
    3020:	90030552 	andls	r0, r3, r2, asr r5
    3024:	1000009f 	mulne	r0, pc, r0	; <UNPREDICTABLE>
    3028:	08025301 	stmdaeq	r2, {r0, r8, r9, ip, lr}
    302c:	7d021077 	stcvc	0, cr1, [r2, #-476]	; 0xfffffe24
    3030:	01f30300 	mvnseq	r0, r0, lsl #6
    3034:	64110050 	ldrvs	r0, [r1], #-80	; 0xffffffb0
    3038:	c8000098 	stmdagt	r0, {r3, r4, r7}
    303c:	00000008 	andeq	r0, r0, r8
    3040:	00007e12 	andeq	r7, r0, r2, lsl lr
    3044:	00017400 	andeq	r7, r1, r0, lsl #8
    3048:	002c1300 	eoreq	r1, ip, r0, lsl #6
    304c:	00090000 	andeq	r0, r9, r0
    3050:	00016405 	andeq	r6, r1, r5, lsl #8
    3054:	09081400 	stmdbeq	r8, {sl, ip}
    3058:	72010000 	andvc	r0, r1, #0, 0
    305c:	00980006 	addseq	r0, r8, r6
    3060:	00001400 	andeq	r1, r0, r0, lsl #8
    3064:	0c9c0100 	ldfeqs	f0, [ip], {0}
    3068:	00000001 	andeq	r0, r0, r1
    306c:	fc066f01 	stc2	15, cr6, [r6], {1}
    3070:	04000097 	streq	r0, [r0], #-151	; 0xffffff69
    3074:	01000000 	mrseq	r0, (UNDEF: 0)
    3078:	0001ae9c 	muleq	r1, ip, lr
    307c:	00701500 	rsbseq	r1, r0, r0, lsl #10
    3080:	8a126f01 	bhi	49ec8c <__bss_end__+0x4948c4>
    3084:	01000000 	mrseq	r0, (UNDEF: 0)
    3088:	ca160050 	bgt	5831d0 <__bss_end__+0x578e08>
    308c:	01000009 	tsteq	r0, r9
    3090:	008a075e 	addeq	r0, sl, lr, asr r7
    3094:	96e40000 	strbtls	r0, [r4], r0
    3098:	01180000 	tsteq	r8, r0
    309c:	9c010000 	stcls	0, cr0, [r1], {-0}
    30a0:	0000042c 	andeq	r0, r0, ip, lsr #8
    30a4:	00021917 	andeq	r1, r2, r7, lsl r9
    30a8:	205e0100 	subscs	r0, lr, r0, lsl #2
    30ac:	0000002c 	andeq	r0, r0, ip, lsr #32
    30b0:	000020da 	ldrdeq	r2, [r0], -sl
    30b4:	000020c6 	andeq	r2, r0, r6, asr #1
    30b8:	00093017 	andeq	r3, r9, r7, lsl r0
    30bc:	315e0100 	cmpcc	lr, r0, lsl #2
    30c0:	0000002c 	andeq	r0, r0, ip, lsr #32
    30c4:	00002173 	andeq	r2, r0, r3, ror r1
    30c8:	0000215f 	andeq	r2, r0, pc, asr r1
    30cc:	0000580e 	andeq	r5, r0, lr, lsl #16
    30d0:	00043c00 	andeq	r3, r4, r0, lsl #24
    30d4:	78030500 	stmdavc	r3, {r8, sl}
    30d8:	1800009f 	stmdane	r0, {r0, r1, r2, r3, r4, r7}
    30dc:	66010068 	strvs	r0, [r1], -r8, rrx
    30e0:	00002c0e 	andeq	r2, r0, lr, lsl #24
    30e4:	00222900 	eoreq	r2, r2, r0, lsl #18
    30e8:	00221d00 	eoreq	r1, r2, r0, lsl #26
    30ec:	08541900 	ldmdaeq	r4, {r8, fp, ip}^
    30f0:	96f40000 	ldrbtls	r0, [r4], r0
    30f4:	f4040000 	vst4.8	{d0-d3}, [r4], r0
    30f8:	04000096 	streq	r0, [r0], #-150	; 0xffffff6a
    30fc:	01000000 	mrseq	r0, (UNDEF: 0)
    3100:	02380560 	eorseq	r0, r8, #96, 10	; 0x18000000
    3104:	651a0000 	ldrvs	r0, [sl, #-0]
    3108:	7d000008 	stcvc	0, cr0, [r0, #-32]	; 0xffffffe0
    310c:	7b000022 	blvc	319c <__code_start__-0x4e64>
    3110:	00000022 	andeq	r0, r0, r2, lsr #32
    3114:	00089619 	andeq	r9, r8, r9, lsl r6
    3118:	00970000 	addseq	r0, r7, r0
    311c:	97000200 	strls	r0, [r0, -r0, lsl #4]
    3120:	00080000 	andeq	r0, r8, r0
    3124:	61010000 	mrsvs	r0, (UNDEF: 1)
    3128:	00026c11 	andeq	r6, r2, r1, lsl ip
    312c:	08b11a00 	ldmeq	r1!, {r9, fp, ip}
    3130:	22920000 	addscs	r0, r2, #0, 0
    3134:	22900000 	addscs	r0, r0, #0, 0
    3138:	a71a0000 	ldrge	r0, [sl, -r0]
    313c:	a8000008 	stmdage	r0, {r3}
    3140:	a6000022 	strge	r0, [r0], -r2, lsr #32
    3144:	00000022 	andeq	r0, r0, r2, lsr #32
    3148:	00081f1b 	andeq	r1, r8, fp, lsl pc
    314c:	00971000 	addseq	r1, r7, r0
    3150:	03380100 	teqeq	r8, #0
    3154:	67010000 	strvs	r0, [r1, -r0]
    3158:	00030a09 	andeq	r0, r3, r9, lsl #20
    315c:	083a1a00 	ldmdaeq	sl!, {r9, fp, ip}
    3160:	22c10000 	sbccs	r0, r1, #0, 0
    3164:	22bb0000 	adcscs	r0, fp, #0, 0
    3168:	301a0000 	andscc	r0, sl, r0
    316c:	08000008 	stmdaeq	r0, {r3}
    3170:	00000023 	andeq	r0, r0, r3, lsr #32
    3174:	1c000023 	stcne	0, cr0, [r0], {35}	; 0x23
    3178:	00000338 	andeq	r0, r0, r8, lsr r3
    317c:	00085419 	andeq	r5, r8, r9, lsl r4
    3180:	00971000 	addseq	r1, r7, r0
    3184:	97100400 	ldrls	r0, [r0, -r0, lsl #8]
    3188:	00040000 	andeq	r0, r4, r0
    318c:	11010000 	mrsne	r0, (UNDEF: 1)
    3190:	0002c705 	andeq	ip, r2, r5, lsl #14
    3194:	08651a00 	stmdaeq	r5!, {r9, fp, ip}^
    3198:	23460000 	movtcs	r0, #24576	; 0x6000
    319c:	23440000 	movtcs	r0, #16384	; 0x4000
    31a0:	0f000000 	svceq	0x00000000
    31a4:	000097a8 	andeq	r9, r0, r8, lsr #15
    31a8:	000008bc 			; <UNDEFINED> instruction: 0x000008bc
    31ac:	000002ff 	strdeq	r0, [r0], -pc	; <UNPREDICTABLE>
    31b0:	05500110 	ldrbeq	r0, [r0, #-272]	; 0xfffffef0
    31b4:	009b4003 	addseq	r4, fp, r3
    31b8:	51011000 	mrspl	r1, (UNDEF: 1)
    31bc:	9da00305 	stcls	3, cr0, [r0, #20]!
    31c0:	01100000 	tsteq	r0, r0
    31c4:	88030552 	stmdahi	r3, {r1, r4, r6, r8, sl}
    31c8:	1000009f 	mulne	r0, pc, r0	; <UNPREDICTABLE>
    31cc:	41015301 	tstmi	r1, r1, lsl #6
    31d0:	007d0210 	rsbseq	r0, sp, r0, lsl r2
    31d4:	9eb40305 	cdpls	3, 11, cr0, cr4, cr5, {0}
    31d8:	11000000 	mrsne	r0, (UNDEF: 0)
    31dc:	000097ac 	andeq	r9, r0, ip, lsr #15
    31e0:	000008c8 	andeq	r0, r0, r8, asr #17
    31e4:	70190000 	andsvc	r0, r9, r0
    31e8:	28000008 	stmdacs	r0, {r3}
    31ec:	03000097 	movweq	r0, #151	; 0x97
    31f0:	00009728 	andeq	r9, r0, r8, lsr #14
    31f4:	00000004 	andeq	r0, r0, r4
    31f8:	3e056801 	cdpcc	8, 0, cr6, cr5, cr1, {0}
    31fc:	1a000003 	bne	3210 <__code_start__-0x4df0>
    3200:	0000088b 	andeq	r0, r0, fp, lsl #17
    3204:	0000235b 	andeq	r2, r0, fp, asr r3
    3208:	00002359 	andeq	r2, r0, r9, asr r3
    320c:	0008811a 	andeq	r8, r8, sl, lsl r1
    3210:	00237000 	eoreq	r7, r3, r0
    3214:	00236e00 	eoreq	r6, r3, r0, lsl #28
    3218:	400f0000 	andmi	r0, pc, r0
    321c:	41000097 	swpmi	r0, r7, [r0]	; <UNPREDICTABLE>
    3220:	53000004 	movwpl	r0, #4
    3224:	10000003 	andne	r0, r0, r3
    3228:	f3035001 	vhadd.u8	d5, d3, d1
    322c:	0f005001 	svceq	0x00005001
    3230:	00009764 	andeq	r9, r0, r4, ror #14
    3234:	000008bc 			; <UNDEFINED> instruction: 0x000008bc
    3238:	0000038c 	andeq	r0, r0, ip, lsl #7
    323c:	05500110 	ldrbeq	r0, [r0, #-272]	; 0xfffffef0
    3240:	009b4003 	addseq	r4, fp, r3
    3244:	51011000 	mrspl	r1, (UNDEF: 1)
    3248:	9da00305 	stcls	3, cr0, [r0, #20]!
    324c:	01100000 	tsteq	r0, r0
    3250:	78030552 	stmdavc	r3, {r1, r4, r6, r8, sl}
    3254:	1000009f 	mulne	r0, pc, r0	; <UNPREDICTABLE>
    3258:	08025301 	stmdaeq	r2, {r0, r8, r9, ip, lr}
    325c:	7d02105f 	stcvc	0, cr1, [r2, #-380]	; 0xfffffe84
    3260:	b0030500 	andlt	r0, r3, r0, lsl #10
    3264:	0000009d 	muleq	r0, sp, r0
    3268:	00976811 	addseq	r6, r7, r1, lsl r8
    326c:	0008c800 	andeq	ip, r8, r0, lsl #16
    3270:	976c1100 	strbls	r1, [ip, -r0, lsl #2]!
    3274:	08d40000 	ldmeq	r4, {}^	; <UNPREDICTABLE>
    3278:	880f0000 	stmdahi	pc, {}	; <UNPREDICTABLE>
    327c:	bc000097 	stclt	0, cr0, [r0], {151}	; 0x97
    3280:	d7000008 	strle	r0, [r0, -r8]
    3284:	10000003 	andne	r0, r0, r3
    3288:	03055001 	movweq	r5, #20481	; 0x5001
    328c:	00009e6c 	andeq	r9, r0, ip, ror #28
    3290:	05510110 	ldrbeq	r0, [r1, #-272]	; 0xfffffef0
    3294:	009da003 	addseq	sl, sp, r3
    3298:	52011000 	andpl	r1, r1, #0, 0
    329c:	9f780305 	svcls	0x00780305
    32a0:	01100000 	tsteq	r0, r0
    32a4:	60080253 	andvs	r0, r8, r3, asr r2
    32a8:	007d0210 	rsbseq	r0, sp, r0, lsl r2
    32ac:	9ea00305 	cdpls	3, 10, cr0, cr0, cr5, {0}
    32b0:	11000000 	mrsne	r0, (UNDEF: 0)
    32b4:	0000978c 	andeq	r9, r0, ip, lsl #15
    32b8:	000008c8 	andeq	r0, r0, r8, asr #17
    32bc:	0097b011 	addseq	fp, r7, r1, lsl r0
    32c0:	0008d400 	andeq	sp, r8, r0, lsl #8
    32c4:	97cc0f00 	strbls	r0, [ip, r0, lsl #30]
    32c8:	08bc0000 	ldmeq	ip!, {}	; <UNPREDICTABLE>
    32cc:	04220000 	strteq	r0, [r2], #-0
    32d0:	01100000 	tsteq	r0, r0
    32d4:	c0030550 	andgt	r0, r3, r0, asr r5
    32d8:	1000009e 	mulne	r0, lr, r0
    32dc:	03055101 	movweq	r5, #20737	; 0x5101
    32e0:	00009da0 	andeq	r9, r0, r0, lsr #27
    32e4:	05520110 	ldrbeq	r0, [r2, #-272]	; 0xfffffef0
    32e8:	009f7803 	addseq	r7, pc, r3, lsl #16
    32ec:	53011000 	movwpl	r1, #4096	; 0x1000
    32f0:	10680802 	rsbne	r0, r8, r2, lsl #16
    32f4:	05007d02 	streq	r7, [r0, #-3330]	; 0xfffff2fe
    32f8:	009eec03 	addseq	lr, lr, r3, lsl #24
    32fc:	d0110000 	andsle	r0, r1, r0
    3300:	c8000097 	stmdagt	r0, {r0, r1, r2, r4, r7}
    3304:	00000008 	andeq	r0, r0, r8
    3308:	00007e12 	andeq	r7, r0, r2, lsl lr
    330c:	00043c00 	andeq	r3, r4, r0, lsl #24
    3310:	002c1300 	eoreq	r1, ip, r0, lsl #6
    3314:	000f0000 	andeq	r0, pc, r0
    3318:	00042c05 	andeq	r2, r4, r5, lsl #24
    331c:	02041600 	andeq	r1, r4, #0, 12
    3320:	53010000 	movwpl	r0, #4096	; 0x1000
    3324:	00008a07 	andeq	r8, r0, r7, lsl #20
    3328:	00968000 	addseq	r8, r6, r0
    332c:	00006400 	andeq	r6, r0, r0, lsl #8
    3330:	089c0100 	ldmeq	ip, {r8}
    3334:	17000005 	strne	r0, [r0, -r5]
    3338:	00000219 	andeq	r0, r0, r9, lsl r2
    333c:	2c185301 	ldccs	3, cr5, [r8], {1}
    3340:	8b000000 	blhi	3348 <__code_start__-0x4cb8>
    3344:	83000023 	movwhi	r0, #35	; 0x23
    3348:	0e000023 	cdpeq	0, 0, cr0, cr0, cr3, {1}
    334c:	00000058 	andeq	r0, r0, r8, asr r0
    3350:	00000518 	andeq	r0, r0, r8, lsl r5
    3354:	9f700305 	svcls	0x00700305
    3358:	fa1d0000 	blx	743360 <__bss_end__+0x738f98>
    335c:	01000008 	tsteq	r0, r8
    3360:	008a0b55 	addeq	r0, sl, r5, asr fp
    3364:	23c30000 	biccs	r0, r3, #0, 0
    3368:	23bf0000 			; <UNDEFINED> instruction: 0x23bf0000
    336c:	980f0000 	stmdals	pc, {}	; <UNPREDICTABLE>
    3370:	1d000096 	stcne	0, cr0, [r0, #-600]	; 0xfffffda8
    3374:	a6000005 	strge	r0, [r0], -r5
    3378:	10000004 	andne	r0, r0, r4
    337c:	74025001 	strvc	r5, [r2], #-1
    3380:	a80f0000 	stmdage	pc, {}	; <UNPREDICTABLE>
    3384:	e0000096 	mul	r0, r6, r0
    3388:	c5000008 	strgt	r0, [r0, #-8]
    338c:	10000004 	andne	r0, r0, r4
    3390:	75025001 	strvc	r5, [r2, #-1]
    3394:	51011000 	mrspl	r1, (UNDEF: 1)
    3398:	01103001 	tsteq	r0, r1
    339c:	00740252 	rsbseq	r0, r4, r2, asr r2
    33a0:	96d00f00 	ldrbls	r0, [r0], r0, lsl #30
    33a4:	08bc0000 	ldmeq	ip!, {}	; <UNPREDICTABLE>
    33a8:	04fe0000 	ldrbteq	r0, [lr], #0
    33ac:	01100000 	tsteq	r0, r0
    33b0:	40030550 	andmi	r0, r3, r0, asr r5
    33b4:	1000009b 	mulne	r0, fp, r0
    33b8:	03055101 	movweq	r5, #20737	; 0x5101
    33bc:	00009da0 	andeq	r9, r0, r0, lsr #27
    33c0:	05520110 	ldrbeq	r0, [r2, #-272]	; 0xfffffef0
    33c4:	009f7003 	addseq	r7, pc, r3
    33c8:	53011000 	movwpl	r1, #4096	; 0x1000
    33cc:	10540802 	subsne	r0, r4, r2, lsl #16
    33d0:	05007d02 	streq	r7, [r0, #-3330]	; 0xfffff2fe
    33d4:	009db003 	addseq	fp, sp, r3
    33d8:	d4110000 	ldrle	r0, [r1], #-0
    33dc:	c8000096 	stmdagt	r0, {r1, r2, r4, r7}
    33e0:	00000008 	andeq	r0, r0, r8
    33e4:	00007e12 	andeq	r7, r0, r2, lsl lr
    33e8:	00051800 	andeq	r1, r5, r0, lsl #16
    33ec:	002c1300 	eoreq	r1, ip, r0, lsl #6
    33f0:	00070000 	andeq	r0, r7, r0
    33f4:	00050805 	andeq	r0, r5, r5, lsl #16
    33f8:	09591600 	ldmdbeq	r9, {r9, sl, ip}^
    33fc:	47010000 	strmi	r0, [r1, -r0]
    3400:	00008a07 	andeq	r8, r0, r7, lsl #20
    3404:	0095e800 	addseq	lr, r5, r0, lsl #16
    3408:	00009800 	andeq	r9, r0, r0, lsl #16
    340c:	2b9c0100 	blcs	fe703814 <__bss_end__+0xfe6f944c>
    3410:	17000006 	strne	r0, [r0, -r6]
    3414:	00000219 	andeq	r0, r0, r9, lsl r2
    3418:	2c204701 	stccs	7, cr4, [r0], #-4
    341c:	f1000000 	cps	#0
    3420:	e1000023 	tst	r0, r3, lsr #32
    3424:	0e000023 	cdpeq	0, 0, cr0, cr0, cr3, {1}
    3428:	00000058 	andeq	r0, r0, r8, asr r0
    342c:	0000043c 	andeq	r0, r0, ip, lsr r4
    3430:	9f600305 	svcls	0x00600305
    3434:	fa1d0000 	blx	74343c <__bss_end__+0x739074>
    3438:	01000008 	tsteq	r0, r8
    343c:	008a0b4b 	addeq	r0, sl, fp, asr #22
    3440:	24630000 	strbtcs	r0, [r3], #-0
    3444:	245f0000 	ldrbcs	r0, [pc], #-0	; 344c <__code_start__-0x4bb4>
    3448:	1f1b0000 	svcne	0x001b0000
    344c:	f8000008 			; <UNDEFINED> instruction: 0xf8000008
    3450:	03000095 	movweq	r0, #149	; 0x95
    3454:	00000320 	andeq	r0, r0, r0, lsr #6
    3458:	a30e4901 	movwge	r4, #59649	; 0xe901
    345c:	1a000005 	bne	3478 <__code_start__-0x4b88>
    3460:	0000083a 	andeq	r0, r0, sl, lsr r8
    3464:	00002483 	andeq	r2, r0, r3, lsl #9
    3468:	00002481 	andeq	r2, r0, r1, lsl #9
    346c:	0008301a 	andeq	r3, r8, sl, lsl r0
    3470:	00249b00 	eoreq	r9, r4, r0, lsl #22
    3474:	00249700 	eoreq	r9, r4, r0, lsl #14
    3478:	03201e00 	nopeq	{0}	; <UNPREDICTABLE>
    347c:	0f000000 	svceq	0x00000000
    3480:	00009640 	andeq	r9, r0, r0, asr #12
    3484:	000008bc 			; <UNDEFINED> instruction: 0x000008bc
    3488:	000005dc 	ldrdeq	r0, [r0], -ip
    348c:	05500110 	ldrbeq	r0, [r0, #-272]	; 0xfffffef0
    3490:	009b4003 	addseq	r4, fp, r3
    3494:	51011000 	mrspl	r1, (UNDEF: 1)
    3498:	9da00305 	stcls	3, cr0, [r0, #20]!
    349c:	01100000 	tsteq	r0, r0
    34a0:	60030552 	andvs	r0, r3, r2, asr r5
    34a4:	1000009f 	mulne	r0, pc, r0	; <UNPREDICTABLE>
    34a8:	08025301 	stmdaeq	r2, {r0, r8, r9, ip, lr}
    34ac:	7d021048 	stcvc	0, cr1, [r2, #-288]	; 0xfffffee0
    34b0:	b0030500 	andlt	r0, r3, r0, lsl #10
    34b4:	0000009d 	muleq	r0, sp, r0
    34b8:	00964411 	addseq	r4, r6, r1, lsl r4
    34bc:	0008c800 	andeq	ip, r8, r0, lsl #16
    34c0:	96640f00 	strbtls	r0, [r4], -r0, lsl #30
    34c4:	08bc0000 	ldmeq	ip!, {}	; <UNPREDICTABLE>
    34c8:	06210000 	strteq	r0, [r1], -r0
    34cc:	01100000 	tsteq	r0, r0
    34d0:	2c030550 	cfstr32cs	mvfx0, [r3], {80}	; 0x50
    34d4:	1000009e 	mulne	r0, lr, r0
    34d8:	03055101 	movweq	r5, #20737	; 0x5101
    34dc:	00009da0 	andeq	r9, r0, r0, lsr #27
    34e0:	05520110 	ldrbeq	r0, [r2, #-272]	; 0xfffffef0
    34e4:	009f6003 	addseq	r6, pc, r3
    34e8:	53011000 	movwpl	r1, #4096	; 0x1000
    34ec:	104e0802 	subne	r0, lr, r2, lsl #16
    34f0:	08007d02 	stmdaeq	r0, {r1, r8, sl, fp, ip, sp, lr}
    34f4:	235001f3 	cmpcs	r0, #-1073741764	; 0xc000003c
    34f8:	1af80907 	bne	ffe0591c <__bss_end__+0xffdfb554>
    34fc:	96681100 	strbtls	r1, [r8], -r0, lsl #2
    3500:	08c80000 	stmiaeq	r8, {}^	; <UNPREDICTABLE>
    3504:	0c000000 	stceq	0, cr0, [r0], {-0}
    3508:	0000097b 	andeq	r0, r0, fp, ror r9
    350c:	90063c01 	andls	r3, r6, r1, lsl #24
    3510:	58000095 	stmdapl	r0, {r0, r2, r4, r7}
    3514:	01000000 	mrseq	r0, (UNDEF: 0)
    3518:	0006cf9c 	muleq	r6, ip, pc	; <UNPREDICTABLE>
    351c:	091f0a00 	ldmdbeq	pc, {r9, fp}	; <UNPREDICTABLE>
    3520:	3d010000 	stccc	0, cr0, [r1, #-0]
    3524:	00002510 	andeq	r2, r0, r0, lsl r5
    3528:	c4030500 	strgt	r0, [r3], #-1280	; 0xfffffb00
    352c:	0e0000a3 	cdpeq	0, 0, cr0, cr0, cr3, {5}
    3530:	00000058 	andeq	r0, r0, r8, asr r0
    3534:	000006df 	ldrdeq	r0, [r0], -pc	; <UNPREDICTABLE>
    3538:	9f500305 	svcls	0x00500305
    353c:	07070000 	streq	r0, [r7, -r0]
    3540:	00002c04 	andeq	r2, r0, r4, lsl #24
    3544:	0a420100 	beq	108394c <__bss_end__+0x1079584>
    3548:	0000067a 	andeq	r0, r0, sl, ror r6
    354c:	00094208 	andeq	r4, r9, r8, lsl #4
    3550:	10000000 	andne	r0, r0, r0
    3554:	bc0f0000 	stclt	0, cr0, [pc], {-0}
    3558:	e4000095 	str	r0, [r0], #-149	; 0xffffff6b
    355c:	96000006 	strls	r0, [r0], -r6
    3560:	10000006 	andne	r0, r0, r6
    3564:	40035001 	andmi	r5, r3, r1
    3568:	01102440 	tsteq	r0, r0, asr #8
    356c:	48400351 	stmdami	r0, {r0, r4, r6, r8, r9}^
    3570:	d40f0024 	strle	r0, [pc], #-36	; 3578 <__code_start__-0x4a88>
    3574:	bc000095 	stclt	0, cr0, [r0], {149}	; 0x95
    3578:	c5000008 	strgt	r0, [r0, #-8]
    357c:	10000006 	andne	r0, r0, r6
    3580:	03055001 	movweq	r5, #20481	; 0x5001
    3584:	00009dfc 	strdeq	r9, [r0], -ip
    3588:	05510110 	ldrbeq	r0, [r1, #-272]	; 0xfffffef0
    358c:	009da003 	addseq	sl, sp, r3
    3590:	52011000 	andpl	r1, r1, #0, 0
    3594:	9f500305 	svcls	0x00500305
    3598:	01100000 	tsteq	r0, r0
    359c:	40080253 	andmi	r0, r8, r3, asr r2
    35a0:	95d81100 	ldrbls	r1, [r8, #256]	; 0x100
    35a4:	08c80000 	stmiaeq	r8, {}^	; <UNPREDICTABLE>
    35a8:	12000000 	andne	r0, r0, #0, 0
    35ac:	0000007e 	andeq	r0, r0, lr, ror r0
    35b0:	000006df 	ldrdeq	r0, [r0], -pc	; <UNPREDICTABLE>
    35b4:	00002c13 	andeq	r2, r0, r3, lsl ip
    35b8:	05000c00 	streq	r0, [r0, #-3072]	; 0xfffff400
    35bc:	000006cf 	andeq	r0, r0, pc, asr #13
    35c0:	0009a40c 	andeq	sl, r9, ip, lsl #8
    35c4:	062d0100 	strteq	r0, [sp], -r0, lsl #2
    35c8:	000094f4 	strdeq	r9, [r0], -r4
    35cc:	0000009c 	muleq	r0, ip, r0
    35d0:	07c89c01 	strbeq	r9, [r8, r1, lsl #24]
    35d4:	f9170000 			; <UNDEFINED> instruction: 0xf9170000
    35d8:	01000008 	tsteq	r0, r8
    35dc:	002c262d 	eoreq	r2, ip, sp, lsr #12
    35e0:	24c90000 	strbcs	r0, [r9], #0
    35e4:	24bb0000 	ldrtcs	r0, [fp], #0
    35e8:	ee170000 	cdp	0, 1, cr0, cr7, cr0, {0}
    35ec:	01000008 	tsteq	r0, r8
    35f0:	002c362d 	eoreq	r3, ip, sp, lsr #12
    35f4:	25310000 	ldrcs	r0, [r1, #-0]!
    35f8:	25290000 	strcs	r0, [r9, #-0]!
    35fc:	fa1d0000 	blx	743604 <__bss_end__+0x73923c>
    3600:	01000008 	tsteq	r0, r8
    3604:	00c20b2e 	sbceq	r0, r2, lr, lsr #22
    3608:	25790000 	ldrbcs	r0, [r9, #-0]!
    360c:	256b0000 	strbcs	r0, [fp, #-0]!
    3610:	580e0000 	stmdapl	lr, {}	; <UNPREDICTABLE>
    3614:	d8000000 	stmdale	r0, {}	; <UNPREDICTABLE>
    3618:	05000007 	streq	r0, [r0, #-7]
    361c:	009f3803 	addseq	r3, pc, r3, lsl #16
    3620:	954c0f00 	strbls	r0, [ip, #-3840]	; 0xfffff100
    3624:	08bc0000 	ldmeq	ip!, {}	; <UNPREDICTABLE>
    3628:	077e0000 	ldrbeq	r0, [lr, -r0]!
    362c:	01100000 	tsteq	r0, r0
    3630:	40030550 	andmi	r0, r3, r0, asr r5
    3634:	1000009b 	mulne	r0, fp, r0
    3638:	03055101 	movweq	r5, #20737	; 0x5101
    363c:	00009da0 	andeq	r9, r0, r0, lsr #27
    3640:	05520110 	ldrbeq	r0, [r2, #-272]	; 0xfffffef0
    3644:	009f3803 	addseq	r3, pc, r3, lsl #16
    3648:	53011000 	movwpl	r1, #4096	; 0x1000
    364c:	10300802 	eorsne	r0, r0, r2, lsl #16
    3650:	05007d02 	streq	r7, [r0, #-3330]	; 0xfffff2fe
    3654:	009dac03 	addseq	sl, sp, r3, lsl #24
    3658:	50110000 	andspl	r0, r1, r0
    365c:	c8000095 	stmdagt	r0, {r0, r2, r4, r7}
    3660:	0f000008 	svceq	0x00000008
    3664:	00009574 	andeq	r9, r0, r4, ror r5
    3668:	000008bc 			; <UNDEFINED> instruction: 0x000008bc
    366c:	000007be 			; <UNDEFINED> instruction: 0x000007be
    3670:	05500110 	ldrbeq	r0, [r0, #-272]	; 0xfffffef0
    3674:	009db803 	addseq	fp, sp, r3, lsl #16
    3678:	51011000 	mrspl	r1, (UNDEF: 1)
    367c:	9da00305 	stcls	3, cr0, [r0, #20]!
    3680:	01100000 	tsteq	r0, r0
    3684:	38030552 	stmdacc	r3, {r1, r4, r6, r8, sl}
    3688:	1000009f 	mulne	r0, pc, r0	; <UNPREDICTABLE>
    368c:	08025301 	stmdaeq	r2, {r0, r8, r9, ip, lr}
    3690:	7d021034 	stcvc	0, cr1, [r2, #-208]	; 0xffffff30
    3694:	01f30300 	mvnseq	r0, r0, lsl #6
    3698:	78110050 	ldmdavc	r1, {r4, r6}
    369c:	c8000095 	stmdagt	r0, {r0, r2, r4, r7}
    36a0:	00000008 	andeq	r0, r0, r8
    36a4:	00007e12 	andeq	r7, r0, r2, lsl lr
    36a8:	0007d800 	andeq	sp, r7, r0, lsl #16
    36ac:	002c1300 	eoreq	r1, ip, r0, lsl #6
    36b0:	00160000 	andseq	r0, r6, r0
    36b4:	0007c805 	andeq	ip, r7, r5, lsl #16
    36b8:	09931f00 	ldmibeq	r3, {r8, r9, sl, fp, ip}
    36bc:	2a010000 	bcs	436c4 <__bss_end__+0x392fc>
    36c0:	00008a07 	andeq	r8, r0, r7, lsl #20
    36c4:	0094e400 	addseq	lr, r4, r0, lsl #8
    36c8:	00001000 	andeq	r1, r0, r0
    36cc:	1f9c0100 	svcne	0x009c0100
    36d0:	000008db 	ldrdeq	r0, [r0], -fp
    36d4:	8a072901 	bhi	1cdae0 <__bss_end__+0x1c3718>
    36d8:	d4000000 	strle	r0, [r0], #-0
    36dc:	10000094 	mulne	r0, r4, r0
    36e0:	01000000 	mrseq	r0, (UNDEF: 0)
    36e4:	09481f9c 	stmdbeq	r8, {r2, r3, r4, r7, r8, r9, sl, fp, ip}^
    36e8:	28010000 	stmdacs	r1, {}	; <UNPREDICTABLE>
    36ec:	00008a07 	andeq	r8, r0, r7, lsl #20
    36f0:	0094c400 	addseq	ip, r4, r0, lsl #8
    36f4:	00001000 	andeq	r1, r0, r0
    36f8:	209c0100 	addscs	r0, ip, r0, lsl #2
    36fc:	00000912 	andeq	r0, r0, r2, lsl r9
    3700:	2c181001 	ldccs	0, cr1, [r8], {1}
    3704:	03000000 	movweq	r0, #0
    3708:	00000854 	andeq	r0, r0, r4, asr r8
    370c:	01007821 	tsteq	r0, r1, lsr #16
    3710:	002c2910 	eoreq	r2, ip, r0, lsl r9
    3714:	6e210000 	cdpvs	0, 2, cr0, cr1, cr0, {0}
    3718:	35100100 	ldrcc	r0, [r0, #-256]	; 0xffffff00
    371c:	0000002c 	andeq	r0, r0, ip, lsr #32
    3720:	0000580e 	andeq	r5, r0, lr, lsl #16
    3724:	00051800 	andeq	r1, r5, r0, lsl #16
    3728:	88030500 	stmdahi	r3, {r8, sl}
    372c:	0000009f 	muleq	r0, pc, r0	; <UNPREDICTABLE>
    3730:	00096920 	andeq	r6, r9, r0, lsr #18
    3734:	180d0100 	stmdane	sp, {r8}
    3738:	0000002c 	andeq	r0, r0, ip, lsr #32
    373c:	00087003 	andeq	r7, r8, r3
    3740:	00782100 	rsbseq	r2, r8, r0, lsl #2
    3744:	2c290d01 	stccs	13, cr0, [r9], #-4
    3748:	00000000 	andeq	r0, r0, r0
    374c:	00098820 	andeq	r8, r9, r0, lsr #16
    3750:	18070100 	stmdane	r7, {r8}
    3754:	0000002c 	andeq	r0, r0, ip, lsr #32
    3758:	00089603 	andeq	r9, r8, r3, lsl #12
    375c:	00782100 	rsbseq	r2, r8, r0, lsl #2
    3760:	2c2c0701 	stccs	7, cr0, [ip], #-4
    3764:	21000000 	mrscs	r0, (UNDEF: 0)
    3768:	0701006e 	streq	r0, [r1, -lr, rrx]
    376c:	00002c38 	andeq	r2, r0, r8, lsr ip
    3770:	3a200000 	bcc	803778 <__bss_end__+0x7f93b0>
    3774:	01000009 	tsteq	r0, r9
    3778:	005d1804 	subseq	r1, sp, r4, lsl #16
    377c:	bc030000 	stclt	0, cr0, [r3], {-0}
    3780:	21000008 	tstcs	r0, r8
    3784:	04010078 	streq	r0, [r1], #-120	; 0xffffff88
    3788:	00005d29 	andeq	r5, r0, r9, lsr #26
    378c:	00792100 	rsbseq	r2, r9, r0, lsl #2
    3790:	5d350401 	cfldrspl	mvf0, [r5, #-4]!
    3794:	00000000 	andeq	r0, r0, r0
    3798:	00040722 	andeq	r0, r4, r2, lsr #14
    379c:	00040700 	andeq	r0, r4, r0, lsl #14
    37a0:	06280200 	strteq	r0, [r8], -r0, lsl #4
    37a4:	00027022 	andeq	r7, r2, r2, lsr #32
    37a8:	00027000 	andeq	r7, r2, r0
    37ac:	066e0200 	strbteq	r0, [lr], -r0, lsl #4
    37b0:	0009bb22 	andeq	fp, r9, r2, lsr #22
    37b4:	0009bb00 	andeq	fp, r9, r0, lsl #22
    37b8:	061d0200 	ldreq	r0, [sp], -r0, lsl #4
    37bc:	00028422 	andeq	r8, r2, r2, lsr #8
    37c0:	00028400 	andeq	r8, r2, r0, lsl #8
    37c4:	07f20200 	ldrbeq	r0, [r2, r0, lsl #4]!
    37c8:	00067300 	andeq	r7, r6, r0, lsl #6
    37cc:	d9000400 	stmdble	r0, {sl}
    37d0:	04000014 	streq	r0, [r0], #-20	; 0xffffffec
    37d4:	00032501 	andeq	r2, r3, r1, lsl #10
    37d8:	0a0d0c00 	beq	3467e0 <__bss_end__+0x33c418>
    37dc:	03dd0000 	bicseq	r0, sp, #0, 0
    37e0:	98740000 	ldmdals	r4!, {}^	; <UNPREDICTABLE>
    37e4:	01980000 	orrseq	r0, r8, r0
    37e8:	1d200000 	stcne	0, cr0, [r0, #-0]
    37ec:	08020000 	stmdaeq	r2, {}	; <UNPREDICTABLE>
    37f0:	00006507 	andeq	r6, r0, r7, lsl #10
    37f4:	07040200 	streq	r0, [r4, -r0, lsl #4]
    37f8:	0000006f 	andeq	r0, r0, pc, rrx
    37fc:	69050403 	stmdbvs	r5, {r0, r1, sl}
    3800:	0400746e 	streq	r7, [r0], #-1134	; 0xfffffb92
    3804:	0000002c 	andeq	r0, r0, ip, lsr #32
    3808:	1d060102 	stfnes	f0, [r6, #-8]
    380c:	02000000 	andeq	r0, r0, #0, 0
    3810:	00cd0502 	sbceq	r0, sp, r2, lsl #10
    3814:	04020000 	streq	r0, [r2], #-0
    3818:	00008105 	andeq	r8, r0, r5, lsl #2
    381c:	05080200 	streq	r0, [r8, #-512]	; 0xfffffe00
    3820:	0000007c 	andeq	r0, r0, ip, ror r0
    3824:	1b080102 	blne	203c34 <__bss_end__+0x1f986c>
    3828:	02000000 	andeq	r0, r0, #0, 0
    382c:	00350702 	eorseq	r0, r5, r2, lsl #14
    3830:	dd050000 	stcle	0, cr0, [r5, #-0]
    3834:	03000002 	movweq	r0, #2
    3838:	00751934 	rsbseq	r1, r5, r4, lsr r9
    383c:	04020000 	streq	r0, [r2], #-0
    3840:	00006a07 	andeq	r6, r0, r7, lsl #20
    3844:	00330600 	eorseq	r0, r3, r0, lsl #12
    3848:	008b0000 	addeq	r0, fp, r0
    384c:	33070000 	movwcc	r0, #28672	; 0x7000
    3850:	00000000 	andeq	r0, r0, r0
    3854:	00008a08 	andeq	r8, r0, r8, lsl #20
    3858:	0e1c0200 	cdpeq	2, 1, cr0, cr12, cr0, {0}
    385c:	00000097 	muleq	r0, r7, r0
    3860:	007c0409 	rsbseq	r0, ip, r9, lsl #8
    3864:	33060000 	movwcc	r0, #24576	; 0x6000
    3868:	ac000000 	stcge	0, cr0, [r0], {-0}
    386c:	07000000 	streq	r0, [r0, -r0]
    3870:	000000ac 	andeq	r0, r0, ip, lsr #1
    3874:	b9040900 	stmdblt	r4, {r8, fp}
    3878:	02000000 	andeq	r0, r0, #0, 0
    387c:	00240801 	eoreq	r0, r4, r1, lsl #16
    3880:	b2040000 	andlt	r0, r4, #0, 0
    3884:	08000000 	stmdaeq	r0, {}	; <UNPREDICTABLE>
    3888:	00000445 	andeq	r0, r0, r5, asr #8
    388c:	ca0e2102 	bgt	38bc9c <__bss_end__+0x3818d4>
    3890:	09000000 	stmdbeq	r0, {}	; <UNPREDICTABLE>
    3894:	00009d04 	andeq	r9, r0, r4, lsl #26
    3898:	01070a00 	tsteq	r7, r0, lsl #20
    389c:	0000005b 	andeq	r0, r0, fp, asr r0
    38a0:	0f0e0c04 	svceq	0x000e0c04
    38a4:	0b000001 	bleq	38b0 <__code_start__-0x4750>
    38a8:	000008b3 			; <UNDEFINED> instruction: 0x000008b3
    38ac:	06eb0b00 	strbteq	r0, [fp], r0, lsl #22
    38b0:	0b010000 	bleq	438b8 <__bss_end__+0x394f0>
    38b4:	0000072e 	andeq	r0, r0, lr, lsr #14
    38b8:	073d0b04 	ldreq	r0, [sp, -r4, lsl #22]!
    38bc:	0b050000 	bleq	1438c4 <__bss_end__+0x1394fc>
    38c0:	0000074c 	andeq	r0, r0, ip, asr #14
    38c4:	075b0b06 	ldrbeq	r0, [fp, -r6, lsl #22]
    38c8:	0b070000 	bleq	1c38d0 <__bss_end__+0x1b9508>
    38cc:	0000087c 	andeq	r0, r0, ip, ror r8
    38d0:	076a0b03 	strbeq	r0, [sl, -r3, lsl #22]!
    38d4:	00020000 	andeq	r0, r2, r0
    38d8:	000a4605 	andeq	r4, sl, r5, lsl #12
    38dc:	03150400 	tsteq	r5, #0, 8
    38e0:	000000d0 	ldrdeq	r0, [r0], -r0	; <UNPREDICTABLE>
    38e4:	0009e40c 	andeq	lr, r9, ip, lsl #8
    38e8:	171d0100 	ldrne	r0, [sp, -r0, lsl #2]
    38ec:	0000003a 	andeq	r0, r0, sl, lsr r0
    38f0:	2020001c 	eorcs	r0, r0, ip, lsl r0
    38f4:	0009da0c 	andeq	sp, r9, ip, lsl #20
    38f8:	171e0100 	ldrne	r0, [lr, -r0, lsl #2]
    38fc:	0000003a 	andeq	r0, r0, sl, lsr r0
    3900:	20200028 	eorcs	r0, r0, r8, lsr #32
    3904:	000a520c 	andeq	r5, sl, ip, lsl #4
    3908:	171f0100 	ldrne	r0, [pc, -r0, lsl #2]
    390c:	0000003a 	andeq	r0, r0, sl, lsr r0
    3910:	20200034 	eorcs	r0, r0, r4, lsr r0
    3914:	000a030d 	andeq	r0, sl, sp, lsl #6
    3918:	05510100 	ldrbeq	r0, [r1, #-256]	; 0xffffff00
    391c:	00000033 	andeq	r0, r0, r3, lsr r0
    3920:	000099e4 	andeq	r9, r0, r4, ror #19
    3924:	00000028 	andeq	r0, r0, r8, lsr #32
    3928:	01ba9c01 			; <UNDEFINED> instruction: 0x01ba9c01
    392c:	700e0000 	andvc	r0, lr, r0
    3930:	01006e69 	tsteq	r0, r9, ror #28
    3934:	002c1851 	eoreq	r1, ip, r1, asr r8
    3938:	25df0000 	ldrbcs	r0, [pc]	; 3940 <__code_start__-0x46c0>
    393c:	25d90000 	ldrbcs	r0, [r9]
    3940:	5c0f0000 	stcpl	0, cr0, [pc], {-0}
    3944:	0100000a 	tsteq	r0, sl
    3948:	002c0e52 	eoreq	r0, ip, r2, asr lr
    394c:	26150000 	ldrcs	r0, [r5], -r0
    3950:	260b0000 	strcs	r0, [fp], -r0
    3954:	6f100000 	svcvs	0x00100000
    3958:	01006666 	tsteq	r0, r6, ror #12
    395c:	002c0e53 	eoreq	r0, ip, r3, asr lr
    3960:	26830000 	strcs	r0, [r3], r0
    3964:	267d0000 	ldrbtcs	r0, [sp], -r0
    3968:	f8110000 			; <UNDEFINED> instruction: 0xf8110000
    396c:	5e000099 	mcrpl	0, 0, r0, cr0, cr9, {4}
    3970:	12000006 	andne	r0, r0, #6, 0
    3974:	740a5001 	strvc	r5, [sl], #-1
    3978:	23253500 			; <UNDEFINED> instruction: 0x23253500
    397c:	818080b4 	strhhi	r8, [r0, r4]
    3980:	13000002 	movwne	r0, #2
    3984:	000009ee 	andeq	r0, r0, lr, ror #19
    3988:	b4064a01 	strlt	r4, [r6], #-2561	; 0xfffff5ff
    398c:	30000099 	mulcc	r0, r9, r0
    3990:	01000000 	mrseq	r0, (UNDEF: 0)
    3994:	0002759c 	muleq	r2, ip, r5
    3998:	69700e00 	ldmdbvs	r0!, {r9, sl, fp}^
    399c:	4a01006e 	bmi	43b5c <__bss_end__+0x39794>
    39a0:	00002c1a 	andeq	r2, r0, sl, lsl ip
    39a4:	0026c000 	eoreq	ip, r6, r0
    39a8:	0026b400 	eoreq	fp, r6, r0, lsl #8
    39ac:	00760e00 	rsbseq	r0, r6, r0, lsl #28
    39b0:	2c284a01 			; <UNDEFINED> instruction: 0x2c284a01
    39b4:	14000000 	strne	r0, [r0], #-0
    39b8:	10000027 	andne	r0, r0, r7, lsr #32
    39bc:	14000027 	strne	r0, [r0], #-39	; 0xffffffd9
    39c0:	0000038d 	andeq	r0, r0, sp, lsl #7
    39c4:	000099c4 	andeq	r9, r0, r4, asr #19
    39c8:	0003f001 	andeq	pc, r3, r1
    39cc:	094c0100 	stmdbeq	ip, {r8}^
    39d0:	00000235 	andeq	r0, r0, r5, lsr r2
    39d4:	00039a15 	andeq	r9, r3, r5, lsl sl
    39d8:	00273b00 	eoreq	r3, r7, r0, lsl #22
    39dc:	00273500 	eoreq	r3, r7, r0, lsl #10
    39e0:	99d01600 	ldmibls	r0, {r9, sl, ip}^
    39e4:	066a0000 	strbteq	r0, [sl], -r0
    39e8:	01120000 	tsteq	r2, r0
    39ec:	1c0c0550 	cfstr32ne	mvfx0, [ip], {80}	; 0x50
    39f0:	12202000 	eorne	r2, r0, #0, 0
    39f4:	31055101 	tstcc	r5, r1, lsl #2
    39f8:	245001f3 	ldrbcs	r0, [r0], #-499	; 0xfffffe0d
    39fc:	73170000 	tstvc	r7, #0, 0
    3a00:	d0000003 	andle	r0, r0, r3
    3a04:	02000099 	andeq	r0, r0, #153, 0	; 0x99
    3a08:	000099d0 	ldrdeq	r9, [r0], -r0
    3a0c:	00000014 	andeq	r0, r0, r4, lsl r0
    3a10:	15094e01 	strne	r4, [r9, #-3585]	; 0xfffff1ff
    3a14:	00000380 	andeq	r0, r0, r0, lsl #7
    3a18:	0000276d 	andeq	r2, r0, sp, ror #14
    3a1c:	00002767 	andeq	r2, r0, r7, ror #14
    3a20:	0099dc16 	addseq	sp, r9, r6, lsl ip
    3a24:	00066a00 	andeq	r6, r6, r0, lsl #20
    3a28:	50011200 	andpl	r1, r1, r0, lsl #4
    3a2c:	00280c05 	eoreq	r0, r8, r5, lsl #24
    3a30:	01122020 	tsteq	r2, r0, lsr #32
    3a34:	f3310551 	vqrshl.u64	q0, <illegal reg q0.5>, <illegal reg q0.5>
    3a38:	00245001 	eoreq	r5, r4, r1
    3a3c:	1a130000 	bne	4c3a44 <__bss_end__+0x4b967c>
    3a40:	0100000a 	tsteq	r0, sl
    3a44:	995c0645 	ldmdbls	ip, {r0, r2, r6, r9, sl}^
    3a48:	00580000 	subseq	r0, r8, r0
    3a4c:	9c010000 	stcls	0, cr0, [r1], {-0}
    3a50:	00000373 	andeq	r0, r0, r3, ror r3
    3a54:	6e69700e 	cdpvs	0, 6, cr7, cr9, cr14, {0}
    3a58:	1e450100 	dvfnes	f0, f5, f0
    3a5c:	0000002c 	andeq	r0, r0, ip, lsr #32
    3a60:	0000279f 	muleq	r0, pc, r7	; <UNPREDICTABLE>
    3a64:	00002799 	muleq	r0, r9, r7
    3a68:	0004a518 	andeq	sl, r4, r8, lsl r5
    3a6c:	00995c00 	addseq	r5, r9, r0, lsl #24
    3a70:	03b00200 	movseq	r0, #0, 4
    3a74:	46010000 	strmi	r0, [r1], -r0
    3a78:	04be1905 	ldrteq	r1, [lr], #2309	; 0x905
    3a7c:	15000000 	strne	r0, [r0, #-0]
    3a80:	000004b2 			; <UNDEFINED> instruction: 0x000004b2
    3a84:	000027d1 	ldrdeq	r2, [r0], -r1
    3a88:	000027cb 	andeq	r2, r0, fp, asr #15
    3a8c:	0003b01a 	andeq	fp, r3, sl, lsl r0
    3a90:	04ca1b00 	strbeq	r1, [sl], #2816	; 0xb00
    3a94:	d61b0000 	ldrle	r0, [fp], -r0
    3a98:	1b000004 	blne	3ab0 <__code_start__-0x4550>
    3a9c:	000004e0 	andeq	r0, r0, r0, ror #9
    3aa0:	0004a518 	andeq	sl, r4, r8, lsl r5
    3aa4:	00996400 	addseq	r6, r9, r0, lsl #8
    3aa8:	03d00000 	bicseq	r0, r0, #0, 0
    3aac:	28010000 	stmdacs	r1, {}	; <UNPREDICTABLE>
    3ab0:	04be1906 	ldrteq	r1, [lr], #2310	; 0x906
    3ab4:	15000000 	strne	r0, [r0, #-0]
    3ab8:	000004b2 			; <UNDEFINED> instruction: 0x000004b2
    3abc:	00002803 	andeq	r2, r0, r3, lsl #16
    3ac0:	000027fd 	strdeq	r2, [r0], -sp
    3ac4:	0003d01a 	andeq	sp, r3, sl, lsl r0
    3ac8:	04ca1c00 	strbeq	r1, [sl], #3072	; 0xc00
    3acc:	28350000 	ldmdacs	r5!, {}	; <UNPREDICTABLE>
    3ad0:	282f0000 	stmdacs	pc!, {}	; <UNPREDICTABLE>
    3ad4:	d61c0000 	ldrle	r0, [ip], -r0
    3ad8:	77000004 	strvc	r0, [r0, -r4]
    3adc:	71000028 	tstvc	r0, r8, lsr #32
    3ae0:	1c000028 	stcne	0, cr0, [r0], {40}	; 0x28
    3ae4:	000004e0 	andeq	r0, r0, r0, ror #9
    3ae8:	000028cd 	andeq	r2, r0, sp, asr #17
    3aec:	000028c5 	andeq	r2, r0, r5, asr #17
    3af0:	00998c1d 	addseq	r8, r9, sp, lsl ip
    3af4:	00065e00 	andeq	r5, r6, r0, lsl #28
    3af8:	00033b00 	andeq	r3, r3, r0, lsl #22
    3afc:	50011200 	andpl	r1, r1, r0, lsl #4
    3b00:	00007602 	andeq	r7, r0, r2, lsl #12
    3b04:	0099b016 	addseq	fp, r9, r6, lsl r0
    3b08:	00066a00 	andeq	r6, r6, r0, lsl #20
    3b0c:	50011200 	andpl	r1, r1, r0, lsl #4
    3b10:	5001f325 	andpl	pc, r1, r5, lsr #6
    3b14:	25f72cf7 	ldrbcs	r2, [r7, #3319]!	; 0xcf7
    3b18:	cd0825f4 	cfstr32gt	mvfx2, [r8, #-976]	; 0xfffffc30
    3b1c:	00cccccc 	sbceq	ip, ip, ip, asr #25
    3b20:	1e000000 	cdpne	0, 0, cr0, cr0, cr0, {0}
    3b24:	25f72008 	ldrbcs	r2, [r7, #8]!
    3b28:	f72cf725 			; <UNDEFINED> instruction: 0xf72cf725
    3b2c:	23253300 			; <UNDEFINED> instruction: 0x23253300
    3b30:	40a08080 	adcmi	r8, r0, r0, lsl #1
    3b34:	00002432 	andeq	r2, r0, r2, lsr r4
    3b38:	00000000 	andeq	r0, r0, r0
    3b3c:	000a291e 	andeq	r2, sl, lr, lsl r9
    3b40:	0d400100 	stfeqe	f0, [r0, #-0]
    3b44:	00038d03 	andeq	r8, r3, r3, lsl #26
    3b48:	69701f00 	ldmdbvs	r0!, {r8, r9, sl, fp, ip}^
    3b4c:	4001006e 	andmi	r0, r1, lr, rrx
    3b50:	00002c23 	andeq	r2, r0, r3, lsr #24
    3b54:	611e0000 	tstvs	lr, r0
    3b58:	0100000a 	tsteq	r0, sl
    3b5c:	a7030d3b 	smladxge	r3, fp, sp, r0
    3b60:	1f000003 	svcne	0x00000003
    3b64:	006e6970 	rsbeq	r6, lr, r0, ror r9
    3b68:	2c223b01 			; <UNDEFINED> instruction: 0x2c223b01
    3b6c:	00000000 	andeq	r0, r0, r0
    3b70:	000a3613 	andeq	r3, sl, r3, lsl r6
    3b74:	06360100 	ldrteq	r0, [r6], -r0, lsl #2
    3b78:	000098d4 	ldrdeq	r9, [r0], -r4
    3b7c:	00000058 	andeq	r0, r0, r8, asr r0
    3b80:	04a59c01 	strteq	r9, [r5], #3073	; 0xc01
    3b84:	700e0000 	andvc	r0, lr, r0
    3b88:	01006e69 	tsteq	r0, r9, ror #28
    3b8c:	002c1f36 	eoreq	r1, ip, r6, lsr pc
    3b90:	292b0000 	stmdbcs	fp!, {}	; <UNPREDICTABLE>
    3b94:	29270000 	stmdbcs	r7!, {}	; <UNPREDICTABLE>
    3b98:	a5180000 	ldrge	r0, [r8, #-0]
    3b9c:	d4000004 	strle	r0, [r0], #-4
    3ba0:	02000098 	andeq	r0, r0, #152, 0	; 0x98
    3ba4:	00000370 	andeq	r0, r0, r0, ror r3
    3ba8:	19053701 	stmdbne	r5, {r0, r8, r9, sl, ip, sp}
    3bac:	000004be 			; <UNDEFINED> instruction: 0x000004be
    3bb0:	04b21501 	ldrteq	r1, [r2], #1281	; 0x501
    3bb4:	29500000 	ldmdbcs	r0, {}^	; <UNPREDICTABLE>
    3bb8:	294c0000 	stmdbcs	ip, {}^	; <UNPREDICTABLE>
    3bbc:	701a0000 	andsvc	r0, sl, r0
    3bc0:	1b000003 	blne	3bd4 <__code_start__-0x442c>
    3bc4:	000004ca 	andeq	r0, r0, sl, asr #9
    3bc8:	0004d61b 	andeq	sp, r4, fp, lsl r6
    3bcc:	04e01b00 	strbteq	r1, [r0], #2816	; 0xb00
    3bd0:	a5180000 	ldrge	r0, [r8, #-0]
    3bd4:	dc000004 	stcle	0, cr0, [r0], {4}
    3bd8:	00000098 	muleq	r0, r8, r0
    3bdc:	00000390 	muleq	r0, r0, r3
    3be0:	19062801 	stmdbne	r6, {r0, fp, sp}
    3be4:	000004be 			; <UNDEFINED> instruction: 0x000004be
    3be8:	04b21501 	ldrteq	r1, [r2], #1281	; 0x501
    3bec:	29750000 	ldmdbcs	r5!, {}^	; <UNPREDICTABLE>
    3bf0:	29710000 	ldmdbcs	r1!, {}^	; <UNPREDICTABLE>
    3bf4:	901a0000 	andsls	r0, sl, r0
    3bf8:	1c000003 	stcne	0, cr0, [r0], {3}
    3bfc:	000004ca 	andeq	r0, r0, sl, asr #9
    3c00:	0000299a 	muleq	r0, sl, r9
    3c04:	00002996 	muleq	r0, r6, r9
    3c08:	0004d61c 	andeq	sp, r4, ip, lsl r6
    3c0c:	0029e600 	eoreq	lr, r9, r0, lsl #12
    3c10:	0029e000 	eoreq	lr, r9, r0
    3c14:	04e01c00 	strbteq	r1, [r0], #3072	; 0xc00
    3c18:	2a3c0000 	bcs	f03c20 <__bss_end__+0xef9858>
    3c1c:	2a340000 	bcs	d03c24 <__bss_end__+0xcf985c>
    3c20:	081d0000 	ldmdaeq	sp, {}	; <UNPREDICTABLE>
    3c24:	5e000099 	mcrpl	0, 0, r0, cr0, cr9, {4}
    3c28:	6d000006 	stcvs	0, cr0, [r0, #-24]	; 0xffffffe8
    3c2c:	12000004 	andne	r0, r0, #4, 0
    3c30:	75025001 	strvc	r5, [r2, #-1]
    3c34:	28160000 	ldmdacs	r6, {}	; <UNPREDICTABLE>
    3c38:	6a000099 	bvs	3ea4 <__code_start__-0x415c>
    3c3c:	12000006 	andne	r0, r0, #6, 0
    3c40:	f3255001 	vhadd.u32	d5, d5, d1
    3c44:	2cf75001 	ldclcs	0, cr5, [r7], #4
    3c48:	25f425f7 	ldrbcs	r2, [r4, #1527]!	; 0x5f7
    3c4c:	cccccd08 	stclgt	13, cr12, [ip], {8}
    3c50:	000000cc 	andeq	r0, r0, ip, asr #1
    3c54:	20081e00 	andcs	r1, r8, r0, lsl #28
    3c58:	f72525f7 			; <UNDEFINED> instruction: 0xf72525f7
    3c5c:	3300f72c 	movwcc	pc, #1836	; 0x72c	; <UNPREDICTABLE>
    3c60:	80802325 	addhi	r2, r0, r5, lsr #6
    3c64:	243240a0 	ldrtcs	r4, [r2], #-160	; 0xffffff60
    3c68:	00000000 	andeq	r0, r0, r0
    3c6c:	c31e0000 	tstgt	lr, #0, 0
    3c70:	01000008 	tsteq	r0, r8
    3c74:	eb010628 	bl	4551c <__bss_end__+0x3b154>
    3c78:	1f000004 	svcne	0x00000004
    3c7c:	006e6970 	rsbeq	r6, lr, r0, ror r9
    3c80:	2c212801 	stccs	8, cr2, [r1], #-4
    3c84:	20000000 	andcs	r0, r0, r0
    3c88:	00000053 	andeq	r0, r0, r3, asr r0
    3c8c:	0f322801 	svceq	0x00322801
    3c90:	21000001 	tstcs	r0, r1
    3c94:	0066666f 	rsbeq	r6, r6, pc, ror #12
    3c98:	2c0e2d01 	stccs	13, cr2, [lr], {1}
    3c9c:	21000000 	mrscs	r0, (UNDEF: 0)
    3ca0:	2e010067 	cdpcs	0, 0, cr0, cr1, cr7, {3}
    3ca4:	00002c0e 	andeq	r2, r0, lr, lsl #24
    3ca8:	00762100 	rsbseq	r2, r6, r0, lsl #2
    3cac:	2c0e3001 	stccs	0, cr3, [lr], {1}
    3cb0:	00000000 	andeq	r0, r0, r0
    3cb4:	0009f922 	andeq	pc, r9, r2, lsr #18
    3cb8:	18b10200 	ldmne	r1!, {r9}
    3cbc:	00000069 	andeq	r0, r0, r9, rrx
    3cc0:	00050703 	andeq	r0, r5, r3, lsl #14
    3cc4:	00781f00 	rsbseq	r1, r8, r0, lsl #30
    3cc8:	692bb102 	stmdbvs	fp!, {r1, r8, ip, sp, pc}
    3ccc:	00000000 	andeq	r0, r0, r0
    3cd0:	0004a523 	andeq	sl, r4, r3, lsr #10
    3cd4:	00987400 	addseq	r7, r8, r0, lsl #8
    3cd8:	00006000 	andeq	r6, r0, r0
    3cdc:	e49c0100 	ldr	r0, [ip], #256	; 0x100
    3ce0:	15000005 	strne	r0, [r0, #-5]
    3ce4:	000004b2 			; <UNDEFINED> instruction: 0x000004b2
    3ce8:	00002a7b 	andeq	r2, r0, fp, ror sl
    3cec:	00002a77 	andeq	r2, r0, r7, ror sl
    3cf0:	0004be15 	andeq	fp, r4, r5, lsl lr
    3cf4:	002aa000 	eoreq	sl, sl, r0
    3cf8:	002a9c00 	eoreq	r9, sl, r0, lsl #24
    3cfc:	04ca1b00 	strbeq	r1, [sl], #2816	; 0xb00
    3d00:	d61b0000 	ldrle	r0, [fp], -r0
    3d04:	1b000004 	blne	3d1c <__code_start__-0x42e4>
    3d08:	000004e0 	andeq	r0, r0, r0, ror #9
    3d0c:	0004a518 	andeq	sl, r4, r8, lsl r5
    3d10:	00987c00 	addseq	r7, r8, r0, lsl #24
    3d14:	03500000 	cmpeq	r0, #0, 0
    3d18:	28010000 	stmdacs	r1, {}	; <UNPREDICTABLE>
    3d1c:	04be1506 	ldrteq	r1, [lr], #1286	; 0x506
    3d20:	2ac50000 	bcs	ff143d28 <__bss_end__+0xff139960>
    3d24:	2ac10000 	bcs	ff043d2c <__bss_end__+0xff039964>
    3d28:	b2150000 	andslt	r0, r5, #0, 0
    3d2c:	ea000004 	b	3d44 <__code_start__-0x42bc>
    3d30:	e600002a 	str	r0, [r0], -sl, lsr #32
    3d34:	1a00002a 	bne	3de4 <__code_start__-0x421c>
    3d38:	00000350 	andeq	r0, r0, r0, asr r3
    3d3c:	0004ca1c 	andeq	ip, r4, ip, lsl sl
    3d40:	002b0f00 	eoreq	r0, fp, r0, lsl #30
    3d44:	002b0b00 	eoreq	r0, fp, r0, lsl #22
    3d48:	04d61c00 	ldrbeq	r1, [r6], #3072	; 0xc00
    3d4c:	2b5b0000 	blcs	16c3d54 <__bss_end__+0x16b998c>
    3d50:	2b550000 	blcs	1543d58 <__bss_end__+0x1539990>
    3d54:	e01c0000 	ands	r0, ip, r0
    3d58:	b1000004 	tstlt	r0, r4
    3d5c:	a900002b 	stmdbge	r0, {r0, r1, r3, r5}
    3d60:	1d00002b 	stcne	0, cr0, [r0, #-172]	; 0xffffff54
    3d64:	000098b4 			; <UNDEFINED> instruction: 0x000098b4
    3d68:	0000065e 	andeq	r0, r0, lr, asr r6
    3d6c:	000005ae 	andeq	r0, r0, lr, lsr #11
    3d70:	02500112 	subseq	r0, r0, #-2147483644	; 0x80000004
    3d74:	16000076 			; <UNDEFINED> instruction: 0x16000076
    3d78:	000098d0 	ldrdeq	r9, [r0], -r0
    3d7c:	0000066a 	andeq	r0, r0, sl, ror #12
    3d80:	25500112 	ldrbcs	r0, [r0, #-274]	; 0xfffffeee
    3d84:	f75001f3 			; <UNDEFINED> instruction: 0xf75001f3
    3d88:	f425f72c 	vld1.8	{d15}, [r5 :128], ip
    3d8c:	cccd0825 	stclgt	8, cr0, [sp], {37}	; 0x25
    3d90:	0000cccc 	andeq	ip, r0, ip, asr #25
    3d94:	081e0000 	ldmdaeq	lr, {}	; <UNPREDICTABLE>
    3d98:	2525f720 	strcs	pc, [r5, #-1824]!	; 0xfffff8e0
    3d9c:	00f72cf7 	ldrshteq	r2, [r7], #199	; 0xc7
    3da0:	80232533 	eorhi	r2, r3, r3, lsr r5
    3da4:	3240a080 	subcc	sl, r0, #128, 0	; 0x80
    3da8:	00000024 	andeq	r0, r0, r4, lsr #32
    3dac:	038d2300 	orreq	r2, sp, #0, 6
    3db0:	992c0000 	stmdbls	ip!, {}	; <UNPREDICTABLE>
    3db4:	00180000 	andseq	r0, r8, r0
    3db8:	9c010000 	stcls	0, cr0, [r1], {-0}
    3dbc:	00000621 	andeq	r0, r0, r1, lsr #12
    3dc0:	00039a15 	andeq	r9, r3, r5, lsl sl
    3dc4:	002c0700 	eoreq	r0, ip, r0, lsl #14
    3dc8:	002c0100 	eoreq	r0, ip, r0, lsl #2
    3dcc:	99401600 	stmdbls	r0, {r9, sl, ip}^
    3dd0:	066a0000 	strbteq	r0, [sl], -r0
    3dd4:	01120000 	tsteq	r2, r0
    3dd8:	1c0c0550 	cfstr32ne	mvfx0, [ip], {80}	; 0x50
    3ddc:	12202000 	eorne	r2, r0, #0, 0
    3de0:	31055101 	tstcc	r5, r1, lsl #2
    3de4:	245001f3 	ldrbcs	r0, [r0], #-499	; 0xfffffe0d
    3de8:	73230000 			; <UNDEFINED> instruction: 0x73230000
    3dec:	44000003 	strmi	r0, [r0], #-3
    3df0:	18000099 	stmdane	r0, {r0, r3, r4, r7}
    3df4:	01000000 	mrseq	r0, (UNDEF: 0)
    3df8:	00065e9c 	muleq	r6, ip, lr
    3dfc:	03801500 	orreq	r1, r0, #0, 10
    3e00:	2c390000 	ldccs	0, cr0, [r9], #-0
    3e04:	2c330000 	ldccs	0, cr0, [r3], #-0
    3e08:	58160000 	ldmdapl	r6, {}	; <UNPREDICTABLE>
    3e0c:	6a000099 	bvs	4078 <__code_start__-0x3f88>
    3e10:	12000006 	andne	r0, r0, #6, 0
    3e14:	0c055001 	stceq	0, cr5, [r5], {1}
    3e18:	20200028 	eorcs	r0, r0, r8, lsr #32
    3e1c:	05510112 	ldrbeq	r0, [r1, #-274]	; 0xfffffeee
    3e20:	5001f331 	andpl	pc, r1, r1, lsr r3	; <UNPREDICTABLE>
    3e24:	24000024 	strcs	r0, [r0], #-36	; 0xffffffdc
    3e28:	00000698 	muleq	r0, r8, r6
    3e2c:	00000698 	muleq	r0, r8, r6
    3e30:	240ac202 	strcs	ip, [sl], #-514	; 0xfffffdfe
    3e34:	00000604 	andeq	r0, r0, r4, lsl #12
    3e38:	00000604 	andeq	r0, r0, r4, lsl #12
    3e3c:	0006ad02 	andeq	sl, r6, r2, lsl #26
    3e40:	00000149 	andeq	r0, r0, r9, asr #2
    3e44:	17070004 	strne	r0, [r7, -r4]
    3e48:	01040000 	mrseq	r0, (UNDEF: 4)
    3e4c:	00000325 	andeq	r0, r0, r5, lsr #6
    3e50:	000a8b0c 	andeq	r8, sl, ip, lsl #22
    3e54:	0003dd00 	andeq	sp, r3, r0, lsl #26
    3e58:	009a0c00 	addseq	r0, sl, r0, lsl #24
    3e5c:	00003c00 	andeq	r3, r0, r0, lsl #24
    3e60:	001fad00 	andseq	sl, pc, r0, lsl #26
    3e64:	05040200 	streq	r0, [r4, #-512]	; 0xfffffe00
    3e68:	00746e69 	rsbseq	r6, r4, r9, ror #28
    3e6c:	6f070403 	svcvs	0x00070403
    3e70:	03000000 	movweq	r0, #0
    3e74:	001d0601 	andseq	r0, sp, r1, lsl #12
    3e78:	02030000 	andeq	r0, r3, #0, 0
    3e7c:	0000cd05 	andeq	ip, r0, r5, lsl #26
    3e80:	05040300 	streq	r0, [r4, #-768]	; 0xfffffd00
    3e84:	00000081 	andeq	r0, r0, r1, lsl #1
    3e88:	7c050803 	stcvc	8, cr0, [r5], {3}
    3e8c:	03000000 	movweq	r0, #0
    3e90:	001b0801 	andseq	r0, fp, r1, lsl #16
    3e94:	02030000 	andeq	r0, r3, #0, 0
    3e98:	00003507 	andeq	r3, r0, r7, lsl #10
    3e9c:	07040300 	streq	r0, [r4, -r0, lsl #6]
    3ea0:	0000006a 	andeq	r0, r0, sl, rrx
    3ea4:	65070803 	strvs	r0, [r7, #-2051]	; 0xfffff7fd
    3ea8:	04000000 	streq	r0, [r0], #-0
    3eac:	00000025 	andeq	r0, r0, r5, lsr #32
    3eb0:	0000007a 	andeq	r0, r0, sl, ror r0
    3eb4:	00002505 	andeq	r2, r0, r5, lsl #10
    3eb8:	8a060000 	bhi	183ec0 <__bss_end__+0x179af8>
    3ebc:	02000000 	andeq	r0, r0, #0, 0
    3ec0:	00860e1c 	addeq	r0, r6, ip, lsl lr
    3ec4:	04070000 	streq	r0, [r7], #-0
    3ec8:	0000006b 	andeq	r0, r0, fp, rrx
    3ecc:	00002504 	andeq	r2, r0, r4, lsl #10
    3ed0:	00009b00 	andeq	r9, r0, r0, lsl #22
    3ed4:	009b0500 	addseq	r0, fp, r0, lsl #10
    3ed8:	07000000 	streq	r0, [r0, -r0]
    3edc:	0000a804 	andeq	sl, r0, r4, lsl #16
    3ee0:	08010300 	stmdaeq	r1, {r8, r9}
    3ee4:	00000024 	andeq	r0, r0, r4, lsr #32
    3ee8:	0000a108 	andeq	sl, r0, r8, lsl #2
    3eec:	04450600 	strbeq	r0, [r5], #-1536	; 0xfffffa00
    3ef0:	21020000 	mrscs	r0, (UNDEF: 2)
    3ef4:	0000b90e 	andeq	fp, r0, lr, lsl #18
    3ef8:	8c040700 	stchi	7, cr0, [r4], {-0}
    3efc:	09000000 	stmdbeq	r0, {}	; <UNPREDICTABLE>
    3f00:	0000007a 	andeq	r0, r0, sl, ror r0
    3f04:	05070601 	streq	r0, [r7, #-1537]	; 0xfffff9ff
    3f08:	009fac03 	addseq	sl, pc, r3, lsl #24
    3f0c:	0a7e0a00 	beq	1f86714 <__bss_end__+0x1f7c34c>
    3f10:	0b010000 	bleq	43f18 <__bss_end__+0x39b50>
    3f14:	009a3806 	addseq	r3, sl, r6, lsl #16
    3f18:	00001000 	andeq	r1, r0, r0
    3f1c:	f19c0100 			; <UNDEFINED> instruction: 0xf19c0100
    3f20:	0b000000 	bleq	3f28 <__code_start__-0x40d8>
    3f24:	01007066 	tsteq	r0, r6, rrx
    3f28:	0086190b 	addeq	r1, r6, fp, lsl #18
    3f2c:	50010000 	andpl	r0, r1, r0
    3f30:	09bb0c00 	ldmibeq	fp!, {sl, fp}
    3f34:	08010000 	stmdaeq	r1, {}	; <UNPREDICTABLE>
    3f38:	009a2006 	addseq	r2, sl, r6
    3f3c:	00001800 	andeq	r1, r0, r0, lsl #16
    3f40:	0d9c0100 	ldfeqs	f0, [ip]
    3f44:	00000a6d 	andeq	r0, r0, sp, ror #20
    3f48:	250c0301 	strcs	r0, [ip, #-769]	; 0xfffffcff
    3f4c:	0c000000 	stceq	0, cr0, [r0], {-0}
    3f50:	1400009a 	strne	r0, [r0], #-154	; 0xffffff66
    3f54:	01000000 	mrseq	r0, (UNDEF: 0)
    3f58:	0001409c 	muleq	r1, ip, r0
    3f5c:	00630e00 	rsbeq	r0, r3, r0, lsl #28
    3f60:	25210301 	strcs	r0, [r1, #-769]!	; 0xfffffcff
    3f64:	69000000 	stmdbvs	r0, {}	; <UNPREDICTABLE>
    3f68:	6500002c 	strvs	r0, [r0, #-44]	; 0xffffffd4
    3f6c:	0f00002c 	svceq	0x0000002c
    3f70:	00009a18 	andeq	r9, r0, r8, lsl sl
    3f74:	00000140 	andeq	r0, r0, r0, asr #2
    3f78:	02500110 	subseq	r0, r0, #4
    3f7c:	00000074 	andeq	r0, r0, r4, ror r0
    3f80:	0008a911 	andeq	sl, r8, r1, lsl r9
    3f84:	0008a900 	andeq	sl, r8, r0, lsl #18
    3f88:	06420200 	strbeq	r0, [r2], -r0, lsl #4
    3f8c:	00013700 	andeq	r3, r1, r0, lsl #14
    3f90:	16000400 	strne	r0, [r0], -r0, lsl #8
    3f94:	04000018 	streq	r0, [r0], #-24	; 0xffffffe8
    3f98:	00032501 	andeq	r2, r3, r1, lsl #10
    3f9c:	0a9c0c00 	beq	fe706fa4 <__bss_end__+0xfe6fcbdc>
    3fa0:	03dd0000 	bicseq	r0, sp, #0, 0
    3fa4:	9a480000 	bls	1203fac <__bss_end__+0x11f9be4>
    3fa8:	002c0000 	eoreq	r0, ip, r0
    3fac:	204f0000 	subcs	r0, pc, r0
    3fb0:	04020000 	streq	r0, [r2], #-0
    3fb4:	746e6905 	strbtvc	r6, [lr], #-2309	; 0xfffff6fb
    3fb8:	07040300 	streq	r0, [r4, -r0, lsl #6]
    3fbc:	0000006f 	andeq	r0, r0, pc, rrx
    3fc0:	1d060103 	stfnes	f0, [r6, #-12]
    3fc4:	03000000 	movweq	r0, #0
    3fc8:	00cd0502 	sbceq	r0, sp, r2, lsl #10
    3fcc:	04030000 	streq	r0, [r3], #-0
    3fd0:	00008105 	andeq	r8, r0, r5, lsl #2
    3fd4:	05080300 	streq	r0, [r8, #-768]	; 0xfffffd00
    3fd8:	0000007c 	andeq	r0, r0, ip, ror r0
    3fdc:	1b080103 	blne	2043f0 <__bss_end__+0x1fa028>
    3fe0:	03000000 	movweq	r0, #0
    3fe4:	00350702 	eorseq	r0, r5, r2, lsl #14
    3fe8:	04030000 	streq	r0, [r3], #-0
    3fec:	00006a07 	andeq	r6, r0, r7, lsl #20
    3ff0:	07080300 	streq	r0, [r8, -r0, lsl #6]
    3ff4:	00000065 	andeq	r0, r0, r5, rrx
    3ff8:	00002504 	andeq	r2, r0, r4, lsl #10
    3ffc:	00007a00 	andeq	r7, r0, r0, lsl #20
    4000:	00250500 	eoreq	r0, r5, r0, lsl #10
    4004:	06000000 	streq	r0, [r0], -r0
    4008:	0000008a 	andeq	r0, r0, sl, lsl #1
    400c:	860e1c02 	strhi	r1, [lr], -r2, lsl #24
    4010:	07000000 	streq	r0, [r0, -r0]
    4014:	00006b04 	andeq	r6, r0, r4, lsl #22
    4018:	00250400 	eoreq	r0, r5, r0, lsl #8
    401c:	009b0000 	addseq	r0, fp, r0
    4020:	9b050000 	blls	144028 <__bss_end__+0x139c60>
    4024:	00000000 	andeq	r0, r0, r0
    4028:	00a80407 	adceq	r0, r8, r7, lsl #8
    402c:	01030000 	mrseq	r0, (UNDEF: 3)
    4030:	00002408 	andeq	r2, r0, r8, lsl #8
    4034:	00a10800 	adceq	r0, r1, r0, lsl #16
    4038:	45060000 	strmi	r0, [r6, #-0]
    403c:	02000004 	andeq	r0, r0, #4, 0
    4040:	00b90e21 	adcseq	r0, r9, r1, lsr #28
    4044:	04070000 	streq	r0, [r7], #-0
    4048:	0000008c 	andeq	r0, r0, ip, lsl #1
    404c:	0004e809 	andeq	lr, r4, r9, lsl #16
    4050:	07040100 	streq	r0, [r4, -r0, lsl #2]
    4054:	00000134 	andeq	r0, r0, r4, lsr r1
    4058:	00009a48 	andeq	r9, r0, r8, asr #20
    405c:	0000002c 	andeq	r0, r0, ip, lsr #32
    4060:	01349c01 	teqeq	r4, r1, lsl #24
    4064:	ac0a0000 	stcge	0, cr0, [sl], {-0}
    4068:	0100000a 	tsteq	r0, sl
    406c:	01341504 	teqeq	r4, r4, lsl #10
    4070:	50010000 	andpl	r0, r1, r0
    4074:	6372730b 	cmnvs	r2, #738197504	; 0x2c000000
    4078:	27040100 	strcs	r0, [r4, -r0, lsl #2]
    407c:	0000009b 	muleq	r0, fp, r0
    4080:	00002c8b 	andeq	r2, r0, fp, lsl #25
    4084:	00002c87 	andeq	r2, r0, r7, lsl #25
    4088:	0031730c 	eorseq	r7, r1, ip, lsl #6
    408c:	340b0501 	strcc	r0, [fp], #-1281	; 0xfffffaff
    4090:	ba000001 	blt	409c <__code_start__-0x3f64>
    4094:	ac00002c 	stcge	0, cr0, [r0], {44}	; 0x2c
    4098:	0c00002c 	stceq	0, cr0, [r0], {44}	; 0x2c
    409c:	01003273 	tsteq	r0, r3, ror r2
    40a0:	009b1106 	addseq	r1, fp, r6, lsl #2
    40a4:	2d190000 	ldccs	0, cr0, [r9, #-0]
    40a8:	2d130000 	ldccs	0, cr0, [r3, #-0]
    40ac:	630c0000 	movwvs	r0, #49152	; 0xc000
    40b0:	0a070100 	beq	1c44b8 <__bss_end__+0x1ba0f0>
    40b4:	000000a1 	andeq	r0, r0, r1, lsr #1
    40b8:	00002d4a 	andeq	r2, r0, sl, asr #26
    40bc:	00002d44 	andeq	r2, r0, r4, asr #26
    40c0:	a1040700 	tstge	r4, r0, lsl #14
    40c4:	00000000 	andeq	r0, r0, r0
    40c8:	000000f7 	strdeq	r0, [r0], -r7
    40cc:	18cc0004 	stmiane	ip, {r2}^
    40d0:	01040000 	mrseq	r0, (UNDEF: 4)
    40d4:	00000325 	andeq	r0, r0, r5, lsr #6
    40d8:	000ab10c 	andeq	fp, sl, ip, lsl #2
    40dc:	0003dd00 	andeq	sp, r3, r0, lsl #26
    40e0:	009a7400 	addseq	r7, sl, r0, lsl #8
    40e4:	00004400 	andeq	r4, r0, r0, lsl #8
    40e8:	00213500 	eoreq	r3, r1, r0, lsl #10
    40ec:	05040200 	streq	r0, [r4, #-512]	; 0xfffffe00
    40f0:	00746e69 	rsbseq	r6, r4, r9, ror #28
    40f4:	6f070403 	svcvs	0x00070403
    40f8:	03000000 	movweq	r0, #0
    40fc:	001d0601 	andseq	r0, sp, r1, lsl #12
    4100:	02030000 	andeq	r0, r3, #0, 0
    4104:	0000cd05 	andeq	ip, r0, r5, lsl #26
    4108:	05040300 	streq	r0, [r4, #-768]	; 0xfffffd00
    410c:	00000081 	andeq	r0, r0, r1, lsl #1
    4110:	7c050803 	stcvc	8, cr0, [r5], {3}
    4114:	03000000 	movweq	r0, #0
    4118:	001b0801 	andseq	r0, fp, r1, lsl #16
    411c:	02030000 	andeq	r0, r3, #0, 0
    4120:	00003507 	andeq	r3, r0, r7, lsl #10
    4124:	07040300 	streq	r0, [r4, -r0, lsl #6]
    4128:	0000006a 	andeq	r0, r0, sl, rrx
    412c:	65070803 	strvs	r0, [r7, #-2051]	; 0xfffff7fd
    4130:	04000000 	streq	r0, [r0], #-0
    4134:	00000025 	andeq	r0, r0, r5, lsr #32
    4138:	0000007a 	andeq	r0, r0, sl, ror r0
    413c:	00002505 	andeq	r2, r0, r5, lsl #10
    4140:	8a060000 	bhi	184148 <__bss_end__+0x179d80>
    4144:	02000000 	andeq	r0, r0, #0, 0
    4148:	00860e1c 	addeq	r0, r6, ip, lsl lr
    414c:	04070000 	streq	r0, [r7], #-0
    4150:	0000006b 	andeq	r0, r0, fp, rrx
    4154:	00002504 	andeq	r2, r0, r4, lsl #10
    4158:	00009b00 	andeq	r9, r0, r0, lsl #22
    415c:	009b0500 	addseq	r0, fp, r0, lsl #10
    4160:	07000000 	streq	r0, [r0, -r0]
    4164:	0000a804 	andeq	sl, r0, r4, lsl #16
    4168:	08010300 	stmdaeq	r1, {r8, r9}
    416c:	00000024 	andeq	r0, r0, r4, lsr #32
    4170:	0000a108 	andeq	sl, r0, r8, lsl #2
    4174:	04450600 	strbeq	r0, [r5], #-1536	; 0xfffffa00
    4178:	21020000 	mrscs	r0, (UNDEF: 2)
    417c:	0000b90e 	andeq	fp, r0, lr, lsl #18
    4180:	8c040700 	stchi	7, cr0, [r4], {-0}
    4184:	09000000 	stmdbeq	r0, {}	; <UNPREDICTABLE>
    4188:	00000516 	andeq	r0, r0, r6, lsl r5
    418c:	25050301 	strcs	r0, [r5, #-769]	; 0xfffffcff
    4190:	74000000 	strvc	r0, [r0], #-0
    4194:	4400009a 	strmi	r0, [r0], #-154	; 0xffffff66
    4198:	01000000 	mrseq	r0, (UNDEF: 0)
    419c:	00610a9c 	mlseq	r1, ip, sl, r0
    41a0:	9b180301 	blls	604dac <__bss_end__+0x5fa9e4>
    41a4:	81000000 	mrshi	r0, (UNDEF: 0)
    41a8:	7500002d 	strvc	r0, [r0, #-45]	; 0xffffffd3
    41ac:	0a00002d 	beq	4268 <__code_start__-0x3d98>
    41b0:	03010062 	movweq	r0, #4194	; 0x1062
    41b4:	00009b27 	andeq	r9, r0, r7, lsr #22
    41b8:	002dd500 	eoreq	sp, sp, r0, lsl #10
    41bc:	002dcf00 	eoreq	ip, sp, r0, lsl #30
    41c0:	0f000000 	svceq	0x00000000
    41c4:	04000001 	streq	r0, [r0], #-1
    41c8:	00195b00 	andseq	r5, r9, r0, lsl #22
    41cc:	25010400 	strcs	r0, [r1, #-1024]	; 0xfffffc00
    41d0:	0c000003 	stceq	0, cr0, [r0], {3}
    41d4:	00000ac1 	andeq	r0, r0, r1, asr #21
    41d8:	000003dd 	ldrdeq	r0, [r0], -sp
    41dc:	00009ab8 			; <UNDEFINED> instruction: 0x00009ab8
    41e0:	00000018 	andeq	r0, r0, r8, lsl r0
    41e4:	000021eb 	andeq	r2, r0, fp, ror #3
    41e8:	69050402 	stmdbvs	r5, {r1, sl}
    41ec:	0300746e 	movweq	r7, #1134	; 0x46e
    41f0:	006f0704 	rsbeq	r0, pc, r4, lsl #14
    41f4:	01030000 	mrseq	r0, (UNDEF: 3)
    41f8:	00001d06 	andeq	r1, r0, r6, lsl #26
    41fc:	05020300 	streq	r0, [r2, #-768]	; 0xfffffd00
    4200:	000000cd 	andeq	r0, r0, sp, asr #1
    4204:	81050403 	tsthi	r5, r3, lsl #8
    4208:	03000000 	movweq	r0, #0
    420c:	007c0508 	rsbseq	r0, ip, r8, lsl #10
    4210:	01030000 	mrseq	r0, (UNDEF: 3)
    4214:	00001b08 	andeq	r1, r0, r8, lsl #22
    4218:	07020300 	streq	r0, [r2, -r0, lsl #6]
    421c:	00000035 	andeq	r0, r0, r5, lsr r0
    4220:	6a070403 	bvs	1c5234 <__bss_end__+0x1bae6c>
    4224:	03000000 	movweq	r0, #0
    4228:	00650708 	rsbeq	r0, r5, r8, lsl #14
    422c:	25040000 	strcs	r0, [r4, #-0]
    4230:	7a000000 	bvc	4238 <__code_start__-0x3dc8>
    4234:	05000000 	streq	r0, [r0, #-0]
    4238:	00000025 	andeq	r0, r0, r5, lsr #32
    423c:	008a0600 	addeq	r0, sl, r0, lsl #12
    4240:	1c020000 	stcne	0, cr0, [r2], {-0}
    4244:	0000860e 	andeq	r8, r0, lr, lsl #12
    4248:	6b040700 	blvs	105e50 <__bss_end__+0xfba88>
    424c:	04000000 	streq	r0, [r0], #-0
    4250:	00000025 	andeq	r0, r0, r5, lsr #32
    4254:	0000009b 	muleq	r0, fp, r0
    4258:	00009b05 	andeq	r9, r0, r5, lsl #22
    425c:	04070000 	streq	r0, [r7], #-0
    4260:	000000a8 	andeq	r0, r0, r8, lsr #1
    4264:	24080103 	strcs	r0, [r8], #-259	; 0xfffffefd
    4268:	08000000 	stmdaeq	r0, {}	; <UNPREDICTABLE>
    426c:	000000a1 	andeq	r0, r0, r1, lsr #1
    4270:	00044506 	andeq	r4, r4, r6, lsl #10
    4274:	0e210200 	cdpeq	2, 2, cr0, cr1, cr0, {0}
    4278:	000000b9 	strheq	r0, [r0], -r9
    427c:	008c0407 	addeq	r0, ip, r7, lsl #8
    4280:	ef090000 	svc	0x00090000
    4284:	01000004 	tsteq	r0, r4
    4288:	010c0703 	tsteq	ip, r3, lsl #14
    428c:	9ab80000 	bls	fee04294 <__bss_end__+0xfedf9ecc>
    4290:	00180000 	andseq	r0, r8, r0
    4294:	9c010000 	stcls	0, cr0, [r1], {-0}
    4298:	0000010c 	andeq	r0, r0, ip, lsl #2
    429c:	0031730a 	eorseq	r7, r1, sl, lsl #6
    42a0:	0c150301 	ldceq	3, cr0, [r5], {1}
    42a4:	01000001 	tsteq	r0, r1
    42a8:	32730b50 	rsbscc	r0, r3, #80, 22	; 0x14000
    42ac:	26030100 	strcs	r0, [r3], -r0, lsl #2
    42b0:	0000009b 	muleq	r0, fp, r0
    42b4:	00002e04 	andeq	r2, r0, r4, lsl #28
    42b8:	00002dfe 	strdeq	r2, [r0], -lr
    42bc:	0100730c 	tsteq	r0, ip, lsl #6
    42c0:	010c1404 	tsteq	ip, r4, lsl #8
    42c4:	2e310000 	cdpcs	0, 3, cr0, cr1, cr0, {0}
    42c8:	2e2f0000 	cdpcs	0, 2, cr0, cr15, cr0, {0}
    42cc:	07000000 	streq	r0, [r0, -r0]
    42d0:	0000a104 	andeq	sl, r0, r4, lsl #2
    42d4:	014e0000 	mrseq	r0, (UNDEF: 78)
    42d8:	00040000 	andeq	r0, r4, r0
    42dc:	00001a11 	andeq	r1, r0, r1, lsl sl
    42e0:	03250104 			; <UNDEFINED> instruction: 0x03250104
    42e4:	d10c0000 	mrsle	r0, (UNDEF: 12)
    42e8:	dd00000a 	stcle	0, cr0, [r0, #-40]	; 0xffffffd8
    42ec:	d0000003 	andle	r0, r0, r3
    42f0:	3000009a 	mulcc	r0, sl, r0
    42f4:	8c000000 	stchi	0, cr0, [r0], {-0}
    42f8:	02000022 	andeq	r0, r0, #34, 0	; 0x22
    42fc:	6e690504 	cdpvs	5, 6, cr0, cr9, cr4, {0}
    4300:	0e030074 	mcreq	0, 0, r0, cr3, cr4, {3}
    4304:	03000003 	movweq	r0, #3
    4308:	003817d1 	ldrsbteq	r1, [r8], -r1
    430c:	04040000 	streq	r0, [r4], #-0
    4310:	00006f07 	andeq	r6, r0, r7, lsl #30
    4314:	06010400 	streq	r0, [r1], -r0, lsl #8
    4318:	0000001d 	andeq	r0, r0, sp, lsl r0
    431c:	cd050204 	sfmgt	f0, 4, [r5, #-16]
    4320:	04000000 	streq	r0, [r0], #-0
    4324:	00810504 	addeq	r0, r1, r4, lsl #10
    4328:	08040000 	stmdaeq	r4, {}	; <UNPREDICTABLE>
    432c:	00007c05 	andeq	r7, r0, r5, lsl #24
    4330:	08010400 	stmdaeq	r1, {sl}
    4334:	0000001b 	andeq	r0, r0, fp, lsl r0
    4338:	00005b05 	andeq	r5, r0, r5, lsl #22
    433c:	07020400 	streq	r0, [r2, -r0, lsl #8]
    4340:	00000035 	andeq	r0, r0, r5, lsr r0
    4344:	6a070404 	bvs	1c535c <__bss_end__+0x1baf94>
    4348:	04000000 	streq	r0, [r0], #-0
    434c:	00650708 	rsbeq	r0, r5, r8, lsl #14
    4350:	25060000 	strcs	r0, [r6, #-0]
    4354:	8b000000 	blhi	435c <__code_start__-0x3ca4>
    4358:	07000000 	streq	r0, [r0, -r0]
    435c:	00000025 	andeq	r0, r0, r5, lsr #32
    4360:	008a0800 	addeq	r0, sl, r0, lsl #16
    4364:	1c020000 	stcne	0, cr0, [r2], {-0}
    4368:	0000970e 	andeq	r9, r0, lr, lsl #14
    436c:	7c040900 			; <UNDEFINED> instruction: 0x7c040900
    4370:	06000000 	streq	r0, [r0], -r0
    4374:	00000025 	andeq	r0, r0, r5, lsr #32
    4378:	000000ac 	andeq	r0, r0, ip, lsr #1
    437c:	0000ac07 	andeq	sl, r0, r7, lsl #24
    4380:	04090000 	streq	r0, [r9], #-0
    4384:	000000b9 	strheq	r0, [r0], -r9
    4388:	24080104 	strcs	r0, [r8], #-260	; 0xfffffefc
    438c:	05000000 	streq	r0, [r0, #-0]
    4390:	000000b2 	strheq	r0, [r0], -r2
    4394:	00044508 	andeq	r4, r4, r8, lsl #10
    4398:	0e210200 	cdpeq	2, 2, cr0, cr1, cr0, {0}
    439c:	000000ca 	andeq	r0, r0, sl, asr #1
    43a0:	009d0409 	addseq	r0, sp, r9, lsl #8
    43a4:	460a0000 	strmi	r0, [sl], -r0
    43a8:	01000005 	tsteq	r0, r5
    43ac:	00250504 	eoreq	r0, r5, r4, lsl #10
    43b0:	9ad00000 	bls	ff4043b8 <__bss_end__+0xff3f9ff0>
    43b4:	00300000 	eorseq	r0, r0, r0
    43b8:	9c010000 	stcls	0, cr0, [r1], {-0}
    43bc:	0000014b 	andeq	r0, r0, fp, asr #2
    43c0:	31735f0b 	cmncc	r3, fp, lsl #30
    43c4:	19040100 	stmdbne	r4, {r8}
    43c8:	000000ac 	andeq	r0, r0, ip, lsr #1
    43cc:	00002e48 	andeq	r2, r0, r8, asr #28
    43d0:	00002e44 	andeq	r2, r0, r4, asr #28
    43d4:	32735f0b 	rsbscc	r5, r3, #11, 30	; 0x2c
    43d8:	2a040100 	bcs	1047e0 <__bss_end__+0xfa418>
    43dc:	000000ac 	andeq	r0, r0, ip, lsr #1
    43e0:	00002e6d 	andeq	r2, r0, sp, ror #28
    43e4:	00002e69 	andeq	r2, r0, r9, ror #28
    43e8:	01006e0b 	tsteq	r0, fp, lsl #28
    43ec:	002c3604 	eoreq	r3, ip, r4, lsl #12
    43f0:	2e980000 	cdpcs	0, 9, cr0, cr8, cr0, {0}
    43f4:	2e8e0000 	cdpcs	0, 8, cr0, cr14, cr0, {0}
    43f8:	730c0000 	movwvc	r0, #49152	; 0xc000
    43fc:	05010031 	streq	r0, [r1, #-49]	; 0xffffffcf
    4400:	00014b1a 	andeq	r4, r1, sl, lsl fp
    4404:	002eef00 	eoreq	lr, lr, r0, lsl #30
    4408:	002ee700 	eoreq	lr, lr, r0, lsl #14
    440c:	32730c00 	rsbscc	r0, r3, #0, 24
    4410:	2c050100 	stfcss	f0, [r5], {-0}
    4414:	0000014b 	andeq	r0, r0, fp, asr #2
    4418:	00002f2d 	andeq	r2, r0, sp, lsr #30
    441c:	00002f27 	andeq	r2, r0, r7, lsr #30
    4420:	62040900 	andvs	r0, r4, #0, 18
    4424:	00000000 	andeq	r0, r0, r0
    4428:	000000ce 	andeq	r0, r0, lr, asr #1
    442c:	1ac50004 	bne	ff144444 <__bss_end__+0xff13a07c>
    4430:	01040000 	mrseq	r0, (UNDEF: 4)
    4434:	00000325 	andeq	r0, r0, r5, lsr #6
    4438:	000ae20c 	andeq	lr, sl, ip, lsl #4
    443c:	0003dd00 	andeq	sp, r3, r0, lsl #26
    4440:	009b0000 	addseq	r0, fp, r0
    4444:	00000400 	andeq	r0, r0, r0, lsl #8
    4448:	00238d00 	eoreq	r8, r3, r0, lsl #26
    444c:	05040200 	streq	r0, [r4, #-512]	; 0xfffffe00
    4450:	00746e69 	rsbseq	r6, r4, r9, ror #28
    4454:	6f070403 	svcvs	0x00070403
    4458:	03000000 	movweq	r0, #0
    445c:	001d0601 	andseq	r0, sp, r1, lsl #12
    4460:	02030000 	andeq	r0, r3, #0, 0
    4464:	0000cd05 	andeq	ip, r0, r5, lsl #26
    4468:	05040300 	streq	r0, [r4, #-768]	; 0xfffffd00
    446c:	00000081 	andeq	r0, r0, r1, lsl #1
    4470:	7c050803 	stcvc	8, cr0, [r5], {3}
    4474:	03000000 	movweq	r0, #0
    4478:	001b0801 	andseq	r0, fp, r1, lsl #16
    447c:	02030000 	andeq	r0, r3, #0, 0
    4480:	00003507 	andeq	r3, r0, r7, lsl #10
    4484:	07040300 	streq	r0, [r4, -r0, lsl #6]
    4488:	0000006a 	andeq	r0, r0, sl, rrx
    448c:	65070803 	strvs	r0, [r7, #-2051]	; 0xfffff7fd
    4490:	04000000 	streq	r0, [r0], #-0
    4494:	00000025 	andeq	r0, r0, r5, lsr #32
    4498:	0000007a 	andeq	r0, r0, sl, ror r0
    449c:	00002505 	andeq	r2, r0, r5, lsl #10
    44a0:	8a060000 	bhi	1844a8 <__bss_end__+0x17a0e0>
    44a4:	02000000 	andeq	r0, r0, #0, 0
    44a8:	00860e1c 	addeq	r0, r6, ip, lsl lr
    44ac:	04070000 	streq	r0, [r7], #-0
    44b0:	0000006b 	andeq	r0, r0, fp, rrx
    44b4:	00002504 	andeq	r2, r0, r4, lsl #10
    44b8:	00009b00 	andeq	r9, r0, r0, lsl #22
    44bc:	009b0500 	addseq	r0, fp, r0, lsl #10
    44c0:	07000000 	streq	r0, [r0, -r0]
    44c4:	0000a804 	andeq	sl, r0, r4, lsl #16
    44c8:	08010300 	stmdaeq	r1, {r8, r9}
    44cc:	00000024 	andeq	r0, r0, r4, lsr #32
    44d0:	0000a108 	andeq	sl, r0, r8, lsl #2
    44d4:	04450600 	strbeq	r0, [r5], #-1536	; 0xfffffa00
    44d8:	21020000 	mrscs	r0, (UNDEF: 2)
    44dc:	0000b90e 	andeq	fp, r0, lr, lsl #18
    44e0:	8c040700 	stchi	7, cr0, [r4], {-0}
    44e4:	09000000 	stmdbeq	r0, {}	; <UNPREDICTABLE>
    44e8:	000005ed 	andeq	r0, r0, sp, ror #11
    44ec:	00060301 	andeq	r0, r6, r1, lsl #6
    44f0:	0400009b 	streq	r0, [r0], #-155	; 0xffffff65
    44f4:	01000000 	mrseq	r0, (UNDEF: 0)
    44f8:	Address 0x00000000000044f8 is out of bounds.


Disassembly of section .debug_abbrev:

00000000 <.debug_abbrev>:
       0:	25011101 	strcs	r1, [r1, #-257]	; 0xfffffeff
       4:	030b130e 	movweq	r1, #45838	; 0xb30e
       8:	110e1b0e 	tstne	lr, lr, lsl #22
       c:	10061201 	andne	r1, r6, r1, lsl #4
      10:	02000017 	andeq	r0, r0, #23, 0
      14:	0b0b0024 	bleq	2c00ac <__bss_end__+0x2b5ce4>
      18:	08030b3e 	stmdaeq	r3, {r1, r2, r3, r4, r5, r8, r9, fp}
      1c:	24030000 	strcs	r0, [r3], #-0
      20:	3e0b0b00 	vmlacc.f64	d0, d11, d0
      24:	000e030b 	andeq	r0, lr, fp, lsl #6
      28:	01150400 	tsteq	r5, r0, lsl #8
      2c:	13491927 	movtne	r1, #39207	; 0x9927
      30:	00001301 	andeq	r1, r0, r1, lsl #6
      34:	49000505 	stmdbmi	r0, {r0, r2, r8, sl}
      38:	06000013 			; <UNDEFINED> instruction: 0x06000013
      3c:	0e030034 	mcreq	0, 0, r0, cr3, cr4, {1}
      40:	0b3b0b3a 	bleq	ec2d30 <__bss_end__+0xeb8968>
      44:	13490b39 	movtne	r0, #39737	; 0x9b39
      48:	193c193f 	ldmdbne	ip!, {r0, r1, r2, r3, r4, r5, r8, fp, ip}
      4c:	0f070000 	svceq	0x00070000
      50:	490b0b00 	stmdbmi	fp, {r8, r9, fp}
      54:	08000013 	stmdaeq	r0, {r0, r1, r4}
      58:	13490026 	movtne	r0, #36902	; 0x9026
      5c:	13090000 	movwne	r0, #36864	; 0x9000
      60:	3a0b0b01 	bcc	2c2c6c <__bss_end__+0x2b88a4>
      64:	390b3b0b 	stmdbcc	fp, {r0, r1, r3, r8, r9, fp, ip, sp}
      68:	0013010b 	andseq	r0, r3, fp, lsl #2
      6c:	000d0a00 	andeq	r0, sp, r0, lsl #20
      70:	0b3a0e03 	bleq	e83884 <__bss_end__+0xe794bc>
      74:	0b390b3b 	bleq	e42d68 <__bss_end__+0xe389a0>
      78:	0b381349 	bleq	e04da4 <__bss_end__+0xdfa9dc>
      7c:	160b0000 	strne	r0, [fp], -r0
      80:	3a0e0300 	bcc	380c88 <__bss_end__+0x3768c0>
      84:	390b3b0b 	stmdbcc	fp, {r0, r1, r3, r8, r9, fp, ip, sp}
      88:	0013490b 	andseq	r4, r3, fp, lsl #18
      8c:	012e0c00 			; <UNDEFINED> instruction: 0x012e0c00
      90:	0e03193f 			; <UNDEFINED> instruction: 0x0e03193f
      94:	0b3b0b3a 	bleq	ec2d84 <__bss_end__+0xeb89bc>
      98:	19270b39 	stmdbne	r7!, {r0, r3, r4, r5, r8, r9, fp}
      9c:	06120111 			; <UNDEFINED> instruction: 0x06120111
      a0:	42971840 	addsmi	r1, r7, #64, 16	; 0x400000
      a4:	00130119 	andseq	r0, r3, r9, lsl r1
      a8:	00340d00 	eorseq	r0, r4, r0, lsl #26
      ac:	0b3a0803 	bleq	e820c0 <__bss_end__+0xe77cf8>
      b0:	0b390b3b 	bleq	e42da4 <__bss_end__+0xe389dc>
      b4:	17021349 	strne	r1, [r2, -r9, asr #6]
      b8:	001742b7 			; <UNDEFINED> instruction: 0x001742b7
      bc:	00340e00 	eorseq	r0, r4, r0, lsl #28
      c0:	13490e03 	movtne	r0, #40451	; 0x9e03
      c4:	18021934 	stmdane	r2, {r2, r4, r5, r8, fp, ip}
      c8:	1d0f0000 	stcne	0, cr0, [pc, #-0]	; d0 <__code_start__-0x7f30>
      cc:	52133101 	andspl	r3, r3, #1073741824	; 0x40000000
      d0:	0b42b801 	bleq	10ae0dc <__bss_end__+0x10a3d14>
      d4:	06120111 			; <UNDEFINED> instruction: 0x06120111
      d8:	0b590b58 	bleq	1642e40 <__bss_end__+0x1638a78>
      dc:	13010b57 	movwne	r0, #6999	; 0x1b57
      e0:	05100000 	ldreq	r0, [r0, #-0]
      e4:	02133100 	andseq	r3, r3, #0
      e8:	1742b717 	smlaldne	fp, r2, r7, r7
      ec:	89110000 	ldmdbhi	r1, {}	; <UNPREDICTABLE>
      f0:	11010182 	smlabbne	r1, r2, r1, r0
      f4:	01133101 	tsteq	r3, r1, lsl #2
      f8:	12000013 	andne	r0, r0, #19, 0
      fc:	0001828a 	andeq	r8, r1, sl, lsl #5
     100:	42911802 	addsmi	r1, r1, #131072	; 0x20000
     104:	13000018 	movwne	r0, #24
     108:	00018289 	andeq	r8, r1, r9, lsl #5
     10c:	13310111 	teqne	r1, #1073741828	; 0x40000004
     110:	0f140000 	svceq	0x00140000
     114:	000b0b00 	andeq	r0, fp, r0, lsl #22
     118:	01011500 	tsteq	r1, r0, lsl #10
     11c:	13011349 	movwne	r1, #4937	; 0x1349
     120:	21160000 	tstcs	r6, r0
     124:	2f134900 	svccs	0x00134900
     128:	1700000b 	strne	r0, [r0, -fp]
     12c:	0e03012e 	adfeqsp	f0, f3, #0.5
     130:	0b3b0b3a 	bleq	ec2e20 <__bss_end__+0xeb8a58>
     134:	19270b39 	stmdbne	r7!, {r0, r3, r4, r5, r8, r9, fp}
     138:	0b201349 	bleq	804e64 <__bss_end__+0x7faa9c>
     13c:	00001301 	andeq	r1, r0, r1, lsl #6
     140:	03000518 	movweq	r0, #1304	; 0x518
     144:	3b0b3a0e 	blcc	2ce984 <__bss_end__+0x2c45bc>
     148:	490b390b 	stmdbmi	fp, {r0, r1, r3, r8, fp, ip, sp}
     14c:	19000013 	stmdbne	r0, {r0, r1, r4}
     150:	18020036 	stmdane	r2, {r1, r2, r4, r5}
     154:	2e1a0000 	cdpcs	0, 1, cr0, cr10, cr0, {0}
     158:	3c193f00 	ldccc	15, cr3, [r9], {-0}
     15c:	030e6e19 	movweq	r6, #60953	; 0xee19
     160:	3b0b3a0e 	blcc	2ce9a0 <__bss_end__+0x2c45d8>
     164:	000b390b 	andeq	r3, fp, fp, lsl #18
     168:	11010000 	mrsne	r0, (UNDEF: 1)
     16c:	130e2501 	movwne	r2, #58625	; 0xe501
     170:	1b0e030b 	blne	380da4 <__bss_end__+0x3769dc>
     174:	1201110e 	andne	r1, r1, #-2147483645	; 0x80000003
     178:	00171006 	andseq	r1, r7, r6
     17c:	00240200 	eoreq	r0, r4, r0, lsl #4
     180:	0b3e0b0b 	bleq	f82db4 <__bss_end__+0xf789ec>
     184:	00000803 	andeq	r0, r0, r3, lsl #16
     188:	0b002403 	bleq	919c <rpi_reboot+0x44>
     18c:	030b3e0b 	movweq	r3, #48651	; 0xbe0b
     190:	0400000e 	streq	r0, [r0], #-14
     194:	19270115 	stmdbne	r7!, {r0, r2, r4, r8}
     198:	13011349 	movwne	r1, #4937	; 0x1349
     19c:	05050000 	streq	r0, [r5, #-0]
     1a0:	00134900 	andseq	r4, r3, r0, lsl #18
     1a4:	00340600 	eorseq	r0, r4, r0, lsl #12
     1a8:	0b3a0e03 	bleq	e839bc <__bss_end__+0xe795f4>
     1ac:	0b390b3b 	bleq	e42ea0 <__bss_end__+0xe38ad8>
     1b0:	193f1349 	ldmdbne	pc!, {r0, r3, r6, r8, r9, ip}	; <UNPREDICTABLE>
     1b4:	0000193c 	andeq	r1, r0, ip, lsr r9
     1b8:	0b000f07 	bleq	3ddc <__code_start__-0x4224>
     1bc:	0013490b 	andseq	r4, r3, fp, lsl #18
     1c0:	00260800 	eoreq	r0, r6, r0, lsl #16
     1c4:	00001349 	andeq	r1, r0, r9, asr #6
     1c8:	03011709 	movweq	r1, #5897	; 0x1709
     1cc:	3a0b0b0e 	bcc	2c2e0c <__bss_end__+0x2b8a44>
     1d0:	390b3b0b 	stmdbcc	fp, {r0, r1, r3, r8, r9, fp, ip, sp}
     1d4:	0013010b 	andseq	r0, r3, fp, lsl #2
     1d8:	000d0a00 	andeq	r0, sp, r0, lsl #20
     1dc:	0b3a0803 	bleq	e821f0 <__bss_end__+0xe77e28>
     1e0:	0b390b3b 	bleq	e42ed4 <__bss_end__+0xe38b0c>
     1e4:	00001349 	andeq	r1, r0, r9, asr #6
     1e8:	0b000f0b 	bleq	3e1c <__code_start__-0x41e4>
     1ec:	0c00000b 	stceq	0, cr0, [r0], {11}
     1f0:	19270015 	stmdbne	r7!, {r0, r2, r4}
     1f4:	130d0000 	movwne	r0, #53248	; 0xd000
     1f8:	3a0b0b01 	bcc	2c2e04 <__bss_end__+0x2b8a3c>
     1fc:	390b3b0b 	stmdbcc	fp, {r0, r1, r3, r8, r9, fp, ip, sp}
     200:	0013010b 	andseq	r0, r3, fp, lsl #2
     204:	000d0e00 	andeq	r0, sp, r0, lsl #28
     208:	0b3a0803 	bleq	e8221c <__bss_end__+0xe77e54>
     20c:	0b390b3b 	bleq	e42f00 <__bss_end__+0xe38b38>
     210:	0b381349 	bleq	e04f3c <__bss_end__+0xdfab74>
     214:	0d0f0000 	stceq	0, cr0, [pc, #-0]	; 21c <__code_start__-0x7de4>
     218:	3a0e0300 	bcc	380e20 <__bss_end__+0x376a58>
     21c:	390b3b0b 	stmdbcc	fp, {r0, r1, r3, r8, r9, fp, ip, sp}
     220:	3813490b 	ldmdacc	r3, {r0, r1, r3, r8, fp, lr}
     224:	1000000b 	andne	r0, r0, fp
     228:	0e030016 	mcreq	0, 0, r0, cr3, cr6, {0}
     22c:	0b3b0b3a 	bleq	ec2f1c <__bss_end__+0xeb8b54>
     230:	13490b39 	movtne	r0, #39737	; 0x9b39
     234:	34110000 	ldrcc	r0, [r1], #-0
     238:	3a0e0300 	bcc	380e40 <__bss_end__+0x376a78>
     23c:	390b3b0b 	stmdbcc	fp, {r0, r1, r3, r8, r9, fp, ip, sp}
     240:	0213490b 	andseq	r4, r3, #180224	; 0x2c000
     244:	12000018 	andne	r0, r0, #24, 0
     248:	193f012e 	ldmdbne	pc!, {r1, r2, r3, r5, r8}	; <UNPREDICTABLE>
     24c:	0b3a0e03 	bleq	e83a60 <__bss_end__+0xe79698>
     250:	0b390b3b 	bleq	e42f44 <__bss_end__+0xe38b7c>
     254:	01111927 	tsteq	r1, r7, lsr #18
     258:	18400612 	stmdane	r0, {r1, r4, r9, sl}^
     25c:	01194297 			; <UNDEFINED> instruction: 0x01194297
     260:	13000013 	movwne	r0, #19
     264:	08030005 	stmdaeq	r3, {r0, r2}
     268:	0b3b0b3a 	bleq	ec2f58 <__bss_end__+0xeb8b90>
     26c:	13490b39 	movtne	r0, #39737	; 0x9b39
     270:	00001802 	andeq	r1, r0, r2, lsl #16
     274:	03003414 	movweq	r3, #1044	; 0x414
     278:	3b0b3a08 	blcc	2ceaa0 <__bss_end__+0x2c46d8>
     27c:	490b390b 	stmdbmi	fp, {r0, r1, r3, r8, fp, ip, sp}
     280:	b7170213 			; <UNDEFINED> instruction: 0xb7170213
     284:	00001742 	andeq	r1, r0, r2, asr #14
     288:	3f012e15 	svccc	0x00012e15
     28c:	3a0e0319 	bcc	380ef8 <__bss_end__+0x376b30>
     290:	390b3b0b 	stmdbcc	fp, {r0, r1, r3, r8, r9, fp, ip, sp}
     294:	4919270b 	ldmdbmi	r9, {r0, r1, r3, r8, r9, sl, sp}
     298:	12011113 	andne	r1, r1, #-1073741820	; 0xc0000004
     29c:	97184006 	ldrls	r4, [r8, -r6]
     2a0:	13011942 	movwne	r1, #6466	; 0x1942
     2a4:	05160000 	ldreq	r0, [r6, #-0]
     2a8:	3a0e0300 	bcc	380eb0 <__bss_end__+0x376ae8>
     2ac:	390b3b0b 	stmdbcc	fp, {r0, r1, r3, r8, r9, fp, ip, sp}
     2b0:	0213490b 	andseq	r4, r3, #180224	; 0x2c000
     2b4:	1742b717 	smlaldne	fp, r2, r7, r7
     2b8:	34170000 	ldrcc	r0, [r7], #-0
     2bc:	3a0e0300 	bcc	380ec4 <__bss_end__+0x376afc>
     2c0:	390b3b0b 	stmdbcc	fp, {r0, r1, r3, r8, r9, fp, ip, sp}
     2c4:	0213490b 	andseq	r4, r3, #180224	; 0x2c000
     2c8:	1742b717 	smlaldne	fp, r2, r7, r7
     2cc:	89180000 	ldmdbhi	r8, {}	; <UNPREDICTABLE>
     2d0:	11010182 	smlabbne	r1, r2, r1, r0
     2d4:	00133101 	andseq	r3, r3, r1, lsl #2
     2d8:	828a1900 	addhi	r1, sl, #0, 18
     2dc:	18020001 	stmdane	r2, {r0}
     2e0:	00184291 	mulseq	r8, r1, r2
     2e4:	012e1a00 			; <UNDEFINED> instruction: 0x012e1a00
     2e8:	0b3a0e03 	bleq	e83afc <__bss_end__+0xe79734>
     2ec:	0b390b3b 	bleq	e42fe0 <__bss_end__+0xe38c18>
     2f0:	13491927 	movtne	r1, #39207	; 0x9927
     2f4:	06120111 			; <UNDEFINED> instruction: 0x06120111
     2f8:	42971840 	addsmi	r1, r7, #64, 16	; 0x400000
     2fc:	00130119 	andseq	r0, r3, r9, lsl r1
     300:	00051b00 	andeq	r1, r5, r0, lsl #22
     304:	0b3a0803 	bleq	e82318 <__bss_end__+0xe77f50>
     308:	0b390b3b 	bleq	e42ffc <__bss_end__+0xe38c34>
     30c:	17021349 	strne	r1, [r2, -r9, asr #6]
     310:	001742b7 			; <UNDEFINED> instruction: 0x001742b7
     314:	82891c00 	addhi	r1, r9, #0, 24
     318:	01110101 	tsteq	r1, r1, lsl #2
     31c:	13011331 	movwne	r1, #4913	; 0x1331
     320:	891d0000 	ldmdbhi	sp, {}	; <UNPREDICTABLE>
     324:	11000182 	smlabbne	r0, r2, r1, r0
     328:	00133101 	andseq	r3, r3, r1, lsl #2
     32c:	002e1e00 	eoreq	r1, lr, r0, lsl #28
     330:	193c193f 	ldmdbne	ip!, {r0, r1, r2, r3, r4, r5, r8, fp, ip}
     334:	0e030e6e 	cdpeq	14, 0, cr0, cr3, cr14, {3}
     338:	0b3b0b3a 	bleq	ec3028 <__bss_end__+0xeb8c60>
     33c:	00000b39 	andeq	r0, r0, r9, lsr fp
     340:	01110100 	tsteq	r1, r0, lsl #2
     344:	0b130e25 	bleq	4c3be0 <__bss_end__+0x4b9818>
     348:	0e1b0e03 	cdpeq	14, 1, cr0, cr11, cr3, {0}
     34c:	06120111 			; <UNDEFINED> instruction: 0x06120111
     350:	00001710 	andeq	r1, r0, r0, lsl r7
     354:	0b002402 	bleq	9364 <uart_init+0x50>
     358:	030b3e0b 	movweq	r3, #48651	; 0xbe0b
     35c:	03000008 	movweq	r0, #8
     360:	0b0b0024 	bleq	2c03f8 <__bss_end__+0x2b6030>
     364:	0e030b3e 	vmoveq.16	d3[0], r0
     368:	15040000 	strne	r0, [r4, #-0]
     36c:	49192701 	ldmdbmi	r9, {r0, r8, r9, sl, sp}
     370:	00130113 	andseq	r0, r3, r3, lsl r1
     374:	00050500 	andeq	r0, r5, r0, lsl #10
     378:	00001349 	andeq	r1, r0, r9, asr #6
     37c:	03003406 	movweq	r3, #1030	; 0x406
     380:	3b0b3a0e 	blcc	2cebc0 <__bss_end__+0x2c47f8>
     384:	490b390b 	stmdbmi	fp, {r0, r1, r3, r8, fp, ip, sp}
     388:	3c193f13 	ldccc	15, cr3, [r9], {19}
     38c:	07000019 	smladeq	r0, r9, r0, r0
     390:	0b0b000f 	bleq	2c03d4 <__bss_end__+0x2b600c>
     394:	00001349 	andeq	r1, r0, r9, asr #6
     398:	49002608 	stmdbmi	r0, {r3, r9, sl, sp}
     39c:	09000013 	stmdbeq	r0, {r0, r1, r4}
     3a0:	193f012e 	ldmdbne	pc!, {r1, r2, r3, r5, r8}	; <UNPREDICTABLE>
     3a4:	0b3a0e03 	bleq	e83bb8 <__bss_end__+0xe797f0>
     3a8:	0b390b3b 	bleq	e4309c <__bss_end__+0xe38cd4>
     3ac:	13491927 	movtne	r1, #39207	; 0x9927
     3b0:	06120111 			; <UNDEFINED> instruction: 0x06120111
     3b4:	42971840 	addsmi	r1, r7, #64, 16	; 0x400000
     3b8:	00130119 	andseq	r0, r3, r9, lsl r1
     3bc:	00050a00 	andeq	r0, r5, r0, lsl #20
     3c0:	0b3a0e03 	bleq	e83bd4 <__bss_end__+0xe7980c>
     3c4:	0b390b3b 	bleq	e430b8 <__bss_end__+0xe38cf0>
     3c8:	17021349 	strne	r1, [r2, -r9, asr #6]
     3cc:	001742b7 			; <UNDEFINED> instruction: 0x001742b7
     3d0:	82890b00 	addhi	r0, r9, #0, 22
     3d4:	01110101 	tsteq	r1, r1, lsl #2
     3d8:	00001331 	andeq	r1, r0, r1, lsr r3
     3dc:	01828a0c 	orreq	r8, r2, ip, lsl #20
     3e0:	91180200 	tstls	r8, r0, lsl #4
     3e4:	00001842 	andeq	r1, r0, r2, asr #16
     3e8:	0b000f0d 	bleq	4024 <__code_start__-0x3fdc>
     3ec:	0e00000b 	cdpeq	0, 0, cr0, cr0, cr11, {0}
     3f0:	193f002e 	ldmdbne	pc!, {r1, r2, r3, r5}	; <UNPREDICTABLE>
     3f4:	0e6e193c 			; <UNDEFINED> instruction: 0x0e6e193c
     3f8:	0b3a0e03 	bleq	e83c0c <__bss_end__+0xe79844>
     3fc:	0b390b3b 	bleq	e430f0 <__bss_end__+0xe38d28>
     400:	01000000 	mrseq	r0, (UNDEF: 0)
     404:	0e250111 	mcreq	1, 1, r0, cr5, cr1, {0}
     408:	0e030b13 	vmoveq.32	d3[0], r0
     40c:	01110e1b 	tsteq	r1, fp, lsl lr
     410:	17100612 			; <UNDEFINED> instruction: 0x17100612
     414:	24020000 	strcs	r0, [r2], #-0
     418:	3e0b0b00 	vmlacc.f64	d0, d11, d0
     41c:	0008030b 	andeq	r0, r8, fp, lsl #6
     420:	00240300 	eoreq	r0, r4, r0, lsl #6
     424:	0b3e0b0b 	bleq	f83058 <__bss_end__+0xf78c90>
     428:	00000e03 	andeq	r0, r0, r3, lsl #28
     42c:	03001604 	movweq	r1, #1540	; 0x604
     430:	3b0b3a0e 	blcc	2cec70 <__bss_end__+0x2c48a8>
     434:	490b390b 	stmdbmi	fp, {r0, r1, r3, r8, fp, ip, sp}
     438:	05000013 	streq	r0, [r0, #-19]	; 0xffffffed
     43c:	19270115 	stmdbne	r7!, {r0, r2, r4, r8}
     440:	13011349 	movwne	r1, #4937	; 0x1349
     444:	05060000 	streq	r0, [r6, #-0]
     448:	00134900 	andseq	r4, r3, r0, lsl #18
     44c:	00340700 	eorseq	r0, r4, r0, lsl #14
     450:	0b3a0e03 	bleq	e83c64 <__bss_end__+0xe7989c>
     454:	0b390b3b 	bleq	e43148 <__bss_end__+0xe38d80>
     458:	193f1349 	ldmdbne	pc!, {r0, r3, r6, r8, r9, ip}	; <UNPREDICTABLE>
     45c:	0000193c 	andeq	r1, r0, ip, lsr r9
     460:	0b000f08 	bleq	4088 <__code_start__-0x3f78>
     464:	0013490b 	andseq	r4, r3, fp, lsl #18
     468:	00260900 	eoreq	r0, r6, r0, lsl #18
     46c:	00001349 	andeq	r1, r0, r9, asr #6
     470:	0b01130a 	bleq	450a0 <__bss_end__+0x3acd8>
     474:	3b0b3a0b 	blcc	2ceca8 <__bss_end__+0x2c48e0>
     478:	010b390b 	tsteq	fp, fp, lsl #18
     47c:	0b000013 	bleq	4d0 <__code_start__-0x7b30>
     480:	0e03000d 	cdpeq	0, 0, cr0, cr3, cr13, {0}
     484:	0b3b0b3a 	bleq	ec3174 <__bss_end__+0xeb8dac>
     488:	13490b39 	movtne	r0, #39737	; 0x9b39
     48c:	00000b38 	andeq	r0, r0, r8, lsr fp
     490:	3e01040c 	cdpcc	4, 0, cr0, cr1, cr12, {0}
     494:	490b0b0b 	stmdbmi	fp, {r0, r1, r3, r8, r9, fp}
     498:	3b0b3a13 	blcc	2cecec <__bss_end__+0x2c4924>
     49c:	010b390b 	tsteq	fp, fp, lsl #18
     4a0:	0d000013 	stceq	0, cr0, [r0, #-76]	; 0xffffffb4
     4a4:	0e030028 	cdpeq	0, 0, cr0, cr3, cr8, {1}
     4a8:	00000b1c 	andeq	r0, r0, ip, lsl fp
     4ac:	0301130e 	movweq	r1, #4878	; 0x130e
     4b0:	3a0b0b0e 	bcc	2c30f0 <__bss_end__+0x2b8d28>
     4b4:	390b3b0b 	stmdbcc	fp, {r0, r1, r3, r8, r9, fp, ip, sp}
     4b8:	0013010b 	andseq	r0, r3, fp, lsl #2
     4bc:	00340f00 	eorseq	r0, r4, r0, lsl #30
     4c0:	0b3a0e03 	bleq	e83cd4 <__bss_end__+0xe7990c>
     4c4:	0b390b3b 	bleq	e431b8 <__bss_end__+0xe38df0>
     4c8:	18021349 	stmdane	r2, {r0, r3, r6, r8, r9, ip}
     4cc:	2e100000 	cdpcs	0, 1, cr0, cr0, cr0, {0}
     4d0:	03193f01 	tsteq	r9, #1, 30
     4d4:	3b0b3a0e 	blcc	2ced14 <__bss_end__+0x2c494c>
     4d8:	270b390b 	strcs	r3, [fp, -fp, lsl #18]
     4dc:	11134919 	tstne	r3, r9, lsl r9
     4e0:	40061201 	andmi	r1, r6, r1, lsl #4
     4e4:	19429718 	stmdbne	r2, {r3, r4, r8, r9, sl, ip, pc}^
     4e8:	00001301 	andeq	r1, r0, r1, lsl #6
     4ec:	03000511 	movweq	r0, #1297	; 0x511
     4f0:	3b0b3a0e 	blcc	2ced30 <__bss_end__+0x2c4968>
     4f4:	490b390b 	stmdbmi	fp, {r0, r1, r3, r8, fp, ip, sp}
     4f8:	b7170213 			; <UNDEFINED> instruction: 0xb7170213
     4fc:	00001742 	andeq	r1, r0, r2, asr #14
     500:	03000512 	movweq	r0, #1298	; 0x512
     504:	3b0b3a08 	blcc	2ced2c <__bss_end__+0x2c4964>
     508:	490b390b 	stmdbmi	fp, {r0, r1, r3, r8, fp, ip, sp}
     50c:	00180213 	andseq	r0, r8, r3, lsl r2
     510:	00341300 	eorseq	r1, r4, r0, lsl #6
     514:	0b3a0803 	bleq	e82528 <__bss_end__+0xe78160>
     518:	0b390b3b 	bleq	e4320c <__bss_end__+0xe38e44>
     51c:	17021349 	strne	r1, [r2, -r9, asr #6]
     520:	001742b7 			; <UNDEFINED> instruction: 0x001742b7
     524:	82891400 	addhi	r1, r9, #0, 8
     528:	01110101 	tsteq	r1, r1, lsl #2
     52c:	13011331 	movwne	r1, #4913	; 0x1331
     530:	8a150000 	bhi	540538 <__bss_end__+0x536170>
     534:	02000182 	andeq	r0, r0, #-2147483616	; 0x80000020
     538:	18429118 	stmdane	r2, {r3, r4, r8, ip, pc}^
     53c:	89160000 	ldmdbhi	r6, {}	; <UNPREDICTABLE>
     540:	11010182 	smlabbne	r1, r2, r1, r0
     544:	00133101 	andseq	r3, r3, r1, lsl #2
     548:	000f1700 	andeq	r1, pc, r0, lsl #14
     54c:	00000b0b 	andeq	r0, r0, fp, lsl #22
     550:	3f012e18 	svccc	0x00012e18
     554:	3a0e0319 	bcc	3811c0 <__bss_end__+0x376df8>
     558:	390b3b0b 	stmdbcc	fp, {r0, r1, r3, r8, r9, fp, ip, sp}
     55c:	1119270b 	tstne	r9, fp, lsl #14
     560:	40061201 	andmi	r1, r6, r1, lsl #4
     564:	19429718 	stmdbne	r2, {r3, r4, r8, r9, sl, ip, pc}^
     568:	00001301 	andeq	r1, r0, r1, lsl #6
     56c:	03003419 	movweq	r3, #1049	; 0x419
     570:	3413490e 	ldrcc	r4, [r3], #-2318	; 0xfffff6f2
     574:	00180219 	andseq	r0, r8, r9, lsl r2
     578:	82891a00 	addhi	r1, r9, #0, 20
     57c:	01110001 	tsteq	r1, r1
     580:	00001331 	andeq	r1, r0, r1, lsr r3
     584:	4901011b 	stmdbmi	r1, {r0, r1, r3, r4, r8}
     588:	00130113 	andseq	r0, r3, r3, lsl r1
     58c:	00211c00 	eoreq	r1, r1, r0, lsl #24
     590:	0b2f1349 	bleq	bc52bc <__bss_end__+0xbbaef4>
     594:	2e1d0000 	cdpcs	0, 1, cr0, cr13, cr0, {0}
     598:	3a0e0301 	bcc	3811a4 <__bss_end__+0x376ddc>
     59c:	390b3b0b 	stmdbcc	fp, {r0, r1, r3, r8, r9, fp, ip, sp}
     5a0:	1119270b 	tstne	r9, fp, lsl #14
     5a4:	40061201 	andmi	r1, r6, r1, lsl #4
     5a8:	19429718 	stmdbne	r2, {r3, r4, r8, r9, sl, ip, pc}^
     5ac:	00001301 	andeq	r1, r0, r1, lsl #6
     5b0:	0300051e 	movweq	r0, #1310	; 0x51e
     5b4:	3b0b3a08 	blcc	2ceddc <__bss_end__+0x2c4a14>
     5b8:	490b390b 	stmdbmi	fp, {r0, r1, r3, r8, fp, ip, sp}
     5bc:	b7170213 			; <UNDEFINED> instruction: 0xb7170213
     5c0:	00001742 	andeq	r1, r0, r2, asr #14
     5c4:	0300341f 	movweq	r3, #1055	; 0x41f
     5c8:	3b0b3a0e 	blcc	2cee08 <__bss_end__+0x2c4a40>
     5cc:	490b390b 	stmdbmi	fp, {r0, r1, r3, r8, fp, ip, sp}
     5d0:	b7170213 			; <UNDEFINED> instruction: 0xb7170213
     5d4:	00001742 	andeq	r1, r0, r2, asr #14
     5d8:	11010b20 	tstne	r1, r0, lsr #22
     5dc:	00061201 	andeq	r1, r6, r1, lsl #4
     5e0:	011d2100 	tsteq	sp, r0, lsl #2
     5e4:	01521331 	cmpeq	r2, r1, lsr r3
     5e8:	110b42b8 			; <UNDEFINED> instruction: 0x110b42b8
     5ec:	58061201 	stmdapl	r6, {r0, r9, ip}
     5f0:	570b590b 	strpl	r5, [fp, -fp, lsl #18]
     5f4:	0013010b 	andseq	r0, r3, fp, lsl #2
     5f8:	00052200 	andeq	r2, r5, r0, lsl #4
     5fc:	17021331 	smladxne	r2, r1, r3, r1
     600:	001742b7 			; <UNDEFINED> instruction: 0x001742b7
     604:	002e2300 	eoreq	r2, lr, r0, lsl #6
     608:	0e03193f 			; <UNDEFINED> instruction: 0x0e03193f
     60c:	0b3b0b3a 	bleq	ec32fc <__bss_end__+0xeb8f34>
     610:	19270b39 	stmdbne	r7!, {r0, r3, r4, r5, r8, r9, fp}
     614:	01111349 	tsteq	r1, r9, asr #6
     618:	18400612 	stmdane	r0, {r1, r4, r9, sl}^
     61c:	00194297 	mulseq	r9, r7, r2
     620:	012e2400 			; <UNDEFINED> instruction: 0x012e2400
     624:	0b3a0e03 	bleq	e83e38 <__bss_end__+0xe79a70>
     628:	0b390b3b 	bleq	e4331c <__bss_end__+0xe38f54>
     62c:	13491927 	movtne	r1, #39207	; 0x9927
     630:	13010b20 	movwne	r0, #6944	; 0x1b20
     634:	05250000 	streq	r0, [r5, #-0]!
     638:	3a080300 	bcc	201240 <__bss_end__+0x1f6e78>
     63c:	390b3b0b 	stmdbcc	fp, {r0, r1, r3, r8, r9, fp, ip, sp}
     640:	0013490b 	andseq	r4, r3, fp, lsl #18
     644:	002e2600 	eoreq	r2, lr, r0, lsl #12
     648:	193c193f 	ldmdbne	ip!, {r0, r1, r2, r3, r4, r5, r8, fp, ip}
     64c:	0e030e6e 	cdpeq	14, 0, cr0, cr3, cr14, {3}
     650:	0b3b0b3a 	bleq	ec3340 <__bss_end__+0xeb8f78>
     654:	00000b39 	andeq	r0, r0, r9, lsr fp
     658:	01110100 	tsteq	r1, r0, lsl #2
     65c:	0b130e25 	bleq	4c3ef8 <__bss_end__+0x4b9b30>
     660:	0e1b0e03 	cdpeq	14, 1, cr0, cr11, cr3, {0}
     664:	06120111 			; <UNDEFINED> instruction: 0x06120111
     668:	00001710 	andeq	r1, r0, r0, lsl r7
     66c:	0b002402 	bleq	967c <kmalloc_notzero+0x94>
     670:	030b3e0b 	movweq	r3, #48651	; 0xbe0b
     674:	03000008 	movweq	r0, #8
     678:	0e030016 	mcreq	0, 0, r0, cr3, cr6, {0}
     67c:	0b3b0b3a 	bleq	ec336c <__bss_end__+0xeb8fa4>
     680:	13490b39 	movtne	r0, #39737	; 0x9b39
     684:	24040000 	strcs	r0, [r4], #-0
     688:	3e0b0b00 	vmlacc.f64	d0, d11, d0
     68c:	000e030b 	andeq	r0, lr, fp, lsl #6
     690:	01150500 	tsteq	r5, r0, lsl #10
     694:	13491927 	movtne	r1, #39207	; 0x9927
     698:	00001301 	andeq	r1, r0, r1, lsl #6
     69c:	49000506 	stmdbmi	r0, {r1, r2, r8, sl}
     6a0:	07000013 	smladeq	r0, r3, r0, r0
     6a4:	0e030034 	mcreq	0, 0, r0, cr3, cr4, {1}
     6a8:	0b3b0b3a 	bleq	ec3398 <__bss_end__+0xeb8fd0>
     6ac:	13490b39 	movtne	r0, #39737	; 0x9b39
     6b0:	193c193f 	ldmdbne	ip!, {r0, r1, r2, r3, r4, r5, r8, fp, ip}
     6b4:	0f080000 	svceq	0x00080000
     6b8:	490b0b00 	stmdbmi	fp, {r8, r9, fp}
     6bc:	09000013 	stmdbeq	r0, {r0, r1, r4}
     6c0:	13490026 	movtne	r0, #36902	; 0x9026
     6c4:	2e0a0000 	cdpcs	0, 0, cr0, cr10, cr0, {0}
     6c8:	03193f01 	tsteq	r9, #1, 30
     6cc:	3b0b3a0e 	blcc	2cef0c <__bss_end__+0x2c4b44>
     6d0:	270b390b 	strcs	r3, [fp, -fp, lsl #18]
     6d4:	11134919 	tstne	r3, r9, lsl r9
     6d8:	40061201 	andmi	r1, r6, r1, lsl #4
     6dc:	19429718 	stmdbne	r2, {r3, r4, r8, r9, sl, ip, pc}^
     6e0:	00001301 	andeq	r1, r0, r1, lsl #6
     6e4:	0300050b 	movweq	r0, #1291	; 0x50b
     6e8:	3b0b3a08 	blcc	2cef10 <__bss_end__+0x2c4b48>
     6ec:	490b390b 	stmdbmi	fp, {r0, r1, r3, r8, fp, ip, sp}
     6f0:	00180213 	andseq	r0, r8, r3, lsl r2
     6f4:	00050c00 	andeq	r0, r5, r0, lsl #24
     6f8:	0b3a0803 	bleq	e8270c <__bss_end__+0xe78344>
     6fc:	0b390b3b 	bleq	e433f0 <__bss_end__+0xe39028>
     700:	17021349 	strne	r1, [r2, -r9, asr #6]
     704:	001742b7 			; <UNDEFINED> instruction: 0x001742b7
     708:	00340d00 	eorseq	r0, r4, r0, lsl #26
     70c:	0b3a0803 	bleq	e82720 <__bss_end__+0xe78358>
     710:	0b390b3b 	bleq	e43404 <__bss_end__+0xe3903c>
     714:	17021349 	strne	r1, [r2, -r9, asr #6]
     718:	001742b7 			; <UNDEFINED> instruction: 0x001742b7
     71c:	000f0e00 	andeq	r0, pc, r0, lsl #28
     720:	00000b0b 	andeq	r0, r0, fp, lsl #22
     724:	01110100 	tsteq	r1, r0, lsl #2
     728:	0b130e25 	bleq	4c3fc4 <__bss_end__+0x4b9bfc>
     72c:	0e1b0e03 	cdpeq	14, 1, cr0, cr11, cr3, {0}
     730:	06120111 			; <UNDEFINED> instruction: 0x06120111
     734:	00001710 	andeq	r1, r0, r0, lsl r7
     738:	03001602 	movweq	r1, #1538	; 0x602
     73c:	3b0b3a0e 	blcc	2cef7c <__bss_end__+0x2c4bb4>
     740:	490b390b 	stmdbmi	fp, {r0, r1, r3, r8, fp, ip, sp}
     744:	03000013 	movweq	r0, #19
     748:	0e030113 	mcreq	1, 0, r0, cr3, cr3, {0}
     74c:	0b3a0b0b 	bleq	e83380 <__bss_end__+0xe78fb8>
     750:	13010b3b 	movwne	r0, #6971	; 0x1b3b
     754:	0d040000 	stceq	0, cr0, [r4, #-0]
     758:	490e0300 	stmdbmi	lr, {r8, r9}
     75c:	340b3813 	strcc	r3, [fp], #-2067	; 0xfffff7ed
     760:	05000019 	streq	r0, [r0, #-25]	; 0xffffffe7
     764:	0b0b000f 	bleq	2c07a8 <__bss_end__+0x2b63e0>
     768:	24060000 	strcs	r0, [r6], #-0
     76c:	3e0b0b00 	vmlacc.f64	d0, d11, d0
     770:	0008030b 	andeq	r0, r8, fp, lsl #6
     774:	00240700 	eoreq	r0, r4, r0, lsl #14
     778:	0b3e0b0b 	bleq	f833ac <__bss_end__+0xf78fe4>
     77c:	00000e03 	andeq	r0, r0, r3, lsl #28
     780:	27011508 	strcs	r1, [r1, -r8, lsl #10]
     784:	01134919 	tsteq	r3, r9, lsl r9
     788:	09000013 	stmdbeq	r0, {r0, r1, r4}
     78c:	13490005 	movtne	r0, #36869	; 0x9005
     790:	340a0000 	strcc	r0, [sl], #-0
     794:	3a0e0300 	bcc	38139c <__bss_end__+0x376fd4>
     798:	390b3b0b 	stmdbcc	fp, {r0, r1, r3, r8, r9, fp, ip, sp}
     79c:	3f13490b 	svccc	0x0013490b
     7a0:	00193c19 	andseq	r3, r9, r9, lsl ip
     7a4:	000f0b00 	andeq	r0, pc, r0, lsl #22
     7a8:	13490b0b 	movtne	r0, #39691	; 0x9b0b
     7ac:	260c0000 	strcs	r0, [ip], -r0
     7b0:	00134900 	andseq	r4, r3, r0, lsl #18
     7b4:	012e0d00 			; <UNDEFINED> instruction: 0x012e0d00
     7b8:	0e03193f 			; <UNDEFINED> instruction: 0x0e03193f
     7bc:	0b3b0b3a 	bleq	ec34ac <__bss_end__+0xeb90e4>
     7c0:	19270b39 	stmdbne	r7!, {r0, r3, r4, r5, r8, r9, fp}
     7c4:	01111349 	tsteq	r1, r9, asr #6
     7c8:	18400612 	stmdane	r0, {r1, r4, r9, sl}^
     7cc:	01194297 			; <UNDEFINED> instruction: 0x01194297
     7d0:	0e000013 	mcreq	0, 0, r0, cr0, cr3, {0}
     7d4:	08030005 	stmdaeq	r3, {r0, r2}
     7d8:	0b3b0b3a 	bleq	ec34c8 <__bss_end__+0xeb9100>
     7dc:	13490b39 	movtne	r0, #39737	; 0x9b39
     7e0:	00001802 	andeq	r1, r0, r2, lsl #16
     7e4:	0000180f 	andeq	r1, r0, pc, lsl #16
     7e8:	00341000 	eorseq	r1, r4, r0
     7ec:	0b3a0803 	bleq	e82800 <__bss_end__+0xe78438>
     7f0:	0b390b3b 	bleq	e434e4 <__bss_end__+0xe3911c>
     7f4:	18021349 	stmdane	r2, {r0, r3, r6, r8, r9, ip}
     7f8:	34110000 	ldrcc	r0, [r1], #-0
     7fc:	3a0e0300 	bcc	381404 <__bss_end__+0x37703c>
     800:	390b3b0b 	stmdbcc	fp, {r0, r1, r3, r8, r9, fp, ip, sp}
     804:	0213490b 	andseq	r4, r3, #180224	; 0x2c000
     808:	12000018 	andne	r0, r0, #24, 0
     80c:	08030034 	stmdaeq	r3, {r2, r4, r5}
     810:	0b3b0b3a 	bleq	ec3500 <__bss_end__+0xeb9138>
     814:	13490b39 	movtne	r0, #39737	; 0x9b39
     818:	42b71702 	adcsmi	r1, r7, #524288	; 0x80000
     81c:	13000017 	movwne	r0, #23
     820:	01018289 	smlabbeq	r1, r9, r2, r8
     824:	13310111 	teqne	r1, #1073741828	; 0x40000004
     828:	00001301 	andeq	r1, r0, r1, lsl #6
     82c:	01828a14 	orreq	r8, r2, r4, lsl sl
     830:	91180200 	tstls	r8, r0, lsl #4
     834:	00001842 	andeq	r1, r0, r2, asr #16
     838:	01828915 	orreq	r8, r2, r5, lsl r9
     83c:	00011101 	andeq	r1, r1, r1, lsl #2
     840:	01011600 	tsteq	r1, r0, lsl #12
     844:	13011349 	movwne	r1, #4937	; 0x1349
     848:	21170000 	tstcs	r7, r0
     84c:	2f134900 	svccs	0x00134900
     850:	18000005 	stmdane	r0, {r0, r2}
     854:	193f002e 	ldmdbne	pc!, {r1, r2, r3, r5}	; <UNPREDICTABLE>
     858:	0e6e193c 			; <UNDEFINED> instruction: 0x0e6e193c
     85c:	0b3a0e03 	bleq	e84070 <__bss_end__+0xe79ca8>
     860:	0b390b3b 	bleq	e43554 <__bss_end__+0xe3918c>
     864:	01000000 	mrseq	r0, (UNDEF: 0)
     868:	0e250111 	mcreq	1, 1, r0, cr5, cr1, {0}
     86c:	0e030b13 	vmoveq.32	d3[0], r0
     870:	01110e1b 	tsteq	r1, fp, lsl lr
     874:	17100612 			; <UNDEFINED> instruction: 0x17100612
     878:	24020000 	strcs	r0, [r2], #-0
     87c:	3e0b0b00 	vmlacc.f64	d0, d11, d0
     880:	0008030b 	andeq	r0, r8, fp, lsl #6
     884:	00240300 	eoreq	r0, r4, r0, lsl #6
     888:	0b3e0b0b 	bleq	f834bc <__bss_end__+0xf790f4>
     88c:	00000e03 	andeq	r0, r0, r3, lsl #28
     890:	27011504 	strcs	r1, [r1, -r4, lsl #10]
     894:	01134919 	tsteq	r3, r9, lsl r9
     898:	05000013 	streq	r0, [r0, #-19]	; 0xffffffed
     89c:	13490005 	movtne	r0, #36869	; 0x9005
     8a0:	34060000 	strcc	r0, [r6], #-0
     8a4:	3a0e0300 	bcc	3814ac <__bss_end__+0x3770e4>
     8a8:	390b3b0b 	stmdbcc	fp, {r0, r1, r3, r8, r9, fp, ip, sp}
     8ac:	3f13490b 	svccc	0x0013490b
     8b0:	00193c19 	andseq	r3, r9, r9, lsl ip
     8b4:	000f0700 	andeq	r0, pc, r0, lsl #14
     8b8:	13490b0b 	movtne	r0, #39691	; 0x9b0b
     8bc:	26080000 	strcs	r0, [r8], -r0
     8c0:	00134900 	andseq	r4, r3, r0, lsl #18
     8c4:	00340900 	eorseq	r0, r4, r0, lsl #18
     8c8:	0b3a1347 	bleq	e855ec <__bss_end__+0xe7b224>
     8cc:	0b390b3b 	bleq	e435c0 <__bss_end__+0xe391f8>
     8d0:	00001802 	andeq	r1, r0, r2, lsl #16
     8d4:	3f012e0a 	svccc	0x00012e0a
     8d8:	3a0e0319 	bcc	381544 <__bss_end__+0x37717c>
     8dc:	390b3b0b 	stmdbcc	fp, {r0, r1, r3, r8, r9, fp, ip, sp}
     8e0:	4919270b 	ldmdbmi	r9, {r0, r1, r3, r8, r9, sl, sp}
     8e4:	12011113 	andne	r1, r1, #-1073741820	; 0xc0000004
     8e8:	96184006 	ldrls	r4, [r8], -r6
     8ec:	00001942 	andeq	r1, r0, r2, asr #18
     8f0:	0300050b 	movweq	r0, #1291	; 0x50b
     8f4:	3b0b3a08 	blcc	2cf11c <__bss_end__+0x2c4d54>
     8f8:	490b390b 	stmdbmi	fp, {r0, r1, r3, r8, fp, ip, sp}
     8fc:	b7170213 			; <UNDEFINED> instruction: 0xb7170213
     900:	00001742 	andeq	r1, r0, r2, asr #14
     904:	01110100 	tsteq	r1, r0, lsl #2
     908:	0b130e25 	bleq	4c41a4 <__bss_end__+0x4b9ddc>
     90c:	0e1b0e03 	cdpeq	14, 1, cr0, cr11, cr3, {0}
     910:	06120111 			; <UNDEFINED> instruction: 0x06120111
     914:	00001710 	andeq	r1, r0, r0, lsl r7
     918:	0b002402 	bleq	9928 <gpio_set_output+0x54>
     91c:	030b3e0b 	movweq	r3, #48651	; 0xbe0b
     920:	0300000e 	movweq	r0, #14
     924:	0b0b0024 	bleq	2c09bc <__bss_end__+0x2b65f4>
     928:	08030b3e 	stmdaeq	r3, {r1, r2, r3, r4, r5, r8, r9, fp}
     92c:	16040000 	strne	r0, [r4], -r0
     930:	3a0e0300 	bcc	381538 <__bss_end__+0x377170>
     934:	390b3b0b 	stmdbcc	fp, {r0, r1, r3, r8, r9, fp, ip, sp}
     938:	0013490b 	andseq	r4, r3, fp, lsl #18
     93c:	01150500 	tsteq	r5, r0, lsl #10
     940:	13491927 	movtne	r1, #39207	; 0x9927
     944:	00001301 	andeq	r1, r0, r1, lsl #6
     948:	49000506 	stmdbmi	r0, {r1, r2, r8, sl}
     94c:	07000013 	smladeq	r0, r3, r0, r0
     950:	0e030034 	mcreq	0, 0, r0, cr3, cr4, {1}
     954:	0b3b0b3a 	bleq	ec3644 <__bss_end__+0xeb927c>
     958:	13490b39 	movtne	r0, #39737	; 0x9b39
     95c:	193c193f 	ldmdbne	ip!, {r0, r1, r2, r3, r4, r5, r8, fp, ip}
     960:	0f080000 	svceq	0x00080000
     964:	490b0b00 	stmdbmi	fp, {r8, r9, fp}
     968:	09000013 	stmdbeq	r0, {r0, r1, r4}
     96c:	13490026 	movtne	r0, #36902	; 0x9026
     970:	130a0000 	movwne	r0, #40960	; 0xa000
     974:	0b0e0301 	bleq	381580 <__bss_end__+0x3771b8>
     978:	3b0b3a0b 	blcc	2cf1ac <__bss_end__+0x2c4de4>
     97c:	0013010b 	andseq	r0, r3, fp, lsl #2
     980:	000d0b00 	andeq	r0, sp, r0, lsl #22
     984:	13490e03 	movtne	r0, #40451	; 0x9e03
     988:	19340b38 	ldmdbne	r4!, {r3, r4, r5, r8, r9, fp}
     98c:	0f0c0000 	svceq	0x000c0000
     990:	000b0b00 	andeq	r0, fp, r0, lsl #22
     994:	012e0d00 			; <UNDEFINED> instruction: 0x012e0d00
     998:	0e03193f 			; <UNDEFINED> instruction: 0x0e03193f
     99c:	0b3b0b3a 	bleq	ec368c <__bss_end__+0xeb92c4>
     9a0:	19270b39 	stmdbne	r7!, {r0, r3, r4, r5, r8, r9, fp}
     9a4:	01111349 	tsteq	r1, r9, asr #6
     9a8:	18400612 	stmdane	r0, {r1, r4, r9, sl}^
     9ac:	01194297 			; <UNDEFINED> instruction: 0x01194297
     9b0:	0e000013 	mcreq	0, 0, r0, cr0, cr3, {0}
     9b4:	08030005 	stmdaeq	r3, {r0, r2}
     9b8:	0b3b0b3a 	bleq	ec36a8 <__bss_end__+0xeb92e0>
     9bc:	13490b39 	movtne	r0, #39737	; 0x9b39
     9c0:	42b71702 	adcsmi	r1, r7, #524288	; 0x80000
     9c4:	0f000017 	svceq	0x00000017
     9c8:	0e030005 	cdpeq	0, 0, cr0, cr3, cr5, {0}
     9cc:	0b3b0b3a 	bleq	ec36bc <__bss_end__+0xeb92f4>
     9d0:	13490b39 	movtne	r0, #39737	; 0x9b39
     9d4:	42b71702 	adcsmi	r1, r7, #524288	; 0x80000
     9d8:	10000017 	andne	r0, r0, r7, lsl r0
     9dc:	08030034 	stmdaeq	r3, {r2, r4, r5}
     9e0:	0b3b0b3a 	bleq	ec36d0 <__bss_end__+0xeb9308>
     9e4:	13490b39 	movtne	r0, #39737	; 0x9b39
     9e8:	42b71702 	adcsmi	r1, r7, #524288	; 0x80000
     9ec:	11000017 	tstne	r0, r7, lsl r0
     9f0:	0e030034 	mcreq	0, 0, r0, cr3, cr4, {1}
     9f4:	0b3b0b3a 	bleq	ec36e4 <__bss_end__+0xeb931c>
     9f8:	13490b39 	movtne	r0, #39737	; 0x9b39
     9fc:	42b71702 	adcsmi	r1, r7, #524288	; 0x80000
     a00:	12000017 	andne	r0, r0, #23, 0
     a04:	0e030034 	mcreq	0, 0, r0, cr3, cr4, {1}
     a08:	19341349 	ldmdbne	r4!, {r0, r3, r6, r8, r9, ip}
     a0c:	00001802 	andeq	r1, r0, r2, lsl #16
     a10:	55010b13 	strpl	r0, [r1, #-2835]	; 0xfffff4ed
     a14:	14000017 	strne	r0, [r0], #-23	; 0xffffffe9
     a18:	08030034 	stmdaeq	r3, {r2, r4, r5}
     a1c:	0b3b0b3a 	bleq	ec370c <__bss_end__+0xeb9344>
     a20:	13490b39 	movtne	r0, #39737	; 0x9b39
     a24:	00001802 	andeq	r1, r0, r2, lsl #16
     a28:	03003415 	movweq	r3, #1045	; 0x415
     a2c:	3b0b3a0e 	blcc	2cf26c <__bss_end__+0x2c4ea4>
     a30:	490b390b 	stmdbmi	fp, {r0, r1, r3, r8, fp, ip, sp}
     a34:	00180213 	andseq	r0, r8, r3, lsl r2
     a38:	010b1600 	tsteq	fp, r0, lsl #12
     a3c:	13011755 	movwne	r1, #5973	; 0x1755
     a40:	89170000 	ldmdbhi	r7, {}	; <UNPREDICTABLE>
     a44:	11010182 	smlabbne	r1, r2, r1, r0
     a48:	01133101 	tsteq	r3, r1, lsl #2
     a4c:	18000013 	stmdane	r0, {r0, r1, r4}
     a50:	0001828a 	andeq	r8, r1, sl, lsl #5
     a54:	42911802 	addsmi	r1, r1, #131072	; 0x20000
     a58:	19000018 	stmdbne	r0, {r3, r4}
     a5c:	00018289 	andeq	r8, r1, r9, lsl #5
     a60:	13310111 	teqne	r1, #1073741828	; 0x40000004
     a64:	1d1a0000 	ldcne	0, cr0, [sl, #-0]
     a68:	52133101 	andspl	r3, r3, #1073741824	; 0x40000000
     a6c:	0542b801 	strbeq	fp, [r2, #-2049]	; 0xfffff7ff
     a70:	0b581755 	bleq	16067cc <__bss_end__+0x15fc404>
     a74:	0b570b59 	bleq	15c37e0 <__bss_end__+0x15b9418>
     a78:	00001301 	andeq	r1, r0, r1, lsl #6
     a7c:	3100051b 	tstcc	r0, fp, lsl r5
     a80:	b7170213 			; <UNDEFINED> instruction: 0xb7170213
     a84:	00001742 	andeq	r1, r0, r2, asr #14
     a88:	3100051c 	tstcc	r0, ip, lsl r5
     a8c:	1d000013 	stcne	0, cr0, [r0, #-76]	; 0xffffffb4
     a90:	13310034 	teqne	r1, #52, 0	; 0x34
     a94:	00001802 	andeq	r1, r0, r2, lsl #16
     a98:	3100341e 	tstcc	r0, lr, lsl r4
     a9c:	b7170213 			; <UNDEFINED> instruction: 0xb7170213
     aa0:	00001742 	andeq	r1, r0, r2, asr #14
     aa4:	3100341f 	tstcc	r0, pc, lsl r4
     aa8:	20000013 	andcs	r0, r0, r3, lsl r0
     aac:	1331011d 	teqne	r1, #1073741831	; 0x40000007
     ab0:	42b80152 	adcsmi	r0, r8, #-2147483628	; 0x80000014
     ab4:	58175505 	ldmdapl	r7, {r0, r2, r8, sl, ip, lr}
     ab8:	570b590b 	strpl	r5, [fp, -fp, lsl #18]
     abc:	2100000b 	tstcs	r0, fp
     ac0:	01018289 	smlabbeq	r1, r9, r2, r8
     ac4:	13010111 	movwne	r0, #4369	; 0x1111
     ac8:	01220000 			; <UNDEFINED> instruction: 0x01220000
     acc:	01134901 	tsteq	r3, r1, lsl #18
     ad0:	23000013 	movwcs	r0, #19
     ad4:	13490021 	movtne	r0, #36897	; 0x9021
     ad8:	00000b2f 	andeq	r0, r0, pc, lsr #22
     adc:	03012e24 	movweq	r2, #7716	; 0x1e24
     ae0:	3b0b3a0e 	blcc	2cf320 <__bss_end__+0x2c4f58>
     ae4:	270b390b 	strcs	r3, [fp, -fp, lsl #18]
     ae8:	20134919 	andscs	r4, r3, r9, lsl r9
     aec:	0013010b 	andseq	r0, r3, fp, lsl #2
     af0:	00052500 	andeq	r2, r5, r0, lsl #10
     af4:	0b3a0e03 	bleq	e84308 <__bss_end__+0xe79f40>
     af8:	0b390b3b 	bleq	e437ec <__bss_end__+0xe39424>
     afc:	00001349 	andeq	r1, r0, r9, asr #6
     b00:	03000526 	movweq	r0, #1318	; 0x526
     b04:	3b0b3a08 	blcc	2cf32c <__bss_end__+0x2c4f64>
     b08:	490b390b 	stmdbmi	fp, {r0, r1, r3, r8, fp, ip, sp}
     b0c:	27000013 	smladcs	r0, r3, r0, r0
     b10:	08030034 	stmdaeq	r3, {r2, r4, r5}
     b14:	0b3b0b3a 	bleq	ec3804 <__bss_end__+0xeb943c>
     b18:	13490b39 	movtne	r0, #39737	; 0x9b39
     b1c:	0b280000 	bleq	a00b24 <__bss_end__+0x9f675c>
     b20:	29000001 	stmdbcs	r0, {r0}
     b24:	0e030034 	mcreq	0, 0, r0, cr3, cr4, {1}
     b28:	0b3b0b3a 	bleq	ec3818 <__bss_end__+0xeb9450>
     b2c:	13490b39 	movtne	r0, #39737	; 0x9b39
     b30:	2e2a0000 	cdpcs	0, 2, cr0, cr10, cr0, {0}
     b34:	3a080301 	bcc	201740 <__bss_end__+0x1f7378>
     b38:	390b3b0b 	stmdbcc	fp, {r0, r1, r3, r8, r9, fp, ip, sp}
     b3c:	4919270b 	ldmdbmi	r9, {r0, r1, r3, r8, r9, sl, sp}
     b40:	010b2013 	tsteq	fp, r3, lsl r0
     b44:	2b000013 	blcs	b98 <__code_start__-0x7468>
     b48:	193f012e 	ldmdbne	pc!, {r1, r2, r3, r5, r8}	; <UNPREDICTABLE>
     b4c:	0b3a0e03 	bleq	e84360 <__bss_end__+0xe79f98>
     b50:	0b390b3b 	bleq	e43844 <__bss_end__+0xe3947c>
     b54:	01111927 	tsteq	r1, r7, lsr #18
     b58:	18400612 	stmdane	r0, {r1, r4, r9, sl}^
     b5c:	01194297 			; <UNDEFINED> instruction: 0x01194297
     b60:	2c000013 	stccs	0, cr0, [r0], {19}
     b64:	1331012e 	teqne	r1, #-2147483637	; 0x8000000b
     b68:	06120111 			; <UNDEFINED> instruction: 0x06120111
     b6c:	42971840 	addsmi	r1, r7, #64, 16	; 0x400000
     b70:	00130119 	andseq	r0, r3, r9, lsl r1
     b74:	00052d00 	andeq	r2, r5, r0, lsl #26
     b78:	18021331 	stmdane	r2, {r0, r4, r5, r8, r9, ip}
     b7c:	052e0000 	streq	r0, [lr, #-0]!
     b80:	1c133100 	ldfnes	f3, [r3], {-0}
     b84:	2f00000b 	svccs	0x0000000b
     b88:	1331010b 	teqne	r1, #-1073741822	; 0xc0000002
     b8c:	06120111 			; <UNDEFINED> instruction: 0x06120111
     b90:	00001301 	andeq	r1, r0, r1, lsl #6
     b94:	3f002e30 	svccc	0x00002e30
     b98:	6e193c19 	mrcvs	12, 0, r3, cr9, cr9, {0}
     b9c:	3a0e030e 	bcc	3817dc <__bss_end__+0x377414>
     ba0:	390b3b0b 	stmdbcc	fp, {r0, r1, r3, r8, r9, fp, ip, sp}
     ba4:	0000000b 	andeq	r0, r0, fp
     ba8:	25011101 	strcs	r1, [r1, #-257]	; 0xfffffeff
     bac:	030b130e 	movweq	r1, #45838	; 0xb30e
     bb0:	110e1b0e 	tstne	lr, lr, lsl #22
     bb4:	10061201 	andne	r1, r6, r1, lsl #4
     bb8:	02000017 	andeq	r0, r0, #23, 0
     bbc:	0b0b0024 	bleq	2c0c54 <__bss_end__+0x2b688c>
     bc0:	08030b3e 	stmdaeq	r3, {r1, r2, r3, r4, r5, r8, r9, fp}
     bc4:	24030000 	strcs	r0, [r3], #-0
     bc8:	3e0b0b00 	vmlacc.f64	d0, d11, d0
     bcc:	000e030b 	andeq	r0, lr, fp, lsl #6
     bd0:	01150400 	tsteq	r5, r0, lsl #8
     bd4:	13491927 	movtne	r1, #39207	; 0x9927
     bd8:	00001301 	andeq	r1, r0, r1, lsl #6
     bdc:	49000505 	stmdbmi	r0, {r0, r2, r8, sl}
     be0:	06000013 			; <UNDEFINED> instruction: 0x06000013
     be4:	0e030034 	mcreq	0, 0, r0, cr3, cr4, {1}
     be8:	0b3b0b3a 	bleq	ec38d8 <__bss_end__+0xeb9510>
     bec:	13490b39 	movtne	r0, #39737	; 0x9b39
     bf0:	193c193f 	ldmdbne	ip!, {r0, r1, r2, r3, r4, r5, r8, fp, ip}
     bf4:	0f070000 	svceq	0x00070000
     bf8:	490b0b00 	stmdbmi	fp, {r8, r9, fp}
     bfc:	08000013 	stmdaeq	r0, {r0, r1, r4}
     c00:	13490026 	movtne	r0, #36902	; 0x9026
     c04:	2e090000 	cdpcs	0, 0, cr0, cr9, cr0, {0}
     c08:	03193f01 	tsteq	r9, #1, 30
     c0c:	3b0b3a0e 	blcc	2cf44c <__bss_end__+0x2c5084>
     c10:	270b390b 	strcs	r3, [fp, -fp, lsl #18]
     c14:	19018719 	stmdbne	r1, {r0, r3, r4, r8, r9, sl, pc}
     c18:	06120111 			; <UNDEFINED> instruction: 0x06120111
     c1c:	42971840 	addsmi	r1, r7, #64, 16	; 0x400000
     c20:	00130119 	andseq	r0, r3, r9, lsl r1
     c24:	82890a00 	addhi	r0, r9, #0, 20
     c28:	01110101 	tsteq	r1, r1, lsl #2
     c2c:	00001301 	andeq	r1, r0, r1, lsl #6
     c30:	01828a0b 	orreq	r8, r2, fp, lsl #20
     c34:	91180200 	tstls	r8, r0, lsl #4
     c38:	00001842 	andeq	r1, r0, r2, asr #16
     c3c:	0182890c 	orreq	r8, r2, ip, lsl #18
     c40:	31011100 	mrscc	r1, (UNDEF: 17)
     c44:	0d000013 	stceq	0, cr0, [r0, #-76]	; 0xffffffb4
     c48:	01018289 	smlabbeq	r1, r9, r2, r8
     c4c:	13310111 	teqne	r1, #1073741828	; 0x40000004
     c50:	00001301 	andeq	r1, r0, r1, lsl #6
     c54:	3f002e0e 	svccc	0x00002e0e
     c58:	6e193c19 	mrcvs	12, 0, r3, cr9, cr9, {0}
     c5c:	3a0e030e 	bcc	38189c <__bss_end__+0x3774d4>
     c60:	390b3b0b 	stmdbcc	fp, {r0, r1, r3, r8, r9, fp, ip, sp}
     c64:	0000000b 	andeq	r0, r0, fp
     c68:	25011101 	strcs	r1, [r1, #-257]	; 0xfffffeff
     c6c:	030b130e 	movweq	r1, #45838	; 0xb30e
     c70:	110e1b0e 	tstne	lr, lr, lsl #22
     c74:	10061201 	andne	r1, r6, r1, lsl #4
     c78:	02000017 	andeq	r0, r0, #23, 0
     c7c:	0b0b0024 	bleq	2c0d14 <__bss_end__+0x2b694c>
     c80:	08030b3e 	stmdaeq	r3, {r1, r2, r3, r4, r5, r8, r9, fp}
     c84:	24030000 	strcs	r0, [r3], #-0
     c88:	3e0b0b00 	vmlacc.f64	d0, d11, d0
     c8c:	000e030b 	andeq	r0, lr, fp, lsl #6
     c90:	01150400 	tsteq	r5, r0, lsl #8
     c94:	13491927 	movtne	r1, #39207	; 0x9927
     c98:	00001301 	andeq	r1, r0, r1, lsl #6
     c9c:	49000505 	stmdbmi	r0, {r0, r2, r8, sl}
     ca0:	06000013 			; <UNDEFINED> instruction: 0x06000013
     ca4:	0e030034 	mcreq	0, 0, r0, cr3, cr4, {1}
     ca8:	0b3b0b3a 	bleq	ec3998 <__bss_end__+0xeb95d0>
     cac:	13490b39 	movtne	r0, #39737	; 0x9b39
     cb0:	193c193f 	ldmdbne	ip!, {r0, r1, r2, r3, r4, r5, r8, fp, ip}
     cb4:	0f070000 	svceq	0x00070000
     cb8:	490b0b00 	stmdbmi	fp, {r8, r9, fp}
     cbc:	08000013 	stmdaeq	r0, {r0, r1, r4}
     cc0:	13490026 	movtne	r0, #36902	; 0x9026
     cc4:	2e090000 	cdpcs	0, 0, cr0, cr9, cr0, {0}
     cc8:	03193f01 	tsteq	r9, #1, 30
     ccc:	3b0b3a0e 	blcc	2cf50c <__bss_end__+0x2c5144>
     cd0:	110b390b 	tstne	fp, fp, lsl #18
     cd4:	40061201 	andmi	r1, r6, r1, lsl #4
     cd8:	19429718 	stmdbne	r2, {r3, r4, r8, r9, sl, ip, pc}^
     cdc:	00001301 	andeq	r1, r0, r1, lsl #6
     ce0:	3f002e0a 	svccc	0x00002e0a
     ce4:	3a0e0319 	bcc	381950 <__bss_end__+0x377588>
     ce8:	390b3b0b 	stmdbcc	fp, {r0, r1, r3, r8, r9, fp, ip, sp}
     cec:	3c19270b 	ldccc	7, cr2, [r9], {11}
     cf0:	0b000019 	bleq	d5c <__code_start__-0x72a4>
     cf4:	08030034 	stmdaeq	r3, {r2, r4, r5}
     cf8:	0b3b0b3a 	bleq	ec39e8 <__bss_end__+0xeb9620>
     cfc:	13490b39 	movtne	r0, #39737	; 0x9b39
     d00:	42b71702 	adcsmi	r1, r7, #524288	; 0x80000
     d04:	0c000017 	stceq	0, cr0, [r0], {23}
     d08:	0e030034 	mcreq	0, 0, r0, cr3, cr4, {1}
     d0c:	0b3b0b3a 	bleq	ec39fc <__bss_end__+0xeb9634>
     d10:	13490b39 	movtne	r0, #39737	; 0x9b39
     d14:	0b0d0000 	bleq	340d1c <__bss_end__+0x336954>
     d18:	12011101 	andne	r1, r1, #1073741824	; 0x40000000
     d1c:	00130106 	andseq	r0, r3, r6, lsl #2
     d20:	82890e00 	addhi	r0, r9, #0, 28
     d24:	01110001 	tsteq	r1, r1
     d28:	00001331 	andeq	r1, r0, r1, lsr r3
     d2c:	3f002e0f 	svccc	0x00002e0f
     d30:	6e193c19 	mrcvs	12, 0, r3, cr9, cr9, {0}
     d34:	3a0e030e 	bcc	381974 <__bss_end__+0x3775ac>
     d38:	39053b0b 	stmdbcc	r5, {r0, r1, r3, r8, r9, fp, ip, sp}
     d3c:	1000000b 	andne	r0, r0, fp
     d40:	193f002e 	ldmdbne	pc!, {r1, r2, r3, r5}	; <UNPREDICTABLE>
     d44:	0e6e193c 			; <UNDEFINED> instruction: 0x0e6e193c
     d48:	0b3a0e03 	bleq	e8455c <__bss_end__+0xe7a194>
     d4c:	0b390b3b 	bleq	e43a40 <__bss_end__+0xe39678>
     d50:	01000000 	mrseq	r0, (UNDEF: 0)
     d54:	0e250111 	mcreq	1, 1, r0, cr5, cr1, {0}
     d58:	0e030b13 	vmoveq.32	d3[0], r0
     d5c:	01110e1b 	tsteq	r1, fp, lsl lr
     d60:	17100612 			; <UNDEFINED> instruction: 0x17100612
     d64:	24020000 	strcs	r0, [r2], #-0
     d68:	3e0b0b00 	vmlacc.f64	d0, d11, d0
     d6c:	0008030b 	andeq	r0, r8, fp, lsl #6
     d70:	00240300 	eoreq	r0, r4, r0, lsl #6
     d74:	0b3e0b0b 	bleq	f839a8 <__bss_end__+0xf795e0>
     d78:	00000e03 	andeq	r0, r0, r3, lsl #28
     d7c:	27011504 	strcs	r1, [r1, -r4, lsl #10]
     d80:	01134919 	tsteq	r3, r9, lsl r9
     d84:	05000013 	streq	r0, [r0, #-19]	; 0xffffffed
     d88:	13490005 	movtne	r0, #36869	; 0x9005
     d8c:	34060000 	strcc	r0, [r6], #-0
     d90:	3a0e0300 	bcc	381998 <__bss_end__+0x3775d0>
     d94:	390b3b0b 	stmdbcc	fp, {r0, r1, r3, r8, r9, fp, ip, sp}
     d98:	3f13490b 	svccc	0x0013490b
     d9c:	00193c19 	andseq	r3, r9, r9, lsl ip
     da0:	000f0700 	andeq	r0, pc, r0, lsl #14
     da4:	13490b0b 	movtne	r0, #39691	; 0x9b0b
     da8:	26080000 	strcs	r0, [r8], -r0
     dac:	00134900 	andseq	r4, r3, r0, lsl #18
     db0:	002e0900 	eoreq	r0, lr, r0, lsl #18
     db4:	0e03193f 			; <UNDEFINED> instruction: 0x0e03193f
     db8:	0b3b0b3a 	bleq	ec3aa8 <__bss_end__+0xeb96e0>
     dbc:	19270b39 	stmdbne	r7!, {r0, r3, r4, r5, r8, r9, fp}
     dc0:	06120111 			; <UNDEFINED> instruction: 0x06120111
     dc4:	42971840 	addsmi	r1, r7, #64, 16	; 0x400000
     dc8:	00000019 	andeq	r0, r0, r9, lsl r0
     dcc:	25011101 	strcs	r1, [r1, #-257]	; 0xfffffeff
     dd0:	030b130e 	movweq	r1, #45838	; 0xb30e
     dd4:	550e1b0e 	strpl	r1, [lr, #-2830]	; 0xfffff4f2
     dd8:	10011117 	andne	r1, r1, r7, lsl r1
     ddc:	02000017 	andeq	r0, r0, #23, 0
     de0:	0b0b0024 	bleq	2c0e78 <__bss_end__+0x2b6ab0>
     de4:	08030b3e 	stmdaeq	r3, {r1, r2, r3, r4, r5, r8, r9, fp}
     de8:	26030000 	strcs	r0, [r3], -r0
     dec:	00134900 	andseq	r4, r3, r0, lsl #18
     df0:	00240400 	eoreq	r0, r4, r0, lsl #8
     df4:	0b3e0b0b 	bleq	f83a28 <__bss_end__+0xf79660>
     df8:	00000e03 	andeq	r0, r0, r3, lsl #28
     dfc:	27011505 	strcs	r1, [r1, -r5, lsl #10]
     e00:	01134919 	tsteq	r3, r9, lsl r9
     e04:	06000013 			; <UNDEFINED> instruction: 0x06000013
     e08:	13490005 	movtne	r0, #36869	; 0x9005
     e0c:	34070000 	strcc	r0, [r7], #-0
     e10:	3a0e0300 	bcc	381a18 <__bss_end__+0x377650>
     e14:	390b3b0b 	stmdbcc	fp, {r0, r1, r3, r8, r9, fp, ip, sp}
     e18:	3f13490b 	svccc	0x0013490b
     e1c:	00193c19 	andseq	r3, r9, r9, lsl ip
     e20:	000f0800 	andeq	r0, pc, r0, lsl #16
     e24:	13490b0b 	movtne	r0, #39691	; 0x9b0b
     e28:	34090000 	strcc	r0, [r9], #-0
     e2c:	3a0e0300 	bcc	381a34 <__bss_end__+0x37766c>
     e30:	390b3b0b 	stmdbcc	fp, {r0, r1, r3, r8, r9, fp, ip, sp}
     e34:	0013490b 	andseq	r4, r3, fp, lsl #18
     e38:	012e0a00 			; <UNDEFINED> instruction: 0x012e0a00
     e3c:	0e03193f 			; <UNDEFINED> instruction: 0x0e03193f
     e40:	0b3b0b3a 	bleq	ec3b30 <__bss_end__+0xeb9768>
     e44:	19270b39 	stmdbne	r7!, {r0, r3, r4, r5, r8, r9, fp}
     e48:	11190187 	tstne	r9, r7, lsl #3
     e4c:	40061201 	andmi	r1, r6, r1, lsl #4
     e50:	19429718 	stmdbne	r2, {r3, r4, r8, r9, sl, ip, pc}^
     e54:	00001301 	andeq	r1, r0, r1, lsl #6
     e58:	0300340b 	movweq	r3, #1035	; 0x40b
     e5c:	3b0b3a0e 	blcc	2cf69c <__bss_end__+0x2c52d4>
     e60:	490b390b 	stmdbmi	fp, {r0, r1, r3, r8, fp, ip, sp}
     e64:	00061c13 	andeq	r1, r6, r3, lsl ip
     e68:	00340c00 	eorseq	r0, r4, r0, lsl #24
     e6c:	0b3a0e03 	bleq	e84680 <__bss_end__+0xe7a2b8>
     e70:	0b390b3b 	bleq	e43b64 <__bss_end__+0xe3979c>
     e74:	0b1c1349 	bleq	705ba0 <__bss_end__+0x6fb7d8>
     e78:	1d0d0000 	stcne	0, cr0, [sp, #-0]
     e7c:	52133101 	andspl	r3, r3, #1073741824	; 0x40000000
     e80:	0b42b801 	bleq	10aee8c <__bss_end__+0x10a4ac4>
     e84:	0b581755 	bleq	1606be0 <__bss_end__+0x15fc818>
     e88:	0b570b59 	bleq	15c3bf4 <__bss_end__+0x15b982c>
     e8c:	00001301 	andeq	r1, r0, r1, lsl #6
     e90:	55010b0e 	strpl	r0, [r1, #-2830]	; 0xfffff4f2
     e94:	0f000017 	svceq	0x00000017
     e98:	13310034 	teqne	r1, #52, 0	; 0x34
     e9c:	42b71702 	adcsmi	r1, r7, #524288	; 0x80000
     ea0:	10000017 	andne	r0, r0, r7, lsl r0
     ea4:	1331011d 	teqne	r1, #1073741831	; 0x40000007
     ea8:	42b80152 	adcsmi	r0, r8, #-2147483628	; 0x80000014
     eac:	1201110b 	andne	r1, r1, #-1073741822	; 0xc0000002
     eb0:	590b5806 	stmdbpl	fp, {r1, r2, fp, ip, lr}
     eb4:	010b570b 	tsteq	fp, fp, lsl #14
     eb8:	11000013 	tstne	r0, r3, lsl r0
     ebc:	00018289 	andeq	r8, r1, r9, lsl #5
     ec0:	13310111 	teqne	r1, #1073741828	; 0x40000004
     ec4:	89120000 	ldmdbhi	r2, {}	; <UNPREDICTABLE>
     ec8:	11010182 	smlabbne	r1, r2, r1, r0
     ecc:	01133101 	tsteq	r3, r1, lsl #2
     ed0:	13000013 	movwne	r0, #19
     ed4:	0001828a 	andeq	r8, r1, sl, lsl #5
     ed8:	42911802 	addsmi	r1, r1, #131072	; 0x20000
     edc:	14000018 	strne	r0, [r0], #-24	; 0xffffffe8
     ee0:	01018289 	smlabbeq	r1, r9, r2, r8
     ee4:	13310111 	teqne	r1, #1073741828	; 0x40000004
     ee8:	2e150000 	cdpcs	0, 1, cr0, cr5, cr0, {0}
     eec:	03193f01 	tsteq	r9, #1, 30
     ef0:	3b0b3a0e 	blcc	2cf730 <__bss_end__+0x2c5368>
     ef4:	270b390b 	strcs	r3, [fp, -fp, lsl #18]
     ef8:	010b2019 	tsteq	fp, r9, lsl r0
     efc:	16000013 			; <UNDEFINED> instruction: 0x16000013
     f00:	193f012e 	ldmdbne	pc!, {r1, r2, r3, r5, r8}	; <UNPREDICTABLE>
     f04:	0b3a0e03 	bleq	e84718 <__bss_end__+0xe7a350>
     f08:	0b390b3b 	bleq	e43bfc <__bss_end__+0xe39834>
     f0c:	13491927 	movtne	r1, #39207	; 0x9927
     f10:	13010b20 	movwne	r0, #6944	; 0x1b20
     f14:	2e170000 	cdpcs	0, 1, cr0, cr7, cr0, {0}
     f18:	11133101 	tstne	r3, r1, lsl #2
     f1c:	40061201 	andmi	r1, r6, r1, lsl #4
     f20:	19429718 	stmdbne	r2, {r3, r4, r8, r9, sl, ip, pc}^
     f24:	00001301 	andeq	r1, r0, r1, lsl #6
     f28:	3f002e18 	svccc	0x00002e18
     f2c:	6e193c19 	mrcvs	12, 0, r3, cr9, cr9, {0}
     f30:	3a0e030e 	bcc	381b70 <__bss_end__+0x3777a8>
     f34:	39053b0b 	stmdbcc	r5, {r0, r1, r3, r8, r9, fp, ip, sp}
     f38:	1900000b 	stmdbne	r0, {r0, r1, r3}
     f3c:	193f002e 	ldmdbne	pc!, {r1, r2, r3, r5}	; <UNPREDICTABLE>
     f40:	0e6e193c 			; <UNDEFINED> instruction: 0x0e6e193c
     f44:	0b3a0e03 	bleq	e84758 <__bss_end__+0xe7a390>
     f48:	0b390b3b 	bleq	e43c3c <__bss_end__+0xe39874>
     f4c:	01000000 	mrseq	r0, (UNDEF: 0)
     f50:	0e250111 	mcreq	1, 1, r0, cr5, cr1, {0}
     f54:	0e030b13 	vmoveq.32	d3[0], r0
     f58:	01110e1b 	tsteq	r1, fp, lsl lr
     f5c:	17100612 			; <UNDEFINED> instruction: 0x17100612
     f60:	24020000 	strcs	r0, [r2], #-0
     f64:	3e0b0b00 	vmlacc.f64	d0, d11, d0
     f68:	0008030b 	andeq	r0, r8, fp, lsl #6
     f6c:	00240300 	eoreq	r0, r4, r0, lsl #6
     f70:	0b3e0b0b 	bleq	f83ba4 <__bss_end__+0xf797dc>
     f74:	00000e03 	andeq	r0, r0, r3, lsl #28
     f78:	27011504 	strcs	r1, [r1, -r4, lsl #10]
     f7c:	01134919 	tsteq	r3, r9, lsl r9
     f80:	05000013 	streq	r0, [r0, #-19]	; 0xffffffed
     f84:	13490005 	movtne	r0, #36869	; 0x9005
     f88:	34060000 	strcc	r0, [r6], #-0
     f8c:	3a0e0300 	bcc	381b94 <__bss_end__+0x3777cc>
     f90:	390b3b0b 	stmdbcc	fp, {r0, r1, r3, r8, r9, fp, ip, sp}
     f94:	3f13490b 	svccc	0x0013490b
     f98:	00193c19 	andseq	r3, r9, r9, lsl ip
     f9c:	000f0700 	andeq	r0, pc, r0, lsl #14
     fa0:	13490b0b 	movtne	r0, #39691	; 0x9b0b
     fa4:	26080000 	strcs	r0, [r8], -r0
     fa8:	00134900 	andseq	r4, r3, r0, lsl #18
     fac:	012e0900 			; <UNDEFINED> instruction: 0x012e0900
     fb0:	0e03193f 			; <UNDEFINED> instruction: 0x0e03193f
     fb4:	0b3b0b3a 	bleq	ec3ca4 <__bss_end__+0xeb98dc>
     fb8:	19270b39 	stmdbne	r7!, {r0, r3, r4, r5, r8, r9, fp}
     fbc:	06120111 			; <UNDEFINED> instruction: 0x06120111
     fc0:	42971840 	addsmi	r1, r7, #64, 16	; 0x400000
     fc4:	00130119 	andseq	r0, r3, r9, lsl r1
     fc8:	00050a00 	andeq	r0, r5, r0, lsl #20
     fcc:	0b3a0803 	bleq	e82fe0 <__bss_end__+0xe78c18>
     fd0:	0b390b3b 	bleq	e43cc4 <__bss_end__+0xe398fc>
     fd4:	17021349 	strne	r1, [r2, -r9, asr #6]
     fd8:	001742b7 			; <UNDEFINED> instruction: 0x001742b7
     fdc:	011d0b00 	tsteq	sp, r0, lsl #22
     fe0:	01521331 	cmpeq	r2, r1, lsr r3
     fe4:	550b42b8 	strpl	r4, [fp, #-696]	; 0xfffffd48
     fe8:	590b5817 	stmdbpl	fp, {r0, r1, r2, r4, fp, ip, lr}
     fec:	000b570b 	andeq	r5, fp, fp, lsl #14
     ff0:	00050c00 	andeq	r0, r5, r0, lsl #24
     ff4:	17021331 	smladxne	r2, r1, r3, r1
     ff8:	001742b7 			; <UNDEFINED> instruction: 0x001742b7
     ffc:	011d0d00 	tsteq	sp, r0, lsl #26
    1000:	01521331 	cmpeq	r2, r1, lsr r3
    1004:	110b42b8 			; <UNDEFINED> instruction: 0x110b42b8
    1008:	58061201 	stmdapl	r6, {r0, r9, ip}
    100c:	570b590b 	strpl	r5, [fp, -fp, lsl #18]
    1010:	0e00000b 	cdpeq	0, 0, cr0, cr0, cr11, {0}
    1014:	13310034 	teqne	r1, #52, 0	; 0x34
    1018:	42b71702 	adcsmi	r1, r7, #524288	; 0x80000
    101c:	0f000017 	svceq	0x00000017
    1020:	1331011d 	teqne	r1, #1073741831	; 0x40000007
    1024:	42b80152 	adcsmi	r0, r8, #-2147483628	; 0x80000014
    1028:	1201110b 	andne	r1, r1, #-1073741822	; 0xc0000002
    102c:	590b5806 	stmdbpl	fp, {r1, r2, fp, ip, lr}
    1030:	010b570b 	tsteq	fp, fp, lsl #14
    1034:	10000013 	andne	r0, r0, r3, lsl r0
    1038:	01018289 	smlabbeq	r1, r9, r2, r8
    103c:	13310111 	teqne	r1, #1073741828	; 0x40000004
    1040:	8a110000 	bhi	441048 <__bss_end__+0x436c80>
    1044:	02000182 	andeq	r0, r0, #-2147483616	; 0x80000020
    1048:	18429118 	stmdane	r2, {r3, r4, r8, ip, pc}^
    104c:	89120000 	ldmdbhi	r2, {}	; <UNPREDICTABLE>
    1050:	11000182 	smlabbne	r0, r2, r1, r0
    1054:	00133101 	andseq	r3, r3, r1, lsl #2
    1058:	010b1300 	mrseq	r1, (UNDEF: 59)
    105c:	17551331 	smmlarne	r5, r1, r3, r1
    1060:	34140000 	ldrcc	r0, [r4], #-0
    1064:	00133100 	andseq	r3, r3, r0, lsl #2
    1068:	010b1500 	tsteq	fp, r0, lsl #10
    106c:	00001755 	andeq	r1, r0, r5, asr r7
    1070:	31011d16 	tstcc	r1, r6, lsl sp
    1074:	b8015213 	stmdalt	r1, {r0, r1, r4, r9, ip, lr}
    1078:	17550b42 	ldrbne	r0, [r5, -r2, asr #22]
    107c:	0b590b58 	bleq	1643de4 <__bss_end__+0x1639a1c>
    1080:	13010b57 	movwne	r0, #6999	; 0x1b57
    1084:	2e170000 	cdpcs	0, 1, cr0, cr7, cr0, {0}
    1088:	03193f01 	tsteq	r9, #1, 30
    108c:	3b0b3a0e 	blcc	2cf8cc <__bss_end__+0x2c5504>
    1090:	270b390b 	strcs	r3, [fp, -fp, lsl #18]
    1094:	010b2019 	tsteq	fp, r9, lsl r0
    1098:	18000013 	stmdane	r0, {r0, r1, r4}
    109c:	08030005 	stmdaeq	r3, {r0, r2}
    10a0:	0b3b0b3a 	bleq	ec3d90 <__bss_end__+0xeb99c8>
    10a4:	13490b39 	movtne	r0, #39737	; 0x9b39
    10a8:	34190000 	ldrcc	r0, [r9], #-0
    10ac:	3a080300 	bcc	201cb4 <__bss_end__+0x1f78ec>
    10b0:	390b3b0b 	stmdbcc	fp, {r0, r1, r3, r8, r9, fp, ip, sp}
    10b4:	0013490b 	andseq	r4, r3, fp, lsl #18
    10b8:	010b1a00 	tsteq	fp, r0, lsl #20
    10bc:	2e1b0000 	cdpcs	0, 1, cr0, cr11, cr0, {0}
    10c0:	03193f01 	tsteq	r9, #1, 30
    10c4:	3b0b3a0e 	blcc	2cf904 <__bss_end__+0x2c553c>
    10c8:	270b390b 	strcs	r3, [fp, -fp, lsl #18]
    10cc:	20134919 	andscs	r4, r3, r9, lsl r9
    10d0:	0013010b 	andseq	r0, r3, fp, lsl #2
    10d4:	002e1c00 	eoreq	r1, lr, r0, lsl #24
    10d8:	0e03193f 			; <UNDEFINED> instruction: 0x0e03193f
    10dc:	0b3b0b3a 	bleq	ec3dcc <__bss_end__+0xeb9a04>
    10e0:	19270b39 	stmdbne	r7!, {r0, r3, r4, r5, r8, r9, fp}
    10e4:	0b201349 	bleq	805e10 <__bss_end__+0x7fba48>
    10e8:	2e1d0000 	cdpcs	0, 1, cr0, cr13, cr0, {0}
    10ec:	11133101 	tstne	r3, r1, lsl #2
    10f0:	40061201 	andmi	r1, r6, r1, lsl #4
    10f4:	19429718 	stmdbne	r2, {r3, r4, r8, r9, sl, ip, pc}^
    10f8:	00001301 	andeq	r1, r0, r1, lsl #6
    10fc:	0182891e 	orreq	r8, r2, lr, lsl r9
    1100:	95011101 	strls	r1, [r1, #-257]	; 0xfffffeff
    1104:	13311942 	teqne	r1, #1081344	; 0x108000
    1108:	2e1f0000 	cdpcs	0, 1, cr0, cr15, cr0, {0}
    110c:	3c193f00 	ldccc	15, cr3, [r9], {-0}
    1110:	030e6e19 	movweq	r6, #60953	; 0xee19
    1114:	3b0b3a0e 	blcc	2cf954 <__bss_end__+0x2c558c>
    1118:	000b390b 	andeq	r3, fp, fp, lsl #18
    111c:	11010000 	mrsne	r0, (UNDEF: 1)
    1120:	130e2501 	movwne	r2, #58625	; 0xe501
    1124:	1b0e030b 	blne	381d58 <__bss_end__+0x377990>
    1128:	1201110e 	andne	r1, r1, #-2147483645	; 0x80000003
    112c:	00171006 	andseq	r1, r7, r6
    1130:	00240200 	eoreq	r0, r4, r0, lsl #4
    1134:	0b3e0b0b 	bleq	f83d68 <__bss_end__+0xf799a0>
    1138:	00000803 	andeq	r0, r0, r3, lsl #16
    113c:	0b002403 	bleq	a150 <buf.3944+0x18c>
    1140:	030b3e0b 	movweq	r3, #48651	; 0xbe0b
    1144:	0400000e 	streq	r0, [r0], #-14
    1148:	13490035 	movtne	r0, #36917	; 0x9035
    114c:	16050000 	strne	r0, [r5], -r0
    1150:	3a0e0300 	bcc	381d58 <__bss_end__+0x377990>
    1154:	390b3b0b 	stmdbcc	fp, {r0, r1, r3, r8, r9, fp, ip, sp}
    1158:	0013490b 	andseq	r4, r3, fp, lsl #18
    115c:	01040600 	tsteq	r4, r0, lsl #12
    1160:	0b0b0b3e 	bleq	2c3e60 <__bss_end__+0x2b9a98>
    1164:	0b3a1349 	bleq	e85e90 <__bss_end__+0xe7bac8>
    1168:	0b390b3b 	bleq	e43e5c <__bss_end__+0xe39a94>
    116c:	00001301 	andeq	r1, r0, r1, lsl #6
    1170:	03002807 	movweq	r2, #2055	; 0x807
    1174:	000b1c0e 	andeq	r1, fp, lr, lsl #24
    1178:	01130800 	tsteq	r3, r0, lsl #16
    117c:	0b0b0e03 	bleq	2c4990 <__bss_end__+0x2ba5c8>
    1180:	0b3b0b3a 	bleq	ec3e70 <__bss_end__+0xeb9aa8>
    1184:	13010b39 	movwne	r0, #6969	; 0x1b39
    1188:	0d090000 	stceq	0, cr0, [r9, #-0]
    118c:	3a080300 	bcc	201d94 <__bss_end__+0x1f79cc>
    1190:	390b3b0b 	stmdbcc	fp, {r0, r1, r3, r8, r9, fp, ip, sp}
    1194:	3813490b 	ldmdacc	r3, {r0, r1, r3, r8, fp, lr}
    1198:	0a00000b 	beq	11cc <__code_start__-0x6e34>
    119c:	0e03000d 	cdpeq	0, 0, cr0, cr3, cr13, {0}
    11a0:	0b3b0b3a 	bleq	ec3e90 <__bss_end__+0xeb9ac8>
    11a4:	13490b39 	movtne	r0, #39737	; 0x9b39
    11a8:	00000b38 	andeq	r0, r0, r8, lsr fp
    11ac:	0300340b 	movweq	r3, #1035	; 0x40b
    11b0:	3b0b3a0e 	blcc	2cf9f0 <__bss_end__+0x2c5628>
    11b4:	490b390b 	stmdbmi	fp, {r0, r1, r3, r8, fp, ip, sp}
    11b8:	00061c13 	andeq	r1, r6, r3, lsl ip
    11bc:	000f0c00 	andeq	r0, pc, r0, lsl #24
    11c0:	13490b0b 	movtne	r0, #39691	; 0x9b0b
    11c4:	260d0000 	strcs	r0, [sp], -r0
    11c8:	00134900 	andseq	r4, r3, r0, lsl #18
    11cc:	012e0e00 			; <UNDEFINED> instruction: 0x012e0e00
    11d0:	0e03193f 			; <UNDEFINED> instruction: 0x0e03193f
    11d4:	0b3b0b3a 	bleq	ec3ec4 <__bss_end__+0xeb9afc>
    11d8:	19270b39 	stmdbne	r7!, {r0, r3, r4, r5, r8, r9, fp}
    11dc:	06120111 			; <UNDEFINED> instruction: 0x06120111
    11e0:	42971840 	addsmi	r1, r7, #64, 16	; 0x400000
    11e4:	00130119 	andseq	r0, r3, r9, lsl r1
    11e8:	82890f00 	addhi	r0, r9, #0, 30
    11ec:	01110001 	tsteq	r1, r1
    11f0:	00001331 	andeq	r1, r0, r1, lsr r3
    11f4:	3f012e10 	svccc	0x00012e10
    11f8:	3a0e0319 	bcc	381e64 <__bss_end__+0x377a9c>
    11fc:	390b3b0b 	stmdbcc	fp, {r0, r1, r3, r8, r9, fp, ip, sp}
    1200:	4919270b 	ldmdbmi	r9, {r0, r1, r3, r8, r9, sl, sp}
    1204:	12011113 	andne	r1, r1, #-1073741820	; 0xc0000004
    1208:	97184006 	ldrls	r4, [r8, -r6]
    120c:	13011942 	movwne	r1, #6466	; 0x1942
    1210:	89110000 	ldmdbhi	r1, {}	; <UNPREDICTABLE>
    1214:	11010182 	smlabbne	r1, r2, r1, r0
    1218:	00133101 	andseq	r3, r3, r1, lsl #2
    121c:	828a1200 	addhi	r1, sl, #0, 4
    1220:	18020001 	stmdane	r2, {r0}
    1224:	00184291 	mulseq	r8, r1, r2
    1228:	00051300 	andeq	r1, r5, r0, lsl #6
    122c:	0b3a0803 	bleq	e83240 <__bss_end__+0xe78e78>
    1230:	0b390b3b 	bleq	e43f24 <__bss_end__+0xe39b5c>
    1234:	17021349 	strne	r1, [r2, -r9, asr #6]
    1238:	001742b7 			; <UNDEFINED> instruction: 0x001742b7
    123c:	82891400 	addhi	r1, r9, #0, 8
    1240:	01110101 	tsteq	r1, r1, lsl #2
    1244:	13011331 	movwne	r1, #4913	; 0x1331
    1248:	34150000 	ldrcc	r0, [r5], #-0
    124c:	3a080300 	bcc	201e54 <__bss_end__+0x1f7a8c>
    1250:	390b3b0b 	stmdbcc	fp, {r0, r1, r3, r8, r9, fp, ip, sp}
    1254:	0213490b 	andseq	r4, r3, #180224	; 0x2c000
    1258:	1742b717 	smlaldne	fp, r2, r7, r7
    125c:	34160000 	ldrcc	r0, [r6], #-0
    1260:	3a0e0300 	bcc	381e68 <__bss_end__+0x377aa0>
    1264:	390b3b0b 	stmdbcc	fp, {r0, r1, r3, r8, r9, fp, ip, sp}
    1268:	1c13490b 			; <UNDEFINED> instruction: 0x1c13490b
    126c:	17000005 	strne	r0, [r0, -r5]
    1270:	0e03012e 	adfeqsp	f0, f3, #0.5
    1274:	0b3b0b3a 	bleq	ec3f64 <__bss_end__+0xeb9b9c>
    1278:	19270b39 	stmdbne	r7!, {r0, r3, r4, r5, r8, r9, fp}
    127c:	06120111 			; <UNDEFINED> instruction: 0x06120111
    1280:	42971840 	addsmi	r1, r7, #64, 16	; 0x400000
    1284:	00130119 	andseq	r0, r3, r9, lsl r1
    1288:	00051800 	andeq	r1, r5, r0, lsl #16
    128c:	0b3a0e03 	bleq	e84aa0 <__bss_end__+0xe7a6d8>
    1290:	0b390b3b 	bleq	e43f84 <__bss_end__+0xe39bbc>
    1294:	17021349 	strne	r1, [r2, -r9, asr #6]
    1298:	001742b7 			; <UNDEFINED> instruction: 0x001742b7
    129c:	00351900 	eorseq	r1, r5, r0, lsl #18
    12a0:	2e1a0000 	cdpcs	0, 1, cr0, cr10, cr0, {0}
    12a4:	3c193f00 	ldccc	15, cr3, [r9], {-0}
    12a8:	030e6e19 	movweq	r6, #60953	; 0xee19
    12ac:	3b0b3a0e 	blcc	2cfaec <__bss_end__+0x2c5724>
    12b0:	000b390b 	andeq	r3, fp, fp, lsl #18
    12b4:	11010000 	mrsne	r0, (UNDEF: 1)
    12b8:	130e2501 	movwne	r2, #58625	; 0xe501
    12bc:	1b0e030b 	blne	381ef0 <__bss_end__+0x377b28>
    12c0:	1201110e 	andne	r1, r1, #-2147483645	; 0x80000003
    12c4:	00171006 	andseq	r1, r7, r6
    12c8:	00240200 	eoreq	r0, r4, r0, lsl #4
    12cc:	0b3e0b0b 	bleq	f83f00 <__bss_end__+0xf79b38>
    12d0:	00000803 	andeq	r0, r0, r3, lsl #16
    12d4:	0b002403 	bleq	a2e8 <buf.3944+0x324>
    12d8:	030b3e0b 	movweq	r3, #48651	; 0xbe0b
    12dc:	0400000e 	streq	r0, [r0], #-14
    12e0:	0e030016 	mcreq	0, 0, r0, cr3, cr6, {0}
    12e4:	0b3b0b3a 	bleq	ec3fd4 <__bss_end__+0xeb9c0c>
    12e8:	13490b39 	movtne	r0, #39737	; 0x9b39
    12ec:	26050000 	strcs	r0, [r5], -r0
    12f0:	00134900 	andseq	r4, r3, r0, lsl #18
    12f4:	000f0600 	andeq	r0, pc, r0, lsl #12
    12f8:	00000b0b 	andeq	r0, r0, fp, lsl #22
    12fc:	3e010407 	cdpcc	4, 0, cr0, cr1, cr7, {0}
    1300:	490b0b0b 	stmdbmi	fp, {r0, r1, r3, r8, r9, fp}
    1304:	3b0b3a13 	blcc	2cfb58 <__bss_end__+0x2c5790>
    1308:	010b390b 	tsteq	fp, fp, lsl #18
    130c:	08000013 	stmdaeq	r0, {r0, r1, r4}
    1310:	0e030028 	cdpeq	0, 0, cr0, cr3, cr8, {1}
    1314:	0000061c 	andeq	r0, r0, ip, lsl r6
    1318:	03003409 	movweq	r3, #1033	; 0x409
    131c:	3b0b3a0e 	blcc	2cfb5c <__bss_end__+0x2c5794>
    1320:	490b390b 	stmdbmi	fp, {r0, r1, r3, r8, fp, ip, sp}
    1324:	3c193f13 	ldccc	15, cr3, [r9], {19}
    1328:	0a000019 	beq	1394 <__code_start__-0x6c6c>
    132c:	0e030034 	mcreq	0, 0, r0, cr3, cr4, {1}
    1330:	0b3b0b3a 	bleq	ec4020 <__bss_end__+0xeb9c58>
    1334:	13490b39 	movtne	r0, #39737	; 0x9b39
    1338:	00001802 	andeq	r1, r0, r2, lsl #16
    133c:	0b000f0b 	bleq	4f70 <__code_start__-0x3090>
    1340:	0013490b 	andseq	r4, r3, fp, lsl #18
    1344:	012e0c00 			; <UNDEFINED> instruction: 0x012e0c00
    1348:	0e03193f 			; <UNDEFINED> instruction: 0x0e03193f
    134c:	0b3b0b3a 	bleq	ec403c <__bss_end__+0xeb9c74>
    1350:	19270b39 	stmdbne	r7!, {r0, r3, r4, r5, r8, r9, fp}
    1354:	06120111 			; <UNDEFINED> instruction: 0x06120111
    1358:	42971840 	addsmi	r1, r7, #64, 16	; 0x400000
    135c:	00130119 	andseq	r0, r3, r9, lsl r1
    1360:	00050d00 	andeq	r0, r5, r0, lsl #26
    1364:	0b3a0803 	bleq	e83378 <__bss_end__+0xe78fb0>
    1368:	0b390b3b 	bleq	e4405c <__bss_end__+0xe39c94>
    136c:	17021349 	strne	r1, [r2, -r9, asr #6]
    1370:	001742b7 			; <UNDEFINED> instruction: 0x001742b7
    1374:	00340e00 	eorseq	r0, r4, r0, lsl #28
    1378:	13490e03 	movtne	r0, #40451	; 0x9e03
    137c:	18021934 	stmdane	r2, {r2, r4, r5, r8, fp, ip}
    1380:	890f0000 	stmdbhi	pc, {}	; <UNPREDICTABLE>
    1384:	11010182 	smlabbne	r1, r2, r1, r0
    1388:	01133101 	tsteq	r3, r1, lsl #2
    138c:	10000013 	andne	r0, r0, r3, lsl r0
    1390:	0001828a 	andeq	r8, r1, sl, lsl #5
    1394:	42911802 	addsmi	r1, r1, #131072	; 0x20000
    1398:	11000018 	tstne	r0, r8, lsl r0
    139c:	00018289 	andeq	r8, r1, r9, lsl #5
    13a0:	13310111 	teqne	r1, #1073741828	; 0x40000004
    13a4:	01120000 	tsteq	r2, r0
    13a8:	01134901 	tsteq	r3, r1, lsl #18
    13ac:	13000013 	movwne	r0, #19
    13b0:	13490021 	movtne	r0, #36897	; 0x9021
    13b4:	00000b2f 	andeq	r0, r0, pc, lsr #22
    13b8:	3f002e14 	svccc	0x00002e14
    13bc:	3a0e0319 	bcc	382028 <__bss_end__+0x377c60>
    13c0:	390b3b0b 	stmdbcc	fp, {r0, r1, r3, r8, r9, fp, ip, sp}
    13c4:	1119270b 	tstne	r9, fp, lsl #14
    13c8:	40061201 	andmi	r1, r6, r1, lsl #4
    13cc:	19429718 	stmdbne	r2, {r3, r4, r8, r9, sl, ip, pc}^
    13d0:	05150000 	ldreq	r0, [r5, #-0]
    13d4:	3a080300 	bcc	201fdc <__bss_end__+0x1f7c14>
    13d8:	390b3b0b 	stmdbcc	fp, {r0, r1, r3, r8, r9, fp, ip, sp}
    13dc:	0213490b 	andseq	r4, r3, #180224	; 0x2c000
    13e0:	16000018 			; <UNDEFINED> instruction: 0x16000018
    13e4:	193f012e 	ldmdbne	pc!, {r1, r2, r3, r5, r8}	; <UNPREDICTABLE>
    13e8:	0b3a0e03 	bleq	e84bfc <__bss_end__+0xe7a834>
    13ec:	0b390b3b 	bleq	e440e0 <__bss_end__+0xe39d18>
    13f0:	13491927 	movtne	r1, #39207	; 0x9927
    13f4:	06120111 			; <UNDEFINED> instruction: 0x06120111
    13f8:	42971840 	addsmi	r1, r7, #64, 16	; 0x400000
    13fc:	00130119 	andseq	r0, r3, r9, lsl r1
    1400:	00051700 	andeq	r1, r5, r0, lsl #14
    1404:	0b3a0e03 	bleq	e84c18 <__bss_end__+0xe7a850>
    1408:	0b390b3b 	bleq	e440fc <__bss_end__+0xe39d34>
    140c:	17021349 	strne	r1, [r2, -r9, asr #6]
    1410:	001742b7 			; <UNDEFINED> instruction: 0x001742b7
    1414:	00341800 	eorseq	r1, r4, r0, lsl #16
    1418:	0b3a0803 	bleq	e8342c <__bss_end__+0xe79064>
    141c:	0b390b3b 	bleq	e44110 <__bss_end__+0xe39d48>
    1420:	17021349 	strne	r1, [r2, -r9, asr #6]
    1424:	001742b7 			; <UNDEFINED> instruction: 0x001742b7
    1428:	011d1900 	tsteq	sp, r0, lsl #18
    142c:	01521331 	cmpeq	r2, r1, lsr r3
    1430:	110b42b8 			; <UNDEFINED> instruction: 0x110b42b8
    1434:	58061201 	stmdapl	r6, {r0, r9, ip}
    1438:	570b590b 	strpl	r5, [fp, -fp, lsl #18]
    143c:	0013010b 	andseq	r0, r3, fp, lsl #2
    1440:	00051a00 	andeq	r1, r5, r0, lsl #20
    1444:	17021331 	smladxne	r2, r1, r3, r1
    1448:	001742b7 			; <UNDEFINED> instruction: 0x001742b7
    144c:	011d1b00 	tsteq	sp, r0, lsl #22
    1450:	01521331 	cmpeq	r2, r1, lsr r3
    1454:	550b42b8 	strpl	r4, [fp, #-696]	; 0xfffffd48
    1458:	590b5817 	stmdbpl	fp, {r0, r1, r2, r4, fp, ip, lr}
    145c:	010b570b 	tsteq	fp, fp, lsl #14
    1460:	1c000013 	stcne	0, cr0, [r0], {19}
    1464:	1755010b 	ldrbne	r0, [r5, -fp, lsl #2]
    1468:	341d0000 	ldrcc	r0, [sp], #-0
    146c:	3a0e0300 	bcc	382074 <__bss_end__+0x377cac>
    1470:	390b3b0b 	stmdbcc	fp, {r0, r1, r3, r8, r9, fp, ip, sp}
    1474:	0213490b 	andseq	r4, r3, #180224	; 0x2c000
    1478:	1742b717 	smlaldne	fp, r2, r7, r7
    147c:	0b1e0000 	bleq	781484 <__bss_end__+0x7770bc>
    1480:	00175500 	andseq	r5, r7, r0, lsl #10
    1484:	002e1f00 	eoreq	r1, lr, r0, lsl #30
    1488:	0e03193f 			; <UNDEFINED> instruction: 0x0e03193f
    148c:	0b3b0b3a 	bleq	ec417c <__bss_end__+0xeb9db4>
    1490:	19270b39 	stmdbne	r7!, {r0, r3, r4, r5, r8, r9, fp}
    1494:	01111349 	tsteq	r1, r9, asr #6
    1498:	18400612 	stmdane	r0, {r1, r4, r9, sl}^
    149c:	00194297 	mulseq	r9, r7, r2
    14a0:	012e2000 			; <UNDEFINED> instruction: 0x012e2000
    14a4:	0b3a0e03 	bleq	e84cb8 <__bss_end__+0xe7a8f0>
    14a8:	0b390b3b 	bleq	e4419c <__bss_end__+0xe39dd4>
    14ac:	13491927 	movtne	r1, #39207	; 0x9927
    14b0:	13010b20 	movwne	r0, #6944	; 0x1b20
    14b4:	05210000 	streq	r0, [r1, #-0]!
    14b8:	3a080300 	bcc	2020c0 <__bss_end__+0x1f7cf8>
    14bc:	390b3b0b 	stmdbcc	fp, {r0, r1, r3, r8, r9, fp, ip, sp}
    14c0:	0013490b 	andseq	r4, r3, fp, lsl #18
    14c4:	002e2200 	eoreq	r2, lr, r0, lsl #4
    14c8:	193c193f 	ldmdbne	ip!, {r0, r1, r2, r3, r4, r5, r8, fp, ip}
    14cc:	0e030e6e 	cdpeq	14, 0, cr0, cr3, cr14, {3}
    14d0:	0b3b0b3a 	bleq	ec41c0 <__bss_end__+0xeb9df8>
    14d4:	00000b39 	andeq	r0, r0, r9, lsr fp
    14d8:	01110100 	tsteq	r1, r0, lsl #2
    14dc:	0b130e25 	bleq	4c4d78 <__bss_end__+0x4ba9b0>
    14e0:	0e1b0e03 	cdpeq	14, 1, cr0, cr11, cr3, {0}
    14e4:	06120111 			; <UNDEFINED> instruction: 0x06120111
    14e8:	00001710 	andeq	r1, r0, r0, lsl r7
    14ec:	0b002402 	bleq	a4fc <__bss_end__+0x134>
    14f0:	030b3e0b 	movweq	r3, #48651	; 0xbe0b
    14f4:	0300000e 	movweq	r0, #14
    14f8:	0b0b0024 	bleq	2c1590 <__bss_end__+0x2b71c8>
    14fc:	08030b3e 	stmdaeq	r3, {r1, r2, r3, r4, r5, r8, r9, fp}
    1500:	26040000 	strcs	r0, [r4], -r0
    1504:	00134900 	andseq	r4, r3, r0, lsl #18
    1508:	00160500 	andseq	r0, r6, r0, lsl #10
    150c:	0b3a0e03 	bleq	e84d20 <__bss_end__+0xe7a958>
    1510:	0b390b3b 	bleq	e44204 <__bss_end__+0xe39e3c>
    1514:	00001349 	andeq	r1, r0, r9, asr #6
    1518:	27011506 	strcs	r1, [r1, -r6, lsl #10]
    151c:	01134919 	tsteq	r3, r9, lsl r9
    1520:	07000013 	smladeq	r0, r3, r0, r0
    1524:	13490005 	movtne	r0, #36869	; 0x9005
    1528:	34080000 	strcc	r0, [r8], #-0
    152c:	3a0e0300 	bcc	382134 <__bss_end__+0x377d6c>
    1530:	390b3b0b 	stmdbcc	fp, {r0, r1, r3, r8, r9, fp, ip, sp}
    1534:	3f13490b 	svccc	0x0013490b
    1538:	00193c19 	andseq	r3, r9, r9, lsl ip
    153c:	000f0900 	andeq	r0, pc, r0, lsl #18
    1540:	13490b0b 	movtne	r0, #39691	; 0x9b0b
    1544:	040a0000 	streq	r0, [sl], #-0
    1548:	0b0b3e01 	bleq	2d0d54 <__bss_end__+0x2c698c>
    154c:	3a13490b 	bcc	4d3980 <__bss_end__+0x4c95b8>
    1550:	390b3b0b 	stmdbcc	fp, {r0, r1, r3, r8, r9, fp, ip, sp}
    1554:	0013010b 	andseq	r0, r3, fp, lsl #2
    1558:	00280b00 	eoreq	r0, r8, r0, lsl #22
    155c:	0b1c0e03 	bleq	704d70 <__bss_end__+0x6fa9a8>
    1560:	340c0000 	strcc	r0, [ip], #-0
    1564:	3a0e0300 	bcc	38216c <__bss_end__+0x377da4>
    1568:	390b3b0b 	stmdbcc	fp, {r0, r1, r3, r8, r9, fp, ip, sp}
    156c:	1c13490b 			; <UNDEFINED> instruction: 0x1c13490b
    1570:	0d000006 	stceq	0, cr0, [r0, #-24]	; 0xffffffe8
    1574:	193f012e 	ldmdbne	pc!, {r1, r2, r3, r5, r8}	; <UNPREDICTABLE>
    1578:	0b3a0e03 	bleq	e84d8c <__bss_end__+0xe7a9c4>
    157c:	0b390b3b 	bleq	e44270 <__bss_end__+0xe39ea8>
    1580:	13491927 	movtne	r1, #39207	; 0x9927
    1584:	06120111 			; <UNDEFINED> instruction: 0x06120111
    1588:	42971840 	addsmi	r1, r7, #64, 16	; 0x400000
    158c:	00130119 	andseq	r0, r3, r9, lsl r1
    1590:	00050e00 	andeq	r0, r5, r0, lsl #28
    1594:	0b3a0803 	bleq	e835a8 <__bss_end__+0xe791e0>
    1598:	0b390b3b 	bleq	e4428c <__bss_end__+0xe39ec4>
    159c:	17021349 	strne	r1, [r2, -r9, asr #6]
    15a0:	001742b7 			; <UNDEFINED> instruction: 0x001742b7
    15a4:	00340f00 	eorseq	r0, r4, r0, lsl #30
    15a8:	0b3a0e03 	bleq	e84dbc <__bss_end__+0xe7a9f4>
    15ac:	0b390b3b 	bleq	e442a0 <__bss_end__+0xe39ed8>
    15b0:	17021349 	strne	r1, [r2, -r9, asr #6]
    15b4:	001742b7 			; <UNDEFINED> instruction: 0x001742b7
    15b8:	00341000 	eorseq	r1, r4, r0
    15bc:	0b3a0803 	bleq	e835d0 <__bss_end__+0xe79208>
    15c0:	0b390b3b 	bleq	e442b4 <__bss_end__+0xe39eec>
    15c4:	17021349 	strne	r1, [r2, -r9, asr #6]
    15c8:	001742b7 			; <UNDEFINED> instruction: 0x001742b7
    15cc:	82891100 	addhi	r1, r9, #0
    15d0:	01110101 	tsteq	r1, r1, lsl #2
    15d4:	00001331 	andeq	r1, r0, r1, lsr r3
    15d8:	01828a12 	orreq	r8, r2, r2, lsl sl
    15dc:	91180200 	tstls	r8, r0, lsl #4
    15e0:	00001842 	andeq	r1, r0, r2, asr #16
    15e4:	3f012e13 	svccc	0x00012e13
    15e8:	3a0e0319 	bcc	382254 <__bss_end__+0x377e8c>
    15ec:	390b3b0b 	stmdbcc	fp, {r0, r1, r3, r8, r9, fp, ip, sp}
    15f0:	1119270b 	tstne	r9, fp, lsl #14
    15f4:	40061201 	andmi	r1, r6, r1, lsl #4
    15f8:	19429718 	stmdbne	r2, {r3, r4, r8, r9, sl, ip, pc}^
    15fc:	00001301 	andeq	r1, r0, r1, lsl #6
    1600:	31011d14 	tstcc	r1, r4, lsl sp
    1604:	b8015213 	stmdalt	r1, {r0, r1, r4, r9, ip, lr}
    1608:	17550b42 	ldrbne	r0, [r5, -r2, asr #22]
    160c:	0b590b58 	bleq	1644374 <__bss_end__+0x1639fac>
    1610:	13010b57 	movwne	r0, #6999	; 0x1b57
    1614:	05150000 	ldreq	r0, [r5, #-0]
    1618:	02133100 	andseq	r3, r3, #0
    161c:	1742b717 	smlaldne	fp, r2, r7, r7
    1620:	89160000 	ldmdbhi	r6, {}	; <UNPREDICTABLE>
    1624:	11010182 	smlabbne	r1, r2, r1, r0
    1628:	19429501 	stmdbne	r2, {r0, r8, sl, ip, pc}^
    162c:	00001331 	andeq	r1, r0, r1, lsr r3
    1630:	31011d17 	tstcc	r1, r7, lsl sp
    1634:	b8015213 	stmdalt	r1, {r0, r1, r4, r9, ip, lr}
    1638:	01110b42 	tsteq	r1, r2, asr #22
    163c:	0b580612 	bleq	1602e8c <__bss_end__+0x15f8ac4>
    1640:	0b570b59 	bleq	15c43ac <__bss_end__+0x15b9fe4>
    1644:	1d180000 	ldcne	0, cr0, [r8, #-0]
    1648:	52133101 	andspl	r3, r3, #1073741824	; 0x40000000
    164c:	0b42b801 	bleq	10af658 <__bss_end__+0x10a5290>
    1650:	0b581755 	bleq	16073ac <__bss_end__+0x15fcfe4>
    1654:	0b570b59 	bleq	15c43c0 <__bss_end__+0x15b9ff8>
    1658:	05190000 	ldreq	r0, [r9, #-0]
    165c:	1c133100 	ldfnes	f3, [r3], {-0}
    1660:	1a00000b 	bne	1694 <__code_start__-0x696c>
    1664:	1755010b 	ldrbne	r0, [r5, -fp, lsl #2]
    1668:	341b0000 	ldrcc	r0, [fp], #-0
    166c:	00133100 	andseq	r3, r3, r0, lsl #2
    1670:	00341c00 	eorseq	r1, r4, r0, lsl #24
    1674:	17021331 	smladxne	r2, r1, r3, r1
    1678:	001742b7 			; <UNDEFINED> instruction: 0x001742b7
    167c:	82891d00 	addhi	r1, r9, #0, 26
    1680:	01110101 	tsteq	r1, r1, lsl #2
    1684:	13011331 	movwne	r1, #4913	; 0x1331
    1688:	2e1e0000 	cdpcs	0, 1, cr0, cr14, cr0, {0}
    168c:	03193f01 	tsteq	r9, #1, 30
    1690:	3b0b3a0e 	blcc	2cfed0 <__bss_end__+0x2c5b08>
    1694:	270b390b 	strcs	r3, [fp, -fp, lsl #18]
    1698:	010b2019 	tsteq	fp, r9, lsl r0
    169c:	1f000013 	svcne	0x00000013
    16a0:	08030005 	stmdaeq	r3, {r0, r2}
    16a4:	0b3b0b3a 	bleq	ec4394 <__bss_end__+0xeb9fcc>
    16a8:	13490b39 	movtne	r0, #39737	; 0x9b39
    16ac:	05200000 	streq	r0, [r0, #-0]!
    16b0:	3a0e0300 	bcc	3822b8 <__bss_end__+0x377ef0>
    16b4:	390b3b0b 	stmdbcc	fp, {r0, r1, r3, r8, r9, fp, ip, sp}
    16b8:	0013490b 	andseq	r4, r3, fp, lsl #18
    16bc:	00342100 	eorseq	r2, r4, r0, lsl #2
    16c0:	0b3a0803 	bleq	e836d4 <__bss_end__+0xe7930c>
    16c4:	0b390b3b 	bleq	e443b8 <__bss_end__+0xe39ff0>
    16c8:	00001349 	andeq	r1, r0, r9, asr #6
    16cc:	03012e22 	movweq	r2, #7714	; 0x1e22
    16d0:	3b0b3a0e 	blcc	2cff10 <__bss_end__+0x2c5b48>
    16d4:	270b390b 	strcs	r3, [fp, -fp, lsl #18]
    16d8:	20134919 	andscs	r4, r3, r9, lsl r9
    16dc:	0013010b 	andseq	r0, r3, fp, lsl #2
    16e0:	012e2300 			; <UNDEFINED> instruction: 0x012e2300
    16e4:	01111331 	tsteq	r1, r1, lsr r3
    16e8:	18400612 	stmdane	r0, {r1, r4, r9, sl}^
    16ec:	01194297 			; <UNDEFINED> instruction: 0x01194297
    16f0:	24000013 	strcs	r0, [r0], #-19	; 0xffffffed
    16f4:	193f002e 	ldmdbne	pc!, {r1, r2, r3, r5}	; <UNPREDICTABLE>
    16f8:	0e6e193c 			; <UNDEFINED> instruction: 0x0e6e193c
    16fc:	0b3a0e03 	bleq	e84f10 <__bss_end__+0xe7ab48>
    1700:	0b390b3b 	bleq	e443f4 <__bss_end__+0xe3a02c>
    1704:	01000000 	mrseq	r0, (UNDEF: 0)
    1708:	0e250111 	mcreq	1, 1, r0, cr5, cr1, {0}
    170c:	0e030b13 	vmoveq.32	d3[0], r0
    1710:	01110e1b 	tsteq	r1, fp, lsl lr
    1714:	17100612 			; <UNDEFINED> instruction: 0x17100612
    1718:	24020000 	strcs	r0, [r2], #-0
    171c:	3e0b0b00 	vmlacc.f64	d0, d11, d0
    1720:	0008030b 	andeq	r0, r8, fp, lsl #6
    1724:	00240300 	eoreq	r0, r4, r0, lsl #6
    1728:	0b3e0b0b 	bleq	f8435c <__bss_end__+0xf79f94>
    172c:	00000e03 	andeq	r0, r0, r3, lsl #28
    1730:	27011504 	strcs	r1, [r1, -r4, lsl #10]
    1734:	01134919 	tsteq	r3, r9, lsl r9
    1738:	05000013 	streq	r0, [r0, #-19]	; 0xffffffed
    173c:	13490005 	movtne	r0, #36869	; 0x9005
    1740:	34060000 	strcc	r0, [r6], #-0
    1744:	3a0e0300 	bcc	38234c <__bss_end__+0x377f84>
    1748:	390b3b0b 	stmdbcc	fp, {r0, r1, r3, r8, r9, fp, ip, sp}
    174c:	3f13490b 	svccc	0x0013490b
    1750:	00193c19 	andseq	r3, r9, r9, lsl ip
    1754:	000f0700 	andeq	r0, pc, r0, lsl #14
    1758:	13490b0b 	movtne	r0, #39691	; 0x9b0b
    175c:	26080000 	strcs	r0, [r8], -r0
    1760:	00134900 	andseq	r4, r3, r0, lsl #18
    1764:	00340900 	eorseq	r0, r4, r0, lsl #18
    1768:	0b3a1347 	bleq	e8648c <__bss_end__+0xe7c0c4>
    176c:	0b390b3b 	bleq	e44460 <__bss_end__+0xe3a098>
    1770:	00001802 	andeq	r1, r0, r2, lsl #16
    1774:	3f012e0a 	svccc	0x00012e0a
    1778:	3a0e0319 	bcc	3823e4 <__bss_end__+0x37801c>
    177c:	390b3b0b 	stmdbcc	fp, {r0, r1, r3, r8, r9, fp, ip, sp}
    1780:	1119270b 	tstne	r9, fp, lsl #14
    1784:	40061201 	andmi	r1, r6, r1, lsl #4
    1788:	19429718 	stmdbne	r2, {r3, r4, r8, r9, sl, ip, pc}^
    178c:	00001301 	andeq	r1, r0, r1, lsl #6
    1790:	0300050b 	movweq	r0, #1291	; 0x50b
    1794:	3b0b3a08 	blcc	2cffbc <__bss_end__+0x2c5bf4>
    1798:	490b390b 	stmdbmi	fp, {r0, r1, r3, r8, fp, ip, sp}
    179c:	00180213 	andseq	r0, r8, r3, lsl r2
    17a0:	002e0c00 	eoreq	r0, lr, r0, lsl #24
    17a4:	0e03193f 			; <UNDEFINED> instruction: 0x0e03193f
    17a8:	0b3b0b3a 	bleq	ec4498 <__bss_end__+0xeba0d0>
    17ac:	19270b39 	stmdbne	r7!, {r0, r3, r4, r5, r8, r9, fp}
    17b0:	06120111 			; <UNDEFINED> instruction: 0x06120111
    17b4:	42971840 	addsmi	r1, r7, #64, 16	; 0x400000
    17b8:	0d000019 	stceq	0, cr0, [r0, #-100]	; 0xffffff9c
    17bc:	0e03012e 	adfeqsp	f0, f3, #0.5
    17c0:	0b3b0b3a 	bleq	ec44b0 <__bss_end__+0xeba0e8>
    17c4:	19270b39 	stmdbne	r7!, {r0, r3, r4, r5, r8, r9, fp}
    17c8:	01111349 	tsteq	r1, r9, asr #6
    17cc:	18400612 	stmdane	r0, {r1, r4, r9, sl}^
    17d0:	01194297 			; <UNDEFINED> instruction: 0x01194297
    17d4:	0e000013 	mcreq	0, 0, r0, cr0, cr3, {0}
    17d8:	08030005 	stmdaeq	r3, {r0, r2}
    17dc:	0b3b0b3a 	bleq	ec44cc <__bss_end__+0xeba104>
    17e0:	13490b39 	movtne	r0, #39737	; 0x9b39
    17e4:	42b71702 	adcsmi	r1, r7, #524288	; 0x80000
    17e8:	0f000017 	svceq	0x00000017
    17ec:	01018289 	smlabbeq	r1, r9, r2, r8
    17f0:	13310111 	teqne	r1, #1073741828	; 0x40000004
    17f4:	8a100000 	bhi	4017fc <__bss_end__+0x3f7434>
    17f8:	02000182 	andeq	r0, r0, #-2147483616	; 0x80000020
    17fc:	18429118 	stmdane	r2, {r3, r4, r8, ip, pc}^
    1800:	2e110000 	cdpcs	0, 1, cr0, cr1, cr0, {0}
    1804:	3c193f00 	ldccc	15, cr3, [r9], {-0}
    1808:	030e6e19 	movweq	r6, #60953	; 0xee19
    180c:	3b0b3a0e 	blcc	2d004c <__bss_end__+0x2c5c84>
    1810:	000b390b 	andeq	r3, fp, fp, lsl #18
    1814:	11010000 	mrsne	r0, (UNDEF: 1)
    1818:	130e2501 	movwne	r2, #58625	; 0xe501
    181c:	1b0e030b 	blne	382450 <__bss_end__+0x378088>
    1820:	1201110e 	andne	r1, r1, #-2147483645	; 0x80000003
    1824:	00171006 	andseq	r1, r7, r6
    1828:	00240200 	eoreq	r0, r4, r0, lsl #4
    182c:	0b3e0b0b 	bleq	f84460 <__bss_end__+0xf7a098>
    1830:	00000803 	andeq	r0, r0, r3, lsl #16
    1834:	0b002403 	bleq	a848 <__bss_end__+0x480>
    1838:	030b3e0b 	movweq	r3, #48651	; 0xbe0b
    183c:	0400000e 	streq	r0, [r0], #-14
    1840:	19270115 	stmdbne	r7!, {r0, r2, r4, r8}
    1844:	13011349 	movwne	r1, #4937	; 0x1349
    1848:	05050000 	streq	r0, [r5, #-0]
    184c:	00134900 	andseq	r4, r3, r0, lsl #18
    1850:	00340600 	eorseq	r0, r4, r0, lsl #12
    1854:	0b3a0e03 	bleq	e85068 <__bss_end__+0xe7aca0>
    1858:	0b390b3b 	bleq	e4454c <__bss_end__+0xe3a184>
    185c:	193f1349 	ldmdbne	pc!, {r0, r3, r6, r8, r9, ip}	; <UNPREDICTABLE>
    1860:	0000193c 	andeq	r1, r0, ip, lsr r9
    1864:	0b000f07 	bleq	5488 <__code_start__-0x2b78>
    1868:	0013490b 	andseq	r4, r3, fp, lsl #18
    186c:	00260800 	eoreq	r0, r6, r0, lsl #16
    1870:	00001349 	andeq	r1, r0, r9, asr #6
    1874:	3f012e09 	svccc	0x00012e09
    1878:	3a0e0319 	bcc	3824e4 <__bss_end__+0x37811c>
    187c:	390b3b0b 	stmdbcc	fp, {r0, r1, r3, r8, r9, fp, ip, sp}
    1880:	4919270b 	ldmdbmi	r9, {r0, r1, r3, r8, r9, sl, sp}
    1884:	12011113 	andne	r1, r1, #-1073741820	; 0xc0000004
    1888:	97184006 	ldrls	r4, [r8, -r6]
    188c:	13011942 	movwne	r1, #6466	; 0x1942
    1890:	050a0000 	streq	r0, [sl, #-0]
    1894:	3a0e0300 	bcc	38249c <__bss_end__+0x3780d4>
    1898:	390b3b0b 	stmdbcc	fp, {r0, r1, r3, r8, r9, fp, ip, sp}
    189c:	0213490b 	andseq	r4, r3, #180224	; 0x2c000
    18a0:	0b000018 	bleq	1908 <__code_start__-0x66f8>
    18a4:	08030005 	stmdaeq	r3, {r0, r2}
    18a8:	0b3b0b3a 	bleq	ec4598 <__bss_end__+0xeba1d0>
    18ac:	13490b39 	movtne	r0, #39737	; 0x9b39
    18b0:	42b71702 	adcsmi	r1, r7, #524288	; 0x80000
    18b4:	0c000017 	stceq	0, cr0, [r0], {23}
    18b8:	08030034 	stmdaeq	r3, {r2, r4, r5}
    18bc:	0b3b0b3a 	bleq	ec45ac <__bss_end__+0xeba1e4>
    18c0:	13490b39 	movtne	r0, #39737	; 0x9b39
    18c4:	42b71702 	adcsmi	r1, r7, #524288	; 0x80000
    18c8:	00000017 	andeq	r0, r0, r7, lsl r0
    18cc:	25011101 	strcs	r1, [r1, #-257]	; 0xfffffeff
    18d0:	030b130e 	movweq	r1, #45838	; 0xb30e
    18d4:	110e1b0e 	tstne	lr, lr, lsl #22
    18d8:	10061201 	andne	r1, r6, r1, lsl #4
    18dc:	02000017 	andeq	r0, r0, #23, 0
    18e0:	0b0b0024 	bleq	2c1978 <__bss_end__+0x2b75b0>
    18e4:	08030b3e 	stmdaeq	r3, {r1, r2, r3, r4, r5, r8, r9, fp}
    18e8:	24030000 	strcs	r0, [r3], #-0
    18ec:	3e0b0b00 	vmlacc.f64	d0, d11, d0
    18f0:	000e030b 	andeq	r0, lr, fp, lsl #6
    18f4:	01150400 	tsteq	r5, r0, lsl #8
    18f8:	13491927 	movtne	r1, #39207	; 0x9927
    18fc:	00001301 	andeq	r1, r0, r1, lsl #6
    1900:	49000505 	stmdbmi	r0, {r0, r2, r8, sl}
    1904:	06000013 			; <UNDEFINED> instruction: 0x06000013
    1908:	0e030034 	mcreq	0, 0, r0, cr3, cr4, {1}
    190c:	0b3b0b3a 	bleq	ec45fc <__bss_end__+0xeba234>
    1910:	13490b39 	movtne	r0, #39737	; 0x9b39
    1914:	193c193f 	ldmdbne	ip!, {r0, r1, r2, r3, r4, r5, r8, fp, ip}
    1918:	0f070000 	svceq	0x00070000
    191c:	490b0b00 	stmdbmi	fp, {r8, r9, fp}
    1920:	08000013 	stmdaeq	r0, {r0, r1, r4}
    1924:	13490026 	movtne	r0, #36902	; 0x9026
    1928:	2e090000 	cdpcs	0, 0, cr0, cr9, cr0, {0}
    192c:	03193f01 	tsteq	r9, #1, 30
    1930:	3b0b3a0e 	blcc	2d0170 <__bss_end__+0x2c5da8>
    1934:	270b390b 	strcs	r3, [fp, -fp, lsl #18]
    1938:	11134919 	tstne	r3, r9, lsl r9
    193c:	40061201 	andmi	r1, r6, r1, lsl #4
    1940:	19429718 	stmdbne	r2, {r3, r4, r8, r9, sl, ip, pc}^
    1944:	050a0000 	streq	r0, [sl, #-0]
    1948:	3a080300 	bcc	202550 <__bss_end__+0x1f8188>
    194c:	390b3b0b 	stmdbcc	fp, {r0, r1, r3, r8, r9, fp, ip, sp}
    1950:	0213490b 	andseq	r4, r3, #180224	; 0x2c000
    1954:	1742b717 	smlaldne	fp, r2, r7, r7
    1958:	01000000 	mrseq	r0, (UNDEF: 0)
    195c:	0e250111 	mcreq	1, 1, r0, cr5, cr1, {0}
    1960:	0e030b13 	vmoveq.32	d3[0], r0
    1964:	01110e1b 	tsteq	r1, fp, lsl lr
    1968:	17100612 			; <UNDEFINED> instruction: 0x17100612
    196c:	24020000 	strcs	r0, [r2], #-0
    1970:	3e0b0b00 	vmlacc.f64	d0, d11, d0
    1974:	0008030b 	andeq	r0, r8, fp, lsl #6
    1978:	00240300 	eoreq	r0, r4, r0, lsl #6
    197c:	0b3e0b0b 	bleq	f845b0 <__bss_end__+0xf7a1e8>
    1980:	00000e03 	andeq	r0, r0, r3, lsl #28
    1984:	27011504 	strcs	r1, [r1, -r4, lsl #10]
    1988:	01134919 	tsteq	r3, r9, lsl r9
    198c:	05000013 	streq	r0, [r0, #-19]	; 0xffffffed
    1990:	13490005 	movtne	r0, #36869	; 0x9005
    1994:	34060000 	strcc	r0, [r6], #-0
    1998:	3a0e0300 	bcc	3825a0 <__bss_end__+0x3781d8>
    199c:	390b3b0b 	stmdbcc	fp, {r0, r1, r3, r8, r9, fp, ip, sp}
    19a0:	3f13490b 	svccc	0x0013490b
    19a4:	00193c19 	andseq	r3, r9, r9, lsl ip
    19a8:	000f0700 	andeq	r0, pc, r0, lsl #14
    19ac:	13490b0b 	movtne	r0, #39691	; 0x9b0b
    19b0:	26080000 	strcs	r0, [r8], -r0
    19b4:	00134900 	andseq	r4, r3, r0, lsl #18
    19b8:	012e0900 			; <UNDEFINED> instruction: 0x012e0900
    19bc:	0e03193f 			; <UNDEFINED> instruction: 0x0e03193f
    19c0:	0b3b0b3a 	bleq	ec46b0 <__bss_end__+0xeba2e8>
    19c4:	19270b39 	stmdbne	r7!, {r0, r3, r4, r5, r8, r9, fp}
    19c8:	01111349 	tsteq	r1, r9, asr #6
    19cc:	18400612 	stmdane	r0, {r1, r4, r9, sl}^
    19d0:	01194297 			; <UNDEFINED> instruction: 0x01194297
    19d4:	0a000013 	beq	1a28 <__code_start__-0x65d8>
    19d8:	08030005 	stmdaeq	r3, {r0, r2}
    19dc:	0b3b0b3a 	bleq	ec46cc <__bss_end__+0xeba304>
    19e0:	13490b39 	movtne	r0, #39737	; 0x9b39
    19e4:	00001802 	andeq	r1, r0, r2, lsl #16
    19e8:	0300050b 	movweq	r0, #1291	; 0x50b
    19ec:	3b0b3a08 	blcc	2d0214 <__bss_end__+0x2c5e4c>
    19f0:	490b390b 	stmdbmi	fp, {r0, r1, r3, r8, fp, ip, sp}
    19f4:	b7170213 			; <UNDEFINED> instruction: 0xb7170213
    19f8:	00001742 	andeq	r1, r0, r2, asr #14
    19fc:	0300340c 	movweq	r3, #1036	; 0x40c
    1a00:	3b0b3a08 	blcc	2d0228 <__bss_end__+0x2c5e60>
    1a04:	490b390b 	stmdbmi	fp, {r0, r1, r3, r8, fp, ip, sp}
    1a08:	b7170213 			; <UNDEFINED> instruction: 0xb7170213
    1a0c:	00001742 	andeq	r1, r0, r2, asr #14
    1a10:	01110100 	tsteq	r1, r0, lsl #2
    1a14:	0b130e25 	bleq	4c52b0 <__bss_end__+0x4baee8>
    1a18:	0e1b0e03 	cdpeq	14, 1, cr0, cr11, cr3, {0}
    1a1c:	06120111 			; <UNDEFINED> instruction: 0x06120111
    1a20:	00001710 	andeq	r1, r0, r0, lsl r7
    1a24:	0b002402 	bleq	aa34 <__bss_end__+0x66c>
    1a28:	030b3e0b 	movweq	r3, #48651	; 0xbe0b
    1a2c:	03000008 	movweq	r0, #8
    1a30:	0e030016 	mcreq	0, 0, r0, cr3, cr6, {0}
    1a34:	0b3b0b3a 	bleq	ec4724 <__bss_end__+0xeba35c>
    1a38:	13490b39 	movtne	r0, #39737	; 0x9b39
    1a3c:	24040000 	strcs	r0, [r4], #-0
    1a40:	3e0b0b00 	vmlacc.f64	d0, d11, d0
    1a44:	000e030b 	andeq	r0, lr, fp, lsl #6
    1a48:	00260500 	eoreq	r0, r6, r0, lsl #10
    1a4c:	00001349 	andeq	r1, r0, r9, asr #6
    1a50:	27011506 	strcs	r1, [r1, -r6, lsl #10]
    1a54:	01134919 	tsteq	r3, r9, lsl r9
    1a58:	07000013 	smladeq	r0, r3, r0, r0
    1a5c:	13490005 	movtne	r0, #36869	; 0x9005
    1a60:	34080000 	strcc	r0, [r8], #-0
    1a64:	3a0e0300 	bcc	38266c <__bss_end__+0x3782a4>
    1a68:	390b3b0b 	stmdbcc	fp, {r0, r1, r3, r8, r9, fp, ip, sp}
    1a6c:	3f13490b 	svccc	0x0013490b
    1a70:	00193c19 	andseq	r3, r9, r9, lsl ip
    1a74:	000f0900 	andeq	r0, pc, r0, lsl #18
    1a78:	13490b0b 	movtne	r0, #39691	; 0x9b0b
    1a7c:	2e0a0000 	cdpcs	0, 0, cr0, cr10, cr0, {0}
    1a80:	03193f01 	tsteq	r9, #1, 30
    1a84:	3b0b3a0e 	blcc	2d02c4 <__bss_end__+0x2c5efc>
    1a88:	270b390b 	strcs	r3, [fp, -fp, lsl #18]
    1a8c:	11134919 	tstne	r3, r9, lsl r9
    1a90:	40061201 	andmi	r1, r6, r1, lsl #4
    1a94:	19429718 	stmdbne	r2, {r3, r4, r8, r9, sl, ip, pc}^
    1a98:	00001301 	andeq	r1, r0, r1, lsl #6
    1a9c:	0300050b 	movweq	r0, #1291	; 0x50b
    1aa0:	3b0b3a08 	blcc	2d02c8 <__bss_end__+0x2c5f00>
    1aa4:	490b390b 	stmdbmi	fp, {r0, r1, r3, r8, fp, ip, sp}
    1aa8:	b7170213 			; <UNDEFINED> instruction: 0xb7170213
    1aac:	00001742 	andeq	r1, r0, r2, asr #14
    1ab0:	0300340c 	movweq	r3, #1036	; 0x40c
    1ab4:	3b0b3a08 	blcc	2d02dc <__bss_end__+0x2c5f14>
    1ab8:	490b390b 	stmdbmi	fp, {r0, r1, r3, r8, fp, ip, sp}
    1abc:	b7170213 			; <UNDEFINED> instruction: 0xb7170213
    1ac0:	00001742 	andeq	r1, r0, r2, asr #14
    1ac4:	01110100 	tsteq	r1, r0, lsl #2
    1ac8:	0b130e25 	bleq	4c5364 <__bss_end__+0x4baf9c>
    1acc:	0e1b0e03 	cdpeq	14, 1, cr0, cr11, cr3, {0}
    1ad0:	06120111 			; <UNDEFINED> instruction: 0x06120111
    1ad4:	00001710 	andeq	r1, r0, r0, lsl r7
    1ad8:	0b002402 	bleq	aae8 <__bss_end__+0x720>
    1adc:	030b3e0b 	movweq	r3, #48651	; 0xbe0b
    1ae0:	03000008 	movweq	r0, #8
    1ae4:	0b0b0024 	bleq	2c1b7c <__bss_end__+0x2b77b4>
    1ae8:	0e030b3e 	vmoveq.16	d3[0], r0
    1aec:	15040000 	strne	r0, [r4, #-0]
    1af0:	49192701 	ldmdbmi	r9, {r0, r8, r9, sl, sp}
    1af4:	00130113 	andseq	r0, r3, r3, lsl r1
    1af8:	00050500 	andeq	r0, r5, r0, lsl #10
    1afc:	00001349 	andeq	r1, r0, r9, asr #6
    1b00:	03003406 	movweq	r3, #1030	; 0x406
    1b04:	3b0b3a0e 	blcc	2d0344 <__bss_end__+0x2c5f7c>
    1b08:	490b390b 	stmdbmi	fp, {r0, r1, r3, r8, fp, ip, sp}
    1b0c:	3c193f13 	ldccc	15, cr3, [r9], {19}
    1b10:	07000019 	smladeq	r0, r9, r0, r0
    1b14:	0b0b000f 	bleq	2c1b58 <__bss_end__+0x2b7790>
    1b18:	00001349 	andeq	r1, r0, r9, asr #6
    1b1c:	49002608 	stmdbmi	r0, {r3, r9, sl, sp}
    1b20:	09000013 	stmdbeq	r0, {r0, r1, r4}
    1b24:	193f002e 	ldmdbne	pc!, {r1, r2, r3, r5}	; <UNPREDICTABLE>
    1b28:	0b3a0e03 	bleq	e8533c <__bss_end__+0xe7af74>
    1b2c:	0b390b3b 	bleq	e44820 <__bss_end__+0xe3a458>
    1b30:	01111927 	tsteq	r1, r7, lsr #18
    1b34:	18400612 	stmdane	r0, {r1, r4, r9, sl}^
    1b38:	00194297 	mulseq	r9, r7, r2
	...

Disassembly of section .debug_loc:

00000000 <.debug_loc>:
       0:	00300000 	eorseq	r0, r0, r0
       4:	004b0000 	subeq	r0, fp, r0
       8:	00010000 	andeq	r0, r1, r0
       c:	00000050 	andeq	r0, r0, r0, asr r0
      10:	00000000 	andeq	r0, r0, r0
      14:	08000100 	stmdaeq	r0, {r8}
      18:	20000000 	andcs	r0, r0, r0
      1c:	02000000 	andeq	r0, r0, #0, 0
      20:	009f3700 	addseq	r3, pc, r0, lsl #14
      24:	00000000 	andeq	r0, r0, r0
      28:	01000000 	mrseq	r0, (UNDEF: 0)
      2c:	00000800 	andeq	r0, r0, r0, lsl #16
      30:	00002000 	andeq	r2, r0, r0
      34:	f2000600 	vmax.s8	d0, d0, d0
      38:	0000021f 	andeq	r0, r0, pc, lsl r2
	...
      44:	08000100 	stmdaeq	r0, {r8}
      48:	20000000 	andcs	r0, r0, r0
      4c:	06000000 	streq	r0, [r0], -r0
      50:	9b200300 	blls	800c58 <__bss_end__+0x7f6890>
      54:	009f0000 	addseq	r0, pc, r0
      58:	00000000 	andeq	r0, r0, r0
      5c:	01000000 	mrseq	r0, (UNDEF: 0)
      60:	00003000 	andeq	r3, r0, r0
      64:	00004000 	andeq	r4, r0, r0
      68:	38000200 	stmdacc	r0, {r9}
      6c:	0000009f 	muleq	r0, pc, r0	; <UNPREDICTABLE>
      70:	00000000 	andeq	r0, r0, r0
      74:	30000100 	andcc	r0, r0, r0, lsl #2
      78:	40000000 	andmi	r0, r0, r0
      7c:	06000000 	streq	r0, [r0], -r0
      80:	021ff200 	andseq	pc, pc, #0, 4
	...
      8c:	01000000 	mrseq	r0, (UNDEF: 0)
      90:	00003000 	andeq	r3, r0, r0
      94:	00004000 	andeq	r4, r0, r0
      98:	03000600 	movweq	r0, #1536	; 0x600
      9c:	00009b20 	andeq	r9, r0, r0, lsr #22
      a0:	0000009f 	muleq	r0, pc, r0	; <UNPREDICTABLE>
	...
      b0:	00000800 	andeq	r0, r0, r0, lsl #16
      b4:	00007800 	andeq	r7, r0, r0, lsl #16
      b8:	51000100 	mrspl	r0, (UNDEF: 16)
      bc:	00000078 	andeq	r0, r0, r8, ror r0
      c0:	00000084 	andeq	r0, r0, r4, lsl #1
      c4:	78700003 	ldmdavc	r0!, {r0, r1}^
      c8:	0000849f 	muleq	r0, pc, r4	; <UNPREDICTABLE>
      cc:	0000a400 	andeq	sl, r0, r0, lsl #8
      d0:	51000100 	mrspl	r0, (UNDEF: 16)
      d4:	000000a4 	andeq	r0, r0, r4, lsr #1
      d8:	000000bc 	strheq	r0, [r0], -ip
      dc:	78700003 	ldmdavc	r0!, {r0, r1}^
      e0:	0000009f 	muleq	r0, pc, r0	; <UNPREDICTABLE>
	...
      ec:	00001000 	andeq	r1, r0, r0
      f0:	00004800 	andeq	r4, r0, r0, lsl #16
      f4:	53000100 	movwpl	r0, #256	; 0x100
      f8:	0000004c 	andeq	r0, r0, ip, asr #32
      fc:	000000bc 	strheq	r0, [r0], -ip
     100:	00530001 	subseq	r0, r3, r1
	...
     114:	24000001 	strcs	r0, [r0], #-1
     118:	01000001 	tsteq	r0, r1
     11c:	01245000 			; <UNDEFINED> instruction: 0x01245000
     120:	01280000 			; <UNDEFINED> instruction: 0x01280000
     124:	00040000 	andeq	r0, r4, r0
     128:	9f5001f3 	svcls	0x005001f3
     12c:	00000128 	andeq	r0, r0, r8, lsr #2
     130:	00000140 	andeq	r0, r0, r0, asr #2
     134:	40500001 	subsmi	r0, r0, r1
     138:	ac000001 	stcge	0, cr0, [r0], {1}
     13c:	04000001 	streq	r0, [r0], #-1
     140:	5001f300 	andpl	pc, r1, r0, lsl #6
     144:	0000009f 	muleq	r0, pc, r0	; <UNPREDICTABLE>
	...
     154:	00000101 	andeq	r0, r0, r1, lsl #2
     158:	24000000 	strcs	r0, [r0], #-0
     15c:	28000001 	stmdacs	r0, {r0}
     160:	01000001 	tsteq	r0, r1
     164:	01405000 	mrseq	r5, (UNDEF: 64)
     168:	01600000 	cmneq	r0, r0
     16c:	00010000 	andeq	r0, r1, r0
     170:	00016050 	andeq	r6, r1, r0, asr r0
     174:	00016400 	andeq	r6, r1, r0, lsl #8
     178:	70000300 	andvc	r0, r0, r0, lsl #6
     17c:	01649f78 	smceq	18936	; 0x49f8
     180:	01700000 	cmneq	r0, r0
     184:	00010000 	andeq	r0, r1, r0
     188:	00017050 	andeq	r7, r1, r0, asr r0
     18c:	00017800 	andeq	r7, r1, r0, lsl #16
     190:	70000200 	andvc	r0, r0, r0, lsl #4
     194:	00017800 	andeq	r7, r1, r0, lsl #16
     198:	00019800 	andeq	r9, r1, r0, lsl #16
     19c:	50000100 	andpl	r0, r0, r0, lsl #2
     1a0:	0000019c 	muleq	r0, ip, r1
     1a4:	000001ac 	andeq	r0, r0, ip, lsr #3
     1a8:	00500001 	subseq	r0, r0, r1
	...
     1b4:	00000101 	andeq	r0, r0, r1, lsl #2
     1b8:	00000100 	andeq	r0, r0, r0, lsl #2
     1bc:	00011800 	andeq	r1, r1, r0, lsl #16
     1c0:	00012800 	andeq	r2, r1, r0, lsl #16
     1c4:	52000100 	andpl	r0, r0, #0
     1c8:	00000128 	andeq	r0, r0, r8, lsr #2
     1cc:	00000140 	andeq	r0, r0, r0, asr #2
     1d0:	b8030006 	stmdalt	r3, {r1, r2}
     1d4:	9f00009f 	svcls	0x0000009f
     1d8:	00000140 	andeq	r0, r0, r0, asr #2
     1dc:	00000170 	andeq	r0, r0, r0, ror r1
     1e0:	70520001 	subsvc	r0, r2, r1
     1e4:	78000001 	stmdavc	r0, {r0}
     1e8:	01000001 	tsteq	r0, r1
     1ec:	01785000 	cmneq	r8, r0
     1f0:	019b0000 	orrseq	r0, fp, r0
     1f4:	00010000 	andeq	r0, r1, r0
     1f8:	00000052 	andeq	r0, r0, r2, asr r0
     1fc:	00000000 	andeq	r0, r0, r0
     200:	10000000 	andne	r0, r0, r0
     204:	ac000001 	stcge	0, cr0, [r0], {1}
     208:	01000001 	tsteq	r0, r1
     20c:	00005400 	andeq	r5, r0, r0, lsl #8
	...
     218:	00bc0000 	adcseq	r0, ip, r0
     21c:	00cc0000 	sbceq	r0, ip, r0
     220:	00010000 	andeq	r0, r1, r0
     224:	0000cc50 	andeq	ip, r0, r0, asr ip
     228:	00010000 	andeq	r0, r1, r0
     22c:	54000100 	strpl	r0, [r0], #-256	; 0xffffff00
	...
     23c:	00d40000 	sbcseq	r0, r4, r0
     240:	00e40000 	rsceq	r0, r4, r0
     244:	00010000 	andeq	r0, r1, r0
     248:	0000e450 	andeq	lr, r0, r0, asr r4
     24c:	0000e700 	andeq	lr, r0, r0, lsl #14
     250:	70000300 	andvc	r0, r0, r0, lsl #6
     254:	00f49f78 	rscseq	r9, r4, r8, ror pc
     258:	00f80000 	rscseq	r0, r8, r0
     25c:	00010000 	andeq	r0, r1, r0
     260:	00000050 	andeq	r0, r0, r0, asr r0
     264:	00000000 	andeq	r0, r0, r0
     268:	00000100 	andeq	r0, r0, r0, lsl #2
     26c:	0000dc00 	andeq	sp, r0, r0, lsl #24
     270:	0000e400 	andeq	lr, r0, r0, lsl #8
     274:	50000100 	andpl	r0, r0, r0, lsl #2
     278:	000000e4 	andeq	r0, r0, r4, ror #1
     27c:	000000e7 	andeq	r0, r0, r7, ror #1
     280:	78700003 	ldmdavc	r0!, {r0, r1}^
     284:	0000009f 	muleq	r0, pc, r0	; <UNPREDICTABLE>
	...
     294:	00000700 	andeq	r0, r0, r0, lsl #14
     298:	50000100 	andpl	r0, r0, r0, lsl #2
     29c:	00000007 	andeq	r0, r0, r7
     2a0:	0000000c 	andeq	r0, r0, ip
     2a4:	01f30004 	mvnseq	r0, r4
     2a8:	00009f50 	andeq	r9, r0, r0, asr pc
	...
     2b8:	0000026c 	andeq	r0, r0, ip, ror #4
     2bc:	00000284 	andeq	r0, r0, r4, lsl #5
     2c0:	84500001 	ldrbhi	r0, [r0], #-1
     2c4:	f0000002 			; <UNDEFINED> instruction: 0xf0000002
     2c8:	01000002 	tsteq	r0, r2
     2cc:	02f05600 	rscseq	r5, r0, #0, 12
     2d0:	02fc0000 	rscseq	r0, ip, #0, 0
     2d4:	00040000 	andeq	r0, r4, r0
     2d8:	9f5001f3 	svcls	0x005001f3
	...
     2e8:	028c0000 	addeq	r0, ip, #0, 0
     2ec:	02970000 	addseq	r0, r7, #0, 0
     2f0:	00010000 	andeq	r0, r1, r0
     2f4:	00029750 	andeq	r9, r2, r0, asr r7
     2f8:	0002f000 	andeq	pc, r2, r0
     2fc:	54000100 	strpl	r0, [r0], #-256	; 0xffffff00
     300:	000002f0 	strdeq	r0, [r0], -r0	; <UNPREDICTABLE>
     304:	000002fc 	strdeq	r0, [r0], -ip
     308:	c0030005 	andgt	r0, r3, r5
     30c:	0000009f 	muleq	r0, pc, r0	; <UNPREDICTABLE>
	...
     318:	80000000 	andhi	r0, r0, r0
     31c:	90000001 	andls	r0, r0, r1
     320:	01000001 	tsteq	r0, r1
     324:	01905000 	orrseq	r5, r0, r0
     328:	026c0000 	rsbeq	r0, ip, #0, 0
     32c:	00010000 	andeq	r0, r1, r0
     330:	00000054 	andeq	r0, r0, r4, asr r0
     334:	00000000 	andeq	r0, r0, r0
     338:	02020100 	andeq	r0, r2, #0
     33c:	00000000 	andeq	r0, r0, r0
     340:	94000000 	strls	r0, [r0], #-0
     344:	94000001 	strls	r0, [r0], #-1
     348:	01000001 	tsteq	r0, r1
     34c:	01945400 	orrseq	r5, r4, r0, lsl #8
     350:	01d00000 	bicseq	r0, r0, r0
     354:	00030000 	andeq	r0, r3, r0
     358:	d09f5c74 	addsle	r5, pc, r4, ror ip	; <UNPREDICTABLE>
     35c:	04000001 	streq	r0, [r0], #-1
     360:	01000002 	tsteq	r0, r2
     364:	02045500 	andeq	r5, r4, #0, 10
     368:	02280000 	eoreq	r0, r8, #0, 0
     36c:	00030000 	andeq	r0, r3, r0
     370:	289f5c74 	ldmcs	pc, {r2, r4, r5, r6, sl, fp, ip, lr}	; <UNPREDICTABLE>
     374:	6c000002 	stcvs	0, cr0, [r0], {2}
     378:	01000002 	tsteq	r0, r2
     37c:	00005500 	andeq	r5, r0, r0, lsl #10
	...
     394:	00000020 	andeq	r0, r0, r0, lsr #32
     398:	00000038 	andeq	r0, r0, r8, lsr r0
     39c:	38500001 	ldmdacc	r0, {r0}^
     3a0:	40000000 	andmi	r0, r0, r0
     3a4:	01000000 	mrseq	r0, (UNDEF: 0)
     3a8:	00405300 	subeq	r5, r0, r0, lsl #6
     3ac:	00680000 	rsbeq	r0, r8, r0
     3b0:	00040000 	andeq	r0, r4, r0
     3b4:	9f5001f3 	svcls	0x005001f3
     3b8:	00000068 	andeq	r0, r0, r8, rrx
     3bc:	00000080 	andeq	r0, r0, r0, lsl #1
     3c0:	80500001 	subshi	r0, r0, r1
     3c4:	88000000 	stmdahi	r0, {}	; <UNPREDICTABLE>
     3c8:	04000000 	streq	r0, [r0], #-0
     3cc:	5001f300 	andpl	pc, r1, r0, lsl #6
     3d0:	0000889f 	muleq	r0, pc, r8	; <UNPREDICTABLE>
     3d4:	00009400 	andeq	r9, r0, r0, lsl #8
     3d8:	53000100 	movwpl	r0, #256	; 0x100
     3dc:	00000094 	muleq	r0, r4, r0
     3e0:	000000c4 	andeq	r0, r0, r4, asr #1
     3e4:	01f30004 	mvnseq	r0, r4
     3e8:	00009f50 	andeq	r9, r0, r0, asr pc
	...
     3fc:	00200000 	eoreq	r0, r0, r0
     400:	00400000 	subeq	r0, r0, r0
     404:	00010000 	andeq	r0, r1, r0
     408:	00004051 	andeq	r4, r0, r1, asr r0
     40c:	00006800 	andeq	r6, r0, r0, lsl #16
     410:	54000100 	strpl	r0, [r0], #-256	; 0xffffff00
     414:	00000068 	andeq	r0, r0, r8, rrx
     418:	0000007c 	andeq	r0, r0, ip, ror r0
     41c:	7c510001 	mrrcvc	0, 0, r0, r1, cr1
     420:	88000000 	stmdahi	r0, {}	; <UNPREDICTABLE>
     424:	04000000 	streq	r0, [r0], #-0
     428:	5101f300 	mrspl	pc, SP_irq	; <UNPREDICTABLE>
     42c:	0000889f 	muleq	r0, pc, r8	; <UNPREDICTABLE>
     430:	00009400 	andeq	r9, r0, r0, lsl #8
     434:	51000100 	mrspl	r0, (UNDEF: 16)
     438:	00000094 	muleq	r0, r4, r0
     43c:	000000c4 	andeq	r0, r0, r4, asr #1
     440:	00540001 	subseq	r0, r4, r1
	...
     44c:	00010000 	andeq	r0, r1, r0
     450:	38000000 	stmdacc	r0, {}	; <UNPREDICTABLE>
     454:	47000000 	strmi	r0, [r0, -r0]
     458:	01000000 	mrseq	r0, (UNDEF: 0)
     45c:	00475000 	subeq	r5, r7, r0
     460:	00600000 	rsbeq	r0, r0, r0
     464:	00010000 	andeq	r0, r1, r0
     468:	00008855 	andeq	r8, r0, r5, asr r8
     46c:	00009400 	andeq	r9, r0, r0, lsl #8
     470:	50000100 	andpl	r0, r0, r0, lsl #2
     474:	00000094 	muleq	r0, r4, r0
     478:	000000c4 	andeq	r0, r0, r4, asr #1
     47c:	00550001 	subseq	r0, r5, r1
	...
     488:	48000001 	stmdami	r0, {r0}
     48c:	60000000 	andvs	r0, r0, r0
     490:	01000000 	mrseq	r0, (UNDEF: 0)
     494:	00945000 	addseq	r5, r4, r0
     498:	00a80000 	adceq	r0, r8, r0
     49c:	00010000 	andeq	r0, r1, r0
     4a0:	00000050 	andeq	r0, r0, r0, asr r0
	...
     4ac:	00012000 	andeq	r2, r1, r0
     4b0:	00012b00 	andeq	r2, r1, r0, lsl #22
     4b4:	50000100 	andpl	r0, r0, r0, lsl #2
     4b8:	0000012b 	andeq	r0, r0, fp, lsr #2
     4bc:	00000180 	andeq	r0, r0, r0, lsl #3
     4c0:	00550001 	subseq	r0, r5, r1
	...
     4d4:	30000000 	andcc	r0, r0, r0
     4d8:	43000001 	movwmi	r0, #1
     4dc:	01000001 	tsteq	r0, r1
     4e0:	01435000 	mrseq	r5, (UNDEF: 67)
     4e4:	01580000 	cmpeq	r8, r0
     4e8:	00010000 	andeq	r0, r1, r0
     4ec:	00015854 	andeq	r5, r1, r4, asr r8
     4f0:	00015c00 	andeq	r5, r1, r0, lsl #24
     4f4:	50000100 	andpl	r0, r0, r0, lsl #2
     4f8:	0000015c 	andeq	r0, r0, ip, asr r1
     4fc:	00000174 	andeq	r0, r0, r4, ror r1
     500:	74540001 	ldrbvc	r0, [r4], #-1
     504:	78000001 	stmdavc	r0, {r0}
     508:	01000001 	tsteq	r0, r1
     50c:	01785000 	cmneq	r8, r0
     510:	01800000 	orreq	r0, r0, r0
     514:	00010000 	andeq	r0, r1, r0
     518:	00000054 	andeq	r0, r0, r4, asr r0
	...
     528:	0000e400 	andeq	lr, r0, r0, lsl #8
     52c:	00010000 	andeq	r0, r1, r0
     530:	50000100 	andpl	r0, r0, r0, lsl #2
     534:	00000100 	andeq	r0, r0, r0, lsl #2
     538:	00000110 	andeq	r0, r0, r0, lsl r1
     53c:	01f30004 	mvnseq	r0, r4
     540:	01109f50 	tsteq	r0, r0, asr pc
     544:	01140000 	tsteq	r4, r0
     548:	00010000 	andeq	r0, r1, r0
     54c:	00011450 	andeq	r1, r1, r0, asr r4
     550:	00012000 	andeq	r2, r1, r0
     554:	f3000400 	vshl.u8	d0, d0, d0
     558:	009f5001 	addseq	r5, pc, r1
	...
     564:	cc000000 	stcgt	0, cr0, [r0], {-0}
     568:	d7000000 	strle	r0, [r0, -r0]
     56c:	01000000 	mrseq	r0, (UNDEF: 0)
     570:	00d75000 	sbcseq	r5, r7, r0
     574:	00e40000 	rsceq	r0, r4, r0
     578:	00010000 	andeq	r0, r1, r0
     57c:	00000054 	andeq	r0, r0, r4, asr r0
     580:	00000000 	andeq	r0, r0, r0
     584:	d8000000 	stmdale	r0, {}	; <UNPREDICTABLE>
     588:	dc000000 	stcle	0, cr0, [r0], {-0}
     58c:	01000000 	mrseq	r0, (UNDEF: 0)
     590:	00005400 	andeq	r5, r0, r0, lsl #8
	...
     59c:	00c40000 	sbceq	r0, r4, r0
     5a0:	00c80000 	sbceq	r0, r8, r0
     5a4:	00010000 	andeq	r0, r1, r0
     5a8:	0000c850 	andeq	ip, r0, r0, asr r8
     5ac:	0000cc00 	andeq	ip, r0, r0, lsl #24
     5b0:	70000300 	andvc	r0, r0, r0, lsl #6
     5b4:	00009f5c 	andeq	r9, r0, ip, asr pc
	...
     5c0:	00100000 	andseq	r0, r0, r0
     5c4:	001c0000 	andseq	r0, ip, r0
     5c8:	00010000 	andeq	r0, r1, r0
     5cc:	00001c50 	andeq	r1, r0, r0, asr ip
     5d0:	00002000 	andeq	r2, r0, r0
     5d4:	f3000400 	vshl.u8	d0, d0, d0
     5d8:	009f5001 	addseq	r5, pc, r1
	...
     5e8:	1c000000 	stcne	0, cr0, [r0], {-0}
     5ec:	01000000 	mrseq	r0, (UNDEF: 0)
     5f0:	001c5100 	andseq	r5, ip, r0, lsl #2
     5f4:	00780000 	rsbseq	r0, r8, r0
     5f8:	00040000 	andeq	r0, r4, r0
     5fc:	9f5101f3 	svcls	0x005101f3
	...
     610:	00000058 	andeq	r0, r0, r8, asr r0
     614:	58520001 	ldmdapl	r2, {r0}^
     618:	78000000 	stmdavc	r0, {}	; <UNPREDICTABLE>
     61c:	04000000 	streq	r0, [r0], #-0
     620:	5201f300 	andpl	pc, r1, #0, 6
     624:	0000009f 	muleq	r0, pc, r0	; <UNPREDICTABLE>
     628:	00000000 	andeq	r0, r0, r0
     62c:	00000200 	andeq	r0, r0, r0, lsl #4
     630:	00000101 	andeq	r0, r0, r1, lsl #2
     634:	00000101 	andeq	r0, r0, r1, lsl #2
     638:	00000101 	andeq	r0, r0, r1, lsl #2
     63c:	38000000 	stmdacc	r0, {}	; <UNPREDICTABLE>
     640:	01000000 	mrseq	r0, (UNDEF: 0)
     644:	00545000 	subseq	r5, r4, r0
     648:	00540000 	subseq	r0, r4, r0
     64c:	00010000 	andeq	r0, r1, r0
     650:	00005453 	andeq	r5, r0, r3, asr r4
     654:	00005c00 	andeq	r5, r0, r0, lsl #24
     658:	73000300 	movwvc	r0, #768	; 0x300
     65c:	005c9f01 	subseq	r9, ip, r1, lsl #30
     660:	00640000 	rsbeq	r0, r4, r0
     664:	00010000 	andeq	r0, r1, r0
     668:	00006452 	andeq	r6, r0, r2, asr r4
     66c:	00006800 	andeq	r6, r0, r0, lsl #16
     670:	73000300 	movwvc	r0, #768	; 0x300
     674:	00689f02 	rsbeq	r9, r8, r2, lsl #30
     678:	00740000 	rsbseq	r0, r4, r0
     67c:	00010000 	andeq	r0, r1, r0
     680:	00007452 	andeq	r7, r0, r2, asr r4
     684:	00007800 	andeq	r7, r0, r0, lsl #16
     688:	72000300 	andvc	r0, r0, #0, 6
     68c:	00009f01 	andeq	r9, r0, r1, lsl #30
	...
     698:	00000008 	andeq	r0, r0, r8
     69c:	00000078 	andeq	r0, r0, r8, ror r0
     6a0:	00540001 	subseq	r0, r4, r1
	...
     6b0:	00002c00 	andeq	r2, r0, r0, lsl #24
     6b4:	00003400 	andeq	r3, r0, r0, lsl #8
     6b8:	50000100 	andpl	r0, r0, r0, lsl #2
     6bc:	00000034 	andeq	r0, r0, r4, lsr r0
     6c0:	00000048 	andeq	r0, r0, r8, asr #32
     6c4:	48540001 	ldmdami	r4, {r0}^
     6c8:	58000000 	stmdapl	r0, {}	; <UNPREDICTABLE>
     6cc:	01000000 	mrseq	r0, (UNDEF: 0)
     6d0:	00005000 	andeq	r5, r0, r0
	...
     6dc:	00010100 	andeq	r0, r1, r0, lsl #2
     6e0:	00000000 	andeq	r0, r0, r0
     6e4:	000c0000 	andeq	r0, ip, r0
     6e8:	00010000 	andeq	r0, r1, r0
     6ec:	00000c50 	andeq	r0, r0, r0, asr ip
     6f0:	00002000 	andeq	r2, r0, r0
     6f4:	54000100 	strpl	r0, [r0], #-256	; 0xffffff00
     6f8:	00000020 	andeq	r0, r0, r0, lsr #32
     6fc:	00000024 	andeq	r0, r0, r4, lsr #32
     700:	01740003 	cmneq	r4, r3
     704:	0000249f 	muleq	r0, pc, r4	; <UNPREDICTABLE>
     708:	00003800 	andeq	r3, r0, r0, lsl #16
     70c:	54000100 	strpl	r0, [r0], #-256	; 0xffffff00
	...
     720:	03880000 	orreq	r0, r8, #0, 0
     724:	03940000 	orrseq	r0, r4, #0, 0
     728:	00010000 	andeq	r0, r1, r0
     72c:	00039450 	andeq	r9, r3, r0, asr r4
     730:	0003d000 	andeq	sp, r3, r0
     734:	5b000100 	blpl	b3c <__code_start__-0x74c4>
     738:	000003d0 	ldrdeq	r0, [r0], -r0	; <UNPREDICTABLE>
     73c:	00000920 	andeq	r0, r0, r0, lsr #18
     740:	01f30004 	mvnseq	r0, r4
     744:	09209f50 	stmdbeq	r0!, {r4, r6, r8, r9, sl, fp, ip, pc}
     748:	09280000 	stmdbeq	r8!, {}	; <UNPREDICTABLE>
     74c:	00010000 	andeq	r0, r1, r0
     750:	0009285b 	andeq	r2, r9, fp, asr r8
     754:	0009b400 	andeq	fp, r9, r0, lsl #8
     758:	f3000400 	vshl.u8	d0, d0, d0
     75c:	009f5001 	addseq	r5, pc, r1
	...
     76c:	88000000 	stmdahi	r0, {}	; <UNPREDICTABLE>
     770:	d0000003 	andle	r0, r0, r3
     774:	01000003 	tsteq	r0, r3
     778:	03d05100 	bicseq	r5, r0, #0
     77c:	09200000 	stmdbeq	r0!, {}	; <UNPREDICTABLE>
     780:	00040000 	andeq	r0, r4, r0
     784:	9f5101f3 	svcls	0x005101f3
     788:	00000920 	andeq	r0, r0, r0, lsr #18
     78c:	00000928 	andeq	r0, r0, r8, lsr #18
     790:	28510001 	ldmdacs	r1, {r0}^
     794:	b4000009 	strlt	r0, [r0], #-9
     798:	04000009 	streq	r0, [r0], #-9
     79c:	5101f300 	mrspl	pc, SP_irq	; <UNPREDICTABLE>
     7a0:	0000009f 	muleq	r0, pc, r0	; <UNPREDICTABLE>
	...
     7b0:	01000001 	tsteq	r0, r1
	...
     7c0:	00038800 	andeq	r8, r3, r0, lsl #16
     7c4:	0003d000 	andeq	sp, r3, r0
     7c8:	52000100 	andpl	r0, r0, #0
     7cc:	000003d0 	ldrdeq	r0, [r0], -r0	; <UNPREDICTABLE>
     7d0:	00000400 	andeq	r0, r0, r0, lsl #8
     7d4:	14560001 	ldrbne	r0, [r6], #-1
     7d8:	24000004 	strcs	r0, [r0], #-4
     7dc:	01000004 	tsteq	r0, r4
     7e0:	04245600 	strteq	r5, [r4], #-1536	; 0xfffffa00
     7e4:	04280000 	strteq	r0, [r8], #-0
     7e8:	00030000 	andeq	r0, r3, r0
     7ec:	a89f7f76 	ldmge	pc, {r1, r2, r4, r5, r6, r8, r9, sl, fp, ip, sp, lr}	; <UNPREDICTABLE>
     7f0:	ac000004 	stcge	0, cr0, [r0], {4}
     7f4:	01000004 	tsteq	r0, r4
     7f8:	04e05600 	strbteq	r5, [r0], #1536	; 0x600
     7fc:	05040000 	streq	r0, [r4, #-0]
     800:	00010000 	andeq	r0, r1, r0
     804:	00057c56 	andeq	r7, r5, r6, asr ip
     808:	00058800 	andeq	r8, r5, r0, lsl #16
     80c:	53000100 	movwpl	r0, #256	; 0x100
     810:	00000588 	andeq	r0, r0, r8, lsl #11
     814:	000005d0 	ldrdeq	r0, [r0], -r0	; <UNPREDICTABLE>
     818:	cc910003 	ldcgt	0, cr0, [r1], {3}
     81c:	0008007d 	andeq	r0, r8, sp, ror r0
     820:	00080f00 	andeq	r0, r8, r0, lsl #30
     824:	53000100 	movwpl	r0, #256	; 0x100
     828:	0000080f 	andeq	r0, r0, pc, lsl #16
     82c:	00000888 	andeq	r0, r0, r8, lsl #17
     830:	cc910003 	ldcgt	0, cr0, [r1], {3}
     834:	0009207d 	andeq	r2, r9, sp, ror r0
     838:	00092800 	andeq	r2, r9, r0, lsl #16
     83c:	52000100 	andpl	r0, r0, #0
     840:	00000948 	andeq	r0, r0, r8, asr #18
     844:	00000964 	andeq	r0, r0, r4, ror #18
     848:	cc910003 	ldcgt	0, cr0, [r1], {3}
     84c:	0000007d 	andeq	r0, r0, sp, ror r0
	...
     85c:	01010000 	mrseq	r0, (UNDEF: 1)
     860:	01010000 	mrseq	r0, (UNDEF: 1)
     864:	00000000 	andeq	r0, r0, r0
     868:	00000202 	andeq	r0, r0, r2, lsl #4
     86c:	00000202 	andeq	r0, r0, r2, lsl #4
     870:	00000101 	andeq	r0, r0, r1, lsl #2
     874:	00000202 	andeq	r0, r0, r2, lsl #4
     878:	00000101 	andeq	r0, r0, r1, lsl #2
     87c:	00000000 	andeq	r0, r0, r0
     880:	88000000 	stmdahi	r0, {}	; <UNPREDICTABLE>
     884:	ac000003 	stcge	0, cr0, [r0], {3}
     888:	01000003 	tsteq	r0, r3
     88c:	03ac5300 			; <UNDEFINED> instruction: 0x03ac5300
     890:	03c00000 	biceq	r0, r0, #0, 0
     894:	00030000 	andeq	r0, r3, r0
     898:	d0049353 	andle	r9, r4, r3, asr r3
     89c:	e8000003 	stmda	r0, {r0, r1}
     8a0:	03000003 	movweq	r0, #3
     8a4:	04935800 	ldreq	r5, [r3], #2048	; 0x800
     8a8:	000003e8 	andeq	r0, r0, r8, ror #7
     8ac:	000004ac 	andeq	r0, r0, ip, lsr #9
     8b0:	93580003 	cmpls	r8, #3, 0
     8b4:	0004c004 	andeq	ip, r4, r4
     8b8:	0004c000 	andeq	ip, r4, r0
     8bc:	58000300 	stmdapl	r0, {r8, r9}
     8c0:	04c00493 	strbeq	r0, [r0], #1171	; 0x493
     8c4:	04cc0000 	strbeq	r0, [ip], #0
     8c8:	00050000 	andeq	r0, r5, r0
     8cc:	939f0478 	orrsls	r0, pc, #120, 8	; 0x78000000
     8d0:	0004cc04 	andeq	ip, r4, r4, lsl #24
     8d4:	0004e000 	andeq	lr, r4, r0
     8d8:	58000300 	stmdapl	r0, {r8, r9}
     8dc:	04e00493 	strbteq	r0, [r0], #1171	; 0x493
     8e0:	05380000 	ldreq	r0, [r8, #-0]!
     8e4:	00030000 	andeq	r0, r3, r0
     8e8:	38049358 	stmdacc	r4, {r3, r4, r6, r8, r9, ip, pc}
     8ec:	3c000005 	stccc	0, cr0, [r0], {5}
     8f0:	05000005 	streq	r0, [r0, #-5]
     8f4:	9f797800 	svcls	0x00797800
     8f8:	05d00493 	ldrbeq	r0, [r0, #1171]	; 0x493
     8fc:	05d00000 	ldrbeq	r0, [r0]
     900:	00030000 	andeq	r0, r3, r0
     904:	d0049358 	andle	r9, r4, r8, asr r3
     908:	d4000005 	strle	r0, [r0], #-5
     90c:	05000005 	streq	r0, [r0, #-5]
     910:	9f047800 	svcls	0x00047800
     914:	05f40493 	ldrbeq	r0, [r4, #1171]!	; 0x493
     918:	05f40000 	ldrbeq	r0, [r4, #0]!
     91c:	00030000 	andeq	r0, r3, r0
     920:	f4049358 	vst2.16	{d9-d12}, [r4 :64], r8
     924:	fc000005 	stc2	0, cr0, [r0], {5}
     928:	05000005 	streq	r0, [r0, #-5]
     92c:	9f047800 	svcls	0x00047800
     930:	05fc0493 	ldrbeq	r0, [ip, #1171]!	; 0x493
     934:	05fc0000 	ldrbeq	r0, [ip, #0]!
     938:	00030000 	andeq	r0, r3, r0
     93c:	fc049358 	stc2	3, cr9, [r4], {88}	; 0x58
     940:	00000005 	andeq	r0, r0, r5
     944:	05000006 	streq	r0, [r0, #-6]
     948:	9f047800 	svcls	0x00047800
     94c:	06000493 			; <UNDEFINED> instruction: 0x06000493
     950:	07000000 	streq	r0, [r0, -r0]
     954:	00030000 	andeq	r0, r3, r0
     958:	00049358 	andeq	r9, r4, r8, asr r3
     95c:	0c000007 	stceq	0, cr0, [r0], {7}
     960:	05000007 	streq	r0, [r0, #-7]
     964:	9f047800 	svcls	0x00047800
     968:	070c0493 			; <UNDEFINED> instruction: 0x070c0493
     96c:	07f80000 	ldrbeq	r0, [r8, r0]!
     970:	00030000 	andeq	r0, r3, r0
     974:	f8049358 			; <UNDEFINED> instruction: 0xf8049358
     978:	fc000007 	stc2	0, cr0, [r0], {7}
     97c:	05000007 	streq	r0, [r0, #-7]
     980:	9f047800 	svcls	0x00047800
     984:	07fc0493 			; <UNDEFINED> instruction: 0x07fc0493
     988:	08000000 	stmdaeq	r0, {}	; <UNPREDICTABLE>
     98c:	00030000 	andeq	r0, r3, r0
     990:	88049358 	stmdahi	r4, {r3, r4, r6, r8, r9, ip, pc}
     994:	20000008 	andcs	r0, r0, r8
     998:	03000009 	movweq	r0, #9
     99c:	04935800 	ldreq	r5, [r3], #2048	; 0x800
     9a0:	00000920 	andeq	r0, r0, r0, lsr #18
     9a4:	00000928 	andeq	r0, r0, r8, lsr #18
     9a8:	64530001 	ldrbvs	r0, [r3], #-1
     9ac:	b4000009 	strlt	r0, [r0], #-9
     9b0:	03000009 	movweq	r0, #9
     9b4:	04935800 	ldreq	r5, [r3], #2048	; 0x800
	...
     9c0:	00000001 	andeq	r0, r0, r1
     9c4:	00000000 	andeq	r0, r0, r0
     9c8:	00020200 	andeq	r0, r2, r0, lsl #4
     9cc:	01010000 	mrseq	r0, (UNDEF: 1)
     9d0:	00000001 	andeq	r0, r0, r1
     9d4:	03ac0000 			; <UNDEFINED> instruction: 0x03ac0000
     9d8:	03d00000 	bicseq	r0, r0, #0, 0
     9dc:	00010000 	andeq	r0, r1, r0
     9e0:	0003d05b 	andeq	sp, r3, fp, asr r0
     9e4:	0003d400 	andeq	sp, r3, r0, lsl #8
     9e8:	54000100 	strpl	r0, [r0], #-256	; 0xffffff00
     9ec:	000003d4 	ldrdeq	r0, [r0], -r4
     9f0:	000003d8 	ldrdeq	r0, [r0], -r8
     9f4:	7f740003 	svcvc	0x00740003
     9f8:	0003d89f 	muleq	r3, pc, r8	; <UNPREDICTABLE>
     9fc:	0003fc00 	andeq	pc, r3, r0, lsl #24
     a00:	54000100 	strpl	r0, [r0], #-256	; 0xffffff00
     a04:	000004a8 	andeq	r0, r0, r8, lsr #9
     a08:	000004ac 	andeq	r0, r0, ip, lsr #9
     a0c:	ac540001 	mrrcge	0, 0, r0, r4, cr1
     a10:	b4000004 	strlt	r0, [r0], #-4
     a14:	03000004 	movweq	r0, #4
     a18:	9f017400 	svcls	0x00017400
     a1c:	000004b4 			; <UNDEFINED> instruction: 0x000004b4
     a20:	000004c0 	andeq	r0, r0, r0, asr #9
     a24:	e4540001 	ldrb	r0, [r4], #-1
     a28:	f4000004 	vst4.8	{d0-d3}, [r0], r4
     a2c:	01000004 	tsteq	r0, r4
     a30:	04f45400 	ldrbteq	r5, [r4], #1024	; 0x400
     a34:	04f80000 	ldrbteq	r0, [r8], #0
     a38:	00030000 	andeq	r0, r3, r0
     a3c:	f89f0174 			; <UNDEFINED> instruction: 0xf89f0174
     a40:	04000004 	streq	r0, [r0], #-4
     a44:	01000005 	tsteq	r0, r5
     a48:	09205400 	stmdbeq	r0!, {sl, ip, lr}
     a4c:	09280000 	stmdbeq	r8!, {}	; <UNPREDICTABLE>
     a50:	00010000 	andeq	r0, r1, r0
     a54:	0000005b 	andeq	r0, r0, fp, asr r0
     a58:	00000000 	andeq	r0, r0, r0
     a5c:	ac000100 	stfges	f0, [r0], {-0}
     a60:	b4000003 	strlt	r0, [r0], #-3
     a64:	01000009 	tsteq	r0, r9
     a68:	00005700 	andeq	r5, r0, r0, lsl #14
     a6c:	00000000 	andeq	r0, r0, r0
     a70:	00020000 	andeq	r0, r2, r0
     a74:	00000000 	andeq	r0, r0, r0
     a78:	0000057c 	andeq	r0, r0, ip, ror r5
     a7c:	000005d0 	ldrdeq	r0, [r0], -r0	; <UNPREDICTABLE>
     a80:	005b0001 	subseq	r0, fp, r1
     a84:	88000008 	stmdahi	r0, {r3}
     a88:	01000008 	tsteq	r0, r8
     a8c:	09485b00 	stmdbeq	r8, {r8, r9, fp, ip, lr}^
     a90:	09640000 	stmdbeq	r4!, {}^	; <UNPREDICTABLE>
     a94:	00010000 	andeq	r0, r1, r0
     a98:	0000005b 	andeq	r0, r0, fp, asr r0
     a9c:	00000000 	andeq	r0, r0, r0
     aa0:	00000300 	andeq	r0, r0, r0, lsl #6
     aa4:	7c000000 	stcvc	0, cr0, [r0], {-0}
     aa8:	d0000005 	andle	r0, r0, r5
     aac:	01000005 	tsteq	r0, r5
     ab0:	08005900 	stmdaeq	r0, {r8, fp, ip, lr}
     ab4:	08880000 	stmeq	r8, {}	; <UNPREDICTABLE>
     ab8:	00010000 	andeq	r0, r1, r0
     abc:	00094859 	andeq	r4, r9, r9, asr r8
     ac0:	00096400 	andeq	r6, r9, r0, lsl #8
     ac4:	59000100 	stmdbpl	r0, {r8}
	...
     ad0:	00000004 	andeq	r0, r0, r4
     ad4:	00000000 	andeq	r0, r0, r0
     ad8:	000003ac 	andeq	r0, r0, ip, lsr #7
     adc:	000003d0 	ldrdeq	r0, [r0], -r0	; <UNPREDICTABLE>
     ae0:	d0520001 	subsle	r0, r2, r1
     ae4:	20000003 	andcs	r0, r0, r3
     ae8:	04000009 	streq	r0, [r0], #-9
     aec:	5201f300 	andpl	pc, r1, #0, 6
     af0:	0009209f 	muleq	r9, pc, r0	; <UNPREDICTABLE>
     af4:	00092800 	andeq	r2, r9, r0, lsl #16
     af8:	52000100 	andpl	r0, r0, #0
     afc:	00000928 	andeq	r0, r0, r8, lsr #18
     b00:	000009b4 			; <UNDEFINED> instruction: 0x000009b4
     b04:	01f30004 	mvnseq	r0, r4
     b08:	00009f52 	andeq	r9, r0, r2, asr pc
     b0c:	00000000 	andeq	r0, r0, r0
     b10:	01000000 	mrseq	r0, (UNDEF: 0)
     b14:	00000001 	andeq	r0, r0, r1
     b18:	00010000 	andeq	r0, r1, r0
     b1c:	04e00000 	strbteq	r0, [r0], #0
     b20:	04e00000 	strbteq	r0, [r0], #0
     b24:	00010000 	andeq	r0, r1, r0
     b28:	0004e050 	andeq	lr, r4, r0, asr r0
     b2c:	0004e800 	andeq	lr, r4, r0, lsl #16
     b30:	55000100 	strpl	r0, [r0, #-256]	; 0xffffff00
     b34:	000005b8 			; <UNDEFINED> instruction: 0x000005b8
     b38:	000005d0 	ldrdeq	r0, [r0], -r0	; <UNPREDICTABLE>
     b3c:	f0550001 			; <UNDEFINED> instruction: 0xf0550001
     b40:	f4000005 	vst4.8	{d0-d3}, [r0], r5
     b44:	01000005 	tsteq	r0, r5
     b48:	07f45000 	ldrbeq	r5, [r4, r0]!
     b4c:	07f80000 	ldrbeq	r0, [r8, r0]!
     b50:	00010000 	andeq	r0, r1, r0
     b54:	00085055 	andeq	r5, r8, r5, asr r0
     b58:	00088800 	andeq	r8, r8, r0, lsl #16
     b5c:	55000100 	strpl	r0, [r0, #-256]	; 0xffffff00
	...
     b68:	00000002 	andeq	r0, r0, r2
     b6c:	00000000 	andeq	r0, r0, r0
     b70:	00000414 	andeq	r0, r0, r4, lsl r4
     b74:	00000418 	andeq	r0, r0, r8, lsl r4
     b78:	9f300002 	svcls	0x00300002
     b7c:	00000418 	andeq	r0, r0, r8, lsl r4
     b80:	0000041c 	andeq	r0, r0, ip, lsl r4
     b84:	28550001 	ldmdacs	r5, {r0}^
     b88:	3c000004 	stccc	0, cr0, [r0], {4}
     b8c:	01000004 	tsteq	r0, r4
     b90:	09285500 	stmdbeq	r8!, {r8, sl, ip, lr}
     b94:	09300000 	ldmdbeq	r0!, {}	; <UNPREDICTABLE>
     b98:	00010000 	andeq	r0, r1, r0
     b9c:	00000055 	andeq	r0, r0, r5, asr r0
     ba0:	00000000 	andeq	r0, r0, r0
     ba4:	00000100 	andeq	r0, r0, r0, lsl #2
	...
     bb0:	00050400 	andeq	r0, r5, r0, lsl #8
     bb4:	00058400 	andeq	r8, r5, r0, lsl #8
     bb8:	56000100 	strpl	r0, [r0], -r0, lsl #2
     bbc:	00000584 	andeq	r0, r0, r4, lsl #11
     bc0:	00000588 	andeq	r0, r0, r8, lsl #11
     bc4:	7e730003 	cdpvc	0, 7, cr0, cr3, cr3, {0}
     bc8:	0005889f 	muleq	r5, pc, r8	; <UNPREDICTABLE>
     bcc:	0005d000 	andeq	sp, r5, r0
     bd0:	91000700 	tstls	r0, r0, lsl #14
     bd4:	32067dcc 	andcc	r7, r6, #204, 26	; 0x3300
     bd8:	08009f1c 	stmdaeq	r0, {r2, r3, r4, r8, r9, sl, fp, ip, pc}
     bdc:	081c0000 	ldmdaeq	ip, {}	; <UNPREDICTABLE>
     be0:	00010000 	andeq	r0, r1, r0
     be4:	00081c56 	andeq	r1, r8, r6, asr ip
     be8:	00088800 	andeq	r8, r8, r0, lsl #16
     bec:	91000700 	tstls	r0, r0, lsl #14
     bf0:	32067dcc 	andcc	r7, r6, #204, 26	; 0x3300
     bf4:	09489f1c 	stmdbeq	r8, {r2, r3, r4, r8, r9, sl, fp, ip, pc}^
     bf8:	09b40000 	ldmibeq	r4!, {}	; <UNPREDICTABLE>
     bfc:	00010000 	andeq	r0, r1, r0
     c00:	00000056 	andeq	r0, r0, r6, asr r0
     c04:	00000000 	andeq	r0, r0, r0
     c08:	02060400 	andeq	r0, r6, #0, 8
     c0c:	00041404 	andeq	r1, r4, r4, lsl #8
     c10:	00041400 	andeq	r1, r4, r0, lsl #8
     c14:	72000600 	andvc	r0, r0, #0, 12
     c18:	1aff0800 	bne	fffc2c20 <__bss_end__+0xfffb8858>
     c1c:	0004289f 	muleq	r4, pc, r8	; <UNPREDICTABLE>
     c20:	00042800 	andeq	r2, r4, r0, lsl #16
     c24:	72000600 	andvc	r0, r0, #0, 12
     c28:	1aff0800 	bne	fffc2c30 <__bss_end__+0xfffb8868>
     c2c:	0000009f 	muleq	r0, pc, r0	; <UNPREDICTABLE>
     c30:	00000000 	andeq	r0, r0, r0
     c34:	00000200 	andeq	r0, r0, r0, lsl #4
     c38:	fc000000 	stc2	0, cr0, [r0], {-0}
     c3c:	00000005 	andeq	r0, r0, r5
     c40:	03000007 	movweq	r0, #7
     c44:	9f800800 	svcls	0x00800800
     c48:	000008a8 	andeq	r0, r0, r8, lsr #17
     c4c:	000008bc 			; <UNDEFINED> instruction: 0x000008bc
     c50:	80080003 	andhi	r0, r8, r3
     c54:	0009109f 	muleq	r9, pc, r0	; <UNPREDICTABLE>
     c58:	00092000 	andeq	r2, r9, r0
     c5c:	08000300 	stmdaeq	r0, {r8, r9}
     c60:	00009f80 	andeq	r9, r0, r0, lsl #31
     c64:	00000000 	andeq	r0, r0, r0
     c68:	00010000 	andeq	r0, r1, r0
     c6c:	00000000 	andeq	r0, r0, r0
     c70:	000005fc 	strdeq	r0, [r0], -ip
     c74:	00000700 	andeq	r0, r0, r0, lsl #14
     c78:	9f300002 	svcls	0x00300002
     c7c:	000008a8 	andeq	r0, r0, r8, lsr #17
     c80:	000008bc 			; <UNDEFINED> instruction: 0x000008bc
     c84:	9f300002 	svcls	0x00300002
     c88:	00000910 	andeq	r0, r0, r0, lsl r9
     c8c:	00000920 	andeq	r0, r0, r0, lsr #18
     c90:	9f300002 	svcls	0x00300002
	...
     c9c:	00000001 	andeq	r0, r0, r1
     ca0:	05fc0000 	ldrbeq	r0, [ip, #0]!
     ca4:	06e00000 	strbteq	r0, [r0], r0
     ca8:	00010000 	andeq	r0, r1, r0
     cac:	0008a855 	andeq	sl, r8, r5, asr r8
     cb0:	0008bc00 	andeq	fp, r8, r0, lsl #24
     cb4:	55000100 	strpl	r0, [r0, #-256]	; 0xffffff00
     cb8:	00000910 	andeq	r0, r0, r0, lsl r9
     cbc:	00000920 	andeq	r0, r0, r0, lsr #18
     cc0:	00550001 	subseq	r0, r5, r1
     cc4:	00000000 	andeq	r0, r0, r0
     cc8:	01000000 	mrseq	r0, (UNDEF: 0)
     ccc:	00000000 	andeq	r0, r0, r0
     cd0:	fc000000 	stc2	0, cr0, [r0], {-0}
     cd4:	e0000005 	and	r0, r0, r5
     cd8:	04000006 	streq	r0, [r0], #-6
     cdc:	7dd09100 	ldfvcp	f1, [r0]
     ce0:	0006e09f 	muleq	r6, pc, r0	; <UNPREDICTABLE>
     ce4:	00070000 	andeq	r0, r7, r0
     ce8:	55000100 	strpl	r0, [r0, #-256]	; 0xffffff00
     cec:	000008a8 	andeq	r0, r0, r8, lsr #17
     cf0:	000008bc 			; <UNDEFINED> instruction: 0x000008bc
     cf4:	d0910004 	addsle	r0, r1, r4
     cf8:	09109f7d 	ldmdbeq	r0, {r0, r2, r3, r4, r5, r6, r8, r9, sl, fp, ip, pc}
     cfc:	09200000 	stmdbeq	r0!, {}	; <UNPREDICTABLE>
     d00:	00040000 	andeq	r0, r4, r0
     d04:	9f7dd091 	svcls	0x007dd091
	...
     d10:	00000001 	andeq	r0, r0, r1
     d14:	05fc0000 	ldrbeq	r0, [ip, #0]!
     d18:	07000000 	streq	r0, [r0, -r0]
     d1c:	00020000 	andeq	r0, r2, r0
     d20:	08a89f38 	stmiaeq	r8!, {r3, r4, r5, r8, r9, sl, fp, ip, pc}
     d24:	08bc0000 	ldmeq	ip!, {}	; <UNPREDICTABLE>
     d28:	00020000 	andeq	r0, r2, r0
     d2c:	09109f38 	ldmdbeq	r0, {r3, r4, r5, r8, r9, sl, fp, ip, pc}
     d30:	09200000 	stmdbeq	r0!, {}	; <UNPREDICTABLE>
     d34:	00020000 	andeq	r0, r2, r0
     d38:	00009f38 	andeq	r9, r0, r8, lsr pc
     d3c:	00000000 	andeq	r0, r0, r0
     d40:	07040000 	streq	r0, [r4, -r0]
     d44:	00000007 	andeq	r0, r0, r7
	...
     d50:	000005fc 	strdeq	r0, [r0], -ip
     d54:	000005fc 	strdeq	r0, [r0], -ip
     d58:	d0910004 	addsle	r0, r1, r4
     d5c:	05fc9f7e 	ldrbeq	r9, [ip, #3966]!	; 0xf7e
     d60:	06780000 	ldrbteq	r0, [r8], -r0
     d64:	00040000 	andeq	r0, r4, r0
     d68:	9f7ed191 	svcls	0x007ed191
     d6c:	00000678 	andeq	r0, r0, r8, ror r6
     d70:	000006d4 	ldrdeq	r0, [r0], -r4
     d74:	d45c0001 	ldrble	r0, [ip], #-1
     d78:	00000006 	andeq	r0, r0, r6
     d7c:	04000007 	streq	r0, [r0], #-7
     d80:	7ed19100 	atnvcs	f1, f0
     d84:	0008a89f 	muleq	r8, pc, r8	; <UNPREDICTABLE>
     d88:	0008bc00 	andeq	fp, r8, r0, lsl #24
     d8c:	91000400 	tstls	r0, r0, lsl #8
     d90:	109f7ed1 			; <UNDEFINED> instruction: 0x109f7ed1
     d94:	14000009 	strne	r0, [r0], #-9
     d98:	04000009 	streq	r0, [r0], #-9
     d9c:	7ed19100 	atnvcs	f1, f0
     da0:	0009149f 	muleq	r9, pc, r4	; <UNPREDICTABLE>
     da4:	00092000 	andeq	r2, r9, r0
     da8:	5c000100 	stfpls	f0, [r0], {-0}
	...
     db4:	01000104 	tsteq	r0, r4, lsl #2
     db8:	06080000 	streq	r0, [r8], -r0
     dbc:	06d00000 	ldrbeq	r0, [r0], r0
     dc0:	00010000 	andeq	r0, r1, r0
     dc4:	0008a855 	andeq	sl, r8, r5, asr r8
     dc8:	0008b800 	andeq	fp, r8, r0, lsl #16
     dcc:	55000100 	strpl	r0, [r0, #-256]	; 0xffffff00
     dd0:	00000910 	andeq	r0, r0, r0, lsl r9
     dd4:	00000920 	andeq	r0, r0, r0, lsr #18
     dd8:	00550001 	subseq	r0, r5, r1
     ddc:	00000000 	andeq	r0, r0, r0
     de0:	04000000 	streq	r0, [r0], #-0
     de4:	00000000 	andeq	r0, r0, r0
     de8:	00000001 	andeq	r0, r0, r1
     dec:	08000001 	stmdaeq	r0, {r0}
     df0:	b0000006 	andlt	r0, r0, r6
     df4:	04000006 	streq	r0, [r0], #-6
     df8:	7ed09100 	atnvcs	f1, f0
     dfc:	0006b09f 	muleq	r6, pc, r0	; <UNPREDICTABLE>
     e00:	0006c800 	andeq	ip, r6, r0, lsl #16
     e04:	50000100 	andpl	r0, r0, r0, lsl #2
     e08:	000006c8 	andeq	r0, r0, r8, asr #13
     e0c:	000006d0 	ldrdeq	r0, [r0], -r0	; <UNPREDICTABLE>
     e10:	d0910004 	addsle	r0, r1, r4
     e14:	08a89f7e 	stmiaeq	r8!, {r1, r2, r3, r4, r5, r6, r8, r9, sl, fp, ip, pc}
     e18:	08b00000 	ldmeq	r0!, {}	; <UNPREDICTABLE>
     e1c:	00040000 	andeq	r0, r4, r0
     e20:	9f7ed091 	svcls	0x007ed091
     e24:	000008b0 			; <UNDEFINED> instruction: 0x000008b0
     e28:	000008b8 			; <UNDEFINED> instruction: 0x000008b8
     e2c:	10530001 	subsne	r0, r3, r1
     e30:	20000009 	andcs	r0, r0, r9
     e34:	04000009 	streq	r0, [r0], #-9
     e38:	7ed09100 	atnvcs	f1, f0
     e3c:	0000009f 	muleq	r0, pc, r0	; <UNPREDICTABLE>
     e40:	00000000 	andeq	r0, r0, r0
     e44:	00000400 	andeq	r0, r0, r0, lsl #8
     e48:	01010101 	tsteq	r1, r1, lsl #2
     e4c:	00020303 	andeq	r0, r2, r3, lsl #6
     e50:	00000001 	andeq	r0, r0, r1
     e54:	00060800 	andeq	r0, r6, r0, lsl #16
     e58:	00062400 	andeq	r2, r6, r0, lsl #8
     e5c:	91000400 	tstls	r0, r0, lsl #8
     e60:	849f7ed1 	ldrhi	r7, [pc], #3793	; e68 <__code_start__-0x7198>
     e64:	84000006 	strhi	r0, [r0], #-6
     e68:	01000006 	tsteq	r0, r6
     e6c:	06845000 	streq	r5, [r4], r0
     e70:	06980000 	ldreq	r0, [r8], r0
     e74:	00030000 	andeq	r0, r3, r0
     e78:	989f0170 	ldmls	pc, {r4, r5, r6, r8}	; <UNPREDICTABLE>
     e7c:	a4000006 	strge	r0, [r0], #-6
     e80:	03000006 	movweq	r0, #6
     e84:	9f027000 	svcls	0x00027000
     e88:	000006a4 	andeq	r0, r0, r4, lsr #13
     e8c:	000006a8 	andeq	r0, r0, r8, lsr #13
     e90:	03700003 	cmneq	r0, #3, 0
     e94:	0008a89f 	muleq	r8, pc, r8	; <UNPREDICTABLE>
     e98:	0008b800 	andeq	fp, r8, r0, lsl #16
     e9c:	91000400 	tstls	r0, r0, lsl #8
     ea0:	109f7ed1 			; <UNDEFINED> instruction: 0x109f7ed1
     ea4:	14000009 	strne	r0, [r0], #-9
     ea8:	04000009 	streq	r0, [r0], #-9
     eac:	7ed19100 	atnvcs	f1, f0
     eb0:	0009149f 	muleq	r9, pc, r4	; <UNPREDICTABLE>
     eb4:	00092000 	andeq	r2, r9, r0
     eb8:	5c000100 	stfpls	f0, [r0], {-0}
	...
     ec4:	01000006 	tsteq	r0, r6
     ec8:	01010101 	tsteq	r1, r1, lsl #2
     ecc:	01000201 	tsteq	r0, r1, lsl #4
     ed0:	06080000 	streq	r0, [r8], -r0
     ed4:	06240000 	strteq	r0, [r4], -r0
     ed8:	00020000 	andeq	r0, r2, r0
     edc:	06849f31 			; <UNDEFINED> instruction: 0x06849f31
     ee0:	06940000 	ldreq	r0, [r4], r0
     ee4:	00010000 	andeq	r0, r1, r0
     ee8:	00069452 	andeq	r9, r6, r2, asr r4
     eec:	0006a400 	andeq	sl, r6, r0, lsl #8
     ef0:	59000100 	stmdbpl	r0, {r8}
     ef4:	000006a4 	andeq	r0, r0, r4, lsr #13
     ef8:	000006a8 	andeq	r0, r0, r8, lsr #13
     efc:	a8520001 	ldmdage	r2, {r0}^
     f00:	a8000006 	stmdage	r0, {r1, r2}
     f04:	03000006 	movweq	r0, #6
     f08:	9f017200 	svcls	0x00017200
     f0c:	000008a8 	andeq	r0, r0, r8, lsr #17
     f10:	000008b8 			; <UNDEFINED> instruction: 0x000008b8
     f14:	9f310002 	svcls	0x00310002
     f18:	00000910 	andeq	r0, r0, r0, lsl r9
     f1c:	00000920 	andeq	r0, r0, r0, lsr #18
     f20:	9f310002 	svcls	0x00310002
	...
     f2c:	00060601 	andeq	r0, r6, r1, lsl #12
     f30:	06d00001 	ldrbeq	r0, [r0], r1
     f34:	06d00000 	ldrbeq	r0, [r0], r0
     f38:	00040000 	andeq	r0, r4, r0
     f3c:	9f7ed091 	svcls	0x007ed091
     f40:	000006d0 	ldrdeq	r0, [r0], -r0	; <UNPREDICTABLE>
     f44:	00000700 	andeq	r0, r0, r0, lsl #14
     f48:	b8500001 	ldmdalt	r0, {r0}^
     f4c:	bc000008 	stclt	0, cr0, [r0], {8}
     f50:	01000008 	tsteq	r0, r8
     f54:	00005300 	andeq	r5, r0, r0, lsl #6
     f58:	00000000 	andeq	r0, r0, r0
     f5c:	08010000 	stmdaeq	r1, {}	; <UNPREDICTABLE>
     f60:	01000000 	mrseq	r0, (UNDEF: 0)
     f64:	07010001 	streq	r0, [r1, -r1]
     f68:	000006d0 	ldrdeq	r0, [r0], -r0	; <UNPREDICTABLE>
     f6c:	000006d0 	ldrdeq	r0, [r0], -r0	; <UNPREDICTABLE>
     f70:	007c0006 	rsbseq	r0, ip, r6
     f74:	9f220071 	svcls	0x00220071
     f78:	000006e4 	andeq	r0, r0, r4, ror #13
     f7c:	000006e8 	andeq	r0, r0, r8, ror #13
     f80:	7f730003 	svcvc	0x00730003
     f84:	0006e89f 	muleq	r6, pc, r8	; <UNPREDICTABLE>
     f88:	0006f000 	andeq	pc, r6, r0
     f8c:	53000100 	movwpl	r0, #256	; 0x100
     f90:	000006f0 	strdeq	r0, [r0], -r0	; <UNPREDICTABLE>
     f94:	000006f8 	strdeq	r0, [r0], -r8
     f98:	7f730003 	svcvc	0x00730003
     f9c:	0008b89f 	muleq	r8, pc, r8	; <UNPREDICTABLE>
     fa0:	0008b800 	andeq	fp, r8, r0, lsl #16
     fa4:	91000400 	tstls	r0, r0, lsl #8
     fa8:	009f7ed1 			; <UNDEFINED> instruction: 0x009f7ed1
     fac:	00000000 	andeq	r0, r0, r0
     fb0:	01000000 	mrseq	r0, (UNDEF: 0)
     fb4:	d0000100 	andle	r0, r0, r0, lsl #2
     fb8:	00000006 	andeq	r0, r0, r6
     fbc:	03000007 	movweq	r0, #7
     fc0:	9f800800 	svcls	0x00800800
     fc4:	000008b8 			; <UNDEFINED> instruction: 0x000008b8
     fc8:	000008bc 			; <UNDEFINED> instruction: 0x000008bc
     fcc:	80080003 	andhi	r0, r8, r3
     fd0:	0000009f 	muleq	r0, pc, r0	; <UNPREDICTABLE>
     fd4:	00000000 	andeq	r0, r0, r0
     fd8:	00000100 	andeq	r0, r0, r0, lsl #2
     fdc:	01010000 	mrseq	r0, (UNDEF: 1)
     fe0:	02000000 	andeq	r0, r0, #0, 0
     fe4:	d0000101 	andle	r0, r0, r1, lsl #2
     fe8:	e0000006 	and	r0, r0, r6
     fec:	04000006 	streq	r0, [r0], #-6
     ff0:	7dd09100 	ldfvcp	f1, [r0]
     ff4:	0006e09f 	muleq	r6, pc, r0	; <UNPREDICTABLE>
     ff8:	0006e400 	andeq	lr, r6, r0, lsl #8
     ffc:	55000100 	strpl	r0, [r0, #-256]	; 0xffffff00
    1000:	000006e4 	andeq	r0, r0, r4, ror #13
    1004:	000006e4 	andeq	r0, r0, r4, ror #13
    1008:	01720003 	cmneq	r2, r3
    100c:	0006e49f 	muleq	r6, pc, r4	; <UNPREDICTABLE>
    1010:	0006f000 	andeq	pc, r6, r0
    1014:	72000300 	andvc	r0, r0, #0, 6
    1018:	06f09f02 	ldrbteq	r9, [r0], r2, lsl #30
    101c:	07000000 	streq	r0, [r0, -r0]
    1020:	00030000 	andeq	r0, r3, r0
    1024:	ec9f0172 	ldfs	f0, [pc], {114}	; 0x72
    1028:	f4000007 	vst4.8	{d0-d3}, [r0], r7
    102c:	03000007 	movweq	r0, #7
    1030:	9f017300 	svcls	0x00017300
    1034:	000008b8 			; <UNDEFINED> instruction: 0x000008b8
    1038:	000008bc 			; <UNDEFINED> instruction: 0x000008bc
    103c:	d0910004 	addsle	r0, r1, r4
    1040:	00009f7d 	andeq	r9, r0, sp, ror pc
    1044:	00000000 	andeq	r0, r0, r0
    1048:	00040000 	andeq	r0, r4, r0
    104c:	000008b8 			; <UNDEFINED> instruction: 0x000008b8
    1050:	000008bc 			; <UNDEFINED> instruction: 0x000008bc
    1054:	9f320002 	svcls	0x00320002
	...
    1060:	00000007 	andeq	r0, r0, r7
    1064:	06d00006 	ldrbeq	r0, [r0], r6
    1068:	06e00000 	strbteq	r0, [r0], r0
    106c:	00040000 	andeq	r0, r4, r0
    1070:	9f7dd091 	svcls	0x007dd091
    1074:	000006e0 	andeq	r0, r0, r0, ror #13
    1078:	00000700 	andeq	r0, r0, r0, lsl #14
    107c:	b8550001 	ldmdalt	r5, {r0}^
    1080:	bc000008 	stclt	0, cr0, [r0], {8}
    1084:	04000008 	streq	r0, [r0], #-8
    1088:	7dd09100 	ldfvcp	f1, [r0]
    108c:	0000009f 	muleq	r0, pc, r0	; <UNPREDICTABLE>
    1090:	00000000 	andeq	r0, r0, r0
    1094:	00000100 	andeq	r0, r0, r0, lsl #2
    1098:	00070c00 	andeq	r0, r7, r0, lsl #24
    109c:	0007ec00 	andeq	lr, r7, r0, lsl #24
    10a0:	08000300 	stmdaeq	r0, {r8, r9}
    10a4:	08949f80 	ldmeq	r4, {r7, r8, r9, sl, fp, ip, pc}
    10a8:	08a80000 	stmiaeq	r8!, {}	; <UNPREDICTABLE>
    10ac:	00030000 	andeq	r0, r3, r0
    10b0:	009f8008 	addseq	r8, pc, r8
	...
    10bc:	0c000000 	stceq	0, cr0, [r0], {-0}
    10c0:	ec000007 	stc	0, cr0, [r0], {7}
    10c4:	02000007 	andeq	r0, r0, #7, 0
    10c8:	949f3000 	ldrls	r3, [pc], #0	; 10d0 <__code_start__-0x6f30>
    10cc:	a8000008 	stmdage	r0, {r3}
    10d0:	02000008 	andeq	r0, r0, #8, 0
    10d4:	009f3000 	addseq	r3, pc, r0
	...
    10e0:	0c000000 	stceq	0, cr0, [r0], {-0}
    10e4:	d0000007 	andle	r0, r0, r7
    10e8:	01000007 	tsteq	r0, r7
    10ec:	08945500 	ldmeq	r4, {r8, sl, ip, lr}
    10f0:	08a80000 	stmiaeq	r8!, {}	; <UNPREDICTABLE>
    10f4:	00010000 	andeq	r0, r1, r0
    10f8:	00000055 	andeq	r0, r0, r5, asr r0
	...
    1104:	0c000000 	stceq	0, cr0, [r0], {-0}
    1108:	d0000007 	andle	r0, r0, r7
    110c:	04000007 	streq	r0, [r0], #-7
    1110:	7dd09100 	ldfvcp	f1, [r0]
    1114:	0007d09f 	muleq	r7, pc, r0	; <UNPREDICTABLE>
    1118:	0007ec00 	andeq	lr, r7, r0, lsl #24
    111c:	55000100 	strpl	r0, [r0, #-256]	; 0xffffff00
    1120:	00000894 	muleq	r0, r4, r8
    1124:	000008a8 	andeq	r0, r0, r8, lsr #17
    1128:	d0910004 	addsle	r0, r1, r4
    112c:	00009f7d 	andeq	r9, r0, sp, ror pc
	...
    1138:	070c0000 	streq	r0, [ip, -r0]
    113c:	07ec0000 	strbeq	r0, [ip, r0]!
    1140:	00020000 	andeq	r0, r2, r0
    1144:	08949f32 	ldmeq	r4, {r1, r4, r5, r8, r9, sl, fp, ip, pc}
    1148:	08a80000 	stmiaeq	r8!, {}	; <UNPREDICTABLE>
    114c:	00020000 	andeq	r0, r2, r0
    1150:	00009f32 	andeq	r9, r0, r2, lsr pc
    1154:	00000000 	andeq	r0, r0, r0
    1158:	05030000 	streq	r0, [r3, #-0]
    115c:	00000005 	andeq	r0, r0, r5
    1160:	00000000 	andeq	r0, r0, r0
    1164:	0000070c 	andeq	r0, r0, ip, lsl #14
    1168:	0000070c 	andeq	r0, r0, ip, lsl #14
    116c:	0c510001 	mrrceq	0, 0, r0, r1, cr1
    1170:	1c000007 	stcne	0, cr0, [r0], {7}
    1174:	01000007 	tsteq	r0, r7
    1178:	071c5300 	ldreq	r5, [ip, -r0, lsl #6]
    117c:	07240000 	streq	r0, [r4, -r0]!
    1180:	00030000 	andeq	r0, r3, r0
    1184:	249f0172 	ldrcs	r0, [pc], #370	; 118c <__code_start__-0x6e74>
    1188:	cc000007 	stcgt	0, cr0, [r0], {7}
    118c:	01000007 	tsteq	r0, r7
    1190:	08945300 	ldmeq	r4, {r8, r9, ip, lr}
    1194:	08a80000 	stmiaeq	r8!, {}	; <UNPREDICTABLE>
    1198:	00010000 	andeq	r0, r1, r0
    119c:	00000053 	andeq	r0, r0, r3, asr r0
    11a0:	00000000 	andeq	r0, r0, r0
    11a4:	01000500 	tsteq	r0, r0, lsl #10
    11a8:	00070c00 	andeq	r0, r7, r0, lsl #24
    11ac:	00072000 	andeq	r2, r7, r0
    11b0:	50000100 	andpl	r0, r0, r0, lsl #2
    11b4:	00000724 	andeq	r0, r0, r4, lsr #14
    11b8:	0000072c 	andeq	r0, r0, ip, lsr #14
    11bc:	00500001 	subseq	r0, r0, r1
    11c0:	00000000 	andeq	r0, r0, r0
    11c4:	03000000 	movweq	r0, #0
    11c8:	28010001 	stmdacs	r1, {r0}
    11cc:	b0000007 	andlt	r0, r0, r7
    11d0:	01000007 	tsteq	r0, r7
    11d4:	08945500 	ldmeq	r4, {r8, sl, ip, lr}
    11d8:	08a00000 	stmiaeq	r0!, {}	; <UNPREDICTABLE>
    11dc:	00010000 	andeq	r0, r1, r0
    11e0:	00000055 	andeq	r0, r0, r5, asr r0
    11e4:	00000000 	andeq	r0, r0, r0
    11e8:	00010300 	andeq	r0, r1, r0, lsl #6
    11ec:	00072801 	andeq	r2, r7, r1, lsl #16
    11f0:	0007b000 	andeq	fp, r7, r0
    11f4:	51000100 	mrspl	r0, (UNDEF: 16)
    11f8:	00000894 	muleq	r0, r4, r8
    11fc:	000008a0 	andeq	r0, r0, r0, lsr #17
    1200:	00510001 	subseq	r0, r1, r1
    1204:	00000000 	andeq	r0, r0, r0
    1208:	03000000 	movweq	r0, #0
    120c:	01010000 	mrseq	r0, (UNDEF: 1)
    1210:	03030101 	movweq	r0, #12545	; 0x3101
    1214:	28010002 	stmdacs	r1, {r1}
    1218:	50000007 	andpl	r0, r0, r7
    121c:	01000007 	tsteq	r0, r7
    1220:	07745300 	ldrbeq	r5, [r4, -r0, lsl #6]!
    1224:	07740000 	ldrbeq	r0, [r4, -r0]!
    1228:	00010000 	andeq	r0, r1, r0
    122c:	0007745e 	andeq	r7, r7, lr, asr r4
    1230:	00078800 	andeq	r8, r7, r0, lsl #16
    1234:	7e000300 	cdpvc	3, 0, cr0, cr0, cr0, {0}
    1238:	07889f01 	streq	r9, [r8, r1, lsl #30]
    123c:	07940000 	ldreq	r0, [r4, r0]
    1240:	00030000 	andeq	r0, r3, r0
    1244:	949f027e 	ldrls	r0, [pc], #638	; 124c <__code_start__-0x6db4>
    1248:	98000007 	stmdals	r0, {r0, r1, r2}
    124c:	03000007 	movweq	r0, #7
    1250:	9f037e00 	svcls	0x00037e00
    1254:	00000894 	muleq	r0, r4, r8
    1258:	000008a0 	andeq	r0, r0, r0, lsr #17
    125c:	00530001 	subseq	r0, r3, r1
	...
    1268:	01010000 	mrseq	r0, (UNDEF: 1)
    126c:	01010101 	tsteq	r1, r1, lsl #2
    1270:	2c010002 	stccs	0, cr0, [r1], {2}
    1274:	50000007 	andpl	r0, r0, r7
    1278:	01000007 	tsteq	r0, r7
    127c:	07745000 	ldrbeq	r5, [r4, -r0]!
    1280:	07840000 	streq	r0, [r4, r0]
    1284:	00010000 	andeq	r0, r1, r0
    1288:	00078450 	andeq	r8, r7, r0, asr r4
    128c:	00079400 	andeq	r9, r7, r0, lsl #8
    1290:	5b000100 	blpl	1698 <__code_start__-0x6968>
    1294:	00000794 	muleq	r0, r4, r7
    1298:	00000798 	muleq	r0, r8, r7
    129c:	98500001 	ldmdals	r0, {r0}^
    12a0:	98000007 	stmdals	r0, {r0, r1, r2}
    12a4:	03000007 	movweq	r0, #7
    12a8:	9f017000 	svcls	0x00017000
    12ac:	00000894 	muleq	r0, r4, r8
    12b0:	000008a0 	andeq	r0, r0, r0, lsr #17
    12b4:	00500001 	subseq	r0, r0, r1
    12b8:	00000000 	andeq	r0, r0, r0
    12bc:	01000000 	mrseq	r0, (UNDEF: 0)
    12c0:	b0000100 	andlt	r0, r0, r0, lsl #2
    12c4:	ec000007 	stc	0, cr0, [r0], {7}
    12c8:	01000007 	tsteq	r0, r7
    12cc:	08a05100 	stmiaeq	r0!, {r8, ip, lr}
    12d0:	08a80000 	stmiaeq	r8!, {}	; <UNPREDICTABLE>
    12d4:	00010000 	andeq	r0, r1, r0
    12d8:	00000051 	andeq	r0, r0, r1, asr r0
    12dc:	00000000 	andeq	r0, r0, r0
    12e0:	00000100 	andeq	r0, r0, r0, lsl #2
    12e4:	01010000 	mrseq	r0, (UNDEF: 1)
    12e8:	b0000100 	andlt	r0, r0, r0, lsl #2
    12ec:	b4000007 	strlt	r0, [r0], #-7
    12f0:	06000007 	streq	r0, [r0], -r7
    12f4:	7c007300 	stcvc	3, cr7, [r0], {-0}
    12f8:	d49f2200 	ldrle	r2, [pc], #512	; 1300 <__code_start__-0x6d00>
    12fc:	d8000007 	stmdale	r0, {r0, r1, r2}
    1300:	03000007 	movweq	r0, #7
    1304:	9f7f7300 	svcls	0x007f7300
    1308:	000007d8 	ldrdeq	r0, [r0], -r8
    130c:	000007e0 	andeq	r0, r0, r0, ror #15
    1310:	e0530001 	subs	r0, r3, r1
    1314:	e8000007 	stmda	r0, {r0, r1, r2}
    1318:	03000007 	movweq	r0, #7
    131c:	9f7f7300 	svcls	0x007f7300
    1320:	000008a0 	andeq	r0, r0, r0, lsr #17
    1324:	000008a8 	andeq	r0, r0, r8, lsr #17
    1328:	00530001 	subseq	r0, r3, r1
    132c:	00000000 	andeq	r0, r0, r0
    1330:	01000000 	mrseq	r0, (UNDEF: 0)
    1334:	b0000100 	andlt	r0, r0, r0, lsl #2
    1338:	ec000007 	stc	0, cr0, [r0], {7}
    133c:	03000007 	movweq	r0, #7
    1340:	9f800800 	svcls	0x00800800
    1344:	000008a0 	andeq	r0, r0, r0, lsr #17
    1348:	000008a8 	andeq	r0, r0, r8, lsr #17
    134c:	80080003 	andhi	r0, r8, r3
    1350:	0000009f 	muleq	r0, pc, r0	; <UNPREDICTABLE>
    1354:	00000000 	andeq	r0, r0, r0
    1358:	00000100 	andeq	r0, r0, r0, lsl #2
    135c:	01010000 	mrseq	r0, (UNDEF: 1)
    1360:	01000000 	mrseq	r0, (UNDEF: 0)
    1364:	0007b000 	andeq	fp, r7, r0
    1368:	0007d000 	andeq	sp, r7, r0
    136c:	91000400 	tstls	r0, r0, lsl #8
    1370:	d09f7dd0 			; <UNDEFINED> instruction: 0xd09f7dd0
    1374:	d4000007 	strle	r0, [r0], #-7
    1378:	01000007 	tsteq	r0, r7
    137c:	07d45500 	ldrbeq	r5, [r4, r0, lsl #10]
    1380:	07d40000 	ldrbeq	r0, [r4, r0]
    1384:	00030000 	andeq	r0, r3, r0
    1388:	d49f017c 	ldrle	r0, [pc], #380	; 1390 <__code_start__-0x6c70>
    138c:	e0000007 	and	r0, r0, r7
    1390:	03000007 	movweq	r0, #7
    1394:	9f027c00 	svcls	0x00027c00
    1398:	000007e0 	andeq	r0, r0, r0, ror #15
    139c:	000007ec 	andeq	r0, r0, ip, ror #15
    13a0:	017c0003 	cmneq	ip, r3
    13a4:	0008a09f 	muleq	r8, pc, r0	; <UNPREDICTABLE>
    13a8:	0008a800 	andeq	sl, r8, r0, lsl #16
    13ac:	91000400 	tstls	r0, r0, lsl #8
    13b0:	009f7dd0 			; <UNDEFINED> instruction: 0x009f7dd0
    13b4:	00000000 	andeq	r0, r0, r0
    13b8:	04000000 	streq	r0, [r0], #-0
    13bc:	b0000400 	andlt	r0, r0, r0, lsl #8
    13c0:	b4000007 	strlt	r0, [r0], #-7
    13c4:	03000007 	movweq	r0, #7
    13c8:	9f017000 	svcls	0x00017000
    13cc:	000008a0 	andeq	r0, r0, r0, lsr #17
    13d0:	000008a8 	andeq	r0, r0, r8, lsr #17
    13d4:	01700003 	cmneq	r0, r3
    13d8:	0000009f 	muleq	r0, pc, r0	; <UNPREDICTABLE>
    13dc:	00000000 	andeq	r0, r0, r0
    13e0:	00000100 	andeq	r0, r0, r0, lsl #2
    13e4:	0007bc00 	andeq	fp, r7, r0, lsl #24
    13e8:	0007d000 	andeq	sp, r7, r0
    13ec:	91000400 	tstls	r0, r0, lsl #8
    13f0:	d09f7dd0 			; <UNDEFINED> instruction: 0xd09f7dd0
    13f4:	ec000007 	stc	0, cr0, [r0], {7}
    13f8:	01000007 	tsteq	r0, r7
    13fc:	00005500 	andeq	r5, r0, r0, lsl #10
	...
    1408:	03280000 			; <UNDEFINED> instruction: 0x03280000
    140c:	03640000 	cmneq	r4, #0, 0
    1410:	00010000 	andeq	r0, r1, r0
    1414:	00036450 	andeq	r6, r3, r0, asr r4
    1418:	00038800 	andeq	r8, r3, r0, lsl #16
    141c:	f3000400 	vshl.u8	d0, d0, d0
    1420:	009f5001 	addseq	r5, pc, r1
	...
    142c:	28000000 	stmdacs	r0, {}	; <UNPREDICTABLE>
    1430:	5c000003 	stcpl	0, cr0, [r0], {3}
    1434:	01000003 	tsteq	r0, r3
    1438:	035c5100 	cmpeq	ip, #0
    143c:	03880000 	orreq	r0, r8, #0, 0
    1440:	00040000 	andeq	r0, r4, r0
    1444:	9f5101f3 	svcls	0x005101f3
	...
    146c:	00000014 	andeq	r0, r0, r4, lsl r0
    1470:	14500001 	ldrbne	r0, [r0], #-1
    1474:	20000000 	andcs	r0, r0, r0
    1478:	01000000 	mrseq	r0, (UNDEF: 0)
    147c:	00205c00 	eoreq	r5, r0, r0, lsl #24
    1480:	00680000 	rsbeq	r0, r8, r0
    1484:	00030000 	andeq	r0, r3, r0
    1488:	689f0271 	ldmvs	pc, {r0, r4, r5, r6, r9}	; <UNPREDICTABLE>
    148c:	6c000000 	stcvs	0, cr0, [r0], {-0}
    1490:	03000000 	movweq	r0, #0
    1494:	9f027300 	svcls	0x00027300
    1498:	0000006c 	andeq	r0, r0, ip, rrx
    149c:	00000194 	muleq	r0, r4, r1
    14a0:	01f30004 	mvnseq	r0, r4
    14a4:	01949f50 	orrseq	r9, r4, r0, asr pc
    14a8:	01980000 	orrseq	r0, r8, r0
    14ac:	00030000 	andeq	r0, r3, r0
    14b0:	989f0273 	ldmls	pc, {r0, r1, r4, r5, r6, r9}	; <UNPREDICTABLE>
    14b4:	c0000001 	andgt	r0, r0, r1
    14b8:	04000001 	streq	r0, [r0], #-1
    14bc:	5001f300 	andpl	pc, r1, r0, lsl #6
    14c0:	0001c09f 	muleq	r1, pc, r0	; <UNPREDICTABLE>
    14c4:	0001c800 	andeq	ip, r1, r0, lsl #16
    14c8:	5c000100 	stfpls	f0, [r0], {-0}
    14cc:	000001c8 	andeq	r0, r0, r8, asr #3
    14d0:	00000214 	andeq	r0, r0, r4, lsl r2
    14d4:	02730003 	rsbseq	r0, r3, #3, 0
    14d8:	0002149f 	muleq	r2, pc, r4	; <UNPREDICTABLE>
    14dc:	0002ec00 	andeq	lr, r2, r0, lsl #24
    14e0:	f3000400 	vshl.u8	d0, d0, d0
    14e4:	ec9f5001 	ldc	0, cr5, [pc], {1}
    14e8:	f4000002 	vst4.8	{d0-d3}, [r0], r2
    14ec:	03000002 	movweq	r0, #2
    14f0:	9f027300 	svcls	0x00027300
    14f4:	000002f4 	strdeq	r0, [r0], -r4
    14f8:	00000328 	andeq	r0, r0, r8, lsr #6
    14fc:	01f30004 	mvnseq	r0, r4
    1500:	00009f50 	andeq	r9, r0, r0, asr pc
	...
    1514:	001c0000 	andseq	r0, ip, r0
    1518:	00010000 	andeq	r0, r1, r0
    151c:	00001c51 	andeq	r1, r0, r1, asr ip
    1520:	0002e000 	andeq	lr, r2, r0
    1524:	50000100 	andpl	r0, r0, r0, lsl #2
    1528:	000002e0 	andeq	r0, r0, r0, ror #5
    152c:	000002ec 	andeq	r0, r0, ip, ror #5
    1530:	01f30004 	mvnseq	r0, r4
    1534:	02ec9f51 	rsceq	r9, ip, #324	; 0x144
    1538:	03280000 			; <UNDEFINED> instruction: 0x03280000
    153c:	00010000 	andeq	r0, r1, r0
    1540:	00000050 	andeq	r0, r0, r0, asr r0
	...
    154c:	00010000 	andeq	r0, r1, r0
    1550:	00000000 	andeq	r0, r0, r0
    1554:	02020000 	andeq	r0, r2, #0, 0
	...
    156c:	00007000 	andeq	r7, r0, r0
    1570:	52000100 	andpl	r0, r0, #0
    1574:	00000070 	andeq	r0, r0, r0, ror r0
    1578:	00000078 	andeq	r0, r0, r8, ror r0
    157c:	785c0001 	ldmdavc	ip, {r0}^
    1580:	a4000000 	strge	r0, [r0], #-0
    1584:	04000000 	streq	r0, [r0], #-0
    1588:	5201f300 	andpl	pc, r1, #0, 6
    158c:	0001949f 	muleq	r1, pc, r4	; <UNPREDICTABLE>
    1590:	00019c00 	andeq	r9, r1, r0, lsl #24
    1594:	52000100 	andpl	r0, r0, #0
    1598:	0000019c 	muleq	r0, ip, r1
    159c:	000001a4 	andeq	r0, r0, r4, lsr #3
    15a0:	a45c0001 	ldrbge	r0, [ip], #-1
    15a4:	c0000001 	andgt	r0, r0, r1
    15a8:	04000001 	streq	r0, [r0], #-1
    15ac:	5201f300 	andpl	pc, r1, #0, 6
    15b0:	0001c09f 	muleq	r1, pc, r0	; <UNPREDICTABLE>
    15b4:	00022000 	andeq	r2, r2, r0
    15b8:	52000100 	andpl	r0, r0, #0
    15bc:	00000220 	andeq	r0, r0, r0, lsr #4
    15c0:	00000228 	andeq	r0, r0, r8, lsr #4
    15c4:	00720004 	rsbseq	r0, r2, r4
    15c8:	02289f1f 	eoreq	r9, r8, #124	; 0x7c
    15cc:	02740000 	rsbseq	r0, r4, #0, 0
    15d0:	00050000 	andeq	r0, r5, r0
    15d4:	1f5201f3 	svcne	0x005201f3
    15d8:	0002749f 	muleq	r2, pc, r4	; <UNPREDICTABLE>
    15dc:	00028800 	andeq	r8, r2, r0, lsl #16
    15e0:	52000100 	andpl	r0, r0, #0
    15e4:	00000288 	andeq	r0, r0, r8, lsl #5
    15e8:	000002a0 	andeq	r0, r0, r0, lsr #5
    15ec:	cc5c0001 	mrrcgt	0, 0, r0, ip, cr1
    15f0:	d0000002 	andle	r0, r0, r2
    15f4:	01000002 	tsteq	r0, r2
    15f8:	02d05200 	sbcseq	r5, r0, #0, 4
    15fc:	02e70000 	rsceq	r0, r7, #0, 0
    1600:	00010000 	andeq	r0, r1, r0
    1604:	0002e75c 	andeq	lr, r2, ip, asr r7
    1608:	0002ec00 	andeq	lr, r2, r0, lsl #24
    160c:	f3000400 	vshl.u8	d0, d0, d0
    1610:	ec9f5201 	lfm	f5, 4, [pc], {1}
    1614:	00000002 	andeq	r0, r0, r2
    1618:	01000003 	tsteq	r0, r3
    161c:	03005200 	movweq	r5, #512	; 0x200
    1620:	03280000 			; <UNDEFINED> instruction: 0x03280000
    1624:	00010000 	andeq	r0, r1, r0
    1628:	0000005c 	andeq	r0, r0, ip, asr r0
	...
    1640:	68000000 	stmdavs	r0, {}	; <UNPREDICTABLE>
    1644:	01000000 	mrseq	r0, (UNDEF: 0)
    1648:	00685300 	rsbeq	r5, r8, r0, lsl #6
    164c:	006c0000 	rsbeq	r0, ip, r0
    1650:	00030000 	andeq	r0, r3, r0
    1654:	949f7f08 	ldrls	r7, [pc], #3848	; 165c <__code_start__-0x69a4>
    1658:	98000001 	stmdals	r0, {r0}
    165c:	03000001 	movweq	r0, #1
    1660:	9f7f0800 	svcls	0x007f0800
    1664:	000001c0 	andeq	r0, r0, r0, asr #3
    1668:	00000214 	andeq	r0, r0, r4, lsl r2
    166c:	7f080003 	svcvc	0x00080003
    1670:	0002749f 	muleq	r2, pc, r4	; <UNPREDICTABLE>
    1674:	00029000 	andeq	r9, r2, r0
    1678:	53000100 	movwpl	r0, #256	; 0x100
    167c:	00000290 	muleq	r0, r0, r2
    1680:	000002a0 	andeq	r0, r0, r0, lsr #5
    1684:	01f30004 	mvnseq	r0, r4
    1688:	02ec9f53 	rsceq	r9, ip, #332	; 0x14c
    168c:	03280000 			; <UNDEFINED> instruction: 0x03280000
    1690:	00030000 	andeq	r0, r3, r0
    1694:	009f7f08 	addseq	r7, pc, r8, lsl #30
    1698:	00000000 	andeq	r0, r0, r0
    169c:	01000000 	mrseq	r0, (UNDEF: 0)
    16a0:	00000000 	andeq	r0, r0, r0
    16a4:	00000202 	andeq	r0, r0, r2, lsl #4
    16a8:	00000101 	andeq	r0, r0, r1, lsl #2
    16ac:	00000000 	andeq	r0, r0, r0
    16b0:	02020000 	andeq	r0, r2, #0, 0
    16b4:	01000000 	mrseq	r0, (UNDEF: 0)
	...
    16c0:	00000101 	andeq	r0, r0, r1, lsl #2
    16c4:	02020000 	andeq	r0, r2, #0, 0
    16c8:	00000000 	andeq	r0, r0, r0
    16cc:	01010000 	mrseq	r0, (UNDEF: 1)
    16d0:	18000000 	stmdane	r0, {}	; <UNPREDICTABLE>
    16d4:	70000000 	andvc	r0, r0, r0
    16d8:	04000000 	streq	r0, [r0], #-0
    16dc:	7fa09100 	svcvc	0x00a09100
    16e0:	0000709f 	muleq	r0, pc, r0	; <UNPREDICTABLE>
    16e4:	00007800 	andeq	r7, r0, r0, lsl #16
    16e8:	52000100 	andpl	r0, r0, #0
    16ec:	00000078 	andeq	r0, r0, r8, ror r0
    16f0:	00000078 	andeq	r0, r0, r8, ror r0
    16f4:	78540001 	ldmdavc	r4, {r0}^
    16f8:	88000000 	stmdahi	r0, {}	; <UNPREDICTABLE>
    16fc:	03000000 	movweq	r0, #0
    1700:	9f017400 	svcls	0x00017400
    1704:	00000088 	andeq	r0, r0, r8, lsl #1
    1708:	00000090 	muleq	r0, r0, r0
    170c:	90540001 	subsls	r0, r4, r1
    1710:	a0000000 	andge	r0, r0, r0
    1714:	03000000 	movweq	r0, #0
    1718:	9f027400 	svcls	0x00027400
    171c:	000000a0 	andeq	r0, r0, r0, lsr #1
    1720:	000000b0 	strheq	r0, [r0], -r0	; <UNPREDICTABLE>
    1724:	945e0001 	ldrbls	r0, [lr], #-1
    1728:	9c000001 	stcls	0, cr0, [r0], {1}
    172c:	04000001 	streq	r0, [r0], #-1
    1730:	7fa09100 	svcvc	0x00a09100
    1734:	00019c9f 	muleq	r1, pc, ip	; <UNPREDICTABLE>
    1738:	0001a400 	andeq	sl, r1, r0, lsl #8
    173c:	52000100 	andpl	r0, r0, #0
    1740:	000001a4 	andeq	r0, r0, r4, lsr #3
    1744:	000001a4 	andeq	r0, r0, r4, lsr #3
    1748:	a45e0001 	ldrbge	r0, [lr], #-1
    174c:	b4000001 	strlt	r0, [r0], #-1
    1750:	03000001 	movweq	r0, #1
    1754:	9f017e00 	svcls	0x00017e00
    1758:	000001b4 			; <UNDEFINED> instruction: 0x000001b4
    175c:	000001c0 	andeq	r0, r0, r0, asr #3
    1760:	c05e0001 	subsgt	r0, lr, r1
    1764:	28000001 	stmdacs	r0, {r0}
    1768:	04000002 	streq	r0, [r0], #-2
    176c:	7fa09100 	svcvc	0x00a09100
    1770:	0002289f 	muleq	r2, pc, r8	; <UNPREDICTABLE>
    1774:	00023400 	andeq	r3, r2, r0, lsl #8
    1778:	52000100 	andpl	r0, r0, #0
    177c:	00000234 	andeq	r0, r0, r4, lsr r2
    1780:	00000258 	andeq	r0, r0, r8, asr r2
    1784:	585e0001 	ldmdapl	lr, {r0}^
    1788:	5c000002 	stcpl	0, cr0, [r0], {2}
    178c:	03000002 	movweq	r0, #2
    1790:	9f017e00 	svcls	0x00017e00
    1794:	0000025c 	andeq	r0, r0, ip, asr r2
    1798:	00000264 	andeq	r0, r0, r4, ror #4
    179c:	645e0001 	ldrbvs	r0, [lr], #-1
    17a0:	70000002 	andvc	r0, r0, r2
    17a4:	03000002 	movweq	r0, #2
    17a8:	9f027100 	svcls	0x00027100
    17ac:	00000270 	andeq	r0, r0, r0, ror r2
    17b0:	00000274 	andeq	r0, r0, r4, ror r2
    17b4:	745e0001 	ldrbvc	r0, [lr], #-1
    17b8:	74000002 	strvc	r0, [r0], #-2
    17bc:	04000002 	streq	r0, [r0], #-2
    17c0:	7fa09100 	svcvc	0x00a09100
    17c4:	0002749f 	muleq	r2, pc, r4	; <UNPREDICTABLE>
    17c8:	0002a000 	andeq	sl, r2, r0
    17cc:	91000400 	tstls	r0, r0, lsl #8
    17d0:	c09f7fa1 	addsgt	r7, pc, r1, lsr #31
    17d4:	c8000002 	stmdagt	r0, {r1}
    17d8:	01000002 	tsteq	r0, r2
    17dc:	02c85e00 	sbceq	r5, r8, #0, 28
    17e0:	02cc0000 	sbceq	r0, ip, #0, 0
    17e4:	00010000 	andeq	r0, r1, r0
    17e8:	0002cc56 	andeq	ip, r2, r6, asr ip
    17ec:	0002ec00 	andeq	lr, r2, r0, lsl #24
    17f0:	91000400 	tstls	r0, r0, lsl #8
    17f4:	ec9f7fa0 	ldc	15, cr7, [pc], {160}	; 0xa0
    17f8:	fc000002 	stc2	0, cr0, [r0], {2}
    17fc:	04000002 	streq	r0, [r0], #-2
    1800:	7fa19100 	svcvc	0x00a19100
    1804:	0002fc9f 	muleq	r2, pc, ip	; <UNPREDICTABLE>
    1808:	00032800 	andeq	r2, r3, r0, lsl #16
    180c:	5e000100 	adfpls	f0, f0, f0
	...
    1824:	01000000 	mrseq	r0, (UNDEF: 0)
    1828:	00000001 	andeq	r0, r0, r1
	...
    1838:	00200000 	eoreq	r0, r0, r0
    183c:	00700000 	rsbseq	r0, r0, r0
    1840:	00010000 	andeq	r0, r1, r0
    1844:	00007052 	andeq	r7, r0, r2, asr r0
    1848:	00009400 	andeq	r9, r0, r0, lsl #8
    184c:	5c000100 	stfpls	f0, [r0], {-0}
    1850:	00000194 	muleq	r0, r4, r1
    1854:	0000019c 	muleq	r0, ip, r1
    1858:	9c520001 	mrrcls	0, 0, r0, r2, cr1
    185c:	c0000001 	andgt	r0, r0, r1
    1860:	01000001 	tsteq	r0, r1
    1864:	01c85c00 	biceq	r5, r8, r0, lsl #24
    1868:	02100000 	andseq	r0, r0, #0, 0
    186c:	00010000 	andeq	r0, r1, r0
    1870:	0002105c 	andeq	r1, r2, ip, asr r0
    1874:	00022400 	andeq	r2, r2, r0, lsl #8
    1878:	52000100 	andpl	r0, r0, #0
    187c:	00000224 	andeq	r0, r0, r4, lsr #4
    1880:	00000248 	andeq	r0, r0, r8, asr #4
    1884:	485c0001 	ldmdami	ip, {r0}^
    1888:	5c000002 	stcpl	0, cr0, [r0], {2}
    188c:	01000002 	tsteq	r0, r2
    1890:	025c5500 	subseq	r5, ip, #0, 10
    1894:	02680000 	rsbeq	r0, r8, #0, 0
    1898:	00010000 	andeq	r0, r1, r0
    189c:	0002685c 	andeq	r6, r2, ip, asr r8
    18a0:	00027400 	andeq	r7, r2, r0, lsl #8
    18a4:	75001900 	strvc	r1, [r0, #-2304]	; 0xfffff700
    18a8:	f72cf700 			; <UNDEFINED> instruction: 0xf72cf700
    18ac:	f7007625 			; <UNDEFINED> instruction: 0xf7007625
    18b0:	1e25f72c 	cdpne	7, 2, cr15, cr5, cr12, {1}
    18b4:	25f72008 	ldrbcs	r2, [r7, #8]!
    18b8:	f72cf725 			; <UNDEFINED> instruction: 0xf72cf725
    18bc:	9f253300 	svcls	0x00253300
    18c0:	00000274 	andeq	r0, r0, r4, ror r2
    18c4:	00000288 	andeq	r0, r0, r8, lsl #5
    18c8:	88520001 	ldmdahi	r2, {r0}^
    18cc:	a0000002 	andge	r0, r0, r2
    18d0:	01000002 	tsteq	r0, r2
    18d4:	02cc5c00 	sbceq	r5, ip, #0, 24
    18d8:	02d00000 	sbcseq	r0, r0, #0, 0
    18dc:	00010000 	andeq	r0, r1, r0
    18e0:	0002d052 	andeq	sp, r2, r2, asr r0
    18e4:	0002e700 	andeq	lr, r2, r0, lsl #14
    18e8:	5c000100 	stfpls	f0, [r0], {-0}
    18ec:	000002e7 	andeq	r0, r0, r7, ror #5
    18f0:	000002ec 	andeq	r0, r0, ip, ror #5
    18f4:	01f30004 	mvnseq	r0, r4
    18f8:	02ec9f52 	rsceq	r9, ip, #328	; 0x148
    18fc:	03000000 	movweq	r0, #0
    1900:	00010000 	andeq	r0, r1, r0
    1904:	00030052 	andeq	r0, r3, r2, asr r0
    1908:	00032800 	andeq	r2, r3, r0, lsl #16
    190c:	5c000100 	stfpls	f0, [r0], {-0}
	...
    1918:	00040004 	andeq	r0, r4, r4
    191c:	00000100 	andeq	r0, r0, r0, lsl #2
    1920:	00a40004 	adceq	r0, r4, r4
    1924:	00b00000 	adcseq	r0, r0, r0
    1928:	00010000 	andeq	r0, r1, r0
    192c:	00027c53 	andeq	r7, r2, r3, asr ip
    1930:	00029000 	andeq	r9, r2, r0
    1934:	53000100 	movwpl	r0, #256	; 0x100
    1938:	00000290 	muleq	r0, r0, r2
    193c:	0000029c 	muleq	r0, ip, r2
    1940:	01f30004 	mvnseq	r0, r4
    1944:	02c09f53 	sbceq	r9, r0, #332	; 0x14c
    1948:	02cc0000 	sbceq	r0, ip, #0, 0
    194c:	00010000 	andeq	r0, r1, r0
    1950:	0002f053 	andeq	pc, r2, r3, asr r0	; <UNPREDICTABLE>
    1954:	00032800 	andeq	r2, r3, r0, lsl #16
    1958:	08000300 	stmdaeq	r0, {r8, r9}
    195c:	00009f7f 	andeq	r9, r0, pc, ror pc
    1960:	00000000 	andeq	r0, r0, r0
    1964:	00040000 	andeq	r0, r4, r0
    1968:	00040100 	andeq	r0, r4, r0, lsl #2
    196c:	00000100 	andeq	r0, r0, r0, lsl #2
    1970:	00040000 	andeq	r0, r4, r0
    1974:	00a40000 	adceq	r0, r4, r0
    1978:	00b00000 	adcseq	r0, r0, r0
    197c:	00010000 	andeq	r0, r1, r0
    1980:	0000b052 	andeq	fp, r0, r2, asr r0
    1984:	00015c00 	andeq	r5, r1, r0, lsl #24
    1988:	91000400 	tstls	r0, r0, lsl #8
    198c:	7c9f7fa0 	ldcvc	15, cr7, [pc], {160}	; 0xa0
    1990:	94000002 	strls	r0, [r0], #-2
    1994:	04000002 	streq	r0, [r0], #-2
    1998:	7fa09100 	svcvc	0x00a09100
    199c:	0002949f 	muleq	r2, pc, r4	; <UNPREDICTABLE>
    19a0:	00029c00 	andeq	r9, r2, r0, lsl #24
    19a4:	5e000100 	adfpls	f0, f0, f0
    19a8:	000002b4 			; <UNDEFINED> instruction: 0x000002b4
    19ac:	000002c0 	andeq	r0, r0, r0, asr #5
    19b0:	a0910004 	addsge	r0, r1, r4
    19b4:	02c09f7f 	sbceq	r9, r0, #508	; 0x1fc
    19b8:	02cc0000 	sbceq	r0, ip, #0, 0
    19bc:	00010000 	andeq	r0, r1, r0
    19c0:	0002f052 	andeq	pc, r2, r2, asr r0	; <UNPREDICTABLE>
    19c4:	00030000 	andeq	r0, r3, r0
    19c8:	91000400 	tstls	r0, r0, lsl #8
    19cc:	009f7fa0 	addseq	r7, pc, r0, lsr #31
    19d0:	28000003 	stmdacs	r0, {r0, r1}
    19d4:	01000003 	tsteq	r0, r3
    19d8:	00005200 	andeq	r5, r0, r0, lsl #4
    19dc:	00000000 	andeq	r0, r0, r0
    19e0:	00040000 	andeq	r0, r4, r0
    19e4:	01010100 	mrseq	r0, (UNDEF: 17)
    19e8:	02030301 	andeq	r0, r3, #67108864	; 0x4000000
    19ec:	00000104 	andeq	r0, r0, r4, lsl #2
    19f0:	00040000 	andeq	r0, r4, r0
    19f4:	00a40000 	adceq	r0, r4, r0
    19f8:	00b00000 	adcseq	r0, r0, r0
    19fc:	00010000 	andeq	r0, r1, r0
    1a00:	00010c5e 	andeq	r0, r1, lr, asr ip
    1a04:	00010c00 	andeq	r0, r1, r0, lsl #24
    1a08:	55000100 	strpl	r0, [r0, #-256]	; 0xffffff00
    1a0c:	0000010c 	andeq	r0, r0, ip, lsl #2
    1a10:	00000120 	andeq	r0, r0, r0, lsr #2
    1a14:	01750003 	cmneq	r5, r3
    1a18:	0001209f 	muleq	r1, pc, r0	; <UNPREDICTABLE>
    1a1c:	00012c00 	andeq	r2, r1, r0, lsl #24
    1a20:	75000300 	strvc	r0, [r0, #-768]	; 0xfffffd00
    1a24:	012c9f02 			; <UNDEFINED> instruction: 0x012c9f02
    1a28:	01300000 	teqeq	r0, r0
    1a2c:	00030000 	andeq	r0, r3, r0
    1a30:	7c9f0375 	ldcvc	3, cr0, [pc], {117}	; 0x75
    1a34:	9c000002 	stcls	0, cr0, [r0], {2}
    1a38:	04000002 	streq	r0, [r0], #-2
    1a3c:	7fa19100 	svcvc	0x00a19100
    1a40:	0002c09f 	muleq	r2, pc, r0	; <UNPREDICTABLE>
    1a44:	0002c800 	andeq	ip, r2, r0, lsl #16
    1a48:	5e000100 	adfpls	f0, f0, f0
    1a4c:	000002c8 	andeq	r0, r0, r8, asr #5
    1a50:	000002cc 	andeq	r0, r0, ip, asr #5
    1a54:	f0560001 			; <UNDEFINED> instruction: 0xf0560001
    1a58:	fc000002 	stc2	0, cr0, [r0], {2}
    1a5c:	04000002 	streq	r0, [r0], #-2
    1a60:	7fa19100 	svcvc	0x00a19100
    1a64:	0002fc9f 	muleq	r2, pc, ip	; <UNPREDICTABLE>
    1a68:	00032800 	andeq	r2, r3, r0, lsl #16
    1a6c:	5e000100 	adfpls	f0, f0, f0
	...
    1a78:	01000000 	mrseq	r0, (UNDEF: 0)
    1a7c:	01010101 	tsteq	r1, r1, lsl #2
    1a80:	01060201 	tsteq	r6, r1, lsl #4
    1a84:	00060000 	andeq	r0, r6, r0
    1a88:	000000a8 	andeq	r0, r0, r8, lsr #1
    1a8c:	000000b0 	strheq	r0, [r0], -r0	; <UNPREDICTABLE>
    1a90:	0c510001 	mrrceq	0, 0, r0, r1, cr1
    1a94:	1c000001 	stcne	0, cr0, [r0], {1}
    1a98:	01000001 	tsteq	r0, r1
    1a9c:	011c5c00 	tsteq	ip, r0, lsl #24
    1aa0:	012c0000 			; <UNDEFINED> instruction: 0x012c0000
    1aa4:	00010000 	andeq	r0, r1, r0
    1aa8:	00012c58 	andeq	r2, r1, r8, asr ip
    1aac:	00013000 	andeq	r3, r1, r0
    1ab0:	5c000100 	stfpls	f0, [r0], {-0}
    1ab4:	00000130 	andeq	r0, r0, r0, lsr r1
    1ab8:	00000130 	andeq	r0, r0, r0, lsr r1
    1abc:	017c0003 	cmneq	ip, r3
    1ac0:	00027c9f 	muleq	r2, pc, ip	; <UNPREDICTABLE>
    1ac4:	00029c00 	andeq	r9, r2, r0, lsl #24
    1ac8:	31000200 	mrscc	r0, R8_usr
    1acc:	0002c09f 	muleq	r2, pc, r0	; <UNPREDICTABLE>
    1ad0:	0002cc00 	andeq	ip, r2, r0, lsl #24
    1ad4:	51000100 	mrspl	r0, (UNDEF: 16)
    1ad8:	000002f0 	strdeq	r0, [r0], -r0	; <UNPREDICTABLE>
    1adc:	00000328 	andeq	r0, r0, r8, lsr #6
    1ae0:	9f310002 	svcls	0x00310002
	...
    1aec:	01060601 	tsteq	r6, r1, lsl #12
    1af0:	01000001 	tsteq	r0, r1
    1af4:	0000015c 	andeq	r0, r0, ip, asr r1
    1af8:	0000015c 	andeq	r0, r0, ip, asr r1
    1afc:	a0910004 	addsge	r0, r1, r4
    1b00:	015c9f7f 	cmpeq	ip, pc, ror pc
    1b04:	018c0000 	orreq	r0, ip, r0
    1b08:	00010000 	andeq	r0, r1, r0
    1b0c:	00029c52 	andeq	r9, r2, r2, asr ip
    1b10:	0002a000 	andeq	sl, r2, r0
    1b14:	5e000100 	adfpls	f0, f0, f0
    1b18:	000002a0 	andeq	r0, r0, r0, lsr #5
    1b1c:	000002ac 	andeq	r0, r0, ip, lsr #5
    1b20:	00520001 	subseq	r0, r2, r1
	...
    1b2c:	01010000 	mrseq	r0, (UNDEF: 1)
    1b30:	6c070100 	stfvss	f0, [r7], {-0}
    1b34:	70000001 	andvc	r0, r0, r1
    1b38:	03000001 	movweq	r0, #1
    1b3c:	9f7f7300 	svcls	0x007f7300
    1b40:	00000170 	andeq	r0, r0, r0, ror r1
    1b44:	00000178 	andeq	r0, r0, r8, ror r1
    1b48:	78530001 	ldmdavc	r3, {r0}^
    1b4c:	84000001 	strhi	r0, [r0], #-1
    1b50:	03000001 	movweq	r0, #1
    1b54:	9f7f7300 	svcls	0x007f7300
    1b58:	0000029c 	muleq	r0, ip, r2
    1b5c:	0000029c 	muleq	r0, ip, r2
    1b60:	a1910004 	orrsge	r0, r1, r4
    1b64:	00009f7f 	andeq	r9, r0, pc, ror pc
    1b68:	00000000 	andeq	r0, r0, r0
    1b6c:	01010000 	mrseq	r0, (UNDEF: 1)
    1b70:	015c0101 	cmpeq	ip, r1, lsl #2
    1b74:	018c0000 	orreq	r0, ip, r0
    1b78:	00030000 	andeq	r0, r3, r0
    1b7c:	9c9f8008 	ldcls	0, cr8, [pc], {8}
    1b80:	ac000002 	stcge	0, cr0, [r0], {2}
    1b84:	03000002 	movweq	r0, #2
    1b88:	9f800800 	svcls	0x00800800
	...
    1b94:	01000001 	tsteq	r0, r1
    1b98:	01000001 	tsteq	r0, r1
    1b9c:	01010101 	tsteq	r1, r1, lsl #2
    1ba0:	015c0101 	cmpeq	ip, r1, lsl #2
    1ba4:	016c0000 	cmneq	ip, r0
    1ba8:	00010000 	andeq	r0, r1, r0
    1bac:	00016c50 	andeq	r6, r1, r0, asr ip
    1bb0:	00016c00 	andeq	r6, r1, r0, lsl #24
    1bb4:	7c000300 	stcvc	3, cr0, [r0], {-0}
    1bb8:	016c9f01 	cmneq	ip, r1, lsl #30
    1bbc:	01780000 	cmneq	r8, r0
    1bc0:	00030000 	andeq	r0, r3, r0
    1bc4:	789f027c 	ldmvc	pc, {r2, r3, r4, r5, r6, r9}	; <UNPREDICTABLE>
    1bc8:	88000001 	stmdahi	r0, {r0}
    1bcc:	03000001 	movweq	r0, #1
    1bd0:	9f017c00 	svcls	0x00017c00
    1bd4:	00000188 	andeq	r0, r0, r8, lsl #3
    1bd8:	0000018c 	andeq	r0, r0, ip, lsl #3
    1bdc:	017e0003 	cmneq	lr, r3
    1be0:	00029c9f 	muleq	r2, pc, ip	; <UNPREDICTABLE>
    1be4:	0002a400 	andeq	sl, r2, r0, lsl #8
    1be8:	50000100 	andpl	r0, r0, r0, lsl #2
    1bec:	000002a4 	andeq	r0, r0, r4, lsr #5
    1bf0:	000002ac 	andeq	r0, r0, ip, lsr #5
    1bf4:	017e0003 	cmneq	lr, r3
    1bf8:	0000009f 	muleq	r0, pc, r0	; <UNPREDICTABLE>
    1bfc:	00000000 	andeq	r0, r0, r0
    1c00:	04000400 	streq	r0, [r0], #-1024	; 0xfffffc00
    1c04:	5c010000 	stcpl	0, cr0, [r1], {-0}
    1c08:	60000001 	andvs	r0, r0, r1
    1c0c:	03000001 	movweq	r0, #1
    1c10:	9f017100 	svcls	0x00017100
    1c14:	0000029c 	muleq	r0, ip, r2
    1c18:	000002a0 	andeq	r0, r0, r0, lsr #5
    1c1c:	9f320002 	svcls	0x00320002
    1c20:	000002a0 	andeq	r0, r0, r0, lsr #5
    1c24:	000002ac 	andeq	r0, r0, ip, lsr #5
    1c28:	01710003 	cmneq	r1, r3
    1c2c:	0000009f 	muleq	r0, pc, r0	; <UNPREDICTABLE>
    1c30:	00000000 	andeq	r0, r0, r0
    1c34:	06000700 	streq	r0, [r0], -r0, lsl #14
    1c38:	00015c00 	andeq	r5, r1, r0, lsl #24
    1c3c:	00019400 	andeq	r9, r1, r0, lsl #8
    1c40:	50000100 	andpl	r0, r0, r0, lsl #2
    1c44:	0000029c 	muleq	r0, ip, r2
    1c48:	000002b4 			; <UNDEFINED> instruction: 0x000002b4
    1c4c:	00500001 	subseq	r0, r0, r1
    1c50:	00000000 	andeq	r0, r0, r0
    1c54:	01000000 	mrseq	r0, (UNDEF: 0)
    1c58:	14000101 	strne	r0, [r0], #-257	; 0xfffffeff
    1c5c:	20000002 	andcs	r0, r0, r2
    1c60:	02000002 	andeq	r0, r0, #2, 0
    1c64:	209f3000 	addscs	r3, pc, r0
    1c68:	34000002 	strcc	r0, [r0], #-2
    1c6c:	02000002 	andeq	r0, r0, #2, 0
    1c70:	009f3100 	addseq	r3, pc, r0, lsl #2
	...
    1c7c:	00000101 	andeq	r0, r0, r1, lsl #2
    1c80:	00000101 	andeq	r0, r0, r1, lsl #2
    1c84:	00000101 	andeq	r0, r0, r1, lsl #2
    1c88:	00000101 	andeq	r0, r0, r1, lsl #2
    1c8c:	00000101 	andeq	r0, r0, r1, lsl #2
    1c90:	80010202 	andhi	r0, r1, r2, lsl #4
    1c94:	80000000 	andhi	r0, r0, r0
    1c98:	01000000 	mrseq	r0, (UNDEF: 0)
    1c9c:	00805300 	addeq	r5, r0, r0, lsl #6
    1ca0:	008c0000 	addeq	r0, ip, r0
    1ca4:	00030000 	andeq	r0, r3, r0
    1ca8:	8c9f0473 	cfldrshi	mvf0, [pc], {115}	; 0x73
    1cac:	94000000 	strls	r0, [r0], #-0
    1cb0:	01000000 	mrseq	r0, (UNDEF: 0)
    1cb4:	00945100 	addseq	r5, r4, r0, lsl #2
    1cb8:	00980000 	addseq	r0, r8, r0
    1cbc:	00030000 	andeq	r0, r3, r0
    1cc0:	989f0873 	ldmls	pc, {r0, r1, r4, r5, r6, fp}	; <UNPREDICTABLE>
    1cc4:	a4000000 	strge	r0, [r0], #-0
    1cc8:	01000000 	mrseq	r0, (UNDEF: 0)
    1ccc:	00a45100 	adceq	r5, r4, r0, lsl #2
    1cd0:	00a80000 	adceq	r0, r8, r0
    1cd4:	00030000 	andeq	r0, r3, r0
    1cd8:	a89f0c73 	ldmge	pc, {r0, r1, r4, r5, r6, sl, fp}	; <UNPREDICTABLE>
    1cdc:	b4000000 	strlt	r0, [r0], #-0
    1ce0:	01000000 	mrseq	r0, (UNDEF: 0)
    1ce4:	00b45100 	adcseq	r5, r4, r0, lsl #2
    1ce8:	00b80000 	adcseq	r0, r8, r0
    1cec:	00030000 	andeq	r0, r3, r0
    1cf0:	b89f1073 	ldmlt	pc, {r0, r1, r4, r5, r6, ip}	; <UNPREDICTABLE>
    1cf4:	c4000000 	strgt	r0, [r0], #-0
    1cf8:	01000000 	mrseq	r0, (UNDEF: 0)
    1cfc:	00c45100 	sbceq	r5, r4, r0, lsl #2
    1d00:	00c80000 	sbceq	r0, r8, r0
    1d04:	00030000 	andeq	r0, r3, r0
    1d08:	c89f1473 	ldmgt	pc, {r0, r1, r4, r5, r6, sl, ip}	; <UNPREDICTABLE>
    1d0c:	d0000000 	andle	r0, r0, r0
    1d10:	01000000 	mrseq	r0, (UNDEF: 0)
    1d14:	00d05100 	sbcseq	r5, r0, r0, lsl #2
    1d18:	00d40000 	sbcseq	r0, r4, r0
    1d1c:	00030000 	andeq	r0, r3, r0
    1d20:	009f0471 	addseq	r0, pc, r1, ror r4	; <UNPREDICTABLE>
    1d24:	00000000 	andeq	r0, r0, r0
    1d28:	02000000 	andeq	r0, r0, #0, 0
    1d2c:	0000d800 	andeq	sp, r0, r0, lsl #16
    1d30:	0000e800 	andeq	lr, r0, r0, lsl #16
    1d34:	31000200 	mrscc	r0, R8_usr
    1d38:	0000009f 	muleq	r0, pc, r0	; <UNPREDICTABLE>
    1d3c:	00000000 	andeq	r0, r0, r0
    1d40:	00000400 	andeq	r0, r0, r0, lsl #8
    1d44:	00915801 	addseq	r5, r1, r1, lsl #16
    1d48:	00916000 	addseq	r6, r1, r0
    1d4c:	30000200 	andcc	r0, r0, r0, lsl #4
    1d50:	0091609f 	umullseq	r6, r1, pc, r0	; <UNPREDICTABLE>
    1d54:	00916000 	addseq	r6, r1, r0
    1d58:	53000100 	movwpl	r0, #256	; 0x100
	...
    1d64:	00000003 	andeq	r0, r0, r3
    1d68:	00000000 	andeq	r0, r0, r0
    1d6c:	0000916c 	andeq	r9, r0, ip, ror #2
    1d70:	00009170 	andeq	r9, r0, r0, ror r1
    1d74:	9f300002 	svcls	0x00300002
    1d78:	00009170 	andeq	r9, r0, r0, ror r1
    1d7c:	00009174 	andeq	r9, r0, r4, ror r1
    1d80:	74530001 	ldrbvc	r0, [r3], #-1
    1d84:	78000091 	stmdavc	r0, {r0, r4, r7}
    1d88:	05000091 	streq	r0, [r0, #-145]	; 0xffffff6f
    1d8c:	40007300 	andmi	r7, r0, r0, lsl #6
    1d90:	91789f21 	cmnls	r8, r1, lsr #30
    1d94:	917c0000 	cmnls	ip, r0
    1d98:	00010000 	andeq	r0, r1, r0
    1d9c:	00000053 	andeq	r0, r0, r3, asr r0
    1da0:	00000000 	andeq	r0, r0, r0
    1da4:	00000200 	andeq	r0, r0, r0, lsl #4
    1da8:	00912c00 	addseq	r2, r1, r0, lsl #24
    1dac:	00913000 	addseq	r3, r1, r0
    1db0:	30000200 	andcc	r0, r0, r0, lsl #4
    1db4:	0091309f 	umullseq	r3, r1, pc, r0	; <UNPREDICTABLE>
    1db8:	00913400 	addseq	r3, r1, r0, lsl #8
    1dbc:	50000100 	andpl	r0, r0, r0, lsl #2
	...
    1dc8:	00000002 	andeq	r0, r0, r2
    1dcc:	00000000 	andeq	r0, r0, r0
    1dd0:	00009144 	andeq	r9, r0, r4, asr #2
    1dd4:	00009148 	andeq	r9, r0, r8, asr #2
    1dd8:	9f300002 	svcls	0x00300002
    1ddc:	00009148 	andeq	r9, r0, r8, asr #2
    1de0:	0000914c 	andeq	r9, r0, ip, asr #2
    1de4:	4c530001 	mrrcmi	0, 0, r0, r3, cr1
    1de8:	50000091 	mulpl	r0, r1, r0
    1dec:	05000091 	streq	r0, [r0, #-145]	; 0xffffff6f
    1df0:	40007300 	andmi	r7, r0, r0, lsl #6
    1df4:	91509f21 	cmpls	r0, r1, lsr #30
    1df8:	91580000 	cmpls	r8, r0
    1dfc:	00010000 	andeq	r0, r1, r0
    1e00:	00000053 	andeq	r0, r0, r3, asr r0
	...
    1e0c:	0000c800 	andeq	ip, r0, r0, lsl #16
    1e10:	0000d800 	andeq	sp, r0, r0, lsl #16
    1e14:	50000100 	andpl	r0, r0, r0, lsl #2
    1e18:	000000d8 	ldrdeq	r0, [r0], -r8
    1e1c:	0000011c 	andeq	r0, r0, ip, lsl r1
    1e20:	01f30004 	mvnseq	r0, r4
    1e24:	00009f50 	andeq	r9, r0, r0, asr pc
    1e28:	00000000 	andeq	r0, r0, r0
    1e2c:	00020000 	andeq	r0, r2, r0
    1e30:	00c80000 	sbceq	r0, r8, r0
    1e34:	00d80000 	sbcseq	r0, r8, r0
    1e38:	00070000 	andeq	r0, r7, r0
    1e3c:	e80a0070 	stmda	sl, {r4, r5, r6}
    1e40:	d89f1e03 	ldmle	pc, {r0, r1, r9, sl, fp, ip}	; <UNPREDICTABLE>
    1e44:	1c000000 	stcne	0, cr0, [r0], {-0}
    1e48:	08000001 	stmdaeq	r0, {r0}
    1e4c:	5001f300 	andpl	pc, r1, r0, lsl #6
    1e50:	1e03e80a 	cdpne	8, 0, cr14, cr3, cr10, {0}
    1e54:	0000009f 	muleq	r0, pc, r0	; <UNPREDICTABLE>
    1e58:	00000000 	andeq	r0, r0, r0
    1e5c:	dc000000 	stcle	0, cr0, [r0], {-0}
    1e60:	1c000000 	stcne	0, cr0, [r0], {-0}
    1e64:	01000001 	tsteq	r0, r1
    1e68:	00005400 	andeq	r5, r0, r0, lsl #8
    1e6c:	00000000 	andeq	r0, r0, r0
    1e70:	00010000 	andeq	r0, r1, r0
    1e74:	000000f0 	strdeq	r0, [r0], -r0	; <UNPREDICTABLE>
    1e78:	0000011c 	andeq	r0, r0, ip, lsl r1
    1e7c:	00560001 	subseq	r0, r6, r1
	...
    1e88:	ec000000 	stc	0, cr0, [r0], {-0}
    1e8c:	ef000000 	svc	0x00000000
    1e90:	01000000 	mrseq	r0, (UNDEF: 0)
    1e94:	00ef5000 	rsceq	r5, pc, r0
    1e98:	011c0000 	tsteq	ip, r0
    1e9c:	00010000 	andeq	r0, r1, r0
    1ea0:	00000056 	andeq	r0, r0, r6, asr r0
    1ea4:	00000000 	andeq	r0, r0, r0
    1ea8:	04000000 	streq	r0, [r0], #-0
    1eac:	0b000001 	bleq	1eb8 <__code_start__-0x6148>
    1eb0:	01000001 	tsteq	r0, r1
    1eb4:	00005000 	andeq	r5, r0, r0
	...
    1ec0:	00200000 	eoreq	r0, r0, r0
    1ec4:	00230000 	eoreq	r0, r3, r0
    1ec8:	00010000 	andeq	r0, r1, r0
    1ecc:	00002350 	andeq	r2, r0, r0, asr r3
    1ed0:	00003000 	andeq	r3, r0, r0
    1ed4:	54000100 	strpl	r0, [r0], #-256	; 0xffffff00
	...
    1ee4:	00000030 	andeq	r0, r0, r0, lsr r0
    1ee8:	0000003b 	andeq	r0, r0, fp, lsr r0
    1eec:	3b500001 	blcc	1401ef8 <__bss_end__+0x13f7b30>
    1ef0:	78000000 	stmdavc	r0, {}	; <UNPREDICTABLE>
    1ef4:	01000000 	mrseq	r0, (UNDEF: 0)
    1ef8:	00005600 	andeq	r5, r0, r0, lsl #12
    1efc:	00000000 	andeq	r0, r0, r0
    1f00:	00010000 	andeq	r0, r1, r0
    1f04:	0000004c 	andeq	r0, r0, ip, asr #32
    1f08:	00000078 	andeq	r0, r0, r8, ror r0
    1f0c:	00550001 	subseq	r0, r5, r1
	...
    1f18:	48000000 	stmdami	r0, {}	; <UNPREDICTABLE>
    1f1c:	4b000000 	blmi	1f24 <__code_start__-0x60dc>
    1f20:	01000000 	mrseq	r0, (UNDEF: 0)
    1f24:	004b5000 	subeq	r5, fp, r0
    1f28:	00780000 	rsbseq	r0, r8, r0
    1f2c:	00010000 	andeq	r0, r1, r0
    1f30:	00000055 	andeq	r0, r0, r5, asr r0
    1f34:	00000000 	andeq	r0, r0, r0
    1f38:	60000000 	andvs	r0, r0, r0
    1f3c:	67000000 	strvs	r0, [r0, -r0]
    1f40:	01000000 	mrseq	r0, (UNDEF: 0)
    1f44:	00005000 	andeq	r5, r0, r0
	...
    1f50:	00780000 	rsbseq	r0, r8, r0
    1f54:	00840000 	addeq	r0, r4, r0
    1f58:	00010000 	andeq	r0, r1, r0
    1f5c:	00008450 	andeq	r8, r0, r0, asr r4
    1f60:	0000c800 	andeq	ip, r0, r0, lsl #16
    1f64:	f3000400 	vshl.u8	d0, d0, d0
    1f68:	009f5001 	addseq	r5, pc, r1
	...
    1f74:	00008800 	andeq	r8, r0, r0, lsl #16
    1f78:	0000c800 	andeq	ip, r0, r0, lsl #16
    1f7c:	54000100 	strpl	r0, [r0], #-256	; 0xffffff00
	...
    1f88:	009c0001 	addseq	r0, ip, r1
    1f8c:	00c80000 	sbceq	r0, r8, r0
    1f90:	00010000 	andeq	r0, r1, r0
    1f94:	00000056 	andeq	r0, r0, r6, asr r0
	...
    1fa0:	00009800 	andeq	r9, r0, r0, lsl #16
    1fa4:	00009b00 	andeq	r9, r0, r0, lsl #22
    1fa8:	50000100 	andpl	r0, r0, r0, lsl #2
    1fac:	0000009b 	muleq	r0, fp, r0
    1fb0:	000000c8 	andeq	r0, r0, r8, asr #1
    1fb4:	00560001 	subseq	r0, r6, r1
	...
    1fc0:	0000b000 	andeq	fp, r0, r0
    1fc4:	0000b700 	andeq	fp, r0, r0, lsl #14
    1fc8:	50000100 	andpl	r0, r0, r0, lsl #2
	...
    1fd8:	00000158 	andeq	r0, r0, r8, asr r1
    1fdc:	00000163 	andeq	r0, r0, r3, ror #2
    1fe0:	63500001 	cmpvs	r0, #1, 0
    1fe4:	88000001 	stmdahi	r0, {r0}
    1fe8:	01000001 	tsteq	r0, r1
    1fec:	00005400 	andeq	r5, r0, r0, lsl #8
	...
    1ff8:	00000148 	andeq	r0, r0, r8, asr #2
    1ffc:	00000158 	andeq	r0, r0, r8, asr r1
    2000:	00540001 	subseq	r0, r4, r1
	...
    2010:	0f000000 	svceq	0x00000000
    2014:	01000000 	mrseq	r0, (UNDEF: 0)
    2018:	000f5000 	andeq	r5, pc, r0
    201c:	00200000 	eoreq	r0, r0, r0
    2020:	00010000 	andeq	r0, r1, r0
    2024:	00000054 	andeq	r0, r0, r4, asr r0
	...
    2034:	00000f00 	andeq	r0, r0, r0, lsl #30
    2038:	51000100 	mrspl	r0, (UNDEF: 16)
    203c:	0000000f 	andeq	r0, r0, pc
    2040:	00000020 	andeq	r0, r0, r0, lsr #32
    2044:	00550001 	subseq	r0, r5, r1
	...
    2050:	20000000 	andcs	r0, r0, r0
    2054:	2f000000 	svccs	0x00000000
    2058:	01000000 	mrseq	r0, (UNDEF: 0)
    205c:	002f5000 	eoreq	r5, pc, r0
    2060:	00400000 	subeq	r0, r0, r0
    2064:	00010000 	andeq	r0, r1, r0
    2068:	00000054 	andeq	r0, r0, r4, asr r0
	...
    2074:	00002000 	andeq	r2, r0, r0
    2078:	00002f00 	andeq	r2, r0, r0, lsl #30
    207c:	51000100 	mrspl	r0, (UNDEF: 16)
    2080:	0000002f 	andeq	r0, r0, pc, lsr #32
    2084:	00000040 	andeq	r0, r0, r0, asr #32
    2088:	00550001 	subseq	r0, r5, r1
	...
    2098:	00035000 	andeq	r5, r3, r0
    209c:	00039800 	andeq	r9, r3, r0, lsl #16
    20a0:	50000100 	andpl	r0, r0, r0, lsl #2
    20a4:	00000398 	muleq	r0, r8, r3
    20a8:	0000039b 	muleq	r0, fp, r3
    20ac:	68910002 	ldmvs	r1, {r1}
    20b0:	0000039b 	muleq	r0, fp, r3
    20b4:	000003b0 			; <UNDEFINED> instruction: 0x000003b0
    20b8:	01f30004 	mvnseq	r0, r4
    20bc:	00009f50 	andeq	r9, r0, r0, asr pc
	...
    20d8:	02200000 	eoreq	r0, r0, #0, 0
    20dc:	027b0000 	rsbseq	r0, fp, #0, 0
    20e0:	00010000 	andeq	r0, r1, r0
    20e4:	00027b50 	andeq	r7, r2, r0, asr fp
    20e8:	00028400 	andeq	r8, r2, r0, lsl #8
    20ec:	f3000400 	vshl.u8	d0, d0, d0
    20f0:	849f5001 	ldrhi	r5, [pc], #1	; 20f8 <__code_start__-0x5f08>
    20f4:	9c000002 	stcls	0, cr0, [r0], {2}
    20f8:	01000002 	tsteq	r0, r2
    20fc:	029c5000 	addseq	r5, ip, #0, 0
    2100:	02a40000 	adceq	r0, r4, #0, 0
    2104:	00040000 	andeq	r0, r4, r0
    2108:	9f5001f3 	svcls	0x005001f3
    210c:	000002a4 	andeq	r0, r0, r4, lsr #5
    2110:	000002a7 	andeq	r0, r0, r7, lsr #5
    2114:	a7500001 	ldrbge	r0, [r0, -r1]
    2118:	c8000002 	stmdagt	r0, {r1}
    211c:	04000002 	streq	r0, [r0], #-2
    2120:	5001f300 	andpl	pc, r1, r0, lsl #6
    2124:	0002c89f 	muleq	r2, pc, r8	; <UNPREDICTABLE>
    2128:	0002e000 	andeq	lr, r2, r0
    212c:	50000100 	andpl	r0, r0, r0, lsl #2
    2130:	000002e0 	andeq	r0, r0, r0, ror #5
    2134:	000002e8 	andeq	r0, r0, r8, ror #5
    2138:	01f30004 	mvnseq	r0, r4
    213c:	02e89f50 	rsceq	r9, r8, #80, 30	; 0x140
    2140:	02eb0000 	rsceq	r0, fp, #0, 0
    2144:	00010000 	andeq	r0, r1, r0
    2148:	0002eb50 	andeq	lr, r2, r0, asr fp
    214c:	00033800 	andeq	r3, r3, r0, lsl #16
    2150:	f3000400 	vshl.u8	d0, d0, d0
    2154:	009f5001 	addseq	r5, pc, r1
	...
    2170:	20000000 	andcs	r0, r0, r0
    2174:	44000002 	strmi	r0, [r0], #-2
    2178:	01000002 	tsteq	r0, r2
    217c:	02445100 	subeq	r5, r4, #0
    2180:	02680000 	rsbeq	r0, r8, #0, 0
    2184:	00010000 	andeq	r0, r1, r0
    2188:	00026851 	andeq	r6, r2, r1, asr r8
    218c:	00027b00 	andeq	r7, r2, r0, lsl #22
    2190:	71000300 	mrsvc	r0, LR_irq
    2194:	027b9f01 	rsbseq	r9, fp, #1, 30
    2198:	02840000 	addeq	r0, r4, #0, 0
    219c:	00170000 	andseq	r0, r7, r0
    21a0:	5101f338 	tstpl	r1, r8, lsr r3	; <UNPREDICTABLE>
    21a4:	405101f3 	ldrshmi	r0, [r1], #-19	; 0xffffffed
    21a8:	0c22244b 	cfstrseq	mvf2, [r2], #-300	; 0xfffffed4
    21ac:	80000008 	andhi	r0, r0, r8
    21b0:	0001282d 	andeq	r2, r1, sp, lsr #16
    21b4:	849f1316 	ldrhi	r1, [pc], #790	; 21bc <__code_start__-0x5e44>
    21b8:	98000002 	stmdals	r0, {r1}
    21bc:	01000002 	tsteq	r0, r2
    21c0:	02985100 	addseq	r5, r8, #0
    21c4:	02a40000 	adceq	r0, r4, #0, 0
    21c8:	00040000 	andeq	r0, r4, r0
    21cc:	9f5101f3 	svcls	0x005101f3
    21d0:	000002a4 	andeq	r0, r0, r4, lsr #5
    21d4:	000002a7 	andeq	r0, r0, r7, lsr #5
    21d8:	a7510001 	ldrbge	r0, [r1, -r1]
    21dc:	c8000002 	stmdagt	r0, {r1}
    21e0:	04000002 	streq	r0, [r0], #-2
    21e4:	5101f300 	mrspl	pc, SP_irq	; <UNPREDICTABLE>
    21e8:	0002c89f 	muleq	r2, pc, r8	; <UNPREDICTABLE>
    21ec:	0002dc00 	andeq	sp, r2, r0, lsl #24
    21f0:	51000100 	mrspl	r0, (UNDEF: 16)
    21f4:	000002dc 	ldrdeq	r0, [r0], -ip
    21f8:	00000338 	andeq	r0, r0, r8, lsr r3
    21fc:	f3380017 	vqadd.u64	d0, d8, d7
    2200:	01f35101 	mvnseq	r5, r1, lsl #2
    2204:	244b4051 	strbcs	r4, [fp], #-81	; 0xffffffaf
    2208:	00080c22 	andeq	r0, r8, r2, lsr #24
    220c:	282d8000 	stmdacs	sp!, {pc}
    2210:	13160001 	tstne	r6, #1, 0
    2214:	0000009f 	muleq	r0, pc, r0	; <UNPREDICTABLE>
	...
    2228:	00024c00 	andeq	r4, r2, r0, lsl #24
    222c:	00025c00 	andeq	r5, r2, r0, lsl #24
    2230:	52000100 	andpl	r0, r0, #0
    2234:	0000025c 	andeq	r0, r0, ip, asr r2
    2238:	00000264 	andeq	r0, r0, r4, ror #4
    223c:	a0030005 	andge	r0, r3, r5
    2240:	6400009f 	strvs	r0, [r0], #-159	; 0xffffff61
    2244:	7b000002 	blvc	2254 <__code_start__-0x5dac>
    2248:	01000002 	tsteq	r0, r2
    224c:	02c85300 	sbceq	r5, r8, #0, 6
    2250:	02d80000 	sbcseq	r0, r8, #0, 0
    2254:	00010000 	andeq	r0, r1, r0
    2258:	0002d852 	andeq	sp, r2, r2, asr r8
    225c:	0002e300 	andeq	lr, r2, r0, lsl #6
    2260:	03000500 	movweq	r0, #1280	; 0x500
    2264:	00009fa0 	andeq	r9, r0, r0, lsr #31
    2268:	000002e8 	andeq	r0, r0, r8, ror #5
    226c:	000002eb 	andeq	r0, r0, fp, ror #5
    2270:	00530001 	subseq	r0, r3, r1
    2274:	00000000 	andeq	r0, r0, r0
    2278:	04000000 	streq	r0, [r0], #-0
    227c:	00023000 	andeq	r3, r2, r0
    2280:	00023400 	andeq	r3, r2, r0, lsl #8
    2284:	51000100 	mrspl	r0, (UNDEF: 16)
	...
    2290:	023c0002 	eorseq	r0, ip, #2, 0
    2294:	02440000 	subeq	r0, r4, #0, 0
    2298:	00020000 	andeq	r0, r2, r0
    229c:	00009f38 	andeq	r9, r0, r8, lsr pc
    22a0:	00000000 	andeq	r0, r0, r0
    22a4:	00020000 	andeq	r0, r2, r0
    22a8:	0000023c 	andeq	r0, r0, ip, lsr r2
    22ac:	00000244 	andeq	r0, r0, r4, asr #4
    22b0:	00510001 	subseq	r0, r1, r1
    22b4:	00000000 	andeq	r0, r0, r0
    22b8:	01000000 	mrseq	r0, (UNDEF: 0)
    22bc:	00000000 	andeq	r0, r0, r0
    22c0:	00024c00 	andeq	r4, r2, r0, lsl #24
    22c4:	00026400 	andeq	r6, r2, r0, lsl #8
    22c8:	51000100 	mrspl	r0, (UNDEF: 16)
    22cc:	000002c8 	andeq	r0, r0, r8, asr #5
    22d0:	000002dc 	ldrdeq	r0, [r0], -ip
    22d4:	dc510001 	mrrcle	0, 0, r0, r1, cr1
    22d8:	e8000002 	stmda	r0, {r1}
    22dc:	17000002 	strne	r0, [r0, -r2]
    22e0:	01f33800 	mvnseq	r3, r0, lsl #16
    22e4:	5101f351 	tstpl	r1, r1, asr r3	; <UNPREDICTABLE>
    22e8:	22244b40 	eorcs	r4, r4, #64, 22	; 0x10000
    22ec:	0000080c 	andeq	r0, r0, ip, lsl #16
    22f0:	01282d80 	smlawbeq	r8, r0, sp, r2
    22f4:	9f131600 	svcls	0x00131600
	...
    2300:	00000001 	andeq	r0, r0, r1
    2304:	00000000 	andeq	r0, r0, r0
    2308:	0000024c 	andeq	r0, r0, ip, asr #4
    230c:	0000025c 	andeq	r0, r0, ip, asr r2
    2310:	5c520001 	mrrcpl	0, 0, r0, r2, cr1
    2314:	64000002 	strvs	r0, [r0], #-2
    2318:	05000002 	streq	r0, [r0, #-2]
    231c:	9fa00300 	svcls	0x00a00300
    2320:	02c80000 	sbceq	r0, r8, #0, 0
    2324:	02d80000 	sbcseq	r0, r8, #0, 0
    2328:	00010000 	andeq	r0, r1, r0
    232c:	0002d852 	andeq	sp, r2, r2, asr r8
    2330:	0002e300 	andeq	lr, r2, r0, lsl #6
    2334:	03000500 	movweq	r0, #1280	; 0x500
    2338:	00009fa0 	andeq	r9, r0, r0, lsr #31
	...
    2344:	024c0004 	subeq	r0, ip, #4, 0
    2348:	02500000 	subseq	r0, r0, #0, 0
    234c:	00010000 	andeq	r0, r1, r0
    2350:	00000051 	andeq	r0, r0, r1, asr r0
    2354:	00000000 	andeq	r0, r0, r0
    2358:	64000300 	strvs	r0, [r0], #-768	; 0xfffffd00
    235c:	68000002 	stmdavs	r0, {r1}
    2360:	01000002 	tsteq	r0, r2
    2364:	00005100 	andeq	r5, r0, r0, lsl #2
    2368:	00000000 	andeq	r0, r0, r0
    236c:	00030000 	andeq	r0, r3, r0
    2370:	00000264 	andeq	r0, r0, r4, ror #4
    2374:	00000268 	andeq	r0, r0, r8, ror #4
    2378:	00530001 	subseq	r0, r3, r1
	...
    2388:	bc000000 	stclt	0, cr0, [r0], {-0}
    238c:	d3000001 	movwle	r0, #1
    2390:	01000001 	tsteq	r0, r1
    2394:	01d35000 	bicseq	r5, r3, r0
    2398:	01f00000 	mvnseq	r0, r0
    239c:	00010000 	andeq	r0, r1, r0
    23a0:	0001f054 	andeq	pc, r1, r4, asr r0	; <UNPREDICTABLE>
    23a4:	00020800 	andeq	r0, r2, r0, lsl #16
    23a8:	50000100 	andpl	r0, r0, r0, lsl #2
    23ac:	00000208 	andeq	r0, r0, r8, lsl #4
    23b0:	00000220 	andeq	r0, r0, r0, lsr #4
    23b4:	00540001 	subseq	r0, r4, r1
	...
    23c0:	d8000000 	stmdale	r0, {}	; <UNPREDICTABLE>
    23c4:	e3000001 	movw	r0, #1
    23c8:	01000001 	tsteq	r0, r1
    23cc:	01e35000 	mvneq	r5, r0
    23d0:	01f00000 	mvnseq	r0, r0
    23d4:	00010000 	andeq	r0, r1, r0
    23d8:	00000055 	andeq	r0, r0, r5, asr r0
	...
    23f0:	00012400 	andeq	r2, r1, r0, lsl #8
    23f4:	00013800 	andeq	r3, r1, r0, lsl #16
    23f8:	50000100 	andpl	r0, r0, r0, lsl #2
    23fc:	00000138 	andeq	r0, r0, r8, lsr r1
    2400:	0000013c 	andeq	r0, r0, ip, lsr r1
    2404:	79700003 	ldmdbvc	r0!, {r0, r1}^
    2408:	00013c9f 	muleq	r1, pc, ip	; <UNPREDICTABLE>
    240c:	00016000 	andeq	r6, r1, r0
    2410:	53000100 	movwpl	r0, #256	; 0x100
    2414:	00000160 	andeq	r0, r0, r0, ror #2
    2418:	00000178 	andeq	r0, r0, r8, ror r1
    241c:	78500001 	ldmdavc	r0, {r0}^
    2420:	80000001 	andhi	r0, r0, r1
    2424:	04000001 	streq	r0, [r0], #-1
    2428:	5001f300 	andpl	pc, r1, r0, lsl #6
    242c:	0001809f 	muleq	r1, pc, r0	; <UNPREDICTABLE>
    2430:	00019000 	andeq	r9, r1, r0
    2434:	53000100 	movwpl	r0, #256	; 0x100
    2438:	00000190 	muleq	r0, r0, r1
    243c:	0000019f 	muleq	r0, pc, r1	; <UNPREDICTABLE>
    2440:	68910002 	ldmvs	r1, {r1}
    2444:	0000019f 	muleq	r0, pc, r1	; <UNPREDICTABLE>
    2448:	000001bc 			; <UNDEFINED> instruction: 0x000001bc
    244c:	01f30009 	mvnseq	r0, r9
    2450:	09072350 	stmdbeq	r7, {r4, r6, r8, r9, sp}
    2454:	009f1af8 			; <UNDEFINED> instruction: 0x009f1af8
	...
    2460:	44000000 	strmi	r0, [r0], #-0
    2464:	60000001 	andvs	r0, r0, r1
    2468:	01000001 	tsteq	r0, r1
    246c:	01805000 	orreq	r5, r0, r0
    2470:	019c0000 	orrseq	r0, ip, r0
    2474:	00010000 	andeq	r0, r1, r0
    2478:	00000050 	andeq	r0, r0, r0, asr r0
    247c:	00000000 	andeq	r0, r0, r0
    2480:	34000300 	strcc	r0, [r0], #-768	; 0xfffffd00
    2484:	3c000001 	stccc	0, cr0, [r0], {1}
    2488:	02000001 	andeq	r0, r0, #1, 0
    248c:	009f3800 	addseq	r3, pc, r0, lsl #16
    2490:	00000000 	andeq	r0, r0, r0
    2494:	03000000 	movweq	r0, #0
    2498:	34000000 	strcc	r0, [r0], #-0
    249c:	38000001 	stmdacc	r0, {r0}
    24a0:	01000001 	tsteq	r0, r1
    24a4:	01385000 	teqeq	r8, r0
    24a8:	013c0000 	teqeq	ip, r0
    24ac:	00030000 	andeq	r0, r3, r0
    24b0:	009f7970 	addseq	r7, pc, r0, ror r9	; <UNPREDICTABLE>
	...
    24c8:	00003000 	andeq	r3, r0, r0
    24cc:	00006000 	andeq	r6, r0, r0
    24d0:	50000100 	andpl	r0, r0, r0, lsl #2
    24d4:	00000060 	andeq	r0, r0, r0, rrx
    24d8:	0000006c 	andeq	r0, r0, ip, rrx
    24dc:	a0030005 	andge	r0, r3, r5
    24e0:	6c00009f 	stcvs	0, cr0, [r0], {159}	; 0x9f
    24e4:	84000000 	strhi	r0, [r0], #-0
    24e8:	01000000 	mrseq	r0, (UNDEF: 0)
    24ec:	00845000 	addeq	r5, r4, r0
    24f0:	008c0000 	addeq	r0, ip, r0
    24f4:	00040000 	andeq	r0, r4, r0
    24f8:	9f5001f3 	svcls	0x005001f3
    24fc:	0000008c 	andeq	r0, r0, ip, lsl #1
    2500:	000000ac 	andeq	r0, r0, ip, lsr #1
    2504:	ac500001 	mrrcge	0, 0, r0, r0, cr1	; <UNPREDICTABLE>
    2508:	af000000 	svcge	0x00000000
    250c:	02000000 	andeq	r0, r0, #0, 0
    2510:	af689100 	svcge	0x00689100
    2514:	cc000000 	stcgt	0, cr0, [r0], {-0}
    2518:	04000000 	streq	r0, [r0], #-0
    251c:	5001f300 	andpl	pc, r1, r0, lsl #6
    2520:	0000009f 	muleq	r0, pc, r0	; <UNPREDICTABLE>
	...
    2530:	00003000 	andeq	r3, r0, r0
    2534:	00008000 	andeq	r8, r0, r0
    2538:	51000100 	mrspl	r0, (UNDEF: 16)
    253c:	00000080 	andeq	r0, r0, r0, lsl #1
    2540:	0000008c 	andeq	r0, r0, ip, lsl #1
    2544:	01f30004 	mvnseq	r0, r4
    2548:	008c9f51 	addeq	r9, ip, r1, asr pc
    254c:	00a80000 	adceq	r0, r8, r0
    2550:	00010000 	andeq	r0, r1, r0
    2554:	0000a851 	andeq	sl, r0, r1, asr r8
    2558:	0000cc00 	andeq	ip, r0, r0, lsl #24
    255c:	f3000400 	vshl.u8	d0, d0, d0
    2560:	009f5101 	addseq	r5, pc, r1, lsl #2
    2564:	00000000 	andeq	r0, r0, r0
    2568:	01000000 	mrseq	r0, (UNDEF: 0)
	...
    2578:	00003800 	andeq	r3, r0, r0, lsl #16
    257c:	00006000 	andeq	r6, r0, r0
    2580:	50000100 	andpl	r0, r0, r0, lsl #2
    2584:	00000060 	andeq	r0, r0, r0, rrx
    2588:	0000006c 	andeq	r0, r0, ip, rrx
    258c:	a0030005 	andge	r0, r3, r5
    2590:	6c00009f 	stcvs	0, cr0, [r0], {159}	; 0x9f
    2594:	84000000 	strhi	r0, [r0], #-0
    2598:	01000000 	mrseq	r0, (UNDEF: 0)
    259c:	00845000 	addeq	r5, r4, r0
    25a0:	008c0000 	addeq	r0, ip, r0
    25a4:	00040000 	andeq	r0, r4, r0
    25a8:	9f5001f3 	svcls	0x005001f3
    25ac:	0000008c 	andeq	r0, r0, ip, lsl #1
    25b0:	000000ac 	andeq	r0, r0, ip, lsr #1
    25b4:	ac500001 	mrrcge	0, 0, r0, r0, cr1	; <UNPREDICTABLE>
    25b8:	af000000 	svcge	0x00000000
    25bc:	02000000 	andeq	r0, r0, #0, 0
    25c0:	af689100 	svcge	0x00689100
    25c4:	cc000000 	stcgt	0, cr0, [r0], {-0}
    25c8:	04000000 	streq	r0, [r0], #-0
    25cc:	5001f300 	andpl	pc, r1, r0, lsl #6
    25d0:	0000009f 	muleq	r0, pc, r0	; <UNPREDICTABLE>
	...
    25dc:	70000000 	andvc	r0, r0, r0
    25e0:	7c000001 	stcvc	0, cr0, [r0], {1}
    25e4:	01000001 	tsteq	r0, r1
    25e8:	017c5000 	cmneq	ip, r0
    25ec:	01880000 	orreq	r0, r8, r0
    25f0:	00010000 	andeq	r0, r1, r0
    25f4:	00018854 	andeq	r8, r1, r4, asr r8
    25f8:	00019800 	andeq	r9, r1, r0, lsl #16
    25fc:	f3000400 	vshl.u8	d0, d0, d0
    2600:	009f5001 	addseq	r5, pc, r1
	...
    2614:	00017800 	andeq	r7, r1, r0, lsl #16
    2618:	00017c00 	andeq	r7, r1, r0, lsl #24
    261c:	70000b00 	andvc	r0, r0, r0, lsl #22
    2620:	23253500 			; <UNDEFINED> instruction: 0x23253500
    2624:	818080b4 	strhhi	r8, [r0, r4]
    2628:	017c9f02 	cmneq	ip, r2, lsl #30
    262c:	01800000 	orreq	r0, r0, r0
    2630:	000b0000 	andeq	r0, fp, r0
    2634:	25350074 	ldrcs	r0, [r5, #-116]!	; 0xffffff8c
    2638:	8080b423 	addhi	fp, r0, r3, lsr #8
    263c:	809f0281 	addshi	r0, pc, r1, lsl #5
    2640:	83000001 	movwhi	r0, #1
    2644:	01000001 	tsteq	r0, r1
    2648:	01835000 	orreq	r5, r3, r0
    264c:	01880000 	orreq	r0, r8, r0
    2650:	000b0000 	andeq	r0, fp, r0
    2654:	25350074 	ldrcs	r0, [r5, #-116]!	; 0xffffff8c
    2658:	8080b423 	addhi	fp, r0, r3, lsr #8
    265c:	889f0281 	ldmhi	pc, {r0, r7, r9}	; <UNPREDICTABLE>
    2660:	98000001 	stmdals	r0, {r0}
    2664:	0c000001 	stceq	0, cr0, [r0], {1}
    2668:	5001f300 	andpl	pc, r1, r0, lsl #6
    266c:	b4232535 	strtlt	r2, [r3], #-1333	; 0xfffffacb
    2670:	02818080 	addeq	r8, r1, #128, 0	; 0x80
    2674:	0000009f 	muleq	r0, pc, r0	; <UNPREDICTABLE>
    2678:	00000000 	andeq	r0, r0, r0
    267c:	00000100 	andeq	r0, r0, r0, lsl #2
    2680:	78000000 	stmdavc	r0, {}	; <UNPREDICTABLE>
    2684:	7c000001 	stcvc	0, cr0, [r0], {1}
    2688:	05000001 	streq	r0, [r0, #-1]
    268c:	4f007000 	svcmi	0x00007000
    2690:	017c9f1a 	cmneq	ip, sl, lsl pc
    2694:	01880000 	orreq	r0, r8, r0
    2698:	00050000 	andeq	r0, r5, r0
    269c:	1a4f0074 	bne	13c2874 <__bss_end__+0x13b84ac>
    26a0:	0001889f 	muleq	r1, pc, r8	; <UNPREDICTABLE>
    26a4:	00019800 	andeq	r9, r1, r0, lsl #16
    26a8:	54000100 	strpl	r0, [r0], #-256	; 0xffffff00
	...
    26c0:	00000140 	andeq	r0, r0, r0, asr #2
    26c4:	00000154 	andeq	r0, r0, r4, asr r1
    26c8:	54500001 	ldrbpl	r0, [r0], #-1
    26cc:	58000001 	stmdapl	r0, {r0}
    26d0:	01000001 	tsteq	r0, r1
    26d4:	01585100 	cmpeq	r8, r0, lsl #2
    26d8:	015c0000 	cmpeq	ip, r0
    26dc:	00040000 	andeq	r0, r4, r0
    26e0:	9f5001f3 	svcls	0x005001f3
    26e4:	0000015c 	andeq	r0, r0, ip, asr r1
    26e8:	00000160 	andeq	r0, r0, r0, ror #2
    26ec:	60500001 	subsvs	r0, r0, r1
    26f0:	64000001 	strvs	r0, [r0], #-1
    26f4:	01000001 	tsteq	r0, r1
    26f8:	01645100 	cmneq	r4, r0, lsl #2
    26fc:	01700000 	cmneq	r0, r0
    2700:	00040000 	andeq	r0, r4, r0
    2704:	9f5001f3 	svcls	0x005001f3
	...
    2714:	00000140 	andeq	r0, r0, r0, asr #2
    2718:	0000014c 	andeq	r0, r0, ip, asr #2
    271c:	4c510001 	mrrcmi	0, 0, r0, r1, cr1
    2720:	70000001 	andvc	r0, r0, r1
    2724:	04000001 	streq	r0, [r0], #-1
    2728:	5101f300 	mrspl	pc, SP_irq	; <UNPREDICTABLE>
    272c:	0000009f 	muleq	r0, pc, r0	; <UNPREDICTABLE>
    2730:	00000000 	andeq	r0, r0, r0
    2734:	00000100 	andeq	r0, r0, r0, lsl #2
    2738:	50000000 	andpl	r0, r0, r0
    273c:	54000001 	strpl	r0, [r0], #-1
    2740:	01000001 	tsteq	r0, r1
    2744:	01545000 	cmpeq	r4, r0
    2748:	01580000 	cmpeq	r8, r0
    274c:	00010000 	andeq	r0, r1, r0
    2750:	00015851 	andeq	r5, r1, r1, asr r8
    2754:	00015c00 	andeq	r5, r1, r0, lsl #24
    2758:	f3000400 	vshl.u8	d0, d0, d0
    275c:	009f5001 	addseq	r5, pc, r1
    2760:	00000000 	andeq	r0, r0, r0
    2764:	02000000 	andeq	r0, r0, #0, 0
    2768:	00000000 	andeq	r0, r0, r0
    276c:	00015c00 	andeq	r5, r1, r0, lsl #24
    2770:	00016000 	andeq	r6, r1, r0
    2774:	50000100 	andpl	r0, r0, r0, lsl #2
    2778:	00000160 	andeq	r0, r0, r0, ror #2
    277c:	00000164 	andeq	r0, r0, r4, ror #2
    2780:	64510001 	ldrbvs	r0, [r1], #-1
    2784:	70000001 	andvc	r0, r0, r1
    2788:	04000001 	streq	r0, [r0], #-1
    278c:	5001f300 	andpl	pc, r1, r0, lsl #6
    2790:	0000009f 	muleq	r0, pc, r0	; <UNPREDICTABLE>
	...
    279c:	e8000000 	stmda	r0, {}	; <UNPREDICTABLE>
    27a0:	08000000 	stmdaeq	r0, {}	; <UNPREDICTABLE>
    27a4:	01000001 	tsteq	r0, r1
    27a8:	01085000 	mrseq	r5, (UNDEF: 8)
    27ac:	01280000 			; <UNDEFINED> instruction: 0x01280000
    27b0:	00010000 	andeq	r0, r1, r0
    27b4:	00012854 	andeq	r2, r1, r4, asr r8
    27b8:	00014000 	andeq	r4, r1, r0
    27bc:	f3000400 	vshl.u8	d0, d0, d0
    27c0:	009f5001 	addseq	r5, pc, r1
    27c4:	00000000 	andeq	r0, r0, r0
    27c8:	02000000 	andeq	r0, r0, #0, 0
    27cc:	00000000 	andeq	r0, r0, r0
    27d0:	0000e800 	andeq	lr, r0, r0, lsl #16
    27d4:	00010800 	andeq	r0, r1, r0, lsl #16
    27d8:	50000100 	andpl	r0, r0, r0, lsl #2
    27dc:	00000108 	andeq	r0, r0, r8, lsl #2
    27e0:	00000128 	andeq	r0, r0, r8, lsr #2
    27e4:	28540001 	ldmdacs	r4, {r0}^
    27e8:	40000001 	andmi	r0, r0, r1
    27ec:	04000001 	streq	r0, [r0], #-1
    27f0:	5001f300 	andpl	pc, r1, r0, lsl #6
    27f4:	0000009f 	muleq	r0, pc, r0	; <UNPREDICTABLE>
	...
    2800:	f0000000 			; <UNDEFINED> instruction: 0xf0000000
    2804:	08000000 	stmdaeq	r0, {}	; <UNPREDICTABLE>
    2808:	01000001 	tsteq	r0, r1
    280c:	01085000 	mrseq	r5, (UNDEF: 8)
    2810:	01280000 			; <UNDEFINED> instruction: 0x01280000
    2814:	00010000 	andeq	r0, r1, r0
    2818:	00012854 	andeq	r2, r1, r4, asr r8
    281c:	00014000 	andeq	r4, r1, r0
    2820:	f3000400 	vshl.u8	d0, d0, d0
    2824:	009f5001 	addseq	r5, pc, r1
    2828:	00000000 	andeq	r0, r0, r0
    282c:	03000000 	movweq	r0, #0
    2830:	00000000 	andeq	r0, r0, r0
    2834:	0000f000 	andeq	pc, r0, r0
    2838:	00010800 	andeq	r0, r1, r0, lsl #16
    283c:	70000700 	andvc	r0, r0, r0, lsl #14
    2840:	331d3a00 	tstcc	sp, #0, 20
    2844:	01089f1e 	tsteq	r8, lr, lsl pc
    2848:	01280000 			; <UNDEFINED> instruction: 0x01280000
    284c:	00070000 	andeq	r0, r7, r0
    2850:	1d3a0074 	ldcne	0, cr0, [sl, #-464]!	; 0xfffffe30
    2854:	289f1e33 	ldmcs	pc, {r0, r1, r4, r5, r9, sl, fp, ip}	; <UNPREDICTABLE>
    2858:	40000001 	andmi	r0, r0, r1
    285c:	08000001 	stmdaeq	r0, {r0}
    2860:	5001f300 	andpl	pc, r1, r0, lsl #6
    2864:	1e331d3a 	mrcne	13, 1, r1, cr3, cr10, {1}
    2868:	0000009f 	muleq	r0, pc, r0	; <UNPREDICTABLE>
	...
    2874:	10000000 	andne	r0, r0, r0
    2878:	38000001 	stmdacc	r0, {r0}
    287c:	01000001 	tsteq	r0, r1
    2880:	01385600 	teqeq	r8, r0, lsl #12
    2884:	013b0000 	teqeq	fp, r0
    2888:	00010000 	andeq	r0, r1, r0
    288c:	00013b50 	andeq	r3, r1, r0, asr fp
    2890:	00014000 	andeq	r4, r1, r0
    2894:	f3002600 	vmax.u8	d2, d0, d0
    2898:	2cf75001 	ldclcs	0, cr5, [r7], #4
    289c:	25f425f7 	ldrbcs	r2, [r4, #1527]!	; 0x5f7
    28a0:	cccccd08 	stclgt	13, cr12, [ip], {8}
    28a4:	000000cc 	andeq	r0, r0, ip, asr #1
    28a8:	20081e00 	andcs	r1, r8, r0, lsl #28
    28ac:	f72525f7 			; <UNDEFINED> instruction: 0xf72525f7
    28b0:	3300f72c 	movwcc	pc, #1836	; 0x72c	; <UNPREDICTABLE>
    28b4:	80802325 	addhi	r2, r0, r5, lsr #6
    28b8:	243240a0 	ldrtcs	r4, [r2], #-160	; 0xffffff60
    28bc:	0000009f 	muleq	r0, pc, r0	; <UNPREDICTABLE>
    28c0:	00000000 	andeq	r0, r0, r0
    28c4:	01010000 	mrseq	r0, (UNDEF: 1)
    28c8:	00000000 	andeq	r0, r0, r0
    28cc:	00012000 	andeq	r2, r1, r0
    28d0:	00012000 	andeq	r2, r1, r0
    28d4:	50000100 	andpl	r0, r0, r0, lsl #2
    28d8:	00000120 	andeq	r0, r0, r0, lsr #2
    28dc:	00000128 	andeq	r0, r0, r8, lsr #2
    28e0:	7437000d 	ldrtvc	r0, [r7], #-13
    28e4:	331d3a00 	tstcc	sp, #0, 20
    28e8:	7020241e 	eorvc	r2, r0, lr, lsl r4
    28ec:	289f1a00 	ldmcs	pc, {r9, fp, ip}	; <UNPREDICTABLE>
    28f0:	30000001 	andcc	r0, r0, r1
    28f4:	0e000001 	cdpeq	0, 0, cr0, cr0, cr1, {0}
    28f8:	01f33700 	mvnseq	r3, r0, lsl #14
    28fc:	331d3a50 	tstcc	sp, #80, 20	; 0x50000
    2900:	7020241e 	eorvc	r2, r0, lr, lsl r4
    2904:	309f1a00 	addscc	r1, pc, r0, lsl #20
    2908:	3b000001 	blcc	2914 <__code_start__-0x56ec>
    290c:	0e000001 	cdpeq	0, 0, cr0, cr0, cr1, {0}
    2910:	01f33700 	mvnseq	r3, r0, lsl #14
    2914:	331d3a50 	tstcc	sp, #80, 20	; 0x50000
    2918:	7320241e 			; <UNDEFINED> instruction: 0x7320241e
    291c:	009f1a00 	addseq	r1, pc, r0, lsl #20
	...
    2928:	60000000 	andvs	r0, r0, r0
    292c:	90000000 	andls	r0, r0, r0
    2930:	01000000 	mrseq	r0, (UNDEF: 0)
    2934:	00905000 	addseq	r5, r0, r0
    2938:	00b80000 	adcseq	r0, r8, r0
    293c:	00040000 	andeq	r0, r4, r0
    2940:	9f5001f3 	svcls	0x005001f3
	...
    294c:	00000002 	andeq	r0, r0, r2
    2950:	00000060 	andeq	r0, r0, r0, rrx
    2954:	00000090 	muleq	r0, r0, r0
    2958:	90500001 	subsls	r0, r0, r1
    295c:	b8000000 	stmdalt	r0, {}	; <UNPREDICTABLE>
    2960:	04000000 	streq	r0, [r0], #-0
    2964:	5001f300 	andpl	pc, r1, r0, lsl #6
    2968:	0000009f 	muleq	r0, pc, r0	; <UNPREDICTABLE>
	...
    2974:	00006800 	andeq	r6, r0, r0, lsl #16
    2978:	00009000 	andeq	r9, r0, r0
    297c:	50000100 	andpl	r0, r0, r0, lsl #2
    2980:	00000090 	muleq	r0, r0, r0
    2984:	000000b8 	strheq	r0, [r0], -r8
    2988:	01f30004 	mvnseq	r0, r4
    298c:	00009f50 	andeq	r9, r0, r0, asr pc
	...
    2998:	00a00000 	adceq	r0, r0, r0
    299c:	00b00000 	adcseq	r0, r0, r0
    29a0:	00010000 	andeq	r0, r1, r0
    29a4:	0000b054 	andeq	fp, r0, r4, asr r0
    29a8:	0000b800 	andeq	fp, r0, r0, lsl #16
    29ac:	f3002900 	vmls.i8	d2, d0, d0
    29b0:	01f35001 	mvnseq	r5, r1
    29b4:	f72cf750 			; <UNDEFINED> instruction: 0xf72cf750
    29b8:	0825f425 	stmdaeq	r5!, {r0, r2, r5, sl, ip, sp, lr, pc}
    29bc:	cccccccd 	stclgt	12, cr12, [ip], {205}	; 0xcd
    29c0:	00000000 	andeq	r0, r0, r0
    29c4:	f720081e 			; <UNDEFINED> instruction: 0xf720081e
    29c8:	2cf72525 	cfldr64cs	mvdx2, [r7], #148	; 0x94
    29cc:	253300f7 	ldrcs	r0, [r3, #-247]!	; 0xffffff09
    29d0:	24311e35 	ldrtcs	r1, [r1], #-3637	; 0xfffff1cb
    29d4:	9f1e331c 	svcls	0x001e331c
	...
    29e0:	00000001 	andeq	r0, r0, r1
    29e4:	00a00000 	adceq	r0, r0, r0
    29e8:	00b00000 	adcseq	r0, r0, r0
    29ec:	00010000 	andeq	r0, r1, r0
    29f0:	0000b055 	andeq	fp, r0, r5, asr r0
    29f4:	0000b300 	andeq	fp, r0, r0, lsl #6
    29f8:	50000100 	andpl	r0, r0, r0, lsl #2
    29fc:	000000b3 	strheq	r0, [r0], -r3
    2a00:	000000b8 	strheq	r0, [r0], -r8
    2a04:	01f30026 	mvnseq	r0, r6, lsr #32
    2a08:	f72cf750 			; <UNDEFINED> instruction: 0xf72cf750
    2a0c:	0825f425 	stmdaeq	r5!, {r0, r2, r5, sl, ip, sp, lr, pc}
    2a10:	cccccccd 	stclgt	12, cr12, [ip], {205}	; 0xcd
    2a14:	00000000 	andeq	r0, r0, r0
    2a18:	f720081e 			; <UNDEFINED> instruction: 0xf720081e
    2a1c:	2cf72525 	cfldr64cs	mvdx2, [r7], #148	; 0x94
    2a20:	253300f7 	ldrcs	r0, [r3, #-247]!	; 0xffffff09
    2a24:	a0808023 	addge	r8, r0, r3, lsr #32
    2a28:	9f243240 	svcls	0x00243240
	...
    2a34:	01000002 	tsteq	r0, r2
    2a38:	00000001 	andeq	r0, r0, r1
    2a3c:	000000a0 	andeq	r0, r0, r0, lsr #1
    2a40:	000000a4 	andeq	r0, r0, r4, lsr #1
    2a44:	a4500001 	ldrbge	r0, [r0], #-1
    2a48:	a4000000 	strge	r0, [r0], #-0
    2a4c:	01000000 	mrseq	r0, (UNDEF: 0)
    2a50:	00a45300 	adceq	r5, r4, r0, lsl #6
    2a54:	00a80000 	adceq	r0, r8, r0
    2a58:	00080000 	andeq	r0, r8, r0
    2a5c:	24007431 	strcs	r7, [r0], #-1073	; 0xfffffbcf
    2a60:	9f210073 	svcls	0x00210073
    2a64:	000000a8 	andeq	r0, r0, r8, lsr #1
    2a68:	000000b3 	strheq	r0, [r0], -r3
    2a6c:	00510001 	subseq	r0, r1, r1
	...
    2a7c:	3c000000 	stccc	0, cr0, [r0], {-0}
    2a80:	01000000 	mrseq	r0, (UNDEF: 0)
    2a84:	003c5000 	eorseq	r5, ip, r0
    2a88:	00600000 	rsbeq	r0, r0, r0
    2a8c:	00040000 	andeq	r0, r4, r0
    2a90:	9f5001f3 	svcls	0x005001f3
	...
    2aa4:	0000003f 	andeq	r0, r0, pc, lsr r0
    2aa8:	3f510001 	svccc	0x00510001
    2aac:	60000000 	andvs	r0, r0, r0
    2ab0:	04000000 	streq	r0, [r0], #-0
    2ab4:	5101f300 	mrspl	pc, SP_irq	; <UNPREDICTABLE>
    2ab8:	0000009f 	muleq	r0, pc, r0	; <UNPREDICTABLE>
	...
    2ac4:	00000800 	andeq	r0, r0, r0, lsl #16
    2ac8:	00003f00 	andeq	r3, r0, r0, lsl #30
    2acc:	51000100 	mrspl	r0, (UNDEF: 16)
    2ad0:	0000003f 	andeq	r0, r0, pc, lsr r0
    2ad4:	00000060 	andeq	r0, r0, r0, rrx
    2ad8:	01f30004 	mvnseq	r0, r4
    2adc:	00009f51 	andeq	r9, r0, r1, asr pc
	...
    2ae8:	00080000 	andeq	r0, r8, r0
    2aec:	003c0000 	eorseq	r0, ip, r0
    2af0:	00010000 	andeq	r0, r1, r0
    2af4:	00003c50 	andeq	r3, r0, r0, asr ip
    2af8:	00006000 	andeq	r6, r0, r0
    2afc:	f3000400 	vshl.u8	d0, d0, d0
    2b00:	009f5001 	addseq	r5, pc, r1
	...
    2b0c:	48000000 	stmdami	r0, {}	; <UNPREDICTABLE>
    2b10:	58000000 	stmdapl	r0, {}	; <UNPREDICTABLE>
    2b14:	01000000 	mrseq	r0, (UNDEF: 0)
    2b18:	00585400 	subseq	r5, r8, r0, lsl #8
    2b1c:	00600000 	rsbeq	r0, r0, r0
    2b20:	00290000 	eoreq	r0, r9, r0
    2b24:	f35001f3 	vbsl	q8, q8, <illegal reg q9.5>
    2b28:	2cf75001 	ldclcs	0, cr5, [r7], #4
    2b2c:	25f425f7 	ldrbcs	r2, [r4, #1527]!	; 0x5f7
    2b30:	cccccd08 	stclgt	13, cr12, [ip], {8}
    2b34:	000000cc 	andeq	r0, r0, ip, asr #1
    2b38:	20081e00 	andcs	r1, r8, r0, lsl #28
    2b3c:	f72525f7 			; <UNDEFINED> instruction: 0xf72525f7
    2b40:	3300f72c 	movwcc	pc, #1836	; 0x72c	; <UNPREDICTABLE>
    2b44:	311e3525 	tstcc	lr, r5, lsr #10
    2b48:	1e331c24 	cdpne	12, 3, cr1, cr3, cr4, {1}
    2b4c:	0000009f 	muleq	r0, pc, r0	; <UNPREDICTABLE>
    2b50:	00000000 	andeq	r0, r0, r0
    2b54:	00000100 	andeq	r0, r0, r0, lsl #2
    2b58:	48000000 	stmdami	r0, {}	; <UNPREDICTABLE>
    2b5c:	58000000 	stmdapl	r0, {}	; <UNPREDICTABLE>
    2b60:	01000000 	mrseq	r0, (UNDEF: 0)
    2b64:	00585600 	subseq	r5, r8, r0, lsl #12
    2b68:	005b0000 	subseq	r0, fp, r0
    2b6c:	00010000 	andeq	r0, r1, r0
    2b70:	00005b50 	andeq	r5, r0, r0, asr fp
    2b74:	00006000 	andeq	r6, r0, r0
    2b78:	f3002600 	vmax.u8	d2, d0, d0
    2b7c:	2cf75001 	ldclcs	0, cr5, [r7], #4
    2b80:	25f425f7 	ldrbcs	r2, [r4, #1527]!	; 0x5f7
    2b84:	cccccd08 	stclgt	13, cr12, [ip], {8}
    2b88:	000000cc 	andeq	r0, r0, ip, asr #1
    2b8c:	20081e00 	andcs	r1, r8, r0, lsl #28
    2b90:	f72525f7 			; <UNDEFINED> instruction: 0xf72525f7
    2b94:	3300f72c 	movwcc	pc, #1836	; 0x72c	; <UNPREDICTABLE>
    2b98:	80802325 	addhi	r2, r0, r5, lsr #6
    2b9c:	243240a0 	ldrtcs	r4, [r2], #-160	; 0xffffff60
    2ba0:	0000009f 	muleq	r0, pc, r0	; <UNPREDICTABLE>
    2ba4:	00000000 	andeq	r0, r0, r0
    2ba8:	00000200 	andeq	r0, r0, r0, lsl #4
    2bac:	00000101 	andeq	r0, r0, r1, lsl #2
    2bb0:	00004800 	andeq	r4, r0, r0, lsl #16
    2bb4:	00004c00 	andeq	r4, r0, r0, lsl #24
    2bb8:	50000100 	andpl	r0, r0, r0, lsl #2
    2bbc:	0000004c 	andeq	r0, r0, ip, asr #32
    2bc0:	0000004c 	andeq	r0, r0, ip, asr #32
    2bc4:	4c510001 	mrrcmi	0, 0, r0, r1, cr1
    2bc8:	50000000 	andpl	r0, r0, r0
    2bcc:	0c000000 	stceq	0, cr0, [r0], {-0}
    2bd0:	08007500 	stmdaeq	r0, {r8, sl, ip, sp, lr}
    2bd4:	00741aff 	ldrshteq	r1, [r4], #-175	; 0xffffff51
    2bd8:	21007124 	tstcs	r0, r4, lsr #2
    2bdc:	0000509f 	muleq	r0, pc, r0	; <UNPREDICTABLE>
    2be0:	00005400 	andeq	r5, r0, r0, lsl #8
    2be4:	37001200 	strcc	r1, [r0, -r0, lsl #4]
    2be8:	20240074 	eorcs	r0, r4, r4, ror r0
    2bec:	751a0070 	ldrvc	r0, [sl, #-112]	; 0xffffff90
    2bf0:	1aff0800 	bne	fffc4bf8 <__bss_end__+0xfffba830>
    2bf4:	21240074 			; <UNDEFINED> instruction: 0x21240074
    2bf8:	0000009f 	muleq	r0, pc, r0	; <UNPREDICTABLE>
	...
    2c04:	b8000000 	stmdalt	r0, {}	; <UNPREDICTABLE>
    2c08:	c4000000 	strgt	r0, [r0], #-0
    2c0c:	01000000 	mrseq	r0, (UNDEF: 0)
    2c10:	00c45000 	sbceq	r5, r4, r0
    2c14:	00cb0000 	sbceq	r0, fp, r0
    2c18:	00010000 	andeq	r0, r1, r0
    2c1c:	0000cb53 	andeq	ip, r0, r3, asr fp
    2c20:	0000d000 	andeq	sp, r0, r0
    2c24:	f3000400 	vshl.u8	d0, d0, d0
    2c28:	009f5001 	addseq	r5, pc, r1
	...
    2c38:	0000d000 	andeq	sp, r0, r0
    2c3c:	0000dc00 	andeq	sp, r0, r0, lsl #24
    2c40:	50000100 	andpl	r0, r0, r0, lsl #2
    2c44:	000000dc 	ldrdeq	r0, [r0], -ip
    2c48:	000000e3 	andeq	r0, r0, r3, ror #1
    2c4c:	e3530001 	cmp	r3, #1, 0
    2c50:	e8000000 	stmda	r0, {}	; <UNPREDICTABLE>
    2c54:	04000000 	streq	r0, [r0], #-0
    2c58:	5001f300 	andpl	pc, r1, r0, lsl #6
    2c5c:	0000009f 	muleq	r0, pc, r0	; <UNPREDICTABLE>
	...
    2c6c:	00000b00 	andeq	r0, r0, r0, lsl #22
    2c70:	50000100 	andpl	r0, r0, r0, lsl #2
    2c74:	0000000b 	andeq	r0, r0, fp
    2c78:	00000014 	andeq	r0, r0, r4, lsl r0
    2c7c:	00540001 	subseq	r0, r4, r1
	...
    2c8c:	18000000 	stmdane	r0, {}	; <UNPREDICTABLE>
    2c90:	01000000 	mrseq	r0, (UNDEF: 0)
    2c94:	00185100 	andseq	r5, r8, r0, lsl #2
    2c98:	002c0000 	eoreq	r0, ip, r0
    2c9c:	00040000 	andeq	r0, r4, r0
    2ca0:	9f5101f3 	svcls	0x005101f3
	...
    2cac:	00000002 	andeq	r0, r0, r2
    2cb0:	00000000 	andeq	r0, r0, r0
    2cb4:	00010100 	andeq	r0, r1, r0, lsl #2
    2cb8:	00000000 	andeq	r0, r0, r0
    2cbc:	00040000 	andeq	r0, r4, r0
    2cc0:	00010000 	andeq	r0, r1, r0
    2cc4:	00000450 	andeq	r0, r0, r0, asr r4
    2cc8:	00000800 	andeq	r0, r0, r0, lsl #16
    2ccc:	52000100 	andpl	r0, r0, #0
    2cd0:	00000008 	andeq	r0, r0, r8
    2cd4:	0000000c 	andeq	r0, r0, ip
    2cd8:	01720003 	cmneq	r2, r3
    2cdc:	00000c9f 	muleq	r0, pc, ip	; <UNPREDICTABLE>
    2ce0:	00001800 	andeq	r1, r0, r0, lsl #16
    2ce4:	52000100 	andpl	r0, r0, #0
    2ce8:	00000018 	andeq	r0, r0, r8, lsl r0
    2cec:	0000001c 	andeq	r0, r0, ip, lsl r0
    2cf0:	1c530001 	mrrcne	0, 0, r0, r3, cr1
    2cf4:	24000000 	strcs	r0, [r0], #-0
    2cf8:	03000000 	movweq	r0, #0
    2cfc:	9f017300 	svcls	0x00017300
    2d00:	00000024 	andeq	r0, r0, r4, lsr #32
    2d04:	0000002c 	andeq	r0, r0, ip, lsr #32
    2d08:	00530001 	subseq	r0, r3, r1
    2d0c:	00000000 	andeq	r0, r0, r0
    2d10:	03000000 	movweq	r0, #0
    2d14:	00000202 	andeq	r0, r0, r2, lsl #4
    2d18:	00000000 	andeq	r0, r0, r0
    2d1c:	00001800 	andeq	r1, r0, r0, lsl #16
    2d20:	51000100 	mrspl	r0, (UNDEF: 16)
    2d24:	00000018 	andeq	r0, r0, r8, lsl r0
    2d28:	0000001c 	andeq	r0, r0, ip, lsl r0
    2d2c:	01710003 	cmneq	r1, r3
    2d30:	00001c9f 	muleq	r0, pc, ip	; <UNPREDICTABLE>
    2d34:	00002c00 	andeq	r2, r0, r0, lsl #24
    2d38:	51000100 	mrspl	r0, (UNDEF: 16)
	...
    2d48:	00080000 	andeq	r0, r8, r0
    2d4c:	000c0000 	andeq	r0, ip, r0
    2d50:	00020000 	andeq	r0, r2, r0
    2d54:	000c0072 	andeq	r0, ip, r2, ror r0
    2d58:	00180000 	andseq	r0, r8, r0
    2d5c:	00020000 	andeq	r0, r2, r0
    2d60:	001c0073 	andseq	r0, ip, r3, ror r0
    2d64:	002c0000 	eoreq	r0, ip, r0
    2d68:	00010000 	andeq	r0, r1, r0
    2d6c:	00000052 	andeq	r0, r0, r2, asr r0
	...
    2d84:	00001400 	andeq	r1, r0, r0, lsl #8
    2d88:	50000100 	andpl	r0, r0, r0, lsl #2
    2d8c:	00000014 	andeq	r0, r0, r4, lsl r0
    2d90:	00000018 	andeq	r0, r0, r8, lsl r0
    2d94:	01700003 	cmneq	r0, r3
    2d98:	0000189f 	muleq	r0, pc, r8	; <UNPREDICTABLE>
    2d9c:	00002000 	andeq	r2, r0, r0
    2da0:	50000100 	andpl	r0, r0, r0, lsl #2
    2da4:	00000024 	andeq	r0, r0, r4, lsr #32
    2da8:	00000028 	andeq	r0, r0, r8, lsr #32
    2dac:	28500001 	ldmdacs	r0, {r0}^
    2db0:	30000000 	andcc	r0, r0, r0
    2db4:	03000000 	movweq	r0, #0
    2db8:	9f017000 	svcls	0x00017000
    2dbc:	00000038 	andeq	r0, r0, r8, lsr r0
    2dc0:	00000040 	andeq	r0, r0, r0, asr #32
    2dc4:	00500001 	subseq	r0, r0, r1
	...
    2dd8:	00002400 	andeq	r2, r0, r0, lsl #8
    2ddc:	51000100 	mrspl	r0, (UNDEF: 16)
    2de0:	00000024 	andeq	r0, r0, r4, lsr #32
    2de4:	00000028 	andeq	r0, r0, r8, lsr #32
    2de8:	285c0001 	ldmdacs	ip, {r0}^
    2dec:	44000000 	strmi	r0, [r0], #-0
    2df0:	01000000 	mrseq	r0, (UNDEF: 0)
    2df4:	00005100 	andeq	r5, r0, r0, lsl #2
    2df8:	00000000 	andeq	r0, r0, r0
    2dfc:	02000000 	andeq	r0, r0, #0, 0
    2e00:	00000002 	andeq	r0, r0, r2
    2e04:	00000000 	andeq	r0, r0, r0
    2e08:	00000004 	andeq	r0, r0, r4
    2e0c:	04510001 	ldrbeq	r0, [r1], #-1
    2e10:	08000000 	stmdaeq	r0, {}	; <UNPREDICTABLE>
    2e14:	03000000 	movweq	r0, #0
    2e18:	9f017100 	svcls	0x00017100
    2e1c:	00000008 	andeq	r0, r0, r8
    2e20:	00000018 	andeq	r0, r0, r8, lsl r0
    2e24:	00510001 	subseq	r0, r1, r1
    2e28:	00000000 	andeq	r0, r0, r0
    2e2c:	02000000 	andeq	r0, r0, #0, 0
    2e30:	00000000 	andeq	r0, r0, r0
    2e34:	00000400 	andeq	r0, r0, r0, lsl #8
    2e38:	50000100 	andpl	r0, r0, r0, lsl #2
	...
    2e4c:	00000008 	andeq	r0, r0, r8
    2e50:	08500001 	ldmdaeq	r0, {r0}^
    2e54:	30000000 	andcc	r0, r0, r0
    2e58:	04000000 	streq	r0, [r0], #-0
    2e5c:	5001f300 	andpl	pc, r1, r0, lsl #6
    2e60:	0000009f 	muleq	r0, pc, r0	; <UNPREDICTABLE>
	...
    2e70:	00000800 	andeq	r0, r0, r0, lsl #16
    2e74:	51000100 	mrspl	r0, (UNDEF: 16)
    2e78:	00000008 	andeq	r0, r0, r8
    2e7c:	00000030 	andeq	r0, r0, r0, lsr r0
    2e80:	01f30004 	mvnseq	r0, r4
    2e84:	00009f51 	andeq	r9, r0, r1, asr pc
	...
    2e94:	00020201 	andeq	r0, r2, r1, lsl #4
    2e98:	00000000 	andeq	r0, r0, r0
    2e9c:	00000004 	andeq	r0, r0, r4
    2ea0:	04520001 	ldrbeq	r0, [r2], #-1
    2ea4:	08000000 	stmdaeq	r0, {}	; <UNPREDICTABLE>
    2ea8:	04000000 	streq	r0, [r0], #-0
    2eac:	5201f300 	andpl	pc, r1, #0, 6
    2eb0:	0000089f 	muleq	r0, pc, r8	; <UNPREDICTABLE>
    2eb4:	00001800 	andeq	r1, r0, r0, lsl #16
    2eb8:	f3000600 	vmax.u8	d0, d0, d0
    2ebc:	1c315201 	lfmne	f5, 4, [r1], #-4
    2ec0:	0000189f 	muleq	r0, pc, r8	; <UNPREDICTABLE>
    2ec4:	00001800 	andeq	r1, r0, r0, lsl #16
    2ec8:	f3000400 	vshl.u8	d0, d0, d0
    2ecc:	189f5201 	ldmne	pc, {r0, r9, ip, lr}	; <UNPREDICTABLE>
    2ed0:	30000000 	andcc	r0, r0, r0
    2ed4:	06000000 	streq	r0, [r0], -r0
    2ed8:	5201f300 	andpl	pc, r1, #0, 6
    2edc:	009f1c31 	addseq	r1, pc, r1, lsr ip	; <UNPREDICTABLE>
    2ee0:	00000000 	andeq	r0, r0, r0
    2ee4:	02000000 	andeq	r0, r0, #0, 0
    2ee8:	01000000 	mrseq	r0, (UNDEF: 0)
    2eec:	00000000 	andeq	r0, r0, r0
    2ef0:	0c000000 	stceq	0, cr0, [r0], {-0}
    2ef4:	01000000 	mrseq	r0, (UNDEF: 0)
    2ef8:	000c5000 	andeq	r5, ip, r0
    2efc:	00180000 	andseq	r0, r8, r0
    2f00:	00030000 	andeq	r0, r3, r0
    2f04:	189f7f70 	ldmne	pc, {r4, r5, r6, r8, r9, sl, fp, ip, sp, lr}	; <UNPREDICTABLE>
    2f08:	24000000 	strcs	r0, [r0], #-0
    2f0c:	01000000 	mrseq	r0, (UNDEF: 0)
    2f10:	00285000 	eoreq	r5, r8, r0
    2f14:	002c0000 	eoreq	r0, ip, r0
    2f18:	00030000 	andeq	r0, r3, r0
    2f1c:	009f7f70 	addseq	r7, pc, r0, ror pc	; <UNPREDICTABLE>
    2f20:	00000000 	andeq	r0, r0, r0
    2f24:	02000000 	andeq	r0, r0, #0, 0
	...
    2f30:	00000c00 	andeq	r0, r0, r0, lsl #24
    2f34:	51000100 	mrspl	r0, (UNDEF: 16)
    2f38:	0000000c 	andeq	r0, r0, ip
    2f3c:	00000010 	andeq	r0, r0, r0, lsl r0
    2f40:	01710003 	cmneq	r1, r3
    2f44:	0000109f 	muleq	r0, pc, r0	; <UNPREDICTABLE>
    2f48:	00003000 	andeq	r3, r0, r0
    2f4c:	51000100 	mrspl	r0, (UNDEF: 16)
	...

Disassembly of section .debug_aranges:

00000000 <.debug_aranges>:
   0:	0000001c 	andeq	r0, r0, ip, lsl r0
   4:	00000002 	andeq	r0, r0, r2
   8:	00040000 	andeq	r0, r4, r0
   c:	00000000 	andeq	r0, r0, r0
  10:	00008038 	andeq	r8, r0, r8, lsr r0
  14:	0000005c 	andeq	r0, r0, ip, asr r0
	...
  20:	0000001c 	andeq	r0, r0, ip, lsl r0
  24:	02440002 	subeq	r0, r4, #2, 0
  28:	00040000 	andeq	r0, r4, r0
  2c:	00000000 	andeq	r0, r0, r0
  30:	00008094 	muleq	r0, r4, r0
  34:	000001ac 	andeq	r0, r0, ip, lsr #3
	...
  40:	0000001c 	andeq	r0, r0, ip, lsl r0
  44:	050a0002 	streq	r0, [sl, #-2]
  48:	00040000 	andeq	r0, r4, r0
  4c:	00000000 	andeq	r0, r0, r0
  50:	00008240 	andeq	r8, r0, r0, asr #4
  54:	0000000c 	andeq	r0, r0, ip
	...
  60:	0000001c 	andeq	r0, r0, ip, lsl r0
  64:	06180002 	ldreq	r0, [r8], -r2
  68:	00040000 	andeq	r0, r4, r0
  6c:	00000000 	andeq	r0, r0, r0
  70:	0000824c 	andeq	r8, r0, ip, asr #4
  74:	000002fc 	strdeq	r0, [r0], -ip
	...
  80:	0000001c 	andeq	r0, r0, ip, lsl r0
  84:	0d4f0002 	stcleq	0, cr0, [pc, #-8]	; 84 <__code_start__-0x7f7c>
  88:	00040000 	andeq	r0, r4, r0
  8c:	00000000 	andeq	r0, r0, r0
  90:	00008548 	andeq	r8, r0, r8, asr #10
  94:	00000078 	andeq	r0, r0, r8, ror r0
	...
  a0:	0000001c 	andeq	r0, r0, ip, lsl r0
  a4:	0e930002 	cdpeq	0, 9, cr0, cr3, cr2, {0}
  a8:	00040000 	andeq	r0, r4, r0
  ac:	00000000 	andeq	r0, r0, r0
  b0:	000085c0 	andeq	r8, r0, r0, asr #11
  b4:	00000058 	andeq	r0, r0, r8, asr r0
	...
  c0:	0000001c 	andeq	r0, r0, ip, lsl r0
  c4:	10340002 	eorsne	r0, r4, r2
  c8:	00040000 	andeq	r0, r4, r0
  cc:	00000000 	andeq	r0, r0, r0
  d0:	00008618 	andeq	r8, r0, r8, lsl r6
  d4:	00000038 	andeq	r0, r0, r8, lsr r0
	...
  e0:	0000001c 	andeq	r0, r0, ip, lsl r0
  e4:	112b0002 			; <UNDEFINED> instruction: 0x112b0002
  e8:	00040000 	andeq	r0, r4, r0
  ec:	00000000 	andeq	r0, r0, r0
  f0:	00008650 	andeq	r8, r0, r0, asr r6
  f4:	000009b4 			; <UNDEFINED> instruction: 0x000009b4
	...
 100:	0000001c 	andeq	r0, r0, ip, lsl r0
 104:	1dae0002 	stcne	0, cr0, [lr, #8]!
 108:	00040000 	andeq	r0, r4, r0
 10c:	00000000 	andeq	r0, r0, r0
 110:	00009004 	andeq	r9, r0, r4
 114:	0000002c 	andeq	r0, r0, ip, lsr #32
	...
 120:	0000001c 	andeq	r0, r0, ip, lsl r0
 124:	1ee10002 	cdpne	0, 14, cr0, cr1, cr2, {0}
 128:	00040000 	andeq	r0, r4, r0
 12c:	00000000 	andeq	r0, r0, r0
 130:	00009030 	andeq	r9, r0, r0, lsr r0
 134:	000000f8 	strdeq	r0, [r0], -r8
	...
 140:	0000001c 	andeq	r0, r0, ip, lsl r0
 144:	20750002 	rsbscs	r0, r5, r2
 148:	00040000 	andeq	r0, r4, r0
 14c:	00000000 	andeq	r0, r0, r0
 150:	00009128 	andeq	r9, r0, r8, lsr #2
 154:	00000004 	andeq	r0, r0, r4
	...
 160:	0000001c 	andeq	r0, r0, ip, lsl r0
 164:	21470002 	cmpcs	r7, r2
 168:	00040000 	andeq	r0, r4, r0
 16c:	00000000 	andeq	r0, r0, r0
 170:	0000912c 	andeq	r9, r0, ip, lsr #2
 174:	0000008c 	andeq	r0, r0, ip, lsl #1
	...
 180:	0000001c 	andeq	r0, r0, ip, lsl r0
 184:	23c80002 	biccs	r0, r8, #2, 0
 188:	00040000 	andeq	r0, r4, r0
 18c:	00000000 	andeq	r0, r0, r0
 190:	000091b8 			; <UNDEFINED> instruction: 0x000091b8
 194:	0000011c 	andeq	r0, r0, ip, lsl r1
	...
 1a0:	0000001c 	andeq	r0, r0, ip, lsl r0
 1a4:	290b0002 	stmdbcs	fp, {r1}
 1a8:	00040000 	andeq	r0, r4, r0
 1ac:	00000000 	andeq	r0, r0, r0
 1b0:	000092d4 	ldrdeq	r9, [r0], -r4
 1b4:	000001f0 	strdeq	r0, [r0], -r0	; <UNPREDICTABLE>
	...
 1c0:	0000001c 	andeq	r0, r0, ip, lsl r0
 1c4:	2edc0002 	cdpcs	0, 13, cr0, cr12, cr2, {0}
 1c8:	00040000 	andeq	r0, r4, r0
 1cc:	00000000 	andeq	r0, r0, r0
 1d0:	000094c4 	andeq	r9, r0, r4, asr #9
 1d4:	000003b0 			; <UNDEFINED> instruction: 0x000003b0
	...
 1e0:	0000001c 	andeq	r0, r0, ip, lsl r0
 1e4:	37c90002 	strbcc	r0, [r9, r2]
 1e8:	00040000 	andeq	r0, r4, r0
 1ec:	00000000 	andeq	r0, r0, r0
 1f0:	00009874 	andeq	r9, r0, r4, ror r8
 1f4:	00000198 	muleq	r0, r8, r1
	...
 200:	0000001c 	andeq	r0, r0, ip, lsl r0
 204:	3e400002 	cdpcc	0, 4, cr0, cr0, cr2, {0}
 208:	00040000 	andeq	r0, r4, r0
 20c:	00000000 	andeq	r0, r0, r0
 210:	00009a0c 	andeq	r9, r0, ip, lsl #20
 214:	0000003c 	andeq	r0, r0, ip, lsr r0
	...
 220:	0000001c 	andeq	r0, r0, ip, lsl r0
 224:	3f8d0002 	svccc	0x008d0002
 228:	00040000 	andeq	r0, r4, r0
 22c:	00000000 	andeq	r0, r0, r0
 230:	00009a48 	andeq	r9, r0, r8, asr #20
 234:	0000002c 	andeq	r0, r0, ip, lsr #32
	...
 240:	0000001c 	andeq	r0, r0, ip, lsl r0
 244:	40c80002 	sbcmi	r0, r8, r2
 248:	00040000 	andeq	r0, r4, r0
 24c:	00000000 	andeq	r0, r0, r0
 250:	00009a74 	andeq	r9, r0, r4, ror sl
 254:	00000044 	andeq	r0, r0, r4, asr #32
	...
 260:	0000001c 	andeq	r0, r0, ip, lsl r0
 264:	41c30002 	bicmi	r0, r3, r2
 268:	00040000 	andeq	r0, r4, r0
 26c:	00000000 	andeq	r0, r0, r0
 270:	00009ab8 			; <UNDEFINED> instruction: 0x00009ab8
 274:	00000018 	andeq	r0, r0, r8, lsl r0
	...
 280:	0000001c 	andeq	r0, r0, ip, lsl r0
 284:	42d60002 	sbcsmi	r0, r6, #2, 0
 288:	00040000 	andeq	r0, r4, r0
 28c:	00000000 	andeq	r0, r0, r0
 290:	00009ad0 	ldrdeq	r9, [r0], -r0
 294:	00000030 	andeq	r0, r0, r0, lsr r0
	...
 2a0:	0000001c 	andeq	r0, r0, ip, lsl r0
 2a4:	44280002 	strtmi	r0, [r8], #-2
 2a8:	00040000 	andeq	r0, r4, r0
 2ac:	00000000 	andeq	r0, r0, r0
 2b0:	00009b00 	andeq	r9, r0, r0, lsl #22
 2b4:	00000004 	andeq	r0, r0, r4
	...

Disassembly of section .debug_line:

00000000 <.debug_line>:
       0:	000000b4 	strheq	r0, [r0], -r4
       4:	006f0003 	rsbeq	r0, pc, r3
       8:	01020000 	mrseq	r0, (UNDEF: 2)
       c:	000d0efb 	strdeq	r0, [sp], -fp
      10:	01010101 	tsteq	r1, r1, lsl #2
      14:	01000000 	mrseq	r0, (UNDEF: 0)
      18:	2f010000 	svccs	0x00010000
      1c:	72657355 	rsbvc	r7, r5, #1409286145	; 0x54000001
      20:	696d2f73 	stmdbvs	sp!, {r0, r1, r4, r5, r6, r8, r9, sl, fp, sp}^
      24:	2f73656c 	svccs	0x0073656c
      28:	72756f53 	rsbsvc	r6, r5, #332	; 0x14c
      2c:	632f6563 			; <UNDEFINED> instruction: 0x632f6563
      30:	30343273 	eorscc	r3, r4, r3, ror r2
      34:	6c2f786c 	stcvs	8, cr7, [pc], #-432	; fffffe8c <__bss_end__+0xffff5ac4>
      38:	69706269 	ldmdbvs	r0!, {r0, r3, r5, r6, r9, sp, lr}^
      3c:	636e692f 	cmnvs	lr, #770048	; 0xbc000
      40:	6564756c 	strbvs	r7, [r4, #-1388]!	; 0xfffffa94
      44:	2d330000 	ldccs	0, cr0, [r3, #-0]
      48:	6c616b63 			; <UNDEFINED> instruction: 0x6c616b63
      4c:	2e636f6c 	cdpcs	15, 6, cr6, cr3, cr12, {3}
      50:	00000063 	andeq	r0, r0, r3, rrx
      54:	63727300 	cmnvs	r2, #0, 6
      58:	636f6c2d 	cmnvs	pc, #11520	; 0x2d00
      5c:	0000682e 	andeq	r6, r0, lr, lsr #16
      60:	70720000 	rsbsvc	r0, r2, r0
      64:	00682e69 	rsbeq	r2, r8, r9, ror #28
      68:	63000001 	movwvs	r0, #1
      6c:	6c6c616b 	stfvse	f6, [ip], #-428	; 0xfffffe54
      70:	682e636f 	stmdavs	lr!, {r0, r1, r2, r3, r5, r6, r8, r9, sp, lr}
      74:	00000000 	andeq	r0, r0, r0
      78:	00140500 	andseq	r0, r4, r0, lsl #10
      7c:	80380205 	eorshi	r0, r8, r5, lsl #4
      80:	05170000 	ldreq	r0, [r7, #-0]
      84:	02044b05 	andeq	r4, r4, #5120	; 0x1400
      88:	05170b05 	ldreq	r0, [r7, #-2821]	; 0xfffff4fb
      8c:	0c051305 	stceq	3, cr1, [r5], {5}
      90:	04ba0106 	ldrteq	r0, [sl], #262	; 0x106
      94:	030f0501 	movweq	r0, #62721	; 0xf501
      98:	0505017a 	streq	r0, [r5, #-378]	; 0xfffffe86
      9c:	02048306 	andeq	r8, r4, #402653184	; 0x18000000
      a0:	05160b05 	ldreq	r0, [r6, #-2821]	; 0xfffff4fb
      a4:	0c051305 	stceq	3, cr1, [r5], {5}
      a8:	04820106 	streq	r0, [r2], #262	; 0x106
      ac:	0d050501 	cfstr32eq	mvfx0, [r5, #-4]
      b0:	02670105 	rsbeq	r0, r7, #1073741825	; 0x40000001
      b4:	01010008 	tsteq	r1, r8
      b8:	00000227 	andeq	r0, r0, r7, lsr #4
      bc:	00640003 	rsbeq	r0, r4, r3
      c0:	01020000 	mrseq	r0, (UNDEF: 2)
      c4:	000d0efb 	strdeq	r0, [sp], -fp
      c8:	01010101 	tsteq	r1, r1, lsl #2
      cc:	01000000 	mrseq	r0, (UNDEF: 0)
      d0:	2f010000 	svccs	0x00010000
      d4:	72657355 	rsbvc	r7, r5, #1409286145	; 0x54000001
      d8:	696d2f73 	stmdbvs	sp!, {r0, r1, r4, r5, r6, r8, r9, sl, fp, sp}^
      dc:	2f73656c 	svccs	0x0073656c
      e0:	72756f53 	rsbsvc	r6, r5, #332	; 0x14c
      e4:	632f6563 			; <UNDEFINED> instruction: 0x632f6563
      e8:	30343273 	eorscc	r3, r4, r3, ror r2
      ec:	6c2f786c 	stcvs	8, cr7, [pc], #-432	; ffffff44 <__bss_end__+0xffff5b7c>
      f0:	69706269 	ldmdbvs	r0!, {r0, r3, r5, r6, r9, sp, lr}^
      f4:	636e692f 	cmnvs	lr, #770048	; 0xbc000
      f8:	6564756c 	strbvs	r7, [r4, #-1388]!	; 0xfffffa94
      fc:	726b0000 	rsbvc	r0, fp, #0, 0
     100:	6c616d2d 	stclvs	13, cr6, [r1], #-180	; 0xffffff4c
     104:	2e636f6c 	cdpcs	15, 6, cr6, cr3, cr12, {3}
     108:	00000063 	andeq	r0, r0, r3, rrx
     10c:	69707200 	ldmdbvs	r0!, {r9, ip, sp, lr}^
     110:	0100682e 	tsteq	r0, lr, lsr #16
     114:	726b0000 	rsbvc	r0, fp, #0, 0
     118:	6c616d2d 	stclvs	13, cr6, [r1], #-180	; 0xffffff4c
     11c:	2e636f6c 	cdpcs	15, 6, cr6, cr3, cr12, {3}
     120:	00000068 	andeq	r0, r0, r8, rrx
     124:	01050000 	mrseq	r0, (UNDEF: 5)
     128:	94020500 	strls	r0, [r2], #-1280	; 0xfffffb00
     12c:	03000080 	movweq	r0, #128	; 0x80
     130:	060100d2 			; <UNDEFINED> instruction: 0x060100d2
     134:	06020501 	streq	r0, [r2], -r1, lsl #10
     138:	0505132f 	streq	r1, [r5, #-815]	; 0xfffffcd1
     13c:	02050106 	andeq	r0, r5, #-2147483647	; 0x80000001
     140:	09052f06 	stmdbeq	r5, {r1, r2, r8, r9, sl, fp, sp}
     144:	02050106 	andeq	r0, r5, #-2147483647	; 0x80000001
     148:	12052e4a 	andne	r2, r5, #1184	; 0x4a0
     14c:	01040200 	mrseq	r0, R12_usr
     150:	02052e06 	andeq	r2, r5, #96	; 0x60
     154:	01040200 	mrseq	r0, R12_usr
     158:	27050106 	strcs	r0, [r5, -r6, lsl #2]
     15c:	03040200 	movweq	r0, #16896	; 0x4200
     160:	0012054a 	andseq	r0, r2, sl, asr #10
     164:	2e030402 	cdpcs	4, 0, cr0, cr3, cr2, {0}
     168:	4b060305 	blmi	180d84 <__bss_end__+0x1769bc>
     16c:	01061005 	tsteq	r6, r5
     170:	052e0605 	streq	r0, [lr, #-1541]!	; 0xfffff9fb
     174:	04020015 	streq	r0, [r2], #-21	; 0xffffffeb
     178:	20054a01 	andcs	r4, r5, r1, lsl #20
     17c:	02040200 	andeq	r0, r4, #0, 4
     180:	0402004a 	streq	r0, [r2], #-74	; 0xffffffb6
     184:	02054a02 	andeq	r4, r5, #8192	; 0x2000
     188:	10053006 	andne	r3, r5, r6
     18c:	09050106 	stmdbeq	r5, {r1, r2, r8}
     190:	2e1d052e 	cfmul64cs	mvdx0, mvdx13, mvdx14
     194:	052e0505 	streq	r0, [lr, #-1285]!	; 0xfffffafb
     198:	05500603 	ldrbeq	r0, [r0, #-1539]	; 0xfffff9fd
     19c:	0501060d 	streq	r0, [r1, #-1549]	; 0xfffff9f3
     1a0:	052f0602 	streq	r0, [pc, #-1538]!	; fffffba6 <__bss_end__+0xffff57de>
     1a4:	0501060e 	streq	r0, [r1, #-1550]	; 0xfffff9f2
     1a8:	05052e08 	streq	r2, [r5, #-3592]	; 0xfffff1f8
     1ac:	0603052e 	streq	r0, [r3], -lr, lsr #10
     1b0:	060c0550 			; <UNDEFINED> instruction: 0x060c0550
     1b4:	06020501 	streq	r0, [r2], -r1, lsl #10
     1b8:	0608052f 	streq	r0, [r8], -pc, lsr #10
     1bc:	4b010501 	blmi	415c8 <__bss_end__+0x37200>
     1c0:	03060305 	movweq	r0, #25349	; 0x6305
     1c4:	1c052e73 	stcne	14, cr2, [r5], {115}	; 0x73
     1c8:	0e050106 	adfeqs	f0, f5, f6
     1cc:	0603052e 	streq	r0, [r3], -lr, lsr #10
     1d0:	0613054b 	ldreq	r0, [r3], -fp, asr #10
     1d4:	2e1a0501 	cfmul32cs	mvfx0, mvfx10, mvfx1
     1d8:	052e0d05 	streq	r0, [lr, #-3333]!	; 0xfffff2fb
     1dc:	05500603 	ldrbeq	r0, [r0, #-1539]	; 0xfffff9fd
     1e0:	05010615 	streq	r0, [r1, #-1557]	; 0xfffff9eb
     1e4:	03052e0d 	movweq	r2, #24077	; 0x5e0d
     1e8:	13054b06 	movwne	r4, #23302	; 0x5b06
     1ec:	0c050106 	stfeqs	f0, [r5], {6}
     1f0:	0601052e 	streq	r0, [r1], -lr, lsr #10
     1f4:	667fba03 	ldrbtvs	fp, [pc], -r3, lsl #20
     1f8:	02050106 	andeq	r0, r5, #-2147483647	; 0x80000001
     1fc:	05054b06 	streq	r4, [r5, #-2822]	; 0xfffff4fa
     200:	06050106 	streq	r0, [r5], -r6, lsl #2
     204:	0602052f 	streq	r0, [r2], -pc, lsr #10
     208:	060d052f 	streq	r0, [sp], -pc, lsr #10
     20c:	06020501 	streq	r0, [r2], -r1, lsl #10
     210:	0605054b 	streq	r0, [r5], -fp, asr #10
     214:	06020501 	streq	r0, [r2], -r1, lsl #10
     218:	0d05134c 	stceq	3, cr1, [r5, #-304]	; 0xfffffed0
     21c:	02050106 	andeq	r0, r5, #-2147483647	; 0x80000001
     220:	2e062f06 	cdpcs	15, 0, cr2, cr6, cr6, {0}
     224:	09052f06 	stmdbeq	r5, {r1, r2, r8, r9, sl, fp, sp}
     228:	0a050106 	beq	140648 <__bss_end__+0x136280>
     22c:	33010562 	movwcc	r0, #5474	; 0x1562
     230:	01064e06 	tsteq	r6, r6, lsl #28
     234:	2f060205 	svccs	0x00060205
     238:	24051413 	strcs	r1, [r5], #-1043	; 0xfffffbed
     23c:	29050106 	stmdbcs	r5, {r1, r2, r8}
     240:	2e09052e 	cfsh32cs	mvfx0, mvfx9, #30
     244:	2f060205 	svccs	0x00060205
     248:	01060d05 	tsteq	r6, r5, lsl #26
     24c:	054a0505 	strbeq	r0, [sl, #-1285]	; 0xfffffafb
     250:	05500602 	ldrbeq	r0, [r0, #-1538]	; 0xfffff9fe
     254:	2e010609 	cfmadd32cs	mvax0, mvfx0, mvfx1, mvfx9
     258:	2a060305 	bcs	180e74 <__bss_end__+0x176aac>
     25c:	01061605 	tsteq	r6, r5, lsl #12
     260:	054a0e05 	strbeq	r0, [sl, #-3589]	; 0xfffff1fb
     264:	052f0603 	streq	r0, [pc, #-1539]!	; fffffc69 <__bss_end__+0xffff58a1>
     268:	0501060f 	streq	r0, [r1, #-1551]	; 0xfffff9f1
     26c:	056d0604 	strbeq	r0, [sp, #-1540]!	; 0xfffff9fc
     270:	05010607 	streq	r0, [r1, #-1543]	; 0xfffff9f9
     274:	05340605 	ldreq	r0, [r4, #-1541]!	; 0xfffff9fb
     278:	0501060f 	streq	r0, [r1, #-1551]	; 0xfffff9f1
     27c:	054b0605 	strbeq	r0, [fp, #-1541]	; 0xfffff9fb
     280:	05010607 	streq	r0, [r1, #-1543]	; 0xfffff9f9
     284:	052f0605 	streq	r0, [pc, #-1541]!	; fffffc87 <__bss_end__+0xffff58bf>
     288:	0501060f 	streq	r0, [r1, #-1551]	; 0xfffff9f1
     28c:	05300604 	ldreq	r0, [r0, #-1540]!	; 0xfffff9fc
     290:	0501060a 	streq	r0, [r1, #-1546]	; 0xfffff9f6
     294:	054b0604 	strbeq	r0, [fp, #-1540]	; 0xfffff9fc
     298:	2e01060b 	cfmadd32cs	mvax0, mvfx0, mvfx1, mvfx11
     29c:	03060505 	movweq	r0, #25861	; 0x6505
     2a0:	18052e77 	stmdane	r5, {r0, r1, r2, r4, r5, r6, r9, sl, fp, sp}
     2a4:	12050106 	andne	r0, r5, #-2147483647	; 0x80000001
     2a8:	061a052e 	ldreq	r0, [sl], -lr, lsr #10
     2ac:	054a7a03 	strbeq	r7, [sl, #-2563]	; 0xfffff5fd
     2b0:	20050118 	andcs	r0, r5, r8, lsl r1
     2b4:	27050106 	strcs	r0, [r5, -r6, lsl #2]
     2b8:	0603052e 	streq	r0, [r3], -lr, lsr #10
     2bc:	060b0530 			; <UNDEFINED> instruction: 0x060b0530
     2c0:	2e060501 	cfsh32cs	mvfx0, mvfx6, #1
     2c4:	03060305 	movweq	r0, #25349	; 0x6305
     2c8:	09054a0f 	stmdbeq	r5, {r0, r1, r2, r3, r9, fp, lr}
     2cc:	06050106 	streq	r0, [r5], -r6, lsl #2
     2d0:	0604054a 	streq	r0, [r4], -sl, asr #10
     2d4:	060d054c 	streq	r0, [sp], -ip, asr #10
     2d8:	07052e01 	streq	r2, [r5, -r1, lsl #28]
     2dc:	06022e2e 	streq	r2, [r2], -lr, lsr #28
     2e0:	75010100 	strvc	r0, [r1, #-256]	; 0xffffff00
     2e4:	03000000 	movweq	r0, #0
     2e8:	00005300 	andeq	r5, r0, r0, lsl #6
     2ec:	fb010200 	blx	40af6 <__bss_end__+0x3672e>
     2f0:	01000d0e 	tsteq	r0, lr, lsl #26
     2f4:	00010101 	andeq	r0, r1, r1, lsl #2
     2f8:	00010000 	andeq	r0, r1, r0
     2fc:	552f0100 	strpl	r0, [pc, #-256]!	; 204 <__code_start__-0x7dfc>
     300:	73726573 	cmnvc	r2, #482344960	; 0x1cc00000
     304:	6c696d2f 	stclvs	13, cr6, [r9], #-188	; 0xffffff44
     308:	532f7365 			; <UNDEFINED> instruction: 0x532f7365
     30c:	6372756f 	cmnvs	r2, #465567744	; 0x1bc00000
     310:	73632f65 	cmnvc	r3, #404	; 0x194
     314:	6c303432 	cfldrsvs	mvf3, [r0], #-200	; 0xffffff38
     318:	696c2f78 	stmdbvs	ip!, {r3, r4, r5, r6, r8, r9, sl, fp, sp}^
     31c:	2f697062 	svccs	0x00697062
     320:	6c636e69 	stclvs	14, cr6, [r3], #-420	; 0xfffffe5c
     324:	00656475 	rsbeq	r6, r5, r5, ror r4
     328:	2d697000 	stclcs	0, cr7, [r9, #-0]
     32c:	6b726273 	blvs	1c98d00 <__bss_end__+0x1c8e938>
     330:	0000632e 	andeq	r6, r0, lr, lsr #6
     334:	70720000 	rsbsvc	r0, r2, r0
     338:	00682e69 	rsbeq	r2, r8, r9, ror #28
     33c:	00000001 	andeq	r0, r0, r1
     340:	05001c05 	streq	r1, [r0, #-3077]	; 0xfffff3fb
     344:	00824002 	addeq	r4, r2, r2
     348:	01061500 	tsteq	r6, r0, lsl #10
     34c:	2f060505 	svccs	0x00060505
     350:	01060c05 	tsteq	r6, r5, lsl #24
     354:	022f0105 	eoreq	r0, pc, #1073741825	; 0x40000001
     358:	01010002 	tsteq	r1, r2
     35c:	000002ff 	strdeq	r0, [r0], -pc	; <UNPREDICTABLE>
     360:	00e50003 	rsceq	r0, r5, r3
     364:	01020000 	mrseq	r0, (UNDEF: 2)
     368:	000d0efb 	strdeq	r0, [sp], -fp
     36c:	01010101 	tsteq	r1, r1, lsl #2
     370:	01000000 	mrseq	r0, (UNDEF: 0)
     374:	2f010000 	svccs	0x00010000
     378:	2f74706f 	svccs	0x0074706f
     37c:	656d6f68 	strbvs	r6, [sp, #-3944]!	; 0xfffff098
     380:	77657262 	strbvc	r7, [r5, -r2, ror #4]!
     384:	6c65432f 	stclvs	3, cr4, [r5], #-188	; 0xffffff44
     388:	2f72616c 	svccs	0x0072616c
     38c:	2d6d7261 	sfmcs	f7, 2, [sp, #-388]!	; 0xfffffe7c
     390:	656e6f6e 	strbvs	r6, [lr, #-3950]!	; 0xfffff092
     394:	6261652d 	rsbvs	r6, r1, #188743680	; 0xb400000
     398:	2f392d69 	svccs	0x00392d69
     39c:	30322d39 	eorscc	r2, r2, r9, lsr sp
     3a0:	34713931 	ldrbtcc	r3, [r1], #-2353	; 0xfffff6cf
     3a4:	3173632d 	cmncc	r3, sp, lsr #6
     3a8:	2f653730 	svccs	0x00653730
     3ac:	2f62696c 	svccs	0x0062696c
     3b0:	2f636367 	svccs	0x00636367
     3b4:	2d6d7261 	sfmcs	f7, 2, [sp, #-388]!	; 0xfffffe7c
     3b8:	656e6f6e 	strbvs	r6, [lr, #-3950]!	; 0xfffff092
     3bc:	6261652d 	rsbvs	r6, r1, #188743680	; 0xb400000
     3c0:	2e392f69 	cdpcs	15, 3, cr2, cr9, cr9, {3}
     3c4:	2f312e32 	svccs	0x00312e32
     3c8:	6c636e69 	stclvs	14, cr6, [r3], #-420	; 0xfffffe5c
     3cc:	00656475 	rsbeq	r6, r5, r5, ror r4
     3d0:	6573552f 	ldrbvs	r5, [r3, #-1327]!	; 0xfffffad1
     3d4:	6d2f7372 	stcvs	3, cr7, [pc, #-456]!	; 214 <__code_start__-0x7dec>
     3d8:	73656c69 	cmnvc	r5, #26880	; 0x6900
     3dc:	756f532f 	strbvc	r5, [pc, #-815]!	; b5 <__code_start__-0x7f4b>
     3e0:	2f656372 	svccs	0x00656372
     3e4:	34327363 	ldrtcc	r7, [r2], #-867	; 0xfffffc9d
     3e8:	2f786c30 	svccs	0x00786c30
     3ec:	7062696c 	rsbvc	r6, r2, ip, ror #18
     3f0:	6e692f69 	cdpvs	15, 6, cr2, cr9, cr9, {3}
     3f4:	64756c63 	ldrbtvs	r6, [r5], #-3171	; 0xfffff39d
     3f8:	63000065 	movwvs	r0, #101	; 0x65
     3fc:	6c6c616b 	stfvse	f6, [ip], #-428	; 0xfffffe54
     400:	632e636f 			; <UNDEFINED> instruction: 0x632e636f
     404:	00000000 	andeq	r0, r0, r0
     408:	6c616b63 			; <UNDEFINED> instruction: 0x6c616b63
     40c:	2e636f6c 	cdpcs	15, 6, cr6, cr3, cr12, {3}
     410:	00000068 	andeq	r0, r0, r8, rrx
     414:	64747300 	ldrbtvs	r7, [r4], #-768	; 0xfffffd00
     418:	2d746e69 	ldclcs	14, cr6, [r4, #-420]!	; 0xfffffe5c
     41c:	2e636367 	cdpcs	3, 6, cr6, cr3, cr7, {3}
     420:	00010068 	andeq	r0, r1, r8, rrx
     424:	69707200 	ldmdbvs	r0!, {r9, ip, sp, lr}^
     428:	0200682e 	andeq	r6, r0, #3014656	; 0x2e0000
     42c:	72730000 	rsbsvc	r0, r3, #0, 0
     430:	6f6c2d63 	svcvs	0x006c2d63
     434:	00682e63 	rsbeq	r2, r8, r3, ror #28
     438:	6b000000 	blvs	440 <__code_start__-0x7bc0>
     43c:	616d2d72 	smcvs	53970	; 0xd2d2
     440:	636f6c6c 	cmnvs	pc, #108, 24	; 0x6c00
     444:	0000682e 	andeq	r6, r0, lr, lsr #16
     448:	05000000 	streq	r0, [r0, #-0]
     44c:	02050001 	andeq	r0, r5, #1, 0
     450:	0000824c 	andeq	r8, r0, ip, asr #4
     454:	05010b03 	streq	r0, [r1, #-2819]	; 0xfffff4fd
     458:	01051305 	tsteq	r5, r5, lsl #6
     45c:	86061306 	strhi	r1, [r6], -r6, lsl #6
     460:	05130505 	ldreq	r0, [r3, #-1285]	; 0xfffffafb
     464:	2e010608 	cfmadd32cs	mvax0, mvfx0, mvfx1, mvfx8
     468:	2f060905 	svccs	0x00060905
     46c:	01061105 	tsteq	r6, r5, lsl #2
     470:	06300105 	ldrteq	r0, [r0], -r5, lsl #2
     474:	062e2603 	strteq	r2, [lr], -r3, lsl #12
     478:	06050501 	streq	r0, [r5], -r1, lsl #10
     47c:	0200014b 	andeq	r0, r0, #-1073741806	; 0xc0000012
     480:	00660204 	rsbeq	r0, r6, r4, lsl #4
     484:	01020402 	tsteq	r2, r2, lsl #8
     488:	02040200 	andeq	r0, r4, #0, 4
     48c:	000c0513 	andeq	r0, ip, r3, lsl r5
     490:	06020402 	streq	r0, [r2], -r2, lsl #8
     494:	00050501 	andeq	r0, r5, r1, lsl #10
     498:	06020402 	streq	r0, [r2], -r2, lsl #8
     49c:	00080530 	andeq	r0, r8, r0, lsr r5
     4a0:	06020402 	streq	r0, [r2], -r2, lsl #8
     4a4:	060b0501 	streq	r0, [fp], -r1, lsl #10
     4a8:	06110551 			; <UNDEFINED> instruction: 0x06110551
     4ac:	2e0b052e 	cfsh32cs	mvfx0, mvfx11, #30
     4b0:	0609052e 	streq	r0, [r9], -lr, lsr #10
     4b4:	060c0530 			; <UNDEFINED> instruction: 0x060c0530
     4b8:	060d0501 	streq	r0, [sp], -r1, lsl #10
     4bc:	061b054c 	ldreq	r0, [fp], -ip, asr #10
     4c0:	2e180501 	cfmul32cs	mvfx0, mvfx8, mvfx1
     4c4:	2f060d05 	svccs	0x00060d05
     4c8:	17060105 	strne	r0, [r6, -r5, lsl #2]
     4cc:	02000505 	andeq	r0, r0, #20971520	; 0x1400000
     4d0:	03060104 	movweq	r0, #24836	; 0x6104
     4d4:	02004a6c 	andeq	r4, r0, #108, 20	; 0x6c000
     4d8:	00010104 	andeq	r0, r1, r4, lsl #2
     4dc:	06010402 	streq	r0, [r1], -r2, lsl #8
     4e0:	0402009e 	streq	r0, [r2], #-158	; 0xffffff62
     4e4:	02002e01 	andeq	r2, r0, #1, 28
     4e8:	2e060104 	adfcss	f0, f6, f4
     4ec:	05330905 	ldreq	r0, [r3, #-2309]!	; 0xfffff6fb
     4f0:	0501060f 	streq	r0, [r1, #-1551]	; 0xfffff9f1
     4f4:	09052e0c 	stmdbeq	r5, {r2, r3, r9, sl, fp, sp}
     4f8:	05052f06 	streq	r2, [r5, #-3846]	; 0xfffff0fa
     4fc:	012e0d03 			; <UNDEFINED> instruction: 0x012e0d03
     500:	2e069e06 	cdpcs	14, 0, cr9, cr6, cr6, {0}
     504:	49030105 	stmdbmi	r3, {r0, r2, r8}
     508:	130505ba 	movwne	r0, #21946	; 0x55ba
     50c:	13060105 	movwne	r0, #24837	; 0x6105
     510:	0632062e 	ldrteq	r0, [r2], -lr, lsr #12
     514:	06050501 	streq	r0, [r5], -r1, lsl #10
     518:	0614054b 	ldreq	r0, [r4], -fp, asr #10
     51c:	05020401 	streq	r0, [r2, #-1025]	; 0xfffffbff
     520:	052f0618 	streq	r0, [pc, #-1560]!	; ffffff10 <__bss_end__+0xffff5b48>
     524:	0d051305 	stceq	3, cr1, [r5, #-20]	; 0xffffffec
     528:	042e0106 	strteq	r0, [lr], #-262	; 0xfffffefa
     52c:	11010501 	tstne	r1, r1, lsl #10
     530:	05054e06 	streq	r4, [r5, #-3590]	; 0xfffff1fa
     534:	06270513 			; <UNDEFINED> instruction: 0x06270513
     538:	00480501 	subeq	r0, r8, r1, lsl #10
     53c:	4a010402 	bmi	4154c <__bss_end__+0x37184>
     540:	02004505 	andeq	r4, r0, #20971520	; 0x1400000
     544:	052e0104 	streq	r0, [lr, #-260]!	; 0xfffffefc
     548:	04020057 	streq	r0, [r2], #-87	; 0xffffffa9
     54c:	27054a01 	strcs	r4, [r5, -r1, lsl #20]
     550:	01040200 	mrseq	r0, R12_usr
     554:	2e4a4a4a 	vmlscs.f32	s9, s20, s20
     558:	064b0105 	strbeq	r0, [fp], -r5, lsl #2
     55c:	05010631 	streq	r0, [r1, #-1585]	; 0xfffff9cf
     560:	054c0605 	strbeq	r0, [ip, #-1541]	; 0xfffff9fb
     564:	1505010a 	strne	r0, [r5, #-266]	; 0xfffffef6
     568:	052e0106 	streq	r0, [lr, #-262]!	; 0xfffffefa
     56c:	04020025 	streq	r0, [r2], #-37	; 0xffffffdb
     570:	052e0601 	streq	r0, [lr, #-1537]!	; 0xfffff9ff
     574:	04020005 	streq	r0, [r2], #-5
     578:	05010601 	streq	r0, [r1, #-1537]	; 0xfffff9ff
     57c:	054d0609 	strbeq	r0, [sp, #-1545]	; 0xfffff9f7
     580:	4a01060d 	bmi	41dbc <__bss_end__+0x379f4>
     584:	052e0c05 	streq	r0, [lr, #-3077]!	; 0xfffff3fb
     588:	04020009 	streq	r0, [r2], #-9
     58c:	05510602 	ldrbeq	r0, [r1, #-1538]	; 0xfffff9fe
     590:	04020028 	streq	r0, [r2], #-40	; 0xffffffd8
     594:	01760302 	cmneq	r6, r2, lsl #6
     598:	02002c05 	andeq	r2, r0, #1280	; 0x500
     59c:	01060204 	tsteq	r6, r4, lsl #4
     5a0:	02040200 	andeq	r0, r4, #0, 4
     5a4:	060d0566 	streq	r0, [sp], -r6, ror #10
     5a8:	14058333 	strne	r8, [r5], #-819	; 0xfffffccd
     5ac:	054a0106 	strbeq	r0, [sl, #-262]	; 0xfffffefa
     5b0:	0105180c 	tsteq	r5, ip, lsl #16
     5b4:	1c03062f 	stcne	6, cr0, [r3], {47}	; 0x2f
     5b8:	8201064a 	andhi	r0, r1, #77594624	; 0x4a00000
     5bc:	2f060505 	svccs	0x00060505
     5c0:	f2011413 	vqshl.s8	d1, d3, d1
     5c4:	0a051366 	beq	145364 <__bss_end__+0x13af9c>
     5c8:	08050106 	stmdaeq	r5, {r1, r2, r8}
     5cc:	0609052e 	streq	r0, [r9], -lr, lsr #10
     5d0:	14050567 	strne	r0, [r5], #-1383	; 0xfffffa99
     5d4:	01060e05 	tsteq	r6, r5, lsl #28
     5d8:	4b060505 	blmi	1819f4 <__bss_end__+0x17762c>
     5dc:	04020001 	streq	r0, [r2], #-1
     5e0:	02008202 	andeq	r8, r0, #536870912	; 0x20000000
     5e4:	00010204 	andeq	r0, r1, r4, lsl #4
     5e8:	14020402 	strne	r0, [r2], #-1026	; 0xfffffbfe
     5ec:	02040200 	andeq	r0, r4, #0, 4
     5f0:	00010567 	andeq	r0, r1, r7, ror #10
     5f4:	06020402 	streq	r0, [r2], -r2, lsl #8
     5f8:	0609054b 	streq	r0, [r9], -fp, asr #10
     5fc:	014a7903 	cmpeq	sl, r3, lsl #18
     600:	0505669e 	streq	r6, [r5, #-1694]	; 0xfffff962
     604:	01040200 	mrseq	r0, R12_usr
     608:	04020031 	streq	r0, [r2], #-49	; 0xffffffcf
     60c:	02000101 	andeq	r0, r0, #1073741824	; 0x40000000
     610:	05d60104 	ldrbeq	r0, [r6, #260]	; 0x104
     614:	080a0301 	stmdaeq	sl, {r0, r8, r9}
     618:	0501063c 	streq	r0, [r1, #-1596]	; 0xfffff9c4
     61c:	059f0605 	ldreq	r0, [pc, #1541]	; c29 <__code_start__-0x73d7>
     620:	2e010610 	mcrcs	6, 0, r0, cr1, cr0, {0}
     624:	4b060505 	blmi	181a40 <__bss_end__+0x177678>
     628:	06150568 	ldreq	r0, [r5], -r8, ror #10
     62c:	06050501 	streq	r0, [r5], -r1, lsl #10
     630:	060e052f 	streq	r0, [lr], -pc, lsr #10
     634:	06050501 	streq	r0, [r5], -r1, lsl #10
     638:	0612054b 	ldreq	r0, [r2], -fp, asr #10
     63c:	06050501 	streq	r0, [r5], -r1, lsl #10
     640:	829e0168 	addshi	r0, lr, #26
     644:	060d0513 			; <UNDEFINED> instruction: 0x060d0513
     648:	06050501 	streq	r0, [r5], -r1, lsl #10
     64c:	06100567 	ldreq	r0, [r0], -r7, ror #10
     650:	06050501 	streq	r0, [r5], -r1, lsl #10
     654:	06010530 			; <UNDEFINED> instruction: 0x06010530
     658:	06026613 			; <UNDEFINED> instruction: 0x06026613
     65c:	21010100 	mrscs	r0, (UNDEF: 17)
     660:	03000001 	movweq	r0, #1
     664:	0000be00 	andeq	fp, r0, r0, lsl #28
     668:	fb010200 	blx	40e72 <__bss_end__+0x36aaa>
     66c:	01000d0e 	tsteq	r0, lr, lsl #26
     670:	00010101 	andeq	r0, r1, r1, lsl #2
     674:	00010000 	andeq	r0, r1, r0
     678:	2f2e0100 	svccs	0x002e0100
     67c:	6362696c 	cmnvs	r2, #108, 18	; 0x1b0000
     680:	73552f00 	cmpvc	r5, #0, 30
     684:	2f737265 	svccs	0x00737265
     688:	656c696d 	strbvs	r6, [ip, #-2413]!	; 0xfffff693
     68c:	6f532f73 	svcvs	0x00532f73
     690:	65637275 	strbvs	r7, [r3, #-629]!	; 0xfffffd8b
     694:	3273632f 	rsbscc	r6, r3, #-1140850688	; 0xbc000000
     698:	786c3034 	stmdavc	ip!, {r2, r4, r5, ip, sp}^
     69c:	62696c2f 	rsbvs	r6, r9, #12032	; 0x2f00
     6a0:	692f6970 	stmdbvs	pc!, {r4, r5, r6, r8, fp, sp, lr}	; <UNPREDICTABLE>
     6a4:	756c636e 	strbvc	r6, [ip, #-878]!	; 0xfffffc92
     6a8:	2f006564 	svccs	0x00006564
     6ac:	2f74706f 	svccs	0x0074706f
     6b0:	656d6f68 	strbvs	r6, [sp, #-3944]!	; 0xfffff098
     6b4:	77657262 	strbvc	r7, [r5, -r2, ror #4]!
     6b8:	6c65432f 	stclvs	3, cr4, [r5], #-188	; 0xffffff44
     6bc:	2f72616c 	svccs	0x0072616c
     6c0:	2d6d7261 	sfmcs	f7, 2, [sp, #-388]!	; 0xfffffe7c
     6c4:	656e6f6e 	strbvs	r6, [lr, #-3950]!	; 0xfffff092
     6c8:	6261652d 	rsbvs	r6, r1, #188743680	; 0xb400000
     6cc:	2f392d69 	svccs	0x00392d69
     6d0:	30322d39 	eorscc	r2, r2, r9, lsr sp
     6d4:	34713931 	ldrbtcc	r3, [r1], #-2353	; 0xfffff6cf
     6d8:	3173632d 	cmncc	r3, sp, lsr #6
     6dc:	2f653730 	svccs	0x00653730
     6e0:	2f62696c 	svccs	0x0062696c
     6e4:	2f636367 	svccs	0x00636367
     6e8:	2d6d7261 	sfmcs	f7, 2, [sp, #-388]!	; 0xfffffe7c
     6ec:	656e6f6e 	strbvs	r6, [lr, #-3950]!	; 0xfffff092
     6f0:	6261652d 	rsbvs	r6, r1, #188743680	; 0xb400000
     6f4:	2e392f69 	cdpcs	15, 3, cr2, cr9, cr9, {3}
     6f8:	2f312e32 	svccs	0x00312e32
     6fc:	6c636e69 	stclvs	14, cr6, [r3], #-420	; 0xfffffe5c
     700:	00656475 	rsbeq	r6, r5, r5, ror r4
     704:	6d656d00 	stclvs	13, cr6, [r5, #-0]
     708:	2e746573 	mrccs	5, 3, r6, cr4, cr3, {3}
     70c:	00010063 	andeq	r0, r1, r3, rrx
     710:	69707200 	ldmdbvs	r0!, {r9, ip, sp, lr}^
     714:	0200682e 	andeq	r6, r0, #3014656	; 0x2e0000
     718:	74730000 	ldrbtvc	r0, [r3], #-0
     71c:	66656464 	strbtvs	r6, [r5], -r4, ror #8
     720:	0300682e 	movweq	r6, #2094	; 0x82e
     724:	05000000 	streq	r0, [r0, #-0]
     728:	02050029 	andeq	r0, r5, #41, 0	; 0x29
     72c:	00008548 	andeq	r8, r0, r8, asr #10
     730:	13050515 	movwne	r0, #21781	; 0x5515
     734:	11062905 	tstne	r6, r5, lsl #18
     738:	052f1405 	streq	r1, [pc, #-1029]!	; 33b <__code_start__-0x7cc5>
     73c:	05300605 	ldreq	r0, [r0, #-1541]!	; 0xfffff9fb
     740:	9e06010a 	adflss	f0, f6, #2.0
     744:	d7060905 	strle	r0, [r6, -r5, lsl #18]
     748:	01060e05 	tsteq	r6, r5, lsl #28
     74c:	2d060a05 	vstrcs	s0, [r6, #-20]	; 0xffffffec
     750:	05bb0905 	ldreq	r0, [fp, #2309]!	; 0x905
     754:	2e01060e 	cfmadd32cs	mvax0, mvfx0, mvfx1, mvfx14
     758:	2d060a05 	vstrcs	s0, [r6, #-20]	; 0xffffffec
     75c:	054b0905 	strbeq	r0, [fp, #-2309]	; 0xfffff6fb
     760:	0501060b 	streq	r0, [r1, #-1547]	; 0xfffff9f5
     764:	0e052d0a 	cdpeq	13, 0, cr2, cr5, cr10, {0}
     768:	060a052f 	streq	r0, [sl], -pc, lsr #10
     76c:	060e052d 	streq	r0, [lr], -sp, lsr #10
     770:	06090513 			; <UNDEFINED> instruction: 0x06090513
     774:	110a052e 	tstne	sl, lr, lsr #10
     778:	05140505 	ldreq	r0, [r4, #-1285]	; 0xfffffafb
     77c:	02130601 	andseq	r0, r3, #1048576	; 0x100000
     780:	01010002 	tsteq	r1, r2
     784:	00000120 	andeq	r0, r0, r0, lsr #2
     788:	00db0003 	sbcseq	r0, fp, r3
     78c:	01020000 	mrseq	r0, (UNDEF: 2)
     790:	000d0efb 	strdeq	r0, [sp], -fp
     794:	01010101 	tsteq	r1, r1, lsl #2
     798:	01000000 	mrseq	r0, (UNDEF: 0)
     79c:	2e010000 	cdpcs	0, 0, cr0, cr1, cr0, {0}
     7a0:	62696c2f 	rsbvs	r6, r9, #12032	; 0x2f00
     7a4:	6f2f0063 	svcvs	0x002f0063
     7a8:	682f7470 	stmdavs	pc!, {r4, r5, r6, sl, ip, sp, lr}	; <UNPREDICTABLE>
     7ac:	62656d6f 	rsbvs	r6, r5, #7104	; 0x1bc0
     7b0:	2f776572 	svccs	0x00776572
     7b4:	6c6c6543 	cfstr64vs	mvdx6, [ip], #-268	; 0xfffffef4
     7b8:	612f7261 			; <UNDEFINED> instruction: 0x612f7261
     7bc:	6e2d6d72 	mcrvs	13, 1, r6, cr13, cr2, {3}
     7c0:	2d656e6f 	stclcs	14, cr6, [r5, #-444]!	; 0xfffffe44
     7c4:	69626165 	stmdbvs	r2!, {r0, r2, r5, r6, r8, sp, lr}^
     7c8:	392f392d 	stmdbcc	pc!, {r0, r2, r3, r5, r8, fp, ip, sp}	; <UNPREDICTABLE>
     7cc:	3130322d 	teqcc	r0, sp, lsr #4
     7d0:	2d347139 	ldfcss	f7, [r4, #-228]!	; 0xffffff1c
     7d4:	30317363 	eorscc	r7, r1, r3, ror #6
     7d8:	6c2f6537 	cfstr32vs	mvfx6, [pc], #-220	; 704 <__code_start__-0x78fc>
     7dc:	672f6269 	strvs	r6, [pc, -r9, ror #4]!
     7e0:	612f6363 			; <UNDEFINED> instruction: 0x612f6363
     7e4:	6e2d6d72 	mcrvs	13, 1, r6, cr13, cr2, {3}
     7e8:	2d656e6f 	stclcs	14, cr6, [r5, #-444]!	; 0xfffffe44
     7ec:	69626165 	stmdbvs	r2!, {r0, r2, r5, r6, r8, sp, lr}^
     7f0:	322e392f 	eorcc	r3, lr, #770048	; 0xbc000
     7f4:	692f312e 	stmdbvs	pc!, {r1, r2, r3, r5, r8, ip, sp}	; <UNPREDICTABLE>
     7f8:	756c636e 	strbvc	r6, [ip, #-878]!	; 0xfffffc92
     7fc:	2f006564 	svccs	0x00006564
     800:	72657355 	rsbvc	r7, r5, #1409286145	; 0x54000001
     804:	696d2f73 	stmdbvs	sp!, {r0, r1, r4, r5, r6, r8, r9, sl, fp, sp}^
     808:	2f73656c 	svccs	0x0073656c
     80c:	72756f53 	rsbsvc	r6, r5, #332	; 0x14c
     810:	632f6563 			; <UNDEFINED> instruction: 0x632f6563
     814:	30343273 	eorscc	r3, r4, r3, ror r2
     818:	6c2f786c 	stcvs	8, cr7, [pc], #-432	; 670 <__code_start__-0x7990>
     81c:	69706269 	ldmdbvs	r0!, {r0, r3, r5, r6, r9, sp, lr}^
     820:	636e692f 	cmnvs	lr, #770048	; 0xbc000
     824:	6564756c 	strbvs	r7, [r4, #-1388]!	; 0xfffffa94
     828:	72700000 	rsbsvc	r0, r0, #0, 0
     82c:	6b746e69 	blvs	1d1c1d8 <__bss_end__+0x1d11e10>
     830:	0100632e 	tsteq	r0, lr, lsr #6
     834:	74730000 	ldrbtvc	r0, [r3], #-0
     838:	67726164 	ldrbvs	r6, [r2, -r4, ror #2]!
     83c:	0200682e 	andeq	r6, r0, #3014656	; 0x2e0000
     840:	70720000 	rsbsvc	r0, r2, r0
     844:	00682e69 	rsbeq	r2, r8, r9, ror #28
     848:	3c000003 	stccc	0, cr0, [r0], {3}
     84c:	6c697562 	cfstr64vs	mvdx7, [r9], #-392	; 0xfffffe78
     850:	6e692d74 	mcrvs	13, 3, r2, cr9, cr4, {3}
     854:	0000003e 	andeq	r0, r0, lr, lsr r0
     858:	2d617600 	stclcs	6, cr7, [r1, #-0]
     85c:	6e697270 	mcrvs	2, 3, r7, cr9, cr0, {3}
     860:	682e6b74 	stmdavs	lr!, {r2, r4, r5, r6, r8, r9, fp, sp, lr}
     864:	00000100 	andeq	r0, r0, r0, lsl #2
     868:	00220500 	eoreq	r0, r2, r0, lsl #10
     86c:	85c00205 	strbhi	r0, [r0, #517]	; 0x205
     870:	05170000 	ldreq	r0, [r7, #-0]
     874:	14131405 	ldrne	r1, [r3], #-1029	; 0xfffffbfb
     878:	0d062205 	sfmeq	f2, 4, [r6, #-20]	; 0xffffffec
     87c:	05501205 	ldrbeq	r1, [r0, #-517]	; 0xfffffdfb
     880:	2e7a0322 	cdpcs	3, 7, cr0, cr10, cr2, {1}
     884:	05330505 	ldreq	r0, [r3, #-1285]!	; 0xfffffafb
     888:	05052f12 	streq	r2, [r5, #-3858]	; 0xfffff0ee
     88c:	06090565 	streq	r0, [r9], -r5, ror #10
     890:	0612052f 	ldreq	r0, [r2], -pc, lsr #10
     894:	06050501 	streq	r0, [r5], -r1, lsl #10
     898:	4a06164b 	bmi	1861cc <__bss_end__+0x17be04>
     89c:	01055006 	tsteq	r5, r6
     8a0:	02661306 	rsbeq	r1, r6, #402653184	; 0x18000000
     8a4:	01010008 	tsteq	r1, r8
     8a8:	000000a0 	andeq	r0, r0, r0, lsr #1
     8ac:	00570003 	subseq	r0, r7, r3
     8b0:	01020000 	mrseq	r0, (UNDEF: 2)
     8b4:	000d0efb 	strdeq	r0, [sp], -fp
     8b8:	01010101 	tsteq	r1, r1, lsl #2
     8bc:	01000000 	mrseq	r0, (UNDEF: 0)
     8c0:	2e010000 	cdpcs	0, 0, cr0, cr1, cr0, {0}
     8c4:	62696c2f 	rsbvs	r6, r9, #12032	; 0x2f00
     8c8:	552f0063 	strpl	r0, [pc, #-99]!	; 86d <__code_start__-0x7793>
     8cc:	73726573 	cmnvc	r2, #482344960	; 0x1cc00000
     8d0:	6c696d2f 	stclvs	13, cr6, [r9], #-188	; 0xffffff44
     8d4:	532f7365 			; <UNDEFINED> instruction: 0x532f7365
     8d8:	6372756f 	cmnvs	r2, #465567744	; 0x1bc00000
     8dc:	73632f65 	cmnvc	r3, #404	; 0x194
     8e0:	6c303432 	cfldrsvs	mvf3, [r0], #-200	; 0xffffff38
     8e4:	696c2f78 	stmdbvs	ip!, {r3, r4, r5, r6, r8, r9, sl, fp, sp}^
     8e8:	2f697062 	svccs	0x00697062
     8ec:	6c636e69 	stclvs	14, cr6, [r3], #-420	; 0xfffffe5c
     8f0:	00656475 	rsbeq	r6, r5, r5, ror r4
     8f4:	74757000 	ldrbtvc	r7, [r5], #-0
     8f8:	00632e6b 	rsbeq	r2, r3, fp, ror #28
     8fc:	72000001 	andvc	r0, r0, #1, 0
     900:	682e6970 	stmdavs	lr!, {r4, r5, r6, r8, fp, sp, lr}
     904:	00000200 	andeq	r0, r0, r0, lsl #4
     908:	00220500 	eoreq	r0, r2, r0, lsl #10
     90c:	86180205 	ldrhi	r0, [r8], -r5, lsl #4
     910:	05150000 	ldreq	r0, [r5, #-0]
     914:	22051305 	andcs	r1, r5, #335544320	; 0x14000000
     918:	052e1106 	streq	r1, [lr, #-262]!	; 0xfffffefa
     91c:	052f060b 	streq	r0, [pc, #-1547]!	; 319 <__code_start__-0x7ce7>
     920:	052e0605 	streq	r0, [lr, #-1541]!	; 0xfffff9fb
     924:	04020009 	streq	r0, [r2], #-9
     928:	05670602 	strbeq	r0, [r7, #-1538]!	; 0xfffff9fe
     92c:	0402000f 	streq	r0, [r2], #-15
     930:	0b054902 	bleq	152d40 <__bss_end__+0x148978>
     934:	02040200 	andeq	r0, r4, #0, 4
     938:	00050501 	andeq	r0, r5, r1, lsl #10
     93c:	06020402 	streq	r0, [r2], -r2, lsl #8
     940:	054e062e 	strbeq	r0, [lr, #-1582]	; 0xfffff9d2
     944:	02130601 	andseq	r0, r3, #1048576	; 0x100000
     948:	01010006 	tsteq	r1, r6
     94c:	000008fa 	strdeq	r0, [r0], -sl
     950:	00f10003 	rscseq	r0, r1, r3
     954:	01020000 	mrseq	r0, (UNDEF: 2)
     958:	000d0efb 	strdeq	r0, [sp], -fp
     95c:	01010101 	tsteq	r1, r1, lsl #2
     960:	01000000 	mrseq	r0, (UNDEF: 0)
     964:	2e010000 	cdpcs	0, 0, cr0, cr1, cr0, {0}
     968:	62696c2f 	rsbvs	r6, r9, #12032	; 0x2f00
     96c:	6f2f0063 	svcvs	0x002f0063
     970:	682f7470 	stmdavs	pc!, {r4, r5, r6, sl, ip, sp, lr}	; <UNPREDICTABLE>
     974:	62656d6f 	rsbvs	r6, r5, #7104	; 0x1bc0
     978:	2f776572 	svccs	0x00776572
     97c:	6c6c6543 	cfstr64vs	mvdx6, [ip], #-268	; 0xfffffef4
     980:	612f7261 			; <UNDEFINED> instruction: 0x612f7261
     984:	6e2d6d72 	mcrvs	13, 1, r6, cr13, cr2, {3}
     988:	2d656e6f 	stclcs	14, cr6, [r5, #-444]!	; 0xfffffe44
     98c:	69626165 	stmdbvs	r2!, {r0, r2, r5, r6, r8, sp, lr}^
     990:	392f392d 	stmdbcc	pc!, {r0, r2, r3, r5, r8, fp, ip, sp}	; <UNPREDICTABLE>
     994:	3130322d 	teqcc	r0, sp, lsr #4
     998:	2d347139 	ldfcss	f7, [r4, #-228]!	; 0xffffff1c
     99c:	30317363 	eorscc	r7, r1, r3, ror #6
     9a0:	6c2f6537 	cfstr32vs	mvfx6, [pc], #-220	; 8cc <__code_start__-0x7734>
     9a4:	672f6269 	strvs	r6, [pc, -r9, ror #4]!
     9a8:	612f6363 			; <UNDEFINED> instruction: 0x612f6363
     9ac:	6e2d6d72 	mcrvs	13, 1, r6, cr13, cr2, {3}
     9b0:	2d656e6f 	stclcs	14, cr6, [r5, #-444]!	; 0xfffffe44
     9b4:	69626165 	stmdbvs	r2!, {r0, r2, r5, r6, r8, sp, lr}^
     9b8:	322e392f 	eorcc	r3, lr, #770048	; 0xbc000
     9bc:	692f312e 	stmdbvs	pc!, {r1, r2, r3, r5, r8, ip, sp}	; <UNPREDICTABLE>
     9c0:	756c636e 	strbvc	r6, [ip, #-878]!	; 0xfffffc92
     9c4:	2f006564 	svccs	0x00006564
     9c8:	72657355 	rsbvc	r7, r5, #1409286145	; 0x54000001
     9cc:	696d2f73 	stmdbvs	sp!, {r0, r1, r4, r5, r6, r8, r9, sl, fp, sp}^
     9d0:	2f73656c 	svccs	0x0073656c
     9d4:	72756f53 	rsbsvc	r6, r5, #332	; 0x14c
     9d8:	632f6563 			; <UNDEFINED> instruction: 0x632f6563
     9dc:	30343273 	eorscc	r3, r4, r3, ror r2
     9e0:	6c2f786c 	stcvs	8, cr7, [pc], #-432	; 838 <__code_start__-0x77c8>
     9e4:	69706269 	ldmdbvs	r0!, {r0, r3, r5, r6, r9, sp, lr}^
     9e8:	636e692f 	cmnvs	lr, #770048	; 0xbc000
     9ec:	6564756c 	strbvs	r7, [r4, #-1388]!	; 0xfffffa94
     9f0:	61760000 	cmnvs	r6, r0
     9f4:	6972702d 	ldmdbvs	r2!, {r0, r2, r3, r5, ip, sp, lr}^
     9f8:	2e6b746e 	cdpcs	4, 6, cr7, cr11, cr14, {3}
     9fc:	00010063 	andeq	r0, r1, r3, rrx
     a00:	64747300 	ldrbtvs	r7, [r4], #-768	; 0xfffffd00
     a04:	2d746e69 	ldclcs	14, cr6, [r4, #-420]!	; 0xfffffe5c
     a08:	2e636367 	cdpcs	3, 6, cr6, cr3, cr7, {3}
     a0c:	00020068 	andeq	r0, r2, r8, rrx
     a10:	69707200 	ldmdbvs	r0!, {r9, ip, sp, lr}^
     a14:	0300682e 	movweq	r6, #2094	; 0x82e
     a18:	70720000 	rsbsvc	r0, r2, r0
     a1c:	6e692d69 	cdpvs	13, 6, cr2, cr9, cr9, {3}
     a20:	6e726574 	mrcvs	5, 3, r6, cr2, cr4, {3}
     a24:	682e6c61 	stmdavs	lr!, {r0, r5, r6, sl, fp, sp, lr}
     a28:	00000300 	andeq	r0, r0, r0, lsl #6
     a2c:	61647473 	smcvs	18243	; 0x4743
     a30:	682e6772 	stmdavs	lr!, {r1, r4, r5, r6, r8, r9, sl, sp, lr}
     a34:	00000200 	andeq	r0, r0, r0, lsl #4
     a38:	6975623c 	ldmdbvs	r5!, {r2, r3, r4, r5, r9, sp, lr}^
     a3c:	692d746c 	pushvs	{r2, r3, r5, r6, sl, ip, sp, lr}
     a40:	00003e6e 	andeq	r3, r0, lr, ror #28
     a44:	05000000 	streq	r0, [r0, #-0]
     a48:	02050001 	andeq	r0, r5, #1, 0
     a4c:	00008650 	andeq	r8, r0, r0, asr r6
     a50:	0100c803 	tsteq	r0, r3, lsl #16
     a54:	05140205 	ldreq	r0, [r4, #-517]	; 0xfffffdfb
     a58:	05100601 	ldreq	r0, [r0, #-1537]	; 0xfffff9ff
     a5c:	01053004 	tsteq	r5, r4
     a60:	04054a2c 	streq	r4, [r5], #-2604	; 0xfffff5d4
     a64:	06020530 			; <UNDEFINED> instruction: 0x06020530
     a68:	0b051331 	bleq	145734 <__bss_end__+0x13b36c>
     a6c:	02052e06 	andeq	r2, r5, #96	; 0x60
     a70:	09053006 	stmdbeq	r5, {r1, r2, ip, sp}
     a74:	0d240206 	sfmeq	f0, 4, [r4, #-24]!	; 0xffffffe8
     a78:	0d052e2e 	stceq	14, cr2, [r5, #-184]	; 0xffffff48
     a7c:	4a170306 	bmi	5c169c <__bss_end__+0x5b72d4>
     a80:	05131105 	ldreq	r1, [r3, #-261]	; 0xfffffefb
     a84:	0501062d 	streq	r0, [r1, #-1581]	; 0xfffff9d3
     a88:	0d052e16 	stceq	14, cr2, [r5, #-88]	; 0xffffffa8
     a8c:	2d16052f 	cfldr32cs	mvfx0, [r6, #-188]	; 0xffffff44
     a90:	2f061405 	svccs	0x00061405
     a94:	01061705 	tsteq	r6, r5, lsl #14
     a98:	062e0d05 	strteq	r0, [lr], -r5, lsl #26
     a9c:	0612052f 	ldreq	r0, [r2], -pc, lsr #10
     aa0:	2d2f2e01 	stccs	14, cr2, [pc, #-4]!	; aa4 <__code_start__-0x755c>
     aa4:	2f060d05 	svccs	0x00060d05
     aa8:	01061205 	tsteq	r6, r5, lsl #4
     aac:	2f061905 	svccs	0x00061905
     ab0:	11030405 	tstne	r3, r5, lsl #8
     ab4:	02050101 	andeq	r0, r5, #1073741824	; 0x40000000
     ab8:	030e0515 	movweq	r0, #58645	; 0xe515
     abc:	05017fb2 	streq	r7, [r1, #-4018]	; 0xfffff04e
     ac0:	06051302 	streq	r1, [r5], -r2, lsl #6
     ac4:	02050106 	andeq	r0, r5, #-2147483647	; 0x80000001
     ac8:	08053006 	stmdaeq	r5, {r1, r2, ip, sp}
     acc:	06020501 	streq	r0, [r2], -r1, lsl #10
     ad0:	08054a01 	stmdaeq	r5, {r0, r9, fp, lr}
     ad4:	03059108 	movweq	r9, #20744	; 0x5108
     ad8:	08054a06 	stmdaeq	r5, {r1, r2, r9, fp, lr}
     adc:	15050106 	strne	r0, [r5, #-262]	; 0xfffffefa
     ae0:	08052d06 	stmdaeq	r5, {r1, r2, r8, sl, fp, sp}
     ae4:	d7030501 	strle	r0, [r3, -r1, lsl #10]
     ae8:	01060805 	tsteq	r6, r5, lsl #16
     aec:	052d1805 	streq	r1, [sp, #-2053]!	; 0xfffff7fb
     af0:	08052e02 	stmdaeq	r5, {r1, r9, sl, fp, sp}
     af4:	0615052f 	ldreq	r0, [r5], -pc, lsr #10
     af8:	0108052d 	tsteq	r8, sp, lsr #10
     afc:	01060205 	tsteq	r6, r5, lsl #4
     b00:	2f060305 	svccs	0x00060305
     b04:	11061805 	tstne	r6, r5, lsl #16
     b08:	052e0205 	streq	r0, [lr, #-517]!	; 0xfffffdfb
     b0c:	15052f08 	strne	r2, [r5, #-3848]	; 0xfffff0f8
     b10:	08052d06 	stmdaeq	r5, {r1, r2, r8, sl, fp, sp}
     b14:	13030501 	movwne	r0, #13569	; 0x3501
     b18:	01060805 	tsteq	r6, r5, lsl #16
     b1c:	2d061505 	cfstr32cs	mvfx1, [r6, #-20]	; 0xffffffec
     b20:	06010805 	streq	r0, [r1], -r5, lsl #16
     b24:	06020501 	streq	r0, [r2], -r1, lsl #10
     b28:	060505a0 	streq	r0, [r5], -r0, lsr #11
     b2c:	36040501 	strcc	r0, [r4], -r1, lsl #10
     b30:	052f1105 	streq	r1, [pc, #-261]!	; a33 <__code_start__-0x75cd>
     b34:	02052e09 	andeq	r2, r5, #144	; 0x90
     b38:	03050533 	movweq	r0, #21811	; 0x5533
     b3c:	02052e72 	andeq	r2, r5, #1824	; 0x720
     b40:	01062f06 	tsteq	r6, r6, lsl #30
     b44:	16060e05 	strne	r0, [r6], -r5, lsl #28
     b48:	13140205 	tstne	r4, #1342177280	; 0x50000000
     b4c:	05130305 	ldreq	r0, [r3, #-773]	; 0xfffffcfb
     b50:	05151402 	ldreq	r1, [r5, #-1026]	; 0xfffffbfe
     b54:	0205010b 	andeq	r0, r5, #-1073741822	; 0xc0000002
     b58:	052e0106 	streq	r0, [lr, #-262]!	; 0xfffffefa
     b5c:	05670603 	strbeq	r0, [r7, #-1539]!	; 0xfffff9fd
     b60:	0501060a 	streq	r0, [r1, #-1546]	; 0xfffff9f6
     b64:	0a052d02 	beq	14bf74 <__bss_end__+0x141bac>
     b68:	0617052f 	ldreq	r0, [r7], -pc, lsr #10
     b6c:	010b052d 	tsteq	fp, sp, lsr #10
     b70:	01060205 	tsteq	r6, r5, lsl #4
     b74:	2e4c0905 	vmlacs.f16	s1, s24, s10	; <UNPREDICTABLE>
     b78:	2e060205 	cdpcs	2, 0, cr0, cr6, cr5, {0}
     b7c:	01060905 	tsteq	r6, r5, lsl #18
     b80:	30060205 	andcc	r0, r6, r5, lsl #4
     b84:	01050106 	tsteq	r5, r6, lsl #2
     b88:	05013803 	streq	r3, [r1, #-2051]	; 0xfffff7fd
     b8c:	4a4f0309 	bmi	13c17b8 <__bss_end__+0x13b73f0>
     b90:	19052e2e 	stmdbne	r5, {r1, r2, r3, r5, r9, sl, fp, sp}
     b94:	4a270306 	bmi	9c17b4 <__bss_end__+0x9b73ec>
     b98:	05131a05 	ldreq	r1, [r3, #-2565]	; 0xfffff5fb
     b9c:	05010628 	streq	r0, [r1, #-1576]	; 0xfffff9d8
     ba0:	04052e1f 	streq	r2, [r5], #-3615	; 0xfffff1e1
     ba4:	2d1f052f 	cfldr32cs	mvfx0, [pc, #-188]	; af0 <__code_start__-0x7510>
     ba8:	2f060b05 	svccs	0x00060b05
     bac:	01060e05 	tsteq	r6, r5, lsl #28
     bb0:	052e0405 	streq	r0, [lr, #-1029]!	; 0xfffffbfb
     bb4:	59030602 	stmdbpl	r3, {r1, r9, sl}
     bb8:	0b05134a 	bleq	1458e8 <__bss_end__+0x13b520>
     bbc:	02052e06 	andeq	r2, r5, #96	; 0x60
     bc0:	09053006 	stmdbeq	r5, {r1, r2, ip, sp}
     bc4:	0d240206 	sfmeq	f0, 4, [r4, #-24]!	; 0xffffffe8
     bc8:	36060405 	strcc	r0, [r6], -r5, lsl #8
     bcc:	06060513 			; <UNDEFINED> instruction: 0x06060513
     bd0:	06050501 	streq	r0, [r5], -r1, lsl #10
     bd4:	05131367 	ldreq	r1, [r3, #-871]	; 0xfffffc99
     bd8:	05110609 	ldreq	r0, [r1, #-1545]	; 0xfffff9f7
     bdc:	0b052b0d 	bleq	14b818 <__bss_end__+0x141450>
     be0:	2c0d0530 	cfstr32cs	mvfx0, [sp], {48}	; 0x30
     be4:	05351b05 	ldreq	r1, [r5, #-2821]!	; 0xfffff4fb
     be8:	052d0604 	streq	r0, [sp, #-1540]!	; 0xfffff9fc
     bec:	1b051305 	blne	145808 <__bss_end__+0x13b440>
     bf0:	0a052e06 	beq	14c410 <__bss_end__+0x142048>
     bf4:	2f040582 	svccs	0x00040582
     bf8:	052e0e05 	streq	r0, [lr, #-3589]!	; 0xfffff1fb
     bfc:	0b05490a 	bleq	15302c <__bss_end__+0x148c64>
     c00:	04052f06 	streq	r2, [r5], #-3846	; 0xfffff0fa
     c04:	2f060106 	svccs	0x00060106
     c08:	01060605 	tsteq	r6, r5, lsl #12
     c0c:	2f060505 	svccs	0x00060505
     c10:	01060a05 	tsteq	r6, r5, lsl #20
     c14:	2e07052e 	cfsh32cs	mvfx0, mvfx7, #30
     c18:	04052e2e 	streq	r2, [r5], #-3630	; 0xfffff1d2
     c1c:	010d0306 	tsteq	sp, r6, lsl #6
     c20:	03060205 	movweq	r0, #25093	; 0x6205
     c24:	09050146 	stmdbeq	r5, {r1, r2, r6, r8}
     c28:	052e3a03 	streq	r3, [lr, #-2563]!	; 0xfffff5fd
     c2c:	032f0604 			; <UNDEFINED> instruction: 0x032f0604
     c30:	0501010d 	streq	r0, [r1, #-269]	; 0xfffffef3
     c34:	0e051502 	cfsh32eq	mvfx1, mvfx5, #2
     c38:	017fb203 	cmneq	pc, r3, lsl #4
     c3c:	14130205 	ldrne	r0, [r3], #-517	; 0xfffffdfb
     c40:	05010805 	streq	r0, [r1, #-2053]	; 0xfffff7fb
     c44:	03100606 	tsteq	r0, #6291456	; 0x600000
     c48:	02052e3c 	andeq	r2, r5, #60, 28	; 0x3c0
     c4c:	064a4603 	strbeq	r4, [sl], -r3, lsl #12
     c50:	06050530 			; <UNDEFINED> instruction: 0x06050530
     c54:	052e2e01 	streq	r2, [lr, #-3585]!	; 0xfffff1ff
     c58:	064b0602 	strbeq	r0, [fp], -r2, lsl #12
     c5c:	060e0501 	streq	r0, [lr], -r1, lsl #10
     c60:	14020516 	strne	r0, [r2], #-1302	; 0xfffffaea
     c64:	05151513 	ldreq	r1, [r5, #-1299]	; 0xfffffaed
     c68:	0205010b 	andeq	r0, r5, #-1073741822	; 0xc0000002
     c6c:	30062e06 	andcc	r2, r6, r6, lsl #28
     c70:	01060905 	tsteq	r6, r5, lsl #18
     c74:	4c060205 	sfmmi	f0, 4, [r6], {5}
     c78:	01050106 	tsteq	r5, r6, lsl #2
     c7c:	05013803 	streq	r3, [r1, #-2051]	; 0xfffff7fd
     c80:	4a6e0306 	bmi	1b818a0 <__bss_end__+0x1b774d8>
     c84:	46030205 	strmi	r0, [r3], -r5, lsl #4
     c88:	052e4a66 	streq	r4, [lr, #-2662]!	; 0xfffff59a
     c8c:	c8030604 	stmdagt	r3, {r2, r9, sl}
     c90:	01010100 	mrseq	r0, (UNDEF: 17)
     c94:	822e0601 	eorhi	r0, lr, #1048576	; 0x100000
     c98:	72034a06 	andvc	r4, r3, #24576	; 0x6000
     c9c:	0609052e 	streq	r0, [r9], -lr, lsr #10
     ca0:	06040501 	streq	r0, [r4], -r1, lsl #10
     ca4:	010d032f 	tsteq	sp, pc, lsr #6
     ca8:	15020501 	strne	r0, [r2, #-1281]	; 0xfffffaff
     cac:	b2030e05 	andlt	r0, r3, #80	; 0x50
     cb0:	0205017f 	andeq	r0, r5, #-1073741793	; 0xc000001f
     cb4:	08051413 	stmdaeq	r5, {r0, r1, r4, sl, ip}
     cb8:	06090501 	streq	r0, [r9], -r1, lsl #10
     cbc:	05011b03 	streq	r1, [r1, #-2819]	; 0xfffff4fd
     cc0:	2e630306 	cdpcs	3, 6, cr0, cr3, cr6, {0}
     cc4:	2e2e3c03 	cdpcs	12, 2, cr3, cr14, cr3, {0}
     cc8:	0648052e 	strbeq	r0, [r8], -lr, lsr #10
     ccc:	087fb403 	ldmdaeq	pc!, {r0, r1, sl, ip, sp, pc}^	; <UNPREDICTABLE>
     cd0:	1305053c 	movwne	r0, #21820	; 0x553c
     cd4:	002e0601 	eoreq	r0, lr, r1, lsl #12
     cd8:	06020402 	streq	r0, [r2], -r2, lsl #8
     cdc:	0402002e 	streq	r0, [r2], #-46	; 0xffffffd2
     ce0:	02000102 	andeq	r0, r0, #-2147483648	; 0x80000000
     ce4:	05130204 	ldreq	r0, [r3, #-516]	; 0xfffffdfc
     ce8:	04020011 	streq	r0, [r2], #-17	; 0xffffffef
     cec:	05010602 	streq	r0, [r1, #-1538]	; 0xfffff9fe
     cf0:	04020007 	streq	r0, [r2], #-7
     cf4:	11052f02 	tstne	r5, r2, lsl #30
     cf8:	02040200 	andeq	r0, r4, #0, 4
     cfc:	0005052d 	andeq	r0, r5, sp, lsr #10
     d00:	06020402 	streq	r0, [r2], -r2, lsl #8
     d04:	0009052f 	andeq	r0, r9, pc, lsr #10
     d08:	13020402 	movwne	r0, #9218	; 0x2402
     d0c:	02000e05 	andeq	r0, r0, #80	; 0x50
     d10:	01060204 	tsteq	r6, r4, lsl #4
     d14:	02000505 	andeq	r0, r0, #20971520	; 0x1400000
     d18:	63060104 	movwvs	r0, #24836	; 0x6104
     d1c:	01040200 	mrseq	r0, R12_usr
     d20:	00480501 	subeq	r0, r8, r1, lsl #10
     d24:	06010402 	streq	r0, [r1], -r2, lsl #8
     d28:	00050511 	andeq	r0, r5, r1, lsl r5
     d2c:	2f010402 	svccs	0x00010402
     d30:	02004805 	andeq	r4, r0, #327680	; 0x50000
     d34:	052d0104 	streq	r0, [sp, #-260]!	; 0xfffffefc
     d38:	04020005 	streq	r0, [r2], #-5
     d3c:	02002f01 	andeq	r2, r0, #1, 30
     d40:	004a0104 	subeq	r0, sl, r4, lsl #2
     d44:	4a010402 	bmi	41d54 <__bss_end__+0x3798c>
     d48:	01040200 	mrseq	r0, R12_usr
     d4c:	40054a06 	andmi	r4, r5, r6, lsl #20
     d50:	d600e103 	strle	lr, [r0], -r3, lsl #2
     d54:	09050106 	stmdbeq	r5, {r1, r2, r8}
     d58:	08052e4e 	stmdaeq	r5, {r1, r2, r3, r6, r9, sl, fp, sp}
     d5c:	291e0530 	ldmdbcs	lr, {r4, r5, r8, sl}
     d60:	052e1205 	streq	r1, [lr, #-517]!	; 0xfffffdfb
     d64:	0205330d 	andeq	r3, r5, #872415232	; 0x34000000
     d68:	05054506 	streq	r4, [r5, #-1286]	; 0xfffffafa
     d6c:	14020513 	strne	r0, [r2], #-1299	; 0xfffffaed
     d70:	05130505 	ldreq	r0, [r3, #-1285]	; 0xfffffafb
     d74:	08051302 	stmdaeq	r5, {r1, r8, r9, ip}
     d78:	06400501 	strbeq	r0, [r0], -r1, lsl #10
     d7c:	2e017a03 	vmlacs.f32	s14, s2, s6
     d80:	66340d05 	ldrtvs	r0, [r4], -r5, lsl #26
     d84:	20031105 	andcs	r1, r3, r5, lsl #2
     d88:	04054a4a 	streq	r4, [r5], #-2634	; 0xfffff5b6
     d8c:	01620306 	cmneq	r2, r6, lsl #6
     d90:	01060905 	tsteq	r6, r5, lsl #18
     d94:	052e0f05 	streq	r0, [lr, #-3845]!	; 0xfffff0fb
     d98:	052c0608 	streq	r0, [ip, #-1544]!	; 0xfffff9f8
     d9c:	052e060d 	streq	r0, [lr, #-1549]!	; 0xfffff9f3
     da0:	05670603 	strbeq	r0, [r7, #-1539]!	; 0xfffff9fd
     da4:	05010605 	streq	r0, [r1, #-1541]	; 0xfffff9fb
     da8:	054d0608 	strbeq	r0, [sp, #-1544]	; 0xfffff9f8
     dac:	0501060e 	streq	r0, [r1, #-1550]	; 0xfffff9f2
     db0:	09052e0a 	stmdbeq	r5, {r1, r3, r9, sl, fp, sp}
     db4:	0604052f 	streq	r0, [r4], -pc, lsr #10
     db8:	0607052f 	streq	r0, [r7], -pc, lsr #10
     dbc:	2c0a0501 	cfstr32cs	mvfx0, [sl], {1}
     dc0:	32060405 	andcc	r0, r6, #83886080	; 0x5000000
     dc4:	03062d05 	movweq	r2, #27909	; 0x6d05
     dc8:	05017f98 	streq	r7, [r1, #-3992]	; 0xfffff068
     dcc:	00ed0309 	rsceq	r0, sp, r9, lsl #6
     dd0:	2c0d052e 	cfstr32cs	mvfx0, [sp], {46}	; 0x2e
     dd4:	052b0705 	streq	r0, [fp, #-1797]!	; 0xfffff8fb
     dd8:	13300604 	teqne	r0, #4, 12	; 0x400000
     ddc:	01090514 	tsteq	r9, r4, lsl r5
     de0:	93030c05 	movwls	r0, #15365	; 0x3c05
     de4:	1d05017f 	stfnes	f0, [r5, #-508]	; 0xfffffe04
     de8:	05010601 	streq	r0, [r1, #-1537]	; 0xfffff9ff
     dec:	00ed0309 	rsceq	r0, sp, r9, lsl #6
     df0:	06050501 	streq	r0, [r5], -r1, lsl #10
     df4:	0612052f 	ldreq	r0, [r2], -pc, lsr #10
     df8:	052d2e01 	streq	r2, [sp, #-3585]!	; 0xfffff1ff
     dfc:	05052f0b 	streq	r2, [r5, #-3851]	; 0xfffff0f5
     e00:	09052f06 	stmdbeq	r5, {r1, r2, r8, r9, sl, fp, sp}
     e04:	030c0510 	movweq	r0, #50448	; 0xc510
     e08:	05017f93 	streq	r7, [r1, #-3987]	; 0xfffff06d
     e0c:	2d05011d 	stfcss	f0, [r5, #-116]	; 0xffffff8c
     e10:	09050106 	stmdbeq	r5, {r1, r2, r8}
     e14:	2e00ed03 	cdpcs	13, 0, cr14, cr0, cr3, {0}
     e18:	4e060405 	cdpmi	4, 0, cr0, cr6, cr5, {0}
     e1c:	04020001 	streq	r0, [r2], #-1
     e20:	02004a02 	andeq	r4, r0, #8192	; 0x2000
     e24:	00010204 	andeq	r0, r1, r4, lsl #4
     e28:	15020402 	strne	r0, [r2, #-1026]	; 0xfffffbfe
     e2c:	02040200 	andeq	r0, r4, #0, 4
     e30:	12360206 	eorsne	r0, r6, #1610612736	; 0x60000000
     e34:	02040200 	andeq	r0, r4, #0, 4
     e38:	0602052e 	streq	r0, [r2], -lr, lsr #10
     e3c:	0100d103 	tsteq	r0, r3, lsl #2
     e40:	01060705 	tsteq	r6, r5, lsl #14
     e44:	0602052e 	streq	r0, [r2], -lr, lsr #10
     e48:	060b052f 	streq	r0, [fp], -pc, lsr #10
     e4c:	2f010501 	svccs	0x00010501
     e50:	03060505 	movweq	r0, #25861	; 0x6505
     e54:	09054a65 	stmdbeq	r5, {r0, r2, r5, r6, r9, fp, lr}
     e58:	05660106 	strbeq	r0, [r6, #-262]!	; 0xfffffefa
     e5c:	059f0605 	ldreq	r0, [pc, #1541]	; 1469 <__code_start__-0x6b97>
     e60:	01110304 	tsteq	r1, r4, lsl #6
     e64:	01060705 	tsteq	r6, r5, lsl #14
     e68:	31060405 	tstcc	r6, r5, lsl #8
     e6c:	05010a05 	streq	r0, [r1, #-2565]	; 0xfffff5fb
     e70:	04020013 	streq	r0, [r2], #-19	; 0xffffffed
     e74:	052e0601 	streq	r0, [lr, #-1537]!	; 0xfffff9ff
     e78:	04020010 	streq	r0, [r2], #-16
     e7c:	05052e01 	streq	r2, [r5, #-3585]	; 0xfffff1ff
     e80:	0a054b06 	beq	153aa0 <__bss_end__+0x1496d8>
     e84:	2d060106 	stfcss	f0, [r6, #-24]	; 0xffffffe8
     e88:	01060405 	tsteq	r6, r5, lsl #8
     e8c:	03061105 	movweq	r1, #24837	; 0x6105
     e90:	13667fb6 	cmnne	r6, #728	; 0x2d8
     e94:	04020001 	streq	r0, [r2], #-1
     e98:	06ba0602 	ldrteq	r0, [sl], r2, lsl #12
     e9c:	051401ba 	ldreq	r0, [r4, #-442]	; 0xfffffe46
     ea0:	2e13061a 	mrccs	6, 0, r0, cr3, cr10, {0}
     ea4:	4e11052e 	cfmul64mi	mvdx0, mvdx1, mvdx14
     ea8:	68140567 	ldmdavs	r4, {r0, r1, r2, r5, r6, r8, sl}
     eac:	05821305 	streq	r1, [r2, #773]	; 0x305
     eb0:	4a780315 	bmi	1e01b0c <__bss_end__+0x1df7744>
     eb4:	4b061105 	blmi	1852d0 <__bss_end__+0x17af08>
     eb8:	13141313 	tstne	r4, #1275068416	; 0x4c000000
     ebc:	06130514 			; <UNDEFINED> instruction: 0x06130514
     ec0:	06090501 	streq	r0, [r9], -r1, lsl #10
     ec4:	060d052f 	streq	r0, [sp], -pc, lsr #10
     ec8:	052e2e01 	streq	r2, [lr, #-3585]!	; 0xfffff1ff
     ecc:	0d05bb09 	vstreq	d11, [r5, #-36]	; 0xffffffdc
     ed0:	0609059d 			; <UNDEFINED> instruction: 0x0609059d
     ed4:	2f15052f 	svccs	0x0015052f
     ed8:	4a750306 	bmi	1d41af8 <__bss_end__+0x1d37730>
     edc:	4a2e0b03 	bmi	b83af0 <__bss_end__+0xb79728>
     ee0:	03060505 	movweq	r0, #25861	; 0x6505
     ee4:	09050123 	stmdbeq	r5, {r0, r1, r5, r8}
     ee8:	052e0106 	streq	r0, [lr, #-262]!	; 0xfffffefa
     eec:	03d70605 	bicseq	r0, r7, #5242880	; 0x500000
     ef0:	0e032e6e 	cdpeq	14, 0, cr2, cr3, cr14, {3}
     ef4:	06090501 	streq	r0, [r9], -r1, lsl #10
     ef8:	06050501 	streq	r0, [r5], -r1, lsl #10
     efc:	054a1003 	strbeq	r1, [sl, #-3]
     f00:	7eed0301 	cdpvc	3, 14, cr0, cr13, cr1, {0}
     f04:	14020501 	strne	r0, [r2], #-1281	; 0xfffffaff
     f08:	05141315 	ldreq	r1, [r4, #-789]	; 0xfffffceb
     f0c:	011a0304 	tsteq	sl, r4, lsl #6
     f10:	01060905 	tsteq	r6, r5, lsl #18
     f14:	46030205 	strmi	r0, [r3], -r5, lsl #4
     f18:	0309052e 	movweq	r0, #38190	; 0x952e
     f1c:	04052e3a 	streq	r2, [r5], #-3642	; 0xfffff1c6
     f20:	0d032f06 	stceq	15, cr2, [r3, #-24]	; 0xffffffe8
     f24:	02050101 	andeq	r0, r5, #1073741824	; 0x40000000
     f28:	030e0515 	movweq	r0, #58645	; 0xe515
     f2c:	05017fb2 	streq	r7, [r1, #-4018]	; 0xfffff04e
     f30:	05141302 	ldreq	r1, [r4, #-770]	; 0xfffffcfe
     f34:	02050108 	andeq	r0, r5, #2
     f38:	08050106 	stmdaeq	r5, {r1, r2, r8}
     f3c:	0603059f 			; <UNDEFINED> instruction: 0x0603059f
     f40:	0501064a 	streq	r0, [r1, #-1610]	; 0xfffff9b6
     f44:	15052e08 	strne	r2, [r5, #-3592]	; 0xfffff1f8
     f48:	08052d06 	stmdaeq	r5, {r1, r2, r8, sl, fp, sp}
     f4c:	2f030501 	svccs	0x00030501
     f50:	08050106 	stmdaeq	r5, {r1, r2, r8}
     f54:	0615052e 	ldreq	r0, [r5], -lr, lsr #10
     f58:	0108052d 	tsteq	r8, sp, lsr #10
     f5c:	062f0305 	strteq	r0, [pc], -r5, lsl #6
     f60:	2e080501 	cfsh32cs	mvfx0, mvfx8, #1
     f64:	2d061505 	cfstr32cs	mvfx1, [r6, #-20]	; 0xffffffec
     f68:	05010805 	streq	r0, [r1, #-2053]	; 0xfffff7fb
     f6c:	01062f03 	tsteq	r6, r3, lsl #30
     f70:	052e0805 	streq	r0, [lr, #-2053]!	; 0xfffff7fb
     f74:	052d0615 	streq	r0, [sp, #-1557]!	; 0xfffff9eb
     f78:	03050108 	movweq	r0, #20744	; 0x5108
     f7c:	0501062f 	streq	r0, [r1, #-1583]	; 0xfffff9d1
     f80:	15052e08 	strne	r2, [r5, #-3592]	; 0xfffff1f8
     f84:	08052d06 	stmdaeq	r5, {r1, r2, r8, sl, fp, sp}
     f88:	2f030501 	svccs	0x00030501
     f8c:	08050106 	stmdaeq	r5, {r1, r2, r8}
     f90:	0615052e 	ldreq	r0, [r5], -lr, lsr #10
     f94:	0108052d 	tsteq	r8, sp, lsr #10
     f98:	05130305 	ldreq	r0, [r3, #-773]	; 0xfffffcfb
     f9c:	05010608 	streq	r0, [r1, #-1544]	; 0xfffff9f8
     fa0:	052d0615 	streq	r0, [sp, #-1557]!	; 0xfffff9eb
     fa4:	66060108 	strvs	r0, [r6], -r8, lsl #2
     fa8:	67060305 	strvs	r0, [r6, -r5, lsl #6]
     fac:	01060805 	tsteq	r6, r5, lsl #16
     fb0:	052d1805 	streq	r1, [sp, #-2053]!	; 0xfffff7fb
     fb4:	08052e02 	stmdaeq	r5, {r1, r9, sl, fp, sp}
     fb8:	0615052f 	ldreq	r0, [r5], -pc, lsr #10
     fbc:	0108052d 	tsteq	r8, sp, lsr #10
     fc0:	01060205 	tsteq	r6, r5, lsl #4
     fc4:	2f060305 	svccs	0x00060305
     fc8:	11061805 	tstne	r6, r5, lsl #16
     fcc:	052e0205 	streq	r0, [lr, #-517]!	; 0xfffffdfb
     fd0:	15052f08 	strne	r2, [r5, #-3848]	; 0xfffff0f8
     fd4:	08052d06 	stmdaeq	r5, {r1, r2, r8, sl, fp, sp}
     fd8:	13030501 	movwne	r0, #13569	; 0x3501
     fdc:	01060805 	tsteq	r6, r5, lsl #16
     fe0:	2d061505 	cfstr32cs	mvfx1, [r6, #-20]	; 0xffffffec
     fe4:	05010805 	streq	r0, [r1, #-2053]	; 0xfffff7fb
     fe8:	4a140605 	bmi	502804 <__bss_end__+0x4f843c>
     fec:	2e060205 	cdpcs	2, 0, cr0, cr6, cr5, {0}
     ff0:	19060e05 	stmdbne	r6, {r0, r2, r9, sl, fp}
     ff4:	052f0405 	streq	r0, [pc, #-1029]!	; bf7 <__code_start__-0x7409>
     ff8:	09052f11 	stmdbeq	r5, {r0, r4, r8, r9, sl, fp, sp}
     ffc:	3302054a 	movwcc	r0, #9546	; 0x254a
    1000:	72030505 	andvc	r0, r3, #20971520	; 0x1400000
    1004:	0602052e 	streq	r0, [r2], -lr, lsr #10
    1008:	0501062f 	streq	r0, [r1, #-1583]	; 0xfffff9d1
    100c:	0516060e 	ldreq	r0, [r6, #-1550]	; 0xfffff9f2
    1010:	05131402 	ldreq	r1, [r3, #-1026]	; 0xfffffbfe
    1014:	02051303 	andeq	r1, r5, #201326592	; 0xc000000
    1018:	0b051514 	bleq	146470 <__bss_end__+0x13c0a8>
    101c:	06020501 	streq	r0, [r2], -r1, lsl #10
    1020:	05662e01 	strbeq	r2, [r6, #-3585]!	; 0xfffff1ff
    1024:	052f0603 	streq	r0, [pc, #-1539]!	; a29 <__code_start__-0x75d7>
    1028:	0501060a 	streq	r0, [r1, #-1546]	; 0xfffff9f6
    102c:	0a052d02 	beq	14c43c <__bss_end__+0x142074>
    1030:	0617052f 	ldreq	r0, [r7], -pc, lsr #10
    1034:	010b052d 	tsteq	fp, sp, lsr #10
    1038:	01060205 	tsteq	r6, r5, lsl #4
    103c:	05054a4a 	streq	r4, [r5, #-2634]	; 0xfffff5b6
    1040:	01950306 	orrseq	r0, r5, r6, lsl #6
    1044:	06110501 	ldreq	r0, [r1], -r1, lsl #10
    1048:	017ef803 	cmneq	lr, r3, lsl #16	; <UNPREDICTABLE>
    104c:	88031b05 	stmdahi	r3, {r0, r2, r8, r9, fp, ip}
    1050:	01054a01 	tsteq	r5, r1, lsl #20
    1054:	7ef30306 	cdpvc	3, 15, cr0, cr3, cr6, {0}
    1058:	1402052e 	strne	r0, [r2], #-1326	; 0xfffffad2
    105c:	05141315 	ldreq	r1, [r4, #-789]	; 0xfffffceb
    1060:	01220319 			; <UNDEFINED> instruction: 0x01220319
    1064:	05131a05 	ldreq	r1, [r3, #-2565]	; 0xfffff5fb
    1068:	05010628 	streq	r0, [r1, #-1576]	; 0xfffff9d8
    106c:	04052e1f 	streq	r2, [r5], #-3615	; 0xfffff1e1
    1070:	4a0e052f 	bmi	382534 <__bss_end__+0x37816c>
    1074:	052d1f05 	streq	r1, [sp, #-3845]!	; 0xfffff0fb
    1078:	052f060b 	streq	r0, [pc, #-1547]!	; a75 <__code_start__-0x758b>
    107c:	06010604 	streq	r0, [r1], -r4, lsl #12
    1080:	02050132 	andeq	r0, r5, #-2147483636	; 0x8000000c
    1084:	030e0515 	movweq	r0, #58645	; 0xe515
    1088:	05017fb2 	streq	r7, [r1, #-4018]	; 0xfffff04e
    108c:	06051302 	streq	r1, [r5], -r2, lsl #6
    1090:	02050106 	andeq	r0, r5, #-2147483647	; 0x80000001
    1094:	08053006 	stmdaeq	r5, {r1, r2, ip, sp}
    1098:	06020501 	streq	r0, [r2], -r1, lsl #10
    109c:	06030501 	streq	r0, [r3], -r1, lsl #10
    10a0:	08052108 	stmdaeq	r5, {r3, r8, sp}
    10a4:	15050106 	strne	r0, [r5, #-262]	; 0xfffffefa
    10a8:	08054906 	stmdaeq	r5, {r1, r2, r8, fp, lr}
    10ac:	d7030501 	strle	r0, [r3, -r1, lsl #10]
    10b0:	01060805 	tsteq	r6, r5, lsl #16
    10b4:	052d1805 	streq	r1, [sp, #-2053]!	; 0xfffff7fb
    10b8:	08052e02 	stmdaeq	r5, {r1, r9, sl, fp, sp}
    10bc:	0615052f 	ldreq	r0, [r5], -pc, lsr #10
    10c0:	0108052d 	tsteq	r8, sp, lsr #10
    10c4:	01060205 	tsteq	r6, r5, lsl #4
    10c8:	2f060305 	svccs	0x00060305
    10cc:	11061805 	tstne	r6, r5, lsl #16
    10d0:	052e0205 	streq	r0, [lr, #-517]!	; 0xfffffdfb
    10d4:	15052f08 	strne	r2, [r5, #-3848]	; 0xfffff0f8
    10d8:	08052d06 	stmdaeq	r5, {r1, r2, r8, sl, fp, sp}
    10dc:	13030501 	movwne	r0, #13569	; 0x3501
    10e0:	01060805 	tsteq	r6, r5, lsl #16
    10e4:	2d061505 	cfstr32cs	mvfx1, [r6, #-20]	; 0xffffffec
    10e8:	05010805 	streq	r0, [r1, #-2053]	; 0xfffff7fb
    10ec:	05140605 	ldreq	r0, [r4, #-1541]	; 0xfffff9fb
    10f0:	05660602 	strbeq	r0, [r6, #-1538]!	; 0xfffff9fe
    10f4:	051a0604 	ldreq	r0, [sl, #-1540]	; 0xfffff9fc
    10f8:	4a780305 	bmi	1e01d14 <__bss_end__+0x1df794c>
    10fc:	2f060205 	svccs	0x00060205
    1100:	0e050106 	adfeqs	f0, f5, f6
    1104:	02051606 	andeq	r1, r5, #6291456	; 0x600000
    1108:	04051314 	streq	r1, [r5], #-788	; 0xfffffcec
    110c:	03050106 	movweq	r0, #20742	; 0x5106
    1110:	11052f06 	tstne	r5, r6, lsl #30
    1114:	09050106 	stmdbeq	r5, {r1, r2, r8}
    1118:	0602052e 	streq	r0, [r2], -lr, lsr #10
    111c:	0b051530 	bleq	1465e4 <__bss_end__+0x13c21c>
    1120:	06020501 	streq	r0, [r2], -r1, lsl #10
    1124:	2e4a4a01 	vmlacs.f32	s9, s20, s2
    1128:	2f060305 	svccs	0x00060305
    112c:	01060a05 	tsteq	r6, r5, lsl #20
    1130:	052d0205 	streq	r0, [sp, #-517]!	; 0xfffffdfb
    1134:	17052f0a 	strne	r2, [r5, -sl, lsl #30]
    1138:	0b052d06 	bleq	14c558 <__bss_end__+0x142190>
    113c:	06020501 	streq	r0, [r2], -r1, lsl #10
    1140:	062e4a01 	strteq	r4, [lr], -r1, lsl #20
    1144:	06090514 			; <UNDEFINED> instruction: 0x06090514
    1148:	06020501 	streq	r0, [r2], -r1, lsl #10
    114c:	0501064c 	streq	r0, [r1, #-1612]	; 0xfffff9b4
    1150:	98030605 	stmdals	r3, {r0, r2, r9, sl}
    1154:	052a0101 	streq	r0, [sl, #-257]!	; 0xfffffeff
    1158:	05010607 	streq	r0, [r1, #-1543]	; 0xfffff9f9
    115c:	052f0605 	streq	r0, [pc, #-1541]!	; b5f <__code_start__-0x74a1>
    1160:	2e530318 	mrccs	3, 2, r0, cr3, cr8, {0}
    1164:	01061b05 	tsteq	r6, r5, lsl #22
    1168:	05821a05 	streq	r1, [r2, #2565]	; 0xa05
    116c:	054b0609 	strbeq	r0, [fp, #-1545]	; 0xfffff9f7
    1170:	2e01060d 	cfmadd32cs	mvax0, mvfx0, mvfx1, mvfx13
    1174:	05d70905 	ldrbeq	r0, [r7, #2309]	; 0x905
    1178:	09059d0d 	stmdbeq	r5, {r0, r2, r3, r8, sl, fp, ip, pc}
    117c:	15052f06 	strne	r2, [r5, #-3846]	; 0xfffff0fa
    1180:	06180530 			; <UNDEFINED> instruction: 0x06180530
    1184:	66170501 	ldrvs	r0, [r7], -r1, lsl #10
    1188:	052f1905 	streq	r1, [pc, #-2309]!	; 88b <__code_start__-0x7775>
    118c:	19054917 	stmdbne	r5, {r0, r1, r2, r4, r8, fp, lr}
    1190:	15052f06 	strne	r2, [r5, #-3846]	; 0xfffff0fa
    1194:	2e6f0306 	cdpcs	3, 6, cr0, cr15, cr6, {0}
    1198:	03061905 	movweq	r1, #26885	; 0x6905
    119c:	15054a13 	strne	r4, [r5, #-2579]	; 0xfffff5ed
    11a0:	2e6d0306 	cdpcs	3, 6, cr0, cr13, cr6, {0}
    11a4:	0302054a 	movweq	r0, #9546	; 0x254a
    11a8:	66017fa0 	strvs	r7, [r1], -r0, lsr #31
    11ac:	01720306 	cmneq	r2, r6, lsl #6
    11b0:	01060505 	tsteq	r6, r5, lsl #10
    11b4:	05360405 	ldreq	r0, [r6, #-1029]!	; 0xfffffbfb
    11b8:	2e780305 	cdpcs	3, 7, cr0, cr8, cr5, {0}
    11bc:	2f060205 	svccs	0x00060205
    11c0:	0e050106 	adfeqs	f0, f5, f6
    11c4:	02051606 	andeq	r1, r5, #6291456	; 0x600000
    11c8:	04051314 	streq	r1, [r5], #-788	; 0xfffffcec
    11cc:	054a0106 	strbeq	r0, [sl, #-262]	; 0xfffffefa
    11d0:	78030602 	stmdavc	r3, {r1, r9, sl}
    11d4:	06050501 	streq	r0, [r5], -r1, lsl #10
    11d8:	02054a01 	andeq	r4, r5, #4096	; 0x1000
    11dc:	01064b06 	tsteq	r6, r6, lsl #22
    11e0:	16060e05 	strne	r0, [r6], -r5, lsl #28
    11e4:	13140205 	tstne	r4, #1342177280	; 0x50000000
    11e8:	0b051515 	bleq	146644 <__bss_end__+0x13c27c>
    11ec:	052e0601 	streq	r0, [lr, #-1537]!	; 0xfffff9ff
    11f0:	9e030611 	mcrls	6, 0, r0, cr3, cr1, {0}
    11f4:	22050101 	andcs	r0, r5, #1073741824	; 0x40000000
    11f8:	05050106 	streq	r0, [r5, #-262]	; 0xfffffefa
    11fc:	2d22052f 	cfstr32cs	mvfx0, [r2, #-188]!	; 0xffffff44
    1200:	2f060505 	svccs	0x00060505
    1204:	054b1105 	strbeq	r1, [fp, #-261]	; 0xfffffefb
    1208:	9e018305 	cdpls	3, 0, cr8, cr1, cr5, {0}
    120c:	012e5c03 			; <UNDEFINED> instruction: 0x012e5c03
    1210:	0602059e 			; <UNDEFINED> instruction: 0x0602059e
    1214:	2e7ef303 	cdpcs	3, 7, cr15, cr14, cr3, {0}
    1218:	2c06052e 	cfstr32cs	mvfx0, [r6], {46}	; 0x2e
    121c:	030d054a 	movweq	r0, #54602	; 0xd54a
    1220:	050100d8 	streq	r0, [r1, #-216]	; 0xffffff28
    1224:	04020004 	streq	r0, [r2], #-4
    1228:	11030601 	tstne	r3, r1, lsl #12
    122c:	0402004a 	streq	r0, [r2], #-74	; 0xffffffb6
    1230:	11050101 	tstne	r5, r1, lsl #2
    1234:	9e065106 	adflss	f5, f6, f6
    1238:	17031505 	strne	r1, [r3, -r5, lsl #10]
    123c:	05ba012e 	ldreq	r0, [sl, #302]!	; 0x12e
    1240:	2e690311 	mcrcs	3, 3, r0, cr9, cr1, {0}
    1244:	00280201 	eoreq	r0, r8, r1, lsl #4
    1248:	00870101 	addeq	r0, r7, r1, lsl #2
    124c:	00030000 	andeq	r0, r3, r0
    1250:	00000064 	andeq	r0, r0, r4, rrx
    1254:	0efb0102 	cdpeq	1, 15, cr0, cr11, cr2, {0}
    1258:	0101000d 	tsteq	r1, sp
    125c:	00000101 	andeq	r0, r0, r1, lsl #2
    1260:	00000100 	andeq	r0, r0, r0, lsl #2
    1264:	732f2e01 			; <UNDEFINED> instruction: 0x732f2e01
    1268:	66666174 			; <UNDEFINED> instruction: 0x66666174
    126c:	6372732d 	cmnvs	r2, #-1275068416	; 0xb4000000
    1270:	73552f00 	cmpvc	r5, #0, 30
    1274:	2f737265 	svccs	0x00737265
    1278:	656c696d 	strbvs	r6, [ip, #-2413]!	; 0xfffff693
    127c:	6f532f73 	svcvs	0x00532f73
    1280:	65637275 	strbvs	r7, [r3, #-629]!	; 0xfffffd8b
    1284:	3273632f 	rsbscc	r6, r3, #-1140850688	; 0xbc000000
    1288:	786c3034 	stmdavc	ip!, {r2, r4, r5, ip, sp}^
    128c:	62696c2f 	rsbvs	r6, r9, #12032	; 0x2f00
    1290:	692f6970 	stmdbvs	pc!, {r4, r5, r6, r8, fp, sp, lr}	; <UNPREDICTABLE>
    1294:	756c636e 	strbvc	r6, [ip, #-878]!	; 0xfffffc92
    1298:	00006564 	andeq	r6, r0, r4, ror #10
    129c:	61656c63 	cmnvs	r5, r3, ror #24
    12a0:	65722d6e 	ldrbvs	r2, [r2, #-3438]!	; 0xfffff292
    12a4:	746f6f62 	strbtvc	r6, [pc], #-3938	; 12ac <__code_start__-0x6d54>
    12a8:	0100632e 	tsteq	r0, lr, lsr #6
    12ac:	70720000 	rsbsvc	r0, r2, r0
    12b0:	00682e69 	rsbeq	r2, r8, r9, ror #28
    12b4:	00000002 	andeq	r0, r0, r2
    12b8:	05001905 	streq	r1, [r0, #-2309]	; 0xfffff6fb
    12bc:	00900402 	addseq	r0, r0, r2, lsl #8
    12c0:	05051500 	streq	r1, [r5, #-1280]	; 0xfffffb00
    12c4:	06190513 			; <UNDEFINED> instruction: 0x06190513
    12c8:	2f05052d 	svccs	0x0005052d
    12cc:	4b2f6706 	blmi	bdaeec <__bss_end__+0xbd0b24>
    12d0:	01000602 	tsteq	r0, r2, lsl #12
    12d4:	00011201 	andeq	r1, r1, r1, lsl #4
    12d8:	5e000300 	cdppl	3, 0, cr0, cr0, cr0, {0}
    12dc:	02000000 	andeq	r0, r0, #0, 0
    12e0:	0d0efb01 	vstreq	d15, [lr, #-4]
    12e4:	01010100 	mrseq	r0, (UNDEF: 17)
    12e8:	00000001 	andeq	r0, r0, r1
    12ec:	01000001 	tsteq	r0, r1
    12f0:	74732f2e 	ldrbtvc	r2, [r3], #-3886	; 0xfffff0d2
    12f4:	2d666661 	stclcs	6, cr6, [r6, #-388]!	; 0xfffffe7c
    12f8:	00637273 	rsbeq	r7, r3, r3, ror r2
    12fc:	6573552f 	ldrbvs	r5, [r3, #-1327]!	; 0xfffffad1
    1300:	6d2f7372 	stcvs	3, cr7, [pc, #-456]!	; 1140 <__code_start__-0x6ec0>
    1304:	73656c69 	cmnvc	r5, #26880	; 0x6900
    1308:	756f532f 	strbvc	r5, [pc, #-815]!	; fe1 <__code_start__-0x701f>
    130c:	2f656372 	svccs	0x00656372
    1310:	34327363 	ldrtcc	r7, [r2], #-867	; 0xfffffc9d
    1314:	2f786c30 	svccs	0x00786c30
    1318:	7062696c 	rsbvc	r6, r2, ip, ror #18
    131c:	6e692f69 	cdpvs	15, 6, cr2, cr9, cr9, {3}
    1320:	64756c63 	ldrbtvs	r6, [r5], #-3171	; 0xfffff39d
    1324:	63000065 	movwvs	r0, #101	; 0x65
    1328:	72617473 	rsbvc	r7, r1, #1929379840	; 0x73000000
    132c:	00632e74 	rsbeq	r2, r3, r4, ror lr
    1330:	72000001 	andvc	r0, r0, #1, 0
    1334:	682e6970 	stmdavs	lr!, {r4, r5, r6, r8, fp, sp, lr}
    1338:	00000200 	andeq	r0, r0, r0, lsl #4
    133c:	00100500 	andseq	r0, r0, r0, lsl #10
    1340:	90300205 	eorsls	r0, r0, r5, lsl #4
    1344:	05150000 	ldreq	r0, [r5, #-0]
    1348:	02051305 	andeq	r1, r5, #335544320	; 0x14000000
    134c:	14050513 	strne	r0, [r5], #-1299	; 0xfffffaed
    1350:	0e061005 	cdpeq	0, 0, cr1, cr6, cr5, {0}
    1354:	06320505 	ldrteq	r0, [r2], -r5, lsl #10
    1358:	05141330 	ldreq	r1, [r4, #-816]	; 0xfffffcd0
    135c:	0905010a 	stmdbeq	r5, {r1, r3, r8}
    1360:	10059108 	andne	r9, r5, r8, lsl #2
    1364:	0a050106 	beq	141784 <__bss_end__+0x1373bc>
    1368:	6a10059a 	bvs	4029d8 <__bss_end__+0x3f8610>
    136c:	2d060a05 	vstrcs	s0, [r6, #-20]	; 0xffffffec
    1370:	052f0905 	streq	r0, [pc, #-2309]!	; a73 <__code_start__-0x758d>
    1374:	05010610 	streq	r0, [r1, #-1552]	; 0xfffff9f0
    1378:	052d060a 	streq	r0, [sp, #-1546]!	; 0xfffff9f6
    137c:	1005bb09 	andne	fp, r5, r9, lsl #22
    1380:	0a050106 	beq	1417a0 <__bss_end__+0x1373d8>
    1384:	09056506 	stmdbeq	r5, {r1, r2, r8, sl, sp, lr}
    1388:	060d054b 	streq	r0, [sp], -fp, asr #10
    138c:	2d0a0501 	cfstr32cs	mvfx0, [sl, #-4]
    1390:	052f1005 	streq	r1, [pc, #-5]!	; 1393 <__code_start__-0x6c6d>
    1394:	052d060a 	streq	r0, [sp, #-1546]!	; 0xfffff9f6
    1398:	0d052f09 	stceq	15, cr2, [r5, #-36]	; 0xffffffdc
    139c:	0a050106 	beq	1417bc <__bss_end__+0x1373f4>
    13a0:	2f10052d 	svccs	0x0010052d
    13a4:	2d060a05 	vstrcs	s0, [r6, #-20]	; 0xffffffec
    13a8:	052f0905 	streq	r0, [pc, #-2309]!	; aab <__code_start__-0x7555>
    13ac:	0501060d 	streq	r0, [r1, #-1549]	; 0xfffff9f3
    13b0:	10052d0a 	andne	r2, r5, sl, lsl #26
    13b4:	060a052f 	streq	r0, [sl], -pc, lsr #10
    13b8:	2f09052d 	svccs	0x0009052d
    13bc:	01060d05 	tsteq	r6, r5, lsl #26
    13c0:	052d0a05 	streq	r0, [sp, #-2565]!	; 0xfffff5fb
    13c4:	0a052f10 	beq	14d00c <__bss_end__+0x142c44>
    13c8:	09052d06 	stmdbeq	r5, {r1, r2, r8, sl, fp, sp}
    13cc:	06100513 			; <UNDEFINED> instruction: 0x06100513
    13d0:	060a0501 	streq	r0, [sl], -r1, lsl #10
    13d4:	1505052d 	strne	r0, [r5, #-1325]	; 0xfffffad3
    13d8:	4a010132 	bmi	418a8 <__bss_end__+0x374e0>
    13dc:	2f020514 	svccs	0x00020514
    13e0:	03060a05 	movweq	r0, #27141	; 0x6a05
    13e4:	08022e73 	stmdaeq	r2, {r0, r1, r4, r5, r6, r9, sl, fp, sp}
    13e8:	7d010100 	stfvcs	f0, [r1, #-0]
    13ec:	03000000 	movweq	r0, #0
    13f0:	00006500 	andeq	r6, r0, r0, lsl #10
    13f4:	fb010200 	blx	41bfe <__bss_end__+0x37836>
    13f8:	01000d0e 	tsteq	r0, lr, lsl #26
    13fc:	00010101 	andeq	r0, r1, r1, lsl #2
    1400:	00010000 	andeq	r0, r1, r0
    1404:	2f2e0100 	svccs	0x002e0100
    1408:	66617473 			; <UNDEFINED> instruction: 0x66617473
    140c:	72732d66 	rsbsvc	r2, r3, #6528	; 0x1980
    1410:	552f0063 	strpl	r0, [pc, #-99]!	; 13b5 <__code_start__-0x6c4b>
    1414:	73726573 	cmnvc	r2, #482344960	; 0x1cc00000
    1418:	6c696d2f 	stclvs	13, cr6, [r9], #-188	; 0xffffff44
    141c:	532f7365 			; <UNDEFINED> instruction: 0x532f7365
    1420:	6372756f 	cmnvs	r2, #465567744	; 0x1bc00000
    1424:	73632f65 	cmnvc	r3, #404	; 0x194
    1428:	6c303432 	cfldrsvs	mvf3, [r0], #-200	; 0xffffff38
    142c:	696c2f78 	stmdbvs	ip!, {r3, r4, r5, r6, r8, r9, sl, fp, sp}^
    1430:	2f697062 	svccs	0x00697062
    1434:	6c636e69 	stclvs	14, cr6, [r3], #-420	; 0xfffffe5c
    1438:	00656475 	rsbeq	r6, r5, r5, ror r4
    143c:	73756300 	cmnvc	r5, #0, 6
    1440:	2d6d6f74 	stclcs	15, cr6, [sp, #-464]!	; 0xfffffe30
    1444:	64616f6c 	strbtvs	r6, [r1], #-3948	; 0xfffff094
    1448:	632e7265 			; <UNDEFINED> instruction: 0x632e7265
    144c:	00000100 	andeq	r0, r0, r0, lsl #2
    1450:	2e697072 	mcrcs	0, 3, r7, cr9, cr2, {3}
    1454:	00020068 	andeq	r0, r2, r8, rrx
    1458:	1a050000 	bne	141460 <__bss_end__+0x137098>
    145c:	28020500 	stmdacs	r2, {r8, sl}
    1460:	15000091 	strne	r0, [r0, #-145]	; 0xffffff6f
    1464:	02140105 	andseq	r0, r4, #1073741825	; 0x40000001
    1468:	01010002 	tsteq	r1, r2
    146c:	00000114 	andeq	r0, r0, r4, lsl r1
    1470:	005e0003 	subseq	r0, lr, r3
    1474:	01020000 	mrseq	r0, (UNDEF: 2)
    1478:	000d0efb 	strdeq	r0, [sp], -fp
    147c:	01010101 	tsteq	r1, r1, lsl #2
    1480:	01000000 	mrseq	r0, (UNDEF: 0)
    1484:	2e010000 	cdpcs	0, 0, cr0, cr1, cr0, {0}
    1488:	6174732f 	cmnvs	r4, pc, lsr #6
    148c:	732d6666 			; <UNDEFINED> instruction: 0x732d6666
    1490:	2f006372 	svccs	0x00006372
    1494:	72657355 	rsbvc	r7, r5, #1409286145	; 0x54000001
    1498:	696d2f73 	stmdbvs	sp!, {r0, r1, r4, r5, r6, r8, r9, sl, fp, sp}^
    149c:	2f73656c 	svccs	0x0073656c
    14a0:	72756f53 	rsbsvc	r6, r5, #332	; 0x14c
    14a4:	632f6563 			; <UNDEFINED> instruction: 0x632f6563
    14a8:	30343273 	eorscc	r3, r4, r3, ror r2
    14ac:	6c2f786c 	stcvs	8, cr7, [pc], #-432	; 1304 <__code_start__-0x6cfc>
    14b0:	69706269 	ldmdbvs	r0!, {r0, r3, r5, r6, r9, sp, lr}^
    14b4:	636e692f 	cmnvs	lr, #770048	; 0xbc000
    14b8:	6564756c 	strbvs	r7, [r4, #-1388]!	; 0xfffffa94
    14bc:	65720000 	ldrbvs	r0, [r2, #-0]!
    14c0:	746f6f62 	strbtvc	r6, [pc], #-3938	; 14c8 <__code_start__-0x6b38>
    14c4:	0100632e 	tsteq	r0, lr, lsr #6
    14c8:	70720000 	rsbsvc	r0, r2, r0
    14cc:	00682e69 	rsbeq	r2, r8, r9, ror #28
    14d0:	00000002 	andeq	r0, r0, r2
    14d4:	05001905 	streq	r1, [r0, #-2309]	; 0xfffff6fb
    14d8:	00912c02 	addseq	r2, r1, r2, lsl #24
    14dc:	010d0300 	mrseq	r0, SP_mon
    14e0:	13130505 	tstne	r3, #20971520	; 0x1400000
    14e4:	06130531 			; <UNDEFINED> instruction: 0x06130531
    14e8:	2f010501 	svccs	0x00010501
    14ec:	85061b05 	strhi	r1, [r6, #-2821]	; 0xfffff4fb
    14f0:	14130505 	ldrne	r0, [r3], #-1285	; 0xfffffafb
    14f4:	052f0905 	streq	r0, [pc, #-2309]!	; bf7 <__code_start__-0x7409>
    14f8:	05010616 	streq	r0, [r1, #-1558]	; 0xfffff9ea
    14fc:	052f0605 	streq	r0, [pc, #-1541]!	; eff <__code_start__-0x7101>
    1500:	0511060e 	ldreq	r0, [r1, #-1550]	; 0xfffff9f2
    1504:	01052f05 	tsteq	r5, r5, lsl #30
    1508:	0617052f 	ldreq	r0, [r7], -pc, lsr #10
    150c:	13050530 	movwne	r0, #21808	; 0x5530
    1510:	13016e03 	movwne	r6, #7683	; 0x1e03
    1514:	06170513 			; <UNDEFINED> instruction: 0x06170513
    1518:	05010f03 	streq	r0, [r1, #-3843]	; 0xfffff0fd
    151c:	2e710305 	cdpcs	3, 7, cr0, cr1, cr5, {0}
    1520:	13053106 	movwne	r3, #20742	; 0x5106
    1524:	07050106 	streq	r0, [r5, -r6, lsl #2]
    1528:	052e0d03 	streq	r0, [lr, #-3331]!	; 0xfffff2fd
    152c:	054b0609 	strbeq	r0, [fp, #-1545]	; 0xfffff9f7
    1530:	01760306 	cmneq	r6, r6, lsl #6
    1534:	14130505 	ldrne	r0, [r3], #-1285	; 0xfffffafb
    1538:	052f0905 	streq	r0, [pc, #-2309]!	; c3b <__code_start__-0x73c5>
    153c:	05010616 	streq	r0, [r1, #-1558]	; 0xfffff9ea
    1540:	052f0605 	streq	r0, [pc, #-1541]!	; f43 <__code_start__-0x70bd>
    1544:	0511060e 	ldreq	r0, [r1, #-1550]	; 0xfffff9f2
    1548:	062e2f05 	strteq	r2, [lr], -r5, lsl #30
    154c:	30010a03 	andcc	r0, r1, r3, lsl #20
    1550:	13134d2f 	tstne	r3, #3008	; 0xbc0
    1554:	00671513 	rsbeq	r1, r7, r3, lsl r5
    1558:	67010402 	strvs	r0, [r1, -r2, lsl #8]
    155c:	02000d05 	andeq	r0, r0, #320	; 0x140
    1560:	05010104 	streq	r0, [r1, #-260]	; 0xfffffefc
    1564:	0402000a 	streq	r0, [r2], #-10
    1568:	05050101 	streq	r0, [r5, #-257]	; 0xfffffeff
    156c:	01040200 	mrseq	r0, R12_usr
    1570:	000d0501 	andeq	r0, sp, r1, lsl #10
    1574:	01010402 	tsteq	r1, r2, lsl #8
    1578:	02000a05 	andeq	r0, r0, #20480	; 0x5000
    157c:	02010104 	andeq	r0, r1, #1
    1580:	0101000a 	tsteq	r1, sl
    1584:	000001fa 	strdeq	r0, [r0], -sl
    1588:	005d0003 	subseq	r0, sp, r3
    158c:	01020000 	mrseq	r0, (UNDEF: 2)
    1590:	000d0efb 	strdeq	r0, [sp], -fp
    1594:	01010101 	tsteq	r1, r1, lsl #2
    1598:	01000000 	mrseq	r0, (UNDEF: 0)
    159c:	2e010000 	cdpcs	0, 0, cr0, cr1, cr0, {0}
    15a0:	6174732f 	cmnvs	r4, pc, lsr #6
    15a4:	732d6666 			; <UNDEFINED> instruction: 0x732d6666
    15a8:	2f006372 	svccs	0x00006372
    15ac:	72657355 	rsbvc	r7, r5, #1409286145	; 0x54000001
    15b0:	696d2f73 	stmdbvs	sp!, {r0, r1, r4, r5, r6, r8, r9, sl, fp, sp}^
    15b4:	2f73656c 	svccs	0x0073656c
    15b8:	72756f53 	rsbsvc	r6, r5, #332	; 0x14c
    15bc:	632f6563 			; <UNDEFINED> instruction: 0x632f6563
    15c0:	30343273 	eorscc	r3, r4, r3, ror r2
    15c4:	6c2f786c 	stcvs	8, cr7, [pc], #-432	; 141c <__code_start__-0x6be4>
    15c8:	69706269 	ldmdbvs	r0!, {r0, r3, r5, r6, r9, sp, lr}^
    15cc:	636e692f 	cmnvs	lr, #770048	; 0xbc000
    15d0:	6564756c 	strbvs	r7, [r4, #-1388]!	; 0xfffffa94
    15d4:	69740000 	ldmdbvs	r4!, {}^	; <UNPREDICTABLE>
    15d8:	2e72656d 	cdpcs	5, 7, cr6, cr2, cr13, {3}
    15dc:	00010063 	andeq	r0, r1, r3, rrx
    15e0:	69707200 	ldmdbvs	r0!, {r9, ip, sp, lr}^
    15e4:	0200682e 	andeq	r6, r0, #3014656	; 0x2e0000
    15e8:	05000000 	streq	r0, [r0, #-0]
    15ec:	02050023 	andeq	r0, r5, #35, 0	; 0x23
    15f0:	000091b8 			; <UNDEFINED> instruction: 0x000091b8
    15f4:	13050515 	movwne	r0, #21781	; 0x5515
    15f8:	01060c05 	tsteq	r6, r5, lsl #24
    15fc:	6a061f05 	bvs	189218 <__bss_end__+0x17ee50>
    1600:	05150505 	ldreq	r0, [r5, #-1285]	; 0xfffffafb
    1604:	050f061f 	streq	r0, [pc, #-1567]	; fed <__code_start__-0x7013>
    1608:	2f063105 	svccs	0x00063105
    160c:	77030a05 	strvc	r0, [r3, -r5, lsl #20]
    1610:	13050501 	movwne	r0, #21761	; 0x5501
    1614:	01060c05 	tsteq	r6, r5, lsl #24
    1618:	06050566 	streq	r0, [r5], -r6, ror #10
    161c:	2f010903 	svccs	0x00010903
    1620:	13060105 	movwne	r0, #24837	; 0x6105
    1624:	68061c05 	stmdavs	r6, {r0, r2, sl, fp, ip}
    1628:	05130505 	ldreq	r0, [r3, #-1285]	; 0xfffffafb
    162c:	0176030a 	cmneq	r6, sl, lsl #6
    1630:	05150505 	ldreq	r0, [r5, #-1285]	; 0xfffffafb
    1634:	2e18061c 	mrccs	6, 0, r0, cr8, cr12, {0}
    1638:	7a030505 	bvc	c2a54 <__bss_end__+0xb868c>
    163c:	052f062e 	streq	r0, [pc, #-1582]!	; 1016 <__code_start__-0x6fea>
    1640:	0177030a 	cmneq	r7, sl, lsl #6
    1644:	05130505 	ldreq	r0, [r3, #-1285]	; 0xfffffafb
    1648:	6601060c 	strvs	r0, [r1], -ip, lsl #12
    164c:	03060505 	movweq	r0, #25861	; 0x6505
    1650:	062f0109 	strteq	r0, [pc], -r9, lsl #2
    1654:	030c0501 	movweq	r0, #50433	; 0xc501
    1658:	05050176 	streq	r0, [r5, #-374]	; 0xfffffe8a
    165c:	2e0f0306 	cdpcs	3, 0, cr0, cr15, cr6, {0}
    1660:	05130905 	ldreq	r0, [r3, #-2309]	; 0xfffff6fb
    1664:	0174030a 	cmneq	r4, sl, lsl #6
    1668:	2f150505 	svccs	0x00150505
    166c:	77030a05 	strvc	r0, [r3, -r5, lsl #20]
    1670:	13050501 	movwne	r0, #21761	; 0x5501
    1674:	01060c05 	tsteq	r6, r5, lsl #24
    1678:	06050566 	streq	r0, [r5], -r6, ror #10
    167c:	05010903 	streq	r0, [r1, #-2307]	; 0xfffff6fd
    1680:	051a0611 	ldreq	r0, [sl, #-1553]	; 0xfffff9ef
    1684:	2e780305 	cdpcs	3, 7, cr0, cr8, cr5, {0}
    1688:	09052f06 	stmdbeq	r5, {r1, r2, r8, r9, sl, fp, sp}
    168c:	060c0519 			; <UNDEFINED> instruction: 0x060c0519
    1690:	061c0501 	ldreq	r0, [ip], -r1, lsl #10
    1694:	13050587 	movwne	r0, #21895	; 0x5587
    1698:	11061c05 	tstne	r6, r5, lsl #24
    169c:	4a2f0505 	bmi	bc2ab8 <__bss_end__+0xbb86f0>
    16a0:	03060605 	movweq	r0, #26117	; 0x6605
    16a4:	05052e76 	streq	r2, [r5, #-3702]	; 0xfffff18a
    16a8:	030a0513 	movweq	r0, #42259	; 0xa513
    16ac:	05050176 	streq	r0, [r5, #-374]	; 0xfffffe8a
    16b0:	0a052f15 	beq	14d30c <__bss_end__+0x142f44>
    16b4:	05017703 	streq	r7, [r1, #-1795]	; 0xfffff8fd
    16b8:	0c051305 	stceq	3, cr1, [r5], {5}
    16bc:	05660106 	strbeq	r0, [r6, #-262]!	; 0xfffffefa
    16c0:	09030605 	stmdbeq	r3, {r0, r2, r9, sl}
    16c4:	01062f01 	tsteq	r6, r1, lsl #30
    16c8:	76030c05 	strvc	r0, [r3], -r5, lsl #24
    16cc:	06050501 	streq	r0, [r5], -r1, lsl #10
    16d0:	052e0f03 	streq	r0, [lr, #-3843]!	; 0xfffff0fd
    16d4:	0a051309 	beq	146300 <__bss_end__+0x13bf38>
    16d8:	05017403 	streq	r7, [r1, #-1027]	; 0xfffffbfd
    16dc:	052f1505 	streq	r1, [pc, #-1285]!	; 11df <__code_start__-0x6e21>
    16e0:	0177030a 	cmneq	r7, sl, lsl #6
    16e4:	05130505 	ldreq	r0, [r3, #-1285]	; 0xfffffafb
    16e8:	6601060c 	strvs	r0, [r1], -ip, lsl #12
    16ec:	03060505 	movweq	r0, #25861	; 0x6505
    16f0:	11050109 	tstne	r5, r9, lsl #2
    16f4:	05051a06 	streq	r1, [r5, #-2566]	; 0xfffff5fa
    16f8:	062e7803 	strteq	r7, [lr], -r3, lsl #16
    16fc:	1909052f 	stmdbne	r9, {r0, r1, r2, r3, r5, r8, sl}
    1700:	01060c05 	tsteq	r6, r5, lsl #24
    1704:	8a061e05 	bhi	188f20 <__bss_end__+0x17eb58>
    1708:	05130505 	ldreq	r0, [r3, #-1285]	; 0xfffffafb
    170c:	05050e06 	streq	r0, [r5, #-3590]	; 0xfffff1fa
    1710:	061e0513 			; <UNDEFINED> instruction: 0x061e0513
    1714:	2c050514 	cfstr32cs	mvfx0, [r5], {20}
    1718:	06060566 	streq	r0, [r6], -r6, ror #10
    171c:	052e7603 	streq	r7, [lr, #-1539]!	; 0xfffff9fd
    1720:	0a051305 	beq	14633c <__bss_end__+0x13bf74>
    1724:	05017603 	streq	r7, [r1, #-1539]	; 0xfffff9fd
    1728:	052f1505 	streq	r1, [pc, #-1285]!	; 122b <__code_start__-0x6dd5>
    172c:	0177030a 	cmneq	r7, sl, lsl #6
    1730:	05130505 	ldreq	r0, [r3, #-1285]	; 0xfffffafb
    1734:	6601060c 	strvs	r0, [r1], -ip, lsl #12
    1738:	03060505 	movweq	r0, #25861	; 0x6505
    173c:	062f0109 	strteq	r0, [pc], -r9, lsl #2
    1740:	030c0501 	movweq	r0, #50433	; 0xc501
    1744:	05050176 	streq	r0, [r5, #-374]	; 0xfffffe8a
    1748:	2e0f0306 	cdpcs	3, 0, cr0, cr15, cr6, {0}
    174c:	05130905 	ldreq	r0, [r3, #-2309]	; 0xfffff6fb
    1750:	0174030a 	cmneq	r4, sl, lsl #6
    1754:	2f150505 	svccs	0x00150505
    1758:	77030a05 	strvc	r0, [r3, -r5, lsl #20]
    175c:	13050501 	movwne	r0, #21761	; 0x5501
    1760:	01060c05 	tsteq	r6, r5, lsl #24
    1764:	06050566 	streq	r0, [r5], -r6, ror #10
    1768:	05010903 	streq	r0, [r1, #-2307]	; 0xfffff6fd
    176c:	051a0611 	ldreq	r0, [sl, #-1553]	; 0xfffff9ef
    1770:	2e780305 	cdpcs	3, 7, cr0, cr8, cr5, {0}
    1774:	09052f06 	stmdbeq	r5, {r1, r2, r8, r9, sl, fp, sp}
    1778:	060c0519 			; <UNDEFINED> instruction: 0x060c0519
    177c:	00080201 	andeq	r0, r8, r1, lsl #4
    1780:	02040101 	andeq	r0, r4, #1073741824	; 0x40000000
    1784:	00030000 	andeq	r0, r3, r0
    1788:	000000c8 	andeq	r0, r0, r8, asr #1
    178c:	0efb0102 	cdpeq	1, 15, cr0, cr11, cr2, {0}
    1790:	0101000d 	tsteq	r1, sp
    1794:	00000101 	andeq	r0, r0, r1, lsl #2
    1798:	00000100 	andeq	r0, r0, r0, lsl #2
    179c:	6f682f01 	svcvs	0x00682f01
    17a0:	652f656d 	strvs	r6, [pc, #-1389]!	; 123b <__code_start__-0x6dc5>
    17a4:	656c676e 	strbvs	r6, [ip, #-1902]!	; 0xfffff892
    17a8:	6c632f72 	stclvs	15, cr2, [r3], #-456	; 0xfffffe38
    17ac:	2f737361 	svccs	0x00737361
    17b0:	34317363 	ldrtcc	r7, [r1], #-867	; 0xfffffc9d
    17b4:	322d6530 	eorcc	r6, sp, #48, 10	; 0xc000000
    17b8:	6e697732 	mcrvs	7, 3, r7, cr9, cr2, {1}
    17bc:	696c2f2f 	stmdbvs	ip!, {r0, r1, r2, r3, r5, r8, r9, sl, fp, sp}^
    17c0:	2f697062 	svccs	0x00697062
    17c4:	6c636e69 	stclvs	14, cr6, [r3], #-420	; 0xfffffe5c
    17c8:	00656475 	rsbeq	r6, r5, r5, ror r4
    17cc:	7273752f 	rsbsvc	r7, r3, #197132288	; 0xbc00000
    17d0:	6168732f 	cmnvs	r8, pc, lsr #6
    17d4:	672f6572 			; <UNDEFINED> instruction: 0x672f6572
    17d8:	612d6363 			; <UNDEFINED> instruction: 0x612d6363
    17dc:	6e2d6d72 	mcrvs	13, 1, r6, cr13, cr2, {3}
    17e0:	2d656e6f 	stclcs	14, cr6, [r5, #-444]!	; 0xfffffe44
    17e4:	69626165 	stmdbvs	r2!, {r0, r2, r5, r6, r8, sp, lr}^
    17e8:	2e30312d 	rsfcssp	f3, f0, #5.0
    17ec:	30322d33 	eorscc	r2, r2, r3, lsr sp
    17f0:	312e3132 			; <UNDEFINED> instruction: 0x312e3132
    17f4:	696c2f30 	stmdbvs	ip!, {r4, r5, r8, r9, sl, fp, sp}^
    17f8:	63672f62 	cmnvs	r7, #392	; 0x188
    17fc:	72612f63 	rsbvc	r2, r1, #396	; 0x18c
    1800:	6f6e2d6d 	svcvs	0x006e2d6d
    1804:	652d656e 	strvs	r6, [sp, #-1390]!	; 0xfffffa92
    1808:	2f696261 	svccs	0x00696261
    180c:	332e3031 			; <UNDEFINED> instruction: 0x332e3031
    1810:	692f312e 	stmdbvs	pc!, {r1, r2, r3, r5, r8, ip, sp}	; <UNPREDICTABLE>
    1814:	756c636e 	strbvc	r6, [ip, #-878]!	; 0xfffffc92
    1818:	00006564 	andeq	r6, r0, r4, ror #10
    181c:	74726175 	ldrbtvc	r6, [r2], #-373	; 0xfffffe8b
    1820:	0000632e 	andeq	r6, r0, lr, lsr #6
    1824:	61750000 	cmnvs	r5, r0
    1828:	682e7472 	stmdavs	lr!, {r1, r4, r5, r6, sl, ip, sp, lr}
    182c:	00000100 	andeq	r0, r0, r0, lsl #2
    1830:	2e697072 	mcrcs	0, 3, r7, cr9, cr2, {3}
    1834:	00010068 	andeq	r0, r1, r8, rrx
    1838:	69706700 	ldmdbvs	r0!, {r8, r9, sl, sp, lr}^
    183c:	00682e6f 	rsbeq	r2, r8, pc, ror #28
    1840:	73000001 	movwvc	r0, #1
    1844:	6e696474 	mcrvs	4, 3, r6, cr9, cr4, {3}
    1848:	63672d74 	cmnvs	r7, #116, 26	; 0x1d00
    184c:	00682e63 	rsbeq	r2, r8, r3, ror #28
    1850:	00000002 	andeq	r0, r0, r2
    1854:	05003905 	streq	r3, [r0, #-2309]	; 0xfffff6fb
    1858:	0092d402 	addseq	sp, r2, r2, lsl #8
    185c:	01300300 	teqeq	r0, r0, lsl #6
    1860:	05050106 	streq	r0, [r5, #-262]	; 0xfffffefa
    1864:	11056706 	tstne	r5, r6, lsl #14
    1868:	05050106 	streq	r0, [r5, #-262]	; 0xfffffefa
    186c:	6701052e 	strvs	r0, [r1, -lr, lsr #10]
    1870:	29063805 	stmdbcs	r6, {r0, r2, fp, ip, sp}
    1874:	05050106 	streq	r0, [r5, #-262]	; 0xfffffefa
    1878:	11056706 	tstne	r5, r6, lsl #14
    187c:	05050106 	streq	r0, [r5, #-262]	; 0xfffffefa
    1880:	6701052e 	strvs	r0, [r1, -lr, lsr #10]
    1884:	03061605 	movweq	r1, #26117	; 0x6605
    1888:	05052e15 	streq	r2, [r5, #-3605]	; 0xfffff1eb
    188c:	35686735 	strbcc	r6, [r8, #-1845]!	; 0xfffff8cb
    1890:	2e0c0368 	cdpcs	3, 0, cr0, cr12, cr8, {3}
    1894:	69696b85 	stmdbvs	r9!, {r0, r2, r7, r8, r9, fp, sp, lr}^
    1898:	13660c03 	cmnne	r6, #768	; 0x300
    189c:	0105676b 	tsteq	r5, fp, ror #14
    18a0:	19052f06 	stmdbne	r5, {r1, r2, r8, r9, sl, fp, sp}
    18a4:	05250806 	streq	r0, [r5, #-2054]!	; 0xfffff7fa
    18a8:	0d053405 	cfstrseq	mvf3, [r5, #-20]	; 0xffffffec
    18ac:	01050106 	tsteq	r5, r6, lsl #2
    18b0:	0619054c 	ldreq	r0, [r9], -ip, asr #10
    18b4:	36050567 	strcc	r0, [r5], -r7, ror #10
    18b8:	01060d05 	tsteq	r6, r5, lsl #26
    18bc:	054a2805 	strbeq	r2, [sl, #-2053]	; 0xfffff7fb
    18c0:	15053001 	strne	r3, [r5, #-1]
    18c4:	05058706 	streq	r8, [r5, #-1798]	; 0xfffff8fa
    18c8:	09052f2f 	stmdbeq	r5, {r0, r1, r2, r3, r5, r8, r9, sl, fp, sp}
    18cc:	01040200 	mrseq	r0, R12_usr
    18d0:	000a0513 	andeq	r0, sl, r3, lsl r5
    18d4:	11010402 	tstne	r1, r2, lsl #8
    18d8:	02000c05 	andeq	r0, r0, #1280	; 0x500
    18dc:	01060104 	tsteq	r6, r4, lsl #2
    18e0:	02000a05 	andeq	r0, r0, #20480	; 0x5000
    18e4:	052e0104 	streq	r0, [lr, #-260]!	; 0xfffffefc
    18e8:	054c0605 	strbeq	r0, [ip, #-1541]	; 0xfffff9fb
    18ec:	0501060e 	streq	r0, [r1, #-1550]	; 0xfffff9f2
    18f0:	05054a09 	streq	r4, [r5, #-2569]	; 0xfffff5f7
    18f4:	052f2f06 	streq	r2, [pc, #-3846]!	; 9f6 <__code_start__-0x760a>
    18f8:	05130601 	ldreq	r0, [r3, #-1537]	; 0xfffff9ff
    18fc:	0667061c 			; <UNDEFINED> instruction: 0x0667061c
    1900:	06050501 	streq	r0, [r5], -r1, lsl #10
    1904:	09052f4b 	stmdbeq	r5, {r0, r1, r3, r6, r8, r9, sl, fp, sp}
    1908:	01040200 	mrseq	r0, R12_usr
    190c:	000a0513 	andeq	r0, sl, r3, lsl r5
    1910:	11010402 	tstne	r1, r2, lsl #8
    1914:	02000c05 	andeq	r0, r0, #1280	; 0x500
    1918:	01060104 	tsteq	r6, r4, lsl #2
    191c:	02000a05 	andeq	r0, r0, #20480	; 0x5000
    1920:	052e0104 	streq	r0, [lr, #-260]!	; 0xfffffefc
    1924:	674c0605 	strbvs	r0, [ip, -r5, lsl #12]
    1928:	2f060105 	svccs	0x00060105
    192c:	4c061905 			; <UNDEFINED> instruction: 0x4c061905
    1930:	052e1b05 	streq	r1, [lr, #-2821]!	; 0xfffff4fb
    1934:	31052e2a 	tstcc	r5, sl, lsr #28
    1938:	42050106 	andmi	r0, r5, #-2147483647	; 0x80000001
    193c:	061c052e 	ldreq	r0, [ip], -lr, lsr #10
    1940:	2f050531 	svccs	0x00050531
    1944:	052e0903 	streq	r0, [lr, #-2307]!	; 0xfffff6fd
    1948:	0501060e 	streq	r0, [r1, #-1550]	; 0xfffff9f2
    194c:	01054a21 	tsteq	r5, r1, lsr #20
    1950:	052e0a03 	streq	r0, [lr, #-2563]!	; 0xfffff5fd
    1954:	0568061a 	strbeq	r0, [r8, #-1562]!	; 0xfffff9e6
    1958:	04020009 	streq	r0, [r2], #-9
    195c:	0a053001 	beq	14d968 <__bss_end__+0x1435a0>
    1960:	01040200 	mrseq	r0, R12_usr
    1964:	000c0511 	andeq	r0, ip, r1, lsl r5
    1968:	06010402 	streq	r0, [r1], -r2, lsl #8
    196c:	000a0501 	andeq	r0, sl, r1, lsl #10
    1970:	2e010402 	cdpcs	4, 0, cr0, cr1, cr2, {0}
    1974:	03061905 	movweq	r1, #26885	; 0x6905
    1978:	05667ee8 	strbeq	r7, [r6, #-3816]!	; 0xfffff118
    197c:	2f2f2f05 	svccs	0x002f2f05
    1980:	06010567 	streq	r0, [r1], -r7, ror #10
    1984:	0004022f 	andeq	r0, r4, pc, lsr #4
    1988:	03920101 	orrseq	r0, r2, #1073741824	; 0x40000000
    198c:	00030000 	andeq	r0, r3, r0
    1990:	000000b7 	strheq	r0, [r0], -r7
    1994:	0efb0102 	cdpeq	1, 15, cr0, cr11, cr2, {0}
    1998:	0101000d 	tsteq	r1, sp
    199c:	00000101 	andeq	r0, r0, r1, lsl #2
    19a0:	00000100 	andeq	r0, r0, r0, lsl #2
    19a4:	6f682f01 	svcvs	0x00682f01
    19a8:	652f656d 	strvs	r6, [pc, #-1389]!	; 1443 <__code_start__-0x6bbd>
    19ac:	656c676e 	strbvs	r6, [ip, #-1902]!	; 0xfffff892
    19b0:	6c632f72 	stclvs	15, cr2, [r3], #-456	; 0xfffffe38
    19b4:	2f737361 	svccs	0x00737361
    19b8:	34317363 	ldrtcc	r7, [r1], #-867	; 0xfffffc9d
    19bc:	322d6530 	eorcc	r6, sp, #48, 10	; 0xc000000
    19c0:	6e697732 	mcrvs	7, 3, r7, cr9, cr2, {1}
    19c4:	696c2f2f 	stmdbvs	ip!, {r0, r1, r2, r3, r5, r8, r9, sl, fp, sp}^
    19c8:	2f697062 	svccs	0x00697062
    19cc:	6c636e69 	stclvs	14, cr6, [r3], #-420	; 0xfffffe5c
    19d0:	00656475 	rsbeq	r6, r5, r5, ror r4
    19d4:	7273752f 	rsbsvc	r7, r3, #197132288	; 0xbc00000
    19d8:	6168732f 	cmnvs	r8, pc, lsr #6
    19dc:	672f6572 			; <UNDEFINED> instruction: 0x672f6572
    19e0:	612d6363 			; <UNDEFINED> instruction: 0x612d6363
    19e4:	6e2d6d72 	mcrvs	13, 1, r6, cr13, cr2, {3}
    19e8:	2d656e6f 	stclcs	14, cr6, [r5, #-444]!	; 0xfffffe44
    19ec:	69626165 	stmdbvs	r2!, {r0, r2, r5, r6, r8, sp, lr}^
    19f0:	2e30312d 	rsfcssp	f3, f0, #5.0
    19f4:	30322d33 	eorscc	r2, r2, r3, lsr sp
    19f8:	312e3132 			; <UNDEFINED> instruction: 0x312e3132
    19fc:	696c2f30 	stmdbvs	ip!, {r4, r5, r8, r9, sl, fp, sp}^
    1a00:	63672f62 	cmnvs	r7, #392	; 0x188
    1a04:	72612f63 	rsbvc	r2, r1, #396	; 0x18c
    1a08:	6f6e2d6d 	svcvs	0x006e2d6d
    1a0c:	652d656e 	strvs	r6, [sp, #-1390]!	; 0xfffffa92
    1a10:	2f696261 	svccs	0x00696261
    1a14:	332e3031 			; <UNDEFINED> instruction: 0x332e3031
    1a18:	692f312e 	stmdbvs	pc!, {r1, r2, r3, r5, r8, ip, sp}	; <UNPREDICTABLE>
    1a1c:	756c636e 	strbvc	r6, [ip, #-878]!	; 0xfffffc92
    1a20:	00006564 	andeq	r6, r0, r4, ror #10
    1a24:	6c616d6b 	stclvs	13, cr6, [r1], #-428	; 0xfffffe54
    1a28:	2e636f6c 	cdpcs	15, 6, cr6, cr3, cr12, {3}
    1a2c:	00000063 	andeq	r0, r0, r3, rrx
    1a30:	69707200 	ldmdbvs	r0!, {r9, ip, sp, lr}^
    1a34:	0100682e 	tsteq	r0, lr, lsr #16
    1a38:	74730000 	ldrbtvc	r0, [r3], #-0
    1a3c:	746e6964 	strbtvc	r6, [lr], #-2404	; 0xfffff69c
    1a40:	6363672d 	cmnvs	r3, #11796480	; 0xb40000
    1a44:	0200682e 	andeq	r6, r0, #3014656	; 0x2e0000
    1a48:	05000000 	streq	r0, [r0, #-0]
    1a4c:	0205001e 	andeq	r0, r5, #30, 0
    1a50:	000094c4 	andeq	r9, r0, r4, asr #9
    1a54:	05012703 	streq	r2, [r1, #-1795]	; 0xfffff8fd
    1a58:	2d050120 	stfcss	f0, [r5, #-128]	; 0xffffff80
    1a5c:	20050106 	andcs	r0, r5, r6, lsl #2
    1a60:	22058306 	andcs	r8, r5, #402653184	; 0x18000000
    1a64:	06350501 	ldrteq	r0, [r5], -r1, lsl #10
    1a68:	061e0501 	ldreq	r0, [lr], -r1, lsl #10
    1a6c:	01200583 	smlawbeq	r0, r3, r5, r0
    1a70:	01062d05 	tsteq	r6, r5, lsl #26
    1a74:	85064205 	strhi	r4, [r6, #-517]	; 0xfffffdfb
    1a78:	05050106 	streq	r0, [r5, #-262]	; 0xfffffefa
    1a7c:	01144b06 	tsteq	r4, r6, lsl #22
    1a80:	02002e06 	andeq	r2, r0, #96	; 0x60
    1a84:	2e060204 	cdpcs	2, 0, cr0, cr6, cr4, {0}
    1a88:	02040200 	andeq	r0, r4, #0, 4
    1a8c:	04020001 	streq	r0, [r2], #-1
    1a90:	0d051502 	cfstr32eq	mvfx1, [r5, #-8]
    1a94:	02040200 	andeq	r0, r4, #0, 4
    1a98:	07050106 	streq	r0, [r5, -r6, lsl #2]
    1a9c:	02040200 	andeq	r0, r4, #0, 4
    1aa0:	0609054a 	streq	r0, [r9], -sl, asr #10
    1aa4:	1505054b 	strne	r0, [r5, #-1355]	; 0xfffffab5
    1aa8:	01061705 	tsteq	r6, r5, lsl #14
    1aac:	054a1005 	strbeq	r1, [sl, #-5]
    1ab0:	052f0605 	streq	r0, [pc, #-1541]!	; 14b3 <__code_start__-0x6b4d>
    1ab4:	0501061b 	streq	r0, [r1, #-1563]	; 0xfffff9e5
    1ab8:	01052e0e 	tsteq	r5, lr, lsl #28
    1abc:	0005052f 	andeq	r0, r5, pc, lsr #10
    1ac0:	06010402 	streq	r0, [r1], -r2, lsl #8
    1ac4:	004a7703 	subeq	r7, sl, r3, lsl #14
    1ac8:	01010402 	tsteq	r1, r2, lsl #8
    1acc:	01040200 	mrseq	r0, R12_usr
    1ad0:	02009e06 	andeq	r9, r0, #96	; 0x60
    1ad4:	002e0104 	eoreq	r0, lr, r4, lsl #2
    1ad8:	06010402 	streq	r0, [r1], -r2, lsl #8
    1adc:	3209052e 	andcc	r0, r9, #192937984	; 0xb800000
    1ae0:	2ed60601 	cdpcs	6, 13, cr0, cr6, cr1, {0}
    1ae4:	19052e06 	stmdbne	r5, {r1, r2, r9, sl, fp, sp}
    1ae8:	2f0505de 	svccs	0x000505de
    1aec:	06080514 			; <UNDEFINED> instruction: 0x06080514
    1af0:	4a070501 	bmi	1c2efc <__bss_end__+0x1b8b34>
    1af4:	4b060905 	blmi	183f10 <__bss_end__+0x179b48>
    1af8:	05130505 	ldreq	r0, [r3, #-1285]	; 0xfffffafb
    1afc:	0501060c 	streq	r0, [r1, #-1548]	; 0xfffff9f4
    1b00:	13670605 	cmnne	r7, #5242880	; 0x500000
    1b04:	67060105 	strvs	r0, [r6, -r5, lsl #2]
    1b08:	2a060905 	bcs	183f24 <__bss_end__+0x179b5c>
    1b0c:	28059e01 	stmdacs	r5, {r0, r9, sl, fp, ip, pc}
    1b10:	050106a5 	streq	r0, [r1, #-1701]	; 0xfffff95b
    1b14:	014b0605 	cmpeq	fp, r5, lsl #12
    1b18:	2e062e06 	cdpcs	14, 0, cr2, cr6, cr6, {0}
    1b1c:	18051301 	stmdane	r5, {r0, r8, r9, ip}
    1b20:	05014703 	streq	r4, [r1, #-1795]	; 0xfffff8fd
    1b24:	06011305 	streq	r1, [r1], -r5, lsl #6
    1b28:	150f0601 	strne	r0, [pc, #-1537]	; 152f <__code_start__-0x6ad1>
    1b2c:	0e051301 	cdpeq	3, 0, cr1, cr5, cr1, {0}
    1b30:	16050106 	strne	r0, [r5], -r6, lsl #2
    1b34:	05052e2e 	streq	r2, [r5, #-3630]	; 0xfffff1d2
    1b38:	01390306 	teqeq	r9, r6, lsl #6
    1b3c:	01060b05 	tsteq	r6, r5, lsl #22
    1b40:	4b060505 	blmi	182f5c <__bss_end__+0x178b94>
    1b44:	01060a05 	tsteq	r6, r5, lsl #20
    1b48:	4b060505 	blmi	182f64 <__bss_end__+0x178b9c>
    1b4c:	01060d05 	tsteq	r6, r5, lsl #26
    1b50:	052e0705 	streq	r0, [lr, #-1797]!	; 0xfffff8fb
    1b54:	05054d01 	streq	r4, [r5, #-3329]	; 0xfffff2ff
    1b58:	01040200 	mrseq	r0, R12_usr
    1b5c:	4a780306 	bmi	1e0277c <__bss_end__+0x1df83b4>
    1b60:	01040200 	mrseq	r0, R12_usr
    1b64:	04020001 	streq	r0, [r2], #-1
    1b68:	00ba0601 	adcseq	r0, sl, r1, lsl #12
    1b6c:	06010402 	streq	r0, [r1], -r2, lsl #8
    1b70:	3409052e 	strcc	r0, [r9], #-1326	; 0xfffffad2
    1b74:	66820601 	strvs	r0, [r2], r1, lsl #12
    1b78:	20052e06 	andcs	r2, r5, r6, lsl #28
    1b7c:	050106db 	streq	r0, [r1, #-1755]	; 0xfffff925
    1b80:	014b0605 	cmpeq	fp, r5, lsl #12
    1b84:	02040200 	andeq	r0, r4, #0, 4
    1b88:	0402004a 	streq	r0, [r2], #-74	; 0xffffffb6
    1b8c:	02000102 	andeq	r0, r0, #-2147483648	; 0x80000000
    1b90:	05130204 	ldreq	r0, [r3, #-516]	; 0xfffffdfc
    1b94:	04020012 	streq	r0, [r2], #-18	; 0xffffffee
    1b98:	00010602 	andeq	r0, r1, r2, lsl #12
    1b9c:	2e020402 	cdpcs	4, 0, cr0, cr2, cr2, {0}
    1ba0:	02040200 	andeq	r0, r4, #0, 4
    1ba4:	0005052e 	andeq	r0, r5, lr, lsr #10
    1ba8:	06020402 	streq	r0, [r2], -r2, lsl #8
    1bac:	0402002f 	streq	r0, [r2], #-47	; 0xffffffd1
    1bb0:	01056702 	tsteq	r5, r2, lsl #14
    1bb4:	02040200 	andeq	r0, r4, #0, 4
    1bb8:	05051306 	streq	r1, [r5, #-774]	; 0xfffffcfa
    1bbc:	01040200 	mrseq	r0, R12_usr
    1bc0:	02006206 	andeq	r6, r0, #1610612736	; 0x60000000
    1bc4:	00010104 	andeq	r0, r1, r4, lsl #2
    1bc8:	06010402 	streq	r0, [r1], -r2, lsl #8
    1bcc:	040200ba 	streq	r0, [r2], #-186	; 0xffffff46
    1bd0:	052e0601 	streq	r0, [lr, #-1537]!	; 0xfffff9ff
    1bd4:	9e0a033c 	mcrls	3, 0, r0, cr10, cr12, {1}
    1bd8:	05050106 	streq	r0, [r5, #-262]	; 0xfffffefa
    1bdc:	06014b06 	streq	r4, [r1], -r6, lsl #22
    1be0:	012e062e 			; <UNDEFINED> instruction: 0x012e062e
    1be4:	18050113 	stmdane	r5, {r0, r1, r4, r8}
    1be8:	017fad03 	cmneq	pc, r3, lsl #26
    1bec:	05130505 	ldreq	r0, [r3, #-1285]	; 0xfffffafb
    1bf0:	2e010611 	mcrcs	6, 0, r0, cr1, cr1, {0}
    1bf4:	d2030505 	andle	r0, r3, #20971520	; 0x1400000
    1bf8:	4a060100 	bmi	182000 <__bss_end__+0x177c38>
    1bfc:	03180513 	tsteq	r8, #79691776	; 0x4c00000
    1c00:	05017fa3 	streq	r7, [r1, #-4003]	; 0xfffff05d
    1c04:	16051305 	strne	r1, [r5], -r5, lsl #6
    1c08:	054a0106 	strbeq	r0, [sl, #-262]	; 0xfffffefa
    1c0c:	e1030605 	tst	r3, r5, lsl #12
    1c10:	12050100 	andne	r0, r5, #0
    1c14:	05050106 	streq	r0, [r5, #-262]	; 0xfffffefa
    1c18:	18054b06 	stmdane	r5, {r1, r2, r8, r9, fp, lr}
    1c1c:	017fa903 	cmneq	pc, r3, lsl #18
    1c20:	01130505 	tsteq	r3, r5, lsl #10
    1c24:	050e1805 	streq	r1, [lr, #-2053]	; 0xfffff7fb
    1c28:	11051305 	tstne	r5, r5, lsl #6
    1c2c:	052e0106 	streq	r0, [lr, #-262]!	; 0xfffffefa
    1c30:	4a061505 	bmi	18704c <__bss_end__+0x17cc84>
    1c34:	0e051301 	cdpeq	3, 0, cr1, cr5, cr1, {0}
    1c38:	052e0106 	streq	r0, [lr, #-262]!	; 0xfffffefa
    1c3c:	052e2e16 	streq	r2, [lr, #-3606]!	; 0xfffff1ea
    1c40:	d6030605 	strle	r0, [r3], -r5, lsl #12
    1c44:	05010100 	streq	r0, [r1, #-256]	; 0xffffff00
    1c48:	7f9f0318 	svcvc	0x009f0318
    1c4c:	13050501 	movwne	r0, #21761	; 0x5501
    1c50:	01061905 	tsteq	r6, r5, lsl #18
    1c54:	0305052e 	movweq	r0, #21806	; 0x552e
    1c58:	000100e0 	andeq	r0, r1, r0, ror #1
    1c5c:	06020402 	streq	r0, [r2], -r2, lsl #8
    1c60:	0402004a 	streq	r0, [r2], #-74	; 0xffffffb6
    1c64:	0a051402 	beq	146c74 <__bss_end__+0x13c8ac>
    1c68:	02040200 	andeq	r0, r4, #0, 4
    1c6c:	05050106 	streq	r0, [r5, #-262]	; 0xfffffefa
    1c70:	02040200 	andeq	r0, r4, #0, 4
    1c74:	0c054b06 			; <UNDEFINED> instruction: 0x0c054b06
    1c78:	02040200 	andeq	r0, r4, #0, 4
    1c7c:	01050106 	tsteq	r5, r6, lsl #2
    1c80:	02040200 	andeq	r0, r4, #0, 4
    1c84:	0005052f 	andeq	r0, r5, pc, lsr #10
    1c88:	06010402 	streq	r0, [r1], -r2, lsl #8
    1c8c:	004a7303 	subeq	r7, sl, r3, lsl #6
    1c90:	01010402 	tsteq	r1, r2, lsl #8
    1c94:	01040200 	mrseq	r0, R12_usr
    1c98:	02009e06 	andeq	r9, r0, #96	; 0x60
    1c9c:	002e0104 	eoreq	r0, lr, r4, lsl #2
    1ca0:	06010402 	streq	r0, [r1], -r2, lsl #8
    1ca4:	0402002e 	streq	r0, [r2], #-46	; 0xffffffd2
    1ca8:	02002f01 	andeq	r2, r0, #1, 30
    1cac:	002e0104 	eoreq	r0, lr, r4, lsl #2
    1cb0:	d6010402 	strle	r0, [r1], -r2, lsl #8
    1cb4:	2e7fb103 	expcse	f3, f3
    1cb8:	2e820601 	cdpcs	6, 8, cr0, cr2, cr1, {0}
    1cbc:	062e062e 	strteq	r0, [lr], -lr, lsr #12
    1cc0:	0402002e 	streq	r0, [r2], #-46	; 0xffffffd2
    1cc4:	d7030601 	strle	r0, [r3, -r1, lsl #12]
    1cc8:	02000100 	andeq	r0, r0, #0
    1ccc:	002e0104 	eoreq	r0, lr, r4, lsl #2
    1cd0:	d6010402 	strle	r0, [r1], -r2, lsl #8
    1cd4:	7b081505 	blvc	2070f0 <__bss_end__+0x1fcd28>
    1cd8:	05011705 	streq	r1, [r1, #-1797]	; 0xfffff8fb
    1cdc:	18053116 	stmdane	r5, {r1, r2, r4, r8, ip, sp}
    1ce0:	061d0501 	ldreq	r0, [sp], -r1, lsl #10
    1ce4:	662b0501 	strtvs	r0, [fp], -r1, lsl #10
    1ce8:	4d061905 	vstrmi.16	s2, [r6, #-10]	; <UNPREDICTABLE>
    1cec:	05130505 	ldreq	r0, [r3, #-1285]	; 0xfffffafb
    1cf0:	0501060c 	streq	r0, [r1, #-1548]	; 0xfffff9f4
    1cf4:	25054a07 	strcs	r4, [r5, #-2567]	; 0xfffff5f9
    1cf8:	01040200 	mrseq	r0, R12_usr
    1cfc:	001e054a 	andseq	r0, lr, sl, asr #10
    1d00:	4a010402 	bmi	42d10 <__bss_end__+0x38948>
    1d04:	4b060905 	blmi	184120 <__bss_end__+0x179d58>
    1d08:	05130505 	ldreq	r0, [r3, #-1285]	; 0xfffffafb
    1d0c:	0501060a 	streq	r0, [r1, #-1546]	; 0xfffff9f6
    1d10:	09056319 	stmdbeq	r5, {r0, r3, r4, r8, r9, sp, lr}
    1d14:	06014c06 	streq	r4, [r1], -r6, lsl #24
    1d18:	022e069e 	eoreq	r0, lr, #165675008	; 0x9e00000
    1d1c:	0101000a 	tsteq	r1, sl
    1d20:	00000289 	andeq	r0, r0, r9, lsl #5
    1d24:	00c90003 	sbceq	r0, r9, r3
    1d28:	01020000 	mrseq	r0, (UNDEF: 2)
    1d2c:	000d0efb 	strdeq	r0, [sp], -fp
    1d30:	01010101 	tsteq	r1, r1, lsl #2
    1d34:	01000000 	mrseq	r0, (UNDEF: 0)
    1d38:	2e010000 	cdpcs	0, 0, cr0, cr1, cr0, {0}
    1d3c:	6372732f 	cmnvs	r2, #-1140850688	; 0xbc000000
    1d40:	73552f00 	cmpvc	r5, #0, 30
    1d44:	2f737265 	svccs	0x00737265
    1d48:	656c696d 	strbvs	r6, [ip, #-2413]!	; 0xfffff693
    1d4c:	6f532f73 	svcvs	0x00532f73
    1d50:	65637275 	strbvs	r7, [r3, #-629]!	; 0xfffffd8b
    1d54:	3273632f 	rsbscc	r6, r3, #-1140850688	; 0xbc000000
    1d58:	786c3034 	stmdavc	ip!, {r2, r4, r5, ip, sp}^
    1d5c:	62696c2f 	rsbvs	r6, r9, #12032	; 0x2f00
    1d60:	692f6970 	stmdbvs	pc!, {r4, r5, r6, r8, fp, sp, lr}	; <UNPREDICTABLE>
    1d64:	756c636e 	strbvc	r6, [ip, #-878]!	; 0xfffffc92
    1d68:	2f006564 	svccs	0x00006564
    1d6c:	2f74706f 	svccs	0x0074706f
    1d70:	656d6f68 	strbvs	r6, [sp, #-3944]!	; 0xfffff098
    1d74:	77657262 	strbvc	r7, [r5, -r2, ror #4]!
    1d78:	6c65432f 	stclvs	3, cr4, [r5], #-188	; 0xffffff44
    1d7c:	2f72616c 	svccs	0x0072616c
    1d80:	2d6d7261 	sfmcs	f7, 2, [sp, #-388]!	; 0xfffffe7c
    1d84:	656e6f6e 	strbvs	r6, [lr, #-3950]!	; 0xfffff092
    1d88:	6261652d 	rsbvs	r6, r1, #188743680	; 0xb400000
    1d8c:	2f392d69 	svccs	0x00392d69
    1d90:	30322d39 	eorscc	r2, r2, r9, lsr sp
    1d94:	34713931 	ldrbtcc	r3, [r1], #-2353	; 0xfffff6cf
    1d98:	3173632d 	cmncc	r3, sp, lsr #6
    1d9c:	2f653730 	svccs	0x00653730
    1da0:	2f62696c 	svccs	0x0062696c
    1da4:	2f636367 	svccs	0x00636367
    1da8:	2d6d7261 	sfmcs	f7, 2, [sp, #-388]!	; 0xfffffe7c
    1dac:	656e6f6e 	strbvs	r6, [lr, #-3950]!	; 0xfffff092
    1db0:	6261652d 	rsbvs	r6, r1, #188743680	; 0xb400000
    1db4:	2e392f69 	cdpcs	15, 3, cr2, cr9, cr9, {3}
    1db8:	2f312e32 	svccs	0x00312e32
    1dbc:	6c636e69 	stclvs	14, cr6, [r3], #-420	; 0xfffffe5c
    1dc0:	00656475 	rsbeq	r6, r5, r5, ror r4
    1dc4:	69706700 	ldmdbvs	r0!, {r8, r9, sl, sp, lr}^
    1dc8:	00632e6f 	rsbeq	r2, r3, pc, ror #28
    1dcc:	72000001 	andvc	r0, r0, #1, 0
    1dd0:	682e6970 	stmdavs	lr!, {r4, r5, r6, r8, fp, sp, lr}
    1dd4:	00000200 	andeq	r0, r0, r0, lsl #4
    1dd8:	69647473 	stmdbvs	r4!, {r0, r1, r4, r5, r6, sl, ip, sp, lr}^
    1ddc:	672d746e 	strvs	r7, [sp, -lr, ror #8]!
    1de0:	682e6363 	stmdavs	lr!, {r0, r1, r5, r6, r8, r9, sp, lr}
    1de4:	00000300 	andeq	r0, r0, r0, lsl #6
    1de8:	6f697067 	svcvs	0x00697067
    1dec:	0200682e 	andeq	r6, r0, #3014656	; 0x2e0000
    1df0:	05000000 	streq	r0, [r0, #-0]
    1df4:	02050038 	andeq	r0, r5, #56, 0	; 0x38
    1df8:	00009874 	andeq	r9, r0, r4, ror r8
    1dfc:	05012703 	streq	r2, [r1, #-1795]	; 0xfffff8fd
    1e00:	07051305 	streq	r1, [r5, -r5, lsl #6]
    1e04:	06050106 	streq	r0, [r5], -r6, lsl #2
    1e08:	05054906 	streq	r4, [r5, #-2310]	; 0xfffff6fa
    1e0c:	06070515 			; <UNDEFINED> instruction: 0x06070515
    1e10:	2b380501 	blcs	e0321c <__bss_end__+0xdf8e54>
    1e14:	054d0705 	strbeq	r0, [sp, #-1797]	; 0xfffff8fb
    1e18:	05300605 	ldreq	r0, [r0, #-1541]!	; 0xfffff9fb
    1e1c:	05010618 	streq	r0, [r1, #-1560]	; 0xfffff9e8
    1e20:	0e05671c 	mcreq	7, 0, r6, cr5, cr12, {0}
    1e24:	2d18054a 	cfldr32cs	mvfx0, [r8, #-296]	; 0xfffffed8
    1e28:	2e4d1205 	cdpcs	2, 4, cr1, cr13, cr5, {0}
    1e2c:	2a0e052f 	bcs	3832f0 <__bss_end__+0x378f28>
    1e30:	2f060505 	svccs	0x00060505
    1e34:	07051314 	smladeq	r5, r4, r3, r1
    1e38:	05050106 	streq	r0, [r5, #-262]	; 0xfffffefa
    1e3c:	06132f06 	ldreq	r2, [r3], -r6, lsl #30
    1e40:	01052e2e 	tsteq	r5, lr, lsr #28
    1e44:	2d050513 	cfstr32cs	mvfx0, [r5, #-76]	; 0xffffffb4
    1e48:	0624052e 	strteq	r0, [r4], -lr, lsr #10
    1e4c:	d4020500 	strle	r0, [r2], #-1280	; 0xfffffb00
    1e50:	15000098 	strne	r0, [r0, #-152]	; 0xffffff68
    1e54:	05130505 	ldreq	r0, [r3, #-1285]	; 0xfffffafb
    1e58:	01710306 	cmneq	r1, r6, lsl #6
    1e5c:	05130505 	ldreq	r0, [r3, #-1285]	; 0xfffffafb
    1e60:	05010607 	streq	r0, [r1, #-1543]	; 0xfffff9f9
    1e64:	05490606 	strbeq	r0, [r9, #-1542]	; 0xfffff9fa
    1e68:	05141505 	ldreq	r1, [r4, #-1285]	; 0xfffffafb
    1e6c:	09030624 	stmdbeq	r3, {r2, r5, r9, sl}
    1e70:	03180501 	tsteq	r8, #4194304	; 0x400000
    1e74:	1c052e77 	stcne	14, cr2, [r5], {119}	; 0x77
    1e78:	4a0e0567 	bmi	38341c <__bss_end__+0x379054>
    1e7c:	052d1805 	streq	r1, [sp, #-2053]!	; 0xfffff7fb
    1e80:	2f2e4d12 	svccs	0x002e4d12
    1e84:	052f0f05 	streq	r0, [pc, #-3845]!	; f87 <__code_start__-0x7079>
    1e88:	0505290e 	streq	r2, [r5, #-2318]	; 0xfffff6f2
    1e8c:	13142f06 	tstne	r4, #6, 30
    1e90:	01060705 	tsteq	r6, r5, lsl #14
    1e94:	2f060505 	svccs	0x00060505
    1e98:	052e0613 	streq	r0, [lr, #-1555]!	; 0xfffff9ed
    1e9c:	05053301 	streq	r3, [r5, #-769]	; 0xfffffcff
    1ea0:	27052e29 	strcs	r2, [r5, -r9, lsr #28]
    1ea4:	02050006 	andeq	r0, r5, #6, 0
    1ea8:	0000992c 	andeq	r9, r0, ip, lsr #18
    1eac:	1305051a 	movwne	r0, #21786	; 0x551a
    1eb0:	11062705 	tstne	r6, r5, lsl #14
    1eb4:	052f1805 	streq	r1, [pc, #-2053]!	; 16b7 <__code_start__-0x6949>
    1eb8:	4a2e2e05 	bmi	b8d6d4 <__bss_end__+0xb8330c>
    1ebc:	00062805 	andeq	r2, r6, r5, lsl #16
    1ec0:	99440205 	stmdbls	r4, {r0, r2, r9}^
    1ec4:	05160000 	ldreq	r0, [r6, #-0]
    1ec8:	28051305 	stmdacs	r5, {r0, r2, r8, r9, ip}
    1ecc:	18051106 	stmdane	r5, {r1, r2, r8, ip}
    1ed0:	2e05052f 	cfsh32cs	mvfx0, mvfx5, #31
    1ed4:	23054a2e 	movwcs	r4, #23086	; 0x5a2e
    1ed8:	02050006 	andeq	r0, r5, #6, 0
    1edc:	0000995c 	andeq	r9, r0, ip, asr r9
    1ee0:	13050516 	movwne	r0, #21782	; 0x5516
    1ee4:	62030605 	andvs	r0, r3, #5242880	; 0x500000
    1ee8:	13050501 	movwne	r0, #21761	; 0x5501
    1eec:	01060705 	tsteq	r6, r5, lsl #14
    1ef0:	49060605 	stmdbmi	r6, {r0, r2, r9, sl}
    1ef4:	14150505 	ldrne	r0, [r5], #-1285	; 0xfffffafb
    1ef8:	06230513 			; <UNDEFINED> instruction: 0x06230513
    1efc:	05011703 	streq	r1, [r1, #-1795]	; 0xfffff8fd
    1f00:	2e690322 	cdpcs	3, 6, cr0, cr9, cr2, {1}
    1f04:	2e821c05 	cdpcs	12, 8, cr1, cr2, cr5, {0}
    1f08:	052e0e05 	streq	r0, [lr, #-3589]!	; 0xfffff1fb
    1f0c:	05300605 	ldreq	r0, [r0, #-1541]!	; 0xfffff9fb
    1f10:	4b010612 	blmi	43760 <__bss_end__+0x39398>
    1f14:	0605052d 	streq	r0, [r5], -sp, lsr #10
    1f18:	0513132f 	ldreq	r1, [r3, #-815]	; 0xfffffcd1
    1f1c:	7a030618 	bvc	c3784 <__bss_end__+0xb93bc>
    1f20:	4a0e0501 	bmi	38332c <__bss_end__+0x378f64>
    1f24:	2e340505 	cdpcs	5, 3, cr0, cr4, cr5, {0}
    1f28:	14030105 	strne	r0, [r3], #-261	; 0xfffffefb
    1f2c:	0305052e 	movweq	r0, #21806	; 0x552e
    1f30:	052e2e6c 	streq	r2, [lr, #-3692]!	; 0xfffff194
    1f34:	0500062b 	streq	r0, [r0, #-1579]	; 0xfffff9d5
    1f38:	0099b402 	addseq	fp, r9, r2, lsl #8
    1f3c:	01170300 	tsteq	r7, r0, lsl #6
    1f40:	05130505 	ldreq	r0, [r3, #-1285]	; 0xfffffafb
    1f44:	05010607 	streq	r0, [r1, #-1543]	; 0xfffff9f9
    1f48:	2e710318 	mrccs	3, 3, r0, cr1, cr8, {0}
    1f4c:	0e032b05 	vmlaeq.f64	d2, d3, d5
    1f50:	2f07052e 	svccs	0x0007052e
    1f54:	2f060905 	svccs	0x00060905
    1f58:	6f030d05 	svcvs	0x00030d05
    1f5c:	13050501 	movwne	r0, #21761	; 0x5501
    1f60:	2e2e2e06 	cdpcs	14, 2, cr2, cr14, cr6, {0}
    1f64:	03060905 	movweq	r0, #26885	; 0x6905
    1f68:	0d050112 	stfeqs	f0, [r5, #-72]	; 0xffffffb8
    1f6c:	05017203 	streq	r7, [r1, #-515]	; 0xfffffdfd
    1f70:	2e061305 	cdpcs	3, 0, cr1, cr6, cr5, {0}
    1f74:	061d052e 	ldreq	r0, [sp], -lr, lsr #10
    1f78:	05661003 	strbeq	r1, [r6, #-3]!
    1f7c:	1d051305 	stcne	3, cr1, [r5, #-20]	; 0xffffffec
    1f80:	052e1106 	streq	r1, [lr, #-262]!	; 0xfffffefa
    1f84:	13300605 	teqne	r0, #5242880	; 0x500000
    1f88:	10060e05 	andne	r0, r6, r5, lsl #28
    1f8c:	2e301705 	cdpcs	7, 3, cr1, cr0, cr5, {0}
    1f90:	30050204 	andcc	r0, r5, r4, lsl #4
    1f94:	00dd0306 	sbcseq	r0, sp, r6, lsl #6
    1f98:	0501042e 	streq	r0, [r1, #-1070]	; 0xfffffbd2
    1f9c:	a203060e 	andge	r0, r3, #14680064	; 0xe00000
    1fa0:	2305017f 	movwcs	r0, #20863	; 0x517f
    1fa4:	2f01052f 	svccs	0x0001052f
    1fa8:	01000602 	tsteq	r0, r2, lsl #12
    1fac:	00009e01 	andeq	r9, r0, r1, lsl #28
    1fb0:	5a000300 	bpl	2bb8 <__code_start__-0x5448>
    1fb4:	02000000 	andeq	r0, r0, #0, 0
    1fb8:	0d0efb01 	vstreq	d15, [lr, #-4]
    1fbc:	01010100 	mrseq	r0, (UNDEF: 17)
    1fc0:	00000001 	andeq	r0, r0, r1
    1fc4:	01000001 	tsteq	r0, r1
    1fc8:	696c2f2e 	stmdbvs	ip!, {r1, r2, r3, r5, r8, r9, sl, fp, sp}^
    1fcc:	2f006362 	svccs	0x00006362
    1fd0:	72657355 	rsbvc	r7, r5, #1409286145	; 0x54000001
    1fd4:	696d2f73 	stmdbvs	sp!, {r0, r1, r4, r5, r6, r8, r9, sl, fp, sp}^
    1fd8:	2f73656c 	svccs	0x0073656c
    1fdc:	72756f53 	rsbsvc	r6, r5, #332	; 0x14c
    1fe0:	632f6563 			; <UNDEFINED> instruction: 0x632f6563
    1fe4:	30343273 	eorscc	r3, r4, r3, ror r2
    1fe8:	6c2f786c 	stcvs	8, cr7, [pc], #-432	; 1e40 <__code_start__-0x61c0>
    1fec:	69706269 	ldmdbvs	r0!, {r0, r3, r5, r6, r9, sp, lr}^
    1ff0:	636e692f 	cmnvs	lr, #770048	; 0xbc000
    1ff4:	6564756c 	strbvs	r7, [r4, #-1388]!	; 0xfffffa94
    1ff8:	75700000 	ldrbvc	r0, [r0, #-0]!
    1ffc:	61686374 	smcvs	34356	; 0x8634
    2000:	00632e72 	rsbeq	r2, r3, r2, ror lr
    2004:	72000001 	andvc	r0, r0, #1, 0
    2008:	682e6970 	stmdavs	lr!, {r4, r5, r6, r8, fp, sp, lr}
    200c:	00000200 	andeq	r0, r0, r0, lsl #4
    2010:	00240500 	eoreq	r0, r4, r0, lsl #10
    2014:	9a0c0205 	bls	302830 <__bss_end__+0x2f8468>
    2018:	05140000 	ldreq	r0, [r4, #-0]
    201c:	24050126 	strcs	r0, [r5], #-294	; 0xfffffeda
    2020:	052e0106 	streq	r0, [lr, #-262]!	; 0xfffffefa
    2024:	34052e26 	strcc	r2, [r5], #-3622	; 0xfffff1da
    2028:	01052e06 	tsteq	r5, r6, lsl #28
    202c:	1b050106 	blne	14244c <__bss_end__+0x138084>
    2030:	05054f06 	streq	r4, [r5, #-3846]	; 0xfffff0fa
    2034:	06110513 			; <UNDEFINED> instruction: 0x06110513
    2038:	67010501 	strvs	r0, [r1, -r1, lsl #10]
    203c:	67062305 	strvs	r2, [r6, -r5, lsl #6]
    2040:	05130505 	ldreq	r0, [r3, #-1285]	; 0xfffffafb
    2044:	05010611 	streq	r0, [r1, #-1553]	; 0xfffff9ef
    2048:	04024b01 	streq	r4, [r2], #-2817	; 0xfffff4ff
    204c:	e2010100 	and	r0, r1, #0
    2050:	03000000 	movweq	r0, #0
    2054:	00005900 	andeq	r5, r0, r0, lsl #18
    2058:	fb010200 	blx	42862 <__bss_end__+0x3849a>
    205c:	01000d0e 	tsteq	r0, lr, lsl #26
    2060:	00010101 	andeq	r0, r1, r1, lsl #2
    2064:	00010000 	andeq	r0, r1, r0
    2068:	2f2e0100 	svccs	0x002e0100
    206c:	6362696c 	cmnvs	r2, #108, 18	; 0x1b0000
    2070:	73552f00 	cmpvc	r5, #0, 30
    2074:	2f737265 	svccs	0x00737265
    2078:	656c696d 	strbvs	r6, [ip, #-2413]!	; 0xfffff693
    207c:	6f532f73 	svcvs	0x00532f73
    2080:	65637275 	strbvs	r7, [r3, #-629]!	; 0xfffffd8b
    2084:	3273632f 	rsbscc	r6, r3, #-1140850688	; 0xbc000000
    2088:	786c3034 	stmdavc	ip!, {r2, r4, r5, ip, sp}^
    208c:	62696c2f 	rsbvs	r6, r9, #12032	; 0x2f00
    2090:	692f6970 	stmdbvs	pc!, {r4, r5, r6, r8, fp, sp, lr}	; <UNPREDICTABLE>
    2094:	756c636e 	strbvc	r6, [ip, #-878]!	; 0xfffffc92
    2098:	00006564 	andeq	r6, r0, r4, ror #10
    209c:	63727473 	cmnvs	r2, #1929379840	; 0x73000000
    20a0:	632e7461 			; <UNDEFINED> instruction: 0x632e7461
    20a4:	00000100 	andeq	r0, r0, r0, lsl #2
    20a8:	2e697072 	mcrcs	0, 3, r7, cr9, cr2, {3}
    20ac:	00020068 	andeq	r0, r2, r8, rrx
    20b0:	2c050000 	stccs	0, cr0, [r5], {-0}
    20b4:	48020500 	stmdami	r2, {r8, sl}
    20b8:	1500009a 	strne	r0, [r0, #-154]	; 0xffffff66
    20bc:	13130505 	tstne	r3, #20971520	; 0x1400000
    20c0:	11060b05 	tstne	r6, r5, lsl #22
    20c4:	02000505 	andeq	r0, r0, #20971520	; 0x1400000
    20c8:	30060104 	andcc	r0, r6, r4, lsl #2
    20cc:	01040200 	mrseq	r0, R12_usr
    20d0:	00090515 	andeq	r0, r9, r5, lsl r5
    20d4:	13010402 	movwne	r0, #5122	; 0x1402
    20d8:	02000b05 	andeq	r0, r0, #5120	; 0x1400
    20dc:	052f0104 	streq	r0, [pc, #-260]!	; 1fe0 <__code_start__-0x6020>
    20e0:	04020005 	streq	r0, [r2], #-5
    20e4:	00010601 	andeq	r0, r1, r1, lsl #12
    20e8:	2e010402 	cdpcs	4, 0, cr0, cr1, cr2, {0}
    20ec:	08054e06 	stmdaeq	r5, {r1, r2, r9, sl, fp, lr}
    20f0:	05050106 	streq	r0, [r5, #-262]	; 0xfffffefa
    20f4:	01040200 	mrseq	r0, R12_usr
    20f8:	09052f06 	stmdbeq	r5, {r1, r2, r8, r9, sl, fp, sp}
    20fc:	01040200 	mrseq	r0, R12_usr
    2100:	000b0513 	andeq	r0, fp, r3, lsl r5
    2104:	06010402 	streq	r0, [r1], -r2, lsl #8
    2108:	00090501 	andeq	r0, r9, r1, lsl #10
    210c:	06010402 	streq	r0, [r1], -r2, lsl #8
    2110:	0005052f 	andeq	r0, r5, pc, lsr #10
    2114:	06010402 	streq	r0, [r1], -r2, lsl #8
    2118:	000f0513 	andeq	r0, pc, r3, lsl r5	; <UNPREDICTABLE>
    211c:	2d010402 	cfstrscs	mvf0, [r1, #-8]
    2120:	02000d05 	andeq	r0, r0, #320	; 0x140
    2124:	2f060104 	svccs	0x00060104
    2128:	02000505 	andeq	r0, r0, #20971520	; 0x1400000
    212c:	01060104 	tsteq	r6, r4, lsl #2
    2130:	01000402 	tsteq	r0, r2, lsl #8
    2134:	0000b201 	andeq	fp, r0, r1, lsl #4
    2138:	59000300 	stmdbpl	r0, {r8, r9}
    213c:	02000000 	andeq	r0, r0, #0, 0
    2140:	0d0efb01 	vstreq	d15, [lr, #-4]
    2144:	01010100 	mrseq	r0, (UNDEF: 17)
    2148:	00000001 	andeq	r0, r0, r1
    214c:	01000001 	tsteq	r0, r1
    2150:	696c2f2e 	stmdbvs	ip!, {r1, r2, r3, r5, r8, r9, sl, fp, sp}^
    2154:	2f006362 	svccs	0x00006362
    2158:	72657355 	rsbvc	r7, r5, #1409286145	; 0x54000001
    215c:	696d2f73 	stmdbvs	sp!, {r0, r1, r4, r5, r6, r8, r9, sl, fp, sp}^
    2160:	2f73656c 	svccs	0x0073656c
    2164:	72756f53 	rsbsvc	r6, r5, #332	; 0x14c
    2168:	632f6563 			; <UNDEFINED> instruction: 0x632f6563
    216c:	30343273 	eorscc	r3, r4, r3, ror r2
    2170:	6c2f786c 	stcvs	8, cr7, [pc], #-432	; 1fc8 <__code_start__-0x6038>
    2174:	69706269 	ldmdbvs	r0!, {r0, r3, r5, r6, r9, sp, lr}^
    2178:	636e692f 	cmnvs	lr, #770048	; 0xbc000
    217c:	6564756c 	strbvs	r7, [r4, #-1388]!	; 0xfffffa94
    2180:	74730000 	ldrbtvc	r0, [r3], #-0
    2184:	706d6372 	rsbvc	r6, sp, r2, ror r3
    2188:	0100632e 	tsteq	r0, lr, lsr #6
    218c:	70720000 	rsbsvc	r0, r2, r0
    2190:	00682e69 	rsbeq	r2, r8, r9, ror #28
    2194:	00000002 	andeq	r0, r0, r2
    2198:	05002a05 	streq	r2, [r0, #-2565]	; 0xfffff5fb
    219c:	009a7402 	addseq	r7, sl, r2, lsl #8
    21a0:	09051400 	stmdbeq	r5, {sl, ip}
    21a4:	06100513 			; <UNDEFINED> instruction: 0x06100513
    21a8:	060f0501 	streq	r0, [pc], -r1, lsl #10
    21ac:	0610052e 	ldreq	r0, [r0], -lr, lsr #10
    21b0:	2e0f0582 	cfsh32cs	mvfx0, mvfx15, #-62
    21b4:	02001105 	andeq	r1, r0, #1073741825	; 0x40000001
    21b8:	4b060104 	blmi	1825d0 <__bss_end__+0x178208>
    21bc:	02001c05 	andeq	r1, r0, #1280	; 0x500
    21c0:	2d060104 	stfcss	f0, [r6, #-16]
    21c4:	02000f05 	andeq	r0, r0, #5, 30
    21c8:	2e060104 	adfcss	f0, f6, f4
    21cc:	02001305 	andeq	r1, r0, #335544320	; 0x14000000
    21d0:	01060104 	tsteq	r6, r4, lsl #2
    21d4:	4c060905 			; <UNDEFINED> instruction: 0x4c060905
    21d8:	13060105 	movwne	r0, #24837	; 0x6105
    21dc:	0609054a 	streq	r0, [r9], -sl, asr #10
    21e0:	0601052d 	streq	r0, [r1], -sp, lsr #10
    21e4:	02022e13 	andeq	r2, r2, #304	; 0x130
    21e8:	9d010100 	stflss	f0, [r1, #-0]
    21ec:	03000000 	movweq	r0, #0
    21f0:	00005900 	andeq	r5, r0, r0, lsl #18
    21f4:	fb010200 	blx	429fe <__bss_end__+0x38636>
    21f8:	01000d0e 	tsteq	r0, lr, lsl #26
    21fc:	00010101 	andeq	r0, r1, r1, lsl #2
    2200:	00010000 	andeq	r0, r1, r0
    2204:	2f2e0100 	svccs	0x002e0100
    2208:	6362696c 	cmnvs	r2, #108, 18	; 0x1b0000
    220c:	73552f00 	cmpvc	r5, #0, 30
    2210:	2f737265 	svccs	0x00737265
    2214:	656c696d 	strbvs	r6, [ip, #-2413]!	; 0xfffff693
    2218:	6f532f73 	svcvs	0x00532f73
    221c:	65637275 	strbvs	r7, [r3, #-629]!	; 0xfffffd8b
    2220:	3273632f 	rsbscc	r6, r3, #-1140850688	; 0xbc000000
    2224:	786c3034 	stmdavc	ip!, {r2, r4, r5, ip, sp}^
    2228:	62696c2f 	rsbvs	r6, r9, #12032	; 0x2f00
    222c:	692f6970 	stmdbvs	pc!, {r4, r5, r6, r8, fp, sp, lr}	; <UNPREDICTABLE>
    2230:	756c636e 	strbvc	r6, [ip, #-878]!	; 0xfffffc92
    2234:	00006564 	andeq	r6, r0, r4, ror #10
    2238:	63727473 	cmnvs	r2, #1929379840	; 0x73000000
    223c:	632e7970 			; <UNDEFINED> instruction: 0x632e7970
    2240:	00000100 	andeq	r0, r0, r0, lsl #2
    2244:	2e697072 	mcrcs	0, 3, r7, cr9, cr2, {3}
    2248:	00020068 	andeq	r0, r2, r8, rrx
    224c:	2a050000 	bcs	142254 <__bss_end__+0x137e8c>
    2250:	b8020500 	stmdalt	r2, {r8, sl}
    2254:	1400009a 	strne	r0, [r0], #-154	; 0xffffff66
    2258:	13130505 	tstne	r3, #20971520	; 0x1400000
    225c:	02002205 	andeq	r2, r0, #1342177280	; 0x50000000
    2260:	052e0104 	streq	r0, [lr, #-260]!	; 0xfffffefc
    2264:	0402000b 	streq	r0, [r2], #-11
    2268:	15050101 	strne	r0, [r5, #-257]	; 0xfffffeff
    226c:	01040200 	mrseq	r0, R12_usr
    2270:	0b050106 	bleq	142690 <__bss_end__+0x1382c8>
    2274:	01040200 	mrseq	r0, R12_usr
    2278:	0013052e 	andseq	r0, r3, lr, lsr #10
    227c:	2e010402 	cdpcs	4, 0, cr0, cr1, cr2, {0}
    2280:	02000b05 	andeq	r0, r0, #5120	; 0x1400
    2284:	022e0104 	eoreq	r0, lr, #1
    2288:	01010004 	tsteq	r1, r4
    228c:	000000fd 	strdeq	r0, [r0], -sp
    2290:	00bf0003 	adcseq	r0, pc, r3
    2294:	01020000 	mrseq	r0, (UNDEF: 2)
    2298:	000d0efb 	strdeq	r0, [sp], -fp
    229c:	01010101 	tsteq	r1, r1, lsl #2
    22a0:	01000000 	mrseq	r0, (UNDEF: 0)
    22a4:	2e010000 	cdpcs	0, 0, cr0, cr1, cr0, {0}
    22a8:	62696c2f 	rsbvs	r6, r9, #12032	; 0x2f00
    22ac:	552f0063 	strpl	r0, [pc, #-99]!	; 2251 <__code_start__-0x5daf>
    22b0:	73726573 	cmnvc	r2, #482344960	; 0x1cc00000
    22b4:	6c696d2f 	stclvs	13, cr6, [r9], #-188	; 0xffffff44
    22b8:	532f7365 			; <UNDEFINED> instruction: 0x532f7365
    22bc:	6372756f 	cmnvs	r2, #465567744	; 0x1bc00000
    22c0:	73632f65 	cmnvc	r3, #404	; 0x194
    22c4:	6c303432 	cfldrsvs	mvf3, [r0], #-200	; 0xffffff38
    22c8:	696c2f78 	stmdbvs	ip!, {r3, r4, r5, r6, r8, r9, sl, fp, sp}^
    22cc:	2f697062 	svccs	0x00697062
    22d0:	6c636e69 	stclvs	14, cr6, [r3], #-420	; 0xfffffe5c
    22d4:	00656475 	rsbeq	r6, r5, r5, ror r4
    22d8:	74706f2f 	ldrbtvc	r6, [r0], #-3887	; 0xfffff0d1
    22dc:	6d6f682f 	stclvs	8, cr6, [pc, #-188]!	; 2228 <__code_start__-0x5dd8>
    22e0:	65726265 	ldrbvs	r6, [r2, #-613]!	; 0xfffffd9b
    22e4:	65432f77 	strbvs	r2, [r3, #-3959]	; 0xfffff089
    22e8:	72616c6c 	rsbvc	r6, r1, #108, 24	; 0x6c00
    22ec:	6d72612f 	ldfvse	f6, [r2, #-188]!	; 0xffffff44
    22f0:	6e6f6e2d 	cdpvs	14, 6, cr6, cr15, cr13, {1}
    22f4:	61652d65 	cmnvs	r5, r5, ror #26
    22f8:	392d6962 	pushcc	{r1, r5, r6, r8, fp, sp, lr}
    22fc:	322d392f 	eorcc	r3, sp, #770048	; 0xbc000
    2300:	71393130 	teqvc	r9, r0, lsr r1
    2304:	73632d34 	cmnvc	r3, #52, 26	; 0xd00
    2308:	65373031 	ldrvs	r3, [r7, #-49]!	; 0xffffffcf
    230c:	62696c2f 	rsbvs	r6, r9, #12032	; 0x2f00
    2310:	6363672f 	cmnvs	r3, #12320768	; 0xbc0000
    2314:	6d72612f 	ldfvse	f6, [r2, #-188]!	; 0xffffff44
    2318:	6e6f6e2d 	cdpvs	14, 6, cr6, cr15, cr13, {1}
    231c:	61652d65 	cmnvs	r5, r5, ror #26
    2320:	392f6962 	stmdbcc	pc!, {r1, r5, r6, r8, fp, sp, lr}	; <UNPREDICTABLE>
    2324:	312e322e 			; <UNDEFINED> instruction: 0x312e322e
    2328:	636e692f 	cmnvs	lr, #770048	; 0xbc000
    232c:	6564756c 	strbvs	r7, [r4, #-1388]!	; 0xfffffa94
    2330:	74730000 	ldrbtvc	r0, [r3], #-0
    2334:	6d636e72 	stclvs	14, cr6, [r3, #-456]!	; 0xfffffe38
    2338:	00632e70 	rsbeq	r2, r3, r0, ror lr
    233c:	72000001 	andvc	r0, r0, #1, 0
    2340:	682e6970 	stmdavs	lr!, {r4, r5, r6, r8, fp, sp, lr}
    2344:	00000200 	andeq	r0, r0, r0, lsl #4
    2348:	64647473 	strbtvs	r7, [r4], #-1139	; 0xfffffb8d
    234c:	682e6665 	stmdavs	lr!, {r0, r2, r5, r6, r9, sl, sp, lr}
    2350:	00000300 	andeq	r0, r0, r0, lsl #6
    2354:	00390500 	eorseq	r0, r9, r0, lsl #10
    2358:	9ad00205 	bls	ff402b74 <__bss_end__+0xff3f87ac>
    235c:	05150000 	ldreq	r0, [r5, #-0]
    2360:	05131305 	ldreq	r1, [r3, #-773]	; 0xfffffcfb
    2364:	052e060a 	streq	r0, [lr, #-1546]!	; 0xfffff9f6
    2368:	13052f0c 	movwne	r2, #24332	; 0x5f0c
    236c:	2e0b052e 	cfsh32cs	mvfx0, mvfx11, #30
    2370:	4a060905 	bmi	18478c <__bss_end__+0x17a3c4>
    2374:	06110a05 	ldreq	r0, [r1], -r5, lsl #20
    2378:	4e0c0501 	cfsh32mi	mvfx0, mvfx12, #1
    237c:	052f0105 	streq	r0, [pc, #-261]!	; 227f <__code_start__-0x5d81>
    2380:	052b060d 	streq	r0, [fp, #-1549]!	; 0xfffff9f3
    2384:	2e01061b 	mcrcs	6, 0, r0, cr1, cr11, {0}
    2388:	01000202 	tsteq	r0, r2, lsl #4
    238c:	00008a01 	andeq	r8, r0, r1, lsl #20
    2390:	6e000300 	cdpvs	3, 0, cr0, cr0, cr0, {0}
    2394:	02000000 	andeq	r0, r0, #0, 0
    2398:	0d0efb01 	vstreq	d15, [lr, #-4]
    239c:	01010100 	mrseq	r0, (UNDEF: 17)
    23a0:	00000001 	andeq	r0, r0, r1
    23a4:	01000001 	tsteq	r0, r1
    23a8:	74732f2e 	ldrbtvc	r2, [r3], #-3886	; 0xfffff0d2
    23ac:	2d666661 	stclcs	6, cr6, [r6, #-388]!	; 0xfffffe7c
    23b0:	00637273 	rsbeq	r7, r3, r3, ror r2
    23b4:	6573552f 	ldrbvs	r5, [r3, #-1327]!	; 0xfffffad1
    23b8:	6d2f7372 	stcvs	3, cr7, [pc, #-456]!	; 21f8 <__code_start__-0x5e08>
    23bc:	73656c69 	cmnvc	r5, #26880	; 0x6900
    23c0:	756f532f 	strbvc	r5, [pc, #-815]!	; 2099 <__code_start__-0x5f67>
    23c4:	2f656372 	svccs	0x00656372
    23c8:	34327363 	ldrtcc	r7, [r2], #-867	; 0xfffffc9d
    23cc:	2f786c30 	svccs	0x00786c30
    23d0:	7062696c 	rsbvc	r6, r2, ip, ror #18
    23d4:	6e692f69 	cdpvs	15, 6, cr2, cr9, cr9, {3}
    23d8:	64756c63 	ldrbtvs	r6, [r5], #-3171	; 0xfffff39d
    23dc:	64000065 	strvs	r0, [r0], #-101	; 0xffffff9b
    23e0:	75616665 	strbvc	r6, [r1, #-1637]!	; 0xfffff99b
    23e4:	722d746c 	eorvc	r7, sp, #108, 8	; 0x6c000000
    23e8:	6f6f6265 	svcvs	0x006f6265
    23ec:	61632d74 	smcvs	13012	; 0x32d4
    23f0:	756f6c6c 	strbvc	r6, [pc, #-3180]!	; 178c <__code_start__-0x6874>
    23f4:	00632e74 	rsbeq	r2, r3, r4, ror lr
    23f8:	72000001 	andvc	r0, r0, #1, 0
    23fc:	682e6970 	stmdavs	lr!, {r4, r5, r6, r8, fp, sp, lr}
    2400:	00000200 	andeq	r0, r0, r0, lsl #4
    2404:	001b0500 	andseq	r0, fp, r0, lsl #10
    2408:	9b000205 	blls	2c24 <__code_start__-0x53dc>
    240c:	05140000 	ldreq	r0, [r4, #-0]
    2410:	0105011c 	tsteq	r5, ip, lsl r1
    2414:	02020106 	andeq	r0, r2, #-2147483647	; 0x80000001
    2418:	Address 0x0000000000002418 is out of bounds.


Disassembly of section .debug_str:

00000000 <.debug_str>:
   0:	72666b63 	rsbvc	r6, r6, #101376	; 0x18c00
   4:	6c006565 	cfstr32vs	mvfx6, [r0], {101}	; 0x65
   8:	6e656e69 	cdpvs	14, 6, cr6, cr5, cr9, {3}
   c:	6f6e006f 	svcvs	0x006e006f
  10:	69616d74 	stmdbvs	r1!, {r2, r4, r5, r6, r8, sl, fp, sp, lr}^
  14:	6966006e 	stmdbvs	r6!, {r1, r2, r3, r5, r6}^
  18:	7500656c 	strvc	r6, [r0, #-1388]	; 0xfffffa94
  1c:	6769736e 	strbvs	r7, [r9, -lr, ror #6]!
  20:	2064656e 	rsbcs	r6, r4, lr, ror #10
  24:	72616863 	rsbvc	r6, r1, #6488064	; 0x630000
  28:	632d3300 			; <UNDEFINED> instruction: 0x632d3300
  2c:	6c6c616b 	stfvse	f6, [ip], #-428	; 0xfffffe54
  30:	632e636f 			; <UNDEFINED> instruction: 0x632e636f
  34:	6f687300 	svcvs	0x00687300
  38:	75207472 	strvc	r7, [r0, #-1138]!	; 0xfffffb8e
  3c:	6769736e 	strbvs	r7, [r9, -lr, ror #6]!
  40:	2064656e 	rsbcs	r6, r4, lr, ror #10
  44:	00746e69 	rsbseq	r6, r4, r9, ror #28
  48:	5f637273 	svcpl	0x00637273
  4c:	5f636f6c 	svcpl	0x00636f6c
  50:	66006b6d 	strvs	r6, [r0], -sp, ror #22
  54:	00636e75 	rsbeq	r6, r3, r5, ror lr
  58:	55465f5f 	strbpl	r5, [r6, #-3935]	; 0xfffff0a1
  5c:	4954434e 	ldmdbmi	r4, {r1, r2, r3, r6, r8, r9, lr}^
  60:	5f5f4e4f 	svcpl	0x005f4e4f
  64:	6e6f6c00 	cdpvs	12, 6, cr6, cr15, cr0, {0}
  68:	6f6c2067 	svcvs	0x006c2067
  6c:	7520676e 	strvc	r6, [r0, #-1902]!	; 0xfffff892
  70:	6769736e 	strbvs	r7, [r9, -lr, ror #6]!
  74:	2064656e 	rsbcs	r6, r4, lr, ror #10
  78:	00746e69 	rsbseq	r6, r4, r9, ror #28
  7c:	676e6f6c 	strbvs	r6, [lr, -ip, ror #30]!
  80:	6e6f6c20 	cdpvs	12, 6, cr6, cr15, cr0, {1}
  84:	6e692067 	cdpvs	0, 6, cr2, cr9, cr7, {3}
  88:	70720074 	rsbsvc	r0, r2, r4, ror r0
  8c:	75705f69 	ldrbvc	r5, [r0, #-3945]!	; 0xfffff097
  90:	61686374 	smcvs	34356	; 0x8634
  94:	552f0072 	strpl	r0, [pc, #-114]!	; 2a <__code_start__-0x7fd6>
  98:	73726573 	cmnvc	r2, #482344960	; 0x1cc00000
  9c:	6c696d2f 	stclvs	13, cr6, [r9], #-188	; 0xffffff44
  a0:	532f7365 			; <UNDEFINED> instruction: 0x532f7365
  a4:	6372756f 	cmnvs	r2, #465567744	; 0x1bc00000
  a8:	73632f65 	cmnvc	r3, #404	; 0x194
  ac:	6c303432 	cfldrsvs	mvf3, [r0], #-200	; 0xffffff38
  b0:	616c2f78 	smcvs	49912	; 0xc2f8
  b4:	352f7362 	strcc	r7, [pc, #-866]!	; fffffd5a <__bss_end__+0xffff5992>
  b8:	6c616d2d 	stclvs	13, cr6, [r1], #-180	; 0xffffff4c
  bc:	2b636f6c 	blcs	18dbe74 <__bss_end__+0x18d1aac>
  c0:	322f6367 	eorcc	r6, pc, #-1677721599	; 0x9c000001
  c4:	616b632d 	cmnvs	fp, sp, lsr #6
  c8:	636f6c6c 	cmnvs	pc, #108, 24	; 0x6c00
  cc:	6f687300 	svcvs	0x00687300
  d0:	69207472 	stmdbvs	r0!, {r1, r4, r5, r6, sl, ip, sp, lr}
  d4:	7300746e 	movwvc	r7, #1134	; 0x46e
  d8:	6c5f6372 	mrrcvs	3, 7, r6, pc, cr2	; <UNPREDICTABLE>
  dc:	745f636f 	ldrbvc	r6, [pc], #-879	; e4 <__code_start__-0x7f1c>
  e0:	554e4700 	strbpl	r4, [lr, #-1792]	; 0xfffff900
  e4:	39394320 	ldmdbcc	r9!, {r5, r8, r9, lr}
  e8:	322e3920 	eorcc	r3, lr, #32, 18	; 0x80000
  ec:	3220312e 	eorcc	r3, r0, #-2147483637	; 0x8000000b
  f0:	31393130 	teqcc	r9, r0, lsr r1
  f4:	20353230 	eorscs	r3, r5, r0, lsr r2
  f8:	6c657228 	sfmvs	f7, 2, [r5], #-160	; 0xffffff60
  fc:	65736165 	ldrbvs	r6, [r3, #-357]!	; 0xfffffe9b
 100:	415b2029 	cmpmi	fp, r9, lsr #32
 104:	612f4d52 			; <UNDEFINED> instruction: 0x612f4d52
 108:	392d6d72 	pushcc	{r1, r4, r5, r6, r8, sl, fp, sp, lr}
 10c:	6172622d 	cmnvs	r2, sp, lsr #4
 110:	2068636e 	rsbcs	r6, r8, lr, ror #6
 114:	69766572 	ldmdbvs	r6!, {r1, r4, r5, r6, r8, sl, sp, lr}^
 118:	6e6f6973 			; <UNDEFINED> instruction: 0x6e6f6973
 11c:	37373220 	ldrcc	r3, [r7, -r0, lsr #4]!
 120:	5d393935 			; <UNDEFINED> instruction: 0x5d393935
 124:	636d2d20 	cmnvs	sp, #32, 26	; 0x800
 128:	613d7570 	teqvs	sp, r0, ror r5
 12c:	31316d72 	teqcc	r1, r2, ror sp
 130:	7a6a3637 	bvc	1a8da14 <__bss_end__+0x1a8364c>
 134:	20732d66 	rsbscs	r2, r3, r6, ror #26
 138:	75746d2d 	ldrbvc	r6, [r4, #-3373]!	; 0xfffff2d3
 13c:	613d656e 	teqvs	sp, lr, ror #10
 140:	31316d72 	teqcc	r1, r2, ror sp
 144:	7a6a3637 	bvc	1a8da28 <__bss_end__+0x1a83660>
 148:	20732d66 	rsbscs	r2, r3, r6, ror #26
 14c:	6c666d2d 	stclvs	13, cr6, [r6], #-180	; 0xffffff4c
 150:	2d74616f 	ldfcse	f6, [r4, #-444]!	; 0xfffffe44
 154:	3d696261 	sfmcc	f6, 2, [r9, #-388]!	; 0xfffffe7c
 158:	74666f73 	strbtvc	r6, [r6], #-3955	; 0xfffff08d
 15c:	616d2d20 	cmnvs	sp, r0, lsr #26
 160:	2d206d72 	stccs	13, cr6, [r0, #-456]!	; 0xfffffe38
 164:	6372616d 	cmnvs	r2, #1073741851	; 0x4000001b
 168:	72613d68 	rsbvc	r3, r1, #104, 26	; 0x1a00
 16c:	6b36766d 	blvs	d9db28 <__bss_end__+0xd93760>
 170:	672d207a 			; <UNDEFINED> instruction: 0x672d207a
 174:	20626467 	rsbcs	r6, r2, r7, ror #8
 178:	20674f2d 	rsbcs	r4, r7, sp, lsr #30
 17c:	6474732d 	ldrbtvs	r7, [r4], #-813	; 0xfffffcd3
 180:	756e673d 	strbvc	r6, [lr, #-1853]!	; 0xfffff8c3
 184:	2d203939 			; <UNDEFINED> instruction: 0x2d203939
 188:	65726666 	ldrbvs	r6, [r2, #-1638]!	; 0xfffff99a
 18c:	61747365 	cmnvs	r4, r5, ror #6
 190:	6e69646e 	cdpvs	4, 6, cr6, cr9, cr14, {3}
 194:	65680067 	strbvs	r0, [r8, #-103]!	; 0xffffff99
 198:	72656461 	rsbvc	r6, r5, #1627389952	; 0x61000000
 19c:	65727000 	ldrbvs	r7, [r2, #-0]!
 1a0:	61007076 	tstvs	r0, r6, ror r0
 1a4:	6e67696c 	vnmulvs.f16	s13, s14, s25	; <UNPREDICTABLE>
 1a8:	5f726b00 	svcpl	0x00726b00
 1ac:	65657266 	strbvs	r7, [r5, #-614]!	; 0xfffffd9a
 1b0:	65726600 	ldrbvs	r6, [r2, #-1536]!	; 0xfffffa00
 1b4:	6e007065 	cdpvs	0, 0, cr7, cr0, cr5, {3}
 1b8:	74696e75 	strbtvc	r6, [r9], #-3701	; 0xfffff18b
 1bc:	726b0073 	rsbvc	r0, fp, #115, 0	; 0x73
 1c0:	6c616d2d 	stclvs	13, cr6, [r1], #-180	; 0xffffff4c
 1c4:	2e636f6c 	cdpcs	15, 6, cr6, cr3, cr12, {3}
 1c8:	6f640063 	svcvs	0x00640063
 1cc:	656c6275 	strbvs	r6, [ip, #-629]!	; 0xfffffd8b
 1d0:	73616200 	cmnvc	r1, #0, 4
 1d4:	62730065 	rsbsvs	r0, r3, #101, 0	; 0x65
 1d8:	6d006b72 	vstrvs	d6, [r0, #-456]	; 0xfffffe38
 1dc:	6365726f 	cmnvs	r5, #-268435450	; 0xf0000006
 1e0:	0065726f 	rsbeq	r7, r5, pc, ror #4
 1e4:	6d5f726b 	lfmvs	f7, 2, [pc, #-428]	; 40 <__code_start__-0x7fc0>
 1e8:	6f6c6c61 	svcvs	0x006c6c61
 1ec:	69730063 	ldmdbvs	r3!, {r0, r1, r5, r6}^
 1f0:	4800657a 	stmdami	r0, {r1, r3, r4, r5, r6, r8, sl, sp, lr}
 1f4:	65646165 	strbvs	r6, [r4, #-357]!	; 0xfffffe9b
 1f8:	6e690072 	mcrvs	0, 3, r0, cr9, cr2, {3}
 1fc:	6d657263 	sfmvs	f7, 2, [r5, #-396]!	; 0xfffffe74
 200:	00746e65 	rsbseq	r6, r4, r5, ror #28
 204:	6c616d6b 	stclvs	13, cr6, [r1], #-428	; 0xfffffe54
 208:	00636f6c 	rsbeq	r6, r3, ip, ror #30
 20c:	732d6970 			; <UNDEFINED> instruction: 0x732d6970
 210:	2e6b7262 	cdpcs	2, 6, cr7, cr11, cr2, {3}
 214:	6b630063 	blvs	18c03a8 <__bss_end__+0x18b5fe0>
 218:	79626e5f 	stmdbvc	r2!, {r0, r1, r2, r3, r4, r6, r9, sl, fp, sp, lr}^
 21c:	00736574 	rsbseq	r6, r3, r4, ror r5
 220:	5f726468 	svcpl	0x00726468
 224:	656e0074 	strbvs	r0, [lr, #-116]!	; 0xffffff8c
 228:	73007478 	movwvc	r7, #1144	; 0x478
 22c:	65746174 	ldrbvs	r6, [r4, #-372]!	; 0xfffffe8c
 230:	4c4c4100 	stfmie	f4, [ip], {-0}
 234:	4445434f 	strbmi	r4, [r5], #-847	; 0xfffffcb1
 238:	5f6b6300 	svcpl	0x006b6300
 23c:	5f726468 	svcpl	0x00726468
 240:	72617473 	rsbvc	r7, r1, #1929379840	; 0x73000000
 244:	6b630074 	blvs	18c041c <__bss_end__+0x18b6054>
 248:	7274705f 	rsbsvc	r7, r4, #95, 0	; 0x5f
 24c:	5f73695f 	svcpl	0x0073695f
 250:	6f6c6c61 	svcvs	0x006c6c61
 254:	00646563 	rsbeq	r6, r4, r3, ror #10
 258:	6b72616d 	blvs	1c98814 <__bss_end__+0x1c8e44c>
 25c:	45524600 	ldrbmi	r4, [r2, #-1536]	; 0xfffffa00
 260:	6e004445 	cdpvs	4, 0, cr4, cr0, cr5, {2}
 264:	65747962 	ldrbvs	r7, [r4, #-2402]!	; 0xfffff69e
 268:	6c615f73 	stclvs	15, cr5, [r1], #-460	; 0xfffffe34
 26c:	00636f6c 	rsbeq	r6, r3, ip, ror #30
 270:	61656c63 	cmnvs	r5, r3, ror #24
 274:	65725f6e 	ldrbvs	r5, [r2, #-3950]!	; 0xfffff092
 278:	746f6f62 	strbtvc	r6, [pc], #-3938	; 280 <__code_start__-0x7d80>
 27c:	5f6b6300 	svcpl	0x006b6300
 280:	00726468 	rsbseq	r6, r2, r8, ror #8
 284:	736d656d 	cmnvc	sp, #457179136	; 0x1b400000
 288:	61007465 	tstvs	r0, r5, ror #8
 28c:	636f6c6c 	cmnvs	pc, #108, 24	; 0x6c00
 290:	73696c5f 	cmnvc	r9, #24320	; 0x5f00
 294:	6b630074 	blvs	18c046c <__bss_end__+0x18b60a4>
 298:	7269665f 	rsbvc	r6, r9, #99614720	; 0x5f00000
 29c:	685f7473 	ldmdavs	pc, {r0, r1, r4, r5, r6, sl, ip, sp, lr}^	; <UNPREDICTABLE>
 2a0:	61007264 	tstvs	r0, r4, ror #4
 2a4:	636f6c6c 	cmnvs	pc, #108, 24	; 0x6c00
 2a8:	636f6c5f 	cmnvs	pc, #24320	; 0x5f00
 2ac:	73696c00 	cmnvc	r9, #0, 24
 2b0:	65725f74 	ldrbvs	r5, [r2, #-3956]!	; 0xfffff08c
 2b4:	65766f6d 	ldrbvs	r6, [r6, #-3949]!	; 0xfffff093
 2b8:	5f6b6300 	svcpl	0x006b6300
 2bc:	5f726468 	svcpl	0x00726468
 2c0:	00646e65 	rsbeq	r6, r4, r5, ror #28
 2c4:	705f6b63 	subsvc	r6, pc, r3, ror #22
 2c8:	695f7274 	ldmdbvs	pc, {r2, r4, r5, r6, r9, ip, sp, lr}^	; <UNPREDICTABLE>
 2cc:	6c625f6e 	stclvs	15, cr5, [r2], #-440	; 0xfffffe48
 2d0:	006b636f 	rsbeq	r6, fp, pc, ror #6
 2d4:	746e6975 	strbtvc	r6, [lr], #-2421	; 0xfffff68b
 2d8:	745f3631 	ldrbvc	r3, [pc], #-1585	; 2e0 <__code_start__-0x7d20>
 2dc:	6e697500 	cdpvs	5, 6, cr7, cr9, cr0, {0}
 2e0:	5f323374 	svcpl	0x00323374
 2e4:	6b630074 	blvs	18c04bc <__bss_end__+0x18b60f4>
 2e8:	78656e5f 	stmdavc	r5!, {r0, r1, r2, r3, r4, r6, r9, sl, fp, sp, lr}^
 2ec:	64685f74 	strbtvs	r5, [r8], #-3956	; 0xfffff08c
 2f0:	65720072 	ldrbvs	r0, [r2, #-114]!	; 0xffffff8e
 2f4:	735f7366 	cmpvc	pc, #-1744830463	; 0x98000001
 2f8:	74726174 	ldrbtvc	r6, [r2], #-372	; 0xfffffe8c
 2fc:	65727000 	ldrbvs	r7, [r2, #-0]!
 300:	65720076 	ldrbvs	r0, [r2, #-118]!	; 0xffffff8a
 304:	6d5f7366 	ldclvs	3, cr7, [pc, #-408]	; 174 <__code_start__-0x7e8c>
 308:	6c646469 	cfstrdvs	mvd6, [r4], #-420	; 0xfffffe5c
 30c:	69730065 	ldmdbvs	r3!, {r0, r2, r5, r6}^
 310:	745f657a 	ldrbvc	r6, [pc], #-1402	; 318 <__code_start__-0x7ce8>
 314:	6c2f2e00 	stcvs	14, cr2, [pc], #-0	; 31c <__code_start__-0x7ce4>
 318:	2f636269 	svccs	0x00636269
 31c:	736d656d 	cmnvc	sp, #457179136	; 0x1b400000
 320:	632e7465 			; <UNDEFINED> instruction: 0x632e7465
 324:	554e4700 	strbpl	r4, [lr, #-1792]	; 0xfffff900
 328:	39394320 	ldmdbcc	r9!, {r5, r8, r9, lr}
 32c:	322e3920 	eorcc	r3, lr, #32, 18	; 0x80000
 330:	3220312e 	eorcc	r3, r0, #-2147483637	; 0x8000000b
 334:	31393130 	teqcc	r9, r0, lsr r1
 338:	20353230 	eorscs	r3, r5, r0, lsr r2
 33c:	6c657228 	sfmvs	f7, 2, [r5], #-160	; 0xffffff60
 340:	65736165 	ldrbvs	r6, [r3, #-357]!	; 0xfffffe9b
 344:	415b2029 	cmpmi	fp, r9, lsr #32
 348:	612f4d52 			; <UNDEFINED> instruction: 0x612f4d52
 34c:	392d6d72 	pushcc	{r1, r4, r5, r6, r8, sl, fp, sp, lr}
 350:	6172622d 	cmnvs	r2, sp, lsr #4
 354:	2068636e 	rsbcs	r6, r8, lr, ror #6
 358:	69766572 	ldmdbvs	r6!, {r1, r4, r5, r6, r8, sl, sp, lr}^
 35c:	6e6f6973 			; <UNDEFINED> instruction: 0x6e6f6973
 360:	37373220 	ldrcc	r3, [r7, -r0, lsr #4]!
 364:	5d393935 			; <UNDEFINED> instruction: 0x5d393935
 368:	636d2d20 	cmnvs	sp, #32, 26	; 0x800
 36c:	613d7570 	teqvs	sp, r0, ror r5
 370:	31316d72 	teqcc	r1, r2, ror sp
 374:	7a6a3637 	bvc	1a8dc58 <__bss_end__+0x1a83890>
 378:	20732d66 	rsbscs	r2, r3, r6, ror #26
 37c:	75746d2d 	ldrbvc	r6, [r4, #-3373]!	; 0xfffff2d3
 380:	613d656e 	teqvs	sp, lr, ror #10
 384:	31316d72 	teqcc	r1, r2, ror sp
 388:	7a6a3637 	bvc	1a8dc6c <__bss_end__+0x1a838a4>
 38c:	20732d66 	rsbscs	r2, r3, r6, ror #26
 390:	6c666d2d 	stclvs	13, cr6, [r6], #-180	; 0xffffff4c
 394:	2d74616f 	ldfcse	f6, [r4, #-444]!	; 0xfffffe44
 398:	3d696261 	sfmcc	f6, 2, [r9, #-388]!	; 0xfffffe7c
 39c:	74666f73 	strbtvc	r6, [r6], #-3955	; 0xfffff08d
 3a0:	616d2d20 	cmnvs	sp, r0, lsr #26
 3a4:	2d206d72 	stccs	13, cr6, [r0, #-456]!	; 0xfffffe38
 3a8:	6372616d 	cmnvs	r2, #1073741851	; 0x4000001b
 3ac:	72613d68 	rsbvc	r3, r1, #104, 26	; 0x1a00
 3b0:	6b36766d 	blvs	d9dd6c <__bss_end__+0xd939a4>
 3b4:	672d207a 			; <UNDEFINED> instruction: 0x672d207a
 3b8:	20626467 	rsbcs	r6, r2, r7, ror #8
 3bc:	61664f2d 	cmnvs	r6, sp, lsr #30
 3c0:	2d207473 	cfstrscs	mvf7, [r0, #-460]!	; 0xfffffe34
 3c4:	3d647473 	cfstrdcc	mvd7, [r4, #-460]!	; 0xfffffe34
 3c8:	39756e67 	ldmdbcc	r5!, {r0, r1, r2, r5, r6, r9, sl, fp, sp, lr}^
 3cc:	662d2039 			; <UNDEFINED> instruction: 0x662d2039
 3d0:	65657266 	strbvs	r7, [r5, #-614]!	; 0xfffffd9a
 3d4:	6e617473 	mcrvs	4, 3, r7, cr1, cr3, {3}
 3d8:	676e6964 	strbvs	r6, [lr, -r4, ror #18]!
 3dc:	73552f00 	cmpvc	r5, #0, 30
 3e0:	2f737265 	svccs	0x00737265
 3e4:	656c696d 	strbvs	r6, [ip, #-2413]!	; 0xfffff693
 3e8:	6f532f73 	svcvs	0x00532f73
 3ec:	65637275 	strbvs	r7, [r3, #-629]!	; 0xfffffd8b
 3f0:	3273632f 	rsbscc	r6, r3, #-1140850688	; 0xbc000000
 3f4:	786c3034 	stmdavc	ip!, {r2, r4, r5, ip, sp}^
 3f8:	62696c2f 	rsbvs	r6, r9, #12032	; 0x2f00
 3fc:	61006970 	tstvs	r0, r0, ror r9
 400:	00736772 	rsbseq	r6, r3, r2, ror r7
 404:	705f6176 	subsvc	r6, pc, r6, ror r1	; <UNPREDICTABLE>
 408:	746e6972 	strbtvc	r6, [lr], #-2418	; 0xfffff68e
 40c:	5f5f006b 	svcpl	0x005f006b
 410:	63756e67 	cmnvs	r5, #1648	; 0x670
 414:	5f61765f 	svcpl	0x0061765f
 418:	7473696c 	ldrbtvc	r6, [r3], #-2412	; 0xfffff694
 41c:	615f5f00 	cmpvs	pc, r0, lsl #30
 420:	2f2e0070 	svccs	0x002e0070
 424:	6362696c 	cmnvs	r2, #108, 18	; 0x1b0000
 428:	6972702f 	ldmdbvs	r2!, {r0, r1, r2, r3, r5, ip, sp, lr}^
 42c:	2e6b746e 	cdpcs	4, 6, cr7, cr11, cr14, {3}
 430:	5f5f0063 	svcpl	0x005f0063
 434:	6c5f6176 	ldfvse	f6, [pc], {118}	; 0x76
 438:	00747369 	rsbseq	r7, r4, r9, ror #6
 43c:	65746e69 	ldrbvs	r6, [r4, #-3689]!	; 0xfffff197
 440:	6c616e72 	stclvs	14, cr6, [r1], #-456	; 0xfffffe38
 444:	7475705f 	ldrbtvc	r7, [r5], #-95	; 0xffffffa1
 448:	2f2e006b 	svccs	0x002e006b
 44c:	6362696c 	cmnvs	r2, #108, 18	; 0x1b0000
 450:	7475702f 	ldrbtvc	r7, [r5], #-47	; 0xffffffd1
 454:	00632e6b 	rsbeq	r2, r3, fp, ror #28
 458:	69647369 	stmdbvs	r4!, {r0, r3, r5, r6, r8, r9, ip, sp, lr}^
 45c:	00746967 	rsbseq	r6, r4, r7, ror #18
 460:	746e6975 	strbtvc	r6, [lr], #-2421	; 0xfffff68b
 464:	745f3436 	ldrbvc	r3, [pc], #-1078	; 46c <__code_start__-0x7b94>
 468:	6c2f2e00 	stcvs	14, cr2, [pc], #-0	; 470 <__code_start__-0x7b90>
 46c:	2f636269 	svccs	0x00636269
 470:	702d6176 	eorvc	r6, sp, r6, ror r1
 474:	746e6972 	strbtvc	r6, [lr], #-2418	; 0xfffff68e
 478:	00632e6b 	rsbeq	r2, r3, fp, ror #28
 47c:	6f635f5f 	svcvs	0x00635f5f
 480:	735f6564 	cmpvc	pc, #100, 10	; 0x19000000
 484:	74726174 	ldrbtvc	r6, [r2], #-372	; 0xfffffe8c
 488:	5f005f5f 	svcpl	0x00005f5f
 48c:	7373625f 	cmnvc	r3, #-268435451	; 0xf0000005
 490:	6174735f 	cmnvs	r4, pc, asr r3
 494:	5f5f7472 	svcpl	0x005f7472
 498:	64697700 	strbtvs	r7, [r9], #-1792	; 0xfffff900
 49c:	5f006874 	svcpl	0x00006874
 4a0:	7461645f 	strbtvc	r6, [r1], #-1119	; 0xfffffba1
 4a4:	6e655f61 	cdpvs	15, 6, cr5, cr5, cr1, {3}
 4a8:	005f5f64 	subseq	r5, pc, r4, ror #30
 4ac:	63747570 	cmnvs	r4, #112, 10	; 0x1c000000
 4b0:	0070665f 	rsbseq	r6, r0, pc, asr r6
 4b4:	73625f5f 	cmnvc	r2, #380	; 0x17c
 4b8:	6e655f73 	mcrvs	15, 3, r5, cr5, cr3, {3}
 4bc:	005f5f64 	subseq	r5, pc, r4, ror #30
 4c0:	65685f5f 	strbvs	r5, [r8, #-3935]!	; 0xfffff0a1
 4c4:	735f7061 	cmpvc	pc, #97, 0	; 0x61
 4c8:	74726174 	ldrbtvc	r6, [r2], #-372	; 0xfffffe8c
 4cc:	72005f5f 	andvc	r5, r0, #380	; 0x17c
 4d0:	735f6970 	cmpvc	pc, #112, 18	; 0x1c0000
 4d4:	6f5f7465 	svcvs	0x005f7465
 4d8:	75707475 	ldrbvc	r7, [r0, #-1141]!	; 0xfffffb8b
 4dc:	6d660074 	stclvs	0, cr0, [r6, #-464]!	; 0xfffffe30
 4e0:	74735f74 	ldrbtvc	r5, [r3], #-3956	; 0xfffff08c
 4e4:	00747261 	rsbseq	r7, r4, r1, ror #4
 4e8:	63727473 	cmnvs	r2, #1929379840	; 0x73000000
 4ec:	73007461 	movwvc	r7, #1121	; 0x461
 4f0:	70637274 	rsbvc	r7, r3, r4, ror r2
 4f4:	656e0079 	strbvs	r0, [lr, #-121]!	; 0xffffff87
 4f8:	00705f67 	rsbseq	r5, r0, r7, ror #30
 4fc:	6f635f5f 	svcvs	0x00635f5f
 500:	655f6564 	ldrbvs	r6, [pc, #-1380]	; ffffffa4 <__bss_end__+0xffff5bdc>
 504:	5f5f646e 	svcpl	0x005f646e
 508:	696d6500 	stmdbvs	sp!, {r8, sl, sp, lr}^
 50c:	65720074 	ldrbvs	r0, [r2, #-116]!	; 0xffffff8c
 510:	73726576 	cmnvc	r2, #494927872	; 0x1d800000
 514:	74730065 	ldrbtvc	r0, [r3], #-101	; 0xffffff9b
 518:	706d6372 	rsbvc	r6, sp, r2, ror r3
 51c:	74757000 	ldrbtvc	r7, [r5], #-0
 520:	70665f73 	rsbvc	r5, r6, r3, ror pc
 524:	645f5f00 	ldrbvs	r5, [pc], #-3840	; 52c <__code_start__-0x7ad4>
 528:	5f617461 	svcpl	0x00617461
 52c:	72617473 	rsbvc	r7, r1, #1929379840	; 0x73000000
 530:	005f5f74 	subseq	r5, pc, r4, ror pc	; <UNPREDICTABLE>
 534:	72705f5f 	rsbsvc	r5, r0, #380	; 0x17c
 538:	655f676f 	ldrbvs	r6, [pc, #-1903]	; fffffdd1 <__bss_end__+0xffff5a09>
 53c:	5f5f646e 	svcpl	0x005f646e
 540:	6d756e00 	ldclvs	14, cr6, [r5, #-0]
 544:	74730031 	ldrbtvc	r0, [r3], #-49	; 0xffffffcf
 548:	6d636e72 	stclvs	14, cr6, [r3, #-456]!	; 0xfffffe38
 54c:	69730070 	ldmdbvs	r3!, {r4, r5, r6}^
 550:	64656e67 	strbtvs	r6, [r5], #-3687	; 0xfffff199
 554:	7200705f 	andvc	r7, r0, #95, 0	; 0x5f
 558:	725f6970 	subsvc	r6, pc, #112, 18	; 0x1c0000
 55c:	6f6f6265 	svcvs	0x006f6265
 560:	65640074 	strbvs	r0, [r4, #-116]!	; 0xffffff8c
 564:	5f79616c 	svcpl	0x0079616c
 568:	2e00736d 	cdpcs	3, 0, cr7, cr0, cr13, {3}
 56c:	6174732f 	cmnvs	r4, pc, lsr #6
 570:	732d6666 			; <UNDEFINED> instruction: 0x732d6666
 574:	632f6372 			; <UNDEFINED> instruction: 0x632f6372
 578:	6e61656c 	cdpvs	5, 6, cr6, cr1, cr12, {3}
 57c:	6265722d 	rsbvs	r7, r5, #-805306366	; 0xd0000002
 580:	2e746f6f 	cdpcs	15, 7, cr6, cr4, cr15, {3}
 584:	61750063 	cmnvs	r5, r3, rrx
 588:	665f7472 			; <UNDEFINED> instruction: 0x665f7472
 58c:	6873756c 	ldmdavs	r3!, {r2, r3, r5, r6, r8, sl, ip, sp, lr}^
 590:	0078745f 	rsbseq	r7, r8, pc, asr r4
 594:	7473635f 	ldrbtvc	r6, [r3], #-863	; 0xfffffca1
 598:	00747261 	rsbseq	r7, r4, r1, ror #4
 59c:	5f737362 	svcpl	0x00737362
 5a0:	00646e65 	rsbeq	r6, r4, r5, ror #28
 5a4:	74726175 	ldrbtvc	r6, [r2], #-373	; 0xfffffe8b
 5a8:	696e695f 	stmdbvs	lr!, {r0, r1, r2, r3, r4, r6, r8, fp, sp, lr}^
 5ac:	75630074 	strbvc	r0, [r3, #-116]!	; 0xffffff8c
 5b0:	6d6f7473 	cfstrdvs	mvd7, [pc, #-460]!	; 3ec <__code_start__-0x7c14>
 5b4:	616f6c5f 	cmnvs	pc, pc, asr ip	; <UNPREDICTABLE>
 5b8:	00726564 	rsbseq	r6, r2, r4, ror #10
 5bc:	74732f2e 	ldrbtvc	r2, [r3], #-3886	; 0xfffff0d2
 5c0:	2d666661 	stclcs	6, cr6, [r6, #-388]!	; 0xfffffe7c
 5c4:	2f637273 	svccs	0x00637273
 5c8:	61747363 	cmnvs	r4, r3, ror #6
 5cc:	632e7472 			; <UNDEFINED> instruction: 0x632e7472
 5d0:	732f2e00 			; <UNDEFINED> instruction: 0x732f2e00
 5d4:	66666174 			; <UNDEFINED> instruction: 0x66666174
 5d8:	6372732d 	cmnvs	r2, #-1275068416	; 0xb4000000
 5dc:	7375632f 	cmnvc	r5, #-1140850688	; 0xbc000000
 5e0:	2d6d6f74 	stclcs	15, cr6, [sp, #-464]!	; 0xfffffe30
 5e4:	64616f6c 	strbtvs	r6, [r1], #-3948	; 0xfffff094
 5e8:	632e7265 			; <UNDEFINED> instruction: 0x632e7265
 5ec:	62657200 	rsbvs	r7, r5, #0, 4
 5f0:	5f746f6f 	svcpl	0x00746f6f
 5f4:	6c6c6163 	stfvse	f6, [ip], #-396	; 0xfffffe74
 5f8:	0074756f 	rsbseq	r7, r4, pc, ror #10
 5fc:	575f4d50 			; <UNDEFINED> instruction: 0x575f4d50
 600:	00474f44 	subeq	r4, r7, r4, asr #30
 604:	33545550 	cmpcc	r4, #80, 10	; 0x14000000
 608:	65730032 	ldrbvs	r0, [r3, #-50]!	; 0xffffffce
 60c:	73755f74 	cmnvc	r5, #116, 30	; 0x1d0
 610:	6c5f7265 	lfmvs	f7, 2, [pc], {101}	; 0x65
 614:	6c657665 	stclvs	6, cr7, [r5], #-404	; 0xfffffe6c
 618:	732f2e00 			; <UNDEFINED> instruction: 0x732f2e00
 61c:	66666174 			; <UNDEFINED> instruction: 0x66666174
 620:	6372732d 	cmnvs	r2, #-1275068416	; 0xb4000000
 624:	6265722f 	rsbvs	r7, r5, #-268435454	; 0xf0000002
 628:	2e746f6f 	cdpcs	15, 7, cr6, cr4, cr15, {3}
 62c:	4d500063 	ldclmi	0, cr0, [r0, #-396]	; 0xfffffe74
 630:	5341505f 	movtpl	r5, #4191	; 0x105f
 634:	524f5753 	subpl	r5, pc, #21757952	; 0x14c0000
 638:	74610044 	strbtvc	r0, [r1], #-68	; 0xffffffbc
 63c:	6573755f 	ldrbvs	r7, [r3, #-1375]!	; 0xfffffaa1
 640:	656c5f72 	strbvs	r5, [ip, #-3954]!	; 0xfffff08e
 644:	006c6576 	rsbeq	r6, ip, r6, ror r5
 648:	525f4d50 	subspl	r4, pc, #80, 26	; 0x1400
 64c:	5f435453 	svcpl	0x00435453
 650:	46435257 			; <UNDEFINED> instruction: 0x46435257
 654:	55465f47 	strbpl	r5, [r6, #-3911]	; 0xfffff0b9
 658:	525f4c4c 	subspl	r4, pc, #76, 24	; 0x4c00
 65c:	54455345 	strbpl	r5, [r5], #-837	; 0xfffffcbb
 660:	5f4d5000 	svcpl	0x004d5000
 664:	43545352 	cmpmi	r4, #1207959553	; 0x48000001
 668:	73706300 	cmnvc	r0, #0, 6
 66c:	65640072 	strbvs	r0, [r4, #-114]!	; 0xffffff8e
 670:	61625f76 	smcvs	9718	; 0x25f6
 674:	65697272 	strbvs	r7, [r9, #-626]!	; 0xfffffd8e
 678:	65640072 	strbvs	r0, [r4, #-114]!	; 0xffffff8e
 67c:	5f79616c 	svcpl	0x0079616c
 680:	00636573 	rsbeq	r6, r3, r3, ror r5
 684:	74732f2e 	ldrbtvc	r2, [r3], #-3886	; 0xfffff0d2
 688:	2d666661 	stclcs	6, cr6, [r6, #-388]!	; 0xfffffe7c
 68c:	2f637273 	svccs	0x00637273
 690:	656d6974 	strbvs	r6, [sp, #-2420]!	; 0xfffff68c
 694:	00632e72 	rsbeq	r2, r3, r2, ror lr
 698:	33544547 	cmpcc	r4, #297795584	; 0x11c00000
 69c:	69740032 	ldmdbvs	r4!, {r1, r4, r5}^
 6a0:	5f72656d 	svcpl	0x0072656d
 6a4:	5f746567 	svcpl	0x00746567
 6a8:	63657375 	cmnvs	r5, #-738197503	; 0xd4000001
 6ac:	6c656400 	cfstrdvs	mvd6, [r5], #-0
 6b0:	755f7961 	ldrbvc	r7, [pc, #-2401]	; fffffd57 <__bss_end__+0xffff598f>
 6b4:	69740073 	ldmdbvs	r4!, {r0, r1, r4, r5, r6}^
 6b8:	5f72656d 	svcpl	0x0072656d
 6bc:	5f746567 	svcpl	0x00746567
 6c0:	63657375 	cmnvs	r5, #-738197503	; 0xd4000001
 6c4:	7761725f 			; <UNDEFINED> instruction: 0x7761725f
 6c8:	74757000 	ldrbtvc	r7, [r5], #-0
 6cc:	62003233 	andvs	r3, r0, #805306371	; 0x30000003
 6d0:	5f647561 	svcpl	0x00647561
 6d4:	006c6176 	rsbeq	r6, ip, r6, ror r1
 6d8:	74617473 	strbtvc	r7, [r1], #-1139	; 0xfffffb8d
 6dc:	72617500 	rsbvc	r7, r1, #0, 10
 6e0:	61635f74 	smcvs	13812	; 0x35f4
 6e4:	65675f6e 	strbvs	r5, [r7, #-3950]!	; 0xfffff092
 6e8:	47006374 	smlsdxmi	r0, r4, r3, r6
 6ec:	5f4f4950 	svcpl	0x004f4950
 6f0:	434e5546 	movtmi	r5, #58694	; 0xe546
 6f4:	54554f5f 	ldrbpl	r4, [r5], #-3935	; 0xfffff0a1
 6f8:	00545550 	subseq	r5, r4, r0, asr r5
 6fc:	5f787561 	svcpl	0x00787561
 700:	69726570 	ldmdbvs	r2!, {r4, r5, r6, r8, sl, sp, lr}^
 704:	00736870 	rsbseq	r6, r3, r0, ror r8
 708:	74726175 	ldrbtvc	r6, [r2], #-373	; 0xfffffe8b
 70c:	7500632e 	strvc	r6, [r0, #-814]	; 0xfffffcd2
 710:	5f747261 	svcpl	0x00747261
 714:	5f6e6163 	svcpl	0x006e6163
 718:	63747570 	cmnvs	r4, #112, 10	; 0x1c000000
 71c:	72617500 	rsbvc	r7, r1, #0, 10
 720:	78745f74 	ldmdavc	r4!, {r2, r4, r5, r6, r8, r9, sl, fp, ip, lr}^
 724:	5f73695f 	svcpl	0x0073695f
 728:	74706d65 	ldrbtvc	r6, [r0], #-3429	; 0xfffff29b
 72c:	50470079 	subpl	r0, r7, r9, ror r0
 730:	465f4f49 	ldrbmi	r4, [pc], -r9, asr #30
 734:	5f434e55 	svcpl	0x00434e55
 738:	30544c41 	subscc	r4, r4, r1, asr #24
 73c:	49504700 	ldmdbmi	r0, {r8, r9, sl, lr}^
 740:	55465f4f 	strbpl	r5, [r6, #-3919]	; 0xfffff0b1
 744:	415f434e 	cmpmi	pc, lr, asr #6
 748:	0031544c 	eorseq	r5, r1, ip, asr #8
 74c:	4f495047 	svcmi	0x00495047
 750:	4e55465f 	mrcmi	6, 2, r4, cr5, cr15, {2}
 754:	4c415f43 	mcrrmi	15, 4, r5, r1, cr3
 758:	47003254 	smlsdmi	r0, r4, r2, r3
 75c:	5f4f4950 	svcpl	0x004f4950
 760:	434e5546 	movtmi	r5, #58694	; 0xe546
 764:	544c415f 	strbpl	r4, [ip], #-351	; 0xfffffea1
 768:	50470033 	subpl	r0, r7, r3, lsr r0
 76c:	465f4f49 	ldrbmi	r4, [pc], -r9, asr #30
 770:	5f434e55 	svcpl	0x00434e55
 774:	35544c41 	ldrbcc	r4, [r4, #-3137]	; 0xfffff3bf
 778:	6f682f00 	svcvs	0x00682f00
 77c:	652f656d 	strvs	r6, [pc, #-1389]!	; 217 <__code_start__-0x7de9>
 780:	656c676e 	strbvs	r6, [ip, #-1902]!	; 0xfffff892
 784:	6c632f72 	stclvs	15, cr2, [r3], #-456	; 0xfffffe38
 788:	2f737361 	svccs	0x00737361
 78c:	34327363 	ldrtcc	r7, [r2], #-867	; 0xfffffc9d
 790:	2d786c30 	ldclcs	12, cr6, [r8, #-192]!	; 0xffffff40
 794:	70733232 	rsbsvc	r3, r3, r2, lsr r2
 798:	696c2f72 	stmdbvs	ip!, {r1, r4, r5, r6, r8, r9, sl, fp, sp}^
 79c:	2f697062 	svccs	0x00697062
 7a0:	66617473 			; <UNDEFINED> instruction: 0x66617473
 7a4:	72702d66 	rsbsvc	r2, r0, #6528	; 0x1980
 7a8:	74617669 	strbtvc	r7, [r1], #-1641	; 0xfffff997
 7ac:	61620065 	cmnvs	r2, r5, rrx
 7b0:	61006475 	tstvs	r0, r5, ror r4
 7b4:	655f7875 	ldrbvs	r7, [pc, #-2165]	; ffffff47 <__bss_end__+0xffff5b7f>
 7b8:	6c62616e 	stfvse	f6, [r2], #-440	; 0xfffffe48
 7bc:	75007365 	strvc	r7, [r0, #-869]	; 0xfffffc9b
 7c0:	5f747261 	svcpl	0x00747261
 7c4:	63746567 	cmnvs	r4, #432013312	; 0x19c00000
 7c8:	554e4700 	strbpl	r4, [lr, #-1792]	; 0xfffff900
 7cc:	39394320 	ldmdbcc	r9!, {r5, r8, r9, lr}
 7d0:	2e303120 	rsfcssp	f3, f0, f0
 7d4:	20312e33 	eorscs	r2, r1, r3, lsr lr
 7d8:	31323032 	teqcc	r2, r2, lsr r0
 7dc:	34323830 	ldrtcc	r3, [r2], #-2096	; 0xfffff7d0
 7e0:	65722820 	ldrbvs	r2, [r2, #-2080]!	; 0xfffff7e0
 7e4:	7361656c 	cmnvc	r1, #108, 10	; 0x1b000000
 7e8:	2d202965 			; <UNDEFINED> instruction: 0x2d202965
 7ec:	7570636d 	ldrbvc	r6, [r0, #-877]!	; 0xfffffc93
 7f0:	6d72613d 	ldfvse	f6, [r2, #-244]!	; 0xffffff0c
 7f4:	36373131 			; <UNDEFINED> instruction: 0x36373131
 7f8:	2d667a6a 	vstmdbcs	r6!, {s15-s120}
 7fc:	6d2d2073 	stcvs	0, cr2, [sp, #-460]!	; 0xfffffe34
 800:	656e7574 	strbvs	r7, [lr, #-1396]!	; 0xfffffa8c
 804:	6d72613d 	ldfvse	f6, [r2, #-244]!	; 0xffffff0c
 808:	36373131 			; <UNDEFINED> instruction: 0x36373131
 80c:	2d667a6a 	vstmdbcs	r6!, {s15-s120}
 810:	6d2d2073 	stcvs	0, cr2, [sp, #-460]!	; 0xfffffe34
 814:	616f6c66 	cmnvs	pc, r6, ror #24
 818:	62612d74 	rsbvs	r2, r1, #116, 26	; 0x1d00
 81c:	6f733d69 	svcvs	0x00733d69
 820:	2d207466 	cfstrscs	mvf7, [r0, #-408]!	; 0xfffffe68
 824:	6d72616d 	ldfvse	f6, [r2, #-436]!	; 0xfffffe4c
 828:	616d2d20 	cmnvs	sp, r0, lsr #26
 82c:	3d686372 	stclcc	3, cr6, [r8, #-456]!	; 0xfffffe38
 830:	766d7261 	strbtvc	r7, [sp], -r1, ror #4
 834:	207a6b36 	rsbscs	r6, sl, r6, lsr fp
 838:	6467672d 	strbtvs	r6, [r7], #-1837	; 0xfffff8d3
 83c:	4f2d2062 	svcmi	0x002d2062
 840:	732d2067 			; <UNDEFINED> instruction: 0x732d2067
 844:	673d6474 			; <UNDEFINED> instruction: 0x673d6474
 848:	3939756e 	ldmdbcc	r9!, {r1, r2, r3, r5, r6, r8, sl, ip, sp, lr}
 84c:	66662d20 	strbtvs	r2, [r6], -r0, lsr #26
 850:	73656572 	cmnvc	r5, #478150656	; 0x1c800000
 854:	646e6174 	strbtvs	r6, [lr], #-372	; 0xfffffe8c
 858:	00676e69 	rsbeq	r6, r7, r9, ror #28
 85c:	6c746e63 	ldclvs	14, cr6, [r4], #-396	; 0xfffffe74
 860:	72617500 	rsbvc	r7, r1, #0, 10
 864:	69645f74 	stmdbvs	r4!, {r2, r4, r5, r6, r8, r9, sl, fp, ip, lr}^
 868:	6c626173 	stfvse	f6, [r2], #-460	; 0xfffffe34
 86c:	61750065 	cmnvs	r5, r5, rrx
 870:	685f7472 	ldmdavs	pc, {r1, r4, r5, r6, sl, ip, sp, lr}^	; <UNPREDICTABLE>
 874:	645f7361 	ldrbvs	r7, [pc], #-865	; 87c <__code_start__-0x7784>
 878:	00617461 	rsbeq	r7, r1, r1, ror #8
 87c:	4f495047 	svcmi	0x00495047
 880:	4e55465f 	mrcmi	6, 2, r4, cr5, cr15, {2}
 884:	4c415f43 	mcrrmi	15, 4, r5, r1, cr3
 888:	6f003454 	svcvs	0x00003454
 88c:	6e695f72 	mcrvs	15, 3, r5, cr9, cr2, {3}
 890:	73003233 	movwvc	r3, #563	; 0x233
 894:	74617263 	strbtvc	r7, [r1], #-611	; 0xfffffd9d
 898:	75006863 	strvc	r6, [r0, #-2147]	; 0xfffff79d
 89c:	00747261 	rsbseq	r7, r4, r1, ror #4
 8a0:	5f646e61 	svcpl	0x00646e61
 8a4:	32336e69 	eorscc	r6, r3, #1680	; 0x690
 8a8:	72617500 	rsbvc	r7, r1, #0, 10
 8ac:	75705f74 	ldrbvc	r5, [r0, #-3956]!	; 0xfffff08c
 8b0:	47006374 	smlsdxmi	r0, r4, r3, r6
 8b4:	5f4f4950 	svcpl	0x004f4950
 8b8:	434e5546 	movtmi	r5, #58694	; 0xe546
 8bc:	504e495f 	subpl	r4, lr, pc, asr r9
 8c0:	67005455 	smlsdvs	r0, r5, r4, r5
 8c4:	5f6f6970 	svcpl	0x006f6970
 8c8:	5f746573 	svcpl	0x00746573
 8cc:	636e7566 	cmnvs	lr, #427819008	; 0x19800000
 8d0:	6e6f6974 			; <UNDEFINED> instruction: 0x6e6f6974
 8d4:	74656700 	strbtvc	r6, [r5], #-1792	; 0xfffff900
 8d8:	6b003233 	blvs	d1ac <__bss_end__+0x2de4>
 8dc:	6c6c616d 	stfvse	f6, [ip], #-436	; 0xfffffe4c
 8e0:	685f636f 	ldmdavs	pc, {r0, r1, r2, r3, r5, r6, r8, r9, sp, lr}^	; <UNPREDICTABLE>
 8e4:	5f706165 	svcpl	0x00706165
 8e8:	72617473 	rsbvc	r7, r1, #1929379840	; 0x73000000
 8ec:	616d0074 	smcvs	53252	; 0xd004
 8f0:	626e5f78 	rsbvs	r5, lr, #120, 30	; 0x1e0
 8f4:	73657479 	cmnvc	r5, #2030043136	; 0x79000000
 8f8:	64615f00 	strbtvs	r5, [r1], #-3840	; 0xfffff100
 8fc:	68007264 	stmdavs	r0, {r2, r5, r6, r9, ip, sp, lr}
 900:	5f706165 	svcpl	0x00706165
 904:	0078616d 	rsbseq	r6, r8, sp, ror #2
 908:	6572666b 	ldrbvs	r6, [r2, #-1643]!	; 0xfffff995
 90c:	6c615f65 	stclvs	15, cr5, [r1], #-404	; 0xfffffe6c
 910:	6f72006c 	svcvs	0x0072006c
 914:	75646e75 	strbvc	r6, [r4, #-3701]!	; 0xfffff18b
 918:	65680070 	strbvs	r0, [r8, #-112]!	; 0xffffff90
 91c:	69007061 	stmdbvs	r0, {r0, r5, r6, ip, sp, lr}
 920:	5f74696e 	svcpl	0x0074696e
 924:	666b0070 			; <UNDEFINED> instruction: 0x666b0070
 928:	5f656572 	svcpl	0x00656572
 92c:	00706f70 	rsbseq	r6, r0, r0, ror pc
 930:	67696c61 	strbvs	r6, [r9, -r1, ror #24]!
 934:	6e656d6e 	cdpvs	13, 6, cr6, cr5, cr14, {3}
 938:	616d0074 	smcvs	53252	; 0xd004
 93c:	33755f78 	cmncc	r5, #120, 30	; 0x1e0
 940:	6e4f0032 	mcrvs	0, 2, r0, cr15, cr2, {1}
 944:	00424d65 	subeq	r4, r2, r5, ror #26
 948:	6c616d6b 	stclvs	13, cr6, [r1], #-428	; 0xfffffe54
 94c:	5f636f6c 	svcpl	0x00636f6c
 950:	70616568 	rsbvc	r6, r1, r8, ror #10
 954:	646e655f 	strbtvs	r6, [lr], #-1375	; 0xfffffaa1
 958:	616d6b00 	cmnvs	sp, r0, lsl #22
 95c:	636f6c6c 	cmnvs	pc, #108, 24	; 0x6c00
 960:	746f6e5f 	strbtvc	r6, [pc], #-3679	; 968 <__code_start__-0x7698>
 964:	6f72657a 	svcvs	0x0072657a
 968:	5f736900 	svcpl	0x00736900
 96c:	32776f70 	rsbscc	r6, r7, #112, 30	; 0x1c0
 970:	616d6b00 	cmnvs	sp, r0, lsl #22
 974:	636f6c6c 	cmnvs	pc, #108, 24	; 0x6c00
 978:	6b00632e 	blvs	19638 <__bss_end__+0xf270>
 97c:	6c6c616d 	stfvse	f6, [ip], #-436	; 0xfffffe4c
 980:	695f636f 	ldmdbvs	pc, {r0, r1, r2, r3, r5, r6, r8, r9, sp, lr}^	; <UNPREDICTABLE>
 984:	0074696e 	rsbseq	r6, r4, lr, ror #18
 988:	615f7369 	cmpvs	pc, r9, ror #6
 98c:	6e67696c 	vnmulvs.f16	s13, s14, s25	; <UNPREDICTABLE>
 990:	6b006465 	blvs	19b2c <__bss_end__+0xf764>
 994:	6c6c616d 	stfvse	f6, [ip], #-436	; 0xfffffe4c
 998:	685f636f 	ldmdavs	pc, {r0, r1, r2, r3, r5, r6, r8, r9, sp, lr}^	; <UNPREDICTABLE>
 99c:	5f706165 	svcpl	0x00706165
 9a0:	00727470 	rsbseq	r7, r2, r0, ror r4
 9a4:	6c616d6b 	stclvs	13, cr6, [r1], #-428	; 0xfffffe54
 9a8:	5f636f6c 	svcpl	0x00636f6c
 9ac:	74696e69 	strbtvc	r6, [r9], #-3689	; 0xfffff197
 9b0:	7465735f 	strbtvc	r7, [r5], #-863	; 0xfffffca1
 9b4:	6174735f 	cmnvs	r4, pc, asr r3
 9b8:	72007472 	andvc	r7, r0, #1912602624	; 0x72000000
 9bc:	725f6970 	subsvc	r6, pc, #112, 18	; 0x1c0000
 9c0:	74657365 	strbtvc	r7, [r5], #-869	; 0xfffffc9b
 9c4:	7475705f 	ldrbtvc	r7, [r5], #-95	; 0xffffffa1
 9c8:	6d6b0063 	stclvs	0, cr0, [fp, #-396]!	; 0xfffffe74
 9cc:	6f6c6c61 	svcvs	0x006c6c61
 9d0:	6c615f63 	stclvs	15, cr5, [r1], #-396	; 0xfffffe74
 9d4:	656e6769 	strbvs	r6, [lr, #-1897]!	; 0xfffff897
 9d8:	70670064 	rsbvc	r0, r7, r4, rrx
 9dc:	635f6f69 	cmpvs	pc, #420	; 0x1a4
 9e0:	0030726c 	eorseq	r7, r0, ip, ror #4
 9e4:	6f697067 	svcvs	0x00697067
 9e8:	7465735f 	strbtvc	r7, [r5], #-863	; 0xfffffca1
 9ec:	70670030 	rsbvc	r0, r7, r0, lsr r0
 9f0:	775f6f69 	ldrbvc	r6, [pc, -r9, ror #30]
 9f4:	65746972 	ldrbvs	r6, [r4, #-2418]!	; 0xfffff68e
 9f8:	56454400 	strbpl	r4, [r5], -r0, lsl #8
 9fc:	4c41565f 	mcrrmi	6, 5, r5, r1, cr15
 a00:	67003233 	smladxvs	r0, r3, r2, r3
 a04:	5f6f6970 	svcpl	0x006f6970
 a08:	64616572 	strbtvs	r6, [r1], #-1394	; 0xfffffa8e
 a0c:	732f2e00 			; <UNDEFINED> instruction: 0x732f2e00
 a10:	672f6372 			; <UNDEFINED> instruction: 0x672f6372
 a14:	2e6f6970 			; <UNDEFINED> instruction: 0x2e6f6970
 a18:	70670063 	rsbvc	r0, r7, r3, rrx
 a1c:	735f6f69 	cmpvc	pc, #420	; 0x1a4
 a20:	695f7465 	ldmdbvs	pc, {r0, r2, r5, r6, sl, ip, sp, lr}^	; <UNPREDICTABLE>
 a24:	7475706e 	ldrbtvc	r7, [r5], #-110	; 0xffffff92
 a28:	69706700 	ldmdbvs	r0!, {r8, r9, sl, sp, lr}^
 a2c:	65735f6f 	ldrbvs	r5, [r3, #-3951]!	; 0xfffff091
 a30:	666f5f74 	uqsub16vs	r5, pc, r4	; <UNPREDICTABLE>
 a34:	70670066 	rsbvc	r0, r7, r6, rrx
 a38:	735f6f69 	cmpvc	pc, #420	; 0x1a4
 a3c:	6f5f7465 	svcvs	0x005f7465
 a40:	75707475 	ldrbvc	r7, [r0, #-1141]!	; 0xfffffb8b
 a44:	70670074 	rsbvc	r0, r7, r4, ror r0
 a48:	665f6f69 	ldrbvs	r6, [pc], -r9, ror #30
 a4c:	5f636e75 	svcpl	0x00636e75
 a50:	70670074 	rsbvc	r0, r7, r4, ror r0
 a54:	6c5f6f69 	mrrcvs	15, 6, r6, pc, cr9	; <UNPREDICTABLE>
 a58:	00307665 	eorseq	r7, r0, r5, ror #12
 a5c:	6b6e6162 	blvs	1b98fec <__bss_end__+0x1b8ec24>
 a60:	69706700 	ldmdbvs	r0!, {r8, r9, sl, sp, lr}^
 a64:	65735f6f 	ldrbvs	r5, [r3, #-3951]!	; 0xfffff091
 a68:	6e6f5f74 	mcrvs	15, 3, r5, cr15, cr4, {3}
 a6c:	746e6900 	strbtvc	r6, [lr], #-2304	; 0xfffff700
 a70:	616e7265 	cmnvs	lr, r5, ror #4
 a74:	75705f6c 	ldrbvc	r5, [r0, #-3948]!	; 0xfffff094
 a78:	61686374 	smcvs	34356	; 0x8634
 a7c:	70720072 	rsbsvc	r0, r2, r2, ror r0
 a80:	65735f69 	ldrbvs	r5, [r3, #-3945]!	; 0xfffff097
 a84:	75705f74 	ldrbvc	r5, [r0, #-3956]!	; 0xfffff08c
 a88:	2e006374 	mcrcs	3, 0, r6, cr0, cr4, {3}
 a8c:	62696c2f 	rsbvs	r6, r9, #12032	; 0x2f00
 a90:	75702f63 	ldrbvc	r2, [r0, #-3939]!	; 0xfffff09d
 a94:	61686374 	smcvs	34356	; 0x8634
 a98:	00632e72 	rsbeq	r2, r3, r2, ror lr
 a9c:	696c2f2e 	stmdbvs	ip!, {r1, r2, r3, r5, r8, r9, sl, fp, sp}^
 aa0:	732f6362 			; <UNDEFINED> instruction: 0x732f6362
 aa4:	61637274 	smcvs	14116	; 0x3724
 aa8:	00632e74 	rsbeq	r2, r3, r4, ror lr
 aac:	74736564 	ldrbtvc	r6, [r3], #-1380	; 0xfffffa9c
 ab0:	6c2f2e00 	stcvs	14, cr2, [pc], #-0	; ab8 <__code_start__-0x7548>
 ab4:	2f636269 	svccs	0x00636269
 ab8:	63727473 	cmnvs	r2, #1929379840	; 0x73000000
 abc:	632e706d 			; <UNDEFINED> instruction: 0x632e706d
 ac0:	6c2f2e00 	stcvs	14, cr2, [pc], #-0	; ac8 <__code_start__-0x7538>
 ac4:	2f636269 	svccs	0x00636269
 ac8:	63727473 	cmnvs	r2, #1929379840	; 0x73000000
 acc:	632e7970 			; <UNDEFINED> instruction: 0x632e7970
 ad0:	6c2f2e00 	stcvs	14, cr2, [pc], #-0	; ad8 <__code_start__-0x7528>
 ad4:	2f636269 	svccs	0x00636269
 ad8:	6e727473 	mrcvs	4, 3, r7, cr2, cr3, {3}
 adc:	2e706d63 	cdpcs	13, 7, cr6, cr0, cr3, {3}
 ae0:	2f2e0063 	svccs	0x002e0063
 ae4:	66617473 			; <UNDEFINED> instruction: 0x66617473
 ae8:	72732d66 	rsbsvc	r2, r3, #6528	; 0x1980
 aec:	65642f63 	strbvs	r2, [r4, #-3939]!	; 0xfffff09d
 af0:	6c756166 	ldfvse	f6, [r5], #-408	; 0xfffffe68
 af4:	65722d74 	ldrbvs	r2, [r2, #-3444]!	; 0xfffff28c
 af8:	746f6f62 	strbtvc	r6, [pc], #-3938	; b00 <__code_start__-0x7500>
 afc:	6c61632d 	stclvs	3, cr6, [r1], #-180	; 0xffffff4c
 b00:	74756f6c 	ldrbtvc	r6, [r5], #-3948	; 0xfffff094
 b04:	Address 0x0000000000000b04 is out of bounds.


Disassembly of section .debug_frame:

00000000 <.debug_frame>:
   0:	0000000c 	andeq	r0, r0, ip
   4:	ffffffff 			; <UNDEFINED> instruction: 0xffffffff
   8:	7c020001 	stcvc	0, cr0, [r2], {1}
   c:	000d0c0e 	andeq	r0, sp, lr, lsl #24
  10:	0000001c 	andeq	r0, r0, ip, lsl r0
  14:	00000000 	andeq	r0, r0, r0
  18:	00008038 	andeq	r8, r0, r8, lsr r0
  1c:	0000005c 	andeq	r0, r0, ip, asr r0
  20:	840c0e42 	strhi	r0, [ip], #-3650	; 0xfffff1be
  24:	8e028503 	cfsh32hi	mvfx8, mvfx2, #3
  28:	280e4201 	stmdacs	lr, {r0, r9, lr}
  2c:	000c0e64 	andeq	r0, ip, r4, ror #28
  30:	0000000c 	andeq	r0, r0, ip
  34:	ffffffff 			; <UNDEFINED> instruction: 0xffffffff
  38:	7c020001 	stcvc	0, cr0, [r2], {1}
  3c:	000d0c0e 	andeq	r0, sp, lr, lsl #24
  40:	00000014 	andeq	r0, r0, r4, lsl r0
  44:	00000030 	andeq	r0, r0, r0, lsr r0
  48:	00008094 	muleq	r0, r4, r0
  4c:	000000bc 	strheq	r0, [r0], -ip
  50:	8e040e42 	cdphi	14, 0, cr0, cr4, cr2, {2}
  54:	00000001 	andeq	r0, r0, r1
  58:	00000014 	andeq	r0, r0, r4, lsl r0
  5c:	00000030 	andeq	r0, r0, r0, lsr r0
  60:	00008150 	andeq	r8, r0, r0, asr r1
  64:	00000044 	andeq	r0, r0, r4, asr #32
  68:	84080e42 	strhi	r0, [r8], #-3650	; 0xfffff1be
  6c:	00018e02 	andeq	r8, r1, r2, lsl #28
  70:	00000014 	andeq	r0, r0, r4, lsl r0
  74:	00000030 	andeq	r0, r0, r0, lsr r0
  78:	00008194 	muleq	r0, r4, r1
  7c:	000000ac 	andeq	r0, r0, ip, lsr #1
  80:	84080e42 	strhi	r0, [r8], #-3650	; 0xfffff1be
  84:	00018e02 	andeq	r8, r1, r2, lsl #28
  88:	0000000c 	andeq	r0, r0, ip
  8c:	ffffffff 			; <UNDEFINED> instruction: 0xffffffff
  90:	7c020001 	stcvc	0, cr0, [r2], {1}
  94:	000d0c0e 	andeq	r0, sp, lr, lsl #24
  98:	00000014 	andeq	r0, r0, r4, lsl r0
  9c:	00000088 	andeq	r0, r0, r8, lsl #1
  a0:	00008240 	andeq	r8, r0, r0, asr #4
  a4:	0000000c 	andeq	r0, r0, ip
  a8:	84080e42 	strhi	r0, [r8], #-3650	; 0xfffff1be
  ac:	00018e02 	andeq	r8, r1, r2, lsl #28
  b0:	0000000c 	andeq	r0, r0, ip
  b4:	ffffffff 			; <UNDEFINED> instruction: 0xffffffff
  b8:	7c020001 	stcvc	0, cr0, [r2], {1}
  bc:	000d0c0e 	andeq	r0, sp, lr, lsl #24
  c0:	0000000c 	andeq	r0, r0, ip
  c4:	000000b0 	strheq	r0, [r0], -r0	; <UNPREDICTABLE>
  c8:	0000824c 	andeq	r8, r0, ip, asr #4
  cc:	00000010 	andeq	r0, r0, r0, lsl r0
  d0:	0000000c 	andeq	r0, r0, ip
  d4:	000000b0 	strheq	r0, [r0], -r0	; <UNPREDICTABLE>
  d8:	0000825c 	andeq	r8, r0, ip, asr r2
  dc:	00000010 	andeq	r0, r0, r0, lsl r0
  e0:	00000020 	andeq	r0, r0, r0, lsr #32
  e4:	000000b0 	strheq	r0, [r0], -r0	; <UNPREDICTABLE>
  e8:	0000826c 	andeq	r8, r0, ip, ror #4
  ec:	000000a4 	andeq	r0, r0, r4, lsr #1
  f0:	840c0e42 	strhi	r0, [ip], #-3650	; 0xfffff1be
  f4:	8e028503 	cfsh32hi	mvfx8, mvfx2, #3
  f8:	180e4201 	stmdane	lr, {r0, r9, lr}
  fc:	0c0e0a5e 			; <UNDEFINED> instruction: 0x0c0e0a5e
 100:	00000b42 	andeq	r0, r0, r2, asr #22
 104:	0000000c 	andeq	r0, r0, ip
 108:	000000b0 	strheq	r0, [r0], -r0	; <UNPREDICTABLE>
 10c:	00008310 	andeq	r8, r0, r0, lsl r3
 110:	00000008 	andeq	r0, r0, r8
 114:	00000014 	andeq	r0, r0, r4, lsl r0
 118:	000000b0 	strheq	r0, [r0], -r0	; <UNPREDICTABLE>
 11c:	00008318 	andeq	r8, r0, r8, lsl r3
 120:	00000018 	andeq	r0, r0, r8, lsl r0
 124:	84080e42 	strhi	r0, [r8], #-3650	; 0xfffff1be
 128:	00018e02 	andeq	r8, r1, r2, lsl #28
 12c:	0000000c 	andeq	r0, r0, ip
 130:	000000b0 	strheq	r0, [r0], -r0	; <UNPREDICTABLE>
 134:	00008330 	andeq	r8, r0, r0, lsr r3
 138:	0000003c 	andeq	r0, r0, ip, lsr r0
 13c:	00000018 	andeq	r0, r0, r8, lsl r0
 140:	000000b0 	strheq	r0, [r0], -r0	; <UNPREDICTABLE>
 144:	0000836c 	andeq	r8, r0, ip, ror #6
 148:	00000060 	andeq	r0, r0, r0, rrx
 14c:	84100e42 	ldrhi	r0, [r0], #-3650	; 0xfffff1be
 150:	86038504 	strhi	r8, [r3], -r4, lsl #10
 154:	00018e02 	andeq	r8, r1, r2, lsl #28
 158:	00000024 	andeq	r0, r0, r4, lsr #32
 15c:	000000b0 	strheq	r0, [r0], -r0	; <UNPREDICTABLE>
 160:	000083cc 	andeq	r8, r0, ip, asr #7
 164:	000000ec 	andeq	r0, r0, ip, ror #1
 168:	84180e42 	ldrhi	r0, [r8], #-3650	; 0xfffff1be
 16c:	86058506 	strhi	r8, [r5], -r6, lsl #10
 170:	88038704 	stmdahi	r3, {r2, r8, r9, sl, pc}
 174:	42018e02 	andmi	r8, r1, #2, 28
 178:	0a7c300e 	beq	1f0c1b8 <__bss_end__+0x1f01df0>
 17c:	0b42180e 	bleq	10861bc <__bss_end__+0x107bdf4>
 180:	00000020 	andeq	r0, r0, r0, lsr #32
 184:	000000b0 	strheq	r0, [r0], -r0	; <UNPREDICTABLE>
 188:	000084b8 			; <UNDEFINED> instruction: 0x000084b8
 18c:	00000090 	muleq	r0, r0, r0
 190:	84100e42 	ldrhi	r0, [r0], #-3650	; 0xfffff1be
 194:	86038504 	strhi	r8, [r3], -r4, lsl #10
 198:	42018e02 	andmi	r8, r1, #2, 28
 19c:	0e7c200e 	cdpeq	0, 7, cr2, cr12, cr14, {0}
 1a0:	00000010 	andeq	r0, r0, r0, lsl r0
 1a4:	0000000c 	andeq	r0, r0, ip
 1a8:	ffffffff 			; <UNDEFINED> instruction: 0xffffffff
 1ac:	7c020001 	stcvc	0, cr0, [r2], {1}
 1b0:	000d0c0e 	andeq	r0, sp, lr, lsl #24
 1b4:	00000014 	andeq	r0, r0, r4, lsl r0
 1b8:	000001a4 	andeq	r0, r0, r4, lsr #3
 1bc:	00008548 	andeq	r8, r0, r8, asr #10
 1c0:	00000078 	andeq	r0, r0, r8, ror r0
 1c4:	84080e42 	strhi	r0, [r8], #-3650	; 0xfffff1be
 1c8:	00018e02 	andeq	r8, r1, r2, lsl #28
 1cc:	0000000c 	andeq	r0, r0, ip
 1d0:	ffffffff 			; <UNDEFINED> instruction: 0xffffffff
 1d4:	7c020001 	stcvc	0, cr0, [r2], {1}
 1d8:	000d0c0e 	andeq	r0, sp, lr, lsl #24
 1dc:	00000034 	andeq	r0, r0, r4, lsr r0
 1e0:	000001cc 	andeq	r0, r0, ip, asr #3
 1e4:	000085c0 	andeq	r8, r0, r0, asr #11
 1e8:	00000058 	andeq	r0, r0, r8, asr r0
 1ec:	80100e42 	andshi	r0, r0, r2, asr #28
 1f0:	82038104 	andhi	r8, r3, #1
 1f4:	42018302 	andmi	r8, r1, #134217728	; 0x8000000
 1f8:	07841c0e 	streq	r1, [r4, lr, lsl #24]
 1fc:	058e0685 	streq	r0, [lr, #1669]	; 0x685
 200:	5a280e44 	bpl	a03b18 <__bss_end__+0x9f9750>
 204:	ce421c0e 	cdpgt	12, 4, cr1, cr2, cr14, {0}
 208:	100ec4c5 	andne	ip, lr, r5, asr #9
 20c:	c1c2c342 	bicgt	ip, r2, r2, asr #6
 210:	00000ec0 	andeq	r0, r0, r0, asr #29
 214:	0000000c 	andeq	r0, r0, ip
 218:	ffffffff 			; <UNDEFINED> instruction: 0xffffffff
 21c:	7c020001 	stcvc	0, cr0, [r2], {1}
 220:	000d0c0e 	andeq	r0, sp, lr, lsl #24
 224:	00000018 	andeq	r0, r0, r8, lsl r0
 228:	00000214 	andeq	r0, r0, r4, lsl r2
 22c:	00008618 	andeq	r8, r0, r8, lsl r6
 230:	00000038 	andeq	r0, r0, r8, lsr r0
 234:	84100e42 	ldrhi	r0, [r0], #-3650	; 0xfffff1be
 238:	86038504 	strhi	r8, [r3], -r4, lsl #10
 23c:	00018e02 	andeq	r8, r1, r2, lsl #28
 240:	0000000c 	andeq	r0, r0, ip
 244:	ffffffff 			; <UNDEFINED> instruction: 0xffffffff
 248:	7c020001 	stcvc	0, cr0, [r2], {1}
 24c:	000d0c0e 	andeq	r0, sp, lr, lsl #24
 250:	0000002c 	andeq	r0, r0, ip, lsr #32
 254:	00000240 	andeq	r0, r0, r0, asr #4
 258:	00008650 	andeq	r8, r0, r0, asr r6
 25c:	00000328 	andeq	r0, r0, r8, lsr #6
 260:	84180e42 	ldrhi	r0, [r8], #-3650	; 0xfffff1be
 264:	86058506 	strhi	r8, [r5], -r6, lsl #10
 268:	88038704 	stmdahi	r3, {r2, r8, r9, sl, pc}
 26c:	46018e02 	strmi	r8, [r1], -r2, lsl #28
 270:	c002600e 	andgt	r6, r2, lr
 274:	42180e0a 	andsmi	r0, r8, #160	; 0xa0
 278:	0a8e020b 	beq	fe380aac <__bss_end__+0xfe3766e4>
 27c:	0b42180e 	bleq	10862bc <__bss_end__+0x107bef4>
 280:	00000014 	andeq	r0, r0, r4, lsl r0
 284:	00000240 	andeq	r0, r0, r0, asr #4
 288:	00008978 	andeq	r8, r0, r8, ror r9
 28c:	00000060 	andeq	r0, r0, r0, rrx
 290:	8e040e52 	mcrhi	14, 0, r0, cr4, cr2, {2}
 294:	100e4401 	andne	r4, lr, r1, lsl #8
 298:	0000002c 	andeq	r0, r0, ip, lsr #32
 29c:	00000240 	andeq	r0, r0, r0, asr #4
 2a0:	000089d8 	ldrdeq	r8, [r0], -r8	; <UNPREDICTABLE>
 2a4:	0000062c 	andeq	r0, r0, ip, lsr #12
 2a8:	84240e42 	strthi	r0, [r4], #-3650	; 0xfffff1be
 2ac:	86088509 	strhi	r8, [r8], -r9, lsl #10
 2b0:	88068707 	stmdahi	r6, {r0, r1, r2, r8, r9, sl, pc}
 2b4:	8a048905 	bhi	1226d0 <__bss_end__+0x118308>
 2b8:	8e028b03 	vmlahi.f64	d8, d2, d3
 2bc:	c00e5201 	andgt	r5, lr, r1, lsl #4
 2c0:	0a860202 	beq	fe180ad0 <__bss_end__+0xfe176708>
 2c4:	0b42240e 	bleq	1089304 <__bss_end__+0x107ef3c>
 2c8:	0000000c 	andeq	r0, r0, ip
 2cc:	ffffffff 			; <UNDEFINED> instruction: 0xffffffff
 2d0:	7c020001 	stcvc	0, cr0, [r2], {1}
 2d4:	000d0c0e 	andeq	r0, sp, lr, lsl #24
 2d8:	00000014 	andeq	r0, r0, r4, lsl r0
 2dc:	000002c8 	andeq	r0, r0, r8, asr #5
 2e0:	00009004 	andeq	r9, r0, r4
 2e4:	0000002c 	andeq	r0, r0, ip, lsr #32
 2e8:	84080e44 	strhi	r0, [r8], #-3652	; 0xfffff1bc
 2ec:	00018e02 	andeq	r8, r1, r2, lsl #28
 2f0:	0000000c 	andeq	r0, r0, ip
 2f4:	ffffffff 			; <UNDEFINED> instruction: 0xffffffff
 2f8:	7c020001 	stcvc	0, cr0, [r2], {1}
 2fc:	000d0c0e 	andeq	r0, sp, lr, lsl #24
 300:	00000018 	andeq	r0, r0, r8, lsl r0
 304:	000002f0 	strdeq	r0, [r0], -r0	; <UNPREDICTABLE>
 308:	00009030 	andeq	r9, r0, r0, lsr r0
 30c:	000000f8 	strdeq	r0, [r0], -r8
 310:	84100e42 	ldrhi	r0, [r0], #-3650	; 0xfffff1be
 314:	86038504 	strhi	r8, [r3], -r4, lsl #10
 318:	00018e02 	andeq	r8, r1, r2, lsl #28
 31c:	0000000c 	andeq	r0, r0, ip
 320:	ffffffff 			; <UNDEFINED> instruction: 0xffffffff
 324:	7c020001 	stcvc	0, cr0, [r2], {1}
 328:	000d0c0e 	andeq	r0, sp, lr, lsl #24
 32c:	0000000c 	andeq	r0, r0, ip
 330:	0000031c 	andeq	r0, r0, ip, lsl r3
 334:	00009128 	andeq	r9, r0, r8, lsr #2
 338:	00000004 	andeq	r0, r0, r4
 33c:	0000000c 	andeq	r0, r0, ip
 340:	ffffffff 			; <UNDEFINED> instruction: 0xffffffff
 344:	7c020001 	stcvc	0, cr0, [r2], {1}
 348:	000d0c0e 	andeq	r0, sp, lr, lsl #24
 34c:	0000000c 	andeq	r0, r0, ip
 350:	0000033c 	andeq	r0, r0, ip, lsr r3
 354:	0000912c 	andeq	r9, r0, ip, lsr #2
 358:	00000018 	andeq	r0, r0, r8, lsl r0
 35c:	0000000c 	andeq	r0, r0, ip
 360:	0000033c 	andeq	r0, r0, ip, lsr r3
 364:	00009144 	andeq	r9, r0, r4, asr #2
 368:	00000014 	andeq	r0, r0, r4, lsl r0
 36c:	00000014 	andeq	r0, r0, r4, lsl r0
 370:	0000033c 	andeq	r0, r0, ip, lsr r3
 374:	00009158 	andeq	r9, r0, r8, asr r1
 378:	00000060 	andeq	r0, r0, r0, rrx
 37c:	84080e42 	strhi	r0, [r8], #-3650	; 0xfffff1be
 380:	00018e02 	andeq	r8, r1, r2, lsl #28
 384:	0000000c 	andeq	r0, r0, ip
 388:	ffffffff 			; <UNDEFINED> instruction: 0xffffffff
 38c:	7c020001 	stcvc	0, cr0, [r2], {1}
 390:	000d0c0e 	andeq	r0, sp, lr, lsl #24
 394:	0000000c 	andeq	r0, r0, ip
 398:	00000384 	andeq	r0, r0, r4, lsl #7
 39c:	000091b8 			; <UNDEFINED> instruction: 0x000091b8
 3a0:	0000000c 	andeq	r0, r0, ip
 3a4:	00000014 	andeq	r0, r0, r4, lsl r0
 3a8:	00000384 	andeq	r0, r0, r4, lsl #7
 3ac:	000091c4 	andeq	r9, r0, r4, asr #3
 3b0:	00000024 	andeq	r0, r0, r4, lsr #32
 3b4:	84080e42 	strhi	r0, [r8], #-3650	; 0xfffff1be
 3b8:	00018e02 	andeq	r8, r1, r2, lsl #28
 3bc:	0000001c 	andeq	r0, r0, ip, lsl r0
 3c0:	00000384 	andeq	r0, r0, r4, lsl #7
 3c4:	000091e8 	andeq	r9, r0, r8, ror #3
 3c8:	00000048 	andeq	r0, r0, r8, asr #32
 3cc:	84180e42 	ldrhi	r0, [r8], #-3650	; 0xfffff1be
 3d0:	86058506 	strhi	r8, [r5], -r6, lsl #10
 3d4:	88038704 	stmdahi	r3, {r2, r8, r9, sl, pc}
 3d8:	00018e02 	andeq	r8, r1, r2, lsl #28
 3dc:	0000001c 	andeq	r0, r0, ip, lsl r0
 3e0:	00000384 	andeq	r0, r0, r4, lsl #7
 3e4:	00009230 	andeq	r9, r0, r0, lsr r2
 3e8:	00000050 	andeq	r0, r0, r0, asr r0
 3ec:	84180e42 	ldrhi	r0, [r8], #-3650	; 0xfffff1be
 3f0:	86058506 	strhi	r8, [r5], -r6, lsl #10
 3f4:	88038704 	stmdahi	r3, {r2, r8, r9, sl, pc}
 3f8:	00018e02 	andeq	r8, r1, r2, lsl #28
 3fc:	0000001c 	andeq	r0, r0, ip, lsl r0
 400:	00000384 	andeq	r0, r0, r4, lsl #7
 404:	00009280 	andeq	r9, r0, r0, lsl #5
 408:	00000054 	andeq	r0, r0, r4, asr r0
 40c:	84180e42 	ldrhi	r0, [r8], #-3650	; 0xfffff1be
 410:	86058506 	strhi	r8, [r5], -r6, lsl #10
 414:	88038704 	stmdahi	r3, {r2, r8, r9, sl, pc}
 418:	00018e02 	andeq	r8, r1, r2, lsl #28
 41c:	0000000c 	andeq	r0, r0, ip
 420:	ffffffff 			; <UNDEFINED> instruction: 0xffffffff
 424:	7c020001 	stcvc	0, cr0, [r2], {1}
 428:	000d0c0e 	andeq	r0, sp, lr, lsl #24
 42c:	00000018 	andeq	r0, r0, r8, lsl r0
 430:	0000041c 	andeq	r0, r0, ip, lsl r4
 434:	000092d4 	ldrdeq	r9, [r0], -r4
 438:	00000020 	andeq	r0, r0, r0, lsr #32
 43c:	84100e42 	ldrhi	r0, [r0], #-3650	; 0xfffff1be
 440:	86038504 	strhi	r8, [r3], -r4, lsl #10
 444:	00018e02 	andeq	r8, r1, r2, lsl #28
 448:	00000018 	andeq	r0, r0, r8, lsl r0
 44c:	0000041c 	andeq	r0, r0, ip, lsl r4
 450:	000092f4 	strdeq	r9, [r0], -r4
 454:	00000020 	andeq	r0, r0, r0, lsr #32
 458:	84100e42 	ldrhi	r0, [r0], #-3650	; 0xfffff1be
 45c:	86038504 	strhi	r8, [r3], -r4, lsl #10
 460:	00018e02 	andeq	r8, r1, r2, lsl #28
 464:	00000014 	andeq	r0, r0, r4, lsl r0
 468:	0000041c 	andeq	r0, r0, ip, lsl r4
 46c:	00009314 	andeq	r9, r0, r4, lsl r3
 470:	000000b0 	strheq	r0, [r0], -r0	; <UNPREDICTABLE>
 474:	84080e42 	strhi	r0, [r8], #-3650	; 0xfffff1be
 478:	00018e02 	andeq	r8, r1, r2, lsl #28
 47c:	00000014 	andeq	r0, r0, r4, lsl r0
 480:	0000041c 	andeq	r0, r0, ip, lsl r4
 484:	000093c4 	andeq	r9, r0, r4, asr #7
 488:	00000018 	andeq	r0, r0, r8, lsl r0
 48c:	84080e42 	strhi	r0, [r8], #-3650	; 0xfffff1be
 490:	00018e02 	andeq	r8, r1, r2, lsl #28
 494:	00000014 	andeq	r0, r0, r4, lsl r0
 498:	0000041c 	andeq	r0, r0, ip, lsl r4
 49c:	000093dc 	ldrdeq	r9, [r0], -ip
 4a0:	00000020 	andeq	r0, r0, r0, lsr #32
 4a4:	84080e42 	strhi	r0, [r8], #-3650	; 0xfffff1be
 4a8:	00018e02 	andeq	r8, r1, r2, lsl #28
 4ac:	00000014 	andeq	r0, r0, r4, lsl r0
 4b0:	0000041c 	andeq	r0, r0, ip, lsl r4
 4b4:	000093fc 	strdeq	r9, [r0], -ip
 4b8:	00000030 	andeq	r0, r0, r0, lsr r0
 4bc:	84080e42 	strhi	r0, [r8], #-3650	; 0xfffff1be
 4c0:	00018e02 	andeq	r8, r1, r2, lsl #28
 4c4:	00000014 	andeq	r0, r0, r4, lsl r0
 4c8:	0000041c 	andeq	r0, r0, ip, lsl r4
 4cc:	0000942c 	andeq	r9, r0, ip, lsr #8
 4d0:	00000030 	andeq	r0, r0, r0, lsr r0
 4d4:	84080e42 	strhi	r0, [r8], #-3650	; 0xfffff1be
 4d8:	00018e02 	andeq	r8, r1, r2, lsl #28
 4dc:	00000014 	andeq	r0, r0, r4, lsl r0
 4e0:	0000041c 	andeq	r0, r0, ip, lsl r4
 4e4:	0000945c 	andeq	r9, r0, ip, asr r4
 4e8:	00000010 	andeq	r0, r0, r0, lsl r0
 4ec:	84080e42 	strhi	r0, [r8], #-3650	; 0xfffff1be
 4f0:	00018e02 	andeq	r8, r1, r2, lsl #28
 4f4:	00000014 	andeq	r0, r0, r4, lsl r0
 4f8:	0000041c 	andeq	r0, r0, ip, lsl r4
 4fc:	0000946c 	andeq	r9, r0, ip, ror #8
 500:	00000020 	andeq	r0, r0, r0, lsr #32
 504:	84080e42 	strhi	r0, [r8], #-3650	; 0xfffff1be
 508:	00018e02 	andeq	r8, r1, r2, lsl #28
 50c:	00000014 	andeq	r0, r0, r4, lsl r0
 510:	0000041c 	andeq	r0, r0, ip, lsl r4
 514:	0000948c 	andeq	r9, r0, ip, lsl #9
 518:	00000014 	andeq	r0, r0, r4, lsl r0
 51c:	84080e42 	strhi	r0, [r8], #-3650	; 0xfffff1be
 520:	00018e02 	andeq	r8, r1, r2, lsl #28
 524:	00000014 	andeq	r0, r0, r4, lsl r0
 528:	0000041c 	andeq	r0, r0, ip, lsl r4
 52c:	000094a0 	andeq	r9, r0, r0, lsr #9
 530:	00000024 	andeq	r0, r0, r4, lsr #32
 534:	84080e42 	strhi	r0, [r8], #-3650	; 0xfffff1be
 538:	00018e02 	andeq	r8, r1, r2, lsl #28
 53c:	0000000c 	andeq	r0, r0, ip
 540:	ffffffff 			; <UNDEFINED> instruction: 0xffffffff
 544:	7c020001 	stcvc	0, cr0, [r2], {1}
 548:	000d0c0e 	andeq	r0, sp, lr, lsl #24
 54c:	0000000c 	andeq	r0, r0, ip
 550:	0000053c 	andeq	r0, r0, ip, lsr r5
 554:	000094c4 	andeq	r9, r0, r4, asr #9
 558:	00000010 	andeq	r0, r0, r0, lsl r0
 55c:	0000000c 	andeq	r0, r0, ip
 560:	0000053c 	andeq	r0, r0, ip, lsr r5
 564:	000094d4 	ldrdeq	r9, [r0], -r4
 568:	00000010 	andeq	r0, r0, r0, lsl r0
 56c:	0000000c 	andeq	r0, r0, ip
 570:	0000053c 	andeq	r0, r0, ip, lsr r5
 574:	000094e4 	andeq	r9, r0, r4, ror #9
 578:	00000010 	andeq	r0, r0, r0, lsl r0
 57c:	0000001c 	andeq	r0, r0, ip, lsl r0
 580:	0000053c 	andeq	r0, r0, ip, lsr r5
 584:	000094f4 	strdeq	r9, [r0], -r4
 588:	0000009c 	muleq	r0, ip, r0
 58c:	8e040e42 	cdphi	14, 0, cr0, cr4, cr2, {2}
 590:	100e4201 	andne	r4, lr, r1, lsl #4
 594:	040e0a58 	streq	r0, [lr], #-2648	; 0xfffff5a8
 598:	00000b42 	andeq	r0, r0, r2, asr #22
 59c:	00000014 	andeq	r0, r0, r4, lsl r0
 5a0:	0000053c 	andeq	r0, r0, ip, lsr r5
 5a4:	00009590 	muleq	r0, r0, r5
 5a8:	00000058 	andeq	r0, r0, r8, asr r0
 5ac:	84080e42 	strhi	r0, [r8], #-3650	; 0xfffff1be
 5b0:	00018e02 	andeq	r8, r1, r2, lsl #28
 5b4:	0000001c 	andeq	r0, r0, ip, lsl r0
 5b8:	0000053c 	andeq	r0, r0, ip, lsr r5
 5bc:	000095e8 	andeq	r9, r0, r8, ror #11
 5c0:	00000098 	muleq	r0, r8, r0
 5c4:	8e040e42 	cdphi	14, 0, cr0, cr4, cr2, {2}
 5c8:	100e4201 	andne	r4, lr, r1, lsl #4
 5cc:	040e0a58 	streq	r0, [lr], #-2648	; 0xfffff5a8
 5d0:	00000b42 	andeq	r0, r0, r2, asr #22
 5d4:	00000020 	andeq	r0, r0, r0, lsr #32
 5d8:	0000053c 	andeq	r0, r0, ip, lsr r5
 5dc:	00009680 	andeq	r9, r0, r0, lsl #13
 5e0:	00000064 	andeq	r0, r0, r4, rrx
 5e4:	840c0e42 	strhi	r0, [ip], #-3650	; 0xfffff1be
 5e8:	8e028503 	cfsh32hi	mvfx8, mvfx2, #3
 5ec:	180e4201 	stmdane	lr, {r0, r9, lr}
 5f0:	0c0e0a54 			; <UNDEFINED> instruction: 0x0c0e0a54
 5f4:	00000b42 	andeq	r0, r0, r2, asr #22
 5f8:	0000001c 	andeq	r0, r0, ip, lsl r0
 5fc:	0000053c 	andeq	r0, r0, ip, lsr r5
 600:	000096e4 	andeq	r9, r0, r4, ror #13
 604:	00000118 	andeq	r0, r0, r8, lsl r1
 608:	8e040e42 	cdphi	14, 0, cr0, cr4, cr2, {2}
 60c:	100e4201 	andne	r4, lr, r1, lsl #4
 610:	040e0a6c 	streq	r0, [lr], #-2668	; 0xfffff594
 614:	00000b42 	andeq	r0, r0, r2, asr #22
 618:	0000000c 	andeq	r0, r0, ip
 61c:	0000053c 	andeq	r0, r0, ip, lsr r5
 620:	000097fc 	strdeq	r9, [r0], -ip
 624:	00000004 	andeq	r0, r0, r4
 628:	0000000c 	andeq	r0, r0, ip
 62c:	0000053c 	andeq	r0, r0, ip, lsr r5
 630:	00009800 	andeq	r9, r0, r0, lsl #16
 634:	00000014 	andeq	r0, r0, r4, lsl r0
 638:	00000014 	andeq	r0, r0, r4, lsl r0
 63c:	0000053c 	andeq	r0, r0, ip, lsr r5
 640:	00009814 	andeq	r9, r0, r4, lsl r8
 644:	00000060 	andeq	r0, r0, r0, rrx
 648:	8e040e58 	mcrhi	14, 0, r0, cr4, cr8, {2}
 64c:	100e4201 	andne	r4, lr, r1, lsl #4
 650:	0000000c 	andeq	r0, r0, ip
 654:	ffffffff 			; <UNDEFINED> instruction: 0xffffffff
 658:	7c020001 	stcvc	0, cr0, [r2], {1}
 65c:	000d0c0e 	andeq	r0, sp, lr, lsl #24
 660:	00000020 	andeq	r0, r0, r0, lsr #32
 664:	00000650 	andeq	r0, r0, r0, asr r6
 668:	00009874 	andeq	r9, r0, r4, ror r8
 66c:	00000060 	andeq	r0, r0, r0, rrx
 670:	84100e48 	ldrhi	r0, [r0], #-3656	; 0xfffff1b8
 674:	86038504 	strhi	r8, [r3], -r4, lsl #10
 678:	64018e02 	strvs	r8, [r1], #-3586	; 0xfffff1fe
 67c:	c4c5c6ce 	strbgt	ip, [r5], #1742	; 0x6ce
 680:	0000000e 	andeq	r0, r0, lr
 684:	00000020 	andeq	r0, r0, r0, lsr #32
 688:	00000650 	andeq	r0, r0, r0, asr r6
 68c:	000098d4 	ldrdeq	r9, [r0], -r4
 690:	00000058 	andeq	r0, r0, r8, asr r0
 694:	84100e46 	ldrhi	r0, [r0], #-3654	; 0xfffff1ba
 698:	86038504 	strhi	r8, [r3], -r4, lsl #10
 69c:	62018e02 	andvs	r8, r1, #2, 28
 6a0:	c4c5c6ce 	strbgt	ip, [r5], #1742	; 0x6ce
 6a4:	0000000e 	andeq	r0, r0, lr
 6a8:	0000000c 	andeq	r0, r0, ip
 6ac:	00000650 	andeq	r0, r0, r0, asr r6
 6b0:	0000992c 	andeq	r9, r0, ip, lsr #18
 6b4:	00000018 	andeq	r0, r0, r8, lsl r0
 6b8:	0000000c 	andeq	r0, r0, ip
 6bc:	00000650 	andeq	r0, r0, r0, asr r6
 6c0:	00009944 	andeq	r9, r0, r4, asr #18
 6c4:	00000018 	andeq	r0, r0, r8, lsl r0
 6c8:	00000020 	andeq	r0, r0, r0, lsr #32
 6cc:	00000650 	andeq	r0, r0, r0, asr r6
 6d0:	0000995c 	andeq	r9, r0, ip, asr r9
 6d4:	00000058 	andeq	r0, r0, r8, asr r0
 6d8:	84100e46 	ldrhi	r0, [r0], #-3654	; 0xfffff1ba
 6dc:	86038504 	strhi	r8, [r3], -r4, lsl #10
 6e0:	62018e02 	andvs	r8, r1, #2, 28
 6e4:	c4c5c6ce 	strbgt	ip, [r5], #1742	; 0x6ce
 6e8:	0000000e 	andeq	r0, r0, lr
 6ec:	0000000c 	andeq	r0, r0, ip
 6f0:	00000650 	andeq	r0, r0, r0, asr r6
 6f4:	000099b4 			; <UNDEFINED> instruction: 0x000099b4
 6f8:	00000030 	andeq	r0, r0, r0, lsr r0
 6fc:	00000014 	andeq	r0, r0, r4, lsl r0
 700:	00000650 	andeq	r0, r0, r0, asr r6
 704:	000099e4 	andeq	r9, r0, r4, ror #19
 708:	00000028 	andeq	r0, r0, r8, lsr #32
 70c:	84080e42 	strhi	r0, [r8], #-3650	; 0xfffff1be
 710:	00018e02 	andeq	r8, r1, r2, lsl #28
 714:	0000000c 	andeq	r0, r0, ip
 718:	ffffffff 			; <UNDEFINED> instruction: 0xffffffff
 71c:	7c020001 	stcvc	0, cr0, [r2], {1}
 720:	000d0c0e 	andeq	r0, sp, lr, lsl #24
 724:	00000014 	andeq	r0, r0, r4, lsl r0
 728:	00000714 	andeq	r0, r0, r4, lsl r7
 72c:	00009a0c 	andeq	r9, r0, ip, lsl #20
 730:	00000014 	andeq	r0, r0, r4, lsl r0
 734:	84080e42 	strhi	r0, [r8], #-3650	; 0xfffff1be
 738:	00018e02 	andeq	r8, r1, r2, lsl #28
 73c:	0000000c 	andeq	r0, r0, ip
 740:	00000714 	andeq	r0, r0, r4, lsl r7
 744:	00009a20 	andeq	r9, r0, r0, lsr #20
 748:	00000018 	andeq	r0, r0, r8, lsl r0
 74c:	0000000c 	andeq	r0, r0, ip
 750:	00000714 	andeq	r0, r0, r4, lsl r7
 754:	00009a38 	andeq	r9, r0, r8, lsr sl
 758:	00000010 	andeq	r0, r0, r0, lsl r0
 75c:	0000000c 	andeq	r0, r0, ip
 760:	ffffffff 			; <UNDEFINED> instruction: 0xffffffff
 764:	7c020001 	stcvc	0, cr0, [r2], {1}
 768:	000d0c0e 	andeq	r0, sp, lr, lsl #24
 76c:	0000000c 	andeq	r0, r0, ip
 770:	0000075c 	andeq	r0, r0, ip, asr r7
 774:	00009a48 	andeq	r9, r0, r8, asr #20
 778:	0000002c 	andeq	r0, r0, ip, lsr #32
 77c:	0000000c 	andeq	r0, r0, ip
 780:	ffffffff 			; <UNDEFINED> instruction: 0xffffffff
 784:	7c020001 	stcvc	0, cr0, [r2], {1}
 788:	000d0c0e 	andeq	r0, sp, lr, lsl #24
 78c:	0000000c 	andeq	r0, r0, ip
 790:	0000077c 	andeq	r0, r0, ip, ror r7
 794:	00009a74 	andeq	r9, r0, r4, ror sl
 798:	00000044 	andeq	r0, r0, r4, asr #32
 79c:	0000000c 	andeq	r0, r0, ip
 7a0:	ffffffff 			; <UNDEFINED> instruction: 0xffffffff
 7a4:	7c020001 	stcvc	0, cr0, [r2], {1}
 7a8:	000d0c0e 	andeq	r0, sp, lr, lsl #24
 7ac:	0000000c 	andeq	r0, r0, ip
 7b0:	0000079c 	muleq	r0, ip, r7
 7b4:	00009ab8 			; <UNDEFINED> instruction: 0x00009ab8
 7b8:	00000018 	andeq	r0, r0, r8, lsl r0
 7bc:	0000000c 	andeq	r0, r0, ip
 7c0:	ffffffff 			; <UNDEFINED> instruction: 0xffffffff
 7c4:	7c020001 	stcvc	0, cr0, [r2], {1}
 7c8:	000d0c0e 	andeq	r0, sp, lr, lsl #24
 7cc:	0000000c 	andeq	r0, r0, ip
 7d0:	000007bc 			; <UNDEFINED> instruction: 0x000007bc
 7d4:	00009ad0 	ldrdeq	r9, [r0], -r0
 7d8:	00000030 	andeq	r0, r0, r0, lsr r0
 7dc:	0000000c 	andeq	r0, r0, ip
 7e0:	ffffffff 			; <UNDEFINED> instruction: 0xffffffff
 7e4:	7c020001 	stcvc	0, cr0, [r2], {1}
 7e8:	000d0c0e 	andeq	r0, sp, lr, lsl #24
 7ec:	0000000c 	andeq	r0, r0, ip
 7f0:	000007dc 	ldrdeq	r0, [r0], -ip
 7f4:	00009b00 	andeq	r9, r0, r0, lsl #22
 7f8:	00000004 	andeq	r0, r0, r4

Disassembly of section .debug_ranges:

00000000 <.debug_ranges>:
   0:	000000a4 	andeq	r0, r0, r4, lsr #1
   4:	00000148 	andeq	r0, r0, r8, asr #2
   8:	00000158 	andeq	r0, r0, r8, asr r1
   c:	0000015c 	andeq	r0, r0, ip, asr r1
  10:	00000274 	andeq	r0, r0, r4, ror r2
  14:	00000278 	andeq	r0, r0, r8, ror r2
  18:	0000027c 	andeq	r0, r0, ip, ror r2
  1c:	00000280 	andeq	r0, r0, r0, lsl #5
  20:	00000288 	andeq	r0, r0, r8, lsl #5
  24:	0000029c 	muleq	r0, ip, r2
  28:	000002c0 	andeq	r0, r0, r0, asr #5
  2c:	000002cc 	andeq	r0, r0, ip, asr #5
  30:	000002f0 	strdeq	r0, [r0], -r0	; <UNPREDICTABLE>
  34:	000002f0 	strdeq	r0, [r0], -r0	; <UNPREDICTABLE>
  38:	000002f4 	strdeq	r0, [r0], -r4
  3c:	000002f8 	strdeq	r0, [r0], -r8
	...
  48:	00000148 	andeq	r0, r0, r8, asr #2
  4c:	00000158 	andeq	r0, r0, r8, asr r1
  50:	0000015c 	andeq	r0, r0, ip, asr r1
  54:	0000018c 	andeq	r0, r0, ip, lsl #3
  58:	0000029c 	muleq	r0, ip, r2
  5c:	000002ac 	andeq	r0, r0, ip, lsr #5
	...
  68:	000003c8 	andeq	r0, r0, r8, asr #7
  6c:	000003d0 	ldrdeq	r0, [r0], -r0	; <UNPREDICTABLE>
  70:	00000404 	andeq	r0, r0, r4, lsl #8
  74:	000004ac 	andeq	r0, r0, ip, lsr #9
  78:	000004c0 	andeq	r0, r0, r0, asr #9
  7c:	00000920 	andeq	r0, r0, r0, lsr #18
  80:	00000928 	andeq	r0, r0, r8, lsr #18
  84:	000009b4 			; <UNDEFINED> instruction: 0x000009b4
	...
  90:	000003c8 	andeq	r0, r0, r8, asr #7
  94:	000003d0 	ldrdeq	r0, [r0], -r0	; <UNPREDICTABLE>
  98:	00000504 	andeq	r0, r0, r4, lsl #10
  9c:	000005d0 	ldrdeq	r0, [r0], -r0	; <UNPREDICTABLE>
  a0:	00000800 	andeq	r0, r0, r0, lsl #16
  a4:	00000888 	andeq	r0, r0, r8, lsl #17
  a8:	00000930 	andeq	r0, r0, r0, lsr r9
  ac:	000009b4 			; <UNDEFINED> instruction: 0x000009b4
	...
  b8:	00000404 	andeq	r0, r0, r4, lsl #8
  bc:	00000408 	andeq	r0, r0, r8, lsl #8
  c0:	00000414 	andeq	r0, r0, r4, lsl r4
  c4:	00000414 	andeq	r0, r0, r4, lsl r4
  c8:	00000428 	andeq	r0, r0, r8, lsr #8
  cc:	0000042c 	andeq	r0, r0, ip, lsr #8
	...
  d8:	000005fc 	strdeq	r0, [r0], -ip
  dc:	00000700 	andeq	r0, r0, r0, lsl #14
  e0:	000007ec 	andeq	r0, r0, ip, ror #15
  e4:	000007f4 	strdeq	r0, [r0], -r4
  e8:	00000888 	andeq	r0, r0, r8, lsl #17
  ec:	00000894 	muleq	r0, r4, r8
  f0:	000008a8 	andeq	r0, r0, r8, lsr #17
  f4:	000008bc 			; <UNDEFINED> instruction: 0x000008bc
  f8:	00000910 	andeq	r0, r0, r0, lsl r9
  fc:	00000920 	andeq	r0, r0, r0, lsr #18
	...
 108:	00000600 	andeq	r0, r0, r0, lsl #12
 10c:	00000604 	andeq	r0, r0, r4, lsl #12
 110:	00000608 	andeq	r0, r0, r8, lsl #12
 114:	000006b4 			; <UNDEFINED> instruction: 0x000006b4
 118:	000006cc 	andeq	r0, r0, ip, asr #13
 11c:	000006d0 	ldrdeq	r0, [r0], -r0	; <UNPREDICTABLE>
 120:	000008a8 	andeq	r0, r0, r8, lsr #17
 124:	000008b8 			; <UNDEFINED> instruction: 0x000008b8
 128:	00000910 	andeq	r0, r0, r0, lsl r9
 12c:	00000920 	andeq	r0, r0, r0, lsr #18
	...
 138:	000006b4 			; <UNDEFINED> instruction: 0x000006b4
 13c:	000006cc 	andeq	r0, r0, ip, asr #13
 140:	000006d0 	ldrdeq	r0, [r0], -r0	; <UNPREDICTABLE>
 144:	00000700 	andeq	r0, r0, r0, lsl #14
 148:	000007ec 	andeq	r0, r0, ip, ror #15
 14c:	000007f4 	strdeq	r0, [r0], -r4
 150:	00000888 	andeq	r0, r0, r8, lsl #17
 154:	00000894 	muleq	r0, r4, r8
 158:	000008b8 			; <UNDEFINED> instruction: 0x000008b8
 15c:	000008bc 			; <UNDEFINED> instruction: 0x000008bc
	...
 168:	00000700 	andeq	r0, r0, r0, lsl #14
 16c:	00000708 	andeq	r0, r0, r8, lsl #14
 170:	0000070c 	andeq	r0, r0, ip, lsl #14
 174:	000007ec 	andeq	r0, r0, ip, ror #15
 178:	00000894 	muleq	r0, r4, r8
 17c:	000008a8 	andeq	r0, r0, r8, lsr #17
	...
 188:	00000728 	andeq	r0, r0, r8, lsr #14
 18c:	000007a4 	andeq	r0, r0, r4, lsr #15
 190:	000007ac 	andeq	r0, r0, ip, lsr #15
 194:	000007b0 			; <UNDEFINED> instruction: 0x000007b0
 198:	00000894 	muleq	r0, r4, r8
 19c:	00000898 	muleq	r0, r8, r8
 1a0:	0000089c 	muleq	r0, ip, r8
 1a4:	000008a0 	andeq	r0, r0, r0, lsr #17
	...
 1b0:	000007a4 	andeq	r0, r0, r4, lsr #15
 1b4:	000007ac 	andeq	r0, r0, ip, lsr #15
 1b8:	000007b0 			; <UNDEFINED> instruction: 0x000007b0
 1bc:	000007ec 	andeq	r0, r0, ip, ror #15
 1c0:	00000898 	muleq	r0, r8, r8
 1c4:	0000089c 	muleq	r0, ip, r8
 1c8:	000008a0 	andeq	r0, r0, r0, lsr #17
 1cc:	000008a8 	andeq	r0, r0, r8, lsr #17
	...
 1d8:	00009158 	andeq	r9, r0, r8, asr r1
 1dc:	00009158 	andeq	r9, r0, r8, asr r1
 1e0:	0000915c 	andeq	r9, r0, ip, asr r1
 1e4:	00009164 	andeq	r9, r0, r4, ror #2
	...
 1f0:	0000912c 	andeq	r9, r0, ip, lsr #2
 1f4:	000091b8 			; <UNDEFINED> instruction: 0x000091b8
	...
 200:	00000030 	andeq	r0, r0, r0, lsr r0
 204:	00000030 	andeq	r0, r0, r0, lsr r0
 208:	00000038 	andeq	r0, r0, r8, lsr r0
 20c:	0000004c 	andeq	r0, r0, ip, asr #32
	...
 218:	0000004c 	andeq	r0, r0, ip, asr #32
 21c:	00000050 	andeq	r0, r0, r0, asr r0
 220:	00000050 	andeq	r0, r0, r0, asr r0
 224:	00000078 	andeq	r0, r0, r8, ror r0
	...
 230:	0000004c 	andeq	r0, r0, ip, asr #32
 234:	00000050 	andeq	r0, r0, r0, asr r0
 238:	00000050 	andeq	r0, r0, r0, asr r0
 23c:	00000060 	andeq	r0, r0, r0, rrx
 240:	00000064 	andeq	r0, r0, r4, rrx
 244:	00000068 	andeq	r0, r0, r8, rrx
	...
 250:	0000004c 	andeq	r0, r0, ip, asr #32
 254:	00000050 	andeq	r0, r0, r0, asr r0
 258:	00000054 	andeq	r0, r0, r4, asr r0
 25c:	00000060 	andeq	r0, r0, r0, rrx
	...
 268:	0000009c 	muleq	r0, ip, r0
 26c:	000000a0 	andeq	r0, r0, r0, lsr #1
 270:	000000a0 	andeq	r0, r0, r0, lsr #1
 274:	000000c8 	andeq	r0, r0, r8, asr #1
	...
 280:	0000009c 	muleq	r0, ip, r0
 284:	000000a0 	andeq	r0, r0, r0, lsr #1
 288:	000000a0 	andeq	r0, r0, r0, lsr #1
 28c:	000000b0 	strheq	r0, [r0], -r0	; <UNPREDICTABLE>
 290:	000000b4 	strheq	r0, [r0], -r4
 294:	000000b8 	strheq	r0, [r0], -r8
	...
 2a0:	0000009c 	muleq	r0, ip, r0
 2a4:	000000a0 	andeq	r0, r0, r0, lsr #1
 2a8:	000000a4 	andeq	r0, r0, r4, lsr #1
 2ac:	000000b0 	strheq	r0, [r0], -r0	; <UNPREDICTABLE>
	...
 2b8:	000000c8 	andeq	r0, r0, r8, asr #1
 2bc:	000000c8 	andeq	r0, r0, r8, asr #1
 2c0:	000000cc 	andeq	r0, r0, ip, asr #1
 2c4:	0000011c 	andeq	r0, r0, ip, lsl r1
	...
 2d0:	000000f0 	strdeq	r0, [r0], -r0	; <UNPREDICTABLE>
 2d4:	000000f4 	strdeq	r0, [r0], -r4
 2d8:	000000f4 	strdeq	r0, [r0], -r4
 2dc:	0000011c 	andeq	r0, r0, ip, lsl r1
	...
 2e8:	000000f0 	strdeq	r0, [r0], -r0	; <UNPREDICTABLE>
 2ec:	000000f4 	strdeq	r0, [r0], -r4
 2f0:	000000f4 	strdeq	r0, [r0], -r4
 2f4:	00000104 	andeq	r0, r0, r4, lsl #2
 2f8:	00000108 	andeq	r0, r0, r8, lsl #2
 2fc:	0000010c 	andeq	r0, r0, ip, lsl #2
	...
 308:	000000f0 	strdeq	r0, [r0], -r0	; <UNPREDICTABLE>
 30c:	000000f4 	strdeq	r0, [r0], -r4
 310:	000000f8 	strdeq	r0, [r0], -r8
 314:	00000104 	andeq	r0, r0, r4, lsl #2
	...
 320:	00000134 	andeq	r0, r0, r4, lsr r1
 324:	00000134 	andeq	r0, r0, r4, lsr r1
 328:	00000134 	andeq	r0, r0, r4, lsr r1
 32c:	0000013c 	andeq	r0, r0, ip, lsr r1
	...
 338:	0000024c 	andeq	r0, r0, ip, asr #4
 33c:	00000264 	andeq	r0, r0, r4, ror #4
 340:	000002c8 	andeq	r0, r0, r8, asr #5
 344:	000002e8 	andeq	r0, r0, r8, ror #5
	...
 350:	00000008 	andeq	r0, r0, r8
 354:	0000000c 	andeq	r0, r0, ip
 358:	00000014 	andeq	r0, r0, r4, lsl r0
 35c:	00000054 	andeq	r0, r0, r4, asr r0
 360:	00000058 	andeq	r0, r0, r8, asr r0
 364:	00000060 	andeq	r0, r0, r0, rrx
	...
 370:	00000060 	andeq	r0, r0, r0, rrx
 374:	00000068 	andeq	r0, r0, r8, rrx
 378:	0000006c 	andeq	r0, r0, ip, rrx
 37c:	000000ac 	andeq	r0, r0, ip, lsr #1
 380:	000000b0 	strheq	r0, [r0], -r0	; <UNPREDICTABLE>
 384:	000000b8 	strheq	r0, [r0], -r8
	...
 390:	00000068 	andeq	r0, r0, r8, rrx
 394:	00000068 	andeq	r0, r0, r8, rrx
 398:	0000006c 	andeq	r0, r0, ip, rrx
 39c:	000000ac 	andeq	r0, r0, ip, lsr #1
 3a0:	000000b0 	strheq	r0, [r0], -r0	; <UNPREDICTABLE>
 3a4:	000000b8 	strheq	r0, [r0], -r8
	...
 3b0:	000000e8 	andeq	r0, r0, r8, ror #1
 3b4:	000000f0 	strdeq	r0, [r0], -r0	; <UNPREDICTABLE>
 3b8:	000000f4 	strdeq	r0, [r0], -r4
 3bc:	00000134 	andeq	r0, r0, r4, lsr r1
 3c0:	00000138 	andeq	r0, r0, r8, lsr r1
 3c4:	00000140 	andeq	r0, r0, r0, asr #2
	...
 3d0:	000000f0 	strdeq	r0, [r0], -r0	; <UNPREDICTABLE>
 3d4:	000000f0 	strdeq	r0, [r0], -r0	; <UNPREDICTABLE>
 3d8:	000000f4 	strdeq	r0, [r0], -r4
 3dc:	00000134 	andeq	r0, r0, r4, lsr r1
 3e0:	00000138 	andeq	r0, r0, r8, lsr r1
 3e4:	00000140 	andeq	r0, r0, r0, asr #2
	...
 3f0:	00000144 	andeq	r0, r0, r4, asr #2
 3f4:	00000148 	andeq	r0, r0, r8, asr #2
 3f8:	00000150 	andeq	r0, r0, r0, asr r1
 3fc:	0000015c 	andeq	r0, r0, ip, asr r1
	...
