
5-test-ckalloc.elf:     file format elf32-littlearm


Disassembly of section .text:

00008000 <__code_start__>:
    8000:	e3a00013 	mov	r0, #19, 0
    8004:	e3800080 	orr	r0, r0, #128, 0	; 0x80
    8008:	e129f000 	msr	CPSR_fc, r0
    800c:	e3a01000 	mov	r1, #0, 0
    8010:	ee071f95 	mcr	15, 0, r1, cr7, cr5, {4}
    8014:	e3a0d302 	mov	sp, #134217728	; 0x8000000
    8018:	e3a0b000 	mov	fp, #0, 0
    801c:	eb000488 	bl	9244 <_cstart>
    8020:	eb0004d1 	bl	936c <rpi_reboot>

00008024 <PUT32>:
    8024:	e5801000 	str	r1, [r0]
    8028:	e12fff1e 	bx	lr

0000802c <GET32>:
    802c:	e5900000 	ldr	r0, [r0]
    8030:	e12fff1e 	bx	lr

00008034 <BRANCHTO>:
    8034:	e12fff10 	bx	r0

00008038 <test_alloc_free>:
    8038:	e92d40f0 	push	{r4, r5, r6, r7, lr}
    803c:	e24dd044 	sub	sp, sp, #68, 0	; 0x44
    8040:	e1a06000 	mov	r6, r0
    8044:	e59f316c 	ldr	r3, [pc, #364]	; 81b8 <test_alloc_free+0x180>
    8048:	e58d3010 	str	r3, [sp, #16]
    804c:	e59f3168 	ldr	r3, [pc, #360]	; 81bc <test_alloc_free+0x184>
    8050:	e58d3014 	str	r3, [sp, #20]
    8054:	e3a0300b 	mov	r3, #11, 0
    8058:	e58d3018 	str	r3, [sp, #24]
    805c:	e28d3010 	add	r3, sp, #16, 0
    8060:	e893000e 	ldm	r3, {r1, r2, r3}
    8064:	e1a00100 	lsl	r0, r0, #2
    8068:	eb000188 	bl	8690 <ckalloc>
    806c:	e1a05000 	mov	r5, r0
    8070:	e3a04000 	mov	r4, #0, 0
    8074:	e1540006 	cmp	r4, r6
    8078:	2a000021 	bcs	8104 <test_alloc_free+0xcc>
    807c:	e59f3134 	ldr	r3, [pc, #308]	; 81b8 <test_alloc_free+0x180>
    8080:	e58d301c 	str	r3, [sp, #28]
    8084:	e59f3130 	ldr	r3, [pc, #304]	; 81bc <test_alloc_free+0x184>
    8088:	e58d3020 	str	r3, [sp, #32]
    808c:	e3a0300e 	mov	r3, #14, 0
    8090:	e58d3024 	str	r3, [sp, #36]	; 0x24
    8094:	e0857104 	add	r7, r5, r4, lsl #2
    8098:	e28d301c 	add	r3, sp, #28, 0
    809c:	e893000e 	ldm	r3, {r1, r2, r3}
    80a0:	e3a00001 	mov	r0, #1, 0
    80a4:	eb000179 	bl	8690 <ckalloc>
    80a8:	e7850104 	str	r0, [r5, r4, lsl #2]
    80ac:	e6ef3074 	uxtb	r3, r4
    80b0:	e5c03000 	strb	r3, [r0]
    80b4:	e7952104 	ldr	r2, [r5, r4, lsl #2]
    80b8:	e5d22000 	ldrb	r2, [r2]
    80bc:	e1530002 	cmp	r3, r2
    80c0:	02844001 	addeq	r4, r4, #1, 0
    80c4:	0affffea 	beq	8074 <test_alloc_free+0x3c>
    80c8:	eb0001cd 	bl	8804 <rpi_reset_putc>
    80cc:	e5973000 	ldr	r3, [r7]
    80d0:	e5d33000 	ldrb	r3, [r3]
    80d4:	e6ef2074 	uxtb	r2, r4
    80d8:	e58d200c 	str	r2, [sp, #12]
    80dc:	e58d3008 	str	r3, [sp, #8]
    80e0:	e58d4004 	str	r4, [sp, #4]
    80e4:	e59f30d4 	ldr	r3, [pc, #212]	; 81c0 <test_alloc_free+0x188>
    80e8:	e58d3000 	str	r3, [sp]
    80ec:	e3a03013 	mov	r3, #19, 0
    80f0:	e59f20c4 	ldr	r2, [pc, #196]	; 81bc <test_alloc_free+0x184>
    80f4:	e59f10bc 	ldr	r1, [pc, #188]	; 81b8 <test_alloc_free+0x180>
    80f8:	e59f00c4 	ldr	r0, [pc, #196]	; 81c4 <test_alloc_free+0x18c>
    80fc:	eb0001a5 	bl	8798 <printk>
    8100:	eb000444 	bl	9218 <clean_reboot>
    8104:	e3a03000 	mov	r3, #0, 0
    8108:	e1530006 	cmp	r3, r6
    810c:	2a00000d 	bcs	8148 <test_alloc_free+0x110>
    8110:	e7952103 	ldr	r2, [r5, r3, lsl #2]
    8114:	e5d21000 	ldrb	r1, [r2]
    8118:	e6ef2073 	uxtb	r2, r3
    811c:	e1510002 	cmp	r1, r2
    8120:	02833001 	addeq	r3, r3, #1, 0
    8124:	0afffff7 	beq	8108 <test_alloc_free+0xd0>
    8128:	e59f3090 	ldr	r3, [pc, #144]	; 81c0 <test_alloc_free+0x188>
    812c:	e58d3000 	str	r3, [sp]
    8130:	e3a03017 	mov	r3, #23, 0
    8134:	e59f2080 	ldr	r2, [pc, #128]	; 81bc <test_alloc_free+0x184>
    8138:	e59f1078 	ldr	r1, [pc, #120]	; 81b8 <test_alloc_free+0x180>
    813c:	e59f0084 	ldr	r0, [pc, #132]	; 81c8 <test_alloc_free+0x190>
    8140:	eb000194 	bl	8798 <printk>
    8144:	eb000433 	bl	9218 <clean_reboot>
    8148:	e3a04000 	mov	r4, #0, 0
    814c:	ea00000a 	b	817c <test_alloc_free+0x144>
    8150:	e59f3060 	ldr	r3, [pc, #96]	; 81b8 <test_alloc_free+0x180>
    8154:	e58d3028 	str	r3, [sp, #40]	; 0x28
    8158:	e59f305c 	ldr	r3, [pc, #92]	; 81bc <test_alloc_free+0x184>
    815c:	e58d302c 	str	r3, [sp, #44]	; 0x2c
    8160:	e3a0301a 	mov	r3, #26, 0
    8164:	e58d3030 	str	r3, [sp, #48]	; 0x30
    8168:	e28d3028 	add	r3, sp, #40, 0	; 0x28
    816c:	e893000e 	ldm	r3, {r1, r2, r3}
    8170:	e7950104 	ldr	r0, [r5, r4, lsl #2]
    8174:	eb00010a 	bl	85a4 <ckfree>
    8178:	e2844001 	add	r4, r4, #1, 0
    817c:	e1540006 	cmp	r4, r6
    8180:	3afffff2 	bcc	8150 <test_alloc_free+0x118>
    8184:	e59f302c 	ldr	r3, [pc, #44]	; 81b8 <test_alloc_free+0x180>
    8188:	e58d3034 	str	r3, [sp, #52]	; 0x34
    818c:	e59f3028 	ldr	r3, [pc, #40]	; 81bc <test_alloc_free+0x184>
    8190:	e58d3038 	str	r3, [sp, #56]	; 0x38
    8194:	e3a0301b 	mov	r3, #27, 0
    8198:	e58d303c 	str	r3, [sp, #60]	; 0x3c
    819c:	e28d3040 	add	r3, sp, #64, 0	; 0x40
    81a0:	e913000e 	ldmdb	r3, {r1, r2, r3}
    81a4:	e1a00005 	mov	r0, r5
    81a8:	eb0000fd 	bl	85a4 <ckfree>
    81ac:	e1a00005 	mov	r0, r5
    81b0:	e28dd044 	add	sp, sp, #68, 0	; 0x44
    81b4:	e8bd80f0 	pop	{r4, r5, r6, r7, pc}
    81b8:	00009cf8 	strdeq	r9, [r0], -r8
    81bc:	00009dc0 	andeq	r9, r0, r0, asr #27
    81c0:	00009d40 	andeq	r9, r0, r0, asr #26
    81c4:	00009d0c 	andeq	r9, r0, ip, lsl #26
    81c8:	00009d58 	andeq	r9, r0, r8, asr sp

000081cc <notmain>:
    81cc:	e92d4030 	push	{r4, r5, lr}
    81d0:	e24dd00c 	sub	sp, sp, #12, 0
    81d4:	e3a00001 	mov	r0, #1, 0
    81d8:	ebffff96 	bl	8038 <test_alloc_free>
    81dc:	e1a05000 	mov	r5, r0
    81e0:	e3a04000 	mov	r4, #0, 0
    81e4:	e3540009 	cmp	r4, #9, 0
    81e8:	ca000012 	bgt	8238 <notmain+0x6c>
    81ec:	e3a00001 	mov	r0, #1, 0
    81f0:	ebffff90 	bl	8038 <test_alloc_free>
    81f4:	e1550000 	cmp	r5, r0
    81f8:	1a000006 	bne	8218 <notmain+0x4c>
    81fc:	e59f004c 	ldr	r0, [pc, #76]	; 8250 <notmain+0x84>
    8200:	eb000164 	bl	8798 <printk>
    8204:	e1a01004 	mov	r1, r4
    8208:	e59f0044 	ldr	r0, [pc, #68]	; 8254 <notmain+0x88>
    820c:	eb000161 	bl	8798 <printk>
    8210:	e2844001 	add	r4, r4, #1, 0
    8214:	eafffff2 	b	81e4 <notmain+0x18>
    8218:	e59f3038 	ldr	r3, [pc, #56]	; 8258 <notmain+0x8c>
    821c:	e58d3000 	str	r3, [sp]
    8220:	e3a0302b 	mov	r3, #43, 0	; 0x2b
    8224:	e59f2030 	ldr	r2, [pc, #48]	; 825c <notmain+0x90>
    8228:	e59f1030 	ldr	r1, [pc, #48]	; 8260 <notmain+0x94>
    822c:	e59f0030 	ldr	r0, [pc, #48]	; 8264 <notmain+0x98>
    8230:	eb000158 	bl	8798 <printk>
    8234:	eb0003f7 	bl	9218 <clean_reboot>
    8238:	e59f0010 	ldr	r0, [pc, #16]	; 8250 <notmain+0x84>
    823c:	eb000155 	bl	8798 <printk>
    8240:	e59f0020 	ldr	r0, [pc, #32]	; 8268 <notmain+0x9c>
    8244:	eb000153 	bl	8798 <printk>
    8248:	e28dd00c 	add	sp, sp, #12, 0
    824c:	e8bd8030 	pop	{r4, r5, pc}
    8250:	00009d78 	andeq	r9, r0, r8, ror sp
    8254:	00009d80 	andeq	r9, r0, r0, lsl #27
    8258:	00009d6c 	andeq	r9, r0, ip, ror #26
    825c:	00009dd0 	ldrdeq	r9, [r0], -r0
    8260:	00009cf8 	strdeq	r9, [r0], -r8
    8264:	00009d58 	andeq	r9, r0, r8, asr sp
    8268:	00009d98 	muleq	r0, r8, sp

0000826c <kr_free>:
    826c:	e52de004 	push	{lr}		; (str lr, [sp, #-4]!)
    8270:	e2401008 	sub	r1, r0, #8, 0
    8274:	e59f30a8 	ldr	r3, [pc, #168]	; 8324 <kr_free+0xb8>
    8278:	e5933000 	ldr	r3, [r3]
    827c:	ea000000 	b	8284 <kr_free+0x18>
    8280:	e1a03002 	mov	r3, r2
    8284:	e1530001 	cmp	r3, r1
    8288:	2a000002 	bcs	8298 <kr_free+0x2c>
    828c:	e5932000 	ldr	r2, [r3]
    8290:	e1520001 	cmp	r2, r1
    8294:	8a000007 	bhi	82b8 <kr_free+0x4c>
    8298:	e5932000 	ldr	r2, [r3]
    829c:	e1520003 	cmp	r2, r3
    82a0:	8afffff6 	bhi	8280 <kr_free+0x14>
    82a4:	e1530001 	cmp	r3, r1
    82a8:	3a000002 	bcc	82b8 <kr_free+0x4c>
    82ac:	e1520001 	cmp	r2, r1
    82b0:	91a03002 	movls	r3, r2
    82b4:	9afffff2 	bls	8284 <kr_free+0x18>
    82b8:	e510c004 	ldr	ip, [r0, #-4]
    82bc:	e081e18c 	add	lr, r1, ip, lsl #3
    82c0:	e5932000 	ldr	r2, [r3]
    82c4:	e15e0002 	cmp	lr, r2
    82c8:	0a000008 	beq	82f0 <kr_free+0x84>
    82cc:	e5002008 	str	r2, [r0, #-8]
    82d0:	e5932004 	ldr	r2, [r3, #4]
    82d4:	e083c182 	add	ip, r3, r2, lsl #3
    82d8:	e15c0001 	cmp	ip, r1
    82dc:	0a00000a 	beq	830c <kr_free+0xa0>
    82e0:	e5831000 	str	r1, [r3]
    82e4:	e59f2038 	ldr	r2, [pc, #56]	; 8324 <kr_free+0xb8>
    82e8:	e5823000 	str	r3, [r2]
    82ec:	e49df004 	pop	{pc}		; (ldr pc, [sp], #4)
    82f0:	e5922004 	ldr	r2, [r2, #4]
    82f4:	e08cc002 	add	ip, ip, r2
    82f8:	e500c004 	str	ip, [r0, #-4]
    82fc:	e5932000 	ldr	r2, [r3]
    8300:	e5922000 	ldr	r2, [r2]
    8304:	e5002008 	str	r2, [r0, #-8]
    8308:	eafffff0 	b	82d0 <kr_free+0x64>
    830c:	e5101004 	ldr	r1, [r0, #-4]
    8310:	e0822001 	add	r2, r2, r1
    8314:	e5832004 	str	r2, [r3, #4]
    8318:	e5102008 	ldr	r2, [r0, #-8]
    831c:	e5832000 	str	r2, [r3]
    8320:	eaffffef 	b	82e4 <kr_free+0x78>
    8324:	0000a240 	andeq	sl, r0, r0, asr #4

00008328 <morecore>:
    8328:	e92d4010 	push	{r4, lr}
    832c:	e1a04000 	mov	r4, r0
    8330:	e3500b01 	cmp	r0, #1024	; 0x400
    8334:	33a04b01 	movcc	r4, #1024	; 0x400
    8338:	e1a00184 	lsl	r0, r4, #3
    833c:	eb000035 	bl	8418 <sbrk>
    8340:	e3700001 	cmn	r0, #1, 0
    8344:	0a000005 	beq	8360 <morecore+0x38>
    8348:	e5804004 	str	r4, [r0, #4]
    834c:	e2800008 	add	r0, r0, #8, 0
    8350:	ebffffc5 	bl	826c <kr_free>
    8354:	e59f300c 	ldr	r3, [pc, #12]	; 8368 <morecore+0x40>
    8358:	e5930000 	ldr	r0, [r3]
    835c:	e8bd8010 	pop	{r4, pc}
    8360:	e3a00000 	mov	r0, #0, 0
    8364:	e8bd8010 	pop	{r4, pc}
    8368:	0000a240 	andeq	sl, r0, r0, asr #4

0000836c <kr_malloc>:
    836c:	e92d4010 	push	{r4, lr}
    8370:	e2804007 	add	r4, r0, #7, 0
    8374:	e1a041a4 	lsr	r4, r4, #3
    8378:	e2844001 	add	r4, r4, #1, 0
    837c:	e59f3090 	ldr	r3, [pc, #144]	; 8414 <kr_malloc+0xa8>
    8380:	e5932000 	ldr	r2, [r3]
    8384:	e3520000 	cmp	r2, #0, 0
    8388:	0a000001 	beq	8394 <kr_malloc+0x28>
    838c:	e5920000 	ldr	r0, [r2]
    8390:	ea000013 	b	83e4 <kr_malloc+0x78>
    8394:	e2832008 	add	r2, r3, #8, 0
    8398:	e5832000 	str	r2, [r3]
    839c:	e5832008 	str	r2, [r3, #8]
    83a0:	e3a01000 	mov	r1, #0, 0
    83a4:	e583100c 	str	r1, [r3, #12]
    83a8:	eafffff7 	b	838c <kr_malloc+0x20>
    83ac:	0a000007 	beq	83d0 <kr_malloc+0x64>
    83b0:	e0433004 	sub	r3, r3, r4
    83b4:	e5803004 	str	r3, [r0, #4]
    83b8:	e0800183 	add	r0, r0, r3, lsl #3
    83bc:	e5804004 	str	r4, [r0, #4]
    83c0:	e59f304c 	ldr	r3, [pc, #76]	; 8414 <kr_malloc+0xa8>
    83c4:	e5832000 	str	r2, [r3]
    83c8:	e2800008 	add	r0, r0, #8, 0
    83cc:	e8bd8010 	pop	{r4, pc}
    83d0:	e5903000 	ldr	r3, [r0]
    83d4:	e5823000 	str	r3, [r2]
    83d8:	eafffff8 	b	83c0 <kr_malloc+0x54>
    83dc:	e1a02000 	mov	r2, r0
    83e0:	e5900000 	ldr	r0, [r0]
    83e4:	e5903004 	ldr	r3, [r0, #4]
    83e8:	e1530004 	cmp	r3, r4
    83ec:	2affffee 	bcs	83ac <kr_malloc+0x40>
    83f0:	e59f301c 	ldr	r3, [pc, #28]	; 8414 <kr_malloc+0xa8>
    83f4:	e5933000 	ldr	r3, [r3]
    83f8:	e1530000 	cmp	r3, r0
    83fc:	1afffff6 	bne	83dc <kr_malloc+0x70>
    8400:	e1a00004 	mov	r0, r4
    8404:	ebffffc7 	bl	8328 <morecore>
    8408:	e3500000 	cmp	r0, #0, 0
    840c:	1afffff2 	bne	83dc <kr_malloc+0x70>
    8410:	e8bd8010 	pop	{r4, pc}
    8414:	0000a240 	andeq	sl, r0, r0, asr #4

00008418 <sbrk>:
    8418:	e92d4010 	push	{r4, lr}
    841c:	eb00051c 	bl	9894 <kmalloc>
    8420:	e8bd8010 	pop	{r4, pc}

00008424 <ck_first_hdr>:
    8424:	e59f3004 	ldr	r3, [pc, #4]	; 8430 <ck_first_hdr+0xc>
    8428:	e5930000 	ldr	r0, [r3]
    842c:	e12fff1e 	bx	lr
    8430:	0000a250 	andeq	sl, r0, r0, asr r2

00008434 <ck_next_hdr>:
    8434:	e3500000 	cmp	r0, #0, 0
    8438:	012fff1e 	bxeq	lr
    843c:	e5900000 	ldr	r0, [r0]
    8440:	e12fff1e 	bx	lr

00008444 <list_remove>:
    8444:	e92d4030 	push	{r4, r5, lr}
    8448:	e24dd00c 	sub	sp, sp, #12, 0
    844c:	e2503000 	subs	r3, r0, #0, 0
    8450:	0a00000d 	beq	848c <list_remove+0x48>
    8454:	e1a04001 	mov	r4, r1
    8458:	e5930000 	ldr	r0, [r3]
    845c:	e1500001 	cmp	r0, r1
    8460:	0a000011 	beq	84ac <list_remove+0x68>
    8464:	e1a05000 	mov	r5, r0
    8468:	ebfffff1 	bl	8434 <ck_next_hdr>
    846c:	e3500000 	cmp	r0, #0, 0
    8470:	0a000010 	beq	84b8 <list_remove+0x74>
    8474:	e1540000 	cmp	r4, r0
    8478:	1afffff9 	bne	8464 <list_remove+0x20>
    847c:	e5903000 	ldr	r3, [r0]
    8480:	e5853000 	str	r3, [r5]
    8484:	e28dd00c 	add	sp, sp, #12, 0
    8488:	e8bd8030 	pop	{r4, r5, pc}
    848c:	e59f3040 	ldr	r3, [pc, #64]	; 84d4 <list_remove+0x90>
    8490:	e58d3000 	str	r3, [sp]
    8494:	e3a0303d 	mov	r3, #61, 0	; 0x3d
    8498:	e59f2038 	ldr	r2, [pc, #56]	; 84d8 <list_remove+0x94>
    849c:	e59f1038 	ldr	r1, [pc, #56]	; 84dc <list_remove+0x98>
    84a0:	e59f0038 	ldr	r0, [pc, #56]	; 84e0 <list_remove+0x9c>
    84a4:	eb0000bb 	bl	8798 <printk>
    84a8:	eb00035a 	bl	9218 <clean_reboot>
    84ac:	e5912000 	ldr	r2, [r1]
    84b0:	e5832000 	str	r2, [r3]
    84b4:	eafffff2 	b	8484 <list_remove+0x40>
    84b8:	e58d4000 	str	r4, [sp]
    84bc:	e3a03050 	mov	r3, #80, 0	; 0x50
    84c0:	e59f2010 	ldr	r2, [pc, #16]	; 84d8 <list_remove+0x94>
    84c4:	e59f1010 	ldr	r1, [pc, #16]	; 84dc <list_remove+0x98>
    84c8:	e59f0014 	ldr	r0, [pc, #20]	; 84e4 <list_remove+0xa0>
    84cc:	eb0000b1 	bl	8798 <printk>
    84d0:	eb000350 	bl	9218 <clean_reboot>
    84d4:	00009de4 	andeq	r9, r0, r4, ror #27
    84d8:	00009ea8 	andeq	r9, r0, r8, lsr #29
    84dc:	00009dd8 	ldrdeq	r9, [r0], -r8
    84e0:	00009d58 	andeq	r9, r0, r8, asr sp
    84e4:	00009de8 	andeq	r9, r0, r8, ror #27

000084e8 <ck_hdr_start>:
    84e8:	e2800024 	add	r0, r0, #36, 0	; 0x24
    84ec:	e12fff1e 	bx	lr

000084f0 <ck_hdr_end>:
    84f0:	e92d4010 	push	{r4, lr}
    84f4:	e1a04000 	mov	r4, r0
    84f8:	ebfffffa 	bl	84e8 <ck_hdr_start>
    84fc:	e5943004 	ldr	r3, [r4, #4]
    8500:	e0800003 	add	r0, r0, r3
    8504:	e8bd8010 	pop	{r4, pc}

00008508 <ck_ptr_in_block>:
    8508:	e1510000 	cmp	r1, r0
    850c:	3a000008 	bcc	8534 <ck_ptr_in_block+0x2c>
    8510:	e5903004 	ldr	r3, [r0, #4]
    8514:	e0833183 	add	r3, r3, r3, lsl #3
    8518:	e1a03103 	lsl	r3, r3, #2
    851c:	e2833090 	add	r3, r3, #144, 0	; 0x90
    8520:	e0800003 	add	r0, r0, r3
    8524:	e1500001 	cmp	r0, r1
    8528:	2a000003 	bcs	853c <ck_ptr_in_block+0x34>
    852c:	e3a00000 	mov	r0, #0, 0
    8530:	e12fff1e 	bx	lr
    8534:	e3a00000 	mov	r0, #0, 0
    8538:	e12fff1e 	bx	lr
    853c:	e3a00001 	mov	r0, #1, 0
    8540:	e12fff1e 	bx	lr

00008544 <ck_ptr_is_alloced>:
    8544:	e92d4070 	push	{r4, r5, r6, lr}
    8548:	e1a05000 	mov	r5, r0
    854c:	ebffffb4 	bl	8424 <ck_first_hdr>
    8550:	e1a04000 	mov	r4, r0
    8554:	e3540000 	cmp	r4, #0, 0
    8558:	0a00000e 	beq	8598 <ck_ptr_is_alloced+0x54>
    855c:	e1a01005 	mov	r1, r5
    8560:	e1a00004 	mov	r0, r4
    8564:	ebffffe7 	bl	8508 <ck_ptr_in_block>
    8568:	e3500000 	cmp	r0, #0, 0
    856c:	1a000003 	bne	8580 <ck_ptr_is_alloced+0x3c>
    8570:	e1a00004 	mov	r0, r4
    8574:	ebffffae 	bl	8434 <ck_next_hdr>
    8578:	e1a04000 	mov	r4, r0
    857c:	eafffff4 	b	8554 <ck_ptr_is_alloced+0x10>
    8580:	e1a02004 	mov	r2, r4
    8584:	e1a01005 	mov	r1, r5
    8588:	e59f0010 	ldr	r0, [pc, #16]	; 85a0 <ck_ptr_is_alloced+0x5c>
    858c:	eb000081 	bl	8798 <printk>
    8590:	e3a00001 	mov	r0, #1, 0
    8594:	e8bd8070 	pop	{r4, r5, r6, pc}
    8598:	e3a00000 	mov	r0, #0, 0
    859c:	e8bd8070 	pop	{r4, r5, r6, pc}
    85a0:	00009e14 	andeq	r9, r0, r4, lsl lr

000085a4 <ckfree>:
    85a4:	e92d41f0 	push	{r4, r5, r6, r7, r8, lr}
    85a8:	e24dd018 	sub	sp, sp, #24, 0
    85ac:	e1a04000 	mov	r4, r0
    85b0:	e28d0018 	add	r0, sp, #24, 0
    85b4:	e900000e 	stmdb	r0, {r1, r2, r3}
    85b8:	e59d600c 	ldr	r6, [sp, #12]
    85bc:	e59d7010 	ldr	r7, [sp, #16]
    85c0:	e59d8014 	ldr	r8, [sp, #20]
    85c4:	e1a03008 	mov	r3, r8
    85c8:	e1a02007 	mov	r2, r7
    85cc:	e1a01006 	mov	r1, r6
    85d0:	e59f0094 	ldr	r0, [pc, #148]	; 866c <ckfree+0xc8>
    85d4:	eb00006f 	bl	8798 <printk>
    85d8:	e1a01004 	mov	r1, r4
    85dc:	e59f008c 	ldr	r0, [pc, #140]	; 8670 <ckfree+0xcc>
    85e0:	eb00006c 	bl	8798 <printk>
    85e4:	e514301c 	ldr	r3, [r4, #-28]	; 0xffffffe4
    85e8:	e353000b 	cmp	r3, #11, 0
    85ec:	1a00000d 	bne	8628 <ckfree+0x84>
    85f0:	e2445024 	sub	r5, r4, #36, 0	; 0x24
    85f4:	e3a0300c 	mov	r3, #12, 0
    85f8:	e504301c 	str	r3, [r4, #-28]	; 0xffffffe4
    85fc:	e1a00004 	mov	r0, r4
    8600:	ebffffcf 	bl	8544 <ck_ptr_is_alloced>
    8604:	e3500000 	cmp	r0, #0, 0
    8608:	0a00000f 	beq	864c <ckfree+0xa8>
    860c:	e1a01005 	mov	r1, r5
    8610:	e59f005c 	ldr	r0, [pc, #92]	; 8674 <ckfree+0xd0>
    8614:	ebffff8a 	bl	8444 <list_remove>
    8618:	e1a00005 	mov	r0, r5
    861c:	ebffff12 	bl	826c <kr_free>
    8620:	e28dd018 	add	sp, sp, #24, 0
    8624:	e8bd81f0 	pop	{r4, r5, r6, r7, r8, pc}
    8628:	e1a03008 	mov	r3, r8
    862c:	e1a02007 	mov	r2, r7
    8630:	e1a01006 	mov	r1, r6
    8634:	e59f003c 	ldr	r0, [pc, #60]	; 8678 <ckfree+0xd4>
    8638:	eb000056 	bl	8798 <printk>
    863c:	e514101c 	ldr	r1, [r4, #-28]	; 0xffffffe4
    8640:	e59f0034 	ldr	r0, [pc, #52]	; 867c <ckfree+0xd8>
    8644:	eb000053 	bl	8798 <printk>
    8648:	eb0002f2 	bl	9218 <clean_reboot>
    864c:	e59f302c 	ldr	r3, [pc, #44]	; 8680 <ckfree+0xdc>
    8650:	e58d3000 	str	r3, [sp]
    8654:	e3a0305e 	mov	r3, #94, 0	; 0x5e
    8658:	e59f2024 	ldr	r2, [pc, #36]	; 8684 <ckfree+0xe0>
    865c:	e59f1024 	ldr	r1, [pc, #36]	; 8688 <ckfree+0xe4>
    8660:	e59f0024 	ldr	r0, [pc, #36]	; 868c <ckfree+0xe8>
    8664:	eb00004b 	bl	8798 <printk>
    8668:	eb0002ea 	bl	9218 <clean_reboot>
    866c:	00009e24 	andeq	r9, r0, r4, lsr #28
    8670:	00009e30 	andeq	r9, r0, r0, lsr lr
    8674:	0000a250 	andeq	sl, r0, r0, asr r2
    8678:	00009e40 	andeq	r9, r0, r0, asr #28
    867c:	00009e58 	andeq	r9, r0, r8, asr lr
    8680:	00009e80 	andeq	r9, r0, r0, lsl #29
    8684:	00009eb4 			; <UNDEFINED> instruction: 0x00009eb4
    8688:	00009dd8 	ldrdeq	r9, [r0], -r8
    868c:	00009d58 	andeq	r9, r0, r8, asr sp

00008690 <ckalloc>:
    8690:	e92d4070 	push	{r4, r5, r6, lr}
    8694:	e24dd010 	sub	sp, sp, #16, 0
    8698:	e1a06000 	mov	r6, r0
    869c:	e28d5004 	add	r5, sp, #4, 0
    86a0:	e885000e 	stm	r5, {r1, r2, r3}
    86a4:	e2800024 	add	r0, r0, #36, 0	; 0x24
    86a8:	ebffff2f 	bl	836c <kr_malloc>
    86ac:	e1a04000 	mov	r4, r0
    86b0:	e3a02024 	mov	r2, #36, 0	; 0x24
    86b4:	e3a01000 	mov	r1, #0, 0
    86b8:	eb000018 	bl	8720 <memset>
    86bc:	e5846004 	str	r6, [r4, #4]
    86c0:	e3a0300b 	mov	r3, #11, 0
    86c4:	e5843008 	str	r3, [r4, #8]
    86c8:	e284300c 	add	r3, r4, #12, 0
    86cc:	e8950007 	ldm	r5, {r0, r1, r2}
    86d0:	e8830007 	stm	r3, {r0, r1, r2}
    86d4:	e59d300c 	ldr	r3, [sp, #12]
    86d8:	e59d2008 	ldr	r2, [sp, #8]
    86dc:	e59d1004 	ldr	r1, [sp, #4]
    86e0:	e59f002c 	ldr	r0, [pc, #44]	; 8714 <ckalloc+0x84>
    86e4:	eb00002b 	bl	8798 <printk>
    86e8:	e2845024 	add	r5, r4, #36, 0	; 0x24
    86ec:	e1a01005 	mov	r1, r5
    86f0:	e59f0020 	ldr	r0, [pc, #32]	; 8718 <ckalloc+0x88>
    86f4:	eb000027 	bl	8798 <printk>
    86f8:	e59f301c 	ldr	r3, [pc, #28]	; 871c <ckalloc+0x8c>
    86fc:	e5932000 	ldr	r2, [r3]
    8700:	e5842000 	str	r2, [r4]
    8704:	e5834000 	str	r4, [r3]
    8708:	e1a00005 	mov	r0, r5
    870c:	e28dd010 	add	sp, sp, #16, 0
    8710:	e8bd8070 	pop	{r4, r5, r6, pc}
    8714:	00009e24 	andeq	r9, r0, r4, lsr #28
    8718:	00009e98 	muleq	r0, r8, lr
    871c:	0000a250 	andeq	sl, r0, r0, asr r2

00008720 <memset>:
    8720:	e92d4010 	push	{r4, lr}
    8724:	e0804002 	add	r4, r0, r2
    8728:	e1500004 	cmp	r0, r4
    872c:	28bd8010 	popcs	{r4, pc}
    8730:	e2423001 	sub	r3, r2, #1, 0
    8734:	e3530002 	cmp	r3, #2, 0
    8738:	e6ef1071 	uxtb	r1, r1
    873c:	e1a03000 	mov	r3, r0
    8740:	9a00000b 	bls	8774 <memset+0x54>
    8744:	e181e401 	orr	lr, r1, r1, lsl #8
    8748:	e18ee801 	orr	lr, lr, r1, lsl #16
    874c:	e3c2c003 	bic	ip, r2, #3, 0
    8750:	e18eec01 	orr	lr, lr, r1, lsl #24
    8754:	e08cc000 	add	ip, ip, r0
    8758:	e483e004 	str	lr, [r3], #4
    875c:	e153000c 	cmp	r3, ip
    8760:	1afffffc 	bne	8758 <memset+0x38>
    8764:	e3c23003 	bic	r3, r2, #3, 0
    8768:	e1520003 	cmp	r2, r3
    876c:	e0803003 	add	r3, r0, r3
    8770:	08bd8010 	popeq	{r4, pc}
    8774:	e1a02003 	mov	r2, r3
    8778:	e4c21001 	strb	r1, [r2], #1
    877c:	e1540002 	cmp	r4, r2
    8780:	98bd8010 	popls	{r4, pc}
    8784:	e2832002 	add	r2, r3, #2, 0
    8788:	e1540002 	cmp	r4, r2
    878c:	e5c31001 	strb	r1, [r3, #1]
    8790:	85c31002 	strbhi	r1, [r3, #2]
    8794:	e8bd8010 	pop	{r4, pc}

00008798 <printk>:
    8798:	e92d000f 	push	{r0, r1, r2, r3}
    879c:	e92d4030 	push	{r4, r5, lr}
    87a0:	e59f5040 	ldr	r5, [pc, #64]	; 87e8 <printk+0x50>
    87a4:	e24dd00c 	sub	sp, sp, #12, 0
    87a8:	e28d301c 	add	r3, sp, #28, 0
    87ac:	e3a01b01 	mov	r1, #1024	; 0x400
    87b0:	e59d2018 	ldr	r2, [sp, #24]
    87b4:	e1a00005 	mov	r0, r5
    87b8:	e58d3004 	str	r3, [sp, #4]
    87bc:	eb00010a 	bl	8bec <va_printk>
    87c0:	e1a04000 	mov	r4, r0
    87c4:	e59f3020 	ldr	r3, [pc, #32]	; 87ec <printk+0x54>
    87c8:	e1a00005 	mov	r0, r5
    87cc:	e5933000 	ldr	r3, [r3]
    87d0:	e12fff33 	blx	r3
    87d4:	e1a00004 	mov	r0, r4
    87d8:	e28dd00c 	add	sp, sp, #12, 0
    87dc:	e8bd4030 	pop	{r4, r5, lr}
    87e0:	e28dd010 	add	sp, sp, #16, 0
    87e4:	e12fff1e 	bx	lr
    87e8:	0000a254 	andeq	sl, r0, r4, asr r2
    87ec:	0000a230 	andeq	sl, r0, r0, lsr r2

000087f0 <internal_putchar>:
    87f0:	e92d4010 	push	{r4, lr}
    87f4:	e1a04000 	mov	r4, r0
    87f8:	eb000390 	bl	9640 <uart_putc>
    87fc:	e1a00004 	mov	r0, r4
    8800:	e8bd8010 	pop	{r4, pc}

00008804 <rpi_reset_putc>:
    8804:	e59f3008 	ldr	r3, [pc, #8]	; 8814 <rpi_reset_putc+0x10>
    8808:	e59f2008 	ldr	r2, [pc, #8]	; 8818 <rpi_reset_putc+0x14>
    880c:	e5832000 	str	r2, [r3]
    8810:	e12fff1e 	bx	lr
    8814:	0000a22c 	andeq	sl, r0, ip, lsr #4
    8818:	000087f0 	strdeq	r8, [r0], -r0

0000881c <rpi_set_putc>:
    881c:	e59f3004 	ldr	r3, [pc, #4]	; 8828 <rpi_set_putc+0xc>
    8820:	e5830000 	str	r0, [r3]
    8824:	e12fff1e 	bx	lr
    8828:	0000a22c 	andeq	sl, r0, ip, lsr #4

0000882c <internal_putk>:
    882c:	e92d4070 	push	{r4, r5, r6, lr}
    8830:	e1a04000 	mov	r4, r0
    8834:	e5d00000 	ldrb	r0, [r0]
    8838:	e3500000 	cmp	r0, #0, 0
    883c:	0a000005 	beq	8858 <internal_putk+0x2c>
    8840:	e59f5018 	ldr	r5, [pc, #24]	; 8860 <internal_putk+0x34>
    8844:	e5953000 	ldr	r3, [r5]
    8848:	e12fff33 	blx	r3
    884c:	e5f40001 	ldrb	r0, [r4, #1]!
    8850:	e3500000 	cmp	r0, #0, 0
    8854:	1afffffa 	bne	8844 <internal_putk+0x18>
    8858:	e3a00001 	mov	r0, #1, 0
    885c:	e8bd8070 	pop	{r4, r5, r6, pc}
    8860:	0000a22c 	andeq	sl, r0, ip, lsr #4

00008864 <emit.constprop.0>:
    8864:	e92d41f0 	push	{r4, r5, r6, r7, r8, lr}
    8868:	e3530080 	cmp	r3, #128, 0	; 0x80
    886c:	e1a0c000 	mov	ip, r0
    8870:	e24dd048 	sub	sp, sp, #72, 0	; 0x48
    8874:	e1a00001 	mov	r0, r1
    8878:	ca000069 	bgt	8a24 <emit.constprop.0+0x1c0>
    887c:	e24c1002 	sub	r1, ip, #2, 0
    8880:	e1a0c002 	mov	ip, r2
    8884:	e351000e 	cmp	r1, #14, 0
    8888:	979ff101 	ldrls	pc, [pc, r1, lsl #2]
    888c:	ea0000a7 	b	8b30 <emit.constprop.0+0x2cc>
    8890:	000089fc 	strdeq	r8, [r0], -ip
    8894:	00008b30 	andeq	r8, r0, r0, lsr fp
    8898:	00008b30 	andeq	r8, r0, r0, lsr fp
    889c:	00008b30 	andeq	r8, r0, r0, lsr fp
    88a0:	00008b30 	andeq	r8, r0, r0, lsr fp
    88a4:	00008b30 	andeq	r8, r0, r0, lsr fp
    88a8:	00008ad8 	ldrdeq	r8, [r0], -r8	; <UNPREDICTABLE>
    88ac:	00008b30 	andeq	r8, r0, r0, lsr fp
    88b0:	00008a78 	andeq	r8, r0, r8, ror sl
    88b4:	00008b30 	andeq	r8, r0, r0, lsr fp
    88b8:	00008b30 	andeq	r8, r0, r0, lsr fp
    88bc:	00008b30 	andeq	r8, r0, r0, lsr fp
    88c0:	00008b30 	andeq	r8, r0, r0, lsr fp
    88c4:	00008b30 	andeq	r8, r0, r0, lsr fp
    88c8:	000088d0 	ldrdeq	r8, [r0], -r0
    88cc:	e3a0307f 	mov	r3, #127, 0	; 0x7f
    88d0:	e28d2008 	add	r2, sp, #8, 0
    88d4:	e1a04002 	mov	r4, r2
    88d8:	e59f1288 	ldr	r1, [pc, #648]	; 8b68 <emit.constprop.0+0x304>
    88dc:	e20ce00f 	and	lr, ip, #15, 0
    88e0:	e7d1e00e 	ldrb	lr, [r1, lr]
    88e4:	e35c000f 	cmp	ip, #15, 0
    88e8:	e4c4e001 	strb	lr, [r4], #1
    88ec:	e1a0c22c 	lsr	ip, ip, #4
    88f0:	8afffff9 	bhi	88dc <emit.constprop.0+0x78>
    88f4:	e3a0c078 	mov	ip, #120, 0	; 0x78
    88f8:	e1a0e004 	mov	lr, r4
    88fc:	e3a01030 	mov	r1, #48, 0	; 0x30
    8900:	e4cec002 	strb	ip, [lr], #2
    8904:	e5c41001 	strb	r1, [r4, #1]
    8908:	e04e1002 	sub	r1, lr, r2
    890c:	e1510003 	cmp	r1, r3
    8910:	aa000083 	bge	8b24 <emit.constprop.0+0x2c0>
    8914:	e1510003 	cmp	r1, r3
    8918:	a3a0c001 	movge	ip, #1, 0
    891c:	b3a0c000 	movlt	ip, #0, 0
    8920:	e2434001 	sub	r4, r3, #1, 0
    8924:	e0444001 	sub	r4, r4, r1
    8928:	b0436001 	sublt	r6, r3, r1
    892c:	a3a06001 	movge	r6, #1, 0
    8930:	e3540002 	cmp	r4, #2, 0
    8934:	938cc001 	orrls	ip, ip, #1, 0
    8938:	e35c0000 	cmp	ip, #0, 0
    893c:	1a000075 	bne	8b18 <emit.constprop.0+0x2b4>
    8940:	e1a0c00e 	mov	ip, lr
    8944:	e3c65003 	bic	r5, r6, #3, 0
    8948:	e59f721c 	ldr	r7, [pc, #540]	; 8b6c <emit.constprop.0+0x308>
    894c:	e085500e 	add	r5, r5, lr
    8950:	e48c7004 	str	r7, [ip], #4
    8954:	e15c0005 	cmp	ip, r5
    8958:	1afffffc 	bne	8950 <emit.constprop.0+0xec>
    895c:	e3c6c003 	bic	ip, r6, #3, 0
    8960:	e156000c 	cmp	r6, ip
    8964:	e08e500c 	add	r5, lr, ip
    8968:	e08cc001 	add	ip, ip, r1
    896c:	0a000008 	beq	8994 <emit.constprop.0+0x130>
    8970:	e3a07020 	mov	r7, #32, 0
    8974:	e28c8001 	add	r8, ip, #1, 0
    8978:	e1580003 	cmp	r8, r3
    897c:	e5c57000 	strb	r7, [r5]
    8980:	aa000003 	bge	8994 <emit.constprop.0+0x130>
    8984:	e28cc002 	add	ip, ip, #2, 0
    8988:	e15c0003 	cmp	ip, r3
    898c:	e5c57001 	strb	r7, [r5, #1]
    8990:	b5c57002 	strblt	r7, [r5, #2]
    8994:	e1510003 	cmp	r1, r3
    8998:	a3a04000 	movge	r4, #0, 0
    899c:	e08e6006 	add	r6, lr, r6
    89a0:	e0461002 	sub	r1, r6, r2
    89a4:	e08ee004 	add	lr, lr, r4
    89a8:	e3a03000 	mov	r3, #0, 0
    89ac:	e351007f 	cmp	r1, #127, 0	; 0x7f
    89b0:	c241407f 	subgt	r4, r1, #127, 0	; 0x7f
    89b4:	c0822004 	addgt	r2, r2, r4
    89b8:	e152000e 	cmp	r2, lr
    89bc:	e5c63000 	strb	r3, [r6]
    89c0:	8a00004f 	bhi	8b04 <emit.constprop.0+0x2a0>
    89c4:	e28ee001 	add	lr, lr, #1, 0
    89c8:	e1a0300e 	mov	r3, lr
    89cc:	e240c001 	sub	ip, r0, #1, 0
    89d0:	e5734001 	ldrb	r4, [r3, #-1]!
    89d4:	e1530002 	cmp	r3, r2
    89d8:	e5ec4001 	strb	r4, [ip, #1]!
    89dc:	1afffffb 	bne	89d0 <emit.constprop.0+0x16c>
    89e0:	e04ee003 	sub	lr, lr, r3
    89e4:	e3a03000 	mov	r3, #0, 0
    89e8:	e080e00e 	add	lr, r0, lr
    89ec:	e5ce3000 	strb	r3, [lr]
    89f0:	e28dd048 	add	sp, sp, #72, 0	; 0x48
    89f4:	e8bd81f0 	pop	{r4, r5, r6, r7, r8, pc}
    89f8:	e3a0307f 	mov	r3, #127, 0	; 0x7f
    89fc:	e28d2008 	add	r2, sp, #8, 0
    8a00:	e1a0e002 	mov	lr, r2
    8a04:	e59f1164 	ldr	r1, [pc, #356]	; 8b70 <emit.constprop.0+0x30c>
    8a08:	e20c4001 	and	r4, ip, #1, 0
    8a0c:	e7d14004 	ldrb	r4, [r1, r4]
    8a10:	e35c0001 	cmp	ip, #1, 0
    8a14:	e4ce4001 	strb	r4, [lr], #1
    8a18:	e1a0c0ac 	lsr	ip, ip, #1
    8a1c:	8afffff9 	bhi	8a08 <emit.constprop.0+0x1a4>
    8a20:	eaffffb8 	b	8908 <emit.constprop.0+0xa4>
    8a24:	e24c3002 	sub	r3, ip, #2, 0
    8a28:	e1a0c002 	mov	ip, r2
    8a2c:	e353000e 	cmp	r3, #14, 0
    8a30:	979ff103 	ldrls	pc, [pc, r3, lsl #2]
    8a34:	ea00003d 	b	8b30 <emit.constprop.0+0x2cc>
    8a38:	000089f8 	strdeq	r8, [r0], -r8	; <UNPREDICTABLE>
    8a3c:	00008b30 	andeq	r8, r0, r0, lsr fp
    8a40:	00008b30 	andeq	r8, r0, r0, lsr fp
    8a44:	00008b30 	andeq	r8, r0, r0, lsr fp
    8a48:	00008b30 	andeq	r8, r0, r0, lsr fp
    8a4c:	00008b30 	andeq	r8, r0, r0, lsr fp
    8a50:	00008b50 	andeq	r8, r0, r0, asr fp
    8a54:	00008b30 	andeq	r8, r0, r0, lsr fp
    8a58:	00008a74 	andeq	r8, r0, r4, ror sl
    8a5c:	00008b30 	andeq	r8, r0, r0, lsr fp
    8a60:	00008b30 	andeq	r8, r0, r0, lsr fp
    8a64:	00008b30 	andeq	r8, r0, r0, lsr fp
    8a68:	00008b30 	andeq	r8, r0, r0, lsr fp
    8a6c:	00008b30 	andeq	r8, r0, r0, lsr fp
    8a70:	000088cc 	andeq	r8, r0, ip, asr #17
    8a74:	e3a0307f 	mov	r3, #127, 0	; 0x7f
    8a78:	e59d1060 	ldr	r1, [sp, #96]	; 0x60
    8a7c:	e59f70f0 	ldr	r7, [pc, #240]	; 8b74 <emit.constprop.0+0x310>
    8a80:	e0118fa2 	ands	r8, r1, r2, lsr #31
    8a84:	1262c000 	rsbne	ip, r2, #0, 0
    8a88:	e28d2008 	add	r2, sp, #8, 0
    8a8c:	13a08001 	movne	r8, #1, 0
    8a90:	e1a0e002 	mov	lr, r2
    8a94:	e59f60dc 	ldr	r6, [pc, #220]	; 8b78 <emit.constprop.0+0x314>
    8a98:	e1a0500c 	mov	r5, ip
    8a9c:	e0814c96 	umull	r4, r1, r6, ip
    8aa0:	e1a011a1 	lsr	r1, r1, #3
    8aa4:	e0814101 	add	r4, r1, r1, lsl #2
    8aa8:	e04cc084 	sub	ip, ip, r4, lsl #1
    8aac:	e7d7400c 	ldrb	r4, [r7, ip]
    8ab0:	e3550009 	cmp	r5, #9, 0
    8ab4:	e1a0c001 	mov	ip, r1
    8ab8:	e1a0100e 	mov	r1, lr
    8abc:	e4ce4001 	strb	r4, [lr], #1
    8ac0:	8afffff4 	bhi	8a98 <emit.constprop.0+0x234>
    8ac4:	e3580000 	cmp	r8, #0, 0
    8ac8:	13a0c02d 	movne	ip, #45, 0	; 0x2d
    8acc:	15cec000 	strbne	ip, [lr]
    8ad0:	1281e002 	addne	lr, r1, #2, 0
    8ad4:	eaffff8b 	b	8908 <emit.constprop.0+0xa4>
    8ad8:	e3530001 	cmp	r3, #1, 0
    8adc:	e5cd2008 	strb	r2, [sp, #8]
    8ae0:	c3a01001 	movgt	r1, #1, 0
    8ae4:	c28de009 	addgt	lr, sp, #9, 0
    8ae8:	c28d2008 	addgt	r2, sp, #8, 0
    8aec:	caffff88 	bgt	8914 <emit.constprop.0+0xb0>
    8af0:	e3a03000 	mov	r3, #0, 0
    8af4:	e28de008 	add	lr, sp, #8, 0
    8af8:	e1a0200e 	mov	r2, lr
    8afc:	e5cd3009 	strb	r3, [sp, #9]
    8b00:	eaffffaf 	b	89c4 <emit.constprop.0+0x160>
    8b04:	e1a0e000 	mov	lr, r0
    8b08:	e3a03000 	mov	r3, #0, 0
    8b0c:	e5ce3000 	strb	r3, [lr]
    8b10:	e28dd048 	add	sp, sp, #72, 0	; 0x48
    8b14:	e8bd81f0 	pop	{r4, r5, r6, r7, r8, pc}
    8b18:	e1a0c001 	mov	ip, r1
    8b1c:	e1a0500e 	mov	r5, lr
    8b20:	eaffff92 	b	8970 <emit.constprop.0+0x10c>
    8b24:	e1a0600e 	mov	r6, lr
    8b28:	e24ee001 	sub	lr, lr, #1, 0
    8b2c:	eaffff9d 	b	89a8 <emit.constprop.0+0x144>
    8b30:	e59f2044 	ldr	r2, [pc, #68]	; 8b7c <emit.constprop.0+0x318>
    8b34:	e3a03079 	mov	r3, #121, 0	; 0x79
    8b38:	e59f1040 	ldr	r1, [pc, #64]	; 8b80 <emit.constprop.0+0x31c>
    8b3c:	e58d2000 	str	r2, [sp]
    8b40:	e59f003c 	ldr	r0, [pc, #60]	; 8b84 <emit.constprop.0+0x320>
    8b44:	e59f203c 	ldr	r2, [pc, #60]	; 8b88 <emit.constprop.0+0x324>
    8b48:	ebffff12 	bl	8798 <printk>
    8b4c:	eb0001b1 	bl	9218 <clean_reboot>
    8b50:	e5cd2008 	strb	r2, [sp, #8]
    8b54:	e3a0307f 	mov	r3, #127, 0	; 0x7f
    8b58:	e3a01001 	mov	r1, #1, 0
    8b5c:	e28de009 	add	lr, sp, #9, 0
    8b60:	e28d2008 	add	r2, sp, #8, 0
    8b64:	eaffff6a 	b	8914 <emit.constprop.0+0xb0>
    8b68:	00009ed4 	ldrdeq	r9, [r0], -r4
    8b6c:	20202020 	eorcs	r2, r0, r0, lsr #32
    8b70:	00009ee8 	andeq	r9, r0, r8, ror #29
    8b74:	00009eec 	andeq	r9, r0, ip, ror #29
    8b78:	cccccccd 	stclgt	12, cr12, [ip], {205}	; 0xcd
    8b7c:	00009ed0 	ldrdeq	r9, [r0], -r0
    8b80:	00009ebc 			; <UNDEFINED> instruction: 0x00009ebc
    8b84:	00009d58 	andeq	r9, r0, r8, asr sp
    8b88:	0000a000 	andeq	sl, r0, r0

00008b8c <rpi_set_output>:
    8b8c:	e3500000 	cmp	r0, #0, 0
    8b90:	0a000005 	beq	8bac <rpi_set_output+0x20>
    8b94:	e59f3038 	ldr	r3, [pc, #56]	; 8bd4 <rpi_set_output+0x48>
    8b98:	e3510000 	cmp	r1, #0, 0
    8b9c:	e5830000 	str	r0, [r3]
    8ba0:	159f3030 	ldrne	r3, [pc, #48]	; 8bd8 <rpi_set_output+0x4c>
    8ba4:	15831000 	strne	r1, [r3]
    8ba8:	e12fff1e 	bx	lr
    8bac:	e52de004 	push	{lr}		; (str lr, [sp, #-4]!)
    8bb0:	e59f2024 	ldr	r2, [pc, #36]	; 8bdc <rpi_set_output+0x50>
    8bb4:	e24dd00c 	sub	sp, sp, #12, 0
    8bb8:	e3a03020 	mov	r3, #32, 0
    8bbc:	e59f101c 	ldr	r1, [pc, #28]	; 8be0 <rpi_set_output+0x54>
    8bc0:	e58d2000 	str	r2, [sp]
    8bc4:	e59f0018 	ldr	r0, [pc, #24]	; 8be4 <rpi_set_output+0x58>
    8bc8:	e59f2018 	ldr	r2, [pc, #24]	; 8be8 <rpi_set_output+0x5c>
    8bcc:	ebfffef1 	bl	8798 <printk>
    8bd0:	eb000190 	bl	9218 <clean_reboot>
    8bd4:	0000a22c 	andeq	sl, r0, ip, lsr #4
    8bd8:	0000a230 	andeq	sl, r0, r0, lsr r2
    8bdc:	00009ef8 	strdeq	r9, [r0], -r8
    8be0:	00009ebc 			; <UNDEFINED> instruction: 0x00009ebc
    8be4:	00009d58 	andeq	r9, r0, r8, asr sp
    8be8:	0000a008 	andeq	sl, r0, r8

00008bec <va_printk>:
    8bec:	e92d4ff0 	push	{r4, r5, r6, r7, r8, r9, sl, fp, lr}
    8bf0:	e1a0b000 	mov	fp, r0
    8bf4:	e3a00000 	mov	r0, #0, 0
    8bf8:	e5cb0000 	strb	r0, [fp]
    8bfc:	e5d2c000 	ldrb	ip, [r2]
    8c00:	e2417001 	sub	r7, r1, #1, 0
    8c04:	e08b7007 	add	r7, fp, r7
    8c08:	e15c0000 	cmp	ip, r0
    8c0c:	115b0007 	cmpne	fp, r7
    8c10:	e24ddf47 	sub	sp, sp, #284	; 0x11c
    8c14:	e58d2010 	str	r2, [sp, #16]
    8c18:	2a000159 	bcs	9184 <va_printk+0x598>
    8c1c:	e1a06002 	mov	r6, r2
    8c20:	e1a08003 	mov	r8, r3
    8c24:	e1a0400b 	mov	r4, fp
    8c28:	e59fa5a4 	ldr	sl, [pc, #1444]	; 91d4 <va_printk+0x5e8>
    8c2c:	e58db00c 	str	fp, [sp, #12]
    8c30:	ea000005 	b	8c4c <va_printk+0x60>
    8c34:	e4c4c001 	strb	ip, [r4], #1
    8c38:	e2866001 	add	r6, r6, #1, 0
    8c3c:	e5d6c000 	ldrb	ip, [r6]
    8c40:	e35c0000 	cmp	ip, #0, 0
    8c44:	11570004 	cmpne	r7, r4
    8c48:	9a00002f 	bls	8d0c <va_printk+0x120>
    8c4c:	e35c0025 	cmp	ip, #37, 0	; 0x25
    8c50:	1afffff7 	bne	8c34 <va_printk+0x48>
    8c54:	e5d62001 	ldrb	r2, [r6, #1]
    8c58:	e3520025 	cmp	r2, #37, 0	; 0x25
    8c5c:	04c4c001 	strbeq	ip, [r4], #1
    8c60:	02866002 	addeq	r6, r6, #2, 0
    8c64:	0afffff4 	beq	8c3c <va_printk+0x50>
    8c68:	e2423030 	sub	r3, r2, #48, 0	; 0x30
    8c6c:	e3530009 	cmp	r3, #9, 0
    8c70:	e3a05000 	mov	r5, #0, 0
    8c74:	e2866001 	add	r6, r6, #1, 0
    8c78:	8a000008 	bhi	8ca0 <va_printk+0xb4>
    8c7c:	e0855105 	add	r5, r5, r5, lsl #2
    8c80:	e0825085 	add	r5, r2, r5, lsl #1
    8c84:	e5f62001 	ldrb	r2, [r6, #1]!
    8c88:	e2455030 	sub	r5, r5, #48, 0	; 0x30
    8c8c:	e2423030 	sub	r3, r2, #48, 0	; 0x30
    8c90:	e3530009 	cmp	r3, #9, 0
    8c94:	9afffff8 	bls	8c7c <va_printk+0x90>
    8c98:	e355001f 	cmp	r5, #31, 0
    8c9c:	8a00013a 	bhi	918c <va_printk+0x5a0>
    8ca0:	e2423062 	sub	r3, r2, #98, 0	; 0x62
    8ca4:	e3530016 	cmp	r3, #22, 0
    8ca8:	979ff103 	ldrls	pc, [pc, r3, lsl #2]
    8cac:	ea00011b 	b	9120 <va_printk+0x534>
    8cb0:	00008f64 	andeq	r8, r0, r4, ror #30
    8cb4:	00008e60 	andeq	r8, r0, r0, ror #28
    8cb8:	00008e58 	andeq	r8, r0, r8, asr lr
    8cbc:	00009120 	andeq	r9, r0, r0, lsr #2
    8cc0:	0000915c 	andeq	r9, r0, ip, asr r1
    8cc4:	00009120 	andeq	r9, r0, r0, lsr #2
    8cc8:	00009120 	andeq	r9, r0, r0, lsr #2
    8ccc:	00009120 	andeq	r9, r0, r0, lsr #2
    8cd0:	00009120 	andeq	r9, r0, r0, lsr #2
    8cd4:	00009120 	andeq	r9, r0, r0, lsr #2
    8cd8:	00008d68 	andeq	r8, r0, r8, ror #26
    8cdc:	00009120 	andeq	r9, r0, r0, lsr #2
    8ce0:	00009120 	andeq	r9, r0, r0, lsr #2
    8ce4:	00009120 	andeq	r9, r0, r0, lsr #2
    8ce8:	00008d24 	andeq	r8, r0, r4, lsr #26
    8cec:	00009120 	andeq	r9, r0, r0, lsr #2
    8cf0:	00009120 	andeq	r9, r0, r0, lsr #2
    8cf4:	0000905c 	andeq	r9, r0, ip, asr r0
    8cf8:	00009120 	andeq	r9, r0, r0, lsr #2
    8cfc:	00008e34 	andeq	r8, r0, r4, lsr lr
    8d00:	00009120 	andeq	r9, r0, r0, lsr #2
    8d04:	00009120 	andeq	r9, r0, r0, lsr #2
    8d08:	00008d24 	andeq	r8, r0, r4, lsr #26
    8d0c:	e59db00c 	ldr	fp, [sp, #12]
    8d10:	e3a03000 	mov	r3, #0, 0
    8d14:	e4c43001 	strb	r3, [r4], #1
    8d18:	e044000b 	sub	r0, r4, fp
    8d1c:	e28ddf47 	add	sp, sp, #284	; 0x11c
    8d20:	e8bd8ff0 	pop	{r4, r5, r6, r7, r8, r9, sl, fp, pc}
    8d24:	e3a01000 	mov	r1, #0, 0
    8d28:	e1a03005 	mov	r3, r5
    8d2c:	e4982004 	ldr	r2, [r8], #4
    8d30:	e3a00010 	mov	r0, #16, 0
    8d34:	e58d1000 	str	r1, [sp]
    8d38:	e28d1018 	add	r1, sp, #24, 0
    8d3c:	ebfffec8 	bl	8864 <emit.constprop.0>
    8d40:	e1a05000 	mov	r5, r0
    8d44:	e2866001 	add	r6, r6, #1, 0
    8d48:	e2455001 	sub	r5, r5, #1, 0
    8d4c:	e5f53001 	ldrb	r3, [r5, #1]!
    8d50:	e3530000 	cmp	r3, #0, 0
    8d54:	0affffb8 	beq	8c3c <va_printk+0x50>
    8d58:	e4c43001 	strb	r3, [r4], #1
    8d5c:	e1570004 	cmp	r7, r4
    8d60:	8afffff9 	bhi	8d4c <va_printk+0x160>
    8d64:	eaffffb4 	b	8c3c <va_printk+0x50>
    8d68:	e3a02003 	mov	r2, #3, 0
    8d6c:	e1a00006 	mov	r0, r6
    8d70:	e59f1460 	ldr	r1, [pc, #1120]	; 91d8 <va_printk+0x5ec>
    8d74:	eb0003cb 	bl	9ca8 <strncmp>
    8d78:	e3500000 	cmp	r0, #0, 0
    8d7c:	0a000005 	beq	8d98 <va_printk+0x1ac>
    8d80:	e3a02003 	mov	r2, #3, 0
    8d84:	e1a00006 	mov	r0, r6
    8d88:	e59f144c 	ldr	r1, [pc, #1100]	; 91dc <va_printk+0x5f0>
    8d8c:	eb0003c5 	bl	9ca8 <strncmp>
    8d90:	e3500000 	cmp	r0, #0, 0
    8d94:	1a00010b 	bne	91c8 <va_printk+0x5dc>
    8d98:	e2888007 	add	r8, r8, #7, 0
    8d9c:	e3c88007 	bic	r8, r8, #7, 0
    8da0:	e598b004 	ldr	fp, [r8, #4]
    8da4:	e4989008 	ldr	r9, [r8], #8
    8da8:	e1a0100b 	mov	r1, fp
    8dac:	e59f042c 	ldr	r0, [pc, #1068]	; 91e0 <va_printk+0x5f4>
    8db0:	ebfffe78 	bl	8798 <printk>
    8db4:	e1a01009 	mov	r1, r9
    8db8:	e59f0424 	ldr	r0, [pc, #1060]	; 91e4 <va_printk+0x5f8>
    8dbc:	ebfffe75 	bl	8798 <printk>
    8dc0:	e3a02003 	mov	r2, #3, 0
    8dc4:	e1a00006 	mov	r0, r6
    8dc8:	e59f1408 	ldr	r1, [pc, #1032]	; 91d8 <va_printk+0x5ec>
    8dcc:	eb0003b5 	bl	9ca8 <strncmp>
    8dd0:	e2503000 	subs	r3, r0, #0, 0
    8dd4:	e1a02003 	mov	r2, r3
    8dd8:	e2863002 	add	r3, r6, #2, 0
    8ddc:	e58d3014 	str	r3, [sp, #20]
    8de0:	1a00009f 	bne	9064 <va_printk+0x478>
    8de4:	e1a06002 	mov	r6, r2
    8de8:	e1a03005 	mov	r3, r5
    8dec:	e58d2000 	str	r2, [sp]
    8df0:	e28d1018 	add	r1, sp, #24, 0
    8df4:	e1a0200b 	mov	r2, fp
    8df8:	e3a00010 	mov	r0, #16, 0
    8dfc:	ebfffe98 	bl	8864 <emit.constprop.0>
    8e00:	e1a0c000 	mov	ip, r0
    8e04:	e1a03005 	mov	r3, r5
    8e08:	e58d6000 	str	r6, [sp]
    8e0c:	e28d1098 	add	r1, sp, #152, 0	; 0x98
    8e10:	e1a02009 	mov	r2, r9
    8e14:	e3a00010 	mov	r0, #16, 0
    8e18:	e1a0500c 	mov	r5, ip
    8e1c:	ebfffe90 	bl	8864 <emit.constprop.0>
    8e20:	e28d0018 	add	r0, sp, #24, 0
    8e24:	e28d109a 	add	r1, sp, #154, 0	; 0x9a
    8e28:	e59d6014 	ldr	r6, [sp, #20]
    8e2c:	eb00037b 	bl	9c20 <strcat>
    8e30:	eaffffc3 	b	8d44 <va_printk+0x158>
    8e34:	e3a01000 	mov	r1, #0, 0
    8e38:	e1a03005 	mov	r3, r5
    8e3c:	e4982004 	ldr	r2, [r8], #4
    8e40:	e3a0000a 	mov	r0, #10, 0
    8e44:	e58d1000 	str	r1, [sp]
    8e48:	e28d1018 	add	r1, sp, #24, 0
    8e4c:	ebfffe84 	bl	8864 <emit.constprop.0>
    8e50:	e1a05000 	mov	r5, r0
    8e54:	eaffffba 	b	8d44 <va_printk+0x158>
    8e58:	e3a01001 	mov	r1, #1, 0
    8e5c:	eafffff5 	b	8e38 <va_printk+0x24c>
    8e60:	e4983004 	ldr	r3, [r8], #4
    8e64:	e3550001 	cmp	r5, #1, 0
    8e68:	e5cd3098 	strb	r3, [sp, #152]	; 0x98
    8e6c:	9a0000a6 	bls	910c <va_printk+0x520>
    8e70:	e2453002 	sub	r3, r5, #2, 0
    8e74:	e3530002 	cmp	r3, #2, 0
    8e78:	e2451001 	sub	r1, r5, #1, 0
    8e7c:	9a0000bc 	bls	9174 <va_printk+0x588>
    8e80:	e59f0360 	ldr	r0, [pc, #864]	; 91e8 <va_printk+0x5fc>
    8e84:	e1a02121 	lsr	r2, r1, #2
    8e88:	e3520001 	cmp	r2, #1, 0
    8e8c:	e58d0099 	str	r0, [sp, #153]	; 0x99
    8e90:	0a00000e 	beq	8ed0 <va_printk+0x2e4>
    8e94:	e3520002 	cmp	r2, #2, 0
    8e98:	e58d009d 	str	r0, [sp, #157]	; 0x9d
    8e9c:	0a00000b 	beq	8ed0 <va_printk+0x2e4>
    8ea0:	e3520003 	cmp	r2, #3, 0
    8ea4:	e58d00a1 	str	r0, [sp, #161]	; 0xa1
    8ea8:	0a000008 	beq	8ed0 <va_printk+0x2e4>
    8eac:	e3520004 	cmp	r2, #4, 0
    8eb0:	e58d00a5 	str	r0, [sp, #165]	; 0xa5
    8eb4:	0a000005 	beq	8ed0 <va_printk+0x2e4>
    8eb8:	e3520005 	cmp	r2, #5, 0
    8ebc:	e58d00a9 	str	r0, [sp, #169]	; 0xa9
    8ec0:	0a000002 	beq	8ed0 <va_printk+0x2e4>
    8ec4:	e3520007 	cmp	r2, #7, 0
    8ec8:	e58d00ad 	str	r0, [sp, #173]	; 0xad
    8ecc:	058d00b1 	streq	r0, [sp, #177]	; 0xb1
    8ed0:	e3c12003 	bic	r2, r1, #3, 0
    8ed4:	e1510002 	cmp	r1, r2
    8ed8:	e28dc099 	add	ip, sp, #153, 0	; 0x99
    8edc:	e08c0002 	add	r0, ip, r2
    8ee0:	e2822001 	add	r2, r2, #1, 0
    8ee4:	0a000008 	beq	8f0c <va_printk+0x320>
    8ee8:	e3a0e020 	mov	lr, #32, 0
    8eec:	e2829001 	add	r9, r2, #1, 0
    8ef0:	e1550009 	cmp	r5, r9
    8ef4:	e5c0e000 	strb	lr, [r0]
    8ef8:	da000003 	ble	8f0c <va_printk+0x320>
    8efc:	e2822002 	add	r2, r2, #2, 0
    8f00:	e1550002 	cmp	r5, r2
    8f04:	e5c0e001 	strb	lr, [r0, #1]
    8f08:	c5c0e002 	strbgt	lr, [r0, #2]
    8f0c:	e3a0e000 	mov	lr, #0, 0
    8f10:	e28d0098 	add	r0, sp, #152, 0	; 0x98
    8f14:	e08c2001 	add	r2, ip, r1
    8f18:	e0422000 	sub	r2, r2, r0
    8f1c:	e352007f 	cmp	r2, #127, 0	; 0x7f
    8f20:	c242207f 	subgt	r2, r2, #127, 0	; 0x7f
    8f24:	e08c3003 	add	r3, ip, r3
    8f28:	c0800002 	addgt	r0, r0, r2
    8f2c:	e1530000 	cmp	r3, r0
    8f30:	e7cce001 	strb	lr, [ip, r1]
    8f34:	3a00006c 	bcc	90ec <va_printk+0x500>
    8f38:	e283c001 	add	ip, r3, #1, 0
    8f3c:	e1a0300c 	mov	r3, ip
    8f40:	e28d5018 	add	r5, sp, #24, 0
    8f44:	e2452001 	sub	r2, r5, #1, 0
    8f48:	e5731001 	ldrb	r1, [r3, #-1]!
    8f4c:	e1500003 	cmp	r0, r3
    8f50:	e5e21001 	strb	r1, [r2, #1]!
    8f54:	1afffffb 	bne	8f48 <va_printk+0x35c>
    8f58:	e04c3000 	sub	r3, ip, r0
    8f5c:	e0853003 	add	r3, r5, r3
    8f60:	ea00003a 	b	9050 <va_printk+0x464>
    8f64:	e28d1098 	add	r1, sp, #152, 0	; 0x98
    8f68:	e1a03001 	mov	r3, r1
    8f6c:	e4980004 	ldr	r0, [r8], #4
    8f70:	e200c001 	and	ip, r0, #1, 0
    8f74:	e7dac00c 	ldrb	ip, [sl, ip]
    8f78:	e3500001 	cmp	r0, #1, 0
    8f7c:	e1a02003 	mov	r2, r3
    8f80:	e1a000a0 	lsr	r0, r0, #1
    8f84:	e4c3c001 	strb	ip, [r3], #1
    8f88:	8afffff8 	bhi	8f70 <va_printk+0x384>
    8f8c:	e0430001 	sub	r0, r3, r1
    8f90:	e1550000 	cmp	r5, r0
    8f94:	da000057 	ble	90f8 <va_printk+0x50c>
    8f98:	e045c000 	sub	ip, r5, r0
    8f9c:	e24ce001 	sub	lr, ip, #1, 0
    8fa0:	e35e0002 	cmp	lr, #2, 0
    8fa4:	e1a0e003 	mov	lr, r3
    8fa8:	9a00000a 	bls	8fd8 <va_printk+0x3ec>
    8fac:	e3cc9003 	bic	r9, ip, #3, 0
    8fb0:	e0899003 	add	r9, r9, r3
    8fb4:	e59fb22c 	ldr	fp, [pc, #556]	; 91e8 <va_printk+0x5fc>
    8fb8:	e48eb004 	str	fp, [lr], #4
    8fbc:	e15e0009 	cmp	lr, r9
    8fc0:	1afffffb 	bne	8fb4 <va_printk+0x3c8>
    8fc4:	e3cce003 	bic	lr, ip, #3, 0
    8fc8:	e15e000c 	cmp	lr, ip
    8fcc:	e080000e 	add	r0, r0, lr
    8fd0:	e083e00e 	add	lr, r3, lr
    8fd4:	0a000008 	beq	8ffc <va_printk+0x410>
    8fd8:	e3a09020 	mov	r9, #32, 0
    8fdc:	e280b001 	add	fp, r0, #1, 0
    8fe0:	e155000b 	cmp	r5, fp
    8fe4:	e5ce9000 	strb	r9, [lr]
    8fe8:	da000003 	ble	8ffc <va_printk+0x410>
    8fec:	e2800002 	add	r0, r0, #2, 0
    8ff0:	e1550000 	cmp	r5, r0
    8ff4:	e5ce9001 	strb	r9, [lr, #1]
    8ff8:	c5ce9002 	strbgt	r9, [lr, #2]
    8ffc:	e3a0e000 	mov	lr, #0, 0
    9000:	e083000c 	add	r0, r3, ip
    9004:	e0400001 	sub	r0, r0, r1
    9008:	e350007f 	cmp	r0, #127, 0	; 0x7f
    900c:	e082200c 	add	r2, r2, ip
    9010:	e7c3e00c 	strb	lr, [r3, ip]
    9014:	da000001 	ble	9020 <va_printk+0x434>
    9018:	e240007f 	sub	r0, r0, #127, 0	; 0x7f
    901c:	e0811000 	add	r1, r1, r0
    9020:	e1510002 	cmp	r1, r2
    9024:	8a000030 	bhi	90ec <va_printk+0x500>
    9028:	e2822001 	add	r2, r2, #1, 0
    902c:	e1a03002 	mov	r3, r2
    9030:	e28d5018 	add	r5, sp, #24, 0
    9034:	e245c001 	sub	ip, r5, #1, 0
    9038:	e5730001 	ldrb	r0, [r3, #-1]!
    903c:	e1530001 	cmp	r3, r1
    9040:	e5ec0001 	strb	r0, [ip, #1]!
    9044:	1afffffb 	bne	9038 <va_printk+0x44c>
    9048:	e0423003 	sub	r3, r2, r3
    904c:	e0853003 	add	r3, r5, r3
    9050:	e3a02000 	mov	r2, #0, 0
    9054:	e5c32000 	strb	r2, [r3]
    9058:	eaffff39 	b	8d44 <va_printk+0x158>
    905c:	e4985004 	ldr	r5, [r8], #4
    9060:	eaffff37 	b	8d44 <va_printk+0x158>
    9064:	e3a02003 	mov	r2, #3, 0
    9068:	e1a00006 	mov	r0, r6
    906c:	e59f1168 	ldr	r1, [pc, #360]	; 91dc <va_printk+0x5f0>
    9070:	eb00030c 	bl	9ca8 <strncmp>
    9074:	e2503000 	subs	r3, r0, #0, 0
    9078:	1a00004b 	bne	91ac <va_printk+0x5c0>
    907c:	e1a06003 	mov	r6, r3
    9080:	e1a0200b 	mov	r2, fp
    9084:	e58d3000 	str	r3, [sp]
    9088:	e28d1018 	add	r1, sp, #24, 0
    908c:	e1a03005 	mov	r3, r5
    9090:	e3a0000a 	mov	r0, #10, 0
    9094:	ebfffdf2 	bl	8864 <emit.constprop.0>
    9098:	e1a0c000 	mov	ip, r0
    909c:	e1a03005 	mov	r3, r5
    90a0:	e1a02009 	mov	r2, r9
    90a4:	e28d1098 	add	r1, sp, #152, 0	; 0x98
    90a8:	e3a0000a 	mov	r0, #10, 0
    90ac:	e58d6000 	str	r6, [sp]
    90b0:	e1a0500c 	mov	r5, ip
    90b4:	ebfffdea 	bl	8864 <emit.constprop.0>
    90b8:	e59f112c 	ldr	r1, [pc, #300]	; 91ec <va_printk+0x600>
    90bc:	e28d0018 	add	r0, sp, #24, 0
    90c0:	eb0002e1 	bl	9c4c <strcmp>
    90c4:	e3500000 	cmp	r0, #0, 0
    90c8:	e28d1098 	add	r1, sp, #152, 0	; 0x98
    90cc:	e28d0018 	add	r0, sp, #24, 0
    90d0:	1a000002 	bne	90e0 <va_printk+0x4f4>
    90d4:	eb0002ed 	bl	9c90 <strcpy>
    90d8:	e59d6014 	ldr	r6, [sp, #20]
    90dc:	eaffff18 	b	8d44 <va_printk+0x158>
    90e0:	eb0002ce 	bl	9c20 <strcat>
    90e4:	e59d6014 	ldr	r6, [sp, #20]
    90e8:	eaffff15 	b	8d44 <va_printk+0x158>
    90ec:	e28d5018 	add	r5, sp, #24, 0
    90f0:	e1a03005 	mov	r3, r5
    90f4:	eaffffd5 	b	9050 <va_printk+0x464>
    90f8:	e3a0c000 	mov	ip, #0, 0
    90fc:	e350007f 	cmp	r0, #127, 0	; 0x7f
    9100:	e5c3c000 	strb	ip, [r3]
    9104:	caffffc3 	bgt	9018 <va_printk+0x42c>
    9108:	eaffffc6 	b	9028 <va_printk+0x43c>
    910c:	e3a02000 	mov	r2, #0, 0
    9110:	e28d3098 	add	r3, sp, #152, 0	; 0x98
    9114:	e1a00003 	mov	r0, r3
    9118:	e5cd2099 	strb	r2, [sp, #153]	; 0x99
    911c:	eaffff85 	b	8f38 <va_printk+0x34c>
    9120:	e3a03000 	mov	r3, #0, 0
    9124:	e1a01002 	mov	r1, r2
    9128:	e5c63001 	strb	r3, [r6, #1]
    912c:	e59f00bc 	ldr	r0, [pc, #188]	; 91f0 <va_printk+0x604>
    9130:	ebfffd98 	bl	8798 <printk>
    9134:	e59f30b8 	ldr	r3, [pc, #184]	; 91f4 <va_printk+0x608>
    9138:	e59d0010 	ldr	r0, [sp, #16]
    913c:	e5933000 	ldr	r3, [r3]
    9140:	e12fff33 	blx	r3
    9144:	e3a030e2 	mov	r3, #226, 0	; 0xe2
    9148:	e59f20a8 	ldr	r2, [pc, #168]	; 91f8 <va_printk+0x60c>
    914c:	e59f10a8 	ldr	r1, [pc, #168]	; 91fc <va_printk+0x610>
    9150:	e59f00a8 	ldr	r0, [pc, #168]	; 9200 <va_printk+0x614>
    9154:	ebfffd8f 	bl	8798 <printk>
    9158:	eb00002e 	bl	9218 <clean_reboot>
    915c:	e3a030be 	mov	r3, #190, 0	; 0xbe
    9160:	e59f2090 	ldr	r2, [pc, #144]	; 91f8 <va_printk+0x60c>
    9164:	e59f1090 	ldr	r1, [pc, #144]	; 91fc <va_printk+0x610>
    9168:	e59f0094 	ldr	r0, [pc, #148]	; 9204 <va_printk+0x618>
    916c:	ebfffd89 	bl	8798 <printk>
    9170:	eb000028 	bl	9218 <clean_reboot>
    9174:	e28dc099 	add	ip, sp, #153, 0	; 0x99
    9178:	e1a0000c 	mov	r0, ip
    917c:	e3a02001 	mov	r2, #1, 0
    9180:	eaffff58 	b	8ee8 <va_printk+0x2fc>
    9184:	e1a0400b 	mov	r4, fp
    9188:	eafffee0 	b	8d10 <va_printk+0x124>
    918c:	e3a03098 	mov	r3, #152, 0	; 0x98
    9190:	e59f2070 	ldr	r2, [pc, #112]	; 9208 <va_printk+0x61c>
    9194:	e59f1060 	ldr	r1, [pc, #96]	; 91fc <va_printk+0x610>
    9198:	e58d2000 	str	r2, [sp]
    919c:	e59f0068 	ldr	r0, [pc, #104]	; 920c <va_printk+0x620>
    91a0:	e59f2050 	ldr	r2, [pc, #80]	; 91f8 <va_printk+0x60c>
    91a4:	ebfffd7b 	bl	8798 <printk>
    91a8:	eb00001a 	bl	9218 <clean_reboot>
    91ac:	e3a030b6 	mov	r3, #182, 0	; 0xb6
    91b0:	e59f2040 	ldr	r2, [pc, #64]	; 91f8 <va_printk+0x60c>
    91b4:	e59f1040 	ldr	r1, [pc, #64]	; 91fc <va_printk+0x610>
    91b8:	e59f0050 	ldr	r0, [pc, #80]	; 9210 <va_printk+0x624>
    91bc:	e58d6000 	str	r6, [sp]
    91c0:	ebfffd74 	bl	8798 <printk>
    91c4:	eb000013 	bl	9218 <clean_reboot>
    91c8:	e3a0309f 	mov	r3, #159, 0	; 0x9f
    91cc:	e59f2040 	ldr	r2, [pc, #64]	; 9214 <va_printk+0x628>
    91d0:	eaffffef 	b	9194 <va_printk+0x5a8>
    91d4:	00009ee8 	andeq	r9, r0, r8, ror #29
    91d8:	00009f0c 	andeq	r9, r0, ip, lsl #30
    91dc:	00009f20 	andeq	r9, r0, r0, lsr #30
    91e0:	00009f10 	andeq	r9, r0, r0, lsl pc
    91e4:	00009f18 	andeq	r9, r0, r8, lsl pc
    91e8:	20202020 	eorcs	r2, r0, r0, lsr #32
    91ec:	00009ed0 	ldrdeq	r9, [r0], -r0
    91f0:	00009fb0 			; <UNDEFINED> instruction: 0x00009fb0
    91f4:	0000a230 	andeq	sl, r0, r0, lsr r2
    91f8:	0000a018 	andeq	sl, r0, r8, lsl r0
    91fc:	00009ebc 			; <UNDEFINED> instruction: 0x00009ebc
    9200:	00009fe0 	andeq	r9, r0, r0, ror #31
    9204:	00009f88 	andeq	r9, r0, r8, lsl #31
    9208:	00009f00 	andeq	r9, r0, r0, lsl #30
    920c:	00009d58 	andeq	r9, r0, r8, asr sp
    9210:	00009f60 	andeq	r9, r0, r0, ror #30
    9214:	00009f24 	andeq	r9, r0, r4, lsr #30

00009218 <clean_reboot>:
    9218:	e59f301c 	ldr	r3, [pc, #28]	; 923c <clean_reboot+0x24>
    921c:	e92d4010 	push	{r4, lr}
    9220:	e5933000 	ldr	r3, [r3]
    9224:	e59f0014 	ldr	r0, [pc, #20]	; 9240 <clean_reboot+0x28>
    9228:	e12fff33 	blx	r3
    922c:	eb00011b 	bl	96a0 <uart_flush_tx>
    9230:	e3a0000a 	mov	r0, #10, 0
    9234:	eb000082 	bl	9444 <delay_ms>
    9238:	eb00004b 	bl	936c <rpi_reboot>
    923c:	0000a230 	andeq	sl, r0, r0, lsr r2
    9240:	0000a024 	andeq	sl, r0, r4, lsr #32

00009244 <_cstart>:
    9244:	e92d4070 	push	{r4, r5, r6, lr}
    9248:	eb00003b 	bl	933c <custom_loader>
    924c:	e59f20e0 	ldr	r2, [pc, #224]	; 9334 <_cstart+0xf0>
    9250:	e59fc0e0 	ldr	ip, [pc, #224]	; 9338 <_cstart+0xf4>
    9254:	e152000c 	cmp	r2, ip
    9258:	2a00002e 	bcs	9318 <_cstart+0xd4>
    925c:	e24c1001 	sub	r1, ip, #1, 0
    9260:	e0411002 	sub	r1, r1, r2
    9264:	e3510017 	cmp	r1, #23, 0
    9268:	e1a03122 	lsr	r3, r2, #2
    926c:	e1a01121 	lsr	r1, r1, #2
    9270:	e2811001 	add	r1, r1, #1, 0
    9274:	e2033001 	and	r3, r3, #1, 0
    9278:	9a00002b 	bls	932c <_cstart+0xe8>
    927c:	e3530000 	cmp	r3, #0, 0
    9280:	11a00002 	movne	r0, r2
    9284:	13a0e000 	movne	lr, #0, 0
    9288:	e3a04000 	mov	r4, #0, 0
    928c:	e3a05000 	mov	r5, #0, 0
    9290:	e0411003 	sub	r1, r1, r3
    9294:	01a00002 	moveq	r0, r2
    9298:	e0823103 	add	r3, r2, r3, lsl #2
    929c:	e1a020a1 	lsr	r2, r1, #1
    92a0:	1480e004 	strne	lr, [r0], #4
    92a4:	e0832182 	add	r2, r3, r2, lsl #3
    92a8:	e0c340f8 	strd	r4, [r3], #8
    92ac:	e1520003 	cmp	r2, r3
    92b0:	1afffffc 	bne	92a8 <_cstart+0x64>
    92b4:	e3c13001 	bic	r3, r1, #1, 0
    92b8:	e1510003 	cmp	r1, r3
    92bc:	e0803103 	add	r3, r0, r3, lsl #2
    92c0:	0a000014 	beq	9318 <_cstart+0xd4>
    92c4:	e1a01003 	mov	r1, r3
    92c8:	e3a02000 	mov	r2, #0, 0
    92cc:	e4812004 	str	r2, [r1], #4
    92d0:	e151000c 	cmp	r1, ip
    92d4:	2a00000f 	bcs	9318 <_cstart+0xd4>
    92d8:	e2831008 	add	r1, r3, #8, 0
    92dc:	e151000c 	cmp	r1, ip
    92e0:	e5832004 	str	r2, [r3, #4]
    92e4:	2a00000b 	bcs	9318 <_cstart+0xd4>
    92e8:	e283100c 	add	r1, r3, #12, 0
    92ec:	e151000c 	cmp	r1, ip
    92f0:	e5832008 	str	r2, [r3, #8]
    92f4:	2a000007 	bcs	9318 <_cstart+0xd4>
    92f8:	e2831010 	add	r1, r3, #16, 0
    92fc:	e151000c 	cmp	r1, ip
    9300:	e583200c 	str	r2, [r3, #12]
    9304:	2a000003 	bcs	9318 <_cstart+0xd4>
    9308:	e2831014 	add	r1, r3, #20, 0
    930c:	e151000c 	cmp	r1, ip
    9310:	e5832010 	str	r2, [r3, #16]
    9314:	35832014 	strcc	r2, [r3, #20]
    9318:	eb000082 	bl	9528 <uart_init>
    931c:	e3a03001 	mov	r3, #1, 0
    9320:	ee0f3f1c 	mcr	15, 0, r3, cr15, cr12, {0}
    9324:	ebfffba8 	bl	81cc <notmain>
    9328:	ebffffba 	bl	9218 <clean_reboot>
    932c:	e1a03002 	mov	r3, r2
    9330:	eaffffe3 	b	92c4 <_cstart+0x80>
    9334:	0000a240 	andeq	sl, r0, r0, asr #4
    9338:	0000a658 	andeq	sl, r0, r8, asr r6

0000933c <custom_loader>:
    933c:	e12fff1e 	bx	lr

00009340 <at_user_level>:
    9340:	e10f0000 	mrs	r0, CPSR
    9344:	e200001f 	and	r0, r0, #31, 0
    9348:	e2400010 	sub	r0, r0, #16, 0
    934c:	e16f0f10 	clz	r0, r0
    9350:	e1a002a0 	lsr	r0, r0, #5
    9354:	e12fff1e 	bx	lr

00009358 <set_user_level>:
    9358:	e10f3000 	mrs	r3, CPSR
    935c:	e3c3301f 	bic	r3, r3, #31, 0
    9360:	e3833010 	orr	r3, r3, #16, 0
    9364:	e129f003 	msr	CPSR_fc, r3
    9368:	e12fff1e 	bx	lr

0000936c <rpi_reboot>:
    936c:	e92d4010 	push	{r4, lr}
    9370:	e10f3000 	mrs	r3, CPSR
    9374:	e203301f 	and	r3, r3, #31, 0
    9378:	e3530010 	cmp	r3, #16, 0
    937c:	1a000003 	bne	9390 <rpi_reboot+0x24>
    9380:	e10f3000 	mrs	r3, CPSR
    9384:	e3c3301f 	bic	r3, r3, #31, 0
    9388:	e3833010 	orr	r3, r3, #16, 0
    938c:	e129f003 	msr	CPSR_fc, r3
    9390:	eb000250 	bl	9cd8 <reboot_callout>
    9394:	eb0000c1 	bl	96a0 <uart_flush_tx>
    9398:	e3a0000a 	mov	r0, #10, 0
    939c:	eb000028 	bl	9444 <delay_ms>
    93a0:	e59f1014 	ldr	r1, [pc, #20]	; 93bc <rpi_reboot+0x50>
    93a4:	e59f0014 	ldr	r0, [pc, #20]	; 93c0 <rpi_reboot+0x54>
    93a8:	ebfffb1d 	bl	8024 <PUT32>
    93ac:	e59f1010 	ldr	r1, [pc, #16]	; 93c4 <rpi_reboot+0x58>
    93b0:	e59f0010 	ldr	r0, [pc, #16]	; 93c8 <rpi_reboot+0x5c>
    93b4:	ebfffb1a 	bl	8024 <PUT32>
    93b8:	eafffffe 	b	93b8 <rpi_reboot+0x4c>
    93bc:	5a000001 	bpl	93c8 <rpi_reboot+0x5c>
    93c0:	20100024 	andscs	r0, r0, r4, lsr #32
    93c4:	5a000020 	bpl	944c <delay_ms+0x8>
    93c8:	2010001c 	andscs	r0, r0, ip, lsl r0

000093cc <timer_get_usec_raw>:
    93cc:	e59f0000 	ldr	r0, [pc]	; 93d4 <timer_get_usec_raw+0x8>
    93d0:	eafffb15 	b	802c <GET32>
    93d4:	20003004 	andcs	r3, r0, r4

000093d8 <timer_get_usec>:
    93d8:	e92d4010 	push	{r4, lr}
    93dc:	eb00023e 	bl	9cdc <dev_barrier>
    93e0:	e59f0010 	ldr	r0, [pc, #16]	; 93f8 <timer_get_usec+0x20>
    93e4:	ebfffb10 	bl	802c <GET32>
    93e8:	e1a04000 	mov	r4, r0
    93ec:	eb00023a 	bl	9cdc <dev_barrier>
    93f0:	e1a00004 	mov	r0, r4
    93f4:	e8bd8010 	pop	{r4, pc}
    93f8:	20003004 	andcs	r3, r0, r4

000093fc <delay_us>:
    93fc:	e92d41f0 	push	{r4, r5, r6, r7, r8, lr}
    9400:	e1a06000 	mov	r6, r0
    9404:	eb000234 	bl	9cdc <dev_barrier>
    9408:	e59f0030 	ldr	r0, [pc, #48]	; 9440 <delay_us+0x44>
    940c:	ebfffb06 	bl	802c <GET32>
    9410:	e1a05000 	mov	r5, r0
    9414:	eb000230 	bl	9cdc <dev_barrier>
    9418:	e59f7020 	ldr	r7, [pc, #32]	; 9440 <delay_us+0x44>
    941c:	eb00022e 	bl	9cdc <dev_barrier>
    9420:	e1a00007 	mov	r0, r7
    9424:	ebfffb00 	bl	802c <GET32>
    9428:	e1a04000 	mov	r4, r0
    942c:	e0444005 	sub	r4, r4, r5
    9430:	eb000229 	bl	9cdc <dev_barrier>
    9434:	e1540006 	cmp	r4, r6
    9438:	3afffff7 	bcc	941c <delay_us+0x20>
    943c:	e8bd81f0 	pop	{r4, r5, r6, r7, r8, pc}
    9440:	20003004 	andcs	r3, r0, r4

00009444 <delay_ms>:
    9444:	e92d41f0 	push	{r4, r5, r6, r7, r8, lr}
    9448:	e0604280 	rsb	r4, r0, r0, lsl #5
    944c:	e0800104 	add	r0, r0, r4, lsl #2
    9450:	e1a04180 	lsl	r4, r0, #3
    9454:	eb000220 	bl	9cdc <dev_barrier>
    9458:	e59f0030 	ldr	r0, [pc, #48]	; 9490 <delay_ms+0x4c>
    945c:	ebfffaf2 	bl	802c <GET32>
    9460:	e1a06000 	mov	r6, r0
    9464:	eb00021c 	bl	9cdc <dev_barrier>
    9468:	e59f7020 	ldr	r7, [pc, #32]	; 9490 <delay_ms+0x4c>
    946c:	eb00021a 	bl	9cdc <dev_barrier>
    9470:	e1a00007 	mov	r0, r7
    9474:	ebfffaec 	bl	802c <GET32>
    9478:	e1a05000 	mov	r5, r0
    947c:	e0455006 	sub	r5, r5, r6
    9480:	eb000215 	bl	9cdc <dev_barrier>
    9484:	e1540005 	cmp	r4, r5
    9488:	8afffff7 	bhi	946c <delay_ms+0x28>
    948c:	e8bd81f0 	pop	{r4, r5, r6, r7, r8, pc}
    9490:	20003004 	andcs	r3, r0, r4

00009494 <delay_sec>:
    9494:	e92d41f0 	push	{r4, r5, r6, r7, r8, lr}
    9498:	e0604280 	rsb	r4, r0, r0, lsl #5
    949c:	e0644304 	rsb	r4, r4, r4, lsl #6
    94a0:	e0800184 	add	r0, r0, r4, lsl #3
    94a4:	e1a04300 	lsl	r4, r0, #6
    94a8:	eb00020b 	bl	9cdc <dev_barrier>
    94ac:	e59f0030 	ldr	r0, [pc, #48]	; 94e4 <delay_sec+0x50>
    94b0:	ebfffadd 	bl	802c <GET32>
    94b4:	e1a06000 	mov	r6, r0
    94b8:	eb000207 	bl	9cdc <dev_barrier>
    94bc:	e59f7020 	ldr	r7, [pc, #32]	; 94e4 <delay_sec+0x50>
    94c0:	eb000205 	bl	9cdc <dev_barrier>
    94c4:	e1a00007 	mov	r0, r7
    94c8:	ebfffad7 	bl	802c <GET32>
    94cc:	e1a05000 	mov	r5, r0
    94d0:	e0455006 	sub	r5, r5, r6
    94d4:	eb000200 	bl	9cdc <dev_barrier>
    94d8:	e1540005 	cmp	r4, r5
    94dc:	8afffff7 	bhi	94c0 <delay_sec+0x2c>
    94e0:	e8bd81f0 	pop	{r4, r5, r6, r7, r8, pc}
    94e4:	20003004 	andcs	r3, r0, r4

000094e8 <and_in32>:
    94e8:	e92d4070 	push	{r4, r5, r6, lr}
    94ec:	e1a04000 	mov	r4, r0
    94f0:	e1a05001 	mov	r5, r1
    94f4:	ebfffacc 	bl	802c <GET32>
    94f8:	e0001005 	and	r1, r0, r5
    94fc:	e1a00004 	mov	r0, r4
    9500:	ebfffac7 	bl	8024 <PUT32>
    9504:	e8bd8070 	pop	{r4, r5, r6, pc}

00009508 <or_in32>:
    9508:	e92d4070 	push	{r4, r5, r6, lr}
    950c:	e1a04000 	mov	r4, r0
    9510:	e1a05001 	mov	r5, r1
    9514:	ebfffac4 	bl	802c <GET32>
    9518:	e1801005 	orr	r1, r0, r5
    951c:	e1a00004 	mov	r0, r4
    9520:	ebfffabf 	bl	8024 <PUT32>
    9524:	e8bd8070 	pop	{r4, r5, r6, pc}

00009528 <uart_init>:
    9528:	e92d4010 	push	{r4, lr}
    952c:	e3a01002 	mov	r1, #2, 0
    9530:	e3a0000e 	mov	r0, #14, 0
    9534:	eb000153 	bl	9a88 <gpio_set_function>
    9538:	e3a01002 	mov	r1, #2, 0
    953c:	e3a0000f 	mov	r0, #15, 0
    9540:	eb000150 	bl	9a88 <gpio_set_function>
    9544:	eb0001e4 	bl	9cdc <dev_barrier>
    9548:	e3a01001 	mov	r1, #1, 0
    954c:	e59f0064 	ldr	r0, [pc, #100]	; 95b8 <uart_init+0x90>
    9550:	ebffffec 	bl	9508 <or_in32>
    9554:	eb0001e0 	bl	9cdc <dev_barrier>
    9558:	e59f405c 	ldr	r4, [pc, #92]	; 95bc <uart_init+0x94>
    955c:	e3a01000 	mov	r1, #0, 0
    9560:	e1a00004 	mov	r0, r4
    9564:	ebfffaae 	bl	8024 <PUT32>
    9568:	e3a01000 	mov	r1, #0, 0
    956c:	e59f004c 	ldr	r0, [pc, #76]	; 95c0 <uart_init+0x98>
    9570:	ebfffaab 	bl	8024 <PUT32>
    9574:	e3a01003 	mov	r1, #3, 0
    9578:	e59f0044 	ldr	r0, [pc, #68]	; 95c4 <uart_init+0x9c>
    957c:	ebfffaa8 	bl	8024 <PUT32>
    9580:	e3a01000 	mov	r1, #0, 0
    9584:	e59f003c 	ldr	r0, [pc, #60]	; 95c8 <uart_init+0xa0>
    9588:	ebfffaa5 	bl	8024 <PUT32>
    958c:	e3a010c7 	mov	r1, #199, 0	; 0xc7
    9590:	e59f0034 	ldr	r0, [pc, #52]	; 95cc <uart_init+0xa4>
    9594:	ebfffaa2 	bl	8024 <PUT32>
    9598:	e59f1030 	ldr	r1, [pc, #48]	; 95d0 <uart_init+0xa8>
    959c:	e59f0030 	ldr	r0, [pc, #48]	; 95d4 <uart_init+0xac>
    95a0:	ebfffa9f 	bl	8024 <PUT32>
    95a4:	e3a01003 	mov	r1, #3, 0
    95a8:	e1a00004 	mov	r0, r4
    95ac:	ebfffa9c 	bl	8024 <PUT32>
    95b0:	eb0001c9 	bl	9cdc <dev_barrier>
    95b4:	e8bd8010 	pop	{r4, pc}
    95b8:	20215004 	eorcs	r5, r1, r4
    95bc:	20215060 	eorcs	r5, r1, r0, rrx
    95c0:	20215044 	eorcs	r5, r1, r4, asr #32
    95c4:	2021504c 	eorcs	r5, r1, ip, asr #32
    95c8:	20215050 	eorcs	r5, r1, r0, asr r0
    95cc:	20215048 	eorcs	r5, r1, r8, asr #32
    95d0:	0000010e 	andeq	r0, r0, lr, lsl #2
    95d4:	20215068 	eorcs	r5, r1, r8, rrx

000095d8 <uart_can_getc>:
    95d8:	e92d4010 	push	{r4, lr}
    95dc:	e59f0008 	ldr	r0, [pc, #8]	; 95ec <uart_can_getc+0x14>
    95e0:	ebfffa91 	bl	802c <GET32>
    95e4:	e2000001 	and	r0, r0, #1, 0
    95e8:	e8bd8010 	pop	{r4, pc}
    95ec:	20215064 	eorcs	r5, r1, r4, rrx

000095f0 <uart_can_putc>:
    95f0:	e92d4010 	push	{r4, lr}
    95f4:	e59f0010 	ldr	r0, [pc, #16]	; 960c <uart_can_putc+0x1c>
    95f8:	ebfffa8b 	bl	802c <GET32>
    95fc:	e3100002 	tst	r0, #2, 0
    9600:	13a00001 	movne	r0, #1, 0
    9604:	03a00000 	moveq	r0, #0, 0
    9608:	e8bd8010 	pop	{r4, pc}
    960c:	20215064 	eorcs	r5, r1, r4, rrx

00009610 <uart_getc>:
    9610:	e92d4010 	push	{r4, lr}
    9614:	eb0001b0 	bl	9cdc <dev_barrier>
    9618:	ebffffee 	bl	95d8 <uart_can_getc>
    961c:	e3500000 	cmp	r0, #0, 0
    9620:	0afffffc 	beq	9618 <uart_getc+0x8>
    9624:	e59f0010 	ldr	r0, [pc, #16]	; 963c <uart_getc+0x2c>
    9628:	ebfffa7f 	bl	802c <GET32>
    962c:	e6ef4070 	uxtb	r4, r0
    9630:	eb0001a9 	bl	9cdc <dev_barrier>
    9634:	e1a00004 	mov	r0, r4
    9638:	e8bd8010 	pop	{r4, pc}
    963c:	20215040 	eorcs	r5, r1, r0, asr #32

00009640 <uart_putc>:
    9640:	e92d4010 	push	{r4, lr}
    9644:	e1a04000 	mov	r4, r0
    9648:	eb0001a3 	bl	9cdc <dev_barrier>
    964c:	ebffffe7 	bl	95f0 <uart_can_putc>
    9650:	e3500000 	cmp	r0, #0, 0
    9654:	0afffffc 	beq	964c <uart_putc+0xc>
    9658:	e6ef1074 	uxtb	r1, r4
    965c:	e59f0008 	ldr	r0, [pc, #8]	; 966c <uart_putc+0x2c>
    9660:	ebfffa6f 	bl	8024 <PUT32>
    9664:	eb00019c 	bl	9cdc <dev_barrier>
    9668:	e8bd8010 	pop	{r4, pc}
    966c:	20215040 	eorcs	r5, r1, r0, asr #32

00009670 <uart_has_data>:
    9670:	e92d4010 	push	{r4, lr}
    9674:	eb000198 	bl	9cdc <dev_barrier>
    9678:	ebffffd6 	bl	95d8 <uart_can_getc>
    967c:	e8bd8010 	pop	{r4, pc}

00009680 <uart_tx_is_empty>:
    9680:	e92d4010 	push	{r4, lr}
    9684:	eb000194 	bl	9cdc <dev_barrier>
    9688:	e59f000c 	ldr	r0, [pc, #12]	; 969c <uart_tx_is_empty+0x1c>
    968c:	ebfffa66 	bl	802c <GET32>
    9690:	e1a004a0 	lsr	r0, r0, #9
    9694:	e2000001 	and	r0, r0, #1, 0
    9698:	e8bd8010 	pop	{r4, pc}
    969c:	20215064 	eorcs	r5, r1, r4, rrx

000096a0 <uart_flush_tx>:
    96a0:	e92d4010 	push	{r4, lr}
    96a4:	ebfffff5 	bl	9680 <uart_tx_is_empty>
    96a8:	e3500000 	cmp	r0, #0, 0
    96ac:	0afffffc 	beq	96a4 <uart_flush_tx+0x4>
    96b0:	e8bd8010 	pop	{r4, pc}

000096b4 <uart_disable>:
    96b4:	e92d4010 	push	{r4, lr}
    96b8:	ebfffff8 	bl	96a0 <uart_flush_tx>
    96bc:	eb000186 	bl	9cdc <dev_barrier>
    96c0:	e3e01001 	mvn	r1, #1, 0
    96c4:	e59f0008 	ldr	r0, [pc, #8]	; 96d4 <uart_disable+0x20>
    96c8:	ebffff86 	bl	94e8 <and_in32>
    96cc:	eb000182 	bl	9cdc <dev_barrier>
    96d0:	e8bd8010 	pop	{r4, pc}
    96d4:	20215004 	eorcs	r5, r1, r4

000096d8 <kmalloc_heap_end>:
    96d8:	e59f3004 	ldr	r3, [pc, #4]	; 96e4 <kmalloc_heap_end+0xc>
    96dc:	e5930000 	ldr	r0, [r3]
    96e0:	e12fff1e 	bx	lr
    96e4:	0000a234 	andeq	sl, r0, r4, lsr r2

000096e8 <kmalloc_heap_start>:
    96e8:	e59f3004 	ldr	r3, [pc, #4]	; 96f4 <kmalloc_heap_start+0xc>
    96ec:	e5930004 	ldr	r0, [r3, #4]
    96f0:	e12fff1e 	bx	lr
    96f4:	0000a234 	andeq	sl, r0, r4, lsr r2

000096f8 <kmalloc_heap_ptr>:
    96f8:	e59f3004 	ldr	r3, [pc, #4]	; 9704 <kmalloc_heap_ptr+0xc>
    96fc:	e5930000 	ldr	r0, [r3]
    9700:	e12fff1e 	bx	lr
    9704:	0000a234 	andeq	sl, r0, r4, lsr r2

00009708 <kmalloc_init_set_start>:
    9708:	e52de004 	push	{lr}		; (str lr, [sp, #-4]!)
    970c:	e24dd00c 	sub	sp, sp, #12, 0
    9710:	e3510000 	cmp	r1, #0, 0
    9714:	0a00000a 	beq	9744 <kmalloc_init_set_start+0x3c>
    9718:	e59f306c 	ldr	r3, [pc, #108]	; 978c <kmalloc_init_set_start+0x84>
    971c:	e5933000 	ldr	r3, [r3]
    9720:	e1530000 	cmp	r3, r0
    9724:	8a00000e 	bhi	9764 <kmalloc_init_set_start+0x5c>
    9728:	e59f305c 	ldr	r3, [pc, #92]	; 978c <kmalloc_init_set_start+0x84>
    972c:	e5830000 	str	r0, [r3]
    9730:	e5830004 	str	r0, [r3, #4]
    9734:	e0800001 	add	r0, r0, r1
    9738:	e5830008 	str	r0, [r3, #8]
    973c:	e28dd00c 	add	sp, sp, #12, 0
    9740:	e49df004 	pop	{pc}		; (ldr pc, [sp], #4)
    9744:	e59f3044 	ldr	r3, [pc, #68]	; 9790 <kmalloc_init_set_start+0x88>
    9748:	e58d3000 	str	r3, [sp]
    974c:	e3a03030 	mov	r3, #48, 0	; 0x30
    9750:	e59f203c 	ldr	r2, [pc, #60]	; 9794 <kmalloc_init_set_start+0x8c>
    9754:	e59f103c 	ldr	r1, [pc, #60]	; 9798 <kmalloc_init_set_start+0x90>
    9758:	e59f003c 	ldr	r0, [pc, #60]	; 979c <kmalloc_init_set_start+0x94>
    975c:	ebfffc0d 	bl	8798 <printk>
    9760:	ebfffeac 	bl	9218 <clean_reboot>
    9764:	e59f3020 	ldr	r3, [pc, #32]	; 978c <kmalloc_init_set_start+0x84>
    9768:	e5933008 	ldr	r3, [r3, #8]
    976c:	e58d3004 	str	r3, [sp, #4]
    9770:	e58d0000 	str	r0, [sp]
    9774:	e3a03034 	mov	r3, #52, 0	; 0x34
    9778:	e59f2014 	ldr	r2, [pc, #20]	; 9794 <kmalloc_init_set_start+0x8c>
    977c:	e59f1014 	ldr	r1, [pc, #20]	; 9798 <kmalloc_init_set_start+0x90>
    9780:	e59f0018 	ldr	r0, [pc, #24]	; 97a0 <kmalloc_init_set_start+0x98>
    9784:	ebfffc03 	bl	8798 <printk>
    9788:	ebfffea2 	bl	9218 <clean_reboot>
    978c:	0000a234 	andeq	sl, r0, r4, lsr r2
    9790:	0000a03c 	andeq	sl, r0, ip, lsr r0
    9794:	0000a1c8 	andeq	sl, r0, r8, asr #3
    9798:	0000a030 	andeq	sl, r0, r0, lsr r0
    979c:	00009d58 	andeq	r9, r0, r8, asr sp
    97a0:	0000a048 	andeq	sl, r0, r8, asr #32

000097a4 <kmalloc_init>:
    97a4:	e92d4010 	push	{r4, lr}
    97a8:	e59f303c 	ldr	r3, [pc, #60]	; 97ec <kmalloc_init+0x48>
    97ac:	e5933000 	ldr	r3, [r3]
    97b0:	e3530000 	cmp	r3, #0, 0
    97b4:	1a000006 	bne	97d4 <kmalloc_init+0x30>
    97b8:	e59f302c 	ldr	r3, [pc, #44]	; 97ec <kmalloc_init+0x48>
    97bc:	e3a02001 	mov	r2, #1, 0
    97c0:	e5832000 	str	r2, [r3]
    97c4:	e3a01201 	mov	r1, #268435456	; 0x10000000
    97c8:	e3a00601 	mov	r0, #1048576	; 0x100000
    97cc:	ebffffcd 	bl	9708 <kmalloc_init_set_start>
    97d0:	e8bd8010 	pop	{r4, pc}
    97d4:	e3a03040 	mov	r3, #64, 0	; 0x40
    97d8:	e59f2010 	ldr	r2, [pc, #16]	; 97f0 <kmalloc_init+0x4c>
    97dc:	e59f1010 	ldr	r1, [pc, #16]	; 97f4 <kmalloc_init+0x50>
    97e0:	e59f0010 	ldr	r0, [pc, #16]	; 97f8 <kmalloc_init+0x54>
    97e4:	ebfffbeb 	bl	8798 <printk>
    97e8:	ebfffe8a 	bl	9218 <clean_reboot>
    97ec:	0000a654 	andeq	sl, r0, r4, asr r6
    97f0:	0000a1e0 	andeq	sl, r0, r0, ror #3
    97f4:	0000a030 	andeq	sl, r0, r0, lsr r0
    97f8:	0000a08c 	andeq	sl, r0, ip, lsl #1

000097fc <kmalloc_notzero>:
    97fc:	e52de004 	push	{lr}		; (str lr, [sp, #-4]!)
    9800:	e24dd00c 	sub	sp, sp, #12, 0
    9804:	e3500000 	cmp	r0, #0, 0
    9808:	0a00000a 	beq	9838 <kmalloc_notzero+0x3c>
    980c:	e2800007 	add	r0, r0, #7, 0
    9810:	e3c03007 	bic	r3, r0, #7, 0
    9814:	e59f2060 	ldr	r2, [pc, #96]	; 987c <kmalloc_notzero+0x80>
    9818:	e5920000 	ldr	r0, [r2]
    981c:	e0801003 	add	r1, r0, r3
    9820:	e5821000 	str	r1, [r2]
    9824:	e5922008 	ldr	r2, [r2, #8]
    9828:	e1510002 	cmp	r1, r2
    982c:	8a000009 	bhi	9858 <kmalloc_notzero+0x5c>
    9830:	e28dd00c 	add	sp, sp, #12, 0
    9834:	e49df004 	pop	{pc}		; (ldr pc, [sp], #4)
    9838:	e59f3040 	ldr	r3, [pc, #64]	; 9880 <kmalloc_notzero+0x84>
    983c:	e58d3000 	str	r3, [sp]
    9840:	e3a03048 	mov	r3, #72, 0	; 0x48
    9844:	e59f2038 	ldr	r2, [pc, #56]	; 9884 <kmalloc_notzero+0x88>
    9848:	e59f1038 	ldr	r1, [pc, #56]	; 9888 <kmalloc_notzero+0x8c>
    984c:	e59f0038 	ldr	r0, [pc, #56]	; 988c <kmalloc_notzero+0x90>
    9850:	ebfffbd0 	bl	8798 <printk>
    9854:	ebfffe6f 	bl	9218 <clean_reboot>
    9858:	e0422000 	sub	r2, r2, r0
    985c:	e58d2004 	str	r2, [sp, #4]
    9860:	e58d3000 	str	r3, [sp]
    9864:	e3a0304e 	mov	r3, #78, 0	; 0x4e
    9868:	e59f2014 	ldr	r2, [pc, #20]	; 9884 <kmalloc_notzero+0x88>
    986c:	e59f1014 	ldr	r1, [pc, #20]	; 9888 <kmalloc_notzero+0x8c>
    9870:	e59f0018 	ldr	r0, [pc, #24]	; 9890 <kmalloc_notzero+0x94>
    9874:	ebfffbc7 	bl	8798 <printk>
    9878:	ebfffe66 	bl	9218 <clean_reboot>
    987c:	0000a234 	andeq	sl, r0, r4, lsr r2
    9880:	0000a040 	andeq	sl, r0, r0, asr #32
    9884:	0000a1f0 	strdeq	sl, [r0], -r0
    9888:	0000a030 	andeq	sl, r0, r0, lsr r0
    988c:	00009d58 	andeq	r9, r0, r8, asr sp
    9890:	0000a0bc 	strheq	sl, [r0], -ip

00009894 <kmalloc>:
    9894:	e92d4030 	push	{r4, r5, lr}
    9898:	e24dd00c 	sub	sp, sp, #12, 0
    989c:	e2504000 	subs	r4, r0, #0, 0
    98a0:	0a000008 	beq	98c8 <kmalloc+0x34>
    98a4:	e1a00004 	mov	r0, r4
    98a8:	ebffffd3 	bl	97fc <kmalloc_notzero>
    98ac:	e1a05000 	mov	r5, r0
    98b0:	e1a02004 	mov	r2, r4
    98b4:	e3a01000 	mov	r1, #0, 0
    98b8:	ebfffb98 	bl	8720 <memset>
    98bc:	e1a00005 	mov	r0, r5
    98c0:	e28dd00c 	add	sp, sp, #12, 0
    98c4:	e8bd8030 	pop	{r4, r5, pc}
    98c8:	e59f3018 	ldr	r3, [pc, #24]	; 98e8 <kmalloc+0x54>
    98cc:	e58d3000 	str	r3, [sp]
    98d0:	e3a03054 	mov	r3, #84, 0	; 0x54
    98d4:	e59f2010 	ldr	r2, [pc, #16]	; 98ec <kmalloc+0x58>
    98d8:	e59f1010 	ldr	r1, [pc, #16]	; 98f0 <kmalloc+0x5c>
    98dc:	e59f0010 	ldr	r0, [pc, #16]	; 98f4 <kmalloc+0x60>
    98e0:	ebfffbac 	bl	8798 <printk>
    98e4:	ebfffe4b 	bl	9218 <clean_reboot>
    98e8:	0000a040 	andeq	sl, r0, r0, asr #32
    98ec:	0000a200 	andeq	sl, r0, r0, lsl #4
    98f0:	0000a030 	andeq	sl, r0, r0, lsr r0
    98f4:	00009d58 	andeq	r9, r0, r8, asr sp

000098f8 <kmalloc_aligned>:
    98f8:	e52de004 	push	{lr}		; (str lr, [sp, #-4]!)
    98fc:	e24dd00c 	sub	sp, sp, #12, 0
    9900:	e3500000 	cmp	r0, #0, 0
    9904:	0a000014 	beq	995c <kmalloc_aligned+0x64>
    9908:	e2613000 	rsb	r3, r1, #0, 0
    990c:	e1d13003 	bics	r3, r1, r3
    9910:	1a000019 	bne	997c <kmalloc_aligned+0x84>
    9914:	e3510008 	cmp	r1, #8, 0
    9918:	33a01008 	movcc	r1, #8, 0
    991c:	e59f30c0 	ldr	r3, [pc, #192]	; 99e4 <kmalloc_aligned+0xec>
    9920:	e5932000 	ldr	r2, [r3]
    9924:	e2613000 	rsb	r3, r1, #0, 0
    9928:	e1d1c003 	bics	ip, r1, r3
    992c:	1a00001b 	bne	99a0 <kmalloc_aligned+0xa8>
    9930:	e0822001 	add	r2, r2, r1
    9934:	e2422001 	sub	r2, r2, #1, 0
    9938:	e0033002 	and	r3, r3, r2
    993c:	e2411001 	sub	r1, r1, #1, 0
    9940:	e1110003 	tst	r1, r3
    9944:	1a00001d 	bne	99c0 <kmalloc_aligned+0xc8>
    9948:	e59f2094 	ldr	r2, [pc, #148]	; 99e4 <kmalloc_aligned+0xec>
    994c:	e5823000 	str	r3, [r2]
    9950:	ebffffcf 	bl	9894 <kmalloc>
    9954:	e28dd00c 	add	sp, sp, #12, 0
    9958:	e49df004 	pop	{pc}		; (ldr pc, [sp], #4)
    995c:	e59f3084 	ldr	r3, [pc, #132]	; 99e8 <kmalloc_aligned+0xf0>
    9960:	e58d3000 	str	r3, [sp]
    9964:	e3a0305f 	mov	r3, #95, 0	; 0x5f
    9968:	e59f207c 	ldr	r2, [pc, #124]	; 99ec <kmalloc_aligned+0xf4>
    996c:	e59f107c 	ldr	r1, [pc, #124]	; 99f0 <kmalloc_aligned+0xf8>
    9970:	e59f007c 	ldr	r0, [pc, #124]	; 99f4 <kmalloc_aligned+0xfc>
    9974:	ebfffb87 	bl	8798 <printk>
    9978:	ebfffe26 	bl	9218 <clean_reboot>
    997c:	ebfffba0 	bl	8804 <rpi_reset_putc>
    9980:	e59f3070 	ldr	r3, [pc, #112]	; 99f8 <kmalloc_aligned+0x100>
    9984:	e58d3000 	str	r3, [sp]
    9988:	e3a03060 	mov	r3, #96, 0	; 0x60
    998c:	e59f2058 	ldr	r2, [pc, #88]	; 99ec <kmalloc_aligned+0xf4>
    9990:	e59f1058 	ldr	r1, [pc, #88]	; 99f0 <kmalloc_aligned+0xf8>
    9994:	e59f0060 	ldr	r0, [pc, #96]	; 99fc <kmalloc_aligned+0x104>
    9998:	ebfffb7e 	bl	8798 <printk>
    999c:	ebfffe1d 	bl	9218 <clean_reboot>
    99a0:	e59f3058 	ldr	r3, [pc, #88]	; 9a00 <kmalloc_aligned+0x108>
    99a4:	e58d3000 	str	r3, [sp]
    99a8:	e3a03011 	mov	r3, #17, 0
    99ac:	e59f2050 	ldr	r2, [pc, #80]	; 9a04 <kmalloc_aligned+0x10c>
    99b0:	e59f1038 	ldr	r1, [pc, #56]	; 99f0 <kmalloc_aligned+0xf8>
    99b4:	e59f0038 	ldr	r0, [pc, #56]	; 99f4 <kmalloc_aligned+0xfc>
    99b8:	ebfffb76 	bl	8798 <printk>
    99bc:	ebfffe15 	bl	9218 <clean_reboot>
    99c0:	ebfffb8f 	bl	8804 <rpi_reset_putc>
    99c4:	e59f303c 	ldr	r3, [pc, #60]	; 9a08 <kmalloc_aligned+0x110>
    99c8:	e58d3000 	str	r3, [sp]
    99cc:	e3a03068 	mov	r3, #104, 0	; 0x68
    99d0:	e59f2014 	ldr	r2, [pc, #20]	; 99ec <kmalloc_aligned+0xf4>
    99d4:	e59f1014 	ldr	r1, [pc, #20]	; 99f0 <kmalloc_aligned+0xf8>
    99d8:	e59f002c 	ldr	r0, [pc, #44]	; 9a0c <kmalloc_aligned+0x114>
    99dc:	ebfffb6d 	bl	8798 <printk>
    99e0:	ebfffe0c 	bl	9218 <clean_reboot>
    99e4:	0000a234 	andeq	sl, r0, r4, lsr r2
    99e8:	0000a040 	andeq	sl, r0, r0, asr #32
    99ec:	0000a208 	andeq	sl, r0, r8, lsl #4
    99f0:	0000a030 	andeq	sl, r0, r0, lsr r0
    99f4:	00009d58 	andeq	r9, r0, r8, asr sp
    99f8:	0000a130 	andeq	sl, r0, r0, lsr r1
    99fc:	0000a0fc 	strdeq	sl, [r0], -ip
    9a00:	0000a144 	andeq	sl, r0, r4, asr #2
    9a04:	0000a218 	andeq	sl, r0, r8, lsl r2
    9a08:	0000a17c 	andeq	sl, r0, ip, ror r1
    9a0c:	0000a150 	andeq	sl, r0, r0, asr r1

00009a10 <kfree>:
    9a10:	e12fff1e 	bx	lr

00009a14 <kfree_all>:
    9a14:	e59f3008 	ldr	r3, [pc, #8]	; 9a24 <kfree_all+0x10>
    9a18:	e5932004 	ldr	r2, [r3, #4]
    9a1c:	e5832000 	str	r2, [r3]
    9a20:	e12fff1e 	bx	lr
    9a24:	0000a234 	andeq	sl, r0, r4, lsr r2

00009a28 <kfree_pop>:
    9a28:	e59f3048 	ldr	r3, [pc, #72]	; 9a78 <kfree_pop+0x50>
    9a2c:	e5933004 	ldr	r3, [r3, #4]
    9a30:	e1530000 	cmp	r3, r0
    9a34:	8a000006 	bhi	9a54 <kfree_pop+0x2c>
    9a38:	e59f3038 	ldr	r3, [pc, #56]	; 9a78 <kfree_pop+0x50>
    9a3c:	e5933008 	ldr	r3, [r3, #8]
    9a40:	e1530000 	cmp	r3, r0
    9a44:	3a000002 	bcc	9a54 <kfree_pop+0x2c>
    9a48:	e59f3028 	ldr	r3, [pc, #40]	; 9a78 <kfree_pop+0x50>
    9a4c:	e5830000 	str	r0, [r3]
    9a50:	e12fff1e 	bx	lr
    9a54:	e52de004 	push	{lr}		; (str lr, [sp, #-4]!)
    9a58:	e24dd00c 	sub	sp, sp, #12, 0
    9a5c:	e58d0000 	str	r0, [sp]
    9a60:	e3a03077 	mov	r3, #119, 0	; 0x77
    9a64:	e59f2010 	ldr	r2, [pc, #16]	; 9a7c <kfree_pop+0x54>
    9a68:	e59f1010 	ldr	r1, [pc, #16]	; 9a80 <kfree_pop+0x58>
    9a6c:	e59f0010 	ldr	r0, [pc, #16]	; 9a84 <kfree_pop+0x5c>
    9a70:	ebfffb48 	bl	8798 <printk>
    9a74:	ebfffde7 	bl	9218 <clean_reboot>
    9a78:	0000a234 	andeq	sl, r0, r4, lsr r2
    9a7c:	0000a220 	andeq	sl, r0, r0, lsr #4
    9a80:	0000a030 	andeq	sl, r0, r0, lsr r0
    9a84:	0000a198 	muleq	r0, r8, r1

00009a88 <gpio_set_function>:
    9a88:	e350001f 	cmp	r0, #31, 0
    9a8c:	812fff1e 	bxhi	lr
    9a90:	e3d13007 	bics	r3, r1, #7, 0
    9a94:	e92d4070 	push	{r4, r5, r6, lr}
    9a98:	e1a05001 	mov	r5, r1
    9a9c:	18bd8070 	popne	{r4, r5, r6, pc}
    9aa0:	e59f403c 	ldr	r4, [pc, #60]	; 9ae4 <gpio_set_function+0x5c>
    9aa4:	e0843094 	umull	r3, r4, r4, r0
    9aa8:	e1a041a4 	lsr	r4, r4, #3
    9aac:	e2843302 	add	r3, r4, #134217728	; 0x8000000
    9ab0:	e2833702 	add	r3, r3, #524288	; 0x80000
    9ab4:	e1a06103 	lsl	r6, r3, #2
    9ab8:	e0844104 	add	r4, r4, r4, lsl #2
    9abc:	e0404084 	sub	r4, r0, r4, lsl #1
    9ac0:	e1a00006 	mov	r0, r6
    9ac4:	ebfff958 	bl	802c <GET32>
    9ac8:	e3a01007 	mov	r1, #7, 0
    9acc:	e0844084 	add	r4, r4, r4, lsl #1
    9ad0:	e1c01411 	bic	r1, r0, r1, lsl r4
    9ad4:	e1811415 	orr	r1, r1, r5, lsl r4
    9ad8:	e1a00006 	mov	r0, r6
    9adc:	e8bd4070 	pop	{r4, r5, r6, lr}
    9ae0:	eafff94f 	b	8024 <PUT32>
    9ae4:	cccccccd 	stclgt	12, cr12, [ip], {205}	; 0xcd

00009ae8 <gpio_set_output>:
    9ae8:	e350001f 	cmp	r0, #31, 0
    9aec:	812fff1e 	bxhi	lr
    9af0:	e92d4070 	push	{r4, r5, r6, lr}
    9af4:	e59f4040 	ldr	r4, [pc, #64]	; 9b3c <gpio_set_output+0x54>
    9af8:	e0843094 	umull	r3, r4, r4, r0
    9afc:	e1a041a4 	lsr	r4, r4, #3
    9b00:	e2843302 	add	r3, r4, #134217728	; 0x8000000
    9b04:	e2833702 	add	r3, r3, #524288	; 0x80000
    9b08:	e1a05103 	lsl	r5, r3, #2
    9b0c:	e0844104 	add	r4, r4, r4, lsl #2
    9b10:	e0404084 	sub	r4, r0, r4, lsl #1
    9b14:	e1a00005 	mov	r0, r5
    9b18:	ebfff943 	bl	802c <GET32>
    9b1c:	e3a03007 	mov	r3, #7, 0
    9b20:	e3a01001 	mov	r1, #1, 0
    9b24:	e0844084 	add	r4, r4, r4, lsl #1
    9b28:	e1c03413 	bic	r3, r0, r3, lsl r4
    9b2c:	e1831411 	orr	r1, r3, r1, lsl r4
    9b30:	e1a00005 	mov	r0, r5
    9b34:	e8bd4070 	pop	{r4, r5, r6, lr}
    9b38:	eafff939 	b	8024 <PUT32>
    9b3c:	cccccccd 	stclgt	12, cr12, [ip], {205}	; 0xcd

00009b40 <gpio_set_on>:
    9b40:	e1a03000 	mov	r3, r0
    9b44:	e3a01001 	mov	r1, #1, 0
    9b48:	e59f0004 	ldr	r0, [pc, #4]	; 9b54 <gpio_set_on+0x14>
    9b4c:	e1a01311 	lsl	r1, r1, r3
    9b50:	eafff933 	b	8024 <PUT32>
    9b54:	2020001c 	eorcs	r0, r0, ip, lsl r0

00009b58 <gpio_set_off>:
    9b58:	e1a03000 	mov	r3, r0
    9b5c:	e3a01001 	mov	r1, #1, 0
    9b60:	e59f0004 	ldr	r0, [pc, #4]	; 9b6c <gpio_set_off+0x14>
    9b64:	e1a01311 	lsl	r1, r1, r3
    9b68:	eafff92d 	b	8024 <PUT32>
    9b6c:	20200028 	eorcs	r0, r0, r8, lsr #32

00009b70 <gpio_set_input>:
    9b70:	e350001f 	cmp	r0, #31, 0
    9b74:	812fff1e 	bxhi	lr
    9b78:	e92d4070 	push	{r4, r5, r6, lr}
    9b7c:	e59f5040 	ldr	r5, [pc, #64]	; 9bc4 <gpio_set_input+0x54>
    9b80:	e1a04000 	mov	r4, r0
    9b84:	e0853095 	umull	r3, r5, r5, r0
    9b88:	e1a051a5 	lsr	r5, r5, #3
    9b8c:	e2850302 	add	r0, r5, #134217728	; 0x8000000
    9b90:	e2800702 	add	r0, r0, #524288	; 0x80000
    9b94:	e1a06100 	lsl	r6, r0, #2
    9b98:	e1a00006 	mov	r0, r6
    9b9c:	ebfff922 	bl	802c <GET32>
    9ba0:	e3a01007 	mov	r1, #7, 0
    9ba4:	e1a03000 	mov	r3, r0
    9ba8:	e0855105 	add	r5, r5, r5, lsl #2
    9bac:	e0444085 	sub	r4, r4, r5, lsl #1
    9bb0:	e0844084 	add	r4, r4, r4, lsl #1
    9bb4:	e1a00006 	mov	r0, r6
    9bb8:	e1c31411 	bic	r1, r3, r1, lsl r4
    9bbc:	e8bd4070 	pop	{r4, r5, r6, lr}
    9bc0:	eafff917 	b	8024 <PUT32>
    9bc4:	cccccccd 	stclgt	12, cr12, [ip], {205}	; 0xcd

00009bc8 <gpio_write>:
    9bc8:	e3510000 	cmp	r1, #0, 0
    9bcc:	e3a03001 	mov	r3, #1, 0
    9bd0:	e1a01000 	mov	r1, r0
    9bd4:	0a000002 	beq	9be4 <gpio_write+0x1c>
    9bd8:	e59f0010 	ldr	r0, [pc, #16]	; 9bf0 <gpio_write+0x28>
    9bdc:	e1a01113 	lsl	r1, r3, r1
    9be0:	eafff90f 	b	8024 <PUT32>
    9be4:	e59f0008 	ldr	r0, [pc, #8]	; 9bf4 <gpio_write+0x2c>
    9be8:	e1a01113 	lsl	r1, r3, r1
    9bec:	eafff90c 	b	8024 <PUT32>
    9bf0:	2020001c 	eorcs	r0, r0, ip, lsl r0
    9bf4:	20200028 	eorcs	r0, r0, r8, lsr #32

00009bf8 <gpio_read>:
    9bf8:	e92d4010 	push	{r4, lr}
    9bfc:	e1a04000 	mov	r4, r0
    9c00:	e59f0014 	ldr	r0, [pc, #20]	; 9c1c <gpio_read+0x24>
    9c04:	e08002a4 	add	r0, r0, r4, lsr #5
    9c08:	ebfff907 	bl	802c <GET32>
    9c0c:	e204401f 	and	r4, r4, #31, 0
    9c10:	e1a00430 	lsr	r0, r0, r4
    9c14:	e2000001 	and	r0, r0, #1, 0
    9c18:	e8bd8010 	pop	{r4, pc}
    9c1c:	20200034 	eorcs	r0, r0, r4, lsr r0

00009c20 <strcat>:
    9c20:	e1a02000 	mov	r2, r0
    9c24:	e1a03002 	mov	r3, r2
    9c28:	e4d2c001 	ldrb	ip, [r2], #1
    9c2c:	e35c0000 	cmp	ip, #0, 0
    9c30:	1afffffb 	bne	9c24 <strcat+0x4>
    9c34:	e2433001 	sub	r3, r3, #1, 0
    9c38:	e4d12001 	ldrb	r2, [r1], #1
    9c3c:	e3520000 	cmp	r2, #0, 0
    9c40:	e5e32001 	strb	r2, [r3, #1]!
    9c44:	1afffffb 	bne	9c38 <strcat+0x18>
    9c48:	e12fff1e 	bx	lr

00009c4c <strcmp>:
    9c4c:	e5d03000 	ldrb	r3, [r0]
    9c50:	e3530000 	cmp	r3, #0, 0
    9c54:	05d12000 	ldrbeq	r2, [r1]
    9c58:	1a000003 	bne	9c6c <strcmp+0x20>
    9c5c:	ea000006 	b	9c7c <strcmp+0x30>
    9c60:	e5f03001 	ldrb	r3, [r0, #1]!
    9c64:	e3530000 	cmp	r3, #0, 0
    9c68:	0a000005 	beq	9c84 <strcmp+0x38>
    9c6c:	e1a0c001 	mov	ip, r1
    9c70:	e4d12001 	ldrb	r2, [r1], #1
    9c74:	e1520003 	cmp	r2, r3
    9c78:	0afffff8 	beq	9c60 <strcmp+0x14>
    9c7c:	e0430002 	sub	r0, r3, r2
    9c80:	e12fff1e 	bx	lr
    9c84:	e5dc2001 	ldrb	r2, [ip, #1]
    9c88:	e0430002 	sub	r0, r3, r2
    9c8c:	e12fff1e 	bx	lr

00009c90 <strcpy>:
    9c90:	e2402001 	sub	r2, r0, #1, 0
    9c94:	e4d13001 	ldrb	r3, [r1], #1
    9c98:	e3530000 	cmp	r3, #0, 0
    9c9c:	e5e23001 	strb	r3, [r2, #1]!
    9ca0:	1afffffb 	bne	9c94 <strcpy+0x4>
    9ca4:	e12fff1e 	bx	lr

00009ca8 <strncmp>:
    9ca8:	e0802002 	add	r2, r0, r2
    9cac:	ea000003 	b	9cc0 <strncmp+0x18>
    9cb0:	e4d03001 	ldrb	r3, [r0], #1
    9cb4:	e4d1c001 	ldrb	ip, [r1], #1
    9cb8:	e153000c 	cmp	r3, ip
    9cbc:	1a000003 	bne	9cd0 <strncmp+0x28>
    9cc0:	e1500002 	cmp	r0, r2
    9cc4:	1afffff9 	bne	9cb0 <strncmp+0x8>
    9cc8:	e3a00000 	mov	r0, #0, 0
    9ccc:	e12fff1e 	bx	lr
    9cd0:	e043000c 	sub	r0, r3, ip
    9cd4:	e12fff1e 	bx	lr

00009cd8 <reboot_callout>:
    9cd8:	e12fff1e 	bx	lr

00009cdc <dev_barrier>:
    9cdc:	ea000002 	b	9cec <dsb>

00009ce0 <dmb>:
    9ce0:	e3a00000 	mov	r0, #0, 0
    9ce4:	ee070fba 	mcr	15, 0, r0, cr7, cr10, {5}
    9ce8:	e12fff1e 	bx	lr

00009cec <dsb>:
    9cec:	ee070f9a 	mcr	15, 0, r0, cr7, cr10, {4}
    9cf0:	e12fff1e 	bx	lr

00009cf4 <__code_end__>:
    9cf4:	00000000 	andeq	r0, r0, r0

Disassembly of section .rodata:

00009cf8 <__FUNCTION__.3992-0xc8>:
    9cf8:	65742d35 	ldrbvs	r2, [r4, #-3381]!	; 0xfffff2cb
    9cfc:	632d7473 			; <UNDEFINED> instruction: 0x632d7473
    9d00:	6c6c616b 	stfvse	f6, [ip], #-428	; 0xfffffe54
    9d04:	632e636f 			; <UNDEFINED> instruction: 0x632e636f
    9d08:	00000000 	andeq	r0, r0, r0
    9d0c:	4f525245 	svcmi	0x00525245
    9d10:	73253a52 			; <UNDEFINED> instruction: 0x73253a52
    9d14:	3a73253a 	bcc	1cd3204 <__bss_end__+0x1cc8bac>
    9d18:	203a6425 	eorscs	r6, sl, r5, lsr #8
    9d1c:	534c4146 	movtpl	r4, #49478	; 0xc146
    9d20:	253c2845 	ldrcs	r2, [ip, #-2117]!	; 0xfffff7bb
    9d24:	3a293e73 	bcc	a596f8 <__bss_end__+0xa4f0a0>
    9d28:	5b622220 	blpl	18925b0 <__bss_end__+0x1887f58>
    9d2c:	3d5d6425 	cfldrdcc	mvd6, [sp, #-148]	; 0xffffff6c
    9d30:	202c6425 	eorcs	r6, ip, r5, lsr #8
    9d34:	64253d69 	strtvs	r3, [r5], #-3433	; 0xfffff297
    9d38:	0a226e5c 	beq	8a56b0 <__bss_end__+0x89b058>
    9d3c:	00000000 	andeq	r0, r0, r0
    9d40:	7274702a 	rsbsvc	r7, r4, #42, 0	; 0x2a
    9d44:	5d695b73 	fstmdbxpl	r9!, {d21-d77}	;@ Deprecated
    9d48:	203d3d20 	eorscs	r3, sp, r0, lsr #26
    9d4c:	6e697528 	cdpvs	5, 6, cr7, cr9, cr8, {1}
    9d50:	745f3874 	ldrbvc	r3, [pc], #-2164	; 9d58 <__code_end__+0x64>
    9d54:	00006929 	andeq	r6, r0, r9, lsr #18
    9d58:	494e4150 	stmdbmi	lr, {r4, r6, r8, lr}^
    9d5c:	73253a43 			; <UNDEFINED> instruction: 0x73253a43
    9d60:	3a73253a 	bcc	1cd3250 <__bss_end__+0x1cc8bf8>
    9d64:	253a6425 	ldrcs	r6, [sl, #-1061]!	; 0xfffffbdb
    9d68:	00000a73 	andeq	r0, r0, r3, ror sl
    9d6c:	3d203070 	stccc	0, cr3, [r0, #-448]!	; 0xfffffe40
    9d70:	3170203d 	cmncc	r0, sp, lsr r0
    9d74:	00000000 	andeq	r0, r0, r0
    9d78:	43415254 	movtmi	r5, #4692	; 0x1254
    9d7c:	00003a45 	andeq	r3, r0, r5, asr #20
    9d80:	74736574 	ldrbtvc	r6, [r3], #-1396	; 0xfffffa8c
    9d84:	65746920 	ldrbvs	r6, [r4, #-2336]!	; 0xfffff6e0
    9d88:	64252072 	strtvs	r2, [r5], #-114	; 0xffffff8e
    9d8c:	73617020 	cmnvc	r1, #32, 0
    9d90:	0a646573 	beq	1923364 <__bss_end__+0x1918d0c>
    9d94:	00000000 	andeq	r0, r0, r0
    9d98:	63637573 	cmnvs	r3, #482344960	; 0x1cc00000
    9d9c:	3a737365 	bcc	1ce6b38 <__bss_end__+0x1cdc4e0>
    9da0:	6c616d20 	stclvs	13, cr6, [r1], #-128	; 0xffffff80
    9da4:	2f636f6c 	svccs	0x00636f6c
    9da8:	65657266 	strbvs	r7, [r5, #-614]!	; 0xfffffd9a
    9dac:	70706120 	rsbsvc	r6, r0, r0, lsr #2
    9db0:	20726165 	rsbscs	r6, r2, r5, ror #2
    9db4:	77206f74 			; <UNDEFINED> instruction: 0x77206f74
    9db8:	216b726f 	cmncs	fp, pc, ror #4
    9dbc:	0000000a 	andeq	r0, r0, sl

00009dc0 <__FUNCTION__.3992>:
    9dc0:	74736574 	ldrbtvc	r6, [r3], #-1396	; 0xfffffa8c
    9dc4:	6c6c615f 	stfvse	f6, [ip], #-380	; 0xfffffe84
    9dc8:	665f636f 	ldrbvs	r6, [pc], -pc, ror #6
    9dcc:	00656572 	rsbeq	r6, r5, r2, ror r5

00009dd0 <__FUNCTION__.4016>:
    9dd0:	6d746f6e 	ldclvs	15, cr6, [r4, #-440]!	; 0xfffffe48
    9dd4:	006e6961 	rsbeq	r6, lr, r1, ror #18
    9dd8:	6c616b63 			; <UNDEFINED> instruction: 0x6c616b63
    9ddc:	2e636f6c 	cdpcs	15, 6, cr6, cr3, cr12, {3}
    9de0:	00000063 	andeq	r0, r0, r3, rrx
    9de4:	0000006c 	andeq	r0, r0, ip, rrx
    9de8:	494e4150 	stmdbmi	lr, {r4, r6, r8, lr}^
    9dec:	73253a43 			; <UNDEFINED> instruction: 0x73253a43
    9df0:	3a73253a 	bcc	1cd32e0 <__bss_end__+0x1cc8c88>
    9df4:	643a6425 	ldrtvs	r6, [sl], #-1061	; 0xfffffbdb
    9df8:	6e206469 	cdpvs	4, 2, cr6, cr0, cr9, {3}
    9dfc:	6620746f 	strtvs	r7, [r0], -pc, ror #8
    9e00:	20646e69 	rsbcs	r6, r4, r9, ror #28
    9e04:	69207025 	stmdbvs	r0!, {r0, r2, r5, ip, sp, lr}
    9e08:	696c206e 	stmdbvs	ip!, {r1, r2, r3, r5, r6, sp}^
    9e0c:	0a0a7473 	beq	2a6fe0 <__bss_end__+0x29c988>
    9e10:	00000000 	andeq	r0, r0, r0
    9e14:	6e756f66 	cdpvs	15, 7, cr6, cr5, cr6, {3}
    9e18:	70252064 	eorvc	r2, r5, r4, rrx
    9e1c:	206e6920 	rsbcs	r6, lr, r0, lsr #18
    9e20:	000a7025 	andeq	r7, sl, r5, lsr #32
    9e24:	253a7325 	ldrcs	r7, [sl, #-805]!	; 0xfffffcdb
    9e28:	64253a73 	strtvs	r3, [r5], #-2675	; 0xfffff58d
    9e2c:	0000003a 	andeq	r0, r0, sl, lsr r0
    9e30:	65657266 	strbvs	r7, [r5, #-614]!	; 0xfffffd9a
    9e34:	20676e69 	rsbcs	r6, r7, r9, ror #28
    9e38:	0a702509 	beq	1c13264 <__bss_end__+0x1c08c0c>
    9e3c:	00000000 	andeq	r0, r0, r0
    9e40:	5f434f4c 	svcpl	0x00434f4c
    9e44:	494e4150 	stmdbmi	lr, {r4, r6, r8, lr}^
    9e48:	25203a43 	strcs	r3, [r0, #-2627]!	; 0xfffff5bd
    9e4c:	73253a73 			; <UNDEFINED> instruction: 0x73253a73
    9e50:	3a64253a 	bcc	1913340 <__bss_end__+0x1908ce8>
    9e54:	00000000 	andeq	r0, r0, r0
    9e58:	65657266 	strbvs	r7, [r5, #-614]!	; 0xfffffd9a
    9e5c:	20676e69 	rsbcs	r6, r7, r9, ror #28
    9e60:	6c616e75 	stclvs	14, cr6, [r1], #-468	; 0xfffffe2c
    9e64:	61636f6c 	cmnvs	r3, ip, ror #30
    9e68:	20646574 	rsbcs	r6, r4, r4, ror r5
    9e6c:	6f6d656d 	svcvs	0x006d656d
    9e70:	203a7972 	eorscs	r7, sl, r2, ror r9
    9e74:	74617473 	strbtvc	r7, [r1], #-1139	; 0xfffffb8d
    9e78:	64253d65 	strtvs	r3, [r5], #-3429	; 0xfffff29b
    9e7c:	0000000a 	andeq	r0, r0, sl
    9e80:	705f6b63 	subsvc	r6, pc, r3, ror #22
    9e84:	695f7274 	ldmdbvs	pc, {r2, r4, r5, r6, r9, ip, sp, lr}^	; <UNPREDICTABLE>
    9e88:	6c615f73 	stclvs	15, cr5, [r1], #-460	; 0xfffffe34
    9e8c:	65636f6c 	strbvs	r6, [r3, #-3948]!	; 0xfffff094
    9e90:	64612864 	strbtvs	r2, [r1], #-2148	; 0xfffff79c
    9e94:	00297264 	eoreq	r7, r9, r4, ror #4
    9e98:	6f6c6c61 	svcvs	0x006c6c61
    9e9c:	69746163 	ldmdbvs	r4!, {r0, r1, r5, r6, r8, sp, lr}^
    9ea0:	0920676e 	stmdbeq	r0!, {r1, r2, r3, r5, r6, r8, r9, sl, sp, lr}
    9ea4:	000a7025 	andeq	r7, sl, r5, lsr #32

00009ea8 <__FUNCTION__.4016>:
    9ea8:	7473696c 	ldrbtvc	r6, [r3], #-2412	; 0xfffff694
    9eac:	6d65725f 	sfmvs	f7, 2, [r5, #-380]!	; 0xfffffe84
    9eb0:	0065766f 	rsbeq	r7, r5, pc, ror #12

00009eb4 <__FUNCTION__.4027>:
    9eb4:	72666b63 	rsbvc	r6, r6, #101376	; 0x18c00
    9eb8:	00006565 	andeq	r6, r0, r5, ror #10
    9ebc:	696c2f2e 	stmdbvs	ip!, {r1, r2, r3, r5, r8, r9, sl, fp, sp}^
    9ec0:	762f6362 	strtvc	r6, [pc], -r2, ror #6
    9ec4:	72702d61 	rsbsvc	r2, r0, #6208	; 0x1840
    9ec8:	6b746e69 	blvs	1d25874 <__bss_end__+0x1d1b21c>
    9ecc:	0000632e 	andeq	r6, r0, lr, lsr #6
    9ed0:	00000030 	andeq	r0, r0, r0, lsr r0
    9ed4:	33323130 	teqcc	r2, #12
    9ed8:	37363534 			; <UNDEFINED> instruction: 0x37363534
    9edc:	62613938 	rsbvs	r3, r1, #56, 18	; 0xe0000
    9ee0:	66656463 	strbtvs	r6, [r5], -r3, ror #8
    9ee4:	00000000 	andeq	r0, r0, r0
    9ee8:	00003130 	andeq	r3, r0, r0, lsr r1
    9eec:	33323130 	teqcc	r2, #12
    9ef0:	37363534 			; <UNDEFINED> instruction: 0x37363534
    9ef4:	00003938 	andeq	r3, r0, r8, lsr r9
    9ef8:	63747570 	cmnvs	r4, #112, 10	; 0x1c000000
    9efc:	0070665f 	rsbseq	r6, r0, pc, asr r6
    9f00:	74646977 	strbtvc	r6, [r4], #-2423	; 0xfffff689
    9f04:	203c2068 	eorscs	r2, ip, r8, rrx
    9f08:	00003233 	andeq	r3, r0, r3, lsr r2
    9f0c:	00786c6c 	rsbseq	r6, r8, ip, ror #24
    9f10:	253d3078 	ldrcs	r3, [sp, #-120]!	; 0xffffff88
    9f14:	00000a78 	andeq	r0, r0, r8, ror sl
    9f18:	253d3178 	ldrcs	r3, [sp, #-376]!	; 0xfffffe88
    9f1c:	00000a78 	andeq	r0, r0, r8, ror sl
    9f20:	00646c6c 	rsbeq	r6, r4, ip, ror #24
    9f24:	6e727473 	mrcvs	4, 3, r7, cr2, cr3, {3}
    9f28:	28706d63 	ldmdacs	r0!, {r0, r1, r5, r6, r8, sl, fp, sp, lr}^
    9f2c:	202c7974 	eorcs	r7, ip, r4, ror r9
    9f30:	786c6c22 	stmdavc	ip!, {r1, r5, sl, fp, sp, lr}^
    9f34:	33202c22 			; <UNDEFINED> instruction: 0x33202c22
    9f38:	3d3d2029 	ldccc	0, cr2, [sp, #-164]!	; 0xffffff5c
    9f3c:	7c203020 	stcvc	0, cr3, [r0], #-128	; 0xffffff80
    9f40:	7473207c 	ldrbtvc	r2, [r3], #-124	; 0xffffff84
    9f44:	6d636e72 	stclvs	14, cr6, [r3, #-456]!	; 0xfffffe38
    9f48:	79742870 	ldmdbvc	r4!, {r4, r5, r6, fp, sp}^
    9f4c:	6c22202c 	stcvs	0, cr2, [r2], #-176	; 0xffffff50
    9f50:	2c22646c 	cfstrscs	mvf6, [r2], #-432	; 0xfffffe50
    9f54:	20293320 	eorcs	r3, r9, r0, lsr #6
    9f58:	30203d3d 	eorcc	r3, r0, sp, lsr sp
    9f5c:	00000000 	andeq	r0, r0, r0
    9f60:	494e4150 	stmdbmi	lr, {r4, r6, r8, lr}^
    9f64:	73253a43 			; <UNDEFINED> instruction: 0x73253a43
    9f68:	3a73253a 	bcc	1cd3458 <__bss_end__+0x1cc8e00>
    9f6c:	693a6425 	ldmdbvs	sl!, {r0, r2, r5, sl, sp, lr}
    9f70:	736f706d 	cmnvc	pc, #109, 0	; 0x6d
    9f74:	6c626973 			; <UNDEFINED> instruction: 0x6c626973
    9f78:	66203a65 	strtvs	r3, [r0], -r5, ror #20
    9f7c:	3c3d746d 	cfldrscc	mvf7, [sp], #-436	; 0xfffffe4c
    9f80:	0a3e7325 	beq	fa6c1c <__bss_end__+0xf9c5c4>
    9f84:	0000000a 	andeq	r0, r0, sl
    9f88:	494e4150 	stmdbmi	lr, {r4, r6, r8, lr}^
    9f8c:	73253a43 			; <UNDEFINED> instruction: 0x73253a43
    9f90:	3a73253a 	bcc	1cd3480 <__bss_end__+0x1cc8e28>
    9f94:	663a6425 	ldrtvs	r6, [sl], -r5, lsr #8
    9f98:	74616f6c 	strbtvc	r6, [r1], #-3948	; 0xfffff094
    9f9c:	746f6e20 	strbtvc	r6, [pc], #-3616	; 9fa4 <__FUNCTION__.4027+0xf0>
    9fa0:	616e6520 	cmnvs	lr, r0, lsr #10
    9fa4:	64656c62 	strbtvs	r6, [r5], #-3170	; 0xfffff39e
    9fa8:	0a212121 	beq	852434 <__bss_end__+0x847ddc>
    9fac:	00000000 	andeq	r0, r0, r0
    9fb0:	6e697270 	mcrvs	2, 3, r7, cr9, cr0, {3}
    9fb4:	203a6b74 	eorscs	r6, sl, r4, ror fp
    9fb8:	20746f6e 	rsbscs	r6, r4, lr, ror #30
    9fbc:	646e6168 	strbtvs	r6, [lr], #-360	; 0xfffffe98
    9fc0:	676e696c 	strbvs	r6, [lr, -ip, ror #18]!
    9fc4:	65707320 	ldrbvs	r7, [r0, #-800]!	; 0xfffffce0
    9fc8:	69666963 	stmdbvs	r6!, {r0, r1, r5, r6, r8, fp, sp, lr}^
    9fcc:	27207265 	strcs	r7, [r0, -r5, ror #4]!
    9fd0:	20276325 	eorcs	r6, r7, r5, lsr #6
    9fd4:	63736128 	cmnvs	r3, #10
    9fd8:	253d6969 	ldrcs	r6, [sp, #-2409]!	; 0xfffff697
    9fdc:	000a2964 	andeq	r2, sl, r4, ror #18
    9fe0:	494e4150 	stmdbmi	lr, {r4, r6, r8, lr}^
    9fe4:	73253a43 			; <UNDEFINED> instruction: 0x73253a43
    9fe8:	3a73253a 	bcc	1cd34d8 <__bss_end__+0x1cc8e80>
    9fec:	703a6425 	eorsvc	r6, sl, r5, lsr #8
    9ff0:	746e6972 	strbtvc	r6, [lr], #-2418	; 0xfffff68e
    9ff4:	7265206b 	rsbvc	r2, r5, #107, 0	; 0x6b
    9ff8:	0a726f72 	beq	1ca5dc8 <__bss_end__+0x1c9b770>
    9ffc:	0000000a 	andeq	r0, r0, sl

0000a000 <__FUNCTION__.4004>:
    a000:	74696d65 	strbtvc	r6, [r9], #-3429	; 0xfffff29b
    a004:	00000000 	andeq	r0, r0, r0

0000a008 <__FUNCTION__.3952>:
    a008:	5f697072 	svcpl	0x00697072
    a00c:	5f746573 	svcpl	0x00746573
    a010:	7074756f 	rsbsvc	r7, r4, pc, ror #10
    a014:	00007475 	andeq	r7, r0, r5, ror r4

0000a018 <__FUNCTION__.4030>:
    a018:	705f6176 	subsvc	r6, pc, r6, ror r1	; <UNPREDICTABLE>
    a01c:	746e6972 	strbtvc	r6, [lr], #-2418	; 0xfffff68e
    a020:	0000006b 	andeq	r0, r0, fp, rrx
    a024:	454e4f44 	strbmi	r4, [lr, #-3908]	; 0xfffff0bc
    a028:	0a212121 	beq	8524b4 <__bss_end__+0x847e5c>
    a02c:	00000000 	andeq	r0, r0, r0
    a030:	6c616d6b 	stclvs	13, cr6, [r1], #-428	; 0xfffffe54
    a034:	2e636f6c 	cdpcs	15, 6, cr6, cr3, cr12, {3}
    a038:	00000063 	andeq	r0, r0, r3, rrx
    a03c:	5f78616d 	svcpl	0x0078616d
    a040:	7479626e 	ldrbtvc	r6, [r9], #-622	; 0xfffffd92
    a044:	00007365 	andeq	r7, r0, r5, ror #6
    a048:	494e4150 	stmdbmi	lr, {r4, r6, r8, lr}^
    a04c:	73253a43 			; <UNDEFINED> instruction: 0x73253a43
    a050:	3a73253a 	bcc	1cd3540 <__bss_end__+0x1cc8ee8>
    a054:	733a6425 	teqvc	sl, #620756992	; 0x25000000
    a058:	69747465 	ldmdbvs	r4!, {r0, r2, r5, r6, sl, ip, sp, lr}^
    a05c:	6820676e 	stmdavs	r0!, {r1, r2, r3, r5, r6, r8, r9, sl, sp, lr}
    a060:	20706165 	rsbscs	r6, r0, r5, ror #2
    a064:	25206f74 	strcs	r6, [r0, #-3956]!	; 0xfffff08c
    a068:	77203a70 			; <UNDEFINED> instruction: 0x77203a70
    a06c:	206c6c69 	rsbcs	r6, ip, r9, ror #24
    a070:	20746968 	rsbscs	r6, r4, r8, ror #18
    a074:	20656874 	rsbcs	r6, r5, r4, ror r8
    a078:	20646c6f 	rsbcs	r6, r4, pc, ror #24
    a07c:	70616568 	rsbvc	r6, r1, r8, ror #10
    a080:	20746120 	rsbscs	r6, r4, r0, lsr #2
    a084:	0a0a7025 	beq	2a6120 <__bss_end__+0x29bac8>
    a088:	00000000 	andeq	r0, r0, r0
    a08c:	494e4150 	stmdbmi	lr, {r4, r6, r8, lr}^
    a090:	73253a43 			; <UNDEFINED> instruction: 0x73253a43
    a094:	3a73253a 	bcc	1cd3584 <__bss_end__+0x1cc8f2c>
    a098:	613a6425 	teqvs	sl, r5, lsr #8
    a09c:	6165726c 	cmnvs	r5, ip, ror #4
    a0a0:	63207964 			; <UNDEFINED> instruction: 0x63207964
    a0a4:	656c6c61 	strbvs	r6, [ip, #-3169]!	; 0xfffff39f
    a0a8:	6d6b2064 	stclvs	0, cr2, [fp, #-400]!	; 0xfffffe70
    a0ac:	6f6c6c61 	svcvs	0x006c6c61
    a0b0:	6e695f63 	cdpvs	15, 6, cr5, cr9, cr3, {3}
    a0b4:	0a0a7469 	beq	2a7260 <__bss_end__+0x29cc08>
    a0b8:	00000000 	andeq	r0, r0, r0
    a0bc:	494e4150 	stmdbmi	lr, {r4, r6, r8, lr}^
    a0c0:	73253a43 			; <UNDEFINED> instruction: 0x73253a43
    a0c4:	3a73253a 	bcc	1cd35b4 <__bss_end__+0x1cc8f5c>
    a0c8:	253a6425 	ldrcs	r6, [sl, #-1061]!	; 0xfffffbdb
    a0cc:	626e2064 	rsbvs	r2, lr, #100, 0	; 0x64
    a0d0:	73657479 	cmnvc	r5, #2030043136	; 0x79000000
    a0d4:	63786520 	cmnvs	r8, #32, 10	; 0x8000000
    a0d8:	65646565 	strbvs	r6, [r4, #-1381]!	; 0xfffffa9b
    a0dc:	69732064 	ldmdbvs	r3!, {r2, r5, r6, sp}^
    a0e0:	6f20657a 	svcvs	0x0020657a
    a0e4:	65682066 	strbvs	r2, [r8, #-102]!	; 0xffffff9a
    a0e8:	62207061 	eorvs	r7, r0, #97, 0	; 0x61
    a0ec:	75252079 	strvc	r2, [r5, #-121]!	; 0xffffff87
    a0f0:	79626e20 	stmdbvc	r2!, {r5, r9, sl, fp, sp, lr}^
    a0f4:	0a736574 	beq	1ce36cc <__bss_end__+0x1cd9074>
    a0f8:	0000000a 	andeq	r0, r0, sl
    a0fc:	4f525245 	svcmi	0x00525245
    a100:	73253a52 			; <UNDEFINED> instruction: 0x73253a52
    a104:	3a73253a 	bcc	1cd35f4 <__bss_end__+0x1cc8f9c>
    a108:	203a6425 	eorscs	r6, sl, r5, lsr #8
    a10c:	534c4146 	movtpl	r4, #49478	; 0xc146
    a110:	253c2845 	ldrcs	r2, [ip, #-2117]!	; 0xfffff7bb
    a114:	3a293e73 	bcc	a59ae8 <__bss_end__+0xa4f490>
    a118:	73736120 	cmnvc	r3, #8
    a11c:	6e696d75 	mcrvs	13, 3, r6, cr9, cr5, {3}
    a120:	6f702067 	svcvs	0x00702067
    a124:	20726577 	rsbscs	r6, r2, r7, ror r5
    a128:	7420666f 	strtvc	r6, [r0], #-1647	; 0xfffff991
    a12c:	000a6f77 	andeq	r6, sl, r7, ror pc
    a130:	705f7369 	subsvc	r7, pc, r9, ror #6
    a134:	2832776f 	ldmdacs	r2!, {r0, r1, r2, r3, r5, r6, r8, r9, sl, ip, sp, lr}
    a138:	67696c61 	strbvs	r6, [r9, -r1, ror #24]!
    a13c:	6e656d6e 	cdpvs	13, 6, cr6, cr5, cr14, {3}
    a140:	00002974 	andeq	r2, r0, r4, ror r9
    a144:	705f7369 	subsvc	r7, pc, r9, ror #6
    a148:	2832776f 	ldmdacs	r2!, {r0, r1, r2, r3, r5, r6, r8, r9, sl, ip, sp, lr}
    a14c:	0000296e 	andeq	r2, r0, lr, ror #18
    a150:	4f525245 	svcmi	0x00525245
    a154:	73253a52 			; <UNDEFINED> instruction: 0x73253a52
    a158:	3a73253a 	bcc	1cd3648 <__bss_end__+0x1cc8ff0>
    a15c:	203a6425 	eorscs	r6, sl, r5, lsr #8
    a160:	534c4146 	movtpl	r4, #49478	; 0xc146
    a164:	253c2845 	ldrcs	r2, [ip, #-2117]!	; 0xfffff7bb
    a168:	3a293e73 	bcc	a59b3c <__bss_end__+0xa4f4e4>
    a16c:	706d6920 	rsbvc	r6, sp, r0, lsr #18
    a170:	6973736f 	ldmdbvs	r3!, {r0, r1, r2, r3, r5, r6, r8, r9, ip, sp, lr}^
    a174:	0a656c62 	beq	1965304 <__bss_end__+0x195acac>
    a178:	00000000 	andeq	r0, r0, r0
    a17c:	615f7369 	cmpvs	pc, r9, ror #6
    a180:	6e67696c 	vnmulvs.f16	s13, s14, s25	; <UNPREDICTABLE>
    a184:	68286465 	stmdavs	r8!, {r0, r2, r5, r6, sl, sp, lr}
    a188:	6c61202c 	stclvs	0, cr2, [r1], #-176	; 0xffffff50
    a18c:	6d6e6769 	stclvs	7, cr6, [lr, #-420]!	; 0xfffffe5c
    a190:	29746e65 	ldmdbcs	r4!, {r0, r2, r5, r6, r9, sl, fp, sp, lr}^
    a194:	00000000 	andeq	r0, r0, r0
    a198:	494e4150 	stmdbmi	lr, {r4, r6, r8, lr}^
    a19c:	73253a43 			; <UNDEFINED> instruction: 0x73253a43
    a1a0:	3a73253a 	bcc	1cd3690 <__bss_end__+0x1cc9038>
    a1a4:	703a6425 	eorsvc	r6, sl, r5, lsr #8
    a1a8:	746e696f 	strbtvc	r6, [lr], #-2415	; 0xfffff691
    a1ac:	25207265 	strcs	r7, [r0, #-613]!	; 0xfffffd9b
    a1b0:	61772070 	cmnvs	r7, r0, ror r0
    a1b4:	656e2073 	strbvs	r2, [lr, #-115]!	; 0xffffff8d
    a1b8:	20726576 	rsbscs	r6, r2, r6, ror r5
    a1bc:	6f6c6c61 	svcvs	0x006c6c61
    a1c0:	65746163 	ldrbvs	r6, [r4, #-355]!	; 0xfffffe9d
    a1c4:	000a0a64 	andeq	r0, sl, r4, ror #20

0000a1c8 <__FUNCTION__.7>:
    a1c8:	6c616d6b 	stclvs	13, cr6, [r1], #-428	; 0xfffffe54
    a1cc:	5f636f6c 	svcpl	0x00636f6c
    a1d0:	74696e69 	strbtvc	r6, [r9], #-3689	; 0xfffff197
    a1d4:	7465735f 	strbtvc	r7, [r5], #-863	; 0xfffffca1
    a1d8:	6174735f 	cmnvs	r4, pc, asr r3
    a1dc:	00007472 	andeq	r7, r0, r2, ror r4

0000a1e0 <__FUNCTION__.5>:
    a1e0:	6c616d6b 	stclvs	13, cr6, [r1], #-428	; 0xfffffe54
    a1e4:	5f636f6c 	svcpl	0x00636f6c
    a1e8:	74696e69 	strbtvc	r6, [r9], #-3689	; 0xfffff197
    a1ec:	00000000 	andeq	r0, r0, r0

0000a1f0 <__FUNCTION__.4>:
    a1f0:	6c616d6b 	stclvs	13, cr6, [r1], #-428	; 0xfffffe54
    a1f4:	5f636f6c 	svcpl	0x00636f6c
    a1f8:	7a746f6e 	bvc	1d25fb8 <__bss_end__+0x1d1b960>
    a1fc:	006f7265 	rsbeq	r7, pc, r5, ror #4

0000a200 <__FUNCTION__.2>:
    a200:	6c616d6b 	stclvs	13, cr6, [r1], #-428	; 0xfffffe54
    a204:	00636f6c 	rsbeq	r6, r3, ip, ror #30

0000a208 <__FUNCTION__.1>:
    a208:	6c616d6b 	stclvs	13, cr6, [r1], #-428	; 0xfffffe54
    a20c:	5f636f6c 	svcpl	0x00636f6c
    a210:	67696c61 	strbvs	r6, [r9, -r1, ror #24]!
    a214:	0064656e 	rsbeq	r6, r4, lr, ror #10

0000a218 <__FUNCTION__.3>:
    a218:	6e756f72 	mrcvs	15, 3, r6, cr5, cr2, {3}
    a21c:	00707564 	rsbseq	r7, r0, r4, ror #10

0000a220 <__FUNCTION__.0>:
    a220:	6572666b 	ldrbvs	r6, [r2, #-1643]!	; 0xfffff995
    a224:	6f705f65 	svcvs	0x00705f65
    a228:	Address 0x000000000000a228 is out of bounds.


Disassembly of section .data:

0000a22c <rpi_putchar>:
    a22c:	000087f0 	strdeq	r8, [r0], -r0

0000a230 <putk>:
    a230:	0000882c 	andeq	r8, r0, ip, lsr #16

0000a234 <heap>:
    a234:	0000a658 	andeq	sl, r0, r8, asr r6

0000a238 <heap_start>:
    a238:	0000a658 	andeq	sl, r0, r8, asr r6

0000a23c <heap_end>:
    a23c:	0020a658 	eoreq	sl, r0, r8, asr r6

Disassembly of section .bss:

0000a240 <__bss_start__>:
	...

0000a248 <base>:
	...

0000a250 <alloc_list>:
    a250:	00000000 	andeq	r0, r0, r0

0000a254 <buf.3944>:
	...

0000a654 <init_p.6>:
    a654:	00000000 	andeq	r0, r0, r0

Disassembly of section .ARM.attributes:

00000000 <.ARM.attributes>:
   0:	00002a41 	andeq	r2, r0, r1, asr #20
   4:	61656100 	cmnvs	r5, r0, lsl #2
   8:	01006962 	tsteq	r0, r2, ror #18
   c:	00000020 	andeq	r0, r0, r0, lsr #32
  10:	4b5a3605 	blmi	168d82c <__bss_end__+0x16831d4>
  14:	08070600 	stmdaeq	r7, {r9, sl}
  18:	12010901 	andne	r0, r1, #16384	; 0x4000
  1c:	15011404 	strne	r1, [r1, #-1028]	; 0xfffffbfc
  20:	18031701 	stmdane	r3, {r0, r8, r9, sl, ip}
  24:	22011a01 	andcs	r1, r1, #4096	; 0x1000
  28:	Address 0x0000000000000028 is out of bounds.


Disassembly of section .comment:

00000000 <.comment>:
   0:	3a434347 	bcc	10d0d24 <__bss_end__+0x10c66cc>
   4:	4e472820 	cdpmi	8, 4, cr2, cr7, cr0, {1}
   8:	6f542055 	svcvs	0x00542055
   c:	20736c6f 	rsbscs	r6, r3, pc, ror #24
  10:	20726f66 	rsbscs	r6, r2, r6, ror #30
  14:	206d7241 	rsbcs	r7, sp, r1, asr #4
  18:	65626d45 	strbvs	r6, [r2, #-3397]!	; 0xfffff2bb
  1c:	64656464 	strbtvs	r6, [r5], #-1124	; 0xfffffb9c
  20:	6f725020 	svcvs	0x00725020
  24:	73736563 	cmnvc	r3, #415236096	; 0x18c00000
  28:	2073726f 	rsbscs	r7, r3, pc, ror #4
  2c:	30322d39 	eorscc	r2, r2, r9, lsr sp
  30:	712d3931 			; <UNDEFINED> instruction: 0x712d3931
  34:	616d2d34 	cmnvs	sp, r4, lsr sp
  38:	29726f6a 	ldmdbcs	r2!, {r1, r3, r5, r6, r8, r9, sl, fp, sp, lr}^
  3c:	322e3920 	eorcc	r3, lr, #32, 18	; 0x80000
  40:	3220312e 	eorcc	r3, r0, #-2147483637	; 0x8000000b
  44:	31393130 	teqcc	r9, r0, lsr r1
  48:	20353230 	eorscs	r3, r5, r0, lsr r2
  4c:	6c657228 	sfmvs	f7, 2, [r5], #-160	; 0xffffff60
  50:	65736165 	ldrbvs	r6, [r3, #-357]!	; 0xfffffe9b
  54:	415b2029 	cmpmi	fp, r9, lsr #32
  58:	612f4d52 			; <UNDEFINED> instruction: 0x612f4d52
  5c:	392d6d72 	pushcc	{r1, r4, r5, r6, r8, sl, fp, sp, lr}
  60:	6172622d 	cmnvs	r2, sp, lsr #4
  64:	2068636e 	rsbcs	r6, r8, lr, ror #6
  68:	69766572 	ldmdbvs	r6!, {r1, r4, r5, r6, r8, sl, sp, lr}^
  6c:	6e6f6973 			; <UNDEFINED> instruction: 0x6e6f6973
  70:	37373220 	ldrcc	r3, [r7, -r0, lsr #4]!
  74:	5d393935 			; <UNDEFINED> instruction: 0x5d393935
  78:	43434700 	movtmi	r4, #14080	; 0x3700
  7c:	4728203a 			; <UNDEFINED> instruction: 0x4728203a
  80:	4120554e 			; <UNDEFINED> instruction: 0x4120554e
  84:	45206d72 	strmi	r6, [r0, #-3442]!	; 0xfffff28e
  88:	6465626d 	strbtvs	r6, [r5], #-621	; 0xfffffd93
  8c:	20646564 	rsbcs	r6, r4, r4, ror #10
  90:	6c6f6f54 	stclvs	15, cr6, [pc], #-336	; ffffff48 <__bss_end__+0xffff58f0>
  94:	69616863 	stmdbvs	r1!, {r0, r1, r5, r6, fp, sp, lr}^
  98:	3031206e 	eorscc	r2, r1, lr, rrx
  9c:	322d332e 	eorcc	r3, sp, #-1207959552	; 0xb8000000
  a0:	2e313230 	mrccs	2, 1, r3, cr1, cr0, {1}
  a4:	20293031 	eorcs	r3, r9, r1, lsr r0
  a8:	332e3031 			; <UNDEFINED> instruction: 0x332e3031
  ac:	3220312e 	eorcc	r3, r0, #-2147483637	; 0x8000000b
  b0:	30313230 	eorscc	r3, r1, r0, lsr r2
  b4:	20343238 	eorscs	r3, r4, r8, lsr r2
  b8:	6c657228 	sfmvs	f7, 2, [r5], #-160	; 0xffffff60
  bc:	65736165 	ldrbvs	r6, [r3, #-357]!	; 0xfffffe9b
  c0:	Address 0x00000000000000c0 is out of bounds.


Disassembly of section .debug_info:

00000000 <.debug_info>:
       0:	000005b9 			; <UNDEFINED> instruction: 0x000005b9
       4:	00000004 	andeq	r0, r0, r4
       8:	01040000 	mrseq	r0, (UNDEF: 4)
       c:	00000117 	andeq	r0, r0, r7, lsl r1
      10:	00006b0c 	andeq	r6, r0, ip, lsl #22
      14:	0000cc00 	andeq	ip, r0, r0, lsl #24
      18:	00803800 	addeq	r3, r0, r0, lsl #16
      1c:	00023400 	andeq	r3, r2, r0, lsl #8
      20:	00000000 	andeq	r0, r0, r0
      24:	05040200 	streq	r0, [r4, #-512]	; 0xfffffe00
      28:	00746e69 	rsbseq	r6, r4, r9, ror #28
      2c:	8d070403 	cfstrshi	mvf0, [r7, #-12]
      30:	03000000 	movweq	r0, #0
      34:	001d0601 	andseq	r0, sp, r1, lsl #12
      38:	02030000 	andeq	r0, r3, #0, 0
      3c:	00010305 	andeq	r0, r1, r5, lsl #6
      40:	05040300 	streq	r0, [r4, #-768]	; 0xfffffd00
      44:	000000b7 	strheq	r0, [r0], -r7
      48:	b2050803 	andlt	r0, r5, #196608	; 0x30000
      4c:	04000000 	streq	r0, [r0], #-0
      50:	0000009a 	muleq	r0, sl, r0
      54:	5b182e04 	blpl	60b86c <__bss_end__+0x601214>
      58:	03000000 	movweq	r0, #0
      5c:	001b0801 	andseq	r0, fp, r1, lsl #16
      60:	02030000 	andeq	r0, r3, #0, 0
      64:	00003607 	andeq	r3, r0, r7, lsl #12
      68:	07040300 	streq	r0, [r4, -r0, lsl #6]
      6c:	00000088 	andeq	r0, r0, r8, lsl #1
      70:	83070803 	movwhi	r0, #30723	; 0x7803
      74:	05000000 	streq	r0, [r0, #-0]
      78:	00000025 	andeq	r0, r0, r5, lsr #32
      7c:	00000086 	andeq	r0, r0, r6, lsl #1
      80:	00002506 	andeq	r2, r0, r6, lsl #10
      84:	c0070000 	andgt	r0, r7, r0
      88:	03000000 	movweq	r0, #0
      8c:	00920e1c 	addseq	r0, r2, ip, lsl lr
      90:	04080000 	streq	r0, [r8], #-0
      94:	00000077 	andeq	r0, r0, r7, ror r0
      98:	00002505 	andeq	r2, r0, r5, lsl #10
      9c:	0000a700 	andeq	sl, r0, r0, lsl #14
      a0:	00a70600 	adceq	r0, r7, r0, lsl #12
      a4:	08000000 	stmdaeq	r0, {}	; <UNPREDICTABLE>
      a8:	0000b404 	andeq	fp, r0, r4, lsl #8
      ac:	08010300 	stmdaeq	r1, {r8, r9}
      b0:	00000024 	andeq	r0, r0, r4, lsr #32
      b4:	0000ad09 	andeq	sl, r0, r9, lsl #26
      b8:	04b60700 	ldrteq	r0, [r6], #1792	; 0x700
      bc:	21030000 	mrscs	r0, (UNDEF: 3)
      c0:	0000c50e 	andeq	ip, r0, lr, lsl #10
      c4:	98040800 	stmdals	r4, {fp}
      c8:	0a000000 	beq	d0 <__code_start__-0x7f30>
      cc:	0904020c 	stmdbeq	r4, {r2, r3, r9}
      d0:	000000fc 	strdeq	r0, [r0], -ip
      d4:	0000160b 	andeq	r1, r0, fp, lsl #12
      d8:	11060200 	mrsne	r0, LR_usr
      dc:	000000a7 	andeq	r0, r0, r7, lsr #1
      e0:	00540b00 	subseq	r0, r4, r0, lsl #22
      e4:	07020000 	streq	r0, [r2, -r0]
      e8:	0000a711 	andeq	sl, r0, r1, lsl r7
      ec:	070b0400 	streq	r0, [fp, -r0, lsl #8]
      f0:	02000000 	andeq	r0, r0, #0, 0
      f4:	002c0e08 	eoreq	r0, ip, r8, lsl #28
      f8:	00080000 	andeq	r0, r8, r0
      fc:	00010d04 	andeq	r0, r1, r4, lsl #26
     100:	03090200 	movweq	r0, #37376	; 0x9200
     104:	000000cb 	andeq	r0, r0, fp, asr #1
     108:	00000e0c 	andeq	r0, r0, ip, lsl #28
     10c:	06200100 	strteq	r0, [r0], -r0, lsl #2
     110:	000081cc 	andeq	r8, r0, ip, asr #3
     114:	000000a0 	andeq	r0, r0, r0, lsr #1
     118:	02589c01 	subseq	r9, r8, #256	; 0x100
     11c:	6e0d0000 	cdpvs	0, 0, cr0, cr13, cr0, {0}
     120:	0e230100 	sufeqs	f0, f3, f0
     124:	0000002c 	andeq	r0, r0, ip, lsr #32
     128:	30700e01 	rsbscc	r0, r0, r1, lsl #28
     12c:	0b250100 	bleq	940534 <__bss_end__+0x935edc>
     130:	00000258 	andeq	r0, r0, r8, asr r2
     134:	00000004 	andeq	r0, r0, r4
     138:	00000000 	andeq	r0, r0, r0
     13c:	00007c0f 	andeq	r7, r0, pc, lsl #24
     140:	09260100 	stmdbeq	r6!, {r8}
     144:	00000025 	andeq	r0, r0, r5, lsr #32
     148:	005e100a 	subseq	r1, lr, sl
     14c:	026a0000 	rsbeq	r0, sl, #0, 0
     150:	03050000 	movweq	r0, #20480	; 0x5000
     154:	00009dd0 	ldrdeq	r9, [r0], -r0
     158:	0081e011 	addeq	lr, r1, r1, lsl r0
     15c:	00005800 	andeq	r5, r0, r0, lsl #16
     160:	00021a00 	andeq	r1, r2, r0, lsl #20
     164:	00690e00 	rsbeq	r0, r9, r0, lsl #28
     168:	250d2701 	strcs	r2, [sp, #-1793]	; 0xfffff8ff
     16c:	26000000 	strcs	r0, [r0], -r0
     170:	22000000 	andcs	r0, r0, #0, 0
     174:	12000000 	andne	r0, r0, #0, 0
     178:	00000018 	andeq	r0, r0, r8, lsl r0
     17c:	0031700e 	eorseq	r7, r1, lr
     180:	580f2801 	stmdapl	pc, {r0, fp, sp}	; <UNPREDICTABLE>
     184:	49000002 	stmdbmi	r0, {r1}
     188:	45000000 	strmi	r0, [r0, #-0]
     18c:	13000000 	movwne	r0, #0
     190:	000081f4 	strdeq	r8, [r0], -r4
     194:	0000026f 	andeq	r0, r0, pc, ror #4
     198:	000001a2 	andeq	r0, r0, r2, lsr #3
     19c:	01500114 	cmpeq	r0, r4, lsl r1
     1a0:	04130031 	ldreq	r0, [r3], #-49	; 0xffffffcf
     1a4:	6c000082 	stcvs	0, cr0, [r0], {130}	; 0x82
     1a8:	b9000005 	stmdblt	r0, {r0, r2}
     1ac:	14000001 	strne	r0, [r0], #-1
     1b0:	03055001 	movweq	r5, #20481	; 0x5001
     1b4:	00009d78 	andeq	r9, r0, r8, ror sp
     1b8:	82101300 	andshi	r1, r0, #0, 6
     1bc:	056c0000 	strbeq	r0, [ip, #-0]!
     1c0:	01d60000 	bicseq	r0, r6, r0
     1c4:	01140000 	tsteq	r4, r0
     1c8:	80030550 	andhi	r0, r3, r0, asr r5
     1cc:	1400009d 	strne	r0, [r0], #-157	; 0xffffff63
     1d0:	74025101 	strvc	r5, [r2], #-257	; 0xfffffeff
     1d4:	34130000 	ldrcc	r0, [r3], #-0
     1d8:	6c000082 	stcvs	0, cr0, [r0], {130}	; 0x82
     1dc:	0f000005 	svceq	0x00000005
     1e0:	14000002 	strne	r0, [r0], #-2
     1e4:	03055001 	movweq	r5, #20481	; 0x5001
     1e8:	00009d58 	andeq	r9, r0, r8, asr sp
     1ec:	05510114 	ldrbeq	r0, [r1, #-276]	; 0xfffffeec
     1f0:	009cf803 	addseq	pc, ip, r3, lsl #16
     1f4:	52011400 	andpl	r1, r1, #0, 8
     1f8:	9dd00305 	ldclls	3, cr0, [r0, #20]
     1fc:	01140000 	tsteq	r4, r0
     200:	2b080253 	blcs	200b54 <__bss_end__+0x1f64fc>
     204:	007d0214 	rsbseq	r0, sp, r4, lsl r2
     208:	9d6c0305 	stclls	3, cr0, [ip, #-20]!	; 0xffffffec
     20c:	15000000 	strne	r0, [r0, #-0]
     210:	00008238 	andeq	r8, r0, r8, lsr r2
     214:	00000578 	andeq	r0, r0, r8, ror r5
     218:	dc130000 	ldcle	0, cr0, [r3], {-0}
     21c:	6f000081 	svcvs	0x00000081
     220:	2d000002 	stccs	0, cr0, [r0, #-8]
     224:	14000002 	strne	r0, [r0], #-2
     228:	31015001 	tstcc	r1, r1
     22c:	82401300 	subhi	r1, r0, #0, 6
     230:	056c0000 	strbeq	r0, [ip, #-0]!
     234:	02440000 	subeq	r0, r4, #0, 0
     238:	01140000 	tsteq	r4, r0
     23c:	78030550 	stmdavc	r3, {r4, r6, r8, sl}
     240:	0000009d 	muleq	r0, sp, r0
     244:	00824816 	addeq	r4, r2, r6, lsl r8
     248:	00056c00 	andeq	r6, r5, r0, lsl #24
     24c:	50011400 	andpl	r1, r1, r0, lsl #8
     250:	9d980305 	ldcls	3, cr0, [r8, #20]
     254:	00000000 	andeq	r0, r0, r0
     258:	b4180417 	ldrlt	r0, [r8], #-1047	; 0xfffffbe9
     25c:	6a000000 	bvs	264 <__code_start__-0x7d9c>
     260:	19000002 	stmdbne	r0, {r1}
     264:	0000002c 	andeq	r0, r0, ip, lsr #32
     268:	5a090007 	bpl	24028c <__bss_end__+0x235c34>
     26c:	1a000002 	bne	27c <__code_start__-0x7d84>
     270:	000000a2 	andeq	r0, r0, r2, lsr #1
     274:	580e0a01 	stmdapl	lr, {r0, r9, fp}
     278:	38000002 	stmdacc	r0, {r1}
     27c:	94000080 	strls	r0, [r0], #-128	; 0xffffff80
     280:	01000001 	tsteq	r0, r1
     284:	0005159c 	muleq	r5, ip, r5
     288:	006e1b00 	rsbeq	r1, lr, r0, lsl #22
     28c:	2c270a01 			; <UNDEFINED> instruction: 0x2c270a01
     290:	6d000000 	stcvs	0, cr0, [r0, #-0]
     294:	67000000 	strvs	r0, [r0, -r0]
     298:	1c000000 	stcne	0, cr0, [r0], {-0}
     29c:	00000059 	andeq	r0, r0, r9, asr r0
     2a0:	150f0b01 	strne	r0, [pc, #-2817]	; fffff7a7 <__bss_end__+0xffff514f>
     2a4:	9f000005 	svcls	0x00000005
     2a8:	99000000 	stmdbls	r0, {}	; <UNPREDICTABLE>
     2ac:	10000000 	andne	r0, r0, r0
     2b0:	0000005e 	andeq	r0, r0, lr, asr r0
     2b4:	00000531 	andeq	r0, r0, r1, lsr r5
     2b8:	9dc00305 	stclls	3, cr0, [r0, #20]
     2bc:	70110000 	andsvc	r0, r1, r0
     2c0:	94000080 	strls	r0, [r0], #-128	; 0xffffff80
     2c4:	a3000000 	movwge	r0, #0
     2c8:	0e000003 	cdpeq	0, 0, cr0, cr0, cr3, {0}
     2cc:	0d010069 	stceq	0, cr0, [r1, #-420]	; 0xfffffe5c
     2d0:	0000250d 	andeq	r2, r0, sp, lsl #10
     2d4:	0000cc00 	andeq	ip, r0, r0, lsl #24
     2d8:	0000c800 	andeq	ip, r0, r0, lsl #16
     2dc:	00001200 	andeq	r1, r0, r0, lsl #4
     2e0:	700e0000 	andvc	r0, lr, r0
     2e4:	120e0100 	andne	r0, lr, #0
     2e8:	0000051b 	andeq	r0, r0, fp, lsl r5
     2ec:	000000ed 	andeq	r0, r0, sp, ror #1
     2f0:	000000eb 	andeq	r0, r0, fp, ror #1
     2f4:	0005361d 	andeq	r3, r5, sp, lsl r6
     2f8:	00807c00 	addeq	r7, r0, r0, lsl #24
     2fc:	807c0100 	rsbshi	r0, ip, r0, lsl #2
     300:	00180000 	andseq	r0, r8, r0
     304:	0e010000 	cdpeq	0, 0, cr0, cr1, cr0, {0}
     308:	00033520 	andeq	r3, r3, r0, lsr #10
     30c:	055f1e00 	ldrbeq	r1, [pc, #-3584]	; fffff514 <__bss_end__+0xffff4ebc>
     310:	01020000 	mrseq	r0, (UNDEF: 2)
     314:	01000000 	mrseq	r0, (UNDEF: 0)
     318:	531e0000 	tstpl	lr, #0, 0
     31c:	18000005 	stmdane	r0, {r0, r2}
     320:	16000001 	strne	r0, [r0], -r1
     324:	1e000001 	cdpne	0, 0, cr0, cr0, cr1, {0}
     328:	00000547 	andeq	r0, r0, r7, asr #10
     32c:	00000132 	andeq	r0, r0, r2, lsr r1
     330:	00000130 	andeq	r0, r0, r0, lsr r1
     334:	80a81300 	adchi	r1, r8, r0, lsl #6
     338:	05980000 	ldreq	r0, [r8]
     33c:	03480000 	movteq	r0, #32768	; 0x8000
     340:	01140000 	tsteq	r4, r0
     344:	00310150 	eorseq	r0, r1, r0, asr r1
     348:	0080cc15 	addeq	ip, r0, r5, lsl ip
     34c:	0005a400 	andeq	sl, r5, r0, lsl #8
     350:	81001300 	mrshi	r1, LR_irq
     354:	056c0000 	strbeq	r0, [ip, #-0]!
     358:	03980000 	orrseq	r0, r8, #0, 0
     35c:	01140000 	tsteq	r4, r0
     360:	0c030550 	cfstr32eq	mvfx0, [r3], {80}	; 0x50
     364:	1400009d 	strne	r0, [r0], #-157	; 0xffffff63
     368:	91045101 	tstls	r4, r1, lsl #2
     36c:	14067fb0 	strne	r7, [r6], #-4016	; 0xfffff050
     370:	91045201 	tstls	r4, r1, lsl #4
     374:	14067fb4 	strne	r7, [r6], #-4020	; 0xfffff04c
     378:	43015301 	movwmi	r5, #4865	; 0x1301
     37c:	007d0214 	rsbseq	r0, sp, r4, lsl r2
     380:	9d400305 	stclls	3, cr0, [r0, #-20]	; 0xffffffec
     384:	02140000 	andseq	r0, r4, #0, 0
     388:	7402047d 	strvc	r0, [r2], #-1149	; 0xfffffb83
     38c:	7d021400 	cfstrsvc	mvf1, [r2, #-0]
     390:	0074050c 	rsbseq	r0, r4, ip, lsl #10
     394:	001aff08 	andseq	pc, sl, r8, lsl #30
     398:	00810415 	addeq	r0, r1, r5, lsl r4
     39c:	00057800 	andeq	r7, r5, r0, lsl #16
     3a0:	11000000 	mrsne	r0, (UNDEF: 0)
     3a4:	00008104 	andeq	r8, r0, r4, lsl #2
     3a8:	00000044 	andeq	r0, r0, r4, asr #32
     3ac:	00000402 	andeq	r0, r0, r2, lsl #8
     3b0:	0100690e 	tsteq	r0, lr, lsl #18
     3b4:	00250d16 	eoreq	r0, r5, r6, lsl sp
     3b8:	014e0000 	mrseq	r0, (UNDEF: 78)
     3bc:	014a0000 	mrseq	r0, (UNDEF: 74)
     3c0:	44130000 	ldrmi	r0, [r3], #-0
     3c4:	6c000081 	stcvs	0, cr0, [r0], {129}	; 0x81
     3c8:	f8000005 			; <UNDEFINED> instruction: 0xf8000005
     3cc:	14000003 	strne	r0, [r0], #-3
     3d0:	03055001 	movweq	r5, #20481	; 0x5001
     3d4:	00009d58 	andeq	r9, r0, r8, asr sp
     3d8:	04510114 	ldrbeq	r0, [r1], #-276	; 0xfffffeec
     3dc:	067fb091 			; <UNDEFINED> instruction: 0x067fb091
     3e0:	04520114 	ldrbeq	r0, [r2], #-276	; 0xfffffeec
     3e4:	067fb491 			; <UNDEFINED> instruction: 0x067fb491
     3e8:	01530114 	cmpeq	r3, r4, lsl r1
     3ec:	7d021447 	cfstrsvc	mvf1, [r2, #-284]	; 0xfffffee4
     3f0:	40030500 	andmi	r0, r3, r0, lsl #10
     3f4:	0000009d 	muleq	r0, sp, r0
     3f8:	00814815 	addeq	r4, r1, r5, lsl r8
     3fc:	00057800 	andeq	r7, r5, r0, lsl #16
     400:	48110000 	ldmdami	r1, {}	; <UNPREDICTABLE>
     404:	3c000081 	stccc	0, cr0, [r0], {129}	; 0x81
     408:	6c000000 	stcvs	0, cr0, [r0], {-0}
     40c:	0e000004 	cdpeq	0, 0, cr0, cr0, cr4, {0}
     410:	19010069 	stmdbne	r1, {r0, r3, r5, r6}
     414:	0000250d 	andeq	r2, r0, sp, lsl #10
     418:	00016e00 	andeq	r6, r1, r0, lsl #28
     41c:	00016c00 	andeq	r6, r1, r0, lsl #24
     420:	05361d00 	ldreq	r1, [r6, #-3328]!	; 0xfffff300
     424:	81500000 	cmphi	r0, r0
     428:	50010000 	andpl	r0, r1, r0
     42c:	18000081 	stmdane	r0, {r0, r7}
     430:	01000000 	mrseq	r0, (UNDEF: 0)
     434:	0462091a 	strbteq	r0, [r2], #-2330	; 0xfffff6e6
     438:	5f1e0000 	svcpl	0x001e0000
     43c:	83000005 	movwhi	r0, #5
     440:	81000001 	tsthi	r0, r1
     444:	1e000001 	cdpne	0, 0, cr0, cr0, cr1, {0}
     448:	00000553 	andeq	r0, r0, r3, asr r5
     44c:	00000199 	muleq	r0, r9, r1
     450:	00000197 	muleq	r0, r7, r1
     454:	0005471e 	andeq	r4, r5, lr, lsl r7
     458:	0001b300 	andeq	fp, r1, r0, lsl #6
     45c:	0001b100 	andeq	fp, r1, r0, lsl #2
     460:	78150000 	ldmdavc	r5, {}	; <UNPREDICTABLE>
     464:	b0000081 	andlt	r0, r0, r1, lsl #1
     468:	00000005 	andeq	r0, r0, r5
     46c:	0005361d 	andeq	r3, r5, sp, lsl r6
     470:	00804400 	addeq	r4, r0, r0, lsl #8
     474:	80440100 	subhi	r0, r4, r0, lsl #2
     478:	00180000 	andseq	r0, r8, r0
     47c:	0b010000 	bleq	40484 <__bss_end__+0x35e2c>
     480:	0004ad16 	andeq	sl, r4, r6, lsl sp
     484:	055f1e00 	ldrbeq	r1, [pc, #-3584]	; fffff68c <__bss_end__+0xffff5034>
     488:	01cd0000 	biceq	r0, sp, r0
     48c:	01cb0000 	biceq	r0, fp, r0
     490:	531e0000 	tstpl	lr, #0, 0
     494:	e3000005 	movw	r0, #5
     498:	e1000001 	tst	r0, r1
     49c:	1e000001 	cdpne	0, 0, cr0, cr0, cr1, {0}
     4a0:	00000547 	andeq	r0, r0, r7, asr #10
     4a4:	000001fd 	strdeq	r0, [r0], -sp
     4a8:	000001fb 	strdeq	r0, [r0], -fp
     4ac:	05361d00 	ldreq	r1, [r6, #-3328]!	; 0xfffff300
     4b0:	81840000 	orrhi	r0, r4, r0
     4b4:	84010000 	strhi	r0, [r1], #-0
     4b8:	18000081 	stmdane	r0, {r0, r7}
     4bc:	01000000 	mrseq	r0, (UNDEF: 0)
     4c0:	04ee051b 	strbteq	r0, [lr], #1307	; 0x51b
     4c4:	5f1e0000 	svcpl	0x001e0000
     4c8:	17000005 	strne	r0, [r0, -r5]
     4cc:	15000002 	strne	r0, [r0, #-2]
     4d0:	1e000002 	cdpne	0, 0, cr0, cr0, cr2, {0}
     4d4:	00000553 	andeq	r0, r0, r3, asr r5
     4d8:	0000022d 	andeq	r0, r0, sp, lsr #4
     4dc:	0000022b 	andeq	r0, r0, fp, lsr #4
     4e0:	0005471e 	andeq	r4, r5, lr, lsl r7
     4e4:	00024700 	andeq	r4, r2, r0, lsl #14
     4e8:	00024500 	andeq	r4, r2, r0, lsl #10
     4ec:	6c130000 	ldcvs	0, cr0, [r3], {-0}
     4f0:	98000080 	stmdals	r0, {r7}
     4f4:	04000005 	streq	r0, [r0], #-5
     4f8:	14000005 	strne	r0, [r0], #-5
     4fc:	76045001 	strvc	r5, [r4], -r1
     500:	00243200 	eoreq	r3, r4, r0, lsl #4
     504:	0081ac16 	addeq	sl, r1, r6, lsl ip
     508:	0005b000 	andeq	fp, r5, r0
     50c:	50011400 	andpl	r1, r1, r0, lsl #8
     510:	00007502 	andeq	r7, r0, r2, lsl #10
     514:	1b040800 	blne	10251c <__bss_end__+0xf7ec4>
     518:	08000005 	stmdaeq	r0, {r0, r2}
     51c:	00004f04 	andeq	r4, r0, r4, lsl #30
     520:	00b41800 	adcseq	r1, r4, r0, lsl #16
     524:	05310000 	ldreq	r0, [r1, #-0]!
     528:	2c190000 	ldccs	0, cr0, [r9], {-0}
     52c:	0f000000 	svceq	0x00000000
     530:	05210900 	streq	r0, [r1, #-2304]!	; 0xfffff700
     534:	491f0000 	ldmdbmi	pc, {}	; <UNPREDICTABLE>
     538:	02000000 	andeq	r0, r0, #0, 0
     53c:	00fc0b0c 	rscseq	r0, ip, ip, lsl #22
     540:	6c030000 	stcvs	0, cr0, [r3], {-0}
     544:	20000005 	andcs	r0, r0, r5
     548:	00000016 	andeq	r0, r0, r6, lsl r0
     54c:	a7220c02 	strge	r0, [r2, -r2, lsl #24]!
     550:	20000000 	andcs	r0, r0, r0
     554:	00000054 	andeq	r0, r0, r4, asr r0
     558:	a7340c02 	ldrge	r0, [r4, -r2, lsl #24]!
     55c:	20000000 	andcs	r0, r0, r0
     560:	00000007 	andeq	r0, r0, r7
     564:	2c430c02 	mcrrcs	12, 0, r0, r3, cr2
     568:	00000000 	andeq	r0, r0, r0
     56c:	00043f21 	andeq	r3, r4, r1, lsr #30
     570:	00043f00 	andeq	r3, r4, r0, lsl #30
     574:	06280300 	strteq	r0, [r8], -r0, lsl #6
     578:	00002921 	andeq	r2, r0, r1, lsr #18
     57c:	00002900 	andeq	r2, r0, r0, lsl #18
     580:	066e0300 	strbteq	r0, [lr], -r0, lsl #6
     584:	109e1222 	addsne	r1, lr, r2, lsr #4
     588:	74736574 	ldrbtvc	r6, [r3], #-1396	; 0xfffffa8c
     58c:	6c6c615f 	stfvse	f6, [ip], #-380	; 0xfffffe84
     590:	665f636f 	ldrbvs	r6, [pc], -pc, ror #6
     594:	00656572 	rsbeq	r6, r5, r2, ror r5
     598:	0000fb21 	andeq	pc, r0, r1, lsr #22
     59c:	0000fb00 	andeq	pc, r0, r0, lsl #22
     5a0:	08320500 	ldmdaeq	r2!, {r8, sl}
     5a4:	0001cc21 	andeq	ip, r1, r1, lsr #24
     5a8:	0001cc00 	andeq	ip, r1, r0, lsl #24
     5ac:	061d0300 	ldreq	r0, [sp], -r0, lsl #6
     5b0:	00000021 	andeq	r0, r0, r1, lsr #32
     5b4:	00000000 	andeq	r0, r0, r0
     5b8:	07330500 	ldreq	r0, [r3, -r0, lsl #10]!
     5bc:	0002c200 	andeq	ip, r2, r0, lsl #4
     5c0:	ed000400 	cfstrs	mvf0, [r0, #-0]
     5c4:	04000001 	streq	r0, [r0], #-1
     5c8:	00011701 	andeq	r1, r1, r1, lsl #14
     5cc:	02030c00 	andeq	r0, r3, #0, 24
     5d0:	00cc0000 	sbceq	r0, ip, r0
     5d4:	826c0000 	rsbhi	r0, ip, #0, 0
     5d8:	01ac0000 			; <UNDEFINED> instruction: 0x01ac0000
     5dc:	02f40000 	rscseq	r0, r4, #0, 0
     5e0:	04020000 	streq	r0, [r2], #-0
     5e4:	746e6905 	strbtvc	r6, [lr], #-2309	; 0xfffff6fb
     5e8:	07040300 	streq	r0, [r4, -r0, lsl #6]
     5ec:	0000008d 	andeq	r0, r0, sp, lsl #1
     5f0:	1d060103 	stfnes	f0, [r6, #-12]
     5f4:	03000000 	movweq	r0, #0
     5f8:	01030502 	tsteq	r3, r2, lsl #10
     5fc:	04030000 	streq	r0, [r3], #-0
     600:	0000b705 	andeq	fp, r0, r5, lsl #14
     604:	05080300 	streq	r0, [r8, #-768]	; 0xfffffd00
     608:	000000b2 	strheq	r0, [r0], -r2
     60c:	1b080103 	blne	200a20 <__bss_end__+0x1f63c8>
     610:	03000000 	movweq	r0, #0
     614:	00360702 	eorseq	r0, r6, r2, lsl #14
     618:	04030000 	streq	r0, [r3], #-0
     61c:	00008807 	andeq	r8, r0, r7, lsl #16
     620:	07080300 	streq	r0, [r8, -r0, lsl #6]
     624:	00000083 	andeq	r0, r0, r3, lsl #1
     628:	00002504 	andeq	r2, r0, r4, lsl #10
     62c:	00007a00 	andeq	r7, r0, r0, lsl #20
     630:	00250500 	eoreq	r0, r5, r0, lsl #10
     634:	06000000 	streq	r0, [r0], -r0
     638:	000000c0 	andeq	r0, r0, r0, asr #1
     63c:	860e1c02 	strhi	r1, [lr], -r2, lsl #24
     640:	07000000 	streq	r0, [r0, -r0]
     644:	00006b04 	andeq	r6, r0, r4, lsl #22
     648:	00250400 	eoreq	r0, r5, r0, lsl #8
     64c:	009b0000 	addseq	r0, fp, r0
     650:	9b050000 	blls	140658 <__bss_end__+0x136000>
     654:	00000000 	andeq	r0, r0, r0
     658:	00a80407 	adceq	r0, r8, r7, lsl #8
     65c:	01030000 	mrseq	r0, (UNDEF: 3)
     660:	00002408 	andeq	r2, r0, r8, lsl #8
     664:	00a10800 	adceq	r0, r1, r0, lsl #16
     668:	b6060000 	strlt	r0, [r6], -r0
     66c:	02000004 	andeq	r0, r0, #4, 0
     670:	00b90e21 	adcseq	r0, r9, r1, lsr #28
     674:	04070000 	streq	r0, [r7], #-0
     678:	0000008c 	andeq	r0, r0, ip, lsl #1
     67c:	0001e809 	andeq	lr, r1, r9, lsl #16
     680:	05010800 	streq	r0, [r1, #-2048]	; 0xfffff800
     684:	0000ec07 	andeq	lr, r0, r7, lsl #24
     688:	00640a00 	rsbeq	r0, r4, r0, lsl #20
     68c:	ec090701 	stc	7, cr0, [r9], {1}
     690:	0a000000 	beq	698 <__code_start__-0x7968>
     694:	08010070 	stmdaeq	r1, {r4, r5, r6}
     698:	0000f308 	andeq	pc, r0, r8, lsl #6
     69c:	70660a00 	rsbvc	r0, r6, r0, lsl #20
     6a0:	09090100 	stmdbeq	r9, {r8}
     6a4:	000000f6 	strdeq	r0, [r0], -r6
     6a8:	04080300 	streq	r0, [r8], #-768	; 0xfffffd00
     6ac:	0000020f 	andeq	r0, r0, pc, lsl #4
     6b0:	070c040b 	streq	r0, [ip, -fp, lsl #8]
     6b4:	0000f504 	andeq	pc, r0, r4, lsl #10
     6b8:	01080d00 	tsteq	r8, r0, lsl #26
     6bc:	0120020e 			; <UNDEFINED> instruction: 0x0120020e
     6c0:	700e0000 	andvc	r0, lr, r0
     6c4:	01007274 	tsteq	r0, r4, ror r2
     6c8:	01421110 	cmpeq	r2, r0, lsl r1
     6cc:	0f000000 	svceq	0x00000000
     6d0:	00000233 	andeq	r0, r0, r3, lsr r2
     6d4:	2c0c1101 	stfcss	f1, [ip], {1}
     6d8:	04000000 	streq	r0, [r0], #-0
     6dc:	01db0900 	bicseq	r0, fp, r0, lsl #18
     6e0:	01080000 	mrseq	r0, (UNDEF: 8)
     6e4:	01420f0c 	cmpeq	r2, ip, lsl #30
     6e8:	730a0000 	movwvc	r0, #40960	; 0xa000
     6ec:	04120100 	ldreq	r0, [r2], #-256	; 0xffffff00
     6f0:	000000fc 	strdeq	r0, [r0], -ip
     6f4:	0100780a 	tsteq	r0, sl, lsl #16
     6f8:	00bf0e13 	adcseq	r0, pc, r3, lsl lr	; <UNPREDICTABLE>
     6fc:	07000000 	streq	r0, [r0, -r0]
     700:	00012004 	andeq	r2, r1, r4
     704:	02381000 	eorseq	r1, r8, #0, 0
     708:	14010000 	strne	r0, [r1], #-0
     70c:	00012003 	andeq	r2, r1, r3
     710:	02161100 	andseq	r1, r6, #0
     714:	18010000 	stmdane	r1, {}	; <UNPREDICTABLE>
     718:	0001480f 	andeq	r4, r1, pc, lsl #16
     71c:	48030500 	stmdami	r3, {r8, sl}
     720:	110000a2 	smlatbne	r0, r2, r0, r0
     724:	000001f6 	strdeq	r0, [r0], -r6
     728:	78101901 	ldmdavc	r0, {r0, r8, fp, ip}
     72c:	05000001 	streq	r0, [r0, #-1]
     730:	00a24003 	adceq	r4, r2, r3
     734:	48040700 	stmdami	r4, {r8, r9, sl}
     738:	12000001 	andne	r0, r0, #1, 0
     73c:	000001ee 	andeq	r0, r0, lr, ror #3
     740:	6c065201 	sfmvs	f5, 4, [r6], {1}
     744:	bc000082 	stclt	0, cr0, [r0], {130}	; 0x82
     748:	01000000 	mrseq	r0, (UNDEF: 0)
     74c:	0001c79c 	muleq	r1, ip, r7
     750:	70611300 	rsbvc	r1, r1, r0, lsl #6
     754:	14520100 	ldrbne	r0, [r2], #-256	; 0xffffff00
     758:	000000f3 	strdeq	r0, [r0], -r3
     75c:	62145001 	andsvs	r5, r4, #1, 0
     760:	54010070 	strpl	r0, [r1], #-112	; 0xffffff90
     764:	0001780a 	andeq	r7, r1, sl, lsl #16
     768:	00026700 	andeq	r6, r2, r0, lsl #14
     76c:	00025f00 	andeq	r5, r2, r0, lsl #30
     770:	00701400 	rsbseq	r1, r0, r0, lsl #8
     774:	780f5401 	stmdavc	pc, {r0, sl, ip, lr}	; <UNPREDICTABLE>
     778:	a3000001 	movwge	r0, #1
     77c:	9f000002 	svcls	0x00000002
     780:	00000002 	andeq	r0, r0, r2
     784:	00022915 	andeq	r2, r2, r5, lsl r9
     788:	072a0100 	streq	r0, [sl, -r0, lsl #2]!
     78c:	000000f3 	strdeq	r0, [r0], -r3
     790:	0000836c 	andeq	r8, r0, ip, ror #6
     794:	000000ac 	andeq	r0, r0, ip, lsr #1
     798:	02409c01 	subeq	r9, r0, #256	; 0x100
     79c:	5e160000 	cdppl	0, 1, cr0, cr6, cr0, {0}
     7a0:	01000002 	tsteq	r0, r2
     7a4:	002c1a2a 	eoreq	r1, ip, sl, lsr #20
     7a8:	02c90000 	sbceq	r0, r9, #0, 0
     7ac:	02c10000 	sbceq	r0, r1, #0, 0
     7b0:	70140000 	andsvc	r0, r4, r0
     7b4:	0a2c0100 	beq	b00bbc <__bss_end__+0xaf6564>
     7b8:	00000178 	andeq	r0, r0, r8, ror r1
     7bc:	00000311 	andeq	r0, r0, r1, lsl r3
     7c0:	00000303 	andeq	r0, r0, r3, lsl #6
     7c4:	0001e217 	andeq	lr, r1, r7, lsl r2
     7c8:	0e2c0100 	sufeqe	f0, f4, f0
     7cc:	00000178 	andeq	r0, r0, r8, ror r1
     7d0:	00000373 	andeq	r0, r0, r3, ror r3
     7d4:	00000369 	andeq	r0, r0, r9, ror #6
     7d8:	0001fc17 	andeq	pc, r1, r7, lsl ip	; <UNPREDICTABLE>
     7dc:	0b2d0100 	bleq	b40be4 <__bss_end__+0xb3658c>
     7e0:	0000002c 	andeq	r0, r0, ip, lsr #32
     7e4:	000003b9 			; <UNDEFINED> instruction: 0x000003b9
     7e8:	000003b7 			; <UNDEFINED> instruction: 0x000003b7
     7ec:	00840818 	addeq	r0, r4, r8, lsl r8
     7f0:	00024000 	andeq	r4, r2, r0
     7f4:	50011900 	andpl	r1, r1, r0, lsl #18
     7f8:	00007402 	andeq	r7, r0, r2, lsl #8
     7fc:	02201a00 	eoreq	r1, r0, #0, 20
     800:	1c010000 	stcne	0, cr0, [r1], {-0}
     804:	00017810 	andeq	r7, r1, r0, lsl r8
     808:	00832800 	addeq	r2, r3, r0, lsl #16
     80c:	00004400 	andeq	r4, r0, r0, lsl #8
     810:	b39c0100 	orrslt	r0, ip, #0
     814:	1b000002 	blne	824 <__code_start__-0x77dc>
     818:	0100756e 	tsteq	r0, lr, ror #10
     81c:	002c221c 	eoreq	r2, ip, ip, lsl r2
     820:	03d00000 	bicseq	r0, r0, #0, 0
     824:	03cc0000 	biceq	r0, ip, #0, 0
     828:	63140000 	tstvs	r4, #0, 0
     82c:	20010070 	andcs	r0, r1, r0, ror r0
     830:	0002b308 	andeq	fp, r2, r8, lsl #6
     834:	0003f400 	andeq	pc, r3, r0, lsl #8
     838:	0003ee00 	andeq	lr, r3, r0, lsl #28
     83c:	70751400 	rsbsvc	r1, r5, r0, lsl #8
     840:	0a230100 	beq	8c0c48 <__bss_end__+0x8b65f0>
     844:	00000178 	andeq	r0, r0, r8, ror r1
     848:	00000423 	andeq	r0, r0, r3, lsr #8
     84c:	0000041f 	andeq	r0, r0, pc, lsl r4
     850:	0083401c 	addeq	r4, r3, ip, lsl r0
     854:	0002b900 	andeq	fp, r2, r0, lsl #18
     858:	0002a900 	andeq	sl, r2, r0, lsl #18
     85c:	50011900 	andpl	r1, r1, r0, lsl #18
     860:	33007404 	movwcc	r7, #1028	; 0x404
     864:	541d0024 	ldrpl	r0, [sp], #-36	; 0xffffffdc
     868:	7e000083 	cdpvc	0, 0, cr0, cr0, cr3, {4}
     86c:	00000001 	andeq	r0, r0, r1
     870:	00a10407 	adceq	r0, r1, r7, lsl #8
     874:	1b1e0000 	blne	78087c <__bss_end__+0x776224>
     878:	1b000002 	blne	888 <__code_start__-0x7778>
     87c:	03000002 	movweq	r0, #2
     880:	0a000b1a 	beq	34f0 <__code_start__-0x4b10>
     884:	04000001 	streq	r0, [r0], #-1
     888:	0003c400 	andeq	ip, r3, r0, lsl #8
     88c:	17010400 	strne	r0, [r1, -r0, lsl #8]
     890:	0c000001 	stceq	0, cr0, [r0], {1}
     894:	00000251 	andeq	r0, r0, r1, asr r2
     898:	000000cc 	andeq	r0, r0, ip, asr #1
     89c:	00008418 	andeq	r8, r0, r8, lsl r4
     8a0:	0000000c 	andeq	r0, r0, ip
     8a4:	0000051f 	andeq	r0, r0, pc, lsl r5
     8a8:	69050402 	stmdbvs	r5, {r1, sl}
     8ac:	0300746e 	movweq	r7, #1134	; 0x46e
     8b0:	008d0704 	addeq	r0, sp, r4, lsl #14
     8b4:	01030000 	mrseq	r0, (UNDEF: 3)
     8b8:	00001d06 	andeq	r1, r0, r6, lsl #26
     8bc:	05020300 	streq	r0, [r2, #-768]	; 0xfffffd00
     8c0:	00000103 	andeq	r0, r0, r3, lsl #2
     8c4:	b7050403 	strlt	r0, [r5, -r3, lsl #8]
     8c8:	03000000 	movweq	r0, #0
     8cc:	00b20508 	adcseq	r0, r2, r8, lsl #10
     8d0:	01030000 	mrseq	r0, (UNDEF: 3)
     8d4:	00001b08 	andeq	r1, r0, r8, lsl #22
     8d8:	07020300 	streq	r0, [r2, -r0, lsl #6]
     8dc:	00000036 	andeq	r0, r0, r6, lsr r0
     8e0:	88070403 	stmdahi	r7, {r0, r1, sl}
     8e4:	03000000 	movweq	r0, #0
     8e8:	00830708 	addeq	r0, r3, r8, lsl #14
     8ec:	25040000 	strcs	r0, [r4, #-0]
     8f0:	7a000000 	bvc	8f8 <__code_start__-0x7708>
     8f4:	05000000 	streq	r0, [r0, #-0]
     8f8:	00000025 	andeq	r0, r0, r5, lsr #32
     8fc:	00c00600 	sbceq	r0, r0, r0, lsl #12
     900:	1c020000 	stcne	0, cr0, [r2], {-0}
     904:	0000860e 	andeq	r8, r0, lr, lsl #12
     908:	6b040700 	blvs	102510 <__bss_end__+0xf7eb8>
     90c:	04000000 	streq	r0, [r0], #-0
     910:	00000025 	andeq	r0, r0, r5, lsr #32
     914:	0000009b 	muleq	r0, fp, r0
     918:	00009b05 	andeq	r9, r0, r5, lsl #22
     91c:	04070000 	streq	r0, [r7], #-0
     920:	000000a8 	andeq	r0, r0, r8, lsr #1
     924:	24080103 	strcs	r0, [r8], #-259	; 0xfffffefd
     928:	08000000 	stmdaeq	r0, {}	; <UNPREDICTABLE>
     92c:	000000a1 	andeq	r0, r0, r1, lsr #1
     930:	0004b606 	andeq	fp, r4, r6, lsl #12
     934:	0e210200 	cdpeq	2, 2, cr0, cr1, cr0, {0}
     938:	000000b9 	strheq	r0, [r0], -r9
     93c:	008c0407 	addeq	r0, ip, r7, lsl #8
     940:	1b090000 	blne	240948 <__bss_end__+0x2362f0>
     944:	01000002 	tsteq	r0, r2
     948:	00ff0704 	rscseq	r0, pc, r4, lsl #14
     94c:	84180000 	ldrhi	r0, [r8], #-0
     950:	000c0000 	andeq	r0, ip, r0
     954:	9c010000 	stcls	0, cr0, [r1], {-0}
     958:	000000ff 	strdeq	r0, [r0], -pc	; <UNPREDICTABLE>
     95c:	00023f0a 	andeq	r3, r2, sl, lsl #30
     960:	11040100 	mrsne	r0, (UNDEF: 20)
     964:	00000041 	andeq	r0, r0, r1, asr #32
     968:	00000447 	andeq	r0, r0, r7, asr #8
     96c:	00000443 	andeq	r0, r0, r3, asr #8
     970:	0084200b 	addeq	r2, r4, fp
     974:	00010100 	andeq	r0, r1, r0, lsl #2
     978:	50010c00 	andpl	r0, r1, r0, lsl #24
     97c:	5001f303 	andpl	pc, r1, r3, lsl #6
     980:	040d0000 	streq	r0, [sp], #-0
     984:	0002490e 	andeq	r4, r2, lr, lsl #18
     988:	00024900 	andeq	r4, r2, r0, lsl #18
     98c:	077b0200 	ldrbeq	r0, [fp, -r0, lsl #4]!
     990:	00073300 	andeq	r3, r7, r0, lsl #6
     994:	86000400 	strhi	r0, [r0], -r0, lsl #8
     998:	04000004 	streq	r0, [r0], #-4
     99c:	00011701 	andeq	r1, r1, r1, lsl #14
     9a0:	00720c00 	rsbseq	r0, r2, r0, lsl #24
     9a4:	00cc0000 	sbceq	r0, ip, r0
     9a8:	84240000 	strthi	r0, [r4], #-0
     9ac:	02fc0000 	rscseq	r0, ip, #0, 0
     9b0:	05980000 	ldreq	r0, [r8]
     9b4:	04020000 	streq	r0, [r2], #-0
     9b8:	746e6905 	strbtvc	r6, [lr], #-2309	; 0xfffff6fb
     9bc:	07040300 	streq	r0, [r4, -r0, lsl #6]
     9c0:	0000008d 	andeq	r0, r0, sp, lsl #1
     9c4:	1d060103 	stfnes	f0, [r6, #-12]
     9c8:	03000000 	movweq	r0, #0
     9cc:	01030502 	tsteq	r3, r2, lsl #10
     9d0:	04030000 	streq	r0, [r3], #-0
     9d4:	0000b705 	andeq	fp, r0, r5, lsl #14
     9d8:	05080300 	streq	r0, [r8, #-768]	; 0xfffffd00
     9dc:	000000b2 	strheq	r0, [r0], -r2
     9e0:	1b080103 	blne	200df4 <__bss_end__+0x1f679c>
     9e4:	04000000 	streq	r0, [r0], #-0
     9e8:	0000030c 	andeq	r0, r0, ip, lsl #6
     9ec:	62193103 	andsvs	r3, r9, #-1073741824	; 0xc0000000
     9f0:	03000000 	movweq	r0, #0
     9f4:	00360702 	eorseq	r0, r6, r2, lsl #14
     9f8:	15040000 	strne	r0, [r4, #-0]
     9fc:	03000003 	movweq	r0, #3
     a00:	00751934 	rsbseq	r1, r5, r4, lsr r9
     a04:	04030000 	streq	r0, [r3], #-0
     a08:	00008807 	andeq	r8, r0, r7, lsl #16
     a0c:	07080300 	streq	r0, [r8, -r0, lsl #6]
     a10:	00000083 	andeq	r0, r0, r3, lsl #1
     a14:	00002505 	andeq	r2, r0, r5, lsl #10
     a18:	00009200 	andeq	r9, r0, r0, lsl #4
     a1c:	00250600 	eoreq	r0, r5, r0, lsl #12
     a20:	07000000 	streq	r0, [r0, -r0]
     a24:	000000c0 	andeq	r0, r0, r0, asr #1
     a28:	9e0e1c04 	cdpls	12, 0, cr1, cr14, cr4, {0}
     a2c:	08000000 	stmdaeq	r0, {}	; <UNPREDICTABLE>
     a30:	00008304 	andeq	r8, r0, r4, lsl #6
     a34:	00250500 	eoreq	r0, r5, r0, lsl #10
     a38:	00b30000 	adcseq	r0, r3, r0
     a3c:	b3060000 	movwlt	r0, #24576	; 0x6000
     a40:	00000000 	andeq	r0, r0, r0
     a44:	00c00408 	sbceq	r0, r0, r8, lsl #8
     a48:	01030000 	mrseq	r0, (UNDEF: 3)
     a4c:	00002408 	andeq	r2, r0, r8, lsl #8
     a50:	00b90900 	adcseq	r0, r9, r0, lsl #18
     a54:	b6070000 	strlt	r0, [r7], -r0
     a58:	04000004 	streq	r0, [r0], #-4
     a5c:	00d10e21 	sbcseq	r0, r1, r1, lsr #28
     a60:	04080000 	streq	r0, [r8], #-0
     a64:	000000a4 	andeq	r0, r0, r4, lsr #1
     a68:	04050c0a 	streq	r0, [r5], #-3082	; 0xfffff3f6
     a6c:	00010809 	andeq	r0, r1, r9, lsl #16
     a70:	00160b00 	andseq	r0, r6, r0, lsl #22
     a74:	06050000 	streq	r0, [r5], -r0
     a78:	0000b311 	andeq	fp, r0, r1, lsl r3
     a7c:	540b0000 	strpl	r0, [fp], #-0
     a80:	05000000 	streq	r0, [r0, #-0]
     a84:	00b31107 	adcseq	r1, r3, r7, lsl #2
     a88:	0b040000 	bleq	100a90 <__bss_end__+0xf6438>
     a8c:	00000007 	andeq	r0, r0, r7
     a90:	2c0e0805 	stccs	8, cr0, [lr], {5}
     a94:	08000000 	stmdaeq	r0, {}	; <UNPREDICTABLE>
     a98:	010d0400 	tsteq	sp, r0, lsl #8
     a9c:	09050000 	stmdbeq	r5, {}	; <UNPREDICTABLE>
     aa0:	0000d703 	andeq	sp, r0, r3, lsl #14
     aa4:	01070c00 	tsteq	r7, r0, lsl #24
     aa8:	0000004f 	andeq	r0, r0, pc, asr #32
     aac:	2f0e0902 	svccs	0x000e0902
     ab0:	0d000001 	stceq	0, cr0, [r0, #-4]
     ab4:	00000276 	andeq	r0, r0, r6, ror r2
     ab8:	02a20d0b 	adceq	r0, r2, #704	; 0x2c0
     abc:	000c0000 	andeq	r0, ip, r0
     ac0:	0002b50e 	andeq	fp, r2, lr, lsl #10
     ac4:	0c022400 	cfstrseq	mvf2, [r2], {-0}
     ac8:	00019810 	andeq	r9, r1, r0, lsl r8
     acc:	026b0b00 	rsbeq	r0, fp, #0, 22
     ad0:	0d020000 	stceq	0, cr0, [r2, #-0]
     ad4:	00019814 	andeq	r9, r1, r4, lsl r8
     ad8:	a80b0000 	stmdage	fp, {}	; <UNPREDICTABLE>
     adc:	02000002 	andeq	r0, r0, #2, 0
     ae0:	00690e0e 	rsbeq	r0, r9, lr, lsl #28
     ae4:	0b040000 	bleq	100aec <__bss_end__+0xf6494>
     ae8:	00000270 	andeq	r0, r0, r0, ror r2
     aec:	690e0f02 	stmdbvs	lr, {r1, r8, r9, sl, fp}
     af0:	08000000 	stmdaeq	r0, {}	; <UNPREDICTABLE>
     af4:	0002db0b 	andeq	sp, r2, fp, lsl #22
     af8:	0f110200 	svceq	0x00110200
     afc:	00000108 	andeq	r0, r0, r8, lsl #2
     b00:	032a0b0c 			; <UNDEFINED> instruction: 0x032a0b0c
     b04:	14020000 	strne	r0, [r2], #-0
     b08:	0000690e 	andeq	r6, r0, lr, lsl #18
     b0c:	3a0b1800 	bcc	2c6b14 <__bss_end__+0x2bc4bc>
     b10:	02000003 	andeq	r0, r0, #3, 0
     b14:	00690e15 	rsbeq	r0, r9, r5, lsl lr
     b18:	0b1c0000 	bleq	700b20 <__bss_end__+0x6f64c8>
     b1c:	0000029d 	muleq	r0, sp, r2
     b20:	560e1702 	strpl	r1, [lr], -r2, lsl #14
     b24:	20000000 	andcs	r0, r0, r0
     b28:	2f040800 	svccs	0x00040800
     b2c:	04000001 	streq	r0, [r0], #-1
     b30:	00000265 	andeq	r0, r0, r5, ror #4
     b34:	2f031802 	svccs	0x00031802
     b38:	0f000001 	svceq	0x00000001
     b3c:	000002c3 	andeq	r0, r0, r3, asr #5
     b40:	bc0f0801 	stclt	8, cr0, [pc], {1}
     b44:	05000001 	streq	r0, [r0, #-1]
     b48:	00a25003 	adceq	r5, r2, r3
     b4c:	9e040800 	cdpls	8, 0, cr0, cr4, cr0, {0}
     b50:	10000001 	andne	r0, r0, r1
     b54:	000000fb 	strdeq	r0, [r0], -fp
     b58:	88086701 	stmdahi	r8, {r0, r8, r9, sl, sp, lr}
     b5c:	90000002 	andls	r0, r0, r2
     b60:	90000086 	andls	r0, r0, r6, lsl #1
     b64:	01000000 	mrseq	r0, (UNDEF: 0)
     b68:	0002889c 	muleq	r2, ip, r8
     b6c:	025e1100 	subseq	r1, lr, #0
     b70:	67010000 	strvs	r0, [r1, -r0]
     b74:	00002c1a 	andeq	r2, r0, sl, lsl ip
     b78:	00046e00 	andeq	r6, r4, r0, lsl #28
     b7c:	00046800 	andeq	r6, r4, r0, lsl #16
     b80:	006c1200 	rsbeq	r1, ip, r0, lsl #4
     b84:	082c6701 	stmdaeq	ip!, {r0, r8, r9, sl, sp, lr}
     b88:	02000001 	andeq	r0, r0, #1, 0
     b8c:	68136491 	ldmdavs	r3, {r0, r4, r7, sl, sp, lr}
     b90:	0c690100 	stfeqe	f0, [r9], #-0
     b94:	000001bc 			; <UNDEFINED> instruction: 0x000001bc
     b98:	000004a0 	andeq	r0, r0, r0, lsr #9
     b9c:	0000049a 	muleq	r0, sl, r4
     ba0:	0086ac14 	addeq	sl, r6, r4, lsl ip
     ba4:	0006fa00 	andeq	pc, r6, r0, lsl #20
     ba8:	00022300 	andeq	r2, r2, r0, lsl #6
     bac:	50011500 	andpl	r1, r1, r0, lsl #10
     bb0:	00247602 	eoreq	r7, r4, r2, lsl #12
     bb4:	0086bc14 	addeq	fp, r6, r4, lsl ip
     bb8:	00070600 	andeq	r0, r7, r0, lsl #12
     bbc:	00024200 	andeq	r4, r2, r0, lsl #4
     bc0:	50011500 	andpl	r1, r1, r0, lsl #10
     bc4:	15007402 	strne	r7, [r0, #-1026]	; 0xfffffbfe
     bc8:	30015101 	andcc	r5, r1, r1, lsl #2
     bcc:	02520115 	subseq	r0, r2, #1073741829	; 0x40000005
     bd0:	14002408 	strne	r2, [r0], #-1032	; 0xfffffbf8
     bd4:	000086e8 	andeq	r8, r0, r8, ror #13
     bd8:	00000712 	andeq	r0, r0, r2, lsl r7
     bdc:	0000026e 	andeq	r0, r0, lr, ror #4
     be0:	05500115 	ldrbeq	r0, [r0, #-277]	; 0xfffffeeb
     be4:	009e2403 	addseq	r2, lr, r3, lsl #8
     be8:	51011500 	tstpl	r1, r0, lsl #10
     bec:	06007503 	streq	r7, [r0], -r3, lsl #10
     bf0:	03520115 	cmpeq	r2, #1073741829	; 0x40000005
     bf4:	15066091 	strne	r6, [r6, #-145]	; 0xffffff6f
     bf8:	91035301 	tstls	r3, r1, lsl #6
     bfc:	16000664 	strne	r0, [r0], -r4, ror #12
     c00:	000086f8 	strdeq	r8, [r0], -r8	; <UNPREDICTABLE>
     c04:	00000712 	andeq	r0, r0, r2, lsl r7
     c08:	05500115 	ldrbeq	r0, [r0, #-277]	; 0xfffffeeb
     c0c:	009e9803 	addseq	r9, lr, r3, lsl #16
     c10:	51011500 	tstpl	r1, r0, lsl #10
     c14:	00007502 	andeq	r7, r0, r2, lsl #10
     c18:	18041700 	stmdane	r4, {r8, r9, sl, ip}
     c1c:	00000000 	andeq	r0, r0, r0
     c20:	a4065401 	strge	r5, [r6], #-1025	; 0xfffffbff
     c24:	ec000085 	stc	0, cr0, [r0], {133}	; 0x85
     c28:	01000000 	mrseq	r0, (UNDEF: 0)
     c2c:	0003f99c 	muleq	r3, ip, r9
     c30:	09611100 	stmdbeq	r1!, {r8, ip}^
     c34:	54010000 	strpl	r0, [r1], #-0
     c38:	00028814 	andeq	r8, r2, r4, lsl r8
     c3c:	0004d100 	andeq	sp, r4, r0, lsl #2
     c40:	0004cd00 	andeq	ip, r4, r0, lsl #26
     c44:	006c1200 	rsbeq	r1, ip, r0, lsl #4
     c48:	08245401 	stmdaeq	r4!, {r0, sl, ip, lr}
     c4c:	02000001 	andeq	r0, r0, #1, 0
     c50:	68135c91 	ldmdavs	r3, {r0, r4, r7, sl, fp, ip, lr}
     c54:	0c560100 	ldfeqe	f0, [r6], {-0}
     c58:	000001bc 			; <UNDEFINED> instruction: 0x000001bc
     c5c:	000004f9 	strdeq	r0, [r0], -r9
     c60:	000004ef 	andeq	r0, r0, pc, ror #9
     c64:	00005e19 	andeq	r5, r0, r9, lsl lr
     c68:	00040900 	andeq	r0, r4, r0, lsl #18
     c6c:	b4030500 	strlt	r0, [r3], #-1280	; 0xfffffb00
     c70:	1400009e 	strne	r0, [r0], #-158	; 0xffffff62
     c74:	000085d8 	ldrdeq	r8, [r0], -r8	; <UNPREDICTABLE>
     c78:	00000712 	andeq	r0, r0, r2, lsl r7
     c7c:	0000030b 	andeq	r0, r0, fp, lsl #6
     c80:	05500115 	ldrbeq	r0, [r0, #-277]	; 0xfffffeeb
     c84:	009e2403 	addseq	r2, lr, r3, lsl #8
     c88:	51011500 	tstpl	r1, r0, lsl #10
     c8c:	15007602 	strne	r7, [r0, #-1538]	; 0xfffff9fe
     c90:	77025201 	strvc	r5, [r2, -r1, lsl #4]
     c94:	53011500 	movwpl	r1, #5376	; 0x1500
     c98:	00007802 	andeq	r7, r0, r2, lsl #16
     c9c:	0085e414 	addeq	lr, r5, r4, lsl r4
     ca0:	00071200 	andeq	r1, r7, r0, lsl #4
     ca4:	00032800 	andeq	r2, r3, r0, lsl #16
     ca8:	50011500 	andpl	r1, r1, r0, lsl #10
     cac:	9e300305 	cdpls	3, 3, cr0, cr0, cr5, {0}
     cb0:	01150000 	tsteq	r5, r0
     cb4:	00740251 	rsbseq	r0, r4, r1, asr r2
     cb8:	86041400 	strhi	r1, [r4], -r0, lsl #8
     cbc:	052e0000 	streq	r0, [lr, #-0]!
     cc0:	033c0000 	teqeq	ip, #0, 0
     cc4:	01150000 	tsteq	r5, r0
     cc8:	00740250 	rsbseq	r0, r4, r0, asr r2
     ccc:	86181400 	ldrhi	r1, [r8], -r0, lsl #8
     cd0:	040e0000 	streq	r0, [lr], #-0
     cd4:	03590000 	cmpeq	r9, #0, 0
     cd8:	01150000 	tsteq	r5, r0
     cdc:	50030550 	andpl	r0, r3, r0, asr r5
     ce0:	150000a2 	strne	r0, [r0, #-162]	; 0xffffff5e
     ce4:	75025101 	strvc	r5, [r2, #-257]	; 0xfffffeff
     ce8:	20140000 	andscs	r0, r4, r0
     cec:	1e000086 	cdpne	0, 0, cr0, cr0, cr6, {4}
     cf0:	6d000007 	stcvs	0, cr0, [r0, #-28]	; 0xffffffe4
     cf4:	15000003 	strne	r0, [r0, #-3]
     cf8:	75025001 	strvc	r5, [r2, #-1]
     cfc:	3c140000 	ldccc	0, cr0, [r4], {-0}
     d00:	12000086 	andne	r0, r0, #134, 0	; 0x86
     d04:	96000007 	strls	r0, [r0], -r7
     d08:	15000003 	strne	r0, [r0, #-3]
     d0c:	03055001 	movweq	r5, #20481	; 0x5001
     d10:	00009e40 	andeq	r9, r0, r0, asr #28
     d14:	02510115 	subseq	r0, r1, #1073741829	; 0x40000005
     d18:	01150076 	tsteq	r5, r6, ror r0
     d1c:	00770252 	rsbseq	r0, r7, r2, asr r2
     d20:	02530115 	subseq	r0, r3, #1073741829	; 0x40000005
     d24:	14000078 	strne	r0, [r0], #-120	; 0xffffff88
     d28:	00008648 	andeq	r8, r0, r8, asr #12
     d2c:	00000712 	andeq	r0, r0, r2, lsl r7
     d30:	000003ad 	andeq	r0, r0, sp, lsr #7
     d34:	05500115 	ldrbeq	r0, [r0, #-277]	; 0xfffffeeb
     d38:	009e5803 	addseq	r5, lr, r3, lsl #16
     d3c:	4c1a0000 	ldcmi	0, cr0, [sl], {-0}
     d40:	2a000086 	bcs	f60 <__code_start__-0x70a0>
     d44:	14000007 	strne	r0, [r0], #-7
     d48:	00008668 	andeq	r8, r0, r8, ror #12
     d4c:	00000712 	andeq	r0, r0, r2, lsl r7
     d50:	000003ef 	andeq	r0, r0, pc, ror #7
     d54:	05500115 	ldrbeq	r0, [r0, #-277]	; 0xfffffeeb
     d58:	009d5803 	addseq	r5, sp, r3, lsl #16
     d5c:	51011500 	tstpl	r1, r0, lsl #10
     d60:	9dd80305 	ldclls	3, cr0, [r8, #20]
     d64:	01150000 	tsteq	r5, r0
     d68:	b4030552 	strlt	r0, [r3], #-1362	; 0xfffffaae
     d6c:	1500009e 	strne	r0, [r0, #-158]	; 0xffffff62
     d70:	08025301 	stmdaeq	r2, {r0, r8, r9, ip, lr}
     d74:	7d02155e 	cfstr32vc	mvfx1, [r2, #-376]	; 0xfffffe88
     d78:	80030500 	andhi	r0, r3, r0, lsl #10
     d7c:	0000009e 	muleq	r0, lr, r0
     d80:	00866c1a 	addeq	r6, r6, sl, lsl ip
     d84:	00072a00 	andeq	r2, r7, r0, lsl #20
     d88:	c01b0000 	andsgt	r0, fp, r0
     d8c:	09000000 	stmdbeq	r0, {}	; <UNPREDICTABLE>
     d90:	1c000004 	stcne	0, cr0, [r0], {4}
     d94:	0000002c 	andeq	r0, r0, ip, lsr #32
     d98:	f9090006 			; <UNDEFINED> instruction: 0xf9090006
     d9c:	1d000003 	stcne	0, cr0, [r0, #-12]
     da0:	000002e5 	andeq	r0, r0, r5, ror #5
     da4:	440d3b01 	strmi	r3, [sp], #-2817	; 0xfffff4ff
     da8:	a4000084 	strge	r0, [r0], #-132	; 0xffffff7c
     dac:	01000000 	mrseq	r0, (UNDEF: 0)
     db0:	0005139c 	muleq	r5, ip, r3
     db4:	006c1e00 	rsbeq	r1, ip, r0, lsl #28
     db8:	13213b01 			; <UNDEFINED> instruction: 0x13213b01
     dbc:	4a000005 	bmi	dd8 <__code_start__-0x7228>
     dc0:	3c000005 	stccc	0, cr0, [r0], {5}
     dc4:	1e000005 	cdpne	0, 0, cr0, cr0, cr5, {0}
     dc8:	3b010068 	blcc	40f70 <__bss_end__+0x36918>
     dcc:	0001bc2b 	andeq	fp, r1, fp, lsr #24
     dd0:	0005b400 	andeq	fp, r5, r0, lsl #8
     dd4:	0005a800 	andeq	sl, r5, r0, lsl #16
     dd8:	005e1900 	subseq	r1, lr, r0, lsl #18
     ddc:	05290000 	streq	r0, [r9, #-0]!
     de0:	03050000 	movweq	r0, #20480	; 0x5000
     de4:	00009ea8 	andeq	r9, r0, r8, lsr #29
     de8:	0003351f 	andeq	r3, r3, pc, lsl r5
     dec:	0c3e0100 	ldfeqs	f0, [lr], #-0
     df0:	000001bc 			; <UNDEFINED> instruction: 0x000001bc
     df4:	00000609 	andeq	r0, r0, r9, lsl #12
     df8:	00000601 	andeq	r0, r0, r1, lsl #12
     dfc:	01007013 	tsteq	r0, r3, lsl r0
     e00:	01bc0c46 			; <UNDEFINED> instruction: 0x01bc0c46
     e04:	06410000 	strbeq	r0, [r1], -r0
     e08:	063d0000 	ldrteq	r0, [sp], -r0
     e0c:	6c140000 	ldcvs	0, cr0, [r4], {-0}
     e10:	9b000084 	blls	1028 <__code_start__-0x6fd8>
     e14:	91000006 	tstls	r0, r6
     e18:	15000004 	strne	r0, [r0, #-4]
     e1c:	75025001 	strvc	r5, [r2, #-1]
     e20:	a8140000 	ldmdage	r4, {}	; <UNPREDICTABLE>
     e24:	12000084 	andne	r0, r0, #132, 0	; 0x84
     e28:	ca000007 	bgt	e4c <__code_start__-0x71b4>
     e2c:	15000004 	strne	r0, [r0, #-4]
     e30:	03055001 	movweq	r5, #20481	; 0x5001
     e34:	00009d58 	andeq	r9, r0, r8, asr sp
     e38:	05510115 	ldrbeq	r0, [r1, #-277]	; 0xfffffeeb
     e3c:	009dd803 	addseq	sp, sp, r3, lsl #16
     e40:	52011500 	andpl	r1, r1, #0, 10
     e44:	9ea80305 	cdpls	3, 10, cr0, cr8, cr5, {0}
     e48:	01150000 	tsteq	r5, r0
     e4c:	3d080253 	sfmcc	f0, 4, [r8, #-332]	; 0xfffffeb4
     e50:	007d0215 	rsbseq	r0, sp, r5, lsl r2
     e54:	9de40305 	stclls	3, cr0, [r4, #20]!
     e58:	1a000000 	bne	e60 <__code_start__-0x71a0>
     e5c:	000084ac 	andeq	r8, r0, ip, lsr #9
     e60:	0000072a 	andeq	r0, r0, sl, lsr #14
     e64:	0084d014 	addeq	sp, r4, r4, lsl r0
     e68:	00071200 	andeq	r1, r7, r0, lsl #4
     e6c:	00050900 	andeq	r0, r5, r0, lsl #18
     e70:	50011500 	andpl	r1, r1, r0, lsl #10
     e74:	9de80305 	stclls	3, cr0, [r8, #20]!
     e78:	01150000 	tsteq	r5, r0
     e7c:	d8030551 	stmdale	r3, {r0, r4, r6, r8, sl}
     e80:	1500009d 	strne	r0, [r0, #-157]	; 0xffffff63
     e84:	03055201 	movweq	r5, #20993	; 0x5201
     e88:	00009ea8 	andeq	r9, r0, r8, lsr #29
     e8c:	02530115 	subseq	r0, r3, #1073741829	; 0x40000005
     e90:	02155008 	andseq	r5, r5, #8, 0
     e94:	7402007d 	strvc	r0, [r2], #-125	; 0xffffff83
     e98:	d41a0000 	ldrle	r0, [sl], #-0
     e9c:	2a000084 	bcs	10b4 <__code_start__-0x6f4c>
     ea0:	00000007 	andeq	r0, r0, r7
     ea4:	01bc0408 			; <UNDEFINED> instruction: 0x01bc0408
     ea8:	c01b0000 	andsgt	r0, fp, r0
     eac:	29000000 	stmdbcs	r0, {}	; <UNPREDICTABLE>
     eb0:	1c000005 	stcne	0, cr0, [r0], {5}
     eb4:	0000002c 	andeq	r0, r0, ip, lsr #32
     eb8:	1909000b 	stmdbne	r9, {r0, r1, r3}
     ebc:	10000005 	andne	r0, r0, r5
     ec0:	0000028b 	andeq	r0, r0, fp, lsl #5
     ec4:	25052901 	strcs	r2, [r5, #-2305]	; 0xfffff6ff
     ec8:	44000000 	strmi	r0, [r0], #-0
     ecc:	60000085 	andvs	r0, r0, r5, lsl #1
     ed0:	01000000 	mrseq	r0, (UNDEF: 0)
     ed4:	0005cf9c 	muleq	r5, ip, pc	; <UNPREDICTABLE>
     ed8:	74701e00 	ldrbtvc	r1, [r0], #-3584	; 0xfffff200
     edc:	29010072 	stmdbcs	r1, {r1, r4, r5, r6}
     ee0:	0002881d 	andeq	r8, r2, sp, lsl r8
     ee4:	00066300 	andeq	r6, r6, r0, lsl #6
     ee8:	00065f00 	andeq	r5, r6, r0, lsl #30
     eec:	854c2000 	strbhi	r2, [ip, #-0]
     ef0:	004c0000 	subeq	r0, ip, r0
     ef4:	68130000 	ldmdavs	r3, {}	; <UNPREDICTABLE>
     ef8:	112c0100 			; <UNDEFINED> instruction: 0x112c0100
     efc:	000001bc 			; <UNDEFINED> instruction: 0x000001bc
     f00:	0000068d 	andeq	r0, r0, sp, lsl #13
     f04:	00000681 	andeq	r0, r0, r1, lsl #13
     f08:	0085501a 	addeq	r5, r5, sl, lsl r0
     f0c:	0006c800 	andeq	ip, r6, r0, lsl #16
     f10:	85681400 	strbhi	r1, [r8, #-1024]!	; 0xfffffc00
     f14:	05cf0000 	strbeq	r0, [pc]	; f1c <__code_start__-0x70e4>
     f18:	059a0000 	ldreq	r0, [sl]
     f1c:	01150000 	tsteq	r5, r0
     f20:	00740250 	rsbseq	r0, r4, r0, asr r2
     f24:	02510115 	subseq	r0, r1, #1073741829	; 0x40000005
     f28:	14000075 	strne	r0, [r0], #-117	; 0xffffff8b
     f2c:	00008578 	andeq	r8, r0, r8, ror r5
     f30:	0000069b 	muleq	r0, fp, r6
     f34:	000005ae 	andeq	r0, r0, lr, lsr #11
     f38:	02500115 	subseq	r0, r0, #1073741829	; 0x40000005
     f3c:	16000074 			; <UNDEFINED> instruction: 0x16000074
     f40:	00008590 	muleq	r0, r0, r5
     f44:	00000712 	andeq	r0, r0, r2, lsl r7
     f48:	05500115 	ldrbeq	r0, [r0, #-277]	; 0xfffffeeb
     f4c:	009e1403 	addseq	r1, lr, r3, lsl #8
     f50:	51011500 	tstpl	r1, r0, lsl #10
     f54:	15007502 	strne	r7, [r0, #-1282]	; 0xfffffafe
     f58:	74025201 	strvc	r5, [r2], #-513	; 0xfffffdff
     f5c:	00000000 	andeq	r0, r0, r0
     f60:	0002fc10 	andeq	pc, r2, r0, lsl ip	; <UNPREDICTABLE>
     f64:	0a240100 	beq	90136c <__bss_end__+0x8f6d14>
     f68:	0000002c 	andeq	r0, r0, ip, lsr #32
     f6c:	00008508 	andeq	r8, r0, r8, lsl #10
     f70:	0000003c 	andeq	r0, r0, ip, lsr r0
     f74:	060a9c01 	streq	r9, [sl], -r1, lsl #24
     f78:	681e0000 	ldmdavs	lr, {}	; <UNPREDICTABLE>
     f7c:	21240100 			; <UNDEFINED> instruction: 0x21240100
     f80:	000001bc 			; <UNDEFINED> instruction: 0x000001bc
     f84:	000006df 	ldrdeq	r0, [r0], -pc	; <UNPREDICTABLE>
     f88:	000006d7 	ldrdeq	r0, [r0], -r7
     f8c:	72747012 	rsbsvc	r7, r4, #18, 0
     f90:	2a240100 	bcs	901398 <__bss_end__+0x8f6d40>
     f94:	00000288 	andeq	r0, r0, r8, lsl #5
     f98:	10005101 	andne	r5, r0, r1, lsl #2
     f9c:	000002f1 	strdeq	r0, [r0], -r1
     fa0:	88071e01 	stmdahi	r7, {r0, r9, sl, fp, ip}
     fa4:	f0000002 			; <UNDEFINED> instruction: 0xf0000002
     fa8:	18000084 	stmdane	r0, {r2, r7}
     fac:	01000000 	mrseq	r0, (UNDEF: 0)
     fb0:	00066e9c 	muleq	r6, ip, lr
     fb4:	00681e00 	rsbeq	r1, r8, r0, lsl #28
     fb8:	bc191e01 	ldclt	14, cr1, [r9], {1}
     fbc:	1d000001 	stcne	0, cr0, [r0, #-4]
     fc0:	19000007 	stmdbne	r0, {r0, r1, r2}
     fc4:	21000007 	tstcs	r0, r7
     fc8:	000006de 	ldrdeq	r0, [r0], -lr
     fcc:	000084fc 	strdeq	r8, [r0], -ip
     fd0:	0084fc00 	addeq	pc, r4, r0, lsl #24
     fd4:	00000400 	andeq	r0, r0, r0, lsl #8
     fd8:	26200100 	strtcs	r0, [r0], -r0, lsl #2
     fdc:	0000065d 	andeq	r0, r0, sp, asr r6
     fe0:	0006ef22 	andeq	lr, r6, r2, lsr #30
     fe4:	00073d00 	andeq	r3, r7, r0, lsl #26
     fe8:	00073b00 	andeq	r3, r7, r0, lsl #22
     fec:	fc160000 	ldc2	0, cr0, [r6], {-0}
     ff0:	6e000084 	cdpvs	0, 0, cr0, cr0, cr4, {4}
     ff4:	15000006 	strne	r0, [r0, #-6]
     ff8:	74025001 	strvc	r5, [r2], #-1
     ffc:	10000000 	andne	r0, r0, r0
    1000:	0000027e 	andeq	r0, r0, lr, ror r2
    1004:	88071801 	stmdahi	r7, {r0, fp, ip}
    1008:	e8000002 	stmda	r0, {r1}
    100c:	08000084 	stmdaeq	r0, {r2, r7}
    1010:	01000000 	mrseq	r0, (UNDEF: 0)
    1014:	00069b9c 	muleq	r6, ip, fp
    1018:	00681e00 	rsbeq	r1, r8, r0, lsl #28
    101c:	bc1b1801 	ldclt	8, cr1, [fp], {1}
    1020:	54000001 	strpl	r0, [r0], #-1
    1024:	50000007 	andpl	r0, r0, r7
    1028:	00000007 	andeq	r0, r0, r7
    102c:	00031e10 	andeq	r1, r3, r0, lsl lr
    1030:	08110100 	ldmdaeq	r1, {r8}
    1034:	000001bc 			; <UNDEFINED> instruction: 0x000001bc
    1038:	00008434 	andeq	r8, r0, r4, lsr r4
    103c:	00000010 	andeq	r0, r0, r0, lsl r0
    1040:	06c89c01 	strbeq	r9, [r8], r1, lsl #24
    1044:	701e0000 	andsvc	r0, lr, r0
    1048:	1b110100 	blne	441450 <__bss_end__+0x436df8>
    104c:	000001bc 			; <UNDEFINED> instruction: 0x000001bc
    1050:	00000778 	andeq	r0, r0, r8, ror r7
    1054:	00000774 	andeq	r0, r0, r4, ror r7
    1058:	02ce2300 	sbceq	r2, lr, #0, 6
    105c:	0b010000 	bleq	41064 <__bss_end__+0x36a0c>
    1060:	0001bc08 	andeq	fp, r1, r8, lsl #24
    1064:	00842400 	addeq	r2, r4, r0, lsl #8
    1068:	00001000 	andeq	r1, r0, r0
    106c:	249c0100 	ldrcs	r0, [ip], #256	; 0x100
    1070:	0000025b 	andeq	r0, r0, fp, asr r2
    1074:	2c182102 	ldfcss	f2, [r8], {2}
    1078:	03000000 	movweq	r0, #0
    107c:	000006fa 	strdeq	r0, [r0], -sl
    1080:	02006825 	andeq	r6, r0, #2424832	; 0x250000
    1084:	01bc2921 			; <UNDEFINED> instruction: 0x01bc2921
    1088:	26000000 	strcs	r0, [r0], -r0
    108c:	00000229 	andeq	r0, r0, r9, lsr #4
    1090:	00000229 	andeq	r0, r0, r9, lsr #4
    1094:	26071e06 	strcs	r1, [r7], -r6, lsl #28
    1098:	000002bc 			; <UNDEFINED> instruction: 0x000002bc
    109c:	000002bc 			; <UNDEFINED> instruction: 0x000002bc
    10a0:	2607f204 	strcs	pc, [r7], -r4, lsl #4
    10a4:	0000043f 	andeq	r0, r0, pc, lsr r4
    10a8:	0000043f 	andeq	r0, r0, pc, lsr r4
    10ac:	26062804 	strcs	r2, [r6], -r4, lsl #16
    10b0:	000001ee 	andeq	r0, r0, lr, ror #3
    10b4:	000001ee 	andeq	r0, r0, lr, ror #3
    10b8:	26061f06 	strcs	r1, [r6], -r6, lsl #30
    10bc:	00000029 	andeq	r0, r0, r9, lsr #32
    10c0:	00000029 	andeq	r0, r0, r9, lsr #32
    10c4:	00066e04 	andeq	r6, r6, r4, lsl #28
    10c8:	00000140 	andeq	r0, r0, r0, asr #2
    10cc:	06dc0004 	ldrbeq	r0, [ip], r4
    10d0:	01040000 	mrseq	r0, (UNDEF: 4)
    10d4:	0000035d 	andeq	r0, r0, sp, asr r3
    10d8:	00034d0c 	andeq	r4, r3, ip, lsl #26
    10dc:	00041500 	andeq	r1, r4, r0, lsl #10
    10e0:	00872000 	addeq	r2, r7, r0
    10e4:	00007800 	andeq	r7, r0, r0, lsl #16
    10e8:	00089b00 	andeq	r9, r8, r0, lsl #22
    10ec:	05040200 	streq	r0, [r4, #-512]	; 0xfffffe00
    10f0:	00746e69 	rsbseq	r6, r4, r9, ror #28
    10f4:	00034603 	andeq	r4, r3, r3, lsl #12
    10f8:	17d10300 	ldrbne	r0, [r1, r0, lsl #6]
    10fc:	00000038 	andeq	r0, r0, r8, lsr r0
    1100:	8d070404 	cfstrshi	mvf0, [r7, #-16]
    1104:	04000000 	streq	r0, [r0], #-0
    1108:	001d0601 	andseq	r0, sp, r1, lsl #12
    110c:	02040000 	andeq	r0, r4, #0, 0
    1110:	00010305 	andeq	r0, r1, r5, lsl #6
    1114:	05040400 	streq	r0, [r4, #-1024]	; 0xfffffc00
    1118:	000000b7 	strheq	r0, [r0], -r7
    111c:	b2050804 	andlt	r0, r5, #4, 16	; 0x40000
    1120:	04000000 	streq	r0, [r0], #-0
    1124:	001b0801 	andseq	r0, fp, r1, lsl #16
    1128:	02040000 	andeq	r0, r4, #0, 0
    112c:	00003607 	andeq	r3, r0, r7, lsl #12
    1130:	07040400 	streq	r0, [r4, -r0, lsl #8]
    1134:	00000088 	andeq	r0, r0, r8, lsl #1
    1138:	83070804 	movwhi	r0, #30724	; 0x7804
    113c:	05000000 	streq	r0, [r0, #-0]
    1140:	00000025 	andeq	r0, r0, r5, lsr #32
    1144:	00000086 	andeq	r0, r0, r6, lsl #1
    1148:	00002506 	andeq	r2, r0, r6, lsl #10
    114c:	c0070000 	andgt	r0, r7, r0
    1150:	02000000 	andeq	r0, r0, #0, 0
    1154:	00920e1c 	addseq	r0, r2, ip, lsl lr
    1158:	04080000 	streq	r0, [r8], #-0
    115c:	00000077 	andeq	r0, r0, r7, ror r0
    1160:	00002505 	andeq	r2, r0, r5, lsl #10
    1164:	0000a700 	andeq	sl, r0, r0, lsl #14
    1168:	00a70600 	adceq	r0, r7, r0, lsl #12
    116c:	08000000 	stmdaeq	r0, {}	; <UNPREDICTABLE>
    1170:	0000b404 	andeq	fp, r0, r4, lsl #8
    1174:	08010400 	stmdaeq	r1, {sl}
    1178:	00000024 	andeq	r0, r0, r4, lsr #32
    117c:	0000ad09 	andeq	sl, r0, r9, lsl #26
    1180:	04b60700 	ldrteq	r0, [r6], #1792	; 0x700
    1184:	21020000 	mrscs	r0, (UNDEF: 2)
    1188:	0000c50e 	andeq	ip, r0, lr, lsl #10
    118c:	98040800 	stmdals	r4, {fp}
    1190:	0a000000 	beq	1198 <__code_start__-0x6e68>
    1194:	000002bc 			; <UNDEFINED> instruction: 0x000002bc
    1198:	3b070401 	blcc	1c21a4 <__bss_end__+0x1b7b4c>
    119c:	20000001 	andcs	r0, r0, r1
    11a0:	78000087 	stmdavc	r0, {r0, r1, r2, r7}
    11a4:	01000000 	mrseq	r0, (UNDEF: 0)
    11a8:	00013b9c 	muleq	r1, ip, fp
    11ac:	705f0b00 	subsvc	r0, pc, r0, lsl #22
    11b0:	14040100 	strne	r0, [r4], #-256	; 0xffffff00
    11b4:	0000013b 	andeq	r0, r0, fp, lsr r1
    11b8:	630c5001 	movwvs	r5, #49153	; 0xc001
    11bc:	1c040100 	stfnes	f0, [r4], {-0}
    11c0:	00000025 	andeq	r0, r0, r5, lsr #32
    11c4:	0000079d 	muleq	r0, sp, r7
    11c8:	00000799 	muleq	r0, r9, r7
    11cc:	01006e0c 	tsteq	r0, ip, lsl #28
    11d0:	002c2604 	eoreq	r2, ip, r4, lsl #12
    11d4:	07c20000 	strbeq	r0, [r2, r0]
    11d8:	07be0000 	ldreq	r0, [lr, r0]!
    11dc:	700d0000 	andvc	r0, sp, r0
    11e0:	0b050100 	bleq	1415e8 <__bss_end__+0x136f90>
    11e4:	0000013d 	andeq	r0, r0, sp, lsr r1
    11e8:	000007f1 	strdeq	r0, [r0], -r1
    11ec:	000007e3 	andeq	r0, r0, r3, ror #15
    11f0:	0100650d 	tsteq	r0, sp, lsl #10
    11f4:	013d1405 	teqeq	sp, r5, lsl #8
    11f8:	084e0000 	stmdaeq	lr, {}^	; <UNPREDICTABLE>
    11fc:	084c0000 	stmdaeq	ip, {}^	; <UNPREDICTABLE>
    1200:	0e000000 	cdpeq	0, 0, cr0, cr0, cr0, {0}
    1204:	ad040804 	stcge	8, cr0, [r4, #-16]
    1208:	00000000 	andeq	r0, r0, r0
    120c:	0000019d 	muleq	r0, sp, r1
    1210:	07a80004 	streq	r0, [r8, r4]!
    1214:	01040000 	mrseq	r0, (UNDEF: 4)
    1218:	0000035d 	andeq	r0, r0, sp, asr r3
    121c:	00045a0c 	andeq	r5, r4, ip, lsl #20
    1220:	00041500 	andeq	r1, r4, r0, lsl #10
    1224:	00879800 	addeq	r9, r7, r0, lsl #16
    1228:	00005800 	andeq	r5, r0, r0, lsl #16
    122c:	0009c000 	andeq	ip, r9, r0
    1230:	04460200 	strbeq	r0, [r6], #-512	; 0xfffffe00
    1234:	28020000 	stmdacs	r2, {}	; <UNPREDICTABLE>
    1238:	0000311b 	andeq	r3, r0, fp, lsl r1
    123c:	046a0300 	strbteq	r0, [sl], #-768	; 0xfffffd00
    1240:	04040000 	streq	r0, [r4], #-0
    1244:	00004800 	andeq	r4, r0, r0, lsl #16
    1248:	04550400 	ldrbeq	r0, [r5], #-1024	; 0xfffffc00
    124c:	00480000 	subeq	r0, r8, r0
    1250:	00000000 	andeq	r0, r0, r0
    1254:	6c020405 	cfstrsvs	mvf0, [r2], {5}
    1258:	02000004 	andeq	r0, r0, #4, 0
    125c:	00251863 	eoreq	r1, r5, r3, ror #16
    1260:	04060000 	streq	r0, [r6], #-0
    1264:	746e6905 	strbtvc	r6, [lr], #-2309	; 0xfffff6fb
    1268:	07040700 	streq	r0, [r4, -r0, lsl #14]
    126c:	0000008d 	andeq	r0, r0, sp, lsl #1
    1270:	1d060107 	stfnes	f0, [r6, #-28]	; 0xffffffe4
    1274:	07000000 	streq	r0, [r0, -r0]
    1278:	01030502 	tsteq	r3, r2, lsl #10
    127c:	04070000 	streq	r0, [r7], #-0
    1280:	0000b705 	andeq	fp, r0, r5, lsl #14
    1284:	05080700 	streq	r0, [r8, #-1792]	; 0xfffff900
    1288:	000000b2 	strheq	r0, [r0], -r2
    128c:	1b080107 	blne	2016b0 <__bss_end__+0x1f7058>
    1290:	07000000 	streq	r0, [r0, -r0]
    1294:	00360702 	eorseq	r0, r6, r2, lsl #14
    1298:	04070000 	streq	r0, [r7], #-0
    129c:	00008807 	andeq	r8, r0, r7, lsl #16
    12a0:	07080700 	streq	r0, [r8, -r0, lsl #14]
    12a4:	00000083 	andeq	r0, r0, r3, lsl #1
    12a8:	00005608 	andeq	r5, r0, r8, lsl #12
    12ac:	0000ab00 	andeq	sl, r0, r0, lsl #22
    12b0:	00560900 	subseq	r0, r6, r0, lsl #18
    12b4:	0a000000 	beq	12bc <__code_start__-0x6d44>
    12b8:	000000c0 	andeq	r0, r0, r0, asr #1
    12bc:	b70e1c03 	strlt	r1, [lr, -r3, lsl #24]
    12c0:	0b000000 	bleq	12c8 <__code_start__-0x6d38>
    12c4:	00009c04 	andeq	r9, r0, r4, lsl #24
    12c8:	00560800 	subseq	r0, r6, r0, lsl #16
    12cc:	00cc0000 	sbceq	r0, ip, r0
    12d0:	cc090000 	stcgt	0, cr0, [r9], {-0}
    12d4:	00000000 	andeq	r0, r0, r0
    12d8:	00d9040b 	sbcseq	r0, r9, fp, lsl #8
    12dc:	01070000 	mrseq	r0, (UNDEF: 7)
    12e0:	00002408 	andeq	r2, r0, r8, lsl #8
    12e4:	00d20c00 	sbcseq	r0, r2, r0, lsl #24
    12e8:	b60a0000 	strlt	r0, [sl], -r0
    12ec:	03000004 	movweq	r0, #4
    12f0:	00ea0e21 	rsceq	r0, sl, r1, lsr #28
    12f4:	040b0000 	streq	r0, [fp], #-0
    12f8:	000000bd 	strheq	r0, [r0], -sp
    12fc:	00043f0d 	andeq	r3, r4, sp, lsl #30
    1300:	05060100 	streq	r0, [r6, #-256]	; 0xffffff00
    1304:	00000056 	andeq	r0, r0, r6, asr r0
    1308:	00008798 	muleq	r0, r8, r7
    130c:	00000058 	andeq	r0, r0, r8, asr r0
    1310:	01839c01 	orreq	r9, r3, r1, lsl #24
    1314:	660e0000 	strvs	r0, [lr], -r0
    1318:	0100746d 	tsteq	r0, sp, ror #8
    131c:	00cc1806 	sbceq	r1, ip, r6, lsl #16
    1320:	91020000 	mrsls	r0, (UNDEF: 2)
    1324:	62100f70 	andsvs	r0, r0, #112, 30	; 0x1c0
    1328:	01006675 	tsteq	r0, r5, ror r6
    132c:	01831108 	orreq	r1, r3, r8, lsl #2
    1330:	03050000 	movweq	r0, #20480	; 0x5000
    1334:	0000a254 	andeq	sl, r0, r4, asr r2
    1338:	00043711 	andeq	r3, r4, r1, lsl r7
    133c:	0d090100 	stfeqs	f0, [r9, #-0]
    1340:	0000004a 	andeq	r0, r0, sl, asr #32
    1344:	125c9102 	subsne	r9, ip, #-2147483648	; 0x80000000
    1348:	01007a73 	tsteq	r0, r3, ror sl
    134c:	00560d0c 	subseq	r0, r6, ip, lsl #26
    1350:	08670000 	stmdaeq	r7!, {}^	; <UNPREDICTABLE>
    1354:	08610000 	stmdaeq	r1!, {}^	; <UNPREDICTABLE>
    1358:	c0130000 	andsgt	r0, r3, r0
    135c:	94000087 	strls	r0, [r0], #-135	; 0xffffff79
    1360:	76000001 	strvc	r0, [r0], -r1
    1364:	14000001 	strne	r0, [r0], #-1
    1368:	75025001 	strvc	r5, [r2, #-1]
    136c:	51011400 	tstpl	r1, r0, lsl #8
    1370:	04000a03 	streq	r0, [r0], #-2563	; 0xfffff5fd
    1374:	03520114 	cmpeq	r2, #5
    1378:	14064891 	strne	r4, [r6], #-2193	; 0xfffff76f
    137c:	91025301 	tstls	r2, r1, lsl #6
    1380:	d415004c 	ldrle	r0, [r5], #-76	; 0xffffffb4
    1384:	14000087 	strne	r0, [r0], #-135	; 0xffffff79
    1388:	75025001 	strvc	r5, [r2, #-1]
    138c:	16000000 	strne	r0, [r0], -r0
    1390:	000000d2 	ldrdeq	r0, [r0], -r2
    1394:	00000194 	muleq	r0, r4, r1
    1398:	00005d17 	andeq	r5, r0, r7, lsl sp
    139c:	0003ff00 	andeq	pc, r3, r0, lsl #30
    13a0:	00043c18 	andeq	r3, r4, r8, lsl ip
    13a4:	00043c00 	andeq	r3, r4, r0, lsl #24
    13a8:	05020500 	streq	r0, [r2, #-1280]	; 0xfffffb00
    13ac:	00014900 	andeq	r4, r1, r0, lsl #18
    13b0:	ea000400 	b	23b8 <__code_start__-0x5c48>
    13b4:	04000008 	streq	r0, [r0], #-8
    13b8:	00035d01 	andeq	r5, r3, r1, lsl #26
    13bc:	04920c00 	ldreq	r0, [r2], #3072	; 0xc00
    13c0:	04150000 	ldreq	r0, [r5], #-0
    13c4:	87f00000 	ldrbhi	r0, [r0, r0]!
    13c8:	003c0000 	eorseq	r0, ip, r0
    13cc:	0ae40000 	beq	ff9013d4 <__bss_end__+0xff8f6d7c>
    13d0:	04020000 	streq	r0, [r2], #-0
    13d4:	746e6905 	strbtvc	r6, [lr], #-2309	; 0xfffff6fb
    13d8:	07040300 	streq	r0, [r4, -r0, lsl #6]
    13dc:	0000008d 	andeq	r0, r0, sp, lsl #1
    13e0:	1d060103 	stfnes	f0, [r6, #-12]
    13e4:	03000000 	movweq	r0, #0
    13e8:	01030502 	tsteq	r3, r2, lsl #10
    13ec:	04030000 	streq	r0, [r3], #-0
    13f0:	0000b705 	andeq	fp, r0, r5, lsl #14
    13f4:	05080300 	streq	r0, [r8, #-768]	; 0xfffffd00
    13f8:	000000b2 	strheq	r0, [r0], -r2
    13fc:	1b080103 	blne	201810 <__bss_end__+0x1f71b8>
    1400:	03000000 	movweq	r0, #0
    1404:	00360702 	eorseq	r0, r6, r2, lsl #14
    1408:	04030000 	streq	r0, [r3], #-0
    140c:	00008807 	andeq	r8, r0, r7, lsl #16
    1410:	07080300 	streq	r0, [r8, -r0, lsl #6]
    1414:	00000083 	andeq	r0, r0, r3, lsl #1
    1418:	00002504 	andeq	r2, r0, r4, lsl #10
    141c:	00007a00 	andeq	r7, r0, r0, lsl #20
    1420:	00250500 	eoreq	r0, r5, r0, lsl #10
    1424:	06000000 	streq	r0, [r0], -r0
    1428:	000000c0 	andeq	r0, r0, r0, asr #1
    142c:	860e1c02 	strhi	r1, [lr], -r2, lsl #24
    1430:	07000000 	streq	r0, [r0, -r0]
    1434:	00006b04 	andeq	r6, r0, r4, lsl #22
    1438:	00250400 	eoreq	r0, r5, r0, lsl #8
    143c:	009b0000 	addseq	r0, fp, r0
    1440:	9b050000 	blls	141448 <__bss_end__+0x136df0>
    1444:	00000000 	andeq	r0, r0, r0
    1448:	00a80407 	adceq	r0, r8, r7, lsl #8
    144c:	01030000 	mrseq	r0, (UNDEF: 3)
    1450:	00002408 	andeq	r2, r0, r8, lsl #8
    1454:	00a10800 	adceq	r0, r1, r0, lsl #16
    1458:	b6060000 	strlt	r0, [r6], -r0
    145c:	02000004 	andeq	r0, r0, #4, 0
    1460:	00b90e21 	adcseq	r0, r9, r1, lsr #28
    1464:	04070000 	streq	r0, [r7], #-0
    1468:	0000008c 	andeq	r0, r0, ip, lsl #1
    146c:	00007a09 	andeq	r7, r0, r9, lsl #20
    1470:	07060100 	streq	r0, [r6, -r0, lsl #2]
    1474:	a22c0305 	eorge	r0, ip, #335544320	; 0x14000000
    1478:	850a0000 	strhi	r0, [sl, #-0]
    147c:	01000004 	tsteq	r0, r4
    1480:	881c060b 	ldmdahi	ip, {r0, r1, r3, r9, sl}
    1484:	00100000 	andseq	r0, r0, r0
    1488:	9c010000 	stcls	0, cr0, [r1], {-0}
    148c:	000000f1 	strdeq	r0, [r0], -r1
    1490:	0070660b 	rsbseq	r6, r0, fp, lsl #12
    1494:	86190b01 	ldrhi	r0, [r9], -r1, lsl #22
    1498:	01000000 	mrseq	r0, (UNDEF: 0)
    149c:	cc0c0050 	stcgt	0, cr0, [ip], {80}	; 0x50
    14a0:	01000001 	tsteq	r0, r1
    14a4:	88040608 	stmdahi	r4, {r3, r9, sl}
    14a8:	00180000 	andseq	r0, r8, r0
    14ac:	9c010000 	stcls	0, cr0, [r1], {-0}
    14b0:	0004740d 	andeq	r7, r4, sp, lsl #8
    14b4:	0c030100 	stfeqs	f0, [r3], {-0}
    14b8:	00000025 	andeq	r0, r0, r5, lsr #32
    14bc:	000087f0 	strdeq	r8, [r0], -r0
    14c0:	00000014 	andeq	r0, r0, r4, lsl r0
    14c4:	01409c01 	cmpeq	r0, r1, lsl #24
    14c8:	630e0000 	movwvs	r0, #57344	; 0xe000
    14cc:	21030100 	mrscs	r0, (UNDEF: 19)
    14d0:	00000025 	andeq	r0, r0, r5, lsr #32
    14d4:	00000894 	muleq	r0, r4, r8
    14d8:	00000890 	muleq	r0, r0, r8
    14dc:	0087fc0f 	addeq	pc, r7, pc, lsl #24
    14e0:	00014000 	andeq	r4, r1, r0
    14e4:	50011000 	andpl	r1, r1, r0
    14e8:	00007402 	andeq	r7, r0, r2, lsl #8
    14ec:	04a31100 	strteq	r1, [r3], #256	; 0x100
    14f0:	04a30000 	strteq	r0, [r3], #0
    14f4:	42020000 	andmi	r0, r2, #0, 0
    14f8:	00f30006 	rscseq	r0, r3, r6
    14fc:	00040000 	andeq	r0, r4, r0
    1500:	000009f9 	strdeq	r0, [r0], -r9
    1504:	035d0104 	cmpeq	sp, #1
    1508:	bb0c0000 	bllt	301510 <__bss_end__+0x2f6eb8>
    150c:	15000004 	strne	r0, [r0, #-4]
    1510:	2c000004 	stccs	0, cr0, [r0], {4}
    1514:	38000088 	stmdacc	r0, {r3, r7}
    1518:	86000000 	strhi	r0, [r0], -r0
    151c:	0200000b 	andeq	r0, r0, #11, 0
    1520:	6e690504 	cdpvs	5, 6, cr0, cr9, cr4, {0}
    1524:	04030074 	streq	r0, [r3], #-116	; 0xffffff8c
    1528:	00008d07 	andeq	r8, r0, r7, lsl #26
    152c:	06010300 	streq	r0, [r1], -r0, lsl #6
    1530:	0000001d 	andeq	r0, r0, sp, lsl r0
    1534:	03050203 	movweq	r0, #20995	; 0x5203
    1538:	03000001 	movweq	r0, #1
    153c:	00b70504 	adcseq	r0, r7, r4, lsl #10
    1540:	08030000 	stmdaeq	r3, {}	; <UNPREDICTABLE>
    1544:	0000b205 	andeq	fp, r0, r5, lsl #4
    1548:	08010300 	stmdaeq	r1, {r8, r9}
    154c:	0000001b 	andeq	r0, r0, fp, lsl r0
    1550:	36070203 	strcc	r0, [r7], -r3, lsl #4
    1554:	03000000 	movweq	r0, #0
    1558:	00880704 	addeq	r0, r8, r4, lsl #14
    155c:	08030000 	stmdaeq	r3, {}	; <UNPREDICTABLE>
    1560:	00008307 	andeq	r8, r0, r7, lsl #6
    1564:	00250400 	eoreq	r0, r5, r0, lsl #8
    1568:	007a0000 	rsbseq	r0, sl, r0
    156c:	25050000 	strcs	r0, [r5, #-0]
    1570:	00000000 	andeq	r0, r0, r0
    1574:	0000c006 	andeq	ip, r0, r6
    1578:	0e1c0200 	cdpeq	2, 1, cr0, cr12, cr0, {0}
    157c:	00000086 	andeq	r0, r0, r6, lsl #1
    1580:	006b0407 	rsbeq	r0, fp, r7, lsl #8
    1584:	25040000 	strcs	r0, [r4, #-0]
    1588:	9b000000 	blls	1590 <__code_start__-0x6a70>
    158c:	05000000 	streq	r0, [r0, #-0]
    1590:	0000009b 	muleq	r0, fp, r0
    1594:	a8040700 	stmdage	r4, {r8, r9, sl}
    1598:	03000000 	movweq	r0, #0
    159c:	00240801 	eoreq	r0, r4, r1, lsl #16
    15a0:	a1080000 	mrsge	r0, (UNDEF: 8)
    15a4:	06000000 	streq	r0, [r0], -r0
    15a8:	000004b6 			; <UNDEFINED> instruction: 0x000004b6
    15ac:	b90e2102 	stmdblt	lr, {r1, r8, sp}
    15b0:	07000000 	streq	r0, [r0, -r0]
    15b4:	00008c04 	andeq	r8, r0, r4, lsl #24
    15b8:	00ad0900 	adceq	r0, sp, r0, lsl #18
    15bc:	0c010000 	stceq	0, cr0, [r1], {-0}
    15c0:	30030507 	andcc	r0, r3, r7, lsl #10
    15c4:	0a0000a2 	beq	1854 <__code_start__-0x67ac>
    15c8:	000004ad 	andeq	r0, r0, sp, lsr #9
    15cc:	25050401 	strcs	r0, [r5, #-1025]	; 0xfffffbff
    15d0:	2c000000 	stccs	0, cr0, [r0], {-0}
    15d4:	38000088 	stmdacc	r0, {r3, r7}
    15d8:	01000000 	mrseq	r0, (UNDEF: 0)
    15dc:	00700b9c 			; <UNDEFINED> instruction: 0x00700b9c
    15e0:	9b1f0401 	blls	7c25ec <__bss_end__+0x7b7f94>
    15e4:	ba000000 	blt	15ec <__code_start__-0x6a14>
    15e8:	b2000008 	andlt	r0, r0, #8, 0
    15ec:	00000008 	andeq	r0, r0, r8
    15f0:	000c7f00 	andeq	r7, ip, r0, lsl #30
    15f4:	97000400 	strls	r0, [r0, -r0, lsl #8]
    15f8:	0400000a 	streq	r0, [r0], #-10
    15fc:	00035d01 	andeq	r5, r3, r1, lsl #26
    1600:	04da0c00 	ldrbeq	r0, [sl], #3072	; 0xc00
    1604:	04150000 	ldreq	r0, [r5], #-0
    1608:	88640000 	stmdahi	r4!, {}^	; <UNPREDICTABLE>
    160c:	09b40000 	ldmibeq	r4!, {}	; <UNPREDICTABLE>
    1610:	0c2a0000 	stceq	0, cr0, [sl], #-0
    1614:	08020000 	stmdaeq	r2, {}	; <UNPREDICTABLE>
    1618:	00008307 	andeq	r8, r0, r7, lsl #6
    161c:	07040200 	streq	r0, [r4, -r0, lsl #4]
    1620:	0000008d 	andeq	r0, r0, sp, lsl #1
    1624:	69050403 	stmdbvs	r5, {r0, r1, sl}
    1628:	0200746e 	andeq	r7, r0, #1845493760	; 0x6e000000
    162c:	001d0601 	andseq	r0, sp, r1, lsl #12
    1630:	02020000 	andeq	r0, r2, #0, 0
    1634:	00010305 	andeq	r0, r1, r5, lsl #6
    1638:	05040200 	streq	r0, [r4, #-512]	; 0xfffffe00
    163c:	000000b7 	strheq	r0, [r0], -r7
    1640:	b2050802 	andlt	r0, r5, #131072	; 0x20000
    1644:	02000000 	andeq	r0, r0, #0, 0
    1648:	001b0801 	andseq	r0, fp, r1, lsl #16
    164c:	02020000 	andeq	r0, r2, #0, 0
    1650:	00003607 	andeq	r3, r0, r7, lsl #12
    1654:	03150400 	tsteq	r5, #0, 8
    1658:	34020000 	strcc	r0, [r2], #-0
    165c:	00007019 	andeq	r7, r0, r9, lsl r0
    1660:	07040200 	streq	r0, [r4, -r0, lsl #4]
    1664:	00000088 	andeq	r0, r0, r8, lsl #1
    1668:	0004d104 	andeq	sp, r4, r4, lsl #2
    166c:	19370200 	ldmdbne	r7!, {r9}
    1670:	00000025 	andeq	r0, r0, r5, lsr #32
    1674:	00003305 	andeq	r3, r0, r5, lsl #6
    1678:	00009200 	andeq	r9, r0, r0, lsl #4
    167c:	00330600 	eorseq	r0, r3, r0, lsl #12
    1680:	07000000 	streq	r0, [r0, -r0]
    1684:	000000c0 	andeq	r0, r0, r0, asr #1
    1688:	9e0e1c03 	cdpls	12, 0, cr1, cr14, cr3, {0}
    168c:	08000000 	stmdaeq	r0, {}	; <UNPREDICTABLE>
    1690:	00008304 	andeq	r8, r0, r4, lsl #6
    1694:	00330500 	eorseq	r0, r3, r0, lsl #10
    1698:	00b30000 	adcseq	r0, r3, r0
    169c:	b3060000 	movwlt	r0, #24576	; 0x6000
    16a0:	00000000 	andeq	r0, r0, r0
    16a4:	00c00408 	sbceq	r0, r0, r8, lsl #8
    16a8:	01020000 	mrseq	r0, (UNDEF: 2)
    16ac:	00002408 	andeq	r2, r0, r8, lsl #8
    16b0:	00b90900 	adcseq	r0, r9, r0, lsl #18
    16b4:	b6070000 	strlt	r0, [r7], -r0
    16b8:	03000004 	movweq	r0, #4
    16bc:	00d10e21 	sbcseq	r0, r1, r1, lsr #28
    16c0:	04080000 	streq	r0, [r8], #-0
    16c4:	000000a4 	andeq	r0, r0, r4, lsr #1
    16c8:	0004ed07 	andeq	lr, r4, r7, lsl #26
    16cc:	0d0b0400 	cfstrseq	mvf0, [fp, #-0]
    16d0:	000000b9 	strheq	r0, [r0], -r9
    16d4:	00056d07 	andeq	r6, r5, r7, lsl #26
    16d8:	0d0c0400 	cfstrseq	mvf0, [ip, #-0]
    16dc:	000000b9 	strheq	r0, [r0], -r9
    16e0:	0004fc07 	andeq	pc, r4, r7, lsl #24
    16e4:	0d0d0400 	cfstrseq	mvf0, [sp, #-0]
    16e8:	000000b9 	strheq	r0, [r0], -r9
    16ec:	00052507 	andeq	r2, r5, r7, lsl #10
    16f0:	0d0e0400 	cfstrseq	mvf0, [lr, #-0]
    16f4:	000000b9 	strheq	r0, [r0], -r9
    16f8:	00059607 	andeq	r9, r5, r7, lsl #12
    16fc:	0d0f0400 	cfstrseq	mvf0, [pc, #-0]	; 1704 <__code_start__-0x68fc>
    1700:	000000b9 	strheq	r0, [r0], -r9
    1704:	00051007 	andeq	r1, r5, r7
    1708:	0d100400 	cfldrseq	mvf0, [r0, #-0]
    170c:	000000b9 	strheq	r0, [r0], -r9
    1710:	0005a507 	andeq	sl, r5, r7, lsl #10
    1714:	0d110400 	cfldrseq	mvf0, [r1, #-0]
    1718:	000000b9 	strheq	r0, [r0], -r9
    171c:	00053107 	andeq	r3, r5, r7, lsl #2
    1720:	0d120400 	cfldrseq	mvf0, [r2, #-0]
    1724:	000000b9 	strheq	r0, [r0], -r9
    1728:	00044604 	andeq	r4, r4, r4, lsl #12
    172c:	1b280500 	blne	a02b34 <__bss_end__+0x9f84dc>
    1730:	00000143 	andeq	r0, r0, r3, asr #2
    1734:	00046a0a 	andeq	r6, r4, sl, lsl #20
    1738:	00060400 	andeq	r0, r6, r0, lsl #8
    173c:	0000015a 	andeq	r0, r0, sl, asr r1
    1740:	0004550b 	andeq	r5, r4, fp, lsl #10
    1744:	00015a00 	andeq	r5, r1, r0, lsl #20
    1748:	0c000000 	stceq	0, cr0, [r0], {-0}
    174c:	046c0404 	strbteq	r0, [ip], #-1028	; 0xfffffbfc
    1750:	63050000 	movwvs	r0, #20480	; 0x5000
    1754:	00013718 	andeq	r3, r1, r8, lsl r7
    1758:	043c0d00 	ldrteq	r0, [ip], #-3328	; 0xfffff300
    175c:	81010000 	mrshi	r0, (UNDEF: 1)
    1760:	00003305 	andeq	r3, r0, r5, lsl #6
    1764:	008bec00 	addeq	lr, fp, r0, lsl #24
    1768:	00062c00 	andeq	r2, r6, r0, lsl #24
    176c:	6a9c0100 	bvs	fe701b74 <__bss_end__+0xfe6f751c>
    1770:	0e000008 	cdpeq	0, 0, cr0, cr0, cr8, {0}
    1774:	00667562 	rsbeq	r7, r6, r2, ror #10
    1778:	6a158101 	bvs	561b84 <__bss_end__+0x55752c>
    177c:	fa000008 	blx	17a4 <__code_start__-0x685c>
    1780:	f0000008 			; <UNDEFINED> instruction: 0xf0000008
    1784:	0e000008 	cdpeq	0, 0, cr0, cr0, cr8, {0}
    1788:	8101006e 	tsthi	r1, lr, rrx
    178c:	0000331e 	andeq	r3, r0, lr, lsl r3
    1790:	00094700 	andeq	r4, r9, r0, lsl #14
    1794:	00093f00 	andeq	r3, r9, r0, lsl #30
    1798:	6d660e00 	stclvs	14, cr0, [r6, #-0]
    179c:	81010074 	tsthi	r1, r4, ror r0
    17a0:	0000b32d 	andeq	fp, r0, sp, lsr #6
    17a4:	00099900 	andeq	r9, r9, r0, lsl #18
    17a8:	00098100 	andeq	r8, r9, r0, lsl #2
    17ac:	04370f00 	ldrteq	r0, [r7], #-3840	; 0xfffff100
    17b0:	81010000 	mrshi	r0, (UNDEF: 1)
    17b4:	00015c3a 	andeq	r5, r1, sl, lsr ip
    17b8:	000a5b00 	andeq	r5, sl, r0, lsl #22
    17bc:	000a2d00 	andeq	r2, sl, r0, lsl #26
    17c0:	00701000 	rsbseq	r1, r0, r0
    17c4:	6a088201 	bvs	221fd0 <__bss_end__+0x217978>
    17c8:	ae000008 	cdpge	0, 0, cr0, cr0, cr8, {0}
    17cc:	9800000b 	stmdals	r0, {r0, r1, r3}
    17d0:	1000000b 	andne	r0, r0, fp
    17d4:	82010065 	andhi	r0, r1, #101, 0	; 0x65
    17d8:	00086a12 	andeq	r6, r8, r2, lsl sl
    17dc:	000c3700 	andeq	r3, ip, r0, lsl #14
    17e0:	000c3500 	andeq	r3, ip, r0, lsl #10
    17e4:	30781000 	rsbscc	r1, r8, r0
    17e8:	0e830100 	rmfeqs	f0, f3, f0
    17ec:	00000064 	andeq	r0, r0, r4, rrx
    17f0:	00000c50 	andeq	r0, r0, r0, asr ip
    17f4:	00000c4a 	andeq	r0, r0, sl, asr #24
    17f8:	00317810 	eorseq	r7, r1, r0, lsl r8
    17fc:	64118301 	ldrvs	r8, [r1], #-769	; 0xfffffcff
    1800:	7f000000 	svcvc	0x00000000
    1804:	7900000c 	stmdbvc	r0, {r2, r3}
    1808:	1100000c 	tstne	r0, ip
    180c:	0000054f 	andeq	r0, r0, pc, asr #10
    1810:	b3118601 	tstlt	r1, #1048576	; 0x100000
    1814:	b0000000 	andlt	r0, r0, r0
    1818:	a800000c 	stmdage	r0, {r2, r3}
    181c:	1200000c 	andne	r0, r0, #12, 0
    1820:	0000005e 	andeq	r0, r0, lr, asr r0
    1824:	00000880 	andeq	r0, r0, r0, lsl #17
    1828:	a0180305 	andsge	r0, r8, r5, lsl #6
    182c:	98130000 	ldmdals	r3, {}	; <UNPREDICTABLE>
    1830:	10000000 	andne	r0, r0, r0
    1834:	91010073 	tstls	r1, r3, ror r0
    1838:	00086a0a 	andeq	r6, r8, sl, lsl #20
    183c:	000cf600 	andeq	pc, ip, r0, lsl #12
    1840:	000cea00 	andeq	lr, ip, r0, lsl #20
    1844:	756e1400 	strbvc	r1, [lr, #-1024]!	; 0xfffffc00
    1848:	9101006d 	tstls	r1, sp, rrx
    184c:	0008850d 	andeq	r8, r8, sp, lsl #10
    1850:	d8910300 	ldmle	r1, {r8, r9}
    1854:	05b2157d 	ldreq	r1, [r2, #1405]!	; 0x57d
    1858:	91010000 	mrsls	r0, (UNDEF: 1)
    185c:	00088517 	andeq	r8, r8, r7, lsl r5
    1860:	d8910300 	ldmle	r1, {r8, r9}
    1864:	050a117e 	streq	r1, [sl, #-382]	; 0xfffffe82
    1868:	92010000 	andls	r0, r1, #0, 0
    186c:	00002c0d 	andeq	r2, r0, sp, lsl #24
    1870:	000d4800 	andeq	r4, sp, r0, lsl #16
    1874:	000d4000 	andeq	r4, sp, r0
    1878:	00c01600 	sbceq	r1, r0, r0, lsl #12
    187c:	04f10000 	ldrbteq	r0, [r1], #0
    1880:	74100000 	ldrvc	r0, [r0], #-0
    1884:	9e010079 	mcrls	0, 0, r0, cr1, cr9, {3}
    1888:	0000b31d 	andeq	fp, r0, sp, lsl r3
    188c:	000d8900 	andeq	r8, sp, r0, lsl #18
    1890:	000d7d00 	andeq	r7, sp, r0, lsl #26
    1894:	78781400 	ldmdavc	r8!, {sl, ip}^
    1898:	1aa20100 	bne	fe881ca0 <__bss_end__+0xfe877648>
    189c:	00000077 	andeq	r0, r0, r7, ror r0
    18a0:	04935906 	ldreq	r5, [r3], #2310	; 0x906
    18a4:	1704935b 	smlsdne	r4, fp, r3, r9
    18a8:	00008d78 	andeq	r8, r0, r8, ror sp
    18ac:	00000c3a 	andeq	r0, r0, sl, lsr ip
    18b0:	000002d8 	ldrdeq	r0, [r0], -r8
    18b4:	02500118 	subseq	r0, r0, #6
    18b8:	01180076 	tsteq	r8, r6, ror r0
    18bc:	0c030551 	cfstr32eq	mvfx0, [r3], {81}	; 0x51
    18c0:	1800009f 	stmdane	r0, {r0, r1, r2, r3, r4, r7}
    18c4:	33015201 	movwcc	r5, #4609	; 0x1201
    18c8:	8d901700 	ldchi	7, cr1, [r0]
    18cc:	0c3a0000 	ldceq	0, cr0, [sl], #-0
    18d0:	02fa0000 	rscseq	r0, sl, #0, 0
    18d4:	01180000 	tsteq	r8, r0
    18d8:	00760250 	rsbseq	r0, r6, r0, asr r2
    18dc:	05510118 	ldrbeq	r0, [r1, #-280]	; 0xfffffee8
    18e0:	009f2003 	addseq	r2, pc, r3
    18e4:	52011800 	andpl	r1, r1, #0, 16
    18e8:	17003301 	strne	r3, [r0, -r1, lsl #6]
    18ec:	00008db4 			; <UNDEFINED> instruction: 0x00008db4
    18f0:	00000c46 	andeq	r0, r0, r6, asr #24
    18f4:	00000317 	andeq	r0, r0, r7, lsl r3
    18f8:	05500118 	ldrbeq	r0, [r0, #-280]	; 0xfffffee8
    18fc:	009f1003 	addseq	r1, pc, r3
    1900:	51011800 	tstpl	r1, r0, lsl #16
    1904:	00007b02 	andeq	r7, r0, r2, lsl #22
    1908:	008dc017 	addeq	ip, sp, r7, lsl r0
    190c:	000c4600 	andeq	r4, ip, r0, lsl #12
    1910:	00033400 	andeq	r3, r3, r0, lsl #8
    1914:	50011800 	andpl	r1, r1, r0, lsl #16
    1918:	9f180305 	svcls	0x00180305
    191c:	01180000 	tsteq	r8, r0
    1920:	00790251 	rsbseq	r0, r9, r1, asr r2
    1924:	8dd01700 	ldclhi	7, cr1, [r0]
    1928:	0c3a0000 	ldceq	0, cr0, [sl], #-0
    192c:	03560000 	cmpeq	r6, #0, 0
    1930:	01180000 	tsteq	r8, r0
    1934:	00760250 	rsbseq	r0, r6, r0, asr r2
    1938:	05510118 	ldrbeq	r0, [r1, #-280]	; 0xfffffee8
    193c:	009f0c03 	addseq	r0, pc, r3, lsl #24
    1940:	52011800 	andpl	r1, r1, #0, 16
    1944:	17003301 	strne	r3, [r0, -r1, lsl #6]
    1948:	00008e00 	andeq	r8, r0, r0, lsl #28
    194c:	00000aa4 	andeq	r0, r0, r4, lsr #21
    1950:	00000383 	andeq	r0, r0, r3, lsl #7
    1954:	01500118 	cmpeq	r0, r8, lsl r1
    1958:	51011840 	tstpl	r1, r0, asr #16
    195c:	7dd09103 	ldfvcp	f1, [r0, #12]
    1960:	02520118 	subseq	r0, r2, #6
    1964:	0118007b 	tsteq	r8, fp, ror r0
    1968:	00750253 	rsbseq	r0, r5, r3, asr r2
    196c:	007d0218 	rsbseq	r0, sp, r8, lsl r2
    1970:	00007602 	andeq	r7, r0, r2, lsl #12
    1974:	008e2017 	addeq	r2, lr, r7, lsl r0
    1978:	000aa400 	andeq	sl, sl, r0, lsl #8
    197c:	0003aa00 	andeq	sl, r3, r0, lsl #20
    1980:	50011800 	andpl	r1, r1, r0, lsl #16
    1984:	01184001 	tsteq	r8, r1
    1988:	d0910351 	addsle	r0, r1, r1, asr r3
    198c:	5201187e 	andpl	r1, r1, #8257536	; 0x7e0000
    1990:	18007902 	stmdane	r0, {r1, r8, fp, ip, sp, lr}
    1994:	02007d02 	andeq	r7, r0, #128	; 0x80
    1998:	17000076 	smlsdxne	r0, r6, r0, r0
    199c:	00008e30 	andeq	r8, r0, r0, lsr lr
    19a0:	00000c52 	andeq	r0, r0, r2, asr ip
    19a4:	000003c6 	andeq	r0, r0, r6, asr #7
    19a8:	03500118 	cmpeq	r0, #6
    19ac:	187dd091 	ldmdane	sp!, {r0, r4, r7, ip, lr, pc}^
    19b0:	91035101 	tstls	r3, r1, lsl #2
    19b4:	17007ed2 			; <UNDEFINED> instruction: 0x17007ed2
    19b8:	00009074 	andeq	r9, r0, r4, ror r0
    19bc:	00000c3a 	andeq	r0, r0, sl, lsr ip
    19c0:	000003e8 	andeq	r0, r0, r8, ror #7
    19c4:	02500118 	subseq	r0, r0, #6
    19c8:	01180076 	tsteq	r8, r6, ror r0
    19cc:	20030551 	andcs	r0, r3, r1, asr r5
    19d0:	1800009f 	stmdane	r0, {r0, r1, r2, r3, r4, r7}
    19d4:	33015201 	movwcc	r5, #4609	; 0x1201
    19d8:	90981700 	addsls	r1, r8, r0, lsl #14
    19dc:	0aa40000 	beq	fe9019e4 <__bss_end__+0xfe8f738c>
    19e0:	04150000 	ldreq	r0, [r5], #-0
    19e4:	01180000 	tsteq	r8, r0
    19e8:	183a0150 	ldmdane	sl!, {r4, r6, r8}
    19ec:	91035101 	tstls	r3, r1, lsl #2
    19f0:	01187dd0 			; <UNDEFINED> instruction: 0x01187dd0
    19f4:	007b0252 	rsbseq	r0, fp, r2, asr r2
    19f8:	02530118 	subseq	r0, r3, #6
    19fc:	02180075 	andseq	r0, r8, #117, 0	; 0x75
    1a00:	7602007d 			; <UNDEFINED> instruction: 0x7602007d
    1a04:	b8170000 	ldmdalt	r7, {}	; <UNPREDICTABLE>
    1a08:	a4000090 	strge	r0, [r0], #-144	; 0xffffff70
    1a0c:	3c00000a 	stccc	0, cr0, [r0], {10}
    1a10:	18000004 	stmdane	r0, {r2}
    1a14:	3a015001 	bcc	55a20 <__bss_end__+0x4b3c8>
    1a18:	03510118 	cmpeq	r1, #6
    1a1c:	187ed091 	ldmdane	lr!, {r0, r4, r7, ip, lr, pc}^
    1a20:	79025201 	stmdbvc	r2, {r0, r9, ip, lr}
    1a24:	7d021800 	stcvc	8, cr1, [r2, #-0]
    1a28:	00760200 	rsbseq	r0, r6, r0, lsl #4
    1a2c:	90c41700 	sbcls	r1, r4, r0, lsl #14
    1a30:	0c5e0000 	mraeq	r0, lr, acc0
    1a34:	045a0000 	ldrbeq	r0, [sl], #-0
    1a38:	01180000 	tsteq	r8, r0
    1a3c:	d0910350 	addsle	r0, r1, r0, asr r3
    1a40:	5101187d 	tstpl	r1, sp, ror r8
    1a44:	9ed00305 	cdpls	3, 13, cr0, cr0, cr5, {0}
    1a48:	17000000 	strne	r0, [r0, -r0]
    1a4c:	000090d8 	ldrdeq	r9, [r0], -r8
    1a50:	00000c6a 	andeq	r0, r0, sl, ror #24
    1a54:	00000476 	andeq	r0, r0, r6, ror r4
    1a58:	03500118 	cmpeq	r0, #6
    1a5c:	187dd091 	ldmdane	sp!, {r0, r4, r7, ip, lr, pc}^
    1a60:	91035101 	tstls	r3, r1, lsl #2
    1a64:	19007ed0 	stmdbne	r0, {r4, r6, r7, r9, sl, fp, ip, sp, lr}
    1a68:	000090e4 	andeq	r9, r0, r4, ror #1
    1a6c:	00000c52 	andeq	r0, r0, r2, asr ip
    1a70:	0091a817 	addseq	sl, r1, r7, lsl r8
    1a74:	000c4600 	andeq	r4, ip, r0, lsl #12
    1a78:	0004a800 	andeq	sl, r4, r0, lsl #16
    1a7c:	50011800 	andpl	r1, r1, r0, lsl #16
    1a80:	9d580305 	ldclls	3, cr0, [r8, #-20]	; 0xffffffec
    1a84:	01180000 	tsteq	r8, r0
    1a88:	bc030551 	cfstr32lt	mvfx0, [r3], {81}	; 0x51
    1a8c:	1800009e 	stmdane	r0, {r1, r2, r3, r4, r7}
    1a90:	03055201 	movweq	r5, #20993	; 0x5201
    1a94:	0000a018 	andeq	sl, r0, r8, lsl r0
    1a98:	91ac1900 			; <UNDEFINED> instruction: 0x91ac1900
    1a9c:	0c760000 	ldcleq	0, cr0, [r6], #-0
    1aa0:	c4170000 	ldrgt	r0, [r7], #-0
    1aa4:	46000091 			; <UNDEFINED> instruction: 0x46000091
    1aa8:	e700000c 	str	r0, [r0, -ip]
    1aac:	18000004 	stmdane	r0, {r2}
    1ab0:	03055001 	movweq	r5, #20481	; 0x5001
    1ab4:	00009f60 	andeq	r9, r0, r0, ror #30
    1ab8:	05510118 	ldrbeq	r0, [r1, #-280]	; 0xfffffee8
    1abc:	009ebc03 	addseq	fp, lr, r3, lsl #24
    1ac0:	52011800 	andpl	r1, r1, #0, 16
    1ac4:	a0180305 	andsge	r0, r8, r5, lsl #6
    1ac8:	01180000 	tsteq	r8, r0
    1acc:	b6080253 			; <UNDEFINED> instruction: 0xb6080253
    1ad0:	007d0218 	rsbseq	r0, sp, r8, lsl r2
    1ad4:	00007602 	andeq	r7, r0, r2, lsl #12
    1ad8:	0091c819 	addseq	ip, r1, r9, lsl r8
    1adc:	000c7600 	andeq	r7, ip, r0, lsl #12
    1ae0:	e31a0000 	tst	sl, #0, 0
    1ae4:	78000009 	stmdavc	r0, {r0, r3}
    1ae8:	0400008c 	streq	r0, [r0], #-140	; 0xffffff74
    1aec:	0000e800 	andeq	lr, r0, r0, lsl #16
    1af0:	0a940100 	beq	fe501ef8 <__bss_end__+0xfe4f78a0>
    1af4:	00000515 	andeq	r0, r0, r5, lsl r5
    1af8:	0009f41b 	andeq	pc, r9, fp, lsl r4	; <UNPREDICTABLE>
    1afc:	000de500 	andeq	lr, sp, r0, lsl #10
    1b00:	000de100 	andeq	lr, sp, r0, lsl #2
    1b04:	951a0000 	ldrls	r0, [sl, #-0]
    1b08:	60000008 	andvs	r0, r0, r8
    1b0c:	0100008e 	smlabbeq	r0, lr, r0, r0
    1b10:	00010800 	andeq	r0, r1, r0, lsl #16
    1b14:	09dc0100 	ldmibeq	ip, {r8}^
    1b18:	0000064b 	andeq	r0, r0, fp, asr #12
    1b1c:	0008be1b 	andeq	fp, r8, fp, lsl lr
    1b20:	000e1300 	andeq	r1, lr, r0, lsl #6
    1b24:	000e0d00 	andeq	r0, lr, r0, lsl #26
    1b28:	08e01b00 	stmiaeq	r0!, {r8, r9, fp, ip}^
    1b2c:	0e480000 	cdpeq	0, 4, cr0, cr8, cr0, {0}
    1b30:	0e420000 	cdpeq	0, 4, cr0, cr2, cr0, {0}
    1b34:	d41b0000 	ldrle	r0, [fp], #-0
    1b38:	7a000008 	bvc	1b60 <__code_start__-0x64a0>
    1b3c:	7400000e 	strvc	r0, [r0], #-14
    1b40:	1c00000e 	stcne	0, cr0, [r0], {14}
    1b44:	000008c8 	andeq	r0, r0, r8, asr #17
    1b48:	0008b21b 	andeq	fp, r8, fp, lsl r2
    1b4c:	000eab00 	andeq	sl, lr, r0, lsl #22
    1b50:	000ea300 	andeq	sl, lr, r0, lsl #6
    1b54:	08a61b00 	stmiaeq	r6!, {r8, r9, fp, ip}
    1b58:	0eee0000 	cdpeq	0, 14, cr0, cr14, cr0, {0}
    1b5c:	0ee80000 	cdpeq	0, 14, cr0, cr8, cr0, {0}
    1b60:	08130000 	ldmdaeq	r3, {}	; <UNPREDICTABLE>
    1b64:	1d000001 	stcne	0, cr0, [r0, #-4]
    1b68:	000008ec 	andeq	r0, r0, ip, ror #17
    1b6c:	7ed89103 	atnvce	f1, f3
    1b70:	0008f81e 	andeq	pc, r8, lr, lsl r8	; <UNPREDICTABLE>
    1b74:	000f2800 	andeq	r2, pc, r0, lsl #16
    1b78:	000f1a00 	andeq	r1, pc, r0, lsl #20
    1b7c:	09021f00 	stmdbeq	r2, {r8, r9, sl, fp, ip}
    1b80:	a31a0000 	tstge	sl, #0, 0
    1b84:	6c000009 	stcvs	0, cr0, [r0], {9}
    1b88:	0400008e 	streq	r0, [r0], #-142	; 0xffffff72
    1b8c:	00013800 	andeq	r3, r1, r0, lsl #16
    1b90:	097c0100 	ldmdbeq	ip!, {r8}^
    1b94:	000005e2 	andeq	r0, r0, r2, ror #11
    1b98:	0009ca1b 	andeq	ip, r9, fp, lsl sl
    1b9c:	000f9200 	andeq	r9, pc, r0, lsl #4
    1ba0:	000f8c00 	andeq	r8, pc, r0, lsl #24
    1ba4:	09be1b00 	ldmibeq	lr!, {r8, r9, fp, ip}
    1ba8:	0fc70000 	svceq	0x00c70000
    1bac:	0fbb0000 	svceq	0x00bb0000
    1bb0:	b41b0000 	ldrlt	r0, [fp], #-0
    1bb4:	2d000009 	stccs	0, cr0, [r0, #-36]	; 0xffffffdc
    1bb8:	1d000010 	stcne	0, cr0, [r0, #-64]	; 0xffffffc0
    1bbc:	13000010 	movwne	r0, #16
    1bc0:	00000138 	andeq	r0, r0, r8, lsr r1
    1bc4:	0009d61e 	andeq	sp, r9, lr, lsl r6
    1bc8:	0010aa00 	andseq	sl, r0, r0, lsl #20
    1bcc:	00109c00 	andseq	r9, r0, r0, lsl #24
    1bd0:	20000000 	andcs	r0, r0, r0
    1bd4:	0000094f 	andeq	r0, r0, pc, asr #18
    1bd8:	00008f34 	andeq	r8, r0, r4, lsr pc
    1bdc:	01680002 	cmneq	r8, r2
    1be0:	7c010000 	stcvc	0, cr0, [r1], {-0}
    1be4:	09801b09 	stmibeq	r0, {r0, r3, r8, r9, fp, ip}
    1be8:	110a0000 	mrsne	r0, (UNDEF: 10)
    1bec:	11040000 	mrsne	r0, (UNDEF: 4)
    1bf0:	761b0000 	ldrvc	r0, [fp], -r0
    1bf4:	40000009 	andmi	r0, r0, r9
    1bf8:	36000011 			; <UNDEFINED> instruction: 0x36000011
    1bfc:	1b000011 	blne	1c48 <__code_start__-0x63b8>
    1c00:	0000096c 	andeq	r0, r0, ip, ror #18
    1c04:	0000118f 	andeq	r1, r0, pc, lsl #3
    1c08:	0000118b 	andeq	r1, r0, fp, lsl #3
    1c0c:	0009601b 	andeq	r6, r9, fp, lsl r0
    1c10:	0011bf00 	andseq	fp, r1, r0, lsl #30
    1c14:	0011b100 	andseq	fp, r1, r0, lsl #2
    1c18:	01681300 	cmneq	r8, r0, lsl #6
    1c1c:	8c1e0000 	ldchi	0, cr0, [lr], {-0}
    1c20:	24000009 	strcs	r0, [r0], #-9
    1c24:	22000012 	andcs	r0, r0, #18, 0
    1c28:	1e000012 	mcrne	0, 0, r0, cr0, cr2, {0}
    1c2c:	00000998 	muleq	r0, r8, r9
    1c30:	0000123e 	andeq	r1, r0, lr, lsr r2
    1c34:	00001238 	andeq	r1, r0, r8, lsr r2
    1c38:	00000000 	andeq	r0, r0, r0
    1c3c:	0008951a 	andeq	r9, r8, sl, lsl r5
    1c40:	008f7000 	addeq	r7, pc, r0
    1c44:	98000000 	stmdals	r0, {}	; <UNPREDICTABLE>
    1c48:	01000001 	tsteq	r0, r1
    1c4c:	078909d6 			; <UNDEFINED> instruction: 0x078909d6
    1c50:	be1b0000 	cdplt	0, 1, cr0, cr11, cr0, {0}
    1c54:	71000008 	tstvc	r0, r8
    1c58:	6d000012 	stcvs	0, cr0, [r0, #-72]	; 0xffffffb8
    1c5c:	1b000012 	blne	1cac <__code_start__-0x6354>
    1c60:	000008e0 	andeq	r0, r0, r0, ror #17
    1c64:	00001297 	muleq	r0, r7, r2
    1c68:	00001293 	muleq	r0, r3, r2
    1c6c:	0008d41b 	andeq	sp, r8, fp, lsl r4
    1c70:	0012bb00 	andseq	fp, r2, r0, lsl #22
    1c74:	0012b700 	andseq	fp, r2, r0, lsl #14
    1c78:	08c81c00 	stmiaeq	r8, {sl, fp, ip}^
    1c7c:	b21b0000 	andslt	r0, fp, #0, 0
    1c80:	df000008 	svcle	0x00000008
    1c84:	d9000012 	stmdble	r0, {r1, r4}
    1c88:	1b000012 	blne	1cd8 <__code_start__-0x6328>
    1c8c:	000008a6 	andeq	r0, r0, r6, lsr #17
    1c90:	00001312 	andeq	r1, r0, r2, lsl r3
    1c94:	0000130e 	andeq	r1, r0, lr, lsl #6
    1c98:	00019813 	andeq	r9, r1, r3, lsl r8
    1c9c:	08ec1d00 	stmiaeq	ip!, {r8, sl, fp, ip}^
    1ca0:	91030000 	mrsls	r0, (UNDEF: 3)
    1ca4:	f81e7ed8 			; <UNDEFINED> instruction: 0xf81e7ed8
    1ca8:	3c000008 	stccc	0, cr0, [r0], {8}
    1cac:	32000013 	andcc	r0, r0, #19, 0
    1cb0:	1e000013 	mcrne	0, 0, r0, cr0, cr3, {0}
    1cb4:	00000902 	andeq	r0, r0, r2, lsl #18
    1cb8:	00001381 	andeq	r1, r0, r1, lsl #7
    1cbc:	0000137d 	andeq	r1, r0, sp, ror r3
    1cc0:	0009a31a 	andeq	sl, r9, sl, lsl r3
    1cc4:	008f8c00 	addeq	r8, pc, r0, lsl #24
    1cc8:	b8000300 	stmdalt	r0, {r8, r9}
    1ccc:	01000001 	tsteq	r0, r1
    1cd0:	0720097c 			; <UNDEFINED> instruction: 0x0720097c
    1cd4:	ca1b0000 	bgt	6c1cdc <__bss_end__+0x6b7684>
    1cd8:	a3000009 	movwge	r0, #9
    1cdc:	9f000013 	svcls	0x00000013
    1ce0:	1b000013 	blne	1d34 <__code_start__-0x62cc>
    1ce4:	000009be 			; <UNDEFINED> instruction: 0x000009be
    1ce8:	000013c5 	andeq	r1, r0, r5, asr #7
    1cec:	000013c1 	andeq	r1, r0, r1, asr #7
    1cf0:	0009b41b 	andeq	fp, r9, fp, lsl r4
    1cf4:	0013ef00 	andseq	lr, r3, r0, lsl #30
    1cf8:	0013e300 	andseq	lr, r3, r0, lsl #6
    1cfc:	01b81300 			; <UNDEFINED> instruction: 0x01b81300
    1d00:	d61e0000 	ldrle	r0, [lr], -r0
    1d04:	4b000009 	blmi	1d30 <__code_start__-0x62d0>
    1d08:	3f000014 	svccc	0x00000014
    1d0c:	00000014 	andeq	r0, r0, r4, lsl r0
    1d10:	094f2000 	stmdbeq	pc, {sp}^	; <UNPREDICTABLE>
    1d14:	90140000 	andsls	r0, r4, r0
    1d18:	00020000 	andeq	r0, r2, r0
    1d1c:	000001e0 	andeq	r0, r0, r0, ror #3
    1d20:	1b097c01 	blne	260d2c <__bss_end__+0x2566d4>
    1d24:	00000980 	andeq	r0, r0, r0, lsl #19
    1d28:	0000149b 	muleq	r0, fp, r4
    1d2c:	00001497 	muleq	r0, r7, r4
    1d30:	0009761b 	andeq	r7, r9, fp, lsl r6
    1d34:	0014c300 	andseq	ip, r4, r0, lsl #6
    1d38:	0014b900 	andseq	fp, r4, r0, lsl #18
    1d3c:	096c1b00 	stmdbeq	ip!, {r8, r9, fp, ip}^
    1d40:	150f0000 	strne	r0, [pc, #-0]	; 1d48 <__code_start__-0x62b8>
    1d44:	150b0000 	strne	r0, [fp, #-0]
    1d48:	601b0000 	andsvs	r0, fp, r0
    1d4c:	3d000009 	stccc	0, cr0, [r0, #-36]	; 0xffffffdc
    1d50:	31000015 	tstcc	r0, r5, lsl r0
    1d54:	13000015 	movwne	r0, #21
    1d58:	000001e0 	andeq	r0, r0, r0, ror #3
    1d5c:	00098c1e 	andeq	r8, r9, lr, lsl ip
    1d60:	00159700 	andseq	r9, r5, r0, lsl #14
    1d64:	00159300 	andseq	r9, r5, r0, lsl #6
    1d68:	09981e00 	ldmibeq	r8, {r9, sl, fp, ip}
    1d6c:	15bd0000 	ldrne	r0, [sp, #0]!
    1d70:	15b90000 	ldrne	r0, [r9, #0]!
    1d74:	00000000 	andeq	r0, r0, r0
    1d78:	40170000 	andsmi	r0, r7, r0
    1d7c:	a400008d 	strge	r0, [r0], #-141	; 0xffffff73
    1d80:	af00000a 	svcge	0x0000000a
    1d84:	18000007 	stmdane	r0, {r0, r1, r2}
    1d88:	40015001 	andmi	r5, r1, r1
    1d8c:	03510118 	cmpeq	r1, #6
    1d90:	187dd091 	ldmdane	sp!, {r0, r4, r7, ip, lr, pc}^
    1d94:	75025301 	strvc	r5, [r2, #-769]	; 0xfffffcff
    1d98:	7d021800 	stcvc	8, cr1, [r2, #-0]
    1d9c:	00300100 	eorseq	r0, r0, r0, lsl #2
    1da0:	008e5017 	addeq	r5, lr, r7, lsl r0
    1da4:	000aa400 	andeq	sl, sl, r0, lsl #8
    1da8:	0007cf00 	andeq	ip, r7, r0, lsl #30
    1dac:	50011800 	andpl	r1, r1, r0, lsl #16
    1db0:	01183a01 	tsteq	r8, r1, lsl #20
    1db4:	d0910351 	addsle	r0, r1, r1, asr r3
    1db8:	5301187d 	movwpl	r1, #6269	; 0x187d
    1dbc:	00007502 	andeq	r7, r0, r2, lsl #10
    1dc0:	00913417 	addseq	r3, r1, r7, lsl r4
    1dc4:	000c4600 	andeq	r4, ip, r0, lsl #12
    1dc8:	0007e600 	andeq	lr, r7, r0, lsl #12
    1dcc:	50011800 	andpl	r1, r1, r0, lsl #16
    1dd0:	9fb00305 	svcls	0x00b00305
    1dd4:	21000000 	mrscs	r0, (UNDEF: 0)
    1dd8:	00009144 	andeq	r9, r0, r4, asr #2
    1ddc:	000007f8 	strdeq	r0, [r0], -r8
    1de0:	04500118 	ldrbeq	r0, [r0], #-280	; 0xfffffee8
    1de4:	067dc891 			; <UNDEFINED> instruction: 0x067dc891
    1de8:	91581700 	cmpls	r8, r0, lsl #14
    1dec:	0c460000 	mareq	acc0, r0, r6
    1df0:	08270000 	stmdaeq	r7!, {}	; <UNPREDICTABLE>
    1df4:	01180000 	tsteq	r8, r0
    1df8:	e0030550 	and	r0, r3, r0, asr r5
    1dfc:	1800009f 	stmdane	r0, {r0, r1, r2, r3, r4, r7}
    1e00:	03055101 	movweq	r5, #20737	; 0x5101
    1e04:	00009ebc 			; <UNDEFINED> instruction: 0x00009ebc
    1e08:	05520118 	ldrbeq	r0, [r2, #-280]	; 0xfffffee8
    1e0c:	00a01803 	adceq	r1, r0, r3, lsl #16
    1e10:	53011800 	movwpl	r1, #6144	; 0x1800
    1e14:	00e20802 	rsceq	r0, r2, r2, lsl #16
    1e18:	00915c19 	addseq	r5, r1, r9, lsl ip
    1e1c:	000c7600 	andeq	r7, ip, r0, lsl #12
    1e20:	91701700 	cmnls	r0, r0, lsl #14
    1e24:	0c460000 	mareq	acc0, r0, r6
    1e28:	085f0000 	ldmdaeq	pc, {}^	; <UNPREDICTABLE>
    1e2c:	01180000 	tsteq	r8, r0
    1e30:	88030550 	stmdahi	r3, {r4, r6, r8, sl}
    1e34:	1800009f 	stmdane	r0, {r0, r1, r2, r3, r4, r7}
    1e38:	03055101 	movweq	r5, #20737	; 0x5101
    1e3c:	00009ebc 			; <UNDEFINED> instruction: 0x00009ebc
    1e40:	05520118 	ldrbeq	r0, [r2, #-280]	; 0xfffffee8
    1e44:	00a01803 	adceq	r1, r0, r3, lsl #16
    1e48:	53011800 	movwpl	r1, #6144	; 0x1800
    1e4c:	00be0802 	adcseq	r0, lr, r2, lsl #16
    1e50:	00917419 	addseq	r7, r1, r9, lsl r4
    1e54:	000c7600 	andeq	r7, ip, r0, lsl #12
    1e58:	08000000 	stmdaeq	r0, {}	; <UNPREDICTABLE>
    1e5c:	0000b904 	andeq	fp, r0, r4, lsl #18
    1e60:	00c02200 	sbceq	r2, r0, r0, lsl #4
    1e64:	08800000 	stmeq	r0, {}	; <UNPREDICTABLE>
    1e68:	2c230000 	stccs	0, cr0, [r3], #-0
    1e6c:	09000000 	stmdbeq	r0, {}	; <UNPREDICTABLE>
    1e70:	08700900 	ldmdaeq	r0!, {r8, fp}^
    1e74:	b9220000 	stmdblt	r2!, {}	; <UNPREDICTABLE>
    1e78:	95000000 	strls	r0, [r0, #-0]
    1e7c:	23000008 	movwcs	r0, #8
    1e80:	0000002c 	andeq	r0, r0, ip, lsr #32
    1e84:	7a24007f 	bvc	902088 <__bss_end__+0x8f7a30>
    1e88:	01000005 	tsteq	r0, r5
    1e8c:	086a0149 	stmdaeq	sl!, {r0, r3, r6, r8}^
    1e90:	2a010000 	bcs	41e98 <__bss_end__+0x37840>
    1e94:	25000009 	strcs	r0, [r0, #-9]
    1e98:	00000216 	andeq	r0, r0, r6, lsl r2
    1e9c:	2c0f4901 			; <UNDEFINED> instruction: 0x2c0f4901
    1ea0:	26000000 	strcs	r0, [r0], -r0
    1ea4:	00747364 	rsbseq	r7, r4, r4, ror #6
    1ea8:	6a1b4901 	bvs	6d42b4 <__bss_end__+0x6c9c5c>
    1eac:	26000008 	strcs	r0, [r0], -r8
    1eb0:	4901006e 	stmdbmi	r1, {r1, r2, r3, r5, r6}
    1eb4:	00003324 	andeq	r3, r0, r4, lsr #6
    1eb8:	61762600 	cmnvs	r6, r0, lsl #12
    1ebc:	4901006c 	stmdbmi	r1, {r2, r3, r5, r6}
    1ec0:	0000332b 	andeq	r3, r0, fp, lsr #6
    1ec4:	050a2500 	streq	r2, [sl, #-1280]	; 0xfffffb00
    1ec8:	49010000 	stmdbmi	r1, {}	; <UNPREDICTABLE>
    1ecc:	00003334 	andeq	r3, r0, r4, lsr r3
    1ed0:	05bf2500 	ldreq	r2, [pc, #1280]!	; 23d8 <__code_start__-0x5c28>
    1ed4:	49010000 	stmdbmi	r1, {}	; <UNPREDICTABLE>
    1ed8:	0000333f 	andeq	r3, r0, pc, lsr r3
    1edc:	75622700 	strbvc	r2, [r2, #-1792]!	; 0xfffff900
    1ee0:	4e010066 	cdpmi	0, 0, cr0, cr1, cr6, {3}
    1ee4:	00092a07 	andeq	r2, r9, r7, lsl #20
    1ee8:	00702700 	rsbseq	r2, r0, r0, lsl #14
    1eec:	6a114e01 	bvs	4556f8 <__bss_end__+0x44b0a0>
    1ef0:	27000008 	strcs	r0, [r0, -r8]
    1ef4:	4f010075 	svcmi	0x00010075
    1ef8:	00002c0b 	andeq	r2, r0, fp, lsl #24
    1efc:	005e1200 	subseq	r1, lr, r0, lsl #4
    1f00:	094a0000 	stmdbeq	sl, {}^	; <UNPREDICTABLE>
    1f04:	03050000 	movweq	r0, #20480	; 0x5000
    1f08:	0000a000 	andeq	sl, r0, r0
    1f0c:	05672928 	strbeq	r2, [r7, #-2344]!	; 0xfffff6d8
    1f10:	54010000 	strpl	r0, [r1], #-0
    1f14:	00002c0d 	andeq	r2, r0, sp, lsl #24
    1f18:	22000000 	andcs	r0, r0, #0, 0
    1f1c:	000000b9 	strheq	r0, [r0], -r9
    1f20:	0000093a 	andeq	r0, r0, sl, lsr r9
    1f24:	00002c23 	andeq	r2, r0, r3, lsr #24
    1f28:	22003f00 	andcs	r3, r0, #0, 30
    1f2c:	000000c0 	andeq	r0, r0, r0, asr #1
    1f30:	0000094a 	andeq	r0, r0, sl, asr #18
    1f34:	00002c23 	andeq	r2, r0, r3, lsr #24
    1f38:	09000400 	stmdbeq	r0, {sl}
    1f3c:	0000093a 	andeq	r0, r0, sl, lsr r9
    1f40:	00057f24 	andeq	r7, r5, r4, lsr #30
    1f44:	0e380100 	rsfeqe	f0, f0, f0
    1f48:	0000086a 	andeq	r0, r0, sl, ror #16
    1f4c:	0009a301 	andeq	sl, r9, r1, lsl #6
    1f50:	73642600 	cmnvc	r4, #0, 12
    1f54:	38010074 	stmdacc	r1, {r2, r4, r5, r6}
    1f58:	00086a1c 	andeq	r6, r8, ip, lsl sl
    1f5c:	006e2600 	rsbeq	r2, lr, r0, lsl #12
    1f60:	33253801 			; <UNDEFINED> instruction: 0x33253801
    1f64:	26000000 	strcs	r0, [r0], -r0
    1f68:	38010070 	stmdacc	r1, {r4, r5, r6}
    1f6c:	00086a2e 	andeq	r6, r8, lr, lsr #20
    1f70:	094f2500 	stmdbeq	pc, {r8, sl, sp}^	; <UNPREDICTABLE>
    1f74:	38010000 	stmdacc	r1, {}	; <UNPREDICTABLE>
    1f78:	00086a37 	andeq	r6, r8, r7, lsr sl
    1f7c:	656c2700 	strbvs	r2, [ip, #-1792]!	; 0xfffff900
    1f80:	3a01006e 	bcc	42140 <__bss_end__+0x37ae8>
    1f84:	00003306 	andeq	r3, r0, r6, lsl #6
    1f88:	00732700 	rsbseq	r2, r3, r0, lsl #14
    1f8c:	6a083e01 	bvs	211798 <__bss_end__+0x207140>
    1f90:	00000008 	andeq	r0, r0, r8
    1f94:	6461702a 	strbtvs	r7, [r1], #-42	; 0xffffffd6
    1f98:	0e2e0100 	sufeqe	f0, f6, f0
    1f9c:	0000086a 	andeq	r0, r0, sl, ror #16
    1fa0:	0009e301 	andeq	lr, r9, r1, lsl #6
    1fa4:	00702600 	rsbseq	r2, r0, r0, lsl #12
    1fa8:	6a182e01 	bvs	60d7b4 <__bss_end__+0x60315c>
    1fac:	25000008 	strcs	r0, [r0, #-8]
    1fb0:	00000216 	andeq	r0, r0, r6, lsl r2
    1fb4:	6a222e01 	bvs	88d7c0 <__bss_end__+0x883168>
    1fb8:	25000008 	strcs	r0, [r0, #-8]
    1fbc:	0000050a 	andeq	r0, r0, sl, lsl #10
    1fc0:	332c2e01 			; <UNDEFINED> instruction: 0x332c2e01
    1fc4:	27000000 	strcs	r0, [r0, -r0]
    1fc8:	006e656c 	rsbeq	r6, lr, ip, ror #10
    1fcc:	33062f01 	movwcc	r2, #28417	; 0x6f01
    1fd0:	00000000 	andeq	r0, r0, r0
    1fd4:	0004c924 	andeq	ip, r4, r4, lsr #18
    1fd8:	0c270100 	stfeqs	f0, [r7], #-0
    1fdc:	00000033 	andeq	r0, r0, r3, lsr r0
    1fe0:	0009ff01 	andeq	pc, r9, r1, lsl #30
    1fe4:	00632600 	rsbeq	r2, r3, r0, lsl #12
    1fe8:	33182701 	tstcc	r8, #262144	; 0x40000
    1fec:	00000000 	andeq	r0, r0, r0
    1ff0:	0005402b 	andeq	r4, r5, fp, lsr #32
    1ff4:	061f0100 	ldreq	r0, [pc], -r0, lsl #2
    1ff8:	00008b8c 	andeq	r8, r0, ip, lsl #23
    1ffc:	00000060 	andeq	r0, r0, r0, rrx
    2000:	0a8f9c01 	beq	fe3e900c <__bss_end__+0xfe3de9b4>
    2004:	1d0f0000 	stcne	0, cr0, [pc, #-0]	; 200c <__code_start__-0x5ff4>
    2008:	01000005 	tsteq	r0, r5
    200c:	009e1b1f 	addseq	r1, lr, pc, lsl fp
    2010:	15e20000 	strbne	r0, [r2, #0]!
    2014:	15de0000 	ldrbne	r0, [lr]
    2018:	8e0f0000 	cdphi	0, 0, cr0, cr15, cr0, {0}
    201c:	01000005 	tsteq	r0, r5
    2020:	00d1301f 	sbcseq	r3, r1, pc, lsl r0
    2024:	16070000 	strne	r0, [r7], -r0
    2028:	16030000 	strne	r0, [r3], -r0
    202c:	5e120000 	cdppl	0, 1, cr0, cr2, cr0, {0}
    2030:	9f000000 	svcls	0x00000000
    2034:	0500000a 	streq	r0, [r0, #-10]
    2038:	00a00803 	adceq	r0, r0, r3, lsl #16
    203c:	8bd01700 	blhi	ff407c44 <__bss_end__+0xff3fd5ec>
    2040:	0c460000 	mareq	acc0, r0, r6
    2044:	0a850000 	beq	fe14204c <__bss_end__+0xfe1379f4>
    2048:	01180000 	tsteq	r8, r0
    204c:	58030550 	stmdapl	r3, {r4, r6, r8, sl}
    2050:	1800009d 	stmdane	r0, {r0, r2, r3, r4, r7}
    2054:	03055101 	movweq	r5, #20737	; 0x5101
    2058:	00009ebc 			; <UNDEFINED> instruction: 0x00009ebc
    205c:	05520118 	ldrbeq	r0, [r2, #-280]	; 0xfffffee8
    2060:	00a00803 	adceq	r0, r0, r3, lsl #16
    2064:	53011800 	movwpl	r1, #6144	; 0x1800
    2068:	18200802 	stmdane	r0!, {r1, fp}
    206c:	05007d02 	streq	r7, [r0, #-3330]	; 0xfffff2fe
    2070:	009ef803 	addseq	pc, lr, r3, lsl #16
    2074:	d4190000 	ldrle	r0, [r9], #-0
    2078:	7600008b 	strvc	r0, [r0], -fp, lsl #1
    207c:	0000000c 	andeq	r0, r0, ip
    2080:	0000c022 	andeq	ip, r0, r2, lsr #32
    2084:	000a9f00 	andeq	r9, sl, r0, lsl #30
    2088:	002c2300 	eoreq	r2, ip, r0, lsl #6
    208c:	000e0000 	andeq	r0, lr, r0
    2090:	000a8f09 	andeq	r8, sl, r9, lsl #30
    2094:	08952c00 	ldmeq	r5, {sl, fp, sp}
    2098:	88640000 	stmdahi	r4!, {}^	; <UNPREDICTABLE>
    209c:	03280000 			; <UNDEFINED> instruction: 0x03280000
    20a0:	9c010000 	stcls	0, cr0, [r1], {-0}
    20a4:	00000c3a 	andeq	r0, r0, sl, lsr ip
    20a8:	0008a61b 	andeq	sl, r8, fp, lsl r6
    20ac:	00164000 	andseq	r4, r6, r0
    20b0:	00162800 	andseq	r2, r6, r0, lsl #16
    20b4:	08b21b00 	ldmeq	r2!, {r8, r9, fp, ip}
    20b8:	16ea0000 	strbtne	r0, [sl], r0
    20bc:	16e20000 	strbtne	r0, [r2], r0
    20c0:	c81b0000 	ldmdagt	fp, {}	; <UNPREDICTABLE>
    20c4:	41000008 	tstmi	r0, r8
    20c8:	21000017 	tstcs	r0, r7, lsl r0
    20cc:	1b000017 	blne	2130 <__code_start__-0x5ed0>
    20d0:	000008d4 	ldrdeq	r0, [r0], -r4
    20d4:	00001817 	andeq	r1, r0, r7, lsl r8
    20d8:	00001809 	andeq	r1, r0, r9, lsl #16
    20dc:	0008e02d 	andeq	lr, r8, sp, lsr #32
    20e0:	00910200 	addseq	r0, r1, r0, lsl #4
    20e4:	0008ec1d 	andeq	lr, r8, sp, lsl ip
    20e8:	a8910300 	ldmge	r1, {r8, r9}
    20ec:	08f81e7f 	ldmeq	r8!, {r0, r1, r2, r3, r4, r5, r6, r9, sl, fp, ip}^
    20f0:	18ab0000 	stmiane	fp!, {}	; <UNPREDICTABLE>
    20f4:	18770000 	ldmdane	r7!, {}^	; <UNPREDICTABLE>
    20f8:	021e0000 	andseq	r0, lr, #0, 0
    20fc:	12000009 	andne	r0, r0, #9, 0
    2100:	f000001a 			; <UNDEFINED> instruction: 0xf000001a
    2104:	2e000019 	mcrcs	0, 0, r0, cr0, cr9, {0}
    2108:	000008be 			; <UNDEFINED> instruction: 0x000008be
    210c:	09a31a80 	stmibeq	r3!, {r7, r9, fp, ip}
    2110:	89080000 	stmdbhi	r8, {}	; <UNPREDICTABLE>
    2114:	00040000 	andeq	r0, r4, r0
    2118:	00000030 	andeq	r0, r0, r0, lsr r0
    211c:	6d097c01 	stcvs	12, cr7, [r9, #-4]
    2120:	1b00000b 	blne	2154 <__code_start__-0x5eac>
    2124:	000009ca 	andeq	r0, r0, sl, asr #19
    2128:	00001afa 	strdeq	r1, [r0], -sl
    212c:	00001af0 	strdeq	r1, [r0], -r0
    2130:	0009be1b 	andeq	fp, r9, fp, lsl lr
    2134:	001b4e00 	andseq	r4, fp, r0, lsl #28
    2138:	001b3e00 	andseq	r3, fp, r0, lsl #28
    213c:	09b41b00 	ldmibeq	r4!, {r8, r9, fp, ip}
    2140:	1bce0000 	blne	ff382148 <__bss_end__+0xff377af0>
    2144:	1bba0000 	blne	fee8214c <__bss_end__+0xfee77af4>
    2148:	30130000 	andscc	r0, r3, r0
    214c:	1e000000 	cdpne	0, 0, cr0, cr0, cr0, {0}
    2150:	000009d6 	ldrdeq	r0, [r0], -r6
    2154:	00001c60 	andeq	r1, r0, r0, ror #24
    2158:	00001c50 	andeq	r1, r0, r0, asr ip
    215c:	4f1a0000 	svcmi	0x001a0000
    2160:	c0000009 	andgt	r0, r0, r9
    2164:	02000089 	andeq	r0, r0, #137, 0	; 0x89
    2168:	00007800 	andeq	r7, r0, r0, lsl #16
    216c:	097c0100 	ldmdbeq	ip!, {r8}^
    2170:	00000bd8 	ldrdeq	r0, [r0], -r8
    2174:	0009801b 	andeq	r8, r9, fp, lsl r0
    2178:	001ccc00 	andseq	ip, ip, r0, lsl #24
    217c:	001cc400 	andseq	ip, ip, r0, lsl #8
    2180:	09761b00 	ldmdbeq	r6!, {r8, r9, fp, ip}^
    2184:	1d0b0000 	stcne	0, cr0, [fp, #-0]
    2188:	1d030000 	stcne	0, cr0, [r3, #-0]
    218c:	6c1b0000 	ldcvs	0, cr0, [fp], {-0}
    2190:	4a000009 	bmi	21bc <__code_start__-0x5e44>
    2194:	4600001d 			; <UNDEFINED> instruction: 0x4600001d
    2198:	1b00001d 	blne	2214 <__code_start__-0x5dec>
    219c:	00000960 	andeq	r0, r0, r0, ror #18
    21a0:	00001d7a 	andeq	r1, r0, sl, ror sp
    21a4:	00001d6c 	andeq	r1, r0, ip, ror #26
    21a8:	00007813 	andeq	r7, r0, r3, lsl r8
    21ac:	098c1e00 	stmibeq	ip, {r9, sl, fp, ip}
    21b0:	1ddf0000 	ldclne	0, cr0, [pc]	; 21b8 <__code_start__-0x5e48>
    21b4:	1dd90000 	ldclne	0, cr0, [r9]
    21b8:	981e0000 	ldmdals	lr, {}	; <UNPREDICTABLE>
    21bc:	11000009 	tstne	r0, r9
    21c0:	0d00001e 	stceq	0, cr0, [r0, #-120]	; 0xffffff88
    21c4:	0000001e 	andeq	r0, r0, lr, lsl r0
    21c8:	091b2f00 	ldmdbeq	fp, {r8, r9, sl, fp, sp}
    21cc:	8a780000 	bhi	1e021d4 <__bss_end__+0x1df7b7c>
    21d0:	00600000 	rsbeq	r0, r0, r0
    21d4:	0bf70000 	bleq	ffdc21dc <__bss_end__+0xffdb7b84>
    21d8:	1c1e0000 	ldcne	0, cr0, [lr], {-0}
    21dc:	33000009 	movwcc	r0, #9
    21e0:	2f00001e 	svccs	0x0000001e
    21e4:	0000001e 	andeq	r0, r0, lr, lsl r0
    21e8:	008b4c17 	addeq	r4, fp, r7, lsl ip
    21ec:	000c4600 	andeq	r4, ip, r0, lsl #12
    21f0:	000c3000 	andeq	r3, ip, r0
    21f4:	50011800 	andpl	r1, r1, r0, lsl #16
    21f8:	9d580305 	ldclls	3, cr0, [r8, #-20]	; 0xffffffec
    21fc:	01180000 	tsteq	r8, r0
    2200:	bc030551 	cfstr32lt	mvfx0, [r3], {81}	; 0x51
    2204:	1800009e 	stmdane	r0, {r1, r2, r3, r4, r7}
    2208:	03055201 	movweq	r5, #20993	; 0x5201
    220c:	0000a000 	andeq	sl, r0, r0
    2210:	02530118 	subseq	r0, r3, #6
    2214:	02187908 	andseq	r7, r8, #8, 18	; 0x20000
    2218:	0305007d 	movweq	r0, #20605	; 0x507d
    221c:	00009ed0 	ldrdeq	r9, [r0], -r0
    2220:	8b501900 	blhi	1408628 <__bss_end__+0x13fdfd0>
    2224:	0c760000 	ldcleq	0, cr0, [r6], #-0
    2228:	30000000 	andcc	r0, r0, r0
    222c:	000005b7 			; <UNDEFINED> instruction: 0x000005b7
    2230:	000005b7 			; <UNDEFINED> instruction: 0x000005b7
    2234:	3005eb03 	andcc	lr, r5, r3, lsl #22
    2238:	0000043f 	andeq	r0, r0, pc, lsr r4
    223c:	0000043f 	andeq	r0, r0, pc, lsr r4
    2240:	30062803 	andcc	r2, r6, r3, lsl #16
    2244:	00000559 	andeq	r0, r0, r9, asr r5
    2248:	00000559 	andeq	r0, r0, r9, asr r5
    224c:	3007ee03 	andcc	lr, r7, r3, lsl #28
    2250:	00000587 	andeq	r0, r0, r7, lsl #11
    2254:	00000587 	andeq	r0, r0, r7, lsl #11
    2258:	3005ea03 	andcc	lr, r5, r3, lsl #20
    225c:	00000560 	andeq	r0, r0, r0, ror #10
    2260:	00000560 	andeq	r0, r0, r0, ror #10
    2264:	3007ed03 	andcc	lr, r7, r3, lsl #26
    2268:	00000029 	andeq	r0, r0, r9, lsr #32
    226c:	00000029 	andeq	r0, r0, r9, lsr #32
    2270:	00066e03 	andeq	r6, r6, r3, lsl #28
    2274:	0000012f 	andeq	r0, r0, pc, lsr #2
    2278:	0d3a0004 	ldceq	0, cr0, [sl, #-16]!
    227c:	01040000 	mrseq	r0, (UNDEF: 4)
    2280:	0000035d 	andeq	r0, r0, sp, asr r3
    2284:	0005dc0c 	andeq	sp, r5, ip, lsl #24
    2288:	00041500 	andeq	r1, r4, r0, lsl #10
    228c:	00921800 	addseq	r1, r2, r0, lsl #16
    2290:	00002c00 	andeq	r2, r0, r0, lsl #24
    2294:	00152800 	andseq	r2, r5, r0, lsl #16
    2298:	05040200 	streq	r0, [r4, #-512]	; 0xfffffe00
    229c:	00746e69 	rsbseq	r6, r4, r9, ror #28
    22a0:	8d070403 	cfstrshi	mvf0, [r7, #-12]
    22a4:	03000000 	movweq	r0, #0
    22a8:	001d0601 	andseq	r0, sp, r1, lsl #12
    22ac:	02030000 	andeq	r0, r3, #0, 0
    22b0:	00010305 	andeq	r0, r1, r5, lsl #6
    22b4:	05040300 	streq	r0, [r4, #-768]	; 0xfffffd00
    22b8:	000000b7 	strheq	r0, [r0], -r7
    22bc:	b2050803 	andlt	r0, r5, #196608	; 0x30000
    22c0:	03000000 	movweq	r0, #0
    22c4:	001b0801 	andseq	r0, fp, r1, lsl #16
    22c8:	02030000 	andeq	r0, r3, #0, 0
    22cc:	00003607 	andeq	r3, r0, r7, lsl #12
    22d0:	07040300 	streq	r0, [r4, -r0, lsl #6]
    22d4:	00000088 	andeq	r0, r0, r8, lsl #1
    22d8:	83070803 	movwhi	r0, #30723	; 0x7803
    22dc:	04000000 	streq	r0, [r0], #-0
    22e0:	00000025 	andeq	r0, r0, r5, lsr #32
    22e4:	0000007a 	andeq	r0, r0, sl, ror r0
    22e8:	00002505 	andeq	r2, r0, r5, lsl #10
    22ec:	c0060000 	andgt	r0, r6, r0
    22f0:	02000000 	andeq	r0, r0, #0, 0
    22f4:	00860e1c 	addeq	r0, r6, ip, lsl lr
    22f8:	04070000 	streq	r0, [r7], #-0
    22fc:	0000006b 	andeq	r0, r0, fp, rrx
    2300:	00002504 	andeq	r2, r0, r4, lsl #10
    2304:	00009b00 	andeq	r9, r0, r0, lsl #22
    2308:	009b0500 	addseq	r0, fp, r0, lsl #10
    230c:	07000000 	streq	r0, [r0, -r0]
    2310:	0000a804 	andeq	sl, r0, r4, lsl #16
    2314:	08010300 	stmdaeq	r1, {r8, r9}
    2318:	00000024 	andeq	r0, r0, r4, lsr #32
    231c:	0000a108 	andeq	sl, r0, r8, lsl #2
    2320:	04b60600 	ldrteq	r0, [r6], #1536	; 0x600
    2324:	21020000 	mrscs	r0, (UNDEF: 2)
    2328:	0000b90e 	andeq	fp, r0, lr, lsl #18
    232c:	8c040700 	stchi	7, cr0, [r4], {-0}
    2330:	09000000 	stmdbeq	r0, {}	; <UNPREDICTABLE>
    2334:	00000029 	andeq	r0, r0, r9, lsr #32
    2338:	18060401 	stmdane	r6, {r0, sl}
    233c:	2c000092 	stccs	0, cr0, [r0], {146}	; 0x92
    2340:	01000000 	mrseq	r0, (UNDEF: 0)
    2344:	00010e9c 	muleq	r1, ip, lr
    2348:	922c0a00 	eorls	r0, ip, #0, 20
    234c:	00e80000 	rsceq	r0, r8, r0
    2350:	010b0000 	mrseq	r0, (UNDEF: 11)
    2354:	24030550 	strcs	r0, [r3], #-1360	; 0xfffffab0
    2358:	000000a0 	andeq	r0, r0, r0, lsr #1
    235c:	0092300c 	addseq	r3, r2, ip
    2360:	00010e00 	andeq	r0, r1, r0, lsl #28
    2364:	92380d00 	eorsls	r0, r8, #0, 26
    2368:	011a0000 	tsteq	sl, r0
    236c:	01040000 	mrseq	r0, (UNDEF: 4)
    2370:	010b0000 	mrseq	r0, (UNDEF: 11)
    2374:	003a0150 	eorseq	r0, sl, r0, asr r1
    2378:	00923c0c 	addseq	r3, r2, ip, lsl #24
    237c:	00012600 	andeq	r2, r1, r0, lsl #12
    2380:	f70e0000 			; <UNDEFINED> instruction: 0xf70e0000
    2384:	f7000005 			; <UNDEFINED> instruction: 0xf7000005
    2388:	02000005 	andeq	r0, r0, #5, 0
    238c:	d30e064d 	movwle	r0, #58957	; 0xe64d
    2390:	d3000005 	movwle	r0, #5
    2394:	02000005 	andeq	r0, r0, #5, 0
    2398:	c80e0658 	stmdagt	lr, {r3, r4, r6, r9, sl}
    239c:	c8000005 	stmdagt	r0, {r0, r2}
    23a0:	02000005 	andeq	r0, r0, #5, 0
    23a4:	9000066b 	andls	r0, r0, fp, ror #12
    23a8:	04000001 	streq	r0, [r0], #-1
    23ac:	000dfa00 	andeq	pc, sp, r0, lsl #20
    23b0:	5d010400 	cfstrspl	mvf0, [r1, #-0]
    23b4:	0c000003 	stceq	0, cr0, [r0], {3}
    23b8:	0000062d 	andeq	r0, r0, sp, lsr #12
    23bc:	00000415 	andeq	r0, r0, r5, lsl r4
    23c0:	00009244 	andeq	r9, r0, r4, asr #4
    23c4:	000000f8 	strdeq	r0, [r0], -r8
    23c8:	000015b3 			; <UNDEFINED> instruction: 0x000015b3
    23cc:	69050402 	stmdbvs	r5, {r1, sl}
    23d0:	0300746e 	movweq	r7, #1134	; 0x46e
    23d4:	008d0704 	addeq	r0, sp, r4, lsl #14
    23d8:	01030000 	mrseq	r0, (UNDEF: 3)
    23dc:	00001d06 	andeq	r1, r0, r6, lsl #26
    23e0:	05020300 	streq	r0, [r2, #-768]	; 0xfffffd00
    23e4:	00000103 	andeq	r0, r0, r3, lsl #2
    23e8:	b7050403 	strlt	r0, [r5, -r3, lsl #8]
    23ec:	03000000 	movweq	r0, #0
    23f0:	00b20508 	adcseq	r0, r2, r8, lsl #10
    23f4:	01030000 	mrseq	r0, (UNDEF: 3)
    23f8:	00001b08 	andeq	r1, r0, r8, lsl #22
    23fc:	07020300 	streq	r0, [r2, -r0, lsl #6]
    2400:	00000036 	andeq	r0, r0, r6, lsr r0
    2404:	88070403 	stmdahi	r7, {r0, r1, sl}
    2408:	03000000 	movweq	r0, #0
    240c:	00830708 	addeq	r0, r3, r8, lsl #14
    2410:	25040000 	strcs	r0, [r4, #-0]
    2414:	7a000000 	bvc	241c <__code_start__-0x5be4>
    2418:	05000000 	streq	r0, [r0, #-0]
    241c:	00000025 	andeq	r0, r0, r5, lsr #32
    2420:	00c00600 	sbceq	r0, r0, r0, lsl #12
    2424:	1c020000 	stcne	0, cr0, [r2], {-0}
    2428:	0000860e 	andeq	r8, r0, lr, lsl #12
    242c:	6b040700 	blvs	104034 <__bss_end__+0xf99dc>
    2430:	04000000 	streq	r0, [r0], #-0
    2434:	00000025 	andeq	r0, r0, r5, lsr #32
    2438:	0000009b 	muleq	r0, fp, r0
    243c:	00009b05 	andeq	r9, r0, r5, lsl #22
    2440:	04070000 	streq	r0, [r7], #-0
    2444:	000000a8 	andeq	r0, r0, r8, lsr #1
    2448:	24080103 	strcs	r0, [r8], #-259	; 0xfffffefd
    244c:	08000000 	stmdaeq	r0, {}	; <UNPREDICTABLE>
    2450:	000000a1 	andeq	r0, r0, r1, lsr #1
    2454:	0004b606 	andeq	fp, r4, r6, lsl #12
    2458:	0e210200 	cdpeq	2, 2, cr0, cr1, cr0, {0}
    245c:	000000b9 	strheq	r0, [r0], -r9
    2460:	008c0407 	addeq	r0, ip, r7, lsl #8
    2464:	05090000 	streq	r0, [r9, #-0]
    2468:	01000006 	tsteq	r0, r6
    246c:	92440604 	subls	r0, r4, #4, 12	; 0x400000
    2470:	00f80000 	rscseq	r0, r8, r0
    2474:	9c010000 	stcls	0, cr0, [r1], {-0}
    2478:	0000015b 	andeq	r0, r0, fp, asr r1
    247c:	0004fc06 	andeq	pc, r4, r6, lsl #24
    2480:	10050100 	andne	r0, r5, r0, lsl #2
    2484:	00000025 	andeq	r0, r0, r5, lsr #32
    2488:	00052506 	andeq	r2, r5, r6, lsl #10
    248c:	1f050100 	svcne	0x00050100
    2490:	00000025 	andeq	r0, r0, r5, lsr #32
    2494:	00000e0a 	andeq	r0, r0, sl, lsl #28
    2498:	07060100 	streq	r0, [r6, -r0, lsl #2]
    249c:	7373620b 	cmnvc	r3, #-1342177280	; 0xb0000000
    24a0:	0a0a0100 	beq	2828a8 <__bss_end__+0x278250>
    24a4:	0000015b 	andeq	r0, r0, fp, asr r1
    24a8:	00001e6b 	andeq	r1, r0, fp, ror #28
    24ac:	00001e53 	andeq	r1, r0, r3, asr lr
    24b0:	00060d0c 	andeq	r0, r6, ip, lsl #26
    24b4:	0a0b0100 	beq	2c28bc <__bss_end__+0x2b8264>
    24b8:	0000015b 	andeq	r0, r0, fp, asr r1
    24bc:	00931c0d 	addseq	r1, r3, sp, lsl #24
    24c0:	00000800 	andeq	r0, r0, r0, lsl #16
    24c4:	00013600 	andeq	r3, r1, r0, lsl #12
    24c8:	6e690b00 	vmulvs.f64	d16, d9, d0
    24cc:	05140100 	ldreq	r0, [r4, #-256]	; 0xffffff00
    24d0:	0000002c 	andeq	r0, r0, ip, lsr #32
    24d4:	00001f05 	andeq	r1, r0, r5, lsl #30
    24d8:	00001f03 	andeq	r1, r0, r3, lsl #30
    24dc:	924c0e00 	subls	r0, ip, #0, 28
    24e0:	01610000 	cmneq	r1, r0
    24e4:	1c0e0000 	stcne	0, cr0, [lr], {-0}
    24e8:	6e000093 	mcrvs	0, 0, r0, cr0, cr3, {4}
    24ec:	0e000001 	cdpeq	0, 0, cr0, cr0, cr1, {0}
    24f0:	00009328 	andeq	r9, r0, r8, lsr #6
    24f4:	0000017a 	andeq	r0, r0, sl, ror r1
    24f8:	00932c0e 	addseq	r2, r3, lr, lsl #24
    24fc:	00018700 	andeq	r8, r1, r0, lsl #14
    2500:	04070000 	streq	r0, [r7], #-0
    2504:	00000025 	andeq	r0, r0, r5, lsr #32
    2508:	00061f0f 	andeq	r1, r6, pc, lsl #30
    250c:	00061f00 	andeq	r1, r6, r0, lsl #30
    2510:	01310200 	teqeq	r1, r0, lsl #4
    2514:	06151006 	ldreq	r1, [r5], -r6
    2518:	06150000 	ldreq	r0, [r5], -r0
    251c:	3b020000 	blcc	82524 <__bss_end__+0x77ecc>
    2520:	000e0f06 	andeq	r0, lr, r6, lsl #30
    2524:	000e0000 	andeq	r0, lr, r0
    2528:	05020000 	streq	r0, [r2, #-0]
    252c:	29100601 	ldmdbcs	r0, {r0, r9, sl}
    2530:	29000000 	stmdbcs	r0, {}	; <UNPREDICTABLE>
    2534:	02000000 	andeq	r0, r0, #0, 0
    2538:	ce00066e 	cfmadd32gt	mvax3, mvfx0, mvfx0, mvfx14
    253c:	04000000 	streq	r0, [r0], #-0
    2540:	000ee500 	andeq	lr, lr, r0, lsl #10
    2544:	5d010400 	cfstrspl	mvf0, [r1, #-0]
    2548:	0c000003 	stceq	0, cr0, [r0], {3}
    254c:	00000642 	andeq	r0, r0, r2, asr #12
    2550:	00000415 	andeq	r0, r0, r5, lsl r4
    2554:	0000933c 	andeq	r9, r0, ip, lsr r3
    2558:	00000004 	andeq	r0, r0, r4
    255c:	000016c9 	andeq	r1, r0, r9, asr #13
    2560:	69050402 	stmdbvs	r5, {r1, sl}
    2564:	0300746e 	movweq	r7, #1134	; 0x46e
    2568:	008d0704 	addeq	r0, sp, r4, lsl #14
    256c:	01030000 	mrseq	r0, (UNDEF: 3)
    2570:	00001d06 	andeq	r1, r0, r6, lsl #26
    2574:	05020300 	streq	r0, [r2, #-768]	; 0xfffffd00
    2578:	00000103 	andeq	r0, r0, r3, lsl #2
    257c:	b7050403 	strlt	r0, [r5, -r3, lsl #8]
    2580:	03000000 	movweq	r0, #0
    2584:	00b20508 	adcseq	r0, r2, r8, lsl #10
    2588:	01030000 	mrseq	r0, (UNDEF: 3)
    258c:	00001b08 	andeq	r1, r0, r8, lsl #22
    2590:	07020300 	streq	r0, [r2, -r0, lsl #6]
    2594:	00000036 	andeq	r0, r0, r6, lsr r0
    2598:	88070403 	stmdahi	r7, {r0, r1, sl}
    259c:	03000000 	movweq	r0, #0
    25a0:	00830708 	addeq	r0, r3, r8, lsl #14
    25a4:	25040000 	strcs	r0, [r4, #-0]
    25a8:	7a000000 	bvc	25b0 <__code_start__-0x5a50>
    25ac:	05000000 	streq	r0, [r0, #-0]
    25b0:	00000025 	andeq	r0, r0, r5, lsr #32
    25b4:	00c00600 	sbceq	r0, r0, r0, lsl #12
    25b8:	1c020000 	stcne	0, cr0, [r2], {-0}
    25bc:	0000860e 	andeq	r8, r0, lr, lsl #12
    25c0:	6b040700 	blvs	1041c8 <__bss_end__+0xf9b70>
    25c4:	04000000 	streq	r0, [r0], #-0
    25c8:	00000025 	andeq	r0, r0, r5, lsr #32
    25cc:	0000009b 	muleq	r0, fp, r0
    25d0:	00009b05 	andeq	r9, r0, r5, lsl #22
    25d4:	04070000 	streq	r0, [r7], #-0
    25d8:	000000a8 	andeq	r0, r0, r8, lsr #1
    25dc:	24080103 	strcs	r0, [r8], #-259	; 0xfffffefd
    25e0:	08000000 	stmdaeq	r0, {}	; <UNPREDICTABLE>
    25e4:	000000a1 	andeq	r0, r0, r1, lsr #1
    25e8:	0004b606 	andeq	fp, r4, r6, lsl #12
    25ec:	0e210200 	cdpeq	2, 2, cr0, cr1, cr0, {0}
    25f0:	000000b9 	strheq	r0, [r0], -r9
    25f4:	008c0407 	addeq	r0, ip, r7, lsl #8
    25f8:	1f090000 	svcne	0x00090000
    25fc:	01000006 	tsteq	r0, r6
    2600:	933c0604 	teqls	ip, #4, 12	; 0x400000
    2604:	00040000 	andeq	r0, r4, r0
    2608:	9c010000 	stcls	0, cr0, [r1], {-0}
    260c:	00027d00 	andeq	r7, r2, r0, lsl #26
    2610:	5e000400 	cfcpyspl	mvf0, mvf0
    2614:	0400000f 	streq	r0, [r0], #-15
    2618:	00035d01 	andeq	r5, r3, r1, lsl #26
    261c:	068a0c00 	streq	r0, [sl], r0, lsl #24
    2620:	04150000 	ldreq	r0, [r5], #-0
    2624:	02200000 	eoreq	r0, r0, #0, 0
    2628:	00000000 	andeq	r0, r0, r0
    262c:	174a0000 	strbne	r0, [sl, -r0]
    2630:	04020000 	streq	r0, [r2], #-0
    2634:	746e6905 	strbtvc	r6, [lr], #-2309	; 0xfffff6fb
    2638:	00250300 	eoreq	r0, r5, r0, lsl #6
    263c:	04040000 	streq	r0, [r4], #-0
    2640:	00008d07 	andeq	r8, r0, r7, lsl #26
    2644:	06010400 	streq	r0, [r1], -r0, lsl #8
    2648:	0000001d 	andeq	r0, r0, sp, lsl r0
    264c:	03050204 	movweq	r0, #20996	; 0x5204
    2650:	04000001 	streq	r0, [r0], #-1
    2654:	00b70504 	adcseq	r0, r7, r4, lsl #10
    2658:	08040000 	stmdaeq	r4, {}	; <UNPREDICTABLE>
    265c:	0000b205 	andeq	fp, r0, r5, lsl #4
    2660:	08010400 	stmdaeq	r1, {sl}
    2664:	0000001b 	andeq	r0, r0, fp, lsl r0
    2668:	36070204 	strcc	r0, [r7], -r4, lsl #4
    266c:	04000000 	streq	r0, [r0], #-0
    2670:	00880704 	addeq	r0, r8, r4, lsl #14
    2674:	08040000 	stmdaeq	r4, {}	; <UNPREDICTABLE>
    2678:	00008307 	andeq	r8, r0, r7, lsl #6
    267c:	00250500 	eoreq	r0, r5, r0, lsl #10
    2680:	007f0000 	rsbseq	r0, pc, r0
    2684:	25060000 	strcs	r0, [r6, #-0]
    2688:	00000000 	andeq	r0, r0, r0
    268c:	0000c007 	andeq	ip, r0, r7
    2690:	0e1c0200 	cdpeq	2, 1, cr0, cr12, cr0, {0}
    2694:	0000008b 	andeq	r0, r0, fp, lsl #1
    2698:	00700408 	rsbseq	r0, r0, r8, lsl #8
    269c:	25050000 	strcs	r0, [r5, #-0]
    26a0:	a0000000 	andge	r0, r0, r0
    26a4:	06000000 	streq	r0, [r0], -r0
    26a8:	000000a0 	andeq	r0, r0, r0, lsr #1
    26ac:	ad040800 	stcge	8, cr0, [r4, #-0]
    26b0:	04000000 	streq	r0, [r0], #-0
    26b4:	00240801 	eoreq	r0, r4, r1, lsl #16
    26b8:	a6030000 	strge	r0, [r3], -r0
    26bc:	07000000 	streq	r0, [r0, -r0]
    26c0:	000004b6 			; <UNDEFINED> instruction: 0x000004b6
    26c4:	be0e2102 	adflte	f2, f6, f2
    26c8:	08000000 	stmdaeq	r0, {}	; <UNPREDICTABLE>
    26cc:	00009104 	andeq	r9, r0, r4, lsl #2
    26d0:	06ae0900 	strteq	r0, [lr], r0, lsl #18
    26d4:	0d010000 	stceq	0, cr0, [r1, #-0]
    26d8:	00003111 	andeq	r3, r0, r1, lsl r1
    26dc:	05c80a00 	strbeq	r0, [r8, #2560]	; 0xa00
    26e0:	1f010000 	svcne	0x00010000
    26e4:	00936c06 	addseq	r6, r3, r6, lsl #24
    26e8:	00006000 	andeq	r6, r0, r0
    26ec:	d59c0100 	ldrle	r0, [ip, #256]	; 0x100
    26f0:	0b000001 	bleq	26fc <__code_start__-0x5904>
    26f4:	000006d2 	ldrdeq	r0, [r0], -r2
    26f8:	2c0f2c01 	stccs	12, cr2, [pc], {1}
    26fc:	1c000000 	stcne	0, cr0, [r0], {-0}
    2700:	0b201000 	bleq	806708 <__bss_end__+0x7fc0b0>
    2704:	0000066d 	andeq	r0, r0, sp, ror #12
    2708:	2c0f2d01 	stccs	13, cr2, [pc], {1}
    270c:	24000000 	strcs	r0, [r0], #-0
    2710:	0b201000 	bleq	806718 <__bss_end__+0x7fc0c0>
    2714:	0000069f 	muleq	r0, pc, r6	; <UNPREDICTABLE>
    2718:	2c0f2e01 	stccs	14, cr2, [pc], {1}
    271c:	00000000 	andeq	r0, r0, r0
    2720:	0c5a0000 	mraeq	r0, sl, acc0
    2724:	000006b9 			; <UNDEFINED> instruction: 0x000006b9
    2728:	2c0f2f01 	stccs	15, cr2, [pc], {1}
    272c:	20000000 	andcs	r0, r0, r0
    2730:	0001ef0d 	andeq	lr, r1, sp, lsl #30
    2734:	00936c00 	addseq	r6, r3, r0, lsl #24
    2738:	02080200 	andeq	r0, r8, #0, 4
    273c:	20010000 	andcs	r0, r1, r0
    2740:	00014c08 	andeq	r4, r1, r8, lsl #24
    2744:	02080e00 	andeq	r0, r8, #0, 28
    2748:	000f0000 	andeq	r0, pc, r0
    274c:	1d000002 	stcne	0, cr0, [r0, #-8]
    2750:	1900001f 	stmdbne	r0, {r0, r1, r2, r3, r4}
    2754:	0000001f 	andeq	r0, r0, pc, lsl r0
    2758:	01d51000 	bicseq	r1, r5, r0
    275c:	93800000 	orrls	r0, r0, #0, 0
    2760:	80010000 	andhi	r0, r1, r0
    2764:	10000093 	mulne	r0, r3, r0
    2768:	01000000 	mrseq	r0, (UNDEF: 0)
    276c:	01730921 	cmneq	r3, r1, lsr #18
    2770:	e20f0000 	and	r0, pc, #0, 0
    2774:	44000001 	strmi	r0, [r0], #-1
    2778:	3c00001f 	stccc	0, cr0, [r0], {31}
    277c:	0000001f 	andeq	r0, r0, pc, lsl r0
    2780:	00939411 	addseq	r9, r3, r1, lsl r4
    2784:	00024f00 	andeq	r4, r2, r0, lsl #30
    2788:	93981100 	orrsls	r1, r8, #0
    278c:	025c0000 	subseq	r0, ip, #0, 0
    2790:	a0120000 	andsge	r0, r2, r0
    2794:	68000093 	stmdavs	r0, {r0, r1, r4, r7}
    2798:	98000002 	stmdals	r0, {r1}
    279c:	13000001 	movwne	r0, #1
    27a0:	3a015001 	bcc	567ac <__bss_end__+0x4c154>
    27a4:	93ac1200 			; <UNDEFINED> instruction: 0x93ac1200
    27a8:	02740000 	rsbseq	r0, r4, #0, 0
    27ac:	01b80000 			; <UNDEFINED> instruction: 0x01b80000
    27b0:	01130000 	tsteq	r3, r0
    27b4:	240c0550 	strcs	r0, [ip], #-1360	; 0xfffffab0
    27b8:	13201000 	nopne	{0}	; <UNPREDICTABLE>
    27bc:	0c055101 	stfeqs	f5, [r5], {1}
    27c0:	5a000001 	bpl	27cc <__code_start__-0x5834>
    27c4:	93b81400 			; <UNDEFINED> instruction: 0x93b81400
    27c8:	02740000 	rsbseq	r0, r4, #0, 0
    27cc:	01130000 	tsteq	r3, r0
    27d0:	1c0c0550 	cfstr32ne	mvfx0, [ip], {80}	; 0x50
    27d4:	13201000 	nopne	{0}	; <UNPREDICTABLE>
    27d8:	0c055101 	stfeqs	f5, [r5], {1}
    27dc:	5a000020 	bpl	2864 <__code_start__-0x579c>
    27e0:	7b150000 	blvc	5427e8 <__bss_end__+0x538190>
    27e4:	01000006 	tsteq	r0, r6
    27e8:	ef010617 	svc	0x00010617
    27ec:	09000001 	stmdbeq	r0, {r0}
    27f0:	000006da 	ldrdeq	r0, [r0], -sl
    27f4:	310e1801 	tstcc	lr, r1, lsl #16
    27f8:	00000000 	andeq	r0, r0, r0
    27fc:	0006ab16 	andeq	sl, r6, r6, lsl fp
    2800:	050e0100 	streq	r0, [lr, #-256]	; 0xffffff00
    2804:	00000025 	andeq	r0, r0, r5, lsr #32
    2808:	00020d01 	andeq	r0, r2, r1, lsl #26
    280c:	06da0900 	ldrbeq	r0, [sl], r0, lsl #18
    2810:	0f010000 	svceq	0x00010000
    2814:	0000310e 	andeq	r3, r0, lr, lsl #2
    2818:	ef170000 	svc	0x00170000
    281c:	40000001 	andmi	r0, r0, r1
    2820:	18000093 	stmdane	r0, {r0, r1, r4, r7}
    2824:	01000000 	mrseq	r0, (UNDEF: 0)
    2828:	00022e9c 	muleq	r2, ip, lr
    282c:	02000f00 	andeq	r0, r0, #0, 30
    2830:	1f810000 	svcne	0x00810000
    2834:	1f7d0000 	svcne	0x007d0000
    2838:	17000000 	strne	r0, [r0, -r0]
    283c:	000001d5 	ldrdeq	r0, [r0], -r5
    2840:	00009358 	andeq	r9, r0, r8, asr r3
    2844:	00000014 	andeq	r0, r0, r4, lsl r0
    2848:	024f9c01 	subeq	r9, pc, #256	; 0x100
    284c:	e20f0000 	and	r0, pc, #0, 0
    2850:	a8000001 	stmdage	r0, {r0}
    2854:	a000001f 	andge	r0, r0, pc, lsl r0
    2858:	0000001f 	andeq	r0, r0, pc, lsl r0
    285c:	00065e18 	andeq	r5, r6, r8, lsl lr
    2860:	00065e00 	andeq	r5, r6, r0, lsl #28
    2864:	01360200 	teqeq	r6, r0, lsl #4
    2868:	05f71906 	ldrbeq	r1, [r7, #2310]!	; 0x906
    286c:	05f70000 	ldrbeq	r0, [r7, #0]!
    2870:	4d020000 	stcmi	0, cr0, [r2, #-0]
    2874:	05d31906 	ldrbeq	r1, [r3, #2310]	; 0x906
    2878:	05d30000 	ldrbeq	r0, [r3]
    287c:	58020000 	stmdapl	r2, {}	; <UNPREDICTABLE>
    2880:	06751906 	ldrbteq	r1, [r5], -r6, lsl #18
    2884:	06750000 	ldrbteq	r0, [r5], -r0
    2888:	ad020000 	stcge	0, cr0, [r2, #-0]
    288c:	053f0006 	ldreq	r0, [pc, #-6]!	; 288e <__code_start__-0x5772>
    2890:	00040000 	andeq	r0, r4, r0
    2894:	000010e1 	andeq	r1, r0, r1, ror #1
    2898:	035d0104 	cmpeq	sp, #1
    289c:	f50c0000 			; <UNDEFINED> instruction: 0xf50c0000
    28a0:	15000006 	strne	r0, [r0, #-6]
    28a4:	cc000004 	stcgt	0, cr0, [r0], {4}
    28a8:	1c000093 	stcne	0, cr0, [r0], {147}	; 0x93
    28ac:	62000001 	andvs	r0, r0, #1, 0
    28b0:	02000018 	andeq	r0, r0, #24, 0
    28b4:	6e690504 	cdpvs	5, 6, cr0, cr9, cr4, {0}
    28b8:	04030074 	streq	r0, [r3], #-116	; 0xffffff8c
    28bc:	00008d07 	andeq	r8, r0, r7, lsl #26
    28c0:	06010300 	streq	r0, [r1], -r0, lsl #6
    28c4:	0000001d 	andeq	r0, r0, sp, lsl r0
    28c8:	03050203 	movweq	r0, #20995	; 0x5203
    28cc:	03000001 	movweq	r0, #1
    28d0:	00b70504 	adcseq	r0, r7, r4, lsl #10
    28d4:	08030000 	stmdaeq	r3, {}	; <UNPREDICTABLE>
    28d8:	0000b205 	andeq	fp, r0, r5, lsl #4
    28dc:	08010300 	stmdaeq	r1, {r8, r9}
    28e0:	0000001b 	andeq	r0, r0, fp, lsl r0
    28e4:	36070203 	strcc	r0, [r7], -r3, lsl #4
    28e8:	03000000 	movweq	r0, #0
    28ec:	00880704 	addeq	r0, r8, r4, lsl #14
    28f0:	08030000 	stmdaeq	r3, {}	; <UNPREDICTABLE>
    28f4:	00008307 	andeq	r8, r0, r7, lsl #6
    28f8:	00250400 	eoreq	r0, r5, r0, lsl #8
    28fc:	007a0000 	rsbseq	r0, sl, r0
    2900:	25050000 	strcs	r0, [r5, #-0]
    2904:	00000000 	andeq	r0, r0, r0
    2908:	0000c006 	andeq	ip, r0, r6
    290c:	0e1c0200 	cdpeq	2, 1, cr0, cr12, cr0, {0}
    2910:	00000086 	andeq	r0, r0, r6, lsl #1
    2914:	006b0407 	rsbeq	r0, fp, r7, lsl #8
    2918:	25040000 	strcs	r0, [r4, #-0]
    291c:	9b000000 	blls	2924 <__code_start__-0x56dc>
    2920:	05000000 	streq	r0, [r0, #-0]
    2924:	0000009b 	muleq	r0, fp, r0
    2928:	a8040700 	stmdage	r4, {r8, r9, sl}
    292c:	03000000 	movweq	r0, #0
    2930:	00240801 	eoreq	r0, r4, r1, lsl #16
    2934:	a1080000 	mrsge	r0, (UNDEF: 8)
    2938:	06000000 	streq	r0, [r0], -r0
    293c:	000004b6 			; <UNDEFINED> instruction: 0x000004b6
    2940:	b90e2102 	stmdblt	lr, {r1, r8, sp}
    2944:	07000000 	streq	r0, [r0, -r0]
    2948:	00008c04 	andeq	r8, r0, r4, lsl #24
    294c:	06eb0900 	strbteq	r0, [fp], r0, lsl #18
    2950:	1e010000 	cdpne	0, 0, cr0, cr1, cr0, {0}
    2954:	00949406 	addseq	r9, r4, r6, lsl #8
    2958:	00005400 	andeq	r5, r0, r0, lsl #8
    295c:	0b9c0100 	bleq	fe702d64 <__bss_end__+0xfe6f870c>
    2960:	0a000002 	beq	2970 <__code_start__-0x5690>
    2964:	00636573 	rsbeq	r6, r3, r3, ror r5
    2968:	2c191e01 	ldccs	14, cr1, [r9], {1}
    296c:	e5000000 	str	r0, [r0, #-0]
    2970:	e100001f 	tst	r0, pc, lsl r0
    2974:	0b00001f 	bleq	29f8 <__code_start__-0x5608>
    2978:	0000020b 	andeq	r0, r0, fp, lsl #4
    297c:	00009494 	muleq	r0, r4, r4
    2980:	0002e802 	andeq	lr, r2, r2, lsl #16
    2984:	051f0100 	ldreq	r0, [pc, #-256]	; 288c <__code_start__-0x5774>
    2988:	0002180c 	andeq	r1, r2, ip, lsl #16
    298c:	00200a00 	eoreq	r0, r0, r0, lsl #20
    2990:	00200600 	eoreq	r0, r0, r0, lsl #12
    2994:	02240d00 	eoreq	r0, r4, #0, 26
    2998:	94a80000 	strtls	r0, [r8], #0
    299c:	a8000000 	stmdage	r0, {}	; <UNPREDICTABLE>
    29a0:	40000094 	mulmi	r0, r4, r0
    29a4:	01000000 	mrseq	r0, (UNDEF: 0)
    29a8:	310c051c 	tstcc	ip, ip, lsl r5
    29ac:	37000002 	strcc	r0, [r0, -r2]
    29b0:	35000020 	strcc	r0, [r0, #-32]	; 0xffffffe0
    29b4:	0e000020 	cdpeq	0, 0, cr0, cr0, cr0, {1}
    29b8:	0000023c 	andeq	r0, r0, ip, lsr r2
    29bc:	0000204c 	andeq	r2, r0, ip, asr #32
    29c0:	0000204a 	andeq	r2, r0, sl, asr #32
    29c4:	0002550f 	andeq	r5, r2, pc, lsl #10
    29c8:	0094a800 	addseq	sl, r4, r0, lsl #16
    29cc:	94a80200 	strtls	r0, [r8], #512	; 0x200
    29d0:	00140000 	andseq	r0, r4, r0
    29d4:	13010000 	movwne	r0, #4096	; 0x1000
    29d8:	00019c13 	andeq	r9, r1, r3, lsl ip
    29dc:	02660e00 	rsbeq	r0, r6, #0, 28
    29e0:	20630000 	rsbcs	r0, r3, r0
    29e4:	205f0000 	subscs	r0, pc, r0
    29e8:	710f0000 	mrsvc	r0, CPSR
    29ec:	ac000002 	stcge	0, cr0, [r0], {2}
    29f0:	01000094 	swpeq	r0, r4, [r0]	; <UNPREDICTABLE>
    29f4:	000094ac 	andeq	r9, r0, ip, lsr #9
    29f8:	0000000c 	andeq	r0, r0, ip
    29fc:	89120d01 	ldmdbhi	r2, {r0, r8, sl, fp}
    2a00:	10000001 	andne	r0, r0, r1
    2a04:	000094b4 			; <UNDEFINED> instruction: 0x000094b4
    2a08:	0000052a 	andeq	r0, r0, sl, lsr #10
    2a0c:	05500111 	ldrbeq	r0, [r0, #-273]	; 0xfffffeef
    2a10:	0030040c 	eorseq	r0, r0, ip, lsl #8
    2a14:	12000020 	andne	r0, r0, #32, 0
    2a18:	000094ac 	andeq	r9, r0, ip, lsr #9
    2a1c:	00000536 	andeq	r0, r0, r6, lsr r5
    2a20:	0094bc12 	addseq	fp, r4, r2, lsl ip
    2a24:	00053600 	andeq	r3, r5, r0, lsl #12
    2a28:	47130000 	ldrmi	r0, [r3, -r0]
    2a2c:	00000002 	andeq	r0, r0, r2
    2a30:	14000003 	strne	r0, [r0], #-3
    2a34:	00000248 	andeq	r0, r0, r8, asr #4
    2a38:	0002550b 	andeq	r5, r2, fp, lsl #10
    2a3c:	0094c000 	addseq	ip, r4, r0
    2a40:	03180200 	tsteq	r8, #0, 4
    2a44:	15010000 	strne	r0, [r1, #-0]
    2a48:	03181517 	tsteq	r8, #96468992	; 0x5c00000
    2a4c:	660e0000 	strvs	r0, [lr], -r0
    2a50:	83000002 	movwhi	r0, #2
    2a54:	81000020 	tsthi	r0, r0, lsr #32
    2a58:	16000020 	strne	r0, [r0], -r0, lsr #32
    2a5c:	00000271 	andeq	r0, r0, r1, ror r2
    2a60:	000094c4 	andeq	r9, r0, r4, asr #9
    2a64:	00033801 	andeq	r3, r3, r1, lsl #16
    2a68:	120d0100 	andne	r0, sp, #0
    2a6c:	000001f3 	strdeq	r0, [r0], -r3
    2a70:	0094cc10 	addseq	ip, r4, r0, lsl ip
    2a74:	00052a00 	andeq	r2, r5, r0, lsl #20
    2a78:	50011100 	andpl	r1, r1, r0, lsl #2
    2a7c:	00007702 	andeq	r7, r0, r2, lsl #14
    2a80:	94c41200 	strbls	r1, [r4], #512	; 0x200
    2a84:	05360000 	ldreq	r0, [r6, #-0]!
    2a88:	d8120000 	ldmdale	r2, {}	; <UNPREDICTABLE>
    2a8c:	36000094 			; <UNDEFINED> instruction: 0x36000094
    2a90:	00000005 	andeq	r0, r0, r5
    2a94:	00000000 	andeq	r0, r0, r0
    2a98:	05d31700 	ldrbeq	r1, [r3, #1792]	; 0x700
    2a9c:	1b010000 	blne	42aa4 <__bss_end__+0x3844c>
    2aa0:	02240106 	eoreq	r0, r4, #-2147483647	; 0x80000001
    2aa4:	6d180000 	ldcvs	0, cr0, [r8, #-0]
    2aa8:	1b010073 	blne	42c7c <__bss_end__+0x38624>
    2aac:	00002c18 	andeq	r2, r0, r8, lsl ip
    2ab0:	1e170000 	cdpne	0, 1, cr0, cr7, cr0, {0}
    2ab4:	01000007 	tsteq	r0, r7
    2ab8:	55010612 	strpl	r0, [r1, #-1554]	; 0xfffff9ee
    2abc:	18000002 	stmdane	r0, {r1}
    2ac0:	01007375 	tsteq	r0, r5, ror r3
    2ac4:	002c1812 	eoreq	r1, ip, r2, lsl r8
    2ac8:	72190000 	andsvc	r0, r9, #0, 0
    2acc:	13010062 	movwne	r0, #4194	; 0x1062
    2ad0:	00002c0e 	andeq	r2, r0, lr, lsl #24
    2ad4:	72191a00 	andsvc	r1, r9, #0, 20
    2ad8:	15010061 	strne	r0, [r1, #-97]	; 0xffffff9f
    2adc:	00002c12 	andeq	r2, r0, r2, lsl ip
    2ae0:	1b000000 	blne	2ae8 <__code_start__-0x5518>
    2ae4:	0000070f 	andeq	r0, r0, pc, lsl #14
    2ae8:	2c0a0901 			; <UNDEFINED> instruction: 0x2c0a0901
    2aec:	01000000 	mrseq	r0, (UNDEF: 0)
    2af0:	00000271 	andeq	r0, r0, r1, ror r2
    2af4:	01007519 	tsteq	r0, r9, lsl r5
    2af8:	002c0e0d 	eoreq	r0, ip, sp, lsl #28
    2afc:	1c000000 	stcne	0, cr0, [r0], {-0}
    2b00:	00000727 	andeq	r0, r0, r7, lsr #14
    2b04:	2c0a0401 	cfstrscs	mvf0, [sl], {1}
    2b08:	01000000 	mrseq	r0, (UNDEF: 0)
    2b0c:	0002711d 	andeq	r7, r2, sp, lsl r1
    2b10:	0093cc00 	addseq	ip, r3, r0, lsl #24
    2b14:	00000c00 	andeq	r0, r0, r0, lsl #24
    2b18:	a59c0100 	ldrge	r0, [ip, #256]	; 0x100
    2b1c:	1e000002 	cdpne	0, 0, cr0, cr0, cr2, {0}
    2b20:	000093d4 	ldrdeq	r9, [r0], -r4
    2b24:	0000052a 	andeq	r0, r0, sl, lsr #10
    2b28:	05500111 	ldrbeq	r0, [r0, #-273]	; 0xfffffeef
    2b2c:	0030040c 	eorseq	r0, r0, ip, lsl #8
    2b30:	1d000020 	stcne	0, cr0, [r0, #-128]	; 0xffffff80
    2b34:	00000255 	andeq	r0, r0, r5, asr r2
    2b38:	000093d8 	ldrdeq	r9, [r0], -r8
    2b3c:	00000024 	andeq	r0, r0, r4, lsr #32
    2b40:	03059c01 	movweq	r9, #23553	; 0x5c01
    2b44:	660e0000 	strvs	r0, [lr], -r0
    2b48:	9a000002 	bls	2b58 <__code_start__-0x54a8>
    2b4c:	96000020 	strls	r0, [r0], -r0, lsr #32
    2b50:	0f000020 	svceq	0x00000020
    2b54:	00000271 	andeq	r0, r0, r1, ror r2
    2b58:	000093e0 	andeq	r9, r0, r0, ror #7
    2b5c:	0093e001 	addseq	lr, r3, r1
    2b60:	00000c00 	andeq	r0, r0, r0, lsl #24
    2b64:	120d0100 	andne	r0, sp, #0
    2b68:	000002f2 	strdeq	r0, [r0], -r2
    2b6c:	0093e810 	addseq	lr, r3, r0, lsl r8
    2b70:	00052a00 	andeq	r2, r5, r0, lsl #20
    2b74:	50011100 	andpl	r1, r1, r0, lsl #2
    2b78:	30040c05 	andcc	r0, r4, r5, lsl #24
    2b7c:	00002000 	andeq	r2, r0, r0
    2b80:	0093e012 	addseq	lr, r3, r2, lsl r0
    2b84:	00053600 	andeq	r3, r5, r0, lsl #12
    2b88:	93f01200 	mvnsls	r1, #0, 4
    2b8c:	05360000 	ldreq	r0, [r6, #-0]!
    2b90:	1d000000 	stcne	0, cr0, [r0, #-0]
    2b94:	00000224 	andeq	r0, r0, r4, lsr #4
    2b98:	000093fc 	strdeq	r9, [r0], -ip
    2b9c:	00000048 	andeq	r0, r0, r8, asr #32
    2ba0:	04079c01 	streq	r9, [r7], #-3073	; 0xfffff3ff
    2ba4:	310c0000 	mrscc	r0, (UNDEF: 12)
    2ba8:	bc000002 	stclt	0, cr0, [r0], {2}
    2bac:	b8000020 	stmdalt	r0, {r5}
    2bb0:	0e000020 	cdpeq	0, 0, cr0, cr0, cr0, {1}
    2bb4:	0000023c 	andeq	r0, r0, ip, lsr r2
    2bb8:	000020dc 	ldrdeq	r2, [r0], -ip
    2bbc:	000020da 	ldrdeq	r2, [r0], -sl
    2bc0:	00025516 	andeq	r5, r2, r6, lsl r5
    2bc4:	0093fc00 	addseq	pc, r3, r0, lsl #24
    2bc8:	02300200 	eorseq	r0, r0, #0, 4
    2bcc:	13010000 	movwne	r0, #4096	; 0x1000
    2bd0:	00039a13 	andeq	r9, r3, r3, lsl sl
    2bd4:	02301500 	eorseq	r1, r0, #0, 10
    2bd8:	660e0000 	strvs	r0, [lr], -r0
    2bdc:	f3000002 	vhadd.u8	d0, d0, d2
    2be0:	ef000020 	svc	0x00000020
    2be4:	0f000020 	svceq	0x00000020
    2be8:	00000271 	andeq	r0, r0, r1, ror r2
    2bec:	00009408 	andeq	r9, r0, r8, lsl #8
    2bf0:	00940801 	addseq	r0, r4, r1, lsl #16
    2bf4:	00000c00 	andeq	r0, r0, r0, lsl #24
    2bf8:	120d0100 	andne	r0, sp, #0
    2bfc:	00000386 	andeq	r0, r0, r6, lsl #7
    2c00:	00941010 	addseq	r1, r4, r0, lsl r0
    2c04:	00052a00 	andeq	r2, r5, r0, lsl #20
    2c08:	50011100 	andpl	r1, r1, r0, lsl #2
    2c0c:	30040c05 	andcc	r0, r4, r5, lsl #24
    2c10:	00002000 	andeq	r2, r0, r0
    2c14:	00940812 	addseq	r0, r4, r2, lsl r8
    2c18:	00053600 	andeq	r3, r5, r0, lsl #12
    2c1c:	94181200 	ldrls	r1, [r8], #-512	; 0xfffffe00
    2c20:	05360000 	ldreq	r0, [r6, #-0]!
    2c24:	00000000 	andeq	r0, r0, r0
    2c28:	00024713 	andeq	r4, r2, r3, lsl r7
    2c2c:	00024800 	andeq	r4, r2, r0, lsl #16
    2c30:	02481400 	subeq	r1, r8, #0, 8
    2c34:	550b0000 	strpl	r0, [fp, #-0]
    2c38:	1c000002 	stcne	0, cr0, [r0], {2}
    2c3c:	02000094 	andeq	r0, r0, #148, 0	; 0x94
    2c40:	00000260 	andeq	r0, r0, r0, ror #4
    2c44:	15171501 	ldrne	r1, [r7, #-1281]	; 0xfffffaff
    2c48:	00000260 	andeq	r0, r0, r0, ror #4
    2c4c:	0002660e 	andeq	r6, r2, lr, lsl #12
    2c50:	00211300 	eoreq	r1, r1, r0, lsl #6
    2c54:	00211100 	eoreq	r1, r1, r0, lsl #2
    2c58:	02711600 	rsbseq	r1, r1, #0, 12
    2c5c:	94200000 	strtls	r0, [r0], #-0
    2c60:	80010000 	andhi	r0, r1, r0
    2c64:	01000002 	tsteq	r0, r2
    2c68:	03f1120d 	mvnseq	r1, #-805306368	; 0xd0000000
    2c6c:	28100000 	ldmdacs	r0, {}	; <UNPREDICTABLE>
    2c70:	2a000094 	bcs	2ec8 <__code_start__-0x5138>
    2c74:	11000005 	tstne	r0, r5
    2c78:	77025001 	strvc	r5, [r2, -r1]
    2c7c:	12000000 	andne	r0, r0, #0, 0
    2c80:	00009420 	andeq	r9, r0, r0, lsr #8
    2c84:	00000536 	andeq	r0, r0, r6, lsr r5
    2c88:	00943412 	addseq	r3, r4, r2, lsl r4
    2c8c:	00053600 	andeq	r3, r5, r0, lsl #12
    2c90:	00000000 	andeq	r0, r0, r0
    2c94:	020b1d00 	andeq	r1, fp, #0, 26
    2c98:	94440000 	strbls	r0, [r4], #-0
    2c9c:	00500000 	subseq	r0, r0, r0
    2ca0:	9c010000 	stcls	0, cr0, [r1], {-0}
    2ca4:	0000052a 	andeq	r0, r0, sl, lsr #10
    2ca8:	0002180c 	andeq	r1, r2, ip, lsl #16
    2cac:	00212a00 	eoreq	r2, r1, r0, lsl #20
    2cb0:	00212600 	eoreq	r2, r1, r0, lsl #12
    2cb4:	02240d00 	eoreq	r0, r4, #0, 26
    2cb8:	94540000 	ldrbls	r0, [r4], #-0
    2cbc:	54000000 	strpl	r0, [r0], #-0
    2cc0:	40000094 	mulmi	r0, r4, r0
    2cc4:	01000000 	mrseq	r0, (UNDEF: 0)
    2cc8:	310c051c 	tstcc	ip, ip, lsl r5
    2ccc:	4d000002 	stcmi	0, cr0, [r0, #-8]
    2cd0:	4b000021 	blmi	2d5c <__code_start__-0x52a4>
    2cd4:	0e000021 	cdpeq	0, 0, cr0, cr0, cr1, {1}
    2cd8:	0000023c 	andeq	r0, r0, ip, lsr r2
    2cdc:	00002162 	andeq	r2, r0, r2, ror #2
    2ce0:	00002160 	andeq	r2, r0, r0, ror #2
    2ce4:	0002550f 	andeq	r5, r2, pc, lsl #10
    2ce8:	00945400 	addseq	r5, r4, r0, lsl #8
    2cec:	94540200 	ldrbls	r0, [r4], #-512	; 0xfffffe00
    2cf0:	00140000 	andseq	r0, r4, r0
    2cf4:	13010000 	movwne	r0, #4096	; 0x1000
    2cf8:	0004bc13 	andeq	fp, r4, r3, lsl ip
    2cfc:	02660e00 	rsbeq	r0, r6, #0, 28
    2d00:	21790000 	cmncs	r9, r0
    2d04:	21750000 	cmncs	r5, r0
    2d08:	710f0000 	mrsvc	r0, CPSR
    2d0c:	58000002 	stmdapl	r0, {r1}
    2d10:	01000094 	swpeq	r0, r4, [r0]	; <UNPREDICTABLE>
    2d14:	00009458 	andeq	r9, r0, r8, asr r4
    2d18:	0000000c 	andeq	r0, r0, ip
    2d1c:	a9120d01 	ldmdbge	r2, {r0, r8, sl, fp}
    2d20:	10000004 	andne	r0, r0, r4
    2d24:	00009460 	andeq	r9, r0, r0, ror #8
    2d28:	0000052a 	andeq	r0, r0, sl, lsr #10
    2d2c:	05500111 	ldrbeq	r0, [r0, #-273]	; 0xfffffeef
    2d30:	0030040c 	eorseq	r0, r0, ip, lsl #8
    2d34:	12000020 	andne	r0, r0, #32, 0
    2d38:	00009458 	andeq	r9, r0, r8, asr r4
    2d3c:	00000536 	andeq	r0, r0, r6, lsr r5
    2d40:	00946812 	addseq	r6, r4, r2, lsl r8
    2d44:	00053600 	andeq	r3, r5, r0, lsl #12
    2d48:	47130000 	ldrmi	r0, [r3, -r0]
    2d4c:	98000002 	stmdals	r0, {r1}
    2d50:	14000002 	strne	r0, [r0], #-2
    2d54:	00000248 	andeq	r0, r0, r8, asr #4
    2d58:	0002550b 	andeq	r5, r2, fp, lsl #10
    2d5c:	00946c00 	addseq	r6, r4, r0, lsl #24
    2d60:	02b00200 	adcseq	r0, r0, #0, 4
    2d64:	15010000 	strne	r0, [r1, #-0]
    2d68:	02b01517 	adcseq	r1, r0, #96468992	; 0x5c00000
    2d6c:	660e0000 	strvs	r0, [lr], -r0
    2d70:	99000002 	stmdbls	r0, {r1}
    2d74:	97000021 	strls	r0, [r0, -r1, lsr #32]
    2d78:	16000021 	strne	r0, [r0], -r1, lsr #32
    2d7c:	00000271 	andeq	r0, r0, r1, ror r2
    2d80:	00009470 	andeq	r9, r0, r0, ror r4
    2d84:	0002d001 	andeq	sp, r2, r1
    2d88:	120d0100 	andne	r0, sp, #0
    2d8c:	00000513 	andeq	r0, r0, r3, lsl r5
    2d90:	00947810 	addseq	r7, r4, r0, lsl r8
    2d94:	00052a00 	andeq	r2, r5, r0, lsl #20
    2d98:	50011100 	andpl	r1, r1, r0, lsl #2
    2d9c:	00007702 	andeq	r7, r0, r2, lsl #14
    2da0:	94701200 	ldrbtls	r1, [r0], #-512	; 0xfffffe00
    2da4:	05360000 	ldreq	r0, [r6, #-0]!
    2da8:	84120000 	ldrhi	r0, [r2], #-0
    2dac:	36000094 			; <UNDEFINED> instruction: 0x36000094
    2db0:	00000005 	andeq	r0, r0, r5
    2db4:	00000000 	andeq	r0, r0, r0
    2db8:	0007091f 	andeq	r0, r7, pc, lsl r9
    2dbc:	00070900 	andeq	r0, r7, r0, lsl #18
    2dc0:	0ac20200 	beq	ff0835c8 <__bss_end__+0xff078f70>
    2dc4:	0006df1f 	andeq	sp, r6, pc, lsl pc
    2dc8:	0006df00 	andeq	sp, r6, r0, lsl #30
    2dcc:	069c0200 	ldreq	r0, [ip], r0, lsl #4
    2dd0:	0005cd00 	andeq	ip, r5, r0, lsl #26
    2dd4:	b0000400 	andlt	r0, r0, r0, lsl #8
    2dd8:	04000012 	streq	r0, [r0], #-18	; 0xffffffee
    2ddc:	00083a01 	andeq	r3, r8, r1, lsl #20
    2de0:	07790c00 	ldrbeq	r0, [r9, -r0, lsl #24]!
    2de4:	07ea0000 	strbeq	r0, [sl, r0]!
    2de8:	94e80000 	strbtls	r0, [r8], #0
    2dec:	01f00000 	mvnseq	r0, r0
    2df0:	1a600000 	bne	1802df8 <__bss_end__+0x17f87a0>
    2df4:	04020000 	streq	r0, [r2], #-0
    2df8:	746e6905 	strbtvc	r6, [lr], #-2309	; 0xfffff6fb
    2dfc:	07040300 	streq	r0, [r4, -r0, lsl #6]
    2e00:	0000008d 	andeq	r0, r0, sp, lsl #1
    2e04:	00002c04 	andeq	r2, r0, r4, lsl #24
    2e08:	06010300 	streq	r0, [r1], -r0, lsl #6
    2e0c:	0000001d 	andeq	r0, r0, sp, lsl r0
    2e10:	03050203 	movweq	r0, #20995	; 0x5203
    2e14:	03000001 	movweq	r0, #1
    2e18:	00b70504 	adcseq	r0, r7, r4, lsl #10
    2e1c:	08030000 	stmdaeq	r3, {}	; <UNPREDICTABLE>
    2e20:	0000b205 	andeq	fp, r0, r5, lsl #4
    2e24:	08010300 	stmdaeq	r1, {r8, r9}
    2e28:	0000001b 	andeq	r0, r0, fp, lsl r0
    2e2c:	36070203 	strcc	r0, [r7], -r3, lsl #4
    2e30:	05000000 	streq	r0, [r0, #-0]
    2e34:	00000315 	andeq	r0, r0, r5, lsl r3
    2e38:	6e193405 	cfmulsvs	mvf3, mvf9, mvf5
    2e3c:	03000000 	movweq	r0, #0
    2e40:	00880704 	addeq	r0, r8, r4, lsl #14
    2e44:	08030000 	stmdaeq	r3, {}	; <UNPREDICTABLE>
    2e48:	00008307 	andeq	r8, r0, r7, lsl #6
    2e4c:	08010300 	stmdaeq	r1, {r8, r9}
    2e50:	00000024 	andeq	r0, r0, r4, lsr #32
    2e54:	54010706 	strpl	r0, [r1], #-1798	; 0xfffff8fa
    2e58:	04000000 	streq	r0, [r0], #-0
    2e5c:	00c20e0c 	sbceq	r0, r2, ip, lsl #28
    2e60:	1a070000 	bne	1c2e68 <__bss_end__+0x1b8810>
    2e64:	00000009 	andeq	r0, r0, r9
    2e68:	00075c07 	andeq	r5, r7, r7, lsl #24
    2e6c:	9f070100 	svcls	0x00070100
    2e70:	04000007 	streq	r0, [r0], #-7
    2e74:	0007ae07 	andeq	sl, r7, r7, lsl #28
    2e78:	bd070500 	cfstr32lt	mvfx0, [r7, #-0]
    2e7c:	06000007 	streq	r0, [r0], -r7
    2e80:	0007cc07 	andeq	ip, r7, r7, lsl #24
    2e84:	ed070700 	stc	7, cr0, [r7, #-0]
    2e88:	03000008 	movweq	r0, #8
    2e8c:	0007db07 	andeq	sp, r7, r7, lsl #22
    2e90:	08000200 	stmdaeq	r0, {r9}
    2e94:	0000076d 	andeq	r0, r0, sp, ror #14
    2e98:	0806022c 	stmdaeq	r6, {r2, r3, r5, r9}
    2e9c:	0000015e 	andeq	r0, r0, lr, asr r1
    2ea0:	006f6909 	rsbeq	r6, pc, r9, lsl #18
    2ea4:	33090902 	movwcc	r0, #39170	; 0x9902
    2ea8:	00000000 	andeq	r0, r0, r0
    2eac:	72656909 	rsbvc	r6, r5, #147456	; 0x24000
    2eb0:	090a0200 	stmdbeq	sl, {r9}
    2eb4:	00000033 	andeq	r0, r0, r3, lsr r0
    2eb8:	69690904 	stmdbvs	r9!, {r2, r8, fp}^
    2ebc:	11020072 	tstne	r2, r2, ror r0
    2ec0:	00003309 	andeq	r3, r0, r9, lsl #6
    2ec4:	6c090800 	stcvs	8, cr0, [r9], {-0}
    2ec8:	02007263 	andeq	r7, r0, #805306374	; 0x30000006
    2ecc:	00330913 	eorseq	r0, r3, r3, lsl r9
    2ed0:	090c0000 	stmdbeq	ip, {}	; <UNPREDICTABLE>
    2ed4:	0072636d 	rsbseq	r6, r2, sp, ror #6
    2ed8:	33091402 	movwcc	r1, #37890	; 0x9402
    2edc:	10000000 	andne	r0, r0, r0
    2ee0:	72736c09 	rsbsvc	r6, r3, #2304	; 0x900
    2ee4:	09150200 	ldmdbeq	r5, {r9}
    2ee8:	00000033 	andeq	r0, r0, r3, lsr r0
    2eec:	736d0914 	cmnvc	sp, #20, 18	; 0x50000
    2ef0:	16020072 			; <UNDEFINED> instruction: 0x16020072
    2ef4:	00003309 	andeq	r3, r0, r9, lsl #6
    2ef8:	040a1800 	streq	r1, [sl], #-2048	; 0xfffff800
    2efc:	02000009 	andeq	r0, r0, #9, 0
    2f00:	00330917 	eorseq	r0, r3, r7, lsl r9
    2f04:	0a1c0000 	beq	702f0c <__bss_end__+0x6f88b4>
    2f08:	000008cd 	andeq	r0, r0, sp, asr #17
    2f0c:	33091b02 	movwcc	r1, #39682	; 0x9b02
    2f10:	20000000 	andcs	r0, r0, r0
    2f14:	0007490a 	andeq	r4, r7, sl, lsl #18
    2f18:	091d0200 	ldmdbeq	sp, {r9}
    2f1c:	00000033 	andeq	r0, r0, r3, lsr r0
    2f20:	081f0a24 	ldmdaeq	pc, {r2, r5, r9, fp}	; <UNPREDICTABLE>
    2f24:	1e020000 	cdpne	0, 0, cr0, cr2, cr0, {0}
    2f28:	00003309 	andeq	r3, r0, r9, lsl #6
    2f2c:	0b002800 	bleq	cf34 <__bss_end__+0x28dc>
    2f30:	00000824 	andeq	r0, r0, r4, lsr #16
    2f34:	74090801 	strvc	r0, [r9], #-2049	; 0xfffff7ff
    2f38:	04000001 	streq	r0, [r0], #-1
    2f3c:	0c202150 	stfeqs	f2, [r0], #-320	; 0xfffffec0
    2f40:	00003304 	andeq	r3, r0, r4, lsl #6
    2f44:	016e0d00 	cmneq	lr, r0, lsl #26
    2f48:	0c0b0000 	stceq	0, cr0, [fp], {-0}
    2f4c:	01000009 	tsteq	r0, r9
    2f50:	018f2329 	orreq	r2, pc, r9, lsr #6
    2f54:	50400000 	subpl	r0, r0, r0
    2f58:	040c2021 	streq	r2, [ip], #-33	; 0xffffffdf
    2f5c:	000000c2 	andeq	r0, r0, r2, asr #1
    2f60:	0001890d 	andeq	r8, r1, sp, lsl #18
    2f64:	05f70e00 	ldrbeq	r0, [r7, #3584]!	; 0xe00
    2f68:	cc010000 	stcgt	0, cr0, [r1], {-0}
    2f6c:	0096a006 	addseq	sl, r6, r6
    2f70:	00001400 	andeq	r1, r0, r0, lsl #8
    2f74:	b49c0100 	ldrlt	r0, [ip], #256	; 0x100
    2f78:	0f000001 	svceq	0x00000001
    2f7c:	000096a8 	andeq	r9, r0, r8, lsr #13
    2f80:	000001b4 			; <UNDEFINED> instruction: 0x000001b4
    2f84:	078e1000 	streq	r1, [lr, r0]
    2f88:	b6010000 	strlt	r0, [r1], -r0
    2f8c:	00002505 	andeq	r2, r0, r5, lsl #10
    2f90:	00968000 	addseq	r8, r6, r0
    2f94:	00002000 	andeq	r2, r0, r0
    2f98:	eb9c0100 	bl	fe7033a0 <__bss_end__+0xfe6f8d48>
    2f9c:	0f000001 	svceq	0x00000001
    2fa0:	00009688 	andeq	r9, r0, r8, lsl #13
    2fa4:	000005a0 	andeq	r0, r0, r0, lsr #11
    2fa8:	00969011 	addseq	r9, r6, r1, lsl r0
    2fac:	0005ac00 	andeq	sl, r5, r0, lsl #24
    2fb0:	50011200 	andpl	r1, r1, r0, lsl #4
    2fb4:	50640c05 	rsbpl	r0, r4, r5, lsl #24
    2fb8:	00002021 	andeq	r2, r0, r1, lsr #32
    2fbc:	0008df10 	andeq	sp, r8, r0, lsl pc
    2fc0:	05b30100 	ldreq	r0, [r3, #256]!	; 0x100
    2fc4:	00000025 	andeq	r0, r0, r5, lsr #32
    2fc8:	00009670 	andeq	r9, r0, r0, ror r6
    2fcc:	00000010 	andeq	r0, r0, r0, lsl r0
    2fd0:	02189c01 	andseq	r9, r8, #256	; 0x100
    2fd4:	780f0000 	stmdavc	pc, {}	; <UNPREDICTABLE>
    2fd8:	a0000096 	mulge	r0, r6, r0
    2fdc:	0f000005 	svceq	0x00000005
    2fe0:	0000967c 	andeq	r9, r0, ip, ror r6
    2fe4:	00000309 	andeq	r0, r0, r9, lsl #6
    2fe8:	04a30e00 	strteq	r0, [r3], #3584	; 0xe00
    2fec:	ab010000 	blge	42ff4 <__bss_end__+0x3899c>
    2ff0:	00964006 	addseq	r4, r6, r6
    2ff4:	00003000 	andeq	r3, r0, r0
    2ff8:	7c9c0100 	ldfvcs	f0, [ip], {0}
    2ffc:	13000002 	movwne	r0, #2
    3000:	ab010063 	blge	43194 <__bss_end__+0x38b3c>
    3004:	00002c19 	andeq	r2, r0, r9, lsl ip
    3008:	0021b000 	eoreq	fp, r1, r0
    300c:	0021ac00 	eoreq	sl, r1, r0, lsl #24
    3010:	964c0f00 	strbls	r0, [ip], -r0, lsl #30
    3014:	05a00000 	streq	r0, [r0, #0]!
    3018:	500f0000 	andpl	r0, pc, r0
    301c:	db000096 	blle	327c <__code_start__-0x4d84>
    3020:	14000002 	strne	r0, [r0], #-2
    3024:	00009664 	andeq	r9, r0, r4, ror #12
    3028:	000005b8 			; <UNDEFINED> instruction: 0x000005b8
    302c:	00000272 	andeq	r0, r0, r2, ror r2
    3030:	05500112 	ldrbeq	r0, [r0, #-274]	; 0xfffffeee
    3034:	2150400c 	cmpcs	r0, ip
    3038:	51011220 	tstpl	r1, r0, lsr #4
    303c:	08007405 	stmdaeq	r0, {r0, r2, sl, ip, sp, lr}
    3040:	0f001aff 	svceq	0x00001aff
    3044:	00009668 	andeq	r9, r0, r8, ror #12
    3048:	000005a0 	andeq	r0, r0, r0, lsr #11
    304c:	08301000 	ldmdaeq	r0!, {ip}
    3050:	a3010000 	movwge	r0, #4096	; 0x1000
    3054:	00002505 	andeq	r2, r0, r5, lsl #10
    3058:	00961000 	addseq	r1, r6, r0
    305c:	00003000 	andeq	r3, r0, r0
    3060:	db9c0100 	blle	fe703468 <__bss_end__+0xfe6f8e10>
    3064:	15000002 	strne	r0, [r0, #-2]
    3068:	a7010063 	strge	r0, [r1, -r3, rrx]
    306c:	00002509 	andeq	r2, r0, r9, lsl #10
    3070:	0021d000 	eoreq	sp, r1, r0
    3074:	0021ce00 	eoreq	ip, r1, r0, lsl #28
    3078:	96180f00 	ldrls	r0, [r8], -r0, lsl #30
    307c:	05a00000 	streq	r0, [r0, #0]!
    3080:	1c0f0000 	stcne	0, cr0, [pc], {-0}
    3084:	09000096 	stmdbeq	r0, {r1, r2, r4, r7}
    3088:	14000003 	strne	r0, [r0], #-3
    308c:	0000962c 	andeq	r9, r0, ip, lsr #12
    3090:	000005ac 	andeq	r0, r0, ip, lsr #11
    3094:	000002d1 	ldrdeq	r0, [r0], -r1
    3098:	05500112 	ldrbeq	r0, [r0, #-274]	; 0xfffffeee
    309c:	2150400c 	cmpcs	r0, ip
    30a0:	340f0020 	strcc	r0, [pc], #-32	; 30a8 <__code_start__-0x4f58>
    30a4:	a0000096 	mulge	r0, r6, r0
    30a8:	00000005 	andeq	r0, r0, r5
    30ac:	00078010 	andeq	r8, r7, r0, lsl r0
    30b0:	05940100 	ldreq	r0, [r4, #256]	; 0x100
    30b4:	00000025 	andeq	r0, r0, r5, lsr #32
    30b8:	000095f0 	strdeq	r9, [r0], -r0
    30bc:	00000020 	andeq	r0, r0, r0, lsr #32
    30c0:	03099c01 	movweq	r9, #39937	; 0x9c01
    30c4:	fc110000 	ldc2	0, cr0, [r1], {-0}
    30c8:	ac000095 	stcge	0, cr0, [r0], {149}	; 0x95
    30cc:	12000005 	andne	r0, r0, #5, 0
    30d0:	0c055001 	stceq	0, cr5, [r5], {1}
    30d4:	20215064 	eorcs	r5, r1, r4, rrx
    30d8:	4e100000 	cdpmi	0, 1, cr0, cr0, cr0, {0}
    30dc:	01000007 	tsteq	r0, r7
    30e0:	0025058b 	eoreq	r0, r5, fp, lsl #11
    30e4:	95d80000 	ldrbls	r0, [r8]
    30e8:	00180000 	andseq	r0, r8, r0
    30ec:	9c010000 	stcls	0, cr0, [r1], {-0}
    30f0:	00000337 	andeq	r0, r0, r7, lsr r3
    30f4:	0095e411 	addseq	lr, r5, r1, lsl r4
    30f8:	0005ac00 	andeq	sl, r5, r0, lsl #24
    30fc:	50011200 	andpl	r1, r1, r0, lsl #4
    3100:	50640c05 	rsbpl	r0, r4, r5, lsl #24
    3104:	00002021 	andeq	r2, r0, r1, lsr #32
    3108:	0006150e 	andeq	r1, r6, lr, lsl #10
    310c:	06450100 	strbeq	r0, [r5], -r0, lsl #2
    3110:	00009528 	andeq	r9, r0, r8, lsr #10
    3114:	000000b0 	strheq	r0, [r0], -r0	; <UNPREDICTABLE>
    3118:	04849c01 	streq	r9, [r4], #3073	; 0xc01
    311c:	40160000 	andsmi	r0, r6, r0
    3120:	01000007 	tsteq	r0, r7
    3124:	00620e7e 	rsbeq	r0, r2, lr, ror lr
    3128:	010e0000 	mrseq	r0, (UNDEF: 14)
    312c:	00953814 	addseq	r3, r5, r4, lsl r8
    3130:	0005c400 	andeq	ip, r5, r0, lsl #8
    3134:	00037300 	andeq	r7, r3, r0, lsl #6
    3138:	50011200 	andpl	r1, r1, r0, lsl #4
    313c:	01123e01 	tsteq	r2, r1, lsl #28
    3140:	00320151 	eorseq	r0, r2, r1, asr r1
    3144:	00954414 	addseq	r4, r5, r4, lsl r4
    3148:	0005c400 	andeq	ip, r5, r0, lsl #8
    314c:	00038b00 	andeq	r8, r3, r0, lsl #22
    3150:	50011200 	andpl	r1, r1, r0, lsl #4
    3154:	01123f01 	tsteq	r2, r1, lsl #30
    3158:	00320151 	eorseq	r0, r2, r1, asr r1
    315c:	0095480f 	addseq	r4, r5, pc, lsl #16
    3160:	0005a000 	andeq	sl, r5, r0
    3164:	95541400 	ldrbls	r1, [r4, #-1024]	; 0xfffffc00
    3168:	053d0000 	ldreq	r0, [sp, #-0]!
    316c:	03b00000 	movseq	r0, #0, 0
    3170:	01120000 	tsteq	r2, r0
    3174:	040c0550 	streq	r0, [ip], #-1360	; 0xfffffab0
    3178:	12202150 	eorne	r2, r0, #20
    317c:	31015101 	tstcc	r1, r1, lsl #2
    3180:	95580f00 	ldrbls	r0, [r8, #-3840]	; 0xfffff100
    3184:	05a00000 	streq	r0, [r0, #0]!
    3188:	68140000 	ldmdavs	r4, {}	; <UNPREDICTABLE>
    318c:	b8000095 	stmdalt	r0, {r0, r2, r4, r7}
    3190:	d2000005 	andle	r0, r0, #5, 0
    3194:	12000003 	andne	r0, r0, #3, 0
    3198:	74025001 	strvc	r5, [r2], #-1
    319c:	51011200 	mrspl	r1, R9_usr
    31a0:	14003001 	strne	r3, [r0], #-1
    31a4:	00009574 	andeq	r9, r0, r4, ror r5
    31a8:	000005b8 			; <UNDEFINED> instruction: 0x000005b8
    31ac:	000003ee 	andeq	r0, r0, lr, ror #7
    31b0:	05500112 	ldrbeq	r0, [r0, #-274]	; 0xfffffeee
    31b4:	2150440c 	cmpcs	r0, ip, lsl #8
    31b8:	51011220 	tstpl	r1, r0, lsr #4
    31bc:	14003001 	strne	r3, [r0], #-1
    31c0:	00009580 	andeq	r9, r0, r0, lsl #11
    31c4:	000005b8 			; <UNDEFINED> instruction: 0x000005b8
    31c8:	0000040a 	andeq	r0, r0, sl, lsl #8
    31cc:	05500112 	ldrbeq	r0, [r0, #-274]	; 0xfffffeee
    31d0:	21504c0c 	cmpcs	r0, ip, lsl #24
    31d4:	51011220 	tstpl	r1, r0, lsr #4
    31d8:	14003301 	strne	r3, [r0], #-769	; 0xfffffcff
    31dc:	0000958c 	andeq	r9, r0, ip, lsl #11
    31e0:	000005b8 			; <UNDEFINED> instruction: 0x000005b8
    31e4:	00000426 	andeq	r0, r0, r6, lsr #8
    31e8:	05500112 	ldrbeq	r0, [r0, #-274]	; 0xfffffeee
    31ec:	2150500c 	cmpcs	r0, ip
    31f0:	51011220 	tstpl	r1, r0, lsr #4
    31f4:	14003001 	strne	r3, [r0], #-1
    31f8:	00009598 	muleq	r0, r8, r5
    31fc:	000005b8 			; <UNDEFINED> instruction: 0x000005b8
    3200:	00000443 	andeq	r0, r0, r3, asr #8
    3204:	05500112 	ldrbeq	r0, [r0, #-274]	; 0xfffffeee
    3208:	2150480c 	cmpcs	r0, ip, lsl #16
    320c:	51011220 	tstpl	r1, r0, lsr #4
    3210:	00c70802 	sbceq	r0, r7, r2, lsl #16
    3214:	0095a414 	addseq	sl, r5, r4, lsl r4
    3218:	0005b800 	andeq	fp, r5, r0, lsl #16
    321c:	00046100 	andeq	r6, r4, r0, lsl #2
    3220:	50011200 	andpl	r1, r1, r0, lsl #4
    3224:	50680c05 	rsbpl	r0, r8, r5, lsl #24
    3228:	01122021 	tsteq	r2, r1, lsr #32
    322c:	0e0a0351 	mcreq	3, 0, r0, cr10, cr1, {2}
    3230:	b0140001 	andslt	r0, r4, r1
    3234:	b8000095 	stmdalt	r0, {r0, r2, r4, r7}
    3238:	7a000005 	bvc	3254 <__code_start__-0x4dac>
    323c:	12000004 	andne	r0, r0, #4, 0
    3240:	74025001 	strvc	r5, [r2], #-1
    3244:	51011200 	mrspl	r1, R9_usr
    3248:	0f003301 	svceq	0x00003301
    324c:	000095b4 			; <UNDEFINED> instruction: 0x000095b4
    3250:	000005a0 	andeq	r0, r0, r0, lsr #11
    3254:	08d20e00 	ldmeq	r2, {r9, sl, fp}^
    3258:	35010000 	strcc	r0, [r1, #-0]
    325c:	0096b406 	addseq	fp, r6, r6, lsl #8
    3260:	00002400 	andeq	r2, r0, r0, lsl #8
    3264:	d39c0100 	orrsle	r0, ip, #0
    3268:	0f000004 	svceq	0x00000004
    326c:	000096bc 			; <UNDEFINED> instruction: 0x000096bc
    3270:	00000194 	muleq	r0, r4, r1
    3274:	0096c00f 	addseq	ip, r6, pc
    3278:	0005a000 	andeq	sl, r5, r0
    327c:	96cc1400 	strbls	r1, [ip], r0, lsl #8
    3280:	04d30000 	ldrbeq	r0, [r3], #0
    3284:	04c90000 	strbeq	r0, [r9], #0
    3288:	01120000 	tsteq	r2, r0
    328c:	040c0550 	streq	r0, [ip], #-1360	; 0xfffffab0
    3290:	12202150 	eorne	r2, r0, #20
    3294:	09025101 	stmdbeq	r2, {r0, r8, ip, lr}
    3298:	d00f00fe 	strdle	r0, [pc], -lr
    329c:	a0000096 	mulge	r0, r6, r0
    32a0:	00000005 	andeq	r0, r0, r5
    32a4:	00091117 	andeq	r1, r9, r7, lsl r1
    32a8:	0d310100 	ldfeqs	f0, [r1, #-0]
    32ac:	000094e8 	andeq	r9, r0, r8, ror #9
    32b0:	00000020 	andeq	r0, r0, r0, lsr #32
    32b4:	05369c01 	ldreq	r9, [r6, #-3073]!	; 0xfffff3ff
    32b8:	61180000 	tstvs	r8, r0
    32bc:	01000009 	tsteq	r0, r9
    32c0:	05362531 	ldreq	r2, [r6, #-1329]!	; 0xfffffacf
    32c4:	21e70000 	mvncs	r0, r0
    32c8:	21e30000 	mvncs	r0, r0
    32cc:	76130000 	ldrvc	r0, [r3], -r0
    32d0:	01006c61 	tsteq	r0, r1, ror #24
    32d4:	002c3431 	eoreq	r3, ip, r1, lsr r4
    32d8:	22090000 	andcs	r0, r9, #0, 0
    32dc:	22050000 	andcs	r0, r5, #0, 0
    32e0:	f8140000 			; <UNDEFINED> instruction: 0xf8140000
    32e4:	ac000094 	stcge	0, cr0, [r0], {148}	; 0x94
    32e8:	25000005 	strcs	r0, [r0, #-5]
    32ec:	12000005 	andne	r0, r0, #5, 0
    32f0:	74025001 	strvc	r5, [r2], #-1
    32f4:	04110000 	ldreq	r0, [r1], #-0
    32f8:	b8000095 	stmdalt	r0, {r0, r2, r4, r7}
    32fc:	12000005 	andne	r0, r0, #5, 0
    3300:	74025001 	strvc	r5, [r2], #-1
    3304:	0c000000 	stceq	0, cr0, [r0], {-0}
    3308:	00053c04 	andeq	r3, r5, r4, lsl #24
    330c:	fc171900 	ldc2	9, cr1, [r7], {-0}	; <UNPREDICTABLE>
    3310:	01000008 	tsteq	r0, r8
    3314:	95080d2e 	strls	r0, [r8, #-3374]	; 0xfffff2d2
    3318:	00200000 	eoreq	r0, r0, r0
    331c:	9c010000 	stcls	0, cr0, [r1], {-0}
    3320:	000005a0 	andeq	r0, r0, r0, lsr #11
    3324:	00096118 	andeq	r6, r9, r8, lsl r1
    3328:	242e0100 	strtcs	r0, [lr], #-256	; 0xffffff00
    332c:	00000536 	andeq	r0, r0, r6, lsr r5
    3330:	0000222b 	andeq	r2, r0, fp, lsr #4
    3334:	00002227 	andeq	r2, r0, r7, lsr #4
    3338:	6c617613 	stclvs	6, cr7, [r1], #-76	; 0xffffffb4
    333c:	332e0100 			; <UNDEFINED> instruction: 0x332e0100
    3340:	0000002c 	andeq	r0, r0, ip, lsr #32
    3344:	0000224d 	andeq	r2, r0, sp, asr #4
    3348:	00002249 	andeq	r2, r0, r9, asr #4
    334c:	00951814 	addseq	r1, r5, r4, lsl r8
    3350:	0005ac00 	andeq	sl, r5, r0, lsl #24
    3354:	00058f00 	andeq	r8, r5, r0, lsl #30
    3358:	50011200 	andpl	r1, r1, r0, lsl #4
    335c:	00007402 	andeq	r7, r0, r2, lsl #8
    3360:	00952411 	addseq	r2, r5, r1, lsl r4
    3364:	0005b800 	andeq	fp, r5, r0, lsl #16
    3368:	50011200 	andpl	r1, r1, r0, lsl #4
    336c:	00007402 	andeq	r7, r0, r2, lsl #8
    3370:	06df1a00 	ldrbeq	r1, [pc], r0, lsl #20
    3374:	06df0000 	ldrbeq	r0, [pc], r0
    3378:	9c030000 	stcls	0, cr0, [r3], {-0}
    337c:	093c1a06 	ldmdbeq	ip!, {r1, r2, r9, fp, ip}
    3380:	093c0000 	ldmdbeq	ip!, {}	; <UNPREDICTABLE>
    3384:	c3030000 	movwgt	r0, #12288	; 0x3000
    3388:	073a1a0b 	ldreq	r1, [sl, -fp, lsl #20]!
    338c:	073a0000 	ldreq	r0, [sl, -r0]!
    3390:	ae030000 	cdpge	0, 0, cr0, cr3, cr0, {0}
    3394:	092a1a06 	stmdbeq	sl!, {r1, r2, r9, fp, ip}
    3398:	092a0000 	stmdbeq	sl!, {}	; <UNPREDICTABLE>
    339c:	19040000 	stmdbne	r4, {}	; <UNPREDICTABLE>
    33a0:	08e90006 	stmiaeq	r9!, {r1, r2}^
    33a4:	00040000 	andeq	r0, r4, r0
    33a8:	00001448 	andeq	r1, r0, r8, asr #8
    33ac:	083a0104 	ldmdaeq	sl!, {r2, r8}
    33b0:	d80c0000 	stmdale	ip, {}	; <UNPREDICTABLE>
    33b4:	ea000009 	b	33e0 <__code_start__-0x4c20>
    33b8:	d8000007 	stmdale	r0, {r0, r1, r2}
    33bc:	b0000096 	mullt	r0, r6, r0
    33c0:	68000003 	stmdavs	r0, {r0, r1}
    33c4:	0200001c 	andeq	r0, r0, #28, 0
    33c8:	6e690504 	cdpvs	5, 6, cr0, cr9, cr4, {0}
    33cc:	04030074 	streq	r0, [r3], #-116	; 0xffffff8c
    33d0:	00008d07 	andeq	r8, r0, r7, lsl #26
    33d4:	06010300 	streq	r0, [r1], -r0, lsl #6
    33d8:	0000001d 	andeq	r0, r0, sp, lsl r0
    33dc:	03050203 	movweq	r0, #20995	; 0x5203
    33e0:	03000001 	movweq	r0, #1
    33e4:	00b70504 	adcseq	r0, r7, r4, lsl #10
    33e8:	08030000 	stmdaeq	r3, {}	; <UNPREDICTABLE>
    33ec:	0000b205 	andeq	fp, r0, r5, lsl #4
    33f0:	08010300 	stmdaeq	r1, {r8, r9}
    33f4:	0000001b 	andeq	r0, r0, fp, lsl r0
    33f8:	36070203 	strcc	r0, [r7], -r3, lsl #4
    33fc:	04000000 	streq	r0, [r0], #-0
    3400:	00000315 	andeq	r0, r0, r5, lsl r3
    3404:	69193403 	ldmdbvs	r9, {r0, r1, sl, ip, sp}
    3408:	03000000 	movweq	r0, #0
    340c:	00880704 	addeq	r0, r8, r4, lsl #14
    3410:	08030000 	stmdaeq	r3, {}	; <UNPREDICTABLE>
    3414:	00008307 	andeq	r8, r0, r7, lsl #6
    3418:	08010300 	stmdaeq	r1, {r8, r9}
    341c:	00000024 	andeq	r0, r0, r4, lsr #32
    3420:	00007705 	andeq	r7, r0, r5, lsl #14
    3424:	04080300 	streq	r0, [r8], #-768	; 0xfffffd00
    3428:	0000020f 	andeq	r0, r0, pc, lsl #4
    342c:	07070406 	streq	r0, [r7, -r6, lsl #8]
    3430:	00002c04 	andeq	r2, r0, r4, lsl #24
    3434:	061f0100 	ldreq	r0, [pc], -r0, lsl #2
    3438:	000000a4 	andeq	r0, r0, r4, lsr #1
    343c:	00096608 	andeq	r6, r9, r8, lsl #12
    3440:	20000000 	andcs	r0, r0, r0
    3444:	31090000 	mrscc	r0, (UNDEF: 9)
    3448:	01000005 	tsteq	r0, r5
    344c:	00770d22 	rsbseq	r0, r7, r2, lsr #26
    3450:	810a0000 	mrshi	r0, (UNDEF: 10)
    3454:	01000009 	tsteq	r0, r9
    3458:	00c20e23 	sbceq	r0, r2, r3, lsr #28
    345c:	03050000 	movweq	r0, #20480	; 0x5000
    3460:	0000a234 	andeq	sl, r0, r4, lsr r2
    3464:	0077040b 	rsbseq	r0, r7, fp, lsl #8
    3468:	4a0a0000 	bmi	283470 <__bss_end__+0x278e18>
    346c:	01000009 	tsteq	r0, r9
    3470:	00c20e24 	sbceq	r0, r2, r4, lsr #28
    3474:	03050000 	movweq	r0, #20480	; 0x5000
    3478:	0000a238 	andeq	sl, r0, r8, lsr r2
    347c:	0009b70a 	andeq	fp, r9, sl, lsl #14
    3480:	0e250100 	sufeqs	f0, f5, f0
    3484:	000000c2 	andeq	r0, r0, r2, asr #1
    3488:	a23c0305 	eorsge	r0, ip, #335544320	; 0x14000000
    348c:	8d0c0000 	stchi	0, cr0, [ip, #-0]
    3490:	01000009 	tsteq	r0, r9
    3494:	9a280675 	bls	a04e70 <__bss_end__+0x9fa818>
    3498:	00600000 	rsbeq	r0, r0, r0
    349c:	9c010000 	stcls	0, cr0, [r1], {-0}
    34a0:	00000164 	andeq	r0, r0, r4, ror #2
    34a4:	0100700d 	tsteq	r0, sp
    34a8:	008a1675 	addeq	r1, sl, r5, ror r6
    34ac:	22710000 	rsbscs	r0, r1, #0, 0
    34b0:	226b0000 	rsbcs	r0, fp, #0, 0
    34b4:	5e0e0000 	cdppl	0, 0, cr0, cr14, cr0, {0}
    34b8:	74000000 	strvc	r0, [r0], #-0
    34bc:	05000001 	streq	r0, [r0, #-1]
    34c0:	00a22003 	adceq	r2, r2, r3
    34c4:	9a740f00 	bls	1d070cc <__bss_end__+0x1cfca74>
    34c8:	08bc0000 	ldmeq	ip!, {}	; <UNPREDICTABLE>
    34cc:	015a0000 	cmpeq	sl, r0
    34d0:	01100000 	tsteq	r0, r0
    34d4:	98030550 	stmdals	r3, {r4, r6, r8, sl}
    34d8:	100000a1 	andne	r0, r0, r1, lsr #1
    34dc:	03055101 	movweq	r5, #20737	; 0x5101
    34e0:	0000a030 	andeq	sl, r0, r0, lsr r0
    34e4:	05520110 	ldrbeq	r0, [r2, #-272]	; 0xfffffef0
    34e8:	00a22003 	adceq	r2, r2, r3
    34ec:	53011000 	movwpl	r1, #4096	; 0x1000
    34f0:	10770802 	rsbsne	r0, r7, r2, lsl #16
    34f4:	03007d02 	movweq	r7, #3330	; 0xd02
    34f8:	005001f3 	ldrsheq	r0, [r0], #-19	; 0xffffffed
    34fc:	009a7811 	addseq	r7, sl, r1, lsl r8
    3500:	0008c800 	andeq	ip, r8, r0, lsl #16
    3504:	7e120000 	cdpvc	0, 1, cr0, cr2, cr0, {0}
    3508:	74000000 	strvc	r0, [r0], #-0
    350c:	13000001 	movwne	r0, #1
    3510:	0000002c 	andeq	r0, r0, ip, lsr #32
    3514:	64050009 	strvs	r0, [r5], #-9
    3518:	14000001 	strne	r0, [r0], #-1
    351c:	0000096f 	andeq	r0, r0, pc, ror #18
    3520:	14067201 	strne	r7, [r6], #-513	; 0xfffffdff
    3524:	1400009a 	strne	r0, [r0], #-154	; 0xffffff66
    3528:	01000000 	mrseq	r0, (UNDEF: 0)
    352c:	00010c9c 	muleq	r1, ip, ip
    3530:	6f010000 	svcvs	0x00010000
    3534:	009a1006 	addseq	r1, sl, r6
    3538:	00000400 	andeq	r0, r0, r0, lsl #8
    353c:	ae9c0100 	fmlgee	f0, f4, f0
    3540:	15000001 	strne	r0, [r0, #-1]
    3544:	6f010070 	svcvs	0x00010070
    3548:	00008a12 	andeq	r8, r0, r2, lsl sl
    354c:	00500100 	subseq	r0, r0, r0, lsl #2
    3550:	000a2216 	andeq	r2, sl, r6, lsl r2
    3554:	075e0100 	ldrbeq	r0, [lr, -r0, lsl #2]
    3558:	0000008a 	andeq	r0, r0, sl, lsl #1
    355c:	000098f8 	strdeq	r9, [r0], -r8
    3560:	00000118 	andeq	r0, r0, r8, lsl r1
    3564:	042c9c01 	strteq	r9, [ip], #-3073	; 0xfffff3ff
    3568:	5e170000 	cdppl	0, 1, cr0, cr7, cr0, {0}
    356c:	01000002 	tsteq	r0, r2
    3570:	002c205e 	eoreq	r2, ip, lr, asr r0
    3574:	22b20000 	adcscs	r0, r2, #0, 0
    3578:	229e0000 	addscs	r0, lr, #0, 0
    357c:	97170000 	ldrls	r0, [r7, -r0]
    3580:	01000009 	tsteq	r0, r9
    3584:	002c315e 	eoreq	r3, ip, lr, asr r1
    3588:	234b0000 	movtcs	r0, #45056	; 0xb000
    358c:	23370000 	teqcs	r7, #0, 0
    3590:	5e0e0000 	cdppl	0, 0, cr0, cr14, cr0, {0}
    3594:	3c000000 	stccc	0, cr0, [r0], {-0}
    3598:	05000004 	streq	r0, [r0, #-4]
    359c:	00a20803 	adceq	r0, r2, r3, lsl #16
    35a0:	00681800 	rsbeq	r1, r8, r0, lsl #16
    35a4:	2c0e6601 	stccs	6, cr6, [lr], {1}
    35a8:	01000000 	mrseq	r0, (UNDEF: 0)
    35ac:	f5000024 			; <UNDEFINED> instruction: 0xf5000024
    35b0:	19000023 	stmdbne	r0, {r0, r1, r5}
    35b4:	00000854 	andeq	r0, r0, r4, asr r8
    35b8:	00009908 	andeq	r9, r0, r8, lsl #18
    35bc:	00990804 	addseq	r0, r9, r4, lsl #16
    35c0:	00000400 	andeq	r0, r0, r0, lsl #8
    35c4:	05600100 	strbeq	r0, [r0, #-256]!	; 0xffffff00
    35c8:	00000238 	andeq	r0, r0, r8, lsr r2
    35cc:	0008651a 	andeq	r6, r8, sl, lsl r5
    35d0:	00245500 	eoreq	r5, r4, r0, lsl #10
    35d4:	00245300 	eoreq	r5, r4, r0, lsl #6
    35d8:	96190000 	ldrls	r0, [r9], -r0
    35dc:	14000008 	strne	r0, [r0], #-8
    35e0:	02000099 	andeq	r0, r0, #153, 0	; 0x99
    35e4:	00009914 	andeq	r9, r0, r4, lsl r9
    35e8:	00000008 	andeq	r0, r0, r8
    35ec:	6c116101 	ldfvss	f6, [r1], {1}
    35f0:	1a000002 	bne	3600 <__code_start__-0x4a00>
    35f4:	000008b1 			; <UNDEFINED> instruction: 0x000008b1
    35f8:	0000246a 	andeq	r2, r0, sl, ror #8
    35fc:	00002468 	andeq	r2, r0, r8, ror #8
    3600:	0008a71a 	andeq	sl, r8, sl, lsl r7
    3604:	00248000 	eoreq	r8, r4, r0
    3608:	00247e00 	eoreq	r7, r4, r0, lsl #28
    360c:	1f1b0000 	svcne	0x001b0000
    3610:	24000008 	strcs	r0, [r0], #-8
    3614:	01000099 	swpeq	r0, r9, [r0]	; <UNPREDICTABLE>
    3618:	00000368 	andeq	r0, r0, r8, ror #6
    361c:	0a096701 	beq	25d228 <__bss_end__+0x252bd0>
    3620:	1a000003 	bne	3634 <__code_start__-0x49cc>
    3624:	0000083a 	andeq	r0, r0, sl, lsr r8
    3628:	00002499 	muleq	r0, r9, r4
    362c:	00002493 	muleq	r0, r3, r4
    3630:	0008301a 	andeq	r3, r8, sl, lsl r0
    3634:	0024e000 	eoreq	lr, r4, r0
    3638:	0024d800 	eoreq	sp, r4, r0, lsl #16
    363c:	03681c00 	cmneq	r8, #0, 24
    3640:	54190000 	ldrpl	r0, [r9], #-0
    3644:	24000008 	strcs	r0, [r0], #-8
    3648:	04000099 	streq	r0, [r0], #-153	; 0xffffff67
    364c:	00009924 	andeq	r9, r0, r4, lsr #18
    3650:	00000004 	andeq	r0, r0, r4
    3654:	c7051101 	strgt	r1, [r5, -r1, lsl #2]
    3658:	1a000002 	bne	3668 <__code_start__-0x4998>
    365c:	00000865 	andeq	r0, r0, r5, ror #16
    3660:	0000251e 	andeq	r2, r0, lr, lsl r5
    3664:	0000251c 	andeq	r2, r0, ip, lsl r5
    3668:	99bc0f00 	ldmibls	ip!, {r8, r9, sl, fp}
    366c:	08bc0000 	ldmeq	ip!, {}	; <UNPREDICTABLE>
    3670:	02ff0000 	rscseq	r0, pc, #0, 0
    3674:	01100000 	tsteq	r0, r0
    3678:	58030550 	stmdapl	r3, {r4, r6, r8, sl}
    367c:	1000009d 	mulne	r0, sp, r0
    3680:	03055101 	movweq	r5, #20737	; 0x5101
    3684:	0000a030 	andeq	sl, r0, r0, lsr r0
    3688:	05520110 	ldrbeq	r0, [r2, #-272]	; 0xfffffef0
    368c:	00a21803 	adceq	r1, r2, r3, lsl #16
    3690:	53011000 	movwpl	r1, #4096	; 0x1000
    3694:	02104101 	andseq	r4, r0, #1073741824	; 0x40000000
    3698:	0305007d 	movweq	r0, #20605	; 0x507d
    369c:	0000a144 	andeq	sl, r0, r4, asr #2
    36a0:	99c01100 	stmibls	r0, {r8, ip}^
    36a4:	08c80000 	stmiaeq	r8, {}^	; <UNPREDICTABLE>
    36a8:	00000000 	andeq	r0, r0, r0
    36ac:	00087019 	andeq	r7, r8, r9, lsl r0
    36b0:	00993c00 	addseq	r3, r9, r0, lsl #24
    36b4:	993c0300 	ldmdbls	ip!, {r8, r9}
    36b8:	00040000 	andeq	r0, r4, r0
    36bc:	68010000 	stmdavs	r1, {}	; <UNPREDICTABLE>
    36c0:	00033e05 	andeq	r3, r3, r5, lsl #28
    36c4:	088b1a00 	stmeq	fp, {r9, fp, ip}
    36c8:	25330000 	ldrcs	r0, [r3, #-0]!
    36cc:	25310000 	ldrcs	r0, [r1, #-0]!
    36d0:	811a0000 	tsthi	sl, r0
    36d4:	48000008 	stmdami	r0, {r3}
    36d8:	46000025 	strmi	r0, [r0], -r5, lsr #32
    36dc:	00000025 	andeq	r0, r0, r5, lsr #32
    36e0:	0099540f 	addseq	r5, r9, pc, lsl #8
    36e4:	00044100 	andeq	r4, r4, r0, lsl #2
    36e8:	00035300 	andeq	r5, r3, r0, lsl #6
    36ec:	50011000 	andpl	r1, r1, r0
    36f0:	5001f303 	andpl	pc, r1, r3, lsl #6
    36f4:	99780f00 	ldmdbls	r8!, {r8, r9, sl, fp}^
    36f8:	08bc0000 	ldmeq	ip!, {}	; <UNPREDICTABLE>
    36fc:	038c0000 	orreq	r0, ip, #0, 0
    3700:	01100000 	tsteq	r0, r0
    3704:	58030550 	stmdapl	r3, {r4, r6, r8, sl}
    3708:	1000009d 	mulne	r0, sp, r0
    370c:	03055101 	movweq	r5, #20737	; 0x5101
    3710:	0000a030 	andeq	sl, r0, r0, lsr r0
    3714:	05520110 	ldrbeq	r0, [r2, #-272]	; 0xfffffef0
    3718:	00a20803 	adceq	r0, r2, r3, lsl #16
    371c:	53011000 	movwpl	r1, #4096	; 0x1000
    3720:	105f0802 	subsne	r0, pc, r2, lsl #16
    3724:	05007d02 	streq	r7, [r0, #-3330]	; 0xfffff2fe
    3728:	00a04003 	adceq	r4, r0, r3
    372c:	7c110000 	ldcvc	0, cr0, [r1], {-0}
    3730:	c8000099 	stmdagt	r0, {r0, r3, r4, r7}
    3734:	11000008 	tstne	r0, r8
    3738:	00009980 	andeq	r9, r0, r0, lsl #19
    373c:	000008d4 	ldrdeq	r0, [r0], -r4
    3740:	00999c0f 	addseq	r9, r9, pc, lsl #24
    3744:	0008bc00 	andeq	fp, r8, r0, lsl #24
    3748:	0003d700 	andeq	sp, r3, r0, lsl #14
    374c:	50011000 	andpl	r1, r1, r0
    3750:	a0fc0305 	rscsge	r0, ip, r5, lsl #6
    3754:	01100000 	tsteq	r0, r0
    3758:	30030551 	andcc	r0, r3, r1, asr r5
    375c:	100000a0 	andne	r0, r0, r0, lsr #1
    3760:	03055201 	movweq	r5, #20993	; 0x5201
    3764:	0000a208 	andeq	sl, r0, r8, lsl #4
    3768:	02530110 	subseq	r0, r3, #4
    376c:	02106008 	andseq	r6, r0, #8, 0
    3770:	0305007d 	movweq	r0, #20605	; 0x507d
    3774:	0000a130 	andeq	sl, r0, r0, lsr r1
    3778:	99a01100 	stmibls	r0!, {r8, ip}
    377c:	08c80000 	stmiaeq	r8, {}^	; <UNPREDICTABLE>
    3780:	c4110000 	ldrgt	r0, [r1], #-0
    3784:	d4000099 	strle	r0, [r0], #-153	; 0xffffff67
    3788:	0f000008 	svceq	0x00000008
    378c:	000099e0 	andeq	r9, r0, r0, ror #19
    3790:	000008bc 			; <UNDEFINED> instruction: 0x000008bc
    3794:	00000422 	andeq	r0, r0, r2, lsr #8
    3798:	05500110 	ldrbeq	r0, [r0, #-272]	; 0xfffffef0
    379c:	00a15003 	adceq	r5, r1, r3
    37a0:	51011000 	mrspl	r1, (UNDEF: 1)
    37a4:	a0300305 	eorsge	r0, r0, r5, lsl #6
    37a8:	01100000 	tsteq	r0, r0
    37ac:	08030552 	stmdaeq	r3, {r1, r4, r6, r8, sl}
    37b0:	100000a2 	andne	r0, r0, r2, lsr #1
    37b4:	08025301 	stmdaeq	r2, {r0, r8, r9, ip, lr}
    37b8:	7d021068 	stcvc	0, cr1, [r2, #-416]	; 0xfffffe60
    37bc:	7c030500 	cfstr32vc	mvfx0, [r3], {-0}
    37c0:	000000a1 	andeq	r0, r0, r1, lsr #1
    37c4:	0099e411 	addseq	lr, r9, r1, lsl r4
    37c8:	0008c800 	andeq	ip, r8, r0, lsl #16
    37cc:	7e120000 	cdpvc	0, 1, cr0, cr2, cr0, {0}
    37d0:	3c000000 	stccc	0, cr0, [r0], {-0}
    37d4:	13000004 	movwne	r0, #4
    37d8:	0000002c 	andeq	r0, r0, ip, lsr #32
    37dc:	2c05000f 	stccs	0, cr0, [r5], {15}
    37e0:	16000004 	strne	r0, [r0], -r4
    37e4:	00000249 	andeq	r0, r0, r9, asr #4
    37e8:	8a075301 	bhi	1d83f4 <__bss_end__+0x1cdd9c>
    37ec:	94000000 	strls	r0, [r0], #-0
    37f0:	64000098 	strvs	r0, [r0], #-152	; 0xffffff68
    37f4:	01000000 	mrseq	r0, (UNDEF: 0)
    37f8:	0005089c 	muleq	r5, ip, r8
    37fc:	025e1700 	subseq	r1, lr, #0, 14
    3800:	53010000 	movwpl	r0, #4096	; 0x1000
    3804:	00002c18 	andeq	r2, r0, r8, lsl ip
    3808:	00256300 	eoreq	r6, r5, r0, lsl #6
    380c:	00255b00 	eoreq	r5, r5, r0, lsl #22
    3810:	005e0e00 	subseq	r0, lr, r0, lsl #28
    3814:	05180000 	ldreq	r0, [r8, #-0]
    3818:	03050000 	movweq	r0, #20480	; 0x5000
    381c:	0000a200 	andeq	sl, r0, r0, lsl #4
    3820:	0009611d 	andeq	r6, r9, sp, lsl r1
    3824:	0b550100 	bleq	1543c2c <__bss_end__+0x15395d4>
    3828:	0000008a 	andeq	r0, r0, sl, lsl #1
    382c:	0000259b 	muleq	r0, fp, r5
    3830:	00002597 	muleq	r0, r7, r5
    3834:	0098ac0f 	addseq	sl, r8, pc, lsl #24
    3838:	00051d00 	andeq	r1, r5, r0, lsl #26
    383c:	0004a600 	andeq	sl, r4, r0, lsl #12
    3840:	50011000 	andpl	r1, r1, r0
    3844:	00007402 	andeq	r7, r0, r2, lsl #8
    3848:	0098bc0f 	addseq	fp, r8, pc, lsl #24
    384c:	0008e000 	andeq	lr, r8, r0
    3850:	0004c500 	andeq	ip, r4, r0, lsl #10
    3854:	50011000 	andpl	r1, r1, r0
    3858:	10007502 	andne	r7, r0, r2, lsl #10
    385c:	30015101 	andcc	r5, r1, r1, lsl #2
    3860:	02520110 	subseq	r0, r2, #4
    3864:	0f000074 	svceq	0x00000074
    3868:	000098e4 	andeq	r9, r0, r4, ror #17
    386c:	000008bc 			; <UNDEFINED> instruction: 0x000008bc
    3870:	000004fe 	strdeq	r0, [r0], -lr
    3874:	05500110 	ldrbeq	r0, [r0, #-272]	; 0xfffffef0
    3878:	009d5803 	addseq	r5, sp, r3, lsl #16
    387c:	51011000 	mrspl	r1, (UNDEF: 1)
    3880:	a0300305 	eorsge	r0, r0, r5, lsl #6
    3884:	01100000 	tsteq	r0, r0
    3888:	00030552 	andeq	r0, r3, r2, asr r5
    388c:	100000a2 	andne	r0, r0, r2, lsr #1
    3890:	08025301 	stmdaeq	r2, {r0, r8, r9, ip, lr}
    3894:	7d021054 	stcvc	0, cr1, [r2, #-336]	; 0xfffffeb0
    3898:	40030500 	andmi	r0, r3, r0, lsl #10
    389c:	000000a0 	andeq	r0, r0, r0, lsr #1
    38a0:	0098e811 	addseq	lr, r8, r1, lsl r8
    38a4:	0008c800 	andeq	ip, r8, r0, lsl #16
    38a8:	7e120000 	cdpvc	0, 1, cr0, cr2, cr0, {0}
    38ac:	18000000 	stmdane	r0, {}	; <UNPREDICTABLE>
    38b0:	13000005 	movwne	r0, #5
    38b4:	0000002c 	andeq	r0, r0, ip, lsr #32
    38b8:	08050007 	stmdaeq	r5, {r0, r1, r2}
    38bc:	16000005 	strne	r0, [r0], -r5
    38c0:	000009c0 	andeq	r0, r0, r0, asr #19
    38c4:	8a074701 	bhi	1d54d0 <__bss_end__+0x1cae78>
    38c8:	fc000000 	stc2	0, cr0, [r0], {-0}
    38cc:	98000097 	stmdals	r0, {r0, r1, r2, r4, r7}
    38d0:	01000000 	mrseq	r0, (UNDEF: 0)
    38d4:	00062b9c 	muleq	r6, ip, fp
    38d8:	025e1700 	subseq	r1, lr, #0, 14
    38dc:	47010000 	strmi	r0, [r1, -r0]
    38e0:	00002c20 	andeq	r2, r0, r0, lsr #24
    38e4:	0025c900 	eoreq	ip, r5, r0, lsl #18
    38e8:	0025b900 	eoreq	fp, r5, r0, lsl #18
    38ec:	005e0e00 	subseq	r0, lr, r0, lsl #28
    38f0:	043c0000 	ldrteq	r0, [ip], #-0
    38f4:	03050000 	movweq	r0, #20480	; 0x5000
    38f8:	0000a1f0 	strdeq	sl, [r0], -r0
    38fc:	0009611d 	andeq	r6, r9, sp, lsl r1
    3900:	0b4b0100 	bleq	12c3d08 <__bss_end__+0x12b96b0>
    3904:	0000008a 	andeq	r0, r0, sl, lsl #1
    3908:	0000263b 	andeq	r2, r0, fp, lsr r6
    390c:	00002637 	andeq	r2, r0, r7, lsr r6
    3910:	00081f1b 	andeq	r1, r8, fp, lsl pc
    3914:	00980c00 	addseq	r0, r8, r0, lsl #24
    3918:	03500300 	cmpeq	r0, #0, 6
    391c:	49010000 	stmdbmi	r1, {}	; <UNPREDICTABLE>
    3920:	0005a30e 	andeq	sl, r5, lr, lsl #6
    3924:	083a1a00 	ldmdaeq	sl!, {r9, fp, ip}
    3928:	265b0000 	ldrbcs	r0, [fp], -r0
    392c:	26590000 	ldrbcs	r0, [r9], -r0
    3930:	301a0000 	andscc	r0, sl, r0
    3934:	73000008 	movwvc	r0, #8
    3938:	6f000026 	svcvs	0x00000026
    393c:	1e000026 	cdpne	0, 0, cr0, cr0, cr6, {1}
    3940:	00000350 	andeq	r0, r0, r0, asr r3
    3944:	98540f00 	ldmdals	r4, {r8, r9, sl, fp}^
    3948:	08bc0000 	ldmeq	ip!, {}	; <UNPREDICTABLE>
    394c:	05dc0000 	ldrbeq	r0, [ip]
    3950:	01100000 	tsteq	r0, r0
    3954:	58030550 	stmdapl	r3, {r4, r6, r8, sl}
    3958:	1000009d 	mulne	r0, sp, r0
    395c:	03055101 	movweq	r5, #20737	; 0x5101
    3960:	0000a030 	andeq	sl, r0, r0, lsr r0
    3964:	05520110 	ldrbeq	r0, [r2, #-272]	; 0xfffffef0
    3968:	00a1f003 	adceq	pc, r1, r3
    396c:	53011000 	movwpl	r1, #4096	; 0x1000
    3970:	10480802 	subne	r0, r8, r2, lsl #16
    3974:	05007d02 	streq	r7, [r0, #-3330]	; 0xfffff2fe
    3978:	00a04003 	adceq	r4, r0, r3
    397c:	58110000 	ldmdapl	r1, {}	; <UNPREDICTABLE>
    3980:	c8000098 	stmdagt	r0, {r3, r4, r7}
    3984:	0f000008 	svceq	0x00000008
    3988:	00009878 	andeq	r9, r0, r8, ror r8
    398c:	000008bc 			; <UNDEFINED> instruction: 0x000008bc
    3990:	00000621 	andeq	r0, r0, r1, lsr #12
    3994:	05500110 	ldrbeq	r0, [r0, #-272]	; 0xfffffef0
    3998:	00a0bc03 	adceq	fp, r0, r3, lsl #24
    399c:	51011000 	mrspl	r1, (UNDEF: 1)
    39a0:	a0300305 	eorsge	r0, r0, r5, lsl #6
    39a4:	01100000 	tsteq	r0, r0
    39a8:	f0030552 			; <UNDEFINED> instruction: 0xf0030552
    39ac:	100000a1 	andne	r0, r0, r1, lsr #1
    39b0:	08025301 	stmdaeq	r2, {r0, r8, r9, ip, lr}
    39b4:	7d02104e 	stcvc	0, cr1, [r2, #-312]	; 0xfffffec8
    39b8:	01f30800 	mvnseq	r0, r0, lsl #16
    39bc:	09072350 	stmdbeq	r7, {r4, r6, r8, r9, sp}
    39c0:	11001af8 	strdne	r1, [r0, -r8]
    39c4:	0000987c 	andeq	r9, r0, ip, ror r8
    39c8:	000008c8 	andeq	r0, r0, r8, asr #17
    39cc:	09e20c00 	stmibeq	r2!, {sl, fp}^
    39d0:	3c010000 	stccc	0, cr0, [r1], {-0}
    39d4:	0097a406 	addseq	sl, r7, r6, lsl #8
    39d8:	00005800 	andeq	r5, r0, r0, lsl #16
    39dc:	cf9c0100 	svcgt	0x009c0100
    39e0:	0a000006 	beq	3a00 <__code_start__-0x4600>
    39e4:	00000986 	andeq	r0, r0, r6, lsl #19
    39e8:	25103d01 	ldrcs	r3, [r0, #-3329]	; 0xfffff2ff
    39ec:	05000000 	streq	r0, [r0, #-0]
    39f0:	00a65403 	adceq	r5, r6, r3, lsl #8
    39f4:	005e0e00 	subseq	r0, lr, r0, lsl #28
    39f8:	06df0000 	ldrbeq	r0, [pc], r0
    39fc:	03050000 	movweq	r0, #20480	; 0x5000
    3a00:	0000a1e0 	andeq	sl, r0, r0, ror #3
    3a04:	2c040707 	stccs	7, cr0, [r4], {7}
    3a08:	01000000 	mrseq	r0, (UNDEF: 0)
    3a0c:	067a0a42 	ldrbteq	r0, [sl], -r2, asr #20
    3a10:	a9080000 	stmdbge	r8, {}	; <UNPREDICTABLE>
    3a14:	00000009 	andeq	r0, r0, r9
    3a18:	00001000 	andeq	r1, r0, r0
    3a1c:	0097d00f 	addseq	sp, r7, pc
    3a20:	0006e400 	andeq	lr, r6, r0, lsl #8
    3a24:	00069600 	andeq	r9, r6, r0, lsl #12
    3a28:	50011000 	andpl	r1, r1, r0
    3a2c:	24404003 	strbcs	r4, [r0], #-3
    3a30:	03510110 	cmpeq	r1, #4
    3a34:	00244840 	eoreq	r4, r4, r0, asr #16
    3a38:	0097e80f 	addseq	lr, r7, pc, lsl #16
    3a3c:	0008bc00 	andeq	fp, r8, r0, lsl #24
    3a40:	0006c500 	andeq	ip, r6, r0, lsl #10
    3a44:	50011000 	andpl	r1, r1, r0
    3a48:	a08c0305 	addge	r0, ip, r5, lsl #6
    3a4c:	01100000 	tsteq	r0, r0
    3a50:	30030551 	andcc	r0, r3, r1, asr r5
    3a54:	100000a0 	andne	r0, r0, r0, lsr #1
    3a58:	03055201 	movweq	r5, #20993	; 0x5201
    3a5c:	0000a1e0 	andeq	sl, r0, r0, ror #3
    3a60:	02530110 	subseq	r0, r3, #4
    3a64:	11004008 	tstne	r0, r8
    3a68:	000097ec 	andeq	r9, r0, ip, ror #15
    3a6c:	000008c8 	andeq	r0, r0, r8, asr #17
    3a70:	007e1200 	rsbseq	r1, lr, r0, lsl #4
    3a74:	06df0000 	ldrbeq	r0, [pc], r0
    3a78:	2c130000 	ldccs	0, cr0, [r3], {-0}
    3a7c:	0c000000 	stceq	0, cr0, [r0], {-0}
    3a80:	06cf0500 	strbeq	r0, [pc], r0, lsl #10
    3a84:	0b0c0000 	bleq	303a8c <__bss_end__+0x2f9434>
    3a88:	0100000a 	tsteq	r0, sl
    3a8c:	9708062d 	strls	r0, [r8, -sp, lsr #12]
    3a90:	009c0000 	addseq	r0, ip, r0
    3a94:	9c010000 	stcls	0, cr0, [r1], {-0}
    3a98:	000007c8 	andeq	r0, r0, r8, asr #15
    3a9c:	00096017 	andeq	r6, r9, r7, lsl r0
    3aa0:	262d0100 	strtcs	r0, [sp], -r0, lsl #2
    3aa4:	0000002c 	andeq	r0, r0, ip, lsr #32
    3aa8:	000026a1 	andeq	r2, r0, r1, lsr #13
    3aac:	00002693 	muleq	r0, r3, r6
    3ab0:	00095517 	andeq	r5, r9, r7, lsl r5
    3ab4:	362d0100 	strtcc	r0, [sp], -r0, lsl #2
    3ab8:	0000002c 	andeq	r0, r0, ip, lsr #32
    3abc:	00002709 	andeq	r2, r0, r9, lsl #14
    3ac0:	00002701 	andeq	r2, r0, r1, lsl #14
    3ac4:	0009611d 	andeq	r6, r9, sp, lsl r1
    3ac8:	0b2e0100 	bleq	b83ed0 <__bss_end__+0xb79878>
    3acc:	000000c2 	andeq	r0, r0, r2, asr #1
    3ad0:	00002751 	andeq	r2, r0, r1, asr r7
    3ad4:	00002743 	andeq	r2, r0, r3, asr #14
    3ad8:	00005e0e 	andeq	r5, r0, lr, lsl #28
    3adc:	0007d800 	andeq	sp, r7, r0, lsl #16
    3ae0:	c8030500 	stmdagt	r3, {r8, sl}
    3ae4:	0f0000a1 	svceq	0x000000a1
    3ae8:	00009760 	andeq	r9, r0, r0, ror #14
    3aec:	000008bc 			; <UNDEFINED> instruction: 0x000008bc
    3af0:	0000077e 	andeq	r0, r0, lr, ror r7
    3af4:	05500110 	ldrbeq	r0, [r0, #-272]	; 0xfffffef0
    3af8:	009d5803 	addseq	r5, sp, r3, lsl #16
    3afc:	51011000 	mrspl	r1, (UNDEF: 1)
    3b00:	a0300305 	eorsge	r0, r0, r5, lsl #6
    3b04:	01100000 	tsteq	r0, r0
    3b08:	c8030552 	stmdagt	r3, {r1, r4, r6, r8, sl}
    3b0c:	100000a1 	andne	r0, r0, r1, lsr #1
    3b10:	08025301 	stmdaeq	r2, {r0, r8, r9, ip, lr}
    3b14:	7d021030 	stcvc	0, cr1, [r2, #-192]	; 0xffffff40
    3b18:	3c030500 	cfstr32cc	mvfx0, [r3], {-0}
    3b1c:	000000a0 	andeq	r0, r0, r0, lsr #1
    3b20:	00976411 	addseq	r6, r7, r1, lsl r4
    3b24:	0008c800 	andeq	ip, r8, r0, lsl #16
    3b28:	97880f00 	strls	r0, [r8, r0, lsl #30]
    3b2c:	08bc0000 	ldmeq	ip!, {}	; <UNPREDICTABLE>
    3b30:	07be0000 	ldreq	r0, [lr, r0]!
    3b34:	01100000 	tsteq	r0, r0
    3b38:	48030550 	stmdami	r3, {r4, r6, r8, sl}
    3b3c:	100000a0 	andne	r0, r0, r0, lsr #1
    3b40:	03055101 	movweq	r5, #20737	; 0x5101
    3b44:	0000a030 	andeq	sl, r0, r0, lsr r0
    3b48:	05520110 	ldrbeq	r0, [r2, #-272]	; 0xfffffef0
    3b4c:	00a1c803 	adceq	ip, r1, r3, lsl #16
    3b50:	53011000 	movwpl	r1, #4096	; 0x1000
    3b54:	10340802 	eorsne	r0, r4, r2, lsl #16
    3b58:	03007d02 	movweq	r7, #3330	; 0xd02
    3b5c:	005001f3 	ldrsheq	r0, [r0], #-19	; 0xffffffed
    3b60:	00978c11 	addseq	r8, r7, r1, lsl ip
    3b64:	0008c800 	andeq	ip, r8, r0, lsl #16
    3b68:	7e120000 	cdpvc	0, 1, cr0, cr2, cr0, {0}
    3b6c:	d8000000 	stmdale	r0, {}	; <UNPREDICTABLE>
    3b70:	13000007 	movwne	r0, #7
    3b74:	0000002c 	andeq	r0, r0, ip, lsr #32
    3b78:	c8050016 	stmdagt	r5, {r1, r2, r4}
    3b7c:	1f000007 	svcne	0x00000007
    3b80:	000009fa 	strdeq	r0, [r0], -sl
    3b84:	8a072a01 	bhi	1ce390 <__bss_end__+0x1c3d38>
    3b88:	f8000000 			; <UNDEFINED> instruction: 0xf8000000
    3b8c:	10000096 	mulne	r0, r6, r0
    3b90:	01000000 	mrseq	r0, (UNDEF: 0)
    3b94:	09421f9c 	stmdbeq	r2, {r2, r3, r4, r7, r8, r9, sl, fp, ip}^
    3b98:	29010000 	stmdbcs	r1, {}	; <UNPREDICTABLE>
    3b9c:	00008a07 	andeq	r8, r0, r7, lsl #20
    3ba0:	0096e800 	addseq	lr, r6, r0, lsl #16
    3ba4:	00001000 	andeq	r1, r0, r0
    3ba8:	1f9c0100 	svcne	0x009c0100
    3bac:	000009af 	andeq	r0, r0, pc, lsr #19
    3bb0:	8a072801 	bhi	1cdbbc <__bss_end__+0x1c3564>
    3bb4:	d8000000 	stmdale	r0, {}	; <UNPREDICTABLE>
    3bb8:	10000096 	mulne	r0, r6, r0
    3bbc:	01000000 	mrseq	r0, (UNDEF: 0)
    3bc0:	0979209c 	ldmdbeq	r9!, {r2, r3, r4, r7, sp}^
    3bc4:	10010000 	andne	r0, r1, r0
    3bc8:	00002c18 	andeq	r2, r0, r8, lsl ip
    3bcc:	08540300 	ldmdaeq	r4, {r8, r9}^
    3bd0:	78210000 	stmdavc	r1!, {}	; <UNPREDICTABLE>
    3bd4:	29100100 	ldmdbcs	r0, {r8}
    3bd8:	0000002c 	andeq	r0, r0, ip, lsr #32
    3bdc:	01006e21 	tsteq	r0, r1, lsr #28
    3be0:	002c3510 	eoreq	r3, ip, r0, lsl r5
    3be4:	5e0e0000 	cdppl	0, 0, cr0, cr14, cr0, {0}
    3be8:	18000000 	stmdane	r0, {}	; <UNPREDICTABLE>
    3bec:	05000005 	streq	r0, [r0, #-5]
    3bf0:	00a21803 	adceq	r1, r2, r3, lsl #16
    3bf4:	d0200000 	eorle	r0, r0, r0
    3bf8:	01000009 	tsteq	r0, r9
    3bfc:	002c180d 	eoreq	r1, ip, sp, lsl #16
    3c00:	70030000 	andvc	r0, r3, r0
    3c04:	21000008 	tstcs	r0, r8
    3c08:	0d010078 	stceq	0, cr0, [r1, #-480]	; 0xfffffe20
    3c0c:	00002c29 	andeq	r2, r0, r9, lsr #24
    3c10:	ef200000 	svc	0x00200000
    3c14:	01000009 	tsteq	r0, r9
    3c18:	002c1807 	eoreq	r1, ip, r7, lsl #16
    3c1c:	96030000 	strls	r0, [r3], -r0
    3c20:	21000008 	tstcs	r0, r8
    3c24:	07010078 	smlsdxeq	r1, r8, r0, r0
    3c28:	00002c2c 	andeq	r2, r0, ip, lsr #24
    3c2c:	006e2100 	rsbeq	r2, lr, r0, lsl #2
    3c30:	2c380701 	ldccs	7, cr0, [r8], #-4
    3c34:	00000000 	andeq	r0, r0, r0
    3c38:	0009a120 	andeq	sl, r9, r0, lsr #2
    3c3c:	18040100 	stmdane	r4, {r8}
    3c40:	0000005d 	andeq	r0, r0, sp, asr r0
    3c44:	0008bc03 	andeq	fp, r8, r3, lsl #24
    3c48:	00782100 	rsbseq	r2, r8, r0, lsl #2
    3c4c:	5d290401 	cfstrspl	mvf0, [r9, #-4]!
    3c50:	21000000 	mrscs	r0, (UNDEF: 0)
    3c54:	04010079 	streq	r0, [r1], #-121	; 0xffffff87
    3c58:	00005d35 	andeq	r5, r0, r5, lsr sp
    3c5c:	3f220000 	svccc	0x00220000
    3c60:	3f000004 	svccc	0x00000004
    3c64:	02000004 	andeq	r0, r0, #4, 0
    3c68:	29220628 	stmdbcs	r2!, {r3, r5, r9, sl}
    3c6c:	29000000 	stmdbcs	r0, {}	; <UNPREDICTABLE>
    3c70:	02000000 	andeq	r0, r0, #0, 0
    3c74:	cc22066e 	stcgt	6, cr0, [r2], #-440	; 0xfffffe48
    3c78:	cc000001 	stcgt	0, cr0, [r0], {1}
    3c7c:	02000001 	andeq	r0, r0, #1, 0
    3c80:	bc22061d 	stclt	6, cr0, [r2], #-116	; 0xffffff8c
    3c84:	bc000002 	stclt	0, cr0, [r0], {2}
    3c88:	02000002 	andeq	r0, r0, #2, 0
    3c8c:	730007f2 	movwvc	r0, #2034	; 0x7f2
    3c90:	04000006 	streq	r0, [r0], #-6
    3c94:	00166b00 	andseq	r6, r6, r0, lsl #22
    3c98:	5d010400 	cfstrspl	mvf0, [r1, #-0]
    3c9c:	0c000003 	stceq	0, cr0, [r0], {3}
    3ca0:	00000a65 	andeq	r0, r0, r5, ror #20
    3ca4:	00000415 	andeq	r0, r0, r5, lsl r4
    3ca8:	00009a88 	andeq	r9, r0, r8, lsl #21
    3cac:	00000198 	muleq	r0, r8, r1
    3cb0:	00001ffe 	strdeq	r1, [r0], -lr
    3cb4:	83070802 	movwhi	r0, #30722	; 0x7802
    3cb8:	02000000 	andeq	r0, r0, #0, 0
    3cbc:	008d0704 	addeq	r0, sp, r4, lsl #14
    3cc0:	04030000 	streq	r0, [r3], #-0
    3cc4:	746e6905 	strbtvc	r6, [lr], #-2309	; 0xfffff6fb
    3cc8:	002c0400 	eoreq	r0, ip, r0, lsl #8
    3ccc:	01020000 	mrseq	r0, (UNDEF: 2)
    3cd0:	00001d06 	andeq	r1, r0, r6, lsl #26
    3cd4:	05020200 	streq	r0, [r2, #-512]	; 0xfffffe00
    3cd8:	00000103 	andeq	r0, r0, r3, lsl #2
    3cdc:	b7050402 	strlt	r0, [r5, -r2, lsl #8]
    3ce0:	02000000 	andeq	r0, r0, #0, 0
    3ce4:	00b20508 	adcseq	r0, r2, r8, lsl #10
    3ce8:	01020000 	mrseq	r0, (UNDEF: 2)
    3cec:	00001b08 	andeq	r1, r0, r8, lsl #22
    3cf0:	07020200 	streq	r0, [r2, -r0, lsl #4]
    3cf4:	00000036 	andeq	r0, r0, r6, lsr r0
    3cf8:	00031505 	andeq	r1, r3, r5, lsl #10
    3cfc:	19340300 	ldmdbne	r4!, {r8, r9}
    3d00:	00000075 	andeq	r0, r0, r5, ror r0
    3d04:	88070402 	stmdahi	r7, {r1, sl}
    3d08:	06000000 	streq	r0, [r0], -r0
    3d0c:	00000033 	andeq	r0, r0, r3, lsr r0
    3d10:	0000008b 	andeq	r0, r0, fp, lsl #1
    3d14:	00003307 	andeq	r3, r0, r7, lsl #6
    3d18:	c0080000 	andgt	r0, r8, r0
    3d1c:	02000000 	andeq	r0, r0, #0, 0
    3d20:	00970e1c 	addseq	r0, r7, ip, lsl lr
    3d24:	04090000 	streq	r0, [r9], #-0
    3d28:	0000007c 	andeq	r0, r0, ip, ror r0
    3d2c:	00003306 	andeq	r3, r0, r6, lsl #6
    3d30:	0000ac00 	andeq	sl, r0, r0, lsl #24
    3d34:	00ac0700 	adceq	r0, ip, r0, lsl #14
    3d38:	09000000 	stmdbeq	r0, {}	; <UNPREDICTABLE>
    3d3c:	0000b904 	andeq	fp, r0, r4, lsl #18
    3d40:	08010200 	stmdaeq	r1, {r9}
    3d44:	00000024 	andeq	r0, r0, r4, lsr #32
    3d48:	0000b204 	andeq	fp, r0, r4, lsl #4
    3d4c:	04b60800 	ldrteq	r0, [r6], #2048	; 0x800
    3d50:	21020000 	mrscs	r0, (UNDEF: 2)
    3d54:	0000ca0e 	andeq	ip, r0, lr, lsl #20
    3d58:	9d040900 	vstrls.16	s0, [r4, #-0]	; <UNPREDICTABLE>
    3d5c:	0a000000 	beq	3d64 <__code_start__-0x429c>
    3d60:	005b0107 	subseq	r0, fp, r7, lsl #2
    3d64:	0c040000 	stceq	0, cr0, [r4], {-0}
    3d68:	00010f0e 	andeq	r0, r1, lr, lsl #30
    3d6c:	091a0b00 	ldmdbeq	sl, {r8, r9, fp}
    3d70:	0b000000 	bleq	3d78 <__code_start__-0x4288>
    3d74:	0000075c 	andeq	r0, r0, ip, asr r7
    3d78:	079f0b01 	ldreq	r0, [pc, r1, lsl #22]
    3d7c:	0b040000 	bleq	103d84 <__bss_end__+0xf972c>
    3d80:	000007ae 	andeq	r0, r0, lr, lsr #15
    3d84:	07bd0b05 	ldreq	r0, [sp, r5, lsl #22]!
    3d88:	0b060000 	bleq	183d90 <__bss_end__+0x179738>
    3d8c:	000007cc 	andeq	r0, r0, ip, asr #15
    3d90:	08ed0b07 	stmiaeq	sp!, {r0, r1, r2, r8, r9, fp}^
    3d94:	0b030000 	bleq	c3d9c <__bss_end__+0xb9744>
    3d98:	000007db 	ldrdeq	r0, [r0], -fp
    3d9c:	9e050002 	cdpls	0, 0, cr0, cr5, cr2, {0}
    3da0:	0400000a 	streq	r0, [r0], #-10
    3da4:	00d00315 	sbcseq	r0, r0, r5, lsl r3
    3da8:	3c0c0000 	stccc	0, cr0, [ip], {-0}
    3dac:	0100000a 	tsteq	r0, sl
    3db0:	003a171d 	eorseq	r1, sl, sp, lsl r7
    3db4:	001c0000 	andseq	r0, ip, r0
    3db8:	320c2020 	andcc	r2, ip, #32, 0
    3dbc:	0100000a 	tsteq	r0, sl
    3dc0:	003a171e 	eorseq	r1, sl, lr, lsl r7
    3dc4:	00280000 	eoreq	r0, r8, r0
    3dc8:	aa0c2020 	bge	30be50 <__bss_end__+0x3017f8>
    3dcc:	0100000a 	tsteq	r0, sl
    3dd0:	003a171f 	eorseq	r1, sl, pc, lsl r7
    3dd4:	00340000 	eorseq	r0, r4, r0
    3dd8:	5b0d2020 	blpl	34be60 <__bss_end__+0x341808>
    3ddc:	0100000a 	tsteq	r0, sl
    3de0:	00330551 	eorseq	r0, r3, r1, asr r5
    3de4:	9bf80000 	blls	ffe03dec <__bss_end__+0xffdf9794>
    3de8:	00280000 	eoreq	r0, r8, r0
    3dec:	9c010000 	stcls	0, cr0, [r1], {-0}
    3df0:	000001ba 			; <UNDEFINED> instruction: 0x000001ba
    3df4:	6e69700e 	cdpvs	0, 6, cr7, cr9, cr14, {0}
    3df8:	18510100 	ldmdane	r1, {r8}^
    3dfc:	0000002c 	andeq	r0, r0, ip, lsr #32
    3e00:	000027b7 			; <UNDEFINED> instruction: 0x000027b7
    3e04:	000027b1 			; <UNDEFINED> instruction: 0x000027b1
    3e08:	000ab40f 	andeq	fp, sl, pc, lsl #8
    3e0c:	0e520100 	rdfeqs	f0, f2, f0
    3e10:	0000002c 	andeq	r0, r0, ip, lsr #32
    3e14:	000027ed 	andeq	r2, r0, sp, ror #15
    3e18:	000027e3 	andeq	r2, r0, r3, ror #15
    3e1c:	66666f10 	uqadd16vs	r6, r6, r0
    3e20:	0e530100 	rdfeqs	f0, f3, f0
    3e24:	0000002c 	andeq	r0, r0, ip, lsr #32
    3e28:	0000285b 	andeq	r2, r0, fp, asr r8
    3e2c:	00002855 	andeq	r2, r0, r5, asr r8
    3e30:	009c0c11 	addseq	r0, ip, r1, lsl ip
    3e34:	00065e00 	andeq	r5, r6, r0, lsl #28
    3e38:	50011200 	andpl	r1, r1, r0, lsl #4
    3e3c:	3500740a 	strcc	r7, [r0, #-1034]	; 0xfffffbf6
    3e40:	80b42325 	adcshi	r2, r4, r5, lsr #6
    3e44:	00028180 	andeq	r8, r2, r0, lsl #3
    3e48:	0a461300 	beq	1188a50 <__bss_end__+0x117e3f8>
    3e4c:	4a010000 	bmi	43e54 <__bss_end__+0x397fc>
    3e50:	009bc806 	addseq	ip, fp, r6, lsl #16
    3e54:	00003000 	andeq	r3, r0, r0
    3e58:	759c0100 	ldrvc	r0, [ip, #256]	; 0x100
    3e5c:	0e000002 	cdpeq	0, 0, cr0, cr0, cr2, {0}
    3e60:	006e6970 	rsbeq	r6, lr, r0, ror r9
    3e64:	2c1a4a01 			; <UNDEFINED> instruction: 0x2c1a4a01
    3e68:	98000000 	stmdals	r0, {}	; <UNPREDICTABLE>
    3e6c:	8c000028 	stchi	0, cr0, [r0], {40}	; 0x28
    3e70:	0e000028 	cdpeq	0, 0, cr0, cr0, cr8, {1}
    3e74:	4a010076 	bmi	44054 <__bss_end__+0x399fc>
    3e78:	00002c28 	andeq	r2, r0, r8, lsr #24
    3e7c:	0028ec00 	eoreq	lr, r8, r0, lsl #24
    3e80:	0028e800 	eoreq	lr, r8, r0, lsl #16
    3e84:	038d1400 	orreq	r1, sp, #0, 8
    3e88:	9bd80000 	blls	ff603e90 <__bss_end__+0xff5f9838>
    3e8c:	20010000 	andcs	r0, r1, r0
    3e90:	01000004 	tsteq	r0, r4
    3e94:	0235094c 	eorseq	r0, r5, #76, 18	; 0x130000
    3e98:	9a150000 	bls	543ea0 <__bss_end__+0x539848>
    3e9c:	13000003 	movwne	r0, #3
    3ea0:	0d000029 	stceq	0, cr0, [r0, #-164]	; 0xffffff5c
    3ea4:	16000029 	strne	r0, [r0], -r9, lsr #32
    3ea8:	00009be4 	andeq	r9, r0, r4, ror #23
    3eac:	0000066a 	andeq	r0, r0, sl, ror #12
    3eb0:	05500112 	ldrbeq	r0, [r0, #-274]	; 0xfffffeee
    3eb4:	20001c0c 	andcs	r1, r0, ip, lsl #24
    3eb8:	51011220 	tstpl	r1, r0, lsr #4
    3ebc:	01f33105 	mvnseq	r3, r5, lsl #2
    3ec0:	00002450 	andeq	r2, r0, r0, asr r4
    3ec4:	00037317 	andeq	r7, r3, r7, lsl r3
    3ec8:	009be400 	addseq	lr, fp, r0, lsl #8
    3ecc:	9be40200 	blls	ff9046d4 <__bss_end__+0xff8fa07c>
    3ed0:	00140000 	andseq	r0, r4, r0
    3ed4:	4e010000 	cdpmi	0, 0, cr0, cr1, cr0, {0}
    3ed8:	03801509 	orreq	r1, r0, #37748736	; 0x2400000
    3edc:	29450000 	stmdbcs	r5, {}^	; <UNPREDICTABLE>
    3ee0:	293f0000 	ldmdbcs	pc!, {}	; <UNPREDICTABLE>
    3ee4:	f0160000 			; <UNDEFINED> instruction: 0xf0160000
    3ee8:	6a00009b 	bvs	415c <__code_start__-0x3ea4>
    3eec:	12000006 	andne	r0, r0, #6, 0
    3ef0:	0c055001 	stceq	0, cr5, [r5], {1}
    3ef4:	20200028 	eorcs	r0, r0, r8, lsr #32
    3ef8:	05510112 	ldrbeq	r0, [r1, #-274]	; 0xfffffeee
    3efc:	5001f331 	andpl	pc, r1, r1, lsr r3	; <UNPREDICTABLE>
    3f00:	00000024 	andeq	r0, r0, r4, lsr #32
    3f04:	000a7213 	andeq	r7, sl, r3, lsl r2
    3f08:	06450100 	strbeq	r0, [r5], -r0, lsl #2
    3f0c:	00009b70 	andeq	r9, r0, r0, ror fp
    3f10:	00000058 	andeq	r0, r0, r8, asr r0
    3f14:	03739c01 	cmneq	r3, #256	; 0x100
    3f18:	700e0000 	andvc	r0, lr, r0
    3f1c:	01006e69 	tsteq	r0, r9, ror #28
    3f20:	002c1e45 	eoreq	r1, ip, r5, asr #28
    3f24:	29770000 	ldmdbcs	r7!, {}^	; <UNPREDICTABLE>
    3f28:	29710000 	ldmdbcs	r1!, {}^	; <UNPREDICTABLE>
    3f2c:	a5180000 	ldrge	r0, [r8, #-0]
    3f30:	70000004 	andvc	r0, r0, r4
    3f34:	0200009b 	andeq	r0, r0, #155, 0	; 0x9b
    3f38:	000003e0 	andeq	r0, r0, r0, ror #7
    3f3c:	19054601 	stmdbne	r5, {r0, r9, sl, lr}
    3f40:	000004be 			; <UNDEFINED> instruction: 0x000004be
    3f44:	04b21500 	ldrteq	r1, [r2], #1280	; 0x500
    3f48:	29a90000 	stmibcs	r9!, {}	; <UNPREDICTABLE>
    3f4c:	29a30000 	stmibcs	r3!, {}	; <UNPREDICTABLE>
    3f50:	e01a0000 	ands	r0, sl, r0
    3f54:	1b000003 	blne	3f68 <__code_start__-0x4098>
    3f58:	000004ca 	andeq	r0, r0, sl, asr #9
    3f5c:	0004d61b 	andeq	sp, r4, fp, lsl r6
    3f60:	04e01b00 	strbteq	r1, [r0], #2816	; 0xb00
    3f64:	a5180000 	ldrge	r0, [r8, #-0]
    3f68:	78000004 	stmdavc	r0, {r2}
    3f6c:	0000009b 	muleq	r0, fp, r0
    3f70:	00000400 	andeq	r0, r0, r0, lsl #8
    3f74:	19062801 	stmdbne	r6, {r0, fp, sp}
    3f78:	000004be 			; <UNDEFINED> instruction: 0x000004be
    3f7c:	04b21500 	ldrteq	r1, [r2], #1280	; 0x500
    3f80:	29db0000 	ldmibcs	fp, {}^	; <UNPREDICTABLE>
    3f84:	29d50000 	ldmibcs	r5, {}^	; <UNPREDICTABLE>
    3f88:	001a0000 	andseq	r0, sl, r0
    3f8c:	1c000004 	stcne	0, cr0, [r0], {4}
    3f90:	000004ca 	andeq	r0, r0, sl, asr #9
    3f94:	00002a0d 	andeq	r2, r0, sp, lsl #20
    3f98:	00002a07 	andeq	r2, r0, r7, lsl #20
    3f9c:	0004d61c 	andeq	sp, r4, ip, lsl r6
    3fa0:	002a4f00 	eoreq	r4, sl, r0, lsl #30
    3fa4:	002a4900 	eoreq	r4, sl, r0, lsl #18
    3fa8:	04e01c00 	strbteq	r1, [r0], #3072	; 0xc00
    3fac:	2aa50000 	bcs	fe943fb4 <__bss_end__+0xfe93995c>
    3fb0:	2a9d0000 	bcs	fe743fb8 <__bss_end__+0xfe739960>
    3fb4:	a01d0000 	andsge	r0, sp, r0
    3fb8:	5e00009b 	mcrpl	0, 0, r0, cr0, cr11, {4}
    3fbc:	3b000006 	blcc	3fdc <__code_start__-0x4024>
    3fc0:	12000003 	andne	r0, r0, #3, 0
    3fc4:	76025001 	strvc	r5, [r2], -r1
    3fc8:	c4160000 	ldrgt	r0, [r6], #-0
    3fcc:	6a00009b 	bvs	4240 <__code_start__-0x3dc0>
    3fd0:	12000006 	andne	r0, r0, #6, 0
    3fd4:	f3255001 	vhadd.u32	d5, d5, d1
    3fd8:	2cf75001 	ldclcs	0, cr5, [r7], #4
    3fdc:	25f425f7 	ldrbcs	r2, [r4, #1527]!	; 0x5f7
    3fe0:	cccccd08 	stclgt	13, cr12, [ip], {8}
    3fe4:	000000cc 	andeq	r0, r0, ip, asr #1
    3fe8:	20081e00 	andcs	r1, r8, r0, lsl #28
    3fec:	f72525f7 			; <UNDEFINED> instruction: 0xf72525f7
    3ff0:	3300f72c 	movwcc	pc, #1836	; 0x72c	; <UNPREDICTABLE>
    3ff4:	80802325 	addhi	r2, r0, r5, lsr #6
    3ff8:	243240a0 	ldrtcs	r4, [r2], #-160	; 0xffffff60
    3ffc:	00000000 	andeq	r0, r0, r0
    4000:	811e0000 	tsthi	lr, r0
    4004:	0100000a 	tsteq	r0, sl
    4008:	8d030d40 	stchi	13, cr0, [r3, #-256]	; 0xffffff00
    400c:	1f000003 	svcne	0x00000003
    4010:	006e6970 	rsbeq	r6, lr, r0, ror r9
    4014:	2c234001 	stccs	0, cr4, [r3], #-4
    4018:	00000000 	andeq	r0, r0, r0
    401c:	000ab91e 	andeq	fp, sl, lr, lsl r9
    4020:	0d3b0100 	ldfeqs	f0, [fp, #-0]
    4024:	0003a703 	andeq	sl, r3, r3, lsl #14
    4028:	69701f00 	ldmdbvs	r0!, {r8, r9, sl, fp, ip}^
    402c:	3b01006e 	blcc	441ec <__bss_end__+0x39b94>
    4030:	00002c22 	andeq	r2, r0, r2, lsr #24
    4034:	8e130000 	cdphi	0, 1, cr0, cr3, cr0, {0}
    4038:	0100000a 	tsteq	r0, sl
    403c:	9ae80636 	bls	ffa0591c <__bss_end__+0xff9fb2c4>
    4040:	00580000 	subseq	r0, r8, r0
    4044:	9c010000 	stcls	0, cr0, [r1], {-0}
    4048:	000004a5 	andeq	r0, r0, r5, lsr #9
    404c:	6e69700e 	cdpvs	0, 6, cr7, cr9, cr14, {0}
    4050:	1f360100 	svcne	0x00360100
    4054:	0000002c 	andeq	r0, r0, ip, lsr #32
    4058:	00002b03 	andeq	r2, r0, r3, lsl #22
    405c:	00002aff 	strdeq	r2, [r0], -pc	; <UNPREDICTABLE>
    4060:	0004a518 	andeq	sl, r4, r8, lsl r5
    4064:	009ae800 	addseq	lr, sl, r0, lsl #16
    4068:	03a00200 	moveq	r0, #0, 4
    406c:	37010000 	strcc	r0, [r1, -r0]
    4070:	04be1905 	ldrteq	r1, [lr], #2309	; 0x905
    4074:	15010000 	strne	r0, [r1, #-0]
    4078:	000004b2 			; <UNDEFINED> instruction: 0x000004b2
    407c:	00002b28 	andeq	r2, r0, r8, lsr #22
    4080:	00002b24 	andeq	r2, r0, r4, lsr #22
    4084:	0003a01a 	andeq	sl, r3, sl, lsl r0
    4088:	04ca1b00 	strbeq	r1, [sl], #2816	; 0xb00
    408c:	d61b0000 	ldrle	r0, [fp], -r0
    4090:	1b000004 	blne	40a8 <__code_start__-0x3f58>
    4094:	000004e0 	andeq	r0, r0, r0, ror #9
    4098:	0004a518 	andeq	sl, r4, r8, lsl r5
    409c:	009af000 	addseq	pc, sl, r0
    40a0:	03c00000 	biceq	r0, r0, #0, 0
    40a4:	28010000 	stmdacs	r1, {}	; <UNPREDICTABLE>
    40a8:	04be1906 	ldrteq	r1, [lr], #2310	; 0x906
    40ac:	15010000 	strne	r0, [r1, #-0]
    40b0:	000004b2 			; <UNDEFINED> instruction: 0x000004b2
    40b4:	00002b4d 	andeq	r2, r0, sp, asr #22
    40b8:	00002b49 	andeq	r2, r0, r9, asr #22
    40bc:	0003c01a 	andeq	ip, r3, sl, lsl r0
    40c0:	04ca1c00 	strbeq	r1, [sl], #3072	; 0xc00
    40c4:	2b720000 	blcs	1c840cc <__bss_end__+0x1c79a74>
    40c8:	2b6e0000 	blcs	1b840d0 <__bss_end__+0x1b79a78>
    40cc:	d61c0000 	ldrle	r0, [ip], -r0
    40d0:	be000004 	cdplt	0, 0, cr0, cr0, cr4, {0}
    40d4:	b800002b 	stmdalt	r0, {r0, r1, r3, r5}
    40d8:	1c00002b 	stcne	0, cr0, [r0], {43}	; 0x2b
    40dc:	000004e0 	andeq	r0, r0, r0, ror #9
    40e0:	00002c14 	andeq	r2, r0, r4, lsl ip
    40e4:	00002c0c 	andeq	r2, r0, ip, lsl #24
    40e8:	009b1c1d 	addseq	r1, fp, sp, lsl ip
    40ec:	00065e00 	andeq	r5, r6, r0, lsl #28
    40f0:	00046d00 	andeq	r6, r4, r0, lsl #26
    40f4:	50011200 	andpl	r1, r1, r0, lsl #4
    40f8:	00007502 	andeq	r7, r0, r2, lsl #10
    40fc:	009b3c16 	addseq	r3, fp, r6, lsl ip
    4100:	00066a00 	andeq	r6, r6, r0, lsl #20
    4104:	50011200 	andpl	r1, r1, r0, lsl #4
    4108:	5001f325 	andpl	pc, r1, r5, lsr #6
    410c:	25f72cf7 	ldrbcs	r2, [r7, #3319]!	; 0xcf7
    4110:	cd0825f4 	cfstr32gt	mvfx2, [r8, #-976]	; 0xfffffc30
    4114:	00cccccc 	sbceq	ip, ip, ip, asr #25
    4118:	1e000000 	cdpne	0, 0, cr0, cr0, cr0, {0}
    411c:	25f72008 	ldrbcs	r2, [r7, #8]!
    4120:	f72cf725 			; <UNDEFINED> instruction: 0xf72cf725
    4124:	23253300 			; <UNDEFINED> instruction: 0x23253300
    4128:	40a08080 	adcmi	r8, r0, r0, lsl #1
    412c:	00002432 	andeq	r2, r0, r2, lsr r4
    4130:	00000000 	andeq	r0, r0, r0
    4134:	00092a1e 	andeq	r2, r9, lr, lsl sl
    4138:	06280100 	strteq	r0, [r8], -r0, lsl #2
    413c:	0004eb01 	andeq	lr, r4, r1, lsl #22
    4140:	69701f00 	ldmdbvs	r0!, {r8, r9, sl, fp, ip}^
    4144:	2801006e 	stmdacs	r1, {r1, r2, r3, r5, r6}
    4148:	00002c21 	andeq	r2, r0, r1, lsr #24
    414c:	00542000 	subseq	r2, r4, r0
    4150:	28010000 	stmdacs	r1, {}	; <UNPREDICTABLE>
    4154:	00010f32 	andeq	r0, r1, r2, lsr pc
    4158:	666f2100 	strbtvs	r2, [pc], -r0, lsl #2
    415c:	2d010066 	stccs	0, cr0, [r1, #-408]	; 0xfffffe68
    4160:	00002c0e 	andeq	r2, r0, lr, lsl #24
    4164:	00672100 	rsbeq	r2, r7, r0, lsl #2
    4168:	2c0e2e01 	stccs	14, cr2, [lr], {1}
    416c:	21000000 	mrscs	r0, (UNDEF: 0)
    4170:	30010076 	andcc	r0, r1, r6, ror r0
    4174:	00002c0e 	andeq	r2, r0, lr, lsl #24
    4178:	51220000 			; <UNDEFINED> instruction: 0x51220000
    417c:	0200000a 	andeq	r0, r0, #10, 0
    4180:	006918b1 	strhteq	r1, [r9], #-129	; 0xffffff7f
    4184:	07030000 	streq	r0, [r3, -r0]
    4188:	1f000005 	svcne	0x00000005
    418c:	b1020078 	tstlt	r2, r8, ror r0
    4190:	0000692b 	andeq	r6, r0, fp, lsr #18
    4194:	a5230000 	strge	r0, [r3, #-0]!
    4198:	88000004 	stmdahi	r0, {r2}
    419c:	6000009a 	mulvs	r0, sl, r0
    41a0:	01000000 	mrseq	r0, (UNDEF: 0)
    41a4:	0005e49c 	muleq	r5, ip, r4
    41a8:	04b21500 	ldrteq	r1, [r2], #1280	; 0x500
    41ac:	2c530000 	mracs	r0, r3, acc0
    41b0:	2c4f0000 	marcs	acc0, r0, pc
    41b4:	be150000 	cdplt	0, 1, cr0, cr5, cr0, {0}
    41b8:	78000004 	stmdavc	r0, {r2}
    41bc:	7400002c 	strvc	r0, [r0], #-44	; 0xffffffd4
    41c0:	1b00002c 	blne	4278 <__code_start__-0x3d88>
    41c4:	000004ca 	andeq	r0, r0, sl, asr #9
    41c8:	0004d61b 	andeq	sp, r4, fp, lsl r6
    41cc:	04e01b00 	strbteq	r1, [r0], #2816	; 0xb00
    41d0:	a5180000 	ldrge	r0, [r8, #-0]
    41d4:	90000004 	andls	r0, r0, r4
    41d8:	0000009a 	muleq	r0, sl, r0
    41dc:	00000380 	andeq	r0, r0, r0, lsl #7
    41e0:	15062801 	strne	r2, [r6, #-2049]	; 0xfffff7ff
    41e4:	000004be 			; <UNDEFINED> instruction: 0x000004be
    41e8:	00002c9d 	muleq	r0, sp, ip
    41ec:	00002c99 	muleq	r0, r9, ip
    41f0:	0004b215 	andeq	fp, r4, r5, lsl r2
    41f4:	002cc200 	eoreq	ip, ip, r0, lsl #4
    41f8:	002cbe00 	eoreq	fp, ip, r0, lsl #28
    41fc:	03801a00 	orreq	r1, r0, #0, 20
    4200:	ca1c0000 	bgt	704208 <__bss_end__+0x6f9bb0>
    4204:	e7000004 	str	r0, [r0, -r4]
    4208:	e300002c 	movw	r0, #44	; 0x2c
    420c:	1c00002c 	stcne	0, cr0, [r0], {44}	; 0x2c
    4210:	000004d6 	ldrdeq	r0, [r0], -r6
    4214:	00002d33 	andeq	r2, r0, r3, lsr sp
    4218:	00002d2d 	andeq	r2, r0, sp, lsr #26
    421c:	0004e01c 	andeq	lr, r4, ip, lsl r0
    4220:	002d8900 	eoreq	r8, sp, r0, lsl #18
    4224:	002d8100 	eoreq	r8, sp, r0, lsl #2
    4228:	9ac81d00 	bls	ff20b630 <__bss_end__+0xff200fd8>
    422c:	065e0000 	ldrbeq	r0, [lr], -r0
    4230:	05ae0000 	streq	r0, [lr, #0]!
    4234:	01120000 	tsteq	r2, r0
    4238:	00760250 	rsbseq	r0, r6, r0, asr r2
    423c:	9ae41600 	bls	ff909a44 <__bss_end__+0xff8ff3ec>
    4240:	066a0000 	strbteq	r0, [sl], -r0
    4244:	01120000 	tsteq	r2, r0
    4248:	01f32550 	mvnseq	r2, r0, asr r5
    424c:	f72cf750 			; <UNDEFINED> instruction: 0xf72cf750
    4250:	0825f425 	stmdaeq	r5!, {r0, r2, r5, sl, ip, sp, lr, pc}
    4254:	cccccccd 	stclgt	12, cr12, [ip], {205}	; 0xcd
    4258:	00000000 	andeq	r0, r0, r0
    425c:	f720081e 			; <UNDEFINED> instruction: 0xf720081e
    4260:	2cf72525 	cfldr64cs	mvdx2, [r7], #148	; 0x94
    4264:	253300f7 	ldrcs	r0, [r3, #-247]!	; 0xffffff09
    4268:	a0808023 	addge	r8, r0, r3, lsr #32
    426c:	00243240 	eoreq	r3, r4, r0, asr #4
    4270:	23000000 	movwcs	r0, #0
    4274:	0000038d 	andeq	r0, r0, sp, lsl #7
    4278:	00009b40 	andeq	r9, r0, r0, asr #22
    427c:	00000018 	andeq	r0, r0, r8, lsl r0
    4280:	06219c01 	strteq	r9, [r1], -r1, lsl #24
    4284:	9a150000 	bls	54428c <__bss_end__+0x539c34>
    4288:	df000003 	svcle	0x00000003
    428c:	d900002d 	stmdble	r0, {r0, r2, r3, r5}
    4290:	1600002d 	strne	r0, [r0], -sp, lsr #32
    4294:	00009b54 	andeq	r9, r0, r4, asr fp
    4298:	0000066a 	andeq	r0, r0, sl, ror #12
    429c:	05500112 	ldrbeq	r0, [r0, #-274]	; 0xfffffeee
    42a0:	20001c0c 	andcs	r1, r0, ip, lsl #24
    42a4:	51011220 	tstpl	r1, r0, lsr #4
    42a8:	01f33105 	mvnseq	r3, r5, lsl #2
    42ac:	00002450 	andeq	r2, r0, r0, asr r4
    42b0:	00037323 	andeq	r7, r3, r3, lsr #6
    42b4:	009b5800 	addseq	r5, fp, r0, lsl #16
    42b8:	00001800 	andeq	r1, r0, r0, lsl #16
    42bc:	5e9c0100 	fmlple	f0, f4, f0
    42c0:	15000006 	strne	r0, [r0, #-6]
    42c4:	00000380 	andeq	r0, r0, r0, lsl #7
    42c8:	00002e11 	andeq	r2, r0, r1, lsl lr
    42cc:	00002e0b 	andeq	r2, r0, fp, lsl #28
    42d0:	009b6c16 	addseq	r6, fp, r6, lsl ip
    42d4:	00066a00 	andeq	r6, r6, r0, lsl #20
    42d8:	50011200 	andpl	r1, r1, r0, lsl #4
    42dc:	00280c05 	eoreq	r0, r8, r5, lsl #24
    42e0:	01122020 	tsteq	r2, r0, lsr #32
    42e4:	f3310551 	vqrshl.u64	q0, <illegal reg q0.5>, <illegal reg q0.5>
    42e8:	00245001 	eoreq	r5, r4, r1
    42ec:	07092400 	streq	r2, [r9, -r0, lsl #8]
    42f0:	07090000 	streq	r0, [r9, -r0]
    42f4:	c2020000 	andgt	r0, r2, #0, 0
    42f8:	0675240a 	ldrbteq	r2, [r5], -sl, lsl #8
    42fc:	06750000 	ldrbteq	r0, [r5], -r0
    4300:	ad020000 	stcge	0, cr0, [r2, #-0]
    4304:	01370006 	teqeq	r7, r6
    4308:	00040000 	andeq	r0, r4, r0
    430c:	00001899 	muleq	r0, r9, r8
    4310:	035d0104 	cmpeq	sp, #1
    4314:	c50c0000 	strgt	r0, [ip, #-0]
    4318:	1500000a 	strne	r0, [r0, #-10]
    431c:	20000004 	andcs	r0, r0, r4
    4320:	2c00009c 	stccs	0, cr0, [r0], {156}	; 0x9c
    4324:	8b000000 	blhi	432c <__code_start__-0x3cd4>
    4328:	02000022 	andeq	r0, r0, #34, 0	; 0x22
    432c:	6e690504 	cdpvs	5, 6, cr0, cr9, cr4, {0}
    4330:	04030074 	streq	r0, [r3], #-116	; 0xffffff8c
    4334:	00008d07 	andeq	r8, r0, r7, lsl #26
    4338:	06010300 	streq	r0, [r1], -r0, lsl #6
    433c:	0000001d 	andeq	r0, r0, sp, lsl r0
    4340:	03050203 	movweq	r0, #20995	; 0x5203
    4344:	03000001 	movweq	r0, #1
    4348:	00b70504 	adcseq	r0, r7, r4, lsl #10
    434c:	08030000 	stmdaeq	r3, {}	; <UNPREDICTABLE>
    4350:	0000b205 	andeq	fp, r0, r5, lsl #4
    4354:	08010300 	stmdaeq	r1, {r8, r9}
    4358:	0000001b 	andeq	r0, r0, fp, lsl r0
    435c:	36070203 	strcc	r0, [r7], -r3, lsl #4
    4360:	03000000 	movweq	r0, #0
    4364:	00880704 	addeq	r0, r8, r4, lsl #14
    4368:	08030000 	stmdaeq	r3, {}	; <UNPREDICTABLE>
    436c:	00008307 	andeq	r8, r0, r7, lsl #6
    4370:	00250400 	eoreq	r0, r5, r0, lsl #8
    4374:	007a0000 	rsbseq	r0, sl, r0
    4378:	25050000 	strcs	r0, [r5, #-0]
    437c:	00000000 	andeq	r0, r0, r0
    4380:	0000c006 	andeq	ip, r0, r6
    4384:	0e1c0200 	cdpeq	2, 1, cr0, cr12, cr0, {0}
    4388:	00000086 	andeq	r0, r0, r6, lsl #1
    438c:	006b0407 	rsbeq	r0, fp, r7, lsl #8
    4390:	25040000 	strcs	r0, [r4, #-0]
    4394:	9b000000 	blls	439c <__code_start__-0x3c64>
    4398:	05000000 	streq	r0, [r0, #-0]
    439c:	0000009b 	muleq	r0, fp, r0
    43a0:	a8040700 	stmdage	r4, {r8, r9, sl}
    43a4:	03000000 	movweq	r0, #0
    43a8:	00240801 	eoreq	r0, r4, r1, lsl #16
    43ac:	a1080000 	mrsge	r0, (UNDEF: 8)
    43b0:	06000000 	streq	r0, [r0], -r0
    43b4:	000004b6 			; <UNDEFINED> instruction: 0x000004b6
    43b8:	b90e2102 	stmdblt	lr, {r1, r8, sp}
    43bc:	07000000 	streq	r0, [r0, -r0]
    43c0:	00008c04 	andeq	r8, r0, r4, lsl #24
    43c4:	05590900 	ldrbeq	r0, [r9, #-2304]	; 0xfffff700
    43c8:	04010000 	streq	r0, [r1], #-0
    43cc:	00013407 	andeq	r3, r1, r7, lsl #8
    43d0:	009c2000 	addseq	r2, ip, r0
    43d4:	00002c00 	andeq	r2, r0, r0, lsl #24
    43d8:	349c0100 	ldrcc	r0, [ip], #256	; 0x100
    43dc:	0a000001 	beq	43e8 <__code_start__-0x3c18>
    43e0:	00000ad5 	ldrdeq	r0, [r0], -r5
    43e4:	34150401 	ldrcc	r0, [r5], #-1025	; 0xfffffbff
    43e8:	01000001 	tsteq	r0, r1
    43ec:	72730b50 	rsbsvc	r0, r3, #80, 22	; 0x14000
    43f0:	04010063 	streq	r0, [r1], #-99	; 0xffffff9d
    43f4:	00009b27 	andeq	r9, r0, r7, lsr #22
    43f8:	002e4100 	eoreq	r4, lr, r0, lsl #2
    43fc:	002e3d00 	eoreq	r3, lr, r0, lsl #26
    4400:	31730c00 	cmncc	r3, r0, lsl #24
    4404:	0b050100 	bleq	14480c <__bss_end__+0x13a1b4>
    4408:	00000134 	andeq	r0, r0, r4, lsr r1
    440c:	00002e70 	andeq	r2, r0, r0, ror lr
    4410:	00002e62 	andeq	r2, r0, r2, ror #28
    4414:	0032730c 	eorseq	r7, r2, ip, lsl #6
    4418:	9b110601 	blls	445c24 <__bss_end__+0x43b5cc>
    441c:	cf000000 	svcgt	0x00000000
    4420:	c900002e 	stmdbgt	r0, {r1, r2, r3, r5}
    4424:	0c00002e 	stceq	0, cr0, [r0], {46}	; 0x2e
    4428:	07010063 	streq	r0, [r1, -r3, rrx]
    442c:	0000a10a 	andeq	sl, r0, sl, lsl #2
    4430:	002f0000 	eoreq	r0, pc, r0
    4434:	002efa00 	eoreq	pc, lr, r0, lsl #20
    4438:	04070000 	streq	r0, [r7], #-0
    443c:	000000a1 	andeq	r0, r0, r1, lsr #1
    4440:	0000f700 	andeq	pc, r0, r0, lsl #14
    4444:	4f000400 	svcmi	0x00000400
    4448:	04000019 	streq	r0, [r0], #-25	; 0xffffffe7
    444c:	00035d01 	andeq	r5, r3, r1, lsl #26
    4450:	0ada0c00 	beq	ff687458 <__bss_end__+0xff67ce00>
    4454:	04150000 	ldreq	r0, [r5], #-0
    4458:	9c4c0000 	marls	acc0, r0, ip
    445c:	00440000 	subeq	r0, r4, r0
    4460:	23710000 	cmncs	r1, #0, 0
    4464:	04020000 	streq	r0, [r2], #-0
    4468:	746e6905 	strbtvc	r6, [lr], #-2309	; 0xfffff6fb
    446c:	07040300 	streq	r0, [r4, -r0, lsl #6]
    4470:	0000008d 	andeq	r0, r0, sp, lsl #1
    4474:	1d060103 	stfnes	f0, [r6, #-12]
    4478:	03000000 	movweq	r0, #0
    447c:	01030502 	tsteq	r3, r2, lsl #10
    4480:	04030000 	streq	r0, [r3], #-0
    4484:	0000b705 	andeq	fp, r0, r5, lsl #14
    4488:	05080300 	streq	r0, [r8, #-768]	; 0xfffffd00
    448c:	000000b2 	strheq	r0, [r0], -r2
    4490:	1b080103 	blne	2048a4 <__bss_end__+0x1fa24c>
    4494:	03000000 	movweq	r0, #0
    4498:	00360702 	eorseq	r0, r6, r2, lsl #14
    449c:	04030000 	streq	r0, [r3], #-0
    44a0:	00008807 	andeq	r8, r0, r7, lsl #16
    44a4:	07080300 	streq	r0, [r8, -r0, lsl #6]
    44a8:	00000083 	andeq	r0, r0, r3, lsl #1
    44ac:	00002504 	andeq	r2, r0, r4, lsl #10
    44b0:	00007a00 	andeq	r7, r0, r0, lsl #20
    44b4:	00250500 	eoreq	r0, r5, r0, lsl #10
    44b8:	06000000 	streq	r0, [r0], -r0
    44bc:	000000c0 	andeq	r0, r0, r0, asr #1
    44c0:	860e1c02 	strhi	r1, [lr], -r2, lsl #24
    44c4:	07000000 	streq	r0, [r0, -r0]
    44c8:	00006b04 	andeq	r6, r0, r4, lsl #22
    44cc:	00250400 	eoreq	r0, r5, r0, lsl #8
    44d0:	009b0000 	addseq	r0, fp, r0
    44d4:	9b050000 	blls	1444dc <__bss_end__+0x139e84>
    44d8:	00000000 	andeq	r0, r0, r0
    44dc:	00a80407 	adceq	r0, r8, r7, lsl #8
    44e0:	01030000 	mrseq	r0, (UNDEF: 3)
    44e4:	00002408 	andeq	r2, r0, r8, lsl #8
    44e8:	00a10800 	adceq	r0, r1, r0, lsl #16
    44ec:	b6060000 	strlt	r0, [r6], -r0
    44f0:	02000004 	andeq	r0, r0, #4, 0
    44f4:	00b90e21 	adcseq	r0, r9, r1, lsr #28
    44f8:	04070000 	streq	r0, [r7], #-0
    44fc:	0000008c 	andeq	r0, r0, ip, lsl #1
    4500:	00058709 	andeq	r8, r5, r9, lsl #14
    4504:	05030100 	streq	r0, [r3, #-256]	; 0xffffff00
    4508:	00000025 	andeq	r0, r0, r5, lsr #32
    450c:	00009c4c 	andeq	r9, r0, ip, asr #24
    4510:	00000044 	andeq	r0, r0, r4, asr #32
    4514:	610a9c01 	tstvs	sl, r1, lsl #24
    4518:	18030100 	stmdane	r3, {r8}
    451c:	0000009b 	muleq	r0, fp, r0
    4520:	00002f37 	andeq	r2, r0, r7, lsr pc
    4524:	00002f2b 	andeq	r2, r0, fp, lsr #30
    4528:	0100620a 	tsteq	r0, sl, lsl #4
    452c:	009b2703 	addseq	r2, fp, r3, lsl #14
    4530:	2f8b0000 	svccs	0x008b0000
    4534:	2f850000 	svccs	0x00850000
    4538:	00000000 	andeq	r0, r0, r0
    453c:	0000010f 	andeq	r0, r0, pc, lsl #2
    4540:	19de0004 	ldmibne	lr, {r2}^
    4544:	01040000 	mrseq	r0, (UNDEF: 4)
    4548:	0000035d 	andeq	r0, r0, sp, asr r3
    454c:	000aea0c 	andeq	lr, sl, ip, lsl #20
    4550:	00041500 	andeq	r1, r4, r0, lsl #10
    4554:	009c9000 	addseq	r9, ip, r0
    4558:	00001800 	andeq	r1, r0, r0, lsl #16
    455c:	00242700 	eoreq	r2, r4, r0, lsl #14
    4560:	05040200 	streq	r0, [r4, #-512]	; 0xfffffe00
    4564:	00746e69 	rsbseq	r6, r4, r9, ror #28
    4568:	8d070403 	cfstrshi	mvf0, [r7, #-12]
    456c:	03000000 	movweq	r0, #0
    4570:	001d0601 	andseq	r0, sp, r1, lsl #12
    4574:	02030000 	andeq	r0, r3, #0, 0
    4578:	00010305 	andeq	r0, r1, r5, lsl #6
    457c:	05040300 	streq	r0, [r4, #-768]	; 0xfffffd00
    4580:	000000b7 	strheq	r0, [r0], -r7
    4584:	b2050803 	andlt	r0, r5, #196608	; 0x30000
    4588:	03000000 	movweq	r0, #0
    458c:	001b0801 	andseq	r0, fp, r1, lsl #16
    4590:	02030000 	andeq	r0, r3, #0, 0
    4594:	00003607 	andeq	r3, r0, r7, lsl #12
    4598:	07040300 	streq	r0, [r4, -r0, lsl #6]
    459c:	00000088 	andeq	r0, r0, r8, lsl #1
    45a0:	83070803 	movwhi	r0, #30723	; 0x7803
    45a4:	04000000 	streq	r0, [r0], #-0
    45a8:	00000025 	andeq	r0, r0, r5, lsr #32
    45ac:	0000007a 	andeq	r0, r0, sl, ror r0
    45b0:	00002505 	andeq	r2, r0, r5, lsl #10
    45b4:	c0060000 	andgt	r0, r6, r0
    45b8:	02000000 	andeq	r0, r0, #0, 0
    45bc:	00860e1c 	addeq	r0, r6, ip, lsl lr
    45c0:	04070000 	streq	r0, [r7], #-0
    45c4:	0000006b 	andeq	r0, r0, fp, rrx
    45c8:	00002504 	andeq	r2, r0, r4, lsl #10
    45cc:	00009b00 	andeq	r9, r0, r0, lsl #22
    45d0:	009b0500 	addseq	r0, fp, r0, lsl #10
    45d4:	07000000 	streq	r0, [r0, -r0]
    45d8:	0000a804 	andeq	sl, r0, r4, lsl #16
    45dc:	08010300 	stmdaeq	r1, {r8, r9}
    45e0:	00000024 	andeq	r0, r0, r4, lsr #32
    45e4:	0000a108 	andeq	sl, r0, r8, lsl #2
    45e8:	04b60600 	ldrteq	r0, [r6], #1536	; 0x600
    45ec:	21020000 	mrscs	r0, (UNDEF: 2)
    45f0:	0000b90e 	andeq	fp, r0, lr, lsl #18
    45f4:	8c040700 	stchi	7, cr0, [r4], {-0}
    45f8:	09000000 	stmdbeq	r0, {}	; <UNPREDICTABLE>
    45fc:	00000560 	andeq	r0, r0, r0, ror #10
    4600:	0c070301 	stceq	3, cr0, [r7], {1}
    4604:	90000001 	andls	r0, r0, r1
    4608:	1800009c 	stmdane	r0, {r2, r3, r4, r7}
    460c:	01000000 	mrseq	r0, (UNDEF: 0)
    4610:	00010c9c 	muleq	r1, ip, ip
    4614:	31730a00 	cmncc	r3, r0, lsl #20
    4618:	15030100 	strne	r0, [r3, #-256]	; 0xffffff00
    461c:	0000010c 	andeq	r0, r0, ip, lsl #2
    4620:	730b5001 	movwvc	r5, #45057	; 0xb001
    4624:	03010032 	movweq	r0, #4146	; 0x1032
    4628:	00009b26 	andeq	r9, r0, r6, lsr #22
    462c:	002fba00 	eoreq	fp, pc, r0, lsl #20
    4630:	002fb400 	eoreq	fp, pc, r0, lsl #8
    4634:	00730c00 	rsbseq	r0, r3, r0, lsl #24
    4638:	0c140401 	cfldrseq	mvf0, [r4], {1}
    463c:	e7000001 	str	r0, [r0, -r1]
    4640:	e500002f 	str	r0, [r0, #-47]	; 0xffffffd1
    4644:	0000002f 	andeq	r0, r0, pc, lsr #32
    4648:	00a10407 	adceq	r0, r1, r7, lsl #8
    464c:	4e000000 	cdpmi	0, 0, cr0, cr0, cr0, {0}
    4650:	04000001 	streq	r0, [r0], #-1
    4654:	001a9400 	andseq	r9, sl, r0, lsl #8
    4658:	5d010400 	cfstrspl	mvf0, [r1, #-0]
    465c:	0c000003 	stceq	0, cr0, [r0], {3}
    4660:	00000afa 	strdeq	r0, [r0], -sl
    4664:	00000415 	andeq	r0, r0, r5, lsl r4
    4668:	00009ca8 	andeq	r9, r0, r8, lsr #25
    466c:	00000030 	andeq	r0, r0, r0, lsr r0
    4670:	000024c8 	andeq	r2, r0, r8, asr #9
    4674:	69050402 	stmdbvs	r5, {r1, sl}
    4678:	0300746e 	movweq	r7, #1134	; 0x46e
    467c:	00000346 	andeq	r0, r0, r6, asr #6
    4680:	3817d103 	ldmdacc	r7, {r0, r1, r8, ip, lr, pc}
    4684:	04000000 	streq	r0, [r0], #-0
    4688:	008d0704 	addeq	r0, sp, r4, lsl #14
    468c:	01040000 	mrseq	r0, (UNDEF: 4)
    4690:	00001d06 	andeq	r1, r0, r6, lsl #26
    4694:	05020400 	streq	r0, [r2, #-1024]	; 0xfffffc00
    4698:	00000103 	andeq	r0, r0, r3, lsl #2
    469c:	b7050404 	strlt	r0, [r5, -r4, lsl #8]
    46a0:	04000000 	streq	r0, [r0], #-0
    46a4:	00b20508 	adcseq	r0, r2, r8, lsl #10
    46a8:	01040000 	mrseq	r0, (UNDEF: 4)
    46ac:	00001b08 	andeq	r1, r0, r8, lsl #22
    46b0:	005b0500 	subseq	r0, fp, r0, lsl #10
    46b4:	02040000 	andeq	r0, r4, #0, 0
    46b8:	00003607 	andeq	r3, r0, r7, lsl #12
    46bc:	07040400 	streq	r0, [r4, -r0, lsl #8]
    46c0:	00000088 	andeq	r0, r0, r8, lsl #1
    46c4:	83070804 	movwhi	r0, #30724	; 0x7804
    46c8:	06000000 	streq	r0, [r0], -r0
    46cc:	00000025 	andeq	r0, r0, r5, lsr #32
    46d0:	0000008b 	andeq	r0, r0, fp, lsl #1
    46d4:	00002507 	andeq	r2, r0, r7, lsl #10
    46d8:	c0080000 	andgt	r0, r8, r0
    46dc:	02000000 	andeq	r0, r0, #0, 0
    46e0:	00970e1c 	addseq	r0, r7, ip, lsl lr
    46e4:	04090000 	streq	r0, [r9], #-0
    46e8:	0000007c 	andeq	r0, r0, ip, ror r0
    46ec:	00002506 	andeq	r2, r0, r6, lsl #10
    46f0:	0000ac00 	andeq	sl, r0, r0, lsl #24
    46f4:	00ac0700 	adceq	r0, ip, r0, lsl #14
    46f8:	09000000 	stmdbeq	r0, {}	; <UNPREDICTABLE>
    46fc:	0000b904 	andeq	fp, r0, r4, lsl #18
    4700:	08010400 	stmdaeq	r1, {sl}
    4704:	00000024 	andeq	r0, r0, r4, lsr #32
    4708:	0000b205 	andeq	fp, r0, r5, lsl #4
    470c:	04b60800 	ldrteq	r0, [r6], #2048	; 0x800
    4710:	21020000 	mrscs	r0, (UNDEF: 2)
    4714:	0000ca0e 	andeq	ip, r0, lr, lsl #20
    4718:	9d040900 	vstrls.16	s0, [r4, #-0]	; <UNPREDICTABLE>
    471c:	0a000000 	beq	4724 <__code_start__-0x38dc>
    4720:	000005b7 			; <UNDEFINED> instruction: 0x000005b7
    4724:	25050401 	strcs	r0, [r5, #-1025]	; 0xfffffbff
    4728:	a8000000 	stmdage	r0, {}	; <UNPREDICTABLE>
    472c:	3000009c 	mulcc	r0, ip, r0
    4730:	01000000 	mrseq	r0, (UNDEF: 0)
    4734:	00014b9c 	muleq	r1, ip, fp
    4738:	735f0b00 	cmpvc	pc, #0, 22
    473c:	04010031 	streq	r0, [r1], #-49	; 0xffffffcf
    4740:	0000ac19 	andeq	sl, r0, r9, lsl ip
    4744:	002ffe00 	eoreq	pc, pc, r0, lsl #28
    4748:	002ffa00 	eoreq	pc, pc, r0, lsl #20
    474c:	735f0b00 	cmpvc	pc, #0, 22
    4750:	04010032 	streq	r0, [r1], #-50	; 0xffffffce
    4754:	0000ac2a 	andeq	sl, r0, sl, lsr #24
    4758:	00302300 	eorseq	r2, r0, r0, lsl #6
    475c:	00301f00 	eorseq	r1, r0, r0, lsl #30
    4760:	006e0b00 	rsbeq	r0, lr, r0, lsl #22
    4764:	2c360401 	cfldrscs	mvf0, [r6], #-4
    4768:	4e000000 	cdpmi	0, 0, cr0, cr0, cr0, {0}
    476c:	44000030 	strmi	r0, [r0], #-48	; 0xffffffd0
    4770:	0c000030 	stceq	0, cr0, [r0], {48}	; 0x30
    4774:	01003173 	tsteq	r0, r3, ror r1
    4778:	014b1a05 	cmpeq	fp, r5, lsl #20
    477c:	30a50000 	adccc	r0, r5, r0
    4780:	309d0000 	addscc	r0, sp, r0
    4784:	730c0000 	movwvc	r0, #49152	; 0xc000
    4788:	05010032 	streq	r0, [r1, #-50]	; 0xffffffce
    478c:	00014b2c 	andeq	r4, r1, ip, lsr #22
    4790:	0030e300 	eorseq	lr, r0, r0, lsl #6
    4794:	0030dd00 	eorseq	sp, r0, r0, lsl #26
    4798:	04090000 	streq	r0, [r9], #-0
    479c:	00000062 	andeq	r0, r0, r2, rrx
    47a0:	0000ce00 	andeq	ip, r0, r0, lsl #28
    47a4:	48000400 	stmdami	r0, {sl}
    47a8:	0400001b 	streq	r0, [r0], #-27	; 0xffffffe5
    47ac:	00035d01 	andeq	r5, r3, r1, lsl #26
    47b0:	0b0b0c00 	bleq	2c77b8 <__bss_end__+0x2bd160>
    47b4:	04150000 	ldreq	r0, [r5], #-0
    47b8:	9cd80000 	ldclls	0, cr0, [r8], {0}
    47bc:	00040000 	andeq	r0, r4, r0
    47c0:	25c90000 	strbcs	r0, [r9]
    47c4:	04020000 	streq	r0, [r2], #-0
    47c8:	746e6905 	strbtvc	r6, [lr], #-2309	; 0xfffff6fb
    47cc:	07040300 	streq	r0, [r4, -r0, lsl #6]
    47d0:	0000008d 	andeq	r0, r0, sp, lsl #1
    47d4:	1d060103 	stfnes	f0, [r6, #-12]
    47d8:	03000000 	movweq	r0, #0
    47dc:	01030502 	tsteq	r3, r2, lsl #10
    47e0:	04030000 	streq	r0, [r3], #-0
    47e4:	0000b705 	andeq	fp, r0, r5, lsl #14
    47e8:	05080300 	streq	r0, [r8, #-768]	; 0xfffffd00
    47ec:	000000b2 	strheq	r0, [r0], -r2
    47f0:	1b080103 	blne	204c04 <__bss_end__+0x1fa5ac>
    47f4:	03000000 	movweq	r0, #0
    47f8:	00360702 	eorseq	r0, r6, r2, lsl #14
    47fc:	04030000 	streq	r0, [r3], #-0
    4800:	00008807 	andeq	r8, r0, r7, lsl #16
    4804:	07080300 	streq	r0, [r8, -r0, lsl #6]
    4808:	00000083 	andeq	r0, r0, r3, lsl #1
    480c:	00002504 	andeq	r2, r0, r4, lsl #10
    4810:	00007a00 	andeq	r7, r0, r0, lsl #20
    4814:	00250500 	eoreq	r0, r5, r0, lsl #10
    4818:	06000000 	streq	r0, [r0], -r0
    481c:	000000c0 	andeq	r0, r0, r0, asr #1
    4820:	860e1c02 	strhi	r1, [lr], -r2, lsl #24
    4824:	07000000 	streq	r0, [r0, -r0]
    4828:	00006b04 	andeq	r6, r0, r4, lsl #22
    482c:	00250400 	eoreq	r0, r5, r0, lsl #8
    4830:	009b0000 	addseq	r0, fp, r0
    4834:	9b050000 	blls	14483c <__bss_end__+0x13a1e4>
    4838:	00000000 	andeq	r0, r0, r0
    483c:	00a80407 	adceq	r0, r8, r7, lsl #8
    4840:	01030000 	mrseq	r0, (UNDEF: 3)
    4844:	00002408 	andeq	r2, r0, r8, lsl #8
    4848:	00a10800 	adceq	r0, r1, r0, lsl #16
    484c:	b6060000 	strlt	r0, [r6], -r0
    4850:	02000004 	andeq	r0, r0, #4, 0
    4854:	00b90e21 	adcseq	r0, r9, r1, lsr #28
    4858:	04070000 	streq	r0, [r7], #-0
    485c:	0000008c 	andeq	r0, r0, ip, lsl #1
    4860:	00065e09 	andeq	r5, r6, r9, lsl #28
    4864:	06030100 	streq	r0, [r3], -r0, lsl #2
    4868:	00009cd8 	ldrdeq	r9, [r0], -r8
    486c:	00000004 	andeq	r0, r0, r4
    4870:	Address 0x0000000000004870 is out of bounds.


Disassembly of section .debug_abbrev:

00000000 <.debug_abbrev>:
       0:	25011101 	strcs	r1, [r1, #-257]	; 0xfffffeff
       4:	030b130e 	movweq	r1, #45838	; 0xb30e
       8:	110e1b0e 	tstne	lr, lr, lsl #22
       c:	10061201 	andne	r1, r6, r1, lsl #4
      10:	02000017 	andeq	r0, r0, #23, 0
      14:	0b0b0024 	bleq	2c00ac <__bss_end__+0x2b5a54>
      18:	08030b3e 	stmdaeq	r3, {r1, r2, r3, r4, r5, r8, r9, fp}
      1c:	24030000 	strcs	r0, [r3], #-0
      20:	3e0b0b00 	vmlacc.f64	d0, d11, d0
      24:	000e030b 	andeq	r0, lr, fp, lsl #6
      28:	00160400 	andseq	r0, r6, r0, lsl #8
      2c:	0b3a0e03 	bleq	e83840 <__bss_end__+0xe791e8>
      30:	0b390b3b 	bleq	e42d24 <__bss_end__+0xe386cc>
      34:	00001349 	andeq	r1, r0, r9, asr #6
      38:	27011505 	strcs	r1, [r1, -r5, lsl #10]
      3c:	01134919 	tsteq	r3, r9, lsl r9
      40:	06000013 			; <UNDEFINED> instruction: 0x06000013
      44:	13490005 	movtne	r0, #36869	; 0x9005
      48:	34070000 	strcc	r0, [r7], #-0
      4c:	3a0e0300 	bcc	380c54 <__bss_end__+0x3765fc>
      50:	390b3b0b 	stmdbcc	fp, {r0, r1, r3, r8, r9, fp, ip, sp}
      54:	3f13490b 	svccc	0x0013490b
      58:	00193c19 	andseq	r3, r9, r9, lsl ip
      5c:	000f0800 	andeq	r0, pc, r0, lsl #16
      60:	13490b0b 	movtne	r0, #39691	; 0x9b0b
      64:	26090000 	strcs	r0, [r9], -r0
      68:	00134900 	andseq	r4, r3, r0, lsl #18
      6c:	01130a00 	tsteq	r3, r0, lsl #20
      70:	0b3a0b0b 	bleq	e82ca4 <__bss_end__+0xe7864c>
      74:	0b390b3b 	bleq	e42d68 <__bss_end__+0xe38710>
      78:	00001301 	andeq	r1, r0, r1, lsl #6
      7c:	03000d0b 	movweq	r0, #3339	; 0xd0b
      80:	3b0b3a0e 	blcc	2ce8c0 <__bss_end__+0x2c4268>
      84:	490b390b 	stmdbmi	fp, {r0, r1, r3, r8, fp, ip, sp}
      88:	000b3813 	andeq	r3, fp, r3, lsl r8
      8c:	012e0c00 			; <UNDEFINED> instruction: 0x012e0c00
      90:	0e03193f 			; <UNDEFINED> instruction: 0x0e03193f
      94:	0b3b0b3a 	bleq	ec2d84 <__bss_end__+0xeb872c>
      98:	19270b39 	stmdbne	r7!, {r0, r3, r4, r5, r8, r9, fp}
      9c:	06120111 			; <UNDEFINED> instruction: 0x06120111
      a0:	42971840 	addsmi	r1, r7, #64, 16	; 0x400000
      a4:	00130119 	andseq	r0, r3, r9, lsl r1
      a8:	00340d00 	eorseq	r0, r4, r0, lsl #26
      ac:	0b3a0803 	bleq	e820c0 <__bss_end__+0xe77a68>
      b0:	0b390b3b 	bleq	e42da4 <__bss_end__+0xe3874c>
      b4:	0b1c1349 	bleq	704de0 <__bss_end__+0x6fa788>
      b8:	340e0000 	strcc	r0, [lr], #-0
      bc:	3a080300 	bcc	200cc4 <__bss_end__+0x1f666c>
      c0:	390b3b0b 	stmdbcc	fp, {r0, r1, r3, r8, r9, fp, ip, sp}
      c4:	0213490b 	andseq	r4, r3, #180224	; 0x2c000
      c8:	1742b717 	smlaldne	fp, r2, r7, r7
      cc:	340f0000 	strcc	r0, [pc], #-0	; d4 <__code_start__-0x7f2c>
      d0:	3a0e0300 	bcc	380cd8 <__bss_end__+0x376680>
      d4:	390b3b0b 	stmdbcc	fp, {r0, r1, r3, r8, r9, fp, ip, sp}
      d8:	1c13490b 			; <UNDEFINED> instruction: 0x1c13490b
      dc:	1000000b 	andne	r0, r0, fp
      e0:	0e030034 	mcreq	0, 0, r0, cr3, cr4, {1}
      e4:	19341349 	ldmdbne	r4!, {r0, r3, r6, r8, r9, ip}
      e8:	00001802 	andeq	r1, r0, r2, lsl #16
      ec:	11010b11 	tstne	r1, r1, lsl fp
      f0:	01061201 	tsteq	r6, r1, lsl #4
      f4:	12000013 	andne	r0, r0, #19, 0
      f8:	1755010b 	ldrbne	r0, [r5, -fp, lsl #2]
      fc:	89130000 	ldmdbhi	r3, {}	; <UNPREDICTABLE>
     100:	11010182 	smlabbne	r1, r2, r1, r0
     104:	01133101 	tsteq	r3, r1, lsl #2
     108:	14000013 	strne	r0, [r0], #-19	; 0xffffffed
     10c:	0001828a 	andeq	r8, r1, sl, lsl #5
     110:	42911802 	addsmi	r1, r1, #131072	; 0x20000
     114:	15000018 	strne	r0, [r0, #-24]	; 0xffffffe8
     118:	00018289 	andeq	r8, r1, r9, lsl #5
     11c:	13310111 	teqne	r1, #1073741828	; 0x40000004
     120:	89160000 	ldmdbhi	r6, {}	; <UNPREDICTABLE>
     124:	11010182 	smlabbne	r1, r2, r1, r0
     128:	00133101 	andseq	r3, r3, r1, lsl #2
     12c:	000f1700 	andeq	r1, pc, r0, lsl #14
     130:	00000b0b 	andeq	r0, r0, fp, lsl #22
     134:	49010118 	stmdbmi	r1, {r3, r4, r8}
     138:	00130113 	andseq	r0, r3, r3, lsl r1
     13c:	00211900 	eoreq	r1, r1, r0, lsl #18
     140:	0b2f1349 	bleq	bc4e6c <__bss_end__+0xbba814>
     144:	2e1a0000 	cdpcs	0, 1, cr0, cr10, cr0, {0}
     148:	3a0e0301 	bcc	380d54 <__bss_end__+0x3766fc>
     14c:	390b3b0b 	stmdbcc	fp, {r0, r1, r3, r8, r9, fp, ip, sp}
     150:	4919270b 	ldmdbmi	r9, {r0, r1, r3, r8, r9, sl, sp}
     154:	12011113 	andne	r1, r1, #-1073741820	; 0xc0000004
     158:	97184006 	ldrls	r4, [r8, -r6]
     15c:	13011942 	movwne	r1, #6466	; 0x1942
     160:	051b0000 	ldreq	r0, [fp, #-0]
     164:	3a080300 	bcc	200d6c <__bss_end__+0x1f6714>
     168:	390b3b0b 	stmdbcc	fp, {r0, r1, r3, r8, r9, fp, ip, sp}
     16c:	0213490b 	andseq	r4, r3, #180224	; 0x2c000
     170:	1742b717 	smlaldne	fp, r2, r7, r7
     174:	341c0000 	ldrcc	r0, [ip], #-0
     178:	3a0e0300 	bcc	380d80 <__bss_end__+0x376728>
     17c:	390b3b0b 	stmdbcc	fp, {r0, r1, r3, r8, r9, fp, ip, sp}
     180:	0213490b 	andseq	r4, r3, #180224	; 0x2c000
     184:	1742b717 	smlaldne	fp, r2, r7, r7
     188:	1d1d0000 	ldcne	0, cr0, [sp, #-0]
     18c:	52133101 	andspl	r3, r3, #1073741824	; 0x40000000
     190:	0b42b801 	bleq	10ae19c <__bss_end__+0x10a3b44>
     194:	06120111 			; <UNDEFINED> instruction: 0x06120111
     198:	0b590b58 	bleq	1642f00 <__bss_end__+0x16388a8>
     19c:	13010b57 	movwne	r0, #6999	; 0x1b57
     1a0:	051e0000 	ldreq	r0, [lr, #-0]
     1a4:	02133100 	andseq	r3, r3, #0
     1a8:	1742b717 	smlaldne	fp, r2, r7, r7
     1ac:	2e1f0000 	cdpcs	0, 1, cr0, cr15, cr0, {0}
     1b0:	3a0e0301 	bcc	380dbc <__bss_end__+0x376764>
     1b4:	390b3b0b 	stmdbcc	fp, {r0, r1, r3, r8, r9, fp, ip, sp}
     1b8:	4919270b 	ldmdbmi	r9, {r0, r1, r3, r8, r9, sl, sp}
     1bc:	010b2013 	tsteq	fp, r3, lsl r0
     1c0:	20000013 	andcs	r0, r0, r3, lsl r0
     1c4:	0e030005 	cdpeq	0, 0, cr0, cr3, cr5, {0}
     1c8:	0b3b0b3a 	bleq	ec2eb8 <__bss_end__+0xeb8860>
     1cc:	13490b39 	movtne	r0, #39737	; 0x9b39
     1d0:	2e210000 	cdpcs	0, 2, cr0, cr1, cr0, {0}
     1d4:	3c193f00 	ldccc	15, cr3, [r9], {-0}
     1d8:	030e6e19 	movweq	r6, #60953	; 0xee19
     1dc:	3b0b3a0e 	blcc	2cea1c <__bss_end__+0x2c43c4>
     1e0:	000b390b 	andeq	r3, fp, fp, lsl #18
     1e4:	00362200 	eorseq	r2, r6, r0, lsl #4
     1e8:	00001802 	andeq	r1, r0, r2, lsl #16
     1ec:	01110100 	tsteq	r1, r0, lsl #2
     1f0:	0b130e25 	bleq	4c3a8c <__bss_end__+0x4b9434>
     1f4:	0e1b0e03 	cdpeq	14, 1, cr0, cr11, cr3, {0}
     1f8:	06120111 			; <UNDEFINED> instruction: 0x06120111
     1fc:	00001710 	andeq	r1, r0, r0, lsl r7
     200:	0b002402 	bleq	9210 <va_printk+0x624>
     204:	030b3e0b 	movweq	r3, #48651	; 0xbe0b
     208:	03000008 	movweq	r0, #8
     20c:	0b0b0024 	bleq	2c02a4 <__bss_end__+0x2b5c4c>
     210:	0e030b3e 	vmoveq.16	d3[0], r0
     214:	15040000 	strne	r0, [r4, #-0]
     218:	49192701 	ldmdbmi	r9, {r0, r8, r9, sl, sp}
     21c:	00130113 	andseq	r0, r3, r3, lsl r1
     220:	00050500 	andeq	r0, r5, r0, lsl #10
     224:	00001349 	andeq	r1, r0, r9, asr #6
     228:	03003406 	movweq	r3, #1030	; 0x406
     22c:	3b0b3a0e 	blcc	2cea6c <__bss_end__+0x2c4414>
     230:	490b390b 	stmdbmi	fp, {r0, r1, r3, r8, fp, ip, sp}
     234:	3c193f13 	ldccc	15, cr3, [r9], {19}
     238:	07000019 	smladeq	r0, r9, r0, r0
     23c:	0b0b000f 	bleq	2c0280 <__bss_end__+0x2b5c28>
     240:	00001349 	andeq	r1, r0, r9, asr #6
     244:	49002608 	stmdbmi	r0, {r3, r9, sl, sp}
     248:	09000013 	stmdbeq	r0, {r0, r1, r4}
     24c:	0e030117 	mcreq	1, 0, r0, cr3, cr7, {0}
     250:	0b3a0b0b 	bleq	e82e84 <__bss_end__+0xe7882c>
     254:	0b390b3b 	bleq	e42f48 <__bss_end__+0xe388f0>
     258:	00001301 	andeq	r1, r0, r1, lsl #6
     25c:	03000d0a 	movweq	r0, #3338	; 0xd0a
     260:	3b0b3a08 	blcc	2cea88 <__bss_end__+0x2c4430>
     264:	490b390b 	stmdbmi	fp, {r0, r1, r3, r8, fp, ip, sp}
     268:	0b000013 	bleq	2bc <__code_start__-0x7d44>
     26c:	0b0b000f 	bleq	2c02b0 <__bss_end__+0x2b5c58>
     270:	150c0000 	strne	r0, [ip, #-0]
     274:	00192700 	andseq	r2, r9, r0, lsl #14
     278:	01130d00 	tsteq	r3, r0, lsl #26
     27c:	0b3a0b0b 	bleq	e82eb0 <__bss_end__+0xe78858>
     280:	0b390b3b 	bleq	e42f74 <__bss_end__+0xe3891c>
     284:	00001301 	andeq	r1, r0, r1, lsl #6
     288:	03000d0e 	movweq	r0, #3342	; 0xd0e
     28c:	3b0b3a08 	blcc	2ceab4 <__bss_end__+0x2c445c>
     290:	490b390b 	stmdbmi	fp, {r0, r1, r3, r8, fp, ip, sp}
     294:	000b3813 	andeq	r3, fp, r3, lsl r8
     298:	000d0f00 	andeq	r0, sp, r0, lsl #30
     29c:	0b3a0e03 	bleq	e83ab0 <__bss_end__+0xe79458>
     2a0:	0b390b3b 	bleq	e42f94 <__bss_end__+0xe3893c>
     2a4:	0b381349 	bleq	e04fd0 <__bss_end__+0xdfa978>
     2a8:	16100000 	ldrne	r0, [r0], -r0
     2ac:	3a0e0300 	bcc	380eb4 <__bss_end__+0x37685c>
     2b0:	390b3b0b 	stmdbcc	fp, {r0, r1, r3, r8, r9, fp, ip, sp}
     2b4:	0013490b 	andseq	r4, r3, fp, lsl #18
     2b8:	00341100 	eorseq	r1, r4, r0, lsl #2
     2bc:	0b3a0e03 	bleq	e83ad0 <__bss_end__+0xe79478>
     2c0:	0b390b3b 	bleq	e42fb4 <__bss_end__+0xe3895c>
     2c4:	18021349 	stmdane	r2, {r0, r3, r6, r8, r9, ip}
     2c8:	2e120000 	cdpcs	0, 1, cr0, cr2, cr0, {0}
     2cc:	03193f01 	tsteq	r9, #1, 30
     2d0:	3b0b3a0e 	blcc	2ceb10 <__bss_end__+0x2c44b8>
     2d4:	270b390b 	strcs	r3, [fp, -fp, lsl #18]
     2d8:	12011119 	andne	r1, r1, #1073741830	; 0x40000006
     2dc:	97184006 	ldrls	r4, [r8, -r6]
     2e0:	13011942 	movwne	r1, #6466	; 0x1942
     2e4:	05130000 	ldreq	r0, [r3, #-0]
     2e8:	3a080300 	bcc	200ef0 <__bss_end__+0x1f6898>
     2ec:	390b3b0b 	stmdbcc	fp, {r0, r1, r3, r8, r9, fp, ip, sp}
     2f0:	0213490b 	andseq	r4, r3, #180224	; 0x2c000
     2f4:	14000018 	strne	r0, [r0], #-24	; 0xffffffe8
     2f8:	08030034 	stmdaeq	r3, {r2, r4, r5}
     2fc:	0b3b0b3a 	bleq	ec2fec <__bss_end__+0xeb8994>
     300:	13490b39 	movtne	r0, #39737	; 0x9b39
     304:	42b71702 	adcsmi	r1, r7, #524288	; 0x80000
     308:	15000017 	strne	r0, [r0, #-23]	; 0xffffffe9
     30c:	193f012e 	ldmdbne	pc!, {r1, r2, r3, r5, r8}	; <UNPREDICTABLE>
     310:	0b3a0e03 	bleq	e83b24 <__bss_end__+0xe794cc>
     314:	0b390b3b 	bleq	e43008 <__bss_end__+0xe389b0>
     318:	13491927 	movtne	r1, #39207	; 0x9927
     31c:	06120111 			; <UNDEFINED> instruction: 0x06120111
     320:	42971840 	addsmi	r1, r7, #64, 16	; 0x400000
     324:	00130119 	andseq	r0, r3, r9, lsl r1
     328:	00051600 	andeq	r1, r5, r0, lsl #12
     32c:	0b3a0e03 	bleq	e83b40 <__bss_end__+0xe794e8>
     330:	0b390b3b 	bleq	e43024 <__bss_end__+0xe389cc>
     334:	17021349 	strne	r1, [r2, -r9, asr #6]
     338:	001742b7 			; <UNDEFINED> instruction: 0x001742b7
     33c:	00341700 	eorseq	r1, r4, r0, lsl #14
     340:	0b3a0e03 	bleq	e83b54 <__bss_end__+0xe794fc>
     344:	0b390b3b 	bleq	e43038 <__bss_end__+0xe389e0>
     348:	17021349 	strne	r1, [r2, -r9, asr #6]
     34c:	001742b7 			; <UNDEFINED> instruction: 0x001742b7
     350:	82891800 	addhi	r1, r9, #0, 16
     354:	01110101 	tsteq	r1, r1, lsl #2
     358:	00001331 	andeq	r1, r0, r1, lsr r3
     35c:	01828a19 	orreq	r8, r2, r9, lsl sl
     360:	91180200 	tstls	r8, r0, lsl #4
     364:	00001842 	andeq	r1, r0, r2, asr #16
     368:	03012e1a 	movweq	r2, #7706	; 0x1e1a
     36c:	3b0b3a0e 	blcc	2cebac <__bss_end__+0x2c4554>
     370:	270b390b 	strcs	r3, [fp, -fp, lsl #18]
     374:	11134919 	tstne	r3, r9, lsl r9
     378:	40061201 	andmi	r1, r6, r1, lsl #4
     37c:	19429718 	stmdbne	r2, {r3, r4, r8, r9, sl, ip, pc}^
     380:	00001301 	andeq	r1, r0, r1, lsl #6
     384:	0300051b 	movweq	r0, #1307	; 0x51b
     388:	3b0b3a08 	blcc	2cebb0 <__bss_end__+0x2c4558>
     38c:	490b390b 	stmdbmi	fp, {r0, r1, r3, r8, fp, ip, sp}
     390:	b7170213 			; <UNDEFINED> instruction: 0xb7170213
     394:	00001742 	andeq	r1, r0, r2, asr #14
     398:	0182891c 	orreq	r8, r2, ip, lsl r9
     39c:	31011101 	tstcc	r1, r1, lsl #2
     3a0:	00130113 	andseq	r0, r3, r3, lsl r1
     3a4:	82891d00 	addhi	r1, r9, #0, 26
     3a8:	01110001 	tsteq	r1, r1
     3ac:	00001331 	andeq	r1, r0, r1, lsr r3
     3b0:	3f002e1e 	svccc	0x00002e1e
     3b4:	6e193c19 	mrcvs	12, 0, r3, cr9, cr9, {0}
     3b8:	3a0e030e 	bcc	380ff8 <__bss_end__+0x3769a0>
     3bc:	390b3b0b 	stmdbcc	fp, {r0, r1, r3, r8, r9, fp, ip, sp}
     3c0:	0000000b 	andeq	r0, r0, fp
     3c4:	25011101 	strcs	r1, [r1, #-257]	; 0xfffffeff
     3c8:	030b130e 	movweq	r1, #45838	; 0xb30e
     3cc:	110e1b0e 	tstne	lr, lr, lsl #22
     3d0:	10061201 	andne	r1, r6, r1, lsl #4
     3d4:	02000017 	andeq	r0, r0, #23, 0
     3d8:	0b0b0024 	bleq	2c0470 <__bss_end__+0x2b5e18>
     3dc:	08030b3e 	stmdaeq	r3, {r1, r2, r3, r4, r5, r8, r9, fp}
     3e0:	24030000 	strcs	r0, [r3], #-0
     3e4:	3e0b0b00 	vmlacc.f64	d0, d11, d0
     3e8:	000e030b 	andeq	r0, lr, fp, lsl #6
     3ec:	01150400 	tsteq	r5, r0, lsl #8
     3f0:	13491927 	movtne	r1, #39207	; 0x9927
     3f4:	00001301 	andeq	r1, r0, r1, lsl #6
     3f8:	49000505 	stmdbmi	r0, {r0, r2, r8, sl}
     3fc:	06000013 			; <UNDEFINED> instruction: 0x06000013
     400:	0e030034 	mcreq	0, 0, r0, cr3, cr4, {1}
     404:	0b3b0b3a 	bleq	ec30f4 <__bss_end__+0xeb8a9c>
     408:	13490b39 	movtne	r0, #39737	; 0x9b39
     40c:	193c193f 	ldmdbne	ip!, {r0, r1, r2, r3, r4, r5, r8, fp, ip}
     410:	0f070000 	svceq	0x00070000
     414:	490b0b00 	stmdbmi	fp, {r8, r9, fp}
     418:	08000013 	stmdaeq	r0, {r0, r1, r4}
     41c:	13490026 	movtne	r0, #36902	; 0x9026
     420:	2e090000 	cdpcs	0, 0, cr0, cr9, cr0, {0}
     424:	03193f01 	tsteq	r9, #1, 30
     428:	3b0b3a0e 	blcc	2cec68 <__bss_end__+0x2c4610>
     42c:	270b390b 	strcs	r3, [fp, -fp, lsl #18]
     430:	11134919 	tstne	r3, r9, lsl r9
     434:	40061201 	andmi	r1, r6, r1, lsl #4
     438:	19429718 	stmdbne	r2, {r3, r4, r8, r9, sl, ip, pc}^
     43c:	00001301 	andeq	r1, r0, r1, lsl #6
     440:	0300050a 	movweq	r0, #1290	; 0x50a
     444:	3b0b3a0e 	blcc	2cec84 <__bss_end__+0x2c462c>
     448:	490b390b 	stmdbmi	fp, {r0, r1, r3, r8, fp, ip, sp}
     44c:	b7170213 			; <UNDEFINED> instruction: 0xb7170213
     450:	00001742 	andeq	r1, r0, r2, asr #14
     454:	0182890b 	orreq	r8, r2, fp, lsl #18
     458:	31011101 	tstcc	r1, r1, lsl #2
     45c:	0c000013 	stceq	0, cr0, [r0], {19}
     460:	0001828a 	andeq	r8, r1, sl, lsl #5
     464:	42911802 	addsmi	r1, r1, #131072	; 0x20000
     468:	0d000018 	stceq	0, cr0, [r0, #-96]	; 0xffffffa0
     46c:	0b0b000f 	bleq	2c04b0 <__bss_end__+0x2b5e58>
     470:	2e0e0000 	cdpcs	0, 0, cr0, cr14, cr0, {0}
     474:	3c193f00 	ldccc	15, cr3, [r9], {-0}
     478:	030e6e19 	movweq	r6, #60953	; 0xee19
     47c:	3b0b3a0e 	blcc	2cecbc <__bss_end__+0x2c4664>
     480:	000b390b 	andeq	r3, fp, fp, lsl #18
     484:	11010000 	mrsne	r0, (UNDEF: 1)
     488:	130e2501 	movwne	r2, #58625	; 0xe501
     48c:	1b0e030b 	blne	3810c0 <__bss_end__+0x376a68>
     490:	1201110e 	andne	r1, r1, #-2147483645	; 0x80000003
     494:	00171006 	andseq	r1, r7, r6
     498:	00240200 	eoreq	r0, r4, r0, lsl #4
     49c:	0b3e0b0b 	bleq	f830d0 <__bss_end__+0xf78a78>
     4a0:	00000803 	andeq	r0, r0, r3, lsl #16
     4a4:	0b002403 	bleq	94b8 <delay_sec+0x24>
     4a8:	030b3e0b 	movweq	r3, #48651	; 0xbe0b
     4ac:	0400000e 	streq	r0, [r0], #-14
     4b0:	0e030016 	mcreq	0, 0, r0, cr3, cr6, {0}
     4b4:	0b3b0b3a 	bleq	ec31a4 <__bss_end__+0xeb8b4c>
     4b8:	13490b39 	movtne	r0, #39737	; 0x9b39
     4bc:	15050000 	strne	r0, [r5, #-0]
     4c0:	49192701 	ldmdbmi	r9, {r0, r8, r9, sl, sp}
     4c4:	00130113 	andseq	r0, r3, r3, lsl r1
     4c8:	00050600 	andeq	r0, r5, r0, lsl #12
     4cc:	00001349 	andeq	r1, r0, r9, asr #6
     4d0:	03003407 	movweq	r3, #1031	; 0x407
     4d4:	3b0b3a0e 	blcc	2ced14 <__bss_end__+0x2c46bc>
     4d8:	490b390b 	stmdbmi	fp, {r0, r1, r3, r8, fp, ip, sp}
     4dc:	3c193f13 	ldccc	15, cr3, [r9], {19}
     4e0:	08000019 	stmdaeq	r0, {r0, r3, r4}
     4e4:	0b0b000f 	bleq	2c0528 <__bss_end__+0x2b5ed0>
     4e8:	00001349 	andeq	r1, r0, r9, asr #6
     4ec:	49002609 	stmdbmi	r0, {r0, r3, r9, sl, sp}
     4f0:	0a000013 	beq	544 <__code_start__-0x7abc>
     4f4:	0b0b0113 	bleq	2c0948 <__bss_end__+0x2b62f0>
     4f8:	0b3b0b3a 	bleq	ec31e8 <__bss_end__+0xeb8b90>
     4fc:	13010b39 	movwne	r0, #6969	; 0x1b39
     500:	0d0b0000 	stceq	0, cr0, [fp, #-0]
     504:	3a0e0300 	bcc	38110c <__bss_end__+0x376ab4>
     508:	390b3b0b 	stmdbcc	fp, {r0, r1, r3, r8, r9, fp, ip, sp}
     50c:	3813490b 	ldmdacc	r3, {r0, r1, r3, r8, fp, lr}
     510:	0c00000b 	stceq	0, cr0, [r0], {11}
     514:	0b3e0104 	bleq	f8092c <__bss_end__+0xf762d4>
     518:	13490b0b 	movtne	r0, #39691	; 0x9b0b
     51c:	0b3b0b3a 	bleq	ec320c <__bss_end__+0xeb8bb4>
     520:	13010b39 	movwne	r0, #6969	; 0x1b39
     524:	280d0000 	stmdacs	sp, {}	; <UNPREDICTABLE>
     528:	1c0e0300 	stcne	3, cr0, [lr], {-0}
     52c:	0e00000b 	cdpeq	0, 0, cr0, cr0, cr11, {0}
     530:	0e030113 	mcreq	1, 0, r0, cr3, cr3, {0}
     534:	0b3a0b0b 	bleq	e83168 <__bss_end__+0xe78b10>
     538:	0b390b3b 	bleq	e4322c <__bss_end__+0xe38bd4>
     53c:	00001301 	andeq	r1, r0, r1, lsl #6
     540:	0300340f 	movweq	r3, #1039	; 0x40f
     544:	3b0b3a0e 	blcc	2ced84 <__bss_end__+0x2c472c>
     548:	490b390b 	stmdbmi	fp, {r0, r1, r3, r8, fp, ip, sp}
     54c:	00180213 	andseq	r0, r8, r3, lsl r2
     550:	012e1000 			; <UNDEFINED> instruction: 0x012e1000
     554:	0e03193f 			; <UNDEFINED> instruction: 0x0e03193f
     558:	0b3b0b3a 	bleq	ec3248 <__bss_end__+0xeb8bf0>
     55c:	19270b39 	stmdbne	r7!, {r0, r3, r4, r5, r8, r9, fp}
     560:	01111349 	tsteq	r1, r9, asr #6
     564:	18400612 	stmdane	r0, {r1, r4, r9, sl}^
     568:	01194297 			; <UNDEFINED> instruction: 0x01194297
     56c:	11000013 	tstne	r0, r3, lsl r0
     570:	0e030005 	cdpeq	0, 0, cr0, cr3, cr5, {0}
     574:	0b3b0b3a 	bleq	ec3264 <__bss_end__+0xeb8c0c>
     578:	13490b39 	movtne	r0, #39737	; 0x9b39
     57c:	42b71702 	adcsmi	r1, r7, #524288	; 0x80000
     580:	12000017 	andne	r0, r0, #23, 0
     584:	08030005 	stmdaeq	r3, {r0, r2}
     588:	0b3b0b3a 	bleq	ec3278 <__bss_end__+0xeb8c20>
     58c:	13490b39 	movtne	r0, #39737	; 0x9b39
     590:	00001802 	andeq	r1, r0, r2, lsl #16
     594:	03003413 	movweq	r3, #1043	; 0x413
     598:	3b0b3a08 	blcc	2cedc0 <__bss_end__+0x2c4768>
     59c:	490b390b 	stmdbmi	fp, {r0, r1, r3, r8, fp, ip, sp}
     5a0:	b7170213 			; <UNDEFINED> instruction: 0xb7170213
     5a4:	00001742 	andeq	r1, r0, r2, asr #14
     5a8:	01828914 	orreq	r8, r2, r4, lsl r9
     5ac:	31011101 	tstcc	r1, r1, lsl #2
     5b0:	00130113 	andseq	r0, r3, r3, lsl r1
     5b4:	828a1500 	addhi	r1, sl, #0, 10
     5b8:	18020001 	stmdane	r2, {r0}
     5bc:	00184291 	mulseq	r8, r1, r2
     5c0:	82891600 	addhi	r1, r9, #0, 12
     5c4:	01110101 	tsteq	r1, r1, lsl #2
     5c8:	00001331 	andeq	r1, r0, r1, lsr r3
     5cc:	0b000f17 	bleq	4230 <__code_start__-0x3dd0>
     5d0:	1800000b 	stmdane	r0, {r0, r1, r3}
     5d4:	193f012e 	ldmdbne	pc!, {r1, r2, r3, r5, r8}	; <UNPREDICTABLE>
     5d8:	0b3a0e03 	bleq	e83dec <__bss_end__+0xe79794>
     5dc:	0b390b3b 	bleq	e432d0 <__bss_end__+0xe38c78>
     5e0:	01111927 	tsteq	r1, r7, lsr #18
     5e4:	18400612 	stmdane	r0, {r1, r4, r9, sl}^
     5e8:	01194297 			; <UNDEFINED> instruction: 0x01194297
     5ec:	19000013 	stmdbne	r0, {r0, r1, r4}
     5f0:	0e030034 	mcreq	0, 0, r0, cr3, cr4, {1}
     5f4:	19341349 	ldmdbne	r4!, {r0, r3, r6, r8, r9, ip}
     5f8:	00001802 	andeq	r1, r0, r2, lsl #16
     5fc:	0182891a 	orreq	r8, r2, sl, lsl r9
     600:	31011100 	mrscc	r1, (UNDEF: 17)
     604:	1b000013 	blne	658 <__code_start__-0x79a8>
     608:	13490101 	movtne	r0, #37121	; 0x9101
     60c:	00001301 	andeq	r1, r0, r1, lsl #6
     610:	4900211c 	stmdbmi	r0, {r2, r3, r4, r8, sp}
     614:	000b2f13 	andeq	r2, fp, r3, lsl pc
     618:	012e1d00 			; <UNDEFINED> instruction: 0x012e1d00
     61c:	0b3a0e03 	bleq	e83e30 <__bss_end__+0xe797d8>
     620:	0b390b3b 	bleq	e43314 <__bss_end__+0xe38cbc>
     624:	01111927 	tsteq	r1, r7, lsr #18
     628:	18400612 	stmdane	r0, {r1, r4, r9, sl}^
     62c:	01194297 			; <UNDEFINED> instruction: 0x01194297
     630:	1e000013 	mcrne	0, 0, r0, cr0, cr3, {0}
     634:	08030005 	stmdaeq	r3, {r0, r2}
     638:	0b3b0b3a 	bleq	ec3328 <__bss_end__+0xeb8cd0>
     63c:	13490b39 	movtne	r0, #39737	; 0x9b39
     640:	42b71702 	adcsmi	r1, r7, #524288	; 0x80000
     644:	1f000017 	svcne	0x00000017
     648:	0e030034 	mcreq	0, 0, r0, cr3, cr4, {1}
     64c:	0b3b0b3a 	bleq	ec333c <__bss_end__+0xeb8ce4>
     650:	13490b39 	movtne	r0, #39737	; 0x9b39
     654:	42b71702 	adcsmi	r1, r7, #524288	; 0x80000
     658:	20000017 	andcs	r0, r0, r7, lsl r0
     65c:	0111010b 	tsteq	r1, fp, lsl #2
     660:	00000612 	andeq	r0, r0, r2, lsl r6
     664:	31011d21 	tstcc	r1, r1, lsr #26
     668:	b8015213 	stmdalt	r1, {r0, r1, r4, r9, ip, lr}
     66c:	01110b42 	tsteq	r1, r2, asr #22
     670:	0b580612 	bleq	1601ec0 <__bss_end__+0x15f7868>
     674:	0b570b59 	bleq	15c33e0 <__bss_end__+0x15b8d88>
     678:	00001301 	andeq	r1, r0, r1, lsl #6
     67c:	31000522 	tstcc	r0, r2, lsr #10
     680:	b7170213 			; <UNDEFINED> instruction: 0xb7170213
     684:	00001742 	andeq	r1, r0, r2, asr #14
     688:	3f002e23 	svccc	0x00002e23
     68c:	3a0e0319 	bcc	3812f8 <__bss_end__+0x376ca0>
     690:	390b3b0b 	stmdbcc	fp, {r0, r1, r3, r8, r9, fp, ip, sp}
     694:	4919270b 	ldmdbmi	r9, {r0, r1, r3, r8, r9, sl, sp}
     698:	12011113 	andne	r1, r1, #-1073741820	; 0xc0000004
     69c:	97184006 	ldrls	r4, [r8, -r6]
     6a0:	00001942 	andeq	r1, r0, r2, asr #18
     6a4:	03012e24 	movweq	r2, #7716	; 0x1e24
     6a8:	3b0b3a0e 	blcc	2ceee8 <__bss_end__+0x2c4890>
     6ac:	270b390b 	strcs	r3, [fp, -fp, lsl #18]
     6b0:	20134919 	andscs	r4, r3, r9, lsl r9
     6b4:	0013010b 	andseq	r0, r3, fp, lsl #2
     6b8:	00052500 	andeq	r2, r5, r0, lsl #10
     6bc:	0b3a0803 	bleq	e826d0 <__bss_end__+0xe78078>
     6c0:	0b390b3b 	bleq	e433b4 <__bss_end__+0xe38d5c>
     6c4:	00001349 	andeq	r1, r0, r9, asr #6
     6c8:	3f002e26 	svccc	0x00002e26
     6cc:	6e193c19 	mrcvs	12, 0, r3, cr9, cr9, {0}
     6d0:	3a0e030e 	bcc	381310 <__bss_end__+0x376cb8>
     6d4:	390b3b0b 	stmdbcc	fp, {r0, r1, r3, r8, r9, fp, ip, sp}
     6d8:	0000000b 	andeq	r0, r0, fp
     6dc:	25011101 	strcs	r1, [r1, #-257]	; 0xfffffeff
     6e0:	030b130e 	movweq	r1, #45838	; 0xb30e
     6e4:	110e1b0e 	tstne	lr, lr, lsl #22
     6e8:	10061201 	andne	r1, r6, r1, lsl #4
     6ec:	02000017 	andeq	r0, r0, #23, 0
     6f0:	0b0b0024 	bleq	2c0788 <__bss_end__+0x2b6130>
     6f4:	08030b3e 	stmdaeq	r3, {r1, r2, r3, r4, r5, r8, r9, fp}
     6f8:	16030000 	strne	r0, [r3], -r0
     6fc:	3a0e0300 	bcc	381304 <__bss_end__+0x376cac>
     700:	390b3b0b 	stmdbcc	fp, {r0, r1, r3, r8, r9, fp, ip, sp}
     704:	0013490b 	andseq	r4, r3, fp, lsl #18
     708:	00240400 	eoreq	r0, r4, r0, lsl #8
     70c:	0b3e0b0b 	bleq	f83340 <__bss_end__+0xf78ce8>
     710:	00000e03 	andeq	r0, r0, r3, lsl #28
     714:	27011505 	strcs	r1, [r1, -r5, lsl #10]
     718:	01134919 	tsteq	r3, r9, lsl r9
     71c:	06000013 			; <UNDEFINED> instruction: 0x06000013
     720:	13490005 	movtne	r0, #36869	; 0x9005
     724:	34070000 	strcc	r0, [r7], #-0
     728:	3a0e0300 	bcc	381330 <__bss_end__+0x376cd8>
     72c:	390b3b0b 	stmdbcc	fp, {r0, r1, r3, r8, r9, fp, ip, sp}
     730:	3f13490b 	svccc	0x0013490b
     734:	00193c19 	andseq	r3, r9, r9, lsl ip
     738:	000f0800 	andeq	r0, pc, r0, lsl #16
     73c:	13490b0b 	movtne	r0, #39691	; 0x9b0b
     740:	26090000 	strcs	r0, [r9], -r0
     744:	00134900 	andseq	r4, r3, r0, lsl #18
     748:	012e0a00 			; <UNDEFINED> instruction: 0x012e0a00
     74c:	0e03193f 			; <UNDEFINED> instruction: 0x0e03193f
     750:	0b3b0b3a 	bleq	ec3440 <__bss_end__+0xeb8de8>
     754:	19270b39 	stmdbne	r7!, {r0, r3, r4, r5, r8, r9, fp}
     758:	01111349 	tsteq	r1, r9, asr #6
     75c:	18400612 	stmdane	r0, {r1, r4, r9, sl}^
     760:	01194297 			; <UNDEFINED> instruction: 0x01194297
     764:	0b000013 	bleq	7b8 <__code_start__-0x7848>
     768:	08030005 	stmdaeq	r3, {r0, r2}
     76c:	0b3b0b3a 	bleq	ec345c <__bss_end__+0xeb8e04>
     770:	13490b39 	movtne	r0, #39737	; 0x9b39
     774:	00001802 	andeq	r1, r0, r2, lsl #16
     778:	0300050c 	movweq	r0, #1292	; 0x50c
     77c:	3b0b3a08 	blcc	2cefa4 <__bss_end__+0x2c494c>
     780:	490b390b 	stmdbmi	fp, {r0, r1, r3, r8, fp, ip, sp}
     784:	b7170213 			; <UNDEFINED> instruction: 0xb7170213
     788:	00001742 	andeq	r1, r0, r2, asr #14
     78c:	0300340d 	movweq	r3, #1037	; 0x40d
     790:	3b0b3a08 	blcc	2cefb8 <__bss_end__+0x2c4960>
     794:	490b390b 	stmdbmi	fp, {r0, r1, r3, r8, fp, ip, sp}
     798:	b7170213 			; <UNDEFINED> instruction: 0xb7170213
     79c:	00001742 	andeq	r1, r0, r2, asr #14
     7a0:	0b000f0e 	bleq	43e0 <__code_start__-0x3c20>
     7a4:	0000000b 	andeq	r0, r0, fp
     7a8:	25011101 	strcs	r1, [r1, #-257]	; 0xfffffeff
     7ac:	030b130e 	movweq	r1, #45838	; 0xb30e
     7b0:	110e1b0e 	tstne	lr, lr, lsl #22
     7b4:	10061201 	andne	r1, r6, r1, lsl #4
     7b8:	02000017 	andeq	r0, r0, #23, 0
     7bc:	0e030016 	mcreq	0, 0, r0, cr3, cr6, {0}
     7c0:	0b3b0b3a 	bleq	ec34b0 <__bss_end__+0xeb8e58>
     7c4:	13490b39 	movtne	r0, #39737	; 0x9b39
     7c8:	13030000 	movwne	r0, #12288	; 0x3000
     7cc:	0b0e0301 	bleq	3813d8 <__bss_end__+0x376d80>
     7d0:	3b0b3a0b 	blcc	2cf004 <__bss_end__+0x2c49ac>
     7d4:	0013010b 	andseq	r0, r3, fp, lsl #2
     7d8:	000d0400 	andeq	r0, sp, r0, lsl #8
     7dc:	13490e03 	movtne	r0, #40451	; 0x9e03
     7e0:	19340b38 	ldmdbne	r4!, {r3, r4, r5, r8, r9, fp}
     7e4:	0f050000 	svceq	0x00050000
     7e8:	000b0b00 	andeq	r0, fp, r0, lsl #22
     7ec:	00240600 	eoreq	r0, r4, r0, lsl #12
     7f0:	0b3e0b0b 	bleq	f83424 <__bss_end__+0xf78dcc>
     7f4:	00000803 	andeq	r0, r0, r3, lsl #16
     7f8:	0b002407 	bleq	981c <kmalloc_notzero+0x20>
     7fc:	030b3e0b 	movweq	r3, #48651	; 0xbe0b
     800:	0800000e 	stmdaeq	r0, {r1, r2, r3}
     804:	19270115 	stmdbne	r7!, {r0, r2, r4, r8}
     808:	13011349 	movwne	r1, #4937	; 0x1349
     80c:	05090000 	streq	r0, [r9, #-0]
     810:	00134900 	andseq	r4, r3, r0, lsl #18
     814:	00340a00 	eorseq	r0, r4, r0, lsl #20
     818:	0b3a0e03 	bleq	e8402c <__bss_end__+0xe799d4>
     81c:	0b390b3b 	bleq	e43510 <__bss_end__+0xe38eb8>
     820:	193f1349 	ldmdbne	pc!, {r0, r3, r6, r8, r9, ip}	; <UNPREDICTABLE>
     824:	0000193c 	andeq	r1, r0, ip, lsr r9
     828:	0b000f0b 	bleq	445c <__code_start__-0x3ba4>
     82c:	0013490b 	andseq	r4, r3, fp, lsl #18
     830:	00260c00 	eoreq	r0, r6, r0, lsl #24
     834:	00001349 	andeq	r1, r0, r9, asr #6
     838:	3f012e0d 	svccc	0x00012e0d
     83c:	3a0e0319 	bcc	3814a8 <__bss_end__+0x376e50>
     840:	390b3b0b 	stmdbcc	fp, {r0, r1, r3, r8, r9, fp, ip, sp}
     844:	4919270b 	ldmdbmi	r9, {r0, r1, r3, r8, r9, sl, sp}
     848:	12011113 	andne	r1, r1, #-1073741820	; 0xc0000004
     84c:	97184006 	ldrls	r4, [r8, -r6]
     850:	13011942 	movwne	r1, #6466	; 0x1942
     854:	050e0000 	streq	r0, [lr, #-0]
     858:	3a080300 	bcc	201460 <__bss_end__+0x1f6e08>
     85c:	390b3b0b 	stmdbcc	fp, {r0, r1, r3, r8, r9, fp, ip, sp}
     860:	0213490b 	andseq	r4, r3, #180224	; 0x2c000
     864:	0f000018 	svceq	0x00000018
     868:	00000018 	andeq	r0, r0, r8, lsl r0
     86c:	03003410 	movweq	r3, #1040	; 0x410
     870:	3b0b3a08 	blcc	2cf098 <__bss_end__+0x2c4a40>
     874:	490b390b 	stmdbmi	fp, {r0, r1, r3, r8, fp, ip, sp}
     878:	00180213 	andseq	r0, r8, r3, lsl r2
     87c:	00341100 	eorseq	r1, r4, r0, lsl #2
     880:	0b3a0e03 	bleq	e84094 <__bss_end__+0xe79a3c>
     884:	0b390b3b 	bleq	e43578 <__bss_end__+0xe38f20>
     888:	18021349 	stmdane	r2, {r0, r3, r6, r8, r9, ip}
     88c:	34120000 	ldrcc	r0, [r2], #-0
     890:	3a080300 	bcc	201498 <__bss_end__+0x1f6e40>
     894:	390b3b0b 	stmdbcc	fp, {r0, r1, r3, r8, r9, fp, ip, sp}
     898:	0213490b 	andseq	r4, r3, #180224	; 0x2c000
     89c:	1742b717 	smlaldne	fp, r2, r7, r7
     8a0:	89130000 	ldmdbhi	r3, {}	; <UNPREDICTABLE>
     8a4:	11010182 	smlabbne	r1, r2, r1, r0
     8a8:	01133101 	tsteq	r3, r1, lsl #2
     8ac:	14000013 	strne	r0, [r0], #-19	; 0xffffffed
     8b0:	0001828a 	andeq	r8, r1, sl, lsl #5
     8b4:	42911802 	addsmi	r1, r1, #131072	; 0x20000
     8b8:	15000018 	strne	r0, [r0, #-24]	; 0xffffffe8
     8bc:	01018289 	smlabbeq	r1, r9, r2, r8
     8c0:	00000111 	andeq	r0, r0, r1, lsl r1
     8c4:	49010116 	stmdbmi	r1, {r1, r2, r4, r8}
     8c8:	00130113 	andseq	r0, r3, r3, lsl r1
     8cc:	00211700 	eoreq	r1, r1, r0, lsl #14
     8d0:	052f1349 	streq	r1, [pc, #-841]!	; 58f <__code_start__-0x7a71>
     8d4:	2e180000 	cdpcs	0, 1, cr0, cr8, cr0, {0}
     8d8:	3c193f00 	ldccc	15, cr3, [r9], {-0}
     8dc:	030e6e19 	movweq	r6, #60953	; 0xee19
     8e0:	3b0b3a0e 	blcc	2cf120 <__bss_end__+0x2c4ac8>
     8e4:	000b390b 	andeq	r3, fp, fp, lsl #18
     8e8:	11010000 	mrsne	r0, (UNDEF: 1)
     8ec:	130e2501 	movwne	r2, #58625	; 0xe501
     8f0:	1b0e030b 	blne	381524 <__bss_end__+0x376ecc>
     8f4:	1201110e 	andne	r1, r1, #-2147483645	; 0x80000003
     8f8:	00171006 	andseq	r1, r7, r6
     8fc:	00240200 	eoreq	r0, r4, r0, lsl #4
     900:	0b3e0b0b 	bleq	f83534 <__bss_end__+0xf78edc>
     904:	00000803 	andeq	r0, r0, r3, lsl #16
     908:	0b002403 	bleq	991c <kmalloc_aligned+0x24>
     90c:	030b3e0b 	movweq	r3, #48651	; 0xbe0b
     910:	0400000e 	streq	r0, [r0], #-14
     914:	19270115 	stmdbne	r7!, {r0, r2, r4, r8}
     918:	13011349 	movwne	r1, #4937	; 0x1349
     91c:	05050000 	streq	r0, [r5, #-0]
     920:	00134900 	andseq	r4, r3, r0, lsl #18
     924:	00340600 	eorseq	r0, r4, r0, lsl #12
     928:	0b3a0e03 	bleq	e8413c <__bss_end__+0xe79ae4>
     92c:	0b390b3b 	bleq	e43620 <__bss_end__+0xe38fc8>
     930:	193f1349 	ldmdbne	pc!, {r0, r3, r6, r8, r9, ip}	; <UNPREDICTABLE>
     934:	0000193c 	andeq	r1, r0, ip, lsr r9
     938:	0b000f07 	bleq	455c <__code_start__-0x3aa4>
     93c:	0013490b 	andseq	r4, r3, fp, lsl #18
     940:	00260800 	eoreq	r0, r6, r0, lsl #16
     944:	00001349 	andeq	r1, r0, r9, asr #6
     948:	47003409 	strmi	r3, [r0, -r9, lsl #8]
     94c:	3b0b3a13 	blcc	2cf1a0 <__bss_end__+0x2c4b48>
     950:	020b390b 	andeq	r3, fp, #180224	; 0x2c000
     954:	0a000018 	beq	9bc <__code_start__-0x7644>
     958:	193f012e 	ldmdbne	pc!, {r1, r2, r3, r5, r8}	; <UNPREDICTABLE>
     95c:	0b3a0e03 	bleq	e84170 <__bss_end__+0xe79b18>
     960:	0b390b3b 	bleq	e43654 <__bss_end__+0xe38ffc>
     964:	01111927 	tsteq	r1, r7, lsr #18
     968:	18400612 	stmdane	r0, {r1, r4, r9, sl}^
     96c:	01194297 			; <UNDEFINED> instruction: 0x01194297
     970:	0b000013 	bleq	9c4 <__code_start__-0x763c>
     974:	08030005 	stmdaeq	r3, {r0, r2}
     978:	0b3b0b3a 	bleq	ec3668 <__bss_end__+0xeb9010>
     97c:	13490b39 	movtne	r0, #39737	; 0x9b39
     980:	00001802 	andeq	r1, r0, r2, lsl #16
     984:	3f002e0c 	svccc	0x00002e0c
     988:	3a0e0319 	bcc	3815f4 <__bss_end__+0x376f9c>
     98c:	390b3b0b 	stmdbcc	fp, {r0, r1, r3, r8, r9, fp, ip, sp}
     990:	1119270b 	tstne	r9, fp, lsl #14
     994:	40061201 	andmi	r1, r6, r1, lsl #4
     998:	19429718 	stmdbne	r2, {r3, r4, r8, r9, sl, ip, pc}^
     99c:	2e0d0000 	cdpcs	0, 0, cr0, cr13, cr0, {0}
     9a0:	3a0e0301 	bcc	3815ac <__bss_end__+0x376f54>
     9a4:	390b3b0b 	stmdbcc	fp, {r0, r1, r3, r8, r9, fp, ip, sp}
     9a8:	4919270b 	ldmdbmi	r9, {r0, r1, r3, r8, r9, sl, sp}
     9ac:	12011113 	andne	r1, r1, #-1073741820	; 0xc0000004
     9b0:	97184006 	ldrls	r4, [r8, -r6]
     9b4:	13011942 	movwne	r1, #6466	; 0x1942
     9b8:	050e0000 	streq	r0, [lr, #-0]
     9bc:	3a080300 	bcc	2015c4 <__bss_end__+0x1f6f6c>
     9c0:	390b3b0b 	stmdbcc	fp, {r0, r1, r3, r8, r9, fp, ip, sp}
     9c4:	0213490b 	andseq	r4, r3, #180224	; 0x2c000
     9c8:	1742b717 	smlaldne	fp, r2, r7, r7
     9cc:	890f0000 	stmdbhi	pc, {}	; <UNPREDICTABLE>
     9d0:	11010182 	smlabbne	r1, r2, r1, r0
     9d4:	00133101 	andseq	r3, r3, r1, lsl #2
     9d8:	828a1000 	addhi	r1, sl, #0, 0
     9dc:	18020001 	stmdane	r2, {r0}
     9e0:	00184291 	mulseq	r8, r1, r2
     9e4:	002e1100 	eoreq	r1, lr, r0, lsl #2
     9e8:	193c193f 	ldmdbne	ip!, {r0, r1, r2, r3, r4, r5, r8, fp, ip}
     9ec:	0e030e6e 	cdpeq	14, 0, cr0, cr3, cr14, {3}
     9f0:	0b3b0b3a 	bleq	ec36e0 <__bss_end__+0xeb9088>
     9f4:	00000b39 	andeq	r0, r0, r9, lsr fp
     9f8:	01110100 	tsteq	r1, r0, lsl #2
     9fc:	0b130e25 	bleq	4c4298 <__bss_end__+0x4b9c40>
     a00:	0e1b0e03 	cdpeq	14, 1, cr0, cr11, cr3, {0}
     a04:	06120111 			; <UNDEFINED> instruction: 0x06120111
     a08:	00001710 	andeq	r1, r0, r0, lsl r7
     a0c:	0b002402 	bleq	9a1c <kfree_all+0x8>
     a10:	030b3e0b 	movweq	r3, #48651	; 0xbe0b
     a14:	03000008 	movweq	r0, #8
     a18:	0b0b0024 	bleq	2c0ab0 <__bss_end__+0x2b6458>
     a1c:	0e030b3e 	vmoveq.16	d3[0], r0
     a20:	15040000 	strne	r0, [r4, #-0]
     a24:	49192701 	ldmdbmi	r9, {r0, r8, r9, sl, sp}
     a28:	00130113 	andseq	r0, r3, r3, lsl r1
     a2c:	00050500 	andeq	r0, r5, r0, lsl #10
     a30:	00001349 	andeq	r1, r0, r9, asr #6
     a34:	03003406 	movweq	r3, #1030	; 0x406
     a38:	3b0b3a0e 	blcc	2cf278 <__bss_end__+0x2c4c20>
     a3c:	490b390b 	stmdbmi	fp, {r0, r1, r3, r8, fp, ip, sp}
     a40:	3c193f13 	ldccc	15, cr3, [r9], {19}
     a44:	07000019 	smladeq	r0, r9, r0, r0
     a48:	0b0b000f 	bleq	2c0a8c <__bss_end__+0x2b6434>
     a4c:	00001349 	andeq	r1, r0, r9, asr #6
     a50:	49002608 	stmdbmi	r0, {r3, r9, sl, sp}
     a54:	09000013 	stmdbeq	r0, {r0, r1, r4}
     a58:	13470034 	movtne	r0, #28724	; 0x7034
     a5c:	0b3b0b3a 	bleq	ec374c <__bss_end__+0xeb90f4>
     a60:	18020b39 	stmdane	r2, {r0, r3, r4, r5, r8, r9, fp}
     a64:	2e0a0000 	cdpcs	0, 0, cr0, cr10, cr0, {0}
     a68:	03193f01 	tsteq	r9, #1, 30
     a6c:	3b0b3a0e 	blcc	2cf2ac <__bss_end__+0x2c4c54>
     a70:	270b390b 	strcs	r3, [fp, -fp, lsl #18]
     a74:	11134919 	tstne	r3, r9, lsl r9
     a78:	40061201 	andmi	r1, r6, r1, lsl #4
     a7c:	19429618 	stmdbne	r2, {r3, r4, r9, sl, ip, pc}^
     a80:	050b0000 	streq	r0, [fp, #-0]
     a84:	3a080300 	bcc	20168c <__bss_end__+0x1f7034>
     a88:	390b3b0b 	stmdbcc	fp, {r0, r1, r3, r8, r9, fp, ip, sp}
     a8c:	0213490b 	andseq	r4, r3, #180224	; 0x2c000
     a90:	1742b717 	smlaldne	fp, r2, r7, r7
     a94:	01000000 	mrseq	r0, (UNDEF: 0)
     a98:	0e250111 	mcreq	1, 1, r0, cr5, cr1, {0}
     a9c:	0e030b13 	vmoveq.32	d3[0], r0
     aa0:	01110e1b 	tsteq	r1, fp, lsl lr
     aa4:	17100612 			; <UNDEFINED> instruction: 0x17100612
     aa8:	24020000 	strcs	r0, [r2], #-0
     aac:	3e0b0b00 	vmlacc.f64	d0, d11, d0
     ab0:	000e030b 	andeq	r0, lr, fp, lsl #6
     ab4:	00240300 	eoreq	r0, r4, r0, lsl #6
     ab8:	0b3e0b0b 	bleq	f836ec <__bss_end__+0xf79094>
     abc:	00000803 	andeq	r0, r0, r3, lsl #16
     ac0:	03001604 	movweq	r1, #1540	; 0x604
     ac4:	3b0b3a0e 	blcc	2cf304 <__bss_end__+0x2c4cac>
     ac8:	490b390b 	stmdbmi	fp, {r0, r1, r3, r8, fp, ip, sp}
     acc:	05000013 	streq	r0, [r0, #-19]	; 0xffffffed
     ad0:	19270115 	stmdbne	r7!, {r0, r2, r4, r8}
     ad4:	13011349 	movwne	r1, #4937	; 0x1349
     ad8:	05060000 	streq	r0, [r6, #-0]
     adc:	00134900 	andseq	r4, r3, r0, lsl #18
     ae0:	00340700 	eorseq	r0, r4, r0, lsl #14
     ae4:	0b3a0e03 	bleq	e842f8 <__bss_end__+0xe79ca0>
     ae8:	0b390b3b 	bleq	e437dc <__bss_end__+0xe39184>
     aec:	193f1349 	ldmdbne	pc!, {r0, r3, r6, r8, r9, ip}	; <UNPREDICTABLE>
     af0:	0000193c 	andeq	r1, r0, ip, lsr r9
     af4:	0b000f08 	bleq	471c <__code_start__-0x38e4>
     af8:	0013490b 	andseq	r4, r3, fp, lsl #18
     afc:	00260900 	eoreq	r0, r6, r0, lsl #18
     b00:	00001349 	andeq	r1, r0, r9, asr #6
     b04:	0301130a 	movweq	r1, #4874	; 0x130a
     b08:	3a0b0b0e 	bcc	2c3748 <__bss_end__+0x2b90f0>
     b0c:	010b3b0b 	tsteq	fp, fp, lsl #22
     b10:	0b000013 	bleq	b64 <__code_start__-0x749c>
     b14:	0e03000d 	cdpeq	0, 0, cr0, cr3, cr13, {0}
     b18:	0b381349 	bleq	e05844 <__bss_end__+0xdfb1ec>
     b1c:	00001934 	andeq	r1, r0, r4, lsr r9
     b20:	0b000f0c 	bleq	4758 <__code_start__-0x38a8>
     b24:	0d00000b 	stceq	0, cr0, [r0, #-44]	; 0xffffffd4
     b28:	193f012e 	ldmdbne	pc!, {r1, r2, r3, r5, r8}	; <UNPREDICTABLE>
     b2c:	0b3a0e03 	bleq	e84340 <__bss_end__+0xe79ce8>
     b30:	0b390b3b 	bleq	e43824 <__bss_end__+0xe391cc>
     b34:	13491927 	movtne	r1, #39207	; 0x9927
     b38:	06120111 			; <UNDEFINED> instruction: 0x06120111
     b3c:	42971840 	addsmi	r1, r7, #64, 16	; 0x400000
     b40:	00130119 	andseq	r0, r3, r9, lsl r1
     b44:	00050e00 	andeq	r0, r5, r0, lsl #28
     b48:	0b3a0803 	bleq	e82b5c <__bss_end__+0xe78504>
     b4c:	0b390b3b 	bleq	e43840 <__bss_end__+0xe391e8>
     b50:	17021349 	strne	r1, [r2, -r9, asr #6]
     b54:	001742b7 			; <UNDEFINED> instruction: 0x001742b7
     b58:	00050f00 	andeq	r0, r5, r0, lsl #30
     b5c:	0b3a0e03 	bleq	e84370 <__bss_end__+0xe79d18>
     b60:	0b390b3b 	bleq	e43854 <__bss_end__+0xe391fc>
     b64:	17021349 	strne	r1, [r2, -r9, asr #6]
     b68:	001742b7 			; <UNDEFINED> instruction: 0x001742b7
     b6c:	00341000 	eorseq	r1, r4, r0
     b70:	0b3a0803 	bleq	e82b84 <__bss_end__+0xe7852c>
     b74:	0b390b3b 	bleq	e43868 <__bss_end__+0xe39210>
     b78:	17021349 	strne	r1, [r2, -r9, asr #6]
     b7c:	001742b7 			; <UNDEFINED> instruction: 0x001742b7
     b80:	00341100 	eorseq	r1, r4, r0, lsl #2
     b84:	0b3a0e03 	bleq	e84398 <__bss_end__+0xe79d40>
     b88:	0b390b3b 	bleq	e4387c <__bss_end__+0xe39224>
     b8c:	17021349 	strne	r1, [r2, -r9, asr #6]
     b90:	001742b7 			; <UNDEFINED> instruction: 0x001742b7
     b94:	00341200 	eorseq	r1, r4, r0, lsl #4
     b98:	13490e03 	movtne	r0, #40451	; 0x9e03
     b9c:	18021934 	stmdane	r2, {r2, r4, r5, r8, fp, ip}
     ba0:	0b130000 	bleq	4c0ba8 <__bss_end__+0x4b6550>
     ba4:	00175501 	andseq	r5, r7, r1, lsl #10
     ba8:	00341400 	eorseq	r1, r4, r0, lsl #8
     bac:	0b3a0803 	bleq	e82bc0 <__bss_end__+0xe78568>
     bb0:	0b390b3b 	bleq	e438a4 <__bss_end__+0xe3924c>
     bb4:	18021349 	stmdane	r2, {r0, r3, r6, r8, r9, ip}
     bb8:	34150000 	ldrcc	r0, [r5], #-0
     bbc:	3a0e0300 	bcc	3817c4 <__bss_end__+0x37716c>
     bc0:	390b3b0b 	stmdbcc	fp, {r0, r1, r3, r8, r9, fp, ip, sp}
     bc4:	0213490b 	andseq	r4, r3, #180224	; 0x2c000
     bc8:	16000018 			; <UNDEFINED> instruction: 0x16000018
     bcc:	1755010b 	ldrbne	r0, [r5, -fp, lsl #2]
     bd0:	00001301 	andeq	r1, r0, r1, lsl #6
     bd4:	01828917 	orreq	r8, r2, r7, lsl r9
     bd8:	31011101 	tstcc	r1, r1, lsl #2
     bdc:	00130113 	andseq	r0, r3, r3, lsl r1
     be0:	828a1800 	addhi	r1, sl, #0, 16
     be4:	18020001 	stmdane	r2, {r0}
     be8:	00184291 	mulseq	r8, r1, r2
     bec:	82891900 	addhi	r1, r9, #0, 18
     bf0:	01110001 	tsteq	r1, r1
     bf4:	00001331 	andeq	r1, r0, r1, lsr r3
     bf8:	31011d1a 	tstcc	r1, sl, lsl sp
     bfc:	b8015213 	stmdalt	r1, {r0, r1, r4, r9, ip, lr}
     c00:	17550542 	ldrbne	r0, [r5, -r2, asr #10]
     c04:	0b590b58 	bleq	164396c <__bss_end__+0x1639314>
     c08:	13010b57 	movwne	r0, #6999	; 0x1b57
     c0c:	051b0000 	ldreq	r0, [fp, #-0]
     c10:	02133100 	andseq	r3, r3, #0
     c14:	1742b717 	smlaldne	fp, r2, r7, r7
     c18:	051c0000 	ldreq	r0, [ip, #-0]
     c1c:	00133100 	andseq	r3, r3, r0, lsl #2
     c20:	00341d00 	eorseq	r1, r4, r0, lsl #26
     c24:	18021331 	stmdane	r2, {r0, r4, r5, r8, r9, ip}
     c28:	341e0000 	ldrcc	r0, [lr], #-0
     c2c:	02133100 	andseq	r3, r3, #0
     c30:	1742b717 	smlaldne	fp, r2, r7, r7
     c34:	341f0000 	ldrcc	r0, [pc], #-0	; c3c <__code_start__-0x73c4>
     c38:	00133100 	andseq	r3, r3, r0, lsl #2
     c3c:	011d2000 	tsteq	sp, r0
     c40:	01521331 	cmpeq	r2, r1, lsr r3
     c44:	550542b8 	strpl	r4, [r5, #-696]	; 0xfffffd48
     c48:	590b5817 	stmdbpl	fp, {r0, r1, r2, r4, fp, ip, lr}
     c4c:	000b570b 	andeq	r5, fp, fp, lsl #14
     c50:	82892100 	addhi	r2, r9, #0
     c54:	01110101 	tsteq	r1, r1, lsl #2
     c58:	00001301 	andeq	r1, r0, r1, lsl #6
     c5c:	49010122 	stmdbmi	r1, {r1, r5, r8}
     c60:	00130113 	andseq	r0, r3, r3, lsl r1
     c64:	00212300 	eoreq	r2, r1, r0, lsl #6
     c68:	0b2f1349 	bleq	bc5994 <__bss_end__+0xbbb33c>
     c6c:	2e240000 	cdpcs	0, 2, cr0, cr4, cr0, {0}
     c70:	3a0e0301 	bcc	38187c <__bss_end__+0x377224>
     c74:	390b3b0b 	stmdbcc	fp, {r0, r1, r3, r8, r9, fp, ip, sp}
     c78:	4919270b 	ldmdbmi	r9, {r0, r1, r3, r8, r9, sl, sp}
     c7c:	010b2013 	tsteq	fp, r3, lsl r0
     c80:	25000013 	strcs	r0, [r0, #-19]	; 0xffffffed
     c84:	0e030005 	cdpeq	0, 0, cr0, cr3, cr5, {0}
     c88:	0b3b0b3a 	bleq	ec3978 <__bss_end__+0xeb9320>
     c8c:	13490b39 	movtne	r0, #39737	; 0x9b39
     c90:	05260000 	streq	r0, [r6, #-0]!
     c94:	3a080300 	bcc	20189c <__bss_end__+0x1f7244>
     c98:	390b3b0b 	stmdbcc	fp, {r0, r1, r3, r8, r9, fp, ip, sp}
     c9c:	0013490b 	andseq	r4, r3, fp, lsl #18
     ca0:	00342700 	eorseq	r2, r4, r0, lsl #14
     ca4:	0b3a0803 	bleq	e82cb8 <__bss_end__+0xe78660>
     ca8:	0b390b3b 	bleq	e4399c <__bss_end__+0xe39344>
     cac:	00001349 	andeq	r1, r0, r9, asr #6
     cb0:	00010b28 	andeq	r0, r1, r8, lsr #22
     cb4:	00342900 	eorseq	r2, r4, r0, lsl #18
     cb8:	0b3a0e03 	bleq	e844cc <__bss_end__+0xe79e74>
     cbc:	0b390b3b 	bleq	e439b0 <__bss_end__+0xe39358>
     cc0:	00001349 	andeq	r1, r0, r9, asr #6
     cc4:	03012e2a 	movweq	r2, #7722	; 0x1e2a
     cc8:	3b0b3a08 	blcc	2cf4f0 <__bss_end__+0x2c4e98>
     ccc:	270b390b 	strcs	r3, [fp, -fp, lsl #18]
     cd0:	20134919 	andscs	r4, r3, r9, lsl r9
     cd4:	0013010b 	andseq	r0, r3, fp, lsl #2
     cd8:	012e2b00 			; <UNDEFINED> instruction: 0x012e2b00
     cdc:	0e03193f 			; <UNDEFINED> instruction: 0x0e03193f
     ce0:	0b3b0b3a 	bleq	ec39d0 <__bss_end__+0xeb9378>
     ce4:	19270b39 	stmdbne	r7!, {r0, r3, r4, r5, r8, r9, fp}
     ce8:	06120111 			; <UNDEFINED> instruction: 0x06120111
     cec:	42971840 	addsmi	r1, r7, #64, 16	; 0x400000
     cf0:	00130119 	andseq	r0, r3, r9, lsl r1
     cf4:	012e2c00 			; <UNDEFINED> instruction: 0x012e2c00
     cf8:	01111331 	tsteq	r1, r1, lsr r3
     cfc:	18400612 	stmdane	r0, {r1, r4, r9, sl}^
     d00:	01194297 			; <UNDEFINED> instruction: 0x01194297
     d04:	2d000013 	stccs	0, cr0, [r0, #-76]	; 0xffffffb4
     d08:	13310005 	teqne	r1, #5, 0
     d0c:	00001802 	andeq	r1, r0, r2, lsl #16
     d10:	3100052e 	tstcc	r0, lr, lsr #10
     d14:	000b1c13 	andeq	r1, fp, r3, lsl ip
     d18:	010b2f00 	tsteq	fp, r0, lsl #30
     d1c:	01111331 	tsteq	r1, r1, lsr r3
     d20:	13010612 	movwne	r0, #5650	; 0x1612
     d24:	2e300000 	cdpcs	0, 3, cr0, cr0, cr0, {0}
     d28:	3c193f00 	ldccc	15, cr3, [r9], {-0}
     d2c:	030e6e19 	movweq	r6, #60953	; 0xee19
     d30:	3b0b3a0e 	blcc	2cf570 <__bss_end__+0x2c4f18>
     d34:	000b390b 	andeq	r3, fp, fp, lsl #18
     d38:	11010000 	mrsne	r0, (UNDEF: 1)
     d3c:	130e2501 	movwne	r2, #58625	; 0xe501
     d40:	1b0e030b 	blne	381974 <__bss_end__+0x37731c>
     d44:	1201110e 	andne	r1, r1, #-2147483645	; 0x80000003
     d48:	00171006 	andseq	r1, r7, r6
     d4c:	00240200 	eoreq	r0, r4, r0, lsl #4
     d50:	0b3e0b0b 	bleq	f83984 <__bss_end__+0xf7932c>
     d54:	00000803 	andeq	r0, r0, r3, lsl #16
     d58:	0b002403 	bleq	9d6c <__code_end__+0x78>
     d5c:	030b3e0b 	movweq	r3, #48651	; 0xbe0b
     d60:	0400000e 	streq	r0, [r0], #-14
     d64:	19270115 	stmdbne	r7!, {r0, r2, r4, r8}
     d68:	13011349 	movwne	r1, #4937	; 0x1349
     d6c:	05050000 	streq	r0, [r5, #-0]
     d70:	00134900 	andseq	r4, r3, r0, lsl #18
     d74:	00340600 	eorseq	r0, r4, r0, lsl #12
     d78:	0b3a0e03 	bleq	e8458c <__bss_end__+0xe79f34>
     d7c:	0b390b3b 	bleq	e43a70 <__bss_end__+0xe39418>
     d80:	193f1349 	ldmdbne	pc!, {r0, r3, r6, r8, r9, ip}	; <UNPREDICTABLE>
     d84:	0000193c 	andeq	r1, r0, ip, lsr r9
     d88:	0b000f07 	bleq	49ac <__code_start__-0x3654>
     d8c:	0013490b 	andseq	r4, r3, fp, lsl #18
     d90:	00260800 	eoreq	r0, r6, r0, lsl #16
     d94:	00001349 	andeq	r1, r0, r9, asr #6
     d98:	3f012e09 	svccc	0x00012e09
     d9c:	3a0e0319 	bcc	381a08 <__bss_end__+0x3773b0>
     da0:	390b3b0b 	stmdbcc	fp, {r0, r1, r3, r8, r9, fp, ip, sp}
     da4:	8719270b 	ldrhi	r2, [r9, -fp, lsl #14]
     da8:	01111901 	tsteq	r1, r1, lsl #18
     dac:	18400612 	stmdane	r0, {r1, r4, r9, sl}^
     db0:	01194297 			; <UNDEFINED> instruction: 0x01194297
     db4:	0a000013 	beq	e08 <__code_start__-0x71f8>
     db8:	01018289 	smlabbeq	r1, r9, r2, r8
     dbc:	13010111 	movwne	r0, #4369	; 0x1111
     dc0:	8a0b0000 	bhi	2c0dc8 <__bss_end__+0x2b6770>
     dc4:	02000182 	andeq	r0, r0, #-2147483616	; 0x80000020
     dc8:	18429118 	stmdane	r2, {r3, r4, r8, ip, pc}^
     dcc:	890c0000 	stmdbhi	ip, {}	; <UNPREDICTABLE>
     dd0:	11000182 	smlabbne	r0, r2, r1, r0
     dd4:	00133101 	andseq	r3, r3, r1, lsl #2
     dd8:	82890d00 	addhi	r0, r9, #0, 26
     ddc:	01110101 	tsteq	r1, r1, lsl #2
     de0:	13011331 	movwne	r1, #4913	; 0x1331
     de4:	2e0e0000 	cdpcs	0, 0, cr0, cr14, cr0, {0}
     de8:	3c193f00 	ldccc	15, cr3, [r9], {-0}
     dec:	030e6e19 	movweq	r6, #60953	; 0xee19
     df0:	3b0b3a0e 	blcc	2cf630 <__bss_end__+0x2c4fd8>
     df4:	000b390b 	andeq	r3, fp, fp, lsl #18
     df8:	11010000 	mrsne	r0, (UNDEF: 1)
     dfc:	130e2501 	movwne	r2, #58625	; 0xe501
     e00:	1b0e030b 	blne	381a34 <__bss_end__+0x3773dc>
     e04:	1201110e 	andne	r1, r1, #-2147483645	; 0x80000003
     e08:	00171006 	andseq	r1, r7, r6
     e0c:	00240200 	eoreq	r0, r4, r0, lsl #4
     e10:	0b3e0b0b 	bleq	f83a44 <__bss_end__+0xf793ec>
     e14:	00000803 	andeq	r0, r0, r3, lsl #16
     e18:	0b002403 	bleq	9e2c <__FUNCTION__.4016+0x5c>
     e1c:	030b3e0b 	movweq	r3, #48651	; 0xbe0b
     e20:	0400000e 	streq	r0, [r0], #-14
     e24:	19270115 	stmdbne	r7!, {r0, r2, r4, r8}
     e28:	13011349 	movwne	r1, #4937	; 0x1349
     e2c:	05050000 	streq	r0, [r5, #-0]
     e30:	00134900 	andseq	r4, r3, r0, lsl #18
     e34:	00340600 	eorseq	r0, r4, r0, lsl #12
     e38:	0b3a0e03 	bleq	e8464c <__bss_end__+0xe79ff4>
     e3c:	0b390b3b 	bleq	e43b30 <__bss_end__+0xe394d8>
     e40:	193f1349 	ldmdbne	pc!, {r0, r3, r6, r8, r9, ip}	; <UNPREDICTABLE>
     e44:	0000193c 	andeq	r1, r0, ip, lsr r9
     e48:	0b000f07 	bleq	4a6c <__code_start__-0x3594>
     e4c:	0013490b 	andseq	r4, r3, fp, lsl #18
     e50:	00260800 	eoreq	r0, r6, r0, lsl #16
     e54:	00001349 	andeq	r1, r0, r9, asr #6
     e58:	3f012e09 	svccc	0x00012e09
     e5c:	3a0e0319 	bcc	381ac8 <__bss_end__+0x377470>
     e60:	390b3b0b 	stmdbcc	fp, {r0, r1, r3, r8, r9, fp, ip, sp}
     e64:	1201110b 	andne	r1, r1, #-1073741822	; 0xc0000002
     e68:	97184006 	ldrls	r4, [r8, -r6]
     e6c:	13011942 	movwne	r1, #6466	; 0x1942
     e70:	2e0a0000 	cdpcs	0, 0, cr0, cr10, cr0, {0}
     e74:	03193f00 	tsteq	r9, #0, 30
     e78:	3b0b3a0e 	blcc	2cf6b8 <__bss_end__+0x2c5060>
     e7c:	270b390b 	strcs	r3, [fp, -fp, lsl #18]
     e80:	00193c19 	andseq	r3, r9, r9, lsl ip
     e84:	00340b00 	eorseq	r0, r4, r0, lsl #22
     e88:	0b3a0803 	bleq	e82e9c <__bss_end__+0xe78844>
     e8c:	0b390b3b 	bleq	e43b80 <__bss_end__+0xe39528>
     e90:	17021349 	strne	r1, [r2, -r9, asr #6]
     e94:	001742b7 			; <UNDEFINED> instruction: 0x001742b7
     e98:	00340c00 	eorseq	r0, r4, r0, lsl #24
     e9c:	0b3a0e03 	bleq	e846b0 <__bss_end__+0xe7a058>
     ea0:	0b390b3b 	bleq	e43b94 <__bss_end__+0xe3953c>
     ea4:	00001349 	andeq	r1, r0, r9, asr #6
     ea8:	11010b0d 	tstne	r1, sp, lsl #22
     eac:	01061201 	tsteq	r6, r1, lsl #4
     eb0:	0e000013 	mcreq	0, 0, r0, cr0, cr3, {0}
     eb4:	00018289 	andeq	r8, r1, r9, lsl #5
     eb8:	13310111 	teqne	r1, #1073741828	; 0x40000004
     ebc:	2e0f0000 	cdpcs	0, 0, cr0, cr15, cr0, {0}
     ec0:	3c193f00 	ldccc	15, cr3, [r9], {-0}
     ec4:	030e6e19 	movweq	r6, #60953	; 0xee19
     ec8:	3b0b3a0e 	blcc	2cf708 <__bss_end__+0x2c50b0>
     ecc:	000b3905 	andeq	r3, fp, r5, lsl #18
     ed0:	002e1000 	eoreq	r1, lr, r0
     ed4:	193c193f 	ldmdbne	ip!, {r0, r1, r2, r3, r4, r5, r8, fp, ip}
     ed8:	0e030e6e 	cdpeq	14, 0, cr0, cr3, cr14, {3}
     edc:	0b3b0b3a 	bleq	ec3bcc <__bss_end__+0xeb9574>
     ee0:	00000b39 	andeq	r0, r0, r9, lsr fp
     ee4:	01110100 	tsteq	r1, r0, lsl #2
     ee8:	0b130e25 	bleq	4c4784 <__bss_end__+0x4ba12c>
     eec:	0e1b0e03 	cdpeq	14, 1, cr0, cr11, cr3, {0}
     ef0:	06120111 			; <UNDEFINED> instruction: 0x06120111
     ef4:	00001710 	andeq	r1, r0, r0, lsl r7
     ef8:	0b002402 	bleq	9f08 <__FUNCTION__.4027+0x54>
     efc:	030b3e0b 	movweq	r3, #48651	; 0xbe0b
     f00:	03000008 	movweq	r0, #8
     f04:	0b0b0024 	bleq	2c0f9c <__bss_end__+0x2b6944>
     f08:	0e030b3e 	vmoveq.16	d3[0], r0
     f0c:	15040000 	strne	r0, [r4, #-0]
     f10:	49192701 	ldmdbmi	r9, {r0, r8, r9, sl, sp}
     f14:	00130113 	andseq	r0, r3, r3, lsl r1
     f18:	00050500 	andeq	r0, r5, r0, lsl #10
     f1c:	00001349 	andeq	r1, r0, r9, asr #6
     f20:	03003406 	movweq	r3, #1030	; 0x406
     f24:	3b0b3a0e 	blcc	2cf764 <__bss_end__+0x2c510c>
     f28:	490b390b 	stmdbmi	fp, {r0, r1, r3, r8, fp, ip, sp}
     f2c:	3c193f13 	ldccc	15, cr3, [r9], {19}
     f30:	07000019 	smladeq	r0, r9, r0, r0
     f34:	0b0b000f 	bleq	2c0f78 <__bss_end__+0x2b6920>
     f38:	00001349 	andeq	r1, r0, r9, asr #6
     f3c:	49002608 	stmdbmi	r0, {r3, r9, sl, sp}
     f40:	09000013 	stmdbeq	r0, {r0, r1, r4}
     f44:	193f002e 	ldmdbne	pc!, {r1, r2, r3, r5}	; <UNPREDICTABLE>
     f48:	0b3a0e03 	bleq	e8475c <__bss_end__+0xe7a104>
     f4c:	0b390b3b 	bleq	e43c40 <__bss_end__+0xe395e8>
     f50:	01111927 	tsteq	r1, r7, lsr #18
     f54:	18400612 	stmdane	r0, {r1, r4, r9, sl}^
     f58:	00194297 	mulseq	r9, r7, r2
     f5c:	11010000 	mrsne	r0, (UNDEF: 1)
     f60:	130e2501 	movwne	r2, #58625	; 0xe501
     f64:	1b0e030b 	blne	381b98 <__bss_end__+0x377540>
     f68:	1117550e 	tstne	r7, lr, lsl #10
     f6c:	00171001 	andseq	r1, r7, r1
     f70:	00240200 	eoreq	r0, r4, r0, lsl #4
     f74:	0b3e0b0b 	bleq	f83ba8 <__bss_end__+0xf79550>
     f78:	00000803 	andeq	r0, r0, r3, lsl #16
     f7c:	49002603 	stmdbmi	r0, {r0, r1, r9, sl, sp}
     f80:	04000013 	streq	r0, [r0], #-19	; 0xffffffed
     f84:	0b0b0024 	bleq	2c101c <__bss_end__+0x2b69c4>
     f88:	0e030b3e 	vmoveq.16	d3[0], r0
     f8c:	15050000 	strne	r0, [r5, #-0]
     f90:	49192701 	ldmdbmi	r9, {r0, r8, r9, sl, sp}
     f94:	00130113 	andseq	r0, r3, r3, lsl r1
     f98:	00050600 	andeq	r0, r5, r0, lsl #12
     f9c:	00001349 	andeq	r1, r0, r9, asr #6
     fa0:	03003407 	movweq	r3, #1031	; 0x407
     fa4:	3b0b3a0e 	blcc	2cf7e4 <__bss_end__+0x2c518c>
     fa8:	490b390b 	stmdbmi	fp, {r0, r1, r3, r8, fp, ip, sp}
     fac:	3c193f13 	ldccc	15, cr3, [r9], {19}
     fb0:	08000019 	stmdaeq	r0, {r0, r3, r4}
     fb4:	0b0b000f 	bleq	2c0ff8 <__bss_end__+0x2b69a0>
     fb8:	00001349 	andeq	r1, r0, r9, asr #6
     fbc:	03003409 	movweq	r3, #1033	; 0x409
     fc0:	3b0b3a0e 	blcc	2cf800 <__bss_end__+0x2c51a8>
     fc4:	490b390b 	stmdbmi	fp, {r0, r1, r3, r8, fp, ip, sp}
     fc8:	0a000013 	beq	101c <__code_start__-0x6fe4>
     fcc:	193f012e 	ldmdbne	pc!, {r1, r2, r3, r5, r8}	; <UNPREDICTABLE>
     fd0:	0b3a0e03 	bleq	e847e4 <__bss_end__+0xe7a18c>
     fd4:	0b390b3b 	bleq	e43cc8 <__bss_end__+0xe39670>
     fd8:	01871927 	orreq	r1, r7, r7, lsr #18
     fdc:	12011119 	andne	r1, r1, #1073741830	; 0x40000006
     fe0:	97184006 	ldrls	r4, [r8, -r6]
     fe4:	13011942 	movwne	r1, #6466	; 0x1942
     fe8:	340b0000 	strcc	r0, [fp], #-0
     fec:	3a0e0300 	bcc	381bf4 <__bss_end__+0x37759c>
     ff0:	390b3b0b 	stmdbcc	fp, {r0, r1, r3, r8, r9, fp, ip, sp}
     ff4:	1c13490b 			; <UNDEFINED> instruction: 0x1c13490b
     ff8:	0c000006 	stceq	0, cr0, [r0], {6}
     ffc:	0e030034 	mcreq	0, 0, r0, cr3, cr4, {1}
    1000:	0b3b0b3a 	bleq	ec3cf0 <__bss_end__+0xeb9698>
    1004:	13490b39 	movtne	r0, #39737	; 0x9b39
    1008:	00000b1c 	andeq	r0, r0, ip, lsl fp
    100c:	31011d0d 	tstcc	r1, sp, lsl #26
    1010:	b8015213 	stmdalt	r1, {r0, r1, r4, r9, ip, lr}
    1014:	17550b42 	ldrbne	r0, [r5, -r2, asr #22]
    1018:	0b590b58 	bleq	1643d80 <__bss_end__+0x1639728>
    101c:	13010b57 	movwne	r0, #6999	; 0x1b57
    1020:	0b0e0000 	bleq	381028 <__bss_end__+0x3769d0>
    1024:	00175501 	andseq	r5, r7, r1, lsl #10
    1028:	00340f00 	eorseq	r0, r4, r0, lsl #30
    102c:	17021331 	smladxne	r2, r1, r3, r1
    1030:	001742b7 			; <UNDEFINED> instruction: 0x001742b7
    1034:	011d1000 	tsteq	sp, r0
    1038:	01521331 	cmpeq	r2, r1, lsr r3
    103c:	110b42b8 			; <UNDEFINED> instruction: 0x110b42b8
    1040:	58061201 	stmdapl	r6, {r0, r9, ip}
    1044:	570b590b 	strpl	r5, [fp, -fp, lsl #18]
    1048:	0013010b 	andseq	r0, r3, fp, lsl #2
    104c:	82891100 	addhi	r1, r9, #0
    1050:	01110001 	tsteq	r1, r1
    1054:	00001331 	andeq	r1, r0, r1, lsr r3
    1058:	01828912 	orreq	r8, r2, r2, lsl r9
    105c:	31011101 	tstcc	r1, r1, lsl #2
    1060:	00130113 	andseq	r0, r3, r3, lsl r1
    1064:	828a1300 	addhi	r1, sl, #0, 6
    1068:	18020001 	stmdane	r2, {r0}
    106c:	00184291 	mulseq	r8, r1, r2
    1070:	82891400 	addhi	r1, r9, #0, 8
    1074:	01110101 	tsteq	r1, r1, lsl #2
    1078:	00001331 	andeq	r1, r0, r1, lsr r3
    107c:	3f012e15 	svccc	0x00012e15
    1080:	3a0e0319 	bcc	381cec <__bss_end__+0x377694>
    1084:	390b3b0b 	stmdbcc	fp, {r0, r1, r3, r8, r9, fp, ip, sp}
    1088:	2019270b 	andscs	r2, r9, fp, lsl #14
    108c:	0013010b 	andseq	r0, r3, fp, lsl #2
    1090:	012e1600 			; <UNDEFINED> instruction: 0x012e1600
    1094:	0e03193f 			; <UNDEFINED> instruction: 0x0e03193f
    1098:	0b3b0b3a 	bleq	ec3d88 <__bss_end__+0xeb9730>
    109c:	19270b39 	stmdbne	r7!, {r0, r3, r4, r5, r8, r9, fp}
    10a0:	0b201349 	bleq	805dcc <__bss_end__+0x7fb774>
    10a4:	00001301 	andeq	r1, r0, r1, lsl #6
    10a8:	31012e17 	tstcc	r1, r7, lsl lr
    10ac:	12011113 	andne	r1, r1, #-1073741820	; 0xc0000004
    10b0:	97184006 	ldrls	r4, [r8, -r6]
    10b4:	13011942 	movwne	r1, #6466	; 0x1942
    10b8:	2e180000 	cdpcs	0, 1, cr0, cr8, cr0, {0}
    10bc:	3c193f00 	ldccc	15, cr3, [r9], {-0}
    10c0:	030e6e19 	movweq	r6, #60953	; 0xee19
    10c4:	3b0b3a0e 	blcc	2cf904 <__bss_end__+0x2c52ac>
    10c8:	000b3905 	andeq	r3, fp, r5, lsl #18
    10cc:	002e1900 	eoreq	r1, lr, r0, lsl #18
    10d0:	193c193f 	ldmdbne	ip!, {r0, r1, r2, r3, r4, r5, r8, fp, ip}
    10d4:	0e030e6e 	cdpeq	14, 0, cr0, cr3, cr14, {3}
    10d8:	0b3b0b3a 	bleq	ec3dc8 <__bss_end__+0xeb9770>
    10dc:	00000b39 	andeq	r0, r0, r9, lsr fp
    10e0:	01110100 	tsteq	r1, r0, lsl #2
    10e4:	0b130e25 	bleq	4c4980 <__bss_end__+0x4ba328>
    10e8:	0e1b0e03 	cdpeq	14, 1, cr0, cr11, cr3, {0}
    10ec:	06120111 			; <UNDEFINED> instruction: 0x06120111
    10f0:	00001710 	andeq	r1, r0, r0, lsl r7
    10f4:	0b002402 	bleq	a104 <__FUNCTION__.4030+0xec>
    10f8:	030b3e0b 	movweq	r3, #48651	; 0xbe0b
    10fc:	03000008 	movweq	r0, #8
    1100:	0b0b0024 	bleq	2c1198 <__bss_end__+0x2b6b40>
    1104:	0e030b3e 	vmoveq.16	d3[0], r0
    1108:	15040000 	strne	r0, [r4, #-0]
    110c:	49192701 	ldmdbmi	r9, {r0, r8, r9, sl, sp}
    1110:	00130113 	andseq	r0, r3, r3, lsl r1
    1114:	00050500 	andeq	r0, r5, r0, lsl #10
    1118:	00001349 	andeq	r1, r0, r9, asr #6
    111c:	03003406 	movweq	r3, #1030	; 0x406
    1120:	3b0b3a0e 	blcc	2cf960 <__bss_end__+0x2c5308>
    1124:	490b390b 	stmdbmi	fp, {r0, r1, r3, r8, fp, ip, sp}
    1128:	3c193f13 	ldccc	15, cr3, [r9], {19}
    112c:	07000019 	smladeq	r0, r9, r0, r0
    1130:	0b0b000f 	bleq	2c1174 <__bss_end__+0x2b6b1c>
    1134:	00001349 	andeq	r1, r0, r9, asr #6
    1138:	49002608 	stmdbmi	r0, {r3, r9, sl, sp}
    113c:	09000013 	stmdbeq	r0, {r0, r1, r4}
    1140:	193f012e 	ldmdbne	pc!, {r1, r2, r3, r5, r8}	; <UNPREDICTABLE>
    1144:	0b3a0e03 	bleq	e84958 <__bss_end__+0xe7a300>
    1148:	0b390b3b 	bleq	e43e3c <__bss_end__+0xe397e4>
    114c:	01111927 	tsteq	r1, r7, lsr #18
    1150:	18400612 	stmdane	r0, {r1, r4, r9, sl}^
    1154:	01194297 			; <UNDEFINED> instruction: 0x01194297
    1158:	0a000013 	beq	11ac <__code_start__-0x6e54>
    115c:	08030005 	stmdaeq	r3, {r0, r2}
    1160:	0b3b0b3a 	bleq	ec3e50 <__bss_end__+0xeb97f8>
    1164:	13490b39 	movtne	r0, #39737	; 0x9b39
    1168:	42b71702 	adcsmi	r1, r7, #524288	; 0x80000
    116c:	0b000017 	bleq	11d0 <__code_start__-0x6e30>
    1170:	1331011d 	teqne	r1, #1073741831	; 0x40000007
    1174:	42b80152 	adcsmi	r0, r8, #-2147483628	; 0x80000014
    1178:	5817550b 	ldmdapl	r7, {r0, r1, r3, r8, sl, ip, lr}
    117c:	570b590b 	strpl	r5, [fp, -fp, lsl #18]
    1180:	0c00000b 	stceq	0, cr0, [r0], {11}
    1184:	13310005 	teqne	r1, #5, 0
    1188:	42b71702 	adcsmi	r1, r7, #524288	; 0x80000
    118c:	0d000017 	stceq	0, cr0, [r0, #-92]	; 0xffffffa4
    1190:	1331011d 	teqne	r1, #1073741831	; 0x40000007
    1194:	42b80152 	adcsmi	r0, r8, #-2147483628	; 0x80000014
    1198:	1201110b 	andne	r1, r1, #-1073741822	; 0xc0000002
    119c:	590b5806 	stmdbpl	fp, {r1, r2, fp, ip, lr}
    11a0:	000b570b 	andeq	r5, fp, fp, lsl #14
    11a4:	00340e00 	eorseq	r0, r4, r0, lsl #28
    11a8:	17021331 	smladxne	r2, r1, r3, r1
    11ac:	001742b7 			; <UNDEFINED> instruction: 0x001742b7
    11b0:	011d0f00 	tsteq	sp, r0, lsl #30
    11b4:	01521331 	cmpeq	r2, r1, lsr r3
    11b8:	110b42b8 			; <UNDEFINED> instruction: 0x110b42b8
    11bc:	58061201 	stmdapl	r6, {r0, r9, ip}
    11c0:	570b590b 	strpl	r5, [fp, -fp, lsl #18]
    11c4:	0013010b 	andseq	r0, r3, fp, lsl #2
    11c8:	82891000 	addhi	r1, r9, #0, 0
    11cc:	01110101 	tsteq	r1, r1, lsl #2
    11d0:	00001331 	andeq	r1, r0, r1, lsr r3
    11d4:	01828a11 	orreq	r8, r2, r1, lsl sl
    11d8:	91180200 	tstls	r8, r0, lsl #4
    11dc:	00001842 	andeq	r1, r0, r2, asr #16
    11e0:	01828912 	orreq	r8, r2, r2, lsl r9
    11e4:	31011100 	mrscc	r1, (UNDEF: 17)
    11e8:	13000013 	movwne	r0, #19
    11ec:	1331010b 	teqne	r1, #-1073741822	; 0xc0000002
    11f0:	00001755 	andeq	r1, r0, r5, asr r7
    11f4:	31003414 	tstcc	r0, r4, lsl r4
    11f8:	15000013 	strne	r0, [r0, #-19]	; 0xffffffed
    11fc:	1755010b 	ldrbne	r0, [r5, -fp, lsl #2]
    1200:	1d160000 	ldcne	0, cr0, [r6, #-0]
    1204:	52133101 	andspl	r3, r3, #1073741824	; 0x40000000
    1208:	0b42b801 	bleq	10af214 <__bss_end__+0x10a4bbc>
    120c:	0b581755 	bleq	1606f68 <__bss_end__+0x15fc910>
    1210:	0b570b59 	bleq	15c3f7c <__bss_end__+0x15b9924>
    1214:	00001301 	andeq	r1, r0, r1, lsl #6
    1218:	3f012e17 	svccc	0x00012e17
    121c:	3a0e0319 	bcc	381e88 <__bss_end__+0x377830>
    1220:	390b3b0b 	stmdbcc	fp, {r0, r1, r3, r8, r9, fp, ip, sp}
    1224:	2019270b 	andscs	r2, r9, fp, lsl #14
    1228:	0013010b 	andseq	r0, r3, fp, lsl #2
    122c:	00051800 	andeq	r1, r5, r0, lsl #16
    1230:	0b3a0803 	bleq	e83244 <__bss_end__+0xe78bec>
    1234:	0b390b3b 	bleq	e43f28 <__bss_end__+0xe398d0>
    1238:	00001349 	andeq	r1, r0, r9, asr #6
    123c:	03003419 	movweq	r3, #1049	; 0x419
    1240:	3b0b3a08 	blcc	2cfa68 <__bss_end__+0x2c5410>
    1244:	490b390b 	stmdbmi	fp, {r0, r1, r3, r8, fp, ip, sp}
    1248:	1a000013 	bne	129c <__code_start__-0x6d64>
    124c:	0000010b 	andeq	r0, r0, fp, lsl #2
    1250:	3f012e1b 	svccc	0x00012e1b
    1254:	3a0e0319 	bcc	381ec0 <__bss_end__+0x377868>
    1258:	390b3b0b 	stmdbcc	fp, {r0, r1, r3, r8, r9, fp, ip, sp}
    125c:	4919270b 	ldmdbmi	r9, {r0, r1, r3, r8, r9, sl, sp}
    1260:	010b2013 	tsteq	fp, r3, lsl r0
    1264:	1c000013 	stcne	0, cr0, [r0], {19}
    1268:	193f002e 	ldmdbne	pc!, {r1, r2, r3, r5}	; <UNPREDICTABLE>
    126c:	0b3a0e03 	bleq	e84a80 <__bss_end__+0xe7a428>
    1270:	0b390b3b 	bleq	e43f64 <__bss_end__+0xe3990c>
    1274:	13491927 	movtne	r1, #39207	; 0x9927
    1278:	00000b20 	andeq	r0, r0, r0, lsr #22
    127c:	31012e1d 	tstcc	r1, sp, lsl lr
    1280:	12011113 	andne	r1, r1, #-1073741820	; 0xc0000004
    1284:	97184006 	ldrls	r4, [r8, -r6]
    1288:	13011942 	movwne	r1, #6466	; 0x1942
    128c:	891e0000 	ldmdbhi	lr, {}	; <UNPREDICTABLE>
    1290:	11010182 	smlabbne	r1, r2, r1, r0
    1294:	19429501 	stmdbne	r2, {r0, r8, sl, ip, pc}^
    1298:	00001331 	andeq	r1, r0, r1, lsr r3
    129c:	3f002e1f 	svccc	0x00002e1f
    12a0:	6e193c19 	mrcvs	12, 0, r3, cr9, cr9, {0}
    12a4:	3a0e030e 	bcc	381ee4 <__bss_end__+0x37788c>
    12a8:	390b3b0b 	stmdbcc	fp, {r0, r1, r3, r8, r9, fp, ip, sp}
    12ac:	0000000b 	andeq	r0, r0, fp
    12b0:	25011101 	strcs	r1, [r1, #-257]	; 0xfffffeff
    12b4:	030b130e 	movweq	r1, #45838	; 0xb30e
    12b8:	110e1b0e 	tstne	lr, lr, lsl #22
    12bc:	10061201 	andne	r1, r6, r1, lsl #4
    12c0:	02000017 	andeq	r0, r0, #23, 0
    12c4:	0b0b0024 	bleq	2c135c <__bss_end__+0x2b6d04>
    12c8:	08030b3e 	stmdaeq	r3, {r1, r2, r3, r4, r5, r8, r9, fp}
    12cc:	24030000 	strcs	r0, [r3], #-0
    12d0:	3e0b0b00 	vmlacc.f64	d0, d11, d0
    12d4:	000e030b 	andeq	r0, lr, fp, lsl #6
    12d8:	00350400 	eorseq	r0, r5, r0, lsl #8
    12dc:	00001349 	andeq	r1, r0, r9, asr #6
    12e0:	03001605 	movweq	r1, #1541	; 0x605
    12e4:	3b0b3a0e 	blcc	2cfb24 <__bss_end__+0x2c54cc>
    12e8:	490b390b 	stmdbmi	fp, {r0, r1, r3, r8, fp, ip, sp}
    12ec:	06000013 			; <UNDEFINED> instruction: 0x06000013
    12f0:	0b3e0104 	bleq	f81708 <__bss_end__+0xf770b0>
    12f4:	13490b0b 	movtne	r0, #39691	; 0x9b0b
    12f8:	0b3b0b3a 	bleq	ec3fe8 <__bss_end__+0xeb9990>
    12fc:	13010b39 	movwne	r0, #6969	; 0x1b39
    1300:	28070000 	stmdacs	r7, {}	; <UNPREDICTABLE>
    1304:	1c0e0300 	stcne	3, cr0, [lr], {-0}
    1308:	0800000b 	stmdaeq	r0, {r0, r1, r3}
    130c:	0e030113 	mcreq	1, 0, r0, cr3, cr3, {0}
    1310:	0b3a0b0b 	bleq	e83f44 <__bss_end__+0xe798ec>
    1314:	0b390b3b 	bleq	e44008 <__bss_end__+0xe399b0>
    1318:	00001301 	andeq	r1, r0, r1, lsl #6
    131c:	03000d09 	movweq	r0, #3337	; 0xd09
    1320:	3b0b3a08 	blcc	2cfb48 <__bss_end__+0x2c54f0>
    1324:	490b390b 	stmdbmi	fp, {r0, r1, r3, r8, fp, ip, sp}
    1328:	000b3813 	andeq	r3, fp, r3, lsl r8
    132c:	000d0a00 	andeq	r0, sp, r0, lsl #20
    1330:	0b3a0e03 	bleq	e84b44 <__bss_end__+0xe7a4ec>
    1334:	0b390b3b 	bleq	e44028 <__bss_end__+0xe399d0>
    1338:	0b381349 	bleq	e06064 <__bss_end__+0xdfba0c>
    133c:	340b0000 	strcc	r0, [fp], #-0
    1340:	3a0e0300 	bcc	381f48 <__bss_end__+0x3778f0>
    1344:	390b3b0b 	stmdbcc	fp, {r0, r1, r3, r8, r9, fp, ip, sp}
    1348:	1c13490b 			; <UNDEFINED> instruction: 0x1c13490b
    134c:	0c000006 	stceq	0, cr0, [r0], {6}
    1350:	0b0b000f 	bleq	2c1394 <__bss_end__+0x2b6d3c>
    1354:	00001349 	andeq	r1, r0, r9, asr #6
    1358:	4900260d 	stmdbmi	r0, {r0, r2, r3, r9, sl, sp}
    135c:	0e000013 	mcreq	0, 0, r0, cr0, cr3, {0}
    1360:	193f012e 	ldmdbne	pc!, {r1, r2, r3, r5, r8}	; <UNPREDICTABLE>
    1364:	0b3a0e03 	bleq	e84b78 <__bss_end__+0xe7a520>
    1368:	0b390b3b 	bleq	e4405c <__bss_end__+0xe39a04>
    136c:	01111927 	tsteq	r1, r7, lsr #18
    1370:	18400612 	stmdane	r0, {r1, r4, r9, sl}^
    1374:	01194297 			; <UNDEFINED> instruction: 0x01194297
    1378:	0f000013 	svceq	0x00000013
    137c:	00018289 	andeq	r8, r1, r9, lsl #5
    1380:	13310111 	teqne	r1, #1073741828	; 0x40000004
    1384:	2e100000 	cdpcs	0, 1, cr0, cr0, cr0, {0}
    1388:	03193f01 	tsteq	r9, #1, 30
    138c:	3b0b3a0e 	blcc	2cfbcc <__bss_end__+0x2c5574>
    1390:	270b390b 	strcs	r3, [fp, -fp, lsl #18]
    1394:	11134919 	tstne	r3, r9, lsl r9
    1398:	40061201 	andmi	r1, r6, r1, lsl #4
    139c:	19429718 	stmdbne	r2, {r3, r4, r8, r9, sl, ip, pc}^
    13a0:	00001301 	andeq	r1, r0, r1, lsl #6
    13a4:	01828911 	orreq	r8, r2, r1, lsl r9
    13a8:	31011101 	tstcc	r1, r1, lsl #2
    13ac:	12000013 	andne	r0, r0, #19, 0
    13b0:	0001828a 	andeq	r8, r1, sl, lsl #5
    13b4:	42911802 	addsmi	r1, r1, #131072	; 0x20000
    13b8:	13000018 	movwne	r0, #24
    13bc:	08030005 	stmdaeq	r3, {r0, r2}
    13c0:	0b3b0b3a 	bleq	ec40b0 <__bss_end__+0xeb9a58>
    13c4:	13490b39 	movtne	r0, #39737	; 0x9b39
    13c8:	42b71702 	adcsmi	r1, r7, #524288	; 0x80000
    13cc:	14000017 	strne	r0, [r0], #-23	; 0xffffffe9
    13d0:	01018289 	smlabbeq	r1, r9, r2, r8
    13d4:	13310111 	teqne	r1, #1073741828	; 0x40000004
    13d8:	00001301 	andeq	r1, r0, r1, lsl #6
    13dc:	03003415 	movweq	r3, #1045	; 0x415
    13e0:	3b0b3a08 	blcc	2cfc08 <__bss_end__+0x2c55b0>
    13e4:	490b390b 	stmdbmi	fp, {r0, r1, r3, r8, fp, ip, sp}
    13e8:	b7170213 			; <UNDEFINED> instruction: 0xb7170213
    13ec:	00001742 	andeq	r1, r0, r2, asr #14
    13f0:	03003416 	movweq	r3, #1046	; 0x416
    13f4:	3b0b3a0e 	blcc	2cfc34 <__bss_end__+0x2c55dc>
    13f8:	490b390b 	stmdbmi	fp, {r0, r1, r3, r8, fp, ip, sp}
    13fc:	00051c13 	andeq	r1, r5, r3, lsl ip
    1400:	012e1700 			; <UNDEFINED> instruction: 0x012e1700
    1404:	0b3a0e03 	bleq	e84c18 <__bss_end__+0xe7a5c0>
    1408:	0b390b3b 	bleq	e440fc <__bss_end__+0xe39aa4>
    140c:	01111927 	tsteq	r1, r7, lsr #18
    1410:	18400612 	stmdane	r0, {r1, r4, r9, sl}^
    1414:	01194297 			; <UNDEFINED> instruction: 0x01194297
    1418:	18000013 	stmdane	r0, {r0, r1, r4}
    141c:	0e030005 	cdpeq	0, 0, cr0, cr3, cr5, {0}
    1420:	0b3b0b3a 	bleq	ec4110 <__bss_end__+0xeb9ab8>
    1424:	13490b39 	movtne	r0, #39737	; 0x9b39
    1428:	42b71702 	adcsmi	r1, r7, #524288	; 0x80000
    142c:	19000017 	stmdbne	r0, {r0, r1, r2, r4}
    1430:	00000035 	andeq	r0, r0, r5, lsr r0
    1434:	3f002e1a 	svccc	0x00002e1a
    1438:	6e193c19 	mrcvs	12, 0, r3, cr9, cr9, {0}
    143c:	3a0e030e 	bcc	38207c <__bss_end__+0x377a24>
    1440:	390b3b0b 	stmdbcc	fp, {r0, r1, r3, r8, r9, fp, ip, sp}
    1444:	0000000b 	andeq	r0, r0, fp
    1448:	25011101 	strcs	r1, [r1, #-257]	; 0xfffffeff
    144c:	030b130e 	movweq	r1, #45838	; 0xb30e
    1450:	110e1b0e 	tstne	lr, lr, lsl #22
    1454:	10061201 	andne	r1, r6, r1, lsl #4
    1458:	02000017 	andeq	r0, r0, #23, 0
    145c:	0b0b0024 	bleq	2c14f4 <__bss_end__+0x2b6e9c>
    1460:	08030b3e 	stmdaeq	r3, {r1, r2, r3, r4, r5, r8, r9, fp}
    1464:	24030000 	strcs	r0, [r3], #-0
    1468:	3e0b0b00 	vmlacc.f64	d0, d11, d0
    146c:	000e030b 	andeq	r0, lr, fp, lsl #6
    1470:	00160400 	andseq	r0, r6, r0, lsl #8
    1474:	0b3a0e03 	bleq	e84c88 <__bss_end__+0xe7a630>
    1478:	0b390b3b 	bleq	e4416c <__bss_end__+0xe39b14>
    147c:	00001349 	andeq	r1, r0, r9, asr #6
    1480:	49002605 	stmdbmi	r0, {r0, r2, r9, sl, sp}
    1484:	06000013 			; <UNDEFINED> instruction: 0x06000013
    1488:	0b0b000f 	bleq	2c14cc <__bss_end__+0x2b6e74>
    148c:	04070000 	streq	r0, [r7], #-0
    1490:	0b0b3e01 	bleq	2d0c9c <__bss_end__+0x2c6644>
    1494:	3a13490b 	bcc	4d38c8 <__bss_end__+0x4c9270>
    1498:	390b3b0b 	stmdbcc	fp, {r0, r1, r3, r8, r9, fp, ip, sp}
    149c:	0013010b 	andseq	r0, r3, fp, lsl #2
    14a0:	00280800 	eoreq	r0, r8, r0, lsl #16
    14a4:	061c0e03 	ldreq	r0, [ip], -r3, lsl #28
    14a8:	34090000 	strcc	r0, [r9], #-0
    14ac:	3a0e0300 	bcc	3820b4 <__bss_end__+0x377a5c>
    14b0:	390b3b0b 	stmdbcc	fp, {r0, r1, r3, r8, r9, fp, ip, sp}
    14b4:	3f13490b 	svccc	0x0013490b
    14b8:	00193c19 	andseq	r3, r9, r9, lsl ip
    14bc:	00340a00 	eorseq	r0, r4, r0, lsl #20
    14c0:	0b3a0e03 	bleq	e84cd4 <__bss_end__+0xe7a67c>
    14c4:	0b390b3b 	bleq	e441b8 <__bss_end__+0xe39b60>
    14c8:	18021349 	stmdane	r2, {r0, r3, r6, r8, r9, ip}
    14cc:	0f0b0000 	svceq	0x000b0000
    14d0:	490b0b00 	stmdbmi	fp, {r8, r9, fp}
    14d4:	0c000013 	stceq	0, cr0, [r0], {19}
    14d8:	193f012e 	ldmdbne	pc!, {r1, r2, r3, r5, r8}	; <UNPREDICTABLE>
    14dc:	0b3a0e03 	bleq	e84cf0 <__bss_end__+0xe7a698>
    14e0:	0b390b3b 	bleq	e441d4 <__bss_end__+0xe39b7c>
    14e4:	01111927 	tsteq	r1, r7, lsr #18
    14e8:	18400612 	stmdane	r0, {r1, r4, r9, sl}^
    14ec:	01194297 			; <UNDEFINED> instruction: 0x01194297
    14f0:	0d000013 	stceq	0, cr0, [r0, #-76]	; 0xffffffb4
    14f4:	08030005 	stmdaeq	r3, {r0, r2}
    14f8:	0b3b0b3a 	bleq	ec41e8 <__bss_end__+0xeb9b90>
    14fc:	13490b39 	movtne	r0, #39737	; 0x9b39
    1500:	42b71702 	adcsmi	r1, r7, #524288	; 0x80000
    1504:	0e000017 	mcreq	0, 0, r0, cr0, cr7, {0}
    1508:	0e030034 	mcreq	0, 0, r0, cr3, cr4, {1}
    150c:	19341349 	ldmdbne	r4!, {r0, r3, r6, r8, r9, ip}
    1510:	00001802 	andeq	r1, r0, r2, lsl #16
    1514:	0182890f 	orreq	r8, r2, pc, lsl #18
    1518:	31011101 	tstcc	r1, r1, lsl #2
    151c:	00130113 	andseq	r0, r3, r3, lsl r1
    1520:	828a1000 	addhi	r1, sl, #0, 0
    1524:	18020001 	stmdane	r2, {r0}
    1528:	00184291 	mulseq	r8, r1, r2
    152c:	82891100 	addhi	r1, r9, #0
    1530:	01110001 	tsteq	r1, r1
    1534:	00001331 	andeq	r1, r0, r1, lsr r3
    1538:	49010112 	stmdbmi	r1, {r1, r4, r8}
    153c:	00130113 	andseq	r0, r3, r3, lsl r1
    1540:	00211300 	eoreq	r1, r1, r0, lsl #6
    1544:	0b2f1349 	bleq	bc6270 <__bss_end__+0xbbbc18>
    1548:	2e140000 	cdpcs	0, 1, cr0, cr4, cr0, {0}
    154c:	03193f00 	tsteq	r9, #0, 30
    1550:	3b0b3a0e 	blcc	2cfd90 <__bss_end__+0x2c5738>
    1554:	270b390b 	strcs	r3, [fp, -fp, lsl #18]
    1558:	12011119 	andne	r1, r1, #1073741830	; 0x40000006
    155c:	97184006 	ldrls	r4, [r8, -r6]
    1560:	00001942 	andeq	r1, r0, r2, asr #18
    1564:	03000515 	movweq	r0, #1301	; 0x515
    1568:	3b0b3a08 	blcc	2cfd90 <__bss_end__+0x2c5738>
    156c:	490b390b 	stmdbmi	fp, {r0, r1, r3, r8, fp, ip, sp}
    1570:	00180213 	andseq	r0, r8, r3, lsl r2
    1574:	012e1600 			; <UNDEFINED> instruction: 0x012e1600
    1578:	0e03193f 			; <UNDEFINED> instruction: 0x0e03193f
    157c:	0b3b0b3a 	bleq	ec426c <__bss_end__+0xeb9c14>
    1580:	19270b39 	stmdbne	r7!, {r0, r3, r4, r5, r8, r9, fp}
    1584:	01111349 	tsteq	r1, r9, asr #6
    1588:	18400612 	stmdane	r0, {r1, r4, r9, sl}^
    158c:	01194297 			; <UNDEFINED> instruction: 0x01194297
    1590:	17000013 	smladne	r0, r3, r0, r0
    1594:	0e030005 	cdpeq	0, 0, cr0, cr3, cr5, {0}
    1598:	0b3b0b3a 	bleq	ec4288 <__bss_end__+0xeb9c30>
    159c:	13490b39 	movtne	r0, #39737	; 0x9b39
    15a0:	42b71702 	adcsmi	r1, r7, #524288	; 0x80000
    15a4:	18000017 	stmdane	r0, {r0, r1, r2, r4}
    15a8:	08030034 	stmdaeq	r3, {r2, r4, r5}
    15ac:	0b3b0b3a 	bleq	ec429c <__bss_end__+0xeb9c44>
    15b0:	13490b39 	movtne	r0, #39737	; 0x9b39
    15b4:	42b71702 	adcsmi	r1, r7, #524288	; 0x80000
    15b8:	19000017 	stmdbne	r0, {r0, r1, r2, r4}
    15bc:	1331011d 	teqne	r1, #1073741831	; 0x40000007
    15c0:	42b80152 	adcsmi	r0, r8, #-2147483628	; 0x80000014
    15c4:	1201110b 	andne	r1, r1, #-1073741822	; 0xc0000002
    15c8:	590b5806 	stmdbpl	fp, {r1, r2, fp, ip, lr}
    15cc:	010b570b 	tsteq	fp, fp, lsl #14
    15d0:	1a000013 	bne	1624 <__code_start__-0x69dc>
    15d4:	13310005 	teqne	r1, #5, 0
    15d8:	42b71702 	adcsmi	r1, r7, #524288	; 0x80000
    15dc:	1b000017 	blne	1640 <__code_start__-0x69c0>
    15e0:	1331011d 	teqne	r1, #1073741831	; 0x40000007
    15e4:	42b80152 	adcsmi	r0, r8, #-2147483628	; 0x80000014
    15e8:	5817550b 	ldmdapl	r7, {r0, r1, r3, r8, sl, ip, lr}
    15ec:	570b590b 	strpl	r5, [fp, -fp, lsl #18]
    15f0:	0013010b 	andseq	r0, r3, fp, lsl #2
    15f4:	010b1c00 	tsteq	fp, r0, lsl #24
    15f8:	00001755 	andeq	r1, r0, r5, asr r7
    15fc:	0300341d 	movweq	r3, #1053	; 0x41d
    1600:	3b0b3a0e 	blcc	2cfe40 <__bss_end__+0x2c57e8>
    1604:	490b390b 	stmdbmi	fp, {r0, r1, r3, r8, fp, ip, sp}
    1608:	b7170213 			; <UNDEFINED> instruction: 0xb7170213
    160c:	00001742 	andeq	r1, r0, r2, asr #14
    1610:	55000b1e 	strpl	r0, [r0, #-2846]	; 0xfffff4e2
    1614:	1f000017 	svcne	0x00000017
    1618:	193f002e 	ldmdbne	pc!, {r1, r2, r3, r5}	; <UNPREDICTABLE>
    161c:	0b3a0e03 	bleq	e84e30 <__bss_end__+0xe7a7d8>
    1620:	0b390b3b 	bleq	e44314 <__bss_end__+0xe39cbc>
    1624:	13491927 	movtne	r1, #39207	; 0x9927
    1628:	06120111 			; <UNDEFINED> instruction: 0x06120111
    162c:	42971840 	addsmi	r1, r7, #64, 16	; 0x400000
    1630:	20000019 	andcs	r0, r0, r9, lsl r0
    1634:	0e03012e 	adfeqsp	f0, f3, #0.5
    1638:	0b3b0b3a 	bleq	ec4328 <__bss_end__+0xeb9cd0>
    163c:	19270b39 	stmdbne	r7!, {r0, r3, r4, r5, r8, r9, fp}
    1640:	0b201349 	bleq	80636c <__bss_end__+0x7fbd14>
    1644:	00001301 	andeq	r1, r0, r1, lsl #6
    1648:	03000521 	movweq	r0, #1313	; 0x521
    164c:	3b0b3a08 	blcc	2cfe74 <__bss_end__+0x2c581c>
    1650:	490b390b 	stmdbmi	fp, {r0, r1, r3, r8, fp, ip, sp}
    1654:	22000013 	andcs	r0, r0, #19, 0
    1658:	193f002e 	ldmdbne	pc!, {r1, r2, r3, r5}	; <UNPREDICTABLE>
    165c:	0e6e193c 			; <UNDEFINED> instruction: 0x0e6e193c
    1660:	0b3a0e03 	bleq	e84e74 <__bss_end__+0xe7a81c>
    1664:	0b390b3b 	bleq	e44358 <__bss_end__+0xe39d00>
    1668:	01000000 	mrseq	r0, (UNDEF: 0)
    166c:	0e250111 	mcreq	1, 1, r0, cr5, cr1, {0}
    1670:	0e030b13 	vmoveq.32	d3[0], r0
    1674:	01110e1b 	tsteq	r1, fp, lsl lr
    1678:	17100612 			; <UNDEFINED> instruction: 0x17100612
    167c:	24020000 	strcs	r0, [r2], #-0
    1680:	3e0b0b00 	vmlacc.f64	d0, d11, d0
    1684:	000e030b 	andeq	r0, lr, fp, lsl #6
    1688:	00240300 	eoreq	r0, r4, r0, lsl #6
    168c:	0b3e0b0b 	bleq	f842c0 <__bss_end__+0xf79c68>
    1690:	00000803 	andeq	r0, r0, r3, lsl #16
    1694:	49002604 	stmdbmi	r0, {r2, r9, sl, sp}
    1698:	05000013 	streq	r0, [r0, #-19]	; 0xffffffed
    169c:	0e030016 	mcreq	0, 0, r0, cr3, cr6, {0}
    16a0:	0b3b0b3a 	bleq	ec4390 <__bss_end__+0xeb9d38>
    16a4:	13490b39 	movtne	r0, #39737	; 0x9b39
    16a8:	15060000 	strne	r0, [r6, #-0]
    16ac:	49192701 	ldmdbmi	r9, {r0, r8, r9, sl, sp}
    16b0:	00130113 	andseq	r0, r3, r3, lsl r1
    16b4:	00050700 	andeq	r0, r5, r0, lsl #14
    16b8:	00001349 	andeq	r1, r0, r9, asr #6
    16bc:	03003408 	movweq	r3, #1032	; 0x408
    16c0:	3b0b3a0e 	blcc	2cff00 <__bss_end__+0x2c58a8>
    16c4:	490b390b 	stmdbmi	fp, {r0, r1, r3, r8, fp, ip, sp}
    16c8:	3c193f13 	ldccc	15, cr3, [r9], {19}
    16cc:	09000019 	stmdbeq	r0, {r0, r3, r4}
    16d0:	0b0b000f 	bleq	2c1714 <__bss_end__+0x2b70bc>
    16d4:	00001349 	andeq	r1, r0, r9, asr #6
    16d8:	3e01040a 	cdpcc	4, 0, cr0, cr1, cr10, {0}
    16dc:	490b0b0b 	stmdbmi	fp, {r0, r1, r3, r8, r9, fp}
    16e0:	3b0b3a13 	blcc	2cff34 <__bss_end__+0x2c58dc>
    16e4:	010b390b 	tsteq	fp, fp, lsl #18
    16e8:	0b000013 	bleq	173c <__code_start__-0x68c4>
    16ec:	0e030028 	cdpeq	0, 0, cr0, cr3, cr8, {1}
    16f0:	00000b1c 	andeq	r0, r0, ip, lsl fp
    16f4:	0300340c 	movweq	r3, #1036	; 0x40c
    16f8:	3b0b3a0e 	blcc	2cff38 <__bss_end__+0x2c58e0>
    16fc:	490b390b 	stmdbmi	fp, {r0, r1, r3, r8, fp, ip, sp}
    1700:	00061c13 	andeq	r1, r6, r3, lsl ip
    1704:	012e0d00 			; <UNDEFINED> instruction: 0x012e0d00
    1708:	0e03193f 			; <UNDEFINED> instruction: 0x0e03193f
    170c:	0b3b0b3a 	bleq	ec43fc <__bss_end__+0xeb9da4>
    1710:	19270b39 	stmdbne	r7!, {r0, r3, r4, r5, r8, r9, fp}
    1714:	01111349 	tsteq	r1, r9, asr #6
    1718:	18400612 	stmdane	r0, {r1, r4, r9, sl}^
    171c:	01194297 			; <UNDEFINED> instruction: 0x01194297
    1720:	0e000013 	mcreq	0, 0, r0, cr0, cr3, {0}
    1724:	08030005 	stmdaeq	r3, {r0, r2}
    1728:	0b3b0b3a 	bleq	ec4418 <__bss_end__+0xeb9dc0>
    172c:	13490b39 	movtne	r0, #39737	; 0x9b39
    1730:	42b71702 	adcsmi	r1, r7, #524288	; 0x80000
    1734:	0f000017 	svceq	0x00000017
    1738:	0e030034 	mcreq	0, 0, r0, cr3, cr4, {1}
    173c:	0b3b0b3a 	bleq	ec442c <__bss_end__+0xeb9dd4>
    1740:	13490b39 	movtne	r0, #39737	; 0x9b39
    1744:	42b71702 	adcsmi	r1, r7, #524288	; 0x80000
    1748:	10000017 	andne	r0, r0, r7, lsl r0
    174c:	08030034 	stmdaeq	r3, {r2, r4, r5}
    1750:	0b3b0b3a 	bleq	ec4440 <__bss_end__+0xeb9de8>
    1754:	13490b39 	movtne	r0, #39737	; 0x9b39
    1758:	42b71702 	adcsmi	r1, r7, #524288	; 0x80000
    175c:	11000017 	tstne	r0, r7, lsl r0
    1760:	01018289 	smlabbeq	r1, r9, r2, r8
    1764:	13310111 	teqne	r1, #1073741828	; 0x40000004
    1768:	8a120000 	bhi	481770 <__bss_end__+0x477118>
    176c:	02000182 	andeq	r0, r0, #-2147483616	; 0x80000020
    1770:	18429118 	stmdane	r2, {r3, r4, r8, ip, pc}^
    1774:	2e130000 	cdpcs	0, 1, cr0, cr3, cr0, {0}
    1778:	03193f01 	tsteq	r9, #1, 30
    177c:	3b0b3a0e 	blcc	2cffbc <__bss_end__+0x2c5964>
    1780:	270b390b 	strcs	r3, [fp, -fp, lsl #18]
    1784:	12011119 	andne	r1, r1, #1073741830	; 0x40000006
    1788:	97184006 	ldrls	r4, [r8, -r6]
    178c:	13011942 	movwne	r1, #6466	; 0x1942
    1790:	1d140000 	ldcne	0, cr0, [r4, #-0]
    1794:	52133101 	andspl	r3, r3, #1073741824	; 0x40000000
    1798:	0b42b801 	bleq	10af7a4 <__bss_end__+0x10a514c>
    179c:	0b581755 	bleq	16074f8 <__bss_end__+0x15fcea0>
    17a0:	0b570b59 	bleq	15c450c <__bss_end__+0x15b9eb4>
    17a4:	00001301 	andeq	r1, r0, r1, lsl #6
    17a8:	31000515 	tstcc	r0, r5, lsl r5
    17ac:	b7170213 			; <UNDEFINED> instruction: 0xb7170213
    17b0:	00001742 	andeq	r1, r0, r2, asr #14
    17b4:	01828916 	orreq	r8, r2, r6, lsl r9
    17b8:	95011101 	strls	r1, [r1, #-257]	; 0xfffffeff
    17bc:	13311942 	teqne	r1, #1081344	; 0x108000
    17c0:	1d170000 	ldcne	0, cr0, [r7, #-0]
    17c4:	52133101 	andspl	r3, r3, #1073741824	; 0x40000000
    17c8:	0b42b801 	bleq	10af7d4 <__bss_end__+0x10a517c>
    17cc:	06120111 			; <UNDEFINED> instruction: 0x06120111
    17d0:	0b590b58 	bleq	1644538 <__bss_end__+0x1639ee0>
    17d4:	00000b57 	andeq	r0, r0, r7, asr fp
    17d8:	31011d18 	tstcc	r1, r8, lsl sp
    17dc:	b8015213 	stmdalt	r1, {r0, r1, r4, r9, ip, lr}
    17e0:	17550b42 	ldrbne	r0, [r5, -r2, asr #22]
    17e4:	0b590b58 	bleq	164454c <__bss_end__+0x1639ef4>
    17e8:	00000b57 	andeq	r0, r0, r7, asr fp
    17ec:	31000519 	tstcc	r0, r9, lsl r5
    17f0:	000b1c13 	andeq	r1, fp, r3, lsl ip
    17f4:	010b1a00 	tsteq	fp, r0, lsl #20
    17f8:	00001755 	andeq	r1, r0, r5, asr r7
    17fc:	3100341b 	tstcc	r0, fp, lsl r4
    1800:	1c000013 	stcne	0, cr0, [r0], {19}
    1804:	13310034 	teqne	r1, #52, 0	; 0x34
    1808:	42b71702 	adcsmi	r1, r7, #524288	; 0x80000
    180c:	1d000017 	stcne	0, cr0, [r0, #-92]	; 0xffffffa4
    1810:	01018289 	smlabbeq	r1, r9, r2, r8
    1814:	13310111 	teqne	r1, #1073741828	; 0x40000004
    1818:	00001301 	andeq	r1, r0, r1, lsl #6
    181c:	3f012e1e 	svccc	0x00012e1e
    1820:	3a0e0319 	bcc	38248c <__bss_end__+0x377e34>
    1824:	390b3b0b 	stmdbcc	fp, {r0, r1, r3, r8, r9, fp, ip, sp}
    1828:	2019270b 	andscs	r2, r9, fp, lsl #14
    182c:	0013010b 	andseq	r0, r3, fp, lsl #2
    1830:	00051f00 	andeq	r1, r5, r0, lsl #30
    1834:	0b3a0803 	bleq	e83848 <__bss_end__+0xe791f0>
    1838:	0b390b3b 	bleq	e4452c <__bss_end__+0xe39ed4>
    183c:	00001349 	andeq	r1, r0, r9, asr #6
    1840:	03000520 	movweq	r0, #1312	; 0x520
    1844:	3b0b3a0e 	blcc	2d0084 <__bss_end__+0x2c5a2c>
    1848:	490b390b 	stmdbmi	fp, {r0, r1, r3, r8, fp, ip, sp}
    184c:	21000013 	tstcs	r0, r3, lsl r0
    1850:	08030034 	stmdaeq	r3, {r2, r4, r5}
    1854:	0b3b0b3a 	bleq	ec4544 <__bss_end__+0xeb9eec>
    1858:	13490b39 	movtne	r0, #39737	; 0x9b39
    185c:	2e220000 	cdpcs	0, 2, cr0, cr2, cr0, {0}
    1860:	3a0e0301 	bcc	38246c <__bss_end__+0x377e14>
    1864:	390b3b0b 	stmdbcc	fp, {r0, r1, r3, r8, r9, fp, ip, sp}
    1868:	4919270b 	ldmdbmi	r9, {r0, r1, r3, r8, r9, sl, sp}
    186c:	010b2013 	tsteq	fp, r3, lsl r0
    1870:	23000013 	movwcs	r0, #19
    1874:	1331012e 	teqne	r1, #-2147483637	; 0x8000000b
    1878:	06120111 			; <UNDEFINED> instruction: 0x06120111
    187c:	42971840 	addsmi	r1, r7, #64, 16	; 0x400000
    1880:	00130119 	andseq	r0, r3, r9, lsl r1
    1884:	002e2400 	eoreq	r2, lr, r0, lsl #8
    1888:	193c193f 	ldmdbne	ip!, {r0, r1, r2, r3, r4, r5, r8, fp, ip}
    188c:	0e030e6e 	cdpeq	14, 0, cr0, cr3, cr14, {3}
    1890:	0b3b0b3a 	bleq	ec4580 <__bss_end__+0xeb9f28>
    1894:	00000b39 	andeq	r0, r0, r9, lsr fp
    1898:	01110100 	tsteq	r1, r0, lsl #2
    189c:	0b130e25 	bleq	4c5138 <__bss_end__+0x4baae0>
    18a0:	0e1b0e03 	cdpeq	14, 1, cr0, cr11, cr3, {0}
    18a4:	06120111 			; <UNDEFINED> instruction: 0x06120111
    18a8:	00001710 	andeq	r1, r0, r0, lsl r7
    18ac:	0b002402 	bleq	a8bc <__bss_end__+0x264>
    18b0:	030b3e0b 	movweq	r3, #48651	; 0xbe0b
    18b4:	03000008 	movweq	r0, #8
    18b8:	0b0b0024 	bleq	2c1950 <__bss_end__+0x2b72f8>
    18bc:	0e030b3e 	vmoveq.16	d3[0], r0
    18c0:	15040000 	strne	r0, [r4, #-0]
    18c4:	49192701 	ldmdbmi	r9, {r0, r8, r9, sl, sp}
    18c8:	00130113 	andseq	r0, r3, r3, lsl r1
    18cc:	00050500 	andeq	r0, r5, r0, lsl #10
    18d0:	00001349 	andeq	r1, r0, r9, asr #6
    18d4:	03003406 	movweq	r3, #1030	; 0x406
    18d8:	3b0b3a0e 	blcc	2d0118 <__bss_end__+0x2c5ac0>
    18dc:	490b390b 	stmdbmi	fp, {r0, r1, r3, r8, fp, ip, sp}
    18e0:	3c193f13 	ldccc	15, cr3, [r9], {19}
    18e4:	07000019 	smladeq	r0, r9, r0, r0
    18e8:	0b0b000f 	bleq	2c192c <__bss_end__+0x2b72d4>
    18ec:	00001349 	andeq	r1, r0, r9, asr #6
    18f0:	49002608 	stmdbmi	r0, {r3, r9, sl, sp}
    18f4:	09000013 	stmdbeq	r0, {r0, r1, r4}
    18f8:	193f012e 	ldmdbne	pc!, {r1, r2, r3, r5, r8}	; <UNPREDICTABLE>
    18fc:	0b3a0e03 	bleq	e85110 <__bss_end__+0xe7aab8>
    1900:	0b390b3b 	bleq	e445f4 <__bss_end__+0xe39f9c>
    1904:	13491927 	movtne	r1, #39207	; 0x9927
    1908:	06120111 			; <UNDEFINED> instruction: 0x06120111
    190c:	42971840 	addsmi	r1, r7, #64, 16	; 0x400000
    1910:	00130119 	andseq	r0, r3, r9, lsl r1
    1914:	00050a00 	andeq	r0, r5, r0, lsl #20
    1918:	0b3a0e03 	bleq	e8512c <__bss_end__+0xe7aad4>
    191c:	0b390b3b 	bleq	e44610 <__bss_end__+0xe39fb8>
    1920:	18021349 	stmdane	r2, {r0, r3, r6, r8, r9, ip}
    1924:	050b0000 	streq	r0, [fp, #-0]
    1928:	3a080300 	bcc	202530 <__bss_end__+0x1f7ed8>
    192c:	390b3b0b 	stmdbcc	fp, {r0, r1, r3, r8, r9, fp, ip, sp}
    1930:	0213490b 	andseq	r4, r3, #180224	; 0x2c000
    1934:	1742b717 	smlaldne	fp, r2, r7, r7
    1938:	340c0000 	strcc	r0, [ip], #-0
    193c:	3a080300 	bcc	202544 <__bss_end__+0x1f7eec>
    1940:	390b3b0b 	stmdbcc	fp, {r0, r1, r3, r8, r9, fp, ip, sp}
    1944:	0213490b 	andseq	r4, r3, #180224	; 0x2c000
    1948:	1742b717 	smlaldne	fp, r2, r7, r7
    194c:	01000000 	mrseq	r0, (UNDEF: 0)
    1950:	0e250111 	mcreq	1, 1, r0, cr5, cr1, {0}
    1954:	0e030b13 	vmoveq.32	d3[0], r0
    1958:	01110e1b 	tsteq	r1, fp, lsl lr
    195c:	17100612 			; <UNDEFINED> instruction: 0x17100612
    1960:	24020000 	strcs	r0, [r2], #-0
    1964:	3e0b0b00 	vmlacc.f64	d0, d11, d0
    1968:	0008030b 	andeq	r0, r8, fp, lsl #6
    196c:	00240300 	eoreq	r0, r4, r0, lsl #6
    1970:	0b3e0b0b 	bleq	f845a4 <__bss_end__+0xf79f4c>
    1974:	00000e03 	andeq	r0, r0, r3, lsl #28
    1978:	27011504 	strcs	r1, [r1, -r4, lsl #10]
    197c:	01134919 	tsteq	r3, r9, lsl r9
    1980:	05000013 	streq	r0, [r0, #-19]	; 0xffffffed
    1984:	13490005 	movtne	r0, #36869	; 0x9005
    1988:	34060000 	strcc	r0, [r6], #-0
    198c:	3a0e0300 	bcc	382594 <__bss_end__+0x377f3c>
    1990:	390b3b0b 	stmdbcc	fp, {r0, r1, r3, r8, r9, fp, ip, sp}
    1994:	3f13490b 	svccc	0x0013490b
    1998:	00193c19 	andseq	r3, r9, r9, lsl ip
    199c:	000f0700 	andeq	r0, pc, r0, lsl #14
    19a0:	13490b0b 	movtne	r0, #39691	; 0x9b0b
    19a4:	26080000 	strcs	r0, [r8], -r0
    19a8:	00134900 	andseq	r4, r3, r0, lsl #18
    19ac:	012e0900 			; <UNDEFINED> instruction: 0x012e0900
    19b0:	0e03193f 			; <UNDEFINED> instruction: 0x0e03193f
    19b4:	0b3b0b3a 	bleq	ec46a4 <__bss_end__+0xeba04c>
    19b8:	19270b39 	stmdbne	r7!, {r0, r3, r4, r5, r8, r9, fp}
    19bc:	01111349 	tsteq	r1, r9, asr #6
    19c0:	18400612 	stmdane	r0, {r1, r4, r9, sl}^
    19c4:	00194297 	mulseq	r9, r7, r2
    19c8:	00050a00 	andeq	r0, r5, r0, lsl #20
    19cc:	0b3a0803 	bleq	e839e0 <__bss_end__+0xe79388>
    19d0:	0b390b3b 	bleq	e446c4 <__bss_end__+0xe3a06c>
    19d4:	17021349 	strne	r1, [r2, -r9, asr #6]
    19d8:	001742b7 			; <UNDEFINED> instruction: 0x001742b7
    19dc:	11010000 	mrsne	r0, (UNDEF: 1)
    19e0:	130e2501 	movwne	r2, #58625	; 0xe501
    19e4:	1b0e030b 	blne	382618 <__bss_end__+0x377fc0>
    19e8:	1201110e 	andne	r1, r1, #-2147483645	; 0x80000003
    19ec:	00171006 	andseq	r1, r7, r6
    19f0:	00240200 	eoreq	r0, r4, r0, lsl #4
    19f4:	0b3e0b0b 	bleq	f84628 <__bss_end__+0xf79fd0>
    19f8:	00000803 	andeq	r0, r0, r3, lsl #16
    19fc:	0b002403 	bleq	aa10 <__bss_end__+0x3b8>
    1a00:	030b3e0b 	movweq	r3, #48651	; 0xbe0b
    1a04:	0400000e 	streq	r0, [r0], #-14
    1a08:	19270115 	stmdbne	r7!, {r0, r2, r4, r8}
    1a0c:	13011349 	movwne	r1, #4937	; 0x1349
    1a10:	05050000 	streq	r0, [r5, #-0]
    1a14:	00134900 	andseq	r4, r3, r0, lsl #18
    1a18:	00340600 	eorseq	r0, r4, r0, lsl #12
    1a1c:	0b3a0e03 	bleq	e85230 <__bss_end__+0xe7abd8>
    1a20:	0b390b3b 	bleq	e44714 <__bss_end__+0xe3a0bc>
    1a24:	193f1349 	ldmdbne	pc!, {r0, r3, r6, r8, r9, ip}	; <UNPREDICTABLE>
    1a28:	0000193c 	andeq	r1, r0, ip, lsr r9
    1a2c:	0b000f07 	bleq	5650 <__code_start__-0x29b0>
    1a30:	0013490b 	andseq	r4, r3, fp, lsl #18
    1a34:	00260800 	eoreq	r0, r6, r0, lsl #16
    1a38:	00001349 	andeq	r1, r0, r9, asr #6
    1a3c:	3f012e09 	svccc	0x00012e09
    1a40:	3a0e0319 	bcc	3826ac <__bss_end__+0x378054>
    1a44:	390b3b0b 	stmdbcc	fp, {r0, r1, r3, r8, r9, fp, ip, sp}
    1a48:	4919270b 	ldmdbmi	r9, {r0, r1, r3, r8, r9, sl, sp}
    1a4c:	12011113 	andne	r1, r1, #-1073741820	; 0xc0000004
    1a50:	97184006 	ldrls	r4, [r8, -r6]
    1a54:	13011942 	movwne	r1, #6466	; 0x1942
    1a58:	050a0000 	streq	r0, [sl, #-0]
    1a5c:	3a080300 	bcc	202664 <__bss_end__+0x1f800c>
    1a60:	390b3b0b 	stmdbcc	fp, {r0, r1, r3, r8, r9, fp, ip, sp}
    1a64:	0213490b 	andseq	r4, r3, #180224	; 0x2c000
    1a68:	0b000018 	bleq	1ad0 <__code_start__-0x6530>
    1a6c:	08030005 	stmdaeq	r3, {r0, r2}
    1a70:	0b3b0b3a 	bleq	ec4760 <__bss_end__+0xeba108>
    1a74:	13490b39 	movtne	r0, #39737	; 0x9b39
    1a78:	42b71702 	adcsmi	r1, r7, #524288	; 0x80000
    1a7c:	0c000017 	stceq	0, cr0, [r0], {23}
    1a80:	08030034 	stmdaeq	r3, {r2, r4, r5}
    1a84:	0b3b0b3a 	bleq	ec4774 <__bss_end__+0xeba11c>
    1a88:	13490b39 	movtne	r0, #39737	; 0x9b39
    1a8c:	42b71702 	adcsmi	r1, r7, #524288	; 0x80000
    1a90:	00000017 	andeq	r0, r0, r7, lsl r0
    1a94:	25011101 	strcs	r1, [r1, #-257]	; 0xfffffeff
    1a98:	030b130e 	movweq	r1, #45838	; 0xb30e
    1a9c:	110e1b0e 	tstne	lr, lr, lsl #22
    1aa0:	10061201 	andne	r1, r6, r1, lsl #4
    1aa4:	02000017 	andeq	r0, r0, #23, 0
    1aa8:	0b0b0024 	bleq	2c1b40 <__bss_end__+0x2b74e8>
    1aac:	08030b3e 	stmdaeq	r3, {r1, r2, r3, r4, r5, r8, r9, fp}
    1ab0:	16030000 	strne	r0, [r3], -r0
    1ab4:	3a0e0300 	bcc	3826bc <__bss_end__+0x378064>
    1ab8:	390b3b0b 	stmdbcc	fp, {r0, r1, r3, r8, r9, fp, ip, sp}
    1abc:	0013490b 	andseq	r4, r3, fp, lsl #18
    1ac0:	00240400 	eoreq	r0, r4, r0, lsl #8
    1ac4:	0b3e0b0b 	bleq	f846f8 <__bss_end__+0xf7a0a0>
    1ac8:	00000e03 	andeq	r0, r0, r3, lsl #28
    1acc:	49002605 	stmdbmi	r0, {r0, r2, r9, sl, sp}
    1ad0:	06000013 			; <UNDEFINED> instruction: 0x06000013
    1ad4:	19270115 	stmdbne	r7!, {r0, r2, r4, r8}
    1ad8:	13011349 	movwne	r1, #4937	; 0x1349
    1adc:	05070000 	streq	r0, [r7, #-0]
    1ae0:	00134900 	andseq	r4, r3, r0, lsl #18
    1ae4:	00340800 	eorseq	r0, r4, r0, lsl #16
    1ae8:	0b3a0e03 	bleq	e852fc <__bss_end__+0xe7aca4>
    1aec:	0b390b3b 	bleq	e447e0 <__bss_end__+0xe3a188>
    1af0:	193f1349 	ldmdbne	pc!, {r0, r3, r6, r8, r9, ip}	; <UNPREDICTABLE>
    1af4:	0000193c 	andeq	r1, r0, ip, lsr r9
    1af8:	0b000f09 	bleq	5724 <__code_start__-0x28dc>
    1afc:	0013490b 	andseq	r4, r3, fp, lsl #18
    1b00:	012e0a00 			; <UNDEFINED> instruction: 0x012e0a00
    1b04:	0e03193f 			; <UNDEFINED> instruction: 0x0e03193f
    1b08:	0b3b0b3a 	bleq	ec47f8 <__bss_end__+0xeba1a0>
    1b0c:	19270b39 	stmdbne	r7!, {r0, r3, r4, r5, r8, r9, fp}
    1b10:	01111349 	tsteq	r1, r9, asr #6
    1b14:	18400612 	stmdane	r0, {r1, r4, r9, sl}^
    1b18:	01194297 			; <UNDEFINED> instruction: 0x01194297
    1b1c:	0b000013 	bleq	1b70 <__code_start__-0x6490>
    1b20:	08030005 	stmdaeq	r3, {r0, r2}
    1b24:	0b3b0b3a 	bleq	ec4814 <__bss_end__+0xeba1bc>
    1b28:	13490b39 	movtne	r0, #39737	; 0x9b39
    1b2c:	42b71702 	adcsmi	r1, r7, #524288	; 0x80000
    1b30:	0c000017 	stceq	0, cr0, [r0], {23}
    1b34:	08030034 	stmdaeq	r3, {r2, r4, r5}
    1b38:	0b3b0b3a 	bleq	ec4828 <__bss_end__+0xeba1d0>
    1b3c:	13490b39 	movtne	r0, #39737	; 0x9b39
    1b40:	42b71702 	adcsmi	r1, r7, #524288	; 0x80000
    1b44:	00000017 	andeq	r0, r0, r7, lsl r0
    1b48:	25011101 	strcs	r1, [r1, #-257]	; 0xfffffeff
    1b4c:	030b130e 	movweq	r1, #45838	; 0xb30e
    1b50:	110e1b0e 	tstne	lr, lr, lsl #22
    1b54:	10061201 	andne	r1, r6, r1, lsl #4
    1b58:	02000017 	andeq	r0, r0, #23, 0
    1b5c:	0b0b0024 	bleq	2c1bf4 <__bss_end__+0x2b759c>
    1b60:	08030b3e 	stmdaeq	r3, {r1, r2, r3, r4, r5, r8, r9, fp}
    1b64:	24030000 	strcs	r0, [r3], #-0
    1b68:	3e0b0b00 	vmlacc.f64	d0, d11, d0
    1b6c:	000e030b 	andeq	r0, lr, fp, lsl #6
    1b70:	01150400 	tsteq	r5, r0, lsl #8
    1b74:	13491927 	movtne	r1, #39207	; 0x9927
    1b78:	00001301 	andeq	r1, r0, r1, lsl #6
    1b7c:	49000505 	stmdbmi	r0, {r0, r2, r8, sl}
    1b80:	06000013 			; <UNDEFINED> instruction: 0x06000013
    1b84:	0e030034 	mcreq	0, 0, r0, cr3, cr4, {1}
    1b88:	0b3b0b3a 	bleq	ec4878 <__bss_end__+0xeba220>
    1b8c:	13490b39 	movtne	r0, #39737	; 0x9b39
    1b90:	193c193f 	ldmdbne	ip!, {r0, r1, r2, r3, r4, r5, r8, fp, ip}
    1b94:	0f070000 	svceq	0x00070000
    1b98:	490b0b00 	stmdbmi	fp, {r8, r9, fp}
    1b9c:	08000013 	stmdaeq	r0, {r0, r1, r4}
    1ba0:	13490026 	movtne	r0, #36902	; 0x9026
    1ba4:	2e090000 	cdpcs	0, 0, cr0, cr9, cr0, {0}
    1ba8:	03193f00 	tsteq	r9, #0, 30
    1bac:	3b0b3a0e 	blcc	2d03ec <__bss_end__+0x2c5d94>
    1bb0:	270b390b 	strcs	r3, [fp, -fp, lsl #18]
    1bb4:	12011119 	andne	r1, r1, #1073741830	; 0x40000006
    1bb8:	97184006 	ldrls	r4, [r8, -r6]
    1bbc:	00001942 	andeq	r1, r0, r2, asr #18
	...

Disassembly of section .debug_loc:

00000000 <.debug_loc>:
       0:	00000000 	andeq	r0, r0, r0
       4:	000001a8 	andeq	r0, r0, r8, lsr #3
       8:	000001ac 	andeq	r0, r0, ip, lsr #3
       c:	ac500001 	mrrcge	0, 0, r0, r0, cr1	; <UNPREDICTABLE>
      10:	18000001 	stmdane	r0, {r0}
      14:	01000002 	tsteq	r0, r2
      18:	00005500 	andeq	r5, r0, r0, lsl #10
      1c:	00000000 	andeq	r0, r0, r0
      20:	00030000 	andeq	r0, r3, r0
      24:	01a80000 			; <UNDEFINED> instruction: 0x01a80000
      28:	01ac0000 			; <UNDEFINED> instruction: 0x01ac0000
      2c:	00020000 	andeq	r0, r2, r0
      30:	01ac9f30 			; <UNDEFINED> instruction: 0x01ac9f30
      34:	02180000 	andseq	r0, r8, #0, 0
      38:	00010000 	andeq	r0, r1, r0
      3c:	00000054 	andeq	r0, r0, r4, asr r0
	...
      48:	0001bc00 	andeq	fp, r1, r0, lsl #24
      4c:	0001c800 	andeq	ip, r1, r0, lsl #16
      50:	50000100 	andpl	r0, r0, r0, lsl #2
      54:	000001e0 	andeq	r0, r0, r0, ror #3
      58:	000001f8 	strdeq	r0, [r0], -r8
      5c:	00500001 	subseq	r0, r0, r1
	...
      70:	00003000 	andeq	r3, r0, r0
      74:	50000100 	andpl	r0, r0, r0, lsl #2
      78:	00000030 	andeq	r0, r0, r0, lsr r0
      7c:	00000180 	andeq	r0, r0, r0, lsl #3
      80:	80560001 	subshi	r0, r6, r1
      84:	94000001 	strls	r0, [r0], #-1
      88:	04000001 	streq	r0, [r0], #-1
      8c:	5001f300 	andpl	pc, r1, r0, lsl #6
      90:	0000009f 	muleq	r0, pc, r0	; <UNPREDICTABLE>
	...
      9c:	38000000 	stmdacc	r0, {}	; <UNPREDICTABLE>
      a0:	3c000000 	stccc	0, cr0, [r0], {-0}
      a4:	01000000 	mrseq	r0, (UNDEF: 0)
      a8:	003c5000 	eorseq	r5, ip, r0
      ac:	01800000 	orreq	r0, r0, r0
      b0:	00010000 	andeq	r0, r1, r0
      b4:	00018055 	andeq	r8, r1, r5, asr r0
      b8:	00019400 	andeq	r9, r1, r0, lsl #8
      bc:	50000100 	andpl	r0, r0, r0, lsl #2
	...
      c8:	00000002 	andeq	r0, r0, r2
      cc:	00000038 	andeq	r0, r0, r8, lsr r0
      d0:	0000003c 	andeq	r0, r0, ip, lsr r0
      d4:	9f300002 	svcls	0x00300002
      d8:	0000003c 	andeq	r0, r0, ip, lsr r0
      dc:	00000114 	andeq	r0, r0, r4, lsl r1
      e0:	00540001 	subseq	r0, r4, r1
	...
      ec:	00007400 	andeq	r7, r0, r0, lsl #8
      f0:	00009300 	andeq	r9, r0, r0, lsl #6
      f4:	50000100 	andpl	r0, r0, r0, lsl #2
	...
     100:	00440001 	subeq	r0, r4, r1
     104:	005c0000 	subseq	r0, ip, r0
     108:	00020000 	andeq	r0, r2, r0
     10c:	00009f3e 	andeq	r9, r0, lr, lsr pc
     110:	00000000 	andeq	r0, r0, r0
     114:	00010000 	andeq	r0, r1, r0
     118:	00000044 	andeq	r0, r0, r4, asr #32
     11c:	0000005c 	andeq	r0, r0, ip, asr r0
     120:	84f20006 	ldrbthi	r0, [r2], #6
     124:	00000005 	andeq	r0, r0, r5
	...
     130:	00440001 	subeq	r0, r4, r1
     134:	005c0000 	subseq	r0, ip, r0
     138:	00060000 	andeq	r0, r6, r0
     13c:	009cf803 	addseq	pc, ip, r3, lsl #16
     140:	00009f00 	andeq	r9, r0, r0, lsl #30
	...
     14c:	00d00000 	sbcseq	r0, r0, r0
     150:	00f40000 	rscseq	r0, r4, r0
     154:	00010000 	andeq	r0, r1, r0
     158:	00011053 	andeq	r1, r1, r3, asr r0
     15c:	00011800 	andeq	r1, r1, r0, lsl #16
     160:	53000100 	movwpl	r0, #256	; 0x100
	...
     16c:	01180000 	tsteq	r8, r0
     170:	01800000 	orreq	r0, r0, r0
     174:	00010000 	andeq	r0, r1, r0
     178:	00000054 	andeq	r0, r0, r4, asr r0
     17c:	00000000 	andeq	r0, r0, r0
     180:	18000100 	stmdane	r0, {r8}
     184:	30000001 	andcc	r0, r0, r1
     188:	02000001 	andeq	r0, r0, #1, 0
     18c:	009f4a00 	addseq	r4, pc, r0, lsl #20
     190:	00000000 	andeq	r0, r0, r0
     194:	01000000 	mrseq	r0, (UNDEF: 0)
     198:	00011800 	andeq	r1, r1, r0, lsl #16
     19c:	00013000 	andeq	r3, r1, r0
     1a0:	f2000600 	vmax.s8	d0, d0, d0
     1a4:	00000584 	andeq	r0, r0, r4, lsl #11
	...
     1b0:	18000100 	stmdane	r0, {r8}
     1b4:	30000001 	andcc	r0, r0, r1
     1b8:	06000001 	streq	r0, [r0], -r1
     1bc:	9cf80300 	ldclls	3, cr0, [r8]
     1c0:	009f0000 	addseq	r0, pc, r0
     1c4:	00000000 	andeq	r0, r0, r0
     1c8:	01000000 	mrseq	r0, (UNDEF: 0)
     1cc:	00000c00 	andeq	r0, r0, r0, lsl #24
     1d0:	00002400 	andeq	r2, r0, r0, lsl #8
     1d4:	3b000200 	blcc	9dc <__code_start__-0x7624>
     1d8:	0000009f 	muleq	r0, pc, r0	; <UNPREDICTABLE>
     1dc:	00000000 	andeq	r0, r0, r0
     1e0:	0c000100 	stfeqs	f0, [r0], {-0}
     1e4:	24000000 	strcs	r0, [r0], #-0
     1e8:	06000000 	streq	r0, [r0], -r0
     1ec:	0584f200 	streq	pc, [r4, #512]	; 0x200
	...
     1f8:	01000000 	mrseq	r0, (UNDEF: 0)
     1fc:	00000c00 	andeq	r0, r0, r0, lsl #24
     200:	00002400 	andeq	r2, r0, r0, lsl #8
     204:	03000600 	movweq	r0, #1536	; 0x600
     208:	00009cf8 	strdeq	r9, [r0], -r8
     20c:	0000009f 	muleq	r0, pc, r0	; <UNPREDICTABLE>
     210:	00000000 	andeq	r0, r0, r0
     214:	4c000100 	stfmis	f0, [r0], {-0}
     218:	64000001 	strvs	r0, [r0], #-1
     21c:	02000001 	andeq	r0, r0, #1, 0
     220:	009f4b00 	addseq	r4, pc, r0, lsl #22
     224:	00000000 	andeq	r0, r0, r0
     228:	01000000 	mrseq	r0, (UNDEF: 0)
     22c:	00014c00 	andeq	r4, r1, r0, lsl #24
     230:	00016400 	andeq	r6, r1, r0, lsl #8
     234:	f2000600 	vmax.s8	d0, d0, d0
     238:	00000584 	andeq	r0, r0, r4, lsl #11
	...
     244:	4c000100 	stfmis	f0, [r0], {-0}
     248:	64000001 	strvs	r0, [r0], #-1
     24c:	06000001 	streq	r0, [r0], -r1
     250:	9cf80300 	ldclls	3, cr0, [r8]
     254:	009f0000 	addseq	r0, pc, r0
	...
     264:	08000000 	stmdaeq	r0, {}	; <UNPREDICTABLE>
     268:	78000000 	stmdavc	r0, {}	; <UNPREDICTABLE>
     26c:	01000000 	mrseq	r0, (UNDEF: 0)
     270:	00785100 	rsbseq	r5, r8, r0, lsl #2
     274:	00840000 	addeq	r0, r4, r0
     278:	00030000 	andeq	r0, r3, r0
     27c:	849f7870 	ldrhi	r7, [pc], #2160	; 284 <__code_start__-0x7d7c>
     280:	a4000000 	strge	r0, [r0], #-0
     284:	01000000 	mrseq	r0, (UNDEF: 0)
     288:	00a45100 	adceq	r5, r4, r0, lsl #2
     28c:	00bc0000 	adcseq	r0, ip, r0
     290:	00030000 	andeq	r0, r3, r0
     294:	009f7870 	addseq	r7, pc, r0, ror r8	; <UNPREDICTABLE>
	...
     2a0:	10000000 	andne	r0, r0, r0
     2a4:	48000000 	stmdami	r0, {}	; <UNPREDICTABLE>
     2a8:	01000000 	mrseq	r0, (UNDEF: 0)
     2ac:	004c5300 	subeq	r5, ip, r0, lsl #6
     2b0:	00bc0000 	adcseq	r0, ip, r0
     2b4:	00010000 	andeq	r0, r1, r0
     2b8:	00000053 	andeq	r0, r0, r3, asr r0
	...
     2c8:	00010000 	andeq	r0, r1, r0
     2cc:	00012400 	andeq	r2, r1, r0, lsl #8
     2d0:	50000100 	andpl	r0, r0, r0, lsl #2
     2d4:	00000124 	andeq	r0, r0, r4, lsr #2
     2d8:	00000128 	andeq	r0, r0, r8, lsr #2
     2dc:	01f30004 	mvnseq	r0, r4
     2e0:	01289f50 			; <UNDEFINED> instruction: 0x01289f50
     2e4:	01400000 	mrseq	r0, (UNDEF: 64)
     2e8:	00010000 	andeq	r0, r1, r0
     2ec:	00014050 	andeq	r4, r1, r0, asr r0
     2f0:	0001ac00 	andeq	sl, r1, r0, lsl #24
     2f4:	f3000400 	vshl.u8	d0, d0, d0
     2f8:	009f5001 	addseq	r5, pc, r1
	...
     308:	01010000 	mrseq	r0, (UNDEF: 1)
     30c:	00000000 	andeq	r0, r0, r0
     310:	00012400 	andeq	r2, r1, r0, lsl #8
     314:	00012800 	andeq	r2, r1, r0, lsl #16
     318:	50000100 	andpl	r0, r0, r0, lsl #2
     31c:	00000140 	andeq	r0, r0, r0, asr #2
     320:	00000160 	andeq	r0, r0, r0, ror #2
     324:	60500001 	subsvs	r0, r0, r1
     328:	64000001 	strvs	r0, [r0], #-1
     32c:	03000001 	movweq	r0, #1
     330:	9f787000 	svcls	0x00787000
     334:	00000164 	andeq	r0, r0, r4, ror #2
     338:	00000170 	andeq	r0, r0, r0, ror r1
     33c:	70500001 	subsvc	r0, r0, r1
     340:	78000001 	stmdavc	r0, {r0}
     344:	02000001 	andeq	r0, r0, #1, 0
     348:	78007000 	stmdavc	r0, {ip, sp, lr}
     34c:	98000001 	stmdals	r0, {r0}
     350:	01000001 	tsteq	r0, r1
     354:	019c5000 	orrseq	r5, ip, r0
     358:	01ac0000 			; <UNDEFINED> instruction: 0x01ac0000
     35c:	00010000 	andeq	r0, r1, r0
     360:	00000050 	andeq	r0, r0, r0, asr r0
     364:	00000000 	andeq	r0, r0, r0
     368:	01010000 	mrseq	r0, (UNDEF: 1)
     36c:	01000000 	mrseq	r0, (UNDEF: 0)
     370:	18000000 	stmdane	r0, {}	; <UNPREDICTABLE>
     374:	28000001 	stmdacs	r0, {r0}
     378:	01000001 	tsteq	r0, r1
     37c:	01285200 			; <UNDEFINED> instruction: 0x01285200
     380:	01400000 	mrseq	r0, (UNDEF: 64)
     384:	00060000 	andeq	r0, r6, r0
     388:	00a24803 	adceq	r4, r2, r3, lsl #16
     38c:	01409f00 	cmpeq	r0, r0, lsl #30
     390:	01700000 	cmneq	r0, r0
     394:	00010000 	andeq	r0, r1, r0
     398:	00017052 	andeq	r7, r1, r2, asr r0
     39c:	00017800 	andeq	r7, r1, r0, lsl #16
     3a0:	50000100 	andpl	r0, r0, r0, lsl #2
     3a4:	00000178 	andeq	r0, r0, r8, ror r1
     3a8:	0000019b 	muleq	r0, fp, r1
     3ac:	00520001 	subseq	r0, r2, r1
	...
     3b8:	00011000 	andeq	r1, r1, r0
     3bc:	0001ac00 	andeq	sl, r1, r0, lsl #24
     3c0:	54000100 	strpl	r0, [r0], #-256	; 0xffffff00
	...
     3d0:	000000bc 	strheq	r0, [r0], -ip
     3d4:	000000cc 	andeq	r0, r0, ip, asr #1
     3d8:	cc500001 	mrrcgt	0, 0, r0, r0, cr1	; <UNPREDICTABLE>
     3dc:	00000000 	andeq	r0, r0, r0
     3e0:	01000001 	tsteq	r0, r1
     3e4:	00005400 	andeq	r5, r0, r0, lsl #8
	...
     3f4:	000000d4 	ldrdeq	r0, [r0], -r4
     3f8:	000000e4 	andeq	r0, r0, r4, ror #1
     3fc:	e4500001 	ldrb	r0, [r0], #-1
     400:	e7000000 	str	r0, [r0, -r0]
     404:	03000000 	movweq	r0, #0
     408:	9f787000 	svcls	0x00787000
     40c:	000000f4 	strdeq	r0, [r0], -r4
     410:	000000f8 	strdeq	r0, [r0], -r8
     414:	00500001 	subseq	r0, r0, r1
     418:	00000000 	andeq	r0, r0, r0
     41c:	01000000 	mrseq	r0, (UNDEF: 0)
     420:	dc000000 	stcle	0, cr0, [r0], {-0}
     424:	e4000000 	str	r0, [r0], #-0
     428:	01000000 	mrseq	r0, (UNDEF: 0)
     42c:	00e45000 	rsceq	r5, r4, r0
     430:	00e70000 	rsceq	r0, r7, r0
     434:	00030000 	andeq	r0, r3, r0
     438:	009f7870 	addseq	r7, pc, r0, ror r8	; <UNPREDICTABLE>
	...
     448:	07000000 	streq	r0, [r0, -r0]
     44c:	01000000 	mrseq	r0, (UNDEF: 0)
     450:	00075000 	andeq	r5, r7, r0
     454:	000c0000 	andeq	r0, ip, r0
     458:	00040000 	andeq	r0, r4, r0
     45c:	9f5001f3 	svcls	0x005001f3
	...
     46c:	026c0000 	rsbeq	r0, ip, #0, 0
     470:	02840000 	addeq	r0, r4, #0, 0
     474:	00010000 	andeq	r0, r1, r0
     478:	00028450 	andeq	r8, r2, r0, asr r4
     47c:	0002f000 	andeq	pc, r2, r0
     480:	56000100 	strpl	r0, [r0], -r0, lsl #2
     484:	000002f0 	strdeq	r0, [r0], -r0	; <UNPREDICTABLE>
     488:	000002fc 	strdeq	r0, [r0], -ip
     48c:	01f30004 	mvnseq	r0, r4
     490:	00009f50 	andeq	r9, r0, r0, asr pc
	...
     4a0:	0000028c 	andeq	r0, r0, ip, lsl #5
     4a4:	00000297 	muleq	r0, r7, r2
     4a8:	97500001 	ldrbls	r0, [r0, -r1]
     4ac:	f0000002 			; <UNDEFINED> instruction: 0xf0000002
     4b0:	01000002 	tsteq	r0, r2
     4b4:	02f05400 	rscseq	r5, r0, #0, 8
     4b8:	02fc0000 	rscseq	r0, ip, #0, 0
     4bc:	00050000 	andeq	r0, r5, r0
     4c0:	00a25003 	adceq	r5, r2, r3
	...
     4d0:	00018000 	andeq	r8, r1, r0
     4d4:	00019000 	andeq	r9, r1, r0
     4d8:	50000100 	andpl	r0, r0, r0, lsl #2
     4dc:	00000190 	muleq	r0, r0, r1
     4e0:	0000026c 	andeq	r0, r0, ip, ror #4
     4e4:	00540001 	subseq	r0, r4, r1
     4e8:	00000000 	andeq	r0, r0, r0
     4ec:	01000000 	mrseq	r0, (UNDEF: 0)
     4f0:	00000202 	andeq	r0, r0, r2, lsl #4
     4f4:	00000000 	andeq	r0, r0, r0
     4f8:	00019400 	andeq	r9, r1, r0, lsl #8
     4fc:	00019400 	andeq	r9, r1, r0, lsl #8
     500:	54000100 	strpl	r0, [r0], #-256	; 0xffffff00
     504:	00000194 	muleq	r0, r4, r1
     508:	000001d0 	ldrdeq	r0, [r0], -r0	; <UNPREDICTABLE>
     50c:	5c740003 	ldclpl	0, cr0, [r4], #-12
     510:	0001d09f 	muleq	r1, pc, r0	; <UNPREDICTABLE>
     514:	00020400 	andeq	r0, r2, r0, lsl #8
     518:	55000100 	strpl	r0, [r0, #-256]	; 0xffffff00
     51c:	00000204 	andeq	r0, r0, r4, lsl #4
     520:	00000228 	andeq	r0, r0, r8, lsr #4
     524:	5c740003 	ldclpl	0, cr0, [r4], #-12
     528:	0002289f 	muleq	r2, pc, r8	; <UNPREDICTABLE>
     52c:	00026c00 	andeq	r6, r2, r0, lsl #24
     530:	55000100 	strpl	r0, [r0, #-256]	; 0xffffff00
	...
     548:	00200000 	eoreq	r0, r0, r0
     54c:	00380000 	eorseq	r0, r8, r0
     550:	00010000 	andeq	r0, r1, r0
     554:	00003850 	andeq	r3, r0, r0, asr r8
     558:	00004000 	andeq	r4, r0, r0
     55c:	53000100 	movwpl	r0, #256	; 0x100
     560:	00000040 	andeq	r0, r0, r0, asr #32
     564:	00000068 	andeq	r0, r0, r8, rrx
     568:	01f30004 	mvnseq	r0, r4
     56c:	00689f50 	rsbeq	r9, r8, r0, asr pc
     570:	00800000 	addeq	r0, r0, r0
     574:	00010000 	andeq	r0, r1, r0
     578:	00008050 	andeq	r8, r0, r0, asr r0
     57c:	00008800 	andeq	r8, r0, r0, lsl #16
     580:	f3000400 	vshl.u8	d0, d0, d0
     584:	889f5001 	ldmhi	pc, {r0, ip, lr}	; <UNPREDICTABLE>
     588:	94000000 	strls	r0, [r0], #-0
     58c:	01000000 	mrseq	r0, (UNDEF: 0)
     590:	00945300 	addseq	r5, r4, r0, lsl #6
     594:	00c40000 	sbceq	r0, r4, r0
     598:	00040000 	andeq	r0, r4, r0
     59c:	9f5001f3 	svcls	0x005001f3
	...
     5b4:	00000020 	andeq	r0, r0, r0, lsr #32
     5b8:	00000040 	andeq	r0, r0, r0, asr #32
     5bc:	40510001 	subsmi	r0, r1, r1
     5c0:	68000000 	stmdavs	r0, {}	; <UNPREDICTABLE>
     5c4:	01000000 	mrseq	r0, (UNDEF: 0)
     5c8:	00685400 	rsbeq	r5, r8, r0, lsl #8
     5cc:	007c0000 	rsbseq	r0, ip, r0
     5d0:	00010000 	andeq	r0, r1, r0
     5d4:	00007c51 	andeq	r7, r0, r1, asr ip
     5d8:	00008800 	andeq	r8, r0, r0, lsl #16
     5dc:	f3000400 	vshl.u8	d0, d0, d0
     5e0:	889f5101 	ldmhi	pc, {r0, r8, ip, lr}	; <UNPREDICTABLE>
     5e4:	94000000 	strls	r0, [r0], #-0
     5e8:	01000000 	mrseq	r0, (UNDEF: 0)
     5ec:	00945100 	addseq	r5, r4, r0, lsl #2
     5f0:	00c40000 	sbceq	r0, r4, r0
     5f4:	00010000 	andeq	r0, r1, r0
     5f8:	00000054 	andeq	r0, r0, r4, asr r0
	...
     604:	00000001 	andeq	r0, r0, r1
     608:	00003800 	andeq	r3, r0, r0, lsl #16
     60c:	00004700 	andeq	r4, r0, r0, lsl #14
     610:	50000100 	andpl	r0, r0, r0, lsl #2
     614:	00000047 	andeq	r0, r0, r7, asr #32
     618:	00000060 	andeq	r0, r0, r0, rrx
     61c:	88550001 	ldmdahi	r5, {r0}^
     620:	94000000 	strls	r0, [r0], #-0
     624:	01000000 	mrseq	r0, (UNDEF: 0)
     628:	00945000 	addseq	r5, r4, r0
     62c:	00c40000 	sbceq	r0, r4, r0
     630:	00010000 	andeq	r0, r1, r0
     634:	00000055 	andeq	r0, r0, r5, asr r0
     638:	00000000 	andeq	r0, r0, r0
     63c:	00010000 	andeq	r0, r1, r0
     640:	00004800 	andeq	r4, r0, r0, lsl #16
     644:	00006000 	andeq	r6, r0, r0
     648:	50000100 	andpl	r0, r0, r0, lsl #2
     64c:	00000094 	muleq	r0, r4, r0
     650:	000000a8 	andeq	r0, r0, r8, lsr #1
     654:	00500001 	subseq	r0, r0, r1
	...
     660:	20000000 	andcs	r0, r0, r0
     664:	2b000001 	blcs	670 <__code_start__-0x7990>
     668:	01000001 	tsteq	r0, r1
     66c:	012b5000 			; <UNDEFINED> instruction: 0x012b5000
     670:	01800000 	orreq	r0, r0, r0
     674:	00010000 	andeq	r0, r1, r0
     678:	00000055 	andeq	r0, r0, r5, asr r0
	...
     68c:	00013000 	andeq	r3, r1, r0
     690:	00014300 	andeq	r4, r1, r0, lsl #6
     694:	50000100 	andpl	r0, r0, r0, lsl #2
     698:	00000143 	andeq	r0, r0, r3, asr #2
     69c:	00000158 	andeq	r0, r0, r8, asr r1
     6a0:	58540001 	ldmdapl	r4, {r0}^
     6a4:	5c000001 	stcpl	0, cr0, [r0], {1}
     6a8:	01000001 	tsteq	r0, r1
     6ac:	015c5000 	cmpeq	ip, r0
     6b0:	01740000 	cmneq	r4, r0
     6b4:	00010000 	andeq	r0, r1, r0
     6b8:	00017454 	andeq	r7, r1, r4, asr r4
     6bc:	00017800 	andeq	r7, r1, r0, lsl #16
     6c0:	50000100 	andpl	r0, r0, r0, lsl #2
     6c4:	00000178 	andeq	r0, r0, r8, ror r1
     6c8:	00000180 	andeq	r0, r0, r0, lsl #3
     6cc:	00540001 	subseq	r0, r4, r1
	...
     6dc:	e4000000 	str	r0, [r0], #-0
     6e0:	00000000 	andeq	r0, r0, r0
     6e4:	01000001 	tsteq	r0, r1
     6e8:	01005000 	mrseq	r5, (UNDEF: 0)
     6ec:	01100000 	tsteq	r0, r0
     6f0:	00040000 	andeq	r0, r4, r0
     6f4:	9f5001f3 	svcls	0x005001f3
     6f8:	00000110 	andeq	r0, r0, r0, lsl r1
     6fc:	00000114 	andeq	r0, r0, r4, lsl r1
     700:	14500001 	ldrbne	r0, [r0], #-1
     704:	20000001 	andcs	r0, r0, r1
     708:	04000001 	streq	r0, [r0], #-1
     70c:	5001f300 	andpl	pc, r1, r0, lsl #6
     710:	0000009f 	muleq	r0, pc, r0	; <UNPREDICTABLE>
	...
     71c:	0000cc00 	andeq	ip, r0, r0, lsl #24
     720:	0000d700 	andeq	sp, r0, r0, lsl #14
     724:	50000100 	andpl	r0, r0, r0, lsl #2
     728:	000000d7 	ldrdeq	r0, [r0], -r7
     72c:	000000e4 	andeq	r0, r0, r4, ror #1
     730:	00540001 	subseq	r0, r4, r1
	...
     73c:	0000d800 	andeq	sp, r0, r0, lsl #16
     740:	0000dc00 	andeq	sp, r0, r0, lsl #24
     744:	54000100 	strpl	r0, [r0], #-256	; 0xffffff00
	...
     754:	000000c4 	andeq	r0, r0, r4, asr #1
     758:	000000c8 	andeq	r0, r0, r8, asr #1
     75c:	c8500001 	ldmdagt	r0, {r0}^
     760:	cc000000 	stcgt	0, cr0, [r0], {-0}
     764:	03000000 	movweq	r0, #0
     768:	9f5c7000 	svcls	0x005c7000
	...
     778:	00000010 	andeq	r0, r0, r0, lsl r0
     77c:	0000001c 	andeq	r0, r0, ip, lsl r0
     780:	1c500001 	mrrcne	0, 0, r0, r0, cr1	; <UNPREDICTABLE>
     784:	20000000 	andcs	r0, r0, r0
     788:	04000000 	streq	r0, [r0], #-0
     78c:	5001f300 	andpl	pc, r1, r0, lsl #6
     790:	0000009f 	muleq	r0, pc, r0	; <UNPREDICTABLE>
	...
     7a0:	00001c00 	andeq	r1, r0, r0, lsl #24
     7a4:	51000100 	mrspl	r0, (UNDEF: 16)
     7a8:	0000001c 	andeq	r0, r0, ip, lsl r0
     7ac:	00000078 	andeq	r0, r0, r8, ror r0
     7b0:	01f30004 	mvnseq	r0, r4
     7b4:	00009f51 	andeq	r9, r0, r1, asr pc
	...
     7c4:	00580000 	subseq	r0, r8, r0
     7c8:	00010000 	andeq	r0, r1, r0
     7cc:	00005852 	andeq	r5, r0, r2, asr r8
     7d0:	00007800 	andeq	r7, r0, r0, lsl #16
     7d4:	f3000400 	vshl.u8	d0, d0, d0
     7d8:	009f5201 	addseq	r5, pc, r1, lsl #4
     7dc:	00000000 	andeq	r0, r0, r0
     7e0:	02000000 	andeq	r0, r0, #0, 0
     7e4:	01010000 	mrseq	r0, (UNDEF: 1)
     7e8:	01010000 	mrseq	r0, (UNDEF: 1)
     7ec:	01010000 	mrseq	r0, (UNDEF: 1)
     7f0:	00000000 	andeq	r0, r0, r0
     7f4:	00003800 	andeq	r3, r0, r0, lsl #16
     7f8:	50000100 	andpl	r0, r0, r0, lsl #2
     7fc:	00000054 	andeq	r0, r0, r4, asr r0
     800:	00000054 	andeq	r0, r0, r4, asr r0
     804:	54530001 	ldrbpl	r0, [r3], #-1
     808:	5c000000 	stcpl	0, cr0, [r0], {-0}
     80c:	03000000 	movweq	r0, #0
     810:	9f017300 	svcls	0x00017300
     814:	0000005c 	andeq	r0, r0, ip, asr r0
     818:	00000064 	andeq	r0, r0, r4, rrx
     81c:	64520001 	ldrbvs	r0, [r2], #-1
     820:	68000000 	stmdavs	r0, {}	; <UNPREDICTABLE>
     824:	03000000 	movweq	r0, #0
     828:	9f027300 	svcls	0x00027300
     82c:	00000068 	andeq	r0, r0, r8, rrx
     830:	00000074 	andeq	r0, r0, r4, ror r0
     834:	74520001 	ldrbvc	r0, [r2], #-1
     838:	78000000 	stmdavc	r0, {}	; <UNPREDICTABLE>
     83c:	03000000 	movweq	r0, #0
     840:	9f017200 	svcls	0x00017200
	...
     84c:	00080000 	andeq	r0, r8, r0
     850:	00780000 	rsbseq	r0, r8, r0
     854:	00010000 	andeq	r0, r1, r0
     858:	00000054 	andeq	r0, r0, r4, asr r0
	...
     864:	2c000000 	stccs	0, cr0, [r0], {-0}
     868:	34000000 	strcc	r0, [r0], #-0
     86c:	01000000 	mrseq	r0, (UNDEF: 0)
     870:	00345000 	eorseq	r5, r4, r0
     874:	00480000 	subeq	r0, r8, r0
     878:	00010000 	andeq	r0, r1, r0
     87c:	00004854 	andeq	r4, r0, r4, asr r8
     880:	00005800 	andeq	r5, r0, r0, lsl #16
     884:	50000100 	andpl	r0, r0, r0, lsl #2
	...
     898:	0000000b 	andeq	r0, r0, fp
     89c:	0b500001 	bleq	14008a8 <__bss_end__+0x13f6250>
     8a0:	14000000 	strne	r0, [r0], #-0
     8a4:	01000000 	mrseq	r0, (UNDEF: 0)
     8a8:	00005400 	andeq	r5, r0, r0, lsl #8
	...
     8b4:	00010100 	andeq	r0, r1, r0, lsl #2
     8b8:	00000000 	andeq	r0, r0, r0
     8bc:	000c0000 	andeq	r0, ip, r0
     8c0:	00010000 	andeq	r0, r1, r0
     8c4:	00000c50 	andeq	r0, r0, r0, asr ip
     8c8:	00002000 	andeq	r2, r0, r0
     8cc:	54000100 	strpl	r0, [r0], #-256	; 0xffffff00
     8d0:	00000020 	andeq	r0, r0, r0, lsr #32
     8d4:	00000024 	andeq	r0, r0, r4, lsr #32
     8d8:	01740003 	cmneq	r4, r3
     8dc:	0000249f 	muleq	r0, pc, r4	; <UNPREDICTABLE>
     8e0:	00003800 	andeq	r3, r0, r0, lsl #16
     8e4:	54000100 	strpl	r0, [r0], #-256	; 0xffffff00
	...
     8f8:	03880000 	orreq	r0, r8, #0, 0
     8fc:	03940000 	orrseq	r0, r4, #0, 0
     900:	00010000 	andeq	r0, r1, r0
     904:	00039450 	andeq	r9, r3, r0, asr r4
     908:	0003d000 	andeq	sp, r3, r0
     90c:	5b000100 	blpl	d14 <__code_start__-0x72ec>
     910:	000003d0 	ldrdeq	r0, [r0], -r0	; <UNPREDICTABLE>
     914:	00000920 	andeq	r0, r0, r0, lsr #18
     918:	01f30004 	mvnseq	r0, r4
     91c:	09209f50 	stmdbeq	r0!, {r4, r6, r8, r9, sl, fp, ip, pc}
     920:	09280000 	stmdbeq	r8!, {}	; <UNPREDICTABLE>
     924:	00010000 	andeq	r0, r1, r0
     928:	0009285b 	andeq	r2, r9, fp, asr r8
     92c:	0009b400 	andeq	fp, r9, r0, lsl #8
     930:	f3000400 	vshl.u8	d0, d0, d0
     934:	009f5001 	addseq	r5, pc, r1
	...
     944:	88000000 	stmdahi	r0, {}	; <UNPREDICTABLE>
     948:	d0000003 	andle	r0, r0, r3
     94c:	01000003 	tsteq	r0, r3
     950:	03d05100 	bicseq	r5, r0, #0
     954:	09200000 	stmdbeq	r0!, {}	; <UNPREDICTABLE>
     958:	00040000 	andeq	r0, r4, r0
     95c:	9f5101f3 	svcls	0x005101f3
     960:	00000920 	andeq	r0, r0, r0, lsr #18
     964:	00000928 	andeq	r0, r0, r8, lsr #18
     968:	28510001 	ldmdacs	r1, {r0}^
     96c:	b4000009 	strlt	r0, [r0], #-9
     970:	04000009 	streq	r0, [r0], #-9
     974:	5101f300 	mrspl	pc, SP_irq	; <UNPREDICTABLE>
     978:	0000009f 	muleq	r0, pc, r0	; <UNPREDICTABLE>
	...
     988:	01000001 	tsteq	r0, r1
	...
     998:	00038800 	andeq	r8, r3, r0, lsl #16
     99c:	0003d000 	andeq	sp, r3, r0
     9a0:	52000100 	andpl	r0, r0, #0
     9a4:	000003d0 	ldrdeq	r0, [r0], -r0	; <UNPREDICTABLE>
     9a8:	00000400 	andeq	r0, r0, r0, lsl #8
     9ac:	14560001 	ldrbne	r0, [r6], #-1
     9b0:	24000004 	strcs	r0, [r0], #-4
     9b4:	01000004 	tsteq	r0, r4
     9b8:	04245600 	strteq	r5, [r4], #-1536	; 0xfffffa00
     9bc:	04280000 	strteq	r0, [r8], #-0
     9c0:	00030000 	andeq	r0, r3, r0
     9c4:	a89f7f76 	ldmge	pc, {r1, r2, r4, r5, r6, r8, r9, sl, fp, ip, sp, lr}	; <UNPREDICTABLE>
     9c8:	ac000004 	stcge	0, cr0, [r0], {4}
     9cc:	01000004 	tsteq	r0, r4
     9d0:	04e05600 	strbteq	r5, [r0], #1536	; 0x600
     9d4:	05040000 	streq	r0, [r4, #-0]
     9d8:	00010000 	andeq	r0, r1, r0
     9dc:	00057c56 	andeq	r7, r5, r6, asr ip
     9e0:	00058800 	andeq	r8, r5, r0, lsl #16
     9e4:	53000100 	movwpl	r0, #256	; 0x100
     9e8:	00000588 	andeq	r0, r0, r8, lsl #11
     9ec:	000005d0 	ldrdeq	r0, [r0], -r0	; <UNPREDICTABLE>
     9f0:	cc910003 	ldcgt	0, cr0, [r1], {3}
     9f4:	0008007d 	andeq	r0, r8, sp, ror r0
     9f8:	00080f00 	andeq	r0, r8, r0, lsl #30
     9fc:	53000100 	movwpl	r0, #256	; 0x100
     a00:	0000080f 	andeq	r0, r0, pc, lsl #16
     a04:	00000888 	andeq	r0, r0, r8, lsl #17
     a08:	cc910003 	ldcgt	0, cr0, [r1], {3}
     a0c:	0009207d 	andeq	r2, r9, sp, ror r0
     a10:	00092800 	andeq	r2, r9, r0, lsl #16
     a14:	52000100 	andpl	r0, r0, #0
     a18:	00000948 	andeq	r0, r0, r8, asr #18
     a1c:	00000964 	andeq	r0, r0, r4, ror #18
     a20:	cc910003 	ldcgt	0, cr0, [r1], {3}
     a24:	0000007d 	andeq	r0, r0, sp, ror r0
	...
     a34:	01010000 	mrseq	r0, (UNDEF: 1)
     a38:	01010000 	mrseq	r0, (UNDEF: 1)
     a3c:	00000000 	andeq	r0, r0, r0
     a40:	00000202 	andeq	r0, r0, r2, lsl #4
     a44:	00000202 	andeq	r0, r0, r2, lsl #4
     a48:	00000101 	andeq	r0, r0, r1, lsl #2
     a4c:	00000202 	andeq	r0, r0, r2, lsl #4
     a50:	00000101 	andeq	r0, r0, r1, lsl #2
     a54:	00000000 	andeq	r0, r0, r0
     a58:	88000000 	stmdahi	r0, {}	; <UNPREDICTABLE>
     a5c:	ac000003 	stcge	0, cr0, [r0], {3}
     a60:	01000003 	tsteq	r0, r3
     a64:	03ac5300 			; <UNDEFINED> instruction: 0x03ac5300
     a68:	03c00000 	biceq	r0, r0, #0, 0
     a6c:	00030000 	andeq	r0, r3, r0
     a70:	d0049353 	andle	r9, r4, r3, asr r3
     a74:	e8000003 	stmda	r0, {r0, r1}
     a78:	03000003 	movweq	r0, #3
     a7c:	04935800 	ldreq	r5, [r3], #2048	; 0x800
     a80:	000003e8 	andeq	r0, r0, r8, ror #7
     a84:	000004ac 	andeq	r0, r0, ip, lsr #9
     a88:	93580003 	cmpls	r8, #3, 0
     a8c:	0004c004 	andeq	ip, r4, r4
     a90:	0004c000 	andeq	ip, r4, r0
     a94:	58000300 	stmdapl	r0, {r8, r9}
     a98:	04c00493 	strbeq	r0, [r0], #1171	; 0x493
     a9c:	04cc0000 	strbeq	r0, [ip], #0
     aa0:	00050000 	andeq	r0, r5, r0
     aa4:	939f0478 	orrsls	r0, pc, #120, 8	; 0x78000000
     aa8:	0004cc04 	andeq	ip, r4, r4, lsl #24
     aac:	0004e000 	andeq	lr, r4, r0
     ab0:	58000300 	stmdapl	r0, {r8, r9}
     ab4:	04e00493 	strbteq	r0, [r0], #1171	; 0x493
     ab8:	05380000 	ldreq	r0, [r8, #-0]!
     abc:	00030000 	andeq	r0, r3, r0
     ac0:	38049358 	stmdacc	r4, {r3, r4, r6, r8, r9, ip, pc}
     ac4:	3c000005 	stccc	0, cr0, [r0], {5}
     ac8:	05000005 	streq	r0, [r0, #-5]
     acc:	9f797800 	svcls	0x00797800
     ad0:	05d00493 	ldrbeq	r0, [r0, #1171]	; 0x493
     ad4:	05d00000 	ldrbeq	r0, [r0]
     ad8:	00030000 	andeq	r0, r3, r0
     adc:	d0049358 	andle	r9, r4, r8, asr r3
     ae0:	d4000005 	strle	r0, [r0], #-5
     ae4:	05000005 	streq	r0, [r0, #-5]
     ae8:	9f047800 	svcls	0x00047800
     aec:	05f40493 	ldrbeq	r0, [r4, #1171]!	; 0x493
     af0:	05f40000 	ldrbeq	r0, [r4, #0]!
     af4:	00030000 	andeq	r0, r3, r0
     af8:	f4049358 	vst2.16	{d9-d12}, [r4 :64], r8
     afc:	fc000005 	stc2	0, cr0, [r0], {5}
     b00:	05000005 	streq	r0, [r0, #-5]
     b04:	9f047800 	svcls	0x00047800
     b08:	05fc0493 	ldrbeq	r0, [ip, #1171]!	; 0x493
     b0c:	05fc0000 	ldrbeq	r0, [ip, #0]!
     b10:	00030000 	andeq	r0, r3, r0
     b14:	fc049358 	stc2	3, cr9, [r4], {88}	; 0x58
     b18:	00000005 	andeq	r0, r0, r5
     b1c:	05000006 	streq	r0, [r0, #-6]
     b20:	9f047800 	svcls	0x00047800
     b24:	06000493 			; <UNDEFINED> instruction: 0x06000493
     b28:	07000000 	streq	r0, [r0, -r0]
     b2c:	00030000 	andeq	r0, r3, r0
     b30:	00049358 	andeq	r9, r4, r8, asr r3
     b34:	0c000007 	stceq	0, cr0, [r0], {7}
     b38:	05000007 	streq	r0, [r0, #-7]
     b3c:	9f047800 	svcls	0x00047800
     b40:	070c0493 			; <UNDEFINED> instruction: 0x070c0493
     b44:	07f80000 	ldrbeq	r0, [r8, r0]!
     b48:	00030000 	andeq	r0, r3, r0
     b4c:	f8049358 			; <UNDEFINED> instruction: 0xf8049358
     b50:	fc000007 	stc2	0, cr0, [r0], {7}
     b54:	05000007 	streq	r0, [r0, #-7]
     b58:	9f047800 	svcls	0x00047800
     b5c:	07fc0493 			; <UNDEFINED> instruction: 0x07fc0493
     b60:	08000000 	stmdaeq	r0, {}	; <UNPREDICTABLE>
     b64:	00030000 	andeq	r0, r3, r0
     b68:	88049358 	stmdahi	r4, {r3, r4, r6, r8, r9, ip, pc}
     b6c:	20000008 	andcs	r0, r0, r8
     b70:	03000009 	movweq	r0, #9
     b74:	04935800 	ldreq	r5, [r3], #2048	; 0x800
     b78:	00000920 	andeq	r0, r0, r0, lsr #18
     b7c:	00000928 	andeq	r0, r0, r8, lsr #18
     b80:	64530001 	ldrbvs	r0, [r3], #-1
     b84:	b4000009 	strlt	r0, [r0], #-9
     b88:	03000009 	movweq	r0, #9
     b8c:	04935800 	ldreq	r5, [r3], #2048	; 0x800
	...
     b98:	00000001 	andeq	r0, r0, r1
     b9c:	00000000 	andeq	r0, r0, r0
     ba0:	00020200 	andeq	r0, r2, r0, lsl #4
     ba4:	01010000 	mrseq	r0, (UNDEF: 1)
     ba8:	00000001 	andeq	r0, r0, r1
     bac:	03ac0000 			; <UNDEFINED> instruction: 0x03ac0000
     bb0:	03d00000 	bicseq	r0, r0, #0, 0
     bb4:	00010000 	andeq	r0, r1, r0
     bb8:	0003d05b 	andeq	sp, r3, fp, asr r0
     bbc:	0003d400 	andeq	sp, r3, r0, lsl #8
     bc0:	54000100 	strpl	r0, [r0], #-256	; 0xffffff00
     bc4:	000003d4 	ldrdeq	r0, [r0], -r4
     bc8:	000003d8 	ldrdeq	r0, [r0], -r8
     bcc:	7f740003 	svcvc	0x00740003
     bd0:	0003d89f 	muleq	r3, pc, r8	; <UNPREDICTABLE>
     bd4:	0003fc00 	andeq	pc, r3, r0, lsl #24
     bd8:	54000100 	strpl	r0, [r0], #-256	; 0xffffff00
     bdc:	000004a8 	andeq	r0, r0, r8, lsr #9
     be0:	000004ac 	andeq	r0, r0, ip, lsr #9
     be4:	ac540001 	mrrcge	0, 0, r0, r4, cr1
     be8:	b4000004 	strlt	r0, [r0], #-4
     bec:	03000004 	movweq	r0, #4
     bf0:	9f017400 	svcls	0x00017400
     bf4:	000004b4 			; <UNDEFINED> instruction: 0x000004b4
     bf8:	000004c0 	andeq	r0, r0, r0, asr #9
     bfc:	e4540001 	ldrb	r0, [r4], #-1
     c00:	f4000004 	vst4.8	{d0-d3}, [r0], r4
     c04:	01000004 	tsteq	r0, r4
     c08:	04f45400 	ldrbteq	r5, [r4], #1024	; 0x400
     c0c:	04f80000 	ldrbteq	r0, [r8], #0
     c10:	00030000 	andeq	r0, r3, r0
     c14:	f89f0174 			; <UNDEFINED> instruction: 0xf89f0174
     c18:	04000004 	streq	r0, [r0], #-4
     c1c:	01000005 	tsteq	r0, r5
     c20:	09205400 	stmdbeq	r0!, {sl, ip, lr}
     c24:	09280000 	stmdbeq	r8!, {}	; <UNPREDICTABLE>
     c28:	00010000 	andeq	r0, r1, r0
     c2c:	0000005b 	andeq	r0, r0, fp, asr r0
     c30:	00000000 	andeq	r0, r0, r0
     c34:	ac000100 	stfges	f0, [r0], {-0}
     c38:	b4000003 	strlt	r0, [r0], #-3
     c3c:	01000009 	tsteq	r0, r9
     c40:	00005700 	andeq	r5, r0, r0, lsl #14
     c44:	00000000 	andeq	r0, r0, r0
     c48:	00020000 	andeq	r0, r2, r0
     c4c:	00000000 	andeq	r0, r0, r0
     c50:	0000057c 	andeq	r0, r0, ip, ror r5
     c54:	000005d0 	ldrdeq	r0, [r0], -r0	; <UNPREDICTABLE>
     c58:	005b0001 	subseq	r0, fp, r1
     c5c:	88000008 	stmdahi	r0, {r3}
     c60:	01000008 	tsteq	r0, r8
     c64:	09485b00 	stmdbeq	r8, {r8, r9, fp, ip, lr}^
     c68:	09640000 	stmdbeq	r4!, {}^	; <UNPREDICTABLE>
     c6c:	00010000 	andeq	r0, r1, r0
     c70:	0000005b 	andeq	r0, r0, fp, asr r0
     c74:	00000000 	andeq	r0, r0, r0
     c78:	00000300 	andeq	r0, r0, r0, lsl #6
     c7c:	7c000000 	stcvc	0, cr0, [r0], {-0}
     c80:	d0000005 	andle	r0, r0, r5
     c84:	01000005 	tsteq	r0, r5
     c88:	08005900 	stmdaeq	r0, {r8, fp, ip, lr}
     c8c:	08880000 	stmeq	r8, {}	; <UNPREDICTABLE>
     c90:	00010000 	andeq	r0, r1, r0
     c94:	00094859 	andeq	r4, r9, r9, asr r8
     c98:	00096400 	andeq	r6, r9, r0, lsl #8
     c9c:	59000100 	stmdbpl	r0, {r8}
	...
     ca8:	00000004 	andeq	r0, r0, r4
     cac:	00000000 	andeq	r0, r0, r0
     cb0:	000003ac 	andeq	r0, r0, ip, lsr #7
     cb4:	000003d0 	ldrdeq	r0, [r0], -r0	; <UNPREDICTABLE>
     cb8:	d0520001 	subsle	r0, r2, r1
     cbc:	20000003 	andcs	r0, r0, r3
     cc0:	04000009 	streq	r0, [r0], #-9
     cc4:	5201f300 	andpl	pc, r1, #0, 6
     cc8:	0009209f 	muleq	r9, pc, r0	; <UNPREDICTABLE>
     ccc:	00092800 	andeq	r2, r9, r0, lsl #16
     cd0:	52000100 	andpl	r0, r0, #0
     cd4:	00000928 	andeq	r0, r0, r8, lsr #18
     cd8:	000009b4 			; <UNDEFINED> instruction: 0x000009b4
     cdc:	01f30004 	mvnseq	r0, r4
     ce0:	00009f52 	andeq	r9, r0, r2, asr pc
     ce4:	00000000 	andeq	r0, r0, r0
     ce8:	01000000 	mrseq	r0, (UNDEF: 0)
     cec:	00000001 	andeq	r0, r0, r1
     cf0:	00010000 	andeq	r0, r1, r0
     cf4:	04e00000 	strbteq	r0, [r0], #0
     cf8:	04e00000 	strbteq	r0, [r0], #0
     cfc:	00010000 	andeq	r0, r1, r0
     d00:	0004e050 	andeq	lr, r4, r0, asr r0
     d04:	0004e800 	andeq	lr, r4, r0, lsl #16
     d08:	55000100 	strpl	r0, [r0, #-256]	; 0xffffff00
     d0c:	000005b8 			; <UNDEFINED> instruction: 0x000005b8
     d10:	000005d0 	ldrdeq	r0, [r0], -r0	; <UNPREDICTABLE>
     d14:	f0550001 			; <UNDEFINED> instruction: 0xf0550001
     d18:	f4000005 	vst4.8	{d0-d3}, [r0], r5
     d1c:	01000005 	tsteq	r0, r5
     d20:	07f45000 	ldrbeq	r5, [r4, r0]!
     d24:	07f80000 	ldrbeq	r0, [r8, r0]!
     d28:	00010000 	andeq	r0, r1, r0
     d2c:	00085055 	andeq	r5, r8, r5, asr r0
     d30:	00088800 	andeq	r8, r8, r0, lsl #16
     d34:	55000100 	strpl	r0, [r0, #-256]	; 0xffffff00
	...
     d40:	00000002 	andeq	r0, r0, r2
     d44:	00000000 	andeq	r0, r0, r0
     d48:	00000414 	andeq	r0, r0, r4, lsl r4
     d4c:	00000418 	andeq	r0, r0, r8, lsl r4
     d50:	9f300002 	svcls	0x00300002
     d54:	00000418 	andeq	r0, r0, r8, lsl r4
     d58:	0000041c 	andeq	r0, r0, ip, lsl r4
     d5c:	28550001 	ldmdacs	r5, {r0}^
     d60:	3c000004 	stccc	0, cr0, [r0], {4}
     d64:	01000004 	tsteq	r0, r4
     d68:	09285500 	stmdbeq	r8!, {r8, sl, ip, lr}
     d6c:	09300000 	ldmdbeq	r0!, {}	; <UNPREDICTABLE>
     d70:	00010000 	andeq	r0, r1, r0
     d74:	00000055 	andeq	r0, r0, r5, asr r0
     d78:	00000000 	andeq	r0, r0, r0
     d7c:	00000100 	andeq	r0, r0, r0, lsl #2
	...
     d88:	00050400 	andeq	r0, r5, r0, lsl #8
     d8c:	00058400 	andeq	r8, r5, r0, lsl #8
     d90:	56000100 	strpl	r0, [r0], -r0, lsl #2
     d94:	00000584 	andeq	r0, r0, r4, lsl #11
     d98:	00000588 	andeq	r0, r0, r8, lsl #11
     d9c:	7e730003 	cdpvc	0, 7, cr0, cr3, cr3, {0}
     da0:	0005889f 	muleq	r5, pc, r8	; <UNPREDICTABLE>
     da4:	0005d000 	andeq	sp, r5, r0
     da8:	91000700 	tstls	r0, r0, lsl #14
     dac:	32067dcc 	andcc	r7, r6, #204, 26	; 0x3300
     db0:	08009f1c 	stmdaeq	r0, {r2, r3, r4, r8, r9, sl, fp, ip, pc}
     db4:	081c0000 	ldmdaeq	ip, {}	; <UNPREDICTABLE>
     db8:	00010000 	andeq	r0, r1, r0
     dbc:	00081c56 	andeq	r1, r8, r6, asr ip
     dc0:	00088800 	andeq	r8, r8, r0, lsl #16
     dc4:	91000700 	tstls	r0, r0, lsl #14
     dc8:	32067dcc 	andcc	r7, r6, #204, 26	; 0x3300
     dcc:	09489f1c 	stmdbeq	r8, {r2, r3, r4, r8, r9, sl, fp, ip, pc}^
     dd0:	09b40000 	ldmibeq	r4!, {}	; <UNPREDICTABLE>
     dd4:	00010000 	andeq	r0, r1, r0
     dd8:	00000056 	andeq	r0, r0, r6, asr r0
     ddc:	00000000 	andeq	r0, r0, r0
     de0:	02060400 	andeq	r0, r6, #0, 8
     de4:	00041404 	andeq	r1, r4, r4, lsl #8
     de8:	00041400 	andeq	r1, r4, r0, lsl #8
     dec:	72000600 	andvc	r0, r0, #0, 12
     df0:	1aff0800 	bne	fffc2df8 <__bss_end__+0xfffb87a0>
     df4:	0004289f 	muleq	r4, pc, r8	; <UNPREDICTABLE>
     df8:	00042800 	andeq	r2, r4, r0, lsl #16
     dfc:	72000600 	andvc	r0, r0, #0, 12
     e00:	1aff0800 	bne	fffc2e08 <__bss_end__+0xfffb87b0>
     e04:	0000009f 	muleq	r0, pc, r0	; <UNPREDICTABLE>
     e08:	00000000 	andeq	r0, r0, r0
     e0c:	00000200 	andeq	r0, r0, r0, lsl #4
     e10:	fc000000 	stc2	0, cr0, [r0], {-0}
     e14:	00000005 	andeq	r0, r0, r5
     e18:	03000007 	movweq	r0, #7
     e1c:	9f800800 	svcls	0x00800800
     e20:	000008a8 	andeq	r0, r0, r8, lsr #17
     e24:	000008bc 			; <UNDEFINED> instruction: 0x000008bc
     e28:	80080003 	andhi	r0, r8, r3
     e2c:	0009109f 	muleq	r9, pc, r0	; <UNPREDICTABLE>
     e30:	00092000 	andeq	r2, r9, r0
     e34:	08000300 	stmdaeq	r0, {r8, r9}
     e38:	00009f80 	andeq	r9, r0, r0, lsl #31
     e3c:	00000000 	andeq	r0, r0, r0
     e40:	00010000 	andeq	r0, r1, r0
     e44:	00000000 	andeq	r0, r0, r0
     e48:	000005fc 	strdeq	r0, [r0], -ip
     e4c:	00000700 	andeq	r0, r0, r0, lsl #14
     e50:	9f300002 	svcls	0x00300002
     e54:	000008a8 	andeq	r0, r0, r8, lsr #17
     e58:	000008bc 			; <UNDEFINED> instruction: 0x000008bc
     e5c:	9f300002 	svcls	0x00300002
     e60:	00000910 	andeq	r0, r0, r0, lsl r9
     e64:	00000920 	andeq	r0, r0, r0, lsr #18
     e68:	9f300002 	svcls	0x00300002
	...
     e74:	00000001 	andeq	r0, r0, r1
     e78:	05fc0000 	ldrbeq	r0, [ip, #0]!
     e7c:	06e00000 	strbteq	r0, [r0], r0
     e80:	00010000 	andeq	r0, r1, r0
     e84:	0008a855 	andeq	sl, r8, r5, asr r8
     e88:	0008bc00 	andeq	fp, r8, r0, lsl #24
     e8c:	55000100 	strpl	r0, [r0, #-256]	; 0xffffff00
     e90:	00000910 	andeq	r0, r0, r0, lsl r9
     e94:	00000920 	andeq	r0, r0, r0, lsr #18
     e98:	00550001 	subseq	r0, r5, r1
     e9c:	00000000 	andeq	r0, r0, r0
     ea0:	01000000 	mrseq	r0, (UNDEF: 0)
     ea4:	00000000 	andeq	r0, r0, r0
     ea8:	fc000000 	stc2	0, cr0, [r0], {-0}
     eac:	e0000005 	and	r0, r0, r5
     eb0:	04000006 	streq	r0, [r0], #-6
     eb4:	7dd09100 	ldfvcp	f1, [r0]
     eb8:	0006e09f 	muleq	r6, pc, r0	; <UNPREDICTABLE>
     ebc:	00070000 	andeq	r0, r7, r0
     ec0:	55000100 	strpl	r0, [r0, #-256]	; 0xffffff00
     ec4:	000008a8 	andeq	r0, r0, r8, lsr #17
     ec8:	000008bc 			; <UNDEFINED> instruction: 0x000008bc
     ecc:	d0910004 	addsle	r0, r1, r4
     ed0:	09109f7d 	ldmdbeq	r0, {r0, r2, r3, r4, r5, r6, r8, r9, sl, fp, ip, pc}
     ed4:	09200000 	stmdbeq	r0!, {}	; <UNPREDICTABLE>
     ed8:	00040000 	andeq	r0, r4, r0
     edc:	9f7dd091 	svcls	0x007dd091
	...
     ee8:	00000001 	andeq	r0, r0, r1
     eec:	05fc0000 	ldrbeq	r0, [ip, #0]!
     ef0:	07000000 	streq	r0, [r0, -r0]
     ef4:	00020000 	andeq	r0, r2, r0
     ef8:	08a89f38 	stmiaeq	r8!, {r3, r4, r5, r8, r9, sl, fp, ip, pc}
     efc:	08bc0000 	ldmeq	ip!, {}	; <UNPREDICTABLE>
     f00:	00020000 	andeq	r0, r2, r0
     f04:	09109f38 	ldmdbeq	r0, {r3, r4, r5, r8, r9, sl, fp, ip, pc}
     f08:	09200000 	stmdbeq	r0!, {}	; <UNPREDICTABLE>
     f0c:	00020000 	andeq	r0, r2, r0
     f10:	00009f38 	andeq	r9, r0, r8, lsr pc
     f14:	00000000 	andeq	r0, r0, r0
     f18:	07040000 	streq	r0, [r4, -r0]
     f1c:	00000007 	andeq	r0, r0, r7
	...
     f28:	000005fc 	strdeq	r0, [r0], -ip
     f2c:	000005fc 	strdeq	r0, [r0], -ip
     f30:	d0910004 	addsle	r0, r1, r4
     f34:	05fc9f7e 	ldrbeq	r9, [ip, #3966]!	; 0xf7e
     f38:	06780000 	ldrbteq	r0, [r8], -r0
     f3c:	00040000 	andeq	r0, r4, r0
     f40:	9f7ed191 	svcls	0x007ed191
     f44:	00000678 	andeq	r0, r0, r8, ror r6
     f48:	000006d4 	ldrdeq	r0, [r0], -r4
     f4c:	d45c0001 	ldrble	r0, [ip], #-1
     f50:	00000006 	andeq	r0, r0, r6
     f54:	04000007 	streq	r0, [r0], #-7
     f58:	7ed19100 	atnvcs	f1, f0
     f5c:	0008a89f 	muleq	r8, pc, r8	; <UNPREDICTABLE>
     f60:	0008bc00 	andeq	fp, r8, r0, lsl #24
     f64:	91000400 	tstls	r0, r0, lsl #8
     f68:	109f7ed1 			; <UNDEFINED> instruction: 0x109f7ed1
     f6c:	14000009 	strne	r0, [r0], #-9
     f70:	04000009 	streq	r0, [r0], #-9
     f74:	7ed19100 	atnvcs	f1, f0
     f78:	0009149f 	muleq	r9, pc, r4	; <UNPREDICTABLE>
     f7c:	00092000 	andeq	r2, r9, r0
     f80:	5c000100 	stfpls	f0, [r0], {-0}
	...
     f8c:	01000104 	tsteq	r0, r4, lsl #2
     f90:	06080000 	streq	r0, [r8], -r0
     f94:	06d00000 	ldrbeq	r0, [r0], r0
     f98:	00010000 	andeq	r0, r1, r0
     f9c:	0008a855 	andeq	sl, r8, r5, asr r8
     fa0:	0008b800 	andeq	fp, r8, r0, lsl #16
     fa4:	55000100 	strpl	r0, [r0, #-256]	; 0xffffff00
     fa8:	00000910 	andeq	r0, r0, r0, lsl r9
     fac:	00000920 	andeq	r0, r0, r0, lsr #18
     fb0:	00550001 	subseq	r0, r5, r1
     fb4:	00000000 	andeq	r0, r0, r0
     fb8:	04000000 	streq	r0, [r0], #-0
     fbc:	00000000 	andeq	r0, r0, r0
     fc0:	00000001 	andeq	r0, r0, r1
     fc4:	08000001 	stmdaeq	r0, {r0}
     fc8:	b0000006 	andlt	r0, r0, r6
     fcc:	04000006 	streq	r0, [r0], #-6
     fd0:	7ed09100 	atnvcs	f1, f0
     fd4:	0006b09f 	muleq	r6, pc, r0	; <UNPREDICTABLE>
     fd8:	0006c800 	andeq	ip, r6, r0, lsl #16
     fdc:	50000100 	andpl	r0, r0, r0, lsl #2
     fe0:	000006c8 	andeq	r0, r0, r8, asr #13
     fe4:	000006d0 	ldrdeq	r0, [r0], -r0	; <UNPREDICTABLE>
     fe8:	d0910004 	addsle	r0, r1, r4
     fec:	08a89f7e 	stmiaeq	r8!, {r1, r2, r3, r4, r5, r6, r8, r9, sl, fp, ip, pc}
     ff0:	08b00000 	ldmeq	r0!, {}	; <UNPREDICTABLE>
     ff4:	00040000 	andeq	r0, r4, r0
     ff8:	9f7ed091 	svcls	0x007ed091
     ffc:	000008b0 			; <UNDEFINED> instruction: 0x000008b0
    1000:	000008b8 			; <UNDEFINED> instruction: 0x000008b8
    1004:	10530001 	subsne	r0, r3, r1
    1008:	20000009 	andcs	r0, r0, r9
    100c:	04000009 	streq	r0, [r0], #-9
    1010:	7ed09100 	atnvcs	f1, f0
    1014:	0000009f 	muleq	r0, pc, r0	; <UNPREDICTABLE>
    1018:	00000000 	andeq	r0, r0, r0
    101c:	00000400 	andeq	r0, r0, r0, lsl #8
    1020:	01010101 	tsteq	r1, r1, lsl #2
    1024:	00020303 	andeq	r0, r2, r3, lsl #6
    1028:	00000001 	andeq	r0, r0, r1
    102c:	00060800 	andeq	r0, r6, r0, lsl #16
    1030:	00062400 	andeq	r2, r6, r0, lsl #8
    1034:	91000400 	tstls	r0, r0, lsl #8
    1038:	849f7ed1 	ldrhi	r7, [pc], #3793	; 1040 <__code_start__-0x6fc0>
    103c:	84000006 	strhi	r0, [r0], #-6
    1040:	01000006 	tsteq	r0, r6
    1044:	06845000 	streq	r5, [r4], r0
    1048:	06980000 	ldreq	r0, [r8], r0
    104c:	00030000 	andeq	r0, r3, r0
    1050:	989f0170 	ldmls	pc, {r4, r5, r6, r8}	; <UNPREDICTABLE>
    1054:	a4000006 	strge	r0, [r0], #-6
    1058:	03000006 	movweq	r0, #6
    105c:	9f027000 	svcls	0x00027000
    1060:	000006a4 	andeq	r0, r0, r4, lsr #13
    1064:	000006a8 	andeq	r0, r0, r8, lsr #13
    1068:	03700003 	cmneq	r0, #3, 0
    106c:	0008a89f 	muleq	r8, pc, r8	; <UNPREDICTABLE>
    1070:	0008b800 	andeq	fp, r8, r0, lsl #16
    1074:	91000400 	tstls	r0, r0, lsl #8
    1078:	109f7ed1 			; <UNDEFINED> instruction: 0x109f7ed1
    107c:	14000009 	strne	r0, [r0], #-9
    1080:	04000009 	streq	r0, [r0], #-9
    1084:	7ed19100 	atnvcs	f1, f0
    1088:	0009149f 	muleq	r9, pc, r4	; <UNPREDICTABLE>
    108c:	00092000 	andeq	r2, r9, r0
    1090:	5c000100 	stfpls	f0, [r0], {-0}
	...
    109c:	01000006 	tsteq	r0, r6
    10a0:	01010101 	tsteq	r1, r1, lsl #2
    10a4:	01000201 	tsteq	r0, r1, lsl #4
    10a8:	06080000 	streq	r0, [r8], -r0
    10ac:	06240000 	strteq	r0, [r4], -r0
    10b0:	00020000 	andeq	r0, r2, r0
    10b4:	06849f31 			; <UNDEFINED> instruction: 0x06849f31
    10b8:	06940000 	ldreq	r0, [r4], r0
    10bc:	00010000 	andeq	r0, r1, r0
    10c0:	00069452 	andeq	r9, r6, r2, asr r4
    10c4:	0006a400 	andeq	sl, r6, r0, lsl #8
    10c8:	59000100 	stmdbpl	r0, {r8}
    10cc:	000006a4 	andeq	r0, r0, r4, lsr #13
    10d0:	000006a8 	andeq	r0, r0, r8, lsr #13
    10d4:	a8520001 	ldmdage	r2, {r0}^
    10d8:	a8000006 	stmdage	r0, {r1, r2}
    10dc:	03000006 	movweq	r0, #6
    10e0:	9f017200 	svcls	0x00017200
    10e4:	000008a8 	andeq	r0, r0, r8, lsr #17
    10e8:	000008b8 			; <UNDEFINED> instruction: 0x000008b8
    10ec:	9f310002 	svcls	0x00310002
    10f0:	00000910 	andeq	r0, r0, r0, lsl r9
    10f4:	00000920 	andeq	r0, r0, r0, lsr #18
    10f8:	9f310002 	svcls	0x00310002
	...
    1104:	00060601 	andeq	r0, r6, r1, lsl #12
    1108:	06d00001 	ldrbeq	r0, [r0], r1
    110c:	06d00000 	ldrbeq	r0, [r0], r0
    1110:	00040000 	andeq	r0, r4, r0
    1114:	9f7ed091 	svcls	0x007ed091
    1118:	000006d0 	ldrdeq	r0, [r0], -r0	; <UNPREDICTABLE>
    111c:	00000700 	andeq	r0, r0, r0, lsl #14
    1120:	b8500001 	ldmdalt	r0, {r0}^
    1124:	bc000008 	stclt	0, cr0, [r0], {8}
    1128:	01000008 	tsteq	r0, r8
    112c:	00005300 	andeq	r5, r0, r0, lsl #6
    1130:	00000000 	andeq	r0, r0, r0
    1134:	08010000 	stmdaeq	r1, {}	; <UNPREDICTABLE>
    1138:	01000000 	mrseq	r0, (UNDEF: 0)
    113c:	07010001 	streq	r0, [r1, -r1]
    1140:	000006d0 	ldrdeq	r0, [r0], -r0	; <UNPREDICTABLE>
    1144:	000006d0 	ldrdeq	r0, [r0], -r0	; <UNPREDICTABLE>
    1148:	007c0006 	rsbseq	r0, ip, r6
    114c:	9f220071 	svcls	0x00220071
    1150:	000006e4 	andeq	r0, r0, r4, ror #13
    1154:	000006e8 	andeq	r0, r0, r8, ror #13
    1158:	7f730003 	svcvc	0x00730003
    115c:	0006e89f 	muleq	r6, pc, r8	; <UNPREDICTABLE>
    1160:	0006f000 	andeq	pc, r6, r0
    1164:	53000100 	movwpl	r0, #256	; 0x100
    1168:	000006f0 	strdeq	r0, [r0], -r0	; <UNPREDICTABLE>
    116c:	000006f8 	strdeq	r0, [r0], -r8
    1170:	7f730003 	svcvc	0x00730003
    1174:	0008b89f 	muleq	r8, pc, r8	; <UNPREDICTABLE>
    1178:	0008b800 	andeq	fp, r8, r0, lsl #16
    117c:	91000400 	tstls	r0, r0, lsl #8
    1180:	009f7ed1 			; <UNDEFINED> instruction: 0x009f7ed1
    1184:	00000000 	andeq	r0, r0, r0
    1188:	01000000 	mrseq	r0, (UNDEF: 0)
    118c:	d0000100 	andle	r0, r0, r0, lsl #2
    1190:	00000006 	andeq	r0, r0, r6
    1194:	03000007 	movweq	r0, #7
    1198:	9f800800 	svcls	0x00800800
    119c:	000008b8 			; <UNDEFINED> instruction: 0x000008b8
    11a0:	000008bc 			; <UNDEFINED> instruction: 0x000008bc
    11a4:	80080003 	andhi	r0, r8, r3
    11a8:	0000009f 	muleq	r0, pc, r0	; <UNPREDICTABLE>
    11ac:	00000000 	andeq	r0, r0, r0
    11b0:	00000100 	andeq	r0, r0, r0, lsl #2
    11b4:	01010000 	mrseq	r0, (UNDEF: 1)
    11b8:	02000000 	andeq	r0, r0, #0, 0
    11bc:	d0000101 	andle	r0, r0, r1, lsl #2
    11c0:	e0000006 	and	r0, r0, r6
    11c4:	04000006 	streq	r0, [r0], #-6
    11c8:	7dd09100 	ldfvcp	f1, [r0]
    11cc:	0006e09f 	muleq	r6, pc, r0	; <UNPREDICTABLE>
    11d0:	0006e400 	andeq	lr, r6, r0, lsl #8
    11d4:	55000100 	strpl	r0, [r0, #-256]	; 0xffffff00
    11d8:	000006e4 	andeq	r0, r0, r4, ror #13
    11dc:	000006e4 	andeq	r0, r0, r4, ror #13
    11e0:	01720003 	cmneq	r2, r3
    11e4:	0006e49f 	muleq	r6, pc, r4	; <UNPREDICTABLE>
    11e8:	0006f000 	andeq	pc, r6, r0
    11ec:	72000300 	andvc	r0, r0, #0, 6
    11f0:	06f09f02 	ldrbteq	r9, [r0], r2, lsl #30
    11f4:	07000000 	streq	r0, [r0, -r0]
    11f8:	00030000 	andeq	r0, r3, r0
    11fc:	ec9f0172 	ldfs	f0, [pc], {114}	; 0x72
    1200:	f4000007 	vst4.8	{d0-d3}, [r0], r7
    1204:	03000007 	movweq	r0, #7
    1208:	9f017300 	svcls	0x00017300
    120c:	000008b8 			; <UNDEFINED> instruction: 0x000008b8
    1210:	000008bc 			; <UNDEFINED> instruction: 0x000008bc
    1214:	d0910004 	addsle	r0, r1, r4
    1218:	00009f7d 	andeq	r9, r0, sp, ror pc
    121c:	00000000 	andeq	r0, r0, r0
    1220:	00040000 	andeq	r0, r4, r0
    1224:	000008b8 			; <UNDEFINED> instruction: 0x000008b8
    1228:	000008bc 			; <UNDEFINED> instruction: 0x000008bc
    122c:	9f320002 	svcls	0x00320002
	...
    1238:	00000007 	andeq	r0, r0, r7
    123c:	06d00006 	ldrbeq	r0, [r0], r6
    1240:	06e00000 	strbteq	r0, [r0], r0
    1244:	00040000 	andeq	r0, r4, r0
    1248:	9f7dd091 	svcls	0x007dd091
    124c:	000006e0 	andeq	r0, r0, r0, ror #13
    1250:	00000700 	andeq	r0, r0, r0, lsl #14
    1254:	b8550001 	ldmdalt	r5, {r0}^
    1258:	bc000008 	stclt	0, cr0, [r0], {8}
    125c:	04000008 	streq	r0, [r0], #-8
    1260:	7dd09100 	ldfvcp	f1, [r0]
    1264:	0000009f 	muleq	r0, pc, r0	; <UNPREDICTABLE>
    1268:	00000000 	andeq	r0, r0, r0
    126c:	00000100 	andeq	r0, r0, r0, lsl #2
    1270:	00070c00 	andeq	r0, r7, r0, lsl #24
    1274:	0007ec00 	andeq	lr, r7, r0, lsl #24
    1278:	08000300 	stmdaeq	r0, {r8, r9}
    127c:	08949f80 	ldmeq	r4, {r7, r8, r9, sl, fp, ip, pc}
    1280:	08a80000 	stmiaeq	r8!, {}	; <UNPREDICTABLE>
    1284:	00030000 	andeq	r0, r3, r0
    1288:	009f8008 	addseq	r8, pc, r8
	...
    1294:	0c000000 	stceq	0, cr0, [r0], {-0}
    1298:	ec000007 	stc	0, cr0, [r0], {7}
    129c:	02000007 	andeq	r0, r0, #7, 0
    12a0:	949f3000 	ldrls	r3, [pc], #0	; 12a8 <__code_start__-0x6d58>
    12a4:	a8000008 	stmdage	r0, {r3}
    12a8:	02000008 	andeq	r0, r0, #8, 0
    12ac:	009f3000 	addseq	r3, pc, r0
	...
    12b8:	0c000000 	stceq	0, cr0, [r0], {-0}
    12bc:	d0000007 	andle	r0, r0, r7
    12c0:	01000007 	tsteq	r0, r7
    12c4:	08945500 	ldmeq	r4, {r8, sl, ip, lr}
    12c8:	08a80000 	stmiaeq	r8!, {}	; <UNPREDICTABLE>
    12cc:	00010000 	andeq	r0, r1, r0
    12d0:	00000055 	andeq	r0, r0, r5, asr r0
	...
    12dc:	0c000000 	stceq	0, cr0, [r0], {-0}
    12e0:	d0000007 	andle	r0, r0, r7
    12e4:	04000007 	streq	r0, [r0], #-7
    12e8:	7dd09100 	ldfvcp	f1, [r0]
    12ec:	0007d09f 	muleq	r7, pc, r0	; <UNPREDICTABLE>
    12f0:	0007ec00 	andeq	lr, r7, r0, lsl #24
    12f4:	55000100 	strpl	r0, [r0, #-256]	; 0xffffff00
    12f8:	00000894 	muleq	r0, r4, r8
    12fc:	000008a8 	andeq	r0, r0, r8, lsr #17
    1300:	d0910004 	addsle	r0, r1, r4
    1304:	00009f7d 	andeq	r9, r0, sp, ror pc
	...
    1310:	070c0000 	streq	r0, [ip, -r0]
    1314:	07ec0000 	strbeq	r0, [ip, r0]!
    1318:	00020000 	andeq	r0, r2, r0
    131c:	08949f32 	ldmeq	r4, {r1, r4, r5, r8, r9, sl, fp, ip, pc}
    1320:	08a80000 	stmiaeq	r8!, {}	; <UNPREDICTABLE>
    1324:	00020000 	andeq	r0, r2, r0
    1328:	00009f32 	andeq	r9, r0, r2, lsr pc
    132c:	00000000 	andeq	r0, r0, r0
    1330:	05030000 	streq	r0, [r3, #-0]
    1334:	00000005 	andeq	r0, r0, r5
    1338:	00000000 	andeq	r0, r0, r0
    133c:	0000070c 	andeq	r0, r0, ip, lsl #14
    1340:	0000070c 	andeq	r0, r0, ip, lsl #14
    1344:	0c510001 	mrrceq	0, 0, r0, r1, cr1
    1348:	1c000007 	stcne	0, cr0, [r0], {7}
    134c:	01000007 	tsteq	r0, r7
    1350:	071c5300 	ldreq	r5, [ip, -r0, lsl #6]
    1354:	07240000 	streq	r0, [r4, -r0]!
    1358:	00030000 	andeq	r0, r3, r0
    135c:	249f0172 	ldrcs	r0, [pc], #370	; 1364 <__code_start__-0x6c9c>
    1360:	cc000007 	stcgt	0, cr0, [r0], {7}
    1364:	01000007 	tsteq	r0, r7
    1368:	08945300 	ldmeq	r4, {r8, r9, ip, lr}
    136c:	08a80000 	stmiaeq	r8!, {}	; <UNPREDICTABLE>
    1370:	00010000 	andeq	r0, r1, r0
    1374:	00000053 	andeq	r0, r0, r3, asr r0
    1378:	00000000 	andeq	r0, r0, r0
    137c:	01000500 	tsteq	r0, r0, lsl #10
    1380:	00070c00 	andeq	r0, r7, r0, lsl #24
    1384:	00072000 	andeq	r2, r7, r0
    1388:	50000100 	andpl	r0, r0, r0, lsl #2
    138c:	00000724 	andeq	r0, r0, r4, lsr #14
    1390:	0000072c 	andeq	r0, r0, ip, lsr #14
    1394:	00500001 	subseq	r0, r0, r1
    1398:	00000000 	andeq	r0, r0, r0
    139c:	03000000 	movweq	r0, #0
    13a0:	28010001 	stmdacs	r1, {r0}
    13a4:	b0000007 	andlt	r0, r0, r7
    13a8:	01000007 	tsteq	r0, r7
    13ac:	08945500 	ldmeq	r4, {r8, sl, ip, lr}
    13b0:	08a00000 	stmiaeq	r0!, {}	; <UNPREDICTABLE>
    13b4:	00010000 	andeq	r0, r1, r0
    13b8:	00000055 	andeq	r0, r0, r5, asr r0
    13bc:	00000000 	andeq	r0, r0, r0
    13c0:	00010300 	andeq	r0, r1, r0, lsl #6
    13c4:	00072801 	andeq	r2, r7, r1, lsl #16
    13c8:	0007b000 	andeq	fp, r7, r0
    13cc:	51000100 	mrspl	r0, (UNDEF: 16)
    13d0:	00000894 	muleq	r0, r4, r8
    13d4:	000008a0 	andeq	r0, r0, r0, lsr #17
    13d8:	00510001 	subseq	r0, r1, r1
    13dc:	00000000 	andeq	r0, r0, r0
    13e0:	03000000 	movweq	r0, #0
    13e4:	01010000 	mrseq	r0, (UNDEF: 1)
    13e8:	03030101 	movweq	r0, #12545	; 0x3101
    13ec:	28010002 	stmdacs	r1, {r1}
    13f0:	50000007 	andpl	r0, r0, r7
    13f4:	01000007 	tsteq	r0, r7
    13f8:	07745300 	ldrbeq	r5, [r4, -r0, lsl #6]!
    13fc:	07740000 	ldrbeq	r0, [r4, -r0]!
    1400:	00010000 	andeq	r0, r1, r0
    1404:	0007745e 	andeq	r7, r7, lr, asr r4
    1408:	00078800 	andeq	r8, r7, r0, lsl #16
    140c:	7e000300 	cdpvc	3, 0, cr0, cr0, cr0, {0}
    1410:	07889f01 	streq	r9, [r8, r1, lsl #30]
    1414:	07940000 	ldreq	r0, [r4, r0]
    1418:	00030000 	andeq	r0, r3, r0
    141c:	949f027e 	ldrls	r0, [pc], #638	; 1424 <__code_start__-0x6bdc>
    1420:	98000007 	stmdals	r0, {r0, r1, r2}
    1424:	03000007 	movweq	r0, #7
    1428:	9f037e00 	svcls	0x00037e00
    142c:	00000894 	muleq	r0, r4, r8
    1430:	000008a0 	andeq	r0, r0, r0, lsr #17
    1434:	00530001 	subseq	r0, r3, r1
	...
    1440:	01010000 	mrseq	r0, (UNDEF: 1)
    1444:	01010101 	tsteq	r1, r1, lsl #2
    1448:	2c010002 	stccs	0, cr0, [r1], {2}
    144c:	50000007 	andpl	r0, r0, r7
    1450:	01000007 	tsteq	r0, r7
    1454:	07745000 	ldrbeq	r5, [r4, -r0]!
    1458:	07840000 	streq	r0, [r4, r0]
    145c:	00010000 	andeq	r0, r1, r0
    1460:	00078450 	andeq	r8, r7, r0, asr r4
    1464:	00079400 	andeq	r9, r7, r0, lsl #8
    1468:	5b000100 	blpl	1870 <__code_start__-0x6790>
    146c:	00000794 	muleq	r0, r4, r7
    1470:	00000798 	muleq	r0, r8, r7
    1474:	98500001 	ldmdals	r0, {r0}^
    1478:	98000007 	stmdals	r0, {r0, r1, r2}
    147c:	03000007 	movweq	r0, #7
    1480:	9f017000 	svcls	0x00017000
    1484:	00000894 	muleq	r0, r4, r8
    1488:	000008a0 	andeq	r0, r0, r0, lsr #17
    148c:	00500001 	subseq	r0, r0, r1
    1490:	00000000 	andeq	r0, r0, r0
    1494:	01000000 	mrseq	r0, (UNDEF: 0)
    1498:	b0000100 	andlt	r0, r0, r0, lsl #2
    149c:	ec000007 	stc	0, cr0, [r0], {7}
    14a0:	01000007 	tsteq	r0, r7
    14a4:	08a05100 	stmiaeq	r0!, {r8, ip, lr}
    14a8:	08a80000 	stmiaeq	r8!, {}	; <UNPREDICTABLE>
    14ac:	00010000 	andeq	r0, r1, r0
    14b0:	00000051 	andeq	r0, r0, r1, asr r0
    14b4:	00000000 	andeq	r0, r0, r0
    14b8:	00000100 	andeq	r0, r0, r0, lsl #2
    14bc:	01010000 	mrseq	r0, (UNDEF: 1)
    14c0:	b0000100 	andlt	r0, r0, r0, lsl #2
    14c4:	b4000007 	strlt	r0, [r0], #-7
    14c8:	06000007 	streq	r0, [r0], -r7
    14cc:	7c007300 	stcvc	3, cr7, [r0], {-0}
    14d0:	d49f2200 	ldrle	r2, [pc], #512	; 14d8 <__code_start__-0x6b28>
    14d4:	d8000007 	stmdale	r0, {r0, r1, r2}
    14d8:	03000007 	movweq	r0, #7
    14dc:	9f7f7300 	svcls	0x007f7300
    14e0:	000007d8 	ldrdeq	r0, [r0], -r8
    14e4:	000007e0 	andeq	r0, r0, r0, ror #15
    14e8:	e0530001 	subs	r0, r3, r1
    14ec:	e8000007 	stmda	r0, {r0, r1, r2}
    14f0:	03000007 	movweq	r0, #7
    14f4:	9f7f7300 	svcls	0x007f7300
    14f8:	000008a0 	andeq	r0, r0, r0, lsr #17
    14fc:	000008a8 	andeq	r0, r0, r8, lsr #17
    1500:	00530001 	subseq	r0, r3, r1
    1504:	00000000 	andeq	r0, r0, r0
    1508:	01000000 	mrseq	r0, (UNDEF: 0)
    150c:	b0000100 	andlt	r0, r0, r0, lsl #2
    1510:	ec000007 	stc	0, cr0, [r0], {7}
    1514:	03000007 	movweq	r0, #7
    1518:	9f800800 	svcls	0x00800800
    151c:	000008a0 	andeq	r0, r0, r0, lsr #17
    1520:	000008a8 	andeq	r0, r0, r8, lsr #17
    1524:	80080003 	andhi	r0, r8, r3
    1528:	0000009f 	muleq	r0, pc, r0	; <UNPREDICTABLE>
    152c:	00000000 	andeq	r0, r0, r0
    1530:	00000100 	andeq	r0, r0, r0, lsl #2
    1534:	01010000 	mrseq	r0, (UNDEF: 1)
    1538:	01000000 	mrseq	r0, (UNDEF: 0)
    153c:	0007b000 	andeq	fp, r7, r0
    1540:	0007d000 	andeq	sp, r7, r0
    1544:	91000400 	tstls	r0, r0, lsl #8
    1548:	d09f7dd0 			; <UNDEFINED> instruction: 0xd09f7dd0
    154c:	d4000007 	strle	r0, [r0], #-7
    1550:	01000007 	tsteq	r0, r7
    1554:	07d45500 	ldrbeq	r5, [r4, r0, lsl #10]
    1558:	07d40000 	ldrbeq	r0, [r4, r0]
    155c:	00030000 	andeq	r0, r3, r0
    1560:	d49f017c 	ldrle	r0, [pc], #380	; 1568 <__code_start__-0x6a98>
    1564:	e0000007 	and	r0, r0, r7
    1568:	03000007 	movweq	r0, #7
    156c:	9f027c00 	svcls	0x00027c00
    1570:	000007e0 	andeq	r0, r0, r0, ror #15
    1574:	000007ec 	andeq	r0, r0, ip, ror #15
    1578:	017c0003 	cmneq	ip, r3
    157c:	0008a09f 	muleq	r8, pc, r0	; <UNPREDICTABLE>
    1580:	0008a800 	andeq	sl, r8, r0, lsl #16
    1584:	91000400 	tstls	r0, r0, lsl #8
    1588:	009f7dd0 			; <UNDEFINED> instruction: 0x009f7dd0
    158c:	00000000 	andeq	r0, r0, r0
    1590:	04000000 	streq	r0, [r0], #-0
    1594:	b0000400 	andlt	r0, r0, r0, lsl #8
    1598:	b4000007 	strlt	r0, [r0], #-7
    159c:	03000007 	movweq	r0, #7
    15a0:	9f017000 	svcls	0x00017000
    15a4:	000008a0 	andeq	r0, r0, r0, lsr #17
    15a8:	000008a8 	andeq	r0, r0, r8, lsr #17
    15ac:	01700003 	cmneq	r0, r3
    15b0:	0000009f 	muleq	r0, pc, r0	; <UNPREDICTABLE>
    15b4:	00000000 	andeq	r0, r0, r0
    15b8:	00000100 	andeq	r0, r0, r0, lsl #2
    15bc:	0007bc00 	andeq	fp, r7, r0, lsl #24
    15c0:	0007d000 	andeq	sp, r7, r0
    15c4:	91000400 	tstls	r0, r0, lsl #8
    15c8:	d09f7dd0 			; <UNDEFINED> instruction: 0xd09f7dd0
    15cc:	ec000007 	stc	0, cr0, [r0], {7}
    15d0:	01000007 	tsteq	r0, r7
    15d4:	00005500 	andeq	r5, r0, r0, lsl #10
	...
    15e0:	03280000 			; <UNDEFINED> instruction: 0x03280000
    15e4:	03640000 	cmneq	r4, #0, 0
    15e8:	00010000 	andeq	r0, r1, r0
    15ec:	00036450 	andeq	r6, r3, r0, asr r4
    15f0:	00038800 	andeq	r8, r3, r0, lsl #16
    15f4:	f3000400 	vshl.u8	d0, d0, d0
    15f8:	009f5001 	addseq	r5, pc, r1
	...
    1604:	28000000 	stmdacs	r0, {}	; <UNPREDICTABLE>
    1608:	5c000003 	stcpl	0, cr0, [r0], {3}
    160c:	01000003 	tsteq	r0, r3
    1610:	035c5100 	cmpeq	ip, #0
    1614:	03880000 	orreq	r0, r8, #0, 0
    1618:	00040000 	andeq	r0, r4, r0
    161c:	9f5101f3 	svcls	0x005101f3
	...
    1644:	00000014 	andeq	r0, r0, r4, lsl r0
    1648:	14500001 	ldrbne	r0, [r0], #-1
    164c:	20000000 	andcs	r0, r0, r0
    1650:	01000000 	mrseq	r0, (UNDEF: 0)
    1654:	00205c00 	eoreq	r5, r0, r0, lsl #24
    1658:	00680000 	rsbeq	r0, r8, r0
    165c:	00030000 	andeq	r0, r3, r0
    1660:	689f0271 	ldmvs	pc, {r0, r4, r5, r6, r9}	; <UNPREDICTABLE>
    1664:	6c000000 	stcvs	0, cr0, [r0], {-0}
    1668:	03000000 	movweq	r0, #0
    166c:	9f027300 	svcls	0x00027300
    1670:	0000006c 	andeq	r0, r0, ip, rrx
    1674:	00000194 	muleq	r0, r4, r1
    1678:	01f30004 	mvnseq	r0, r4
    167c:	01949f50 	orrseq	r9, r4, r0, asr pc
    1680:	01980000 	orrseq	r0, r8, r0
    1684:	00030000 	andeq	r0, r3, r0
    1688:	989f0273 	ldmls	pc, {r0, r1, r4, r5, r6, r9}	; <UNPREDICTABLE>
    168c:	c0000001 	andgt	r0, r0, r1
    1690:	04000001 	streq	r0, [r0], #-1
    1694:	5001f300 	andpl	pc, r1, r0, lsl #6
    1698:	0001c09f 	muleq	r1, pc, r0	; <UNPREDICTABLE>
    169c:	0001c800 	andeq	ip, r1, r0, lsl #16
    16a0:	5c000100 	stfpls	f0, [r0], {-0}
    16a4:	000001c8 	andeq	r0, r0, r8, asr #3
    16a8:	00000214 	andeq	r0, r0, r4, lsl r2
    16ac:	02730003 	rsbseq	r0, r3, #3, 0
    16b0:	0002149f 	muleq	r2, pc, r4	; <UNPREDICTABLE>
    16b4:	0002ec00 	andeq	lr, r2, r0, lsl #24
    16b8:	f3000400 	vshl.u8	d0, d0, d0
    16bc:	ec9f5001 	ldc	0, cr5, [pc], {1}
    16c0:	f4000002 	vst4.8	{d0-d3}, [r0], r2
    16c4:	03000002 	movweq	r0, #2
    16c8:	9f027300 	svcls	0x00027300
    16cc:	000002f4 	strdeq	r0, [r0], -r4
    16d0:	00000328 	andeq	r0, r0, r8, lsr #6
    16d4:	01f30004 	mvnseq	r0, r4
    16d8:	00009f50 	andeq	r9, r0, r0, asr pc
	...
    16ec:	001c0000 	andseq	r0, ip, r0
    16f0:	00010000 	andeq	r0, r1, r0
    16f4:	00001c51 	andeq	r1, r0, r1, asr ip
    16f8:	0002e000 	andeq	lr, r2, r0
    16fc:	50000100 	andpl	r0, r0, r0, lsl #2
    1700:	000002e0 	andeq	r0, r0, r0, ror #5
    1704:	000002ec 	andeq	r0, r0, ip, ror #5
    1708:	01f30004 	mvnseq	r0, r4
    170c:	02ec9f51 	rsceq	r9, ip, #324	; 0x144
    1710:	03280000 			; <UNDEFINED> instruction: 0x03280000
    1714:	00010000 	andeq	r0, r1, r0
    1718:	00000050 	andeq	r0, r0, r0, asr r0
	...
    1724:	00010000 	andeq	r0, r1, r0
    1728:	00000000 	andeq	r0, r0, r0
    172c:	02020000 	andeq	r0, r2, #0, 0
	...
    1744:	00007000 	andeq	r7, r0, r0
    1748:	52000100 	andpl	r0, r0, #0
    174c:	00000070 	andeq	r0, r0, r0, ror r0
    1750:	00000078 	andeq	r0, r0, r8, ror r0
    1754:	785c0001 	ldmdavc	ip, {r0}^
    1758:	a4000000 	strge	r0, [r0], #-0
    175c:	04000000 	streq	r0, [r0], #-0
    1760:	5201f300 	andpl	pc, r1, #0, 6
    1764:	0001949f 	muleq	r1, pc, r4	; <UNPREDICTABLE>
    1768:	00019c00 	andeq	r9, r1, r0, lsl #24
    176c:	52000100 	andpl	r0, r0, #0
    1770:	0000019c 	muleq	r0, ip, r1
    1774:	000001a4 	andeq	r0, r0, r4, lsr #3
    1778:	a45c0001 	ldrbge	r0, [ip], #-1
    177c:	c0000001 	andgt	r0, r0, r1
    1780:	04000001 	streq	r0, [r0], #-1
    1784:	5201f300 	andpl	pc, r1, #0, 6
    1788:	0001c09f 	muleq	r1, pc, r0	; <UNPREDICTABLE>
    178c:	00022000 	andeq	r2, r2, r0
    1790:	52000100 	andpl	r0, r0, #0
    1794:	00000220 	andeq	r0, r0, r0, lsr #4
    1798:	00000228 	andeq	r0, r0, r8, lsr #4
    179c:	00720004 	rsbseq	r0, r2, r4
    17a0:	02289f1f 	eoreq	r9, r8, #124	; 0x7c
    17a4:	02740000 	rsbseq	r0, r4, #0, 0
    17a8:	00050000 	andeq	r0, r5, r0
    17ac:	1f5201f3 	svcne	0x005201f3
    17b0:	0002749f 	muleq	r2, pc, r4	; <UNPREDICTABLE>
    17b4:	00028800 	andeq	r8, r2, r0, lsl #16
    17b8:	52000100 	andpl	r0, r0, #0
    17bc:	00000288 	andeq	r0, r0, r8, lsl #5
    17c0:	000002a0 	andeq	r0, r0, r0, lsr #5
    17c4:	cc5c0001 	mrrcgt	0, 0, r0, ip, cr1
    17c8:	d0000002 	andle	r0, r0, r2
    17cc:	01000002 	tsteq	r0, r2
    17d0:	02d05200 	sbcseq	r5, r0, #0, 4
    17d4:	02e70000 	rsceq	r0, r7, #0, 0
    17d8:	00010000 	andeq	r0, r1, r0
    17dc:	0002e75c 	andeq	lr, r2, ip, asr r7
    17e0:	0002ec00 	andeq	lr, r2, r0, lsl #24
    17e4:	f3000400 	vshl.u8	d0, d0, d0
    17e8:	ec9f5201 	lfm	f5, 4, [pc], {1}
    17ec:	00000002 	andeq	r0, r0, r2
    17f0:	01000003 	tsteq	r0, r3
    17f4:	03005200 	movweq	r5, #512	; 0x200
    17f8:	03280000 			; <UNDEFINED> instruction: 0x03280000
    17fc:	00010000 	andeq	r0, r1, r0
    1800:	0000005c 	andeq	r0, r0, ip, asr r0
	...
    1818:	68000000 	stmdavs	r0, {}	; <UNPREDICTABLE>
    181c:	01000000 	mrseq	r0, (UNDEF: 0)
    1820:	00685300 	rsbeq	r5, r8, r0, lsl #6
    1824:	006c0000 	rsbeq	r0, ip, r0
    1828:	00030000 	andeq	r0, r3, r0
    182c:	949f7f08 	ldrls	r7, [pc], #3848	; 1834 <__code_start__-0x67cc>
    1830:	98000001 	stmdals	r0, {r0}
    1834:	03000001 	movweq	r0, #1
    1838:	9f7f0800 	svcls	0x007f0800
    183c:	000001c0 	andeq	r0, r0, r0, asr #3
    1840:	00000214 	andeq	r0, r0, r4, lsl r2
    1844:	7f080003 	svcvc	0x00080003
    1848:	0002749f 	muleq	r2, pc, r4	; <UNPREDICTABLE>
    184c:	00029000 	andeq	r9, r2, r0
    1850:	53000100 	movwpl	r0, #256	; 0x100
    1854:	00000290 	muleq	r0, r0, r2
    1858:	000002a0 	andeq	r0, r0, r0, lsr #5
    185c:	01f30004 	mvnseq	r0, r4
    1860:	02ec9f53 	rsceq	r9, ip, #332	; 0x14c
    1864:	03280000 			; <UNDEFINED> instruction: 0x03280000
    1868:	00030000 	andeq	r0, r3, r0
    186c:	009f7f08 	addseq	r7, pc, r8, lsl #30
    1870:	00000000 	andeq	r0, r0, r0
    1874:	01000000 	mrseq	r0, (UNDEF: 0)
    1878:	00000000 	andeq	r0, r0, r0
    187c:	00000202 	andeq	r0, r0, r2, lsl #4
    1880:	00000101 	andeq	r0, r0, r1, lsl #2
    1884:	00000000 	andeq	r0, r0, r0
    1888:	02020000 	andeq	r0, r2, #0, 0
    188c:	01000000 	mrseq	r0, (UNDEF: 0)
	...
    1898:	00000101 	andeq	r0, r0, r1, lsl #2
    189c:	02020000 	andeq	r0, r2, #0, 0
    18a0:	00000000 	andeq	r0, r0, r0
    18a4:	01010000 	mrseq	r0, (UNDEF: 1)
    18a8:	18000000 	stmdane	r0, {}	; <UNPREDICTABLE>
    18ac:	70000000 	andvc	r0, r0, r0
    18b0:	04000000 	streq	r0, [r0], #-0
    18b4:	7fa09100 	svcvc	0x00a09100
    18b8:	0000709f 	muleq	r0, pc, r0	; <UNPREDICTABLE>
    18bc:	00007800 	andeq	r7, r0, r0, lsl #16
    18c0:	52000100 	andpl	r0, r0, #0
    18c4:	00000078 	andeq	r0, r0, r8, ror r0
    18c8:	00000078 	andeq	r0, r0, r8, ror r0
    18cc:	78540001 	ldmdavc	r4, {r0}^
    18d0:	88000000 	stmdahi	r0, {}	; <UNPREDICTABLE>
    18d4:	03000000 	movweq	r0, #0
    18d8:	9f017400 	svcls	0x00017400
    18dc:	00000088 	andeq	r0, r0, r8, lsl #1
    18e0:	00000090 	muleq	r0, r0, r0
    18e4:	90540001 	subsls	r0, r4, r1
    18e8:	a0000000 	andge	r0, r0, r0
    18ec:	03000000 	movweq	r0, #0
    18f0:	9f027400 	svcls	0x00027400
    18f4:	000000a0 	andeq	r0, r0, r0, lsr #1
    18f8:	000000b0 	strheq	r0, [r0], -r0	; <UNPREDICTABLE>
    18fc:	945e0001 	ldrbls	r0, [lr], #-1
    1900:	9c000001 	stcls	0, cr0, [r0], {1}
    1904:	04000001 	streq	r0, [r0], #-1
    1908:	7fa09100 	svcvc	0x00a09100
    190c:	00019c9f 	muleq	r1, pc, ip	; <UNPREDICTABLE>
    1910:	0001a400 	andeq	sl, r1, r0, lsl #8
    1914:	52000100 	andpl	r0, r0, #0
    1918:	000001a4 	andeq	r0, r0, r4, lsr #3
    191c:	000001a4 	andeq	r0, r0, r4, lsr #3
    1920:	a45e0001 	ldrbge	r0, [lr], #-1
    1924:	b4000001 	strlt	r0, [r0], #-1
    1928:	03000001 	movweq	r0, #1
    192c:	9f017e00 	svcls	0x00017e00
    1930:	000001b4 			; <UNDEFINED> instruction: 0x000001b4
    1934:	000001c0 	andeq	r0, r0, r0, asr #3
    1938:	c05e0001 	subsgt	r0, lr, r1
    193c:	28000001 	stmdacs	r0, {r0}
    1940:	04000002 	streq	r0, [r0], #-2
    1944:	7fa09100 	svcvc	0x00a09100
    1948:	0002289f 	muleq	r2, pc, r8	; <UNPREDICTABLE>
    194c:	00023400 	andeq	r3, r2, r0, lsl #8
    1950:	52000100 	andpl	r0, r0, #0
    1954:	00000234 	andeq	r0, r0, r4, lsr r2
    1958:	00000258 	andeq	r0, r0, r8, asr r2
    195c:	585e0001 	ldmdapl	lr, {r0}^
    1960:	5c000002 	stcpl	0, cr0, [r0], {2}
    1964:	03000002 	movweq	r0, #2
    1968:	9f017e00 	svcls	0x00017e00
    196c:	0000025c 	andeq	r0, r0, ip, asr r2
    1970:	00000264 	andeq	r0, r0, r4, ror #4
    1974:	645e0001 	ldrbvs	r0, [lr], #-1
    1978:	70000002 	andvc	r0, r0, r2
    197c:	03000002 	movweq	r0, #2
    1980:	9f027100 	svcls	0x00027100
    1984:	00000270 	andeq	r0, r0, r0, ror r2
    1988:	00000274 	andeq	r0, r0, r4, ror r2
    198c:	745e0001 	ldrbvc	r0, [lr], #-1
    1990:	74000002 	strvc	r0, [r0], #-2
    1994:	04000002 	streq	r0, [r0], #-2
    1998:	7fa09100 	svcvc	0x00a09100
    199c:	0002749f 	muleq	r2, pc, r4	; <UNPREDICTABLE>
    19a0:	0002a000 	andeq	sl, r2, r0
    19a4:	91000400 	tstls	r0, r0, lsl #8
    19a8:	c09f7fa1 	addsgt	r7, pc, r1, lsr #31
    19ac:	c8000002 	stmdagt	r0, {r1}
    19b0:	01000002 	tsteq	r0, r2
    19b4:	02c85e00 	sbceq	r5, r8, #0, 28
    19b8:	02cc0000 	sbceq	r0, ip, #0, 0
    19bc:	00010000 	andeq	r0, r1, r0
    19c0:	0002cc56 	andeq	ip, r2, r6, asr ip
    19c4:	0002ec00 	andeq	lr, r2, r0, lsl #24
    19c8:	91000400 	tstls	r0, r0, lsl #8
    19cc:	ec9f7fa0 	ldc	15, cr7, [pc], {160}	; 0xa0
    19d0:	fc000002 	stc2	0, cr0, [r0], {2}
    19d4:	04000002 	streq	r0, [r0], #-2
    19d8:	7fa19100 	svcvc	0x00a19100
    19dc:	0002fc9f 	muleq	r2, pc, ip	; <UNPREDICTABLE>
    19e0:	00032800 	andeq	r2, r3, r0, lsl #16
    19e4:	5e000100 	adfpls	f0, f0, f0
	...
    19fc:	01000000 	mrseq	r0, (UNDEF: 0)
    1a00:	00000001 	andeq	r0, r0, r1
	...
    1a10:	00200000 	eoreq	r0, r0, r0
    1a14:	00700000 	rsbseq	r0, r0, r0
    1a18:	00010000 	andeq	r0, r1, r0
    1a1c:	00007052 	andeq	r7, r0, r2, asr r0
    1a20:	00009400 	andeq	r9, r0, r0, lsl #8
    1a24:	5c000100 	stfpls	f0, [r0], {-0}
    1a28:	00000194 	muleq	r0, r4, r1
    1a2c:	0000019c 	muleq	r0, ip, r1
    1a30:	9c520001 	mrrcls	0, 0, r0, r2, cr1
    1a34:	c0000001 	andgt	r0, r0, r1
    1a38:	01000001 	tsteq	r0, r1
    1a3c:	01c85c00 	biceq	r5, r8, r0, lsl #24
    1a40:	02100000 	andseq	r0, r0, #0, 0
    1a44:	00010000 	andeq	r0, r1, r0
    1a48:	0002105c 	andeq	r1, r2, ip, asr r0
    1a4c:	00022400 	andeq	r2, r2, r0, lsl #8
    1a50:	52000100 	andpl	r0, r0, #0
    1a54:	00000224 	andeq	r0, r0, r4, lsr #4
    1a58:	00000248 	andeq	r0, r0, r8, asr #4
    1a5c:	485c0001 	ldmdami	ip, {r0}^
    1a60:	5c000002 	stcpl	0, cr0, [r0], {2}
    1a64:	01000002 	tsteq	r0, r2
    1a68:	025c5500 	subseq	r5, ip, #0, 10
    1a6c:	02680000 	rsbeq	r0, r8, #0, 0
    1a70:	00010000 	andeq	r0, r1, r0
    1a74:	0002685c 	andeq	r6, r2, ip, asr r8
    1a78:	00027400 	andeq	r7, r2, r0, lsl #8
    1a7c:	75001900 	strvc	r1, [r0, #-2304]	; 0xfffff700
    1a80:	f72cf700 			; <UNDEFINED> instruction: 0xf72cf700
    1a84:	f7007625 			; <UNDEFINED> instruction: 0xf7007625
    1a88:	1e25f72c 	cdpne	7, 2, cr15, cr5, cr12, {1}
    1a8c:	25f72008 	ldrbcs	r2, [r7, #8]!
    1a90:	f72cf725 			; <UNDEFINED> instruction: 0xf72cf725
    1a94:	9f253300 	svcls	0x00253300
    1a98:	00000274 	andeq	r0, r0, r4, ror r2
    1a9c:	00000288 	andeq	r0, r0, r8, lsl #5
    1aa0:	88520001 	ldmdahi	r2, {r0}^
    1aa4:	a0000002 	andge	r0, r0, r2
    1aa8:	01000002 	tsteq	r0, r2
    1aac:	02cc5c00 	sbceq	r5, ip, #0, 24
    1ab0:	02d00000 	sbcseq	r0, r0, #0, 0
    1ab4:	00010000 	andeq	r0, r1, r0
    1ab8:	0002d052 	andeq	sp, r2, r2, asr r0
    1abc:	0002e700 	andeq	lr, r2, r0, lsl #14
    1ac0:	5c000100 	stfpls	f0, [r0], {-0}
    1ac4:	000002e7 	andeq	r0, r0, r7, ror #5
    1ac8:	000002ec 	andeq	r0, r0, ip, ror #5
    1acc:	01f30004 	mvnseq	r0, r4
    1ad0:	02ec9f52 	rsceq	r9, ip, #328	; 0x148
    1ad4:	03000000 	movweq	r0, #0
    1ad8:	00010000 	andeq	r0, r1, r0
    1adc:	00030052 	andeq	r0, r3, r2, asr r0
    1ae0:	00032800 	andeq	r2, r3, r0, lsl #16
    1ae4:	5c000100 	stfpls	f0, [r0], {-0}
	...
    1af0:	00040004 	andeq	r0, r4, r4
    1af4:	00000100 	andeq	r0, r0, r0, lsl #2
    1af8:	00a40004 	adceq	r0, r4, r4
    1afc:	00b00000 	adcseq	r0, r0, r0
    1b00:	00010000 	andeq	r0, r1, r0
    1b04:	00027c53 	andeq	r7, r2, r3, asr ip
    1b08:	00029000 	andeq	r9, r2, r0
    1b0c:	53000100 	movwpl	r0, #256	; 0x100
    1b10:	00000290 	muleq	r0, r0, r2
    1b14:	0000029c 	muleq	r0, ip, r2
    1b18:	01f30004 	mvnseq	r0, r4
    1b1c:	02c09f53 	sbceq	r9, r0, #332	; 0x14c
    1b20:	02cc0000 	sbceq	r0, ip, #0, 0
    1b24:	00010000 	andeq	r0, r1, r0
    1b28:	0002f053 	andeq	pc, r2, r3, asr r0	; <UNPREDICTABLE>
    1b2c:	00032800 	andeq	r2, r3, r0, lsl #16
    1b30:	08000300 	stmdaeq	r0, {r8, r9}
    1b34:	00009f7f 	andeq	r9, r0, pc, ror pc
    1b38:	00000000 	andeq	r0, r0, r0
    1b3c:	00040000 	andeq	r0, r4, r0
    1b40:	00040100 	andeq	r0, r4, r0, lsl #2
    1b44:	00000100 	andeq	r0, r0, r0, lsl #2
    1b48:	00040000 	andeq	r0, r4, r0
    1b4c:	00a40000 	adceq	r0, r4, r0
    1b50:	00b00000 	adcseq	r0, r0, r0
    1b54:	00010000 	andeq	r0, r1, r0
    1b58:	0000b052 	andeq	fp, r0, r2, asr r0
    1b5c:	00015c00 	andeq	r5, r1, r0, lsl #24
    1b60:	91000400 	tstls	r0, r0, lsl #8
    1b64:	7c9f7fa0 	ldcvc	15, cr7, [pc], {160}	; 0xa0
    1b68:	94000002 	strls	r0, [r0], #-2
    1b6c:	04000002 	streq	r0, [r0], #-2
    1b70:	7fa09100 	svcvc	0x00a09100
    1b74:	0002949f 	muleq	r2, pc, r4	; <UNPREDICTABLE>
    1b78:	00029c00 	andeq	r9, r2, r0, lsl #24
    1b7c:	5e000100 	adfpls	f0, f0, f0
    1b80:	000002b4 			; <UNDEFINED> instruction: 0x000002b4
    1b84:	000002c0 	andeq	r0, r0, r0, asr #5
    1b88:	a0910004 	addsge	r0, r1, r4
    1b8c:	02c09f7f 	sbceq	r9, r0, #508	; 0x1fc
    1b90:	02cc0000 	sbceq	r0, ip, #0, 0
    1b94:	00010000 	andeq	r0, r1, r0
    1b98:	0002f052 	andeq	pc, r2, r2, asr r0	; <UNPREDICTABLE>
    1b9c:	00030000 	andeq	r0, r3, r0
    1ba0:	91000400 	tstls	r0, r0, lsl #8
    1ba4:	009f7fa0 	addseq	r7, pc, r0, lsr #31
    1ba8:	28000003 	stmdacs	r0, {r0, r1}
    1bac:	01000003 	tsteq	r0, r3
    1bb0:	00005200 	andeq	r5, r0, r0, lsl #4
    1bb4:	00000000 	andeq	r0, r0, r0
    1bb8:	00040000 	andeq	r0, r4, r0
    1bbc:	01010100 	mrseq	r0, (UNDEF: 17)
    1bc0:	02030301 	andeq	r0, r3, #67108864	; 0x4000000
    1bc4:	00000104 	andeq	r0, r0, r4, lsl #2
    1bc8:	00040000 	andeq	r0, r4, r0
    1bcc:	00a40000 	adceq	r0, r4, r0
    1bd0:	00b00000 	adcseq	r0, r0, r0
    1bd4:	00010000 	andeq	r0, r1, r0
    1bd8:	00010c5e 	andeq	r0, r1, lr, asr ip
    1bdc:	00010c00 	andeq	r0, r1, r0, lsl #24
    1be0:	55000100 	strpl	r0, [r0, #-256]	; 0xffffff00
    1be4:	0000010c 	andeq	r0, r0, ip, lsl #2
    1be8:	00000120 	andeq	r0, r0, r0, lsr #2
    1bec:	01750003 	cmneq	r5, r3
    1bf0:	0001209f 	muleq	r1, pc, r0	; <UNPREDICTABLE>
    1bf4:	00012c00 	andeq	r2, r1, r0, lsl #24
    1bf8:	75000300 	strvc	r0, [r0, #-768]	; 0xfffffd00
    1bfc:	012c9f02 			; <UNDEFINED> instruction: 0x012c9f02
    1c00:	01300000 	teqeq	r0, r0
    1c04:	00030000 	andeq	r0, r3, r0
    1c08:	7c9f0375 	ldcvc	3, cr0, [pc], {117}	; 0x75
    1c0c:	9c000002 	stcls	0, cr0, [r0], {2}
    1c10:	04000002 	streq	r0, [r0], #-2
    1c14:	7fa19100 	svcvc	0x00a19100
    1c18:	0002c09f 	muleq	r2, pc, r0	; <UNPREDICTABLE>
    1c1c:	0002c800 	andeq	ip, r2, r0, lsl #16
    1c20:	5e000100 	adfpls	f0, f0, f0
    1c24:	000002c8 	andeq	r0, r0, r8, asr #5
    1c28:	000002cc 	andeq	r0, r0, ip, asr #5
    1c2c:	f0560001 			; <UNDEFINED> instruction: 0xf0560001
    1c30:	fc000002 	stc2	0, cr0, [r0], {2}
    1c34:	04000002 	streq	r0, [r0], #-2
    1c38:	7fa19100 	svcvc	0x00a19100
    1c3c:	0002fc9f 	muleq	r2, pc, ip	; <UNPREDICTABLE>
    1c40:	00032800 	andeq	r2, r3, r0, lsl #16
    1c44:	5e000100 	adfpls	f0, f0, f0
	...
    1c50:	01000000 	mrseq	r0, (UNDEF: 0)
    1c54:	01010101 	tsteq	r1, r1, lsl #2
    1c58:	01060201 	tsteq	r6, r1, lsl #4
    1c5c:	00060000 	andeq	r0, r6, r0
    1c60:	000000a8 	andeq	r0, r0, r8, lsr #1
    1c64:	000000b0 	strheq	r0, [r0], -r0	; <UNPREDICTABLE>
    1c68:	0c510001 	mrrceq	0, 0, r0, r1, cr1
    1c6c:	1c000001 	stcne	0, cr0, [r0], {1}
    1c70:	01000001 	tsteq	r0, r1
    1c74:	011c5c00 	tsteq	ip, r0, lsl #24
    1c78:	012c0000 			; <UNDEFINED> instruction: 0x012c0000
    1c7c:	00010000 	andeq	r0, r1, r0
    1c80:	00012c58 	andeq	r2, r1, r8, asr ip
    1c84:	00013000 	andeq	r3, r1, r0
    1c88:	5c000100 	stfpls	f0, [r0], {-0}
    1c8c:	00000130 	andeq	r0, r0, r0, lsr r1
    1c90:	00000130 	andeq	r0, r0, r0, lsr r1
    1c94:	017c0003 	cmneq	ip, r3
    1c98:	00027c9f 	muleq	r2, pc, ip	; <UNPREDICTABLE>
    1c9c:	00029c00 	andeq	r9, r2, r0, lsl #24
    1ca0:	31000200 	mrscc	r0, R8_usr
    1ca4:	0002c09f 	muleq	r2, pc, r0	; <UNPREDICTABLE>
    1ca8:	0002cc00 	andeq	ip, r2, r0, lsl #24
    1cac:	51000100 	mrspl	r0, (UNDEF: 16)
    1cb0:	000002f0 	strdeq	r0, [r0], -r0	; <UNPREDICTABLE>
    1cb4:	00000328 	andeq	r0, r0, r8, lsr #6
    1cb8:	9f310002 	svcls	0x00310002
	...
    1cc4:	01060601 	tsteq	r6, r1, lsl #12
    1cc8:	01000001 	tsteq	r0, r1
    1ccc:	0000015c 	andeq	r0, r0, ip, asr r1
    1cd0:	0000015c 	andeq	r0, r0, ip, asr r1
    1cd4:	a0910004 	addsge	r0, r1, r4
    1cd8:	015c9f7f 	cmpeq	ip, pc, ror pc
    1cdc:	018c0000 	orreq	r0, ip, r0
    1ce0:	00010000 	andeq	r0, r1, r0
    1ce4:	00029c52 	andeq	r9, r2, r2, asr ip
    1ce8:	0002a000 	andeq	sl, r2, r0
    1cec:	5e000100 	adfpls	f0, f0, f0
    1cf0:	000002a0 	andeq	r0, r0, r0, lsr #5
    1cf4:	000002ac 	andeq	r0, r0, ip, lsr #5
    1cf8:	00520001 	subseq	r0, r2, r1
	...
    1d04:	01010000 	mrseq	r0, (UNDEF: 1)
    1d08:	6c070100 	stfvss	f0, [r7], {-0}
    1d0c:	70000001 	andvc	r0, r0, r1
    1d10:	03000001 	movweq	r0, #1
    1d14:	9f7f7300 	svcls	0x007f7300
    1d18:	00000170 	andeq	r0, r0, r0, ror r1
    1d1c:	00000178 	andeq	r0, r0, r8, ror r1
    1d20:	78530001 	ldmdavc	r3, {r0}^
    1d24:	84000001 	strhi	r0, [r0], #-1
    1d28:	03000001 	movweq	r0, #1
    1d2c:	9f7f7300 	svcls	0x007f7300
    1d30:	0000029c 	muleq	r0, ip, r2
    1d34:	0000029c 	muleq	r0, ip, r2
    1d38:	a1910004 	orrsge	r0, r1, r4
    1d3c:	00009f7f 	andeq	r9, r0, pc, ror pc
    1d40:	00000000 	andeq	r0, r0, r0
    1d44:	01010000 	mrseq	r0, (UNDEF: 1)
    1d48:	015c0101 	cmpeq	ip, r1, lsl #2
    1d4c:	018c0000 	orreq	r0, ip, r0
    1d50:	00030000 	andeq	r0, r3, r0
    1d54:	9c9f8008 	ldcls	0, cr8, [pc], {8}
    1d58:	ac000002 	stcge	0, cr0, [r0], {2}
    1d5c:	03000002 	movweq	r0, #2
    1d60:	9f800800 	svcls	0x00800800
	...
    1d6c:	01000001 	tsteq	r0, r1
    1d70:	01000001 	tsteq	r0, r1
    1d74:	01010101 	tsteq	r1, r1, lsl #2
    1d78:	015c0101 	cmpeq	ip, r1, lsl #2
    1d7c:	016c0000 	cmneq	ip, r0
    1d80:	00010000 	andeq	r0, r1, r0
    1d84:	00016c50 	andeq	r6, r1, r0, asr ip
    1d88:	00016c00 	andeq	r6, r1, r0, lsl #24
    1d8c:	7c000300 	stcvc	3, cr0, [r0], {-0}
    1d90:	016c9f01 	cmneq	ip, r1, lsl #30
    1d94:	01780000 	cmneq	r8, r0
    1d98:	00030000 	andeq	r0, r3, r0
    1d9c:	789f027c 	ldmvc	pc, {r2, r3, r4, r5, r6, r9}	; <UNPREDICTABLE>
    1da0:	88000001 	stmdahi	r0, {r0}
    1da4:	03000001 	movweq	r0, #1
    1da8:	9f017c00 	svcls	0x00017c00
    1dac:	00000188 	andeq	r0, r0, r8, lsl #3
    1db0:	0000018c 	andeq	r0, r0, ip, lsl #3
    1db4:	017e0003 	cmneq	lr, r3
    1db8:	00029c9f 	muleq	r2, pc, ip	; <UNPREDICTABLE>
    1dbc:	0002a400 	andeq	sl, r2, r0, lsl #8
    1dc0:	50000100 	andpl	r0, r0, r0, lsl #2
    1dc4:	000002a4 	andeq	r0, r0, r4, lsr #5
    1dc8:	000002ac 	andeq	r0, r0, ip, lsr #5
    1dcc:	017e0003 	cmneq	lr, r3
    1dd0:	0000009f 	muleq	r0, pc, r0	; <UNPREDICTABLE>
    1dd4:	00000000 	andeq	r0, r0, r0
    1dd8:	04000400 	streq	r0, [r0], #-1024	; 0xfffffc00
    1ddc:	5c010000 	stcpl	0, cr0, [r1], {-0}
    1de0:	60000001 	andvs	r0, r0, r1
    1de4:	03000001 	movweq	r0, #1
    1de8:	9f017100 	svcls	0x00017100
    1dec:	0000029c 	muleq	r0, ip, r2
    1df0:	000002a0 	andeq	r0, r0, r0, lsr #5
    1df4:	9f320002 	svcls	0x00320002
    1df8:	000002a0 	andeq	r0, r0, r0, lsr #5
    1dfc:	000002ac 	andeq	r0, r0, ip, lsr #5
    1e00:	01710003 	cmneq	r1, r3
    1e04:	0000009f 	muleq	r0, pc, r0	; <UNPREDICTABLE>
    1e08:	00000000 	andeq	r0, r0, r0
    1e0c:	06000700 	streq	r0, [r0], -r0, lsl #14
    1e10:	00015c00 	andeq	r5, r1, r0, lsl #24
    1e14:	00019400 	andeq	r9, r1, r0, lsl #8
    1e18:	50000100 	andpl	r0, r0, r0, lsl #2
    1e1c:	0000029c 	muleq	r0, ip, r2
    1e20:	000002b4 			; <UNDEFINED> instruction: 0x000002b4
    1e24:	00500001 	subseq	r0, r0, r1
    1e28:	00000000 	andeq	r0, r0, r0
    1e2c:	01000000 	mrseq	r0, (UNDEF: 0)
    1e30:	14000101 	strne	r0, [r0], #-257	; 0xfffffeff
    1e34:	20000002 	andcs	r0, r0, r2
    1e38:	02000002 	andeq	r0, r0, #2, 0
    1e3c:	209f3000 	addscs	r3, pc, r0
    1e40:	34000002 	strcc	r0, [r0], #-2
    1e44:	02000002 	andeq	r0, r0, #2, 0
    1e48:	009f3100 	addseq	r3, pc, r0, lsl #2
	...
    1e54:	00000101 	andeq	r0, r0, r1, lsl #2
    1e58:	00000101 	andeq	r0, r0, r1, lsl #2
    1e5c:	00000101 	andeq	r0, r0, r1, lsl #2
    1e60:	00000101 	andeq	r0, r0, r1, lsl #2
    1e64:	00000101 	andeq	r0, r0, r1, lsl #2
    1e68:	80010202 	andhi	r0, r1, r2, lsl #4
    1e6c:	80000000 	andhi	r0, r0, r0
    1e70:	01000000 	mrseq	r0, (UNDEF: 0)
    1e74:	00805300 	addeq	r5, r0, r0, lsl #6
    1e78:	008c0000 	addeq	r0, ip, r0
    1e7c:	00030000 	andeq	r0, r3, r0
    1e80:	8c9f0473 	cfldrshi	mvf0, [pc], {115}	; 0x73
    1e84:	94000000 	strls	r0, [r0], #-0
    1e88:	01000000 	mrseq	r0, (UNDEF: 0)
    1e8c:	00945100 	addseq	r5, r4, r0, lsl #2
    1e90:	00980000 	addseq	r0, r8, r0
    1e94:	00030000 	andeq	r0, r3, r0
    1e98:	989f0873 	ldmls	pc, {r0, r1, r4, r5, r6, fp}	; <UNPREDICTABLE>
    1e9c:	a4000000 	strge	r0, [r0], #-0
    1ea0:	01000000 	mrseq	r0, (UNDEF: 0)
    1ea4:	00a45100 	adceq	r5, r4, r0, lsl #2
    1ea8:	00a80000 	adceq	r0, r8, r0
    1eac:	00030000 	andeq	r0, r3, r0
    1eb0:	a89f0c73 	ldmge	pc, {r0, r1, r4, r5, r6, sl, fp}	; <UNPREDICTABLE>
    1eb4:	b4000000 	strlt	r0, [r0], #-0
    1eb8:	01000000 	mrseq	r0, (UNDEF: 0)
    1ebc:	00b45100 	adcseq	r5, r4, r0, lsl #2
    1ec0:	00b80000 	adcseq	r0, r8, r0
    1ec4:	00030000 	andeq	r0, r3, r0
    1ec8:	b89f1073 	ldmlt	pc, {r0, r1, r4, r5, r6, ip}	; <UNPREDICTABLE>
    1ecc:	c4000000 	strgt	r0, [r0], #-0
    1ed0:	01000000 	mrseq	r0, (UNDEF: 0)
    1ed4:	00c45100 	sbceq	r5, r4, r0, lsl #2
    1ed8:	00c80000 	sbceq	r0, r8, r0
    1edc:	00030000 	andeq	r0, r3, r0
    1ee0:	c89f1473 	ldmgt	pc, {r0, r1, r4, r5, r6, sl, ip}	; <UNPREDICTABLE>
    1ee4:	d0000000 	andle	r0, r0, r0
    1ee8:	01000000 	mrseq	r0, (UNDEF: 0)
    1eec:	00d05100 	sbcseq	r5, r0, r0, lsl #2
    1ef0:	00d40000 	sbcseq	r0, r4, r0
    1ef4:	00030000 	andeq	r0, r3, r0
    1ef8:	009f0471 	addseq	r0, pc, r1, ror r4	; <UNPREDICTABLE>
    1efc:	00000000 	andeq	r0, r0, r0
    1f00:	02000000 	andeq	r0, r0, #0, 0
    1f04:	0000d800 	andeq	sp, r0, r0, lsl #16
    1f08:	0000e800 	andeq	lr, r0, r0, lsl #16
    1f0c:	31000200 	mrscc	r0, R8_usr
    1f10:	0000009f 	muleq	r0, pc, r0	; <UNPREDICTABLE>
    1f14:	00000000 	andeq	r0, r0, r0
    1f18:	00000400 	andeq	r0, r0, r0, lsl #8
    1f1c:	00936c01 	addseq	r6, r3, r1, lsl #24
    1f20:	00937400 	addseq	r7, r3, r0, lsl #8
    1f24:	30000200 	andcc	r0, r0, r0, lsl #4
    1f28:	0093749f 	umullseq	r7, r3, pc, r4	; <UNPREDICTABLE>
    1f2c:	00937400 	addseq	r7, r3, r0, lsl #8
    1f30:	53000100 	movwpl	r0, #256	; 0x100
	...
    1f3c:	00000003 	andeq	r0, r0, r3
    1f40:	00000000 	andeq	r0, r0, r0
    1f44:	00009380 	andeq	r9, r0, r0, lsl #7
    1f48:	00009384 	andeq	r9, r0, r4, lsl #7
    1f4c:	9f300002 	svcls	0x00300002
    1f50:	00009384 	andeq	r9, r0, r4, lsl #7
    1f54:	00009388 	andeq	r9, r0, r8, lsl #7
    1f58:	88530001 	ldmdahi	r3, {r0}^
    1f5c:	8c000093 	stchi	0, cr0, [r0], {147}	; 0x93
    1f60:	05000093 	streq	r0, [r0, #-147]	; 0xffffff6d
    1f64:	40007300 	andmi	r7, r0, r0, lsl #6
    1f68:	938c9f21 	orrls	r9, ip, #132	; 0x84
    1f6c:	93900000 	orrsls	r0, r0, #0, 0
    1f70:	00010000 	andeq	r0, r1, r0
    1f74:	00000053 	andeq	r0, r0, r3, asr r0
    1f78:	00000000 	andeq	r0, r0, r0
    1f7c:	00000200 	andeq	r0, r0, r0, lsl #4
    1f80:	00934000 	addseq	r4, r3, r0
    1f84:	00934400 	addseq	r4, r3, r0, lsl #8
    1f88:	30000200 	andcc	r0, r0, r0, lsl #4
    1f8c:	0093449f 	umullseq	r4, r3, pc, r4	; <UNPREDICTABLE>
    1f90:	00934800 	addseq	r4, r3, r0, lsl #16
    1f94:	50000100 	andpl	r0, r0, r0, lsl #2
	...
    1fa0:	00000002 	andeq	r0, r0, r2
    1fa4:	00000000 	andeq	r0, r0, r0
    1fa8:	00009358 	andeq	r9, r0, r8, asr r3
    1fac:	0000935c 	andeq	r9, r0, ip, asr r3
    1fb0:	9f300002 	svcls	0x00300002
    1fb4:	0000935c 	andeq	r9, r0, ip, asr r3
    1fb8:	00009360 	andeq	r9, r0, r0, ror #6
    1fbc:	60530001 	subsvs	r0, r3, r1
    1fc0:	64000093 	strvs	r0, [r0], #-147	; 0xffffff6d
    1fc4:	05000093 	streq	r0, [r0, #-147]	; 0xffffff6d
    1fc8:	40007300 	andmi	r7, r0, r0, lsl #6
    1fcc:	93649f21 	cmnls	r4, #132	; 0x84
    1fd0:	936c0000 	cmnls	ip, #0, 0
    1fd4:	00010000 	andeq	r0, r1, r0
    1fd8:	00000053 	andeq	r0, r0, r3, asr r0
	...
    1fe4:	0000c800 	andeq	ip, r0, r0, lsl #16
    1fe8:	0000d800 	andeq	sp, r0, r0, lsl #16
    1fec:	50000100 	andpl	r0, r0, r0, lsl #2
    1ff0:	000000d8 	ldrdeq	r0, [r0], -r8
    1ff4:	0000011c 	andeq	r0, r0, ip, lsl r1
    1ff8:	01f30004 	mvnseq	r0, r4
    1ffc:	00009f50 	andeq	r9, r0, r0, asr pc
    2000:	00000000 	andeq	r0, r0, r0
    2004:	00020000 	andeq	r0, r2, r0
    2008:	00c80000 	sbceq	r0, r8, r0
    200c:	00d80000 	sbcseq	r0, r8, r0
    2010:	00070000 	andeq	r0, r7, r0
    2014:	e80a0070 	stmda	sl, {r4, r5, r6}
    2018:	d89f1e03 	ldmle	pc, {r0, r1, r9, sl, fp, ip}	; <UNPREDICTABLE>
    201c:	1c000000 	stcne	0, cr0, [r0], {-0}
    2020:	08000001 	stmdaeq	r0, {r0}
    2024:	5001f300 	andpl	pc, r1, r0, lsl #6
    2028:	1e03e80a 	cdpne	8, 0, cr14, cr3, cr10, {0}
    202c:	0000009f 	muleq	r0, pc, r0	; <UNPREDICTABLE>
    2030:	00000000 	andeq	r0, r0, r0
    2034:	dc000000 	stcle	0, cr0, [r0], {-0}
    2038:	1c000000 	stcne	0, cr0, [r0], {-0}
    203c:	01000001 	tsteq	r0, r1
    2040:	00005400 	andeq	r5, r0, r0, lsl #8
    2044:	00000000 	andeq	r0, r0, r0
    2048:	00010000 	andeq	r0, r1, r0
    204c:	000000f0 	strdeq	r0, [r0], -r0	; <UNPREDICTABLE>
    2050:	0000011c 	andeq	r0, r0, ip, lsl r1
    2054:	00560001 	subseq	r0, r6, r1
	...
    2060:	ec000000 	stc	0, cr0, [r0], {-0}
    2064:	ef000000 	svc	0x00000000
    2068:	01000000 	mrseq	r0, (UNDEF: 0)
    206c:	00ef5000 	rsceq	r5, pc, r0
    2070:	011c0000 	tsteq	ip, r0
    2074:	00010000 	andeq	r0, r1, r0
    2078:	00000056 	andeq	r0, r0, r6, asr r0
    207c:	00000000 	andeq	r0, r0, r0
    2080:	04000000 	streq	r0, [r0], #-0
    2084:	0b000001 	bleq	2090 <__code_start__-0x5f70>
    2088:	01000001 	tsteq	r0, r1
    208c:	00005000 	andeq	r5, r0, r0
	...
    2098:	00200000 	eoreq	r0, r0, r0
    209c:	00230000 	eoreq	r0, r3, r0
    20a0:	00010000 	andeq	r0, r1, r0
    20a4:	00002350 	andeq	r2, r0, r0, asr r3
    20a8:	00003000 	andeq	r3, r0, r0
    20ac:	54000100 	strpl	r0, [r0], #-256	; 0xffffff00
	...
    20bc:	00000030 	andeq	r0, r0, r0, lsr r0
    20c0:	0000003b 	andeq	r0, r0, fp, lsr r0
    20c4:	3b500001 	blcc	14020d0 <__bss_end__+0x13f7a78>
    20c8:	78000000 	stmdavc	r0, {}	; <UNPREDICTABLE>
    20cc:	01000000 	mrseq	r0, (UNDEF: 0)
    20d0:	00005600 	andeq	r5, r0, r0, lsl #12
    20d4:	00000000 	andeq	r0, r0, r0
    20d8:	00010000 	andeq	r0, r1, r0
    20dc:	0000004c 	andeq	r0, r0, ip, asr #32
    20e0:	00000078 	andeq	r0, r0, r8, ror r0
    20e4:	00550001 	subseq	r0, r5, r1
	...
    20f0:	48000000 	stmdami	r0, {}	; <UNPREDICTABLE>
    20f4:	4b000000 	blmi	20fc <__code_start__-0x5f04>
    20f8:	01000000 	mrseq	r0, (UNDEF: 0)
    20fc:	004b5000 	subeq	r5, fp, r0
    2100:	00780000 	rsbseq	r0, r8, r0
    2104:	00010000 	andeq	r0, r1, r0
    2108:	00000055 	andeq	r0, r0, r5, asr r0
    210c:	00000000 	andeq	r0, r0, r0
    2110:	60000000 	andvs	r0, r0, r0
    2114:	67000000 	strvs	r0, [r0, -r0]
    2118:	01000000 	mrseq	r0, (UNDEF: 0)
    211c:	00005000 	andeq	r5, r0, r0
	...
    2128:	00780000 	rsbseq	r0, r8, r0
    212c:	00840000 	addeq	r0, r4, r0
    2130:	00010000 	andeq	r0, r1, r0
    2134:	00008450 	andeq	r8, r0, r0, asr r4
    2138:	0000c800 	andeq	ip, r0, r0, lsl #16
    213c:	f3000400 	vshl.u8	d0, d0, d0
    2140:	009f5001 	addseq	r5, pc, r1
	...
    214c:	00008800 	andeq	r8, r0, r0, lsl #16
    2150:	0000c800 	andeq	ip, r0, r0, lsl #16
    2154:	54000100 	strpl	r0, [r0], #-256	; 0xffffff00
	...
    2160:	009c0001 	addseq	r0, ip, r1
    2164:	00c80000 	sbceq	r0, r8, r0
    2168:	00010000 	andeq	r0, r1, r0
    216c:	00000056 	andeq	r0, r0, r6, asr r0
	...
    2178:	00009800 	andeq	r9, r0, r0, lsl #16
    217c:	00009b00 	andeq	r9, r0, r0, lsl #22
    2180:	50000100 	andpl	r0, r0, r0, lsl #2
    2184:	0000009b 	muleq	r0, fp, r0
    2188:	000000c8 	andeq	r0, r0, r8, asr #1
    218c:	00560001 	subseq	r0, r6, r1
	...
    2198:	0000b000 	andeq	fp, r0, r0
    219c:	0000b700 	andeq	fp, r0, r0, lsl #14
    21a0:	50000100 	andpl	r0, r0, r0, lsl #2
	...
    21b0:	00000158 	andeq	r0, r0, r8, asr r1
    21b4:	00000163 	andeq	r0, r0, r3, ror #2
    21b8:	63500001 	cmpvs	r0, #1, 0
    21bc:	88000001 	stmdahi	r0, {r0}
    21c0:	01000001 	tsteq	r0, r1
    21c4:	00005400 	andeq	r5, r0, r0, lsl #8
	...
    21d0:	00000148 	andeq	r0, r0, r8, asr #2
    21d4:	00000158 	andeq	r0, r0, r8, asr r1
    21d8:	00540001 	subseq	r0, r4, r1
	...
    21e8:	0f000000 	svceq	0x00000000
    21ec:	01000000 	mrseq	r0, (UNDEF: 0)
    21f0:	000f5000 	andeq	r5, pc, r0
    21f4:	00200000 	eoreq	r0, r0, r0
    21f8:	00010000 	andeq	r0, r1, r0
    21fc:	00000054 	andeq	r0, r0, r4, asr r0
	...
    220c:	00000f00 	andeq	r0, r0, r0, lsl #30
    2210:	51000100 	mrspl	r0, (UNDEF: 16)
    2214:	0000000f 	andeq	r0, r0, pc
    2218:	00000020 	andeq	r0, r0, r0, lsr #32
    221c:	00550001 	subseq	r0, r5, r1
	...
    2228:	20000000 	andcs	r0, r0, r0
    222c:	2f000000 	svccs	0x00000000
    2230:	01000000 	mrseq	r0, (UNDEF: 0)
    2234:	002f5000 	eoreq	r5, pc, r0
    2238:	00400000 	subeq	r0, r0, r0
    223c:	00010000 	andeq	r0, r1, r0
    2240:	00000054 	andeq	r0, r0, r4, asr r0
	...
    224c:	00002000 	andeq	r2, r0, r0
    2250:	00002f00 	andeq	r2, r0, r0, lsl #30
    2254:	51000100 	mrspl	r0, (UNDEF: 16)
    2258:	0000002f 	andeq	r0, r0, pc, lsr #32
    225c:	00000040 	andeq	r0, r0, r0, asr #32
    2260:	00550001 	subseq	r0, r5, r1
	...
    2270:	00035000 	andeq	r5, r3, r0
    2274:	00039800 	andeq	r9, r3, r0, lsl #16
    2278:	50000100 	andpl	r0, r0, r0, lsl #2
    227c:	00000398 	muleq	r0, r8, r3
    2280:	0000039b 	muleq	r0, fp, r3
    2284:	68910002 	ldmvs	r1, {r1}
    2288:	0000039b 	muleq	r0, fp, r3
    228c:	000003b0 			; <UNDEFINED> instruction: 0x000003b0
    2290:	01f30004 	mvnseq	r0, r4
    2294:	00009f50 	andeq	r9, r0, r0, asr pc
	...
    22b0:	02200000 	eoreq	r0, r0, #0, 0
    22b4:	027b0000 	rsbseq	r0, fp, #0, 0
    22b8:	00010000 	andeq	r0, r1, r0
    22bc:	00027b50 	andeq	r7, r2, r0, asr fp
    22c0:	00028400 	andeq	r8, r2, r0, lsl #8
    22c4:	f3000400 	vshl.u8	d0, d0, d0
    22c8:	849f5001 	ldrhi	r5, [pc], #1	; 22d0 <__code_start__-0x5d30>
    22cc:	9c000002 	stcls	0, cr0, [r0], {2}
    22d0:	01000002 	tsteq	r0, r2
    22d4:	029c5000 	addseq	r5, ip, #0, 0
    22d8:	02a40000 	adceq	r0, r4, #0, 0
    22dc:	00040000 	andeq	r0, r4, r0
    22e0:	9f5001f3 	svcls	0x005001f3
    22e4:	000002a4 	andeq	r0, r0, r4, lsr #5
    22e8:	000002a7 	andeq	r0, r0, r7, lsr #5
    22ec:	a7500001 	ldrbge	r0, [r0, -r1]
    22f0:	c8000002 	stmdagt	r0, {r1}
    22f4:	04000002 	streq	r0, [r0], #-2
    22f8:	5001f300 	andpl	pc, r1, r0, lsl #6
    22fc:	0002c89f 	muleq	r2, pc, r8	; <UNPREDICTABLE>
    2300:	0002e000 	andeq	lr, r2, r0
    2304:	50000100 	andpl	r0, r0, r0, lsl #2
    2308:	000002e0 	andeq	r0, r0, r0, ror #5
    230c:	000002e8 	andeq	r0, r0, r8, ror #5
    2310:	01f30004 	mvnseq	r0, r4
    2314:	02e89f50 	rsceq	r9, r8, #80, 30	; 0x140
    2318:	02eb0000 	rsceq	r0, fp, #0, 0
    231c:	00010000 	andeq	r0, r1, r0
    2320:	0002eb50 	andeq	lr, r2, r0, asr fp
    2324:	00033800 	andeq	r3, r3, r0, lsl #16
    2328:	f3000400 	vshl.u8	d0, d0, d0
    232c:	009f5001 	addseq	r5, pc, r1
	...
    2348:	20000000 	andcs	r0, r0, r0
    234c:	44000002 	strmi	r0, [r0], #-2
    2350:	01000002 	tsteq	r0, r2
    2354:	02445100 	subeq	r5, r4, #0
    2358:	02680000 	rsbeq	r0, r8, #0, 0
    235c:	00010000 	andeq	r0, r1, r0
    2360:	00026851 	andeq	r6, r2, r1, asr r8
    2364:	00027b00 	andeq	r7, r2, r0, lsl #22
    2368:	71000300 	mrsvc	r0, LR_irq
    236c:	027b9f01 	rsbseq	r9, fp, #1, 30
    2370:	02840000 	addeq	r0, r4, #0, 0
    2374:	00170000 	andseq	r0, r7, r0
    2378:	5101f338 	tstpl	r1, r8, lsr r3	; <UNPREDICTABLE>
    237c:	405101f3 	ldrshmi	r0, [r1], #-19	; 0xffffffed
    2380:	0c22244b 	cfstrseq	mvf2, [r2], #-300	; 0xfffffed4
    2384:	80000008 	andhi	r0, r0, r8
    2388:	0001282d 	andeq	r2, r1, sp, lsr #16
    238c:	849f1316 	ldrhi	r1, [pc], #790	; 2394 <__code_start__-0x5c6c>
    2390:	98000002 	stmdals	r0, {r1}
    2394:	01000002 	tsteq	r0, r2
    2398:	02985100 	addseq	r5, r8, #0
    239c:	02a40000 	adceq	r0, r4, #0, 0
    23a0:	00040000 	andeq	r0, r4, r0
    23a4:	9f5101f3 	svcls	0x005101f3
    23a8:	000002a4 	andeq	r0, r0, r4, lsr #5
    23ac:	000002a7 	andeq	r0, r0, r7, lsr #5
    23b0:	a7510001 	ldrbge	r0, [r1, -r1]
    23b4:	c8000002 	stmdagt	r0, {r1}
    23b8:	04000002 	streq	r0, [r0], #-2
    23bc:	5101f300 	mrspl	pc, SP_irq	; <UNPREDICTABLE>
    23c0:	0002c89f 	muleq	r2, pc, r8	; <UNPREDICTABLE>
    23c4:	0002dc00 	andeq	sp, r2, r0, lsl #24
    23c8:	51000100 	mrspl	r0, (UNDEF: 16)
    23cc:	000002dc 	ldrdeq	r0, [r0], -ip
    23d0:	00000338 	andeq	r0, r0, r8, lsr r3
    23d4:	f3380017 	vqadd.u64	d0, d8, d7
    23d8:	01f35101 	mvnseq	r5, r1, lsl #2
    23dc:	244b4051 	strbcs	r4, [fp], #-81	; 0xffffffaf
    23e0:	00080c22 	andeq	r0, r8, r2, lsr #24
    23e4:	282d8000 	stmdacs	sp!, {pc}
    23e8:	13160001 	tstne	r6, #1, 0
    23ec:	0000009f 	muleq	r0, pc, r0	; <UNPREDICTABLE>
	...
    2400:	00024c00 	andeq	r4, r2, r0, lsl #24
    2404:	00025c00 	andeq	r5, r2, r0, lsl #24
    2408:	52000100 	andpl	r0, r0, #0
    240c:	0000025c 	andeq	r0, r0, ip, asr r2
    2410:	00000264 	andeq	r0, r0, r4, ror #4
    2414:	34030005 	strcc	r0, [r3], #-5
    2418:	640000a2 	strvs	r0, [r0], #-162	; 0xffffff5e
    241c:	7b000002 	blvc	242c <__code_start__-0x5bd4>
    2420:	01000002 	tsteq	r0, r2
    2424:	02c85300 	sbceq	r5, r8, #0, 6
    2428:	02d80000 	sbcseq	r0, r8, #0, 0
    242c:	00010000 	andeq	r0, r1, r0
    2430:	0002d852 	andeq	sp, r2, r2, asr r8
    2434:	0002e300 	andeq	lr, r2, r0, lsl #6
    2438:	03000500 	movweq	r0, #1280	; 0x500
    243c:	0000a234 	andeq	sl, r0, r4, lsr r2
    2440:	000002e8 	andeq	r0, r0, r8, ror #5
    2444:	000002eb 	andeq	r0, r0, fp, ror #5
    2448:	00530001 	subseq	r0, r3, r1
    244c:	00000000 	andeq	r0, r0, r0
    2450:	04000000 	streq	r0, [r0], #-0
    2454:	00023000 	andeq	r3, r2, r0
    2458:	00023400 	andeq	r3, r2, r0, lsl #8
    245c:	51000100 	mrspl	r0, (UNDEF: 16)
	...
    2468:	023c0002 	eorseq	r0, ip, #2, 0
    246c:	02440000 	subeq	r0, r4, #0, 0
    2470:	00020000 	andeq	r0, r2, r0
    2474:	00009f38 	andeq	r9, r0, r8, lsr pc
    2478:	00000000 	andeq	r0, r0, r0
    247c:	00020000 	andeq	r0, r2, r0
    2480:	0000023c 	andeq	r0, r0, ip, lsr r2
    2484:	00000244 	andeq	r0, r0, r4, asr #4
    2488:	00510001 	subseq	r0, r1, r1
    248c:	00000000 	andeq	r0, r0, r0
    2490:	01000000 	mrseq	r0, (UNDEF: 0)
    2494:	00000000 	andeq	r0, r0, r0
    2498:	00024c00 	andeq	r4, r2, r0, lsl #24
    249c:	00026400 	andeq	r6, r2, r0, lsl #8
    24a0:	51000100 	mrspl	r0, (UNDEF: 16)
    24a4:	000002c8 	andeq	r0, r0, r8, asr #5
    24a8:	000002dc 	ldrdeq	r0, [r0], -ip
    24ac:	dc510001 	mrrcle	0, 0, r0, r1, cr1
    24b0:	e8000002 	stmda	r0, {r1}
    24b4:	17000002 	strne	r0, [r0, -r2]
    24b8:	01f33800 	mvnseq	r3, r0, lsl #16
    24bc:	5101f351 	tstpl	r1, r1, asr r3	; <UNPREDICTABLE>
    24c0:	22244b40 	eorcs	r4, r4, #64, 22	; 0x10000
    24c4:	0000080c 	andeq	r0, r0, ip, lsl #16
    24c8:	01282d80 	smlawbeq	r8, r0, sp, r2
    24cc:	9f131600 	svcls	0x00131600
	...
    24d8:	00000001 	andeq	r0, r0, r1
    24dc:	00000000 	andeq	r0, r0, r0
    24e0:	0000024c 	andeq	r0, r0, ip, asr #4
    24e4:	0000025c 	andeq	r0, r0, ip, asr r2
    24e8:	5c520001 	mrrcpl	0, 0, r0, r2, cr1
    24ec:	64000002 	strvs	r0, [r0], #-2
    24f0:	05000002 	streq	r0, [r0, #-2]
    24f4:	a2340300 	eorsge	r0, r4, #0, 6
    24f8:	02c80000 	sbceq	r0, r8, #0, 0
    24fc:	02d80000 	sbcseq	r0, r8, #0, 0
    2500:	00010000 	andeq	r0, r1, r0
    2504:	0002d852 	andeq	sp, r2, r2, asr r8
    2508:	0002e300 	andeq	lr, r2, r0, lsl #6
    250c:	03000500 	movweq	r0, #1280	; 0x500
    2510:	0000a234 	andeq	sl, r0, r4, lsr r2
	...
    251c:	024c0004 	subeq	r0, ip, #4, 0
    2520:	02500000 	subseq	r0, r0, #0, 0
    2524:	00010000 	andeq	r0, r1, r0
    2528:	00000051 	andeq	r0, r0, r1, asr r0
    252c:	00000000 	andeq	r0, r0, r0
    2530:	64000300 	strvs	r0, [r0], #-768	; 0xfffffd00
    2534:	68000002 	stmdavs	r0, {r1}
    2538:	01000002 	tsteq	r0, r2
    253c:	00005100 	andeq	r5, r0, r0, lsl #2
    2540:	00000000 	andeq	r0, r0, r0
    2544:	00030000 	andeq	r0, r3, r0
    2548:	00000264 	andeq	r0, r0, r4, ror #4
    254c:	00000268 	andeq	r0, r0, r8, ror #4
    2550:	00530001 	subseq	r0, r3, r1
	...
    2560:	bc000000 	stclt	0, cr0, [r0], {-0}
    2564:	d3000001 	movwle	r0, #1
    2568:	01000001 	tsteq	r0, r1
    256c:	01d35000 	bicseq	r5, r3, r0
    2570:	01f00000 	mvnseq	r0, r0
    2574:	00010000 	andeq	r0, r1, r0
    2578:	0001f054 	andeq	pc, r1, r4, asr r0	; <UNPREDICTABLE>
    257c:	00020800 	andeq	r0, r2, r0, lsl #16
    2580:	50000100 	andpl	r0, r0, r0, lsl #2
    2584:	00000208 	andeq	r0, r0, r8, lsl #4
    2588:	00000220 	andeq	r0, r0, r0, lsr #4
    258c:	00540001 	subseq	r0, r4, r1
	...
    2598:	d8000000 	stmdale	r0, {}	; <UNPREDICTABLE>
    259c:	e3000001 	movw	r0, #1
    25a0:	01000001 	tsteq	r0, r1
    25a4:	01e35000 	mvneq	r5, r0
    25a8:	01f00000 	mvnseq	r0, r0
    25ac:	00010000 	andeq	r0, r1, r0
    25b0:	00000055 	andeq	r0, r0, r5, asr r0
	...
    25c8:	00012400 	andeq	r2, r1, r0, lsl #8
    25cc:	00013800 	andeq	r3, r1, r0, lsl #16
    25d0:	50000100 	andpl	r0, r0, r0, lsl #2
    25d4:	00000138 	andeq	r0, r0, r8, lsr r1
    25d8:	0000013c 	andeq	r0, r0, ip, lsr r1
    25dc:	79700003 	ldmdbvc	r0!, {r0, r1}^
    25e0:	00013c9f 	muleq	r1, pc, ip	; <UNPREDICTABLE>
    25e4:	00016000 	andeq	r6, r1, r0
    25e8:	53000100 	movwpl	r0, #256	; 0x100
    25ec:	00000160 	andeq	r0, r0, r0, ror #2
    25f0:	00000178 	andeq	r0, r0, r8, ror r1
    25f4:	78500001 	ldmdavc	r0, {r0}^
    25f8:	80000001 	andhi	r0, r0, r1
    25fc:	04000001 	streq	r0, [r0], #-1
    2600:	5001f300 	andpl	pc, r1, r0, lsl #6
    2604:	0001809f 	muleq	r1, pc, r0	; <UNPREDICTABLE>
    2608:	00019000 	andeq	r9, r1, r0
    260c:	53000100 	movwpl	r0, #256	; 0x100
    2610:	00000190 	muleq	r0, r0, r1
    2614:	0000019f 	muleq	r0, pc, r1	; <UNPREDICTABLE>
    2618:	68910002 	ldmvs	r1, {r1}
    261c:	0000019f 	muleq	r0, pc, r1	; <UNPREDICTABLE>
    2620:	000001bc 			; <UNDEFINED> instruction: 0x000001bc
    2624:	01f30009 	mvnseq	r0, r9
    2628:	09072350 	stmdbeq	r7, {r4, r6, r8, r9, sp}
    262c:	009f1af8 			; <UNDEFINED> instruction: 0x009f1af8
	...
    2638:	44000000 	strmi	r0, [r0], #-0
    263c:	60000001 	andvs	r0, r0, r1
    2640:	01000001 	tsteq	r0, r1
    2644:	01805000 	orreq	r5, r0, r0
    2648:	019c0000 	orrseq	r0, ip, r0
    264c:	00010000 	andeq	r0, r1, r0
    2650:	00000050 	andeq	r0, r0, r0, asr r0
    2654:	00000000 	andeq	r0, r0, r0
    2658:	34000300 	strcc	r0, [r0], #-768	; 0xfffffd00
    265c:	3c000001 	stccc	0, cr0, [r0], {1}
    2660:	02000001 	andeq	r0, r0, #1, 0
    2664:	009f3800 	addseq	r3, pc, r0, lsl #16
    2668:	00000000 	andeq	r0, r0, r0
    266c:	03000000 	movweq	r0, #0
    2670:	34000000 	strcc	r0, [r0], #-0
    2674:	38000001 	stmdacc	r0, {r0}
    2678:	01000001 	tsteq	r0, r1
    267c:	01385000 	teqeq	r8, r0
    2680:	013c0000 	teqeq	ip, r0
    2684:	00030000 	andeq	r0, r3, r0
    2688:	009f7970 	addseq	r7, pc, r0, ror r9	; <UNPREDICTABLE>
	...
    26a0:	00003000 	andeq	r3, r0, r0
    26a4:	00006000 	andeq	r6, r0, r0
    26a8:	50000100 	andpl	r0, r0, r0, lsl #2
    26ac:	00000060 	andeq	r0, r0, r0, rrx
    26b0:	0000006c 	andeq	r0, r0, ip, rrx
    26b4:	34030005 	strcc	r0, [r3], #-5
    26b8:	6c0000a2 	stcvs	0, cr0, [r0], {162}	; 0xa2
    26bc:	84000000 	strhi	r0, [r0], #-0
    26c0:	01000000 	mrseq	r0, (UNDEF: 0)
    26c4:	00845000 	addeq	r5, r4, r0
    26c8:	008c0000 	addeq	r0, ip, r0
    26cc:	00040000 	andeq	r0, r4, r0
    26d0:	9f5001f3 	svcls	0x005001f3
    26d4:	0000008c 	andeq	r0, r0, ip, lsl #1
    26d8:	000000ac 	andeq	r0, r0, ip, lsr #1
    26dc:	ac500001 	mrrcge	0, 0, r0, r0, cr1	; <UNPREDICTABLE>
    26e0:	af000000 	svcge	0x00000000
    26e4:	02000000 	andeq	r0, r0, #0, 0
    26e8:	af689100 	svcge	0x00689100
    26ec:	cc000000 	stcgt	0, cr0, [r0], {-0}
    26f0:	04000000 	streq	r0, [r0], #-0
    26f4:	5001f300 	andpl	pc, r1, r0, lsl #6
    26f8:	0000009f 	muleq	r0, pc, r0	; <UNPREDICTABLE>
	...
    2708:	00003000 	andeq	r3, r0, r0
    270c:	00008000 	andeq	r8, r0, r0
    2710:	51000100 	mrspl	r0, (UNDEF: 16)
    2714:	00000080 	andeq	r0, r0, r0, lsl #1
    2718:	0000008c 	andeq	r0, r0, ip, lsl #1
    271c:	01f30004 	mvnseq	r0, r4
    2720:	008c9f51 	addeq	r9, ip, r1, asr pc
    2724:	00a80000 	adceq	r0, r8, r0
    2728:	00010000 	andeq	r0, r1, r0
    272c:	0000a851 	andeq	sl, r0, r1, asr r8
    2730:	0000cc00 	andeq	ip, r0, r0, lsl #24
    2734:	f3000400 	vshl.u8	d0, d0, d0
    2738:	009f5101 	addseq	r5, pc, r1, lsl #2
    273c:	00000000 	andeq	r0, r0, r0
    2740:	01000000 	mrseq	r0, (UNDEF: 0)
	...
    2750:	00003800 	andeq	r3, r0, r0, lsl #16
    2754:	00006000 	andeq	r6, r0, r0
    2758:	50000100 	andpl	r0, r0, r0, lsl #2
    275c:	00000060 	andeq	r0, r0, r0, rrx
    2760:	0000006c 	andeq	r0, r0, ip, rrx
    2764:	34030005 	strcc	r0, [r3], #-5
    2768:	6c0000a2 	stcvs	0, cr0, [r0], {162}	; 0xa2
    276c:	84000000 	strhi	r0, [r0], #-0
    2770:	01000000 	mrseq	r0, (UNDEF: 0)
    2774:	00845000 	addeq	r5, r4, r0
    2778:	008c0000 	addeq	r0, ip, r0
    277c:	00040000 	andeq	r0, r4, r0
    2780:	9f5001f3 	svcls	0x005001f3
    2784:	0000008c 	andeq	r0, r0, ip, lsl #1
    2788:	000000ac 	andeq	r0, r0, ip, lsr #1
    278c:	ac500001 	mrrcge	0, 0, r0, r0, cr1	; <UNPREDICTABLE>
    2790:	af000000 	svcge	0x00000000
    2794:	02000000 	andeq	r0, r0, #0, 0
    2798:	af689100 	svcge	0x00689100
    279c:	cc000000 	stcgt	0, cr0, [r0], {-0}
    27a0:	04000000 	streq	r0, [r0], #-0
    27a4:	5001f300 	andpl	pc, r1, r0, lsl #6
    27a8:	0000009f 	muleq	r0, pc, r0	; <UNPREDICTABLE>
	...
    27b4:	70000000 	andvc	r0, r0, r0
    27b8:	7c000001 	stcvc	0, cr0, [r0], {1}
    27bc:	01000001 	tsteq	r0, r1
    27c0:	017c5000 	cmneq	ip, r0
    27c4:	01880000 	orreq	r0, r8, r0
    27c8:	00010000 	andeq	r0, r1, r0
    27cc:	00018854 	andeq	r8, r1, r4, asr r8
    27d0:	00019800 	andeq	r9, r1, r0, lsl #16
    27d4:	f3000400 	vshl.u8	d0, d0, d0
    27d8:	009f5001 	addseq	r5, pc, r1
	...
    27ec:	00017800 	andeq	r7, r1, r0, lsl #16
    27f0:	00017c00 	andeq	r7, r1, r0, lsl #24
    27f4:	70000b00 	andvc	r0, r0, r0, lsl #22
    27f8:	23253500 			; <UNDEFINED> instruction: 0x23253500
    27fc:	818080b4 	strhhi	r8, [r0, r4]
    2800:	017c9f02 	cmneq	ip, r2, lsl #30
    2804:	01800000 	orreq	r0, r0, r0
    2808:	000b0000 	andeq	r0, fp, r0
    280c:	25350074 	ldrcs	r0, [r5, #-116]!	; 0xffffff8c
    2810:	8080b423 	addhi	fp, r0, r3, lsr #8
    2814:	809f0281 	addshi	r0, pc, r1, lsl #5
    2818:	83000001 	movwhi	r0, #1
    281c:	01000001 	tsteq	r0, r1
    2820:	01835000 	orreq	r5, r3, r0
    2824:	01880000 	orreq	r0, r8, r0
    2828:	000b0000 	andeq	r0, fp, r0
    282c:	25350074 	ldrcs	r0, [r5, #-116]!	; 0xffffff8c
    2830:	8080b423 	addhi	fp, r0, r3, lsr #8
    2834:	889f0281 	ldmhi	pc, {r0, r7, r9}	; <UNPREDICTABLE>
    2838:	98000001 	stmdals	r0, {r0}
    283c:	0c000001 	stceq	0, cr0, [r0], {1}
    2840:	5001f300 	andpl	pc, r1, r0, lsl #6
    2844:	b4232535 	strtlt	r2, [r3], #-1333	; 0xfffffacb
    2848:	02818080 	addeq	r8, r1, #128, 0	; 0x80
    284c:	0000009f 	muleq	r0, pc, r0	; <UNPREDICTABLE>
    2850:	00000000 	andeq	r0, r0, r0
    2854:	00000100 	andeq	r0, r0, r0, lsl #2
    2858:	78000000 	stmdavc	r0, {}	; <UNPREDICTABLE>
    285c:	7c000001 	stcvc	0, cr0, [r0], {1}
    2860:	05000001 	streq	r0, [r0, #-1]
    2864:	4f007000 	svcmi	0x00007000
    2868:	017c9f1a 	cmneq	ip, sl, lsl pc
    286c:	01880000 	orreq	r0, r8, r0
    2870:	00050000 	andeq	r0, r5, r0
    2874:	1a4f0074 	bne	13c2a4c <__bss_end__+0x13b83f4>
    2878:	0001889f 	muleq	r1, pc, r8	; <UNPREDICTABLE>
    287c:	00019800 	andeq	r9, r1, r0, lsl #16
    2880:	54000100 	strpl	r0, [r0], #-256	; 0xffffff00
	...
    2898:	00000140 	andeq	r0, r0, r0, asr #2
    289c:	00000154 	andeq	r0, r0, r4, asr r1
    28a0:	54500001 	ldrbpl	r0, [r0], #-1
    28a4:	58000001 	stmdapl	r0, {r0}
    28a8:	01000001 	tsteq	r0, r1
    28ac:	01585100 	cmpeq	r8, r0, lsl #2
    28b0:	015c0000 	cmpeq	ip, r0
    28b4:	00040000 	andeq	r0, r4, r0
    28b8:	9f5001f3 	svcls	0x005001f3
    28bc:	0000015c 	andeq	r0, r0, ip, asr r1
    28c0:	00000160 	andeq	r0, r0, r0, ror #2
    28c4:	60500001 	subsvs	r0, r0, r1
    28c8:	64000001 	strvs	r0, [r0], #-1
    28cc:	01000001 	tsteq	r0, r1
    28d0:	01645100 	cmneq	r4, r0, lsl #2
    28d4:	01700000 	cmneq	r0, r0
    28d8:	00040000 	andeq	r0, r4, r0
    28dc:	9f5001f3 	svcls	0x005001f3
	...
    28ec:	00000140 	andeq	r0, r0, r0, asr #2
    28f0:	0000014c 	andeq	r0, r0, ip, asr #2
    28f4:	4c510001 	mrrcmi	0, 0, r0, r1, cr1
    28f8:	70000001 	andvc	r0, r0, r1
    28fc:	04000001 	streq	r0, [r0], #-1
    2900:	5101f300 	mrspl	pc, SP_irq	; <UNPREDICTABLE>
    2904:	0000009f 	muleq	r0, pc, r0	; <UNPREDICTABLE>
    2908:	00000000 	andeq	r0, r0, r0
    290c:	00000100 	andeq	r0, r0, r0, lsl #2
    2910:	50000000 	andpl	r0, r0, r0
    2914:	54000001 	strpl	r0, [r0], #-1
    2918:	01000001 	tsteq	r0, r1
    291c:	01545000 	cmpeq	r4, r0
    2920:	01580000 	cmpeq	r8, r0
    2924:	00010000 	andeq	r0, r1, r0
    2928:	00015851 	andeq	r5, r1, r1, asr r8
    292c:	00015c00 	andeq	r5, r1, r0, lsl #24
    2930:	f3000400 	vshl.u8	d0, d0, d0
    2934:	009f5001 	addseq	r5, pc, r1
    2938:	00000000 	andeq	r0, r0, r0
    293c:	02000000 	andeq	r0, r0, #0, 0
    2940:	00000000 	andeq	r0, r0, r0
    2944:	00015c00 	andeq	r5, r1, r0, lsl #24
    2948:	00016000 	andeq	r6, r1, r0
    294c:	50000100 	andpl	r0, r0, r0, lsl #2
    2950:	00000160 	andeq	r0, r0, r0, ror #2
    2954:	00000164 	andeq	r0, r0, r4, ror #2
    2958:	64510001 	ldrbvs	r0, [r1], #-1
    295c:	70000001 	andvc	r0, r0, r1
    2960:	04000001 	streq	r0, [r0], #-1
    2964:	5001f300 	andpl	pc, r1, r0, lsl #6
    2968:	0000009f 	muleq	r0, pc, r0	; <UNPREDICTABLE>
	...
    2974:	e8000000 	stmda	r0, {}	; <UNPREDICTABLE>
    2978:	08000000 	stmdaeq	r0, {}	; <UNPREDICTABLE>
    297c:	01000001 	tsteq	r0, r1
    2980:	01085000 	mrseq	r5, (UNDEF: 8)
    2984:	01280000 			; <UNDEFINED> instruction: 0x01280000
    2988:	00010000 	andeq	r0, r1, r0
    298c:	00012854 	andeq	r2, r1, r4, asr r8
    2990:	00014000 	andeq	r4, r1, r0
    2994:	f3000400 	vshl.u8	d0, d0, d0
    2998:	009f5001 	addseq	r5, pc, r1
    299c:	00000000 	andeq	r0, r0, r0
    29a0:	02000000 	andeq	r0, r0, #0, 0
    29a4:	00000000 	andeq	r0, r0, r0
    29a8:	0000e800 	andeq	lr, r0, r0, lsl #16
    29ac:	00010800 	andeq	r0, r1, r0, lsl #16
    29b0:	50000100 	andpl	r0, r0, r0, lsl #2
    29b4:	00000108 	andeq	r0, r0, r8, lsl #2
    29b8:	00000128 	andeq	r0, r0, r8, lsr #2
    29bc:	28540001 	ldmdacs	r4, {r0}^
    29c0:	40000001 	andmi	r0, r0, r1
    29c4:	04000001 	streq	r0, [r0], #-1
    29c8:	5001f300 	andpl	pc, r1, r0, lsl #6
    29cc:	0000009f 	muleq	r0, pc, r0	; <UNPREDICTABLE>
	...
    29d8:	f0000000 			; <UNDEFINED> instruction: 0xf0000000
    29dc:	08000000 	stmdaeq	r0, {}	; <UNPREDICTABLE>
    29e0:	01000001 	tsteq	r0, r1
    29e4:	01085000 	mrseq	r5, (UNDEF: 8)
    29e8:	01280000 			; <UNDEFINED> instruction: 0x01280000
    29ec:	00010000 	andeq	r0, r1, r0
    29f0:	00012854 	andeq	r2, r1, r4, asr r8
    29f4:	00014000 	andeq	r4, r1, r0
    29f8:	f3000400 	vshl.u8	d0, d0, d0
    29fc:	009f5001 	addseq	r5, pc, r1
    2a00:	00000000 	andeq	r0, r0, r0
    2a04:	03000000 	movweq	r0, #0
    2a08:	00000000 	andeq	r0, r0, r0
    2a0c:	0000f000 	andeq	pc, r0, r0
    2a10:	00010800 	andeq	r0, r1, r0, lsl #16
    2a14:	70000700 	andvc	r0, r0, r0, lsl #14
    2a18:	331d3a00 	tstcc	sp, #0, 20
    2a1c:	01089f1e 	tsteq	r8, lr, lsl pc
    2a20:	01280000 			; <UNDEFINED> instruction: 0x01280000
    2a24:	00070000 	andeq	r0, r7, r0
    2a28:	1d3a0074 	ldcne	0, cr0, [sl, #-464]!	; 0xfffffe30
    2a2c:	289f1e33 	ldmcs	pc, {r0, r1, r4, r5, r9, sl, fp, ip}	; <UNPREDICTABLE>
    2a30:	40000001 	andmi	r0, r0, r1
    2a34:	08000001 	stmdaeq	r0, {r0}
    2a38:	5001f300 	andpl	pc, r1, r0, lsl #6
    2a3c:	1e331d3a 	mrcne	13, 1, r1, cr3, cr10, {1}
    2a40:	0000009f 	muleq	r0, pc, r0	; <UNPREDICTABLE>
	...
    2a4c:	10000000 	andne	r0, r0, r0
    2a50:	38000001 	stmdacc	r0, {r0}
    2a54:	01000001 	tsteq	r0, r1
    2a58:	01385600 	teqeq	r8, r0, lsl #12
    2a5c:	013b0000 	teqeq	fp, r0
    2a60:	00010000 	andeq	r0, r1, r0
    2a64:	00013b50 	andeq	r3, r1, r0, asr fp
    2a68:	00014000 	andeq	r4, r1, r0
    2a6c:	f3002600 	vmax.u8	d2, d0, d0
    2a70:	2cf75001 	ldclcs	0, cr5, [r7], #4
    2a74:	25f425f7 	ldrbcs	r2, [r4, #1527]!	; 0x5f7
    2a78:	cccccd08 	stclgt	13, cr12, [ip], {8}
    2a7c:	000000cc 	andeq	r0, r0, ip, asr #1
    2a80:	20081e00 	andcs	r1, r8, r0, lsl #28
    2a84:	f72525f7 			; <UNDEFINED> instruction: 0xf72525f7
    2a88:	3300f72c 	movwcc	pc, #1836	; 0x72c	; <UNPREDICTABLE>
    2a8c:	80802325 	addhi	r2, r0, r5, lsr #6
    2a90:	243240a0 	ldrtcs	r4, [r2], #-160	; 0xffffff60
    2a94:	0000009f 	muleq	r0, pc, r0	; <UNPREDICTABLE>
    2a98:	00000000 	andeq	r0, r0, r0
    2a9c:	01010000 	mrseq	r0, (UNDEF: 1)
    2aa0:	00000000 	andeq	r0, r0, r0
    2aa4:	00012000 	andeq	r2, r1, r0
    2aa8:	00012000 	andeq	r2, r1, r0
    2aac:	50000100 	andpl	r0, r0, r0, lsl #2
    2ab0:	00000120 	andeq	r0, r0, r0, lsr #2
    2ab4:	00000128 	andeq	r0, r0, r8, lsr #2
    2ab8:	7437000d 	ldrtvc	r0, [r7], #-13
    2abc:	331d3a00 	tstcc	sp, #0, 20
    2ac0:	7020241e 	eorvc	r2, r0, lr, lsl r4
    2ac4:	289f1a00 	ldmcs	pc, {r9, fp, ip}	; <UNPREDICTABLE>
    2ac8:	30000001 	andcc	r0, r0, r1
    2acc:	0e000001 	cdpeq	0, 0, cr0, cr0, cr1, {0}
    2ad0:	01f33700 	mvnseq	r3, r0, lsl #14
    2ad4:	331d3a50 	tstcc	sp, #80, 20	; 0x50000
    2ad8:	7020241e 	eorvc	r2, r0, lr, lsl r4
    2adc:	309f1a00 	addscc	r1, pc, r0, lsl #20
    2ae0:	3b000001 	blcc	2aec <__code_start__-0x5514>
    2ae4:	0e000001 	cdpeq	0, 0, cr0, cr0, cr1, {0}
    2ae8:	01f33700 	mvnseq	r3, r0, lsl #14
    2aec:	331d3a50 	tstcc	sp, #80, 20	; 0x50000
    2af0:	7320241e 			; <UNDEFINED> instruction: 0x7320241e
    2af4:	009f1a00 	addseq	r1, pc, r0, lsl #20
	...
    2b00:	60000000 	andvs	r0, r0, r0
    2b04:	90000000 	andls	r0, r0, r0
    2b08:	01000000 	mrseq	r0, (UNDEF: 0)
    2b0c:	00905000 	addseq	r5, r0, r0
    2b10:	00b80000 	adcseq	r0, r8, r0
    2b14:	00040000 	andeq	r0, r4, r0
    2b18:	9f5001f3 	svcls	0x005001f3
	...
    2b24:	00000002 	andeq	r0, r0, r2
    2b28:	00000060 	andeq	r0, r0, r0, rrx
    2b2c:	00000090 	muleq	r0, r0, r0
    2b30:	90500001 	subsls	r0, r0, r1
    2b34:	b8000000 	stmdalt	r0, {}	; <UNPREDICTABLE>
    2b38:	04000000 	streq	r0, [r0], #-0
    2b3c:	5001f300 	andpl	pc, r1, r0, lsl #6
    2b40:	0000009f 	muleq	r0, pc, r0	; <UNPREDICTABLE>
	...
    2b4c:	00006800 	andeq	r6, r0, r0, lsl #16
    2b50:	00009000 	andeq	r9, r0, r0
    2b54:	50000100 	andpl	r0, r0, r0, lsl #2
    2b58:	00000090 	muleq	r0, r0, r0
    2b5c:	000000b8 	strheq	r0, [r0], -r8
    2b60:	01f30004 	mvnseq	r0, r4
    2b64:	00009f50 	andeq	r9, r0, r0, asr pc
	...
    2b70:	00a00000 	adceq	r0, r0, r0
    2b74:	00b00000 	adcseq	r0, r0, r0
    2b78:	00010000 	andeq	r0, r1, r0
    2b7c:	0000b054 	andeq	fp, r0, r4, asr r0
    2b80:	0000b800 	andeq	fp, r0, r0, lsl #16
    2b84:	f3002900 	vmls.i8	d2, d0, d0
    2b88:	01f35001 	mvnseq	r5, r1
    2b8c:	f72cf750 			; <UNDEFINED> instruction: 0xf72cf750
    2b90:	0825f425 	stmdaeq	r5!, {r0, r2, r5, sl, ip, sp, lr, pc}
    2b94:	cccccccd 	stclgt	12, cr12, [ip], {205}	; 0xcd
    2b98:	00000000 	andeq	r0, r0, r0
    2b9c:	f720081e 			; <UNDEFINED> instruction: 0xf720081e
    2ba0:	2cf72525 	cfldr64cs	mvdx2, [r7], #148	; 0x94
    2ba4:	253300f7 	ldrcs	r0, [r3, #-247]!	; 0xffffff09
    2ba8:	24311e35 	ldrtcs	r1, [r1], #-3637	; 0xfffff1cb
    2bac:	9f1e331c 	svcls	0x001e331c
	...
    2bb8:	00000001 	andeq	r0, r0, r1
    2bbc:	00a00000 	adceq	r0, r0, r0
    2bc0:	00b00000 	adcseq	r0, r0, r0
    2bc4:	00010000 	andeq	r0, r1, r0
    2bc8:	0000b055 	andeq	fp, r0, r5, asr r0
    2bcc:	0000b300 	andeq	fp, r0, r0, lsl #6
    2bd0:	50000100 	andpl	r0, r0, r0, lsl #2
    2bd4:	000000b3 	strheq	r0, [r0], -r3
    2bd8:	000000b8 	strheq	r0, [r0], -r8
    2bdc:	01f30026 	mvnseq	r0, r6, lsr #32
    2be0:	f72cf750 			; <UNDEFINED> instruction: 0xf72cf750
    2be4:	0825f425 	stmdaeq	r5!, {r0, r2, r5, sl, ip, sp, lr, pc}
    2be8:	cccccccd 	stclgt	12, cr12, [ip], {205}	; 0xcd
    2bec:	00000000 	andeq	r0, r0, r0
    2bf0:	f720081e 			; <UNDEFINED> instruction: 0xf720081e
    2bf4:	2cf72525 	cfldr64cs	mvdx2, [r7], #148	; 0x94
    2bf8:	253300f7 	ldrcs	r0, [r3, #-247]!	; 0xffffff09
    2bfc:	a0808023 	addge	r8, r0, r3, lsr #32
    2c00:	9f243240 	svcls	0x00243240
	...
    2c0c:	01000002 	tsteq	r0, r2
    2c10:	00000001 	andeq	r0, r0, r1
    2c14:	000000a0 	andeq	r0, r0, r0, lsr #1
    2c18:	000000a4 	andeq	r0, r0, r4, lsr #1
    2c1c:	a4500001 	ldrbge	r0, [r0], #-1
    2c20:	a4000000 	strge	r0, [r0], #-0
    2c24:	01000000 	mrseq	r0, (UNDEF: 0)
    2c28:	00a45300 	adceq	r5, r4, r0, lsl #6
    2c2c:	00a80000 	adceq	r0, r8, r0
    2c30:	00080000 	andeq	r0, r8, r0
    2c34:	24007431 	strcs	r7, [r0], #-1073	; 0xfffffbcf
    2c38:	9f210073 	svcls	0x00210073
    2c3c:	000000a8 	andeq	r0, r0, r8, lsr #1
    2c40:	000000b3 	strheq	r0, [r0], -r3
    2c44:	00510001 	subseq	r0, r1, r1
	...
    2c54:	3c000000 	stccc	0, cr0, [r0], {-0}
    2c58:	01000000 	mrseq	r0, (UNDEF: 0)
    2c5c:	003c5000 	eorseq	r5, ip, r0
    2c60:	00600000 	rsbeq	r0, r0, r0
    2c64:	00040000 	andeq	r0, r4, r0
    2c68:	9f5001f3 	svcls	0x005001f3
	...
    2c7c:	0000003f 	andeq	r0, r0, pc, lsr r0
    2c80:	3f510001 	svccc	0x00510001
    2c84:	60000000 	andvs	r0, r0, r0
    2c88:	04000000 	streq	r0, [r0], #-0
    2c8c:	5101f300 	mrspl	pc, SP_irq	; <UNPREDICTABLE>
    2c90:	0000009f 	muleq	r0, pc, r0	; <UNPREDICTABLE>
	...
    2c9c:	00000800 	andeq	r0, r0, r0, lsl #16
    2ca0:	00003f00 	andeq	r3, r0, r0, lsl #30
    2ca4:	51000100 	mrspl	r0, (UNDEF: 16)
    2ca8:	0000003f 	andeq	r0, r0, pc, lsr r0
    2cac:	00000060 	andeq	r0, r0, r0, rrx
    2cb0:	01f30004 	mvnseq	r0, r4
    2cb4:	00009f51 	andeq	r9, r0, r1, asr pc
	...
    2cc0:	00080000 	andeq	r0, r8, r0
    2cc4:	003c0000 	eorseq	r0, ip, r0
    2cc8:	00010000 	andeq	r0, r1, r0
    2ccc:	00003c50 	andeq	r3, r0, r0, asr ip
    2cd0:	00006000 	andeq	r6, r0, r0
    2cd4:	f3000400 	vshl.u8	d0, d0, d0
    2cd8:	009f5001 	addseq	r5, pc, r1
	...
    2ce4:	48000000 	stmdami	r0, {}	; <UNPREDICTABLE>
    2ce8:	58000000 	stmdapl	r0, {}	; <UNPREDICTABLE>
    2cec:	01000000 	mrseq	r0, (UNDEF: 0)
    2cf0:	00585400 	subseq	r5, r8, r0, lsl #8
    2cf4:	00600000 	rsbeq	r0, r0, r0
    2cf8:	00290000 	eoreq	r0, r9, r0
    2cfc:	f35001f3 	vbsl	q8, q8, <illegal reg q9.5>
    2d00:	2cf75001 	ldclcs	0, cr5, [r7], #4
    2d04:	25f425f7 	ldrbcs	r2, [r4, #1527]!	; 0x5f7
    2d08:	cccccd08 	stclgt	13, cr12, [ip], {8}
    2d0c:	000000cc 	andeq	r0, r0, ip, asr #1
    2d10:	20081e00 	andcs	r1, r8, r0, lsl #28
    2d14:	f72525f7 			; <UNDEFINED> instruction: 0xf72525f7
    2d18:	3300f72c 	movwcc	pc, #1836	; 0x72c	; <UNPREDICTABLE>
    2d1c:	311e3525 	tstcc	lr, r5, lsr #10
    2d20:	1e331c24 	cdpne	12, 3, cr1, cr3, cr4, {1}
    2d24:	0000009f 	muleq	r0, pc, r0	; <UNPREDICTABLE>
    2d28:	00000000 	andeq	r0, r0, r0
    2d2c:	00000100 	andeq	r0, r0, r0, lsl #2
    2d30:	48000000 	stmdami	r0, {}	; <UNPREDICTABLE>
    2d34:	58000000 	stmdapl	r0, {}	; <UNPREDICTABLE>
    2d38:	01000000 	mrseq	r0, (UNDEF: 0)
    2d3c:	00585600 	subseq	r5, r8, r0, lsl #12
    2d40:	005b0000 	subseq	r0, fp, r0
    2d44:	00010000 	andeq	r0, r1, r0
    2d48:	00005b50 	andeq	r5, r0, r0, asr fp
    2d4c:	00006000 	andeq	r6, r0, r0
    2d50:	f3002600 	vmax.u8	d2, d0, d0
    2d54:	2cf75001 	ldclcs	0, cr5, [r7], #4
    2d58:	25f425f7 	ldrbcs	r2, [r4, #1527]!	; 0x5f7
    2d5c:	cccccd08 	stclgt	13, cr12, [ip], {8}
    2d60:	000000cc 	andeq	r0, r0, ip, asr #1
    2d64:	20081e00 	andcs	r1, r8, r0, lsl #28
    2d68:	f72525f7 			; <UNDEFINED> instruction: 0xf72525f7
    2d6c:	3300f72c 	movwcc	pc, #1836	; 0x72c	; <UNPREDICTABLE>
    2d70:	80802325 	addhi	r2, r0, r5, lsr #6
    2d74:	243240a0 	ldrtcs	r4, [r2], #-160	; 0xffffff60
    2d78:	0000009f 	muleq	r0, pc, r0	; <UNPREDICTABLE>
    2d7c:	00000000 	andeq	r0, r0, r0
    2d80:	00000200 	andeq	r0, r0, r0, lsl #4
    2d84:	00000101 	andeq	r0, r0, r1, lsl #2
    2d88:	00004800 	andeq	r4, r0, r0, lsl #16
    2d8c:	00004c00 	andeq	r4, r0, r0, lsl #24
    2d90:	50000100 	andpl	r0, r0, r0, lsl #2
    2d94:	0000004c 	andeq	r0, r0, ip, asr #32
    2d98:	0000004c 	andeq	r0, r0, ip, asr #32
    2d9c:	4c510001 	mrrcmi	0, 0, r0, r1, cr1
    2da0:	50000000 	andpl	r0, r0, r0
    2da4:	0c000000 	stceq	0, cr0, [r0], {-0}
    2da8:	08007500 	stmdaeq	r0, {r8, sl, ip, sp, lr}
    2dac:	00741aff 	ldrshteq	r1, [r4], #-175	; 0xffffff51
    2db0:	21007124 	tstcs	r0, r4, lsr #2
    2db4:	0000509f 	muleq	r0, pc, r0	; <UNPREDICTABLE>
    2db8:	00005400 	andeq	r5, r0, r0, lsl #8
    2dbc:	37001200 	strcc	r1, [r0, -r0, lsl #4]
    2dc0:	20240074 	eorcs	r0, r4, r4, ror r0
    2dc4:	751a0070 	ldrvc	r0, [sl, #-112]	; 0xffffff90
    2dc8:	1aff0800 	bne	fffc4dd0 <__bss_end__+0xfffba778>
    2dcc:	21240074 			; <UNDEFINED> instruction: 0x21240074
    2dd0:	0000009f 	muleq	r0, pc, r0	; <UNPREDICTABLE>
	...
    2ddc:	b8000000 	stmdalt	r0, {}	; <UNPREDICTABLE>
    2de0:	c4000000 	strgt	r0, [r0], #-0
    2de4:	01000000 	mrseq	r0, (UNDEF: 0)
    2de8:	00c45000 	sbceq	r5, r4, r0
    2dec:	00cb0000 	sbceq	r0, fp, r0
    2df0:	00010000 	andeq	r0, r1, r0
    2df4:	0000cb53 	andeq	ip, r0, r3, asr fp
    2df8:	0000d000 	andeq	sp, r0, r0
    2dfc:	f3000400 	vshl.u8	d0, d0, d0
    2e00:	009f5001 	addseq	r5, pc, r1
	...
    2e10:	0000d000 	andeq	sp, r0, r0
    2e14:	0000dc00 	andeq	sp, r0, r0, lsl #24
    2e18:	50000100 	andpl	r0, r0, r0, lsl #2
    2e1c:	000000dc 	ldrdeq	r0, [r0], -ip
    2e20:	000000e3 	andeq	r0, r0, r3, ror #1
    2e24:	e3530001 	cmp	r3, #1, 0
    2e28:	e8000000 	stmda	r0, {}	; <UNPREDICTABLE>
    2e2c:	04000000 	streq	r0, [r0], #-0
    2e30:	5001f300 	andpl	pc, r1, r0, lsl #6
    2e34:	0000009f 	muleq	r0, pc, r0	; <UNPREDICTABLE>
	...
    2e44:	00001800 	andeq	r1, r0, r0, lsl #16
    2e48:	51000100 	mrspl	r0, (UNDEF: 16)
    2e4c:	00000018 	andeq	r0, r0, r8, lsl r0
    2e50:	0000002c 	andeq	r0, r0, ip, lsr #32
    2e54:	01f30004 	mvnseq	r0, r4
    2e58:	00009f51 	andeq	r9, r0, r1, asr pc
    2e5c:	00000000 	andeq	r0, r0, r0
    2e60:	00020000 	andeq	r0, r2, r0
    2e64:	00000000 	andeq	r0, r0, r0
    2e68:	01000000 	mrseq	r0, (UNDEF: 0)
    2e6c:	00000001 	andeq	r0, r0, r1
    2e70:	00000000 	andeq	r0, r0, r0
    2e74:	00000004 	andeq	r0, r0, r4
    2e78:	04500001 	ldrbeq	r0, [r0], #-1
    2e7c:	08000000 	stmdaeq	r0, {}	; <UNPREDICTABLE>
    2e80:	01000000 	mrseq	r0, (UNDEF: 0)
    2e84:	00085200 	andeq	r5, r8, r0, lsl #4
    2e88:	000c0000 	andeq	r0, ip, r0
    2e8c:	00030000 	andeq	r0, r3, r0
    2e90:	0c9f0172 	ldfeqs	f0, [pc], {114}	; 0x72
    2e94:	18000000 	stmdane	r0, {}	; <UNPREDICTABLE>
    2e98:	01000000 	mrseq	r0, (UNDEF: 0)
    2e9c:	00185200 	andseq	r5, r8, r0, lsl #4
    2ea0:	001c0000 	andseq	r0, ip, r0
    2ea4:	00010000 	andeq	r0, r1, r0
    2ea8:	00001c53 	andeq	r1, r0, r3, asr ip
    2eac:	00002400 	andeq	r2, r0, r0, lsl #8
    2eb0:	73000300 	movwvc	r0, #768	; 0x300
    2eb4:	00249f01 	eoreq	r9, r4, r1, lsl #30
    2eb8:	002c0000 	eoreq	r0, ip, r0
    2ebc:	00010000 	andeq	r0, r1, r0
    2ec0:	00000053 	andeq	r0, r0, r3, asr r0
    2ec4:	00000000 	andeq	r0, r0, r0
    2ec8:	02020300 	andeq	r0, r2, #0, 6
    2ecc:	00000000 	andeq	r0, r0, r0
    2ed0:	18000000 	stmdane	r0, {}	; <UNPREDICTABLE>
    2ed4:	01000000 	mrseq	r0, (UNDEF: 0)
    2ed8:	00185100 	andseq	r5, r8, r0, lsl #2
    2edc:	001c0000 	andseq	r0, ip, r0
    2ee0:	00030000 	andeq	r0, r3, r0
    2ee4:	1c9f0171 	ldfnes	f0, [pc], {113}	; 0x71
    2ee8:	2c000000 	stccs	0, cr0, [r0], {-0}
    2eec:	01000000 	mrseq	r0, (UNDEF: 0)
    2ef0:	00005100 	andeq	r5, r0, r0, lsl #2
	...
    2f00:	00000008 	andeq	r0, r0, r8
    2f04:	0000000c 	andeq	r0, r0, ip
    2f08:	00720002 	rsbseq	r0, r2, r2
    2f0c:	0000000c 	andeq	r0, r0, ip
    2f10:	00000018 	andeq	r0, r0, r8, lsl r0
    2f14:	00730002 	rsbseq	r0, r3, r2
    2f18:	0000001c 	andeq	r0, r0, ip, lsl r0
    2f1c:	0000002c 	andeq	r0, r0, ip, lsr #32
    2f20:	00520001 	subseq	r0, r2, r1
	...
    2f38:	14000000 	strne	r0, [r0], #-0
    2f3c:	01000000 	mrseq	r0, (UNDEF: 0)
    2f40:	00145000 	andseq	r5, r4, r0
    2f44:	00180000 	andseq	r0, r8, r0
    2f48:	00030000 	andeq	r0, r3, r0
    2f4c:	189f0170 	ldmne	pc, {r4, r5, r6, r8}	; <UNPREDICTABLE>
    2f50:	20000000 	andcs	r0, r0, r0
    2f54:	01000000 	mrseq	r0, (UNDEF: 0)
    2f58:	00245000 	eoreq	r5, r4, r0
    2f5c:	00280000 	eoreq	r0, r8, r0
    2f60:	00010000 	andeq	r0, r1, r0
    2f64:	00002850 	andeq	r2, r0, r0, asr r8
    2f68:	00003000 	andeq	r3, r0, r0
    2f6c:	70000300 	andvc	r0, r0, r0, lsl #6
    2f70:	00389f01 	eorseq	r9, r8, r1, lsl #30
    2f74:	00400000 	subeq	r0, r0, r0
    2f78:	00010000 	andeq	r0, r1, r0
    2f7c:	00000050 	andeq	r0, r0, r0, asr r0
	...
    2f8c:	24000000 	strcs	r0, [r0], #-0
    2f90:	01000000 	mrseq	r0, (UNDEF: 0)
    2f94:	00245100 	eoreq	r5, r4, r0, lsl #2
    2f98:	00280000 	eoreq	r0, r8, r0
    2f9c:	00010000 	andeq	r0, r1, r0
    2fa0:	0000285c 	andeq	r2, r0, ip, asr r8
    2fa4:	00004400 	andeq	r4, r0, r0, lsl #8
    2fa8:	51000100 	mrspl	r0, (UNDEF: 16)
	...
    2fb4:	00020200 	andeq	r0, r2, r0, lsl #4
    2fb8:	00000000 	andeq	r0, r0, r0
    2fbc:	00040000 	andeq	r0, r4, r0
    2fc0:	00010000 	andeq	r0, r1, r0
    2fc4:	00000451 	andeq	r0, r0, r1, asr r4
    2fc8:	00000800 	andeq	r0, r0, r0, lsl #16
    2fcc:	71000300 	mrsvc	r0, LR_irq
    2fd0:	00089f01 	andeq	r9, r8, r1, lsl #30
    2fd4:	00180000 	andseq	r0, r8, r0
    2fd8:	00010000 	andeq	r0, r1, r0
    2fdc:	00000051 	andeq	r0, r0, r1, asr r0
    2fe0:	00000000 	andeq	r0, r0, r0
    2fe4:	00000200 	andeq	r0, r0, r0, lsl #4
    2fe8:	04000000 	streq	r0, [r0], #-0
    2fec:	01000000 	mrseq	r0, (UNDEF: 0)
    2ff0:	00005000 	andeq	r5, r0, r0
	...
    3000:	00080000 	andeq	r0, r8, r0
    3004:	00010000 	andeq	r0, r1, r0
    3008:	00000850 	andeq	r0, r0, r0, asr r8
    300c:	00003000 	andeq	r3, r0, r0
    3010:	f3000400 	vshl.u8	d0, d0, d0
    3014:	009f5001 	addseq	r5, pc, r1
	...
    3024:	08000000 	stmdaeq	r0, {}	; <UNPREDICTABLE>
    3028:	01000000 	mrseq	r0, (UNDEF: 0)
    302c:	00085100 	andeq	r5, r8, r0, lsl #2
    3030:	00300000 	eorseq	r0, r0, r0
    3034:	00040000 	andeq	r0, r4, r0
    3038:	9f5101f3 	svcls	0x005101f3
	...
    3048:	02010000 	andeq	r0, r1, #0, 0
    304c:	00000002 	andeq	r0, r0, r2
    3050:	00040000 	andeq	r0, r4, r0
    3054:	00010000 	andeq	r0, r1, r0
    3058:	00000452 	andeq	r0, r0, r2, asr r4
    305c:	00000800 	andeq	r0, r0, r0, lsl #16
    3060:	f3000400 	vshl.u8	d0, d0, d0
    3064:	089f5201 	ldmeq	pc, {r0, r9, ip, lr}	; <UNPREDICTABLE>
    3068:	18000000 	stmdane	r0, {}	; <UNPREDICTABLE>
    306c:	06000000 	streq	r0, [r0], -r0
    3070:	5201f300 	andpl	pc, r1, #0, 6
    3074:	189f1c31 	ldmne	pc, {r0, r4, r5, sl, fp, ip}	; <UNPREDICTABLE>
    3078:	18000000 	stmdane	r0, {}	; <UNPREDICTABLE>
    307c:	04000000 	streq	r0, [r0], #-0
    3080:	5201f300 	andpl	pc, r1, #0, 6
    3084:	0000189f 	muleq	r0, pc, r8	; <UNPREDICTABLE>
    3088:	00003000 	andeq	r3, r0, r0
    308c:	f3000600 	vmax.u8	d0, d0, d0
    3090:	1c315201 	lfmne	f5, 4, [r1], #-4
    3094:	0000009f 	muleq	r0, pc, r0	; <UNPREDICTABLE>
    3098:	00000000 	andeq	r0, r0, r0
    309c:	00000200 	andeq	r0, r0, r0, lsl #4
    30a0:	00000100 	andeq	r0, r0, r0, lsl #2
    30a4:	00000000 	andeq	r0, r0, r0
    30a8:	00000c00 	andeq	r0, r0, r0, lsl #24
    30ac:	50000100 	andpl	r0, r0, r0, lsl #2
    30b0:	0000000c 	andeq	r0, r0, ip
    30b4:	00000018 	andeq	r0, r0, r8, lsl r0
    30b8:	7f700003 	svcvc	0x00700003
    30bc:	0000189f 	muleq	r0, pc, r8	; <UNPREDICTABLE>
    30c0:	00002400 	andeq	r2, r0, r0, lsl #8
    30c4:	50000100 	andpl	r0, r0, r0, lsl #2
    30c8:	00000028 	andeq	r0, r0, r8, lsr #32
    30cc:	0000002c 	andeq	r0, r0, ip, lsr #32
    30d0:	7f700003 	svcvc	0x00700003
    30d4:	0000009f 	muleq	r0, pc, r0	; <UNPREDICTABLE>
    30d8:	00000000 	andeq	r0, r0, r0
    30dc:	00000200 	andeq	r0, r0, r0, lsl #4
    30e0:	00000000 	andeq	r0, r0, r0
    30e4:	0c000000 	stceq	0, cr0, [r0], {-0}
    30e8:	01000000 	mrseq	r0, (UNDEF: 0)
    30ec:	000c5100 	andeq	r5, ip, r0, lsl #2
    30f0:	00100000 	andseq	r0, r0, r0
    30f4:	00030000 	andeq	r0, r3, r0
    30f8:	109f0171 	addsne	r0, pc, r1, ror r1	; <UNPREDICTABLE>
    30fc:	30000000 	andcc	r0, r0, r0
    3100:	01000000 	mrseq	r0, (UNDEF: 0)
    3104:	00005100 	andeq	r5, r0, r0, lsl #2
    3108:	00000000 	andeq	r0, r0, r0
	...

Disassembly of section .debug_aranges:

00000000 <.debug_aranges>:
   0:	0000001c 	andeq	r0, r0, ip, lsl r0
   4:	00000002 	andeq	r0, r0, r2
   8:	00040000 	andeq	r0, r4, r0
   c:	00000000 	andeq	r0, r0, r0
  10:	00008038 	andeq	r8, r0, r8, lsr r0
  14:	00000234 	andeq	r0, r0, r4, lsr r2
	...
  20:	0000001c 	andeq	r0, r0, ip, lsl r0
  24:	05bd0002 	ldreq	r0, [sp, #2]!
  28:	00040000 	andeq	r0, r4, r0
  2c:	00000000 	andeq	r0, r0, r0
  30:	0000826c 	andeq	r8, r0, ip, ror #4
  34:	000001ac 	andeq	r0, r0, ip, lsr #3
	...
  40:	0000001c 	andeq	r0, r0, ip, lsl r0
  44:	08830002 	stmeq	r3, {r1}
  48:	00040000 	andeq	r0, r4, r0
  4c:	00000000 	andeq	r0, r0, r0
  50:	00008418 	andeq	r8, r0, r8, lsl r4
  54:	0000000c 	andeq	r0, r0, ip
	...
  60:	0000001c 	andeq	r0, r0, ip, lsl r0
  64:	09910002 	ldmibeq	r1, {r1}
  68:	00040000 	andeq	r0, r4, r0
  6c:	00000000 	andeq	r0, r0, r0
  70:	00008424 	andeq	r8, r0, r4, lsr #8
  74:	000002fc 	strdeq	r0, [r0], -ip
	...
  80:	0000001c 	andeq	r0, r0, ip, lsl r0
  84:	10c80002 	sbcne	r0, r8, r2
  88:	00040000 	andeq	r0, r4, r0
  8c:	00000000 	andeq	r0, r0, r0
  90:	00008720 	andeq	r8, r0, r0, lsr #14
  94:	00000078 	andeq	r0, r0, r8, ror r0
	...
  a0:	0000001c 	andeq	r0, r0, ip, lsl r0
  a4:	120c0002 	andne	r0, ip, #2, 0
  a8:	00040000 	andeq	r0, r4, r0
  ac:	00000000 	andeq	r0, r0, r0
  b0:	00008798 	muleq	r0, r8, r7
  b4:	00000058 	andeq	r0, r0, r8, asr r0
	...
  c0:	0000001c 	andeq	r0, r0, ip, lsl r0
  c4:	13ad0002 			; <UNDEFINED> instruction: 0x13ad0002
  c8:	00040000 	andeq	r0, r4, r0
  cc:	00000000 	andeq	r0, r0, r0
  d0:	000087f0 	strdeq	r8, [r0], -r0
  d4:	0000003c 	andeq	r0, r0, ip, lsr r0
	...
  e0:	0000001c 	andeq	r0, r0, ip, lsl r0
  e4:	14fa0002 	ldrbtne	r0, [sl], #2
  e8:	00040000 	andeq	r0, r4, r0
  ec:	00000000 	andeq	r0, r0, r0
  f0:	0000882c 	andeq	r8, r0, ip, lsr #16
  f4:	00000038 	andeq	r0, r0, r8, lsr r0
	...
 100:	0000001c 	andeq	r0, r0, ip, lsl r0
 104:	15f10002 	ldrbne	r0, [r1, #2]!
 108:	00040000 	andeq	r0, r4, r0
 10c:	00000000 	andeq	r0, r0, r0
 110:	00008864 	andeq	r8, r0, r4, ror #16
 114:	000009b4 			; <UNDEFINED> instruction: 0x000009b4
	...
 120:	0000001c 	andeq	r0, r0, ip, lsl r0
 124:	22740002 	rsbscs	r0, r4, #2, 0
 128:	00040000 	andeq	r0, r4, r0
 12c:	00000000 	andeq	r0, r0, r0
 130:	00009218 	andeq	r9, r0, r8, lsl r2
 134:	0000002c 	andeq	r0, r0, ip, lsr #32
	...
 140:	0000001c 	andeq	r0, r0, ip, lsl r0
 144:	23a70002 			; <UNDEFINED> instruction: 0x23a70002
 148:	00040000 	andeq	r0, r4, r0
 14c:	00000000 	andeq	r0, r0, r0
 150:	00009244 	andeq	r9, r0, r4, asr #4
 154:	000000f8 	strdeq	r0, [r0], -r8
	...
 160:	0000001c 	andeq	r0, r0, ip, lsl r0
 164:	253b0002 	ldrcs	r0, [fp, #-2]!
 168:	00040000 	andeq	r0, r4, r0
 16c:	00000000 	andeq	r0, r0, r0
 170:	0000933c 	andeq	r9, r0, ip, lsr r3
 174:	00000004 	andeq	r0, r0, r4
	...
 180:	0000001c 	andeq	r0, r0, ip, lsl r0
 184:	260d0002 	strcs	r0, [sp], -r2
 188:	00040000 	andeq	r0, r4, r0
 18c:	00000000 	andeq	r0, r0, r0
 190:	00009340 	andeq	r9, r0, r0, asr #6
 194:	0000008c 	andeq	r0, r0, ip, lsl #1
	...
 1a0:	0000001c 	andeq	r0, r0, ip, lsl r0
 1a4:	288e0002 	stmcs	lr, {r1}
 1a8:	00040000 	andeq	r0, r4, r0
 1ac:	00000000 	andeq	r0, r0, r0
 1b0:	000093cc 	andeq	r9, r0, ip, asr #7
 1b4:	0000011c 	andeq	r0, r0, ip, lsl r1
	...
 1c0:	0000001c 	andeq	r0, r0, ip, lsl r0
 1c4:	2dd10002 	ldclcs	0, cr0, [r1, #8]
 1c8:	00040000 	andeq	r0, r4, r0
 1cc:	00000000 	andeq	r0, r0, r0
 1d0:	000094e8 	andeq	r9, r0, r8, ror #9
 1d4:	000001f0 	strdeq	r0, [r0], -r0	; <UNPREDICTABLE>
	...
 1e0:	0000001c 	andeq	r0, r0, ip, lsl r0
 1e4:	33a20002 			; <UNDEFINED> instruction: 0x33a20002
 1e8:	00040000 	andeq	r0, r4, r0
 1ec:	00000000 	andeq	r0, r0, r0
 1f0:	000096d8 	ldrdeq	r9, [r0], -r8
 1f4:	000003b0 			; <UNDEFINED> instruction: 0x000003b0
	...
 200:	0000001c 	andeq	r0, r0, ip, lsl r0
 204:	3c8f0002 	stccc	0, cr0, [pc], {2}
 208:	00040000 	andeq	r0, r4, r0
 20c:	00000000 	andeq	r0, r0, r0
 210:	00009a88 	andeq	r9, r0, r8, lsl #21
 214:	00000198 	muleq	r0, r8, r1
	...
 220:	0000001c 	andeq	r0, r0, ip, lsl r0
 224:	43060002 	movwmi	r0, #24578	; 0x6002
 228:	00040000 	andeq	r0, r4, r0
 22c:	00000000 	andeq	r0, r0, r0
 230:	00009c20 	andeq	r9, r0, r0, lsr #24
 234:	0000002c 	andeq	r0, r0, ip, lsr #32
	...
 240:	0000001c 	andeq	r0, r0, ip, lsl r0
 244:	44410002 	strbmi	r0, [r1], #-2
 248:	00040000 	andeq	r0, r4, r0
 24c:	00000000 	andeq	r0, r0, r0
 250:	00009c4c 	andeq	r9, r0, ip, asr #24
 254:	00000044 	andeq	r0, r0, r4, asr #32
	...
 260:	0000001c 	andeq	r0, r0, ip, lsl r0
 264:	453c0002 	ldrmi	r0, [ip, #-2]!
 268:	00040000 	andeq	r0, r4, r0
 26c:	00000000 	andeq	r0, r0, r0
 270:	00009c90 	muleq	r0, r0, ip
 274:	00000018 	andeq	r0, r0, r8, lsl r0
	...
 280:	0000001c 	andeq	r0, r0, ip, lsl r0
 284:	464f0002 	strbmi	r0, [pc], -r2
 288:	00040000 	andeq	r0, r4, r0
 28c:	00000000 	andeq	r0, r0, r0
 290:	00009ca8 	andeq	r9, r0, r8, lsr #25
 294:	00000030 	andeq	r0, r0, r0, lsr r0
	...
 2a0:	0000001c 	andeq	r0, r0, ip, lsl r0
 2a4:	47a10002 	strmi	r0, [r1, r2]!
 2a8:	00040000 	andeq	r0, r4, r0
 2ac:	00000000 	andeq	r0, r0, r0
 2b0:	00009cd8 	ldrdeq	r9, [r0], -r8
 2b4:	00000004 	andeq	r0, r0, r4
	...

Disassembly of section .debug_ranges:

00000000 <.debug_ranges>:
   0:	00000044 	andeq	r0, r0, r4, asr #32
   4:	00000088 	andeq	r0, r0, r8, lsl #1
   8:	00000090 	muleq	r0, r0, r0
   c:	000000cc 	andeq	r0, r0, ip, asr #1
	...
  18:	000001b4 			; <UNDEFINED> instruction: 0x000001b4
  1c:	000001d8 	ldrdeq	r0, [r0], -r8
  20:	000001e0 	andeq	r0, r0, r0, ror #3
  24:	00000200 	andeq	r0, r0, r0, lsl #4
	...
  30:	000000a4 	andeq	r0, r0, r4, lsr #1
  34:	00000148 	andeq	r0, r0, r8, asr #2
  38:	00000158 	andeq	r0, r0, r8, asr r1
  3c:	0000015c 	andeq	r0, r0, ip, asr r1
  40:	00000274 	andeq	r0, r0, r4, ror r2
  44:	00000278 	andeq	r0, r0, r8, ror r2
  48:	0000027c 	andeq	r0, r0, ip, ror r2
  4c:	00000280 	andeq	r0, r0, r0, lsl #5
  50:	00000288 	andeq	r0, r0, r8, lsl #5
  54:	0000029c 	muleq	r0, ip, r2
  58:	000002c0 	andeq	r0, r0, r0, asr #5
  5c:	000002cc 	andeq	r0, r0, ip, asr #5
  60:	000002f0 	strdeq	r0, [r0], -r0	; <UNPREDICTABLE>
  64:	000002f0 	strdeq	r0, [r0], -r0	; <UNPREDICTABLE>
  68:	000002f4 	strdeq	r0, [r0], -r4
  6c:	000002f8 	strdeq	r0, [r0], -r8
	...
  78:	00000148 	andeq	r0, r0, r8, asr #2
  7c:	00000158 	andeq	r0, r0, r8, asr r1
  80:	0000015c 	andeq	r0, r0, ip, asr r1
  84:	0000018c 	andeq	r0, r0, ip, lsl #3
  88:	0000029c 	muleq	r0, ip, r2
  8c:	000002ac 	andeq	r0, r0, ip, lsr #5
	...
  98:	000003c8 	andeq	r0, r0, r8, asr #7
  9c:	000003d0 	ldrdeq	r0, [r0], -r0	; <UNPREDICTABLE>
  a0:	00000404 	andeq	r0, r0, r4, lsl #8
  a4:	000004ac 	andeq	r0, r0, ip, lsr #9
  a8:	000004c0 	andeq	r0, r0, r0, asr #9
  ac:	00000920 	andeq	r0, r0, r0, lsr #18
  b0:	00000928 	andeq	r0, r0, r8, lsr #18
  b4:	000009b4 			; <UNDEFINED> instruction: 0x000009b4
	...
  c0:	000003c8 	andeq	r0, r0, r8, asr #7
  c4:	000003d0 	ldrdeq	r0, [r0], -r0	; <UNPREDICTABLE>
  c8:	00000504 	andeq	r0, r0, r4, lsl #10
  cc:	000005d0 	ldrdeq	r0, [r0], -r0	; <UNPREDICTABLE>
  d0:	00000800 	andeq	r0, r0, r0, lsl #16
  d4:	00000888 	andeq	r0, r0, r8, lsl #17
  d8:	00000930 	andeq	r0, r0, r0, lsr r9
  dc:	000009b4 			; <UNDEFINED> instruction: 0x000009b4
	...
  e8:	00000404 	andeq	r0, r0, r4, lsl #8
  ec:	00000408 	andeq	r0, r0, r8, lsl #8
  f0:	00000414 	andeq	r0, r0, r4, lsl r4
  f4:	00000414 	andeq	r0, r0, r4, lsl r4
  f8:	00000428 	andeq	r0, r0, r8, lsr #8
  fc:	0000042c 	andeq	r0, r0, ip, lsr #8
	...
 108:	000005fc 	strdeq	r0, [r0], -ip
 10c:	00000700 	andeq	r0, r0, r0, lsl #14
 110:	000007ec 	andeq	r0, r0, ip, ror #15
 114:	000007f4 	strdeq	r0, [r0], -r4
 118:	00000888 	andeq	r0, r0, r8, lsl #17
 11c:	00000894 	muleq	r0, r4, r8
 120:	000008a8 	andeq	r0, r0, r8, lsr #17
 124:	000008bc 			; <UNDEFINED> instruction: 0x000008bc
 128:	00000910 	andeq	r0, r0, r0, lsl r9
 12c:	00000920 	andeq	r0, r0, r0, lsr #18
	...
 138:	00000600 	andeq	r0, r0, r0, lsl #12
 13c:	00000604 	andeq	r0, r0, r4, lsl #12
 140:	00000608 	andeq	r0, r0, r8, lsl #12
 144:	000006b4 			; <UNDEFINED> instruction: 0x000006b4
 148:	000006cc 	andeq	r0, r0, ip, asr #13
 14c:	000006d0 	ldrdeq	r0, [r0], -r0	; <UNPREDICTABLE>
 150:	000008a8 	andeq	r0, r0, r8, lsr #17
 154:	000008b8 			; <UNDEFINED> instruction: 0x000008b8
 158:	00000910 	andeq	r0, r0, r0, lsl r9
 15c:	00000920 	andeq	r0, r0, r0, lsr #18
	...
 168:	000006b4 			; <UNDEFINED> instruction: 0x000006b4
 16c:	000006cc 	andeq	r0, r0, ip, asr #13
 170:	000006d0 	ldrdeq	r0, [r0], -r0	; <UNPREDICTABLE>
 174:	00000700 	andeq	r0, r0, r0, lsl #14
 178:	000007ec 	andeq	r0, r0, ip, ror #15
 17c:	000007f4 	strdeq	r0, [r0], -r4
 180:	00000888 	andeq	r0, r0, r8, lsl #17
 184:	00000894 	muleq	r0, r4, r8
 188:	000008b8 			; <UNDEFINED> instruction: 0x000008b8
 18c:	000008bc 			; <UNDEFINED> instruction: 0x000008bc
	...
 198:	00000700 	andeq	r0, r0, r0, lsl #14
 19c:	00000708 	andeq	r0, r0, r8, lsl #14
 1a0:	0000070c 	andeq	r0, r0, ip, lsl #14
 1a4:	000007ec 	andeq	r0, r0, ip, ror #15
 1a8:	00000894 	muleq	r0, r4, r8
 1ac:	000008a8 	andeq	r0, r0, r8, lsr #17
	...
 1b8:	00000728 	andeq	r0, r0, r8, lsr #14
 1bc:	000007a4 	andeq	r0, r0, r4, lsr #15
 1c0:	000007ac 	andeq	r0, r0, ip, lsr #15
 1c4:	000007b0 			; <UNDEFINED> instruction: 0x000007b0
 1c8:	00000894 	muleq	r0, r4, r8
 1cc:	00000898 	muleq	r0, r8, r8
 1d0:	0000089c 	muleq	r0, ip, r8
 1d4:	000008a0 	andeq	r0, r0, r0, lsr #17
	...
 1e0:	000007a4 	andeq	r0, r0, r4, lsr #15
 1e4:	000007ac 	andeq	r0, r0, ip, lsr #15
 1e8:	000007b0 			; <UNDEFINED> instruction: 0x000007b0
 1ec:	000007ec 	andeq	r0, r0, ip, ror #15
 1f0:	00000898 	muleq	r0, r8, r8
 1f4:	0000089c 	muleq	r0, ip, r8
 1f8:	000008a0 	andeq	r0, r0, r0, lsr #17
 1fc:	000008a8 	andeq	r0, r0, r8, lsr #17
	...
 208:	0000936c 	andeq	r9, r0, ip, ror #6
 20c:	0000936c 	andeq	r9, r0, ip, ror #6
 210:	00009370 	andeq	r9, r0, r0, ror r3
 214:	00009378 	andeq	r9, r0, r8, ror r3
	...
 220:	00009340 	andeq	r9, r0, r0, asr #6
 224:	000093cc 	andeq	r9, r0, ip, asr #7
	...
 230:	00000030 	andeq	r0, r0, r0, lsr r0
 234:	00000030 	andeq	r0, r0, r0, lsr r0
 238:	00000038 	andeq	r0, r0, r8, lsr r0
 23c:	0000004c 	andeq	r0, r0, ip, asr #32
	...
 248:	0000004c 	andeq	r0, r0, ip, asr #32
 24c:	00000050 	andeq	r0, r0, r0, asr r0
 250:	00000050 	andeq	r0, r0, r0, asr r0
 254:	00000078 	andeq	r0, r0, r8, ror r0
	...
 260:	0000004c 	andeq	r0, r0, ip, asr #32
 264:	00000050 	andeq	r0, r0, r0, asr r0
 268:	00000050 	andeq	r0, r0, r0, asr r0
 26c:	00000060 	andeq	r0, r0, r0, rrx
 270:	00000064 	andeq	r0, r0, r4, rrx
 274:	00000068 	andeq	r0, r0, r8, rrx
	...
 280:	0000004c 	andeq	r0, r0, ip, asr #32
 284:	00000050 	andeq	r0, r0, r0, asr r0
 288:	00000054 	andeq	r0, r0, r4, asr r0
 28c:	00000060 	andeq	r0, r0, r0, rrx
	...
 298:	0000009c 	muleq	r0, ip, r0
 29c:	000000a0 	andeq	r0, r0, r0, lsr #1
 2a0:	000000a0 	andeq	r0, r0, r0, lsr #1
 2a4:	000000c8 	andeq	r0, r0, r8, asr #1
	...
 2b0:	0000009c 	muleq	r0, ip, r0
 2b4:	000000a0 	andeq	r0, r0, r0, lsr #1
 2b8:	000000a0 	andeq	r0, r0, r0, lsr #1
 2bc:	000000b0 	strheq	r0, [r0], -r0	; <UNPREDICTABLE>
 2c0:	000000b4 	strheq	r0, [r0], -r4
 2c4:	000000b8 	strheq	r0, [r0], -r8
	...
 2d0:	0000009c 	muleq	r0, ip, r0
 2d4:	000000a0 	andeq	r0, r0, r0, lsr #1
 2d8:	000000a4 	andeq	r0, r0, r4, lsr #1
 2dc:	000000b0 	strheq	r0, [r0], -r0	; <UNPREDICTABLE>
	...
 2e8:	000000c8 	andeq	r0, r0, r8, asr #1
 2ec:	000000c8 	andeq	r0, r0, r8, asr #1
 2f0:	000000cc 	andeq	r0, r0, ip, asr #1
 2f4:	0000011c 	andeq	r0, r0, ip, lsl r1
	...
 300:	000000f0 	strdeq	r0, [r0], -r0	; <UNPREDICTABLE>
 304:	000000f4 	strdeq	r0, [r0], -r4
 308:	000000f4 	strdeq	r0, [r0], -r4
 30c:	0000011c 	andeq	r0, r0, ip, lsl r1
	...
 318:	000000f0 	strdeq	r0, [r0], -r0	; <UNPREDICTABLE>
 31c:	000000f4 	strdeq	r0, [r0], -r4
 320:	000000f4 	strdeq	r0, [r0], -r4
 324:	00000104 	andeq	r0, r0, r4, lsl #2
 328:	00000108 	andeq	r0, r0, r8, lsl #2
 32c:	0000010c 	andeq	r0, r0, ip, lsl #2
	...
 338:	000000f0 	strdeq	r0, [r0], -r0	; <UNPREDICTABLE>
 33c:	000000f4 	strdeq	r0, [r0], -r4
 340:	000000f8 	strdeq	r0, [r0], -r8
 344:	00000104 	andeq	r0, r0, r4, lsl #2
	...
 350:	00000134 	andeq	r0, r0, r4, lsr r1
 354:	00000134 	andeq	r0, r0, r4, lsr r1
 358:	00000134 	andeq	r0, r0, r4, lsr r1
 35c:	0000013c 	andeq	r0, r0, ip, lsr r1
	...
 368:	0000024c 	andeq	r0, r0, ip, asr #4
 36c:	00000264 	andeq	r0, r0, r4, ror #4
 370:	000002c8 	andeq	r0, r0, r8, asr #5
 374:	000002e8 	andeq	r0, r0, r8, ror #5
	...
 380:	00000008 	andeq	r0, r0, r8
 384:	0000000c 	andeq	r0, r0, ip
 388:	00000014 	andeq	r0, r0, r4, lsl r0
 38c:	00000054 	andeq	r0, r0, r4, asr r0
 390:	00000058 	andeq	r0, r0, r8, asr r0
 394:	00000060 	andeq	r0, r0, r0, rrx
	...
 3a0:	00000060 	andeq	r0, r0, r0, rrx
 3a4:	00000068 	andeq	r0, r0, r8, rrx
 3a8:	0000006c 	andeq	r0, r0, ip, rrx
 3ac:	000000ac 	andeq	r0, r0, ip, lsr #1
 3b0:	000000b0 	strheq	r0, [r0], -r0	; <UNPREDICTABLE>
 3b4:	000000b8 	strheq	r0, [r0], -r8
	...
 3c0:	00000068 	andeq	r0, r0, r8, rrx
 3c4:	00000068 	andeq	r0, r0, r8, rrx
 3c8:	0000006c 	andeq	r0, r0, ip, rrx
 3cc:	000000ac 	andeq	r0, r0, ip, lsr #1
 3d0:	000000b0 	strheq	r0, [r0], -r0	; <UNPREDICTABLE>
 3d4:	000000b8 	strheq	r0, [r0], -r8
	...
 3e0:	000000e8 	andeq	r0, r0, r8, ror #1
 3e4:	000000f0 	strdeq	r0, [r0], -r0	; <UNPREDICTABLE>
 3e8:	000000f4 	strdeq	r0, [r0], -r4
 3ec:	00000134 	andeq	r0, r0, r4, lsr r1
 3f0:	00000138 	andeq	r0, r0, r8, lsr r1
 3f4:	00000140 	andeq	r0, r0, r0, asr #2
	...
 400:	000000f0 	strdeq	r0, [r0], -r0	; <UNPREDICTABLE>
 404:	000000f0 	strdeq	r0, [r0], -r0	; <UNPREDICTABLE>
 408:	000000f4 	strdeq	r0, [r0], -r4
 40c:	00000134 	andeq	r0, r0, r4, lsr r1
 410:	00000138 	andeq	r0, r0, r8, lsr r1
 414:	00000140 	andeq	r0, r0, r0, asr #2
	...
 420:	00000144 	andeq	r0, r0, r4, asr #2
 424:	00000148 	andeq	r0, r0, r8, asr #2
 428:	00000150 	andeq	r0, r0, r0, asr r1
 42c:	0000015c 	andeq	r0, r0, ip, asr r1
	...

Disassembly of section .debug_line:

00000000 <.debug_line>:
       0:	000002f0 	strdeq	r0, [r0], -r0	; <UNPREDICTABLE>
       4:	00dd0003 	sbcseq	r0, sp, r3
       8:	01020000 	mrseq	r0, (UNDEF: 2)
       c:	000d0efb 	strdeq	r0, [sp], -fp
      10:	01010101 	tsteq	r1, r1, lsl #2
      14:	01000000 	mrseq	r0, (UNDEF: 0)
      18:	2f010000 	svccs	0x00010000
      1c:	72657355 	rsbvc	r7, r5, #1409286145	; 0x54000001
      20:	696d2f73 	stmdbvs	sp!, {r0, r1, r4, r5, r6, r8, r9, sl, fp, sp}^
      24:	2f73656c 	svccs	0x0073656c
      28:	72756f53 	rsbsvc	r6, r5, #332	; 0x14c
      2c:	632f6563 			; <UNDEFINED> instruction: 0x632f6563
      30:	30343273 	eorscc	r3, r4, r3, ror r2
      34:	6c2f786c 	stcvs	8, cr7, [pc], #-432	; fffffe8c <__bss_end__+0xffff5834>
      38:	69706269 	ldmdbvs	r0!, {r0, r3, r5, r6, r9, sp, lr}^
      3c:	636e692f 	cmnvs	lr, #770048	; 0xbc000
      40:	6564756c 	strbvs	r7, [r4, #-1388]!	; 0xfffffa94
      44:	706f2f00 	rsbvc	r2, pc, r0, lsl #30
      48:	6f682f74 	svcvs	0x00682f74
      4c:	7262656d 	rsbvc	r6, r2, #457179136	; 0x1b400000
      50:	432f7765 			; <UNDEFINED> instruction: 0x432f7765
      54:	616c6c65 	cmnvs	ip, r5, ror #24
      58:	72612f72 	rsbvc	r2, r1, #456	; 0x1c8
      5c:	6f6e2d6d 	svcvs	0x006e2d6d
      60:	652d656e 	strvs	r6, [sp, #-1390]!	; 0xfffffa92
      64:	2d696261 	sfmcs	f6, 2, [r9, #-388]!	; 0xfffffe7c
      68:	2d392f39 	ldccs	15, cr2, [r9, #-228]!	; 0xffffff1c
      6c:	39313032 	ldmdbcc	r1!, {r1, r4, r5, ip, sp}
      70:	632d3471 			; <UNDEFINED> instruction: 0x632d3471
      74:	37303173 			; <UNDEFINED> instruction: 0x37303173
      78:	696c2f65 	stmdbvs	ip!, {r0, r2, r5, r6, r8, r9, sl, fp, sp}^
      7c:	63672f62 	cmnvs	r7, #392	; 0x188
      80:	72612f63 	rsbvc	r2, r1, #396	; 0x18c
      84:	6f6e2d6d 	svcvs	0x006e2d6d
      88:	652d656e 	strvs	r6, [sp, #-1390]!	; 0xfffffa92
      8c:	2f696261 	svccs	0x00696261
      90:	2e322e39 	mrccs	14, 1, r2, cr2, cr9, {1}
      94:	6e692f31 	mcrvs	15, 3, r2, cr9, cr1, {1}
      98:	64756c63 	ldrbtvs	r6, [r5], #-3171	; 0xfffff39d
      9c:	35000065 	strcc	r0, [r0, #-101]	; 0xffffff9b
      a0:	7365742d 	cmnvc	r5, #754974720	; 0x2d000000
      a4:	6b632d74 	blvs	18cb67c <__bss_end__+0x18c1024>
      a8:	6f6c6c61 	svcvs	0x006c6c61
      ac:	00632e63 	rsbeq	r2, r3, r3, ror #28
      b0:	73000000 	movwvc	r0, #0
      b4:	6c2d6372 	stcvs	3, cr6, [sp], #-456	; 0xfffffe38
      b8:	682e636f 	stmdavs	lr!, {r0, r1, r2, r3, r5, r6, r8, r9, sp, lr}
      bc:	00000000 	andeq	r0, r0, r0
      c0:	2e697072 	mcrcs	0, 3, r7, cr9, cr2, {3}
      c4:	00010068 	andeq	r0, r1, r8, rrx
      c8:	64747300 	ldrbtvs	r7, [r4], #-768	; 0xfffffd00
      cc:	2d746e69 	ldclcs	14, cr6, [r4, #-420]!	; 0xfffffe5c
      d0:	2e636367 	cdpcs	3, 6, cr6, cr3, cr7, {3}
      d4:	00020068 	andeq	r0, r2, r8, rrx
      d8:	616b6300 	cmnvs	fp, r0, lsl #6
      dc:	636f6c6c 	cmnvs	pc, #108, 24	; 0x6c00
      e0:	0000682e 	andeq	r6, r0, lr, lsr #16
      e4:	05000000 	streq	r0, [r0, #-0]
      e8:	0205002a 	andeq	r0, r5, #42, 0	; 0x2a
      ec:	00008038 	andeq	r8, r0, r8, lsr r0
      f0:	06010903 	streq	r0, [r1], -r3, lsl #18
      f4:	06050501 	streq	r0, [r5], -r1, lsl #10
      f8:	05020467 	streq	r0, [r2, #-1127]	; 0xfffffb99
      fc:	0505130b 	streq	r1, [r5, #-779]	; 0xfffffcf5
     100:	060c0513 			; <UNDEFINED> instruction: 0x060c0513
     104:	0104ba01 	tsteq	r4, r1, lsl #20
     108:	66101605 	ldrvs	r1, [r0], -r5, lsl #12
     10c:	4c060505 	cfstr32mi	mvfx0, [r6], {5}
     110:	05010905 	streq	r0, [r1, #-2309]	; 0xfffff6fb
     114:	0501060d 	streq	r0, [r1, #-1549]	; 0xfffff9f3
     118:	04020014 	streq	r0, [r2], #-20	; 0xffffffec
     11c:	052e0602 	streq	r0, [lr, #-1538]!	; 0xfffff9fe
     120:	04020005 	streq	r0, [r2], #-5
     124:	05010602 	streq	r0, [r1, #-1538]	; 0xfffff9fe
     128:	044b0609 	strbeq	r0, [fp], #-1545	; 0xfffff9f7
     12c:	100b0502 	andne	r0, fp, r2, lsl #10
     130:	05130505 	ldreq	r0, [r3, #-1285]	; 0xfffffafb
     134:	ba01060c 	blt	4196c <__bss_end__+0x37314>
     138:	1a050104 	bne	140550 <__bss_end__+0x135ef8>
     13c:	2e200513 	mcrcs	5, 1, r0, cr0, cr3, {0}
     140:	05821e05 	streq	r1, [r2, #3589]	; 0xe05
     144:	05320609 	ldreq	r0, [r2, #-1545]!	; 0xfffff9f7
     148:	0501060c 	streq	r0, [r1, #-1548]	; 0xfffff9f4
     14c:	014b0609 	cmpeq	fp, r9, lsl #12
     150:	02040200 	andeq	r0, r4, #0, 4
     154:	001b0566 	andseq	r0, fp, r6, ror #10
     158:	03020402 	movweq	r0, #9218	; 0x2402
     15c:	1c05017a 	stfnes	f0, [r5], {122}	; 0x7a
     160:	02040200 	andeq	r0, r4, #0, 4
     164:	02000106 	andeq	r0, r0, #-2147483647	; 0x80000001
     168:	052e0204 	streq	r0, [lr, #-516]!	; 0xfffffdfc
     16c:	04020009 	streq	r0, [r2], #-9
     170:	00340601 	eorseq	r0, r4, r1, lsl #12
     174:	2e010402 	cdpcs	4, 0, cr0, cr1, cr2, {0}
     178:	01040200 	mrseq	r0, R12_usr
     17c:	02009008 	andeq	r9, r0, #8, 0
     180:	2e060104 	adfcss	f0, f6, f4
     184:	05150d05 	ldreq	r0, [r5, #-3333]	; 0xfffff2fb
     188:	04020014 	streq	r0, [r2], #-20	; 0xffffffec
     18c:	052e0602 	streq	r0, [lr, #-1538]!	; 0xfffff9fe
     190:	04020005 	streq	r0, [r2], #-5
     194:	05010602 	streq	r0, [r1, #-1538]	; 0xfffff9fe
     198:	014b0609 	cmpeq	fp, r9, lsl #12
     19c:	02040200 	andeq	r0, r4, #0, 4
     1a0:	04020082 	streq	r0, [r2], #-130	; 0xffffff7e
     1a4:	1b050102 	blne	1405b4 <__bss_end__+0x135f5c>
     1a8:	02040200 	andeq	r0, r4, #0, 4
     1ac:	001c0511 	andseq	r0, ip, r1, lsl r5
     1b0:	06020402 	streq	r0, [r2], -r2, lsl #8
     1b4:	04020001 	streq	r0, [r2], #-1
     1b8:	09052e02 	stmdbeq	r5, {r1, r9, sl, fp, sp}
     1bc:	01040200 	mrseq	r0, R12_usr
     1c0:	02002f06 	andeq	r2, r0, #6, 30
     1c4:	00010104 	andeq	r0, r1, r4, lsl #2
     1c8:	06010402 	streq	r0, [r1], -r2, lsl #8
     1cc:	0402002e 	streq	r0, [r2], #-46	; 0xffffffd2
     1d0:	00ba0601 	adcseq	r0, sl, r1, lsl #12
     1d4:	06010402 	streq	r0, [r1], -r2, lsl #8
     1d8:	140d052e 	strne	r0, [sp], #-1326	; 0xfffffad2
     1dc:	0009052e 	andeq	r0, r9, lr, lsr #10
     1e0:	06030402 	streq	r0, [r3], -r2, lsl #8
     1e4:	0502042f 	streq	r0, [r2, #-1071]	; 0xfffffbd1
     1e8:	0402000b 	streq	r0, [r2], #-11
     1ec:	01720303 	cmneq	r2, r3, lsl #6
     1f0:	02000505 	andeq	r0, r0, #20971520	; 0x1400000
     1f4:	05130304 	ldreq	r0, [r3, #-772]	; 0xfffffcfc
     1f8:	0402000c 	streq	r0, [r2], #-12
     1fc:	00010603 	andeq	r0, r1, r3, lsl #12
     200:	ba030402 	blt	c1210 <__bss_end__+0xb6bb8>
     204:	09050104 	stmdbeq	r5, {r2, r8}
     208:	03040200 	movweq	r0, #16896	; 0x4200
     20c:	05010d03 	streq	r0, [r1, #-3331]	; 0xfffff2fd
     210:	0402001b 	streq	r0, [r2], #-27	; 0xffffffe5
     214:	05810603 	streq	r0, [r1, #1539]	; 0x603
     218:	0402001c 	streq	r0, [r2], #-28	; 0xffffffe4
     21c:	05010603 	streq	r0, [r1, #-1539]	; 0xfffff9fd
     220:	04020014 	streq	r0, [r2], #-20	; 0xffffffec
     224:	052e0601 	streq	r0, [lr, #-1537]!	; 0xfffff9ff
     228:	04020005 	streq	r0, [r2], #-5
     22c:	06010601 	streq	r0, [r1], -r1, lsl #12
     230:	0502044c 	streq	r0, [r2, #-1100]	; 0xfffffbb4
     234:	0171030b 	cmneq	r1, fp, lsl #6
     238:	05130505 	ldreq	r0, [r3, #-1285]	; 0xfffffafb
     23c:	ba01060c 	blt	41a74 <__bss_end__+0x3741c>
     240:	05050104 	streq	r0, [r5, #-260]	; 0xfffffefc
     244:	06010e03 	streq	r0, [r1], -r3, lsl #28
     248:	06010584 	streq	r0, [r1], -r4, lsl #11
     24c:	14056613 	strne	r6, [r5], #-1555	; 0xfffff9ed
     250:	02050006 	andeq	r0, r5, #6, 0
     254:	000081cc 	andeq	r8, r0, ip, asr #3
     258:	4b050514 	blmi	1416b0 <__bss_end__+0x137058>
     25c:	10051414 	andne	r1, r5, r4, lsl r4
     260:	05050106 	streq	r0, [r5, #-262]	; 0xfffffefa
     264:	05136706 	ldreq	r6, [r3, #-1798]	; 0xfffff8fa
     268:	0d050109 	stfeqs	f0, [r5, #-36]	; 0xffffffdc
     26c:	14050106 	strne	r0, [r5], #-262	; 0xfffffefa
     270:	02040200 	andeq	r0, r4, #0, 4
     274:	05052e06 	streq	r2, [r5, #-3590]	; 0xfffff1fa
     278:	02040200 	andeq	r0, r4, #0, 4
     27c:	09050106 	stmdbeq	r5, {r1, r2, r8}
     280:	14054b06 	strne	r4, [r5], #-2822	; 0xfffff4fa
     284:	09050106 	stmdbeq	r5, {r1, r2, r8}
     288:	00014d06 	andeq	r4, r1, r6, lsl #26
     28c:	4a020402 	bmi	8129c <__bss_end__+0x76c44>
     290:	02040200 	andeq	r0, r4, #0, 4
     294:	04020001 	streq	r0, [r2], #-1
     298:	02001302 	andeq	r1, r0, #134217728	; 0x8000000
     29c:	00010204 	andeq	r0, r1, r4, lsl #4
     2a0:	06020402 	streq	r0, [r2], -r2, lsl #8
     2a4:	0402002e 	streq	r0, [r2], #-46	; 0xffffffd2
     2a8:	002e0602 	eoreq	r0, lr, r2, lsl #12
     2ac:	66020402 	strvs	r0, [r2], -r2, lsl #8
     2b0:	02002005 	andeq	r2, r0, #5, 0
     2b4:	050d0204 	streq	r0, [sp, #-516]	; 0xfffffdfc
     2b8:	04020021 	streq	r0, [r2], #-33	; 0xffffffdf
     2bc:	00010602 	andeq	r0, r1, r2, lsl #12
     2c0:	2e020402 	cdpcs	4, 0, cr0, cr2, cr2, {0}
     2c4:	02000905 	andeq	r0, r0, #81920	; 0x14000
     2c8:	32060104 	andcc	r0, r6, #1
     2cc:	01040200 	mrseq	r0, R12_usr
     2d0:	04020001 	streq	r0, [r2], #-1
     2d4:	00ba0601 	adcseq	r0, sl, r1, lsl #12
     2d8:	06010402 	streq	r0, [r1], -r2, lsl #8
     2dc:	0402002e 	streq	r0, [r2], #-46	; 0xffffffd2
     2e0:	052e0601 	streq	r0, [lr, #-1537]!	; 0xfffff9ff
     2e4:	01150605 	tsteq	r5, r5, lsl #12
     2e8:	01054a4a 	tsteq	r5, sl, asr #20
     2ec:	024a1306 	subeq	r1, sl, #402653184	; 0x18000000
     2f0:	0101000e 	tsteq	r1, lr
     2f4:	00000227 	andeq	r0, r0, r7, lsr #4
     2f8:	00640003 	rsbeq	r0, r4, r3
     2fc:	01020000 	mrseq	r0, (UNDEF: 2)
     300:	000d0efb 	strdeq	r0, [sp], -fp
     304:	01010101 	tsteq	r1, r1, lsl #2
     308:	01000000 	mrseq	r0, (UNDEF: 0)
     30c:	2f010000 	svccs	0x00010000
     310:	72657355 	rsbvc	r7, r5, #1409286145	; 0x54000001
     314:	696d2f73 	stmdbvs	sp!, {r0, r1, r4, r5, r6, r8, r9, sl, fp, sp}^
     318:	2f73656c 	svccs	0x0073656c
     31c:	72756f53 	rsbsvc	r6, r5, #332	; 0x14c
     320:	632f6563 			; <UNDEFINED> instruction: 0x632f6563
     324:	30343273 	eorscc	r3, r4, r3, ror r2
     328:	6c2f786c 	stcvs	8, cr7, [pc], #-432	; 180 <__code_start__-0x7e80>
     32c:	69706269 	ldmdbvs	r0!, {r0, r3, r5, r6, r9, sp, lr}^
     330:	636e692f 	cmnvs	lr, #770048	; 0xbc000
     334:	6564756c 	strbvs	r7, [r4, #-1388]!	; 0xfffffa94
     338:	726b0000 	rsbvc	r0, fp, #0, 0
     33c:	6c616d2d 	stclvs	13, cr6, [r1], #-180	; 0xffffff4c
     340:	2e636f6c 	cdpcs	15, 6, cr6, cr3, cr12, {3}
     344:	00000063 	andeq	r0, r0, r3, rrx
     348:	69707200 	ldmdbvs	r0!, {r9, ip, sp, lr}^
     34c:	0100682e 	tsteq	r0, lr, lsr #16
     350:	726b0000 	rsbvc	r0, fp, #0, 0
     354:	6c616d2d 	stclvs	13, cr6, [r1], #-180	; 0xffffff4c
     358:	2e636f6c 	cdpcs	15, 6, cr6, cr3, cr12, {3}
     35c:	00000068 	andeq	r0, r0, r8, rrx
     360:	01050000 	mrseq	r0, (UNDEF: 5)
     364:	6c020500 	cfstr32vs	mvfx0, [r2], {-0}
     368:	03000082 	movweq	r0, #130	; 0x82
     36c:	060100d2 			; <UNDEFINED> instruction: 0x060100d2
     370:	06020501 	streq	r0, [r2], -r1, lsl #10
     374:	0505132f 	streq	r1, [r5, #-815]	; 0xfffffcd1
     378:	02050106 	andeq	r0, r5, #-2147483647	; 0x80000001
     37c:	09052f06 	stmdbeq	r5, {r1, r2, r8, r9, sl, fp, sp}
     380:	02050106 	andeq	r0, r5, #-2147483647	; 0x80000001
     384:	12052e4a 	andne	r2, r5, #1184	; 0x4a0
     388:	01040200 	mrseq	r0, R12_usr
     38c:	02052e06 	andeq	r2, r5, #96	; 0x60
     390:	01040200 	mrseq	r0, R12_usr
     394:	27050106 	strcs	r0, [r5, -r6, lsl #2]
     398:	03040200 	movweq	r0, #16896	; 0x4200
     39c:	0012054a 	andseq	r0, r2, sl, asr #10
     3a0:	2e030402 	cdpcs	4, 0, cr0, cr3, cr2, {0}
     3a4:	4b060305 	blmi	180fc0 <__bss_end__+0x176968>
     3a8:	01061005 	tsteq	r6, r5
     3ac:	052e0605 	streq	r0, [lr, #-1541]!	; 0xfffff9fb
     3b0:	04020015 	streq	r0, [r2], #-21	; 0xffffffeb
     3b4:	20054a01 	andcs	r4, r5, r1, lsl #20
     3b8:	02040200 	andeq	r0, r4, #0, 4
     3bc:	0402004a 	streq	r0, [r2], #-74	; 0xffffffb6
     3c0:	02054a02 	andeq	r4, r5, #8192	; 0x2000
     3c4:	10053006 	andne	r3, r5, r6
     3c8:	09050106 	stmdbeq	r5, {r1, r2, r8}
     3cc:	2e1d052e 	cfmul64cs	mvdx0, mvdx13, mvdx14
     3d0:	052e0505 	streq	r0, [lr, #-1285]!	; 0xfffffafb
     3d4:	05500603 	ldrbeq	r0, [r0, #-1539]	; 0xfffff9fd
     3d8:	0501060d 	streq	r0, [r1, #-1549]	; 0xfffff9f3
     3dc:	052f0602 	streq	r0, [pc, #-1538]!	; fffffde2 <__bss_end__+0xffff578a>
     3e0:	0501060e 	streq	r0, [r1, #-1550]	; 0xfffff9f2
     3e4:	05052e08 	streq	r2, [r5, #-3592]	; 0xfffff1f8
     3e8:	0603052e 	streq	r0, [r3], -lr, lsr #10
     3ec:	060c0550 			; <UNDEFINED> instruction: 0x060c0550
     3f0:	06020501 	streq	r0, [r2], -r1, lsl #10
     3f4:	0608052f 	streq	r0, [r8], -pc, lsr #10
     3f8:	4b010501 	blmi	41804 <__bss_end__+0x371ac>
     3fc:	03060305 	movweq	r0, #25349	; 0x6305
     400:	1c052e73 	stcne	14, cr2, [r5], {115}	; 0x73
     404:	0e050106 	adfeqs	f0, f5, f6
     408:	0603052e 	streq	r0, [r3], -lr, lsr #10
     40c:	0613054b 	ldreq	r0, [r3], -fp, asr #10
     410:	2e1a0501 	cfmul32cs	mvfx0, mvfx10, mvfx1
     414:	052e0d05 	streq	r0, [lr, #-3333]!	; 0xfffff2fb
     418:	05500603 	ldrbeq	r0, [r0, #-1539]	; 0xfffff9fd
     41c:	05010615 	streq	r0, [r1, #-1557]	; 0xfffff9eb
     420:	03052e0d 	movweq	r2, #24077	; 0x5e0d
     424:	13054b06 	movwne	r4, #23302	; 0x5b06
     428:	0c050106 	stfeqs	f0, [r5], {6}
     42c:	0601052e 	streq	r0, [r1], -lr, lsr #10
     430:	667fba03 	ldrbtvs	fp, [pc], -r3, lsl #20
     434:	02050106 	andeq	r0, r5, #-2147483647	; 0x80000001
     438:	05054b06 	streq	r4, [r5, #-2822]	; 0xfffff4fa
     43c:	06050106 	streq	r0, [r5], -r6, lsl #2
     440:	0602052f 	streq	r0, [r2], -pc, lsr #10
     444:	060d052f 	streq	r0, [sp], -pc, lsr #10
     448:	06020501 	streq	r0, [r2], -r1, lsl #10
     44c:	0605054b 	streq	r0, [r5], -fp, asr #10
     450:	06020501 	streq	r0, [r2], -r1, lsl #10
     454:	0d05134c 	stceq	3, cr1, [r5, #-304]	; 0xfffffed0
     458:	02050106 	andeq	r0, r5, #-2147483647	; 0x80000001
     45c:	2e062f06 	cdpcs	15, 0, cr2, cr6, cr6, {0}
     460:	09052f06 	stmdbeq	r5, {r1, r2, r8, r9, sl, fp, sp}
     464:	0a050106 	beq	140884 <__bss_end__+0x13622c>
     468:	33010562 	movwcc	r0, #5474	; 0x1562
     46c:	01064e06 	tsteq	r6, r6, lsl #28
     470:	2f060205 	svccs	0x00060205
     474:	24051413 	strcs	r1, [r5], #-1043	; 0xfffffbed
     478:	29050106 	stmdbcs	r5, {r1, r2, r8}
     47c:	2e09052e 	cfsh32cs	mvfx0, mvfx9, #30
     480:	2f060205 	svccs	0x00060205
     484:	01060d05 	tsteq	r6, r5, lsl #26
     488:	054a0505 	strbeq	r0, [sl, #-1285]	; 0xfffffafb
     48c:	05500602 	ldrbeq	r0, [r0, #-1538]	; 0xfffff9fe
     490:	2e010609 	cfmadd32cs	mvax0, mvfx0, mvfx1, mvfx9
     494:	2a060305 	bcs	1810b0 <__bss_end__+0x176a58>
     498:	01061605 	tsteq	r6, r5, lsl #12
     49c:	054a0e05 	strbeq	r0, [sl, #-3589]	; 0xfffff1fb
     4a0:	052f0603 	streq	r0, [pc, #-1539]!	; fffffea5 <__bss_end__+0xffff584d>
     4a4:	0501060f 	streq	r0, [r1, #-1551]	; 0xfffff9f1
     4a8:	056d0604 	strbeq	r0, [sp, #-1540]!	; 0xfffff9fc
     4ac:	05010607 	streq	r0, [r1, #-1543]	; 0xfffff9f9
     4b0:	05340605 	ldreq	r0, [r4, #-1541]!	; 0xfffff9fb
     4b4:	0501060f 	streq	r0, [r1, #-1551]	; 0xfffff9f1
     4b8:	054b0605 	strbeq	r0, [fp, #-1541]	; 0xfffff9fb
     4bc:	05010607 	streq	r0, [r1, #-1543]	; 0xfffff9f9
     4c0:	052f0605 	streq	r0, [pc, #-1541]!	; fffffec3 <__bss_end__+0xffff586b>
     4c4:	0501060f 	streq	r0, [r1, #-1551]	; 0xfffff9f1
     4c8:	05300604 	ldreq	r0, [r0, #-1540]!	; 0xfffff9fc
     4cc:	0501060a 	streq	r0, [r1, #-1546]	; 0xfffff9f6
     4d0:	054b0604 	strbeq	r0, [fp, #-1540]	; 0xfffff9fc
     4d4:	2e01060b 	cfmadd32cs	mvax0, mvfx0, mvfx1, mvfx11
     4d8:	03060505 	movweq	r0, #25861	; 0x6505
     4dc:	18052e77 	stmdane	r5, {r0, r1, r2, r4, r5, r6, r9, sl, fp, sp}
     4e0:	12050106 	andne	r0, r5, #-2147483647	; 0x80000001
     4e4:	061a052e 	ldreq	r0, [sl], -lr, lsr #10
     4e8:	054a7a03 	strbeq	r7, [sl, #-2563]	; 0xfffff5fd
     4ec:	20050118 	andcs	r0, r5, r8, lsl r1
     4f0:	27050106 	strcs	r0, [r5, -r6, lsl #2]
     4f4:	0603052e 	streq	r0, [r3], -lr, lsr #10
     4f8:	060b0530 			; <UNDEFINED> instruction: 0x060b0530
     4fc:	2e060501 	cfsh32cs	mvfx0, mvfx6, #1
     500:	03060305 	movweq	r0, #25349	; 0x6305
     504:	09054a0f 	stmdbeq	r5, {r0, r1, r2, r3, r9, fp, lr}
     508:	06050106 	streq	r0, [r5], -r6, lsl #2
     50c:	0604054a 	streq	r0, [r4], -sl, asr #10
     510:	060d054c 	streq	r0, [sp], -ip, asr #10
     514:	07052e01 	streq	r2, [r5, -r1, lsl #28]
     518:	06022e2e 	streq	r2, [r2], -lr, lsr #28
     51c:	75010100 	strvc	r0, [r1, #-256]	; 0xffffff00
     520:	03000000 	movweq	r0, #0
     524:	00005300 	andeq	r5, r0, r0, lsl #6
     528:	fb010200 	blx	40d32 <__bss_end__+0x366da>
     52c:	01000d0e 	tsteq	r0, lr, lsl #26
     530:	00010101 	andeq	r0, r1, r1, lsl #2
     534:	00010000 	andeq	r0, r1, r0
     538:	552f0100 	strpl	r0, [pc, #-256]!	; 440 <__code_start__-0x7bc0>
     53c:	73726573 	cmnvc	r2, #482344960	; 0x1cc00000
     540:	6c696d2f 	stclvs	13, cr6, [r9], #-188	; 0xffffff44
     544:	532f7365 			; <UNDEFINED> instruction: 0x532f7365
     548:	6372756f 	cmnvs	r2, #465567744	; 0x1bc00000
     54c:	73632f65 	cmnvc	r3, #404	; 0x194
     550:	6c303432 	cfldrsvs	mvf3, [r0], #-200	; 0xffffff38
     554:	696c2f78 	stmdbvs	ip!, {r3, r4, r5, r6, r8, r9, sl, fp, sp}^
     558:	2f697062 	svccs	0x00697062
     55c:	6c636e69 	stclvs	14, cr6, [r3], #-420	; 0xfffffe5c
     560:	00656475 	rsbeq	r6, r5, r5, ror r4
     564:	2d697000 	stclcs	0, cr7, [r9, #-0]
     568:	6b726273 	blvs	1c98f3c <__bss_end__+0x1c8e8e4>
     56c:	0000632e 	andeq	r6, r0, lr, lsr #6
     570:	70720000 	rsbsvc	r0, r2, r0
     574:	00682e69 	rsbeq	r2, r8, r9, ror #28
     578:	00000001 	andeq	r0, r0, r1
     57c:	05001c05 	streq	r1, [r0, #-3077]	; 0xfffff3fb
     580:	00841802 	addeq	r1, r4, r2, lsl #16
     584:	01061500 	tsteq	r6, r0, lsl #10
     588:	2f060505 	svccs	0x00060505
     58c:	01060c05 	tsteq	r6, r5, lsl #24
     590:	022f0105 	eoreq	r0, pc, #1073741825	; 0x40000001
     594:	01010002 	tsteq	r1, r2
     598:	000002ff 	strdeq	r0, [r0], -pc	; <UNPREDICTABLE>
     59c:	00e50003 	rsceq	r0, r5, r3
     5a0:	01020000 	mrseq	r0, (UNDEF: 2)
     5a4:	000d0efb 	strdeq	r0, [sp], -fp
     5a8:	01010101 	tsteq	r1, r1, lsl #2
     5ac:	01000000 	mrseq	r0, (UNDEF: 0)
     5b0:	2f010000 	svccs	0x00010000
     5b4:	2f74706f 	svccs	0x0074706f
     5b8:	656d6f68 	strbvs	r6, [sp, #-3944]!	; 0xfffff098
     5bc:	77657262 	strbvc	r7, [r5, -r2, ror #4]!
     5c0:	6c65432f 	stclvs	3, cr4, [r5], #-188	; 0xffffff44
     5c4:	2f72616c 	svccs	0x0072616c
     5c8:	2d6d7261 	sfmcs	f7, 2, [sp, #-388]!	; 0xfffffe7c
     5cc:	656e6f6e 	strbvs	r6, [lr, #-3950]!	; 0xfffff092
     5d0:	6261652d 	rsbvs	r6, r1, #188743680	; 0xb400000
     5d4:	2f392d69 	svccs	0x00392d69
     5d8:	30322d39 	eorscc	r2, r2, r9, lsr sp
     5dc:	34713931 	ldrbtcc	r3, [r1], #-2353	; 0xfffff6cf
     5e0:	3173632d 	cmncc	r3, sp, lsr #6
     5e4:	2f653730 	svccs	0x00653730
     5e8:	2f62696c 	svccs	0x0062696c
     5ec:	2f636367 	svccs	0x00636367
     5f0:	2d6d7261 	sfmcs	f7, 2, [sp, #-388]!	; 0xfffffe7c
     5f4:	656e6f6e 	strbvs	r6, [lr, #-3950]!	; 0xfffff092
     5f8:	6261652d 	rsbvs	r6, r1, #188743680	; 0xb400000
     5fc:	2e392f69 	cdpcs	15, 3, cr2, cr9, cr9, {3}
     600:	2f312e32 	svccs	0x00312e32
     604:	6c636e69 	stclvs	14, cr6, [r3], #-420	; 0xfffffe5c
     608:	00656475 	rsbeq	r6, r5, r5, ror r4
     60c:	6573552f 	ldrbvs	r5, [r3, #-1327]!	; 0xfffffad1
     610:	6d2f7372 	stcvs	3, cr7, [pc, #-456]!	; 450 <__code_start__-0x7bb0>
     614:	73656c69 	cmnvc	r5, #26880	; 0x6900
     618:	756f532f 	strbvc	r5, [pc, #-815]!	; 2f1 <__code_start__-0x7d0f>
     61c:	2f656372 	svccs	0x00656372
     620:	34327363 	ldrtcc	r7, [r2], #-867	; 0xfffffc9d
     624:	2f786c30 	svccs	0x00786c30
     628:	7062696c 	rsbvc	r6, r2, ip, ror #18
     62c:	6e692f69 	cdpvs	15, 6, cr2, cr9, cr9, {3}
     630:	64756c63 	ldrbtvs	r6, [r5], #-3171	; 0xfffff39d
     634:	63000065 	movwvs	r0, #101	; 0x65
     638:	6c6c616b 	stfvse	f6, [ip], #-428	; 0xfffffe54
     63c:	632e636f 			; <UNDEFINED> instruction: 0x632e636f
     640:	00000000 	andeq	r0, r0, r0
     644:	6c616b63 			; <UNDEFINED> instruction: 0x6c616b63
     648:	2e636f6c 	cdpcs	15, 6, cr6, cr3, cr12, {3}
     64c:	00000068 	andeq	r0, r0, r8, rrx
     650:	64747300 	ldrbtvs	r7, [r4], #-768	; 0xfffffd00
     654:	2d746e69 	ldclcs	14, cr6, [r4, #-420]!	; 0xfffffe5c
     658:	2e636367 	cdpcs	3, 6, cr6, cr3, cr7, {3}
     65c:	00010068 	andeq	r0, r1, r8, rrx
     660:	69707200 	ldmdbvs	r0!, {r9, ip, sp, lr}^
     664:	0200682e 	andeq	r6, r0, #3014656	; 0x2e0000
     668:	72730000 	rsbsvc	r0, r3, #0, 0
     66c:	6f6c2d63 	svcvs	0x006c2d63
     670:	00682e63 	rsbeq	r2, r8, r3, ror #28
     674:	6b000000 	blvs	67c <__code_start__-0x7984>
     678:	616d2d72 	smcvs	53970	; 0xd2d2
     67c:	636f6c6c 	cmnvs	pc, #108, 24	; 0x6c00
     680:	0000682e 	andeq	r6, r0, lr, lsr #16
     684:	05000000 	streq	r0, [r0, #-0]
     688:	02050001 	andeq	r0, r5, #1, 0
     68c:	00008424 	andeq	r8, r0, r4, lsr #8
     690:	05010b03 	streq	r0, [r1, #-2819]	; 0xfffff4fd
     694:	01051305 	tsteq	r5, r5, lsl #6
     698:	86061306 	strhi	r1, [r6], -r6, lsl #6
     69c:	05130505 	ldreq	r0, [r3, #-1285]	; 0xfffffafb
     6a0:	2e010608 	cfmadd32cs	mvax0, mvfx0, mvfx1, mvfx8
     6a4:	2f060905 	svccs	0x00060905
     6a8:	01061105 	tsteq	r6, r5, lsl #2
     6ac:	06300105 	ldrteq	r0, [r0], -r5, lsl #2
     6b0:	062e2603 	strteq	r2, [lr], -r3, lsl #12
     6b4:	06050501 	streq	r0, [r5], -r1, lsl #10
     6b8:	0200014b 	andeq	r0, r0, #-1073741806	; 0xc0000012
     6bc:	00660204 	rsbeq	r0, r6, r4, lsl #4
     6c0:	01020402 	tsteq	r2, r2, lsl #8
     6c4:	02040200 	andeq	r0, r4, #0, 4
     6c8:	000c0513 	andeq	r0, ip, r3, lsl r5
     6cc:	06020402 	streq	r0, [r2], -r2, lsl #8
     6d0:	00050501 	andeq	r0, r5, r1, lsl #10
     6d4:	06020402 	streq	r0, [r2], -r2, lsl #8
     6d8:	00080530 	andeq	r0, r8, r0, lsr r5
     6dc:	06020402 	streq	r0, [r2], -r2, lsl #8
     6e0:	060b0501 	streq	r0, [fp], -r1, lsl #10
     6e4:	06110551 			; <UNDEFINED> instruction: 0x06110551
     6e8:	2e0b052e 	cfsh32cs	mvfx0, mvfx11, #30
     6ec:	0609052e 	streq	r0, [r9], -lr, lsr #10
     6f0:	060c0530 			; <UNDEFINED> instruction: 0x060c0530
     6f4:	060d0501 	streq	r0, [sp], -r1, lsl #10
     6f8:	061b054c 	ldreq	r0, [fp], -ip, asr #10
     6fc:	2e180501 	cfmul32cs	mvfx0, mvfx8, mvfx1
     700:	2f060d05 	svccs	0x00060d05
     704:	17060105 	strne	r0, [r6, -r5, lsl #2]
     708:	02000505 	andeq	r0, r0, #20971520	; 0x1400000
     70c:	03060104 	movweq	r0, #24836	; 0x6104
     710:	02004a6c 	andeq	r4, r0, #108, 20	; 0x6c000
     714:	00010104 	andeq	r0, r1, r4, lsl #2
     718:	06010402 	streq	r0, [r1], -r2, lsl #8
     71c:	0402009e 	streq	r0, [r2], #-158	; 0xffffff62
     720:	02002e01 	andeq	r2, r0, #1, 28
     724:	2e060104 	adfcss	f0, f6, f4
     728:	05330905 	ldreq	r0, [r3, #-2309]!	; 0xfffff6fb
     72c:	0501060f 	streq	r0, [r1, #-1551]	; 0xfffff9f1
     730:	09052e0c 	stmdbeq	r5, {r2, r3, r9, sl, fp, sp}
     734:	05052f06 	streq	r2, [r5, #-3846]	; 0xfffff0fa
     738:	012e0d03 			; <UNDEFINED> instruction: 0x012e0d03
     73c:	2e069e06 	cdpcs	14, 0, cr9, cr6, cr6, {0}
     740:	49030105 	stmdbmi	r3, {r0, r2, r8}
     744:	130505ba 	movwne	r0, #21946	; 0x55ba
     748:	13060105 	movwne	r0, #24837	; 0x6105
     74c:	0632062e 	ldrteq	r0, [r2], -lr, lsr #12
     750:	06050501 	streq	r0, [r5], -r1, lsl #10
     754:	0614054b 	ldreq	r0, [r4], -fp, asr #10
     758:	05020401 	streq	r0, [r2, #-1025]	; 0xfffffbff
     75c:	052f0618 	streq	r0, [pc, #-1560]!	; 14c <__code_start__-0x7eb4>
     760:	0d051305 	stceq	3, cr1, [r5, #-20]	; 0xffffffec
     764:	042e0106 	strteq	r0, [lr], #-262	; 0xfffffefa
     768:	11010501 	tstne	r1, r1, lsl #10
     76c:	05054e06 	streq	r4, [r5, #-3590]	; 0xfffff1fa
     770:	06270513 			; <UNDEFINED> instruction: 0x06270513
     774:	00480501 	subeq	r0, r8, r1, lsl #10
     778:	4a010402 	bmi	41788 <__bss_end__+0x37130>
     77c:	02004505 	andeq	r4, r0, #20971520	; 0x1400000
     780:	052e0104 	streq	r0, [lr, #-260]!	; 0xfffffefc
     784:	04020057 	streq	r0, [r2], #-87	; 0xffffffa9
     788:	27054a01 	strcs	r4, [r5, -r1, lsl #20]
     78c:	01040200 	mrseq	r0, R12_usr
     790:	2e4a4a4a 	vmlscs.f32	s9, s20, s20
     794:	064b0105 	strbeq	r0, [fp], -r5, lsl #2
     798:	05010631 	streq	r0, [r1, #-1585]	; 0xfffff9cf
     79c:	054c0605 	strbeq	r0, [ip, #-1541]	; 0xfffff9fb
     7a0:	1505010a 	strne	r0, [r5, #-266]	; 0xfffffef6
     7a4:	052e0106 	streq	r0, [lr, #-262]!	; 0xfffffefa
     7a8:	04020025 	streq	r0, [r2], #-37	; 0xffffffdb
     7ac:	052e0601 	streq	r0, [lr, #-1537]!	; 0xfffff9ff
     7b0:	04020005 	streq	r0, [r2], #-5
     7b4:	05010601 	streq	r0, [r1, #-1537]	; 0xfffff9ff
     7b8:	054d0609 	strbeq	r0, [sp, #-1545]	; 0xfffff9f7
     7bc:	4a01060d 	bmi	41ff8 <__bss_end__+0x379a0>
     7c0:	052e0c05 	streq	r0, [lr, #-3077]!	; 0xfffff3fb
     7c4:	04020009 	streq	r0, [r2], #-9
     7c8:	05510602 	ldrbeq	r0, [r1, #-1538]	; 0xfffff9fe
     7cc:	04020028 	streq	r0, [r2], #-40	; 0xffffffd8
     7d0:	01760302 	cmneq	r6, r2, lsl #6
     7d4:	02002c05 	andeq	r2, r0, #1280	; 0x500
     7d8:	01060204 	tsteq	r6, r4, lsl #4
     7dc:	02040200 	andeq	r0, r4, #0, 4
     7e0:	060d0566 	streq	r0, [sp], -r6, ror #10
     7e4:	14058333 	strne	r8, [r5], #-819	; 0xfffffccd
     7e8:	054a0106 	strbeq	r0, [sl, #-262]	; 0xfffffefa
     7ec:	0105180c 	tsteq	r5, ip, lsl #16
     7f0:	1c03062f 	stcne	6, cr0, [r3], {47}	; 0x2f
     7f4:	8201064a 	andhi	r0, r1, #77594624	; 0x4a00000
     7f8:	2f060505 	svccs	0x00060505
     7fc:	f2011413 	vqshl.s8	d1, d3, d1
     800:	0a051366 	beq	1455a0 <__bss_end__+0x13af48>
     804:	08050106 	stmdaeq	r5, {r1, r2, r8}
     808:	0609052e 	streq	r0, [r9], -lr, lsr #10
     80c:	14050567 	strne	r0, [r5], #-1383	; 0xfffffa99
     810:	01060e05 	tsteq	r6, r5, lsl #28
     814:	4b060505 	blmi	181c30 <__bss_end__+0x1775d8>
     818:	04020001 	streq	r0, [r2], #-1
     81c:	02008202 	andeq	r8, r0, #536870912	; 0x20000000
     820:	00010204 	andeq	r0, r1, r4, lsl #4
     824:	14020402 	strne	r0, [r2], #-1026	; 0xfffffbfe
     828:	02040200 	andeq	r0, r4, #0, 4
     82c:	00010567 	andeq	r0, r1, r7, ror #10
     830:	06020402 	streq	r0, [r2], -r2, lsl #8
     834:	0609054b 	streq	r0, [r9], -fp, asr #10
     838:	014a7903 	cmpeq	sl, r3, lsl #18
     83c:	0505669e 	streq	r6, [r5, #-1694]	; 0xfffff962
     840:	01040200 	mrseq	r0, R12_usr
     844:	04020031 	streq	r0, [r2], #-49	; 0xffffffcf
     848:	02000101 	andeq	r0, r0, #1073741824	; 0x40000000
     84c:	05d60104 	ldrbeq	r0, [r6, #260]	; 0x104
     850:	080a0301 	stmdaeq	sl, {r0, r8, r9}
     854:	0501063c 	streq	r0, [r1, #-1596]	; 0xfffff9c4
     858:	059f0605 	ldreq	r0, [pc, #1541]	; e65 <__code_start__-0x719b>
     85c:	2e010610 	mcrcs	6, 0, r0, cr1, cr0, {0}
     860:	4b060505 	blmi	181c7c <__bss_end__+0x177624>
     864:	06150568 	ldreq	r0, [r5], -r8, ror #10
     868:	06050501 	streq	r0, [r5], -r1, lsl #10
     86c:	060e052f 	streq	r0, [lr], -pc, lsr #10
     870:	06050501 	streq	r0, [r5], -r1, lsl #10
     874:	0612054b 	ldreq	r0, [r2], -fp, asr #10
     878:	06050501 	streq	r0, [r5], -r1, lsl #10
     87c:	829e0168 	addshi	r0, lr, #26
     880:	060d0513 			; <UNDEFINED> instruction: 0x060d0513
     884:	06050501 	streq	r0, [r5], -r1, lsl #10
     888:	06100567 	ldreq	r0, [r0], -r7, ror #10
     88c:	06050501 	streq	r0, [r5], -r1, lsl #10
     890:	06010530 			; <UNDEFINED> instruction: 0x06010530
     894:	06026613 			; <UNDEFINED> instruction: 0x06026613
     898:	21010100 	mrscs	r0, (UNDEF: 17)
     89c:	03000001 	movweq	r0, #1
     8a0:	0000be00 	andeq	fp, r0, r0, lsl #28
     8a4:	fb010200 	blx	410ae <__bss_end__+0x36a56>
     8a8:	01000d0e 	tsteq	r0, lr, lsl #26
     8ac:	00010101 	andeq	r0, r1, r1, lsl #2
     8b0:	00010000 	andeq	r0, r1, r0
     8b4:	2f2e0100 	svccs	0x002e0100
     8b8:	6362696c 	cmnvs	r2, #108, 18	; 0x1b0000
     8bc:	73552f00 	cmpvc	r5, #0, 30
     8c0:	2f737265 	svccs	0x00737265
     8c4:	656c696d 	strbvs	r6, [ip, #-2413]!	; 0xfffff693
     8c8:	6f532f73 	svcvs	0x00532f73
     8cc:	65637275 	strbvs	r7, [r3, #-629]!	; 0xfffffd8b
     8d0:	3273632f 	rsbscc	r6, r3, #-1140850688	; 0xbc000000
     8d4:	786c3034 	stmdavc	ip!, {r2, r4, r5, ip, sp}^
     8d8:	62696c2f 	rsbvs	r6, r9, #12032	; 0x2f00
     8dc:	692f6970 	stmdbvs	pc!, {r4, r5, r6, r8, fp, sp, lr}	; <UNPREDICTABLE>
     8e0:	756c636e 	strbvc	r6, [ip, #-878]!	; 0xfffffc92
     8e4:	2f006564 	svccs	0x00006564
     8e8:	2f74706f 	svccs	0x0074706f
     8ec:	656d6f68 	strbvs	r6, [sp, #-3944]!	; 0xfffff098
     8f0:	77657262 	strbvc	r7, [r5, -r2, ror #4]!
     8f4:	6c65432f 	stclvs	3, cr4, [r5], #-188	; 0xffffff44
     8f8:	2f72616c 	svccs	0x0072616c
     8fc:	2d6d7261 	sfmcs	f7, 2, [sp, #-388]!	; 0xfffffe7c
     900:	656e6f6e 	strbvs	r6, [lr, #-3950]!	; 0xfffff092
     904:	6261652d 	rsbvs	r6, r1, #188743680	; 0xb400000
     908:	2f392d69 	svccs	0x00392d69
     90c:	30322d39 	eorscc	r2, r2, r9, lsr sp
     910:	34713931 	ldrbtcc	r3, [r1], #-2353	; 0xfffff6cf
     914:	3173632d 	cmncc	r3, sp, lsr #6
     918:	2f653730 	svccs	0x00653730
     91c:	2f62696c 	svccs	0x0062696c
     920:	2f636367 	svccs	0x00636367
     924:	2d6d7261 	sfmcs	f7, 2, [sp, #-388]!	; 0xfffffe7c
     928:	656e6f6e 	strbvs	r6, [lr, #-3950]!	; 0xfffff092
     92c:	6261652d 	rsbvs	r6, r1, #188743680	; 0xb400000
     930:	2e392f69 	cdpcs	15, 3, cr2, cr9, cr9, {3}
     934:	2f312e32 	svccs	0x00312e32
     938:	6c636e69 	stclvs	14, cr6, [r3], #-420	; 0xfffffe5c
     93c:	00656475 	rsbeq	r6, r5, r5, ror r4
     940:	6d656d00 	stclvs	13, cr6, [r5, #-0]
     944:	2e746573 	mrccs	5, 3, r6, cr4, cr3, {3}
     948:	00010063 	andeq	r0, r1, r3, rrx
     94c:	69707200 	ldmdbvs	r0!, {r9, ip, sp, lr}^
     950:	0200682e 	andeq	r6, r0, #3014656	; 0x2e0000
     954:	74730000 	ldrbtvc	r0, [r3], #-0
     958:	66656464 	strbtvs	r6, [r5], -r4, ror #8
     95c:	0300682e 	movweq	r6, #2094	; 0x82e
     960:	05000000 	streq	r0, [r0, #-0]
     964:	02050029 	andeq	r0, r5, #41, 0	; 0x29
     968:	00008720 	andeq	r8, r0, r0, lsr #14
     96c:	13050515 	movwne	r0, #21781	; 0x5515
     970:	11062905 	tstne	r6, r5, lsl #18
     974:	052f1405 	streq	r1, [pc, #-1029]!	; 577 <__code_start__-0x7a89>
     978:	05300605 	ldreq	r0, [r0, #-1541]!	; 0xfffff9fb
     97c:	9e06010a 	adflss	f0, f6, #2.0
     980:	d7060905 	strle	r0, [r6, -r5, lsl #18]
     984:	01060e05 	tsteq	r6, r5, lsl #28
     988:	2d060a05 	vstrcs	s0, [r6, #-20]	; 0xffffffec
     98c:	05bb0905 	ldreq	r0, [fp, #2309]!	; 0x905
     990:	2e01060e 	cfmadd32cs	mvax0, mvfx0, mvfx1, mvfx14
     994:	2d060a05 	vstrcs	s0, [r6, #-20]	; 0xffffffec
     998:	054b0905 	strbeq	r0, [fp, #-2309]	; 0xfffff6fb
     99c:	0501060b 	streq	r0, [r1, #-1547]	; 0xfffff9f5
     9a0:	0e052d0a 	cdpeq	13, 0, cr2, cr5, cr10, {0}
     9a4:	060a052f 	streq	r0, [sl], -pc, lsr #10
     9a8:	060e052d 	streq	r0, [lr], -sp, lsr #10
     9ac:	06090513 			; <UNDEFINED> instruction: 0x06090513
     9b0:	110a052e 	tstne	sl, lr, lsr #10
     9b4:	05140505 	ldreq	r0, [r4, #-1285]	; 0xfffffafb
     9b8:	02130601 	andseq	r0, r3, #1048576	; 0x100000
     9bc:	01010002 	tsteq	r1, r2
     9c0:	00000120 	andeq	r0, r0, r0, lsr #2
     9c4:	00db0003 	sbcseq	r0, fp, r3
     9c8:	01020000 	mrseq	r0, (UNDEF: 2)
     9cc:	000d0efb 	strdeq	r0, [sp], -fp
     9d0:	01010101 	tsteq	r1, r1, lsl #2
     9d4:	01000000 	mrseq	r0, (UNDEF: 0)
     9d8:	2e010000 	cdpcs	0, 0, cr0, cr1, cr0, {0}
     9dc:	62696c2f 	rsbvs	r6, r9, #12032	; 0x2f00
     9e0:	6f2f0063 	svcvs	0x002f0063
     9e4:	682f7470 	stmdavs	pc!, {r4, r5, r6, sl, ip, sp, lr}	; <UNPREDICTABLE>
     9e8:	62656d6f 	rsbvs	r6, r5, #7104	; 0x1bc0
     9ec:	2f776572 	svccs	0x00776572
     9f0:	6c6c6543 	cfstr64vs	mvdx6, [ip], #-268	; 0xfffffef4
     9f4:	612f7261 			; <UNDEFINED> instruction: 0x612f7261
     9f8:	6e2d6d72 	mcrvs	13, 1, r6, cr13, cr2, {3}
     9fc:	2d656e6f 	stclcs	14, cr6, [r5, #-444]!	; 0xfffffe44
     a00:	69626165 	stmdbvs	r2!, {r0, r2, r5, r6, r8, sp, lr}^
     a04:	392f392d 	stmdbcc	pc!, {r0, r2, r3, r5, r8, fp, ip, sp}	; <UNPREDICTABLE>
     a08:	3130322d 	teqcc	r0, sp, lsr #4
     a0c:	2d347139 	ldfcss	f7, [r4, #-228]!	; 0xffffff1c
     a10:	30317363 	eorscc	r7, r1, r3, ror #6
     a14:	6c2f6537 	cfstr32vs	mvfx6, [pc], #-220	; 940 <__code_start__-0x76c0>
     a18:	672f6269 	strvs	r6, [pc, -r9, ror #4]!
     a1c:	612f6363 			; <UNDEFINED> instruction: 0x612f6363
     a20:	6e2d6d72 	mcrvs	13, 1, r6, cr13, cr2, {3}
     a24:	2d656e6f 	stclcs	14, cr6, [r5, #-444]!	; 0xfffffe44
     a28:	69626165 	stmdbvs	r2!, {r0, r2, r5, r6, r8, sp, lr}^
     a2c:	322e392f 	eorcc	r3, lr, #770048	; 0xbc000
     a30:	692f312e 	stmdbvs	pc!, {r1, r2, r3, r5, r8, ip, sp}	; <UNPREDICTABLE>
     a34:	756c636e 	strbvc	r6, [ip, #-878]!	; 0xfffffc92
     a38:	2f006564 	svccs	0x00006564
     a3c:	72657355 	rsbvc	r7, r5, #1409286145	; 0x54000001
     a40:	696d2f73 	stmdbvs	sp!, {r0, r1, r4, r5, r6, r8, r9, sl, fp, sp}^
     a44:	2f73656c 	svccs	0x0073656c
     a48:	72756f53 	rsbsvc	r6, r5, #332	; 0x14c
     a4c:	632f6563 			; <UNDEFINED> instruction: 0x632f6563
     a50:	30343273 	eorscc	r3, r4, r3, ror r2
     a54:	6c2f786c 	stcvs	8, cr7, [pc], #-432	; 8ac <__code_start__-0x7754>
     a58:	69706269 	ldmdbvs	r0!, {r0, r3, r5, r6, r9, sp, lr}^
     a5c:	636e692f 	cmnvs	lr, #770048	; 0xbc000
     a60:	6564756c 	strbvs	r7, [r4, #-1388]!	; 0xfffffa94
     a64:	72700000 	rsbsvc	r0, r0, #0, 0
     a68:	6b746e69 	blvs	1d1c414 <__bss_end__+0x1d11dbc>
     a6c:	0100632e 	tsteq	r0, lr, lsr #6
     a70:	74730000 	ldrbtvc	r0, [r3], #-0
     a74:	67726164 	ldrbvs	r6, [r2, -r4, ror #2]!
     a78:	0200682e 	andeq	r6, r0, #3014656	; 0x2e0000
     a7c:	70720000 	rsbsvc	r0, r2, r0
     a80:	00682e69 	rsbeq	r2, r8, r9, ror #28
     a84:	3c000003 	stccc	0, cr0, [r0], {3}
     a88:	6c697562 	cfstr64vs	mvdx7, [r9], #-392	; 0xfffffe78
     a8c:	6e692d74 	mcrvs	13, 3, r2, cr9, cr4, {3}
     a90:	0000003e 	andeq	r0, r0, lr, lsr r0
     a94:	2d617600 	stclcs	6, cr7, [r1, #-0]
     a98:	6e697270 	mcrvs	2, 3, r7, cr9, cr0, {3}
     a9c:	682e6b74 	stmdavs	lr!, {r2, r4, r5, r6, r8, r9, fp, sp, lr}
     aa0:	00000100 	andeq	r0, r0, r0, lsl #2
     aa4:	00220500 	eoreq	r0, r2, r0, lsl #10
     aa8:	87980205 	ldrhi	r0, [r8, r5, lsl #4]
     aac:	05170000 	ldreq	r0, [r7, #-0]
     ab0:	14131405 	ldrne	r1, [r3], #-1029	; 0xfffffbfb
     ab4:	0d062205 	sfmeq	f2, 4, [r6, #-20]	; 0xffffffec
     ab8:	05501205 	ldrbeq	r1, [r0, #-517]	; 0xfffffdfb
     abc:	2e7a0322 	cdpcs	3, 7, cr0, cr10, cr2, {1}
     ac0:	05330505 	ldreq	r0, [r3, #-1285]!	; 0xfffffafb
     ac4:	05052f12 	streq	r2, [r5, #-3858]	; 0xfffff0ee
     ac8:	06090565 	streq	r0, [r9], -r5, ror #10
     acc:	0612052f 	ldreq	r0, [r2], -pc, lsr #10
     ad0:	06050501 	streq	r0, [r5], -r1, lsl #10
     ad4:	4a06164b 	bmi	186408 <__bss_end__+0x17bdb0>
     ad8:	01055006 	tsteq	r5, r6
     adc:	02661306 	rsbeq	r1, r6, #402653184	; 0x18000000
     ae0:	01010008 	tsteq	r1, r8
     ae4:	0000009e 	muleq	r0, lr, r0
     ae8:	005a0003 	subseq	r0, sl, r3
     aec:	01020000 	mrseq	r0, (UNDEF: 2)
     af0:	000d0efb 	strdeq	r0, [sp], -fp
     af4:	01010101 	tsteq	r1, r1, lsl #2
     af8:	01000000 	mrseq	r0, (UNDEF: 0)
     afc:	2e010000 	cdpcs	0, 0, cr0, cr1, cr0, {0}
     b00:	62696c2f 	rsbvs	r6, r9, #12032	; 0x2f00
     b04:	552f0063 	strpl	r0, [pc, #-99]!	; aa9 <__code_start__-0x7557>
     b08:	73726573 	cmnvc	r2, #482344960	; 0x1cc00000
     b0c:	6c696d2f 	stclvs	13, cr6, [r9], #-188	; 0xffffff44
     b10:	532f7365 			; <UNDEFINED> instruction: 0x532f7365
     b14:	6372756f 	cmnvs	r2, #465567744	; 0x1bc00000
     b18:	73632f65 	cmnvc	r3, #404	; 0x194
     b1c:	6c303432 	cfldrsvs	mvf3, [r0], #-200	; 0xffffff38
     b20:	696c2f78 	stmdbvs	ip!, {r3, r4, r5, r6, r8, r9, sl, fp, sp}^
     b24:	2f697062 	svccs	0x00697062
     b28:	6c636e69 	stclvs	14, cr6, [r3], #-420	; 0xfffffe5c
     b2c:	00656475 	rsbeq	r6, r5, r5, ror r4
     b30:	74757000 	ldrbtvc	r7, [r5], #-0
     b34:	72616863 	rsbvc	r6, r1, #6488064	; 0x630000
     b38:	0100632e 	tsteq	r0, lr, lsr #6
     b3c:	70720000 	rsbsvc	r0, r2, r0
     b40:	00682e69 	rsbeq	r2, r8, r9, ror #28
     b44:	00000002 	andeq	r0, r0, r2
     b48:	05002405 	streq	r2, [r0, #-1029]	; 0xfffffbfb
     b4c:	0087f002 	addeq	pc, r7, r2
     b50:	26051400 	strcs	r1, [r5], -r0, lsl #8
     b54:	06240501 	strteq	r0, [r4], -r1, lsl #10
     b58:	26052e01 	strcs	r2, [r5], -r1, lsl #28
     b5c:	0634052e 	ldrteq	r0, [r4], -lr, lsr #10
     b60:	0601052e 	streq	r0, [r1], -lr, lsr #10
     b64:	061b0501 	ldreq	r0, [fp], -r1, lsl #10
     b68:	1305054f 	movwne	r0, #21839	; 0x554f
     b6c:	01061105 	tsteq	r6, r5, lsl #2
     b70:	05670105 	strbeq	r0, [r7, #-261]!	; 0xfffffefb
     b74:	05670623 	strbeq	r0, [r7, #-1571]!	; 0xfffff9dd
     b78:	11051305 	tstne	r5, r5, lsl #6
     b7c:	01050106 	tsteq	r5, r6, lsl #2
     b80:	0004024b 	andeq	r0, r4, fp, asr #4
     b84:	00a00101 	adceq	r0, r0, r1, lsl #2
     b88:	00030000 	andeq	r0, r3, r0
     b8c:	00000057 	andeq	r0, r0, r7, asr r0
     b90:	0efb0102 	cdpeq	1, 15, cr0, cr11, cr2, {0}
     b94:	0101000d 	tsteq	r1, sp
     b98:	00000101 	andeq	r0, r0, r1, lsl #2
     b9c:	00000100 	andeq	r0, r0, r0, lsl #2
     ba0:	6c2f2e01 	stcvs	14, cr2, [pc], #-4	; ba4 <__code_start__-0x745c>
     ba4:	00636269 	rsbeq	r6, r3, r9, ror #4
     ba8:	6573552f 	ldrbvs	r5, [r3, #-1327]!	; 0xfffffad1
     bac:	6d2f7372 	stcvs	3, cr7, [pc, #-456]!	; 9ec <__code_start__-0x7614>
     bb0:	73656c69 	cmnvc	r5, #26880	; 0x6900
     bb4:	756f532f 	strbvc	r5, [pc, #-815]!	; 88d <__code_start__-0x7773>
     bb8:	2f656372 	svccs	0x00656372
     bbc:	34327363 	ldrtcc	r7, [r2], #-867	; 0xfffffc9d
     bc0:	2f786c30 	svccs	0x00786c30
     bc4:	7062696c 	rsbvc	r6, r2, ip, ror #18
     bc8:	6e692f69 	cdpvs	15, 6, cr2, cr9, cr9, {3}
     bcc:	64756c63 	ldrbtvs	r6, [r5], #-3171	; 0xfffff39d
     bd0:	70000065 	andvc	r0, r0, r5, rrx
     bd4:	2e6b7475 	mcrcs	4, 3, r7, cr11, cr5, {3}
     bd8:	00010063 	andeq	r0, r1, r3, rrx
     bdc:	69707200 	ldmdbvs	r0!, {r9, ip, sp, lr}^
     be0:	0200682e 	andeq	r6, r0, #3014656	; 0x2e0000
     be4:	05000000 	streq	r0, [r0, #-0]
     be8:	02050022 	andeq	r0, r5, #34, 0	; 0x22
     bec:	0000882c 	andeq	r8, r0, ip, lsr #16
     bf0:	13050515 	movwne	r0, #21781	; 0x5515
     bf4:	11062205 	tstne	r6, r5, lsl #4
     bf8:	060b052e 	streq	r0, [fp], -lr, lsr #10
     bfc:	0605052f 	streq	r0, [r5], -pc, lsr #10
     c00:	0009052e 	andeq	r0, r9, lr, lsr #10
     c04:	06020402 	streq	r0, [r2], -r2, lsl #8
     c08:	000f0567 	andeq	r0, pc, r7, ror #10
     c0c:	49020402 	stmdbmi	r2, {r1, sl}
     c10:	02000b05 	andeq	r0, r0, #5120	; 0x1400
     c14:	05010204 	streq	r0, [r1, #-516]	; 0xfffffdfc
     c18:	04020005 	streq	r0, [r2], #-5
     c1c:	062e0602 	strteq	r0, [lr], -r2, lsl #12
     c20:	0601054e 	streq	r0, [r1], -lr, asr #10
     c24:	00060213 	andeq	r0, r6, r3, lsl r2
     c28:	08fa0101 	ldmeq	sl!, {r0, r8}^
     c2c:	00030000 	andeq	r0, r3, r0
     c30:	000000f1 	strdeq	r0, [r0], -r1
     c34:	0efb0102 	cdpeq	1, 15, cr0, cr11, cr2, {0}
     c38:	0101000d 	tsteq	r1, sp
     c3c:	00000101 	andeq	r0, r0, r1, lsl #2
     c40:	00000100 	andeq	r0, r0, r0, lsl #2
     c44:	6c2f2e01 	stcvs	14, cr2, [pc], #-4	; c48 <__code_start__-0x73b8>
     c48:	00636269 	rsbeq	r6, r3, r9, ror #4
     c4c:	74706f2f 	ldrbtvc	r6, [r0], #-3887	; 0xfffff0d1
     c50:	6d6f682f 	stclvs	8, cr6, [pc, #-188]!	; b9c <__code_start__-0x7464>
     c54:	65726265 	ldrbvs	r6, [r2, #-613]!	; 0xfffffd9b
     c58:	65432f77 	strbvs	r2, [r3, #-3959]	; 0xfffff089
     c5c:	72616c6c 	rsbvc	r6, r1, #108, 24	; 0x6c00
     c60:	6d72612f 	ldfvse	f6, [r2, #-188]!	; 0xffffff44
     c64:	6e6f6e2d 	cdpvs	14, 6, cr6, cr15, cr13, {1}
     c68:	61652d65 	cmnvs	r5, r5, ror #26
     c6c:	392d6962 	pushcc	{r1, r5, r6, r8, fp, sp, lr}
     c70:	322d392f 	eorcc	r3, sp, #770048	; 0xbc000
     c74:	71393130 	teqvc	r9, r0, lsr r1
     c78:	73632d34 	cmnvc	r3, #52, 26	; 0xd00
     c7c:	65373031 	ldrvs	r3, [r7, #-49]!	; 0xffffffcf
     c80:	62696c2f 	rsbvs	r6, r9, #12032	; 0x2f00
     c84:	6363672f 	cmnvs	r3, #12320768	; 0xbc0000
     c88:	6d72612f 	ldfvse	f6, [r2, #-188]!	; 0xffffff44
     c8c:	6e6f6e2d 	cdpvs	14, 6, cr6, cr15, cr13, {1}
     c90:	61652d65 	cmnvs	r5, r5, ror #26
     c94:	392f6962 	stmdbcc	pc!, {r1, r5, r6, r8, fp, sp, lr}	; <UNPREDICTABLE>
     c98:	312e322e 			; <UNDEFINED> instruction: 0x312e322e
     c9c:	636e692f 	cmnvs	lr, #770048	; 0xbc000
     ca0:	6564756c 	strbvs	r7, [r4, #-1388]!	; 0xfffffa94
     ca4:	73552f00 	cmpvc	r5, #0, 30
     ca8:	2f737265 	svccs	0x00737265
     cac:	656c696d 	strbvs	r6, [ip, #-2413]!	; 0xfffff693
     cb0:	6f532f73 	svcvs	0x00532f73
     cb4:	65637275 	strbvs	r7, [r3, #-629]!	; 0xfffffd8b
     cb8:	3273632f 	rsbscc	r6, r3, #-1140850688	; 0xbc000000
     cbc:	786c3034 	stmdavc	ip!, {r2, r4, r5, ip, sp}^
     cc0:	62696c2f 	rsbvs	r6, r9, #12032	; 0x2f00
     cc4:	692f6970 	stmdbvs	pc!, {r4, r5, r6, r8, fp, sp, lr}	; <UNPREDICTABLE>
     cc8:	756c636e 	strbvc	r6, [ip, #-878]!	; 0xfffffc92
     ccc:	00006564 	andeq	r6, r0, r4, ror #10
     cd0:	702d6176 	eorvc	r6, sp, r6, ror r1
     cd4:	746e6972 	strbtvc	r6, [lr], #-2418	; 0xfffff68e
     cd8:	00632e6b 	rsbeq	r2, r3, fp, ror #28
     cdc:	73000001 	movwvc	r0, #1
     ce0:	6e696474 	mcrvs	4, 3, r6, cr9, cr4, {3}
     ce4:	63672d74 	cmnvs	r7, #116, 26	; 0x1d00
     ce8:	00682e63 	rsbeq	r2, r8, r3, ror #28
     cec:	72000002 	andvc	r0, r0, #2, 0
     cf0:	682e6970 	stmdavs	lr!, {r4, r5, r6, r8, fp, sp, lr}
     cf4:	00000300 	andeq	r0, r0, r0, lsl #6
     cf8:	2d697072 	stclcs	0, cr7, [r9, #-456]!	; 0xfffffe38
     cfc:	65746e69 	ldrbvs	r6, [r4, #-3689]!	; 0xfffff197
     d00:	6c616e72 	stclvs	14, cr6, [r1], #-456	; 0xfffffe38
     d04:	0300682e 	movweq	r6, #2094	; 0x82e
     d08:	74730000 	ldrbtvc	r0, [r3], #-0
     d0c:	67726164 	ldrbvs	r6, [r2, -r4, ror #2]!
     d10:	0200682e 	andeq	r6, r0, #3014656	; 0x2e0000
     d14:	623c0000 	eorsvs	r0, ip, #0, 0
     d18:	746c6975 	strbtvc	r6, [ip], #-2421	; 0xfffff68b
     d1c:	3e6e692d 	vmulcc.f16	s13, s28, s27	; <UNPREDICTABLE>
     d20:	00000000 	andeq	r0, r0, r0
     d24:	00010500 	andeq	r0, r1, r0, lsl #10
     d28:	88640205 	stmdahi	r4!, {r0, r2, r9}^
     d2c:	c8030000 	stmdagt	r3, {}	; <UNPREDICTABLE>
     d30:	02050100 	andeq	r0, r5, #0
     d34:	06010514 			; <UNDEFINED> instruction: 0x06010514
     d38:	30040510 	andcc	r0, r4, r0, lsl r5
     d3c:	4a2c0105 	bmi	b01158 <__bss_end__+0xaf6b00>
     d40:	05300405 	ldreq	r0, [r0, #-1029]!	; 0xfffffbfb
     d44:	13310602 	teqne	r1, #2097152	; 0x200000
     d48:	2e060b05 	vmlacs.f64	d0, d6, d5
     d4c:	30060205 	andcc	r0, r6, r5, lsl #4
     d50:	02060905 	andeq	r0, r6, #81920	; 0x14000
     d54:	2e2e0d24 	cdpcs	13, 2, cr0, cr14, cr4, {1}
     d58:	03060d05 	movweq	r0, #27909	; 0x6d05
     d5c:	11054a17 	tstne	r5, r7, lsl sl
     d60:	062d0513 			; <UNDEFINED> instruction: 0x062d0513
     d64:	2e160501 	cfmul32cs	mvfx0, mvfx6, mvfx1
     d68:	052f0d05 	streq	r0, [pc, #-3333]!	; 6b <__code_start__-0x7f95>
     d6c:	14052d16 	strne	r2, [r5], #-3350	; 0xfffff2ea
     d70:	17052f06 	strne	r2, [r5, -r6, lsl #30]
     d74:	0d050106 	stfeqs	f0, [r5, #-24]	; 0xffffffe8
     d78:	052f062e 	streq	r0, [pc, #-1582]!	; 752 <__code_start__-0x78ae>
     d7c:	2e010612 	mcrcs	6, 0, r0, cr1, cr2, {0}
     d80:	0d052d2f 	stceq	13, cr2, [r5, #-188]	; 0xffffff44
     d84:	12052f06 	andne	r2, r5, #6, 30
     d88:	19050106 	stmdbne	r5, {r1, r2, r8}
     d8c:	04052f06 	streq	r2, [r5], #-3846	; 0xfffff0fa
     d90:	01011103 	tsteq	r1, r3, lsl #2
     d94:	05150205 	ldreq	r0, [r5, #-517]	; 0xfffffdfb
     d98:	7fb2030e 	svcvc	0x00b2030e
     d9c:	13020501 	movwne	r0, #9473	; 0x2501
     da0:	01060605 	tsteq	r6, r5, lsl #12
     da4:	30060205 	andcc	r0, r6, r5, lsl #4
     da8:	05010805 	streq	r0, [r1, #-2053]	; 0xfffff7fb
     dac:	4a010602 	bmi	425bc <__bss_end__+0x37f64>
     db0:	91080805 	tstls	r8, r5, lsl #16
     db4:	4a060305 	bmi	1819d0 <__bss_end__+0x177378>
     db8:	01060805 	tsteq	r6, r5, lsl #16
     dbc:	2d061505 	cfstr32cs	mvfx1, [r6, #-20]	; 0xffffffec
     dc0:	05010805 	streq	r0, [r1, #-2053]	; 0xfffff7fb
     dc4:	0805d703 	stmdaeq	r5, {r0, r1, r8, r9, sl, ip, lr, pc}
     dc8:	18050106 	stmdane	r5, {r1, r2, r8}
     dcc:	2e02052d 	cfsh32cs	mvfx0, mvfx2, #29
     dd0:	052f0805 	streq	r0, [pc, #-2053]!	; 5d3 <__code_start__-0x7a2d>
     dd4:	052d0615 	streq	r0, [sp, #-1557]!	; 0xfffff9eb
     dd8:	02050108 	andeq	r0, r5, #2
     ddc:	03050106 	movweq	r0, #20742	; 0x5106
     de0:	18052f06 	stmdane	r5, {r1, r2, r8, r9, sl, fp, sp}
     de4:	02051106 	andeq	r1, r5, #-2147483647	; 0x80000001
     de8:	2f08052e 	svccs	0x0008052e
     dec:	2d061505 	cfstr32cs	mvfx1, [r6, #-20]	; 0xffffffec
     df0:	05010805 	streq	r0, [r1, #-2053]	; 0xfffff7fb
     df4:	08051303 	stmdaeq	r5, {r0, r1, r8, r9, ip}
     df8:	15050106 	strne	r0, [r5, #-262]	; 0xfffffefa
     dfc:	08052d06 	stmdaeq	r5, {r1, r2, r8, sl, fp, sp}
     e00:	05010601 	streq	r0, [r1, #-1537]	; 0xfffff9ff
     e04:	05a00602 	streq	r0, [r0, #1538]!	; 0x602
     e08:	05010605 	streq	r0, [r1, #-1541]	; 0xfffff9fb
     e0c:	11053604 	tstne	r5, r4, lsl #12
     e10:	2e09052f 	cfsh32cs	mvfx0, mvfx9, #31
     e14:	05330205 	ldreq	r0, [r3, #-517]!	; 0xfffffdfb
     e18:	2e720305 	cdpcs	3, 7, cr0, cr2, cr5, {0}
     e1c:	2f060205 	svccs	0x00060205
     e20:	0e050106 	adfeqs	f0, f5, f6
     e24:	02051606 	andeq	r1, r5, #6291456	; 0x600000
     e28:	03051314 	movweq	r1, #21268	; 0x5314
     e2c:	14020513 	strne	r0, [r2], #-1299	; 0xfffffaed
     e30:	010b0515 	tsteq	fp, r5, lsl r5
     e34:	01060205 	tsteq	r6, r5, lsl #4
     e38:	0603052e 	streq	r0, [r3], -lr, lsr #10
     e3c:	060a0567 	streq	r0, [sl], -r7, ror #10
     e40:	2d020501 	cfstr32cs	mvfx0, [r2, #-4]
     e44:	052f0a05 	streq	r0, [pc, #-2565]!	; 447 <__code_start__-0x7bb9>
     e48:	052d0617 	streq	r0, [sp, #-1559]!	; 0xfffff9e9
     e4c:	0205010b 	andeq	r0, r5, #-1073741822	; 0xc0000002
     e50:	09050106 	stmdbeq	r5, {r1, r2, r8}
     e54:	02052e4c 	andeq	r2, r5, #76, 28	; 0x4c0
     e58:	09052e06 	stmdbeq	r5, {r1, r2, r9, sl, fp, sp}
     e5c:	02050106 	andeq	r0, r5, #-2147483647	; 0x80000001
     e60:	01063006 	tsteq	r6, r6
     e64:	38030105 	stmdacc	r3, {r0, r2, r8}
     e68:	03090501 	movweq	r0, #38145	; 0x9501
     e6c:	2e2e4a4f 	vnmulcs.f32	s8, s28, s30
     e70:	03061905 	movweq	r1, #26885	; 0x6905
     e74:	1a054a27 	bne	153718 <__bss_end__+0x1490c0>
     e78:	06280513 			; <UNDEFINED> instruction: 0x06280513
     e7c:	2e1f0501 	cfmul32cs	mvfx0, mvfx15, mvfx1
     e80:	052f0405 	streq	r0, [pc, #-1029]!	; a83 <__code_start__-0x757d>
     e84:	0b052d1f 	bleq	14c308 <__bss_end__+0x141cb0>
     e88:	0e052f06 	cdpeq	15, 0, cr2, cr5, cr6, {0}
     e8c:	04050106 	streq	r0, [r5], #-262	; 0xfffffefa
     e90:	0602052e 	streq	r0, [r2], -lr, lsr #10
     e94:	134a5903 	movtne	r5, #43267	; 0xa903
     e98:	2e060b05 	vmlacs.f64	d0, d6, d5
     e9c:	30060205 	andcc	r0, r6, r5, lsl #4
     ea0:	02060905 	andeq	r0, r6, #81920	; 0x14000
     ea4:	04050d24 	streq	r0, [r5], #-3364	; 0xfffff2dc
     ea8:	05133606 	ldreq	r3, [r3, #-1542]	; 0xfffff9fa
     eac:	05010606 	streq	r0, [r1, #-1542]	; 0xfffff9fa
     eb0:	13670605 	cmnne	r7, #5242880	; 0x500000
     eb4:	06090513 			; <UNDEFINED> instruction: 0x06090513
     eb8:	2b0d0511 	blcs	342304 <__bss_end__+0x337cac>
     ebc:	05300b05 	ldreq	r0, [r0, #-2821]!	; 0xfffff4fb
     ec0:	1b052c0d 	blne	14befc <__bss_end__+0x1418a4>
     ec4:	06040535 			; <UNDEFINED> instruction: 0x06040535
     ec8:	1305052d 	movwne	r0, #21805	; 0x552d
     ecc:	2e061b05 	vmlacs.f64	d1, d6, d5
     ed0:	05820a05 	streq	r0, [r2, #2565]	; 0xa05
     ed4:	0e052f04 	cdpeq	15, 0, cr2, cr5, cr4, {0}
     ed8:	490a052e 	stmdbmi	sl, {r1, r2, r3, r5, r8, sl}
     edc:	2f060b05 	svccs	0x00060b05
     ee0:	01060405 	tsteq	r6, r5, lsl #8
     ee4:	06052f06 	streq	r2, [r5], -r6, lsl #30
     ee8:	05050106 	streq	r0, [r5, #-262]	; 0xfffffefa
     eec:	0a052f06 	beq	14cb0c <__bss_end__+0x1424b4>
     ef0:	052e0106 	streq	r0, [lr, #-262]!	; 0xfffffefa
     ef4:	2e2e2e07 	cdpcs	14, 2, cr2, cr14, cr7, {0}
     ef8:	03060405 	movweq	r0, #25605	; 0x6405
     efc:	0205010d 	andeq	r0, r5, #1073741827	; 0x40000003
     f00:	01460306 	cmpeq	r6, r6, lsl #6
     f04:	3a030905 	bcc	c3320 <__bss_end__+0xb8cc8>
     f08:	0604052e 	streq	r0, [r4], -lr, lsr #10
     f0c:	010d032f 	tsteq	sp, pc, lsr #6
     f10:	15020501 	strne	r0, [r2, #-1281]	; 0xfffffaff
     f14:	b2030e05 	andlt	r0, r3, #80	; 0x50
     f18:	0205017f 	andeq	r0, r5, #-1073741793	; 0xc000001f
     f1c:	08051413 	stmdaeq	r5, {r0, r1, r4, sl, ip}
     f20:	06060501 	streq	r0, [r6], -r1, lsl #10
     f24:	2e3c0310 	mrccs	3, 1, r0, cr12, cr0, {0}
     f28:	46030205 	strmi	r0, [r3], -r5, lsl #4
     f2c:	0530064a 	ldreq	r0, [r0, #-1610]!	; 0xfffff9b6
     f30:	2e010605 	cfmadd32cs	mvax0, mvfx0, mvfx1, mvfx5
     f34:	0602052e 	streq	r0, [r2], -lr, lsr #10
     f38:	0501064b 	streq	r0, [r1, #-1611]	; 0xfffff9b5
     f3c:	0516060e 	ldreq	r0, [r6, #-1550]	; 0xfffff9f2
     f40:	15131402 	ldrne	r1, [r3, #-1026]	; 0xfffffbfe
     f44:	010b0515 	tsteq	fp, r5, lsl r5
     f48:	2e060205 	cdpcs	2, 0, cr0, cr6, cr5, {0}
     f4c:	09053006 	stmdbeq	r5, {r1, r2, ip, sp}
     f50:	02050106 	andeq	r0, r5, #-2147483647	; 0x80000001
     f54:	01064c06 	tsteq	r6, r6, lsl #24
     f58:	38030105 	stmdacc	r3, {r0, r2, r8}
     f5c:	03060501 	movweq	r0, #25857	; 0x6501
     f60:	02054a6e 	andeq	r4, r5, #450560	; 0x6e000
     f64:	4a664603 	bmi	1992778 <__bss_end__+0x1988120>
     f68:	0604052e 	streq	r0, [r4], -lr, lsr #10
     f6c:	0100c803 	tsteq	r0, r3, lsl #16
     f70:	06010101 	streq	r0, [r1], -r1, lsl #2
     f74:	4a06822e 	bmi	1a1834 <__bss_end__+0x1971dc>
     f78:	052e7203 	streq	r7, [lr, #-515]!	; 0xfffffdfd
     f7c:	05010609 	streq	r0, [r1, #-1545]	; 0xfffff9f7
     f80:	032f0604 			; <UNDEFINED> instruction: 0x032f0604
     f84:	0501010d 	streq	r0, [r1, #-269]	; 0xfffffef3
     f88:	0e051502 	cfsh32eq	mvfx1, mvfx5, #2
     f8c:	017fb203 	cmneq	pc, r3, lsl #4
     f90:	14130205 	ldrne	r0, [r3], #-517	; 0xfffffdfb
     f94:	05010805 	streq	r0, [r1, #-2053]	; 0xfffff7fb
     f98:	1b030609 	blne	c27c4 <__bss_end__+0xb816c>
     f9c:	03060501 	movweq	r0, #25857	; 0x6501
     fa0:	3c032e63 	stccc	14, cr2, [r3], {99}	; 0x63
     fa4:	052e2e2e 	streq	r2, [lr, #-3630]!	; 0xfffff1d2
     fa8:	b4030648 	strlt	r0, [r3], #-1608	; 0xfffff9b8
     fac:	053c087f 	ldreq	r0, [ip, #-2175]!	; 0xfffff781
     fb0:	06011305 	streq	r1, [r1], -r5, lsl #6
     fb4:	0402002e 	streq	r0, [r2], #-46	; 0xffffffd2
     fb8:	002e0602 	eoreq	r0, lr, r2, lsl #12
     fbc:	01020402 	tsteq	r2, r2, lsl #8
     fc0:	02040200 	andeq	r0, r4, #0, 4
     fc4:	00110513 	andseq	r0, r1, r3, lsl r5
     fc8:	06020402 	streq	r0, [r2], -r2, lsl #8
     fcc:	00070501 	andeq	r0, r7, r1, lsl #10
     fd0:	2f020402 	svccs	0x00020402
     fd4:	02001105 	andeq	r1, r0, #1073741825	; 0x40000001
     fd8:	052d0204 	streq	r0, [sp, #-516]!	; 0xfffffdfc
     fdc:	04020005 	streq	r0, [r2], #-5
     fe0:	052f0602 	streq	r0, [pc, #-1538]!	; 9e6 <__code_start__-0x761a>
     fe4:	04020009 	streq	r0, [r2], #-9
     fe8:	0e051302 	cdpeq	3, 0, cr1, cr5, cr2, {0}
     fec:	02040200 	andeq	r0, r4, #0, 4
     ff0:	05050106 	streq	r0, [r5, #-262]	; 0xfffffefa
     ff4:	01040200 	mrseq	r0, R12_usr
     ff8:	02006306 	andeq	r6, r0, #402653184	; 0x18000000
     ffc:	05010104 	streq	r0, [r1, #-260]	; 0xfffffefc
    1000:	04020048 	streq	r0, [r2], #-72	; 0xffffffb8
    1004:	05110601 	ldreq	r0, [r1, #-1537]	; 0xfffff9ff
    1008:	04020005 	streq	r0, [r2], #-5
    100c:	48052f01 	stmdami	r5, {r0, r8, r9, sl, fp, sp}
    1010:	01040200 	mrseq	r0, R12_usr
    1014:	0005052d 	andeq	r0, r5, sp, lsr #10
    1018:	2f010402 	svccs	0x00010402
    101c:	01040200 	mrseq	r0, R12_usr
    1020:	0402004a 	streq	r0, [r2], #-74	; 0xffffffb6
    1024:	02004a01 	andeq	r4, r0, #4096	; 0x1000
    1028:	4a060104 	bmi	181440 <__bss_end__+0x176de8>
    102c:	e1034005 	tst	r3, r5
    1030:	0106d600 	tsteq	r6, r0, lsl #12
    1034:	2e4e0905 	vmlacs.f16	s1, s28, s10	; <UNPREDICTABLE>
    1038:	05300805 	ldreq	r0, [r0, #-2053]!	; 0xfffff7fb
    103c:	1205291e 	andne	r2, r5, #491520	; 0x78000
    1040:	330d052e 	movwcc	r0, #54574	; 0xd52e
    1044:	45060205 	strmi	r0, [r6, #-517]	; 0xfffffdfb
    1048:	05130505 	ldreq	r0, [r3, #-1285]	; 0xfffffafb
    104c:	05051402 	streq	r1, [r5, #-1026]	; 0xfffffbfe
    1050:	13020513 	movwne	r0, #9491	; 0x2513
    1054:	05010805 	streq	r0, [r1, #-2053]	; 0xfffff7fb
    1058:	7a030640 	bvc	c2960 <__bss_end__+0xb8308>
    105c:	0d052e01 	stceq	14, cr2, [r5, #-4]
    1060:	11056634 	tstne	r5, r4, lsr r6
    1064:	4a4a2003 	bmi	1289078 <__bss_end__+0x127ea20>
    1068:	03060405 	movweq	r0, #25605	; 0x6405
    106c:	09050162 	stmdbeq	r5, {r1, r5, r6, r8}
    1070:	0f050106 	svceq	0x00050106
    1074:	0608052e 	streq	r0, [r8], -lr, lsr #10
    1078:	060d052c 	streq	r0, [sp], -ip, lsr #10
    107c:	0603052e 	streq	r0, [r3], -lr, lsr #10
    1080:	06050567 	streq	r0, [r5], -r7, ror #10
    1084:	06080501 	streq	r0, [r8], -r1, lsl #10
    1088:	060e054d 	streq	r0, [lr], -sp, asr #10
    108c:	2e0a0501 	cfsh32cs	mvfx0, mvfx10, #1
    1090:	052f0905 	streq	r0, [pc, #-2309]!	; 793 <__code_start__-0x786d>
    1094:	052f0604 	streq	r0, [pc, #-1540]!	; a98 <__code_start__-0x7568>
    1098:	05010607 	streq	r0, [r1, #-1543]	; 0xfffff9f9
    109c:	04052c0a 	streq	r2, [r5], #-3082	; 0xfffff3f6
    10a0:	2d053206 	sfmcs	f3, 4, [r5, #-24]	; 0xffffffe8
    10a4:	7f980306 	svcvc	0x00980306
    10a8:	03090501 	movweq	r0, #38145	; 0x9501
    10ac:	052e00ed 	streq	r0, [lr, #-237]!	; 0xffffff13
    10b0:	07052c0d 	streq	r2, [r5, -sp, lsl #24]
    10b4:	0604052b 	streq	r0, [r4], -fp, lsr #10
    10b8:	05141330 	ldreq	r1, [r4, #-816]	; 0xfffffcd0
    10bc:	0c050109 	stfeqs	f0, [r5], {9}
    10c0:	017f9303 	cmneq	pc, r3, lsl #6
    10c4:	06011d05 	streq	r1, [r1], -r5, lsl #26
    10c8:	03090501 	movweq	r0, #38145	; 0x9501
    10cc:	050100ed 	streq	r0, [r1, #-237]	; 0xffffff13
    10d0:	052f0605 	streq	r0, [pc, #-1541]!	; ad3 <__code_start__-0x752d>
    10d4:	2e010612 	mcrcs	6, 0, r0, cr1, cr2, {0}
    10d8:	2f0b052d 	svccs	0x000b052d
    10dc:	2f060505 	svccs	0x00060505
    10e0:	05100905 	ldreq	r0, [r0, #-2309]	; 0xfffff6fb
    10e4:	7f93030c 	svcvc	0x0093030c
    10e8:	011d0501 	tsteq	sp, r1, lsl #10
    10ec:	01062d05 	tsteq	r6, r5, lsl #26
    10f0:	ed030905 	vstr.16	s0, [r3, #-10]
    10f4:	04052e00 	streq	r2, [r5], #-3584	; 0xfffff200
    10f8:	00014e06 	andeq	r4, r1, r6, lsl #28
    10fc:	4a020402 	bmi	8210c <__bss_end__+0x77ab4>
    1100:	02040200 	andeq	r0, r4, #0, 4
    1104:	04020001 	streq	r0, [r2], #-1
    1108:	02001502 	andeq	r1, r0, #8388608	; 0x800000
    110c:	02060204 	andeq	r0, r6, #4, 4	; 0x40000000
    1110:	02001236 	andeq	r1, r0, #1610612739	; 0x60000003
    1114:	052e0204 	streq	r0, [lr, #-516]!	; 0xfffffdfc
    1118:	d1030602 	tstle	r3, r2, lsl #12
    111c:	07050100 	streq	r0, [r5, -r0, lsl #2]
    1120:	052e0106 	streq	r0, [lr, #-262]!	; 0xfffffefa
    1124:	052f0602 	streq	r0, [pc, #-1538]!	; b2a <__code_start__-0x74d6>
    1128:	0501060b 	streq	r0, [r1, #-1547]	; 0xfffff9f5
    112c:	05052f01 	streq	r2, [r5, #-3841]	; 0xfffff0ff
    1130:	4a650306 	bmi	1941d50 <__bss_end__+0x19376f8>
    1134:	01060905 	tsteq	r6, r5, lsl #18
    1138:	06050566 	streq	r0, [r5], -r6, ror #10
    113c:	0304059f 	movweq	r0, #17823	; 0x459f
    1140:	07050111 	smladeq	r5, r1, r1, r0
    1144:	04050106 	streq	r0, [r5], #-262	; 0xfffffefa
    1148:	0a053106 	beq	14d568 <__bss_end__+0x142f10>
    114c:	00130501 	andseq	r0, r3, r1, lsl #10
    1150:	06010402 	streq	r0, [r1], -r2, lsl #8
    1154:	0010052e 	andseq	r0, r0, lr, lsr #10
    1158:	2e010402 	cdpcs	4, 0, cr0, cr1, cr2, {0}
    115c:	4b060505 	blmi	182578 <__bss_end__+0x177f20>
    1160:	01060a05 	tsteq	r6, r5, lsl #20
    1164:	04052d06 	streq	r2, [r5], #-3334	; 0xfffff2fa
    1168:	11050106 	tstne	r5, r6, lsl #2
    116c:	7fb60306 	svcvc	0x00b60306
    1170:	00011366 	andeq	r1, r1, r6, ror #6
    1174:	06020402 	streq	r0, [r2], -r2, lsl #8
    1178:	01ba06ba 			; <UNDEFINED> instruction: 0x01ba06ba
    117c:	061a0514 			; <UNDEFINED> instruction: 0x061a0514
    1180:	052e2e13 	streq	r2, [lr, #-3603]!	; 0xfffff1ed
    1184:	05674e11 	strbeq	r4, [r7, #-3601]!	; 0xfffff1ef
    1188:	13056814 	movwne	r6, #22548	; 0x5814
    118c:	03150582 	tsteq	r5, #545259520	; 0x20800000
    1190:	11054a78 	tstne	r5, r8, ror sl
    1194:	13134b06 	tstne	r3, #6144	; 0x1800
    1198:	05141314 	ldreq	r1, [r4, #-788]	; 0xfffffcec
    119c:	05010613 	streq	r0, [r1, #-1555]	; 0xfffff9ed
    11a0:	052f0609 	streq	r0, [pc, #-1545]!	; b9f <__code_start__-0x7461>
    11a4:	2e01060d 	cfmadd32cs	mvax0, mvfx0, mvfx1, mvfx13
    11a8:	bb09052e 	bllt	242668 <__bss_end__+0x238010>
    11ac:	059d0d05 	ldreq	r0, [sp, #3333]	; 0xd05
    11b0:	052f0609 	streq	r0, [pc, #-1545]!	; baf <__code_start__-0x7451>
    11b4:	03062f15 	movweq	r2, #28437	; 0x6f15
    11b8:	0b034a75 	bleq	d3b94 <__bss_end__+0xc953c>
    11bc:	05054a2e 	streq	r4, [r5, #-2606]	; 0xfffff5d2
    11c0:	01230306 			; <UNDEFINED> instruction: 0x01230306
    11c4:	01060905 	tsteq	r6, r5, lsl #18
    11c8:	0605052e 	streq	r0, [r5], -lr, lsr #10
    11cc:	2e6e03d7 	mcrcs	3, 3, r0, cr14, cr7, {6}
    11d0:	05010e03 	streq	r0, [r1, #-3587]	; 0xfffff1fd
    11d4:	05010609 	streq	r0, [r1, #-1545]	; 0xfffff9f7
    11d8:	10030605 	andne	r0, r3, r5, lsl #12
    11dc:	0301054a 	movweq	r0, #5450	; 0x154a
    11e0:	05017eed 	streq	r7, [r1, #-3821]	; 0xfffff113
    11e4:	13151402 	tstne	r5, #33554432	; 0x2000000
    11e8:	03040514 	movweq	r0, #17684	; 0x4514
    11ec:	0905011a 	stmdbeq	r5, {r1, r3, r4, r8}
    11f0:	02050106 	andeq	r0, r5, #-2147483647	; 0x80000001
    11f4:	052e4603 	streq	r4, [lr, #-1539]!	; 0xfffff9fd
    11f8:	2e3a0309 	cdpcs	3, 3, cr0, cr10, cr9, {0}
    11fc:	2f060405 	svccs	0x00060405
    1200:	01010d03 	tsteq	r1, r3, lsl #26
    1204:	05150205 	ldreq	r0, [r5, #-517]	; 0xfffffdfb
    1208:	7fb2030e 	svcvc	0x00b2030e
    120c:	13020501 	movwne	r0, #9473	; 0x2501
    1210:	01080514 	tsteq	r8, r4, lsl r5
    1214:	01060205 	tsteq	r6, r5, lsl #4
    1218:	059f0805 	ldreq	r0, [pc, #2053]	; 1a25 <__code_start__-0x65db>
    121c:	064a0603 	strbeq	r0, [sl], -r3, lsl #12
    1220:	2e080501 	cfsh32cs	mvfx0, mvfx8, #1
    1224:	2d061505 	cfstr32cs	mvfx1, [r6, #-20]	; 0xffffffec
    1228:	05010805 	streq	r0, [r1, #-2053]	; 0xfffff7fb
    122c:	01062f03 	tsteq	r6, r3, lsl #30
    1230:	052e0805 	streq	r0, [lr, #-2053]!	; 0xfffff7fb
    1234:	052d0615 	streq	r0, [sp, #-1557]!	; 0xfffff9eb
    1238:	03050108 	movweq	r0, #20744	; 0x5108
    123c:	0501062f 	streq	r0, [r1, #-1583]	; 0xfffff9d1
    1240:	15052e08 	strne	r2, [r5, #-3592]	; 0xfffff1f8
    1244:	08052d06 	stmdaeq	r5, {r1, r2, r8, sl, fp, sp}
    1248:	2f030501 	svccs	0x00030501
    124c:	08050106 	stmdaeq	r5, {r1, r2, r8}
    1250:	0615052e 	ldreq	r0, [r5], -lr, lsr #10
    1254:	0108052d 	tsteq	r8, sp, lsr #10
    1258:	062f0305 	strteq	r0, [pc], -r5, lsl #6
    125c:	2e080501 	cfsh32cs	mvfx0, mvfx8, #1
    1260:	2d061505 	cfstr32cs	mvfx1, [r6, #-20]	; 0xffffffec
    1264:	05010805 	streq	r0, [r1, #-2053]	; 0xfffff7fb
    1268:	01062f03 	tsteq	r6, r3, lsl #30
    126c:	052e0805 	streq	r0, [lr, #-2053]!	; 0xfffff7fb
    1270:	052d0615 	streq	r0, [sp, #-1557]!	; 0xfffff9eb
    1274:	03050108 	movweq	r0, #20744	; 0x5108
    1278:	06080513 			; <UNDEFINED> instruction: 0x06080513
    127c:	06150501 	ldreq	r0, [r5], -r1, lsl #10
    1280:	0108052d 	tsteq	r8, sp, lsr #10
    1284:	03056606 	movweq	r6, #22022	; 0x5606
    1288:	08056706 	stmdaeq	r5, {r1, r2, r8, r9, sl, sp, lr}
    128c:	18050106 	stmdane	r5, {r1, r2, r8}
    1290:	2e02052d 	cfsh32cs	mvfx0, mvfx2, #29
    1294:	052f0805 	streq	r0, [pc, #-2053]!	; a97 <__code_start__-0x7569>
    1298:	052d0615 	streq	r0, [sp, #-1557]!	; 0xfffff9eb
    129c:	02050108 	andeq	r0, r5, #2
    12a0:	03050106 	movweq	r0, #20742	; 0x5106
    12a4:	18052f06 	stmdane	r5, {r1, r2, r8, r9, sl, fp, sp}
    12a8:	02051106 	andeq	r1, r5, #-2147483647	; 0x80000001
    12ac:	2f08052e 	svccs	0x0008052e
    12b0:	2d061505 	cfstr32cs	mvfx1, [r6, #-20]	; 0xffffffec
    12b4:	05010805 	streq	r0, [r1, #-2053]	; 0xfffff7fb
    12b8:	08051303 	stmdaeq	r5, {r0, r1, r8, r9, ip}
    12bc:	15050106 	strne	r0, [r5, #-262]	; 0xfffffefa
    12c0:	08052d06 	stmdaeq	r5, {r1, r2, r8, sl, fp, sp}
    12c4:	06050501 	streq	r0, [r5], -r1, lsl #10
    12c8:	02054a14 	andeq	r4, r5, #20, 20	; 0x14000
    12cc:	0e052e06 	cdpeq	14, 0, cr2, cr5, cr6, {0}
    12d0:	04051906 	streq	r1, [r5], #-2310	; 0xfffff6fa
    12d4:	2f11052f 	svccs	0x0011052f
    12d8:	054a0905 	strbeq	r0, [sl, #-2309]	; 0xfffff6fb
    12dc:	05053302 	streq	r3, [r5, #-770]	; 0xfffffcfe
    12e0:	052e7203 	streq	r7, [lr, #-515]!	; 0xfffffdfd
    12e4:	062f0602 	strteq	r0, [pc], -r2, lsl #12
    12e8:	060e0501 	streq	r0, [lr], -r1, lsl #10
    12ec:	14020516 	strne	r0, [r2], #-1302	; 0xfffffaea
    12f0:	13030513 	movwne	r0, #13587	; 0x3513
    12f4:	15140205 	ldrne	r0, [r4, #-517]	; 0xfffffdfb
    12f8:	05010b05 	streq	r0, [r1, #-2821]	; 0xfffff4fb
    12fc:	2e010602 	cfmadd32cs	mvax0, mvfx0, mvfx1, mvfx2
    1300:	06030566 	streq	r0, [r3], -r6, ror #10
    1304:	060a052f 	streq	r0, [sl], -pc, lsr #10
    1308:	2d020501 	cfstr32cs	mvfx0, [r2, #-4]
    130c:	052f0a05 	streq	r0, [pc, #-2565]!	; 90f <__code_start__-0x76f1>
    1310:	052d0617 	streq	r0, [sp, #-1559]!	; 0xfffff9e9
    1314:	0205010b 	andeq	r0, r5, #-1073741822	; 0xc0000002
    1318:	4a4a0106 	bmi	1281738 <__bss_end__+0x12770e0>
    131c:	03060505 	movweq	r0, #25861	; 0x6505
    1320:	05010195 	streq	r0, [r1, #-405]	; 0xfffffe6b
    1324:	f8030611 			; <UNDEFINED> instruction: 0xf8030611
    1328:	1b05017e 	blne	141928 <__bss_end__+0x1372d0>
    132c:	4a018803 	bmi	63340 <__bss_end__+0x58ce8>
    1330:	03060105 	movweq	r0, #24837	; 0x6105
    1334:	052e7ef3 	streq	r7, [lr, #-3827]!	; 0xfffff10d
    1338:	13151402 	tstne	r5, #33554432	; 0x2000000
    133c:	03190514 	tsteq	r9, #20, 10	; 0x5000000
    1340:	1a050122 	bne	1417d0 <__bss_end__+0x137178>
    1344:	06280513 			; <UNDEFINED> instruction: 0x06280513
    1348:	2e1f0501 	cfmul32cs	mvfx0, mvfx15, mvfx1
    134c:	052f0405 	streq	r0, [pc, #-1029]!	; f4f <__code_start__-0x70b1>
    1350:	1f054a0e 	svcne	0x00054a0e
    1354:	060b052d 	streq	r0, [fp], -sp, lsr #10
    1358:	0604052f 	streq	r0, [r4], -pc, lsr #10
    135c:	01320601 	teqeq	r2, r1, lsl #12
    1360:	05150205 	ldreq	r0, [r5, #-517]	; 0xfffffdfb
    1364:	7fb2030e 	svcvc	0x00b2030e
    1368:	13020501 	movwne	r0, #9473	; 0x2501
    136c:	01060605 	tsteq	r6, r5, lsl #12
    1370:	30060205 	andcc	r0, r6, r5, lsl #4
    1374:	05010805 	streq	r0, [r1, #-2053]	; 0xfffff7fb
    1378:	05010602 	streq	r0, [r1, #-1538]	; 0xfffff9fe
    137c:	21080603 	tstcs	r8, r3, lsl #12
    1380:	01060805 	tsteq	r6, r5, lsl #16
    1384:	49061505 	stmdbmi	r6, {r0, r2, r8, sl, ip}
    1388:	05010805 	streq	r0, [r1, #-2053]	; 0xfffff7fb
    138c:	0805d703 	stmdaeq	r5, {r0, r1, r8, r9, sl, ip, lr, pc}
    1390:	18050106 	stmdane	r5, {r1, r2, r8}
    1394:	2e02052d 	cfsh32cs	mvfx0, mvfx2, #29
    1398:	052f0805 	streq	r0, [pc, #-2053]!	; b9b <__code_start__-0x7465>
    139c:	052d0615 	streq	r0, [sp, #-1557]!	; 0xfffff9eb
    13a0:	02050108 	andeq	r0, r5, #2
    13a4:	03050106 	movweq	r0, #20742	; 0x5106
    13a8:	18052f06 	stmdane	r5, {r1, r2, r8, r9, sl, fp, sp}
    13ac:	02051106 	andeq	r1, r5, #-2147483647	; 0x80000001
    13b0:	2f08052e 	svccs	0x0008052e
    13b4:	2d061505 	cfstr32cs	mvfx1, [r6, #-20]	; 0xffffffec
    13b8:	05010805 	streq	r0, [r1, #-2053]	; 0xfffff7fb
    13bc:	08051303 	stmdaeq	r5, {r0, r1, r8, r9, ip}
    13c0:	15050106 	strne	r0, [r5, #-262]	; 0xfffffefa
    13c4:	08052d06 	stmdaeq	r5, {r1, r2, r8, sl, fp, sp}
    13c8:	06050501 	streq	r0, [r5], -r1, lsl #10
    13cc:	06020514 			; <UNDEFINED> instruction: 0x06020514
    13d0:	06040566 	streq	r0, [r4], -r6, ror #10
    13d4:	0305051a 	movweq	r0, #21786	; 0x551a
    13d8:	02054a78 	andeq	r4, r5, #120, 20	; 0x78000
    13dc:	01062f06 	tsteq	r6, r6, lsl #30
    13e0:	16060e05 	strne	r0, [r6], -r5, lsl #28
    13e4:	13140205 	tstne	r4, #1342177280	; 0x50000000
    13e8:	01060405 	tsteq	r6, r5, lsl #8
    13ec:	2f060305 	svccs	0x00060305
    13f0:	01061105 	tsteq	r6, r5, lsl #2
    13f4:	052e0905 	streq	r0, [lr, #-2309]!	; 0xfffff6fb
    13f8:	15300602 	ldrne	r0, [r0, #-1538]!	; 0xfffff9fe
    13fc:	05010b05 	streq	r0, [r1, #-2821]	; 0xfffff4fb
    1400:	4a010602 	bmi	42c10 <__bss_end__+0x385b8>
    1404:	03052e4a 	movweq	r2, #24138	; 0x5e4a
    1408:	0a052f06 	beq	14d028 <__bss_end__+0x1429d0>
    140c:	02050106 	andeq	r0, r5, #-2147483647	; 0x80000001
    1410:	2f0a052d 	svccs	0x000a052d
    1414:	2d061705 	stccs	7, cr1, [r6, #-20]	; 0xffffffec
    1418:	05010b05 	streq	r0, [r1, #-2821]	; 0xfffff4fb
    141c:	4a010602 	bmi	42c2c <__bss_end__+0x385d4>
    1420:	0514062e 	ldreq	r0, [r4, #-1582]	; 0xfffff9d2
    1424:	05010609 	streq	r0, [r1, #-1545]	; 0xfffff9f7
    1428:	064c0602 	strbeq	r0, [ip], -r2, lsl #12
    142c:	06050501 	streq	r0, [r5], -r1, lsl #10
    1430:	01019803 	tsteq	r1, r3, lsl #16
    1434:	0607052a 	streq	r0, [r7], -sl, lsr #10
    1438:	06050501 	streq	r0, [r5], -r1, lsl #10
    143c:	0318052f 	tsteq	r8, #197132288	; 0xbc00000
    1440:	1b052e53 	blne	14cd94 <__bss_end__+0x14273c>
    1444:	1a050106 	bne	141864 <__bss_end__+0x13720c>
    1448:	06090582 	streq	r0, [r9], -r2, lsl #11
    144c:	060d054b 	streq	r0, [sp], -fp, asr #10
    1450:	09052e01 	stmdbeq	r5, {r0, r9, sl, fp, sp}
    1454:	9d0d05d7 	cfstr32ls	mvfx0, [sp, #-860]	; 0xfffffca4
    1458:	2f060905 	svccs	0x00060905
    145c:	05301505 	ldreq	r1, [r0, #-1285]!	; 0xfffffafb
    1460:	05010618 	streq	r0, [r1, #-1560]	; 0xfffff9e8
    1464:	19056617 	stmdbne	r5, {r0, r1, r2, r4, r9, sl, sp, lr}
    1468:	4917052f 	ldmdbmi	r7, {r0, r1, r2, r3, r5, r8, sl}
    146c:	2f061905 	svccs	0x00061905
    1470:	03061505 	movweq	r1, #25861	; 0x6505
    1474:	19052e6f 	stmdbne	r5, {r0, r1, r2, r3, r5, r6, r9, sl, fp, sp}
    1478:	4a130306 	bmi	4c2098 <__bss_end__+0x4b7a40>
    147c:	03061505 	movweq	r1, #25861	; 0x6505
    1480:	054a2e6d 	strbeq	r2, [sl, #-3693]	; 0xfffff193
    1484:	7fa00302 	svcvc	0x00a00302
    1488:	03066601 	movweq	r6, #26113	; 0x6601
    148c:	05050172 	streq	r0, [r5, #-370]	; 0xfffffe8e
    1490:	04050106 	streq	r0, [r5], #-262	; 0xfffffefa
    1494:	03050536 	movweq	r0, #21814	; 0x5536
    1498:	02052e78 	andeq	r2, r5, #120, 28	; 0x780
    149c:	01062f06 	tsteq	r6, r6, lsl #30
    14a0:	16060e05 	strne	r0, [r6], -r5, lsl #28
    14a4:	13140205 	tstne	r4, #1342177280	; 0x50000000
    14a8:	01060405 	tsteq	r6, r5, lsl #8
    14ac:	0602054a 	streq	r0, [r2], -sl, asr #10
    14b0:	05017803 	streq	r7, [r1, #-2051]	; 0xfffff7fd
    14b4:	4a010605 	bmi	42cd0 <__bss_end__+0x38678>
    14b8:	4b060205 	blmi	181cd4 <__bss_end__+0x17767c>
    14bc:	0e050106 	adfeqs	f0, f5, f6
    14c0:	02051606 	andeq	r1, r5, #6291456	; 0x600000
    14c4:	15151314 	ldrne	r1, [r5, #-788]	; 0xfffffcec
    14c8:	06010b05 	streq	r0, [r1], -r5, lsl #22
    14cc:	0611052e 	ldreq	r0, [r1], -lr, lsr #10
    14d0:	01019e03 	tsteq	r1, r3, lsl #28
    14d4:	01062205 	tsteq	r6, r5, lsl #4
    14d8:	052f0505 	streq	r0, [pc, #-1285]!	; fdb <__code_start__-0x7025>
    14dc:	05052d22 	streq	r2, [r5, #-3362]	; 0xfffff2de
    14e0:	11052f06 	tstne	r5, r6, lsl #30
    14e4:	8305054b 	movwhi	r0, #21835	; 0x554b
    14e8:	5c039e01 	stcpl	14, cr9, [r3], {1}
    14ec:	059e012e 	ldreq	r0, [lr, #302]	; 0x12e
    14f0:	f3030602 	vmax.u8	d0, d3, d2
    14f4:	052e2e7e 	streq	r2, [lr, #-3710]!	; 0xfffff182
    14f8:	054a2c06 	strbeq	r2, [sl, #-3078]	; 0xfffff3fa
    14fc:	00d8030d 	sbcseq	r0, r8, sp, lsl #6
    1500:	00040501 	andeq	r0, r4, r1, lsl #10
    1504:	06010402 	streq	r0, [r1], -r2, lsl #8
    1508:	004a1103 	subeq	r1, sl, r3, lsl #2
    150c:	01010402 	tsteq	r1, r2, lsl #8
    1510:	51061105 	tstpl	r6, r5, lsl #2
    1514:	15059e06 	strne	r9, [r5, #-3590]	; 0xfffff1fa
    1518:	012e1703 			; <UNDEFINED> instruction: 0x012e1703
    151c:	031105ba 	tsteq	r1, #780140544	; 0x2e800000
    1520:	02012e69 	andeq	r2, r1, #1680	; 0x690
    1524:	01010028 	tsteq	r1, r8, lsr #32
    1528:	00000087 	andeq	r0, r0, r7, lsl #1
    152c:	00640003 	rsbeq	r0, r4, r3
    1530:	01020000 	mrseq	r0, (UNDEF: 2)
    1534:	000d0efb 	strdeq	r0, [sp], -fp
    1538:	01010101 	tsteq	r1, r1, lsl #2
    153c:	01000000 	mrseq	r0, (UNDEF: 0)
    1540:	2e010000 	cdpcs	0, 0, cr0, cr1, cr0, {0}
    1544:	6174732f 	cmnvs	r4, pc, lsr #6
    1548:	732d6666 			; <UNDEFINED> instruction: 0x732d6666
    154c:	2f006372 	svccs	0x00006372
    1550:	72657355 	rsbvc	r7, r5, #1409286145	; 0x54000001
    1554:	696d2f73 	stmdbvs	sp!, {r0, r1, r4, r5, r6, r8, r9, sl, fp, sp}^
    1558:	2f73656c 	svccs	0x0073656c
    155c:	72756f53 	rsbsvc	r6, r5, #332	; 0x14c
    1560:	632f6563 			; <UNDEFINED> instruction: 0x632f6563
    1564:	30343273 	eorscc	r3, r4, r3, ror r2
    1568:	6c2f786c 	stcvs	8, cr7, [pc], #-432	; 13c0 <__code_start__-0x6c40>
    156c:	69706269 	ldmdbvs	r0!, {r0, r3, r5, r6, r9, sp, lr}^
    1570:	636e692f 	cmnvs	lr, #770048	; 0xbc000
    1574:	6564756c 	strbvs	r7, [r4, #-1388]!	; 0xfffffa94
    1578:	6c630000 	stclvs	0, cr0, [r3], #-0
    157c:	2d6e6165 	stfcse	f6, [lr, #-404]!	; 0xfffffe6c
    1580:	6f626572 	svcvs	0x00626572
    1584:	632e746f 			; <UNDEFINED> instruction: 0x632e746f
    1588:	00000100 	andeq	r0, r0, r0, lsl #2
    158c:	2e697072 	mcrcs	0, 3, r7, cr9, cr2, {3}
    1590:	00020068 	andeq	r0, r2, r8, rrx
    1594:	19050000 	stmdbne	r5, {}	; <UNPREDICTABLE>
    1598:	18020500 	stmdane	r2, {r8, sl}
    159c:	15000092 	strne	r0, [r0, #-146]	; 0xffffff6e
    15a0:	05130505 	ldreq	r0, [r3, #-1285]	; 0xfffffafb
    15a4:	052d0619 	streq	r0, [sp, #-1561]!	; 0xfffff9e7
    15a8:	67062f05 	strvs	r2, [r6, -r5, lsl #30]
    15ac:	06024b2f 	streq	r4, [r2], -pc, lsr #22
    15b0:	12010100 	andne	r0, r1, #0
    15b4:	03000001 	movweq	r0, #1
    15b8:	00005e00 	andeq	r5, r0, r0, lsl #28
    15bc:	fb010200 	blx	41dc6 <__bss_end__+0x3776e>
    15c0:	01000d0e 	tsteq	r0, lr, lsl #26
    15c4:	00010101 	andeq	r0, r1, r1, lsl #2
    15c8:	00010000 	andeq	r0, r1, r0
    15cc:	2f2e0100 	svccs	0x002e0100
    15d0:	66617473 			; <UNDEFINED> instruction: 0x66617473
    15d4:	72732d66 	rsbsvc	r2, r3, #6528	; 0x1980
    15d8:	552f0063 	strpl	r0, [pc, #-99]!	; 157d <__code_start__-0x6a83>
    15dc:	73726573 	cmnvc	r2, #482344960	; 0x1cc00000
    15e0:	6c696d2f 	stclvs	13, cr6, [r9], #-188	; 0xffffff44
    15e4:	532f7365 			; <UNDEFINED> instruction: 0x532f7365
    15e8:	6372756f 	cmnvs	r2, #465567744	; 0x1bc00000
    15ec:	73632f65 	cmnvc	r3, #404	; 0x194
    15f0:	6c303432 	cfldrsvs	mvf3, [r0], #-200	; 0xffffff38
    15f4:	696c2f78 	stmdbvs	ip!, {r3, r4, r5, r6, r8, r9, sl, fp, sp}^
    15f8:	2f697062 	svccs	0x00697062
    15fc:	6c636e69 	stclvs	14, cr6, [r3], #-420	; 0xfffffe5c
    1600:	00656475 	rsbeq	r6, r5, r5, ror r4
    1604:	74736300 	ldrbtvc	r6, [r3], #-768	; 0xfffffd00
    1608:	2e747261 	cdpcs	2, 7, cr7, cr4, cr1, {3}
    160c:	00010063 	andeq	r0, r1, r3, rrx
    1610:	69707200 	ldmdbvs	r0!, {r9, ip, sp, lr}^
    1614:	0200682e 	andeq	r6, r0, #3014656	; 0x2e0000
    1618:	05000000 	streq	r0, [r0, #-0]
    161c:	02050010 	andeq	r0, r5, #16, 0
    1620:	00009244 	andeq	r9, r0, r4, asr #4
    1624:	13050515 	movwne	r0, #21781	; 0x5515
    1628:	05130205 	ldreq	r0, [r3, #-517]	; 0xfffffdfb
    162c:	10051405 	andne	r1, r5, r5, lsl #8
    1630:	05050e06 	streq	r0, [r5, #-3590]	; 0xfffff1fa
    1634:	13300632 	teqne	r0, #52428800	; 0x3200000
    1638:	010a0514 	tsteq	sl, r4, lsl r5
    163c:	91080905 	tstls	r8, r5, lsl #18
    1640:	01061005 	tsteq	r6, r5
    1644:	059a0a05 	ldreq	r0, [sl, #2565]	; 0xa05
    1648:	0a056a10 	beq	15be90 <__bss_end__+0x151838>
    164c:	09052d06 	stmdbeq	r5, {r1, r2, r8, sl, fp, sp}
    1650:	0610052f 	ldreq	r0, [r0], -pc, lsr #10
    1654:	060a0501 	streq	r0, [sl], -r1, lsl #10
    1658:	bb09052d 	bllt	242b14 <__bss_end__+0x2384bc>
    165c:	01061005 	tsteq	r6, r5
    1660:	65060a05 	strvs	r0, [r6, #-2565]	; 0xfffff5fb
    1664:	054b0905 	strbeq	r0, [fp, #-2309]	; 0xfffff6fb
    1668:	0501060d 	streq	r0, [r1, #-1549]	; 0xfffff9f3
    166c:	10052d0a 	andne	r2, r5, sl, lsl #26
    1670:	060a052f 	streq	r0, [sl], -pc, lsr #10
    1674:	2f09052d 	svccs	0x0009052d
    1678:	01060d05 	tsteq	r6, r5, lsl #26
    167c:	052d0a05 	streq	r0, [sp, #-2565]!	; 0xfffff5fb
    1680:	0a052f10 	beq	14d2c8 <__bss_end__+0x142c70>
    1684:	09052d06 	stmdbeq	r5, {r1, r2, r8, sl, fp, sp}
    1688:	060d052f 	streq	r0, [sp], -pc, lsr #10
    168c:	2d0a0501 	cfstr32cs	mvfx0, [sl, #-4]
    1690:	052f1005 	streq	r1, [pc, #-5]!	; 1693 <__code_start__-0x696d>
    1694:	052d060a 	streq	r0, [sp, #-1546]!	; 0xfffff9f6
    1698:	0d052f09 	stceq	15, cr2, [r5, #-36]	; 0xffffffdc
    169c:	0a050106 	beq	141abc <__bss_end__+0x137464>
    16a0:	2f10052d 	svccs	0x0010052d
    16a4:	2d060a05 	vstrcs	s0, [r6, #-20]	; 0xffffffec
    16a8:	05130905 	ldreq	r0, [r3, #-2309]	; 0xfffff6fb
    16ac:	05010610 	streq	r0, [r1, #-1552]	; 0xfffff9f0
    16b0:	052d060a 	streq	r0, [sp, #-1546]!	; 0xfffff9f6
    16b4:	01321505 	teqeq	r2, r5, lsl #10
    16b8:	05144a01 	ldreq	r4, [r4, #-2561]	; 0xfffff5ff
    16bc:	0a052f02 	beq	14d2cc <__bss_end__+0x142c74>
    16c0:	2e730306 	cdpcs	3, 7, cr0, cr3, cr6, {0}
    16c4:	01000802 	tsteq	r0, r2, lsl #16
    16c8:	00007d01 	andeq	r7, r0, r1, lsl #26
    16cc:	65000300 	strvs	r0, [r0, #-768]	; 0xfffffd00
    16d0:	02000000 	andeq	r0, r0, #0, 0
    16d4:	0d0efb01 	vstreq	d15, [lr, #-4]
    16d8:	01010100 	mrseq	r0, (UNDEF: 17)
    16dc:	00000001 	andeq	r0, r0, r1
    16e0:	01000001 	tsteq	r0, r1
    16e4:	74732f2e 	ldrbtvc	r2, [r3], #-3886	; 0xfffff0d2
    16e8:	2d666661 	stclcs	6, cr6, [r6, #-388]!	; 0xfffffe7c
    16ec:	00637273 	rsbeq	r7, r3, r3, ror r2
    16f0:	6573552f 	ldrbvs	r5, [r3, #-1327]!	; 0xfffffad1
    16f4:	6d2f7372 	stcvs	3, cr7, [pc, #-456]!	; 1534 <__code_start__-0x6acc>
    16f8:	73656c69 	cmnvc	r5, #26880	; 0x6900
    16fc:	756f532f 	strbvc	r5, [pc, #-815]!	; 13d5 <__code_start__-0x6c2b>
    1700:	2f656372 	svccs	0x00656372
    1704:	34327363 	ldrtcc	r7, [r2], #-867	; 0xfffffc9d
    1708:	2f786c30 	svccs	0x00786c30
    170c:	7062696c 	rsbvc	r6, r2, ip, ror #18
    1710:	6e692f69 	cdpvs	15, 6, cr2, cr9, cr9, {3}
    1714:	64756c63 	ldrbtvs	r6, [r5], #-3171	; 0xfffff39d
    1718:	63000065 	movwvs	r0, #101	; 0x65
    171c:	6f747375 	svcvs	0x00747375
    1720:	6f6c2d6d 	svcvs	0x006c2d6d
    1724:	72656461 	rsbvc	r6, r5, #1627389952	; 0x61000000
    1728:	0100632e 	tsteq	r0, lr, lsr #6
    172c:	70720000 	rsbsvc	r0, r2, r0
    1730:	00682e69 	rsbeq	r2, r8, r9, ror #28
    1734:	00000002 	andeq	r0, r0, r2
    1738:	05001a05 	streq	r1, [r0, #-2565]	; 0xfffff5fb
    173c:	00933c02 	addseq	r3, r3, r2, lsl #24
    1740:	01051500 	tsteq	r5, r0, lsl #10
    1744:	00020214 	andeq	r0, r2, r4, lsl r2
    1748:	01140101 	tsteq	r4, r1, lsl #2
    174c:	00030000 	andeq	r0, r3, r0
    1750:	0000005e 	andeq	r0, r0, lr, asr r0
    1754:	0efb0102 	cdpeq	1, 15, cr0, cr11, cr2, {0}
    1758:	0101000d 	tsteq	r1, sp
    175c:	00000101 	andeq	r0, r0, r1, lsl #2
    1760:	00000100 	andeq	r0, r0, r0, lsl #2
    1764:	732f2e01 			; <UNDEFINED> instruction: 0x732f2e01
    1768:	66666174 			; <UNDEFINED> instruction: 0x66666174
    176c:	6372732d 	cmnvs	r2, #-1275068416	; 0xb4000000
    1770:	73552f00 	cmpvc	r5, #0, 30
    1774:	2f737265 	svccs	0x00737265
    1778:	656c696d 	strbvs	r6, [ip, #-2413]!	; 0xfffff693
    177c:	6f532f73 	svcvs	0x00532f73
    1780:	65637275 	strbvs	r7, [r3, #-629]!	; 0xfffffd8b
    1784:	3273632f 	rsbscc	r6, r3, #-1140850688	; 0xbc000000
    1788:	786c3034 	stmdavc	ip!, {r2, r4, r5, ip, sp}^
    178c:	62696c2f 	rsbvs	r6, r9, #12032	; 0x2f00
    1790:	692f6970 	stmdbvs	pc!, {r4, r5, r6, r8, fp, sp, lr}	; <UNPREDICTABLE>
    1794:	756c636e 	strbvc	r6, [ip, #-878]!	; 0xfffffc92
    1798:	00006564 	andeq	r6, r0, r4, ror #10
    179c:	6f626572 	svcvs	0x00626572
    17a0:	632e746f 			; <UNDEFINED> instruction: 0x632e746f
    17a4:	00000100 	andeq	r0, r0, r0, lsl #2
    17a8:	2e697072 	mcrcs	0, 3, r7, cr9, cr2, {3}
    17ac:	00020068 	andeq	r0, r2, r8, rrx
    17b0:	19050000 	stmdbne	r5, {}	; <UNPREDICTABLE>
    17b4:	40020500 	andmi	r0, r2, r0, lsl #10
    17b8:	03000093 	movweq	r0, #147	; 0x93
    17bc:	0505010d 	streq	r0, [r5, #-269]	; 0xfffffef3
    17c0:	05311313 	ldreq	r1, [r1, #-787]!	; 0xfffffced
    17c4:	05010613 	streq	r0, [r1, #-1555]	; 0xfffff9ed
    17c8:	1b052f01 	blne	14d3d4 <__bss_end__+0x142d7c>
    17cc:	05058506 	streq	r8, [r5, #-1286]	; 0xfffffafa
    17d0:	09051413 	stmdbeq	r5, {r0, r1, r4, sl, ip}
    17d4:	0616052f 	ldreq	r0, [r6], -pc, lsr #10
    17d8:	06050501 	streq	r0, [r5], -r1, lsl #10
    17dc:	060e052f 	streq	r0, [lr], -pc, lsr #10
    17e0:	2f050511 	svccs	0x00050511
    17e4:	052f0105 	streq	r0, [pc, #-261]!	; 16e7 <__code_start__-0x6919>
    17e8:	05300617 	ldreq	r0, [r0, #-1559]!	; 0xfffff9e9
    17ec:	6e031305 	cdpvs	3, 0, cr1, cr3, cr5, {0}
    17f0:	05131301 	ldreq	r1, [r3, #-769]	; 0xfffffcff
    17f4:	0f030617 	svceq	0x00030617
    17f8:	03050501 	movweq	r0, #21761	; 0x5501
    17fc:	31062e71 	tstcc	r6, r1, ror lr
    1800:	01061305 	tsteq	r6, r5, lsl #6
    1804:	0d030705 	stceq	7, cr0, [r3, #-20]	; 0xffffffec
    1808:	0609052e 	streq	r0, [r9], -lr, lsr #10
    180c:	0306054b 	movweq	r0, #25931	; 0x654b
    1810:	05050176 	streq	r0, [r5, #-374]	; 0xfffffe8a
    1814:	09051413 	stmdbeq	r5, {r0, r1, r4, sl, ip}
    1818:	0616052f 	ldreq	r0, [r6], -pc, lsr #10
    181c:	06050501 	streq	r0, [r5], -r1, lsl #10
    1820:	060e052f 	streq	r0, [lr], -pc, lsr #10
    1824:	2f050511 	svccs	0x00050511
    1828:	0a03062e 	beq	c30e8 <__bss_end__+0xb8a90>
    182c:	4d2f3001 	stcmi	0, cr3, [pc, #-4]!	; 1830 <__code_start__-0x67d0>
    1830:	15131313 	ldrne	r1, [r3, #-787]	; 0xfffffced
    1834:	04020067 	streq	r0, [r2], #-103	; 0xffffff99
    1838:	0d056701 	stceq	7, cr6, [r5, #-4]
    183c:	01040200 	mrseq	r0, R12_usr
    1840:	000a0501 	andeq	r0, sl, r1, lsl #10
    1844:	01010402 	tsteq	r1, r2, lsl #8
    1848:	02000505 	andeq	r0, r0, #20971520	; 0x1400000
    184c:	05010104 	streq	r0, [r1, #-260]	; 0xfffffefc
    1850:	0402000d 	streq	r0, [r2], #-13
    1854:	0a050101 	beq	141c60 <__bss_end__+0x137608>
    1858:	01040200 	mrseq	r0, R12_usr
    185c:	000a0201 	andeq	r0, sl, r1, lsl #4
    1860:	01fa0101 	mvnseq	r0, r1, lsl #2
    1864:	00030000 	andeq	r0, r3, r0
    1868:	0000005d 	andeq	r0, r0, sp, asr r0
    186c:	0efb0102 	cdpeq	1, 15, cr0, cr11, cr2, {0}
    1870:	0101000d 	tsteq	r1, sp
    1874:	00000101 	andeq	r0, r0, r1, lsl #2
    1878:	00000100 	andeq	r0, r0, r0, lsl #2
    187c:	732f2e01 			; <UNDEFINED> instruction: 0x732f2e01
    1880:	66666174 			; <UNDEFINED> instruction: 0x66666174
    1884:	6372732d 	cmnvs	r2, #-1275068416	; 0xb4000000
    1888:	73552f00 	cmpvc	r5, #0, 30
    188c:	2f737265 	svccs	0x00737265
    1890:	656c696d 	strbvs	r6, [ip, #-2413]!	; 0xfffff693
    1894:	6f532f73 	svcvs	0x00532f73
    1898:	65637275 	strbvs	r7, [r3, #-629]!	; 0xfffffd8b
    189c:	3273632f 	rsbscc	r6, r3, #-1140850688	; 0xbc000000
    18a0:	786c3034 	stmdavc	ip!, {r2, r4, r5, ip, sp}^
    18a4:	62696c2f 	rsbvs	r6, r9, #12032	; 0x2f00
    18a8:	692f6970 	stmdbvs	pc!, {r4, r5, r6, r8, fp, sp, lr}	; <UNPREDICTABLE>
    18ac:	756c636e 	strbvc	r6, [ip, #-878]!	; 0xfffffc92
    18b0:	00006564 	andeq	r6, r0, r4, ror #10
    18b4:	656d6974 	strbvs	r6, [sp, #-2420]!	; 0xfffff68c
    18b8:	00632e72 	rsbeq	r2, r3, r2, ror lr
    18bc:	72000001 	andvc	r0, r0, #1, 0
    18c0:	682e6970 	stmdavs	lr!, {r4, r5, r6, r8, fp, sp, lr}
    18c4:	00000200 	andeq	r0, r0, r0, lsl #4
    18c8:	00230500 	eoreq	r0, r3, r0, lsl #10
    18cc:	93cc0205 	bicls	r0, ip, #1342177280	; 0x50000000
    18d0:	05150000 	ldreq	r0, [r5, #-0]
    18d4:	0c051305 	stceq	3, cr1, [r5], {5}
    18d8:	1f050106 	svcne	0x00050106
    18dc:	05056a06 	streq	r6, [r5, #-2566]	; 0xfffff5fa
    18e0:	061f0515 			; <UNDEFINED> instruction: 0x061f0515
    18e4:	3105050f 	tstcc	r5, pc, lsl #10
    18e8:	0a052f06 	beq	14d508 <__bss_end__+0x142eb0>
    18ec:	05017703 	streq	r7, [r1, #-1795]	; 0xfffff8fd
    18f0:	0c051305 	stceq	3, cr1, [r5], {5}
    18f4:	05660106 	strbeq	r0, [r6, #-262]!	; 0xfffffefa
    18f8:	09030605 	stmdbeq	r3, {r0, r2, r9, sl}
    18fc:	01052f01 	tsteq	r5, r1, lsl #30
    1900:	1c051306 	stcne	3, cr1, [r5], {6}
    1904:	05056806 	streq	r6, [r5, #-2054]	; 0xfffff7fa
    1908:	030a0513 	movweq	r0, #42259	; 0xa513
    190c:	05050176 	streq	r0, [r5, #-374]	; 0xfffffe8a
    1910:	061c0515 			; <UNDEFINED> instruction: 0x061c0515
    1914:	05052e18 	streq	r2, [r5, #-3608]	; 0xfffff1e8
    1918:	062e7a03 	strteq	r7, [lr], -r3, lsl #20
    191c:	030a052f 	movweq	r0, #42287	; 0xa52f
    1920:	05050177 	streq	r0, [r5, #-375]	; 0xfffffe89
    1924:	060c0513 			; <UNDEFINED> instruction: 0x060c0513
    1928:	05056601 	streq	r6, [r5, #-1537]	; 0xfffff9ff
    192c:	01090306 	tsteq	r9, r6, lsl #6
    1930:	0501062f 	streq	r0, [r1, #-1583]	; 0xfffff9d1
    1934:	0176030c 	cmneq	r6, ip, lsl #6
    1938:	03060505 	movweq	r0, #25861	; 0x6505
    193c:	09052e0f 	stmdbeq	r5, {r0, r1, r2, r3, r9, sl, fp, sp}
    1940:	030a0513 	movweq	r0, #42259	; 0xa513
    1944:	05050174 	streq	r0, [r5, #-372]	; 0xfffffe8c
    1948:	0a052f15 	beq	14d5a4 <__bss_end__+0x142f4c>
    194c:	05017703 	streq	r7, [r1, #-1795]	; 0xfffff8fd
    1950:	0c051305 	stceq	3, cr1, [r5], {5}
    1954:	05660106 	strbeq	r0, [r6, #-262]!	; 0xfffffefa
    1958:	09030605 	stmdbeq	r3, {r0, r2, r9, sl}
    195c:	06110501 	ldreq	r0, [r1], -r1, lsl #10
    1960:	0305051a 	movweq	r0, #21786	; 0x551a
    1964:	2f062e78 	svccs	0x00062e78
    1968:	05190905 	ldreq	r0, [r9, #-2309]	; 0xfffff6fb
    196c:	0501060c 	streq	r0, [r1, #-1548]	; 0xfffff9f4
    1970:	0587061c 	streq	r0, [r7, #1564]	; 0x61c
    1974:	1c051305 	stcne	3, cr1, [r5], {5}
    1978:	05051106 	streq	r1, [r5, #-262]	; 0xfffffefa
    197c:	06054a2f 	streq	r4, [r5], -pc, lsr #20
    1980:	2e760306 	cdpcs	3, 7, cr0, cr6, cr6, {0}
    1984:	05130505 	ldreq	r0, [r3, #-1285]	; 0xfffffafb
    1988:	0176030a 	cmneq	r6, sl, lsl #6
    198c:	2f150505 	svccs	0x00150505
    1990:	77030a05 	strvc	r0, [r3, -r5, lsl #20]
    1994:	13050501 	movwne	r0, #21761	; 0x5501
    1998:	01060c05 	tsteq	r6, r5, lsl #24
    199c:	06050566 	streq	r0, [r5], -r6, ror #10
    19a0:	2f010903 	svccs	0x00010903
    19a4:	0c050106 	stfeqs	f0, [r5], {6}
    19a8:	05017603 	streq	r7, [r1, #-1539]	; 0xfffff9fd
    19ac:	0f030605 	svceq	0x00030605
    19b0:	1309052e 	movwne	r0, #38190	; 0x952e
    19b4:	74030a05 	strvc	r0, [r3], #-2565	; 0xfffff5fb
    19b8:	15050501 	strne	r0, [r5, #-1281]	; 0xfffffaff
    19bc:	030a052f 	movweq	r0, #42287	; 0xa52f
    19c0:	05050177 	streq	r0, [r5, #-375]	; 0xfffffe89
    19c4:	060c0513 			; <UNDEFINED> instruction: 0x060c0513
    19c8:	05056601 	streq	r6, [r5, #-1537]	; 0xfffff9ff
    19cc:	01090306 	tsteq	r9, r6, lsl #6
    19d0:	1a061105 	bne	185dec <__bss_end__+0x17b794>
    19d4:	78030505 	stmdavc	r3, {r0, r2, r8, sl}
    19d8:	052f062e 	streq	r0, [pc, #-1582]!	; 13b2 <__code_start__-0x6c4e>
    19dc:	0c051909 			; <UNDEFINED> instruction: 0x0c051909
    19e0:	1e050106 	adfnes	f0, f5, f6
    19e4:	05058a06 	streq	r8, [r5, #-2566]	; 0xfffff5fa
    19e8:	0e060513 	mcreq	5, 0, r0, cr6, cr3, {0}
    19ec:	05130505 	ldreq	r0, [r3, #-1285]	; 0xfffffafb
    19f0:	0514061e 	ldreq	r0, [r4, #-1566]	; 0xfffff9e2
    19f4:	05662c05 	strbeq	r2, [r6, #-3077]!	; 0xfffff3fb
    19f8:	76030606 	strvc	r0, [r3], -r6, lsl #12
    19fc:	1305052e 	movwne	r0, #21806	; 0x552e
    1a00:	76030a05 	strvc	r0, [r3], -r5, lsl #20
    1a04:	15050501 	strne	r0, [r5, #-1281]	; 0xfffffaff
    1a08:	030a052f 	movweq	r0, #42287	; 0xa52f
    1a0c:	05050177 	streq	r0, [r5, #-375]	; 0xfffffe89
    1a10:	060c0513 			; <UNDEFINED> instruction: 0x060c0513
    1a14:	05056601 	streq	r6, [r5, #-1537]	; 0xfffff9ff
    1a18:	01090306 	tsteq	r9, r6, lsl #6
    1a1c:	0501062f 	streq	r0, [r1, #-1583]	; 0xfffff9d1
    1a20:	0176030c 	cmneq	r6, ip, lsl #6
    1a24:	03060505 	movweq	r0, #25861	; 0x6505
    1a28:	09052e0f 	stmdbeq	r5, {r0, r1, r2, r3, r9, sl, fp, sp}
    1a2c:	030a0513 	movweq	r0, #42259	; 0xa513
    1a30:	05050174 	streq	r0, [r5, #-372]	; 0xfffffe8c
    1a34:	0a052f15 	beq	14d690 <__bss_end__+0x143038>
    1a38:	05017703 	streq	r7, [r1, #-1795]	; 0xfffff8fd
    1a3c:	0c051305 	stceq	3, cr1, [r5], {5}
    1a40:	05660106 	strbeq	r0, [r6, #-262]!	; 0xfffffefa
    1a44:	09030605 	stmdbeq	r3, {r0, r2, r9, sl}
    1a48:	06110501 	ldreq	r0, [r1], -r1, lsl #10
    1a4c:	0305051a 	movweq	r0, #21786	; 0x551a
    1a50:	2f062e78 	svccs	0x00062e78
    1a54:	05190905 	ldreq	r0, [r9, #-2309]	; 0xfffff6fb
    1a58:	0201060c 	andeq	r0, r1, #12, 12	; 0xc00000
    1a5c:	01010008 	tsteq	r1, r8
    1a60:	00000204 	andeq	r0, r0, r4, lsl #4
    1a64:	00c80003 	sbceq	r0, r8, r3
    1a68:	01020000 	mrseq	r0, (UNDEF: 2)
    1a6c:	000d0efb 	strdeq	r0, [sp], -fp
    1a70:	01010101 	tsteq	r1, r1, lsl #2
    1a74:	01000000 	mrseq	r0, (UNDEF: 0)
    1a78:	2f010000 	svccs	0x00010000
    1a7c:	656d6f68 	strbvs	r6, [sp, #-3944]!	; 0xfffff098
    1a80:	676e652f 	strbvs	r6, [lr, -pc, lsr #10]!
    1a84:	2f72656c 	svccs	0x0072656c
    1a88:	73616c63 	cmnvc	r1, #25344	; 0x6300
    1a8c:	73632f73 	cmnvc	r3, #460	; 0x1cc
    1a90:	65303431 	ldrvs	r3, [r0, #-1073]!	; 0xfffffbcf
    1a94:	7732322d 	ldrvc	r3, [r2, -sp, lsr #4]!
    1a98:	2f2f6e69 	svccs	0x002f6e69
    1a9c:	7062696c 	rsbvc	r6, r2, ip, ror #18
    1aa0:	6e692f69 	cdpvs	15, 6, cr2, cr9, cr9, {3}
    1aa4:	64756c63 	ldrbtvs	r6, [r5], #-3171	; 0xfffff39d
    1aa8:	752f0065 	strvc	r0, [pc, #-101]!	; 1a4b <__code_start__-0x65b5>
    1aac:	732f7273 			; <UNDEFINED> instruction: 0x732f7273
    1ab0:	65726168 	ldrbvs	r6, [r2, #-360]!	; 0xfffffe98
    1ab4:	6363672f 	cmnvs	r3, #12320768	; 0xbc0000
    1ab8:	6d72612d 	ldfvse	f6, [r2, #-180]!	; 0xffffff4c
    1abc:	6e6f6e2d 	cdpvs	14, 6, cr6, cr15, cr13, {1}
    1ac0:	61652d65 	cmnvs	r5, r5, ror #26
    1ac4:	312d6962 			; <UNDEFINED> instruction: 0x312d6962
    1ac8:	2d332e30 	ldccs	14, cr2, [r3, #-192]!	; 0xffffff40
    1acc:	31323032 	teqcc	r2, r2, lsr r0
    1ad0:	2f30312e 	svccs	0x0030312e
    1ad4:	2f62696c 	svccs	0x0062696c
    1ad8:	2f636367 	svccs	0x00636367
    1adc:	2d6d7261 	sfmcs	f7, 2, [sp, #-388]!	; 0xfffffe7c
    1ae0:	656e6f6e 	strbvs	r6, [lr, #-3950]!	; 0xfffff092
    1ae4:	6261652d 	rsbvs	r6, r1, #188743680	; 0xb400000
    1ae8:	30312f69 	eorscc	r2, r1, r9, ror #30
    1aec:	312e332e 			; <UNDEFINED> instruction: 0x312e332e
    1af0:	636e692f 	cmnvs	lr, #770048	; 0xbc000
    1af4:	6564756c 	strbvs	r7, [r4, #-1388]!	; 0xfffffa94
    1af8:	61750000 	cmnvs	r5, r0
    1afc:	632e7472 			; <UNDEFINED> instruction: 0x632e7472
    1b00:	00000000 	andeq	r0, r0, r0
    1b04:	74726175 	ldrbtvc	r6, [r2], #-373	; 0xfffffe8b
    1b08:	0100682e 	tsteq	r0, lr, lsr #16
    1b0c:	70720000 	rsbsvc	r0, r2, r0
    1b10:	00682e69 	rsbeq	r2, r8, r9, ror #28
    1b14:	67000001 	strvs	r0, [r0, -r1]
    1b18:	2e6f6970 			; <UNDEFINED> instruction: 0x2e6f6970
    1b1c:	00010068 	andeq	r0, r1, r8, rrx
    1b20:	64747300 	ldrbtvs	r7, [r4], #-768	; 0xfffffd00
    1b24:	2d746e69 	ldclcs	14, cr6, [r4, #-420]!	; 0xfffffe5c
    1b28:	2e636367 	cdpcs	3, 6, cr6, cr3, cr7, {3}
    1b2c:	00020068 	andeq	r0, r2, r8, rrx
    1b30:	39050000 	stmdbcc	r5, {}	; <UNPREDICTABLE>
    1b34:	e8020500 	stmda	r2, {r8, sl}
    1b38:	03000094 	movweq	r0, #148	; 0x94
    1b3c:	01060130 	tsteq	r6, r0, lsr r1
    1b40:	67060505 	strvs	r0, [r6, -r5, lsl #10]
    1b44:	01061105 	tsteq	r6, r5, lsl #2
    1b48:	052e0505 	streq	r0, [lr, #-1285]!	; 0xfffffafb
    1b4c:	38056701 	stmdacc	r5, {r0, r8, r9, sl, sp, lr}
    1b50:	01062906 	tsteq	r6, r6, lsl #18
    1b54:	67060505 	strvs	r0, [r6, -r5, lsl #10]
    1b58:	01061105 	tsteq	r6, r5, lsl #2
    1b5c:	052e0505 	streq	r0, [lr, #-1285]!	; 0xfffffafb
    1b60:	16056701 	strne	r6, [r5], -r1, lsl #14
    1b64:	2e150306 	cdpcs	3, 1, cr0, cr5, cr6, {0}
    1b68:	67350505 	ldrvs	r0, [r5, -r5, lsl #10]!
    1b6c:	03683568 	cmneq	r8, #104, 10	; 0x1a000000
    1b70:	6b852e0c 	blvs	fe14d3a8 <__bss_end__+0xfe142d50>
    1b74:	0c036969 			; <UNDEFINED> instruction: 0x0c036969
    1b78:	676b1366 	strbvs	r1, [fp, -r6, ror #6]!
    1b7c:	2f060105 	svccs	0x00060105
    1b80:	08061905 	stmdaeq	r6, {r0, r2, r8, fp, ip}
    1b84:	34050525 	strcc	r0, [r5], #-1317	; 0xfffffadb
    1b88:	01060d05 	tsteq	r6, r5, lsl #26
    1b8c:	054c0105 	strbeq	r0, [ip, #-261]	; 0xfffffefb
    1b90:	05670619 	strbeq	r0, [r7, #-1561]!	; 0xfffff9e7
    1b94:	0d053605 	stceq	6, cr3, [r5, #-20]	; 0xffffffec
    1b98:	28050106 	stmdacs	r5, {r1, r2, r8}
    1b9c:	3001054a 	andcc	r0, r1, sl, asr #10
    1ba0:	87061505 	strhi	r1, [r6, -r5, lsl #10]
    1ba4:	2f2f0505 	svccs	0x002f0505
    1ba8:	02000905 	andeq	r0, r0, #81920	; 0x14000
    1bac:	05130104 	ldreq	r0, [r3, #-260]	; 0xfffffefc
    1bb0:	0402000a 	streq	r0, [r2], #-10
    1bb4:	0c051101 	stfeqs	f1, [r5], {1}
    1bb8:	01040200 	mrseq	r0, R12_usr
    1bbc:	0a050106 	beq	141fdc <__bss_end__+0x137984>
    1bc0:	01040200 	mrseq	r0, R12_usr
    1bc4:	0605052e 	streq	r0, [r5], -lr, lsr #10
    1bc8:	060e054c 	streq	r0, [lr], -ip, asr #10
    1bcc:	4a090501 	bmi	242fd8 <__bss_end__+0x238980>
    1bd0:	2f060505 	svccs	0x00060505
    1bd4:	0601052f 	streq	r0, [r1], -pc, lsr #10
    1bd8:	061c0513 			; <UNDEFINED> instruction: 0x061c0513
    1bdc:	05010667 	streq	r0, [r1, #-1639]	; 0xfffff999
    1be0:	2f4b0605 	svccs	0x004b0605
    1be4:	02000905 	andeq	r0, r0, #81920	; 0x14000
    1be8:	05130104 	ldreq	r0, [r3, #-260]	; 0xfffffefc
    1bec:	0402000a 	streq	r0, [r2], #-10
    1bf0:	0c051101 	stfeqs	f1, [r5], {1}
    1bf4:	01040200 	mrseq	r0, R12_usr
    1bf8:	0a050106 	beq	142018 <__bss_end__+0x1379c0>
    1bfc:	01040200 	mrseq	r0, R12_usr
    1c00:	0605052e 	streq	r0, [r5], -lr, lsr #10
    1c04:	0105674c 	tsteq	r5, ip, asr #14
    1c08:	19052f06 	stmdbne	r5, {r1, r2, r8, r9, sl, fp, sp}
    1c0c:	1b054c06 	blne	154c2c <__bss_end__+0x14a5d4>
    1c10:	2e2a052e 	cfsh64cs	mvdx0, mvdx10, #30
    1c14:	01063105 	tsteq	r6, r5, lsl #2
    1c18:	052e4205 	streq	r4, [lr, #-517]!	; 0xfffffdfb
    1c1c:	0531061c 	ldreq	r0, [r1, #-1564]!	; 0xfffff9e4
    1c20:	09032f05 	stmdbeq	r3, {r0, r2, r8, r9, sl, fp, sp}
    1c24:	060e052e 	streq	r0, [lr], -lr, lsr #10
    1c28:	4a210501 	bmi	843034 <__bss_end__+0x8389dc>
    1c2c:	0a030105 	beq	c2048 <__bss_end__+0xb79f0>
    1c30:	061a052e 	ldreq	r0, [sl], -lr, lsr #10
    1c34:	00090568 	andeq	r0, r9, r8, ror #10
    1c38:	30010402 	andcc	r0, r1, r2, lsl #8
    1c3c:	02000a05 	andeq	r0, r0, #20480	; 0x5000
    1c40:	05110104 	ldreq	r0, [r1, #-260]	; 0xfffffefc
    1c44:	0402000c 	streq	r0, [r2], #-12
    1c48:	05010601 	streq	r0, [r1, #-1537]	; 0xfffff9ff
    1c4c:	0402000a 	streq	r0, [r2], #-10
    1c50:	19052e01 	stmdbne	r5, {r0, r9, sl, fp, sp}
    1c54:	7ee80306 	cdpvc	3, 14, cr0, cr8, cr6, {0}
    1c58:	2f050566 	svccs	0x00050566
    1c5c:	05672f2f 	strbeq	r2, [r7, #-3887]!	; 0xfffff0d1
    1c60:	022f0601 	eoreq	r0, pc, #1048576	; 0x100000
    1c64:	01010004 	tsteq	r1, r4
    1c68:	00000392 	muleq	r0, r2, r3
    1c6c:	00b70003 	adcseq	r0, r7, r3
    1c70:	01020000 	mrseq	r0, (UNDEF: 2)
    1c74:	000d0efb 	strdeq	r0, [sp], -fp
    1c78:	01010101 	tsteq	r1, r1, lsl #2
    1c7c:	01000000 	mrseq	r0, (UNDEF: 0)
    1c80:	2f010000 	svccs	0x00010000
    1c84:	656d6f68 	strbvs	r6, [sp, #-3944]!	; 0xfffff098
    1c88:	676e652f 	strbvs	r6, [lr, -pc, lsr #10]!
    1c8c:	2f72656c 	svccs	0x0072656c
    1c90:	73616c63 	cmnvc	r1, #25344	; 0x6300
    1c94:	73632f73 	cmnvc	r3, #460	; 0x1cc
    1c98:	65303431 	ldrvs	r3, [r0, #-1073]!	; 0xfffffbcf
    1c9c:	7732322d 	ldrvc	r3, [r2, -sp, lsr #4]!
    1ca0:	2f2f6e69 	svccs	0x002f6e69
    1ca4:	7062696c 	rsbvc	r6, r2, ip, ror #18
    1ca8:	6e692f69 	cdpvs	15, 6, cr2, cr9, cr9, {3}
    1cac:	64756c63 	ldrbtvs	r6, [r5], #-3171	; 0xfffff39d
    1cb0:	752f0065 	strvc	r0, [pc, #-101]!	; 1c53 <__code_start__-0x63ad>
    1cb4:	732f7273 			; <UNDEFINED> instruction: 0x732f7273
    1cb8:	65726168 	ldrbvs	r6, [r2, #-360]!	; 0xfffffe98
    1cbc:	6363672f 	cmnvs	r3, #12320768	; 0xbc0000
    1cc0:	6d72612d 	ldfvse	f6, [r2, #-180]!	; 0xffffff4c
    1cc4:	6e6f6e2d 	cdpvs	14, 6, cr6, cr15, cr13, {1}
    1cc8:	61652d65 	cmnvs	r5, r5, ror #26
    1ccc:	312d6962 			; <UNDEFINED> instruction: 0x312d6962
    1cd0:	2d332e30 	ldccs	14, cr2, [r3, #-192]!	; 0xffffff40
    1cd4:	31323032 	teqcc	r2, r2, lsr r0
    1cd8:	2f30312e 	svccs	0x0030312e
    1cdc:	2f62696c 	svccs	0x0062696c
    1ce0:	2f636367 	svccs	0x00636367
    1ce4:	2d6d7261 	sfmcs	f7, 2, [sp, #-388]!	; 0xfffffe7c
    1ce8:	656e6f6e 	strbvs	r6, [lr, #-3950]!	; 0xfffff092
    1cec:	6261652d 	rsbvs	r6, r1, #188743680	; 0xb400000
    1cf0:	30312f69 	eorscc	r2, r1, r9, ror #30
    1cf4:	312e332e 			; <UNDEFINED> instruction: 0x312e332e
    1cf8:	636e692f 	cmnvs	lr, #770048	; 0xbc000
    1cfc:	6564756c 	strbvs	r7, [r4, #-1388]!	; 0xfffffa94
    1d00:	6d6b0000 	stclvs	0, cr0, [fp, #-0]
    1d04:	6f6c6c61 	svcvs	0x006c6c61
    1d08:	00632e63 	rsbeq	r2, r3, r3, ror #28
    1d0c:	72000000 	andvc	r0, r0, #0, 0
    1d10:	682e6970 	stmdavs	lr!, {r4, r5, r6, r8, fp, sp, lr}
    1d14:	00000100 	andeq	r0, r0, r0, lsl #2
    1d18:	69647473 	stmdbvs	r4!, {r0, r1, r4, r5, r6, sl, ip, sp, lr}^
    1d1c:	672d746e 	strvs	r7, [sp, -lr, ror #8]!
    1d20:	682e6363 	stmdavs	lr!, {r0, r1, r5, r6, r8, r9, sp, lr}
    1d24:	00000200 	andeq	r0, r0, r0, lsl #4
    1d28:	001e0500 	andseq	r0, lr, r0, lsl #10
    1d2c:	96d80205 	ldrbls	r0, [r8], r5, lsl #4
    1d30:	27030000 	strcs	r0, [r3, -r0]
    1d34:	01200501 			; <UNDEFINED> instruction: 0x01200501
    1d38:	01062d05 	tsteq	r6, r5, lsl #26
    1d3c:	83062005 	movwhi	r2, #24581	; 0x6005
    1d40:	05012205 	streq	r2, [r1, #-517]	; 0xfffffdfb
    1d44:	05010635 	streq	r0, [r1, #-1589]	; 0xfffff9cb
    1d48:	0583061e 	streq	r0, [r3, #1566]	; 0x61e
    1d4c:	2d050120 	stfcss	f0, [r5, #-128]	; 0xffffff80
    1d50:	42050106 	andmi	r0, r5, #-2147483647	; 0x80000001
    1d54:	01068506 	tsteq	r6, r6, lsl #10
    1d58:	4b060505 	blmi	183174 <__bss_end__+0x178b1c>
    1d5c:	2e060114 	mcrcs	1, 0, r0, cr6, cr4, {0}
    1d60:	02040200 	andeq	r0, r4, #0, 4
    1d64:	02002e06 	andeq	r2, r0, #96	; 0x60
    1d68:	00010204 	andeq	r0, r1, r4, lsl #4
    1d6c:	15020402 	strne	r0, [r2, #-1026]	; 0xfffffbfe
    1d70:	02000d05 	andeq	r0, r0, #320	; 0x140
    1d74:	01060204 	tsteq	r6, r4, lsl #4
    1d78:	02000705 	andeq	r0, r0, #1310720	; 0x140000
    1d7c:	054a0204 	strbeq	r0, [sl, #-516]	; 0xfffffdfc
    1d80:	054b0609 	strbeq	r0, [fp, #-1545]	; 0xfffff9f7
    1d84:	17051505 	strne	r1, [r5, -r5, lsl #10]
    1d88:	10050106 	andne	r0, r5, r6, lsl #2
    1d8c:	0605054a 	streq	r0, [r5], -sl, asr #10
    1d90:	061b052f 	ldreq	r0, [fp], -pc, lsr #10
    1d94:	2e0e0501 	cfsh32cs	mvfx0, mvfx14, #1
    1d98:	052f0105 	streq	r0, [pc, #-261]!	; 1c9b <__code_start__-0x6365>
    1d9c:	04020005 	streq	r0, [r2], #-5
    1da0:	77030601 	strvc	r0, [r3, -r1, lsl #12]
    1da4:	0402004a 	streq	r0, [r2], #-74	; 0xffffffb6
    1da8:	02000101 	andeq	r0, r0, #1073741824	; 0x40000000
    1dac:	9e060104 	adflss	f0, f6, f4
    1db0:	01040200 	mrseq	r0, R12_usr
    1db4:	0402002e 	streq	r0, [r2], #-46	; 0xffffffd2
    1db8:	052e0601 	streq	r0, [lr, #-1537]!	; 0xfffff9ff
    1dbc:	06013209 	streq	r3, [r1], -r9, lsl #4
    1dc0:	2e062ed6 	mcrcs	14, 0, r2, cr6, cr6, {6}
    1dc4:	05de1905 	ldrbeq	r1, [lr, #2309]	; 0x905
    1dc8:	05142f05 	ldreq	r2, [r4, #-3845]	; 0xfffff0fb
    1dcc:	05010608 	streq	r0, [r1, #-1544]	; 0xfffff9f8
    1dd0:	09054a07 	stmdbeq	r5, {r0, r1, r2, r9, fp, lr}
    1dd4:	05054b06 	streq	r4, [r5, #-2822]	; 0xfffff4fa
    1dd8:	060c0513 			; <UNDEFINED> instruction: 0x060c0513
    1ddc:	06050501 	streq	r0, [r5], -r1, lsl #10
    1de0:	01051367 	tsteq	r5, r7, ror #6
    1de4:	09056706 	stmdbeq	r5, {r1, r2, r8, r9, sl, sp, lr}
    1de8:	9e012a06 	vmlals.f32	s4, s2, s12
    1dec:	06a52805 	strteq	r2, [r5], r5, lsl #16
    1df0:	06050501 	streq	r0, [r5], -r1, lsl #10
    1df4:	2e06014b 	adfcssm	f0, f6, #3.0
    1df8:	13012e06 	movwne	r2, #7686	; 0x1e06
    1dfc:	47031805 	strmi	r1, [r3, -r5, lsl #16]
    1e00:	13050501 	movwne	r0, #21761	; 0x5501
    1e04:	06010601 	streq	r0, [r1], -r1, lsl #12
    1e08:	1301150f 	movwne	r1, #5391	; 0x150f
    1e0c:	01060e05 	tsteq	r6, r5, lsl #28
    1e10:	2e2e1605 	cfmadda32cs	mvax0, mvax1, mvfx14, mvfx5
    1e14:	03060505 	movweq	r0, #25861	; 0x6505
    1e18:	0b050139 	bleq	142304 <__bss_end__+0x137cac>
    1e1c:	05050106 	streq	r0, [r5, #-262]	; 0xfffffefa
    1e20:	0a054b06 	beq	154a40 <__bss_end__+0x14a3e8>
    1e24:	05050106 	streq	r0, [r5, #-262]	; 0xfffffefa
    1e28:	0d054b06 	vstreq	d4, [r5, #-24]	; 0xffffffe8
    1e2c:	07050106 	streq	r0, [r5, -r6, lsl #2]
    1e30:	4d01052e 	cfstr32mi	mvfx0, [r1, #-184]	; 0xffffff48
    1e34:	02000505 	andeq	r0, r0, #20971520	; 0x1400000
    1e38:	03060104 	movweq	r0, #24836	; 0x6104
    1e3c:	02004a78 	andeq	r4, r0, #120, 20	; 0x78000
    1e40:	00010104 	andeq	r0, r1, r4, lsl #2
    1e44:	06010402 	streq	r0, [r1], -r2, lsl #8
    1e48:	040200ba 	streq	r0, [r2], #-186	; 0xffffff46
    1e4c:	052e0601 	streq	r0, [lr, #-1537]!	; 0xfffff9ff
    1e50:	06013409 	streq	r3, [r1], -r9, lsl #8
    1e54:	2e066682 	cfmadd32cs	mvax4, mvfx6, mvfx6, mvfx2
    1e58:	06db2005 	ldrbeq	r2, [fp], r5
    1e5c:	06050501 	streq	r0, [r5], -r1, lsl #10
    1e60:	0200014b 	andeq	r0, r0, #-1073741806	; 0xc0000012
    1e64:	004a0204 	subeq	r0, sl, r4, lsl #4
    1e68:	01020402 	tsteq	r2, r2, lsl #8
    1e6c:	02040200 	andeq	r0, r4, #0, 4
    1e70:	00120513 	andseq	r0, r2, r3, lsl r5
    1e74:	06020402 	streq	r0, [r2], -r2, lsl #8
    1e78:	04020001 	streq	r0, [r2], #-1
    1e7c:	02002e02 	andeq	r2, r0, #2, 28
    1e80:	052e0204 	streq	r0, [lr, #-516]!	; 0xfffffdfc
    1e84:	04020005 	streq	r0, [r2], #-5
    1e88:	002f0602 	eoreq	r0, pc, r2, lsl #12
    1e8c:	67020402 	strvs	r0, [r2, -r2, lsl #8]
    1e90:	02000105 	andeq	r0, r0, #1073741825	; 0x40000001
    1e94:	13060204 	movwne	r0, #25092	; 0x6204
    1e98:	02000505 	andeq	r0, r0, #20971520	; 0x1400000
    1e9c:	62060104 	andvs	r0, r6, #1
    1ea0:	01040200 	mrseq	r0, R12_usr
    1ea4:	04020001 	streq	r0, [r2], #-1
    1ea8:	00ba0601 	adcseq	r0, sl, r1, lsl #12
    1eac:	06010402 	streq	r0, [r1], -r2, lsl #8
    1eb0:	033c052e 	teqeq	ip, #192937984	; 0xb800000
    1eb4:	01069e0a 	tsteq	r6, sl, lsl #28
    1eb8:	4b060505 	blmi	1832d4 <__bss_end__+0x178c7c>
    1ebc:	062e0601 	strteq	r0, [lr], -r1, lsl #12
    1ec0:	0113012e 	tsteq	r3, lr, lsr #2
    1ec4:	ad031805 	stcge	8, cr1, [r3, #-20]	; 0xffffffec
    1ec8:	0505017f 	streq	r0, [r5, #-383]	; 0xfffffe81
    1ecc:	06110513 			; <UNDEFINED> instruction: 0x06110513
    1ed0:	05052e01 	streq	r2, [r5, #-3585]	; 0xfffff1ff
    1ed4:	0100d203 	tsteq	r0, r3, lsl #4
    1ed8:	05134a06 	ldreq	r4, [r3, #-2566]	; 0xfffff5fa
    1edc:	7fa30318 	svcvc	0x00a30318
    1ee0:	13050501 	movwne	r0, #21761	; 0x5501
    1ee4:	01061605 	tsteq	r6, r5, lsl #12
    1ee8:	0605054a 	streq	r0, [r5], -sl, asr #10
    1eec:	0100e103 	tsteq	r0, r3, lsl #2
    1ef0:	01061205 	tsteq	r6, r5, lsl #4
    1ef4:	4b060505 	blmi	183310 <__bss_end__+0x178cb8>
    1ef8:	a9031805 	stmdbge	r3, {r0, r2, fp, ip}
    1efc:	0505017f 	streq	r0, [r5, #-383]	; 0xfffffe81
    1f00:	18050113 	stmdane	r5, {r0, r1, r4, r8}
    1f04:	1305050e 	movwne	r0, #21774	; 0x550e
    1f08:	01061105 	tsteq	r6, r5, lsl #2
    1f0c:	1505052e 	strne	r0, [r5, #-1326]	; 0xfffffad2
    1f10:	13014a06 	movwne	r4, #6662	; 0x1a06
    1f14:	01060e05 	tsteq	r6, r5, lsl #28
    1f18:	2e16052e 	cfmul64cs	mvdx0, mvdx6, mvdx14
    1f1c:	0605052e 	streq	r0, [r5], -lr, lsr #10
    1f20:	0100d603 	tsteq	r0, r3, lsl #12
    1f24:	03180501 	tsteq	r8, #4194304	; 0x400000
    1f28:	05017f9f 	streq	r7, [r1, #-3999]	; 0xfffff061
    1f2c:	19051305 	stmdbne	r5, {r0, r2, r8, r9, ip}
    1f30:	052e0106 	streq	r0, [lr, #-262]!	; 0xfffffefa
    1f34:	00e00305 	rsceq	r0, r0, r5, lsl #6
    1f38:	04020001 	streq	r0, [r2], #-1
    1f3c:	004a0602 	subeq	r0, sl, r2, lsl #12
    1f40:	14020402 	strne	r0, [r2], #-1026	; 0xfffffbfe
    1f44:	02000a05 	andeq	r0, r0, #20480	; 0x5000
    1f48:	01060204 	tsteq	r6, r4, lsl #4
    1f4c:	02000505 	andeq	r0, r0, #20971520	; 0x1400000
    1f50:	4b060204 	blmi	182768 <__bss_end__+0x178110>
    1f54:	02000c05 	andeq	r0, r0, #1280	; 0x500
    1f58:	01060204 	tsteq	r6, r4, lsl #4
    1f5c:	02000105 	andeq	r0, r0, #1073741825	; 0x40000001
    1f60:	052f0204 	streq	r0, [pc, #-516]!	; 1d64 <__code_start__-0x629c>
    1f64:	04020005 	streq	r0, [r2], #-5
    1f68:	73030601 	movwvc	r0, #13825	; 0x3601
    1f6c:	0402004a 	streq	r0, [r2], #-74	; 0xffffffb6
    1f70:	02000101 	andeq	r0, r0, #1073741824	; 0x40000000
    1f74:	9e060104 	adflss	f0, f6, f4
    1f78:	01040200 	mrseq	r0, R12_usr
    1f7c:	0402002e 	streq	r0, [r2], #-46	; 0xffffffd2
    1f80:	002e0601 	eoreq	r0, lr, r1, lsl #12
    1f84:	2f010402 	svccs	0x00010402
    1f88:	01040200 	mrseq	r0, R12_usr
    1f8c:	0402002e 	streq	r0, [r2], #-46	; 0xffffffd2
    1f90:	b103d601 	tstlt	r3, r1, lsl #12
    1f94:	06012e7f 			; <UNDEFINED> instruction: 0x06012e7f
    1f98:	062e2e82 	strteq	r2, [lr], -r2, lsl #29
    1f9c:	002e062e 	eoreq	r0, lr, lr, lsr #12
    1fa0:	06010402 	streq	r0, [r1], -r2, lsl #8
    1fa4:	0100d703 	tsteq	r0, r3, lsl #14
    1fa8:	01040200 	mrseq	r0, R12_usr
    1fac:	0402002e 	streq	r0, [r2], #-46	; 0xffffffd2
    1fb0:	1505d601 	strne	sp, [r5, #-1537]	; 0xfffff9ff
    1fb4:	17057b08 	strne	r7, [r5, -r8, lsl #22]
    1fb8:	31160501 	tstcc	r6, r1, lsl #10
    1fbc:	05011805 	streq	r1, [r1, #-2053]	; 0xfffff7fb
    1fc0:	0501061d 	streq	r0, [r1, #-1565]	; 0xfffff9e3
    1fc4:	1905662b 	stmdbne	r5, {r0, r1, r3, r5, r9, sl, sp, lr}
    1fc8:	05054d06 	streq	r4, [r5, #-3334]	; 0xfffff2fa
    1fcc:	060c0513 			; <UNDEFINED> instruction: 0x060c0513
    1fd0:	4a070501 	bmi	1c33dc <__bss_end__+0x1b8d84>
    1fd4:	02002505 	andeq	r2, r0, #20971520	; 0x1400000
    1fd8:	054a0104 	strbeq	r0, [sl, #-260]	; 0xfffffefc
    1fdc:	0402001e 	streq	r0, [r2], #-30	; 0xffffffe2
    1fe0:	09054a01 	stmdbeq	r5, {r0, r9, fp, lr}
    1fe4:	05054b06 	streq	r4, [r5, #-2822]	; 0xfffff4fa
    1fe8:	060a0513 			; <UNDEFINED> instruction: 0x060a0513
    1fec:	63190501 	tstvs	r9, #4194304	; 0x400000
    1ff0:	4c060905 			; <UNDEFINED> instruction: 0x4c060905
    1ff4:	069e0601 	ldreq	r0, [lr], r1, lsl #12
    1ff8:	000a022e 	andeq	r0, sl, lr, lsr #4
    1ffc:	02890101 	addeq	r0, r9, #1073741824	; 0x40000000
    2000:	00030000 	andeq	r0, r3, r0
    2004:	000000c9 	andeq	r0, r0, r9, asr #1
    2008:	0efb0102 	cdpeq	1, 15, cr0, cr11, cr2, {0}
    200c:	0101000d 	tsteq	r1, sp
    2010:	00000101 	andeq	r0, r0, r1, lsl #2
    2014:	00000100 	andeq	r0, r0, r0, lsl #2
    2018:	732f2e01 			; <UNDEFINED> instruction: 0x732f2e01
    201c:	2f006372 	svccs	0x00006372
    2020:	72657355 	rsbvc	r7, r5, #1409286145	; 0x54000001
    2024:	696d2f73 	stmdbvs	sp!, {r0, r1, r4, r5, r6, r8, r9, sl, fp, sp}^
    2028:	2f73656c 	svccs	0x0073656c
    202c:	72756f53 	rsbsvc	r6, r5, #332	; 0x14c
    2030:	632f6563 			; <UNDEFINED> instruction: 0x632f6563
    2034:	30343273 	eorscc	r3, r4, r3, ror r2
    2038:	6c2f786c 	stcvs	8, cr7, [pc], #-432	; 1e90 <__code_start__-0x6170>
    203c:	69706269 	ldmdbvs	r0!, {r0, r3, r5, r6, r9, sp, lr}^
    2040:	636e692f 	cmnvs	lr, #770048	; 0xbc000
    2044:	6564756c 	strbvs	r7, [r4, #-1388]!	; 0xfffffa94
    2048:	706f2f00 	rsbvc	r2, pc, r0, lsl #30
    204c:	6f682f74 	svcvs	0x00682f74
    2050:	7262656d 	rsbvc	r6, r2, #457179136	; 0x1b400000
    2054:	432f7765 			; <UNDEFINED> instruction: 0x432f7765
    2058:	616c6c65 	cmnvs	ip, r5, ror #24
    205c:	72612f72 	rsbvc	r2, r1, #456	; 0x1c8
    2060:	6f6e2d6d 	svcvs	0x006e2d6d
    2064:	652d656e 	strvs	r6, [sp, #-1390]!	; 0xfffffa92
    2068:	2d696261 	sfmcs	f6, 2, [r9, #-388]!	; 0xfffffe7c
    206c:	2d392f39 	ldccs	15, cr2, [r9, #-228]!	; 0xffffff1c
    2070:	39313032 	ldmdbcc	r1!, {r1, r4, r5, ip, sp}
    2074:	632d3471 			; <UNDEFINED> instruction: 0x632d3471
    2078:	37303173 			; <UNDEFINED> instruction: 0x37303173
    207c:	696c2f65 	stmdbvs	ip!, {r0, r2, r5, r6, r8, r9, sl, fp, sp}^
    2080:	63672f62 	cmnvs	r7, #392	; 0x188
    2084:	72612f63 	rsbvc	r2, r1, #396	; 0x18c
    2088:	6f6e2d6d 	svcvs	0x006e2d6d
    208c:	652d656e 	strvs	r6, [sp, #-1390]!	; 0xfffffa92
    2090:	2f696261 	svccs	0x00696261
    2094:	2e322e39 	mrccs	14, 1, r2, cr2, cr9, {1}
    2098:	6e692f31 	mcrvs	15, 3, r2, cr9, cr1, {1}
    209c:	64756c63 	ldrbtvs	r6, [r5], #-3171	; 0xfffff39d
    20a0:	67000065 	strvs	r0, [r0, -r5, rrx]
    20a4:	2e6f6970 			; <UNDEFINED> instruction: 0x2e6f6970
    20a8:	00010063 	andeq	r0, r1, r3, rrx
    20ac:	69707200 	ldmdbvs	r0!, {r9, ip, sp, lr}^
    20b0:	0200682e 	andeq	r6, r0, #3014656	; 0x2e0000
    20b4:	74730000 	ldrbtvc	r0, [r3], #-0
    20b8:	746e6964 	strbtvc	r6, [lr], #-2404	; 0xfffff69c
    20bc:	6363672d 	cmnvs	r3, #11796480	; 0xb40000
    20c0:	0300682e 	movweq	r6, #2094	; 0x82e
    20c4:	70670000 	rsbvc	r0, r7, r0
    20c8:	682e6f69 	stmdavs	lr!, {r0, r3, r5, r6, r8, r9, sl, fp, sp, lr}
    20cc:	00000200 	andeq	r0, r0, r0, lsl #4
    20d0:	00380500 	eorseq	r0, r8, r0, lsl #10
    20d4:	9a880205 	bls	fe2028f0 <__bss_end__+0xfe1f8298>
    20d8:	27030000 	strcs	r0, [r3, -r0]
    20dc:	13050501 	movwne	r0, #21761	; 0x5501
    20e0:	01060705 	tsteq	r6, r5, lsl #14
    20e4:	49060605 	stmdbmi	r6, {r0, r2, r9, sl}
    20e8:	05150505 	ldreq	r0, [r5, #-1285]	; 0xfffffafb
    20ec:	05010607 	streq	r0, [r1, #-1543]	; 0xfffff9f9
    20f0:	07052b38 	smladxeq	r5, r8, fp, r2
    20f4:	0605054d 	streq	r0, [r5], -sp, asr #10
    20f8:	06180530 			; <UNDEFINED> instruction: 0x06180530
    20fc:	671c0501 	ldrvs	r0, [ip, -r1, lsl #10]
    2100:	054a0e05 	strbeq	r0, [sl, #-3589]	; 0xfffff1fb
    2104:	12052d18 	andne	r2, r5, #24, 26	; 0x600
    2108:	052f2e4d 	streq	r2, [pc, #-3661]!	; 12c3 <__code_start__-0x6d3d>
    210c:	05052a0e 	streq	r2, [r5, #-2574]	; 0xfffff5f2
    2110:	13142f06 	tstne	r4, #6, 30
    2114:	01060705 	tsteq	r6, r5, lsl #14
    2118:	2f060505 	svccs	0x00060505
    211c:	2e2e0613 	mcrcs	6, 1, r0, cr14, cr3, {0}
    2120:	05130105 	ldreq	r0, [r3, #-261]	; 0xfffffefb
    2124:	052e2d05 	streq	r2, [lr, #-3333]!	; 0xfffff2fb
    2128:	05000624 	streq	r0, [r0, #-1572]	; 0xfffff9dc
    212c:	009ae802 	addseq	lr, sl, r2, lsl #16
    2130:	05051500 	streq	r1, [r5, #-1280]	; 0xfffffb00
    2134:	03060513 	movweq	r0, #25875	; 0x6513
    2138:	05050171 	streq	r0, [r5, #-369]	; 0xfffffe8f
    213c:	06070513 			; <UNDEFINED> instruction: 0x06070513
    2140:	06060501 	streq	r0, [r6], -r1, lsl #10
    2144:	15050549 	strne	r0, [r5, #-1353]	; 0xfffffab7
    2148:	06240514 			; <UNDEFINED> instruction: 0x06240514
    214c:	05010903 	streq	r0, [r1, #-2307]	; 0xfffff6fd
    2150:	2e770318 	mrccs	3, 3, r0, cr7, cr8, {0}
    2154:	05671c05 	strbeq	r1, [r7, #-3077]!	; 0xfffff3fb
    2158:	18054a0e 	stmdane	r5, {r1, r2, r3, r9, fp, lr}
    215c:	4d12052d 	cfldr32mi	mvfx0, [r2, #-180]	; 0xffffff4c
    2160:	0f052f2e 	svceq	0x00052f2e
    2164:	290e052f 	stmdbcs	lr, {r0, r1, r2, r3, r5, r8, sl}
    2168:	2f060505 	svccs	0x00060505
    216c:	07051314 	smladeq	r5, r4, r3, r1
    2170:	05050106 	streq	r0, [r5, #-262]	; 0xfffffefa
    2174:	06132f06 	ldreq	r2, [r3], -r6, lsl #30
    2178:	3301052e 	movwcc	r0, #5422	; 0x152e
    217c:	2e290505 	cfsh64cs	mvdx0, mvdx9, #5
    2180:	00062705 	andeq	r2, r6, r5, lsl #14
    2184:	9b400205 	blls	10029a0 <__bss_end__+0xff8348>
    2188:	051a0000 	ldreq	r0, [sl, #-0]
    218c:	27051305 	strcs	r1, [r5, -r5, lsl #6]
    2190:	18051106 	stmdane	r5, {r1, r2, r8, ip}
    2194:	2e05052f 	cfsh32cs	mvfx0, mvfx5, #31
    2198:	28054a2e 	stmdacs	r5, {r1, r2, r3, r5, r9, fp, lr}
    219c:	02050006 	andeq	r0, r5, #6, 0
    21a0:	00009b58 	andeq	r9, r0, r8, asr fp
    21a4:	13050516 	movwne	r0, #21782	; 0x5516
    21a8:	11062805 	tstne	r6, r5, lsl #16
    21ac:	052f1805 	streq	r1, [pc, #-2053]!	; 19af <__code_start__-0x6651>
    21b0:	4a2e2e05 	bmi	b8d9cc <__bss_end__+0xb83374>
    21b4:	00062305 	andeq	r2, r6, r5, lsl #6
    21b8:	9b700205 	blls	1c029d4 <__bss_end__+0x1bf837c>
    21bc:	05160000 	ldreq	r0, [r6, #-0]
    21c0:	06051305 	streq	r1, [r5], -r5, lsl #6
    21c4:	05016203 	streq	r6, [r1, #-515]	; 0xfffffdfd
    21c8:	07051305 	streq	r1, [r5, -r5, lsl #6]
    21cc:	06050106 	streq	r0, [r5], -r6, lsl #2
    21d0:	05054906 	streq	r4, [r5, #-2310]	; 0xfffff6fa
    21d4:	05131415 	ldreq	r1, [r3, #-1045]	; 0xfffffbeb
    21d8:	17030623 	strne	r0, [r3, -r3, lsr #12]
    21dc:	03220501 			; <UNDEFINED> instruction: 0x03220501
    21e0:	1c052e69 	stcne	14, cr2, [r5], {105}	; 0x69
    21e4:	0e052e82 	cdpeq	14, 0, cr2, cr5, cr2, {4}
    21e8:	0605052e 	streq	r0, [r5], -lr, lsr #10
    21ec:	06120530 			; <UNDEFINED> instruction: 0x06120530
    21f0:	052d4b01 	streq	r4, [sp, #-2817]!	; 0xfffff4ff
    21f4:	132f0605 			; <UNDEFINED> instruction: 0x132f0605
    21f8:	06180513 			; <UNDEFINED> instruction: 0x06180513
    21fc:	05017a03 	streq	r7, [r1, #-2563]	; 0xfffff5fd
    2200:	05054a0e 	streq	r4, [r5, #-2574]	; 0xfffff5f2
    2204:	01052e34 	tsteq	r5, r4, lsr lr
    2208:	052e1403 	streq	r1, [lr, #-1027]!	; 0xfffffbfd
    220c:	2e6c0305 	cdpcs	3, 6, cr0, cr12, cr5, {0}
    2210:	062b052e 	strteq	r0, [fp], -lr, lsr #10
    2214:	c8020500 	stmdagt	r2, {r8, sl}
    2218:	0300009b 	movweq	r0, #155	; 0x9b
    221c:	05050117 	streq	r0, [r5, #-279]	; 0xfffffee9
    2220:	06070513 			; <UNDEFINED> instruction: 0x06070513
    2224:	03180501 	tsteq	r8, #4194304	; 0x400000
    2228:	2b052e71 	blcs	14dbf4 <__bss_end__+0x14359c>
    222c:	052e0e03 	streq	r0, [lr, #-3587]!	; 0xfffff1fd
    2230:	09052f07 	stmdbeq	r5, {r0, r1, r2, r8, r9, sl, fp, sp}
    2234:	0d052f06 	stceq	15, cr2, [r5, #-24]	; 0xffffffe8
    2238:	05016f03 	streq	r6, [r1, #-3843]	; 0xfffff0fd
    223c:	2e061305 	cdpcs	3, 0, cr1, cr6, cr5, {0}
    2240:	09052e2e 	stmdbeq	r5, {r1, r2, r3, r5, r9, sl, fp, sp}
    2244:	01120306 	tsteq	r2, r6, lsl #6
    2248:	72030d05 	andvc	r0, r3, #320	; 0x140
    224c:	13050501 	movwne	r0, #21761	; 0x5501
    2250:	052e2e06 	streq	r2, [lr, #-3590]!	; 0xfffff1fa
    2254:	1003061d 	andne	r0, r3, sp, lsl r6
    2258:	13050566 	movwne	r0, #21862	; 0x5566
    225c:	11061d05 	tstne	r6, r5, lsl #26
    2260:	0605052e 	streq	r0, [r5], -lr, lsr #10
    2264:	0e051330 	mcreq	3, 0, r1, cr5, cr0, {1}
    2268:	17051006 	strne	r1, [r5, -r6]
    226c:	02042e30 	andeq	r2, r4, #48, 28	; 0x300
    2270:	03063005 	movweq	r3, #24581	; 0x6005
    2274:	042e00dd 	strteq	r0, [lr], #-221	; 0xffffff23
    2278:	060e0501 	streq	r0, [lr], -r1, lsl #10
    227c:	017fa203 	cmneq	pc, r3, lsl #4
    2280:	052f2305 	streq	r2, [pc, #-773]!	; 1f83 <__code_start__-0x607d>
    2284:	06022f01 	streq	r2, [r2], -r1, lsl #30
    2288:	e2010100 	and	r0, r1, #0
    228c:	03000000 	movweq	r0, #0
    2290:	00005900 	andeq	r5, r0, r0, lsl #18
    2294:	fb010200 	blx	42a9e <__bss_end__+0x38446>
    2298:	01000d0e 	tsteq	r0, lr, lsl #26
    229c:	00010101 	andeq	r0, r1, r1, lsl #2
    22a0:	00010000 	andeq	r0, r1, r0
    22a4:	2f2e0100 	svccs	0x002e0100
    22a8:	6362696c 	cmnvs	r2, #108, 18	; 0x1b0000
    22ac:	73552f00 	cmpvc	r5, #0, 30
    22b0:	2f737265 	svccs	0x00737265
    22b4:	656c696d 	strbvs	r6, [ip, #-2413]!	; 0xfffff693
    22b8:	6f532f73 	svcvs	0x00532f73
    22bc:	65637275 	strbvs	r7, [r3, #-629]!	; 0xfffffd8b
    22c0:	3273632f 	rsbscc	r6, r3, #-1140850688	; 0xbc000000
    22c4:	786c3034 	stmdavc	ip!, {r2, r4, r5, ip, sp}^
    22c8:	62696c2f 	rsbvs	r6, r9, #12032	; 0x2f00
    22cc:	692f6970 	stmdbvs	pc!, {r4, r5, r6, r8, fp, sp, lr}	; <UNPREDICTABLE>
    22d0:	756c636e 	strbvc	r6, [ip, #-878]!	; 0xfffffc92
    22d4:	00006564 	andeq	r6, r0, r4, ror #10
    22d8:	63727473 	cmnvs	r2, #1929379840	; 0x73000000
    22dc:	632e7461 			; <UNDEFINED> instruction: 0x632e7461
    22e0:	00000100 	andeq	r0, r0, r0, lsl #2
    22e4:	2e697072 	mcrcs	0, 3, r7, cr9, cr2, {3}
    22e8:	00020068 	andeq	r0, r2, r8, rrx
    22ec:	2c050000 	stccs	0, cr0, [r5], {-0}
    22f0:	20020500 	andcs	r0, r2, r0, lsl #10
    22f4:	1500009c 	strne	r0, [r0, #-156]	; 0xffffff64
    22f8:	13130505 	tstne	r3, #20971520	; 0x1400000
    22fc:	11060b05 	tstne	r6, r5, lsl #22
    2300:	02000505 	andeq	r0, r0, #20971520	; 0x1400000
    2304:	30060104 	andcc	r0, r6, r4, lsl #2
    2308:	01040200 	mrseq	r0, R12_usr
    230c:	00090515 	andeq	r0, r9, r5, lsl r5
    2310:	13010402 	movwne	r0, #5122	; 0x1402
    2314:	02000b05 	andeq	r0, r0, #5120	; 0x1400
    2318:	052f0104 	streq	r0, [pc, #-260]!	; 221c <__code_start__-0x5de4>
    231c:	04020005 	streq	r0, [r2], #-5
    2320:	00010601 	andeq	r0, r1, r1, lsl #12
    2324:	2e010402 	cdpcs	4, 0, cr0, cr1, cr2, {0}
    2328:	08054e06 	stmdaeq	r5, {r1, r2, r9, sl, fp, lr}
    232c:	05050106 	streq	r0, [r5, #-262]	; 0xfffffefa
    2330:	01040200 	mrseq	r0, R12_usr
    2334:	09052f06 	stmdbeq	r5, {r1, r2, r8, r9, sl, fp, sp}
    2338:	01040200 	mrseq	r0, R12_usr
    233c:	000b0513 	andeq	r0, fp, r3, lsl r5
    2340:	06010402 	streq	r0, [r1], -r2, lsl #8
    2344:	00090501 	andeq	r0, r9, r1, lsl #10
    2348:	06010402 	streq	r0, [r1], -r2, lsl #8
    234c:	0005052f 	andeq	r0, r5, pc, lsr #10
    2350:	06010402 	streq	r0, [r1], -r2, lsl #8
    2354:	000f0513 	andeq	r0, pc, r3, lsl r5	; <UNPREDICTABLE>
    2358:	2d010402 	cfstrscs	mvf0, [r1, #-8]
    235c:	02000d05 	andeq	r0, r0, #320	; 0x140
    2360:	2f060104 	svccs	0x00060104
    2364:	02000505 	andeq	r0, r0, #20971520	; 0x1400000
    2368:	01060104 	tsteq	r6, r4, lsl #2
    236c:	01000402 	tsteq	r0, r2, lsl #8
    2370:	0000b201 	andeq	fp, r0, r1, lsl #4
    2374:	59000300 	stmdbpl	r0, {r8, r9}
    2378:	02000000 	andeq	r0, r0, #0, 0
    237c:	0d0efb01 	vstreq	d15, [lr, #-4]
    2380:	01010100 	mrseq	r0, (UNDEF: 17)
    2384:	00000001 	andeq	r0, r0, r1
    2388:	01000001 	tsteq	r0, r1
    238c:	696c2f2e 	stmdbvs	ip!, {r1, r2, r3, r5, r8, r9, sl, fp, sp}^
    2390:	2f006362 	svccs	0x00006362
    2394:	72657355 	rsbvc	r7, r5, #1409286145	; 0x54000001
    2398:	696d2f73 	stmdbvs	sp!, {r0, r1, r4, r5, r6, r8, r9, sl, fp, sp}^
    239c:	2f73656c 	svccs	0x0073656c
    23a0:	72756f53 	rsbsvc	r6, r5, #332	; 0x14c
    23a4:	632f6563 			; <UNDEFINED> instruction: 0x632f6563
    23a8:	30343273 	eorscc	r3, r4, r3, ror r2
    23ac:	6c2f786c 	stcvs	8, cr7, [pc], #-432	; 2204 <__code_start__-0x5dfc>
    23b0:	69706269 	ldmdbvs	r0!, {r0, r3, r5, r6, r9, sp, lr}^
    23b4:	636e692f 	cmnvs	lr, #770048	; 0xbc000
    23b8:	6564756c 	strbvs	r7, [r4, #-1388]!	; 0xfffffa94
    23bc:	74730000 	ldrbtvc	r0, [r3], #-0
    23c0:	706d6372 	rsbvc	r6, sp, r2, ror r3
    23c4:	0100632e 	tsteq	r0, lr, lsr #6
    23c8:	70720000 	rsbsvc	r0, r2, r0
    23cc:	00682e69 	rsbeq	r2, r8, r9, ror #28
    23d0:	00000002 	andeq	r0, r0, r2
    23d4:	05002a05 	streq	r2, [r0, #-2565]	; 0xfffff5fb
    23d8:	009c4c02 	addseq	r4, ip, r2, lsl #24
    23dc:	09051400 	stmdbeq	r5, {sl, ip}
    23e0:	06100513 			; <UNDEFINED> instruction: 0x06100513
    23e4:	060f0501 	streq	r0, [pc], -r1, lsl #10
    23e8:	0610052e 	ldreq	r0, [r0], -lr, lsr #10
    23ec:	2e0f0582 	cfsh32cs	mvfx0, mvfx15, #-62
    23f0:	02001105 	andeq	r1, r0, #1073741825	; 0x40000001
    23f4:	4b060104 	blmi	18280c <__bss_end__+0x1781b4>
    23f8:	02001c05 	andeq	r1, r0, #1280	; 0x500
    23fc:	2d060104 	stfcss	f0, [r6, #-16]
    2400:	02000f05 	andeq	r0, r0, #5, 30
    2404:	2e060104 	adfcss	f0, f6, f4
    2408:	02001305 	andeq	r1, r0, #335544320	; 0x14000000
    240c:	01060104 	tsteq	r6, r4, lsl #2
    2410:	4c060905 			; <UNDEFINED> instruction: 0x4c060905
    2414:	13060105 	movwne	r0, #24837	; 0x6105
    2418:	0609054a 	streq	r0, [r9], -sl, asr #10
    241c:	0601052d 	streq	r0, [r1], -sp, lsr #10
    2420:	02022e13 	andeq	r2, r2, #304	; 0x130
    2424:	9d010100 	stflss	f0, [r1, #-0]
    2428:	03000000 	movweq	r0, #0
    242c:	00005900 	andeq	r5, r0, r0, lsl #18
    2430:	fb010200 	blx	42c3a <__bss_end__+0x385e2>
    2434:	01000d0e 	tsteq	r0, lr, lsl #26
    2438:	00010101 	andeq	r0, r1, r1, lsl #2
    243c:	00010000 	andeq	r0, r1, r0
    2440:	2f2e0100 	svccs	0x002e0100
    2444:	6362696c 	cmnvs	r2, #108, 18	; 0x1b0000
    2448:	73552f00 	cmpvc	r5, #0, 30
    244c:	2f737265 	svccs	0x00737265
    2450:	656c696d 	strbvs	r6, [ip, #-2413]!	; 0xfffff693
    2454:	6f532f73 	svcvs	0x00532f73
    2458:	65637275 	strbvs	r7, [r3, #-629]!	; 0xfffffd8b
    245c:	3273632f 	rsbscc	r6, r3, #-1140850688	; 0xbc000000
    2460:	786c3034 	stmdavc	ip!, {r2, r4, r5, ip, sp}^
    2464:	62696c2f 	rsbvs	r6, r9, #12032	; 0x2f00
    2468:	692f6970 	stmdbvs	pc!, {r4, r5, r6, r8, fp, sp, lr}	; <UNPREDICTABLE>
    246c:	756c636e 	strbvc	r6, [ip, #-878]!	; 0xfffffc92
    2470:	00006564 	andeq	r6, r0, r4, ror #10
    2474:	63727473 	cmnvs	r2, #1929379840	; 0x73000000
    2478:	632e7970 			; <UNDEFINED> instruction: 0x632e7970
    247c:	00000100 	andeq	r0, r0, r0, lsl #2
    2480:	2e697072 	mcrcs	0, 3, r7, cr9, cr2, {3}
    2484:	00020068 	andeq	r0, r2, r8, rrx
    2488:	2a050000 	bcs	142490 <__bss_end__+0x137e38>
    248c:	90020500 	andls	r0, r2, r0, lsl #10
    2490:	1400009c 	strne	r0, [r0], #-156	; 0xffffff64
    2494:	13130505 	tstne	r3, #20971520	; 0x1400000
    2498:	02002205 	andeq	r2, r0, #1342177280	; 0x50000000
    249c:	052e0104 	streq	r0, [lr, #-260]!	; 0xfffffefc
    24a0:	0402000b 	streq	r0, [r2], #-11
    24a4:	15050101 	strne	r0, [r5, #-257]	; 0xfffffeff
    24a8:	01040200 	mrseq	r0, R12_usr
    24ac:	0b050106 	bleq	1428cc <__bss_end__+0x138274>
    24b0:	01040200 	mrseq	r0, R12_usr
    24b4:	0013052e 	andseq	r0, r3, lr, lsr #10
    24b8:	2e010402 	cdpcs	4, 0, cr0, cr1, cr2, {0}
    24bc:	02000b05 	andeq	r0, r0, #5120	; 0x1400
    24c0:	022e0104 	eoreq	r0, lr, #1
    24c4:	01010004 	tsteq	r1, r4
    24c8:	000000fd 	strdeq	r0, [r0], -sp
    24cc:	00bf0003 	adcseq	r0, pc, r3
    24d0:	01020000 	mrseq	r0, (UNDEF: 2)
    24d4:	000d0efb 	strdeq	r0, [sp], -fp
    24d8:	01010101 	tsteq	r1, r1, lsl #2
    24dc:	01000000 	mrseq	r0, (UNDEF: 0)
    24e0:	2e010000 	cdpcs	0, 0, cr0, cr1, cr0, {0}
    24e4:	62696c2f 	rsbvs	r6, r9, #12032	; 0x2f00
    24e8:	552f0063 	strpl	r0, [pc, #-99]!	; 248d <__code_start__-0x5b73>
    24ec:	73726573 	cmnvc	r2, #482344960	; 0x1cc00000
    24f0:	6c696d2f 	stclvs	13, cr6, [r9], #-188	; 0xffffff44
    24f4:	532f7365 			; <UNDEFINED> instruction: 0x532f7365
    24f8:	6372756f 	cmnvs	r2, #465567744	; 0x1bc00000
    24fc:	73632f65 	cmnvc	r3, #404	; 0x194
    2500:	6c303432 	cfldrsvs	mvf3, [r0], #-200	; 0xffffff38
    2504:	696c2f78 	stmdbvs	ip!, {r3, r4, r5, r6, r8, r9, sl, fp, sp}^
    2508:	2f697062 	svccs	0x00697062
    250c:	6c636e69 	stclvs	14, cr6, [r3], #-420	; 0xfffffe5c
    2510:	00656475 	rsbeq	r6, r5, r5, ror r4
    2514:	74706f2f 	ldrbtvc	r6, [r0], #-3887	; 0xfffff0d1
    2518:	6d6f682f 	stclvs	8, cr6, [pc, #-188]!	; 2464 <__code_start__-0x5b9c>
    251c:	65726265 	ldrbvs	r6, [r2, #-613]!	; 0xfffffd9b
    2520:	65432f77 	strbvs	r2, [r3, #-3959]	; 0xfffff089
    2524:	72616c6c 	rsbvc	r6, r1, #108, 24	; 0x6c00
    2528:	6d72612f 	ldfvse	f6, [r2, #-188]!	; 0xffffff44
    252c:	6e6f6e2d 	cdpvs	14, 6, cr6, cr15, cr13, {1}
    2530:	61652d65 	cmnvs	r5, r5, ror #26
    2534:	392d6962 	pushcc	{r1, r5, r6, r8, fp, sp, lr}
    2538:	322d392f 	eorcc	r3, sp, #770048	; 0xbc000
    253c:	71393130 	teqvc	r9, r0, lsr r1
    2540:	73632d34 	cmnvc	r3, #52, 26	; 0xd00
    2544:	65373031 	ldrvs	r3, [r7, #-49]!	; 0xffffffcf
    2548:	62696c2f 	rsbvs	r6, r9, #12032	; 0x2f00
    254c:	6363672f 	cmnvs	r3, #12320768	; 0xbc0000
    2550:	6d72612f 	ldfvse	f6, [r2, #-188]!	; 0xffffff44
    2554:	6e6f6e2d 	cdpvs	14, 6, cr6, cr15, cr13, {1}
    2558:	61652d65 	cmnvs	r5, r5, ror #26
    255c:	392f6962 	stmdbcc	pc!, {r1, r5, r6, r8, fp, sp, lr}	; <UNPREDICTABLE>
    2560:	312e322e 			; <UNDEFINED> instruction: 0x312e322e
    2564:	636e692f 	cmnvs	lr, #770048	; 0xbc000
    2568:	6564756c 	strbvs	r7, [r4, #-1388]!	; 0xfffffa94
    256c:	74730000 	ldrbtvc	r0, [r3], #-0
    2570:	6d636e72 	stclvs	14, cr6, [r3, #-456]!	; 0xfffffe38
    2574:	00632e70 	rsbeq	r2, r3, r0, ror lr
    2578:	72000001 	andvc	r0, r0, #1, 0
    257c:	682e6970 	stmdavs	lr!, {r4, r5, r6, r8, fp, sp, lr}
    2580:	00000200 	andeq	r0, r0, r0, lsl #4
    2584:	64647473 	strbtvs	r7, [r4], #-1139	; 0xfffffb8d
    2588:	682e6665 	stmdavs	lr!, {r0, r2, r5, r6, r9, sl, sp, lr}
    258c:	00000300 	andeq	r0, r0, r0, lsl #6
    2590:	00390500 	eorseq	r0, r9, r0, lsl #10
    2594:	9ca80205 	sfmls	f0, 4, [r8], #20
    2598:	05150000 	ldreq	r0, [r5, #-0]
    259c:	05131305 	ldreq	r1, [r3, #-773]	; 0xfffffcfb
    25a0:	052e060a 	streq	r0, [lr, #-1546]!	; 0xfffff9f6
    25a4:	13052f0c 	movwne	r2, #24332	; 0x5f0c
    25a8:	2e0b052e 	cfsh32cs	mvfx0, mvfx11, #30
    25ac:	4a060905 	bmi	1849c8 <__bss_end__+0x17a370>
    25b0:	06110a05 	ldreq	r0, [r1], -r5, lsl #20
    25b4:	4e0c0501 	cfsh32mi	mvfx0, mvfx12, #1
    25b8:	052f0105 	streq	r0, [pc, #-261]!	; 24bb <__code_start__-0x5b45>
    25bc:	052b060d 	streq	r0, [fp, #-1549]!	; 0xfffff9f3
    25c0:	2e01061b 	mcrcs	6, 0, r0, cr1, cr11, {0}
    25c4:	01000202 	tsteq	r0, r2, lsl #4
    25c8:	00008a01 	andeq	r8, r0, r1, lsl #20
    25cc:	6e000300 	cdpvs	3, 0, cr0, cr0, cr0, {0}
    25d0:	02000000 	andeq	r0, r0, #0, 0
    25d4:	0d0efb01 	vstreq	d15, [lr, #-4]
    25d8:	01010100 	mrseq	r0, (UNDEF: 17)
    25dc:	00000001 	andeq	r0, r0, r1
    25e0:	01000001 	tsteq	r0, r1
    25e4:	74732f2e 	ldrbtvc	r2, [r3], #-3886	; 0xfffff0d2
    25e8:	2d666661 	stclcs	6, cr6, [r6, #-388]!	; 0xfffffe7c
    25ec:	00637273 	rsbeq	r7, r3, r3, ror r2
    25f0:	6573552f 	ldrbvs	r5, [r3, #-1327]!	; 0xfffffad1
    25f4:	6d2f7372 	stcvs	3, cr7, [pc, #-456]!	; 2434 <__code_start__-0x5bcc>
    25f8:	73656c69 	cmnvc	r5, #26880	; 0x6900
    25fc:	756f532f 	strbvc	r5, [pc, #-815]!	; 22d5 <__code_start__-0x5d2b>
    2600:	2f656372 	svccs	0x00656372
    2604:	34327363 	ldrtcc	r7, [r2], #-867	; 0xfffffc9d
    2608:	2f786c30 	svccs	0x00786c30
    260c:	7062696c 	rsbvc	r6, r2, ip, ror #18
    2610:	6e692f69 	cdpvs	15, 6, cr2, cr9, cr9, {3}
    2614:	64756c63 	ldrbtvs	r6, [r5], #-3171	; 0xfffff39d
    2618:	64000065 	strvs	r0, [r0], #-101	; 0xffffff9b
    261c:	75616665 	strbvc	r6, [r1, #-1637]!	; 0xfffff99b
    2620:	722d746c 	eorvc	r7, sp, #108, 8	; 0x6c000000
    2624:	6f6f6265 	svcvs	0x006f6265
    2628:	61632d74 	smcvs	13012	; 0x32d4
    262c:	756f6c6c 	strbvc	r6, [pc, #-3180]!	; 19c8 <__code_start__-0x6638>
    2630:	00632e74 	rsbeq	r2, r3, r4, ror lr
    2634:	72000001 	andvc	r0, r0, #1, 0
    2638:	682e6970 	stmdavs	lr!, {r4, r5, r6, r8, fp, sp, lr}
    263c:	00000200 	andeq	r0, r0, r0, lsl #4
    2640:	001b0500 	andseq	r0, fp, r0, lsl #10
    2644:	9cd80205 	lfmls	f0, 2, [r8], {5}
    2648:	05140000 	ldreq	r0, [r4, #-0]
    264c:	0105011c 	tsteq	r5, ip, lsl r1
    2650:	02020106 	andeq	r0, r2, #-2147483647	; 0x80000001
    2654:	Address 0x0000000000002654 is out of bounds.


Disassembly of section .debug_str:

00000000 <.debug_str>:
   0:	72666b63 	rsbvc	r6, r6, #101376	; 0x18c00
   4:	6c006565 	cfstr32vs	mvfx6, [r0], {101}	; 0x65
   8:	6e656e69 	cdpvs	14, 6, cr6, cr5, cr9, {3}
   c:	6f6e006f 	svcvs	0x006e006f
  10:	69616d74 	stmdbvs	r1!, {r2, r4, r5, r6, r8, sl, fp, sp, lr}^
  14:	6966006e 	stmdbvs	r6!, {r1, r2, r3, r5, r6}^
  18:	7500656c 	strvc	r6, [r0, #-1388]	; 0xfffffa94
  1c:	6769736e 	strbvs	r7, [r9, -lr, ror #6]!
  20:	2064656e 	rsbcs	r6, r4, lr, ror #10
  24:	72616863 	rsbvc	r6, r1, #6488064	; 0x630000
  28:	656c6300 	strbvs	r6, [ip, #-768]!	; 0xfffffd00
  2c:	725f6e61 	subsvc	r6, pc, #1552	; 0x610
  30:	6f6f6265 	svcvs	0x006f6265
  34:	68730074 	ldmdavs	r3!, {r2, r4, r5, r6}^
  38:	2074726f 	rsbscs	r7, r4, pc, ror #4
  3c:	69736e75 	ldmdbvs	r3!, {r0, r2, r4, r5, r6, r9, sl, fp, sp, lr}^
  40:	64656e67 	strbtvs	r6, [r5], #-3687	; 0xfffff199
  44:	746e6920 	strbtvc	r6, [lr], #-2336	; 0xfffff6e0
  48:	63727300 	cmnvs	r2, #0, 6
  4c:	636f6c5f 	cmnvs	pc, #24320	; 0x5f00
  50:	006b6d5f 	rsbeq	r6, fp, pc, asr sp
  54:	636e7566 	cmnvs	lr, #427819008	; 0x19800000
  58:	72747000 	rsbsvc	r7, r4, #0, 0
  5c:	5f5f0073 	svcpl	0x005f0073
  60:	434e5546 	movtmi	r5, #58694	; 0xe546
  64:	4e4f4954 			; <UNDEFINED> instruction: 0x4e4f4954
  68:	35005f5f 	strcc	r5, [r0, #-3935]	; 0xfffff0a1
  6c:	7365742d 	cmnvc	r5, #754974720	; 0x2d000000
  70:	6b632d74 	blvs	18cb648 <__bss_end__+0x18c0ff0>
  74:	6f6c6c61 	svcvs	0x006c6c61
  78:	00632e63 	rsbeq	r2, r3, r3, ror #28
  7c:	7365746e 	cmnvc	r5, #1845493760	; 0x6e000000
  80:	6c007374 	stcvs	3, cr7, [r0], {116}	; 0x74
  84:	20676e6f 	rsbcs	r6, r7, pc, ror #28
  88:	676e6f6c 	strbvs	r6, [lr, -ip, ror #30]!
  8c:	736e7520 	cmnvc	lr, #32, 10	; 0x8000000
  90:	656e6769 	strbvs	r6, [lr, #-1897]!	; 0xfffff897
  94:	6e692064 	cdpvs	0, 6, cr2, cr9, cr4, {3}
  98:	69750074 	ldmdbvs	r5!, {r2, r4, r5, r6}^
  9c:	5f38746e 	svcpl	0x0038746e
  a0:	65740074 	ldrbvs	r0, [r4, #-116]!	; 0xffffff8c
  a4:	615f7473 	cmpvs	pc, r3, ror r4	; <UNPREDICTABLE>
  a8:	636f6c6c 	cmnvs	pc, #108, 24	; 0x6c00
  ac:	6572665f 	ldrbvs	r6, [r2, #-1631]!	; 0xfffff9a1
  b0:	6f6c0065 	svcvs	0x006c0065
  b4:	6c20676e 	stcvs	7, cr6, [r0], #-440	; 0xfffffe48
  b8:	20676e6f 	rsbcs	r6, r7, pc, ror #28
  bc:	00746e69 	rsbseq	r6, r4, r9, ror #28
  c0:	5f697072 	svcpl	0x00697072
  c4:	63747570 	cmnvs	r4, #112, 10	; 0x1c000000
  c8:	00726168 	rsbseq	r6, r2, r8, ror #2
  cc:	6573552f 	ldrbvs	r5, [r3, #-1327]!	; 0xfffffad1
  d0:	6d2f7372 	stcvs	3, cr7, [pc, #-456]!	; ffffff10 <__bss_end__+0xffff58b8>
  d4:	73656c69 	cmnvc	r5, #26880	; 0x6900
  d8:	756f532f 	strbvc	r5, [pc, #-815]!	; fffffdb1 <__bss_end__+0xffff5759>
  dc:	2f656372 	svccs	0x00656372
  e0:	34327363 	ldrtcc	r7, [r2], #-867	; 0xfffffc9d
  e4:	2f786c30 	svccs	0x00786c30
  e8:	7362616c 	cmnvc	r2, #27
  ec:	6d2d352f 	cfstr32vs	mvfx3, [sp, #-188]!	; 0xffffff44
  f0:	6f6c6c61 	svcvs	0x006c6c61
  f4:	63672b63 	cmnvs	r7, #101376	; 0x18c00
  f8:	632d322f 			; <UNDEFINED> instruction: 0x632d322f
  fc:	6c6c616b 	stfvse	f6, [ip], #-428	; 0xfffffe54
 100:	7300636f 	movwvc	r6, #879	; 0x36f
 104:	74726f68 	ldrbtvc	r6, [r2], #-3944	; 0xfffff098
 108:	746e6920 	strbtvc	r6, [lr], #-2336	; 0xfffff6e0
 10c:	63727300 	cmnvs	r2, #0, 6
 110:	636f6c5f 	cmnvs	pc, #24320	; 0x5f00
 114:	4700745f 	smlsdmi	r0, pc, r4, r7	; <UNPREDICTABLE>
 118:	4320554e 			; <UNDEFINED> instruction: 0x4320554e
 11c:	39203939 	stmdbcc	r0!, {r0, r3, r4, r5, r8, fp, ip, sp}
 120:	312e322e 			; <UNDEFINED> instruction: 0x312e322e
 124:	31303220 	teqcc	r0, r0, lsr #4
 128:	32303139 	eorscc	r3, r0, #1073741838	; 0x4000000e
 12c:	72282035 	eorvc	r2, r8, #53, 0	; 0x35
 130:	61656c65 	cmnvs	r5, r5, ror #24
 134:	20296573 	eorcs	r6, r9, r3, ror r5
 138:	4d52415b 	ldfmie	f4, [r2, #-364]	; 0xfffffe94
 13c:	6d72612f 	ldfvse	f6, [r2, #-188]!	; 0xffffff44
 140:	622d392d 	eorvs	r3, sp, #737280	; 0xb4000
 144:	636e6172 	cmnvs	lr, #-2147483620	; 0x8000001c
 148:	65722068 	ldrbvs	r2, [r2, #-104]!	; 0xffffff98
 14c:	69736976 	ldmdbvs	r3!, {r1, r2, r4, r5, r6, r8, fp, sp, lr}^
 150:	32206e6f 	eorcc	r6, r0, #1776	; 0x6f0
 154:	39353737 	ldmdbcc	r5!, {r0, r1, r2, r4, r5, r8, r9, sl, ip, sp}
 158:	2d205d39 	stccs	13, cr5, [r0, #-228]!	; 0xffffff1c
 15c:	7570636d 	ldrbvc	r6, [r0, #-877]!	; 0xfffffc93
 160:	6d72613d 	ldfvse	f6, [r2, #-244]!	; 0xffffff0c
 164:	36373131 			; <UNDEFINED> instruction: 0x36373131
 168:	2d667a6a 	vstmdbcs	r6!, {s15-s120}
 16c:	6d2d2073 	stcvs	0, cr2, [sp, #-460]!	; 0xfffffe34
 170:	656e7574 	strbvs	r7, [lr, #-1396]!	; 0xfffffa8c
 174:	6d72613d 	ldfvse	f6, [r2, #-244]!	; 0xffffff0c
 178:	36373131 			; <UNDEFINED> instruction: 0x36373131
 17c:	2d667a6a 	vstmdbcs	r6!, {s15-s120}
 180:	6d2d2073 	stcvs	0, cr2, [sp, #-460]!	; 0xfffffe34
 184:	616f6c66 	cmnvs	pc, r6, ror #24
 188:	62612d74 	rsbvs	r2, r1, #116, 26	; 0x1d00
 18c:	6f733d69 	svcvs	0x00733d69
 190:	2d207466 	cfstrscs	mvf7, [r0, #-408]!	; 0xfffffe68
 194:	6d72616d 	ldfvse	f6, [r2, #-436]!	; 0xfffffe4c
 198:	616d2d20 	cmnvs	sp, r0, lsr #26
 19c:	3d686372 	stclcc	3, cr6, [r8, #-456]!	; 0xfffffe38
 1a0:	766d7261 	strbtvc	r7, [sp], -r1, ror #4
 1a4:	207a6b36 	rsbscs	r6, sl, r6, lsr fp
 1a8:	6467672d 	strbtvs	r6, [r7], #-1837	; 0xfffff8d3
 1ac:	4f2d2062 	svcmi	0x002d2062
 1b0:	732d2067 			; <UNDEFINED> instruction: 0x732d2067
 1b4:	673d6474 			; <UNDEFINED> instruction: 0x673d6474
 1b8:	3939756e 	ldmdbcc	r9!, {r1, r2, r3, r5, r6, r8, sl, ip, sp, lr}
 1bc:	66662d20 	strbtvs	r2, [r6], -r0, lsr #26
 1c0:	73656572 	cmnvc	r5, #478150656	; 0x1c800000
 1c4:	646e6174 	strbtvs	r6, [lr], #-372	; 0xfffffe8c
 1c8:	00676e69 	rsbeq	r6, r7, r9, ror #28
 1cc:	5f697072 	svcpl	0x00697072
 1d0:	65736572 	ldrbvs	r6, [r3, #-1394]!	; 0xfffffa8e
 1d4:	75705f74 	ldrbvc	r5, [r0, #-3956]!	; 0xfffff08c
 1d8:	68006374 	stmdavs	r0, {r2, r4, r5, r6, r8, r9, sp, lr}
 1dc:	65646165 	strbvs	r6, [r4, #-357]!	; 0xfffffe9b
 1e0:	72700072 	rsbsvc	r0, r0, #114, 0	; 0x72
 1e4:	00707665 	rsbseq	r7, r0, r5, ror #12
 1e8:	67696c61 	strbvs	r6, [r9, -r1, ror #24]!
 1ec:	726b006e 	rsbvc	r0, fp, #110, 0	; 0x6e
 1f0:	6572665f 	ldrbvs	r6, [r2, #-1631]!	; 0xfffff9a1
 1f4:	72660065 	rsbvc	r0, r6, #101, 0	; 0x65
 1f8:	00706565 	rsbseq	r6, r0, r5, ror #10
 1fc:	696e756e 	stmdbvs	lr!, {r1, r2, r3, r5, r6, r8, sl, ip, sp, lr}^
 200:	6b007374 	blvs	1cfd8 <__bss_end__+0x12980>
 204:	616d2d72 	smcvs	53970	; 0xd2d2
 208:	636f6c6c 	cmnvs	pc, #108, 24	; 0x6c00
 20c:	6400632e 	strvs	r6, [r0], #-814	; 0xfffffcd2
 210:	6c62756f 	cfstr64vs	mvdx7, [r2], #-444	; 0xfffffe44
 214:	61620065 	cmnvs	r2, r5, rrx
 218:	73006573 	movwvc	r6, #1395	; 0x573
 21c:	006b7262 	rsbeq	r7, fp, r2, ror #4
 220:	65726f6d 	ldrbvs	r6, [r2, #-3949]!	; 0xfffff093
 224:	65726f63 	ldrbvs	r6, [r2, #-3939]!	; 0xfffff09d
 228:	5f726b00 	svcpl	0x00726b00
 22c:	6c6c616d 	stfvse	f6, [ip], #-436	; 0xfffffe4c
 230:	7300636f 	movwvc	r6, #879	; 0x36f
 234:	00657a69 	rsbeq	r7, r5, r9, ror #20
 238:	64616548 	strbtvs	r6, [r1], #-1352	; 0xfffffab8
 23c:	69007265 	stmdbvs	r0, {r0, r2, r5, r6, r9, ip, sp, lr}
 240:	6572636e 	ldrbvs	r6, [r2, #-878]!	; 0xfffffc92
 244:	746e656d 	strbtvc	r6, [lr], #-1389	; 0xfffffa93
 248:	616d6b00 	cmnvs	sp, r0, lsl #22
 24c:	636f6c6c 	cmnvs	pc, #108, 24	; 0x6c00
 250:	2d697000 	stclcs	0, cr7, [r9, #-0]
 254:	6b726273 	blvs	1c98c28 <__bss_end__+0x1c8e5d0>
 258:	6300632e 	movwvs	r6, #814	; 0x32e
 25c:	626e5f6b 	rsbvs	r5, lr, #428	; 0x1ac
 260:	73657479 	cmnvc	r5, #2030043136	; 0x79000000
 264:	72646800 	rsbvc	r6, r4, #0, 16
 268:	6e00745f 	cfmvsrvs	mvf0, r7
 26c:	00747865 	rsbseq	r7, r4, r5, ror #16
 270:	74617473 	strbtvc	r7, [r1], #-1139	; 0xfffffb8d
 274:	4c410065 	mcrrmi	0, 6, r0, r1, cr5
 278:	45434f4c 	strbmi	r4, [r3, #-3916]	; 0xfffff0b4
 27c:	6b630044 	blvs	18c0394 <__bss_end__+0x18b5d3c>
 280:	7264685f 	rsbvc	r6, r4, #6225920	; 0x5f0000
 284:	6174735f 	cmnvs	r4, pc, asr r3
 288:	63007472 	movwvs	r7, #1138	; 0x472
 28c:	74705f6b 	ldrbtvc	r5, [r0], #-3947	; 0xfffff095
 290:	73695f72 	cmnvc	r9, #456	; 0x1c8
 294:	6c6c615f 	stfvse	f6, [ip], #-380	; 0xfffffe84
 298:	6465636f 	strbtvs	r6, [r5], #-879	; 0xfffffc91
 29c:	72616d00 	rsbvc	r6, r1, #0, 26
 2a0:	5246006b 	subpl	r0, r6, #107, 0	; 0x6b
 2a4:	00444545 	subeq	r4, r4, r5, asr #10
 2a8:	7479626e 	ldrbtvc	r6, [r9], #-622	; 0xfffffd92
 2ac:	615f7365 	cmpvs	pc, r5, ror #6
 2b0:	636f6c6c 	cmnvs	pc, #108, 24	; 0x6c00
 2b4:	5f6b6300 	svcpl	0x006b6300
 2b8:	00726468 	rsbseq	r6, r2, r8, ror #8
 2bc:	736d656d 	cmnvc	sp, #457179136	; 0x1b400000
 2c0:	61007465 	tstvs	r0, r5, ror #8
 2c4:	636f6c6c 	cmnvs	pc, #108, 24	; 0x6c00
 2c8:	73696c5f 	cmnvc	r9, #24320	; 0x5f00
 2cc:	6b630074 	blvs	18c04a4 <__bss_end__+0x18b5e4c>
 2d0:	7269665f 	rsbvc	r6, r9, #99614720	; 0x5f00000
 2d4:	685f7473 	ldmdavs	pc, {r0, r1, r4, r5, r6, sl, ip, sp, lr}^	; <UNPREDICTABLE>
 2d8:	61007264 	tstvs	r0, r4, ror #4
 2dc:	636f6c6c 	cmnvs	pc, #108, 24	; 0x6c00
 2e0:	636f6c5f 	cmnvs	pc, #24320	; 0x5f00
 2e4:	73696c00 	cmnvc	r9, #0, 24
 2e8:	65725f74 	ldrbvs	r5, [r2, #-3956]!	; 0xfffff08c
 2ec:	65766f6d 	ldrbvs	r6, [r6, #-3949]!	; 0xfffff093
 2f0:	5f6b6300 	svcpl	0x006b6300
 2f4:	5f726468 	svcpl	0x00726468
 2f8:	00646e65 	rsbeq	r6, r4, r5, ror #28
 2fc:	705f6b63 	subsvc	r6, pc, r3, ror #22
 300:	695f7274 	ldmdbvs	pc, {r2, r4, r5, r6, r9, ip, sp, lr}^	; <UNPREDICTABLE>
 304:	6c625f6e 	stclvs	15, cr5, [r2], #-440	; 0xfffffe48
 308:	006b636f 	rsbeq	r6, fp, pc, ror #6
 30c:	746e6975 	strbtvc	r6, [lr], #-2421	; 0xfffff68b
 310:	745f3631 	ldrbvc	r3, [pc], #-1585	; 318 <__code_start__-0x7ce8>
 314:	6e697500 	cdpvs	5, 6, cr7, cr9, cr0, {0}
 318:	5f323374 	svcpl	0x00323374
 31c:	6b630074 	blvs	18c04f4 <__bss_end__+0x18b5e9c>
 320:	78656e5f 	stmdavc	r5!, {r0, r1, r2, r3, r4, r6, r9, sl, fp, sp, lr}^
 324:	64685f74 	strbtvs	r5, [r8], #-3956	; 0xfffff08c
 328:	65720072 	ldrbvs	r0, [r2, #-114]!	; 0xffffff8e
 32c:	735f7366 	cmpvc	pc, #-1744830463	; 0x98000001
 330:	74726174 	ldrbtvc	r6, [r2], #-372	; 0xfffffe8c
 334:	65727000 	ldrbvs	r7, [r2, #-0]!
 338:	65720076 	ldrbvs	r0, [r2, #-118]!	; 0xffffff8a
 33c:	6d5f7366 	ldclvs	3, cr7, [pc, #-408]	; 1ac <__code_start__-0x7e54>
 340:	6c646469 	cfstrdvs	mvd6, [r4], #-420	; 0xfffffe5c
 344:	69730065 	ldmdbvs	r3!, {r0, r2, r5, r6}^
 348:	745f657a 	ldrbvc	r6, [pc], #-1402	; 350 <__code_start__-0x7cb0>
 34c:	6c2f2e00 	stcvs	14, cr2, [pc], #-0	; 354 <__code_start__-0x7cac>
 350:	2f636269 	svccs	0x00636269
 354:	736d656d 	cmnvc	sp, #457179136	; 0x1b400000
 358:	632e7465 			; <UNDEFINED> instruction: 0x632e7465
 35c:	554e4700 	strbpl	r4, [lr, #-1792]	; 0xfffff900
 360:	39394320 	ldmdbcc	r9!, {r5, r8, r9, lr}
 364:	322e3920 	eorcc	r3, lr, #32, 18	; 0x80000
 368:	3220312e 	eorcc	r3, r0, #-2147483637	; 0x8000000b
 36c:	31393130 	teqcc	r9, r0, lsr r1
 370:	20353230 	eorscs	r3, r5, r0, lsr r2
 374:	6c657228 	sfmvs	f7, 2, [r5], #-160	; 0xffffff60
 378:	65736165 	ldrbvs	r6, [r3, #-357]!	; 0xfffffe9b
 37c:	415b2029 	cmpmi	fp, r9, lsr #32
 380:	612f4d52 			; <UNDEFINED> instruction: 0x612f4d52
 384:	392d6d72 	pushcc	{r1, r4, r5, r6, r8, sl, fp, sp, lr}
 388:	6172622d 	cmnvs	r2, sp, lsr #4
 38c:	2068636e 	rsbcs	r6, r8, lr, ror #6
 390:	69766572 	ldmdbvs	r6!, {r1, r4, r5, r6, r8, sl, sp, lr}^
 394:	6e6f6973 			; <UNDEFINED> instruction: 0x6e6f6973
 398:	37373220 	ldrcc	r3, [r7, -r0, lsr #4]!
 39c:	5d393935 			; <UNDEFINED> instruction: 0x5d393935
 3a0:	636d2d20 	cmnvs	sp, #32, 26	; 0x800
 3a4:	613d7570 	teqvs	sp, r0, ror r5
 3a8:	31316d72 	teqcc	r1, r2, ror sp
 3ac:	7a6a3637 	bvc	1a8dc90 <__bss_end__+0x1a83638>
 3b0:	20732d66 	rsbscs	r2, r3, r6, ror #26
 3b4:	75746d2d 	ldrbvc	r6, [r4, #-3373]!	; 0xfffff2d3
 3b8:	613d656e 	teqvs	sp, lr, ror #10
 3bc:	31316d72 	teqcc	r1, r2, ror sp
 3c0:	7a6a3637 	bvc	1a8dca4 <__bss_end__+0x1a8364c>
 3c4:	20732d66 	rsbscs	r2, r3, r6, ror #26
 3c8:	6c666d2d 	stclvs	13, cr6, [r6], #-180	; 0xffffff4c
 3cc:	2d74616f 	ldfcse	f6, [r4, #-444]!	; 0xfffffe44
 3d0:	3d696261 	sfmcc	f6, 2, [r9, #-388]!	; 0xfffffe7c
 3d4:	74666f73 	strbtvc	r6, [r6], #-3955	; 0xfffff08d
 3d8:	616d2d20 	cmnvs	sp, r0, lsr #26
 3dc:	2d206d72 	stccs	13, cr6, [r0, #-456]!	; 0xfffffe38
 3e0:	6372616d 	cmnvs	r2, #1073741851	; 0x4000001b
 3e4:	72613d68 	rsbvc	r3, r1, #104, 26	; 0x1a00
 3e8:	6b36766d 	blvs	d9dda4 <__bss_end__+0xd9374c>
 3ec:	672d207a 			; <UNDEFINED> instruction: 0x672d207a
 3f0:	20626467 	rsbcs	r6, r2, r7, ror #8
 3f4:	61664f2d 	cmnvs	r6, sp, lsr #30
 3f8:	2d207473 	cfstrscs	mvf7, [r0, #-460]!	; 0xfffffe34
 3fc:	3d647473 	cfstrdcc	mvd7, [r4, #-460]!	; 0xfffffe34
 400:	39756e67 	ldmdbcc	r5!, {r0, r1, r2, r5, r6, r9, sl, fp, sp, lr}^
 404:	662d2039 			; <UNDEFINED> instruction: 0x662d2039
 408:	65657266 	strbvs	r7, [r5, #-614]!	; 0xfffffd9a
 40c:	6e617473 	mcrvs	4, 3, r7, cr1, cr3, {3}
 410:	676e6964 	strbvs	r6, [lr, -r4, ror #18]!
 414:	73552f00 	cmpvc	r5, #0, 30
 418:	2f737265 	svccs	0x00737265
 41c:	656c696d 	strbvs	r6, [ip, #-2413]!	; 0xfffff693
 420:	6f532f73 	svcvs	0x00532f73
 424:	65637275 	strbvs	r7, [r3, #-629]!	; 0xfffffd8b
 428:	3273632f 	rsbscc	r6, r3, #-1140850688	; 0xbc000000
 42c:	786c3034 	stmdavc	ip!, {r2, r4, r5, ip, sp}^
 430:	62696c2f 	rsbvs	r6, r9, #12032	; 0x2f00
 434:	61006970 	tstvs	r0, r0, ror r9
 438:	00736772 	rsbseq	r6, r3, r2, ror r7
 43c:	705f6176 	subsvc	r6, pc, r6, ror r1	; <UNPREDICTABLE>
 440:	746e6972 	strbtvc	r6, [lr], #-2418	; 0xfffff68e
 444:	5f5f006b 	svcpl	0x005f006b
 448:	63756e67 	cmnvs	r5, #1648	; 0x670
 44c:	5f61765f 	svcpl	0x0061765f
 450:	7473696c 	ldrbtvc	r6, [r3], #-2412	; 0xfffff694
 454:	615f5f00 	cmpvs	pc, r0, lsl #30
 458:	2f2e0070 	svccs	0x002e0070
 45c:	6362696c 	cmnvs	r2, #108, 18	; 0x1b0000
 460:	6972702f 	ldmdbvs	r2!, {r0, r1, r2, r3, r5, ip, sp, lr}^
 464:	2e6b746e 	cdpcs	4, 6, cr7, cr11, cr14, {3}
 468:	5f5f0063 	svcpl	0x005f0063
 46c:	6c5f6176 	ldfvse	f6, [pc], {118}	; 0x76
 470:	00747369 	rsbseq	r7, r4, r9, ror #6
 474:	65746e69 	ldrbvs	r6, [r4, #-3689]!	; 0xfffff197
 478:	6c616e72 	stclvs	14, cr6, [r1], #-456	; 0xfffffe38
 47c:	7475705f 	ldrbtvc	r7, [r5], #-95	; 0xffffffa1
 480:	72616863 	rsbvc	r6, r1, #6488064	; 0x630000
 484:	69707200 	ldmdbvs	r0!, {r9, ip, sp, lr}^
 488:	7465735f 	strbtvc	r7, [r5], #-863	; 0xfffffca1
 48c:	7475705f 	ldrbtvc	r7, [r5], #-95	; 0xffffffa1
 490:	2f2e0063 	svccs	0x002e0063
 494:	6362696c 	cmnvs	r2, #108, 18	; 0x1b0000
 498:	7475702f 	ldrbtvc	r7, [r5], #-47	; 0xffffffd1
 49c:	72616863 	rsbvc	r6, r1, #6488064	; 0x630000
 4a0:	7500632e 	strvc	r6, [r0, #-814]	; 0xfffffcd2
 4a4:	5f747261 	svcpl	0x00747261
 4a8:	63747570 	cmnvs	r4, #112, 10	; 0x1c000000
 4ac:	746e6900 	strbtvc	r6, [lr], #-2304	; 0xfffff700
 4b0:	616e7265 	cmnvs	lr, r5, ror #4
 4b4:	75705f6c 	ldrbvc	r5, [r0, #-3948]!	; 0xfffff094
 4b8:	2e006b74 	vmovcs.16	d0[1], r6
 4bc:	62696c2f 	rsbvs	r6, r9, #12032	; 0x2f00
 4c0:	75702f63 	ldrbvc	r2, [r0, #-3939]!	; 0xfffff09d
 4c4:	632e6b74 			; <UNDEFINED> instruction: 0x632e6b74
 4c8:	64736900 	ldrbtvs	r6, [r3], #-2304	; 0xfffff700
 4cc:	74696769 	strbtvc	r6, [r9], #-1897	; 0xfffff897
 4d0:	6e697500 	cdpvs	5, 6, cr7, cr9, cr0, {0}
 4d4:	5f343674 	svcpl	0x00343674
 4d8:	2f2e0074 	svccs	0x002e0074
 4dc:	6362696c 	cmnvs	r2, #108, 18	; 0x1b0000
 4e0:	2d61762f 	stclcs	6, cr7, [r1, #-188]!	; 0xffffff44
 4e4:	6e697270 	mcrvs	2, 3, r7, cr9, cr0, {3}
 4e8:	632e6b74 			; <UNDEFINED> instruction: 0x632e6b74
 4ec:	635f5f00 	cmpvs	pc, #0, 30
 4f0:	5f65646f 	svcpl	0x0065646f
 4f4:	72617473 	rsbvc	r7, r1, #1929379840	; 0x73000000
 4f8:	005f5f74 	subseq	r5, pc, r4, ror pc	; <UNPREDICTABLE>
 4fc:	73625f5f 	cmnvc	r2, #380	; 0x17c
 500:	74735f73 	ldrbtvc	r5, [r3], #-3955	; 0xfffff08d
 504:	5f747261 	svcpl	0x00747261
 508:	6977005f 	ldmdbvs	r7!, {r0, r1, r2, r3, r4, r6}^
 50c:	00687464 	rsbeq	r7, r8, r4, ror #8
 510:	61645f5f 	cmnvs	r4, pc, asr pc
 514:	655f6174 	ldrbvs	r6, [pc, #-372]	; 3a8 <__code_start__-0x7c58>
 518:	5f5f646e 	svcpl	0x005f646e
 51c:	74757000 	ldrbtvc	r7, [r5], #-0
 520:	70665f63 	rsbvc	r5, r6, r3, ror #30
 524:	625f5f00 	subsvs	r5, pc, #0, 30
 528:	655f7373 	ldrbvs	r7, [pc, #-883]	; 1bd <__code_start__-0x7e43>
 52c:	5f5f646e 	svcpl	0x005f646e
 530:	685f5f00 	ldmdavs	pc, {r8, r9, sl, fp, ip, lr}^	; <UNPREDICTABLE>
 534:	5f706165 	svcpl	0x00706165
 538:	72617473 	rsbvc	r7, r1, #1929379840	; 0x73000000
 53c:	005f5f74 	subseq	r5, pc, r4, ror pc	; <UNPREDICTABLE>
 540:	5f697072 	svcpl	0x00697072
 544:	5f746573 	svcpl	0x00746573
 548:	7074756f 	rsbsvc	r7, r4, pc, ror #10
 54c:	66007475 			; <UNDEFINED> instruction: 0x66007475
 550:	735f746d 	cmpvc	pc, #1828716544	; 0x6d000000
 554:	74726174 	ldrbtvc	r6, [r2], #-372	; 0xfffffe8c
 558:	72747300 	rsbsvc	r7, r4, #0, 6
 55c:	00746163 	rsbseq	r6, r4, r3, ror #2
 560:	63727473 	cmnvs	r2, #1929379840	; 0x73000000
 564:	6e007970 			; <UNDEFINED> instruction: 0x6e007970
 568:	705f6765 	subsvc	r6, pc, r5, ror #14
 56c:	635f5f00 	cmpvs	pc, #0, 30
 570:	5f65646f 	svcpl	0x0065646f
 574:	5f646e65 	svcpl	0x00646e65
 578:	6d65005f 	stclvs	0, cr0, [r5, #-380]!	; 0xfffffe84
 57c:	72007469 	andvc	r7, r0, #1761607680	; 0x69000000
 580:	72657665 	rsbvc	r7, r5, #105906176	; 0x6500000
 584:	73006573 	movwvc	r6, #1395	; 0x573
 588:	6d637274 	sfmvs	f7, 2, [r3, #-464]!	; 0xfffffe30
 58c:	75700070 	ldrbvc	r0, [r0, #-112]!	; 0xffffff90
 590:	665f7374 			; <UNDEFINED> instruction: 0x665f7374
 594:	5f5f0070 	svcpl	0x005f0070
 598:	61746164 	cmnvs	r4, r4, ror #2
 59c:	6174735f 	cmnvs	r4, pc, asr r3
 5a0:	5f5f7472 	svcpl	0x005f7472
 5a4:	705f5f00 	subsvc	r5, pc, r0, lsl #30
 5a8:	5f676f72 	svcpl	0x00676f72
 5ac:	5f646e65 	svcpl	0x00646e65
 5b0:	756e005f 	strbvc	r0, [lr, #-95]!	; 0xffffffa1
 5b4:	7300316d 	movwvc	r3, #365	; 0x16d
 5b8:	636e7274 	cmnvs	lr, #116, 4	; 0x40000007
 5bc:	7300706d 	movwvc	r7, #109	; 0x6d
 5c0:	656e6769 	strbvs	r6, [lr, #-1897]!	; 0xfffff897
 5c4:	00705f64 	rsbseq	r5, r0, r4, ror #30
 5c8:	5f697072 	svcpl	0x00697072
 5cc:	6f626572 	svcvs	0x00626572
 5d0:	6400746f 	strvs	r7, [r0], #-1135	; 0xfffffb91
 5d4:	79616c65 	stmdbvc	r1!, {r0, r2, r5, r6, sl, fp, sp, lr}^
 5d8:	00736d5f 	rsbseq	r6, r3, pc, asr sp
 5dc:	74732f2e 	ldrbtvc	r2, [r3], #-3886	; 0xfffff0d2
 5e0:	2d666661 	stclcs	6, cr6, [r6, #-388]!	; 0xfffffe7c
 5e4:	2f637273 	svccs	0x00637273
 5e8:	61656c63 	cmnvs	r5, r3, ror #24
 5ec:	65722d6e 	ldrbvs	r2, [r2, #-3438]!	; 0xfffff292
 5f0:	746f6f62 	strbtvc	r6, [pc], #-3938	; 5f8 <__code_start__-0x7a08>
 5f4:	7500632e 	strvc	r6, [r0, #-814]	; 0xfffffcd2
 5f8:	5f747261 	svcpl	0x00747261
 5fc:	73756c66 	cmnvc	r5, #26112	; 0x6600
 600:	78745f68 	ldmdavc	r4!, {r3, r5, r6, r8, r9, sl, fp, ip, lr}^
 604:	73635f00 	cmnvc	r3, #0, 30
 608:	74726174 	ldrbtvc	r6, [r2], #-372	; 0xfffffe8c
 60c:	73736200 	cmnvc	r3, #0, 4
 610:	646e655f 	strbtvs	r6, [lr], #-1375	; 0xfffffaa1
 614:	72617500 	rsbvc	r7, r1, #0, 10
 618:	6e695f74 	mcrvs	15, 3, r5, cr9, cr4, {3}
 61c:	63007469 	movwvs	r7, #1129	; 0x469
 620:	6f747375 	svcvs	0x00747375
 624:	6f6c5f6d 	svcvs	0x006c5f6d
 628:	72656461 	rsbvc	r6, r5, #1627389952	; 0x61000000
 62c:	732f2e00 			; <UNDEFINED> instruction: 0x732f2e00
 630:	66666174 			; <UNDEFINED> instruction: 0x66666174
 634:	6372732d 	cmnvs	r2, #-1275068416	; 0xb4000000
 638:	7473632f 	ldrbtvc	r6, [r3], #-815	; 0xfffffcd1
 63c:	2e747261 	cdpcs	2, 7, cr7, cr4, cr1, {3}
 640:	2f2e0063 	svccs	0x002e0063
 644:	66617473 			; <UNDEFINED> instruction: 0x66617473
 648:	72732d66 	rsbsvc	r2, r3, #6528	; 0x1980
 64c:	75632f63 	strbvc	r2, [r3, #-3939]!	; 0xfffff09d
 650:	6d6f7473 	cfstrdvs	mvd7, [pc, #-460]!	; 48c <__code_start__-0x7b74>
 654:	616f6c2d 	cmnvs	pc, sp, lsr #24
 658:	2e726564 	cdpcs	5, 7, cr6, cr2, cr4, {3}
 65c:	65720063 	ldrbvs	r0, [r2, #-99]!	; 0xffffff9d
 660:	746f6f62 	strbtvc	r6, [pc], #-3938	; 668 <__code_start__-0x7998>
 664:	6c61635f 	stclvs	3, cr6, [r1], #-380	; 0xfffffe84
 668:	74756f6c 	ldrbtvc	r6, [r5], #-3948	; 0xfffff094
 66c:	5f4d5000 	svcpl	0x004d5000
 670:	474f4457 	smlsldmi	r4, pc, r7, r4	; <UNPREDICTABLE>
 674:	54555000 	ldrbpl	r5, [r5], #-0
 678:	73003233 	movwvc	r3, #563	; 0x233
 67c:	755f7465 	ldrbvc	r7, [pc, #-1125]	; 21f <__code_start__-0x7de1>
 680:	5f726573 	svcpl	0x00726573
 684:	6576656c 	ldrbvs	r6, [r6, #-1388]!	; 0xfffffa94
 688:	2f2e006c 	svccs	0x002e006c
 68c:	66617473 			; <UNDEFINED> instruction: 0x66617473
 690:	72732d66 	rsbsvc	r2, r3, #6528	; 0x1980
 694:	65722f63 	ldrbvs	r2, [r2, #-3939]!	; 0xfffff09d
 698:	746f6f62 	strbtvc	r6, [pc], #-3938	; 6a0 <__code_start__-0x7960>
 69c:	5000632e 	andpl	r6, r0, lr, lsr #6
 6a0:	41505f4d 	cmpmi	r0, sp, asr #30
 6a4:	4f575353 	svcmi	0x00575353
 6a8:	61004452 	tstvs	r0, r2, asr r4
 6ac:	73755f74 	cmnvc	r5, #116, 30	; 0x1d0
 6b0:	6c5f7265 	lfmvs	f7, 2, [pc], {101}	; 0x65
 6b4:	6c657665 	stclvs	6, cr7, [r5], #-404	; 0xfffffe6c
 6b8:	5f4d5000 	svcpl	0x004d5000
 6bc:	43545352 	cmpmi	r4, #1207959553	; 0x48000001
 6c0:	4352575f 	cmpmi	r2, #24903680	; 0x17c0000
 6c4:	465f4746 	ldrbmi	r4, [pc], -r6, asr #14
 6c8:	5f4c4c55 	svcpl	0x004c4c55
 6cc:	45534552 	ldrbmi	r4, [r3, #-1362]	; 0xfffffaae
 6d0:	4d500054 	ldclmi	0, cr0, [r0, #-336]	; 0xfffffeb0
 6d4:	5453525f 	ldrbpl	r5, [r3], #-607	; 0xfffffda1
 6d8:	70630043 	rsbvc	r0, r3, r3, asr #32
 6dc:	64007273 	strvs	r7, [r0], #-627	; 0xfffffd8d
 6e0:	625f7665 	subsvs	r7, pc, #105906176	; 0x6500000
 6e4:	69727261 	ldmdbvs	r2!, {r0, r5, r6, r9, ip, sp, lr}^
 6e8:	64007265 	strvs	r7, [r0], #-613	; 0xfffffd9b
 6ec:	79616c65 	stmdbvc	r1!, {r0, r2, r5, r6, sl, fp, sp, lr}^
 6f0:	6365735f 	cmnvs	r5, #2080374785	; 0x7c000001
 6f4:	732f2e00 			; <UNDEFINED> instruction: 0x732f2e00
 6f8:	66666174 			; <UNDEFINED> instruction: 0x66666174
 6fc:	6372732d 	cmnvs	r2, #-1275068416	; 0xb4000000
 700:	6d69742f 	cfstrdvs	mvd7, [r9, #-188]!	; 0xffffff44
 704:	632e7265 			; <UNDEFINED> instruction: 0x632e7265
 708:	54454700 	strbpl	r4, [r5], #-1792	; 0xfffff900
 70c:	74003233 	strvc	r3, [r0], #-563	; 0xfffffdcd
 710:	72656d69 	rsbvc	r6, r5, #6720	; 0x1a40
 714:	7465675f 	strbtvc	r6, [r5], #-1887	; 0xfffff8a1
 718:	6573755f 	ldrbvs	r7, [r3, #-1375]!	; 0xfffffaa1
 71c:	65640063 	strbvs	r0, [r4, #-99]!	; 0xffffff9d
 720:	5f79616c 	svcpl	0x0079616c
 724:	74007375 	strvc	r7, [r0], #-885	; 0xfffffc8b
 728:	72656d69 	rsbvc	r6, r5, #6720	; 0x1a40
 72c:	7465675f 	strbtvc	r6, [r5], #-1887	; 0xfffff8a1
 730:	6573755f 	ldrbvs	r7, [r3, #-1375]!	; 0xfffffaa1
 734:	61725f63 	cmnvs	r2, r3, ror #30
 738:	75700077 	ldrbvc	r0, [r0, #-119]!	; 0xffffff89
 73c:	00323374 	eorseq	r3, r2, r4, ror r3
 740:	64756162 	ldrbtvs	r6, [r5], #-354	; 0xfffffe9e
 744:	6c61765f 	stclvs	6, cr7, [r1], #-380	; 0xfffffe84
 748:	61747300 	cmnvs	r4, r0, lsl #6
 74c:	61750074 	cmnvs	r5, r4, ror r0
 750:	635f7472 	cmpvs	pc, #1912602624	; 0x72000000
 754:	675f6e61 	ldrbvs	r6, [pc, -r1, ror #28]
 758:	00637465 	rsbeq	r7, r3, r5, ror #8
 75c:	4f495047 	svcmi	0x00495047
 760:	4e55465f 	mrcmi	6, 2, r4, cr5, cr15, {2}
 764:	554f5f43 	strbpl	r5, [pc, #-3907]	; fffff829 <__bss_end__+0xffff51d1>
 768:	54555054 	ldrbpl	r5, [r5], #-84	; 0xffffffac
 76c:	78756100 	ldmdavc	r5!, {r8, sp, lr}^
 770:	7265705f 	rsbvc	r7, r5, #95, 0	; 0x5f
 774:	73687069 	cmnvc	r8, #105, 0	; 0x69
 778:	72617500 	rsbvc	r7, r1, #0, 10
 77c:	00632e74 	rsbeq	r2, r3, r4, ror lr
 780:	74726175 	ldrbtvc	r6, [r2], #-373	; 0xfffffe8b
 784:	6e61635f 	mcrvs	3, 3, r6, cr1, cr15, {2}
 788:	7475705f 	ldrbtvc	r7, [r5], #-95	; 0xffffffa1
 78c:	61750063 	cmnvs	r5, r3, rrx
 790:	745f7472 	ldrbvc	r7, [pc], #-1138	; 798 <__code_start__-0x7868>
 794:	73695f78 	cmnvc	r9, #120, 30	; 0x1e0
 798:	706d655f 	rsbvc	r6, sp, pc, asr r5
 79c:	47007974 	smlsdxmi	r0, r4, r9, r7
 7a0:	5f4f4950 	svcpl	0x004f4950
 7a4:	434e5546 	movtmi	r5, #58694	; 0xe546
 7a8:	544c415f 	strbpl	r4, [ip], #-351	; 0xfffffea1
 7ac:	50470030 	subpl	r0, r7, r0, lsr r0
 7b0:	465f4f49 	ldrbmi	r4, [pc], -r9, asr #30
 7b4:	5f434e55 	svcpl	0x00434e55
 7b8:	31544c41 	cmpcc	r4, r1, asr #24
 7bc:	49504700 	ldmdbmi	r0, {r8, r9, sl, lr}^
 7c0:	55465f4f 	strbpl	r5, [r6, #-3919]	; 0xfffff0b1
 7c4:	415f434e 	cmpmi	pc, lr, asr #6
 7c8:	0032544c 	eorseq	r5, r2, ip, asr #8
 7cc:	4f495047 	svcmi	0x00495047
 7d0:	4e55465f 	mrcmi	6, 2, r4, cr5, cr15, {2}
 7d4:	4c415f43 	mcrrmi	15, 4, r5, r1, cr3
 7d8:	47003354 	smlsdmi	r0, r4, r3, r3
 7dc:	5f4f4950 	svcpl	0x004f4950
 7e0:	434e5546 	movtmi	r5, #58694	; 0xe546
 7e4:	544c415f 	strbpl	r4, [ip], #-351	; 0xfffffea1
 7e8:	682f0035 	stmdavs	pc!, {r0, r2, r4, r5}	; <UNPREDICTABLE>
 7ec:	2f656d6f 	svccs	0x00656d6f
 7f0:	6c676e65 	stclvs	14, cr6, [r7], #-404	; 0xfffffe6c
 7f4:	632f7265 			; <UNDEFINED> instruction: 0x632f7265
 7f8:	7373616c 	cmnvc	r3, #27
 7fc:	3273632f 	rsbscc	r6, r3, #-1140850688	; 0xbc000000
 800:	786c3034 	stmdavc	ip!, {r2, r4, r5, ip, sp}^
 804:	7332322d 	teqvc	r2, #-805306366	; 0xd0000002
 808:	6c2f7270 	sfmvs	f7, 4, [pc], #-448	; 650 <__code_start__-0x79b0>
 80c:	69706269 	ldmdbvs	r0!, {r0, r3, r5, r6, r9, sp, lr}^
 810:	6174732f 	cmnvs	r4, pc, lsr #6
 814:	702d6666 	eorvc	r6, sp, r6, ror #12
 818:	61766972 	cmnvs	r6, r2, ror r9
 81c:	62006574 	andvs	r6, r0, #116, 10	; 0x1d000000
 820:	00647561 	rsbeq	r7, r4, r1, ror #10
 824:	5f787561 	svcpl	0x00787561
 828:	62616e65 	rsbvs	r6, r1, #1616	; 0x650
 82c:	0073656c 	rsbseq	r6, r3, ip, ror #10
 830:	74726175 	ldrbtvc	r6, [r2], #-373	; 0xfffffe8b
 834:	7465675f 	strbtvc	r6, [r5], #-1887	; 0xfffff8a1
 838:	4e470063 	cdpmi	0, 4, cr0, cr7, cr3, {3}
 83c:	39432055 	stmdbcc	r3, {r0, r2, r4, r6, sp}^
 840:	30312039 	eorscc	r2, r1, r9, lsr r0
 844:	312e332e 			; <UNDEFINED> instruction: 0x312e332e
 848:	32303220 	eorscc	r3, r0, #32, 4
 84c:	32383031 	eorscc	r3, r8, #49, 0	; 0x31
 850:	72282034 	eorvc	r2, r8, #52, 0	; 0x34
 854:	61656c65 	cmnvs	r5, r5, ror #24
 858:	20296573 	eorcs	r6, r9, r3, ror r5
 85c:	70636d2d 	rsbvc	r6, r3, sp, lsr #26
 860:	72613d75 	rsbvc	r3, r1, #7488	; 0x1d40
 864:	3731316d 	ldrcc	r3, [r1, -sp, ror #2]!
 868:	667a6a36 			; <UNDEFINED> instruction: 0x667a6a36
 86c:	2d20732d 	stccs	3, cr7, [r0, #-180]!	; 0xffffff4c
 870:	6e75746d 	cdpvs	4, 7, cr7, cr5, cr13, {3}
 874:	72613d65 	rsbvc	r3, r1, #6464	; 0x1940
 878:	3731316d 	ldrcc	r3, [r1, -sp, ror #2]!
 87c:	667a6a36 			; <UNDEFINED> instruction: 0x667a6a36
 880:	2d20732d 	stccs	3, cr7, [r0, #-180]!	; 0xffffff4c
 884:	6f6c666d 	svcvs	0x006c666d
 888:	612d7461 			; <UNDEFINED> instruction: 0x612d7461
 88c:	733d6962 	teqvc	sp, #1605632	; 0x188000
 890:	2074666f 	rsbscs	r6, r4, pc, ror #12
 894:	72616d2d 	rsbvc	r6, r1, #2880	; 0xb40
 898:	6d2d206d 	stcvs	0, cr2, [sp, #-436]!	; 0xfffffe4c
 89c:	68637261 	stmdavs	r3!, {r0, r5, r6, r9, ip, sp, lr}^
 8a0:	6d72613d 	ldfvse	f6, [r2, #-244]!	; 0xffffff0c
 8a4:	7a6b3676 	bvc	1ace284 <__bss_end__+0x1ac3c2c>
 8a8:	67672d20 	strbvs	r2, [r7, -r0, lsr #26]!
 8ac:	2d206264 	sfmcs	f6, 4, [r0, #-400]!	; 0xfffffe70
 8b0:	2d20674f 	stccs	7, cr6, [r0, #-316]!	; 0xfffffec4
 8b4:	3d647473 	cfstrdcc	mvd7, [r4, #-460]!	; 0xfffffe34
 8b8:	39756e67 	ldmdbcc	r5!, {r0, r1, r2, r5, r6, r9, sl, fp, sp, lr}^
 8bc:	662d2039 			; <UNDEFINED> instruction: 0x662d2039
 8c0:	65657266 	strbvs	r7, [r5, #-614]!	; 0xfffffd9a
 8c4:	6e617473 	mcrvs	4, 3, r7, cr1, cr3, {3}
 8c8:	676e6964 	strbvs	r6, [lr, -r4, ror #18]!
 8cc:	746e6300 	strbtvc	r6, [lr], #-768	; 0xfffffd00
 8d0:	6175006c 	cmnvs	r5, ip, rrx
 8d4:	645f7472 	ldrbvs	r7, [pc], #-1138	; 8dc <__code_start__-0x7724>
 8d8:	62617369 	rsbvs	r7, r1, #-1543503871	; 0xa4000001
 8dc:	7500656c 	strvc	r6, [r0, #-1388]	; 0xfffffa94
 8e0:	5f747261 	svcpl	0x00747261
 8e4:	5f736168 	svcpl	0x00736168
 8e8:	61746164 	cmnvs	r4, r4, ror #2
 8ec:	49504700 	ldmdbmi	r0, {r8, r9, sl, lr}^
 8f0:	55465f4f 	strbpl	r5, [r6, #-3919]	; 0xfffff0b1
 8f4:	415f434e 	cmpmi	pc, lr, asr #6
 8f8:	0034544c 	eorseq	r5, r4, ip, asr #8
 8fc:	695f726f 	ldmdbvs	pc, {r0, r1, r2, r3, r5, r6, r9, ip, sp, lr}^	; <UNPREDICTABLE>
 900:	0032336e 	eorseq	r3, r2, lr, ror #6
 904:	61726373 	cmnvs	r2, r3, ror r3
 908:	00686374 	rsbeq	r6, r8, r4, ror r3
 90c:	74726175 	ldrbtvc	r6, [r2], #-373	; 0xfffffe8b
 910:	646e6100 	strbtvs	r6, [lr], #-256	; 0xffffff00
 914:	336e695f 	cmncc	lr, #1556480	; 0x17c000
 918:	50470032 	subpl	r0, r7, r2, lsr r0
 91c:	465f4f49 	ldrbmi	r4, [pc], -r9, asr #30
 920:	5f434e55 	svcpl	0x00434e55
 924:	55504e49 	ldrbpl	r4, [r0, #-3657]	; 0xfffff1b7
 928:	70670054 	rsbvc	r0, r7, r4, asr r0
 92c:	735f6f69 	cmpvc	pc, #420	; 0x1a4
 930:	665f7465 	ldrbvs	r7, [pc], -r5, ror #8
 934:	74636e75 	strbtvc	r6, [r3], #-3701	; 0xfffff18b
 938:	006e6f69 	rsbeq	r6, lr, r9, ror #30
 93c:	33746567 	cmncc	r4, #432013312	; 0x19c00000
 940:	6d6b0032 	stclvs	0, cr0, [fp, #-200]!	; 0xffffff38
 944:	6f6c6c61 	svcvs	0x006c6c61
 948:	65685f63 	strbvs	r5, [r8, #-3939]!	; 0xfffff09d
 94c:	735f7061 	cmpvc	pc, #97, 0	; 0x61
 950:	74726174 	ldrbtvc	r6, [r2], #-372	; 0xfffffe8c
 954:	78616d00 	stmdavc	r1!, {r8, sl, fp, sp, lr}^
 958:	79626e5f 	stmdbvc	r2!, {r0, r1, r2, r3, r4, r6, r9, sl, fp, sp, lr}^
 95c:	00736574 	rsbseq	r6, r3, r4, ror r5
 960:	6464615f 	strbtvs	r6, [r4], #-351	; 0xfffffea1
 964:	65680072 	strbvs	r0, [r8, #-114]!	; 0xffffff8e
 968:	6d5f7061 	ldclvs	0, cr7, [pc, #-388]	; 7ec <__code_start__-0x7814>
 96c:	6b007861 	blvs	1eaf8 <__bss_end__+0x144a0>
 970:	65657266 	strbvs	r7, [r5, #-614]!	; 0xfffffd9a
 974:	6c6c615f 	stfvse	f6, [ip], #-380	; 0xfffffe84
 978:	756f7200 	strbvc	r7, [pc, #-512]!	; 780 <__code_start__-0x7880>
 97c:	7075646e 	rsbsvc	r6, r5, lr, ror #8
 980:	61656800 	cmnvs	r5, r0, lsl #16
 984:	6e690070 	mcrvs	0, 3, r0, cr9, cr0, {3}
 988:	705f7469 	subsvc	r7, pc, r9, ror #8
 98c:	72666b00 	rsbvc	r6, r6, #0, 22
 990:	705f6565 	subsvc	r6, pc, r5, ror #10
 994:	6100706f 	tstvs	r0, pc, rrx
 998:	6e67696c 	vnmulvs.f16	s13, s14, s25	; <UNPREDICTABLE>
 99c:	746e656d 	strbtvc	r6, [lr], #-1389	; 0xfffffa93
 9a0:	78616d00 	stmdavc	r1!, {r8, sl, fp, sp, lr}^
 9a4:	3233755f 	eorscc	r7, r3, #398458880	; 0x17c00000
 9a8:	656e4f00 	strbvs	r4, [lr, #-3840]!	; 0xfffff100
 9ac:	6b00424d 	blvs	112e8 <__bss_end__+0x6c90>
 9b0:	6c6c616d 	stfvse	f6, [ip], #-436	; 0xfffffe4c
 9b4:	685f636f 	ldmdavs	pc, {r0, r1, r2, r3, r5, r6, r8, r9, sp, lr}^	; <UNPREDICTABLE>
 9b8:	5f706165 	svcpl	0x00706165
 9bc:	00646e65 	rsbeq	r6, r4, r5, ror #28
 9c0:	6c616d6b 	stclvs	13, cr6, [r1], #-428	; 0xfffffe54
 9c4:	5f636f6c 	svcpl	0x00636f6c
 9c8:	7a746f6e 	bvc	1d1c788 <__bss_end__+0x1d12130>
 9cc:	006f7265 	rsbeq	r7, pc, r5, ror #4
 9d0:	705f7369 	subsvc	r7, pc, r9, ror #6
 9d4:	0032776f 	eorseq	r7, r2, pc, ror #14
 9d8:	6c616d6b 	stclvs	13, cr6, [r1], #-428	; 0xfffffe54
 9dc:	2e636f6c 	cdpcs	15, 6, cr6, cr3, cr12, {3}
 9e0:	6d6b0063 	stclvs	0, cr0, [fp, #-396]!	; 0xfffffe74
 9e4:	6f6c6c61 	svcvs	0x006c6c61
 9e8:	6e695f63 	cdpvs	15, 6, cr5, cr9, cr3, {3}
 9ec:	69007469 	stmdbvs	r0, {r0, r3, r5, r6, sl, ip, sp, lr}
 9f0:	6c615f73 	stclvs	15, cr5, [r1], #-460	; 0xfffffe34
 9f4:	656e6769 	strbvs	r6, [lr, #-1897]!	; 0xfffff897
 9f8:	6d6b0064 	stclvs	0, cr0, [fp, #-400]!	; 0xfffffe70
 9fc:	6f6c6c61 	svcvs	0x006c6c61
 a00:	65685f63 	strbvs	r5, [r8, #-3939]!	; 0xfffff09d
 a04:	705f7061 	subsvc	r7, pc, r1, rrx
 a08:	6b007274 	blvs	1d3e0 <__bss_end__+0x12d88>
 a0c:	6c6c616d 	stfvse	f6, [ip], #-436	; 0xfffffe4c
 a10:	695f636f 	ldmdbvs	pc, {r0, r1, r2, r3, r5, r6, r8, r9, sp, lr}^	; <UNPREDICTABLE>
 a14:	5f74696e 	svcpl	0x0074696e
 a18:	5f746573 	svcpl	0x00746573
 a1c:	72617473 	rsbvc	r7, r1, #1929379840	; 0x73000000
 a20:	6d6b0074 	stclvs	0, cr0, [fp, #-464]!	; 0xfffffe30
 a24:	6f6c6c61 	svcvs	0x006c6c61
 a28:	6c615f63 	stclvs	15, cr5, [r1], #-396	; 0xfffffe74
 a2c:	656e6769 	strbvs	r6, [lr, #-1897]!	; 0xfffff897
 a30:	70670064 	rsbvc	r0, r7, r4, rrx
 a34:	635f6f69 	cmpvs	pc, #420	; 0x1a4
 a38:	0030726c 	eorseq	r7, r0, ip, ror #4
 a3c:	6f697067 	svcvs	0x00697067
 a40:	7465735f 	strbtvc	r7, [r5], #-863	; 0xfffffca1
 a44:	70670030 	rsbvc	r0, r7, r0, lsr r0
 a48:	775f6f69 	ldrbvc	r6, [pc, -r9, ror #30]
 a4c:	65746972 	ldrbvs	r6, [r4, #-2418]!	; 0xfffff68e
 a50:	56454400 	strbpl	r4, [r5], -r0, lsl #8
 a54:	4c41565f 	mcrrmi	6, 5, r5, r1, cr15
 a58:	67003233 	smladxvs	r0, r3, r2, r3
 a5c:	5f6f6970 	svcpl	0x006f6970
 a60:	64616572 	strbtvs	r6, [r1], #-1394	; 0xfffffa8e
 a64:	732f2e00 			; <UNDEFINED> instruction: 0x732f2e00
 a68:	672f6372 			; <UNDEFINED> instruction: 0x672f6372
 a6c:	2e6f6970 			; <UNDEFINED> instruction: 0x2e6f6970
 a70:	70670063 	rsbvc	r0, r7, r3, rrx
 a74:	735f6f69 	cmpvc	pc, #420	; 0x1a4
 a78:	695f7465 	ldmdbvs	pc, {r0, r2, r5, r6, sl, ip, sp, lr}^	; <UNPREDICTABLE>
 a7c:	7475706e 	ldrbtvc	r7, [r5], #-110	; 0xffffff92
 a80:	69706700 	ldmdbvs	r0!, {r8, r9, sl, sp, lr}^
 a84:	65735f6f 	ldrbvs	r5, [r3, #-3951]!	; 0xfffff091
 a88:	666f5f74 	uqsub16vs	r5, pc, r4	; <UNPREDICTABLE>
 a8c:	70670066 	rsbvc	r0, r7, r6, rrx
 a90:	735f6f69 	cmpvc	pc, #420	; 0x1a4
 a94:	6f5f7465 	svcvs	0x005f7465
 a98:	75707475 	ldrbvc	r7, [r0, #-1141]!	; 0xfffffb8b
 a9c:	70670074 	rsbvc	r0, r7, r4, ror r0
 aa0:	665f6f69 	ldrbvs	r6, [pc], -r9, ror #30
 aa4:	5f636e75 	svcpl	0x00636e75
 aa8:	70670074 	rsbvc	r0, r7, r4, ror r0
 aac:	6c5f6f69 	mrrcvs	15, 6, r6, pc, cr9	; <UNPREDICTABLE>
 ab0:	00307665 	eorseq	r7, r0, r5, ror #12
 ab4:	6b6e6162 	blvs	1b99044 <__bss_end__+0x1b8e9ec>
 ab8:	69706700 	ldmdbvs	r0!, {r8, r9, sl, sp, lr}^
 abc:	65735f6f 	ldrbvs	r5, [r3, #-3951]!	; 0xfffff091
 ac0:	6e6f5f74 	mcrvs	15, 3, r5, cr15, cr4, {3}
 ac4:	6c2f2e00 	stcvs	14, cr2, [pc], #-0	; acc <__code_start__-0x7534>
 ac8:	2f636269 	svccs	0x00636269
 acc:	63727473 	cmnvs	r2, #1929379840	; 0x73000000
 ad0:	632e7461 			; <UNDEFINED> instruction: 0x632e7461
 ad4:	73656400 	cmnvc	r5, #0, 8
 ad8:	2f2e0074 	svccs	0x002e0074
 adc:	6362696c 	cmnvs	r2, #108, 18	; 0x1b0000
 ae0:	7274732f 	rsbsvc	r7, r4, #-1140850688	; 0xbc000000
 ae4:	2e706d63 	cdpcs	13, 7, cr6, cr0, cr3, {3}
 ae8:	2f2e0063 	svccs	0x002e0063
 aec:	6362696c 	cmnvs	r2, #108, 18	; 0x1b0000
 af0:	7274732f 	rsbsvc	r7, r4, #-1140850688	; 0xbc000000
 af4:	2e797063 	cdpcs	0, 7, cr7, cr9, cr3, {3}
 af8:	2f2e0063 	svccs	0x002e0063
 afc:	6362696c 	cmnvs	r2, #108, 18	; 0x1b0000
 b00:	7274732f 	rsbsvc	r7, r4, #-1140850688	; 0xbc000000
 b04:	706d636e 	rsbvc	r6, sp, lr, ror #6
 b08:	2e00632e 	cdpcs	3, 0, cr6, cr0, cr14, {1}
 b0c:	6174732f 	cmnvs	r4, pc, lsr #6
 b10:	732d6666 			; <UNDEFINED> instruction: 0x732d6666
 b14:	642f6372 	strtvs	r6, [pc], #-882	; b1c <__code_start__-0x74e4>
 b18:	75616665 	strbvc	r6, [r1, #-1637]!	; 0xfffff99b
 b1c:	722d746c 	eorvc	r7, sp, #108, 8	; 0x6c000000
 b20:	6f6f6265 	svcvs	0x006f6265
 b24:	61632d74 	smcvs	13012	; 0x32d4
 b28:	756f6c6c 	strbvc	r6, [pc, #-3180]!	; fffffec4 <__bss_end__+0xffff586c>
 b2c:	00632e74 	rsbeq	r2, r3, r4, ror lr

Disassembly of section .debug_frame:

00000000 <.debug_frame>:
   0:	0000000c 	andeq	r0, r0, ip
   4:	ffffffff 			; <UNDEFINED> instruction: 0xffffffff
   8:	7c020001 	stcvc	0, cr0, [r2], {1}
   c:	000d0c0e 	andeq	r0, sp, lr, lsl #24
  10:	00000020 	andeq	r0, r0, r0, lsr #32
  14:	00000000 	andeq	r0, r0, r0
  18:	00008038 	andeq	r8, r0, r8, lsr r0
  1c:	00000194 	muleq	r0, r4, r1
  20:	84140e42 	ldrhi	r0, [r4], #-3650	; 0xfffff1be
  24:	86048505 	strhi	r8, [r4], -r5, lsl #10
  28:	8e028703 	cdphi	7, 0, cr8, cr2, cr3, {0}
  2c:	580e4201 	stmdapl	lr, {r0, r9, lr}
  30:	140eba02 	strne	fp, [lr], #-2562	; 0xfffff5fe
  34:	0000001c 	andeq	r0, r0, ip, lsl r0
  38:	00000000 	andeq	r0, r0, r0
  3c:	000081cc 	andeq	r8, r0, ip, asr #3
  40:	000000a0 	andeq	r0, r0, r0, lsr #1
  44:	840c0e42 	strhi	r0, [ip], #-3650	; 0xfffff1be
  48:	8e028503 	cfsh32hi	mvfx8, mvfx2, #3
  4c:	180e4201 	stmdane	lr, {r0, r9, lr}
  50:	000c0e7c 	andeq	r0, ip, ip, ror lr
  54:	0000000c 	andeq	r0, r0, ip
  58:	ffffffff 			; <UNDEFINED> instruction: 0xffffffff
  5c:	7c020001 	stcvc	0, cr0, [r2], {1}
  60:	000d0c0e 	andeq	r0, sp, lr, lsl #24
  64:	00000014 	andeq	r0, r0, r4, lsl r0
  68:	00000054 	andeq	r0, r0, r4, asr r0
  6c:	0000826c 	andeq	r8, r0, ip, ror #4
  70:	000000bc 	strheq	r0, [r0], -ip
  74:	8e040e42 	cdphi	14, 0, cr0, cr4, cr2, {2}
  78:	00000001 	andeq	r0, r0, r1
  7c:	00000014 	andeq	r0, r0, r4, lsl r0
  80:	00000054 	andeq	r0, r0, r4, asr r0
  84:	00008328 	andeq	r8, r0, r8, lsr #6
  88:	00000044 	andeq	r0, r0, r4, asr #32
  8c:	84080e42 	strhi	r0, [r8], #-3650	; 0xfffff1be
  90:	00018e02 	andeq	r8, r1, r2, lsl #28
  94:	00000014 	andeq	r0, r0, r4, lsl r0
  98:	00000054 	andeq	r0, r0, r4, asr r0
  9c:	0000836c 	andeq	r8, r0, ip, ror #6
  a0:	000000ac 	andeq	r0, r0, ip, lsr #1
  a4:	84080e42 	strhi	r0, [r8], #-3650	; 0xfffff1be
  a8:	00018e02 	andeq	r8, r1, r2, lsl #28
  ac:	0000000c 	andeq	r0, r0, ip
  b0:	ffffffff 			; <UNDEFINED> instruction: 0xffffffff
  b4:	7c020001 	stcvc	0, cr0, [r2], {1}
  b8:	000d0c0e 	andeq	r0, sp, lr, lsl #24
  bc:	00000014 	andeq	r0, r0, r4, lsl r0
  c0:	000000ac 	andeq	r0, r0, ip, lsr #1
  c4:	00008418 	andeq	r8, r0, r8, lsl r4
  c8:	0000000c 	andeq	r0, r0, ip
  cc:	84080e42 	strhi	r0, [r8], #-3650	; 0xfffff1be
  d0:	00018e02 	andeq	r8, r1, r2, lsl #28
  d4:	0000000c 	andeq	r0, r0, ip
  d8:	ffffffff 			; <UNDEFINED> instruction: 0xffffffff
  dc:	7c020001 	stcvc	0, cr0, [r2], {1}
  e0:	000d0c0e 	andeq	r0, sp, lr, lsl #24
  e4:	0000000c 	andeq	r0, r0, ip
  e8:	000000d4 	ldrdeq	r0, [r0], -r4
  ec:	00008424 	andeq	r8, r0, r4, lsr #8
  f0:	00000010 	andeq	r0, r0, r0, lsl r0
  f4:	0000000c 	andeq	r0, r0, ip
  f8:	000000d4 	ldrdeq	r0, [r0], -r4
  fc:	00008434 	andeq	r8, r0, r4, lsr r4
 100:	00000010 	andeq	r0, r0, r0, lsl r0
 104:	00000020 	andeq	r0, r0, r0, lsr #32
 108:	000000d4 	ldrdeq	r0, [r0], -r4
 10c:	00008444 	andeq	r8, r0, r4, asr #8
 110:	000000a4 	andeq	r0, r0, r4, lsr #1
 114:	840c0e42 	strhi	r0, [ip], #-3650	; 0xfffff1be
 118:	8e028503 	cfsh32hi	mvfx8, mvfx2, #3
 11c:	180e4201 	stmdane	lr, {r0, r9, lr}
 120:	0c0e0a5e 			; <UNDEFINED> instruction: 0x0c0e0a5e
 124:	00000b42 	andeq	r0, r0, r2, asr #22
 128:	0000000c 	andeq	r0, r0, ip
 12c:	000000d4 	ldrdeq	r0, [r0], -r4
 130:	000084e8 	andeq	r8, r0, r8, ror #9
 134:	00000008 	andeq	r0, r0, r8
 138:	00000014 	andeq	r0, r0, r4, lsl r0
 13c:	000000d4 	ldrdeq	r0, [r0], -r4
 140:	000084f0 	strdeq	r8, [r0], -r0
 144:	00000018 	andeq	r0, r0, r8, lsl r0
 148:	84080e42 	strhi	r0, [r8], #-3650	; 0xfffff1be
 14c:	00018e02 	andeq	r8, r1, r2, lsl #28
 150:	0000000c 	andeq	r0, r0, ip
 154:	000000d4 	ldrdeq	r0, [r0], -r4
 158:	00008508 	andeq	r8, r0, r8, lsl #10
 15c:	0000003c 	andeq	r0, r0, ip, lsr r0
 160:	00000018 	andeq	r0, r0, r8, lsl r0
 164:	000000d4 	ldrdeq	r0, [r0], -r4
 168:	00008544 	andeq	r8, r0, r4, asr #10
 16c:	00000060 	andeq	r0, r0, r0, rrx
 170:	84100e42 	ldrhi	r0, [r0], #-3650	; 0xfffff1be
 174:	86038504 	strhi	r8, [r3], -r4, lsl #10
 178:	00018e02 	andeq	r8, r1, r2, lsl #28
 17c:	00000024 	andeq	r0, r0, r4, lsr #32
 180:	000000d4 	ldrdeq	r0, [r0], -r4
 184:	000085a4 	andeq	r8, r0, r4, lsr #11
 188:	000000ec 	andeq	r0, r0, ip, ror #1
 18c:	84180e42 	ldrhi	r0, [r8], #-3650	; 0xfffff1be
 190:	86058506 	strhi	r8, [r5], -r6, lsl #10
 194:	88038704 	stmdahi	r3, {r2, r8, r9, sl, pc}
 198:	42018e02 	andmi	r8, r1, #2, 28
 19c:	0a7c300e 	beq	1f0c1dc <__bss_end__+0x1f01b84>
 1a0:	0b42180e 	bleq	10861e0 <__bss_end__+0x107bb88>
 1a4:	00000020 	andeq	r0, r0, r0, lsr #32
 1a8:	000000d4 	ldrdeq	r0, [r0], -r4
 1ac:	00008690 	muleq	r0, r0, r6
 1b0:	00000090 	muleq	r0, r0, r0
 1b4:	84100e42 	ldrhi	r0, [r0], #-3650	; 0xfffff1be
 1b8:	86038504 	strhi	r8, [r3], -r4, lsl #10
 1bc:	42018e02 	andmi	r8, r1, #2, 28
 1c0:	0e7c200e 	cdpeq	0, 7, cr2, cr12, cr14, {0}
 1c4:	00000010 	andeq	r0, r0, r0, lsl r0
 1c8:	0000000c 	andeq	r0, r0, ip
 1cc:	ffffffff 			; <UNDEFINED> instruction: 0xffffffff
 1d0:	7c020001 	stcvc	0, cr0, [r2], {1}
 1d4:	000d0c0e 	andeq	r0, sp, lr, lsl #24
 1d8:	00000014 	andeq	r0, r0, r4, lsl r0
 1dc:	000001c8 	andeq	r0, r0, r8, asr #3
 1e0:	00008720 	andeq	r8, r0, r0, lsr #14
 1e4:	00000078 	andeq	r0, r0, r8, ror r0
 1e8:	84080e42 	strhi	r0, [r8], #-3650	; 0xfffff1be
 1ec:	00018e02 	andeq	r8, r1, r2, lsl #28
 1f0:	0000000c 	andeq	r0, r0, ip
 1f4:	ffffffff 			; <UNDEFINED> instruction: 0xffffffff
 1f8:	7c020001 	stcvc	0, cr0, [r2], {1}
 1fc:	000d0c0e 	andeq	r0, sp, lr, lsl #24
 200:	00000034 	andeq	r0, r0, r4, lsr r0
 204:	000001f0 	strdeq	r0, [r0], -r0	; <UNPREDICTABLE>
 208:	00008798 	muleq	r0, r8, r7
 20c:	00000058 	andeq	r0, r0, r8, asr r0
 210:	80100e42 	andshi	r0, r0, r2, asr #28
 214:	82038104 	andhi	r8, r3, #1
 218:	42018302 	andmi	r8, r1, #134217728	; 0x8000000
 21c:	07841c0e 	streq	r1, [r4, lr, lsl #24]
 220:	058e0685 	streq	r0, [lr, #1669]	; 0x685
 224:	5a280e44 	bpl	a03b3c <__bss_end__+0x9f94e4>
 228:	ce421c0e 	cdpgt	12, 4, cr1, cr2, cr14, {0}
 22c:	100ec4c5 	andne	ip, lr, r5, asr #9
 230:	c1c2c342 	bicgt	ip, r2, r2, asr #6
 234:	00000ec0 	andeq	r0, r0, r0, asr #29
 238:	0000000c 	andeq	r0, r0, ip
 23c:	ffffffff 			; <UNDEFINED> instruction: 0xffffffff
 240:	7c020001 	stcvc	0, cr0, [r2], {1}
 244:	000d0c0e 	andeq	r0, sp, lr, lsl #24
 248:	00000014 	andeq	r0, r0, r4, lsl r0
 24c:	00000238 	andeq	r0, r0, r8, lsr r2
 250:	000087f0 	strdeq	r8, [r0], -r0
 254:	00000014 	andeq	r0, r0, r4, lsl r0
 258:	84080e42 	strhi	r0, [r8], #-3650	; 0xfffff1be
 25c:	00018e02 	andeq	r8, r1, r2, lsl #28
 260:	0000000c 	andeq	r0, r0, ip
 264:	00000238 	andeq	r0, r0, r8, lsr r2
 268:	00008804 	andeq	r8, r0, r4, lsl #16
 26c:	00000018 	andeq	r0, r0, r8, lsl r0
 270:	0000000c 	andeq	r0, r0, ip
 274:	00000238 	andeq	r0, r0, r8, lsr r2
 278:	0000881c 	andeq	r8, r0, ip, lsl r8
 27c:	00000010 	andeq	r0, r0, r0, lsl r0
 280:	0000000c 	andeq	r0, r0, ip
 284:	ffffffff 			; <UNDEFINED> instruction: 0xffffffff
 288:	7c020001 	stcvc	0, cr0, [r2], {1}
 28c:	000d0c0e 	andeq	r0, sp, lr, lsl #24
 290:	00000018 	andeq	r0, r0, r8, lsl r0
 294:	00000280 	andeq	r0, r0, r0, lsl #5
 298:	0000882c 	andeq	r8, r0, ip, lsr #16
 29c:	00000038 	andeq	r0, r0, r8, lsr r0
 2a0:	84100e42 	ldrhi	r0, [r0], #-3650	; 0xfffff1be
 2a4:	86038504 	strhi	r8, [r3], -r4, lsl #10
 2a8:	00018e02 	andeq	r8, r1, r2, lsl #28
 2ac:	0000000c 	andeq	r0, r0, ip
 2b0:	ffffffff 			; <UNDEFINED> instruction: 0xffffffff
 2b4:	7c020001 	stcvc	0, cr0, [r2], {1}
 2b8:	000d0c0e 	andeq	r0, sp, lr, lsl #24
 2bc:	0000002c 	andeq	r0, r0, ip, lsr #32
 2c0:	000002ac 	andeq	r0, r0, ip, lsr #5
 2c4:	00008864 	andeq	r8, r0, r4, ror #16
 2c8:	00000328 	andeq	r0, r0, r8, lsr #6
 2cc:	84180e42 	ldrhi	r0, [r8], #-3650	; 0xfffff1be
 2d0:	86058506 	strhi	r8, [r5], -r6, lsl #10
 2d4:	88038704 	stmdahi	r3, {r2, r8, r9, sl, pc}
 2d8:	46018e02 	strmi	r8, [r1], -r2, lsl #28
 2dc:	c002600e 	andgt	r6, r2, lr
 2e0:	42180e0a 	andsmi	r0, r8, #160	; 0xa0
 2e4:	0a8e020b 	beq	fe380b18 <__bss_end__+0xfe3764c0>
 2e8:	0b42180e 	bleq	1086328 <__bss_end__+0x107bcd0>
 2ec:	00000014 	andeq	r0, r0, r4, lsl r0
 2f0:	000002ac 	andeq	r0, r0, ip, lsr #5
 2f4:	00008b8c 	andeq	r8, r0, ip, lsl #23
 2f8:	00000060 	andeq	r0, r0, r0, rrx
 2fc:	8e040e52 	mcrhi	14, 0, r0, cr4, cr2, {2}
 300:	100e4401 	andne	r4, lr, r1, lsl #8
 304:	0000002c 	andeq	r0, r0, ip, lsr #32
 308:	000002ac 	andeq	r0, r0, ip, lsr #5
 30c:	00008bec 	andeq	r8, r0, ip, ror #23
 310:	0000062c 	andeq	r0, r0, ip, lsr #12
 314:	84240e42 	strthi	r0, [r4], #-3650	; 0xfffff1be
 318:	86088509 	strhi	r8, [r8], -r9, lsl #10
 31c:	88068707 	stmdahi	r6, {r0, r1, r2, r8, r9, sl, pc}
 320:	8a048905 	bhi	12273c <__bss_end__+0x1180e4>
 324:	8e028b03 	vmlahi.f64	d8, d2, d3
 328:	c00e5201 	andgt	r5, lr, r1, lsl #4
 32c:	0a860202 	beq	fe180b3c <__bss_end__+0xfe1764e4>
 330:	0b42240e 	bleq	1089370 <__bss_end__+0x107ed18>
 334:	0000000c 	andeq	r0, r0, ip
 338:	ffffffff 			; <UNDEFINED> instruction: 0xffffffff
 33c:	7c020001 	stcvc	0, cr0, [r2], {1}
 340:	000d0c0e 	andeq	r0, sp, lr, lsl #24
 344:	00000014 	andeq	r0, r0, r4, lsl r0
 348:	00000334 	andeq	r0, r0, r4, lsr r3
 34c:	00009218 	andeq	r9, r0, r8, lsl r2
 350:	0000002c 	andeq	r0, r0, ip, lsr #32
 354:	84080e44 	strhi	r0, [r8], #-3652	; 0xfffff1bc
 358:	00018e02 	andeq	r8, r1, r2, lsl #28
 35c:	0000000c 	andeq	r0, r0, ip
 360:	ffffffff 			; <UNDEFINED> instruction: 0xffffffff
 364:	7c020001 	stcvc	0, cr0, [r2], {1}
 368:	000d0c0e 	andeq	r0, sp, lr, lsl #24
 36c:	00000018 	andeq	r0, r0, r8, lsl r0
 370:	0000035c 	andeq	r0, r0, ip, asr r3
 374:	00009244 	andeq	r9, r0, r4, asr #4
 378:	000000f8 	strdeq	r0, [r0], -r8
 37c:	84100e42 	ldrhi	r0, [r0], #-3650	; 0xfffff1be
 380:	86038504 	strhi	r8, [r3], -r4, lsl #10
 384:	00018e02 	andeq	r8, r1, r2, lsl #28
 388:	0000000c 	andeq	r0, r0, ip
 38c:	ffffffff 			; <UNDEFINED> instruction: 0xffffffff
 390:	7c020001 	stcvc	0, cr0, [r2], {1}
 394:	000d0c0e 	andeq	r0, sp, lr, lsl #24
 398:	0000000c 	andeq	r0, r0, ip
 39c:	00000388 	andeq	r0, r0, r8, lsl #7
 3a0:	0000933c 	andeq	r9, r0, ip, lsr r3
 3a4:	00000004 	andeq	r0, r0, r4
 3a8:	0000000c 	andeq	r0, r0, ip
 3ac:	ffffffff 			; <UNDEFINED> instruction: 0xffffffff
 3b0:	7c020001 	stcvc	0, cr0, [r2], {1}
 3b4:	000d0c0e 	andeq	r0, sp, lr, lsl #24
 3b8:	0000000c 	andeq	r0, r0, ip
 3bc:	000003a8 	andeq	r0, r0, r8, lsr #7
 3c0:	00009340 	andeq	r9, r0, r0, asr #6
 3c4:	00000018 	andeq	r0, r0, r8, lsl r0
 3c8:	0000000c 	andeq	r0, r0, ip
 3cc:	000003a8 	andeq	r0, r0, r8, lsr #7
 3d0:	00009358 	andeq	r9, r0, r8, asr r3
 3d4:	00000014 	andeq	r0, r0, r4, lsl r0
 3d8:	00000014 	andeq	r0, r0, r4, lsl r0
 3dc:	000003a8 	andeq	r0, r0, r8, lsr #7
 3e0:	0000936c 	andeq	r9, r0, ip, ror #6
 3e4:	00000060 	andeq	r0, r0, r0, rrx
 3e8:	84080e42 	strhi	r0, [r8], #-3650	; 0xfffff1be
 3ec:	00018e02 	andeq	r8, r1, r2, lsl #28
 3f0:	0000000c 	andeq	r0, r0, ip
 3f4:	ffffffff 			; <UNDEFINED> instruction: 0xffffffff
 3f8:	7c020001 	stcvc	0, cr0, [r2], {1}
 3fc:	000d0c0e 	andeq	r0, sp, lr, lsl #24
 400:	0000000c 	andeq	r0, r0, ip
 404:	000003f0 	strdeq	r0, [r0], -r0	; <UNPREDICTABLE>
 408:	000093cc 	andeq	r9, r0, ip, asr #7
 40c:	0000000c 	andeq	r0, r0, ip
 410:	00000014 	andeq	r0, r0, r4, lsl r0
 414:	000003f0 	strdeq	r0, [r0], -r0	; <UNPREDICTABLE>
 418:	000093d8 	ldrdeq	r9, [r0], -r8
 41c:	00000024 	andeq	r0, r0, r4, lsr #32
 420:	84080e42 	strhi	r0, [r8], #-3650	; 0xfffff1be
 424:	00018e02 	andeq	r8, r1, r2, lsl #28
 428:	0000001c 	andeq	r0, r0, ip, lsl r0
 42c:	000003f0 	strdeq	r0, [r0], -r0	; <UNPREDICTABLE>
 430:	000093fc 	strdeq	r9, [r0], -ip
 434:	00000048 	andeq	r0, r0, r8, asr #32
 438:	84180e42 	ldrhi	r0, [r8], #-3650	; 0xfffff1be
 43c:	86058506 	strhi	r8, [r5], -r6, lsl #10
 440:	88038704 	stmdahi	r3, {r2, r8, r9, sl, pc}
 444:	00018e02 	andeq	r8, r1, r2, lsl #28
 448:	0000001c 	andeq	r0, r0, ip, lsl r0
 44c:	000003f0 	strdeq	r0, [r0], -r0	; <UNPREDICTABLE>
 450:	00009444 	andeq	r9, r0, r4, asr #8
 454:	00000050 	andeq	r0, r0, r0, asr r0
 458:	84180e42 	ldrhi	r0, [r8], #-3650	; 0xfffff1be
 45c:	86058506 	strhi	r8, [r5], -r6, lsl #10
 460:	88038704 	stmdahi	r3, {r2, r8, r9, sl, pc}
 464:	00018e02 	andeq	r8, r1, r2, lsl #28
 468:	0000001c 	andeq	r0, r0, ip, lsl r0
 46c:	000003f0 	strdeq	r0, [r0], -r0	; <UNPREDICTABLE>
 470:	00009494 	muleq	r0, r4, r4
 474:	00000054 	andeq	r0, r0, r4, asr r0
 478:	84180e42 	ldrhi	r0, [r8], #-3650	; 0xfffff1be
 47c:	86058506 	strhi	r8, [r5], -r6, lsl #10
 480:	88038704 	stmdahi	r3, {r2, r8, r9, sl, pc}
 484:	00018e02 	andeq	r8, r1, r2, lsl #28
 488:	0000000c 	andeq	r0, r0, ip
 48c:	ffffffff 			; <UNDEFINED> instruction: 0xffffffff
 490:	7c020001 	stcvc	0, cr0, [r2], {1}
 494:	000d0c0e 	andeq	r0, sp, lr, lsl #24
 498:	00000018 	andeq	r0, r0, r8, lsl r0
 49c:	00000488 	andeq	r0, r0, r8, lsl #9
 4a0:	000094e8 	andeq	r9, r0, r8, ror #9
 4a4:	00000020 	andeq	r0, r0, r0, lsr #32
 4a8:	84100e42 	ldrhi	r0, [r0], #-3650	; 0xfffff1be
 4ac:	86038504 	strhi	r8, [r3], -r4, lsl #10
 4b0:	00018e02 	andeq	r8, r1, r2, lsl #28
 4b4:	00000018 	andeq	r0, r0, r8, lsl r0
 4b8:	00000488 	andeq	r0, r0, r8, lsl #9
 4bc:	00009508 	andeq	r9, r0, r8, lsl #10
 4c0:	00000020 	andeq	r0, r0, r0, lsr #32
 4c4:	84100e42 	ldrhi	r0, [r0], #-3650	; 0xfffff1be
 4c8:	86038504 	strhi	r8, [r3], -r4, lsl #10
 4cc:	00018e02 	andeq	r8, r1, r2, lsl #28
 4d0:	00000014 	andeq	r0, r0, r4, lsl r0
 4d4:	00000488 	andeq	r0, r0, r8, lsl #9
 4d8:	00009528 	andeq	r9, r0, r8, lsr #10
 4dc:	000000b0 	strheq	r0, [r0], -r0	; <UNPREDICTABLE>
 4e0:	84080e42 	strhi	r0, [r8], #-3650	; 0xfffff1be
 4e4:	00018e02 	andeq	r8, r1, r2, lsl #28
 4e8:	00000014 	andeq	r0, r0, r4, lsl r0
 4ec:	00000488 	andeq	r0, r0, r8, lsl #9
 4f0:	000095d8 	ldrdeq	r9, [r0], -r8
 4f4:	00000018 	andeq	r0, r0, r8, lsl r0
 4f8:	84080e42 	strhi	r0, [r8], #-3650	; 0xfffff1be
 4fc:	00018e02 	andeq	r8, r1, r2, lsl #28
 500:	00000014 	andeq	r0, r0, r4, lsl r0
 504:	00000488 	andeq	r0, r0, r8, lsl #9
 508:	000095f0 	strdeq	r9, [r0], -r0
 50c:	00000020 	andeq	r0, r0, r0, lsr #32
 510:	84080e42 	strhi	r0, [r8], #-3650	; 0xfffff1be
 514:	00018e02 	andeq	r8, r1, r2, lsl #28
 518:	00000014 	andeq	r0, r0, r4, lsl r0
 51c:	00000488 	andeq	r0, r0, r8, lsl #9
 520:	00009610 	andeq	r9, r0, r0, lsl r6
 524:	00000030 	andeq	r0, r0, r0, lsr r0
 528:	84080e42 	strhi	r0, [r8], #-3650	; 0xfffff1be
 52c:	00018e02 	andeq	r8, r1, r2, lsl #28
 530:	00000014 	andeq	r0, r0, r4, lsl r0
 534:	00000488 	andeq	r0, r0, r8, lsl #9
 538:	00009640 	andeq	r9, r0, r0, asr #12
 53c:	00000030 	andeq	r0, r0, r0, lsr r0
 540:	84080e42 	strhi	r0, [r8], #-3650	; 0xfffff1be
 544:	00018e02 	andeq	r8, r1, r2, lsl #28
 548:	00000014 	andeq	r0, r0, r4, lsl r0
 54c:	00000488 	andeq	r0, r0, r8, lsl #9
 550:	00009670 	andeq	r9, r0, r0, ror r6
 554:	00000010 	andeq	r0, r0, r0, lsl r0
 558:	84080e42 	strhi	r0, [r8], #-3650	; 0xfffff1be
 55c:	00018e02 	andeq	r8, r1, r2, lsl #28
 560:	00000014 	andeq	r0, r0, r4, lsl r0
 564:	00000488 	andeq	r0, r0, r8, lsl #9
 568:	00009680 	andeq	r9, r0, r0, lsl #13
 56c:	00000020 	andeq	r0, r0, r0, lsr #32
 570:	84080e42 	strhi	r0, [r8], #-3650	; 0xfffff1be
 574:	00018e02 	andeq	r8, r1, r2, lsl #28
 578:	00000014 	andeq	r0, r0, r4, lsl r0
 57c:	00000488 	andeq	r0, r0, r8, lsl #9
 580:	000096a0 	andeq	r9, r0, r0, lsr #13
 584:	00000014 	andeq	r0, r0, r4, lsl r0
 588:	84080e42 	strhi	r0, [r8], #-3650	; 0xfffff1be
 58c:	00018e02 	andeq	r8, r1, r2, lsl #28
 590:	00000014 	andeq	r0, r0, r4, lsl r0
 594:	00000488 	andeq	r0, r0, r8, lsl #9
 598:	000096b4 			; <UNDEFINED> instruction: 0x000096b4
 59c:	00000024 	andeq	r0, r0, r4, lsr #32
 5a0:	84080e42 	strhi	r0, [r8], #-3650	; 0xfffff1be
 5a4:	00018e02 	andeq	r8, r1, r2, lsl #28
 5a8:	0000000c 	andeq	r0, r0, ip
 5ac:	ffffffff 			; <UNDEFINED> instruction: 0xffffffff
 5b0:	7c020001 	stcvc	0, cr0, [r2], {1}
 5b4:	000d0c0e 	andeq	r0, sp, lr, lsl #24
 5b8:	0000000c 	andeq	r0, r0, ip
 5bc:	000005a8 	andeq	r0, r0, r8, lsr #11
 5c0:	000096d8 	ldrdeq	r9, [r0], -r8
 5c4:	00000010 	andeq	r0, r0, r0, lsl r0
 5c8:	0000000c 	andeq	r0, r0, ip
 5cc:	000005a8 	andeq	r0, r0, r8, lsr #11
 5d0:	000096e8 	andeq	r9, r0, r8, ror #13
 5d4:	00000010 	andeq	r0, r0, r0, lsl r0
 5d8:	0000000c 	andeq	r0, r0, ip
 5dc:	000005a8 	andeq	r0, r0, r8, lsr #11
 5e0:	000096f8 	strdeq	r9, [r0], -r8
 5e4:	00000010 	andeq	r0, r0, r0, lsl r0
 5e8:	0000001c 	andeq	r0, r0, ip, lsl r0
 5ec:	000005a8 	andeq	r0, r0, r8, lsr #11
 5f0:	00009708 	andeq	r9, r0, r8, lsl #14
 5f4:	0000009c 	muleq	r0, ip, r0
 5f8:	8e040e42 	cdphi	14, 0, cr0, cr4, cr2, {2}
 5fc:	100e4201 	andne	r4, lr, r1, lsl #4
 600:	040e0a58 	streq	r0, [lr], #-2648	; 0xfffff5a8
 604:	00000b42 	andeq	r0, r0, r2, asr #22
 608:	00000014 	andeq	r0, r0, r4, lsl r0
 60c:	000005a8 	andeq	r0, r0, r8, lsr #11
 610:	000097a4 	andeq	r9, r0, r4, lsr #15
 614:	00000058 	andeq	r0, r0, r8, asr r0
 618:	84080e42 	strhi	r0, [r8], #-3650	; 0xfffff1be
 61c:	00018e02 	andeq	r8, r1, r2, lsl #28
 620:	0000001c 	andeq	r0, r0, ip, lsl r0
 624:	000005a8 	andeq	r0, r0, r8, lsr #11
 628:	000097fc 	strdeq	r9, [r0], -ip
 62c:	00000098 	muleq	r0, r8, r0
 630:	8e040e42 	cdphi	14, 0, cr0, cr4, cr2, {2}
 634:	100e4201 	andne	r4, lr, r1, lsl #4
 638:	040e0a58 	streq	r0, [lr], #-2648	; 0xfffff5a8
 63c:	00000b42 	andeq	r0, r0, r2, asr #22
 640:	00000020 	andeq	r0, r0, r0, lsr #32
 644:	000005a8 	andeq	r0, r0, r8, lsr #11
 648:	00009894 	muleq	r0, r4, r8
 64c:	00000064 	andeq	r0, r0, r4, rrx
 650:	840c0e42 	strhi	r0, [ip], #-3650	; 0xfffff1be
 654:	8e028503 	cfsh32hi	mvfx8, mvfx2, #3
 658:	180e4201 	stmdane	lr, {r0, r9, lr}
 65c:	0c0e0a54 			; <UNDEFINED> instruction: 0x0c0e0a54
 660:	00000b42 	andeq	r0, r0, r2, asr #22
 664:	0000001c 	andeq	r0, r0, ip, lsl r0
 668:	000005a8 	andeq	r0, r0, r8, lsr #11
 66c:	000098f8 	strdeq	r9, [r0], -r8
 670:	00000118 	andeq	r0, r0, r8, lsl r1
 674:	8e040e42 	cdphi	14, 0, cr0, cr4, cr2, {2}
 678:	100e4201 	andne	r4, lr, r1, lsl #4
 67c:	040e0a6c 	streq	r0, [lr], #-2668	; 0xfffff594
 680:	00000b42 	andeq	r0, r0, r2, asr #22
 684:	0000000c 	andeq	r0, r0, ip
 688:	000005a8 	andeq	r0, r0, r8, lsr #11
 68c:	00009a10 	andeq	r9, r0, r0, lsl sl
 690:	00000004 	andeq	r0, r0, r4
 694:	0000000c 	andeq	r0, r0, ip
 698:	000005a8 	andeq	r0, r0, r8, lsr #11
 69c:	00009a14 	andeq	r9, r0, r4, lsl sl
 6a0:	00000014 	andeq	r0, r0, r4, lsl r0
 6a4:	00000014 	andeq	r0, r0, r4, lsl r0
 6a8:	000005a8 	andeq	r0, r0, r8, lsr #11
 6ac:	00009a28 	andeq	r9, r0, r8, lsr #20
 6b0:	00000060 	andeq	r0, r0, r0, rrx
 6b4:	8e040e58 	mcrhi	14, 0, r0, cr4, cr8, {2}
 6b8:	100e4201 	andne	r4, lr, r1, lsl #4
 6bc:	0000000c 	andeq	r0, r0, ip
 6c0:	ffffffff 			; <UNDEFINED> instruction: 0xffffffff
 6c4:	7c020001 	stcvc	0, cr0, [r2], {1}
 6c8:	000d0c0e 	andeq	r0, sp, lr, lsl #24
 6cc:	00000020 	andeq	r0, r0, r0, lsr #32
 6d0:	000006bc 			; <UNDEFINED> instruction: 0x000006bc
 6d4:	00009a88 	andeq	r9, r0, r8, lsl #21
 6d8:	00000060 	andeq	r0, r0, r0, rrx
 6dc:	84100e48 	ldrhi	r0, [r0], #-3656	; 0xfffff1b8
 6e0:	86038504 	strhi	r8, [r3], -r4, lsl #10
 6e4:	64018e02 	strvs	r8, [r1], #-3586	; 0xfffff1fe
 6e8:	c4c5c6ce 	strbgt	ip, [r5], #1742	; 0x6ce
 6ec:	0000000e 	andeq	r0, r0, lr
 6f0:	00000020 	andeq	r0, r0, r0, lsr #32
 6f4:	000006bc 			; <UNDEFINED> instruction: 0x000006bc
 6f8:	00009ae8 	andeq	r9, r0, r8, ror #21
 6fc:	00000058 	andeq	r0, r0, r8, asr r0
 700:	84100e46 	ldrhi	r0, [r0], #-3654	; 0xfffff1ba
 704:	86038504 	strhi	r8, [r3], -r4, lsl #10
 708:	62018e02 	andvs	r8, r1, #2, 28
 70c:	c4c5c6ce 	strbgt	ip, [r5], #1742	; 0x6ce
 710:	0000000e 	andeq	r0, r0, lr
 714:	0000000c 	andeq	r0, r0, ip
 718:	000006bc 			; <UNDEFINED> instruction: 0x000006bc
 71c:	00009b40 	andeq	r9, r0, r0, asr #22
 720:	00000018 	andeq	r0, r0, r8, lsl r0
 724:	0000000c 	andeq	r0, r0, ip
 728:	000006bc 			; <UNDEFINED> instruction: 0x000006bc
 72c:	00009b58 	andeq	r9, r0, r8, asr fp
 730:	00000018 	andeq	r0, r0, r8, lsl r0
 734:	00000020 	andeq	r0, r0, r0, lsr #32
 738:	000006bc 			; <UNDEFINED> instruction: 0x000006bc
 73c:	00009b70 	andeq	r9, r0, r0, ror fp
 740:	00000058 	andeq	r0, r0, r8, asr r0
 744:	84100e46 	ldrhi	r0, [r0], #-3654	; 0xfffff1ba
 748:	86038504 	strhi	r8, [r3], -r4, lsl #10
 74c:	62018e02 	andvs	r8, r1, #2, 28
 750:	c4c5c6ce 	strbgt	ip, [r5], #1742	; 0x6ce
 754:	0000000e 	andeq	r0, r0, lr
 758:	0000000c 	andeq	r0, r0, ip
 75c:	000006bc 			; <UNDEFINED> instruction: 0x000006bc
 760:	00009bc8 	andeq	r9, r0, r8, asr #23
 764:	00000030 	andeq	r0, r0, r0, lsr r0
 768:	00000014 	andeq	r0, r0, r4, lsl r0
 76c:	000006bc 			; <UNDEFINED> instruction: 0x000006bc
 770:	00009bf8 	strdeq	r9, [r0], -r8
 774:	00000028 	andeq	r0, r0, r8, lsr #32
 778:	84080e42 	strhi	r0, [r8], #-3650	; 0xfffff1be
 77c:	00018e02 	andeq	r8, r1, r2, lsl #28
 780:	0000000c 	andeq	r0, r0, ip
 784:	ffffffff 			; <UNDEFINED> instruction: 0xffffffff
 788:	7c020001 	stcvc	0, cr0, [r2], {1}
 78c:	000d0c0e 	andeq	r0, sp, lr, lsl #24
 790:	0000000c 	andeq	r0, r0, ip
 794:	00000780 	andeq	r0, r0, r0, lsl #15
 798:	00009c20 	andeq	r9, r0, r0, lsr #24
 79c:	0000002c 	andeq	r0, r0, ip, lsr #32
 7a0:	0000000c 	andeq	r0, r0, ip
 7a4:	ffffffff 			; <UNDEFINED> instruction: 0xffffffff
 7a8:	7c020001 	stcvc	0, cr0, [r2], {1}
 7ac:	000d0c0e 	andeq	r0, sp, lr, lsl #24
 7b0:	0000000c 	andeq	r0, r0, ip
 7b4:	000007a0 	andeq	r0, r0, r0, lsr #15
 7b8:	00009c4c 	andeq	r9, r0, ip, asr #24
 7bc:	00000044 	andeq	r0, r0, r4, asr #32
 7c0:	0000000c 	andeq	r0, r0, ip
 7c4:	ffffffff 			; <UNDEFINED> instruction: 0xffffffff
 7c8:	7c020001 	stcvc	0, cr0, [r2], {1}
 7cc:	000d0c0e 	andeq	r0, sp, lr, lsl #24
 7d0:	0000000c 	andeq	r0, r0, ip
 7d4:	000007c0 	andeq	r0, r0, r0, asr #15
 7d8:	00009c90 	muleq	r0, r0, ip
 7dc:	00000018 	andeq	r0, r0, r8, lsl r0
 7e0:	0000000c 	andeq	r0, r0, ip
 7e4:	ffffffff 			; <UNDEFINED> instruction: 0xffffffff
 7e8:	7c020001 	stcvc	0, cr0, [r2], {1}
 7ec:	000d0c0e 	andeq	r0, sp, lr, lsl #24
 7f0:	0000000c 	andeq	r0, r0, ip
 7f4:	000007e0 	andeq	r0, r0, r0, ror #15
 7f8:	00009ca8 	andeq	r9, r0, r8, lsr #25
 7fc:	00000030 	andeq	r0, r0, r0, lsr r0
 800:	0000000c 	andeq	r0, r0, ip
 804:	ffffffff 			; <UNDEFINED> instruction: 0xffffffff
 808:	7c020001 	stcvc	0, cr0, [r2], {1}
 80c:	000d0c0e 	andeq	r0, sp, lr, lsl #24
 810:	0000000c 	andeq	r0, r0, ip
 814:	00000800 	andeq	r0, r0, r0, lsl #16
 818:	00009cd8 	ldrdeq	r9, [r0], -r8
 81c:	00000004 	andeq	r0, r0, r4
