
2-neopix.elf:     file format elf32-littlearm


Disassembly of section .text:

00008000 <__code_start__>:
    8000:	e3a00013 	mov	r0, #19, 0
    8004:	e3800080 	orr	r0, r0, #128, 0	; 0x80
    8008:	e129f000 	msr	CPSR_fc, r0
    800c:	e3a01000 	mov	r1, #0, 0
    8010:	ee071f95 	mcr	15, 0, r1, cr7, cr5, {4}
    8014:	e3a0d302 	mov	sp, #134217728	; 0x8000000
    8018:	e3a0b000 	mov	fp, #0, 0
    801c:	eb000515 	bl	9478 <_cstart>
    8020:	eb00055e 	bl	95a0 <rpi_reboot>

00008024 <PUT32>:
    8024:	e5801000 	str	r1, [r0]
    8028:	e12fff1e 	bx	lr

0000802c <GET32>:
    802c:	e5900000 	ldr	r0, [r0]
    8030:	e12fff1e 	bx	lr

00008034 <BRANCHTO>:
    8034:	e12fff10 	bx	r0
	...

00008040 <place_cursor>:
    8040:	e92d4070 	push	{r4, r5, r6, lr}
    8044:	e3a05000 	mov	r5, #0, 0
    8048:	e1a04000 	mov	r4, r0
    804c:	e1a06001 	mov	r6, r1
    8050:	e24dd008 	sub	sp, sp, #8, 0
    8054:	e1a03005 	mov	r3, r5
    8058:	e3a020ff 	mov	r2, #255, 0	; 0xff
    805c:	e2411002 	sub	r1, r1, #2, 0
    8060:	e58d5000 	str	r5, [sp]
    8064:	eb0001d1 	bl	87b0 <neopix_write>
    8068:	e1a00004 	mov	r0, r4
    806c:	e1a02005 	mov	r2, r5
    8070:	e2461001 	sub	r1, r6, #1, 0
    8074:	e3a030ff 	mov	r3, #255, 0	; 0xff
    8078:	e58d5000 	str	r5, [sp]
    807c:	eb0001cb 	bl	87b0 <neopix_write>
    8080:	e3a0c0ff 	mov	ip, #255, 0	; 0xff
    8084:	e1a00004 	mov	r0, r4
    8088:	e1a01006 	mov	r1, r6
    808c:	e1a03005 	mov	r3, r5
    8090:	e1a02005 	mov	r2, r5
    8094:	e58dc000 	str	ip, [sp]
    8098:	eb0001c4 	bl	87b0 <neopix_write>
    809c:	e1a00004 	mov	r0, r4
    80a0:	e28dd008 	add	sp, sp, #8, 0
    80a4:	e8bd4070 	pop	{r4, r5, r6, lr}
    80a8:	ea000038 	b	8190 <neopix_flush>
    80ac:	e320f000 	nop	{0}

000080b0 <notmain>:
    80b0:	e92d47f0 	push	{r4, r5, r6, r7, r8, r9, sl, lr}
    80b4:	e24dd008 	sub	sp, sp, #8, 0
    80b8:	eb0004db 	bl	942c <enable_cache>
    80bc:	e3a00015 	mov	r0, #21, 0
    80c0:	eb0001db 	bl	8834 <gpio_set_output>
    80c4:	e3a01010 	mov	r1, #16, 0
    80c8:	e3a00015 	mov	r0, #21, 0
    80cc:	eb0000b7 	bl	83b0 <neopix_init>
    80d0:	e3a09000 	mov	r9, #0, 0
    80d4:	e1a05000 	mov	r5, r0
    80d8:	e1a06009 	mov	r6, r9
    80dc:	e3a07032 	mov	r7, #50, 0	; 0x32
    80e0:	e3a080ff 	mov	r8, #255, 0	; 0xff
    80e4:	e59fa09c 	ldr	sl, [pc, #156]	; 8188 <notmain+0xd8>
    80e8:	e1a01009 	mov	r1, r9
    80ec:	e1a0000a 	mov	r0, sl
    80f0:	eb00023c 	bl	89e8 <printk>
    80f4:	e3a04000 	mov	r4, #0, 0
    80f8:	e2441002 	sub	r1, r4, #2, 0
    80fc:	e3a03000 	mov	r3, #0, 0
    8100:	e3a020ff 	mov	r2, #255, 0	; 0xff
    8104:	e1a00005 	mov	r0, r5
    8108:	e58d6000 	str	r6, [sp]
    810c:	eb0001a7 	bl	87b0 <neopix_write>
    8110:	e2441001 	sub	r1, r4, #1, 0
    8114:	e3a030ff 	mov	r3, #255, 0	; 0xff
    8118:	e3a02000 	mov	r2, #0, 0
    811c:	e1a00005 	mov	r0, r5
    8120:	e58d6000 	str	r6, [sp]
    8124:	eb0001a1 	bl	87b0 <neopix_write>
    8128:	e3a03000 	mov	r3, #0, 0
    812c:	e1a01004 	mov	r1, r4
    8130:	e1a02003 	mov	r2, r3
    8134:	e1a00005 	mov	r0, r5
    8138:	e58d8000 	str	r8, [sp]
    813c:	eb00019b 	bl	87b0 <neopix_write>
    8140:	e1a00005 	mov	r0, r5
    8144:	eb000011 	bl	8190 <neopix_flush>
    8148:	e2844001 	add	r4, r4, #1, 0
    814c:	e1a00007 	mov	r0, r7
    8150:	eb000548 	bl	9678 <delay_ms>
    8154:	e3540010 	cmp	r4, #16, 0
    8158:	1affffe6 	bne	80f8 <notmain+0x48>
    815c:	e1a01004 	mov	r1, r4
    8160:	e1a00005 	mov	r0, r5
    8164:	e2899001 	add	r9, r9, #1, 0
    8168:	eb000118 	bl	85d0 <neopix_fast_clear>
    816c:	e359000a 	cmp	r9, #10, 0
    8170:	e2477002 	sub	r7, r7, #2, 0
    8174:	1affffdb 	bne	80e8 <notmain+0x38>
    8178:	e59f000c 	ldr	r0, [pc, #12]	; 818c <notmain+0xdc>
    817c:	e28dd008 	add	sp, sp, #8, 0
    8180:	e8bd47f0 	pop	{r4, r5, r6, r7, r8, r9, sl, lr}
    8184:	ea000217 	b	89e8 <printk>
    8188:	00009dd0 	ldrdeq	r9, [r0], -r0
    818c:	00009ddc 	ldrdeq	r9, [r0], -ip

00008190 <neopix_flush>:
    8190:	e92d41f0 	push	{r4, r5, r6, r7, r8, lr}
    8194:	ee1fcf3c 	mrc	15, 0, ip, cr15, cr12, {1}
    8198:	e3a01001 	mov	r1, #1, 0
    819c:	e5d03000 	ldrb	r3, [r0]
    81a0:	e59f2200 	ldr	r2, [pc, #512]	; 83a8 <neopix_flush+0x218>
    81a4:	e1a03311 	lsl	r3, r1, r3
    81a8:	e59f11fc 	ldr	r1, [pc, #508]	; 83ac <neopix_flush+0x21c>
    81ac:	e5823028 	str	r3, [r2, #40]	; 0x28
    81b0:	ee1f2f3c 	mrc	15, 0, r2, cr15, cr12, {1}
    81b4:	e042200c 	sub	r2, r2, ip
    81b8:	e1520001 	cmp	r2, r1
    81bc:	9afffffb 	bls	81b0 <neopix_flush+0x20>
    81c0:	e5905004 	ldr	r5, [r0, #4]
    81c4:	e3550000 	cmp	r5, #0, 0
    81c8:	08bd81f0 	popeq	{r4, r5, r6, r7, r8, pc}
    81cc:	e3a0e000 	mov	lr, #0, 0
    81d0:	e0855085 	add	r5, r5, r5, lsl #1
    81d4:	e59f21cc 	ldr	r2, [pc, #460]	; 83a8 <neopix_flush+0x218>
    81d8:	e0805005 	add	r5, r0, r5
    81dc:	e3a01000 	mov	r1, #0, 0
    81e0:	e5d06008 	ldrb	r6, [r0, #8]
    81e4:	e5d0400a 	ldrb	r4, [r0, #10]
    81e8:	e5d07009 	ldrb	r7, [r0, #9]
    81ec:	e1a0c157 	asr	ip, r7, r1
    81f0:	e31c0001 	tst	ip, #1, 0
    81f4:	0a00005b 	beq	8368 <neopix_flush+0x1d8>
    81f8:	ee1f8f3c 	mrc	15, 0, r8, cr15, cr12, {1}
    81fc:	e582301c 	str	r3, [r2, #28]
    8200:	ee1fcf3c 	mrc	15, 0, ip, cr15, cr12, {1}
    8204:	e04cc008 	sub	ip, ip, r8
    8208:	e35c0e27 	cmp	ip, #624	; 0x270
    820c:	9afffffb 	bls	8200 <neopix_flush+0x70>
    8210:	ee1f8f3c 	mrc	15, 0, r8, cr15, cr12, {1}
    8214:	e5823028 	str	r3, [r2, #40]	; 0x28
    8218:	ee1fcf3c 	mrc	15, 0, ip, cr15, cr12, {1}
    821c:	e04cc008 	sub	ip, ip, r8
    8220:	e35c00ef 	cmp	ip, #239, 0	; 0xef
    8224:	9afffffb 	bls	8218 <neopix_flush+0x88>
    8228:	e2811001 	add	r1, r1, #1, 0
    822c:	e3510008 	cmp	r1, #8, 0
    8230:	1affffed 	bne	81ec <neopix_flush+0x5c>
    8234:	e3a01000 	mov	r1, #0, 0
    8238:	e1a0c156 	asr	ip, r6, r1
    823c:	e31c0001 	tst	ip, #1, 0
    8240:	0a000038 	beq	8328 <neopix_flush+0x198>
    8244:	ee1f7f3c 	mrc	15, 0, r7, cr15, cr12, {1}
    8248:	e582301c 	str	r3, [r2, #28]
    824c:	ee1fcf3c 	mrc	15, 0, ip, cr15, cr12, {1}
    8250:	e04cc007 	sub	ip, ip, r7
    8254:	e35c0e27 	cmp	ip, #624	; 0x270
    8258:	9afffffb 	bls	824c <neopix_flush+0xbc>
    825c:	ee1f7f3c 	mrc	15, 0, r7, cr15, cr12, {1}
    8260:	e5823028 	str	r3, [r2, #40]	; 0x28
    8264:	ee1fcf3c 	mrc	15, 0, ip, cr15, cr12, {1}
    8268:	e04cc007 	sub	ip, ip, r7
    826c:	e35c00ef 	cmp	ip, #239, 0	; 0xef
    8270:	9afffffb 	bls	8264 <neopix_flush+0xd4>
    8274:	e2811001 	add	r1, r1, #1, 0
    8278:	e3510008 	cmp	r1, #8, 0
    827c:	1affffed 	bne	8238 <neopix_flush+0xa8>
    8280:	e3a01000 	mov	r1, #0, 0
    8284:	e1a0c154 	asr	ip, r4, r1
    8288:	e31c0001 	tst	ip, #1, 0
    828c:	0a000015 	beq	82e8 <neopix_flush+0x158>
    8290:	ee1f6f3c 	mrc	15, 0, r6, cr15, cr12, {1}
    8294:	e582301c 	str	r3, [r2, #28]
    8298:	ee1fcf3c 	mrc	15, 0, ip, cr15, cr12, {1}
    829c:	e04cc006 	sub	ip, ip, r6
    82a0:	e35c0e27 	cmp	ip, #624	; 0x270
    82a4:	9afffffb 	bls	8298 <neopix_flush+0x108>
    82a8:	ee1f6f3c 	mrc	15, 0, r6, cr15, cr12, {1}
    82ac:	e5823028 	str	r3, [r2, #40]	; 0x28
    82b0:	ee1fcf3c 	mrc	15, 0, ip, cr15, cr12, {1}
    82b4:	e04cc006 	sub	ip, ip, r6
    82b8:	e35c00ef 	cmp	ip, #239, 0	; 0xef
    82bc:	9afffffb 	bls	82b0 <neopix_flush+0x120>
    82c0:	e2811001 	add	r1, r1, #1, 0
    82c4:	e3510008 	cmp	r1, #8, 0
    82c8:	1affffed 	bne	8284 <neopix_flush+0xf4>
    82cc:	e5c0e008 	strb	lr, [r0, #8]
    82d0:	e5c0e009 	strb	lr, [r0, #9]
    82d4:	e5c0e00a 	strb	lr, [r0, #10]
    82d8:	e2800003 	add	r0, r0, #3, 0
    82dc:	e1550000 	cmp	r5, r0
    82e0:	1affffbd 	bne	81dc <neopix_flush+0x4c>
    82e4:	e8bd81f0 	pop	{r4, r5, r6, r7, r8, pc}
    82e8:	ee1f6f3c 	mrc	15, 0, r6, cr15, cr12, {1}
    82ec:	e582301c 	str	r3, [r2, #28]
    82f0:	ee1fcf3c 	mrc	15, 0, ip, cr15, cr12, {1}
    82f4:	e04cc006 	sub	ip, ip, r6
    82f8:	e35c00ef 	cmp	ip, #239, 0	; 0xef
    82fc:	9afffffb 	bls	82f0 <neopix_flush+0x160>
    8300:	ee1f6f3c 	mrc	15, 0, r6, cr15, cr12, {1}
    8304:	e5823028 	str	r3, [r2, #40]	; 0x28
    8308:	ee1fcf3c 	mrc	15, 0, ip, cr15, cr12, {1}
    830c:	e04cc006 	sub	ip, ip, r6
    8310:	e35c0e27 	cmp	ip, #624	; 0x270
    8314:	9afffffb 	bls	8308 <neopix_flush+0x178>
    8318:	e2811001 	add	r1, r1, #1, 0
    831c:	e3510008 	cmp	r1, #8, 0
    8320:	1affffd7 	bne	8284 <neopix_flush+0xf4>
    8324:	eaffffe8 	b	82cc <neopix_flush+0x13c>
    8328:	ee1f7f3c 	mrc	15, 0, r7, cr15, cr12, {1}
    832c:	e582301c 	str	r3, [r2, #28]
    8330:	ee1fcf3c 	mrc	15, 0, ip, cr15, cr12, {1}
    8334:	e04cc007 	sub	ip, ip, r7
    8338:	e35c00ef 	cmp	ip, #239, 0	; 0xef
    833c:	9afffffb 	bls	8330 <neopix_flush+0x1a0>
    8340:	ee1f7f3c 	mrc	15, 0, r7, cr15, cr12, {1}
    8344:	e5823028 	str	r3, [r2, #40]	; 0x28
    8348:	ee1fcf3c 	mrc	15, 0, ip, cr15, cr12, {1}
    834c:	e04cc007 	sub	ip, ip, r7
    8350:	e35c0e27 	cmp	ip, #624	; 0x270
    8354:	9afffffb 	bls	8348 <neopix_flush+0x1b8>
    8358:	e2811001 	add	r1, r1, #1, 0
    835c:	e3510008 	cmp	r1, #8, 0
    8360:	1affffb4 	bne	8238 <neopix_flush+0xa8>
    8364:	eaffffc5 	b	8280 <neopix_flush+0xf0>
    8368:	ee1f8f3c 	mrc	15, 0, r8, cr15, cr12, {1}
    836c:	e582301c 	str	r3, [r2, #28]
    8370:	ee1fcf3c 	mrc	15, 0, ip, cr15, cr12, {1}
    8374:	e04cc008 	sub	ip, ip, r8
    8378:	e35c00ef 	cmp	ip, #239, 0	; 0xef
    837c:	9afffffb 	bls	8370 <neopix_flush+0x1e0>
    8380:	ee1f8f3c 	mrc	15, 0, r8, cr15, cr12, {1}
    8384:	e5823028 	str	r3, [r2, #40]	; 0x28
    8388:	ee1fcf3c 	mrc	15, 0, ip, cr15, cr12, {1}
    838c:	e04cc008 	sub	ip, ip, r8
    8390:	e35c0e27 	cmp	ip, #624	; 0x270
    8394:	9afffffb 	bls	8388 <neopix_flush+0x1f8>
    8398:	e2811001 	add	r1, r1, #1, 0
    839c:	e3510008 	cmp	r1, #8, 0
    83a0:	1affff91 	bne	81ec <neopix_flush+0x5c>
    83a4:	eaffffa2 	b	8234 <neopix_flush+0xa4>
    83a8:	20200000 	eorcs	r0, r0, r0
    83ac:	000088b2 			; <UNDEFINED> instruction: 0x000088b2

000083b0 <neopix_init>:
    83b0:	e92d41f0 	push	{r4, r5, r6, r7, r8, lr}
    83b4:	e0817081 	add	r7, r1, r1, lsl #1
    83b8:	e2877008 	add	r7, r7, #8, 0
    83bc:	e1a06000 	mov	r6, r0
    83c0:	e1a00007 	mov	r0, r7
    83c4:	e1a05001 	mov	r5, r1
    83c8:	eb0005be 	bl	9ac8 <kmalloc>
    83cc:	e1a04000 	mov	r4, r0
    83d0:	e1a02007 	mov	r2, r7
    83d4:	e3a01000 	mov	r1, #0, 0
    83d8:	eb000164 	bl	8970 <memset>
    83dc:	e1a00006 	mov	r0, r6
    83e0:	e5845004 	str	r5, [r4, #4]
    83e4:	e5c46000 	strb	r6, [r4]
    83e8:	eb000111 	bl	8834 <gpio_set_output>
    83ec:	e1a00004 	mov	r0, r4
    83f0:	e8bd81f0 	pop	{r4, r5, r6, r7, r8, pc}
    83f4:	e320f000 	nop	{0}
    83f8:	e320f000 	nop	{0}
    83fc:	e320f000 	nop	{0}

00008400 <neopix_sendpixel>:
    8400:	e92d4030 	push	{r4, r5, lr}
    8404:	e3a04001 	mov	r4, #1, 0
    8408:	e3a0e000 	mov	lr, #0, 0
    840c:	e5d00000 	ldrb	r0, [r0]
    8410:	e59fc1a8 	ldr	ip, [pc, #424]	; 85c0 <neopix_sendpixel+0x1c0>
    8414:	e1a00014 	lsl	r0, r4, r0
    8418:	e1a04e52 	asr	r4, r2, lr
    841c:	e3140001 	tst	r4, #1, 0
    8420:	0a000056 	beq	8580 <neopix_sendpixel+0x180>
    8424:	ee1f5f3c 	mrc	15, 0, r5, cr15, cr12, {1}
    8428:	e58c001c 	str	r0, [ip, #28]
    842c:	ee1f4f3c 	mrc	15, 0, r4, cr15, cr12, {1}
    8430:	e0444005 	sub	r4, r4, r5
    8434:	e3540e27 	cmp	r4, #624	; 0x270
    8438:	9afffffb 	bls	842c <neopix_sendpixel+0x2c>
    843c:	ee1f5f3c 	mrc	15, 0, r5, cr15, cr12, {1}
    8440:	e58c0028 	str	r0, [ip, #40]	; 0x28
    8444:	ee1f4f3c 	mrc	15, 0, r4, cr15, cr12, {1}
    8448:	e0444005 	sub	r4, r4, r5
    844c:	e35400ef 	cmp	r4, #239, 0	; 0xef
    8450:	9afffffb 	bls	8444 <neopix_sendpixel+0x44>
    8454:	e28ee001 	add	lr, lr, #1, 0
    8458:	e35e0008 	cmp	lr, #8, 0
    845c:	1affffed 	bne	8418 <neopix_sendpixel+0x18>
    8460:	e3a0c000 	mov	ip, #0, 0
    8464:	e59f2154 	ldr	r2, [pc, #340]	; 85c0 <neopix_sendpixel+0x1c0>
    8468:	e1a0ec51 	asr	lr, r1, ip
    846c:	e31e0001 	tst	lr, #1, 0
    8470:	0a000032 	beq	8540 <neopix_sendpixel+0x140>
    8474:	ee1f4f3c 	mrc	15, 0, r4, cr15, cr12, {1}
    8478:	e582001c 	str	r0, [r2, #28]
    847c:	ee1fef3c 	mrc	15, 0, lr, cr15, cr12, {1}
    8480:	e04ee004 	sub	lr, lr, r4
    8484:	e35e0e27 	cmp	lr, #624	; 0x270
    8488:	9afffffb 	bls	847c <neopix_sendpixel+0x7c>
    848c:	ee1f4f3c 	mrc	15, 0, r4, cr15, cr12, {1}
    8490:	e5820028 	str	r0, [r2, #40]	; 0x28
    8494:	ee1fef3c 	mrc	15, 0, lr, cr15, cr12, {1}
    8498:	e04ee004 	sub	lr, lr, r4
    849c:	e35e00ef 	cmp	lr, #239, 0	; 0xef
    84a0:	9afffffb 	bls	8494 <neopix_sendpixel+0x94>
    84a4:	e28cc001 	add	ip, ip, #1, 0
    84a8:	e35c0008 	cmp	ip, #8, 0
    84ac:	1affffed 	bne	8468 <neopix_sendpixel+0x68>
    84b0:	e3a01000 	mov	r1, #0, 0
    84b4:	e1a0c153 	asr	ip, r3, r1
    84b8:	e31c0001 	tst	ip, #1, 0
    84bc:	e59f20fc 	ldr	r2, [pc, #252]	; 85c0 <neopix_sendpixel+0x1c0>
    84c0:	0a000011 	beq	850c <neopix_sendpixel+0x10c>
    84c4:	ee1fef3c 	mrc	15, 0, lr, cr15, cr12, {1}
    84c8:	e582001c 	str	r0, [r2, #28]
    84cc:	ee1fcf3c 	mrc	15, 0, ip, cr15, cr12, {1}
    84d0:	e04cc00e 	sub	ip, ip, lr
    84d4:	e35c0e27 	cmp	ip, #624	; 0x270
    84d8:	9afffffb 	bls	84cc <neopix_sendpixel+0xcc>
    84dc:	ee1fef3c 	mrc	15, 0, lr, cr15, cr12, {1}
    84e0:	e5820028 	str	r0, [r2, #40]	; 0x28
    84e4:	ee1fcf3c 	mrc	15, 0, ip, cr15, cr12, {1}
    84e8:	e04cc00e 	sub	ip, ip, lr
    84ec:	e35c00ef 	cmp	ip, #239, 0	; 0xef
    84f0:	9afffffb 	bls	84e4 <neopix_sendpixel+0xe4>
    84f4:	e2811001 	add	r1, r1, #1, 0
    84f8:	e3510008 	cmp	r1, #8, 0
    84fc:	08bd8030 	popeq	{r4, r5, pc}
    8500:	e1a0c153 	asr	ip, r3, r1
    8504:	e31c0001 	tst	ip, #1, 0
    8508:	1affffed 	bne	84c4 <neopix_sendpixel+0xc4>
    850c:	ee1fef3c 	mrc	15, 0, lr, cr15, cr12, {1}
    8510:	e582001c 	str	r0, [r2, #28]
    8514:	ee1fcf3c 	mrc	15, 0, ip, cr15, cr12, {1}
    8518:	e04cc00e 	sub	ip, ip, lr
    851c:	e35c00ef 	cmp	ip, #239, 0	; 0xef
    8520:	9afffffb 	bls	8514 <neopix_sendpixel+0x114>
    8524:	ee1fef3c 	mrc	15, 0, lr, cr15, cr12, {1}
    8528:	e5820028 	str	r0, [r2, #40]	; 0x28
    852c:	ee1fcf3c 	mrc	15, 0, ip, cr15, cr12, {1}
    8530:	e04cc00e 	sub	ip, ip, lr
    8534:	e35c0e27 	cmp	ip, #624	; 0x270
    8538:	9afffffb 	bls	852c <neopix_sendpixel+0x12c>
    853c:	eaffffec 	b	84f4 <neopix_sendpixel+0xf4>
    8540:	ee1f4f3c 	mrc	15, 0, r4, cr15, cr12, {1}
    8544:	e582001c 	str	r0, [r2, #28]
    8548:	ee1fef3c 	mrc	15, 0, lr, cr15, cr12, {1}
    854c:	e04ee004 	sub	lr, lr, r4
    8550:	e35e00ef 	cmp	lr, #239, 0	; 0xef
    8554:	9afffffb 	bls	8548 <neopix_sendpixel+0x148>
    8558:	ee1f4f3c 	mrc	15, 0, r4, cr15, cr12, {1}
    855c:	e5820028 	str	r0, [r2, #40]	; 0x28
    8560:	ee1fef3c 	mrc	15, 0, lr, cr15, cr12, {1}
    8564:	e04ee004 	sub	lr, lr, r4
    8568:	e35e0e27 	cmp	lr, #624	; 0x270
    856c:	9afffffb 	bls	8560 <neopix_sendpixel+0x160>
    8570:	e28cc001 	add	ip, ip, #1, 0
    8574:	e35c0008 	cmp	ip, #8, 0
    8578:	1affffba 	bne	8468 <neopix_sendpixel+0x68>
    857c:	eaffffcb 	b	84b0 <neopix_sendpixel+0xb0>
    8580:	ee1f5f3c 	mrc	15, 0, r5, cr15, cr12, {1}
    8584:	e58c001c 	str	r0, [ip, #28]
    8588:	ee1f4f3c 	mrc	15, 0, r4, cr15, cr12, {1}
    858c:	e0444005 	sub	r4, r4, r5
    8590:	e35400ef 	cmp	r4, #239, 0	; 0xef
    8594:	9afffffb 	bls	8588 <neopix_sendpixel+0x188>
    8598:	ee1f5f3c 	mrc	15, 0, r5, cr15, cr12, {1}
    859c:	e58c0028 	str	r0, [ip, #40]	; 0x28
    85a0:	ee1f4f3c 	mrc	15, 0, r4, cr15, cr12, {1}
    85a4:	e0444005 	sub	r4, r4, r5
    85a8:	e3540e27 	cmp	r4, #624	; 0x270
    85ac:	9afffffb 	bls	85a0 <neopix_sendpixel+0x1a0>
    85b0:	e28ee001 	add	lr, lr, #1, 0
    85b4:	e35e0008 	cmp	lr, #8, 0
    85b8:	1affff96 	bne	8418 <neopix_sendpixel+0x18>
    85bc:	eaffffa7 	b	8460 <neopix_sendpixel+0x60>
    85c0:	20200000 	eorcs	r0, r0, r0
    85c4:	e320f000 	nop	{0}
    85c8:	e320f000 	nop	{0}
    85cc:	e320f000 	nop	{0}

000085d0 <neopix_fast_clear>:
    85d0:	e3510000 	cmp	r1, #0, 0
    85d4:	0a000037 	beq	86b8 <neopix_fast_clear+0xe8>
    85d8:	e3a0c001 	mov	ip, #1, 0
    85dc:	e92d4030 	push	{r4, r5, lr}
    85e0:	e3a0e000 	mov	lr, #0, 0
    85e4:	e5d03000 	ldrb	r3, [r0]
    85e8:	e59f20cc 	ldr	r2, [pc, #204]	; 86bc <neopix_fast_clear+0xec>
    85ec:	e1a0331c 	lsl	r3, ip, r3
    85f0:	e3a04008 	mov	r4, #8, 0
    85f4:	ee1f5f3c 	mrc	15, 0, r5, cr15, cr12, {1}
    85f8:	e582301c 	str	r3, [r2, #28]
    85fc:	ee1fcf3c 	mrc	15, 0, ip, cr15, cr12, {1}
    8600:	e04cc005 	sub	ip, ip, r5
    8604:	e35c00ef 	cmp	ip, #239, 0	; 0xef
    8608:	9afffffb 	bls	85fc <neopix_fast_clear+0x2c>
    860c:	ee1f5f3c 	mrc	15, 0, r5, cr15, cr12, {1}
    8610:	e5823028 	str	r3, [r2, #40]	; 0x28
    8614:	ee1fcf3c 	mrc	15, 0, ip, cr15, cr12, {1}
    8618:	e04cc005 	sub	ip, ip, r5
    861c:	e35c0e27 	cmp	ip, #624	; 0x270
    8620:	9afffffb 	bls	8614 <neopix_fast_clear+0x44>
    8624:	e2544001 	subs	r4, r4, #1, 0
    8628:	1afffff1 	bne	85f4 <neopix_fast_clear+0x24>
    862c:	e3a04008 	mov	r4, #8, 0
    8630:	ee1f5f3c 	mrc	15, 0, r5, cr15, cr12, {1}
    8634:	e582301c 	str	r3, [r2, #28]
    8638:	ee1fcf3c 	mrc	15, 0, ip, cr15, cr12, {1}
    863c:	e04cc005 	sub	ip, ip, r5
    8640:	e35c00ef 	cmp	ip, #239, 0	; 0xef
    8644:	9afffffb 	bls	8638 <neopix_fast_clear+0x68>
    8648:	ee1f5f3c 	mrc	15, 0, r5, cr15, cr12, {1}
    864c:	e5823028 	str	r3, [r2, #40]	; 0x28
    8650:	ee1fcf3c 	mrc	15, 0, ip, cr15, cr12, {1}
    8654:	e04cc005 	sub	ip, ip, r5
    8658:	e35c0e27 	cmp	ip, #624	; 0x270
    865c:	9afffffb 	bls	8650 <neopix_fast_clear+0x80>
    8660:	e2544001 	subs	r4, r4, #1, 0
    8664:	1afffff1 	bne	8630 <neopix_fast_clear+0x60>
    8668:	e3a04008 	mov	r4, #8, 0
    866c:	ee1f5f3c 	mrc	15, 0, r5, cr15, cr12, {1}
    8670:	e582301c 	str	r3, [r2, #28]
    8674:	ee1fcf3c 	mrc	15, 0, ip, cr15, cr12, {1}
    8678:	e04cc005 	sub	ip, ip, r5
    867c:	e35c00ef 	cmp	ip, #239, 0	; 0xef
    8680:	9afffffb 	bls	8674 <neopix_fast_clear+0xa4>
    8684:	ee1f5f3c 	mrc	15, 0, r5, cr15, cr12, {1}
    8688:	e5823028 	str	r3, [r2, #40]	; 0x28
    868c:	ee1fcf3c 	mrc	15, 0, ip, cr15, cr12, {1}
    8690:	e04cc005 	sub	ip, ip, r5
    8694:	e35c0e27 	cmp	ip, #624	; 0x270
    8698:	9afffffb 	bls	868c <neopix_fast_clear+0xbc>
    869c:	e2544001 	subs	r4, r4, #1, 0
    86a0:	1afffff1 	bne	866c <neopix_fast_clear+0x9c>
    86a4:	e28ee001 	add	lr, lr, #1, 0
    86a8:	e15e0001 	cmp	lr, r1
    86ac:	1affffcf 	bne	85f0 <neopix_fast_clear+0x20>
    86b0:	e8bd4030 	pop	{r4, r5, lr}
    86b4:	eafffeb5 	b	8190 <neopix_flush>
    86b8:	eafffeb4 	b	8190 <neopix_flush>
    86bc:	20200000 	eorcs	r0, r0, r0

000086c0 <neopix_clear>:
    86c0:	e92d4030 	push	{r4, r5, lr}
    86c4:	e5904004 	ldr	r4, [r0, #4]
    86c8:	e3540000 	cmp	r4, #0, 0
    86cc:	0a000034 	beq	87a4 <neopix_clear+0xe4>
    86d0:	e3a01001 	mov	r1, #1, 0
    86d4:	e3a0e000 	mov	lr, #0, 0
    86d8:	e5d03000 	ldrb	r3, [r0]
    86dc:	e59f20c8 	ldr	r2, [pc, #200]	; 87ac <neopix_clear+0xec>
    86e0:	e1a03311 	lsl	r3, r1, r3
    86e4:	e3a01008 	mov	r1, #8, 0
    86e8:	ee1f5f3c 	mrc	15, 0, r5, cr15, cr12, {1}
    86ec:	e582301c 	str	r3, [r2, #28]
    86f0:	ee1fcf3c 	mrc	15, 0, ip, cr15, cr12, {1}
    86f4:	e04cc005 	sub	ip, ip, r5
    86f8:	e35c00ef 	cmp	ip, #239, 0	; 0xef
    86fc:	9afffffb 	bls	86f0 <neopix_clear+0x30>
    8700:	ee1f5f3c 	mrc	15, 0, r5, cr15, cr12, {1}
    8704:	e5823028 	str	r3, [r2, #40]	; 0x28
    8708:	ee1fcf3c 	mrc	15, 0, ip, cr15, cr12, {1}
    870c:	e04cc005 	sub	ip, ip, r5
    8710:	e35c0e27 	cmp	ip, #624	; 0x270
    8714:	9afffffb 	bls	8708 <neopix_clear+0x48>
    8718:	e2511001 	subs	r1, r1, #1, 0
    871c:	1afffff1 	bne	86e8 <neopix_clear+0x28>
    8720:	e3a01008 	mov	r1, #8, 0
    8724:	ee1f5f3c 	mrc	15, 0, r5, cr15, cr12, {1}
    8728:	e582301c 	str	r3, [r2, #28]
    872c:	ee1fcf3c 	mrc	15, 0, ip, cr15, cr12, {1}
    8730:	e04cc005 	sub	ip, ip, r5
    8734:	e35c00ef 	cmp	ip, #239, 0	; 0xef
    8738:	9afffffb 	bls	872c <neopix_clear+0x6c>
    873c:	ee1f5f3c 	mrc	15, 0, r5, cr15, cr12, {1}
    8740:	e5823028 	str	r3, [r2, #40]	; 0x28
    8744:	ee1fcf3c 	mrc	15, 0, ip, cr15, cr12, {1}
    8748:	e04cc005 	sub	ip, ip, r5
    874c:	e35c0e27 	cmp	ip, #624	; 0x270
    8750:	9afffffb 	bls	8744 <neopix_clear+0x84>
    8754:	e2511001 	subs	r1, r1, #1, 0
    8758:	1afffff1 	bne	8724 <neopix_clear+0x64>
    875c:	e3a01008 	mov	r1, #8, 0
    8760:	ee1f5f3c 	mrc	15, 0, r5, cr15, cr12, {1}
    8764:	e582301c 	str	r3, [r2, #28]
    8768:	ee1fcf3c 	mrc	15, 0, ip, cr15, cr12, {1}
    876c:	e04cc005 	sub	ip, ip, r5
    8770:	e35c00ef 	cmp	ip, #239, 0	; 0xef
    8774:	9afffffb 	bls	8768 <neopix_clear+0xa8>
    8778:	ee1f5f3c 	mrc	15, 0, r5, cr15, cr12, {1}
    877c:	e5823028 	str	r3, [r2, #40]	; 0x28
    8780:	ee1fcf3c 	mrc	15, 0, ip, cr15, cr12, {1}
    8784:	e04cc005 	sub	ip, ip, r5
    8788:	e35c0e27 	cmp	ip, #624	; 0x270
    878c:	9afffffb 	bls	8780 <neopix_clear+0xc0>
    8790:	e2511001 	subs	r1, r1, #1, 0
    8794:	1afffff1 	bne	8760 <neopix_clear+0xa0>
    8798:	e28ee001 	add	lr, lr, #1, 0
    879c:	e15e0004 	cmp	lr, r4
    87a0:	1affffcf 	bne	86e4 <neopix_clear+0x24>
    87a4:	e8bd4030 	pop	{r4, r5, lr}
    87a8:	eafffe78 	b	8190 <neopix_flush>
    87ac:	20200000 	eorcs	r0, r0, r0

000087b0 <neopix_write>:
    87b0:	e3510000 	cmp	r1, #0, 0
    87b4:	a0811081 	addge	r1, r1, r1, lsl #1
    87b8:	e5ddc000 	ldrb	ip, [sp]
    87bc:	a0801001 	addge	r1, r0, r1
    87c0:	a5c12008 	strbge	r2, [r1, #8]
    87c4:	a5c13009 	strbge	r3, [r1, #9]
    87c8:	a5c1c00a 	strbge	ip, [r1, #10]
    87cc:	e12fff1e 	bx	lr

000087d0 <gpio_set_function>:
    87d0:	e350001f 	cmp	r0, #31, 0
    87d4:	812fff1e 	bxhi	lr
    87d8:	e3d13007 	bics	r3, r1, #7, 0
    87dc:	e92d4070 	push	{r4, r5, r6, lr}
    87e0:	e1a05001 	mov	r5, r1
    87e4:	18bd8070 	popne	{r4, r5, r6, pc}
    87e8:	e59f3040 	ldr	r3, [pc, #64]	; 8830 <gpio_set_function+0x60>
    87ec:	e0832093 	umull	r2, r3, r3, r0
    87f0:	e1a031a3 	lsr	r3, r3, #3
    87f4:	e2832302 	add	r2, r3, #134217728	; 0x8000000
    87f8:	e2822702 	add	r2, r2, #524288	; 0x80000
    87fc:	e1a06102 	lsl	r6, r2, #2
    8800:	e0833103 	add	r3, r3, r3, lsl #2
    8804:	e0404083 	sub	r4, r0, r3, lsl #1
    8808:	e1a00006 	mov	r0, r6
    880c:	ebfffe06 	bl	802c <GET32>
    8810:	e3a03007 	mov	r3, #7, 0
    8814:	e1a01000 	mov	r1, r0
    8818:	e0844084 	add	r4, r4, r4, lsl #1
    881c:	e1c11413 	bic	r1, r1, r3, lsl r4
    8820:	e1a00006 	mov	r0, r6
    8824:	e1811415 	orr	r1, r1, r5, lsl r4
    8828:	e8bd4070 	pop	{r4, r5, r6, lr}
    882c:	eafffdfc 	b	8024 <PUT32>
    8830:	cccccccd 	stclgt	12, cr12, [ip], {205}	; 0xcd

00008834 <gpio_set_output>:
    8834:	e350001f 	cmp	r0, #31, 0
    8838:	812fff1e 	bxhi	lr
    883c:	e59f3048 	ldr	r3, [pc, #72]	; 888c <gpio_set_output+0x58>
    8840:	e92d4070 	push	{r4, r5, r6, lr}
    8844:	e0832093 	umull	r2, r3, r3, r0
    8848:	e1a031a3 	lsr	r3, r3, #3
    884c:	e2832302 	add	r2, r3, #134217728	; 0x8000000
    8850:	e2822702 	add	r2, r2, #524288	; 0x80000
    8854:	e1a05102 	lsl	r5, r2, #2
    8858:	e0833103 	add	r3, r3, r3, lsl #2
    885c:	e0404083 	sub	r4, r0, r3, lsl #1
    8860:	e1a00005 	mov	r0, r5
    8864:	ebfffdf0 	bl	802c <GET32>
    8868:	e3a02007 	mov	r2, #7, 0
    886c:	e1a03000 	mov	r3, r0
    8870:	e3a01001 	mov	r1, #1, 0
    8874:	e0844084 	add	r4, r4, r4, lsl #1
    8878:	e1c33412 	bic	r3, r3, r2, lsl r4
    887c:	e1a00005 	mov	r0, r5
    8880:	e1831411 	orr	r1, r3, r1, lsl r4
    8884:	e8bd4070 	pop	{r4, r5, r6, lr}
    8888:	eafffde5 	b	8024 <PUT32>
    888c:	cccccccd 	stclgt	12, cr12, [ip], {205}	; 0xcd

00008890 <gpio_set_on>:
    8890:	e1a03000 	mov	r3, r0
    8894:	e3a01001 	mov	r1, #1, 0
    8898:	e59f0004 	ldr	r0, [pc, #4]	; 88a4 <gpio_set_on+0x14>
    889c:	e1a01311 	lsl	r1, r1, r3
    88a0:	eafffddf 	b	8024 <PUT32>
    88a4:	2020001c 	eorcs	r0, r0, ip, lsl r0

000088a8 <gpio_set_off>:
    88a8:	e1a03000 	mov	r3, r0
    88ac:	e3a01001 	mov	r1, #1, 0
    88b0:	e59f0004 	ldr	r0, [pc, #4]	; 88bc <gpio_set_off+0x14>
    88b4:	e1a01311 	lsl	r1, r1, r3
    88b8:	eafffdd9 	b	8024 <PUT32>
    88bc:	20200028 	eorcs	r0, r0, r8, lsr #32

000088c0 <gpio_set_input>:
    88c0:	e350001f 	cmp	r0, #31, 0
    88c4:	812fff1e 	bxhi	lr
    88c8:	e92d4070 	push	{r4, r5, r6, lr}
    88cc:	e59f5040 	ldr	r5, [pc, #64]	; 8914 <gpio_set_input+0x54>
    88d0:	e1a04000 	mov	r4, r0
    88d4:	e0853095 	umull	r3, r5, r5, r0
    88d8:	e1a051a5 	lsr	r5, r5, #3
    88dc:	e2850302 	add	r0, r5, #134217728	; 0x8000000
    88e0:	e2800702 	add	r0, r0, #524288	; 0x80000
    88e4:	e1a06100 	lsl	r6, r0, #2
    88e8:	e1a00006 	mov	r0, r6
    88ec:	ebfffdce 	bl	802c <GET32>
    88f0:	e3a01007 	mov	r1, #7, 0
    88f4:	e1a03000 	mov	r3, r0
    88f8:	e0855105 	add	r5, r5, r5, lsl #2
    88fc:	e0444085 	sub	r4, r4, r5, lsl #1
    8900:	e0844084 	add	r4, r4, r4, lsl #1
    8904:	e1a00006 	mov	r0, r6
    8908:	e1c31411 	bic	r1, r3, r1, lsl r4
    890c:	e8bd4070 	pop	{r4, r5, r6, lr}
    8910:	eafffdc3 	b	8024 <PUT32>
    8914:	cccccccd 	stclgt	12, cr12, [ip], {205}	; 0xcd

00008918 <gpio_write>:
    8918:	e3510000 	cmp	r1, #0, 0
    891c:	e3a03001 	mov	r3, #1, 0
    8920:	e1a01000 	mov	r1, r0
    8924:	0a000002 	beq	8934 <gpio_write+0x1c>
    8928:	e59f0010 	ldr	r0, [pc, #16]	; 8940 <gpio_write+0x28>
    892c:	e1a01113 	lsl	r1, r3, r1
    8930:	eafffdbb 	b	8024 <PUT32>
    8934:	e59f0008 	ldr	r0, [pc, #8]	; 8944 <gpio_write+0x2c>
    8938:	e1a01113 	lsl	r1, r3, r1
    893c:	eafffdb8 	b	8024 <PUT32>
    8940:	2020001c 	eorcs	r0, r0, ip, lsl r0
    8944:	20200028 	eorcs	r0, r0, r8, lsr #32

00008948 <gpio_read>:
    8948:	e59f301c 	ldr	r3, [pc, #28]	; 896c <gpio_read+0x24>
    894c:	e92d4010 	push	{r4, lr}
    8950:	e1a04000 	mov	r4, r0
    8954:	e08302a0 	add	r0, r3, r0, lsr #5
    8958:	ebfffdb3 	bl	802c <GET32>
    895c:	e204401f 	and	r4, r4, #31, 0
    8960:	e1a00430 	lsr	r0, r0, r4
    8964:	e2000001 	and	r0, r0, #1, 0
    8968:	e8bd8010 	pop	{r4, pc}
    896c:	20200034 	eorcs	r0, r0, r4, lsr r0

00008970 <memset>:
    8970:	e92d4010 	push	{r4, lr}
    8974:	e0804002 	add	r4, r0, r2
    8978:	e1500004 	cmp	r0, r4
    897c:	28bd8010 	popcs	{r4, pc}
    8980:	e2423001 	sub	r3, r2, #1, 0
    8984:	e3530002 	cmp	r3, #2, 0
    8988:	e6ef1071 	uxtb	r1, r1
    898c:	e1a03000 	mov	r3, r0
    8990:	9a00000b 	bls	89c4 <memset+0x54>
    8994:	e181e401 	orr	lr, r1, r1, lsl #8
    8998:	e18ee801 	orr	lr, lr, r1, lsl #16
    899c:	e3c2c003 	bic	ip, r2, #3, 0
    89a0:	e18eec01 	orr	lr, lr, r1, lsl #24
    89a4:	e08cc000 	add	ip, ip, r0
    89a8:	e483e004 	str	lr, [r3], #4
    89ac:	e153000c 	cmp	r3, ip
    89b0:	1afffffc 	bne	89a8 <memset+0x38>
    89b4:	e3c23003 	bic	r3, r2, #3, 0
    89b8:	e1520003 	cmp	r2, r3
    89bc:	e0803003 	add	r3, r0, r3
    89c0:	08bd8010 	popeq	{r4, pc}
    89c4:	e1a02003 	mov	r2, r3
    89c8:	e4c21001 	strb	r1, [r2], #1
    89cc:	e1540002 	cmp	r4, r2
    89d0:	98bd8010 	popls	{r4, pc}
    89d4:	e2832002 	add	r2, r3, #2, 0
    89d8:	e1540002 	cmp	r4, r2
    89dc:	e5c31001 	strb	r1, [r3, #1]
    89e0:	85c31002 	strbhi	r1, [r3, #2]
    89e4:	e8bd8010 	pop	{r4, pc}

000089e8 <printk>:
    89e8:	e92d000f 	push	{r0, r1, r2, r3}
    89ec:	e92d4030 	push	{r4, r5, lr}
    89f0:	e59f5040 	ldr	r5, [pc, #64]	; 8a38 <printk+0x50>
    89f4:	e24dd00c 	sub	sp, sp, #12, 0
    89f8:	e28d301c 	add	r3, sp, #28, 0
    89fc:	e3a01b01 	mov	r1, #1024	; 0x400
    8a00:	e59d2018 	ldr	r2, [sp, #24]
    8a04:	e1a00005 	mov	r0, r5
    8a08:	e58d3004 	str	r3, [sp, #4]
    8a0c:	eb0000fb 	bl	8e00 <va_printk>
    8a10:	e1a04000 	mov	r4, r0
    8a14:	e59f3020 	ldr	r3, [pc, #32]	; 8a3c <printk+0x54>
    8a18:	e1a00005 	mov	r0, r5
    8a1c:	e5933000 	ldr	r3, [r3]
    8a20:	e12fff33 	blx	r3
    8a24:	e1a00004 	mov	r0, r4
    8a28:	e28dd00c 	add	sp, sp, #12, 0
    8a2c:	e8bd4030 	pop	{r4, r5, lr}
    8a30:	e28dd010 	add	sp, sp, #16, 0
    8a34:	e12fff1e 	bx	lr
    8a38:	0000a17c 	andeq	sl, r0, ip, ror r1
    8a3c:	0000a168 	andeq	sl, r0, r8, ror #2

00008a40 <internal_putk>:
    8a40:	e92d4070 	push	{r4, r5, r6, lr}
    8a44:	e1a04000 	mov	r4, r0
    8a48:	e5d00000 	ldrb	r0, [r0]
    8a4c:	e3500000 	cmp	r0, #0, 0
    8a50:	0a000005 	beq	8a6c <internal_putk+0x2c>
    8a54:	e59f5018 	ldr	r5, [pc, #24]	; 8a74 <internal_putk+0x34>
    8a58:	e5953000 	ldr	r3, [r5]
    8a5c:	e12fff33 	blx	r3
    8a60:	e5f40001 	ldrb	r0, [r4, #1]!
    8a64:	e3500000 	cmp	r0, #0, 0
    8a68:	1afffffa 	bne	8a58 <internal_putk+0x18>
    8a6c:	e3a00001 	mov	r0, #1, 0
    8a70:	e8bd8070 	pop	{r4, r5, r6, pc}
    8a74:	0000a178 	andeq	sl, r0, r8, ror r1

00008a78 <emit.constprop.0>:
    8a78:	e92d41f0 	push	{r4, r5, r6, r7, r8, lr}
    8a7c:	e3530080 	cmp	r3, #128, 0	; 0x80
    8a80:	e1a0c000 	mov	ip, r0
    8a84:	e24dd048 	sub	sp, sp, #72, 0	; 0x48
    8a88:	e1a00001 	mov	r0, r1
    8a8c:	ca000069 	bgt	8c38 <emit.constprop.0+0x1c0>
    8a90:	e24c1002 	sub	r1, ip, #2, 0
    8a94:	e1a0c002 	mov	ip, r2
    8a98:	e351000e 	cmp	r1, #14, 0
    8a9c:	979ff101 	ldrls	pc, [pc, r1, lsl #2]
    8aa0:	ea0000a7 	b	8d44 <emit.constprop.0+0x2cc>
    8aa4:	00008c10 	andeq	r8, r0, r0, lsl ip
    8aa8:	00008d44 	andeq	r8, r0, r4, asr #26
    8aac:	00008d44 	andeq	r8, r0, r4, asr #26
    8ab0:	00008d44 	andeq	r8, r0, r4, asr #26
    8ab4:	00008d44 	andeq	r8, r0, r4, asr #26
    8ab8:	00008d44 	andeq	r8, r0, r4, asr #26
    8abc:	00008cec 	andeq	r8, r0, ip, ror #25
    8ac0:	00008d44 	andeq	r8, r0, r4, asr #26
    8ac4:	00008c8c 	andeq	r8, r0, ip, lsl #25
    8ac8:	00008d44 	andeq	r8, r0, r4, asr #26
    8acc:	00008d44 	andeq	r8, r0, r4, asr #26
    8ad0:	00008d44 	andeq	r8, r0, r4, asr #26
    8ad4:	00008d44 	andeq	r8, r0, r4, asr #26
    8ad8:	00008d44 	andeq	r8, r0, r4, asr #26
    8adc:	00008ae4 	andeq	r8, r0, r4, ror #21
    8ae0:	e3a0307f 	mov	r3, #127, 0	; 0x7f
    8ae4:	e28d2008 	add	r2, sp, #8, 0
    8ae8:	e1a04002 	mov	r4, r2
    8aec:	e59f1288 	ldr	r1, [pc, #648]	; 8d7c <emit.constprop.0+0x304>
    8af0:	e20ce00f 	and	lr, ip, #15, 0
    8af4:	e7d1e00e 	ldrb	lr, [r1, lr]
    8af8:	e35c000f 	cmp	ip, #15, 0
    8afc:	e4c4e001 	strb	lr, [r4], #1
    8b00:	e1a0c22c 	lsr	ip, ip, #4
    8b04:	8afffff9 	bhi	8af0 <emit.constprop.0+0x78>
    8b08:	e3a0c078 	mov	ip, #120, 0	; 0x78
    8b0c:	e1a0e004 	mov	lr, r4
    8b10:	e3a01030 	mov	r1, #48, 0	; 0x30
    8b14:	e4cec002 	strb	ip, [lr], #2
    8b18:	e5c41001 	strb	r1, [r4, #1]
    8b1c:	e04e1002 	sub	r1, lr, r2
    8b20:	e1510003 	cmp	r1, r3
    8b24:	aa000083 	bge	8d38 <emit.constprop.0+0x2c0>
    8b28:	e1510003 	cmp	r1, r3
    8b2c:	a3a0c001 	movge	ip, #1, 0
    8b30:	b3a0c000 	movlt	ip, #0, 0
    8b34:	e2434001 	sub	r4, r3, #1, 0
    8b38:	e0444001 	sub	r4, r4, r1
    8b3c:	b0436001 	sublt	r6, r3, r1
    8b40:	a3a06001 	movge	r6, #1, 0
    8b44:	e3540002 	cmp	r4, #2, 0
    8b48:	938cc001 	orrls	ip, ip, #1, 0
    8b4c:	e35c0000 	cmp	ip, #0, 0
    8b50:	1a000075 	bne	8d2c <emit.constprop.0+0x2b4>
    8b54:	e1a0c00e 	mov	ip, lr
    8b58:	e3c65003 	bic	r5, r6, #3, 0
    8b5c:	e59f721c 	ldr	r7, [pc, #540]	; 8d80 <emit.constprop.0+0x308>
    8b60:	e085500e 	add	r5, r5, lr
    8b64:	e48c7004 	str	r7, [ip], #4
    8b68:	e15c0005 	cmp	ip, r5
    8b6c:	1afffffc 	bne	8b64 <emit.constprop.0+0xec>
    8b70:	e3c6c003 	bic	ip, r6, #3, 0
    8b74:	e156000c 	cmp	r6, ip
    8b78:	e08e500c 	add	r5, lr, ip
    8b7c:	e08cc001 	add	ip, ip, r1
    8b80:	0a000008 	beq	8ba8 <emit.constprop.0+0x130>
    8b84:	e3a07020 	mov	r7, #32, 0
    8b88:	e28c8001 	add	r8, ip, #1, 0
    8b8c:	e1580003 	cmp	r8, r3
    8b90:	e5c57000 	strb	r7, [r5]
    8b94:	aa000003 	bge	8ba8 <emit.constprop.0+0x130>
    8b98:	e28cc002 	add	ip, ip, #2, 0
    8b9c:	e15c0003 	cmp	ip, r3
    8ba0:	e5c57001 	strb	r7, [r5, #1]
    8ba4:	b5c57002 	strblt	r7, [r5, #2]
    8ba8:	e1510003 	cmp	r1, r3
    8bac:	a3a04000 	movge	r4, #0, 0
    8bb0:	e08e6006 	add	r6, lr, r6
    8bb4:	e0461002 	sub	r1, r6, r2
    8bb8:	e08ee004 	add	lr, lr, r4
    8bbc:	e3a03000 	mov	r3, #0, 0
    8bc0:	e351007f 	cmp	r1, #127, 0	; 0x7f
    8bc4:	c241407f 	subgt	r4, r1, #127, 0	; 0x7f
    8bc8:	c0822004 	addgt	r2, r2, r4
    8bcc:	e152000e 	cmp	r2, lr
    8bd0:	e5c63000 	strb	r3, [r6]
    8bd4:	8a00004f 	bhi	8d18 <emit.constprop.0+0x2a0>
    8bd8:	e28ee001 	add	lr, lr, #1, 0
    8bdc:	e1a0300e 	mov	r3, lr
    8be0:	e240c001 	sub	ip, r0, #1, 0
    8be4:	e5734001 	ldrb	r4, [r3, #-1]!
    8be8:	e1530002 	cmp	r3, r2
    8bec:	e5ec4001 	strb	r4, [ip, #1]!
    8bf0:	1afffffb 	bne	8be4 <emit.constprop.0+0x16c>
    8bf4:	e04ee003 	sub	lr, lr, r3
    8bf8:	e3a03000 	mov	r3, #0, 0
    8bfc:	e080e00e 	add	lr, r0, lr
    8c00:	e5ce3000 	strb	r3, [lr]
    8c04:	e28dd048 	add	sp, sp, #72, 0	; 0x48
    8c08:	e8bd81f0 	pop	{r4, r5, r6, r7, r8, pc}
    8c0c:	e3a0307f 	mov	r3, #127, 0	; 0x7f
    8c10:	e28d2008 	add	r2, sp, #8, 0
    8c14:	e1a0e002 	mov	lr, r2
    8c18:	e59f1164 	ldr	r1, [pc, #356]	; 8d84 <emit.constprop.0+0x30c>
    8c1c:	e20c4001 	and	r4, ip, #1, 0
    8c20:	e7d14004 	ldrb	r4, [r1, r4]
    8c24:	e35c0001 	cmp	ip, #1, 0
    8c28:	e4ce4001 	strb	r4, [lr], #1
    8c2c:	e1a0c0ac 	lsr	ip, ip, #1
    8c30:	8afffff9 	bhi	8c1c <emit.constprop.0+0x1a4>
    8c34:	eaffffb8 	b	8b1c <emit.constprop.0+0xa4>
    8c38:	e24c3002 	sub	r3, ip, #2, 0
    8c3c:	e1a0c002 	mov	ip, r2
    8c40:	e353000e 	cmp	r3, #14, 0
    8c44:	979ff103 	ldrls	pc, [pc, r3, lsl #2]
    8c48:	ea00003d 	b	8d44 <emit.constprop.0+0x2cc>
    8c4c:	00008c0c 	andeq	r8, r0, ip, lsl #24
    8c50:	00008d44 	andeq	r8, r0, r4, asr #26
    8c54:	00008d44 	andeq	r8, r0, r4, asr #26
    8c58:	00008d44 	andeq	r8, r0, r4, asr #26
    8c5c:	00008d44 	andeq	r8, r0, r4, asr #26
    8c60:	00008d44 	andeq	r8, r0, r4, asr #26
    8c64:	00008d64 	andeq	r8, r0, r4, ror #26
    8c68:	00008d44 	andeq	r8, r0, r4, asr #26
    8c6c:	00008c88 	andeq	r8, r0, r8, lsl #25
    8c70:	00008d44 	andeq	r8, r0, r4, asr #26
    8c74:	00008d44 	andeq	r8, r0, r4, asr #26
    8c78:	00008d44 	andeq	r8, r0, r4, asr #26
    8c7c:	00008d44 	andeq	r8, r0, r4, asr #26
    8c80:	00008d44 	andeq	r8, r0, r4, asr #26
    8c84:	00008ae0 	andeq	r8, r0, r0, ror #21
    8c88:	e3a0307f 	mov	r3, #127, 0	; 0x7f
    8c8c:	e59d1060 	ldr	r1, [sp, #96]	; 0x60
    8c90:	e59f70f0 	ldr	r7, [pc, #240]	; 8d88 <emit.constprop.0+0x310>
    8c94:	e0118fa2 	ands	r8, r1, r2, lsr #31
    8c98:	1262c000 	rsbne	ip, r2, #0, 0
    8c9c:	e28d2008 	add	r2, sp, #8, 0
    8ca0:	13a08001 	movne	r8, #1, 0
    8ca4:	e1a0e002 	mov	lr, r2
    8ca8:	e59f60dc 	ldr	r6, [pc, #220]	; 8d8c <emit.constprop.0+0x314>
    8cac:	e1a0500c 	mov	r5, ip
    8cb0:	e0814c96 	umull	r4, r1, r6, ip
    8cb4:	e1a011a1 	lsr	r1, r1, #3
    8cb8:	e0814101 	add	r4, r1, r1, lsl #2
    8cbc:	e04cc084 	sub	ip, ip, r4, lsl #1
    8cc0:	e7d7400c 	ldrb	r4, [r7, ip]
    8cc4:	e3550009 	cmp	r5, #9, 0
    8cc8:	e1a0c001 	mov	ip, r1
    8ccc:	e1a0100e 	mov	r1, lr
    8cd0:	e4ce4001 	strb	r4, [lr], #1
    8cd4:	8afffff4 	bhi	8cac <emit.constprop.0+0x234>
    8cd8:	e3580000 	cmp	r8, #0, 0
    8cdc:	13a0c02d 	movne	ip, #45, 0	; 0x2d
    8ce0:	15cec000 	strbne	ip, [lr]
    8ce4:	1281e002 	addne	lr, r1, #2, 0
    8ce8:	eaffff8b 	b	8b1c <emit.constprop.0+0xa4>
    8cec:	e3530001 	cmp	r3, #1, 0
    8cf0:	e5cd2008 	strb	r2, [sp, #8]
    8cf4:	c3a01001 	movgt	r1, #1, 0
    8cf8:	c28de009 	addgt	lr, sp, #9, 0
    8cfc:	c28d2008 	addgt	r2, sp, #8, 0
    8d00:	caffff88 	bgt	8b28 <emit.constprop.0+0xb0>
    8d04:	e3a03000 	mov	r3, #0, 0
    8d08:	e28de008 	add	lr, sp, #8, 0
    8d0c:	e1a0200e 	mov	r2, lr
    8d10:	e5cd3009 	strb	r3, [sp, #9]
    8d14:	eaffffaf 	b	8bd8 <emit.constprop.0+0x160>
    8d18:	e1a0e000 	mov	lr, r0
    8d1c:	e3a03000 	mov	r3, #0, 0
    8d20:	e5ce3000 	strb	r3, [lr]
    8d24:	e28dd048 	add	sp, sp, #72, 0	; 0x48
    8d28:	e8bd81f0 	pop	{r4, r5, r6, r7, r8, pc}
    8d2c:	e1a0c001 	mov	ip, r1
    8d30:	e1a0500e 	mov	r5, lr
    8d34:	eaffff92 	b	8b84 <emit.constprop.0+0x10c>
    8d38:	e1a0600e 	mov	r6, lr
    8d3c:	e24ee001 	sub	lr, lr, #1, 0
    8d40:	eaffff9d 	b	8bbc <emit.constprop.0+0x144>
    8d44:	e59f2044 	ldr	r2, [pc, #68]	; 8d90 <emit.constprop.0+0x318>
    8d48:	e3a03079 	mov	r3, #121, 0	; 0x79
    8d4c:	e59f1040 	ldr	r1, [pc, #64]	; 8d94 <emit.constprop.0+0x31c>
    8d50:	e58d2000 	str	r2, [sp]
    8d54:	e59f003c 	ldr	r0, [pc, #60]	; 8d98 <emit.constprop.0+0x320>
    8d58:	e59f203c 	ldr	r2, [pc, #60]	; 8d9c <emit.constprop.0+0x324>
    8d5c:	ebffff21 	bl	89e8 <printk>
    8d60:	eb0001b9 	bl	944c <clean_reboot>
    8d64:	e5cd2008 	strb	r2, [sp, #8]
    8d68:	e3a0307f 	mov	r3, #127, 0	; 0x7f
    8d6c:	e3a01001 	mov	r1, #1, 0
    8d70:	e28de009 	add	lr, sp, #9, 0
    8d74:	e28d2008 	add	r2, sp, #8, 0
    8d78:	eaffff6a 	b	8b28 <emit.constprop.0+0xb0>
    8d7c:	00009e10 	andeq	r9, r0, r0, lsl lr
    8d80:	20202020 	eorcs	r2, r0, r0, lsr #32
    8d84:	00009e24 	andeq	r9, r0, r4, lsr #28
    8d88:	00009e28 	andeq	r9, r0, r8, lsr #28
    8d8c:	cccccccd 	stclgt	12, cr12, [ip], {205}	; 0xcd
    8d90:	00009e0c 	andeq	r9, r0, ip, lsl #28
    8d94:	00009de4 	andeq	r9, r0, r4, ror #27
    8d98:	00009df8 	strdeq	r9, [r0], -r8
    8d9c:	00009f3c 	andeq	r9, r0, ip, lsr pc

00008da0 <rpi_set_output>:
    8da0:	e3500000 	cmp	r0, #0, 0
    8da4:	0a000005 	beq	8dc0 <rpi_set_output+0x20>
    8da8:	e59f3038 	ldr	r3, [pc, #56]	; 8de8 <rpi_set_output+0x48>
    8dac:	e3510000 	cmp	r1, #0, 0
    8db0:	e5830000 	str	r0, [r3]
    8db4:	159f3030 	ldrne	r3, [pc, #48]	; 8dec <rpi_set_output+0x4c>
    8db8:	15831000 	strne	r1, [r3]
    8dbc:	e12fff1e 	bx	lr
    8dc0:	e52de004 	push	{lr}		; (str lr, [sp, #-4]!)
    8dc4:	e59f2024 	ldr	r2, [pc, #36]	; 8df0 <rpi_set_output+0x50>
    8dc8:	e24dd00c 	sub	sp, sp, #12, 0
    8dcc:	e3a03020 	mov	r3, #32, 0
    8dd0:	e59f101c 	ldr	r1, [pc, #28]	; 8df4 <rpi_set_output+0x54>
    8dd4:	e58d2000 	str	r2, [sp]
    8dd8:	e59f0018 	ldr	r0, [pc, #24]	; 8df8 <rpi_set_output+0x58>
    8ddc:	e59f2018 	ldr	r2, [pc, #24]	; 8dfc <rpi_set_output+0x5c>
    8de0:	ebffff00 	bl	89e8 <printk>
    8de4:	eb000198 	bl	944c <clean_reboot>
    8de8:	0000a178 	andeq	sl, r0, r8, ror r1
    8dec:	0000a168 	andeq	sl, r0, r8, ror #2
    8df0:	00009e34 	andeq	r9, r0, r4, lsr lr
    8df4:	00009de4 	andeq	r9, r0, r4, ror #27
    8df8:	00009df8 	strdeq	r9, [r0], -r8
    8dfc:	00009f44 	andeq	r9, r0, r4, asr #30

00008e00 <va_printk>:
    8e00:	e92d4ff0 	push	{r4, r5, r6, r7, r8, r9, sl, fp, lr}
    8e04:	e1a0b000 	mov	fp, r0
    8e08:	e3a00000 	mov	r0, #0, 0
    8e0c:	e5cb0000 	strb	r0, [fp]
    8e10:	e5d2c000 	ldrb	ip, [r2]
    8e14:	e2417001 	sub	r7, r1, #1, 0
    8e18:	e08b7007 	add	r7, fp, r7
    8e1c:	e15c0000 	cmp	ip, r0
    8e20:	115b0007 	cmpne	fp, r7
    8e24:	e24ddf47 	sub	sp, sp, #284	; 0x11c
    8e28:	e58d2010 	str	r2, [sp, #16]
    8e2c:	2a000159 	bcs	9398 <va_printk+0x598>
    8e30:	e1a06002 	mov	r6, r2
    8e34:	e1a08003 	mov	r8, r3
    8e38:	e1a0400b 	mov	r4, fp
    8e3c:	e59fa5a4 	ldr	sl, [pc, #1444]	; 93e8 <va_printk+0x5e8>
    8e40:	e58db00c 	str	fp, [sp, #12]
    8e44:	ea000005 	b	8e60 <va_printk+0x60>
    8e48:	e4c4c001 	strb	ip, [r4], #1
    8e4c:	e2866001 	add	r6, r6, #1, 0
    8e50:	e5d6c000 	ldrb	ip, [r6]
    8e54:	e35c0000 	cmp	ip, #0, 0
    8e58:	11570004 	cmpne	r7, r4
    8e5c:	9a00002f 	bls	8f20 <va_printk+0x120>
    8e60:	e35c0025 	cmp	ip, #37, 0	; 0x25
    8e64:	1afffff7 	bne	8e48 <va_printk+0x48>
    8e68:	e5d62001 	ldrb	r2, [r6, #1]
    8e6c:	e3520025 	cmp	r2, #37, 0	; 0x25
    8e70:	04c4c001 	strbeq	ip, [r4], #1
    8e74:	02866002 	addeq	r6, r6, #2, 0
    8e78:	0afffff4 	beq	8e50 <va_printk+0x50>
    8e7c:	e2423030 	sub	r3, r2, #48, 0	; 0x30
    8e80:	e3530009 	cmp	r3, #9, 0
    8e84:	e3a05000 	mov	r5, #0, 0
    8e88:	e2866001 	add	r6, r6, #1, 0
    8e8c:	8a000008 	bhi	8eb4 <va_printk+0xb4>
    8e90:	e0855105 	add	r5, r5, r5, lsl #2
    8e94:	e0825085 	add	r5, r2, r5, lsl #1
    8e98:	e5f62001 	ldrb	r2, [r6, #1]!
    8e9c:	e2455030 	sub	r5, r5, #48, 0	; 0x30
    8ea0:	e2423030 	sub	r3, r2, #48, 0	; 0x30
    8ea4:	e3530009 	cmp	r3, #9, 0
    8ea8:	9afffff8 	bls	8e90 <va_printk+0x90>
    8eac:	e355001f 	cmp	r5, #31, 0
    8eb0:	8a00013a 	bhi	93a0 <va_printk+0x5a0>
    8eb4:	e2423062 	sub	r3, r2, #98, 0	; 0x62
    8eb8:	e3530016 	cmp	r3, #22, 0
    8ebc:	979ff103 	ldrls	pc, [pc, r3, lsl #2]
    8ec0:	ea00011b 	b	9334 <va_printk+0x534>
    8ec4:	00009178 	andeq	r9, r0, r8, ror r1
    8ec8:	00009074 	andeq	r9, r0, r4, ror r0
    8ecc:	0000906c 	andeq	r9, r0, ip, rrx
    8ed0:	00009334 	andeq	r9, r0, r4, lsr r3
    8ed4:	00009370 	andeq	r9, r0, r0, ror r3
    8ed8:	00009334 	andeq	r9, r0, r4, lsr r3
    8edc:	00009334 	andeq	r9, r0, r4, lsr r3
    8ee0:	00009334 	andeq	r9, r0, r4, lsr r3
    8ee4:	00009334 	andeq	r9, r0, r4, lsr r3
    8ee8:	00009334 	andeq	r9, r0, r4, lsr r3
    8eec:	00008f7c 	andeq	r8, r0, ip, ror pc
    8ef0:	00009334 	andeq	r9, r0, r4, lsr r3
    8ef4:	00009334 	andeq	r9, r0, r4, lsr r3
    8ef8:	00009334 	andeq	r9, r0, r4, lsr r3
    8efc:	00008f38 	andeq	r8, r0, r8, lsr pc
    8f00:	00009334 	andeq	r9, r0, r4, lsr r3
    8f04:	00009334 	andeq	r9, r0, r4, lsr r3
    8f08:	00009270 	andeq	r9, r0, r0, ror r2
    8f0c:	00009334 	andeq	r9, r0, r4, lsr r3
    8f10:	00009048 	andeq	r9, r0, r8, asr #32
    8f14:	00009334 	andeq	r9, r0, r4, lsr r3
    8f18:	00009334 	andeq	r9, r0, r4, lsr r3
    8f1c:	00008f38 	andeq	r8, r0, r8, lsr pc
    8f20:	e59db00c 	ldr	fp, [sp, #12]
    8f24:	e3a03000 	mov	r3, #0, 0
    8f28:	e4c43001 	strb	r3, [r4], #1
    8f2c:	e044000b 	sub	r0, r4, fp
    8f30:	e28ddf47 	add	sp, sp, #284	; 0x11c
    8f34:	e8bd8ff0 	pop	{r4, r5, r6, r7, r8, r9, sl, fp, pc}
    8f38:	e3a01000 	mov	r1, #0, 0
    8f3c:	e1a03005 	mov	r3, r5
    8f40:	e4982004 	ldr	r2, [r8], #4
    8f44:	e3a00010 	mov	r0, #16, 0
    8f48:	e58d1000 	str	r1, [sp]
    8f4c:	e28d1018 	add	r1, sp, #24, 0
    8f50:	ebfffec8 	bl	8a78 <emit.constprop.0>
    8f54:	e1a05000 	mov	r5, r0
    8f58:	e2866001 	add	r6, r6, #1, 0
    8f5c:	e2455001 	sub	r5, r5, #1, 0
    8f60:	e5f53001 	ldrb	r3, [r5, #1]!
    8f64:	e3530000 	cmp	r3, #0, 0
    8f68:	0affffb8 	beq	8e50 <va_printk+0x50>
    8f6c:	e4c43001 	strb	r3, [r4], #1
    8f70:	e1570004 	cmp	r7, r4
    8f74:	8afffff9 	bhi	8f60 <va_printk+0x160>
    8f78:	eaffffb4 	b	8e50 <va_printk+0x50>
    8f7c:	e3a02003 	mov	r2, #3, 0
    8f80:	e1a00006 	mov	r0, r6
    8f84:	e59f1460 	ldr	r1, [pc, #1120]	; 93ec <va_printk+0x5ec>
    8f88:	eb00037c 	bl	9d80 <strncmp>
    8f8c:	e3500000 	cmp	r0, #0, 0
    8f90:	0a000005 	beq	8fac <va_printk+0x1ac>
    8f94:	e3a02003 	mov	r2, #3, 0
    8f98:	e1a00006 	mov	r0, r6
    8f9c:	e59f144c 	ldr	r1, [pc, #1100]	; 93f0 <va_printk+0x5f0>
    8fa0:	eb000376 	bl	9d80 <strncmp>
    8fa4:	e3500000 	cmp	r0, #0, 0
    8fa8:	1a00010b 	bne	93dc <va_printk+0x5dc>
    8fac:	e2888007 	add	r8, r8, #7, 0
    8fb0:	e3c88007 	bic	r8, r8, #7, 0
    8fb4:	e598b004 	ldr	fp, [r8, #4]
    8fb8:	e4989008 	ldr	r9, [r8], #8
    8fbc:	e1a0100b 	mov	r1, fp
    8fc0:	e59f042c 	ldr	r0, [pc, #1068]	; 93f4 <va_printk+0x5f4>
    8fc4:	ebfffe87 	bl	89e8 <printk>
    8fc8:	e1a01009 	mov	r1, r9
    8fcc:	e59f0424 	ldr	r0, [pc, #1060]	; 93f8 <va_printk+0x5f8>
    8fd0:	ebfffe84 	bl	89e8 <printk>
    8fd4:	e3a02003 	mov	r2, #3, 0
    8fd8:	e1a00006 	mov	r0, r6
    8fdc:	e59f1408 	ldr	r1, [pc, #1032]	; 93ec <va_printk+0x5ec>
    8fe0:	eb000366 	bl	9d80 <strncmp>
    8fe4:	e2503000 	subs	r3, r0, #0, 0
    8fe8:	e1a02003 	mov	r2, r3
    8fec:	e2863002 	add	r3, r6, #2, 0
    8ff0:	e58d3014 	str	r3, [sp, #20]
    8ff4:	1a00009f 	bne	9278 <va_printk+0x478>
    8ff8:	e1a06002 	mov	r6, r2
    8ffc:	e1a03005 	mov	r3, r5
    9000:	e58d2000 	str	r2, [sp]
    9004:	e28d1018 	add	r1, sp, #24, 0
    9008:	e1a0200b 	mov	r2, fp
    900c:	e3a00010 	mov	r0, #16, 0
    9010:	ebfffe98 	bl	8a78 <emit.constprop.0>
    9014:	e1a0c000 	mov	ip, r0
    9018:	e1a03005 	mov	r3, r5
    901c:	e58d6000 	str	r6, [sp]
    9020:	e28d1098 	add	r1, sp, #152, 0	; 0x98
    9024:	e1a02009 	mov	r2, r9
    9028:	e3a00010 	mov	r0, #16, 0
    902c:	e1a0500c 	mov	r5, ip
    9030:	ebfffe90 	bl	8a78 <emit.constprop.0>
    9034:	e28d0018 	add	r0, sp, #24, 0
    9038:	e28d109a 	add	r1, sp, #154, 0	; 0x9a
    903c:	e59d6014 	ldr	r6, [sp, #20]
    9040:	eb00032c 	bl	9cf8 <strcat>
    9044:	eaffffc3 	b	8f58 <va_printk+0x158>
    9048:	e3a01000 	mov	r1, #0, 0
    904c:	e1a03005 	mov	r3, r5
    9050:	e4982004 	ldr	r2, [r8], #4
    9054:	e3a0000a 	mov	r0, #10, 0
    9058:	e58d1000 	str	r1, [sp]
    905c:	e28d1018 	add	r1, sp, #24, 0
    9060:	ebfffe84 	bl	8a78 <emit.constprop.0>
    9064:	e1a05000 	mov	r5, r0
    9068:	eaffffba 	b	8f58 <va_printk+0x158>
    906c:	e3a01001 	mov	r1, #1, 0
    9070:	eafffff5 	b	904c <va_printk+0x24c>
    9074:	e4983004 	ldr	r3, [r8], #4
    9078:	e3550001 	cmp	r5, #1, 0
    907c:	e5cd3098 	strb	r3, [sp, #152]	; 0x98
    9080:	9a0000a6 	bls	9320 <va_printk+0x520>
    9084:	e2453002 	sub	r3, r5, #2, 0
    9088:	e3530002 	cmp	r3, #2, 0
    908c:	e2451001 	sub	r1, r5, #1, 0
    9090:	9a0000bc 	bls	9388 <va_printk+0x588>
    9094:	e59f0360 	ldr	r0, [pc, #864]	; 93fc <va_printk+0x5fc>
    9098:	e1a02121 	lsr	r2, r1, #2
    909c:	e3520001 	cmp	r2, #1, 0
    90a0:	e58d0099 	str	r0, [sp, #153]	; 0x99
    90a4:	0a00000e 	beq	90e4 <va_printk+0x2e4>
    90a8:	e3520002 	cmp	r2, #2, 0
    90ac:	e58d009d 	str	r0, [sp, #157]	; 0x9d
    90b0:	0a00000b 	beq	90e4 <va_printk+0x2e4>
    90b4:	e3520003 	cmp	r2, #3, 0
    90b8:	e58d00a1 	str	r0, [sp, #161]	; 0xa1
    90bc:	0a000008 	beq	90e4 <va_printk+0x2e4>
    90c0:	e3520004 	cmp	r2, #4, 0
    90c4:	e58d00a5 	str	r0, [sp, #165]	; 0xa5
    90c8:	0a000005 	beq	90e4 <va_printk+0x2e4>
    90cc:	e3520005 	cmp	r2, #5, 0
    90d0:	e58d00a9 	str	r0, [sp, #169]	; 0xa9
    90d4:	0a000002 	beq	90e4 <va_printk+0x2e4>
    90d8:	e3520007 	cmp	r2, #7, 0
    90dc:	e58d00ad 	str	r0, [sp, #173]	; 0xad
    90e0:	058d00b1 	streq	r0, [sp, #177]	; 0xb1
    90e4:	e3c12003 	bic	r2, r1, #3, 0
    90e8:	e1510002 	cmp	r1, r2
    90ec:	e28dc099 	add	ip, sp, #153, 0	; 0x99
    90f0:	e08c0002 	add	r0, ip, r2
    90f4:	e2822001 	add	r2, r2, #1, 0
    90f8:	0a000008 	beq	9120 <va_printk+0x320>
    90fc:	e3a0e020 	mov	lr, #32, 0
    9100:	e2829001 	add	r9, r2, #1, 0
    9104:	e1550009 	cmp	r5, r9
    9108:	e5c0e000 	strb	lr, [r0]
    910c:	da000003 	ble	9120 <va_printk+0x320>
    9110:	e2822002 	add	r2, r2, #2, 0
    9114:	e1550002 	cmp	r5, r2
    9118:	e5c0e001 	strb	lr, [r0, #1]
    911c:	c5c0e002 	strbgt	lr, [r0, #2]
    9120:	e3a0e000 	mov	lr, #0, 0
    9124:	e28d0098 	add	r0, sp, #152, 0	; 0x98
    9128:	e08c2001 	add	r2, ip, r1
    912c:	e0422000 	sub	r2, r2, r0
    9130:	e352007f 	cmp	r2, #127, 0	; 0x7f
    9134:	c242207f 	subgt	r2, r2, #127, 0	; 0x7f
    9138:	e08c3003 	add	r3, ip, r3
    913c:	c0800002 	addgt	r0, r0, r2
    9140:	e1530000 	cmp	r3, r0
    9144:	e7cce001 	strb	lr, [ip, r1]
    9148:	3a00006c 	bcc	9300 <va_printk+0x500>
    914c:	e283c001 	add	ip, r3, #1, 0
    9150:	e1a0300c 	mov	r3, ip
    9154:	e28d5018 	add	r5, sp, #24, 0
    9158:	e2452001 	sub	r2, r5, #1, 0
    915c:	e5731001 	ldrb	r1, [r3, #-1]!
    9160:	e1500003 	cmp	r0, r3
    9164:	e5e21001 	strb	r1, [r2, #1]!
    9168:	1afffffb 	bne	915c <va_printk+0x35c>
    916c:	e04c3000 	sub	r3, ip, r0
    9170:	e0853003 	add	r3, r5, r3
    9174:	ea00003a 	b	9264 <va_printk+0x464>
    9178:	e28d1098 	add	r1, sp, #152, 0	; 0x98
    917c:	e1a03001 	mov	r3, r1
    9180:	e4980004 	ldr	r0, [r8], #4
    9184:	e200c001 	and	ip, r0, #1, 0
    9188:	e7dac00c 	ldrb	ip, [sl, ip]
    918c:	e3500001 	cmp	r0, #1, 0
    9190:	e1a02003 	mov	r2, r3
    9194:	e1a000a0 	lsr	r0, r0, #1
    9198:	e4c3c001 	strb	ip, [r3], #1
    919c:	8afffff8 	bhi	9184 <va_printk+0x384>
    91a0:	e0430001 	sub	r0, r3, r1
    91a4:	e1550000 	cmp	r5, r0
    91a8:	da000057 	ble	930c <va_printk+0x50c>
    91ac:	e045c000 	sub	ip, r5, r0
    91b0:	e24ce001 	sub	lr, ip, #1, 0
    91b4:	e35e0002 	cmp	lr, #2, 0
    91b8:	e1a0e003 	mov	lr, r3
    91bc:	9a00000a 	bls	91ec <va_printk+0x3ec>
    91c0:	e3cc9003 	bic	r9, ip, #3, 0
    91c4:	e0899003 	add	r9, r9, r3
    91c8:	e59fb22c 	ldr	fp, [pc, #556]	; 93fc <va_printk+0x5fc>
    91cc:	e48eb004 	str	fp, [lr], #4
    91d0:	e15e0009 	cmp	lr, r9
    91d4:	1afffffb 	bne	91c8 <va_printk+0x3c8>
    91d8:	e3cce003 	bic	lr, ip, #3, 0
    91dc:	e15e000c 	cmp	lr, ip
    91e0:	e080000e 	add	r0, r0, lr
    91e4:	e083e00e 	add	lr, r3, lr
    91e8:	0a000008 	beq	9210 <va_printk+0x410>
    91ec:	e3a09020 	mov	r9, #32, 0
    91f0:	e280b001 	add	fp, r0, #1, 0
    91f4:	e155000b 	cmp	r5, fp
    91f8:	e5ce9000 	strb	r9, [lr]
    91fc:	da000003 	ble	9210 <va_printk+0x410>
    9200:	e2800002 	add	r0, r0, #2, 0
    9204:	e1550000 	cmp	r5, r0
    9208:	e5ce9001 	strb	r9, [lr, #1]
    920c:	c5ce9002 	strbgt	r9, [lr, #2]
    9210:	e3a0e000 	mov	lr, #0, 0
    9214:	e083000c 	add	r0, r3, ip
    9218:	e0400001 	sub	r0, r0, r1
    921c:	e350007f 	cmp	r0, #127, 0	; 0x7f
    9220:	e082200c 	add	r2, r2, ip
    9224:	e7c3e00c 	strb	lr, [r3, ip]
    9228:	da000001 	ble	9234 <va_printk+0x434>
    922c:	e240007f 	sub	r0, r0, #127, 0	; 0x7f
    9230:	e0811000 	add	r1, r1, r0
    9234:	e1510002 	cmp	r1, r2
    9238:	8a000030 	bhi	9300 <va_printk+0x500>
    923c:	e2822001 	add	r2, r2, #1, 0
    9240:	e1a03002 	mov	r3, r2
    9244:	e28d5018 	add	r5, sp, #24, 0
    9248:	e245c001 	sub	ip, r5, #1, 0
    924c:	e5730001 	ldrb	r0, [r3, #-1]!
    9250:	e1530001 	cmp	r3, r1
    9254:	e5ec0001 	strb	r0, [ip, #1]!
    9258:	1afffffb 	bne	924c <va_printk+0x44c>
    925c:	e0423003 	sub	r3, r2, r3
    9260:	e0853003 	add	r3, r5, r3
    9264:	e3a02000 	mov	r2, #0, 0
    9268:	e5c32000 	strb	r2, [r3]
    926c:	eaffff39 	b	8f58 <va_printk+0x158>
    9270:	e4985004 	ldr	r5, [r8], #4
    9274:	eaffff37 	b	8f58 <va_printk+0x158>
    9278:	e3a02003 	mov	r2, #3, 0
    927c:	e1a00006 	mov	r0, r6
    9280:	e59f1168 	ldr	r1, [pc, #360]	; 93f0 <va_printk+0x5f0>
    9284:	eb0002bd 	bl	9d80 <strncmp>
    9288:	e2503000 	subs	r3, r0, #0, 0
    928c:	1a00004b 	bne	93c0 <va_printk+0x5c0>
    9290:	e1a06003 	mov	r6, r3
    9294:	e1a0200b 	mov	r2, fp
    9298:	e58d3000 	str	r3, [sp]
    929c:	e28d1018 	add	r1, sp, #24, 0
    92a0:	e1a03005 	mov	r3, r5
    92a4:	e3a0000a 	mov	r0, #10, 0
    92a8:	ebfffdf2 	bl	8a78 <emit.constprop.0>
    92ac:	e1a0c000 	mov	ip, r0
    92b0:	e1a03005 	mov	r3, r5
    92b4:	e1a02009 	mov	r2, r9
    92b8:	e28d1098 	add	r1, sp, #152, 0	; 0x98
    92bc:	e3a0000a 	mov	r0, #10, 0
    92c0:	e58d6000 	str	r6, [sp]
    92c4:	e1a0500c 	mov	r5, ip
    92c8:	ebfffdea 	bl	8a78 <emit.constprop.0>
    92cc:	e59f112c 	ldr	r1, [pc, #300]	; 9400 <va_printk+0x600>
    92d0:	e28d0018 	add	r0, sp, #24, 0
    92d4:	eb000292 	bl	9d24 <strcmp>
    92d8:	e3500000 	cmp	r0, #0, 0
    92dc:	e28d1098 	add	r1, sp, #152, 0	; 0x98
    92e0:	e28d0018 	add	r0, sp, #24, 0
    92e4:	1a000002 	bne	92f4 <va_printk+0x4f4>
    92e8:	eb00029e 	bl	9d68 <strcpy>
    92ec:	e59d6014 	ldr	r6, [sp, #20]
    92f0:	eaffff18 	b	8f58 <va_printk+0x158>
    92f4:	eb00027f 	bl	9cf8 <strcat>
    92f8:	e59d6014 	ldr	r6, [sp, #20]
    92fc:	eaffff15 	b	8f58 <va_printk+0x158>
    9300:	e28d5018 	add	r5, sp, #24, 0
    9304:	e1a03005 	mov	r3, r5
    9308:	eaffffd5 	b	9264 <va_printk+0x464>
    930c:	e3a0c000 	mov	ip, #0, 0
    9310:	e350007f 	cmp	r0, #127, 0	; 0x7f
    9314:	e5c3c000 	strb	ip, [r3]
    9318:	caffffc3 	bgt	922c <va_printk+0x42c>
    931c:	eaffffc6 	b	923c <va_printk+0x43c>
    9320:	e3a02000 	mov	r2, #0, 0
    9324:	e28d3098 	add	r3, sp, #152, 0	; 0x98
    9328:	e1a00003 	mov	r0, r3
    932c:	e5cd2099 	strb	r2, [sp, #153]	; 0x99
    9330:	eaffff85 	b	914c <va_printk+0x34c>
    9334:	e3a03000 	mov	r3, #0, 0
    9338:	e1a01002 	mov	r1, r2
    933c:	e5c63001 	strb	r3, [r6, #1]
    9340:	e59f00bc 	ldr	r0, [pc, #188]	; 9404 <va_printk+0x604>
    9344:	ebfffda7 	bl	89e8 <printk>
    9348:	e59f30b8 	ldr	r3, [pc, #184]	; 9408 <va_printk+0x608>
    934c:	e59d0010 	ldr	r0, [sp, #16]
    9350:	e5933000 	ldr	r3, [r3]
    9354:	e12fff33 	blx	r3
    9358:	e3a030e2 	mov	r3, #226, 0	; 0xe2
    935c:	e59f20a8 	ldr	r2, [pc, #168]	; 940c <va_printk+0x60c>
    9360:	e59f10a8 	ldr	r1, [pc, #168]	; 9410 <va_printk+0x610>
    9364:	e59f00a8 	ldr	r0, [pc, #168]	; 9414 <va_printk+0x614>
    9368:	ebfffd9e 	bl	89e8 <printk>
    936c:	eb000036 	bl	944c <clean_reboot>
    9370:	e3a030be 	mov	r3, #190, 0	; 0xbe
    9374:	e59f2090 	ldr	r2, [pc, #144]	; 940c <va_printk+0x60c>
    9378:	e59f1090 	ldr	r1, [pc, #144]	; 9410 <va_printk+0x610>
    937c:	e59f0094 	ldr	r0, [pc, #148]	; 9418 <va_printk+0x618>
    9380:	ebfffd98 	bl	89e8 <printk>
    9384:	eb000030 	bl	944c <clean_reboot>
    9388:	e28dc099 	add	ip, sp, #153, 0	; 0x99
    938c:	e1a0000c 	mov	r0, ip
    9390:	e3a02001 	mov	r2, #1, 0
    9394:	eaffff58 	b	90fc <va_printk+0x2fc>
    9398:	e1a0400b 	mov	r4, fp
    939c:	eafffee0 	b	8f24 <va_printk+0x124>
    93a0:	e3a03098 	mov	r3, #152, 0	; 0x98
    93a4:	e59f2070 	ldr	r2, [pc, #112]	; 941c <va_printk+0x61c>
    93a8:	e59f1060 	ldr	r1, [pc, #96]	; 9410 <va_printk+0x610>
    93ac:	e58d2000 	str	r2, [sp]
    93b0:	e59f0068 	ldr	r0, [pc, #104]	; 9420 <va_printk+0x620>
    93b4:	e59f2050 	ldr	r2, [pc, #80]	; 940c <va_printk+0x60c>
    93b8:	ebfffd8a 	bl	89e8 <printk>
    93bc:	eb000022 	bl	944c <clean_reboot>
    93c0:	e3a030b6 	mov	r3, #182, 0	; 0xb6
    93c4:	e59f2040 	ldr	r2, [pc, #64]	; 940c <va_printk+0x60c>
    93c8:	e59f1040 	ldr	r1, [pc, #64]	; 9410 <va_printk+0x610>
    93cc:	e59f0050 	ldr	r0, [pc, #80]	; 9424 <va_printk+0x624>
    93d0:	e58d6000 	str	r6, [sp]
    93d4:	ebfffd83 	bl	89e8 <printk>
    93d8:	eb00001b 	bl	944c <clean_reboot>
    93dc:	e3a0309f 	mov	r3, #159, 0	; 0x9f
    93e0:	e59f2040 	ldr	r2, [pc, #64]	; 9428 <va_printk+0x628>
    93e4:	eaffffef 	b	93a8 <va_printk+0x5a8>
    93e8:	00009e24 	andeq	r9, r0, r4, lsr #28
    93ec:	00009e48 	andeq	r9, r0, r8, asr #28
    93f0:	00009e5c 	andeq	r9, r0, ip, asr lr
    93f4:	00009e4c 	andeq	r9, r0, ip, asr #28
    93f8:	00009e54 	andeq	r9, r0, r4, asr lr
    93fc:	20202020 	eorcs	r2, r0, r0, lsr #32
    9400:	00009e0c 	andeq	r9, r0, ip, lsl #28
    9404:	00009eec 	andeq	r9, r0, ip, ror #29
    9408:	0000a168 	andeq	sl, r0, r8, ror #2
    940c:	00009f54 	andeq	r9, r0, r4, asr pc
    9410:	00009de4 	andeq	r9, r0, r4, ror #27
    9414:	00009f1c 	andeq	r9, r0, ip, lsl pc
    9418:	00009ec4 	andeq	r9, r0, r4, asr #29
    941c:	00009e3c 	andeq	r9, r0, ip, lsr lr
    9420:	00009df8 	strdeq	r9, [r0], -r8
    9424:	00009e9c 	muleq	r0, ip, lr
    9428:	00009e60 	andeq	r9, r0, r0, ror #28

0000942c <enable_cache>:
    942c:	ee113f10 	mrc	15, 0, r3, cr1, cr0, {0}
    9430:	e3833b06 	orr	r3, r3, #6144	; 0x1800
    9434:	ee013f10 	mcr	15, 0, r3, cr1, cr0, {0}
    9438:	e12fff1e 	bx	lr

0000943c <disable_cache>:
    943c:	ee113f10 	mrc	15, 0, r3, cr1, cr0, {0}
    9440:	e3c33b06 	bic	r3, r3, #6144	; 0x1800
    9444:	ee013f10 	mcr	15, 0, r3, cr1, cr0, {0}
    9448:	e12fff1e 	bx	lr

0000944c <clean_reboot>:
    944c:	e59f301c 	ldr	r3, [pc, #28]	; 9470 <clean_reboot+0x24>
    9450:	e92d4010 	push	{r4, lr}
    9454:	e5933000 	ldr	r3, [r3]
    9458:	e59f0014 	ldr	r0, [pc, #20]	; 9474 <clean_reboot+0x28>
    945c:	e12fff33 	blx	r3
    9460:	eb00011b 	bl	98d4 <uart_flush_tx>
    9464:	e3a0000a 	mov	r0, #10, 0
    9468:	eb000082 	bl	9678 <delay_ms>
    946c:	eb00004b 	bl	95a0 <rpi_reboot>
    9470:	0000a168 	andeq	sl, r0, r8, ror #2
    9474:	00009f60 	andeq	r9, r0, r0, ror #30

00009478 <_cstart>:
    9478:	e92d4070 	push	{r4, r5, r6, lr}
    947c:	eb00003b 	bl	9570 <custom_loader>
    9480:	e59f20e0 	ldr	r2, [pc, #224]	; 9568 <_cstart+0xf0>
    9484:	e59fc0e0 	ldr	ip, [pc, #224]	; 956c <_cstart+0xf4>
    9488:	e152000c 	cmp	r2, ip
    948c:	2a00002e 	bcs	954c <_cstart+0xd4>
    9490:	e24c1001 	sub	r1, ip, #1, 0
    9494:	e0411002 	sub	r1, r1, r2
    9498:	e3510017 	cmp	r1, #23, 0
    949c:	e1a03122 	lsr	r3, r2, #2
    94a0:	e1a01121 	lsr	r1, r1, #2
    94a4:	e2811001 	add	r1, r1, #1, 0
    94a8:	e2033001 	and	r3, r3, #1, 0
    94ac:	9a00002b 	bls	9560 <_cstart+0xe8>
    94b0:	e3530000 	cmp	r3, #0, 0
    94b4:	11a00002 	movne	r0, r2
    94b8:	13a0e000 	movne	lr, #0, 0
    94bc:	e3a04000 	mov	r4, #0, 0
    94c0:	e3a05000 	mov	r5, #0, 0
    94c4:	e0411003 	sub	r1, r1, r3
    94c8:	01a00002 	moveq	r0, r2
    94cc:	e0823103 	add	r3, r2, r3, lsl #2
    94d0:	e1a020a1 	lsr	r2, r1, #1
    94d4:	1480e004 	strne	lr, [r0], #4
    94d8:	e0832182 	add	r2, r3, r2, lsl #3
    94dc:	e0c340f8 	strd	r4, [r3], #8
    94e0:	e1520003 	cmp	r2, r3
    94e4:	1afffffc 	bne	94dc <_cstart+0x64>
    94e8:	e3c13001 	bic	r3, r1, #1, 0
    94ec:	e1510003 	cmp	r1, r3
    94f0:	e0803103 	add	r3, r0, r3, lsl #2
    94f4:	0a000014 	beq	954c <_cstart+0xd4>
    94f8:	e1a01003 	mov	r1, r3
    94fc:	e3a02000 	mov	r2, #0, 0
    9500:	e4812004 	str	r2, [r1], #4
    9504:	e151000c 	cmp	r1, ip
    9508:	2a00000f 	bcs	954c <_cstart+0xd4>
    950c:	e2831008 	add	r1, r3, #8, 0
    9510:	e151000c 	cmp	r1, ip
    9514:	e5832004 	str	r2, [r3, #4]
    9518:	2a00000b 	bcs	954c <_cstart+0xd4>
    951c:	e283100c 	add	r1, r3, #12, 0
    9520:	e151000c 	cmp	r1, ip
    9524:	e5832008 	str	r2, [r3, #8]
    9528:	2a000007 	bcs	954c <_cstart+0xd4>
    952c:	e2831010 	add	r1, r3, #16, 0
    9530:	e151000c 	cmp	r1, ip
    9534:	e583200c 	str	r2, [r3, #12]
    9538:	2a000003 	bcs	954c <_cstart+0xd4>
    953c:	e2831014 	add	r1, r3, #20, 0
    9540:	e151000c 	cmp	r1, ip
    9544:	e5832010 	str	r2, [r3, #16]
    9548:	35832014 	strcc	r2, [r3, #20]
    954c:	eb000082 	bl	975c <uart_init>
    9550:	e3a03001 	mov	r3, #1, 0
    9554:	ee0f3f1c 	mcr	15, 0, r3, cr15, cr12, {0}
    9558:	ebfffad4 	bl	80b0 <notmain>
    955c:	ebffffba 	bl	944c <clean_reboot>
    9560:	e1a03002 	mov	r3, r2
    9564:	eaffffe3 	b	94f8 <_cstart+0x80>
    9568:	0000a17c 	andeq	sl, r0, ip, ror r1
    956c:	0000a580 	andeq	sl, r0, r0, lsl #11

00009570 <custom_loader>:
    9570:	e12fff1e 	bx	lr

00009574 <at_user_level>:
    9574:	e10f0000 	mrs	r0, CPSR
    9578:	e200001f 	and	r0, r0, #31, 0
    957c:	e2400010 	sub	r0, r0, #16, 0
    9580:	e16f0f10 	clz	r0, r0
    9584:	e1a002a0 	lsr	r0, r0, #5
    9588:	e12fff1e 	bx	lr

0000958c <set_user_level>:
    958c:	e10f3000 	mrs	r3, CPSR
    9590:	e3c3301f 	bic	r3, r3, #31, 0
    9594:	e3833010 	orr	r3, r3, #16, 0
    9598:	e129f003 	msr	CPSR_fc, r3
    959c:	e12fff1e 	bx	lr

000095a0 <rpi_reboot>:
    95a0:	e92d4010 	push	{r4, lr}
    95a4:	e10f3000 	mrs	r3, CPSR
    95a8:	e203301f 	and	r3, r3, #31, 0
    95ac:	e3530010 	cmp	r3, #16, 0
    95b0:	1a000003 	bne	95c4 <rpi_reboot+0x24>
    95b4:	e10f3000 	mrs	r3, CPSR
    95b8:	e3c3301f 	bic	r3, r3, #31, 0
    95bc:	e3833010 	orr	r3, r3, #16, 0
    95c0:	e129f003 	msr	CPSR_fc, r3
    95c4:	eb0001f9 	bl	9db0 <reboot_callout>
    95c8:	eb0000c1 	bl	98d4 <uart_flush_tx>
    95cc:	e3a0000a 	mov	r0, #10, 0
    95d0:	eb000028 	bl	9678 <delay_ms>
    95d4:	e59f1014 	ldr	r1, [pc, #20]	; 95f0 <rpi_reboot+0x50>
    95d8:	e59f0014 	ldr	r0, [pc, #20]	; 95f4 <rpi_reboot+0x54>
    95dc:	ebfffa90 	bl	8024 <PUT32>
    95e0:	e59f1010 	ldr	r1, [pc, #16]	; 95f8 <rpi_reboot+0x58>
    95e4:	e59f0010 	ldr	r0, [pc, #16]	; 95fc <rpi_reboot+0x5c>
    95e8:	ebfffa8d 	bl	8024 <PUT32>
    95ec:	eafffffe 	b	95ec <rpi_reboot+0x4c>
    95f0:	5a000001 	bpl	95fc <rpi_reboot+0x5c>
    95f4:	20100024 	andscs	r0, r0, r4, lsr #32
    95f8:	5a000020 	bpl	9680 <delay_ms+0x8>
    95fc:	2010001c 	andscs	r0, r0, ip, lsl r0

00009600 <timer_get_usec_raw>:
    9600:	e59f0000 	ldr	r0, [pc]	; 9608 <timer_get_usec_raw+0x8>
    9604:	eafffa88 	b	802c <GET32>
    9608:	20003004 	andcs	r3, r0, r4

0000960c <timer_get_usec>:
    960c:	e92d4010 	push	{r4, lr}
    9610:	eb0001e7 	bl	9db4 <dev_barrier>
    9614:	e59f0010 	ldr	r0, [pc, #16]	; 962c <timer_get_usec+0x20>
    9618:	ebfffa83 	bl	802c <GET32>
    961c:	e1a04000 	mov	r4, r0
    9620:	eb0001e3 	bl	9db4 <dev_barrier>
    9624:	e1a00004 	mov	r0, r4
    9628:	e8bd8010 	pop	{r4, pc}
    962c:	20003004 	andcs	r3, r0, r4

00009630 <delay_us>:
    9630:	e92d41f0 	push	{r4, r5, r6, r7, r8, lr}
    9634:	e1a06000 	mov	r6, r0
    9638:	eb0001dd 	bl	9db4 <dev_barrier>
    963c:	e59f0030 	ldr	r0, [pc, #48]	; 9674 <delay_us+0x44>
    9640:	ebfffa79 	bl	802c <GET32>
    9644:	e1a05000 	mov	r5, r0
    9648:	eb0001d9 	bl	9db4 <dev_barrier>
    964c:	e59f7020 	ldr	r7, [pc, #32]	; 9674 <delay_us+0x44>
    9650:	eb0001d7 	bl	9db4 <dev_barrier>
    9654:	e1a00007 	mov	r0, r7
    9658:	ebfffa73 	bl	802c <GET32>
    965c:	e1a04000 	mov	r4, r0
    9660:	e0444005 	sub	r4, r4, r5
    9664:	eb0001d2 	bl	9db4 <dev_barrier>
    9668:	e1540006 	cmp	r4, r6
    966c:	3afffff7 	bcc	9650 <delay_us+0x20>
    9670:	e8bd81f0 	pop	{r4, r5, r6, r7, r8, pc}
    9674:	20003004 	andcs	r3, r0, r4

00009678 <delay_ms>:
    9678:	e92d41f0 	push	{r4, r5, r6, r7, r8, lr}
    967c:	e0604280 	rsb	r4, r0, r0, lsl #5
    9680:	e0800104 	add	r0, r0, r4, lsl #2
    9684:	e1a04180 	lsl	r4, r0, #3
    9688:	eb0001c9 	bl	9db4 <dev_barrier>
    968c:	e59f0030 	ldr	r0, [pc, #48]	; 96c4 <delay_ms+0x4c>
    9690:	ebfffa65 	bl	802c <GET32>
    9694:	e1a06000 	mov	r6, r0
    9698:	eb0001c5 	bl	9db4 <dev_barrier>
    969c:	e59f7020 	ldr	r7, [pc, #32]	; 96c4 <delay_ms+0x4c>
    96a0:	eb0001c3 	bl	9db4 <dev_barrier>
    96a4:	e1a00007 	mov	r0, r7
    96a8:	ebfffa5f 	bl	802c <GET32>
    96ac:	e1a05000 	mov	r5, r0
    96b0:	e0455006 	sub	r5, r5, r6
    96b4:	eb0001be 	bl	9db4 <dev_barrier>
    96b8:	e1540005 	cmp	r4, r5
    96bc:	8afffff7 	bhi	96a0 <delay_ms+0x28>
    96c0:	e8bd81f0 	pop	{r4, r5, r6, r7, r8, pc}
    96c4:	20003004 	andcs	r3, r0, r4

000096c8 <delay_sec>:
    96c8:	e92d41f0 	push	{r4, r5, r6, r7, r8, lr}
    96cc:	e0604280 	rsb	r4, r0, r0, lsl #5
    96d0:	e0644304 	rsb	r4, r4, r4, lsl #6
    96d4:	e0800184 	add	r0, r0, r4, lsl #3
    96d8:	e1a04300 	lsl	r4, r0, #6
    96dc:	eb0001b4 	bl	9db4 <dev_barrier>
    96e0:	e59f0030 	ldr	r0, [pc, #48]	; 9718 <delay_sec+0x50>
    96e4:	ebfffa50 	bl	802c <GET32>
    96e8:	e1a06000 	mov	r6, r0
    96ec:	eb0001b0 	bl	9db4 <dev_barrier>
    96f0:	e59f7020 	ldr	r7, [pc, #32]	; 9718 <delay_sec+0x50>
    96f4:	eb0001ae 	bl	9db4 <dev_barrier>
    96f8:	e1a00007 	mov	r0, r7
    96fc:	ebfffa4a 	bl	802c <GET32>
    9700:	e1a05000 	mov	r5, r0
    9704:	e0455006 	sub	r5, r5, r6
    9708:	eb0001a9 	bl	9db4 <dev_barrier>
    970c:	e1540005 	cmp	r4, r5
    9710:	8afffff7 	bhi	96f4 <delay_sec+0x2c>
    9714:	e8bd81f0 	pop	{r4, r5, r6, r7, r8, pc}
    9718:	20003004 	andcs	r3, r0, r4

0000971c <and_in32>:
    971c:	e92d4070 	push	{r4, r5, r6, lr}
    9720:	e1a04000 	mov	r4, r0
    9724:	e1a05001 	mov	r5, r1
    9728:	ebfffa3f 	bl	802c <GET32>
    972c:	e0001005 	and	r1, r0, r5
    9730:	e1a00004 	mov	r0, r4
    9734:	ebfffa3a 	bl	8024 <PUT32>
    9738:	e8bd8070 	pop	{r4, r5, r6, pc}

0000973c <or_in32>:
    973c:	e92d4070 	push	{r4, r5, r6, lr}
    9740:	e1a04000 	mov	r4, r0
    9744:	e1a05001 	mov	r5, r1
    9748:	ebfffa37 	bl	802c <GET32>
    974c:	e1801005 	orr	r1, r0, r5
    9750:	e1a00004 	mov	r0, r4
    9754:	ebfffa32 	bl	8024 <PUT32>
    9758:	e8bd8070 	pop	{r4, r5, r6, pc}

0000975c <uart_init>:
    975c:	e92d4010 	push	{r4, lr}
    9760:	e3a01002 	mov	r1, #2, 0
    9764:	e3a0000e 	mov	r0, #14, 0
    9768:	ebfffc18 	bl	87d0 <gpio_set_function>
    976c:	e3a01002 	mov	r1, #2, 0
    9770:	e3a0000f 	mov	r0, #15, 0
    9774:	ebfffc15 	bl	87d0 <gpio_set_function>
    9778:	eb00018d 	bl	9db4 <dev_barrier>
    977c:	e3a01001 	mov	r1, #1, 0
    9780:	e59f0064 	ldr	r0, [pc, #100]	; 97ec <uart_init+0x90>
    9784:	ebffffec 	bl	973c <or_in32>
    9788:	eb000189 	bl	9db4 <dev_barrier>
    978c:	e59f405c 	ldr	r4, [pc, #92]	; 97f0 <uart_init+0x94>
    9790:	e3a01000 	mov	r1, #0, 0
    9794:	e1a00004 	mov	r0, r4
    9798:	ebfffa21 	bl	8024 <PUT32>
    979c:	e3a01000 	mov	r1, #0, 0
    97a0:	e59f004c 	ldr	r0, [pc, #76]	; 97f4 <uart_init+0x98>
    97a4:	ebfffa1e 	bl	8024 <PUT32>
    97a8:	e3a01003 	mov	r1, #3, 0
    97ac:	e59f0044 	ldr	r0, [pc, #68]	; 97f8 <uart_init+0x9c>
    97b0:	ebfffa1b 	bl	8024 <PUT32>
    97b4:	e3a01000 	mov	r1, #0, 0
    97b8:	e59f003c 	ldr	r0, [pc, #60]	; 97fc <uart_init+0xa0>
    97bc:	ebfffa18 	bl	8024 <PUT32>
    97c0:	e3a010c7 	mov	r1, #199, 0	; 0xc7
    97c4:	e59f0034 	ldr	r0, [pc, #52]	; 9800 <uart_init+0xa4>
    97c8:	ebfffa15 	bl	8024 <PUT32>
    97cc:	e59f1030 	ldr	r1, [pc, #48]	; 9804 <uart_init+0xa8>
    97d0:	e59f0030 	ldr	r0, [pc, #48]	; 9808 <uart_init+0xac>
    97d4:	ebfffa12 	bl	8024 <PUT32>
    97d8:	e3a01003 	mov	r1, #3, 0
    97dc:	e1a00004 	mov	r0, r4
    97e0:	ebfffa0f 	bl	8024 <PUT32>
    97e4:	eb000172 	bl	9db4 <dev_barrier>
    97e8:	e8bd8010 	pop	{r4, pc}
    97ec:	20215004 	eorcs	r5, r1, r4
    97f0:	20215060 	eorcs	r5, r1, r0, rrx
    97f4:	20215044 	eorcs	r5, r1, r4, asr #32
    97f8:	2021504c 	eorcs	r5, r1, ip, asr #32
    97fc:	20215050 	eorcs	r5, r1, r0, asr r0
    9800:	20215048 	eorcs	r5, r1, r8, asr #32
    9804:	0000010e 	andeq	r0, r0, lr, lsl #2
    9808:	20215068 	eorcs	r5, r1, r8, rrx

0000980c <uart_can_getc>:
    980c:	e92d4010 	push	{r4, lr}
    9810:	e59f0008 	ldr	r0, [pc, #8]	; 9820 <uart_can_getc+0x14>
    9814:	ebfffa04 	bl	802c <GET32>
    9818:	e2000001 	and	r0, r0, #1, 0
    981c:	e8bd8010 	pop	{r4, pc}
    9820:	20215064 	eorcs	r5, r1, r4, rrx

00009824 <uart_can_putc>:
    9824:	e92d4010 	push	{r4, lr}
    9828:	e59f0010 	ldr	r0, [pc, #16]	; 9840 <uart_can_putc+0x1c>
    982c:	ebfff9fe 	bl	802c <GET32>
    9830:	e3100002 	tst	r0, #2, 0
    9834:	13a00001 	movne	r0, #1, 0
    9838:	03a00000 	moveq	r0, #0, 0
    983c:	e8bd8010 	pop	{r4, pc}
    9840:	20215064 	eorcs	r5, r1, r4, rrx

00009844 <uart_getc>:
    9844:	e92d4010 	push	{r4, lr}
    9848:	eb000159 	bl	9db4 <dev_barrier>
    984c:	ebffffee 	bl	980c <uart_can_getc>
    9850:	e3500000 	cmp	r0, #0, 0
    9854:	0afffffc 	beq	984c <uart_getc+0x8>
    9858:	e59f0010 	ldr	r0, [pc, #16]	; 9870 <uart_getc+0x2c>
    985c:	ebfff9f2 	bl	802c <GET32>
    9860:	e6ef4070 	uxtb	r4, r0
    9864:	eb000152 	bl	9db4 <dev_barrier>
    9868:	e1a00004 	mov	r0, r4
    986c:	e8bd8010 	pop	{r4, pc}
    9870:	20215040 	eorcs	r5, r1, r0, asr #32

00009874 <uart_putc>:
    9874:	e92d4010 	push	{r4, lr}
    9878:	e1a04000 	mov	r4, r0
    987c:	eb00014c 	bl	9db4 <dev_barrier>
    9880:	ebffffe7 	bl	9824 <uart_can_putc>
    9884:	e3500000 	cmp	r0, #0, 0
    9888:	0afffffc 	beq	9880 <uart_putc+0xc>
    988c:	e6ef1074 	uxtb	r1, r4
    9890:	e59f0008 	ldr	r0, [pc, #8]	; 98a0 <uart_putc+0x2c>
    9894:	ebfff9e2 	bl	8024 <PUT32>
    9898:	eb000145 	bl	9db4 <dev_barrier>
    989c:	e8bd8010 	pop	{r4, pc}
    98a0:	20215040 	eorcs	r5, r1, r0, asr #32

000098a4 <uart_has_data>:
    98a4:	e92d4010 	push	{r4, lr}
    98a8:	eb000141 	bl	9db4 <dev_barrier>
    98ac:	ebffffd6 	bl	980c <uart_can_getc>
    98b0:	e8bd8010 	pop	{r4, pc}

000098b4 <uart_tx_is_empty>:
    98b4:	e92d4010 	push	{r4, lr}
    98b8:	eb00013d 	bl	9db4 <dev_barrier>
    98bc:	e59f000c 	ldr	r0, [pc, #12]	; 98d0 <uart_tx_is_empty+0x1c>
    98c0:	ebfff9d9 	bl	802c <GET32>
    98c4:	e1a004a0 	lsr	r0, r0, #9
    98c8:	e2000001 	and	r0, r0, #1, 0
    98cc:	e8bd8010 	pop	{r4, pc}
    98d0:	20215064 	eorcs	r5, r1, r4, rrx

000098d4 <uart_flush_tx>:
    98d4:	e92d4010 	push	{r4, lr}
    98d8:	ebfffff5 	bl	98b4 <uart_tx_is_empty>
    98dc:	e3500000 	cmp	r0, #0, 0
    98e0:	0afffffc 	beq	98d8 <uart_flush_tx+0x4>
    98e4:	e8bd8010 	pop	{r4, pc}

000098e8 <uart_disable>:
    98e8:	e92d4010 	push	{r4, lr}
    98ec:	ebfffff8 	bl	98d4 <uart_flush_tx>
    98f0:	eb00012f 	bl	9db4 <dev_barrier>
    98f4:	e3e01001 	mvn	r1, #1, 0
    98f8:	e59f0008 	ldr	r0, [pc, #8]	; 9908 <uart_disable+0x20>
    98fc:	ebffff86 	bl	971c <and_in32>
    9900:	eb00012b 	bl	9db4 <dev_barrier>
    9904:	e8bd8010 	pop	{r4, pc}
    9908:	20215004 	eorcs	r5, r1, r4

0000990c <kmalloc_heap_end>:
    990c:	e59f3004 	ldr	r3, [pc, #4]	; 9918 <kmalloc_heap_end+0xc>
    9910:	e5930000 	ldr	r0, [r3]
    9914:	e12fff1e 	bx	lr
    9918:	0000a16c 	andeq	sl, r0, ip, ror #2

0000991c <kmalloc_heap_start>:
    991c:	e59f3004 	ldr	r3, [pc, #4]	; 9928 <kmalloc_heap_start+0xc>
    9920:	e5930004 	ldr	r0, [r3, #4]
    9924:	e12fff1e 	bx	lr
    9928:	0000a16c 	andeq	sl, r0, ip, ror #2

0000992c <kmalloc_heap_ptr>:
    992c:	e59f3004 	ldr	r3, [pc, #4]	; 9938 <kmalloc_heap_ptr+0xc>
    9930:	e5930000 	ldr	r0, [r3]
    9934:	e12fff1e 	bx	lr
    9938:	0000a16c 	andeq	sl, r0, ip, ror #2

0000993c <kmalloc_init_set_start>:
    993c:	e52de004 	push	{lr}		; (str lr, [sp, #-4]!)
    9940:	e24dd00c 	sub	sp, sp, #12, 0
    9944:	e3510000 	cmp	r1, #0, 0
    9948:	0a00000a 	beq	9978 <kmalloc_init_set_start+0x3c>
    994c:	e59f306c 	ldr	r3, [pc, #108]	; 99c0 <kmalloc_init_set_start+0x84>
    9950:	e5933000 	ldr	r3, [r3]
    9954:	e1530000 	cmp	r3, r0
    9958:	8a00000e 	bhi	9998 <kmalloc_init_set_start+0x5c>
    995c:	e59f305c 	ldr	r3, [pc, #92]	; 99c0 <kmalloc_init_set_start+0x84>
    9960:	e5830000 	str	r0, [r3]
    9964:	e5830004 	str	r0, [r3, #4]
    9968:	e0800001 	add	r0, r0, r1
    996c:	e5830008 	str	r0, [r3, #8]
    9970:	e28dd00c 	add	sp, sp, #12, 0
    9974:	e49df004 	pop	{pc}		; (ldr pc, [sp], #4)
    9978:	e59f3044 	ldr	r3, [pc, #68]	; 99c4 <kmalloc_init_set_start+0x88>
    997c:	e58d3000 	str	r3, [sp]
    9980:	e3a03030 	mov	r3, #48, 0	; 0x30
    9984:	e59f203c 	ldr	r2, [pc, #60]	; 99c8 <kmalloc_init_set_start+0x8c>
    9988:	e59f103c 	ldr	r1, [pc, #60]	; 99cc <kmalloc_init_set_start+0x90>
    998c:	e59f003c 	ldr	r0, [pc, #60]	; 99d0 <kmalloc_init_set_start+0x94>
    9990:	ebfffc14 	bl	89e8 <printk>
    9994:	ebfffeac 	bl	944c <clean_reboot>
    9998:	e59f3020 	ldr	r3, [pc, #32]	; 99c0 <kmalloc_init_set_start+0x84>
    999c:	e5933008 	ldr	r3, [r3, #8]
    99a0:	e58d3004 	str	r3, [sp, #4]
    99a4:	e58d0000 	str	r0, [sp]
    99a8:	e3a03034 	mov	r3, #52, 0	; 0x34
    99ac:	e59f2014 	ldr	r2, [pc, #20]	; 99c8 <kmalloc_init_set_start+0x8c>
    99b0:	e59f1014 	ldr	r1, [pc, #20]	; 99cc <kmalloc_init_set_start+0x90>
    99b4:	e59f0018 	ldr	r0, [pc, #24]	; 99d4 <kmalloc_init_set_start+0x98>
    99b8:	ebfffc0a 	bl	89e8 <printk>
    99bc:	ebfffea2 	bl	944c <clean_reboot>
    99c0:	0000a16c 	andeq	sl, r0, ip, ror #2
    99c4:	00009f78 	andeq	r9, r0, r8, ror pc
    99c8:	0000a104 	andeq	sl, r0, r4, lsl #2
    99cc:	00009f6c 	andeq	r9, r0, ip, ror #30
    99d0:	00009df8 	strdeq	r9, [r0], -r8
    99d4:	00009f84 	andeq	r9, r0, r4, lsl #31

000099d8 <kmalloc_init>:
    99d8:	e92d4010 	push	{r4, lr}
    99dc:	e59f303c 	ldr	r3, [pc, #60]	; 9a20 <kmalloc_init+0x48>
    99e0:	e5933000 	ldr	r3, [r3]
    99e4:	e3530000 	cmp	r3, #0, 0
    99e8:	1a000006 	bne	9a08 <kmalloc_init+0x30>
    99ec:	e59f302c 	ldr	r3, [pc, #44]	; 9a20 <kmalloc_init+0x48>
    99f0:	e3a02001 	mov	r2, #1, 0
    99f4:	e5832000 	str	r2, [r3]
    99f8:	e3a01201 	mov	r1, #268435456	; 0x10000000
    99fc:	e3a00601 	mov	r0, #1048576	; 0x100000
    9a00:	ebffffcd 	bl	993c <kmalloc_init_set_start>
    9a04:	e8bd8010 	pop	{r4, pc}
    9a08:	e3a03040 	mov	r3, #64, 0	; 0x40
    9a0c:	e59f2010 	ldr	r2, [pc, #16]	; 9a24 <kmalloc_init+0x4c>
    9a10:	e59f1010 	ldr	r1, [pc, #16]	; 9a28 <kmalloc_init+0x50>
    9a14:	e59f0010 	ldr	r0, [pc, #16]	; 9a2c <kmalloc_init+0x54>
    9a18:	ebfffbf2 	bl	89e8 <printk>
    9a1c:	ebfffe8a 	bl	944c <clean_reboot>
    9a20:	0000a57c 	andeq	sl, r0, ip, ror r5
    9a24:	0000a11c 	andeq	sl, r0, ip, lsl r1
    9a28:	00009f6c 	andeq	r9, r0, ip, ror #30
    9a2c:	00009fc8 	andeq	r9, r0, r8, asr #31

00009a30 <kmalloc_notzero>:
    9a30:	e52de004 	push	{lr}		; (str lr, [sp, #-4]!)
    9a34:	e24dd00c 	sub	sp, sp, #12, 0
    9a38:	e3500000 	cmp	r0, #0, 0
    9a3c:	0a00000a 	beq	9a6c <kmalloc_notzero+0x3c>
    9a40:	e2800007 	add	r0, r0, #7, 0
    9a44:	e3c03007 	bic	r3, r0, #7, 0
    9a48:	e59f2060 	ldr	r2, [pc, #96]	; 9ab0 <kmalloc_notzero+0x80>
    9a4c:	e5920000 	ldr	r0, [r2]
    9a50:	e0801003 	add	r1, r0, r3
    9a54:	e5821000 	str	r1, [r2]
    9a58:	e5922008 	ldr	r2, [r2, #8]
    9a5c:	e1510002 	cmp	r1, r2
    9a60:	8a000009 	bhi	9a8c <kmalloc_notzero+0x5c>
    9a64:	e28dd00c 	add	sp, sp, #12, 0
    9a68:	e49df004 	pop	{pc}		; (ldr pc, [sp], #4)
    9a6c:	e59f3040 	ldr	r3, [pc, #64]	; 9ab4 <kmalloc_notzero+0x84>
    9a70:	e58d3000 	str	r3, [sp]
    9a74:	e3a03048 	mov	r3, #72, 0	; 0x48
    9a78:	e59f2038 	ldr	r2, [pc, #56]	; 9ab8 <kmalloc_notzero+0x88>
    9a7c:	e59f1038 	ldr	r1, [pc, #56]	; 9abc <kmalloc_notzero+0x8c>
    9a80:	e59f0038 	ldr	r0, [pc, #56]	; 9ac0 <kmalloc_notzero+0x90>
    9a84:	ebfffbd7 	bl	89e8 <printk>
    9a88:	ebfffe6f 	bl	944c <clean_reboot>
    9a8c:	e0422000 	sub	r2, r2, r0
    9a90:	e58d2004 	str	r2, [sp, #4]
    9a94:	e58d3000 	str	r3, [sp]
    9a98:	e3a0304e 	mov	r3, #78, 0	; 0x4e
    9a9c:	e59f2014 	ldr	r2, [pc, #20]	; 9ab8 <kmalloc_notzero+0x88>
    9aa0:	e59f1014 	ldr	r1, [pc, #20]	; 9abc <kmalloc_notzero+0x8c>
    9aa4:	e59f0018 	ldr	r0, [pc, #24]	; 9ac4 <kmalloc_notzero+0x94>
    9aa8:	ebfffbce 	bl	89e8 <printk>
    9aac:	ebfffe66 	bl	944c <clean_reboot>
    9ab0:	0000a16c 	andeq	sl, r0, ip, ror #2
    9ab4:	00009f7c 	andeq	r9, r0, ip, ror pc
    9ab8:	0000a12c 	andeq	sl, r0, ip, lsr #2
    9abc:	00009f6c 	andeq	r9, r0, ip, ror #30
    9ac0:	00009df8 	strdeq	r9, [r0], -r8
    9ac4:	00009ff8 	strdeq	r9, [r0], -r8

00009ac8 <kmalloc>:
    9ac8:	e92d4030 	push	{r4, r5, lr}
    9acc:	e24dd00c 	sub	sp, sp, #12, 0
    9ad0:	e2504000 	subs	r4, r0, #0, 0
    9ad4:	0a000008 	beq	9afc <kmalloc+0x34>
    9ad8:	e1a00004 	mov	r0, r4
    9adc:	ebffffd3 	bl	9a30 <kmalloc_notzero>
    9ae0:	e1a05000 	mov	r5, r0
    9ae4:	e1a02004 	mov	r2, r4
    9ae8:	e3a01000 	mov	r1, #0, 0
    9aec:	ebfffb9f 	bl	8970 <memset>
    9af0:	e1a00005 	mov	r0, r5
    9af4:	e28dd00c 	add	sp, sp, #12, 0
    9af8:	e8bd8030 	pop	{r4, r5, pc}
    9afc:	e59f3018 	ldr	r3, [pc, #24]	; 9b1c <kmalloc+0x54>
    9b00:	e58d3000 	str	r3, [sp]
    9b04:	e3a03054 	mov	r3, #84, 0	; 0x54
    9b08:	e59f2010 	ldr	r2, [pc, #16]	; 9b20 <kmalloc+0x58>
    9b0c:	e59f1010 	ldr	r1, [pc, #16]	; 9b24 <kmalloc+0x5c>
    9b10:	e59f0010 	ldr	r0, [pc, #16]	; 9b28 <kmalloc+0x60>
    9b14:	ebfffbb3 	bl	89e8 <printk>
    9b18:	ebfffe4b 	bl	944c <clean_reboot>
    9b1c:	00009f7c 	andeq	r9, r0, ip, ror pc
    9b20:	0000a13c 	andeq	sl, r0, ip, lsr r1
    9b24:	00009f6c 	andeq	r9, r0, ip, ror #30
    9b28:	00009df8 	strdeq	r9, [r0], -r8

00009b2c <kmalloc_aligned>:
    9b2c:	e52de004 	push	{lr}		; (str lr, [sp, #-4]!)
    9b30:	e24dd00c 	sub	sp, sp, #12, 0
    9b34:	e3500000 	cmp	r0, #0, 0
    9b38:	0a000014 	beq	9b90 <kmalloc_aligned+0x64>
    9b3c:	e2613000 	rsb	r3, r1, #0, 0
    9b40:	e1d13003 	bics	r3, r1, r3
    9b44:	1a000019 	bne	9bb0 <kmalloc_aligned+0x84>
    9b48:	e3510008 	cmp	r1, #8, 0
    9b4c:	33a01008 	movcc	r1, #8, 0
    9b50:	e59f30c0 	ldr	r3, [pc, #192]	; 9c18 <kmalloc_aligned+0xec>
    9b54:	e5932000 	ldr	r2, [r3]
    9b58:	e2613000 	rsb	r3, r1, #0, 0
    9b5c:	e1d1c003 	bics	ip, r1, r3
    9b60:	1a00001b 	bne	9bd4 <kmalloc_aligned+0xa8>
    9b64:	e0822001 	add	r2, r2, r1
    9b68:	e2422001 	sub	r2, r2, #1, 0
    9b6c:	e0033002 	and	r3, r3, r2
    9b70:	e2411001 	sub	r1, r1, #1, 0
    9b74:	e1110003 	tst	r1, r3
    9b78:	1a00001d 	bne	9bf4 <kmalloc_aligned+0xc8>
    9b7c:	e59f2094 	ldr	r2, [pc, #148]	; 9c18 <kmalloc_aligned+0xec>
    9b80:	e5823000 	str	r3, [r2]
    9b84:	ebffffcf 	bl	9ac8 <kmalloc>
    9b88:	e28dd00c 	add	sp, sp, #12, 0
    9b8c:	e49df004 	pop	{pc}		; (ldr pc, [sp], #4)
    9b90:	e59f3084 	ldr	r3, [pc, #132]	; 9c1c <kmalloc_aligned+0xf0>
    9b94:	e58d3000 	str	r3, [sp]
    9b98:	e3a0305f 	mov	r3, #95, 0	; 0x5f
    9b9c:	e59f207c 	ldr	r2, [pc, #124]	; 9c20 <kmalloc_aligned+0xf4>
    9ba0:	e59f107c 	ldr	r1, [pc, #124]	; 9c24 <kmalloc_aligned+0xf8>
    9ba4:	e59f007c 	ldr	r0, [pc, #124]	; 9c28 <kmalloc_aligned+0xfc>
    9ba8:	ebfffb8e 	bl	89e8 <printk>
    9bac:	ebfffe26 	bl	944c <clean_reboot>
    9bb0:	eb000046 	bl	9cd0 <rpi_reset_putc>
    9bb4:	e59f3070 	ldr	r3, [pc, #112]	; 9c2c <kmalloc_aligned+0x100>
    9bb8:	e58d3000 	str	r3, [sp]
    9bbc:	e3a03060 	mov	r3, #96, 0	; 0x60
    9bc0:	e59f2058 	ldr	r2, [pc, #88]	; 9c20 <kmalloc_aligned+0xf4>
    9bc4:	e59f1058 	ldr	r1, [pc, #88]	; 9c24 <kmalloc_aligned+0xf8>
    9bc8:	e59f0060 	ldr	r0, [pc, #96]	; 9c30 <kmalloc_aligned+0x104>
    9bcc:	ebfffb85 	bl	89e8 <printk>
    9bd0:	ebfffe1d 	bl	944c <clean_reboot>
    9bd4:	e59f3058 	ldr	r3, [pc, #88]	; 9c34 <kmalloc_aligned+0x108>
    9bd8:	e58d3000 	str	r3, [sp]
    9bdc:	e3a03011 	mov	r3, #17, 0
    9be0:	e59f2050 	ldr	r2, [pc, #80]	; 9c38 <kmalloc_aligned+0x10c>
    9be4:	e59f1038 	ldr	r1, [pc, #56]	; 9c24 <kmalloc_aligned+0xf8>
    9be8:	e59f0038 	ldr	r0, [pc, #56]	; 9c28 <kmalloc_aligned+0xfc>
    9bec:	ebfffb7d 	bl	89e8 <printk>
    9bf0:	ebfffe15 	bl	944c <clean_reboot>
    9bf4:	eb000035 	bl	9cd0 <rpi_reset_putc>
    9bf8:	e59f303c 	ldr	r3, [pc, #60]	; 9c3c <kmalloc_aligned+0x110>
    9bfc:	e58d3000 	str	r3, [sp]
    9c00:	e3a03068 	mov	r3, #104, 0	; 0x68
    9c04:	e59f2014 	ldr	r2, [pc, #20]	; 9c20 <kmalloc_aligned+0xf4>
    9c08:	e59f1014 	ldr	r1, [pc, #20]	; 9c24 <kmalloc_aligned+0xf8>
    9c0c:	e59f002c 	ldr	r0, [pc, #44]	; 9c40 <kmalloc_aligned+0x114>
    9c10:	ebfffb74 	bl	89e8 <printk>
    9c14:	ebfffe0c 	bl	944c <clean_reboot>
    9c18:	0000a16c 	andeq	sl, r0, ip, ror #2
    9c1c:	00009f7c 	andeq	r9, r0, ip, ror pc
    9c20:	0000a144 	andeq	sl, r0, r4, asr #2
    9c24:	00009f6c 	andeq	r9, r0, ip, ror #30
    9c28:	00009df8 	strdeq	r9, [r0], -r8
    9c2c:	0000a06c 	andeq	sl, r0, ip, rrx
    9c30:	0000a038 	andeq	sl, r0, r8, lsr r0
    9c34:	0000a080 	andeq	sl, r0, r0, lsl #1
    9c38:	0000a154 	andeq	sl, r0, r4, asr r1
    9c3c:	0000a0b8 	strheq	sl, [r0], -r8
    9c40:	0000a08c 	andeq	sl, r0, ip, lsl #1

00009c44 <kfree>:
    9c44:	e12fff1e 	bx	lr

00009c48 <kfree_all>:
    9c48:	e59f3008 	ldr	r3, [pc, #8]	; 9c58 <kfree_all+0x10>
    9c4c:	e5932004 	ldr	r2, [r3, #4]
    9c50:	e5832000 	str	r2, [r3]
    9c54:	e12fff1e 	bx	lr
    9c58:	0000a16c 	andeq	sl, r0, ip, ror #2

00009c5c <kfree_pop>:
    9c5c:	e59f3048 	ldr	r3, [pc, #72]	; 9cac <kfree_pop+0x50>
    9c60:	e5933004 	ldr	r3, [r3, #4]
    9c64:	e1530000 	cmp	r3, r0
    9c68:	8a000006 	bhi	9c88 <kfree_pop+0x2c>
    9c6c:	e59f3038 	ldr	r3, [pc, #56]	; 9cac <kfree_pop+0x50>
    9c70:	e5933008 	ldr	r3, [r3, #8]
    9c74:	e1530000 	cmp	r3, r0
    9c78:	3a000002 	bcc	9c88 <kfree_pop+0x2c>
    9c7c:	e59f3028 	ldr	r3, [pc, #40]	; 9cac <kfree_pop+0x50>
    9c80:	e5830000 	str	r0, [r3]
    9c84:	e12fff1e 	bx	lr
    9c88:	e52de004 	push	{lr}		; (str lr, [sp, #-4]!)
    9c8c:	e24dd00c 	sub	sp, sp, #12, 0
    9c90:	e58d0000 	str	r0, [sp]
    9c94:	e3a03077 	mov	r3, #119, 0	; 0x77
    9c98:	e59f2010 	ldr	r2, [pc, #16]	; 9cb0 <kfree_pop+0x54>
    9c9c:	e59f1010 	ldr	r1, [pc, #16]	; 9cb4 <kfree_pop+0x58>
    9ca0:	e59f0010 	ldr	r0, [pc, #16]	; 9cb8 <kfree_pop+0x5c>
    9ca4:	ebfffb4f 	bl	89e8 <printk>
    9ca8:	ebfffde7 	bl	944c <clean_reboot>
    9cac:	0000a16c 	andeq	sl, r0, ip, ror #2
    9cb0:	0000a15c 	andeq	sl, r0, ip, asr r1
    9cb4:	00009f6c 	andeq	r9, r0, ip, ror #30
    9cb8:	0000a0d4 	ldrdeq	sl, [r0], -r4

00009cbc <internal_putchar>:
    9cbc:	e92d4010 	push	{r4, lr}
    9cc0:	e1a04000 	mov	r4, r0
    9cc4:	ebfffeea 	bl	9874 <uart_putc>
    9cc8:	e1a00004 	mov	r0, r4
    9ccc:	e8bd8010 	pop	{r4, pc}

00009cd0 <rpi_reset_putc>:
    9cd0:	e59f3008 	ldr	r3, [pc, #8]	; 9ce0 <rpi_reset_putc+0x10>
    9cd4:	e59f2008 	ldr	r2, [pc, #8]	; 9ce4 <rpi_reset_putc+0x14>
    9cd8:	e5832000 	str	r2, [r3]
    9cdc:	e12fff1e 	bx	lr
    9ce0:	0000a178 	andeq	sl, r0, r8, ror r1
    9ce4:	00009cbc 			; <UNDEFINED> instruction: 0x00009cbc

00009ce8 <rpi_set_putc>:
    9ce8:	e59f3004 	ldr	r3, [pc, #4]	; 9cf4 <rpi_set_putc+0xc>
    9cec:	e5830000 	str	r0, [r3]
    9cf0:	e12fff1e 	bx	lr
    9cf4:	0000a178 	andeq	sl, r0, r8, ror r1

00009cf8 <strcat>:
    9cf8:	e1a02000 	mov	r2, r0
    9cfc:	e1a03002 	mov	r3, r2
    9d00:	e4d2c001 	ldrb	ip, [r2], #1
    9d04:	e35c0000 	cmp	ip, #0, 0
    9d08:	1afffffb 	bne	9cfc <strcat+0x4>
    9d0c:	e2433001 	sub	r3, r3, #1, 0
    9d10:	e4d12001 	ldrb	r2, [r1], #1
    9d14:	e3520000 	cmp	r2, #0, 0
    9d18:	e5e32001 	strb	r2, [r3, #1]!
    9d1c:	1afffffb 	bne	9d10 <strcat+0x18>
    9d20:	e12fff1e 	bx	lr

00009d24 <strcmp>:
    9d24:	e5d03000 	ldrb	r3, [r0]
    9d28:	e3530000 	cmp	r3, #0, 0
    9d2c:	05d12000 	ldrbeq	r2, [r1]
    9d30:	1a000003 	bne	9d44 <strcmp+0x20>
    9d34:	ea000006 	b	9d54 <strcmp+0x30>
    9d38:	e5f03001 	ldrb	r3, [r0, #1]!
    9d3c:	e3530000 	cmp	r3, #0, 0
    9d40:	0a000005 	beq	9d5c <strcmp+0x38>
    9d44:	e1a0c001 	mov	ip, r1
    9d48:	e4d12001 	ldrb	r2, [r1], #1
    9d4c:	e1520003 	cmp	r2, r3
    9d50:	0afffff8 	beq	9d38 <strcmp+0x14>
    9d54:	e0430002 	sub	r0, r3, r2
    9d58:	e12fff1e 	bx	lr
    9d5c:	e5dc2001 	ldrb	r2, [ip, #1]
    9d60:	e0430002 	sub	r0, r3, r2
    9d64:	e12fff1e 	bx	lr

00009d68 <strcpy>:
    9d68:	e2402001 	sub	r2, r0, #1, 0
    9d6c:	e4d13001 	ldrb	r3, [r1], #1
    9d70:	e3530000 	cmp	r3, #0, 0
    9d74:	e5e23001 	strb	r3, [r2, #1]!
    9d78:	1afffffb 	bne	9d6c <strcpy+0x4>
    9d7c:	e12fff1e 	bx	lr

00009d80 <strncmp>:
    9d80:	e0802002 	add	r2, r0, r2
    9d84:	ea000003 	b	9d98 <strncmp+0x18>
    9d88:	e4d03001 	ldrb	r3, [r0], #1
    9d8c:	e4d1c001 	ldrb	ip, [r1], #1
    9d90:	e153000c 	cmp	r3, ip
    9d94:	1a000003 	bne	9da8 <strncmp+0x28>
    9d98:	e1500002 	cmp	r0, r2
    9d9c:	1afffff9 	bne	9d88 <strncmp+0x8>
    9da0:	e3a00000 	mov	r0, #0, 0
    9da4:	e12fff1e 	bx	lr
    9da8:	e043000c 	sub	r0, r3, ip
    9dac:	e12fff1e 	bx	lr

00009db0 <reboot_callout>:
    9db0:	e12fff1e 	bx	lr

00009db4 <dev_barrier>:
    9db4:	ea000002 	b	9dc4 <dsb>

00009db8 <dmb>:
    9db8:	e3a00000 	mov	r0, #0, 0
    9dbc:	ee070fba 	mcr	15, 0, r0, cr7, cr10, {5}
    9dc0:	e12fff1e 	bx	lr

00009dc4 <dsb>:
    9dc4:	ee070f9a 	mcr	15, 0, r0, cr7, cr10, {4}
    9dc8:	e12fff1e 	bx	lr

00009dcc <__code_end__>:
    9dcc:	00000000 	andeq	r0, r0, r0

Disassembly of section .rodata:

00009dd0 <__FUNCTION__.4000-0x16c>:
    9dd0:	706f6f6c 	rsbvc	r6, pc, ip, ror #30
    9dd4:	0a642520 	beq	191325c <__bss_end__+0x1908cdc>
    9dd8:	00000000 	andeq	r0, r0, r0
    9ddc:	656e6f64 	strbvs	r6, [lr, #-3940]!	; 0xfffff09c
    9de0:	00000a21 	andeq	r0, r0, r1, lsr #20
    9de4:	696c2f2e 	stmdbvs	ip!, {r1, r2, r3, r5, r8, r9, sl, fp, sp}^
    9de8:	762f6362 	strtvc	r6, [pc], -r2, ror #6
    9dec:	72702d61 	rsbsvc	r2, r0, #6208	; 0x1840
    9df0:	6b746e69 	blvs	1d2579c <__bss_end__+0x1d1b21c>
    9df4:	0000632e 	andeq	r6, r0, lr, lsr #6
    9df8:	494e4150 	stmdbmi	lr, {r4, r6, r8, lr}^
    9dfc:	73253a43 			; <UNDEFINED> instruction: 0x73253a43
    9e00:	3a73253a 	bcc	1cd32f0 <__bss_end__+0x1cc8d70>
    9e04:	253a6425 	ldrcs	r6, [sl, #-1061]!	; 0xfffffbdb
    9e08:	00000a73 	andeq	r0, r0, r3, ror sl
    9e0c:	00000030 	andeq	r0, r0, r0, lsr r0
    9e10:	33323130 	teqcc	r2, #12
    9e14:	37363534 			; <UNDEFINED> instruction: 0x37363534
    9e18:	62613938 	rsbvs	r3, r1, #56, 18	; 0xe0000
    9e1c:	66656463 	strbtvs	r6, [r5], -r3, ror #8
    9e20:	00000000 	andeq	r0, r0, r0
    9e24:	00003130 	andeq	r3, r0, r0, lsr r1
    9e28:	33323130 	teqcc	r2, #12
    9e2c:	37363534 			; <UNDEFINED> instruction: 0x37363534
    9e30:	00003938 	andeq	r3, r0, r8, lsr r9
    9e34:	63747570 	cmnvs	r4, #112, 10	; 0x1c000000
    9e38:	0070665f 	rsbseq	r6, r0, pc, asr r6
    9e3c:	74646977 	strbtvc	r6, [r4], #-2423	; 0xfffff689
    9e40:	203c2068 	eorscs	r2, ip, r8, rrx
    9e44:	00003233 	andeq	r3, r0, r3, lsr r2
    9e48:	00786c6c 	rsbseq	r6, r8, ip, ror #24
    9e4c:	253d3078 	ldrcs	r3, [sp, #-120]!	; 0xffffff88
    9e50:	00000a78 	andeq	r0, r0, r8, ror sl
    9e54:	253d3178 	ldrcs	r3, [sp, #-376]!	; 0xfffffe88
    9e58:	00000a78 	andeq	r0, r0, r8, ror sl
    9e5c:	00646c6c 	rsbeq	r6, r4, ip, ror #24
    9e60:	6e727473 	mrcvs	4, 3, r7, cr2, cr3, {3}
    9e64:	28706d63 	ldmdacs	r0!, {r0, r1, r5, r6, r8, sl, fp, sp, lr}^
    9e68:	202c7974 	eorcs	r7, ip, r4, ror r9
    9e6c:	786c6c22 	stmdavc	ip!, {r1, r5, sl, fp, sp, lr}^
    9e70:	33202c22 			; <UNDEFINED> instruction: 0x33202c22
    9e74:	3d3d2029 	ldccc	0, cr2, [sp, #-164]!	; 0xffffff5c
    9e78:	7c203020 	stcvc	0, cr3, [r0], #-128	; 0xffffff80
    9e7c:	7473207c 	ldrbtvc	r2, [r3], #-124	; 0xffffff84
    9e80:	6d636e72 	stclvs	14, cr6, [r3, #-456]!	; 0xfffffe38
    9e84:	79742870 	ldmdbvc	r4!, {r4, r5, r6, fp, sp}^
    9e88:	6c22202c 	stcvs	0, cr2, [r2], #-176	; 0xffffff50
    9e8c:	2c22646c 	cfstrscs	mvf6, [r2], #-432	; 0xfffffe50
    9e90:	20293320 	eorcs	r3, r9, r0, lsr #6
    9e94:	30203d3d 	eorcc	r3, r0, sp, lsr sp
    9e98:	00000000 	andeq	r0, r0, r0
    9e9c:	494e4150 	stmdbmi	lr, {r4, r6, r8, lr}^
    9ea0:	73253a43 			; <UNDEFINED> instruction: 0x73253a43
    9ea4:	3a73253a 	bcc	1cd3394 <__bss_end__+0x1cc8e14>
    9ea8:	693a6425 	ldmdbvs	sl!, {r0, r2, r5, sl, sp, lr}
    9eac:	736f706d 	cmnvc	pc, #109, 0	; 0x6d
    9eb0:	6c626973 			; <UNDEFINED> instruction: 0x6c626973
    9eb4:	66203a65 	strtvs	r3, [r0], -r5, ror #20
    9eb8:	3c3d746d 	cfldrscc	mvf7, [sp], #-436	; 0xfffffe4c
    9ebc:	0a3e7325 	beq	fa6b58 <__bss_end__+0xf9c5d8>
    9ec0:	0000000a 	andeq	r0, r0, sl
    9ec4:	494e4150 	stmdbmi	lr, {r4, r6, r8, lr}^
    9ec8:	73253a43 			; <UNDEFINED> instruction: 0x73253a43
    9ecc:	3a73253a 	bcc	1cd33bc <__bss_end__+0x1cc8e3c>
    9ed0:	663a6425 	ldrtvs	r6, [sl], -r5, lsr #8
    9ed4:	74616f6c 	strbtvc	r6, [r1], #-3948	; 0xfffff094
    9ed8:	746f6e20 	strbtvc	r6, [pc], #-3616	; 9ee0 <__code_end__+0x114>
    9edc:	616e6520 	cmnvs	lr, r0, lsr #10
    9ee0:	64656c62 	strbtvs	r6, [r5], #-3170	; 0xfffff39e
    9ee4:	0a212121 	beq	852370 <__bss_end__+0x847df0>
    9ee8:	00000000 	andeq	r0, r0, r0
    9eec:	6e697270 	mcrvs	2, 3, r7, cr9, cr0, {3}
    9ef0:	203a6b74 	eorscs	r6, sl, r4, ror fp
    9ef4:	20746f6e 	rsbscs	r6, r4, lr, ror #30
    9ef8:	646e6168 	strbtvs	r6, [lr], #-360	; 0xfffffe98
    9efc:	676e696c 	strbvs	r6, [lr, -ip, ror #18]!
    9f00:	65707320 	ldrbvs	r7, [r0, #-800]!	; 0xfffffce0
    9f04:	69666963 	stmdbvs	r6!, {r0, r1, r5, r6, r8, fp, sp, lr}^
    9f08:	27207265 	strcs	r7, [r0, -r5, ror #4]!
    9f0c:	20276325 	eorcs	r6, r7, r5, lsr #6
    9f10:	63736128 	cmnvs	r3, #10
    9f14:	253d6969 	ldrcs	r6, [sp, #-2409]!	; 0xfffff697
    9f18:	000a2964 	andeq	r2, sl, r4, ror #18
    9f1c:	494e4150 	stmdbmi	lr, {r4, r6, r8, lr}^
    9f20:	73253a43 			; <UNDEFINED> instruction: 0x73253a43
    9f24:	3a73253a 	bcc	1cd3414 <__bss_end__+0x1cc8e94>
    9f28:	703a6425 	eorsvc	r6, sl, r5, lsr #8
    9f2c:	746e6972 	strbtvc	r6, [lr], #-2418	; 0xfffff68e
    9f30:	7265206b 	rsbvc	r2, r5, #107, 0	; 0x6b
    9f34:	0a726f72 	beq	1ca5d04 <__bss_end__+0x1c9b784>
    9f38:	0000000a 	andeq	r0, r0, sl

00009f3c <__FUNCTION__.4000>:
    9f3c:	74696d65 	strbtvc	r6, [r9], #-3429	; 0xfffff29b
    9f40:	00000000 	andeq	r0, r0, r0

00009f44 <__FUNCTION__.3948>:
    9f44:	5f697072 	svcpl	0x00697072
    9f48:	5f746573 	svcpl	0x00746573
    9f4c:	7074756f 	rsbsvc	r7, r4, pc, ror #10
    9f50:	00007475 	andeq	r7, r0, r5, ror r4

00009f54 <__FUNCTION__.4026>:
    9f54:	705f6176 	subsvc	r6, pc, r6, ror r1	; <UNPREDICTABLE>
    9f58:	746e6972 	strbtvc	r6, [lr], #-2418	; 0xfffff68e
    9f5c:	0000006b 	andeq	r0, r0, fp, rrx
    9f60:	454e4f44 	strbmi	r4, [lr, #-3908]	; 0xfffff0bc
    9f64:	0a212121 	beq	8523f0 <__bss_end__+0x847e70>
    9f68:	00000000 	andeq	r0, r0, r0
    9f6c:	6c616d6b 	stclvs	13, cr6, [r1], #-428	; 0xfffffe54
    9f70:	2e636f6c 	cdpcs	15, 6, cr6, cr3, cr12, {3}
    9f74:	00000063 	andeq	r0, r0, r3, rrx
    9f78:	5f78616d 	svcpl	0x0078616d
    9f7c:	7479626e 	ldrbtvc	r6, [r9], #-622	; 0xfffffd92
    9f80:	00007365 	andeq	r7, r0, r5, ror #6
    9f84:	494e4150 	stmdbmi	lr, {r4, r6, r8, lr}^
    9f88:	73253a43 			; <UNDEFINED> instruction: 0x73253a43
    9f8c:	3a73253a 	bcc	1cd347c <__bss_end__+0x1cc8efc>
    9f90:	733a6425 	teqvc	sl, #620756992	; 0x25000000
    9f94:	69747465 	ldmdbvs	r4!, {r0, r2, r5, r6, sl, ip, sp, lr}^
    9f98:	6820676e 	stmdavs	r0!, {r1, r2, r3, r5, r6, r8, r9, sl, sp, lr}
    9f9c:	20706165 	rsbscs	r6, r0, r5, ror #2
    9fa0:	25206f74 	strcs	r6, [r0, #-3956]!	; 0xfffff08c
    9fa4:	77203a70 			; <UNDEFINED> instruction: 0x77203a70
    9fa8:	206c6c69 	rsbcs	r6, ip, r9, ror #24
    9fac:	20746968 	rsbscs	r6, r4, r8, ror #18
    9fb0:	20656874 	rsbcs	r6, r5, r4, ror r8
    9fb4:	20646c6f 	rsbcs	r6, r4, pc, ror #24
    9fb8:	70616568 	rsbvc	r6, r1, r8, ror #10
    9fbc:	20746120 	rsbscs	r6, r4, r0, lsr #2
    9fc0:	0a0a7025 	beq	2a605c <__bss_end__+0x29badc>
    9fc4:	00000000 	andeq	r0, r0, r0
    9fc8:	494e4150 	stmdbmi	lr, {r4, r6, r8, lr}^
    9fcc:	73253a43 			; <UNDEFINED> instruction: 0x73253a43
    9fd0:	3a73253a 	bcc	1cd34c0 <__bss_end__+0x1cc8f40>
    9fd4:	613a6425 	teqvs	sl, r5, lsr #8
    9fd8:	6165726c 	cmnvs	r5, ip, ror #4
    9fdc:	63207964 			; <UNDEFINED> instruction: 0x63207964
    9fe0:	656c6c61 	strbvs	r6, [ip, #-3169]!	; 0xfffff39f
    9fe4:	6d6b2064 	stclvs	0, cr2, [fp, #-400]!	; 0xfffffe70
    9fe8:	6f6c6c61 	svcvs	0x006c6c61
    9fec:	6e695f63 	cdpvs	15, 6, cr5, cr9, cr3, {3}
    9ff0:	0a0a7469 	beq	2a719c <__bss_end__+0x29cc1c>
    9ff4:	00000000 	andeq	r0, r0, r0
    9ff8:	494e4150 	stmdbmi	lr, {r4, r6, r8, lr}^
    9ffc:	73253a43 			; <UNDEFINED> instruction: 0x73253a43
    a000:	3a73253a 	bcc	1cd34f0 <__bss_end__+0x1cc8f70>
    a004:	253a6425 	ldrcs	r6, [sl, #-1061]!	; 0xfffffbdb
    a008:	626e2064 	rsbvs	r2, lr, #100, 0	; 0x64
    a00c:	73657479 	cmnvc	r5, #2030043136	; 0x79000000
    a010:	63786520 	cmnvs	r8, #32, 10	; 0x8000000
    a014:	65646565 	strbvs	r6, [r4, #-1381]!	; 0xfffffa9b
    a018:	69732064 	ldmdbvs	r3!, {r2, r5, r6, sp}^
    a01c:	6f20657a 	svcvs	0x0020657a
    a020:	65682066 	strbvs	r2, [r8, #-102]!	; 0xffffff9a
    a024:	62207061 	eorvs	r7, r0, #97, 0	; 0x61
    a028:	75252079 	strvc	r2, [r5, #-121]!	; 0xffffff87
    a02c:	79626e20 	stmdbvc	r2!, {r5, r9, sl, fp, sp, lr}^
    a030:	0a736574 	beq	1ce3608 <__bss_end__+0x1cd9088>
    a034:	0000000a 	andeq	r0, r0, sl
    a038:	4f525245 	svcmi	0x00525245
    a03c:	73253a52 			; <UNDEFINED> instruction: 0x73253a52
    a040:	3a73253a 	bcc	1cd3530 <__bss_end__+0x1cc8fb0>
    a044:	203a6425 	eorscs	r6, sl, r5, lsr #8
    a048:	534c4146 	movtpl	r4, #49478	; 0xc146
    a04c:	253c2845 	ldrcs	r2, [ip, #-2117]!	; 0xfffff7bb
    a050:	3a293e73 	bcc	a59a24 <__bss_end__+0xa4f4a4>
    a054:	73736120 	cmnvc	r3, #8
    a058:	6e696d75 	mcrvs	13, 3, r6, cr9, cr5, {3}
    a05c:	6f702067 	svcvs	0x00702067
    a060:	20726577 	rsbscs	r6, r2, r7, ror r5
    a064:	7420666f 	strtvc	r6, [r0], #-1647	; 0xfffff991
    a068:	000a6f77 	andeq	r6, sl, r7, ror pc
    a06c:	705f7369 	subsvc	r7, pc, r9, ror #6
    a070:	2832776f 	ldmdacs	r2!, {r0, r1, r2, r3, r5, r6, r8, r9, sl, ip, sp, lr}
    a074:	67696c61 	strbvs	r6, [r9, -r1, ror #24]!
    a078:	6e656d6e 	cdpvs	13, 6, cr6, cr5, cr14, {3}
    a07c:	00002974 	andeq	r2, r0, r4, ror r9
    a080:	705f7369 	subsvc	r7, pc, r9, ror #6
    a084:	2832776f 	ldmdacs	r2!, {r0, r1, r2, r3, r5, r6, r8, r9, sl, ip, sp, lr}
    a088:	0000296e 	andeq	r2, r0, lr, ror #18
    a08c:	4f525245 	svcmi	0x00525245
    a090:	73253a52 			; <UNDEFINED> instruction: 0x73253a52
    a094:	3a73253a 	bcc	1cd3584 <__bss_end__+0x1cc9004>
    a098:	203a6425 	eorscs	r6, sl, r5, lsr #8
    a09c:	534c4146 	movtpl	r4, #49478	; 0xc146
    a0a0:	253c2845 	ldrcs	r2, [ip, #-2117]!	; 0xfffff7bb
    a0a4:	3a293e73 	bcc	a59a78 <__bss_end__+0xa4f4f8>
    a0a8:	706d6920 	rsbvc	r6, sp, r0, lsr #18
    a0ac:	6973736f 	ldmdbvs	r3!, {r0, r1, r2, r3, r5, r6, r8, r9, ip, sp, lr}^
    a0b0:	0a656c62 	beq	1965240 <__bss_end__+0x195acc0>
    a0b4:	00000000 	andeq	r0, r0, r0
    a0b8:	615f7369 	cmpvs	pc, r9, ror #6
    a0bc:	6e67696c 	vnmulvs.f16	s13, s14, s25	; <UNPREDICTABLE>
    a0c0:	68286465 	stmdavs	r8!, {r0, r2, r5, r6, sl, sp, lr}
    a0c4:	6c61202c 	stclvs	0, cr2, [r1], #-176	; 0xffffff50
    a0c8:	6d6e6769 	stclvs	7, cr6, [lr, #-420]!	; 0xfffffe5c
    a0cc:	29746e65 	ldmdbcs	r4!, {r0, r2, r5, r6, r9, sl, fp, sp, lr}^
    a0d0:	00000000 	andeq	r0, r0, r0
    a0d4:	494e4150 	stmdbmi	lr, {r4, r6, r8, lr}^
    a0d8:	73253a43 			; <UNDEFINED> instruction: 0x73253a43
    a0dc:	3a73253a 	bcc	1cd35cc <__bss_end__+0x1cc904c>
    a0e0:	703a6425 	eorsvc	r6, sl, r5, lsr #8
    a0e4:	746e696f 	strbtvc	r6, [lr], #-2415	; 0xfffff691
    a0e8:	25207265 	strcs	r7, [r0, #-613]!	; 0xfffffd9b
    a0ec:	61772070 	cmnvs	r7, r0, ror r0
    a0f0:	656e2073 	strbvs	r2, [lr, #-115]!	; 0xffffff8d
    a0f4:	20726576 	rsbscs	r6, r2, r6, ror r5
    a0f8:	6f6c6c61 	svcvs	0x006c6c61
    a0fc:	65746163 	ldrbvs	r6, [r4, #-355]!	; 0xfffffe9d
    a100:	000a0a64 	andeq	r0, sl, r4, ror #20

0000a104 <__FUNCTION__.7>:
    a104:	6c616d6b 	stclvs	13, cr6, [r1], #-428	; 0xfffffe54
    a108:	5f636f6c 	svcpl	0x00636f6c
    a10c:	74696e69 	strbtvc	r6, [r9], #-3689	; 0xfffff197
    a110:	7465735f 	strbtvc	r7, [r5], #-863	; 0xfffffca1
    a114:	6174735f 	cmnvs	r4, pc, asr r3
    a118:	00007472 	andeq	r7, r0, r2, ror r4

0000a11c <__FUNCTION__.5>:
    a11c:	6c616d6b 	stclvs	13, cr6, [r1], #-428	; 0xfffffe54
    a120:	5f636f6c 	svcpl	0x00636f6c
    a124:	74696e69 	strbtvc	r6, [r9], #-3689	; 0xfffff197
    a128:	00000000 	andeq	r0, r0, r0

0000a12c <__FUNCTION__.4>:
    a12c:	6c616d6b 	stclvs	13, cr6, [r1], #-428	; 0xfffffe54
    a130:	5f636f6c 	svcpl	0x00636f6c
    a134:	7a746f6e 	bvc	1d25ef4 <__bss_end__+0x1d1b974>
    a138:	006f7265 	rsbeq	r7, pc, r5, ror #4

0000a13c <__FUNCTION__.2>:
    a13c:	6c616d6b 	stclvs	13, cr6, [r1], #-428	; 0xfffffe54
    a140:	00636f6c 	rsbeq	r6, r3, ip, ror #30

0000a144 <__FUNCTION__.1>:
    a144:	6c616d6b 	stclvs	13, cr6, [r1], #-428	; 0xfffffe54
    a148:	5f636f6c 	svcpl	0x00636f6c
    a14c:	67696c61 	strbvs	r6, [r9, -r1, ror #24]!
    a150:	0064656e 	rsbeq	r6, r4, lr, ror #10

0000a154 <__FUNCTION__.3>:
    a154:	6e756f72 	mrcvs	15, 3, r6, cr5, cr2, {3}
    a158:	00707564 	rsbseq	r7, r0, r4, ror #10

0000a15c <__FUNCTION__.0>:
    a15c:	6572666b 	ldrbvs	r6, [r2, #-1643]!	; 0xfffff995
    a160:	6f705f65 	svcvs	0x00705f65
    a164:	Address 0x000000000000a164 is out of bounds.


Disassembly of section .data:

0000a168 <putk>:
    a168:	00008a40 	andeq	r8, r0, r0, asr #20

0000a16c <heap>:
    a16c:	0000a580 	andeq	sl, r0, r0, lsl #11

0000a170 <heap_start>:
    a170:	0000a580 	andeq	sl, r0, r0, lsl #11

0000a174 <heap_end>:
    a174:	0020a580 	eoreq	sl, r0, r0, lsl #11

0000a178 <rpi_putchar>:
    a178:	00009cbc 			; <UNDEFINED> instruction: 0x00009cbc

Disassembly of section .bss:

0000a17c <__bss_start__>:
	...

0000a57c <init_p.6>:
    a57c:	00000000 	andeq	r0, r0, r0

Disassembly of section .ARM.attributes:

00000000 <.ARM.attributes>:
   0:	00002a41 	andeq	r2, r0, r1, asr #20
   4:	61656100 	cmnvs	r5, r0, lsl #2
   8:	01006962 	tsteq	r0, r2, ror #18
   c:	00000020 	andeq	r0, r0, r0, lsr #32
  10:	4b5a3605 	blmi	168d82c <__bss_end__+0x16832ac>
  14:	08070600 	stmdaeq	r7, {r9, sl}
  18:	12010901 	andne	r0, r1, #16384	; 0x4000
  1c:	15011404 	strne	r1, [r1, #-1028]	; 0xfffffbfc
  20:	18031701 	stmdane	r3, {r0, r8, r9, sl, ip}
  24:	22011a01 	andcs	r1, r1, #4096	; 0x1000
  28:	Address 0x0000000000000028 is out of bounds.


Disassembly of section .comment:

00000000 <.comment>:
   0:	3a434347 	bcc	10d0d24 <__bss_end__+0x10c67a4>
   4:	4e472820 	cdpmi	8, 4, cr2, cr7, cr0, {1}
   8:	6f542055 	svcvs	0x00542055
   c:	20736c6f 	rsbscs	r6, r3, pc, ror #24
  10:	20726f66 	rsbscs	r6, r2, r6, ror #30
  14:	206d7241 	rsbcs	r7, sp, r1, asr #4
  18:	65626d45 	strbvs	r6, [r2, #-3397]!	; 0xfffff2bb
  1c:	64656464 	strbtvs	r6, [r5], #-1124	; 0xfffffb9c
  20:	6f725020 	svcvs	0x00725020
  24:	73736563 	cmnvc	r3, #415236096	; 0x18c00000
  28:	2073726f 	rsbscs	r7, r3, pc, ror #4
  2c:	30322d39 	eorscc	r2, r2, r9, lsr sp
  30:	712d3931 			; <UNDEFINED> instruction: 0x712d3931
  34:	616d2d34 	cmnvs	sp, r4, lsr sp
  38:	29726f6a 	ldmdbcs	r2!, {r1, r3, r5, r6, r8, r9, sl, fp, sp, lr}^
  3c:	322e3920 	eorcc	r3, lr, #32, 18	; 0x80000
  40:	3220312e 	eorcc	r3, r0, #-2147483637	; 0x8000000b
  44:	31393130 	teqcc	r9, r0, lsr r1
  48:	20353230 	eorscs	r3, r5, r0, lsr r2
  4c:	6c657228 	sfmvs	f7, 2, [r5], #-160	; 0xffffff60
  50:	65736165 	ldrbvs	r6, [r3, #-357]!	; 0xfffffe9b
  54:	415b2029 	cmpmi	fp, r9, lsr #32
  58:	612f4d52 			; <UNDEFINED> instruction: 0x612f4d52
  5c:	392d6d72 	pushcc	{r1, r4, r5, r6, r8, sl, fp, sp, lr}
  60:	6172622d 	cmnvs	r2, sp, lsr #4
  64:	2068636e 	rsbcs	r6, r8, lr, ror #6
  68:	69766572 	ldmdbvs	r6!, {r1, r4, r5, r6, r8, sl, sp, lr}^
  6c:	6e6f6973 			; <UNDEFINED> instruction: 0x6e6f6973
  70:	37373220 	ldrcc	r3, [r7, -r0, lsr #4]!
  74:	5d393935 			; <UNDEFINED> instruction: 0x5d393935
  78:	43434700 	movtmi	r4, #14080	; 0x3700
  7c:	4728203a 			; <UNDEFINED> instruction: 0x4728203a
  80:	5420554e 	strtpl	r5, [r0], #-1358	; 0xfffffab2
  84:	636c6f6f 	cmnvs	ip, #444	; 0x1bc
  88:	6e696168 	powvsez	f6, f1, #0.0
  8c:	726f6620 	rsbvc	r6, pc, #32, 12	; 0x2000000
  90:	65687420 	strbvs	r7, [r8, #-1056]!	; 0xfffffbe0
  94:	6d724120 	ldfvse	f4, [r2, #-128]!	; 0xffffff80
  98:	63724120 	cmnvs	r2, #8
  9c:	65746968 	ldrbvs	r6, [r4, #-2408]!	; 0xfffff698
  a0:	72757463 	rsbsvc	r7, r5, #1660944384	; 0x63000000
  a4:	31312065 	teqcc	r1, r5, rrx
  a8:	322d322e 	eorcc	r3, sp, #-536870910	; 0xe0000002
  ac:	2e323230 	mrccs	2, 1, r3, cr2, cr0, {1}
  b0:	28203230 	stmdacs	r0!, {r4, r5, r9, ip, sp}
  b4:	2d6d7261 	sfmcs	f7, 2, [sp, #-388]!	; 0xfffffe7c
  b8:	312e3131 			; <UNDEFINED> instruction: 0x312e3131
  bc:	20292934 	eorcs	r2, r9, r4, lsr r9
  c0:	322e3131 	eorcc	r3, lr, #1073741836	; 0x4000000c
  c4:	3220312e 	eorcc	r3, r0, #-2147483637	; 0x8000000b
  c8:	30323230 	eorscc	r3, r2, r0, lsr r2
  cc:	00313131 	eorseq	r3, r1, r1, lsr r1
  d0:	3a434347 	bcc	10d0df4 <__bss_end__+0x10c6874>
  d4:	4e472820 	cdpmi	8, 4, cr2, cr7, cr0, {1}
  d8:	72412055 	subvc	r2, r1, #85, 0	; 0x55
  dc:	6d45206d 	stclvs	0, cr2, [r5, #-436]	; 0xfffffe4c
  e0:	64646562 	strbtvs	r6, [r4], #-1378	; 0xfffffa9e
  e4:	54206465 	strtpl	r6, [r0], #-1125	; 0xfffffb9b
  e8:	636c6f6f 	cmnvs	ip, #444	; 0x1bc
  ec:	6e696168 	powvsez	f6, f1, #0.0
  f0:	2e303120 	rsfcssp	f3, f0, f0
  f4:	30322d33 	eorscc	r2, r2, r3, lsr sp
  f8:	312e3132 			; <UNDEFINED> instruction: 0x312e3132
  fc:	31202930 			; <UNDEFINED> instruction: 0x31202930
 100:	2e332e30 	mrccs	14, 1, r2, cr3, cr0, {1}
 104:	30322031 	eorscc	r2, r2, r1, lsr r0
 108:	38303132 	ldmdacc	r0!, {r1, r4, r5, r8, ip, sp}
 10c:	28203432 	stmdacs	r0!, {r1, r4, r5, sl, ip, sp}
 110:	656c6572 	strbvs	r6, [ip, #-1394]!	; 0xfffffa8e
 114:	29657361 	stmdbcs	r5!, {r0, r5, r6, r8, r9, ip, sp, lr}^
	...

Disassembly of section .debug_info:

00000000 <.debug_info>:
       0:	00000439 	andeq	r0, r0, r9, lsr r4
       4:	00000004 	andeq	r0, r0, r4
       8:	01040000 	mrseq	r0, (UNDEF: 4)
       c:	000000e6 	andeq	r0, r0, r6, ror #1
      10:	00019b0c 	andeq	r9, r1, ip, lsl #22
      14:	00005d00 	andeq	r5, r0, r0, lsl #26
      18:	00804000 	addeq	r4, r0, r0
      1c:	00015000 	andeq	r5, r1, r0
      20:	00000000 	andeq	r0, r0, r0
      24:	05040200 	streq	r0, [r4, #-512]	; 0xfffffe00
      28:	00746e69 	rsbseq	r6, r4, r9, ror #28
      2c:	b0070403 	andlt	r0, r7, r3, lsl #8
      30:	04000001 	streq	r0, [r0], #-1
      34:	0000002c 	andeq	r0, r0, ip, lsr #32
      38:	00002c05 	andeq	r2, r0, r5, lsl #24
      3c:	06010300 	streq	r0, [r1], -r0, lsl #6
      40:	0000008f 	andeq	r0, r0, pc, lsl #1
      44:	e7050203 	str	r0, [r5, -r3, lsl #4]
      48:	03000001 	movweq	r0, #1
      4c:	01d20504 	bicseq	r0, r2, r4, lsl #10
      50:	08030000 	stmdaeq	r3, {}	; <UNPREDICTABLE>
      54:	0001cd05 	andeq	ip, r1, r5, lsl #26
      58:	08010300 	stmdaeq	r1, {r8, r9}
      5c:	0000008d 	andeq	r0, r0, sp, lsl #1
      60:	a4070203 	strge	r0, [r7], #-515	; 0xfffffdfd
      64:	03000000 	movweq	r0, #0
      68:	01ab0704 			; <UNDEFINED> instruction: 0x01ab0704
      6c:	08030000 	stmdaeq	r3, {}	; <UNPREDICTABLE>
      70:	0001a607 	andeq	sl, r1, r7, lsl #12
      74:	00250600 	eoreq	r0, r5, r0, lsl #12
      78:	00840000 	addeq	r0, r4, r0
      7c:	25070000 	strcs	r0, [r7, #-0]
      80:	00000000 	andeq	r0, r0, r0
      84:	0001db08 	andeq	sp, r1, r8, lsl #22
      88:	0e1c0200 	cdpeq	2, 1, cr0, cr12, cr0, {0}
      8c:	00000090 	muleq	r0, r0, r0
      90:	00750409 	rsbseq	r0, r5, r9, lsl #8
      94:	25060000 	strcs	r0, [r6, #-0]
      98:	a5000000 	strge	r0, [r0, #-0]
      9c:	07000000 	streq	r0, [r0, -r0]
      a0:	000000a5 	andeq	r0, r0, r5, lsr #1
      a4:	b2040900 	andlt	r0, r4, #0, 18
      a8:	03000000 	movweq	r0, #0
      ac:	00960801 	addseq	r0, r6, r1, lsl #16
      b0:	ab050000 	blge	1400b8 <__bss_end__+0x135b38>
      b4:	08000000 	stmdaeq	r0, {}	; <UNPREDICTABLE>
      b8:	000005a5 	andeq	r0, r0, r5, lsr #11
      bc:	c30e2102 	movwgt	r2, #57602	; 0xe102
      c0:	09000000 	stmdbeq	r0, {}	; <UNPREDICTABLE>
      c4:	00009604 	andeq	r9, r0, r4, lsl #12
      c8:	00150a00 	andseq	r0, r5, r0, lsl #20
      cc:	73030000 	movwvc	r0, #12288	; 0x3000
      d0:	0000d91b 	andeq	sp, r0, fp, lsl r9
      d4:	20001c00 	andcs	r1, r0, r0, lsl #24
      d8:	33040920 	movwcc	r0, #18720	; 0x4920
      dc:	0a000000 	beq	e4 <__code_start__-0x7f1c>
      e0:	0000000b 	andeq	r0, r0, fp
      e4:	d91b7403 	ldmdble	fp, {r0, r1, sl, ip, sp, lr}
      e8:	28000000 	stmdacs	r0, {}	; <UNPREDICTABLE>
      ec:	0a202000 	beq	8080f4 <__bss_end__+0x7fdb74>
      f0:	000001bd 			; <UNDEFINED> instruction: 0x000001bd
      f4:	d91b7503 	ldmdble	fp, {r0, r1, r8, sl, ip, sp, lr}
      f8:	34000000 	strcc	r0, [r0], #-0
      fc:	0b202000 	bleq	808104 <__bss_end__+0x7fdb84>
     100:	00000027 	andeq	r0, r0, r7, lsr #32
     104:	38179603 	ldmdacc	r7, {r0, r1, r9, sl, ip, pc}
     108:	10000000 	andne	r0, r0, r0
     10c:	0001c70c 	andeq	ip, r1, ip, lsl #14
     110:	1c030400 	cfstrsne	mvf0, [r3], {-0}
     114:	00000118 	andeq	r0, r0, r8, lsl r1
     118:	011e0409 	tsteq	lr, r9, lsl #8
     11c:	000d0000 	andeq	r0, sp, r0
     120:	0e000000 	cdpeq	0, 0, cr0, cr0, cr0, {0}
     124:	00590107 	subseq	r0, r9, r7, lsl #2
     128:	0a010000 	beq	40130 <__bss_end__+0x35bb0>
     12c:	00013806 	andeq	r3, r1, r6, lsl #16
     130:	001f0f00 	andseq	r0, pc, r0, lsl #30
     134:	00150000 	andseq	r0, r5, r0
     138:	00004110 	andeq	r4, r0, r0, lsl r1
     13c:	06140100 	ldreq	r0, [r4], -r0, lsl #2
     140:	000080b0 	strheq	r8, [r0], -r0
     144:	000000e0 	andeq	r0, r0, r0, ror #1
     148:	02f49c01 	rscseq	r9, r4, #256	; 0x100
     14c:	490b0000 	stmdbmi	fp, {}	; <UNPREDICTABLE>
     150:	01000000 	mrseq	r0, (UNDEF: 0)
     154:	002c0e1b 	eoreq	r0, ip, fp, lsl lr
     158:	11100000 	tstne	r0, r0
     15c:	1c010068 	stcne	0, cr0, [r1], {104}	; 0x68
     160:	00010c0b 	andeq	r0, r1, fp, lsl #24
     164:	00000400 	andeq	r0, r0, r0, lsl #8
     168:	00000000 	andeq	r0, r0, r0
     16c:	00001200 	andeq	r1, r0, r0, lsl #4
     170:	02ac0000 	adceq	r0, ip, #0, 0
     174:	6a110000 	bvs	44017c <__bss_end__+0x435bfc>
     178:	0d1f0100 	ldfeqs	f0, [pc, #-0]	; 180 <__code_start__-0x7e80>
     17c:	00000025 	andeq	r0, r0, r5, lsr #32
     180:	0000002a 	andeq	r0, r0, sl, lsr #32
     184:	00000022 	andeq	r0, r0, r2, lsr #32
     188:	00002012 	andeq	r2, r0, r2, lsl r0
     18c:	00027b00 	andeq	r7, r2, r0, lsl #22
     190:	00691100 	rsbeq	r1, r9, r0, lsl #2
     194:	25112101 	ldrcs	r2, [r1, #-257]	; 0xfffffeff
     198:	69000000 	stmdbvs	r0, {}	; <UNPREDICTABLE>
     19c:	61000000 	mrsvs	r0, (UNDEF: 0)
     1a0:	13000000 	movwne	r0, #0
     1a4:	000002f4 	strdeq	r0, [r0], -r4
     1a8:	000080f8 	strdeq	r8, [r0], -r8	; <UNPREDICTABLE>
     1ac:	00004001 	andeq	r4, r0, r1
     1b0:	0d220100 	stfeqs	f0, [r2, #-0]
     1b4:	0000026a 	andeq	r0, r0, sl, ror #4
     1b8:	00030b14 	andeq	r0, r3, r4, lsl fp
     1bc:	0000a200 	andeq	sl, r0, r0, lsl #4
     1c0:	0000a000 	andeq	sl, r0, r0
     1c4:	03011400 	movweq	r1, #5120	; 0x1400
     1c8:	00b70000 	adcseq	r0, r7, r0
     1cc:	00b50000 	adcseq	r0, r5, r0
     1d0:	10150000 	andsne	r0, r5, r0
     1d4:	dc000081 	stcle	0, cr0, [r0], {129}	; 0x81
     1d8:	ff000003 			; <UNDEFINED> instruction: 0xff000003
     1dc:	16000001 	strne	r0, [r0], -r1
     1e0:	75025001 	strvc	r5, [r2, #-1]
     1e4:	51011600 	tstpl	r1, r0, lsl #12
     1e8:	167e7402 	ldrbtne	r7, [lr], -r2, lsl #8
     1ec:	78025201 	stmdavc	r2, {r0, r9, ip, lr}
     1f0:	53011600 	movwpl	r1, #5632	; 0x1600
     1f4:	16007602 	strne	r7, [r0], -r2, lsl #12
     1f8:	02007d02 	andeq	r7, r0, #128	; 0x80
     1fc:	15000076 	strne	r0, [r0, #-118]	; 0xffffff8a
     200:	00008128 	andeq	r8, r0, r8, lsr #2
     204:	000003dc 	ldrdeq	r0, [r0], -ip
     208:	0000022c 	andeq	r0, r0, ip, lsr #4
     20c:	02500116 	subseq	r0, r0, #-2147483643	; 0x80000005
     210:	01160075 	tsteq	r6, r5, ror r0
     214:	7f740251 	svcvc	0x00740251
     218:	02520116 	subseq	r0, r2, #-2147483643	; 0x80000005
     21c:	01160076 	tsteq	r6, r6, ror r0
     220:	00780253 	rsbseq	r0, r8, r3, asr r2
     224:	007d0216 	rsbseq	r0, sp, r6, lsl r2
     228:	00007602 	andeq	r7, r0, r2, lsl #12
     22c:	00814015 	addeq	r4, r1, r5, lsl r0
     230:	0003dc00 	andeq	sp, r3, r0, lsl #24
     234:	00025900 	andeq	r5, r2, r0, lsl #18
     238:	50011600 	andpl	r1, r1, r0, lsl #12
     23c:	16007502 	strne	r7, [r0], -r2, lsl #10
     240:	74025101 	strvc	r5, [r2], #-257	; 0xfffffeff
     244:	52011600 	andpl	r1, r1, #0, 12
     248:	16007602 	strne	r7, [r0], -r2, lsl #12
     24c:	76025301 	strvc	r5, [r2], -r1, lsl #6
     250:	7d021600 	stcvc	6, cr1, [r2, #-0]
     254:	00780200 	rsbseq	r0, r8, r0, lsl #4
     258:	81481700 	cmphi	r8, r0, lsl #14
     25c:	03e80000 	mvneq	r0, #0, 0
     260:	01160000 	tsteq	r6, r0
     264:	00750250 	rsbseq	r0, r5, r0, asr r2
     268:	54170000 	ldrpl	r0, [r7], #-0
     26c:	f4000081 	vst4.32	{d0-d3}, [r0], r1
     270:	16000003 	strne	r0, [r0], -r3
     274:	77025001 	strvc	r5, [r2, -r1]
     278:	15000000 	strne	r0, [r0, #-0]
     27c:	000080f4 	strdeq	r8, [r0], -r4
     280:	00000400 	andeq	r0, r0, r0, lsl #8
     284:	00000295 	muleq	r0, r5, r2
     288:	02500116 	subseq	r0, r0, #-2147483643	; 0x80000005
     28c:	0116007a 	tsteq	r6, sl, ror r0
     290:	00790251 	rsbseq	r0, r9, r1, asr r2
     294:	816c1700 	cmnhi	ip, r0, lsl #14
     298:	040c0000 	streq	r0, [ip], #-0
     29c:	01160000 	tsteq	r6, r0
     2a0:	00750250 	rsbseq	r0, r5, r0, asr r2
     2a4:	02510116 	subseq	r0, r1, #-2147483643	; 0x80000005
     2a8:	00000074 	andeq	r0, r0, r4, ror r0
     2ac:	0080bc18 	addeq	fp, r0, r8, lsl ip
     2b0:	00041800 	andeq	r1, r4, r0, lsl #16
     2b4:	80c41500 	sbchi	r1, r4, r0, lsl #10
     2b8:	04240000 	strteq	r0, [r4], #-0
     2bc:	02c80000 	sbceq	r0, r8, #0, 0
     2c0:	01160000 	tsteq	r6, r0
     2c4:	00450150 	subeq	r0, r5, r0, asr r1
     2c8:	0080d015 	addeq	sp, r0, r5, lsl r0
     2cc:	00043000 	andeq	r3, r4, r0
     2d0:	0002e000 	andeq	lr, r2, r0
     2d4:	50011600 	andpl	r1, r1, r0, lsl #12
     2d8:	01164501 	tsteq	r6, r1, lsl #10
     2dc:	00400151 	subeq	r0, r0, r1, asr r1
     2e0:	00818819 	addeq	r8, r1, r9, lsl r8
     2e4:	00040000 	andeq	r0, r4, r0
     2e8:	50011600 	andpl	r1, r1, r0, lsl #12
     2ec:	9ddc0305 	ldclls	3, cr0, [ip, #20]
     2f0:	00000000 	andeq	r0, r0, r0
     2f4:	0001fe1a 	andeq	pc, r1, sl, lsl lr	; <UNPREDICTABLE>
     2f8:	060d0100 	streq	r0, [sp], -r0, lsl #2
     2fc:	00031601 	andeq	r1, r3, r1, lsl #12
     300:	00681b00 	rsbeq	r1, r8, r0, lsl #22
     304:	0c190d01 	ldceq	13, cr0, [r9], {1}
     308:	1b000001 	blne	314 <__code_start__-0x7cec>
     30c:	0d010069 	stceq	0, cr0, [r1, #-420]	; 0xfffffe5c
     310:	00002520 	andeq	r2, r0, r0, lsr #10
     314:	f41c0000 			; <UNDEFINED> instruction: 0xf41c0000
     318:	40000002 	andmi	r0, r0, r2
     31c:	6c000080 	stcvs	0, cr0, [r0], {128}	; 0x80
     320:	01000000 	mrseq	r0, (UNDEF: 0)
     324:	0003dc9c 	muleq	r3, ip, ip
     328:	03011400 	movweq	r1, #5120	; 0x1400
     32c:	00d20000 	sbcseq	r0, r2, r0
     330:	00ca0000 	sbceq	r0, sl, r0
     334:	0b140000 	bleq	50033c <__bss_end__+0x4f5dbc>
     338:	0f000003 	svceq	0x00000003
     33c:	09000001 	stmdbeq	r0, {r0}
     340:	15000001 	strne	r0, [r0, #-1]
     344:	00008068 	andeq	r8, r0, r8, rrx
     348:	000003dc 	ldrdeq	r0, [r0], -ip
     34c:	00000370 	andeq	r0, r0, r0, ror r3
     350:	02500116 	subseq	r0, r0, #-2147483643	; 0x80000005
     354:	01160074 	tsteq	r6, r4, ror r0
     358:	7e760251 	mrcvc	2, 3, r0, cr6, cr1, {2}
     35c:	02520116 	subseq	r0, r2, #-2147483643	; 0x80000005
     360:	0116ff09 	tsteq	r6, r9, lsl #30	; <UNPREDICTABLE>
     364:	00750253 	rsbseq	r0, r5, r3, asr r2
     368:	007d0216 	rsbseq	r0, sp, r6, lsl r2
     36c:	00007502 	andeq	r7, r0, r2, lsl #10
     370:	00808015 	addeq	r8, r0, r5, lsl r0
     374:	0003dc00 	andeq	sp, r3, r0, lsl #24
     378:	00039d00 	andeq	r9, r3, r0, lsl #26
     37c:	50011600 	andpl	r1, r1, r0, lsl #12
     380:	16007402 	strne	r7, [r0], -r2, lsl #8
     384:	76025101 	strvc	r5, [r2], -r1, lsl #2
     388:	5201167f 	andpl	r1, r1, #133169152	; 0x7f00000
     38c:	16007502 	strne	r7, [r0], -r2, lsl #10
     390:	09025301 	stmdbeq	r2, {r0, r8, r9, ip, lr}
     394:	7d0216ff 	stcvc	6, cr1, [r2, #-1020]	; 0xfffffc04
     398:	00750200 	rsbseq	r0, r5, r0, lsl #4
     39c:	809c1500 	addshi	r1, ip, r0, lsl #10
     3a0:	03dc0000 	bicseq	r0, ip, #0, 0
     3a4:	03ca0000 	biceq	r0, sl, #0, 0
     3a8:	01160000 	tsteq	r6, r0
     3ac:	00740250 	rsbseq	r0, r4, r0, asr r2
     3b0:	02510116 	subseq	r0, r1, #-2147483643	; 0x80000005
     3b4:	01160076 	tsteq	r6, r6, ror r0
     3b8:	00750252 	rsbseq	r0, r5, r2, asr r2
     3bc:	02530116 	subseq	r0, r3, #-2147483643	; 0x80000005
     3c0:	02160075 	andseq	r0, r6, #117, 0	; 0x75
     3c4:	0902007d 	stmdbeq	r2, {r0, r2, r3, r4, r5, r6}
     3c8:	ac1900ff 	ldcge	0, cr0, [r9], {255}	; 0xff
     3cc:	e8000080 	stmda	r0, {r7}
     3d0:	16000003 	strne	r0, [r0], -r3
     3d4:	f3035001 	vhadd.u8	d5, d3, d1
     3d8:	00005001 	andeq	r5, r0, r1
     3dc:	0000341d 	andeq	r3, r0, sp, lsl r4
     3e0:	00003400 	andeq	r3, r0, r0, lsl #8
     3e4:	060c0400 	streq	r0, [ip], -r0, lsl #8
     3e8:	0000b71d 	andeq	fp, r0, sp, lsl r7
     3ec:	0000b700 	andeq	fp, r0, r0, lsl #14
     3f0:	060d0400 	streq	r0, [sp], -r0, lsl #8
     3f4:	00009b1d 	andeq	r9, r0, sp, lsl fp
     3f8:	00009b00 	andeq	r9, r0, r0, lsl #22
     3fc:	06580200 	ldrbeq	r0, [r8], -r0, lsl #4
     400:	0005671d 	andeq	r6, r5, sp, lsl r7
     404:	00056700 	andeq	r6, r5, r0, lsl #14
     408:	06280200 	strteq	r0, [r8], -r0, lsl #4
     40c:	0000d41d 	andeq	sp, r0, sp, lsl r4
     410:	0000d400 	andeq	sp, r0, r0, lsl #8
     414:	06110400 	ldreq	r0, [r1], -r0, lsl #8
     418:	0001f11d 	andeq	pc, r1, sp, lsl r1	; <UNPREDICTABLE>
     41c:	0001f100 	andeq	pc, r1, r0, lsl #2
     420:	06a00200 	strteq	r0, [r0], r0, lsl #4
     424:	0000c41d 	andeq	ip, r0, sp, lsl r4
     428:	0000c400 	andeq	ip, r0, r0, lsl #8
     42c:	061d0500 	ldreq	r0, [sp], -r0, lsl #10
     430:	0000511d 	andeq	r5, r0, sp, lsl r1
     434:	00005100 	andeq	r5, r0, r0, lsl #2
     438:	07060400 	streq	r0, [r6, -r0, lsl #8]
     43c:	002a7500 	eoreq	r7, sl, r0, lsl #10
     440:	9d000400 	cfstrsls	mvf0, [r0, #-0]
     444:	04000001 	streq	r0, [r0], #-1
     448:	0000e601 	andeq	lr, r0, r1, lsl #12
     44c:	02940c00 	addseq	r0, r4, #0, 24
     450:	005d0000 	subseq	r0, sp, r0
     454:	81900000 	orrshi	r0, r0, r0
     458:	06400000 	strbeq	r0, [r0], -r0
     45c:	01620000 	cmneq	r2, r0
     460:	04020000 	streq	r0, [r2], #-0
     464:	746e6905 	strbtvc	r6, [lr], #-2309	; 0xfffff6fb
     468:	07040300 	streq	r0, [r4, -r0, lsl #6]
     46c:	000001b0 			; <UNDEFINED> instruction: 0x000001b0
     470:	00002c04 	andeq	r2, r0, r4, lsl #24
     474:	002c0500 	eoreq	r0, ip, r0, lsl #10
     478:	01030000 	mrseq	r0, (UNDEF: 3)
     47c:	00008f06 	andeq	r8, r0, r6, lsl #30
     480:	05020300 	streq	r0, [r2, #-768]	; 0xfffffd00
     484:	000001e7 	andeq	r0, r0, r7, ror #3
     488:	d2050403 	andle	r0, r5, #50331648	; 0x3000000
     48c:	03000001 	movweq	r0, #1
     490:	01cd0508 	biceq	r0, sp, r8, lsl #10
     494:	2a060000 	bcs	18049c <__bss_end__+0x175f1c>
     498:	03000002 	movweq	r0, #2
     49c:	0065182e 	rsbeq	r1, r5, lr, lsr #16
     4a0:	01030000 	mrseq	r0, (UNDEF: 3)
     4a4:	00008d08 	andeq	r8, r0, r8, lsl #26
     4a8:	07020300 	streq	r0, [r2, -r0, lsl #6]
     4ac:	000000a4 	andeq	r0, r0, r4, lsr #1
     4b0:	00028406 	andeq	r8, r2, r6, lsl #8
     4b4:	19340300 	ldmdbne	r4!, {r8, r9}
     4b8:	0000007f 	andeq	r0, r0, pc, ror r0
     4bc:	ab070403 	blge	1c14d0 <__bss_end__+0x1b6f50>
     4c0:	03000001 	movweq	r0, #1
     4c4:	01a60708 			; <UNDEFINED> instruction: 0x01a60708
     4c8:	25070000 	strcs	r0, [r7, #-0]
     4cc:	9c000000 	stcls	0, cr0, [r0], {-0}
     4d0:	08000000 	stmdaeq	r0, {}	; <UNPREDICTABLE>
     4d4:	00000025 	andeq	r0, r0, r5, lsr #32
     4d8:	01db0900 	bicseq	r0, fp, r0, lsl #18
     4dc:	1c040000 	stcne	0, cr0, [r4], {-0}
     4e0:	0000a80e 	andeq	sl, r0, lr, lsl #16
     4e4:	8d040a00 	vstrhi	s0, [r4, #-0]
     4e8:	07000000 	streq	r0, [r0, -r0]
     4ec:	00000025 	andeq	r0, r0, r5, lsr #32
     4f0:	000000bd 	strheq	r0, [r0], -sp
     4f4:	0000bd08 	andeq	fp, r0, r8, lsl #26
     4f8:	040a0000 	streq	r0, [sl], #-0
     4fc:	000000ca 	andeq	r0, r0, sl, asr #1
     500:	96080103 	strls	r0, [r8], -r3, lsl #2
     504:	05000000 	streq	r0, [r0, #-0]
     508:	000000c3 	andeq	r0, r0, r3, asr #1
     50c:	0005a509 	andeq	sl, r5, r9, lsl #10
     510:	0e210400 	cdpeq	4, 2, cr0, cr1, cr0, {0}
     514:	000000db 	ldrdeq	r0, [r0], -fp
     518:	00ae040a 	adceq	r0, lr, sl, lsl #8
     51c:	c7060000 	strgt	r0, [r6, -r0]
     520:	05000001 	streq	r0, [r0, #-1]
     524:	00ed1c03 	rsceq	r1, sp, r3, lsl #24
     528:	040a0000 	streq	r0, [sl], #-0
     52c:	000000f3 	strdeq	r0, [r0], -r3
     530:	0000000b 	andeq	r0, r0, fp
     534:	16010800 	strne	r0, [r1], -r0, lsl #16
     538:	00012808 	andeq	r2, r1, r8, lsl #16
     53c:	69700c00 	ldmdbvs	r0!, {sl, fp}^
     540:	1701006e 	strne	r0, [r1, -lr, rrx]
     544:	0000590d 	andeq	r5, r0, sp, lsl #18
     548:	8d0d0000 	stchi	0, cr0, [sp, #-0]
     54c:	01000002 	tsteq	r0, r2
     550:	00730e18 	rsbseq	r0, r3, r8, lsl lr
     554:	0d040000 	stceq	0, cr0, [r4, #-0]
     558:	0000004a 	andeq	r0, r0, sl, asr #32
     55c:	c2161b01 	andsgt	r1, r6, #1024	; 0x400
     560:	08000001 	stmdaeq	r0, {r0}
     564:	02070e00 	andeq	r0, r7, #0, 28
     568:	0000006c 	andeq	r0, r0, ip, rrx
     56c:	580a4b02 	stmdapl	sl, {r1, r8, r9, fp, lr}
     570:	0f000001 	svceq	0x00000001
     574:	00483154 	subeq	r3, r8, r4, asr r1
     578:	54100276 	ldrpl	r0, [r0], #-630	; 0xfffffd8a
     57c:	f5004830 			; <UNDEFINED> instruction: 0xf5004830
     580:	4c315410 	cfldrsmi	mvf5, [r1], #-64	; 0xffffffc0
     584:	540ff500 	strpl	pc, [pc], #-1280	; 58c <__code_start__-0x7a74>
     588:	76004c30 			; <UNDEFINED> instruction: 0x76004c30
     58c:	02c81102 	sbceq	r1, r8, #-2147483648	; 0x80000000
     590:	88b80000 	ldmhi	r8!, {}	; <UNPREDICTABLE>
     594:	00151200 	andseq	r1, r5, r0, lsl #4
     598:	73020000 	movwvc	r0, #8192	; 0x2000
     59c:	0001641b 	andeq	r6, r1, fp, lsl r4
     5a0:	33040a00 	movwcc	r0, #18944	; 0x4a00
     5a4:	12000000 	andne	r0, r0, #0, 0
     5a8:	0000000b 	andeq	r0, r0, fp
     5ac:	641b7402 	ldrvs	r7, [fp], #-1026	; 0xfffffbfe
     5b0:	13000001 	movwne	r0, #1
     5b4:	000001bd 			; <UNDEFINED> instruction: 0x000001bd
     5b8:	641b7502 	ldrvs	r7, [fp], #-1282	; 0xfffffafe
     5bc:	34000001 	strcc	r0, [r0], #-1
     5c0:	14202000 	strtne	r2, [r0], #-0
     5c4:	00000027 	andeq	r0, r0, r7, lsr #32
     5c8:	38179602 	ldmdacc	r7, {r1, r9, sl, ip, pc}
     5cc:	10000000 	andne	r0, r0, r0
     5d0:	00021b0b 	andeq	r1, r2, fp, lsl #22
     5d4:	10010300 	andne	r0, r1, r0, lsl #6
     5d8:	0001c208 	andeq	ip, r1, r8, lsl #4
     5dc:	00720c00 	rsbseq	r0, r2, r0, lsl #24
     5e0:	590d1101 	stmdbpl	sp, {r0, r8, ip}
     5e4:	00000000 	andeq	r0, r0, r0
     5e8:	0100670c 	tsteq	r0, ip, lsl #14
     5ec:	00590f11 	subseq	r0, r9, r1, lsl pc
     5f0:	0c010000 	stceq	0, cr0, [r1], {-0}
     5f4:	11010062 	tstne	r1, r2, rrx
     5f8:	00005911 	andeq	r5, r0, r1, lsl r9
     5fc:	15000200 	strne	r0, [r0, #-512]	; 0xfffffe00
     600:	00000193 	muleq	r0, r3, r1
     604:	000001d1 	ldrdeq	r0, [r0], -r1
     608:	00002c16 	andeq	r2, r0, r6, lsl ip
     60c:	34170000 	ldrcc	r0, [r7], #-0
     610:	01000000 	mrseq	r0, (UNDEF: 0)
     614:	87b00647 	ldrhi	r0, [r0, r7, asr #12]!
     618:	00200000 	eoreq	r0, r0, r0
     61c:	9c010000 	stcls	0, cr0, [r1], {-0}
     620:	0000022d 	andeq	r0, r0, sp, lsr #4
     624:	01006818 	tsteq	r0, r8, lsl r8
     628:	00e11947 	rsceq	r1, r1, r7, asr #18
     62c:	50010000 	andpl	r0, r1, r0
     630:	736f7019 	cmnvc	pc, #25, 0
     634:	25470100 	strbcs	r0, [r7, #-256]	; 0xffffff00
     638:	00000073 	andeq	r0, r0, r3, ror r0
     63c:	0000013f 	andeq	r0, r0, pc, lsr r1
     640:	0000013b 	andeq	r0, r0, fp, lsr r1
     644:	01007218 	tsteq	r0, r8, lsl r2
     648:	00593247 	subseq	r3, r9, r7, asr #4
     64c:	52010000 	andpl	r0, r1, #0, 0
     650:	01006718 	tsteq	r0, r8, lsl r7
     654:	00593d47 	subseq	r3, r9, r7, asr #26
     658:	53010000 	movwpl	r0, #4096	; 0x1000
     65c:	01006218 	tsteq	r0, r8, lsl r2
     660:	00594847 	subseq	r4, r9, r7, asr #16
     664:	91020000 	mrsls	r0, (UNDEF: 2)
     668:	39170000 	ldmdbcc	r7, {}	; <UNPREDICTABLE>
     66c:	01000002 	tsteq	r0, r2
     670:	86c00642 	strbhi	r0, [r0], r2, asr #12
     674:	00f00000 	rscseq	r0, r0, r0
     678:	9c010000 	stcls	0, cr0, [r1], {-0}
     67c:	000008cf 	andeq	r0, r0, pc, asr #17
     680:	01006819 	tsteq	r0, r9, lsl r8
     684:	00e11942 	rsceq	r1, r1, r2, asr #18
     688:	01640000 	cmneq	r4, r0
     68c:	01600000 	cmneq	r0, r0
     690:	cf1a0000 	svcgt	0x001a0000
     694:	c8000008 	stmdagt	r0, {r3}
     698:	00000086 	andeq	r0, r0, r6, lsl #1
     69c:	000cb800 	andeq	fp, ip, r0, lsl #16
     6a0:	05430100 	strbeq	r0, [r3, #-256]	; 0xffffff00
     6a4:	0008e61b 	andeq	lr, r8, fp, lsl r6
     6a8:	00018900 	andeq	r8, r1, r0, lsl #18
     6ac:	00018500 	andeq	r8, r1, r0, lsl #10
     6b0:	08dc1b00 	ldmeq	ip, {r8, r9, fp, ip}^
     6b4:	01ac0000 			; <UNDEFINED> instruction: 0x01ac0000
     6b8:	01a80000 			; <UNDEFINED> instruction: 0x01a80000
     6bc:	f01c0000 			; <UNDEFINED> instruction: 0xf01c0000
     6c0:	40000008 	andmi	r0, r0, r8
     6c4:	c400000d 	strgt	r0, [r0], #-13
     6c8:	1d000008 	stcne	0, cr0, [r0, #-32]	; 0xffffffe0
     6cc:	000008f1 	strdeq	r0, [r0], -r1
     6d0:	000001d1 	ldrdeq	r0, [r0], -r1
     6d4:	000001cd 	andeq	r0, r0, sp, asr #3
     6d8:	0021b71a 	eoreq	fp, r1, sl, lsl r7
     6dc:	0086e400 	addeq	lr, r6, r0, lsl #8
     6e0:	c0000200 	andgt	r0, r0, r0, lsl #4
     6e4:	0100000d 	tsteq	r0, sp
     6e8:	e41b093e 	ldr	r0, [fp], #-2366	; 0xfffff6c2
     6ec:	f2000021 	vhadd.s8	d0, d0, d17
     6f0:	f0000001 			; <UNDEFINED> instruction: 0xf0000001
     6f4:	1b000001 	blne	700 <__code_start__-0x7900>
     6f8:	000021da 	ldrdeq	r2, [r0], -sl
     6fc:	000001f2 	strdeq	r0, [r0], -r2
     700:	000001f0 	strdeq	r0, [r0], -r0	; <UNPREDICTABLE>
     704:	0021d01b 	eoreq	sp, r1, fp, lsl r0
     708:	0001f200 	andeq	pc, r1, r0, lsl #4
     70c:	0001f000 	andeq	pc, r1, r0
     710:	21c41e00 	biccs	r1, r4, r0, lsl #28
     714:	ef1f0000 	svc	0x001f0000
     718:	e4000021 	str	r0, [r0], #-33	; 0xffffffdf
     71c:	04000086 	streq	r0, [r0], #-134	; 0xffffff7a
     720:	000e5800 	andeq	r5, lr, r0, lsl #16
     724:	05e50200 	strbeq	r0, [r5, #512]!	; 0x200
     728:	000004e0 	andeq	r0, r0, r0, ror #9
     72c:	0022081b 	eoreq	r0, r2, fp, lsl r8
     730:	00020800 	andeq	r0, r2, r0, lsl #16
     734:	00020600 	andeq	r0, r2, r0, lsl #12
     738:	21fc1e00 	mvnscs	r1, r0, lsl #28
     73c:	12200000 	eorne	r0, r0, #0, 0
     740:	a8000022 	stmdage	r0, {r1, r5}
     744:	1d00000e 	stcne	0, cr0, [r0, #-56]	; 0xffffffc8
     748:	00002213 	andeq	r2, r0, r3, lsl r2
     74c:	0000021e 	andeq	r0, r0, lr, lsl r2
     750:	0000021c 	andeq	r0, r0, ip, lsl r2
     754:	00221f1a 	eoreq	r1, r2, sl, lsl pc
     758:	0086e800 	addeq	lr, r6, r0, lsl #16
     75c:	f0000100 			; <UNDEFINED> instruction: 0xf0000100
     760:	0200000e 	andeq	r0, r0, #14, 0
     764:	381b09db 	ldmdacc	fp, {r0, r1, r3, r4, r6, r7, r8, fp}
     768:	34000022 	strcc	r0, [r0], #-34	; 0xffffffde
     76c:	32000002 	andcc	r0, r0, #2, 0
     770:	1e000002 	cdpne	0, 0, cr0, cr0, cr2, {0}
     774:	0000222c 	andeq	r2, r0, ip, lsr #4
     778:	0022ab1f 	eoreq	sl, r2, pc, lsl fp
     77c:	0086e800 	addeq	lr, r6, r0, lsl #16
     780:	30000400 	andcc	r0, r0, r0, lsl #8
     784:	0200000f 	andeq	r0, r0, #15, 0
     788:	040d09cf 	streq	r0, [sp], #-2511	; 0xfffff631
     78c:	b81e0000 	ldmdalt	lr, {}	; <UNPREDICTABLE>
     790:	1a000022 	bne	820 <__code_start__-0x77e0>
     794:	0000231f 	andeq	r2, r0, pc, lsl r3
     798:	000086e8 	andeq	r8, r0, r8, ror #13
     79c:	0f580006 	svceq	0x00580006
     7a0:	b1020000 	mrslt	r0, (UNDEF: 2)
     7a4:	23381b05 	teqcs	r8, #5120	; 0x1400
     7a8:	024a0000 	subeq	r0, sl, #0, 0
     7ac:	02480000 	subeq	r0, r8, #0, 0
     7b0:	2c1e0000 	ldccs	0, cr0, [lr], {-0}
     7b4:	21000023 	tstcs	r0, r3, lsr #32
     7b8:	00000f58 	andeq	r0, r0, r8, asr pc
     7bc:	0023441d 	eoreq	r4, r3, sp, lsl r4
     7c0:	00026100 	andeq	r6, r2, r0, lsl #2
     7c4:	00025f00 	andeq	r5, r2, r0, lsl #30
     7c8:	23b71f00 			; <UNDEFINED> instruction: 0x23b71f00
     7cc:	86ec0000 	strbthi	r0, [ip], r0
     7d0:	00030000 	andeq	r0, r3, r0
     7d4:	00000f78 	andeq	r0, r0, r8, ror pc
     7d8:	a8059e02 	stmdage	r5, {r1, r9, sl, fp, ip, pc}
     7dc:	1e000003 	cdpne	0, 0, cr0, cr0, cr3, {0}
     7e0:	000023c4 	andeq	r2, r0, r4, asr #7
     7e4:	23502200 	cmpcs	r0, #0, 4
     7e8:	86e80000 	strbthi	r0, [r8], r0
     7ec:	00040000 	andeq	r0, r4, r0
     7f0:	03c70000 	biceq	r0, r7, #0, 0
     7f4:	511d0000 	tstpl	sp, r0
     7f8:	76000023 	strvc	r0, [r0], -r3, lsr #32
     7fc:	74000002 	strvc	r0, [r0], #-2
     800:	00000002 	andeq	r0, r0, r2
     804:	00235f23 	eoreq	r5, r3, r3, lsr #30
     808:	0086f000 	addeq	pc, r6, r0
     80c:	00001000 	andeq	r1, r0, r0
     810:	059f0200 	ldreq	r0, [pc, #512]	; a18 <__code_start__-0x75e8>
     814:	0023781e 	eoreq	r7, r3, lr, lsl r8
     818:	236c1e00 	cmncs	ip, #0, 28
     81c:	841d0000 	ldrhi	r0, [sp], #-0
     820:	8b000023 	blhi	8b4 <__code_start__-0x774c>
     824:	89000002 	stmdbhi	r0, {r1}
     828:	24000002 	strcs	r0, [r0], #-2
     82c:	0000238e 	andeq	r2, r0, lr, lsl #7
     830:	000086f0 	strdeq	r8, [r0], -r0
     834:	00000004 	andeq	r0, r0, r4
     838:	00238f1d 	eoreq	r8, r3, sp, lsl pc
     83c:	0002a000 	andeq	sl, r2, r0
     840:	00029e00 	andeq	r9, r2, r0, lsl #28
     844:	00000000 	andeq	r0, r0, r0
     848:	771a0000 	ldrvc	r0, [sl, -r0]
     84c:	00000022 	andeq	r0, r0, r2, lsr #32
     850:	02000087 	andeq	r0, r0, #135, 0	; 0x87
     854:	000f1800 	andeq	r1, pc, r0, lsl #16
     858:	09d00200 	ldmibeq	r0, {r9}^
     85c:	0022841e 	eoreq	r8, r2, lr, lsl r4
     860:	22df2500 	sbcscs	r2, pc, #0, 10
     864:	87000000 	strhi	r0, [r0, -r0]
     868:	00040000 	andeq	r0, r4, r0
     86c:	00008700 	andeq	r8, r0, r0, lsl #14
     870:	00000018 	andeq	r0, r0, r8, lsl r0
     874:	1b05b902 	blne	16ec84 <__bss_end__+0x164704>
     878:	000022f8 	strdeq	r2, [r0], -r8
     87c:	000002b5 			; <UNDEFINED> instruction: 0x000002b5
     880:	000002b3 			; <UNDEFINED> instruction: 0x000002b3
     884:	0022ec1e 	eoreq	lr, r2, lr, lsl ip
     888:	23041d00 	movwcs	r1, #19712	; 0x4d00
     88c:	02cd0000 	sbceq	r0, sp, #0, 0
     890:	02cb0000 	sbceq	r0, fp, #0, 0
     894:	10220000 	eorne	r0, r2, r0
     898:	00000023 	andeq	r0, r0, r3, lsr #32
     89c:	04000087 	streq	r0, [r0], #-135	; 0xffffff79
     8a0:	78000000 	stmdavc	r0, {}	; <UNPREDICTABLE>
     8a4:	1d000004 	stcne	0, cr0, [r0, #-16]
     8a8:	00002311 	andeq	r2, r0, r1, lsl r3
     8ac:	000002e2 	andeq	r0, r0, r2, ror #5
     8b0:	000002e0 	andeq	r0, r0, r0, ror #5
     8b4:	239d2600 	orrscs	r2, sp, #0, 12
     8b8:	87040000 	strhi	r0, [r4, -r0]
     8bc:	00030000 	andeq	r0, r3, r0
     8c0:	00008704 	andeq	r8, r0, r4, lsl #14
     8c4:	00000004 	andeq	r0, r0, r4
     8c8:	9805a602 	stmdals	r5, {r1, r9, sl, sp, pc}
     8cc:	1e000004 	cdpne	0, 0, cr0, cr0, cr4, {0}
     8d0:	000023aa 	andeq	r2, r0, sl, lsr #7
     8d4:	235f2300 	cmpcs	pc, #0, 6
     8d8:	87080000 	strhi	r0, [r8, -r0]
     8dc:	00100000 	andseq	r0, r0, r0
     8e0:	a7020000 	strge	r0, [r2, -r0]
     8e4:	23781e05 	cmncs	r8, #80	; 0x50
     8e8:	6c1e0000 	ldcvs	0, cr0, [lr], {-0}
     8ec:	1d000023 	stcne	0, cr0, [r0, #-140]	; 0xffffff74
     8f0:	00002384 	andeq	r2, r0, r4, lsl #7
     8f4:	000002f7 	strdeq	r0, [r0], -r7
     8f8:	000002f5 	strdeq	r0, [r0], -r5
     8fc:	00238e24 	eoreq	r8, r3, r4, lsr #28
     900:	00870800 	addeq	r0, r7, r0, lsl #16
     904:	00000400 	andeq	r0, r0, r0, lsl #8
     908:	238f1d00 	orrcs	r1, pc, #0, 26
     90c:	030c0000 	movweq	r0, #49152	; 0xc000
     910:	030a0000 	movweq	r0, #40960	; 0xa000
	...
     91c:	21ef2700 	mvncs	r2, r0, lsl #14
     920:	0f980000 	svceq	0x00980000
     924:	e6020000 	str	r0, [r2], -r0
     928:	0006d305 	andeq	sp, r6, r5, lsl #6
     92c:	22081e00 	andcs	r1, r8, #0, 28
     930:	fc1e0000 	ldc2	0, cr0, [lr], {-0}
     934:	20000021 	andcs	r0, r0, r1, lsr #32
     938:	00002212 	andeq	r2, r0, r2, lsl r2
     93c:	00000f98 	muleq	r0, r8, pc	; <UNPREDICTABLE>
     940:	00221328 	eoreq	r1, r2, r8, lsr #6
     944:	221f1a00 	andscs	r1, pc, #0, 20
     948:	87240000 	strhi	r0, [r4, -r0]!
     94c:	00020000 	andeq	r0, r2, r0
     950:	00000fc8 	andeq	r0, r0, r8, asr #31
     954:	1b09db02 	blne	277564 <__bss_end__+0x26cfe4>
     958:	00002238 	andeq	r2, r0, r8, lsr r2
     95c:	00000321 	andeq	r0, r0, r1, lsr #6
     960:	0000031f 	andeq	r0, r0, pc, lsl r3
     964:	00222c1e 	eoreq	r2, r2, lr, lsl ip
     968:	22ab1f00 	adccs	r1, fp, #0, 30
     96c:	87240000 	strhi	r0, [r4, -r0]!
     970:	00050000 	andeq	r0, r5, r0
     974:	00000ff8 	strdeq	r0, [r0], -r8
     978:	0009cf02 	andeq	ip, r9, r2, lsl #30
     97c:	1e000006 	cdpne	0, 0, cr0, cr0, cr6, {0}
     980:	000022b8 			; <UNDEFINED> instruction: 0x000022b8
     984:	00231f25 	eoreq	r1, r3, r5, lsr #30
     988:	00872400 	addeq	r2, r7, r0, lsl #8
     98c:	24000700 	strcs	r0, [r0], #-1792	; 0xfffff900
     990:	18000087 	stmdane	r0, {r0, r1, r2, r7}
     994:	02000000 	andeq	r0, r0, #0, 0
     998:	381b05b1 	ldmdacc	fp, {r0, r4, r5, r7, r8, sl}
     99c:	37000023 	strcc	r0, [r0, -r3, lsr #32]
     9a0:	35000003 	strcc	r0, [r0, #-3]
     9a4:	1e000003 	cdpne	0, 0, cr0, cr0, cr3, {0}
     9a8:	0000232c 	andeq	r2, r0, ip, lsr #6
     9ac:	0023441d 	eoreq	r4, r3, sp, lsl r4
     9b0:	00034e00 	andeq	r4, r3, r0, lsl #28
     9b4:	00034c00 	andeq	r4, r3, r0, lsl #24
     9b8:	23502200 	cmpcs	r0, #0, 4
     9bc:	87240000 	strhi	r0, [r4, -r0]!
     9c0:	00040000 	andeq	r0, r4, r0
     9c4:	059b0000 	ldreq	r0, [fp]
     9c8:	511d0000 	tstpl	sp, r0
     9cc:	63000023 	movwvs	r0, #35	; 0x23
     9d0:	61000003 	tstvs	r0, r3
     9d4:	00000003 	andeq	r0, r0, r3
     9d8:	0023b726 	eoreq	fp, r3, r6, lsr #14
     9dc:	00872800 	addeq	r2, r7, r0, lsl #16
     9e0:	28000300 	stmdacs	r0, {r8, r9}
     9e4:	04000087 	streq	r0, [r0], #-135	; 0xffffff79
     9e8:	02000000 	andeq	r0, r0, #0, 0
     9ec:	05bb059e 	ldreq	r0, [fp, #1438]!	; 0x59e
     9f0:	c41e0000 	ldrgt	r0, [lr], #-0
     9f4:	00000023 	andeq	r0, r0, r3, lsr #32
     9f8:	00235f23 	eoreq	r5, r3, r3, lsr #30
     9fc:	00872c00 	addeq	r2, r7, r0, lsl #24
     a00:	00001000 	andeq	r1, r0, r0
     a04:	059f0200 	ldreq	r0, [pc, #512]	; c0c <__code_start__-0x73f4>
     a08:	0023781e 	eoreq	r7, r3, lr, lsl r8
     a0c:	236c1e00 	cmncs	ip, #0, 28
     a10:	841d0000 	ldrhi	r0, [sp], #-0
     a14:	78000023 	stmdavc	r0, {r0, r1, r5}
     a18:	76000003 	strvc	r0, [r0], -r3
     a1c:	24000003 	strcs	r0, [r0], #-3
     a20:	0000238e 	andeq	r2, r0, lr, lsl #7
     a24:	0000872c 	andeq	r8, r0, ip, lsr #14
     a28:	00000004 	andeq	r0, r0, r4
     a2c:	00238f1d 	eoreq	r8, r3, sp, lsl pc
     a30:	00038d00 	andeq	r8, r3, r0, lsl #26
     a34:	00038b00 	andeq	r8, r3, r0, lsl #22
     a38:	00000000 	andeq	r0, r0, r0
     a3c:	22771a00 	rsbscs	r1, r7, #0, 20
     a40:	873c0000 	ldrhi	r0, [ip, -r0]!
     a44:	00020000 	andeq	r0, r2, r0
     a48:	00000fe0 	andeq	r0, r0, r0, ror #31
     a4c:	1e09d002 	cdpne	0, 0, cr13, cr9, cr2, {0}
     a50:	00002284 	andeq	r2, r0, r4, lsl #5
     a54:	0022df25 	eoreq	sp, r2, r5, lsr #30
     a58:	00873c00 	addeq	r3, r7, r0, lsl #24
     a5c:	3c000400 	cfstrscc	mvf0, [r0], {-0}
     a60:	18000087 	stmdane	r0, {r0, r1, r2, r7}
     a64:	02000000 	andeq	r0, r0, #0, 0
     a68:	f81b05b9 			; <UNDEFINED> instruction: 0xf81b05b9
     a6c:	a2000022 	andge	r0, r0, #34, 0	; 0x22
     a70:	a0000003 	andge	r0, r0, r3
     a74:	1e000003 	cdpne	0, 0, cr0, cr0, cr3, {0}
     a78:	000022ec 	andeq	r2, r0, ip, ror #5
     a7c:	0023041d 	eoreq	r0, r3, sp, lsl r4
     a80:	0003ba00 	andeq	fp, r3, r0, lsl #20
     a84:	0003b800 	andeq	fp, r3, r0, lsl #16
     a88:	23102200 	tstcs	r0, #0, 4
     a8c:	873c0000 	ldrhi	r0, [ip, -r0]!
     a90:	00040000 	andeq	r0, r4, r0
     a94:	066b0000 	strbteq	r0, [fp], -r0
     a98:	111d0000 	tstne	sp, r0
     a9c:	cf000023 	svcgt	0x00000023
     aa0:	cd000003 	stcgt	0, cr0, [r0, #-12]
     aa4:	00000003 	andeq	r0, r0, r3
     aa8:	00239d26 	eoreq	r9, r3, r6, lsr #26
     aac:	00874000 	addeq	r4, r7, r0
     ab0:	40000300 	andmi	r0, r0, r0, lsl #6
     ab4:	04000087 	streq	r0, [r0], #-135	; 0xffffff79
     ab8:	02000000 	andeq	r0, r0, #0, 0
     abc:	068b05a6 	streq	r0, [fp], r6, lsr #11
     ac0:	aa1e0000 	bge	780ac8 <__bss_end__+0x776548>
     ac4:	00000023 	andeq	r0, r0, r3, lsr #32
     ac8:	00235f23 	eoreq	r5, r3, r3, lsr #30
     acc:	00874400 	addeq	r4, r7, r0, lsl #8
     ad0:	00001000 	andeq	r1, r0, r0
     ad4:	05a70200 	streq	r0, [r7, #512]!	; 0x200
     ad8:	0023781e 	eoreq	r7, r3, lr, lsl r8
     adc:	236c1e00 	cmncs	ip, #0, 28
     ae0:	841d0000 	ldrhi	r0, [sp], #-0
     ae4:	e4000023 	str	r0, [r0], #-35	; 0xffffffdd
     ae8:	e2000003 	and	r0, r0, #3, 0
     aec:	24000003 	strcs	r0, [r0], #-3
     af0:	0000238e 	andeq	r2, r0, lr, lsl #7
     af4:	00008744 	andeq	r8, r0, r4, asr #14
     af8:	00000004 	andeq	r0, r0, r4
     afc:	00238f1d 	eoreq	r8, r3, sp, lsl pc
     b00:	0003f900 	andeq	pc, r3, r0, lsl #18
     b04:	0003f700 	andeq	pc, r3, r0, lsl #14
	...
     b10:	0021ef29 	eoreq	lr, r1, r9, lsr #30
     b14:	00101000 	andseq	r1, r0, r0
     b18:	05e70200 	strbeq	r0, [r7, #512]!	; 0x200
     b1c:	0022081e 	eoreq	r0, r2, lr, lsl r8
     b20:	21fc1e00 	mvnscs	r1, r0, lsl #28
     b24:	12200000 	eorne	r0, r0, #0, 0
     b28:	10000022 	andne	r0, r0, r2, lsr #32
     b2c:	28000010 	stmdacs	r0, {r4}
     b30:	00002213 	andeq	r2, r0, r3, lsl r2
     b34:	00221f1a 	eoreq	r1, r2, sl, lsl pc
     b38:	00876000 	addeq	r6, r7, r0
     b3c:	40000200 	andmi	r0, r0, r0, lsl #4
     b40:	02000010 	andeq	r0, r0, #16, 0
     b44:	381b09db 	ldmdacc	fp, {r0, r1, r3, r4, r6, r7, r8, fp}
     b48:	0e000022 	cdpeq	0, 0, cr0, cr0, cr2, {1}
     b4c:	0c000004 	stceq	0, cr0, [r0], {4}
     b50:	1e000004 	cdpne	0, 0, cr0, cr0, cr4, {0}
     b54:	0000222c 	andeq	r2, r0, ip, lsr #4
     b58:	0022ab1f 	eoreq	sl, r2, pc, lsl fp
     b5c:	00876000 	addeq	r6, r7, r0
     b60:	70000500 	andvc	r0, r0, r0, lsl #10
     b64:	02000010 	andeq	r0, r0, #16, 0
     b68:	07ef09cf 	strbeq	r0, [pc, pc, asr #19]!
     b6c:	b81e0000 	ldmdalt	lr, {}	; <UNPREDICTABLE>
     b70:	25000022 	strcs	r0, [r0, #-34]	; 0xffffffde
     b74:	0000231f 	andeq	r2, r0, pc, lsl r3
     b78:	00008760 	andeq	r8, r0, r0, ror #14
     b7c:	87600007 	strbhi	r0, [r0, -r7]!
     b80:	00180000 	andseq	r0, r8, r0
     b84:	b1020000 	mrslt	r0, (UNDEF: 2)
     b88:	23381b05 	teqcs	r8, #5120	; 0x1400
     b8c:	04240000 	strteq	r0, [r4], #-0
     b90:	04220000 	strteq	r0, [r2], #-0
     b94:	2c1e0000 	ldccs	0, cr0, [lr], {-0}
     b98:	1d000023 	stcne	0, cr0, [r0, #-140]	; 0xffffff74
     b9c:	00002344 	andeq	r2, r0, r4, asr #6
     ba0:	0000043b 	andeq	r0, r0, fp, lsr r4
     ba4:	00000439 	andeq	r0, r0, r9, lsr r4
     ba8:	00235022 	eoreq	r5, r3, r2, lsr #32
     bac:	00876000 	addeq	r6, r7, r0
     bb0:	00000400 	andeq	r0, r0, r0, lsl #8
     bb4:	00078a00 	andeq	r8, r7, r0, lsl #20
     bb8:	23511d00 	cmpcs	r1, #0, 26
     bbc:	04500000 	ldrbeq	r0, [r0], #-0
     bc0:	044e0000 	strbeq	r0, [lr], #-0
     bc4:	26000000 	strcs	r0, [r0], -r0
     bc8:	000023b7 			; <UNDEFINED> instruction: 0x000023b7
     bcc:	00008764 	andeq	r8, r0, r4, ror #14
     bd0:	87640003 	strbhi	r0, [r4, -r3]!
     bd4:	00040000 	andeq	r0, r4, r0
     bd8:	9e020000 	cdpls	0, 0, cr0, cr2, cr0, {0}
     bdc:	0007aa05 	andeq	sl, r7, r5, lsl #20
     be0:	23c41e00 	biccs	r1, r4, #0, 28
     be4:	23000000 	movwcs	r0, #0
     be8:	0000235f 	andeq	r2, r0, pc, asr r3
     bec:	00008768 	andeq	r8, r0, r8, ror #14
     bf0:	00000010 	andeq	r0, r0, r0, lsl r0
     bf4:	1e059f02 	cdpne	15, 0, cr9, cr5, cr2, {0}
     bf8:	00002378 	andeq	r2, r0, r8, ror r3
     bfc:	00236c1e 	eoreq	r6, r3, lr, lsl ip
     c00:	23841d00 	orrcs	r1, r4, #0, 26
     c04:	04650000 	strbteq	r0, [r5], #-0
     c08:	04630000 	strbteq	r0, [r3], #-0
     c0c:	8e240000 	cdphi	0, 2, cr0, cr4, cr0, {0}
     c10:	68000023 	stmdavs	r0, {r0, r1, r5}
     c14:	04000087 	streq	r0, [r0], #-135	; 0xffffff79
     c18:	1d000000 	stcne	0, cr0, [r0, #-0]
     c1c:	0000238f 	andeq	r2, r0, pc, lsl #7
     c20:	0000047a 	andeq	r0, r0, sl, ror r4
     c24:	00000478 	andeq	r0, r0, r8, ror r4
     c28:	00000000 	andeq	r0, r0, r0
     c2c:	0022771a 	eoreq	r7, r2, sl, lsl r7
     c30:	00877800 	addeq	r7, r7, r0, lsl #16
     c34:	58000200 	stmdapl	r0, {r9}
     c38:	02000010 	andeq	r0, r0, #16, 0
     c3c:	841e09d0 	ldrhi	r0, [lr], #-2512	; 0xfffff630
     c40:	25000022 	strcs	r0, [r0, #-34]	; 0xffffffde
     c44:	000022df 	ldrdeq	r2, [r0], -pc	; <UNPREDICTABLE>
     c48:	00008778 	andeq	r8, r0, r8, ror r7
     c4c:	87780004 	ldrbhi	r0, [r8, -r4]!
     c50:	00180000 	andseq	r0, r8, r0
     c54:	b9020000 	stmdblt	r2, {}	; <UNPREDICTABLE>
     c58:	22f81b05 	rscscs	r1, r8, #5120	; 0x1400
     c5c:	048f0000 	streq	r0, [pc], #0	; c64 <__code_start__-0x739c>
     c60:	048d0000 	streq	r0, [sp], #0
     c64:	ec1e0000 	ldc	0, cr0, [lr], {-0}
     c68:	1d000022 	stcne	0, cr0, [r0, #-136]	; 0xffffff78
     c6c:	00002304 	andeq	r2, r0, r4, lsl #6
     c70:	000004a7 	andeq	r0, r0, r7, lsr #9
     c74:	000004a5 	andeq	r0, r0, r5, lsr #9
     c78:	00231022 	eoreq	r1, r3, r2, lsr #32
     c7c:	00877800 	addeq	r7, r7, r0, lsl #16
     c80:	00000400 	andeq	r0, r0, r0, lsl #8
     c84:	00085a00 	andeq	r5, r8, r0, lsl #20
     c88:	23111d00 	tstcs	r1, #0, 26
     c8c:	04bc0000 	ldrteq	r0, [ip], #0
     c90:	04ba0000 	ldrteq	r0, [sl], #0
     c94:	26000000 	strcs	r0, [r0], -r0
     c98:	0000239d 	muleq	r0, sp, r3
     c9c:	0000877c 	andeq	r8, r0, ip, ror r7
     ca0:	877c0003 	ldrbhi	r0, [ip, -r3]!
     ca4:	00040000 	andeq	r0, r4, r0
     ca8:	a6020000 	strge	r0, [r2], -r0
     cac:	00087a05 	andeq	r7, r8, r5, lsl #20
     cb0:	23aa1e00 			; <UNDEFINED> instruction: 0x23aa1e00
     cb4:	23000000 	movwcs	r0, #0
     cb8:	0000235f 	andeq	r2, r0, pc, asr r3
     cbc:	00008780 	andeq	r8, r0, r0, lsl #15
     cc0:	00000010 	andeq	r0, r0, r0, lsl r0
     cc4:	1e05a702 	cdpne	7, 0, cr10, cr5, cr2, {0}
     cc8:	00002378 	andeq	r2, r0, r8, ror r3
     ccc:	00236c1e 	eoreq	r6, r3, lr, lsl ip
     cd0:	23841d00 	orrcs	r1, r4, #0, 26
     cd4:	04d10000 	ldrbeq	r0, [r1], #0
     cd8:	04cf0000 	strbeq	r0, [pc], #0	; ce0 <__code_start__-0x7320>
     cdc:	8e240000 	cdphi	0, 2, cr0, cr4, cr0, {0}
     ce0:	80000023 	andhi	r0, r0, r3, lsr #32
     ce4:	04000087 	streq	r0, [r0], #-135	; 0xffffff79
     ce8:	1d000000 	stcne	0, cr0, [r0, #-0]
     cec:	0000238f 	andeq	r2, r0, pc, lsl #7
     cf0:	000004e6 	andeq	r0, r0, r6, ror #9
     cf4:	000004e4 	andeq	r0, r0, r4, ror #9
	...
     d00:	87ac2a00 	strhi	r2, [ip, r0, lsl #20]!
     d04:	153e0000 	ldrne	r0, [lr, #-0]!
     d08:	00000000 	andeq	r0, r0, r0
     d0c:	0000d42b 	andeq	sp, r0, fp, lsr #8
     d10:	063c0100 	ldrteq	r0, [ip], -r0, lsl #2
     d14:	0008fd01 	andeq	pc, r8, r1, lsl #26
     d18:	00682c00 	rsbeq	r2, r8, r0, lsl #24
     d1c:	e11e3c01 	tst	lr, r1, lsl #24
     d20:	2c000000 	stccs	0, cr0, [r0], {-0}
     d24:	3c01006e 	stccc	0, cr0, [r1], {110}	; 0x6e
     d28:	00002c2a 	andeq	r2, r0, sl, lsr #24
     d2c:	692e2d00 	stmdbvs	lr!, {r8, sl, fp, sp}
     d30:	0d3d0100 	ldfeqs	f0, [sp, #-0]
     d34:	00000025 	andeq	r0, r0, r5, lsr #32
     d38:	ce170000 	cdpgt	0, 1, cr0, cr7, cr0, {0}
     d3c:	01000002 	tsteq	r0, r2
     d40:	84000637 	strhi	r0, [r0], #-1591	; 0xfffff9c9
     d44:	01c40000 	biceq	r0, r4, r0
     d48:	9c010000 	stcls	0, cr0, [r1], {-0}
     d4c:	00001492 	muleq	r0, r2, r4
     d50:	01006819 	tsteq	r0, r9, lsl r8
     d54:	00e11d37 	rsceq	r1, r1, r7, lsr sp
     d58:	04fd0000 	ldrbteq	r0, [sp], #0
     d5c:	04f90000 	ldrbteq	r0, [r9], #0
     d60:	72190000 	andsvc	r0, r9, #0, 0
     d64:	28370100 	ldmdacs	r7!, {r8}
     d68:	00000059 	andeq	r0, r0, r9, asr r0
     d6c:	00000524 	andeq	r0, r0, r4, lsr #10
     d70:	0000051e 	andeq	r0, r0, lr, lsl r5
     d74:	01006719 	tsteq	r0, r9, lsl r7
     d78:	00593337 	subseq	r3, r9, r7, lsr r3
     d7c:	05560000 	ldrbeq	r0, [r6, #-0]
     d80:	05500000 	ldrbeq	r0, [r0, #-0]
     d84:	62180000 	andsvs	r0, r8, #0, 0
     d88:	3e370100 	rsfccs	f0, f7, f0
     d8c:	00000059 	andeq	r0, r0, r9, asr r0
     d90:	b71a5301 	ldrlt	r5, [sl, -r1, lsl #6]
     d94:	08000021 	stmdaeq	r0, {r0, r5}
     d98:	01000084 	smlabbeq	r0, r4, r0, r0
     d9c:	00052000 	andeq	r2, r5, r0
     da0:	05380100 	ldreq	r0, [r8, #-256]!	; 0xffffff00
     da4:	0021e41b 	eoreq	lr, r1, fp, lsl r4
     da8:	00058400 	andeq	r8, r5, r0, lsl #8
     dac:	00058200 	andeq	r8, r5, r0, lsl #4
     db0:	21da1b00 	bicscs	r1, sl, r0, lsl #22
     db4:	059d0000 	ldreq	r0, [sp]
     db8:	05970000 	ldreq	r0, [r7]
     dbc:	d01b0000 	andsle	r0, fp, r0
     dc0:	cf000021 	svcgt	0x00000021
     dc4:	c9000005 	stmdbgt	r0, {r0, r2}
     dc8:	1b000005 	blne	de4 <__code_start__-0x721c>
     dcc:	000021c4 	andeq	r2, r0, r4, asr #3
     dd0:	000005ff 	strdeq	r0, [r0], -pc	; <UNPREDICTABLE>
     dd4:	000005fb 	strdeq	r0, [r0], -fp
     dd8:	0021ef1f 	eoreq	lr, r1, pc, lsl pc
     ddc:	00840800 	addeq	r0, r4, r0, lsl #16
     de0:	a8000300 	stmdage	r0, {r8, r9}
     de4:	02000005 	andeq	r0, r0, #5, 0
     de8:	0d5205e5 	cfldr64eq	mvdx0, [r2, #-916]	; 0xfffffc6c
     dec:	081b0000 	ldmdaeq	fp, {}	; <UNPREDICTABLE>
     df0:	30000022 	andcc	r0, r0, r2, lsr #32
     df4:	2c000006 	stccs	0, cr0, [r0], {6}
     df8:	1b000006 	blne	e18 <__code_start__-0x71e8>
     dfc:	000021fc 	strdeq	r2, [r0], -ip
     e00:	00000652 	andeq	r0, r0, r2, asr r6
     e04:	0000064e 	andeq	r0, r0, lr, asr #12
     e08:	00221220 	eoreq	r1, r2, r0, lsr #4
     e0c:	0005f800 	andeq	pc, r5, r0, lsl #16
     e10:	22131d00 	andscs	r1, r3, #0, 26
     e14:	067d0000 	ldrbteq	r0, [sp], -r0
     e18:	06770000 	ldrbteq	r0, [r7], -r0
     e1c:	1f1a0000 	svcne	0x001a0000
     e20:	18000022 	stmdane	r0, {r1, r5}
     e24:	02000084 	andeq	r0, r0, #132, 0	; 0x84
     e28:	00064000 	andeq	r4, r6, r0
     e2c:	09db0200 	ldmibeq	fp, {r9}^
     e30:	0022381b 	eoreq	r3, r2, fp, lsl r8
     e34:	0006ab00 	andeq	sl, r6, r0, lsl #22
     e38:	0006a700 	andeq	sl, r6, r0, lsl #14
     e3c:	222c1e00 	eorcs	r1, ip, #0, 28
     e40:	ab1f0000 	blge	7c0e48 <__bss_end__+0x7b68c8>
     e44:	80000022 	andhi	r0, r0, r2, lsr #32
     e48:	02000085 	andeq	r0, r0, #133, 0	; 0x85
     e4c:	00069000 	andeq	r9, r6, r0
     e50:	09cf0200 	stmibeq	pc, {r9}^	; <UNPREDICTABLE>
     e54:	00000ad7 	ldrdeq	r0, [r0], -r7
     e58:	0022b81e 	eoreq	fp, r2, lr, lsl r8
     e5c:	231f1a00 	tstcs	pc, #0, 20
     e60:	85800000 	strhi	r0, [r0]
     e64:	00040000 	andeq	r0, r4, r0
     e68:	000006b8 			; <UNDEFINED> instruction: 0x000006b8
     e6c:	1b05b102 	blne	16d27c <__bss_end__+0x162cfc>
     e70:	00002338 	andeq	r2, r0, r8, lsr r3
     e74:	000006d9 	ldrdeq	r0, [r0], -r9
     e78:	000006d7 	ldrdeq	r0, [r0], -r7
     e7c:	00232c1e 	eoreq	r2, r3, lr, lsl ip
     e80:	06b82100 	ldrteq	r2, [r8], r0, lsl #2
     e84:	441d0000 	ldrmi	r0, [sp], #-0
     e88:	f0000023 			; <UNDEFINED> instruction: 0xf0000023
     e8c:	ee000006 	cdp	0, 0, cr0, cr0, cr6, {0}
     e90:	1f000006 	svcne	0x00000006
     e94:	000023b7 			; <UNDEFINED> instruction: 0x000023b7
     e98:	00008584 	andeq	r8, r0, r4, lsl #11
     e9c:	06d80003 	ldrbeq	r0, [r8], r3
     ea0:	9e020000 	cdpls	0, 0, cr0, cr2, cr0, {0}
     ea4:	000a7205 	andeq	r7, sl, r5, lsl #4
     ea8:	23c41e00 	biccs	r1, r4, #0, 28
     eac:	22000000 	andcs	r0, r0, #0, 0
     eb0:	00002350 	andeq	r2, r0, r0, asr r3
     eb4:	00008580 	andeq	r8, r0, r0, lsl #11
     eb8:	00000004 	andeq	r0, r0, r4
     ebc:	00000a91 	muleq	r0, r1, sl
     ec0:	0023511d 	eoreq	r5, r3, sp, lsl r1
     ec4:	00070500 	andeq	r0, r7, r0, lsl #10
     ec8:	00070300 	andeq	r0, r7, r0, lsl #6
     ecc:	5f230000 	svcpl	0x00230000
     ed0:	88000023 	stmdahi	r0, {r0, r1, r5}
     ed4:	10000085 	andne	r0, r0, r5, lsl #1
     ed8:	02000000 	andeq	r0, r0, #0, 0
     edc:	781e059f 	ldmdavc	lr, {r0, r1, r2, r3, r4, r7, r8, sl}
     ee0:	1e000023 	cdpne	0, 0, cr0, cr0, cr3, {1}
     ee4:	0000236c 	andeq	r2, r0, ip, ror #6
     ee8:	0023841d 	eoreq	r8, r3, sp, lsl r4
     eec:	00071a00 	andeq	r1, r7, r0, lsl #20
     ef0:	00071800 	andeq	r1, r7, r0, lsl #16
     ef4:	238e2400 	orrcs	r2, lr, #0, 8
     ef8:	85880000 	strhi	r0, [r8]
     efc:	00040000 	andeq	r0, r4, r0
     f00:	8f1d0000 	svchi	0x001d0000
     f04:	2f000023 	svccs	0x00000023
     f08:	2d000007 	stccs	0, cr0, [r0, #-28]	; 0xffffffe4
     f0c:	00000007 	andeq	r0, r0, r7
     f10:	00000000 	andeq	r0, r0, r0
     f14:	0022c51f 	eoreq	ip, r2, pc, lsl r5
     f18:	00842400 	addeq	r2, r4, r0, lsl #8
     f1c:	f8000100 			; <UNDEFINED> instruction: 0xf8000100
     f20:	02000006 	andeq	r0, r0, #6, 0
     f24:	0bab09cc 	bleq	feac365c <__bss_end__+0xfeab90dc>
     f28:	d21e0000 	andsle	r0, lr, #0, 0
     f2c:	25000022 	strcs	r0, [r0, #-34]	; 0xffffffde
     f30:	0000231f 	andeq	r2, r0, pc, lsl r3
     f34:	00008424 	andeq	r8, r0, r4, lsr #8
     f38:	84240003 	strthi	r0, [r4], #-3
     f3c:	00180000 	andseq	r0, r8, r0
     f40:	ac020000 	stcge	0, cr0, [r2], {-0}
     f44:	23381b05 	teqcs	r8, #5120	; 0x1400
     f48:	07440000 	strbeq	r0, [r4, -r0]
     f4c:	07420000 	strbeq	r0, [r2, -r0]
     f50:	2c1e0000 	ldccs	0, cr0, [lr], {-0}
     f54:	1d000023 	stcne	0, cr0, [r0, #-140]	; 0xffffff74
     f58:	00002344 	andeq	r2, r0, r4, asr #6
     f5c:	0000075c 	andeq	r0, r0, ip, asr r7
     f60:	0000075a 	andeq	r0, r0, sl, asr r7
     f64:	00235022 	eoreq	r5, r3, r2, lsr #32
     f68:	00842400 	addeq	r2, r4, r0, lsl #8
     f6c:	00000400 	andeq	r0, r0, r0, lsl #8
     f70:	000b4600 	andeq	r4, fp, r0, lsl #12
     f74:	23511d00 	cmpcs	r1, #0, 26
     f78:	07710000 	ldrbeq	r0, [r1, -r0]!
     f7c:	076f0000 	strbeq	r0, [pc, -r0]!
     f80:	26000000 	strcs	r0, [r0], -r0
     f84:	000023b7 			; <UNDEFINED> instruction: 0x000023b7
     f88:	00008428 	andeq	r8, r0, r8, lsr #8
     f8c:	84280003 	strthi	r0, [r8], #-3
     f90:	00040000 	andeq	r0, r4, r0
     f94:	9e020000 	cdpls	0, 0, cr0, cr2, cr0, {0}
     f98:	000b6605 	andeq	r6, fp, r5, lsl #12
     f9c:	23c41e00 	biccs	r1, r4, #0, 28
     fa0:	23000000 	movwcs	r0, #0
     fa4:	0000235f 	andeq	r2, r0, pc, asr r3
     fa8:	0000842c 	andeq	r8, r0, ip, lsr #8
     fac:	00000010 	andeq	r0, r0, r0, lsl r0
     fb0:	1e059f02 	cdpne	15, 0, cr9, cr5, cr2, {0}
     fb4:	00002378 	andeq	r2, r0, r8, ror r3
     fb8:	00236c1e 	eoreq	r6, r3, lr, lsl ip
     fbc:	23841d00 	orrcs	r1, r4, #0, 26
     fc0:	07860000 	streq	r0, [r6, r0]
     fc4:	07840000 	streq	r0, [r4, r0]
     fc8:	8e240000 	cdphi	0, 2, cr0, cr4, cr0, {0}
     fcc:	2c000023 	stccs	0, cr0, [r0], {35}	; 0x23
     fd0:	04000084 	streq	r0, [r0], #-132	; 0xffffff7c
     fd4:	1d000000 	stcne	0, cr0, [r0, #-0]
     fd8:	0000238f 	andeq	r2, r0, pc, lsl #7
     fdc:	0000079b 	muleq	r0, fp, r7
     fe0:	00000799 	muleq	r0, r9, r7
     fe4:	00000000 	andeq	r0, r0, r0
     fe8:	0022911f 	eoreq	r9, r2, pc, lsl r1
     fec:	00843c00 	addeq	r3, r4, r0, lsl #24
     ff0:	10000200 	andne	r0, r0, r0, lsl #4
     ff4:	02000007 	andeq	r0, r0, #7, 0
     ff8:	0c7f09cd 			; <UNDEFINED> instruction: 0x0c7f09cd
     ffc:	9e1e0000 	cdpls	0, 1, cr0, cr14, cr0, {0}
    1000:	25000022 	strcs	r0, [r0, #-34]	; 0xffffffde
    1004:	000022df 	ldrdeq	r2, [r0], -pc	; <UNPREDICTABLE>
    1008:	0000843c 	andeq	r8, r0, ip, lsr r4
    100c:	843c0004 	ldrthi	r0, [ip], #-4
    1010:	00180000 	andseq	r0, r8, r0
    1014:	b5020000 	strlt	r0, [r2, #-0]
    1018:	22f81b05 	rscscs	r1, r8, #5120	; 0x1400
    101c:	07b00000 	ldreq	r0, [r0, r0]!
    1020:	07ae0000 	streq	r0, [lr, r0]!
    1024:	ec1e0000 	ldc	0, cr0, [lr], {-0}
    1028:	1d000022 	stcne	0, cr0, [r0, #-136]	; 0xffffff78
    102c:	00002304 	andeq	r2, r0, r4, lsl #6
    1030:	000007c7 	andeq	r0, r0, r7, asr #15
    1034:	000007c5 	andeq	r0, r0, r5, asr #15
    1038:	00231022 	eoreq	r1, r3, r2, lsr #32
    103c:	00843c00 	addeq	r3, r4, r0, lsl #24
    1040:	00000400 	andeq	r0, r0, r0, lsl #8
    1044:	000c1a00 	andeq	r1, ip, r0, lsl #20
    1048:	23111d00 	tstcs	r1, #0, 26
    104c:	07dc0000 	ldrbeq	r0, [ip, r0]
    1050:	07da0000 	ldrbeq	r0, [sl, r0]
    1054:	26000000 	strcs	r0, [r0], -r0
    1058:	0000239d 	muleq	r0, sp, r3
    105c:	00008440 	andeq	r8, r0, r0, asr #8
    1060:	84400003 	strbhi	r0, [r0], #-3
    1064:	00040000 	andeq	r0, r4, r0
    1068:	a6020000 	strge	r0, [r2], -r0
    106c:	000c3a05 	andeq	r3, ip, r5, lsl #20
    1070:	23aa1e00 			; <UNDEFINED> instruction: 0x23aa1e00
    1074:	23000000 	movwcs	r0, #0
    1078:	0000235f 	andeq	r2, r0, pc, asr r3
    107c:	00008444 	andeq	r8, r0, r4, asr #8
    1080:	00000010 	andeq	r0, r0, r0, lsl r0
    1084:	1e05a702 	cdpne	7, 0, cr10, cr5, cr2, {0}
    1088:	00002378 	andeq	r2, r0, r8, ror r3
    108c:	00236c1e 	eoreq	r6, r3, lr, lsl ip
    1090:	23841d00 	orrcs	r1, r4, #0, 26
    1094:	07f10000 	ldrbeq	r0, [r1, r0]!
    1098:	07ef0000 	strbeq	r0, [pc, r0]!
    109c:	8e240000 	cdphi	0, 2, cr0, cr4, cr0, {0}
    10a0:	44000023 	strmi	r0, [r0], #-35	; 0xffffffdd
    10a4:	04000084 	streq	r0, [r0], #-132	; 0xffffff7c
    10a8:	1d000000 	stcne	0, cr0, [r0, #-0]
    10ac:	0000238f 	andeq	r2, r0, pc, lsl #7
    10b0:	00000806 	andeq	r0, r0, r6, lsl #16
    10b4:	00000804 	andeq	r0, r0, r4, lsl #16
    10b8:	00000000 	andeq	r0, r0, r0
    10bc:	0022771a 	eoreq	r7, r2, sl, lsl r7
    10c0:	00859800 	addeq	r9, r5, r0, lsl #16
    10c4:	28000200 	stmdacs	r0, {r9}
    10c8:	02000007 	andeq	r0, r0, #7, 0
    10cc:	841e09d0 	ldrhi	r0, [lr], #-2512	; 0xfffff630
    10d0:	25000022 	strcs	r0, [r0, #-34]	; 0xffffffde
    10d4:	000022df 	ldrdeq	r2, [r0], -pc	; <UNPREDICTABLE>
    10d8:	00008598 	muleq	r0, r8, r5
    10dc:	85980004 	ldrhi	r0, [r8, #4]
    10e0:	00180000 	andseq	r0, r8, r0
    10e4:	b9020000 	stmdblt	r2, {}	; <UNPREDICTABLE>
    10e8:	22f81b05 	rscscs	r1, r8, #5120	; 0x1400
    10ec:	081b0000 	ldmdaeq	fp, {}	; <UNPREDICTABLE>
    10f0:	08190000 	ldmdaeq	r9, {}	; <UNPREDICTABLE>
    10f4:	ec1e0000 	ldc	0, cr0, [lr], {-0}
    10f8:	1d000022 	stcne	0, cr0, [r0, #-136]	; 0xffffff78
    10fc:	00002304 	andeq	r2, r0, r4, lsl #6
    1100:	00000833 	andeq	r0, r0, r3, lsr r8
    1104:	00000831 	andeq	r0, r0, r1, lsr r8
    1108:	00231022 	eoreq	r1, r3, r2, lsr #32
    110c:	00859800 	addeq	r9, r5, r0, lsl #16
    1110:	00000400 	andeq	r0, r0, r0, lsl #8
    1114:	000cea00 	andeq	lr, ip, r0, lsl #20
    1118:	23111d00 	tstcs	r1, #0, 26
    111c:	08480000 	stmdaeq	r8, {}^	; <UNPREDICTABLE>
    1120:	08460000 	stmdaeq	r6, {}^	; <UNPREDICTABLE>
    1124:	26000000 	strcs	r0, [r0], -r0
    1128:	0000239d 	muleq	r0, sp, r3
    112c:	0000859c 	muleq	r0, ip, r5
    1130:	859c0003 	ldrhi	r0, [ip, #3]
    1134:	00040000 	andeq	r0, r4, r0
    1138:	a6020000 	strge	r0, [r2], -r0
    113c:	000d0a05 	andeq	r0, sp, r5, lsl #20
    1140:	23aa1e00 			; <UNDEFINED> instruction: 0x23aa1e00
    1144:	23000000 	movwcs	r0, #0
    1148:	0000235f 	andeq	r2, r0, pc, asr r3
    114c:	000085a0 	andeq	r8, r0, r0, lsr #11
    1150:	00000010 	andeq	r0, r0, r0, lsl r0
    1154:	1e05a702 	cdpne	7, 0, cr10, cr5, cr2, {0}
    1158:	00002378 	andeq	r2, r0, r8, ror r3
    115c:	00236c1e 	eoreq	r6, r3, lr, lsl ip
    1160:	23841d00 	orrcs	r1, r4, #0, 26
    1164:	085d0000 	ldmdaeq	sp, {}^	; <UNPREDICTABLE>
    1168:	085b0000 	ldmdaeq	fp, {}^	; <UNPREDICTABLE>
    116c:	8e240000 	cdphi	0, 2, cr0, cr4, cr0, {0}
    1170:	a0000023 	andge	r0, r0, r3, lsr #32
    1174:	04000085 	streq	r0, [r0], #-133	; 0xffffff7b
    1178:	1d000000 	stcne	0, cr0, [r0, #-0]
    117c:	0000238f 	andeq	r2, r0, pc, lsl #7
    1180:	00000872 	andeq	r0, r0, r2, ror r8
    1184:	00000870 	andeq	r0, r0, r0, ror r8
    1188:	00000000 	andeq	r0, r0, r0
    118c:	27000000 	strcs	r0, [r0, -r0]
    1190:	000021ef 	andeq	r2, r0, pc, ror #3
    1194:	00000740 	andeq	r0, r0, r0, asr #14
    1198:	f305e602 	vmax.u8	d14, d5, d2
    119c:	1e000010 	mcrne	0, 0, r0, cr0, cr0, {0}
    11a0:	00002208 	andeq	r2, r0, r8, lsl #4
    11a4:	0021fc1e 	eoreq	pc, r1, lr, lsl ip	; <UNPREDICTABLE>
    11a8:	22122000 	andscs	r2, r2, #0, 0
    11ac:	07400000 	strbeq	r0, [r0, -r0]
    11b0:	131d0000 	tstne	sp, #0, 0
    11b4:	89000022 	stmdbhi	r0, {r1, r5}
    11b8:	85000008 	strhi	r0, [r0, #-8]
    11bc:	1a000008 	bne	11e4 <__code_start__-0x6e1c>
    11c0:	0000221f 	andeq	r2, r0, pc, lsl r2
    11c4:	00008468 	andeq	r8, r0, r8, ror #8
    11c8:	07780002 	ldrbeq	r0, [r8, -r2]!
    11cc:	db020000 	blle	811d4 <__bss_end__+0x76c54>
    11d0:	22381b09 	eorscs	r1, r8, #9216	; 0x2400
    11d4:	08ab0000 	stmiaeq	fp!, {}	; <UNPREDICTABLE>
    11d8:	08a70000 	stmiaeq	r7!, {}	; <UNPREDICTABLE>
    11dc:	2c1e0000 	ldccs	0, cr0, [lr], {-0}
    11e0:	1f000022 	svcne	0x00000022
    11e4:	000022ab 	andeq	r2, r0, fp, lsr #5
    11e8:	00008540 	andeq	r8, r0, r0, asr #10
    11ec:	07c00002 	strbeq	r0, [r0, r2]
    11f0:	cf020000 	svcgt	0x00020000
    11f4:	000e7809 	andeq	r7, lr, r9, lsl #16
    11f8:	22b81e00 	adcscs	r1, r8, #0, 28
    11fc:	1f1a0000 	svcne	0x001a0000
    1200:	40000023 	andmi	r0, r0, r3, lsr #32
    1204:	04000085 	streq	r0, [r0], #-133	; 0xffffff7b
    1208:	0007e000 	andeq	lr, r7, r0
    120c:	05b10200 	ldreq	r0, [r1, #512]!	; 0x200
    1210:	0023381b 	eoreq	r3, r3, fp, lsl r8
    1214:	0008d900 	andeq	sp, r8, r0, lsl #18
    1218:	0008d700 	andeq	sp, r8, r0, lsl #14
    121c:	232c1e00 			; <UNDEFINED> instruction: 0x232c1e00
    1220:	e0210000 	eor	r0, r1, r0
    1224:	1d000007 	stcne	0, cr0, [r0, #-28]	; 0xffffffe4
    1228:	00002344 	andeq	r2, r0, r4, asr #6
    122c:	000008f0 	strdeq	r0, [r0], -r0	; <UNPREDICTABLE>
    1230:	000008ee 	andeq	r0, r0, lr, ror #17
    1234:	0023b71f 	eoreq	fp, r3, pc, lsl r7
    1238:	00854400 	addeq	r4, r5, r0, lsl #8
    123c:	f8000300 			; <UNDEFINED> instruction: 0xf8000300
    1240:	02000007 	andeq	r0, r0, #7, 0
    1244:	0e13059e 	cfcmp32eq	r0, mvfx3, mvfx14
    1248:	c41e0000 	ldrgt	r0, [lr], #-0
    124c:	00000023 	andeq	r0, r0, r3, lsr #32
    1250:	00235022 	eoreq	r5, r3, r2, lsr #32
    1254:	00854000 	addeq	r4, r5, r0
    1258:	00000400 	andeq	r0, r0, r0, lsl #8
    125c:	000e3200 	andeq	r3, lr, r0, lsl #4
    1260:	23511d00 	cmpcs	r1, #0, 26
    1264:	09050000 	stmdbeq	r5, {}	; <UNPREDICTABLE>
    1268:	09030000 	stmdbeq	r3, {}	; <UNPREDICTABLE>
    126c:	23000000 	movwcs	r0, #0
    1270:	0000235f 	andeq	r2, r0, pc, asr r3
    1274:	00008548 	andeq	r8, r0, r8, asr #10
    1278:	00000010 	andeq	r0, r0, r0, lsl r0
    127c:	1e059f02 	cdpne	15, 0, cr9, cr5, cr2, {0}
    1280:	00002378 	andeq	r2, r0, r8, ror r3
    1284:	00236c1e 	eoreq	r6, r3, lr, lsl ip
    1288:	23841d00 	orrcs	r1, r4, #0, 26
    128c:	091a0000 	ldmdbeq	sl, {}	; <UNPREDICTABLE>
    1290:	09180000 	ldmdbeq	r8, {}	; <UNPREDICTABLE>
    1294:	8e240000 	cdphi	0, 2, cr0, cr4, cr0, {0}
    1298:	48000023 	stmdami	r0, {r0, r1, r5}
    129c:	04000085 	streq	r0, [r0], #-133	; 0xffffff7b
    12a0:	1d000000 	stcne	0, cr0, [r0, #-0]
    12a4:	0000238f 	andeq	r2, r0, pc, lsl #7
    12a8:	0000092f 	andeq	r0, r0, pc, lsr #18
    12ac:	0000092d 	andeq	r0, r0, sp, lsr #18
    12b0:	00000000 	andeq	r0, r0, r0
    12b4:	22c51f00 	sbccs	r1, r5, #0, 30
    12b8:	84740000 	ldrbthi	r0, [r4], #-0
    12bc:	00010000 	andeq	r0, r1, r0
    12c0:	00000810 	andeq	r0, r0, r0, lsl r8
    12c4:	4c09cc02 	stcmi	12, cr12, [r9], {2}
    12c8:	1e00000f 	cdpne	0, 0, cr0, cr0, cr15, {0}
    12cc:	000022d2 	ldrdeq	r2, [r0], -r2	; <UNPREDICTABLE>
    12d0:	00231f25 	eoreq	r1, r3, r5, lsr #30
    12d4:	00847400 	addeq	r7, r4, r0, lsl #8
    12d8:	74000300 	strvc	r0, [r0], #-768	; 0xfffffd00
    12dc:	18000084 	stmdane	r0, {r2, r7}
    12e0:	02000000 	andeq	r0, r0, #0, 0
    12e4:	381b05ac 	ldmdacc	fp, {r2, r3, r5, r7, r8, sl}
    12e8:	44000023 	strmi	r0, [r0], #-35	; 0xffffffdd
    12ec:	42000009 	andmi	r0, r0, #9, 0
    12f0:	1e000009 	cdpne	0, 0, cr0, cr0, cr9, {0}
    12f4:	0000232c 	andeq	r2, r0, ip, lsr #6
    12f8:	0023441d 	eoreq	r4, r3, sp, lsl r4
    12fc:	00095c00 	andeq	r5, r9, r0, lsl #24
    1300:	00095a00 	andeq	r5, r9, r0, lsl #20
    1304:	23502200 	cmpcs	r0, #0, 4
    1308:	84740000 	ldrbthi	r0, [r4], #-0
    130c:	00040000 	andeq	r0, r4, r0
    1310:	0ee70000 	cdpeq	0, 14, cr0, cr7, cr0, {0}
    1314:	511d0000 	tstpl	sp, r0
    1318:	71000023 	tstvc	r0, r3, lsr #32
    131c:	6f000009 	svcvs	0x00000009
    1320:	00000009 	andeq	r0, r0, r9
    1324:	0023b726 	eoreq	fp, r3, r6, lsr #14
    1328:	00847800 	addeq	r7, r4, r0, lsl #16
    132c:	78000300 	stmdavc	r0, {r8, r9}
    1330:	04000084 	streq	r0, [r0], #-132	; 0xffffff7c
    1334:	02000000 	andeq	r0, r0, #0, 0
    1338:	0f07059e 	svceq	0x0007059e
    133c:	c41e0000 	ldrgt	r0, [lr], #-0
    1340:	00000023 	andeq	r0, r0, r3, lsr #32
    1344:	00235f23 	eoreq	r5, r3, r3, lsr #30
    1348:	00847c00 	addeq	r7, r4, r0, lsl #24
    134c:	00001000 	andeq	r1, r0, r0
    1350:	059f0200 	ldreq	r0, [pc, #512]	; 1558 <__code_start__-0x6aa8>
    1354:	0023781e 	eoreq	r7, r3, lr, lsl r8
    1358:	236c1e00 	cmncs	ip, #0, 28
    135c:	841d0000 	ldrhi	r0, [sp], #-0
    1360:	86000023 	strhi	r0, [r0], -r3, lsr #32
    1364:	84000009 	strhi	r0, [r0], #-9
    1368:	24000009 	strcs	r0, [r0], #-9
    136c:	0000238e 	andeq	r2, r0, lr, lsl #7
    1370:	0000847c 	andeq	r8, r0, ip, ror r4
    1374:	00000004 	andeq	r0, r0, r4
    1378:	00238f1d 	eoreq	r8, r3, sp, lsl pc
    137c:	00099b00 	andeq	r9, r9, r0, lsl #22
    1380:	00099900 	andeq	r9, r9, r0, lsl #18
    1384:	00000000 	andeq	r0, r0, r0
    1388:	22911f00 	addscs	r1, r1, #0, 30
    138c:	848c0000 	strhi	r0, [ip], #0
    1390:	00020000 	andeq	r0, r2, r0
    1394:	00000828 	andeq	r0, r0, r8, lsr #16
    1398:	2009cd02 	andcs	ip, r9, r2, lsl #26
    139c:	1e000010 	mcrne	0, 0, r0, cr0, cr0, {0}
    13a0:	0000229e 	muleq	r0, lr, r2
    13a4:	0022df25 	eoreq	sp, r2, r5, lsr #30
    13a8:	00848c00 	addeq	r8, r4, r0, lsl #24
    13ac:	8c000400 	cfstrshi	mvf0, [r0], {-0}
    13b0:	18000084 	stmdane	r0, {r2, r7}
    13b4:	02000000 	andeq	r0, r0, #0, 0
    13b8:	f81b05b5 			; <UNDEFINED> instruction: 0xf81b05b5
    13bc:	b0000022 	andlt	r0, r0, r2, lsr #32
    13c0:	ae000009 	cdpge	0, 0, cr0, cr0, cr9, {0}
    13c4:	1e000009 	cdpne	0, 0, cr0, cr0, cr9, {0}
    13c8:	000022ec 	andeq	r2, r0, ip, ror #5
    13cc:	0023041d 	eoreq	r0, r3, sp, lsl r4
    13d0:	0009c700 	andeq	ip, r9, r0, lsl #14
    13d4:	0009c500 	andeq	ip, r9, r0, lsl #10
    13d8:	23102200 	tstcs	r0, #0, 4
    13dc:	848c0000 	strhi	r0, [ip], #0
    13e0:	00040000 	andeq	r0, r4, r0
    13e4:	0fbb0000 	svceq	0x00bb0000
    13e8:	111d0000 	tstne	sp, r0
    13ec:	dc000023 	stcle	0, cr0, [r0], {35}	; 0x23
    13f0:	da000009 	ble	141c <__code_start__-0x6be4>
    13f4:	00000009 	andeq	r0, r0, r9
    13f8:	00239d26 	eoreq	r9, r3, r6, lsr #26
    13fc:	00849000 	addeq	r9, r4, r0
    1400:	90000300 	andls	r0, r0, r0, lsl #6
    1404:	04000084 	streq	r0, [r0], #-132	; 0xffffff7c
    1408:	02000000 	andeq	r0, r0, #0, 0
    140c:	0fdb05a6 	svceq	0x00db05a6
    1410:	aa1e0000 	bge	781418 <__bss_end__+0x776e98>
    1414:	00000023 	andeq	r0, r0, r3, lsr #32
    1418:	00235f23 	eoreq	r5, r3, r3, lsr #30
    141c:	00849400 	addeq	r9, r4, r0, lsl #8
    1420:	00001000 	andeq	r1, r0, r0
    1424:	05a70200 	streq	r0, [r7, #512]!	; 0x200
    1428:	0023781e 	eoreq	r7, r3, lr, lsl r8
    142c:	236c1e00 	cmncs	ip, #0, 28
    1430:	841d0000 	ldrhi	r0, [sp], #-0
    1434:	f1000023 			; <UNDEFINED> instruction: 0xf1000023
    1438:	ef000009 	svc	0x00000009
    143c:	24000009 	strcs	r0, [r0], #-9
    1440:	0000238e 	andeq	r2, r0, lr, lsl #7
    1444:	00008494 	muleq	r0, r4, r4
    1448:	00000004 	andeq	r0, r0, r4
    144c:	00238f1d 	eoreq	r8, r3, sp, lsl pc
    1450:	000a0600 	andeq	r0, sl, r0, lsl #12
    1454:	000a0400 	andeq	r0, sl, r0, lsl #8
    1458:	00000000 	andeq	r0, r0, r0
    145c:	22771a00 	rsbscs	r1, r7, #0, 20
    1460:	85580000 	ldrbhi	r0, [r8, #-0]
    1464:	00020000 	andeq	r0, r2, r0
    1468:	00000840 	andeq	r0, r0, r0, asr #16
    146c:	1e09d002 	cdpne	0, 0, cr13, cr9, cr2, {0}
    1470:	00002284 	andeq	r2, r0, r4, lsl #5
    1474:	0022df25 	eoreq	sp, r2, r5, lsr #30
    1478:	00855800 	addeq	r5, r5, r0, lsl #16
    147c:	58000400 	stmdapl	r0, {sl}
    1480:	18000085 	stmdane	r0, {r0, r2, r7}
    1484:	02000000 	andeq	r0, r0, #0, 0
    1488:	f81b05b9 			; <UNDEFINED> instruction: 0xf81b05b9
    148c:	1b000022 	blne	151c <__code_start__-0x6ae4>
    1490:	1900000a 	stmdbne	r0, {r1, r3}
    1494:	1e00000a 	cdpne	0, 0, cr0, cr0, cr10, {0}
    1498:	000022ec 	andeq	r2, r0, ip, ror #5
    149c:	0023041d 	eoreq	r0, r3, sp, lsl r4
    14a0:	000a3300 	andeq	r3, sl, r0, lsl #6
    14a4:	000a3100 	andeq	r3, sl, r0, lsl #2
    14a8:	23102200 	tstcs	r0, #0, 4
    14ac:	85580000 	ldrbhi	r0, [r8, #-0]
    14b0:	00040000 	andeq	r0, r4, r0
    14b4:	108b0000 	addne	r0, fp, r0
    14b8:	111d0000 	tstne	sp, r0
    14bc:	48000023 	stmdami	r0, {r0, r1, r5}
    14c0:	4600000a 	strmi	r0, [r0], -sl
    14c4:	0000000a 	andeq	r0, r0, sl
    14c8:	00239d26 	eoreq	r9, r3, r6, lsr #26
    14cc:	00855c00 	addeq	r5, r5, r0, lsl #24
    14d0:	5c000300 	stcpl	3, cr0, [r0], {-0}
    14d4:	04000085 	streq	r0, [r0], #-133	; 0xffffff7b
    14d8:	02000000 	andeq	r0, r0, #0, 0
    14dc:	10ab05a6 	adcne	r0, fp, r6, lsr #11
    14e0:	aa1e0000 	bge	7814e8 <__bss_end__+0x776f68>
    14e4:	00000023 	andeq	r0, r0, r3, lsr #32
    14e8:	00235f23 	eoreq	r5, r3, r3, lsr #30
    14ec:	00856000 	addeq	r6, r5, r0
    14f0:	00001000 	andeq	r1, r0, r0
    14f4:	05a70200 	streq	r0, [r7, #512]!	; 0x200
    14f8:	0023781e 	eoreq	r7, r3, lr, lsl r8
    14fc:	236c1e00 	cmncs	ip, #0, 28
    1500:	841d0000 	ldrhi	r0, [sp], #-0
    1504:	5d000023 	stcpl	0, cr0, [r0, #-140]	; 0xffffff74
    1508:	5b00000a 	blpl	1538 <__code_start__-0x6ac8>
    150c:	2400000a 	strcs	r0, [r0], #-10
    1510:	0000238e 	andeq	r2, r0, lr, lsl #7
    1514:	00008560 	andeq	r8, r0, r0, ror #10
    1518:	00000004 	andeq	r0, r0, r4
    151c:	00238f1d 	eoreq	r8, r3, sp, lsl pc
    1520:	000a7200 	andeq	r7, sl, r0, lsl #4
    1524:	000a7000 	andeq	r7, sl, r0
	...
    1530:	0021ef29 	eoreq	lr, r1, r9, lsr #30
    1534:	00085800 	andeq	r5, r8, r0, lsl #16
    1538:	05e70200 	strbeq	r0, [r7, #512]!	; 0x200
    153c:	0022081e 	eoreq	r0, r2, lr, lsl r8
    1540:	21fc1e00 	mvnscs	r1, r0, lsl #28
    1544:	12200000 	eorne	r0, r0, #0, 0
    1548:	58000022 	stmdapl	r0, {r1, r5}
    154c:	1d000008 	stcne	0, cr0, [r0, #-32]	; 0xffffffe0
    1550:	00002213 	andeq	r2, r0, r3, lsl r2
    1554:	00000a87 	andeq	r0, r0, r7, lsl #21
    1558:	00000a85 	andeq	r0, r0, r5, lsl #21
    155c:	00221f1a 	eoreq	r1, r2, sl, lsl pc
    1560:	0084b400 	addeq	fp, r4, r0, lsl #8
    1564:	88000100 	stmdahi	r0, {r8}
    1568:	02000008 	andeq	r0, r0, #8, 0
    156c:	381b09db 	ldmdacc	fp, {r0, r1, r3, r4, r6, r7, r8, fp}
    1570:	9e000022 	cdpls	0, 0, cr0, cr0, cr2, {1}
    1574:	9a00000a 	bls	15a4 <__code_start__-0x6a5c>
    1578:	1e00000a 	cdpne	0, 0, cr0, cr0, cr10, {0}
    157c:	0000222c 	andeq	r2, r0, ip, lsr #4
    1580:	0022ab1f 	eoreq	sl, r2, pc, lsl fp
    1584:	00850c00 	addeq	r0, r5, r0, lsl #24
    1588:	d0000100 	andle	r0, r0, r0, lsl #2
    158c:	02000008 	andeq	r0, r0, #8, 0
    1590:	121509cf 	andsne	r0, r5, #3391488	; 0x33c000
    1594:	b81e0000 	ldmdalt	lr, {}	; <UNPREDICTABLE>
    1598:	1a000022 	bne	1628 <__code_start__-0x69d8>
    159c:	0000231f 	andeq	r2, r0, pc, lsl r3
    15a0:	0000850c 	andeq	r8, r0, ip, lsl #10
    15a4:	08f00003 	ldmeq	r0!, {r0, r1}^
    15a8:	b1020000 	mrslt	r0, (UNDEF: 2)
    15ac:	23381b05 	teqcs	r8, #5120	; 0x1400
    15b0:	0acc0000 	beq	ff3015b8 <__bss_end__+0xff2f7038>
    15b4:	0aca0000 	beq	ff2815bc <__bss_end__+0xff27703c>
    15b8:	2c1e0000 	ldccs	0, cr0, [lr], {-0}
    15bc:	21000023 	tstcs	r0, r3, lsr #32
    15c0:	000008f0 	strdeq	r0, [r0], -r0	; <UNPREDICTABLE>
    15c4:	0023441d 	eoreq	r4, r3, sp, lsl r4
    15c8:	000ae300 	andeq	lr, sl, r0, lsl #6
    15cc:	000ae100 	andeq	lr, sl, r0, lsl #2
    15d0:	23b71f00 			; <UNDEFINED> instruction: 0x23b71f00
    15d4:	85100000 	ldrhi	r0, [r0, #-0]
    15d8:	00030000 	andeq	r0, r3, r0
    15dc:	00000908 	andeq	r0, r0, r8, lsl #18
    15e0:	b0059e02 	andlt	r9, r5, r2, lsl #28
    15e4:	1e000011 	mcrne	0, 0, r0, cr0, cr1, {0}
    15e8:	000023c4 	andeq	r2, r0, r4, asr #7
    15ec:	23502200 	cmpcs	r0, #0, 4
    15f0:	850c0000 	strhi	r0, [ip, #-0]
    15f4:	00040000 	andeq	r0, r4, r0
    15f8:	11cf0000 	bicne	r0, pc, r0
    15fc:	511d0000 	tstpl	sp, r0
    1600:	f8000023 			; <UNDEFINED> instruction: 0xf8000023
    1604:	f600000a 			; <UNDEFINED> instruction: 0xf600000a
    1608:	0000000a 	andeq	r0, r0, sl
    160c:	00235f23 	eoreq	r5, r3, r3, lsr #30
    1610:	00851400 	addeq	r1, r5, r0, lsl #8
    1614:	00001000 	andeq	r1, r0, r0
    1618:	059f0200 	ldreq	r0, [pc, #512]	; 1820 <__code_start__-0x67e0>
    161c:	0023781e 	eoreq	r7, r3, lr, lsl r8
    1620:	236c1e00 	cmncs	ip, #0, 28
    1624:	841d0000 	ldrhi	r0, [sp], #-0
    1628:	0d000023 	stceq	0, cr0, [r0, #-140]	; 0xffffff74
    162c:	0b00000b 	bleq	1660 <__code_start__-0x69a0>
    1630:	2400000b 	strcs	r0, [r0], #-11
    1634:	0000238e 	andeq	r2, r0, lr, lsl #7
    1638:	00008514 	andeq	r8, r0, r4, lsl r5
    163c:	00000004 	andeq	r0, r0, r4
    1640:	00238f1d 	eoreq	r8, r3, sp, lsl pc
    1644:	000b2200 	andeq	r2, fp, r0, lsl #4
    1648:	000b2000 	andeq	r2, fp, r0
    164c:	00000000 	andeq	r0, r0, r0
    1650:	c51f0000 	ldrgt	r0, [pc, #-0]	; 1658 <__code_start__-0x69a8>
    1654:	c4000022 	strgt	r0, [r0], #-34	; 0xffffffde
    1658:	01000084 	smlabbeq	r0, r4, r0, r0
    165c:	00092000 	andeq	r2, r9, r0
    1660:	09cc0200 	stmibeq	ip, {r9}^
    1664:	000012e9 	andeq	r1, r0, r9, ror #5
    1668:	0022d21e 	eoreq	sp, r2, lr, lsl r2
    166c:	231f2500 	tstcs	pc, #0, 10
    1670:	84c40000 	strbhi	r0, [r4], #0
    1674:	00030000 	andeq	r0, r3, r0
    1678:	000084c4 	andeq	r8, r0, r4, asr #9
    167c:	00000018 	andeq	r0, r0, r8, lsl r0
    1680:	1b05ac02 	blne	16c690 <__bss_end__+0x162110>
    1684:	00002338 	andeq	r2, r0, r8, lsr r3
    1688:	00000b37 	andeq	r0, r0, r7, lsr fp
    168c:	00000b35 	andeq	r0, r0, r5, lsr fp
    1690:	00232c1e 	eoreq	r2, r3, lr, lsl ip
    1694:	23441d00 	movtcs	r1, #19712	; 0x4d00
    1698:	0b4f0000 	bleq	13c16a0 <__bss_end__+0x13b7120>
    169c:	0b4d0000 	bleq	13416a4 <__bss_end__+0x1337124>
    16a0:	50220000 	eorpl	r0, r2, r0
    16a4:	c4000023 	strgt	r0, [r0], #-35	; 0xffffffdd
    16a8:	04000084 	streq	r0, [r0], #-132	; 0xffffff7c
    16ac:	84000000 	strhi	r0, [r0], #-0
    16b0:	1d000012 	stcne	0, cr0, [r0, #-72]	; 0xffffffb8
    16b4:	00002351 	andeq	r2, r0, r1, asr r3
    16b8:	00000b64 	andeq	r0, r0, r4, ror #22
    16bc:	00000b62 	andeq	r0, r0, r2, ror #22
    16c0:	23b72600 			; <UNDEFINED> instruction: 0x23b72600
    16c4:	84c80000 	strbhi	r0, [r8], #0
    16c8:	00030000 	andeq	r0, r3, r0
    16cc:	000084c8 	andeq	r8, r0, r8, asr #9
    16d0:	00000004 	andeq	r0, r0, r4
    16d4:	a4059e02 	strge	r9, [r5], #-3586	; 0xfffff1fe
    16d8:	1e000012 	mcrne	0, 0, r0, cr0, cr2, {0}
    16dc:	000023c4 	andeq	r2, r0, r4, asr #7
    16e0:	235f2300 	cmpcs	pc, #0, 6
    16e4:	84cc0000 	strbhi	r0, [ip], #0
    16e8:	00100000 	andseq	r0, r0, r0
    16ec:	9f020000 	svcls	0x00020000
    16f0:	23781e05 	cmncs	r8, #80	; 0x50
    16f4:	6c1e0000 	ldcvs	0, cr0, [lr], {-0}
    16f8:	1d000023 	stcne	0, cr0, [r0, #-140]	; 0xffffff74
    16fc:	00002384 	andeq	r2, r0, r4, lsl #7
    1700:	00000b79 	andeq	r0, r0, r9, ror fp
    1704:	00000b77 	andeq	r0, r0, r7, ror fp
    1708:	00238e24 	eoreq	r8, r3, r4, lsr #28
    170c:	0084cc00 	addeq	ip, r4, r0, lsl #24
    1710:	00000400 	andeq	r0, r0, r0, lsl #8
    1714:	238f1d00 	orrcs	r1, pc, #0, 26
    1718:	0b8e0000 	bleq	fe381720 <__bss_end__+0xfe3771a0>
    171c:	0b8c0000 	bleq	fe301724 <__bss_end__+0xfe2f71a4>
    1720:	00000000 	andeq	r0, r0, r0
    1724:	911f0000 	tstls	pc, r0
    1728:	dc000022 	stcle	0, cr0, [r0], {34}	; 0x22
    172c:	02000084 	andeq	r0, r0, #132, 0	; 0x84
    1730:	00093800 	andeq	r3, r9, r0, lsl #16
    1734:	09cd0200 	stmibeq	sp, {r9}^
    1738:	000013bd 			; <UNDEFINED> instruction: 0x000013bd
    173c:	00229e1e 	eoreq	r9, r2, lr, lsl lr
    1740:	22df2500 	sbcscs	r2, pc, #0, 10
    1744:	84dc0000 	ldrbhi	r0, [ip], #0
    1748:	00040000 	andeq	r0, r4, r0
    174c:	000084dc 	ldrdeq	r8, [r0], -ip
    1750:	00000018 	andeq	r0, r0, r8, lsl r0
    1754:	1b05b502 	blne	16eb64 <__bss_end__+0x1645e4>
    1758:	000022f8 	strdeq	r2, [r0], -r8
    175c:	00000ba3 	andeq	r0, r0, r3, lsr #23
    1760:	00000ba1 	andeq	r0, r0, r1, lsr #23
    1764:	0022ec1e 	eoreq	lr, r2, lr, lsl ip
    1768:	23041d00 	movwcs	r1, #19712	; 0x4d00
    176c:	0bba0000 	bleq	fee81774 <__bss_end__+0xfee771f4>
    1770:	0bb80000 	bleq	fee01778 <__bss_end__+0xfedf71f8>
    1774:	10220000 	eorne	r0, r2, r0
    1778:	dc000023 	stcle	0, cr0, [r0], {35}	; 0x23
    177c:	04000084 	streq	r0, [r0], #-132	; 0xffffff7c
    1780:	58000000 	stmdapl	r0, {}	; <UNPREDICTABLE>
    1784:	1d000013 	stcne	0, cr0, [r0, #-76]	; 0xffffffb4
    1788:	00002311 	andeq	r2, r0, r1, lsl r3
    178c:	00000bcf 	andeq	r0, r0, pc, asr #23
    1790:	00000bcd 	andeq	r0, r0, sp, asr #23
    1794:	239d2600 	orrscs	r2, sp, #0, 12
    1798:	84e00000 	strbthi	r0, [r0], #0
    179c:	00030000 	andeq	r0, r3, r0
    17a0:	000084e0 	andeq	r8, r0, r0, ror #9
    17a4:	00000004 	andeq	r0, r0, r4
    17a8:	7805a602 	stmdavc	r5, {r1, r9, sl, sp, pc}
    17ac:	1e000013 	mcrne	0, 0, r0, cr0, cr3, {0}
    17b0:	000023aa 	andeq	r2, r0, sl, lsr #7
    17b4:	235f2300 	cmpcs	pc, #0, 6
    17b8:	84e40000 	strbthi	r0, [r4], #0
    17bc:	00100000 	andseq	r0, r0, r0
    17c0:	a7020000 	strge	r0, [r2, -r0]
    17c4:	23781e05 	cmncs	r8, #80	; 0x50
    17c8:	6c1e0000 	ldcvs	0, cr0, [lr], {-0}
    17cc:	1d000023 	stcne	0, cr0, [r0, #-140]	; 0xffffff74
    17d0:	00002384 	andeq	r2, r0, r4, lsl #7
    17d4:	00000be4 	andeq	r0, r0, r4, ror #23
    17d8:	00000be2 	andeq	r0, r0, r2, ror #23
    17dc:	00238e24 	eoreq	r8, r3, r4, lsr #28
    17e0:	0084e400 	addeq	lr, r4, r0, lsl #8
    17e4:	00000400 	andeq	r0, r0, r0, lsl #8
    17e8:	238f1d00 	orrcs	r1, pc, #0, 26
    17ec:	0bf90000 	bleq	ffe417f4 <__bss_end__+0xffe37274>
    17f0:	0bf70000 	bleq	ffdc17f8 <__bss_end__+0xffdb7278>
    17f4:	00000000 	andeq	r0, r0, r0
    17f8:	771a0000 	ldrvc	r0, [sl, -r0]
    17fc:	24000022 	strcs	r0, [r0], #-34	; 0xffffffde
    1800:	02000085 	andeq	r0, r0, #133, 0	; 0x85
    1804:	00095000 	andeq	r5, r9, r0
    1808:	09d00200 	ldmibeq	r0, {r9}^
    180c:	0022841e 	eoreq	r8, r2, lr, lsl r4
    1810:	22df2500 	sbcscs	r2, pc, #0, 10
    1814:	85240000 	strhi	r0, [r4, #-0]!
    1818:	00040000 	andeq	r0, r4, r0
    181c:	00008524 	andeq	r8, r0, r4, lsr #10
    1820:	0000001c 	andeq	r0, r0, ip, lsl r0
    1824:	1b05b902 	blne	16fc34 <__bss_end__+0x1656b4>
    1828:	000022f8 	strdeq	r2, [r0], -r8
    182c:	00000c0e 	andeq	r0, r0, lr, lsl #24
    1830:	00000c0c 	andeq	r0, r0, ip, lsl #24
    1834:	0022ec1e 	eoreq	lr, r2, lr, lsl ip
    1838:	23041d00 	movwcs	r1, #19712	; 0x4d00
    183c:	0c260000 	stceq	0, cr0, [r6], #-0
    1840:	0c240000 	stceq	0, cr0, [r4], #-0
    1844:	10220000 	eorne	r0, r2, r0
    1848:	24000023 	strcs	r0, [r0], #-35	; 0xffffffdd
    184c:	04000085 	streq	r0, [r0], #-133	; 0xffffff7b
    1850:	28000000 	stmdacs	r0, {}	; <UNPREDICTABLE>
    1854:	1d000014 	stcne	0, cr0, [r0, #-80]	; 0xffffffb0
    1858:	00002311 	andeq	r2, r0, r1, lsl r3
    185c:	00000c3b 	andeq	r0, r0, fp, lsr ip
    1860:	00000c39 	andeq	r0, r0, r9, lsr ip
    1864:	239d2600 	orrscs	r2, sp, #0, 12
    1868:	85280000 	strhi	r0, [r8, #-0]!
    186c:	00030000 	andeq	r0, r3, r0
    1870:	00008528 	andeq	r8, r0, r8, lsr #10
    1874:	00000004 	andeq	r0, r0, r4
    1878:	4805a602 	stmdami	r5, {r1, r9, sl, sp, pc}
    187c:	1e000014 	mcrne	0, 0, r0, cr0, cr4, {0}
    1880:	000023aa 	andeq	r2, r0, sl, lsr #7
    1884:	235f2300 	cmpcs	pc, #0, 6
    1888:	852c0000 	strhi	r0, [ip, #-0]!
    188c:	00140000 	andseq	r0, r4, r0
    1890:	a7020000 	strge	r0, [r2, -r0]
    1894:	23781e05 	cmncs	r8, #80	; 0x50
    1898:	6c1e0000 	ldcvs	0, cr0, [lr], {-0}
    189c:	1d000023 	stcne	0, cr0, [r0, #-140]	; 0xffffff74
    18a0:	00002384 	andeq	r2, r0, r4, lsl #7
    18a4:	00000c50 	andeq	r0, r0, r0, asr ip
    18a8:	00000c4e 	andeq	r0, r0, lr, asr #24
    18ac:	00238e24 	eoreq	r8, r3, r4, lsr #28
    18b0:	00852c00 	addeq	r2, r5, r0, lsl #24
    18b4:	00000400 	andeq	r0, r0, r0, lsl #8
    18b8:	238f1d00 	orrcs	r1, pc, #0, 26
    18bc:	0c650000 	stcleq	0, cr0, [r5], #-0
    18c0:	0c630000 	stcleq	0, cr0, [r3], #-0
	...
    18cc:	2f000000 	svccs	0x00000000
    18d0:	00000051 	andeq	r0, r0, r1, asr r0
    18d4:	e1072a01 	tst	r7, r1, lsl #20
    18d8:	b0000000 	andlt	r0, r0, r0
    18dc:	44000083 	strmi	r0, [r0], #-131	; 0xffffff7d
    18e0:	01000000 	mrseq	r0, (UNDEF: 0)
    18e4:	00153e9c 	mulseq	r5, ip, lr
    18e8:	69701900 	ldmdbvs	r0!, {r8, fp, ip}^
    18ec:	2a01006e 	bcs	41aac <__bss_end__+0x3752c>
    18f0:	0000591b 	andeq	r5, r0, fp, lsl r9
    18f4:	000c7c00 	andeq	r7, ip, r0, lsl #24
    18f8:	000c7800 	andeq	r7, ip, r0, lsl #16
    18fc:	028d3000 	addeq	r3, sp, #0, 0
    1900:	2a010000 	bcs	41908 <__bss_end__+0x37388>
    1904:	00002c29 	andeq	r2, r0, r9, lsr #24
    1908:	000ca100 	andeq	sl, ip, r0, lsl #2
    190c:	000c9d00 	andeq	r9, ip, r0, lsl #26
    1910:	00683100 	rsbeq	r3, r8, r0, lsl #2
    1914:	e10b2b01 	tst	fp, r1, lsl #22
    1918:	c3000000 	movwgt	r0, #0
    191c:	bf00000c 	svclt	0x0000000c
    1920:	3200000c 	andcc	r0, r0, #12, 0
    1924:	000009f0 	strdeq	r0, [r0], -r0	; <UNPREDICTABLE>
    1928:	2c0e2c01 	stccs	12, cr2, [lr], {1}
    192c:	e3000000 	movw	r0, #0
    1930:	e100000c 	tst	r0, ip
    1934:	3300000c 	movwcc	r0, #12
    1938:	000083cc 	andeq	r8, r0, ip, asr #7
    193c:	00002a54 	andeq	r2, r0, r4, asr sl
    1940:	0000150e 	andeq	r1, r0, lr, lsl #10
    1944:	02500134 	subseq	r0, r0, #13
    1948:	33000077 	movwcc	r0, #119	; 0x77
    194c:	000083dc 	ldrdeq	r8, [r0], -ip
    1950:	00002a60 	andeq	r2, r0, r0, ror #20
    1954:	0000152d 	andeq	r1, r0, sp, lsr #10
    1958:	02500134 	subseq	r0, r0, #13
    195c:	01340074 	teqeq	r4, r4, ror r0
    1960:	34300151 	ldrtcc	r0, [r0], #-337	; 0xfffffeaf
    1964:	77025201 	strvc	r5, [r2, -r1, lsl #4]
    1968:	ec350000 	ldc	0, cr0, [r5], #-0
    196c:	6c000083 	stcvs	0, cr0, [r0], {131}	; 0x83
    1970:	3400002a 	strcc	r0, [r0], #-42	; 0xffffffd6
    1974:	76025001 	strvc	r5, [r2], -r1
    1978:	17000000 	strne	r0, [r0, -r0]
    197c:	000000b7 	strheq	r0, [r0], -r7
    1980:	90061e01 	andls	r1, r6, r1, lsl #28
    1984:	20000081 	andcs	r0, r0, r1, lsl #1
    1988:	01000002 	tsteq	r0, r2
    198c:	0021b79c 	mlaeq	r1, ip, r7, fp
    1990:	00681900 	rsbeq	r1, r8, r0, lsl #18
    1994:	e1191e01 	tst	r9, r1, lsl #28
    1998:	fa000000 	blx	19a0 <__code_start__-0x6660>
    199c:	f600000c 			; <UNDEFINED> instruction: 0xf600000c
    19a0:	3600000c 	strcc	r0, [r0], -ip
    19a4:	000000e0 	andeq	r0, r0, r0, ror #1
    19a8:	000020b2 	strheq	r2, [r0], -r2	; <UNPREDICTABLE>
    19ac:	01006931 	tsteq	r0, r1, lsr r9
    19b0:	00250d21 	eoreq	r0, r5, r1, lsr #26
    19b4:	0d1d0000 	ldceq	0, cr0, [sp, #-0]
    19b8:	0d1b0000 	ldceq	0, cr0, [fp, #-0]
    19bc:	b71a0000 	ldrlt	r0, [sl, -r0]
    19c0:	e8000021 	stmda	r0, {r0, r5}
    19c4:	00000081 	andeq	r0, r0, r1, lsl #1
    19c8:	00016000 	andeq	r6, r1, r0
    19cc:	09220100 	stmdbeq	r2!, {r8}
    19d0:	0021e41b 	eoreq	lr, r1, fp, lsl r4
    19d4:	000d3500 	andeq	r3, sp, r0, lsl #10
    19d8:	000d3100 	andeq	r3, sp, r0, lsl #2
    19dc:	21da1b00 	bicscs	r1, sl, r0, lsl #22
    19e0:	0d590000 	ldcleq	0, cr0, [r9, #-0]
    19e4:	0d530000 	ldcleq	0, cr0, [r3, #-0]
    19e8:	d01b0000 	andsle	r0, fp, r0
    19ec:	87000021 	strhi	r0, [r0, -r1, lsr #32]
    19f0:	8300000d 	movwhi	r0, #13
    19f4:	1e00000d 	cdpne	0, 0, cr0, cr0, cr13, {0}
    19f8:	000021c4 	andeq	r2, r0, r4, asr #3
    19fc:	0021ef1f 	eoreq	lr, r1, pc, lsl pc
    1a00:	0081e800 	addeq	lr, r1, r0, lsl #16
    1a04:	f8000200 			; <UNDEFINED> instruction: 0xf8000200
    1a08:	02000001 	andeq	r0, r0, #1, 0
    1a0c:	196e05e5 	stmdbne	lr!, {r0, r2, r5, r6, r7, r8, sl}^
    1a10:	081b0000 	ldmdaeq	fp, {}	; <UNPREDICTABLE>
    1a14:	ab000022 	blge	1aa4 <__code_start__-0x655c>
    1a18:	a500000d 	strge	r0, [r0, #-13]
    1a1c:	1e00000d 	cdpne	0, 0, cr0, cr0, cr13, {0}
    1a20:	000021fc 	strdeq	r2, [r0], -ip
    1a24:	00221220 	eoreq	r1, r2, r0, lsr #4
    1a28:	00024800 	andeq	r4, r2, r0, lsl #16
    1a2c:	22131d00 	andscs	r1, r3, #0, 26
    1a30:	0ddb0000 	ldcleq	0, cr0, [fp]
    1a34:	0dd50000 	ldcleq	0, cr0, [r5]
    1a38:	1f1a0000 	svcne	0x001a0000
    1a3c:	ec000022 	stc	0, cr0, [r0], {34}	; 0x22
    1a40:	01000081 	smlabbeq	r0, r1, r0, r0
    1a44:	00029000 	andeq	r9, r2, r0
    1a48:	09db0200 	ldmibeq	fp, {r9}^
    1a4c:	0022381b 	eoreq	r3, r2, fp, lsl r8
    1a50:	000e0900 	andeq	r0, lr, r0, lsl #18
    1a54:	000e0500 	andeq	r0, lr, r0, lsl #10
    1a58:	222c1e00 	eorcs	r1, ip, #0, 28
    1a5c:	ab1f0000 	blge	7c1a64 <__bss_end__+0x7b74e4>
    1a60:	68000022 	stmdavs	r0, {r1, r5}
    1a64:	02000083 	andeq	r0, r0, #131, 0	; 0x83
    1a68:	0002d800 	andeq	sp, r2, r0, lsl #16
    1a6c:	09cf0200 	stmibeq	pc, {r9}^	; <UNPREDICTABLE>
    1a70:	000016f3 	strdeq	r1, [r0], -r3
    1a74:	0022b81e 	eoreq	fp, r2, lr, lsl r8
    1a78:	231f1a00 	tstcs	pc, #0, 20
    1a7c:	83680000 	cmnhi	r8, #0, 0
    1a80:	00040000 	andeq	r0, r4, r0
    1a84:	000002f8 	strdeq	r0, [r0], -r8
    1a88:	1b05b102 	blne	16de98 <__bss_end__+0x163918>
    1a8c:	00002338 	andeq	r2, r0, r8, lsr r3
    1a90:	00000e37 	andeq	r0, r0, r7, lsr lr
    1a94:	00000e35 	andeq	r0, r0, r5, lsr lr
    1a98:	00232c1e 	eoreq	r2, r3, lr, lsl ip
    1a9c:	02f82100 	rscseq	r2, r8, #0
    1aa0:	441d0000 	ldrmi	r0, [sp], #-0
    1aa4:	4e000023 	cdpmi	0, 0, cr0, cr0, cr3, {1}
    1aa8:	4c00000e 	stcmi	0, cr0, [r0], {14}
    1aac:	1f00000e 	svcne	0x0000000e
    1ab0:	000023b7 			; <UNDEFINED> instruction: 0x000023b7
    1ab4:	0000836c 	andeq	r8, r0, ip, ror #6
    1ab8:	03100003 	tsteq	r0, #3, 0
    1abc:	9e020000 	cdpls	0, 0, cr0, cr2, cr0, {0}
    1ac0:	00168e05 	andseq	r8, r6, r5, lsl #28
    1ac4:	23c41e00 	biccs	r1, r4, #0, 28
    1ac8:	22000000 	andcs	r0, r0, #0, 0
    1acc:	00002350 	andeq	r2, r0, r0, asr r3
    1ad0:	00008368 	andeq	r8, r0, r8, ror #6
    1ad4:	00000004 	andeq	r0, r0, r4
    1ad8:	000016ad 	andeq	r1, r0, sp, lsr #13
    1adc:	0023511d 	eoreq	r5, r3, sp, lsl r1
    1ae0:	000e6300 	andeq	r6, lr, r0, lsl #6
    1ae4:	000e6100 	andeq	r6, lr, r0, lsl #2
    1ae8:	5f230000 	svcpl	0x00230000
    1aec:	70000023 	andvc	r0, r0, r3, lsr #32
    1af0:	10000083 	andne	r0, r0, r3, lsl #1
    1af4:	02000000 	andeq	r0, r0, #0, 0
    1af8:	781e059f 	ldmdavc	lr, {r0, r1, r2, r3, r4, r7, r8, sl}
    1afc:	1e000023 	cdpne	0, 0, cr0, cr0, cr3, {1}
    1b00:	0000236c 	andeq	r2, r0, ip, ror #6
    1b04:	0023841d 	eoreq	r8, r3, sp, lsl r4
    1b08:	000e7800 	andeq	r7, lr, r0, lsl #16
    1b0c:	000e7600 	andeq	r7, lr, r0, lsl #12
    1b10:	238e2400 	orrcs	r2, lr, #0, 8
    1b14:	83700000 	cmnhi	r0, #0, 0
    1b18:	00040000 	andeq	r0, r4, r0
    1b1c:	8f1d0000 	svchi	0x001d0000
    1b20:	8d000023 	stchi	0, cr0, [r0, #-140]	; 0xffffff74
    1b24:	8b00000e 	blhi	1b64 <__code_start__-0x649c>
    1b28:	0000000e 	andeq	r0, r0, lr
    1b2c:	00000000 	andeq	r0, r0, r0
    1b30:	0022c51f 	eoreq	ip, r2, pc, lsl r5
    1b34:	0081f800 	addeq	pc, r1, r0, lsl #16
    1b38:	28000100 	stmdacs	r0, {r8}
    1b3c:	02000003 	andeq	r0, r0, #3, 0
    1b40:	17c709cc 	strbne	r0, [r7, ip, asr #19]
    1b44:	d21e0000 	andsle	r0, lr, #0, 0
    1b48:	25000022 	strcs	r0, [r0, #-34]	; 0xffffffde
    1b4c:	0000231f 	andeq	r2, r0, pc, lsl r3
    1b50:	000081f8 	strdeq	r8, [r0], -r8	; <UNPREDICTABLE>
    1b54:	81f80003 	mvnshi	r0, r3
    1b58:	00180000 	andseq	r0, r8, r0
    1b5c:	ac020000 	stcge	0, cr0, [r2], {-0}
    1b60:	23381b05 	teqcs	r8, #5120	; 0x1400
    1b64:	0ea20000 	cdpeq	0, 10, cr0, cr2, cr0, {0}
    1b68:	0ea00000 	cdpeq	0, 10, cr0, cr0, cr0, {0}
    1b6c:	2c1e0000 	ldccs	0, cr0, [lr], {-0}
    1b70:	1d000023 	stcne	0, cr0, [r0, #-140]	; 0xffffff74
    1b74:	00002344 	andeq	r2, r0, r4, asr #6
    1b78:	00000eba 			; <UNDEFINED> instruction: 0x00000eba
    1b7c:	00000eb8 			; <UNDEFINED> instruction: 0x00000eb8
    1b80:	00235022 	eoreq	r5, r3, r2, lsr #32
    1b84:	0081f800 	addeq	pc, r1, r0, lsl #16
    1b88:	00000400 	andeq	r0, r0, r0, lsl #8
    1b8c:	00176200 	andseq	r6, r7, r0, lsl #4
    1b90:	23511d00 	cmpcs	r1, #0, 26
    1b94:	0ecf0000 	cdpeq	0, 12, cr0, cr15, cr0, {0}
    1b98:	0ecd0000 	cdpeq	0, 12, cr0, cr13, cr0, {0}
    1b9c:	26000000 	strcs	r0, [r0], -r0
    1ba0:	000023b7 			; <UNDEFINED> instruction: 0x000023b7
    1ba4:	000081fc 	strdeq	r8, [r0], -ip
    1ba8:	81fc0003 	mvnshi	r0, r3
    1bac:	00040000 	andeq	r0, r4, r0
    1bb0:	9e020000 	cdpls	0, 0, cr0, cr2, cr0, {0}
    1bb4:	00178205 	andseq	r8, r7, r5, lsl #4
    1bb8:	23c41e00 	biccs	r1, r4, #0, 28
    1bbc:	23000000 	movwcs	r0, #0
    1bc0:	0000235f 	andeq	r2, r0, pc, asr r3
    1bc4:	00008200 	andeq	r8, r0, r0, lsl #4
    1bc8:	00000010 	andeq	r0, r0, r0, lsl r0
    1bcc:	1e059f02 	cdpne	15, 0, cr9, cr5, cr2, {0}
    1bd0:	00002378 	andeq	r2, r0, r8, ror r3
    1bd4:	00236c1e 	eoreq	r6, r3, lr, lsl ip
    1bd8:	23841d00 	orrcs	r1, r4, #0, 26
    1bdc:	0ee40000 	cdpeq	0, 14, cr0, cr4, cr0, {0}
    1be0:	0ee20000 	cdpeq	0, 14, cr0, cr2, cr0, {0}
    1be4:	8e240000 	cdphi	0, 2, cr0, cr4, cr0, {0}
    1be8:	00000023 	andeq	r0, r0, r3, lsr #32
    1bec:	04000082 	streq	r0, [r0], #-130	; 0xffffff7e
    1bf0:	1d000000 	stcne	0, cr0, [r0, #-0]
    1bf4:	0000238f 	andeq	r2, r0, pc, lsl #7
    1bf8:	00000ef9 	strdeq	r0, [r0], -r9
    1bfc:	00000ef7 	strdeq	r0, [r0], -r7
    1c00:	00000000 	andeq	r0, r0, r0
    1c04:	0022911f 	eoreq	r9, r2, pc, lsl r1
    1c08:	00821000 	addeq	r1, r2, r0
    1c0c:	40000200 	andmi	r0, r0, r0, lsl #4
    1c10:	02000003 	andeq	r0, r0, #3, 0
    1c14:	189b09cd 	ldmne	fp, {r0, r2, r3, r6, r7, r8, fp}
    1c18:	9e1e0000 	cdpls	0, 1, cr0, cr14, cr0, {0}
    1c1c:	25000022 	strcs	r0, [r0, #-34]	; 0xffffffde
    1c20:	000022df 	ldrdeq	r2, [r0], -pc	; <UNPREDICTABLE>
    1c24:	00008210 	andeq	r8, r0, r0, lsl r2
    1c28:	82100004 	andshi	r0, r0, #4, 0
    1c2c:	00180000 	andseq	r0, r8, r0
    1c30:	b5020000 	strlt	r0, [r2, #-0]
    1c34:	22f81b05 	rscscs	r1, r8, #5120	; 0x1400
    1c38:	0f0e0000 	svceq	0x000e0000
    1c3c:	0f0c0000 	svceq	0x000c0000
    1c40:	ec1e0000 	ldc	0, cr0, [lr], {-0}
    1c44:	1d000022 	stcne	0, cr0, [r0, #-136]	; 0xffffff78
    1c48:	00002304 	andeq	r2, r0, r4, lsl #6
    1c4c:	00000f25 	andeq	r0, r0, r5, lsr #30
    1c50:	00000f23 	andeq	r0, r0, r3, lsr #30
    1c54:	00231022 	eoreq	r1, r3, r2, lsr #32
    1c58:	00821000 	addeq	r1, r2, r0
    1c5c:	00000400 	andeq	r0, r0, r0, lsl #8
    1c60:	00183600 	andseq	r3, r8, r0, lsl #12
    1c64:	23111d00 	tstcs	r1, #0, 26
    1c68:	0f3a0000 	svceq	0x003a0000
    1c6c:	0f380000 	svceq	0x00380000
    1c70:	26000000 	strcs	r0, [r0], -r0
    1c74:	0000239d 	muleq	r0, sp, r3
    1c78:	00008214 	andeq	r8, r0, r4, lsl r2
    1c7c:	82140003 	andshi	r0, r4, #3, 0
    1c80:	00040000 	andeq	r0, r4, r0
    1c84:	a6020000 	strge	r0, [r2], -r0
    1c88:	00185605 	andseq	r5, r8, r5, lsl #12
    1c8c:	23aa1e00 			; <UNDEFINED> instruction: 0x23aa1e00
    1c90:	23000000 	movwcs	r0, #0
    1c94:	0000235f 	andeq	r2, r0, pc, asr r3
    1c98:	00008218 	andeq	r8, r0, r8, lsl r2
    1c9c:	00000010 	andeq	r0, r0, r0, lsl r0
    1ca0:	1e05a702 	cdpne	7, 0, cr10, cr5, cr2, {0}
    1ca4:	00002378 	andeq	r2, r0, r8, ror r3
    1ca8:	00236c1e 	eoreq	r6, r3, lr, lsl ip
    1cac:	23841d00 	orrcs	r1, r4, #0, 26
    1cb0:	0f4f0000 	svceq	0x004f0000
    1cb4:	0f4d0000 	svceq	0x004d0000
    1cb8:	8e240000 	cdphi	0, 2, cr0, cr4, cr0, {0}
    1cbc:	18000023 	stmdane	r0, {r0, r1, r5}
    1cc0:	04000082 	streq	r0, [r0], #-130	; 0xffffff7e
    1cc4:	1d000000 	stcne	0, cr0, [r0, #-0]
    1cc8:	0000238f 	andeq	r2, r0, pc, lsl #7
    1ccc:	00000f64 	andeq	r0, r0, r4, ror #30
    1cd0:	00000f62 	andeq	r0, r0, r2, ror #30
    1cd4:	00000000 	andeq	r0, r0, r0
    1cd8:	0022771a 	eoreq	r7, r2, sl, lsl r7
    1cdc:	00838000 	addeq	r8, r3, r0
    1ce0:	58000200 	stmdapl	r0, {r9}
    1ce4:	02000003 	andeq	r0, r0, #3, 0
    1ce8:	841e09d0 	ldrhi	r0, [lr], #-2512	; 0xfffff630
    1cec:	25000022 	strcs	r0, [r0, #-34]	; 0xffffffde
    1cf0:	000022df 	ldrdeq	r2, [r0], -pc	; <UNPREDICTABLE>
    1cf4:	00008380 	andeq	r8, r0, r0, lsl #7
    1cf8:	83800004 	orrhi	r0, r0, #4, 0
    1cfc:	00180000 	andseq	r0, r8, r0
    1d00:	b9020000 	stmdblt	r2, {}	; <UNPREDICTABLE>
    1d04:	22f81b05 	rscscs	r1, r8, #5120	; 0x1400
    1d08:	0f790000 	svceq	0x00790000
    1d0c:	0f770000 	svceq	0x00770000
    1d10:	ec1e0000 	ldc	0, cr0, [lr], {-0}
    1d14:	1d000022 	stcne	0, cr0, [r0, #-136]	; 0xffffff78
    1d18:	00002304 	andeq	r2, r0, r4, lsl #6
    1d1c:	00000f91 	muleq	r0, r1, pc	; <UNPREDICTABLE>
    1d20:	00000f8f 	andeq	r0, r0, pc, lsl #31
    1d24:	00231022 	eoreq	r1, r3, r2, lsr #32
    1d28:	00838000 	addeq	r8, r3, r0
    1d2c:	00000400 	andeq	r0, r0, r0, lsl #8
    1d30:	00190600 	andseq	r0, r9, r0, lsl #12
    1d34:	23111d00 	tstcs	r1, #0, 26
    1d38:	0fa60000 	svceq	0x00a60000
    1d3c:	0fa40000 	svceq	0x00a40000
    1d40:	26000000 	strcs	r0, [r0], -r0
    1d44:	0000239d 	muleq	r0, sp, r3
    1d48:	00008384 	andeq	r8, r0, r4, lsl #7
    1d4c:	83840003 	orrhi	r0, r4, #3, 0
    1d50:	00040000 	andeq	r0, r4, r0
    1d54:	a6020000 	strge	r0, [r2], -r0
    1d58:	00192605 	andseq	r2, r9, r5, lsl #12
    1d5c:	23aa1e00 			; <UNDEFINED> instruction: 0x23aa1e00
    1d60:	23000000 	movwcs	r0, #0
    1d64:	0000235f 	andeq	r2, r0, pc, asr r3
    1d68:	00008388 	andeq	r8, r0, r8, lsl #7
    1d6c:	00000010 	andeq	r0, r0, r0, lsl r0
    1d70:	1e05a702 	cdpne	7, 0, cr10, cr5, cr2, {0}
    1d74:	00002378 	andeq	r2, r0, r8, ror r3
    1d78:	00236c1e 	eoreq	r6, r3, lr, lsl ip
    1d7c:	23841d00 	orrcs	r1, r4, #0, 26
    1d80:	0fbb0000 	svceq	0x00bb0000
    1d84:	0fb90000 	svceq	0x00b90000
    1d88:	8e240000 	cdphi	0, 2, cr0, cr4, cr0, {0}
    1d8c:	88000023 	stmdahi	r0, {r0, r1, r5}
    1d90:	04000083 	streq	r0, [r0], #-131	; 0xffffff7d
    1d94:	1d000000 	stcne	0, cr0, [r0, #-0]
    1d98:	0000238f 	andeq	r2, r0, pc, lsl #7
    1d9c:	00000fd0 	ldrdeq	r0, [r0], -r0	; <UNPREDICTABLE>
    1da0:	00000fce 	andeq	r0, r0, lr, asr #31
    1da4:	00000000 	andeq	r0, r0, r0
    1da8:	27000000 	strcs	r0, [r0, -r0]
    1dac:	000021ef 	andeq	r2, r0, pc, ror #3
    1db0:	00000370 	andeq	r0, r0, r0, ror r3
    1db4:	1105e602 	tstne	r5, r2, lsl #12
    1db8:	1e00001d 	mcrne	0, 0, r0, cr0, cr13, {0}
    1dbc:	00002208 	andeq	r2, r0, r8, lsl #4
    1dc0:	0021fc1e 	eoreq	pc, r1, lr, lsl ip	; <UNPREDICTABLE>
    1dc4:	22122000 	andscs	r2, r2, #0, 0
    1dc8:	03700000 	cmneq	r0, #0, 0
    1dcc:	131d0000 	tstne	sp, #0, 0
    1dd0:	e7000022 	str	r0, [r0, -r2, lsr #32]
    1dd4:	e300000f 	movw	r0, #15
    1dd8:	1a00000f 	bne	1e1c <__code_start__-0x61e4>
    1ddc:	0000221f 	andeq	r2, r0, pc, lsl r2
    1de0:	00008238 	andeq	r8, r0, r8, lsr r2
    1de4:	03a80001 			; <UNDEFINED> instruction: 0x03a80001
    1de8:	db020000 	blle	81df0 <__bss_end__+0x77870>
    1dec:	22381b09 	eorscs	r1, r8, #9216	; 0x2400
    1df0:	10090000 	andne	r0, r9, r0
    1df4:	10050000 	andne	r0, r5, r0
    1df8:	2c1e0000 	ldccs	0, cr0, [lr], {-0}
    1dfc:	1f000022 	svcne	0x00000022
    1e00:	000022c5 	andeq	r2, r0, r5, asr #5
    1e04:	00008244 	andeq	r8, r0, r4, asr #4
    1e08:	03e80001 	mvneq	r0, #1, 0
    1e0c:	cc020000 	stcgt	0, cr0, [r2], {-0}
    1e10:	001a9609 	andseq	r9, sl, r9, lsl #12
    1e14:	22d21e00 	sbcscs	r1, r2, #0, 28
    1e18:	1f250000 	svcne	0x00250000
    1e1c:	44000023 	strmi	r0, [r0], #-35	; 0xffffffdd
    1e20:	03000082 	movweq	r0, #130	; 0x82
    1e24:	00824400 	addeq	r4, r2, r0, lsl #8
    1e28:	00001800 	andeq	r1, r0, r0, lsl #16
    1e2c:	05ac0200 	streq	r0, [ip, #512]!	; 0x200
    1e30:	0023381b 	eoreq	r3, r3, fp, lsl r8
    1e34:	00103700 	andseq	r3, r0, r0, lsl #14
    1e38:	00103500 	andseq	r3, r0, r0, lsl #10
    1e3c:	232c1e00 			; <UNDEFINED> instruction: 0x232c1e00
    1e40:	441d0000 	ldrmi	r0, [sp], #-0
    1e44:	4f000023 	svcmi	0x00000023
    1e48:	4d000010 	stcmi	0, cr0, [r0, #-64]	; 0xffffffc0
    1e4c:	22000010 	andcs	r0, r0, #16, 0
    1e50:	00002350 	andeq	r2, r0, r0, asr r3
    1e54:	00008244 	andeq	r8, r0, r4, asr #4
    1e58:	00000004 	andeq	r0, r0, r4
    1e5c:	00001a31 	andeq	r1, r0, r1, lsr sl
    1e60:	0023511d 	eoreq	r5, r3, sp, lsl r1
    1e64:	00106400 	andseq	r6, r0, r0, lsl #8
    1e68:	00106200 	andseq	r6, r0, r0, lsl #4
    1e6c:	b7260000 	strlt	r0, [r6, -r0]!
    1e70:	48000023 	stmdami	r0, {r0, r1, r5}
    1e74:	03000082 	movweq	r0, #130	; 0x82
    1e78:	00824800 	addeq	r4, r2, r0, lsl #16
    1e7c:	00000400 	andeq	r0, r0, r0, lsl #8
    1e80:	059e0200 	ldreq	r0, [lr, #512]	; 0x200
    1e84:	00001a51 	andeq	r1, r0, r1, asr sl
    1e88:	0023c41e 	eoreq	ip, r3, lr, lsl r4
    1e8c:	5f230000 	svcpl	0x00230000
    1e90:	4c000023 	stcmi	0, cr0, [r0], {35}	; 0x23
    1e94:	10000082 	andne	r0, r0, r2, lsl #1
    1e98:	02000000 	andeq	r0, r0, #0, 0
    1e9c:	781e059f 	ldmdavc	lr, {r0, r1, r2, r3, r4, r7, r8, sl}
    1ea0:	1e000023 	cdpne	0, 0, cr0, cr0, cr3, {1}
    1ea4:	0000236c 	andeq	r2, r0, ip, ror #6
    1ea8:	0023841d 	eoreq	r8, r3, sp, lsl r4
    1eac:	00107900 	andseq	r7, r0, r0, lsl #18
    1eb0:	00107700 	andseq	r7, r0, r0, lsl #14
    1eb4:	238e2400 	orrcs	r2, lr, #0, 8
    1eb8:	824c0000 	subhi	r0, ip, #0, 0
    1ebc:	00040000 	andeq	r0, r4, r0
    1ec0:	8f1d0000 	svchi	0x001d0000
    1ec4:	8e000023 	cdphi	0, 0, cr0, cr0, cr3, {1}
    1ec8:	8c000010 	stchi	0, cr0, [r0], {16}
    1ecc:	00000010 	andeq	r0, r0, r0, lsl r0
    1ed0:	1f000000 	svcne	0x00000000
    1ed4:	00002291 	muleq	r0, r1, r2
    1ed8:	0000825c 	andeq	r8, r0, ip, asr r2
    1edc:	04000002 	streq	r0, [r0], #-2
    1ee0:	cd020000 	stcgt	0, cr0, [r2, #-0]
    1ee4:	001b6a09 	andseq	r6, fp, r9, lsl #20
    1ee8:	229e1e00 	addscs	r1, lr, #0, 28
    1eec:	df250000 	svcle	0x00250000
    1ef0:	5c000022 	stcpl	0, cr0, [r0], {34}	; 0x22
    1ef4:	04000082 	streq	r0, [r0], #-130	; 0xffffff7e
    1ef8:	00825c00 	addeq	r5, r2, r0, lsl #24
    1efc:	00001800 	andeq	r1, r0, r0, lsl #16
    1f00:	05b50200 	ldreq	r0, [r5, #512]!	; 0x200
    1f04:	0022f81b 	eoreq	pc, r2, fp, lsl r8	; <UNPREDICTABLE>
    1f08:	0010a300 	andseq	sl, r0, r0, lsl #6
    1f0c:	0010a100 	andseq	sl, r0, r0, lsl #2
    1f10:	22ec1e00 	rsccs	r1, ip, #0, 28
    1f14:	041d0000 	ldreq	r0, [sp], #-0
    1f18:	ba000023 	blt	1fac <__code_start__-0x6054>
    1f1c:	b8000010 	stmdalt	r0, {r4}
    1f20:	22000010 	andcs	r0, r0, #16, 0
    1f24:	00002310 	andeq	r2, r0, r0, lsl r3
    1f28:	0000825c 	andeq	r8, r0, ip, asr r2
    1f2c:	00000004 	andeq	r0, r0, r4
    1f30:	00001b05 	andeq	r1, r0, r5, lsl #22
    1f34:	0023111d 	eoreq	r1, r3, sp, lsl r1
    1f38:	0010cf00 	andseq	ip, r0, r0, lsl #30
    1f3c:	0010cd00 	andseq	ip, r0, r0, lsl #26
    1f40:	9d260000 	stcls	0, cr0, [r6, #-0]
    1f44:	60000023 	andvs	r0, r0, r3, lsr #32
    1f48:	03000082 	movweq	r0, #130	; 0x82
    1f4c:	00826000 	addeq	r6, r2, r0
    1f50:	00000400 	andeq	r0, r0, r0, lsl #8
    1f54:	05a60200 	streq	r0, [r6, #512]!	; 0x200
    1f58:	00001b25 	andeq	r1, r0, r5, lsr #22
    1f5c:	0023aa1e 	eoreq	sl, r3, lr, lsl sl
    1f60:	5f230000 	svcpl	0x00230000
    1f64:	64000023 	strvs	r0, [r0], #-35	; 0xffffffdd
    1f68:	10000082 	andne	r0, r0, r2, lsl #1
    1f6c:	02000000 	andeq	r0, r0, #0, 0
    1f70:	781e05a7 	ldmdavc	lr, {r0, r1, r2, r5, r7, r8, sl}
    1f74:	1e000023 	cdpne	0, 0, cr0, cr0, cr3, {1}
    1f78:	0000236c 	andeq	r2, r0, ip, ror #6
    1f7c:	0023841d 	eoreq	r8, r3, sp, lsl r4
    1f80:	0010e400 	andseq	lr, r0, r0, lsl #8
    1f84:	0010e200 	andseq	lr, r0, r0, lsl #4
    1f88:	238e2400 	orrcs	r2, lr, #0, 8
    1f8c:	82640000 	rsbhi	r0, r4, #0, 0
    1f90:	00040000 	andeq	r0, r4, r0
    1f94:	8f1d0000 	svchi	0x001d0000
    1f98:	f9000023 			; <UNDEFINED> instruction: 0xf9000023
    1f9c:	f7000010 			; <UNDEFINED> instruction: 0xf7000010
    1fa0:	00000010 	andeq	r0, r0, r0, lsl r0
    1fa4:	1f000000 	svcne	0x00000000
    1fa8:	000022ab 	andeq	r2, r0, fp, lsr #5
    1fac:	00008328 	andeq	r8, r0, r8, lsr #6
    1fb0:	04180002 	ldreq	r0, [r8], #-2
    1fb4:	cf020000 	svcgt	0x00020000
    1fb8:	001c3e09 	andseq	r3, ip, r9, lsl #28
    1fbc:	22b81e00 	adcscs	r1, r8, #0, 28
    1fc0:	1f250000 	svcne	0x00250000
    1fc4:	28000023 	stmdacs	r0, {r0, r1, r5}
    1fc8:	04000083 	streq	r0, [r0], #-131	; 0xffffff7d
    1fcc:	00832800 	addeq	r2, r3, r0, lsl #16
    1fd0:	00001800 	andeq	r1, r0, r0, lsl #16
    1fd4:	05b10200 	ldreq	r0, [r1, #512]!	; 0x200
    1fd8:	0023381b 	eoreq	r3, r3, fp, lsl r8
    1fdc:	00110e00 	andseq	r0, r1, r0, lsl #28
    1fe0:	00110c00 	andseq	r0, r1, r0, lsl #24
    1fe4:	232c1e00 			; <UNDEFINED> instruction: 0x232c1e00
    1fe8:	441d0000 	ldrmi	r0, [sp], #-0
    1fec:	25000023 	strcs	r0, [r0, #-35]	; 0xffffffdd
    1ff0:	23000011 	movwcs	r0, #17
    1ff4:	22000011 	andcs	r0, r0, #17, 0
    1ff8:	00002350 	andeq	r2, r0, r0, asr r3
    1ffc:	00008328 	andeq	r8, r0, r8, lsr #6
    2000:	00000004 	andeq	r0, r0, r4
    2004:	00001bd9 	ldrdeq	r1, [r0], -r9
    2008:	0023511d 	eoreq	r5, r3, sp, lsl r1
    200c:	00113a00 	andseq	r3, r1, r0, lsl #20
    2010:	00113800 	andseq	r3, r1, r0, lsl #16
    2014:	b7260000 	strlt	r0, [r6, -r0]!
    2018:	2c000023 	stccs	0, cr0, [r0], {35}	; 0x23
    201c:	03000083 	movweq	r0, #131	; 0x83
    2020:	00832c00 	addeq	r2, r3, r0, lsl #24
    2024:	00000400 	andeq	r0, r0, r0, lsl #8
    2028:	059e0200 	ldreq	r0, [lr, #512]	; 0x200
    202c:	00001bf9 	strdeq	r1, [r0], -r9
    2030:	0023c41e 	eoreq	ip, r3, lr, lsl r4
    2034:	5f230000 	svcpl	0x00230000
    2038:	30000023 	andcc	r0, r0, r3, lsr #32
    203c:	10000083 	andne	r0, r0, r3, lsl #1
    2040:	02000000 	andeq	r0, r0, #0, 0
    2044:	781e059f 	ldmdavc	lr, {r0, r1, r2, r3, r4, r7, r8, sl}
    2048:	1e000023 	cdpne	0, 0, cr0, cr0, cr3, {1}
    204c:	0000236c 	andeq	r2, r0, ip, ror #6
    2050:	0023841d 	eoreq	r8, r3, sp, lsl r4
    2054:	00114f00 	andseq	r4, r1, r0, lsl #30
    2058:	00114d00 	andseq	r4, r1, r0, lsl #26
    205c:	238e2400 	orrcs	r2, lr, #0, 8
    2060:	83300000 	teqhi	r0, #0, 0
    2064:	00040000 	andeq	r0, r4, r0
    2068:	8f1d0000 	svchi	0x001d0000
    206c:	64000023 	strvs	r0, [r0], #-35	; 0xffffffdd
    2070:	62000011 	andvs	r0, r0, #17, 0
    2074:	00000011 	andeq	r0, r0, r1, lsl r0
    2078:	1a000000 	bne	2080 <__code_start__-0x5f80>
    207c:	00002277 	andeq	r2, r0, r7, ror r2
    2080:	00008340 	andeq	r8, r0, r0, asr #6
    2084:	04300002 	ldrteq	r0, [r0], #-2
    2088:	d0020000 	andle	r0, r2, r0
    208c:	22841e09 	addcs	r1, r4, #144	; 0x90
    2090:	df250000 	svcle	0x00250000
    2094:	40000022 	andmi	r0, r0, r2, lsr #32
    2098:	04000083 	streq	r0, [r0], #-131	; 0xffffff7d
    209c:	00834000 	addeq	r4, r3, r0
    20a0:	00001800 	andeq	r1, r0, r0, lsl #16
    20a4:	05b90200 	ldreq	r0, [r9, #512]!	; 0x200
    20a8:	0022f81b 	eoreq	pc, r2, fp, lsl r8	; <UNPREDICTABLE>
    20ac:	00117900 	andseq	r7, r1, r0, lsl #18
    20b0:	00117700 	andseq	r7, r1, r0, lsl #14
    20b4:	22ec1e00 	rsccs	r1, ip, #0, 28
    20b8:	041d0000 	ldreq	r0, [sp], #-0
    20bc:	91000023 	tstls	r0, r3, lsr #32
    20c0:	8f000011 	svchi	0x00000011
    20c4:	22000011 	andcs	r0, r0, #17, 0
    20c8:	00002310 	andeq	r2, r0, r0, lsl r3
    20cc:	00008340 	andeq	r8, r0, r0, asr #6
    20d0:	00000004 	andeq	r0, r0, r4
    20d4:	00001ca9 	andeq	r1, r0, r9, lsr #25
    20d8:	0023111d 	eoreq	r1, r3, sp, lsl r1
    20dc:	0011a600 	andseq	sl, r1, r0, lsl #12
    20e0:	0011a400 	andseq	sl, r1, r0, lsl #8
    20e4:	9d260000 	stcls	0, cr0, [r6, #-0]
    20e8:	44000023 	strmi	r0, [r0], #-35	; 0xffffffdd
    20ec:	03000083 	movweq	r0, #131	; 0x83
    20f0:	00834400 	addeq	r4, r3, r0, lsl #8
    20f4:	00000400 	andeq	r0, r0, r0, lsl #8
    20f8:	05a60200 	streq	r0, [r6, #512]!	; 0x200
    20fc:	00001cc9 	andeq	r1, r0, r9, asr #25
    2100:	0023aa1e 	eoreq	sl, r3, lr, lsl sl
    2104:	5f230000 	svcpl	0x00230000
    2108:	48000023 	stmdami	r0, {r0, r1, r5}
    210c:	10000083 	andne	r0, r0, r3, lsl #1
    2110:	02000000 	andeq	r0, r0, #0, 0
    2114:	781e05a7 	ldmdavc	lr, {r0, r1, r2, r5, r7, r8, sl}
    2118:	1e000023 	cdpne	0, 0, cr0, cr0, cr3, {1}
    211c:	0000236c 	andeq	r2, r0, ip, ror #6
    2120:	0023841d 	eoreq	r8, r3, sp, lsl r4
    2124:	0011bb00 	andseq	fp, r1, r0, lsl #22
    2128:	0011b900 	andseq	fp, r1, r0, lsl #18
    212c:	238e2400 	orrcs	r2, lr, #0, 8
    2130:	83480000 	movthi	r0, #32768	; 0x8000
    2134:	00040000 	andeq	r0, r4, r0
    2138:	8f1d0000 	svchi	0x001d0000
    213c:	d0000023 	andle	r0, r0, r3, lsr #32
    2140:	ce000011 	mcrgt	0, 0, r0, cr0, cr1, {0}
    2144:	00000011 	andeq	r0, r0, r1, lsl r0
    2148:	00000000 	andeq	r0, r0, r0
    214c:	ef290000 	svc	0x00290000
    2150:	48000021 	stmdami	r0, {r0, r5}
    2154:	02000004 	andeq	r0, r0, #4, 0
    2158:	081e05e7 	ldmdaeq	lr, {r0, r1, r2, r5, r6, r7, r8, sl}
    215c:	1e000022 	cdpne	0, 0, cr0, cr0, cr2, {1}
    2160:	000021fc 	strdeq	r2, [r0], -ip
    2164:	00221220 	eoreq	r1, r2, r0, lsr #4
    2168:	00044800 	andeq	r4, r4, r0, lsl #16
    216c:	22131d00 	andscs	r1, r3, #0, 26
    2170:	11e70000 	mvnne	r0, r0
    2174:	11e30000 	mvnne	r0, r0
    2178:	1f1a0000 	svcne	0x001a0000
    217c:	84000022 	strhi	r0, [r0], #-34	; 0xffffffde
    2180:	01000082 	smlabbeq	r0, r2, r0, r0
    2184:	00048000 	andeq	r8, r4, r0
    2188:	09db0200 	ldmibeq	fp, {r9}^
    218c:	0022381b 	eoreq	r3, r2, fp, lsl r8
    2190:	00120900 	andseq	r0, r2, r0, lsl #18
    2194:	00120500 	andseq	r0, r2, r0, lsl #10
    2198:	222c1e00 	eorcs	r1, ip, #0, 28
    219c:	c51f0000 	ldrgt	r0, [pc, #-0]	; 21a4 <__code_start__-0x5e5c>
    21a0:	90000022 	andls	r0, r0, r2, lsr #32
    21a4:	01000082 	smlabbeq	r0, r2, r0, r0
    21a8:	0004c000 	andeq	ip, r4, r0
    21ac:	09cc0200 	stmibeq	ip, {r9}^
    21b0:	00001e35 	andeq	r1, r0, r5, lsr lr
    21b4:	0022d21e 	eoreq	sp, r2, lr, lsl r2
    21b8:	231f2500 	tstcs	pc, #0, 10
    21bc:	82900000 	addshi	r0, r0, #0, 0
    21c0:	00030000 	andeq	r0, r3, r0
    21c4:	00008290 	muleq	r0, r0, r2
    21c8:	00000018 	andeq	r0, r0, r8, lsl r0
    21cc:	1b05ac02 	blne	16d1dc <__bss_end__+0x162c5c>
    21d0:	00002338 	andeq	r2, r0, r8, lsr r3
    21d4:	00001237 	andeq	r1, r0, r7, lsr r2
    21d8:	00001235 	andeq	r1, r0, r5, lsr r2
    21dc:	00232c1e 	eoreq	r2, r3, lr, lsl ip
    21e0:	23441d00 	movtcs	r1, #19712	; 0x4d00
    21e4:	124f0000 	subne	r0, pc, #0, 0
    21e8:	124d0000 	subne	r0, sp, #0, 0
    21ec:	50220000 	eorpl	r0, r2, r0
    21f0:	90000023 	andls	r0, r0, r3, lsr #32
    21f4:	04000082 	streq	r0, [r0], #-130	; 0xffffff7e
    21f8:	d0000000 	andle	r0, r0, r0
    21fc:	1d00001d 	stcne	0, cr0, [r0, #-116]	; 0xffffff8c
    2200:	00002351 	andeq	r2, r0, r1, asr r3
    2204:	00001264 	andeq	r1, r0, r4, ror #4
    2208:	00001262 	andeq	r1, r0, r2, ror #4
    220c:	23b72600 			; <UNDEFINED> instruction: 0x23b72600
    2210:	82940000 	addshi	r0, r4, #0, 0
    2214:	00030000 	andeq	r0, r3, r0
    2218:	00008294 	muleq	r0, r4, r2
    221c:	00000004 	andeq	r0, r0, r4
    2220:	f0059e02 			; <UNDEFINED> instruction: 0xf0059e02
    2224:	1e00001d 	mcrne	0, 0, r0, cr0, cr13, {0}
    2228:	000023c4 	andeq	r2, r0, r4, asr #7
    222c:	235f2300 	cmpcs	pc, #0, 6
    2230:	82980000 	addshi	r0, r8, #0, 0
    2234:	00100000 	andseq	r0, r0, r0
    2238:	9f020000 	svcls	0x00020000
    223c:	23781e05 	cmncs	r8, #80	; 0x50
    2240:	6c1e0000 	ldcvs	0, cr0, [lr], {-0}
    2244:	1d000023 	stcne	0, cr0, [r0, #-140]	; 0xffffff74
    2248:	00002384 	andeq	r2, r0, r4, lsl #7
    224c:	00001279 	andeq	r1, r0, r9, ror r2
    2250:	00001277 	andeq	r1, r0, r7, ror r2
    2254:	00238e24 	eoreq	r8, r3, r4, lsr #28
    2258:	00829800 	addeq	r9, r2, r0, lsl #16
    225c:	00000400 	andeq	r0, r0, r0, lsl #8
    2260:	238f1d00 	orrcs	r1, pc, #0, 26
    2264:	128e0000 	addne	r0, lr, #0, 0
    2268:	128c0000 	addne	r0, ip, #0, 0
    226c:	00000000 	andeq	r0, r0, r0
    2270:	911f0000 	tstls	pc, r0
    2274:	a8000022 	stmdage	r0, {r1, r5}
    2278:	02000082 	andeq	r0, r0, #130, 0	; 0x82
    227c:	0004d800 	andeq	sp, r4, r0, lsl #16
    2280:	09cd0200 	stmibeq	sp, {r9}^
    2284:	00001f09 	andeq	r1, r0, r9, lsl #30
    2288:	00229e1e 	eoreq	r9, r2, lr, lsl lr
    228c:	22df2500 	sbcscs	r2, pc, #0, 10
    2290:	82a80000 	adchi	r0, r8, #0, 0
    2294:	00040000 	andeq	r0, r4, r0
    2298:	000082a8 	andeq	r8, r0, r8, lsr #5
    229c:	00000018 	andeq	r0, r0, r8, lsl r0
    22a0:	1b05b502 	blne	16f6b0 <__bss_end__+0x165130>
    22a4:	000022f8 	strdeq	r2, [r0], -r8
    22a8:	000012a3 	andeq	r1, r0, r3, lsr #5
    22ac:	000012a1 	andeq	r1, r0, r1, lsr #5
    22b0:	0022ec1e 	eoreq	lr, r2, lr, lsl ip
    22b4:	23041d00 	movwcs	r1, #19712	; 0x4d00
    22b8:	12ba0000 	adcsne	r0, sl, #0, 0
    22bc:	12b80000 	adcsne	r0, r8, #0, 0
    22c0:	10220000 	eorne	r0, r2, r0
    22c4:	a8000023 	stmdage	r0, {r0, r1, r5}
    22c8:	04000082 	streq	r0, [r0], #-130	; 0xffffff7e
    22cc:	a4000000 	strge	r0, [r0], #-0
    22d0:	1d00001e 	stcne	0, cr0, [r0, #-120]	; 0xffffff88
    22d4:	00002311 	andeq	r2, r0, r1, lsl r3
    22d8:	000012cf 	andeq	r1, r0, pc, asr #5
    22dc:	000012cd 	andeq	r1, r0, sp, asr #5
    22e0:	239d2600 	orrscs	r2, sp, #0, 12
    22e4:	82ac0000 	adchi	r0, ip, #0, 0
    22e8:	00030000 	andeq	r0, r3, r0
    22ec:	000082ac 	andeq	r8, r0, ip, lsr #5
    22f0:	00000004 	andeq	r0, r0, r4
    22f4:	c405a602 	strgt	sl, [r5], #-1538	; 0xfffff9fe
    22f8:	1e00001e 	mcrne	0, 0, r0, cr0, cr14, {0}
    22fc:	000023aa 	andeq	r2, r0, sl, lsr #7
    2300:	235f2300 	cmpcs	pc, #0, 6
    2304:	82b00000 	adcshi	r0, r0, #0, 0
    2308:	00100000 	andseq	r0, r0, r0
    230c:	a7020000 	strge	r0, [r2, -r0]
    2310:	23781e05 	cmncs	r8, #80	; 0x50
    2314:	6c1e0000 	ldcvs	0, cr0, [lr], {-0}
    2318:	1d000023 	stcne	0, cr0, [r0, #-140]	; 0xffffff74
    231c:	00002384 	andeq	r2, r0, r4, lsl #7
    2320:	000012e4 	andeq	r1, r0, r4, ror #5
    2324:	000012e2 	andeq	r1, r0, r2, ror #5
    2328:	00238e24 	eoreq	r8, r3, r4, lsr #28
    232c:	0082b000 	addeq	fp, r2, r0
    2330:	00000400 	andeq	r0, r0, r0, lsl #8
    2334:	238f1d00 	orrcs	r1, pc, #0, 26
    2338:	12f90000 	rscsne	r0, r9, #0, 0
    233c:	12f70000 	rscsne	r0, r7, #0, 0
    2340:	00000000 	andeq	r0, r0, r0
    2344:	ab1f0000 	blge	7c234c <__bss_end__+0x7b7dcc>
    2348:	e8000022 	stmda	r0, {r1, r5}
    234c:	01000082 	smlabbeq	r0, r2, r0, r0
    2350:	0004f000 	andeq	pc, r4, r0
    2354:	09cf0200 	stmibeq	pc, {r9}^	; <UNPREDICTABLE>
    2358:	00001fdd 	ldrdeq	r1, [r0], -sp
    235c:	0022b81e 	eoreq	fp, r2, lr, lsl r8
    2360:	231f2500 	tstcs	pc, #0, 10
    2364:	82e80000 	rschi	r0, r8, #0, 0
    2368:	00030000 	andeq	r0, r3, r0
    236c:	000082e8 	andeq	r8, r0, r8, ror #5
    2370:	00000018 	andeq	r0, r0, r8, lsl r0
    2374:	1b05b102 	blne	16e784 <__bss_end__+0x164204>
    2378:	00002338 	andeq	r2, r0, r8, lsr r3
    237c:	0000130e 	andeq	r1, r0, lr, lsl #6
    2380:	0000130c 	andeq	r1, r0, ip, lsl #6
    2384:	00232c1e 	eoreq	r2, r3, lr, lsl ip
    2388:	23441d00 	movtcs	r1, #19712	; 0x4d00
    238c:	13250000 			; <UNDEFINED> instruction: 0x13250000
    2390:	13230000 			; <UNDEFINED> instruction: 0x13230000
    2394:	50220000 	eorpl	r0, r2, r0
    2398:	e8000023 	stmda	r0, {r0, r1, r5}
    239c:	04000082 	streq	r0, [r0], #-130	; 0xffffff7e
    23a0:	78000000 	stmdavc	r0, {}	; <UNPREDICTABLE>
    23a4:	1d00001f 	stcne	0, cr0, [r0, #-124]	; 0xffffff84
    23a8:	00002351 	andeq	r2, r0, r1, asr r3
    23ac:	0000133a 	andeq	r1, r0, sl, lsr r3
    23b0:	00001338 	andeq	r1, r0, r8, lsr r3
    23b4:	23b72600 			; <UNDEFINED> instruction: 0x23b72600
    23b8:	82ec0000 	rschi	r0, ip, #0, 0
    23bc:	00030000 	andeq	r0, r3, r0
    23c0:	000082ec 	andeq	r8, r0, ip, ror #5
    23c4:	00000004 	andeq	r0, r0, r4
    23c8:	98059e02 	stmdals	r5, {r1, r9, sl, fp, ip, pc}
    23cc:	1e00001f 	mcrne	0, 0, r0, cr0, cr15, {0}
    23d0:	000023c4 	andeq	r2, r0, r4, asr #7
    23d4:	235f2300 	cmpcs	pc, #0, 6
    23d8:	82f00000 	rscshi	r0, r0, #0, 0
    23dc:	00100000 	andseq	r0, r0, r0
    23e0:	9f020000 	svcls	0x00020000
    23e4:	23781e05 	cmncs	r8, #80	; 0x50
    23e8:	6c1e0000 	ldcvs	0, cr0, [lr], {-0}
    23ec:	1d000023 	stcne	0, cr0, [r0, #-140]	; 0xffffff74
    23f0:	00002384 	andeq	r2, r0, r4, lsl #7
    23f4:	0000134f 	andeq	r1, r0, pc, asr #6
    23f8:	0000134d 	andeq	r1, r0, sp, asr #6
    23fc:	00238e24 	eoreq	r8, r3, r4, lsr #28
    2400:	0082f000 	addeq	pc, r2, r0
    2404:	00000400 	andeq	r0, r0, r0, lsl #8
    2408:	238f1d00 	orrcs	r1, pc, #0, 26
    240c:	13640000 	cmnne	r4, #0, 0
    2410:	13620000 	cmnne	r2, #0, 0
    2414:	00000000 	andeq	r0, r0, r0
    2418:	771a0000 	ldrvc	r0, [sl, -r0]
    241c:	00000022 	andeq	r0, r0, r2, lsr #32
    2420:	02000083 	andeq	r0, r0, #131, 0	; 0x83
    2424:	00050800 	andeq	r0, r5, r0, lsl #16
    2428:	09d00200 	ldmibeq	r0, {r9}^
    242c:	0022841e 	eoreq	r8, r2, lr, lsl r4
    2430:	22df2500 	sbcscs	r2, pc, #0, 10
    2434:	83000000 	movwhi	r0, #0
    2438:	00040000 	andeq	r0, r4, r0
    243c:	00008300 	andeq	r8, r0, r0, lsl #6
    2440:	00000018 	andeq	r0, r0, r8, lsl r0
    2444:	1b05b902 	blne	170854 <__bss_end__+0x1662d4>
    2448:	000022f8 	strdeq	r2, [r0], -r8
    244c:	00001379 	andeq	r1, r0, r9, ror r3
    2450:	00001377 	andeq	r1, r0, r7, ror r3
    2454:	0022ec1e 	eoreq	lr, r2, lr, lsl ip
    2458:	23041d00 	movwcs	r1, #19712	; 0x4d00
    245c:	13910000 	orrsne	r0, r1, #0, 0
    2460:	138f0000 	orrne	r0, pc, #0, 0
    2464:	10220000 	eorne	r0, r2, r0
    2468:	00000023 	andeq	r0, r0, r3, lsr #32
    246c:	04000083 	streq	r0, [r0], #-131	; 0xffffff7d
    2470:	48000000 	stmdami	r0, {}	; <UNPREDICTABLE>
    2474:	1d000020 	stcne	0, cr0, [r0, #-128]	; 0xffffff80
    2478:	00002311 	andeq	r2, r0, r1, lsl r3
    247c:	000013a6 	andeq	r1, r0, r6, lsr #7
    2480:	000013a4 	andeq	r1, r0, r4, lsr #7
    2484:	239d2600 	orrscs	r2, sp, #0, 12
    2488:	83040000 	movwhi	r0, #16384	; 0x4000
    248c:	00030000 	andeq	r0, r3, r0
    2490:	00008304 	andeq	r8, r0, r4, lsl #6
    2494:	00000004 	andeq	r0, r0, r4
    2498:	6805a602 	stmdavs	r5, {r1, r9, sl, sp, pc}
    249c:	1e000020 	cdpne	0, 0, cr0, cr0, cr0, {1}
    24a0:	000023aa 	andeq	r2, r0, sl, lsr #7
    24a4:	235f2300 	cmpcs	pc, #0, 6
    24a8:	83080000 	movwhi	r0, #32768	; 0x8000
    24ac:	00100000 	andseq	r0, r0, r0
    24b0:	a7020000 	strge	r0, [r2, -r0]
    24b4:	23781e05 	cmncs	r8, #80	; 0x50
    24b8:	6c1e0000 	ldcvs	0, cr0, [lr], {-0}
    24bc:	1d000023 	stcne	0, cr0, [r0, #-140]	; 0xffffff74
    24c0:	00002384 	andeq	r2, r0, r4, lsl #7
    24c4:	000013bb 			; <UNDEFINED> instruction: 0x000013bb
    24c8:	000013b9 			; <UNDEFINED> instruction: 0x000013b9
    24cc:	00238e24 	eoreq	r8, r3, r4, lsr #28
    24d0:	00830800 	addeq	r0, r3, r0, lsl #16
    24d4:	00000400 	andeq	r0, r0, r0, lsl #8
    24d8:	238f1d00 	orrcs	r1, pc, #0, 26
    24dc:	13d00000 	bicsne	r0, r0, #0, 0
    24e0:	13ce0000 	bicne	r0, lr, #0, 0
	...
    24ec:	1a000000 	bne	24f4 <__code_start__-0x5b0c>
    24f0:	00002243 	andeq	r2, r0, r3, asr #4
    24f4:	00008190 	muleq	r0, r0, r1
    24f8:	00600002 	rsbeq	r0, r0, r2
    24fc:	20010000 	andcs	r0, r1, r0
    2500:	22501b05 	subscs	r1, r0, #5120	; 0x1400
    2504:	13e50000 	mvnne	r0, #0, 0
    2508:	13e30000 	mvnne	r0, #0, 0
    250c:	5d1a0000 	ldcpl	0, cr0, [sl, #-0]
    2510:	90000022 	andls	r0, r0, r2, lsr #32
    2514:	04000081 	streq	r0, [r0], #-129	; 0xffffff7f
    2518:	00006800 	andeq	r6, r0, r0, lsl #16
    251c:	05c60200 	strbeq	r0, [r6, #512]	; 0x200
    2520:	00226a1b 	eoreq	r6, r2, fp, lsl sl
    2524:	00140100 	andseq	r0, r4, r0, lsl #2
    2528:	0013ff00 	andseq	pc, r3, r0, lsl #30
    252c:	22df1a00 	sbcscs	r1, pc, #0, 20
    2530:	81900000 	orrshi	r0, r0, r0
    2534:	00060000 	andeq	r0, r6, r0
    2538:	00000070 	andeq	r0, r0, r0, ror r0
    253c:	1b05bd02 	blne	17194c <__bss_end__+0x1673cc>
    2540:	000022f8 	strdeq	r2, [r0], -r8
    2544:	0000141d 	andeq	r1, r0, sp, lsl r4
    2548:	0000141b 	andeq	r1, r0, fp, lsl r4
    254c:	0022ec1b 	eoreq	lr, r2, fp, lsl ip
    2550:	00143500 	andseq	r3, r4, r0, lsl #10
    2554:	00143300 	andseq	r3, r4, r0, lsl #6
    2558:	00702100 	rsbseq	r2, r0, r0, lsl #2
    255c:	041d0000 	ldreq	r0, [sp], #-0
    2560:	51000023 	tstpl	r0, r3, lsr #32
    2564:	4f000014 	svcmi	0x00000014
    2568:	1c000014 	stcne	0, cr0, [r0], {20}
    256c:	00002310 	andeq	r2, r0, r0, lsl r3
    2570:	00000090 	muleq	r0, r0, r0
    2574:	00002149 	andeq	r2, r0, r9, asr #2
    2578:	0023111d 	eoreq	r1, r3, sp, lsl r1
    257c:	00146600 	andseq	r6, r4, r0, lsl #12
    2580:	00146400 	andseq	r6, r4, r0, lsl #8
    2584:	9d1f0000 	ldcls	0, cr0, [pc, #-0]	; 258c <__code_start__-0x5a74>
    2588:	98000023 	stmdals	r0, {r0, r1, r5}
    258c:	03000081 	movweq	r0, #129	; 0x81
    2590:	0000a800 	andeq	sl, r0, r0, lsl #16
    2594:	05a60200 	streq	r0, [r6, #512]!	; 0x200
    2598:	0000216d 	andeq	r2, r0, sp, ror #2
    259c:	0023aa1b 	eoreq	sl, r3, fp, lsl sl
    25a0:	00147f00 	andseq	r7, r4, r0, lsl #30
    25a4:	00147900 	andseq	r7, r4, r0, lsl #18
    25a8:	5f290000 	svcpl	0x00290000
    25ac:	c8000023 	stmdagt	r0, {r0, r1, r5}
    25b0:	02000000 	andeq	r0, r0, #0, 0
    25b4:	781e05a7 	ldmdavc	lr, {r0, r1, r2, r5, r7, r8, sl}
    25b8:	1e000023 	cdpne	0, 0, cr0, cr0, cr3, {1}
    25bc:	0000236c 	andeq	r2, r0, ip, ror #6
    25c0:	0000c821 	andeq	ip, r0, r1, lsr #16
    25c4:	23841d00 	orrcs	r1, r4, #0, 26
    25c8:	14b80000 	ldrtne	r0, [r8], #0
    25cc:	14b60000 	ldrtne	r0, [r6], #0
    25d0:	8e240000 	cdphi	0, 2, cr0, cr4, cr0, {0}
    25d4:	b0000023 	andlt	r0, r0, r3, lsr #32
    25d8:	04000081 	streq	r0, [r0], #-129	; 0xffffff7f
    25dc:	1d000000 	stcne	0, cr0, [r0, #-0]
    25e0:	0000238f 	andeq	r2, r0, pc, lsl #7
    25e4:	000014cd 	andeq	r1, r0, sp, asr #9
    25e8:	000014cb 	andeq	r1, r0, fp, asr #9
	...
    25f4:	0002d137 	andeq	sp, r2, r7, lsr r1
    25f8:	14e00200 	strbtne	r0, [r0], #512	; 0x200
    25fc:	0021ef03 	eoreq	lr, r1, r3, lsl #30
    2600:	69702c00 	ldmdbvs	r0!, {sl, fp, sp}^
    2604:	e002006e 	and	r0, r2, lr, rrx
    2608:	00002c2b 	andeq	r2, r0, fp, lsr #24
    260c:	00722c00 	rsbseq	r2, r2, r0, lsl #24
    2610:	5938e002 	ldmdbpl	r8!, {r1, sp, lr, pc}
    2614:	2c000000 	stccs	0, cr0, [r0], {-0}
    2618:	e0020067 	and	r0, r2, r7, rrx
    261c:	00005943 	andeq	r5, r0, r3, asr #18
    2620:	00622c00 	rsbeq	r2, r2, r0, lsl #24
    2624:	594ee002 	stmdbpl	lr, {r1, sp, lr, pc}^
    2628:	00000000 	andeq	r0, r0, r0
    262c:	00026d37 	andeq	r6, r2, r7, lsr sp
    2630:	14d90200 	ldrbne	r0, [r9], #512	; 0x200
    2634:	00221f03 	eoreq	r1, r2, r3, lsl #30
    2638:	69702c00 	ldmdbvs	r0!, {sl, fp, sp}^
    263c:	d902006e 	stmdble	r2, {r1, r2, r3, r5, r6}
    2640:	00002c2a 	andeq	r2, r0, sl, lsr #24
    2644:	00622c00 	rsbeq	r2, r2, r0, lsl #24
    2648:	5937d902 	ldmdbpl	r7!, {r1, r8, fp, ip, lr, pc}
    264c:	2d000000 	stccs	0, cr0, [r0, #-0]
    2650:	0200692e 	andeq	r6, r0, #753664	; 0xb8000
    2654:	00250dda 	ldrdeq	r0, [r5], -sl	; <UNPREDICTABLE>
    2658:	00000000 	andeq	r0, r0, r0
    265c:	00024637 	andeq	r4, r2, r7, lsr r6
    2660:	14ca0200 	strbne	r0, [sl], #512	; 0x200
    2664:	00224303 	eoreq	r4, r2, r3, lsl #6
    2668:	69702c00 	ldmdbvs	r0!, {sl, fp, sp}^
    266c:	ca02006e 	bgt	8282c <__bss_end__+0x782ac>
    2670:	00002c29 	andeq	r2, r0, r9, lsr #24
    2674:	00622c00 	rsbeq	r2, r2, r0, lsl #24
    2678:	5936ca02 	ldmdbpl	r6!, {r1, r9, fp, lr, pc}
    267c:	00000000 	andeq	r0, r0, r0
    2680:	0000ba37 	andeq	fp, r0, r7, lsr sl
    2684:	14c50200 	strbne	r0, [r5], #512	; 0x200
    2688:	00225d03 	eoreq	r5, r2, r3, lsl #26
    268c:	69702c00 	ldmdbvs	r0!, {sl, fp, sp}^
    2690:	c502006e 	strgt	r0, [r2, #-110]	; 0xffffff92
    2694:	00002c27 	andeq	r2, r0, r7, lsr #24
    2698:	32370000 	eorscc	r0, r7, #0, 0
    269c:	02000002 	andeq	r0, r0, #2, 0
    26a0:	770314bc 			; <UNDEFINED> instruction: 0x770314bc
    26a4:	2c000022 	stccs	0, cr0, [r0], {34}	; 0x22
    26a8:	006e6970 	rsbeq	r6, lr, r0, ror r9
    26ac:	2c24bc02 	stccs	12, cr11, [r4], #-8
    26b0:	00000000 	andeq	r0, r0, r0
    26b4:	6c307438 	cfldrsvs	mvf7, [r0], #-224	; 0xffffff20
    26b8:	14b80200 	ldrtne	r0, [r8], #512	; 0x200
    26bc:	00229103 	eoreq	r9, r2, r3, lsl #2
    26c0:	69702c00 	ldmdbvs	r0!, {sl, fp, sp}^
    26c4:	b802006e 	stmdalt	r2, {r1, r2, r3, r5, r6}
    26c8:	00002c21 	andeq	r2, r0, r1, lsr #24
    26cc:	74380000 	ldrtvc	r0, [r8], #-0
    26d0:	02006c31 	andeq	r6, r0, #12544	; 0x3100
    26d4:	ab0314b4 	blge	c79ac <__bss_end__+0xbd42c>
    26d8:	2c000022 	stccs	0, cr0, [r0], {34}	; 0x22
    26dc:	006e6970 	rsbeq	r6, lr, r0, ror r9
    26e0:	2c21b402 	cfstrscs	mvf11, [r1], #-8
    26e4:	00000000 	andeq	r0, r0, r0
    26e8:	68307438 	ldmdavs	r0!, {r3, r4, r5, sl, ip, sp, lr}
    26ec:	14b00200 	ldrtne	r0, [r0], #512	; 0x200
    26f0:	0022c503 	eoreq	ip, r2, r3, lsl #10
    26f4:	69702c00 	ldmdbvs	r0!, {sl, fp, sp}^
    26f8:	b002006e 	andlt	r0, r2, lr, rrx
    26fc:	00002c21 	andeq	r2, r0, r1, lsr #24
    2700:	74380000 	ldrtvc	r0, [r8], #-0
    2704:	02006831 	andeq	r6, r0, #3211264	; 0x310000
    2708:	df0314ab 	svcle	0x000314ab
    270c:	2c000022 	stccs	0, cr0, [r0], {34}	; 0x22
    2710:	006e6970 	rsbeq	r6, lr, r0, ror r9
    2714:	2c21ab02 			; <UNDEFINED> instruction: 0x2c21ab02
    2718:	00000000 	andeq	r0, r0, r0
    271c:	00020b37 	andeq	r0, r2, r7, lsr fp
    2720:	14a40200 	strtne	r0, [r4], #512	; 0x200
    2724:	00231f03 	eoreq	r1, r3, r3, lsl #30
    2728:	69702c00 	ldmdbvs	r0!, {sl, fp, sp}^
    272c:	a402006e 	strge	r0, [r2], #-110	; 0xffffff92
    2730:	00002c25 	andeq	r2, r0, r5, lsr #24
    2734:	02583900 	subseq	r3, r8, #0, 18
    2738:	a4020000 	strge	r0, [r2], #-0
    273c:	00002c33 	andeq	r2, r0, r3, lsr ip
    2740:	09e61200 	stmibeq	r6!, {r9, ip}^
    2744:	a5020000 	strge	r0, [r2, #-0]
    2748:	00002c0e 	andeq	r2, r0, lr, lsl #24
    274c:	25122d00 	ldrcs	r2, [r2, #-3328]	; 0xfffff300
    2750:	02000002 	andeq	r0, r0, #2, 0
    2754:	002c16a5 	eoreq	r1, ip, r5, lsr #13
    2758:	00000000 	andeq	r0, r0, r0
    275c:	00021337 	andeq	r1, r2, r7, lsr r3
    2760:	149c0200 	ldrne	r0, [ip], #512	; 0x200
    2764:	00235f03 	eoreq	r5, r3, r3, lsl #30
    2768:	69702c00 	ldmdbvs	r0!, {sl, fp, sp}^
    276c:	9c02006e 	stcls	0, cr0, [r2], {110}	; 0x6e
    2770:	00002c25 	andeq	r2, r0, r5, lsr #24
    2774:	02583900 	subseq	r3, r8, #0, 18
    2778:	9c020000 	stcls	0, cr0, [r2], {-0}
    277c:	00002c33 	andeq	r2, r0, r3, lsr ip
    2780:	09e61200 	stmibeq	r6!, {r9, ip}^
    2784:	9d020000 	stcls	0, cr0, [r2, #-0]
    2788:	00002c0e 	andeq	r2, r0, lr, lsl #24
    278c:	25122d00 	ldrcs	r2, [r2, #-3328]	; 0xfffff300
    2790:	02000002 	andeq	r0, r0, #2, 0
    2794:	002c169d 	mlaeq	ip, sp, r6, r1
    2798:	00000000 	andeq	r0, r0, r0
    279c:	00025237 	andeq	r5, r2, r7, lsr r2
    27a0:	14810200 	strne	r0, [r1], #512	; 0x200
    27a4:	00239d03 	eoreq	r9, r3, r3, lsl #26
    27a8:	027a3900 	rsbseq	r3, sl, #0, 18
    27ac:	81020000 	mrshi	r0, (UNDEF: 2)
    27b0:	00002c2b 	andeq	r2, r0, fp, lsr #24
    27b4:	02673900 	rsbeq	r3, r7, #0, 18
    27b8:	81020000 	mrshi	r0, (UNDEF: 2)
    27bc:	00002c3f 	andeq	r2, r0, pc, lsr ip
    27c0:	00632e00 	rsbeq	r2, r3, r0, lsl #28
    27c4:	2c0e8202 	sfmcs	f0, 1, [lr], {2}
    27c8:	2d000000 	stccs	0, cr0, [r0, #-0]
    27cc:	00022512 	andeq	r2, r2, r2, lsl r5
    27d0:	11830200 	orrne	r0, r3, r0, lsl #4
    27d4:	0000002c 	andeq	r0, r0, ip, lsr #32
    27d8:	b7370000 	ldrlt	r0, [r7, -r0]!
    27dc:	02000002 	andeq	r0, r0, #2, 0
    27e0:	b703147c 	smlsdxlt	r3, ip, r4, r1
    27e4:	2c000023 	stccs	0, cr0, [r0], {35}	; 0x23
    27e8:	006e6970 	rsbeq	r6, lr, r0, ror r9
    27ec:	2c2e7c02 	stccs	12, cr7, [lr], #-8
    27f0:	00000000 	andeq	r0, r0, r0
    27f4:	00029f37 	andeq	r9, r2, r7, lsr pc
    27f8:	14790200 	ldrbtne	r0, [r9], #-512	; 0xfffffe00
    27fc:	0023d103 	eoreq	sp, r3, r3, lsl #2
    2800:	69702c00 	ldmdbvs	r0!, {sl, fp, sp}^
    2804:	7902006e 	stmdbvc	r2, {r1, r2, r3, r5, r6}
    2808:	00002c2d 	andeq	r2, r0, sp, lsr #24
    280c:	cf3a0000 	svcgt	0x003a0000
    2810:	d0000008 	andle	r0, r0, r8
    2814:	f0000085 			; <UNDEFINED> instruction: 0xf0000085
    2818:	01000000 	mrseq	r0, (UNDEF: 0)
    281c:	002a549c 	mlaeq	sl, ip, r4, r5
    2820:	08dc1b00 	ldmeq	ip, {r8, r9, fp, ip}^
    2824:	14e80000 	strbtne	r0, [r8], #0
    2828:	14e00000 	strbtne	r0, [r0], #0
    282c:	e61b0000 	ldr	r0, [fp], -r0
    2830:	2a000008 	bcs	2858 <__code_start__-0x57a8>
    2834:	22000015 	andcs	r0, r0, #21, 0
    2838:	1c000015 	stcne	0, cr0, [r0], {21}
    283c:	000008f0 	strdeq	r0, [r0], -r0	; <UNPREDICTABLE>
    2840:	00000968 	andeq	r0, r0, r8, ror #18
    2844:	00002a41 	andeq	r2, r0, r1, asr #20
    2848:	0008f11d 	andeq	pc, r8, sp, lsl r1	; <UNPREDICTABLE>
    284c:	00156a00 	andseq	r6, r5, r0, lsl #20
    2850:	00156400 	andseq	r6, r5, r0, lsl #8
    2854:	21b71a00 			; <UNDEFINED> instruction: 0x21b71a00
    2858:	85f00000 	ldrbhi	r0, [r0, #0]!
    285c:	00020000 	andeq	r0, r2, r0
    2860:	000009f0 	strdeq	r0, [r0], -r0	; <UNPREDICTABLE>
    2864:	1b093e01 	blne	252070 <__bss_end__+0x247af0>
    2868:	000021e4 	andeq	r2, r0, r4, ror #3
    286c:	00001597 	muleq	r0, r7, r5
    2870:	00001595 	muleq	r0, r5, r5
    2874:	0021da1b 	eoreq	sp, r1, fp, lsl sl
    2878:	00159700 	andseq	r9, r5, r0, lsl #14
    287c:	00159500 	andseq	r9, r5, r0, lsl #10
    2880:	21d01b00 	bicscs	r1, r0, r0, lsl #22
    2884:	15970000 	ldrne	r0, [r7]
    2888:	15950000 	ldrne	r0, [r5]
    288c:	c41e0000 	ldrgt	r0, [lr], #-0
    2890:	1f000021 	svcne	0x00000021
    2894:	000021ef 	andeq	r2, r0, pc, ror #3
    2898:	000085f0 	strdeq	r8, [r0], -r0
    289c:	0a880004 	beq	fe2028b4 <__bss_end__+0xfe1f8334>
    28a0:	e5020000 	str	r0, [r2, #-0]
    28a4:	00265d05 	eoreq	r5, r6, r5, lsl #26
    28a8:	22081b00 	andcs	r1, r8, #0, 22
    28ac:	15ad0000 	strne	r0, [sp, #0]!
    28b0:	15ab0000 	strne	r0, [fp, #0]!
    28b4:	fc1e0000 	ldc2	0, cr0, [lr], {-0}
    28b8:	20000021 	andcs	r0, r0, r1, lsr #32
    28bc:	00002212 	andeq	r2, r0, r2, lsl r2
    28c0:	00000ad8 	ldrdeq	r0, [r0], -r8
    28c4:	0022131d 	eoreq	r1, r2, sp, lsl r3
    28c8:	0015c300 	andseq	ip, r5, r0, lsl #6
    28cc:	0015c100 	andseq	ip, r5, r0, lsl #2
    28d0:	221f1a00 	andscs	r1, pc, #0, 20
    28d4:	85f40000 	ldrbhi	r0, [r4, #0]!
    28d8:	00010000 	andeq	r0, r1, r0
    28dc:	00000b20 	andeq	r0, r0, r0, lsr #22
    28e0:	1b09db02 	blne	2794f0 <__bss_end__+0x26ef70>
    28e4:	00002238 	andeq	r2, r0, r8, lsr r2
    28e8:	000015d9 	ldrdeq	r1, [r0], -r9
    28ec:	000015d7 	ldrdeq	r1, [r0], -r7
    28f0:	00222c1e 	eoreq	r2, r2, lr, lsl ip
    28f4:	22ab1f00 	adccs	r1, fp, #0, 30
    28f8:	85f40000 	ldrbhi	r0, [r4, #0]!
    28fc:	00040000 	andeq	r0, r4, r0
    2900:	00000b60 	andeq	r0, r0, r0, ror #22
    2904:	8a09cf02 	bhi	276514 <__bss_end__+0x26bf94>
    2908:	1e000025 	cdpne	0, 0, cr0, cr0, cr5, {1}
    290c:	000022b8 			; <UNDEFINED> instruction: 0x000022b8
    2910:	00231f1a 	eoreq	r1, r3, sl, lsl pc
    2914:	0085f400 	addeq	pc, r5, r0, lsl #8
    2918:	88000600 	stmdahi	r0, {r9, sl}
    291c:	0200000b 	andeq	r0, r0, #11, 0
    2920:	381b05b1 	ldmdacc	fp, {r0, r4, r5, r7, r8, sl}
    2924:	ef000023 	svc	0x00000023
    2928:	ed000015 	stc	0, cr0, [r0, #-84]	; 0xffffffac
    292c:	1e000015 	mcrne	0, 0, r0, cr0, cr5, {0}
    2930:	0000232c 	andeq	r2, r0, ip, lsr #6
    2934:	000b8821 	andeq	r8, fp, r1, lsr #16
    2938:	23441d00 	movtcs	r1, #19712	; 0x4d00
    293c:	16060000 	strne	r0, [r6], -r0
    2940:	16040000 	strne	r0, [r4], -r0
    2944:	b71f0000 	ldrlt	r0, [pc, -r0]
    2948:	f8000023 			; <UNDEFINED> instruction: 0xf8000023
    294c:	03000085 	movweq	r0, #133	; 0x85
    2950:	000ba800 	andeq	sl, fp, r0, lsl #16
    2954:	059e0200 	ldreq	r0, [lr, #512]	; 0x200
    2958:	00002525 	andeq	r2, r0, r5, lsr #10
    295c:	0023c41e 	eoreq	ip, r3, lr, lsl r4
    2960:	50220000 	eorpl	r0, r2, r0
    2964:	f4000023 	vst4.8	{d0-d3}, [r0 :128], r3
    2968:	04000085 	streq	r0, [r0], #-133	; 0xffffff7b
    296c:	44000000 	strmi	r0, [r0], #-0
    2970:	1d000025 	stcne	0, cr0, [r0, #-148]	; 0xffffff6c
    2974:	00002351 	andeq	r2, r0, r1, asr r3
    2978:	0000161b 	andeq	r1, r0, fp, lsl r6
    297c:	00001619 	andeq	r1, r0, r9, lsl r6
    2980:	235f2300 	cmpcs	pc, #0, 6
    2984:	85fc0000 	ldrbhi	r0, [ip, #0]!
    2988:	00100000 	andseq	r0, r0, r0
    298c:	9f020000 	svcls	0x00020000
    2990:	23781e05 	cmncs	r8, #80	; 0x50
    2994:	6c1e0000 	ldcvs	0, cr0, [lr], {-0}
    2998:	1d000023 	stcne	0, cr0, [r0, #-140]	; 0xffffff74
    299c:	00002384 	andeq	r2, r0, r4, lsl #7
    29a0:	00001630 	andeq	r1, r0, r0, lsr r6
    29a4:	0000162e 	andeq	r1, r0, lr, lsr #12
    29a8:	00238e24 	eoreq	r8, r3, r4, lsr #28
    29ac:	0085fc00 	addeq	pc, r5, r0, lsl #24
    29b0:	00000400 	andeq	r0, r0, r0, lsl #8
    29b4:	238f1d00 	orrcs	r1, pc, #0, 26
    29b8:	16450000 	strbne	r0, [r5], -r0
    29bc:	16430000 	strbne	r0, [r3], -r0
    29c0:	00000000 	andeq	r0, r0, r0
    29c4:	1a000000 	bne	29cc <__code_start__-0x5634>
    29c8:	00002277 	andeq	r2, r0, r7, ror r2
    29cc:	0000860c 	andeq	r8, r0, ip, lsl #12
    29d0:	0b480002 	bleq	12029e0 <__bss_end__+0x11f8460>
    29d4:	d0020000 	andle	r0, r2, r0
    29d8:	22841e09 	addcs	r1, r4, #144	; 0x90
    29dc:	df250000 	svcle	0x00250000
    29e0:	0c000022 	stceq	0, cr0, [r0], {34}	; 0x22
    29e4:	04000086 	streq	r0, [r0], #-134	; 0xffffff7a
    29e8:	00860c00 	addeq	r0, r6, r0, lsl #24
    29ec:	00001800 	andeq	r1, r0, r0, lsl #16
    29f0:	05b90200 	ldreq	r0, [r9, #512]!	; 0x200
    29f4:	0022f81b 	eoreq	pc, r2, fp, lsl r8	; <UNPREDICTABLE>
    29f8:	00165a00 	andseq	r5, r6, r0, lsl #20
    29fc:	00165800 	andseq	r5, r6, r0, lsl #16
    2a00:	22ec1e00 	rsccs	r1, ip, #0, 28
    2a04:	041d0000 	ldreq	r0, [sp], #-0
    2a08:	72000023 	andvc	r0, r0, #35, 0	; 0x23
    2a0c:	70000016 	andvc	r0, r0, r6, lsl r0
    2a10:	22000016 	andcs	r0, r0, #22, 0
    2a14:	00002310 	andeq	r2, r0, r0, lsl r3
    2a18:	0000860c 	andeq	r8, r0, ip, lsl #12
    2a1c:	00000004 	andeq	r0, r0, r4
    2a20:	000025f5 	strdeq	r2, [r0], -r5
    2a24:	0023111d 	eoreq	r1, r3, sp, lsl r1
    2a28:	00168700 	andseq	r8, r6, r0, lsl #14
    2a2c:	00168500 	andseq	r8, r6, r0, lsl #10
    2a30:	9d260000 	stcls	0, cr0, [r6, #-0]
    2a34:	10000023 	andne	r0, r0, r3, lsr #32
    2a38:	03000086 	movweq	r0, #134	; 0x86
    2a3c:	00861000 	addeq	r1, r6, r0
    2a40:	00000400 	andeq	r0, r0, r0, lsl #8
    2a44:	05a60200 	streq	r0, [r6, #512]!	; 0x200
    2a48:	00002615 	andeq	r2, r0, r5, lsl r6
    2a4c:	0023aa1e 	eoreq	sl, r3, lr, lsl sl
    2a50:	5f230000 	svcpl	0x00230000
    2a54:	14000023 	strne	r0, [r0], #-35	; 0xffffffdd
    2a58:	10000086 	andne	r0, r0, r6, lsl #1
    2a5c:	02000000 	andeq	r0, r0, #0, 0
    2a60:	781e05a7 	ldmdavc	lr, {r0, r1, r2, r5, r7, r8, sl}
    2a64:	1e000023 	cdpne	0, 0, cr0, cr0, cr3, {1}
    2a68:	0000236c 	andeq	r2, r0, ip, ror #6
    2a6c:	0023841d 	eoreq	r8, r3, sp, lsl r4
    2a70:	00169c00 	andseq	r9, r6, r0, lsl #24
    2a74:	00169a00 	andseq	r9, r6, r0, lsl #20
    2a78:	238e2400 	orrcs	r2, lr, #0, 8
    2a7c:	86140000 	ldrhi	r0, [r4], -r0
    2a80:	00040000 	andeq	r0, r4, r0
    2a84:	8f1d0000 	svchi	0x001d0000
    2a88:	b1000023 	tstlt	r0, r3, lsr #32
    2a8c:	af000016 	svcge	0x00000016
    2a90:	00000016 	andeq	r0, r0, r6, lsl r0
    2a94:	00000000 	andeq	r0, r0, r0
    2a98:	ef270000 	svc	0x00270000
    2a9c:	c8000021 	stmdagt	r0, {r0, r5}
    2aa0:	0200000b 	andeq	r0, r0, #11, 0
    2aa4:	285005e6 	ldmdacs	r0, {r1, r2, r5, r6, r7, r8, sl}^
    2aa8:	081e0000 	ldmdaeq	lr, {}	; <UNPREDICTABLE>
    2aac:	1e000022 	cdpne	0, 0, cr0, cr0, cr2, {1}
    2ab0:	000021fc 	strdeq	r2, [r0], -ip
    2ab4:	00221220 	eoreq	r1, r2, r0, lsr #4
    2ab8:	000bc800 	andeq	ip, fp, r0, lsl #16
    2abc:	22132800 	andscs	r2, r3, #0, 16
    2ac0:	1f1a0000 	svcne	0x001a0000
    2ac4:	30000022 	andcc	r0, r0, r2, lsr #32
    2ac8:	02000086 	andeq	r0, r0, #134, 0	; 0x86
    2acc:	000bf800 	andeq	pc, fp, r0, lsl #16
    2ad0:	09db0200 	ldmibeq	fp, {r9}^
    2ad4:	0022381b 	eoreq	r3, r2, fp, lsl r8
    2ad8:	0016c600 	andseq	ip, r6, r0, lsl #12
    2adc:	0016c400 	andseq	ip, r6, r0, lsl #8
    2ae0:	222c1e00 	eorcs	r1, ip, #0, 28
    2ae4:	ab1f0000 	blge	7c2aec <__bss_end__+0x7b856c>
    2ae8:	30000022 	andcc	r0, r0, r2, lsr #32
    2aec:	05000086 	streq	r0, [r0, #-134]	; 0xffffff7a
    2af0:	000c2800 	andeq	r2, ip, r0, lsl #16
    2af4:	09cf0200 	stmibeq	pc, {r9}^	; <UNPREDICTABLE>
    2af8:	0000277d 	andeq	r2, r0, sp, ror r7
    2afc:	0022b81e 	eoreq	fp, r2, lr, lsl r8
    2b00:	231f2500 	tstcs	pc, #0, 10
    2b04:	86300000 	ldrthi	r0, [r0], -r0
    2b08:	00070000 	andeq	r0, r7, r0
    2b0c:	00008630 	andeq	r8, r0, r0, lsr r6
    2b10:	00000018 	andeq	r0, r0, r8, lsl r0
    2b14:	1b05b102 	blne	16ef24 <__bss_end__+0x1649a4>
    2b18:	00002338 	andeq	r2, r0, r8, lsr r3
    2b1c:	000016dc 	ldrdeq	r1, [r0], -ip
    2b20:	000016da 	ldrdeq	r1, [r0], -sl
    2b24:	00232c1e 	eoreq	r2, r3, lr, lsl ip
    2b28:	23441d00 	movtcs	r1, #19712	; 0x4d00
    2b2c:	16f30000 	ldrbtne	r0, [r3], r0
    2b30:	16f10000 	ldrbtne	r0, [r1], r0
    2b34:	50220000 	eorpl	r0, r2, r0
    2b38:	30000023 	andcc	r0, r0, r3, lsr #32
    2b3c:	04000086 	streq	r0, [r0], #-134	; 0xffffff7a
    2b40:	18000000 	stmdane	r0, {}	; <UNPREDICTABLE>
    2b44:	1d000027 	stcne	0, cr0, [r0, #-156]	; 0xffffff64
    2b48:	00002351 	andeq	r2, r0, r1, asr r3
    2b4c:	00001708 	andeq	r1, r0, r8, lsl #14
    2b50:	00001706 	andeq	r1, r0, r6, lsl #14
    2b54:	23b72600 			; <UNDEFINED> instruction: 0x23b72600
    2b58:	86340000 	ldrthi	r0, [r4], -r0
    2b5c:	00030000 	andeq	r0, r3, r0
    2b60:	00008634 	andeq	r8, r0, r4, lsr r6
    2b64:	00000004 	andeq	r0, r0, r4
    2b68:	38059e02 	stmdacc	r5, {r1, r9, sl, fp, ip, pc}
    2b6c:	1e000027 	cdpne	0, 0, cr0, cr0, cr7, {1}
    2b70:	000023c4 	andeq	r2, r0, r4, asr #7
    2b74:	235f2300 	cmpcs	pc, #0, 6
    2b78:	86380000 	ldrthi	r0, [r8], -r0
    2b7c:	00100000 	andseq	r0, r0, r0
    2b80:	9f020000 	svcls	0x00020000
    2b84:	23781e05 	cmncs	r8, #80	; 0x50
    2b88:	6c1e0000 	ldcvs	0, cr0, [lr], {-0}
    2b8c:	1d000023 	stcne	0, cr0, [r0, #-140]	; 0xffffff74
    2b90:	00002384 	andeq	r2, r0, r4, lsl #7
    2b94:	0000171d 	andeq	r1, r0, sp, lsl r7
    2b98:	0000171b 	andeq	r1, r0, fp, lsl r7
    2b9c:	00238e24 	eoreq	r8, r3, r4, lsr #28
    2ba0:	00863800 	addeq	r3, r6, r0, lsl #16
    2ba4:	00000400 	andeq	r0, r0, r0, lsl #8
    2ba8:	238f1d00 	orrcs	r1, pc, #0, 26
    2bac:	17320000 	ldrne	r0, [r2, -r0]!
    2bb0:	17300000 	ldrne	r0, [r0, -r0]!
    2bb4:	00000000 	andeq	r0, r0, r0
    2bb8:	771a0000 	ldrvc	r0, [sl, -r0]
    2bbc:	48000022 	stmdami	r0, {r1, r5}
    2bc0:	02000086 	andeq	r0, r0, #134, 0	; 0x86
    2bc4:	000c1000 	andeq	r1, ip, r0
    2bc8:	09d00200 	ldmibeq	r0, {r9}^
    2bcc:	0022841e 	eoreq	r8, r2, lr, lsl r4
    2bd0:	22df2500 	sbcscs	r2, pc, #0, 10
    2bd4:	86480000 	strbhi	r0, [r8], -r0
    2bd8:	00040000 	andeq	r0, r4, r0
    2bdc:	00008648 	andeq	r8, r0, r8, asr #12
    2be0:	00000018 	andeq	r0, r0, r8, lsl r0
    2be4:	1b05b902 	blne	170ff4 <__bss_end__+0x166a74>
    2be8:	000022f8 	strdeq	r2, [r0], -r8
    2bec:	00001747 	andeq	r1, r0, r7, asr #14
    2bf0:	00001745 	andeq	r1, r0, r5, asr #14
    2bf4:	0022ec1e 	eoreq	lr, r2, lr, lsl ip
    2bf8:	23041d00 	movwcs	r1, #19712	; 0x4d00
    2bfc:	175f0000 	ldrbne	r0, [pc, -r0]
    2c00:	175d0000 	ldrbne	r0, [sp, -r0]
    2c04:	10220000 	eorne	r0, r2, r0
    2c08:	48000023 	stmdami	r0, {r0, r1, r5}
    2c0c:	04000086 	streq	r0, [r0], #-134	; 0xffffff7a
    2c10:	e8000000 	stmda	r0, {}	; <UNPREDICTABLE>
    2c14:	1d000027 	stcne	0, cr0, [r0, #-156]	; 0xffffff64
    2c18:	00002311 	andeq	r2, r0, r1, lsl r3
    2c1c:	00001774 	andeq	r1, r0, r4, ror r7
    2c20:	00001772 	andeq	r1, r0, r2, ror r7
    2c24:	239d2600 	orrscs	r2, sp, #0, 12
    2c28:	864c0000 	strbhi	r0, [ip], -r0
    2c2c:	00030000 	andeq	r0, r3, r0
    2c30:	0000864c 	andeq	r8, r0, ip, asr #12
    2c34:	00000004 	andeq	r0, r0, r4
    2c38:	0805a602 	stmdaeq	r5, {r1, r9, sl, sp, pc}
    2c3c:	1e000028 	cdpne	0, 0, cr0, cr0, cr8, {1}
    2c40:	000023aa 	andeq	r2, r0, sl, lsr #7
    2c44:	235f2300 	cmpcs	pc, #0, 6
    2c48:	86500000 	ldrbhi	r0, [r0], -r0
    2c4c:	00100000 	andseq	r0, r0, r0
    2c50:	a7020000 	strge	r0, [r2, -r0]
    2c54:	23781e05 	cmncs	r8, #80	; 0x50
    2c58:	6c1e0000 	ldcvs	0, cr0, [lr], {-0}
    2c5c:	1d000023 	stcne	0, cr0, [r0, #-140]	; 0xffffff74
    2c60:	00002384 	andeq	r2, r0, r4, lsl #7
    2c64:	00001789 	andeq	r1, r0, r9, lsl #15
    2c68:	00001787 	andeq	r1, r0, r7, lsl #15
    2c6c:	00238e24 	eoreq	r8, r3, r4, lsr #28
    2c70:	00865000 	addeq	r5, r6, r0
    2c74:	00000400 	andeq	r0, r0, r0, lsl #8
    2c78:	238f1d00 	orrcs	r1, pc, #0, 26
    2c7c:	179e0000 	ldrne	r0, [lr, r0]
    2c80:	179c0000 	ldrne	r0, [ip, r0]
	...
    2c8c:	21ef2900 	mvncs	r2, r0, lsl #18
    2c90:	0c400000 	mareq	acc0, r0, r0
    2c94:	e7020000 	str	r0, [r2, -r0]
    2c98:	22081e05 	andcs	r1, r8, #80	; 0x50
    2c9c:	fc1e0000 	ldc2	0, cr0, [lr], {-0}
    2ca0:	20000021 	andcs	r0, r0, r1, lsr #32
    2ca4:	00002212 	andeq	r2, r0, r2, lsl r2
    2ca8:	00000c40 	andeq	r0, r0, r0, asr #24
    2cac:	00221328 	eoreq	r1, r2, r8, lsr #6
    2cb0:	221f1a00 	andscs	r1, pc, #0, 20
    2cb4:	866c0000 	strbthi	r0, [ip], -r0
    2cb8:	00020000 	andeq	r0, r2, r0
    2cbc:	00000c70 	andeq	r0, r0, r0, ror ip
    2cc0:	1b09db02 	blne	2798d0 <__bss_end__+0x26f350>
    2cc4:	00002238 	andeq	r2, r0, r8, lsr r2
    2cc8:	000017b3 			; <UNDEFINED> instruction: 0x000017b3
    2ccc:	000017b1 			; <UNDEFINED> instruction: 0x000017b1
    2cd0:	00222c1e 	eoreq	r2, r2, lr, lsl ip
    2cd4:	22ab1f00 	adccs	r1, fp, #0, 30
    2cd8:	866c0000 	strbthi	r0, [ip], -r0
    2cdc:	00050000 	andeq	r0, r5, r0
    2ce0:	00000ca0 	andeq	r0, r0, r0, lsr #25
    2ce4:	6c09cf02 	stcvs	15, cr12, [r9], {2}
    2ce8:	1e000029 	cdpne	0, 0, cr0, cr0, cr9, {1}
    2cec:	000022b8 			; <UNDEFINED> instruction: 0x000022b8
    2cf0:	00231f25 	eoreq	r1, r3, r5, lsr #30
    2cf4:	00866c00 	addeq	r6, r6, r0, lsl #24
    2cf8:	6c000700 	stcvs	7, cr0, [r0], {-0}
    2cfc:	18000086 	stmdane	r0, {r1, r2, r7}
    2d00:	02000000 	andeq	r0, r0, #0, 0
    2d04:	381b05b1 	ldmdacc	fp, {r0, r4, r5, r7, r8, sl}
    2d08:	c9000023 	stmdbgt	r0, {r0, r1, r5}
    2d0c:	c7000017 	smladgt	r0, r7, r0, r0
    2d10:	1e000017 	mcrne	0, 0, r0, cr0, cr7, {0}
    2d14:	0000232c 	andeq	r2, r0, ip, lsr #6
    2d18:	0023441d 	eoreq	r4, r3, sp, lsl r4
    2d1c:	0017e000 	andseq	lr, r7, r0
    2d20:	0017de00 	andseq	sp, r7, r0, lsl #28
    2d24:	23502200 	cmpcs	r0, #0, 4
    2d28:	866c0000 	strbthi	r0, [ip], -r0
    2d2c:	00040000 	andeq	r0, r4, r0
    2d30:	29070000 	stmdbcs	r7, {}	; <UNPREDICTABLE>
    2d34:	511d0000 	tstpl	sp, r0
    2d38:	f5000023 			; <UNDEFINED> instruction: 0xf5000023
    2d3c:	f3000017 	vqadd.u8	d0, d0, d7
    2d40:	00000017 	andeq	r0, r0, r7, lsl r0
    2d44:	0023b726 	eoreq	fp, r3, r6, lsr #14
    2d48:	00867000 	addeq	r7, r6, r0
    2d4c:	70000300 	andvc	r0, r0, r0, lsl #6
    2d50:	04000086 	streq	r0, [r0], #-134	; 0xffffff7a
    2d54:	02000000 	andeq	r0, r0, #0, 0
    2d58:	2927059e 	stmdbcs	r7!, {r1, r2, r3, r4, r7, r8, sl}
    2d5c:	c41e0000 	ldrgt	r0, [lr], #-0
    2d60:	00000023 	andeq	r0, r0, r3, lsr #32
    2d64:	00235f23 	eoreq	r5, r3, r3, lsr #30
    2d68:	00867400 	addeq	r7, r6, r0, lsl #8
    2d6c:	00001000 	andeq	r1, r0, r0
    2d70:	059f0200 	ldreq	r0, [pc, #512]	; 2f78 <__code_start__-0x5088>
    2d74:	0023781e 	eoreq	r7, r3, lr, lsl r8
    2d78:	236c1e00 	cmncs	ip, #0, 28
    2d7c:	841d0000 	ldrhi	r0, [sp], #-0
    2d80:	0a000023 	beq	2e14 <__code_start__-0x51ec>
    2d84:	08000018 	stmdaeq	r0, {r3, r4}
    2d88:	24000018 	strcs	r0, [r0], #-24	; 0xffffffe8
    2d8c:	0000238e 	andeq	r2, r0, lr, lsl #7
    2d90:	00008674 	andeq	r8, r0, r4, ror r6
    2d94:	00000004 	andeq	r0, r0, r4
    2d98:	00238f1d 	eoreq	r8, r3, sp, lsl pc
    2d9c:	00181f00 	andseq	r1, r8, r0, lsl #30
    2da0:	00181d00 	andseq	r1, r8, r0, lsl #26
    2da4:	00000000 	andeq	r0, r0, r0
    2da8:	22771a00 	rsbscs	r1, r7, #0, 20
    2dac:	86840000 	strhi	r0, [r4], r0
    2db0:	00020000 	andeq	r0, r2, r0
    2db4:	00000c88 	andeq	r0, r0, r8, lsl #25
    2db8:	1e09d002 	cdpne	0, 0, cr13, cr9, cr2, {0}
    2dbc:	00002284 	andeq	r2, r0, r4, lsl #5
    2dc0:	0022df25 	eoreq	sp, r2, r5, lsr #30
    2dc4:	00868400 	addeq	r8, r6, r0, lsl #8
    2dc8:	84000400 	strhi	r0, [r0], #-1024	; 0xfffffc00
    2dcc:	18000086 	stmdane	r0, {r1, r2, r7}
    2dd0:	02000000 	andeq	r0, r0, #0, 0
    2dd4:	f81b05b9 			; <UNDEFINED> instruction: 0xf81b05b9
    2dd8:	34000022 	strcc	r0, [r0], #-34	; 0xffffffde
    2ddc:	32000018 	andcc	r0, r0, #24, 0
    2de0:	1e000018 	mcrne	0, 0, r0, cr0, cr8, {0}
    2de4:	000022ec 	andeq	r2, r0, ip, ror #5
    2de8:	0023041d 	eoreq	r0, r3, sp, lsl r4
    2dec:	00184c00 	andseq	r4, r8, r0, lsl #24
    2df0:	00184a00 	andseq	r4, r8, r0, lsl #20
    2df4:	23102200 	tstcs	r0, #0, 4
    2df8:	86840000 	strhi	r0, [r4], r0
    2dfc:	00040000 	andeq	r0, r4, r0
    2e00:	29d70000 	ldmibcs	r7, {}^	; <UNPREDICTABLE>
    2e04:	111d0000 	tstne	sp, r0
    2e08:	61000023 	tstvs	r0, r3, lsr #32
    2e0c:	5f000018 	svcpl	0x00000018
    2e10:	00000018 	andeq	r0, r0, r8, lsl r0
    2e14:	00239d26 	eoreq	r9, r3, r6, lsr #26
    2e18:	00868800 	addeq	r8, r6, r0, lsl #16
    2e1c:	88000300 	stmdahi	r0, {r8, r9}
    2e20:	04000086 	streq	r0, [r0], #-134	; 0xffffff7a
    2e24:	02000000 	andeq	r0, r0, #0, 0
    2e28:	29f705a6 	ldmibcs	r7!, {r1, r2, r5, r7, r8, sl}^
    2e2c:	aa1e0000 	bge	782e34 <__bss_end__+0x7788b4>
    2e30:	00000023 	andeq	r0, r0, r3, lsr #32
    2e34:	00235f23 	eoreq	r5, r3, r3, lsr #30
    2e38:	00868c00 	addeq	r8, r6, r0, lsl #24
    2e3c:	00001000 	andeq	r1, r0, r0
    2e40:	05a70200 	streq	r0, [r7, #512]!	; 0x200
    2e44:	0023781e 	eoreq	r7, r3, lr, lsl r8
    2e48:	236c1e00 	cmncs	ip, #0, 28
    2e4c:	841d0000 	ldrhi	r0, [sp], #-0
    2e50:	76000023 	strvc	r0, [r0], -r3, lsr #32
    2e54:	74000018 	strvc	r0, [r0], #-24	; 0xffffffe8
    2e58:	24000018 	strcs	r0, [r0], #-24	; 0xffffffe8
    2e5c:	0000238e 	andeq	r2, r0, lr, lsl #7
    2e60:	0000868c 	andeq	r8, r0, ip, lsl #13
    2e64:	00000004 	andeq	r0, r0, r4
    2e68:	00238f1d 	eoreq	r8, r3, sp, lsl pc
    2e6c:	00188b00 	andseq	r8, r8, r0, lsl #22
    2e70:	00188900 	andseq	r8, r8, r0, lsl #18
	...
    2e7c:	b82a0000 	stmdalt	sl!, {}	; <UNPREDICTABLE>
    2e80:	3e000086 	cdpcc	0, 0, cr0, cr0, cr6, {4}
    2e84:	2a000015 	bcs	2ee0 <__code_start__-0x5120>
    2e88:	000086bc 			; <UNDEFINED> instruction: 0x000086bc
    2e8c:	0000153e 	andeq	r1, r0, lr, lsr r5
    2e90:	02af3b00 	adceq	r3, pc, #0, 22
    2e94:	02af0000 	adceq	r0, pc, #0, 0
    2e98:	7b040000 	blvc	102ea0 <__bss_end__+0xf8920>
    2e9c:	02603b07 	rsbeq	r3, r0, #7168	; 0x1c00
    2ea0:	02600000 	rsbeq	r0, r0, #0, 0
    2ea4:	f2040000 	vhadd.s8	d0, d4, d0
    2ea8:	00c43b07 	sbceq	r3, r4, r7, lsl #22
    2eac:	00c40000 	sbceq	r0, r4, r0
    2eb0:	1d060000 	stcne	0, cr0, [r6, #-0]
    2eb4:	06190006 	ldreq	r0, [r9], -r6
    2eb8:	00050000 	andeq	r0, r5, r0
    2ebc:	04fe0401 	ldrbteq	r0, [lr], #1025	; 0x401
    2ec0:	05150000 	ldreq	r0, [r5, #-0]
    2ec4:	0c000003 	stceq	0, cr0, [r0], {3}
    2ec8:	000003f2 	strdeq	r0, [r0], -r2
    2ecc:	0000043b 	andeq	r0, r0, fp, lsr r4
    2ed0:	000087d0 	ldrdeq	r8, [r0], -r0
    2ed4:	000001a0 	andeq	r0, r0, r0, lsr #3
    2ed8:	00001157 	andeq	r1, r0, r7, asr r1
    2edc:	a6070803 	strge	r0, [r7], -r3, lsl #16
    2ee0:	03000001 	movweq	r0, #1
    2ee4:	01b00704 	lslseq	r0, r4, #14
    2ee8:	04160000 	ldreq	r0, [r6], #-0
    2eec:	746e6905 	strbtvc	r6, [lr], #-2309	; 0xfffff6fb
    2ef0:	002d1700 	eoreq	r1, sp, r0, lsl #14
    2ef4:	01030000 	mrseq	r0, (UNDEF: 3)
    2ef8:	00008f06 	andeq	r8, r0, r6, lsl #30
    2efc:	05020300 	streq	r0, [r2, #-768]	; 0xfffffd00
    2f00:	000001e7 	andeq	r0, r0, r7, ror #3
    2f04:	d2050403 	andle	r0, r5, #50331648	; 0x3000000
    2f08:	03000001 	movweq	r0, #1
    2f0c:	01cd0508 	biceq	r0, sp, r8, lsl #10
    2f10:	01030000 	mrseq	r0, (UNDEF: 3)
    2f14:	00008d08 	andeq	r8, r0, r8, lsl #26
    2f18:	07020300 	streq	r0, [r2, -r0, lsl #6]
    2f1c:	000000a4 	andeq	r0, r0, r4, lsr #1
    2f20:	00028413 	andeq	r8, r2, r3, lsl r4
    2f24:	19340200 	ldmdbne	r4!, {r9}
    2f28:	00000076 	andeq	r0, r0, r6, ror r0
    2f2c:	ab070403 	blge	1c3f40 <__bss_end__+0x1b99c0>
    2f30:	03000001 	movweq	r0, #1
    2f34:	00960801 	addseq	r0, r6, r1, lsl #16
    2f38:	07180000 	ldreq	r0, [r8, -r0]
    2f3c:	00005c01 	andeq	r5, r0, r1, lsl #24
    2f40:	0e0c0300 	cdpeq	3, 0, cr0, cr12, cr0, {0}
    2f44:	000000c3 	andeq	r0, r0, r3, asr #1
    2f48:	00046206 	andeq	r6, r4, r6, lsl #4
    2f4c:	ea060000 	b	182f54 <__bss_end__+0x1789d4>
    2f50:	01000002 	tsteq	r0, r2
    2f54:	0003a706 	andeq	sl, r3, r6, lsl #14
    2f58:	b6060400 	strlt	r0, [r6], -r0, lsl #8
    2f5c:	05000003 	streq	r0, [r0, #-3]
    2f60:	0003c506 	andeq	ip, r3, r6, lsl #10
    2f64:	d4060600 	strle	r0, [r6], #-1536	; 0xfffffa00
    2f68:	07000003 	streq	r0, [r0, -r3]
    2f6c:	00042c06 	andeq	r2, r4, r6, lsl #24
    2f70:	e3060300 	movw	r0, #25344	; 0x6300
    2f74:	02000003 	andeq	r0, r0, #3, 0
    2f78:	04201300 	strteq	r1, [r0], #-768	; 0xfffffd00
    2f7c:	15030000 	strne	r0, [r3, #-0]
    2f80:	00008403 	andeq	r8, r0, r3, lsl #8
    2f84:	00150d00 	andseq	r0, r5, r0, lsl #26
    2f88:	3b1d0000 	blcc	742f90 <__bss_end__+0x738a10>
    2f8c:	1c000000 	stcne	0, cr0, [r0], {-0}
    2f90:	0d202000 	stceq	0, cr2, [r0, #-0]
    2f94:	0000000b 	andeq	r0, r0, fp
    2f98:	00003b1e 	andeq	r3, r0, lr, lsl fp
    2f9c:	20002800 	andcs	r2, r0, r0, lsl #16
    2fa0:	01bd0d20 			; <UNDEFINED> instruction: 0x01bd0d20
    2fa4:	3b1f0000 	blcc	7c2fac <__bss_end__+0x7b8a2c>
    2fa8:	34000000 	strcc	r0, [r0], #-0
    2fac:	19202000 	stmdbne	r0!, {sp}
    2fb0:	00000391 	muleq	r0, r1, r3
    2fb4:	1006ad04 	andne	sl, r6, r4, lsl #26
    2fb8:	0e000001 	cdpeq	0, 0, cr0, cr0, cr1, {0}
    2fbc:	0000002d 	andeq	r0, r0, sp, lsr #32
    2fc0:	00002d0e 	andeq	r2, r0, lr, lsl #26
    2fc4:	a11a0000 	tstge	sl, r0
    2fc8:	04000003 	streq	r0, [r0], #-3
    2fcc:	002d0ac2 	eoreq	r0, sp, r2, asr #21
    2fd0:	01260000 			; <UNDEFINED> instruction: 0x01260000
    2fd4:	2d0e0000 	stccs	0, cr0, [lr, #-0]
    2fd8:	00000000 	andeq	r0, r0, r0
    2fdc:	0003971b 	andeq	r9, r3, fp, lsl r7
    2fe0:	05510100 	ldrbeq	r0, [r1, #-256]	; 0xffffff00
    2fe4:	00000034 	andeq	r0, r0, r4, lsr r0
    2fe8:	00008948 	andeq	r8, r0, r8, asr #18
    2fec:	00000028 	andeq	r0, r0, r8, lsr #32
    2ff0:	01949c01 	orrseq	r9, r4, r1, lsl #24
    2ff4:	70080000 	andvc	r0, r8, r0
    2ff8:	51006e69 	tstpl	r0, r9, ror #28
    2ffc:	00002d18 	andeq	r2, r0, r8, lsl sp
    3000:	00001200 	andeq	r1, r0, r0, lsl #4
    3004:	00000c00 	andeq	r0, r0, r0, lsl #24
    3008:	045d1c00 	ldrbeq	r1, [sp], #-3072	; 0xfffff400
    300c:	52010000 	andpl	r0, r1, #0, 0
    3010:	00002d0e 	andeq	r2, r0, lr, lsl #26
    3014:	00003300 	andeq	r3, r0, r0, lsl #6
    3018:	00002b00 	andeq	r2, r0, r0, lsl #22
    301c:	666f1d00 	strbtvs	r1, [pc], -r0, lsl #26
    3020:	53010066 	movwpl	r0, #4198	; 0x1066
    3024:	00002d0e 	andeq	r2, r0, lr, lsl #26
    3028:	00007500 	andeq	r7, r0, r0, lsl #10
    302c:	00006f00 	andeq	r6, r0, r0, lsl #30
    3030:	895c1e00 	ldmdbhi	ip, {r9, sl, fp, ip}^
    3034:	01100000 	tsteq	r0, r0
    3038:	01010000 	mrseq	r0, (UNDEF: 1)
    303c:	00740a50 	rsbseq	r0, r4, r0, asr sl
    3040:	b4232535 	strtlt	r2, [r3], #-1333	; 0xfffffacb
    3044:	02818080 	addeq	r8, r1, #128, 0	; 0x80
    3048:	df0f0000 	svcle	0x000f0000
    304c:	4a000002 	bmi	305c <__code_start__-0x4fa4>
    3050:	00008918 	andeq	r8, r0, r8, lsl r9
    3054:	00000030 	andeq	r0, r0, r0, lsr r0
    3058:	024b9c01 	subeq	r9, fp, #256	; 0x100
    305c:	70080000 	andvc	r0, r8, r0
    3060:	4a006e69 	bmi	1ea0c <__bss_end__+0x1448c>
    3064:	00002d1a 	andeq	r2, r0, sl, lsl sp
    3068:	00009f00 	andeq	r9, r0, r0, lsl #30
    306c:	00009300 	andeq	r9, r0, r0, lsl #6
    3070:	00760800 	rsbseq	r0, r6, r0, lsl #16
    3074:	002d284a 	eoreq	r2, sp, sl, asr #16
    3078:	00d40000 	sbcseq	r0, r4, r0
    307c:	00d00000 	sbcseq	r0, r0, r0
    3080:	5d1f0000 	ldcpl	0, cr0, [pc, #-0]	; 3088 <__code_start__-0x4f78>
    3084:	28000003 	stmdacs	r0, {r0, r1}
    3088:	01000089 	smlabbeq	r0, r9, r0, r0
    308c:	00000050 	andeq	r0, r0, r0, asr r0
    3090:	0b094c01 	bleq	25609c <__bss_end__+0x24bb1c>
    3094:	02000002 	andeq	r0, r0, #2, 0
    3098:	00000369 	andeq	r0, r0, r9, ror #6
    309c:	000000ec 	andeq	r0, r0, ip, ror #1
    30a0:	000000e6 	andeq	r0, r0, r6, ror #1
    30a4:	00893407 	addeq	r3, r9, r7, lsl #8
    30a8:	0000f900 	andeq	pc, r0, r0, lsl #18
    30ac:	50010100 	andpl	r0, r1, r0, lsl #2
    30b0:	001c0c05 	andseq	r0, ip, r5, lsl #24
    30b4:	01012020 	tsteq	r1, r0, lsr #32
    30b8:	a3310551 	teqge	r1, #339738624	; 0x14400000
    30bc:	00245001 	eoreq	r5, r4, r1
    30c0:	03442000 	movteq	r2, #16384	; 0x4000
    30c4:	89340000 	ldmdbhi	r4!, {}	; <UNPREDICTABLE>
    30c8:	34020000 	strcc	r0, [r2], #-0
    30cc:	14000089 	strne	r0, [r0], #-137	; 0xffffff77
    30d0:	01000000 	mrseq	r0, (UNDEF: 0)
    30d4:	5002094e 	andpl	r0, r2, lr, asr #18
    30d8:	0b000003 	bleq	30ec <__code_start__-0x4f14>
    30dc:	05000001 	streq	r0, [r0, #-1]
    30e0:	07000001 	streq	r0, [r0, -r1]
    30e4:	00008940 	andeq	r8, r0, r0, asr #18
    30e8:	000000f9 	strdeq	r0, [r0], -r9
    30ec:	05500101 	ldrbeq	r0, [r0, #-257]	; 0xfffffeff
    30f0:	2000280c 	andcs	r2, r0, ip, lsl #16
    30f4:	51010120 	tstpl	r1, r0, lsr #2
    30f8:	01a33105 			; <UNDEFINED> instruction: 0x01a33105
    30fc:	00002450 	andeq	r2, r0, r0, asr r4
    3100:	03ff0f00 	mvnseq	r0, #0, 30
    3104:	c0450000 	subgt	r0, r5, r0
    3108:	58000088 	stmdapl	r0, {r3, r7}
    310c:	01000000 	mrseq	r0, (UNDEF: 0)
    3110:	0003449c 	muleq	r3, ip, r4
    3114:	69700800 	ldmdbvs	r0!, {fp}^
    3118:	1e45006e 	cdpne	0, 4, cr0, cr5, cr14, {3}
    311c:	0000002d 	andeq	r0, r0, sp, lsr #32
    3120:	0000012a 	andeq	r0, r0, sl, lsr #2
    3124:	00000124 	andeq	r0, r0, r4, lsr #2
    3128:	00046f09 	andeq	r6, r4, r9, lsl #30
    312c:	0088c000 	addeq	ip, r8, r0
    3130:	00300200 	eorseq	r0, r0, r0, lsl #4
    3134:	05460000 	strbeq	r0, [r6, #-0]
    3138:	0004870b 	andeq	r8, r4, fp, lsl #14
    313c:	7b020000 	blvc	83144 <__bss_end__+0x78bc4>
    3140:	49000004 	stmdbmi	r0, {r2}
    3144:	43000001 	movwmi	r0, #1
    3148:	0a000001 	beq	3154 <__code_start__-0x4eac>
    314c:	00000030 	andeq	r0, r0, r0, lsr r0
    3150:	00049304 	andeq	r9, r4, r4, lsl #6
    3154:	049d0400 	ldreq	r0, [sp], #1024	; 0x400
    3158:	a5040000 	strge	r0, [r4, #-0]
    315c:	09000004 	stmdbeq	r0, {r2}
    3160:	0000046f 	andeq	r0, r0, pc, ror #8
    3164:	000088c8 	andeq	r8, r0, r8, asr #17
    3168:	00004000 	andeq	r4, r0, r0
    316c:	0b062800 	bleq	18d174 <__bss_end__+0x182bf4>
    3170:	00000487 	andeq	r0, r0, r7, lsl #9
    3174:	047b0200 	ldrbteq	r0, [fp], #-512	; 0xfffffe00
    3178:	01680000 	cmneq	r8, r0
    317c:	01620000 	cmneq	r2, r0
    3180:	400a0000 	andmi	r0, sl, r0
    3184:	05000000 	streq	r0, [r0, #-0]
    3188:	00000493 	muleq	r0, r3, r4
    318c:	00000187 	andeq	r0, r0, r7, lsl #3
    3190:	00000181 	andeq	r0, r0, r1, lsl #3
    3194:	00049d05 	andeq	r9, r4, r5, lsl #26
    3198:	0001b600 	andeq	fp, r1, r0, lsl #12
    319c:	0001b000 	andeq	fp, r1, r0
    31a0:	04a50500 	strteq	r0, [r5], #1280	; 0x500
    31a4:	01f90000 	mvnseq	r0, r0
    31a8:	01f10000 	mvnseq	r0, r0
    31ac:	f0100000 			; <UNDEFINED> instruction: 0xf0100000
    31b0:	10000088 	andne	r0, r0, r8, lsl #1
    31b4:	0c000001 	stceq	0, cr0, [r0], {1}
    31b8:	01000003 	tsteq	r0, r3
    31bc:	76025001 	strvc	r5, [r2], -r1
    31c0:	14070000 	strne	r0, [r7], #-0
    31c4:	f9000089 			; <UNDEFINED> instruction: 0xf9000089
    31c8:	01000000 	mrseq	r0, (UNDEF: 0)
    31cc:	a3255001 			; <UNDEFINED> instruction: 0xa3255001
    31d0:	2da85001 	stccs	0, cr5, [r8, #4]!
    31d4:	26a426a8 	strtcs	r2, [r4], r8, lsr #13
    31d8:	cccccd08 	stclgt	13, cr12, [ip], {8}
    31dc:	000000cc 	andeq	r0, r0, ip, asr #1
    31e0:	20081e00 	andcs	r1, r8, r0, lsl #28
    31e4:	a82526a8 	stmdage	r5!, {r3, r5, r7, r9, sl, sp}
    31e8:	3300a82d 	movwcc	sl, #2093	; 0x82d
    31ec:	80802325 	addhi	r2, r0, r5, lsr #6
    31f0:	243240a0 	ldrtcs	r4, [r2], #-160	; 0xffffff60
    31f4:	00000000 	andeq	r0, r0, r0
    31f8:	0e110000 	cdpeq	0, 1, cr0, cr1, cr0, {0}
    31fc:	40000004 	andmi	r0, r0, r4
    3200:	035d030d 	cmpeq	sp, #872415232	; 0x34000000
    3204:	700c0000 	andvc	r0, ip, r0
    3208:	01006e69 	tsteq	r0, r9, ror #28
    320c:	002d2340 	eoreq	r2, sp, r0, asr #6
    3210:	11000000 	mrsne	r0, (UNDEF: 0)
    3214:	00000484 	andeq	r0, r0, r4, lsl #9
    3218:	76030d3b 			; <UNDEFINED> instruction: 0x76030d3b
    321c:	0c000003 	stceq	0, cr0, [r0], {3}
    3220:	006e6970 	rsbeq	r6, lr, r0, ror r9
    3224:	2d223b01 	fstmdbxcs	r2!, {d3-d2}	;@ Deprecated
    3228:	00000000 	andeq	r0, r0, r0
    322c:	0000c40f 	andeq	ip, r0, pc, lsl #8
    3230:	88343600 	ldmdahi	r4!, {r9, sl, ip, sp}
    3234:	005c0000 	subseq	r0, ip, r0
    3238:	9c010000 	stcls	0, cr0, [r1], {-0}
    323c:	0000046f 	andeq	r0, r0, pc, ror #8
    3240:	6e697008 	cdpvs	0, 6, cr7, cr9, cr8, {0}
    3244:	2d1f3600 	ldccs	6, cr3, [pc, #-0]	; 324c <__code_start__-0x4db4>
    3248:	40000000 	andmi	r0, r0, r0
    324c:	3c000002 	stccc	0, cr0, [r0], {2}
    3250:	09000002 	stmdbeq	r0, {r1}
    3254:	0000046f 	andeq	r0, r0, pc, ror #8
    3258:	00008834 	andeq	r8, r0, r4, lsr r8
    325c:	00001602 	andeq	r1, r0, r2, lsl #12
    3260:	0b053700 	bleq	150e68 <__bss_end__+0x1468e8>
    3264:	00000487 	andeq	r0, r0, r7, lsl #9
    3268:	047b0201 	ldrbteq	r0, [fp], #-513	; 0xfffffdff
    326c:	02550000 	subseq	r0, r5, #0, 0
    3270:	02510000 	subseq	r0, r1, #0, 0
    3274:	160a0000 	strne	r0, [sl], -r0
    3278:	04000000 	streq	r0, [r0], #-0
    327c:	00000493 	muleq	r0, r3, r4
    3280:	00049d04 	andeq	r9, r4, r4, lsl #26
    3284:	04a50400 	strteq	r0, [r5], #1024	; 0x400
    3288:	6f090000 	svcvs	0x00090000
    328c:	3c000004 	stccc	0, cr0, [r0], {4}
    3290:	00000088 	andeq	r0, r0, r8, lsl #1
    3294:	00000023 	andeq	r0, r0, r3, lsr #32
    3298:	870b0628 	strhi	r0, [fp, -r8, lsr #12]
    329c:	01000004 	tsteq	r0, r4
    32a0:	00047b02 	andeq	r7, r4, r2, lsl #22
    32a4:	00026a00 	andeq	r6, r2, r0, lsl #20
    32a8:	00026600 	andeq	r6, r2, r0, lsl #12
    32ac:	00230a00 	eoreq	r0, r3, r0, lsl #20
    32b0:	93050000 	movwls	r0, #20480	; 0x5000
    32b4:	7f000004 	svcvc	0x00000004
    32b8:	7b000002 	blvc	32c8 <__code_start__-0x4d38>
    32bc:	05000002 	streq	r0, [r0, #-2]
    32c0:	0000049d 	muleq	r0, sp, r4
    32c4:	000002bc 			; <UNDEFINED> instruction: 0x000002bc
    32c8:	000002b6 			; <UNDEFINED> instruction: 0x000002b6
    32cc:	0004a505 	andeq	sl, r4, r5, lsl #10
    32d0:	0002ff00 	andeq	pc, r2, r0, lsl #30
    32d4:	0002f700 	andeq	pc, r2, r0, lsl #14
    32d8:	88681000 	stmdahi	r8!, {ip}^
    32dc:	01100000 	tsteq	r0, r0
    32e0:	04370000 	ldrteq	r0, [r7], #-0
    32e4:	01010000 	mrseq	r0, (UNDEF: 1)
    32e8:	00750250 	rsbseq	r0, r5, r0, asr r2
    32ec:	888c0700 	stmhi	ip, {r8, r9, sl}
    32f0:	00f90000 	rscseq	r0, r9, r0
    32f4:	01010000 	mrseq	r0, (UNDEF: 1)
    32f8:	01a32550 			; <UNDEFINED> instruction: 0x01a32550
    32fc:	a82da850 	stmdage	sp!, {r4, r6, fp, sp, pc}
    3300:	0826a426 	stmdaeq	r6!, {r1, r2, r5, sl, sp, pc}
    3304:	cccccccd 	stclgt	12, cr12, [ip], {205}	; 0xcd
    3308:	00000000 	andeq	r0, r0, r0
    330c:	a820081e 	stmdage	r0!, {r1, r2, r3, r4, fp}
    3310:	2da82526 	cfstr32cs	mvfx2, [r8, #152]!	; 0x98
    3314:	253300a8 	ldrcs	r0, [r3, #-168]!	; 0xffffff58
    3318:	a0808023 	addge	r8, r0, r3, lsr #32
    331c:	00243240 	eoreq	r3, r4, r0, asr #4
    3320:	00000000 	andeq	r0, r0, r0
    3324:	04721100 	ldrbteq	r1, [r2], #-256	; 0xffffff00
    3328:	06280000 	strteq	r0, [r8], -r0
    332c:	0004ae01 	andeq	sl, r4, r1, lsl #28
    3330:	69700c00 	ldmdbvs	r0!, {sl, fp}^
    3334:	2801006e 	stmdacs	r1, {r1, r2, r3, r5, r6}
    3338:	00002d21 	andeq	r2, r0, r1, lsr #26
    333c:	041b2100 	ldreq	r2, [fp], #-256	; 0xffffff00
    3340:	28010000 	stmdacs	r1, {}	; <UNPREDICTABLE>
    3344:	0000c332 	andeq	ip, r0, r2, lsr r3
    3348:	666f1200 	strbtvs	r1, [pc], -r0, lsl #4
    334c:	2d2d0066 	stccs	0, cr0, [sp, #-408]!	; 0xfffffe68
    3350:	12000000 	andne	r0, r0, #0, 0
    3354:	2d2e0067 	stccs	0, cr0, [lr, #-412]!	; 0xfffffe64
    3358:	12000000 	andne	r0, r0, #0, 0
    335c:	2d300076 	ldccs	0, cr0, [r0, #-472]!	; 0xfffffe28
    3360:	00000000 	andeq	r0, r0, r0
    3364:	0002fb22 	andeq	pc, r2, r2, lsr #22
    3368:	18b10400 	ldmne	r1!, {sl}
    336c:	0000006a 	andeq	r0, r0, sl, rrx
    3370:	0004ca03 	andeq	ip, r4, r3, lsl #20
    3374:	00780c00 	rsbseq	r0, r8, r0, lsl #24
    3378:	6a2bb104 	bvs	aef790 <__bss_end__+0xae5210>
    337c:	00000000 	andeq	r0, r0, r0
    3380:	00046f14 	andeq	r6, r4, r4, lsl pc
    3384:	0087d000 	addeq	sp, r7, r0
    3388:	00006400 	andeq	r6, r0, r0, lsl #8
    338c:	a69c0100 	ldrge	r0, [ip], r0, lsl #2
    3390:	02000005 	andeq	r0, r0, #5, 0
    3394:	0000047b 	andeq	r0, r0, fp, ror r4
    3398:	00000327 	andeq	r0, r0, r7, lsr #6
    339c:	00000323 	andeq	r0, r0, r3, lsr #6
    33a0:	00048702 	andeq	r8, r4, r2, lsl #14
    33a4:	00033900 	andeq	r3, r3, r0, lsl #18
    33a8:	00033500 	andeq	r3, r3, r0, lsl #10
    33ac:	04930400 	ldreq	r0, [r3], #1024	; 0x400
    33b0:	9d040000 	stcls	0, cr0, [r4, #-0]
    33b4:	04000004 	streq	r0, [r0], #-4
    33b8:	000004a5 	andeq	r0, r0, r5, lsr #9
    33bc:	00046f09 	andeq	r6, r4, r9, lsl #30
    33c0:	0087d800 	addeq	sp, r7, r0, lsl #16
    33c4:	000c0000 	andeq	r0, ip, r0
    33c8:	06280000 	strteq	r0, [r8], -r0
    33cc:	00048702 	andeq	r8, r4, r2, lsl #14
    33d0:	00034b00 	andeq	r4, r3, r0, lsl #22
    33d4:	00034700 	andeq	r4, r3, r0, lsl #14
    33d8:	047b0200 	ldrbteq	r0, [fp], #-512	; 0xfffffe00
    33dc:	035d0000 	cmpeq	sp, #0, 0
    33e0:	03590000 	cmpeq	r9, #0, 0
    33e4:	0c0a0000 	stceq	0, cr0, [sl], {-0}
    33e8:	05000000 	streq	r0, [r0, #-0]
    33ec:	00000493 	muleq	r0, r3, r4
    33f0:	0000036f 	andeq	r0, r0, pc, ror #6
    33f4:	0000036b 	andeq	r0, r0, fp, ror #6
    33f8:	00049d05 	andeq	r9, r4, r5, lsl #26
    33fc:	0003a800 	andeq	sl, r3, r0, lsl #16
    3400:	0003a200 	andeq	sl, r3, r0, lsl #4
    3404:	04a50500 	strteq	r0, [r5], #1280	; 0x500
    3408:	03e30000 	mvneq	r0, #0, 0
    340c:	03dd0000 	bicseq	r0, sp, #0, 0
    3410:	10100000 	andsne	r0, r0, r0
    3414:	10000088 	andne	r0, r0, r8, lsl #1
    3418:	70000001 	andvc	r0, r0, r1
    341c:	01000005 	tsteq	r0, r5
    3420:	76025001 	strvc	r5, [r2], -r1
    3424:	30070000 	andcc	r0, r7, r0
    3428:	f9000088 			; <UNDEFINED> instruction: 0xf9000088
    342c:	01000000 	mrseq	r0, (UNDEF: 0)
    3430:	a3255001 			; <UNDEFINED> instruction: 0xa3255001
    3434:	2da85001 	stccs	0, cr5, [r8, #4]!
    3438:	26a426a8 	strtcs	r2, [r4], r8, lsr #13
    343c:	cccccd08 	stclgt	13, cr12, [ip], {8}
    3440:	000000cc 	andeq	r0, r0, ip, asr #1
    3444:	20081e00 	andcs	r1, r8, r0, lsl #28
    3448:	a82526a8 	stmdage	r5!, {r3, r5, r7, r9, sl, sp}
    344c:	3300a82d 	movwcc	sl, #2093	; 0x82d
    3450:	80802325 	addhi	r2, r0, r5, lsr #6
    3454:	243240a0 	ldrtcs	r4, [r2], #-160	; 0xffffff60
    3458:	00000000 	andeq	r0, r0, r0
    345c:	00035d14 	andeq	r5, r3, r4, lsl sp
    3460:	00889000 	addeq	r9, r8, r0
    3464:	00001800 	andeq	r1, r0, r0, lsl #16
    3468:	e39c0100 	orrs	r0, ip, #0
    346c:	02000005 	andeq	r0, r0, #5, 0
    3470:	00000369 	andeq	r0, r0, r9, ror #6
    3474:	00000404 	andeq	r0, r0, r4, lsl #8
    3478:	000003fe 	strdeq	r0, [r0], -lr
    347c:	0088a407 	addeq	sl, r8, r7, lsl #8
    3480:	0000f900 	andeq	pc, r0, r0, lsl #18
    3484:	50010100 	andpl	r0, r1, r0, lsl #2
    3488:	001c0c05 	andseq	r0, ip, r5, lsl #24
    348c:	01012020 	tsteq	r1, r0, lsr #32
    3490:	a3310551 	teqge	r1, #339738624	; 0x14400000
    3494:	00245001 	eoreq	r5, r4, r1
    3498:	03442300 	movteq	r2, #17152	; 0x4300
    349c:	88a80000 	stmiahi	r8!, {}	; <UNPREDICTABLE>
    34a0:	00180000 	andseq	r0, r8, r0
    34a4:	9c010000 	stcls	0, cr0, [r1], {-0}
    34a8:	00035002 	andeq	r5, r3, r2
    34ac:	00042300 	andeq	r2, r4, r0, lsl #6
    34b0:	00041d00 	andeq	r1, r4, r0, lsl #26
    34b4:	88bc0700 	ldmhi	ip!, {r8, r9, sl}
    34b8:	00f90000 	rscseq	r0, r9, r0
    34bc:	01010000 	mrseq	r0, (UNDEF: 1)
    34c0:	280c0550 	stmdacs	ip, {r4, r6, r8, sl}
    34c4:	01202000 			; <UNDEFINED> instruction: 0x01202000
    34c8:	31055101 	tstcc	r5, r1, lsl #2
    34cc:	245001a3 	ldrbcs	r0, [r0], #-419	; 0xfffffe5d
    34d0:	40000000 	andmi	r0, r0, r0
    34d4:	04000001 	streq	r0, [r0], #-1
    34d8:	00072a00 	andeq	r2, r7, r0, lsl #20
    34dc:	a7010400 	strge	r0, [r1, -r0, lsl #8]
    34e0:	0c000004 	stceq	0, cr0, [r0], {4}
    34e4:	00000497 	muleq	r0, r7, r4
    34e8:	0000043b 	andeq	r0, r0, fp, lsr r4
    34ec:	00008970 	andeq	r8, r0, r0, ror r9
    34f0:	00000078 	andeq	r0, r0, r8, ror r0
    34f4:	000013b7 			; <UNDEFINED> instruction: 0x000013b7
    34f8:	69050402 	stmdbvs	r5, {r1, sl}
    34fc:	0300746e 	movweq	r7, #1134	; 0x46e
    3500:	00000490 	muleq	r0, r0, r4
    3504:	3817d103 	ldmdacc	r7, {r0, r1, r8, ip, lr, pc}
    3508:	04000000 	streq	r0, [r0], #-0
    350c:	01b00704 	lslseq	r0, r4, #14
    3510:	01040000 	mrseq	r0, (UNDEF: 4)
    3514:	00008f06 	andeq	r8, r0, r6, lsl #30
    3518:	05020400 	streq	r0, [r2, #-1024]	; 0xfffffc00
    351c:	000001e7 	andeq	r0, r0, r7, ror #3
    3520:	d2050404 	andle	r0, r5, #4, 8	; 0x4000000
    3524:	04000001 	streq	r0, [r0], #-1
    3528:	01cd0508 	biceq	r0, sp, r8, lsl #10
    352c:	01040000 	mrseq	r0, (UNDEF: 4)
    3530:	00008d08 	andeq	r8, r0, r8, lsl #26
    3534:	07020400 	streq	r0, [r2, -r0, lsl #8]
    3538:	000000a4 	andeq	r0, r0, r4, lsr #1
    353c:	ab070404 	blge	1c4554 <__bss_end__+0x1b9fd4>
    3540:	04000001 	streq	r0, [r0], #-1
    3544:	01a60708 			; <UNDEFINED> instruction: 0x01a60708
    3548:	25050000 	strcs	r0, [r5, #-0]
    354c:	86000000 	strhi	r0, [r0], -r0
    3550:	06000000 	streq	r0, [r0], -r0
    3554:	00000025 	andeq	r0, r0, r5, lsr #32
    3558:	01db0700 	bicseq	r0, fp, r0, lsl #14
    355c:	1c020000 	stcne	0, cr0, [r2], {-0}
    3560:	0000920e 	andeq	r9, r0, lr, lsl #4
    3564:	77040800 	strvc	r0, [r4, -r0, lsl #16]
    3568:	05000000 	streq	r0, [r0, #-0]
    356c:	00000025 	andeq	r0, r0, r5, lsr #32
    3570:	000000a7 	andeq	r0, r0, r7, lsr #1
    3574:	0000a706 	andeq	sl, r0, r6, lsl #14
    3578:	04080000 	streq	r0, [r8], #-0
    357c:	000000b4 	strheq	r0, [r0], -r4
    3580:	96080104 	strls	r0, [r8], -r4, lsl #2
    3584:	09000000 	stmdbeq	r0, {}	; <UNPREDICTABLE>
    3588:	000000ad 	andeq	r0, r0, sp, lsr #1
    358c:	0005a507 	andeq	sl, r5, r7, lsl #10
    3590:	0e210200 	cdpeq	2, 2, cr0, cr1, cr0, {0}
    3594:	000000c5 	andeq	r0, r0, r5, asr #1
    3598:	00980408 	addseq	r0, r8, r8, lsl #8
    359c:	600a0000 	andvs	r0, sl, r0
    35a0:	01000002 	tsteq	r0, r2
    35a4:	013b0704 	teqeq	fp, r4, lsl #14
    35a8:	89700000 	ldmdbhi	r0!, {}^	; <UNPREDICTABLE>
    35ac:	00780000 	rsbseq	r0, r8, r0
    35b0:	9c010000 	stcls	0, cr0, [r1], {-0}
    35b4:	0000013b 	andeq	r0, r0, fp, lsr r1
    35b8:	00705f0b 	rsbseq	r5, r0, fp, lsl #30
    35bc:	3b140401 	blcc	5045c8 <__bss_end__+0x4fa048>
    35c0:	01000001 	tsteq	r0, r1
    35c4:	00630c50 	rsbeq	r0, r3, r0, asr ip
    35c8:	251c0401 	ldrcs	r0, [ip, #-1025]	; 0xfffffbff
    35cc:	a2000000 	andge	r0, r0, #0, 0
    35d0:	9e000018 	mcrls	0, 0, r0, cr0, cr8, {0}
    35d4:	0c000018 	stceq	0, cr0, [r0], {24}
    35d8:	0401006e 	streq	r0, [r1], #-110	; 0xffffff92
    35dc:	00002c26 	andeq	r2, r0, r6, lsr #24
    35e0:	0018c700 	andseq	ip, r8, r0, lsl #14
    35e4:	0018c300 	andseq	ip, r8, r0, lsl #6
    35e8:	00700d00 	rsbseq	r0, r0, r0, lsl #26
    35ec:	3d0b0501 	cfstr32cc	mvfx0, [fp, #-4]
    35f0:	f6000001 			; <UNDEFINED> instruction: 0xf6000001
    35f4:	e8000018 	stmda	r0, {r3, r4}
    35f8:	0d000018 	stceq	0, cr0, [r0, #-96]	; 0xffffffa0
    35fc:	05010065 	streq	r0, [r1, #-101]	; 0xffffff9b
    3600:	00013d14 	andeq	r3, r1, r4, lsl sp
    3604:	00195300 	andseq	r5, r9, r0, lsl #6
    3608:	00195100 	andseq	r5, r9, r0, lsl #2
    360c:	040e0000 	streq	r0, [lr], #-0
    3610:	00ad0408 	adceq	r0, sp, r8, lsl #8
    3614:	9d000000 	stcls	0, cr0, [r0, #-0]
    3618:	04000001 	streq	r0, [r0], #-1
    361c:	0007f600 	andeq	pc, r7, r0, lsl #12
    3620:	a7010400 	strge	r0, [r1, -r0, lsl #8]
    3624:	0c000004 	stceq	0, cr0, [r0], {4}
    3628:	00000582 	andeq	r0, r0, r2, lsl #11
    362c:	0000043b 	andeq	r0, r0, fp, lsr r4
    3630:	000089e8 	andeq	r8, r0, r8, ror #19
    3634:	00000058 	andeq	r0, r0, r8, asr r0
    3638:	000014dc 	ldrdeq	r1, [r0], -ip
    363c:	00056e02 	andeq	r6, r5, r2, lsl #28
    3640:	1b280200 	blne	a03e48 <__bss_end__+0x9f98c8>
    3644:	00000031 	andeq	r0, r0, r1, lsr r0
    3648:	00059203 	andeq	r9, r5, r3, lsl #4
    364c:	00040400 	andeq	r0, r4, r0, lsl #8
    3650:	00000048 	andeq	r0, r0, r8, asr #32
    3654:	00057d04 	andeq	r7, r5, r4, lsl #26
    3658:	00004800 	andeq	r4, r0, r0, lsl #16
    365c:	05000000 	streq	r0, [r0, #-0]
    3660:	05940204 	ldreq	r0, [r4, #516]	; 0x204
    3664:	63020000 	movwvs	r0, #8192	; 0x2000
    3668:	00002518 	andeq	r2, r0, r8, lsl r5
    366c:	05040600 	streq	r0, [r4, #-1536]	; 0xfffffa00
    3670:	00746e69 	rsbseq	r6, r4, r9, ror #28
    3674:	b0070407 	andlt	r0, r7, r7, lsl #8
    3678:	07000001 	streq	r0, [r0, -r1]
    367c:	008f0601 	addeq	r0, pc, r1, lsl #12
    3680:	02070000 	andeq	r0, r7, #0, 0
    3684:	0001e705 	andeq	lr, r1, r5, lsl #14
    3688:	05040700 	streq	r0, [r4, #-1792]	; 0xfffff900
    368c:	000001d2 	ldrdeq	r0, [r0], -r2
    3690:	cd050807 	stcgt	8, cr0, [r5, #-28]	; 0xffffffe4
    3694:	07000001 	streq	r0, [r0, -r1]
    3698:	008d0801 	addeq	r0, sp, r1, lsl #16
    369c:	02070000 	andeq	r0, r7, #0, 0
    36a0:	0000a407 	andeq	sl, r0, r7, lsl #8
    36a4:	07040700 	streq	r0, [r4, -r0, lsl #14]
    36a8:	000001ab 	andeq	r0, r0, fp, lsr #3
    36ac:	a6070807 	strge	r0, [r7], -r7, lsl #16
    36b0:	08000001 	stmdaeq	r0, {r0}
    36b4:	00000056 	andeq	r0, r0, r6, asr r0
    36b8:	000000ab 	andeq	r0, r0, fp, lsr #1
    36bc:	00005609 	andeq	r5, r0, r9, lsl #12
    36c0:	db0a0000 	blle	2836c8 <__bss_end__+0x279148>
    36c4:	03000001 	movweq	r0, #1
    36c8:	00b70e1c 	adcseq	r0, r7, ip, lsl lr
    36cc:	040b0000 	streq	r0, [fp], #-0
    36d0:	0000009c 	muleq	r0, ip, r0
    36d4:	00005608 	andeq	r5, r0, r8, lsl #12
    36d8:	0000cc00 	andeq	ip, r0, r0, lsl #24
    36dc:	00cc0900 	sbceq	r0, ip, r0, lsl #18
    36e0:	0b000000 	bleq	36e8 <__code_start__-0x4918>
    36e4:	0000d904 	andeq	sp, r0, r4, lsl #18
    36e8:	08010700 	stmdaeq	r1, {r8, r9, sl}
    36ec:	00000096 	muleq	r0, r6, r0
    36f0:	0000d20c 	andeq	sp, r0, ip, lsl #4
    36f4:	05a50a00 	streq	r0, [r5, #2560]!	; 0xa00
    36f8:	21030000 	mrscs	r0, (UNDEF: 3)
    36fc:	0000ea0e 	andeq	lr, r0, lr, lsl #20
    3700:	bd040b00 	vstrlt	d0, [r4, #-0]
    3704:	0d000000 	stceq	0, cr0, [r0, #-0]
    3708:	00000567 	andeq	r0, r0, r7, ror #10
    370c:	56050601 	strpl	r0, [r5], -r1, lsl #12
    3710:	e8000000 	stmda	r0, {}	; <UNPREDICTABLE>
    3714:	58000089 	stmdapl	r0, {r0, r3, r7}
    3718:	01000000 	mrseq	r0, (UNDEF: 0)
    371c:	0001839c 	muleq	r1, ip, r3
    3720:	6d660e00 	stclvs	14, cr0, [r6, #-0]
    3724:	06010074 			; <UNDEFINED> instruction: 0x06010074
    3728:	0000cc18 	andeq	ip, r0, r8, lsl ip
    372c:	70910200 	addsvc	r0, r1, r0, lsl #4
    3730:	7562100f 	strbvc	r1, [r2, #-15]!
    3734:	08010066 	stmdaeq	r1, {r1, r2, r5, r6}
    3738:	00018311 	andeq	r8, r1, r1, lsl r3
    373c:	7c030500 	cfstr32vc	mvfx0, [r3], {-0}
    3740:	110000a1 	smlatbne	r0, r1, r0, r0
    3744:	0000055f 	andeq	r0, r0, pc, asr r5
    3748:	4a0d0901 	bmi	345b54 <__bss_end__+0x33b5d4>
    374c:	02000000 	andeq	r0, r0, #0, 0
    3750:	73125c91 	tstvc	r2, #37120	; 0x9100
    3754:	0c01007a 	stceq	0, cr0, [r1], {122}	; 0x7a
    3758:	0000560d 	andeq	r5, r0, sp, lsl #12
    375c:	00196c00 	andseq	r6, r9, r0, lsl #24
    3760:	00196600 	andseq	r6, r9, r0, lsl #12
    3764:	8a101300 	bhi	40836c <__bss_end__+0x3fddec>
    3768:	01940000 	orrseq	r0, r4, r0
    376c:	01760000 	cmneq	r6, r0
    3770:	01140000 	tsteq	r4, r0
    3774:	00750250 	rsbseq	r0, r5, r0, asr r2
    3778:	03510114 	cmpeq	r1, #5
    377c:	1404000a 	strne	r0, [r4], #-10
    3780:	91035201 	tstls	r3, r1, lsl #4
    3784:	01140648 	tsteq	r4, r8, asr #12
    3788:	4c910253 	lfmmi	f0, 4, [r1], {83}	; 0x53
    378c:	8a241500 	bhi	908b94 <__bss_end__+0x8fe614>
    3790:	01140000 	tsteq	r4, r0
    3794:	00750250 	rsbseq	r0, r5, r0, asr r2
    3798:	d2160000 	andsle	r0, r6, #0, 0
    379c:	94000000 	strls	r0, [r0], #-0
    37a0:	17000001 	strne	r0, [r0, -r1]
    37a4:	0000005d 	andeq	r0, r0, sp, asr r0
    37a8:	180003ff 	stmdane	r0, {r0, r1, r2, r3, r4, r5, r6, r7, r8, r9}
    37ac:	00000564 	andeq	r0, r0, r4, ror #10
    37b0:	00000564 	andeq	r0, r0, r4, ror #10
    37b4:	00050205 	andeq	r0, r5, r5, lsl #4
    37b8:	000000f3 	strdeq	r0, [r0], -r3
    37bc:	09380004 	ldmdbeq	r8!, {r2}
    37c0:	01040000 	mrseq	r0, (UNDEF: 4)
    37c4:	000004a7 	andeq	r0, r0, r7, lsr #9
    37c8:	0005aa0c 	andeq	sl, r5, ip, lsl #20
    37cc:	00043b00 	andeq	r3, r4, r0, lsl #22
    37d0:	008a4000 	addeq	r4, sl, r0
    37d4:	00003800 	andeq	r3, r0, r0, lsl #16
    37d8:	00160000 	andseq	r0, r6, r0
    37dc:	05040200 	streq	r0, [r4, #-512]	; 0xfffffe00
    37e0:	00746e69 	rsbseq	r6, r4, r9, ror #28
    37e4:	b0070403 	andlt	r0, r7, r3, lsl #8
    37e8:	03000001 	movweq	r0, #1
    37ec:	008f0601 	addeq	r0, pc, r1, lsl #12
    37f0:	02030000 	andeq	r0, r3, #0, 0
    37f4:	0001e705 	andeq	lr, r1, r5, lsl #14
    37f8:	05040300 	streq	r0, [r4, #-768]	; 0xfffffd00
    37fc:	000001d2 	ldrdeq	r0, [r0], -r2
    3800:	cd050803 	stcgt	8, cr0, [r5, #-12]
    3804:	03000001 	movweq	r0, #1
    3808:	008d0801 	addeq	r0, sp, r1, lsl #16
    380c:	02030000 	andeq	r0, r3, #0, 0
    3810:	0000a407 	andeq	sl, r0, r7, lsl #8
    3814:	07040300 	streq	r0, [r4, -r0, lsl #6]
    3818:	000001ab 	andeq	r0, r0, fp, lsr #3
    381c:	a6070803 	strge	r0, [r7], -r3, lsl #16
    3820:	04000001 	streq	r0, [r0], #-1
    3824:	00000025 	andeq	r0, r0, r5, lsr #32
    3828:	0000007a 	andeq	r0, r0, sl, ror r0
    382c:	00002505 	andeq	r2, r0, r5, lsl #10
    3830:	db060000 	blle	183838 <__bss_end__+0x1792b8>
    3834:	02000001 	andeq	r0, r0, #1, 0
    3838:	00860e1c 	addeq	r0, r6, ip, lsl lr
    383c:	04070000 	streq	r0, [r7], #-0
    3840:	0000006b 	andeq	r0, r0, fp, rrx
    3844:	00002504 	andeq	r2, r0, r4, lsl #10
    3848:	00009b00 	andeq	r9, r0, r0, lsl #22
    384c:	009b0500 	addseq	r0, fp, r0, lsl #10
    3850:	07000000 	streq	r0, [r0, -r0]
    3854:	0000a804 	andeq	sl, r0, r4, lsl #16
    3858:	08010300 	stmdaeq	r1, {r8, r9}
    385c:	00000096 	muleq	r0, r6, r0
    3860:	0000a108 	andeq	sl, r0, r8, lsl #2
    3864:	05a50600 	streq	r0, [r5, #1536]!	; 0x600
    3868:	21020000 	mrscs	r0, (UNDEF: 2)
    386c:	0000b90e 	andeq	fp, r0, lr, lsl #18
    3870:	8c040700 	stchi	7, cr0, [r4], {-0}
    3874:	09000000 	stmdbeq	r0, {}	; <UNPREDICTABLE>
    3878:	000000ad 	andeq	r0, r0, sp, lsr #1
    387c:	05070c01 	streq	r0, [r7, #-3073]	; 0xfffff3ff
    3880:	00a16803 	adceq	r6, r1, r3, lsl #16
    3884:	059c0a00 	ldreq	r0, [ip, #2560]	; 0xa00
    3888:	04010000 	streq	r0, [r1], #-0
    388c:	00002505 	andeq	r2, r0, r5, lsl #10
    3890:	008a4000 	addeq	r4, sl, r0
    3894:	00003800 	andeq	r3, r0, r0, lsl #16
    3898:	0b9c0100 	bleq	fe703ca0 <__bss_end__+0xfe6f9720>
    389c:	04010070 	streq	r0, [r1], #-112	; 0xffffff90
    38a0:	00009b1f 	andeq	r9, r0, pc, lsl fp
    38a4:	00199d00 	andseq	r9, r9, r0, lsl #26
    38a8:	00199500 	andseq	r9, r9, r0, lsl #10
    38ac:	7f000000 	svcvc	0x00000000
    38b0:	0400000c 	streq	r0, [r0], #-12
    38b4:	0009d600 	andeq	sp, r9, r0, lsl #12
    38b8:	a7010400 	strge	r0, [r1, -r0, lsl #8]
    38bc:	0c000004 	stceq	0, cr0, [r0], {4}
    38c0:	000005c9 	andeq	r0, r0, r9, asr #11
    38c4:	0000043b 	andeq	r0, r0, fp, lsr r4
    38c8:	00008a78 	andeq	r8, r0, r8, ror sl
    38cc:	000009b4 			; <UNDEFINED> instruction: 0x000009b4
    38d0:	000016a4 	andeq	r1, r0, r4, lsr #13
    38d4:	a6070802 	strge	r0, [r7], -r2, lsl #16
    38d8:	02000001 	andeq	r0, r0, #1, 0
    38dc:	01b00704 	lslseq	r0, r4, #14
    38e0:	04030000 	streq	r0, [r3], #-0
    38e4:	746e6905 	strbtvc	r6, [lr], #-2309	; 0xfffff6fb
    38e8:	06010200 	streq	r0, [r1], -r0, lsl #4
    38ec:	0000008f 	andeq	r0, r0, pc, lsl #1
    38f0:	e7050202 	str	r0, [r5, -r2, lsl #4]
    38f4:	02000001 	andeq	r0, r0, #1, 0
    38f8:	01d20504 	bicseq	r0, r2, r4, lsl #10
    38fc:	08020000 	stmdaeq	r2, {}	; <UNPREDICTABLE>
    3900:	0001cd05 	andeq	ip, r1, r5, lsl #26
    3904:	08010200 	stmdaeq	r1, {r9}
    3908:	0000008d 	andeq	r0, r0, sp, lsl #1
    390c:	a4070202 	strge	r0, [r7], #-514	; 0xfffffdfe
    3910:	04000000 	streq	r0, [r0], #-0
    3914:	00000284 	andeq	r0, r0, r4, lsl #5
    3918:	70193402 	andsvc	r3, r9, r2, lsl #8
    391c:	02000000 	andeq	r0, r0, #0, 0
    3920:	01ab0704 			; <UNDEFINED> instruction: 0x01ab0704
    3924:	c0040000 	andgt	r0, r4, r0
    3928:	02000005 	andeq	r0, r0, #5, 0
    392c:	00251937 	eoreq	r1, r5, r7, lsr r9
    3930:	33050000 	movwcc	r0, #20480	; 0x5000
    3934:	92000000 	andls	r0, r0, #0, 0
    3938:	06000000 	streq	r0, [r0], -r0
    393c:	00000033 	andeq	r0, r0, r3, lsr r0
    3940:	01db0700 	bicseq	r0, fp, r0, lsl #14
    3944:	1c030000 	stcne	0, cr0, [r3], {-0}
    3948:	00009e0e 	andeq	r9, r0, lr, lsl #28
    394c:	83040800 	movwhi	r0, #18432	; 0x4800
    3950:	05000000 	streq	r0, [r0, #-0]
    3954:	00000033 	andeq	r0, r0, r3, lsr r0
    3958:	000000b3 	strheq	r0, [r0], -r3
    395c:	0000b306 	andeq	fp, r0, r6, lsl #6
    3960:	04080000 	streq	r0, [r8], #-0
    3964:	000000c0 	andeq	r0, r0, r0, asr #1
    3968:	96080102 	strls	r0, [r8], -r2, lsl #2
    396c:	09000000 	stmdbeq	r0, {}	; <UNPREDICTABLE>
    3970:	000000b9 	strheq	r0, [r0], -r9
    3974:	0005a507 	andeq	sl, r5, r7, lsl #10
    3978:	0e210300 	cdpeq	3, 2, cr0, cr1, cr0, {0}
    397c:	000000d1 	ldrdeq	r0, [r0], -r1
    3980:	00a40408 	adceq	r0, r4, r8, lsl #8
    3984:	dc070000 	stcle	0, cr0, [r7], {-0}
    3988:	04000005 	streq	r0, [r0], #-5
    398c:	00b90d0b 	adcseq	r0, r9, fp, lsl #26
    3990:	76070000 	strvc	r0, [r7], -r0
    3994:	04000006 	streq	r0, [r0], #-6
    3998:	00b90d0c 	adcseq	r0, r9, ip, lsl #26
    399c:	eb070000 	bl	1c39a4 <__bss_end__+0x1b9424>
    39a0:	04000005 	streq	r0, [r0], #-5
    39a4:	00b90d0d 	adcseq	r0, r9, sp, lsl #26
    39a8:	2e070000 	cdpcs	0, 0, cr0, cr7, cr0, {0}
    39ac:	04000006 	streq	r0, [r0], #-6
    39b0:	00b90d0e 	adcseq	r0, r9, lr, lsl #26
    39b4:	9f070000 	svcls	0x00070000
    39b8:	04000006 	streq	r0, [r0], #-6
    39bc:	00b90d0f 	adcseq	r0, r9, pc, lsl #26
    39c0:	19070000 	stmdbne	r7, {}	; <UNPREDICTABLE>
    39c4:	04000006 	streq	r0, [r0], #-6
    39c8:	00b90d10 	adcseq	r0, r9, r0, lsl sp
    39cc:	ae070000 	cdpge	0, 0, cr0, cr7, cr0, {0}
    39d0:	04000006 	streq	r0, [r0], #-6
    39d4:	00b90d11 	adcseq	r0, r9, r1, lsl sp
    39d8:	3a070000 	bcc	1c39e0 <__bss_end__+0x1b9460>
    39dc:	04000006 	streq	r0, [r0], #-6
    39e0:	00b90d12 	adcseq	r0, r9, r2, lsl sp
    39e4:	6e040000 	cdpvs	0, 0, cr0, cr4, cr0, {0}
    39e8:	05000005 	streq	r0, [r0, #-5]
    39ec:	01431b28 	cmpeq	r3, r8, lsr #22
    39f0:	920a0000 	andls	r0, sl, #0, 0
    39f4:	04000005 	streq	r0, [r0], #-5
    39f8:	015a0006 	cmpeq	sl, r6
    39fc:	7d0b0000 	stcvc	0, cr0, [fp, #-0]
    3a00:	5a000005 	bpl	3a1c <__code_start__-0x45e4>
    3a04:	00000001 	andeq	r0, r0, r1
    3a08:	04040c00 	streq	r0, [r4], #-3072	; 0xfffff400
    3a0c:	00000594 	muleq	r0, r4, r5
    3a10:	37186305 	ldrcc	r6, [r8, -r5, lsl #6]
    3a14:	0d000001 	stceq	0, cr0, [r0, #-4]
    3a18:	00000564 	andeq	r0, r0, r4, ror #10
    3a1c:	33058101 	movwcc	r8, #20737	; 0x5101
    3a20:	00000000 	andeq	r0, r0, r0
    3a24:	2c00008e 	stccs	0, cr0, [r0], {142}	; 0x8e
    3a28:	01000006 	tsteq	r0, r6
    3a2c:	00086a9c 	muleq	r8, ip, sl
    3a30:	75620e00 	strbvc	r0, [r2, #-3584]!	; 0xfffff200
    3a34:	81010066 	tsthi	r1, r6, rrx
    3a38:	00086a15 	andeq	r6, r8, r5, lsl sl
    3a3c:	0019dd00 	andseq	sp, r9, r0, lsl #26
    3a40:	0019d300 	andseq	sp, r9, r0, lsl #6
    3a44:	006e0e00 	rsbeq	r0, lr, r0, lsl #28
    3a48:	331e8101 	tstcc	lr, #1073741824	; 0x40000000
    3a4c:	2a000000 	bcs	3a54 <__code_start__-0x45ac>
    3a50:	2200001a 	andcs	r0, r0, #26, 0
    3a54:	0e00001a 	mcreq	0, 0, r0, cr0, cr10, {0}
    3a58:	00746d66 	rsbseq	r6, r4, r6, ror #26
    3a5c:	b32d8101 			; <UNDEFINED> instruction: 0xb32d8101
    3a60:	7c000000 	stcvc	0, cr0, [r0], {-0}
    3a64:	6400001a 	strvs	r0, [r0], #-26	; 0xffffffe6
    3a68:	0f00001a 	svceq	0x0000001a
    3a6c:	0000055f 	andeq	r0, r0, pc, asr r5
    3a70:	5c3a8101 	ldfpld	f0, [sl], #-4
    3a74:	40000001 	andmi	r0, r0, r1
    3a78:	1000001b 	andne	r0, r0, fp, lsl r0
    3a7c:	1000001b 	andne	r0, r0, fp, lsl r0
    3a80:	82010070 	andhi	r0, r1, #112, 0	; 0x70
    3a84:	00086a08 	andeq	r6, r8, r8, lsl #20
    3a88:	001c9e00 	andseq	r9, ip, r0, lsl #28
    3a8c:	001c8800 	andseq	r8, ip, r0, lsl #16
    3a90:	00651000 	rsbeq	r1, r5, r0
    3a94:	6a128201 	bvs	4a42a0 <__bss_end__+0x499d20>
    3a98:	27000008 	strcs	r0, [r0, -r8]
    3a9c:	2500001d 	strcs	r0, [r0, #-29]	; 0xffffffe3
    3aa0:	1000001d 	andne	r0, r0, sp, lsl r0
    3aa4:	01003078 	tsteq	r0, r8, ror r0
    3aa8:	00640e83 	rsbeq	r0, r4, r3, lsl #29
    3aac:	1d400000 	stclne	0, cr0, [r0, #-0]
    3ab0:	1d3a0000 	ldcne	0, cr0, [sl, #-0]
    3ab4:	78100000 	ldmdavc	r0, {}	; <UNPREDICTABLE>
    3ab8:	83010031 	movwhi	r0, #4145	; 0x1031
    3abc:	00006411 	andeq	r6, r0, r1, lsl r4
    3ac0:	001d6f00 	andseq	r6, sp, r0, lsl #30
    3ac4:	001d6900 	andseq	r6, sp, r0, lsl #18
    3ac8:	06581100 	ldrbeq	r1, [r8], -r0, lsl #2
    3acc:	86010000 	strhi	r0, [r1], -r0
    3ad0:	0000b311 	andeq	fp, r0, r1, lsl r3
    3ad4:	001da000 	andseq	sl, sp, r0
    3ad8:	001d9800 	andseq	r9, sp, r0, lsl #16
    3adc:	05ff1200 	ldrbeq	r1, [pc, #512]!	; 3ce4 <__code_start__-0x431c>
    3ae0:	08800000 	stmeq	r0, {}	; <UNPREDICTABLE>
    3ae4:	03050000 	movweq	r0, #20480	; 0x5000
    3ae8:	00009f54 	andeq	r9, r0, r4, asr pc
    3aec:	0010f013 	andseq	pc, r0, r3, lsl r0	; <UNPREDICTABLE>
    3af0:	00731000 	rsbseq	r1, r3, r0
    3af4:	6a0a9101 	bvs	2a7f00 <__bss_end__+0x29d980>
    3af8:	e6000008 	str	r0, [r0], -r8
    3afc:	da00001d 	ble	3b78 <__code_start__-0x4488>
    3b00:	1400001d 	strne	r0, [r0], #-29	; 0xffffffe3
    3b04:	006d756e 	rsbeq	r7, sp, lr, ror #10
    3b08:	850d9101 	strhi	r9, [sp, #-257]	; 0xfffffeff
    3b0c:	03000008 	movweq	r0, #8
    3b10:	157dd891 	ldrbne	sp, [sp, #-2193]!	; 0xfffff76f
    3b14:	000006bb 			; <UNDEFINED> instruction: 0x000006bb
    3b18:	85179101 	ldrhi	r9, [r7, #-257]	; 0xfffffeff
    3b1c:	03000008 	movweq	r0, #8
    3b20:	117ed891 			; <UNDEFINED> instruction: 0x117ed891
    3b24:	000005f9 	strdeq	r0, [r0], -r9
    3b28:	2c0d9201 	sfmcs	f1, 1, [sp], {1}
    3b2c:	38000000 	stmdacc	r0, {}	; <UNPREDICTABLE>
    3b30:	3000001e 	andcc	r0, r0, lr, lsl r0
    3b34:	1600001e 			; <UNDEFINED> instruction: 0x1600001e
    3b38:	00001118 	andeq	r1, r0, r8, lsl r1
    3b3c:	000004f1 	strdeq	r0, [r0], -r1
    3b40:	00797410 	rsbseq	r7, r9, r0, lsl r4
    3b44:	b31d9e01 	tstlt	sp, #1, 28
    3b48:	79000000 	stmdbvc	r0, {}	; <UNPREDICTABLE>
    3b4c:	6d00001e 	stcvs	0, cr0, [r0, #-120]	; 0xffffff88
    3b50:	1400001e 	strne	r0, [r0], #-30	; 0xffffffe2
    3b54:	01007878 	tsteq	r0, r8, ror r8
    3b58:	00771aa2 	rsbseq	r1, r7, r2, lsr #21
    3b5c:	59060000 	stmdbpl	r6, {}	; <UNPREDICTABLE>
    3b60:	935b0493 	cmpls	fp, #-1828716544	; 0x93000000
    3b64:	8f8c1704 	svchi	0x008c1704
    3b68:	0c3a0000 	ldceq	0, cr0, [sl], #-0
    3b6c:	02d80000 	sbcseq	r0, r8, #0, 0
    3b70:	01180000 	tsteq	r8, r0
    3b74:	00760250 	rsbseq	r0, r6, r0, asr r2
    3b78:	05510118 	ldrbeq	r0, [r1, #-280]	; 0xfffffee8
    3b7c:	009e4803 	addseq	r4, lr, r3, lsl #16
    3b80:	52011800 	andpl	r1, r1, #0, 16
    3b84:	17003301 	strne	r3, [r0, -r1, lsl #6]
    3b88:	00008fa4 	andeq	r8, r0, r4, lsr #31
    3b8c:	00000c3a 	andeq	r0, r0, sl, lsr ip
    3b90:	000002fa 	strdeq	r0, [r0], -sl
    3b94:	02500118 	subseq	r0, r0, #6
    3b98:	01180076 	tsteq	r8, r6, ror r0
    3b9c:	5c030551 	cfstr32pl	mvfx0, [r3], {81}	; 0x51
    3ba0:	1800009e 	stmdane	r0, {r1, r2, r3, r4, r7}
    3ba4:	33015201 	movwcc	r5, #4609	; 0x1201
    3ba8:	8fc81700 	svchi	0x00c81700
    3bac:	0c460000 	mareq	acc0, r0, r6
    3bb0:	03170000 	tsteq	r7, #0, 0
    3bb4:	01180000 	tsteq	r8, r0
    3bb8:	4c030550 	cfstr32mi	mvfx0, [r3], {80}	; 0x50
    3bbc:	1800009e 	stmdane	r0, {r1, r2, r3, r4, r7}
    3bc0:	7b025101 	blvc	97fcc <__bss_end__+0x8da4c>
    3bc4:	d4170000 	ldrle	r0, [r7], #-0
    3bc8:	4600008f 	strmi	r0, [r0], -pc, lsl #1
    3bcc:	3400000c 	strcc	r0, [r0], #-12
    3bd0:	18000003 	stmdane	r0, {r0, r1}
    3bd4:	03055001 	movweq	r5, #20481	; 0x5001
    3bd8:	00009e54 	andeq	r9, r0, r4, asr lr
    3bdc:	02510118 	subseq	r0, r1, #6
    3be0:	17000079 	smlsdxne	r0, r9, r0, r0
    3be4:	00008fe4 	andeq	r8, r0, r4, ror #31
    3be8:	00000c3a 	andeq	r0, r0, sl, lsr ip
    3bec:	00000356 	andeq	r0, r0, r6, asr r3
    3bf0:	02500118 	subseq	r0, r0, #6
    3bf4:	01180076 	tsteq	r8, r6, ror r0
    3bf8:	48030551 	stmdami	r3, {r0, r4, r6, r8, sl}
    3bfc:	1800009e 	stmdane	r0, {r1, r2, r3, r4, r7}
    3c00:	33015201 	movwcc	r5, #4609	; 0x1201
    3c04:	90141700 	andsls	r1, r4, r0, lsl #14
    3c08:	0aa40000 	beq	fe903c10 <__bss_end__+0xfe8f9690>
    3c0c:	03830000 	orreq	r0, r3, #0, 0
    3c10:	01180000 	tsteq	r8, r0
    3c14:	18400150 	stmdane	r0, {r4, r6, r8}^
    3c18:	91035101 	tstls	r3, r1, lsl #2
    3c1c:	01187dd0 			; <UNDEFINED> instruction: 0x01187dd0
    3c20:	007b0252 	rsbseq	r0, fp, r2, asr r2
    3c24:	02530118 	subseq	r0, r3, #6
    3c28:	02180075 	andseq	r0, r8, #117, 0	; 0x75
    3c2c:	7602007d 			; <UNDEFINED> instruction: 0x7602007d
    3c30:	34170000 	ldrcc	r0, [r7], #-0
    3c34:	a4000090 	strge	r0, [r0], #-144	; 0xffffff70
    3c38:	aa00000a 	bge	3c68 <__code_start__-0x4398>
    3c3c:	18000003 	stmdane	r0, {r0, r1}
    3c40:	40015001 	andmi	r5, r1, r1
    3c44:	03510118 	cmpeq	r1, #6
    3c48:	187ed091 	ldmdane	lr!, {r0, r4, r7, ip, lr, pc}^
    3c4c:	79025201 	stmdbvc	r2, {r0, r9, ip, lr}
    3c50:	7d021800 	stcvc	8, cr1, [r2, #-0]
    3c54:	00760200 	rsbseq	r0, r6, r0, lsl #4
    3c58:	90441700 	subls	r1, r4, r0, lsl #14
    3c5c:	0c520000 	mraeq	r0, r2, acc0
    3c60:	03c60000 	biceq	r0, r6, #0, 0
    3c64:	01180000 	tsteq	r8, r0
    3c68:	d0910350 	addsle	r0, r1, r0, asr r3
    3c6c:	5101187d 	tstpl	r1, sp, ror r8
    3c70:	7ed29103 	atnvcs	f1, f3
    3c74:	92881700 	addls	r1, r8, #0, 14
    3c78:	0c3a0000 	ldceq	0, cr0, [sl], #-0
    3c7c:	03e80000 	mvneq	r0, #0, 0
    3c80:	01180000 	tsteq	r8, r0
    3c84:	00760250 	rsbseq	r0, r6, r0, asr r2
    3c88:	05510118 	ldrbeq	r0, [r1, #-280]	; 0xfffffee8
    3c8c:	009e5c03 	addseq	r5, lr, r3, lsl #24
    3c90:	52011800 	andpl	r1, r1, #0, 16
    3c94:	17003301 	strne	r3, [r0, -r1, lsl #6]
    3c98:	000092ac 	andeq	r9, r0, ip, lsr #5
    3c9c:	00000aa4 	andeq	r0, r0, r4, lsr #21
    3ca0:	00000415 	andeq	r0, r0, r5, lsl r4
    3ca4:	01500118 	cmpeq	r0, r8, lsl r1
    3ca8:	5101183a 	tstpl	r1, sl, lsr r8
    3cac:	7dd09103 	ldfvcp	f1, [r0, #12]
    3cb0:	02520118 	subseq	r0, r2, #6
    3cb4:	0118007b 	tsteq	r8, fp, ror r0
    3cb8:	00750253 	rsbseq	r0, r5, r3, asr r2
    3cbc:	007d0218 	rsbseq	r0, sp, r8, lsl r2
    3cc0:	00007602 	andeq	r7, r0, r2, lsl #12
    3cc4:	0092cc17 	addseq	ip, r2, r7, lsl ip
    3cc8:	000aa400 	andeq	sl, sl, r0, lsl #8
    3ccc:	00043c00 	andeq	r3, r4, r0, lsl #24
    3cd0:	50011800 	andpl	r1, r1, r0, lsl #16
    3cd4:	01183a01 	tsteq	r8, r1, lsl #20
    3cd8:	d0910351 	addsle	r0, r1, r1, asr r3
    3cdc:	5201187e 	andpl	r1, r1, #8257536	; 0x7e0000
    3ce0:	18007902 	stmdane	r0, {r1, r8, fp, ip, sp, lr}
    3ce4:	02007d02 	andeq	r7, r0, #128	; 0x80
    3ce8:	17000076 	smlsdxne	r0, r6, r0, r0
    3cec:	000092d8 	ldrdeq	r9, [r0], -r8
    3cf0:	00000c5e 	andeq	r0, r0, lr, asr ip
    3cf4:	0000045a 	andeq	r0, r0, sl, asr r4
    3cf8:	03500118 	cmpeq	r0, #6
    3cfc:	187dd091 	ldmdane	sp!, {r0, r4, r7, ip, lr, pc}^
    3d00:	03055101 	movweq	r5, #20737	; 0x5101
    3d04:	00009e0c 	andeq	r9, r0, ip, lsl #28
    3d08:	92ec1700 	rscls	r1, ip, #0, 14
    3d0c:	0c6a0000 	stcleq	0, cr0, [sl], #-0
    3d10:	04760000 	ldrbteq	r0, [r6], #-0
    3d14:	01180000 	tsteq	r8, r0
    3d18:	d0910350 	addsle	r0, r1, r0, asr r3
    3d1c:	5101187d 	tstpl	r1, sp, ror r8
    3d20:	7ed09103 	atnvcs	f1, f3
    3d24:	92f81900 	rscsls	r1, r8, #0, 18
    3d28:	0c520000 	mraeq	r0, r2, acc0
    3d2c:	bc170000 	ldclt	0, cr0, [r7], {-0}
    3d30:	46000093 			; <UNDEFINED> instruction: 0x46000093
    3d34:	a800000c 	stmdage	r0, {r2, r3}
    3d38:	18000004 	stmdane	r0, {r2}
    3d3c:	03055001 	movweq	r5, #20481	; 0x5001
    3d40:	00009df8 	strdeq	r9, [r0], -r8
    3d44:	05510118 	ldrbeq	r0, [r1, #-280]	; 0xfffffee8
    3d48:	009de403 	addseq	lr, sp, r3, lsl #8
    3d4c:	52011800 	andpl	r1, r1, #0, 16
    3d50:	9f540305 	svcls	0x00540305
    3d54:	19000000 	stmdbne	r0, {}	; <UNPREDICTABLE>
    3d58:	000093c0 	andeq	r9, r0, r0, asr #7
    3d5c:	00000c76 	andeq	r0, r0, r6, ror ip
    3d60:	0093d817 	addseq	sp, r3, r7, lsl r8
    3d64:	000c4600 	andeq	r4, ip, r0, lsl #12
    3d68:	0004e700 	andeq	lr, r4, r0, lsl #14
    3d6c:	50011800 	andpl	r1, r1, r0, lsl #16
    3d70:	9e9c0305 	cdpls	3, 9, cr0, cr12, cr5, {0}
    3d74:	01180000 	tsteq	r8, r0
    3d78:	e4030551 	str	r0, [r3], #-1361	; 0xfffffaaf
    3d7c:	1800009d 	stmdane	r0, {r0, r2, r3, r4, r7}
    3d80:	03055201 	movweq	r5, #20993	; 0x5201
    3d84:	00009f54 	andeq	r9, r0, r4, asr pc
    3d88:	02530118 	subseq	r0, r3, #6
    3d8c:	0218b608 	andseq	fp, r8, #8, 12	; 0x800000
    3d90:	7602007d 			; <UNDEFINED> instruction: 0x7602007d
    3d94:	dc190000 	ldcle	0, cr0, [r9], {-0}
    3d98:	76000093 			; <UNDEFINED> instruction: 0x76000093
    3d9c:	0000000c 	andeq	r0, r0, ip
    3da0:	0009e31a 	andeq	lr, r9, sl, lsl r3
    3da4:	008e8c00 	addeq	r8, lr, r0, lsl #24
    3da8:	40000400 	andmi	r0, r0, r0, lsl #8
    3dac:	01000011 	tsteq	r0, r1, lsl r0
    3db0:	05150a94 	ldreq	r0, [r5, #-2708]	; 0xfffff56c
    3db4:	f41b0000 			; <UNDEFINED> instruction: 0xf41b0000
    3db8:	d5000009 	strle	r0, [r0, #-9]
    3dbc:	d100001e 	tstle	r0, lr, lsl r0
    3dc0:	0000001e 	andeq	r0, r0, lr, lsl r0
    3dc4:	0008951a 	andeq	r9, r8, sl, lsl r5
    3dc8:	00907400 	addseq	r7, r0, r0, lsl #8
    3dcc:	60000100 	andvs	r0, r0, r0, lsl #2
    3dd0:	01000011 	tsteq	r0, r1, lsl r0
    3dd4:	064b09dc 			; <UNDEFINED> instruction: 0x064b09dc
    3dd8:	be1b0000 	cdplt	0, 1, cr0, cr11, cr0, {0}
    3ddc:	03000008 	movweq	r0, #8
    3de0:	fd00001f 	stc2	0, cr0, [r0, #-124]	; 0xffffff84
    3de4:	1b00001e 	blne	3e64 <__code_start__-0x419c>
    3de8:	000008e0 	andeq	r0, r0, r0, ror #17
    3dec:	00001f38 	andeq	r1, r0, r8, lsr pc
    3df0:	00001f32 	andeq	r1, r0, r2, lsr pc
    3df4:	0008d41b 	andeq	sp, r8, fp, lsl r4
    3df8:	001f6a00 	andseq	r6, pc, r0, lsl #20
    3dfc:	001f6400 	andseq	r6, pc, r0, lsl #8
    3e00:	08c81c00 	stmiaeq	r8, {sl, fp, ip}^
    3e04:	b21b0000 	andslt	r0, fp, #0, 0
    3e08:	9b000008 	blls	3e30 <__code_start__-0x41d0>
    3e0c:	9300001f 	movwls	r0, #31
    3e10:	1b00001f 	blne	3e94 <__code_start__-0x416c>
    3e14:	000008a6 	andeq	r0, r0, r6, lsr #17
    3e18:	00001fde 	ldrdeq	r1, [r0], -lr
    3e1c:	00001fd8 	ldrdeq	r1, [r0], -r8
    3e20:	00116013 	andseq	r6, r1, r3, lsl r0
    3e24:	08ec1d00 	stmiaeq	ip!, {r8, sl, fp, ip}^
    3e28:	91030000 	mrsls	r0, (UNDEF: 3)
    3e2c:	f81e7ed8 			; <UNDEFINED> instruction: 0xf81e7ed8
    3e30:	18000008 	stmdane	r0, {r3}
    3e34:	0a000020 	beq	3ebc <__code_start__-0x4144>
    3e38:	1f000020 	svcne	0x00000020
    3e3c:	00000902 	andeq	r0, r0, r2, lsl #18
    3e40:	0009a31a 	andeq	sl, r9, sl, lsl r3
    3e44:	00908000 	addseq	r8, r0, r0
    3e48:	90000400 	andls	r0, r0, r0, lsl #8
    3e4c:	01000011 	tsteq	r0, r1, lsl r0
    3e50:	05e2097c 	strbeq	r0, [r2, #2428]!	; 0x97c
    3e54:	ca1b0000 	bgt	6c3e5c <__bss_end__+0x6b98dc>
    3e58:	82000009 	andhi	r0, r0, #9, 0
    3e5c:	7c000020 	stcvc	0, cr0, [r0], {32}
    3e60:	1b000020 	blne	3ee8 <__code_start__-0x4118>
    3e64:	000009be 			; <UNDEFINED> instruction: 0x000009be
    3e68:	000020b7 	strheq	r2, [r0], -r7
    3e6c:	000020ab 	andeq	r2, r0, fp, lsr #1
    3e70:	0009b41b 	andeq	fp, r9, fp, lsl r4
    3e74:	00211d00 	eoreq	r1, r1, r0, lsl #26
    3e78:	00210d00 	eoreq	r0, r1, r0, lsl #26
    3e7c:	11901300 	orrsne	r1, r0, r0, lsl #6
    3e80:	d61e0000 	ldrle	r0, [lr], -r0
    3e84:	9a000009 	bls	3eb0 <__code_start__-0x4150>
    3e88:	8c000021 	stchi	0, cr0, [r0], {33}	; 0x21
    3e8c:	00000021 	andeq	r0, r0, r1, lsr #32
    3e90:	094f2000 	stmdbeq	pc, {sp}^	; <UNPREDICTABLE>
    3e94:	91480000 	mrsls	r0, (UNDEF: 72)
    3e98:	00020000 	andeq	r0, r2, r0
    3e9c:	000011c0 	andeq	r1, r0, r0, asr #3
    3ea0:	1b097c01 	blne	262eac <__bss_end__+0x25892c>
    3ea4:	00000980 	andeq	r0, r0, r0, lsl #19
    3ea8:	000021fa 	strdeq	r2, [r0], -sl
    3eac:	000021f4 	strdeq	r2, [r0], -r4
    3eb0:	0009761b 	andeq	r7, r9, fp, lsl r6
    3eb4:	00223000 	eoreq	r3, r2, r0
    3eb8:	00222600 	eoreq	r2, r2, r0, lsl #12
    3ebc:	096c1b00 	stmdbeq	ip!, {r8, r9, fp, ip}^
    3ec0:	227f0000 	rsbscs	r0, pc, #0, 0
    3ec4:	227b0000 	rsbscs	r0, fp, #0, 0
    3ec8:	601b0000 	andsvs	r0, fp, r0
    3ecc:	af000009 	svcge	0x00000009
    3ed0:	a1000022 	tstge	r0, r2, lsr #32
    3ed4:	13000022 	movwne	r0, #34	; 0x22
    3ed8:	000011c0 	andeq	r1, r0, r0, asr #3
    3edc:	00098c1e 	andeq	r8, r9, lr, lsl ip
    3ee0:	00231400 	eoreq	r1, r3, r0, lsl #8
    3ee4:	00231200 	eoreq	r1, r3, r0, lsl #4
    3ee8:	09981e00 	ldmibeq	r8, {r9, sl, fp, ip}
    3eec:	232e0000 			; <UNDEFINED> instruction: 0x232e0000
    3ef0:	23280000 			; <UNDEFINED> instruction: 0x23280000
    3ef4:	00000000 	andeq	r0, r0, r0
    3ef8:	951a0000 	ldrls	r0, [sl, #-0]
    3efc:	84000008 	strhi	r0, [r0], #-8
    3f00:	00000091 	muleq	r0, r1, r0
    3f04:	0011f000 	andseq	pc, r1, r0
    3f08:	09d60100 	ldmibeq	r6, {r8}^
    3f0c:	00000789 	andeq	r0, r0, r9, lsl #15
    3f10:	0008be1b 	andeq	fp, r8, fp, lsl lr
    3f14:	00236100 	eoreq	r6, r3, r0, lsl #2
    3f18:	00235d00 	eoreq	r5, r3, r0, lsl #26
    3f1c:	08e01b00 	stmiaeq	r0!, {r8, r9, fp, ip}^
    3f20:	23870000 	orrcs	r0, r7, #0, 0
    3f24:	23830000 	orrcs	r0, r3, #0, 0
    3f28:	d41b0000 	ldrle	r0, [fp], #-0
    3f2c:	ab000008 	blge	3f54 <__code_start__-0x40ac>
    3f30:	a7000023 	strge	r0, [r0, -r3, lsr #32]
    3f34:	1c000023 	stcne	0, cr0, [r0], {35}	; 0x23
    3f38:	000008c8 	andeq	r0, r0, r8, asr #17
    3f3c:	0008b21b 	andeq	fp, r8, fp, lsl r2
    3f40:	0023cf00 	eoreq	ip, r3, r0, lsl #30
    3f44:	0023c900 	eoreq	ip, r3, r0, lsl #18
    3f48:	08a61b00 	stmiaeq	r6!, {r8, r9, fp, ip}
    3f4c:	24020000 	strcs	r0, [r2], #-0
    3f50:	23fe0000 	mvnscs	r0, #0, 0
    3f54:	f0130000 			; <UNDEFINED> instruction: 0xf0130000
    3f58:	1d000011 	stcne	0, cr0, [r0, #-68]	; 0xffffffbc
    3f5c:	000008ec 	andeq	r0, r0, ip, ror #17
    3f60:	7ed89103 	atnvce	f1, f3
    3f64:	0008f81e 	andeq	pc, r8, lr, lsl r8	; <UNPREDICTABLE>
    3f68:	00242c00 	eoreq	r2, r4, r0, lsl #24
    3f6c:	00242200 	eoreq	r2, r4, r0, lsl #4
    3f70:	09021e00 	stmdbeq	r2, {r9, sl, fp, ip}
    3f74:	24710000 	ldrbtcs	r0, [r1], #-0
    3f78:	246d0000 	strbtcs	r0, [sp], #-0
    3f7c:	a31a0000 	tstge	sl, #0, 0
    3f80:	a0000009 	andge	r0, r0, r9
    3f84:	03000091 	movweq	r0, #145	; 0x91
    3f88:	00121000 	andseq	r1, r2, r0
    3f8c:	097c0100 	ldmdbeq	ip!, {r8}^
    3f90:	00000720 	andeq	r0, r0, r0, lsr #14
    3f94:	0009ca1b 	andeq	ip, r9, fp, lsl sl
    3f98:	00249300 	eoreq	r9, r4, r0, lsl #6
    3f9c:	00248f00 	eoreq	r8, r4, r0, lsl #30
    3fa0:	09be1b00 	ldmibeq	lr!, {r8, r9, fp, ip}
    3fa4:	24b50000 	ldrtcs	r0, [r5], #0
    3fa8:	24b10000 	ldrtcs	r0, [r1], #0
    3fac:	b41b0000 	ldrlt	r0, [fp], #-0
    3fb0:	df000009 	svcle	0x00000009
    3fb4:	d3000024 	movwle	r0, #36	; 0x24
    3fb8:	13000024 	movwne	r0, #36	; 0x24
    3fbc:	00001210 	andeq	r1, r0, r0, lsl r2
    3fc0:	0009d61e 	andeq	sp, r9, lr, lsl r6
    3fc4:	00253b00 	eoreq	r3, r5, r0, lsl #22
    3fc8:	00252f00 	eoreq	r2, r5, r0, lsl #30
    3fcc:	20000000 	andcs	r0, r0, r0
    3fd0:	0000094f 	andeq	r0, r0, pc, asr #18
    3fd4:	00009228 	andeq	r9, r0, r8, lsr #4
    3fd8:	12380002 	eorsne	r0, r8, #2, 0
    3fdc:	7c010000 	stcvc	0, cr0, [r1], {-0}
    3fe0:	09801b09 	stmibeq	r0, {r0, r3, r8, r9, fp, ip}
    3fe4:	258b0000 	strcs	r0, [fp]
    3fe8:	25870000 	strcs	r0, [r7]
    3fec:	761b0000 	ldrvc	r0, [fp], -r0
    3ff0:	b3000009 	movwlt	r0, #9
    3ff4:	a9000025 	stmdbge	r0, {r0, r2, r5}
    3ff8:	1b000025 	blne	4094 <__code_start__-0x3f6c>
    3ffc:	0000096c 	andeq	r0, r0, ip, ror #18
    4000:	000025ff 	strdeq	r2, [r0], -pc	; <UNPREDICTABLE>
    4004:	000025fb 	strdeq	r2, [r0], -fp
    4008:	0009601b 	andeq	r6, r9, fp, lsl r0
    400c:	00262d00 	eoreq	r2, r6, r0, lsl #26
    4010:	00262100 	eoreq	r2, r6, r0, lsl #2
    4014:	12381300 	eorsne	r1, r8, #0, 6
    4018:	8c1e0000 	ldchi	0, cr0, [lr], {-0}
    401c:	87000009 	strhi	r0, [r0, -r9]
    4020:	83000026 	movwhi	r0, #38	; 0x26
    4024:	1e000026 	cdpne	0, 0, cr0, cr0, cr6, {1}
    4028:	00000998 	muleq	r0, r8, r9
    402c:	000026ad 	andeq	r2, r0, sp, lsr #13
    4030:	000026a9 	andeq	r2, r0, r9, lsr #13
    4034:	00000000 	andeq	r0, r0, r0
    4038:	008f5417 	addeq	r5, pc, r7, lsl r4	; <UNPREDICTABLE>
    403c:	000aa400 	andeq	sl, sl, r0, lsl #8
    4040:	0007af00 	andeq	sl, r7, r0, lsl #30
    4044:	50011800 	andpl	r1, r1, r0, lsl #16
    4048:	01184001 	tsteq	r8, r1
    404c:	d0910351 	addsle	r0, r1, r1, asr r3
    4050:	5301187d 	movwpl	r1, #6269	; 0x187d
    4054:	18007502 	stmdane	r0, {r1, r8, sl, ip, sp, lr}
    4058:	01007d02 	tsteq	r0, r2, lsl #26
    405c:	64170030 	ldrvs	r0, [r7], #-48	; 0xffffffd0
    4060:	a4000090 	strge	r0, [r0], #-144	; 0xffffff70
    4064:	cf00000a 	svcgt	0x0000000a
    4068:	18000007 	stmdane	r0, {r0, r1, r2}
    406c:	3a015001 	bcc	58078 <__bss_end__+0x4daf8>
    4070:	03510118 	cmpeq	r1, #6
    4074:	187dd091 	ldmdane	sp!, {r0, r4, r7, ip, lr, pc}^
    4078:	75025301 	strvc	r5, [r2, #-769]	; 0xfffffcff
    407c:	48170000 	ldmdami	r7, {}	; <UNPREDICTABLE>
    4080:	46000093 			; <UNDEFINED> instruction: 0x46000093
    4084:	e600000c 	str	r0, [r0], -ip
    4088:	18000007 	stmdane	r0, {r0, r1, r2}
    408c:	03055001 	movweq	r5, #20481	; 0x5001
    4090:	00009eec 	andeq	r9, r0, ip, ror #29
    4094:	93582100 	cmpls	r8, #0
    4098:	07f80000 	ldrbeq	r0, [r8, r0]!
    409c:	01180000 	tsteq	r8, r0
    40a0:	c8910450 	ldmgt	r1, {r4, r6, sl}
    40a4:	1700067d 	smlsdxne	r0, sp, r6, r0
    40a8:	0000936c 	andeq	r9, r0, ip, ror #6
    40ac:	00000c46 	andeq	r0, r0, r6, asr #24
    40b0:	00000827 	andeq	r0, r0, r7, lsr #16
    40b4:	05500118 	ldrbeq	r0, [r0, #-280]	; 0xfffffee8
    40b8:	009f1c03 	addseq	r1, pc, r3, lsl #24
    40bc:	51011800 	tstpl	r1, r0, lsl #16
    40c0:	9de40305 	stclls	3, cr0, [r4, #20]!
    40c4:	01180000 	tsteq	r8, r0
    40c8:	54030552 	strpl	r0, [r3], #-1362	; 0xfffffaae
    40cc:	1800009f 	stmdane	r0, {r0, r1, r2, r3, r4, r7}
    40d0:	08025301 	stmdaeq	r2, {r0, r8, r9, ip, lr}
    40d4:	701900e2 	andsvc	r0, r9, r2, ror #1
    40d8:	76000093 			; <UNDEFINED> instruction: 0x76000093
    40dc:	1700000c 	strne	r0, [r0, -ip]
    40e0:	00009384 	andeq	r9, r0, r4, lsl #7
    40e4:	00000c46 	andeq	r0, r0, r6, asr #24
    40e8:	0000085f 	andeq	r0, r0, pc, asr r8
    40ec:	05500118 	ldrbeq	r0, [r0, #-280]	; 0xfffffee8
    40f0:	009ec403 	addseq	ip, lr, r3, lsl #8
    40f4:	51011800 	tstpl	r1, r0, lsl #16
    40f8:	9de40305 	stclls	3, cr0, [r4, #20]!
    40fc:	01180000 	tsteq	r8, r0
    4100:	54030552 	strpl	r0, [r3], #-1362	; 0xfffffaae
    4104:	1800009f 	stmdane	r0, {r0, r1, r2, r3, r4, r7}
    4108:	08025301 	stmdaeq	r2, {r0, r8, r9, ip, lr}
    410c:	881900be 	ldmdahi	r9, {r1, r2, r3, r4, r5, r7}
    4110:	76000093 			; <UNDEFINED> instruction: 0x76000093
    4114:	0000000c 	andeq	r0, r0, ip
    4118:	b9040800 	stmdblt	r4, {fp}
    411c:	22000000 	andcs	r0, r0, #0, 0
    4120:	000000c0 	andeq	r0, r0, r0, asr #1
    4124:	00000880 	andeq	r0, r0, r0, lsl #17
    4128:	00002c23 	andeq	r2, r0, r3, lsr #24
    412c:	09000900 	stmdbeq	r0, {r8, fp}
    4130:	00000870 	andeq	r0, r0, r0, ror r8
    4134:	0000b922 	andeq	fp, r0, r2, lsr #18
    4138:	00089500 	andeq	r9, r8, r0, lsl #10
    413c:	002c2300 	eoreq	r2, ip, r0, lsl #6
    4140:	007f0000 	rsbseq	r0, pc, r0
    4144:	00068324 	andeq	r8, r6, r4, lsr #6
    4148:	01490100 	mrseq	r0, (UNDEF: 89)
    414c:	0000086a 	andeq	r0, r0, sl, ror #16
    4150:	00092a01 	andeq	r2, r9, r1, lsl #20
    4154:	06c82500 	strbeq	r2, [r8], r0, lsl #10
    4158:	49010000 	stmdbmi	r1, {}	; <UNPREDICTABLE>
    415c:	00002c0f 	andeq	r2, r0, pc, lsl #24
    4160:	73642600 	cmnvc	r4, #0, 12
    4164:	49010074 	stmdbmi	r1, {r2, r4, r5, r6}
    4168:	00086a1b 	andeq	r6, r8, fp, lsl sl
    416c:	006e2600 	rsbeq	r2, lr, r0, lsl #12
    4170:	33244901 			; <UNDEFINED> instruction: 0x33244901
    4174:	26000000 	strcs	r0, [r0], -r0
    4178:	006c6176 	rsbeq	r6, ip, r6, ror r1
    417c:	332b4901 			; <UNDEFINED> instruction: 0x332b4901
    4180:	25000000 	strcs	r0, [r0, #-0]
    4184:	000005f9 	strdeq	r0, [r0], -r9
    4188:	33344901 	teqcc	r4, #16384	; 0x4000
    418c:	25000000 	strcs	r0, [r0, #-0]
    4190:	000006cd 	andeq	r0, r0, sp, asr #13
    4194:	333f4901 	teqcc	pc, #16384	; 0x4000
    4198:	27000000 	strcs	r0, [r0, -r0]
    419c:	00667562 	rsbeq	r7, r6, r2, ror #10
    41a0:	2a074e01 	bcs	1d79ac <__bss_end__+0x1cd42c>
    41a4:	27000009 	strcs	r0, [r0, -r9]
    41a8:	4e010070 	mcrmi	0, 0, r0, cr1, cr0, {3}
    41ac:	00086a11 	andeq	r6, r8, r1, lsl sl
    41b0:	00752700 	rsbseq	r2, r5, r0, lsl #14
    41b4:	2c0b4f01 	stccs	15, cr4, [fp], {1}
    41b8:	12000000 	andne	r0, r0, #0, 0
    41bc:	000005ff 	strdeq	r0, [r0], -pc	; <UNPREDICTABLE>
    41c0:	0000094a 	andeq	r0, r0, sl, asr #18
    41c4:	9f3c0305 	svcls	0x003c0305
    41c8:	29280000 	stmdbcs	r8!, {}	; <UNPREDICTABLE>
    41cc:	00000670 	andeq	r0, r0, r0, ror r6
    41d0:	2c0d5401 	cfstrscs	mvf5, [sp], {1}
    41d4:	00000000 	andeq	r0, r0, r0
    41d8:	00b92200 	adcseq	r2, r9, r0, lsl #4
    41dc:	093a0000 	ldmdbeq	sl!, {}	; <UNPREDICTABLE>
    41e0:	2c230000 	stccs	0, cr0, [r3], #-0
    41e4:	3f000000 	svccc	0x00000000
    41e8:	00c02200 	sbceq	r2, r0, r0, lsl #4
    41ec:	094a0000 	stmdbeq	sl, {}^	; <UNPREDICTABLE>
    41f0:	2c230000 	stccs	0, cr0, [r3], #-0
    41f4:	04000000 	streq	r0, [r0], #-0
    41f8:	093a0900 	ldmdbeq	sl!, {r8, fp}
    41fc:	88240000 	stmdahi	r4!, {}	; <UNPREDICTABLE>
    4200:	01000006 	tsteq	r0, r6
    4204:	086a0e38 	stmdaeq	sl!, {r3, r4, r5, r9, sl, fp}^
    4208:	a3010000 	movwge	r0, #4096	; 0x1000
    420c:	26000009 	strcs	r0, [r0], -r9
    4210:	00747364 	rsbseq	r7, r4, r4, ror #6
    4214:	6a1c3801 	bvs	712220 <__bss_end__+0x707ca0>
    4218:	26000008 	strcs	r0, [r0], -r8
    421c:	3801006e 	stmdacc	r1, {r1, r2, r3, r5, r6}
    4220:	00003325 	andeq	r3, r0, r5, lsr #6
    4224:	00702600 	rsbseq	r2, r0, r0, lsl #12
    4228:	6a2e3801 	bvs	b92234 <__bss_end__+0xb87cb4>
    422c:	25000008 	strcs	r0, [r0, #-8]
    4230:	000009e6 	andeq	r0, r0, r6, ror #19
    4234:	6a373801 	bvs	dd2240 <__bss_end__+0xdc7cc0>
    4238:	27000008 	strcs	r0, [r0, -r8]
    423c:	006e656c 	rsbeq	r6, lr, ip, ror #10
    4240:	33063a01 	movwcc	r3, #27137	; 0x6a01
    4244:	27000000 	strcs	r0, [r0, -r0]
    4248:	3e010073 	mcrcc	0, 0, r0, cr1, cr3, {3}
    424c:	00086a08 	andeq	r6, r8, r8, lsl #20
    4250:	702a0000 	eorvc	r0, sl, r0
    4254:	01006461 	tsteq	r0, r1, ror #8
    4258:	086a0e2e 	stmdaeq	sl!, {r1, r2, r3, r5, r9, sl, fp}^
    425c:	e3010000 	movw	r0, #4096	; 0x1000
    4260:	26000009 	strcs	r0, [r0], -r9
    4264:	2e010070 	mcrcs	0, 0, r0, cr1, cr0, {3}
    4268:	00086a18 	andeq	r6, r8, r8, lsl sl
    426c:	06c82500 	strbeq	r2, [r8], r0, lsl #10
    4270:	2e010000 	cdpcs	0, 0, cr0, cr1, cr0, {0}
    4274:	00086a22 	andeq	r6, r8, r2, lsr #20
    4278:	05f92500 	ldrbeq	r2, [r9, #1280]!	; 0x500
    427c:	2e010000 	cdpcs	0, 0, cr0, cr1, cr0, {0}
    4280:	0000332c 	andeq	r3, r0, ip, lsr #6
    4284:	656c2700 	strbvs	r2, [ip, #-1792]!	; 0xfffff900
    4288:	2f01006e 	svccs	0x0001006e
    428c:	00003306 	andeq	r3, r0, r6, lsl #6
    4290:	b8240000 	stmdalt	r4!, {}	; <UNPREDICTABLE>
    4294:	01000005 	tsteq	r0, r5
    4298:	00330c27 	eorseq	r0, r3, r7, lsr #24
    429c:	ff010000 			; <UNDEFINED> instruction: 0xff010000
    42a0:	26000009 	strcs	r0, [r0], -r9
    42a4:	27010063 	strcs	r0, [r1, -r3, rrx]
    42a8:	00003318 	andeq	r3, r0, r8, lsl r3
    42ac:	492b0000 	stmdbmi	fp!, {}	; <UNPREDICTABLE>
    42b0:	01000006 	tsteq	r0, r6
    42b4:	8da0061f 	stchi	6, cr0, [r0, #124]!	; 0x7c
    42b8:	00600000 	rsbeq	r0, r0, r0
    42bc:	9c010000 	stcls	0, cr0, [r1], {-0}
    42c0:	00000a8f 	andeq	r0, r0, pc, lsl #21
    42c4:	0006260f 	andeq	r2, r6, pc, lsl #12
    42c8:	1b1f0100 	blne	7c46d0 <__bss_end__+0x7ba150>
    42cc:	0000009e 	muleq	r0, lr, r0
    42d0:	000026d2 	ldrdeq	r2, [r0], -r2	; <UNPREDICTABLE>
    42d4:	000026ce 	andeq	r2, r0, lr, asr #13
    42d8:	0006970f 	andeq	r9, r6, pc, lsl #14
    42dc:	301f0100 	andscc	r0, pc, r0, lsl #2
    42e0:	000000d1 	ldrdeq	r0, [r0], -r1
    42e4:	000026f7 	strdeq	r2, [r0], -r7
    42e8:	000026f3 	strdeq	r2, [r0], -r3
    42ec:	0005ff12 	andeq	pc, r5, r2, lsl pc	; <UNPREDICTABLE>
    42f0:	000a9f00 	andeq	r9, sl, r0, lsl #30
    42f4:	44030500 	strmi	r0, [r3], #-1280	; 0xfffffb00
    42f8:	1700009f 			; <UNDEFINED> instruction: 0x1700009f
    42fc:	00008de4 	andeq	r8, r0, r4, ror #27
    4300:	00000c46 	andeq	r0, r0, r6, asr #24
    4304:	00000a85 	andeq	r0, r0, r5, lsl #21
    4308:	05500118 	ldrbeq	r0, [r0, #-280]	; 0xfffffee8
    430c:	009df803 	addseq	pc, sp, r3, lsl #16
    4310:	51011800 	tstpl	r1, r0, lsl #16
    4314:	9de40305 	stclls	3, cr0, [r4, #20]!
    4318:	01180000 	tsteq	r8, r0
    431c:	44030552 	strmi	r0, [r3], #-1362	; 0xfffffaae
    4320:	1800009f 	stmdane	r0, {r0, r1, r2, r3, r4, r7}
    4324:	08025301 	stmdaeq	r2, {r0, r8, r9, ip, lr}
    4328:	7d021820 	stcvc	8, cr1, [r2, #-128]	; 0xffffff80
    432c:	34030500 	strcc	r0, [r3], #-1280	; 0xfffffb00
    4330:	0000009e 	muleq	r0, lr, r0
    4334:	008de819 	addeq	lr, sp, r9, lsl r8
    4338:	000c7600 	andeq	r7, ip, r0, lsl #12
    433c:	c0220000 	eorgt	r0, r2, r0
    4340:	9f000000 	svcls	0x00000000
    4344:	2300000a 	movwcs	r0, #10
    4348:	0000002c 	andeq	r0, r0, ip, lsr #32
    434c:	8f09000e 	svchi	0x0009000e
    4350:	2c00000a 	stccs	0, cr0, [r0], {10}
    4354:	00000895 	muleq	r0, r5, r8
    4358:	00008a78 	andeq	r8, r0, r8, ror sl
    435c:	00000328 	andeq	r0, r0, r8, lsr #6
    4360:	0c3a9c01 	ldceq	12, cr9, [sl], #-4
    4364:	a61b0000 	ldrge	r0, [fp], -r0
    4368:	30000008 	andcc	r0, r0, r8
    436c:	18000027 	stmdane	r0, {r0, r1, r2, r5}
    4370:	1b000027 	blne	4414 <__code_start__-0x3bec>
    4374:	000008b2 			; <UNDEFINED> instruction: 0x000008b2
    4378:	000027da 	ldrdeq	r2, [r0], -sl
    437c:	000027d2 	ldrdeq	r2, [r0], -r2	; <UNPREDICTABLE>
    4380:	0008c81b 	andeq	ip, r8, fp, lsl r8
    4384:	00283100 	eoreq	r3, r8, r0, lsl #2
    4388:	00281100 	eoreq	r1, r8, r0, lsl #2
    438c:	08d41b00 	ldmeq	r4, {r8, r9, fp, ip}^
    4390:	29070000 	stmdbcs	r7, {}	; <UNPREDICTABLE>
    4394:	28f90000 	ldmcs	r9!, {}^	; <UNPREDICTABLE>
    4398:	e02d0000 	eor	r0, sp, r0
    439c:	02000008 	andeq	r0, r0, #8, 0
    43a0:	ec1d0091 	ldc	0, cr0, [sp], {145}	; 0x91
    43a4:	03000008 	movweq	r0, #8
    43a8:	1e7fa891 	mrcne	8, 3, sl, cr15, cr1, {4}
    43ac:	000008f8 	strdeq	r0, [r0], -r8
    43b0:	0000299b 	muleq	r0, fp, r9
    43b4:	00002967 	andeq	r2, r0, r7, ror #18
    43b8:	0009021e 	andeq	r0, r9, lr, lsl r2
    43bc:	002b0200 	eoreq	r0, fp, r0, lsl #4
    43c0:	002ae000 	eoreq	lr, sl, r0
    43c4:	08be2e00 	ldmeq	lr!, {r9, sl, fp, sp}
    43c8:	1a800000 	bne	fe0043d0 <__bss_end__+0xfdff9e50>
    43cc:	000009a3 	andeq	r0, r0, r3, lsr #19
    43d0:	00008b1c 	andeq	r8, r0, ip, lsl fp
    43d4:	10880004 	addne	r0, r8, r4
    43d8:	7c010000 	stcvc	0, cr0, [r1], {-0}
    43dc:	000b6d09 	andeq	r6, fp, r9, lsl #26
    43e0:	09ca1b00 	stmibeq	sl, {r8, r9, fp, ip}^
    43e4:	2bea0000 	blcs	ffa843ec <__bss_end__+0xffa79e6c>
    43e8:	2be00000 	blcs	ff8043f0 <__bss_end__+0xff7f9e70>
    43ec:	be1b0000 	cdplt	0, 1, cr0, cr11, cr0, {0}
    43f0:	3e000009 	cdpcc	0, 0, cr0, cr0, cr9, {0}
    43f4:	2e00002c 	cdpcs	0, 0, cr0, cr0, cr12, {1}
    43f8:	1b00002c 	blne	44b0 <__code_start__-0x3b50>
    43fc:	000009b4 			; <UNDEFINED> instruction: 0x000009b4
    4400:	00002cbe 			; <UNDEFINED> instruction: 0x00002cbe
    4404:	00002caa 	andeq	r2, r0, sl, lsr #25
    4408:	00108813 	andseq	r8, r0, r3, lsl r8
    440c:	09d61e00 	ldmibeq	r6, {r9, sl, fp, ip}^
    4410:	2d500000 	ldclcs	0, cr0, [r0, #-0]
    4414:	2d400000 	stclcs	0, cr0, [r0, #-0]
    4418:	00000000 	andeq	r0, r0, r0
    441c:	00094f1a 	andeq	r4, r9, sl, lsl pc
    4420:	008bd400 	addeq	sp, fp, r0, lsl #8
    4424:	d0000200 	andle	r0, r0, r0, lsl #4
    4428:	01000010 	tsteq	r0, r0, lsl r0
    442c:	0bd8097c 	bleq	ff606a24 <__bss_end__+0xff5fc4a4>
    4430:	801b0000 	andshi	r0, fp, r0
    4434:	bc000009 	stclt	0, cr0, [r0], {9}
    4438:	b400002d 	strlt	r0, [r0], #-45	; 0xffffffd3
    443c:	1b00002d 	blne	44f8 <__code_start__-0x3b08>
    4440:	00000976 	andeq	r0, r0, r6, ror r9
    4444:	00002dfb 	strdeq	r2, [r0], -fp
    4448:	00002df3 	strdeq	r2, [r0], -r3
    444c:	00096c1b 	andeq	r6, r9, fp, lsl ip
    4450:	002e3a00 	eoreq	r3, lr, r0, lsl #20
    4454:	002e3600 	eoreq	r3, lr, r0, lsl #12
    4458:	09601b00 	stmdbeq	r0!, {r8, r9, fp, ip}^
    445c:	2e6a0000 	cdpcs	0, 6, cr0, cr10, cr0, {0}
    4460:	2e5c0000 	cdpcs	0, 5, cr0, cr12, cr0, {0}
    4464:	d0130000 	andsle	r0, r3, r0
    4468:	1e000010 	mcrne	0, 0, r0, cr0, cr0, {0}
    446c:	0000098c 	andeq	r0, r0, ip, lsl #19
    4470:	00002ecf 	andeq	r2, r0, pc, asr #29
    4474:	00002ec9 	andeq	r2, r0, r9, asr #29
    4478:	0009981e 	andeq	r9, r9, lr, lsl r8
    447c:	002f0100 	eoreq	r0, pc, r0, lsl #2
    4480:	002efd00 	eoreq	pc, lr, r0, lsl #26
    4484:	2f000000 	svccs	0x00000000
    4488:	0000091b 	andeq	r0, r0, fp, lsl r9
    448c:	00008c8c 	andeq	r8, r0, ip, lsl #25
    4490:	00000060 	andeq	r0, r0, r0, rrx
    4494:	00000bf7 	strdeq	r0, [r0], -r7
    4498:	00091c1e 	andeq	r1, r9, lr, lsl ip
    449c:	002f2300 	eoreq	r2, pc, r0, lsl #6
    44a0:	002f1f00 	eoreq	r1, pc, r0, lsl #30
    44a4:	60170000 	andsvs	r0, r7, r0
    44a8:	4600008d 	strmi	r0, [r0], -sp, lsl #1
    44ac:	3000000c 	andcc	r0, r0, ip
    44b0:	1800000c 	stmdane	r0, {r2, r3}
    44b4:	03055001 	movweq	r5, #20481	; 0x5001
    44b8:	00009df8 	strdeq	r9, [r0], -r8
    44bc:	05510118 	ldrbeq	r0, [r1, #-280]	; 0xfffffee8
    44c0:	009de403 	addseq	lr, sp, r3, lsl #8
    44c4:	52011800 	andpl	r1, r1, #0, 16
    44c8:	9f3c0305 	svcls	0x003c0305
    44cc:	01180000 	tsteq	r8, r0
    44d0:	79080253 	stmdbvc	r8, {r0, r1, r4, r6, r9}
    44d4:	007d0218 	rsbseq	r0, sp, r8, lsl r2
    44d8:	9e0c0305 	cdpls	3, 0, cr0, cr12, cr5, {0}
    44dc:	19000000 	stmdbne	r0, {}	; <UNPREDICTABLE>
    44e0:	00008d64 	andeq	r8, r0, r4, ror #26
    44e4:	00000c76 	andeq	r0, r0, r6, ror ip
    44e8:	06c03000 	strbeq	r3, [r0], r0
    44ec:	06c00000 	strbeq	r0, [r0], r0
    44f0:	eb030000 	bl	c44f8 <__bss_end__+0xb9f78>
    44f4:	05673005 	strbeq	r3, [r7, #-5]!
    44f8:	05670000 	strbeq	r0, [r7, #-0]!
    44fc:	28030000 	stmdacs	r3, {}	; <UNPREDICTABLE>
    4500:	06623006 	strbteq	r3, [r2], -r6
    4504:	06620000 	strbteq	r0, [r2], -r0
    4508:	ee030000 	cdp	0, 0, cr0, cr3, cr0, {0}
    450c:	06903007 	ldreq	r3, [r0], r7
    4510:	06900000 	ldreq	r0, [r0], r0
    4514:	ea030000 	b	c451c <__bss_end__+0xb9f9c>
    4518:	06693005 	strbteq	r3, [r9], -r5
    451c:	06690000 	strbteq	r0, [r9], -r0
    4520:	ed030000 	stc	0, cr0, [r3, #-0]
    4524:	060c3007 	streq	r3, [ip], -r7
    4528:	060c0000 	streq	r0, [ip], -r0
    452c:	6e030000 	cdpvs	0, 0, cr0, cr3, cr0, {0}
    4530:	010a0006 	tsteq	sl, r6
    4534:	00040000 	andeq	r0, r4, r0
    4538:	00000c79 	andeq	r0, r0, r9, ror ip
    453c:	04a70104 	strteq	r0, [r7], #260	; 0x104
    4540:	e40c0000 	str	r0, [ip], #-0
    4544:	3b000006 	blcc	4564 <__code_start__-0x3a9c>
    4548:	60000004 	andvs	r0, r0, r4
    454c:	00000012 	andeq	r0, r0, r2, lsl r0
    4550:	a2000000 	andge	r0, r0, #0, 0
    4554:	0200001f 	andeq	r0, r0, #31, 0
    4558:	6e690504 	cdpvs	5, 6, cr0, cr9, cr4, {0}
    455c:	04030074 	streq	r0, [r3], #-116	; 0xffffff8c
    4560:	0001b007 	andeq	fp, r1, r7
    4564:	06010300 	streq	r0, [r1], -r0, lsl #6
    4568:	0000008f 	andeq	r0, r0, pc, lsl #1
    456c:	e7050203 	str	r0, [r5, -r3, lsl #4]
    4570:	03000001 	movweq	r0, #1
    4574:	01d20504 	bicseq	r0, r2, r4, lsl #10
    4578:	08030000 	stmdaeq	r3, {}	; <UNPREDICTABLE>
    457c:	0001cd05 	andeq	ip, r1, r5, lsl #26
    4580:	08010300 	stmdaeq	r1, {r8, r9}
    4584:	0000008d 	andeq	r0, r0, sp, lsl #1
    4588:	a4070203 	strge	r0, [r7], #-515	; 0xfffffdfd
    458c:	03000000 	movweq	r0, #0
    4590:	01ab0704 			; <UNDEFINED> instruction: 0x01ab0704
    4594:	08030000 	stmdaeq	r3, {}	; <UNPREDICTABLE>
    4598:	0001a607 	andeq	sl, r1, r7, lsl #12
    459c:	00250400 	eoreq	r0, r5, r0, lsl #8
    45a0:	007a0000 	rsbseq	r0, sl, r0
    45a4:	25050000 	strcs	r0, [r5, #-0]
    45a8:	00000000 	andeq	r0, r0, r0
    45ac:	0001db06 	andeq	sp, r1, r6, lsl #22
    45b0:	0e1c0200 	cdpeq	2, 1, cr0, cr12, cr0, {0}
    45b4:	00000086 	andeq	r0, r0, r6, lsl #1
    45b8:	006b0407 	rsbeq	r0, fp, r7, lsl #8
    45bc:	25040000 	strcs	r0, [r4, #-0]
    45c0:	9b000000 	blls	45c8 <__code_start__-0x3a38>
    45c4:	05000000 	streq	r0, [r0, #-0]
    45c8:	0000009b 	muleq	r0, fp, r0
    45cc:	a8040700 	stmdage	r4, {r8, r9, sl}
    45d0:	03000000 	movweq	r0, #0
    45d4:	00960801 	addseq	r0, r6, r1, lsl #16
    45d8:	a1080000 	mrsge	r0, (UNDEF: 8)
    45dc:	06000000 	streq	r0, [r0], -r0
    45e0:	000005a5 	andeq	r0, r0, r5, lsr #11
    45e4:	b90e2102 	stmdblt	lr, {r1, r8, sp}
    45e8:	07000000 	streq	r0, [r0, -r0]
    45ec:	00008c04 	andeq	r8, r0, r4, lsl #24
    45f0:	06d60900 	ldrbeq	r0, [r6], r0, lsl #18
    45f4:	0c010000 	stceq	0, cr0, [r1], {-0}
    45f8:	00943c06 	addseq	r3, r4, r6, lsl #24
    45fc:	00001000 	andeq	r1, r0, r0
    4600:	e89c0100 	ldm	ip, {r8}
    4604:	0a000000 	beq	460c <__code_start__-0x39f4>
    4608:	0d010072 	stceq	0, cr0, [r1, #-456]	; 0xfffffe38
    460c:	00002c0e 	andeq	r2, r0, lr, lsl #24
    4610:	002f4b00 	eoreq	r4, pc, r0, lsl #22
    4614:	002f4300 	eoreq	r4, pc, r0, lsl #6
    4618:	f10b0000 			; <UNDEFINED> instruction: 0xf10b0000
    461c:	01000001 	tsteq	r0, r1
    4620:	942c0603 	strtls	r0, [ip], #-1539	; 0xfffff9fd
    4624:	00100000 	andseq	r0, r0, r0
    4628:	9c010000 	stcls	0, cr0, [r1], {-0}
    462c:	0100720a 	tsteq	r0, sl, lsl #4
    4630:	002c0e04 	eoreq	r0, ip, r4, lsl #28
    4634:	2f930000 	svccs	0x00930000
    4638:	2f8b0000 	svccs	0x008b0000
    463c:	00000000 	andeq	r0, r0, r0
    4640:	0000012f 	andeq	r0, r0, pc, lsr #2
    4644:	0d220004 	stceq	0, cr0, [r2, #-16]!
    4648:	01040000 	mrseq	r0, (UNDEF: 4)
    464c:	000004a7 	andeq	r0, r0, r7, lsr #9
    4650:	0007030c 	andeq	r0, r7, ip, lsl #6
    4654:	00043b00 	andeq	r3, r4, r0, lsl #22
    4658:	00944c00 	addseq	r4, r4, r0, lsl #24
    465c:	00002c00 	andeq	r2, r0, r0, lsl #24
    4660:	00204600 	eoreq	r4, r0, r0, lsl #12
    4664:	05040200 	streq	r0, [r4, #-512]	; 0xfffffe00
    4668:	00746e69 	rsbseq	r6, r4, r9, ror #28
    466c:	b0070403 	andlt	r0, r7, r3, lsl #8
    4670:	03000001 	movweq	r0, #1
    4674:	008f0601 	addeq	r0, pc, r1, lsl #12
    4678:	02030000 	andeq	r0, r3, #0, 0
    467c:	0001e705 	andeq	lr, r1, r5, lsl #14
    4680:	05040300 	streq	r0, [r4, #-768]	; 0xfffffd00
    4684:	000001d2 	ldrdeq	r0, [r0], -r2
    4688:	cd050803 	stcgt	8, cr0, [r5, #-12]
    468c:	03000001 	movweq	r0, #1
    4690:	008d0801 	addeq	r0, sp, r1, lsl #16
    4694:	02030000 	andeq	r0, r3, #0, 0
    4698:	0000a407 	andeq	sl, r0, r7, lsl #8
    469c:	07040300 	streq	r0, [r4, -r0, lsl #6]
    46a0:	000001ab 	andeq	r0, r0, fp, lsr #3
    46a4:	a6070803 	strge	r0, [r7], -r3, lsl #16
    46a8:	04000001 	streq	r0, [r0], #-1
    46ac:	00000025 	andeq	r0, r0, r5, lsr #32
    46b0:	0000007a 	andeq	r0, r0, sl, ror r0
    46b4:	00002505 	andeq	r2, r0, r5, lsl #10
    46b8:	db060000 	blle	1846c0 <__bss_end__+0x17a140>
    46bc:	02000001 	andeq	r0, r0, #1, 0
    46c0:	00860e1c 	addeq	r0, r6, ip, lsl lr
    46c4:	04070000 	streq	r0, [r7], #-0
    46c8:	0000006b 	andeq	r0, r0, fp, rrx
    46cc:	00002504 	andeq	r2, r0, r4, lsl #10
    46d0:	00009b00 	andeq	r9, r0, r0, lsl #22
    46d4:	009b0500 	addseq	r0, fp, r0, lsl #10
    46d8:	07000000 	streq	r0, [r0, -r0]
    46dc:	0000a804 	andeq	sl, r0, r4, lsl #16
    46e0:	08010300 	stmdaeq	r1, {r8, r9}
    46e4:	00000096 	muleq	r0, r6, r0
    46e8:	0000a108 	andeq	sl, r0, r8, lsl #2
    46ec:	05a50600 	streq	r0, [r5, #1536]!	; 0x600
    46f0:	21020000 	mrscs	r0, (UNDEF: 2)
    46f4:	0000b90e 	andeq	fp, r0, lr, lsl #18
    46f8:	8c040700 	stchi	7, cr0, [r4], {-0}
    46fc:	09000000 	stmdbeq	r0, {}	; <UNPREDICTABLE>
    4700:	0000060c 	andeq	r0, r0, ip, lsl #12
    4704:	4c060401 	cfstrsmi	mvf0, [r6], {1}
    4708:	2c000094 	stccs	0, cr0, [r0], {148}	; 0x94
    470c:	01000000 	mrseq	r0, (UNDEF: 0)
    4710:	00010e9c 	muleq	r1, ip, lr
    4714:	94600a00 	strbtls	r0, [r0], #-2560	; 0xfffff600
    4718:	00e80000 	rsceq	r0, r8, r0
    471c:	010b0000 	mrseq	r0, (UNDEF: 11)
    4720:	60030550 	andvs	r0, r3, r0, asr r5
    4724:	0000009f 	muleq	r0, pc, r0	; <UNPREDICTABLE>
    4728:	0094640c 	addseq	r6, r4, ip, lsl #8
    472c:	00010e00 	andeq	r0, r1, r0, lsl #28
    4730:	946c0d00 	strbtls	r0, [ip], #-3328	; 0xfffff300
    4734:	011a0000 	tsteq	sl, r0
    4738:	01040000 	mrseq	r0, (UNDEF: 4)
    473c:	010b0000 	mrseq	r0, (UNDEF: 11)
    4740:	003a0150 	eorseq	r0, sl, r0, asr r1
    4744:	0094700c 	addseq	r7, r4, ip
    4748:	00012600 	andeq	r2, r1, r0, lsl #12
    474c:	1e0e0000 	cdpne	0, 0, cr0, cr14, cr0, {0}
    4750:	1e000007 	cdpne	0, 0, cr0, cr0, cr7, {0}
    4754:	02000007 	andeq	r0, r0, #7, 0
    4758:	9b0e064d 	blls	386094 <__bss_end__+0x37bb14>
    475c:	9b000000 	blls	4764 <__code_start__-0x389c>
    4760:	02000000 	andeq	r0, r0, #0, 0
    4764:	f80e0658 			; <UNDEFINED> instruction: 0xf80e0658
    4768:	f8000006 			; <UNDEFINED> instruction: 0xf8000006
    476c:	02000006 	andeq	r0, r0, #6, 0
    4770:	9000066b 	andls	r0, r0, fp, ror #12
    4774:	04000001 	streq	r0, [r0], #-1
    4778:	000de200 	andeq	lr, sp, r0, lsl #4
    477c:	a7010400 	strge	r0, [r1, -r0, lsl #8]
    4780:	0c000004 	stceq	0, cr0, [r0], {4}
    4784:	00000754 	andeq	r0, r0, r4, asr r7
    4788:	0000043b 	andeq	r0, r0, fp, lsr r4
    478c:	00009478 	andeq	r9, r0, r8, ror r4
    4790:	000000f8 	strdeq	r0, [r0], -r8
    4794:	000020d1 	ldrdeq	r2, [r0], -r1
    4798:	69050402 	stmdbvs	r5, {r1, sl}
    479c:	0300746e 	movweq	r7, #1134	; 0x46e
    47a0:	01b00704 	lslseq	r0, r4, #14
    47a4:	01030000 	mrseq	r0, (UNDEF: 3)
    47a8:	00008f06 	andeq	r8, r0, r6, lsl #30
    47ac:	05020300 	streq	r0, [r2, #-768]	; 0xfffffd00
    47b0:	000001e7 	andeq	r0, r0, r7, ror #3
    47b4:	d2050403 	andle	r0, r5, #50331648	; 0x3000000
    47b8:	03000001 	movweq	r0, #1
    47bc:	01cd0508 	biceq	r0, sp, r8, lsl #10
    47c0:	01030000 	mrseq	r0, (UNDEF: 3)
    47c4:	00008d08 	andeq	r8, r0, r8, lsl #26
    47c8:	07020300 	streq	r0, [r2, -r0, lsl #6]
    47cc:	000000a4 	andeq	r0, r0, r4, lsr #1
    47d0:	ab070403 	blge	1c57e4 <__bss_end__+0x1bb264>
    47d4:	03000001 	movweq	r0, #1
    47d8:	01a60708 			; <UNDEFINED> instruction: 0x01a60708
    47dc:	25040000 	strcs	r0, [r4, #-0]
    47e0:	7a000000 	bvc	47e8 <__code_start__-0x3818>
    47e4:	05000000 	streq	r0, [r0, #-0]
    47e8:	00000025 	andeq	r0, r0, r5, lsr #32
    47ec:	01db0600 	bicseq	r0, fp, r0, lsl #12
    47f0:	1c020000 	stcne	0, cr0, [r2], {-0}
    47f4:	0000860e 	andeq	r8, r0, lr, lsl #12
    47f8:	6b040700 	blvs	106400 <__bss_end__+0xfbe80>
    47fc:	04000000 	streq	r0, [r0], #-0
    4800:	00000025 	andeq	r0, r0, r5, lsr #32
    4804:	0000009b 	muleq	r0, fp, r0
    4808:	00009b05 	andeq	r9, r0, r5, lsl #22
    480c:	04070000 	streq	r0, [r7], #-0
    4810:	000000a8 	andeq	r0, r0, r8, lsr #1
    4814:	96080103 	strls	r0, [r8], -r3, lsl #2
    4818:	08000000 	stmdaeq	r0, {}	; <UNPREDICTABLE>
    481c:	000000a1 	andeq	r0, r0, r1, lsr #1
    4820:	0005a506 	andeq	sl, r5, r6, lsl #10
    4824:	0e210200 	cdpeq	2, 2, cr0, cr1, cr0, {0}
    4828:	000000b9 	strheq	r0, [r0], -r9
    482c:	008c0407 	addeq	r0, ip, r7, lsl #8
    4830:	2c090000 	stccs	0, cr0, [r9], {-0}
    4834:	01000007 	tsteq	r0, r7
    4838:	94780604 	ldrbtls	r0, [r8], #-1540	; 0xfffff9fc
    483c:	00f80000 	rscseq	r0, r8, r0
    4840:	9c010000 	stcls	0, cr0, [r1], {-0}
    4844:	0000015b 	andeq	r0, r0, fp, asr r1
    4848:	0005eb06 	andeq	lr, r5, r6, lsl #22
    484c:	10050100 	andne	r0, r5, r0, lsl #2
    4850:	00000025 	andeq	r0, r0, r5, lsr #32
    4854:	00062e06 	andeq	r2, r6, r6, lsl #28
    4858:	1f050100 	svcne	0x00050100
    485c:	00000025 	andeq	r0, r0, r5, lsr #32
    4860:	0000410a 	andeq	r4, r0, sl, lsl #2
    4864:	07060100 	streq	r0, [r6, -r0, lsl #2]
    4868:	7373620b 	cmnvc	r3, #-1342177280	; 0xb0000000
    486c:	0a0a0100 	beq	284c74 <__bss_end__+0x27a6f4>
    4870:	0000015b 	andeq	r0, r0, fp, asr r1
    4874:	00002feb 	andeq	r2, r0, fp, ror #31
    4878:	00002fd3 	ldrdeq	r2, [r0], -r3
    487c:	0007340c 	andeq	r3, r7, ip, lsl #8
    4880:	0a0b0100 	beq	2c4c88 <__bss_end__+0x2ba708>
    4884:	0000015b 	andeq	r0, r0, fp, asr r1
    4888:	0095500d 	addseq	r5, r5, sp
    488c:	00000800 	andeq	r0, r0, r0, lsl #16
    4890:	00013600 	andeq	r3, r1, r0, lsl #12
    4894:	6e690b00 	vmulvs.f64	d16, d9, d0
    4898:	05140100 	ldreq	r0, [r4, #-256]	; 0xffffff00
    489c:	0000002c 	andeq	r0, r0, ip, lsr #32
    48a0:	00003085 	andeq	r3, r0, r5, lsl #1
    48a4:	00003083 	andeq	r3, r0, r3, lsl #1
    48a8:	94800e00 	strls	r0, [r0], #3584	; 0xe00
    48ac:	01610000 	cmneq	r1, r0
    48b0:	500e0000 	andpl	r0, lr, r0
    48b4:	6e000095 	mcrvs	0, 0, r0, cr0, cr5, {4}
    48b8:	0e000001 	cdpeq	0, 0, cr0, cr0, cr1, {0}
    48bc:	0000955c 	andeq	r9, r0, ip, asr r5
    48c0:	0000017a 	andeq	r0, r0, sl, ror r1
    48c4:	0095600e 	addseq	r6, r5, lr
    48c8:	00018700 	andeq	r8, r1, r0, lsl #14
    48cc:	04070000 	streq	r0, [r7], #-0
    48d0:	00000025 	andeq	r0, r0, r5, lsr #32
    48d4:	0007460f 	andeq	r4, r7, pc, lsl #12
    48d8:	00074600 	andeq	r4, r7, r0, lsl #12
    48dc:	01310200 	teqeq	r1, r0, lsl #4
    48e0:	073c1006 	ldreq	r1, [ip, -r6]!
    48e4:	073c0000 	ldreq	r0, [ip, -r0]!
    48e8:	3b020000 	blcc	848f0 <__bss_end__+0x7a370>
    48ec:	00410f06 	subeq	r0, r1, r6, lsl #30
    48f0:	00410000 	subeq	r0, r1, r0
    48f4:	05020000 	streq	r0, [r2, #-0]
    48f8:	0c100601 	ldceq	6, cr0, [r0], {1}
    48fc:	0c000006 	stceq	0, cr0, [r0], {6}
    4900:	02000006 	andeq	r0, r0, #6, 0
    4904:	ce00066e 	cfmadd32gt	mvax3, mvfx0, mvfx0, mvfx14
    4908:	04000000 	streq	r0, [r0], #-0
    490c:	000ecd00 	andeq	ip, lr, r0, lsl #26
    4910:	a7010400 	strge	r0, [r1, -r0, lsl #8]
    4914:	0c000004 	stceq	0, cr0, [r0], {4}
    4918:	00000769 	andeq	r0, r0, r9, ror #14
    491c:	0000043b 	andeq	r0, r0, fp, lsr r4
    4920:	00009570 	andeq	r9, r0, r0, ror r5
    4924:	00000004 	andeq	r0, r0, r4
    4928:	000021e7 	andeq	r2, r0, r7, ror #3
    492c:	69050402 	stmdbvs	r5, {r1, sl}
    4930:	0300746e 	movweq	r7, #1134	; 0x46e
    4934:	01b00704 	lslseq	r0, r4, #14
    4938:	01030000 	mrseq	r0, (UNDEF: 3)
    493c:	00008f06 	andeq	r8, r0, r6, lsl #30
    4940:	05020300 	streq	r0, [r2, #-768]	; 0xfffffd00
    4944:	000001e7 	andeq	r0, r0, r7, ror #3
    4948:	d2050403 	andle	r0, r5, #50331648	; 0x3000000
    494c:	03000001 	movweq	r0, #1
    4950:	01cd0508 	biceq	r0, sp, r8, lsl #10
    4954:	01030000 	mrseq	r0, (UNDEF: 3)
    4958:	00008d08 	andeq	r8, r0, r8, lsl #26
    495c:	07020300 	streq	r0, [r2, -r0, lsl #6]
    4960:	000000a4 	andeq	r0, r0, r4, lsr #1
    4964:	ab070403 	blge	1c5978 <__bss_end__+0x1bb3f8>
    4968:	03000001 	movweq	r0, #1
    496c:	01a60708 			; <UNDEFINED> instruction: 0x01a60708
    4970:	25040000 	strcs	r0, [r4, #-0]
    4974:	7a000000 	bvc	497c <__code_start__-0x3684>
    4978:	05000000 	streq	r0, [r0, #-0]
    497c:	00000025 	andeq	r0, r0, r5, lsr #32
    4980:	01db0600 	bicseq	r0, fp, r0, lsl #12
    4984:	1c020000 	stcne	0, cr0, [r2], {-0}
    4988:	0000860e 	andeq	r8, r0, lr, lsl #12
    498c:	6b040700 	blvs	106594 <__bss_end__+0xfc014>
    4990:	04000000 	streq	r0, [r0], #-0
    4994:	00000025 	andeq	r0, r0, r5, lsr #32
    4998:	0000009b 	muleq	r0, fp, r0
    499c:	00009b05 	andeq	r9, r0, r5, lsl #22
    49a0:	04070000 	streq	r0, [r7], #-0
    49a4:	000000a8 	andeq	r0, r0, r8, lsr #1
    49a8:	96080103 	strls	r0, [r8], -r3, lsl #2
    49ac:	08000000 	stmdaeq	r0, {}	; <UNPREDICTABLE>
    49b0:	000000a1 	andeq	r0, r0, r1, lsr #1
    49b4:	0005a506 	andeq	sl, r5, r6, lsl #10
    49b8:	0e210200 	cdpeq	2, 2, cr0, cr1, cr0, {0}
    49bc:	000000b9 	strheq	r0, [r0], -r9
    49c0:	008c0407 	addeq	r0, ip, r7, lsl #8
    49c4:	46090000 	strmi	r0, [r9], -r0
    49c8:	01000007 	tsteq	r0, r7
    49cc:	95700604 	ldrbls	r0, [r0, #-1540]!	; 0xfffff9fc
    49d0:	00040000 	andeq	r0, r4, r0
    49d4:	9c010000 	stcls	0, cr0, [r1], {-0}
    49d8:	00027d00 	andeq	r7, r2, r0, lsl #26
    49dc:	46000400 	strmi	r0, [r0], -r0, lsl #8
    49e0:	0400000f 	streq	r0, [r0], #-15
    49e4:	0004a701 	andeq	sl, r4, r1, lsl #14
    49e8:	07ab0c00 	streq	r0, [fp, r0, lsl #24]!
    49ec:	043b0000 	ldrteq	r0, [fp], #-0
    49f0:	12880000 	addne	r0, r8, #0, 0
    49f4:	00000000 	andeq	r0, r0, r0
    49f8:	22680000 	rsbcs	r0, r8, #0, 0
    49fc:	04020000 	streq	r0, [r2], #-0
    4a00:	746e6905 	strbtvc	r6, [lr], #-2309	; 0xfffff6fb
    4a04:	00250300 	eoreq	r0, r5, r0, lsl #6
    4a08:	04040000 	streq	r0, [r4], #-0
    4a0c:	0001b007 	andeq	fp, r1, r7
    4a10:	06010400 	streq	r0, [r1], -r0, lsl #8
    4a14:	0000008f 	andeq	r0, r0, pc, lsl #1
    4a18:	e7050204 	str	r0, [r5, -r4, lsl #4]
    4a1c:	04000001 	streq	r0, [r0], #-1
    4a20:	01d20504 	bicseq	r0, r2, r4, lsl #10
    4a24:	08040000 	stmdaeq	r4, {}	; <UNPREDICTABLE>
    4a28:	0001cd05 	andeq	ip, r1, r5, lsl #26
    4a2c:	08010400 	stmdaeq	r1, {sl}
    4a30:	0000008d 	andeq	r0, r0, sp, lsl #1
    4a34:	a4070204 	strge	r0, [r7], #-516	; 0xfffffdfc
    4a38:	04000000 	streq	r0, [r0], #-0
    4a3c:	01ab0704 			; <UNDEFINED> instruction: 0x01ab0704
    4a40:	08040000 	stmdaeq	r4, {}	; <UNPREDICTABLE>
    4a44:	0001a607 	andeq	sl, r1, r7, lsl #12
    4a48:	00250500 	eoreq	r0, r5, r0, lsl #10
    4a4c:	007f0000 	rsbseq	r0, pc, r0
    4a50:	25060000 	strcs	r0, [r6, #-0]
    4a54:	00000000 	andeq	r0, r0, r0
    4a58:	0001db07 	andeq	sp, r1, r7, lsl #22
    4a5c:	0e1c0200 	cdpeq	2, 1, cr0, cr12, cr0, {0}
    4a60:	0000008b 	andeq	r0, r0, fp, lsl #1
    4a64:	00700408 	rsbseq	r0, r0, r8, lsl #8
    4a68:	25050000 	strcs	r0, [r5, #-0]
    4a6c:	a0000000 	andge	r0, r0, r0
    4a70:	06000000 	streq	r0, [r0], -r0
    4a74:	000000a0 	andeq	r0, r0, r0, lsr #1
    4a78:	ad040800 	stcge	8, cr0, [r4, #-0]
    4a7c:	04000000 	streq	r0, [r0], #-0
    4a80:	00960801 	addseq	r0, r6, r1, lsl #16
    4a84:	a6030000 	strge	r0, [r3], -r0
    4a88:	07000000 	streq	r0, [r0, -r0]
    4a8c:	000005a5 	andeq	r0, r0, r5, lsr #11
    4a90:	be0e2102 	adflte	f2, f6, f2
    4a94:	08000000 	stmdaeq	r0, {}	; <UNPREDICTABLE>
    4a98:	00009104 	andeq	r9, r0, r4, lsl #2
    4a9c:	07cf0900 	strbeq	r0, [pc, r0, lsl #18]
    4aa0:	0d010000 	stceq	0, cr0, [r1, #-0]
    4aa4:	00003111 	andeq	r3, r0, r1, lsl r1
    4aa8:	06f80a00 	ldrbteq	r0, [r8], r0, lsl #20
    4aac:	1f010000 	svcne	0x00010000
    4ab0:	0095a006 	addseq	sl, r5, r6
    4ab4:	00006000 	andeq	r6, r0, r0
    4ab8:	d59c0100 	ldrle	r0, [ip, #256]	; 0x100
    4abc:	0b000001 	bleq	4ac8 <__code_start__-0x3538>
    4ac0:	000007f3 	strdeq	r0, [r0], -r3
    4ac4:	2c0f2c01 	stccs	12, cr2, [pc], {1}
    4ac8:	1c000000 	stcne	0, cr0, [r0], {-0}
    4acc:	0b201000 	bleq	808ad4 <__bss_end__+0x7fe554>
    4ad0:	00000794 	muleq	r0, r4, r7
    4ad4:	2c0f2d01 	stccs	13, cr2, [pc], {1}
    4ad8:	24000000 	strcs	r0, [r0], #-0
    4adc:	0b201000 	bleq	808ae4 <__bss_end__+0x7fe564>
    4ae0:	000007c0 	andeq	r0, r0, r0, asr #15
    4ae4:	2c0f2e01 	stccs	14, cr2, [pc], {1}
    4ae8:	00000000 	andeq	r0, r0, r0
    4aec:	0c5a0000 	mraeq	r0, sl, acc0
    4af0:	000007da 	ldrdeq	r0, [r0], -sl
    4af4:	2c0f2f01 	stccs	15, cr2, [pc], {1}
    4af8:	20000000 	andcs	r0, r0, r0
    4afc:	0001ef0d 	andeq	lr, r1, sp, lsl #30
    4b00:	0095a000 	addseq	sl, r5, r0
    4b04:	12700200 	rsbsne	r0, r0, #0, 4
    4b08:	20010000 	andcs	r0, r1, r0
    4b0c:	00014c08 	andeq	r4, r1, r8, lsl #24
    4b10:	12700e00 	rsbsne	r0, r0, #0, 28
    4b14:	000f0000 	andeq	r0, pc, r0
    4b18:	9d000002 	stcls	0, cr0, [r0, #-8]
    4b1c:	99000030 	stmdbls	r0, {r4, r5}
    4b20:	00000030 	andeq	r0, r0, r0, lsr r0
    4b24:	01d51000 	bicseq	r1, r5, r0
    4b28:	95b40000 	ldrls	r0, [r4, #0]!
    4b2c:	b4010000 	strlt	r0, [r1], #-0
    4b30:	10000095 	mulne	r0, r5, r0
    4b34:	01000000 	mrseq	r0, (UNDEF: 0)
    4b38:	01730921 	cmneq	r3, r1, lsr #18
    4b3c:	e20f0000 	and	r0, pc, #0, 0
    4b40:	c4000001 	strgt	r0, [r0], #-1
    4b44:	bc000030 	stclt	0, cr0, [r0], {48}	; 0x30
    4b48:	00000030 	andeq	r0, r0, r0, lsr r0
    4b4c:	0095c811 	addseq	ip, r5, r1, lsl r8
    4b50:	00024f00 	andeq	r4, r2, r0, lsl #30
    4b54:	95cc1100 	strbls	r1, [ip, #256]	; 0x100
    4b58:	025c0000 	subseq	r0, ip, #0, 0
    4b5c:	d4120000 	ldrle	r0, [r2], #-0
    4b60:	68000095 	stmdavs	r0, {r0, r2, r4, r7}
    4b64:	98000002 	stmdals	r0, {r1}
    4b68:	13000001 	movwne	r0, #1
    4b6c:	3a015001 	bcc	58b78 <__bss_end__+0x4e5f8>
    4b70:	95e01200 	strbls	r1, [r0, #512]!	; 0x200
    4b74:	02740000 	rsbseq	r0, r4, #0, 0
    4b78:	01b80000 			; <UNDEFINED> instruction: 0x01b80000
    4b7c:	01130000 	tsteq	r3, r0
    4b80:	240c0550 	strcs	r0, [ip], #-1360	; 0xfffffab0
    4b84:	13201000 	nopne	{0}	; <UNPREDICTABLE>
    4b88:	0c055101 	stfeqs	f5, [r5], {1}
    4b8c:	5a000001 	bpl	4b98 <__code_start__-0x3468>
    4b90:	95ec1400 	strbls	r1, [ip, #1024]!	; 0x400
    4b94:	02740000 	rsbseq	r0, r4, #0, 0
    4b98:	01130000 	tsteq	r3, r0
    4b9c:	1c0c0550 	cfstr32ne	mvfx0, [ip], {80}	; 0x50
    4ba0:	13201000 	nopne	{0}	; <UNPREDICTABLE>
    4ba4:	0c055101 	stfeqs	f5, [r5], {1}
    4ba8:	5a000020 	bpl	4c30 <__code_start__-0x33d0>
    4bac:	9c150000 	ldcls	0, cr0, [r5], {-0}
    4bb0:	01000007 	tsteq	r0, r7
    4bb4:	ef010617 	svc	0x00010617
    4bb8:	09000001 	stmdbeq	r0, {r0}
    4bbc:	000007fb 	strdeq	r0, [r0], -fp
    4bc0:	310e1801 	tstcc	lr, r1, lsl #16
    4bc4:	00000000 	andeq	r0, r0, r0
    4bc8:	0007cc16 	andeq	ip, r7, r6, lsl ip
    4bcc:	050e0100 	streq	r0, [lr, #-256]	; 0xffffff00
    4bd0:	00000025 	andeq	r0, r0, r5, lsr #32
    4bd4:	00020d01 	andeq	r0, r2, r1, lsl #26
    4bd8:	07fb0900 	ldrbeq	r0, [fp, r0, lsl #18]!
    4bdc:	0f010000 	svceq	0x00010000
    4be0:	0000310e 	andeq	r3, r0, lr, lsl #2
    4be4:	ef170000 	svc	0x00170000
    4be8:	74000001 	strvc	r0, [r0], #-1
    4bec:	18000095 	stmdane	r0, {r0, r2, r4, r7}
    4bf0:	01000000 	mrseq	r0, (UNDEF: 0)
    4bf4:	00022e9c 	muleq	r2, ip, lr
    4bf8:	02000f00 	andeq	r0, r0, #0, 30
    4bfc:	31010000 	mrscc	r0, (UNDEF: 1)
    4c00:	30fd0000 	rscscc	r0, sp, r0
    4c04:	17000000 	strne	r0, [r0, -r0]
    4c08:	000001d5 	ldrdeq	r0, [r0], -r5
    4c0c:	0000958c 	andeq	r9, r0, ip, lsl #11
    4c10:	00000014 	andeq	r0, r0, r4, lsl r0
    4c14:	024f9c01 	subeq	r9, pc, #256	; 0x100
    4c18:	e20f0000 	and	r0, pc, #0, 0
    4c1c:	28000001 	stmdacs	r0, {r0}
    4c20:	20000031 	andcs	r0, r0, r1, lsr r0
    4c24:	00000031 	andeq	r0, r0, r1, lsr r0
    4c28:	00078518 	andeq	r8, r7, r8, lsl r5
    4c2c:	00078500 	andeq	r8, r7, r0, lsl #10
    4c30:	01360200 	teqeq	r6, r0, lsl #4
    4c34:	071e1906 	ldreq	r1, [lr, -r6, lsl #18]
    4c38:	071e0000 	ldreq	r0, [lr, -r0]
    4c3c:	4d020000 	stcmi	0, cr0, [r2, #-0]
    4c40:	009b1906 	addseq	r1, fp, r6, lsl #18
    4c44:	009b0000 	addseq	r0, fp, r0
    4c48:	58020000 	stmdapl	r2, {}	; <UNPREDICTABLE>
    4c4c:	03911906 	orrseq	r1, r1, #98304	; 0x18000
    4c50:	03910000 	orrseq	r0, r1, #0, 0
    4c54:	ad020000 	stcge	0, cr0, [r2, #-0]
    4c58:	053f0006 	ldreq	r0, [pc, #-6]!	; 4c5a <__code_start__-0x33a6>
    4c5c:	00040000 	andeq	r0, r4, r0
    4c60:	000010c9 	andeq	r1, r0, r9, asr #1
    4c64:	04a70104 	strteq	r0, [r7], #260	; 0x104
    4c68:	160c0000 	strne	r0, [ip], -r0
    4c6c:	3b000008 	blcc	4c94 <__code_start__-0x336c>
    4c70:	00000004 	andeq	r0, r0, r4
    4c74:	1c000096 	stcne	0, cr0, [r0], {150}	; 0x96
    4c78:	80000001 	andhi	r0, r0, r1
    4c7c:	02000023 	andeq	r0, r0, #35, 0	; 0x23
    4c80:	6e690504 	cdpvs	5, 6, cr0, cr9, cr4, {0}
    4c84:	04030074 	streq	r0, [r3], #-116	; 0xffffff8c
    4c88:	0001b007 	andeq	fp, r1, r7
    4c8c:	06010300 	streq	r0, [r1], -r0, lsl #6
    4c90:	0000008f 	andeq	r0, r0, pc, lsl #1
    4c94:	e7050203 	str	r0, [r5, -r3, lsl #4]
    4c98:	03000001 	movweq	r0, #1
    4c9c:	01d20504 	bicseq	r0, r2, r4, lsl #10
    4ca0:	08030000 	stmdaeq	r3, {}	; <UNPREDICTABLE>
    4ca4:	0001cd05 	andeq	ip, r1, r5, lsl #26
    4ca8:	08010300 	stmdaeq	r1, {r8, r9}
    4cac:	0000008d 	andeq	r0, r0, sp, lsl #1
    4cb0:	a4070203 	strge	r0, [r7], #-515	; 0xfffffdfd
    4cb4:	03000000 	movweq	r0, #0
    4cb8:	01ab0704 			; <UNDEFINED> instruction: 0x01ab0704
    4cbc:	08030000 	stmdaeq	r3, {}	; <UNPREDICTABLE>
    4cc0:	0001a607 	andeq	sl, r1, r7, lsl #12
    4cc4:	00250400 	eoreq	r0, r5, r0, lsl #8
    4cc8:	007a0000 	rsbseq	r0, sl, r0
    4ccc:	25050000 	strcs	r0, [r5, #-0]
    4cd0:	00000000 	andeq	r0, r0, r0
    4cd4:	0001db06 	andeq	sp, r1, r6, lsl #22
    4cd8:	0e1c0200 	cdpeq	2, 1, cr0, cr12, cr0, {0}
    4cdc:	00000086 	andeq	r0, r0, r6, lsl #1
    4ce0:	006b0407 	rsbeq	r0, fp, r7, lsl #8
    4ce4:	25040000 	strcs	r0, [r4, #-0]
    4ce8:	9b000000 	blls	4cf0 <__code_start__-0x3310>
    4cec:	05000000 	streq	r0, [r0, #-0]
    4cf0:	0000009b 	muleq	r0, fp, r0
    4cf4:	a8040700 	stmdage	r4, {r8, r9, sl}
    4cf8:	03000000 	movweq	r0, #0
    4cfc:	00960801 	addseq	r0, r6, r1, lsl #16
    4d00:	a1080000 	mrsge	r0, (UNDEF: 8)
    4d04:	06000000 	streq	r0, [r0], -r0
    4d08:	000005a5 	andeq	r0, r0, r5, lsr #11
    4d0c:	b90e2102 	stmdblt	lr, {r1, r8, sp}
    4d10:	07000000 	streq	r0, [r0, -r0]
    4d14:	00008c04 	andeq	r8, r0, r4, lsl #24
    4d18:	080c0900 	stmdaeq	ip, {r8, fp}
    4d1c:	1e010000 	cdpne	0, 0, cr0, cr1, cr0, {0}
    4d20:	0096c806 	addseq	ip, r6, r6, lsl #16
    4d24:	00005400 	andeq	r5, r0, r0, lsl #8
    4d28:	0b9c0100 	bleq	fe705130 <__bss_end__+0xfe6fabb0>
    4d2c:	0a000002 	beq	4d3c <__code_start__-0x32c4>
    4d30:	00636573 	rsbeq	r6, r3, r3, ror r5
    4d34:	2c191e01 	ldccs	14, cr1, [r9], {1}
    4d38:	65000000 	strvs	r0, [r0, #-0]
    4d3c:	61000031 	tstvs	r0, r1, lsr r0
    4d40:	0b000031 	bleq	4e0c <__code_start__-0x31f4>
    4d44:	0000020b 	andeq	r0, r0, fp, lsl #4
    4d48:	000096c8 	andeq	r9, r0, r8, asr #13
    4d4c:	00135002 	andseq	r5, r3, r2
    4d50:	051f0100 	ldreq	r0, [pc, #-256]	; 4c58 <__code_start__-0x33a8>
    4d54:	0002180c 	andeq	r1, r2, ip, lsl #16
    4d58:	00318a00 	eorseq	r8, r1, r0, lsl #20
    4d5c:	00318600 	eorseq	r8, r1, r0, lsl #12
    4d60:	02240d00 	eoreq	r0, r4, #0, 26
    4d64:	96dc0000 	ldrbls	r0, [ip], r0
    4d68:	dc000000 	stcle	0, cr0, [r0], {-0}
    4d6c:	40000096 	mulmi	r0, r6, r0
    4d70:	01000000 	mrseq	r0, (UNDEF: 0)
    4d74:	310c051c 	tstcc	ip, ip, lsl r5
    4d78:	b7000002 	strlt	r0, [r0, -r2]
    4d7c:	b5000031 	strlt	r0, [r0, #-49]	; 0xffffffcf
    4d80:	0e000031 	mcreq	0, 0, r0, cr0, cr1, {1}
    4d84:	0000023c 	andeq	r0, r0, ip, lsr r2
    4d88:	000031cc 	andeq	r3, r0, ip, asr #3
    4d8c:	000031ca 	andeq	r3, r0, sl, asr #3
    4d90:	0002550f 	andeq	r5, r2, pc, lsl #10
    4d94:	0096dc00 	addseq	sp, r6, r0, lsl #24
    4d98:	96dc0200 	ldrbls	r0, [ip], r0, lsl #4
    4d9c:	00140000 	andseq	r0, r4, r0
    4da0:	13010000 	movwne	r0, #4096	; 0x1000
    4da4:	00019c13 	andeq	r9, r1, r3, lsl ip
    4da8:	02660e00 	rsbeq	r0, r6, #0, 28
    4dac:	31e30000 	mvncc	r0, r0
    4db0:	31df0000 	bicscc	r0, pc, r0
    4db4:	710f0000 	mrsvc	r0, CPSR
    4db8:	e0000002 	and	r0, r0, r2
    4dbc:	01000096 	swpeq	r0, r6, [r0]	; <UNPREDICTABLE>
    4dc0:	000096e0 	andeq	r9, r0, r0, ror #13
    4dc4:	0000000c 	andeq	r0, r0, ip
    4dc8:	89120d01 	ldmdbhi	r2, {r0, r8, sl, fp}
    4dcc:	10000001 	andne	r0, r0, r1
    4dd0:	000096e8 	andeq	r9, r0, r8, ror #13
    4dd4:	0000052a 	andeq	r0, r0, sl, lsr #10
    4dd8:	05500111 	ldrbeq	r0, [r0, #-273]	; 0xfffffeef
    4ddc:	0030040c 	eorseq	r0, r0, ip, lsl #8
    4de0:	12000020 	andne	r0, r0, #32, 0
    4de4:	000096e0 	andeq	r9, r0, r0, ror #13
    4de8:	00000536 	andeq	r0, r0, r6, lsr r5
    4dec:	0096f012 	addseq	pc, r6, r2, lsl r0	; <UNPREDICTABLE>
    4df0:	00053600 	andeq	r3, r5, r0, lsl #12
    4df4:	47130000 	ldrmi	r0, [r3, -r0]
    4df8:	68000002 	stmdavs	r0, {r1}
    4dfc:	14000013 	strne	r0, [r0], #-19	; 0xffffffed
    4e00:	00000248 	andeq	r0, r0, r8, asr #4
    4e04:	0002550b 	andeq	r5, r2, fp, lsl #10
    4e08:	0096f400 	addseq	pc, r6, r0, lsl #8
    4e0c:	13800200 	orrne	r0, r0, #0, 4
    4e10:	15010000 	strne	r0, [r1, #-0]
    4e14:	13801517 	orrne	r1, r0, #96468992	; 0x5c00000
    4e18:	660e0000 	strvs	r0, [lr], -r0
    4e1c:	03000002 	movweq	r0, #2
    4e20:	01000032 	tsteq	r0, r2, lsr r0
    4e24:	16000032 			; <UNDEFINED> instruction: 0x16000032
    4e28:	00000271 	andeq	r0, r0, r1, ror r2
    4e2c:	000096f8 	strdeq	r9, [r0], -r8
    4e30:	0013a001 	andseq	sl, r3, r1
    4e34:	120d0100 	andne	r0, sp, #0
    4e38:	000001f3 	strdeq	r0, [r0], -r3
    4e3c:	00970010 	addseq	r0, r7, r0, lsl r0
    4e40:	00052a00 	andeq	r2, r5, r0, lsl #20
    4e44:	50011100 	andpl	r1, r1, r0, lsl #2
    4e48:	00007702 	andeq	r7, r0, r2, lsl #14
    4e4c:	96f81200 	ldrbtls	r1, [r8], r0, lsl #4
    4e50:	05360000 	ldreq	r0, [r6, #-0]!
    4e54:	0c120000 	ldceq	0, cr0, [r2], {-0}
    4e58:	36000097 			; <UNDEFINED> instruction: 0x36000097
    4e5c:	00000005 	andeq	r0, r0, r5
    4e60:	00000000 	andeq	r0, r0, r0
    4e64:	009b1700 	addseq	r1, fp, r0, lsl #14
    4e68:	1b010000 	blne	44e70 <__bss_end__+0x3a8f0>
    4e6c:	02240106 	eoreq	r0, r4, #-2147483647	; 0x80000001
    4e70:	6d180000 	ldcvs	0, cr0, [r8, #-0]
    4e74:	1b010073 	blne	45048 <__bss_end__+0x3aac8>
    4e78:	00002c18 	andeq	r2, r0, r8, lsl ip
    4e7c:	39170000 	ldmdbcc	r7, {}	; <UNPREDICTABLE>
    4e80:	01000008 	tsteq	r0, r8
    4e84:	55010612 	strpl	r0, [r1, #-1554]	; 0xfffff9ee
    4e88:	18000002 	stmdane	r0, {r1}
    4e8c:	01007375 	tsteq	r0, r5, ror r3
    4e90:	002c1812 	eoreq	r1, ip, r2, lsl r8
    4e94:	72190000 	andsvc	r0, r9, #0, 0
    4e98:	13010062 	movwne	r0, #4194	; 0x1062
    4e9c:	00002c0e 	andeq	r2, r0, lr, lsl #24
    4ea0:	72191a00 	andsvc	r1, r9, #0, 20
    4ea4:	15010061 	strne	r0, [r1, #-97]	; 0xffffff9f
    4ea8:	00002c12 	andeq	r2, r0, r2, lsl ip
    4eac:	1b000000 	blne	4eb4 <__code_start__-0x314c>
    4eb0:	0000082a 	andeq	r0, r0, sl, lsr #16
    4eb4:	2c0a0901 			; <UNDEFINED> instruction: 0x2c0a0901
    4eb8:	01000000 	mrseq	r0, (UNDEF: 0)
    4ebc:	00000271 	andeq	r0, r0, r1, ror r2
    4ec0:	01007519 	tsteq	r0, r9, lsl r5
    4ec4:	002c0e0d 	eoreq	r0, ip, sp, lsl #28
    4ec8:	1c000000 	stcne	0, cr0, [r0], {-0}
    4ecc:	00000842 	andeq	r0, r0, r2, asr #16
    4ed0:	2c0a0401 	cfstrscs	mvf0, [sl], {1}
    4ed4:	01000000 	mrseq	r0, (UNDEF: 0)
    4ed8:	0002711d 	andeq	r7, r2, sp, lsl r1
    4edc:	00960000 	addseq	r0, r6, r0
    4ee0:	00000c00 	andeq	r0, r0, r0, lsl #24
    4ee4:	a59c0100 	ldrge	r0, [ip, #256]	; 0x100
    4ee8:	1e000002 	cdpne	0, 0, cr0, cr0, cr2, {0}
    4eec:	00009608 	andeq	r9, r0, r8, lsl #12
    4ef0:	0000052a 	andeq	r0, r0, sl, lsr #10
    4ef4:	05500111 	ldrbeq	r0, [r0, #-273]	; 0xfffffeef
    4ef8:	0030040c 	eorseq	r0, r0, ip, lsl #8
    4efc:	1d000020 	stcne	0, cr0, [r0, #-128]	; 0xffffff80
    4f00:	00000255 	andeq	r0, r0, r5, asr r2
    4f04:	0000960c 	andeq	r9, r0, ip, lsl #12
    4f08:	00000024 	andeq	r0, r0, r4, lsr #32
    4f0c:	03059c01 	movweq	r9, #23553	; 0x5c01
    4f10:	660e0000 	strvs	r0, [lr], -r0
    4f14:	1a000002 	bne	4f24 <__code_start__-0x30dc>
    4f18:	16000032 			; <UNDEFINED> instruction: 0x16000032
    4f1c:	0f000032 	svceq	0x00000032
    4f20:	00000271 	andeq	r0, r0, r1, ror r2
    4f24:	00009614 	andeq	r9, r0, r4, lsl r6
    4f28:	00961401 	addseq	r1, r6, r1, lsl #8
    4f2c:	00000c00 	andeq	r0, r0, r0, lsl #24
    4f30:	120d0100 	andne	r0, sp, #0
    4f34:	000002f2 	strdeq	r0, [r0], -r2
    4f38:	00961c10 	addseq	r1, r6, r0, lsl ip
    4f3c:	00052a00 	andeq	r2, r5, r0, lsl #20
    4f40:	50011100 	andpl	r1, r1, r0, lsl #2
    4f44:	30040c05 	andcc	r0, r4, r5, lsl #24
    4f48:	00002000 	andeq	r2, r0, r0
    4f4c:	00961412 	addseq	r1, r6, r2, lsl r4
    4f50:	00053600 	andeq	r3, r5, r0, lsl #12
    4f54:	96241200 	strtls	r1, [r4], -r0, lsl #4
    4f58:	05360000 	ldreq	r0, [r6, #-0]!
    4f5c:	1d000000 	stcne	0, cr0, [r0, #-0]
    4f60:	00000224 	andeq	r0, r0, r4, lsr #4
    4f64:	00009630 	andeq	r9, r0, r0, lsr r6
    4f68:	00000048 	andeq	r0, r0, r8, asr #32
    4f6c:	04079c01 	streq	r9, [r7], #-3073	; 0xfffff3ff
    4f70:	310c0000 	mrscc	r0, (UNDEF: 12)
    4f74:	3c000002 	stccc	0, cr0, [r0], {2}
    4f78:	38000032 	stmdacc	r0, {r1, r4, r5}
    4f7c:	0e000032 	mcreq	0, 0, r0, cr0, cr2, {1}
    4f80:	0000023c 	andeq	r0, r0, ip, lsr r2
    4f84:	0000325c 	andeq	r3, r0, ip, asr r2
    4f88:	0000325a 	andeq	r3, r0, sl, asr r2
    4f8c:	00025516 	andeq	r5, r2, r6, lsl r5
    4f90:	00963000 	addseq	r3, r6, r0
    4f94:	12980200 	addsne	r0, r8, #0, 4
    4f98:	13010000 	movwne	r0, #4096	; 0x1000
    4f9c:	00039a13 	andeq	r9, r3, r3, lsl sl
    4fa0:	12981500 	addsne	r1, r8, #0, 10
    4fa4:	660e0000 	strvs	r0, [lr], -r0
    4fa8:	73000002 	movwvc	r0, #2
    4fac:	6f000032 	svcvs	0x00000032
    4fb0:	0f000032 	svceq	0x00000032
    4fb4:	00000271 	andeq	r0, r0, r1, ror r2
    4fb8:	0000963c 	andeq	r9, r0, ip, lsr r6
    4fbc:	00963c01 	addseq	r3, r6, r1, lsl #24
    4fc0:	00000c00 	andeq	r0, r0, r0, lsl #24
    4fc4:	120d0100 	andne	r0, sp, #0
    4fc8:	00000386 	andeq	r0, r0, r6, lsl #7
    4fcc:	00964410 	addseq	r4, r6, r0, lsl r4
    4fd0:	00052a00 	andeq	r2, r5, r0, lsl #20
    4fd4:	50011100 	andpl	r1, r1, r0, lsl #2
    4fd8:	30040c05 	andcc	r0, r4, r5, lsl #24
    4fdc:	00002000 	andeq	r2, r0, r0
    4fe0:	00963c12 	addseq	r3, r6, r2, lsl ip
    4fe4:	00053600 	andeq	r3, r5, r0, lsl #12
    4fe8:	964c1200 	strbls	r1, [ip], -r0, lsl #4
    4fec:	05360000 	ldreq	r0, [r6, #-0]!
    4ff0:	00000000 	andeq	r0, r0, r0
    4ff4:	00024713 	andeq	r4, r2, r3, lsl r7
    4ff8:	0012b000 	andseq	fp, r2, r0
    4ffc:	02481400 	subeq	r1, r8, #0, 8
    5000:	550b0000 	strpl	r0, [fp, #-0]
    5004:	50000002 	andpl	r0, r0, r2
    5008:	02000096 	andeq	r0, r0, #150, 0	; 0x96
    500c:	000012c8 	andeq	r1, r0, r8, asr #5
    5010:	15171501 	ldrne	r1, [r7, #-1281]	; 0xfffffaff
    5014:	000012c8 	andeq	r1, r0, r8, asr #5
    5018:	0002660e 	andeq	r6, r2, lr, lsl #12
    501c:	00329300 	eorseq	r9, r2, r0, lsl #6
    5020:	00329100 	eorseq	r9, r2, r0, lsl #2
    5024:	02711600 	rsbseq	r1, r1, #0, 12
    5028:	96540000 	ldrbls	r0, [r4], -r0
    502c:	e8010000 	stmda	r1, {}	; <UNPREDICTABLE>
    5030:	01000012 	tsteq	r0, r2, lsl r0
    5034:	03f1120d 	mvnseq	r1, #-805306368	; 0xd0000000
    5038:	5c100000 	ldcpl	0, cr0, [r0], {-0}
    503c:	2a000096 	bcs	529c <__code_start__-0x2d64>
    5040:	11000005 	tstne	r0, r5
    5044:	77025001 	strvc	r5, [r2, -r1]
    5048:	12000000 	andne	r0, r0, #0, 0
    504c:	00009654 	andeq	r9, r0, r4, asr r6
    5050:	00000536 	andeq	r0, r0, r6, lsr r5
    5054:	00966812 	addseq	r6, r6, r2, lsl r8
    5058:	00053600 	andeq	r3, r5, r0, lsl #12
    505c:	00000000 	andeq	r0, r0, r0
    5060:	020b1d00 	andeq	r1, fp, #0, 26
    5064:	96780000 	ldrbtls	r0, [r8], -r0
    5068:	00500000 	subseq	r0, r0, r0
    506c:	9c010000 	stcls	0, cr0, [r1], {-0}
    5070:	0000052a 	andeq	r0, r0, sl, lsr #10
    5074:	0002180c 	andeq	r1, r2, ip, lsl #16
    5078:	0032aa00 	eorseq	sl, r2, r0, lsl #20
    507c:	0032a600 	eorseq	sl, r2, r0, lsl #12
    5080:	02240d00 	eoreq	r0, r4, #0, 26
    5084:	96880000 	strls	r0, [r8], r0
    5088:	88000000 	stmdahi	r0, {}	; <UNPREDICTABLE>
    508c:	40000096 	mulmi	r0, r6, r0
    5090:	01000000 	mrseq	r0, (UNDEF: 0)
    5094:	310c051c 	tstcc	ip, ip, lsl r5
    5098:	cd000002 	stcgt	0, cr0, [r0, #-8]
    509c:	cb000032 	blgt	516c <__code_start__-0x2e94>
    50a0:	0e000032 	mcreq	0, 0, r0, cr0, cr2, {1}
    50a4:	0000023c 	andeq	r0, r0, ip, lsr r2
    50a8:	000032e2 	andeq	r3, r0, r2, ror #5
    50ac:	000032e0 	andeq	r3, r0, r0, ror #5
    50b0:	0002550f 	andeq	r5, r2, pc, lsl #10
    50b4:	00968800 	addseq	r8, r6, r0, lsl #16
    50b8:	96880200 	strls	r0, [r8], r0, lsl #4
    50bc:	00140000 	andseq	r0, r4, r0
    50c0:	13010000 	movwne	r0, #4096	; 0x1000
    50c4:	0004bc13 	andeq	fp, r4, r3, lsl ip
    50c8:	02660e00 	rsbeq	r0, r6, #0, 28
    50cc:	32f90000 	rscscc	r0, r9, #0, 0
    50d0:	32f50000 	rscscc	r0, r5, #0, 0
    50d4:	710f0000 	mrsvc	r0, CPSR
    50d8:	8c000002 	stchi	0, cr0, [r0], {2}
    50dc:	01000096 	swpeq	r0, r6, [r0]	; <UNPREDICTABLE>
    50e0:	0000968c 	andeq	r9, r0, ip, lsl #13
    50e4:	0000000c 	andeq	r0, r0, ip
    50e8:	a9120d01 	ldmdbge	r2, {r0, r8, sl, fp}
    50ec:	10000004 	andne	r0, r0, r4
    50f0:	00009694 	muleq	r0, r4, r6
    50f4:	0000052a 	andeq	r0, r0, sl, lsr #10
    50f8:	05500111 	ldrbeq	r0, [r0, #-273]	; 0xfffffeef
    50fc:	0030040c 	eorseq	r0, r0, ip, lsl #8
    5100:	12000020 	andne	r0, r0, #32, 0
    5104:	0000968c 	andeq	r9, r0, ip, lsl #13
    5108:	00000536 	andeq	r0, r0, r6, lsr r5
    510c:	00969c12 	addseq	r9, r6, r2, lsl ip
    5110:	00053600 	andeq	r3, r5, r0, lsl #12
    5114:	47130000 	ldrmi	r0, [r3, -r0]
    5118:	00000002 	andeq	r0, r0, r2
    511c:	14000013 	strne	r0, [r0], #-19	; 0xffffffed
    5120:	00000248 	andeq	r0, r0, r8, asr #4
    5124:	0002550b 	andeq	r5, r2, fp, lsl #10
    5128:	0096a000 	addseq	sl, r6, r0
    512c:	13180200 	tstne	r8, #0, 4
    5130:	15010000 	strne	r0, [r1, #-0]
    5134:	13181517 	tstne	r8, #96468992	; 0x5c00000
    5138:	660e0000 	strvs	r0, [lr], -r0
    513c:	19000002 	stmdbne	r0, {r1}
    5140:	17000033 	smladxne	r0, r3, r0, r0
    5144:	16000033 			; <UNDEFINED> instruction: 0x16000033
    5148:	00000271 	andeq	r0, r0, r1, ror r2
    514c:	000096a4 	andeq	r9, r0, r4, lsr #13
    5150:	00133801 	andseq	r3, r3, r1, lsl #16
    5154:	120d0100 	andne	r0, sp, #0
    5158:	00000513 	andeq	r0, r0, r3, lsl r5
    515c:	0096ac10 	addseq	sl, r6, r0, lsl ip
    5160:	00052a00 	andeq	r2, r5, r0, lsl #20
    5164:	50011100 	andpl	r1, r1, r0, lsl #2
    5168:	00007702 	andeq	r7, r0, r2, lsl #14
    516c:	96a41200 	strtls	r1, [r4], r0, lsl #4
    5170:	05360000 	ldreq	r0, [r6, #-0]!
    5174:	b8120000 	ldmdalt	r2, {}	; <UNPREDICTABLE>
    5178:	36000096 			; <UNDEFINED> instruction: 0x36000096
    517c:	00000005 	andeq	r0, r0, r5
    5180:	00000000 	andeq	r0, r0, r0
    5184:	0003a11f 	andeq	sl, r3, pc, lsl r1
    5188:	0003a100 	andeq	sl, r3, r0, lsl #2
    518c:	0ac20200 	beq	ff085994 <__bss_end__+0xff07b414>
    5190:	0008001f 	andeq	r0, r8, pc, lsl r0
    5194:	00080000 	andeq	r0, r8, r0
    5198:	069c0200 	ldreq	r0, [ip], r0, lsl #4
    519c:	0005cd00 	andeq	ip, r5, r0, lsl #26
    51a0:	98000400 	stmdals	r0, {sl}
    51a4:	04000012 	streq	r0, [r0], #-18	; 0xffffffee
    51a8:	0008bd01 	andeq	fp, r8, r1, lsl #26
    51ac:	08710c00 	ldmdaeq	r1!, {sl, fp}^
    51b0:	098c0000 	stmibeq	ip, {}	; <UNPREDICTABLE>
    51b4:	971c0000 	ldrls	r0, [ip, -r0]
    51b8:	01f00000 	mvnseq	r0, r0
    51bc:	257e0000 	ldrbcs	r0, [lr, #-0]!
    51c0:	04020000 	streq	r0, [r2], #-0
    51c4:	746e6905 	strbtvc	r6, [lr], #-2309	; 0xfffff6fb
    51c8:	07040300 	streq	r0, [r4, -r0, lsl #6]
    51cc:	000001b0 			; <UNDEFINED> instruction: 0x000001b0
    51d0:	00002c04 	andeq	r2, r0, r4, lsl #24
    51d4:	06010300 	streq	r0, [r1], -r0, lsl #6
    51d8:	0000008f 	andeq	r0, r0, pc, lsl #1
    51dc:	e7050203 	str	r0, [r5, -r3, lsl #4]
    51e0:	03000001 	movweq	r0, #1
    51e4:	01d20504 	bicseq	r0, r2, r4, lsl #10
    51e8:	08030000 	stmdaeq	r3, {}	; <UNPREDICTABLE>
    51ec:	0001cd05 	andeq	ip, r1, r5, lsl #26
    51f0:	08010300 	stmdaeq	r1, {r8, r9}
    51f4:	0000008d 	andeq	r0, r0, sp, lsl #1
    51f8:	a4070203 	strge	r0, [r7], #-515	; 0xfffffdfd
    51fc:	05000000 	streq	r0, [r0, #-0]
    5200:	00000284 	andeq	r0, r0, r4, lsl #5
    5204:	6e193405 	cfmulsvs	mvf3, mvf9, mvf5
    5208:	03000000 	movweq	r0, #0
    520c:	01ab0704 			; <UNDEFINED> instruction: 0x01ab0704
    5210:	08030000 	stmdaeq	r3, {}	; <UNPREDICTABLE>
    5214:	0001a607 	andeq	sl, r1, r7, lsl #12
    5218:	08010300 	stmdaeq	r1, {r8, r9}
    521c:	00000096 	muleq	r0, r6, r0
    5220:	54010706 	strpl	r0, [r1], #-1798	; 0xfffff8fa
    5224:	04000000 	streq	r0, [r0], #-0
    5228:	00c20e0c 	sbceq	r0, r2, ip, lsl #28
    522c:	62070000 	andvs	r0, r7, #0, 0
    5230:	00000004 	andeq	r0, r0, r4
    5234:	0002ea07 	andeq	lr, r2, r7, lsl #20
    5238:	a7070100 	strge	r0, [r7, -r0, lsl #2]
    523c:	04000003 	streq	r0, [r0], #-3
    5240:	0003b607 	andeq	fp, r3, r7, lsl #12
    5244:	c5070500 	strgt	r0, [r7, #-1280]	; 0xfffffb00
    5248:	06000003 	streq	r0, [r0], -r3
    524c:	0003d407 	andeq	sp, r3, r7, lsl #8
    5250:	2c070700 	stccs	7, cr0, [r7], {-0}
    5254:	03000004 	movweq	r0, #4
    5258:	0003e307 	andeq	lr, r3, r7, lsl #6
    525c:	08000200 	stmdaeq	r0, {r9}
    5260:	00000980 	andeq	r0, r0, r0, lsl #19
    5264:	0806022c 	stmdaeq	r6, {r2, r3, r5, r9}
    5268:	0000015e 	andeq	r0, r0, lr, asr r1
    526c:	006f6909 	rsbeq	r6, pc, r9, lsl #18
    5270:	33090902 	movwcc	r0, #39170	; 0x9902
    5274:	00000000 	andeq	r0, r0, r0
    5278:	72656909 	rsbvc	r6, r5, #147456	; 0x24000
    527c:	090a0200 	stmdbeq	sl, {r9}
    5280:	00000033 	andeq	r0, r0, r3, lsr r0
    5284:	69690904 	stmdbvs	r9!, {r2, r8, fp}^
    5288:	11020072 	tstne	r2, r2, ror r0
    528c:	00003309 	andeq	r3, r0, r9, lsl #6
    5290:	6c090800 	stcvs	8, cr0, [r9], {-0}
    5294:	02007263 	andeq	r7, r0, #805306374	; 0x30000006
    5298:	00330913 	eorseq	r0, r3, r3, lsl r9
    529c:	090c0000 	stmdbeq	ip, {}	; <UNPREDICTABLE>
    52a0:	0072636d 	rsbseq	r6, r2, sp, ror #6
    52a4:	33091402 	movwcc	r1, #37890	; 0x9402
    52a8:	10000000 	andne	r0, r0, r0
    52ac:	72736c09 	rsbsvc	r6, r3, #2304	; 0x900
    52b0:	09150200 	ldmdbeq	r5, {r9}
    52b4:	00000033 	andeq	r0, r0, r3, lsr r0
    52b8:	736d0914 	cmnvc	sp, #20, 18	; 0x50000
    52bc:	16020072 			; <UNDEFINED> instruction: 0x16020072
    52c0:	00003309 	andeq	r3, r0, r9, lsl #6
    52c4:	780a1800 	stmdavc	sl, {fp, ip}
    52c8:	02000009 	andeq	r0, r0, #9, 0
    52cc:	00330917 	eorseq	r0, r3, r7, lsl r9
    52d0:	0a1c0000 	beq	7052d8 <__bss_end__+0x6fad58>
    52d4:	00000950 	andeq	r0, r0, r0, asr r9
    52d8:	33091b02 	movwcc	r1, #39682	; 0x9b02
    52dc:	20000000 	andcs	r0, r0, r0
    52e0:	00085e0a 	andeq	r5, r8, sl, lsl #28
    52e4:	091d0200 	ldmdbeq	sp, {r9}
    52e8:	00000033 	andeq	r0, r0, r3, lsr r0
    52ec:	08a20a24 	stmiaeq	r2!, {r2, r5, r9, fp}
    52f0:	1e020000 	cdpne	0, 0, cr0, cr2, cr0, {0}
    52f4:	00003309 	andeq	r3, r0, r9, lsl #6
    52f8:	0b002800 	bleq	f300 <__bss_end__+0x4d80>
    52fc:	000008a7 	andeq	r0, r0, r7, lsr #17
    5300:	74090801 	strvc	r0, [r9], #-2049	; 0xfffff7ff
    5304:	04000001 	streq	r0, [r0], #-1
    5308:	0c202150 	stfeqs	f2, [r0], #-320	; 0xfffffec0
    530c:	00003304 	andeq	r3, r0, r4, lsl #6
    5310:	016e0d00 	cmneq	lr, r0, lsl #26
    5314:	860b0000 	strhi	r0, [fp], -r0
    5318:	01000008 	tsteq	r0, r8
    531c:	018f2329 	orreq	r2, pc, r9, lsr #6
    5320:	50400000 	subpl	r0, r0, r0
    5324:	040c2021 	streq	r2, [ip], #-33	; 0xffffffdf
    5328:	000000c2 	andeq	r0, r0, r2, asr #1
    532c:	0001890d 	andeq	r8, r1, sp, lsl #18
    5330:	071e0e00 	ldreq	r0, [lr, -r0, lsl #28]
    5334:	cc010000 	stcgt	0, cr0, [r1], {-0}
    5338:	0098d406 	addseq	sp, r8, r6, lsl #8
    533c:	00001400 	andeq	r1, r0, r0, lsl #8
    5340:	b49c0100 	ldrlt	r0, [ip], #256	; 0x100
    5344:	0f000001 	svceq	0x00000001
    5348:	000098dc 	ldrdeq	r9, [r0], -ip
    534c:	000001b4 			; <UNDEFINED> instruction: 0x000001b4
    5350:	088b1000 	stmeq	fp, {ip}
    5354:	b6010000 	strlt	r0, [r1], -r0
    5358:	00002505 	andeq	r2, r0, r5, lsl #10
    535c:	0098b400 	addseq	fp, r8, r0, lsl #8
    5360:	00002000 	andeq	r2, r0, r0
    5364:	eb9c0100 	bl	fe70576c <__bss_end__+0xfe6fb1ec>
    5368:	0f000001 	svceq	0x00000001
    536c:	000098bc 			; <UNDEFINED> instruction: 0x000098bc
    5370:	000005a0 	andeq	r0, r0, r0, lsr #11
    5374:	0098c411 	addseq	ip, r8, r1, lsl r4
    5378:	0005ac00 	andeq	sl, r5, r0, lsl #24
    537c:	50011200 	andpl	r1, r1, r0, lsl #4
    5380:	50640c05 	rsbpl	r0, r4, r5, lsl #24
    5384:	00002021 	andeq	r2, r0, r1, lsr #32
    5388:	00096210 	andeq	r6, r9, r0, lsl r2
    538c:	05b30100 	ldreq	r0, [r3, #256]!	; 0x100
    5390:	00000025 	andeq	r0, r0, r5, lsr #32
    5394:	000098a4 	andeq	r9, r0, r4, lsr #17
    5398:	00000010 	andeq	r0, r0, r0, lsl r0
    539c:	02189c01 	andseq	r9, r8, #256	; 0x100
    53a0:	ac0f0000 	stcge	0, cr0, [pc], {-0}
    53a4:	a0000098 	mulge	r0, r8, r0
    53a8:	0f000005 	svceq	0x00000005
    53ac:	000098b0 			; <UNDEFINED> instruction: 0x000098b0
    53b0:	00000309 	andeq	r0, r0, r9, lsl #6
    53b4:	09c90e00 	stmibeq	r9, {r9, sl, fp}^
    53b8:	ab010000 	blge	453c0 <__bss_end__+0x3ae40>
    53bc:	00987406 	addseq	r7, r8, r6, lsl #8
    53c0:	00003000 	andeq	r3, r0, r0
    53c4:	7c9c0100 	ldfvcs	f0, [ip], {0}
    53c8:	13000002 	movwne	r0, #2
    53cc:	ab010063 	blge	45560 <__bss_end__+0x3afe0>
    53d0:	00002c19 	andeq	r2, r0, r9, lsl ip
    53d4:	00333000 	eorseq	r3, r3, r0
    53d8:	00332c00 	eorseq	r2, r3, r0, lsl #24
    53dc:	98800f00 	stmls	r0, {r8, r9, sl, fp}
    53e0:	05a00000 	streq	r0, [r0, #0]!
    53e4:	840f0000 	strhi	r0, [pc], #-0	; 53ec <__code_start__-0x2c14>
    53e8:	db000098 	blle	5650 <__code_start__-0x29b0>
    53ec:	14000002 	strne	r0, [r0], #-2
    53f0:	00009898 	muleq	r0, r8, r8
    53f4:	000005b8 			; <UNDEFINED> instruction: 0x000005b8
    53f8:	00000272 	andeq	r0, r0, r2, ror r2
    53fc:	05500112 	ldrbeq	r0, [r0, #-274]	; 0xfffffeee
    5400:	2150400c 	cmpcs	r0, ip
    5404:	51011220 	tstpl	r1, r0, lsr #4
    5408:	08007405 	stmdaeq	r0, {r0, r2, sl, ip, sp, lr}
    540c:	0f001aff 	svceq	0x00001aff
    5410:	0000989c 	muleq	r0, ip, r8
    5414:	000005a0 	andeq	r0, r0, r0, lsr #11
    5418:	08b31000 	ldmeq	r3!, {ip}
    541c:	a3010000 	movwge	r0, #4096	; 0x1000
    5420:	00002505 	andeq	r2, r0, r5, lsl #10
    5424:	00984400 	addseq	r4, r8, r0, lsl #8
    5428:	00003000 	andeq	r3, r0, r0
    542c:	db9c0100 	blle	fe705834 <__bss_end__+0xfe6fb2b4>
    5430:	15000002 	strne	r0, [r0, #-2]
    5434:	a7010063 	strge	r0, [r1, -r3, rrx]
    5438:	00002509 	andeq	r2, r0, r9, lsl #10
    543c:	00335000 	eorseq	r5, r3, r0
    5440:	00334e00 	eorseq	r4, r3, r0, lsl #28
    5444:	984c0f00 	stmdals	ip, {r8, r9, sl, fp}^
    5448:	05a00000 	streq	r0, [r0, #0]!
    544c:	500f0000 	andpl	r0, pc, r0
    5450:	09000098 	stmdbeq	r0, {r3, r4, r7}
    5454:	14000003 	strne	r0, [r0], #-3
    5458:	00009860 	andeq	r9, r0, r0, ror #16
    545c:	000005ac 	andeq	r0, r0, ip, lsr #11
    5460:	000002d1 	ldrdeq	r0, [r0], -r1
    5464:	05500112 	ldrbeq	r0, [r0, #-274]	; 0xfffffeee
    5468:	2150400c 	cmpcs	r0, ip
    546c:	680f0020 	stmdavs	pc, {r5}	; <UNPREDICTABLE>
    5470:	a0000098 	mulge	r0, r8, r0
    5474:	00000005 	andeq	r0, r0, r5
    5478:	00087810 	andeq	r7, r8, r0, lsl r8
    547c:	05940100 	ldreq	r0, [r4, #256]	; 0x100
    5480:	00000025 	andeq	r0, r0, r5, lsr #32
    5484:	00009824 	andeq	r9, r0, r4, lsr #16
    5488:	00000020 	andeq	r0, r0, r0, lsr #32
    548c:	03099c01 	movweq	r9, #39937	; 0x9c01
    5490:	30110000 	andscc	r0, r1, r0
    5494:	ac000098 	stcge	0, cr0, [r0], {152}	; 0x98
    5498:	12000005 	andne	r0, r0, #5, 0
    549c:	0c055001 	stceq	0, cr5, [r5], {1}
    54a0:	20215064 	eorcs	r5, r1, r4, rrx
    54a4:	63100000 	tstvs	r0, #0, 0
    54a8:	01000008 	tsteq	r0, r8
    54ac:	0025058b 	eoreq	r0, r5, fp, lsl #11
    54b0:	980c0000 	stmdals	ip, {}	; <UNPREDICTABLE>
    54b4:	00180000 	andseq	r0, r8, r0
    54b8:	9c010000 	stcls	0, cr0, [r1], {-0}
    54bc:	00000337 	andeq	r0, r0, r7, lsr r3
    54c0:	00981811 	addseq	r1, r8, r1, lsl r8
    54c4:	0005ac00 	andeq	sl, r5, r0, lsl #24
    54c8:	50011200 	andpl	r1, r1, r0, lsl #4
    54cc:	50640c05 	rsbpl	r0, r4, r5, lsl #24
    54d0:	00002021 	andeq	r2, r0, r1, lsr #32
    54d4:	00073c0e 	andeq	r3, r7, lr, lsl #24
    54d8:	06450100 	strbeq	r0, [r5], -r0, lsl #2
    54dc:	0000975c 	andeq	r9, r0, ip, asr r7
    54e0:	000000b0 	strheq	r0, [r0], -r0	; <UNPREDICTABLE>
    54e4:	04849c01 	streq	r9, [r4], #3073	; 0xc01
    54e8:	55160000 	ldrpl	r0, [r6, #-0]
    54ec:	01000008 	tsteq	r0, r8
    54f0:	00620e7e 	rsbeq	r0, r2, lr, ror lr
    54f4:	010e0000 	mrseq	r0, (UNDEF: 14)
    54f8:	00976c14 	addseq	r6, r7, r4, lsl ip
    54fc:	0005c400 	andeq	ip, r5, r0, lsl #8
    5500:	00037300 	andeq	r7, r3, r0, lsl #6
    5504:	50011200 	andpl	r1, r1, r0, lsl #4
    5508:	01123e01 	tsteq	r2, r1, lsl #28
    550c:	00320151 	eorseq	r0, r2, r1, asr r1
    5510:	00977814 	addseq	r7, r7, r4, lsl r8
    5514:	0005c400 	andeq	ip, r5, r0, lsl #8
    5518:	00038b00 	andeq	r8, r3, r0, lsl #22
    551c:	50011200 	andpl	r1, r1, r0, lsl #4
    5520:	01123f01 	tsteq	r2, r1, lsl #30
    5524:	00320151 	eorseq	r0, r2, r1, asr r1
    5528:	00977c0f 	addseq	r7, r7, pc, lsl #24
    552c:	0005a000 	andeq	sl, r5, r0
    5530:	97881400 	strls	r1, [r8, r0, lsl #8]
    5534:	053d0000 	ldreq	r0, [sp, #-0]!
    5538:	03b00000 	movseq	r0, #0, 0
    553c:	01120000 	tsteq	r2, r0
    5540:	040c0550 	streq	r0, [ip], #-1360	; 0xfffffab0
    5544:	12202150 	eorne	r2, r0, #20
    5548:	31015101 	tstcc	r1, r1, lsl #2
    554c:	978c0f00 	strls	r0, [ip, r0, lsl #30]
    5550:	05a00000 	streq	r0, [r0, #0]!
    5554:	9c140000 	ldcls	0, cr0, [r4], {-0}
    5558:	b8000097 	stmdalt	r0, {r0, r1, r2, r4, r7}
    555c:	d2000005 	andle	r0, r0, #5, 0
    5560:	12000003 	andne	r0, r0, #3, 0
    5564:	74025001 	strvc	r5, [r2], #-1
    5568:	51011200 	mrspl	r1, R9_usr
    556c:	14003001 	strne	r3, [r0], #-1
    5570:	000097a8 	andeq	r9, r0, r8, lsr #15
    5574:	000005b8 			; <UNDEFINED> instruction: 0x000005b8
    5578:	000003ee 	andeq	r0, r0, lr, ror #7
    557c:	05500112 	ldrbeq	r0, [r0, #-274]	; 0xfffffeee
    5580:	2150440c 	cmpcs	r0, ip, lsl #8
    5584:	51011220 	tstpl	r1, r0, lsr #4
    5588:	14003001 	strne	r3, [r0], #-1
    558c:	000097b4 			; <UNDEFINED> instruction: 0x000097b4
    5590:	000005b8 			; <UNDEFINED> instruction: 0x000005b8
    5594:	0000040a 	andeq	r0, r0, sl, lsl #8
    5598:	05500112 	ldrbeq	r0, [r0, #-274]	; 0xfffffeee
    559c:	21504c0c 	cmpcs	r0, ip, lsl #24
    55a0:	51011220 	tstpl	r1, r0, lsr #4
    55a4:	14003301 	strne	r3, [r0], #-769	; 0xfffffcff
    55a8:	000097c0 	andeq	r9, r0, r0, asr #15
    55ac:	000005b8 			; <UNDEFINED> instruction: 0x000005b8
    55b0:	00000426 	andeq	r0, r0, r6, lsr #8
    55b4:	05500112 	ldrbeq	r0, [r0, #-274]	; 0xfffffeee
    55b8:	2150500c 	cmpcs	r0, ip
    55bc:	51011220 	tstpl	r1, r0, lsr #4
    55c0:	14003001 	strne	r3, [r0], #-1
    55c4:	000097cc 	andeq	r9, r0, ip, asr #15
    55c8:	000005b8 			; <UNDEFINED> instruction: 0x000005b8
    55cc:	00000443 	andeq	r0, r0, r3, asr #8
    55d0:	05500112 	ldrbeq	r0, [r0, #-274]	; 0xfffffeee
    55d4:	2150480c 	cmpcs	r0, ip, lsl #16
    55d8:	51011220 	tstpl	r1, r0, lsr #4
    55dc:	00c70802 	sbceq	r0, r7, r2, lsl #16
    55e0:	0097d814 	addseq	sp, r7, r4, lsl r8
    55e4:	0005b800 	andeq	fp, r5, r0, lsl #16
    55e8:	00046100 	andeq	r6, r4, r0, lsl #2
    55ec:	50011200 	andpl	r1, r1, r0, lsl #4
    55f0:	50680c05 	rsbpl	r0, r8, r5, lsl #24
    55f4:	01122021 	tsteq	r2, r1, lsr #32
    55f8:	0e0a0351 	mcreq	3, 0, r0, cr10, cr1, {2}
    55fc:	e4140001 	ldr	r0, [r4], #-1
    5600:	b8000097 	stmdalt	r0, {r0, r1, r2, r4, r7}
    5604:	7a000005 	bvc	5620 <__code_start__-0x29e0>
    5608:	12000004 	andne	r0, r0, #4, 0
    560c:	74025001 	strvc	r5, [r2], #-1
    5610:	51011200 	mrspl	r1, R9_usr
    5614:	0f003301 	svceq	0x00003301
    5618:	000097e8 	andeq	r9, r0, r8, ror #15
    561c:	000005a0 	andeq	r0, r0, r0, lsr #11
    5620:	09550e00 	ldmdbeq	r5, {r9, sl, fp}^
    5624:	35010000 	strcc	r0, [r1, #-0]
    5628:	0098e806 	addseq	lr, r8, r6, lsl #16
    562c:	00002400 	andeq	r2, r0, r0, lsl #8
    5630:	d39c0100 	orrsle	r0, ip, #0
    5634:	0f000004 	svceq	0x00000004
    5638:	000098f0 	strdeq	r9, [r0], -r0
    563c:	00000194 	muleq	r0, r4, r1
    5640:	0098f40f 	addseq	pc, r8, pc, lsl #8
    5644:	0005a000 	andeq	sl, r5, r0
    5648:	99001400 	stmdbls	r0, {sl, ip}
    564c:	04d30000 	ldrbeq	r0, [r3], #0
    5650:	04c90000 	strbeq	r0, [r9], #0
    5654:	01120000 	tsteq	r2, r0
    5658:	040c0550 	streq	r0, [ip], #-1360	; 0xfffffab0
    565c:	12202150 	eorne	r2, r0, #20
    5660:	09025101 	stmdbeq	r2, {r0, r8, ip, lr}
    5664:	040f00fe 	streq	r0, [pc], #-254	; 566c <__code_start__-0x2994>
    5668:	a0000099 	mulge	r0, r9, r0
    566c:	00000005 	andeq	r0, r0, r5
    5670:	0009c017 	andeq	ip, r9, r7, lsl r0
    5674:	0d310100 	ldfeqs	f0, [r1, #-0]
    5678:	0000971c 	andeq	r9, r0, ip, lsl r7
    567c:	00000020 	andeq	r0, r0, r0, lsr #32
    5680:	05369c01 	ldreq	r9, [r6, #-3073]!	; 0xfffff3ff
    5684:	f8180000 			; <UNDEFINED> instruction: 0xf8180000
    5688:	01000009 	tsteq	r0, r9
    568c:	05362531 	ldreq	r2, [r6, #-1329]!	; 0xfffffacf
    5690:	33670000 	cmncc	r7, #0, 0
    5694:	33630000 	cmncc	r3, #0, 0
    5698:	76130000 	ldrvc	r0, [r3], -r0
    569c:	01006c61 	tsteq	r0, r1, ror #24
    56a0:	002c3431 	eoreq	r3, ip, r1, lsr r4
    56a4:	33890000 	orrcc	r0, r9, #0, 0
    56a8:	33850000 	orrcc	r0, r5, #0, 0
    56ac:	2c140000 	ldccs	0, cr0, [r4], {-0}
    56b0:	ac000097 	stcge	0, cr0, [r0], {151}	; 0x97
    56b4:	25000005 	strcs	r0, [r0, #-5]
    56b8:	12000005 	andne	r0, r0, #5, 0
    56bc:	74025001 	strvc	r5, [r2], #-1
    56c0:	38110000 	ldmdacc	r1, {}	; <UNPREDICTABLE>
    56c4:	b8000097 	stmdalt	r0, {r0, r1, r2, r4, r7}
    56c8:	12000005 	andne	r0, r0, #5, 0
    56cc:	74025001 	strvc	r5, [r2], #-1
    56d0:	0c000000 	stceq	0, cr0, [r0], {-0}
    56d4:	00053c04 	andeq	r3, r5, r4, lsl #24
    56d8:	70171900 	andsvc	r1, r7, r0, lsl #18
    56dc:	01000009 	tsteq	r0, r9
    56e0:	973c0d2e 	ldrls	r0, [ip, -lr, lsr #26]!
    56e4:	00200000 	eoreq	r0, r0, r0
    56e8:	9c010000 	stcls	0, cr0, [r1], {-0}
    56ec:	000005a0 	andeq	r0, r0, r0, lsr #11
    56f0:	0009f818 	andeq	pc, r9, r8, lsl r8	; <UNPREDICTABLE>
    56f4:	242e0100 	strtcs	r0, [lr], #-256	; 0xffffff00
    56f8:	00000536 	andeq	r0, r0, r6, lsr r5
    56fc:	000033ab 	andeq	r3, r0, fp, lsr #7
    5700:	000033a7 	andeq	r3, r0, r7, lsr #7
    5704:	6c617613 	stclvs	6, cr7, [r1], #-76	; 0xffffffb4
    5708:	332e0100 			; <UNDEFINED> instruction: 0x332e0100
    570c:	0000002c 	andeq	r0, r0, ip, lsr #32
    5710:	000033cd 	andeq	r3, r0, sp, asr #7
    5714:	000033c9 	andeq	r3, r0, r9, asr #7
    5718:	00974c14 	addseq	r4, r7, r4, lsl ip
    571c:	0005ac00 	andeq	sl, r5, r0, lsl #24
    5720:	00058f00 	andeq	r8, r5, r0, lsl #30
    5724:	50011200 	andpl	r1, r1, r0, lsl #4
    5728:	00007402 	andeq	r7, r0, r2, lsl #8
    572c:	00975811 	addseq	r5, r7, r1, lsl r8
    5730:	0005b800 	andeq	fp, r5, r0, lsl #16
    5734:	50011200 	andpl	r1, r1, r0, lsl #4
    5738:	00007402 	andeq	r7, r0, r2, lsl #8
    573c:	08001a00 	stmdaeq	r0, {r9, fp, ip}
    5740:	08000000 	stmdaeq	r0, {}	; <UNPREDICTABLE>
    5744:	9c030000 	stcls	0, cr0, [r3], {-0}
    5748:	09d31a06 	ldmibeq	r3, {r1, r2, r9, fp, ip}^
    574c:	09d30000 	ldmibeq	r3, {}^	; <UNPREDICTABLE>
    5750:	c3030000 	movwgt	r0, #12288	; 0x3000
    5754:	089c1a0b 	ldmeq	ip, {r0, r1, r3, r9, fp, ip}
    5758:	089c0000 	ldmeq	ip, {}	; <UNPREDICTABLE>
    575c:	ae030000 	cdpge	0, 0, cr0, cr3, cr0, {0}
    5760:	04721a06 	ldrbteq	r1, [r2], #-2566	; 0xfffff5fa
    5764:	04720000 	ldrbteq	r0, [r2], #-0
    5768:	19040000 	stmdbne	r4, {}	; <UNPREDICTABLE>
    576c:	08e90006 	stmiaeq	r9!, {r1, r2}^
    5770:	00040000 	andeq	r0, r4, r0
    5774:	00001430 	andeq	r1, r0, r0, lsr r4
    5778:	08bd0104 	popeq	{r2, r8}
    577c:	850c0000 	strhi	r0, [ip, #-0]
    5780:	8c00000a 	stchi	0, cr0, [r0], {10}
    5784:	0c000009 	stceq	0, cr0, [r0], {9}
    5788:	b0000099 	mullt	r0, r9, r0
    578c:	86000003 	strhi	r0, [r0], -r3
    5790:	02000027 	andeq	r0, r0, #39, 0	; 0x27
    5794:	6e690504 	cdpvs	5, 6, cr0, cr9, cr4, {0}
    5798:	04030074 	streq	r0, [r3], #-116	; 0xffffff8c
    579c:	0001b007 	andeq	fp, r1, r7
    57a0:	06010300 	streq	r0, [r1], -r0, lsl #6
    57a4:	0000008f 	andeq	r0, r0, pc, lsl #1
    57a8:	e7050203 	str	r0, [r5, -r3, lsl #4]
    57ac:	03000001 	movweq	r0, #1
    57b0:	01d20504 	bicseq	r0, r2, r4, lsl #10
    57b4:	08030000 	stmdaeq	r3, {}	; <UNPREDICTABLE>
    57b8:	0001cd05 	andeq	ip, r1, r5, lsl #26
    57bc:	08010300 	stmdaeq	r1, {r8, r9}
    57c0:	0000008d 	andeq	r0, r0, sp, lsl #1
    57c4:	a4070203 	strge	r0, [r7], #-515	; 0xfffffdfd
    57c8:	04000000 	streq	r0, [r0], #-0
    57cc:	00000284 	andeq	r0, r0, r4, lsl #5
    57d0:	69193403 	ldmdbvs	r9, {r0, r1, sl, ip, sp}
    57d4:	03000000 	movweq	r0, #0
    57d8:	01ab0704 			; <UNDEFINED> instruction: 0x01ab0704
    57dc:	08030000 	stmdaeq	r3, {}	; <UNPREDICTABLE>
    57e0:	0001a607 	andeq	sl, r1, r7, lsl #12
    57e4:	08010300 	stmdaeq	r1, {r8, r9}
    57e8:	00000096 	muleq	r0, r6, r0
    57ec:	00007705 	andeq	r7, r0, r5, lsl #14
    57f0:	04080300 	streq	r0, [r8], #-768	; 0xfffffd00
    57f4:	00000aa7 	andeq	r0, r0, r7, lsr #21
    57f8:	07070406 	streq	r0, [r7, -r6, lsl #8]
    57fc:	00002c04 	andeq	r2, r0, r4, lsl #24
    5800:	061f0100 	ldreq	r0, [pc], -r0, lsl #2
    5804:	000000a4 	andeq	r0, r0, r4, lsr #1
    5808:	000a0308 	andeq	r0, sl, r8, lsl #6
    580c:	20000000 	andcs	r0, r0, r0
    5810:	3a090000 	bcc	245818 <__bss_end__+0x23b298>
    5814:	01000006 	tsteq	r0, r6
    5818:	00770d22 	rsbseq	r0, r7, r2, lsr #26
    581c:	2f0a0000 	svccs	0x000a0000
    5820:	0100000a 	tsteq	r0, sl
    5824:	00c20e23 	sbceq	r0, r2, r3, lsr #28
    5828:	03050000 	movweq	r0, #20480	; 0x5000
    582c:	0000a16c 	andeq	sl, r0, ip, ror #2
    5830:	0077040b 	rsbseq	r0, r7, fp, lsl #8
    5834:	e10a0000 	mrs	r0, (UNDEF: 10)
    5838:	01000009 	tsteq	r0, r9
    583c:	00c20e24 	sbceq	r0, r2, r4, lsr #28
    5840:	03050000 	movweq	r0, #20480	; 0x5000
    5844:	0000a170 	andeq	sl, r0, r0, ror r1
    5848:	000a260a 	andeq	r2, sl, sl, lsl #12
    584c:	0e250100 	sufeqs	f0, f5, f0
    5850:	000000c2 	andeq	r0, r0, r2, asr #1
    5854:	a1740305 	cmnge	r4, r5, lsl #6
    5858:	3b0c0000 	blcc	305860 <__bss_end__+0x2fb2e0>
    585c:	0100000a 	tsteq	r0, sl
    5860:	9c5c0675 	mrrcls	6, 7, r0, ip, cr5
    5864:	00600000 	rsbeq	r0, r0, r0
    5868:	9c010000 	stcls	0, cr0, [r1], {-0}
    586c:	00000164 	andeq	r0, r0, r4, ror #2
    5870:	0100700d 	tsteq	r0, sp
    5874:	008a1675 	addeq	r1, sl, r5, ror r6
    5878:	33f10000 	mvnscc	r0, #0, 0
    587c:	33eb0000 	mvncc	r0, #0, 0
    5880:	ff0e0000 			; <UNDEFINED> instruction: 0xff0e0000
    5884:	74000005 	strvc	r0, [r0], #-5
    5888:	05000001 	streq	r0, [r0, #-1]
    588c:	00a15c03 	adceq	r5, r1, r3, lsl #24
    5890:	9ca80f00 	stcls	15, cr0, [r8]
    5894:	08bc0000 	ldmeq	ip!, {}	; <UNPREDICTABLE>
    5898:	015a0000 	cmpeq	sl, r0
    589c:	01100000 	tsteq	r0, r0
    58a0:	d4030550 	strle	r0, [r3], #-1360	; 0xfffffab0
    58a4:	100000a0 	andne	r0, r0, r0, lsr #1
    58a8:	03055101 	movweq	r5, #20737	; 0x5101
    58ac:	00009f6c 	andeq	r9, r0, ip, ror #30
    58b0:	05520110 	ldrbeq	r0, [r2, #-272]	; 0xfffffef0
    58b4:	00a15c03 	adceq	r5, r1, r3, lsl #24
    58b8:	53011000 	movwpl	r1, #4096	; 0x1000
    58bc:	10770802 	rsbsne	r0, r7, r2, lsl #16
    58c0:	03007d02 	movweq	r7, #3330	; 0xd02
    58c4:	005001f3 	ldrsheq	r0, [r0], #-19	; 0xffffffed
    58c8:	009cac11 	addseq	sl, ip, r1, lsl ip
    58cc:	0008c800 	andeq	ip, r8, r0, lsl #16
    58d0:	7e120000 	cdpvc	0, 1, cr0, cr2, cr0, {0}
    58d4:	74000000 	strvc	r0, [r0], #-0
    58d8:	13000001 	movwne	r0, #1
    58dc:	0000002c 	andeq	r0, r0, ip, lsr #32
    58e0:	64050009 	strvs	r0, [r5], #-9
    58e4:	14000001 	strne	r0, [r0], #-1
    58e8:	00000a0c 	andeq	r0, r0, ip, lsl #20
    58ec:	48067201 	stmdami	r6, {r0, r9, ip, sp, lr}
    58f0:	1400009c 	strne	r0, [r0], #-156	; 0xffffff64
    58f4:	01000000 	mrseq	r0, (UNDEF: 0)
    58f8:	09fd0c9c 	ldmibeq	sp!, {r2, r3, r4, r7, sl, fp}^
    58fc:	6f010000 	svcvs	0x00010000
    5900:	009c4406 	addseq	r4, ip, r6, lsl #8
    5904:	00000400 	andeq	r0, r0, r0, lsl #8
    5908:	ae9c0100 	fmlgee	f0, f4, f0
    590c:	15000001 	strne	r0, [r0, #-1]
    5910:	6f010070 	svcvs	0x00010070
    5914:	00008a12 	andeq	r8, r0, r2, lsl sl
    5918:	00500100 	subseq	r0, r0, r0, lsl #2
    591c:	000a6d16 	andeq	r6, sl, r6, lsl sp
    5920:	075e0100 	ldrbeq	r0, [lr, -r0, lsl #2]
    5924:	0000008a 	andeq	r0, r0, sl, lsl #1
    5928:	00009b2c 	andeq	r9, r0, ip, lsr #22
    592c:	00000118 	andeq	r0, r0, r8, lsl r1
    5930:	042c9c01 	strteq	r9, [ip], #-3073	; 0xfffff3ff
    5934:	f0170000 			; <UNDEFINED> instruction: 0xf0170000
    5938:	01000009 	tsteq	r0, r9
    593c:	002c205e 	eoreq	r2, ip, lr, asr r0
    5940:	34320000 	ldrtcc	r0, [r2], #-0
    5944:	341e0000 	ldrcc	r0, [lr], #-0
    5948:	45170000 	ldrmi	r0, [r7, #-0]
    594c:	0100000a 	tsteq	r0, sl
    5950:	002c315e 	eoreq	r3, ip, lr, asr r1
    5954:	34cb0000 	strbcc	r0, [fp], #0
    5958:	34b70000 	ldrtcc	r0, [r7], #0
    595c:	ff0e0000 			; <UNDEFINED> instruction: 0xff0e0000
    5960:	3c000005 	stccc	0, cr0, [r0], {5}
    5964:	05000004 	streq	r0, [r0, #-4]
    5968:	00a14403 	adceq	r4, r1, r3, lsl #8
    596c:	00681800 	rsbeq	r1, r8, r0, lsl #16
    5970:	2c0e6601 	stccs	6, cr6, [lr], {1}
    5974:	81000000 	mrshi	r0, (UNDEF: 0)
    5978:	75000035 	strvc	r0, [r0, #-53]	; 0xffffffcb
    597c:	19000035 	stmdbne	r0, {r0, r2, r4, r5}
    5980:	00000854 	andeq	r0, r0, r4, asr r8
    5984:	00009b3c 	andeq	r9, r0, ip, lsr fp
    5988:	009b3c04 	addseq	r3, fp, r4, lsl #24
    598c:	00000400 	andeq	r0, r0, r0, lsl #8
    5990:	05600100 	strbeq	r0, [r0, #-256]!	; 0xffffff00
    5994:	00000238 	andeq	r0, r0, r8, lsr r2
    5998:	0008651a 	andeq	r6, r8, sl, lsl r5
    599c:	0035d500 	eorseq	sp, r5, r0, lsl #10
    59a0:	0035d300 	eorseq	sp, r5, r0, lsl #6
    59a4:	96190000 	ldrls	r0, [r9], -r0
    59a8:	48000008 	stmdami	r0, {r3}
    59ac:	0200009b 	andeq	r0, r0, #155, 0	; 0x9b
    59b0:	00009b48 	andeq	r9, r0, r8, asr #22
    59b4:	00000008 	andeq	r0, r0, r8
    59b8:	6c116101 	ldfvss	f6, [r1], {1}
    59bc:	1a000002 	bne	59cc <__code_start__-0x2634>
    59c0:	000008b1 			; <UNDEFINED> instruction: 0x000008b1
    59c4:	000035ea 	andeq	r3, r0, sl, ror #11
    59c8:	000035e8 	andeq	r3, r0, r8, ror #11
    59cc:	0008a71a 	andeq	sl, r8, sl, lsl r7
    59d0:	00360000 	eorseq	r0, r6, r0
    59d4:	0035fe00 	eorseq	pc, r5, r0, lsl #28
    59d8:	1f1b0000 	svcne	0x001b0000
    59dc:	58000008 	stmdapl	r0, {r3}
    59e0:	0100009b 	swpeq	r0, fp, [r0]	; <UNPREDICTABLE>
    59e4:	000013d0 	ldrdeq	r1, [r0], -r0
    59e8:	0a096701 	beq	25f5f4 <__bss_end__+0x255074>
    59ec:	1a000003 	bne	5a00 <__code_start__-0x2600>
    59f0:	0000083a 	andeq	r0, r0, sl, lsr r8
    59f4:	00003619 	andeq	r3, r0, r9, lsl r6
    59f8:	00003613 	andeq	r3, r0, r3, lsl r6
    59fc:	0008301a 	andeq	r3, r8, sl, lsl r0
    5a00:	00366000 	eorseq	r6, r6, r0
    5a04:	00365800 	eorseq	r5, r6, r0, lsl #16
    5a08:	13d01c00 	bicsne	r1, r0, #0, 24
    5a0c:	54190000 	ldrpl	r0, [r9], #-0
    5a10:	58000008 	stmdapl	r0, {r3}
    5a14:	0400009b 	streq	r0, [r0], #-155	; 0xffffff65
    5a18:	00009b58 	andeq	r9, r0, r8, asr fp
    5a1c:	00000004 	andeq	r0, r0, r4
    5a20:	c7051101 	strgt	r1, [r5, -r1, lsl #2]
    5a24:	1a000002 	bne	5a34 <__code_start__-0x25cc>
    5a28:	00000865 	andeq	r0, r0, r5, ror #16
    5a2c:	0000369e 	muleq	r0, lr, r6
    5a30:	0000369c 	muleq	r0, ip, r6
    5a34:	9bf00f00 	blls	ffc0963c <__bss_end__+0xffbff0bc>
    5a38:	08bc0000 	ldmeq	ip!, {}	; <UNPREDICTABLE>
    5a3c:	02ff0000 	rscseq	r0, pc, #0, 0
    5a40:	01100000 	tsteq	r0, r0
    5a44:	f8030550 			; <UNDEFINED> instruction: 0xf8030550
    5a48:	1000009d 	mulne	r0, sp, r0
    5a4c:	03055101 	movweq	r5, #20737	; 0x5101
    5a50:	00009f6c 	andeq	r9, r0, ip, ror #30
    5a54:	05520110 	ldrbeq	r0, [r2, #-272]	; 0xfffffef0
    5a58:	00a15403 	adceq	r5, r1, r3, lsl #8
    5a5c:	53011000 	movwpl	r1, #4096	; 0x1000
    5a60:	02104101 	andseq	r4, r0, #1073741824	; 0x40000000
    5a64:	0305007d 	movweq	r0, #20605	; 0x507d
    5a68:	0000a080 	andeq	sl, r0, r0, lsl #1
    5a6c:	9bf41100 	blls	ffd09e74 <__bss_end__+0xffcff8f4>
    5a70:	08c80000 	stmiaeq	r8, {}^	; <UNPREDICTABLE>
    5a74:	00000000 	andeq	r0, r0, r0
    5a78:	00087019 	andeq	r7, r8, r9, lsl r0
    5a7c:	009b7000 	addseq	r7, fp, r0
    5a80:	9b700300 	blls	1c06688 <__bss_end__+0x1bfc108>
    5a84:	00040000 	andeq	r0, r4, r0
    5a88:	68010000 	stmdavs	r1, {}	; <UNPREDICTABLE>
    5a8c:	00033e05 	andeq	r3, r3, r5, lsl #28
    5a90:	088b1a00 	stmeq	fp, {r9, fp, ip}
    5a94:	36b30000 	ldrtcc	r0, [r3], r0
    5a98:	36b10000 	ldrtcc	r0, [r1], r0
    5a9c:	811a0000 	tsthi	sl, r0
    5aa0:	c8000008 	stmdagt	r0, {r3}
    5aa4:	c6000036 			; <UNDEFINED> instruction: 0xc6000036
    5aa8:	00000036 	andeq	r0, r0, r6, lsr r0
    5aac:	009b880f 	addseq	r8, fp, pc, lsl #16
    5ab0:	00044100 	andeq	r4, r4, r0, lsl #2
    5ab4:	00035300 	andeq	r5, r3, r0, lsl #6
    5ab8:	50011000 	andpl	r1, r1, r0
    5abc:	5001f303 	andpl	pc, r1, r3, lsl #6
    5ac0:	9bac0f00 	blls	feb096c8 <__bss_end__+0xfeaff148>
    5ac4:	08bc0000 	ldmeq	ip!, {}	; <UNPREDICTABLE>
    5ac8:	038c0000 	orreq	r0, ip, #0, 0
    5acc:	01100000 	tsteq	r0, r0
    5ad0:	f8030550 			; <UNDEFINED> instruction: 0xf8030550
    5ad4:	1000009d 	mulne	r0, sp, r0
    5ad8:	03055101 	movweq	r5, #20737	; 0x5101
    5adc:	00009f6c 	andeq	r9, r0, ip, ror #30
    5ae0:	05520110 	ldrbeq	r0, [r2, #-272]	; 0xfffffef0
    5ae4:	00a14403 	adceq	r4, r1, r3, lsl #8
    5ae8:	53011000 	movwpl	r1, #4096	; 0x1000
    5aec:	105f0802 	subsne	r0, pc, r2, lsl #16
    5af0:	05007d02 	streq	r7, [r0, #-3330]	; 0xfffff2fe
    5af4:	009f7c03 	addseq	r7, pc, r3, lsl #24
    5af8:	b0110000 	andslt	r0, r1, r0
    5afc:	c800009b 	stmdagt	r0, {r0, r1, r3, r4, r7}
    5b00:	11000008 	tstne	r0, r8
    5b04:	00009bb4 			; <UNDEFINED> instruction: 0x00009bb4
    5b08:	000008d4 	ldrdeq	r0, [r0], -r4
    5b0c:	009bd00f 	addseq	sp, fp, pc
    5b10:	0008bc00 	andeq	fp, r8, r0, lsl #24
    5b14:	0003d700 	andeq	sp, r3, r0, lsl #14
    5b18:	50011000 	andpl	r1, r1, r0
    5b1c:	a0380305 	eorsge	r0, r8, r5, lsl #6
    5b20:	01100000 	tsteq	r0, r0
    5b24:	6c030551 	cfstr32vs	mvfx0, [r3], {81}	; 0x51
    5b28:	1000009f 	mulne	r0, pc, r0	; <UNPREDICTABLE>
    5b2c:	03055201 	movweq	r5, #20993	; 0x5201
    5b30:	0000a144 	andeq	sl, r0, r4, asr #2
    5b34:	02530110 	subseq	r0, r3, #4
    5b38:	02106008 	andseq	r6, r0, #8, 0
    5b3c:	0305007d 	movweq	r0, #20605	; 0x507d
    5b40:	0000a06c 	andeq	sl, r0, ip, rrx
    5b44:	9bd41100 	blls	ff509f4c <__bss_end__+0xff4ff9cc>
    5b48:	08c80000 	stmiaeq	r8, {}^	; <UNPREDICTABLE>
    5b4c:	f8110000 			; <UNDEFINED> instruction: 0xf8110000
    5b50:	d400009b 	strle	r0, [r0], #-155	; 0xffffff65
    5b54:	0f000008 	svceq	0x00000008
    5b58:	00009c14 	andeq	r9, r0, r4, lsl ip
    5b5c:	000008bc 			; <UNDEFINED> instruction: 0x000008bc
    5b60:	00000422 	andeq	r0, r0, r2, lsr #8
    5b64:	05500110 	ldrbeq	r0, [r0, #-272]	; 0xfffffef0
    5b68:	00a08c03 	adceq	r8, r0, r3, lsl #24
    5b6c:	51011000 	mrspl	r1, (UNDEF: 1)
    5b70:	9f6c0305 	svcls	0x006c0305
    5b74:	01100000 	tsteq	r0, r0
    5b78:	44030552 	strmi	r0, [r3], #-1362	; 0xfffffaae
    5b7c:	100000a1 	andne	r0, r0, r1, lsr #1
    5b80:	08025301 	stmdaeq	r2, {r0, r8, r9, ip, lr}
    5b84:	7d021068 	stcvc	0, cr1, [r2, #-416]	; 0xfffffe60
    5b88:	b8030500 	stmdalt	r3, {r8, sl}
    5b8c:	000000a0 	andeq	r0, r0, r0, lsr #1
    5b90:	009c1811 	addseq	r1, ip, r1, lsl r8
    5b94:	0008c800 	andeq	ip, r8, r0, lsl #16
    5b98:	7e120000 	cdpvc	0, 1, cr0, cr2, cr0, {0}
    5b9c:	3c000000 	stccc	0, cr0, [r0], {-0}
    5ba0:	13000004 	movwne	r0, #4
    5ba4:	0000002c 	andeq	r0, r0, ip, lsr #32
    5ba8:	2c05000f 	stccs	0, cr0, [r5], {15}
    5bac:	16000004 	strne	r0, [r0], -r4
    5bb0:	000002af 	andeq	r0, r0, pc, lsr #5
    5bb4:	8a075301 	bhi	1da7c0 <__bss_end__+0x1d0240>
    5bb8:	c8000000 	stmdagt	r0, {}	; <UNPREDICTABLE>
    5bbc:	6400009a 	strvs	r0, [r0], #-154	; 0xffffff66
    5bc0:	01000000 	mrseq	r0, (UNDEF: 0)
    5bc4:	0005089c 	muleq	r5, ip, r8
    5bc8:	09f01700 	ldmibeq	r0!, {r8, r9, sl, ip}^
    5bcc:	53010000 	movwpl	r0, #4096	; 0x1000
    5bd0:	00002c18 	andeq	r2, r0, r8, lsl ip
    5bd4:	0036e300 	eorseq	lr, r6, r0, lsl #6
    5bd8:	0036db00 	eorseq	sp, r6, r0, lsl #22
    5bdc:	05ff0e00 	ldrbeq	r0, [pc, #3584]!	; 69e4 <__code_start__-0x161c>
    5be0:	05180000 	ldreq	r0, [r8, #-0]
    5be4:	03050000 	movweq	r0, #20480	; 0x5000
    5be8:	0000a13c 	andeq	sl, r0, ip, lsr r1
    5bec:	0009f81d 	andeq	pc, r9, sp, lsl r8	; <UNPREDICTABLE>
    5bf0:	0b550100 	bleq	1545ff8 <__bss_end__+0x153ba78>
    5bf4:	0000008a 	andeq	r0, r0, sl, lsl #1
    5bf8:	0000371b 	andeq	r3, r0, fp, lsl r7
    5bfc:	00003717 	andeq	r3, r0, r7, lsl r7
    5c00:	009ae00f 	addseq	lr, sl, pc
    5c04:	00051d00 	andeq	r1, r5, r0, lsl #26
    5c08:	0004a600 	andeq	sl, r4, r0, lsl #12
    5c0c:	50011000 	andpl	r1, r1, r0
    5c10:	00007402 	andeq	r7, r0, r2, lsl #8
    5c14:	009af00f 	addseq	pc, sl, pc
    5c18:	0008e000 	andeq	lr, r8, r0
    5c1c:	0004c500 	andeq	ip, r4, r0, lsl #10
    5c20:	50011000 	andpl	r1, r1, r0
    5c24:	10007502 	andne	r7, r0, r2, lsl #10
    5c28:	30015101 	andcc	r5, r1, r1, lsl #2
    5c2c:	02520110 	subseq	r0, r2, #4
    5c30:	0f000074 	svceq	0x00000074
    5c34:	00009b18 	andeq	r9, r0, r8, lsl fp
    5c38:	000008bc 			; <UNDEFINED> instruction: 0x000008bc
    5c3c:	000004fe 	strdeq	r0, [r0], -lr
    5c40:	05500110 	ldrbeq	r0, [r0, #-272]	; 0xfffffef0
    5c44:	009df803 	addseq	pc, sp, r3, lsl #16
    5c48:	51011000 	mrspl	r1, (UNDEF: 1)
    5c4c:	9f6c0305 	svcls	0x006c0305
    5c50:	01100000 	tsteq	r0, r0
    5c54:	3c030552 	cfstr32cc	mvfx0, [r3], {82}	; 0x52
    5c58:	100000a1 	andne	r0, r0, r1, lsr #1
    5c5c:	08025301 	stmdaeq	r2, {r0, r8, r9, ip, lr}
    5c60:	7d021054 	stcvc	0, cr1, [r2, #-336]	; 0xfffffeb0
    5c64:	7c030500 	cfstr32vc	mvfx0, [r3], {-0}
    5c68:	0000009f 	muleq	r0, pc, r0	; <UNPREDICTABLE>
    5c6c:	009b1c11 	addseq	r1, fp, r1, lsl ip
    5c70:	0008c800 	andeq	ip, r8, r0, lsl #16
    5c74:	7e120000 	cdpvc	0, 1, cr0, cr2, cr0, {0}
    5c78:	18000000 	stmdane	r0, {}	; <UNPREDICTABLE>
    5c7c:	13000005 	movwne	r0, #5
    5c80:	0000002c 	andeq	r0, r0, ip, lsr #32
    5c84:	08050007 	stmdaeq	r5, {r0, r1, r2}
    5c88:	16000005 	strne	r0, [r0], -r5
    5c8c:	00000a5d 	andeq	r0, r0, sp, asr sl
    5c90:	8a074701 	bhi	1d789c <__bss_end__+0x1cd31c>
    5c94:	30000000 	andcc	r0, r0, r0
    5c98:	9800009a 	stmdals	r0, {r1, r3, r4, r7}
    5c9c:	01000000 	mrseq	r0, (UNDEF: 0)
    5ca0:	00062b9c 	muleq	r6, ip, fp
    5ca4:	09f01700 	ldmibeq	r0!, {r8, r9, sl, ip}^
    5ca8:	47010000 	strmi	r0, [r1, -r0]
    5cac:	00002c20 	andeq	r2, r0, r0, lsr #24
    5cb0:	00374900 	eorseq	r4, r7, r0, lsl #18
    5cb4:	00373900 	eorseq	r3, r7, r0, lsl #18
    5cb8:	05ff0e00 	ldrbeq	r0, [pc, #3584]!	; 6ac0 <__code_start__-0x1540>
    5cbc:	043c0000 	ldrteq	r0, [ip], #-0
    5cc0:	03050000 	movweq	r0, #20480	; 0x5000
    5cc4:	0000a12c 	andeq	sl, r0, ip, lsr #2
    5cc8:	0009f81d 	andeq	pc, r9, sp, lsl r8	; <UNPREDICTABLE>
    5ccc:	0b4b0100 	bleq	12c60d4 <__bss_end__+0x12bbb54>
    5cd0:	0000008a 	andeq	r0, r0, sl, lsl #1
    5cd4:	000037bb 			; <UNDEFINED> instruction: 0x000037bb
    5cd8:	000037b7 			; <UNDEFINED> instruction: 0x000037b7
    5cdc:	00081f1b 	andeq	r1, r8, fp, lsl pc
    5ce0:	009a4000 	addseq	r4, sl, r0
    5ce4:	13b80300 			; <UNDEFINED> instruction: 0x13b80300
    5ce8:	49010000 	stmdbmi	r1, {}	; <UNPREDICTABLE>
    5cec:	0005a30e 	andeq	sl, r5, lr, lsl #6
    5cf0:	083a1a00 	ldmdaeq	sl!, {r9, fp, ip}
    5cf4:	37db0000 	ldrbcc	r0, [fp, r0]
    5cf8:	37d90000 	ldrbcc	r0, [r9, r0]
    5cfc:	301a0000 	andscc	r0, sl, r0
    5d00:	f3000008 	vhadd.u8	d0, d0, d8
    5d04:	ef000037 	svc	0x00000037
    5d08:	1e000037 	mcrne	0, 0, r0, cr0, cr7, {1}
    5d0c:	000013b8 			; <UNDEFINED> instruction: 0x000013b8
    5d10:	9a880f00 	bls	fe209918 <__bss_end__+0xfe1ff398>
    5d14:	08bc0000 	ldmeq	ip!, {}	; <UNPREDICTABLE>
    5d18:	05dc0000 	ldrbeq	r0, [ip]
    5d1c:	01100000 	tsteq	r0, r0
    5d20:	f8030550 			; <UNDEFINED> instruction: 0xf8030550
    5d24:	1000009d 	mulne	r0, sp, r0
    5d28:	03055101 	movweq	r5, #20737	; 0x5101
    5d2c:	00009f6c 	andeq	r9, r0, ip, ror #30
    5d30:	05520110 	ldrbeq	r0, [r2, #-272]	; 0xfffffef0
    5d34:	00a12c03 	adceq	r2, r1, r3, lsl #24
    5d38:	53011000 	movwpl	r1, #4096	; 0x1000
    5d3c:	10480802 	subne	r0, r8, r2, lsl #16
    5d40:	05007d02 	streq	r7, [r0, #-3330]	; 0xfffff2fe
    5d44:	009f7c03 	addseq	r7, pc, r3, lsl #24
    5d48:	8c110000 	ldchi	0, cr0, [r1], {-0}
    5d4c:	c800009a 	stmdagt	r0, {r1, r3, r4, r7}
    5d50:	0f000008 	svceq	0x00000008
    5d54:	00009aac 	andeq	r9, r0, ip, lsr #21
    5d58:	000008bc 			; <UNDEFINED> instruction: 0x000008bc
    5d5c:	00000621 	andeq	r0, r0, r1, lsr #12
    5d60:	05500110 	ldrbeq	r0, [r0, #-272]	; 0xfffffef0
    5d64:	009ff803 	addseq	pc, pc, r3, lsl #16
    5d68:	51011000 	mrspl	r1, (UNDEF: 1)
    5d6c:	9f6c0305 	svcls	0x006c0305
    5d70:	01100000 	tsteq	r0, r0
    5d74:	2c030552 	cfstr32cs	mvfx0, [r3], {82}	; 0x52
    5d78:	100000a1 	andne	r0, r0, r1, lsr #1
    5d7c:	08025301 	stmdaeq	r2, {r0, r8, r9, ip, lr}
    5d80:	7d02104e 	stcvc	0, cr1, [r2, #-312]	; 0xfffffec8
    5d84:	01f30800 	mvnseq	r0, r0, lsl #16
    5d88:	09072350 	stmdbeq	r7, {r4, r6, r8, r9, sp}
    5d8c:	11001af8 	strdne	r1, [r0, -r8]
    5d90:	00009ab0 			; <UNDEFINED> instruction: 0x00009ab0
    5d94:	000008c8 	andeq	r0, r0, r8, asr #17
    5d98:	0a8f0c00 	beq	fe3c8da0 <__bss_end__+0xfe3be820>
    5d9c:	3c010000 	stccc	0, cr0, [r1], {-0}
    5da0:	0099d806 	addseq	sp, r9, r6, lsl #16
    5da4:	00005800 	andeq	r5, r0, r0, lsl #16
    5da8:	cf9c0100 	svcgt	0x009c0100
    5dac:	0a000006 	beq	5dcc <__code_start__-0x2234>
    5db0:	00000a34 	andeq	r0, r0, r4, lsr sl
    5db4:	25103d01 	ldrcs	r3, [r0, #-3329]	; 0xfffff2ff
    5db8:	05000000 	streq	r0, [r0, #-0]
    5dbc:	00a57c03 	adceq	r7, r5, r3, lsl #24
    5dc0:	05ff0e00 	ldrbeq	r0, [pc, #3584]!	; 6bc8 <__code_start__-0x1438>
    5dc4:	06df0000 	ldrbeq	r0, [pc], r0
    5dc8:	03050000 	movweq	r0, #20480	; 0x5000
    5dcc:	0000a11c 	andeq	sl, r0, ip, lsl r1
    5dd0:	2c040707 	stccs	7, cr0, [r4], {7}
    5dd4:	01000000 	mrseq	r0, (UNDEF: 0)
    5dd8:	067a0a42 	ldrbteq	r0, [sl], -r2, asr #20
    5ddc:	57080000 	strpl	r0, [r8, -r0]
    5de0:	0000000a 	andeq	r0, r0, sl
    5de4:	00001000 	andeq	r1, r0, r0
    5de8:	009a040f 	addseq	r0, sl, pc, lsl #8
    5dec:	0006e400 	andeq	lr, r6, r0, lsl #8
    5df0:	00069600 	andeq	r9, r6, r0, lsl #12
    5df4:	50011000 	andpl	r1, r1, r0
    5df8:	24404003 	strbcs	r4, [r0], #-3
    5dfc:	03510110 	cmpeq	r1, #4
    5e00:	00244840 	eoreq	r4, r4, r0, asr #16
    5e04:	009a1c0f 	addseq	r1, sl, pc, lsl #24
    5e08:	0008bc00 	andeq	fp, r8, r0, lsl #24
    5e0c:	0006c500 	andeq	ip, r6, r0, lsl #10
    5e10:	50011000 	andpl	r1, r1, r0
    5e14:	9fc80305 	svcls	0x00c80305
    5e18:	01100000 	tsteq	r0, r0
    5e1c:	6c030551 	cfstr32vs	mvfx0, [r3], {81}	; 0x51
    5e20:	1000009f 	mulne	r0, pc, r0	; <UNPREDICTABLE>
    5e24:	03055201 	movweq	r5, #20993	; 0x5201
    5e28:	0000a11c 	andeq	sl, r0, ip, lsl r1
    5e2c:	02530110 	subseq	r0, r3, #4
    5e30:	11004008 	tstne	r0, r8
    5e34:	00009a20 	andeq	r9, r0, r0, lsr #20
    5e38:	000008c8 	andeq	r0, r0, r8, asr #17
    5e3c:	007e1200 	rsbseq	r1, lr, r0, lsl #4
    5e40:	06df0000 	ldrbeq	r0, [pc], r0
    5e44:	2c130000 	ldccs	0, cr0, [r3], {-0}
    5e48:	0c000000 	stceq	0, cr0, [r0], {-0}
    5e4c:	06cf0500 	strbeq	r0, [pc], r0, lsl #10
    5e50:	bf0c0000 	svclt	0x000c0000
    5e54:	0100000a 	tsteq	r0, sl
    5e58:	993c062d 	ldmdbls	ip!, {r0, r2, r3, r5, r9, sl}
    5e5c:	009c0000 	addseq	r0, ip, r0
    5e60:	9c010000 	stcls	0, cr0, [r1], {-0}
    5e64:	000007c8 	andeq	r0, r0, r8, asr #15
    5e68:	0009f717 	andeq	pc, r9, r7, lsl r7	; <UNPREDICTABLE>
    5e6c:	262d0100 	strtcs	r0, [sp], -r0, lsl #2
    5e70:	0000002c 	andeq	r0, r0, ip, lsr #32
    5e74:	00003821 	andeq	r3, r0, r1, lsr #16
    5e78:	00003813 	andeq	r3, r0, r3, lsl r8
    5e7c:	0009ec17 	andeq	lr, r9, r7, lsl ip
    5e80:	362d0100 	strtcc	r0, [sp], -r0, lsl #2
    5e84:	0000002c 	andeq	r0, r0, ip, lsr #32
    5e88:	00003889 	andeq	r3, r0, r9, lsl #17
    5e8c:	00003881 	andeq	r3, r0, r1, lsl #17
    5e90:	0009f81d 	andeq	pc, r9, sp, lsl r8	; <UNPREDICTABLE>
    5e94:	0b2e0100 	bleq	b8629c <__bss_end__+0xb7bd1c>
    5e98:	000000c2 	andeq	r0, r0, r2, asr #1
    5e9c:	000038d1 	ldrdeq	r3, [r0], -r1
    5ea0:	000038c3 	andeq	r3, r0, r3, asr #17
    5ea4:	0005ff0e 	andeq	pc, r5, lr, lsl #30
    5ea8:	0007d800 	andeq	sp, r7, r0, lsl #16
    5eac:	04030500 	streq	r0, [r3], #-1280	; 0xfffffb00
    5eb0:	0f0000a1 	svceq	0x000000a1
    5eb4:	00009994 	muleq	r0, r4, r9
    5eb8:	000008bc 			; <UNDEFINED> instruction: 0x000008bc
    5ebc:	0000077e 	andeq	r0, r0, lr, ror r7
    5ec0:	05500110 	ldrbeq	r0, [r0, #-272]	; 0xfffffef0
    5ec4:	009df803 	addseq	pc, sp, r3, lsl #16
    5ec8:	51011000 	mrspl	r1, (UNDEF: 1)
    5ecc:	9f6c0305 	svcls	0x006c0305
    5ed0:	01100000 	tsteq	r0, r0
    5ed4:	04030552 	streq	r0, [r3], #-1362	; 0xfffffaae
    5ed8:	100000a1 	andne	r0, r0, r1, lsr #1
    5edc:	08025301 	stmdaeq	r2, {r0, r8, r9, ip, lr}
    5ee0:	7d021030 	stcvc	0, cr1, [r2, #-192]	; 0xffffff40
    5ee4:	78030500 	stmdavc	r3, {r8, sl}
    5ee8:	0000009f 	muleq	r0, pc, r0	; <UNPREDICTABLE>
    5eec:	00999811 	addseq	r9, r9, r1, lsl r8
    5ef0:	0008c800 	andeq	ip, r8, r0, lsl #16
    5ef4:	99bc0f00 	ldmibls	ip!, {r8, r9, sl, fp}
    5ef8:	08bc0000 	ldmeq	ip!, {}	; <UNPREDICTABLE>
    5efc:	07be0000 	ldreq	r0, [lr, r0]!
    5f00:	01100000 	tsteq	r0, r0
    5f04:	84030550 	strhi	r0, [r3], #-1360	; 0xfffffab0
    5f08:	1000009f 	mulne	r0, pc, r0	; <UNPREDICTABLE>
    5f0c:	03055101 	movweq	r5, #20737	; 0x5101
    5f10:	00009f6c 	andeq	r9, r0, ip, ror #30
    5f14:	05520110 	ldrbeq	r0, [r2, #-272]	; 0xfffffef0
    5f18:	00a10403 	adceq	r0, r1, r3, lsl #8
    5f1c:	53011000 	movwpl	r1, #4096	; 0x1000
    5f20:	10340802 	eorsne	r0, r4, r2, lsl #16
    5f24:	03007d02 	movweq	r7, #3330	; 0xd02
    5f28:	005001f3 	ldrsheq	r0, [r0], #-19	; 0xffffffed
    5f2c:	0099c011 	addseq	ip, r9, r1, lsl r0
    5f30:	0008c800 	andeq	ip, r8, r0, lsl #16
    5f34:	7e120000 	cdpvc	0, 1, cr0, cr2, cr0, {0}
    5f38:	d8000000 	stmdale	r0, {}	; <UNPREDICTABLE>
    5f3c:	13000007 	movwne	r0, #7
    5f40:	0000002c 	andeq	r0, r0, ip, lsr #32
    5f44:	c8050016 	stmdagt	r5, {r1, r2, r4}
    5f48:	1f000007 	svcne	0x00000007
    5f4c:	00000aae 	andeq	r0, r0, lr, lsr #21
    5f50:	8a072a01 	bhi	1d075c <__bss_end__+0x1c61dc>
    5f54:	2c000000 	stccs	0, cr0, [r0], {-0}
    5f58:	10000099 	mulne	r0, r9, r0
    5f5c:	01000000 	mrseq	r0, (UNDEF: 0)
    5f60:	09d91f9c 	ldmibeq	r9, {r2, r3, r4, r7, r8, r9, sl, fp, ip}^
    5f64:	29010000 	stmdbcs	r1, {}	; <UNPREDICTABLE>
    5f68:	00008a07 	andeq	r8, r0, r7, lsl #20
    5f6c:	00991c00 	addseq	r1, r9, r0, lsl #24
    5f70:	00001000 	andeq	r1, r0, r0
    5f74:	1f9c0100 	svcne	0x009c0100
    5f78:	00000a1e 	andeq	r0, r0, lr, lsl sl
    5f7c:	8a072801 	bhi	1cff88 <__bss_end__+0x1c5a08>
    5f80:	0c000000 	stceq	0, cr0, [r0], {-0}
    5f84:	10000099 	mulne	r0, r9, r0
    5f88:	01000000 	mrseq	r0, (UNDEF: 0)
    5f8c:	0a16209c 	beq	58e204 <__bss_end__+0x583c84>
    5f90:	10010000 	andne	r0, r1, r0
    5f94:	00002c18 	andeq	r2, r0, r8, lsl ip
    5f98:	08540300 	ldmdaeq	r4, {r8, r9}^
    5f9c:	78210000 	stmdavc	r1!, {}	; <UNPREDICTABLE>
    5fa0:	29100100 	ldmdbcs	r0, {r8}
    5fa4:	0000002c 	andeq	r0, r0, ip, lsr #32
    5fa8:	01006e21 	tsteq	r0, r1, lsr #28
    5fac:	002c3510 	eoreq	r3, ip, r0, lsl r5
    5fb0:	ff0e0000 			; <UNDEFINED> instruction: 0xff0e0000
    5fb4:	18000005 	stmdane	r0, {r0, r2}
    5fb8:	05000005 	streq	r0, [r0, #-5]
    5fbc:	00a15403 	adceq	r5, r1, r3, lsl #8
    5fc0:	7d200000 	stcvc	0, cr0, [r0, #-0]
    5fc4:	0100000a 	tsteq	r0, sl
    5fc8:	002c180d 	eoreq	r1, ip, sp, lsl #16
    5fcc:	70030000 	andvc	r0, r3, r0
    5fd0:	21000008 	tstcs	r0, r8
    5fd4:	0d010078 	stceq	0, cr0, [r1, #-480]	; 0xfffffe20
    5fd8:	00002c29 	andeq	r2, r0, r9, lsr #24
    5fdc:	9c200000 	stcls	0, cr0, [r0], #-0
    5fe0:	0100000a 	tsteq	r0, sl
    5fe4:	002c1807 	eoreq	r1, ip, r7, lsl #16
    5fe8:	96030000 	strls	r0, [r3], -r0
    5fec:	21000008 	tstcs	r0, r8
    5ff0:	07010078 	smlsdxeq	r1, r8, r0, r0
    5ff4:	00002c2c 	andeq	r2, r0, ip, lsr #24
    5ff8:	006e2100 	rsbeq	r2, lr, r0, lsl #2
    5ffc:	2c380701 	ldccs	7, cr0, [r8], #-4
    6000:	00000000 	andeq	r0, r0, r0
    6004:	000a4f20 	andeq	r4, sl, r0, lsr #30
    6008:	18040100 	stmdane	r4, {r8}
    600c:	0000005d 	andeq	r0, r0, sp, asr r0
    6010:	0008bc03 	andeq	fp, r8, r3, lsl #24
    6014:	00782100 	rsbseq	r2, r8, r0, lsl #2
    6018:	5d290401 	cfstrspl	mvf0, [r9, #-4]!
    601c:	21000000 	mrscs	r0, (UNDEF: 0)
    6020:	04010079 	streq	r0, [r1], #-121	; 0xffffff87
    6024:	00005d35 	andeq	r5, r0, r5, lsr sp
    6028:	67220000 	strvs	r0, [r2, -r0]!
    602c:	67000005 	strvs	r0, [r0, -r5]
    6030:	02000005 	andeq	r0, r0, #5, 0
    6034:	0c220628 	stceq	6, cr0, [r2], #-160	; 0xffffff60
    6038:	0c000006 	stceq	0, cr0, [r0], {6}
    603c:	02000006 	andeq	r0, r0, #6, 0
    6040:	d622066e 	strtle	r0, [r2], -lr, ror #12
    6044:	d600000a 	strle	r0, [r0], -sl
    6048:	0200000a 	andeq	r0, r0, #10, 0
    604c:	6022061d 	eorvs	r0, r2, sp, lsl r6
    6050:	60000002 	andvs	r0, r0, r2
    6054:	02000002 	andeq	r0, r0, #2, 0
    6058:	490007f2 	stmdbmi	r0, {r1, r4, r5, r6, r7, r8, r9, sl}
    605c:	04000001 	streq	r0, [r0], #-1
    6060:	00165300 	andseq	r5, r6, r0, lsl #6
    6064:	a7010400 	strge	r0, [r1, -r0, lsl #8]
    6068:	0c000004 	stceq	0, cr0, [r0], {4}
    606c:	00000b03 	andeq	r0, r0, r3, lsl #22
    6070:	0000043b 	andeq	r0, r0, fp, lsr r4
    6074:	00009cbc 			; <UNDEFINED> instruction: 0x00009cbc
    6078:	0000003c 	andeq	r0, r0, ip, lsr r0
    607c:	00002b1c 	andeq	r2, r0, ip, lsl fp
    6080:	69050402 	stmdbvs	r5, {r1, sl}
    6084:	0300746e 	movweq	r7, #1134	; 0x46e
    6088:	01b00704 	lslseq	r0, r4, #14
    608c:	01030000 	mrseq	r0, (UNDEF: 3)
    6090:	00008f06 	andeq	r8, r0, r6, lsl #30
    6094:	05020300 	streq	r0, [r2, #-768]	; 0xfffffd00
    6098:	000001e7 	andeq	r0, r0, r7, ror #3
    609c:	d2050403 	andle	r0, r5, #50331648	; 0x3000000
    60a0:	03000001 	movweq	r0, #1
    60a4:	01cd0508 	biceq	r0, sp, r8, lsl #10
    60a8:	01030000 	mrseq	r0, (UNDEF: 3)
    60ac:	00008d08 	andeq	r8, r0, r8, lsl #26
    60b0:	07020300 	streq	r0, [r2, -r0, lsl #6]
    60b4:	000000a4 	andeq	r0, r0, r4, lsr #1
    60b8:	ab070403 	blge	1c70cc <__bss_end__+0x1bcb4c>
    60bc:	03000001 	movweq	r0, #1
    60c0:	01a60708 			; <UNDEFINED> instruction: 0x01a60708
    60c4:	25040000 	strcs	r0, [r4, #-0]
    60c8:	7a000000 	bvc	60d0 <__code_start__-0x1f30>
    60cc:	05000000 	streq	r0, [r0, #-0]
    60d0:	00000025 	andeq	r0, r0, r5, lsr #32
    60d4:	01db0600 	bicseq	r0, fp, r0, lsl #12
    60d8:	1c020000 	stcne	0, cr0, [r2], {-0}
    60dc:	0000860e 	andeq	r8, r0, lr, lsl #12
    60e0:	6b040700 	blvs	107ce8 <__bss_end__+0xfd768>
    60e4:	04000000 	streq	r0, [r0], #-0
    60e8:	00000025 	andeq	r0, r0, r5, lsr #32
    60ec:	0000009b 	muleq	r0, fp, r0
    60f0:	00009b05 	andeq	r9, r0, r5, lsl #22
    60f4:	04070000 	streq	r0, [r7], #-0
    60f8:	000000a8 	andeq	r0, r0, r8, lsr #1
    60fc:	96080103 	strls	r0, [r8], -r3, lsl #2
    6100:	08000000 	stmdaeq	r0, {}	; <UNPREDICTABLE>
    6104:	000000a1 	andeq	r0, r0, r1, lsr #1
    6108:	0005a506 	andeq	sl, r5, r6, lsl #10
    610c:	0e210200 	cdpeq	2, 2, cr0, cr1, cr0, {0}
    6110:	000000b9 	strheq	r0, [r0], -r9
    6114:	008c0407 	addeq	r0, ip, r7, lsl #8
    6118:	7a090000 	bvc	246120 <__bss_end__+0x23bba0>
    611c:	01000000 	mrseq	r0, (UNDEF: 0)
    6120:	03050706 	movweq	r0, #22278	; 0x5706
    6124:	0000a178 	andeq	sl, r0, r8, ror r1
    6128:	000af60a 	andeq	pc, sl, sl, lsl #12
    612c:	060b0100 	streq	r0, [fp], -r0, lsl #2
    6130:	00009ce8 	andeq	r9, r0, r8, ror #25
    6134:	00000010 	andeq	r0, r0, r0, lsl r0
    6138:	00f19c01 	rscseq	r9, r1, r1, lsl #24
    613c:	660b0000 	strvs	r0, [fp], -r0
    6140:	0b010070 	bleq	46308 <__bss_end__+0x3bd88>
    6144:	00008619 	andeq	r8, r0, r9, lsl r6
    6148:	00500100 	subseq	r0, r0, r0, lsl #2
    614c:	000ad60c 	andeq	sp, sl, ip, lsl #12
    6150:	06080100 	streq	r0, [r8], -r0, lsl #2
    6154:	00009cd0 	ldrdeq	r9, [r0], -r0
    6158:	00000018 	andeq	r0, r0, r8, lsl r0
    615c:	e50d9c01 	str	r9, [sp, #-3073]	; 0xfffff3ff
    6160:	0100000a 	tsteq	r0, sl
    6164:	00250c03 	eoreq	r0, r5, r3, lsl #24
    6168:	9cbc0000 	ldcls	0, cr0, [ip]
    616c:	00140000 	andseq	r0, r4, r0
    6170:	9c010000 	stcls	0, cr0, [r1], {-0}
    6174:	00000140 	andeq	r0, r0, r0, asr #2
    6178:	0100630e 	tsteq	r0, lr, lsl #6
    617c:	00252103 	eoreq	r2, r5, r3, lsl #2
    6180:	39350000 	ldmdbcc	r5!, {}	; <UNPREDICTABLE>
    6184:	39310000 	ldmdbcc	r1!, {}	; <UNPREDICTABLE>
    6188:	c80f0000 	stmdagt	pc, {}	; <UNPREDICTABLE>
    618c:	4000009c 	mulmi	r0, ip, r0
    6190:	10000001 	andne	r0, r0, r1
    6194:	74025001 	strvc	r5, [r2], #-1
    6198:	11000000 	mrsne	r0, (UNDEF: 0)
    619c:	000009c9 	andeq	r0, r0, r9, asr #19
    61a0:	000009c9 	andeq	r0, r0, r9, asr #19
    61a4:	00064202 	andeq	r4, r6, r2, lsl #4
    61a8:	00000137 	andeq	r0, r0, r7, lsr r1
    61ac:	17620004 	strbne	r0, [r2, -r4]!
    61b0:	01040000 	mrseq	r0, (UNDEF: 4)
    61b4:	000004a7 	andeq	r0, r0, r7, lsr #9
    61b8:	000b140c 	andeq	r1, fp, ip, lsl #8
    61bc:	00043b00 	andeq	r3, r4, r0, lsl #22
    61c0:	009cf800 	addseq	pc, ip, r0, lsl #16
    61c4:	00002c00 	andeq	r2, r0, r0, lsl #24
    61c8:	002bbe00 	eoreq	fp, fp, r0, lsl #28
    61cc:	05040200 	streq	r0, [r4, #-512]	; 0xfffffe00
    61d0:	00746e69 	rsbseq	r6, r4, r9, ror #28
    61d4:	b0070403 	andlt	r0, r7, r3, lsl #8
    61d8:	03000001 	movweq	r0, #1
    61dc:	008f0601 	addeq	r0, pc, r1, lsl #12
    61e0:	02030000 	andeq	r0, r3, #0, 0
    61e4:	0001e705 	andeq	lr, r1, r5, lsl #14
    61e8:	05040300 	streq	r0, [r4, #-768]	; 0xfffffd00
    61ec:	000001d2 	ldrdeq	r0, [r0], -r2
    61f0:	cd050803 	stcgt	8, cr0, [r5, #-12]
    61f4:	03000001 	movweq	r0, #1
    61f8:	008d0801 	addeq	r0, sp, r1, lsl #16
    61fc:	02030000 	andeq	r0, r3, #0, 0
    6200:	0000a407 	andeq	sl, r0, r7, lsl #8
    6204:	07040300 	streq	r0, [r4, -r0, lsl #6]
    6208:	000001ab 	andeq	r0, r0, fp, lsr #3
    620c:	a6070803 	strge	r0, [r7], -r3, lsl #16
    6210:	04000001 	streq	r0, [r0], #-1
    6214:	00000025 	andeq	r0, r0, r5, lsr #32
    6218:	0000007a 	andeq	r0, r0, sl, ror r0
    621c:	00002505 	andeq	r2, r0, r5, lsl #10
    6220:	db060000 	blle	186228 <__bss_end__+0x17bca8>
    6224:	02000001 	andeq	r0, r0, #1, 0
    6228:	00860e1c 	addeq	r0, r6, ip, lsl lr
    622c:	04070000 	streq	r0, [r7], #-0
    6230:	0000006b 	andeq	r0, r0, fp, rrx
    6234:	00002504 	andeq	r2, r0, r4, lsl #10
    6238:	00009b00 	andeq	r9, r0, r0, lsl #22
    623c:	009b0500 	addseq	r0, fp, r0, lsl #10
    6240:	07000000 	streq	r0, [r0, -r0]
    6244:	0000a804 	andeq	sl, r0, r4, lsl #16
    6248:	08010300 	stmdaeq	r1, {r8, r9}
    624c:	00000096 	muleq	r0, r6, r0
    6250:	0000a108 	andeq	sl, r0, r8, lsl #2
    6254:	05a50600 	streq	r0, [r5, #1536]!	; 0x600
    6258:	21020000 	mrscs	r0, (UNDEF: 2)
    625c:	0000b90e 	andeq	fp, r0, lr, lsl #18
    6260:	8c040700 	stchi	7, cr0, [r4], {-0}
    6264:	09000000 	stmdbeq	r0, {}	; <UNPREDICTABLE>
    6268:	00000662 	andeq	r0, r0, r2, ror #12
    626c:	34070401 	strcc	r0, [r7], #-1025	; 0xfffffbff
    6270:	f8000001 			; <UNDEFINED> instruction: 0xf8000001
    6274:	2c00009c 	stccs	0, cr0, [r0], {156}	; 0x9c
    6278:	01000000 	mrseq	r0, (UNDEF: 0)
    627c:	0001349c 	muleq	r1, ip, r4
    6280:	0b240a00 	bleq	908a88 <__bss_end__+0x8fe508>
    6284:	04010000 	streq	r0, [r1], #-0
    6288:	00013415 	andeq	r3, r1, r5, lsl r4
    628c:	0b500100 	bleq	1406694 <__bss_end__+0x13fc114>
    6290:	00637273 	rsbeq	r7, r3, r3, ror r2
    6294:	9b270401 	blls	9c72a0 <__bss_end__+0x9bcd20>
    6298:	57000000 	strpl	r0, [r0, -r0]
    629c:	53000039 	movwpl	r0, #57	; 0x39
    62a0:	0c000039 	stceq	0, cr0, [r0], {57}	; 0x39
    62a4:	01003173 	tsteq	r0, r3, ror r1
    62a8:	01340b05 	teqeq	r4, r5, lsl #22
    62ac:	39860000 	stmibcc	r6, {}	; <UNPREDICTABLE>
    62b0:	39780000 	ldmdbcc	r8!, {}^	; <UNPREDICTABLE>
    62b4:	730c0000 	movwvc	r0, #49152	; 0xc000
    62b8:	06010032 			; <UNDEFINED> instruction: 0x06010032
    62bc:	00009b11 	andeq	r9, r0, r1, lsl fp
    62c0:	0039e500 	eorseq	lr, r9, r0, lsl #10
    62c4:	0039df00 	eorseq	sp, r9, r0, lsl #30
    62c8:	00630c00 	rsbeq	r0, r3, r0, lsl #24
    62cc:	a10a0701 	tstge	sl, r1, lsl #14
    62d0:	16000000 	strne	r0, [r0], -r0
    62d4:	1000003a 	andne	r0, r0, sl, lsr r0
    62d8:	0000003a 	andeq	r0, r0, sl, lsr r0
    62dc:	00a10407 	adceq	r0, r1, r7, lsl #8
    62e0:	f7000000 			; <UNDEFINED> instruction: 0xf7000000
    62e4:	04000000 	streq	r0, [r0], #-0
    62e8:	00181800 	andseq	r1, r8, r0, lsl #16
    62ec:	a7010400 	strge	r0, [r1, -r0, lsl #8]
    62f0:	0c000004 	stceq	0, cr0, [r0], {4}
    62f4:	00000b29 	andeq	r0, r0, r9, lsr #22
    62f8:	0000043b 	andeq	r0, r0, fp, lsr r4
    62fc:	00009d24 	andeq	r9, r0, r4, lsr #26
    6300:	00000044 	andeq	r0, r0, r4, asr #32
    6304:	00002ca4 	andeq	r2, r0, r4, lsr #25
    6308:	69050402 	stmdbvs	r5, {r1, sl}
    630c:	0300746e 	movweq	r7, #1134	; 0x46e
    6310:	01b00704 	lslseq	r0, r4, #14
    6314:	01030000 	mrseq	r0, (UNDEF: 3)
    6318:	00008f06 	andeq	r8, r0, r6, lsl #30
    631c:	05020300 	streq	r0, [r2, #-768]	; 0xfffffd00
    6320:	000001e7 	andeq	r0, r0, r7, ror #3
    6324:	d2050403 	andle	r0, r5, #50331648	; 0x3000000
    6328:	03000001 	movweq	r0, #1
    632c:	01cd0508 	biceq	r0, sp, r8, lsl #10
    6330:	01030000 	mrseq	r0, (UNDEF: 3)
    6334:	00008d08 	andeq	r8, r0, r8, lsl #26
    6338:	07020300 	streq	r0, [r2, -r0, lsl #6]
    633c:	000000a4 	andeq	r0, r0, r4, lsr #1
    6340:	ab070403 	blge	1c7354 <__bss_end__+0x1bcdd4>
    6344:	03000001 	movweq	r0, #1
    6348:	01a60708 			; <UNDEFINED> instruction: 0x01a60708
    634c:	25040000 	strcs	r0, [r4, #-0]
    6350:	7a000000 	bvc	6358 <__code_start__-0x1ca8>
    6354:	05000000 	streq	r0, [r0, #-0]
    6358:	00000025 	andeq	r0, r0, r5, lsr #32
    635c:	01db0600 	bicseq	r0, fp, r0, lsl #12
    6360:	1c020000 	stcne	0, cr0, [r2], {-0}
    6364:	0000860e 	andeq	r8, r0, lr, lsl #12
    6368:	6b040700 	blvs	107f70 <__bss_end__+0xfd9f0>
    636c:	04000000 	streq	r0, [r0], #-0
    6370:	00000025 	andeq	r0, r0, r5, lsr #32
    6374:	0000009b 	muleq	r0, fp, r0
    6378:	00009b05 	andeq	r9, r0, r5, lsl #22
    637c:	04070000 	streq	r0, [r7], #-0
    6380:	000000a8 	andeq	r0, r0, r8, lsr #1
    6384:	96080103 	strls	r0, [r8], -r3, lsl #2
    6388:	08000000 	stmdaeq	r0, {}	; <UNPREDICTABLE>
    638c:	000000a1 	andeq	r0, r0, r1, lsr #1
    6390:	0005a506 	andeq	sl, r5, r6, lsl #10
    6394:	0e210200 	cdpeq	2, 2, cr0, cr1, cr0, {0}
    6398:	000000b9 	strheq	r0, [r0], -r9
    639c:	008c0407 	addeq	r0, ip, r7, lsl #8
    63a0:	90090000 	andls	r0, r9, r0
    63a4:	01000006 	tsteq	r0, r6
    63a8:	00250503 	eoreq	r0, r5, r3, lsl #10
    63ac:	9d240000 	stcls	0, cr0, [r4, #-0]
    63b0:	00440000 	subeq	r0, r4, r0
    63b4:	9c010000 	stcls	0, cr0, [r1], {-0}
    63b8:	0100610a 	tsteq	r0, sl, lsl #2
    63bc:	009b1803 	addseq	r1, fp, r3, lsl #16
    63c0:	3a4d0000 	bcc	13463c8 <__bss_end__+0x133be48>
    63c4:	3a410000 	bcc	10463cc <__bss_end__+0x103be4c>
    63c8:	620a0000 	andvs	r0, sl, #0, 0
    63cc:	27030100 	strcs	r0, [r3, -r0, lsl #2]
    63d0:	0000009b 	muleq	r0, fp, r0
    63d4:	00003aa1 	andeq	r3, r0, r1, lsr #21
    63d8:	00003a9b 	muleq	r0, fp, sl
    63dc:	010f0000 	mrseq	r0, CPSR
    63e0:	00040000 	andeq	r0, r4, r0
    63e4:	000018a7 	andeq	r1, r0, r7, lsr #17
    63e8:	04a70104 	strteq	r0, [r7], #260	; 0x104
    63ec:	390c0000 	stmdbcc	ip, {}	; <UNPREDICTABLE>
    63f0:	3b00000b 	blcc	6424 <__code_start__-0x1bdc>
    63f4:	68000004 	stmdavs	r0, {r2}
    63f8:	1800009d 	stmdane	r0, {r0, r2, r3, r4, r7}
    63fc:	5a000000 	bpl	6404 <__code_start__-0x1bfc>
    6400:	0200002d 	andeq	r0, r0, #45, 0	; 0x2d
    6404:	6e690504 	cdpvs	5, 6, cr0, cr9, cr4, {0}
    6408:	04030074 	streq	r0, [r3], #-116	; 0xffffff8c
    640c:	0001b007 	andeq	fp, r1, r7
    6410:	06010300 	streq	r0, [r1], -r0, lsl #6
    6414:	0000008f 	andeq	r0, r0, pc, lsl #1
    6418:	e7050203 	str	r0, [r5, -r3, lsl #4]
    641c:	03000001 	movweq	r0, #1
    6420:	01d20504 	bicseq	r0, r2, r4, lsl #10
    6424:	08030000 	stmdaeq	r3, {}	; <UNPREDICTABLE>
    6428:	0001cd05 	andeq	ip, r1, r5, lsl #26
    642c:	08010300 	stmdaeq	r1, {r8, r9}
    6430:	0000008d 	andeq	r0, r0, sp, lsl #1
    6434:	a4070203 	strge	r0, [r7], #-515	; 0xfffffdfd
    6438:	03000000 	movweq	r0, #0
    643c:	01ab0704 			; <UNDEFINED> instruction: 0x01ab0704
    6440:	08030000 	stmdaeq	r3, {}	; <UNPREDICTABLE>
    6444:	0001a607 	andeq	sl, r1, r7, lsl #12
    6448:	00250400 	eoreq	r0, r5, r0, lsl #8
    644c:	007a0000 	rsbseq	r0, sl, r0
    6450:	25050000 	strcs	r0, [r5, #-0]
    6454:	00000000 	andeq	r0, r0, r0
    6458:	0001db06 	andeq	sp, r1, r6, lsl #22
    645c:	0e1c0200 	cdpeq	2, 1, cr0, cr12, cr0, {0}
    6460:	00000086 	andeq	r0, r0, r6, lsl #1
    6464:	006b0407 	rsbeq	r0, fp, r7, lsl #8
    6468:	25040000 	strcs	r0, [r4, #-0]
    646c:	9b000000 	blls	6474 <__code_start__-0x1b8c>
    6470:	05000000 	streq	r0, [r0, #-0]
    6474:	0000009b 	muleq	r0, fp, r0
    6478:	a8040700 	stmdage	r4, {r8, r9, sl}
    647c:	03000000 	movweq	r0, #0
    6480:	00960801 	addseq	r0, r6, r1, lsl #16
    6484:	a1080000 	mrsge	r0, (UNDEF: 8)
    6488:	06000000 	streq	r0, [r0], -r0
    648c:	000005a5 	andeq	r0, r0, r5, lsr #11
    6490:	b90e2102 	stmdblt	lr, {r1, r8, sp}
    6494:	07000000 	streq	r0, [r0, -r0]
    6498:	00008c04 	andeq	r8, r0, r4, lsl #24
    649c:	06690900 	strbteq	r0, [r9], -r0, lsl #18
    64a0:	03010000 	movweq	r0, #4096	; 0x1000
    64a4:	00010c07 	andeq	r0, r1, r7, lsl #24
    64a8:	009d6800 	addseq	r6, sp, r0, lsl #16
    64ac:	00001800 	andeq	r1, r0, r0, lsl #16
    64b0:	0c9c0100 	ldfeqs	f0, [ip], {0}
    64b4:	0a000001 	beq	64c0 <__code_start__-0x1b40>
    64b8:	01003173 	tsteq	r0, r3, ror r1
    64bc:	010c1503 	tsteq	ip, r3, lsl #10
    64c0:	50010000 	andpl	r0, r1, r0
    64c4:	0032730b 	eorseq	r7, r2, fp, lsl #6
    64c8:	9b260301 	blls	9870d4 <__bss_end__+0x97cb54>
    64cc:	d0000000 	andle	r0, r0, r0
    64d0:	ca00003a 	bgt	65c0 <__code_start__-0x1a40>
    64d4:	0c00003a 	stceq	0, cr0, [r0], {58}	; 0x3a
    64d8:	04010073 	streq	r0, [r1], #-115	; 0xffffff8d
    64dc:	00010c14 	andeq	r0, r1, r4, lsl ip
    64e0:	003afd00 	eorseq	pc, sl, r0, lsl #26
    64e4:	003afb00 	eorseq	pc, sl, r0, lsl #22
    64e8:	04070000 	streq	r0, [r7], #-0
    64ec:	000000a1 	andeq	r0, r0, r1, lsr #1
    64f0:	00014e00 	andeq	r4, r1, r0, lsl #28
    64f4:	5d000400 	cfstrspl	mvf0, [r0, #-0]
    64f8:	04000019 	streq	r0, [r0], #-25	; 0xffffffe7
    64fc:	0004a701 	andeq	sl, r4, r1, lsl #14
    6500:	0b490c00 	bleq	1249508 <__bss_end__+0x123ef88>
    6504:	043b0000 	ldrteq	r0, [fp], #-0
    6508:	9d800000 	stcls	0, cr0, [r0]
    650c:	00300000 	eorseq	r0, r0, r0
    6510:	2dfb0000 	ldclcs	0, cr0, [fp]
    6514:	04020000 	streq	r0, [r2], #-0
    6518:	746e6905 	strbtvc	r6, [lr], #-2309	; 0xfffff6fb
    651c:	04900300 	ldreq	r0, [r0], #768	; 0x300
    6520:	d1030000 	mrsle	r0, (UNDEF: 3)
    6524:	00003817 	andeq	r3, r0, r7, lsl r8
    6528:	07040400 	streq	r0, [r4, -r0, lsl #8]
    652c:	000001b0 			; <UNDEFINED> instruction: 0x000001b0
    6530:	8f060104 	svchi	0x00060104
    6534:	04000000 	streq	r0, [r0], #-0
    6538:	01e70502 	mvneq	r0, r2, lsl #10
    653c:	04040000 	streq	r0, [r4], #-0
    6540:	0001d205 	andeq	sp, r1, r5, lsl #4
    6544:	05080400 	streq	r0, [r8, #-1024]	; 0xfffffc00
    6548:	000001cd 	andeq	r0, r0, sp, asr #3
    654c:	8d080104 	stfhis	f0, [r8, #-16]
    6550:	05000000 	streq	r0, [r0, #-0]
    6554:	0000005b 	andeq	r0, r0, fp, asr r0
    6558:	a4070204 	strge	r0, [r7], #-516	; 0xfffffdfc
    655c:	04000000 	streq	r0, [r0], #-0
    6560:	01ab0704 			; <UNDEFINED> instruction: 0x01ab0704
    6564:	08040000 	stmdaeq	r4, {}	; <UNPREDICTABLE>
    6568:	0001a607 	andeq	sl, r1, r7, lsl #12
    656c:	00250600 	eoreq	r0, r5, r0, lsl #12
    6570:	008b0000 	addeq	r0, fp, r0
    6574:	25070000 	strcs	r0, [r7, #-0]
    6578:	00000000 	andeq	r0, r0, r0
    657c:	0001db08 	andeq	sp, r1, r8, lsl #22
    6580:	0e1c0200 	cdpeq	2, 1, cr0, cr12, cr0, {0}
    6584:	00000097 	muleq	r0, r7, r0
    6588:	007c0409 	rsbseq	r0, ip, r9, lsl #8
    658c:	25060000 	strcs	r0, [r6, #-0]
    6590:	ac000000 	stcge	0, cr0, [r0], {-0}
    6594:	07000000 	streq	r0, [r0, -r0]
    6598:	000000ac 	andeq	r0, r0, ip, lsr #1
    659c:	b9040900 	stmdblt	r4, {r8, fp}
    65a0:	04000000 	streq	r0, [r0], #-0
    65a4:	00960801 	addseq	r0, r6, r1, lsl #16
    65a8:	b2050000 	andlt	r0, r5, #0, 0
    65ac:	08000000 	stmdaeq	r0, {}	; <UNPREDICTABLE>
    65b0:	000005a5 	andeq	r0, r0, r5, lsr #11
    65b4:	ca0e2102 	bgt	38e9c4 <__bss_end__+0x384444>
    65b8:	09000000 	stmdbeq	r0, {}	; <UNPREDICTABLE>
    65bc:	00009d04 	andeq	r9, r0, r4, lsl #26
    65c0:	06c00a00 	strbeq	r0, [r0], r0, lsl #20
    65c4:	04010000 	streq	r0, [r1], #-0
    65c8:	00002505 	andeq	r2, r0, r5, lsl #10
    65cc:	009d8000 	addseq	r8, sp, r0
    65d0:	00003000 	andeq	r3, r0, r0
    65d4:	4b9c0100 	blmi	fe7069dc <__bss_end__+0xfe6fc45c>
    65d8:	0b000001 	bleq	65e4 <__code_start__-0x1a1c>
    65dc:	0031735f 	eorseq	r7, r1, pc, asr r3
    65e0:	ac190401 	cfldrsge	mvf0, [r9], {1}
    65e4:	14000000 	strne	r0, [r0], #-0
    65e8:	1000003b 	andne	r0, r0, fp, lsr r0
    65ec:	0b00003b 	bleq	66e0 <__code_start__-0x1920>
    65f0:	0032735f 	eorseq	r7, r2, pc, asr r3
    65f4:	ac2a0401 	cfstrsge	mvf0, [sl], #-4
    65f8:	39000000 	stmdbcc	r0, {}	; <UNPREDICTABLE>
    65fc:	3500003b 	strcc	r0, [r0, #-59]	; 0xffffffc5
    6600:	0b00003b 	bleq	66f4 <__code_start__-0x190c>
    6604:	0401006e 	streq	r0, [r1], #-110	; 0xffffff92
    6608:	00002c36 	andeq	r2, r0, r6, lsr ip
    660c:	003b6400 	eorseq	r6, fp, r0, lsl #8
    6610:	003b5a00 	eorseq	r5, fp, r0, lsl #20
    6614:	31730c00 	cmncc	r3, r0, lsl #24
    6618:	1a050100 	bne	146a20 <__bss_end__+0x13c4a0>
    661c:	0000014b 	andeq	r0, r0, fp, asr #2
    6620:	00003bbb 			; <UNDEFINED> instruction: 0x00003bbb
    6624:	00003bb3 			; <UNDEFINED> instruction: 0x00003bb3
    6628:	0032730c 	eorseq	r7, r2, ip, lsl #6
    662c:	4b2c0501 	blmi	b07a38 <__bss_end__+0xafd4b8>
    6630:	f9000001 			; <UNDEFINED> instruction: 0xf9000001
    6634:	f300003b 	vqadd.u8	d0, d0, d27
    6638:	0000003b 	andeq	r0, r0, fp, lsr r0
    663c:	00620409 	rsbeq	r0, r2, r9, lsl #8
    6640:	ce000000 	cdpgt	0, 0, cr0, cr0, cr0, {0}
    6644:	04000000 	streq	r0, [r0], #-0
    6648:	001a1100 	andseq	r1, sl, r0, lsl #2
    664c:	a7010400 	strge	r0, [r1, -r0, lsl #8]
    6650:	0c000004 	stceq	0, cr0, [r0], {4}
    6654:	00000b5a 	andeq	r0, r0, sl, asr fp
    6658:	0000043b 	andeq	r0, r0, fp, lsr r4
    665c:	00009db0 			; <UNDEFINED> instruction: 0x00009db0
    6660:	00000004 	andeq	r0, r0, r4
    6664:	00002efc 	strdeq	r2, [r0], -ip
    6668:	69050402 	stmdbvs	r5, {r1, sl}
    666c:	0300746e 	movweq	r7, #1134	; 0x46e
    6670:	01b00704 	lslseq	r0, r4, #14
    6674:	01030000 	mrseq	r0, (UNDEF: 3)
    6678:	00008f06 	andeq	r8, r0, r6, lsl #30
    667c:	05020300 	streq	r0, [r2, #-768]	; 0xfffffd00
    6680:	000001e7 	andeq	r0, r0, r7, ror #3
    6684:	d2050403 	andle	r0, r5, #50331648	; 0x3000000
    6688:	03000001 	movweq	r0, #1
    668c:	01cd0508 	biceq	r0, sp, r8, lsl #10
    6690:	01030000 	mrseq	r0, (UNDEF: 3)
    6694:	00008d08 	andeq	r8, r0, r8, lsl #26
    6698:	07020300 	streq	r0, [r2, -r0, lsl #6]
    669c:	000000a4 	andeq	r0, r0, r4, lsr #1
    66a0:	ab070403 	blge	1c76b4 <__bss_end__+0x1bd134>
    66a4:	03000001 	movweq	r0, #1
    66a8:	01a60708 			; <UNDEFINED> instruction: 0x01a60708
    66ac:	25040000 	strcs	r0, [r4, #-0]
    66b0:	7a000000 	bvc	66b8 <__code_start__-0x1948>
    66b4:	05000000 	streq	r0, [r0, #-0]
    66b8:	00000025 	andeq	r0, r0, r5, lsr #32
    66bc:	01db0600 	bicseq	r0, fp, r0, lsl #12
    66c0:	1c020000 	stcne	0, cr0, [r2], {-0}
    66c4:	0000860e 	andeq	r8, r0, lr, lsl #12
    66c8:	6b040700 	blvs	1082d0 <__bss_end__+0xfdd50>
    66cc:	04000000 	streq	r0, [r0], #-0
    66d0:	00000025 	andeq	r0, r0, r5, lsr #32
    66d4:	0000009b 	muleq	r0, fp, r0
    66d8:	00009b05 	andeq	r9, r0, r5, lsl #22
    66dc:	04070000 	streq	r0, [r7], #-0
    66e0:	000000a8 	andeq	r0, r0, r8, lsr #1
    66e4:	96080103 	strls	r0, [r8], -r3, lsl #2
    66e8:	08000000 	stmdaeq	r0, {}	; <UNPREDICTABLE>
    66ec:	000000a1 	andeq	r0, r0, r1, lsr #1
    66f0:	0005a506 	andeq	sl, r5, r6, lsl #10
    66f4:	0e210200 	cdpeq	2, 2, cr0, cr1, cr0, {0}
    66f8:	000000b9 	strheq	r0, [r0], -r9
    66fc:	008c0407 	addeq	r0, ip, r7, lsl #8
    6700:	85090000 	strhi	r0, [r9, #-0]
    6704:	01000007 	tsteq	r0, r7
    6708:	9db00603 	ldcls	6, cr0, [r0, #12]!
    670c:	00040000 	andeq	r0, r4, r0
    6710:	9c010000 	stcls	0, cr0, [r1], {-0}
	...

Disassembly of section .debug_abbrev:

00000000 <.debug_abbrev>:
       0:	25011101 	strcs	r1, [r1, #-257]	; 0xfffffeff
       4:	030b130e 	movweq	r1, #45838	; 0xb30e
       8:	110e1b0e 	tstne	lr, lr, lsl #22
       c:	10061201 	andne	r1, r6, r1, lsl #4
      10:	02000017 	andeq	r0, r0, #23, 0
      14:	0b0b0024 	bleq	2c00ac <__bss_end__+0x2b5b2c>
      18:	08030b3e 	stmdaeq	r3, {r1, r2, r3, r4, r5, r8, r9, fp}
      1c:	24030000 	strcs	r0, [r3], #-0
      20:	3e0b0b00 	vmlacc.f64	d0, d11, d0
      24:	000e030b 	andeq	r0, lr, fp, lsl #6
      28:	00350400 	eorseq	r0, r5, r0, lsl #8
      2c:	00001349 	andeq	r1, r0, r9, asr #6
      30:	49002605 	stmdbmi	r0, {r0, r2, r9, sl, sp}
      34:	06000013 			; <UNDEFINED> instruction: 0x06000013
      38:	19270115 	stmdbne	r7!, {r0, r2, r4, r8}
      3c:	13011349 	movwne	r1, #4937	; 0x1349
      40:	05070000 	streq	r0, [r7, #-0]
      44:	00134900 	andseq	r4, r3, r0, lsl #18
      48:	00340800 	eorseq	r0, r4, r0, lsl #16
      4c:	0b3a0e03 	bleq	e83860 <__bss_end__+0xe792e0>
      50:	0b390b3b 	bleq	e42d44 <__bss_end__+0xe387c4>
      54:	193f1349 	ldmdbne	pc!, {r0, r3, r6, r8, r9, ip}	; <UNPREDICTABLE>
      58:	0000193c 	andeq	r1, r0, ip, lsr r9
      5c:	0b000f09 	bleq	3c88 <__code_start__-0x4378>
      60:	0013490b 	andseq	r4, r3, fp, lsl #18
      64:	00340a00 	eorseq	r0, r4, r0, lsl #20
      68:	0b3a0e03 	bleq	e8387c <__bss_end__+0xe792fc>
      6c:	0b390b3b 	bleq	e42d60 <__bss_end__+0xe387e0>
      70:	061c1349 	ldreq	r1, [ip], -r9, asr #6
      74:	340b0000 	strcc	r0, [fp], #-0
      78:	3a0e0300 	bcc	380c80 <__bss_end__+0x376700>
      7c:	390b3b0b 	stmdbcc	fp, {r0, r1, r3, r8, r9, fp, ip, sp}
      80:	1c13490b 			; <UNDEFINED> instruction: 0x1c13490b
      84:	0c00000b 	stceq	0, cr0, [r0], {11}
      88:	0e030016 	mcreq	0, 0, r0, cr3, cr6, {0}
      8c:	0b3b0b3a 	bleq	ec2d7c <__bss_end__+0xeb87fc>
      90:	13490b39 	movtne	r0, #39737	; 0x9b39
      94:	130d0000 	movwne	r0, #53248	; 0xd000
      98:	3c0e0300 	stccc	3, cr0, [lr], {-0}
      9c:	0e000019 	mcreq	0, 0, r0, cr0, cr9, {0}
      a0:	0b3e0104 	bleq	f804b8 <__bss_end__+0xf75f38>
      a4:	13490b0b 	movtne	r0, #39691	; 0x9b0b
      a8:	0b3b0b3a 	bleq	ec2d98 <__bss_end__+0xeb8818>
      ac:	13010b39 	movwne	r0, #6969	; 0x1b39
      b0:	280f0000 	stmdacs	pc, {}	; <UNPREDICTABLE>
      b4:	1c0e0300 	stcne	3, cr0, [lr], {-0}
      b8:	1000000b 	andne	r0, r0, fp
      bc:	193f012e 	ldmdbne	pc!, {r1, r2, r3, r5, r8}	; <UNPREDICTABLE>
      c0:	0b3a0e03 	bleq	e838d4 <__bss_end__+0xe79354>
      c4:	0b390b3b 	bleq	e42db8 <__bss_end__+0xe38838>
      c8:	01111927 	tsteq	r1, r7, lsr #18
      cc:	18400612 	stmdane	r0, {r1, r4, r9, sl}^
      d0:	01194297 			; <UNDEFINED> instruction: 0x01194297
      d4:	11000013 	tstne	r0, r3, lsl r0
      d8:	08030034 	stmdaeq	r3, {r2, r4, r5}
      dc:	0b3b0b3a 	bleq	ec2dcc <__bss_end__+0xeb884c>
      e0:	13490b39 	movtne	r0, #39737	; 0x9b39
      e4:	42b71702 	adcsmi	r1, r7, #524288	; 0x80000
      e8:	12000017 	andne	r0, r0, #23, 0
      ec:	1755010b 	ldrbne	r0, [r5, -fp, lsl #2]
      f0:	00001301 	andeq	r1, r0, r1, lsl #6
      f4:	31011d13 	tstcc	r1, r3, lsl sp
      f8:	b8015213 	stmdalt	r1, {r0, r1, r4, r9, ip, lr}
      fc:	17550b42 	ldrbne	r0, [r5, -r2, asr #22]
     100:	0b590b58 	bleq	1642e68 <__bss_end__+0x16388e8>
     104:	13010b57 	movwne	r0, #6999	; 0x1b57
     108:	05140000 	ldreq	r0, [r4, #-0]
     10c:	02133100 	andseq	r3, r3, #0
     110:	1742b717 	smlaldne	fp, r2, r7, r7
     114:	89150000 	ldmdbhi	r5, {}	; <UNPREDICTABLE>
     118:	11010182 	smlabbne	r1, r2, r1, r0
     11c:	01133101 	tsteq	r3, r1, lsl #2
     120:	16000013 			; <UNDEFINED> instruction: 0x16000013
     124:	0001828a 	andeq	r8, r1, sl, lsl #5
     128:	42911802 	addsmi	r1, r1, #131072	; 0x20000
     12c:	17000018 	smladne	r0, r8, r0, r0
     130:	01018289 	smlabbeq	r1, r9, r2, r8
     134:	13310111 	teqne	r1, #1073741828	; 0x40000004
     138:	89180000 	ldmdbhi	r8, {}	; <UNPREDICTABLE>
     13c:	11000182 	smlabbne	r0, r2, r1, r0
     140:	00133101 	andseq	r3, r3, r1, lsl #2
     144:	82891900 	addhi	r1, r9, #0, 18
     148:	01110101 	tsteq	r1, r1, lsl #2
     14c:	31194295 			; <UNDEFINED> instruction: 0x31194295
     150:	1a000013 	bne	1a4 <__code_start__-0x7e5c>
     154:	193f012e 	ldmdbne	pc!, {r1, r2, r3, r5, r8}	; <UNPREDICTABLE>
     158:	0b3a0e03 	bleq	e8396c <__bss_end__+0xe793ec>
     15c:	0b390b3b 	bleq	e42e50 <__bss_end__+0xe388d0>
     160:	0b201927 	bleq	806604 <__bss_end__+0x7fc084>
     164:	00001301 	andeq	r1, r0, r1, lsl #6
     168:	0300051b 	movweq	r0, #1307	; 0x51b
     16c:	3b0b3a08 	blcc	2ce994 <__bss_end__+0x2c4414>
     170:	490b390b 	stmdbmi	fp, {r0, r1, r3, r8, fp, ip, sp}
     174:	1c000013 	stcne	0, cr0, [r0], {19}
     178:	1331012e 	teqne	r1, #-2147483637	; 0x8000000b
     17c:	06120111 			; <UNDEFINED> instruction: 0x06120111
     180:	42971840 	addsmi	r1, r7, #64, 16	; 0x400000
     184:	00130119 	andseq	r0, r3, r9, lsl r1
     188:	002e1d00 	eoreq	r1, lr, r0, lsl #26
     18c:	193c193f 	ldmdbne	ip!, {r0, r1, r2, r3, r4, r5, r8, fp, ip}
     190:	0e030e6e 	cdpeq	14, 0, cr0, cr3, cr14, {3}
     194:	0b3b0b3a 	bleq	ec2e84 <__bss_end__+0xeb8904>
     198:	00000b39 	andeq	r0, r0, r9, lsr fp
     19c:	01110100 	tsteq	r1, r0, lsl #2
     1a0:	0b130e25 	bleq	4c3a3c <__bss_end__+0x4b94bc>
     1a4:	0e1b0e03 	cdpeq	14, 1, cr0, cr11, cr3, {0}
     1a8:	06120111 			; <UNDEFINED> instruction: 0x06120111
     1ac:	00001710 	andeq	r1, r0, r0, lsl r7
     1b0:	0b002402 	bleq	91c0 <va_printk+0x3c0>
     1b4:	030b3e0b 	movweq	r3, #48651	; 0xbe0b
     1b8:	03000008 	movweq	r0, #8
     1bc:	0b0b0024 	bleq	2c0254 <__bss_end__+0x2b5cd4>
     1c0:	0e030b3e 	vmoveq.16	d3[0], r0
     1c4:	35040000 	strcc	r0, [r4, #-0]
     1c8:	00134900 	andseq	r4, r3, r0, lsl #18
     1cc:	00260500 	eoreq	r0, r6, r0, lsl #10
     1d0:	00001349 	andeq	r1, r0, r9, asr #6
     1d4:	03001606 	movweq	r1, #1542	; 0x606
     1d8:	3b0b3a0e 	blcc	2cea18 <__bss_end__+0x2c4498>
     1dc:	490b390b 	stmdbmi	fp, {r0, r1, r3, r8, fp, ip, sp}
     1e0:	07000013 	smladeq	r0, r3, r0, r0
     1e4:	19270115 	stmdbne	r7!, {r0, r2, r4, r8}
     1e8:	13011349 	movwne	r1, #4937	; 0x1349
     1ec:	05080000 	streq	r0, [r8, #-0]
     1f0:	00134900 	andseq	r4, r3, r0, lsl #18
     1f4:	00340900 	eorseq	r0, r4, r0, lsl #18
     1f8:	0b3a0e03 	bleq	e83a0c <__bss_end__+0xe7948c>
     1fc:	0b390b3b 	bleq	e42ef0 <__bss_end__+0xe38970>
     200:	193f1349 	ldmdbne	pc!, {r0, r3, r6, r8, r9, ip}	; <UNPREDICTABLE>
     204:	0000193c 	andeq	r1, r0, ip, lsr r9
     208:	0b000f0a 	bleq	3e38 <__code_start__-0x41c8>
     20c:	0013490b 	andseq	r4, r3, fp, lsl #18
     210:	01130b00 	tsteq	r3, r0, lsl #22
     214:	0b0b0e03 	bleq	2c3a28 <__bss_end__+0x2b94a8>
     218:	0b3b0b3a 	bleq	ec2f08 <__bss_end__+0xeb8988>
     21c:	13010b39 	movwne	r0, #6969	; 0x1b39
     220:	0d0c0000 	stceq	0, cr0, [ip, #-0]
     224:	3a080300 	bcc	200e2c <__bss_end__+0x1f68ac>
     228:	390b3b0b 	stmdbcc	fp, {r0, r1, r3, r8, r9, fp, ip, sp}
     22c:	3813490b 	ldmdacc	r3, {r0, r1, r3, r8, fp, lr}
     230:	0d00000b 	stceq	0, cr0, [r0, #-44]	; 0xffffffd4
     234:	0e03000d 	cdpeq	0, 0, cr0, cr3, cr13, {0}
     238:	0b3b0b3a 	bleq	ec2f28 <__bss_end__+0xeb89a8>
     23c:	13490b39 	movtne	r0, #39737	; 0x9b39
     240:	00000b38 	andeq	r0, r0, r8, lsr fp
     244:	3e01040e 	cdpcc	4, 0, cr0, cr1, cr14, {0}
     248:	490b0b0b 	stmdbmi	fp, {r0, r1, r3, r8, r9, fp}
     24c:	3b0b3a13 	blcc	2ceaa0 <__bss_end__+0x2c4520>
     250:	010b390b 	tsteq	fp, fp, lsl #18
     254:	0f000013 	svceq	0x00000013
     258:	08030028 	stmdaeq	r3, {r3, r5}
     25c:	0000051c 	andeq	r0, r0, ip, lsl r5
     260:	03002810 	movweq	r2, #2064	; 0x810
     264:	000b1c08 	andeq	r1, fp, r8, lsl #24
     268:	00281100 	eoreq	r1, r8, r0, lsl #2
     26c:	051c0e03 	ldreq	r0, [ip, #-3587]	; 0xfffff1fd
     270:	34120000 	ldrcc	r0, [r2], #-0
     274:	3a0e0300 	bcc	380e7c <__bss_end__+0x3768fc>
     278:	390b3b0b 	stmdbcc	fp, {r0, r1, r3, r8, r9, fp, ip, sp}
     27c:	0013490b 	andseq	r4, r3, fp, lsl #18
     280:	00341300 	eorseq	r1, r4, r0, lsl #6
     284:	0b3a0e03 	bleq	e83a98 <__bss_end__+0xe79518>
     288:	0b390b3b 	bleq	e42f7c <__bss_end__+0xe389fc>
     28c:	061c1349 	ldreq	r1, [ip], -r9, asr #6
     290:	34140000 	ldrcc	r0, [r4], #-0
     294:	3a0e0300 	bcc	380e9c <__bss_end__+0x37691c>
     298:	390b3b0b 	stmdbcc	fp, {r0, r1, r3, r8, r9, fp, ip, sp}
     29c:	1c13490b 			; <UNDEFINED> instruction: 0x1c13490b
     2a0:	1500000b 	strne	r0, [r0, #-11]
     2a4:	13490101 	movtne	r0, #37121	; 0x9101
     2a8:	00001301 	andeq	r1, r0, r1, lsl #6
     2ac:	49002116 	stmdbmi	r0, {r1, r2, r4, r8, sp}
     2b0:	17000013 	smladne	r0, r3, r0, r0
     2b4:	193f012e 	ldmdbne	pc!, {r1, r2, r3, r5, r8}	; <UNPREDICTABLE>
     2b8:	0b3a0e03 	bleq	e83acc <__bss_end__+0xe7954c>
     2bc:	0b390b3b 	bleq	e42fb0 <__bss_end__+0xe38a30>
     2c0:	01111927 	tsteq	r1, r7, lsr #18
     2c4:	18400612 	stmdane	r0, {r1, r4, r9, sl}^
     2c8:	01194297 			; <UNDEFINED> instruction: 0x01194297
     2cc:	18000013 	stmdane	r0, {r0, r1, r4}
     2d0:	08030005 	stmdaeq	r3, {r0, r2}
     2d4:	0b3b0b3a 	bleq	ec2fc4 <__bss_end__+0xeb8a44>
     2d8:	13490b39 	movtne	r0, #39737	; 0x9b39
     2dc:	00001802 	andeq	r1, r0, r2, lsl #16
     2e0:	03000519 	movweq	r0, #1305	; 0x519
     2e4:	3b0b3a08 	blcc	2ceb0c <__bss_end__+0x2c458c>
     2e8:	490b390b 	stmdbmi	fp, {r0, r1, r3, r8, fp, ip, sp}
     2ec:	b7170213 			; <UNDEFINED> instruction: 0xb7170213
     2f0:	00001742 	andeq	r1, r0, r2, asr #14
     2f4:	31011d1a 	tstcc	r1, sl, lsl sp
     2f8:	b8015213 	stmdalt	r1, {r0, r1, r4, r9, ip, lr}
     2fc:	17550542 	ldrbne	r0, [r5, -r2, asr #10]
     300:	0b590b58 	bleq	1643068 <__bss_end__+0x1638ae8>
     304:	00000b57 	andeq	r0, r0, r7, asr fp
     308:	3100051b 	tstcc	r0, fp, lsl r5
     30c:	b7170213 			; <UNDEFINED> instruction: 0xb7170213
     310:	00001742 	andeq	r1, r0, r2, asr #14
     314:	31010b1c 	tstcc	r1, ip, lsl fp
     318:	01175513 	tsteq	r7, r3, lsl r5
     31c:	1d000013 	stcne	0, cr0, [r0, #-76]	; 0xffffffb4
     320:	13310034 	teqne	r1, #52, 0	; 0x34
     324:	42b71702 	adcsmi	r1, r7, #524288	; 0x80000
     328:	1e000017 	mcrne	0, 0, r0, cr0, cr7, {0}
     32c:	13310005 	teqne	r1, #5, 0
     330:	1d1f0000 	ldcne	0, cr0, [pc, #-0]	; 338 <__code_start__-0x7cc8>
     334:	52133101 	andspl	r3, r3, #1073741824	; 0x40000000
     338:	0542b801 	strbeq	fp, [r2, #-2049]	; 0xfffff7ff
     33c:	0b581755 	bleq	1606098 <__bss_end__+0x15fbb18>
     340:	0b570b59 	bleq	15c30ac <__bss_end__+0x15b8b2c>
     344:	00001301 	andeq	r1, r0, r1, lsl #6
     348:	31010b20 	tstcc	r1, r0, lsr #22
     34c:	00175513 	andseq	r5, r7, r3, lsl r5
     350:	010b2100 	mrseq	r2, (UNDEF: 27)
     354:	00001755 	andeq	r1, r0, r5, asr r7
     358:	31010b22 	tstcc	r1, r2, lsr #22
     35c:	12011113 	andne	r1, r1, #-1073741820	; 0xc0000004
     360:	00130106 	andseq	r0, r3, r6, lsl #2
     364:	011d2300 	tsteq	sp, r0, lsl #6
     368:	01111331 	tsteq	r1, r1, lsr r3
     36c:	0b580612 	bleq	1601bbc <__bss_end__+0x15f763c>
     370:	0b570b59 	bleq	15c30dc <__bss_end__+0x15b8b5c>
     374:	0b240000 	bleq	90037c <__bss_end__+0x8f5dfc>
     378:	11133101 	tstne	r3, r1, lsl #2
     37c:	00061201 	andeq	r1, r6, r1, lsl #4
     380:	011d2500 	tsteq	sp, r0, lsl #10
     384:	01521331 	cmpeq	r2, r1, lsr r3
     388:	110542b8 			; <UNDEFINED> instruction: 0x110542b8
     38c:	58061201 	stmdapl	r6, {r0, r9, ip}
     390:	570b590b 	strpl	r5, [fp, -fp, lsl #18]
     394:	2600000b 	strcs	r0, [r0], -fp
     398:	1331011d 	teqne	r1, #1073741831	; 0x40000007
     39c:	42b80152 	adcsmi	r0, r8, #-2147483628	; 0x80000014
     3a0:	12011105 	andne	r1, r1, #1073741825	; 0x40000001
     3a4:	590b5806 	stmdbpl	fp, {r1, r2, fp, ip, lr}
     3a8:	010b570b 	tsteq	fp, fp, lsl #14
     3ac:	27000013 	smladcs	r0, r3, r0, r0
     3b0:	1331011d 	teqne	r1, #1073741831	; 0x40000007
     3b4:	0b581755 	bleq	1606110 <__bss_end__+0x15fbb90>
     3b8:	0b570b59 	bleq	15c3124 <__bss_end__+0x15b8ba4>
     3bc:	00001301 	andeq	r1, r0, r1, lsl #6
     3c0:	31003428 	tstcc	r0, r8, lsr #8
     3c4:	29000013 	stmdbcs	r0, {r0, r1, r4}
     3c8:	1331011d 	teqne	r1, #1073741831	; 0x40000007
     3cc:	0b581755 	bleq	1606128 <__bss_end__+0x15fbba8>
     3d0:	0b570b59 	bleq	15c313c <__bss_end__+0x15b8bbc>
     3d4:	892a0000 	stmdbhi	sl!, {}	; <UNPREDICTABLE>
     3d8:	11000182 	smlabbne	r0, r2, r1, r0
     3dc:	19429501 	stmdbne	r2, {r0, r8, sl, ip, pc}^
     3e0:	00001331 	andeq	r1, r0, r1, lsr r3
     3e4:	3f012e2b 	svccc	0x00012e2b
     3e8:	3a0e0319 	bcc	381054 <__bss_end__+0x376ad4>
     3ec:	390b3b0b 	stmdbcc	fp, {r0, r1, r3, r8, r9, fp, ip, sp}
     3f0:	2019270b 	andscs	r2, r9, fp, lsl #14
     3f4:	0013010b 	andseq	r0, r3, fp, lsl #2
     3f8:	00052c00 	andeq	r2, r5, r0, lsl #24
     3fc:	0b3a0803 	bleq	e82410 <__bss_end__+0xe77e90>
     400:	0b390b3b 	bleq	e430f4 <__bss_end__+0xe38b74>
     404:	00001349 	andeq	r1, r0, r9, asr #6
     408:	00010b2d 	andeq	r0, r1, sp, lsr #22
     40c:	00342e00 	eorseq	r2, r4, r0, lsl #28
     410:	0b3a0803 	bleq	e82424 <__bss_end__+0xe77ea4>
     414:	0b390b3b 	bleq	e43108 <__bss_end__+0xe38b88>
     418:	00001349 	andeq	r1, r0, r9, asr #6
     41c:	3f012e2f 	svccc	0x00012e2f
     420:	3a0e0319 	bcc	38108c <__bss_end__+0x376b0c>
     424:	390b3b0b 	stmdbcc	fp, {r0, r1, r3, r8, r9, fp, ip, sp}
     428:	4919270b 	ldmdbmi	r9, {r0, r1, r3, r8, r9, sl, sp}
     42c:	12011113 	andne	r1, r1, #-1073741820	; 0xc0000004
     430:	97184006 	ldrls	r4, [r8, -r6]
     434:	13011942 	movwne	r1, #6466	; 0x1942
     438:	05300000 	ldreq	r0, [r0, #-0]!
     43c:	3a0e0300 	bcc	381044 <__bss_end__+0x376ac4>
     440:	390b3b0b 	stmdbcc	fp, {r0, r1, r3, r8, r9, fp, ip, sp}
     444:	0213490b 	andseq	r4, r3, #180224	; 0x2c000
     448:	1742b717 	smlaldne	fp, r2, r7, r7
     44c:	34310000 	ldrtcc	r0, [r1], #-0
     450:	3a080300 	bcc	201058 <__bss_end__+0x1f6ad8>
     454:	390b3b0b 	stmdbcc	fp, {r0, r1, r3, r8, r9, fp, ip, sp}
     458:	0213490b 	andseq	r4, r3, #180224	; 0x2c000
     45c:	1742b717 	smlaldne	fp, r2, r7, r7
     460:	34320000 	ldrtcc	r0, [r2], #-0
     464:	3a0e0300 	bcc	38106c <__bss_end__+0x376aec>
     468:	390b3b0b 	stmdbcc	fp, {r0, r1, r3, r8, r9, fp, ip, sp}
     46c:	0213490b 	andseq	r4, r3, #180224	; 0x2c000
     470:	1742b717 	smlaldne	fp, r2, r7, r7
     474:	89330000 	ldmdbhi	r3!, {}	; <UNPREDICTABLE>
     478:	11010182 	smlabbne	r1, r2, r1, r0
     47c:	01133101 	tsteq	r3, r1, lsl #2
     480:	34000013 	strcc	r0, [r0], #-19	; 0xffffffed
     484:	0001828a 	andeq	r8, r1, sl, lsl #5
     488:	42911802 	addsmi	r1, r1, #131072	; 0x20000
     48c:	35000018 	strcc	r0, [r0, #-24]	; 0xffffffe8
     490:	01018289 	smlabbeq	r1, r9, r2, r8
     494:	13310111 	teqne	r1, #1073741828	; 0x40000004
     498:	0b360000 	bleq	d804a0 <__bss_end__+0xd75f20>
     49c:	01175501 	tsteq	r7, r1, lsl #10
     4a0:	37000013 	smladcc	r0, r3, r0, r0
     4a4:	0e03012e 	adfeqsp	f0, f3, #0.5
     4a8:	0b3b0b3a 	bleq	ec3198 <__bss_end__+0xeb8c18>
     4ac:	19270b39 	stmdbne	r7!, {r0, r3, r4, r5, r8, r9, fp}
     4b0:	13010b20 	movwne	r0, #6944	; 0x1b20
     4b4:	2e380000 	cdpcs	0, 3, cr0, cr8, cr0, {0}
     4b8:	3a080301 	bcc	2010c4 <__bss_end__+0x1f6b44>
     4bc:	390b3b0b 	stmdbcc	fp, {r0, r1, r3, r8, r9, fp, ip, sp}
     4c0:	2019270b 	andscs	r2, r9, fp, lsl #14
     4c4:	0013010b 	andseq	r0, r3, fp, lsl #2
     4c8:	00053900 	andeq	r3, r5, r0, lsl #18
     4cc:	0b3a0e03 	bleq	e83ce0 <__bss_end__+0xe79760>
     4d0:	0b390b3b 	bleq	e431c4 <__bss_end__+0xe38c44>
     4d4:	00001349 	andeq	r1, r0, r9, asr #6
     4d8:	31012e3a 	tstcc	r1, sl, lsr lr
     4dc:	12011113 	andne	r1, r1, #-1073741820	; 0xc0000004
     4e0:	97184006 	ldrls	r4, [r8, -r6]
     4e4:	13011942 	movwne	r1, #6466	; 0x1942
     4e8:	2e3b0000 	cdpcs	0, 3, cr0, cr11, cr0, {0}
     4ec:	3c193f00 	ldccc	15, cr3, [r9], {-0}
     4f0:	030e6e19 	movweq	r6, #60953	; 0xee19
     4f4:	3b0b3a0e 	blcc	2ced34 <__bss_end__+0x2c47b4>
     4f8:	000b390b 	andeq	r3, fp, fp, lsl #18
     4fc:	49010000 	stmdbmi	r1, {}	; <UNPREDICTABLE>
     500:	7e180200 	cdpvc	2, 1, cr0, cr8, cr0, {0}
     504:	02000018 	andeq	r0, r0, #24, 0
     508:	13310005 	teqne	r1, #5, 0
     50c:	42b71702 	adcsmi	r1, r7, #524288	; 0x80000
     510:	03000017 	movweq	r0, #23
     514:	0b0b0024 	bleq	2c05ac <__bss_end__+0x2b602c>
     518:	0e030b3e 	vmoveq.16	d3[0], r0
     51c:	34040000 	strcc	r0, [r4], #-0
     520:	00133100 	andseq	r3, r3, r0, lsl #2
     524:	00340500 	eorseq	r0, r4, r0, lsl #10
     528:	17021331 	smladxne	r2, r1, r3, r1
     52c:	001742b7 			; <UNDEFINED> instruction: 0x001742b7
     530:	00280600 	eoreq	r0, r8, r0, lsl #12
     534:	0b1c0e03 	bleq	703d48 <__bss_end__+0x6f97c8>
     538:	48070000 	stmdami	r7, {}	; <UNPREDICTABLE>
     53c:	82017d01 	andhi	r7, r1, #64	; 0x40
     540:	137f1901 	cmnne	pc, #16384	; 0x4000
     544:	05080000 	streq	r0, [r8, #-0]
     548:	3a080300 	bcc	201150 <__bss_end__+0x1f6bd0>
     54c:	0b3b0121 	bleq	ec09d8 <__bss_end__+0xeb6458>
     550:	13490b39 	movtne	r0, #39737	; 0x9b39
     554:	42b71702 	adcsmi	r1, r7, #524288	; 0x80000
     558:	09000017 	stmdbeq	r0, {r0, r1, r2, r4}
     55c:	1331011d 	teqne	r1, #1073741831	; 0x40000007
     560:	42b80152 	adcsmi	r0, r8, #-2147483628	; 0x80000014
     564:	5817550b 	ldmdapl	r7, {r0, r1, r3, r8, sl, ip, lr}
     568:	0b590121 	bleq	16409f4 <__bss_end__+0x1636474>
     56c:	00000b57 	andeq	r0, r0, r7, asr fp
     570:	55010b0a 	strpl	r0, [r1, #-2826]	; 0xfffff4f6
     574:	0b000017 	bleq	5d8 <__code_start__-0x7a28>
     578:	13310005 	teqne	r1, #5, 0
     57c:	00000b1c 	andeq	r0, r0, ip, lsl fp
     580:	0300050c 	movweq	r0, #1292	; 0x50c
     584:	3b0b3a08 	blcc	2cedac <__bss_end__+0x2c482c>
     588:	490b390b 	stmdbmi	fp, {r0, r1, r3, r8, fp, ip, sp}
     58c:	0d000013 	stceq	0, cr0, [r0, #-76]	; 0xffffffb4
     590:	0e030034 	mcreq	0, 0, r0, cr3, cr4, {1}
     594:	3b01213a 	blcc	48a84 <__bss_end__+0x3e504>
     598:	1721390b 	strne	r3, [r1, -fp, lsl #18]!
     59c:	061c1349 	ldreq	r1, [ip], -r9, asr #6
     5a0:	050e0000 	streq	r0, [lr, #-0]
     5a4:	00134900 	andseq	r4, r3, r0, lsl #18
     5a8:	012e0f00 			; <UNDEFINED> instruction: 0x012e0f00
     5ac:	0e03193f 			; <UNDEFINED> instruction: 0x0e03193f
     5b0:	3b01213a 	blcc	48aa0 <__bss_end__+0x3e520>
     5b4:	0621390b 	strteq	r3, [r1], -fp, lsl #18
     5b8:	01111927 	tsteq	r1, r7, lsr #18
     5bc:	18400612 	stmdane	r0, {r1, r4, r9, sl}^
     5c0:	1301197a 	movwne	r1, #6522	; 0x197a
     5c4:	48100000 	ldmdami	r0, {}	; <UNPREDICTABLE>
     5c8:	7f017d01 	svcvc	0x00017d01
     5cc:	00130113 	andseq	r0, r3, r3, lsl r1
     5d0:	012e1100 			; <UNDEFINED> instruction: 0x012e1100
     5d4:	0e03193f 			; <UNDEFINED> instruction: 0x0e03193f
     5d8:	3b01213a 	blcc	48ac8 <__bss_end__+0x3e548>
     5dc:	270b390b 	strcs	r3, [fp, -fp, lsl #18]
     5e0:	010b2019 	tsteq	fp, r9, lsl r0
     5e4:	12000013 	andne	r0, r0, #19, 0
     5e8:	08030034 	stmdaeq	r3, {r2, r4, r5}
     5ec:	3b01213a 	blcc	48adc <__bss_end__+0x3e55c>
     5f0:	0e21390b 	vmuleq.f16	s6, s2, s22	; <UNPREDICTABLE>
     5f4:	00001349 	andeq	r1, r0, r9, asr #6
     5f8:	03001613 	movweq	r1, #1555	; 0x613
     5fc:	3b0b3a0e 	blcc	2cee3c <__bss_end__+0x2c48bc>
     600:	490b390b 	stmdbmi	fp, {r0, r1, r3, r8, fp, ip, sp}
     604:	14000013 	strne	r0, [r0], #-19	; 0xffffffed
     608:	1331012e 	teqne	r1, #-2147483637	; 0x8000000b
     60c:	06120111 			; <UNDEFINED> instruction: 0x06120111
     610:	197a1840 	ldmdbne	sl!, {r6, fp, ip}^
     614:	00001301 	andeq	r1, r0, r1, lsl #6
     618:	25011115 	strcs	r1, [r1, #-277]	; 0xfffffeeb
     61c:	030b130e 	movweq	r1, #45838	; 0xb30e
     620:	110e1b0e 	tstne	lr, lr, lsl #22
     624:	10061201 	andne	r1, r6, r1, lsl #4
     628:	16000017 			; <UNDEFINED> instruction: 0x16000017
     62c:	0b0b0024 	bleq	2c06c4 <__bss_end__+0x2b6144>
     630:	08030b3e 	stmdaeq	r3, {r1, r2, r3, r4, r5, r8, r9, fp}
     634:	26170000 	ldrcs	r0, [r7], -r0
     638:	00134900 	andseq	r4, r3, r0, lsl #18
     63c:	01041800 	tsteq	r4, r0, lsl #16
     640:	0b0b0b3e 	bleq	2c3340 <__bss_end__+0x2b8dc0>
     644:	0b3a1349 	bleq	e85370 <__bss_end__+0xe7adf0>
     648:	0b390b3b 	bleq	e4333c <__bss_end__+0xe38dbc>
     64c:	00001301 	andeq	r1, r0, r1, lsl #6
     650:	3f012e19 	svccc	0x00012e19
     654:	3a0e0319 	bcc	3812c0 <__bss_end__+0x376d40>
     658:	390b3b0b 	stmdbcc	fp, {r0, r1, r3, r8, r9, fp, ip, sp}
     65c:	3c19270b 	ldccc	7, cr2, [r9], {11}
     660:	00130119 	andseq	r0, r3, r9, lsl r1
     664:	012e1a00 			; <UNDEFINED> instruction: 0x012e1a00
     668:	0e03193f 			; <UNDEFINED> instruction: 0x0e03193f
     66c:	0b3b0b3a 	bleq	ec335c <__bss_end__+0xeb8ddc>
     670:	19270b39 	stmdbne	r7!, {r0, r3, r4, r5, r8, r9, fp}
     674:	193c1349 	ldmdbne	ip!, {r0, r3, r6, r8, r9, ip}
     678:	00001301 	andeq	r1, r0, r1, lsl #6
     67c:	3f012e1b 	svccc	0x00012e1b
     680:	3a0e0319 	bcc	3812ec <__bss_end__+0x376d6c>
     684:	390b3b0b 	stmdbcc	fp, {r0, r1, r3, r8, r9, fp, ip, sp}
     688:	4919270b 	ldmdbmi	r9, {r0, r1, r3, r8, r9, sl, sp}
     68c:	12011113 	andne	r1, r1, #-1073741820	; 0xc0000004
     690:	7a184006 	bvc	6106b0 <__bss_end__+0x606130>
     694:	00130119 	andseq	r0, r3, r9, lsl r1
     698:	00341c00 	eorseq	r1, r4, r0, lsl #24
     69c:	0b3a0e03 	bleq	e83eb0 <__bss_end__+0xe79930>
     6a0:	0b390b3b 	bleq	e43394 <__bss_end__+0xe38e14>
     6a4:	17021349 	strne	r1, [r2, -r9, asr #6]
     6a8:	001742b7 			; <UNDEFINED> instruction: 0x001742b7
     6ac:	00341d00 	eorseq	r1, r4, r0, lsl #26
     6b0:	0b3a0803 	bleq	e826c4 <__bss_end__+0xe78144>
     6b4:	0b390b3b 	bleq	e433a8 <__bss_end__+0xe38e28>
     6b8:	17021349 	strne	r1, [r2, -r9, asr #6]
     6bc:	001742b7 			; <UNDEFINED> instruction: 0x001742b7
     6c0:	01481e00 	cmpeq	r8, r0, lsl #28
     6c4:	137f017d 	cmnne	pc, #1073741855	; 0x4000001f
     6c8:	1d1f0000 	ldcne	0, cr0, [pc, #-0]	; 6d0 <__code_start__-0x7930>
     6cc:	52133101 	andspl	r3, r3, #1073741824	; 0x40000000
     6d0:	0b42b801 	bleq	10ae6dc <__bss_end__+0x10a415c>
     6d4:	0b581755 	bleq	1606430 <__bss_end__+0x15fbeb0>
     6d8:	0b570b59 	bleq	15c3444 <__bss_end__+0x15b8ec4>
     6dc:	00001301 	andeq	r1, r0, r1, lsl #6
     6e0:	31011d20 	tstcc	r1, r0, lsr #26
     6e4:	b8015213 	stmdalt	r1, {r0, r1, r4, r9, ip, lr}
     6e8:	01110b42 	tsteq	r1, r2, asr #22
     6ec:	0b580612 	bleq	1601f3c <__bss_end__+0x15f79bc>
     6f0:	0b570b59 	bleq	15c345c <__bss_end__+0x15b8edc>
     6f4:	05210000 	streq	r0, [r1, #-0]!
     6f8:	3a0e0300 	bcc	381300 <__bss_end__+0x376d80>
     6fc:	390b3b0b 	stmdbcc	fp, {r0, r1, r3, r8, r9, fp, ip, sp}
     700:	0013490b 	andseq	r4, r3, fp, lsl #18
     704:	012e2200 			; <UNDEFINED> instruction: 0x012e2200
     708:	0b3a0e03 	bleq	e83f1c <__bss_end__+0xe7999c>
     70c:	0b390b3b 	bleq	e43400 <__bss_end__+0xe38e80>
     710:	13491927 	movtne	r1, #39207	; 0x9927
     714:	13010b20 	movwne	r0, #6944	; 0x1b20
     718:	2e230000 	cdpcs	0, 2, cr0, cr3, cr0, {0}
     71c:	11133101 	tstne	r3, r1, lsl #2
     720:	40061201 	andmi	r1, r6, r1, lsl #4
     724:	00197a18 	andseq	r7, r9, r8, lsl sl
     728:	11010000 	mrsne	r0, (UNDEF: 1)
     72c:	130e2501 	movwne	r2, #58625	; 0xe501
     730:	1b0e030b 	blne	381364 <__bss_end__+0x376de4>
     734:	1201110e 	andne	r1, r1, #-2147483645	; 0x80000003
     738:	00171006 	andseq	r1, r7, r6
     73c:	00240200 	eoreq	r0, r4, r0, lsl #4
     740:	0b3e0b0b 	bleq	f83374 <__bss_end__+0xf78df4>
     744:	00000803 	andeq	r0, r0, r3, lsl #16
     748:	03001603 	movweq	r1, #1539	; 0x603
     74c:	3b0b3a0e 	blcc	2cef8c <__bss_end__+0x2c4a0c>
     750:	490b390b 	stmdbmi	fp, {r0, r1, r3, r8, fp, ip, sp}
     754:	04000013 	streq	r0, [r0], #-19	; 0xffffffed
     758:	0b0b0024 	bleq	2c07f0 <__bss_end__+0x2b6270>
     75c:	0e030b3e 	vmoveq.16	d3[0], r0
     760:	15050000 	strne	r0, [r5, #-0]
     764:	49192701 	ldmdbmi	r9, {r0, r8, r9, sl, sp}
     768:	00130113 	andseq	r0, r3, r3, lsl r1
     76c:	00050600 	andeq	r0, r5, r0, lsl #12
     770:	00001349 	andeq	r1, r0, r9, asr #6
     774:	03003407 	movweq	r3, #1031	; 0x407
     778:	3b0b3a0e 	blcc	2cefb8 <__bss_end__+0x2c4a38>
     77c:	490b390b 	stmdbmi	fp, {r0, r1, r3, r8, fp, ip, sp}
     780:	3c193f13 	ldccc	15, cr3, [r9], {19}
     784:	08000019 	stmdaeq	r0, {r0, r3, r4}
     788:	0b0b000f 	bleq	2c07cc <__bss_end__+0x2b624c>
     78c:	00001349 	andeq	r1, r0, r9, asr #6
     790:	49002609 	stmdbmi	r0, {r0, r3, r9, sl, sp}
     794:	0a000013 	beq	7e8 <__code_start__-0x7818>
     798:	193f012e 	ldmdbne	pc!, {r1, r2, r3, r5, r8}	; <UNPREDICTABLE>
     79c:	0b3a0e03 	bleq	e83fb0 <__bss_end__+0xe79a30>
     7a0:	0b390b3b 	bleq	e43494 <__bss_end__+0xe38f14>
     7a4:	13491927 	movtne	r1, #39207	; 0x9927
     7a8:	06120111 			; <UNDEFINED> instruction: 0x06120111
     7ac:	42971840 	addsmi	r1, r7, #64, 16	; 0x400000
     7b0:	00130119 	andseq	r0, r3, r9, lsl r1
     7b4:	00050b00 	andeq	r0, r5, r0, lsl #22
     7b8:	0b3a0803 	bleq	e827cc <__bss_end__+0xe7824c>
     7bc:	0b390b3b 	bleq	e434b0 <__bss_end__+0xe38f30>
     7c0:	18021349 	stmdane	r2, {r0, r3, r6, r8, r9, ip}
     7c4:	050c0000 	streq	r0, [ip, #-0]
     7c8:	3a080300 	bcc	2013d0 <__bss_end__+0x1f6e50>
     7cc:	390b3b0b 	stmdbcc	fp, {r0, r1, r3, r8, r9, fp, ip, sp}
     7d0:	0213490b 	andseq	r4, r3, #180224	; 0x2c000
     7d4:	1742b717 	smlaldne	fp, r2, r7, r7
     7d8:	340d0000 	strcc	r0, [sp], #-0
     7dc:	3a080300 	bcc	2013e4 <__bss_end__+0x1f6e64>
     7e0:	390b3b0b 	stmdbcc	fp, {r0, r1, r3, r8, r9, fp, ip, sp}
     7e4:	0213490b 	andseq	r4, r3, #180224	; 0x2c000
     7e8:	1742b717 	smlaldne	fp, r2, r7, r7
     7ec:	0f0e0000 	svceq	0x000e0000
     7f0:	000b0b00 	andeq	r0, fp, r0, lsl #22
     7f4:	11010000 	mrsne	r0, (UNDEF: 1)
     7f8:	130e2501 	movwne	r2, #58625	; 0xe501
     7fc:	1b0e030b 	blne	381430 <__bss_end__+0x376eb0>
     800:	1201110e 	andne	r1, r1, #-2147483645	; 0x80000003
     804:	00171006 	andseq	r1, r7, r6
     808:	00160200 	andseq	r0, r6, r0, lsl #4
     80c:	0b3a0e03 	bleq	e84020 <__bss_end__+0xe79aa0>
     810:	0b390b3b 	bleq	e43504 <__bss_end__+0xe38f84>
     814:	00001349 	andeq	r1, r0, r9, asr #6
     818:	03011303 	movweq	r1, #4867	; 0x1303
     81c:	3a0b0b0e 	bcc	2c345c <__bss_end__+0x2b8edc>
     820:	010b3b0b 	tsteq	fp, fp, lsl #22
     824:	04000013 	streq	r0, [r0], #-19	; 0xffffffed
     828:	0e03000d 	cdpeq	0, 0, cr0, cr3, cr13, {0}
     82c:	0b381349 	bleq	e05558 <__bss_end__+0xdfafd8>
     830:	00001934 	andeq	r1, r0, r4, lsr r9
     834:	0b000f05 	bleq	4450 <__code_start__-0x3bb0>
     838:	0600000b 	streq	r0, [r0], -fp
     83c:	0b0b0024 	bleq	2c08d4 <__bss_end__+0x2b6354>
     840:	08030b3e 	stmdaeq	r3, {r1, r2, r3, r4, r5, r8, r9, fp}
     844:	24070000 	strcs	r0, [r7], #-0
     848:	3e0b0b00 	vmlacc.f64	d0, d11, d0
     84c:	000e030b 	andeq	r0, lr, fp, lsl #6
     850:	01150800 	tsteq	r5, r0, lsl #16
     854:	13491927 	movtne	r1, #39207	; 0x9927
     858:	00001301 	andeq	r1, r0, r1, lsl #6
     85c:	49000509 	stmdbmi	r0, {r0, r3, r8, sl}
     860:	0a000013 	beq	8b4 <__code_start__-0x774c>
     864:	0e030034 	mcreq	0, 0, r0, cr3, cr4, {1}
     868:	0b3b0b3a 	bleq	ec3558 <__bss_end__+0xeb8fd8>
     86c:	13490b39 	movtne	r0, #39737	; 0x9b39
     870:	193c193f 	ldmdbne	ip!, {r0, r1, r2, r3, r4, r5, r8, fp, ip}
     874:	0f0b0000 	svceq	0x000b0000
     878:	490b0b00 	stmdbmi	fp, {r8, r9, fp}
     87c:	0c000013 	stceq	0, cr0, [r0], {19}
     880:	13490026 	movtne	r0, #36902	; 0x9026
     884:	2e0d0000 	cdpcs	0, 0, cr0, cr13, cr0, {0}
     888:	03193f01 	tsteq	r9, #1, 30
     88c:	3b0b3a0e 	blcc	2cf0cc <__bss_end__+0x2c4b4c>
     890:	270b390b 	strcs	r3, [fp, -fp, lsl #18]
     894:	11134919 	tstne	r3, r9, lsl r9
     898:	40061201 	andmi	r1, r6, r1, lsl #4
     89c:	19429718 	stmdbne	r2, {r3, r4, r8, r9, sl, ip, pc}^
     8a0:	00001301 	andeq	r1, r0, r1, lsl #6
     8a4:	0300050e 	movweq	r0, #1294	; 0x50e
     8a8:	3b0b3a08 	blcc	2cf0d0 <__bss_end__+0x2c4b50>
     8ac:	490b390b 	stmdbmi	fp, {r0, r1, r3, r8, fp, ip, sp}
     8b0:	00180213 	andseq	r0, r8, r3, lsl r2
     8b4:	00180f00 	andseq	r0, r8, r0, lsl #30
     8b8:	34100000 	ldrcc	r0, [r0], #-0
     8bc:	3a080300 	bcc	2014c4 <__bss_end__+0x1f6f44>
     8c0:	390b3b0b 	stmdbcc	fp, {r0, r1, r3, r8, r9, fp, ip, sp}
     8c4:	0213490b 	andseq	r4, r3, #180224	; 0x2c000
     8c8:	11000018 	tstne	r0, r8, lsl r0
     8cc:	0e030034 	mcreq	0, 0, r0, cr3, cr4, {1}
     8d0:	0b3b0b3a 	bleq	ec35c0 <__bss_end__+0xeb9040>
     8d4:	13490b39 	movtne	r0, #39737	; 0x9b39
     8d8:	00001802 	andeq	r1, r0, r2, lsl #16
     8dc:	03003412 	movweq	r3, #1042	; 0x412
     8e0:	3b0b3a08 	blcc	2cf108 <__bss_end__+0x2c4b88>
     8e4:	490b390b 	stmdbmi	fp, {r0, r1, r3, r8, fp, ip, sp}
     8e8:	b7170213 			; <UNDEFINED> instruction: 0xb7170213
     8ec:	00001742 	andeq	r1, r0, r2, asr #14
     8f0:	01828913 	orreq	r8, r2, r3, lsl r9
     8f4:	31011101 	tstcc	r1, r1, lsl #2
     8f8:	00130113 	andseq	r0, r3, r3, lsl r1
     8fc:	828a1400 	addhi	r1, sl, #0, 8
     900:	18020001 	stmdane	r2, {r0}
     904:	00184291 	mulseq	r8, r1, r2
     908:	82891500 	addhi	r1, r9, #0, 10
     90c:	01110101 	tsteq	r1, r1, lsl #2
     910:	01160000 	tsteq	r6, r0
     914:	01134901 	tsteq	r3, r1, lsl #18
     918:	17000013 	smladne	r0, r3, r0, r0
     91c:	13490021 	movtne	r0, #36897	; 0x9021
     920:	0000052f 	andeq	r0, r0, pc, lsr #10
     924:	3f002e18 	svccc	0x00002e18
     928:	6e193c19 	mrcvs	12, 0, r3, cr9, cr9, {0}
     92c:	3a0e030e 	bcc	38156c <__bss_end__+0x376fec>
     930:	390b3b0b 	stmdbcc	fp, {r0, r1, r3, r8, r9, fp, ip, sp}
     934:	0000000b 	andeq	r0, r0, fp
     938:	25011101 	strcs	r1, [r1, #-257]	; 0xfffffeff
     93c:	030b130e 	movweq	r1, #45838	; 0xb30e
     940:	110e1b0e 	tstne	lr, lr, lsl #22
     944:	10061201 	andne	r1, r6, r1, lsl #4
     948:	02000017 	andeq	r0, r0, #23, 0
     94c:	0b0b0024 	bleq	2c09e4 <__bss_end__+0x2b6464>
     950:	08030b3e 	stmdaeq	r3, {r1, r2, r3, r4, r5, r8, r9, fp}
     954:	24030000 	strcs	r0, [r3], #-0
     958:	3e0b0b00 	vmlacc.f64	d0, d11, d0
     95c:	000e030b 	andeq	r0, lr, fp, lsl #6
     960:	01150400 	tsteq	r5, r0, lsl #8
     964:	13491927 	movtne	r1, #39207	; 0x9927
     968:	00001301 	andeq	r1, r0, r1, lsl #6
     96c:	49000505 	stmdbmi	r0, {r0, r2, r8, sl}
     970:	06000013 			; <UNDEFINED> instruction: 0x06000013
     974:	0e030034 	mcreq	0, 0, r0, cr3, cr4, {1}
     978:	0b3b0b3a 	bleq	ec3668 <__bss_end__+0xeb90e8>
     97c:	13490b39 	movtne	r0, #39737	; 0x9b39
     980:	193c193f 	ldmdbne	ip!, {r0, r1, r2, r3, r4, r5, r8, fp, ip}
     984:	0f070000 	svceq	0x00070000
     988:	490b0b00 	stmdbmi	fp, {r8, r9, fp}
     98c:	08000013 	stmdaeq	r0, {r0, r1, r4}
     990:	13490026 	movtne	r0, #36902	; 0x9026
     994:	34090000 	strcc	r0, [r9], #-0
     998:	3a134700 	bcc	4d25a0 <__bss_end__+0x4c8020>
     99c:	390b3b0b 	stmdbcc	fp, {r0, r1, r3, r8, r9, fp, ip, sp}
     9a0:	0018020b 	andseq	r0, r8, fp, lsl #4
     9a4:	012e0a00 			; <UNDEFINED> instruction: 0x012e0a00
     9a8:	0e03193f 			; <UNDEFINED> instruction: 0x0e03193f
     9ac:	0b3b0b3a 	bleq	ec369c <__bss_end__+0xeb911c>
     9b0:	19270b39 	stmdbne	r7!, {r0, r3, r4, r5, r8, r9, fp}
     9b4:	01111349 	tsteq	r1, r9, asr #6
     9b8:	18400612 	stmdane	r0, {r1, r4, r9, sl}^
     9bc:	00194296 	mulseq	r9, r6, r2
     9c0:	00050b00 	andeq	r0, r5, r0, lsl #22
     9c4:	0b3a0803 	bleq	e829d8 <__bss_end__+0xe78458>
     9c8:	0b390b3b 	bleq	e436bc <__bss_end__+0xe3913c>
     9cc:	17021349 	strne	r1, [r2, -r9, asr #6]
     9d0:	001742b7 			; <UNDEFINED> instruction: 0x001742b7
     9d4:	11010000 	mrsne	r0, (UNDEF: 1)
     9d8:	130e2501 	movwne	r2, #58625	; 0xe501
     9dc:	1b0e030b 	blne	381610 <__bss_end__+0x377090>
     9e0:	1201110e 	andne	r1, r1, #-2147483645	; 0x80000003
     9e4:	00171006 	andseq	r1, r7, r6
     9e8:	00240200 	eoreq	r0, r4, r0, lsl #4
     9ec:	0b3e0b0b 	bleq	f83620 <__bss_end__+0xf790a0>
     9f0:	00000e03 	andeq	r0, r0, r3, lsl #28
     9f4:	0b002403 	bleq	9a08 <kmalloc_init+0x30>
     9f8:	030b3e0b 	movweq	r3, #48651	; 0xbe0b
     9fc:	04000008 	streq	r0, [r0], #-8
     a00:	0e030016 	mcreq	0, 0, r0, cr3, cr6, {0}
     a04:	0b3b0b3a 	bleq	ec36f4 <__bss_end__+0xeb9174>
     a08:	13490b39 	movtne	r0, #39737	; 0x9b39
     a0c:	15050000 	strne	r0, [r5, #-0]
     a10:	49192701 	ldmdbmi	r9, {r0, r8, r9, sl, sp}
     a14:	00130113 	andseq	r0, r3, r3, lsl r1
     a18:	00050600 	andeq	r0, r5, r0, lsl #12
     a1c:	00001349 	andeq	r1, r0, r9, asr #6
     a20:	03003407 	movweq	r3, #1031	; 0x407
     a24:	3b0b3a0e 	blcc	2cf264 <__bss_end__+0x2c4ce4>
     a28:	490b390b 	stmdbmi	fp, {r0, r1, r3, r8, fp, ip, sp}
     a2c:	3c193f13 	ldccc	15, cr3, [r9], {19}
     a30:	08000019 	stmdaeq	r0, {r0, r3, r4}
     a34:	0b0b000f 	bleq	2c0a78 <__bss_end__+0x2b64f8>
     a38:	00001349 	andeq	r1, r0, r9, asr #6
     a3c:	49002609 	stmdbmi	r0, {r0, r3, r9, sl, sp}
     a40:	0a000013 	beq	a94 <__code_start__-0x756c>
     a44:	0e030113 	mcreq	1, 0, r0, cr3, cr3, {0}
     a48:	0b3a0b0b 	bleq	e8367c <__bss_end__+0xe790fc>
     a4c:	13010b3b 	movwne	r0, #6971	; 0x1b3b
     a50:	0d0b0000 	stceq	0, cr0, [fp, #-0]
     a54:	490e0300 	stmdbmi	lr, {r8, r9}
     a58:	340b3813 	strcc	r3, [fp], #-2067	; 0xfffff7ed
     a5c:	0c000019 	stceq	0, cr0, [r0], {25}
     a60:	0b0b000f 	bleq	2c0aa4 <__bss_end__+0x2b6524>
     a64:	2e0d0000 	cdpcs	0, 0, cr0, cr13, cr0, {0}
     a68:	03193f01 	tsteq	r9, #1, 30
     a6c:	3b0b3a0e 	blcc	2cf2ac <__bss_end__+0x2c4d2c>
     a70:	270b390b 	strcs	r3, [fp, -fp, lsl #18]
     a74:	11134919 	tstne	r3, r9, lsl r9
     a78:	40061201 	andmi	r1, r6, r1, lsl #4
     a7c:	19429718 	stmdbne	r2, {r3, r4, r8, r9, sl, ip, pc}^
     a80:	00001301 	andeq	r1, r0, r1, lsl #6
     a84:	0300050e 	movweq	r0, #1294	; 0x50e
     a88:	3b0b3a08 	blcc	2cf2b0 <__bss_end__+0x2c4d30>
     a8c:	490b390b 	stmdbmi	fp, {r0, r1, r3, r8, fp, ip, sp}
     a90:	b7170213 			; <UNDEFINED> instruction: 0xb7170213
     a94:	00001742 	andeq	r1, r0, r2, asr #14
     a98:	0300050f 	movweq	r0, #1295	; 0x50f
     a9c:	3b0b3a0e 	blcc	2cf2dc <__bss_end__+0x2c4d5c>
     aa0:	490b390b 	stmdbmi	fp, {r0, r1, r3, r8, fp, ip, sp}
     aa4:	b7170213 			; <UNDEFINED> instruction: 0xb7170213
     aa8:	00001742 	andeq	r1, r0, r2, asr #14
     aac:	03003410 	movweq	r3, #1040	; 0x410
     ab0:	3b0b3a08 	blcc	2cf2d8 <__bss_end__+0x2c4d58>
     ab4:	490b390b 	stmdbmi	fp, {r0, r1, r3, r8, fp, ip, sp}
     ab8:	b7170213 			; <UNDEFINED> instruction: 0xb7170213
     abc:	00001742 	andeq	r1, r0, r2, asr #14
     ac0:	03003411 	movweq	r3, #1041	; 0x411
     ac4:	3b0b3a0e 	blcc	2cf304 <__bss_end__+0x2c4d84>
     ac8:	490b390b 	stmdbmi	fp, {r0, r1, r3, r8, fp, ip, sp}
     acc:	b7170213 			; <UNDEFINED> instruction: 0xb7170213
     ad0:	00001742 	andeq	r1, r0, r2, asr #14
     ad4:	03003412 	movweq	r3, #1042	; 0x412
     ad8:	3413490e 	ldrcc	r4, [r3], #-2318	; 0xfffff6f2
     adc:	00180219 	andseq	r0, r8, r9, lsl r2
     ae0:	010b1300 	mrseq	r1, (UNDEF: 59)
     ae4:	00001755 	andeq	r1, r0, r5, asr r7
     ae8:	03003414 	movweq	r3, #1044	; 0x414
     aec:	3b0b3a08 	blcc	2cf314 <__bss_end__+0x2c4d94>
     af0:	490b390b 	stmdbmi	fp, {r0, r1, r3, r8, fp, ip, sp}
     af4:	00180213 	andseq	r0, r8, r3, lsl r2
     af8:	00341500 	eorseq	r1, r4, r0, lsl #10
     afc:	0b3a0e03 	bleq	e84310 <__bss_end__+0xe79d90>
     b00:	0b390b3b 	bleq	e437f4 <__bss_end__+0xe39274>
     b04:	18021349 	stmdane	r2, {r0, r3, r6, r8, r9, ip}
     b08:	0b160000 	bleq	580b10 <__bss_end__+0x576590>
     b0c:	01175501 	tsteq	r7, r1, lsl #10
     b10:	17000013 	smladne	r0, r3, r0, r0
     b14:	01018289 	smlabbeq	r1, r9, r2, r8
     b18:	13310111 	teqne	r1, #1073741828	; 0x40000004
     b1c:	00001301 	andeq	r1, r0, r1, lsl #6
     b20:	01828a18 	orreq	r8, r2, r8, lsl sl
     b24:	91180200 	tstls	r8, r0, lsl #4
     b28:	00001842 	andeq	r1, r0, r2, asr #16
     b2c:	01828919 	orreq	r8, r2, r9, lsl r9
     b30:	31011100 	mrscc	r1, (UNDEF: 17)
     b34:	1a000013 	bne	b88 <__code_start__-0x7478>
     b38:	1331011d 	teqne	r1, #1073741831	; 0x40000007
     b3c:	42b80152 	adcsmi	r0, r8, #-2147483628	; 0x80000014
     b40:	58175505 	ldmdapl	r7, {r0, r2, r8, sl, ip, lr}
     b44:	570b590b 	strpl	r5, [fp, -fp, lsl #18]
     b48:	0013010b 	andseq	r0, r3, fp, lsl #2
     b4c:	00051b00 	andeq	r1, r5, r0, lsl #22
     b50:	17021331 	smladxne	r2, r1, r3, r1
     b54:	001742b7 			; <UNDEFINED> instruction: 0x001742b7
     b58:	00051c00 	andeq	r1, r5, r0, lsl #24
     b5c:	00001331 	andeq	r1, r0, r1, lsr r3
     b60:	3100341d 	tstcc	r0, sp, lsl r4
     b64:	00180213 	andseq	r0, r8, r3, lsl r2
     b68:	00341e00 	eorseq	r1, r4, r0, lsl #28
     b6c:	17021331 	smladxne	r2, r1, r3, r1
     b70:	001742b7 			; <UNDEFINED> instruction: 0x001742b7
     b74:	00341f00 	eorseq	r1, r4, r0, lsl #30
     b78:	00001331 	andeq	r1, r0, r1, lsr r3
     b7c:	31011d20 	tstcc	r1, r0, lsr #26
     b80:	b8015213 	stmdalt	r1, {r0, r1, r4, r9, ip, lr}
     b84:	17550542 	ldrbne	r0, [r5, -r2, asr #10]
     b88:	0b590b58 	bleq	16438f0 <__bss_end__+0x1639370>
     b8c:	00000b57 	andeq	r0, r0, r7, asr fp
     b90:	01828921 	orreq	r8, r2, r1, lsr #18
     b94:	01011101 	tsteq	r1, r1, lsl #2
     b98:	22000013 	andcs	r0, r0, #19, 0
     b9c:	13490101 	movtne	r0, #37121	; 0x9101
     ba0:	00001301 	andeq	r1, r0, r1, lsl #6
     ba4:	49002123 	stmdbmi	r0, {r0, r1, r5, r8, sp}
     ba8:	000b2f13 	andeq	r2, fp, r3, lsl pc
     bac:	012e2400 			; <UNDEFINED> instruction: 0x012e2400
     bb0:	0b3a0e03 	bleq	e843c4 <__bss_end__+0xe79e44>
     bb4:	0b390b3b 	bleq	e438a8 <__bss_end__+0xe39328>
     bb8:	13491927 	movtne	r1, #39207	; 0x9927
     bbc:	13010b20 	movwne	r0, #6944	; 0x1b20
     bc0:	05250000 	streq	r0, [r5, #-0]!
     bc4:	3a0e0300 	bcc	3817cc <__bss_end__+0x37724c>
     bc8:	390b3b0b 	stmdbcc	fp, {r0, r1, r3, r8, r9, fp, ip, sp}
     bcc:	0013490b 	andseq	r4, r3, fp, lsl #18
     bd0:	00052600 	andeq	r2, r5, r0, lsl #12
     bd4:	0b3a0803 	bleq	e82be8 <__bss_end__+0xe78668>
     bd8:	0b390b3b 	bleq	e438cc <__bss_end__+0xe3934c>
     bdc:	00001349 	andeq	r1, r0, r9, asr #6
     be0:	03003427 	movweq	r3, #1063	; 0x427
     be4:	3b0b3a08 	blcc	2cf40c <__bss_end__+0x2c4e8c>
     be8:	490b390b 	stmdbmi	fp, {r0, r1, r3, r8, fp, ip, sp}
     bec:	28000013 	stmdacs	r0, {r0, r1, r4}
     bf0:	0000010b 	andeq	r0, r0, fp, lsl #2
     bf4:	03003429 	movweq	r3, #1065	; 0x429
     bf8:	3b0b3a0e 	blcc	2cf438 <__bss_end__+0x2c4eb8>
     bfc:	490b390b 	stmdbmi	fp, {r0, r1, r3, r8, fp, ip, sp}
     c00:	2a000013 	bcs	c54 <__code_start__-0x73ac>
     c04:	0803012e 	stmdaeq	r3, {r1, r2, r3, r5, r8}
     c08:	0b3b0b3a 	bleq	ec38f8 <__bss_end__+0xeb9378>
     c0c:	19270b39 	stmdbne	r7!, {r0, r3, r4, r5, r8, r9, fp}
     c10:	0b201349 	bleq	80593c <__bss_end__+0x7fb3bc>
     c14:	00001301 	andeq	r1, r0, r1, lsl #6
     c18:	3f012e2b 	svccc	0x00012e2b
     c1c:	3a0e0319 	bcc	381888 <__bss_end__+0x377308>
     c20:	390b3b0b 	stmdbcc	fp, {r0, r1, r3, r8, r9, fp, ip, sp}
     c24:	1119270b 	tstne	r9, fp, lsl #14
     c28:	40061201 	andmi	r1, r6, r1, lsl #4
     c2c:	19429718 	stmdbne	r2, {r3, r4, r8, r9, sl, ip, pc}^
     c30:	00001301 	andeq	r1, r0, r1, lsl #6
     c34:	31012e2c 	tstcc	r1, ip, lsr #28
     c38:	12011113 	andne	r1, r1, #-1073741820	; 0xc0000004
     c3c:	97184006 	ldrls	r4, [r8, -r6]
     c40:	13011942 	movwne	r1, #6466	; 0x1942
     c44:	052d0000 	streq	r0, [sp, #-0]!
     c48:	02133100 	andseq	r3, r3, #0
     c4c:	2e000018 	mcrcs	0, 0, r0, cr0, cr8, {0}
     c50:	13310005 	teqne	r1, #5, 0
     c54:	00000b1c 	andeq	r0, r0, ip, lsl fp
     c58:	31010b2f 	tstcc	r1, pc, lsr #22
     c5c:	12011113 	andne	r1, r1, #-1073741820	; 0xc0000004
     c60:	00130106 	andseq	r0, r3, r6, lsl #2
     c64:	002e3000 	eoreq	r3, lr, r0
     c68:	193c193f 	ldmdbne	ip!, {r0, r1, r2, r3, r4, r5, r8, fp, ip}
     c6c:	0e030e6e 	cdpeq	14, 0, cr0, cr3, cr14, {3}
     c70:	0b3b0b3a 	bleq	ec3960 <__bss_end__+0xeb93e0>
     c74:	00000b39 	andeq	r0, r0, r9, lsr fp
     c78:	01110100 	tsteq	r1, r0, lsl #2
     c7c:	0b130e25 	bleq	4c4518 <__bss_end__+0x4b9f98>
     c80:	0e1b0e03 	cdpeq	14, 1, cr0, cr11, cr3, {0}
     c84:	01111755 	tsteq	r1, r5, asr r7
     c88:	00001710 	andeq	r1, r0, r0, lsl r7
     c8c:	0b002402 	bleq	9c9c <kfree_pop+0x40>
     c90:	030b3e0b 	movweq	r3, #48651	; 0xbe0b
     c94:	03000008 	movweq	r0, #8
     c98:	0b0b0024 	bleq	2c0d30 <__bss_end__+0x2b67b0>
     c9c:	0e030b3e 	vmoveq.16	d3[0], r0
     ca0:	15040000 	strne	r0, [r4, #-0]
     ca4:	49192701 	ldmdbmi	r9, {r0, r8, r9, sl, sp}
     ca8:	00130113 	andseq	r0, r3, r3, lsl r1
     cac:	00050500 	andeq	r0, r5, r0, lsl #10
     cb0:	00001349 	andeq	r1, r0, r9, asr #6
     cb4:	03003406 	movweq	r3, #1030	; 0x406
     cb8:	3b0b3a0e 	blcc	2cf4f8 <__bss_end__+0x2c4f78>
     cbc:	490b390b 	stmdbmi	fp, {r0, r1, r3, r8, fp, ip, sp}
     cc0:	3c193f13 	ldccc	15, cr3, [r9], {19}
     cc4:	07000019 	smladeq	r0, r9, r0, r0
     cc8:	0b0b000f 	bleq	2c0d0c <__bss_end__+0x2b678c>
     ccc:	00001349 	andeq	r1, r0, r9, asr #6
     cd0:	49002608 	stmdbmi	r0, {r3, r9, sl, sp}
     cd4:	09000013 	stmdbeq	r0, {r0, r1, r4}
     cd8:	193f012e 	ldmdbne	pc!, {r1, r2, r3, r5, r8}	; <UNPREDICTABLE>
     cdc:	0b3a0e03 	bleq	e844f0 <__bss_end__+0xe79f70>
     ce0:	0b390b3b 	bleq	e439d4 <__bss_end__+0xe39454>
     ce4:	01111927 	tsteq	r1, r7, lsr #18
     ce8:	18400612 	stmdane	r0, {r1, r4, r9, sl}^
     cec:	01194297 			; <UNDEFINED> instruction: 0x01194297
     cf0:	0a000013 	beq	d44 <__code_start__-0x72bc>
     cf4:	08030034 	stmdaeq	r3, {r2, r4, r5}
     cf8:	0b3b0b3a 	bleq	ec39e8 <__bss_end__+0xeb9468>
     cfc:	13490b39 	movtne	r0, #39737	; 0x9b39
     d00:	42b71702 	adcsmi	r1, r7, #524288	; 0x80000
     d04:	0b000017 	bleq	d68 <__code_start__-0x7298>
     d08:	193f012e 	ldmdbne	pc!, {r1, r2, r3, r5, r8}	; <UNPREDICTABLE>
     d0c:	0b3a0e03 	bleq	e84520 <__bss_end__+0xe79fa0>
     d10:	0b390b3b 	bleq	e43a04 <__bss_end__+0xe39484>
     d14:	01111927 	tsteq	r1, r7, lsr #18
     d18:	18400612 	stmdane	r0, {r1, r4, r9, sl}^
     d1c:	00194297 	mulseq	r9, r7, r2
     d20:	11010000 	mrsne	r0, (UNDEF: 1)
     d24:	130e2501 	movwne	r2, #58625	; 0xe501
     d28:	1b0e030b 	blne	38195c <__bss_end__+0x3773dc>
     d2c:	1201110e 	andne	r1, r1, #-2147483645	; 0x80000003
     d30:	00171006 	andseq	r1, r7, r6
     d34:	00240200 	eoreq	r0, r4, r0, lsl #4
     d38:	0b3e0b0b 	bleq	f8396c <__bss_end__+0xf793ec>
     d3c:	00000803 	andeq	r0, r0, r3, lsl #16
     d40:	0b002403 	bleq	9d54 <strcmp+0x30>
     d44:	030b3e0b 	movweq	r3, #48651	; 0xbe0b
     d48:	0400000e 	streq	r0, [r0], #-14
     d4c:	19270115 	stmdbne	r7!, {r0, r2, r4, r8}
     d50:	13011349 	movwne	r1, #4937	; 0x1349
     d54:	05050000 	streq	r0, [r5, #-0]
     d58:	00134900 	andseq	r4, r3, r0, lsl #18
     d5c:	00340600 	eorseq	r0, r4, r0, lsl #12
     d60:	0b3a0e03 	bleq	e84574 <__bss_end__+0xe79ff4>
     d64:	0b390b3b 	bleq	e43a58 <__bss_end__+0xe394d8>
     d68:	193f1349 	ldmdbne	pc!, {r0, r3, r6, r8, r9, ip}	; <UNPREDICTABLE>
     d6c:	0000193c 	andeq	r1, r0, ip, lsr r9
     d70:	0b000f07 	bleq	4994 <__code_start__-0x366c>
     d74:	0013490b 	andseq	r4, r3, fp, lsl #18
     d78:	00260800 	eoreq	r0, r6, r0, lsl #16
     d7c:	00001349 	andeq	r1, r0, r9, asr #6
     d80:	3f012e09 	svccc	0x00012e09
     d84:	3a0e0319 	bcc	3819f0 <__bss_end__+0x377470>
     d88:	390b3b0b 	stmdbcc	fp, {r0, r1, r3, r8, r9, fp, ip, sp}
     d8c:	8719270b 	ldrhi	r2, [r9, -fp, lsl #14]
     d90:	01111901 	tsteq	r1, r1, lsl #18
     d94:	18400612 	stmdane	r0, {r1, r4, r9, sl}^
     d98:	01194297 			; <UNDEFINED> instruction: 0x01194297
     d9c:	0a000013 	beq	df0 <__code_start__-0x7210>
     da0:	01018289 	smlabbeq	r1, r9, r2, r8
     da4:	13010111 	movwne	r0, #4369	; 0x1111
     da8:	8a0b0000 	bhi	2c0db0 <__bss_end__+0x2b6830>
     dac:	02000182 	andeq	r0, r0, #-2147483616	; 0x80000020
     db0:	18429118 	stmdane	r2, {r3, r4, r8, ip, pc}^
     db4:	890c0000 	stmdbhi	ip, {}	; <UNPREDICTABLE>
     db8:	11000182 	smlabbne	r0, r2, r1, r0
     dbc:	00133101 	andseq	r3, r3, r1, lsl #2
     dc0:	82890d00 	addhi	r0, r9, #0, 26
     dc4:	01110101 	tsteq	r1, r1, lsl #2
     dc8:	13011331 	movwne	r1, #4913	; 0x1331
     dcc:	2e0e0000 	cdpcs	0, 0, cr0, cr14, cr0, {0}
     dd0:	3c193f00 	ldccc	15, cr3, [r9], {-0}
     dd4:	030e6e19 	movweq	r6, #60953	; 0xee19
     dd8:	3b0b3a0e 	blcc	2cf618 <__bss_end__+0x2c5098>
     ddc:	000b390b 	andeq	r3, fp, fp, lsl #18
     de0:	11010000 	mrsne	r0, (UNDEF: 1)
     de4:	130e2501 	movwne	r2, #58625	; 0xe501
     de8:	1b0e030b 	blne	381a1c <__bss_end__+0x37749c>
     dec:	1201110e 	andne	r1, r1, #-2147483645	; 0x80000003
     df0:	00171006 	andseq	r1, r7, r6
     df4:	00240200 	eoreq	r0, r4, r0, lsl #4
     df8:	0b3e0b0b 	bleq	f83a2c <__bss_end__+0xf794ac>
     dfc:	00000803 	andeq	r0, r0, r3, lsl #16
     e00:	0b002403 	bleq	9e14 <__code_end__+0x48>
     e04:	030b3e0b 	movweq	r3, #48651	; 0xbe0b
     e08:	0400000e 	streq	r0, [r0], #-14
     e0c:	19270115 	stmdbne	r7!, {r0, r2, r4, r8}
     e10:	13011349 	movwne	r1, #4937	; 0x1349
     e14:	05050000 	streq	r0, [r5, #-0]
     e18:	00134900 	andseq	r4, r3, r0, lsl #18
     e1c:	00340600 	eorseq	r0, r4, r0, lsl #12
     e20:	0b3a0e03 	bleq	e84634 <__bss_end__+0xe7a0b4>
     e24:	0b390b3b 	bleq	e43b18 <__bss_end__+0xe39598>
     e28:	193f1349 	ldmdbne	pc!, {r0, r3, r6, r8, r9, ip}	; <UNPREDICTABLE>
     e2c:	0000193c 	andeq	r1, r0, ip, lsr r9
     e30:	0b000f07 	bleq	4a54 <__code_start__-0x35ac>
     e34:	0013490b 	andseq	r4, r3, fp, lsl #18
     e38:	00260800 	eoreq	r0, r6, r0, lsl #16
     e3c:	00001349 	andeq	r1, r0, r9, asr #6
     e40:	3f012e09 	svccc	0x00012e09
     e44:	3a0e0319 	bcc	381ab0 <__bss_end__+0x377530>
     e48:	390b3b0b 	stmdbcc	fp, {r0, r1, r3, r8, r9, fp, ip, sp}
     e4c:	1201110b 	andne	r1, r1, #-1073741822	; 0xc0000002
     e50:	97184006 	ldrls	r4, [r8, -r6]
     e54:	13011942 	movwne	r1, #6466	; 0x1942
     e58:	2e0a0000 	cdpcs	0, 0, cr0, cr10, cr0, {0}
     e5c:	03193f00 	tsteq	r9, #0, 30
     e60:	3b0b3a0e 	blcc	2cf6a0 <__bss_end__+0x2c5120>
     e64:	270b390b 	strcs	r3, [fp, -fp, lsl #18]
     e68:	00193c19 	andseq	r3, r9, r9, lsl ip
     e6c:	00340b00 	eorseq	r0, r4, r0, lsl #22
     e70:	0b3a0803 	bleq	e82e84 <__bss_end__+0xe78904>
     e74:	0b390b3b 	bleq	e43b68 <__bss_end__+0xe395e8>
     e78:	17021349 	strne	r1, [r2, -r9, asr #6]
     e7c:	001742b7 			; <UNDEFINED> instruction: 0x001742b7
     e80:	00340c00 	eorseq	r0, r4, r0, lsl #24
     e84:	0b3a0e03 	bleq	e84698 <__bss_end__+0xe7a118>
     e88:	0b390b3b 	bleq	e43b7c <__bss_end__+0xe395fc>
     e8c:	00001349 	andeq	r1, r0, r9, asr #6
     e90:	11010b0d 	tstne	r1, sp, lsl #22
     e94:	01061201 	tsteq	r6, r1, lsl #4
     e98:	0e000013 	mcreq	0, 0, r0, cr0, cr3, {0}
     e9c:	00018289 	andeq	r8, r1, r9, lsl #5
     ea0:	13310111 	teqne	r1, #1073741828	; 0x40000004
     ea4:	2e0f0000 	cdpcs	0, 0, cr0, cr15, cr0, {0}
     ea8:	3c193f00 	ldccc	15, cr3, [r9], {-0}
     eac:	030e6e19 	movweq	r6, #60953	; 0xee19
     eb0:	3b0b3a0e 	blcc	2cf6f0 <__bss_end__+0x2c5170>
     eb4:	000b3905 	andeq	r3, fp, r5, lsl #18
     eb8:	002e1000 	eoreq	r1, lr, r0
     ebc:	193c193f 	ldmdbne	ip!, {r0, r1, r2, r3, r4, r5, r8, fp, ip}
     ec0:	0e030e6e 	cdpeq	14, 0, cr0, cr3, cr14, {3}
     ec4:	0b3b0b3a 	bleq	ec3bb4 <__bss_end__+0xeb9634>
     ec8:	00000b39 	andeq	r0, r0, r9, lsr fp
     ecc:	01110100 	tsteq	r1, r0, lsl #2
     ed0:	0b130e25 	bleq	4c476c <__bss_end__+0x4ba1ec>
     ed4:	0e1b0e03 	cdpeq	14, 1, cr0, cr11, cr3, {0}
     ed8:	06120111 			; <UNDEFINED> instruction: 0x06120111
     edc:	00001710 	andeq	r1, r0, r0, lsl r7
     ee0:	0b002402 	bleq	9ef0 <__code_end__+0x124>
     ee4:	030b3e0b 	movweq	r3, #48651	; 0xbe0b
     ee8:	03000008 	movweq	r0, #8
     eec:	0b0b0024 	bleq	2c0f84 <__bss_end__+0x2b6a04>
     ef0:	0e030b3e 	vmoveq.16	d3[0], r0
     ef4:	15040000 	strne	r0, [r4, #-0]
     ef8:	49192701 	ldmdbmi	r9, {r0, r8, r9, sl, sp}
     efc:	00130113 	andseq	r0, r3, r3, lsl r1
     f00:	00050500 	andeq	r0, r5, r0, lsl #10
     f04:	00001349 	andeq	r1, r0, r9, asr #6
     f08:	03003406 	movweq	r3, #1030	; 0x406
     f0c:	3b0b3a0e 	blcc	2cf74c <__bss_end__+0x2c51cc>
     f10:	490b390b 	stmdbmi	fp, {r0, r1, r3, r8, fp, ip, sp}
     f14:	3c193f13 	ldccc	15, cr3, [r9], {19}
     f18:	07000019 	smladeq	r0, r9, r0, r0
     f1c:	0b0b000f 	bleq	2c0f60 <__bss_end__+0x2b69e0>
     f20:	00001349 	andeq	r1, r0, r9, asr #6
     f24:	49002608 	stmdbmi	r0, {r3, r9, sl, sp}
     f28:	09000013 	stmdbeq	r0, {r0, r1, r4}
     f2c:	193f002e 	ldmdbne	pc!, {r1, r2, r3, r5}	; <UNPREDICTABLE>
     f30:	0b3a0e03 	bleq	e84744 <__bss_end__+0xe7a1c4>
     f34:	0b390b3b 	bleq	e43c28 <__bss_end__+0xe396a8>
     f38:	01111927 	tsteq	r1, r7, lsr #18
     f3c:	18400612 	stmdane	r0, {r1, r4, r9, sl}^
     f40:	00194297 	mulseq	r9, r7, r2
     f44:	11010000 	mrsne	r0, (UNDEF: 1)
     f48:	130e2501 	movwne	r2, #58625	; 0xe501
     f4c:	1b0e030b 	blne	381b80 <__bss_end__+0x377600>
     f50:	1117550e 	tstne	r7, lr, lsl #10
     f54:	00171001 	andseq	r1, r7, r1
     f58:	00240200 	eoreq	r0, r4, r0, lsl #4
     f5c:	0b3e0b0b 	bleq	f83b90 <__bss_end__+0xf79610>
     f60:	00000803 	andeq	r0, r0, r3, lsl #16
     f64:	49002603 	stmdbmi	r0, {r0, r1, r9, sl, sp}
     f68:	04000013 	streq	r0, [r0], #-19	; 0xffffffed
     f6c:	0b0b0024 	bleq	2c1004 <__bss_end__+0x2b6a84>
     f70:	0e030b3e 	vmoveq.16	d3[0], r0
     f74:	15050000 	strne	r0, [r5, #-0]
     f78:	49192701 	ldmdbmi	r9, {r0, r8, r9, sl, sp}
     f7c:	00130113 	andseq	r0, r3, r3, lsl r1
     f80:	00050600 	andeq	r0, r5, r0, lsl #12
     f84:	00001349 	andeq	r1, r0, r9, asr #6
     f88:	03003407 	movweq	r3, #1031	; 0x407
     f8c:	3b0b3a0e 	blcc	2cf7cc <__bss_end__+0x2c524c>
     f90:	490b390b 	stmdbmi	fp, {r0, r1, r3, r8, fp, ip, sp}
     f94:	3c193f13 	ldccc	15, cr3, [r9], {19}
     f98:	08000019 	stmdaeq	r0, {r0, r3, r4}
     f9c:	0b0b000f 	bleq	2c0fe0 <__bss_end__+0x2b6a60>
     fa0:	00001349 	andeq	r1, r0, r9, asr #6
     fa4:	03003409 	movweq	r3, #1033	; 0x409
     fa8:	3b0b3a0e 	blcc	2cf7e8 <__bss_end__+0x2c5268>
     fac:	490b390b 	stmdbmi	fp, {r0, r1, r3, r8, fp, ip, sp}
     fb0:	0a000013 	beq	1004 <__code_start__-0x6ffc>
     fb4:	193f012e 	ldmdbne	pc!, {r1, r2, r3, r5, r8}	; <UNPREDICTABLE>
     fb8:	0b3a0e03 	bleq	e847cc <__bss_end__+0xe7a24c>
     fbc:	0b390b3b 	bleq	e43cb0 <__bss_end__+0xe39730>
     fc0:	01871927 	orreq	r1, r7, r7, lsr #18
     fc4:	12011119 	andne	r1, r1, #1073741830	; 0x40000006
     fc8:	97184006 	ldrls	r4, [r8, -r6]
     fcc:	13011942 	movwne	r1, #6466	; 0x1942
     fd0:	340b0000 	strcc	r0, [fp], #-0
     fd4:	3a0e0300 	bcc	381bdc <__bss_end__+0x37765c>
     fd8:	390b3b0b 	stmdbcc	fp, {r0, r1, r3, r8, r9, fp, ip, sp}
     fdc:	1c13490b 			; <UNDEFINED> instruction: 0x1c13490b
     fe0:	0c000006 	stceq	0, cr0, [r0], {6}
     fe4:	0e030034 	mcreq	0, 0, r0, cr3, cr4, {1}
     fe8:	0b3b0b3a 	bleq	ec3cd8 <__bss_end__+0xeb9758>
     fec:	13490b39 	movtne	r0, #39737	; 0x9b39
     ff0:	00000b1c 	andeq	r0, r0, ip, lsl fp
     ff4:	31011d0d 	tstcc	r1, sp, lsl #26
     ff8:	b8015213 	stmdalt	r1, {r0, r1, r4, r9, ip, lr}
     ffc:	17550b42 	ldrbne	r0, [r5, -r2, asr #22]
    1000:	0b590b58 	bleq	1643d68 <__bss_end__+0x16397e8>
    1004:	13010b57 	movwne	r0, #6999	; 0x1b57
    1008:	0b0e0000 	bleq	381010 <__bss_end__+0x376a90>
    100c:	00175501 	andseq	r5, r7, r1, lsl #10
    1010:	00340f00 	eorseq	r0, r4, r0, lsl #30
    1014:	17021331 	smladxne	r2, r1, r3, r1
    1018:	001742b7 			; <UNDEFINED> instruction: 0x001742b7
    101c:	011d1000 	tsteq	sp, r0
    1020:	01521331 	cmpeq	r2, r1, lsr r3
    1024:	110b42b8 			; <UNDEFINED> instruction: 0x110b42b8
    1028:	58061201 	stmdapl	r6, {r0, r9, ip}
    102c:	570b590b 	strpl	r5, [fp, -fp, lsl #18]
    1030:	0013010b 	andseq	r0, r3, fp, lsl #2
    1034:	82891100 	addhi	r1, r9, #0
    1038:	01110001 	tsteq	r1, r1
    103c:	00001331 	andeq	r1, r0, r1, lsr r3
    1040:	01828912 	orreq	r8, r2, r2, lsl r9
    1044:	31011101 	tstcc	r1, r1, lsl #2
    1048:	00130113 	andseq	r0, r3, r3, lsl r1
    104c:	828a1300 	addhi	r1, sl, #0, 6
    1050:	18020001 	stmdane	r2, {r0}
    1054:	00184291 	mulseq	r8, r1, r2
    1058:	82891400 	addhi	r1, r9, #0, 8
    105c:	01110101 	tsteq	r1, r1, lsl #2
    1060:	00001331 	andeq	r1, r0, r1, lsr r3
    1064:	3f012e15 	svccc	0x00012e15
    1068:	3a0e0319 	bcc	381cd4 <__bss_end__+0x377754>
    106c:	390b3b0b 	stmdbcc	fp, {r0, r1, r3, r8, r9, fp, ip, sp}
    1070:	2019270b 	andscs	r2, r9, fp, lsl #14
    1074:	0013010b 	andseq	r0, r3, fp, lsl #2
    1078:	012e1600 			; <UNDEFINED> instruction: 0x012e1600
    107c:	0e03193f 			; <UNDEFINED> instruction: 0x0e03193f
    1080:	0b3b0b3a 	bleq	ec3d70 <__bss_end__+0xeb97f0>
    1084:	19270b39 	stmdbne	r7!, {r0, r3, r4, r5, r8, r9, fp}
    1088:	0b201349 	bleq	805db4 <__bss_end__+0x7fb834>
    108c:	00001301 	andeq	r1, r0, r1, lsl #6
    1090:	31012e17 	tstcc	r1, r7, lsl lr
    1094:	12011113 	andne	r1, r1, #-1073741820	; 0xc0000004
    1098:	97184006 	ldrls	r4, [r8, -r6]
    109c:	13011942 	movwne	r1, #6466	; 0x1942
    10a0:	2e180000 	cdpcs	0, 1, cr0, cr8, cr0, {0}
    10a4:	3c193f00 	ldccc	15, cr3, [r9], {-0}
    10a8:	030e6e19 	movweq	r6, #60953	; 0xee19
    10ac:	3b0b3a0e 	blcc	2cf8ec <__bss_end__+0x2c536c>
    10b0:	000b3905 	andeq	r3, fp, r5, lsl #18
    10b4:	002e1900 	eoreq	r1, lr, r0, lsl #18
    10b8:	193c193f 	ldmdbne	ip!, {r0, r1, r2, r3, r4, r5, r8, fp, ip}
    10bc:	0e030e6e 	cdpeq	14, 0, cr0, cr3, cr14, {3}
    10c0:	0b3b0b3a 	bleq	ec3db0 <__bss_end__+0xeb9830>
    10c4:	00000b39 	andeq	r0, r0, r9, lsr fp
    10c8:	01110100 	tsteq	r1, r0, lsl #2
    10cc:	0b130e25 	bleq	4c4968 <__bss_end__+0x4ba3e8>
    10d0:	0e1b0e03 	cdpeq	14, 1, cr0, cr11, cr3, {0}
    10d4:	06120111 			; <UNDEFINED> instruction: 0x06120111
    10d8:	00001710 	andeq	r1, r0, r0, lsl r7
    10dc:	0b002402 	bleq	a0ec <__FUNCTION__.4026+0x198>
    10e0:	030b3e0b 	movweq	r3, #48651	; 0xbe0b
    10e4:	03000008 	movweq	r0, #8
    10e8:	0b0b0024 	bleq	2c1180 <__bss_end__+0x2b6c00>
    10ec:	0e030b3e 	vmoveq.16	d3[0], r0
    10f0:	15040000 	strne	r0, [r4, #-0]
    10f4:	49192701 	ldmdbmi	r9, {r0, r8, r9, sl, sp}
    10f8:	00130113 	andseq	r0, r3, r3, lsl r1
    10fc:	00050500 	andeq	r0, r5, r0, lsl #10
    1100:	00001349 	andeq	r1, r0, r9, asr #6
    1104:	03003406 	movweq	r3, #1030	; 0x406
    1108:	3b0b3a0e 	blcc	2cf948 <__bss_end__+0x2c53c8>
    110c:	490b390b 	stmdbmi	fp, {r0, r1, r3, r8, fp, ip, sp}
    1110:	3c193f13 	ldccc	15, cr3, [r9], {19}
    1114:	07000019 	smladeq	r0, r9, r0, r0
    1118:	0b0b000f 	bleq	2c115c <__bss_end__+0x2b6bdc>
    111c:	00001349 	andeq	r1, r0, r9, asr #6
    1120:	49002608 	stmdbmi	r0, {r3, r9, sl, sp}
    1124:	09000013 	stmdbeq	r0, {r0, r1, r4}
    1128:	193f012e 	ldmdbne	pc!, {r1, r2, r3, r5, r8}	; <UNPREDICTABLE>
    112c:	0b3a0e03 	bleq	e84940 <__bss_end__+0xe7a3c0>
    1130:	0b390b3b 	bleq	e43e24 <__bss_end__+0xe398a4>
    1134:	01111927 	tsteq	r1, r7, lsr #18
    1138:	18400612 	stmdane	r0, {r1, r4, r9, sl}^
    113c:	01194297 			; <UNDEFINED> instruction: 0x01194297
    1140:	0a000013 	beq	1194 <__code_start__-0x6e6c>
    1144:	08030005 	stmdaeq	r3, {r0, r2}
    1148:	0b3b0b3a 	bleq	ec3e38 <__bss_end__+0xeb98b8>
    114c:	13490b39 	movtne	r0, #39737	; 0x9b39
    1150:	42b71702 	adcsmi	r1, r7, #524288	; 0x80000
    1154:	0b000017 	bleq	11b8 <__code_start__-0x6e48>
    1158:	1331011d 	teqne	r1, #1073741831	; 0x40000007
    115c:	42b80152 	adcsmi	r0, r8, #-2147483628	; 0x80000014
    1160:	5817550b 	ldmdapl	r7, {r0, r1, r3, r8, sl, ip, lr}
    1164:	570b590b 	strpl	r5, [fp, -fp, lsl #18]
    1168:	0c00000b 	stceq	0, cr0, [r0], {11}
    116c:	13310005 	teqne	r1, #5, 0
    1170:	42b71702 	adcsmi	r1, r7, #524288	; 0x80000
    1174:	0d000017 	stceq	0, cr0, [r0, #-92]	; 0xffffffa4
    1178:	1331011d 	teqne	r1, #1073741831	; 0x40000007
    117c:	42b80152 	adcsmi	r0, r8, #-2147483628	; 0x80000014
    1180:	1201110b 	andne	r1, r1, #-1073741822	; 0xc0000002
    1184:	590b5806 	stmdbpl	fp, {r1, r2, fp, ip, lr}
    1188:	000b570b 	andeq	r5, fp, fp, lsl #14
    118c:	00340e00 	eorseq	r0, r4, r0, lsl #28
    1190:	17021331 	smladxne	r2, r1, r3, r1
    1194:	001742b7 			; <UNDEFINED> instruction: 0x001742b7
    1198:	011d0f00 	tsteq	sp, r0, lsl #30
    119c:	01521331 	cmpeq	r2, r1, lsr r3
    11a0:	110b42b8 			; <UNDEFINED> instruction: 0x110b42b8
    11a4:	58061201 	stmdapl	r6, {r0, r9, ip}
    11a8:	570b590b 	strpl	r5, [fp, -fp, lsl #18]
    11ac:	0013010b 	andseq	r0, r3, fp, lsl #2
    11b0:	82891000 	addhi	r1, r9, #0, 0
    11b4:	01110101 	tsteq	r1, r1, lsl #2
    11b8:	00001331 	andeq	r1, r0, r1, lsr r3
    11bc:	01828a11 	orreq	r8, r2, r1, lsl sl
    11c0:	91180200 	tstls	r8, r0, lsl #4
    11c4:	00001842 	andeq	r1, r0, r2, asr #16
    11c8:	01828912 	orreq	r8, r2, r2, lsl r9
    11cc:	31011100 	mrscc	r1, (UNDEF: 17)
    11d0:	13000013 	movwne	r0, #19
    11d4:	1331010b 	teqne	r1, #-1073741822	; 0xc0000002
    11d8:	00001755 	andeq	r1, r0, r5, asr r7
    11dc:	31003414 	tstcc	r0, r4, lsl r4
    11e0:	15000013 	strne	r0, [r0, #-19]	; 0xffffffed
    11e4:	1755010b 	ldrbne	r0, [r5, -fp, lsl #2]
    11e8:	1d160000 	ldcne	0, cr0, [r6, #-0]
    11ec:	52133101 	andspl	r3, r3, #1073741824	; 0x40000000
    11f0:	0b42b801 	bleq	10af1fc <__bss_end__+0x10a4c7c>
    11f4:	0b581755 	bleq	1606f50 <__bss_end__+0x15fc9d0>
    11f8:	0b570b59 	bleq	15c3f64 <__bss_end__+0x15b99e4>
    11fc:	00001301 	andeq	r1, r0, r1, lsl #6
    1200:	3f012e17 	svccc	0x00012e17
    1204:	3a0e0319 	bcc	381e70 <__bss_end__+0x3778f0>
    1208:	390b3b0b 	stmdbcc	fp, {r0, r1, r3, r8, r9, fp, ip, sp}
    120c:	2019270b 	andscs	r2, r9, fp, lsl #14
    1210:	0013010b 	andseq	r0, r3, fp, lsl #2
    1214:	00051800 	andeq	r1, r5, r0, lsl #16
    1218:	0b3a0803 	bleq	e8322c <__bss_end__+0xe78cac>
    121c:	0b390b3b 	bleq	e43f10 <__bss_end__+0xe39990>
    1220:	00001349 	andeq	r1, r0, r9, asr #6
    1224:	03003419 	movweq	r3, #1049	; 0x419
    1228:	3b0b3a08 	blcc	2cfa50 <__bss_end__+0x2c54d0>
    122c:	490b390b 	stmdbmi	fp, {r0, r1, r3, r8, fp, ip, sp}
    1230:	1a000013 	bne	1284 <__code_start__-0x6d7c>
    1234:	0000010b 	andeq	r0, r0, fp, lsl #2
    1238:	3f012e1b 	svccc	0x00012e1b
    123c:	3a0e0319 	bcc	381ea8 <__bss_end__+0x377928>
    1240:	390b3b0b 	stmdbcc	fp, {r0, r1, r3, r8, r9, fp, ip, sp}
    1244:	4919270b 	ldmdbmi	r9, {r0, r1, r3, r8, r9, sl, sp}
    1248:	010b2013 	tsteq	fp, r3, lsl r0
    124c:	1c000013 	stcne	0, cr0, [r0], {19}
    1250:	193f002e 	ldmdbne	pc!, {r1, r2, r3, r5}	; <UNPREDICTABLE>
    1254:	0b3a0e03 	bleq	e84a68 <__bss_end__+0xe7a4e8>
    1258:	0b390b3b 	bleq	e43f4c <__bss_end__+0xe399cc>
    125c:	13491927 	movtne	r1, #39207	; 0x9927
    1260:	00000b20 	andeq	r0, r0, r0, lsr #22
    1264:	31012e1d 	tstcc	r1, sp, lsl lr
    1268:	12011113 	andne	r1, r1, #-1073741820	; 0xc0000004
    126c:	97184006 	ldrls	r4, [r8, -r6]
    1270:	13011942 	movwne	r1, #6466	; 0x1942
    1274:	891e0000 	ldmdbhi	lr, {}	; <UNPREDICTABLE>
    1278:	11010182 	smlabbne	r1, r2, r1, r0
    127c:	19429501 	stmdbne	r2, {r0, r8, sl, ip, pc}^
    1280:	00001331 	andeq	r1, r0, r1, lsr r3
    1284:	3f002e1f 	svccc	0x00002e1f
    1288:	6e193c19 	mrcvs	12, 0, r3, cr9, cr9, {0}
    128c:	3a0e030e 	bcc	381ecc <__bss_end__+0x37794c>
    1290:	390b3b0b 	stmdbcc	fp, {r0, r1, r3, r8, r9, fp, ip, sp}
    1294:	0000000b 	andeq	r0, r0, fp
    1298:	25011101 	strcs	r1, [r1, #-257]	; 0xfffffeff
    129c:	030b130e 	movweq	r1, #45838	; 0xb30e
    12a0:	110e1b0e 	tstne	lr, lr, lsl #22
    12a4:	10061201 	andne	r1, r6, r1, lsl #4
    12a8:	02000017 	andeq	r0, r0, #23, 0
    12ac:	0b0b0024 	bleq	2c1344 <__bss_end__+0x2b6dc4>
    12b0:	08030b3e 	stmdaeq	r3, {r1, r2, r3, r4, r5, r8, r9, fp}
    12b4:	24030000 	strcs	r0, [r3], #-0
    12b8:	3e0b0b00 	vmlacc.f64	d0, d11, d0
    12bc:	000e030b 	andeq	r0, lr, fp, lsl #6
    12c0:	00350400 	eorseq	r0, r5, r0, lsl #8
    12c4:	00001349 	andeq	r1, r0, r9, asr #6
    12c8:	03001605 	movweq	r1, #1541	; 0x605
    12cc:	3b0b3a0e 	blcc	2cfb0c <__bss_end__+0x2c558c>
    12d0:	490b390b 	stmdbmi	fp, {r0, r1, r3, r8, fp, ip, sp}
    12d4:	06000013 			; <UNDEFINED> instruction: 0x06000013
    12d8:	0b3e0104 	bleq	f816f0 <__bss_end__+0xf77170>
    12dc:	13490b0b 	movtne	r0, #39691	; 0x9b0b
    12e0:	0b3b0b3a 	bleq	ec3fd0 <__bss_end__+0xeb9a50>
    12e4:	13010b39 	movwne	r0, #6969	; 0x1b39
    12e8:	28070000 	stmdacs	r7, {}	; <UNPREDICTABLE>
    12ec:	1c0e0300 	stcne	3, cr0, [lr], {-0}
    12f0:	0800000b 	stmdaeq	r0, {r0, r1, r3}
    12f4:	0e030113 	mcreq	1, 0, r0, cr3, cr3, {0}
    12f8:	0b3a0b0b 	bleq	e83f2c <__bss_end__+0xe799ac>
    12fc:	0b390b3b 	bleq	e43ff0 <__bss_end__+0xe39a70>
    1300:	00001301 	andeq	r1, r0, r1, lsl #6
    1304:	03000d09 	movweq	r0, #3337	; 0xd09
    1308:	3b0b3a08 	blcc	2cfb30 <__bss_end__+0x2c55b0>
    130c:	490b390b 	stmdbmi	fp, {r0, r1, r3, r8, fp, ip, sp}
    1310:	000b3813 	andeq	r3, fp, r3, lsl r8
    1314:	000d0a00 	andeq	r0, sp, r0, lsl #20
    1318:	0b3a0e03 	bleq	e84b2c <__bss_end__+0xe7a5ac>
    131c:	0b390b3b 	bleq	e44010 <__bss_end__+0xe39a90>
    1320:	0b381349 	bleq	e0604c <__bss_end__+0xdfbacc>
    1324:	340b0000 	strcc	r0, [fp], #-0
    1328:	3a0e0300 	bcc	381f30 <__bss_end__+0x3779b0>
    132c:	390b3b0b 	stmdbcc	fp, {r0, r1, r3, r8, r9, fp, ip, sp}
    1330:	1c13490b 			; <UNDEFINED> instruction: 0x1c13490b
    1334:	0c000006 	stceq	0, cr0, [r0], {6}
    1338:	0b0b000f 	bleq	2c137c <__bss_end__+0x2b6dfc>
    133c:	00001349 	andeq	r1, r0, r9, asr #6
    1340:	4900260d 	stmdbmi	r0, {r0, r2, r3, r9, sl, sp}
    1344:	0e000013 	mcreq	0, 0, r0, cr0, cr3, {0}
    1348:	193f012e 	ldmdbne	pc!, {r1, r2, r3, r5, r8}	; <UNPREDICTABLE>
    134c:	0b3a0e03 	bleq	e84b60 <__bss_end__+0xe7a5e0>
    1350:	0b390b3b 	bleq	e44044 <__bss_end__+0xe39ac4>
    1354:	01111927 	tsteq	r1, r7, lsr #18
    1358:	18400612 	stmdane	r0, {r1, r4, r9, sl}^
    135c:	01194297 			; <UNDEFINED> instruction: 0x01194297
    1360:	0f000013 	svceq	0x00000013
    1364:	00018289 	andeq	r8, r1, r9, lsl #5
    1368:	13310111 	teqne	r1, #1073741828	; 0x40000004
    136c:	2e100000 	cdpcs	0, 1, cr0, cr0, cr0, {0}
    1370:	03193f01 	tsteq	r9, #1, 30
    1374:	3b0b3a0e 	blcc	2cfbb4 <__bss_end__+0x2c5634>
    1378:	270b390b 	strcs	r3, [fp, -fp, lsl #18]
    137c:	11134919 	tstne	r3, r9, lsl r9
    1380:	40061201 	andmi	r1, r6, r1, lsl #4
    1384:	19429718 	stmdbne	r2, {r3, r4, r8, r9, sl, ip, pc}^
    1388:	00001301 	andeq	r1, r0, r1, lsl #6
    138c:	01828911 	orreq	r8, r2, r1, lsl r9
    1390:	31011101 	tstcc	r1, r1, lsl #2
    1394:	12000013 	andne	r0, r0, #19, 0
    1398:	0001828a 	andeq	r8, r1, sl, lsl #5
    139c:	42911802 	addsmi	r1, r1, #131072	; 0x20000
    13a0:	13000018 	movwne	r0, #24
    13a4:	08030005 	stmdaeq	r3, {r0, r2}
    13a8:	0b3b0b3a 	bleq	ec4098 <__bss_end__+0xeb9b18>
    13ac:	13490b39 	movtne	r0, #39737	; 0x9b39
    13b0:	42b71702 	adcsmi	r1, r7, #524288	; 0x80000
    13b4:	14000017 	strne	r0, [r0], #-23	; 0xffffffe9
    13b8:	01018289 	smlabbeq	r1, r9, r2, r8
    13bc:	13310111 	teqne	r1, #1073741828	; 0x40000004
    13c0:	00001301 	andeq	r1, r0, r1, lsl #6
    13c4:	03003415 	movweq	r3, #1045	; 0x415
    13c8:	3b0b3a08 	blcc	2cfbf0 <__bss_end__+0x2c5670>
    13cc:	490b390b 	stmdbmi	fp, {r0, r1, r3, r8, fp, ip, sp}
    13d0:	b7170213 			; <UNDEFINED> instruction: 0xb7170213
    13d4:	00001742 	andeq	r1, r0, r2, asr #14
    13d8:	03003416 	movweq	r3, #1046	; 0x416
    13dc:	3b0b3a0e 	blcc	2cfc1c <__bss_end__+0x2c569c>
    13e0:	490b390b 	stmdbmi	fp, {r0, r1, r3, r8, fp, ip, sp}
    13e4:	00051c13 	andeq	r1, r5, r3, lsl ip
    13e8:	012e1700 			; <UNDEFINED> instruction: 0x012e1700
    13ec:	0b3a0e03 	bleq	e84c00 <__bss_end__+0xe7a680>
    13f0:	0b390b3b 	bleq	e440e4 <__bss_end__+0xe39b64>
    13f4:	01111927 	tsteq	r1, r7, lsr #18
    13f8:	18400612 	stmdane	r0, {r1, r4, r9, sl}^
    13fc:	01194297 			; <UNDEFINED> instruction: 0x01194297
    1400:	18000013 	stmdane	r0, {r0, r1, r4}
    1404:	0e030005 	cdpeq	0, 0, cr0, cr3, cr5, {0}
    1408:	0b3b0b3a 	bleq	ec40f8 <__bss_end__+0xeb9b78>
    140c:	13490b39 	movtne	r0, #39737	; 0x9b39
    1410:	42b71702 	adcsmi	r1, r7, #524288	; 0x80000
    1414:	19000017 	stmdbne	r0, {r0, r1, r2, r4}
    1418:	00000035 	andeq	r0, r0, r5, lsr r0
    141c:	3f002e1a 	svccc	0x00002e1a
    1420:	6e193c19 	mrcvs	12, 0, r3, cr9, cr9, {0}
    1424:	3a0e030e 	bcc	382064 <__bss_end__+0x377ae4>
    1428:	390b3b0b 	stmdbcc	fp, {r0, r1, r3, r8, r9, fp, ip, sp}
    142c:	0000000b 	andeq	r0, r0, fp
    1430:	25011101 	strcs	r1, [r1, #-257]	; 0xfffffeff
    1434:	030b130e 	movweq	r1, #45838	; 0xb30e
    1438:	110e1b0e 	tstne	lr, lr, lsl #22
    143c:	10061201 	andne	r1, r6, r1, lsl #4
    1440:	02000017 	andeq	r0, r0, #23, 0
    1444:	0b0b0024 	bleq	2c14dc <__bss_end__+0x2b6f5c>
    1448:	08030b3e 	stmdaeq	r3, {r1, r2, r3, r4, r5, r8, r9, fp}
    144c:	24030000 	strcs	r0, [r3], #-0
    1450:	3e0b0b00 	vmlacc.f64	d0, d11, d0
    1454:	000e030b 	andeq	r0, lr, fp, lsl #6
    1458:	00160400 	andseq	r0, r6, r0, lsl #8
    145c:	0b3a0e03 	bleq	e84c70 <__bss_end__+0xe7a6f0>
    1460:	0b390b3b 	bleq	e44154 <__bss_end__+0xe39bd4>
    1464:	00001349 	andeq	r1, r0, r9, asr #6
    1468:	49002605 	stmdbmi	r0, {r0, r2, r9, sl, sp}
    146c:	06000013 			; <UNDEFINED> instruction: 0x06000013
    1470:	0b0b000f 	bleq	2c14b4 <__bss_end__+0x2b6f34>
    1474:	04070000 	streq	r0, [r7], #-0
    1478:	0b0b3e01 	bleq	2d0c84 <__bss_end__+0x2c6704>
    147c:	3a13490b 	bcc	4d38b0 <__bss_end__+0x4c9330>
    1480:	390b3b0b 	stmdbcc	fp, {r0, r1, r3, r8, r9, fp, ip, sp}
    1484:	0013010b 	andseq	r0, r3, fp, lsl #2
    1488:	00280800 	eoreq	r0, r8, r0, lsl #16
    148c:	061c0e03 	ldreq	r0, [ip], -r3, lsl #28
    1490:	34090000 	strcc	r0, [r9], #-0
    1494:	3a0e0300 	bcc	38209c <__bss_end__+0x377b1c>
    1498:	390b3b0b 	stmdbcc	fp, {r0, r1, r3, r8, r9, fp, ip, sp}
    149c:	3f13490b 	svccc	0x0013490b
    14a0:	00193c19 	andseq	r3, r9, r9, lsl ip
    14a4:	00340a00 	eorseq	r0, r4, r0, lsl #20
    14a8:	0b3a0e03 	bleq	e84cbc <__bss_end__+0xe7a73c>
    14ac:	0b390b3b 	bleq	e441a0 <__bss_end__+0xe39c20>
    14b0:	18021349 	stmdane	r2, {r0, r3, r6, r8, r9, ip}
    14b4:	0f0b0000 	svceq	0x000b0000
    14b8:	490b0b00 	stmdbmi	fp, {r8, r9, fp}
    14bc:	0c000013 	stceq	0, cr0, [r0], {19}
    14c0:	193f012e 	ldmdbne	pc!, {r1, r2, r3, r5, r8}	; <UNPREDICTABLE>
    14c4:	0b3a0e03 	bleq	e84cd8 <__bss_end__+0xe7a758>
    14c8:	0b390b3b 	bleq	e441bc <__bss_end__+0xe39c3c>
    14cc:	01111927 	tsteq	r1, r7, lsr #18
    14d0:	18400612 	stmdane	r0, {r1, r4, r9, sl}^
    14d4:	01194297 			; <UNDEFINED> instruction: 0x01194297
    14d8:	0d000013 	stceq	0, cr0, [r0, #-76]	; 0xffffffb4
    14dc:	08030005 	stmdaeq	r3, {r0, r2}
    14e0:	0b3b0b3a 	bleq	ec41d0 <__bss_end__+0xeb9c50>
    14e4:	13490b39 	movtne	r0, #39737	; 0x9b39
    14e8:	42b71702 	adcsmi	r1, r7, #524288	; 0x80000
    14ec:	0e000017 	mcreq	0, 0, r0, cr0, cr7, {0}
    14f0:	0e030034 	mcreq	0, 0, r0, cr3, cr4, {1}
    14f4:	19341349 	ldmdbne	r4!, {r0, r3, r6, r8, r9, ip}
    14f8:	00001802 	andeq	r1, r0, r2, lsl #16
    14fc:	0182890f 	orreq	r8, r2, pc, lsl #18
    1500:	31011101 	tstcc	r1, r1, lsl #2
    1504:	00130113 	andseq	r0, r3, r3, lsl r1
    1508:	828a1000 	addhi	r1, sl, #0, 0
    150c:	18020001 	stmdane	r2, {r0}
    1510:	00184291 	mulseq	r8, r1, r2
    1514:	82891100 	addhi	r1, r9, #0
    1518:	01110001 	tsteq	r1, r1
    151c:	00001331 	andeq	r1, r0, r1, lsr r3
    1520:	49010112 	stmdbmi	r1, {r1, r4, r8}
    1524:	00130113 	andseq	r0, r3, r3, lsl r1
    1528:	00211300 	eoreq	r1, r1, r0, lsl #6
    152c:	0b2f1349 	bleq	bc6258 <__bss_end__+0xbbbcd8>
    1530:	2e140000 	cdpcs	0, 1, cr0, cr4, cr0, {0}
    1534:	03193f00 	tsteq	r9, #0, 30
    1538:	3b0b3a0e 	blcc	2cfd78 <__bss_end__+0x2c57f8>
    153c:	270b390b 	strcs	r3, [fp, -fp, lsl #18]
    1540:	12011119 	andne	r1, r1, #1073741830	; 0x40000006
    1544:	97184006 	ldrls	r4, [r8, -r6]
    1548:	00001942 	andeq	r1, r0, r2, asr #18
    154c:	03000515 	movweq	r0, #1301	; 0x515
    1550:	3b0b3a08 	blcc	2cfd78 <__bss_end__+0x2c57f8>
    1554:	490b390b 	stmdbmi	fp, {r0, r1, r3, r8, fp, ip, sp}
    1558:	00180213 	andseq	r0, r8, r3, lsl r2
    155c:	012e1600 			; <UNDEFINED> instruction: 0x012e1600
    1560:	0e03193f 			; <UNDEFINED> instruction: 0x0e03193f
    1564:	0b3b0b3a 	bleq	ec4254 <__bss_end__+0xeb9cd4>
    1568:	19270b39 	stmdbne	r7!, {r0, r3, r4, r5, r8, r9, fp}
    156c:	01111349 	tsteq	r1, r9, asr #6
    1570:	18400612 	stmdane	r0, {r1, r4, r9, sl}^
    1574:	01194297 			; <UNDEFINED> instruction: 0x01194297
    1578:	17000013 	smladne	r0, r3, r0, r0
    157c:	0e030005 	cdpeq	0, 0, cr0, cr3, cr5, {0}
    1580:	0b3b0b3a 	bleq	ec4270 <__bss_end__+0xeb9cf0>
    1584:	13490b39 	movtne	r0, #39737	; 0x9b39
    1588:	42b71702 	adcsmi	r1, r7, #524288	; 0x80000
    158c:	18000017 	stmdane	r0, {r0, r1, r2, r4}
    1590:	08030034 	stmdaeq	r3, {r2, r4, r5}
    1594:	0b3b0b3a 	bleq	ec4284 <__bss_end__+0xeb9d04>
    1598:	13490b39 	movtne	r0, #39737	; 0x9b39
    159c:	42b71702 	adcsmi	r1, r7, #524288	; 0x80000
    15a0:	19000017 	stmdbne	r0, {r0, r1, r2, r4}
    15a4:	1331011d 	teqne	r1, #1073741831	; 0x40000007
    15a8:	42b80152 	adcsmi	r0, r8, #-2147483628	; 0x80000014
    15ac:	1201110b 	andne	r1, r1, #-1073741822	; 0xc0000002
    15b0:	590b5806 	stmdbpl	fp, {r1, r2, fp, ip, lr}
    15b4:	010b570b 	tsteq	fp, fp, lsl #14
    15b8:	1a000013 	bne	160c <__code_start__-0x69f4>
    15bc:	13310005 	teqne	r1, #5, 0
    15c0:	42b71702 	adcsmi	r1, r7, #524288	; 0x80000
    15c4:	1b000017 	blne	1628 <__code_start__-0x69d8>
    15c8:	1331011d 	teqne	r1, #1073741831	; 0x40000007
    15cc:	42b80152 	adcsmi	r0, r8, #-2147483628	; 0x80000014
    15d0:	5817550b 	ldmdapl	r7, {r0, r1, r3, r8, sl, ip, lr}
    15d4:	570b590b 	strpl	r5, [fp, -fp, lsl #18]
    15d8:	0013010b 	andseq	r0, r3, fp, lsl #2
    15dc:	010b1c00 	tsteq	fp, r0, lsl #24
    15e0:	00001755 	andeq	r1, r0, r5, asr r7
    15e4:	0300341d 	movweq	r3, #1053	; 0x41d
    15e8:	3b0b3a0e 	blcc	2cfe28 <__bss_end__+0x2c58a8>
    15ec:	490b390b 	stmdbmi	fp, {r0, r1, r3, r8, fp, ip, sp}
    15f0:	b7170213 			; <UNDEFINED> instruction: 0xb7170213
    15f4:	00001742 	andeq	r1, r0, r2, asr #14
    15f8:	55000b1e 	strpl	r0, [r0, #-2846]	; 0xfffff4e2
    15fc:	1f000017 	svcne	0x00000017
    1600:	193f002e 	ldmdbne	pc!, {r1, r2, r3, r5}	; <UNPREDICTABLE>
    1604:	0b3a0e03 	bleq	e84e18 <__bss_end__+0xe7a898>
    1608:	0b390b3b 	bleq	e442fc <__bss_end__+0xe39d7c>
    160c:	13491927 	movtne	r1, #39207	; 0x9927
    1610:	06120111 			; <UNDEFINED> instruction: 0x06120111
    1614:	42971840 	addsmi	r1, r7, #64, 16	; 0x400000
    1618:	20000019 	andcs	r0, r0, r9, lsl r0
    161c:	0e03012e 	adfeqsp	f0, f3, #0.5
    1620:	0b3b0b3a 	bleq	ec4310 <__bss_end__+0xeb9d90>
    1624:	19270b39 	stmdbne	r7!, {r0, r3, r4, r5, r8, r9, fp}
    1628:	0b201349 	bleq	806354 <__bss_end__+0x7fbdd4>
    162c:	00001301 	andeq	r1, r0, r1, lsl #6
    1630:	03000521 	movweq	r0, #1313	; 0x521
    1634:	3b0b3a08 	blcc	2cfe5c <__bss_end__+0x2c58dc>
    1638:	490b390b 	stmdbmi	fp, {r0, r1, r3, r8, fp, ip, sp}
    163c:	22000013 	andcs	r0, r0, #19, 0
    1640:	193f002e 	ldmdbne	pc!, {r1, r2, r3, r5}	; <UNPREDICTABLE>
    1644:	0e6e193c 			; <UNDEFINED> instruction: 0x0e6e193c
    1648:	0b3a0e03 	bleq	e84e5c <__bss_end__+0xe7a8dc>
    164c:	0b390b3b 	bleq	e44340 <__bss_end__+0xe39dc0>
    1650:	01000000 	mrseq	r0, (UNDEF: 0)
    1654:	0e250111 	mcreq	1, 1, r0, cr5, cr1, {0}
    1658:	0e030b13 	vmoveq.32	d3[0], r0
    165c:	01110e1b 	tsteq	r1, fp, lsl lr
    1660:	17100612 			; <UNDEFINED> instruction: 0x17100612
    1664:	24020000 	strcs	r0, [r2], #-0
    1668:	3e0b0b00 	vmlacc.f64	d0, d11, d0
    166c:	0008030b 	andeq	r0, r8, fp, lsl #6
    1670:	00240300 	eoreq	r0, r4, r0, lsl #6
    1674:	0b3e0b0b 	bleq	f842a8 <__bss_end__+0xf79d28>
    1678:	00000e03 	andeq	r0, r0, r3, lsl #28
    167c:	27011504 	strcs	r1, [r1, -r4, lsl #10]
    1680:	01134919 	tsteq	r3, r9, lsl r9
    1684:	05000013 	streq	r0, [r0, #-19]	; 0xffffffed
    1688:	13490005 	movtne	r0, #36869	; 0x9005
    168c:	34060000 	strcc	r0, [r6], #-0
    1690:	3a0e0300 	bcc	382298 <__bss_end__+0x377d18>
    1694:	390b3b0b 	stmdbcc	fp, {r0, r1, r3, r8, r9, fp, ip, sp}
    1698:	3f13490b 	svccc	0x0013490b
    169c:	00193c19 	andseq	r3, r9, r9, lsl ip
    16a0:	000f0700 	andeq	r0, pc, r0, lsl #14
    16a4:	13490b0b 	movtne	r0, #39691	; 0x9b0b
    16a8:	26080000 	strcs	r0, [r8], -r0
    16ac:	00134900 	andseq	r4, r3, r0, lsl #18
    16b0:	00340900 	eorseq	r0, r4, r0, lsl #18
    16b4:	0b3a1347 	bleq	e863d8 <__bss_end__+0xe7be58>
    16b8:	0b390b3b 	bleq	e443ac <__bss_end__+0xe39e2c>
    16bc:	00001802 	andeq	r1, r0, r2, lsl #16
    16c0:	3f012e0a 	svccc	0x00012e0a
    16c4:	3a0e0319 	bcc	382330 <__bss_end__+0x377db0>
    16c8:	390b3b0b 	stmdbcc	fp, {r0, r1, r3, r8, r9, fp, ip, sp}
    16cc:	1119270b 	tstne	r9, fp, lsl #14
    16d0:	40061201 	andmi	r1, r6, r1, lsl #4
    16d4:	19429718 	stmdbne	r2, {r3, r4, r8, r9, sl, ip, pc}^
    16d8:	00001301 	andeq	r1, r0, r1, lsl #6
    16dc:	0300050b 	movweq	r0, #1291	; 0x50b
    16e0:	3b0b3a08 	blcc	2cff08 <__bss_end__+0x2c5988>
    16e4:	490b390b 	stmdbmi	fp, {r0, r1, r3, r8, fp, ip, sp}
    16e8:	00180213 	andseq	r0, r8, r3, lsl r2
    16ec:	002e0c00 	eoreq	r0, lr, r0, lsl #24
    16f0:	0e03193f 			; <UNDEFINED> instruction: 0x0e03193f
    16f4:	0b3b0b3a 	bleq	ec43e4 <__bss_end__+0xeb9e64>
    16f8:	19270b39 	stmdbne	r7!, {r0, r3, r4, r5, r8, r9, fp}
    16fc:	06120111 			; <UNDEFINED> instruction: 0x06120111
    1700:	42971840 	addsmi	r1, r7, #64, 16	; 0x400000
    1704:	0d000019 	stceq	0, cr0, [r0, #-100]	; 0xffffff9c
    1708:	0e03012e 	adfeqsp	f0, f3, #0.5
    170c:	0b3b0b3a 	bleq	ec43fc <__bss_end__+0xeb9e7c>
    1710:	19270b39 	stmdbne	r7!, {r0, r3, r4, r5, r8, r9, fp}
    1714:	01111349 	tsteq	r1, r9, asr #6
    1718:	18400612 	stmdane	r0, {r1, r4, r9, sl}^
    171c:	01194297 			; <UNDEFINED> instruction: 0x01194297
    1720:	0e000013 	mcreq	0, 0, r0, cr0, cr3, {0}
    1724:	08030005 	stmdaeq	r3, {r0, r2}
    1728:	0b3b0b3a 	bleq	ec4418 <__bss_end__+0xeb9e98>
    172c:	13490b39 	movtne	r0, #39737	; 0x9b39
    1730:	42b71702 	adcsmi	r1, r7, #524288	; 0x80000
    1734:	0f000017 	svceq	0x00000017
    1738:	01018289 	smlabbeq	r1, r9, r2, r8
    173c:	13310111 	teqne	r1, #1073741828	; 0x40000004
    1740:	8a100000 	bhi	401748 <__bss_end__+0x3f71c8>
    1744:	02000182 	andeq	r0, r0, #-2147483616	; 0x80000020
    1748:	18429118 	stmdane	r2, {r3, r4, r8, ip, pc}^
    174c:	2e110000 	cdpcs	0, 1, cr0, cr1, cr0, {0}
    1750:	3c193f00 	ldccc	15, cr3, [r9], {-0}
    1754:	030e6e19 	movweq	r6, #60953	; 0xee19
    1758:	3b0b3a0e 	blcc	2cff98 <__bss_end__+0x2c5a18>
    175c:	000b390b 	andeq	r3, fp, fp, lsl #18
    1760:	11010000 	mrsne	r0, (UNDEF: 1)
    1764:	130e2501 	movwne	r2, #58625	; 0xe501
    1768:	1b0e030b 	blne	38239c <__bss_end__+0x377e1c>
    176c:	1201110e 	andne	r1, r1, #-2147483645	; 0x80000003
    1770:	00171006 	andseq	r1, r7, r6
    1774:	00240200 	eoreq	r0, r4, r0, lsl #4
    1778:	0b3e0b0b 	bleq	f843ac <__bss_end__+0xf79e2c>
    177c:	00000803 	andeq	r0, r0, r3, lsl #16
    1780:	0b002403 	bleq	a794 <__bss_end__+0x214>
    1784:	030b3e0b 	movweq	r3, #48651	; 0xbe0b
    1788:	0400000e 	streq	r0, [r0], #-14
    178c:	19270115 	stmdbne	r7!, {r0, r2, r4, r8}
    1790:	13011349 	movwne	r1, #4937	; 0x1349
    1794:	05050000 	streq	r0, [r5, #-0]
    1798:	00134900 	andseq	r4, r3, r0, lsl #18
    179c:	00340600 	eorseq	r0, r4, r0, lsl #12
    17a0:	0b3a0e03 	bleq	e84fb4 <__bss_end__+0xe7aa34>
    17a4:	0b390b3b 	bleq	e44498 <__bss_end__+0xe39f18>
    17a8:	193f1349 	ldmdbne	pc!, {r0, r3, r6, r8, r9, ip}	; <UNPREDICTABLE>
    17ac:	0000193c 	andeq	r1, r0, ip, lsr r9
    17b0:	0b000f07 	bleq	53d4 <__code_start__-0x2c2c>
    17b4:	0013490b 	andseq	r4, r3, fp, lsl #18
    17b8:	00260800 	eoreq	r0, r6, r0, lsl #16
    17bc:	00001349 	andeq	r1, r0, r9, asr #6
    17c0:	3f012e09 	svccc	0x00012e09
    17c4:	3a0e0319 	bcc	382430 <__bss_end__+0x377eb0>
    17c8:	390b3b0b 	stmdbcc	fp, {r0, r1, r3, r8, r9, fp, ip, sp}
    17cc:	4919270b 	ldmdbmi	r9, {r0, r1, r3, r8, r9, sl, sp}
    17d0:	12011113 	andne	r1, r1, #-1073741820	; 0xc0000004
    17d4:	97184006 	ldrls	r4, [r8, -r6]
    17d8:	13011942 	movwne	r1, #6466	; 0x1942
    17dc:	050a0000 	streq	r0, [sl, #-0]
    17e0:	3a0e0300 	bcc	3823e8 <__bss_end__+0x377e68>
    17e4:	390b3b0b 	stmdbcc	fp, {r0, r1, r3, r8, r9, fp, ip, sp}
    17e8:	0213490b 	andseq	r4, r3, #180224	; 0x2c000
    17ec:	0b000018 	bleq	1854 <__code_start__-0x67ac>
    17f0:	08030005 	stmdaeq	r3, {r0, r2}
    17f4:	0b3b0b3a 	bleq	ec44e4 <__bss_end__+0xeb9f64>
    17f8:	13490b39 	movtne	r0, #39737	; 0x9b39
    17fc:	42b71702 	adcsmi	r1, r7, #524288	; 0x80000
    1800:	0c000017 	stceq	0, cr0, [r0], {23}
    1804:	08030034 	stmdaeq	r3, {r2, r4, r5}
    1808:	0b3b0b3a 	bleq	ec44f8 <__bss_end__+0xeb9f78>
    180c:	13490b39 	movtne	r0, #39737	; 0x9b39
    1810:	42b71702 	adcsmi	r1, r7, #524288	; 0x80000
    1814:	00000017 	andeq	r0, r0, r7, lsl r0
    1818:	25011101 	strcs	r1, [r1, #-257]	; 0xfffffeff
    181c:	030b130e 	movweq	r1, #45838	; 0xb30e
    1820:	110e1b0e 	tstne	lr, lr, lsl #22
    1824:	10061201 	andne	r1, r6, r1, lsl #4
    1828:	02000017 	andeq	r0, r0, #23, 0
    182c:	0b0b0024 	bleq	2c18c4 <__bss_end__+0x2b7344>
    1830:	08030b3e 	stmdaeq	r3, {r1, r2, r3, r4, r5, r8, r9, fp}
    1834:	24030000 	strcs	r0, [r3], #-0
    1838:	3e0b0b00 	vmlacc.f64	d0, d11, d0
    183c:	000e030b 	andeq	r0, lr, fp, lsl #6
    1840:	01150400 	tsteq	r5, r0, lsl #8
    1844:	13491927 	movtne	r1, #39207	; 0x9927
    1848:	00001301 	andeq	r1, r0, r1, lsl #6
    184c:	49000505 	stmdbmi	r0, {r0, r2, r8, sl}
    1850:	06000013 			; <UNDEFINED> instruction: 0x06000013
    1854:	0e030034 	mcreq	0, 0, r0, cr3, cr4, {1}
    1858:	0b3b0b3a 	bleq	ec4548 <__bss_end__+0xeb9fc8>
    185c:	13490b39 	movtne	r0, #39737	; 0x9b39
    1860:	193c193f 	ldmdbne	ip!, {r0, r1, r2, r3, r4, r5, r8, fp, ip}
    1864:	0f070000 	svceq	0x00070000
    1868:	490b0b00 	stmdbmi	fp, {r8, r9, fp}
    186c:	08000013 	stmdaeq	r0, {r0, r1, r4}
    1870:	13490026 	movtne	r0, #36902	; 0x9026
    1874:	2e090000 	cdpcs	0, 0, cr0, cr9, cr0, {0}
    1878:	03193f01 	tsteq	r9, #1, 30
    187c:	3b0b3a0e 	blcc	2d00bc <__bss_end__+0x2c5b3c>
    1880:	270b390b 	strcs	r3, [fp, -fp, lsl #18]
    1884:	11134919 	tstne	r3, r9, lsl r9
    1888:	40061201 	andmi	r1, r6, r1, lsl #4
    188c:	19429718 	stmdbne	r2, {r3, r4, r8, r9, sl, ip, pc}^
    1890:	050a0000 	streq	r0, [sl, #-0]
    1894:	3a080300 	bcc	20249c <__bss_end__+0x1f7f1c>
    1898:	390b3b0b 	stmdbcc	fp, {r0, r1, r3, r8, r9, fp, ip, sp}
    189c:	0213490b 	andseq	r4, r3, #180224	; 0x2c000
    18a0:	1742b717 	smlaldne	fp, r2, r7, r7
    18a4:	01000000 	mrseq	r0, (UNDEF: 0)
    18a8:	0e250111 	mcreq	1, 1, r0, cr5, cr1, {0}
    18ac:	0e030b13 	vmoveq.32	d3[0], r0
    18b0:	01110e1b 	tsteq	r1, fp, lsl lr
    18b4:	17100612 			; <UNDEFINED> instruction: 0x17100612
    18b8:	24020000 	strcs	r0, [r2], #-0
    18bc:	3e0b0b00 	vmlacc.f64	d0, d11, d0
    18c0:	0008030b 	andeq	r0, r8, fp, lsl #6
    18c4:	00240300 	eoreq	r0, r4, r0, lsl #6
    18c8:	0b3e0b0b 	bleq	f844fc <__bss_end__+0xf79f7c>
    18cc:	00000e03 	andeq	r0, r0, r3, lsl #28
    18d0:	27011504 	strcs	r1, [r1, -r4, lsl #10]
    18d4:	01134919 	tsteq	r3, r9, lsl r9
    18d8:	05000013 	streq	r0, [r0, #-19]	; 0xffffffed
    18dc:	13490005 	movtne	r0, #36869	; 0x9005
    18e0:	34060000 	strcc	r0, [r6], #-0
    18e4:	3a0e0300 	bcc	3824ec <__bss_end__+0x377f6c>
    18e8:	390b3b0b 	stmdbcc	fp, {r0, r1, r3, r8, r9, fp, ip, sp}
    18ec:	3f13490b 	svccc	0x0013490b
    18f0:	00193c19 	andseq	r3, r9, r9, lsl ip
    18f4:	000f0700 	andeq	r0, pc, r0, lsl #14
    18f8:	13490b0b 	movtne	r0, #39691	; 0x9b0b
    18fc:	26080000 	strcs	r0, [r8], -r0
    1900:	00134900 	andseq	r4, r3, r0, lsl #18
    1904:	012e0900 			; <UNDEFINED> instruction: 0x012e0900
    1908:	0e03193f 			; <UNDEFINED> instruction: 0x0e03193f
    190c:	0b3b0b3a 	bleq	ec45fc <__bss_end__+0xeba07c>
    1910:	19270b39 	stmdbne	r7!, {r0, r3, r4, r5, r8, r9, fp}
    1914:	01111349 	tsteq	r1, r9, asr #6
    1918:	18400612 	stmdane	r0, {r1, r4, r9, sl}^
    191c:	01194297 			; <UNDEFINED> instruction: 0x01194297
    1920:	0a000013 	beq	1974 <__code_start__-0x668c>
    1924:	08030005 	stmdaeq	r3, {r0, r2}
    1928:	0b3b0b3a 	bleq	ec4618 <__bss_end__+0xeba098>
    192c:	13490b39 	movtne	r0, #39737	; 0x9b39
    1930:	00001802 	andeq	r1, r0, r2, lsl #16
    1934:	0300050b 	movweq	r0, #1291	; 0x50b
    1938:	3b0b3a08 	blcc	2d0160 <__bss_end__+0x2c5be0>
    193c:	490b390b 	stmdbmi	fp, {r0, r1, r3, r8, fp, ip, sp}
    1940:	b7170213 			; <UNDEFINED> instruction: 0xb7170213
    1944:	00001742 	andeq	r1, r0, r2, asr #14
    1948:	0300340c 	movweq	r3, #1036	; 0x40c
    194c:	3b0b3a08 	blcc	2d0174 <__bss_end__+0x2c5bf4>
    1950:	490b390b 	stmdbmi	fp, {r0, r1, r3, r8, fp, ip, sp}
    1954:	b7170213 			; <UNDEFINED> instruction: 0xb7170213
    1958:	00001742 	andeq	r1, r0, r2, asr #14
    195c:	01110100 	tsteq	r1, r0, lsl #2
    1960:	0b130e25 	bleq	4c51fc <__bss_end__+0x4bac7c>
    1964:	0e1b0e03 	cdpeq	14, 1, cr0, cr11, cr3, {0}
    1968:	06120111 			; <UNDEFINED> instruction: 0x06120111
    196c:	00001710 	andeq	r1, r0, r0, lsl r7
    1970:	0b002402 	bleq	a980 <__bss_end__+0x400>
    1974:	030b3e0b 	movweq	r3, #48651	; 0xbe0b
    1978:	03000008 	movweq	r0, #8
    197c:	0e030016 	mcreq	0, 0, r0, cr3, cr6, {0}
    1980:	0b3b0b3a 	bleq	ec4670 <__bss_end__+0xeba0f0>
    1984:	13490b39 	movtne	r0, #39737	; 0x9b39
    1988:	24040000 	strcs	r0, [r4], #-0
    198c:	3e0b0b00 	vmlacc.f64	d0, d11, d0
    1990:	000e030b 	andeq	r0, lr, fp, lsl #6
    1994:	00260500 	eoreq	r0, r6, r0, lsl #10
    1998:	00001349 	andeq	r1, r0, r9, asr #6
    199c:	27011506 	strcs	r1, [r1, -r6, lsl #10]
    19a0:	01134919 	tsteq	r3, r9, lsl r9
    19a4:	07000013 	smladeq	r0, r3, r0, r0
    19a8:	13490005 	movtne	r0, #36869	; 0x9005
    19ac:	34080000 	strcc	r0, [r8], #-0
    19b0:	3a0e0300 	bcc	3825b8 <__bss_end__+0x378038>
    19b4:	390b3b0b 	stmdbcc	fp, {r0, r1, r3, r8, r9, fp, ip, sp}
    19b8:	3f13490b 	svccc	0x0013490b
    19bc:	00193c19 	andseq	r3, r9, r9, lsl ip
    19c0:	000f0900 	andeq	r0, pc, r0, lsl #18
    19c4:	13490b0b 	movtne	r0, #39691	; 0x9b0b
    19c8:	2e0a0000 	cdpcs	0, 0, cr0, cr10, cr0, {0}
    19cc:	03193f01 	tsteq	r9, #1, 30
    19d0:	3b0b3a0e 	blcc	2d0210 <__bss_end__+0x2c5c90>
    19d4:	270b390b 	strcs	r3, [fp, -fp, lsl #18]
    19d8:	11134919 	tstne	r3, r9, lsl r9
    19dc:	40061201 	andmi	r1, r6, r1, lsl #4
    19e0:	19429718 	stmdbne	r2, {r3, r4, r8, r9, sl, ip, pc}^
    19e4:	00001301 	andeq	r1, r0, r1, lsl #6
    19e8:	0300050b 	movweq	r0, #1291	; 0x50b
    19ec:	3b0b3a08 	blcc	2d0214 <__bss_end__+0x2c5c94>
    19f0:	490b390b 	stmdbmi	fp, {r0, r1, r3, r8, fp, ip, sp}
    19f4:	b7170213 			; <UNDEFINED> instruction: 0xb7170213
    19f8:	00001742 	andeq	r1, r0, r2, asr #14
    19fc:	0300340c 	movweq	r3, #1036	; 0x40c
    1a00:	3b0b3a08 	blcc	2d0228 <__bss_end__+0x2c5ca8>
    1a04:	490b390b 	stmdbmi	fp, {r0, r1, r3, r8, fp, ip, sp}
    1a08:	b7170213 			; <UNDEFINED> instruction: 0xb7170213
    1a0c:	00001742 	andeq	r1, r0, r2, asr #14
    1a10:	01110100 	tsteq	r1, r0, lsl #2
    1a14:	0b130e25 	bleq	4c52b0 <__bss_end__+0x4bad30>
    1a18:	0e1b0e03 	cdpeq	14, 1, cr0, cr11, cr3, {0}
    1a1c:	06120111 			; <UNDEFINED> instruction: 0x06120111
    1a20:	00001710 	andeq	r1, r0, r0, lsl r7
    1a24:	0b002402 	bleq	aa34 <__bss_end__+0x4b4>
    1a28:	030b3e0b 	movweq	r3, #48651	; 0xbe0b
    1a2c:	03000008 	movweq	r0, #8
    1a30:	0b0b0024 	bleq	2c1ac8 <__bss_end__+0x2b7548>
    1a34:	0e030b3e 	vmoveq.16	d3[0], r0
    1a38:	15040000 	strne	r0, [r4, #-0]
    1a3c:	49192701 	ldmdbmi	r9, {r0, r8, r9, sl, sp}
    1a40:	00130113 	andseq	r0, r3, r3, lsl r1
    1a44:	00050500 	andeq	r0, r5, r0, lsl #10
    1a48:	00001349 	andeq	r1, r0, r9, asr #6
    1a4c:	03003406 	movweq	r3, #1030	; 0x406
    1a50:	3b0b3a0e 	blcc	2d0290 <__bss_end__+0x2c5d10>
    1a54:	490b390b 	stmdbmi	fp, {r0, r1, r3, r8, fp, ip, sp}
    1a58:	3c193f13 	ldccc	15, cr3, [r9], {19}
    1a5c:	07000019 	smladeq	r0, r9, r0, r0
    1a60:	0b0b000f 	bleq	2c1aa4 <__bss_end__+0x2b7524>
    1a64:	00001349 	andeq	r1, r0, r9, asr #6
    1a68:	49002608 	stmdbmi	r0, {r3, r9, sl, sp}
    1a6c:	09000013 	stmdbeq	r0, {r0, r1, r4}
    1a70:	193f002e 	ldmdbne	pc!, {r1, r2, r3, r5}	; <UNPREDICTABLE>
    1a74:	0b3a0e03 	bleq	e85288 <__bss_end__+0xe7ad08>
    1a78:	0b390b3b 	bleq	e4476c <__bss_end__+0xe3a1ec>
    1a7c:	01111927 	tsteq	r1, r7, lsr #18
    1a80:	18400612 	stmdane	r0, {r1, r4, r9, sl}^
    1a84:	00194297 	mulseq	r9, r7, r2
	...

Disassembly of section .debug_loc:

00000000 <.debug_loc>:
       0:	00000000 	andeq	r0, r0, r0
       4:	00000098 	muleq	r0, r8, r0
       8:	000000a8 	andeq	r0, r0, r8, lsr #1
       c:	a8500001 	ldmdage	r0, {r0}^
      10:	44000000 	strmi	r0, [r0], #-0
      14:	01000001 	tsteq	r0, r1
      18:	00005500 	andeq	r5, r0, r0, lsl #10
      1c:	00000000 	andeq	r0, r0, r0
      20:	00020000 	andeq	r0, r2, r0
      24:	01000000 	mrseq	r0, (UNDEF: 0)
      28:	00980001 	addseq	r0, r8, r1
      2c:	00a80000 	adceq	r0, r8, r0
      30:	00020000 	andeq	r0, r2, r0
      34:	00a89f30 	adceq	r9, r8, r0, lsr pc
      38:	01280000 			; <UNDEFINED> instruction: 0x01280000
      3c:	00010000 	andeq	r0, r1, r0
      40:	00012859 	andeq	r2, r1, r9, asr r8
      44:	00012c00 	andeq	r2, r1, r0, lsl #24
      48:	79000300 	stmdbvc	r0, {r8, r9}
      4c:	012c9f7f 			; <UNDEFINED> instruction: 0x012c9f7f
      50:	01440000 	mrseq	r0, (UNDEF: 68)
      54:	00010000 	andeq	r0, r1, r0
      58:	00000059 	andeq	r0, r0, r9, asr r0
      5c:	00000000 	andeq	r0, r0, r0
      60:	00000200 	andeq	r0, r0, r0, lsl #4
      64:	01010000 	mrseq	r0, (UNDEF: 1)
      68:	0000b400 	andeq	fp, r0, r0, lsl #8
      6c:	0000b800 	andeq	fp, r0, r0, lsl #16
      70:	30000200 	andcc	r0, r0, r0, lsl #4
      74:	0000b89f 	muleq	r0, pc, r8	; <UNPREDICTABLE>
      78:	00010c00 	andeq	r0, r1, r0, lsl #24
      7c:	54000100 	strpl	r0, [r0], #-256	; 0xffffff00
      80:	0000010c 	andeq	r0, r0, ip, lsl #2
      84:	00000114 	andeq	r0, r0, r4, lsl r1
      88:	7f740003 	svcvc	0x00740003
      8c:	0001149f 	muleq	r1, pc, r4	; <UNPREDICTABLE>
      90:	00014400 	andeq	r4, r1, r0, lsl #8
      94:	54000100 	strpl	r0, [r0], #-256	; 0xffffff00
	...
      a0:	00b80001 	adcseq	r0, r8, r1
      a4:	01080000 	mrseq	r0, (UNDEF: 8)
      a8:	00010000 	andeq	r0, r1, r0
      ac:	00000054 	andeq	r0, r0, r4, asr r0
      b0:	00000000 	andeq	r0, r0, r0
      b4:	b8000100 	stmdalt	r0, {r8}
      b8:	08000000 	stmdaeq	r0, {}	; <UNPREDICTABLE>
      bc:	01000001 	tsteq	r0, r1
      c0:	00005500 	andeq	r5, r0, r0, lsl #10
	...
      d4:	00270000 	eoreq	r0, r7, r0
      d8:	00010000 	andeq	r0, r1, r0
      dc:	00002750 	andeq	r2, r0, r0, asr r7
      e0:	00006800 	andeq	r6, r0, r0, lsl #16
      e4:	54000100 	strpl	r0, [r0], #-256	; 0xffffff00
      e8:	00000068 	andeq	r0, r0, r8, rrx
      ec:	0000006b 	andeq	r0, r0, fp, rrx
      f0:	6b500001 	blvs	14000fc <__bss_end__+0x13f5b7c>
      f4:	6c000000 	stcvs	0, cr0, [r0], {-0}
      f8:	04000000 	streq	r0, [r0], #-0
      fc:	5001f300 	andpl	pc, r1, r0, lsl #6
     100:	0000009f 	muleq	r0, pc, r0	; <UNPREDICTABLE>
	...
     110:	20000000 	andcs	r0, r0, r0
     114:	01000000 	mrseq	r0, (UNDEF: 0)
     118:	00205100 	eoreq	r5, r0, r0, lsl #2
     11c:	00680000 	rsbeq	r0, r8, r0
     120:	00010000 	andeq	r0, r1, r0
     124:	00006856 	andeq	r6, r0, r6, asr r8
     128:	00006c00 	andeq	r6, r0, r0, lsl #24
     12c:	f3000400 	vshl.u8	d0, d0, d0
     130:	009f5101 	addseq	r5, pc, r1, lsl #2
	...
     13c:	20000000 	andcs	r0, r0, r0
     140:	28000006 	stmdacs	r0, {r1, r2}
     144:	01000006 	tsteq	r0, r6
     148:	06285100 	strteq	r5, [r8], -r0, lsl #2
     14c:	06400000 	strbeq	r0, [r0], -r0
     150:	00040000 	andeq	r0, r4, r0
     154:	9f5101f3 	svcls	0x005101f3
	...
     164:	00000530 	andeq	r0, r0, r0, lsr r5
     168:	0000061b 	andeq	r0, r0, fp, lsl r6
     16c:	1b500001 	blne	1400178 <__bss_end__+0x13f5bf8>
     170:	20000006 	andcs	r0, r0, r6
     174:	04000006 	streq	r0, [r0], #-6
     178:	5001f300 	andpl	pc, r1, r0, lsl #6
     17c:	0000009f 	muleq	r0, pc, r0	; <UNPREDICTABLE>
	...
     188:	00053800 	andeq	r3, r5, r0, lsl #16
     18c:	00061800 	andeq	r1, r6, r0, lsl #16
     190:	54000100 	strpl	r0, [r0], #-256	; 0xffffff00
     194:	00000618 	andeq	r0, r0, r8, lsl r6
     198:	0000061b 	andeq	r0, r0, fp, lsl r6
     19c:	04700002 	ldrbteq	r0, [r0], #-2
	...
     1ac:	00000538 	andeq	r0, r0, r8, lsr r5
     1b0:	0000061b 	andeq	r0, r0, fp, lsl r6
     1b4:	1b500001 	blne	14001c0 <__bss_end__+0x13f5c40>
     1b8:	20000006 	andcs	r0, r0, r6
     1bc:	04000006 	streq	r0, [r0], #-6
     1c0:	5001f300 	andpl	pc, r1, r0, lsl #6
     1c4:	0000009f 	muleq	r0, pc, r0	; <UNPREDICTABLE>
     1c8:	00000000 	andeq	r0, r0, r0
     1cc:	00000100 	andeq	r0, r0, r0, lsl #2
     1d0:	00053800 	andeq	r3, r5, r0, lsl #16
     1d4:	00055400 	andeq	r5, r5, r0, lsl #8
     1d8:	30000200 	andcc	r0, r0, r0, lsl #4
     1dc:	0005549f 	muleq	r5, pc, r4	; <UNPREDICTABLE>
     1e0:	00061400 	andeq	r1, r6, r0, lsl #8
     1e4:	5e000100 	adfpls	f0, f0, f0
	...
     1f0:	05540002 	ldrbeq	r0, [r4, #-2]
     1f4:	06080000 	streq	r0, [r8], -r0
     1f8:	00020000 	andeq	r0, r2, r0
     1fc:	00009f30 	andeq	r9, r0, r0, lsr pc
     200:	00000000 	andeq	r0, r0, r0
     204:	00040000 	andeq	r0, r4, r0
     208:	00000554 	andeq	r0, r0, r4, asr r5
     20c:	00000594 	muleq	r0, r4, r5
     210:	9f300002 	svcls	0x00300002
	...
     21c:	05540007 	ldrbeq	r0, [r4, #-7]
     220:	05580000 	ldrbeq	r0, [r8, #-0]
     224:	00020000 	andeq	r0, r2, r0
     228:	00009f30 	andeq	r9, r0, r0, lsr pc
     22c:	00000000 	andeq	r0, r0, r0
     230:	00010000 	andeq	r0, r1, r0
     234:	00000558 	andeq	r0, r0, r8, asr r5
     238:	00000588 	andeq	r0, r0, r8, lsl #11
     23c:	9f300002 	svcls	0x00300002
	...
     248:	05580006 	ldrbeq	r0, [r8, #-6]
     24c:	05700000 	ldrbeq	r0, [r0, #-0]!
     250:	00030000 	andeq	r0, r3, r0
     254:	009ff508 	addseq	pc, pc, r8, lsl #10
     258:	00000000 	andeq	r0, r0, r0
     25c:	01000000 	mrseq	r0, (UNDEF: 0)
     260:	00055c00 	andeq	r5, r5, r0, lsl #24
     264:	00057400 	andeq	r7, r5, r0, lsl #8
     268:	55000100 	strpl	r0, [r0, #-256]	; 0xffffff00
	...
     274:	055c0000 	ldrbeq	r0, [ip, #-0]
     278:	05700000 	ldrbeq	r0, [r0, #-0]!
     27c:	00010000 	andeq	r0, r1, r0
     280:	00000055 	andeq	r0, r0, r5, asr r0
     284:	00000000 	andeq	r0, r0, r0
     288:	64000100 	strvs	r0, [r0], #-256	; 0xffffff00
     28c:	68000005 	stmdavs	r0, {r0, r2}
     290:	01000005 	tsteq	r0, r5
     294:	00005c00 	andeq	r5, r0, r0, lsl #24
	...
     2a0:	00000564 	andeq	r0, r0, r4, ror #10
     2a4:	00000568 	andeq	r0, r0, r8, ror #10
     2a8:	005c0001 	subseq	r0, ip, r1
     2ac:	00000000 	andeq	r0, r0, r0
     2b0:	04000000 	streq	r0, [r0], #-0
     2b4:	00057000 	andeq	r7, r5, r0
     2b8:	00058800 	andeq	r8, r5, r0, lsl #16
     2bc:	0a000400 	beq	12c4 <__code_start__-0x6d3c>
     2c0:	009f0276 	addseq	r0, pc, r6, ror r2	; <UNPREDICTABLE>
     2c4:	00000000 	andeq	r0, r0, r0
     2c8:	01000000 	mrseq	r0, (UNDEF: 0)
     2cc:	00057400 	andeq	r7, r5, r0, lsl #8
     2d0:	00059400 	andeq	r9, r5, r0, lsl #8
     2d4:	55000100 	strpl	r0, [r0, #-256]	; 0xffffff00
	...
     2e0:	05740000 	ldrbeq	r0, [r4, #-0]!
     2e4:	05880000 	streq	r0, [r8]
     2e8:	00010000 	andeq	r0, r1, r0
     2ec:	00000055 	andeq	r0, r0, r5, asr r0
     2f0:	00000000 	andeq	r0, r0, r0
     2f4:	7c000100 	stfvcs	f0, [r0], {-0}
     2f8:	80000005 	andhi	r0, r0, r5
     2fc:	01000005 	tsteq	r0, r5
     300:	00005c00 	andeq	r5, r0, r0, lsl #24
	...
     30c:	0000057c 	andeq	r0, r0, ip, ror r5
     310:	00000580 	andeq	r0, r0, r0, lsl #11
     314:	005c0001 	subseq	r0, ip, r1
     318:	00000000 	andeq	r0, r0, r0
     31c:	02000000 	andeq	r0, r0, #0, 0
     320:	00059400 	andeq	r9, r5, r0, lsl #8
     324:	0005c400 	andeq	ip, r5, r0, lsl #8
     328:	30000200 	andcc	r0, r0, r0, lsl #4
     32c:	0000009f 	muleq	r0, pc, r0	; <UNPREDICTABLE>
     330:	00000000 	andeq	r0, r0, r0
     334:	94000700 	strls	r0, [r0], #-1792	; 0xfffff900
     338:	ac000005 	stcge	0, cr0, [r0], {5}
     33c:	03000005 	movweq	r0, #5
     340:	9ff50800 	svcls	0x00f50800
	...
     34c:	05980001 	ldreq	r0, [r8, #1]
     350:	05b00000 	ldreq	r0, [r0, #0]!
     354:	00010000 	andeq	r0, r1, r0
     358:	00000055 	andeq	r0, r0, r5, asr r0
     35c:	00000000 	andeq	r0, r0, r0
     360:	98000000 	stmdals	r0, {}	; <UNPREDICTABLE>
     364:	ac000005 	stcge	0, cr0, [r0], {5}
     368:	01000005 	tsteq	r0, r5
     36c:	00005500 	andeq	r5, r0, r0, lsl #10
     370:	00000000 	andeq	r0, r0, r0
     374:	00010000 	andeq	r0, r1, r0
     378:	000005a0 	andeq	r0, r0, r0, lsr #11
     37c:	000005a4 	andeq	r0, r0, r4, lsr #11
     380:	005c0001 	subseq	r0, ip, r1
	...
     38c:	0005a000 	andeq	sl, r5, r0
     390:	0005a400 	andeq	sl, r5, r0, lsl #8
     394:	5c000100 	stfpls	f0, [r0], {-0}
	...
     3a0:	05ac0004 	streq	r0, [ip, #4]!
     3a4:	05c40000 	strbeq	r0, [r4]
     3a8:	00040000 	andeq	r0, r4, r0
     3ac:	9f02760a 	svcls	0x0002760a
	...
     3b8:	05b00001 	ldreq	r0, [r0, #1]!
     3bc:	05d00000 	ldrbeq	r0, [r0]
     3c0:	00010000 	andeq	r0, r1, r0
     3c4:	00000055 	andeq	r0, r0, r5, asr r0
     3c8:	00000000 	andeq	r0, r0, r0
     3cc:	b0000000 	andlt	r0, r0, r0
     3d0:	c4000005 	strgt	r0, [r0], #-5
     3d4:	01000005 	tsteq	r0, r5
     3d8:	00005500 	andeq	r5, r0, r0, lsl #10
     3dc:	00000000 	andeq	r0, r0, r0
     3e0:	00010000 	andeq	r0, r1, r0
     3e4:	000005b8 			; <UNDEFINED> instruction: 0x000005b8
     3e8:	000005bc 			; <UNDEFINED> instruction: 0x000005bc
     3ec:	005c0001 	subseq	r0, ip, r1
	...
     3f8:	0005b800 	andeq	fp, r5, r0, lsl #16
     3fc:	0005bc00 	andeq	fp, r5, r0, lsl #24
     400:	5c000100 	stfpls	f0, [r0], {-0}
	...
     40c:	05d00002 	ldrbeq	r0, [r0, #2]
     410:	06000000 	streq	r0, [r0], -r0
     414:	00020000 	andeq	r0, r2, r0
     418:	00009f30 	andeq	r9, r0, r0, lsr pc
     41c:	00000000 	andeq	r0, r0, r0
     420:	00070000 	andeq	r0, r7, r0
     424:	000005d0 	ldrdeq	r0, [r0], -r0	; <UNPREDICTABLE>
     428:	000005e8 	andeq	r0, r0, r8, ror #11
     42c:	f5080003 			; <UNDEFINED> instruction: 0xf5080003
     430:	0000009f 	muleq	r0, pc, r0	; <UNPREDICTABLE>
     434:	00000000 	andeq	r0, r0, r0
     438:	d4000100 	strle	r0, [r0], #-256	; 0xffffff00
     43c:	ec000005 	stc	0, cr0, [r0], {5}
     440:	01000005 	tsteq	r0, r5
     444:	00005500 	andeq	r5, r0, r0, lsl #10
	...
     450:	000005d4 	ldrdeq	r0, [r0], -r4
     454:	000005e8 	andeq	r0, r0, r8, ror #11
     458:	00550001 	subseq	r0, r5, r1
     45c:	00000000 	andeq	r0, r0, r0
     460:	01000000 	mrseq	r0, (UNDEF: 0)
     464:	0005dc00 	andeq	sp, r5, r0, lsl #24
     468:	0005e000 	andeq	lr, r5, r0
     46c:	5c000100 	stfpls	f0, [r0], {-0}
	...
     478:	05dc0000 	ldrbeq	r0, [ip]
     47c:	05e00000 	strbeq	r0, [r0, #0]!
     480:	00010000 	andeq	r0, r1, r0
     484:	0000005c 	andeq	r0, r0, ip, asr r0
     488:	00000000 	andeq	r0, r0, r0
     48c:	e8000400 	stmda	r0, {sl}
     490:	00000005 	andeq	r0, r0, r5
     494:	04000006 	streq	r0, [r0], #-6
     498:	02760a00 	rsbseq	r0, r6, #0, 20
     49c:	0000009f 	muleq	r0, pc, r0	; <UNPREDICTABLE>
     4a0:	00000000 	andeq	r0, r0, r0
     4a4:	ec000100 	stfs	f0, [r0], {-0}
     4a8:	14000005 	strne	r0, [r0], #-5
     4ac:	01000006 	tsteq	r0, r6
     4b0:	00005500 	andeq	r5, r0, r0, lsl #10
	...
     4bc:	000005ec 	andeq	r0, r0, ip, ror #11
     4c0:	00000600 	andeq	r0, r0, r0, lsl #12
     4c4:	00550001 	subseq	r0, r5, r1
     4c8:	00000000 	andeq	r0, r0, r0
     4cc:	01000000 	mrseq	r0, (UNDEF: 0)
     4d0:	0005f400 	andeq	pc, r5, r0, lsl #8
     4d4:	0005f800 	andeq	pc, r5, r0, lsl #16
     4d8:	5c000100 	stfpls	f0, [r0], {-0}
	...
     4e4:	05f40000 	ldrbeq	r0, [r4, #0]!
     4e8:	05f80000 	ldrbeq	r0, [r8, #0]!
     4ec:	00010000 	andeq	r0, r1, r0
     4f0:	0000005c 	andeq	r0, r0, ip, asr r0
	...
     4fc:	00027000 	andeq	r7, r2, r0
     500:	00028000 	andeq	r8, r2, r0
     504:	50000100 	andpl	r0, r0, r0, lsl #2
     508:	00000280 	andeq	r0, r0, r0, lsl #5
     50c:	00000434 	andeq	r0, r0, r4, lsr r4
     510:	01f30004 	mvnseq	r0, r4
     514:	00009f50 	andeq	r9, r0, r0, asr pc
	...
     524:	00000270 	andeq	r0, r0, r0, ror r2
     528:	00000324 	andeq	r0, r0, r4, lsr #6
     52c:	24510001 	ldrbcs	r0, [r1], #-1
     530:	b0000003 	andlt	r0, r0, r3
     534:	04000003 	streq	r0, [r0], #-3
     538:	5101f300 	mrspl	pc, SP_irq	; <UNPREDICTABLE>
     53c:	0003b09f 	muleq	r3, pc, r0	; <UNPREDICTABLE>
     540:	00043400 	andeq	r3, r4, r0, lsl #8
     544:	51000100 	mrspl	r0, (UNDEF: 16)
	...
     554:	02700000 	rsbseq	r0, r0, #0, 0
     558:	02d80000 	sbcseq	r0, r8, #0, 0
     55c:	00010000 	andeq	r0, r1, r0
     560:	0002d852 	andeq	sp, r2, r2, asr r8
     564:	0003f000 	andeq	pc, r3, r0
     568:	f3000400 	vshl.u8	d0, d0, d0
     56c:	f09f5201 			; <UNDEFINED> instruction: 0xf09f5201
     570:	34000003 	strcc	r0, [r0], #-3
     574:	01000004 	tsteq	r0, r4
     578:	00005200 	andeq	r5, r0, r0, lsl #4
	...
     584:	00000278 	andeq	r0, r0, r8, ror r2
     588:	00000434 	andeq	r0, r0, r4, lsr r4
     58c:	00530001 	subseq	r0, r3, r1
	...
     59c:	00027800 	andeq	r7, r2, r0, lsl #16
     5a0:	0002d800 	andeq	sp, r2, r0, lsl #16
     5a4:	52000100 	andpl	r0, r0, #0
     5a8:	000002d8 	ldrdeq	r0, [r0], -r8
     5ac:	000003f0 	strdeq	r0, [r0], -r0	; <UNPREDICTABLE>
     5b0:	01f30004 	mvnseq	r0, r4
     5b4:	03f09f52 	mvnseq	r9, #328	; 0x148
     5b8:	04340000 	ldrteq	r0, [r4], #-0
     5bc:	00010000 	andeq	r0, r1, r0
     5c0:	00000052 	andeq	r0, r0, r2, asr r0
	...
     5cc:	78000000 	stmdavc	r0, {}	; <UNPREDICTABLE>
     5d0:	24000002 	strcs	r0, [r0], #-2
     5d4:	01000003 	tsteq	r0, r3
     5d8:	03245100 			; <UNDEFINED> instruction: 0x03245100
     5dc:	03b00000 	movseq	r0, #0, 0
     5e0:	00040000 	andeq	r0, r4, r0
     5e4:	9f5101f3 	svcls	0x005101f3
     5e8:	000003b0 			; <UNDEFINED> instruction: 0x000003b0
     5ec:	00000434 	andeq	r0, r0, r4, lsr r4
     5f0:	00510001 	subseq	r0, r1, r1
     5f4:	00000000 	andeq	r0, r0, r0
     5f8:	02000000 	andeq	r0, r0, #0, 0
     5fc:	70000000 	andvc	r0, r0, r0
     600:	80000002 	andhi	r0, r0, r2
     604:	08000002 	stmdaeq	r0, {r1}
     608:	94007000 	strls	r7, [r0], #-0
     60c:	1aff0801 	bne	fffc2618 <__bss_end__+0xfffb8098>
     610:	0002809f 	muleq	r2, pc, r0	; <UNPREDICTABLE>
     614:	00028800 	andeq	r8, r2, r0, lsl #16
     618:	f3000900 	vmls.i8	d0, d0, d0
     61c:	01945001 	orrseq	r5, r4, r1
     620:	9f1aff08 	svcls	0x001aff08
	...
     62c:	00000003 	andeq	r0, r0, r3
     630:	00000278 	andeq	r0, r0, r8, ror r2
     634:	000002d8 	ldrdeq	r0, [r0], -r8
     638:	f0520001 			; <UNDEFINED> instruction: 0xf0520001
     63c:	34000003 	strcc	r0, [r0], #-3
     640:	01000004 	tsteq	r0, r4
     644:	00005200 	andeq	r5, r0, r0, lsl #4
     648:	00000000 	andeq	r0, r0, r0
     64c:	00030000 	andeq	r0, r3, r0
     650:	02780000 	rsbseq	r0, r8, #0, 0
     654:	02800000 	addeq	r0, r0, #0, 0
     658:	00080000 	andeq	r0, r8, r0
     65c:	01940070 	orrseq	r0, r4, r0, ror r0
     660:	9f1aff08 	svcls	0x001aff08
     664:	00000280 	andeq	r0, r0, r0, lsl #5
     668:	00000288 	andeq	r0, r0, r8, lsl #5
     66c:	00500001 	subseq	r0, r0, r1
     670:	00000000 	andeq	r0, r0, r0
     674:	06000000 	streq	r0, [r0], -r0
     678:	00000000 	andeq	r0, r0, r0
     67c:	00027800 	andeq	r7, r2, r0, lsl #16
     680:	00028800 	andeq	r8, r2, r0, lsl #16
     684:	30000200 	andcc	r0, r0, r0, lsl #4
     688:	0002889f 	muleq	r2, pc, r8	; <UNPREDICTABLE>
     68c:	0002d800 	andeq	sp, r2, r0, lsl #16
     690:	5e000100 	adfpls	f0, f0, f0
     694:	000003f0 	strdeq	r0, [r0], -r0	; <UNPREDICTABLE>
     698:	00000434 	andeq	r0, r0, r4, lsr r4
     69c:	005e0001 	subseq	r0, lr, r1
     6a0:	00000000 	andeq	r0, r0, r0
     6a4:	02000000 	andeq	r0, r0, #0, 0
     6a8:	88000000 	stmdahi	r0, {}	; <UNPREDICTABLE>
     6ac:	c4000002 	strgt	r0, [r0], #-2
     6b0:	08000002 	stmdaeq	r0, {r1}
     6b4:	7e007200 	cdpvc	2, 0, cr7, cr0, cr0, {0}
     6b8:	1a312600 	bne	c49ec0 <__bss_end__+0xc3f940>
     6bc:	0003f09f 	muleq	r3, pc, r0	; <UNPREDICTABLE>
     6c0:	00042000 	andeq	r2, r4, r0
     6c4:	72000800 	andvc	r0, r0, #0, 16
     6c8:	26007e00 	strcs	r7, [r0], -r0, lsl #28
     6cc:	009f1a31 	addseq	r1, pc, r1, lsr sl	; <UNPREDICTABLE>
     6d0:	00000000 	andeq	r0, r0, r0
     6d4:	04000000 	streq	r0, [r0], #-0
     6d8:	0003f000 	andeq	pc, r3, r0
     6dc:	00040800 	andeq	r0, r4, r0, lsl #16
     6e0:	08000300 	stmdaeq	r0, {r8, r9}
     6e4:	00009ff5 	strdeq	r9, [r0], -r5
     6e8:	00000000 	andeq	r0, r0, r0
     6ec:	00010000 	andeq	r0, r1, r0
     6f0:	000003f4 	strdeq	r0, [r0], -r4
     6f4:	0000040c 	andeq	r0, r0, ip, lsl #8
     6f8:	00550001 	subseq	r0, r5, r1
	...
     704:	0003f400 	andeq	pc, r3, r0, lsl #8
     708:	00040800 	andeq	r0, r4, r0, lsl #16
     70c:	55000100 	strpl	r0, [r0, #-256]	; 0xffffff00
	...
     718:	03fc0001 	mvnseq	r0, #1, 0
     71c:	04000000 	streq	r0, [r0], #-0
     720:	00010000 	andeq	r0, r1, r0
     724:	00000054 	andeq	r0, r0, r4, asr r0
     728:	00000000 	andeq	r0, r0, r0
     72c:	fc000000 	stc2	0, cr0, [r0], {-0}
     730:	00000003 	andeq	r0, r0, r3
     734:	01000004 	tsteq	r0, r4
     738:	00005400 	andeq	r5, r0, r0, lsl #8
     73c:	00000000 	andeq	r0, r0, r0
     740:	00030000 	andeq	r0, r3, r0
     744:	00000294 	muleq	r0, r4, r2
     748:	000002ac 	andeq	r0, r0, ip, lsr #5
     74c:	760a0004 	strvc	r0, [sl], -r4
     750:	00009f02 	andeq	r9, r0, r2, lsl #30
     754:	00000000 	andeq	r0, r0, r0
     758:	00010000 	andeq	r0, r1, r0
     75c:	00000298 	muleq	r0, r8, r2
     760:	000002b0 			; <UNDEFINED> instruction: 0x000002b0
     764:	00550001 	subseq	r0, r5, r1
	...
     770:	00029800 	andeq	r9, r2, r0, lsl #16
     774:	0002ac00 	andeq	sl, r2, r0, lsl #24
     778:	55000100 	strpl	r0, [r0, #-256]	; 0xffffff00
	...
     784:	02a00001 	adceq	r0, r0, #1, 0
     788:	02a40000 	adceq	r0, r4, #0, 0
     78c:	00010000 	andeq	r0, r1, r0
     790:	00000054 	andeq	r0, r0, r4, asr r0
     794:	00000000 	andeq	r0, r0, r0
     798:	a0000000 	andge	r0, r0, r0
     79c:	a4000002 	strge	r0, [r0], #-2
     7a0:	01000002 	tsteq	r0, r2
     7a4:	00005400 	andeq	r5, r0, r0, lsl #8
     7a8:	00000000 	andeq	r0, r0, r0
     7ac:	00040000 	andeq	r0, r4, r0
     7b0:	000002ac 	andeq	r0, r0, ip, lsr #5
     7b4:	000002c4 	andeq	r0, r0, r4, asr #5
     7b8:	f5080003 			; <UNDEFINED> instruction: 0xf5080003
     7bc:	0000009f 	muleq	r0, pc, r0	; <UNPREDICTABLE>
     7c0:	00000000 	andeq	r0, r0, r0
     7c4:	b0000100 	andlt	r0, r0, r0, lsl #2
     7c8:	d0000002 	andle	r0, r0, r2
     7cc:	01000002 	tsteq	r0, r2
     7d0:	00005500 	andeq	r5, r0, r0, lsl #10
	...
     7dc:	000002b0 			; <UNDEFINED> instruction: 0x000002b0
     7e0:	000002c4 	andeq	r0, r0, r4, asr #5
     7e4:	00550001 	subseq	r0, r5, r1
     7e8:	00000000 	andeq	r0, r0, r0
     7ec:	01000000 	mrseq	r0, (UNDEF: 0)
     7f0:	0002b800 	andeq	fp, r2, r0, lsl #16
     7f4:	0002bc00 	andeq	fp, r2, r0, lsl #24
     7f8:	54000100 	strpl	r0, [r0], #-256	; 0xffffff00
	...
     804:	02b80000 	adcseq	r0, r8, #0, 0
     808:	02bc0000 	adcseq	r0, ip, #0, 0
     80c:	00010000 	andeq	r0, r1, r0
     810:	00000054 	andeq	r0, r0, r4, asr r0
     814:	00000000 	andeq	r0, r0, r0
     818:	08000400 	stmdaeq	r0, {sl}
     81c:	20000004 	andcs	r0, r0, r4
     820:	04000004 	streq	r0, [r0], #-4
     824:	02760a00 	rsbseq	r0, r6, #0, 20
     828:	0000009f 	muleq	r0, pc, r0	; <UNPREDICTABLE>
     82c:	00000000 	andeq	r0, r0, r0
     830:	0c000100 	stfeqs	f0, [r0], {-0}
     834:	34000004 	strcc	r0, [r0], #-4
     838:	01000004 	tsteq	r0, r4
     83c:	00005500 	andeq	r5, r0, r0, lsl #10
	...
     848:	0000040c 	andeq	r0, r0, ip, lsl #8
     84c:	00000420 	andeq	r0, r0, r0, lsr #8
     850:	00550001 	subseq	r0, r5, r1
     854:	00000000 	andeq	r0, r0, r0
     858:	01000000 	mrseq	r0, (UNDEF: 0)
     85c:	00041400 	andeq	r1, r4, r0, lsl #8
     860:	00041800 	andeq	r1, r4, r0, lsl #16
     864:	54000100 	strpl	r0, [r0], #-256	; 0xffffff00
	...
     870:	04140000 	ldreq	r0, [r4], #-0
     874:	04180000 	ldreq	r0, [r8], #-0
     878:	00010000 	andeq	r0, r1, r0
     87c:	00000054 	andeq	r0, r0, r4, asr r0
	...
     888:	0002d800 	andeq	sp, r2, r0, lsl #16
     88c:	00032000 	andeq	r2, r3, r0
     890:	5c000100 	stfpls	f0, [r0], {-0}
     894:	000003b0 			; <UNDEFINED> instruction: 0x000003b0
     898:	000003f0 	strdeq	r0, [r0], -r0	; <UNPREDICTABLE>
     89c:	005c0001 	subseq	r0, ip, r1
     8a0:	00000000 	andeq	r0, r0, r0
     8a4:	02000000 	andeq	r0, r0, #0, 0
     8a8:	d8000000 	stmdale	r0, {}	; <UNPREDICTABLE>
     8ac:	14000002 	strne	r0, [r0], #-2
     8b0:	08000003 	stmdaeq	r0, {r0, r1}
     8b4:	7c007100 	stfvcs	f7, [r0], {-0}
     8b8:	1a312600 	bne	c4a0c0 <__bss_end__+0xc3fb40>
     8bc:	0003b09f 	muleq	r3, pc, r0	; <UNPREDICTABLE>
     8c0:	0003e000 	andeq	lr, r3, r0
     8c4:	71000800 	tstvc	r0, r0, lsl #16
     8c8:	26007c00 	strcs	r7, [r0], -r0, lsl #24
     8cc:	009f1a31 	addseq	r1, pc, r1, lsr sl	; <UNPREDICTABLE>
     8d0:	00000000 	andeq	r0, r0, r0
     8d4:	04000000 	streq	r0, [r0], #-0
     8d8:	0003b000 	andeq	fp, r3, r0
     8dc:	0003c800 	andeq	ip, r3, r0, lsl #16
     8e0:	08000300 	stmdaeq	r0, {r8, r9}
     8e4:	00009ff5 	strdeq	r9, [r0], -r5
     8e8:	00000000 	andeq	r0, r0, r0
     8ec:	00010000 	andeq	r0, r1, r0
     8f0:	000003b4 			; <UNDEFINED> instruction: 0x000003b4
     8f4:	000003cc 	andeq	r0, r0, ip, asr #7
     8f8:	00540001 	subseq	r0, r4, r1
	...
     904:	0003b400 	andeq	fp, r3, r0, lsl #8
     908:	0003c800 	andeq	ip, r3, r0, lsl #16
     90c:	54000100 	strpl	r0, [r0], #-256	; 0xffffff00
	...
     918:	03bc0001 			; <UNDEFINED> instruction: 0x03bc0001
     91c:	03c00000 	biceq	r0, r0, #0, 0
     920:	00010000 	andeq	r0, r1, r0
     924:	0000005e 	andeq	r0, r0, lr, asr r0
     928:	00000000 	andeq	r0, r0, r0
     92c:	bc000000 	stclt	0, cr0, [r0], {-0}
     930:	c0000003 	andgt	r0, r0, r3
     934:	01000003 	tsteq	r0, r3
     938:	00005e00 	andeq	r5, r0, r0, lsl #28
     93c:	00000000 	andeq	r0, r0, r0
     940:	00030000 	andeq	r0, r3, r0
     944:	000002e4 	andeq	r0, r0, r4, ror #5
     948:	000002fc 	strdeq	r0, [r0], -ip
     94c:	760a0004 	strvc	r0, [sl], -r4
     950:	00009f02 	andeq	r9, r0, r2, lsl #30
     954:	00000000 	andeq	r0, r0, r0
     958:	00010000 	andeq	r0, r1, r0
     95c:	000002e8 	andeq	r0, r0, r8, ror #5
     960:	00000300 	andeq	r0, r0, r0, lsl #6
     964:	00540001 	subseq	r0, r4, r1
	...
     970:	0002e800 	andeq	lr, r2, r0, lsl #16
     974:	0002fc00 	andeq	pc, r2, r0, lsl #24
     978:	54000100 	strpl	r0, [r0], #-256	; 0xffffff00
	...
     984:	02f00001 	rscseq	r0, r0, #1, 0
     988:	02f40000 	rscseq	r0, r4, #0, 0
     98c:	00010000 	andeq	r0, r1, r0
     990:	0000005e 	andeq	r0, r0, lr, asr r0
     994:	00000000 	andeq	r0, r0, r0
     998:	f0000000 			; <UNDEFINED> instruction: 0xf0000000
     99c:	f4000002 	vst4.8	{d0-d3}, [r0], r2
     9a0:	01000002 	tsteq	r0, r2
     9a4:	00005e00 	andeq	r5, r0, r0, lsl #28
     9a8:	00000000 	andeq	r0, r0, r0
     9ac:	00040000 	andeq	r0, r4, r0
     9b0:	000002fc 	strdeq	r0, [r0], -ip
     9b4:	00000314 	andeq	r0, r0, r4, lsl r3
     9b8:	f5080003 			; <UNDEFINED> instruction: 0xf5080003
     9bc:	0000009f 	muleq	r0, pc, r0	; <UNPREDICTABLE>
     9c0:	00000000 	andeq	r0, r0, r0
     9c4:	00000100 	andeq	r0, r0, r0, lsl #2
     9c8:	20000003 	andcs	r0, r0, r3
     9cc:	01000003 	tsteq	r0, r3
     9d0:	00005400 	andeq	r5, r0, r0, lsl #8
	...
     9dc:	00000300 	andeq	r0, r0, r0, lsl #6
     9e0:	00000314 	andeq	r0, r0, r4, lsl r3
     9e4:	00540001 	subseq	r0, r4, r1
     9e8:	00000000 	andeq	r0, r0, r0
     9ec:	01000000 	mrseq	r0, (UNDEF: 0)
     9f0:	00030800 	andeq	r0, r3, r0, lsl #16
     9f4:	00030c00 	andeq	r0, r3, r0, lsl #24
     9f8:	5e000100 	adfpls	f0, f0, f0
	...
     a04:	03080000 	movweq	r0, #32768	; 0x8000
     a08:	030c0000 	movweq	r0, #49152	; 0xc000
     a0c:	00010000 	andeq	r0, r1, r0
     a10:	0000005e 	andeq	r0, r0, lr, asr r0
     a14:	00000000 	andeq	r0, r0, r0
     a18:	c8000400 	stmdagt	r0, {sl}
     a1c:	e0000003 	and	r0, r0, r3
     a20:	04000003 	streq	r0, [r0], #-3
     a24:	02760a00 	rsbseq	r0, r6, #0, 20
     a28:	0000009f 	muleq	r0, pc, r0	; <UNPREDICTABLE>
     a2c:	00000000 	andeq	r0, r0, r0
     a30:	cc000100 	stfgts	f0, [r0], {-0}
     a34:	f0000003 			; <UNDEFINED> instruction: 0xf0000003
     a38:	01000003 	tsteq	r0, r3
     a3c:	00005400 	andeq	r5, r0, r0, lsl #8
	...
     a48:	000003cc 	andeq	r0, r0, ip, asr #7
     a4c:	000003e0 	andeq	r0, r0, r0, ror #7
     a50:	00540001 	subseq	r0, r4, r1
     a54:	00000000 	andeq	r0, r0, r0
     a58:	01000000 	mrseq	r0, (UNDEF: 0)
     a5c:	0003d400 	andeq	sp, r3, r0, lsl #8
     a60:	0003d800 	andeq	sp, r3, r0, lsl #16
     a64:	5e000100 	adfpls	f0, f0, f0
	...
     a70:	03d40000 	bicseq	r0, r4, #0, 0
     a74:	03d80000 	bicseq	r0, r8, #0, 0
     a78:	00010000 	andeq	r0, r1, r0
     a7c:	0000005e 	andeq	r0, r0, lr, asr r0
     a80:	00000000 	andeq	r0, r0, r0
     a84:	24000000 	strcs	r0, [r0], #-0
     a88:	b0000003 	andlt	r0, r0, r3
     a8c:	01000003 	tsteq	r0, r3
     a90:	00005100 	andeq	r5, r0, r0, lsl #2
     a94:	00000000 	andeq	r0, r0, r0
     a98:	00010000 	andeq	r0, r1, r0
     a9c:	03240001 			; <UNDEFINED> instruction: 0x03240001
     aa0:	03340000 	teqeq	r4, #0, 0
     aa4:	00080000 	andeq	r0, r8, r0
     aa8:	00710073 	rsbseq	r0, r1, r3, ror r0
     aac:	9f1a3126 	svcls	0x001a3126
     ab0:	00000370 	andeq	r0, r0, r0, ror r3
     ab4:	0000037c 	andeq	r0, r0, ip, ror r3
     ab8:	00730008 	rsbseq	r0, r3, r8
     abc:	31260071 			; <UNDEFINED> instruction: 0x31260071
     ac0:	00009f1a 	andeq	r9, r0, sl, lsl pc
     ac4:	00000000 	andeq	r0, r0, r0
     ac8:	00030000 	andeq	r0, r3, r0
     acc:	0000037c 	andeq	r0, r0, ip, ror r3
     ad0:	00000394 	muleq	r0, r4, r3
     ad4:	f5080003 			; <UNDEFINED> instruction: 0xf5080003
     ad8:	0000009f 	muleq	r0, pc, r0	; <UNPREDICTABLE>
     adc:	00000000 	andeq	r0, r0, r0
     ae0:	80000100 	andhi	r0, r0, r0, lsl #2
     ae4:	98000003 	stmdals	r0, {r0, r1}
     ae8:	01000003 	tsteq	r0, r3
     aec:	00005e00 	andeq	r5, r0, r0, lsl #28
	...
     af8:	00000380 	andeq	r0, r0, r0, lsl #7
     afc:	00000394 	muleq	r0, r4, r3
     b00:	005e0001 	subseq	r0, lr, r1
     b04:	00000000 	andeq	r0, r0, r0
     b08:	01000000 	mrseq	r0, (UNDEF: 0)
     b0c:	00038800 	andeq	r8, r3, r0, lsl #16
     b10:	00038c00 	andeq	r8, r3, r0, lsl #24
     b14:	5c000100 	stfpls	f0, [r0], {-0}
	...
     b20:	03880000 	orreq	r0, r8, #0, 0
     b24:	038c0000 	orreq	r0, ip, #0, 0
     b28:	00010000 	andeq	r0, r1, r0
     b2c:	0000005c 	andeq	r0, r0, ip, asr r0
     b30:	00000000 	andeq	r0, r0, r0
     b34:	34000300 	strcc	r0, [r0], #-768	; 0xfffffd00
     b38:	4c000003 	stcmi	0, cr0, [r0], {3}
     b3c:	04000003 	streq	r0, [r0], #-3
     b40:	02760a00 	rsbseq	r0, r6, #0, 20
     b44:	0000009f 	muleq	r0, pc, r0	; <UNPREDICTABLE>
     b48:	00000000 	andeq	r0, r0, r0
     b4c:	38000100 	stmdacc	r0, {r8}
     b50:	50000003 	andpl	r0, r0, r3
     b54:	01000003 	tsteq	r0, r3
     b58:	00005e00 	andeq	r5, r0, r0, lsl #28
	...
     b64:	00000338 	andeq	r0, r0, r8, lsr r3
     b68:	0000034c 	andeq	r0, r0, ip, asr #6
     b6c:	005e0001 	subseq	r0, lr, r1
     b70:	00000000 	andeq	r0, r0, r0
     b74:	01000000 	mrseq	r0, (UNDEF: 0)
     b78:	00034000 	andeq	r4, r3, r0
     b7c:	00034400 	andeq	r4, r3, r0, lsl #8
     b80:	5c000100 	stfpls	f0, [r0], {-0}
	...
     b8c:	03400000 	movteq	r0, #0
     b90:	03440000 	movteq	r0, #16384	; 0x4000
     b94:	00010000 	andeq	r0, r1, r0
     b98:	0000005c 	andeq	r0, r0, ip, asr r0
     b9c:	00000000 	andeq	r0, r0, r0
     ba0:	4c000400 	cfstrsmi	mvf0, [r0], {-0}
     ba4:	64000003 	strvs	r0, [r0], #-3
     ba8:	03000003 	movweq	r0, #3
     bac:	9ff50800 	svcls	0x00f50800
	...
     bb8:	03500001 	cmpeq	r0, #1, 0
     bbc:	03640000 	cmneq	r4, #0, 0
     bc0:	00010000 	andeq	r0, r1, r0
     bc4:	0000005e 	andeq	r0, r0, lr, asr r0
     bc8:	00000000 	andeq	r0, r0, r0
     bcc:	50000000 	andpl	r0, r0, r0
     bd0:	64000003 	strvs	r0, [r0], #-3
     bd4:	01000003 	tsteq	r0, r3
     bd8:	00005e00 	andeq	r5, r0, r0, lsl #28
     bdc:	00000000 	andeq	r0, r0, r0
     be0:	00010000 	andeq	r0, r1, r0
     be4:	00000358 	andeq	r0, r0, r8, asr r3
     be8:	0000035c 	andeq	r0, r0, ip, asr r3
     bec:	005c0001 	subseq	r0, ip, r1
	...
     bf8:	00035800 	andeq	r5, r3, r0, lsl #16
     bfc:	00035c00 	andeq	r5, r3, r0, lsl #24
     c00:	5c000100 	stfpls	f0, [r0], {-0}
	...
     c0c:	03940004 	orrseq	r0, r4, #4, 0
     c10:	03b00000 	movseq	r0, #0, 0
     c14:	00040000 	andeq	r0, r4, r0
     c18:	9f02760a 	svcls	0x0002760a
	...
     c24:	03980001 	orrseq	r0, r8, #1, 0
     c28:	03b00000 	movseq	r0, #0, 0
     c2c:	00010000 	andeq	r0, r1, r0
     c30:	0000005e 	andeq	r0, r0, lr, asr r0
     c34:	00000000 	andeq	r0, r0, r0
     c38:	98000000 	stmdals	r0, {}	; <UNPREDICTABLE>
     c3c:	b0000003 	andlt	r0, r0, r3
     c40:	01000003 	tsteq	r0, r3
     c44:	00005e00 	andeq	r5, r0, r0, lsl #28
     c48:	00000000 	andeq	r0, r0, r0
     c4c:	00010000 	andeq	r0, r1, r0
     c50:	000003a0 	andeq	r0, r0, r0, lsr #7
     c54:	000003a4 	andeq	r0, r0, r4, lsr #7
     c58:	005c0001 	subseq	r0, ip, r1
	...
     c64:	0003a000 	andeq	sl, r3, r0
     c68:	0003a400 	andeq	sl, r3, r0, lsl #8
     c6c:	5c000100 	stfpls	f0, [r0], {-0}
	...
     c7c:	00000220 	andeq	r0, r0, r0, lsr #4
     c80:	00000234 	andeq	r0, r0, r4, lsr r2
     c84:	34500001 	ldrbcc	r0, [r0], #-1
     c88:	64000002 	strvs	r0, [r0], #-2
     c8c:	04000002 	streq	r0, [r0], #-2
     c90:	5001f300 	andpl	pc, r1, r0, lsl #6
     c94:	0000009f 	muleq	r0, pc, r0	; <UNPREDICTABLE>
	...
     ca0:	00022000 	andeq	r2, r2, r0
     ca4:	00023b00 	andeq	r3, r2, r0, lsl #22
     ca8:	51000100 	mrspl	r0, (UNDEF: 16)
     cac:	0000023b 	andeq	r0, r0, fp, lsr r2
     cb0:	00000264 	andeq	r0, r0, r4, ror #4
     cb4:	00550001 	subseq	r0, r5, r1
	...
     cc0:	40000000 	andmi	r0, r0, r0
     cc4:	4b000002 	blmi	cd4 <__code_start__-0x732c>
     cc8:	01000002 	tsteq	r0, r2
     ccc:	024b5000 	subeq	r5, fp, #0, 0
     cd0:	02640000 	rsbeq	r0, r4, #0, 0
     cd4:	00010000 	andeq	r0, r1, r0
     cd8:	00000054 	andeq	r0, r0, r4, asr r0
     cdc:	00000000 	andeq	r0, r0, r0
     ce0:	2c000000 	stccs	0, cr0, [r0], {-0}
     ce4:	64000002 	strvs	r0, [r0], #-2
     ce8:	01000002 	tsteq	r0, r2
     cec:	00005700 	andeq	r5, r0, r0, lsl #14
	...
     cfc:	004c0000 	subeq	r0, ip, r0
     d00:	00010000 	andeq	r0, r1, r0
     d04:	00004c50 	andeq	r4, r0, r0, asr ip
     d08:	00022000 	andeq	r2, r2, r0
     d0c:	f3000400 	vshl.u8	d0, d0, d0
     d10:	009f5001 	addseq	r5, pc, r1
	...
     d1c:	00003000 	andeq	r3, r0, r0
     d20:	00004c00 	andeq	r4, r0, r0, lsl #24
     d24:	30000200 	andcc	r0, r0, r0, lsl #4
     d28:	0000009f 	muleq	r0, pc, r0	; <UNPREDICTABLE>
	...
     d34:	00005800 	andeq	r5, r0, r0, lsl #16
     d38:	00013c00 	andeq	r3, r1, r0, lsl #24
     d3c:	54000100 	strpl	r0, [r0], #-256	; 0xffffff00
     d40:	00000158 	andeq	r0, r0, r8, asr r1
     d44:	00000220 	andeq	r0, r0, r0, lsr #4
     d48:	00540001 	subseq	r0, r4, r1
	...
     d58:	00005800 	andeq	r5, r0, r0, lsl #16
     d5c:	00005c00 	andeq	r5, r0, r0, lsl #24
     d60:	70000200 	andvc	r0, r0, r0, lsl #4
     d64:	00005c09 	andeq	r5, r0, r9, lsl #24
     d68:	0000a800 	andeq	sl, r0, r0, lsl #16
     d6c:	57000100 	strpl	r0, [r0, -r0, lsl #2]
     d70:	000001d8 	ldrdeq	r0, [r0], -r8
     d74:	00000220 	andeq	r0, r0, r0, lsr #4
     d78:	00570001 	subseq	r0, r7, r1
	...
     d84:	58000000 	stmdapl	r0, {}	; <UNPREDICTABLE>
     d88:	f4000000 	vst4.8	{d0-d3}, [r0], r0
     d8c:	01000000 	mrseq	r0, (UNDEF: 0)
     d90:	01985600 	orrseq	r5, r8, r0, lsl #12
     d94:	02200000 	eoreq	r0, r0, #0, 0
     d98:	00010000 	andeq	r0, r1, r0
     d9c:	00000056 	andeq	r0, r0, r6, asr r0
     da0:	00000000 	andeq	r0, r0, r0
     da4:	00000200 	andeq	r0, r0, r0, lsl #4
     da8:	58000000 	stmdapl	r0, {}	; <UNPREDICTABLE>
     dac:	5c000000 	stcpl	0, cr0, [r0], {-0}
     db0:	02000000 	andeq	r0, r0, #0, 0
     db4:	5c097000 	stcpl	0, cr7, [r9], {-0}
     db8:	a8000000 	stmdage	r0, {}	; <UNPREDICTABLE>
     dbc:	01000000 	mrseq	r0, (UNDEF: 0)
     dc0:	01d85700 	bicseq	r5, r8, r0, lsl #14
     dc4:	02200000 	eoreq	r0, r0, #0, 0
     dc8:	00010000 	andeq	r0, r1, r0
     dcc:	00000057 	andeq	r0, r0, r7, asr r0
     dd0:	00000000 	andeq	r0, r0, r0
     dd4:	00000500 	andeq	r0, r0, r0, lsl #10
     dd8:	58000000 	stmdapl	r0, {}	; <UNPREDICTABLE>
     ddc:	5c000000 	stcpl	0, cr0, [r0], {-0}
     de0:	02000000 	andeq	r0, r0, #0, 0
     de4:	5c9f3000 	ldcpl	0, cr3, [pc], {0}
     de8:	a8000000 	stmdage	r0, {}	; <UNPREDICTABLE>
     dec:	01000000 	mrseq	r0, (UNDEF: 0)
     df0:	01d85100 	bicseq	r5, r8, r0, lsl #2
     df4:	02200000 	eoreq	r0, r0, #0, 0
     df8:	00010000 	andeq	r0, r1, r0
     dfc:	00000051 	andeq	r0, r0, r1, asr r0
     e00:	00000000 	andeq	r0, r0, r0
     e04:	00000100 	andeq	r0, r0, r0, lsl #2
     e08:	00005c00 	andeq	r5, r0, r0, lsl #24
     e0c:	00009800 	andeq	r9, r0, r0, lsl #16
     e10:	77000800 	strvc	r0, [r0, -r0, lsl #16]
     e14:	26007100 	strcs	r7, [r0], -r0, lsl #2
     e18:	d89f1a31 	ldmle	pc, {r0, r4, r5, r9, fp, ip}	; <UNPREDICTABLE>
     e1c:	08000001 	stmdaeq	r0, {r0}
     e20:	08000002 	stmdaeq	r0, {r1}
     e24:	71007700 	tstvc	r0, r0, lsl #14
     e28:	1a312600 	bne	c4a630 <__bss_end__+0xc400b0>
     e2c:	0000009f 	muleq	r0, pc, r0	; <UNPREDICTABLE>
     e30:	00000000 	andeq	r0, r0, r0
     e34:	d8000400 	stmdale	r0, {sl}
     e38:	f0000001 			; <UNDEFINED> instruction: 0xf0000001
     e3c:	03000001 	movweq	r0, #1
     e40:	9ff50800 	svcls	0x00f50800
	...
     e4c:	01dc0001 	bicseq	r0, ip, r1
     e50:	01f40000 	mvnseq	r0, r0
     e54:	00010000 	andeq	r0, r1, r0
     e58:	00000058 	andeq	r0, r0, r8, asr r0
     e5c:	00000000 	andeq	r0, r0, r0
     e60:	dc000000 	stcle	0, cr0, [r0], {-0}
     e64:	f0000001 			; <UNDEFINED> instruction: 0xf0000001
     e68:	01000001 	tsteq	r0, r1
     e6c:	00005800 	andeq	r5, r0, r0, lsl #16
     e70:	00000000 	andeq	r0, r0, r0
     e74:	00010000 	andeq	r0, r1, r0
     e78:	000001e4 	andeq	r0, r0, r4, ror #3
     e7c:	000001e8 	andeq	r0, r0, r8, ror #3
     e80:	005c0001 	subseq	r0, ip, r1
	...
     e8c:	0001e400 	andeq	lr, r1, r0, lsl #8
     e90:	0001e800 	andeq	lr, r1, r0, lsl #16
     e94:	5c000100 	stfpls	f0, [r0], {-0}
	...
     ea0:	00680003 	rsbeq	r0, r8, r3
     ea4:	00800000 	addeq	r0, r0, r0
     ea8:	00040000 	andeq	r0, r4, r0
     eac:	9f02760a 	svcls	0x0002760a
	...
     eb8:	006c0001 	rsbeq	r0, ip, r1
     ebc:	00840000 	addeq	r0, r4, r0
     ec0:	00010000 	andeq	r0, r1, r0
     ec4:	00000058 	andeq	r0, r0, r8, asr r0
     ec8:	00000000 	andeq	r0, r0, r0
     ecc:	6c000000 	stcvs	0, cr0, [r0], {-0}
     ed0:	80000000 	andhi	r0, r0, r0
     ed4:	01000000 	mrseq	r0, (UNDEF: 0)
     ed8:	00005800 	andeq	r5, r0, r0, lsl #16
     edc:	00000000 	andeq	r0, r0, r0
     ee0:	00010000 	andeq	r0, r1, r0
     ee4:	00000074 	andeq	r0, r0, r4, ror r0
     ee8:	00000078 	andeq	r0, r0, r8, ror r0
     eec:	005c0001 	subseq	r0, ip, r1
	...
     ef8:	00007400 	andeq	r7, r0, r0, lsl #8
     efc:	00007800 	andeq	r7, r0, r0, lsl #16
     f00:	5c000100 	stfpls	f0, [r0], {-0}
	...
     f0c:	00800004 	addeq	r0, r0, r4
     f10:	00980000 	addseq	r0, r8, r0
     f14:	00030000 	andeq	r0, r3, r0
     f18:	009ff508 	addseq	pc, pc, r8, lsl #10
     f1c:	00000000 	andeq	r0, r0, r0
     f20:	01000000 	mrseq	r0, (UNDEF: 0)
     f24:	00008400 	andeq	r8, r0, r0, lsl #8
     f28:	0000a400 	andeq	sl, r0, r0, lsl #8
     f2c:	58000100 	stmdapl	r0, {r8}
	...
     f38:	00840000 	addeq	r0, r4, r0
     f3c:	00980000 	addseq	r0, r8, r0
     f40:	00010000 	andeq	r0, r1, r0
     f44:	00000058 	andeq	r0, r0, r8, asr r0
     f48:	00000000 	andeq	r0, r0, r0
     f4c:	8c000100 	stfhis	f0, [r0], {-0}
     f50:	90000000 	andls	r0, r0, r0
     f54:	01000000 	mrseq	r0, (UNDEF: 0)
     f58:	00005c00 	andeq	r5, r0, r0, lsl #24
	...
     f64:	0000008c 	andeq	r0, r0, ip, lsl #1
     f68:	00000090 	muleq	r0, r0, r0
     f6c:	005c0001 	subseq	r0, ip, r1
     f70:	00000000 	andeq	r0, r0, r0
     f74:	04000000 	streq	r0, [r0], #-0
     f78:	0001f000 	andeq	pc, r1, r0
     f7c:	00020800 	andeq	r0, r2, r0, lsl #16
     f80:	0a000400 	beq	1f88 <__code_start__-0x6078>
     f84:	009f0276 	addseq	r0, pc, r6, ror r2	; <UNPREDICTABLE>
     f88:	00000000 	andeq	r0, r0, r0
     f8c:	01000000 	mrseq	r0, (UNDEF: 0)
     f90:	0001f400 	andeq	pc, r1, r0, lsl #8
     f94:	00022000 	andeq	r2, r2, r0
     f98:	58000100 	stmdapl	r0, {r8}
	...
     fa4:	01f40000 	mvnseq	r0, r0
     fa8:	02080000 	andeq	r0, r8, #0, 0
     fac:	00010000 	andeq	r0, r1, r0
     fb0:	00000058 	andeq	r0, r0, r8, asr r0
     fb4:	00000000 	andeq	r0, r0, r0
     fb8:	fc000100 	stc2	1, cr0, [r0], {-0}
     fbc:	00000001 	andeq	r0, r0, r1
     fc0:	01000002 	tsteq	r0, r2
     fc4:	00005c00 	andeq	r5, r0, r0, lsl #24
	...
     fd0:	000001fc 	strdeq	r0, [r0], -ip
     fd4:	00000200 	andeq	r0, r0, r0, lsl #4
     fd8:	005c0001 	subseq	r0, ip, r1
	...
     fe4:	a8000000 	stmdage	r0, {}	; <UNPREDICTABLE>
     fe8:	f4000000 	vst4.8	{d0-d3}, [r0], r0
     fec:	01000000 	mrseq	r0, (UNDEF: 0)
     ff0:	01985100 	orrseq	r5, r8, r0, lsl #2
     ff4:	01d80000 	bicseq	r0, r8, r0
     ff8:	00010000 	andeq	r0, r1, r0
     ffc:	00000051 	andeq	r0, r0, r1, asr r0
    1000:	00000000 	andeq	r0, r0, r0
    1004:	00000100 	andeq	r0, r0, r0, lsl #2
    1008:	0000a800 	andeq	sl, r0, r0, lsl #16
    100c:	0000e400 	andeq	lr, r0, r0, lsl #8
    1010:	76000800 	strvc	r0, [r0], -r0, lsl #16
    1014:	26007100 	strcs	r7, [r0], -r0, lsl #2
    1018:	989f1a31 	ldmls	pc, {r0, r4, r5, r9, fp, ip}	; <UNPREDICTABLE>
    101c:	c8000001 	stmdagt	r0, {r0}
    1020:	08000001 	stmdaeq	r0, {r0}
    1024:	71007600 	tstvc	r0, r0, lsl #12
    1028:	1a312600 	bne	c4a830 <__bss_end__+0xc402b0>
    102c:	0000009f 	muleq	r0, pc, r0	; <UNPREDICTABLE>
    1030:	00000000 	andeq	r0, r0, r0
    1034:	b4000300 	strlt	r0, [r0], #-768	; 0xfffffd00
    1038:	cc000000 	stcgt	0, cr0, [r0], {-0}
    103c:	04000000 	streq	r0, [r0], #-0
    1040:	02760a00 	rsbseq	r0, r6, #0, 20
    1044:	0000009f 	muleq	r0, pc, r0	; <UNPREDICTABLE>
    1048:	00000000 	andeq	r0, r0, r0
    104c:	b8000100 	stmdalt	r0, {r8}
    1050:	d0000000 	andle	r0, r0, r0
    1054:	01000000 	mrseq	r0, (UNDEF: 0)
    1058:	00005700 	andeq	r5, r0, r0, lsl #14
	...
    1064:	000000b8 	strheq	r0, [r0], -r8
    1068:	000000cc 	andeq	r0, r0, ip, asr #1
    106c:	00570001 	subseq	r0, r7, r1
    1070:	00000000 	andeq	r0, r0, r0
    1074:	01000000 	mrseq	r0, (UNDEF: 0)
    1078:	0000c000 	andeq	ip, r0, r0
    107c:	0000c400 	andeq	ip, r0, r0, lsl #8
    1080:	5c000100 	stfpls	f0, [r0], {-0}
	...
    108c:	00c00000 	sbceq	r0, r0, r0
    1090:	00c40000 	sbceq	r0, r4, r0
    1094:	00010000 	andeq	r0, r1, r0
    1098:	0000005c 	andeq	r0, r0, ip, asr r0
    109c:	00000000 	andeq	r0, r0, r0
    10a0:	cc000400 	cfstrsgt	mvf0, [r0], {-0}
    10a4:	e4000000 	str	r0, [r0], #-0
    10a8:	03000000 	movweq	r0, #0
    10ac:	9ff50800 	svcls	0x00f50800
	...
    10b8:	00d00001 	sbcseq	r0, r0, r1
    10bc:	00f00000 	rscseq	r0, r0, r0
    10c0:	00010000 	andeq	r0, r1, r0
    10c4:	00000057 	andeq	r0, r0, r7, asr r0
    10c8:	00000000 	andeq	r0, r0, r0
    10cc:	d0000000 	andle	r0, r0, r0
    10d0:	e4000000 	str	r0, [r0], #-0
    10d4:	01000000 	mrseq	r0, (UNDEF: 0)
    10d8:	00005700 	andeq	r5, r0, r0, lsl #14
    10dc:	00000000 	andeq	r0, r0, r0
    10e0:	00010000 	andeq	r0, r1, r0
    10e4:	000000d8 	ldrdeq	r0, [r0], -r8
    10e8:	000000dc 	ldrdeq	r0, [r0], -ip
    10ec:	005c0001 	subseq	r0, ip, r1
	...
    10f8:	0000d800 	andeq	sp, r0, r0, lsl #16
    10fc:	0000dc00 	andeq	sp, r0, r0, lsl #24
    1100:	5c000100 	stfpls	f0, [r0], {-0}
	...
    110c:	01980004 	orrseq	r0, r8, r4
    1110:	01b00000 	movseq	r0, r0
    1114:	00030000 	andeq	r0, r3, r0
    1118:	009ff508 	addseq	pc, pc, r8, lsl #10
    111c:	00000000 	andeq	r0, r0, r0
    1120:	01000000 	mrseq	r0, (UNDEF: 0)
    1124:	00019c00 	andeq	r9, r1, r0, lsl #24
    1128:	0001b400 	andeq	fp, r1, r0, lsl #8
    112c:	57000100 	strpl	r0, [r0, -r0, lsl #2]
	...
    1138:	019c0000 	orrseq	r0, ip, r0
    113c:	01b00000 	movseq	r0, r0
    1140:	00010000 	andeq	r0, r1, r0
    1144:	00000057 	andeq	r0, r0, r7, asr r0
    1148:	00000000 	andeq	r0, r0, r0
    114c:	a4000100 	strge	r0, [r0], #-256	; 0xffffff00
    1150:	a8000001 	stmdage	r0, {r0}
    1154:	01000001 	tsteq	r0, r1
    1158:	00005c00 	andeq	r5, r0, r0, lsl #24
	...
    1164:	000001a4 	andeq	r0, r0, r4, lsr #3
    1168:	000001a8 	andeq	r0, r0, r8, lsr #3
    116c:	005c0001 	subseq	r0, ip, r1
    1170:	00000000 	andeq	r0, r0, r0
    1174:	04000000 	streq	r0, [r0], #-0
    1178:	0001b000 	andeq	fp, r1, r0
    117c:	0001c800 	andeq	ip, r1, r0, lsl #16
    1180:	0a000400 	beq	2188 <__code_start__-0x5e78>
    1184:	009f0276 	addseq	r0, pc, r6, ror r2	; <UNPREDICTABLE>
    1188:	00000000 	andeq	r0, r0, r0
    118c:	01000000 	mrseq	r0, (UNDEF: 0)
    1190:	0001b400 	andeq	fp, r1, r0, lsl #8
    1194:	0001d800 	andeq	sp, r1, r0, lsl #16
    1198:	57000100 	strpl	r0, [r0, -r0, lsl #2]
	...
    11a4:	01b40000 			; <UNDEFINED> instruction: 0x01b40000
    11a8:	01c80000 	biceq	r0, r8, r0
    11ac:	00010000 	andeq	r0, r1, r0
    11b0:	00000057 	andeq	r0, r0, r7, asr r0
    11b4:	00000000 	andeq	r0, r0, r0
    11b8:	bc000100 	stflts	f0, [r0], {-0}
    11bc:	c0000001 	andgt	r0, r0, r1
    11c0:	01000001 	tsteq	r0, r1
    11c4:	00005c00 	andeq	r5, r0, r0, lsl #24
	...
    11d0:	000001bc 			; <UNDEFINED> instruction: 0x000001bc
    11d4:	000001c0 	andeq	r0, r0, r0, asr #3
    11d8:	005c0001 	subseq	r0, ip, r1
	...
    11e4:	f4000000 	vst4.8	{d0-d3}, [r0], r0
    11e8:	3c000000 	stccc	0, cr0, [r0], {-0}
    11ec:	01000001 	tsteq	r0, r1
    11f0:	01585100 	cmpeq	r8, r0, lsl #2
    11f4:	01980000 	orrseq	r0, r8, r0
    11f8:	00010000 	andeq	r0, r1, r0
    11fc:	00000051 	andeq	r0, r0, r1, asr r0
    1200:	00000000 	andeq	r0, r0, r0
    1204:	00000100 	andeq	r0, r0, r0, lsl #2
    1208:	0000f400 	andeq	pc, r0, r0, lsl #8
    120c:	00013000 	andeq	r3, r1, r0
    1210:	74000800 	strvc	r0, [r0], #-2048	; 0xfffff800
    1214:	26007100 	strcs	r7, [r0], -r0, lsl #2
    1218:	589f1a31 	ldmpl	pc, {r0, r4, r5, r9, fp, ip}	; <UNPREDICTABLE>
    121c:	88000001 	stmdahi	r0, {r0}
    1220:	08000001 	stmdaeq	r0, {r0}
    1224:	71007400 	tstvc	r0, r0, lsl #8
    1228:	1a312600 	bne	c4aa30 <__bss_end__+0xc404b0>
    122c:	0000009f 	muleq	r0, pc, r0	; <UNPREDICTABLE>
    1230:	00000000 	andeq	r0, r0, r0
    1234:	00000300 	andeq	r0, r0, r0, lsl #6
    1238:	18000001 	stmdane	r0, {r0}
    123c:	04000001 	streq	r0, [r0], #-1
    1240:	02760a00 	rsbseq	r0, r6, #0, 20
    1244:	0000009f 	muleq	r0, pc, r0	; <UNPREDICTABLE>
    1248:	00000000 	andeq	r0, r0, r0
    124c:	04000100 	streq	r0, [r0], #-256	; 0xffffff00
    1250:	1c000001 	stcne	0, cr0, [r0], {1}
    1254:	01000001 	tsteq	r0, r1
    1258:	00005600 	andeq	r5, r0, r0, lsl #12
	...
    1264:	00000104 	andeq	r0, r0, r4, lsl #2
    1268:	00000118 	andeq	r0, r0, r8, lsl r1
    126c:	00560001 	subseq	r0, r6, r1
    1270:	00000000 	andeq	r0, r0, r0
    1274:	01000000 	mrseq	r0, (UNDEF: 0)
    1278:	00010c00 	andeq	r0, r1, r0, lsl #24
    127c:	00011000 	andeq	r1, r1, r0
    1280:	5c000100 	stfpls	f0, [r0], {-0}
	...
    128c:	010c0000 	mrseq	r0, (UNDEF: 12)
    1290:	01100000 	tsteq	r0, r0
    1294:	00010000 	andeq	r0, r1, r0
    1298:	0000005c 	andeq	r0, r0, ip, asr r0
    129c:	00000000 	andeq	r0, r0, r0
    12a0:	18000400 	stmdane	r0, {sl}
    12a4:	30000001 	andcc	r0, r0, r1
    12a8:	03000001 	movweq	r0, #1
    12ac:	9ff50800 	svcls	0x00f50800
	...
    12b8:	011c0001 	tsteq	ip, r1
    12bc:	013c0000 	teqeq	ip, r0
    12c0:	00010000 	andeq	r0, r1, r0
    12c4:	00000056 	andeq	r0, r0, r6, asr r0
    12c8:	00000000 	andeq	r0, r0, r0
    12cc:	1c000000 	stcne	0, cr0, [r0], {-0}
    12d0:	30000001 	andcc	r0, r0, r1
    12d4:	01000001 	tsteq	r0, r1
    12d8:	00005600 	andeq	r5, r0, r0, lsl #12
    12dc:	00000000 	andeq	r0, r0, r0
    12e0:	00010000 	andeq	r0, r1, r0
    12e4:	00000124 	andeq	r0, r0, r4, lsr #2
    12e8:	00000128 	andeq	r0, r0, r8, lsr #2
    12ec:	005c0001 	subseq	r0, ip, r1
	...
    12f8:	00012400 	andeq	r2, r1, r0, lsl #8
    12fc:	00012800 	andeq	r2, r1, r0, lsl #16
    1300:	5c000100 	stfpls	f0, [r0], {-0}
	...
    130c:	01580003 	cmpeq	r8, r3
    1310:	01700000 	cmneq	r0, r0
    1314:	00030000 	andeq	r0, r3, r0
    1318:	009ff508 	addseq	pc, pc, r8, lsl #10
    131c:	00000000 	andeq	r0, r0, r0
    1320:	01000000 	mrseq	r0, (UNDEF: 0)
    1324:	00015c00 	andeq	r5, r1, r0, lsl #24
    1328:	00017400 	andeq	r7, r1, r0, lsl #8
    132c:	56000100 	strpl	r0, [r0], -r0, lsl #2
	...
    1338:	015c0000 	cmpeq	ip, r0
    133c:	01700000 	cmneq	r0, r0
    1340:	00010000 	andeq	r0, r1, r0
    1344:	00000056 	andeq	r0, r0, r6, asr r0
    1348:	00000000 	andeq	r0, r0, r0
    134c:	64000100 	strvs	r0, [r0], #-256	; 0xffffff00
    1350:	68000001 	stmdavs	r0, {r0}
    1354:	01000001 	tsteq	r0, r1
    1358:	00005c00 	andeq	r5, r0, r0, lsl #24
	...
    1364:	00000164 	andeq	r0, r0, r4, ror #2
    1368:	00000168 	andeq	r0, r0, r8, ror #2
    136c:	005c0001 	subseq	r0, ip, r1
    1370:	00000000 	andeq	r0, r0, r0
    1374:	04000000 	streq	r0, [r0], #-0
    1378:	00017000 	andeq	r7, r1, r0
    137c:	00018800 	andeq	r8, r1, r0, lsl #16
    1380:	0a000400 	beq	2388 <__code_start__-0x5c78>
    1384:	009f0276 	addseq	r0, pc, r6, ror r2	; <UNPREDICTABLE>
    1388:	00000000 	andeq	r0, r0, r0
    138c:	01000000 	mrseq	r0, (UNDEF: 0)
    1390:	00017400 	andeq	r7, r1, r0, lsl #8
    1394:	00019800 	andeq	r9, r1, r0, lsl #16
    1398:	56000100 	strpl	r0, [r0], -r0, lsl #2
	...
    13a4:	01740000 	cmneq	r4, r0
    13a8:	01880000 	orreq	r0, r8, r0
    13ac:	00010000 	andeq	r0, r1, r0
    13b0:	00000056 	andeq	r0, r0, r6, asr r0
    13b4:	00000000 	andeq	r0, r0, r0
    13b8:	7c000100 	stfvcs	f0, [r0], {-0}
    13bc:	80000001 	andhi	r0, r0, r1
    13c0:	01000001 	tsteq	r0, r1
    13c4:	00005c00 	andeq	r5, r0, r0, lsl #24
	...
    13d0:	0000017c 	andeq	r0, r0, ip, ror r1
    13d4:	00000180 	andeq	r0, r0, r0, lsl #3
    13d8:	005c0001 	subseq	r0, ip, r1
    13dc:	00000000 	andeq	r0, r0, r0
    13e0:	02000000 	andeq	r0, r0, #0, 0
    13e4:	00000000 	andeq	r0, r0, r0
    13e8:	00002000 	andeq	r2, r0, r0
    13ec:	70000800 	andvc	r0, r0, r0, lsl #16
    13f0:	08019400 	stmdaeq	r1, {sl, ip, pc}
    13f4:	009f1aff 			; <UNDEFINED> instruction: 0x009f1aff
    13f8:	00000000 	andeq	r0, r0, r0
    13fc:	04000000 	streq	r0, [r0], #-0
    1400:	00000000 	andeq	r0, r0, r0
    1404:	00002000 	andeq	r2, r0, r0
    1408:	70000800 	andvc	r0, r0, r0, lsl #16
    140c:	08019400 	stmdaeq	r1, {sl, ip, pc}
    1410:	009f1aff 			; <UNDEFINED> instruction: 0x009f1aff
    1414:	00000000 	andeq	r0, r0, r0
    1418:	06000000 	streq	r0, [r0], -r0
    141c:	00000000 	andeq	r0, r0, r0
    1420:	00003000 	andeq	r3, r0, r0
    1424:	0a000400 	beq	242c <__code_start__-0x5bd4>
    1428:	009f88b8 			; <UNDEFINED> instruction: 0x009f88b8
    142c:	00000000 	andeq	r0, r0, r0
    1430:	06000000 	streq	r0, [r0], -r0
    1434:	00000000 	andeq	r0, r0, r0
    1438:	00002000 	andeq	r2, r0, r0
    143c:	70000800 	andvc	r0, r0, r0, lsl #16
    1440:	08019400 	stmdaeq	r1, {sl, ip, pc}
    1444:	009f1aff 			; <UNDEFINED> instruction: 0x009f1aff
    1448:	00000000 	andeq	r0, r0, r0
    144c:	01000000 	mrseq	r0, (UNDEF: 0)
    1450:	00000800 	andeq	r0, r0, r0, lsl #16
    1454:	00004c00 	andeq	r4, r0, r0, lsl #24
    1458:	5c000100 	stfpls	f0, [r0], {-0}
	...
    1464:	00080000 	andeq	r0, r8, r0
    1468:	00300000 	eorseq	r0, r0, r0
    146c:	00010000 	andeq	r0, r1, r0
    1470:	0000005c 	andeq	r0, r0, ip, asr r0
    1474:	00000000 	andeq	r0, r0, r0
    1478:	00000300 	andeq	r0, r0, r0, lsl #6
    147c:	08000000 	stmdaeq	r0, {}	; <UNPREDICTABLE>
    1480:	10000000 	andne	r0, r0, r0
    1484:	08000000 	stmdaeq	r0, {}	; <UNPREDICTABLE>
    1488:	94007000 	strls	r7, [r0], #-0
    148c:	1aff0801 	bne	fffc3498 <__bss_end__+0xfffb8f18>
    1490:	0000109f 	muleq	r0, pc, r0	; <UNPREDICTABLE>
    1494:	00001800 	andeq	r1, r0, r0, lsl #16
    1498:	53000100 	movwpl	r0, #256	; 0x100
    149c:	00000018 	andeq	r0, r0, r8, lsl r0
    14a0:	00000020 	andeq	r0, r0, r0, lsr #32
    14a4:	00700008 	rsbseq	r0, r0, r8
    14a8:	ff080194 			; <UNDEFINED> instruction: 0xff080194
    14ac:	00009f1a 	andeq	r9, r0, sl, lsl pc
    14b0:	00000000 	andeq	r0, r0, r0
    14b4:	00010000 	andeq	r0, r1, r0
    14b8:	00000024 	andeq	r0, r0, r4, lsr #32
    14bc:	00000028 	andeq	r0, r0, r8, lsr #32
    14c0:	00520001 	subseq	r0, r2, r1
	...
    14cc:	00002400 	andeq	r2, r0, r0, lsl #8
    14d0:	00002800 	andeq	r2, r0, r0, lsl #16
    14d4:	52000100 	andpl	r0, r0, #0
	...
    14e8:	00000440 	andeq	r0, r0, r0, asr #8
    14ec:	00000527 	andeq	r0, r0, r7, lsr #10
    14f0:	27500001 	ldrbcs	r0, [r0, -r1]
    14f4:	28000005 	stmdacs	r0, {r0, r2}
    14f8:	04000005 	streq	r0, [r0], #-5
    14fc:	5001f300 	andpl	pc, r1, r0, lsl #6
    1500:	0005289f 	muleq	r5, pc, r8	; <UNPREDICTABLE>
    1504:	00052b00 	andeq	r2, r5, r0, lsl #22
    1508:	50000100 	andpl	r0, r0, r0, lsl #2
    150c:	0000052b 	andeq	r0, r0, fp, lsr #10
    1510:	00000530 	andeq	r0, r0, r0, lsr r5
    1514:	01f30004 	mvnseq	r0, r4
    1518:	00009f50 	andeq	r9, r0, r0, asr pc
	...
    1528:	04400000 	strbeq	r0, [r0], #-0
    152c:	05270000 	streq	r0, [r7, #-0]!
    1530:	00010000 	andeq	r0, r1, r0
    1534:	00052751 	andeq	r2, r5, r1, asr r7
    1538:	00052800 	andeq	r2, r5, r0, lsl #16
    153c:	f3000400 	vshl.u8	d0, d0, d0
    1540:	289f5101 	ldmcs	pc, {r0, r8, ip, lr}	; <UNPREDICTABLE>
    1544:	2b000005 	blcs	1560 <__code_start__-0x6aa0>
    1548:	01000005 	tsteq	r0, r5
    154c:	052b5100 	streq	r5, [fp, #-256]!	; 0xffffff00
    1550:	05300000 	ldreq	r0, [r0, #-0]!
    1554:	00040000 	andeq	r0, r4, r0
    1558:	9f5101f3 	svcls	0x005101f3
	...
    1564:	00000003 	andeq	r0, r0, r3
    1568:	04400000 	strbeq	r0, [r0], #-0
    156c:	04600000 	strbteq	r0, [r0], #-0
    1570:	00020000 	andeq	r0, r2, r0
    1574:	04609f30 	strbteq	r9, [r0], #-3888	; 0xfffff0d0
    1578:	05240000 	streq	r0, [r4, #-0]!
    157c:	00010000 	andeq	r0, r1, r0
    1580:	0005285e 	andeq	r2, r5, lr, asr r8
    1584:	00053000 	andeq	r3, r5, r0
    1588:	30000200 	andcc	r0, r0, r0, lsl #4
    158c:	0000009f 	muleq	r0, pc, r0	; <UNPREDICTABLE>
    1590:	00000000 	andeq	r0, r0, r0
    1594:	60000200 	andvs	r0, r0, r0, lsl #4
    1598:	14000004 	strne	r0, [r0], #-4
    159c:	02000005 	andeq	r0, r0, #5, 0
    15a0:	009f3000 	addseq	r3, pc, r0
    15a4:	00000000 	andeq	r0, r0, r0
    15a8:	04000000 	streq	r0, [r0], #-0
    15ac:	00046000 	andeq	r6, r4, r0
    15b0:	0004a000 	andeq	sl, r4, r0
    15b4:	30000200 	andcc	r0, r0, r0, lsl #4
    15b8:	0000009f 	muleq	r0, pc, r0	; <UNPREDICTABLE>
    15bc:	00000000 	andeq	r0, r0, r0
    15c0:	60000700 	andvs	r0, r0, r0, lsl #14
    15c4:	64000004 	strvs	r0, [r0], #-4
    15c8:	02000004 	andeq	r0, r0, #4, 0
    15cc:	009f3000 	addseq	r3, pc, r0
    15d0:	00000000 	andeq	r0, r0, r0
    15d4:	01000000 	mrseq	r0, (UNDEF: 0)
    15d8:	00046400 	andeq	r6, r4, r0, lsl #8
    15dc:	00049400 	andeq	r9, r4, r0, lsl #8
    15e0:	30000200 	andcc	r0, r0, r0, lsl #4
    15e4:	0000009f 	muleq	r0, pc, r0	; <UNPREDICTABLE>
    15e8:	00000000 	andeq	r0, r0, r0
    15ec:	64000600 	strvs	r0, [r0], #-1536	; 0xfffffa00
    15f0:	7c000004 	stcvc	0, cr0, [r0], {4}
    15f4:	03000004 	movweq	r0, #4
    15f8:	9ff50800 	svcls	0x00f50800
	...
    1604:	04680001 	strbteq	r0, [r8], #-1
    1608:	04800000 	streq	r0, [r0], #0
    160c:	00010000 	andeq	r0, r1, r0
    1610:	00000055 	andeq	r0, r0, r5, asr r0
    1614:	00000000 	andeq	r0, r0, r0
    1618:	68000000 	stmdavs	r0, {}	; <UNPREDICTABLE>
    161c:	7c000004 	stcvc	0, cr0, [r0], {4}
    1620:	01000004 	tsteq	r0, r4
    1624:	00005500 	andeq	r5, r0, r0, lsl #10
    1628:	00000000 	andeq	r0, r0, r0
    162c:	00010000 	andeq	r0, r1, r0
    1630:	00000470 	andeq	r0, r0, r0, ror r4
    1634:	00000474 	andeq	r0, r0, r4, ror r4
    1638:	005c0001 	subseq	r0, ip, r1
	...
    1644:	00047000 	andeq	r7, r4, r0
    1648:	00047400 	andeq	r7, r4, r0, lsl #8
    164c:	5c000100 	stfpls	f0, [r0], {-0}
	...
    1658:	047c0004 	ldrbteq	r0, [ip], #-4
    165c:	04940000 	ldreq	r0, [r4], #0
    1660:	00040000 	andeq	r0, r4, r0
    1664:	9f02760a 	svcls	0x0002760a
	...
    1670:	04800001 	streq	r0, [r0], #1
    1674:	04a00000 	strteq	r0, [r0], #0
    1678:	00010000 	andeq	r0, r1, r0
    167c:	00000055 	andeq	r0, r0, r5, asr r0
    1680:	00000000 	andeq	r0, r0, r0
    1684:	80000000 	andhi	r0, r0, r0
    1688:	94000004 	strls	r0, [r0], #-4
    168c:	01000004 	tsteq	r0, r4
    1690:	00005500 	andeq	r5, r0, r0, lsl #10
    1694:	00000000 	andeq	r0, r0, r0
    1698:	00010000 	andeq	r0, r1, r0
    169c:	00000488 	andeq	r0, r0, r8, lsl #9
    16a0:	0000048c 	andeq	r0, r0, ip, lsl #9
    16a4:	005c0001 	subseq	r0, ip, r1
	...
    16b0:	00048800 	andeq	r8, r4, r0, lsl #16
    16b4:	00048c00 	andeq	r8, r4, r0, lsl #24
    16b8:	5c000100 	stfpls	f0, [r0], {-0}
	...
    16c4:	04a00002 	strteq	r0, [r0], #2
    16c8:	04d00000 	ldrbeq	r0, [r0], #0
    16cc:	00020000 	andeq	r0, r2, r0
    16d0:	00009f30 	andeq	r9, r0, r0, lsr pc
    16d4:	00000000 	andeq	r0, r0, r0
    16d8:	00070000 	andeq	r0, r7, r0
    16dc:	000004a0 	andeq	r0, r0, r0, lsr #9
    16e0:	000004b8 			; <UNDEFINED> instruction: 0x000004b8
    16e4:	f5080003 			; <UNDEFINED> instruction: 0xf5080003
    16e8:	0000009f 	muleq	r0, pc, r0	; <UNPREDICTABLE>
    16ec:	00000000 	andeq	r0, r0, r0
    16f0:	a4000100 	strge	r0, [r0], #-256	; 0xffffff00
    16f4:	bc000004 	stclt	0, cr0, [r0], {4}
    16f8:	01000004 	tsteq	r0, r4
    16fc:	00005500 	andeq	r5, r0, r0, lsl #10
	...
    1708:	000004a4 	andeq	r0, r0, r4, lsr #9
    170c:	000004b8 			; <UNDEFINED> instruction: 0x000004b8
    1710:	00550001 	subseq	r0, r5, r1
    1714:	00000000 	andeq	r0, r0, r0
    1718:	01000000 	mrseq	r0, (UNDEF: 0)
    171c:	0004ac00 	andeq	sl, r4, r0, lsl #24
    1720:	0004b000 	andeq	fp, r4, r0
    1724:	5c000100 	stfpls	f0, [r0], {-0}
	...
    1730:	04ac0000 	strteq	r0, [ip], #0
    1734:	04b00000 	ldrteq	r0, [r0], #0
    1738:	00010000 	andeq	r0, r1, r0
    173c:	0000005c 	andeq	r0, r0, ip, asr r0
    1740:	00000000 	andeq	r0, r0, r0
    1744:	b8000400 	stmdalt	r0, {sl}
    1748:	d0000004 	andle	r0, r0, r4
    174c:	04000004 	streq	r0, [r0], #-4
    1750:	02760a00 	rsbseq	r0, r6, #0, 20
    1754:	0000009f 	muleq	r0, pc, r0	; <UNPREDICTABLE>
    1758:	00000000 	andeq	r0, r0, r0
    175c:	bc000100 	stflts	f0, [r0], {-0}
    1760:	dc000004 	stcle	0, cr0, [r0], {4}
    1764:	01000004 	tsteq	r0, r4
    1768:	00005500 	andeq	r5, r0, r0, lsl #10
	...
    1774:	000004bc 			; <UNDEFINED> instruction: 0x000004bc
    1778:	000004d0 	ldrdeq	r0, [r0], -r0	; <UNPREDICTABLE>
    177c:	00550001 	subseq	r0, r5, r1
    1780:	00000000 	andeq	r0, r0, r0
    1784:	01000000 	mrseq	r0, (UNDEF: 0)
    1788:	0004c400 	andeq	ip, r4, r0, lsl #8
    178c:	0004c800 	andeq	ip, r4, r0, lsl #16
    1790:	5c000100 	stfpls	f0, [r0], {-0}
	...
    179c:	04c40000 	strbeq	r0, [r4], #0
    17a0:	04c80000 	strbeq	r0, [r8], #0
    17a4:	00010000 	andeq	r0, r1, r0
    17a8:	0000005c 	andeq	r0, r0, ip, asr r0
    17ac:	00000000 	andeq	r0, r0, r0
    17b0:	dc000200 	sfmle	f0, 4, [r0], {-0}
    17b4:	0c000004 	stceq	0, cr0, [r0], {4}
    17b8:	02000005 	andeq	r0, r0, #5, 0
    17bc:	009f3000 	addseq	r3, pc, r0
    17c0:	00000000 	andeq	r0, r0, r0
    17c4:	07000000 	streq	r0, [r0, -r0]
    17c8:	0004dc00 	andeq	sp, r4, r0, lsl #24
    17cc:	0004f400 	andeq	pc, r4, r0, lsl #8
    17d0:	08000300 	stmdaeq	r0, {r8, r9}
    17d4:	00009ff5 	strdeq	r9, [r0], -r5
    17d8:	00000000 	andeq	r0, r0, r0
    17dc:	00010000 	andeq	r0, r1, r0
    17e0:	000004e0 	andeq	r0, r0, r0, ror #9
    17e4:	000004f8 	strdeq	r0, [r0], -r8
    17e8:	00550001 	subseq	r0, r5, r1
	...
    17f4:	0004e000 	andeq	lr, r4, r0
    17f8:	0004f400 	andeq	pc, r4, r0, lsl #8
    17fc:	55000100 	strpl	r0, [r0, #-256]	; 0xffffff00
	...
    1808:	04e80001 	strbteq	r0, [r8], #1
    180c:	04ec0000 	strbteq	r0, [ip], #0
    1810:	00010000 	andeq	r0, r1, r0
    1814:	0000005c 	andeq	r0, r0, ip, asr r0
    1818:	00000000 	andeq	r0, r0, r0
    181c:	e8000000 	stmda	r0, {}	; <UNPREDICTABLE>
    1820:	ec000004 	stc	0, cr0, [r0], {4}
    1824:	01000004 	tsteq	r0, r4
    1828:	00005c00 	andeq	r5, r0, r0, lsl #24
    182c:	00000000 	andeq	r0, r0, r0
    1830:	00040000 	andeq	r0, r4, r0
    1834:	000004f4 	strdeq	r0, [r0], -r4
    1838:	0000050c 	andeq	r0, r0, ip, lsl #10
    183c:	760a0004 	strvc	r0, [sl], -r4
    1840:	00009f02 	andeq	r9, r0, r2, lsl #30
    1844:	00000000 	andeq	r0, r0, r0
    1848:	00010000 	andeq	r0, r1, r0
    184c:	000004f8 	strdeq	r0, [r0], -r8
    1850:	00000524 	andeq	r0, r0, r4, lsr #10
    1854:	00550001 	subseq	r0, r5, r1
	...
    1860:	0004f800 	andeq	pc, r4, r0, lsl #16
    1864:	00050c00 	andeq	r0, r5, r0, lsl #24
    1868:	55000100 	strpl	r0, [r0, #-256]	; 0xffffff00
	...
    1874:	05000001 	streq	r0, [r0, #-1]
    1878:	05040000 	streq	r0, [r4, #-0]
    187c:	00010000 	andeq	r0, r1, r0
    1880:	0000005c 	andeq	r0, r0, ip, asr r0
	...
    188c:	04000005 	streq	r0, [r0], #-5
    1890:	01000005 	tsteq	r0, r5
    1894:	00005c00 	andeq	r5, r0, r0, lsl #24
	...
    18a4:	001c0000 	andseq	r0, ip, r0
    18a8:	00010000 	andeq	r0, r1, r0
    18ac:	00001c51 	andeq	r1, r0, r1, asr ip
    18b0:	00007800 	andeq	r7, r0, r0, lsl #16
    18b4:	f3000400 	vshl.u8	d0, d0, d0
    18b8:	009f5101 	addseq	r5, pc, r1, lsl #2
	...
    18c8:	58000000 	stmdapl	r0, {}	; <UNPREDICTABLE>
    18cc:	01000000 	mrseq	r0, (UNDEF: 0)
    18d0:	00585200 	subseq	r5, r8, r0, lsl #4
    18d4:	00780000 	rsbseq	r0, r8, r0
    18d8:	00040000 	andeq	r0, r4, r0
    18dc:	9f5201f3 	svcls	0x005201f3
	...
    18e8:	01000002 	tsteq	r0, r2
    18ec:	01000001 	tsteq	r0, r1
    18f0:	01000001 	tsteq	r0, r1
    18f4:	00000001 	andeq	r0, r0, r1
    18f8:	00380000 	eorseq	r0, r8, r0
    18fc:	00010000 	andeq	r0, r1, r0
    1900:	00005450 	andeq	r5, r0, r0, asr r4
    1904:	00005400 	andeq	r5, r0, r0, lsl #8
    1908:	53000100 	movwpl	r0, #256	; 0x100
    190c:	00000054 	andeq	r0, r0, r4, asr r0
    1910:	0000005c 	andeq	r0, r0, ip, asr r0
    1914:	01730003 	cmneq	r3, r3
    1918:	00005c9f 	muleq	r0, pc, ip	; <UNPREDICTABLE>
    191c:	00006400 	andeq	r6, r0, r0, lsl #8
    1920:	52000100 	andpl	r0, r0, #0
    1924:	00000064 	andeq	r0, r0, r4, rrx
    1928:	00000068 	andeq	r0, r0, r8, rrx
    192c:	02730003 	rsbseq	r0, r3, #3, 0
    1930:	0000689f 	muleq	r0, pc, r8	; <UNPREDICTABLE>
    1934:	00007400 	andeq	r7, r0, r0, lsl #8
    1938:	52000100 	andpl	r0, r0, #0
    193c:	00000074 	andeq	r0, r0, r4, ror r0
    1940:	00000078 	andeq	r0, r0, r8, ror r0
    1944:	01720003 	cmneq	r2, r3
    1948:	0000009f 	muleq	r0, pc, r0	; <UNPREDICTABLE>
    194c:	00000000 	andeq	r0, r0, r0
    1950:	08000000 	stmdaeq	r0, {}	; <UNPREDICTABLE>
    1954:	78000000 	stmdavc	r0, {}	; <UNPREDICTABLE>
    1958:	01000000 	mrseq	r0, (UNDEF: 0)
    195c:	00005400 	andeq	r5, r0, r0, lsl #8
	...
    196c:	0000002c 	andeq	r0, r0, ip, lsr #32
    1970:	00000034 	andeq	r0, r0, r4, lsr r0
    1974:	34500001 	ldrbcc	r0, [r0], #-1
    1978:	48000000 	stmdami	r0, {}	; <UNPREDICTABLE>
    197c:	01000000 	mrseq	r0, (UNDEF: 0)
    1980:	00485400 	subeq	r5, r8, r0, lsl #8
    1984:	00580000 	subseq	r0, r8, r0
    1988:	00010000 	andeq	r0, r1, r0
    198c:	00000050 	andeq	r0, r0, r0, asr r0
	...
    1998:	00000101 	andeq	r0, r0, r1, lsl #2
    199c:	00000000 	andeq	r0, r0, r0
    19a0:	00000c00 	andeq	r0, r0, r0, lsl #24
    19a4:	50000100 	andpl	r0, r0, r0, lsl #2
    19a8:	0000000c 	andeq	r0, r0, ip
    19ac:	00000020 	andeq	r0, r0, r0, lsr #32
    19b0:	20540001 	subscs	r0, r4, r1
    19b4:	24000000 	strcs	r0, [r0], #-0
    19b8:	03000000 	movweq	r0, #0
    19bc:	9f017400 	svcls	0x00017400
    19c0:	00000024 	andeq	r0, r0, r4, lsr #32
    19c4:	00000038 	andeq	r0, r0, r8, lsr r0
    19c8:	00540001 	subseq	r0, r4, r1
	...
    19dc:	00038800 	andeq	r8, r3, r0, lsl #16
    19e0:	00039400 	andeq	r9, r3, r0, lsl #8
    19e4:	50000100 	andpl	r0, r0, r0, lsl #2
    19e8:	00000394 	muleq	r0, r4, r3
    19ec:	000003d0 	ldrdeq	r0, [r0], -r0	; <UNPREDICTABLE>
    19f0:	d05b0001 	subsle	r0, fp, r1
    19f4:	20000003 	andcs	r0, r0, r3
    19f8:	04000009 	streq	r0, [r0], #-9
    19fc:	5001f300 	andpl	pc, r1, r0, lsl #6
    1a00:	0009209f 	muleq	r9, pc, r0	; <UNPREDICTABLE>
    1a04:	00092800 	andeq	r2, r9, r0, lsl #16
    1a08:	5b000100 	blpl	1e10 <__code_start__-0x61f0>
    1a0c:	00000928 	andeq	r0, r0, r8, lsr #18
    1a10:	000009b4 			; <UNDEFINED> instruction: 0x000009b4
    1a14:	01f30004 	mvnseq	r0, r4
    1a18:	00009f50 	andeq	r9, r0, r0, asr pc
	...
    1a28:	03880000 	orreq	r0, r8, #0, 0
    1a2c:	03d00000 	bicseq	r0, r0, #0, 0
    1a30:	00010000 	andeq	r0, r1, r0
    1a34:	0003d051 	andeq	sp, r3, r1, asr r0
    1a38:	00092000 	andeq	r2, r9, r0
    1a3c:	f3000400 	vshl.u8	d0, d0, d0
    1a40:	209f5101 	addscs	r5, pc, r1, lsl #2
    1a44:	28000009 	stmdacs	r0, {r0, r3}
    1a48:	01000009 	tsteq	r0, r9
    1a4c:	09285100 	stmdbeq	r8!, {r8, ip, lr}
    1a50:	09b40000 	ldmibeq	r4!, {}	; <UNPREDICTABLE>
    1a54:	00040000 	andeq	r0, r4, r0
    1a58:	9f5101f3 	svcls	0x005101f3
	...
    1a68:	01000000 	mrseq	r0, (UNDEF: 0)
    1a6c:	00010000 	andeq	r0, r1, r0
	...
    1a7c:	00000388 	andeq	r0, r0, r8, lsl #7
    1a80:	000003d0 	ldrdeq	r0, [r0], -r0	; <UNPREDICTABLE>
    1a84:	d0520001 	subsle	r0, r2, r1
    1a88:	00000003 	andeq	r0, r0, r3
    1a8c:	01000004 	tsteq	r0, r4
    1a90:	04145600 	ldreq	r5, [r4], #-1536	; 0xfffffa00
    1a94:	04240000 	strteq	r0, [r4], #-0
    1a98:	00010000 	andeq	r0, r1, r0
    1a9c:	00042456 	andeq	r2, r4, r6, asr r4
    1aa0:	00042800 	andeq	r2, r4, r0, lsl #16
    1aa4:	76000300 	strvc	r0, [r0], -r0, lsl #6
    1aa8:	04a89f7f 	strteq	r9, [r8], #3967	; 0xf7f
    1aac:	04ac0000 	strteq	r0, [ip], #0
    1ab0:	00010000 	andeq	r0, r1, r0
    1ab4:	0004e056 	andeq	lr, r4, r6, asr r0
    1ab8:	00050400 	andeq	r0, r5, r0, lsl #8
    1abc:	56000100 	strpl	r0, [r0], -r0, lsl #2
    1ac0:	0000057c 	andeq	r0, r0, ip, ror r5
    1ac4:	00000588 	andeq	r0, r0, r8, lsl #11
    1ac8:	88530001 	ldmdahi	r3, {r0}^
    1acc:	d0000005 	andle	r0, r0, r5
    1ad0:	03000005 	movweq	r0, #5
    1ad4:	7dcc9100 	stfvcp	f1, [ip]
    1ad8:	00000800 	andeq	r0, r0, r0, lsl #16
    1adc:	0000080f 	andeq	r0, r0, pc, lsl #16
    1ae0:	0f530001 	svceq	0x00530001
    1ae4:	88000008 	stmdahi	r0, {r3}
    1ae8:	03000008 	movweq	r0, #8
    1aec:	7dcc9100 	stfvcp	f1, [ip]
    1af0:	00000920 	andeq	r0, r0, r0, lsr #18
    1af4:	00000928 	andeq	r0, r0, r8, lsr #18
    1af8:	48520001 	ldmdami	r2, {r0}^
    1afc:	64000009 	strvs	r0, [r0], #-9
    1b00:	03000009 	movweq	r0, #9
    1b04:	7dcc9100 	stfvcp	f1, [ip]
	...
    1b18:	01000000 	mrseq	r0, (UNDEF: 0)
    1b1c:	01000001 	tsteq	r0, r1
    1b20:	00000001 	andeq	r0, r0, r1
    1b24:	00020200 	andeq	r0, r2, r0, lsl #4
    1b28:	00020200 	andeq	r0, r2, r0, lsl #4
    1b2c:	00010100 	andeq	r0, r1, r0, lsl #2
    1b30:	00020200 	andeq	r0, r2, r0, lsl #4
    1b34:	00010100 	andeq	r0, r1, r0, lsl #2
	...
    1b40:	00000388 	andeq	r0, r0, r8, lsl #7
    1b44:	000003ac 	andeq	r0, r0, ip, lsr #7
    1b48:	ac530001 	mrrcge	0, 0, r0, r3, cr1
    1b4c:	c0000003 	andgt	r0, r0, r3
    1b50:	03000003 	movweq	r0, #3
    1b54:	04935300 	ldreq	r5, [r3], #768	; 0x300
    1b58:	000003d0 	ldrdeq	r0, [r0], -r0	; <UNPREDICTABLE>
    1b5c:	000003e8 	andeq	r0, r0, r8, ror #7
    1b60:	93580003 	cmpls	r8, #3, 0
    1b64:	0003e804 	andeq	lr, r3, r4, lsl #16
    1b68:	0004ac00 	andeq	sl, r4, r0, lsl #24
    1b6c:	58000300 	stmdapl	r0, {r8, r9}
    1b70:	04ac0493 	strteq	r0, [ip], #1171	; 0x493
    1b74:	04b00000 	ldrteq	r0, [r0], #0
    1b78:	00010000 	andeq	r0, r1, r0
    1b7c:	0004c053 	andeq	ip, r4, r3, asr r0
    1b80:	0004c000 	andeq	ip, r4, r0
    1b84:	58000300 	stmdapl	r0, {r8, r9}
    1b88:	04c00493 	strbeq	r0, [r0], #1171	; 0x493
    1b8c:	04cc0000 	strbeq	r0, [ip], #0
    1b90:	00050000 	andeq	r0, r5, r0
    1b94:	939f0478 	orrsls	r0, pc, #120, 8	; 0x78000000
    1b98:	0004cc04 	andeq	ip, r4, r4, lsl #24
    1b9c:	0004e000 	andeq	lr, r4, r0
    1ba0:	58000300 	stmdapl	r0, {r8, r9}
    1ba4:	04e00493 	strbteq	r0, [r0], #1171	; 0x493
    1ba8:	05380000 	ldreq	r0, [r8, #-0]!
    1bac:	00030000 	andeq	r0, r3, r0
    1bb0:	38049358 	stmdacc	r4, {r3, r4, r6, r8, r9, ip, pc}
    1bb4:	3c000005 	stccc	0, cr0, [r0], {5}
    1bb8:	05000005 	streq	r0, [r0, #-5]
    1bbc:	9f797800 	svcls	0x00797800
    1bc0:	05d00493 	ldrbeq	r0, [r0, #1171]	; 0x493
    1bc4:	05d00000 	ldrbeq	r0, [r0]
    1bc8:	00030000 	andeq	r0, r3, r0
    1bcc:	d0049358 	andle	r9, r4, r8, asr r3
    1bd0:	d4000005 	strle	r0, [r0], #-5
    1bd4:	05000005 	streq	r0, [r0, #-5]
    1bd8:	9f047800 	svcls	0x00047800
    1bdc:	05f40493 	ldrbeq	r0, [r4, #1171]!	; 0x493
    1be0:	05f40000 	ldrbeq	r0, [r4, #0]!
    1be4:	00030000 	andeq	r0, r3, r0
    1be8:	f4049358 	vst2.16	{d9-d12}, [r4 :64], r8
    1bec:	fc000005 	stc2	0, cr0, [r0], {5}
    1bf0:	05000005 	streq	r0, [r0, #-5]
    1bf4:	9f047800 	svcls	0x00047800
    1bf8:	05fc0493 	ldrbeq	r0, [ip, #1171]!	; 0x493
    1bfc:	05fc0000 	ldrbeq	r0, [ip, #0]!
    1c00:	00030000 	andeq	r0, r3, r0
    1c04:	fc049358 	stc2	3, cr9, [r4], {88}	; 0x58
    1c08:	00000005 	andeq	r0, r0, r5
    1c0c:	05000006 	streq	r0, [r0, #-6]
    1c10:	9f047800 	svcls	0x00047800
    1c14:	06000493 			; <UNDEFINED> instruction: 0x06000493
    1c18:	07000000 	streq	r0, [r0, -r0]
    1c1c:	00030000 	andeq	r0, r3, r0
    1c20:	00049358 	andeq	r9, r4, r8, asr r3
    1c24:	0c000007 	stceq	0, cr0, [r0], {7}
    1c28:	05000007 	streq	r0, [r0, #-7]
    1c2c:	9f047800 	svcls	0x00047800
    1c30:	070c0493 			; <UNDEFINED> instruction: 0x070c0493
    1c34:	07f80000 	ldrbeq	r0, [r8, r0]!
    1c38:	00030000 	andeq	r0, r3, r0
    1c3c:	f8049358 			; <UNDEFINED> instruction: 0xf8049358
    1c40:	fc000007 	stc2	0, cr0, [r0], {7}
    1c44:	05000007 	streq	r0, [r0, #-7]
    1c48:	9f047800 	svcls	0x00047800
    1c4c:	07fc0493 			; <UNDEFINED> instruction: 0x07fc0493
    1c50:	08000000 	stmdaeq	r0, {}	; <UNPREDICTABLE>
    1c54:	00030000 	andeq	r0, r3, r0
    1c58:	88049358 	stmdahi	r4, {r3, r4, r6, r8, r9, ip, pc}
    1c5c:	20000008 	andcs	r0, r0, r8
    1c60:	03000009 	movweq	r0, #9
    1c64:	04935800 	ldreq	r5, [r3], #2048	; 0x800
    1c68:	00000920 	andeq	r0, r0, r0, lsr #18
    1c6c:	00000928 	andeq	r0, r0, r8, lsr #18
    1c70:	64530001 	ldrbvs	r0, [r3], #-1
    1c74:	b4000009 	strlt	r0, [r0], #-9
    1c78:	03000009 	movweq	r0, #9
    1c7c:	04935800 	ldreq	r5, [r3], #2048	; 0x800
	...
    1c88:	00000001 	andeq	r0, r0, r1
    1c8c:	00000000 	andeq	r0, r0, r0
    1c90:	00020200 	andeq	r0, r2, r0, lsl #4
    1c94:	01010000 	mrseq	r0, (UNDEF: 1)
    1c98:	00000001 	andeq	r0, r0, r1
    1c9c:	03ac0000 			; <UNDEFINED> instruction: 0x03ac0000
    1ca0:	03d00000 	bicseq	r0, r0, #0, 0
    1ca4:	00010000 	andeq	r0, r1, r0
    1ca8:	0003d05b 	andeq	sp, r3, fp, asr r0
    1cac:	0003d400 	andeq	sp, r3, r0, lsl #8
    1cb0:	54000100 	strpl	r0, [r0], #-256	; 0xffffff00
    1cb4:	000003d4 	ldrdeq	r0, [r0], -r4
    1cb8:	000003d8 	ldrdeq	r0, [r0], -r8
    1cbc:	7f740003 	svcvc	0x00740003
    1cc0:	0003d89f 	muleq	r3, pc, r8	; <UNPREDICTABLE>
    1cc4:	0003fc00 	andeq	pc, r3, r0, lsl #24
    1cc8:	54000100 	strpl	r0, [r0], #-256	; 0xffffff00
    1ccc:	000004a8 	andeq	r0, r0, r8, lsr #9
    1cd0:	000004ac 	andeq	r0, r0, ip, lsr #9
    1cd4:	ac540001 	mrrcge	0, 0, r0, r4, cr1
    1cd8:	b4000004 	strlt	r0, [r0], #-4
    1cdc:	03000004 	movweq	r0, #4
    1ce0:	9f017400 	svcls	0x00017400
    1ce4:	000004b4 			; <UNDEFINED> instruction: 0x000004b4
    1ce8:	000004c0 	andeq	r0, r0, r0, asr #9
    1cec:	e4540001 	ldrb	r0, [r4], #-1
    1cf0:	f4000004 	vst4.8	{d0-d3}, [r0], r4
    1cf4:	01000004 	tsteq	r0, r4
    1cf8:	04f45400 	ldrbteq	r5, [r4], #1024	; 0x400
    1cfc:	04f80000 	ldrbteq	r0, [r8], #0
    1d00:	00030000 	andeq	r0, r3, r0
    1d04:	f89f0174 			; <UNDEFINED> instruction: 0xf89f0174
    1d08:	04000004 	streq	r0, [r0], #-4
    1d0c:	01000005 	tsteq	r0, r5
    1d10:	09205400 	stmdbeq	r0!, {sl, ip, lr}
    1d14:	09280000 	stmdbeq	r8!, {}	; <UNPREDICTABLE>
    1d18:	00010000 	andeq	r0, r1, r0
    1d1c:	0000005b 	andeq	r0, r0, fp, asr r0
    1d20:	00000000 	andeq	r0, r0, r0
    1d24:	ac000100 	stfges	f0, [r0], {-0}
    1d28:	b4000003 	strlt	r0, [r0], #-3
    1d2c:	01000009 	tsteq	r0, r9
    1d30:	00005700 	andeq	r5, r0, r0, lsl #14
    1d34:	00000000 	andeq	r0, r0, r0
    1d38:	00020000 	andeq	r0, r2, r0
    1d3c:	00000000 	andeq	r0, r0, r0
    1d40:	0000057c 	andeq	r0, r0, ip, ror r5
    1d44:	000005d0 	ldrdeq	r0, [r0], -r0	; <UNPREDICTABLE>
    1d48:	005b0001 	subseq	r0, fp, r1
    1d4c:	88000008 	stmdahi	r0, {r3}
    1d50:	01000008 	tsteq	r0, r8
    1d54:	09485b00 	stmdbeq	r8, {r8, r9, fp, ip, lr}^
    1d58:	09640000 	stmdbeq	r4!, {}^	; <UNPREDICTABLE>
    1d5c:	00010000 	andeq	r0, r1, r0
    1d60:	0000005b 	andeq	r0, r0, fp, asr r0
    1d64:	00000000 	andeq	r0, r0, r0
    1d68:	00000300 	andeq	r0, r0, r0, lsl #6
    1d6c:	7c000000 	stcvc	0, cr0, [r0], {-0}
    1d70:	d0000005 	andle	r0, r0, r5
    1d74:	01000005 	tsteq	r0, r5
    1d78:	08005900 	stmdaeq	r0, {r8, fp, ip, lr}
    1d7c:	08880000 	stmeq	r8, {}	; <UNPREDICTABLE>
    1d80:	00010000 	andeq	r0, r1, r0
    1d84:	00094859 	andeq	r4, r9, r9, asr r8
    1d88:	00096400 	andeq	r6, r9, r0, lsl #8
    1d8c:	59000100 	stmdbpl	r0, {r8}
	...
    1d98:	00000004 	andeq	r0, r0, r4
    1d9c:	00000000 	andeq	r0, r0, r0
    1da0:	000003ac 	andeq	r0, r0, ip, lsr #7
    1da4:	000003d0 	ldrdeq	r0, [r0], -r0	; <UNPREDICTABLE>
    1da8:	d0520001 	subsle	r0, r2, r1
    1dac:	20000003 	andcs	r0, r0, r3
    1db0:	04000009 	streq	r0, [r0], #-9
    1db4:	5201f300 	andpl	pc, r1, #0, 6
    1db8:	0009209f 	muleq	r9, pc, r0	; <UNPREDICTABLE>
    1dbc:	00092800 	andeq	r2, r9, r0, lsl #16
    1dc0:	52000100 	andpl	r0, r0, #0
    1dc4:	00000928 	andeq	r0, r0, r8, lsr #18
    1dc8:	000009b4 			; <UNDEFINED> instruction: 0x000009b4
    1dcc:	01f30004 	mvnseq	r0, r4
    1dd0:	00009f52 	andeq	r9, r0, r2, asr pc
    1dd4:	00000000 	andeq	r0, r0, r0
    1dd8:	01000000 	mrseq	r0, (UNDEF: 0)
    1ddc:	00000001 	andeq	r0, r0, r1
    1de0:	00010000 	andeq	r0, r1, r0
    1de4:	04e00000 	strbteq	r0, [r0], #0
    1de8:	04e00000 	strbteq	r0, [r0], #0
    1dec:	00010000 	andeq	r0, r1, r0
    1df0:	0004e050 	andeq	lr, r4, r0, asr r0
    1df4:	0004e800 	andeq	lr, r4, r0, lsl #16
    1df8:	55000100 	strpl	r0, [r0, #-256]	; 0xffffff00
    1dfc:	000005b8 			; <UNDEFINED> instruction: 0x000005b8
    1e00:	000005d0 	ldrdeq	r0, [r0], -r0	; <UNPREDICTABLE>
    1e04:	f0550001 			; <UNDEFINED> instruction: 0xf0550001
    1e08:	f4000005 	vst4.8	{d0-d3}, [r0], r5
    1e0c:	01000005 	tsteq	r0, r5
    1e10:	07f45000 	ldrbeq	r5, [r4, r0]!
    1e14:	07f80000 	ldrbeq	r0, [r8, r0]!
    1e18:	00010000 	andeq	r0, r1, r0
    1e1c:	00085055 	andeq	r5, r8, r5, asr r0
    1e20:	00088800 	andeq	r8, r8, r0, lsl #16
    1e24:	55000100 	strpl	r0, [r0, #-256]	; 0xffffff00
	...
    1e30:	00000002 	andeq	r0, r0, r2
    1e34:	00000000 	andeq	r0, r0, r0
    1e38:	00000414 	andeq	r0, r0, r4, lsl r4
    1e3c:	00000418 	andeq	r0, r0, r8, lsl r4
    1e40:	9f300002 	svcls	0x00300002
    1e44:	00000418 	andeq	r0, r0, r8, lsl r4
    1e48:	0000041c 	andeq	r0, r0, ip, lsl r4
    1e4c:	28550001 	ldmdacs	r5, {r0}^
    1e50:	3c000004 	stccc	0, cr0, [r0], {4}
    1e54:	01000004 	tsteq	r0, r4
    1e58:	09285500 	stmdbeq	r8!, {r8, sl, ip, lr}
    1e5c:	09300000 	ldmdbeq	r0!, {}	; <UNPREDICTABLE>
    1e60:	00010000 	andeq	r0, r1, r0
    1e64:	00000055 	andeq	r0, r0, r5, asr r0
    1e68:	00000000 	andeq	r0, r0, r0
    1e6c:	00000100 	andeq	r0, r0, r0, lsl #2
	...
    1e78:	00050400 	andeq	r0, r5, r0, lsl #8
    1e7c:	00058400 	andeq	r8, r5, r0, lsl #8
    1e80:	56000100 	strpl	r0, [r0], -r0, lsl #2
    1e84:	00000584 	andeq	r0, r0, r4, lsl #11
    1e88:	00000588 	andeq	r0, r0, r8, lsl #11
    1e8c:	7e730003 	cdpvc	0, 7, cr0, cr3, cr3, {0}
    1e90:	0005889f 	muleq	r5, pc, r8	; <UNPREDICTABLE>
    1e94:	0005d000 	andeq	sp, r5, r0
    1e98:	91000700 	tstls	r0, r0, lsl #14
    1e9c:	32067dcc 	andcc	r7, r6, #204, 26	; 0x3300
    1ea0:	08009f1c 	stmdaeq	r0, {r2, r3, r4, r8, r9, sl, fp, ip, pc}
    1ea4:	081c0000 	ldmdaeq	ip, {}	; <UNPREDICTABLE>
    1ea8:	00010000 	andeq	r0, r1, r0
    1eac:	00081c56 	andeq	r1, r8, r6, asr ip
    1eb0:	00088800 	andeq	r8, r8, r0, lsl #16
    1eb4:	91000700 	tstls	r0, r0, lsl #14
    1eb8:	32067dcc 	andcc	r7, r6, #204, 26	; 0x3300
    1ebc:	09489f1c 	stmdbeq	r8, {r2, r3, r4, r8, r9, sl, fp, ip, pc}^
    1ec0:	09b40000 	ldmibeq	r4!, {}	; <UNPREDICTABLE>
    1ec4:	00010000 	andeq	r0, r1, r0
    1ec8:	00000056 	andeq	r0, r0, r6, asr r0
    1ecc:	00000000 	andeq	r0, r0, r0
    1ed0:	02060400 	andeq	r0, r6, #0, 8
    1ed4:	00041404 	andeq	r1, r4, r4, lsl #8
    1ed8:	00041400 	andeq	r1, r4, r0, lsl #8
    1edc:	72000600 	andvc	r0, r0, #0, 12
    1ee0:	1aff0800 	bne	fffc3ee8 <__bss_end__+0xfffb9968>
    1ee4:	0004289f 	muleq	r4, pc, r8	; <UNPREDICTABLE>
    1ee8:	00042800 	andeq	r2, r4, r0, lsl #16
    1eec:	72000600 	andvc	r0, r0, #0, 12
    1ef0:	1aff0800 	bne	fffc3ef8 <__bss_end__+0xfffb9978>
    1ef4:	0000009f 	muleq	r0, pc, r0	; <UNPREDICTABLE>
    1ef8:	00000000 	andeq	r0, r0, r0
    1efc:	00000200 	andeq	r0, r0, r0, lsl #4
    1f00:	fc000000 	stc2	0, cr0, [r0], {-0}
    1f04:	00000005 	andeq	r0, r0, r5
    1f08:	03000007 	movweq	r0, #7
    1f0c:	9f800800 	svcls	0x00800800
    1f10:	000008a8 	andeq	r0, r0, r8, lsr #17
    1f14:	000008bc 			; <UNDEFINED> instruction: 0x000008bc
    1f18:	80080003 	andhi	r0, r8, r3
    1f1c:	0009109f 	muleq	r9, pc, r0	; <UNPREDICTABLE>
    1f20:	00092000 	andeq	r2, r9, r0
    1f24:	08000300 	stmdaeq	r0, {r8, r9}
    1f28:	00009f80 	andeq	r9, r0, r0, lsl #31
    1f2c:	00000000 	andeq	r0, r0, r0
    1f30:	00010000 	andeq	r0, r1, r0
    1f34:	00000000 	andeq	r0, r0, r0
    1f38:	000005fc 	strdeq	r0, [r0], -ip
    1f3c:	00000700 	andeq	r0, r0, r0, lsl #14
    1f40:	9f300002 	svcls	0x00300002
    1f44:	000008a8 	andeq	r0, r0, r8, lsr #17
    1f48:	000008bc 			; <UNDEFINED> instruction: 0x000008bc
    1f4c:	9f300002 	svcls	0x00300002
    1f50:	00000910 	andeq	r0, r0, r0, lsl r9
    1f54:	00000920 	andeq	r0, r0, r0, lsr #18
    1f58:	9f300002 	svcls	0x00300002
	...
    1f64:	00000001 	andeq	r0, r0, r1
    1f68:	05fc0000 	ldrbeq	r0, [ip, #0]!
    1f6c:	06e00000 	strbteq	r0, [r0], r0
    1f70:	00010000 	andeq	r0, r1, r0
    1f74:	0008a855 	andeq	sl, r8, r5, asr r8
    1f78:	0008bc00 	andeq	fp, r8, r0, lsl #24
    1f7c:	55000100 	strpl	r0, [r0, #-256]	; 0xffffff00
    1f80:	00000910 	andeq	r0, r0, r0, lsl r9
    1f84:	00000920 	andeq	r0, r0, r0, lsr #18
    1f88:	00550001 	subseq	r0, r5, r1
    1f8c:	00000000 	andeq	r0, r0, r0
    1f90:	01000000 	mrseq	r0, (UNDEF: 0)
    1f94:	00000000 	andeq	r0, r0, r0
    1f98:	fc000000 	stc2	0, cr0, [r0], {-0}
    1f9c:	e0000005 	and	r0, r0, r5
    1fa0:	04000006 	streq	r0, [r0], #-6
    1fa4:	7dd09100 	ldfvcp	f1, [r0]
    1fa8:	0006e09f 	muleq	r6, pc, r0	; <UNPREDICTABLE>
    1fac:	00070000 	andeq	r0, r7, r0
    1fb0:	55000100 	strpl	r0, [r0, #-256]	; 0xffffff00
    1fb4:	000008a8 	andeq	r0, r0, r8, lsr #17
    1fb8:	000008bc 			; <UNDEFINED> instruction: 0x000008bc
    1fbc:	d0910004 	addsle	r0, r1, r4
    1fc0:	09109f7d 	ldmdbeq	r0, {r0, r2, r3, r4, r5, r6, r8, r9, sl, fp, ip, pc}
    1fc4:	09200000 	stmdbeq	r0!, {}	; <UNPREDICTABLE>
    1fc8:	00040000 	andeq	r0, r4, r0
    1fcc:	9f7dd091 	svcls	0x007dd091
	...
    1fd8:	00000001 	andeq	r0, r0, r1
    1fdc:	05fc0000 	ldrbeq	r0, [ip, #0]!
    1fe0:	07000000 	streq	r0, [r0, -r0]
    1fe4:	00020000 	andeq	r0, r2, r0
    1fe8:	08a89f38 	stmiaeq	r8!, {r3, r4, r5, r8, r9, sl, fp, ip, pc}
    1fec:	08bc0000 	ldmeq	ip!, {}	; <UNPREDICTABLE>
    1ff0:	00020000 	andeq	r0, r2, r0
    1ff4:	09109f38 	ldmdbeq	r0, {r3, r4, r5, r8, r9, sl, fp, ip, pc}
    1ff8:	09200000 	stmdbeq	r0!, {}	; <UNPREDICTABLE>
    1ffc:	00020000 	andeq	r0, r2, r0
    2000:	00009f38 	andeq	r9, r0, r8, lsr pc
    2004:	00000000 	andeq	r0, r0, r0
    2008:	07040000 	streq	r0, [r4, -r0]
    200c:	00000007 	andeq	r0, r0, r7
	...
    2018:	000005fc 	strdeq	r0, [r0], -ip
    201c:	000005fc 	strdeq	r0, [r0], -ip
    2020:	d0910004 	addsle	r0, r1, r4
    2024:	05fc9f7e 	ldrbeq	r9, [ip, #3966]!	; 0xf7e
    2028:	06780000 	ldrbteq	r0, [r8], -r0
    202c:	00040000 	andeq	r0, r4, r0
    2030:	9f7ed191 	svcls	0x007ed191
    2034:	00000678 	andeq	r0, r0, r8, ror r6
    2038:	000006d4 	ldrdeq	r0, [r0], -r4
    203c:	d45c0001 	ldrble	r0, [ip], #-1
    2040:	00000006 	andeq	r0, r0, r6
    2044:	04000007 	streq	r0, [r0], #-7
    2048:	7ed19100 	atnvcs	f1, f0
    204c:	0008a89f 	muleq	r8, pc, r8	; <UNPREDICTABLE>
    2050:	0008bc00 	andeq	fp, r8, r0, lsl #24
    2054:	91000400 	tstls	r0, r0, lsl #8
    2058:	109f7ed1 			; <UNDEFINED> instruction: 0x109f7ed1
    205c:	14000009 	strne	r0, [r0], #-9
    2060:	04000009 	streq	r0, [r0], #-9
    2064:	7ed19100 	atnvcs	f1, f0
    2068:	0009149f 	muleq	r9, pc, r4	; <UNPREDICTABLE>
    206c:	00092000 	andeq	r2, r9, r0
    2070:	5c000100 	stfpls	f0, [r0], {-0}
	...
    207c:	01000104 	tsteq	r0, r4, lsl #2
    2080:	06080000 	streq	r0, [r8], -r0
    2084:	06d00000 	ldrbeq	r0, [r0], r0
    2088:	00010000 	andeq	r0, r1, r0
    208c:	0008a855 	andeq	sl, r8, r5, asr r8
    2090:	0008b800 	andeq	fp, r8, r0, lsl #16
    2094:	55000100 	strpl	r0, [r0, #-256]	; 0xffffff00
    2098:	00000910 	andeq	r0, r0, r0, lsl r9
    209c:	00000920 	andeq	r0, r0, r0, lsr #18
    20a0:	00550001 	subseq	r0, r5, r1
    20a4:	00000000 	andeq	r0, r0, r0
    20a8:	04000000 	streq	r0, [r0], #-0
    20ac:	00000000 	andeq	r0, r0, r0
    20b0:	00000001 	andeq	r0, r0, r1
    20b4:	08000001 	stmdaeq	r0, {r0}
    20b8:	b0000006 	andlt	r0, r0, r6
    20bc:	04000006 	streq	r0, [r0], #-6
    20c0:	7ed09100 	atnvcs	f1, f0
    20c4:	0006b09f 	muleq	r6, pc, r0	; <UNPREDICTABLE>
    20c8:	0006c800 	andeq	ip, r6, r0, lsl #16
    20cc:	50000100 	andpl	r0, r0, r0, lsl #2
    20d0:	000006c8 	andeq	r0, r0, r8, asr #13
    20d4:	000006d0 	ldrdeq	r0, [r0], -r0	; <UNPREDICTABLE>
    20d8:	d0910004 	addsle	r0, r1, r4
    20dc:	08a89f7e 	stmiaeq	r8!, {r1, r2, r3, r4, r5, r6, r8, r9, sl, fp, ip, pc}
    20e0:	08b00000 	ldmeq	r0!, {}	; <UNPREDICTABLE>
    20e4:	00040000 	andeq	r0, r4, r0
    20e8:	9f7ed091 	svcls	0x007ed091
    20ec:	000008b0 			; <UNDEFINED> instruction: 0x000008b0
    20f0:	000008b8 			; <UNDEFINED> instruction: 0x000008b8
    20f4:	10530001 	subsne	r0, r3, r1
    20f8:	20000009 	andcs	r0, r0, r9
    20fc:	04000009 	streq	r0, [r0], #-9
    2100:	7ed09100 	atnvcs	f1, f0
    2104:	0000009f 	muleq	r0, pc, r0	; <UNPREDICTABLE>
    2108:	00000000 	andeq	r0, r0, r0
    210c:	00000400 	andeq	r0, r0, r0, lsl #8
    2110:	01010101 	tsteq	r1, r1, lsl #2
    2114:	00020303 	andeq	r0, r2, r3, lsl #6
    2118:	00000001 	andeq	r0, r0, r1
    211c:	00060800 	andeq	r0, r6, r0, lsl #16
    2120:	00062400 	andeq	r2, r6, r0, lsl #8
    2124:	91000400 	tstls	r0, r0, lsl #8
    2128:	849f7ed1 	ldrhi	r7, [pc], #3793	; 2130 <__code_start__-0x5ed0>
    212c:	84000006 	strhi	r0, [r0], #-6
    2130:	01000006 	tsteq	r0, r6
    2134:	06845000 	streq	r5, [r4], r0
    2138:	06980000 	ldreq	r0, [r8], r0
    213c:	00030000 	andeq	r0, r3, r0
    2140:	989f0170 	ldmls	pc, {r4, r5, r6, r8}	; <UNPREDICTABLE>
    2144:	a4000006 	strge	r0, [r0], #-6
    2148:	03000006 	movweq	r0, #6
    214c:	9f027000 	svcls	0x00027000
    2150:	000006a4 	andeq	r0, r0, r4, lsr #13
    2154:	000006a8 	andeq	r0, r0, r8, lsr #13
    2158:	03700003 	cmneq	r0, #3, 0
    215c:	0008a89f 	muleq	r8, pc, r8	; <UNPREDICTABLE>
    2160:	0008b800 	andeq	fp, r8, r0, lsl #16
    2164:	91000400 	tstls	r0, r0, lsl #8
    2168:	109f7ed1 			; <UNDEFINED> instruction: 0x109f7ed1
    216c:	14000009 	strne	r0, [r0], #-9
    2170:	04000009 	streq	r0, [r0], #-9
    2174:	7ed19100 	atnvcs	f1, f0
    2178:	0009149f 	muleq	r9, pc, r4	; <UNPREDICTABLE>
    217c:	00092000 	andeq	r2, r9, r0
    2180:	5c000100 	stfpls	f0, [r0], {-0}
	...
    218c:	01000006 	tsteq	r0, r6
    2190:	01010101 	tsteq	r1, r1, lsl #2
    2194:	01000201 	tsteq	r0, r1, lsl #4
    2198:	06080000 	streq	r0, [r8], -r0
    219c:	06240000 	strteq	r0, [r4], -r0
    21a0:	00020000 	andeq	r0, r2, r0
    21a4:	06849f31 			; <UNDEFINED> instruction: 0x06849f31
    21a8:	06940000 	ldreq	r0, [r4], r0
    21ac:	00010000 	andeq	r0, r1, r0
    21b0:	00069452 	andeq	r9, r6, r2, asr r4
    21b4:	0006a400 	andeq	sl, r6, r0, lsl #8
    21b8:	59000100 	stmdbpl	r0, {r8}
    21bc:	000006a4 	andeq	r0, r0, r4, lsr #13
    21c0:	000006a8 	andeq	r0, r0, r8, lsr #13
    21c4:	a8520001 	ldmdage	r2, {r0}^
    21c8:	a8000006 	stmdage	r0, {r1, r2}
    21cc:	03000006 	movweq	r0, #6
    21d0:	9f017200 	svcls	0x00017200
    21d4:	000008a8 	andeq	r0, r0, r8, lsr #17
    21d8:	000008b8 			; <UNDEFINED> instruction: 0x000008b8
    21dc:	9f310002 	svcls	0x00310002
    21e0:	00000910 	andeq	r0, r0, r0, lsl r9
    21e4:	00000920 	andeq	r0, r0, r0, lsr #18
    21e8:	9f310002 	svcls	0x00310002
	...
    21f4:	00060601 	andeq	r0, r6, r1, lsl #12
    21f8:	06d00001 	ldrbeq	r0, [r0], r1
    21fc:	06d00000 	ldrbeq	r0, [r0], r0
    2200:	00040000 	andeq	r0, r4, r0
    2204:	9f7ed091 	svcls	0x007ed091
    2208:	000006d0 	ldrdeq	r0, [r0], -r0	; <UNPREDICTABLE>
    220c:	00000700 	andeq	r0, r0, r0, lsl #14
    2210:	b8500001 	ldmdalt	r0, {r0}^
    2214:	bc000008 	stclt	0, cr0, [r0], {8}
    2218:	01000008 	tsteq	r0, r8
    221c:	00005300 	andeq	r5, r0, r0, lsl #6
    2220:	00000000 	andeq	r0, r0, r0
    2224:	08010000 	stmdaeq	r1, {}	; <UNPREDICTABLE>
    2228:	01000000 	mrseq	r0, (UNDEF: 0)
    222c:	07010001 	streq	r0, [r1, -r1]
    2230:	000006d0 	ldrdeq	r0, [r0], -r0	; <UNPREDICTABLE>
    2234:	000006d0 	ldrdeq	r0, [r0], -r0	; <UNPREDICTABLE>
    2238:	007c0006 	rsbseq	r0, ip, r6
    223c:	9f220071 	svcls	0x00220071
    2240:	000006e4 	andeq	r0, r0, r4, ror #13
    2244:	000006e8 	andeq	r0, r0, r8, ror #13
    2248:	7f730003 	svcvc	0x00730003
    224c:	0006e89f 	muleq	r6, pc, r8	; <UNPREDICTABLE>
    2250:	0006f000 	andeq	pc, r6, r0
    2254:	53000100 	movwpl	r0, #256	; 0x100
    2258:	000006f0 	strdeq	r0, [r0], -r0	; <UNPREDICTABLE>
    225c:	000006f8 	strdeq	r0, [r0], -r8
    2260:	7f730003 	svcvc	0x00730003
    2264:	0008b89f 	muleq	r8, pc, r8	; <UNPREDICTABLE>
    2268:	0008b800 	andeq	fp, r8, r0, lsl #16
    226c:	91000400 	tstls	r0, r0, lsl #8
    2270:	009f7ed1 			; <UNDEFINED> instruction: 0x009f7ed1
    2274:	00000000 	andeq	r0, r0, r0
    2278:	01000000 	mrseq	r0, (UNDEF: 0)
    227c:	d0000100 	andle	r0, r0, r0, lsl #2
    2280:	00000006 	andeq	r0, r0, r6
    2284:	03000007 	movweq	r0, #7
    2288:	9f800800 	svcls	0x00800800
    228c:	000008b8 			; <UNDEFINED> instruction: 0x000008b8
    2290:	000008bc 			; <UNDEFINED> instruction: 0x000008bc
    2294:	80080003 	andhi	r0, r8, r3
    2298:	0000009f 	muleq	r0, pc, r0	; <UNPREDICTABLE>
    229c:	00000000 	andeq	r0, r0, r0
    22a0:	00000100 	andeq	r0, r0, r0, lsl #2
    22a4:	01010000 	mrseq	r0, (UNDEF: 1)
    22a8:	02000000 	andeq	r0, r0, #0, 0
    22ac:	d0000101 	andle	r0, r0, r1, lsl #2
    22b0:	e0000006 	and	r0, r0, r6
    22b4:	04000006 	streq	r0, [r0], #-6
    22b8:	7dd09100 	ldfvcp	f1, [r0]
    22bc:	0006e09f 	muleq	r6, pc, r0	; <UNPREDICTABLE>
    22c0:	0006e400 	andeq	lr, r6, r0, lsl #8
    22c4:	55000100 	strpl	r0, [r0, #-256]	; 0xffffff00
    22c8:	000006e4 	andeq	r0, r0, r4, ror #13
    22cc:	000006e4 	andeq	r0, r0, r4, ror #13
    22d0:	01720003 	cmneq	r2, r3
    22d4:	0006e49f 	muleq	r6, pc, r4	; <UNPREDICTABLE>
    22d8:	0006f000 	andeq	pc, r6, r0
    22dc:	72000300 	andvc	r0, r0, #0, 6
    22e0:	06f09f02 	ldrbteq	r9, [r0], r2, lsl #30
    22e4:	07000000 	streq	r0, [r0, -r0]
    22e8:	00030000 	andeq	r0, r3, r0
    22ec:	ec9f0172 	ldfs	f0, [pc], {114}	; 0x72
    22f0:	f4000007 	vst4.8	{d0-d3}, [r0], r7
    22f4:	03000007 	movweq	r0, #7
    22f8:	9f017300 	svcls	0x00017300
    22fc:	000008b8 			; <UNDEFINED> instruction: 0x000008b8
    2300:	000008bc 			; <UNDEFINED> instruction: 0x000008bc
    2304:	d0910004 	addsle	r0, r1, r4
    2308:	00009f7d 	andeq	r9, r0, sp, ror pc
    230c:	00000000 	andeq	r0, r0, r0
    2310:	00040000 	andeq	r0, r4, r0
    2314:	000008b8 			; <UNDEFINED> instruction: 0x000008b8
    2318:	000008bc 			; <UNDEFINED> instruction: 0x000008bc
    231c:	9f320002 	svcls	0x00320002
	...
    2328:	00000007 	andeq	r0, r0, r7
    232c:	06d00006 	ldrbeq	r0, [r0], r6
    2330:	06e00000 	strbteq	r0, [r0], r0
    2334:	00040000 	andeq	r0, r4, r0
    2338:	9f7dd091 	svcls	0x007dd091
    233c:	000006e0 	andeq	r0, r0, r0, ror #13
    2340:	00000700 	andeq	r0, r0, r0, lsl #14
    2344:	b8550001 	ldmdalt	r5, {r0}^
    2348:	bc000008 	stclt	0, cr0, [r0], {8}
    234c:	04000008 	streq	r0, [r0], #-8
    2350:	7dd09100 	ldfvcp	f1, [r0]
    2354:	0000009f 	muleq	r0, pc, r0	; <UNPREDICTABLE>
    2358:	00000000 	andeq	r0, r0, r0
    235c:	00000100 	andeq	r0, r0, r0, lsl #2
    2360:	00070c00 	andeq	r0, r7, r0, lsl #24
    2364:	0007ec00 	andeq	lr, r7, r0, lsl #24
    2368:	08000300 	stmdaeq	r0, {r8, r9}
    236c:	08949f80 	ldmeq	r4, {r7, r8, r9, sl, fp, ip, pc}
    2370:	08a80000 	stmiaeq	r8!, {}	; <UNPREDICTABLE>
    2374:	00030000 	andeq	r0, r3, r0
    2378:	009f8008 	addseq	r8, pc, r8
	...
    2384:	0c000000 	stceq	0, cr0, [r0], {-0}
    2388:	ec000007 	stc	0, cr0, [r0], {7}
    238c:	02000007 	andeq	r0, r0, #7, 0
    2390:	949f3000 	ldrls	r3, [pc], #0	; 2398 <__code_start__-0x5c68>
    2394:	a8000008 	stmdage	r0, {r3}
    2398:	02000008 	andeq	r0, r0, #8, 0
    239c:	009f3000 	addseq	r3, pc, r0
	...
    23a8:	0c000000 	stceq	0, cr0, [r0], {-0}
    23ac:	d0000007 	andle	r0, r0, r7
    23b0:	01000007 	tsteq	r0, r7
    23b4:	08945500 	ldmeq	r4, {r8, sl, ip, lr}
    23b8:	08a80000 	stmiaeq	r8!, {}	; <UNPREDICTABLE>
    23bc:	00010000 	andeq	r0, r1, r0
    23c0:	00000055 	andeq	r0, r0, r5, asr r0
	...
    23cc:	0c000000 	stceq	0, cr0, [r0], {-0}
    23d0:	d0000007 	andle	r0, r0, r7
    23d4:	04000007 	streq	r0, [r0], #-7
    23d8:	7dd09100 	ldfvcp	f1, [r0]
    23dc:	0007d09f 	muleq	r7, pc, r0	; <UNPREDICTABLE>
    23e0:	0007ec00 	andeq	lr, r7, r0, lsl #24
    23e4:	55000100 	strpl	r0, [r0, #-256]	; 0xffffff00
    23e8:	00000894 	muleq	r0, r4, r8
    23ec:	000008a8 	andeq	r0, r0, r8, lsr #17
    23f0:	d0910004 	addsle	r0, r1, r4
    23f4:	00009f7d 	andeq	r9, r0, sp, ror pc
	...
    2400:	070c0000 	streq	r0, [ip, -r0]
    2404:	07ec0000 	strbeq	r0, [ip, r0]!
    2408:	00020000 	andeq	r0, r2, r0
    240c:	08949f32 	ldmeq	r4, {r1, r4, r5, r8, r9, sl, fp, ip, pc}
    2410:	08a80000 	stmiaeq	r8!, {}	; <UNPREDICTABLE>
    2414:	00020000 	andeq	r0, r2, r0
    2418:	00009f32 	andeq	r9, r0, r2, lsr pc
    241c:	00000000 	andeq	r0, r0, r0
    2420:	05030000 	streq	r0, [r3, #-0]
    2424:	00000005 	andeq	r0, r0, r5
    2428:	00000000 	andeq	r0, r0, r0
    242c:	0000070c 	andeq	r0, r0, ip, lsl #14
    2430:	0000070c 	andeq	r0, r0, ip, lsl #14
    2434:	0c510001 	mrrceq	0, 0, r0, r1, cr1
    2438:	1c000007 	stcne	0, cr0, [r0], {7}
    243c:	01000007 	tsteq	r0, r7
    2440:	071c5300 	ldreq	r5, [ip, -r0, lsl #6]
    2444:	07240000 	streq	r0, [r4, -r0]!
    2448:	00030000 	andeq	r0, r3, r0
    244c:	249f0172 	ldrcs	r0, [pc], #370	; 2454 <__code_start__-0x5bac>
    2450:	cc000007 	stcgt	0, cr0, [r0], {7}
    2454:	01000007 	tsteq	r0, r7
    2458:	08945300 	ldmeq	r4, {r8, r9, ip, lr}
    245c:	08a80000 	stmiaeq	r8!, {}	; <UNPREDICTABLE>
    2460:	00010000 	andeq	r0, r1, r0
    2464:	00000053 	andeq	r0, r0, r3, asr r0
    2468:	00000000 	andeq	r0, r0, r0
    246c:	01000500 	tsteq	r0, r0, lsl #10
    2470:	00070c00 	andeq	r0, r7, r0, lsl #24
    2474:	00072000 	andeq	r2, r7, r0
    2478:	50000100 	andpl	r0, r0, r0, lsl #2
    247c:	00000724 	andeq	r0, r0, r4, lsr #14
    2480:	0000072c 	andeq	r0, r0, ip, lsr #14
    2484:	00500001 	subseq	r0, r0, r1
    2488:	00000000 	andeq	r0, r0, r0
    248c:	03000000 	movweq	r0, #0
    2490:	28010001 	stmdacs	r1, {r0}
    2494:	b0000007 	andlt	r0, r0, r7
    2498:	01000007 	tsteq	r0, r7
    249c:	08945500 	ldmeq	r4, {r8, sl, ip, lr}
    24a0:	08a00000 	stmiaeq	r0!, {}	; <UNPREDICTABLE>
    24a4:	00010000 	andeq	r0, r1, r0
    24a8:	00000055 	andeq	r0, r0, r5, asr r0
    24ac:	00000000 	andeq	r0, r0, r0
    24b0:	00010300 	andeq	r0, r1, r0, lsl #6
    24b4:	00072801 	andeq	r2, r7, r1, lsl #16
    24b8:	0007b000 	andeq	fp, r7, r0
    24bc:	51000100 	mrspl	r0, (UNDEF: 16)
    24c0:	00000894 	muleq	r0, r4, r8
    24c4:	000008a0 	andeq	r0, r0, r0, lsr #17
    24c8:	00510001 	subseq	r0, r1, r1
    24cc:	00000000 	andeq	r0, r0, r0
    24d0:	03000000 	movweq	r0, #0
    24d4:	01010000 	mrseq	r0, (UNDEF: 1)
    24d8:	03030101 	movweq	r0, #12545	; 0x3101
    24dc:	28010002 	stmdacs	r1, {r1}
    24e0:	50000007 	andpl	r0, r0, r7
    24e4:	01000007 	tsteq	r0, r7
    24e8:	07745300 	ldrbeq	r5, [r4, -r0, lsl #6]!
    24ec:	07740000 	ldrbeq	r0, [r4, -r0]!
    24f0:	00010000 	andeq	r0, r1, r0
    24f4:	0007745e 	andeq	r7, r7, lr, asr r4
    24f8:	00078800 	andeq	r8, r7, r0, lsl #16
    24fc:	7e000300 	cdpvc	3, 0, cr0, cr0, cr0, {0}
    2500:	07889f01 	streq	r9, [r8, r1, lsl #30]
    2504:	07940000 	ldreq	r0, [r4, r0]
    2508:	00030000 	andeq	r0, r3, r0
    250c:	949f027e 	ldrls	r0, [pc], #638	; 2514 <__code_start__-0x5aec>
    2510:	98000007 	stmdals	r0, {r0, r1, r2}
    2514:	03000007 	movweq	r0, #7
    2518:	9f037e00 	svcls	0x00037e00
    251c:	00000894 	muleq	r0, r4, r8
    2520:	000008a0 	andeq	r0, r0, r0, lsr #17
    2524:	00530001 	subseq	r0, r3, r1
	...
    2530:	01010000 	mrseq	r0, (UNDEF: 1)
    2534:	01010101 	tsteq	r1, r1, lsl #2
    2538:	2c010002 	stccs	0, cr0, [r1], {2}
    253c:	50000007 	andpl	r0, r0, r7
    2540:	01000007 	tsteq	r0, r7
    2544:	07745000 	ldrbeq	r5, [r4, -r0]!
    2548:	07840000 	streq	r0, [r4, r0]
    254c:	00010000 	andeq	r0, r1, r0
    2550:	00078450 	andeq	r8, r7, r0, asr r4
    2554:	00079400 	andeq	r9, r7, r0, lsl #8
    2558:	5b000100 	blpl	2960 <__code_start__-0x56a0>
    255c:	00000794 	muleq	r0, r4, r7
    2560:	00000798 	muleq	r0, r8, r7
    2564:	98500001 	ldmdals	r0, {r0}^
    2568:	98000007 	stmdals	r0, {r0, r1, r2}
    256c:	03000007 	movweq	r0, #7
    2570:	9f017000 	svcls	0x00017000
    2574:	00000894 	muleq	r0, r4, r8
    2578:	000008a0 	andeq	r0, r0, r0, lsr #17
    257c:	00500001 	subseq	r0, r0, r1
    2580:	00000000 	andeq	r0, r0, r0
    2584:	01000000 	mrseq	r0, (UNDEF: 0)
    2588:	b0000100 	andlt	r0, r0, r0, lsl #2
    258c:	ec000007 	stc	0, cr0, [r0], {7}
    2590:	01000007 	tsteq	r0, r7
    2594:	08a05100 	stmiaeq	r0!, {r8, ip, lr}
    2598:	08a80000 	stmiaeq	r8!, {}	; <UNPREDICTABLE>
    259c:	00010000 	andeq	r0, r1, r0
    25a0:	00000051 	andeq	r0, r0, r1, asr r0
    25a4:	00000000 	andeq	r0, r0, r0
    25a8:	00000100 	andeq	r0, r0, r0, lsl #2
    25ac:	01010000 	mrseq	r0, (UNDEF: 1)
    25b0:	b0000100 	andlt	r0, r0, r0, lsl #2
    25b4:	b4000007 	strlt	r0, [r0], #-7
    25b8:	06000007 	streq	r0, [r0], -r7
    25bc:	7c007300 	stcvc	3, cr7, [r0], {-0}
    25c0:	d49f2200 	ldrle	r2, [pc], #512	; 25c8 <__code_start__-0x5a38>
    25c4:	d8000007 	stmdale	r0, {r0, r1, r2}
    25c8:	03000007 	movweq	r0, #7
    25cc:	9f7f7300 	svcls	0x007f7300
    25d0:	000007d8 	ldrdeq	r0, [r0], -r8
    25d4:	000007e0 	andeq	r0, r0, r0, ror #15
    25d8:	e0530001 	subs	r0, r3, r1
    25dc:	e8000007 	stmda	r0, {r0, r1, r2}
    25e0:	03000007 	movweq	r0, #7
    25e4:	9f7f7300 	svcls	0x007f7300
    25e8:	000008a0 	andeq	r0, r0, r0, lsr #17
    25ec:	000008a8 	andeq	r0, r0, r8, lsr #17
    25f0:	00530001 	subseq	r0, r3, r1
    25f4:	00000000 	andeq	r0, r0, r0
    25f8:	01000000 	mrseq	r0, (UNDEF: 0)
    25fc:	b0000100 	andlt	r0, r0, r0, lsl #2
    2600:	ec000007 	stc	0, cr0, [r0], {7}
    2604:	03000007 	movweq	r0, #7
    2608:	9f800800 	svcls	0x00800800
    260c:	000008a0 	andeq	r0, r0, r0, lsr #17
    2610:	000008a8 	andeq	r0, r0, r8, lsr #17
    2614:	80080003 	andhi	r0, r8, r3
    2618:	0000009f 	muleq	r0, pc, r0	; <UNPREDICTABLE>
    261c:	00000000 	andeq	r0, r0, r0
    2620:	00000100 	andeq	r0, r0, r0, lsl #2
    2624:	01010000 	mrseq	r0, (UNDEF: 1)
    2628:	01000000 	mrseq	r0, (UNDEF: 0)
    262c:	0007b000 	andeq	fp, r7, r0
    2630:	0007d000 	andeq	sp, r7, r0
    2634:	91000400 	tstls	r0, r0, lsl #8
    2638:	d09f7dd0 			; <UNDEFINED> instruction: 0xd09f7dd0
    263c:	d4000007 	strle	r0, [r0], #-7
    2640:	01000007 	tsteq	r0, r7
    2644:	07d45500 	ldrbeq	r5, [r4, r0, lsl #10]
    2648:	07d40000 	ldrbeq	r0, [r4, r0]
    264c:	00030000 	andeq	r0, r3, r0
    2650:	d49f017c 	ldrle	r0, [pc], #380	; 2658 <__code_start__-0x59a8>
    2654:	e0000007 	and	r0, r0, r7
    2658:	03000007 	movweq	r0, #7
    265c:	9f027c00 	svcls	0x00027c00
    2660:	000007e0 	andeq	r0, r0, r0, ror #15
    2664:	000007ec 	andeq	r0, r0, ip, ror #15
    2668:	017c0003 	cmneq	ip, r3
    266c:	0008a09f 	muleq	r8, pc, r0	; <UNPREDICTABLE>
    2670:	0008a800 	andeq	sl, r8, r0, lsl #16
    2674:	91000400 	tstls	r0, r0, lsl #8
    2678:	009f7dd0 			; <UNDEFINED> instruction: 0x009f7dd0
    267c:	00000000 	andeq	r0, r0, r0
    2680:	04000000 	streq	r0, [r0], #-0
    2684:	b0000400 	andlt	r0, r0, r0, lsl #8
    2688:	b4000007 	strlt	r0, [r0], #-7
    268c:	03000007 	movweq	r0, #7
    2690:	9f017000 	svcls	0x00017000
    2694:	000008a0 	andeq	r0, r0, r0, lsr #17
    2698:	000008a8 	andeq	r0, r0, r8, lsr #17
    269c:	01700003 	cmneq	r0, r3
    26a0:	0000009f 	muleq	r0, pc, r0	; <UNPREDICTABLE>
    26a4:	00000000 	andeq	r0, r0, r0
    26a8:	00000100 	andeq	r0, r0, r0, lsl #2
    26ac:	0007bc00 	andeq	fp, r7, r0, lsl #24
    26b0:	0007d000 	andeq	sp, r7, r0
    26b4:	91000400 	tstls	r0, r0, lsl #8
    26b8:	d09f7dd0 			; <UNDEFINED> instruction: 0xd09f7dd0
    26bc:	ec000007 	stc	0, cr0, [r0], {7}
    26c0:	01000007 	tsteq	r0, r7
    26c4:	00005500 	andeq	r5, r0, r0, lsl #10
	...
    26d0:	03280000 			; <UNDEFINED> instruction: 0x03280000
    26d4:	03640000 	cmneq	r4, #0, 0
    26d8:	00010000 	andeq	r0, r1, r0
    26dc:	00036450 	andeq	r6, r3, r0, asr r4
    26e0:	00038800 	andeq	r8, r3, r0, lsl #16
    26e4:	f3000400 	vshl.u8	d0, d0, d0
    26e8:	009f5001 	addseq	r5, pc, r1
	...
    26f4:	28000000 	stmdacs	r0, {}	; <UNPREDICTABLE>
    26f8:	5c000003 	stcpl	0, cr0, [r0], {3}
    26fc:	01000003 	tsteq	r0, r3
    2700:	035c5100 	cmpeq	ip, #0
    2704:	03880000 	orreq	r0, r8, #0, 0
    2708:	00040000 	andeq	r0, r4, r0
    270c:	9f5101f3 	svcls	0x005101f3
	...
    2734:	00000014 	andeq	r0, r0, r4, lsl r0
    2738:	14500001 	ldrbne	r0, [r0], #-1
    273c:	20000000 	andcs	r0, r0, r0
    2740:	01000000 	mrseq	r0, (UNDEF: 0)
    2744:	00205c00 	eoreq	r5, r0, r0, lsl #24
    2748:	00680000 	rsbeq	r0, r8, r0
    274c:	00030000 	andeq	r0, r3, r0
    2750:	689f0271 	ldmvs	pc, {r0, r4, r5, r6, r9}	; <UNPREDICTABLE>
    2754:	6c000000 	stcvs	0, cr0, [r0], {-0}
    2758:	03000000 	movweq	r0, #0
    275c:	9f027300 	svcls	0x00027300
    2760:	0000006c 	andeq	r0, r0, ip, rrx
    2764:	00000194 	muleq	r0, r4, r1
    2768:	01f30004 	mvnseq	r0, r4
    276c:	01949f50 	orrseq	r9, r4, r0, asr pc
    2770:	01980000 	orrseq	r0, r8, r0
    2774:	00030000 	andeq	r0, r3, r0
    2778:	989f0273 	ldmls	pc, {r0, r1, r4, r5, r6, r9}	; <UNPREDICTABLE>
    277c:	c0000001 	andgt	r0, r0, r1
    2780:	04000001 	streq	r0, [r0], #-1
    2784:	5001f300 	andpl	pc, r1, r0, lsl #6
    2788:	0001c09f 	muleq	r1, pc, r0	; <UNPREDICTABLE>
    278c:	0001c800 	andeq	ip, r1, r0, lsl #16
    2790:	5c000100 	stfpls	f0, [r0], {-0}
    2794:	000001c8 	andeq	r0, r0, r8, asr #3
    2798:	00000214 	andeq	r0, r0, r4, lsl r2
    279c:	02730003 	rsbseq	r0, r3, #3, 0
    27a0:	0002149f 	muleq	r2, pc, r4	; <UNPREDICTABLE>
    27a4:	0002ec00 	andeq	lr, r2, r0, lsl #24
    27a8:	f3000400 	vshl.u8	d0, d0, d0
    27ac:	ec9f5001 	ldc	0, cr5, [pc], {1}
    27b0:	f4000002 	vst4.8	{d0-d3}, [r0], r2
    27b4:	03000002 	movweq	r0, #2
    27b8:	9f027300 	svcls	0x00027300
    27bc:	000002f4 	strdeq	r0, [r0], -r4
    27c0:	00000328 	andeq	r0, r0, r8, lsr #6
    27c4:	01f30004 	mvnseq	r0, r4
    27c8:	00009f50 	andeq	r9, r0, r0, asr pc
	...
    27dc:	001c0000 	andseq	r0, ip, r0
    27e0:	00010000 	andeq	r0, r1, r0
    27e4:	00001c51 	andeq	r1, r0, r1, asr ip
    27e8:	0002e000 	andeq	lr, r2, r0
    27ec:	50000100 	andpl	r0, r0, r0, lsl #2
    27f0:	000002e0 	andeq	r0, r0, r0, ror #5
    27f4:	000002ec 	andeq	r0, r0, ip, ror #5
    27f8:	01f30004 	mvnseq	r0, r4
    27fc:	02ec9f51 	rsceq	r9, ip, #324	; 0x144
    2800:	03280000 			; <UNDEFINED> instruction: 0x03280000
    2804:	00010000 	andeq	r0, r1, r0
    2808:	00000050 	andeq	r0, r0, r0, asr r0
	...
    2814:	00010000 	andeq	r0, r1, r0
    2818:	00000000 	andeq	r0, r0, r0
    281c:	02020000 	andeq	r0, r2, #0, 0
	...
    2834:	00007000 	andeq	r7, r0, r0
    2838:	52000100 	andpl	r0, r0, #0
    283c:	00000070 	andeq	r0, r0, r0, ror r0
    2840:	00000078 	andeq	r0, r0, r8, ror r0
    2844:	785c0001 	ldmdavc	ip, {r0}^
    2848:	a4000000 	strge	r0, [r0], #-0
    284c:	04000000 	streq	r0, [r0], #-0
    2850:	5201f300 	andpl	pc, r1, #0, 6
    2854:	0001949f 	muleq	r1, pc, r4	; <UNPREDICTABLE>
    2858:	00019c00 	andeq	r9, r1, r0, lsl #24
    285c:	52000100 	andpl	r0, r0, #0
    2860:	0000019c 	muleq	r0, ip, r1
    2864:	000001a4 	andeq	r0, r0, r4, lsr #3
    2868:	a45c0001 	ldrbge	r0, [ip], #-1
    286c:	c0000001 	andgt	r0, r0, r1
    2870:	04000001 	streq	r0, [r0], #-1
    2874:	5201f300 	andpl	pc, r1, #0, 6
    2878:	0001c09f 	muleq	r1, pc, r0	; <UNPREDICTABLE>
    287c:	00022000 	andeq	r2, r2, r0
    2880:	52000100 	andpl	r0, r0, #0
    2884:	00000220 	andeq	r0, r0, r0, lsr #4
    2888:	00000228 	andeq	r0, r0, r8, lsr #4
    288c:	00720004 	rsbseq	r0, r2, r4
    2890:	02289f1f 	eoreq	r9, r8, #124	; 0x7c
    2894:	02740000 	rsbseq	r0, r4, #0, 0
    2898:	00050000 	andeq	r0, r5, r0
    289c:	1f5201f3 	svcne	0x005201f3
    28a0:	0002749f 	muleq	r2, pc, r4	; <UNPREDICTABLE>
    28a4:	00028800 	andeq	r8, r2, r0, lsl #16
    28a8:	52000100 	andpl	r0, r0, #0
    28ac:	00000288 	andeq	r0, r0, r8, lsl #5
    28b0:	000002a0 	andeq	r0, r0, r0, lsr #5
    28b4:	cc5c0001 	mrrcgt	0, 0, r0, ip, cr1
    28b8:	d0000002 	andle	r0, r0, r2
    28bc:	01000002 	tsteq	r0, r2
    28c0:	02d05200 	sbcseq	r5, r0, #0, 4
    28c4:	02e70000 	rsceq	r0, r7, #0, 0
    28c8:	00010000 	andeq	r0, r1, r0
    28cc:	0002e75c 	andeq	lr, r2, ip, asr r7
    28d0:	0002ec00 	andeq	lr, r2, r0, lsl #24
    28d4:	f3000400 	vshl.u8	d0, d0, d0
    28d8:	ec9f5201 	lfm	f5, 4, [pc], {1}
    28dc:	00000002 	andeq	r0, r0, r2
    28e0:	01000003 	tsteq	r0, r3
    28e4:	03005200 	movweq	r5, #512	; 0x200
    28e8:	03280000 			; <UNDEFINED> instruction: 0x03280000
    28ec:	00010000 	andeq	r0, r1, r0
    28f0:	0000005c 	andeq	r0, r0, ip, asr r0
	...
    2908:	68000000 	stmdavs	r0, {}	; <UNPREDICTABLE>
    290c:	01000000 	mrseq	r0, (UNDEF: 0)
    2910:	00685300 	rsbeq	r5, r8, r0, lsl #6
    2914:	006c0000 	rsbeq	r0, ip, r0
    2918:	00030000 	andeq	r0, r3, r0
    291c:	949f7f08 	ldrls	r7, [pc], #3848	; 2924 <__code_start__-0x56dc>
    2920:	98000001 	stmdals	r0, {r0}
    2924:	03000001 	movweq	r0, #1
    2928:	9f7f0800 	svcls	0x007f0800
    292c:	000001c0 	andeq	r0, r0, r0, asr #3
    2930:	00000214 	andeq	r0, r0, r4, lsl r2
    2934:	7f080003 	svcvc	0x00080003
    2938:	0002749f 	muleq	r2, pc, r4	; <UNPREDICTABLE>
    293c:	00029000 	andeq	r9, r2, r0
    2940:	53000100 	movwpl	r0, #256	; 0x100
    2944:	00000290 	muleq	r0, r0, r2
    2948:	000002a0 	andeq	r0, r0, r0, lsr #5
    294c:	01f30004 	mvnseq	r0, r4
    2950:	02ec9f53 	rsceq	r9, ip, #332	; 0x14c
    2954:	03280000 			; <UNDEFINED> instruction: 0x03280000
    2958:	00030000 	andeq	r0, r3, r0
    295c:	009f7f08 	addseq	r7, pc, r8, lsl #30
    2960:	00000000 	andeq	r0, r0, r0
    2964:	01000000 	mrseq	r0, (UNDEF: 0)
    2968:	00000000 	andeq	r0, r0, r0
    296c:	00000202 	andeq	r0, r0, r2, lsl #4
    2970:	00000101 	andeq	r0, r0, r1, lsl #2
    2974:	00000000 	andeq	r0, r0, r0
    2978:	02020000 	andeq	r0, r2, #0, 0
    297c:	01000000 	mrseq	r0, (UNDEF: 0)
	...
    2988:	00000101 	andeq	r0, r0, r1, lsl #2
    298c:	02020000 	andeq	r0, r2, #0, 0
    2990:	00000000 	andeq	r0, r0, r0
    2994:	01010000 	mrseq	r0, (UNDEF: 1)
    2998:	18000000 	stmdane	r0, {}	; <UNPREDICTABLE>
    299c:	70000000 	andvc	r0, r0, r0
    29a0:	04000000 	streq	r0, [r0], #-0
    29a4:	7fa09100 	svcvc	0x00a09100
    29a8:	0000709f 	muleq	r0, pc, r0	; <UNPREDICTABLE>
    29ac:	00007800 	andeq	r7, r0, r0, lsl #16
    29b0:	52000100 	andpl	r0, r0, #0
    29b4:	00000078 	andeq	r0, r0, r8, ror r0
    29b8:	00000078 	andeq	r0, r0, r8, ror r0
    29bc:	78540001 	ldmdavc	r4, {r0}^
    29c0:	88000000 	stmdahi	r0, {}	; <UNPREDICTABLE>
    29c4:	03000000 	movweq	r0, #0
    29c8:	9f017400 	svcls	0x00017400
    29cc:	00000088 	andeq	r0, r0, r8, lsl #1
    29d0:	00000090 	muleq	r0, r0, r0
    29d4:	90540001 	subsls	r0, r4, r1
    29d8:	a0000000 	andge	r0, r0, r0
    29dc:	03000000 	movweq	r0, #0
    29e0:	9f027400 	svcls	0x00027400
    29e4:	000000a0 	andeq	r0, r0, r0, lsr #1
    29e8:	000000b0 	strheq	r0, [r0], -r0	; <UNPREDICTABLE>
    29ec:	945e0001 	ldrbls	r0, [lr], #-1
    29f0:	9c000001 	stcls	0, cr0, [r0], {1}
    29f4:	04000001 	streq	r0, [r0], #-1
    29f8:	7fa09100 	svcvc	0x00a09100
    29fc:	00019c9f 	muleq	r1, pc, ip	; <UNPREDICTABLE>
    2a00:	0001a400 	andeq	sl, r1, r0, lsl #8
    2a04:	52000100 	andpl	r0, r0, #0
    2a08:	000001a4 	andeq	r0, r0, r4, lsr #3
    2a0c:	000001a4 	andeq	r0, r0, r4, lsr #3
    2a10:	a45e0001 	ldrbge	r0, [lr], #-1
    2a14:	b4000001 	strlt	r0, [r0], #-1
    2a18:	03000001 	movweq	r0, #1
    2a1c:	9f017e00 	svcls	0x00017e00
    2a20:	000001b4 			; <UNDEFINED> instruction: 0x000001b4
    2a24:	000001c0 	andeq	r0, r0, r0, asr #3
    2a28:	c05e0001 	subsgt	r0, lr, r1
    2a2c:	28000001 	stmdacs	r0, {r0}
    2a30:	04000002 	streq	r0, [r0], #-2
    2a34:	7fa09100 	svcvc	0x00a09100
    2a38:	0002289f 	muleq	r2, pc, r8	; <UNPREDICTABLE>
    2a3c:	00023400 	andeq	r3, r2, r0, lsl #8
    2a40:	52000100 	andpl	r0, r0, #0
    2a44:	00000234 	andeq	r0, r0, r4, lsr r2
    2a48:	00000258 	andeq	r0, r0, r8, asr r2
    2a4c:	585e0001 	ldmdapl	lr, {r0}^
    2a50:	5c000002 	stcpl	0, cr0, [r0], {2}
    2a54:	03000002 	movweq	r0, #2
    2a58:	9f017e00 	svcls	0x00017e00
    2a5c:	0000025c 	andeq	r0, r0, ip, asr r2
    2a60:	00000264 	andeq	r0, r0, r4, ror #4
    2a64:	645e0001 	ldrbvs	r0, [lr], #-1
    2a68:	70000002 	andvc	r0, r0, r2
    2a6c:	03000002 	movweq	r0, #2
    2a70:	9f027100 	svcls	0x00027100
    2a74:	00000270 	andeq	r0, r0, r0, ror r2
    2a78:	00000274 	andeq	r0, r0, r4, ror r2
    2a7c:	745e0001 	ldrbvc	r0, [lr], #-1
    2a80:	74000002 	strvc	r0, [r0], #-2
    2a84:	04000002 	streq	r0, [r0], #-2
    2a88:	7fa09100 	svcvc	0x00a09100
    2a8c:	0002749f 	muleq	r2, pc, r4	; <UNPREDICTABLE>
    2a90:	0002a000 	andeq	sl, r2, r0
    2a94:	91000400 	tstls	r0, r0, lsl #8
    2a98:	c09f7fa1 	addsgt	r7, pc, r1, lsr #31
    2a9c:	c8000002 	stmdagt	r0, {r1}
    2aa0:	01000002 	tsteq	r0, r2
    2aa4:	02c85e00 	sbceq	r5, r8, #0, 28
    2aa8:	02cc0000 	sbceq	r0, ip, #0, 0
    2aac:	00010000 	andeq	r0, r1, r0
    2ab0:	0002cc56 	andeq	ip, r2, r6, asr ip
    2ab4:	0002ec00 	andeq	lr, r2, r0, lsl #24
    2ab8:	91000400 	tstls	r0, r0, lsl #8
    2abc:	ec9f7fa0 	ldc	15, cr7, [pc], {160}	; 0xa0
    2ac0:	fc000002 	stc2	0, cr0, [r0], {2}
    2ac4:	04000002 	streq	r0, [r0], #-2
    2ac8:	7fa19100 	svcvc	0x00a19100
    2acc:	0002fc9f 	muleq	r2, pc, ip	; <UNPREDICTABLE>
    2ad0:	00032800 	andeq	r2, r3, r0, lsl #16
    2ad4:	5e000100 	adfpls	f0, f0, f0
	...
    2aec:	01000000 	mrseq	r0, (UNDEF: 0)
    2af0:	00000001 	andeq	r0, r0, r1
	...
    2b00:	00200000 	eoreq	r0, r0, r0
    2b04:	00700000 	rsbseq	r0, r0, r0
    2b08:	00010000 	andeq	r0, r1, r0
    2b0c:	00007052 	andeq	r7, r0, r2, asr r0
    2b10:	00009400 	andeq	r9, r0, r0, lsl #8
    2b14:	5c000100 	stfpls	f0, [r0], {-0}
    2b18:	00000194 	muleq	r0, r4, r1
    2b1c:	0000019c 	muleq	r0, ip, r1
    2b20:	9c520001 	mrrcls	0, 0, r0, r2, cr1
    2b24:	c0000001 	andgt	r0, r0, r1
    2b28:	01000001 	tsteq	r0, r1
    2b2c:	01c85c00 	biceq	r5, r8, r0, lsl #24
    2b30:	02100000 	andseq	r0, r0, #0, 0
    2b34:	00010000 	andeq	r0, r1, r0
    2b38:	0002105c 	andeq	r1, r2, ip, asr r0
    2b3c:	00022400 	andeq	r2, r2, r0, lsl #8
    2b40:	52000100 	andpl	r0, r0, #0
    2b44:	00000224 	andeq	r0, r0, r4, lsr #4
    2b48:	00000248 	andeq	r0, r0, r8, asr #4
    2b4c:	485c0001 	ldmdami	ip, {r0}^
    2b50:	5c000002 	stcpl	0, cr0, [r0], {2}
    2b54:	01000002 	tsteq	r0, r2
    2b58:	025c5500 	subseq	r5, ip, #0, 10
    2b5c:	02680000 	rsbeq	r0, r8, #0, 0
    2b60:	00010000 	andeq	r0, r1, r0
    2b64:	0002685c 	andeq	r6, r2, ip, asr r8
    2b68:	00027400 	andeq	r7, r2, r0, lsl #8
    2b6c:	75001900 	strvc	r1, [r0, #-2304]	; 0xfffff700
    2b70:	f72cf700 			; <UNDEFINED> instruction: 0xf72cf700
    2b74:	f7007625 			; <UNDEFINED> instruction: 0xf7007625
    2b78:	1e25f72c 	cdpne	7, 2, cr15, cr5, cr12, {1}
    2b7c:	25f72008 	ldrbcs	r2, [r7, #8]!
    2b80:	f72cf725 			; <UNDEFINED> instruction: 0xf72cf725
    2b84:	9f253300 	svcls	0x00253300
    2b88:	00000274 	andeq	r0, r0, r4, ror r2
    2b8c:	00000288 	andeq	r0, r0, r8, lsl #5
    2b90:	88520001 	ldmdahi	r2, {r0}^
    2b94:	a0000002 	andge	r0, r0, r2
    2b98:	01000002 	tsteq	r0, r2
    2b9c:	02cc5c00 	sbceq	r5, ip, #0, 24
    2ba0:	02d00000 	sbcseq	r0, r0, #0, 0
    2ba4:	00010000 	andeq	r0, r1, r0
    2ba8:	0002d052 	andeq	sp, r2, r2, asr r0
    2bac:	0002e700 	andeq	lr, r2, r0, lsl #14
    2bb0:	5c000100 	stfpls	f0, [r0], {-0}
    2bb4:	000002e7 	andeq	r0, r0, r7, ror #5
    2bb8:	000002ec 	andeq	r0, r0, ip, ror #5
    2bbc:	01f30004 	mvnseq	r0, r4
    2bc0:	02ec9f52 	rsceq	r9, ip, #328	; 0x148
    2bc4:	03000000 	movweq	r0, #0
    2bc8:	00010000 	andeq	r0, r1, r0
    2bcc:	00030052 	andeq	r0, r3, r2, asr r0
    2bd0:	00032800 	andeq	r2, r3, r0, lsl #16
    2bd4:	5c000100 	stfpls	f0, [r0], {-0}
	...
    2be0:	00040004 	andeq	r0, r4, r4
    2be4:	00000100 	andeq	r0, r0, r0, lsl #2
    2be8:	00a40004 	adceq	r0, r4, r4
    2bec:	00b00000 	adcseq	r0, r0, r0
    2bf0:	00010000 	andeq	r0, r1, r0
    2bf4:	00027c53 	andeq	r7, r2, r3, asr ip
    2bf8:	00029000 	andeq	r9, r2, r0
    2bfc:	53000100 	movwpl	r0, #256	; 0x100
    2c00:	00000290 	muleq	r0, r0, r2
    2c04:	0000029c 	muleq	r0, ip, r2
    2c08:	01f30004 	mvnseq	r0, r4
    2c0c:	02c09f53 	sbceq	r9, r0, #332	; 0x14c
    2c10:	02cc0000 	sbceq	r0, ip, #0, 0
    2c14:	00010000 	andeq	r0, r1, r0
    2c18:	0002f053 	andeq	pc, r2, r3, asr r0	; <UNPREDICTABLE>
    2c1c:	00032800 	andeq	r2, r3, r0, lsl #16
    2c20:	08000300 	stmdaeq	r0, {r8, r9}
    2c24:	00009f7f 	andeq	r9, r0, pc, ror pc
    2c28:	00000000 	andeq	r0, r0, r0
    2c2c:	00040000 	andeq	r0, r4, r0
    2c30:	00040100 	andeq	r0, r4, r0, lsl #2
    2c34:	00000100 	andeq	r0, r0, r0, lsl #2
    2c38:	00040000 	andeq	r0, r4, r0
    2c3c:	00a40000 	adceq	r0, r4, r0
    2c40:	00b00000 	adcseq	r0, r0, r0
    2c44:	00010000 	andeq	r0, r1, r0
    2c48:	0000b052 	andeq	fp, r0, r2, asr r0
    2c4c:	00015c00 	andeq	r5, r1, r0, lsl #24
    2c50:	91000400 	tstls	r0, r0, lsl #8
    2c54:	7c9f7fa0 	ldcvc	15, cr7, [pc], {160}	; 0xa0
    2c58:	94000002 	strls	r0, [r0], #-2
    2c5c:	04000002 	streq	r0, [r0], #-2
    2c60:	7fa09100 	svcvc	0x00a09100
    2c64:	0002949f 	muleq	r2, pc, r4	; <UNPREDICTABLE>
    2c68:	00029c00 	andeq	r9, r2, r0, lsl #24
    2c6c:	5e000100 	adfpls	f0, f0, f0
    2c70:	000002b4 			; <UNDEFINED> instruction: 0x000002b4
    2c74:	000002c0 	andeq	r0, r0, r0, asr #5
    2c78:	a0910004 	addsge	r0, r1, r4
    2c7c:	02c09f7f 	sbceq	r9, r0, #508	; 0x1fc
    2c80:	02cc0000 	sbceq	r0, ip, #0, 0
    2c84:	00010000 	andeq	r0, r1, r0
    2c88:	0002f052 	andeq	pc, r2, r2, asr r0	; <UNPREDICTABLE>
    2c8c:	00030000 	andeq	r0, r3, r0
    2c90:	91000400 	tstls	r0, r0, lsl #8
    2c94:	009f7fa0 	addseq	r7, pc, r0, lsr #31
    2c98:	28000003 	stmdacs	r0, {r0, r1}
    2c9c:	01000003 	tsteq	r0, r3
    2ca0:	00005200 	andeq	r5, r0, r0, lsl #4
    2ca4:	00000000 	andeq	r0, r0, r0
    2ca8:	00040000 	andeq	r0, r4, r0
    2cac:	01010100 	mrseq	r0, (UNDEF: 17)
    2cb0:	02030301 	andeq	r0, r3, #67108864	; 0x4000000
    2cb4:	00000104 	andeq	r0, r0, r4, lsl #2
    2cb8:	00040000 	andeq	r0, r4, r0
    2cbc:	00a40000 	adceq	r0, r4, r0
    2cc0:	00b00000 	adcseq	r0, r0, r0
    2cc4:	00010000 	andeq	r0, r1, r0
    2cc8:	00010c5e 	andeq	r0, r1, lr, asr ip
    2ccc:	00010c00 	andeq	r0, r1, r0, lsl #24
    2cd0:	55000100 	strpl	r0, [r0, #-256]	; 0xffffff00
    2cd4:	0000010c 	andeq	r0, r0, ip, lsl #2
    2cd8:	00000120 	andeq	r0, r0, r0, lsr #2
    2cdc:	01750003 	cmneq	r5, r3
    2ce0:	0001209f 	muleq	r1, pc, r0	; <UNPREDICTABLE>
    2ce4:	00012c00 	andeq	r2, r1, r0, lsl #24
    2ce8:	75000300 	strvc	r0, [r0, #-768]	; 0xfffffd00
    2cec:	012c9f02 			; <UNDEFINED> instruction: 0x012c9f02
    2cf0:	01300000 	teqeq	r0, r0
    2cf4:	00030000 	andeq	r0, r3, r0
    2cf8:	7c9f0375 	ldcvc	3, cr0, [pc], {117}	; 0x75
    2cfc:	9c000002 	stcls	0, cr0, [r0], {2}
    2d00:	04000002 	streq	r0, [r0], #-2
    2d04:	7fa19100 	svcvc	0x00a19100
    2d08:	0002c09f 	muleq	r2, pc, r0	; <UNPREDICTABLE>
    2d0c:	0002c800 	andeq	ip, r2, r0, lsl #16
    2d10:	5e000100 	adfpls	f0, f0, f0
    2d14:	000002c8 	andeq	r0, r0, r8, asr #5
    2d18:	000002cc 	andeq	r0, r0, ip, asr #5
    2d1c:	f0560001 			; <UNDEFINED> instruction: 0xf0560001
    2d20:	fc000002 	stc2	0, cr0, [r0], {2}
    2d24:	04000002 	streq	r0, [r0], #-2
    2d28:	7fa19100 	svcvc	0x00a19100
    2d2c:	0002fc9f 	muleq	r2, pc, ip	; <UNPREDICTABLE>
    2d30:	00032800 	andeq	r2, r3, r0, lsl #16
    2d34:	5e000100 	adfpls	f0, f0, f0
	...
    2d40:	01000000 	mrseq	r0, (UNDEF: 0)
    2d44:	01010101 	tsteq	r1, r1, lsl #2
    2d48:	01060201 	tsteq	r6, r1, lsl #4
    2d4c:	00060000 	andeq	r0, r6, r0
    2d50:	000000a8 	andeq	r0, r0, r8, lsr #1
    2d54:	000000b0 	strheq	r0, [r0], -r0	; <UNPREDICTABLE>
    2d58:	0c510001 	mrrceq	0, 0, r0, r1, cr1
    2d5c:	1c000001 	stcne	0, cr0, [r0], {1}
    2d60:	01000001 	tsteq	r0, r1
    2d64:	011c5c00 	tsteq	ip, r0, lsl #24
    2d68:	012c0000 			; <UNDEFINED> instruction: 0x012c0000
    2d6c:	00010000 	andeq	r0, r1, r0
    2d70:	00012c58 	andeq	r2, r1, r8, asr ip
    2d74:	00013000 	andeq	r3, r1, r0
    2d78:	5c000100 	stfpls	f0, [r0], {-0}
    2d7c:	00000130 	andeq	r0, r0, r0, lsr r1
    2d80:	00000130 	andeq	r0, r0, r0, lsr r1
    2d84:	017c0003 	cmneq	ip, r3
    2d88:	00027c9f 	muleq	r2, pc, ip	; <UNPREDICTABLE>
    2d8c:	00029c00 	andeq	r9, r2, r0, lsl #24
    2d90:	31000200 	mrscc	r0, R8_usr
    2d94:	0002c09f 	muleq	r2, pc, r0	; <UNPREDICTABLE>
    2d98:	0002cc00 	andeq	ip, r2, r0, lsl #24
    2d9c:	51000100 	mrspl	r0, (UNDEF: 16)
    2da0:	000002f0 	strdeq	r0, [r0], -r0	; <UNPREDICTABLE>
    2da4:	00000328 	andeq	r0, r0, r8, lsr #6
    2da8:	9f310002 	svcls	0x00310002
	...
    2db4:	01060601 	tsteq	r6, r1, lsl #12
    2db8:	01000001 	tsteq	r0, r1
    2dbc:	0000015c 	andeq	r0, r0, ip, asr r1
    2dc0:	0000015c 	andeq	r0, r0, ip, asr r1
    2dc4:	a0910004 	addsge	r0, r1, r4
    2dc8:	015c9f7f 	cmpeq	ip, pc, ror pc
    2dcc:	018c0000 	orreq	r0, ip, r0
    2dd0:	00010000 	andeq	r0, r1, r0
    2dd4:	00029c52 	andeq	r9, r2, r2, asr ip
    2dd8:	0002a000 	andeq	sl, r2, r0
    2ddc:	5e000100 	adfpls	f0, f0, f0
    2de0:	000002a0 	andeq	r0, r0, r0, lsr #5
    2de4:	000002ac 	andeq	r0, r0, ip, lsr #5
    2de8:	00520001 	subseq	r0, r2, r1
	...
    2df4:	01010000 	mrseq	r0, (UNDEF: 1)
    2df8:	6c070100 	stfvss	f0, [r7], {-0}
    2dfc:	70000001 	andvc	r0, r0, r1
    2e00:	03000001 	movweq	r0, #1
    2e04:	9f7f7300 	svcls	0x007f7300
    2e08:	00000170 	andeq	r0, r0, r0, ror r1
    2e0c:	00000178 	andeq	r0, r0, r8, ror r1
    2e10:	78530001 	ldmdavc	r3, {r0}^
    2e14:	84000001 	strhi	r0, [r0], #-1
    2e18:	03000001 	movweq	r0, #1
    2e1c:	9f7f7300 	svcls	0x007f7300
    2e20:	0000029c 	muleq	r0, ip, r2
    2e24:	0000029c 	muleq	r0, ip, r2
    2e28:	a1910004 	orrsge	r0, r1, r4
    2e2c:	00009f7f 	andeq	r9, r0, pc, ror pc
    2e30:	00000000 	andeq	r0, r0, r0
    2e34:	01010000 	mrseq	r0, (UNDEF: 1)
    2e38:	015c0101 	cmpeq	ip, r1, lsl #2
    2e3c:	018c0000 	orreq	r0, ip, r0
    2e40:	00030000 	andeq	r0, r3, r0
    2e44:	9c9f8008 	ldcls	0, cr8, [pc], {8}
    2e48:	ac000002 	stcge	0, cr0, [r0], {2}
    2e4c:	03000002 	movweq	r0, #2
    2e50:	9f800800 	svcls	0x00800800
	...
    2e5c:	01000001 	tsteq	r0, r1
    2e60:	01000001 	tsteq	r0, r1
    2e64:	01010101 	tsteq	r1, r1, lsl #2
    2e68:	015c0101 	cmpeq	ip, r1, lsl #2
    2e6c:	016c0000 	cmneq	ip, r0
    2e70:	00010000 	andeq	r0, r1, r0
    2e74:	00016c50 	andeq	r6, r1, r0, asr ip
    2e78:	00016c00 	andeq	r6, r1, r0, lsl #24
    2e7c:	7c000300 	stcvc	3, cr0, [r0], {-0}
    2e80:	016c9f01 	cmneq	ip, r1, lsl #30
    2e84:	01780000 	cmneq	r8, r0
    2e88:	00030000 	andeq	r0, r3, r0
    2e8c:	789f027c 	ldmvc	pc, {r2, r3, r4, r5, r6, r9}	; <UNPREDICTABLE>
    2e90:	88000001 	stmdahi	r0, {r0}
    2e94:	03000001 	movweq	r0, #1
    2e98:	9f017c00 	svcls	0x00017c00
    2e9c:	00000188 	andeq	r0, r0, r8, lsl #3
    2ea0:	0000018c 	andeq	r0, r0, ip, lsl #3
    2ea4:	017e0003 	cmneq	lr, r3
    2ea8:	00029c9f 	muleq	r2, pc, ip	; <UNPREDICTABLE>
    2eac:	0002a400 	andeq	sl, r2, r0, lsl #8
    2eb0:	50000100 	andpl	r0, r0, r0, lsl #2
    2eb4:	000002a4 	andeq	r0, r0, r4, lsr #5
    2eb8:	000002ac 	andeq	r0, r0, ip, lsr #5
    2ebc:	017e0003 	cmneq	lr, r3
    2ec0:	0000009f 	muleq	r0, pc, r0	; <UNPREDICTABLE>
    2ec4:	00000000 	andeq	r0, r0, r0
    2ec8:	04000400 	streq	r0, [r0], #-1024	; 0xfffffc00
    2ecc:	5c010000 	stcpl	0, cr0, [r1], {-0}
    2ed0:	60000001 	andvs	r0, r0, r1
    2ed4:	03000001 	movweq	r0, #1
    2ed8:	9f017100 	svcls	0x00017100
    2edc:	0000029c 	muleq	r0, ip, r2
    2ee0:	000002a0 	andeq	r0, r0, r0, lsr #5
    2ee4:	9f320002 	svcls	0x00320002
    2ee8:	000002a0 	andeq	r0, r0, r0, lsr #5
    2eec:	000002ac 	andeq	r0, r0, ip, lsr #5
    2ef0:	01710003 	cmneq	r1, r3
    2ef4:	0000009f 	muleq	r0, pc, r0	; <UNPREDICTABLE>
    2ef8:	00000000 	andeq	r0, r0, r0
    2efc:	06000700 	streq	r0, [r0], -r0, lsl #14
    2f00:	00015c00 	andeq	r5, r1, r0, lsl #24
    2f04:	00019400 	andeq	r9, r1, r0, lsl #8
    2f08:	50000100 	andpl	r0, r0, r0, lsl #2
    2f0c:	0000029c 	muleq	r0, ip, r2
    2f10:	000002b4 			; <UNDEFINED> instruction: 0x000002b4
    2f14:	00500001 	subseq	r0, r0, r1
    2f18:	00000000 	andeq	r0, r0, r0
    2f1c:	01000000 	mrseq	r0, (UNDEF: 0)
    2f20:	14000101 	strne	r0, [r0], #-257	; 0xfffffeff
    2f24:	20000002 	andcs	r0, r0, r2
    2f28:	02000002 	andeq	r0, r0, #2, 0
    2f2c:	209f3000 	addscs	r3, pc, r0
    2f30:	34000002 	strcc	r0, [r0], #-2
    2f34:	02000002 	andeq	r0, r0, #2, 0
    2f38:	009f3100 	addseq	r3, pc, r0, lsl #2
	...
    2f44:	02020101 	andeq	r0, r2, #1073741824	; 0x40000000
    2f48:	40000000 	andmi	r0, r0, r0
    2f4c:	40000094 	mulmi	r0, r4, r0
    2f50:	01000094 	swpeq	r0, r4, [r0]	; <UNPREDICTABLE>
    2f54:	94405300 	strbls	r5, [r0], #-768	; 0xfffffd00
    2f58:	94400000 	strbls	r0, [r0], #-0
    2f5c:	00070000 	andeq	r0, r7, r0
    2f60:	ff0b0073 			; <UNDEFINED> instruction: 0xff0b0073
    2f64:	409f1aef 	addsmi	r1, pc, pc, ror #21
    2f68:	44000094 	strmi	r0, [r0], #-148	; 0xffffff6c
    2f6c:	07000094 			; <UNDEFINED> instruction: 0x07000094
    2f70:	0b007300 	bleq	1fb78 <__bss_end__+0x155f8>
    2f74:	9f1ae7ff 	svcls	0x001ae7ff
    2f78:	00009444 	andeq	r9, r0, r4, asr #8
    2f7c:	0000944c 	andeq	r9, r0, ip, asr #8
    2f80:	00530001 	subseq	r0, r3, r1
	...
    2f8c:	02020101 	andeq	r0, r2, #1073741824	; 0x40000000
    2f90:	30000000 	andcc	r0, r0, r0
    2f94:	30000094 	mulcc	r0, r4, r0
    2f98:	01000094 	swpeq	r0, r4, [r0]	; <UNPREDICTABLE>
    2f9c:	94305300 	ldrtls	r5, [r0], #-768	; 0xfffffd00
    2fa0:	94300000 	ldrtls	r0, [r0], #-0
    2fa4:	00070000 	andeq	r0, r7, r0
    2fa8:	000a0073 	andeq	r0, sl, r3, ror r0
    2fac:	309f2110 	addscc	r2, pc, r0, lsl r1	; <UNPREDICTABLE>
    2fb0:	34000094 	strcc	r0, [r0], #-148	; 0xffffff6c
    2fb4:	07000094 			; <UNDEFINED> instruction: 0x07000094
    2fb8:	0a007300 	beq	1fbc0 <__bss_end__+0x15640>
    2fbc:	9f211800 	svcls	0x00211800
    2fc0:	00009434 	andeq	r9, r0, r4, lsr r4
    2fc4:	0000943c 	andeq	r9, r0, ip, lsr r4
    2fc8:	00530001 	subseq	r0, r3, r1
	...
    2fd4:	00000101 	andeq	r0, r0, r1, lsl #2
    2fd8:	00000101 	andeq	r0, r0, r1, lsl #2
    2fdc:	00000101 	andeq	r0, r0, r1, lsl #2
    2fe0:	00000101 	andeq	r0, r0, r1, lsl #2
    2fe4:	00000101 	andeq	r0, r0, r1, lsl #2
    2fe8:	80010202 	andhi	r0, r1, r2, lsl #4
    2fec:	80000000 	andhi	r0, r0, r0
    2ff0:	01000000 	mrseq	r0, (UNDEF: 0)
    2ff4:	00805300 	addeq	r5, r0, r0, lsl #6
    2ff8:	008c0000 	addeq	r0, ip, r0
    2ffc:	00030000 	andeq	r0, r3, r0
    3000:	8c9f0473 	cfldrshi	mvf0, [pc], {115}	; 0x73
    3004:	94000000 	strls	r0, [r0], #-0
    3008:	01000000 	mrseq	r0, (UNDEF: 0)
    300c:	00945100 	addseq	r5, r4, r0, lsl #2
    3010:	00980000 	addseq	r0, r8, r0
    3014:	00030000 	andeq	r0, r3, r0
    3018:	989f0873 	ldmls	pc, {r0, r1, r4, r5, r6, fp}	; <UNPREDICTABLE>
    301c:	a4000000 	strge	r0, [r0], #-0
    3020:	01000000 	mrseq	r0, (UNDEF: 0)
    3024:	00a45100 	adceq	r5, r4, r0, lsl #2
    3028:	00a80000 	adceq	r0, r8, r0
    302c:	00030000 	andeq	r0, r3, r0
    3030:	a89f0c73 	ldmge	pc, {r0, r1, r4, r5, r6, sl, fp}	; <UNPREDICTABLE>
    3034:	b4000000 	strlt	r0, [r0], #-0
    3038:	01000000 	mrseq	r0, (UNDEF: 0)
    303c:	00b45100 	adcseq	r5, r4, r0, lsl #2
    3040:	00b80000 	adcseq	r0, r8, r0
    3044:	00030000 	andeq	r0, r3, r0
    3048:	b89f1073 	ldmlt	pc, {r0, r1, r4, r5, r6, ip}	; <UNPREDICTABLE>
    304c:	c4000000 	strgt	r0, [r0], #-0
    3050:	01000000 	mrseq	r0, (UNDEF: 0)
    3054:	00c45100 	sbceq	r5, r4, r0, lsl #2
    3058:	00c80000 	sbceq	r0, r8, r0
    305c:	00030000 	andeq	r0, r3, r0
    3060:	c89f1473 	ldmgt	pc, {r0, r1, r4, r5, r6, sl, ip}	; <UNPREDICTABLE>
    3064:	d0000000 	andle	r0, r0, r0
    3068:	01000000 	mrseq	r0, (UNDEF: 0)
    306c:	00d05100 	sbcseq	r5, r0, r0, lsl #2
    3070:	00d40000 	sbcseq	r0, r4, r0
    3074:	00030000 	andeq	r0, r3, r0
    3078:	009f0471 	addseq	r0, pc, r1, ror r4	; <UNPREDICTABLE>
    307c:	00000000 	andeq	r0, r0, r0
    3080:	02000000 	andeq	r0, r0, #0, 0
    3084:	0000d800 	andeq	sp, r0, r0, lsl #16
    3088:	0000e800 	andeq	lr, r0, r0, lsl #16
    308c:	31000200 	mrscc	r0, R8_usr
    3090:	0000009f 	muleq	r0, pc, r0	; <UNPREDICTABLE>
    3094:	00000000 	andeq	r0, r0, r0
    3098:	00000400 	andeq	r0, r0, r0, lsl #8
    309c:	0095a001 	addseq	sl, r5, r1
    30a0:	0095a800 	addseq	sl, r5, r0, lsl #16
    30a4:	30000200 	andcc	r0, r0, r0, lsl #4
    30a8:	0095a89f 	umullseq	sl, r5, pc, r8	; <UNPREDICTABLE>
    30ac:	0095a800 	addseq	sl, r5, r0, lsl #16
    30b0:	53000100 	movwpl	r0, #256	; 0x100
	...
    30bc:	00000003 	andeq	r0, r0, r3
    30c0:	00000000 	andeq	r0, r0, r0
    30c4:	000095b4 			; <UNDEFINED> instruction: 0x000095b4
    30c8:	000095b8 			; <UNDEFINED> instruction: 0x000095b8
    30cc:	9f300002 	svcls	0x00300002
    30d0:	000095b8 			; <UNDEFINED> instruction: 0x000095b8
    30d4:	000095bc 			; <UNDEFINED> instruction: 0x000095bc
    30d8:	bc530001 	mrrclt	0, 0, r0, r3, cr1
    30dc:	c0000095 	mulgt	r0, r5, r0
    30e0:	05000095 	streq	r0, [r0, #-149]	; 0xffffff6b
    30e4:	40007300 	andmi	r7, r0, r0, lsl #6
    30e8:	95c09f21 	strbls	r9, [r0, #3873]	; 0xf21
    30ec:	95c40000 	strbls	r0, [r4]
    30f0:	00010000 	andeq	r0, r1, r0
    30f4:	00000053 	andeq	r0, r0, r3, asr r0
    30f8:	00000000 	andeq	r0, r0, r0
    30fc:	00000200 	andeq	r0, r0, r0, lsl #4
    3100:	00957400 	addseq	r7, r5, r0, lsl #8
    3104:	00957800 	addseq	r7, r5, r0, lsl #16
    3108:	30000200 	andcc	r0, r0, r0, lsl #4
    310c:	0095789f 	umullseq	r7, r5, pc, r8	; <UNPREDICTABLE>
    3110:	00957c00 	addseq	r7, r5, r0, lsl #24
    3114:	50000100 	andpl	r0, r0, r0, lsl #2
	...
    3120:	00000002 	andeq	r0, r0, r2
    3124:	00000000 	andeq	r0, r0, r0
    3128:	0000958c 	andeq	r9, r0, ip, lsl #11
    312c:	00009590 	muleq	r0, r0, r5
    3130:	9f300002 	svcls	0x00300002
    3134:	00009590 	muleq	r0, r0, r5
    3138:	00009594 	muleq	r0, r4, r5
    313c:	94530001 	ldrbls	r0, [r3], #-1
    3140:	98000095 	stmdals	r0, {r0, r2, r4, r7}
    3144:	05000095 	streq	r0, [r0, #-149]	; 0xffffff6b
    3148:	40007300 	andmi	r7, r0, r0, lsl #6
    314c:	95989f21 	ldrls	r9, [r8, #3873]	; 0xf21
    3150:	95a00000 	strls	r0, [r0, #0]!
    3154:	00010000 	andeq	r0, r1, r0
    3158:	00000053 	andeq	r0, r0, r3, asr r0
	...
    3164:	0000c800 	andeq	ip, r0, r0, lsl #16
    3168:	0000d800 	andeq	sp, r0, r0, lsl #16
    316c:	50000100 	andpl	r0, r0, r0, lsl #2
    3170:	000000d8 	ldrdeq	r0, [r0], -r8
    3174:	0000011c 	andeq	r0, r0, ip, lsl r1
    3178:	01f30004 	mvnseq	r0, r4
    317c:	00009f50 	andeq	r9, r0, r0, asr pc
    3180:	00000000 	andeq	r0, r0, r0
    3184:	00020000 	andeq	r0, r2, r0
    3188:	00c80000 	sbceq	r0, r8, r0
    318c:	00d80000 	sbcseq	r0, r8, r0
    3190:	00070000 	andeq	r0, r7, r0
    3194:	e80a0070 	stmda	sl, {r4, r5, r6}
    3198:	d89f1e03 	ldmle	pc, {r0, r1, r9, sl, fp, ip}	; <UNPREDICTABLE>
    319c:	1c000000 	stcne	0, cr0, [r0], {-0}
    31a0:	08000001 	stmdaeq	r0, {r0}
    31a4:	5001f300 	andpl	pc, r1, r0, lsl #6
    31a8:	1e03e80a 	cdpne	8, 0, cr14, cr3, cr10, {0}
    31ac:	0000009f 	muleq	r0, pc, r0	; <UNPREDICTABLE>
    31b0:	00000000 	andeq	r0, r0, r0
    31b4:	dc000000 	stcle	0, cr0, [r0], {-0}
    31b8:	1c000000 	stcne	0, cr0, [r0], {-0}
    31bc:	01000001 	tsteq	r0, r1
    31c0:	00005400 	andeq	r5, r0, r0, lsl #8
    31c4:	00000000 	andeq	r0, r0, r0
    31c8:	00010000 	andeq	r0, r1, r0
    31cc:	000000f0 	strdeq	r0, [r0], -r0	; <UNPREDICTABLE>
    31d0:	0000011c 	andeq	r0, r0, ip, lsl r1
    31d4:	00560001 	subseq	r0, r6, r1
	...
    31e0:	ec000000 	stc	0, cr0, [r0], {-0}
    31e4:	ef000000 	svc	0x00000000
    31e8:	01000000 	mrseq	r0, (UNDEF: 0)
    31ec:	00ef5000 	rsceq	r5, pc, r0
    31f0:	011c0000 	tsteq	ip, r0
    31f4:	00010000 	andeq	r0, r1, r0
    31f8:	00000056 	andeq	r0, r0, r6, asr r0
    31fc:	00000000 	andeq	r0, r0, r0
    3200:	04000000 	streq	r0, [r0], #-0
    3204:	0b000001 	bleq	3210 <__code_start__-0x4df0>
    3208:	01000001 	tsteq	r0, r1
    320c:	00005000 	andeq	r5, r0, r0
	...
    3218:	00200000 	eoreq	r0, r0, r0
    321c:	00230000 	eoreq	r0, r3, r0
    3220:	00010000 	andeq	r0, r1, r0
    3224:	00002350 	andeq	r2, r0, r0, asr r3
    3228:	00003000 	andeq	r3, r0, r0
    322c:	54000100 	strpl	r0, [r0], #-256	; 0xffffff00
	...
    323c:	00000030 	andeq	r0, r0, r0, lsr r0
    3240:	0000003b 	andeq	r0, r0, fp, lsr r0
    3244:	3b500001 	blcc	1403250 <__bss_end__+0x13f8cd0>
    3248:	78000000 	stmdavc	r0, {}	; <UNPREDICTABLE>
    324c:	01000000 	mrseq	r0, (UNDEF: 0)
    3250:	00005600 	andeq	r5, r0, r0, lsl #12
    3254:	00000000 	andeq	r0, r0, r0
    3258:	00010000 	andeq	r0, r1, r0
    325c:	0000004c 	andeq	r0, r0, ip, asr #32
    3260:	00000078 	andeq	r0, r0, r8, ror r0
    3264:	00550001 	subseq	r0, r5, r1
	...
    3270:	48000000 	stmdami	r0, {}	; <UNPREDICTABLE>
    3274:	4b000000 	blmi	327c <__code_start__-0x4d84>
    3278:	01000000 	mrseq	r0, (UNDEF: 0)
    327c:	004b5000 	subeq	r5, fp, r0
    3280:	00780000 	rsbseq	r0, r8, r0
    3284:	00010000 	andeq	r0, r1, r0
    3288:	00000055 	andeq	r0, r0, r5, asr r0
    328c:	00000000 	andeq	r0, r0, r0
    3290:	60000000 	andvs	r0, r0, r0
    3294:	67000000 	strvs	r0, [r0, -r0]
    3298:	01000000 	mrseq	r0, (UNDEF: 0)
    329c:	00005000 	andeq	r5, r0, r0
	...
    32a8:	00780000 	rsbseq	r0, r8, r0
    32ac:	00840000 	addeq	r0, r4, r0
    32b0:	00010000 	andeq	r0, r1, r0
    32b4:	00008450 	andeq	r8, r0, r0, asr r4
    32b8:	0000c800 	andeq	ip, r0, r0, lsl #16
    32bc:	f3000400 	vshl.u8	d0, d0, d0
    32c0:	009f5001 	addseq	r5, pc, r1
	...
    32cc:	00008800 	andeq	r8, r0, r0, lsl #16
    32d0:	0000c800 	andeq	ip, r0, r0, lsl #16
    32d4:	54000100 	strpl	r0, [r0], #-256	; 0xffffff00
	...
    32e0:	009c0001 	addseq	r0, ip, r1
    32e4:	00c80000 	sbceq	r0, r8, r0
    32e8:	00010000 	andeq	r0, r1, r0
    32ec:	00000056 	andeq	r0, r0, r6, asr r0
	...
    32f8:	00009800 	andeq	r9, r0, r0, lsl #16
    32fc:	00009b00 	andeq	r9, r0, r0, lsl #22
    3300:	50000100 	andpl	r0, r0, r0, lsl #2
    3304:	0000009b 	muleq	r0, fp, r0
    3308:	000000c8 	andeq	r0, r0, r8, asr #1
    330c:	00560001 	subseq	r0, r6, r1
	...
    3318:	0000b000 	andeq	fp, r0, r0
    331c:	0000b700 	andeq	fp, r0, r0, lsl #14
    3320:	50000100 	andpl	r0, r0, r0, lsl #2
	...
    3330:	00000158 	andeq	r0, r0, r8, asr r1
    3334:	00000163 	andeq	r0, r0, r3, ror #2
    3338:	63500001 	cmpvs	r0, #1, 0
    333c:	88000001 	stmdahi	r0, {r0}
    3340:	01000001 	tsteq	r0, r1
    3344:	00005400 	andeq	r5, r0, r0, lsl #8
	...
    3350:	00000148 	andeq	r0, r0, r8, asr #2
    3354:	00000158 	andeq	r0, r0, r8, asr r1
    3358:	00540001 	subseq	r0, r4, r1
	...
    3368:	0f000000 	svceq	0x00000000
    336c:	01000000 	mrseq	r0, (UNDEF: 0)
    3370:	000f5000 	andeq	r5, pc, r0
    3374:	00200000 	eoreq	r0, r0, r0
    3378:	00010000 	andeq	r0, r1, r0
    337c:	00000054 	andeq	r0, r0, r4, asr r0
	...
    338c:	00000f00 	andeq	r0, r0, r0, lsl #30
    3390:	51000100 	mrspl	r0, (UNDEF: 16)
    3394:	0000000f 	andeq	r0, r0, pc
    3398:	00000020 	andeq	r0, r0, r0, lsr #32
    339c:	00550001 	subseq	r0, r5, r1
	...
    33a8:	20000000 	andcs	r0, r0, r0
    33ac:	2f000000 	svccs	0x00000000
    33b0:	01000000 	mrseq	r0, (UNDEF: 0)
    33b4:	002f5000 	eoreq	r5, pc, r0
    33b8:	00400000 	subeq	r0, r0, r0
    33bc:	00010000 	andeq	r0, r1, r0
    33c0:	00000054 	andeq	r0, r0, r4, asr r0
	...
    33cc:	00002000 	andeq	r2, r0, r0
    33d0:	00002f00 	andeq	r2, r0, r0, lsl #30
    33d4:	51000100 	mrspl	r0, (UNDEF: 16)
    33d8:	0000002f 	andeq	r0, r0, pc, lsr #32
    33dc:	00000040 	andeq	r0, r0, r0, asr #32
    33e0:	00550001 	subseq	r0, r5, r1
	...
    33f0:	00035000 	andeq	r5, r3, r0
    33f4:	00039800 	andeq	r9, r3, r0, lsl #16
    33f8:	50000100 	andpl	r0, r0, r0, lsl #2
    33fc:	00000398 	muleq	r0, r8, r3
    3400:	0000039b 	muleq	r0, fp, r3
    3404:	68910002 	ldmvs	r1, {r1}
    3408:	0000039b 	muleq	r0, fp, r3
    340c:	000003b0 			; <UNDEFINED> instruction: 0x000003b0
    3410:	01f30004 	mvnseq	r0, r4
    3414:	00009f50 	andeq	r9, r0, r0, asr pc
	...
    3430:	02200000 	eoreq	r0, r0, #0, 0
    3434:	027b0000 	rsbseq	r0, fp, #0, 0
    3438:	00010000 	andeq	r0, r1, r0
    343c:	00027b50 	andeq	r7, r2, r0, asr fp
    3440:	00028400 	andeq	r8, r2, r0, lsl #8
    3444:	f3000400 	vshl.u8	d0, d0, d0
    3448:	849f5001 	ldrhi	r5, [pc], #1	; 3450 <__code_start__-0x4bb0>
    344c:	9c000002 	stcls	0, cr0, [r0], {2}
    3450:	01000002 	tsteq	r0, r2
    3454:	029c5000 	addseq	r5, ip, #0, 0
    3458:	02a40000 	adceq	r0, r4, #0, 0
    345c:	00040000 	andeq	r0, r4, r0
    3460:	9f5001f3 	svcls	0x005001f3
    3464:	000002a4 	andeq	r0, r0, r4, lsr #5
    3468:	000002a7 	andeq	r0, r0, r7, lsr #5
    346c:	a7500001 	ldrbge	r0, [r0, -r1]
    3470:	c8000002 	stmdagt	r0, {r1}
    3474:	04000002 	streq	r0, [r0], #-2
    3478:	5001f300 	andpl	pc, r1, r0, lsl #6
    347c:	0002c89f 	muleq	r2, pc, r8	; <UNPREDICTABLE>
    3480:	0002e000 	andeq	lr, r2, r0
    3484:	50000100 	andpl	r0, r0, r0, lsl #2
    3488:	000002e0 	andeq	r0, r0, r0, ror #5
    348c:	000002e8 	andeq	r0, r0, r8, ror #5
    3490:	01f30004 	mvnseq	r0, r4
    3494:	02e89f50 	rsceq	r9, r8, #80, 30	; 0x140
    3498:	02eb0000 	rsceq	r0, fp, #0, 0
    349c:	00010000 	andeq	r0, r1, r0
    34a0:	0002eb50 	andeq	lr, r2, r0, asr fp
    34a4:	00033800 	andeq	r3, r3, r0, lsl #16
    34a8:	f3000400 	vshl.u8	d0, d0, d0
    34ac:	009f5001 	addseq	r5, pc, r1
	...
    34c8:	20000000 	andcs	r0, r0, r0
    34cc:	44000002 	strmi	r0, [r0], #-2
    34d0:	01000002 	tsteq	r0, r2
    34d4:	02445100 	subeq	r5, r4, #0
    34d8:	02680000 	rsbeq	r0, r8, #0, 0
    34dc:	00010000 	andeq	r0, r1, r0
    34e0:	00026851 	andeq	r6, r2, r1, asr r8
    34e4:	00027b00 	andeq	r7, r2, r0, lsl #22
    34e8:	71000300 	mrsvc	r0, LR_irq
    34ec:	027b9f01 	rsbseq	r9, fp, #1, 30
    34f0:	02840000 	addeq	r0, r4, #0, 0
    34f4:	00170000 	andseq	r0, r7, r0
    34f8:	5101f338 	tstpl	r1, r8, lsr r3	; <UNPREDICTABLE>
    34fc:	405101f3 	ldrshmi	r0, [r1], #-19	; 0xffffffed
    3500:	0c22244b 	cfstrseq	mvf2, [r2], #-300	; 0xfffffed4
    3504:	80000008 	andhi	r0, r0, r8
    3508:	0001282d 	andeq	r2, r1, sp, lsr #16
    350c:	849f1316 	ldrhi	r1, [pc], #790	; 3514 <__code_start__-0x4aec>
    3510:	98000002 	stmdals	r0, {r1}
    3514:	01000002 	tsteq	r0, r2
    3518:	02985100 	addseq	r5, r8, #0
    351c:	02a40000 	adceq	r0, r4, #0, 0
    3520:	00040000 	andeq	r0, r4, r0
    3524:	9f5101f3 	svcls	0x005101f3
    3528:	000002a4 	andeq	r0, r0, r4, lsr #5
    352c:	000002a7 	andeq	r0, r0, r7, lsr #5
    3530:	a7510001 	ldrbge	r0, [r1, -r1]
    3534:	c8000002 	stmdagt	r0, {r1}
    3538:	04000002 	streq	r0, [r0], #-2
    353c:	5101f300 	mrspl	pc, SP_irq	; <UNPREDICTABLE>
    3540:	0002c89f 	muleq	r2, pc, r8	; <UNPREDICTABLE>
    3544:	0002dc00 	andeq	sp, r2, r0, lsl #24
    3548:	51000100 	mrspl	r0, (UNDEF: 16)
    354c:	000002dc 	ldrdeq	r0, [r0], -ip
    3550:	00000338 	andeq	r0, r0, r8, lsr r3
    3554:	f3380017 	vqadd.u64	d0, d8, d7
    3558:	01f35101 	mvnseq	r5, r1, lsl #2
    355c:	244b4051 	strbcs	r4, [fp], #-81	; 0xffffffaf
    3560:	00080c22 	andeq	r0, r8, r2, lsr #24
    3564:	282d8000 	stmdacs	sp!, {pc}
    3568:	13160001 	tstne	r6, #1, 0
    356c:	0000009f 	muleq	r0, pc, r0	; <UNPREDICTABLE>
	...
    3580:	00024c00 	andeq	r4, r2, r0, lsl #24
    3584:	00025c00 	andeq	r5, r2, r0, lsl #24
    3588:	52000100 	andpl	r0, r0, #0
    358c:	0000025c 	andeq	r0, r0, ip, asr r2
    3590:	00000264 	andeq	r0, r0, r4, ror #4
    3594:	6c030005 	stcvs	0, cr0, [r3], {5}
    3598:	640000a1 	strvs	r0, [r0], #-161	; 0xffffff5f
    359c:	7b000002 	blvc	35ac <__code_start__-0x4a54>
    35a0:	01000002 	tsteq	r0, r2
    35a4:	02c85300 	sbceq	r5, r8, #0, 6
    35a8:	02d80000 	sbcseq	r0, r8, #0, 0
    35ac:	00010000 	andeq	r0, r1, r0
    35b0:	0002d852 	andeq	sp, r2, r2, asr r8
    35b4:	0002e300 	andeq	lr, r2, r0, lsl #6
    35b8:	03000500 	movweq	r0, #1280	; 0x500
    35bc:	0000a16c 	andeq	sl, r0, ip, ror #2
    35c0:	000002e8 	andeq	r0, r0, r8, ror #5
    35c4:	000002eb 	andeq	r0, r0, fp, ror #5
    35c8:	00530001 	subseq	r0, r3, r1
    35cc:	00000000 	andeq	r0, r0, r0
    35d0:	04000000 	streq	r0, [r0], #-0
    35d4:	00023000 	andeq	r3, r2, r0
    35d8:	00023400 	andeq	r3, r2, r0, lsl #8
    35dc:	51000100 	mrspl	r0, (UNDEF: 16)
	...
    35e8:	023c0002 	eorseq	r0, ip, #2, 0
    35ec:	02440000 	subeq	r0, r4, #0, 0
    35f0:	00020000 	andeq	r0, r2, r0
    35f4:	00009f38 	andeq	r9, r0, r8, lsr pc
    35f8:	00000000 	andeq	r0, r0, r0
    35fc:	00020000 	andeq	r0, r2, r0
    3600:	0000023c 	andeq	r0, r0, ip, lsr r2
    3604:	00000244 	andeq	r0, r0, r4, asr #4
    3608:	00510001 	subseq	r0, r1, r1
    360c:	00000000 	andeq	r0, r0, r0
    3610:	01000000 	mrseq	r0, (UNDEF: 0)
    3614:	00000000 	andeq	r0, r0, r0
    3618:	00024c00 	andeq	r4, r2, r0, lsl #24
    361c:	00026400 	andeq	r6, r2, r0, lsl #8
    3620:	51000100 	mrspl	r0, (UNDEF: 16)
    3624:	000002c8 	andeq	r0, r0, r8, asr #5
    3628:	000002dc 	ldrdeq	r0, [r0], -ip
    362c:	dc510001 	mrrcle	0, 0, r0, r1, cr1
    3630:	e8000002 	stmda	r0, {r1}
    3634:	17000002 	strne	r0, [r0, -r2]
    3638:	01f33800 	mvnseq	r3, r0, lsl #16
    363c:	5101f351 	tstpl	r1, r1, asr r3	; <UNPREDICTABLE>
    3640:	22244b40 	eorcs	r4, r4, #64, 22	; 0x10000
    3644:	0000080c 	andeq	r0, r0, ip, lsl #16
    3648:	01282d80 	smlawbeq	r8, r0, sp, r2
    364c:	9f131600 	svcls	0x00131600
	...
    3658:	00000001 	andeq	r0, r0, r1
    365c:	00000000 	andeq	r0, r0, r0
    3660:	0000024c 	andeq	r0, r0, ip, asr #4
    3664:	0000025c 	andeq	r0, r0, ip, asr r2
    3668:	5c520001 	mrrcpl	0, 0, r0, r2, cr1
    366c:	64000002 	strvs	r0, [r0], #-2
    3670:	05000002 	streq	r0, [r0, #-2]
    3674:	a16c0300 	cmnge	ip, r0, lsl #6
    3678:	02c80000 	sbceq	r0, r8, #0, 0
    367c:	02d80000 	sbcseq	r0, r8, #0, 0
    3680:	00010000 	andeq	r0, r1, r0
    3684:	0002d852 	andeq	sp, r2, r2, asr r8
    3688:	0002e300 	andeq	lr, r2, r0, lsl #6
    368c:	03000500 	movweq	r0, #1280	; 0x500
    3690:	0000a16c 	andeq	sl, r0, ip, ror #2
	...
    369c:	024c0004 	subeq	r0, ip, #4, 0
    36a0:	02500000 	subseq	r0, r0, #0, 0
    36a4:	00010000 	andeq	r0, r1, r0
    36a8:	00000051 	andeq	r0, r0, r1, asr r0
    36ac:	00000000 	andeq	r0, r0, r0
    36b0:	64000300 	strvs	r0, [r0], #-768	; 0xfffffd00
    36b4:	68000002 	stmdavs	r0, {r1}
    36b8:	01000002 	tsteq	r0, r2
    36bc:	00005100 	andeq	r5, r0, r0, lsl #2
    36c0:	00000000 	andeq	r0, r0, r0
    36c4:	00030000 	andeq	r0, r3, r0
    36c8:	00000264 	andeq	r0, r0, r4, ror #4
    36cc:	00000268 	andeq	r0, r0, r8, ror #4
    36d0:	00530001 	subseq	r0, r3, r1
	...
    36e0:	bc000000 	stclt	0, cr0, [r0], {-0}
    36e4:	d3000001 	movwle	r0, #1
    36e8:	01000001 	tsteq	r0, r1
    36ec:	01d35000 	bicseq	r5, r3, r0
    36f0:	01f00000 	mvnseq	r0, r0
    36f4:	00010000 	andeq	r0, r1, r0
    36f8:	0001f054 	andeq	pc, r1, r4, asr r0	; <UNPREDICTABLE>
    36fc:	00020800 	andeq	r0, r2, r0, lsl #16
    3700:	50000100 	andpl	r0, r0, r0, lsl #2
    3704:	00000208 	andeq	r0, r0, r8, lsl #4
    3708:	00000220 	andeq	r0, r0, r0, lsr #4
    370c:	00540001 	subseq	r0, r4, r1
	...
    3718:	d8000000 	stmdale	r0, {}	; <UNPREDICTABLE>
    371c:	e3000001 	movw	r0, #1
    3720:	01000001 	tsteq	r0, r1
    3724:	01e35000 	mvneq	r5, r0
    3728:	01f00000 	mvnseq	r0, r0
    372c:	00010000 	andeq	r0, r1, r0
    3730:	00000055 	andeq	r0, r0, r5, asr r0
	...
    3748:	00012400 	andeq	r2, r1, r0, lsl #8
    374c:	00013800 	andeq	r3, r1, r0, lsl #16
    3750:	50000100 	andpl	r0, r0, r0, lsl #2
    3754:	00000138 	andeq	r0, r0, r8, lsr r1
    3758:	0000013c 	andeq	r0, r0, ip, lsr r1
    375c:	79700003 	ldmdbvc	r0!, {r0, r1}^
    3760:	00013c9f 	muleq	r1, pc, ip	; <UNPREDICTABLE>
    3764:	00016000 	andeq	r6, r1, r0
    3768:	53000100 	movwpl	r0, #256	; 0x100
    376c:	00000160 	andeq	r0, r0, r0, ror #2
    3770:	00000178 	andeq	r0, r0, r8, ror r1
    3774:	78500001 	ldmdavc	r0, {r0}^
    3778:	80000001 	andhi	r0, r0, r1
    377c:	04000001 	streq	r0, [r0], #-1
    3780:	5001f300 	andpl	pc, r1, r0, lsl #6
    3784:	0001809f 	muleq	r1, pc, r0	; <UNPREDICTABLE>
    3788:	00019000 	andeq	r9, r1, r0
    378c:	53000100 	movwpl	r0, #256	; 0x100
    3790:	00000190 	muleq	r0, r0, r1
    3794:	0000019f 	muleq	r0, pc, r1	; <UNPREDICTABLE>
    3798:	68910002 	ldmvs	r1, {r1}
    379c:	0000019f 	muleq	r0, pc, r1	; <UNPREDICTABLE>
    37a0:	000001bc 			; <UNDEFINED> instruction: 0x000001bc
    37a4:	01f30009 	mvnseq	r0, r9
    37a8:	09072350 	stmdbeq	r7, {r4, r6, r8, r9, sp}
    37ac:	009f1af8 			; <UNDEFINED> instruction: 0x009f1af8
	...
    37b8:	44000000 	strmi	r0, [r0], #-0
    37bc:	60000001 	andvs	r0, r0, r1
    37c0:	01000001 	tsteq	r0, r1
    37c4:	01805000 	orreq	r5, r0, r0
    37c8:	019c0000 	orrseq	r0, ip, r0
    37cc:	00010000 	andeq	r0, r1, r0
    37d0:	00000050 	andeq	r0, r0, r0, asr r0
    37d4:	00000000 	andeq	r0, r0, r0
    37d8:	34000300 	strcc	r0, [r0], #-768	; 0xfffffd00
    37dc:	3c000001 	stccc	0, cr0, [r0], {1}
    37e0:	02000001 	andeq	r0, r0, #1, 0
    37e4:	009f3800 	addseq	r3, pc, r0, lsl #16
    37e8:	00000000 	andeq	r0, r0, r0
    37ec:	03000000 	movweq	r0, #0
    37f0:	34000000 	strcc	r0, [r0], #-0
    37f4:	38000001 	stmdacc	r0, {r0}
    37f8:	01000001 	tsteq	r0, r1
    37fc:	01385000 	teqeq	r8, r0
    3800:	013c0000 	teqeq	ip, r0
    3804:	00030000 	andeq	r0, r3, r0
    3808:	009f7970 	addseq	r7, pc, r0, ror r9	; <UNPREDICTABLE>
	...
    3820:	00003000 	andeq	r3, r0, r0
    3824:	00006000 	andeq	r6, r0, r0
    3828:	50000100 	andpl	r0, r0, r0, lsl #2
    382c:	00000060 	andeq	r0, r0, r0, rrx
    3830:	0000006c 	andeq	r0, r0, ip, rrx
    3834:	6c030005 	stcvs	0, cr0, [r3], {5}
    3838:	6c0000a1 	stcvs	0, cr0, [r0], {161}	; 0xa1
    383c:	84000000 	strhi	r0, [r0], #-0
    3840:	01000000 	mrseq	r0, (UNDEF: 0)
    3844:	00845000 	addeq	r5, r4, r0
    3848:	008c0000 	addeq	r0, ip, r0
    384c:	00040000 	andeq	r0, r4, r0
    3850:	9f5001f3 	svcls	0x005001f3
    3854:	0000008c 	andeq	r0, r0, ip, lsl #1
    3858:	000000ac 	andeq	r0, r0, ip, lsr #1
    385c:	ac500001 	mrrcge	0, 0, r0, r0, cr1	; <UNPREDICTABLE>
    3860:	af000000 	svcge	0x00000000
    3864:	02000000 	andeq	r0, r0, #0, 0
    3868:	af689100 	svcge	0x00689100
    386c:	cc000000 	stcgt	0, cr0, [r0], {-0}
    3870:	04000000 	streq	r0, [r0], #-0
    3874:	5001f300 	andpl	pc, r1, r0, lsl #6
    3878:	0000009f 	muleq	r0, pc, r0	; <UNPREDICTABLE>
	...
    3888:	00003000 	andeq	r3, r0, r0
    388c:	00008000 	andeq	r8, r0, r0
    3890:	51000100 	mrspl	r0, (UNDEF: 16)
    3894:	00000080 	andeq	r0, r0, r0, lsl #1
    3898:	0000008c 	andeq	r0, r0, ip, lsl #1
    389c:	01f30004 	mvnseq	r0, r4
    38a0:	008c9f51 	addeq	r9, ip, r1, asr pc
    38a4:	00a80000 	adceq	r0, r8, r0
    38a8:	00010000 	andeq	r0, r1, r0
    38ac:	0000a851 	andeq	sl, r0, r1, asr r8
    38b0:	0000cc00 	andeq	ip, r0, r0, lsl #24
    38b4:	f3000400 	vshl.u8	d0, d0, d0
    38b8:	009f5101 	addseq	r5, pc, r1, lsl #2
    38bc:	00000000 	andeq	r0, r0, r0
    38c0:	01000000 	mrseq	r0, (UNDEF: 0)
	...
    38d0:	00003800 	andeq	r3, r0, r0, lsl #16
    38d4:	00006000 	andeq	r6, r0, r0
    38d8:	50000100 	andpl	r0, r0, r0, lsl #2
    38dc:	00000060 	andeq	r0, r0, r0, rrx
    38e0:	0000006c 	andeq	r0, r0, ip, rrx
    38e4:	6c030005 	stcvs	0, cr0, [r3], {5}
    38e8:	6c0000a1 	stcvs	0, cr0, [r0], {161}	; 0xa1
    38ec:	84000000 	strhi	r0, [r0], #-0
    38f0:	01000000 	mrseq	r0, (UNDEF: 0)
    38f4:	00845000 	addeq	r5, r4, r0
    38f8:	008c0000 	addeq	r0, ip, r0
    38fc:	00040000 	andeq	r0, r4, r0
    3900:	9f5001f3 	svcls	0x005001f3
    3904:	0000008c 	andeq	r0, r0, ip, lsl #1
    3908:	000000ac 	andeq	r0, r0, ip, lsr #1
    390c:	ac500001 	mrrcge	0, 0, r0, r0, cr1	; <UNPREDICTABLE>
    3910:	af000000 	svcge	0x00000000
    3914:	02000000 	andeq	r0, r0, #0, 0
    3918:	af689100 	svcge	0x00689100
    391c:	cc000000 	stcgt	0, cr0, [r0], {-0}
    3920:	04000000 	streq	r0, [r0], #-0
    3924:	5001f300 	andpl	pc, r1, r0, lsl #6
    3928:	0000009f 	muleq	r0, pc, r0	; <UNPREDICTABLE>
	...
    3938:	00000b00 	andeq	r0, r0, r0, lsl #22
    393c:	50000100 	andpl	r0, r0, r0, lsl #2
    3940:	0000000b 	andeq	r0, r0, fp
    3944:	00000014 	andeq	r0, r0, r4, lsl r0
    3948:	00540001 	subseq	r0, r4, r1
	...
    3958:	18000000 	stmdane	r0, {}	; <UNPREDICTABLE>
    395c:	01000000 	mrseq	r0, (UNDEF: 0)
    3960:	00185100 	andseq	r5, r8, r0, lsl #2
    3964:	002c0000 	eoreq	r0, ip, r0
    3968:	00040000 	andeq	r0, r4, r0
    396c:	9f5101f3 	svcls	0x005101f3
	...
    3978:	00000002 	andeq	r0, r0, r2
    397c:	00000000 	andeq	r0, r0, r0
    3980:	00010100 	andeq	r0, r1, r0, lsl #2
    3984:	00000000 	andeq	r0, r0, r0
    3988:	00040000 	andeq	r0, r4, r0
    398c:	00010000 	andeq	r0, r1, r0
    3990:	00000450 	andeq	r0, r0, r0, asr r4
    3994:	00000800 	andeq	r0, r0, r0, lsl #16
    3998:	52000100 	andpl	r0, r0, #0
    399c:	00000008 	andeq	r0, r0, r8
    39a0:	0000000c 	andeq	r0, r0, ip
    39a4:	01720003 	cmneq	r2, r3
    39a8:	00000c9f 	muleq	r0, pc, ip	; <UNPREDICTABLE>
    39ac:	00001800 	andeq	r1, r0, r0, lsl #16
    39b0:	52000100 	andpl	r0, r0, #0
    39b4:	00000018 	andeq	r0, r0, r8, lsl r0
    39b8:	0000001c 	andeq	r0, r0, ip, lsl r0
    39bc:	1c530001 	mrrcne	0, 0, r0, r3, cr1
    39c0:	24000000 	strcs	r0, [r0], #-0
    39c4:	03000000 	movweq	r0, #0
    39c8:	9f017300 	svcls	0x00017300
    39cc:	00000024 	andeq	r0, r0, r4, lsr #32
    39d0:	0000002c 	andeq	r0, r0, ip, lsr #32
    39d4:	00530001 	subseq	r0, r3, r1
    39d8:	00000000 	andeq	r0, r0, r0
    39dc:	03000000 	movweq	r0, #0
    39e0:	00000202 	andeq	r0, r0, r2, lsl #4
    39e4:	00000000 	andeq	r0, r0, r0
    39e8:	00001800 	andeq	r1, r0, r0, lsl #16
    39ec:	51000100 	mrspl	r0, (UNDEF: 16)
    39f0:	00000018 	andeq	r0, r0, r8, lsl r0
    39f4:	0000001c 	andeq	r0, r0, ip, lsl r0
    39f8:	01710003 	cmneq	r1, r3
    39fc:	00001c9f 	muleq	r0, pc, ip	; <UNPREDICTABLE>
    3a00:	00002c00 	andeq	r2, r0, r0, lsl #24
    3a04:	51000100 	mrspl	r0, (UNDEF: 16)
	...
    3a14:	00080000 	andeq	r0, r8, r0
    3a18:	000c0000 	andeq	r0, ip, r0
    3a1c:	00020000 	andeq	r0, r2, r0
    3a20:	000c0072 	andeq	r0, ip, r2, ror r0
    3a24:	00180000 	andseq	r0, r8, r0
    3a28:	00020000 	andeq	r0, r2, r0
    3a2c:	001c0073 	andseq	r0, ip, r3, ror r0
    3a30:	002c0000 	eoreq	r0, ip, r0
    3a34:	00010000 	andeq	r0, r1, r0
    3a38:	00000052 	andeq	r0, r0, r2, asr r0
	...
    3a50:	00001400 	andeq	r1, r0, r0, lsl #8
    3a54:	50000100 	andpl	r0, r0, r0, lsl #2
    3a58:	00000014 	andeq	r0, r0, r4, lsl r0
    3a5c:	00000018 	andeq	r0, r0, r8, lsl r0
    3a60:	01700003 	cmneq	r0, r3
    3a64:	0000189f 	muleq	r0, pc, r8	; <UNPREDICTABLE>
    3a68:	00002000 	andeq	r2, r0, r0
    3a6c:	50000100 	andpl	r0, r0, r0, lsl #2
    3a70:	00000024 	andeq	r0, r0, r4, lsr #32
    3a74:	00000028 	andeq	r0, r0, r8, lsr #32
    3a78:	28500001 	ldmdacs	r0, {r0}^
    3a7c:	30000000 	andcc	r0, r0, r0
    3a80:	03000000 	movweq	r0, #0
    3a84:	9f017000 	svcls	0x00017000
    3a88:	00000038 	andeq	r0, r0, r8, lsr r0
    3a8c:	00000040 	andeq	r0, r0, r0, asr #32
    3a90:	00500001 	subseq	r0, r0, r1
	...
    3aa4:	00002400 	andeq	r2, r0, r0, lsl #8
    3aa8:	51000100 	mrspl	r0, (UNDEF: 16)
    3aac:	00000024 	andeq	r0, r0, r4, lsr #32
    3ab0:	00000028 	andeq	r0, r0, r8, lsr #32
    3ab4:	285c0001 	ldmdacs	ip, {r0}^
    3ab8:	44000000 	strmi	r0, [r0], #-0
    3abc:	01000000 	mrseq	r0, (UNDEF: 0)
    3ac0:	00005100 	andeq	r5, r0, r0, lsl #2
    3ac4:	00000000 	andeq	r0, r0, r0
    3ac8:	02000000 	andeq	r0, r0, #0, 0
    3acc:	00000002 	andeq	r0, r0, r2
    3ad0:	00000000 	andeq	r0, r0, r0
    3ad4:	00000004 	andeq	r0, r0, r4
    3ad8:	04510001 	ldrbeq	r0, [r1], #-1
    3adc:	08000000 	stmdaeq	r0, {}	; <UNPREDICTABLE>
    3ae0:	03000000 	movweq	r0, #0
    3ae4:	9f017100 	svcls	0x00017100
    3ae8:	00000008 	andeq	r0, r0, r8
    3aec:	00000018 	andeq	r0, r0, r8, lsl r0
    3af0:	00510001 	subseq	r0, r1, r1
    3af4:	00000000 	andeq	r0, r0, r0
    3af8:	02000000 	andeq	r0, r0, #0, 0
    3afc:	00000000 	andeq	r0, r0, r0
    3b00:	00000400 	andeq	r0, r0, r0, lsl #8
    3b04:	50000100 	andpl	r0, r0, r0, lsl #2
	...
    3b18:	00000008 	andeq	r0, r0, r8
    3b1c:	08500001 	ldmdaeq	r0, {r0}^
    3b20:	30000000 	andcc	r0, r0, r0
    3b24:	04000000 	streq	r0, [r0], #-0
    3b28:	5001f300 	andpl	pc, r1, r0, lsl #6
    3b2c:	0000009f 	muleq	r0, pc, r0	; <UNPREDICTABLE>
	...
    3b3c:	00000800 	andeq	r0, r0, r0, lsl #16
    3b40:	51000100 	mrspl	r0, (UNDEF: 16)
    3b44:	00000008 	andeq	r0, r0, r8
    3b48:	00000030 	andeq	r0, r0, r0, lsr r0
    3b4c:	01f30004 	mvnseq	r0, r4
    3b50:	00009f51 	andeq	r9, r0, r1, asr pc
	...
    3b60:	00020201 	andeq	r0, r2, r1, lsl #4
    3b64:	00000000 	andeq	r0, r0, r0
    3b68:	00000004 	andeq	r0, r0, r4
    3b6c:	04520001 	ldrbeq	r0, [r2], #-1
    3b70:	08000000 	stmdaeq	r0, {}	; <UNPREDICTABLE>
    3b74:	04000000 	streq	r0, [r0], #-0
    3b78:	5201f300 	andpl	pc, r1, #0, 6
    3b7c:	0000089f 	muleq	r0, pc, r8	; <UNPREDICTABLE>
    3b80:	00001800 	andeq	r1, r0, r0, lsl #16
    3b84:	f3000600 	vmax.u8	d0, d0, d0
    3b88:	1c315201 	lfmne	f5, 4, [r1], #-4
    3b8c:	0000189f 	muleq	r0, pc, r8	; <UNPREDICTABLE>
    3b90:	00001800 	andeq	r1, r0, r0, lsl #16
    3b94:	f3000400 	vshl.u8	d0, d0, d0
    3b98:	189f5201 	ldmne	pc, {r0, r9, ip, lr}	; <UNPREDICTABLE>
    3b9c:	30000000 	andcc	r0, r0, r0
    3ba0:	06000000 	streq	r0, [r0], -r0
    3ba4:	5201f300 	andpl	pc, r1, #0, 6
    3ba8:	009f1c31 	addseq	r1, pc, r1, lsr ip	; <UNPREDICTABLE>
    3bac:	00000000 	andeq	r0, r0, r0
    3bb0:	02000000 	andeq	r0, r0, #0, 0
    3bb4:	01000000 	mrseq	r0, (UNDEF: 0)
    3bb8:	00000000 	andeq	r0, r0, r0
    3bbc:	0c000000 	stceq	0, cr0, [r0], {-0}
    3bc0:	01000000 	mrseq	r0, (UNDEF: 0)
    3bc4:	000c5000 	andeq	r5, ip, r0
    3bc8:	00180000 	andseq	r0, r8, r0
    3bcc:	00030000 	andeq	r0, r3, r0
    3bd0:	189f7f70 	ldmne	pc, {r4, r5, r6, r8, r9, sl, fp, ip, sp, lr}	; <UNPREDICTABLE>
    3bd4:	24000000 	strcs	r0, [r0], #-0
    3bd8:	01000000 	mrseq	r0, (UNDEF: 0)
    3bdc:	00285000 	eoreq	r5, r8, r0
    3be0:	002c0000 	eoreq	r0, ip, r0
    3be4:	00030000 	andeq	r0, r3, r0
    3be8:	009f7f70 	addseq	r7, pc, r0, ror pc	; <UNPREDICTABLE>
    3bec:	00000000 	andeq	r0, r0, r0
    3bf0:	02000000 	andeq	r0, r0, #0, 0
	...
    3bfc:	00000c00 	andeq	r0, r0, r0, lsl #24
    3c00:	51000100 	mrspl	r0, (UNDEF: 16)
    3c04:	0000000c 	andeq	r0, r0, ip
    3c08:	00000010 	andeq	r0, r0, r0, lsl r0
    3c0c:	01710003 	cmneq	r1, r3
    3c10:	0000109f 	muleq	r0, pc, r0	; <UNPREDICTABLE>
    3c14:	00003000 	andeq	r3, r0, r0
    3c18:	51000100 	mrspl	r0, (UNDEF: 16)
	...

Disassembly of section .debug_aranges:

00000000 <.debug_aranges>:
   0:	0000001c 	andeq	r0, r0, ip, lsl r0
   4:	00000002 	andeq	r0, r0, r2
   8:	00040000 	andeq	r0, r4, r0
   c:	00000000 	andeq	r0, r0, r0
  10:	00008040 	andeq	r8, r0, r0, asr #32
  14:	00000150 	andeq	r0, r0, r0, asr r1
	...
  20:	0000001c 	andeq	r0, r0, ip, lsl r0
  24:	043d0002 	ldrteq	r0, [sp], #-2
  28:	00040000 	andeq	r0, r4, r0
  2c:	00000000 	andeq	r0, r0, r0
  30:	00008190 	muleq	r0, r0, r1
  34:	00000640 	andeq	r0, r0, r0, asr #12
	...
  40:	0000001c 	andeq	r0, r0, ip, lsl r0
  44:	2eb60002 	cdpcs	0, 11, cr0, cr6, cr2, {0}
  48:	00040000 	andeq	r0, r4, r0
  4c:	00000000 	andeq	r0, r0, r0
  50:	000087d0 	ldrdeq	r8, [r0], -r0
  54:	000001a0 	andeq	r0, r0, r0, lsr #3
	...
  60:	0000001c 	andeq	r0, r0, ip, lsl r0
  64:	34d30002 	ldrbcc	r0, [r3], #2
  68:	00040000 	andeq	r0, r4, r0
  6c:	00000000 	andeq	r0, r0, r0
  70:	00008970 	andeq	r8, r0, r0, ror r9
  74:	00000078 	andeq	r0, r0, r8, ror r0
	...
  80:	0000001c 	andeq	r0, r0, ip, lsl r0
  84:	36170002 	ldrcc	r0, [r7], -r2
  88:	00040000 	andeq	r0, r4, r0
  8c:	00000000 	andeq	r0, r0, r0
  90:	000089e8 	andeq	r8, r0, r8, ror #19
  94:	00000058 	andeq	r0, r0, r8, asr r0
	...
  a0:	0000001c 	andeq	r0, r0, ip, lsl r0
  a4:	37b80002 	ldrcc	r0, [r8, r2]!
  a8:	00040000 	andeq	r0, r4, r0
  ac:	00000000 	andeq	r0, r0, r0
  b0:	00008a40 	andeq	r8, r0, r0, asr #20
  b4:	00000038 	andeq	r0, r0, r8, lsr r0
	...
  c0:	0000001c 	andeq	r0, r0, ip, lsl r0
  c4:	38af0002 	stmiacc	pc!, {r1}	; <UNPREDICTABLE>
  c8:	00040000 	andeq	r0, r4, r0
  cc:	00000000 	andeq	r0, r0, r0
  d0:	00008a78 	andeq	r8, r0, r8, ror sl
  d4:	000009b4 			; <UNDEFINED> instruction: 0x000009b4
	...
  e0:	0000001c 	andeq	r0, r0, ip, lsl r0
  e4:	45320002 	ldrmi	r0, [r2, #-2]!
  e8:	00040000 	andeq	r0, r4, r0
  ec:	00000000 	andeq	r0, r0, r0
  f0:	0000942c 	andeq	r9, r0, ip, lsr #8
  f4:	00000020 	andeq	r0, r0, r0, lsr #32
	...
 100:	0000001c 	andeq	r0, r0, ip, lsl r0
 104:	46400002 	strbmi	r0, [r0], -r2
 108:	00040000 	andeq	r0, r4, r0
 10c:	00000000 	andeq	r0, r0, r0
 110:	0000944c 	andeq	r9, r0, ip, asr #8
 114:	0000002c 	andeq	r0, r0, ip, lsr #32
	...
 120:	0000001c 	andeq	r0, r0, ip, lsl r0
 124:	47730002 	ldrbmi	r0, [r3, -r2]!
 128:	00040000 	andeq	r0, r4, r0
 12c:	00000000 	andeq	r0, r0, r0
 130:	00009478 	andeq	r9, r0, r8, ror r4
 134:	000000f8 	strdeq	r0, [r0], -r8
	...
 140:	0000001c 	andeq	r0, r0, ip, lsl r0
 144:	49070002 	stmdbmi	r7, {r1}
 148:	00040000 	andeq	r0, r4, r0
 14c:	00000000 	andeq	r0, r0, r0
 150:	00009570 	andeq	r9, r0, r0, ror r5
 154:	00000004 	andeq	r0, r0, r4
	...
 160:	0000001c 	andeq	r0, r0, ip, lsl r0
 164:	49d90002 	ldmibmi	r9, {r1}^
 168:	00040000 	andeq	r0, r4, r0
 16c:	00000000 	andeq	r0, r0, r0
 170:	00009574 	andeq	r9, r0, r4, ror r5
 174:	0000008c 	andeq	r0, r0, ip, lsl #1
	...
 180:	0000001c 	andeq	r0, r0, ip, lsl r0
 184:	4c5a0002 	mrrcmi	0, 0, r0, sl, cr2
 188:	00040000 	andeq	r0, r4, r0
 18c:	00000000 	andeq	r0, r0, r0
 190:	00009600 	andeq	r9, r0, r0, lsl #12
 194:	0000011c 	andeq	r0, r0, ip, lsl r1
	...
 1a0:	0000001c 	andeq	r0, r0, ip, lsl r0
 1a4:	519d0002 	orrspl	r0, sp, r2
 1a8:	00040000 	andeq	r0, r4, r0
 1ac:	00000000 	andeq	r0, r0, r0
 1b0:	0000971c 	andeq	r9, r0, ip, lsl r7
 1b4:	000001f0 	strdeq	r0, [r0], -r0	; <UNPREDICTABLE>
	...
 1c0:	0000001c 	andeq	r0, r0, ip, lsl r0
 1c4:	576e0002 	strbpl	r0, [lr, -r2]!
 1c8:	00040000 	andeq	r0, r4, r0
 1cc:	00000000 	andeq	r0, r0, r0
 1d0:	0000990c 	andeq	r9, r0, ip, lsl #18
 1d4:	000003b0 			; <UNDEFINED> instruction: 0x000003b0
	...
 1e0:	0000001c 	andeq	r0, r0, ip, lsl r0
 1e4:	605b0002 	subsvs	r0, fp, r2
 1e8:	00040000 	andeq	r0, r4, r0
 1ec:	00000000 	andeq	r0, r0, r0
 1f0:	00009cbc 			; <UNDEFINED> instruction: 0x00009cbc
 1f4:	0000003c 	andeq	r0, r0, ip, lsr r0
	...
 200:	0000001c 	andeq	r0, r0, ip, lsl r0
 204:	61a80002 			; <UNDEFINED> instruction: 0x61a80002
 208:	00040000 	andeq	r0, r4, r0
 20c:	00000000 	andeq	r0, r0, r0
 210:	00009cf8 	strdeq	r9, [r0], -r8
 214:	0000002c 	andeq	r0, r0, ip, lsr #32
	...
 220:	0000001c 	andeq	r0, r0, ip, lsl r0
 224:	62e30002 	rscvs	r0, r3, #2, 0
 228:	00040000 	andeq	r0, r4, r0
 22c:	00000000 	andeq	r0, r0, r0
 230:	00009d24 	andeq	r9, r0, r4, lsr #26
 234:	00000044 	andeq	r0, r0, r4, asr #32
	...
 240:	0000001c 	andeq	r0, r0, ip, lsl r0
 244:	63de0002 	bicsvs	r0, lr, #2, 0
 248:	00040000 	andeq	r0, r4, r0
 24c:	00000000 	andeq	r0, r0, r0
 250:	00009d68 	andeq	r9, r0, r8, ror #26
 254:	00000018 	andeq	r0, r0, r8, lsl r0
	...
 260:	0000001c 	andeq	r0, r0, ip, lsl r0
 264:	64f10002 	ldrbtvs	r0, [r1], #2
 268:	00040000 	andeq	r0, r4, r0
 26c:	00000000 	andeq	r0, r0, r0
 270:	00009d80 	andeq	r9, r0, r0, lsl #27
 274:	00000030 	andeq	r0, r0, r0, lsr r0
	...
 280:	0000001c 	andeq	r0, r0, ip, lsl r0
 284:	66430002 	strbvs	r0, [r3], -r2
 288:	00040000 	andeq	r0, r4, r0
 28c:	00000000 	andeq	r0, r0, r0
 290:	00009db0 			; <UNDEFINED> instruction: 0x00009db0
 294:	00000004 	andeq	r0, r0, r4
	...

Disassembly of section .debug_ranges:

00000000 <.debug_ranges>:
       0:	00000090 	muleq	r0, r0, r0
       4:	00000094 	muleq	r0, r4, r0
       8:	00000098 	muleq	r0, r8, r0
       c:	0000009c 	muleq	r0, ip, r0
      10:	000000a0 	andeq	r0, r0, r0, lsr #1
      14:	00000138 	andeq	r0, r0, r8, lsr r1
	...
      20:	00000098 	muleq	r0, r8, r0
      24:	0000009c 	muleq	r0, ip, r0
      28:	000000a0 	andeq	r0, r0, r0, lsr #1
      2c:	000000a4 	andeq	r0, r0, r4, lsr #1
      30:	000000b4 	strheq	r0, [r0], -r4
      34:	0000011c 	andeq	r0, r0, ip, lsl r1
	...
      40:	00000098 	muleq	r0, r8, r0
      44:	0000009c 	muleq	r0, ip, r0
      48:	000000a0 	andeq	r0, r0, r0, lsr #1
      4c:	000000a4 	andeq	r0, r0, r4, lsr #1
      50:	000000b8 	strheq	r0, [r0], -r8
      54:	00000108 	andeq	r0, r0, r8, lsl #2
	...
      78:	00000004 	andeq	r0, r0, r4
      7c:	0000000c 	andeq	r0, r0, ip
      80:	00000010 	andeq	r0, r0, r0, lsl r0
      84:	00000030 	andeq	r0, r0, r0, lsr r0
	...
      98:	00000004 	andeq	r0, r0, r4
      9c:	00000008 	andeq	r0, r0, r8
	...
      a8:	00000008 	andeq	r0, r0, r8
      ac:	0000000c 	andeq	r0, r0, ip
      b0:	00000010 	andeq	r0, r0, r0, lsl r0
      b4:	00000018 	andeq	r0, r0, r8, lsl r0
      b8:	0000001c 	andeq	r0, r0, ip, lsl r0
      bc:	00000020 	andeq	r0, r0, r0, lsr #32
	...
      c8:	00000018 	andeq	r0, r0, r8, lsl r0
      cc:	0000001c 	andeq	r0, r0, ip, lsl r0
      d0:	00000020 	andeq	r0, r0, r0, lsr #32
      d4:	00000030 	andeq	r0, r0, r0, lsr r0
	...
      e0:	00000030 	andeq	r0, r0, r0, lsr r0
      e4:	00000058 	andeq	r0, r0, r8, asr r0
      e8:	00000058 	andeq	r0, r0, r8, asr r0
      ec:	00000058 	andeq	r0, r0, r8, asr r0
      f0:	00000058 	andeq	r0, r0, r8, asr r0
      f4:	00000068 	andeq	r0, r0, r8, rrx
      f8:	00000068 	andeq	r0, r0, r8, rrx
      fc:	00000080 	andeq	r0, r0, r0, lsl #1
     100:	00000080 	andeq	r0, r0, r0, lsl #1
     104:	000000b4 	strheq	r0, [r0], -r4
     108:	000000b4 	strheq	r0, [r0], -r4
     10c:	000000cc 	andeq	r0, r0, ip, asr #1
     110:	000000cc 	andeq	r0, r0, ip, asr #1
     114:	00000100 	andeq	r0, r0, r0, lsl #2
     118:	00000100 	andeq	r0, r0, r0, lsl #2
     11c:	00000118 	andeq	r0, r0, r8, lsl r1
     120:	00000118 	andeq	r0, r0, r8, lsl r1
     124:	00000158 	andeq	r0, r0, r8, asr r1
     128:	00000158 	andeq	r0, r0, r8, asr r1
     12c:	00000170 	andeq	r0, r0, r0, ror r1
     130:	00000170 	andeq	r0, r0, r0, ror r1
     134:	00000198 	muleq	r0, r8, r1
     138:	00000198 	muleq	r0, r8, r1
     13c:	000001b0 			; <UNDEFINED> instruction: 0x000001b0
     140:	000001b0 			; <UNDEFINED> instruction: 0x000001b0
     144:	000001d8 	ldrdeq	r0, [r0], -r8
     148:	000001d8 	ldrdeq	r0, [r0], -r8
     14c:	000001f0 	strdeq	r0, [r0], -r0	; <UNPREDICTABLE>
     150:	000001f0 	strdeq	r0, [r0], -r0	; <UNPREDICTABLE>
     154:	00000220 	andeq	r0, r0, r0, lsr #4
	...
     160:	00000044 	andeq	r0, r0, r4, asr #32
     164:	0000004c 	andeq	r0, r0, ip, asr #32
     168:	0000004c 	andeq	r0, r0, ip, asr #32
     16c:	00000050 	andeq	r0, r0, r0, asr r0
     170:	00000058 	andeq	r0, r0, r8, asr r0
     174:	00000058 	andeq	r0, r0, r8, asr r0
     178:	00000058 	andeq	r0, r0, r8, asr r0
     17c:	00000058 	andeq	r0, r0, r8, asr r0
     180:	00000058 	andeq	r0, r0, r8, asr r0
     184:	00000068 	andeq	r0, r0, r8, rrx
     188:	00000068 	andeq	r0, r0, r8, rrx
     18c:	00000080 	andeq	r0, r0, r0, lsl #1
     190:	00000080 	andeq	r0, r0, r0, lsl #1
     194:	000000b4 	strheq	r0, [r0], -r4
     198:	000000b4 	strheq	r0, [r0], -r4
     19c:	000000cc 	andeq	r0, r0, ip, asr #1
     1a0:	000000cc 	andeq	r0, r0, ip, asr #1
     1a4:	00000100 	andeq	r0, r0, r0, lsl #2
     1a8:	00000100 	andeq	r0, r0, r0, lsl #2
     1ac:	00000118 	andeq	r0, r0, r8, lsl r1
     1b0:	00000118 	andeq	r0, r0, r8, lsl r1
     1b4:	0000013c 	andeq	r0, r0, ip, lsr r1
     1b8:	00000158 	andeq	r0, r0, r8, asr r1
     1bc:	00000158 	andeq	r0, r0, r8, asr r1
     1c0:	00000158 	andeq	r0, r0, r8, asr r1
     1c4:	00000170 	andeq	r0, r0, r0, ror r1
     1c8:	00000170 	andeq	r0, r0, r0, ror r1
     1cc:	00000198 	muleq	r0, r8, r1
     1d0:	00000198 	muleq	r0, r8, r1
     1d4:	000001b0 			; <UNDEFINED> instruction: 0x000001b0
     1d8:	000001b0 			; <UNDEFINED> instruction: 0x000001b0
     1dc:	000001d8 	ldrdeq	r0, [r0], -r8
     1e0:	000001d8 	ldrdeq	r0, [r0], -r8
     1e4:	000001f0 	strdeq	r0, [r0], -r0	; <UNPREDICTABLE>
     1e8:	000001f0 	strdeq	r0, [r0], -r0	; <UNPREDICTABLE>
     1ec:	00000220 	andeq	r0, r0, r0, lsr #4
	...
     1f8:	00000044 	andeq	r0, r0, r4, asr #32
     1fc:	0000004c 	andeq	r0, r0, ip, asr #32
     200:	0000004c 	andeq	r0, r0, ip, asr #32
     204:	00000050 	andeq	r0, r0, r0, asr r0
     208:	00000058 	andeq	r0, r0, r8, asr r0
     20c:	00000058 	andeq	r0, r0, r8, asr r0
     210:	00000058 	andeq	r0, r0, r8, asr r0
     214:	00000068 	andeq	r0, r0, r8, rrx
     218:	00000068 	andeq	r0, r0, r8, rrx
     21c:	00000080 	andeq	r0, r0, r0, lsl #1
     220:	00000080 	andeq	r0, r0, r0, lsl #1
     224:	000000a4 	andeq	r0, r0, r4, lsr #1
     228:	000001d8 	ldrdeq	r0, [r0], -r8
     22c:	000001d8 	ldrdeq	r0, [r0], -r8
     230:	000001d8 	ldrdeq	r0, [r0], -r8
     234:	000001f0 	strdeq	r0, [r0], -r0	; <UNPREDICTABLE>
     238:	000001f0 	strdeq	r0, [r0], -r0	; <UNPREDICTABLE>
     23c:	00000220 	andeq	r0, r0, r0, lsr #4
	...
     248:	00000044 	andeq	r0, r0, r4, asr #32
     24c:	0000004c 	andeq	r0, r0, ip, asr #32
     250:	0000004c 	andeq	r0, r0, ip, asr #32
     254:	00000050 	andeq	r0, r0, r0, asr r0
     258:	00000058 	andeq	r0, r0, r8, asr r0
     25c:	00000068 	andeq	r0, r0, r8, rrx
     260:	00000068 	andeq	r0, r0, r8, rrx
     264:	00000080 	andeq	r0, r0, r0, lsl #1
     268:	00000080 	andeq	r0, r0, r0, lsl #1
     26c:	000000a4 	andeq	r0, r0, r4, lsr #1
     270:	000001d8 	ldrdeq	r0, [r0], -r8
     274:	000001d8 	ldrdeq	r0, [r0], -r8
     278:	000001d8 	ldrdeq	r0, [r0], -r8
     27c:	000001f0 	strdeq	r0, [r0], -r0	; <UNPREDICTABLE>
     280:	000001f0 	strdeq	r0, [r0], -r0	; <UNPREDICTABLE>
     284:	00000220 	andeq	r0, r0, r0, lsr #4
	...
     290:	00000044 	andeq	r0, r0, r4, asr #32
     294:	0000004c 	andeq	r0, r0, ip, asr #32
     298:	0000005c 	andeq	r0, r0, ip, asr r0
     29c:	0000005c 	andeq	r0, r0, ip, asr r0
     2a0:	00000060 	andeq	r0, r0, r0, rrx
     2a4:	00000068 	andeq	r0, r0, r8, rrx
     2a8:	00000068 	andeq	r0, r0, r8, rrx
     2ac:	00000080 	andeq	r0, r0, r0, lsl #1
     2b0:	00000080 	andeq	r0, r0, r0, lsl #1
     2b4:	00000098 	muleq	r0, r8, r0
     2b8:	000001d8 	ldrdeq	r0, [r0], -r8
     2bc:	000001d8 	ldrdeq	r0, [r0], -r8
     2c0:	000001d8 	ldrdeq	r0, [r0], -r8
     2c4:	000001f0 	strdeq	r0, [r0], -r0	; <UNPREDICTABLE>
     2c8:	000001f0 	strdeq	r0, [r0], -r0	; <UNPREDICTABLE>
     2cc:	00000208 	andeq	r0, r0, r8, lsl #4
	...
     2d8:	00000044 	andeq	r0, r0, r4, asr #32
     2dc:	0000004c 	andeq	r0, r0, ip, asr #32
     2e0:	000001d8 	ldrdeq	r0, [r0], -r8
     2e4:	000001d8 	ldrdeq	r0, [r0], -r8
     2e8:	000001d8 	ldrdeq	r0, [r0], -r8
     2ec:	000001f0 	strdeq	r0, [r0], -r0	; <UNPREDICTABLE>
	...
     2f8:	00000044 	andeq	r0, r0, r4, asr #32
     2fc:	0000004c 	andeq	r0, r0, ip, asr #32
     300:	000001d8 	ldrdeq	r0, [r0], -r8
     304:	000001f0 	strdeq	r0, [r0], -r0	; <UNPREDICTABLE>
	...
     310:	00000044 	andeq	r0, r0, r4, asr #32
     314:	0000004c 	andeq	r0, r0, ip, asr #32
     318:	000001dc 	ldrdeq	r0, [r0], -ip
     31c:	000001e0 	andeq	r0, r0, r0, ror #3
	...
     328:	00000068 	andeq	r0, r0, r8, rrx
     32c:	00000068 	andeq	r0, r0, r8, rrx
     330:	00000068 	andeq	r0, r0, r8, rrx
     334:	00000080 	andeq	r0, r0, r0, lsl #1
	...
     340:	00000080 	andeq	r0, r0, r0, lsl #1
     344:	00000080 	andeq	r0, r0, r0, lsl #1
     348:	00000080 	andeq	r0, r0, r0, lsl #1
     34c:	00000098 	muleq	r0, r8, r0
	...
     358:	000001f0 	strdeq	r0, [r0], -r0	; <UNPREDICTABLE>
     35c:	000001f0 	strdeq	r0, [r0], -r0	; <UNPREDICTABLE>
     360:	000001f0 	strdeq	r0, [r0], -r0	; <UNPREDICTABLE>
     364:	00000208 	andeq	r0, r0, r8, lsl #4
	...
     370:	000000a4 	andeq	r0, r0, r4, lsr #1
     374:	000000b4 	strheq	r0, [r0], -r4
     378:	000000b4 	strheq	r0, [r0], -r4
     37c:	000000cc 	andeq	r0, r0, ip, asr #1
     380:	000000cc 	andeq	r0, r0, ip, asr #1
     384:	000000f0 	strdeq	r0, [r0], -r0	; <UNPREDICTABLE>
     388:	00000198 	muleq	r0, r8, r1
     38c:	00000198 	muleq	r0, r8, r1
     390:	00000198 	muleq	r0, r8, r1
     394:	000001b0 			; <UNDEFINED> instruction: 0x000001b0
     398:	000001b0 			; <UNDEFINED> instruction: 0x000001b0
     39c:	000001d8 	ldrdeq	r0, [r0], -r8
	...
     3a8:	000000a8 	andeq	r0, r0, r8, lsr #1
     3ac:	000000a8 	andeq	r0, r0, r8, lsr #1
     3b0:	000000ac 	andeq	r0, r0, ip, lsr #1
     3b4:	000000b4 	strheq	r0, [r0], -r4
     3b8:	000000b4 	strheq	r0, [r0], -r4
     3bc:	000000cc 	andeq	r0, r0, ip, asr #1
     3c0:	000000cc 	andeq	r0, r0, ip, asr #1
     3c4:	000000e4 	andeq	r0, r0, r4, ror #1
     3c8:	00000198 	muleq	r0, r8, r1
     3cc:	00000198 	muleq	r0, r8, r1
     3d0:	00000198 	muleq	r0, r8, r1
     3d4:	000001b0 			; <UNDEFINED> instruction: 0x000001b0
     3d8:	000001b0 			; <UNDEFINED> instruction: 0x000001b0
     3dc:	000001c8 	andeq	r0, r0, r8, asr #3
	...
     3e8:	000000b4 	strheq	r0, [r0], -r4
     3ec:	000000b4 	strheq	r0, [r0], -r4
     3f0:	000000b4 	strheq	r0, [r0], -r4
     3f4:	000000cc 	andeq	r0, r0, ip, asr #1
	...
     400:	000000cc 	andeq	r0, r0, ip, asr #1
     404:	000000cc 	andeq	r0, r0, ip, asr #1
     408:	000000cc 	andeq	r0, r0, ip, asr #1
     40c:	000000e4 	andeq	r0, r0, r4, ror #1
	...
     418:	00000198 	muleq	r0, r8, r1
     41c:	00000198 	muleq	r0, r8, r1
     420:	00000198 	muleq	r0, r8, r1
     424:	000001b0 			; <UNDEFINED> instruction: 0x000001b0
	...
     430:	000001b0 			; <UNDEFINED> instruction: 0x000001b0
     434:	000001b0 			; <UNDEFINED> instruction: 0x000001b0
     438:	000001b0 			; <UNDEFINED> instruction: 0x000001b0
     43c:	000001c8 	andeq	r0, r0, r8, asr #3
	...
     448:	000000f0 	strdeq	r0, [r0], -r0	; <UNPREDICTABLE>
     44c:	00000100 	andeq	r0, r0, r0, lsl #2
     450:	00000100 	andeq	r0, r0, r0, lsl #2
     454:	00000118 	andeq	r0, r0, r8, lsl r1
     458:	00000118 	andeq	r0, r0, r8, lsl r1
     45c:	0000013c 	andeq	r0, r0, ip, lsr r1
     460:	00000158 	andeq	r0, r0, r8, asr r1
     464:	00000158 	andeq	r0, r0, r8, asr r1
     468:	00000158 	andeq	r0, r0, r8, asr r1
     46c:	00000170 	andeq	r0, r0, r0, ror r1
     470:	00000170 	andeq	r0, r0, r0, ror r1
     474:	00000198 	muleq	r0, r8, r1
	...
     480:	000000f4 	strdeq	r0, [r0], -r4
     484:	000000f4 	strdeq	r0, [r0], -r4
     488:	000000f8 	strdeq	r0, [r0], -r8
     48c:	00000100 	andeq	r0, r0, r0, lsl #2
     490:	00000100 	andeq	r0, r0, r0, lsl #2
     494:	00000118 	andeq	r0, r0, r8, lsl r1
     498:	00000118 	andeq	r0, r0, r8, lsl r1
     49c:	00000130 	andeq	r0, r0, r0, lsr r1
     4a0:	00000158 	andeq	r0, r0, r8, asr r1
     4a4:	00000158 	andeq	r0, r0, r8, asr r1
     4a8:	00000158 	andeq	r0, r0, r8, asr r1
     4ac:	00000170 	andeq	r0, r0, r0, ror r1
     4b0:	00000170 	andeq	r0, r0, r0, ror r1
     4b4:	00000188 	andeq	r0, r0, r8, lsl #3
	...
     4c0:	00000100 	andeq	r0, r0, r0, lsl #2
     4c4:	00000100 	andeq	r0, r0, r0, lsl #2
     4c8:	00000100 	andeq	r0, r0, r0, lsl #2
     4cc:	00000118 	andeq	r0, r0, r8, lsl r1
	...
     4d8:	00000118 	andeq	r0, r0, r8, lsl r1
     4dc:	00000118 	andeq	r0, r0, r8, lsl r1
     4e0:	00000118 	andeq	r0, r0, r8, lsl r1
     4e4:	00000130 	andeq	r0, r0, r0, lsr r1
	...
     4f0:	00000158 	andeq	r0, r0, r8, asr r1
     4f4:	00000158 	andeq	r0, r0, r8, asr r1
     4f8:	00000158 	andeq	r0, r0, r8, asr r1
     4fc:	00000170 	andeq	r0, r0, r0, ror r1
	...
     508:	00000170 	andeq	r0, r0, r0, ror r1
     50c:	00000170 	andeq	r0, r0, r0, ror r1
     510:	00000170 	andeq	r0, r0, r0, ror r1
     514:	00000188 	andeq	r0, r0, r8, lsl #3
	...
     520:	00000274 	andeq	r0, r0, r4, ror r2
     524:	00000278 	andeq	r0, r0, r8, ror r2
     528:	00000278 	andeq	r0, r0, r8, ror r2
     52c:	00000278 	andeq	r0, r0, r8, ror r2
     530:	00000278 	andeq	r0, r0, r8, ror r2
     534:	0000027c 	andeq	r0, r0, ip, ror r2
     538:	00000280 	andeq	r0, r0, r0, lsl #5
     53c:	00000294 	muleq	r0, r4, r2
     540:	00000294 	muleq	r0, r4, r2
     544:	000002ac 	andeq	r0, r0, ip, lsr #5
     548:	000002ac 	andeq	r0, r0, ip, lsr #5
     54c:	000002e4 	andeq	r0, r0, r4, ror #5
     550:	000002e4 	andeq	r0, r0, r4, ror #5
     554:	000002fc 	strdeq	r0, [r0], -ip
     558:	000002fc 	strdeq	r0, [r0], -ip
     55c:	00000334 	andeq	r0, r0, r4, lsr r3
     560:	00000334 	andeq	r0, r0, r4, lsr r3
     564:	0000034c 	andeq	r0, r0, ip, asr #6
     568:	0000034c 	andeq	r0, r0, ip, asr #6
     56c:	0000037c 	andeq	r0, r0, ip, ror r3
     570:	0000037c 	andeq	r0, r0, ip, ror r3
     574:	00000394 	muleq	r0, r4, r3
     578:	00000394 	muleq	r0, r4, r3
     57c:	000003b0 			; <UNDEFINED> instruction: 0x000003b0
     580:	000003b0 			; <UNDEFINED> instruction: 0x000003b0
     584:	000003c8 	andeq	r0, r0, r8, asr #7
     588:	000003c8 	andeq	r0, r0, r8, asr #7
     58c:	000003f0 	strdeq	r0, [r0], -r0	; <UNPREDICTABLE>
     590:	000003f0 	strdeq	r0, [r0], -r0	; <UNPREDICTABLE>
     594:	00000408 	andeq	r0, r0, r8, lsl #8
     598:	00000408 	andeq	r0, r0, r8, lsl #8
     59c:	00000434 	andeq	r0, r0, r4, lsr r4
	...
     5a8:	00000274 	andeq	r0, r0, r4, ror r2
     5ac:	00000278 	andeq	r0, r0, r8, ror r2
     5b0:	00000278 	andeq	r0, r0, r8, ror r2
     5b4:	00000278 	andeq	r0, r0, r8, ror r2
     5b8:	00000278 	andeq	r0, r0, r8, ror r2
     5bc:	0000027c 	andeq	r0, r0, ip, ror r2
     5c0:	00000280 	andeq	r0, r0, r0, lsl #5
     5c4:	00000294 	muleq	r0, r4, r2
     5c8:	00000294 	muleq	r0, r4, r2
     5cc:	000002ac 	andeq	r0, r0, ip, lsr #5
     5d0:	000002ac 	andeq	r0, r0, ip, lsr #5
     5d4:	000002d0 	ldrdeq	r0, [r0], -r0	; <UNPREDICTABLE>
     5d8:	000003f0 	strdeq	r0, [r0], -r0	; <UNPREDICTABLE>
     5dc:	000003f0 	strdeq	r0, [r0], -r0	; <UNPREDICTABLE>
     5e0:	000003f0 	strdeq	r0, [r0], -r0	; <UNPREDICTABLE>
     5e4:	00000408 	andeq	r0, r0, r8, lsl #8
     5e8:	00000408 	andeq	r0, r0, r8, lsl #8
     5ec:	00000434 	andeq	r0, r0, r4, lsr r4
	...
     5f8:	00000274 	andeq	r0, r0, r4, ror r2
     5fc:	00000278 	andeq	r0, r0, r8, ror r2
     600:	00000278 	andeq	r0, r0, r8, ror r2
     604:	0000027c 	andeq	r0, r0, ip, ror r2
     608:	00000280 	andeq	r0, r0, r0, lsl #5
     60c:	00000294 	muleq	r0, r4, r2
     610:	00000294 	muleq	r0, r4, r2
     614:	000002ac 	andeq	r0, r0, ip, lsr #5
     618:	000002ac 	andeq	r0, r0, ip, lsr #5
     61c:	000002d0 	ldrdeq	r0, [r0], -r0	; <UNPREDICTABLE>
     620:	000003f0 	strdeq	r0, [r0], -r0	; <UNPREDICTABLE>
     624:	000003f0 	strdeq	r0, [r0], -r0	; <UNPREDICTABLE>
     628:	000003f0 	strdeq	r0, [r0], -r0	; <UNPREDICTABLE>
     62c:	00000408 	andeq	r0, r0, r8, lsl #8
     630:	00000408 	andeq	r0, r0, r8, lsl #8
     634:	00000434 	andeq	r0, r0, r4, lsr r4
	...
     640:	00000274 	andeq	r0, r0, r4, ror r2
     644:	00000278 	andeq	r0, r0, r8, ror r2
     648:	00000280 	andeq	r0, r0, r0, lsl #5
     64c:	00000288 	andeq	r0, r0, r8, lsl #5
     650:	00000288 	andeq	r0, r0, r8, lsl #5
     654:	00000288 	andeq	r0, r0, r8, lsl #5
     658:	0000028c 	andeq	r0, r0, ip, lsl #5
     65c:	00000294 	muleq	r0, r4, r2
     660:	00000294 	muleq	r0, r4, r2
     664:	000002ac 	andeq	r0, r0, ip, lsr #5
     668:	000002ac 	andeq	r0, r0, ip, lsr #5
     66c:	000002c4 	andeq	r0, r0, r4, asr #5
     670:	000003f0 	strdeq	r0, [r0], -r0	; <UNPREDICTABLE>
     674:	000003f0 	strdeq	r0, [r0], -r0	; <UNPREDICTABLE>
     678:	000003f0 	strdeq	r0, [r0], -r0	; <UNPREDICTABLE>
     67c:	00000408 	andeq	r0, r0, r8, lsl #8
     680:	00000408 	andeq	r0, r0, r8, lsl #8
     684:	00000420 	andeq	r0, r0, r0, lsr #8
	...
     690:	00000274 	andeq	r0, r0, r4, ror r2
     694:	00000278 	andeq	r0, r0, r8, ror r2
     698:	00000280 	andeq	r0, r0, r0, lsl #5
     69c:	00000288 	andeq	r0, r0, r8, lsl #5
     6a0:	000003f0 	strdeq	r0, [r0], -r0	; <UNPREDICTABLE>
     6a4:	000003f0 	strdeq	r0, [r0], -r0	; <UNPREDICTABLE>
     6a8:	000003f0 	strdeq	r0, [r0], -r0	; <UNPREDICTABLE>
     6ac:	00000408 	andeq	r0, r0, r8, lsl #8
	...
     6b8:	00000274 	andeq	r0, r0, r4, ror r2
     6bc:	00000278 	andeq	r0, r0, r8, ror r2
     6c0:	00000280 	andeq	r0, r0, r0, lsl #5
     6c4:	00000288 	andeq	r0, r0, r8, lsl #5
     6c8:	000003f0 	strdeq	r0, [r0], -r0	; <UNPREDICTABLE>
     6cc:	00000408 	andeq	r0, r0, r8, lsl #8
	...
     6d8:	00000274 	andeq	r0, r0, r4, ror r2
     6dc:	00000278 	andeq	r0, r0, r8, ror r2
     6e0:	00000280 	andeq	r0, r0, r0, lsl #5
     6e4:	00000288 	andeq	r0, r0, r8, lsl #5
     6e8:	000003f4 	strdeq	r0, [r0], -r4
     6ec:	000003f8 	strdeq	r0, [r0], -r8
	...
     6f8:	00000294 	muleq	r0, r4, r2
     6fc:	00000294 	muleq	r0, r4, r2
     700:	00000294 	muleq	r0, r4, r2
     704:	000002ac 	andeq	r0, r0, ip, lsr #5
	...
     710:	000002ac 	andeq	r0, r0, ip, lsr #5
     714:	000002ac 	andeq	r0, r0, ip, lsr #5
     718:	000002ac 	andeq	r0, r0, ip, lsr #5
     71c:	000002c4 	andeq	r0, r0, r4, asr #5
	...
     728:	00000408 	andeq	r0, r0, r8, lsl #8
     72c:	00000408 	andeq	r0, r0, r8, lsl #8
     730:	00000408 	andeq	r0, r0, r8, lsl #8
     734:	00000420 	andeq	r0, r0, r0, lsr #8
	...
     740:	000002d0 	ldrdeq	r0, [r0], -r0	; <UNPREDICTABLE>
     744:	000002e4 	andeq	r0, r0, r4, ror #5
     748:	000002e4 	andeq	r0, r0, r4, ror #5
     74c:	000002fc 	strdeq	r0, [r0], -ip
     750:	000002fc 	strdeq	r0, [r0], -ip
     754:	00000320 	andeq	r0, r0, r0, lsr #6
     758:	000003b0 			; <UNDEFINED> instruction: 0x000003b0
     75c:	000003b0 			; <UNDEFINED> instruction: 0x000003b0
     760:	000003b0 			; <UNDEFINED> instruction: 0x000003b0
     764:	000003c8 	andeq	r0, r0, r8, asr #7
     768:	000003c8 	andeq	r0, r0, r8, asr #7
     76c:	000003f0 	strdeq	r0, [r0], -r0	; <UNPREDICTABLE>
	...
     778:	000002d4 	ldrdeq	r0, [r0], -r4
     77c:	000002d8 	ldrdeq	r0, [r0], -r8
     780:	000002d8 	ldrdeq	r0, [r0], -r8
     784:	000002d8 	ldrdeq	r0, [r0], -r8
     788:	000002dc 	ldrdeq	r0, [r0], -ip
     78c:	000002e4 	andeq	r0, r0, r4, ror #5
     790:	000002e4 	andeq	r0, r0, r4, ror #5
     794:	000002fc 	strdeq	r0, [r0], -ip
     798:	000002fc 	strdeq	r0, [r0], -ip
     79c:	00000314 	andeq	r0, r0, r4, lsl r3
     7a0:	000003b0 			; <UNDEFINED> instruction: 0x000003b0
     7a4:	000003b0 			; <UNDEFINED> instruction: 0x000003b0
     7a8:	000003b0 			; <UNDEFINED> instruction: 0x000003b0
     7ac:	000003c8 	andeq	r0, r0, r8, asr #7
     7b0:	000003c8 	andeq	r0, r0, r8, asr #7
     7b4:	000003e0 	andeq	r0, r0, r0, ror #7
	...
     7c0:	000002d4 	ldrdeq	r0, [r0], -r4
     7c4:	000002d8 	ldrdeq	r0, [r0], -r8
     7c8:	000003b0 			; <UNDEFINED> instruction: 0x000003b0
     7cc:	000003b0 			; <UNDEFINED> instruction: 0x000003b0
     7d0:	000003b0 			; <UNDEFINED> instruction: 0x000003b0
     7d4:	000003c8 	andeq	r0, r0, r8, asr #7
	...
     7e0:	000002d4 	ldrdeq	r0, [r0], -r4
     7e4:	000002d8 	ldrdeq	r0, [r0], -r8
     7e8:	000003b0 			; <UNDEFINED> instruction: 0x000003b0
     7ec:	000003c8 	andeq	r0, r0, r8, asr #7
	...
     7f8:	000002d4 	ldrdeq	r0, [r0], -r4
     7fc:	000002d8 	ldrdeq	r0, [r0], -r8
     800:	000003b4 			; <UNDEFINED> instruction: 0x000003b4
     804:	000003b8 			; <UNDEFINED> instruction: 0x000003b8
	...
     810:	000002e4 	andeq	r0, r0, r4, ror #5
     814:	000002e4 	andeq	r0, r0, r4, ror #5
     818:	000002e4 	andeq	r0, r0, r4, ror #5
     81c:	000002fc 	strdeq	r0, [r0], -ip
	...
     828:	000002fc 	strdeq	r0, [r0], -ip
     82c:	000002fc 	strdeq	r0, [r0], -ip
     830:	000002fc 	strdeq	r0, [r0], -ip
     834:	00000314 	andeq	r0, r0, r4, lsl r3
	...
     840:	000003c8 	andeq	r0, r0, r8, asr #7
     844:	000003c8 	andeq	r0, r0, r8, asr #7
     848:	000003c8 	andeq	r0, r0, r8, asr #7
     84c:	000003e0 	andeq	r0, r0, r0, ror #7
	...
     858:	00000320 	andeq	r0, r0, r0, lsr #6
     85c:	00000334 	andeq	r0, r0, r4, lsr r3
     860:	00000334 	andeq	r0, r0, r4, lsr r3
     864:	0000034c 	andeq	r0, r0, ip, asr #6
     868:	0000034c 	andeq	r0, r0, ip, asr #6
     86c:	0000037c 	andeq	r0, r0, ip, ror r3
     870:	0000037c 	andeq	r0, r0, ip, ror r3
     874:	00000394 	muleq	r0, r4, r3
     878:	00000394 	muleq	r0, r4, r3
     87c:	000003b0 			; <UNDEFINED> instruction: 0x000003b0
	...
     888:	00000324 	andeq	r0, r0, r4, lsr #6
     88c:	00000324 	andeq	r0, r0, r4, lsr #6
     890:	00000328 	andeq	r0, r0, r8, lsr #6
     894:	00000334 	andeq	r0, r0, r4, lsr r3
     898:	00000334 	andeq	r0, r0, r4, lsr r3
     89c:	0000034c 	andeq	r0, r0, ip, asr #6
     8a0:	0000034c 	andeq	r0, r0, ip, asr #6
     8a4:	00000364 	andeq	r0, r0, r4, ror #6
     8a8:	00000370 	andeq	r0, r0, r0, ror r3
     8ac:	00000370 	andeq	r0, r0, r0, ror r3
     8b0:	00000374 	andeq	r0, r0, r4, ror r3
     8b4:	0000037c 	andeq	r0, r0, ip, ror r3
     8b8:	0000037c 	andeq	r0, r0, ip, ror r3
     8bc:	00000394 	muleq	r0, r4, r3
     8c0:	00000394 	muleq	r0, r4, r3
     8c4:	000003b0 			; <UNDEFINED> instruction: 0x000003b0
	...
     8d0:	0000032c 	andeq	r0, r0, ip, lsr #6
     8d4:	00000330 	andeq	r0, r0, r0, lsr r3
     8d8:	0000037c 	andeq	r0, r0, ip, ror r3
     8dc:	0000037c 	andeq	r0, r0, ip, ror r3
     8e0:	0000037c 	andeq	r0, r0, ip, ror r3
     8e4:	00000394 	muleq	r0, r4, r3
	...
     8f0:	0000032c 	andeq	r0, r0, ip, lsr #6
     8f4:	00000330 	andeq	r0, r0, r0, lsr r3
     8f8:	0000037c 	andeq	r0, r0, ip, ror r3
     8fc:	00000394 	muleq	r0, r4, r3
	...
     908:	0000032c 	andeq	r0, r0, ip, lsr #6
     90c:	00000330 	andeq	r0, r0, r0, lsr r3
     910:	00000380 	andeq	r0, r0, r0, lsl #7
     914:	00000384 	andeq	r0, r0, r4, lsl #7
	...
     920:	00000334 	andeq	r0, r0, r4, lsr r3
     924:	00000334 	andeq	r0, r0, r4, lsr r3
     928:	00000334 	andeq	r0, r0, r4, lsr r3
     92c:	0000034c 	andeq	r0, r0, ip, asr #6
	...
     938:	0000034c 	andeq	r0, r0, ip, asr #6
     93c:	0000034c 	andeq	r0, r0, ip, asr #6
     940:	0000034c 	andeq	r0, r0, ip, asr #6
     944:	00000364 	andeq	r0, r0, r4, ror #6
	...
     950:	00000394 	muleq	r0, r4, r3
     954:	00000394 	muleq	r0, r4, r3
     958:	00000394 	muleq	r0, r4, r3
     95c:	000003b0 			; <UNDEFINED> instruction: 0x000003b0
	...
     968:	00000440 	andeq	r0, r0, r0, asr #8
     96c:	0000044c 	andeq	r0, r0, ip, asr #8
     970:	00000450 	andeq	r0, r0, r0, asr r4
     974:	00000460 	andeq	r0, r0, r0, ror #8
     978:	00000460 	andeq	r0, r0, r0, ror #8
     97c:	00000460 	andeq	r0, r0, r0, ror #8
     980:	00000460 	andeq	r0, r0, r0, ror #8
     984:	00000464 	andeq	r0, r0, r4, ror #8
     988:	00000464 	andeq	r0, r0, r4, ror #8
     98c:	00000464 	andeq	r0, r0, r4, ror #8
     990:	00000464 	andeq	r0, r0, r4, ror #8
     994:	0000047c 	andeq	r0, r0, ip, ror r4
     998:	0000047c 	andeq	r0, r0, ip, ror r4
     99c:	0000047c 	andeq	r0, r0, ip, ror r4
     9a0:	0000047c 	andeq	r0, r0, ip, ror r4
     9a4:	000004a0 	andeq	r0, r0, r0, lsr #9
     9a8:	000004a0 	andeq	r0, r0, r0, lsr #9
     9ac:	000004a0 	andeq	r0, r0, r0, lsr #9
     9b0:	000004a0 	andeq	r0, r0, r0, lsr #9
     9b4:	000004b8 			; <UNDEFINED> instruction: 0x000004b8
     9b8:	000004b8 			; <UNDEFINED> instruction: 0x000004b8
     9bc:	000004b8 			; <UNDEFINED> instruction: 0x000004b8
     9c0:	000004b8 			; <UNDEFINED> instruction: 0x000004b8
     9c4:	000004dc 	ldrdeq	r0, [r0], -ip
     9c8:	000004dc 	ldrdeq	r0, [r0], -ip
     9cc:	000004dc 	ldrdeq	r0, [r0], -ip
     9d0:	000004dc 	ldrdeq	r0, [r0], -ip
     9d4:	000004f4 	strdeq	r0, [r0], -r4
     9d8:	000004f4 	strdeq	r0, [r0], -r4
     9dc:	000004f4 	strdeq	r0, [r0], -r4
     9e0:	000004f4 	strdeq	r0, [r0], -r4
     9e4:	00000520 	andeq	r0, r0, r0, lsr #10
	...
     9f0:	00000448 	andeq	r0, r0, r8, asr #8
     9f4:	0000044c 	andeq	r0, r0, ip, asr #8
     9f8:	00000458 	andeq	r0, r0, r8, asr r4
     9fc:	00000460 	andeq	r0, r0, r0, ror #8
     a00:	00000460 	andeq	r0, r0, r0, ror #8
     a04:	00000460 	andeq	r0, r0, r0, ror #8
     a08:	00000460 	andeq	r0, r0, r0, ror #8
     a0c:	00000460 	andeq	r0, r0, r0, ror #8
     a10:	00000460 	andeq	r0, r0, r0, ror #8
     a14:	00000460 	andeq	r0, r0, r0, ror #8
     a18:	00000464 	andeq	r0, r0, r4, ror #8
     a1c:	00000464 	andeq	r0, r0, r4, ror #8
     a20:	00000464 	andeq	r0, r0, r4, ror #8
     a24:	00000464 	andeq	r0, r0, r4, ror #8
     a28:	00000464 	andeq	r0, r0, r4, ror #8
     a2c:	0000047c 	andeq	r0, r0, ip, ror r4
     a30:	0000047c 	andeq	r0, r0, ip, ror r4
     a34:	0000047c 	andeq	r0, r0, ip, ror r4
     a38:	0000047c 	andeq	r0, r0, ip, ror r4
     a3c:	000004a0 	andeq	r0, r0, r0, lsr #9
     a40:	000004a0 	andeq	r0, r0, r0, lsr #9
     a44:	000004a0 	andeq	r0, r0, r0, lsr #9
     a48:	000004a0 	andeq	r0, r0, r0, lsr #9
     a4c:	000004b8 			; <UNDEFINED> instruction: 0x000004b8
     a50:	000004b8 			; <UNDEFINED> instruction: 0x000004b8
     a54:	000004b8 			; <UNDEFINED> instruction: 0x000004b8
     a58:	000004b8 			; <UNDEFINED> instruction: 0x000004b8
     a5c:	000004dc 	ldrdeq	r0, [r0], -ip
     a60:	000004dc 	ldrdeq	r0, [r0], -ip
     a64:	000004dc 	ldrdeq	r0, [r0], -ip
     a68:	000004dc 	ldrdeq	r0, [r0], -ip
     a6c:	000004f4 	strdeq	r0, [r0], -r4
     a70:	000004f4 	strdeq	r0, [r0], -r4
     a74:	000004f4 	strdeq	r0, [r0], -r4
     a78:	000004f4 	strdeq	r0, [r0], -r4
     a7c:	00000514 	andeq	r0, r0, r4, lsl r5
	...
     a88:	00000448 	andeq	r0, r0, r8, asr #8
     a8c:	0000044c 	andeq	r0, r0, ip, asr #8
     a90:	00000458 	andeq	r0, r0, r8, asr r4
     a94:	00000460 	andeq	r0, r0, r0, ror #8
     a98:	00000460 	andeq	r0, r0, r0, ror #8
     a9c:	00000460 	andeq	r0, r0, r0, ror #8
     aa0:	00000460 	andeq	r0, r0, r0, ror #8
     aa4:	00000460 	andeq	r0, r0, r0, ror #8
     aa8:	00000464 	andeq	r0, r0, r4, ror #8
     aac:	00000464 	andeq	r0, r0, r4, ror #8
     ab0:	00000464 	andeq	r0, r0, r4, ror #8
     ab4:	00000464 	andeq	r0, r0, r4, ror #8
     ab8:	00000464 	andeq	r0, r0, r4, ror #8
     abc:	0000047c 	andeq	r0, r0, ip, ror r4
     ac0:	0000047c 	andeq	r0, r0, ip, ror r4
     ac4:	0000047c 	andeq	r0, r0, ip, ror r4
     ac8:	0000047c 	andeq	r0, r0, ip, ror r4
     acc:	000004a0 	andeq	r0, r0, r0, lsr #9
	...
     ad8:	00000448 	andeq	r0, r0, r8, asr #8
     adc:	0000044c 	andeq	r0, r0, ip, asr #8
     ae0:	00000458 	andeq	r0, r0, r8, asr r4
     ae4:	00000460 	andeq	r0, r0, r0, ror #8
     ae8:	00000460 	andeq	r0, r0, r0, ror #8
     aec:	00000460 	andeq	r0, r0, r0, ror #8
     af0:	00000464 	andeq	r0, r0, r4, ror #8
     af4:	00000464 	andeq	r0, r0, r4, ror #8
     af8:	00000464 	andeq	r0, r0, r4, ror #8
     afc:	00000464 	andeq	r0, r0, r4, ror #8
     b00:	00000464 	andeq	r0, r0, r4, ror #8
     b04:	0000047c 	andeq	r0, r0, ip, ror r4
     b08:	0000047c 	andeq	r0, r0, ip, ror r4
     b0c:	0000047c 	andeq	r0, r0, ip, ror r4
     b10:	0000047c 	andeq	r0, r0, ip, ror r4
     b14:	000004a0 	andeq	r0, r0, r0, lsr #9
	...
     b20:	00000448 	andeq	r0, r0, r8, asr #8
     b24:	0000044c 	andeq	r0, r0, ip, asr #8
     b28:	00000458 	andeq	r0, r0, r8, asr r4
     b2c:	00000460 	andeq	r0, r0, r0, ror #8
     b30:	00000464 	andeq	r0, r0, r4, ror #8
     b34:	00000464 	andeq	r0, r0, r4, ror #8
     b38:	00000464 	andeq	r0, r0, r4, ror #8
     b3c:	00000464 	andeq	r0, r0, r4, ror #8
     b40:	00000464 	andeq	r0, r0, r4, ror #8
     b44:	0000047c 	andeq	r0, r0, ip, ror r4
     b48:	0000047c 	andeq	r0, r0, ip, ror r4
     b4c:	0000047c 	andeq	r0, r0, ip, ror r4
     b50:	0000047c 	andeq	r0, r0, ip, ror r4
     b54:	00000494 	muleq	r0, r4, r4
	...
     b60:	00000448 	andeq	r0, r0, r8, asr #8
     b64:	0000044c 	andeq	r0, r0, ip, asr #8
     b68:	00000458 	andeq	r0, r0, r8, asr r4
     b6c:	00000460 	andeq	r0, r0, r0, ror #8
     b70:	00000464 	andeq	r0, r0, r4, ror #8
     b74:	00000464 	andeq	r0, r0, r4, ror #8
     b78:	00000464 	andeq	r0, r0, r4, ror #8
     b7c:	0000047c 	andeq	r0, r0, ip, ror r4
	...
     b88:	00000448 	andeq	r0, r0, r8, asr #8
     b8c:	0000044c 	andeq	r0, r0, ip, asr #8
     b90:	00000458 	andeq	r0, r0, r8, asr r4
     b94:	00000460 	andeq	r0, r0, r0, ror #8
     b98:	00000464 	andeq	r0, r0, r4, ror #8
     b9c:	0000047c 	andeq	r0, r0, ip, ror r4
	...
     ba8:	00000448 	andeq	r0, r0, r8, asr #8
     bac:	0000044c 	andeq	r0, r0, ip, asr #8
     bb0:	00000458 	andeq	r0, r0, r8, asr r4
     bb4:	00000460 	andeq	r0, r0, r0, ror #8
     bb8:	00000468 	andeq	r0, r0, r8, ror #8
     bbc:	0000046c 	andeq	r0, r0, ip, ror #8
	...
     bc8:	000004a0 	andeq	r0, r0, r0, lsr #9
     bcc:	000004a0 	andeq	r0, r0, r0, lsr #9
     bd0:	000004a0 	andeq	r0, r0, r0, lsr #9
     bd4:	000004a0 	andeq	r0, r0, r0, lsr #9
     bd8:	000004a0 	andeq	r0, r0, r0, lsr #9
     bdc:	000004b8 			; <UNDEFINED> instruction: 0x000004b8
     be0:	000004b8 			; <UNDEFINED> instruction: 0x000004b8
     be4:	000004b8 			; <UNDEFINED> instruction: 0x000004b8
     be8:	000004b8 			; <UNDEFINED> instruction: 0x000004b8
     bec:	000004dc 	ldrdeq	r0, [r0], -ip
	...
     bf8:	000004a0 	andeq	r0, r0, r0, lsr #9
     bfc:	000004a0 	andeq	r0, r0, r0, lsr #9
     c00:	000004a0 	andeq	r0, r0, r0, lsr #9
     c04:	000004a0 	andeq	r0, r0, r0, lsr #9
     c08:	000004a0 	andeq	r0, r0, r0, lsr #9
     c0c:	000004b8 			; <UNDEFINED> instruction: 0x000004b8
     c10:	000004b8 			; <UNDEFINED> instruction: 0x000004b8
     c14:	000004b8 			; <UNDEFINED> instruction: 0x000004b8
     c18:	000004b8 			; <UNDEFINED> instruction: 0x000004b8
     c1c:	000004d0 	ldrdeq	r0, [r0], -r0	; <UNPREDICTABLE>
	...
     c28:	000004a0 	andeq	r0, r0, r0, lsr #9
     c2c:	000004a0 	andeq	r0, r0, r0, lsr #9
     c30:	000004a0 	andeq	r0, r0, r0, lsr #9
     c34:	000004b8 			; <UNDEFINED> instruction: 0x000004b8
	...
     c40:	000004dc 	ldrdeq	r0, [r0], -ip
     c44:	000004dc 	ldrdeq	r0, [r0], -ip
     c48:	000004dc 	ldrdeq	r0, [r0], -ip
     c4c:	000004dc 	ldrdeq	r0, [r0], -ip
     c50:	000004dc 	ldrdeq	r0, [r0], -ip
     c54:	000004f4 	strdeq	r0, [r0], -r4
     c58:	000004f4 	strdeq	r0, [r0], -r4
     c5c:	000004f4 	strdeq	r0, [r0], -r4
     c60:	000004f4 	strdeq	r0, [r0], -r4
     c64:	00000514 	andeq	r0, r0, r4, lsl r5
	...
     c70:	000004dc 	ldrdeq	r0, [r0], -ip
     c74:	000004dc 	ldrdeq	r0, [r0], -ip
     c78:	000004dc 	ldrdeq	r0, [r0], -ip
     c7c:	000004dc 	ldrdeq	r0, [r0], -ip
     c80:	000004dc 	ldrdeq	r0, [r0], -ip
     c84:	000004f4 	strdeq	r0, [r0], -r4
     c88:	000004f4 	strdeq	r0, [r0], -r4
     c8c:	000004f4 	strdeq	r0, [r0], -r4
     c90:	000004f4 	strdeq	r0, [r0], -r4
     c94:	0000050c 	andeq	r0, r0, ip, lsl #10
	...
     ca0:	000004dc 	ldrdeq	r0, [r0], -ip
     ca4:	000004dc 	ldrdeq	r0, [r0], -ip
     ca8:	000004dc 	ldrdeq	r0, [r0], -ip
     cac:	000004f4 	strdeq	r0, [r0], -r4
	...
     cb8:	00000538 	andeq	r0, r0, r8, lsr r5
     cbc:	00000554 	andeq	r0, r0, r4, asr r5
     cc0:	00000554 	andeq	r0, r0, r4, asr r5
     cc4:	00000554 	andeq	r0, r0, r4, asr r5
     cc8:	00000554 	andeq	r0, r0, r4, asr r5
     ccc:	00000558 	andeq	r0, r0, r8, asr r5
     cd0:	00000558 	andeq	r0, r0, r8, asr r5
     cd4:	00000558 	andeq	r0, r0, r8, asr r5
     cd8:	00000558 	andeq	r0, r0, r8, asr r5
     cdc:	00000570 	andeq	r0, r0, r0, ror r5
     ce0:	00000570 	andeq	r0, r0, r0, ror r5
     ce4:	00000570 	andeq	r0, r0, r0, ror r5
     ce8:	00000570 	andeq	r0, r0, r0, ror r5
     cec:	00000594 	muleq	r0, r4, r5
     cf0:	00000594 	muleq	r0, r4, r5
     cf4:	00000594 	muleq	r0, r4, r5
     cf8:	00000594 	muleq	r0, r4, r5
     cfc:	000005ac 	andeq	r0, r0, ip, lsr #11
     d00:	000005ac 	andeq	r0, r0, ip, lsr #11
     d04:	000005ac 	andeq	r0, r0, ip, lsr #11
     d08:	000005ac 	andeq	r0, r0, ip, lsr #11
     d0c:	000005d0 	ldrdeq	r0, [r0], -r0	; <UNPREDICTABLE>
     d10:	000005d0 	ldrdeq	r0, [r0], -r0	; <UNPREDICTABLE>
     d14:	000005d0 	ldrdeq	r0, [r0], -r0	; <UNPREDICTABLE>
     d18:	000005d0 	ldrdeq	r0, [r0], -r0	; <UNPREDICTABLE>
     d1c:	000005e8 	andeq	r0, r0, r8, ror #11
     d20:	000005e8 	andeq	r0, r0, r8, ror #11
     d24:	000005e8 	andeq	r0, r0, r8, ror #11
     d28:	000005e8 	andeq	r0, r0, r8, ror #11
     d2c:	00000614 	andeq	r0, r0, r4, lsl r6
     d30:	00000618 	andeq	r0, r0, r8, lsl r6
     d34:	00000620 	andeq	r0, r0, r0, lsr #12
	...
     d40:	00000538 	andeq	r0, r0, r8, lsr r5
     d44:	00000554 	andeq	r0, r0, r4, asr r5
     d48:	00000554 	andeq	r0, r0, r4, asr r5
     d4c:	00000554 	andeq	r0, r0, r4, asr r5
     d50:	00000554 	andeq	r0, r0, r4, asr r5
     d54:	00000558 	andeq	r0, r0, r8, asr r5
     d58:	00000558 	andeq	r0, r0, r8, asr r5
     d5c:	00000558 	andeq	r0, r0, r8, asr r5
     d60:	00000558 	andeq	r0, r0, r8, asr r5
     d64:	00000570 	andeq	r0, r0, r0, ror r5
     d68:	00000570 	andeq	r0, r0, r0, ror r5
     d6c:	00000570 	andeq	r0, r0, r0, ror r5
     d70:	00000570 	andeq	r0, r0, r0, ror r5
     d74:	00000594 	muleq	r0, r4, r5
     d78:	00000594 	muleq	r0, r4, r5
     d7c:	00000594 	muleq	r0, r4, r5
     d80:	00000594 	muleq	r0, r4, r5
     d84:	000005ac 	andeq	r0, r0, ip, lsr #11
     d88:	000005ac 	andeq	r0, r0, ip, lsr #11
     d8c:	000005ac 	andeq	r0, r0, ip, lsr #11
     d90:	000005ac 	andeq	r0, r0, ip, lsr #11
     d94:	000005d0 	ldrdeq	r0, [r0], -r0	; <UNPREDICTABLE>
     d98:	000005d0 	ldrdeq	r0, [r0], -r0	; <UNPREDICTABLE>
     d9c:	000005d0 	ldrdeq	r0, [r0], -r0	; <UNPREDICTABLE>
     da0:	000005d0 	ldrdeq	r0, [r0], -r0	; <UNPREDICTABLE>
     da4:	000005e8 	andeq	r0, r0, r8, ror #11
     da8:	000005e8 	andeq	r0, r0, r8, ror #11
     dac:	000005e8 	andeq	r0, r0, r8, ror #11
     db0:	000005e8 	andeq	r0, r0, r8, ror #11
     db4:	00000614 	andeq	r0, r0, r4, lsl r6
	...
     dc0:	00000540 	andeq	r0, r0, r0, asr #10
     dc4:	00000544 	andeq	r0, r0, r4, asr #10
     dc8:	0000054c 	andeq	r0, r0, ip, asr #10
     dcc:	00000554 	andeq	r0, r0, r4, asr r5
     dd0:	00000554 	andeq	r0, r0, r4, asr r5
     dd4:	00000554 	andeq	r0, r0, r4, asr r5
     dd8:	00000554 	andeq	r0, r0, r4, asr r5
     ddc:	00000554 	andeq	r0, r0, r4, asr r5
     de0:	00000554 	andeq	r0, r0, r4, asr r5
     de4:	00000554 	andeq	r0, r0, r4, asr r5
     de8:	00000558 	andeq	r0, r0, r8, asr r5
     dec:	00000558 	andeq	r0, r0, r8, asr r5
     df0:	00000558 	andeq	r0, r0, r8, asr r5
     df4:	00000558 	andeq	r0, r0, r8, asr r5
     df8:	00000558 	andeq	r0, r0, r8, asr r5
     dfc:	00000570 	andeq	r0, r0, r0, ror r5
     e00:	00000570 	andeq	r0, r0, r0, ror r5
     e04:	00000570 	andeq	r0, r0, r0, ror r5
     e08:	00000570 	andeq	r0, r0, r0, ror r5
     e0c:	00000594 	muleq	r0, r4, r5
     e10:	00000594 	muleq	r0, r4, r5
     e14:	00000594 	muleq	r0, r4, r5
     e18:	00000594 	muleq	r0, r4, r5
     e1c:	000005ac 	andeq	r0, r0, ip, lsr #11
     e20:	000005ac 	andeq	r0, r0, ip, lsr #11
     e24:	000005ac 	andeq	r0, r0, ip, lsr #11
     e28:	000005ac 	andeq	r0, r0, ip, lsr #11
     e2c:	000005d0 	ldrdeq	r0, [r0], -r0	; <UNPREDICTABLE>
     e30:	000005d0 	ldrdeq	r0, [r0], -r0	; <UNPREDICTABLE>
     e34:	000005d0 	ldrdeq	r0, [r0], -r0	; <UNPREDICTABLE>
     e38:	000005d0 	ldrdeq	r0, [r0], -r0	; <UNPREDICTABLE>
     e3c:	000005e8 	andeq	r0, r0, r8, ror #11
     e40:	000005e8 	andeq	r0, r0, r8, ror #11
     e44:	000005e8 	andeq	r0, r0, r8, ror #11
     e48:	000005e8 	andeq	r0, r0, r8, ror #11
     e4c:	00000608 	andeq	r0, r0, r8, lsl #12
	...
     e58:	00000540 	andeq	r0, r0, r0, asr #10
     e5c:	00000544 	andeq	r0, r0, r4, asr #10
     e60:	0000054c 	andeq	r0, r0, ip, asr #10
     e64:	00000554 	andeq	r0, r0, r4, asr r5
     e68:	00000554 	andeq	r0, r0, r4, asr r5
     e6c:	00000554 	andeq	r0, r0, r4, asr r5
     e70:	00000554 	andeq	r0, r0, r4, asr r5
     e74:	00000554 	andeq	r0, r0, r4, asr r5
     e78:	00000558 	andeq	r0, r0, r8, asr r5
     e7c:	00000558 	andeq	r0, r0, r8, asr r5
     e80:	00000558 	andeq	r0, r0, r8, asr r5
     e84:	00000558 	andeq	r0, r0, r8, asr r5
     e88:	00000558 	andeq	r0, r0, r8, asr r5
     e8c:	00000570 	andeq	r0, r0, r0, ror r5
     e90:	00000570 	andeq	r0, r0, r0, ror r5
     e94:	00000570 	andeq	r0, r0, r0, ror r5
     e98:	00000570 	andeq	r0, r0, r0, ror r5
     e9c:	00000594 	muleq	r0, r4, r5
	...
     ea8:	00000540 	andeq	r0, r0, r0, asr #10
     eac:	00000544 	andeq	r0, r0, r4, asr #10
     eb0:	0000054c 	andeq	r0, r0, ip, asr #10
     eb4:	00000554 	andeq	r0, r0, r4, asr r5
     eb8:	00000554 	andeq	r0, r0, r4, asr r5
     ebc:	00000554 	andeq	r0, r0, r4, asr r5
     ec0:	00000558 	andeq	r0, r0, r8, asr r5
     ec4:	00000558 	andeq	r0, r0, r8, asr r5
     ec8:	00000558 	andeq	r0, r0, r8, asr r5
     ecc:	00000558 	andeq	r0, r0, r8, asr r5
     ed0:	00000558 	andeq	r0, r0, r8, asr r5
     ed4:	00000570 	andeq	r0, r0, r0, ror r5
     ed8:	00000570 	andeq	r0, r0, r0, ror r5
     edc:	00000570 	andeq	r0, r0, r0, ror r5
     ee0:	00000570 	andeq	r0, r0, r0, ror r5
     ee4:	00000594 	muleq	r0, r4, r5
	...
     ef0:	00000540 	andeq	r0, r0, r0, asr #10
     ef4:	00000544 	andeq	r0, r0, r4, asr #10
     ef8:	0000054c 	andeq	r0, r0, ip, asr #10
     efc:	00000554 	andeq	r0, r0, r4, asr r5
     f00:	00000558 	andeq	r0, r0, r8, asr r5
     f04:	00000558 	andeq	r0, r0, r8, asr r5
     f08:	00000558 	andeq	r0, r0, r8, asr r5
     f0c:	00000558 	andeq	r0, r0, r8, asr r5
     f10:	00000558 	andeq	r0, r0, r8, asr r5
     f14:	00000570 	andeq	r0, r0, r0, ror r5
     f18:	00000570 	andeq	r0, r0, r0, ror r5
     f1c:	00000570 	andeq	r0, r0, r0, ror r5
     f20:	00000570 	andeq	r0, r0, r0, ror r5
     f24:	00000588 	andeq	r0, r0, r8, lsl #11
	...
     f30:	00000540 	andeq	r0, r0, r0, asr #10
     f34:	00000544 	andeq	r0, r0, r4, asr #10
     f38:	0000054c 	andeq	r0, r0, ip, asr #10
     f3c:	00000554 	andeq	r0, r0, r4, asr r5
     f40:	00000558 	andeq	r0, r0, r8, asr r5
     f44:	00000558 	andeq	r0, r0, r8, asr r5
     f48:	00000558 	andeq	r0, r0, r8, asr r5
     f4c:	00000570 	andeq	r0, r0, r0, ror r5
	...
     f58:	00000540 	andeq	r0, r0, r0, asr #10
     f5c:	00000544 	andeq	r0, r0, r4, asr #10
     f60:	0000054c 	andeq	r0, r0, ip, asr #10
     f64:	00000554 	andeq	r0, r0, r4, asr r5
     f68:	00000558 	andeq	r0, r0, r8, asr r5
     f6c:	00000570 	andeq	r0, r0, r0, ror r5
	...
     f78:	00000540 	andeq	r0, r0, r0, asr #10
     f7c:	00000544 	andeq	r0, r0, r4, asr #10
     f80:	0000054c 	andeq	r0, r0, ip, asr #10
     f84:	00000554 	andeq	r0, r0, r4, asr r5
     f88:	0000055c 	andeq	r0, r0, ip, asr r5
     f8c:	00000560 	andeq	r0, r0, r0, ror #10
	...
     f98:	00000594 	muleq	r0, r4, r5
     f9c:	00000594 	muleq	r0, r4, r5
     fa0:	00000594 	muleq	r0, r4, r5
     fa4:	00000594 	muleq	r0, r4, r5
     fa8:	00000594 	muleq	r0, r4, r5
     fac:	000005ac 	andeq	r0, r0, ip, lsr #11
     fb0:	000005ac 	andeq	r0, r0, ip, lsr #11
     fb4:	000005ac 	andeq	r0, r0, ip, lsr #11
     fb8:	000005ac 	andeq	r0, r0, ip, lsr #11
     fbc:	000005d0 	ldrdeq	r0, [r0], -r0	; <UNPREDICTABLE>
	...
     fc8:	00000594 	muleq	r0, r4, r5
     fcc:	00000594 	muleq	r0, r4, r5
     fd0:	00000594 	muleq	r0, r4, r5
     fd4:	00000594 	muleq	r0, r4, r5
     fd8:	00000594 	muleq	r0, r4, r5
     fdc:	000005ac 	andeq	r0, r0, ip, lsr #11
     fe0:	000005ac 	andeq	r0, r0, ip, lsr #11
     fe4:	000005ac 	andeq	r0, r0, ip, lsr #11
     fe8:	000005ac 	andeq	r0, r0, ip, lsr #11
     fec:	000005c4 	andeq	r0, r0, r4, asr #11
	...
     ff8:	00000594 	muleq	r0, r4, r5
     ffc:	00000594 	muleq	r0, r4, r5
    1000:	00000594 	muleq	r0, r4, r5
    1004:	000005ac 	andeq	r0, r0, ip, lsr #11
	...
    1010:	000005d0 	ldrdeq	r0, [r0], -r0	; <UNPREDICTABLE>
    1014:	000005d0 	ldrdeq	r0, [r0], -r0	; <UNPREDICTABLE>
    1018:	000005d0 	ldrdeq	r0, [r0], -r0	; <UNPREDICTABLE>
    101c:	000005d0 	ldrdeq	r0, [r0], -r0	; <UNPREDICTABLE>
    1020:	000005d0 	ldrdeq	r0, [r0], -r0	; <UNPREDICTABLE>
    1024:	000005e8 	andeq	r0, r0, r8, ror #11
    1028:	000005e8 	andeq	r0, r0, r8, ror #11
    102c:	000005e8 	andeq	r0, r0, r8, ror #11
    1030:	000005e8 	andeq	r0, r0, r8, ror #11
    1034:	00000608 	andeq	r0, r0, r8, lsl #12
	...
    1040:	000005d0 	ldrdeq	r0, [r0], -r0	; <UNPREDICTABLE>
    1044:	000005d0 	ldrdeq	r0, [r0], -r0	; <UNPREDICTABLE>
    1048:	000005d0 	ldrdeq	r0, [r0], -r0	; <UNPREDICTABLE>
    104c:	000005d0 	ldrdeq	r0, [r0], -r0	; <UNPREDICTABLE>
    1050:	000005d0 	ldrdeq	r0, [r0], -r0	; <UNPREDICTABLE>
    1054:	000005e8 	andeq	r0, r0, r8, ror #11
    1058:	000005e8 	andeq	r0, r0, r8, ror #11
    105c:	000005e8 	andeq	r0, r0, r8, ror #11
    1060:	000005e8 	andeq	r0, r0, r8, ror #11
    1064:	00000600 	andeq	r0, r0, r0, lsl #12
	...
    1070:	000005d0 	ldrdeq	r0, [r0], -r0	; <UNPREDICTABLE>
    1074:	000005d0 	ldrdeq	r0, [r0], -r0	; <UNPREDICTABLE>
    1078:	000005d0 	ldrdeq	r0, [r0], -r0	; <UNPREDICTABLE>
    107c:	000005e8 	andeq	r0, r0, r8, ror #11
	...
    1088:	000000a4 	andeq	r0, r0, r4, lsr #1
    108c:	00000148 	andeq	r0, r0, r8, asr #2
    1090:	00000158 	andeq	r0, r0, r8, asr r1
    1094:	0000015c 	andeq	r0, r0, ip, asr r1
    1098:	00000274 	andeq	r0, r0, r4, ror r2
    109c:	00000278 	andeq	r0, r0, r8, ror r2
    10a0:	0000027c 	andeq	r0, r0, ip, ror r2
    10a4:	00000280 	andeq	r0, r0, r0, lsl #5
    10a8:	00000288 	andeq	r0, r0, r8, lsl #5
    10ac:	0000029c 	muleq	r0, ip, r2
    10b0:	000002c0 	andeq	r0, r0, r0, asr #5
    10b4:	000002cc 	andeq	r0, r0, ip, asr #5
    10b8:	000002f0 	strdeq	r0, [r0], -r0	; <UNPREDICTABLE>
    10bc:	000002f0 	strdeq	r0, [r0], -r0	; <UNPREDICTABLE>
    10c0:	000002f4 	strdeq	r0, [r0], -r4
    10c4:	000002f8 	strdeq	r0, [r0], -r8
	...
    10d0:	00000148 	andeq	r0, r0, r8, asr #2
    10d4:	00000158 	andeq	r0, r0, r8, asr r1
    10d8:	0000015c 	andeq	r0, r0, ip, asr r1
    10dc:	0000018c 	andeq	r0, r0, ip, lsl #3
    10e0:	0000029c 	muleq	r0, ip, r2
    10e4:	000002ac 	andeq	r0, r0, ip, lsr #5
	...
    10f0:	000003c8 	andeq	r0, r0, r8, asr #7
    10f4:	000003d0 	ldrdeq	r0, [r0], -r0	; <UNPREDICTABLE>
    10f8:	00000404 	andeq	r0, r0, r4, lsl #8
    10fc:	000004ac 	andeq	r0, r0, ip, lsr #9
    1100:	000004c0 	andeq	r0, r0, r0, asr #9
    1104:	00000920 	andeq	r0, r0, r0, lsr #18
    1108:	00000928 	andeq	r0, r0, r8, lsr #18
    110c:	000009b4 			; <UNDEFINED> instruction: 0x000009b4
	...
    1118:	000003c8 	andeq	r0, r0, r8, asr #7
    111c:	000003d0 	ldrdeq	r0, [r0], -r0	; <UNPREDICTABLE>
    1120:	00000504 	andeq	r0, r0, r4, lsl #10
    1124:	000005d0 	ldrdeq	r0, [r0], -r0	; <UNPREDICTABLE>
    1128:	00000800 	andeq	r0, r0, r0, lsl #16
    112c:	00000888 	andeq	r0, r0, r8, lsl #17
    1130:	00000930 	andeq	r0, r0, r0, lsr r9
    1134:	000009b4 			; <UNDEFINED> instruction: 0x000009b4
	...
    1140:	00000404 	andeq	r0, r0, r4, lsl #8
    1144:	00000408 	andeq	r0, r0, r8, lsl #8
    1148:	00000414 	andeq	r0, r0, r4, lsl r4
    114c:	00000414 	andeq	r0, r0, r4, lsl r4
    1150:	00000428 	andeq	r0, r0, r8, lsr #8
    1154:	0000042c 	andeq	r0, r0, ip, lsr #8
	...
    1160:	000005fc 	strdeq	r0, [r0], -ip
    1164:	00000700 	andeq	r0, r0, r0, lsl #14
    1168:	000007ec 	andeq	r0, r0, ip, ror #15
    116c:	000007f4 	strdeq	r0, [r0], -r4
    1170:	00000888 	andeq	r0, r0, r8, lsl #17
    1174:	00000894 	muleq	r0, r4, r8
    1178:	000008a8 	andeq	r0, r0, r8, lsr #17
    117c:	000008bc 			; <UNDEFINED> instruction: 0x000008bc
    1180:	00000910 	andeq	r0, r0, r0, lsl r9
    1184:	00000920 	andeq	r0, r0, r0, lsr #18
	...
    1190:	00000600 	andeq	r0, r0, r0, lsl #12
    1194:	00000604 	andeq	r0, r0, r4, lsl #12
    1198:	00000608 	andeq	r0, r0, r8, lsl #12
    119c:	000006b4 			; <UNDEFINED> instruction: 0x000006b4
    11a0:	000006cc 	andeq	r0, r0, ip, asr #13
    11a4:	000006d0 	ldrdeq	r0, [r0], -r0	; <UNPREDICTABLE>
    11a8:	000008a8 	andeq	r0, r0, r8, lsr #17
    11ac:	000008b8 			; <UNDEFINED> instruction: 0x000008b8
    11b0:	00000910 	andeq	r0, r0, r0, lsl r9
    11b4:	00000920 	andeq	r0, r0, r0, lsr #18
	...
    11c0:	000006b4 			; <UNDEFINED> instruction: 0x000006b4
    11c4:	000006cc 	andeq	r0, r0, ip, asr #13
    11c8:	000006d0 	ldrdeq	r0, [r0], -r0	; <UNPREDICTABLE>
    11cc:	00000700 	andeq	r0, r0, r0, lsl #14
    11d0:	000007ec 	andeq	r0, r0, ip, ror #15
    11d4:	000007f4 	strdeq	r0, [r0], -r4
    11d8:	00000888 	andeq	r0, r0, r8, lsl #17
    11dc:	00000894 	muleq	r0, r4, r8
    11e0:	000008b8 			; <UNDEFINED> instruction: 0x000008b8
    11e4:	000008bc 			; <UNDEFINED> instruction: 0x000008bc
	...
    11f0:	00000700 	andeq	r0, r0, r0, lsl #14
    11f4:	00000708 	andeq	r0, r0, r8, lsl #14
    11f8:	0000070c 	andeq	r0, r0, ip, lsl #14
    11fc:	000007ec 	andeq	r0, r0, ip, ror #15
    1200:	00000894 	muleq	r0, r4, r8
    1204:	000008a8 	andeq	r0, r0, r8, lsr #17
	...
    1210:	00000728 	andeq	r0, r0, r8, lsr #14
    1214:	000007a4 	andeq	r0, r0, r4, lsr #15
    1218:	000007ac 	andeq	r0, r0, ip, lsr #15
    121c:	000007b0 			; <UNDEFINED> instruction: 0x000007b0
    1220:	00000894 	muleq	r0, r4, r8
    1224:	00000898 	muleq	r0, r8, r8
    1228:	0000089c 	muleq	r0, ip, r8
    122c:	000008a0 	andeq	r0, r0, r0, lsr #17
	...
    1238:	000007a4 	andeq	r0, r0, r4, lsr #15
    123c:	000007ac 	andeq	r0, r0, ip, lsr #15
    1240:	000007b0 			; <UNDEFINED> instruction: 0x000007b0
    1244:	000007ec 	andeq	r0, r0, ip, ror #15
    1248:	00000898 	muleq	r0, r8, r8
    124c:	0000089c 	muleq	r0, ip, r8
    1250:	000008a0 	andeq	r0, r0, r0, lsr #17
    1254:	000008a8 	andeq	r0, r0, r8, lsr #17
	...
    1260:	0000942c 	andeq	r9, r0, ip, lsr #8
    1264:	0000944c 	andeq	r9, r0, ip, asr #8
	...
    1270:	000095a0 	andeq	r9, r0, r0, lsr #11
    1274:	000095a0 	andeq	r9, r0, r0, lsr #11
    1278:	000095a4 	andeq	r9, r0, r4, lsr #11
    127c:	000095ac 	andeq	r9, r0, ip, lsr #11
	...
    1288:	00009574 	andeq	r9, r0, r4, ror r5
    128c:	00009600 	andeq	r9, r0, r0, lsl #12
	...
    1298:	00000030 	andeq	r0, r0, r0, lsr r0
    129c:	00000030 	andeq	r0, r0, r0, lsr r0
    12a0:	00000038 	andeq	r0, r0, r8, lsr r0
    12a4:	0000004c 	andeq	r0, r0, ip, asr #32
	...
    12b0:	0000004c 	andeq	r0, r0, ip, asr #32
    12b4:	00000050 	andeq	r0, r0, r0, asr r0
    12b8:	00000050 	andeq	r0, r0, r0, asr r0
    12bc:	00000078 	andeq	r0, r0, r8, ror r0
	...
    12c8:	0000004c 	andeq	r0, r0, ip, asr #32
    12cc:	00000050 	andeq	r0, r0, r0, asr r0
    12d0:	00000050 	andeq	r0, r0, r0, asr r0
    12d4:	00000060 	andeq	r0, r0, r0, rrx
    12d8:	00000064 	andeq	r0, r0, r4, rrx
    12dc:	00000068 	andeq	r0, r0, r8, rrx
	...
    12e8:	0000004c 	andeq	r0, r0, ip, asr #32
    12ec:	00000050 	andeq	r0, r0, r0, asr r0
    12f0:	00000054 	andeq	r0, r0, r4, asr r0
    12f4:	00000060 	andeq	r0, r0, r0, rrx
	...
    1300:	0000009c 	muleq	r0, ip, r0
    1304:	000000a0 	andeq	r0, r0, r0, lsr #1
    1308:	000000a0 	andeq	r0, r0, r0, lsr #1
    130c:	000000c8 	andeq	r0, r0, r8, asr #1
	...
    1318:	0000009c 	muleq	r0, ip, r0
    131c:	000000a0 	andeq	r0, r0, r0, lsr #1
    1320:	000000a0 	andeq	r0, r0, r0, lsr #1
    1324:	000000b0 	strheq	r0, [r0], -r0	; <UNPREDICTABLE>
    1328:	000000b4 	strheq	r0, [r0], -r4
    132c:	000000b8 	strheq	r0, [r0], -r8
	...
    1338:	0000009c 	muleq	r0, ip, r0
    133c:	000000a0 	andeq	r0, r0, r0, lsr #1
    1340:	000000a4 	andeq	r0, r0, r4, lsr #1
    1344:	000000b0 	strheq	r0, [r0], -r0	; <UNPREDICTABLE>
	...
    1350:	000000c8 	andeq	r0, r0, r8, asr #1
    1354:	000000c8 	andeq	r0, r0, r8, asr #1
    1358:	000000cc 	andeq	r0, r0, ip, asr #1
    135c:	0000011c 	andeq	r0, r0, ip, lsl r1
	...
    1368:	000000f0 	strdeq	r0, [r0], -r0	; <UNPREDICTABLE>
    136c:	000000f4 	strdeq	r0, [r0], -r4
    1370:	000000f4 	strdeq	r0, [r0], -r4
    1374:	0000011c 	andeq	r0, r0, ip, lsl r1
	...
    1380:	000000f0 	strdeq	r0, [r0], -r0	; <UNPREDICTABLE>
    1384:	000000f4 	strdeq	r0, [r0], -r4
    1388:	000000f4 	strdeq	r0, [r0], -r4
    138c:	00000104 	andeq	r0, r0, r4, lsl #2
    1390:	00000108 	andeq	r0, r0, r8, lsl #2
    1394:	0000010c 	andeq	r0, r0, ip, lsl #2
	...
    13a0:	000000f0 	strdeq	r0, [r0], -r0	; <UNPREDICTABLE>
    13a4:	000000f4 	strdeq	r0, [r0], -r4
    13a8:	000000f8 	strdeq	r0, [r0], -r8
    13ac:	00000104 	andeq	r0, r0, r4, lsl #2
	...
    13b8:	00000134 	andeq	r0, r0, r4, lsr r1
    13bc:	00000134 	andeq	r0, r0, r4, lsr r1
    13c0:	00000134 	andeq	r0, r0, r4, lsr r1
    13c4:	0000013c 	andeq	r0, r0, ip, lsr r1
	...
    13d0:	0000024c 	andeq	r0, r0, ip, asr #4
    13d4:	00000264 	andeq	r0, r0, r4, ror #4
    13d8:	000002c8 	andeq	r0, r0, r8, asr #5
    13dc:	000002e8 	andeq	r0, r0, r8, ror #5
	...

Disassembly of section .debug_line:

00000000 <.debug_line>:
       0:	0000015e 	andeq	r0, r0, lr, asr r1
       4:	00790003 	rsbseq	r0, r9, r3
       8:	01020000 	mrseq	r0, (UNDEF: 2)
       c:	000d0efb 	strdeq	r0, [sp], -fp
      10:	01010101 	tsteq	r1, r1, lsl #2
      14:	01000000 	mrseq	r0, (UNDEF: 0)
      18:	2f010000 	svccs	0x00010000
      1c:	72657355 	rsbvc	r7, r5, #1409286145	; 0x54000001
      20:	696d2f73 	stmdbvs	sp!, {r0, r1, r4, r5, r6, r8, r9, sl, fp, sp}^
      24:	2f73656c 	svccs	0x0073656c
      28:	72756f53 	rsbsvc	r6, r5, #332	; 0x14c
      2c:	632f6563 			; <UNDEFINED> instruction: 0x632f6563
      30:	30343273 	eorscc	r3, r4, r3, ror r2
      34:	6c2f786c 	stcvs	8, cr7, [pc], #-432	; fffffe8c <__bss_end__+0xffff590c>
      38:	69706269 	ldmdbvs	r0!, {r0, r3, r5, r6, r9, sp, lr}^
      3c:	636e692f 	cmnvs	lr, #770048	; 0xbc000
      40:	6564756c 	strbvs	r7, [r4, #-1388]!	; 0xfffffa94
      44:	2d320000 	ldccs	0, cr0, [r2, #-0]
      48:	706f656e 	rsbvc	r6, pc, lr, ror #10
      4c:	632e7869 			; <UNDEFINED> instruction: 0x632e7869
      50:	00000000 	andeq	r0, r0, r0
      54:	2e697072 	mcrcs	0, 3, r7, cr9, cr2, {3}
      58:	00010068 	andeq	r0, r1, r8, rrx
      5c:	32535700 	subscc	r5, r3, #0, 14
      60:	42323138 	eorsmi	r3, r2, #14
      64:	0000682e 	andeq	r6, r0, lr, lsr #16
      68:	656e0000 	strbvs	r0, [lr, #-0]!
      6c:	7869706f 	stmdavc	r9!, {r0, r1, r2, r3, r5, r6, ip, sp, lr}^
      70:	682e6c65 	stmdavs	lr!, {r0, r2, r5, r6, sl, fp, sp, lr}
      74:	00000000 	andeq	r0, r0, r0
      78:	6f697067 	svcvs	0x00697067
      7c:	0100682e 	tsteq	r0, lr, lsr #16
      80:	05000000 	streq	r0, [r0, #-0]
      84:	02050023 	andeq	r0, r5, #35, 0	; 0x23
      88:	00008040 	andeq	r8, r0, r0, asr #32
      8c:	05010c03 	streq	r0, [r1, #-3075]	; 0xfffff3fd
      90:	23051305 	movwcs	r1, #21253	; 0x5305
      94:	05051106 	streq	r1, [r5, #-262]	; 0xfffffefa
      98:	2d23052f 	cfstr32cs	mvfx0, [r3, #-188]!	; 0xffffff44
      9c:	66670505 	strbtvs	r0, [r7], -r5, lsl #10
      a0:	d7bb4b06 	ldrle	r4, [fp, r6, lsl #22]!
      a4:	2f060105 	svccs	0x00060105
      a8:	2e490505 	cdpcs	5, 4, cr0, cr9, cr5, {0}
      ac:	00061405 	andeq	r1, r6, r5, lsl #8
      b0:	80b00205 	adcshi	r0, r0, r5, lsl #4
      b4:	05150000 	ldreq	r0, [r5, #-0]
      b8:	14051305 	strne	r1, [r5], #-773	; 0xfffffcfb
      bc:	05051106 	streq	r1, [r5, #-262]	; 0xfffffefa
      c0:	4f2f064b 	svcmi	0x002f064b
      c4:	060f0513 			; <UNDEFINED> instruction: 0x060f0513
      c8:	690d0501 	stmdbvs	sp, {r0, r8, sl}
      cc:	052b0f05 	streq	r0, [fp, #-3845]!	; 0xfffff0fb
      d0:	05310605 	ldreq	r0, [r1, #-1541]!	; 0xfffff9fb
      d4:	14050109 	strne	r0, [r5], #-265	; 0xfffffef7
      d8:	06050501 	streq	r0, [r5], -r1, lsl #10
      dc:	05016f03 	streq	r6, [r1, #-3843]	; 0xfffff0fd
      e0:	2e0e030f 	cdpcs	3, 0, cr0, cr14, cr15, {0}
      e4:	72030505 	andvc	r0, r3, #20971520	; 0x1400000
      e8:	0309052e 	movweq	r0, #38190	; 0x952e
      ec:	2e062e12 	mcrcs	14, 0, r2, cr6, cr2, {0}
      f0:	010d0567 	tsteq	sp, r7, ror #10
      f4:	05011805 	streq	r1, [r1, #-2053]	; 0xfffff7fb
      f8:	05010611 	streq	r0, [r1, #-1553]	; 0xfffff9ef
      fc:	052f060d 	streq	r0, [pc, #-1549]!	; fffffaf7 <__bss_end__+0xffff5577>
     100:	016b0306 	cmneq	fp, r6, lsl #6
     104:	bb130505 	bllt	4c1520 <__bss_end__+0x4b6fa0>
     108:	4a06bbbb 	bmi	1aeffc <__bss_end__+0x1a4a7c>
     10c:	03060d05 	movweq	r0, #27909	; 0x6d05
     110:	26050112 			; <UNDEFINED> instruction: 0x26050112
     114:	0d051006 	stceq	0, cr1, [r5, #-24]	; 0xffffffe8
     118:	06250530 			; <UNDEFINED> instruction: 0x06250530
     11c:	01180548 	tsteq	r8, r8, asr #10
     120:	01060905 	tsteq	r6, r5, lsl #18
     124:	02040200 	andeq	r0, r4, #0, 4
     128:	1d054e06 	stcne	14, cr4, [r5, #-24]	; 0xffffffe8
     12c:	02040200 	andeq	r0, r4, #0, 4
     130:	4a7a0306 	bmi	1e80d50 <__bss_end__+0x1e767d0>
     134:	02000905 	andeq	r0, r0, #81920	; 0x14000
     138:	05340204 	ldreq	r0, [r4, #-516]!	; 0xfffffdfc
     13c:	0402001c 	streq	r0, [r2], #-28	; 0xffffffe4
     140:	7a030602 	bvc	c1950 <__bss_end__+0xb73d0>
     144:	0014052e 	andseq	r0, r4, lr, lsr #10
     148:	01020402 	tsteq	r2, r2, lsl #8
     14c:	02000505 	andeq	r0, r0, #20971520	; 0x1400000
     150:	01060204 	tsteq	r6, r4, lsl #4
     154:	01056e06 	tsteq	r5, r6, lsl #28
     158:	05052f06 	streq	r2, [r5, #-3846]	; 0xfffff0fa
     15c:	00060249 	andeq	r0, r6, r9, asr #4
     160:	0ff10101 	svceq	0x00f10101
     164:	00030000 	andeq	r0, r3, r0
     168:	000000e2 	andeq	r0, r0, r2, ror #1
     16c:	0efb0102 	cdpeq	1, 15, cr0, cr11, cr2, {0}
     170:	0101000d 	tsteq	r1, sp
     174:	00000101 	andeq	r0, r0, r1, lsl #2
     178:	00000100 	andeq	r0, r0, r0, lsl #2
     17c:	706f2f01 	rsbvc	r2, pc, r1, lsl #30
     180:	6f682f74 	svcvs	0x00682f74
     184:	7262656d 	rsbvc	r6, r2, #457179136	; 0x1b400000
     188:	432f7765 			; <UNDEFINED> instruction: 0x432f7765
     18c:	616c6c65 	cmnvs	ip, r5, ror #24
     190:	72612f72 	rsbvc	r2, r1, #456	; 0x1c8
     194:	6f6e2d6d 	svcvs	0x006e2d6d
     198:	652d656e 	strvs	r6, [sp, #-1390]!	; 0xfffffa92
     19c:	2d696261 	sfmcs	f6, 2, [r9, #-388]!	; 0xfffffe7c
     1a0:	2d392f39 	ldccs	15, cr2, [r9, #-228]!	; 0xffffff1c
     1a4:	39313032 	ldmdbcc	r1!, {r1, r4, r5, ip, sp}
     1a8:	632d3471 			; <UNDEFINED> instruction: 0x632d3471
     1ac:	37303173 			; <UNDEFINED> instruction: 0x37303173
     1b0:	696c2f65 	stmdbvs	ip!, {r0, r2, r5, r6, r8, r9, sl, fp, sp}^
     1b4:	63672f62 	cmnvs	r7, #392	; 0x188
     1b8:	72612f63 	rsbvc	r2, r1, #396	; 0x18c
     1bc:	6f6e2d6d 	svcvs	0x006e2d6d
     1c0:	652d656e 	strvs	r6, [sp, #-1390]!	; 0xfffffa92
     1c4:	2f696261 	svccs	0x00696261
     1c8:	2e322e39 	mrccs	14, 1, r2, cr2, cr9, {1}
     1cc:	6e692f31 	mcrvs	15, 3, r2, cr9, cr1, {1}
     1d0:	64756c63 	ldrbtvs	r6, [r5], #-3171	; 0xfffff39d
     1d4:	552f0065 	strpl	r0, [pc, #-101]!	; 177 <__code_start__-0x7e89>
     1d8:	73726573 	cmnvc	r2, #482344960	; 0x1cc00000
     1dc:	6c696d2f 	stclvs	13, cr6, [r9], #-188	; 0xffffff44
     1e0:	532f7365 			; <UNDEFINED> instruction: 0x532f7365
     1e4:	6372756f 	cmnvs	r2, #465567744	; 0x1bc00000
     1e8:	73632f65 	cmnvc	r3, #404	; 0x194
     1ec:	6c303432 	cfldrsvs	mvf3, [r0], #-200	; 0xffffff38
     1f0:	696c2f78 	stmdbvs	ip!, {r3, r4, r5, r6, r8, r9, sl, fp, sp}^
     1f4:	2f697062 	svccs	0x00697062
     1f8:	6c636e69 	stclvs	14, cr6, [r3], #-420	; 0xfffffe5c
     1fc:	00656475 	rsbeq	r6, r5, r5, ror r4
     200:	6f656e00 	svcvs	0x00656e00
     204:	65786970 	ldrbvs	r6, [r8, #-2416]!	; 0xfffff690
     208:	00632e6c 	rsbeq	r2, r3, ip, ror #28
     20c:	57000000 	strpl	r0, [r0, -r0]
     210:	31383253 	teqcc	r8, r3, asr r2
     214:	682e4232 	stmdavs	lr!, {r1, r4, r5, r9, lr}
     218:	00000000 	andeq	r0, r0, r0
     21c:	69647473 	stmdbvs	r4!, {r0, r1, r4, r5, r6, sl, ip, sp, lr}^
     220:	672d746e 	strvs	r7, [sp, -lr, ror #8]!
     224:	682e6363 	stmdavs	lr!, {r0, r1, r5, r6, r8, r9, sp, lr}
     228:	00000100 	andeq	r0, r0, r0, lsl #2
     22c:	2e697072 	mcrcs	0, 3, r7, cr9, cr2, {3}
     230:	00020068 	andeq	r0, r2, r8, rrx
     234:	6f656e00 	svcvs	0x00656e00
     238:	65786970 	ldrbvs	r6, [r8, #-2416]!	; 0xfffff690
     23c:	00682e6c 	rsbeq	r2, r8, ip, ror #28
     240:	67000000 	strvs	r0, [r0, -r0]
     244:	2e6f6970 			; <UNDEFINED> instruction: 0x2e6f6970
     248:	00020068 	andeq	r0, r2, r8, rrx
     24c:	1c050000 	stcne	0, cr0, [r5], {-0}
     250:	90020500 	andls	r0, r2, r0, lsl #10
     254:	03000081 	movweq	r0, #129	; 0x81
     258:	0505011d 	streq	r0, [r5, #-285]	; 0xfffffee3
     25c:	05020414 	streq	r0, [r2, #-1044]	; 0xfffffbec
     260:	01a50314 			; <UNDEFINED> instruction: 0x01a50314
     264:	13050501 	movwne	r0, #21761	; 0x5501
     268:	76031405 	strvc	r1, [r3], -r5, lsl #8
     26c:	13050501 	movwne	r0, #21761	; 0x5501
     270:	67031405 	strvs	r1, [r3, -r5, lsl #8]
     274:	13050501 	movwne	r0, #21761	; 0x5501
     278:	01011605 	tsteq	r1, r5, lsl #12
     27c:	1c050104 	stfnes	f0, [r5], {4}
     280:	7ef90306 	cdpvc	3, 15, cr0, cr9, cr6, {0}
     284:	05020401 	streq	r0, [r2, #-1025]	; 0xfffffbff
     288:	01870316 	orreq	r0, r7, r6, lsl r3
     28c:	062e062e 	strteq	r0, [lr], -lr, lsr #12
     290:	06050501 	streq	r0, [r5], -r1, lsl #10
     294:	03140513 	tsteq	r4, #79691776	; 0x4c00000
     298:	05050156 	streq	r0, [r5, #-342]	; 0xfffffeaa
     29c:	06140513 			; <UNDEFINED> instruction: 0x06140513
     2a0:	05010401 	streq	r0, [r1, #-1025]	; 0xfffffbff
     2a4:	7fa30305 	svcvc	0x00a30305
     2a8:	0502042e 	streq	r0, [r2, #-1070]	; 0xfffffbd2
     2ac:	00dd0310 	sbcseq	r0, sp, r0, lsl r3
     2b0:	2e14052e 	cfmul64cs	mvdx0, mvdx4, mvdx14
     2b4:	180a052e 	stmdane	sl, {r1, r2, r3, r5, r8, sl}
     2b8:	7a031005 	bvc	c42d4 <__bss_end__+0xb9d54>
     2bc:	09052e2e 	stmdbeq	r5, {r1, r2, r3, r5, r9, sl, fp, sp}
     2c0:	0a051906 	beq	1466e0 <__bss_end__+0x13c160>
     2c4:	01110511 	tsteq	r1, r1, lsl r5
     2c8:	01062e01 	tsteq	r6, r1, lsl #28
     2cc:	05012305 	streq	r2, [r1, #-773]	; 0xfffffcfb
     2d0:	044a2e0a 	strbeq	r2, [sl], #-3594	; 0xfffff1f6
     2d4:	06140501 	ldreq	r0, [r4], -r1, lsl #10
     2d8:	017f9e03 	cmneq	pc, r3, lsl #28
     2dc:	01061905 	tsteq	r6, r5, lsl #18
     2e0:	052e0505 	streq	r0, [lr, #-1285]!	; 0xfffffafb
     2e4:	02044c18 	andeq	r4, r4, #24, 24	; 0x1800
     2e8:	d7031005 	strle	r1, [r3, -r5]
     2ec:	044a4a00 	strbeq	r4, [sl], #-2560	; 0xfffff600
     2f0:	00090501 	andeq	r0, r9, r1, lsl #10
     2f4:	06030402 	streq	r0, [r3], -r2, lsl #8
     2f8:	017fa803 	cmneq	pc, r3, lsl #16
     2fc:	0d050204 	sfmeq	f0, 4, [r5, #-16]
     300:	03040200 	movweq	r0, #16896	; 0x4200
     304:	01b80306 			; <UNDEFINED> instruction: 0x01b80306
     308:	05010401 	streq	r0, [r1, #-1025]	; 0xfffffbff
     30c:	04020009 	streq	r0, [r2], #-9
     310:	7ec80303 	cdpvc	3, 12, cr0, cr8, cr3, {0}
     314:	0502042e 	streq	r0, [r2, #-1070]	; 0xfffffbd2
     318:	04020014 	streq	r0, [r2], #-20	; 0xffffffec
     31c:	be030603 	cfmadd32lt	mvax0, mvfx0, mvfx3, mvfx3
     320:	05054a01 	streq	r4, [r5, #-2561]	; 0xfffff5ff
     324:	03040200 	movweq	r0, #16896	; 0x4200
     328:	00140517 	andseq	r0, r4, r7, lsl r5
     32c:	03030402 	movweq	r0, #13314	; 0x3402
     330:	05050174 	streq	r0, [r5, #-372]	; 0xfffffe8c
     334:	03040200 	movweq	r0, #16896	; 0x4200
     338:	00090513 	andeq	r0, r9, r3, lsl r5
     33c:	01030402 	tsteq	r3, r2, lsl #8
     340:	02001405 	andeq	r1, r0, #83886080	; 0x5000000
     344:	05010304 	streq	r0, [r1, #-772]	; 0xfffffcfc
     348:	14052f09 	strne	r2, [r5], #-3849	; 0xfffff0f7
     34c:	05016f03 	streq	r6, [r1, #-3843]	; 0xfffff0fd
     350:	1d051305 	stcne	3, cr1, [r5, #-20]	; 0xffffffec
     354:	01100306 	tsteq	r0, r6, lsl #6
     358:	70030805 	andvc	r0, r3, r5, lsl #16
     35c:	0609052e 	streq	r0, [r9], -lr, lsr #10
     360:	0314054b 	tsteq	r4, #314572800	; 0x12c00000
     364:	0505015f 	streq	r0, [r5, #-351]	; 0xfffffea1
     368:	03140513 	tsteq	r4, #79691776	; 0x4c00000
     36c:	05050170 	streq	r0, [r5, #-368]	; 0xfffffe90
     370:	01160513 	tsteq	r6, r3, lsl r5
     374:	01062e01 	tsteq	r6, r1, lsl #28
     378:	13060505 	movwne	r0, #25861	; 0x6505
     37c:	5b031405 	blpl	c5398 <__bss_end__+0xbae18>
     380:	13050501 	movwne	r0, #21761	; 0x5501
     384:	01061005 	tsteq	r6, r5
     388:	0609052e 	streq	r0, [r9], -lr, lsr #10
     38c:	05010a03 	streq	r0, [r1, #-2563]	; 0xfffff5fd
     390:	1105110a 	tstne	r5, sl, lsl #2
     394:	062e0101 	strteq	r0, [lr], -r1, lsl #2
     398:	01230501 			; <UNDEFINED> instruction: 0x01230501
     39c:	4a2e0a05 	bmi	b82bb8 <__bss_end__+0xb78638>
     3a0:	03060905 	movweq	r0, #26885	; 0x6905
     3a4:	050100ca 	streq	r0, [r1, #-202]	; 0xffffff36
     3a8:	01670314 	cmneq	r7, r4, lsl r3
     3ac:	05130505 	ldreq	r0, [r3, #-1285]	; 0xfffffafb
     3b0:	016f0314 	cmneq	pc, r4, lsl r3	; <UNPREDICTABLE>
     3b4:	05130505 	ldreq	r0, [r3, #-1285]	; 0xfffffafb
     3b8:	2e010116 	mcrcs	1, 0, r0, cr1, cr6, {0}
     3bc:	05050106 	streq	r0, [r5, #-262]	; 0xfffffefa
     3c0:	14051306 	strne	r1, [r5], #-774	; 0xfffffcfa
     3c4:	05015603 	streq	r5, [r1, #-1539]	; 0xfffff9fd
     3c8:	10051305 	andne	r1, r5, r5, lsl #6
     3cc:	052e0106 	streq	r0, [lr, #-262]!	; 0xfffffefa
     3d0:	05190609 	ldreq	r0, [r9, #-1545]	; 0xfffff9f7
     3d4:	1105110a 	tstne	r5, sl, lsl #2
     3d8:	062e0101 	strteq	r0, [lr], -r1, lsl #2
     3dc:	01230501 			; <UNDEFINED> instruction: 0x01230501
     3e0:	4a2e0a05 	bmi	b82bfc <__bss_end__+0xb7867c>
     3e4:	03061b05 	movweq	r1, #27397	; 0x6b05
     3e8:	050100d7 	streq	r0, [r1, #-215]	; 0xffffff29
     3ec:	0501061c 	streq	r0, [r1, #-1564]	; 0xfffff9e4
     3f0:	052e0614 	streq	r0, [lr, #-1556]!	; 0xfffff9ec
     3f4:	4a010605 	bmi	41c10 <__bss_end__+0x37690>
     3f8:	05010d05 	streq	r0, [r1, #-3333]	; 0xfffff2fb
     3fc:	052f0609 	streq	r0, [pc, #-1545]!	; fffffdfb <__bss_end__+0xffff587b>
     400:	016f0314 	cmneq	pc, r4, lsl r3	; <UNPREDICTABLE>
     404:	05130505 	ldreq	r0, [r3, #-1285]	; 0xfffffafb
     408:	1003061d 	andne	r0, r3, sp, lsl r6
     40c:	03080501 	movweq	r0, #34049	; 0x8501
     410:	09052e70 	stmdbeq	r5, {r4, r5, r6, r9, sl, fp, sp}
     414:	14054b06 	strne	r4, [r5], #-2822	; 0xfffff4fa
     418:	05015f03 	streq	r5, [r1, #-3843]	; 0xfffff0fd
     41c:	14051305 	strne	r1, [r5], #-773	; 0xfffffcfb
     420:	05017003 	streq	r7, [r1, #-3]
     424:	16051305 	strne	r1, [r5], -r5, lsl #6
     428:	062e0101 	strteq	r0, [lr], -r1, lsl #2
     42c:	06050501 	streq	r0, [r5], -r1, lsl #10
     430:	03140513 	tsteq	r4, #79691776	; 0x4c00000
     434:	0505015b 	streq	r0, [r5, #-347]	; 0xfffffea5
     438:	06100513 			; <UNDEFINED> instruction: 0x06100513
     43c:	09052e01 	stmdbeq	r5, {r0, r9, sl, fp, sp}
     440:	010a0306 	tsteq	sl, r6, lsl #6
     444:	05110a05 	ldreq	r0, [r1, #-2565]	; 0xfffff5fb
     448:	2e010111 	mcrcs	1, 0, r0, cr1, cr1, {0}
     44c:	23050106 	movwcs	r0, #20742	; 0x5106
     450:	2e0a0501 	cfsh32cs	mvfx0, mvfx10, #1
     454:	0609054a 	streq	r0, [r9], -sl, asr #10
     458:	0100ca03 	tsteq	r0, r3, lsl #20
     45c:	67031405 	strvs	r1, [r3, -r5, lsl #8]
     460:	13050501 	movwne	r0, #21761	; 0x5501
     464:	6f031405 	svcvs	0x00031405
     468:	13050501 	movwne	r0, #21761	; 0x5501
     46c:	01011605 	tsteq	r1, r5, lsl #12
     470:	0501062e 	streq	r0, [r1, #-1582]	; 0xfffff9d2
     474:	05130605 	ldreq	r0, [r3, #-1541]	; 0xfffff9fb
     478:	01560314 	cmpeq	r6, r4, lsl r3
     47c:	05130505 	ldreq	r0, [r3, #-1285]	; 0xfffffafb
     480:	2e010610 	mcrcs	6, 0, r0, cr1, cr0, {0}
     484:	19060905 	stmdbne	r6, {r0, r2, r8, fp}
     488:	05110a05 	ldreq	r0, [r1, #-2565]	; 0xfffff5fb
     48c:	2e010111 	mcrcs	1, 0, r0, cr1, cr1, {0}
     490:	23050106 	movwcs	r0, #20742	; 0x5106
     494:	2e0a0501 	cfsh32cs	mvfx0, mvfx10, #1
     498:	061b054a 	ldreq	r0, [fp], -sl, asr #10
     49c:	0100d703 	tsteq	r0, r3, lsl #14
     4a0:	01061c05 	tsteq	r6, r5, lsl #24
     4a4:	2e061405 	cdpcs	4, 0, cr1, cr6, cr5, {0}
     4a8:	01060505 	tsteq	r6, r5, lsl #10
     4ac:	010d054a 	tsteq	sp, sl, asr #10
     4b0:	2f060905 	svccs	0x00060905
     4b4:	6f031405 	svcvs	0x00031405
     4b8:	13050501 	movwne	r0, #21761	; 0x5501
     4bc:	03061d05 	movweq	r1, #27909	; 0x6d05
     4c0:	08050110 	stmdaeq	r5, {r4, r8}
     4c4:	052e7003 	streq	r7, [lr, #-3]!
     4c8:	054b0609 	strbeq	r0, [fp, #-1545]	; 0xfffff9f7
     4cc:	015f0314 	cmpeq	pc, r4, lsl r3	; <UNPREDICTABLE>
     4d0:	05130505 	ldreq	r0, [r3, #-1285]	; 0xfffffafb
     4d4:	01700314 	cmneq	r0, r4, lsl r3
     4d8:	05130505 	ldreq	r0, [r3, #-1285]	; 0xfffffafb
     4dc:	2e010116 	mcrcs	1, 0, r0, cr1, cr6, {0}
     4e0:	05050106 	streq	r0, [r5, #-262]	; 0xfffffefa
     4e4:	14051306 	strne	r1, [r5], #-774	; 0xfffffcfa
     4e8:	05015b03 	streq	r5, [r1, #-2819]	; 0xfffff4fd
     4ec:	10051305 	andne	r1, r5, r5, lsl #6
     4f0:	052e0106 	streq	r0, [lr, #-262]!	; 0xfffffefa
     4f4:	0a030609 	beq	c1d20 <__bss_end__+0xb77a0>
     4f8:	110a0501 	tstne	sl, r1, lsl #10
     4fc:	01011105 	tsteq	r1, r5, lsl #2
     500:	0501062e 	streq	r0, [r1, #-1582]	; 0xfffff9d2
     504:	0a050123 	beq	140998 <__bss_end__+0x136418>
     508:	09054a2e 	stmdbeq	r5, {r1, r2, r3, r5, r9, fp, lr}
     50c:	00ca0306 	sbceq	r0, sl, r6, lsl #6
     510:	03140501 	tsteq	r4, #4194304	; 0x400000
     514:	05050167 	streq	r0, [r5, #-359]	; 0xfffffe99
     518:	03140513 	tsteq	r4, #79691776	; 0x4c00000
     51c:	0505016f 	streq	r0, [r5, #-367]	; 0xfffffe91
     520:	01160513 	tsteq	r6, r3, lsl r5
     524:	01062e01 	tsteq	r6, r1, lsl #28
     528:	13060505 	movwne	r0, #25861	; 0x6505
     52c:	56031405 	strpl	r1, [r3], -r5, lsl #8
     530:	13050501 	movwne	r0, #21761	; 0x5501
     534:	01061005 	tsteq	r6, r5
     538:	0609052e 	streq	r0, [r9], -lr, lsr #10
     53c:	110a0519 	tstne	sl, r9, lsl r5
     540:	01011105 	tsteq	r1, r5, lsl #2
     544:	0501062e 	streq	r0, [r1, #-1582]	; 0xfffff9d2
     548:	0a050123 	beq	1409dc <__bss_end__+0x13645c>
     54c:	1b054a2e 	blne	152e0c <__bss_end__+0x14888c>
     550:	00d70306 	sbcseq	r0, r7, r6, lsl #6
     554:	061c0501 	ldreq	r0, [ip], -r1, lsl #10
     558:	06140501 	ldreq	r0, [r4], -r1, lsl #10
     55c:	0605052e 	streq	r0, [r5], -lr, lsr #10
     560:	01044a01 	tsteq	r4, r1, lsl #20
     564:	02000905 	andeq	r0, r0, #81920	; 0x14000
     568:	03060304 	movweq	r0, #25348	; 0x6304
     56c:	05017ec9 	streq	r7, [r1, #-3785]	; 0xfffff137
     570:	04020018 	streq	r0, [r2], #-24	; 0xffffffe8
     574:	05010603 	streq	r0, [r1, #-1539]	; 0xfffff9fd
     578:	04020009 	streq	r0, [r2], #-9
     57c:	052f0603 	streq	r0, [pc, #-1539]!	; ffffff81 <__bss_end__+0xffff5a01>
     580:	04020018 	streq	r0, [r2], #-24	; 0xffffffe8
     584:	05010603 	streq	r0, [r1, #-1539]	; 0xfffff9fd
     588:	04020009 	streq	r0, [r2], #-9
     58c:	052f0603 	streq	r0, [pc, #-1539]!	; ffffff91 <__bss_end__+0xffff5a11>
     590:	04020018 	streq	r0, [r2], #-24	; 0xffffffe8
     594:	05010603 	streq	r0, [r1, #-1539]	; 0xfffff9fd
     598:	04020023 	streq	r0, [r2], #-35	; 0xffffffdd
     59c:	052a0603 	streq	r0, [sl, #-1539]!	; 0xfffff9fd
     5a0:	04020014 	streq	r0, [r2], #-20	; 0xffffffec
     5a4:	05050103 	streq	r0, [r5, #-259]	; 0xfffffefd
     5a8:	03040200 	movweq	r0, #16896	; 0x4200
     5ac:	02042e06 	andeq	r2, r4, #96	; 0x60
     5b0:	03060905 	movweq	r0, #26885	; 0x6905
     5b4:	056601ae 	strbeq	r0, [r6, #-430]!	; 0xfffffe52
     5b8:	01610314 	cmneq	r1, r4, lsl r3
     5bc:	05130505 	ldreq	r0, [r3, #-1285]	; 0xfffffafb
     5c0:	016b0314 	cmneq	fp, r4, lsl r3
     5c4:	05130505 	ldreq	r0, [r3, #-1285]	; 0xfffffafb
     5c8:	2e010116 	mcrcs	1, 0, r0, cr1, cr6, {0}
     5cc:	05050106 	streq	r0, [r5, #-262]	; 0xfffffefa
     5d0:	14051306 	strne	r1, [r5], #-774	; 0xfffffcfa
     5d4:	05015b03 	streq	r5, [r1, #-2819]	; 0xfffff4fd
     5d8:	10051305 	andne	r1, r5, r5, lsl #6
     5dc:	052e0106 	streq	r0, [lr, #-262]!	; 0xfffffefa
     5e0:	0a030609 	beq	c1e0c <__bss_end__+0xb788c>
     5e4:	110a0501 	tstne	sl, r1, lsl #10
     5e8:	01011105 	tsteq	r1, r5, lsl #2
     5ec:	0501062e 	streq	r0, [r1, #-1582]	; 0xfffff9d2
     5f0:	0a050123 	beq	140a84 <__bss_end__+0x136504>
     5f4:	09054a2e 	stmdbeq	r5, {r1, r2, r3, r5, r9, fp, lr}
     5f8:	00cd0306 	sbceq	r0, sp, r6, lsl #6
     5fc:	03140501 	tsteq	r4, #4194304	; 0x400000
     600:	05050168 	streq	r0, [r5, #-360]	; 0xfffffe98
     604:	03140513 	tsteq	r4, #79691776	; 0x4c00000
     608:	0505016b 	streq	r0, [r5, #-363]	; 0xfffffe95
     60c:	01160513 	tsteq	r6, r3, lsl r5
     610:	01062e01 	tsteq	r6, r1, lsl #28
     614:	13060505 	movwne	r0, #25861	; 0x6505
     618:	56031405 	strpl	r1, [r3], -r5, lsl #8
     61c:	13050501 	movwne	r0, #21761	; 0x5501
     620:	01061005 	tsteq	r6, r5
     624:	0609052e 	streq	r0, [r9], -lr, lsr #10
     628:	110a0519 	tstne	sl, r9, lsl r5
     62c:	01011105 	tsteq	r1, r5, lsl #2
     630:	0501062e 	streq	r0, [r1, #-1582]	; 0xfffff9d2
     634:	0a050123 	beq	140ac8 <__bss_end__+0x136548>
     638:	1b054a2e 	blne	152ef8 <__bss_end__+0x148978>
     63c:	00d70306 	sbcseq	r0, r7, r6, lsl #6
     640:	061c0501 	ldreq	r0, [ip], -r1, lsl #10
     644:	06140501 	ldreq	r0, [r4], -r1, lsl #10
     648:	0605052e 	streq	r0, [r5], -lr, lsr #10
     64c:	09056601 	stmdbeq	r5, {r0, r9, sl, sp, lr}
     650:	01750306 	cmneq	r5, r6, lsl #6
     654:	61031405 	tstvs	r3, r5, lsl #8
     658:	13050501 	movwne	r0, #21761	; 0x5501
     65c:	6b031405 	blvs	c5678 <__bss_end__+0xbb0f8>
     660:	13050501 	movwne	r0, #21761	; 0x5501
     664:	01011605 	tsteq	r1, r5, lsl #12
     668:	0501062e 	streq	r0, [r1, #-1582]	; 0xfffff9d2
     66c:	05130605 	ldreq	r0, [r3, #-1541]	; 0xfffff9fb
     670:	015b0314 	cmpeq	fp, r4, lsl r3
     674:	05130505 	ldreq	r0, [r3, #-1285]	; 0xfffffafb
     678:	2e010610 	mcrcs	6, 0, r0, cr1, cr0, {0}
     67c:	03060905 	movweq	r0, #26885	; 0x6905
     680:	0a05010a 	beq	140ab0 <__bss_end__+0x136530>
     684:	01110511 	tsteq	r1, r1, lsl r5
     688:	01062e01 	tsteq	r6, r1, lsl #28
     68c:	05012305 	streq	r2, [r1, #-773]	; 0xfffffcfb
     690:	054a2e0a 	strbeq	r2, [sl, #-3594]	; 0xfffff1f6
     694:	cd030609 	stcgt	6, cr0, [r3, #-36]	; 0xffffffdc
     698:	14050100 	strne	r0, [r5], #-256	; 0xffffff00
     69c:	05016803 	streq	r6, [r1, #-2051]	; 0xfffff7fd
     6a0:	14051305 	strne	r1, [r5], #-773	; 0xfffffcfb
     6a4:	05016b03 	streq	r6, [r1, #-2819]	; 0xfffff4fd
     6a8:	16051305 	strne	r1, [r5], -r5, lsl #6
     6ac:	062e0101 	strteq	r0, [lr], -r1, lsl #2
     6b0:	06050501 	streq	r0, [r5], -r1, lsl #10
     6b4:	03140513 	tsteq	r4, #79691776	; 0x4c00000
     6b8:	05050156 	streq	r0, [r5, #-342]	; 0xfffffeaa
     6bc:	06100513 			; <UNDEFINED> instruction: 0x06100513
     6c0:	09052e01 	stmdbeq	r5, {r0, r9, sl, fp, sp}
     6c4:	0a051906 	beq	146ae4 <__bss_end__+0x13c564>
     6c8:	01110511 	tsteq	r1, r1, lsl r5
     6cc:	01062e01 	tsteq	r6, r1, lsl #28
     6d0:	05012305 	streq	r2, [r1, #-773]	; 0xfffffcfb
     6d4:	054a2e0a 	strbeq	r2, [sl, #-3594]	; 0xfffff1f6
     6d8:	d703061b 	smladle	r3, fp, r6, r0
     6dc:	1c050100 	stfnes	f0, [r5], {-0}
     6e0:	14050106 	strne	r0, [r5], #-262	; 0xfffffefa
     6e4:	05052e06 	streq	r2, [r5, #-3590]	; 0xfffff1fa
     6e8:	05660106 	strbeq	r0, [r6, #-262]!	; 0xfffffefa
     6ec:	75030609 	strvc	r0, [r3, #-1545]	; 0xfffff9f7
     6f0:	03140501 	tsteq	r4, #4194304	; 0x400000
     6f4:	05050161 	streq	r0, [r5, #-353]	; 0xfffffe9f
     6f8:	03140513 	tsteq	r4, #79691776	; 0x4c00000
     6fc:	0505016b 	streq	r0, [r5, #-363]	; 0xfffffe95
     700:	01160513 	tsteq	r6, r3, lsl r5
     704:	01062e01 	tsteq	r6, r1, lsl #28
     708:	13060505 	movwne	r0, #25861	; 0x6505
     70c:	5b031405 	blpl	c5728 <__bss_end__+0xbb1a8>
     710:	13050501 	movwne	r0, #21761	; 0x5501
     714:	01061005 	tsteq	r6, r5
     718:	0609052e 	streq	r0, [r9], -lr, lsr #10
     71c:	05010a03 	streq	r0, [r1, #-2563]	; 0xfffff5fd
     720:	1105110a 	tstne	r5, sl, lsl #2
     724:	062e0101 	strteq	r0, [lr], -r1, lsl #2
     728:	01230501 			; <UNDEFINED> instruction: 0x01230501
     72c:	4a2e0a05 	bmi	b82f48 <__bss_end__+0xb789c8>
     730:	03060905 	movweq	r0, #26885	; 0x6905
     734:	050100cd 	streq	r0, [r1, #-205]	; 0xffffff33
     738:	01680314 	cmneq	r8, r4, lsl r3
     73c:	05130505 	ldreq	r0, [r3, #-1285]	; 0xfffffafb
     740:	016b0314 	cmneq	fp, r4, lsl r3
     744:	05130505 	ldreq	r0, [r3, #-1285]	; 0xfffffafb
     748:	2e010116 	mcrcs	1, 0, r0, cr1, cr6, {0}
     74c:	05050106 	streq	r0, [r5, #-262]	; 0xfffffefa
     750:	14051306 	strne	r1, [r5], #-774	; 0xfffffcfa
     754:	05015603 	streq	r5, [r1, #-1539]	; 0xfffff9fd
     758:	10051305 	andne	r1, r5, r5, lsl #6
     75c:	052e0106 	streq	r0, [lr, #-262]!	; 0xfffffefa
     760:	05190609 	ldreq	r0, [r9, #-1545]	; 0xfffff9f7
     764:	1105110a 	tstne	r5, sl, lsl #2
     768:	062e0101 	strteq	r0, [lr], -r1, lsl #2
     76c:	01230501 			; <UNDEFINED> instruction: 0x01230501
     770:	4a2e0a05 	bmi	b82f8c <__bss_end__+0xb78a0c>
     774:	03061b05 	movweq	r1, #27397	; 0x6b05
     778:	050100d7 	streq	r0, [r1, #-215]	; 0xffffff29
     77c:	0501061c 	streq	r0, [r1, #-1564]	; 0xfffff9e4
     780:	052e0614 	streq	r0, [lr, #-1556]!	; 0xfffff9ec
     784:	04010605 	streq	r0, [r1], #-1541	; 0xfffff9fb
     788:	06310501 	ldrteq	r0, [r1], -r1, lsl #10
     78c:	9e7ed003 	cdpls	0, 7, cr13, cr14, cr3, {0}
     790:	13130505 	tstne	r3, #20971520	; 0x1400000
     794:	10063105 	andne	r3, r6, r5, lsl #2
     798:	05303705 	ldreq	r3, [r0, #-1797]!	; 0xfffff8fb
     79c:	05052e0e 	streq	r2, [r5, #-3598]	; 0xfffff1f2
     7a0:	31052f06 	tstcc	r5, r6, lsl #30
     7a4:	09050f06 	stmdbeq	r5, {r1, r2, r8, r9, sl, fp}
     7a8:	2b310531 	blcs	c41c74 <__bss_end__+0xc376f4>
     7ac:	2e310905 	vaddcs.f16	s0, s2, s10	; <UNPREDICTABLE>
     7b0:	2f060505 	svccs	0x00060505
     7b4:	05140668 	ldreq	r0, [r4, #-1640]	; 0xfffff998
     7b8:	05052c0f 	streq	r2, [r5, #-3087]	; 0xfffff3f1
     7bc:	0c052f06 	stceq	15, cr2, [r5], {6}
     7c0:	05050106 	streq	r0, [r5, #-262]	; 0xfffffefa
     7c4:	052f2f06 	streq	r2, [pc, #-3846]!	; fffff8c6 <__bss_end__+0xffff5346>
     7c8:	05130601 	ldreq	r0, [r3, #-1537]	; 0xfffff9ff
     7cc:	05a10641 	streq	r0, [r1, #1601]!	; 0x641
     7d0:	41051305 	tstmi	r5, r5, lsl #6
     7d4:	02041106 	andeq	r1, r4, #-2147483647	; 0x80000001
     7d8:	c3031405 	movwgt	r1, #13317	; 0x3405
     7dc:	062e2e00 	strteq	r2, [lr], -r0, lsl #28
     7e0:	0100e603 	tsteq	r0, r3, lsl #12
     7e4:	05170505 	ldreq	r0, [r7, #-1285]	; 0xfffffafb
     7e8:	01740314 	cmneq	r4, r4, lsl r3
     7ec:	05130505 	ldreq	r0, [r3, #-1285]	; 0xfffffafb
     7f0:	14050109 	strne	r0, [r5], #-265	; 0xfffffef7
     7f4:	060d0501 	streq	r0, [sp], -r1, lsl #10
     7f8:	05010401 	streq	r0, [r1, #-1025]	; 0xfffffbff
     7fc:	7ede0305 	cdpvc	3, 13, cr0, cr14, cr5, {0}
     800:	0502042e 	streq	r0, [r2, #-1070]	; 0xfffffbd2
     804:	00c20310 	sbceq	r0, r2, r0, lsl r3
     808:	2e14052e 	cfmul64cs	mvdx0, mvdx4, mvdx14
     80c:	0609052e 	streq	r0, [r9], -lr, lsr #10
     810:	0100e103 	tsteq	r0, r3, lsl #2
     814:	6f031405 	svcvs	0x00031405
     818:	13050501 	movwne	r0, #21761	; 0x5501
     81c:	03061d05 	movweq	r1, #27909	; 0x6d05
     820:	08050110 	stmdaeq	r5, {r4, r8}
     824:	052e7003 	streq	r7, [lr, #-3]!
     828:	054b0609 	strbeq	r0, [fp, #-1545]	; 0xfffff9f7
     82c:	015f0314 	cmpeq	pc, r4, lsl r3	; <UNPREDICTABLE>
     830:	05130505 	ldreq	r0, [r3, #-1285]	; 0xfffffafb
     834:	01700314 	cmneq	r0, r4, lsl r3
     838:	05130505 	ldreq	r0, [r3, #-1285]	; 0xfffffafb
     83c:	2e010116 	mcrcs	1, 0, r0, cr1, cr6, {0}
     840:	05050106 	streq	r0, [r5, #-262]	; 0xfffffefa
     844:	14051306 	strne	r1, [r5], #-774	; 0xfffffcfa
     848:	05015b03 	streq	r5, [r1, #-2819]	; 0xfffff4fd
     84c:	10051305 	andne	r1, r5, r5, lsl #6
     850:	052e0106 	streq	r0, [lr, #-262]!	; 0xfffffefa
     854:	0a030609 	beq	c2080 <__bss_end__+0xb7b00>
     858:	110a0501 	tstne	sl, r1, lsl #10
     85c:	01011105 	tsteq	r1, r5, lsl #2
     860:	0501062e 	streq	r0, [r1, #-1582]	; 0xfffff9d2
     864:	0a050123 	beq	140cf8 <__bss_end__+0x136778>
     868:	09054a2e 	stmdbeq	r5, {r1, r2, r3, r5, r9, fp, lr}
     86c:	00ca0306 	sbceq	r0, sl, r6, lsl #6
     870:	03140501 	tsteq	r4, #4194304	; 0x400000
     874:	05050167 	streq	r0, [r5, #-359]	; 0xfffffe99
     878:	03140513 	tsteq	r4, #79691776	; 0x4c00000
     87c:	0505016f 	streq	r0, [r5, #-367]	; 0xfffffe91
     880:	01160513 	tsteq	r6, r3, lsl r5
     884:	01062e01 	tsteq	r6, r1, lsl #28
     888:	13060505 	movwne	r0, #25861	; 0x6505
     88c:	56031405 	strpl	r1, [r3], -r5, lsl #8
     890:	13050501 	movwne	r0, #21761	; 0x5501
     894:	01061005 	tsteq	r6, r5
     898:	0609052e 	streq	r0, [r9], -lr, lsr #10
     89c:	110a0519 	tstne	sl, r9, lsl r5
     8a0:	01011105 	tsteq	r1, r5, lsl #2
     8a4:	0501062e 	streq	r0, [r1, #-1582]	; 0xfffff9d2
     8a8:	0a050123 	beq	140d3c <__bss_end__+0x1367bc>
     8ac:	1b054a2e 	blne	15316c <__bss_end__+0x148bec>
     8b0:	00d70306 	sbcseq	r0, r7, r6, lsl #6
     8b4:	061c0501 	ldreq	r0, [ip], -r1, lsl #10
     8b8:	06140501 	ldreq	r0, [r4], -r1, lsl #10
     8bc:	0605052e 	streq	r0, [r5], -lr, lsr #10
     8c0:	0d054a01 	vstreq	s8, [r5, #-4]
     8c4:	03100501 	tsteq	r0, #4194304	; 0x400000
     8c8:	2e2e7fa0 	cdpcs	15, 2, cr7, cr14, cr0, {5}
     8cc:	03060905 	movweq	r0, #26885	; 0x6905
     8d0:	050100e1 	streq	r0, [r1, #-225]	; 0xffffff1f
     8d4:	016f0314 	cmneq	pc, r4, lsl r3	; <UNPREDICTABLE>
     8d8:	05130505 	ldreq	r0, [r3, #-1285]	; 0xfffffafb
     8dc:	1003061d 	andne	r0, r3, sp, lsl r6
     8e0:	03080501 	movweq	r0, #34049	; 0x8501
     8e4:	09052e70 	stmdbeq	r5, {r4, r5, r6, r9, sl, fp, sp}
     8e8:	14054b06 	strne	r4, [r5], #-2822	; 0xfffff4fa
     8ec:	05015f03 	streq	r5, [r1, #-3843]	; 0xfffff0fd
     8f0:	14051305 	strne	r1, [r5], #-773	; 0xfffffcfb
     8f4:	05017003 	streq	r7, [r1, #-3]
     8f8:	16051305 	strne	r1, [r5], -r5, lsl #6
     8fc:	062e0101 	strteq	r0, [lr], -r1, lsl #2
     900:	06050501 	streq	r0, [r5], -r1, lsl #10
     904:	03140513 	tsteq	r4, #79691776	; 0x4c00000
     908:	0505015b 	streq	r0, [r5, #-347]	; 0xfffffea5
     90c:	06100513 			; <UNDEFINED> instruction: 0x06100513
     910:	09052e01 	stmdbeq	r5, {r0, r9, sl, fp, sp}
     914:	010a0306 	tsteq	sl, r6, lsl #6
     918:	05110a05 	ldreq	r0, [r1, #-2565]	; 0xfffff5fb
     91c:	2e010111 	mcrcs	1, 0, r0, cr1, cr1, {0}
     920:	23050106 	movwcs	r0, #20742	; 0x5106
     924:	2e0a0501 	cfsh32cs	mvfx0, mvfx10, #1
     928:	0609054a 	streq	r0, [r9], -sl, asr #10
     92c:	0100ca03 	tsteq	r0, r3, lsl #20
     930:	67031405 	strvs	r1, [r3, -r5, lsl #8]
     934:	13050501 	movwne	r0, #21761	; 0x5501
     938:	6f031405 	svcvs	0x00031405
     93c:	13050501 	movwne	r0, #21761	; 0x5501
     940:	01011605 	tsteq	r1, r5, lsl #12
     944:	0501062e 	streq	r0, [r1, #-1582]	; 0xfffff9d2
     948:	05130605 	ldreq	r0, [r3, #-1541]	; 0xfffff9fb
     94c:	01560314 	cmpeq	r6, r4, lsl r3
     950:	05130505 	ldreq	r0, [r3, #-1285]	; 0xfffffafb
     954:	2e010610 	mcrcs	6, 0, r0, cr1, cr0, {0}
     958:	19060905 	stmdbne	r6, {r0, r2, r8, fp}
     95c:	05110a05 	ldreq	r0, [r1, #-2565]	; 0xfffff5fb
     960:	2e010111 	mcrcs	1, 0, r0, cr1, cr1, {0}
     964:	23050106 	movwcs	r0, #20742	; 0x5106
     968:	2e0a0501 	cfsh32cs	mvfx0, mvfx10, #1
     96c:	061b054a 	ldreq	r0, [fp], -sl, asr #10
     970:	0100d703 	tsteq	r0, r3, lsl #14
     974:	01061c05 	tsteq	r6, r5, lsl #24
     978:	2e061405 	cdpcs	4, 0, cr1, cr6, cr5, {0}
     97c:	01060505 	tsteq	r6, r5, lsl #10
     980:	010d054a 	tsteq	sp, sl, asr #10
     984:	2f060905 	svccs	0x00060905
     988:	6f031405 	svcvs	0x00031405
     98c:	13050501 	movwne	r0, #21761	; 0x5501
     990:	03061d05 	movweq	r1, #27909	; 0x6d05
     994:	08050110 	stmdaeq	r5, {r4, r8}
     998:	052e7003 	streq	r7, [lr, #-3]!
     99c:	7faf0310 	svcvc	0x00af0310
     9a0:	0308052e 	movweq	r0, #34094	; 0x852e
     9a4:	052e00d1 	streq	r0, [lr, #-209]!	; 0xffffff2f
     9a8:	052f0609 	streq	r0, [pc, #-1545]!	; 3a7 <__code_start__-0x7c59>
     9ac:	015f0314 	cmpeq	pc, r4, lsl r3	; <UNPREDICTABLE>
     9b0:	05130505 	ldreq	r0, [r3, #-1285]	; 0xfffffafb
     9b4:	01700314 	cmneq	r0, r4, lsl r3
     9b8:	05130505 	ldreq	r0, [r3, #-1285]	; 0xfffffafb
     9bc:	2e010116 	mcrcs	1, 0, r0, cr1, cr6, {0}
     9c0:	05050106 	streq	r0, [r5, #-262]	; 0xfffffefa
     9c4:	14051306 	strne	r1, [r5], #-774	; 0xfffffcfa
     9c8:	05015b03 	streq	r5, [r1, #-2819]	; 0xfffff4fd
     9cc:	10051305 	andne	r1, r5, r5, lsl #6
     9d0:	052e0106 	streq	r0, [lr, #-262]!	; 0xfffffefa
     9d4:	0a030609 	beq	c2200 <__bss_end__+0xb7c80>
     9d8:	110a0501 	tstne	sl, r1, lsl #10
     9dc:	01011105 	tsteq	r1, r5, lsl #2
     9e0:	0501062e 	streq	r0, [r1, #-1582]	; 0xfffff9d2
     9e4:	0a050123 	beq	140e78 <__bss_end__+0x1368f8>
     9e8:	09054a2e 	stmdbeq	r5, {r1, r2, r3, r5, r9, fp, lr}
     9ec:	00ca0306 	sbceq	r0, sl, r6, lsl #6
     9f0:	03140501 	tsteq	r4, #4194304	; 0x400000
     9f4:	05050167 	streq	r0, [r5, #-359]	; 0xfffffe99
     9f8:	03140513 	tsteq	r4, #79691776	; 0x4c00000
     9fc:	0505016f 	streq	r0, [r5, #-367]	; 0xfffffe91
     a00:	01160513 	tsteq	r6, r3, lsl r5
     a04:	01062e01 	tsteq	r6, r1, lsl #28
     a08:	13060505 	movwne	r0, #25861	; 0x6505
     a0c:	56031405 	strpl	r1, [r3], -r5, lsl #8
     a10:	13050501 	movwne	r0, #21761	; 0x5501
     a14:	01061005 	tsteq	r6, r5
     a18:	0609052e 	streq	r0, [r9], -lr, lsr #10
     a1c:	110a0519 	tstne	sl, r9, lsl r5
     a20:	01011105 	tsteq	r1, r5, lsl #2
     a24:	0501062e 	streq	r0, [r1, #-1582]	; 0xfffff9d2
     a28:	0a050123 	beq	140ebc <__bss_end__+0x13693c>
     a2c:	1b054a2e 	blne	1532ec <__bss_end__+0x148d6c>
     a30:	00d70306 	sbcseq	r0, r7, r6, lsl #6
     a34:	061c0501 	ldreq	r0, [ip], -r1, lsl #10
     a38:	06140501 	ldreq	r0, [r4], -r1, lsl #10
     a3c:	0605052e 	streq	r0, [r5], -lr, lsr #10
     a40:	06090501 	streq	r0, [r9], -r1, lsl #10
     a44:	0314054b 	tsteq	r4, #314572800	; 0x12c00000
     a48:	0505016f 	streq	r0, [r5, #-367]	; 0xfffffe91
     a4c:	061d0513 			; <UNDEFINED> instruction: 0x061d0513
     a50:	05011003 	streq	r1, [r1, #-3]
     a54:	2e700308 	cdpcs	3, 7, cr0, cr0, cr8, {0}
     a58:	4e060905 	vmlami.f16	s0, s12, s10	; <UNPREDICTABLE>
     a5c:	61031405 	tstvs	r3, r5, lsl #8
     a60:	13050501 	movwne	r0, #21761	; 0x5501
     a64:	6b031405 	blvs	c5a80 <__bss_end__+0xbb500>
     a68:	13050501 	movwne	r0, #21761	; 0x5501
     a6c:	01011605 	tsteq	r1, r5, lsl #12
     a70:	0501062e 	streq	r0, [r1, #-1582]	; 0xfffff9d2
     a74:	05130605 	ldreq	r0, [r3, #-1541]	; 0xfffff9fb
     a78:	015b0314 	cmpeq	fp, r4, lsl r3
     a7c:	05130505 	ldreq	r0, [r3, #-1285]	; 0xfffffafb
     a80:	2e010610 	mcrcs	6, 0, r0, cr1, cr0, {0}
     a84:	03060905 	movweq	r0, #26885	; 0x6905
     a88:	0a05010a 	beq	140eb8 <__bss_end__+0x136938>
     a8c:	01110511 	tsteq	r1, r1, lsl r5
     a90:	01062e01 	tsteq	r6, r1, lsl #28
     a94:	05012305 	streq	r2, [r1, #-773]	; 0xfffffcfb
     a98:	054a2e0a 	strbeq	r2, [sl, #-3594]	; 0xfffff1f6
     a9c:	cd030609 	stcgt	6, cr0, [r3, #-36]	; 0xffffffdc
     aa0:	14050100 	strne	r0, [r5], #-256	; 0xffffff00
     aa4:	05016803 	streq	r6, [r1, #-2051]	; 0xfffff7fd
     aa8:	14051305 	strne	r1, [r5], #-773	; 0xfffffcfb
     aac:	05016b03 	streq	r6, [r1, #-2819]	; 0xfffff4fd
     ab0:	16051305 	strne	r1, [r5], -r5, lsl #6
     ab4:	062e0101 	strteq	r0, [lr], -r1, lsl #2
     ab8:	06050501 	streq	r0, [r5], -r1, lsl #10
     abc:	03140513 	tsteq	r4, #79691776	; 0x4c00000
     ac0:	05050156 	streq	r0, [r5, #-342]	; 0xfffffeaa
     ac4:	06100513 			; <UNDEFINED> instruction: 0x06100513
     ac8:	09052e01 	stmdbeq	r5, {r0, r9, sl, fp, sp}
     acc:	0a051906 	beq	146eec <__bss_end__+0x13c96c>
     ad0:	01110511 	tsteq	r1, r1, lsl r5
     ad4:	01062e01 	tsteq	r6, r1, lsl #28
     ad8:	05012305 	streq	r2, [r1, #-773]	; 0xfffffcfb
     adc:	05662e0a 	strbeq	r2, [r6, #-3594]!	; 0xfffff1f6
     ae0:	cc030609 	stcgt	6, cr0, [r3], {9}
     ae4:	14050100 	strne	r0, [r5], #-256	; 0xffffff00
     ae8:	05016103 	streq	r6, [r1, #-259]	; 0xfffffefd
     aec:	14051305 	strne	r1, [r5], #-773	; 0xfffffcfb
     af0:	05016b03 	streq	r6, [r1, #-2819]	; 0xfffff4fd
     af4:	16051305 	strne	r1, [r5], -r5, lsl #6
     af8:	062e0101 	strteq	r0, [lr], -r1, lsl #2
     afc:	06050501 	streq	r0, [r5], -r1, lsl #10
     b00:	03140513 	tsteq	r4, #79691776	; 0x4c00000
     b04:	0505015b 	streq	r0, [r5, #-347]	; 0xfffffea5
     b08:	06100513 			; <UNDEFINED> instruction: 0x06100513
     b0c:	09052e01 	stmdbeq	r5, {r0, r9, sl, fp, sp}
     b10:	010a0306 	tsteq	sl, r6, lsl #6
     b14:	05110a05 	ldreq	r0, [r1, #-2565]	; 0xfffff5fb
     b18:	2e010111 	mcrcs	1, 0, r0, cr1, cr1, {0}
     b1c:	23050106 	movwcs	r0, #20742	; 0x5106
     b20:	2e0a0501 	cfsh32cs	mvfx0, mvfx10, #1
     b24:	0609054a 	streq	r0, [r9], -sl, asr #10
     b28:	0100cd03 	tsteq	r0, r3, lsl #26
     b2c:	68031405 	stmdavs	r3, {r0, r2, sl, ip}
     b30:	13050501 	movwne	r0, #21761	; 0x5501
     b34:	6b031405 	blvs	c5b50 <__bss_end__+0xbb5d0>
     b38:	13050501 	movwne	r0, #21761	; 0x5501
     b3c:	01011605 	tsteq	r1, r5, lsl #12
     b40:	0501062e 	streq	r0, [r1, #-1582]	; 0xfffff9d2
     b44:	05130605 	ldreq	r0, [r3, #-1541]	; 0xfffff9fb
     b48:	01560314 	cmpeq	r6, r4, lsl r3
     b4c:	05130505 	ldreq	r0, [r3, #-1285]	; 0xfffffafb
     b50:	2e010610 	mcrcs	6, 0, r0, cr1, cr0, {0}
     b54:	19060905 	stmdbne	r6, {r0, r2, r8, fp}
     b58:	05110a05 	ldreq	r0, [r1, #-2565]	; 0xfffff5fb
     b5c:	2e010111 	mcrcs	1, 0, r0, cr1, cr1, {0}
     b60:	23050106 	movwcs	r0, #20742	; 0x5106
     b64:	2e0a0501 	cfsh32cs	mvfx0, mvfx10, #1
     b68:	061b054a 	ldreq	r0, [fp], -sl, asr #10
     b6c:	0100d703 	tsteq	r0, r3, lsl #14
     b70:	01061c05 	tsteq	r6, r5, lsl #24
     b74:	2e061405 	cdpcs	4, 0, cr1, cr6, cr5, {0}
     b78:	01060505 	tsteq	r6, r5, lsl #10
     b7c:	06090566 	streq	r0, [r9], -r6, ror #10
     b80:	05017503 	streq	r7, [r1, #-1283]	; 0xfffffafd
     b84:	01610314 	cmneq	r1, r4, lsl r3
     b88:	05130505 	ldreq	r0, [r3, #-1285]	; 0xfffffafb
     b8c:	016b0314 	cmneq	fp, r4, lsl r3
     b90:	05130505 	ldreq	r0, [r3, #-1285]	; 0xfffffafb
     b94:	2e010116 	mcrcs	1, 0, r0, cr1, cr6, {0}
     b98:	05050106 	streq	r0, [r5, #-262]	; 0xfffffefa
     b9c:	14051306 	strne	r1, [r5], #-774	; 0xfffffcfa
     ba0:	05015b03 	streq	r5, [r1, #-2819]	; 0xfffff4fd
     ba4:	10051305 	andne	r1, r5, r5, lsl #6
     ba8:	052e0106 	streq	r0, [lr, #-262]!	; 0xfffffefa
     bac:	0a030609 	beq	c23d8 <__bss_end__+0xb7e58>
     bb0:	110a0501 	tstne	sl, r1, lsl #10
     bb4:	01011105 	tsteq	r1, r5, lsl #2
     bb8:	0501062e 	streq	r0, [r1, #-1582]	; 0xfffff9d2
     bbc:	0a050123 	beq	141050 <__bss_end__+0x136ad0>
     bc0:	09054a2e 	stmdbeq	r5, {r1, r2, r3, r5, r9, fp, lr}
     bc4:	00cd0306 	sbceq	r0, sp, r6, lsl #6
     bc8:	03140501 	tsteq	r4, #4194304	; 0x400000
     bcc:	05050168 	streq	r0, [r5, #-360]	; 0xfffffe98
     bd0:	03140513 	tsteq	r4, #79691776	; 0x4c00000
     bd4:	0505016b 	streq	r0, [r5, #-363]	; 0xfffffe95
     bd8:	01160513 	tsteq	r6, r3, lsl r5
     bdc:	01062e01 	tsteq	r6, r1, lsl #28
     be0:	13060505 	movwne	r0, #25861	; 0x6505
     be4:	56031405 	strpl	r1, [r3], -r5, lsl #8
     be8:	13050501 	movwne	r0, #21761	; 0x5501
     bec:	01061005 	tsteq	r6, r5
     bf0:	0609052e 	streq	r0, [r9], -lr, lsr #10
     bf4:	110a0519 	tstne	sl, r9, lsl r5
     bf8:	01011105 	tsteq	r1, r5, lsl #2
     bfc:	0501062e 	streq	r0, [r1, #-1582]	; 0xfffff9d2
     c00:	0a050123 	beq	141094 <__bss_end__+0x136b14>
     c04:	1b054a2e 	blne	1534c4 <__bss_end__+0x148f44>
     c08:	00d70306 	sbcseq	r0, r7, r6, lsl #6
     c0c:	061c0501 	ldreq	r0, [ip], -r1, lsl #10
     c10:	06140501 	ldreq	r0, [r4], -r1, lsl #10
     c14:	0605052e 	streq	r0, [r5], -lr, lsr #10
     c18:	05010401 	streq	r0, [r1, #-1025]	; 0xfffffbff
     c1c:	e203062d 	and	r0, r3, #47185920	; 0x2d00000
     c20:	0505d67e 	streq	sp, [r5, #-1662]	; 0xfffff982
     c24:	01090513 	tsteq	r9, r3, lsl r5
     c28:	05011405 	streq	r1, [r1, #-1029]	; 0xfffffbfb
     c2c:	2e010605 	cfmadd32cs	mvax0, mvfx0, mvfx1, mvfx5
     c30:	14050204 	strne	r0, [r5], #-516	; 0xfffffdfc
     c34:	042e3d03 	strteq	r3, [lr], #-3331	; 0xfffff2fd
     c38:	032d0501 			; <UNDEFINED> instruction: 0x032d0501
     c3c:	0d052e42 	stceq	14, cr2, [r5, #-264]	; 0xfffffef8
     c40:	2f09052f 	svccs	0x0009052f
     c44:	10050204 	andne	r0, r5, r4, lsl #4
     c48:	052e3c03 	streq	r3, [lr, #-3075]!	; 0xfffff3fd
     c4c:	042e2e14 	strteq	r2, [lr], #-3604	; 0xfffff1ec
     c50:	00090501 	andeq	r0, r9, r1, lsl #10
     c54:	06030402 	streq	r0, [r3], -r2, lsl #8
     c58:	04014403 	streq	r4, [r1], #-1027	; 0xfffffbfd
     c5c:	00140502 	andseq	r0, r4, r2, lsl #10
     c60:	03030402 	movweq	r0, #13314	; 0x3402
     c64:	050101a2 	streq	r0, [r1, #-418]	; 0xfffffe5e
     c68:	04020005 	streq	r0, [r2], #-5
     c6c:	14051703 	strne	r1, [r5], #-1795	; 0xfffff8fd
     c70:	03040200 	movweq	r0, #16896	; 0x4200
     c74:	05017403 	streq	r7, [r1, #-1027]	; 0xfffffbfd
     c78:	04020005 	streq	r0, [r2], #-5
     c7c:	09051303 	stmdbeq	r5, {r0, r1, r8, r9, ip}
     c80:	03040200 	movweq	r0, #16896	; 0x4200
     c84:	00140501 	andseq	r0, r4, r1, lsl #10
     c88:	01030402 	tsteq	r3, r2, lsl #8
     c8c:	0d050104 	stfeqs	f0, [r5, #-16]
     c90:	03040200 	movweq	r0, #16896	; 0x4200
     c94:	7ee30306 	cdpvc	3, 14, cr0, cr3, cr6, {0}
     c98:	05020401 	streq	r0, [r2, #-1025]	; 0xfffffbff
     c9c:	9e030609 	cfmadd32ls	mvax0, mvfx0, mvfx3, mvfx9
     ca0:	14052e01 	strne	r2, [r5], #-3585	; 0xfffff1ff
     ca4:	05016f03 	streq	r6, [r1, #-3843]	; 0xfffff0fd
     ca8:	09051305 	stmdbeq	r5, {r0, r2, r8, r9, ip}
     cac:	03140516 	tsteq	r4, #92274688	; 0x5800000
     cb0:	05050161 	streq	r0, [r5, #-353]	; 0xfffffe9f
     cb4:	03140513 	tsteq	r4, #79691776	; 0x4c00000
     cb8:	0505016b 	streq	r0, [r5, #-363]	; 0xfffffe95
     cbc:	01160513 	tsteq	r6, r3, lsl r5
     cc0:	01062e01 	tsteq	r6, r1, lsl #28
     cc4:	13060505 	movwne	r0, #25861	; 0x6505
     cc8:	5b031405 	blpl	c5ce4 <__bss_end__+0xbb764>
     ccc:	13050501 	movwne	r0, #21761	; 0x5501
     cd0:	01061005 	tsteq	r6, r5
     cd4:	0609052e 	streq	r0, [r9], -lr, lsr #10
     cd8:	05010a03 	streq	r0, [r1, #-2563]	; 0xfffff5fd
     cdc:	1105110a 	tstne	r5, sl, lsl #2
     ce0:	062e0101 	strteq	r0, [lr], -r1, lsl #2
     ce4:	01230501 			; <UNDEFINED> instruction: 0x01230501
     ce8:	4a2e0a05 	bmi	b83504 <__bss_end__+0xb78f84>
     cec:	03060905 	movweq	r0, #26885	; 0x6905
     cf0:	050100cd 	streq	r0, [r1, #-205]	; 0xffffff33
     cf4:	01680314 	cmneq	r8, r4, lsl r3
     cf8:	05130505 	ldreq	r0, [r3, #-1285]	; 0xfffffafb
     cfc:	016b0314 	cmneq	fp, r4, lsl r3
     d00:	05130505 	ldreq	r0, [r3, #-1285]	; 0xfffffafb
     d04:	2e010116 	mcrcs	1, 0, r0, cr1, cr6, {0}
     d08:	05050106 	streq	r0, [r5, #-262]	; 0xfffffefa
     d0c:	14051306 	strne	r1, [r5], #-774	; 0xfffffcfa
     d10:	05015603 	streq	r5, [r1, #-1539]	; 0xfffff9fd
     d14:	10051305 	andne	r1, r5, r5, lsl #6
     d18:	052e0106 	streq	r0, [lr, #-262]!	; 0xfffffefa
     d1c:	05190609 	ldreq	r0, [r9, #-1545]	; 0xfffff9f7
     d20:	1105110a 	tstne	r5, sl, lsl #2
     d24:	062e0101 	strteq	r0, [lr], -r1, lsl #2
     d28:	01230501 			; <UNDEFINED> instruction: 0x01230501
     d2c:	4a2e0a05 	bmi	b83548 <__bss_end__+0xb78fc8>
     d30:	03061b05 	movweq	r1, #27397	; 0x6b05
     d34:	050100d7 	streq	r0, [r1, #-215]	; 0xffffff29
     d38:	05050114 	streq	r0, [r5, #-276]	; 0xfffffeec
     d3c:	05660106 	strbeq	r0, [r6, #-262]!	; 0xfffffefa
     d40:	05130609 	ldreq	r0, [r3, #-1545]	; 0xfffff9f7
     d44:	016f0314 	cmneq	pc, r4, lsl r3	; <UNPREDICTABLE>
     d48:	05130505 	ldreq	r0, [r3, #-1285]	; 0xfffffafb
     d4c:	14051609 	strne	r1, [r5], #-1545	; 0xfffff9f7
     d50:	05016103 	streq	r6, [r1, #-259]	; 0xfffffefd
     d54:	14051305 	strne	r1, [r5], #-773	; 0xfffffcfb
     d58:	05016b03 	streq	r6, [r1, #-2819]	; 0xfffff4fd
     d5c:	16051305 	strne	r1, [r5], -r5, lsl #6
     d60:	062e0101 	strteq	r0, [lr], -r1, lsl #2
     d64:	06050501 	streq	r0, [r5], -r1, lsl #10
     d68:	03140513 	tsteq	r4, #79691776	; 0x4c00000
     d6c:	0505015b 	streq	r0, [r5, #-347]	; 0xfffffea5
     d70:	06100513 			; <UNDEFINED> instruction: 0x06100513
     d74:	09052e01 	stmdbeq	r5, {r0, r9, sl, fp, sp}
     d78:	010a0306 	tsteq	sl, r6, lsl #6
     d7c:	05110a05 	ldreq	r0, [r1, #-2565]	; 0xfffff5fb
     d80:	2e010111 	mcrcs	1, 0, r0, cr1, cr1, {0}
     d84:	23050106 	movwcs	r0, #20742	; 0x5106
     d88:	2e0a0501 	cfsh32cs	mvfx0, mvfx10, #1
     d8c:	0609054a 	streq	r0, [r9], -sl, asr #10
     d90:	0100cd03 	tsteq	r0, r3, lsl #26
     d94:	68031405 	stmdavs	r3, {r0, r2, sl, ip}
     d98:	13050501 	movwne	r0, #21761	; 0x5501
     d9c:	6b031405 	blvs	c5db8 <__bss_end__+0xbb838>
     da0:	13050501 	movwne	r0, #21761	; 0x5501
     da4:	01011605 	tsteq	r1, r5, lsl #12
     da8:	0501062e 	streq	r0, [r1, #-1582]	; 0xfffff9d2
     dac:	05130605 	ldreq	r0, [r3, #-1541]	; 0xfffff9fb
     db0:	01560314 	cmpeq	r6, r4, lsl r3
     db4:	05130505 	ldreq	r0, [r3, #-1285]	; 0xfffffafb
     db8:	2e010610 	mcrcs	6, 0, r0, cr1, cr0, {0}
     dbc:	19060905 	stmdbne	r6, {r0, r2, r8, fp}
     dc0:	05110a05 	ldreq	r0, [r1, #-2565]	; 0xfffff5fb
     dc4:	2e010111 	mcrcs	1, 0, r0, cr1, cr1, {0}
     dc8:	23050106 	movwcs	r0, #20742	; 0x5106
     dcc:	2e0a0501 	cfsh32cs	mvfx0, mvfx10, #1
     dd0:	061b054a 	ldreq	r0, [fp], -sl, asr #10
     dd4:	0100d703 	tsteq	r0, r3, lsl #14
     dd8:	05011405 	streq	r1, [r1, #-1029]	; 0xfffffbfb
     ddc:	66010605 	strvs	r0, [r1], -r5, lsl #12
     de0:	13060905 	movwne	r0, #26885	; 0x6905
     de4:	6f031405 	svcvs	0x00031405
     de8:	13050501 	movwne	r0, #21761	; 0x5501
     dec:	05160905 	ldreq	r0, [r6, #-2309]	; 0xfffff6fb
     df0:	01610314 	cmneq	r1, r4, lsl r3
     df4:	05130505 	ldreq	r0, [r3, #-1285]	; 0xfffffafb
     df8:	016b0314 	cmneq	fp, r4, lsl r3
     dfc:	05130505 	ldreq	r0, [r3, #-1285]	; 0xfffffafb
     e00:	2e010116 	mcrcs	1, 0, r0, cr1, cr6, {0}
     e04:	05050106 	streq	r0, [r5, #-262]	; 0xfffffefa
     e08:	14051306 	strne	r1, [r5], #-774	; 0xfffffcfa
     e0c:	05015b03 	streq	r5, [r1, #-2819]	; 0xfffff4fd
     e10:	10051305 	andne	r1, r5, r5, lsl #6
     e14:	052e0106 	streq	r0, [lr, #-262]!	; 0xfffffefa
     e18:	0a030609 	beq	c2644 <__bss_end__+0xb80c4>
     e1c:	110a0501 	tstne	sl, r1, lsl #10
     e20:	01011105 	tsteq	r1, r5, lsl #2
     e24:	0501062e 	streq	r0, [r1, #-1582]	; 0xfffff9d2
     e28:	0a050123 	beq	1412bc <__bss_end__+0x136d3c>
     e2c:	09054a2e 	stmdbeq	r5, {r1, r2, r3, r5, r9, fp, lr}
     e30:	00cd0306 	sbceq	r0, sp, r6, lsl #6
     e34:	03140501 	tsteq	r4, #4194304	; 0x400000
     e38:	05050168 	streq	r0, [r5, #-360]	; 0xfffffe98
     e3c:	03140513 	tsteq	r4, #79691776	; 0x4c00000
     e40:	0505016b 	streq	r0, [r5, #-363]	; 0xfffffe95
     e44:	01160513 	tsteq	r6, r3, lsl r5
     e48:	01062e01 	tsteq	r6, r1, lsl #28
     e4c:	13060505 	movwne	r0, #25861	; 0x6505
     e50:	56031405 	strpl	r1, [r3], -r5, lsl #8
     e54:	13050501 	movwne	r0, #21761	; 0x5501
     e58:	01061005 	tsteq	r6, r5
     e5c:	0609052e 	streq	r0, [r9], -lr, lsr #10
     e60:	110a0519 	tstne	sl, r9, lsl r5
     e64:	01011105 	tsteq	r1, r5, lsl #2
     e68:	0501062e 	streq	r0, [r1, #-1582]	; 0xfffff9d2
     e6c:	0a050123 	beq	141300 <__bss_end__+0x136d80>
     e70:	1b054a2e 	blne	153730 <__bss_end__+0x1491b0>
     e74:	00d70306 	sbcseq	r0, r7, r6, lsl #6
     e78:	01140501 	tsteq	r4, r1, lsl #10
     e7c:	01060505 	tsteq	r6, r5, lsl #10
     e80:	0501044a 	streq	r0, [r1, #-1098]	; 0xfffffbb6
     e84:	0402001b 	streq	r0, [r2], #-27	; 0xffffffe5
     e88:	e3030603 	movw	r0, #13827	; 0x3603
     e8c:	1c05017e 	stfnes	f0, [r5], {126}	; 0x7e
     e90:	03040200 	movweq	r0, #16896	; 0x4200
     e94:	14050106 	strne	r0, [r5], #-262	; 0xfffffefa
     e98:	03040200 	movweq	r0, #16896	; 0x4200
     e9c:	05052e06 	streq	r2, [r5, #-3590]	; 0xfffff1fa
     ea0:	03040200 	movweq	r0, #16896	; 0x4200
     ea4:	4c060106 	stfmis	f0, [r6], {6}
     ea8:	13060105 	movwne	r0, #24837	; 0x6105
     eac:	062d0505 	strteq	r0, [sp], -r5, lsl #10
     eb0:	052e062e 	streq	r0, [lr, #-1582]!	; 0xfffff9d2
     eb4:	0500061c 	streq	r0, [r0, #-1564]	; 0xfffff9e4
     eb8:	0086c002 	addeq	ip, r6, r2
     ebc:	05051500 	streq	r1, [r5, #-1280]	; 0xfffffb00
     ec0:	061c0513 			; <UNDEFINED> instruction: 0x061c0513
     ec4:	2f1b0511 	svccs	0x001b0511
     ec8:	03060605 	movweq	r0, #26117	; 0x6605
     ecc:	14052e79 	strne	r2, [r5], #-3705	; 0xfffff187
     ed0:	06050513 			; <UNDEFINED> instruction: 0x06050513
     ed4:	05020401 	streq	r0, [r2, #-1025]	; 0xfffffbff
     ed8:	4a3d0314 	bmi	f41b30 <__bss_end__+0xf375b0>
     edc:	0d050104 	stfeqs	f0, [r5, #-16]
     ee0:	052e4303 	streq	r4, [lr, #-771]!	; 0xfffffcfd
     ee4:	02042f09 	andeq	r2, r4, #9, 30	; 0x24
     ee8:	3c031005 	stccc	0, cr1, [r3], {5}
     eec:	2e14052e 	cfmul64cs	mvdx0, mvdx4, mvdx14
     ef0:	0501042e 	streq	r0, [r1, #-1070]	; 0xfffffbd2
     ef4:	44030609 	strmi	r0, [r3], #-1545	; 0xfffff9f7
     ef8:	05020401 	streq	r0, [r2, #-1025]	; 0xfffffbff
     efc:	01a20314 			; <UNDEFINED> instruction: 0x01a20314
     f00:	17050501 	strne	r0, [r5, -r1, lsl #10]
     f04:	74031405 	strvc	r1, [r3], #-1029	; 0xfffffbfb
     f08:	13050501 	movwne	r0, #21761	; 0x5501
     f0c:	05010905 	streq	r0, [r1, #-2309]	; 0xfffff6fb
     f10:	01040114 	tsteq	r4, r4, lsl r1
     f14:	03060d05 	movweq	r0, #27909	; 0x6d05
     f18:	04017ee3 	streq	r7, [r1], #-3811	; 0xfffff11d
     f1c:	06090502 	streq	r0, [r9], -r2, lsl #10
     f20:	2e019e03 	cdpcs	14, 0, cr9, cr1, cr3, {0}
     f24:	6f031405 	svcvs	0x00031405
     f28:	13050501 	movwne	r0, #21761	; 0x5501
     f2c:	05160905 	ldreq	r0, [r6, #-2309]	; 0xfffff6fb
     f30:	01610314 	cmneq	r1, r4, lsl r3
     f34:	05130505 	ldreq	r0, [r3, #-1285]	; 0xfffffafb
     f38:	016b0314 	cmneq	fp, r4, lsl r3
     f3c:	05130505 	ldreq	r0, [r3, #-1285]	; 0xfffffafb
     f40:	2e010116 	mcrcs	1, 0, r0, cr1, cr6, {0}
     f44:	05050106 	streq	r0, [r5, #-262]	; 0xfffffefa
     f48:	14051306 	strne	r1, [r5], #-774	; 0xfffffcfa
     f4c:	05015b03 	streq	r5, [r1, #-2819]	; 0xfffff4fd
     f50:	10051305 	andne	r1, r5, r5, lsl #6
     f54:	052e0106 	streq	r0, [lr, #-262]!	; 0xfffffefa
     f58:	0a030609 	beq	c2784 <__bss_end__+0xb8204>
     f5c:	110a0501 	tstne	sl, r1, lsl #10
     f60:	01011105 	tsteq	r1, r5, lsl #2
     f64:	0501062e 	streq	r0, [r1, #-1582]	; 0xfffff9d2
     f68:	0a050123 	beq	1413fc <__bss_end__+0x136e7c>
     f6c:	09054a2e 	stmdbeq	r5, {r1, r2, r3, r5, r9, fp, lr}
     f70:	00cd0306 	sbceq	r0, sp, r6, lsl #6
     f74:	03140501 	tsteq	r4, #4194304	; 0x400000
     f78:	05050168 	streq	r0, [r5, #-360]	; 0xfffffe98
     f7c:	03140513 	tsteq	r4, #79691776	; 0x4c00000
     f80:	0505016b 	streq	r0, [r5, #-363]	; 0xfffffe95
     f84:	01160513 	tsteq	r6, r3, lsl r5
     f88:	01062e01 	tsteq	r6, r1, lsl #28
     f8c:	13060505 	movwne	r0, #25861	; 0x6505
     f90:	56031405 	strpl	r1, [r3], -r5, lsl #8
     f94:	13050501 	movwne	r0, #21761	; 0x5501
     f98:	01061005 	tsteq	r6, r5
     f9c:	0609052e 	streq	r0, [r9], -lr, lsr #10
     fa0:	110a0519 	tstne	sl, r9, lsl r5
     fa4:	01011105 	tsteq	r1, r5, lsl #2
     fa8:	0501062e 	streq	r0, [r1, #-1582]	; 0xfffff9d2
     fac:	0a050123 	beq	141440 <__bss_end__+0x136ec0>
     fb0:	1b054a2e 	blne	153870 <__bss_end__+0x1492f0>
     fb4:	00d70306 	sbcseq	r0, r7, r6, lsl #6
     fb8:	01140501 	tsteq	r4, r1, lsl #10
     fbc:	01060505 	tsteq	r6, r5, lsl #10
     fc0:	06090566 	streq	r0, [r9], -r6, ror #10
     fc4:	03140513 	tsteq	r4, #79691776	; 0x4c00000
     fc8:	0505016f 	streq	r0, [r5, #-367]	; 0xfffffe91
     fcc:	16090513 			; <UNDEFINED> instruction: 0x16090513
     fd0:	61031405 	tstvs	r3, r5, lsl #8
     fd4:	13050501 	movwne	r0, #21761	; 0x5501
     fd8:	6b031405 	blvs	c5ff4 <__bss_end__+0xbba74>
     fdc:	13050501 	movwne	r0, #21761	; 0x5501
     fe0:	01011605 	tsteq	r1, r5, lsl #12
     fe4:	0501062e 	streq	r0, [r1, #-1582]	; 0xfffff9d2
     fe8:	05130605 	ldreq	r0, [r3, #-1541]	; 0xfffff9fb
     fec:	015b0314 	cmpeq	fp, r4, lsl r3
     ff0:	05130505 	ldreq	r0, [r3, #-1285]	; 0xfffffafb
     ff4:	2e010610 	mcrcs	6, 0, r0, cr1, cr0, {0}
     ff8:	03060905 	movweq	r0, #26885	; 0x6905
     ffc:	0a05010a 	beq	14142c <__bss_end__+0x136eac>
    1000:	01110511 	tsteq	r1, r1, lsl r5
    1004:	01062e01 	tsteq	r6, r1, lsl #28
    1008:	05012305 	streq	r2, [r1, #-773]	; 0xfffffcfb
    100c:	054a2e0a 	strbeq	r2, [sl, #-3594]	; 0xfffff1f6
    1010:	cd030609 	stcgt	6, cr0, [r3, #-36]	; 0xffffffdc
    1014:	14050100 	strne	r0, [r5], #-256	; 0xffffff00
    1018:	05016803 	streq	r6, [r1, #-2051]	; 0xfffff7fd
    101c:	14051305 	strne	r1, [r5], #-773	; 0xfffffcfb
    1020:	05016b03 	streq	r6, [r1, #-2819]	; 0xfffff4fd
    1024:	16051305 	strne	r1, [r5], -r5, lsl #6
    1028:	062e0101 	strteq	r0, [lr], -r1, lsl #2
    102c:	06050501 	streq	r0, [r5], -r1, lsl #10
    1030:	03140513 	tsteq	r4, #79691776	; 0x4c00000
    1034:	05050156 	streq	r0, [r5, #-342]	; 0xfffffeaa
    1038:	06100513 			; <UNDEFINED> instruction: 0x06100513
    103c:	09052e01 	stmdbeq	r5, {r0, r9, sl, fp, sp}
    1040:	0a051906 	beq	147460 <__bss_end__+0x13cee0>
    1044:	01110511 	tsteq	r1, r1, lsl r5
    1048:	01062e01 	tsteq	r6, r1, lsl #28
    104c:	05012305 	streq	r2, [r1, #-773]	; 0xfffffcfb
    1050:	054a2e0a 	strbeq	r2, [sl, #-3594]	; 0xfffff1f6
    1054:	d703061b 	smladle	r3, fp, r6, r0
    1058:	14050100 	strne	r0, [r5], #-256	; 0xffffff00
    105c:	06050501 	streq	r0, [r5], -r1, lsl #10
    1060:	09056601 	stmdbeq	r5, {r0, r9, sl, sp, lr}
    1064:	14051306 	strne	r1, [r5], #-774	; 0xfffffcfa
    1068:	05016f03 	streq	r6, [r1, #-3843]	; 0xfffff0fd
    106c:	09051305 	stmdbeq	r5, {r0, r2, r8, r9, ip}
    1070:	03140516 	tsteq	r4, #92274688	; 0x5800000
    1074:	05050161 	streq	r0, [r5, #-353]	; 0xfffffe9f
    1078:	03140513 	tsteq	r4, #79691776	; 0x4c00000
    107c:	0505016b 	streq	r0, [r5, #-363]	; 0xfffffe95
    1080:	01160513 	tsteq	r6, r3, lsl r5
    1084:	01062e01 	tsteq	r6, r1, lsl #28
    1088:	13060505 	movwne	r0, #25861	; 0x6505
    108c:	5b031405 	blpl	c60a8 <__bss_end__+0xbbb28>
    1090:	13050501 	movwne	r0, #21761	; 0x5501
    1094:	01061005 	tsteq	r6, r5
    1098:	0609052e 	streq	r0, [r9], -lr, lsr #10
    109c:	05010a03 	streq	r0, [r1, #-2563]	; 0xfffff5fd
    10a0:	1105110a 	tstne	r5, sl, lsl #2
    10a4:	062e0101 	strteq	r0, [lr], -r1, lsl #2
    10a8:	01230501 			; <UNDEFINED> instruction: 0x01230501
    10ac:	4a2e0a05 	bmi	b838c8 <__bss_end__+0xb79348>
    10b0:	03060905 	movweq	r0, #26885	; 0x6905
    10b4:	050100cd 	streq	r0, [r1, #-205]	; 0xffffff33
    10b8:	01680314 	cmneq	r8, r4, lsl r3
    10bc:	05130505 	ldreq	r0, [r3, #-1285]	; 0xfffffafb
    10c0:	016b0314 	cmneq	fp, r4, lsl r3
    10c4:	05130505 	ldreq	r0, [r3, #-1285]	; 0xfffffafb
    10c8:	2e010116 	mcrcs	1, 0, r0, cr1, cr6, {0}
    10cc:	05050106 	streq	r0, [r5, #-262]	; 0xfffffefa
    10d0:	14051306 	strne	r1, [r5], #-774	; 0xfffffcfa
    10d4:	05015603 	streq	r5, [r1, #-1539]	; 0xfffff9fd
    10d8:	10051305 	andne	r1, r5, r5, lsl #6
    10dc:	052e0106 	streq	r0, [lr, #-262]!	; 0xfffffefa
    10e0:	05190609 	ldreq	r0, [r9, #-1545]	; 0xfffff9f7
    10e4:	1105110a 	tstne	r5, sl, lsl #2
    10e8:	062e0101 	strteq	r0, [lr], -r1, lsl #2
    10ec:	01230501 			; <UNDEFINED> instruction: 0x01230501
    10f0:	4a2e0a05 	bmi	b8390c <__bss_end__+0xb7938c>
    10f4:	03061b05 	movweq	r1, #27397	; 0x6b05
    10f8:	050100d7 	streq	r0, [r1, #-215]	; 0xffffff29
    10fc:	05050114 	streq	r0, [r5, #-276]	; 0xfffffeec
    1100:	044a0106 	strbeq	r0, [sl], #-262	; 0xfffffefa
    1104:	061b0501 	ldreq	r0, [fp], -r1, lsl #10
    1108:	017ee303 	cmneq	lr, r3, lsl #6
    110c:	01061c05 	tsteq	r6, r5, lsl #24
    1110:	2e061405 	cdpcs	4, 0, cr1, cr6, cr5, {0}
    1114:	01060505 	tsteq	r6, r5, lsl #10
    1118:	0514064a 	ldreq	r0, [r4, #-1610]	; 0xfffff9b6
    111c:	05170601 	ldreq	r0, [r7, #-1537]	; 0xfffff9ff
    1120:	052e2905 	streq	r2, [lr, #-2309]!	; 0xfffff6fb
    1124:	0500064b 	streq	r0, [r0, #-1611]	; 0xfffff9b5
    1128:	0087b002 	addeq	fp, r7, r2
    112c:	05051a00 	streq	r1, [r5, #-2560]	; 0xfffff600
    1130:	08051613 	stmdaeq	r5, {r0, r1, r4, r9, sl, ip}
    1134:	16050e06 	strne	r0, [r5], -r6, lsl #28
    1138:	294b0532 	stmdbcs	fp, {r1, r4, r5, r8, sl}^
    113c:	05331605 	ldreq	r1, [r3, #-1541]!	; 0xfffff9fb
    1140:	054b0605 	strbeq	r0, [fp, #-1541]	; 0xfffff9fb
    1144:	05010616 	streq	r0, [r1, #-1558]	; 0xfffff9ea
    1148:	052f0605 	streq	r0, [pc, #-1541]!	; b4b <__code_start__-0x74b5>
    114c:	05010616 	streq	r0, [r1, #-1558]	; 0xfffff9ea
    1150:	02022f01 	andeq	r2, r2, #1, 30
    1154:	5c010100 	stfpls	f0, [r1], {-0}
    1158:	03000002 	movweq	r0, #2
    115c:	0000a700 	andeq	sl, r0, r0, lsl #14
    1160:	fb010200 	blx	4196a <__bss_end__+0x373ea>
    1164:	01000d0e 	tsteq	r0, lr, lsl #26
    1168:	00010101 	andeq	r0, r1, r1, lsl #2
    116c:	00010000 	andeq	r0, r1, r0
    1170:	2f2e0100 	svccs	0x002e0100
    1174:	00637273 	rsbeq	r7, r3, r3, ror r2
    1178:	7070412f 	rsbsvc	r4, r0, pc, lsr #2
    117c:	6163696c 	cmnvs	r3, ip, ror #18
    1180:	6e6f6974 			; <UNDEFINED> instruction: 0x6e6f6974
    1184:	52412f73 	subpl	r2, r1, #460	; 0x1cc
    1188:	696c2f4d 	stmdbvs	ip!, {r0, r2, r3, r6, r8, r9, sl, fp, sp}^
    118c:	63672f62 	cmnvs	r7, #392	; 0x188
    1190:	72612f63 	rsbvc	r2, r1, #396	; 0x18c
    1194:	6f6e2d6d 	svcvs	0x006e2d6d
    1198:	652d656e 	strvs	r6, [sp, #-1390]!	; 0xfffffa92
    119c:	2f696261 	svccs	0x00696261
    11a0:	322e3131 	eorcc	r3, lr, #1073741836	; 0x4000000c
    11a4:	692f312e 	stmdbvs	pc!, {r1, r2, r3, r5, r8, ip, sp}	; <UNPREDICTABLE>
    11a8:	756c636e 	strbvc	r6, [ip, #-878]!	; 0xfffffc92
    11ac:	2f006564 	svccs	0x00006564
    11b0:	72657355 	rsbvc	r7, r5, #1409286145	; 0x54000001
    11b4:	696d2f73 	stmdbvs	sp!, {r0, r1, r4, r5, r6, r8, r9, sl, fp, sp}^
    11b8:	2f73656c 	svccs	0x0073656c
    11bc:	72756f53 	rsbsvc	r6, r5, #332	; 0x14c
    11c0:	632f6563 			; <UNDEFINED> instruction: 0x632f6563
    11c4:	30343273 	eorscc	r3, r4, r3, ror r2
    11c8:	6c2f786c 	stcvs	8, cr7, [pc], #-432	; 1020 <__code_start__-0x6fe0>
    11cc:	69706269 	ldmdbvs	r0!, {r0, r3, r5, r6, r9, sp, lr}^
    11d0:	636e692f 	cmnvs	lr, #770048	; 0xbc000
    11d4:	6564756c 	strbvs	r7, [r4, #-1388]!	; 0xfffffa94
    11d8:	70670000 	rsbvc	r0, r7, r0
    11dc:	632e6f69 			; <UNDEFINED> instruction: 0x632e6f69
    11e0:	00000100 	andeq	r0, r0, r0, lsl #2
    11e4:	69647473 	stmdbvs	r4!, {r0, r1, r4, r5, r6, sl, ip, sp, lr}^
    11e8:	672d746e 	strvs	r7, [sp, -lr, ror #8]!
    11ec:	682e6363 	stmdavs	lr!, {r0, r1, r5, r6, r8, r9, sp, lr}
    11f0:	00000200 	andeq	r0, r0, r0, lsl #4
    11f4:	6f697067 	svcvs	0x00697067
    11f8:	0300682e 	movweq	r6, #2094	; 0x82e
    11fc:	70720000 	rsbsvc	r0, r2, r0
    1200:	00682e69 	rsbeq	r2, r8, r9, ror #28
    1204:	00000003 	andeq	r0, r0, r3
    1208:	05003805 	streq	r3, [r0, #-2053]	; 0xfffff7fb
    120c:	0087d002 	addeq	sp, r7, r2
    1210:	01270300 			; <UNDEFINED> instruction: 0x01270300
    1214:	05130505 	ldreq	r0, [r3, #-1285]	; 0xfffffafb
    1218:	05010607 	streq	r0, [r1, #-1543]	; 0xfffff9f9
    121c:	05490606 	strbeq	r0, [r9, #-1542]	; 0xfffff9fa
    1220:	07051505 	streq	r1, [r5, -r5, lsl #10]
    1224:	38050106 	stmdacc	r5, {r1, r2, r8}
    1228:	4d07052b 	cfstr32mi	mvfx0, [r7, #-172]	; 0xffffff54
    122c:	30060505 	andcc	r0, r6, r5, lsl #10
    1230:	01061805 	tsteq	r6, r5, lsl #16
    1234:	05671c05 	strbeq	r1, [r7, #-3077]!	; 0xfffff3fb
    1238:	18054a0e 	stmdane	r5, {r1, r2, r3, r9, fp, lr}
    123c:	4d12052d 	cfldr32mi	mvfx0, [r2, #-180]	; 0xffffff4c
    1240:	052d2f2e 	streq	r2, [sp, #-3886]!	; 0xfffff0d2
    1244:	05052b0e 	streq	r2, [r5, #-2830]	; 0xfffff4f2
    1248:	13142f06 	tstne	r4, #6, 30
    124c:	01060705 	tsteq	r6, r5, lsl #14
    1250:	2f060505 	svccs	0x00060505
    1254:	054a0613 	strbeq	r0, [sl, #-1555]	; 0xfffff9ed
    1258:	05051301 	streq	r1, [r5, #-769]	; 0xfffffcff
    125c:	24052e2d 	strcs	r2, [r5], #-3629	; 0xfffff1d3
    1260:	02050006 	andeq	r0, r5, #6, 0
    1264:	00008834 	andeq	r8, r0, r4, lsr r8
    1268:	13050515 	movwne	r0, #21781	; 0x5515
    126c:	71030605 	tstvc	r3, r5, lsl #12
    1270:	13050501 	movwne	r0, #21761	; 0x5501
    1274:	01060705 	tsteq	r6, r5, lsl #14
    1278:	49060605 	stmdbmi	r6, {r0, r2, r9, sl}
    127c:	14150505 	ldrne	r0, [r5], #-1285	; 0xfffffafb
    1280:	01061805 	tsteq	r6, r5, lsl #16
    1284:	09032405 	stmdbeq	r3, {r0, r2, sl, sp}
    1288:	0318052e 	tsteq	r8, #192937984	; 0xb800000
    128c:	1c052e77 	stcne	14, cr2, [r5], {119}	; 0x77
    1290:	4a0e054b 	bmi	3827c4 <__bss_end__+0x378244>
    1294:	052d1805 	streq	r1, [sp, #-2053]!	; 0xfffff7fb
    1298:	2f2e4d12 	svccs	0x002e4d12
    129c:	300f052d 	andcc	r0, pc, sp, lsr #10
    12a0:	05290e05 	streq	r0, [r9, #-3589]!	; 0xfffff1fb
    12a4:	142f0605 	strtne	r0, [pc], #-1541	; 12ac <__code_start__-0x6d54>
    12a8:	06070513 			; <UNDEFINED> instruction: 0x06070513
    12ac:	06050501 	streq	r0, [r5], -r1, lsl #10
    12b0:	4a06132f 	bmi	185f74 <__bss_end__+0x17b9f4>
    12b4:	05170105 	ldreq	r0, [r7, #-261]	; 0xfffffefb
    12b8:	052e2905 	streq	r2, [lr, #-2309]!	; 0xfffff6fb
    12bc:	05000627 	streq	r0, [r0, #-1575]	; 0xfffff9d9
    12c0:	00889002 	addeq	r9, r8, r2
    12c4:	05051a00 	streq	r1, [r5, #-2560]	; 0xfffff600
    12c8:	06270513 			; <UNDEFINED> instruction: 0x06270513
    12cc:	2f180511 	svccs	0x00180511
    12d0:	2e2e0505 	cfsh64cs	mvdx0, mvdx14, #5
    12d4:	0628054a 	strteq	r0, [r8], -sl, asr #10
    12d8:	a8020500 	stmdage	r2, {r8, sl}
    12dc:	16000088 	strne	r0, [r0], -r8, lsl #1
    12e0:	05130505 	ldreq	r0, [r3, #-1285]	; 0xfffffafb
    12e4:	05110628 	ldreq	r0, [r1, #-1576]	; 0xfffff9d8
    12e8:	05052f18 	streq	r2, [r5, #-3864]	; 0xfffff0e8
    12ec:	054a2e2e 	strbeq	r2, [sl, #-3630]	; 0xfffff1d2
    12f0:	05000623 	streq	r0, [r0, #-1571]	; 0xfffff9dd
    12f4:	0088c002 	addeq	ip, r8, r2
    12f8:	05051600 	streq	r1, [r5, #-1536]	; 0xfffffa00
    12fc:	03060513 	movweq	r0, #25875	; 0x6513
    1300:	05050162 	streq	r0, [r5, #-354]	; 0xfffffe9e
    1304:	06070513 			; <UNDEFINED> instruction: 0x06070513
    1308:	06060501 	streq	r0, [r6], -r1, lsl #10
    130c:	15050549 	strne	r0, [r5, #-1353]	; 0xfffffab7
    1310:	23051314 	movwcs	r1, #21268	; 0x5314
    1314:	01170306 	tsteq	r7, r6, lsl #6
    1318:	69032205 	stmdbvs	r3, {r0, r2, r9, sp}
    131c:	821c052e 	andshi	r0, ip, #192937984	; 0xb800000
    1320:	2e0e052e 	cfsh32cs	mvfx0, mvfx14, #30
    1324:	30060505 	andcc	r0, r6, r5, lsl #10
    1328:	01061205 	tsteq	r6, r5, lsl #4
    132c:	05052d4b 	streq	r2, [r5, #-3403]	; 0xfffff2b5
    1330:	13132f06 	tstne	r3, #6, 30
    1334:	03061805 	movweq	r1, #26629	; 0x6805
    1338:	0e05017a 	mcreq	1, 0, r0, cr5, cr10, {3}
    133c:	3405054a 	strcc	r0, [r5], #-1354	; 0xfffffab6
    1340:	0301052e 	movweq	r0, #5422	; 0x152e
    1344:	05052e14 	streq	r2, [r5, #-3604]	; 0xfffff1ec
    1348:	2e2e6c03 	cdpcs	12, 2, cr6, cr14, cr3, {0}
    134c:	00062b05 	andeq	r2, r6, r5, lsl #22
    1350:	89180205 	ldmdbhi	r8, {r0, r2, r9}
    1354:	17030000 	strne	r0, [r3, -r0]
    1358:	13050501 	movwne	r0, #21761	; 0x5501
    135c:	01060705 	tsteq	r6, r5, lsl #14
    1360:	71031805 	tstvc	r3, r5, lsl #16
    1364:	032b052e 			; <UNDEFINED> instruction: 0x032b052e
    1368:	07052e0e 	streq	r2, [r5, -lr, lsl #28]
    136c:	0609052f 	streq	r0, [r9], -pc, lsr #10
    1370:	030d052f 	movweq	r0, #54575	; 0xd52f
    1374:	0505016f 	streq	r0, [r5, #-367]	; 0xfffffe91
    1378:	2e2e0613 	mcrcs	6, 1, r0, cr14, cr3, {0}
    137c:	0609052e 	streq	r0, [r9], -lr, lsr #10
    1380:	05011203 	streq	r1, [r1, #-515]	; 0xfffffdfd
    1384:	0172030d 	cmneq	r2, sp, lsl #6
    1388:	06130505 	ldreq	r0, [r3], -r5, lsl #10
    138c:	1d052e2e 	stcne	14, cr2, [r5, #-184]	; 0xffffff48
    1390:	66100306 	ldrvs	r0, [r0], -r6, lsl #6
    1394:	05130505 	ldreq	r0, [r3, #-1285]	; 0xfffffafb
    1398:	0501060e 	streq	r0, [r1, #-1550]	; 0xfffff9f2
    139c:	052e2d1d 	streq	r2, [lr, #-3357]!	; 0xfffff2e3
    13a0:	13300605 	teqne	r0, #5242880	; 0x500000
    13a4:	01061705 	tsteq	r6, r5, lsl #14
    13a8:	2d0e052e 	cfstr32cs	mvfx0, [lr, #-184]	; 0xffffff48
    13ac:	052f2305 	streq	r2, [pc, #-773]!	; 10af <__code_start__-0x6f51>
    13b0:	06022f01 	streq	r2, [r2], -r1, lsl #30
    13b4:	21010100 	mrscs	r0, (UNDEF: 17)
    13b8:	03000001 	movweq	r0, #1
    13bc:	0000be00 	andeq	fp, r0, r0, lsl #28
    13c0:	fb010200 	blx	41bca <__bss_end__+0x3764a>
    13c4:	01000d0e 	tsteq	r0, lr, lsl #26
    13c8:	00010101 	andeq	r0, r1, r1, lsl #2
    13cc:	00010000 	andeq	r0, r1, r0
    13d0:	2f2e0100 	svccs	0x002e0100
    13d4:	6362696c 	cmnvs	r2, #108, 18	; 0x1b0000
    13d8:	73552f00 	cmpvc	r5, #0, 30
    13dc:	2f737265 	svccs	0x00737265
    13e0:	656c696d 	strbvs	r6, [ip, #-2413]!	; 0xfffff693
    13e4:	6f532f73 	svcvs	0x00532f73
    13e8:	65637275 	strbvs	r7, [r3, #-629]!	; 0xfffffd8b
    13ec:	3273632f 	rsbscc	r6, r3, #-1140850688	; 0xbc000000
    13f0:	786c3034 	stmdavc	ip!, {r2, r4, r5, ip, sp}^
    13f4:	62696c2f 	rsbvs	r6, r9, #12032	; 0x2f00
    13f8:	692f6970 	stmdbvs	pc!, {r4, r5, r6, r8, fp, sp, lr}	; <UNPREDICTABLE>
    13fc:	756c636e 	strbvc	r6, [ip, #-878]!	; 0xfffffc92
    1400:	2f006564 	svccs	0x00006564
    1404:	2f74706f 	svccs	0x0074706f
    1408:	656d6f68 	strbvs	r6, [sp, #-3944]!	; 0xfffff098
    140c:	77657262 	strbvc	r7, [r5, -r2, ror #4]!
    1410:	6c65432f 	stclvs	3, cr4, [r5], #-188	; 0xffffff44
    1414:	2f72616c 	svccs	0x0072616c
    1418:	2d6d7261 	sfmcs	f7, 2, [sp, #-388]!	; 0xfffffe7c
    141c:	656e6f6e 	strbvs	r6, [lr, #-3950]!	; 0xfffff092
    1420:	6261652d 	rsbvs	r6, r1, #188743680	; 0xb400000
    1424:	2f392d69 	svccs	0x00392d69
    1428:	30322d39 	eorscc	r2, r2, r9, lsr sp
    142c:	34713931 	ldrbtcc	r3, [r1], #-2353	; 0xfffff6cf
    1430:	3173632d 	cmncc	r3, sp, lsr #6
    1434:	2f653730 	svccs	0x00653730
    1438:	2f62696c 	svccs	0x0062696c
    143c:	2f636367 	svccs	0x00636367
    1440:	2d6d7261 	sfmcs	f7, 2, [sp, #-388]!	; 0xfffffe7c
    1444:	656e6f6e 	strbvs	r6, [lr, #-3950]!	; 0xfffff092
    1448:	6261652d 	rsbvs	r6, r1, #188743680	; 0xb400000
    144c:	2e392f69 	cdpcs	15, 3, cr2, cr9, cr9, {3}
    1450:	2f312e32 	svccs	0x00312e32
    1454:	6c636e69 	stclvs	14, cr6, [r3], #-420	; 0xfffffe5c
    1458:	00656475 	rsbeq	r6, r5, r5, ror r4
    145c:	6d656d00 	stclvs	13, cr6, [r5, #-0]
    1460:	2e746573 	mrccs	5, 3, r6, cr4, cr3, {3}
    1464:	00010063 	andeq	r0, r1, r3, rrx
    1468:	69707200 	ldmdbvs	r0!, {r9, ip, sp, lr}^
    146c:	0200682e 	andeq	r6, r0, #3014656	; 0x2e0000
    1470:	74730000 	ldrbtvc	r0, [r3], #-0
    1474:	66656464 	strbtvs	r6, [r5], -r4, ror #8
    1478:	0300682e 	movweq	r6, #2094	; 0x82e
    147c:	05000000 	streq	r0, [r0, #-0]
    1480:	02050029 	andeq	r0, r5, #41, 0	; 0x29
    1484:	00008970 	andeq	r8, r0, r0, ror r9
    1488:	13050515 	movwne	r0, #21781	; 0x5515
    148c:	11062905 	tstne	r6, r5, lsl #18
    1490:	052f1405 	streq	r1, [pc, #-1029]!	; 1093 <__code_start__-0x6f6d>
    1494:	05300605 	ldreq	r0, [r0, #-1541]!	; 0xfffff9fb
    1498:	9e06010a 	adflss	f0, f6, #2.0
    149c:	d7060905 	strle	r0, [r6, -r5, lsl #18]
    14a0:	01060e05 	tsteq	r6, r5, lsl #28
    14a4:	2d060a05 	vstrcs	s0, [r6, #-20]	; 0xffffffec
    14a8:	05bb0905 	ldreq	r0, [fp, #2309]!	; 0x905
    14ac:	2e01060e 	cfmadd32cs	mvax0, mvfx0, mvfx1, mvfx14
    14b0:	2d060a05 	vstrcs	s0, [r6, #-20]	; 0xffffffec
    14b4:	054b0905 	strbeq	r0, [fp, #-2309]	; 0xfffff6fb
    14b8:	0501060b 	streq	r0, [r1, #-1547]	; 0xfffff9f5
    14bc:	0e052d0a 	cdpeq	13, 0, cr2, cr5, cr10, {0}
    14c0:	060a052f 	streq	r0, [sl], -pc, lsr #10
    14c4:	060e052d 	streq	r0, [lr], -sp, lsr #10
    14c8:	06090513 			; <UNDEFINED> instruction: 0x06090513
    14cc:	110a052e 	tstne	sl, lr, lsr #10
    14d0:	05140505 	ldreq	r0, [r4, #-1285]	; 0xfffffafb
    14d4:	02130601 	andseq	r0, r3, #1048576	; 0x100000
    14d8:	01010002 	tsteq	r1, r2
    14dc:	00000120 	andeq	r0, r0, r0, lsr #2
    14e0:	00db0003 	sbcseq	r0, fp, r3
    14e4:	01020000 	mrseq	r0, (UNDEF: 2)
    14e8:	000d0efb 	strdeq	r0, [sp], -fp
    14ec:	01010101 	tsteq	r1, r1, lsl #2
    14f0:	01000000 	mrseq	r0, (UNDEF: 0)
    14f4:	2e010000 	cdpcs	0, 0, cr0, cr1, cr0, {0}
    14f8:	62696c2f 	rsbvs	r6, r9, #12032	; 0x2f00
    14fc:	6f2f0063 	svcvs	0x002f0063
    1500:	682f7470 	stmdavs	pc!, {r4, r5, r6, sl, ip, sp, lr}	; <UNPREDICTABLE>
    1504:	62656d6f 	rsbvs	r6, r5, #7104	; 0x1bc0
    1508:	2f776572 	svccs	0x00776572
    150c:	6c6c6543 	cfstr64vs	mvdx6, [ip], #-268	; 0xfffffef4
    1510:	612f7261 			; <UNDEFINED> instruction: 0x612f7261
    1514:	6e2d6d72 	mcrvs	13, 1, r6, cr13, cr2, {3}
    1518:	2d656e6f 	stclcs	14, cr6, [r5, #-444]!	; 0xfffffe44
    151c:	69626165 	stmdbvs	r2!, {r0, r2, r5, r6, r8, sp, lr}^
    1520:	392f392d 	stmdbcc	pc!, {r0, r2, r3, r5, r8, fp, ip, sp}	; <UNPREDICTABLE>
    1524:	3130322d 	teqcc	r0, sp, lsr #4
    1528:	2d347139 	ldfcss	f7, [r4, #-228]!	; 0xffffff1c
    152c:	30317363 	eorscc	r7, r1, r3, ror #6
    1530:	6c2f6537 	cfstr32vs	mvfx6, [pc], #-220	; 145c <__code_start__-0x6ba4>
    1534:	672f6269 	strvs	r6, [pc, -r9, ror #4]!
    1538:	612f6363 			; <UNDEFINED> instruction: 0x612f6363
    153c:	6e2d6d72 	mcrvs	13, 1, r6, cr13, cr2, {3}
    1540:	2d656e6f 	stclcs	14, cr6, [r5, #-444]!	; 0xfffffe44
    1544:	69626165 	stmdbvs	r2!, {r0, r2, r5, r6, r8, sp, lr}^
    1548:	322e392f 	eorcc	r3, lr, #770048	; 0xbc000
    154c:	692f312e 	stmdbvs	pc!, {r1, r2, r3, r5, r8, ip, sp}	; <UNPREDICTABLE>
    1550:	756c636e 	strbvc	r6, [ip, #-878]!	; 0xfffffc92
    1554:	2f006564 	svccs	0x00006564
    1558:	72657355 	rsbvc	r7, r5, #1409286145	; 0x54000001
    155c:	696d2f73 	stmdbvs	sp!, {r0, r1, r4, r5, r6, r8, r9, sl, fp, sp}^
    1560:	2f73656c 	svccs	0x0073656c
    1564:	72756f53 	rsbsvc	r6, r5, #332	; 0x14c
    1568:	632f6563 			; <UNDEFINED> instruction: 0x632f6563
    156c:	30343273 	eorscc	r3, r4, r3, ror r2
    1570:	6c2f786c 	stcvs	8, cr7, [pc], #-432	; 13c8 <__code_start__-0x6c38>
    1574:	69706269 	ldmdbvs	r0!, {r0, r3, r5, r6, r9, sp, lr}^
    1578:	636e692f 	cmnvs	lr, #770048	; 0xbc000
    157c:	6564756c 	strbvs	r7, [r4, #-1388]!	; 0xfffffa94
    1580:	72700000 	rsbsvc	r0, r0, #0, 0
    1584:	6b746e69 	blvs	1d1cf30 <__bss_end__+0x1d129b0>
    1588:	0100632e 	tsteq	r0, lr, lsr #6
    158c:	74730000 	ldrbtvc	r0, [r3], #-0
    1590:	67726164 	ldrbvs	r6, [r2, -r4, ror #2]!
    1594:	0200682e 	andeq	r6, r0, #3014656	; 0x2e0000
    1598:	70720000 	rsbsvc	r0, r2, r0
    159c:	00682e69 	rsbeq	r2, r8, r9, ror #28
    15a0:	3c000003 	stccc	0, cr0, [r0], {3}
    15a4:	6c697562 	cfstr64vs	mvdx7, [r9], #-392	; 0xfffffe78
    15a8:	6e692d74 	mcrvs	13, 3, r2, cr9, cr4, {3}
    15ac:	0000003e 	andeq	r0, r0, lr, lsr r0
    15b0:	2d617600 	stclcs	6, cr7, [r1, #-0]
    15b4:	6e697270 	mcrvs	2, 3, r7, cr9, cr0, {3}
    15b8:	682e6b74 	stmdavs	lr!, {r2, r4, r5, r6, r8, r9, fp, sp, lr}
    15bc:	00000100 	andeq	r0, r0, r0, lsl #2
    15c0:	00220500 	eoreq	r0, r2, r0, lsl #10
    15c4:	89e80205 	stmibhi	r8!, {r0, r2, r9}^
    15c8:	05170000 	ldreq	r0, [r7, #-0]
    15cc:	14131405 	ldrne	r1, [r3], #-1029	; 0xfffffbfb
    15d0:	0d062205 	sfmeq	f2, 4, [r6, #-20]	; 0xffffffec
    15d4:	05501205 	ldrbeq	r1, [r0, #-517]	; 0xfffffdfb
    15d8:	2e7a0322 	cdpcs	3, 7, cr0, cr10, cr2, {1}
    15dc:	05330505 	ldreq	r0, [r3, #-1285]!	; 0xfffffafb
    15e0:	05052f12 	streq	r2, [r5, #-3858]	; 0xfffff0ee
    15e4:	06090565 	streq	r0, [r9], -r5, ror #10
    15e8:	0612052f 	ldreq	r0, [r2], -pc, lsr #10
    15ec:	06050501 	streq	r0, [r5], -r1, lsl #10
    15f0:	4a06164b 	bmi	186f24 <__bss_end__+0x17c9a4>
    15f4:	01055006 	tsteq	r5, r6
    15f8:	02661306 	rsbeq	r1, r6, #402653184	; 0x18000000
    15fc:	01010008 	tsteq	r1, r8
    1600:	000000a0 	andeq	r0, r0, r0, lsr #1
    1604:	00570003 	subseq	r0, r7, r3
    1608:	01020000 	mrseq	r0, (UNDEF: 2)
    160c:	000d0efb 	strdeq	r0, [sp], -fp
    1610:	01010101 	tsteq	r1, r1, lsl #2
    1614:	01000000 	mrseq	r0, (UNDEF: 0)
    1618:	2e010000 	cdpcs	0, 0, cr0, cr1, cr0, {0}
    161c:	62696c2f 	rsbvs	r6, r9, #12032	; 0x2f00
    1620:	552f0063 	strpl	r0, [pc, #-99]!	; 15c5 <__code_start__-0x6a3b>
    1624:	73726573 	cmnvc	r2, #482344960	; 0x1cc00000
    1628:	6c696d2f 	stclvs	13, cr6, [r9], #-188	; 0xffffff44
    162c:	532f7365 			; <UNDEFINED> instruction: 0x532f7365
    1630:	6372756f 	cmnvs	r2, #465567744	; 0x1bc00000
    1634:	73632f65 	cmnvc	r3, #404	; 0x194
    1638:	6c303432 	cfldrsvs	mvf3, [r0], #-200	; 0xffffff38
    163c:	696c2f78 	stmdbvs	ip!, {r3, r4, r5, r6, r8, r9, sl, fp, sp}^
    1640:	2f697062 	svccs	0x00697062
    1644:	6c636e69 	stclvs	14, cr6, [r3], #-420	; 0xfffffe5c
    1648:	00656475 	rsbeq	r6, r5, r5, ror r4
    164c:	74757000 	ldrbtvc	r7, [r5], #-0
    1650:	00632e6b 	rsbeq	r2, r3, fp, ror #28
    1654:	72000001 	andvc	r0, r0, #1, 0
    1658:	682e6970 	stmdavs	lr!, {r4, r5, r6, r8, fp, sp, lr}
    165c:	00000200 	andeq	r0, r0, r0, lsl #4
    1660:	00220500 	eoreq	r0, r2, r0, lsl #10
    1664:	8a400205 	bhi	1001e80 <__bss_end__+0xff7900>
    1668:	05150000 	ldreq	r0, [r5, #-0]
    166c:	22051305 	andcs	r1, r5, #335544320	; 0x14000000
    1670:	052e1106 	streq	r1, [lr, #-262]!	; 0xfffffefa
    1674:	052f060b 	streq	r0, [pc, #-1547]!	; 1071 <__code_start__-0x6f8f>
    1678:	052e0605 	streq	r0, [lr, #-1541]!	; 0xfffff9fb
    167c:	04020009 	streq	r0, [r2], #-9
    1680:	05670602 	strbeq	r0, [r7, #-1538]!	; 0xfffff9fe
    1684:	0402000f 	streq	r0, [r2], #-15
    1688:	0b054902 	bleq	153a98 <__bss_end__+0x149518>
    168c:	02040200 	andeq	r0, r4, #0, 4
    1690:	00050501 	andeq	r0, r5, r1, lsl #10
    1694:	06020402 	streq	r0, [r2], -r2, lsl #8
    1698:	054e062e 	strbeq	r0, [lr, #-1582]	; 0xfffff9d2
    169c:	02130601 	andseq	r0, r3, #1048576	; 0x100000
    16a0:	01010006 	tsteq	r1, r6
    16a4:	000008fa 	strdeq	r0, [r0], -sl
    16a8:	00f10003 	rscseq	r0, r1, r3
    16ac:	01020000 	mrseq	r0, (UNDEF: 2)
    16b0:	000d0efb 	strdeq	r0, [sp], -fp
    16b4:	01010101 	tsteq	r1, r1, lsl #2
    16b8:	01000000 	mrseq	r0, (UNDEF: 0)
    16bc:	2e010000 	cdpcs	0, 0, cr0, cr1, cr0, {0}
    16c0:	62696c2f 	rsbvs	r6, r9, #12032	; 0x2f00
    16c4:	6f2f0063 	svcvs	0x002f0063
    16c8:	682f7470 	stmdavs	pc!, {r4, r5, r6, sl, ip, sp, lr}	; <UNPREDICTABLE>
    16cc:	62656d6f 	rsbvs	r6, r5, #7104	; 0x1bc0
    16d0:	2f776572 	svccs	0x00776572
    16d4:	6c6c6543 	cfstr64vs	mvdx6, [ip], #-268	; 0xfffffef4
    16d8:	612f7261 			; <UNDEFINED> instruction: 0x612f7261
    16dc:	6e2d6d72 	mcrvs	13, 1, r6, cr13, cr2, {3}
    16e0:	2d656e6f 	stclcs	14, cr6, [r5, #-444]!	; 0xfffffe44
    16e4:	69626165 	stmdbvs	r2!, {r0, r2, r5, r6, r8, sp, lr}^
    16e8:	392f392d 	stmdbcc	pc!, {r0, r2, r3, r5, r8, fp, ip, sp}	; <UNPREDICTABLE>
    16ec:	3130322d 	teqcc	r0, sp, lsr #4
    16f0:	2d347139 	ldfcss	f7, [r4, #-228]!	; 0xffffff1c
    16f4:	30317363 	eorscc	r7, r1, r3, ror #6
    16f8:	6c2f6537 	cfstr32vs	mvfx6, [pc], #-220	; 1624 <__code_start__-0x69dc>
    16fc:	672f6269 	strvs	r6, [pc, -r9, ror #4]!
    1700:	612f6363 			; <UNDEFINED> instruction: 0x612f6363
    1704:	6e2d6d72 	mcrvs	13, 1, r6, cr13, cr2, {3}
    1708:	2d656e6f 	stclcs	14, cr6, [r5, #-444]!	; 0xfffffe44
    170c:	69626165 	stmdbvs	r2!, {r0, r2, r5, r6, r8, sp, lr}^
    1710:	322e392f 	eorcc	r3, lr, #770048	; 0xbc000
    1714:	692f312e 	stmdbvs	pc!, {r1, r2, r3, r5, r8, ip, sp}	; <UNPREDICTABLE>
    1718:	756c636e 	strbvc	r6, [ip, #-878]!	; 0xfffffc92
    171c:	2f006564 	svccs	0x00006564
    1720:	72657355 	rsbvc	r7, r5, #1409286145	; 0x54000001
    1724:	696d2f73 	stmdbvs	sp!, {r0, r1, r4, r5, r6, r8, r9, sl, fp, sp}^
    1728:	2f73656c 	svccs	0x0073656c
    172c:	72756f53 	rsbsvc	r6, r5, #332	; 0x14c
    1730:	632f6563 			; <UNDEFINED> instruction: 0x632f6563
    1734:	30343273 	eorscc	r3, r4, r3, ror r2
    1738:	6c2f786c 	stcvs	8, cr7, [pc], #-432	; 1590 <__code_start__-0x6a70>
    173c:	69706269 	ldmdbvs	r0!, {r0, r3, r5, r6, r9, sp, lr}^
    1740:	636e692f 	cmnvs	lr, #770048	; 0xbc000
    1744:	6564756c 	strbvs	r7, [r4, #-1388]!	; 0xfffffa94
    1748:	61760000 	cmnvs	r6, r0
    174c:	6972702d 	ldmdbvs	r2!, {r0, r2, r3, r5, ip, sp, lr}^
    1750:	2e6b746e 	cdpcs	4, 6, cr7, cr11, cr14, {3}
    1754:	00010063 	andeq	r0, r1, r3, rrx
    1758:	64747300 	ldrbtvs	r7, [r4], #-768	; 0xfffffd00
    175c:	2d746e69 	ldclcs	14, cr6, [r4, #-420]!	; 0xfffffe5c
    1760:	2e636367 	cdpcs	3, 6, cr6, cr3, cr7, {3}
    1764:	00020068 	andeq	r0, r2, r8, rrx
    1768:	69707200 	ldmdbvs	r0!, {r9, ip, sp, lr}^
    176c:	0300682e 	movweq	r6, #2094	; 0x82e
    1770:	70720000 	rsbsvc	r0, r2, r0
    1774:	6e692d69 	cdpvs	13, 6, cr2, cr9, cr9, {3}
    1778:	6e726574 	mrcvs	5, 3, r6, cr2, cr4, {3}
    177c:	682e6c61 	stmdavs	lr!, {r0, r5, r6, sl, fp, sp, lr}
    1780:	00000300 	andeq	r0, r0, r0, lsl #6
    1784:	61647473 	smcvs	18243	; 0x4743
    1788:	682e6772 	stmdavs	lr!, {r1, r4, r5, r6, r8, r9, sl, sp, lr}
    178c:	00000200 	andeq	r0, r0, r0, lsl #4
    1790:	6975623c 	ldmdbvs	r5!, {r2, r3, r4, r5, r9, sp, lr}^
    1794:	692d746c 	pushvs	{r2, r3, r5, r6, sl, ip, sp, lr}
    1798:	00003e6e 	andeq	r3, r0, lr, ror #28
    179c:	05000000 	streq	r0, [r0, #-0]
    17a0:	02050001 	andeq	r0, r5, #1, 0
    17a4:	00008a78 	andeq	r8, r0, r8, ror sl
    17a8:	0100c803 	tsteq	r0, r3, lsl #16
    17ac:	05140205 	ldreq	r0, [r4, #-517]	; 0xfffffdfb
    17b0:	05100601 	ldreq	r0, [r0, #-1537]	; 0xfffff9ff
    17b4:	01053004 	tsteq	r5, r4
    17b8:	04054a2c 	streq	r4, [r5], #-2604	; 0xfffff5d4
    17bc:	06020530 			; <UNDEFINED> instruction: 0x06020530
    17c0:	0b051331 	bleq	14648c <__bss_end__+0x13bf0c>
    17c4:	02052e06 	andeq	r2, r5, #96	; 0x60
    17c8:	09053006 	stmdbeq	r5, {r1, r2, ip, sp}
    17cc:	0d240206 	sfmeq	f0, 4, [r4, #-24]!	; 0xffffffe8
    17d0:	0d052e2e 	stceq	14, cr2, [r5, #-184]	; 0xffffff48
    17d4:	4a170306 	bmi	5c23f4 <__bss_end__+0x5b7e74>
    17d8:	05131105 	ldreq	r1, [r3, #-261]	; 0xfffffefb
    17dc:	0501062d 	streq	r0, [r1, #-1581]	; 0xfffff9d3
    17e0:	0d052e16 	stceq	14, cr2, [r5, #-88]	; 0xffffffa8
    17e4:	2d16052f 	cfldr32cs	mvfx0, [r6, #-188]	; 0xffffff44
    17e8:	2f061405 	svccs	0x00061405
    17ec:	01061705 	tsteq	r6, r5, lsl #14
    17f0:	062e0d05 	strteq	r0, [lr], -r5, lsl #26
    17f4:	0612052f 	ldreq	r0, [r2], -pc, lsr #10
    17f8:	2d2f2e01 	stccs	14, cr2, [pc, #-4]!	; 17fc <__code_start__-0x6804>
    17fc:	2f060d05 	svccs	0x00060d05
    1800:	01061205 	tsteq	r6, r5, lsl #4
    1804:	2f061905 	svccs	0x00061905
    1808:	11030405 	tstne	r3, r5, lsl #8
    180c:	02050101 	andeq	r0, r5, #1073741824	; 0x40000000
    1810:	030e0515 	movweq	r0, #58645	; 0xe515
    1814:	05017fb2 	streq	r7, [r1, #-4018]	; 0xfffff04e
    1818:	06051302 	streq	r1, [r5], -r2, lsl #6
    181c:	02050106 	andeq	r0, r5, #-2147483647	; 0x80000001
    1820:	08053006 	stmdaeq	r5, {r1, r2, ip, sp}
    1824:	06020501 	streq	r0, [r2], -r1, lsl #10
    1828:	08054a01 	stmdaeq	r5, {r0, r9, fp, lr}
    182c:	03059108 	movweq	r9, #20744	; 0x5108
    1830:	08054a06 	stmdaeq	r5, {r1, r2, r9, fp, lr}
    1834:	15050106 	strne	r0, [r5, #-262]	; 0xfffffefa
    1838:	08052d06 	stmdaeq	r5, {r1, r2, r8, sl, fp, sp}
    183c:	d7030501 	strle	r0, [r3, -r1, lsl #10]
    1840:	01060805 	tsteq	r6, r5, lsl #16
    1844:	052d1805 	streq	r1, [sp, #-2053]!	; 0xfffff7fb
    1848:	08052e02 	stmdaeq	r5, {r1, r9, sl, fp, sp}
    184c:	0615052f 	ldreq	r0, [r5], -pc, lsr #10
    1850:	0108052d 	tsteq	r8, sp, lsr #10
    1854:	01060205 	tsteq	r6, r5, lsl #4
    1858:	2f060305 	svccs	0x00060305
    185c:	11061805 	tstne	r6, r5, lsl #16
    1860:	052e0205 	streq	r0, [lr, #-517]!	; 0xfffffdfb
    1864:	15052f08 	strne	r2, [r5, #-3848]	; 0xfffff0f8
    1868:	08052d06 	stmdaeq	r5, {r1, r2, r8, sl, fp, sp}
    186c:	13030501 	movwne	r0, #13569	; 0x3501
    1870:	01060805 	tsteq	r6, r5, lsl #16
    1874:	2d061505 	cfstr32cs	mvfx1, [r6, #-20]	; 0xffffffec
    1878:	06010805 	streq	r0, [r1], -r5, lsl #16
    187c:	06020501 	streq	r0, [r2], -r1, lsl #10
    1880:	060505a0 	streq	r0, [r5], -r0, lsr #11
    1884:	36040501 	strcc	r0, [r4], -r1, lsl #10
    1888:	052f1105 	streq	r1, [pc, #-261]!	; 178b <__code_start__-0x6875>
    188c:	02052e09 	andeq	r2, r5, #144	; 0x90
    1890:	03050533 	movweq	r0, #21811	; 0x5533
    1894:	02052e72 	andeq	r2, r5, #1824	; 0x720
    1898:	01062f06 	tsteq	r6, r6, lsl #30
    189c:	16060e05 	strne	r0, [r6], -r5, lsl #28
    18a0:	13140205 	tstne	r4, #1342177280	; 0x50000000
    18a4:	05130305 	ldreq	r0, [r3, #-773]	; 0xfffffcfb
    18a8:	05151402 	ldreq	r1, [r5, #-1026]	; 0xfffffbfe
    18ac:	0205010b 	andeq	r0, r5, #-1073741822	; 0xc0000002
    18b0:	052e0106 	streq	r0, [lr, #-262]!	; 0xfffffefa
    18b4:	05670603 	strbeq	r0, [r7, #-1539]!	; 0xfffff9fd
    18b8:	0501060a 	streq	r0, [r1, #-1546]	; 0xfffff9f6
    18bc:	0a052d02 	beq	14cccc <__bss_end__+0x14274c>
    18c0:	0617052f 	ldreq	r0, [r7], -pc, lsr #10
    18c4:	010b052d 	tsteq	fp, sp, lsr #10
    18c8:	01060205 	tsteq	r6, r5, lsl #4
    18cc:	2e4c0905 	vmlacs.f16	s1, s24, s10	; <UNPREDICTABLE>
    18d0:	2e060205 	cdpcs	2, 0, cr0, cr6, cr5, {0}
    18d4:	01060905 	tsteq	r6, r5, lsl #18
    18d8:	30060205 	andcc	r0, r6, r5, lsl #4
    18dc:	01050106 	tsteq	r5, r6, lsl #2
    18e0:	05013803 	streq	r3, [r1, #-2051]	; 0xfffff7fd
    18e4:	4a4f0309 	bmi	13c2510 <__bss_end__+0x13b7f90>
    18e8:	19052e2e 	stmdbne	r5, {r1, r2, r3, r5, r9, sl, fp, sp}
    18ec:	4a270306 	bmi	9c250c <__bss_end__+0x9b7f8c>
    18f0:	05131a05 	ldreq	r1, [r3, #-2565]	; 0xfffff5fb
    18f4:	05010628 	streq	r0, [r1, #-1576]	; 0xfffff9d8
    18f8:	04052e1f 	streq	r2, [r5], #-3615	; 0xfffff1e1
    18fc:	2d1f052f 	cfldr32cs	mvfx0, [pc, #-188]	; 1848 <__code_start__-0x67b8>
    1900:	2f060b05 	svccs	0x00060b05
    1904:	01060e05 	tsteq	r6, r5, lsl #28
    1908:	052e0405 	streq	r0, [lr, #-1029]!	; 0xfffffbfb
    190c:	59030602 	stmdbpl	r3, {r1, r9, sl}
    1910:	0b05134a 	bleq	146640 <__bss_end__+0x13c0c0>
    1914:	02052e06 	andeq	r2, r5, #96	; 0x60
    1918:	09053006 	stmdbeq	r5, {r1, r2, ip, sp}
    191c:	0d240206 	sfmeq	f0, 4, [r4, #-24]!	; 0xffffffe8
    1920:	36060405 	strcc	r0, [r6], -r5, lsl #8
    1924:	06060513 			; <UNDEFINED> instruction: 0x06060513
    1928:	06050501 	streq	r0, [r5], -r1, lsl #10
    192c:	05131367 	ldreq	r1, [r3, #-871]	; 0xfffffc99
    1930:	05110609 	ldreq	r0, [r1, #-1545]	; 0xfffff9f7
    1934:	0b052b0d 	bleq	14c570 <__bss_end__+0x141ff0>
    1938:	2c0d0530 	cfstr32cs	mvfx0, [sp], {48}	; 0x30
    193c:	05351b05 	ldreq	r1, [r5, #-2821]!	; 0xfffff4fb
    1940:	052d0604 	streq	r0, [sp, #-1540]!	; 0xfffff9fc
    1944:	1b051305 	blne	146560 <__bss_end__+0x13bfe0>
    1948:	0a052e06 	beq	14d168 <__bss_end__+0x142be8>
    194c:	2f040582 	svccs	0x00040582
    1950:	052e0e05 	streq	r0, [lr, #-3589]!	; 0xfffff1fb
    1954:	0b05490a 	bleq	153d84 <__bss_end__+0x149804>
    1958:	04052f06 	streq	r2, [r5], #-3846	; 0xfffff0fa
    195c:	2f060106 	svccs	0x00060106
    1960:	01060605 	tsteq	r6, r5, lsl #12
    1964:	2f060505 	svccs	0x00060505
    1968:	01060a05 	tsteq	r6, r5, lsl #20
    196c:	2e07052e 	cfsh32cs	mvfx0, mvfx7, #30
    1970:	04052e2e 	streq	r2, [r5], #-3630	; 0xfffff1d2
    1974:	010d0306 	tsteq	sp, r6, lsl #6
    1978:	03060205 	movweq	r0, #25093	; 0x6205
    197c:	09050146 	stmdbeq	r5, {r1, r2, r6, r8}
    1980:	052e3a03 	streq	r3, [lr, #-2563]!	; 0xfffff5fd
    1984:	032f0604 			; <UNDEFINED> instruction: 0x032f0604
    1988:	0501010d 	streq	r0, [r1, #-269]	; 0xfffffef3
    198c:	0e051502 	cfsh32eq	mvfx1, mvfx5, #2
    1990:	017fb203 	cmneq	pc, r3, lsl #4
    1994:	14130205 	ldrne	r0, [r3], #-517	; 0xfffffdfb
    1998:	05010805 	streq	r0, [r1, #-2053]	; 0xfffff7fb
    199c:	03100606 	tsteq	r0, #6291456	; 0x600000
    19a0:	02052e3c 	andeq	r2, r5, #60, 28	; 0x3c0
    19a4:	064a4603 	strbeq	r4, [sl], -r3, lsl #12
    19a8:	06050530 			; <UNDEFINED> instruction: 0x06050530
    19ac:	052e2e01 	streq	r2, [lr, #-3585]!	; 0xfffff1ff
    19b0:	064b0602 	strbeq	r0, [fp], -r2, lsl #12
    19b4:	060e0501 	streq	r0, [lr], -r1, lsl #10
    19b8:	14020516 	strne	r0, [r2], #-1302	; 0xfffffaea
    19bc:	05151513 	ldreq	r1, [r5, #-1299]	; 0xfffffaed
    19c0:	0205010b 	andeq	r0, r5, #-1073741822	; 0xc0000002
    19c4:	30062e06 	andcc	r2, r6, r6, lsl #28
    19c8:	01060905 	tsteq	r6, r5, lsl #18
    19cc:	4c060205 	sfmmi	f0, 4, [r6], {5}
    19d0:	01050106 	tsteq	r5, r6, lsl #2
    19d4:	05013803 	streq	r3, [r1, #-2051]	; 0xfffff7fd
    19d8:	4a6e0306 	bmi	1b825f8 <__bss_end__+0x1b78078>
    19dc:	46030205 	strmi	r0, [r3], -r5, lsl #4
    19e0:	052e4a66 	streq	r4, [lr, #-2662]!	; 0xfffff59a
    19e4:	c8030604 	stmdagt	r3, {r2, r9, sl}
    19e8:	01010100 	mrseq	r0, (UNDEF: 17)
    19ec:	822e0601 	eorhi	r0, lr, #1048576	; 0x100000
    19f0:	72034a06 	andvc	r4, r3, #24576	; 0x6000
    19f4:	0609052e 	streq	r0, [r9], -lr, lsr #10
    19f8:	06040501 	streq	r0, [r4], -r1, lsl #10
    19fc:	010d032f 	tsteq	sp, pc, lsr #6
    1a00:	15020501 	strne	r0, [r2, #-1281]	; 0xfffffaff
    1a04:	b2030e05 	andlt	r0, r3, #80	; 0x50
    1a08:	0205017f 	andeq	r0, r5, #-1073741793	; 0xc000001f
    1a0c:	08051413 	stmdaeq	r5, {r0, r1, r4, sl, ip}
    1a10:	06090501 	streq	r0, [r9], -r1, lsl #10
    1a14:	05011b03 	streq	r1, [r1, #-2819]	; 0xfffff4fd
    1a18:	2e630306 	cdpcs	3, 6, cr0, cr3, cr6, {0}
    1a1c:	2e2e3c03 	cdpcs	12, 2, cr3, cr14, cr3, {0}
    1a20:	0648052e 	strbeq	r0, [r8], -lr, lsr #10
    1a24:	087fb403 	ldmdaeq	pc!, {r0, r1, sl, ip, sp, pc}^	; <UNPREDICTABLE>
    1a28:	1305053c 	movwne	r0, #21820	; 0x553c
    1a2c:	002e0601 	eoreq	r0, lr, r1, lsl #12
    1a30:	06020402 	streq	r0, [r2], -r2, lsl #8
    1a34:	0402002e 	streq	r0, [r2], #-46	; 0xffffffd2
    1a38:	02000102 	andeq	r0, r0, #-2147483648	; 0x80000000
    1a3c:	05130204 	ldreq	r0, [r3, #-516]	; 0xfffffdfc
    1a40:	04020011 	streq	r0, [r2], #-17	; 0xffffffef
    1a44:	05010602 	streq	r0, [r1, #-1538]	; 0xfffff9fe
    1a48:	04020007 	streq	r0, [r2], #-7
    1a4c:	11052f02 	tstne	r5, r2, lsl #30
    1a50:	02040200 	andeq	r0, r4, #0, 4
    1a54:	0005052d 	andeq	r0, r5, sp, lsr #10
    1a58:	06020402 	streq	r0, [r2], -r2, lsl #8
    1a5c:	0009052f 	andeq	r0, r9, pc, lsr #10
    1a60:	13020402 	movwne	r0, #9218	; 0x2402
    1a64:	02000e05 	andeq	r0, r0, #80	; 0x50
    1a68:	01060204 	tsteq	r6, r4, lsl #4
    1a6c:	02000505 	andeq	r0, r0, #20971520	; 0x1400000
    1a70:	63060104 	movwvs	r0, #24836	; 0x6104
    1a74:	01040200 	mrseq	r0, R12_usr
    1a78:	00480501 	subeq	r0, r8, r1, lsl #10
    1a7c:	06010402 	streq	r0, [r1], -r2, lsl #8
    1a80:	00050511 	andeq	r0, r5, r1, lsl r5
    1a84:	2f010402 	svccs	0x00010402
    1a88:	02004805 	andeq	r4, r0, #327680	; 0x50000
    1a8c:	052d0104 	streq	r0, [sp, #-260]!	; 0xfffffefc
    1a90:	04020005 	streq	r0, [r2], #-5
    1a94:	02002f01 	andeq	r2, r0, #1, 30
    1a98:	004a0104 	subeq	r0, sl, r4, lsl #2
    1a9c:	4a010402 	bmi	42aac <__bss_end__+0x3852c>
    1aa0:	01040200 	mrseq	r0, R12_usr
    1aa4:	40054a06 	andmi	r4, r5, r6, lsl #20
    1aa8:	d600e103 	strle	lr, [r0], -r3, lsl #2
    1aac:	09050106 	stmdbeq	r5, {r1, r2, r8}
    1ab0:	08052e4e 	stmdaeq	r5, {r1, r2, r3, r6, r9, sl, fp, sp}
    1ab4:	291e0530 	ldmdbcs	lr, {r4, r5, r8, sl}
    1ab8:	052e1205 	streq	r1, [lr, #-517]!	; 0xfffffdfb
    1abc:	0205330d 	andeq	r3, r5, #872415232	; 0x34000000
    1ac0:	05054506 	streq	r4, [r5, #-1286]	; 0xfffffafa
    1ac4:	14020513 	strne	r0, [r2], #-1299	; 0xfffffaed
    1ac8:	05130505 	ldreq	r0, [r3, #-1285]	; 0xfffffafb
    1acc:	08051302 	stmdaeq	r5, {r1, r8, r9, ip}
    1ad0:	06400501 	strbeq	r0, [r0], -r1, lsl #10
    1ad4:	2e017a03 	vmlacs.f32	s14, s2, s6
    1ad8:	66340d05 	ldrtvs	r0, [r4], -r5, lsl #26
    1adc:	20031105 	andcs	r1, r3, r5, lsl #2
    1ae0:	04054a4a 	streq	r4, [r5], #-2634	; 0xfffff5b6
    1ae4:	01620306 	cmneq	r2, r6, lsl #6
    1ae8:	01060905 	tsteq	r6, r5, lsl #18
    1aec:	052e0f05 	streq	r0, [lr, #-3845]!	; 0xfffff0fb
    1af0:	052c0608 	streq	r0, [ip, #-1544]!	; 0xfffff9f8
    1af4:	052e060d 	streq	r0, [lr, #-1549]!	; 0xfffff9f3
    1af8:	05670603 	strbeq	r0, [r7, #-1539]!	; 0xfffff9fd
    1afc:	05010605 	streq	r0, [r1, #-1541]	; 0xfffff9fb
    1b00:	054d0608 	strbeq	r0, [sp, #-1544]	; 0xfffff9f8
    1b04:	0501060e 	streq	r0, [r1, #-1550]	; 0xfffff9f2
    1b08:	09052e0a 	stmdbeq	r5, {r1, r3, r9, sl, fp, sp}
    1b0c:	0604052f 	streq	r0, [r4], -pc, lsr #10
    1b10:	0607052f 	streq	r0, [r7], -pc, lsr #10
    1b14:	2c0a0501 	cfstr32cs	mvfx0, [sl], {1}
    1b18:	32060405 	andcc	r0, r6, #83886080	; 0x5000000
    1b1c:	03062d05 	movweq	r2, #27909	; 0x6d05
    1b20:	05017f98 	streq	r7, [r1, #-3992]	; 0xfffff068
    1b24:	00ed0309 	rsceq	r0, sp, r9, lsl #6
    1b28:	2c0d052e 	cfstr32cs	mvfx0, [sp], {46}	; 0x2e
    1b2c:	052b0705 	streq	r0, [fp, #-1797]!	; 0xfffff8fb
    1b30:	13300604 	teqne	r0, #4, 12	; 0x400000
    1b34:	01090514 	tsteq	r9, r4, lsl r5
    1b38:	93030c05 	movwls	r0, #15365	; 0x3c05
    1b3c:	1d05017f 	stfnes	f0, [r5, #-508]	; 0xfffffe04
    1b40:	05010601 	streq	r0, [r1, #-1537]	; 0xfffff9ff
    1b44:	00ed0309 	rsceq	r0, sp, r9, lsl #6
    1b48:	06050501 	streq	r0, [r5], -r1, lsl #10
    1b4c:	0612052f 	ldreq	r0, [r2], -pc, lsr #10
    1b50:	052d2e01 	streq	r2, [sp, #-3585]!	; 0xfffff1ff
    1b54:	05052f0b 	streq	r2, [r5, #-3851]	; 0xfffff0f5
    1b58:	09052f06 	stmdbeq	r5, {r1, r2, r8, r9, sl, fp, sp}
    1b5c:	030c0510 	movweq	r0, #50448	; 0xc510
    1b60:	05017f93 	streq	r7, [r1, #-3987]	; 0xfffff06d
    1b64:	2d05011d 	stfcss	f0, [r5, #-116]	; 0xffffff8c
    1b68:	09050106 	stmdbeq	r5, {r1, r2, r8}
    1b6c:	2e00ed03 	cdpcs	13, 0, cr14, cr0, cr3, {0}
    1b70:	4e060405 	cdpmi	4, 0, cr0, cr6, cr5, {0}
    1b74:	04020001 	streq	r0, [r2], #-1
    1b78:	02004a02 	andeq	r4, r0, #8192	; 0x2000
    1b7c:	00010204 	andeq	r0, r1, r4, lsl #4
    1b80:	15020402 	strne	r0, [r2, #-1026]	; 0xfffffbfe
    1b84:	02040200 	andeq	r0, r4, #0, 4
    1b88:	12360206 	eorsne	r0, r6, #1610612736	; 0x60000000
    1b8c:	02040200 	andeq	r0, r4, #0, 4
    1b90:	0602052e 	streq	r0, [r2], -lr, lsr #10
    1b94:	0100d103 	tsteq	r0, r3, lsl #2
    1b98:	01060705 	tsteq	r6, r5, lsl #14
    1b9c:	0602052e 	streq	r0, [r2], -lr, lsr #10
    1ba0:	060b052f 	streq	r0, [fp], -pc, lsr #10
    1ba4:	2f010501 	svccs	0x00010501
    1ba8:	03060505 	movweq	r0, #25861	; 0x6505
    1bac:	09054a65 	stmdbeq	r5, {r0, r2, r5, r6, r9, fp, lr}
    1bb0:	05660106 	strbeq	r0, [r6, #-262]!	; 0xfffffefa
    1bb4:	059f0605 	ldreq	r0, [pc, #1541]	; 21c1 <__code_start__-0x5e3f>
    1bb8:	01110304 	tsteq	r1, r4, lsl #6
    1bbc:	01060705 	tsteq	r6, r5, lsl #14
    1bc0:	31060405 	tstcc	r6, r5, lsl #8
    1bc4:	05010a05 	streq	r0, [r1, #-2565]	; 0xfffff5fb
    1bc8:	04020013 	streq	r0, [r2], #-19	; 0xffffffed
    1bcc:	052e0601 	streq	r0, [lr, #-1537]!	; 0xfffff9ff
    1bd0:	04020010 	streq	r0, [r2], #-16
    1bd4:	05052e01 	streq	r2, [r5, #-3585]	; 0xfffff1ff
    1bd8:	0a054b06 	beq	1547f8 <__bss_end__+0x14a278>
    1bdc:	2d060106 	stfcss	f0, [r6, #-24]	; 0xffffffe8
    1be0:	01060405 	tsteq	r6, r5, lsl #8
    1be4:	03061105 	movweq	r1, #24837	; 0x6105
    1be8:	13667fb6 	cmnne	r6, #728	; 0x2d8
    1bec:	04020001 	streq	r0, [r2], #-1
    1bf0:	06ba0602 	ldrteq	r0, [sl], r2, lsl #12
    1bf4:	051401ba 	ldreq	r0, [r4, #-442]	; 0xfffffe46
    1bf8:	2e13061a 	mrccs	6, 0, r0, cr3, cr10, {0}
    1bfc:	4e11052e 	cfmul64mi	mvdx0, mvdx1, mvdx14
    1c00:	68140567 	ldmdavs	r4, {r0, r1, r2, r5, r6, r8, sl}
    1c04:	05821305 	streq	r1, [r2, #773]	; 0x305
    1c08:	4a780315 	bmi	1e02864 <__bss_end__+0x1df82e4>
    1c0c:	4b061105 	blmi	186028 <__bss_end__+0x17baa8>
    1c10:	13141313 	tstne	r4, #1275068416	; 0x4c000000
    1c14:	06130514 			; <UNDEFINED> instruction: 0x06130514
    1c18:	06090501 	streq	r0, [r9], -r1, lsl #10
    1c1c:	060d052f 	streq	r0, [sp], -pc, lsr #10
    1c20:	052e2e01 	streq	r2, [lr, #-3585]!	; 0xfffff1ff
    1c24:	0d05bb09 	vstreq	d11, [r5, #-36]	; 0xffffffdc
    1c28:	0609059d 			; <UNDEFINED> instruction: 0x0609059d
    1c2c:	2f15052f 	svccs	0x0015052f
    1c30:	4a750306 	bmi	1d42850 <__bss_end__+0x1d382d0>
    1c34:	4a2e0b03 	bmi	b84848 <__bss_end__+0xb7a2c8>
    1c38:	03060505 	movweq	r0, #25861	; 0x6505
    1c3c:	09050123 	stmdbeq	r5, {r0, r1, r5, r8}
    1c40:	052e0106 	streq	r0, [lr, #-262]!	; 0xfffffefa
    1c44:	03d70605 	bicseq	r0, r7, #5242880	; 0x500000
    1c48:	0e032e6e 	cdpeq	14, 0, cr2, cr3, cr14, {3}
    1c4c:	06090501 	streq	r0, [r9], -r1, lsl #10
    1c50:	06050501 	streq	r0, [r5], -r1, lsl #10
    1c54:	054a1003 	strbeq	r1, [sl, #-3]
    1c58:	7eed0301 	cdpvc	3, 14, cr0, cr13, cr1, {0}
    1c5c:	14020501 	strne	r0, [r2], #-1281	; 0xfffffaff
    1c60:	05141315 	ldreq	r1, [r4, #-789]	; 0xfffffceb
    1c64:	011a0304 	tsteq	sl, r4, lsl #6
    1c68:	01060905 	tsteq	r6, r5, lsl #18
    1c6c:	46030205 	strmi	r0, [r3], -r5, lsl #4
    1c70:	0309052e 	movweq	r0, #38190	; 0x952e
    1c74:	04052e3a 	streq	r2, [r5], #-3642	; 0xfffff1c6
    1c78:	0d032f06 	stceq	15, cr2, [r3, #-24]	; 0xffffffe8
    1c7c:	02050101 	andeq	r0, r5, #1073741824	; 0x40000000
    1c80:	030e0515 	movweq	r0, #58645	; 0xe515
    1c84:	05017fb2 	streq	r7, [r1, #-4018]	; 0xfffff04e
    1c88:	05141302 	ldreq	r1, [r4, #-770]	; 0xfffffcfe
    1c8c:	02050108 	andeq	r0, r5, #2
    1c90:	08050106 	stmdaeq	r5, {r1, r2, r8}
    1c94:	0603059f 			; <UNDEFINED> instruction: 0x0603059f
    1c98:	0501064a 	streq	r0, [r1, #-1610]	; 0xfffff9b6
    1c9c:	15052e08 	strne	r2, [r5, #-3592]	; 0xfffff1f8
    1ca0:	08052d06 	stmdaeq	r5, {r1, r2, r8, sl, fp, sp}
    1ca4:	2f030501 	svccs	0x00030501
    1ca8:	08050106 	stmdaeq	r5, {r1, r2, r8}
    1cac:	0615052e 	ldreq	r0, [r5], -lr, lsr #10
    1cb0:	0108052d 	tsteq	r8, sp, lsr #10
    1cb4:	062f0305 	strteq	r0, [pc], -r5, lsl #6
    1cb8:	2e080501 	cfsh32cs	mvfx0, mvfx8, #1
    1cbc:	2d061505 	cfstr32cs	mvfx1, [r6, #-20]	; 0xffffffec
    1cc0:	05010805 	streq	r0, [r1, #-2053]	; 0xfffff7fb
    1cc4:	01062f03 	tsteq	r6, r3, lsl #30
    1cc8:	052e0805 	streq	r0, [lr, #-2053]!	; 0xfffff7fb
    1ccc:	052d0615 	streq	r0, [sp, #-1557]!	; 0xfffff9eb
    1cd0:	03050108 	movweq	r0, #20744	; 0x5108
    1cd4:	0501062f 	streq	r0, [r1, #-1583]	; 0xfffff9d1
    1cd8:	15052e08 	strne	r2, [r5, #-3592]	; 0xfffff1f8
    1cdc:	08052d06 	stmdaeq	r5, {r1, r2, r8, sl, fp, sp}
    1ce0:	2f030501 	svccs	0x00030501
    1ce4:	08050106 	stmdaeq	r5, {r1, r2, r8}
    1ce8:	0615052e 	ldreq	r0, [r5], -lr, lsr #10
    1cec:	0108052d 	tsteq	r8, sp, lsr #10
    1cf0:	05130305 	ldreq	r0, [r3, #-773]	; 0xfffffcfb
    1cf4:	05010608 	streq	r0, [r1, #-1544]	; 0xfffff9f8
    1cf8:	052d0615 	streq	r0, [sp, #-1557]!	; 0xfffff9eb
    1cfc:	66060108 	strvs	r0, [r6], -r8, lsl #2
    1d00:	67060305 	strvs	r0, [r6, -r5, lsl #6]
    1d04:	01060805 	tsteq	r6, r5, lsl #16
    1d08:	052d1805 	streq	r1, [sp, #-2053]!	; 0xfffff7fb
    1d0c:	08052e02 	stmdaeq	r5, {r1, r9, sl, fp, sp}
    1d10:	0615052f 	ldreq	r0, [r5], -pc, lsr #10
    1d14:	0108052d 	tsteq	r8, sp, lsr #10
    1d18:	01060205 	tsteq	r6, r5, lsl #4
    1d1c:	2f060305 	svccs	0x00060305
    1d20:	11061805 	tstne	r6, r5, lsl #16
    1d24:	052e0205 	streq	r0, [lr, #-517]!	; 0xfffffdfb
    1d28:	15052f08 	strne	r2, [r5, #-3848]	; 0xfffff0f8
    1d2c:	08052d06 	stmdaeq	r5, {r1, r2, r8, sl, fp, sp}
    1d30:	13030501 	movwne	r0, #13569	; 0x3501
    1d34:	01060805 	tsteq	r6, r5, lsl #16
    1d38:	2d061505 	cfstr32cs	mvfx1, [r6, #-20]	; 0xffffffec
    1d3c:	05010805 	streq	r0, [r1, #-2053]	; 0xfffff7fb
    1d40:	4a140605 	bmi	50355c <__bss_end__+0x4f8fdc>
    1d44:	2e060205 	cdpcs	2, 0, cr0, cr6, cr5, {0}
    1d48:	19060e05 	stmdbne	r6, {r0, r2, r9, sl, fp}
    1d4c:	052f0405 	streq	r0, [pc, #-1029]!	; 194f <__code_start__-0x66b1>
    1d50:	09052f11 	stmdbeq	r5, {r0, r4, r8, r9, sl, fp, sp}
    1d54:	3302054a 	movwcc	r0, #9546	; 0x254a
    1d58:	72030505 	andvc	r0, r3, #20971520	; 0x1400000
    1d5c:	0602052e 	streq	r0, [r2], -lr, lsr #10
    1d60:	0501062f 	streq	r0, [r1, #-1583]	; 0xfffff9d1
    1d64:	0516060e 	ldreq	r0, [r6, #-1550]	; 0xfffff9f2
    1d68:	05131402 	ldreq	r1, [r3, #-1026]	; 0xfffffbfe
    1d6c:	02051303 	andeq	r1, r5, #201326592	; 0xc000000
    1d70:	0b051514 	bleq	1471c8 <__bss_end__+0x13cc48>
    1d74:	06020501 	streq	r0, [r2], -r1, lsl #10
    1d78:	05662e01 	strbeq	r2, [r6, #-3585]!	; 0xfffff1ff
    1d7c:	052f0603 	streq	r0, [pc, #-1539]!	; 1781 <__code_start__-0x687f>
    1d80:	0501060a 	streq	r0, [r1, #-1546]	; 0xfffff9f6
    1d84:	0a052d02 	beq	14d194 <__bss_end__+0x142c14>
    1d88:	0617052f 	ldreq	r0, [r7], -pc, lsr #10
    1d8c:	010b052d 	tsteq	fp, sp, lsr #10
    1d90:	01060205 	tsteq	r6, r5, lsl #4
    1d94:	05054a4a 	streq	r4, [r5, #-2634]	; 0xfffff5b6
    1d98:	01950306 	orrseq	r0, r5, r6, lsl #6
    1d9c:	06110501 	ldreq	r0, [r1], -r1, lsl #10
    1da0:	017ef803 	cmneq	lr, r3, lsl #16	; <UNPREDICTABLE>
    1da4:	88031b05 	stmdahi	r3, {r0, r2, r8, r9, fp, ip}
    1da8:	01054a01 	tsteq	r5, r1, lsl #20
    1dac:	7ef30306 	cdpvc	3, 15, cr0, cr3, cr6, {0}
    1db0:	1402052e 	strne	r0, [r2], #-1326	; 0xfffffad2
    1db4:	05141315 	ldreq	r1, [r4, #-789]	; 0xfffffceb
    1db8:	01220319 			; <UNDEFINED> instruction: 0x01220319
    1dbc:	05131a05 	ldreq	r1, [r3, #-2565]	; 0xfffff5fb
    1dc0:	05010628 	streq	r0, [r1, #-1576]	; 0xfffff9d8
    1dc4:	04052e1f 	streq	r2, [r5], #-3615	; 0xfffff1e1
    1dc8:	4a0e052f 	bmi	38328c <__bss_end__+0x378d0c>
    1dcc:	052d1f05 	streq	r1, [sp, #-3845]!	; 0xfffff0fb
    1dd0:	052f060b 	streq	r0, [pc, #-1547]!	; 17cd <__code_start__-0x6833>
    1dd4:	06010604 	streq	r0, [r1], -r4, lsl #12
    1dd8:	02050132 	andeq	r0, r5, #-2147483636	; 0x8000000c
    1ddc:	030e0515 	movweq	r0, #58645	; 0xe515
    1de0:	05017fb2 	streq	r7, [r1, #-4018]	; 0xfffff04e
    1de4:	06051302 	streq	r1, [r5], -r2, lsl #6
    1de8:	02050106 	andeq	r0, r5, #-2147483647	; 0x80000001
    1dec:	08053006 	stmdaeq	r5, {r1, r2, ip, sp}
    1df0:	06020501 	streq	r0, [r2], -r1, lsl #10
    1df4:	06030501 	streq	r0, [r3], -r1, lsl #10
    1df8:	08052108 	stmdaeq	r5, {r3, r8, sp}
    1dfc:	15050106 	strne	r0, [r5, #-262]	; 0xfffffefa
    1e00:	08054906 	stmdaeq	r5, {r1, r2, r8, fp, lr}
    1e04:	d7030501 	strle	r0, [r3, -r1, lsl #10]
    1e08:	01060805 	tsteq	r6, r5, lsl #16
    1e0c:	052d1805 	streq	r1, [sp, #-2053]!	; 0xfffff7fb
    1e10:	08052e02 	stmdaeq	r5, {r1, r9, sl, fp, sp}
    1e14:	0615052f 	ldreq	r0, [r5], -pc, lsr #10
    1e18:	0108052d 	tsteq	r8, sp, lsr #10
    1e1c:	01060205 	tsteq	r6, r5, lsl #4
    1e20:	2f060305 	svccs	0x00060305
    1e24:	11061805 	tstne	r6, r5, lsl #16
    1e28:	052e0205 	streq	r0, [lr, #-517]!	; 0xfffffdfb
    1e2c:	15052f08 	strne	r2, [r5, #-3848]	; 0xfffff0f8
    1e30:	08052d06 	stmdaeq	r5, {r1, r2, r8, sl, fp, sp}
    1e34:	13030501 	movwne	r0, #13569	; 0x3501
    1e38:	01060805 	tsteq	r6, r5, lsl #16
    1e3c:	2d061505 	cfstr32cs	mvfx1, [r6, #-20]	; 0xffffffec
    1e40:	05010805 	streq	r0, [r1, #-2053]	; 0xfffff7fb
    1e44:	05140605 	ldreq	r0, [r4, #-1541]	; 0xfffff9fb
    1e48:	05660602 	strbeq	r0, [r6, #-1538]!	; 0xfffff9fe
    1e4c:	051a0604 	ldreq	r0, [sl, #-1540]	; 0xfffff9fc
    1e50:	4a780305 	bmi	1e02a6c <__bss_end__+0x1df84ec>
    1e54:	2f060205 	svccs	0x00060205
    1e58:	0e050106 	adfeqs	f0, f5, f6
    1e5c:	02051606 	andeq	r1, r5, #6291456	; 0x600000
    1e60:	04051314 	streq	r1, [r5], #-788	; 0xfffffcec
    1e64:	03050106 	movweq	r0, #20742	; 0x5106
    1e68:	11052f06 	tstne	r5, r6, lsl #30
    1e6c:	09050106 	stmdbeq	r5, {r1, r2, r8}
    1e70:	0602052e 	streq	r0, [r2], -lr, lsr #10
    1e74:	0b051530 	bleq	14733c <__bss_end__+0x13cdbc>
    1e78:	06020501 	streq	r0, [r2], -r1, lsl #10
    1e7c:	2e4a4a01 	vmlacs.f32	s9, s20, s2
    1e80:	2f060305 	svccs	0x00060305
    1e84:	01060a05 	tsteq	r6, r5, lsl #20
    1e88:	052d0205 	streq	r0, [sp, #-517]!	; 0xfffffdfb
    1e8c:	17052f0a 	strne	r2, [r5, -sl, lsl #30]
    1e90:	0b052d06 	bleq	14d2b0 <__bss_end__+0x142d30>
    1e94:	06020501 	streq	r0, [r2], -r1, lsl #10
    1e98:	062e4a01 	strteq	r4, [lr], -r1, lsl #20
    1e9c:	06090514 			; <UNDEFINED> instruction: 0x06090514
    1ea0:	06020501 	streq	r0, [r2], -r1, lsl #10
    1ea4:	0501064c 	streq	r0, [r1, #-1612]	; 0xfffff9b4
    1ea8:	98030605 	stmdals	r3, {r0, r2, r9, sl}
    1eac:	052a0101 	streq	r0, [sl, #-257]!	; 0xfffffeff
    1eb0:	05010607 	streq	r0, [r1, #-1543]	; 0xfffff9f9
    1eb4:	052f0605 	streq	r0, [pc, #-1541]!	; 18b7 <__code_start__-0x6749>
    1eb8:	2e530318 	mrccs	3, 2, r0, cr3, cr8, {0}
    1ebc:	01061b05 	tsteq	r6, r5, lsl #22
    1ec0:	05821a05 	streq	r1, [r2, #2565]	; 0xa05
    1ec4:	054b0609 	strbeq	r0, [fp, #-1545]	; 0xfffff9f7
    1ec8:	2e01060d 	cfmadd32cs	mvax0, mvfx0, mvfx1, mvfx13
    1ecc:	05d70905 	ldrbeq	r0, [r7, #2309]	; 0x905
    1ed0:	09059d0d 	stmdbeq	r5, {r0, r2, r3, r8, sl, fp, ip, pc}
    1ed4:	15052f06 	strne	r2, [r5, #-3846]	; 0xfffff0fa
    1ed8:	06180530 			; <UNDEFINED> instruction: 0x06180530
    1edc:	66170501 	ldrvs	r0, [r7], -r1, lsl #10
    1ee0:	052f1905 	streq	r1, [pc, #-2309]!	; 15e3 <__code_start__-0x6a1d>
    1ee4:	19054917 	stmdbne	r5, {r0, r1, r2, r4, r8, fp, lr}
    1ee8:	15052f06 	strne	r2, [r5, #-3846]	; 0xfffff0fa
    1eec:	2e6f0306 	cdpcs	3, 6, cr0, cr15, cr6, {0}
    1ef0:	03061905 	movweq	r1, #26885	; 0x6905
    1ef4:	15054a13 	strne	r4, [r5, #-2579]	; 0xfffff5ed
    1ef8:	2e6d0306 	cdpcs	3, 6, cr0, cr13, cr6, {0}
    1efc:	0302054a 	movweq	r0, #9546	; 0x254a
    1f00:	66017fa0 	strvs	r7, [r1], -r0, lsr #31
    1f04:	01720306 	cmneq	r2, r6, lsl #6
    1f08:	01060505 	tsteq	r6, r5, lsl #10
    1f0c:	05360405 	ldreq	r0, [r6, #-1029]!	; 0xfffffbfb
    1f10:	2e780305 	cdpcs	3, 7, cr0, cr8, cr5, {0}
    1f14:	2f060205 	svccs	0x00060205
    1f18:	0e050106 	adfeqs	f0, f5, f6
    1f1c:	02051606 	andeq	r1, r5, #6291456	; 0x600000
    1f20:	04051314 	streq	r1, [r5], #-788	; 0xfffffcec
    1f24:	054a0106 	strbeq	r0, [sl, #-262]	; 0xfffffefa
    1f28:	78030602 	stmdavc	r3, {r1, r9, sl}
    1f2c:	06050501 	streq	r0, [r5], -r1, lsl #10
    1f30:	02054a01 	andeq	r4, r5, #4096	; 0x1000
    1f34:	01064b06 	tsteq	r6, r6, lsl #22
    1f38:	16060e05 	strne	r0, [r6], -r5, lsl #28
    1f3c:	13140205 	tstne	r4, #1342177280	; 0x50000000
    1f40:	0b051515 	bleq	14739c <__bss_end__+0x13ce1c>
    1f44:	052e0601 	streq	r0, [lr, #-1537]!	; 0xfffff9ff
    1f48:	9e030611 	mcrls	6, 0, r0, cr3, cr1, {0}
    1f4c:	22050101 	andcs	r0, r5, #1073741824	; 0x40000000
    1f50:	05050106 	streq	r0, [r5, #-262]	; 0xfffffefa
    1f54:	2d22052f 	cfstr32cs	mvfx0, [r2, #-188]!	; 0xffffff44
    1f58:	2f060505 	svccs	0x00060505
    1f5c:	054b1105 	strbeq	r1, [fp, #-261]	; 0xfffffefb
    1f60:	9e018305 	cdpls	3, 0, cr8, cr1, cr5, {0}
    1f64:	012e5c03 			; <UNDEFINED> instruction: 0x012e5c03
    1f68:	0602059e 			; <UNDEFINED> instruction: 0x0602059e
    1f6c:	2e7ef303 	cdpcs	3, 7, cr15, cr14, cr3, {0}
    1f70:	2c06052e 	cfstr32cs	mvfx0, [r6], {46}	; 0x2e
    1f74:	030d054a 	movweq	r0, #54602	; 0xd54a
    1f78:	050100d8 	streq	r0, [r1, #-216]	; 0xffffff28
    1f7c:	04020004 	streq	r0, [r2], #-4
    1f80:	11030601 	tstne	r3, r1, lsl #12
    1f84:	0402004a 	streq	r0, [r2], #-74	; 0xffffffb6
    1f88:	11050101 	tstne	r5, r1, lsl #2
    1f8c:	9e065106 	adflss	f5, f6, f6
    1f90:	17031505 	strne	r1, [r3, -r5, lsl #10]
    1f94:	05ba012e 	ldreq	r0, [sl, #302]!	; 0x12e
    1f98:	2e690311 	mcrcs	3, 3, r0, cr9, cr1, {0}
    1f9c:	00280201 	eoreq	r0, r8, r1, lsl #4
    1fa0:	00a00101 	adceq	r0, r0, r1, lsl #2
    1fa4:	00030000 	andeq	r0, r3, r0
    1fa8:	0000005d 	andeq	r0, r0, sp, asr r0
    1fac:	0efb0102 	cdpeq	1, 15, cr0, cr11, cr2, {0}
    1fb0:	0101000d 	tsteq	r1, sp
    1fb4:	00000101 	andeq	r0, r0, r1, lsl #2
    1fb8:	00000100 	andeq	r0, r0, r0, lsl #2
    1fbc:	732f2e01 			; <UNDEFINED> instruction: 0x732f2e01
    1fc0:	66666174 			; <UNDEFINED> instruction: 0x66666174
    1fc4:	6372732d 	cmnvs	r2, #-1275068416	; 0xb4000000
    1fc8:	73552f00 	cmpvc	r5, #0, 30
    1fcc:	2f737265 	svccs	0x00737265
    1fd0:	656c696d 	strbvs	r6, [ip, #-2413]!	; 0xfffff693
    1fd4:	6f532f73 	svcvs	0x00532f73
    1fd8:	65637275 	strbvs	r7, [r3, #-629]!	; 0xfffffd8b
    1fdc:	3273632f 	rsbscc	r6, r3, #-1140850688	; 0xbc000000
    1fe0:	786c3034 	stmdavc	ip!, {r2, r4, r5, ip, sp}^
    1fe4:	62696c2f 	rsbvs	r6, r9, #12032	; 0x2f00
    1fe8:	692f6970 	stmdbvs	pc!, {r4, r5, r6, r8, fp, sp, lr}	; <UNPREDICTABLE>
    1fec:	756c636e 	strbvc	r6, [ip, #-878]!	; 0xfffffc92
    1ff0:	00006564 	andeq	r6, r0, r4, ror #10
    1ff4:	68636163 	stmdavs	r3!, {r0, r1, r5, r6, r8, sp, lr}^
    1ff8:	00632e65 	rsbeq	r2, r3, r5, ror #28
    1ffc:	72000001 	andvc	r0, r0, #1, 0
    2000:	682e6970 	stmdavs	lr!, {r4, r5, r6, r8, fp, sp, lr}
    2004:	00000200 	andeq	r0, r0, r0, lsl #4
    2008:	00190500 	andseq	r0, r9, r0, lsl #10
    200c:	942c0205 	strtls	r0, [ip], #-517	; 0xfffffdfb
    2010:	05140000 	ldreq	r0, [r4, #-0]
    2014:	05131305 	ldreq	r1, [r3, #-773]	; 0xfffffcfb
    2018:	05132f02 	ldreq	r2, [r3, #-3842]	; 0xfffff0fe
    201c:	04051305 	streq	r1, [r5], #-773	; 0xfffffcfb
    2020:	05051106 	streq	r1, [r5, #-262]	; 0xfffffefa
    2024:	2f01052f 	svccs	0x0001052f
    2028:	31061a05 	tstcc	r6, r5, lsl #20
    202c:	13130505 	tstne	r3, #20971520	; 0x1400000
    2030:	13300205 	teqne	r0, #1342177280	; 0x50000000
    2034:	05130505 	ldreq	r0, [r3, #-1285]	; 0xfffffafb
    2038:	05110604 	ldreq	r0, [r1, #-1540]	; 0xfffff9fc
    203c:	01052f05 	tsteq	r5, r5, lsl #30
    2040:	0002022f 	andeq	r0, r2, pc, lsr #4
    2044:	00870101 	addeq	r0, r7, r1, lsl #2
    2048:	00030000 	andeq	r0, r3, r0
    204c:	00000064 	andeq	r0, r0, r4, rrx
    2050:	0efb0102 	cdpeq	1, 15, cr0, cr11, cr2, {0}
    2054:	0101000d 	tsteq	r1, sp
    2058:	00000101 	andeq	r0, r0, r1, lsl #2
    205c:	00000100 	andeq	r0, r0, r0, lsl #2
    2060:	732f2e01 			; <UNDEFINED> instruction: 0x732f2e01
    2064:	66666174 			; <UNDEFINED> instruction: 0x66666174
    2068:	6372732d 	cmnvs	r2, #-1275068416	; 0xb4000000
    206c:	73552f00 	cmpvc	r5, #0, 30
    2070:	2f737265 	svccs	0x00737265
    2074:	656c696d 	strbvs	r6, [ip, #-2413]!	; 0xfffff693
    2078:	6f532f73 	svcvs	0x00532f73
    207c:	65637275 	strbvs	r7, [r3, #-629]!	; 0xfffffd8b
    2080:	3273632f 	rsbscc	r6, r3, #-1140850688	; 0xbc000000
    2084:	786c3034 	stmdavc	ip!, {r2, r4, r5, ip, sp}^
    2088:	62696c2f 	rsbvs	r6, r9, #12032	; 0x2f00
    208c:	692f6970 	stmdbvs	pc!, {r4, r5, r6, r8, fp, sp, lr}	; <UNPREDICTABLE>
    2090:	756c636e 	strbvc	r6, [ip, #-878]!	; 0xfffffc92
    2094:	00006564 	andeq	r6, r0, r4, ror #10
    2098:	61656c63 	cmnvs	r5, r3, ror #24
    209c:	65722d6e 	ldrbvs	r2, [r2, #-3438]!	; 0xfffff292
    20a0:	746f6f62 	strbtvc	r6, [pc], #-3938	; 20a8 <__code_start__-0x5f58>
    20a4:	0100632e 	tsteq	r0, lr, lsr #6
    20a8:	70720000 	rsbsvc	r0, r2, r0
    20ac:	00682e69 	rsbeq	r2, r8, r9, ror #28
    20b0:	00000002 	andeq	r0, r0, r2
    20b4:	05001905 	streq	r1, [r0, #-2309]	; 0xfffff6fb
    20b8:	00944c02 	addseq	r4, r4, r2, lsl #24
    20bc:	05051500 	streq	r1, [r5, #-1280]	; 0xfffffb00
    20c0:	06190513 			; <UNDEFINED> instruction: 0x06190513
    20c4:	2f05052d 	svccs	0x0005052d
    20c8:	4b2f6706 	blmi	bdbce8 <__bss_end__+0xbd1768>
    20cc:	01000602 	tsteq	r0, r2, lsl #12
    20d0:	00011201 	andeq	r1, r1, r1, lsl #4
    20d4:	5e000300 	cdppl	3, 0, cr0, cr0, cr0, {0}
    20d8:	02000000 	andeq	r0, r0, #0, 0
    20dc:	0d0efb01 	vstreq	d15, [lr, #-4]
    20e0:	01010100 	mrseq	r0, (UNDEF: 17)
    20e4:	00000001 	andeq	r0, r0, r1
    20e8:	01000001 	tsteq	r0, r1
    20ec:	74732f2e 	ldrbtvc	r2, [r3], #-3886	; 0xfffff0d2
    20f0:	2d666661 	stclcs	6, cr6, [r6, #-388]!	; 0xfffffe7c
    20f4:	00637273 	rsbeq	r7, r3, r3, ror r2
    20f8:	6573552f 	ldrbvs	r5, [r3, #-1327]!	; 0xfffffad1
    20fc:	6d2f7372 	stcvs	3, cr7, [pc, #-456]!	; 1f3c <__code_start__-0x60c4>
    2100:	73656c69 	cmnvc	r5, #26880	; 0x6900
    2104:	756f532f 	strbvc	r5, [pc, #-815]!	; 1ddd <__code_start__-0x6223>
    2108:	2f656372 	svccs	0x00656372
    210c:	34327363 	ldrtcc	r7, [r2], #-867	; 0xfffffc9d
    2110:	2f786c30 	svccs	0x00786c30
    2114:	7062696c 	rsbvc	r6, r2, ip, ror #18
    2118:	6e692f69 	cdpvs	15, 6, cr2, cr9, cr9, {3}
    211c:	64756c63 	ldrbtvs	r6, [r5], #-3171	; 0xfffff39d
    2120:	63000065 	movwvs	r0, #101	; 0x65
    2124:	72617473 	rsbvc	r7, r1, #1929379840	; 0x73000000
    2128:	00632e74 	rsbeq	r2, r3, r4, ror lr
    212c:	72000001 	andvc	r0, r0, #1, 0
    2130:	682e6970 	stmdavs	lr!, {r4, r5, r6, r8, fp, sp, lr}
    2134:	00000200 	andeq	r0, r0, r0, lsl #4
    2138:	00100500 	andseq	r0, r0, r0, lsl #10
    213c:	94780205 	ldrbtls	r0, [r8], #-517	; 0xfffffdfb
    2140:	05150000 	ldreq	r0, [r5, #-0]
    2144:	02051305 	andeq	r1, r5, #335544320	; 0x14000000
    2148:	14050513 	strne	r0, [r5], #-1299	; 0xfffffaed
    214c:	0e061005 	cdpeq	0, 0, cr1, cr6, cr5, {0}
    2150:	06320505 	ldrteq	r0, [r2], -r5, lsl #10
    2154:	05141330 	ldreq	r1, [r4, #-816]	; 0xfffffcd0
    2158:	0905010a 	stmdbeq	r5, {r1, r3, r8}
    215c:	10059108 	andne	r9, r5, r8, lsl #2
    2160:	0a050106 	beq	142580 <__bss_end__+0x138000>
    2164:	6a10059a 	bvs	4037d4 <__bss_end__+0x3f9254>
    2168:	2d060a05 	vstrcs	s0, [r6, #-20]	; 0xffffffec
    216c:	052f0905 	streq	r0, [pc, #-2309]!	; 186f <__code_start__-0x6791>
    2170:	05010610 	streq	r0, [r1, #-1552]	; 0xfffff9f0
    2174:	052d060a 	streq	r0, [sp, #-1546]!	; 0xfffff9f6
    2178:	1005bb09 	andne	fp, r5, r9, lsl #22
    217c:	0a050106 	beq	14259c <__bss_end__+0x13801c>
    2180:	09056506 	stmdbeq	r5, {r1, r2, r8, sl, sp, lr}
    2184:	060d054b 	streq	r0, [sp], -fp, asr #10
    2188:	2d0a0501 	cfstr32cs	mvfx0, [sl, #-4]
    218c:	052f1005 	streq	r1, [pc, #-5]!	; 218f <__code_start__-0x5e71>
    2190:	052d060a 	streq	r0, [sp, #-1546]!	; 0xfffff9f6
    2194:	0d052f09 	stceq	15, cr2, [r5, #-36]	; 0xffffffdc
    2198:	0a050106 	beq	1425b8 <__bss_end__+0x138038>
    219c:	2f10052d 	svccs	0x0010052d
    21a0:	2d060a05 	vstrcs	s0, [r6, #-20]	; 0xffffffec
    21a4:	052f0905 	streq	r0, [pc, #-2309]!	; 18a7 <__code_start__-0x6759>
    21a8:	0501060d 	streq	r0, [r1, #-1549]	; 0xfffff9f3
    21ac:	10052d0a 	andne	r2, r5, sl, lsl #26
    21b0:	060a052f 	streq	r0, [sl], -pc, lsr #10
    21b4:	2f09052d 	svccs	0x0009052d
    21b8:	01060d05 	tsteq	r6, r5, lsl #26
    21bc:	052d0a05 	streq	r0, [sp, #-2565]!	; 0xfffff5fb
    21c0:	0a052f10 	beq	14de08 <__bss_end__+0x143888>
    21c4:	09052d06 	stmdbeq	r5, {r1, r2, r8, sl, fp, sp}
    21c8:	06100513 			; <UNDEFINED> instruction: 0x06100513
    21cc:	060a0501 	streq	r0, [sl], -r1, lsl #10
    21d0:	1505052d 	strne	r0, [r5, #-1325]	; 0xfffffad3
    21d4:	4a010132 	bmi	426a4 <__bss_end__+0x38124>
    21d8:	2f020514 	svccs	0x00020514
    21dc:	03060a05 	movweq	r0, #27141	; 0x6a05
    21e0:	08022e73 	stmdaeq	r2, {r0, r1, r4, r5, r6, r9, sl, fp, sp}
    21e4:	7d010100 	stfvcs	f0, [r1, #-0]
    21e8:	03000000 	movweq	r0, #0
    21ec:	00006500 	andeq	r6, r0, r0, lsl #10
    21f0:	fb010200 	blx	429fa <__bss_end__+0x3847a>
    21f4:	01000d0e 	tsteq	r0, lr, lsl #26
    21f8:	00010101 	andeq	r0, r1, r1, lsl #2
    21fc:	00010000 	andeq	r0, r1, r0
    2200:	2f2e0100 	svccs	0x002e0100
    2204:	66617473 			; <UNDEFINED> instruction: 0x66617473
    2208:	72732d66 	rsbsvc	r2, r3, #6528	; 0x1980
    220c:	552f0063 	strpl	r0, [pc, #-99]!	; 21b1 <__code_start__-0x5e4f>
    2210:	73726573 	cmnvc	r2, #482344960	; 0x1cc00000
    2214:	6c696d2f 	stclvs	13, cr6, [r9], #-188	; 0xffffff44
    2218:	532f7365 			; <UNDEFINED> instruction: 0x532f7365
    221c:	6372756f 	cmnvs	r2, #465567744	; 0x1bc00000
    2220:	73632f65 	cmnvc	r3, #404	; 0x194
    2224:	6c303432 	cfldrsvs	mvf3, [r0], #-200	; 0xffffff38
    2228:	696c2f78 	stmdbvs	ip!, {r3, r4, r5, r6, r8, r9, sl, fp, sp}^
    222c:	2f697062 	svccs	0x00697062
    2230:	6c636e69 	stclvs	14, cr6, [r3], #-420	; 0xfffffe5c
    2234:	00656475 	rsbeq	r6, r5, r5, ror r4
    2238:	73756300 	cmnvc	r5, #0, 6
    223c:	2d6d6f74 	stclcs	15, cr6, [sp, #-464]!	; 0xfffffe30
    2240:	64616f6c 	strbtvs	r6, [r1], #-3948	; 0xfffff094
    2244:	632e7265 			; <UNDEFINED> instruction: 0x632e7265
    2248:	00000100 	andeq	r0, r0, r0, lsl #2
    224c:	2e697072 	mcrcs	0, 3, r7, cr9, cr2, {3}
    2250:	00020068 	andeq	r0, r2, r8, rrx
    2254:	1a050000 	bne	14225c <__bss_end__+0x137cdc>
    2258:	70020500 	andvc	r0, r2, r0, lsl #10
    225c:	15000095 	strne	r0, [r0, #-149]	; 0xffffff6b
    2260:	02140105 	andseq	r0, r4, #1073741825	; 0x40000001
    2264:	01010002 	tsteq	r1, r2
    2268:	00000114 	andeq	r0, r0, r4, lsl r1
    226c:	005e0003 	subseq	r0, lr, r3
    2270:	01020000 	mrseq	r0, (UNDEF: 2)
    2274:	000d0efb 	strdeq	r0, [sp], -fp
    2278:	01010101 	tsteq	r1, r1, lsl #2
    227c:	01000000 	mrseq	r0, (UNDEF: 0)
    2280:	2e010000 	cdpcs	0, 0, cr0, cr1, cr0, {0}
    2284:	6174732f 	cmnvs	r4, pc, lsr #6
    2288:	732d6666 			; <UNDEFINED> instruction: 0x732d6666
    228c:	2f006372 	svccs	0x00006372
    2290:	72657355 	rsbvc	r7, r5, #1409286145	; 0x54000001
    2294:	696d2f73 	stmdbvs	sp!, {r0, r1, r4, r5, r6, r8, r9, sl, fp, sp}^
    2298:	2f73656c 	svccs	0x0073656c
    229c:	72756f53 	rsbsvc	r6, r5, #332	; 0x14c
    22a0:	632f6563 			; <UNDEFINED> instruction: 0x632f6563
    22a4:	30343273 	eorscc	r3, r4, r3, ror r2
    22a8:	6c2f786c 	stcvs	8, cr7, [pc], #-432	; 2100 <__code_start__-0x5f00>
    22ac:	69706269 	ldmdbvs	r0!, {r0, r3, r5, r6, r9, sp, lr}^
    22b0:	636e692f 	cmnvs	lr, #770048	; 0xbc000
    22b4:	6564756c 	strbvs	r7, [r4, #-1388]!	; 0xfffffa94
    22b8:	65720000 	ldrbvs	r0, [r2, #-0]!
    22bc:	746f6f62 	strbtvc	r6, [pc], #-3938	; 22c4 <__code_start__-0x5d3c>
    22c0:	0100632e 	tsteq	r0, lr, lsr #6
    22c4:	70720000 	rsbsvc	r0, r2, r0
    22c8:	00682e69 	rsbeq	r2, r8, r9, ror #28
    22cc:	00000002 	andeq	r0, r0, r2
    22d0:	05001905 	streq	r1, [r0, #-2309]	; 0xfffff6fb
    22d4:	00957402 	addseq	r7, r5, r2, lsl #8
    22d8:	010d0300 	mrseq	r0, SP_mon
    22dc:	13130505 	tstne	r3, #20971520	; 0x1400000
    22e0:	06130531 			; <UNDEFINED> instruction: 0x06130531
    22e4:	2f010501 	svccs	0x00010501
    22e8:	85061b05 	strhi	r1, [r6, #-2821]	; 0xfffff4fb
    22ec:	14130505 	ldrne	r0, [r3], #-1285	; 0xfffffafb
    22f0:	052f0905 	streq	r0, [pc, #-2309]!	; 19f3 <__code_start__-0x660d>
    22f4:	05010616 	streq	r0, [r1, #-1558]	; 0xfffff9ea
    22f8:	052f0605 	streq	r0, [pc, #-1541]!	; 1cfb <__code_start__-0x6305>
    22fc:	0511060e 	ldreq	r0, [r1, #-1550]	; 0xfffff9f2
    2300:	01052f05 	tsteq	r5, r5, lsl #30
    2304:	0617052f 	ldreq	r0, [r7], -pc, lsr #10
    2308:	13050530 	movwne	r0, #21808	; 0x5530
    230c:	13016e03 	movwne	r6, #7683	; 0x1e03
    2310:	06170513 			; <UNDEFINED> instruction: 0x06170513
    2314:	05010f03 	streq	r0, [r1, #-3843]	; 0xfffff0fd
    2318:	2e710305 	cdpcs	3, 7, cr0, cr1, cr5, {0}
    231c:	13053106 	movwne	r3, #20742	; 0x5106
    2320:	07050106 	streq	r0, [r5, -r6, lsl #2]
    2324:	052e0d03 	streq	r0, [lr, #-3331]!	; 0xfffff2fd
    2328:	054b0609 	strbeq	r0, [fp, #-1545]	; 0xfffff9f7
    232c:	01760306 	cmneq	r6, r6, lsl #6
    2330:	14130505 	ldrne	r0, [r3], #-1285	; 0xfffffafb
    2334:	052f0905 	streq	r0, [pc, #-2309]!	; 1a37 <__code_start__-0x65c9>
    2338:	05010616 	streq	r0, [r1, #-1558]	; 0xfffff9ea
    233c:	052f0605 	streq	r0, [pc, #-1541]!	; 1d3f <__code_start__-0x62c1>
    2340:	0511060e 	ldreq	r0, [r1, #-1550]	; 0xfffff9f2
    2344:	062e2f05 	strteq	r2, [lr], -r5, lsl #30
    2348:	30010a03 	andcc	r0, r1, r3, lsl #20
    234c:	13134d2f 	tstne	r3, #3008	; 0xbc0
    2350:	00671513 	rsbeq	r1, r7, r3, lsl r5
    2354:	67010402 	strvs	r0, [r1, -r2, lsl #8]
    2358:	02000d05 	andeq	r0, r0, #320	; 0x140
    235c:	05010104 	streq	r0, [r1, #-260]	; 0xfffffefc
    2360:	0402000a 	streq	r0, [r2], #-10
    2364:	05050101 	streq	r0, [r5, #-257]	; 0xfffffeff
    2368:	01040200 	mrseq	r0, R12_usr
    236c:	000d0501 	andeq	r0, sp, r1, lsl #10
    2370:	01010402 	tsteq	r1, r2, lsl #8
    2374:	02000a05 	andeq	r0, r0, #20480	; 0x5000
    2378:	02010104 	andeq	r0, r1, #1
    237c:	0101000a 	tsteq	r1, sl
    2380:	000001fa 	strdeq	r0, [r0], -sl
    2384:	005d0003 	subseq	r0, sp, r3
    2388:	01020000 	mrseq	r0, (UNDEF: 2)
    238c:	000d0efb 	strdeq	r0, [sp], -fp
    2390:	01010101 	tsteq	r1, r1, lsl #2
    2394:	01000000 	mrseq	r0, (UNDEF: 0)
    2398:	2e010000 	cdpcs	0, 0, cr0, cr1, cr0, {0}
    239c:	6174732f 	cmnvs	r4, pc, lsr #6
    23a0:	732d6666 			; <UNDEFINED> instruction: 0x732d6666
    23a4:	2f006372 	svccs	0x00006372
    23a8:	72657355 	rsbvc	r7, r5, #1409286145	; 0x54000001
    23ac:	696d2f73 	stmdbvs	sp!, {r0, r1, r4, r5, r6, r8, r9, sl, fp, sp}^
    23b0:	2f73656c 	svccs	0x0073656c
    23b4:	72756f53 	rsbsvc	r6, r5, #332	; 0x14c
    23b8:	632f6563 			; <UNDEFINED> instruction: 0x632f6563
    23bc:	30343273 	eorscc	r3, r4, r3, ror r2
    23c0:	6c2f786c 	stcvs	8, cr7, [pc], #-432	; 2218 <__code_start__-0x5de8>
    23c4:	69706269 	ldmdbvs	r0!, {r0, r3, r5, r6, r9, sp, lr}^
    23c8:	636e692f 	cmnvs	lr, #770048	; 0xbc000
    23cc:	6564756c 	strbvs	r7, [r4, #-1388]!	; 0xfffffa94
    23d0:	69740000 	ldmdbvs	r4!, {}^	; <UNPREDICTABLE>
    23d4:	2e72656d 	cdpcs	5, 7, cr6, cr2, cr13, {3}
    23d8:	00010063 	andeq	r0, r1, r3, rrx
    23dc:	69707200 	ldmdbvs	r0!, {r9, ip, sp, lr}^
    23e0:	0200682e 	andeq	r6, r0, #3014656	; 0x2e0000
    23e4:	05000000 	streq	r0, [r0, #-0]
    23e8:	02050023 	andeq	r0, r5, #35, 0	; 0x23
    23ec:	00009600 	andeq	r9, r0, r0, lsl #12
    23f0:	13050515 	movwne	r0, #21781	; 0x5515
    23f4:	01060c05 	tsteq	r6, r5, lsl #24
    23f8:	6a061f05 	bvs	18a014 <__bss_end__+0x17fa94>
    23fc:	05150505 	ldreq	r0, [r5, #-1285]	; 0xfffffafb
    2400:	050f061f 	streq	r0, [pc, #-1567]	; 1de9 <__code_start__-0x6217>
    2404:	2f063105 	svccs	0x00063105
    2408:	77030a05 	strvc	r0, [r3, -r5, lsl #20]
    240c:	13050501 	movwne	r0, #21761	; 0x5501
    2410:	01060c05 	tsteq	r6, r5, lsl #24
    2414:	06050566 	streq	r0, [r5], -r6, ror #10
    2418:	2f010903 	svccs	0x00010903
    241c:	13060105 	movwne	r0, #24837	; 0x6105
    2420:	68061c05 	stmdavs	r6, {r0, r2, sl, fp, ip}
    2424:	05130505 	ldreq	r0, [r3, #-1285]	; 0xfffffafb
    2428:	0176030a 	cmneq	r6, sl, lsl #6
    242c:	05150505 	ldreq	r0, [r5, #-1285]	; 0xfffffafb
    2430:	2e18061c 	mrccs	6, 0, r0, cr8, cr12, {0}
    2434:	7a030505 	bvc	c3850 <__bss_end__+0xb92d0>
    2438:	052f062e 	streq	r0, [pc, #-1582]!	; 1e12 <__code_start__-0x61ee>
    243c:	0177030a 	cmneq	r7, sl, lsl #6
    2440:	05130505 	ldreq	r0, [r3, #-1285]	; 0xfffffafb
    2444:	6601060c 	strvs	r0, [r1], -ip, lsl #12
    2448:	03060505 	movweq	r0, #25861	; 0x6505
    244c:	062f0109 	strteq	r0, [pc], -r9, lsl #2
    2450:	030c0501 	movweq	r0, #50433	; 0xc501
    2454:	05050176 	streq	r0, [r5, #-374]	; 0xfffffe8a
    2458:	2e0f0306 	cdpcs	3, 0, cr0, cr15, cr6, {0}
    245c:	05130905 	ldreq	r0, [r3, #-2309]	; 0xfffff6fb
    2460:	0174030a 	cmneq	r4, sl, lsl #6
    2464:	2f150505 	svccs	0x00150505
    2468:	77030a05 	strvc	r0, [r3, -r5, lsl #20]
    246c:	13050501 	movwne	r0, #21761	; 0x5501
    2470:	01060c05 	tsteq	r6, r5, lsl #24
    2474:	06050566 	streq	r0, [r5], -r6, ror #10
    2478:	05010903 	streq	r0, [r1, #-2307]	; 0xfffff6fd
    247c:	051a0611 	ldreq	r0, [sl, #-1553]	; 0xfffff9ef
    2480:	2e780305 	cdpcs	3, 7, cr0, cr8, cr5, {0}
    2484:	09052f06 	stmdbeq	r5, {r1, r2, r8, r9, sl, fp, sp}
    2488:	060c0519 			; <UNDEFINED> instruction: 0x060c0519
    248c:	061c0501 	ldreq	r0, [ip], -r1, lsl #10
    2490:	13050587 	movwne	r0, #21895	; 0x5587
    2494:	11061c05 	tstne	r6, r5, lsl #24
    2498:	4a2f0505 	bmi	bc38b4 <__bss_end__+0xbb9334>
    249c:	03060605 	movweq	r0, #26117	; 0x6605
    24a0:	05052e76 	streq	r2, [r5, #-3702]	; 0xfffff18a
    24a4:	030a0513 	movweq	r0, #42259	; 0xa513
    24a8:	05050176 	streq	r0, [r5, #-374]	; 0xfffffe8a
    24ac:	0a052f15 	beq	14e108 <__bss_end__+0x143b88>
    24b0:	05017703 	streq	r7, [r1, #-1795]	; 0xfffff8fd
    24b4:	0c051305 	stceq	3, cr1, [r5], {5}
    24b8:	05660106 	strbeq	r0, [r6, #-262]!	; 0xfffffefa
    24bc:	09030605 	stmdbeq	r3, {r0, r2, r9, sl}
    24c0:	01062f01 	tsteq	r6, r1, lsl #30
    24c4:	76030c05 	strvc	r0, [r3], -r5, lsl #24
    24c8:	06050501 	streq	r0, [r5], -r1, lsl #10
    24cc:	052e0f03 	streq	r0, [lr, #-3843]!	; 0xfffff0fd
    24d0:	0a051309 	beq	1470fc <__bss_end__+0x13cb7c>
    24d4:	05017403 	streq	r7, [r1, #-1027]	; 0xfffffbfd
    24d8:	052f1505 	streq	r1, [pc, #-1285]!	; 1fdb <__code_start__-0x6025>
    24dc:	0177030a 	cmneq	r7, sl, lsl #6
    24e0:	05130505 	ldreq	r0, [r3, #-1285]	; 0xfffffafb
    24e4:	6601060c 	strvs	r0, [r1], -ip, lsl #12
    24e8:	03060505 	movweq	r0, #25861	; 0x6505
    24ec:	11050109 	tstne	r5, r9, lsl #2
    24f0:	05051a06 	streq	r1, [r5, #-2566]	; 0xfffff5fa
    24f4:	062e7803 	strteq	r7, [lr], -r3, lsl #16
    24f8:	1909052f 	stmdbne	r9, {r0, r1, r2, r3, r5, r8, sl}
    24fc:	01060c05 	tsteq	r6, r5, lsl #24
    2500:	8a061e05 	bhi	189d1c <__bss_end__+0x17f79c>
    2504:	05130505 	ldreq	r0, [r3, #-1285]	; 0xfffffafb
    2508:	05050e06 	streq	r0, [r5, #-3590]	; 0xfffff1fa
    250c:	061e0513 			; <UNDEFINED> instruction: 0x061e0513
    2510:	2c050514 	cfstr32cs	mvfx0, [r5], {20}
    2514:	06060566 	streq	r0, [r6], -r6, ror #10
    2518:	052e7603 	streq	r7, [lr, #-1539]!	; 0xfffff9fd
    251c:	0a051305 	beq	147138 <__bss_end__+0x13cbb8>
    2520:	05017603 	streq	r7, [r1, #-1539]	; 0xfffff9fd
    2524:	052f1505 	streq	r1, [pc, #-1285]!	; 2027 <__code_start__-0x5fd9>
    2528:	0177030a 	cmneq	r7, sl, lsl #6
    252c:	05130505 	ldreq	r0, [r3, #-1285]	; 0xfffffafb
    2530:	6601060c 	strvs	r0, [r1], -ip, lsl #12
    2534:	03060505 	movweq	r0, #25861	; 0x6505
    2538:	062f0109 	strteq	r0, [pc], -r9, lsl #2
    253c:	030c0501 	movweq	r0, #50433	; 0xc501
    2540:	05050176 	streq	r0, [r5, #-374]	; 0xfffffe8a
    2544:	2e0f0306 	cdpcs	3, 0, cr0, cr15, cr6, {0}
    2548:	05130905 	ldreq	r0, [r3, #-2309]	; 0xfffff6fb
    254c:	0174030a 	cmneq	r4, sl, lsl #6
    2550:	2f150505 	svccs	0x00150505
    2554:	77030a05 	strvc	r0, [r3, -r5, lsl #20]
    2558:	13050501 	movwne	r0, #21761	; 0x5501
    255c:	01060c05 	tsteq	r6, r5, lsl #24
    2560:	06050566 	streq	r0, [r5], -r6, ror #10
    2564:	05010903 	streq	r0, [r1, #-2307]	; 0xfffff6fd
    2568:	051a0611 	ldreq	r0, [sl, #-1553]	; 0xfffff9ef
    256c:	2e780305 	cdpcs	3, 7, cr0, cr8, cr5, {0}
    2570:	09052f06 	stmdbeq	r5, {r1, r2, r8, r9, sl, fp, sp}
    2574:	060c0519 			; <UNDEFINED> instruction: 0x060c0519
    2578:	00080201 	andeq	r0, r8, r1, lsl #4
    257c:	02040101 	andeq	r0, r4, #1073741824	; 0x40000000
    2580:	00030000 	andeq	r0, r3, r0
    2584:	000000c8 	andeq	r0, r0, r8, asr #1
    2588:	0efb0102 	cdpeq	1, 15, cr0, cr11, cr2, {0}
    258c:	0101000d 	tsteq	r1, sp
    2590:	00000101 	andeq	r0, r0, r1, lsl #2
    2594:	00000100 	andeq	r0, r0, r0, lsl #2
    2598:	6f682f01 	svcvs	0x00682f01
    259c:	652f656d 	strvs	r6, [pc, #-1389]!	; 2037 <__code_start__-0x5fc9>
    25a0:	656c676e 	strbvs	r6, [ip, #-1902]!	; 0xfffff892
    25a4:	6c632f72 	stclvs	15, cr2, [r3], #-456	; 0xfffffe38
    25a8:	2f737361 	svccs	0x00737361
    25ac:	34317363 	ldrtcc	r7, [r1], #-867	; 0xfffffc9d
    25b0:	322d6530 	eorcc	r6, sp, #48, 10	; 0xc000000
    25b4:	6e697732 	mcrvs	7, 3, r7, cr9, cr2, {1}
    25b8:	696c2f2f 	stmdbvs	ip!, {r0, r1, r2, r3, r5, r8, r9, sl, fp, sp}^
    25bc:	2f697062 	svccs	0x00697062
    25c0:	6c636e69 	stclvs	14, cr6, [r3], #-420	; 0xfffffe5c
    25c4:	00656475 	rsbeq	r6, r5, r5, ror r4
    25c8:	7273752f 	rsbsvc	r7, r3, #197132288	; 0xbc00000
    25cc:	6168732f 	cmnvs	r8, pc, lsr #6
    25d0:	672f6572 			; <UNDEFINED> instruction: 0x672f6572
    25d4:	612d6363 			; <UNDEFINED> instruction: 0x612d6363
    25d8:	6e2d6d72 	mcrvs	13, 1, r6, cr13, cr2, {3}
    25dc:	2d656e6f 	stclcs	14, cr6, [r5, #-444]!	; 0xfffffe44
    25e0:	69626165 	stmdbvs	r2!, {r0, r2, r5, r6, r8, sp, lr}^
    25e4:	2e30312d 	rsfcssp	f3, f0, #5.0
    25e8:	30322d33 	eorscc	r2, r2, r3, lsr sp
    25ec:	312e3132 			; <UNDEFINED> instruction: 0x312e3132
    25f0:	696c2f30 	stmdbvs	ip!, {r4, r5, r8, r9, sl, fp, sp}^
    25f4:	63672f62 	cmnvs	r7, #392	; 0x188
    25f8:	72612f63 	rsbvc	r2, r1, #396	; 0x18c
    25fc:	6f6e2d6d 	svcvs	0x006e2d6d
    2600:	652d656e 	strvs	r6, [sp, #-1390]!	; 0xfffffa92
    2604:	2f696261 	svccs	0x00696261
    2608:	332e3031 			; <UNDEFINED> instruction: 0x332e3031
    260c:	692f312e 	stmdbvs	pc!, {r1, r2, r3, r5, r8, ip, sp}	; <UNPREDICTABLE>
    2610:	756c636e 	strbvc	r6, [ip, #-878]!	; 0xfffffc92
    2614:	00006564 	andeq	r6, r0, r4, ror #10
    2618:	74726175 	ldrbtvc	r6, [r2], #-373	; 0xfffffe8b
    261c:	0000632e 	andeq	r6, r0, lr, lsr #6
    2620:	61750000 	cmnvs	r5, r0
    2624:	682e7472 	stmdavs	lr!, {r1, r4, r5, r6, sl, ip, sp, lr}
    2628:	00000100 	andeq	r0, r0, r0, lsl #2
    262c:	2e697072 	mcrcs	0, 3, r7, cr9, cr2, {3}
    2630:	00010068 	andeq	r0, r1, r8, rrx
    2634:	69706700 	ldmdbvs	r0!, {r8, r9, sl, sp, lr}^
    2638:	00682e6f 	rsbeq	r2, r8, pc, ror #28
    263c:	73000001 	movwvc	r0, #1
    2640:	6e696474 	mcrvs	4, 3, r6, cr9, cr4, {3}
    2644:	63672d74 	cmnvs	r7, #116, 26	; 0x1d00
    2648:	00682e63 	rsbeq	r2, r8, r3, ror #28
    264c:	00000002 	andeq	r0, r0, r2
    2650:	05003905 	streq	r3, [r0, #-2309]	; 0xfffff6fb
    2654:	00971c02 	addseq	r1, r7, r2, lsl #24
    2658:	01300300 	teqeq	r0, r0, lsl #6
    265c:	05050106 	streq	r0, [r5, #-262]	; 0xfffffefa
    2660:	11056706 	tstne	r5, r6, lsl #14
    2664:	05050106 	streq	r0, [r5, #-262]	; 0xfffffefa
    2668:	6701052e 	strvs	r0, [r1, -lr, lsr #10]
    266c:	29063805 	stmdbcs	r6, {r0, r2, fp, ip, sp}
    2670:	05050106 	streq	r0, [r5, #-262]	; 0xfffffefa
    2674:	11056706 	tstne	r5, r6, lsl #14
    2678:	05050106 	streq	r0, [r5, #-262]	; 0xfffffefa
    267c:	6701052e 	strvs	r0, [r1, -lr, lsr #10]
    2680:	03061605 	movweq	r1, #26117	; 0x6605
    2684:	05052e15 	streq	r2, [r5, #-3605]	; 0xfffff1eb
    2688:	35686735 	strbcc	r6, [r8, #-1845]!	; 0xfffff8cb
    268c:	2e0c0368 	cdpcs	3, 0, cr0, cr12, cr8, {3}
    2690:	69696b85 	stmdbvs	r9!, {r0, r2, r7, r8, r9, fp, sp, lr}^
    2694:	13660c03 	cmnne	r6, #768	; 0x300
    2698:	0105676b 	tsteq	r5, fp, ror #14
    269c:	19052f06 	stmdbne	r5, {r1, r2, r8, r9, sl, fp, sp}
    26a0:	05250806 	streq	r0, [r5, #-2054]!	; 0xfffff7fa
    26a4:	0d053405 	cfstrseq	mvf3, [r5, #-20]	; 0xffffffec
    26a8:	01050106 	tsteq	r5, r6, lsl #2
    26ac:	0619054c 	ldreq	r0, [r9], -ip, asr #10
    26b0:	36050567 	strcc	r0, [r5], -r7, ror #10
    26b4:	01060d05 	tsteq	r6, r5, lsl #26
    26b8:	054a2805 	strbeq	r2, [sl, #-2053]	; 0xfffff7fb
    26bc:	15053001 	strne	r3, [r5, #-1]
    26c0:	05058706 	streq	r8, [r5, #-1798]	; 0xfffff8fa
    26c4:	09052f2f 	stmdbeq	r5, {r0, r1, r2, r3, r5, r8, r9, sl, fp, sp}
    26c8:	01040200 	mrseq	r0, R12_usr
    26cc:	000a0513 	andeq	r0, sl, r3, lsl r5
    26d0:	11010402 	tstne	r1, r2, lsl #8
    26d4:	02000c05 	andeq	r0, r0, #1280	; 0x500
    26d8:	01060104 	tsteq	r6, r4, lsl #2
    26dc:	02000a05 	andeq	r0, r0, #20480	; 0x5000
    26e0:	052e0104 	streq	r0, [lr, #-260]!	; 0xfffffefc
    26e4:	054c0605 	strbeq	r0, [ip, #-1541]	; 0xfffff9fb
    26e8:	0501060e 	streq	r0, [r1, #-1550]	; 0xfffff9f2
    26ec:	05054a09 	streq	r4, [r5, #-2569]	; 0xfffff5f7
    26f0:	052f2f06 	streq	r2, [pc, #-3846]!	; 17f2 <__code_start__-0x680e>
    26f4:	05130601 	ldreq	r0, [r3, #-1537]	; 0xfffff9ff
    26f8:	0667061c 			; <UNDEFINED> instruction: 0x0667061c
    26fc:	06050501 	streq	r0, [r5], -r1, lsl #10
    2700:	09052f4b 	stmdbeq	r5, {r0, r1, r3, r6, r8, r9, sl, fp, sp}
    2704:	01040200 	mrseq	r0, R12_usr
    2708:	000a0513 	andeq	r0, sl, r3, lsl r5
    270c:	11010402 	tstne	r1, r2, lsl #8
    2710:	02000c05 	andeq	r0, r0, #1280	; 0x500
    2714:	01060104 	tsteq	r6, r4, lsl #2
    2718:	02000a05 	andeq	r0, r0, #20480	; 0x5000
    271c:	052e0104 	streq	r0, [lr, #-260]!	; 0xfffffefc
    2720:	674c0605 	strbvs	r0, [ip, -r5, lsl #12]
    2724:	2f060105 	svccs	0x00060105
    2728:	4c061905 			; <UNDEFINED> instruction: 0x4c061905
    272c:	052e1b05 	streq	r1, [lr, #-2821]!	; 0xfffff4fb
    2730:	31052e2a 	tstcc	r5, sl, lsr #28
    2734:	42050106 	andmi	r0, r5, #-2147483647	; 0x80000001
    2738:	061c052e 	ldreq	r0, [ip], -lr, lsr #10
    273c:	2f050531 	svccs	0x00050531
    2740:	052e0903 	streq	r0, [lr, #-2307]!	; 0xfffff6fd
    2744:	0501060e 	streq	r0, [r1, #-1550]	; 0xfffff9f2
    2748:	01054a21 	tsteq	r5, r1, lsr #20
    274c:	052e0a03 	streq	r0, [lr, #-2563]!	; 0xfffff5fd
    2750:	0568061a 	strbeq	r0, [r8, #-1562]!	; 0xfffff9e6
    2754:	04020009 	streq	r0, [r2], #-9
    2758:	0a053001 	beq	14e764 <__bss_end__+0x1441e4>
    275c:	01040200 	mrseq	r0, R12_usr
    2760:	000c0511 	andeq	r0, ip, r1, lsl r5
    2764:	06010402 	streq	r0, [r1], -r2, lsl #8
    2768:	000a0501 	andeq	r0, sl, r1, lsl #10
    276c:	2e010402 	cdpcs	4, 0, cr0, cr1, cr2, {0}
    2770:	03061905 	movweq	r1, #26885	; 0x6905
    2774:	05667ee8 	strbeq	r7, [r6, #-3816]!	; 0xfffff118
    2778:	2f2f2f05 	svccs	0x002f2f05
    277c:	06010567 	streq	r0, [r1], -r7, ror #10
    2780:	0004022f 	andeq	r0, r4, pc, lsr #4
    2784:	03920101 	orrseq	r0, r2, #1073741824	; 0x40000000
    2788:	00030000 	andeq	r0, r3, r0
    278c:	000000b7 	strheq	r0, [r0], -r7
    2790:	0efb0102 	cdpeq	1, 15, cr0, cr11, cr2, {0}
    2794:	0101000d 	tsteq	r1, sp
    2798:	00000101 	andeq	r0, r0, r1, lsl #2
    279c:	00000100 	andeq	r0, r0, r0, lsl #2
    27a0:	6f682f01 	svcvs	0x00682f01
    27a4:	652f656d 	strvs	r6, [pc, #-1389]!	; 223f <__code_start__-0x5dc1>
    27a8:	656c676e 	strbvs	r6, [ip, #-1902]!	; 0xfffff892
    27ac:	6c632f72 	stclvs	15, cr2, [r3], #-456	; 0xfffffe38
    27b0:	2f737361 	svccs	0x00737361
    27b4:	34317363 	ldrtcc	r7, [r1], #-867	; 0xfffffc9d
    27b8:	322d6530 	eorcc	r6, sp, #48, 10	; 0xc000000
    27bc:	6e697732 	mcrvs	7, 3, r7, cr9, cr2, {1}
    27c0:	696c2f2f 	stmdbvs	ip!, {r0, r1, r2, r3, r5, r8, r9, sl, fp, sp}^
    27c4:	2f697062 	svccs	0x00697062
    27c8:	6c636e69 	stclvs	14, cr6, [r3], #-420	; 0xfffffe5c
    27cc:	00656475 	rsbeq	r6, r5, r5, ror r4
    27d0:	7273752f 	rsbsvc	r7, r3, #197132288	; 0xbc00000
    27d4:	6168732f 	cmnvs	r8, pc, lsr #6
    27d8:	672f6572 			; <UNDEFINED> instruction: 0x672f6572
    27dc:	612d6363 			; <UNDEFINED> instruction: 0x612d6363
    27e0:	6e2d6d72 	mcrvs	13, 1, r6, cr13, cr2, {3}
    27e4:	2d656e6f 	stclcs	14, cr6, [r5, #-444]!	; 0xfffffe44
    27e8:	69626165 	stmdbvs	r2!, {r0, r2, r5, r6, r8, sp, lr}^
    27ec:	2e30312d 	rsfcssp	f3, f0, #5.0
    27f0:	30322d33 	eorscc	r2, r2, r3, lsr sp
    27f4:	312e3132 			; <UNDEFINED> instruction: 0x312e3132
    27f8:	696c2f30 	stmdbvs	ip!, {r4, r5, r8, r9, sl, fp, sp}^
    27fc:	63672f62 	cmnvs	r7, #392	; 0x188
    2800:	72612f63 	rsbvc	r2, r1, #396	; 0x18c
    2804:	6f6e2d6d 	svcvs	0x006e2d6d
    2808:	652d656e 	strvs	r6, [sp, #-1390]!	; 0xfffffa92
    280c:	2f696261 	svccs	0x00696261
    2810:	332e3031 			; <UNDEFINED> instruction: 0x332e3031
    2814:	692f312e 	stmdbvs	pc!, {r1, r2, r3, r5, r8, ip, sp}	; <UNPREDICTABLE>
    2818:	756c636e 	strbvc	r6, [ip, #-878]!	; 0xfffffc92
    281c:	00006564 	andeq	r6, r0, r4, ror #10
    2820:	6c616d6b 	stclvs	13, cr6, [r1], #-428	; 0xfffffe54
    2824:	2e636f6c 	cdpcs	15, 6, cr6, cr3, cr12, {3}
    2828:	00000063 	andeq	r0, r0, r3, rrx
    282c:	69707200 	ldmdbvs	r0!, {r9, ip, sp, lr}^
    2830:	0100682e 	tsteq	r0, lr, lsr #16
    2834:	74730000 	ldrbtvc	r0, [r3], #-0
    2838:	746e6964 	strbtvc	r6, [lr], #-2404	; 0xfffff69c
    283c:	6363672d 	cmnvs	r3, #11796480	; 0xb40000
    2840:	0200682e 	andeq	r6, r0, #3014656	; 0x2e0000
    2844:	05000000 	streq	r0, [r0, #-0]
    2848:	0205001e 	andeq	r0, r5, #30, 0
    284c:	0000990c 	andeq	r9, r0, ip, lsl #18
    2850:	05012703 	streq	r2, [r1, #-1795]	; 0xfffff8fd
    2854:	2d050120 	stfcss	f0, [r5, #-128]	; 0xffffff80
    2858:	20050106 	andcs	r0, r5, r6, lsl #2
    285c:	22058306 	andcs	r8, r5, #402653184	; 0x18000000
    2860:	06350501 	ldrteq	r0, [r5], -r1, lsl #10
    2864:	061e0501 	ldreq	r0, [lr], -r1, lsl #10
    2868:	01200583 	smlawbeq	r0, r3, r5, r0
    286c:	01062d05 	tsteq	r6, r5, lsl #26
    2870:	85064205 	strhi	r4, [r6, #-517]	; 0xfffffdfb
    2874:	05050106 	streq	r0, [r5, #-262]	; 0xfffffefa
    2878:	01144b06 	tsteq	r4, r6, lsl #22
    287c:	02002e06 	andeq	r2, r0, #96	; 0x60
    2880:	2e060204 	cdpcs	2, 0, cr0, cr6, cr4, {0}
    2884:	02040200 	andeq	r0, r4, #0, 4
    2888:	04020001 	streq	r0, [r2], #-1
    288c:	0d051502 	cfstr32eq	mvfx1, [r5, #-8]
    2890:	02040200 	andeq	r0, r4, #0, 4
    2894:	07050106 	streq	r0, [r5, -r6, lsl #2]
    2898:	02040200 	andeq	r0, r4, #0, 4
    289c:	0609054a 	streq	r0, [r9], -sl, asr #10
    28a0:	1505054b 	strne	r0, [r5, #-1355]	; 0xfffffab5
    28a4:	01061705 	tsteq	r6, r5, lsl #14
    28a8:	054a1005 	strbeq	r1, [sl, #-5]
    28ac:	052f0605 	streq	r0, [pc, #-1541]!	; 22af <__code_start__-0x5d51>
    28b0:	0501061b 	streq	r0, [r1, #-1563]	; 0xfffff9e5
    28b4:	01052e0e 	tsteq	r5, lr, lsl #28
    28b8:	0005052f 	andeq	r0, r5, pc, lsr #10
    28bc:	06010402 	streq	r0, [r1], -r2, lsl #8
    28c0:	004a7703 	subeq	r7, sl, r3, lsl #14
    28c4:	01010402 	tsteq	r1, r2, lsl #8
    28c8:	01040200 	mrseq	r0, R12_usr
    28cc:	02009e06 	andeq	r9, r0, #96	; 0x60
    28d0:	002e0104 	eoreq	r0, lr, r4, lsl #2
    28d4:	06010402 	streq	r0, [r1], -r2, lsl #8
    28d8:	3209052e 	andcc	r0, r9, #192937984	; 0xb800000
    28dc:	2ed60601 	cdpcs	6, 13, cr0, cr6, cr1, {0}
    28e0:	19052e06 	stmdbne	r5, {r1, r2, r9, sl, fp, sp}
    28e4:	2f0505de 	svccs	0x000505de
    28e8:	06080514 			; <UNDEFINED> instruction: 0x06080514
    28ec:	4a070501 	bmi	1c3cf8 <__bss_end__+0x1b9778>
    28f0:	4b060905 	blmi	184d0c <__bss_end__+0x17a78c>
    28f4:	05130505 	ldreq	r0, [r3, #-1285]	; 0xfffffafb
    28f8:	0501060c 	streq	r0, [r1, #-1548]	; 0xfffff9f4
    28fc:	13670605 	cmnne	r7, #5242880	; 0x500000
    2900:	67060105 	strvs	r0, [r6, -r5, lsl #2]
    2904:	2a060905 	bcs	184d20 <__bss_end__+0x17a7a0>
    2908:	28059e01 	stmdacs	r5, {r0, r9, sl, fp, ip, pc}
    290c:	050106a5 	streq	r0, [r1, #-1701]	; 0xfffff95b
    2910:	014b0605 	cmpeq	fp, r5, lsl #12
    2914:	2e062e06 	cdpcs	14, 0, cr2, cr6, cr6, {0}
    2918:	18051301 	stmdane	r5, {r0, r8, r9, ip}
    291c:	05014703 	streq	r4, [r1, #-1795]	; 0xfffff8fd
    2920:	06011305 	streq	r1, [r1], -r5, lsl #6
    2924:	150f0601 	strne	r0, [pc, #-1537]	; 232b <__code_start__-0x5cd5>
    2928:	0e051301 	cdpeq	3, 0, cr1, cr5, cr1, {0}
    292c:	16050106 	strne	r0, [r5], -r6, lsl #2
    2930:	05052e2e 	streq	r2, [r5, #-3630]	; 0xfffff1d2
    2934:	01390306 	teqeq	r9, r6, lsl #6
    2938:	01060b05 	tsteq	r6, r5, lsl #22
    293c:	4b060505 	blmi	183d58 <__bss_end__+0x1797d8>
    2940:	01060a05 	tsteq	r6, r5, lsl #20
    2944:	4b060505 	blmi	183d60 <__bss_end__+0x1797e0>
    2948:	01060d05 	tsteq	r6, r5, lsl #26
    294c:	052e0705 	streq	r0, [lr, #-1797]!	; 0xfffff8fb
    2950:	05054d01 	streq	r4, [r5, #-3329]	; 0xfffff2ff
    2954:	01040200 	mrseq	r0, R12_usr
    2958:	4a780306 	bmi	1e03578 <__bss_end__+0x1df8ff8>
    295c:	01040200 	mrseq	r0, R12_usr
    2960:	04020001 	streq	r0, [r2], #-1
    2964:	00ba0601 	adcseq	r0, sl, r1, lsl #12
    2968:	06010402 	streq	r0, [r1], -r2, lsl #8
    296c:	3409052e 	strcc	r0, [r9], #-1326	; 0xfffffad2
    2970:	66820601 	strvs	r0, [r2], r1, lsl #12
    2974:	20052e06 	andcs	r2, r5, r6, lsl #28
    2978:	050106db 	streq	r0, [r1, #-1755]	; 0xfffff925
    297c:	014b0605 	cmpeq	fp, r5, lsl #12
    2980:	02040200 	andeq	r0, r4, #0, 4
    2984:	0402004a 	streq	r0, [r2], #-74	; 0xffffffb6
    2988:	02000102 	andeq	r0, r0, #-2147483648	; 0x80000000
    298c:	05130204 	ldreq	r0, [r3, #-516]	; 0xfffffdfc
    2990:	04020012 	streq	r0, [r2], #-18	; 0xffffffee
    2994:	00010602 	andeq	r0, r1, r2, lsl #12
    2998:	2e020402 	cdpcs	4, 0, cr0, cr2, cr2, {0}
    299c:	02040200 	andeq	r0, r4, #0, 4
    29a0:	0005052e 	andeq	r0, r5, lr, lsr #10
    29a4:	06020402 	streq	r0, [r2], -r2, lsl #8
    29a8:	0402002f 	streq	r0, [r2], #-47	; 0xffffffd1
    29ac:	01056702 	tsteq	r5, r2, lsl #14
    29b0:	02040200 	andeq	r0, r4, #0, 4
    29b4:	05051306 	streq	r1, [r5, #-774]	; 0xfffffcfa
    29b8:	01040200 	mrseq	r0, R12_usr
    29bc:	02006206 	andeq	r6, r0, #1610612736	; 0x60000000
    29c0:	00010104 	andeq	r0, r1, r4, lsl #2
    29c4:	06010402 	streq	r0, [r1], -r2, lsl #8
    29c8:	040200ba 	streq	r0, [r2], #-186	; 0xffffff46
    29cc:	052e0601 	streq	r0, [lr, #-1537]!	; 0xfffff9ff
    29d0:	9e0a033c 	mcrls	3, 0, r0, cr10, cr12, {1}
    29d4:	05050106 	streq	r0, [r5, #-262]	; 0xfffffefa
    29d8:	06014b06 	streq	r4, [r1], -r6, lsl #22
    29dc:	012e062e 			; <UNDEFINED> instruction: 0x012e062e
    29e0:	18050113 	stmdane	r5, {r0, r1, r4, r8}
    29e4:	017fad03 	cmneq	pc, r3, lsl #26
    29e8:	05130505 	ldreq	r0, [r3, #-1285]	; 0xfffffafb
    29ec:	2e010611 	mcrcs	6, 0, r0, cr1, cr1, {0}
    29f0:	d2030505 	andle	r0, r3, #20971520	; 0x1400000
    29f4:	4a060100 	bmi	182dfc <__bss_end__+0x17887c>
    29f8:	03180513 	tsteq	r8, #79691776	; 0x4c00000
    29fc:	05017fa3 	streq	r7, [r1, #-4003]	; 0xfffff05d
    2a00:	16051305 	strne	r1, [r5], -r5, lsl #6
    2a04:	054a0106 	strbeq	r0, [sl, #-262]	; 0xfffffefa
    2a08:	e1030605 	tst	r3, r5, lsl #12
    2a0c:	12050100 	andne	r0, r5, #0
    2a10:	05050106 	streq	r0, [r5, #-262]	; 0xfffffefa
    2a14:	18054b06 	stmdane	r5, {r1, r2, r8, r9, fp, lr}
    2a18:	017fa903 	cmneq	pc, r3, lsl #18
    2a1c:	01130505 	tsteq	r3, r5, lsl #10
    2a20:	050e1805 	streq	r1, [lr, #-2053]	; 0xfffff7fb
    2a24:	11051305 	tstne	r5, r5, lsl #6
    2a28:	052e0106 	streq	r0, [lr, #-262]!	; 0xfffffefa
    2a2c:	4a061505 	bmi	187e48 <__bss_end__+0x17d8c8>
    2a30:	0e051301 	cdpeq	3, 0, cr1, cr5, cr1, {0}
    2a34:	052e0106 	streq	r0, [lr, #-262]!	; 0xfffffefa
    2a38:	052e2e16 	streq	r2, [lr, #-3606]!	; 0xfffff1ea
    2a3c:	d6030605 	strle	r0, [r3], -r5, lsl #12
    2a40:	05010100 	streq	r0, [r1, #-256]	; 0xffffff00
    2a44:	7f9f0318 	svcvc	0x009f0318
    2a48:	13050501 	movwne	r0, #21761	; 0x5501
    2a4c:	01061905 	tsteq	r6, r5, lsl #18
    2a50:	0305052e 	movweq	r0, #21806	; 0x552e
    2a54:	000100e0 	andeq	r0, r1, r0, ror #1
    2a58:	06020402 	streq	r0, [r2], -r2, lsl #8
    2a5c:	0402004a 	streq	r0, [r2], #-74	; 0xffffffb6
    2a60:	0a051402 	beq	147a70 <__bss_end__+0x13d4f0>
    2a64:	02040200 	andeq	r0, r4, #0, 4
    2a68:	05050106 	streq	r0, [r5, #-262]	; 0xfffffefa
    2a6c:	02040200 	andeq	r0, r4, #0, 4
    2a70:	0c054b06 			; <UNDEFINED> instruction: 0x0c054b06
    2a74:	02040200 	andeq	r0, r4, #0, 4
    2a78:	01050106 	tsteq	r5, r6, lsl #2
    2a7c:	02040200 	andeq	r0, r4, #0, 4
    2a80:	0005052f 	andeq	r0, r5, pc, lsr #10
    2a84:	06010402 	streq	r0, [r1], -r2, lsl #8
    2a88:	004a7303 	subeq	r7, sl, r3, lsl #6
    2a8c:	01010402 	tsteq	r1, r2, lsl #8
    2a90:	01040200 	mrseq	r0, R12_usr
    2a94:	02009e06 	andeq	r9, r0, #96	; 0x60
    2a98:	002e0104 	eoreq	r0, lr, r4, lsl #2
    2a9c:	06010402 	streq	r0, [r1], -r2, lsl #8
    2aa0:	0402002e 	streq	r0, [r2], #-46	; 0xffffffd2
    2aa4:	02002f01 	andeq	r2, r0, #1, 30
    2aa8:	002e0104 	eoreq	r0, lr, r4, lsl #2
    2aac:	d6010402 	strle	r0, [r1], -r2, lsl #8
    2ab0:	2e7fb103 	expcse	f3, f3
    2ab4:	2e820601 	cdpcs	6, 8, cr0, cr2, cr1, {0}
    2ab8:	062e062e 	strteq	r0, [lr], -lr, lsr #12
    2abc:	0402002e 	streq	r0, [r2], #-46	; 0xffffffd2
    2ac0:	d7030601 	strle	r0, [r3, -r1, lsl #12]
    2ac4:	02000100 	andeq	r0, r0, #0
    2ac8:	002e0104 	eoreq	r0, lr, r4, lsl #2
    2acc:	d6010402 	strle	r0, [r1], -r2, lsl #8
    2ad0:	7b081505 	blvc	207eec <__bss_end__+0x1fd96c>
    2ad4:	05011705 	streq	r1, [r1, #-1797]	; 0xfffff8fb
    2ad8:	18053116 	stmdane	r5, {r1, r2, r4, r8, ip, sp}
    2adc:	061d0501 	ldreq	r0, [sp], -r1, lsl #10
    2ae0:	662b0501 	strtvs	r0, [fp], -r1, lsl #10
    2ae4:	4d061905 	vstrmi.16	s2, [r6, #-10]	; <UNPREDICTABLE>
    2ae8:	05130505 	ldreq	r0, [r3, #-1285]	; 0xfffffafb
    2aec:	0501060c 	streq	r0, [r1, #-1548]	; 0xfffff9f4
    2af0:	25054a07 	strcs	r4, [r5, #-2567]	; 0xfffff5f9
    2af4:	01040200 	mrseq	r0, R12_usr
    2af8:	001e054a 	andseq	r0, lr, sl, asr #10
    2afc:	4a010402 	bmi	43b0c <__bss_end__+0x3958c>
    2b00:	4b060905 	blmi	184f1c <__bss_end__+0x17a99c>
    2b04:	05130505 	ldreq	r0, [r3, #-1285]	; 0xfffffafb
    2b08:	0501060a 	streq	r0, [r1, #-1546]	; 0xfffff9f6
    2b0c:	09056319 	stmdbeq	r5, {r0, r3, r4, r8, r9, sp, lr}
    2b10:	06014c06 	streq	r4, [r1], -r6, lsl #24
    2b14:	022e069e 	eoreq	r0, lr, #165675008	; 0x9e00000
    2b18:	0101000a 	tsteq	r1, sl
    2b1c:	0000009e 	muleq	r0, lr, r0
    2b20:	005a0003 	subseq	r0, sl, r3
    2b24:	01020000 	mrseq	r0, (UNDEF: 2)
    2b28:	000d0efb 	strdeq	r0, [sp], -fp
    2b2c:	01010101 	tsteq	r1, r1, lsl #2
    2b30:	01000000 	mrseq	r0, (UNDEF: 0)
    2b34:	2e010000 	cdpcs	0, 0, cr0, cr1, cr0, {0}
    2b38:	62696c2f 	rsbvs	r6, r9, #12032	; 0x2f00
    2b3c:	552f0063 	strpl	r0, [pc, #-99]!	; 2ae1 <__code_start__-0x551f>
    2b40:	73726573 	cmnvc	r2, #482344960	; 0x1cc00000
    2b44:	6c696d2f 	stclvs	13, cr6, [r9], #-188	; 0xffffff44
    2b48:	532f7365 			; <UNDEFINED> instruction: 0x532f7365
    2b4c:	6372756f 	cmnvs	r2, #465567744	; 0x1bc00000
    2b50:	73632f65 	cmnvc	r3, #404	; 0x194
    2b54:	6c303432 	cfldrsvs	mvf3, [r0], #-200	; 0xffffff38
    2b58:	696c2f78 	stmdbvs	ip!, {r3, r4, r5, r6, r8, r9, sl, fp, sp}^
    2b5c:	2f697062 	svccs	0x00697062
    2b60:	6c636e69 	stclvs	14, cr6, [r3], #-420	; 0xfffffe5c
    2b64:	00656475 	rsbeq	r6, r5, r5, ror r4
    2b68:	74757000 	ldrbtvc	r7, [r5], #-0
    2b6c:	72616863 	rsbvc	r6, r1, #6488064	; 0x630000
    2b70:	0100632e 	tsteq	r0, lr, lsr #6
    2b74:	70720000 	rsbsvc	r0, r2, r0
    2b78:	00682e69 	rsbeq	r2, r8, r9, ror #28
    2b7c:	00000002 	andeq	r0, r0, r2
    2b80:	05002405 	streq	r2, [r0, #-1029]	; 0xfffffbfb
    2b84:	009cbc02 	addseq	fp, ip, r2, lsl #24
    2b88:	26051400 	strcs	r1, [r5], -r0, lsl #8
    2b8c:	06240501 	strteq	r0, [r4], -r1, lsl #10
    2b90:	26052e01 	strcs	r2, [r5], -r1, lsl #28
    2b94:	0634052e 	ldrteq	r0, [r4], -lr, lsr #10
    2b98:	0601052e 	streq	r0, [r1], -lr, lsr #10
    2b9c:	061b0501 	ldreq	r0, [fp], -r1, lsl #10
    2ba0:	1305054f 	movwne	r0, #21839	; 0x554f
    2ba4:	01061105 	tsteq	r6, r5, lsl #2
    2ba8:	05670105 	strbeq	r0, [r7, #-261]!	; 0xfffffefb
    2bac:	05670623 	strbeq	r0, [r7, #-1571]!	; 0xfffff9dd
    2bb0:	11051305 	tstne	r5, r5, lsl #6
    2bb4:	01050106 	tsteq	r5, r6, lsl #2
    2bb8:	0004024b 	andeq	r0, r4, fp, asr #4
    2bbc:	00e20101 	rsceq	r0, r2, r1, lsl #2
    2bc0:	00030000 	andeq	r0, r3, r0
    2bc4:	00000059 	andeq	r0, r0, r9, asr r0
    2bc8:	0efb0102 	cdpeq	1, 15, cr0, cr11, cr2, {0}
    2bcc:	0101000d 	tsteq	r1, sp
    2bd0:	00000101 	andeq	r0, r0, r1, lsl #2
    2bd4:	00000100 	andeq	r0, r0, r0, lsl #2
    2bd8:	6c2f2e01 	stcvs	14, cr2, [pc], #-4	; 2bdc <__code_start__-0x5424>
    2bdc:	00636269 	rsbeq	r6, r3, r9, ror #4
    2be0:	6573552f 	ldrbvs	r5, [r3, #-1327]!	; 0xfffffad1
    2be4:	6d2f7372 	stcvs	3, cr7, [pc, #-456]!	; 2a24 <__code_start__-0x55dc>
    2be8:	73656c69 	cmnvc	r5, #26880	; 0x6900
    2bec:	756f532f 	strbvc	r5, [pc, #-815]!	; 28c5 <__code_start__-0x573b>
    2bf0:	2f656372 	svccs	0x00656372
    2bf4:	34327363 	ldrtcc	r7, [r2], #-867	; 0xfffffc9d
    2bf8:	2f786c30 	svccs	0x00786c30
    2bfc:	7062696c 	rsbvc	r6, r2, ip, ror #18
    2c00:	6e692f69 	cdpvs	15, 6, cr2, cr9, cr9, {3}
    2c04:	64756c63 	ldrbtvs	r6, [r5], #-3171	; 0xfffff39d
    2c08:	73000065 	movwvc	r0, #101	; 0x65
    2c0c:	61637274 	smcvs	14116	; 0x3724
    2c10:	00632e74 	rsbeq	r2, r3, r4, ror lr
    2c14:	72000001 	andvc	r0, r0, #1, 0
    2c18:	682e6970 	stmdavs	lr!, {r4, r5, r6, r8, fp, sp, lr}
    2c1c:	00000200 	andeq	r0, r0, r0, lsl #4
    2c20:	002c0500 	eoreq	r0, ip, r0, lsl #10
    2c24:	9cf80205 	lfmls	f0, 2, [r8], #20
    2c28:	05150000 	ldreq	r0, [r5, #-0]
    2c2c:	05131305 	ldreq	r1, [r3, #-773]	; 0xfffffcfb
    2c30:	0511060b 	ldreq	r0, [r1, #-1547]	; 0xfffff9f5
    2c34:	04020005 	streq	r0, [r2], #-5
    2c38:	00300601 	eorseq	r0, r0, r1, lsl #12
    2c3c:	15010402 	strne	r0, [r1, #-1026]	; 0xfffffbfe
    2c40:	02000905 	andeq	r0, r0, #81920	; 0x14000
    2c44:	05130104 	ldreq	r0, [r3, #-260]	; 0xfffffefc
    2c48:	0402000b 	streq	r0, [r2], #-11
    2c4c:	05052f01 	streq	r2, [r5, #-3841]	; 0xfffff0ff
    2c50:	01040200 	mrseq	r0, R12_usr
    2c54:	02000106 	andeq	r0, r0, #-2147483647	; 0x80000001
    2c58:	062e0104 	strteq	r0, [lr], -r4, lsl #2
    2c5c:	0608054e 	streq	r0, [r8], -lr, asr #10
    2c60:	00050501 	andeq	r0, r5, r1, lsl #10
    2c64:	06010402 	streq	r0, [r1], -r2, lsl #8
    2c68:	0009052f 	andeq	r0, r9, pc, lsr #10
    2c6c:	13010402 	movwne	r0, #5122	; 0x1402
    2c70:	02000b05 	andeq	r0, r0, #5120	; 0x1400
    2c74:	01060104 	tsteq	r6, r4, lsl #2
    2c78:	02000905 	andeq	r0, r0, #81920	; 0x14000
    2c7c:	2f060104 	svccs	0x00060104
    2c80:	02000505 	andeq	r0, r0, #20971520	; 0x1400000
    2c84:	13060104 	movwne	r0, #24836	; 0x6104
    2c88:	02000f05 	andeq	r0, r0, #5, 30
    2c8c:	052d0104 	streq	r0, [sp, #-260]!	; 0xfffffefc
    2c90:	0402000d 	streq	r0, [r2], #-13
    2c94:	052f0601 	streq	r0, [pc, #-1537]!	; 269b <__code_start__-0x5965>
    2c98:	04020005 	streq	r0, [r2], #-5
    2c9c:	02010601 	andeq	r0, r1, #1048576	; 0x100000
    2ca0:	01010004 	tsteq	r1, r4
    2ca4:	000000b2 	strheq	r0, [r0], -r2
    2ca8:	00590003 	subseq	r0, r9, r3
    2cac:	01020000 	mrseq	r0, (UNDEF: 2)
    2cb0:	000d0efb 	strdeq	r0, [sp], -fp
    2cb4:	01010101 	tsteq	r1, r1, lsl #2
    2cb8:	01000000 	mrseq	r0, (UNDEF: 0)
    2cbc:	2e010000 	cdpcs	0, 0, cr0, cr1, cr0, {0}
    2cc0:	62696c2f 	rsbvs	r6, r9, #12032	; 0x2f00
    2cc4:	552f0063 	strpl	r0, [pc, #-99]!	; 2c69 <__code_start__-0x5397>
    2cc8:	73726573 	cmnvc	r2, #482344960	; 0x1cc00000
    2ccc:	6c696d2f 	stclvs	13, cr6, [r9], #-188	; 0xffffff44
    2cd0:	532f7365 			; <UNDEFINED> instruction: 0x532f7365
    2cd4:	6372756f 	cmnvs	r2, #465567744	; 0x1bc00000
    2cd8:	73632f65 	cmnvc	r3, #404	; 0x194
    2cdc:	6c303432 	cfldrsvs	mvf3, [r0], #-200	; 0xffffff38
    2ce0:	696c2f78 	stmdbvs	ip!, {r3, r4, r5, r6, r8, r9, sl, fp, sp}^
    2ce4:	2f697062 	svccs	0x00697062
    2ce8:	6c636e69 	stclvs	14, cr6, [r3], #-420	; 0xfffffe5c
    2cec:	00656475 	rsbeq	r6, r5, r5, ror r4
    2cf0:	72747300 	rsbsvc	r7, r4, #0, 6
    2cf4:	2e706d63 	cdpcs	13, 7, cr6, cr0, cr3, {3}
    2cf8:	00010063 	andeq	r0, r1, r3, rrx
    2cfc:	69707200 	ldmdbvs	r0!, {r9, ip, sp, lr}^
    2d00:	0200682e 	andeq	r6, r0, #3014656	; 0x2e0000
    2d04:	05000000 	streq	r0, [r0, #-0]
    2d08:	0205002a 	andeq	r0, r5, #42, 0	; 0x2a
    2d0c:	00009d24 	andeq	r9, r0, r4, lsr #26
    2d10:	13090514 	movwne	r0, #38164	; 0x9514
    2d14:	01061005 	tsteq	r6, r5
    2d18:	2e060f05 	cdpcs	15, 0, cr0, cr6, cr5, {0}
    2d1c:	82061005 	andhi	r1, r6, #5, 0
    2d20:	052e0f05 	streq	r0, [lr, #-3845]!	; 0xfffff0fb
    2d24:	04020011 	streq	r0, [r2], #-17	; 0xffffffef
    2d28:	054b0601 	strbeq	r0, [fp, #-1537]	; 0xfffff9ff
    2d2c:	0402001c 	streq	r0, [r2], #-28	; 0xffffffe4
    2d30:	052d0601 	streq	r0, [sp, #-1537]!	; 0xfffff9ff
    2d34:	0402000f 	streq	r0, [r2], #-15
    2d38:	052e0601 	streq	r0, [lr, #-1537]!	; 0xfffff9ff
    2d3c:	04020013 	streq	r0, [r2], #-19	; 0xffffffed
    2d40:	05010601 	streq	r0, [r1, #-1537]	; 0xfffff9ff
    2d44:	054c0609 	strbeq	r0, [ip, #-1545]	; 0xfffff9f7
    2d48:	4a130601 	bmi	4c4554 <__bss_end__+0x4b9fd4>
    2d4c:	2d060905 	vstrcs.16	s0, [r6, #-10]	; <UNPREDICTABLE>
    2d50:	13060105 	movwne	r0, #24837	; 0x6105
    2d54:	0002022e 	andeq	r0, r2, lr, lsr #4
    2d58:	009d0101 	addseq	r0, sp, r1, lsl #2
    2d5c:	00030000 	andeq	r0, r3, r0
    2d60:	00000059 	andeq	r0, r0, r9, asr r0
    2d64:	0efb0102 	cdpeq	1, 15, cr0, cr11, cr2, {0}
    2d68:	0101000d 	tsteq	r1, sp
    2d6c:	00000101 	andeq	r0, r0, r1, lsl #2
    2d70:	00000100 	andeq	r0, r0, r0, lsl #2
    2d74:	6c2f2e01 	stcvs	14, cr2, [pc], #-4	; 2d78 <__code_start__-0x5288>
    2d78:	00636269 	rsbeq	r6, r3, r9, ror #4
    2d7c:	6573552f 	ldrbvs	r5, [r3, #-1327]!	; 0xfffffad1
    2d80:	6d2f7372 	stcvs	3, cr7, [pc, #-456]!	; 2bc0 <__code_start__-0x5440>
    2d84:	73656c69 	cmnvc	r5, #26880	; 0x6900
    2d88:	756f532f 	strbvc	r5, [pc, #-815]!	; 2a61 <__code_start__-0x559f>
    2d8c:	2f656372 	svccs	0x00656372
    2d90:	34327363 	ldrtcc	r7, [r2], #-867	; 0xfffffc9d
    2d94:	2f786c30 	svccs	0x00786c30
    2d98:	7062696c 	rsbvc	r6, r2, ip, ror #18
    2d9c:	6e692f69 	cdpvs	15, 6, cr2, cr9, cr9, {3}
    2da0:	64756c63 	ldrbtvs	r6, [r5], #-3171	; 0xfffff39d
    2da4:	73000065 	movwvc	r0, #101	; 0x65
    2da8:	70637274 	rsbvc	r7, r3, r4, ror r2
    2dac:	00632e79 	rsbeq	r2, r3, r9, ror lr
    2db0:	72000001 	andvc	r0, r0, #1, 0
    2db4:	682e6970 	stmdavs	lr!, {r4, r5, r6, r8, fp, sp, lr}
    2db8:	00000200 	andeq	r0, r0, r0, lsl #4
    2dbc:	002a0500 	eoreq	r0, sl, r0, lsl #10
    2dc0:	9d680205 	sfmls	f0, 2, [r8, #-20]!	; 0xffffffec
    2dc4:	05140000 	ldreq	r0, [r4, #-0]
    2dc8:	05131305 	ldreq	r1, [r3, #-773]	; 0xfffffcfb
    2dcc:	04020022 	streq	r0, [r2], #-34	; 0xffffffde
    2dd0:	0b052e01 	bleq	14e5dc <__bss_end__+0x14405c>
    2dd4:	01040200 	mrseq	r0, R12_usr
    2dd8:	00150501 	andseq	r0, r5, r1, lsl #10
    2ddc:	06010402 	streq	r0, [r1], -r2, lsl #8
    2de0:	000b0501 	andeq	r0, fp, r1, lsl #10
    2de4:	2e010402 	cdpcs	4, 0, cr0, cr1, cr2, {0}
    2de8:	02001305 	andeq	r1, r0, #335544320	; 0x14000000
    2dec:	052e0104 	streq	r0, [lr, #-260]!	; 0xfffffefc
    2df0:	0402000b 	streq	r0, [r2], #-11
    2df4:	04022e01 	streq	r2, [r2], #-3585	; 0xfffff1ff
    2df8:	fd010100 	stc2	1, cr0, [r1, #-0]
    2dfc:	03000000 	movweq	r0, #0
    2e00:	0000bf00 	andeq	fp, r0, r0, lsl #30
    2e04:	fb010200 	blx	4360e <__bss_end__+0x3908e>
    2e08:	01000d0e 	tsteq	r0, lr, lsl #26
    2e0c:	00010101 	andeq	r0, r1, r1, lsl #2
    2e10:	00010000 	andeq	r0, r1, r0
    2e14:	2f2e0100 	svccs	0x002e0100
    2e18:	6362696c 	cmnvs	r2, #108, 18	; 0x1b0000
    2e1c:	73552f00 	cmpvc	r5, #0, 30
    2e20:	2f737265 	svccs	0x00737265
    2e24:	656c696d 	strbvs	r6, [ip, #-2413]!	; 0xfffff693
    2e28:	6f532f73 	svcvs	0x00532f73
    2e2c:	65637275 	strbvs	r7, [r3, #-629]!	; 0xfffffd8b
    2e30:	3273632f 	rsbscc	r6, r3, #-1140850688	; 0xbc000000
    2e34:	786c3034 	stmdavc	ip!, {r2, r4, r5, ip, sp}^
    2e38:	62696c2f 	rsbvs	r6, r9, #12032	; 0x2f00
    2e3c:	692f6970 	stmdbvs	pc!, {r4, r5, r6, r8, fp, sp, lr}	; <UNPREDICTABLE>
    2e40:	756c636e 	strbvc	r6, [ip, #-878]!	; 0xfffffc92
    2e44:	2f006564 	svccs	0x00006564
    2e48:	2f74706f 	svccs	0x0074706f
    2e4c:	656d6f68 	strbvs	r6, [sp, #-3944]!	; 0xfffff098
    2e50:	77657262 	strbvc	r7, [r5, -r2, ror #4]!
    2e54:	6c65432f 	stclvs	3, cr4, [r5], #-188	; 0xffffff44
    2e58:	2f72616c 	svccs	0x0072616c
    2e5c:	2d6d7261 	sfmcs	f7, 2, [sp, #-388]!	; 0xfffffe7c
    2e60:	656e6f6e 	strbvs	r6, [lr, #-3950]!	; 0xfffff092
    2e64:	6261652d 	rsbvs	r6, r1, #188743680	; 0xb400000
    2e68:	2f392d69 	svccs	0x00392d69
    2e6c:	30322d39 	eorscc	r2, r2, r9, lsr sp
    2e70:	34713931 	ldrbtcc	r3, [r1], #-2353	; 0xfffff6cf
    2e74:	3173632d 	cmncc	r3, sp, lsr #6
    2e78:	2f653730 	svccs	0x00653730
    2e7c:	2f62696c 	svccs	0x0062696c
    2e80:	2f636367 	svccs	0x00636367
    2e84:	2d6d7261 	sfmcs	f7, 2, [sp, #-388]!	; 0xfffffe7c
    2e88:	656e6f6e 	strbvs	r6, [lr, #-3950]!	; 0xfffff092
    2e8c:	6261652d 	rsbvs	r6, r1, #188743680	; 0xb400000
    2e90:	2e392f69 	cdpcs	15, 3, cr2, cr9, cr9, {3}
    2e94:	2f312e32 	svccs	0x00312e32
    2e98:	6c636e69 	stclvs	14, cr6, [r3], #-420	; 0xfffffe5c
    2e9c:	00656475 	rsbeq	r6, r5, r5, ror r4
    2ea0:	72747300 	rsbsvc	r7, r4, #0, 6
    2ea4:	706d636e 	rsbvc	r6, sp, lr, ror #6
    2ea8:	0100632e 	tsteq	r0, lr, lsr #6
    2eac:	70720000 	rsbsvc	r0, r2, r0
    2eb0:	00682e69 	rsbeq	r2, r8, r9, ror #28
    2eb4:	73000002 	movwvc	r0, #2
    2eb8:	65646474 	strbvs	r6, [r4, #-1140]!	; 0xfffffb8c
    2ebc:	00682e66 	rsbeq	r2, r8, r6, ror #28
    2ec0:	00000003 	andeq	r0, r0, r3
    2ec4:	05003905 	streq	r3, [r0, #-2309]	; 0xfffff6fb
    2ec8:	009d8002 	addseq	r8, sp, r2
    2ecc:	05051500 	streq	r1, [r5, #-1280]	; 0xfffffb00
    2ed0:	0a051313 	beq	147b24 <__bss_end__+0x13d5a4>
    2ed4:	0c052e06 	stceq	14, cr2, [r5], {6}
    2ed8:	2e13052f 	cfmul64cs	mvdx0, mvdx3, mvdx15
    2edc:	052e0b05 	streq	r0, [lr, #-2821]!	; 0xfffff4fb
    2ee0:	054a0609 	strbeq	r0, [sl, #-1545]	; 0xfffff9f7
    2ee4:	0106110a 	tsteq	r6, sl, lsl #2
    2ee8:	054e0c05 	strbeq	r0, [lr, #-3077]	; 0xfffff3fb
    2eec:	0d052f01 	stceq	15, cr2, [r5, #-4]
    2ef0:	1b052b06 	blne	14db10 <__bss_end__+0x143590>
    2ef4:	022e0106 	eoreq	r0, lr, #-2147483647	; 0x80000001
    2ef8:	01010002 	tsteq	r1, r2
    2efc:	0000008a 	andeq	r0, r0, sl, lsl #1
    2f00:	006e0003 	rsbeq	r0, lr, r3
    2f04:	01020000 	mrseq	r0, (UNDEF: 2)
    2f08:	000d0efb 	strdeq	r0, [sp], -fp
    2f0c:	01010101 	tsteq	r1, r1, lsl #2
    2f10:	01000000 	mrseq	r0, (UNDEF: 0)
    2f14:	2e010000 	cdpcs	0, 0, cr0, cr1, cr0, {0}
    2f18:	6174732f 	cmnvs	r4, pc, lsr #6
    2f1c:	732d6666 			; <UNDEFINED> instruction: 0x732d6666
    2f20:	2f006372 	svccs	0x00006372
    2f24:	72657355 	rsbvc	r7, r5, #1409286145	; 0x54000001
    2f28:	696d2f73 	stmdbvs	sp!, {r0, r1, r4, r5, r6, r8, r9, sl, fp, sp}^
    2f2c:	2f73656c 	svccs	0x0073656c
    2f30:	72756f53 	rsbsvc	r6, r5, #332	; 0x14c
    2f34:	632f6563 			; <UNDEFINED> instruction: 0x632f6563
    2f38:	30343273 	eorscc	r3, r4, r3, ror r2
    2f3c:	6c2f786c 	stcvs	8, cr7, [pc], #-432	; 2d94 <__code_start__-0x526c>
    2f40:	69706269 	ldmdbvs	r0!, {r0, r3, r5, r6, r9, sp, lr}^
    2f44:	636e692f 	cmnvs	lr, #770048	; 0xbc000
    2f48:	6564756c 	strbvs	r7, [r4, #-1388]!	; 0xfffffa94
    2f4c:	65640000 	strbvs	r0, [r4, #-0]!
    2f50:	6c756166 	ldfvse	f6, [r5], #-408	; 0xfffffe68
    2f54:	65722d74 	ldrbvs	r2, [r2, #-3444]!	; 0xfffff28c
    2f58:	746f6f62 	strbtvc	r6, [pc], #-3938	; 2f60 <__code_start__-0x50a0>
    2f5c:	6c61632d 	stclvs	3, cr6, [r1], #-180	; 0xffffff4c
    2f60:	74756f6c 	ldrbtvc	r6, [r5], #-3948	; 0xfffff094
    2f64:	0100632e 	tsteq	r0, lr, lsr #6
    2f68:	70720000 	rsbsvc	r0, r2, r0
    2f6c:	00682e69 	rsbeq	r2, r8, r9, ror #28
    2f70:	00000002 	andeq	r0, r0, r2
    2f74:	05001b05 	streq	r1, [r0, #-2821]	; 0xfffff4fb
    2f78:	009db002 	addseq	fp, sp, r2
    2f7c:	1c051400 	cfstrsne	mvf1, [r5], {-0}
    2f80:	06010501 	streq	r0, [r1], -r1, lsl #10
    2f84:	00020201 	andeq	r0, r2, r1, lsl #4
    2f88:	Address 0x0000000000002f88 is out of bounds.


Disassembly of section .debug_str:

00000000 <.debug_str>:
   0:	5f6f656e 	svcpl	0x006f656e
   4:	646e6168 	strbtvs	r6, [lr], #-360	; 0xfffffe98
   8:	6700656c 	strvs	r6, [r0, -ip, ror #10]
   c:	5f6f6970 	svcpl	0x006f6970
  10:	30726c63 	rsbscc	r6, r2, r3, ror #24
  14:	69706700 	ldmdbvs	r0!, {r8, r9, sl, sp, lr}^
  18:	65735f6f 	ldrbvs	r5, [r3, #-3951]!	; 0xfffff091
  1c:	70003074 	andvc	r3, r0, r4, ror r0
  20:	705f7869 	subsvc	r7, pc, r9, ror #16
  24:	63006e69 	movwvs	r6, #3689	; 0xe69
  28:	65706d6f 	ldrbvs	r6, [r0, #-3439]!	; 0xfffff291
  2c:	7461736e 	strbtvc	r7, [r1], #-878	; 0xfffffc92
  30:	006e6f69 	rsbeq	r6, lr, r9, ror #30
  34:	706f656e 	rsbvc	r6, pc, lr, ror #10
  38:	775f7869 	ldrbvc	r7, [pc, -r9, ror #16]
  3c:	65746972 	ldrbvs	r6, [r4, #-2418]!	; 0xfffff68e
  40:	746f6e00 	strbtvc	r6, [pc], #-3584	; 48 <__code_start__-0x7fb8>
  44:	6e69616d 	powvsez	f6, f1, #5.0
  48:	69706e00 	ldmdbvs	r0!, {r9, sl, fp, sp, lr}^
  4c:	736c6578 	cmnvc	ip, #120, 10	; 0x1e000000
  50:	6f656e00 	svcvs	0x00656e00
  54:	5f786970 	svcpl	0x00786970
  58:	74696e69 	strbtvc	r6, [r9], #-3689	; 0xfffff197
  5c:	73552f00 	cmpvc	r5, #0, 30
  60:	2f737265 	svccs	0x00737265
  64:	656c696d 	strbvs	r6, [ip, #-2413]!	; 0xfffff693
  68:	6f532f73 	svcvs	0x00532f73
  6c:	65637275 	strbvs	r7, [r3, #-629]!	; 0xfffffd8b
  70:	3273632f 	rsbscc	r6, r3, #-1140850688	; 0xbc000000
  74:	786c3034 	stmdavc	ip!, {r2, r4, r5, ip, sp}^
  78:	62616c2f 	rsbvs	r6, r1, #12032	; 0x2f00
  7c:	2d342f73 	ldccs	15, cr2, [r4, #-460]!	; 0xfffffe34
  80:	38327377 	ldmdacc	r2!, {r0, r1, r2, r4, r5, r6, r8, r9, ip, sp, lr}
  84:	2f623231 	svccs	0x00623231
  88:	65646f63 	strbvs	r6, [r4, #-3939]!	; 0xfffff09d
  8c:	736e7500 	cmnvc	lr, #0, 10
  90:	656e6769 	strbvs	r6, [lr, #-1897]!	; 0xfffff897
  94:	68632064 	stmdavs	r3!, {r2, r5, r6, sp}^
  98:	64007261 	strvs	r7, [r0], #-609	; 0xfffffd9f
  9c:	79616c65 	stmdbvc	r1!, {r0, r2, r5, r6, sl, fp, sp, lr}^
  a0:	00736d5f 	rsbseq	r6, r3, pc, asr sp
  a4:	726f6873 	rsbvc	r6, pc, #7536640	; 0x730000
  a8:	6e752074 	mrcvs	0, 3, r2, cr5, cr4, {3}
  ac:	6e676973 			; <UNDEFINED> instruction: 0x6e676973
  b0:	69206465 	stmdbvs	r0!, {r0, r2, r5, r6, sl, sp, lr}
  b4:	6e00746e 	cdpvs	4, 0, cr7, cr0, cr14, {3}
  b8:	69706f65 	ldmdbvs	r0!, {r0, r2, r5, r6, r8, r9, sl, fp, sp, lr}^
  bc:	6c665f78 	stclvs	15, cr5, [r6], #-480	; 0xfffffe20
  c0:	00687375 	rsbeq	r7, r8, r5, ror r3
  c4:	6f697067 	svcvs	0x00697067
  c8:	7465735f 	strbtvc	r7, [r5], #-863	; 0xfffffca1
  cc:	74756f5f 	ldrbtvc	r6, [r5], #-3935	; 0xfffff0a1
  d0:	00747570 	rsbseq	r7, r4, r0, ror r5
  d4:	706f656e 	rsbvc	r6, pc, lr, ror #10
  d8:	665f7869 	ldrbvs	r7, [pc], -r9, ror #16
  dc:	5f747361 	svcpl	0x00747361
  e0:	61656c63 	cmnvs	r5, r3, ror #24
  e4:	4e470072 	mcrmi	0, 2, r0, cr7, cr2, {3}
  e8:	39432055 	stmdbcc	r3, {r0, r2, r4, r6, sp}^
  ec:	2e392039 	mrccs	0, 1, r2, cr9, cr9, {1}
  f0:	20312e32 	eorscs	r2, r1, r2, lsr lr
  f4:	39313032 	ldmdbcc	r1!, {r1, r4, r5, ip, sp}
  f8:	35323031 	ldrcc	r3, [r2, #-49]!	; 0xffffffcf
  fc:	65722820 	ldrbvs	r2, [r2, #-2080]!	; 0xfffff7e0
 100:	7361656c 	cmnvc	r1, #108, 10	; 0x1b000000
 104:	5b202965 	blpl	80a6a0 <__bss_end__+0x800120>
 108:	2f4d5241 	svccs	0x004d5241
 10c:	2d6d7261 	sfmcs	f7, 2, [sp, #-388]!	; 0xfffffe7c
 110:	72622d39 	rsbvc	r2, r2, #3648	; 0xe40
 114:	68636e61 	stmdavs	r3!, {r0, r5, r6, r9, sl, fp, sp, lr}^
 118:	76657220 	strbtvc	r7, [r5], -r0, lsr #4
 11c:	6f697369 	svcvs	0x00697369
 120:	3732206e 	ldrcc	r2, [r2, -lr, rrx]!
 124:	39393537 	ldmdbcc	r9!, {r0, r1, r2, r4, r5, r8, sl, ip, sp}
 128:	6d2d205d 	stcvs	0, cr2, [sp, #-372]!	; 0xfffffe8c
 12c:	3d757063 	ldclcc	0, cr7, [r5, #-396]!	; 0xfffffe74
 130:	316d7261 	cmncc	sp, r1, ror #4
 134:	6a363731 	bvs	d8de00 <__bss_end__+0xd83880>
 138:	732d667a 			; <UNDEFINED> instruction: 0x732d667a
 13c:	746d2d20 	strbtvc	r2, [sp], #-3360	; 0xfffff2e0
 140:	3d656e75 	stclcc	14, cr6, [r5, #-468]!	; 0xfffffe2c
 144:	316d7261 	cmncc	sp, r1, ror #4
 148:	6a363731 	bvs	d8de14 <__bss_end__+0xd83894>
 14c:	732d667a 			; <UNDEFINED> instruction: 0x732d667a
 150:	666d2d20 	strbtvs	r2, [sp], -r0, lsr #26
 154:	74616f6c 	strbtvc	r6, [r1], #-3948	; 0xfffff094
 158:	6962612d 	stmdbvs	r2!, {r0, r2, r3, r5, r8, sp, lr}^
 15c:	666f733d 			; <UNDEFINED> instruction: 0x666f733d
 160:	6d2d2074 	stcvs	0, cr2, [sp, #-464]!	; 0xfffffe30
 164:	206d7261 	rsbcs	r7, sp, r1, ror #4
 168:	72616d2d 	rsbvc	r6, r1, #2880	; 0xb40
 16c:	613d6863 	teqvs	sp, r3, ror #16
 170:	36766d72 			; <UNDEFINED> instruction: 0x36766d72
 174:	2d207a6b 	vstmdbcs	r0!, {s14-s120}
 178:	62646767 	rsbvs	r6, r4, #27000832	; 0x19c0000
 17c:	334f2d20 	movtcc	r2, #64800	; 0xfd20
 180:	74732d20 	ldrbtvc	r2, [r3], #-3360	; 0xfffff2e0
 184:	6e673d64 	cdpvs	13, 6, cr3, cr7, cr4, {3}
 188:	20393975 	eorscs	r3, r9, r5, ror r9
 18c:	7266662d 	rsbvc	r6, r6, #47185920	; 0x2d00000
 190:	74736565 	ldrbtvc	r6, [r3], #-1381	; 0xfffffa9b
 194:	69646e61 	stmdbvs	r4!, {r0, r5, r6, r9, sl, fp, sp, lr}^
 198:	3200676e 	andcc	r6, r0, #28835840	; 0x1b80000
 19c:	6f656e2d 	svcvs	0x00656e2d
 1a0:	2e786970 			; <UNDEFINED> instruction: 0x2e786970
 1a4:	6f6c0063 	svcvs	0x006c0063
 1a8:	6c20676e 	stcvs	7, cr6, [r0], #-440	; 0xfffffe48
 1ac:	20676e6f 	rsbcs	r6, r7, pc, ror #28
 1b0:	69736e75 	ldmdbvs	r3!, {r0, r2, r4, r5, r6, r9, sl, fp, sp, lr}^
 1b4:	64656e67 	strbtvs	r6, [r5], #-3687	; 0xfffff199
 1b8:	746e6920 	strbtvc	r6, [lr], #-2336	; 0xfffff6e0
 1bc:	69706700 	ldmdbvs	r0!, {r8, r9, sl, sp, lr}^
 1c0:	656c5f6f 	strbvs	r5, [ip, #-3951]!	; 0xfffff091
 1c4:	6e003076 	mcrvs	0, 0, r3, cr0, cr6, {3}
 1c8:	745f6f65 	ldrbvc	r6, [pc], #-3941	; 1d0 <__code_start__-0x7e30>
 1cc:	6e6f6c00 	cdpvs	12, 6, cr6, cr15, cr0, {0}
 1d0:	6f6c2067 	svcvs	0x006c2067
 1d4:	6920676e 	stmdbvs	r0!, {r1, r2, r3, r5, r6, r8, r9, sl, sp, lr}
 1d8:	7200746e 	andvc	r7, r0, #1845493760	; 0x6e000000
 1dc:	705f6970 	subsvc	r6, pc, r0, ror r9	; <UNPREDICTABLE>
 1e0:	68637475 	stmdavs	r3!, {r0, r2, r4, r5, r6, sl, ip, sp, lr}^
 1e4:	73007261 	movwvc	r7, #609	; 0x261
 1e8:	74726f68 	ldrbtvc	r6, [r2], #-3944	; 0xfffff098
 1ec:	746e6920 	strbtvc	r6, [lr], #-2336	; 0xfffff6e0
 1f0:	616e6500 	cmnvs	lr, r0, lsl #10
 1f4:	5f656c62 	svcpl	0x00656c62
 1f8:	68636163 	stmdavs	r3!, {r0, r1, r5, r6, r8, sp, lr}^
 1fc:	6c700065 	ldclvs	0, cr0, [r0], #-404	; 0xfffffe6c
 200:	5f656361 	svcpl	0x00656361
 204:	73727563 	cmnvc	r2, #415236096	; 0x18c00000
 208:	7700726f 	strvc	r7, [r0, -pc, ror #4]
 20c:	65746972 	ldrbvs	r6, [r4, #-2418]!	; 0xfffff68e
 210:	7700305f 	smlsdvc	r0, pc, r0, r3	; <UNPREDICTABLE>
 214:	65746972 	ldrbvs	r6, [r4, #-2418]!	; 0xfffff68e
 218:	6e00315f 	mcrvs	1, 0, r3, cr0, cr15, {2}
 21c:	705f6f65 	subsvc	r6, pc, r5, ror #30
 220:	6c657869 	stclvs	8, cr7, [r5], #-420	; 0xfffffe5c
 224:	756f5f00 	strbvc	r5, [pc, #-3840]!	; fffff32c <__bss_end__+0xffff4dac>
 228:	69750074 	ldmdbvs	r5!, {r2, r4, r5, r6}^
 22c:	5f38746e 	svcpl	0x0038746e
 230:	72740074 	rsbsvc	r0, r4, #116, 0	; 0x74
 234:	74657365 	strbtvc	r7, [r5], #-869	; 0xfffffc9b
 238:	6f656e00 	svcvs	0x00656e00
 23c:	5f786970 	svcpl	0x00786970
 240:	61656c63 	cmnvs	r5, r3, ror #24
 244:	69700072 	ldmdbvs	r0!, {r1, r4, r5, r6}^
 248:	65735f78 	ldrbvs	r5, [r3, #-3960]!	; 0xfffff088
 24c:	6962646e 	stmdbvs	r2!, {r1, r2, r3, r5, r6, sl, sp, lr}^
 250:	65640074 	strbvs	r0, [r4, #-116]!	; 0xffffff8c
 254:	5f79616c 	svcpl	0x0079616c
 258:	6379636e 	cmnvs	r9, #-1207959551	; 0xb8000001
 25c:	0073656c 	rsbseq	r6, r3, ip, ror #10
 260:	736d656d 	cmnvc	sp, #457179136	; 0x1b400000
 264:	6e007465 	cdpvs	4, 0, cr7, cr0, cr5, {3}
 268:	6379635f 	cmnvs	r9, #2080374785	; 0x7c000001
 26c:	78697000 	stmdavc	r9!, {ip, sp, lr}^
 270:	6e65735f 	mcrvs	3, 3, r7, cr5, cr15, {2}
 274:	74796264 	ldrbtvc	r6, [r9], #-612	; 0xfffffd9c
 278:	74730065 	ldrbtvc	r0, [r3], #-101	; 0xffffff9b
 27c:	5f747261 	svcpl	0x00747261
 280:	00637963 	rsbeq	r7, r3, r3, ror #18
 284:	746e6975 	strbtvc	r6, [lr], #-2421	; 0xfffff68b
 288:	745f3233 	ldrbvc	r3, [pc], #-563	; 290 <__code_start__-0x7d70>
 28c:	69706e00 	ldmdbvs	r0!, {r9, sl, fp, sp, lr}^
 290:	006c6578 	rsbeq	r6, ip, r8, ror r5
 294:	706f656e 	rsbvc	r6, pc, lr, ror #10
 298:	6c657869 	stclvs	8, cr7, [r5], #-420	; 0xfffffe5c
 29c:	6700632e 	strvs	r6, [r0, -lr, lsr #6]
 2a0:	5f6f6970 	svcpl	0x006f6970
 2a4:	5f746573 	svcpl	0x00746573
 2a8:	725f6e6f 	subsvc	r6, pc, #1776	; 0x6f0
 2ac:	6b007761 	blvs	1e038 <__bss_end__+0x13ab8>
 2b0:	6c6c616d 	stfvse	f6, [ip], #-436	; 0xfffffe4c
 2b4:	6700636f 	strvs	r6, [r0, -pc, ror #6]
 2b8:	5f6f6970 	svcpl	0x006f6970
 2bc:	5f746573 	svcpl	0x00746573
 2c0:	5f66666f 	svcpl	0x0066666f
 2c4:	00776172 	rsbseq	r6, r7, r2, ror r1
 2c8:	53554c46 	cmppl	r5, #17920	; 0x4600
 2cc:	656e0048 	strbvs	r0, [lr, #-72]!	; 0xffffffb8
 2d0:	7869706f 	stmdavc	r9!, {r0, r1, r2, r3, r5, r6, ip, sp, lr}^
 2d4:	6e65735f 	mcrvs	3, 3, r7, cr5, cr15, {2}
 2d8:	78697064 	stmdavc	r9!, {r2, r5, r6, ip, sp, lr}^
 2dc:	67006c65 	strvs	r6, [r0, -r5, ror #24]
 2e0:	5f6f6970 	svcpl	0x006f6970
 2e4:	74697277 	strbtvc	r7, [r9], #-631	; 0xfffffd89
 2e8:	50470065 	subpl	r0, r7, r5, rrx
 2ec:	465f4f49 	ldrbmi	r4, [pc], -r9, asr #30
 2f0:	5f434e55 	svcpl	0x00434e55
 2f4:	5054554f 	subspl	r5, r4, pc, asr #10
 2f8:	44005455 	strmi	r5, [r0], #-1109	; 0xfffffbab
 2fc:	565f5645 	ldrbpl	r5, [pc], -r5, asr #12
 300:	32334c41 	eorscc	r4, r3, #16640	; 0x4100
 304:	554e4700 	strbpl	r4, [lr, #-1792]	; 0xfffff900
 308:	39394320 	ldmdbcc	r9!, {r5, r8, r9, lr}
 30c:	2e313120 	rsfcssp	f3, f1, f0
 310:	20312e32 	eorscs	r2, r1, r2, lsr lr
 314:	32323032 	eorscc	r3, r2, #50, 0	; 0x32
 318:	31313130 	teqcc	r1, r0, lsr r1
 31c:	636d2d20 	cmnvs	sp, #32, 26	; 0x800
 320:	613d7570 	teqvs	sp, r0, ror r5
 324:	31316d72 	teqcc	r1, r2, ror sp
 328:	7a6a3637 	bvc	1a8dc0c <__bss_end__+0x1a8368c>
 32c:	20732d66 	rsbscs	r2, r3, r6, ror #26
 330:	75746d2d 	ldrbvc	r6, [r4, #-3373]!	; 0xfffff2d3
 334:	613d656e 	teqvs	sp, lr, ror #10
 338:	31316d72 	teqcc	r1, r2, ror sp
 33c:	7a6a3637 	bvc	1a8dc20 <__bss_end__+0x1a836a0>
 340:	20732d66 	rsbscs	r2, r3, r6, ror #26
 344:	6c666d2d 	stclvs	13, cr6, [r6], #-180	; 0xffffff4c
 348:	2d74616f 	ldfcse	f6, [r4, #-444]!	; 0xfffffe44
 34c:	3d696261 	sfmcc	f6, 2, [r9, #-388]!	; 0xfffffe7c
 350:	74666f73 	strbtvc	r6, [r6], #-3955	; 0xfffff08d
 354:	616d2d20 	cmnvs	sp, r0, lsr #26
 358:	2d206d72 	stccs	13, cr6, [r0, #-456]!	; 0xfffffe38
 35c:	6372616d 	cmnvs	r2, #1073741851	; 0x4000001b
 360:	72613d68 	rsbvc	r3, r1, #104, 26	; 0x1a00
 364:	6b36766d 	blvs	d9dd20 <__bss_end__+0xd937a0>
 368:	672d207a 			; <UNDEFINED> instruction: 0x672d207a
 36c:	20626467 	rsbcs	r6, r2, r7, ror #8
 370:	61664f2d 	cmnvs	r6, sp, lsr #30
 374:	2d207473 	cfstrscs	mvf7, [r0, #-460]!	; 0xfffffe34
 378:	3d647473 	cfstrdcc	mvd7, [r4, #-460]!	; 0xfffffe34
 37c:	39756e67 	ldmdbcc	r5!, {r0, r1, r2, r5, r6, r9, sl, fp, sp, lr}^
 380:	662d2039 			; <UNDEFINED> instruction: 0x662d2039
 384:	65657266 	strbvs	r7, [r5, #-614]!	; 0xfffffd9a
 388:	6e617473 	mcrvs	4, 3, r7, cr1, cr3, {3}
 38c:	676e6964 	strbvs	r6, [lr, -r4, ror #18]!
 390:	54555000 	ldrbpl	r5, [r5], #-0
 394:	67003233 	smladxvs	r0, r3, r2, r3
 398:	5f6f6970 	svcpl	0x006f6970
 39c:	64616572 	strbtvs	r6, [r1], #-1394	; 0xfffffa8e
 3a0:	54454700 	strbpl	r4, [r5], #-1792	; 0xfffff900
 3a4:	47003233 	smladxmi	r0, r3, r2, r3
 3a8:	5f4f4950 	svcpl	0x004f4950
 3ac:	434e5546 	movtmi	r5, #58694	; 0xe546
 3b0:	544c415f 	strbpl	r4, [ip], #-351	; 0xfffffea1
 3b4:	50470030 	subpl	r0, r7, r0, lsr r0
 3b8:	465f4f49 	ldrbmi	r4, [pc], -r9, asr #30
 3bc:	5f434e55 	svcpl	0x00434e55
 3c0:	31544c41 	cmpcc	r4, r1, asr #24
 3c4:	49504700 	ldmdbmi	r0, {r8, r9, sl, lr}^
 3c8:	55465f4f 	strbpl	r5, [r6, #-3919]	; 0xfffff0b1
 3cc:	415f434e 	cmpmi	pc, lr, asr #6
 3d0:	0032544c 	eorseq	r5, r2, ip, asr #8
 3d4:	4f495047 	svcmi	0x00495047
 3d8:	4e55465f 	mrcmi	6, 2, r4, cr5, cr15, {2}
 3dc:	4c415f43 	mcrrmi	15, 4, r5, r1, cr3
 3e0:	47003354 	smlsdmi	r0, r4, r3, r3
 3e4:	5f4f4950 	svcpl	0x004f4950
 3e8:	434e5546 	movtmi	r5, #58694	; 0xe546
 3ec:	544c415f 	strbpl	r4, [ip], #-351	; 0xfffffea1
 3f0:	2f2e0035 	svccs	0x002e0035
 3f4:	2f637273 	svccs	0x00637273
 3f8:	6f697067 	svcvs	0x00697067
 3fc:	6700632e 	strvs	r6, [r0, -lr, lsr #6]
 400:	5f6f6970 	svcpl	0x006f6970
 404:	5f746573 	svcpl	0x00746573
 408:	75706e69 	ldrbvc	r6, [r0, #-3689]!	; 0xfffff197
 40c:	70670074 	rsbvc	r0, r7, r4, ror r0
 410:	735f6f69 	cmpvc	pc, #420	; 0x1a4
 414:	6f5f7465 	svcvs	0x005f7465
 418:	66006666 	strvs	r6, [r0], -r6, ror #12
 41c:	00636e75 	rsbeq	r6, r3, r5, ror lr
 420:	6f697067 	svcvs	0x00697067
 424:	6e75665f 	mrcvs	6, 3, r6, cr5, cr15, {2}
 428:	00745f63 	rsbseq	r5, r4, r3, ror #30
 42c:	4f495047 	svcmi	0x00495047
 430:	4e55465f 	mrcmi	6, 2, r4, cr5, cr15, {2}
 434:	4c415f43 	mcrrmi	15, 4, r5, r1, cr3
 438:	2f003454 	svccs	0x00003454
 43c:	72657355 	rsbvc	r7, r5, #1409286145	; 0x54000001
 440:	696d2f73 	stmdbvs	sp!, {r0, r1, r4, r5, r6, r8, r9, sl, fp, sp}^
 444:	2f73656c 	svccs	0x0073656c
 448:	72756f53 	rsbsvc	r6, r5, #332	; 0x14c
 44c:	632f6563 			; <UNDEFINED> instruction: 0x632f6563
 450:	30343273 	eorscc	r3, r4, r3, ror r2
 454:	6c2f786c 	stcvs	8, cr7, [pc], #-432	; 2ac <__code_start__-0x7d54>
 458:	69706269 	ldmdbvs	r0!, {r0, r3, r5, r6, r9, sp, lr}^
 45c:	6e616200 	cdpvs	2, 6, cr6, cr1, cr0, {0}
 460:	5047006b 	subpl	r0, r7, fp, rrx
 464:	465f4f49 	ldrbmi	r4, [pc], -r9, asr #30
 468:	5f434e55 	svcpl	0x00434e55
 46c:	55504e49 	ldrbpl	r4, [r0, #-3657]	; 0xfffff1b7
 470:	70670054 	rsbvc	r0, r7, r4, asr r0
 474:	735f6f69 	cmpvc	pc, #420	; 0x1a4
 478:	665f7465 	ldrbvs	r7, [pc], -r5, ror #8
 47c:	74636e75 	strbtvc	r6, [r3], #-3701	; 0xfffff18b
 480:	006e6f69 	rsbeq	r6, lr, r9, ror #30
 484:	6f697067 	svcvs	0x00697067
 488:	7465735f 	strbtvc	r7, [r5], #-863	; 0xfffffca1
 48c:	006e6f5f 	rsbeq	r6, lr, pc, asr pc
 490:	657a6973 	ldrbvs	r6, [sl, #-2419]!	; 0xfffff68d
 494:	2e00745f 	cfmvsrcs	mvf0, r7
 498:	62696c2f 	rsbvs	r6, r9, #12032	; 0x2f00
 49c:	656d2f63 	strbvs	r2, [sp, #-3939]!	; 0xfffff09d
 4a0:	7465736d 	strbtvc	r7, [r5], #-877	; 0xfffffc93
 4a4:	4700632e 	strmi	r6, [r0, -lr, lsr #6]
 4a8:	4320554e 			; <UNDEFINED> instruction: 0x4320554e
 4ac:	39203939 	stmdbcc	r0!, {r0, r3, r4, r5, r8, fp, ip, sp}
 4b0:	312e322e 			; <UNDEFINED> instruction: 0x312e322e
 4b4:	31303220 	teqcc	r0, r0, lsr #4
 4b8:	32303139 	eorscc	r3, r0, #1073741838	; 0x4000000e
 4bc:	72282035 	eorvc	r2, r8, #53, 0	; 0x35
 4c0:	61656c65 	cmnvs	r5, r5, ror #24
 4c4:	20296573 	eorcs	r6, r9, r3, ror r5
 4c8:	4d52415b 	ldfmie	f4, [r2, #-364]	; 0xfffffe94
 4cc:	6d72612f 	ldfvse	f6, [r2, #-188]!	; 0xffffff44
 4d0:	622d392d 	eorvs	r3, sp, #737280	; 0xb4000
 4d4:	636e6172 	cmnvs	lr, #-2147483620	; 0x8000001c
 4d8:	65722068 	ldrbvs	r2, [r2, #-104]!	; 0xffffff98
 4dc:	69736976 	ldmdbvs	r3!, {r1, r2, r4, r5, r6, r8, fp, sp, lr}^
 4e0:	32206e6f 	eorcc	r6, r0, #1776	; 0x6f0
 4e4:	39353737 	ldmdbcc	r5!, {r0, r1, r2, r4, r5, r8, r9, sl, ip, sp}
 4e8:	2d205d39 	stccs	13, cr5, [r0, #-228]!	; 0xffffff1c
 4ec:	7570636d 	ldrbvc	r6, [r0, #-877]!	; 0xfffffc93
 4f0:	6d72613d 	ldfvse	f6, [r2, #-244]!	; 0xffffff0c
 4f4:	36373131 			; <UNDEFINED> instruction: 0x36373131
 4f8:	2d667a6a 	vstmdbcs	r6!, {s15-s120}
 4fc:	6d2d2073 	stcvs	0, cr2, [sp, #-460]!	; 0xfffffe34
 500:	656e7574 	strbvs	r7, [lr, #-1396]!	; 0xfffffa8c
 504:	6d72613d 	ldfvse	f6, [r2, #-244]!	; 0xffffff0c
 508:	36373131 			; <UNDEFINED> instruction: 0x36373131
 50c:	2d667a6a 	vstmdbcs	r6!, {s15-s120}
 510:	6d2d2073 	stcvs	0, cr2, [sp, #-460]!	; 0xfffffe34
 514:	616f6c66 	cmnvs	pc, r6, ror #24
 518:	62612d74 	rsbvs	r2, r1, #116, 26	; 0x1d00
 51c:	6f733d69 	svcvs	0x00733d69
 520:	2d207466 	cfstrscs	mvf7, [r0, #-408]!	; 0xfffffe68
 524:	6d72616d 	ldfvse	f6, [r2, #-436]!	; 0xfffffe4c
 528:	616d2d20 	cmnvs	sp, r0, lsr #26
 52c:	3d686372 	stclcc	3, cr6, [r8, #-456]!	; 0xfffffe38
 530:	766d7261 	strbtvc	r7, [sp], -r1, ror #4
 534:	207a6b36 	rsbscs	r6, sl, r6, lsr fp
 538:	6467672d 	strbtvs	r6, [r7], #-1837	; 0xfffff8d3
 53c:	4f2d2062 	svcmi	0x002d2062
 540:	74736166 	ldrbtvc	r6, [r3], #-358	; 0xfffffe9a
 544:	74732d20 	ldrbtvc	r2, [r3], #-3360	; 0xfffff2e0
 548:	6e673d64 	cdpvs	13, 6, cr3, cr7, cr4, {3}
 54c:	20393975 	eorscs	r3, r9, r5, ror r9
 550:	7266662d 	rsbvc	r6, r6, #47185920	; 0x2d00000
 554:	74736565 	ldrbtvc	r6, [r3], #-1381	; 0xfffffa9b
 558:	69646e61 	stmdbvs	r4!, {r0, r5, r6, r9, sl, fp, sp, lr}^
 55c:	6100676e 	tstvs	r0, lr, ror #14
 560:	00736772 	rsbseq	r6, r3, r2, ror r7
 564:	705f6176 	subsvc	r6, pc, r6, ror r1	; <UNPREDICTABLE>
 568:	746e6972 	strbtvc	r6, [lr], #-2418	; 0xfffff68e
 56c:	5f5f006b 	svcpl	0x005f006b
 570:	63756e67 	cmnvs	r5, #1648	; 0x670
 574:	5f61765f 	svcpl	0x0061765f
 578:	7473696c 	ldrbtvc	r6, [r3], #-2412	; 0xfffff694
 57c:	615f5f00 	cmpvs	pc, r0, lsl #30
 580:	2f2e0070 	svccs	0x002e0070
 584:	6362696c 	cmnvs	r2, #108, 18	; 0x1b0000
 588:	6972702f 	ldmdbvs	r2!, {r0, r1, r2, r3, r5, ip, sp, lr}^
 58c:	2e6b746e 	cdpcs	4, 6, cr7, cr11, cr14, {3}
 590:	5f5f0063 	svcpl	0x005f0063
 594:	6c5f6176 	ldfvse	f6, [pc], {118}	; 0x76
 598:	00747369 	rsbseq	r7, r4, r9, ror #6
 59c:	65746e69 	ldrbvs	r6, [r4, #-3689]!	; 0xfffff197
 5a0:	6c616e72 	stclvs	14, cr6, [r1], #-456	; 0xfffffe38
 5a4:	7475705f 	ldrbtvc	r7, [r5], #-95	; 0xffffffa1
 5a8:	2f2e006b 	svccs	0x002e006b
 5ac:	6362696c 	cmnvs	r2, #108, 18	; 0x1b0000
 5b0:	7475702f 	ldrbtvc	r7, [r5], #-47	; 0xffffffd1
 5b4:	00632e6b 	rsbeq	r2, r3, fp, ror #28
 5b8:	69647369 	stmdbvs	r4!, {r0, r3, r5, r6, r8, r9, ip, sp, lr}^
 5bc:	00746967 	rsbseq	r6, r4, r7, ror #18
 5c0:	746e6975 	strbtvc	r6, [lr], #-2421	; 0xfffff68b
 5c4:	745f3436 	ldrbvc	r3, [pc], #-1078	; 5cc <__code_start__-0x7a34>
 5c8:	6c2f2e00 	stcvs	14, cr2, [pc], #-0	; 5d0 <__code_start__-0x7a30>
 5cc:	2f636269 	svccs	0x00636269
 5d0:	702d6176 	eorvc	r6, sp, r6, ror r1
 5d4:	746e6972 	strbtvc	r6, [lr], #-2418	; 0xfffff68e
 5d8:	00632e6b 	rsbeq	r2, r3, fp, ror #28
 5dc:	6f635f5f 	svcvs	0x00635f5f
 5e0:	735f6564 	cmpvc	pc, #100, 10	; 0x19000000
 5e4:	74726174 	ldrbtvc	r6, [r2], #-372	; 0xfffffe8c
 5e8:	5f005f5f 	svcpl	0x00005f5f
 5ec:	7373625f 	cmnvc	r3, #-268435451	; 0xf0000005
 5f0:	6174735f 	cmnvs	r4, pc, asr r3
 5f4:	5f5f7472 	svcpl	0x005f7472
 5f8:	64697700 	strbtvs	r7, [r9], #-1792	; 0xfffff900
 5fc:	5f006874 	svcpl	0x00006874
 600:	4e55465f 	mrcmi	6, 2, r4, cr5, cr15, {2}
 604:	4f495443 	svcmi	0x00495443
 608:	005f5f4e 	subseq	r5, pc, lr, asr #30
 60c:	61656c63 	cmnvs	r5, r3, ror #24
 610:	65725f6e 	ldrbvs	r5, [r2, #-3950]!	; 0xfffff092
 614:	746f6f62 	strbtvc	r6, [pc], #-3938	; 61c <__code_start__-0x79e4>
 618:	645f5f00 	ldrbvs	r5, [pc], #-3840	; 620 <__code_start__-0x79e0>
 61c:	5f617461 	svcpl	0x00617461
 620:	5f646e65 	svcpl	0x00646e65
 624:	7570005f 	ldrbvc	r0, [r0, #-95]!	; 0xffffffa1
 628:	665f6374 			; <UNDEFINED> instruction: 0x665f6374
 62c:	5f5f0070 	svcpl	0x005f0070
 630:	5f737362 	svcpl	0x00737362
 634:	5f646e65 	svcpl	0x00646e65
 638:	5f5f005f 	svcpl	0x005f005f
 63c:	70616568 	rsbvc	r6, r1, r8, ror #10
 640:	6174735f 	cmnvs	r4, pc, asr r3
 644:	5f5f7472 	svcpl	0x005f7472
 648:	69707200 	ldmdbvs	r0!, {r9, ip, sp, lr}^
 64c:	7465735f 	strbtvc	r7, [r5], #-863	; 0xfffffca1
 650:	74756f5f 	ldrbtvc	r6, [r5], #-3935	; 0xfffff0a1
 654:	00747570 	rsbseq	r7, r4, r0, ror r5
 658:	5f746d66 	svcpl	0x00746d66
 65c:	72617473 	rsbvc	r7, r1, #1929379840	; 0x73000000
 660:	74730074 	ldrbtvc	r0, [r3], #-116	; 0xffffff8c
 664:	74616372 	strbtvc	r6, [r1], #-882	; 0xfffffc8e
 668:	72747300 	rsbsvc	r7, r4, #0, 6
 66c:	00797063 	rsbseq	r7, r9, r3, rrx
 670:	5f67656e 	svcpl	0x0067656e
 674:	5f5f0070 	svcpl	0x005f0070
 678:	65646f63 	strbvs	r6, [r4, #-3939]!	; 0xfffff09d
 67c:	646e655f 	strbtvs	r6, [lr], #-1375	; 0xfffffaa1
 680:	65005f5f 	strvs	r5, [r0, #-3935]	; 0xfffff0a1
 684:	0074696d 	rsbseq	r6, r4, sp, ror #18
 688:	65766572 	ldrbvs	r6, [r6, #-1394]!	; 0xfffffa8e
 68c:	00657372 	rsbeq	r7, r5, r2, ror r3
 690:	63727473 	cmnvs	r2, #1929379840	; 0x73000000
 694:	7000706d 	andvc	r7, r0, sp, rrx
 698:	5f737475 	svcpl	0x00737475
 69c:	5f007066 	svcpl	0x00007066
 6a0:	7461645f 	strbtvc	r6, [r1], #-1119	; 0xfffffba1
 6a4:	74735f61 	ldrbtvc	r5, [r3], #-3937	; 0xfffff09f
 6a8:	5f747261 	svcpl	0x00747261
 6ac:	5f5f005f 	svcpl	0x005f005f
 6b0:	676f7270 			; <UNDEFINED> instruction: 0x676f7270
 6b4:	646e655f 	strbtvs	r6, [lr], #-1375	; 0xfffffaa1
 6b8:	6e005f5f 	mcrvs	15, 0, r5, cr0, cr15, {2}
 6bc:	00316d75 	eorseq	r6, r1, r5, ror sp
 6c0:	6e727473 	mrcvs	4, 3, r7, cr2, cr3, {3}
 6c4:	00706d63 	rsbseq	r6, r0, r3, ror #26
 6c8:	65736162 	ldrbvs	r6, [r3, #-354]!	; 0xfffffe9e
 6cc:	67697300 	strbvs	r7, [r9, -r0, lsl #6]!
 6d0:	5f64656e 	svcpl	0x0064656e
 6d4:	69640070 	stmdbvs	r4!, {r4, r5, r6}^
 6d8:	6c626173 	stfvse	f6, [r2], #-460	; 0xfffffe34
 6dc:	61635f65 	cmnvs	r3, r5, ror #30
 6e0:	00656863 	rsbeq	r6, r5, r3, ror #16
 6e4:	74732f2e 	ldrbtvc	r2, [r3], #-3886	; 0xfffff0d2
 6e8:	2d666661 	stclcs	6, cr6, [r6, #-388]!	; 0xfffffe7c
 6ec:	2f637273 	svccs	0x00637273
 6f0:	68636163 	stmdavs	r3!, {r0, r1, r5, r6, r8, sp, lr}^
 6f4:	00632e65 	rsbeq	r2, r3, r5, ror #28
 6f8:	5f697072 	svcpl	0x00697072
 6fc:	6f626572 	svcvs	0x00626572
 700:	2e00746f 	cdpcs	4, 0, cr7, cr0, cr15, {3}
 704:	6174732f 	cmnvs	r4, pc, lsr #6
 708:	732d6666 			; <UNDEFINED> instruction: 0x732d6666
 70c:	632f6372 			; <UNDEFINED> instruction: 0x632f6372
 710:	6e61656c 	cdpvs	5, 6, cr6, cr1, cr12, {3}
 714:	6265722d 	rsbvs	r7, r5, #-805306366	; 0xd0000002
 718:	2e746f6f 	cdpcs	15, 7, cr6, cr4, cr15, {3}
 71c:	61750063 	cmnvs	r5, r3, rrx
 720:	665f7472 			; <UNDEFINED> instruction: 0x665f7472
 724:	6873756c 	ldmdavs	r3!, {r2, r3, r5, r6, r8, sl, ip, sp, lr}^
 728:	0078745f 	rsbseq	r7, r8, pc, asr r4
 72c:	7473635f 	ldrbtvc	r6, [r3], #-863	; 0xfffffca1
 730:	00747261 	rsbseq	r7, r4, r1, ror #4
 734:	5f737362 	svcpl	0x00737362
 738:	00646e65 	rsbeq	r6, r4, r5, ror #28
 73c:	74726175 	ldrbtvc	r6, [r2], #-373	; 0xfffffe8b
 740:	696e695f 	stmdbvs	lr!, {r0, r1, r2, r3, r4, r6, r8, fp, sp, lr}^
 744:	75630074 	strbvc	r0, [r3, #-116]!	; 0xffffff8c
 748:	6d6f7473 	cfstrdvs	mvd7, [pc, #-460]!	; 584 <__code_start__-0x7a7c>
 74c:	616f6c5f 	cmnvs	pc, pc, asr ip	; <UNPREDICTABLE>
 750:	00726564 	rsbseq	r6, r2, r4, ror #10
 754:	74732f2e 	ldrbtvc	r2, [r3], #-3886	; 0xfffff0d2
 758:	2d666661 	stclcs	6, cr6, [r6, #-388]!	; 0xfffffe7c
 75c:	2f637273 	svccs	0x00637273
 760:	61747363 	cmnvs	r4, r3, ror #6
 764:	632e7472 			; <UNDEFINED> instruction: 0x632e7472
 768:	732f2e00 			; <UNDEFINED> instruction: 0x732f2e00
 76c:	66666174 			; <UNDEFINED> instruction: 0x66666174
 770:	6372732d 	cmnvs	r2, #-1275068416	; 0xb4000000
 774:	7375632f 	cmnvc	r5, #-1140850688	; 0xbc000000
 778:	2d6d6f74 	stclcs	15, cr6, [sp, #-464]!	; 0xfffffe30
 77c:	64616f6c 	strbtvs	r6, [r1], #-3948	; 0xfffff094
 780:	632e7265 			; <UNDEFINED> instruction: 0x632e7265
 784:	62657200 	rsbvs	r7, r5, #0, 4
 788:	5f746f6f 	svcpl	0x00746f6f
 78c:	6c6c6163 	stfvse	f6, [ip], #-396	; 0xfffffe74
 790:	0074756f 	rsbseq	r7, r4, pc, ror #10
 794:	575f4d50 			; <UNDEFINED> instruction: 0x575f4d50
 798:	00474f44 	subeq	r4, r7, r4, asr #30
 79c:	5f746573 	svcpl	0x00746573
 7a0:	72657375 	rsbvc	r7, r5, #-738197503	; 0xd4000001
 7a4:	76656c5f 			; <UNDEFINED> instruction: 0x76656c5f
 7a8:	2e006c65 	cdpcs	12, 0, cr6, cr0, cr5, {3}
 7ac:	6174732f 	cmnvs	r4, pc, lsr #6
 7b0:	732d6666 			; <UNDEFINED> instruction: 0x732d6666
 7b4:	722f6372 	eorvc	r6, pc, #-939524095	; 0xc8000001
 7b8:	6f6f6265 	svcvs	0x006f6265
 7bc:	00632e74 	rsbeq	r2, r3, r4, ror lr
 7c0:	505f4d50 	subspl	r4, pc, r0, asr sp	; <UNPREDICTABLE>
 7c4:	57535341 	ldrbpl	r5, [r3, -r1, asr #6]
 7c8:	0044524f 	subeq	r5, r4, pc, asr #4
 7cc:	755f7461 	ldrbvc	r7, [pc, #-1121]	; 373 <__code_start__-0x7c8d>
 7d0:	5f726573 	svcpl	0x00726573
 7d4:	6576656c 	ldrbvs	r6, [r6, #-1388]!	; 0xfffffa94
 7d8:	4d50006c 	ldclmi	0, cr0, [r0, #-432]	; 0xfffffe50
 7dc:	5453525f 	ldrbpl	r5, [r3], #-607	; 0xfffffda1
 7e0:	52575f43 	subspl	r5, r7, #268	; 0x10c
 7e4:	5f474643 	svcpl	0x00474643
 7e8:	4c4c5546 	cfstr64mi	mvdx5, [ip], {70}	; 0x46
 7ec:	5345525f 	movtpl	r5, #21087	; 0x525f
 7f0:	50005445 	andpl	r5, r0, r5, asr #8
 7f4:	53525f4d 	cmppl	r2, #308	; 0x134
 7f8:	63004354 	movwvs	r4, #852	; 0x354
 7fc:	00727370 	rsbseq	r7, r2, r0, ror r3
 800:	5f766564 	svcpl	0x00766564
 804:	72726162 	rsbsvc	r6, r2, #-2147483624	; 0x80000018
 808:	00726569 	rsbseq	r6, r2, r9, ror #10
 80c:	616c6564 	cmnvs	ip, r4, ror #10
 810:	65735f79 	ldrbvs	r5, [r3, #-3961]!	; 0xfffff087
 814:	2f2e0063 	svccs	0x002e0063
 818:	66617473 			; <UNDEFINED> instruction: 0x66617473
 81c:	72732d66 	rsbsvc	r2, r3, #6528	; 0x1980
 820:	69742f63 	ldmdbvs	r4!, {r0, r1, r5, r6, r8, r9, sl, fp, sp}^
 824:	2e72656d 	cdpcs	5, 7, cr6, cr2, cr13, {3}
 828:	69740063 	ldmdbvs	r4!, {r0, r1, r5, r6}^
 82c:	5f72656d 	svcpl	0x0072656d
 830:	5f746567 	svcpl	0x00746567
 834:	63657375 	cmnvs	r5, #-738197503	; 0xd4000001
 838:	6c656400 	cfstrdvs	mvd6, [r5], #-0
 83c:	755f7961 	ldrbvc	r7, [pc, #-2401]	; fffffee3 <__bss_end__+0xffff5963>
 840:	69740073 	ldmdbvs	r4!, {r0, r1, r4, r5, r6}^
 844:	5f72656d 	svcpl	0x0072656d
 848:	5f746567 	svcpl	0x00746567
 84c:	63657375 	cmnvs	r5, #-738197503	; 0xd4000001
 850:	7761725f 			; <UNDEFINED> instruction: 0x7761725f
 854:	75616200 	strbvc	r6, [r1, #-512]!	; 0xfffffe00
 858:	61765f64 	cmnvs	r6, r4, ror #30
 85c:	7473006c 	ldrbtvc	r0, [r3], #-108	; 0xffffff94
 860:	75007461 	strvc	r7, [r0, #-1121]	; 0xfffffb9f
 864:	5f747261 	svcpl	0x00747261
 868:	5f6e6163 	svcpl	0x006e6163
 86c:	63746567 	cmnvs	r4, #432013312	; 0x19c00000
 870:	72617500 	rsbvc	r7, r1, #0, 10
 874:	00632e74 	rsbeq	r2, r3, r4, ror lr
 878:	74726175 	ldrbtvc	r6, [r2], #-373	; 0xfffffe8b
 87c:	6e61635f 	mcrvs	3, 3, r6, cr1, cr15, {2}
 880:	7475705f 	ldrbtvc	r7, [r5], #-95	; 0xffffffa1
 884:	61750063 	cmnvs	r5, r3, rrx
 888:	75007472 	strvc	r7, [r0, #-1138]	; 0xfffffb8e
 88c:	5f747261 	svcpl	0x00747261
 890:	695f7874 	ldmdbvs	pc, {r2, r4, r5, r6, fp, ip, sp, lr}^	; <UNPREDICTABLE>
 894:	6d655f73 	stclvs	15, cr5, [r5, #-460]!	; 0xfffffe34
 898:	00797470 	rsbseq	r7, r9, r0, ror r4
 89c:	33747570 	cmncc	r4, #112, 10	; 0x1c000000
 8a0:	61620032 	cmnvs	r2, r2, lsr r0
 8a4:	61006475 	tstvs	r0, r5, ror r4
 8a8:	655f7875 	ldrbvs	r7, [pc, #-2165]	; 3b <__code_start__-0x7fc5>
 8ac:	6c62616e 	stfvse	f6, [r2], #-440	; 0xfffffe48
 8b0:	75007365 	strvc	r7, [r0, #-869]	; 0xfffffc9b
 8b4:	5f747261 	svcpl	0x00747261
 8b8:	63746567 	cmnvs	r4, #432013312	; 0x19c00000
 8bc:	554e4700 	strbpl	r4, [lr, #-1792]	; 0xfffff900
 8c0:	39394320 	ldmdbcc	r9!, {r5, r8, r9, lr}
 8c4:	2e303120 	rsfcssp	f3, f0, f0
 8c8:	20312e33 	eorscs	r2, r1, r3, lsr lr
 8cc:	31323032 	teqcc	r2, r2, lsr r0
 8d0:	34323830 	ldrtcc	r3, [r2], #-2096	; 0xfffff7d0
 8d4:	65722820 	ldrbvs	r2, [r2, #-2080]!	; 0xfffff7e0
 8d8:	7361656c 	cmnvc	r1, #108, 10	; 0x1b000000
 8dc:	2d202965 			; <UNDEFINED> instruction: 0x2d202965
 8e0:	7570636d 	ldrbvc	r6, [r0, #-877]!	; 0xfffffc93
 8e4:	6d72613d 	ldfvse	f6, [r2, #-244]!	; 0xffffff0c
 8e8:	36373131 			; <UNDEFINED> instruction: 0x36373131
 8ec:	2d667a6a 	vstmdbcs	r6!, {s15-s120}
 8f0:	6d2d2073 	stcvs	0, cr2, [sp, #-460]!	; 0xfffffe34
 8f4:	656e7574 	strbvs	r7, [lr, #-1396]!	; 0xfffffa8c
 8f8:	6d72613d 	ldfvse	f6, [r2, #-244]!	; 0xffffff0c
 8fc:	36373131 			; <UNDEFINED> instruction: 0x36373131
 900:	2d667a6a 	vstmdbcs	r6!, {s15-s120}
 904:	6d2d2073 	stcvs	0, cr2, [sp, #-460]!	; 0xfffffe34
 908:	616f6c66 	cmnvs	pc, r6, ror #24
 90c:	62612d74 	rsbvs	r2, r1, #116, 26	; 0x1d00
 910:	6f733d69 	svcvs	0x00733d69
 914:	2d207466 	cfstrscs	mvf7, [r0, #-408]!	; 0xfffffe68
 918:	6d72616d 	ldfvse	f6, [r2, #-436]!	; 0xfffffe4c
 91c:	616d2d20 	cmnvs	sp, r0, lsr #26
 920:	3d686372 	stclcc	3, cr6, [r8, #-456]!	; 0xfffffe38
 924:	766d7261 	strbtvc	r7, [sp], -r1, ror #4
 928:	207a6b36 	rsbscs	r6, sl, r6, lsr fp
 92c:	6467672d 	strbtvs	r6, [r7], #-1837	; 0xfffff8d3
 930:	4f2d2062 	svcmi	0x002d2062
 934:	732d2067 			; <UNDEFINED> instruction: 0x732d2067
 938:	673d6474 			; <UNDEFINED> instruction: 0x673d6474
 93c:	3939756e 	ldmdbcc	r9!, {r1, r2, r3, r5, r6, r8, sl, ip, sp, lr}
 940:	66662d20 	strbtvs	r2, [r6], -r0, lsr #26
 944:	73656572 	cmnvc	r5, #478150656	; 0x1c800000
 948:	646e6174 	strbtvs	r6, [lr], #-372	; 0xfffffe8c
 94c:	00676e69 	rsbeq	r6, r7, r9, ror #28
 950:	6c746e63 	ldclvs	14, cr6, [r4], #-396	; 0xfffffe74
 954:	72617500 	rsbvc	r7, r1, #0, 10
 958:	69645f74 	stmdbvs	r4!, {r2, r4, r5, r6, r8, r9, sl, fp, ip, lr}^
 95c:	6c626173 	stfvse	f6, [r2], #-460	; 0xfffffe34
 960:	61750065 	cmnvs	r5, r5, rrx
 964:	685f7472 	ldmdavs	pc, {r1, r4, r5, r6, sl, ip, sp, lr}^	; <UNPREDICTABLE>
 968:	645f7361 	ldrbvs	r7, [pc], #-865	; 970 <__code_start__-0x7690>
 96c:	00617461 	rsbeq	r7, r1, r1, ror #8
 970:	695f726f 	ldmdbvs	pc, {r0, r1, r2, r3, r5, r6, r9, ip, sp, lr}^	; <UNPREDICTABLE>
 974:	0032336e 	eorseq	r3, r2, lr, ror #6
 978:	61726373 	cmnvs	r2, r3, ror r3
 97c:	00686374 	rsbeq	r6, r8, r4, ror r3
 980:	5f787561 	svcpl	0x00787561
 984:	69726570 	ldmdbvs	r2!, {r4, r5, r6, r8, sl, sp, lr}^
 988:	00736870 	rsbseq	r6, r3, r0, ror r8
 98c:	6d6f682f 	stclvs	8, cr6, [pc, #-188]!	; 8d8 <__code_start__-0x7728>
 990:	6e652f65 	cdpvs	15, 6, cr2, cr5, cr5, {3}
 994:	72656c67 	rsbvc	r6, r5, #26368	; 0x6700
 998:	616c632f 	cmnvs	ip, pc, lsr #6
 99c:	632f7373 			; <UNDEFINED> instruction: 0x632f7373
 9a0:	30343173 	eorscc	r3, r4, r3, ror r1
 9a4:	32322d65 	eorscc	r2, r2, #6464	; 0x1940
 9a8:	2f6e6977 	svccs	0x006e6977
 9ac:	7062696c 	rsbvc	r6, r2, ip, ror #18
 9b0:	74732f69 	ldrbtvc	r2, [r3], #-3945	; 0xfffff097
 9b4:	2d666661 	stclcs	6, cr6, [r6, #-388]!	; 0xfffffe7c
 9b8:	76697270 			; <UNDEFINED> instruction: 0x76697270
 9bc:	00657461 	rsbeq	r7, r5, r1, ror #8
 9c0:	5f646e61 	svcpl	0x00646e61
 9c4:	32336e69 	eorscc	r6, r3, #1680	; 0x690
 9c8:	72617500 	rsbvc	r7, r1, #0, 10
 9cc:	75705f74 	ldrbvc	r5, [r0, #-3956]!	; 0xfffff08c
 9d0:	67006374 	smlsdxvs	r0, r4, r3, r6
 9d4:	32337465 	eorscc	r7, r3, #1694498816	; 0x65000000
 9d8:	616d6b00 	cmnvs	sp, r0, lsl #22
 9dc:	636f6c6c 	cmnvs	pc, #108, 24	; 0x6c00
 9e0:	6165685f 	cmnvs	r5, pc, asr r8
 9e4:	74735f70 	ldrbtvc	r5, [r3], #-3952	; 0xfffff090
 9e8:	00747261 	rsbseq	r7, r4, r1, ror #4
 9ec:	5f78616d 	svcpl	0x0078616d
 9f0:	7479626e 	ldrbtvc	r6, [r9], #-622	; 0xfffffd92
 9f4:	5f007365 	svcpl	0x00007365
 9f8:	72646461 	rsbvc	r6, r4, #1627389952	; 0x61000000
 9fc:	72666b00 	rsbvc	r6, r6, #0, 22
 a00:	68006565 	stmdavs	r0, {r0, r2, r5, r6, r8, sl, sp, lr}
 a04:	5f706165 	svcpl	0x00706165
 a08:	0078616d 	rsbseq	r6, r8, sp, ror #2
 a0c:	6572666b 	ldrbvs	r6, [r2, #-1643]!	; 0xfffff995
 a10:	6c615f65 	stclvs	15, cr5, [r1], #-404	; 0xfffffe6c
 a14:	6f72006c 	svcvs	0x0072006c
 a18:	75646e75 	strbvc	r6, [r4, #-3701]!	; 0xfffff18b
 a1c:	6d6b0070 	stclvs	0, cr0, [fp, #-448]!	; 0xfffffe40
 a20:	6f6c6c61 	svcvs	0x006c6c61
 a24:	65685f63 	strbvs	r5, [r8, #-3939]!	; 0xfffff09d
 a28:	655f7061 	ldrbvs	r7, [pc, #-97]	; 9cf <__code_start__-0x7631>
 a2c:	6800646e 	stmdavs	r0, {r1, r2, r3, r5, r6, sl, sp, lr}
 a30:	00706165 	rsbseq	r6, r0, r5, ror #2
 a34:	74696e69 	strbtvc	r6, [r9], #-3689	; 0xfffff197
 a38:	6b00705f 	blvs	1cbbc <__bss_end__+0x1263c>
 a3c:	65657266 	strbvs	r7, [r5, #-614]!	; 0xfffffd9a
 a40:	706f705f 	rsbvc	r7, pc, pc, asr r0	; <UNPREDICTABLE>
 a44:	696c6100 	stmdbvs	ip!, {r8, sp, lr}^
 a48:	656d6e67 	strbvs	r6, [sp, #-3687]!	; 0xfffff199
 a4c:	6d00746e 	cfstrsvs	mvf7, [r0, #-440]	; 0xfffffe48
 a50:	755f7861 	ldrbvc	r7, [pc, #-2145]	; 1f7 <__code_start__-0x7e09>
 a54:	4f003233 	svcmi	0x00003233
 a58:	424d656e 	submi	r6, sp, #461373440	; 0x1b800000
 a5c:	616d6b00 	cmnvs	sp, r0, lsl #22
 a60:	636f6c6c 	cmnvs	pc, #108, 24	; 0x6c00
 a64:	746f6e5f 	strbtvc	r6, [pc], #-3679	; a6c <__code_start__-0x7594>
 a68:	6f72657a 	svcvs	0x0072657a
 a6c:	616d6b00 	cmnvs	sp, r0, lsl #22
 a70:	636f6c6c 	cmnvs	pc, #108, 24	; 0x6c00
 a74:	696c615f 	stmdbvs	ip!, {r0, r1, r2, r3, r4, r6, r8, sp, lr}^
 a78:	64656e67 	strbtvs	r6, [r5], #-3687	; 0xfffff199
 a7c:	5f736900 	svcpl	0x00736900
 a80:	32776f70 	rsbscc	r6, r7, #112, 30	; 0x1c0
 a84:	616d6b00 	cmnvs	sp, r0, lsl #22
 a88:	636f6c6c 	cmnvs	pc, #108, 24	; 0x6c00
 a8c:	6b00632e 	blvs	1974c <__bss_end__+0xf1cc>
 a90:	6c6c616d 	stfvse	f6, [ip], #-436	; 0xfffffe4c
 a94:	695f636f 	ldmdbvs	pc, {r0, r1, r2, r3, r5, r6, r8, r9, sp, lr}^	; <UNPREDICTABLE>
 a98:	0074696e 	rsbseq	r6, r4, lr, ror #18
 a9c:	615f7369 	cmpvs	pc, r9, ror #6
 aa0:	6e67696c 	vnmulvs.f16	s13, s14, s25	; <UNPREDICTABLE>
 aa4:	64006465 	strvs	r6, [r0], #-1125	; 0xfffffb9b
 aa8:	6c62756f 	cfstr64vs	mvdx7, [r2], #-444	; 0xfffffe44
 aac:	6d6b0065 	stclvs	0, cr0, [fp, #-404]!	; 0xfffffe6c
 ab0:	6f6c6c61 	svcvs	0x006c6c61
 ab4:	65685f63 	strbvs	r5, [r8, #-3939]!	; 0xfffff09d
 ab8:	705f7061 	subsvc	r7, pc, r1, rrx
 abc:	6b007274 	blvs	1d494 <__bss_end__+0x12f14>
 ac0:	6c6c616d 	stfvse	f6, [ip], #-436	; 0xfffffe4c
 ac4:	695f636f 	ldmdbvs	pc, {r0, r1, r2, r3, r5, r6, r8, r9, sp, lr}^	; <UNPREDICTABLE>
 ac8:	5f74696e 	svcpl	0x0074696e
 acc:	5f746573 	svcpl	0x00746573
 ad0:	72617473 	rsbvc	r7, r1, #1929379840	; 0x73000000
 ad4:	70720074 	rsbsvc	r0, r2, r4, ror r0
 ad8:	65725f69 	ldrbvs	r5, [r2, #-3945]!	; 0xfffff097
 adc:	5f746573 	svcpl	0x00746573
 ae0:	63747570 	cmnvs	r4, #112, 10	; 0x1c000000
 ae4:	746e6900 	strbtvc	r6, [lr], #-2304	; 0xfffff700
 ae8:	616e7265 	cmnvs	lr, r5, ror #4
 aec:	75705f6c 	ldrbvc	r5, [r0, #-3948]!	; 0xfffff094
 af0:	61686374 	smcvs	34356	; 0x8634
 af4:	70720072 	rsbsvc	r0, r2, r2, ror r0
 af8:	65735f69 	ldrbvs	r5, [r3, #-3945]!	; 0xfffff097
 afc:	75705f74 	ldrbvc	r5, [r0, #-3956]!	; 0xfffff08c
 b00:	2e006374 	mcrcs	3, 0, r6, cr0, cr4, {3}
 b04:	62696c2f 	rsbvs	r6, r9, #12032	; 0x2f00
 b08:	75702f63 	ldrbvc	r2, [r0, #-3939]!	; 0xfffff09d
 b0c:	61686374 	smcvs	34356	; 0x8634
 b10:	00632e72 	rsbeq	r2, r3, r2, ror lr
 b14:	696c2f2e 	stmdbvs	ip!, {r1, r2, r3, r5, r8, r9, sl, fp, sp}^
 b18:	732f6362 			; <UNDEFINED> instruction: 0x732f6362
 b1c:	61637274 	smcvs	14116	; 0x3724
 b20:	00632e74 	rsbeq	r2, r3, r4, ror lr
 b24:	74736564 	ldrbtvc	r6, [r3], #-1380	; 0xfffffa9c
 b28:	6c2f2e00 	stcvs	14, cr2, [pc], #-0	; b30 <__code_start__-0x74d0>
 b2c:	2f636269 	svccs	0x00636269
 b30:	63727473 	cmnvs	r2, #1929379840	; 0x73000000
 b34:	632e706d 			; <UNDEFINED> instruction: 0x632e706d
 b38:	6c2f2e00 	stcvs	14, cr2, [pc], #-0	; b40 <__code_start__-0x74c0>
 b3c:	2f636269 	svccs	0x00636269
 b40:	63727473 	cmnvs	r2, #1929379840	; 0x73000000
 b44:	632e7970 			; <UNDEFINED> instruction: 0x632e7970
 b48:	6c2f2e00 	stcvs	14, cr2, [pc], #-0	; b50 <__code_start__-0x74b0>
 b4c:	2f636269 	svccs	0x00636269
 b50:	6e727473 	mrcvs	4, 3, r7, cr2, cr3, {3}
 b54:	2e706d63 	cdpcs	13, 7, cr6, cr0, cr3, {3}
 b58:	2f2e0063 	svccs	0x002e0063
 b5c:	66617473 			; <UNDEFINED> instruction: 0x66617473
 b60:	72732d66 	rsbsvc	r2, r3, #6528	; 0x1980
 b64:	65642f63 	strbvs	r2, [r4, #-3939]!	; 0xfffff09d
 b68:	6c756166 	ldfvse	f6, [r5], #-408	; 0xfffffe68
 b6c:	65722d74 	ldrbvs	r2, [r2, #-3444]!	; 0xfffff28c
 b70:	746f6f62 	strbtvc	r6, [pc], #-3938	; b78 <__code_start__-0x7488>
 b74:	6c61632d 	stclvs	3, cr6, [r1], #-180	; 0xffffff4c
 b78:	74756f6c 	ldrbtvc	r6, [r5], #-3948	; 0xfffff094
 b7c:	Address 0x0000000000000b7c is out of bounds.


Disassembly of section .debug_frame:

00000000 <.debug_frame>:
   0:	0000000c 	andeq	r0, r0, ip
   4:	ffffffff 			; <UNDEFINED> instruction: 0xffffffff
   8:	7c020001 	stcvc	0, cr0, [r2], {1}
   c:	000d0c0e 	andeq	r0, sp, lr, lsl #24
  10:	00000024 	andeq	r0, r0, r4, lsr #32
  14:	00000000 	andeq	r0, r0, r0
  18:	00008040 	andeq	r8, r0, r0, asr #32
  1c:	0000006c 	andeq	r0, r0, ip, rrx
  20:	84100e42 	ldrhi	r0, [r0], #-3650	; 0xfffff1be
  24:	86038504 	strhi	r8, [r3], -r4, lsl #10
  28:	48018e02 	stmdami	r1, {r1, r9, sl, fp, pc}
  2c:	0e68180e 	cdpeq	8, 6, cr1, cr8, cr14, {0}
  30:	c6ce4210 			; <UNDEFINED> instruction: 0xc6ce4210
  34:	000ec4c5 	andeq	ip, lr, r5, asr #9
  38:	00000034 	andeq	r0, r0, r4, lsr r0
  3c:	00000000 	andeq	r0, r0, r0
  40:	000080b0 	strheq	r8, [r0], -r0
  44:	000000e0 	andeq	r0, r0, r0, ror #1
  48:	84200e42 	strthi	r0, [r0], #-3650	; 0xfffff1be
  4c:	86078508 	strhi	r8, [r7], -r8, lsl #10
  50:	88058706 	stmdahi	r5, {r1, r2, r8, r9, sl, pc}
  54:	8a038904 	bhi	e246c <__bss_end__+0xd7eec>
  58:	42018e02 	andmi	r8, r1, #2, 28
  5c:	6402280e 	strvs	r2, [r2], #-2062	; 0xfffff7f2
  60:	ce42200e 	cdpgt	0, 4, cr2, cr2, cr14, {0}
  64:	c7c8c9ca 	strbgt	ip, [r8, sl, asr #19]
  68:	0ec4c5c6 	cdpeq	5, 12, cr12, cr4, cr6, {6}
  6c:	00000000 	andeq	r0, r0, r0
  70:	0000000c 	andeq	r0, r0, ip
  74:	ffffffff 			; <UNDEFINED> instruction: 0xffffffff
  78:	7c020001 	stcvc	0, cr0, [r2], {1}
  7c:	000d0c0e 	andeq	r0, sp, lr, lsl #24
  80:	0000001c 	andeq	r0, r0, ip, lsl r0
  84:	00000070 	andeq	r0, r0, r0, ror r0
  88:	00008190 	muleq	r0, r0, r1
  8c:	00000220 	andeq	r0, r0, r0, lsr #4
  90:	84180e42 	ldrhi	r0, [r8], #-3650	; 0xfffff1be
  94:	86058506 	strhi	r8, [r5], -r6, lsl #10
  98:	88038704 	stmdahi	r3, {r2, r8, r9, sl, pc}
  9c:	00018e02 	andeq	r8, r1, r2, lsl #28
  a0:	0000001c 	andeq	r0, r0, ip, lsl r0
  a4:	00000070 	andeq	r0, r0, r0, ror r0
  a8:	000083b0 			; <UNDEFINED> instruction: 0x000083b0
  ac:	00000044 	andeq	r0, r0, r4, asr #32
  b0:	84180e42 	ldrhi	r0, [r8], #-3650	; 0xfffff1be
  b4:	86058506 	strhi	r8, [r5], -r6, lsl #10
  b8:	88038704 	stmdahi	r3, {r2, r8, r9, sl, pc}
  bc:	00018e02 	andeq	r8, r1, r2, lsl #28
  c0:	00000018 	andeq	r0, r0, r8, lsl r0
  c4:	00000070 	andeq	r0, r0, r0, ror r0
  c8:	00008400 	andeq	r8, r0, r0, lsl #8
  cc:	000001c4 	andeq	r0, r0, r4, asr #3
  d0:	840c0e42 	strhi	r0, [ip], #-3650	; 0xfffff1be
  d4:	8e028503 	cfsh32hi	mvfx8, mvfx2, #3
  d8:	00000001 	andeq	r0, r0, r1
  dc:	0000001c 	andeq	r0, r0, ip, lsl r0
  e0:	00000070 	andeq	r0, r0, r0, ror r0
  e4:	000085d0 	ldrdeq	r8, [r0], -r0
  e8:	000000f0 	strdeq	r0, [r0], -r0	; <UNPREDICTABLE>
  ec:	840c0e48 	strhi	r0, [ip], #-3656	; 0xfffff1b8
  f0:	8e028503 	cfsh32hi	mvfx8, mvfx2, #3
  f4:	ce6a0201 	cdpgt	2, 6, cr0, cr10, cr1, {0}
  f8:	000ec4c5 	andeq	ip, lr, r5, asr #9
  fc:	0000001c 	andeq	r0, r0, ip, lsl r0
 100:	00000070 	andeq	r0, r0, r0, ror r0
 104:	000086c0 	andeq	r8, r0, r0, asr #13
 108:	000000f0 	strdeq	r0, [r0], -r0	; <UNPREDICTABLE>
 10c:	840c0e42 	strhi	r0, [ip], #-3650	; 0xfffff1be
 110:	8e028503 	cfsh32hi	mvfx8, mvfx2, #3
 114:	ce720201 	cdpgt	2, 7, cr0, cr2, cr1, {0}
 118:	000ec4c5 	andeq	ip, lr, r5, asr #9
 11c:	0000000c 	andeq	r0, r0, ip
 120:	00000070 	andeq	r0, r0, r0, ror r0
 124:	000087b0 			; <UNDEFINED> instruction: 0x000087b0
 128:	00000020 	andeq	r0, r0, r0, lsr #32
 12c:	0000000c 	andeq	r0, r0, ip
 130:	ffffffff 			; <UNDEFINED> instruction: 0xffffffff
 134:	7c020001 	stcvc	0, cr0, [r2], {1}
 138:	000d0c0e 	andeq	r0, sp, lr, lsl #24
 13c:	00000020 	andeq	r0, r0, r0, lsr #32
 140:	0000012c 	andeq	r0, r0, ip, lsr #2
 144:	000087d0 	ldrdeq	r8, [r0], -r0
 148:	00000064 	andeq	r0, r0, r4, rrx
 14c:	84100e48 	ldrhi	r0, [r0], #-3656	; 0xfffff1b8
 150:	86038504 	strhi	r8, [r3], -r4, lsl #10
 154:	66018e02 	strvs	r8, [r1], -r2, lsl #28
 158:	c4c5c6ce 	strbgt	ip, [r5], #1742	; 0x6ce
 15c:	0000000e 	andeq	r0, r0, lr
 160:	00000020 	andeq	r0, r0, r0, lsr #32
 164:	0000012c 	andeq	r0, r0, ip, lsr #2
 168:	00008834 	andeq	r8, r0, r4, lsr r8
 16c:	0000005c 	andeq	r0, r0, ip, asr r0
 170:	84100e48 	ldrhi	r0, [r0], #-3656	; 0xfffff1b8
 174:	86038504 	strhi	r8, [r3], -r4, lsl #10
 178:	62018e02 	andvs	r8, r1, #2, 28
 17c:	c4c5c6ce 	strbgt	ip, [r5], #1742	; 0x6ce
 180:	0000000e 	andeq	r0, r0, lr
 184:	0000000c 	andeq	r0, r0, ip
 188:	0000012c 	andeq	r0, r0, ip, lsr #2
 18c:	00008890 	muleq	r0, r0, r8
 190:	00000018 	andeq	r0, r0, r8, lsl r0
 194:	0000000c 	andeq	r0, r0, ip
 198:	0000012c 	andeq	r0, r0, ip, lsr #2
 19c:	000088a8 	andeq	r8, r0, r8, lsr #17
 1a0:	00000018 	andeq	r0, r0, r8, lsl r0
 1a4:	00000020 	andeq	r0, r0, r0, lsr #32
 1a8:	0000012c 	andeq	r0, r0, ip, lsr #2
 1ac:	000088c0 	andeq	r8, r0, r0, asr #17
 1b0:	00000058 	andeq	r0, r0, r8, asr r0
 1b4:	84100e46 	ldrhi	r0, [r0], #-3654	; 0xfffff1ba
 1b8:	86038504 	strhi	r8, [r3], -r4, lsl #10
 1bc:	62018e02 	andvs	r8, r1, #2, 28
 1c0:	c4c5c6ce 	strbgt	ip, [r5], #1742	; 0x6ce
 1c4:	0000000e 	andeq	r0, r0, lr
 1c8:	0000000c 	andeq	r0, r0, ip
 1cc:	0000012c 	andeq	r0, r0, ip, lsr #2
 1d0:	00008918 	andeq	r8, r0, r8, lsl r9
 1d4:	00000030 	andeq	r0, r0, r0, lsr r0
 1d8:	00000014 	andeq	r0, r0, r4, lsl r0
 1dc:	0000012c 	andeq	r0, r0, ip, lsr #2
 1e0:	00008948 	andeq	r8, r0, r8, asr #18
 1e4:	00000028 	andeq	r0, r0, r8, lsr #32
 1e8:	84080e44 	strhi	r0, [r8], #-3652	; 0xfffff1bc
 1ec:	00018e02 	andeq	r8, r1, r2, lsl #28
 1f0:	0000000c 	andeq	r0, r0, ip
 1f4:	ffffffff 			; <UNDEFINED> instruction: 0xffffffff
 1f8:	7c020001 	stcvc	0, cr0, [r2], {1}
 1fc:	000d0c0e 	andeq	r0, sp, lr, lsl #24
 200:	00000014 	andeq	r0, r0, r4, lsl r0
 204:	000001f0 	strdeq	r0, [r0], -r0	; <UNPREDICTABLE>
 208:	00008970 	andeq	r8, r0, r0, ror r9
 20c:	00000078 	andeq	r0, r0, r8, ror r0
 210:	84080e42 	strhi	r0, [r8], #-3650	; 0xfffff1be
 214:	00018e02 	andeq	r8, r1, r2, lsl #28
 218:	0000000c 	andeq	r0, r0, ip
 21c:	ffffffff 			; <UNDEFINED> instruction: 0xffffffff
 220:	7c020001 	stcvc	0, cr0, [r2], {1}
 224:	000d0c0e 	andeq	r0, sp, lr, lsl #24
 228:	00000034 	andeq	r0, r0, r4, lsr r0
 22c:	00000218 	andeq	r0, r0, r8, lsl r2
 230:	000089e8 	andeq	r8, r0, r8, ror #19
 234:	00000058 	andeq	r0, r0, r8, asr r0
 238:	80100e42 	andshi	r0, r0, r2, asr #28
 23c:	82038104 	andhi	r8, r3, #1
 240:	42018302 	andmi	r8, r1, #134217728	; 0x8000000
 244:	07841c0e 	streq	r1, [r4, lr, lsl #24]
 248:	058e0685 	streq	r0, [lr, #1669]	; 0x685
 24c:	5a280e44 	bpl	a03b64 <__bss_end__+0x9f95e4>
 250:	ce421c0e 	cdpgt	12, 4, cr1, cr2, cr14, {0}
 254:	100ec4c5 	andne	ip, lr, r5, asr #9
 258:	c1c2c342 	bicgt	ip, r2, r2, asr #6
 25c:	00000ec0 	andeq	r0, r0, r0, asr #29
 260:	0000000c 	andeq	r0, r0, ip
 264:	ffffffff 			; <UNDEFINED> instruction: 0xffffffff
 268:	7c020001 	stcvc	0, cr0, [r2], {1}
 26c:	000d0c0e 	andeq	r0, sp, lr, lsl #24
 270:	00000018 	andeq	r0, r0, r8, lsl r0
 274:	00000260 	andeq	r0, r0, r0, ror #4
 278:	00008a40 	andeq	r8, r0, r0, asr #20
 27c:	00000038 	andeq	r0, r0, r8, lsr r0
 280:	84100e42 	ldrhi	r0, [r0], #-3650	; 0xfffff1be
 284:	86038504 	strhi	r8, [r3], -r4, lsl #10
 288:	00018e02 	andeq	r8, r1, r2, lsl #28
 28c:	0000000c 	andeq	r0, r0, ip
 290:	ffffffff 			; <UNDEFINED> instruction: 0xffffffff
 294:	7c020001 	stcvc	0, cr0, [r2], {1}
 298:	000d0c0e 	andeq	r0, sp, lr, lsl #24
 29c:	0000002c 	andeq	r0, r0, ip, lsr #32
 2a0:	0000028c 	andeq	r0, r0, ip, lsl #5
 2a4:	00008a78 	andeq	r8, r0, r8, ror sl
 2a8:	00000328 	andeq	r0, r0, r8, lsr #6
 2ac:	84180e42 	ldrhi	r0, [r8], #-3650	; 0xfffff1be
 2b0:	86058506 	strhi	r8, [r5], -r6, lsl #10
 2b4:	88038704 	stmdahi	r3, {r2, r8, r9, sl, pc}
 2b8:	46018e02 	strmi	r8, [r1], -r2, lsl #28
 2bc:	c002600e 	andgt	r6, r2, lr
 2c0:	42180e0a 	andsmi	r0, r8, #160	; 0xa0
 2c4:	0a8e020b 	beq	fe380af8 <__bss_end__+0xfe376578>
 2c8:	0b42180e 	bleq	1086308 <__bss_end__+0x107bd88>
 2cc:	00000014 	andeq	r0, r0, r4, lsl r0
 2d0:	0000028c 	andeq	r0, r0, ip, lsl #5
 2d4:	00008da0 	andeq	r8, r0, r0, lsr #27
 2d8:	00000060 	andeq	r0, r0, r0, rrx
 2dc:	8e040e52 	mcrhi	14, 0, r0, cr4, cr2, {2}
 2e0:	100e4401 	andne	r4, lr, r1, lsl #8
 2e4:	0000002c 	andeq	r0, r0, ip, lsr #32
 2e8:	0000028c 	andeq	r0, r0, ip, lsl #5
 2ec:	00008e00 	andeq	r8, r0, r0, lsl #28
 2f0:	0000062c 	andeq	r0, r0, ip, lsr #12
 2f4:	84240e42 	strthi	r0, [r4], #-3650	; 0xfffff1be
 2f8:	86088509 	strhi	r8, [r8], -r9, lsl #10
 2fc:	88068707 	stmdahi	r6, {r0, r1, r2, r8, r9, sl, pc}
 300:	8a048905 	bhi	12271c <__bss_end__+0x11819c>
 304:	8e028b03 	vmlahi.f64	d8, d2, d3
 308:	c00e5201 	andgt	r5, lr, r1, lsl #4
 30c:	0a860202 	beq	fe180b1c <__bss_end__+0xfe17659c>
 310:	0b42240e 	bleq	1089350 <__bss_end__+0x107edd0>
 314:	0000000c 	andeq	r0, r0, ip
 318:	ffffffff 			; <UNDEFINED> instruction: 0xffffffff
 31c:	7c020001 	stcvc	0, cr0, [r2], {1}
 320:	000d0c0e 	andeq	r0, sp, lr, lsl #24
 324:	0000000c 	andeq	r0, r0, ip
 328:	00000314 	andeq	r0, r0, r4, lsl r3
 32c:	0000942c 	andeq	r9, r0, ip, lsr #8
 330:	00000010 	andeq	r0, r0, r0, lsl r0
 334:	0000000c 	andeq	r0, r0, ip
 338:	00000314 	andeq	r0, r0, r4, lsl r3
 33c:	0000943c 	andeq	r9, r0, ip, lsr r4
 340:	00000010 	andeq	r0, r0, r0, lsl r0
 344:	0000000c 	andeq	r0, r0, ip
 348:	ffffffff 			; <UNDEFINED> instruction: 0xffffffff
 34c:	7c020001 	stcvc	0, cr0, [r2], {1}
 350:	000d0c0e 	andeq	r0, sp, lr, lsl #24
 354:	00000014 	andeq	r0, r0, r4, lsl r0
 358:	00000344 	andeq	r0, r0, r4, asr #6
 35c:	0000944c 	andeq	r9, r0, ip, asr #8
 360:	0000002c 	andeq	r0, r0, ip, lsr #32
 364:	84080e44 	strhi	r0, [r8], #-3652	; 0xfffff1bc
 368:	00018e02 	andeq	r8, r1, r2, lsl #28
 36c:	0000000c 	andeq	r0, r0, ip
 370:	ffffffff 			; <UNDEFINED> instruction: 0xffffffff
 374:	7c020001 	stcvc	0, cr0, [r2], {1}
 378:	000d0c0e 	andeq	r0, sp, lr, lsl #24
 37c:	00000018 	andeq	r0, r0, r8, lsl r0
 380:	0000036c 	andeq	r0, r0, ip, ror #6
 384:	00009478 	andeq	r9, r0, r8, ror r4
 388:	000000f8 	strdeq	r0, [r0], -r8
 38c:	84100e42 	ldrhi	r0, [r0], #-3650	; 0xfffff1be
 390:	86038504 	strhi	r8, [r3], -r4, lsl #10
 394:	00018e02 	andeq	r8, r1, r2, lsl #28
 398:	0000000c 	andeq	r0, r0, ip
 39c:	ffffffff 			; <UNDEFINED> instruction: 0xffffffff
 3a0:	7c020001 	stcvc	0, cr0, [r2], {1}
 3a4:	000d0c0e 	andeq	r0, sp, lr, lsl #24
 3a8:	0000000c 	andeq	r0, r0, ip
 3ac:	00000398 	muleq	r0, r8, r3
 3b0:	00009570 	andeq	r9, r0, r0, ror r5
 3b4:	00000004 	andeq	r0, r0, r4
 3b8:	0000000c 	andeq	r0, r0, ip
 3bc:	ffffffff 			; <UNDEFINED> instruction: 0xffffffff
 3c0:	7c020001 	stcvc	0, cr0, [r2], {1}
 3c4:	000d0c0e 	andeq	r0, sp, lr, lsl #24
 3c8:	0000000c 	andeq	r0, r0, ip
 3cc:	000003b8 			; <UNDEFINED> instruction: 0x000003b8
 3d0:	00009574 	andeq	r9, r0, r4, ror r5
 3d4:	00000018 	andeq	r0, r0, r8, lsl r0
 3d8:	0000000c 	andeq	r0, r0, ip
 3dc:	000003b8 			; <UNDEFINED> instruction: 0x000003b8
 3e0:	0000958c 	andeq	r9, r0, ip, lsl #11
 3e4:	00000014 	andeq	r0, r0, r4, lsl r0
 3e8:	00000014 	andeq	r0, r0, r4, lsl r0
 3ec:	000003b8 			; <UNDEFINED> instruction: 0x000003b8
 3f0:	000095a0 	andeq	r9, r0, r0, lsr #11
 3f4:	00000060 	andeq	r0, r0, r0, rrx
 3f8:	84080e42 	strhi	r0, [r8], #-3650	; 0xfffff1be
 3fc:	00018e02 	andeq	r8, r1, r2, lsl #28
 400:	0000000c 	andeq	r0, r0, ip
 404:	ffffffff 			; <UNDEFINED> instruction: 0xffffffff
 408:	7c020001 	stcvc	0, cr0, [r2], {1}
 40c:	000d0c0e 	andeq	r0, sp, lr, lsl #24
 410:	0000000c 	andeq	r0, r0, ip
 414:	00000400 	andeq	r0, r0, r0, lsl #8
 418:	00009600 	andeq	r9, r0, r0, lsl #12
 41c:	0000000c 	andeq	r0, r0, ip
 420:	00000014 	andeq	r0, r0, r4, lsl r0
 424:	00000400 	andeq	r0, r0, r0, lsl #8
 428:	0000960c 	andeq	r9, r0, ip, lsl #12
 42c:	00000024 	andeq	r0, r0, r4, lsr #32
 430:	84080e42 	strhi	r0, [r8], #-3650	; 0xfffff1be
 434:	00018e02 	andeq	r8, r1, r2, lsl #28
 438:	0000001c 	andeq	r0, r0, ip, lsl r0
 43c:	00000400 	andeq	r0, r0, r0, lsl #8
 440:	00009630 	andeq	r9, r0, r0, lsr r6
 444:	00000048 	andeq	r0, r0, r8, asr #32
 448:	84180e42 	ldrhi	r0, [r8], #-3650	; 0xfffff1be
 44c:	86058506 	strhi	r8, [r5], -r6, lsl #10
 450:	88038704 	stmdahi	r3, {r2, r8, r9, sl, pc}
 454:	00018e02 	andeq	r8, r1, r2, lsl #28
 458:	0000001c 	andeq	r0, r0, ip, lsl r0
 45c:	00000400 	andeq	r0, r0, r0, lsl #8
 460:	00009678 	andeq	r9, r0, r8, ror r6
 464:	00000050 	andeq	r0, r0, r0, asr r0
 468:	84180e42 	ldrhi	r0, [r8], #-3650	; 0xfffff1be
 46c:	86058506 	strhi	r8, [r5], -r6, lsl #10
 470:	88038704 	stmdahi	r3, {r2, r8, r9, sl, pc}
 474:	00018e02 	andeq	r8, r1, r2, lsl #28
 478:	0000001c 	andeq	r0, r0, ip, lsl r0
 47c:	00000400 	andeq	r0, r0, r0, lsl #8
 480:	000096c8 	andeq	r9, r0, r8, asr #13
 484:	00000054 	andeq	r0, r0, r4, asr r0
 488:	84180e42 	ldrhi	r0, [r8], #-3650	; 0xfffff1be
 48c:	86058506 	strhi	r8, [r5], -r6, lsl #10
 490:	88038704 	stmdahi	r3, {r2, r8, r9, sl, pc}
 494:	00018e02 	andeq	r8, r1, r2, lsl #28
 498:	0000000c 	andeq	r0, r0, ip
 49c:	ffffffff 			; <UNDEFINED> instruction: 0xffffffff
 4a0:	7c020001 	stcvc	0, cr0, [r2], {1}
 4a4:	000d0c0e 	andeq	r0, sp, lr, lsl #24
 4a8:	00000018 	andeq	r0, r0, r8, lsl r0
 4ac:	00000498 	muleq	r0, r8, r4
 4b0:	0000971c 	andeq	r9, r0, ip, lsl r7
 4b4:	00000020 	andeq	r0, r0, r0, lsr #32
 4b8:	84100e42 	ldrhi	r0, [r0], #-3650	; 0xfffff1be
 4bc:	86038504 	strhi	r8, [r3], -r4, lsl #10
 4c0:	00018e02 	andeq	r8, r1, r2, lsl #28
 4c4:	00000018 	andeq	r0, r0, r8, lsl r0
 4c8:	00000498 	muleq	r0, r8, r4
 4cc:	0000973c 	andeq	r9, r0, ip, lsr r7
 4d0:	00000020 	andeq	r0, r0, r0, lsr #32
 4d4:	84100e42 	ldrhi	r0, [r0], #-3650	; 0xfffff1be
 4d8:	86038504 	strhi	r8, [r3], -r4, lsl #10
 4dc:	00018e02 	andeq	r8, r1, r2, lsl #28
 4e0:	00000014 	andeq	r0, r0, r4, lsl r0
 4e4:	00000498 	muleq	r0, r8, r4
 4e8:	0000975c 	andeq	r9, r0, ip, asr r7
 4ec:	000000b0 	strheq	r0, [r0], -r0	; <UNPREDICTABLE>
 4f0:	84080e42 	strhi	r0, [r8], #-3650	; 0xfffff1be
 4f4:	00018e02 	andeq	r8, r1, r2, lsl #28
 4f8:	00000014 	andeq	r0, r0, r4, lsl r0
 4fc:	00000498 	muleq	r0, r8, r4
 500:	0000980c 	andeq	r9, r0, ip, lsl #16
 504:	00000018 	andeq	r0, r0, r8, lsl r0
 508:	84080e42 	strhi	r0, [r8], #-3650	; 0xfffff1be
 50c:	00018e02 	andeq	r8, r1, r2, lsl #28
 510:	00000014 	andeq	r0, r0, r4, lsl r0
 514:	00000498 	muleq	r0, r8, r4
 518:	00009824 	andeq	r9, r0, r4, lsr #16
 51c:	00000020 	andeq	r0, r0, r0, lsr #32
 520:	84080e42 	strhi	r0, [r8], #-3650	; 0xfffff1be
 524:	00018e02 	andeq	r8, r1, r2, lsl #28
 528:	00000014 	andeq	r0, r0, r4, lsl r0
 52c:	00000498 	muleq	r0, r8, r4
 530:	00009844 	andeq	r9, r0, r4, asr #16
 534:	00000030 	andeq	r0, r0, r0, lsr r0
 538:	84080e42 	strhi	r0, [r8], #-3650	; 0xfffff1be
 53c:	00018e02 	andeq	r8, r1, r2, lsl #28
 540:	00000014 	andeq	r0, r0, r4, lsl r0
 544:	00000498 	muleq	r0, r8, r4
 548:	00009874 	andeq	r9, r0, r4, ror r8
 54c:	00000030 	andeq	r0, r0, r0, lsr r0
 550:	84080e42 	strhi	r0, [r8], #-3650	; 0xfffff1be
 554:	00018e02 	andeq	r8, r1, r2, lsl #28
 558:	00000014 	andeq	r0, r0, r4, lsl r0
 55c:	00000498 	muleq	r0, r8, r4
 560:	000098a4 	andeq	r9, r0, r4, lsr #17
 564:	00000010 	andeq	r0, r0, r0, lsl r0
 568:	84080e42 	strhi	r0, [r8], #-3650	; 0xfffff1be
 56c:	00018e02 	andeq	r8, r1, r2, lsl #28
 570:	00000014 	andeq	r0, r0, r4, lsl r0
 574:	00000498 	muleq	r0, r8, r4
 578:	000098b4 			; <UNDEFINED> instruction: 0x000098b4
 57c:	00000020 	andeq	r0, r0, r0, lsr #32
 580:	84080e42 	strhi	r0, [r8], #-3650	; 0xfffff1be
 584:	00018e02 	andeq	r8, r1, r2, lsl #28
 588:	00000014 	andeq	r0, r0, r4, lsl r0
 58c:	00000498 	muleq	r0, r8, r4
 590:	000098d4 	ldrdeq	r9, [r0], -r4
 594:	00000014 	andeq	r0, r0, r4, lsl r0
 598:	84080e42 	strhi	r0, [r8], #-3650	; 0xfffff1be
 59c:	00018e02 	andeq	r8, r1, r2, lsl #28
 5a0:	00000014 	andeq	r0, r0, r4, lsl r0
 5a4:	00000498 	muleq	r0, r8, r4
 5a8:	000098e8 	andeq	r9, r0, r8, ror #17
 5ac:	00000024 	andeq	r0, r0, r4, lsr #32
 5b0:	84080e42 	strhi	r0, [r8], #-3650	; 0xfffff1be
 5b4:	00018e02 	andeq	r8, r1, r2, lsl #28
 5b8:	0000000c 	andeq	r0, r0, ip
 5bc:	ffffffff 			; <UNDEFINED> instruction: 0xffffffff
 5c0:	7c020001 	stcvc	0, cr0, [r2], {1}
 5c4:	000d0c0e 	andeq	r0, sp, lr, lsl #24
 5c8:	0000000c 	andeq	r0, r0, ip
 5cc:	000005b8 			; <UNDEFINED> instruction: 0x000005b8
 5d0:	0000990c 	andeq	r9, r0, ip, lsl #18
 5d4:	00000010 	andeq	r0, r0, r0, lsl r0
 5d8:	0000000c 	andeq	r0, r0, ip
 5dc:	000005b8 			; <UNDEFINED> instruction: 0x000005b8
 5e0:	0000991c 	andeq	r9, r0, ip, lsl r9
 5e4:	00000010 	andeq	r0, r0, r0, lsl r0
 5e8:	0000000c 	andeq	r0, r0, ip
 5ec:	000005b8 			; <UNDEFINED> instruction: 0x000005b8
 5f0:	0000992c 	andeq	r9, r0, ip, lsr #18
 5f4:	00000010 	andeq	r0, r0, r0, lsl r0
 5f8:	0000001c 	andeq	r0, r0, ip, lsl r0
 5fc:	000005b8 			; <UNDEFINED> instruction: 0x000005b8
 600:	0000993c 	andeq	r9, r0, ip, lsr r9
 604:	0000009c 	muleq	r0, ip, r0
 608:	8e040e42 	cdphi	14, 0, cr0, cr4, cr2, {2}
 60c:	100e4201 	andne	r4, lr, r1, lsl #4
 610:	040e0a58 	streq	r0, [lr], #-2648	; 0xfffff5a8
 614:	00000b42 	andeq	r0, r0, r2, asr #22
 618:	00000014 	andeq	r0, r0, r4, lsl r0
 61c:	000005b8 			; <UNDEFINED> instruction: 0x000005b8
 620:	000099d8 	ldrdeq	r9, [r0], -r8
 624:	00000058 	andeq	r0, r0, r8, asr r0
 628:	84080e42 	strhi	r0, [r8], #-3650	; 0xfffff1be
 62c:	00018e02 	andeq	r8, r1, r2, lsl #28
 630:	0000001c 	andeq	r0, r0, ip, lsl r0
 634:	000005b8 			; <UNDEFINED> instruction: 0x000005b8
 638:	00009a30 	andeq	r9, r0, r0, lsr sl
 63c:	00000098 	muleq	r0, r8, r0
 640:	8e040e42 	cdphi	14, 0, cr0, cr4, cr2, {2}
 644:	100e4201 	andne	r4, lr, r1, lsl #4
 648:	040e0a58 	streq	r0, [lr], #-2648	; 0xfffff5a8
 64c:	00000b42 	andeq	r0, r0, r2, asr #22
 650:	00000020 	andeq	r0, r0, r0, lsr #32
 654:	000005b8 			; <UNDEFINED> instruction: 0x000005b8
 658:	00009ac8 	andeq	r9, r0, r8, asr #21
 65c:	00000064 	andeq	r0, r0, r4, rrx
 660:	840c0e42 	strhi	r0, [ip], #-3650	; 0xfffff1be
 664:	8e028503 	cfsh32hi	mvfx8, mvfx2, #3
 668:	180e4201 	stmdane	lr, {r0, r9, lr}
 66c:	0c0e0a54 			; <UNDEFINED> instruction: 0x0c0e0a54
 670:	00000b42 	andeq	r0, r0, r2, asr #22
 674:	0000001c 	andeq	r0, r0, ip, lsl r0
 678:	000005b8 			; <UNDEFINED> instruction: 0x000005b8
 67c:	00009b2c 	andeq	r9, r0, ip, lsr #22
 680:	00000118 	andeq	r0, r0, r8, lsl r1
 684:	8e040e42 	cdphi	14, 0, cr0, cr4, cr2, {2}
 688:	100e4201 	andne	r4, lr, r1, lsl #4
 68c:	040e0a6c 	streq	r0, [lr], #-2668	; 0xfffff594
 690:	00000b42 	andeq	r0, r0, r2, asr #22
 694:	0000000c 	andeq	r0, r0, ip
 698:	000005b8 			; <UNDEFINED> instruction: 0x000005b8
 69c:	00009c44 	andeq	r9, r0, r4, asr #24
 6a0:	00000004 	andeq	r0, r0, r4
 6a4:	0000000c 	andeq	r0, r0, ip
 6a8:	000005b8 			; <UNDEFINED> instruction: 0x000005b8
 6ac:	00009c48 	andeq	r9, r0, r8, asr #24
 6b0:	00000014 	andeq	r0, r0, r4, lsl r0
 6b4:	00000014 	andeq	r0, r0, r4, lsl r0
 6b8:	000005b8 			; <UNDEFINED> instruction: 0x000005b8
 6bc:	00009c5c 	andeq	r9, r0, ip, asr ip
 6c0:	00000060 	andeq	r0, r0, r0, rrx
 6c4:	8e040e58 	mcrhi	14, 0, r0, cr4, cr8, {2}
 6c8:	100e4201 	andne	r4, lr, r1, lsl #4
 6cc:	0000000c 	andeq	r0, r0, ip
 6d0:	ffffffff 			; <UNDEFINED> instruction: 0xffffffff
 6d4:	7c020001 	stcvc	0, cr0, [r2], {1}
 6d8:	000d0c0e 	andeq	r0, sp, lr, lsl #24
 6dc:	00000014 	andeq	r0, r0, r4, lsl r0
 6e0:	000006cc 	andeq	r0, r0, ip, asr #13
 6e4:	00009cbc 			; <UNDEFINED> instruction: 0x00009cbc
 6e8:	00000014 	andeq	r0, r0, r4, lsl r0
 6ec:	84080e42 	strhi	r0, [r8], #-3650	; 0xfffff1be
 6f0:	00018e02 	andeq	r8, r1, r2, lsl #28
 6f4:	0000000c 	andeq	r0, r0, ip
 6f8:	000006cc 	andeq	r0, r0, ip, asr #13
 6fc:	00009cd0 	ldrdeq	r9, [r0], -r0
 700:	00000018 	andeq	r0, r0, r8, lsl r0
 704:	0000000c 	andeq	r0, r0, ip
 708:	000006cc 	andeq	r0, r0, ip, asr #13
 70c:	00009ce8 	andeq	r9, r0, r8, ror #25
 710:	00000010 	andeq	r0, r0, r0, lsl r0
 714:	0000000c 	andeq	r0, r0, ip
 718:	ffffffff 			; <UNDEFINED> instruction: 0xffffffff
 71c:	7c020001 	stcvc	0, cr0, [r2], {1}
 720:	000d0c0e 	andeq	r0, sp, lr, lsl #24
 724:	0000000c 	andeq	r0, r0, ip
 728:	00000714 	andeq	r0, r0, r4, lsl r7
 72c:	00009cf8 	strdeq	r9, [r0], -r8
 730:	0000002c 	andeq	r0, r0, ip, lsr #32
 734:	0000000c 	andeq	r0, r0, ip
 738:	ffffffff 			; <UNDEFINED> instruction: 0xffffffff
 73c:	7c020001 	stcvc	0, cr0, [r2], {1}
 740:	000d0c0e 	andeq	r0, sp, lr, lsl #24
 744:	0000000c 	andeq	r0, r0, ip
 748:	00000734 	andeq	r0, r0, r4, lsr r7
 74c:	00009d24 	andeq	r9, r0, r4, lsr #26
 750:	00000044 	andeq	r0, r0, r4, asr #32
 754:	0000000c 	andeq	r0, r0, ip
 758:	ffffffff 			; <UNDEFINED> instruction: 0xffffffff
 75c:	7c020001 	stcvc	0, cr0, [r2], {1}
 760:	000d0c0e 	andeq	r0, sp, lr, lsl #24
 764:	0000000c 	andeq	r0, r0, ip
 768:	00000754 	andeq	r0, r0, r4, asr r7
 76c:	00009d68 	andeq	r9, r0, r8, ror #26
 770:	00000018 	andeq	r0, r0, r8, lsl r0
 774:	0000000c 	andeq	r0, r0, ip
 778:	ffffffff 			; <UNDEFINED> instruction: 0xffffffff
 77c:	7c020001 	stcvc	0, cr0, [r2], {1}
 780:	000d0c0e 	andeq	r0, sp, lr, lsl #24
 784:	0000000c 	andeq	r0, r0, ip
 788:	00000774 	andeq	r0, r0, r4, ror r7
 78c:	00009d80 	andeq	r9, r0, r0, lsl #27
 790:	00000030 	andeq	r0, r0, r0, lsr r0
 794:	0000000c 	andeq	r0, r0, ip
 798:	ffffffff 			; <UNDEFINED> instruction: 0xffffffff
 79c:	7c020001 	stcvc	0, cr0, [r2], {1}
 7a0:	000d0c0e 	andeq	r0, sp, lr, lsl #24
 7a4:	0000000c 	andeq	r0, r0, ip
 7a8:	00000794 	muleq	r0, r4, r7
 7ac:	00009db0 			; <UNDEFINED> instruction: 0x00009db0
 7b0:	00000004 	andeq	r0, r0, r4

Disassembly of section .debug_loclists:

00000000 <.debug_loclists>:
   0:	00000438 	andeq	r0, r0, r8, lsr r4
   4:	00040005 	andeq	r0, r4, r5
	...
  10:	f8040000 			; <UNDEFINED> instruction: 0xf8040000
  14:	01038802 	tsteq	r3, r2, lsl #16
  18:	03880450 	orreq	r0, r8, #80, 8	; 0x50000000
  1c:	54010390 	strpl	r0, [r1], #-912	; 0xfffffc70
  20:	a0039004 	andge	r9, r3, r4
  24:	01a30403 			; <UNDEFINED> instruction: 0x01a30403
  28:	00009f50 	andeq	r9, r0, r0, asr pc
  2c:	00000000 	andeq	r0, r0, r0
  30:	04000000 	streq	r0, [r0], #-0
  34:	03880384 	orreq	r0, r8, #132, 6	; 0x10000002
  38:	3500700b 	strcc	r7, [r0, #-11]
  3c:	80b42325 	adcshi	r2, r4, r5, lsr #6
  40:	9f028180 	svcls	0x00028180
  44:	8b038804 	blhi	e205c <__bss_end__+0xd7adc>
  48:	04500103 	ldrbeq	r0, [r0], #-259	; 0xfffffefd
  4c:	0390038b 	orrseq	r0, r0, #738197506	; 0x2c000002
  50:	3500740b 	strcc	r7, [r0, #-1035]	; 0xfffffbf5
  54:	80b42325 	adcshi	r2, r4, r5, lsr #6
  58:	9f028180 	svcls	0x00028180
  5c:	a0039004 	andge	r9, r3, r4
  60:	01a30c03 			; <UNDEFINED> instruction: 0x01a30c03
  64:	23253550 			; <UNDEFINED> instruction: 0x23253550
  68:	818080b4 	strhhi	r8, [r0, r4]
  6c:	01009f02 	tsteq	r0, r2, lsl #30
  70:	00000000 	andeq	r0, r0, r0
  74:	03840400 	orreq	r0, r4, #0, 8
  78:	70050388 	andvc	r0, r5, r8, lsl #7
  7c:	9f1a4f00 	svcls	0x001a4f00
  80:	90038804 	andls	r8, r3, r4, lsl #16
  84:	00740503 	rsbseq	r0, r4, r3, lsl #10
  88:	049f1a4f 	ldreq	r1, [pc], #2639	; 90 <__code_start__-0x7f70>
  8c:	03a00390 	moveq	r0, #144, 6	; 0x40000002
  90:	00005401 	andeq	r5, r0, r1, lsl #8
	...
  9c:	04000000 	streq	r0, [r0], #-0
  a0:	02dc02c8 	sbcseq	r0, ip, #200, 4	; 0x8000000c
  a4:	dc045001 	stcle	0, cr5, [r4], {1}
  a8:	0102e002 	tsteq	r2, r2
  ac:	02e00451 	rsceq	r0, r0, #1358954496	; 0x51000000
  b0:	a30402e4 	movwge	r0, #17124	; 0x42e4
  b4:	049f5001 	ldreq	r5, [pc], #1	; bc <__code_start__-0x7f44>
  b8:	02e802e4 	rsceq	r0, r8, #228, 4	; 0x4000000e
  bc:	e8045001 	stmda	r4, {r0, ip, lr}
  c0:	0102ec02 	tsteq	r2, r2, lsl #24
  c4:	02ec0451 	rsceq	r0, ip, #1358954496	; 0x51000000
  c8:	a30402f8 	movwge	r0, #17144	; 0x42f8
  cc:	009f5001 	addseq	r5, pc, r1
  d0:	00000000 	andeq	r0, r0, r0
  d4:	d402c804 	strle	ip, [r2], #-2052	; 0xfffff7fc
  d8:	04510102 	ldrbeq	r0, [r1], #-258	; 0xfffffefe
  dc:	02f802d4 	rscseq	r0, r8, #212, 4	; 0x4000000d
  e0:	5101a304 	tstpl	r1, r4, lsl #6
  e4:	0001009f 	muleq	r1, pc, r0	; <UNPREDICTABLE>
  e8:	00000000 	andeq	r0, r0, r0
  ec:	dc02d804 	stcle	8, cr13, [r2], {4}
  f0:	04500102 	ldrbeq	r0, [r0], #-258	; 0xfffffefe
  f4:	02e002dc 	rsceq	r0, r0, #220, 4	; 0xc000000d
  f8:	e0045101 	and	r5, r4, r1, lsl #2
  fc:	0402e402 	streq	lr, [r2], #-1026	; 0xfffffbfe
 100:	9f5001a3 	svcls	0x005001a3
 104:	00000200 	andeq	r0, r0, r0, lsl #4
 108:	04000000 	streq	r0, [r0], #-0
 10c:	02e802e4 	rsceq	r0, r8, #228, 4	; 0x4000000e
 110:	e8045001 	stmda	r4, {r0, ip, lr}
 114:	0102ec02 	tsteq	r2, r2, lsl #24
 118:	02ec0451 	rsceq	r0, ip, #1358954496	; 0x51000000
 11c:	a30402f8 	movwge	r0, #17144	; 0x42f8
 120:	009f5001 	addseq	r5, pc, r1
 124:	00000000 	andeq	r0, r0, r0
 128:	f0040000 			; <UNDEFINED> instruction: 0xf0040000
 12c:	01029001 	tsteq	r2, r1
 130:	02900450 	addseq	r0, r0, #80, 8	; 0x50000000
 134:	540102b0 	strpl	r0, [r1], #-688	; 0xfffffd50
 138:	c802b004 	stmdagt	r2, {r2, ip, sp, pc}
 13c:	01a30402 			; <UNDEFINED> instruction: 0x01a30402
 140:	02009f50 	andeq	r9, r0, #80, 30	; 0x140
 144:	00000000 	andeq	r0, r0, r0
 148:	01f00400 	mvnseq	r0, r0, lsl #8
 14c:	50010290 	mulpl	r1, r0, r2
 150:	b0029004 	andlt	r9, r2, r4
 154:	04540102 	ldrbeq	r0, [r4], #-258	; 0xfffffefe
 158:	02c802b0 	sbceq	r0, r8, #176, 4
 15c:	5001a304 	andpl	sl, r1, r4, lsl #6
 160:	0000009f 	muleq	r0, pc, r0	; <UNPREDICTABLE>
 164:	00000000 	andeq	r0, r0, r0
 168:	9001f804 	andls	pc, r1, r4, lsl #16
 16c:	04500102 	ldrbeq	r0, [r0], #-258	; 0xfffffefe
 170:	02b00290 	adcseq	r0, r0, #144, 4
 174:	b0045401 	andlt	r5, r4, r1, lsl #8
 178:	0402c802 	streq	ip, [r2], #-2050	; 0xfffff7fe
 17c:	9f5001a3 	svcls	0x005001a3
 180:	00000300 	andeq	r0, r0, r0, lsl #6
 184:	04000000 	streq	r0, [r0], #-0
 188:	029001f8 	addseq	r0, r0, #62	; 0x3e
 18c:	3a007007 	bcc	1c1b0 <__bss_end__+0x11c30>
 190:	9f1e331d 	svcls	0x001e331d
 194:	b0029004 	andlt	r9, r2, r4
 198:	00740702 	rsbseq	r0, r4, r2, lsl #14
 19c:	1e331d3a 	mrcne	13, 1, r1, cr3, cr10, {1}
 1a0:	02b0049f 	adcseq	r0, r0, #-1627389952	; 0x9f000000
 1a4:	a30802c8 	movwge	r0, #33480	; 0x82c8
 1a8:	1d3a5001 	ldcne	0, cr5, [sl, #-4]!
 1ac:	009f1e33 	addseq	r1, pc, r3, lsr lr	; <UNPREDICTABLE>
 1b0:	00000000 	andeq	r0, r0, r0
 1b4:	98040000 	stmdals	r4, {}	; <UNPREDICTABLE>
 1b8:	0102c002 	tsteq	r2, r2
 1bc:	02c00456 	sbceq	r0, r0, #1442840576	; 0x56000000
 1c0:	500102c3 	andpl	r0, r1, r3, asr #5
 1c4:	c802c304 	stmdagt	r2, {r2, r8, r9, lr, pc}
 1c8:	01a32602 			; <UNDEFINED> instruction: 0x01a32602
 1cc:	a82da850 	stmdage	sp!, {r4, r6, fp, sp, pc}
 1d0:	0826a426 	stmdaeq	r6!, {r1, r2, r5, sl, sp, pc}
 1d4:	cccccccd 	stclgt	12, cr12, [ip], {205}	; 0xcd
 1d8:	00000000 	andeq	r0, r0, r0
 1dc:	a820081e 	stmdage	r0!, {r1, r2, r3, r4, fp}
 1e0:	2da82526 	cfstr32cs	mvfx2, [r8, #152]!	; 0x98
 1e4:	253300a8 	ldrcs	r0, [r3, #-168]!	; 0xffffff58
 1e8:	a0808023 	addge	r8, r0, r3, lsr #32
 1ec:	9f243240 	svcls	0x00243240
 1f0:	01010000 	mrseq	r0, (UNDEF: 1)
 1f4:	00000000 	andeq	r0, r0, r0
 1f8:	02a80400 	adceq	r0, r8, #0, 8
 1fc:	500102a8 	andpl	r0, r1, r8, lsr #5
 200:	b002a804 	andlt	sl, r2, r4, lsl #16
 204:	74370d02 	ldrtvc	r0, [r7], #-3330	; 0xfffff2fe
 208:	331d3a00 	tstcc	sp, #0, 20
 20c:	7020241e 	eorvc	r2, r0, lr, lsl r4
 210:	049f1a00 	ldreq	r1, [pc], #2560	; 218 <__code_start__-0x7de8>
 214:	02b802b0 	adcseq	r0, r8, #176, 4
 218:	01a3370e 			; <UNDEFINED> instruction: 0x01a3370e
 21c:	331d3a50 	tstcc	sp, #80, 20	; 0x50000
 220:	7020241e 	eorvc	r2, r0, lr, lsl r4
 224:	049f1a00 	ldreq	r1, [pc], #2560	; 22c <__code_start__-0x7dd4>
 228:	02c302b8 	sbceq	r0, r3, #184, 4	; 0x8000000b
 22c:	01a3370e 			; <UNDEFINED> instruction: 0x01a3370e
 230:	331d3a50 	tstcc	sp, #80, 20	; 0x50000
 234:	7320241e 			; <UNDEFINED> instruction: 0x7320241e
 238:	009f1a00 	addseq	r1, pc, r0, lsl #20
 23c:	00000000 	andeq	r0, r0, r0
 240:	01946404 	orrseq	r6, r4, r4, lsl #8
 244:	94045001 	strls	r5, [r4], #-1
 248:	0401c001 	streq	ip, [r1], #-1
 24c:	9f5001a3 	svcls	0x005001a3
 250:	00000200 	andeq	r0, r0, r0, lsl #4
 254:	94640400 	strbtls	r0, [r4], #-1024	; 0xfffffc00
 258:	04500101 	ldrbeq	r0, [r0], #-257	; 0xfffffeff
 25c:	01c00194 			; <UNDEFINED> instruction: 0x01c00194
 260:	5001a304 	andpl	sl, r1, r4, lsl #6
 264:	0000009f 	muleq	r0, pc, r0	; <UNPREDICTABLE>
 268:	6c040000 	stcvs	0, cr0, [r4], {-0}
 26c:	50010194 	mulpl	r1, r4, r1
 270:	c0019404 	andgt	r9, r1, r4, lsl #8
 274:	01a30401 			; <UNDEFINED> instruction: 0x01a30401
 278:	00009f50 	andeq	r9, r0, r0, asr pc
 27c:	04000000 	streq	r0, [r0], #-0
 280:	01b801a8 			; <UNDEFINED> instruction: 0x01b801a8
 284:	b8045401 	stmdalt	r4, {r0, sl, ip, lr}
 288:	2901c001 	stmdbcs	r1, {r0, lr, pc}
 28c:	a35001a3 	cmpge	r0, #-1073741784	; 0xc0000028
 290:	2da85001 	stccs	0, cr5, [r8, #4]!
 294:	26a426a8 	strtcs	r2, [r4], r8, lsr #13
 298:	cccccd08 	stclgt	13, cr12, [ip], {8}
 29c:	000000cc 	andeq	r0, r0, ip, asr #1
 2a0:	20081e00 	andcs	r1, r8, r0, lsl #28
 2a4:	a82526a8 	stmdage	r5!, {r3, r5, r7, r9, sl, sp}
 2a8:	3300a82d 	movwcc	sl, #2093	; 0x82d
 2ac:	311e3525 	tstcc	lr, r5, lsr #10
 2b0:	1e331c24 	cdpne	12, 3, cr1, cr3, cr4, {1}
 2b4:	0001009f 	muleq	r1, pc, r0	; <UNPREDICTABLE>
 2b8:	00000000 	andeq	r0, r0, r0
 2bc:	b801a804 	stmdalt	r1, {r2, fp, sp, pc}
 2c0:	04550101 	ldrbeq	r0, [r5], #-257	; 0xfffffeff
 2c4:	01bb01b8 			; <UNDEFINED> instruction: 0x01bb01b8
 2c8:	bb045001 	bllt	1142d4 <__bss_end__+0x109d54>
 2cc:	2601c001 	strcs	ip, [r1], -r1
 2d0:	a85001a3 	ldmdage	r0, {r0, r1, r5, r7, r8}^
 2d4:	a426a82d 	strtge	sl, [r6], #-2093	; 0xfffff7d3
 2d8:	cccd0826 	stclgt	8, cr0, [sp], {38}	; 0x26
 2dc:	0000cccc 	andeq	ip, r0, ip, asr #25
 2e0:	081e0000 	ldmdaeq	lr, {}	; <UNPREDICTABLE>
 2e4:	2526a820 	strcs	sl, [r6, #-2080]!	; 0xfffff7e0
 2e8:	00a82da8 	adceq	r2, r8, r8, lsr #27
 2ec:	80232533 	eorhi	r2, r3, r3, lsr r5
 2f0:	3240a080 	subcc	sl, r0, #128, 0	; 0x80
 2f4:	02009f24 	andeq	r9, r0, #36, 30	; 0x90
 2f8:	01010000 	mrseq	r0, (UNDEF: 1)
 2fc:	04000000 	streq	r0, [r0], #-0
 300:	01ac01a8 			; <UNDEFINED> instruction: 0x01ac01a8
 304:	ac045001 	stcge	0, cr5, [r4], {1}
 308:	0101ac01 	tsteq	r1, r1, lsl #24
 30c:	01ac0453 			; <UNDEFINED> instruction: 0x01ac0453
 310:	310801b4 			; <UNDEFINED> instruction: 0x310801b4
 314:	73240074 			; <UNDEFINED> instruction: 0x73240074
 318:	049f2100 	ldreq	r2, [pc], #256	; 320 <__code_start__-0x7ce0>
 31c:	01bb01b4 			; <UNDEFINED> instruction: 0x01bb01b4
 320:	00005101 	andeq	r5, r0, r1, lsl #2
 324:	04000000 	streq	r0, [r0], #-0
 328:	50013c00 	andpl	r3, r1, r0, lsl #24
 32c:	04643c04 	strbteq	r3, [r4], #-3076	; 0xfffff3fc
 330:	9f5001a3 	svcls	0x005001a3
 334:	00000000 	andeq	r0, r0, r0
 338:	3f000400 	svccc	0x00000400
 33c:	3f045101 	svccc	0x00045101
 340:	01a30464 			; <UNDEFINED> instruction: 0x01a30464
 344:	00009f51 	andeq	r9, r0, r1, asr pc
 348:	04000000 	streq	r0, [r0], #-0
 34c:	51013f08 	tstpl	r1, r8, lsl #30
 350:	04643f04 	strbteq	r3, [r4], #-3844	; 0xfffff0fc
 354:	9f5101a3 	svcls	0x005101a3
 358:	00000000 	andeq	r0, r0, r0
 35c:	3c080400 	cfstrscc	mvf0, [r8], {-0}
 360:	3c045001 	stccc	0, cr5, [r4], {1}
 364:	01a30464 			; <UNDEFINED> instruction: 0x01a30464
 368:	00009f50 	andeq	r9, r0, r0, asr pc
 36c:	04000000 	streq	r0, [r0], #-0
 370:	54015c4c 	strpl	r5, [r1], #-3148	; 0xfffff3b4
 374:	29645c04 	stmdbcs	r4!, {r2, sl, fp, ip, lr}^
 378:	a35001a3 	cmpge	r0, #-1073741784	; 0xc0000028
 37c:	2da85001 	stccs	0, cr5, [r8, #4]!
 380:	26a426a8 	strtcs	r2, [r4], r8, lsr #13
 384:	cccccd08 	stclgt	13, cr12, [ip], {8}
 388:	000000cc 	andeq	r0, r0, ip, asr #1
 38c:	20081e00 	andcs	r1, r8, r0, lsl #28
 390:	a82526a8 	stmdage	r5!, {r3, r5, r7, r9, sl, sp}
 394:	3300a82d 	movwcc	sl, #2093	; 0x82d
 398:	311e3525 	tstcc	lr, r5, lsr #10
 39c:	1e331c24 	cdpne	12, 3, cr1, cr3, cr4, {1}
 3a0:	0001009f 	muleq	r1, pc, r0	; <UNPREDICTABLE>
 3a4:	00000000 	andeq	r0, r0, r0
 3a8:	015c4c04 	cmpeq	ip, r4, lsl #24
 3ac:	5f5c0456 	svcpl	0x005c0456
 3b0:	5f045001 	svcpl	0x00045001
 3b4:	01a32664 			; <UNDEFINED> instruction: 0x01a32664
 3b8:	a82da850 	stmdage	sp!, {r4, r6, fp, sp, pc}
 3bc:	0826a426 	stmdaeq	r6!, {r1, r2, r5, sl, sp, pc}
 3c0:	cccccccd 	stclgt	12, cr12, [ip], {205}	; 0xcd
 3c4:	00000000 	andeq	r0, r0, r0
 3c8:	a820081e 	stmdage	r0!, {r1, r2, r3, r4, fp}
 3cc:	2da82526 	cfstr32cs	mvfx2, [r8, #152]!	; 0x98
 3d0:	253300a8 	ldrcs	r0, [r3, #-168]!	; 0xffffff58
 3d4:	a0808023 	addge	r8, r0, r3, lsr #32
 3d8:	9f243240 	svcls	0x00243240
 3dc:	00000200 	andeq	r0, r0, r0, lsl #4
 3e0:	04000101 	streq	r0, [r0], #-257	; 0xfffffeff
 3e4:	5001504c 	andpl	r5, r1, ip, asr #32
 3e8:	01505004 	cmpeq	r0, r4
 3ec:	58500451 	ldmdapl	r0, {r0, r4, r6, sl}^
 3f0:	0800750c 	stmdaeq	r0, {r2, r3, r8, sl, ip, sp, lr}
 3f4:	00741aff 	ldrshteq	r1, [r4], #-175	; 0xffffff51
 3f8:	21007124 	tstcs	r0, r4, lsr #2
 3fc:	0000009f 	muleq	r0, pc, r0	; <UNPREDICTABLE>
 400:	00000000 	andeq	r0, r0, r0
 404:	cc01c004 	stcgt	0, cr12, [r1], {4}
 408:	04500101 	ldrbeq	r0, [r0], #-257	; 0xfffffeff
 40c:	01d301cc 	bicseq	r0, r3, ip, asr #3
 410:	d3045301 	movwle	r5, #17153	; 0x4301
 414:	0401d801 	streq	sp, [r1], #-2049	; 0xfffff7ff
 418:	9f5001a3 	svcls	0x005001a3
 41c:	00000000 	andeq	r0, r0, r0
 420:	04000000 	streq	r0, [r0], #-0
 424:	01e401d8 	ldrdeq	r0, [r4, #24]!
 428:	e4045001 	str	r5, [r4], #-1
 42c:	0101eb01 	tsteq	r1, r1, lsl #22
 430:	01eb0453 	mvneq	r0, r3, asr r4
 434:	a30401f0 	movwge	r0, #16880	; 0x41f0
 438:	009f5001 	addseq	r5, pc, r1

Disassembly of section .debug_rnglists:

00000000 <.debug_rnglists>:
   0:	00000057 	andeq	r0, r0, r7, asr r0
   4:	00040005 	andeq	r0, r4, r5
   8:	00000000 	andeq	r0, r0, r0
   c:	040c0804 	streq	r0, [ip], #-2052	; 0xfffff7fc
  10:	5c045814 	stcpl	8, cr5, [r4], {20}
  14:	64040064 	strvs	r0, [r4], #-100	; 0xffffff9c
  18:	b4740470 	ldrbtlt	r0, [r4], #-1136	; 0xfffffb90
  1c:	01b80401 			; <UNDEFINED> instruction: 0x01b80401
  20:	040001c0 	streq	r0, [r0], #-448	; 0xfffffe40
  24:	7404706c 	strvc	r7, [r4], #-108	; 0xffffff94
  28:	b80401b4 	stmdalt	r4, {r2, r4, r5, r7, r8}
  2c:	0001c001 	andeq	ip, r1, r1
  30:	f801f004 			; <UNDEFINED> instruction: 0xf801f004
  34:	01fc0401 	mvnseq	r0, r1, lsl #8
  38:	c00402bc 			; <UNDEFINED> instruction: 0xc00402bc
  3c:	0002c802 	andeq	ip, r2, r2, lsl #16
  40:	f801f804 			; <UNDEFINED> instruction: 0xf801f804
  44:	01fc0401 	mvnseq	r0, r1, lsl #8
  48:	c00402bc 			; <UNDEFINED> instruction: 0xc00402bc
  4c:	0002c802 	andeq	ip, r2, r2, lsl #16
  50:	d002cc04 	andle	ip, r2, r4, lsl #24
  54:	02d80402 	sbcseq	r0, r8, #33554432	; 0x2000000
  58:	Address 0x0000000000000058 is out of bounds.

