
3-circle.elf:     file format elf32-littlearm


Disassembly of section .text:

00008000 <__code_start__>:
    8000:	e3a00013 	mov	r0, #19, 0
    8004:	e3800080 	orr	r0, r0, #128, 0	; 0x80
    8008:	e129f000 	msr	CPSR_fc, r0
    800c:	e3a01000 	mov	r1, #0, 0
    8010:	ee071f95 	mcr	15, 0, r1, cr7, cr5, {4}
    8014:	e3a0d302 	mov	sp, #134217728	; 0x8000000
    8018:	e3a0b000 	mov	fp, #0, 0
    801c:	eb0004e9 	bl	93c8 <_cstart>
    8020:	eb000532 	bl	94f0 <rpi_reboot>

00008024 <PUT32>:
    8024:	e5801000 	str	r1, [r0]
    8028:	e12fff1e 	bx	lr

0000802c <GET32>:
    802c:	e5900000 	ldr	r0, [r0]
    8030:	e12fff1e 	bx	lr

00008034 <BRANCHTO>:
    8034:	e12fff10 	bx	r0
	...

00008040 <notmain>:
    8040:	e92d41f0 	push	{r4, r5, r6, r7, r8, lr}
    8044:	e24dd008 	sub	sp, sp, #8, 0
    8048:	eb0004cb 	bl	937c <enable_cache>
    804c:	e3a00015 	mov	r0, #21, 0
    8050:	eb0001cb 	bl	8784 <gpio_set_output>
    8054:	e3a01010 	mov	r1, #16, 0
    8058:	e3a00015 	mov	r0, #21, 0
    805c:	eb0000a7 	bl	8300 <neopix_init>
    8060:	e3a07000 	mov	r7, #0, 0
    8064:	e1a05000 	mov	r5, r0
    8068:	e3a060ff 	mov	r6, #255, 0	; 0xff
    806c:	e59f805c 	ldr	r8, [pc, #92]	; 80d0 <notmain+0x90>
    8070:	e1a01007 	mov	r1, r7
    8074:	e1a00008 	mov	r0, r8
    8078:	eb00022e 	bl	8938 <printk>
    807c:	e3a04000 	mov	r4, #0, 0
    8080:	e1a01004 	mov	r1, r4
    8084:	e3a03000 	mov	r3, #0, 0
    8088:	e3a020ff 	mov	r2, #255, 0	; 0xff
    808c:	e1a00005 	mov	r0, r5
    8090:	e58d6000 	str	r6, [sp]
    8094:	eb000199 	bl	8700 <neopix_write>
    8098:	e1a00005 	mov	r0, r5
    809c:	eb00000f 	bl	80e0 <neopix_flush>
    80a0:	e2844001 	add	r4, r4, #1, 0
    80a4:	e3a00064 	mov	r0, #100, 0	; 0x64
    80a8:	eb000546 	bl	95c8 <delay_ms>
    80ac:	e3540010 	cmp	r4, #16, 0
    80b0:	1afffff2 	bne	8080 <notmain+0x40>
    80b4:	e2877001 	add	r7, r7, #1, 0
    80b8:	e3570010 	cmp	r7, #16, 0
    80bc:	1affffeb 	bne	8070 <notmain+0x30>
    80c0:	e59f000c 	ldr	r0, [pc, #12]	; 80d4 <notmain+0x94>
    80c4:	e28dd008 	add	sp, sp, #8, 0
    80c8:	e8bd41f0 	pop	{r4, r5, r6, r7, r8, lr}
    80cc:	ea000219 	b	8938 <printk>
    80d0:	00009d20 	andeq	r9, r0, r0, lsr #26
    80d4:	00009d2c 	andeq	r9, r0, ip, lsr #26
	...

000080e0 <neopix_flush>:
    80e0:	e92d41f0 	push	{r4, r5, r6, r7, r8, lr}
    80e4:	ee1fcf3c 	mrc	15, 0, ip, cr15, cr12, {1}
    80e8:	e3a01001 	mov	r1, #1, 0
    80ec:	e5d03000 	ldrb	r3, [r0]
    80f0:	e59f2200 	ldr	r2, [pc, #512]	; 82f8 <neopix_flush+0x218>
    80f4:	e1a03311 	lsl	r3, r1, r3
    80f8:	e59f11fc 	ldr	r1, [pc, #508]	; 82fc <neopix_flush+0x21c>
    80fc:	e5823028 	str	r3, [r2, #40]	; 0x28
    8100:	ee1f2f3c 	mrc	15, 0, r2, cr15, cr12, {1}
    8104:	e042200c 	sub	r2, r2, ip
    8108:	e1520001 	cmp	r2, r1
    810c:	9afffffb 	bls	8100 <neopix_flush+0x20>
    8110:	e5905004 	ldr	r5, [r0, #4]
    8114:	e3550000 	cmp	r5, #0, 0
    8118:	08bd81f0 	popeq	{r4, r5, r6, r7, r8, pc}
    811c:	e3a0e000 	mov	lr, #0, 0
    8120:	e0855085 	add	r5, r5, r5, lsl #1
    8124:	e59f21cc 	ldr	r2, [pc, #460]	; 82f8 <neopix_flush+0x218>
    8128:	e0805005 	add	r5, r0, r5
    812c:	e3a01000 	mov	r1, #0, 0
    8130:	e5d06008 	ldrb	r6, [r0, #8]
    8134:	e5d0400a 	ldrb	r4, [r0, #10]
    8138:	e5d07009 	ldrb	r7, [r0, #9]
    813c:	e1a0c157 	asr	ip, r7, r1
    8140:	e31c0001 	tst	ip, #1, 0
    8144:	0a00005b 	beq	82b8 <neopix_flush+0x1d8>
    8148:	ee1f8f3c 	mrc	15, 0, r8, cr15, cr12, {1}
    814c:	e582301c 	str	r3, [r2, #28]
    8150:	ee1fcf3c 	mrc	15, 0, ip, cr15, cr12, {1}
    8154:	e04cc008 	sub	ip, ip, r8
    8158:	e35c0e27 	cmp	ip, #624	; 0x270
    815c:	9afffffb 	bls	8150 <neopix_flush+0x70>
    8160:	ee1f8f3c 	mrc	15, 0, r8, cr15, cr12, {1}
    8164:	e5823028 	str	r3, [r2, #40]	; 0x28
    8168:	ee1fcf3c 	mrc	15, 0, ip, cr15, cr12, {1}
    816c:	e04cc008 	sub	ip, ip, r8
    8170:	e35c00ef 	cmp	ip, #239, 0	; 0xef
    8174:	9afffffb 	bls	8168 <neopix_flush+0x88>
    8178:	e2811001 	add	r1, r1, #1, 0
    817c:	e3510008 	cmp	r1, #8, 0
    8180:	1affffed 	bne	813c <neopix_flush+0x5c>
    8184:	e3a01000 	mov	r1, #0, 0
    8188:	e1a0c156 	asr	ip, r6, r1
    818c:	e31c0001 	tst	ip, #1, 0
    8190:	0a000038 	beq	8278 <neopix_flush+0x198>
    8194:	ee1f7f3c 	mrc	15, 0, r7, cr15, cr12, {1}
    8198:	e582301c 	str	r3, [r2, #28]
    819c:	ee1fcf3c 	mrc	15, 0, ip, cr15, cr12, {1}
    81a0:	e04cc007 	sub	ip, ip, r7
    81a4:	e35c0e27 	cmp	ip, #624	; 0x270
    81a8:	9afffffb 	bls	819c <neopix_flush+0xbc>
    81ac:	ee1f7f3c 	mrc	15, 0, r7, cr15, cr12, {1}
    81b0:	e5823028 	str	r3, [r2, #40]	; 0x28
    81b4:	ee1fcf3c 	mrc	15, 0, ip, cr15, cr12, {1}
    81b8:	e04cc007 	sub	ip, ip, r7
    81bc:	e35c00ef 	cmp	ip, #239, 0	; 0xef
    81c0:	9afffffb 	bls	81b4 <neopix_flush+0xd4>
    81c4:	e2811001 	add	r1, r1, #1, 0
    81c8:	e3510008 	cmp	r1, #8, 0
    81cc:	1affffed 	bne	8188 <neopix_flush+0xa8>
    81d0:	e3a01000 	mov	r1, #0, 0
    81d4:	e1a0c154 	asr	ip, r4, r1
    81d8:	e31c0001 	tst	ip, #1, 0
    81dc:	0a000015 	beq	8238 <neopix_flush+0x158>
    81e0:	ee1f6f3c 	mrc	15, 0, r6, cr15, cr12, {1}
    81e4:	e582301c 	str	r3, [r2, #28]
    81e8:	ee1fcf3c 	mrc	15, 0, ip, cr15, cr12, {1}
    81ec:	e04cc006 	sub	ip, ip, r6
    81f0:	e35c0e27 	cmp	ip, #624	; 0x270
    81f4:	9afffffb 	bls	81e8 <neopix_flush+0x108>
    81f8:	ee1f6f3c 	mrc	15, 0, r6, cr15, cr12, {1}
    81fc:	e5823028 	str	r3, [r2, #40]	; 0x28
    8200:	ee1fcf3c 	mrc	15, 0, ip, cr15, cr12, {1}
    8204:	e04cc006 	sub	ip, ip, r6
    8208:	e35c00ef 	cmp	ip, #239, 0	; 0xef
    820c:	9afffffb 	bls	8200 <neopix_flush+0x120>
    8210:	e2811001 	add	r1, r1, #1, 0
    8214:	e3510008 	cmp	r1, #8, 0
    8218:	1affffed 	bne	81d4 <neopix_flush+0xf4>
    821c:	e5c0e008 	strb	lr, [r0, #8]
    8220:	e5c0e009 	strb	lr, [r0, #9]
    8224:	e5c0e00a 	strb	lr, [r0, #10]
    8228:	e2800003 	add	r0, r0, #3, 0
    822c:	e1550000 	cmp	r5, r0
    8230:	1affffbd 	bne	812c <neopix_flush+0x4c>
    8234:	e8bd81f0 	pop	{r4, r5, r6, r7, r8, pc}
    8238:	ee1f6f3c 	mrc	15, 0, r6, cr15, cr12, {1}
    823c:	e582301c 	str	r3, [r2, #28]
    8240:	ee1fcf3c 	mrc	15, 0, ip, cr15, cr12, {1}
    8244:	e04cc006 	sub	ip, ip, r6
    8248:	e35c00ef 	cmp	ip, #239, 0	; 0xef
    824c:	9afffffb 	bls	8240 <neopix_flush+0x160>
    8250:	ee1f6f3c 	mrc	15, 0, r6, cr15, cr12, {1}
    8254:	e5823028 	str	r3, [r2, #40]	; 0x28
    8258:	ee1fcf3c 	mrc	15, 0, ip, cr15, cr12, {1}
    825c:	e04cc006 	sub	ip, ip, r6
    8260:	e35c0e27 	cmp	ip, #624	; 0x270
    8264:	9afffffb 	bls	8258 <neopix_flush+0x178>
    8268:	e2811001 	add	r1, r1, #1, 0
    826c:	e3510008 	cmp	r1, #8, 0
    8270:	1affffd7 	bne	81d4 <neopix_flush+0xf4>
    8274:	eaffffe8 	b	821c <neopix_flush+0x13c>
    8278:	ee1f7f3c 	mrc	15, 0, r7, cr15, cr12, {1}
    827c:	e582301c 	str	r3, [r2, #28]
    8280:	ee1fcf3c 	mrc	15, 0, ip, cr15, cr12, {1}
    8284:	e04cc007 	sub	ip, ip, r7
    8288:	e35c00ef 	cmp	ip, #239, 0	; 0xef
    828c:	9afffffb 	bls	8280 <neopix_flush+0x1a0>
    8290:	ee1f7f3c 	mrc	15, 0, r7, cr15, cr12, {1}
    8294:	e5823028 	str	r3, [r2, #40]	; 0x28
    8298:	ee1fcf3c 	mrc	15, 0, ip, cr15, cr12, {1}
    829c:	e04cc007 	sub	ip, ip, r7
    82a0:	e35c0e27 	cmp	ip, #624	; 0x270
    82a4:	9afffffb 	bls	8298 <neopix_flush+0x1b8>
    82a8:	e2811001 	add	r1, r1, #1, 0
    82ac:	e3510008 	cmp	r1, #8, 0
    82b0:	1affffb4 	bne	8188 <neopix_flush+0xa8>
    82b4:	eaffffc5 	b	81d0 <neopix_flush+0xf0>
    82b8:	ee1f8f3c 	mrc	15, 0, r8, cr15, cr12, {1}
    82bc:	e582301c 	str	r3, [r2, #28]
    82c0:	ee1fcf3c 	mrc	15, 0, ip, cr15, cr12, {1}
    82c4:	e04cc008 	sub	ip, ip, r8
    82c8:	e35c00ef 	cmp	ip, #239, 0	; 0xef
    82cc:	9afffffb 	bls	82c0 <neopix_flush+0x1e0>
    82d0:	ee1f8f3c 	mrc	15, 0, r8, cr15, cr12, {1}
    82d4:	e5823028 	str	r3, [r2, #40]	; 0x28
    82d8:	ee1fcf3c 	mrc	15, 0, ip, cr15, cr12, {1}
    82dc:	e04cc008 	sub	ip, ip, r8
    82e0:	e35c0e27 	cmp	ip, #624	; 0x270
    82e4:	9afffffb 	bls	82d8 <neopix_flush+0x1f8>
    82e8:	e2811001 	add	r1, r1, #1, 0
    82ec:	e3510008 	cmp	r1, #8, 0
    82f0:	1affff91 	bne	813c <neopix_flush+0x5c>
    82f4:	eaffffa2 	b	8184 <neopix_flush+0xa4>
    82f8:	20200000 	eorcs	r0, r0, r0
    82fc:	000088b2 			; <UNDEFINED> instruction: 0x000088b2

00008300 <neopix_init>:
    8300:	e92d41f0 	push	{r4, r5, r6, r7, r8, lr}
    8304:	e0817081 	add	r7, r1, r1, lsl #1
    8308:	e2877008 	add	r7, r7, #8, 0
    830c:	e1a06000 	mov	r6, r0
    8310:	e1a00007 	mov	r0, r7
    8314:	e1a05001 	mov	r5, r1
    8318:	eb0005be 	bl	9a18 <kmalloc>
    831c:	e1a04000 	mov	r4, r0
    8320:	e1a02007 	mov	r2, r7
    8324:	e3a01000 	mov	r1, #0, 0
    8328:	eb000164 	bl	88c0 <memset>
    832c:	e1a00006 	mov	r0, r6
    8330:	e5845004 	str	r5, [r4, #4]
    8334:	e5c46000 	strb	r6, [r4]
    8338:	eb000111 	bl	8784 <gpio_set_output>
    833c:	e1a00004 	mov	r0, r4
    8340:	e8bd81f0 	pop	{r4, r5, r6, r7, r8, pc}
    8344:	e320f000 	nop	{0}
    8348:	e320f000 	nop	{0}
    834c:	e320f000 	nop	{0}

00008350 <neopix_sendpixel>:
    8350:	e92d4030 	push	{r4, r5, lr}
    8354:	e3a04001 	mov	r4, #1, 0
    8358:	e3a0e000 	mov	lr, #0, 0
    835c:	e5d00000 	ldrb	r0, [r0]
    8360:	e59fc1a8 	ldr	ip, [pc, #424]	; 8510 <neopix_sendpixel+0x1c0>
    8364:	e1a00014 	lsl	r0, r4, r0
    8368:	e1a04e52 	asr	r4, r2, lr
    836c:	e3140001 	tst	r4, #1, 0
    8370:	0a000056 	beq	84d0 <neopix_sendpixel+0x180>
    8374:	ee1f5f3c 	mrc	15, 0, r5, cr15, cr12, {1}
    8378:	e58c001c 	str	r0, [ip, #28]
    837c:	ee1f4f3c 	mrc	15, 0, r4, cr15, cr12, {1}
    8380:	e0444005 	sub	r4, r4, r5
    8384:	e3540e27 	cmp	r4, #624	; 0x270
    8388:	9afffffb 	bls	837c <neopix_sendpixel+0x2c>
    838c:	ee1f5f3c 	mrc	15, 0, r5, cr15, cr12, {1}
    8390:	e58c0028 	str	r0, [ip, #40]	; 0x28
    8394:	ee1f4f3c 	mrc	15, 0, r4, cr15, cr12, {1}
    8398:	e0444005 	sub	r4, r4, r5
    839c:	e35400ef 	cmp	r4, #239, 0	; 0xef
    83a0:	9afffffb 	bls	8394 <neopix_sendpixel+0x44>
    83a4:	e28ee001 	add	lr, lr, #1, 0
    83a8:	e35e0008 	cmp	lr, #8, 0
    83ac:	1affffed 	bne	8368 <neopix_sendpixel+0x18>
    83b0:	e3a0c000 	mov	ip, #0, 0
    83b4:	e59f2154 	ldr	r2, [pc, #340]	; 8510 <neopix_sendpixel+0x1c0>
    83b8:	e1a0ec51 	asr	lr, r1, ip
    83bc:	e31e0001 	tst	lr, #1, 0
    83c0:	0a000032 	beq	8490 <neopix_sendpixel+0x140>
    83c4:	ee1f4f3c 	mrc	15, 0, r4, cr15, cr12, {1}
    83c8:	e582001c 	str	r0, [r2, #28]
    83cc:	ee1fef3c 	mrc	15, 0, lr, cr15, cr12, {1}
    83d0:	e04ee004 	sub	lr, lr, r4
    83d4:	e35e0e27 	cmp	lr, #624	; 0x270
    83d8:	9afffffb 	bls	83cc <neopix_sendpixel+0x7c>
    83dc:	ee1f4f3c 	mrc	15, 0, r4, cr15, cr12, {1}
    83e0:	e5820028 	str	r0, [r2, #40]	; 0x28
    83e4:	ee1fef3c 	mrc	15, 0, lr, cr15, cr12, {1}
    83e8:	e04ee004 	sub	lr, lr, r4
    83ec:	e35e00ef 	cmp	lr, #239, 0	; 0xef
    83f0:	9afffffb 	bls	83e4 <neopix_sendpixel+0x94>
    83f4:	e28cc001 	add	ip, ip, #1, 0
    83f8:	e35c0008 	cmp	ip, #8, 0
    83fc:	1affffed 	bne	83b8 <neopix_sendpixel+0x68>
    8400:	e3a01000 	mov	r1, #0, 0
    8404:	e1a0c153 	asr	ip, r3, r1
    8408:	e31c0001 	tst	ip, #1, 0
    840c:	e59f20fc 	ldr	r2, [pc, #252]	; 8510 <neopix_sendpixel+0x1c0>
    8410:	0a000011 	beq	845c <neopix_sendpixel+0x10c>
    8414:	ee1fef3c 	mrc	15, 0, lr, cr15, cr12, {1}
    8418:	e582001c 	str	r0, [r2, #28]
    841c:	ee1fcf3c 	mrc	15, 0, ip, cr15, cr12, {1}
    8420:	e04cc00e 	sub	ip, ip, lr
    8424:	e35c0e27 	cmp	ip, #624	; 0x270
    8428:	9afffffb 	bls	841c <neopix_sendpixel+0xcc>
    842c:	ee1fef3c 	mrc	15, 0, lr, cr15, cr12, {1}
    8430:	e5820028 	str	r0, [r2, #40]	; 0x28
    8434:	ee1fcf3c 	mrc	15, 0, ip, cr15, cr12, {1}
    8438:	e04cc00e 	sub	ip, ip, lr
    843c:	e35c00ef 	cmp	ip, #239, 0	; 0xef
    8440:	9afffffb 	bls	8434 <neopix_sendpixel+0xe4>
    8444:	e2811001 	add	r1, r1, #1, 0
    8448:	e3510008 	cmp	r1, #8, 0
    844c:	08bd8030 	popeq	{r4, r5, pc}
    8450:	e1a0c153 	asr	ip, r3, r1
    8454:	e31c0001 	tst	ip, #1, 0
    8458:	1affffed 	bne	8414 <neopix_sendpixel+0xc4>
    845c:	ee1fef3c 	mrc	15, 0, lr, cr15, cr12, {1}
    8460:	e582001c 	str	r0, [r2, #28]
    8464:	ee1fcf3c 	mrc	15, 0, ip, cr15, cr12, {1}
    8468:	e04cc00e 	sub	ip, ip, lr
    846c:	e35c00ef 	cmp	ip, #239, 0	; 0xef
    8470:	9afffffb 	bls	8464 <neopix_sendpixel+0x114>
    8474:	ee1fef3c 	mrc	15, 0, lr, cr15, cr12, {1}
    8478:	e5820028 	str	r0, [r2, #40]	; 0x28
    847c:	ee1fcf3c 	mrc	15, 0, ip, cr15, cr12, {1}
    8480:	e04cc00e 	sub	ip, ip, lr
    8484:	e35c0e27 	cmp	ip, #624	; 0x270
    8488:	9afffffb 	bls	847c <neopix_sendpixel+0x12c>
    848c:	eaffffec 	b	8444 <neopix_sendpixel+0xf4>
    8490:	ee1f4f3c 	mrc	15, 0, r4, cr15, cr12, {1}
    8494:	e582001c 	str	r0, [r2, #28]
    8498:	ee1fef3c 	mrc	15, 0, lr, cr15, cr12, {1}
    849c:	e04ee004 	sub	lr, lr, r4
    84a0:	e35e00ef 	cmp	lr, #239, 0	; 0xef
    84a4:	9afffffb 	bls	8498 <neopix_sendpixel+0x148>
    84a8:	ee1f4f3c 	mrc	15, 0, r4, cr15, cr12, {1}
    84ac:	e5820028 	str	r0, [r2, #40]	; 0x28
    84b0:	ee1fef3c 	mrc	15, 0, lr, cr15, cr12, {1}
    84b4:	e04ee004 	sub	lr, lr, r4
    84b8:	e35e0e27 	cmp	lr, #624	; 0x270
    84bc:	9afffffb 	bls	84b0 <neopix_sendpixel+0x160>
    84c0:	e28cc001 	add	ip, ip, #1, 0
    84c4:	e35c0008 	cmp	ip, #8, 0
    84c8:	1affffba 	bne	83b8 <neopix_sendpixel+0x68>
    84cc:	eaffffcb 	b	8400 <neopix_sendpixel+0xb0>
    84d0:	ee1f5f3c 	mrc	15, 0, r5, cr15, cr12, {1}
    84d4:	e58c001c 	str	r0, [ip, #28]
    84d8:	ee1f4f3c 	mrc	15, 0, r4, cr15, cr12, {1}
    84dc:	e0444005 	sub	r4, r4, r5
    84e0:	e35400ef 	cmp	r4, #239, 0	; 0xef
    84e4:	9afffffb 	bls	84d8 <neopix_sendpixel+0x188>
    84e8:	ee1f5f3c 	mrc	15, 0, r5, cr15, cr12, {1}
    84ec:	e58c0028 	str	r0, [ip, #40]	; 0x28
    84f0:	ee1f4f3c 	mrc	15, 0, r4, cr15, cr12, {1}
    84f4:	e0444005 	sub	r4, r4, r5
    84f8:	e3540e27 	cmp	r4, #624	; 0x270
    84fc:	9afffffb 	bls	84f0 <neopix_sendpixel+0x1a0>
    8500:	e28ee001 	add	lr, lr, #1, 0
    8504:	e35e0008 	cmp	lr, #8, 0
    8508:	1affff96 	bne	8368 <neopix_sendpixel+0x18>
    850c:	eaffffa7 	b	83b0 <neopix_sendpixel+0x60>
    8510:	20200000 	eorcs	r0, r0, r0
    8514:	e320f000 	nop	{0}
    8518:	e320f000 	nop	{0}
    851c:	e320f000 	nop	{0}

00008520 <neopix_fast_clear>:
    8520:	e3510000 	cmp	r1, #0, 0
    8524:	0a000037 	beq	8608 <neopix_fast_clear+0xe8>
    8528:	e3a0c001 	mov	ip, #1, 0
    852c:	e92d4030 	push	{r4, r5, lr}
    8530:	e3a0e000 	mov	lr, #0, 0
    8534:	e5d03000 	ldrb	r3, [r0]
    8538:	e59f20cc 	ldr	r2, [pc, #204]	; 860c <neopix_fast_clear+0xec>
    853c:	e1a0331c 	lsl	r3, ip, r3
    8540:	e3a04008 	mov	r4, #8, 0
    8544:	ee1f5f3c 	mrc	15, 0, r5, cr15, cr12, {1}
    8548:	e582301c 	str	r3, [r2, #28]
    854c:	ee1fcf3c 	mrc	15, 0, ip, cr15, cr12, {1}
    8550:	e04cc005 	sub	ip, ip, r5
    8554:	e35c00ef 	cmp	ip, #239, 0	; 0xef
    8558:	9afffffb 	bls	854c <neopix_fast_clear+0x2c>
    855c:	ee1f5f3c 	mrc	15, 0, r5, cr15, cr12, {1}
    8560:	e5823028 	str	r3, [r2, #40]	; 0x28
    8564:	ee1fcf3c 	mrc	15, 0, ip, cr15, cr12, {1}
    8568:	e04cc005 	sub	ip, ip, r5
    856c:	e35c0e27 	cmp	ip, #624	; 0x270
    8570:	9afffffb 	bls	8564 <neopix_fast_clear+0x44>
    8574:	e2544001 	subs	r4, r4, #1, 0
    8578:	1afffff1 	bne	8544 <neopix_fast_clear+0x24>
    857c:	e3a04008 	mov	r4, #8, 0
    8580:	ee1f5f3c 	mrc	15, 0, r5, cr15, cr12, {1}
    8584:	e582301c 	str	r3, [r2, #28]
    8588:	ee1fcf3c 	mrc	15, 0, ip, cr15, cr12, {1}
    858c:	e04cc005 	sub	ip, ip, r5
    8590:	e35c00ef 	cmp	ip, #239, 0	; 0xef
    8594:	9afffffb 	bls	8588 <neopix_fast_clear+0x68>
    8598:	ee1f5f3c 	mrc	15, 0, r5, cr15, cr12, {1}
    859c:	e5823028 	str	r3, [r2, #40]	; 0x28
    85a0:	ee1fcf3c 	mrc	15, 0, ip, cr15, cr12, {1}
    85a4:	e04cc005 	sub	ip, ip, r5
    85a8:	e35c0e27 	cmp	ip, #624	; 0x270
    85ac:	9afffffb 	bls	85a0 <neopix_fast_clear+0x80>
    85b0:	e2544001 	subs	r4, r4, #1, 0
    85b4:	1afffff1 	bne	8580 <neopix_fast_clear+0x60>
    85b8:	e3a04008 	mov	r4, #8, 0
    85bc:	ee1f5f3c 	mrc	15, 0, r5, cr15, cr12, {1}
    85c0:	e582301c 	str	r3, [r2, #28]
    85c4:	ee1fcf3c 	mrc	15, 0, ip, cr15, cr12, {1}
    85c8:	e04cc005 	sub	ip, ip, r5
    85cc:	e35c00ef 	cmp	ip, #239, 0	; 0xef
    85d0:	9afffffb 	bls	85c4 <neopix_fast_clear+0xa4>
    85d4:	ee1f5f3c 	mrc	15, 0, r5, cr15, cr12, {1}
    85d8:	e5823028 	str	r3, [r2, #40]	; 0x28
    85dc:	ee1fcf3c 	mrc	15, 0, ip, cr15, cr12, {1}
    85e0:	e04cc005 	sub	ip, ip, r5
    85e4:	e35c0e27 	cmp	ip, #624	; 0x270
    85e8:	9afffffb 	bls	85dc <neopix_fast_clear+0xbc>
    85ec:	e2544001 	subs	r4, r4, #1, 0
    85f0:	1afffff1 	bne	85bc <neopix_fast_clear+0x9c>
    85f4:	e28ee001 	add	lr, lr, #1, 0
    85f8:	e15e0001 	cmp	lr, r1
    85fc:	1affffcf 	bne	8540 <neopix_fast_clear+0x20>
    8600:	e8bd4030 	pop	{r4, r5, lr}
    8604:	eafffeb5 	b	80e0 <neopix_flush>
    8608:	eafffeb4 	b	80e0 <neopix_flush>
    860c:	20200000 	eorcs	r0, r0, r0

00008610 <neopix_clear>:
    8610:	e92d4030 	push	{r4, r5, lr}
    8614:	e5904004 	ldr	r4, [r0, #4]
    8618:	e3540000 	cmp	r4, #0, 0
    861c:	0a000034 	beq	86f4 <neopix_clear+0xe4>
    8620:	e3a01001 	mov	r1, #1, 0
    8624:	e3a0e000 	mov	lr, #0, 0
    8628:	e5d03000 	ldrb	r3, [r0]
    862c:	e59f20c8 	ldr	r2, [pc, #200]	; 86fc <neopix_clear+0xec>
    8630:	e1a03311 	lsl	r3, r1, r3
    8634:	e3a01008 	mov	r1, #8, 0
    8638:	ee1f5f3c 	mrc	15, 0, r5, cr15, cr12, {1}
    863c:	e582301c 	str	r3, [r2, #28]
    8640:	ee1fcf3c 	mrc	15, 0, ip, cr15, cr12, {1}
    8644:	e04cc005 	sub	ip, ip, r5
    8648:	e35c00ef 	cmp	ip, #239, 0	; 0xef
    864c:	9afffffb 	bls	8640 <neopix_clear+0x30>
    8650:	ee1f5f3c 	mrc	15, 0, r5, cr15, cr12, {1}
    8654:	e5823028 	str	r3, [r2, #40]	; 0x28
    8658:	ee1fcf3c 	mrc	15, 0, ip, cr15, cr12, {1}
    865c:	e04cc005 	sub	ip, ip, r5
    8660:	e35c0e27 	cmp	ip, #624	; 0x270
    8664:	9afffffb 	bls	8658 <neopix_clear+0x48>
    8668:	e2511001 	subs	r1, r1, #1, 0
    866c:	1afffff1 	bne	8638 <neopix_clear+0x28>
    8670:	e3a01008 	mov	r1, #8, 0
    8674:	ee1f5f3c 	mrc	15, 0, r5, cr15, cr12, {1}
    8678:	e582301c 	str	r3, [r2, #28]
    867c:	ee1fcf3c 	mrc	15, 0, ip, cr15, cr12, {1}
    8680:	e04cc005 	sub	ip, ip, r5
    8684:	e35c00ef 	cmp	ip, #239, 0	; 0xef
    8688:	9afffffb 	bls	867c <neopix_clear+0x6c>
    868c:	ee1f5f3c 	mrc	15, 0, r5, cr15, cr12, {1}
    8690:	e5823028 	str	r3, [r2, #40]	; 0x28
    8694:	ee1fcf3c 	mrc	15, 0, ip, cr15, cr12, {1}
    8698:	e04cc005 	sub	ip, ip, r5
    869c:	e35c0e27 	cmp	ip, #624	; 0x270
    86a0:	9afffffb 	bls	8694 <neopix_clear+0x84>
    86a4:	e2511001 	subs	r1, r1, #1, 0
    86a8:	1afffff1 	bne	8674 <neopix_clear+0x64>
    86ac:	e3a01008 	mov	r1, #8, 0
    86b0:	ee1f5f3c 	mrc	15, 0, r5, cr15, cr12, {1}
    86b4:	e582301c 	str	r3, [r2, #28]
    86b8:	ee1fcf3c 	mrc	15, 0, ip, cr15, cr12, {1}
    86bc:	e04cc005 	sub	ip, ip, r5
    86c0:	e35c00ef 	cmp	ip, #239, 0	; 0xef
    86c4:	9afffffb 	bls	86b8 <neopix_clear+0xa8>
    86c8:	ee1f5f3c 	mrc	15, 0, r5, cr15, cr12, {1}
    86cc:	e5823028 	str	r3, [r2, #40]	; 0x28
    86d0:	ee1fcf3c 	mrc	15, 0, ip, cr15, cr12, {1}
    86d4:	e04cc005 	sub	ip, ip, r5
    86d8:	e35c0e27 	cmp	ip, #624	; 0x270
    86dc:	9afffffb 	bls	86d0 <neopix_clear+0xc0>
    86e0:	e2511001 	subs	r1, r1, #1, 0
    86e4:	1afffff1 	bne	86b0 <neopix_clear+0xa0>
    86e8:	e28ee001 	add	lr, lr, #1, 0
    86ec:	e15e0004 	cmp	lr, r4
    86f0:	1affffcf 	bne	8634 <neopix_clear+0x24>
    86f4:	e8bd4030 	pop	{r4, r5, lr}
    86f8:	eafffe78 	b	80e0 <neopix_flush>
    86fc:	20200000 	eorcs	r0, r0, r0

00008700 <neopix_write>:
    8700:	e3510000 	cmp	r1, #0, 0
    8704:	a0811081 	addge	r1, r1, r1, lsl #1
    8708:	e5ddc000 	ldrb	ip, [sp]
    870c:	a0801001 	addge	r1, r0, r1
    8710:	a5c12008 	strbge	r2, [r1, #8]
    8714:	a5c13009 	strbge	r3, [r1, #9]
    8718:	a5c1c00a 	strbge	ip, [r1, #10]
    871c:	e12fff1e 	bx	lr

00008720 <gpio_set_function>:
    8720:	e350001f 	cmp	r0, #31, 0
    8724:	812fff1e 	bxhi	lr
    8728:	e3d13007 	bics	r3, r1, #7, 0
    872c:	e92d4070 	push	{r4, r5, r6, lr}
    8730:	e1a05001 	mov	r5, r1
    8734:	18bd8070 	popne	{r4, r5, r6, pc}
    8738:	e59f3040 	ldr	r3, [pc, #64]	; 8780 <gpio_set_function+0x60>
    873c:	e0832093 	umull	r2, r3, r3, r0
    8740:	e1a031a3 	lsr	r3, r3, #3
    8744:	e2832302 	add	r2, r3, #134217728	; 0x8000000
    8748:	e2822702 	add	r2, r2, #524288	; 0x80000
    874c:	e1a06102 	lsl	r6, r2, #2
    8750:	e0833103 	add	r3, r3, r3, lsl #2
    8754:	e0404083 	sub	r4, r0, r3, lsl #1
    8758:	e1a00006 	mov	r0, r6
    875c:	ebfffe32 	bl	802c <GET32>
    8760:	e3a03007 	mov	r3, #7, 0
    8764:	e1a01000 	mov	r1, r0
    8768:	e0844084 	add	r4, r4, r4, lsl #1
    876c:	e1c11413 	bic	r1, r1, r3, lsl r4
    8770:	e1a00006 	mov	r0, r6
    8774:	e1811415 	orr	r1, r1, r5, lsl r4
    8778:	e8bd4070 	pop	{r4, r5, r6, lr}
    877c:	eafffe28 	b	8024 <PUT32>
    8780:	cccccccd 	stclgt	12, cr12, [ip], {205}	; 0xcd

00008784 <gpio_set_output>:
    8784:	e350001f 	cmp	r0, #31, 0
    8788:	812fff1e 	bxhi	lr
    878c:	e59f3048 	ldr	r3, [pc, #72]	; 87dc <gpio_set_output+0x58>
    8790:	e92d4070 	push	{r4, r5, r6, lr}
    8794:	e0832093 	umull	r2, r3, r3, r0
    8798:	e1a031a3 	lsr	r3, r3, #3
    879c:	e2832302 	add	r2, r3, #134217728	; 0x8000000
    87a0:	e2822702 	add	r2, r2, #524288	; 0x80000
    87a4:	e1a05102 	lsl	r5, r2, #2
    87a8:	e0833103 	add	r3, r3, r3, lsl #2
    87ac:	e0404083 	sub	r4, r0, r3, lsl #1
    87b0:	e1a00005 	mov	r0, r5
    87b4:	ebfffe1c 	bl	802c <GET32>
    87b8:	e3a02007 	mov	r2, #7, 0
    87bc:	e1a03000 	mov	r3, r0
    87c0:	e3a01001 	mov	r1, #1, 0
    87c4:	e0844084 	add	r4, r4, r4, lsl #1
    87c8:	e1c33412 	bic	r3, r3, r2, lsl r4
    87cc:	e1a00005 	mov	r0, r5
    87d0:	e1831411 	orr	r1, r3, r1, lsl r4
    87d4:	e8bd4070 	pop	{r4, r5, r6, lr}
    87d8:	eafffe11 	b	8024 <PUT32>
    87dc:	cccccccd 	stclgt	12, cr12, [ip], {205}	; 0xcd

000087e0 <gpio_set_on>:
    87e0:	e1a03000 	mov	r3, r0
    87e4:	e3a01001 	mov	r1, #1, 0
    87e8:	e59f0004 	ldr	r0, [pc, #4]	; 87f4 <gpio_set_on+0x14>
    87ec:	e1a01311 	lsl	r1, r1, r3
    87f0:	eafffe0b 	b	8024 <PUT32>
    87f4:	2020001c 	eorcs	r0, r0, ip, lsl r0

000087f8 <gpio_set_off>:
    87f8:	e1a03000 	mov	r3, r0
    87fc:	e3a01001 	mov	r1, #1, 0
    8800:	e59f0004 	ldr	r0, [pc, #4]	; 880c <gpio_set_off+0x14>
    8804:	e1a01311 	lsl	r1, r1, r3
    8808:	eafffe05 	b	8024 <PUT32>
    880c:	20200028 	eorcs	r0, r0, r8, lsr #32

00008810 <gpio_set_input>:
    8810:	e350001f 	cmp	r0, #31, 0
    8814:	812fff1e 	bxhi	lr
    8818:	e92d4070 	push	{r4, r5, r6, lr}
    881c:	e59f5040 	ldr	r5, [pc, #64]	; 8864 <gpio_set_input+0x54>
    8820:	e1a04000 	mov	r4, r0
    8824:	e0853095 	umull	r3, r5, r5, r0
    8828:	e1a051a5 	lsr	r5, r5, #3
    882c:	e2850302 	add	r0, r5, #134217728	; 0x8000000
    8830:	e2800702 	add	r0, r0, #524288	; 0x80000
    8834:	e1a06100 	lsl	r6, r0, #2
    8838:	e1a00006 	mov	r0, r6
    883c:	ebfffdfa 	bl	802c <GET32>
    8840:	e3a01007 	mov	r1, #7, 0
    8844:	e1a03000 	mov	r3, r0
    8848:	e0855105 	add	r5, r5, r5, lsl #2
    884c:	e0444085 	sub	r4, r4, r5, lsl #1
    8850:	e0844084 	add	r4, r4, r4, lsl #1
    8854:	e1a00006 	mov	r0, r6
    8858:	e1c31411 	bic	r1, r3, r1, lsl r4
    885c:	e8bd4070 	pop	{r4, r5, r6, lr}
    8860:	eafffdef 	b	8024 <PUT32>
    8864:	cccccccd 	stclgt	12, cr12, [ip], {205}	; 0xcd

00008868 <gpio_write>:
    8868:	e3510000 	cmp	r1, #0, 0
    886c:	e3a03001 	mov	r3, #1, 0
    8870:	e1a01000 	mov	r1, r0
    8874:	0a000002 	beq	8884 <gpio_write+0x1c>
    8878:	e59f0010 	ldr	r0, [pc, #16]	; 8890 <gpio_write+0x28>
    887c:	e1a01113 	lsl	r1, r3, r1
    8880:	eafffde7 	b	8024 <PUT32>
    8884:	e59f0008 	ldr	r0, [pc, #8]	; 8894 <gpio_write+0x2c>
    8888:	e1a01113 	lsl	r1, r3, r1
    888c:	eafffde4 	b	8024 <PUT32>
    8890:	2020001c 	eorcs	r0, r0, ip, lsl r0
    8894:	20200028 	eorcs	r0, r0, r8, lsr #32

00008898 <gpio_read>:
    8898:	e59f301c 	ldr	r3, [pc, #28]	; 88bc <gpio_read+0x24>
    889c:	e92d4010 	push	{r4, lr}
    88a0:	e1a04000 	mov	r4, r0
    88a4:	e08302a0 	add	r0, r3, r0, lsr #5
    88a8:	ebfffddf 	bl	802c <GET32>
    88ac:	e204401f 	and	r4, r4, #31, 0
    88b0:	e1a00430 	lsr	r0, r0, r4
    88b4:	e2000001 	and	r0, r0, #1, 0
    88b8:	e8bd8010 	pop	{r4, pc}
    88bc:	20200034 	eorcs	r0, r0, r4, lsr r0

000088c0 <memset>:
    88c0:	e92d4010 	push	{r4, lr}
    88c4:	e0804002 	add	r4, r0, r2
    88c8:	e1500004 	cmp	r0, r4
    88cc:	28bd8010 	popcs	{r4, pc}
    88d0:	e2423001 	sub	r3, r2, #1, 0
    88d4:	e3530002 	cmp	r3, #2, 0
    88d8:	e6ef1071 	uxtb	r1, r1
    88dc:	e1a03000 	mov	r3, r0
    88e0:	9a00000b 	bls	8914 <memset+0x54>
    88e4:	e181e401 	orr	lr, r1, r1, lsl #8
    88e8:	e18ee801 	orr	lr, lr, r1, lsl #16
    88ec:	e3c2c003 	bic	ip, r2, #3, 0
    88f0:	e18eec01 	orr	lr, lr, r1, lsl #24
    88f4:	e08cc000 	add	ip, ip, r0
    88f8:	e483e004 	str	lr, [r3], #4
    88fc:	e153000c 	cmp	r3, ip
    8900:	1afffffc 	bne	88f8 <memset+0x38>
    8904:	e3c23003 	bic	r3, r2, #3, 0
    8908:	e1520003 	cmp	r2, r3
    890c:	e0803003 	add	r3, r0, r3
    8910:	08bd8010 	popeq	{r4, pc}
    8914:	e1a02003 	mov	r2, r3
    8918:	e4c21001 	strb	r1, [r2], #1
    891c:	e1540002 	cmp	r4, r2
    8920:	98bd8010 	popls	{r4, pc}
    8924:	e2832002 	add	r2, r3, #2, 0
    8928:	e1540002 	cmp	r4, r2
    892c:	e5c31001 	strb	r1, [r3, #1]
    8930:	85c31002 	strbhi	r1, [r3, #2]
    8934:	e8bd8010 	pop	{r4, pc}

00008938 <printk>:
    8938:	e92d000f 	push	{r0, r1, r2, r3}
    893c:	e92d4030 	push	{r4, r5, lr}
    8940:	e59f5040 	ldr	r5, [pc, #64]	; 8988 <printk+0x50>
    8944:	e24dd00c 	sub	sp, sp, #12, 0
    8948:	e28d301c 	add	r3, sp, #28, 0
    894c:	e3a01b01 	mov	r1, #1024	; 0x400
    8950:	e59d2018 	ldr	r2, [sp, #24]
    8954:	e1a00005 	mov	r0, r5
    8958:	e58d3004 	str	r3, [sp, #4]
    895c:	eb0000fb 	bl	8d50 <va_printk>
    8960:	e1a04000 	mov	r4, r0
    8964:	e59f3020 	ldr	r3, [pc, #32]	; 898c <printk+0x54>
    8968:	e1a00005 	mov	r0, r5
    896c:	e5933000 	ldr	r3, [r3]
    8970:	e12fff33 	blx	r3
    8974:	e1a00004 	mov	r0, r4
    8978:	e28dd00c 	add	sp, sp, #12, 0
    897c:	e8bd4030 	pop	{r4, r5, lr}
    8980:	e28dd010 	add	sp, sp, #16, 0
    8984:	e12fff1e 	bx	lr
    8988:	0000a0cc 	andeq	sl, r0, ip, asr #1
    898c:	0000a0b8 	strheq	sl, [r0], -r8

00008990 <internal_putk>:
    8990:	e92d4070 	push	{r4, r5, r6, lr}
    8994:	e1a04000 	mov	r4, r0
    8998:	e5d00000 	ldrb	r0, [r0]
    899c:	e3500000 	cmp	r0, #0, 0
    89a0:	0a000005 	beq	89bc <internal_putk+0x2c>
    89a4:	e59f5018 	ldr	r5, [pc, #24]	; 89c4 <internal_putk+0x34>
    89a8:	e5953000 	ldr	r3, [r5]
    89ac:	e12fff33 	blx	r3
    89b0:	e5f40001 	ldrb	r0, [r4, #1]!
    89b4:	e3500000 	cmp	r0, #0, 0
    89b8:	1afffffa 	bne	89a8 <internal_putk+0x18>
    89bc:	e3a00001 	mov	r0, #1, 0
    89c0:	e8bd8070 	pop	{r4, r5, r6, pc}
    89c4:	0000a0c8 	andeq	sl, r0, r8, asr #1

000089c8 <emit.constprop.0>:
    89c8:	e92d41f0 	push	{r4, r5, r6, r7, r8, lr}
    89cc:	e3530080 	cmp	r3, #128, 0	; 0x80
    89d0:	e1a0c000 	mov	ip, r0
    89d4:	e24dd048 	sub	sp, sp, #72, 0	; 0x48
    89d8:	e1a00001 	mov	r0, r1
    89dc:	ca000069 	bgt	8b88 <emit.constprop.0+0x1c0>
    89e0:	e24c1002 	sub	r1, ip, #2, 0
    89e4:	e1a0c002 	mov	ip, r2
    89e8:	e351000e 	cmp	r1, #14, 0
    89ec:	979ff101 	ldrls	pc, [pc, r1, lsl #2]
    89f0:	ea0000a7 	b	8c94 <emit.constprop.0+0x2cc>
    89f4:	00008b60 	andeq	r8, r0, r0, ror #22
    89f8:	00008c94 	muleq	r0, r4, ip
    89fc:	00008c94 	muleq	r0, r4, ip
    8a00:	00008c94 	muleq	r0, r4, ip
    8a04:	00008c94 	muleq	r0, r4, ip
    8a08:	00008c94 	muleq	r0, r4, ip
    8a0c:	00008c3c 	andeq	r8, r0, ip, lsr ip
    8a10:	00008c94 	muleq	r0, r4, ip
    8a14:	00008bdc 	ldrdeq	r8, [r0], -ip
    8a18:	00008c94 	muleq	r0, r4, ip
    8a1c:	00008c94 	muleq	r0, r4, ip
    8a20:	00008c94 	muleq	r0, r4, ip
    8a24:	00008c94 	muleq	r0, r4, ip
    8a28:	00008c94 	muleq	r0, r4, ip
    8a2c:	00008a34 	andeq	r8, r0, r4, lsr sl
    8a30:	e3a0307f 	mov	r3, #127, 0	; 0x7f
    8a34:	e28d2008 	add	r2, sp, #8, 0
    8a38:	e1a04002 	mov	r4, r2
    8a3c:	e59f1288 	ldr	r1, [pc, #648]	; 8ccc <emit.constprop.0+0x304>
    8a40:	e20ce00f 	and	lr, ip, #15, 0
    8a44:	e7d1e00e 	ldrb	lr, [r1, lr]
    8a48:	e35c000f 	cmp	ip, #15, 0
    8a4c:	e4c4e001 	strb	lr, [r4], #1
    8a50:	e1a0c22c 	lsr	ip, ip, #4
    8a54:	8afffff9 	bhi	8a40 <emit.constprop.0+0x78>
    8a58:	e3a0c078 	mov	ip, #120, 0	; 0x78
    8a5c:	e1a0e004 	mov	lr, r4
    8a60:	e3a01030 	mov	r1, #48, 0	; 0x30
    8a64:	e4cec002 	strb	ip, [lr], #2
    8a68:	e5c41001 	strb	r1, [r4, #1]
    8a6c:	e04e1002 	sub	r1, lr, r2
    8a70:	e1510003 	cmp	r1, r3
    8a74:	aa000083 	bge	8c88 <emit.constprop.0+0x2c0>
    8a78:	e1510003 	cmp	r1, r3
    8a7c:	a3a0c001 	movge	ip, #1, 0
    8a80:	b3a0c000 	movlt	ip, #0, 0
    8a84:	e2434001 	sub	r4, r3, #1, 0
    8a88:	e0444001 	sub	r4, r4, r1
    8a8c:	b0436001 	sublt	r6, r3, r1
    8a90:	a3a06001 	movge	r6, #1, 0
    8a94:	e3540002 	cmp	r4, #2, 0
    8a98:	938cc001 	orrls	ip, ip, #1, 0
    8a9c:	e35c0000 	cmp	ip, #0, 0
    8aa0:	1a000075 	bne	8c7c <emit.constprop.0+0x2b4>
    8aa4:	e1a0c00e 	mov	ip, lr
    8aa8:	e3c65003 	bic	r5, r6, #3, 0
    8aac:	e59f721c 	ldr	r7, [pc, #540]	; 8cd0 <emit.constprop.0+0x308>
    8ab0:	e085500e 	add	r5, r5, lr
    8ab4:	e48c7004 	str	r7, [ip], #4
    8ab8:	e15c0005 	cmp	ip, r5
    8abc:	1afffffc 	bne	8ab4 <emit.constprop.0+0xec>
    8ac0:	e3c6c003 	bic	ip, r6, #3, 0
    8ac4:	e156000c 	cmp	r6, ip
    8ac8:	e08e500c 	add	r5, lr, ip
    8acc:	e08cc001 	add	ip, ip, r1
    8ad0:	0a000008 	beq	8af8 <emit.constprop.0+0x130>
    8ad4:	e3a07020 	mov	r7, #32, 0
    8ad8:	e28c8001 	add	r8, ip, #1, 0
    8adc:	e1580003 	cmp	r8, r3
    8ae0:	e5c57000 	strb	r7, [r5]
    8ae4:	aa000003 	bge	8af8 <emit.constprop.0+0x130>
    8ae8:	e28cc002 	add	ip, ip, #2, 0
    8aec:	e15c0003 	cmp	ip, r3
    8af0:	e5c57001 	strb	r7, [r5, #1]
    8af4:	b5c57002 	strblt	r7, [r5, #2]
    8af8:	e1510003 	cmp	r1, r3
    8afc:	a3a04000 	movge	r4, #0, 0
    8b00:	e08e6006 	add	r6, lr, r6
    8b04:	e0461002 	sub	r1, r6, r2
    8b08:	e08ee004 	add	lr, lr, r4
    8b0c:	e3a03000 	mov	r3, #0, 0
    8b10:	e351007f 	cmp	r1, #127, 0	; 0x7f
    8b14:	c241407f 	subgt	r4, r1, #127, 0	; 0x7f
    8b18:	c0822004 	addgt	r2, r2, r4
    8b1c:	e152000e 	cmp	r2, lr
    8b20:	e5c63000 	strb	r3, [r6]
    8b24:	8a00004f 	bhi	8c68 <emit.constprop.0+0x2a0>
    8b28:	e28ee001 	add	lr, lr, #1, 0
    8b2c:	e1a0300e 	mov	r3, lr
    8b30:	e240c001 	sub	ip, r0, #1, 0
    8b34:	e5734001 	ldrb	r4, [r3, #-1]!
    8b38:	e1530002 	cmp	r3, r2
    8b3c:	e5ec4001 	strb	r4, [ip, #1]!
    8b40:	1afffffb 	bne	8b34 <emit.constprop.0+0x16c>
    8b44:	e04ee003 	sub	lr, lr, r3
    8b48:	e3a03000 	mov	r3, #0, 0
    8b4c:	e080e00e 	add	lr, r0, lr
    8b50:	e5ce3000 	strb	r3, [lr]
    8b54:	e28dd048 	add	sp, sp, #72, 0	; 0x48
    8b58:	e8bd81f0 	pop	{r4, r5, r6, r7, r8, pc}
    8b5c:	e3a0307f 	mov	r3, #127, 0	; 0x7f
    8b60:	e28d2008 	add	r2, sp, #8, 0
    8b64:	e1a0e002 	mov	lr, r2
    8b68:	e59f1164 	ldr	r1, [pc, #356]	; 8cd4 <emit.constprop.0+0x30c>
    8b6c:	e20c4001 	and	r4, ip, #1, 0
    8b70:	e7d14004 	ldrb	r4, [r1, r4]
    8b74:	e35c0001 	cmp	ip, #1, 0
    8b78:	e4ce4001 	strb	r4, [lr], #1
    8b7c:	e1a0c0ac 	lsr	ip, ip, #1
    8b80:	8afffff9 	bhi	8b6c <emit.constprop.0+0x1a4>
    8b84:	eaffffb8 	b	8a6c <emit.constprop.0+0xa4>
    8b88:	e24c3002 	sub	r3, ip, #2, 0
    8b8c:	e1a0c002 	mov	ip, r2
    8b90:	e353000e 	cmp	r3, #14, 0
    8b94:	979ff103 	ldrls	pc, [pc, r3, lsl #2]
    8b98:	ea00003d 	b	8c94 <emit.constprop.0+0x2cc>
    8b9c:	00008b5c 	andeq	r8, r0, ip, asr fp
    8ba0:	00008c94 	muleq	r0, r4, ip
    8ba4:	00008c94 	muleq	r0, r4, ip
    8ba8:	00008c94 	muleq	r0, r4, ip
    8bac:	00008c94 	muleq	r0, r4, ip
    8bb0:	00008c94 	muleq	r0, r4, ip
    8bb4:	00008cb4 			; <UNDEFINED> instruction: 0x00008cb4
    8bb8:	00008c94 	muleq	r0, r4, ip
    8bbc:	00008bd8 	ldrdeq	r8, [r0], -r8	; <UNPREDICTABLE>
    8bc0:	00008c94 	muleq	r0, r4, ip
    8bc4:	00008c94 	muleq	r0, r4, ip
    8bc8:	00008c94 	muleq	r0, r4, ip
    8bcc:	00008c94 	muleq	r0, r4, ip
    8bd0:	00008c94 	muleq	r0, r4, ip
    8bd4:	00008a30 	andeq	r8, r0, r0, lsr sl
    8bd8:	e3a0307f 	mov	r3, #127, 0	; 0x7f
    8bdc:	e59d1060 	ldr	r1, [sp, #96]	; 0x60
    8be0:	e59f70f0 	ldr	r7, [pc, #240]	; 8cd8 <emit.constprop.0+0x310>
    8be4:	e0118fa2 	ands	r8, r1, r2, lsr #31
    8be8:	1262c000 	rsbne	ip, r2, #0, 0
    8bec:	e28d2008 	add	r2, sp, #8, 0
    8bf0:	13a08001 	movne	r8, #1, 0
    8bf4:	e1a0e002 	mov	lr, r2
    8bf8:	e59f60dc 	ldr	r6, [pc, #220]	; 8cdc <emit.constprop.0+0x314>
    8bfc:	e1a0500c 	mov	r5, ip
    8c00:	e0814c96 	umull	r4, r1, r6, ip
    8c04:	e1a011a1 	lsr	r1, r1, #3
    8c08:	e0814101 	add	r4, r1, r1, lsl #2
    8c0c:	e04cc084 	sub	ip, ip, r4, lsl #1
    8c10:	e7d7400c 	ldrb	r4, [r7, ip]
    8c14:	e3550009 	cmp	r5, #9, 0
    8c18:	e1a0c001 	mov	ip, r1
    8c1c:	e1a0100e 	mov	r1, lr
    8c20:	e4ce4001 	strb	r4, [lr], #1
    8c24:	8afffff4 	bhi	8bfc <emit.constprop.0+0x234>
    8c28:	e3580000 	cmp	r8, #0, 0
    8c2c:	13a0c02d 	movne	ip, #45, 0	; 0x2d
    8c30:	15cec000 	strbne	ip, [lr]
    8c34:	1281e002 	addne	lr, r1, #2, 0
    8c38:	eaffff8b 	b	8a6c <emit.constprop.0+0xa4>
    8c3c:	e3530001 	cmp	r3, #1, 0
    8c40:	e5cd2008 	strb	r2, [sp, #8]
    8c44:	c3a01001 	movgt	r1, #1, 0
    8c48:	c28de009 	addgt	lr, sp, #9, 0
    8c4c:	c28d2008 	addgt	r2, sp, #8, 0
    8c50:	caffff88 	bgt	8a78 <emit.constprop.0+0xb0>
    8c54:	e3a03000 	mov	r3, #0, 0
    8c58:	e28de008 	add	lr, sp, #8, 0
    8c5c:	e1a0200e 	mov	r2, lr
    8c60:	e5cd3009 	strb	r3, [sp, #9]
    8c64:	eaffffaf 	b	8b28 <emit.constprop.0+0x160>
    8c68:	e1a0e000 	mov	lr, r0
    8c6c:	e3a03000 	mov	r3, #0, 0
    8c70:	e5ce3000 	strb	r3, [lr]
    8c74:	e28dd048 	add	sp, sp, #72, 0	; 0x48
    8c78:	e8bd81f0 	pop	{r4, r5, r6, r7, r8, pc}
    8c7c:	e1a0c001 	mov	ip, r1
    8c80:	e1a0500e 	mov	r5, lr
    8c84:	eaffff92 	b	8ad4 <emit.constprop.0+0x10c>
    8c88:	e1a0600e 	mov	r6, lr
    8c8c:	e24ee001 	sub	lr, lr, #1, 0
    8c90:	eaffff9d 	b	8b0c <emit.constprop.0+0x144>
    8c94:	e59f2044 	ldr	r2, [pc, #68]	; 8ce0 <emit.constprop.0+0x318>
    8c98:	e3a03079 	mov	r3, #121, 0	; 0x79
    8c9c:	e59f1040 	ldr	r1, [pc, #64]	; 8ce4 <emit.constprop.0+0x31c>
    8ca0:	e58d2000 	str	r2, [sp]
    8ca4:	e59f003c 	ldr	r0, [pc, #60]	; 8ce8 <emit.constprop.0+0x320>
    8ca8:	e59f203c 	ldr	r2, [pc, #60]	; 8cec <emit.constprop.0+0x324>
    8cac:	ebffff21 	bl	8938 <printk>
    8cb0:	eb0001b9 	bl	939c <clean_reboot>
    8cb4:	e5cd2008 	strb	r2, [sp, #8]
    8cb8:	e3a0307f 	mov	r3, #127, 0	; 0x7f
    8cbc:	e3a01001 	mov	r1, #1, 0
    8cc0:	e28de009 	add	lr, sp, #9, 0
    8cc4:	e28d2008 	add	r2, sp, #8, 0
    8cc8:	eaffff6a 	b	8a78 <emit.constprop.0+0xb0>
    8ccc:	00009d60 	andeq	r9, r0, r0, ror #26
    8cd0:	20202020 	eorcs	r2, r0, r0, lsr #32
    8cd4:	00009d74 	andeq	r9, r0, r4, ror sp
    8cd8:	00009d78 	andeq	r9, r0, r8, ror sp
    8cdc:	cccccccd 	stclgt	12, cr12, [ip], {205}	; 0xcd
    8ce0:	00009d5c 	andeq	r9, r0, ip, asr sp
    8ce4:	00009d34 	andeq	r9, r0, r4, lsr sp
    8ce8:	00009d48 	andeq	r9, r0, r8, asr #26
    8cec:	00009e8c 	andeq	r9, r0, ip, lsl #29

00008cf0 <rpi_set_output>:
    8cf0:	e3500000 	cmp	r0, #0, 0
    8cf4:	0a000005 	beq	8d10 <rpi_set_output+0x20>
    8cf8:	e59f3038 	ldr	r3, [pc, #56]	; 8d38 <rpi_set_output+0x48>
    8cfc:	e3510000 	cmp	r1, #0, 0
    8d00:	e5830000 	str	r0, [r3]
    8d04:	159f3030 	ldrne	r3, [pc, #48]	; 8d3c <rpi_set_output+0x4c>
    8d08:	15831000 	strne	r1, [r3]
    8d0c:	e12fff1e 	bx	lr
    8d10:	e52de004 	push	{lr}		; (str lr, [sp, #-4]!)
    8d14:	e59f2024 	ldr	r2, [pc, #36]	; 8d40 <rpi_set_output+0x50>
    8d18:	e24dd00c 	sub	sp, sp, #12, 0
    8d1c:	e3a03020 	mov	r3, #32, 0
    8d20:	e59f101c 	ldr	r1, [pc, #28]	; 8d44 <rpi_set_output+0x54>
    8d24:	e58d2000 	str	r2, [sp]
    8d28:	e59f0018 	ldr	r0, [pc, #24]	; 8d48 <rpi_set_output+0x58>
    8d2c:	e59f2018 	ldr	r2, [pc, #24]	; 8d4c <rpi_set_output+0x5c>
    8d30:	ebffff00 	bl	8938 <printk>
    8d34:	eb000198 	bl	939c <clean_reboot>
    8d38:	0000a0c8 	andeq	sl, r0, r8, asr #1
    8d3c:	0000a0b8 	strheq	sl, [r0], -r8
    8d40:	00009d84 	andeq	r9, r0, r4, lsl #27
    8d44:	00009d34 	andeq	r9, r0, r4, lsr sp
    8d48:	00009d48 	andeq	r9, r0, r8, asr #26
    8d4c:	00009e94 	muleq	r0, r4, lr

00008d50 <va_printk>:
    8d50:	e92d4ff0 	push	{r4, r5, r6, r7, r8, r9, sl, fp, lr}
    8d54:	e1a0b000 	mov	fp, r0
    8d58:	e3a00000 	mov	r0, #0, 0
    8d5c:	e5cb0000 	strb	r0, [fp]
    8d60:	e5d2c000 	ldrb	ip, [r2]
    8d64:	e2417001 	sub	r7, r1, #1, 0
    8d68:	e08b7007 	add	r7, fp, r7
    8d6c:	e15c0000 	cmp	ip, r0
    8d70:	115b0007 	cmpne	fp, r7
    8d74:	e24ddf47 	sub	sp, sp, #284	; 0x11c
    8d78:	e58d2010 	str	r2, [sp, #16]
    8d7c:	2a000159 	bcs	92e8 <va_printk+0x598>
    8d80:	e1a06002 	mov	r6, r2
    8d84:	e1a08003 	mov	r8, r3
    8d88:	e1a0400b 	mov	r4, fp
    8d8c:	e59fa5a4 	ldr	sl, [pc, #1444]	; 9338 <va_printk+0x5e8>
    8d90:	e58db00c 	str	fp, [sp, #12]
    8d94:	ea000005 	b	8db0 <va_printk+0x60>
    8d98:	e4c4c001 	strb	ip, [r4], #1
    8d9c:	e2866001 	add	r6, r6, #1, 0
    8da0:	e5d6c000 	ldrb	ip, [r6]
    8da4:	e35c0000 	cmp	ip, #0, 0
    8da8:	11570004 	cmpne	r7, r4
    8dac:	9a00002f 	bls	8e70 <va_printk+0x120>
    8db0:	e35c0025 	cmp	ip, #37, 0	; 0x25
    8db4:	1afffff7 	bne	8d98 <va_printk+0x48>
    8db8:	e5d62001 	ldrb	r2, [r6, #1]
    8dbc:	e3520025 	cmp	r2, #37, 0	; 0x25
    8dc0:	04c4c001 	strbeq	ip, [r4], #1
    8dc4:	02866002 	addeq	r6, r6, #2, 0
    8dc8:	0afffff4 	beq	8da0 <va_printk+0x50>
    8dcc:	e2423030 	sub	r3, r2, #48, 0	; 0x30
    8dd0:	e3530009 	cmp	r3, #9, 0
    8dd4:	e3a05000 	mov	r5, #0, 0
    8dd8:	e2866001 	add	r6, r6, #1, 0
    8ddc:	8a000008 	bhi	8e04 <va_printk+0xb4>
    8de0:	e0855105 	add	r5, r5, r5, lsl #2
    8de4:	e0825085 	add	r5, r2, r5, lsl #1
    8de8:	e5f62001 	ldrb	r2, [r6, #1]!
    8dec:	e2455030 	sub	r5, r5, #48, 0	; 0x30
    8df0:	e2423030 	sub	r3, r2, #48, 0	; 0x30
    8df4:	e3530009 	cmp	r3, #9, 0
    8df8:	9afffff8 	bls	8de0 <va_printk+0x90>
    8dfc:	e355001f 	cmp	r5, #31, 0
    8e00:	8a00013a 	bhi	92f0 <va_printk+0x5a0>
    8e04:	e2423062 	sub	r3, r2, #98, 0	; 0x62
    8e08:	e3530016 	cmp	r3, #22, 0
    8e0c:	979ff103 	ldrls	pc, [pc, r3, lsl #2]
    8e10:	ea00011b 	b	9284 <va_printk+0x534>
    8e14:	000090c8 	andeq	r9, r0, r8, asr #1
    8e18:	00008fc4 	andeq	r8, r0, r4, asr #31
    8e1c:	00008fbc 			; <UNDEFINED> instruction: 0x00008fbc
    8e20:	00009284 	andeq	r9, r0, r4, lsl #5
    8e24:	000092c0 	andeq	r9, r0, r0, asr #5
    8e28:	00009284 	andeq	r9, r0, r4, lsl #5
    8e2c:	00009284 	andeq	r9, r0, r4, lsl #5
    8e30:	00009284 	andeq	r9, r0, r4, lsl #5
    8e34:	00009284 	andeq	r9, r0, r4, lsl #5
    8e38:	00009284 	andeq	r9, r0, r4, lsl #5
    8e3c:	00008ecc 	andeq	r8, r0, ip, asr #29
    8e40:	00009284 	andeq	r9, r0, r4, lsl #5
    8e44:	00009284 	andeq	r9, r0, r4, lsl #5
    8e48:	00009284 	andeq	r9, r0, r4, lsl #5
    8e4c:	00008e88 	andeq	r8, r0, r8, lsl #29
    8e50:	00009284 	andeq	r9, r0, r4, lsl #5
    8e54:	00009284 	andeq	r9, r0, r4, lsl #5
    8e58:	000091c0 	andeq	r9, r0, r0, asr #3
    8e5c:	00009284 	andeq	r9, r0, r4, lsl #5
    8e60:	00008f98 	muleq	r0, r8, pc	; <UNPREDICTABLE>
    8e64:	00009284 	andeq	r9, r0, r4, lsl #5
    8e68:	00009284 	andeq	r9, r0, r4, lsl #5
    8e6c:	00008e88 	andeq	r8, r0, r8, lsl #29
    8e70:	e59db00c 	ldr	fp, [sp, #12]
    8e74:	e3a03000 	mov	r3, #0, 0
    8e78:	e4c43001 	strb	r3, [r4], #1
    8e7c:	e044000b 	sub	r0, r4, fp
    8e80:	e28ddf47 	add	sp, sp, #284	; 0x11c
    8e84:	e8bd8ff0 	pop	{r4, r5, r6, r7, r8, r9, sl, fp, pc}
    8e88:	e3a01000 	mov	r1, #0, 0
    8e8c:	e1a03005 	mov	r3, r5
    8e90:	e4982004 	ldr	r2, [r8], #4
    8e94:	e3a00010 	mov	r0, #16, 0
    8e98:	e58d1000 	str	r1, [sp]
    8e9c:	e28d1018 	add	r1, sp, #24, 0
    8ea0:	ebfffec8 	bl	89c8 <emit.constprop.0>
    8ea4:	e1a05000 	mov	r5, r0
    8ea8:	e2866001 	add	r6, r6, #1, 0
    8eac:	e2455001 	sub	r5, r5, #1, 0
    8eb0:	e5f53001 	ldrb	r3, [r5, #1]!
    8eb4:	e3530000 	cmp	r3, #0, 0
    8eb8:	0affffb8 	beq	8da0 <va_printk+0x50>
    8ebc:	e4c43001 	strb	r3, [r4], #1
    8ec0:	e1570004 	cmp	r7, r4
    8ec4:	8afffff9 	bhi	8eb0 <va_printk+0x160>
    8ec8:	eaffffb4 	b	8da0 <va_printk+0x50>
    8ecc:	e3a02003 	mov	r2, #3, 0
    8ed0:	e1a00006 	mov	r0, r6
    8ed4:	e59f1460 	ldr	r1, [pc, #1120]	; 933c <va_printk+0x5ec>
    8ed8:	eb00037c 	bl	9cd0 <strncmp>
    8edc:	e3500000 	cmp	r0, #0, 0
    8ee0:	0a000005 	beq	8efc <va_printk+0x1ac>
    8ee4:	e3a02003 	mov	r2, #3, 0
    8ee8:	e1a00006 	mov	r0, r6
    8eec:	e59f144c 	ldr	r1, [pc, #1100]	; 9340 <va_printk+0x5f0>
    8ef0:	eb000376 	bl	9cd0 <strncmp>
    8ef4:	e3500000 	cmp	r0, #0, 0
    8ef8:	1a00010b 	bne	932c <va_printk+0x5dc>
    8efc:	e2888007 	add	r8, r8, #7, 0
    8f00:	e3c88007 	bic	r8, r8, #7, 0
    8f04:	e598b004 	ldr	fp, [r8, #4]
    8f08:	e4989008 	ldr	r9, [r8], #8
    8f0c:	e1a0100b 	mov	r1, fp
    8f10:	e59f042c 	ldr	r0, [pc, #1068]	; 9344 <va_printk+0x5f4>
    8f14:	ebfffe87 	bl	8938 <printk>
    8f18:	e1a01009 	mov	r1, r9
    8f1c:	e59f0424 	ldr	r0, [pc, #1060]	; 9348 <va_printk+0x5f8>
    8f20:	ebfffe84 	bl	8938 <printk>
    8f24:	e3a02003 	mov	r2, #3, 0
    8f28:	e1a00006 	mov	r0, r6
    8f2c:	e59f1408 	ldr	r1, [pc, #1032]	; 933c <va_printk+0x5ec>
    8f30:	eb000366 	bl	9cd0 <strncmp>
    8f34:	e2503000 	subs	r3, r0, #0, 0
    8f38:	e1a02003 	mov	r2, r3
    8f3c:	e2863002 	add	r3, r6, #2, 0
    8f40:	e58d3014 	str	r3, [sp, #20]
    8f44:	1a00009f 	bne	91c8 <va_printk+0x478>
    8f48:	e1a06002 	mov	r6, r2
    8f4c:	e1a03005 	mov	r3, r5
    8f50:	e58d2000 	str	r2, [sp]
    8f54:	e28d1018 	add	r1, sp, #24, 0
    8f58:	e1a0200b 	mov	r2, fp
    8f5c:	e3a00010 	mov	r0, #16, 0
    8f60:	ebfffe98 	bl	89c8 <emit.constprop.0>
    8f64:	e1a0c000 	mov	ip, r0
    8f68:	e1a03005 	mov	r3, r5
    8f6c:	e58d6000 	str	r6, [sp]
    8f70:	e28d1098 	add	r1, sp, #152, 0	; 0x98
    8f74:	e1a02009 	mov	r2, r9
    8f78:	e3a00010 	mov	r0, #16, 0
    8f7c:	e1a0500c 	mov	r5, ip
    8f80:	ebfffe90 	bl	89c8 <emit.constprop.0>
    8f84:	e28d0018 	add	r0, sp, #24, 0
    8f88:	e28d109a 	add	r1, sp, #154, 0	; 0x9a
    8f8c:	e59d6014 	ldr	r6, [sp, #20]
    8f90:	eb00032c 	bl	9c48 <strcat>
    8f94:	eaffffc3 	b	8ea8 <va_printk+0x158>
    8f98:	e3a01000 	mov	r1, #0, 0
    8f9c:	e1a03005 	mov	r3, r5
    8fa0:	e4982004 	ldr	r2, [r8], #4
    8fa4:	e3a0000a 	mov	r0, #10, 0
    8fa8:	e58d1000 	str	r1, [sp]
    8fac:	e28d1018 	add	r1, sp, #24, 0
    8fb0:	ebfffe84 	bl	89c8 <emit.constprop.0>
    8fb4:	e1a05000 	mov	r5, r0
    8fb8:	eaffffba 	b	8ea8 <va_printk+0x158>
    8fbc:	e3a01001 	mov	r1, #1, 0
    8fc0:	eafffff5 	b	8f9c <va_printk+0x24c>
    8fc4:	e4983004 	ldr	r3, [r8], #4
    8fc8:	e3550001 	cmp	r5, #1, 0
    8fcc:	e5cd3098 	strb	r3, [sp, #152]	; 0x98
    8fd0:	9a0000a6 	bls	9270 <va_printk+0x520>
    8fd4:	e2453002 	sub	r3, r5, #2, 0
    8fd8:	e3530002 	cmp	r3, #2, 0
    8fdc:	e2451001 	sub	r1, r5, #1, 0
    8fe0:	9a0000bc 	bls	92d8 <va_printk+0x588>
    8fe4:	e59f0360 	ldr	r0, [pc, #864]	; 934c <va_printk+0x5fc>
    8fe8:	e1a02121 	lsr	r2, r1, #2
    8fec:	e3520001 	cmp	r2, #1, 0
    8ff0:	e58d0099 	str	r0, [sp, #153]	; 0x99
    8ff4:	0a00000e 	beq	9034 <va_printk+0x2e4>
    8ff8:	e3520002 	cmp	r2, #2, 0
    8ffc:	e58d009d 	str	r0, [sp, #157]	; 0x9d
    9000:	0a00000b 	beq	9034 <va_printk+0x2e4>
    9004:	e3520003 	cmp	r2, #3, 0
    9008:	e58d00a1 	str	r0, [sp, #161]	; 0xa1
    900c:	0a000008 	beq	9034 <va_printk+0x2e4>
    9010:	e3520004 	cmp	r2, #4, 0
    9014:	e58d00a5 	str	r0, [sp, #165]	; 0xa5
    9018:	0a000005 	beq	9034 <va_printk+0x2e4>
    901c:	e3520005 	cmp	r2, #5, 0
    9020:	e58d00a9 	str	r0, [sp, #169]	; 0xa9
    9024:	0a000002 	beq	9034 <va_printk+0x2e4>
    9028:	e3520007 	cmp	r2, #7, 0
    902c:	e58d00ad 	str	r0, [sp, #173]	; 0xad
    9030:	058d00b1 	streq	r0, [sp, #177]	; 0xb1
    9034:	e3c12003 	bic	r2, r1, #3, 0
    9038:	e1510002 	cmp	r1, r2
    903c:	e28dc099 	add	ip, sp, #153, 0	; 0x99
    9040:	e08c0002 	add	r0, ip, r2
    9044:	e2822001 	add	r2, r2, #1, 0
    9048:	0a000008 	beq	9070 <va_printk+0x320>
    904c:	e3a0e020 	mov	lr, #32, 0
    9050:	e2829001 	add	r9, r2, #1, 0
    9054:	e1550009 	cmp	r5, r9
    9058:	e5c0e000 	strb	lr, [r0]
    905c:	da000003 	ble	9070 <va_printk+0x320>
    9060:	e2822002 	add	r2, r2, #2, 0
    9064:	e1550002 	cmp	r5, r2
    9068:	e5c0e001 	strb	lr, [r0, #1]
    906c:	c5c0e002 	strbgt	lr, [r0, #2]
    9070:	e3a0e000 	mov	lr, #0, 0
    9074:	e28d0098 	add	r0, sp, #152, 0	; 0x98
    9078:	e08c2001 	add	r2, ip, r1
    907c:	e0422000 	sub	r2, r2, r0
    9080:	e352007f 	cmp	r2, #127, 0	; 0x7f
    9084:	c242207f 	subgt	r2, r2, #127, 0	; 0x7f
    9088:	e08c3003 	add	r3, ip, r3
    908c:	c0800002 	addgt	r0, r0, r2
    9090:	e1530000 	cmp	r3, r0
    9094:	e7cce001 	strb	lr, [ip, r1]
    9098:	3a00006c 	bcc	9250 <va_printk+0x500>
    909c:	e283c001 	add	ip, r3, #1, 0
    90a0:	e1a0300c 	mov	r3, ip
    90a4:	e28d5018 	add	r5, sp, #24, 0
    90a8:	e2452001 	sub	r2, r5, #1, 0
    90ac:	e5731001 	ldrb	r1, [r3, #-1]!
    90b0:	e1500003 	cmp	r0, r3
    90b4:	e5e21001 	strb	r1, [r2, #1]!
    90b8:	1afffffb 	bne	90ac <va_printk+0x35c>
    90bc:	e04c3000 	sub	r3, ip, r0
    90c0:	e0853003 	add	r3, r5, r3
    90c4:	ea00003a 	b	91b4 <va_printk+0x464>
    90c8:	e28d1098 	add	r1, sp, #152, 0	; 0x98
    90cc:	e1a03001 	mov	r3, r1
    90d0:	e4980004 	ldr	r0, [r8], #4
    90d4:	e200c001 	and	ip, r0, #1, 0
    90d8:	e7dac00c 	ldrb	ip, [sl, ip]
    90dc:	e3500001 	cmp	r0, #1, 0
    90e0:	e1a02003 	mov	r2, r3
    90e4:	e1a000a0 	lsr	r0, r0, #1
    90e8:	e4c3c001 	strb	ip, [r3], #1
    90ec:	8afffff8 	bhi	90d4 <va_printk+0x384>
    90f0:	e0430001 	sub	r0, r3, r1
    90f4:	e1550000 	cmp	r5, r0
    90f8:	da000057 	ble	925c <va_printk+0x50c>
    90fc:	e045c000 	sub	ip, r5, r0
    9100:	e24ce001 	sub	lr, ip, #1, 0
    9104:	e35e0002 	cmp	lr, #2, 0
    9108:	e1a0e003 	mov	lr, r3
    910c:	9a00000a 	bls	913c <va_printk+0x3ec>
    9110:	e3cc9003 	bic	r9, ip, #3, 0
    9114:	e0899003 	add	r9, r9, r3
    9118:	e59fb22c 	ldr	fp, [pc, #556]	; 934c <va_printk+0x5fc>
    911c:	e48eb004 	str	fp, [lr], #4
    9120:	e15e0009 	cmp	lr, r9
    9124:	1afffffb 	bne	9118 <va_printk+0x3c8>
    9128:	e3cce003 	bic	lr, ip, #3, 0
    912c:	e15e000c 	cmp	lr, ip
    9130:	e080000e 	add	r0, r0, lr
    9134:	e083e00e 	add	lr, r3, lr
    9138:	0a000008 	beq	9160 <va_printk+0x410>
    913c:	e3a09020 	mov	r9, #32, 0
    9140:	e280b001 	add	fp, r0, #1, 0
    9144:	e155000b 	cmp	r5, fp
    9148:	e5ce9000 	strb	r9, [lr]
    914c:	da000003 	ble	9160 <va_printk+0x410>
    9150:	e2800002 	add	r0, r0, #2, 0
    9154:	e1550000 	cmp	r5, r0
    9158:	e5ce9001 	strb	r9, [lr, #1]
    915c:	c5ce9002 	strbgt	r9, [lr, #2]
    9160:	e3a0e000 	mov	lr, #0, 0
    9164:	e083000c 	add	r0, r3, ip
    9168:	e0400001 	sub	r0, r0, r1
    916c:	e350007f 	cmp	r0, #127, 0	; 0x7f
    9170:	e082200c 	add	r2, r2, ip
    9174:	e7c3e00c 	strb	lr, [r3, ip]
    9178:	da000001 	ble	9184 <va_printk+0x434>
    917c:	e240007f 	sub	r0, r0, #127, 0	; 0x7f
    9180:	e0811000 	add	r1, r1, r0
    9184:	e1510002 	cmp	r1, r2
    9188:	8a000030 	bhi	9250 <va_printk+0x500>
    918c:	e2822001 	add	r2, r2, #1, 0
    9190:	e1a03002 	mov	r3, r2
    9194:	e28d5018 	add	r5, sp, #24, 0
    9198:	e245c001 	sub	ip, r5, #1, 0
    919c:	e5730001 	ldrb	r0, [r3, #-1]!
    91a0:	e1530001 	cmp	r3, r1
    91a4:	e5ec0001 	strb	r0, [ip, #1]!
    91a8:	1afffffb 	bne	919c <va_printk+0x44c>
    91ac:	e0423003 	sub	r3, r2, r3
    91b0:	e0853003 	add	r3, r5, r3
    91b4:	e3a02000 	mov	r2, #0, 0
    91b8:	e5c32000 	strb	r2, [r3]
    91bc:	eaffff39 	b	8ea8 <va_printk+0x158>
    91c0:	e4985004 	ldr	r5, [r8], #4
    91c4:	eaffff37 	b	8ea8 <va_printk+0x158>
    91c8:	e3a02003 	mov	r2, #3, 0
    91cc:	e1a00006 	mov	r0, r6
    91d0:	e59f1168 	ldr	r1, [pc, #360]	; 9340 <va_printk+0x5f0>
    91d4:	eb0002bd 	bl	9cd0 <strncmp>
    91d8:	e2503000 	subs	r3, r0, #0, 0
    91dc:	1a00004b 	bne	9310 <va_printk+0x5c0>
    91e0:	e1a06003 	mov	r6, r3
    91e4:	e1a0200b 	mov	r2, fp
    91e8:	e58d3000 	str	r3, [sp]
    91ec:	e28d1018 	add	r1, sp, #24, 0
    91f0:	e1a03005 	mov	r3, r5
    91f4:	e3a0000a 	mov	r0, #10, 0
    91f8:	ebfffdf2 	bl	89c8 <emit.constprop.0>
    91fc:	e1a0c000 	mov	ip, r0
    9200:	e1a03005 	mov	r3, r5
    9204:	e1a02009 	mov	r2, r9
    9208:	e28d1098 	add	r1, sp, #152, 0	; 0x98
    920c:	e3a0000a 	mov	r0, #10, 0
    9210:	e58d6000 	str	r6, [sp]
    9214:	e1a0500c 	mov	r5, ip
    9218:	ebfffdea 	bl	89c8 <emit.constprop.0>
    921c:	e59f112c 	ldr	r1, [pc, #300]	; 9350 <va_printk+0x600>
    9220:	e28d0018 	add	r0, sp, #24, 0
    9224:	eb000292 	bl	9c74 <strcmp>
    9228:	e3500000 	cmp	r0, #0, 0
    922c:	e28d1098 	add	r1, sp, #152, 0	; 0x98
    9230:	e28d0018 	add	r0, sp, #24, 0
    9234:	1a000002 	bne	9244 <va_printk+0x4f4>
    9238:	eb00029e 	bl	9cb8 <strcpy>
    923c:	e59d6014 	ldr	r6, [sp, #20]
    9240:	eaffff18 	b	8ea8 <va_printk+0x158>
    9244:	eb00027f 	bl	9c48 <strcat>
    9248:	e59d6014 	ldr	r6, [sp, #20]
    924c:	eaffff15 	b	8ea8 <va_printk+0x158>
    9250:	e28d5018 	add	r5, sp, #24, 0
    9254:	e1a03005 	mov	r3, r5
    9258:	eaffffd5 	b	91b4 <va_printk+0x464>
    925c:	e3a0c000 	mov	ip, #0, 0
    9260:	e350007f 	cmp	r0, #127, 0	; 0x7f
    9264:	e5c3c000 	strb	ip, [r3]
    9268:	caffffc3 	bgt	917c <va_printk+0x42c>
    926c:	eaffffc6 	b	918c <va_printk+0x43c>
    9270:	e3a02000 	mov	r2, #0, 0
    9274:	e28d3098 	add	r3, sp, #152, 0	; 0x98
    9278:	e1a00003 	mov	r0, r3
    927c:	e5cd2099 	strb	r2, [sp, #153]	; 0x99
    9280:	eaffff85 	b	909c <va_printk+0x34c>
    9284:	e3a03000 	mov	r3, #0, 0
    9288:	e1a01002 	mov	r1, r2
    928c:	e5c63001 	strb	r3, [r6, #1]
    9290:	e59f00bc 	ldr	r0, [pc, #188]	; 9354 <va_printk+0x604>
    9294:	ebfffda7 	bl	8938 <printk>
    9298:	e59f30b8 	ldr	r3, [pc, #184]	; 9358 <va_printk+0x608>
    929c:	e59d0010 	ldr	r0, [sp, #16]
    92a0:	e5933000 	ldr	r3, [r3]
    92a4:	e12fff33 	blx	r3
    92a8:	e3a030e2 	mov	r3, #226, 0	; 0xe2
    92ac:	e59f20a8 	ldr	r2, [pc, #168]	; 935c <va_printk+0x60c>
    92b0:	e59f10a8 	ldr	r1, [pc, #168]	; 9360 <va_printk+0x610>
    92b4:	e59f00a8 	ldr	r0, [pc, #168]	; 9364 <va_printk+0x614>
    92b8:	ebfffd9e 	bl	8938 <printk>
    92bc:	eb000036 	bl	939c <clean_reboot>
    92c0:	e3a030be 	mov	r3, #190, 0	; 0xbe
    92c4:	e59f2090 	ldr	r2, [pc, #144]	; 935c <va_printk+0x60c>
    92c8:	e59f1090 	ldr	r1, [pc, #144]	; 9360 <va_printk+0x610>
    92cc:	e59f0094 	ldr	r0, [pc, #148]	; 9368 <va_printk+0x618>
    92d0:	ebfffd98 	bl	8938 <printk>
    92d4:	eb000030 	bl	939c <clean_reboot>
    92d8:	e28dc099 	add	ip, sp, #153, 0	; 0x99
    92dc:	e1a0000c 	mov	r0, ip
    92e0:	e3a02001 	mov	r2, #1, 0
    92e4:	eaffff58 	b	904c <va_printk+0x2fc>
    92e8:	e1a0400b 	mov	r4, fp
    92ec:	eafffee0 	b	8e74 <va_printk+0x124>
    92f0:	e3a03098 	mov	r3, #152, 0	; 0x98
    92f4:	e59f2070 	ldr	r2, [pc, #112]	; 936c <va_printk+0x61c>
    92f8:	e59f1060 	ldr	r1, [pc, #96]	; 9360 <va_printk+0x610>
    92fc:	e58d2000 	str	r2, [sp]
    9300:	e59f0068 	ldr	r0, [pc, #104]	; 9370 <va_printk+0x620>
    9304:	e59f2050 	ldr	r2, [pc, #80]	; 935c <va_printk+0x60c>
    9308:	ebfffd8a 	bl	8938 <printk>
    930c:	eb000022 	bl	939c <clean_reboot>
    9310:	e3a030b6 	mov	r3, #182, 0	; 0xb6
    9314:	e59f2040 	ldr	r2, [pc, #64]	; 935c <va_printk+0x60c>
    9318:	e59f1040 	ldr	r1, [pc, #64]	; 9360 <va_printk+0x610>
    931c:	e59f0050 	ldr	r0, [pc, #80]	; 9374 <va_printk+0x624>
    9320:	e58d6000 	str	r6, [sp]
    9324:	ebfffd83 	bl	8938 <printk>
    9328:	eb00001b 	bl	939c <clean_reboot>
    932c:	e3a0309f 	mov	r3, #159, 0	; 0x9f
    9330:	e59f2040 	ldr	r2, [pc, #64]	; 9378 <va_printk+0x628>
    9334:	eaffffef 	b	92f8 <va_printk+0x5a8>
    9338:	00009d74 	andeq	r9, r0, r4, ror sp
    933c:	00009d98 	muleq	r0, r8, sp
    9340:	00009dac 	andeq	r9, r0, ip, lsr #27
    9344:	00009d9c 	muleq	r0, ip, sp
    9348:	00009da4 	andeq	r9, r0, r4, lsr #27
    934c:	20202020 	eorcs	r2, r0, r0, lsr #32
    9350:	00009d5c 	andeq	r9, r0, ip, asr sp
    9354:	00009e3c 	andeq	r9, r0, ip, lsr lr
    9358:	0000a0b8 	strheq	sl, [r0], -r8
    935c:	00009ea4 	andeq	r9, r0, r4, lsr #29
    9360:	00009d34 	andeq	r9, r0, r4, lsr sp
    9364:	00009e6c 	andeq	r9, r0, ip, ror #28
    9368:	00009e14 	andeq	r9, r0, r4, lsl lr
    936c:	00009d8c 	andeq	r9, r0, ip, lsl #27
    9370:	00009d48 	andeq	r9, r0, r8, asr #26
    9374:	00009dec 	andeq	r9, r0, ip, ror #27
    9378:	00009db0 			; <UNDEFINED> instruction: 0x00009db0

0000937c <enable_cache>:
    937c:	ee113f10 	mrc	15, 0, r3, cr1, cr0, {0}
    9380:	e3833b06 	orr	r3, r3, #6144	; 0x1800
    9384:	ee013f10 	mcr	15, 0, r3, cr1, cr0, {0}
    9388:	e12fff1e 	bx	lr

0000938c <disable_cache>:
    938c:	ee113f10 	mrc	15, 0, r3, cr1, cr0, {0}
    9390:	e3c33b06 	bic	r3, r3, #6144	; 0x1800
    9394:	ee013f10 	mcr	15, 0, r3, cr1, cr0, {0}
    9398:	e12fff1e 	bx	lr

0000939c <clean_reboot>:
    939c:	e59f301c 	ldr	r3, [pc, #28]	; 93c0 <clean_reboot+0x24>
    93a0:	e92d4010 	push	{r4, lr}
    93a4:	e5933000 	ldr	r3, [r3]
    93a8:	e59f0014 	ldr	r0, [pc, #20]	; 93c4 <clean_reboot+0x28>
    93ac:	e12fff33 	blx	r3
    93b0:	eb00011b 	bl	9824 <uart_flush_tx>
    93b4:	e3a0000a 	mov	r0, #10, 0
    93b8:	eb000082 	bl	95c8 <delay_ms>
    93bc:	eb00004b 	bl	94f0 <rpi_reboot>
    93c0:	0000a0b8 	strheq	sl, [r0], -r8
    93c4:	00009eb0 			; <UNDEFINED> instruction: 0x00009eb0

000093c8 <_cstart>:
    93c8:	e92d4070 	push	{r4, r5, r6, lr}
    93cc:	eb00003b 	bl	94c0 <custom_loader>
    93d0:	e59f20e0 	ldr	r2, [pc, #224]	; 94b8 <_cstart+0xf0>
    93d4:	e59fc0e0 	ldr	ip, [pc, #224]	; 94bc <_cstart+0xf4>
    93d8:	e152000c 	cmp	r2, ip
    93dc:	2a00002e 	bcs	949c <_cstart+0xd4>
    93e0:	e24c1001 	sub	r1, ip, #1, 0
    93e4:	e0411002 	sub	r1, r1, r2
    93e8:	e3510017 	cmp	r1, #23, 0
    93ec:	e1a03122 	lsr	r3, r2, #2
    93f0:	e1a01121 	lsr	r1, r1, #2
    93f4:	e2811001 	add	r1, r1, #1, 0
    93f8:	e2033001 	and	r3, r3, #1, 0
    93fc:	9a00002b 	bls	94b0 <_cstart+0xe8>
    9400:	e3530000 	cmp	r3, #0, 0
    9404:	11a00002 	movne	r0, r2
    9408:	13a0e000 	movne	lr, #0, 0
    940c:	e3a04000 	mov	r4, #0, 0
    9410:	e3a05000 	mov	r5, #0, 0
    9414:	e0411003 	sub	r1, r1, r3
    9418:	01a00002 	moveq	r0, r2
    941c:	e0823103 	add	r3, r2, r3, lsl #2
    9420:	e1a020a1 	lsr	r2, r1, #1
    9424:	1480e004 	strne	lr, [r0], #4
    9428:	e0832182 	add	r2, r3, r2, lsl #3
    942c:	e0c340f8 	strd	r4, [r3], #8
    9430:	e1520003 	cmp	r2, r3
    9434:	1afffffc 	bne	942c <_cstart+0x64>
    9438:	e3c13001 	bic	r3, r1, #1, 0
    943c:	e1510003 	cmp	r1, r3
    9440:	e0803103 	add	r3, r0, r3, lsl #2
    9444:	0a000014 	beq	949c <_cstart+0xd4>
    9448:	e1a01003 	mov	r1, r3
    944c:	e3a02000 	mov	r2, #0, 0
    9450:	e4812004 	str	r2, [r1], #4
    9454:	e151000c 	cmp	r1, ip
    9458:	2a00000f 	bcs	949c <_cstart+0xd4>
    945c:	e2831008 	add	r1, r3, #8, 0
    9460:	e151000c 	cmp	r1, ip
    9464:	e5832004 	str	r2, [r3, #4]
    9468:	2a00000b 	bcs	949c <_cstart+0xd4>
    946c:	e283100c 	add	r1, r3, #12, 0
    9470:	e151000c 	cmp	r1, ip
    9474:	e5832008 	str	r2, [r3, #8]
    9478:	2a000007 	bcs	949c <_cstart+0xd4>
    947c:	e2831010 	add	r1, r3, #16, 0
    9480:	e151000c 	cmp	r1, ip
    9484:	e583200c 	str	r2, [r3, #12]
    9488:	2a000003 	bcs	949c <_cstart+0xd4>
    948c:	e2831014 	add	r1, r3, #20, 0
    9490:	e151000c 	cmp	r1, ip
    9494:	e5832010 	str	r2, [r3, #16]
    9498:	35832014 	strcc	r2, [r3, #20]
    949c:	eb000082 	bl	96ac <uart_init>
    94a0:	e3a03001 	mov	r3, #1, 0
    94a4:	ee0f3f1c 	mcr	15, 0, r3, cr15, cr12, {0}
    94a8:	ebfffae4 	bl	8040 <notmain>
    94ac:	ebffffba 	bl	939c <clean_reboot>
    94b0:	e1a03002 	mov	r3, r2
    94b4:	eaffffe3 	b	9448 <_cstart+0x80>
    94b8:	0000a0cc 	andeq	sl, r0, ip, asr #1
    94bc:	0000a4d0 	ldrdeq	sl, [r0], -r0

000094c0 <custom_loader>:
    94c0:	e12fff1e 	bx	lr

000094c4 <at_user_level>:
    94c4:	e10f0000 	mrs	r0, CPSR
    94c8:	e200001f 	and	r0, r0, #31, 0
    94cc:	e2400010 	sub	r0, r0, #16, 0
    94d0:	e16f0f10 	clz	r0, r0
    94d4:	e1a002a0 	lsr	r0, r0, #5
    94d8:	e12fff1e 	bx	lr

000094dc <set_user_level>:
    94dc:	e10f3000 	mrs	r3, CPSR
    94e0:	e3c3301f 	bic	r3, r3, #31, 0
    94e4:	e3833010 	orr	r3, r3, #16, 0
    94e8:	e129f003 	msr	CPSR_fc, r3
    94ec:	e12fff1e 	bx	lr

000094f0 <rpi_reboot>:
    94f0:	e92d4010 	push	{r4, lr}
    94f4:	e10f3000 	mrs	r3, CPSR
    94f8:	e203301f 	and	r3, r3, #31, 0
    94fc:	e3530010 	cmp	r3, #16, 0
    9500:	1a000003 	bne	9514 <rpi_reboot+0x24>
    9504:	e10f3000 	mrs	r3, CPSR
    9508:	e3c3301f 	bic	r3, r3, #31, 0
    950c:	e3833010 	orr	r3, r3, #16, 0
    9510:	e129f003 	msr	CPSR_fc, r3
    9514:	eb0001f9 	bl	9d00 <reboot_callout>
    9518:	eb0000c1 	bl	9824 <uart_flush_tx>
    951c:	e3a0000a 	mov	r0, #10, 0
    9520:	eb000028 	bl	95c8 <delay_ms>
    9524:	e59f1014 	ldr	r1, [pc, #20]	; 9540 <rpi_reboot+0x50>
    9528:	e59f0014 	ldr	r0, [pc, #20]	; 9544 <rpi_reboot+0x54>
    952c:	ebfffabc 	bl	8024 <PUT32>
    9530:	e59f1010 	ldr	r1, [pc, #16]	; 9548 <rpi_reboot+0x58>
    9534:	e59f0010 	ldr	r0, [pc, #16]	; 954c <rpi_reboot+0x5c>
    9538:	ebfffab9 	bl	8024 <PUT32>
    953c:	eafffffe 	b	953c <rpi_reboot+0x4c>
    9540:	5a000001 	bpl	954c <rpi_reboot+0x5c>
    9544:	20100024 	andscs	r0, r0, r4, lsr #32
    9548:	5a000020 	bpl	95d0 <delay_ms+0x8>
    954c:	2010001c 	andscs	r0, r0, ip, lsl r0

00009550 <timer_get_usec_raw>:
    9550:	e59f0000 	ldr	r0, [pc]	; 9558 <timer_get_usec_raw+0x8>
    9554:	eafffab4 	b	802c <GET32>
    9558:	20003004 	andcs	r3, r0, r4

0000955c <timer_get_usec>:
    955c:	e92d4010 	push	{r4, lr}
    9560:	eb0001e7 	bl	9d04 <dev_barrier>
    9564:	e59f0010 	ldr	r0, [pc, #16]	; 957c <timer_get_usec+0x20>
    9568:	ebfffaaf 	bl	802c <GET32>
    956c:	e1a04000 	mov	r4, r0
    9570:	eb0001e3 	bl	9d04 <dev_barrier>
    9574:	e1a00004 	mov	r0, r4
    9578:	e8bd8010 	pop	{r4, pc}
    957c:	20003004 	andcs	r3, r0, r4

00009580 <delay_us>:
    9580:	e92d41f0 	push	{r4, r5, r6, r7, r8, lr}
    9584:	e1a06000 	mov	r6, r0
    9588:	eb0001dd 	bl	9d04 <dev_barrier>
    958c:	e59f0030 	ldr	r0, [pc, #48]	; 95c4 <delay_us+0x44>
    9590:	ebfffaa5 	bl	802c <GET32>
    9594:	e1a05000 	mov	r5, r0
    9598:	eb0001d9 	bl	9d04 <dev_barrier>
    959c:	e59f7020 	ldr	r7, [pc, #32]	; 95c4 <delay_us+0x44>
    95a0:	eb0001d7 	bl	9d04 <dev_barrier>
    95a4:	e1a00007 	mov	r0, r7
    95a8:	ebfffa9f 	bl	802c <GET32>
    95ac:	e1a04000 	mov	r4, r0
    95b0:	e0444005 	sub	r4, r4, r5
    95b4:	eb0001d2 	bl	9d04 <dev_barrier>
    95b8:	e1540006 	cmp	r4, r6
    95bc:	3afffff7 	bcc	95a0 <delay_us+0x20>
    95c0:	e8bd81f0 	pop	{r4, r5, r6, r7, r8, pc}
    95c4:	20003004 	andcs	r3, r0, r4

000095c8 <delay_ms>:
    95c8:	e92d41f0 	push	{r4, r5, r6, r7, r8, lr}
    95cc:	e0604280 	rsb	r4, r0, r0, lsl #5
    95d0:	e0800104 	add	r0, r0, r4, lsl #2
    95d4:	e1a04180 	lsl	r4, r0, #3
    95d8:	eb0001c9 	bl	9d04 <dev_barrier>
    95dc:	e59f0030 	ldr	r0, [pc, #48]	; 9614 <delay_ms+0x4c>
    95e0:	ebfffa91 	bl	802c <GET32>
    95e4:	e1a06000 	mov	r6, r0
    95e8:	eb0001c5 	bl	9d04 <dev_barrier>
    95ec:	e59f7020 	ldr	r7, [pc, #32]	; 9614 <delay_ms+0x4c>
    95f0:	eb0001c3 	bl	9d04 <dev_barrier>
    95f4:	e1a00007 	mov	r0, r7
    95f8:	ebfffa8b 	bl	802c <GET32>
    95fc:	e1a05000 	mov	r5, r0
    9600:	e0455006 	sub	r5, r5, r6
    9604:	eb0001be 	bl	9d04 <dev_barrier>
    9608:	e1540005 	cmp	r4, r5
    960c:	8afffff7 	bhi	95f0 <delay_ms+0x28>
    9610:	e8bd81f0 	pop	{r4, r5, r6, r7, r8, pc}
    9614:	20003004 	andcs	r3, r0, r4

00009618 <delay_sec>:
    9618:	e92d41f0 	push	{r4, r5, r6, r7, r8, lr}
    961c:	e0604280 	rsb	r4, r0, r0, lsl #5
    9620:	e0644304 	rsb	r4, r4, r4, lsl #6
    9624:	e0800184 	add	r0, r0, r4, lsl #3
    9628:	e1a04300 	lsl	r4, r0, #6
    962c:	eb0001b4 	bl	9d04 <dev_barrier>
    9630:	e59f0030 	ldr	r0, [pc, #48]	; 9668 <delay_sec+0x50>
    9634:	ebfffa7c 	bl	802c <GET32>
    9638:	e1a06000 	mov	r6, r0
    963c:	eb0001b0 	bl	9d04 <dev_barrier>
    9640:	e59f7020 	ldr	r7, [pc, #32]	; 9668 <delay_sec+0x50>
    9644:	eb0001ae 	bl	9d04 <dev_barrier>
    9648:	e1a00007 	mov	r0, r7
    964c:	ebfffa76 	bl	802c <GET32>
    9650:	e1a05000 	mov	r5, r0
    9654:	e0455006 	sub	r5, r5, r6
    9658:	eb0001a9 	bl	9d04 <dev_barrier>
    965c:	e1540005 	cmp	r4, r5
    9660:	8afffff7 	bhi	9644 <delay_sec+0x2c>
    9664:	e8bd81f0 	pop	{r4, r5, r6, r7, r8, pc}
    9668:	20003004 	andcs	r3, r0, r4

0000966c <and_in32>:
    966c:	e92d4070 	push	{r4, r5, r6, lr}
    9670:	e1a04000 	mov	r4, r0
    9674:	e1a05001 	mov	r5, r1
    9678:	ebfffa6b 	bl	802c <GET32>
    967c:	e0001005 	and	r1, r0, r5
    9680:	e1a00004 	mov	r0, r4
    9684:	ebfffa66 	bl	8024 <PUT32>
    9688:	e8bd8070 	pop	{r4, r5, r6, pc}

0000968c <or_in32>:
    968c:	e92d4070 	push	{r4, r5, r6, lr}
    9690:	e1a04000 	mov	r4, r0
    9694:	e1a05001 	mov	r5, r1
    9698:	ebfffa63 	bl	802c <GET32>
    969c:	e1801005 	orr	r1, r0, r5
    96a0:	e1a00004 	mov	r0, r4
    96a4:	ebfffa5e 	bl	8024 <PUT32>
    96a8:	e8bd8070 	pop	{r4, r5, r6, pc}

000096ac <uart_init>:
    96ac:	e92d4010 	push	{r4, lr}
    96b0:	e3a01002 	mov	r1, #2, 0
    96b4:	e3a0000e 	mov	r0, #14, 0
    96b8:	ebfffc18 	bl	8720 <gpio_set_function>
    96bc:	e3a01002 	mov	r1, #2, 0
    96c0:	e3a0000f 	mov	r0, #15, 0
    96c4:	ebfffc15 	bl	8720 <gpio_set_function>
    96c8:	eb00018d 	bl	9d04 <dev_barrier>
    96cc:	e3a01001 	mov	r1, #1, 0
    96d0:	e59f0064 	ldr	r0, [pc, #100]	; 973c <uart_init+0x90>
    96d4:	ebffffec 	bl	968c <or_in32>
    96d8:	eb000189 	bl	9d04 <dev_barrier>
    96dc:	e59f405c 	ldr	r4, [pc, #92]	; 9740 <uart_init+0x94>
    96e0:	e3a01000 	mov	r1, #0, 0
    96e4:	e1a00004 	mov	r0, r4
    96e8:	ebfffa4d 	bl	8024 <PUT32>
    96ec:	e3a01000 	mov	r1, #0, 0
    96f0:	e59f004c 	ldr	r0, [pc, #76]	; 9744 <uart_init+0x98>
    96f4:	ebfffa4a 	bl	8024 <PUT32>
    96f8:	e3a01003 	mov	r1, #3, 0
    96fc:	e59f0044 	ldr	r0, [pc, #68]	; 9748 <uart_init+0x9c>
    9700:	ebfffa47 	bl	8024 <PUT32>
    9704:	e3a01000 	mov	r1, #0, 0
    9708:	e59f003c 	ldr	r0, [pc, #60]	; 974c <uart_init+0xa0>
    970c:	ebfffa44 	bl	8024 <PUT32>
    9710:	e3a010c7 	mov	r1, #199, 0	; 0xc7
    9714:	e59f0034 	ldr	r0, [pc, #52]	; 9750 <uart_init+0xa4>
    9718:	ebfffa41 	bl	8024 <PUT32>
    971c:	e59f1030 	ldr	r1, [pc, #48]	; 9754 <uart_init+0xa8>
    9720:	e59f0030 	ldr	r0, [pc, #48]	; 9758 <uart_init+0xac>
    9724:	ebfffa3e 	bl	8024 <PUT32>
    9728:	e3a01003 	mov	r1, #3, 0
    972c:	e1a00004 	mov	r0, r4
    9730:	ebfffa3b 	bl	8024 <PUT32>
    9734:	eb000172 	bl	9d04 <dev_barrier>
    9738:	e8bd8010 	pop	{r4, pc}
    973c:	20215004 	eorcs	r5, r1, r4
    9740:	20215060 	eorcs	r5, r1, r0, rrx
    9744:	20215044 	eorcs	r5, r1, r4, asr #32
    9748:	2021504c 	eorcs	r5, r1, ip, asr #32
    974c:	20215050 	eorcs	r5, r1, r0, asr r0
    9750:	20215048 	eorcs	r5, r1, r8, asr #32
    9754:	0000010e 	andeq	r0, r0, lr, lsl #2
    9758:	20215068 	eorcs	r5, r1, r8, rrx

0000975c <uart_can_getc>:
    975c:	e92d4010 	push	{r4, lr}
    9760:	e59f0008 	ldr	r0, [pc, #8]	; 9770 <uart_can_getc+0x14>
    9764:	ebfffa30 	bl	802c <GET32>
    9768:	e2000001 	and	r0, r0, #1, 0
    976c:	e8bd8010 	pop	{r4, pc}
    9770:	20215064 	eorcs	r5, r1, r4, rrx

00009774 <uart_can_putc>:
    9774:	e92d4010 	push	{r4, lr}
    9778:	e59f0010 	ldr	r0, [pc, #16]	; 9790 <uart_can_putc+0x1c>
    977c:	ebfffa2a 	bl	802c <GET32>
    9780:	e3100002 	tst	r0, #2, 0
    9784:	13a00001 	movne	r0, #1, 0
    9788:	03a00000 	moveq	r0, #0, 0
    978c:	e8bd8010 	pop	{r4, pc}
    9790:	20215064 	eorcs	r5, r1, r4, rrx

00009794 <uart_getc>:
    9794:	e92d4010 	push	{r4, lr}
    9798:	eb000159 	bl	9d04 <dev_barrier>
    979c:	ebffffee 	bl	975c <uart_can_getc>
    97a0:	e3500000 	cmp	r0, #0, 0
    97a4:	0afffffc 	beq	979c <uart_getc+0x8>
    97a8:	e59f0010 	ldr	r0, [pc, #16]	; 97c0 <uart_getc+0x2c>
    97ac:	ebfffa1e 	bl	802c <GET32>
    97b0:	e6ef4070 	uxtb	r4, r0
    97b4:	eb000152 	bl	9d04 <dev_barrier>
    97b8:	e1a00004 	mov	r0, r4
    97bc:	e8bd8010 	pop	{r4, pc}
    97c0:	20215040 	eorcs	r5, r1, r0, asr #32

000097c4 <uart_putc>:
    97c4:	e92d4010 	push	{r4, lr}
    97c8:	e1a04000 	mov	r4, r0
    97cc:	eb00014c 	bl	9d04 <dev_barrier>
    97d0:	ebffffe7 	bl	9774 <uart_can_putc>
    97d4:	e3500000 	cmp	r0, #0, 0
    97d8:	0afffffc 	beq	97d0 <uart_putc+0xc>
    97dc:	e6ef1074 	uxtb	r1, r4
    97e0:	e59f0008 	ldr	r0, [pc, #8]	; 97f0 <uart_putc+0x2c>
    97e4:	ebfffa0e 	bl	8024 <PUT32>
    97e8:	eb000145 	bl	9d04 <dev_barrier>
    97ec:	e8bd8010 	pop	{r4, pc}
    97f0:	20215040 	eorcs	r5, r1, r0, asr #32

000097f4 <uart_has_data>:
    97f4:	e92d4010 	push	{r4, lr}
    97f8:	eb000141 	bl	9d04 <dev_barrier>
    97fc:	ebffffd6 	bl	975c <uart_can_getc>
    9800:	e8bd8010 	pop	{r4, pc}

00009804 <uart_tx_is_empty>:
    9804:	e92d4010 	push	{r4, lr}
    9808:	eb00013d 	bl	9d04 <dev_barrier>
    980c:	e59f000c 	ldr	r0, [pc, #12]	; 9820 <uart_tx_is_empty+0x1c>
    9810:	ebfffa05 	bl	802c <GET32>
    9814:	e1a004a0 	lsr	r0, r0, #9
    9818:	e2000001 	and	r0, r0, #1, 0
    981c:	e8bd8010 	pop	{r4, pc}
    9820:	20215064 	eorcs	r5, r1, r4, rrx

00009824 <uart_flush_tx>:
    9824:	e92d4010 	push	{r4, lr}
    9828:	ebfffff5 	bl	9804 <uart_tx_is_empty>
    982c:	e3500000 	cmp	r0, #0, 0
    9830:	0afffffc 	beq	9828 <uart_flush_tx+0x4>
    9834:	e8bd8010 	pop	{r4, pc}

00009838 <uart_disable>:
    9838:	e92d4010 	push	{r4, lr}
    983c:	ebfffff8 	bl	9824 <uart_flush_tx>
    9840:	eb00012f 	bl	9d04 <dev_barrier>
    9844:	e3e01001 	mvn	r1, #1, 0
    9848:	e59f0008 	ldr	r0, [pc, #8]	; 9858 <uart_disable+0x20>
    984c:	ebffff86 	bl	966c <and_in32>
    9850:	eb00012b 	bl	9d04 <dev_barrier>
    9854:	e8bd8010 	pop	{r4, pc}
    9858:	20215004 	eorcs	r5, r1, r4

0000985c <kmalloc_heap_end>:
    985c:	e59f3004 	ldr	r3, [pc, #4]	; 9868 <kmalloc_heap_end+0xc>
    9860:	e5930000 	ldr	r0, [r3]
    9864:	e12fff1e 	bx	lr
    9868:	0000a0bc 	strheq	sl, [r0], -ip

0000986c <kmalloc_heap_start>:
    986c:	e59f3004 	ldr	r3, [pc, #4]	; 9878 <kmalloc_heap_start+0xc>
    9870:	e5930004 	ldr	r0, [r3, #4]
    9874:	e12fff1e 	bx	lr
    9878:	0000a0bc 	strheq	sl, [r0], -ip

0000987c <kmalloc_heap_ptr>:
    987c:	e59f3004 	ldr	r3, [pc, #4]	; 9888 <kmalloc_heap_ptr+0xc>
    9880:	e5930000 	ldr	r0, [r3]
    9884:	e12fff1e 	bx	lr
    9888:	0000a0bc 	strheq	sl, [r0], -ip

0000988c <kmalloc_init_set_start>:
    988c:	e52de004 	push	{lr}		; (str lr, [sp, #-4]!)
    9890:	e24dd00c 	sub	sp, sp, #12, 0
    9894:	e3510000 	cmp	r1, #0, 0
    9898:	0a00000a 	beq	98c8 <kmalloc_init_set_start+0x3c>
    989c:	e59f306c 	ldr	r3, [pc, #108]	; 9910 <kmalloc_init_set_start+0x84>
    98a0:	e5933000 	ldr	r3, [r3]
    98a4:	e1530000 	cmp	r3, r0
    98a8:	8a00000e 	bhi	98e8 <kmalloc_init_set_start+0x5c>
    98ac:	e59f305c 	ldr	r3, [pc, #92]	; 9910 <kmalloc_init_set_start+0x84>
    98b0:	e5830000 	str	r0, [r3]
    98b4:	e5830004 	str	r0, [r3, #4]
    98b8:	e0800001 	add	r0, r0, r1
    98bc:	e5830008 	str	r0, [r3, #8]
    98c0:	e28dd00c 	add	sp, sp, #12, 0
    98c4:	e49df004 	pop	{pc}		; (ldr pc, [sp], #4)
    98c8:	e59f3044 	ldr	r3, [pc, #68]	; 9914 <kmalloc_init_set_start+0x88>
    98cc:	e58d3000 	str	r3, [sp]
    98d0:	e3a03030 	mov	r3, #48, 0	; 0x30
    98d4:	e59f203c 	ldr	r2, [pc, #60]	; 9918 <kmalloc_init_set_start+0x8c>
    98d8:	e59f103c 	ldr	r1, [pc, #60]	; 991c <kmalloc_init_set_start+0x90>
    98dc:	e59f003c 	ldr	r0, [pc, #60]	; 9920 <kmalloc_init_set_start+0x94>
    98e0:	ebfffc14 	bl	8938 <printk>
    98e4:	ebfffeac 	bl	939c <clean_reboot>
    98e8:	e59f3020 	ldr	r3, [pc, #32]	; 9910 <kmalloc_init_set_start+0x84>
    98ec:	e5933008 	ldr	r3, [r3, #8]
    98f0:	e58d3004 	str	r3, [sp, #4]
    98f4:	e58d0000 	str	r0, [sp]
    98f8:	e3a03034 	mov	r3, #52, 0	; 0x34
    98fc:	e59f2014 	ldr	r2, [pc, #20]	; 9918 <kmalloc_init_set_start+0x8c>
    9900:	e59f1014 	ldr	r1, [pc, #20]	; 991c <kmalloc_init_set_start+0x90>
    9904:	e59f0018 	ldr	r0, [pc, #24]	; 9924 <kmalloc_init_set_start+0x98>
    9908:	ebfffc0a 	bl	8938 <printk>
    990c:	ebfffea2 	bl	939c <clean_reboot>
    9910:	0000a0bc 	strheq	sl, [r0], -ip
    9914:	00009ec8 	andeq	r9, r0, r8, asr #29
    9918:	0000a054 	andeq	sl, r0, r4, asr r0
    991c:	00009ebc 			; <UNDEFINED> instruction: 0x00009ebc
    9920:	00009d48 	andeq	r9, r0, r8, asr #26
    9924:	00009ed4 	ldrdeq	r9, [r0], -r4

00009928 <kmalloc_init>:
    9928:	e92d4010 	push	{r4, lr}
    992c:	e59f303c 	ldr	r3, [pc, #60]	; 9970 <kmalloc_init+0x48>
    9930:	e5933000 	ldr	r3, [r3]
    9934:	e3530000 	cmp	r3, #0, 0
    9938:	1a000006 	bne	9958 <kmalloc_init+0x30>
    993c:	e59f302c 	ldr	r3, [pc, #44]	; 9970 <kmalloc_init+0x48>
    9940:	e3a02001 	mov	r2, #1, 0
    9944:	e5832000 	str	r2, [r3]
    9948:	e3a01201 	mov	r1, #268435456	; 0x10000000
    994c:	e3a00601 	mov	r0, #1048576	; 0x100000
    9950:	ebffffcd 	bl	988c <kmalloc_init_set_start>
    9954:	e8bd8010 	pop	{r4, pc}
    9958:	e3a03040 	mov	r3, #64, 0	; 0x40
    995c:	e59f2010 	ldr	r2, [pc, #16]	; 9974 <kmalloc_init+0x4c>
    9960:	e59f1010 	ldr	r1, [pc, #16]	; 9978 <kmalloc_init+0x50>
    9964:	e59f0010 	ldr	r0, [pc, #16]	; 997c <kmalloc_init+0x54>
    9968:	ebfffbf2 	bl	8938 <printk>
    996c:	ebfffe8a 	bl	939c <clean_reboot>
    9970:	0000a4cc 	andeq	sl, r0, ip, asr #9
    9974:	0000a06c 	andeq	sl, r0, ip, rrx
    9978:	00009ebc 			; <UNDEFINED> instruction: 0x00009ebc
    997c:	00009f18 	andeq	r9, r0, r8, lsl pc

00009980 <kmalloc_notzero>:
    9980:	e52de004 	push	{lr}		; (str lr, [sp, #-4]!)
    9984:	e24dd00c 	sub	sp, sp, #12, 0
    9988:	e3500000 	cmp	r0, #0, 0
    998c:	0a00000a 	beq	99bc <kmalloc_notzero+0x3c>
    9990:	e2800007 	add	r0, r0, #7, 0
    9994:	e3c03007 	bic	r3, r0, #7, 0
    9998:	e59f2060 	ldr	r2, [pc, #96]	; 9a00 <kmalloc_notzero+0x80>
    999c:	e5920000 	ldr	r0, [r2]
    99a0:	e0801003 	add	r1, r0, r3
    99a4:	e5821000 	str	r1, [r2]
    99a8:	e5922008 	ldr	r2, [r2, #8]
    99ac:	e1510002 	cmp	r1, r2
    99b0:	8a000009 	bhi	99dc <kmalloc_notzero+0x5c>
    99b4:	e28dd00c 	add	sp, sp, #12, 0
    99b8:	e49df004 	pop	{pc}		; (ldr pc, [sp], #4)
    99bc:	e59f3040 	ldr	r3, [pc, #64]	; 9a04 <kmalloc_notzero+0x84>
    99c0:	e58d3000 	str	r3, [sp]
    99c4:	e3a03048 	mov	r3, #72, 0	; 0x48
    99c8:	e59f2038 	ldr	r2, [pc, #56]	; 9a08 <kmalloc_notzero+0x88>
    99cc:	e59f1038 	ldr	r1, [pc, #56]	; 9a0c <kmalloc_notzero+0x8c>
    99d0:	e59f0038 	ldr	r0, [pc, #56]	; 9a10 <kmalloc_notzero+0x90>
    99d4:	ebfffbd7 	bl	8938 <printk>
    99d8:	ebfffe6f 	bl	939c <clean_reboot>
    99dc:	e0422000 	sub	r2, r2, r0
    99e0:	e58d2004 	str	r2, [sp, #4]
    99e4:	e58d3000 	str	r3, [sp]
    99e8:	e3a0304e 	mov	r3, #78, 0	; 0x4e
    99ec:	e59f2014 	ldr	r2, [pc, #20]	; 9a08 <kmalloc_notzero+0x88>
    99f0:	e59f1014 	ldr	r1, [pc, #20]	; 9a0c <kmalloc_notzero+0x8c>
    99f4:	e59f0018 	ldr	r0, [pc, #24]	; 9a14 <kmalloc_notzero+0x94>
    99f8:	ebfffbce 	bl	8938 <printk>
    99fc:	ebfffe66 	bl	939c <clean_reboot>
    9a00:	0000a0bc 	strheq	sl, [r0], -ip
    9a04:	00009ecc 	andeq	r9, r0, ip, asr #29
    9a08:	0000a07c 	andeq	sl, r0, ip, ror r0
    9a0c:	00009ebc 			; <UNDEFINED> instruction: 0x00009ebc
    9a10:	00009d48 	andeq	r9, r0, r8, asr #26
    9a14:	00009f48 	andeq	r9, r0, r8, asr #30

00009a18 <kmalloc>:
    9a18:	e92d4030 	push	{r4, r5, lr}
    9a1c:	e24dd00c 	sub	sp, sp, #12, 0
    9a20:	e2504000 	subs	r4, r0, #0, 0
    9a24:	0a000008 	beq	9a4c <kmalloc+0x34>
    9a28:	e1a00004 	mov	r0, r4
    9a2c:	ebffffd3 	bl	9980 <kmalloc_notzero>
    9a30:	e1a05000 	mov	r5, r0
    9a34:	e1a02004 	mov	r2, r4
    9a38:	e3a01000 	mov	r1, #0, 0
    9a3c:	ebfffb9f 	bl	88c0 <memset>
    9a40:	e1a00005 	mov	r0, r5
    9a44:	e28dd00c 	add	sp, sp, #12, 0
    9a48:	e8bd8030 	pop	{r4, r5, pc}
    9a4c:	e59f3018 	ldr	r3, [pc, #24]	; 9a6c <kmalloc+0x54>
    9a50:	e58d3000 	str	r3, [sp]
    9a54:	e3a03054 	mov	r3, #84, 0	; 0x54
    9a58:	e59f2010 	ldr	r2, [pc, #16]	; 9a70 <kmalloc+0x58>
    9a5c:	e59f1010 	ldr	r1, [pc, #16]	; 9a74 <kmalloc+0x5c>
    9a60:	e59f0010 	ldr	r0, [pc, #16]	; 9a78 <kmalloc+0x60>
    9a64:	ebfffbb3 	bl	8938 <printk>
    9a68:	ebfffe4b 	bl	939c <clean_reboot>
    9a6c:	00009ecc 	andeq	r9, r0, ip, asr #29
    9a70:	0000a08c 	andeq	sl, r0, ip, lsl #1
    9a74:	00009ebc 			; <UNDEFINED> instruction: 0x00009ebc
    9a78:	00009d48 	andeq	r9, r0, r8, asr #26

00009a7c <kmalloc_aligned>:
    9a7c:	e52de004 	push	{lr}		; (str lr, [sp, #-4]!)
    9a80:	e24dd00c 	sub	sp, sp, #12, 0
    9a84:	e3500000 	cmp	r0, #0, 0
    9a88:	0a000014 	beq	9ae0 <kmalloc_aligned+0x64>
    9a8c:	e2613000 	rsb	r3, r1, #0, 0
    9a90:	e1d13003 	bics	r3, r1, r3
    9a94:	1a000019 	bne	9b00 <kmalloc_aligned+0x84>
    9a98:	e3510008 	cmp	r1, #8, 0
    9a9c:	33a01008 	movcc	r1, #8, 0
    9aa0:	e59f30c0 	ldr	r3, [pc, #192]	; 9b68 <kmalloc_aligned+0xec>
    9aa4:	e5932000 	ldr	r2, [r3]
    9aa8:	e2613000 	rsb	r3, r1, #0, 0
    9aac:	e1d1c003 	bics	ip, r1, r3
    9ab0:	1a00001b 	bne	9b24 <kmalloc_aligned+0xa8>
    9ab4:	e0822001 	add	r2, r2, r1
    9ab8:	e2422001 	sub	r2, r2, #1, 0
    9abc:	e0033002 	and	r3, r3, r2
    9ac0:	e2411001 	sub	r1, r1, #1, 0
    9ac4:	e1110003 	tst	r1, r3
    9ac8:	1a00001d 	bne	9b44 <kmalloc_aligned+0xc8>
    9acc:	e59f2094 	ldr	r2, [pc, #148]	; 9b68 <kmalloc_aligned+0xec>
    9ad0:	e5823000 	str	r3, [r2]
    9ad4:	ebffffcf 	bl	9a18 <kmalloc>
    9ad8:	e28dd00c 	add	sp, sp, #12, 0
    9adc:	e49df004 	pop	{pc}		; (ldr pc, [sp], #4)
    9ae0:	e59f3084 	ldr	r3, [pc, #132]	; 9b6c <kmalloc_aligned+0xf0>
    9ae4:	e58d3000 	str	r3, [sp]
    9ae8:	e3a0305f 	mov	r3, #95, 0	; 0x5f
    9aec:	e59f207c 	ldr	r2, [pc, #124]	; 9b70 <kmalloc_aligned+0xf4>
    9af0:	e59f107c 	ldr	r1, [pc, #124]	; 9b74 <kmalloc_aligned+0xf8>
    9af4:	e59f007c 	ldr	r0, [pc, #124]	; 9b78 <kmalloc_aligned+0xfc>
    9af8:	ebfffb8e 	bl	8938 <printk>
    9afc:	ebfffe26 	bl	939c <clean_reboot>
    9b00:	eb000046 	bl	9c20 <rpi_reset_putc>
    9b04:	e59f3070 	ldr	r3, [pc, #112]	; 9b7c <kmalloc_aligned+0x100>
    9b08:	e58d3000 	str	r3, [sp]
    9b0c:	e3a03060 	mov	r3, #96, 0	; 0x60
    9b10:	e59f2058 	ldr	r2, [pc, #88]	; 9b70 <kmalloc_aligned+0xf4>
    9b14:	e59f1058 	ldr	r1, [pc, #88]	; 9b74 <kmalloc_aligned+0xf8>
    9b18:	e59f0060 	ldr	r0, [pc, #96]	; 9b80 <kmalloc_aligned+0x104>
    9b1c:	ebfffb85 	bl	8938 <printk>
    9b20:	ebfffe1d 	bl	939c <clean_reboot>
    9b24:	e59f3058 	ldr	r3, [pc, #88]	; 9b84 <kmalloc_aligned+0x108>
    9b28:	e58d3000 	str	r3, [sp]
    9b2c:	e3a03011 	mov	r3, #17, 0
    9b30:	e59f2050 	ldr	r2, [pc, #80]	; 9b88 <kmalloc_aligned+0x10c>
    9b34:	e59f1038 	ldr	r1, [pc, #56]	; 9b74 <kmalloc_aligned+0xf8>
    9b38:	e59f0038 	ldr	r0, [pc, #56]	; 9b78 <kmalloc_aligned+0xfc>
    9b3c:	ebfffb7d 	bl	8938 <printk>
    9b40:	ebfffe15 	bl	939c <clean_reboot>
    9b44:	eb000035 	bl	9c20 <rpi_reset_putc>
    9b48:	e59f303c 	ldr	r3, [pc, #60]	; 9b8c <kmalloc_aligned+0x110>
    9b4c:	e58d3000 	str	r3, [sp]
    9b50:	e3a03068 	mov	r3, #104, 0	; 0x68
    9b54:	e59f2014 	ldr	r2, [pc, #20]	; 9b70 <kmalloc_aligned+0xf4>
    9b58:	e59f1014 	ldr	r1, [pc, #20]	; 9b74 <kmalloc_aligned+0xf8>
    9b5c:	e59f002c 	ldr	r0, [pc, #44]	; 9b90 <kmalloc_aligned+0x114>
    9b60:	ebfffb74 	bl	8938 <printk>
    9b64:	ebfffe0c 	bl	939c <clean_reboot>
    9b68:	0000a0bc 	strheq	sl, [r0], -ip
    9b6c:	00009ecc 	andeq	r9, r0, ip, asr #29
    9b70:	0000a094 	muleq	r0, r4, r0
    9b74:	00009ebc 			; <UNDEFINED> instruction: 0x00009ebc
    9b78:	00009d48 	andeq	r9, r0, r8, asr #26
    9b7c:	00009fbc 			; <UNDEFINED> instruction: 0x00009fbc
    9b80:	00009f88 	andeq	r9, r0, r8, lsl #31
    9b84:	00009fd0 	ldrdeq	r9, [r0], -r0
    9b88:	0000a0a4 	andeq	sl, r0, r4, lsr #1
    9b8c:	0000a008 	andeq	sl, r0, r8
    9b90:	00009fdc 	ldrdeq	r9, [r0], -ip

00009b94 <kfree>:
    9b94:	e12fff1e 	bx	lr

00009b98 <kfree_all>:
    9b98:	e59f3008 	ldr	r3, [pc, #8]	; 9ba8 <kfree_all+0x10>
    9b9c:	e5932004 	ldr	r2, [r3, #4]
    9ba0:	e5832000 	str	r2, [r3]
    9ba4:	e12fff1e 	bx	lr
    9ba8:	0000a0bc 	strheq	sl, [r0], -ip

00009bac <kfree_pop>:
    9bac:	e59f3048 	ldr	r3, [pc, #72]	; 9bfc <kfree_pop+0x50>
    9bb0:	e5933004 	ldr	r3, [r3, #4]
    9bb4:	e1530000 	cmp	r3, r0
    9bb8:	8a000006 	bhi	9bd8 <kfree_pop+0x2c>
    9bbc:	e59f3038 	ldr	r3, [pc, #56]	; 9bfc <kfree_pop+0x50>
    9bc0:	e5933008 	ldr	r3, [r3, #8]
    9bc4:	e1530000 	cmp	r3, r0
    9bc8:	3a000002 	bcc	9bd8 <kfree_pop+0x2c>
    9bcc:	e59f3028 	ldr	r3, [pc, #40]	; 9bfc <kfree_pop+0x50>
    9bd0:	e5830000 	str	r0, [r3]
    9bd4:	e12fff1e 	bx	lr
    9bd8:	e52de004 	push	{lr}		; (str lr, [sp, #-4]!)
    9bdc:	e24dd00c 	sub	sp, sp, #12, 0
    9be0:	e58d0000 	str	r0, [sp]
    9be4:	e3a03077 	mov	r3, #119, 0	; 0x77
    9be8:	e59f2010 	ldr	r2, [pc, #16]	; 9c00 <kfree_pop+0x54>
    9bec:	e59f1010 	ldr	r1, [pc, #16]	; 9c04 <kfree_pop+0x58>
    9bf0:	e59f0010 	ldr	r0, [pc, #16]	; 9c08 <kfree_pop+0x5c>
    9bf4:	ebfffb4f 	bl	8938 <printk>
    9bf8:	ebfffde7 	bl	939c <clean_reboot>
    9bfc:	0000a0bc 	strheq	sl, [r0], -ip
    9c00:	0000a0ac 	andeq	sl, r0, ip, lsr #1
    9c04:	00009ebc 			; <UNDEFINED> instruction: 0x00009ebc
    9c08:	0000a024 	andeq	sl, r0, r4, lsr #32

00009c0c <internal_putchar>:
    9c0c:	e92d4010 	push	{r4, lr}
    9c10:	e1a04000 	mov	r4, r0
    9c14:	ebfffeea 	bl	97c4 <uart_putc>
    9c18:	e1a00004 	mov	r0, r4
    9c1c:	e8bd8010 	pop	{r4, pc}

00009c20 <rpi_reset_putc>:
    9c20:	e59f3008 	ldr	r3, [pc, #8]	; 9c30 <rpi_reset_putc+0x10>
    9c24:	e59f2008 	ldr	r2, [pc, #8]	; 9c34 <rpi_reset_putc+0x14>
    9c28:	e5832000 	str	r2, [r3]
    9c2c:	e12fff1e 	bx	lr
    9c30:	0000a0c8 	andeq	sl, r0, r8, asr #1
    9c34:	00009c0c 	andeq	r9, r0, ip, lsl #24

00009c38 <rpi_set_putc>:
    9c38:	e59f3004 	ldr	r3, [pc, #4]	; 9c44 <rpi_set_putc+0xc>
    9c3c:	e5830000 	str	r0, [r3]
    9c40:	e12fff1e 	bx	lr
    9c44:	0000a0c8 	andeq	sl, r0, r8, asr #1

00009c48 <strcat>:
    9c48:	e1a02000 	mov	r2, r0
    9c4c:	e1a03002 	mov	r3, r2
    9c50:	e4d2c001 	ldrb	ip, [r2], #1
    9c54:	e35c0000 	cmp	ip, #0, 0
    9c58:	1afffffb 	bne	9c4c <strcat+0x4>
    9c5c:	e2433001 	sub	r3, r3, #1, 0
    9c60:	e4d12001 	ldrb	r2, [r1], #1
    9c64:	e3520000 	cmp	r2, #0, 0
    9c68:	e5e32001 	strb	r2, [r3, #1]!
    9c6c:	1afffffb 	bne	9c60 <strcat+0x18>
    9c70:	e12fff1e 	bx	lr

00009c74 <strcmp>:
    9c74:	e5d03000 	ldrb	r3, [r0]
    9c78:	e3530000 	cmp	r3, #0, 0
    9c7c:	05d12000 	ldrbeq	r2, [r1]
    9c80:	1a000003 	bne	9c94 <strcmp+0x20>
    9c84:	ea000006 	b	9ca4 <strcmp+0x30>
    9c88:	e5f03001 	ldrb	r3, [r0, #1]!
    9c8c:	e3530000 	cmp	r3, #0, 0
    9c90:	0a000005 	beq	9cac <strcmp+0x38>
    9c94:	e1a0c001 	mov	ip, r1
    9c98:	e4d12001 	ldrb	r2, [r1], #1
    9c9c:	e1520003 	cmp	r2, r3
    9ca0:	0afffff8 	beq	9c88 <strcmp+0x14>
    9ca4:	e0430002 	sub	r0, r3, r2
    9ca8:	e12fff1e 	bx	lr
    9cac:	e5dc2001 	ldrb	r2, [ip, #1]
    9cb0:	e0430002 	sub	r0, r3, r2
    9cb4:	e12fff1e 	bx	lr

00009cb8 <strcpy>:
    9cb8:	e2402001 	sub	r2, r0, #1, 0
    9cbc:	e4d13001 	ldrb	r3, [r1], #1
    9cc0:	e3530000 	cmp	r3, #0, 0
    9cc4:	e5e23001 	strb	r3, [r2, #1]!
    9cc8:	1afffffb 	bne	9cbc <strcpy+0x4>
    9ccc:	e12fff1e 	bx	lr

00009cd0 <strncmp>:
    9cd0:	e0802002 	add	r2, r0, r2
    9cd4:	ea000003 	b	9ce8 <strncmp+0x18>
    9cd8:	e4d03001 	ldrb	r3, [r0], #1
    9cdc:	e4d1c001 	ldrb	ip, [r1], #1
    9ce0:	e153000c 	cmp	r3, ip
    9ce4:	1a000003 	bne	9cf8 <strncmp+0x28>
    9ce8:	e1500002 	cmp	r0, r2
    9cec:	1afffff9 	bne	9cd8 <strncmp+0x8>
    9cf0:	e3a00000 	mov	r0, #0, 0
    9cf4:	e12fff1e 	bx	lr
    9cf8:	e043000c 	sub	r0, r3, ip
    9cfc:	e12fff1e 	bx	lr

00009d00 <reboot_callout>:
    9d00:	e12fff1e 	bx	lr

00009d04 <dev_barrier>:
    9d04:	ea000002 	b	9d14 <dsb>

00009d08 <dmb>:
    9d08:	e3a00000 	mov	r0, #0, 0
    9d0c:	ee070fba 	mcr	15, 0, r0, cr7, cr10, {5}
    9d10:	e12fff1e 	bx	lr

00009d14 <dsb>:
    9d14:	ee070f9a 	mcr	15, 0, r0, cr7, cr10, {4}
    9d18:	e12fff1e 	bx	lr

00009d1c <__code_end__>:
    9d1c:	00000000 	andeq	r0, r0, r0

Disassembly of section .rodata:

00009d20 <__FUNCTION__.4000-0x16c>:
    9d20:	706f6f6c 	rsbvc	r6, pc, ip, ror #30
    9d24:	0a642520 	beq	19131ac <__bss_end__+0x1908cdc>
    9d28:	00000000 	andeq	r0, r0, r0
    9d2c:	656e6f64 	strbvs	r6, [lr, #-3940]!	; 0xfffff09c
    9d30:	00000a21 	andeq	r0, r0, r1, lsr #20
    9d34:	696c2f2e 	stmdbvs	ip!, {r1, r2, r3, r5, r8, r9, sl, fp, sp}^
    9d38:	762f6362 	strtvc	r6, [pc], -r2, ror #6
    9d3c:	72702d61 	rsbsvc	r2, r0, #6208	; 0x1840
    9d40:	6b746e69 	blvs	1d256ec <__bss_end__+0x1d1b21c>
    9d44:	0000632e 	andeq	r6, r0, lr, lsr #6
    9d48:	494e4150 	stmdbmi	lr, {r4, r6, r8, lr}^
    9d4c:	73253a43 			; <UNDEFINED> instruction: 0x73253a43
    9d50:	3a73253a 	bcc	1cd3240 <__bss_end__+0x1cc8d70>
    9d54:	253a6425 	ldrcs	r6, [sl, #-1061]!	; 0xfffffbdb
    9d58:	00000a73 	andeq	r0, r0, r3, ror sl
    9d5c:	00000030 	andeq	r0, r0, r0, lsr r0
    9d60:	33323130 	teqcc	r2, #12
    9d64:	37363534 			; <UNDEFINED> instruction: 0x37363534
    9d68:	62613938 	rsbvs	r3, r1, #56, 18	; 0xe0000
    9d6c:	66656463 	strbtvs	r6, [r5], -r3, ror #8
    9d70:	00000000 	andeq	r0, r0, r0
    9d74:	00003130 	andeq	r3, r0, r0, lsr r1
    9d78:	33323130 	teqcc	r2, #12
    9d7c:	37363534 			; <UNDEFINED> instruction: 0x37363534
    9d80:	00003938 	andeq	r3, r0, r8, lsr r9
    9d84:	63747570 	cmnvs	r4, #112, 10	; 0x1c000000
    9d88:	0070665f 	rsbseq	r6, r0, pc, asr r6
    9d8c:	74646977 	strbtvc	r6, [r4], #-2423	; 0xfffff689
    9d90:	203c2068 	eorscs	r2, ip, r8, rrx
    9d94:	00003233 	andeq	r3, r0, r3, lsr r2
    9d98:	00786c6c 	rsbseq	r6, r8, ip, ror #24
    9d9c:	253d3078 	ldrcs	r3, [sp, #-120]!	; 0xffffff88
    9da0:	00000a78 	andeq	r0, r0, r8, ror sl
    9da4:	253d3178 	ldrcs	r3, [sp, #-376]!	; 0xfffffe88
    9da8:	00000a78 	andeq	r0, r0, r8, ror sl
    9dac:	00646c6c 	rsbeq	r6, r4, ip, ror #24
    9db0:	6e727473 	mrcvs	4, 3, r7, cr2, cr3, {3}
    9db4:	28706d63 	ldmdacs	r0!, {r0, r1, r5, r6, r8, sl, fp, sp, lr}^
    9db8:	202c7974 	eorcs	r7, ip, r4, ror r9
    9dbc:	786c6c22 	stmdavc	ip!, {r1, r5, sl, fp, sp, lr}^
    9dc0:	33202c22 			; <UNDEFINED> instruction: 0x33202c22
    9dc4:	3d3d2029 	ldccc	0, cr2, [sp, #-164]!	; 0xffffff5c
    9dc8:	7c203020 	stcvc	0, cr3, [r0], #-128	; 0xffffff80
    9dcc:	7473207c 	ldrbtvc	r2, [r3], #-124	; 0xffffff84
    9dd0:	6d636e72 	stclvs	14, cr6, [r3, #-456]!	; 0xfffffe38
    9dd4:	79742870 	ldmdbvc	r4!, {r4, r5, r6, fp, sp}^
    9dd8:	6c22202c 	stcvs	0, cr2, [r2], #-176	; 0xffffff50
    9ddc:	2c22646c 	cfstrscs	mvf6, [r2], #-432	; 0xfffffe50
    9de0:	20293320 	eorcs	r3, r9, r0, lsr #6
    9de4:	30203d3d 	eorcc	r3, r0, sp, lsr sp
    9de8:	00000000 	andeq	r0, r0, r0
    9dec:	494e4150 	stmdbmi	lr, {r4, r6, r8, lr}^
    9df0:	73253a43 			; <UNDEFINED> instruction: 0x73253a43
    9df4:	3a73253a 	bcc	1cd32e4 <__bss_end__+0x1cc8e14>
    9df8:	693a6425 	ldmdbvs	sl!, {r0, r2, r5, sl, sp, lr}
    9dfc:	736f706d 	cmnvc	pc, #109, 0	; 0x6d
    9e00:	6c626973 			; <UNDEFINED> instruction: 0x6c626973
    9e04:	66203a65 	strtvs	r3, [r0], -r5, ror #20
    9e08:	3c3d746d 	cfldrscc	mvf7, [sp], #-436	; 0xfffffe4c
    9e0c:	0a3e7325 	beq	fa6aa8 <__bss_end__+0xf9c5d8>
    9e10:	0000000a 	andeq	r0, r0, sl
    9e14:	494e4150 	stmdbmi	lr, {r4, r6, r8, lr}^
    9e18:	73253a43 			; <UNDEFINED> instruction: 0x73253a43
    9e1c:	3a73253a 	bcc	1cd330c <__bss_end__+0x1cc8e3c>
    9e20:	663a6425 	ldrtvs	r6, [sl], -r5, lsr #8
    9e24:	74616f6c 	strbtvc	r6, [r1], #-3948	; 0xfffff094
    9e28:	746f6e20 	strbtvc	r6, [pc], #-3616	; 9e30 <__code_end__+0x114>
    9e2c:	616e6520 	cmnvs	lr, r0, lsr #10
    9e30:	64656c62 	strbtvs	r6, [r5], #-3170	; 0xfffff39e
    9e34:	0a212121 	beq	8522c0 <__bss_end__+0x847df0>
    9e38:	00000000 	andeq	r0, r0, r0
    9e3c:	6e697270 	mcrvs	2, 3, r7, cr9, cr0, {3}
    9e40:	203a6b74 	eorscs	r6, sl, r4, ror fp
    9e44:	20746f6e 	rsbscs	r6, r4, lr, ror #30
    9e48:	646e6168 	strbtvs	r6, [lr], #-360	; 0xfffffe98
    9e4c:	676e696c 	strbvs	r6, [lr, -ip, ror #18]!
    9e50:	65707320 	ldrbvs	r7, [r0, #-800]!	; 0xfffffce0
    9e54:	69666963 	stmdbvs	r6!, {r0, r1, r5, r6, r8, fp, sp, lr}^
    9e58:	27207265 	strcs	r7, [r0, -r5, ror #4]!
    9e5c:	20276325 	eorcs	r6, r7, r5, lsr #6
    9e60:	63736128 	cmnvs	r3, #10
    9e64:	253d6969 	ldrcs	r6, [sp, #-2409]!	; 0xfffff697
    9e68:	000a2964 	andeq	r2, sl, r4, ror #18
    9e6c:	494e4150 	stmdbmi	lr, {r4, r6, r8, lr}^
    9e70:	73253a43 			; <UNDEFINED> instruction: 0x73253a43
    9e74:	3a73253a 	bcc	1cd3364 <__bss_end__+0x1cc8e94>
    9e78:	703a6425 	eorsvc	r6, sl, r5, lsr #8
    9e7c:	746e6972 	strbtvc	r6, [lr], #-2418	; 0xfffff68e
    9e80:	7265206b 	rsbvc	r2, r5, #107, 0	; 0x6b
    9e84:	0a726f72 	beq	1ca5c54 <__bss_end__+0x1c9b784>
    9e88:	0000000a 	andeq	r0, r0, sl

00009e8c <__FUNCTION__.4000>:
    9e8c:	74696d65 	strbtvc	r6, [r9], #-3429	; 0xfffff29b
    9e90:	00000000 	andeq	r0, r0, r0

00009e94 <__FUNCTION__.3948>:
    9e94:	5f697072 	svcpl	0x00697072
    9e98:	5f746573 	svcpl	0x00746573
    9e9c:	7074756f 	rsbsvc	r7, r4, pc, ror #10
    9ea0:	00007475 	andeq	r7, r0, r5, ror r4

00009ea4 <__FUNCTION__.4026>:
    9ea4:	705f6176 	subsvc	r6, pc, r6, ror r1	; <UNPREDICTABLE>
    9ea8:	746e6972 	strbtvc	r6, [lr], #-2418	; 0xfffff68e
    9eac:	0000006b 	andeq	r0, r0, fp, rrx
    9eb0:	454e4f44 	strbmi	r4, [lr, #-3908]	; 0xfffff0bc
    9eb4:	0a212121 	beq	852340 <__bss_end__+0x847e70>
    9eb8:	00000000 	andeq	r0, r0, r0
    9ebc:	6c616d6b 	stclvs	13, cr6, [r1], #-428	; 0xfffffe54
    9ec0:	2e636f6c 	cdpcs	15, 6, cr6, cr3, cr12, {3}
    9ec4:	00000063 	andeq	r0, r0, r3, rrx
    9ec8:	5f78616d 	svcpl	0x0078616d
    9ecc:	7479626e 	ldrbtvc	r6, [r9], #-622	; 0xfffffd92
    9ed0:	00007365 	andeq	r7, r0, r5, ror #6
    9ed4:	494e4150 	stmdbmi	lr, {r4, r6, r8, lr}^
    9ed8:	73253a43 			; <UNDEFINED> instruction: 0x73253a43
    9edc:	3a73253a 	bcc	1cd33cc <__bss_end__+0x1cc8efc>
    9ee0:	733a6425 	teqvc	sl, #620756992	; 0x25000000
    9ee4:	69747465 	ldmdbvs	r4!, {r0, r2, r5, r6, sl, ip, sp, lr}^
    9ee8:	6820676e 	stmdavs	r0!, {r1, r2, r3, r5, r6, r8, r9, sl, sp, lr}
    9eec:	20706165 	rsbscs	r6, r0, r5, ror #2
    9ef0:	25206f74 	strcs	r6, [r0, #-3956]!	; 0xfffff08c
    9ef4:	77203a70 			; <UNDEFINED> instruction: 0x77203a70
    9ef8:	206c6c69 	rsbcs	r6, ip, r9, ror #24
    9efc:	20746968 	rsbscs	r6, r4, r8, ror #18
    9f00:	20656874 	rsbcs	r6, r5, r4, ror r8
    9f04:	20646c6f 	rsbcs	r6, r4, pc, ror #24
    9f08:	70616568 	rsbvc	r6, r1, r8, ror #10
    9f0c:	20746120 	rsbscs	r6, r4, r0, lsr #2
    9f10:	0a0a7025 	beq	2a5fac <__bss_end__+0x29badc>
    9f14:	00000000 	andeq	r0, r0, r0
    9f18:	494e4150 	stmdbmi	lr, {r4, r6, r8, lr}^
    9f1c:	73253a43 			; <UNDEFINED> instruction: 0x73253a43
    9f20:	3a73253a 	bcc	1cd3410 <__bss_end__+0x1cc8f40>
    9f24:	613a6425 	teqvs	sl, r5, lsr #8
    9f28:	6165726c 	cmnvs	r5, ip, ror #4
    9f2c:	63207964 			; <UNDEFINED> instruction: 0x63207964
    9f30:	656c6c61 	strbvs	r6, [ip, #-3169]!	; 0xfffff39f
    9f34:	6d6b2064 	stclvs	0, cr2, [fp, #-400]!	; 0xfffffe70
    9f38:	6f6c6c61 	svcvs	0x006c6c61
    9f3c:	6e695f63 	cdpvs	15, 6, cr5, cr9, cr3, {3}
    9f40:	0a0a7469 	beq	2a70ec <__bss_end__+0x29cc1c>
    9f44:	00000000 	andeq	r0, r0, r0
    9f48:	494e4150 	stmdbmi	lr, {r4, r6, r8, lr}^
    9f4c:	73253a43 			; <UNDEFINED> instruction: 0x73253a43
    9f50:	3a73253a 	bcc	1cd3440 <__bss_end__+0x1cc8f70>
    9f54:	253a6425 	ldrcs	r6, [sl, #-1061]!	; 0xfffffbdb
    9f58:	626e2064 	rsbvs	r2, lr, #100, 0	; 0x64
    9f5c:	73657479 	cmnvc	r5, #2030043136	; 0x79000000
    9f60:	63786520 	cmnvs	r8, #32, 10	; 0x8000000
    9f64:	65646565 	strbvs	r6, [r4, #-1381]!	; 0xfffffa9b
    9f68:	69732064 	ldmdbvs	r3!, {r2, r5, r6, sp}^
    9f6c:	6f20657a 	svcvs	0x0020657a
    9f70:	65682066 	strbvs	r2, [r8, #-102]!	; 0xffffff9a
    9f74:	62207061 	eorvs	r7, r0, #97, 0	; 0x61
    9f78:	75252079 	strvc	r2, [r5, #-121]!	; 0xffffff87
    9f7c:	79626e20 	stmdbvc	r2!, {r5, r9, sl, fp, sp, lr}^
    9f80:	0a736574 	beq	1ce3558 <__bss_end__+0x1cd9088>
    9f84:	0000000a 	andeq	r0, r0, sl
    9f88:	4f525245 	svcmi	0x00525245
    9f8c:	73253a52 			; <UNDEFINED> instruction: 0x73253a52
    9f90:	3a73253a 	bcc	1cd3480 <__bss_end__+0x1cc8fb0>
    9f94:	203a6425 	eorscs	r6, sl, r5, lsr #8
    9f98:	534c4146 	movtpl	r4, #49478	; 0xc146
    9f9c:	253c2845 	ldrcs	r2, [ip, #-2117]!	; 0xfffff7bb
    9fa0:	3a293e73 	bcc	a59974 <__bss_end__+0xa4f4a4>
    9fa4:	73736120 	cmnvc	r3, #8
    9fa8:	6e696d75 	mcrvs	13, 3, r6, cr9, cr5, {3}
    9fac:	6f702067 	svcvs	0x00702067
    9fb0:	20726577 	rsbscs	r6, r2, r7, ror r5
    9fb4:	7420666f 	strtvc	r6, [r0], #-1647	; 0xfffff991
    9fb8:	000a6f77 	andeq	r6, sl, r7, ror pc
    9fbc:	705f7369 	subsvc	r7, pc, r9, ror #6
    9fc0:	2832776f 	ldmdacs	r2!, {r0, r1, r2, r3, r5, r6, r8, r9, sl, ip, sp, lr}
    9fc4:	67696c61 	strbvs	r6, [r9, -r1, ror #24]!
    9fc8:	6e656d6e 	cdpvs	13, 6, cr6, cr5, cr14, {3}
    9fcc:	00002974 	andeq	r2, r0, r4, ror r9
    9fd0:	705f7369 	subsvc	r7, pc, r9, ror #6
    9fd4:	2832776f 	ldmdacs	r2!, {r0, r1, r2, r3, r5, r6, r8, r9, sl, ip, sp, lr}
    9fd8:	0000296e 	andeq	r2, r0, lr, ror #18
    9fdc:	4f525245 	svcmi	0x00525245
    9fe0:	73253a52 			; <UNDEFINED> instruction: 0x73253a52
    9fe4:	3a73253a 	bcc	1cd34d4 <__bss_end__+0x1cc9004>
    9fe8:	203a6425 	eorscs	r6, sl, r5, lsr #8
    9fec:	534c4146 	movtpl	r4, #49478	; 0xc146
    9ff0:	253c2845 	ldrcs	r2, [ip, #-2117]!	; 0xfffff7bb
    9ff4:	3a293e73 	bcc	a599c8 <__bss_end__+0xa4f4f8>
    9ff8:	706d6920 	rsbvc	r6, sp, r0, lsr #18
    9ffc:	6973736f 	ldmdbvs	r3!, {r0, r1, r2, r3, r5, r6, r8, r9, ip, sp, lr}^
    a000:	0a656c62 	beq	1965190 <__bss_end__+0x195acc0>
    a004:	00000000 	andeq	r0, r0, r0
    a008:	615f7369 	cmpvs	pc, r9, ror #6
    a00c:	6e67696c 	vnmulvs.f16	s13, s14, s25	; <UNPREDICTABLE>
    a010:	68286465 	stmdavs	r8!, {r0, r2, r5, r6, sl, sp, lr}
    a014:	6c61202c 	stclvs	0, cr2, [r1], #-176	; 0xffffff50
    a018:	6d6e6769 	stclvs	7, cr6, [lr, #-420]!	; 0xfffffe5c
    a01c:	29746e65 	ldmdbcs	r4!, {r0, r2, r5, r6, r9, sl, fp, sp, lr}^
    a020:	00000000 	andeq	r0, r0, r0
    a024:	494e4150 	stmdbmi	lr, {r4, r6, r8, lr}^
    a028:	73253a43 			; <UNDEFINED> instruction: 0x73253a43
    a02c:	3a73253a 	bcc	1cd351c <__bss_end__+0x1cc904c>
    a030:	703a6425 	eorsvc	r6, sl, r5, lsr #8
    a034:	746e696f 	strbtvc	r6, [lr], #-2415	; 0xfffff691
    a038:	25207265 	strcs	r7, [r0, #-613]!	; 0xfffffd9b
    a03c:	61772070 	cmnvs	r7, r0, ror r0
    a040:	656e2073 	strbvs	r2, [lr, #-115]!	; 0xffffff8d
    a044:	20726576 	rsbscs	r6, r2, r6, ror r5
    a048:	6f6c6c61 	svcvs	0x006c6c61
    a04c:	65746163 	ldrbvs	r6, [r4, #-355]!	; 0xfffffe9d
    a050:	000a0a64 	andeq	r0, sl, r4, ror #20

0000a054 <__FUNCTION__.7>:
    a054:	6c616d6b 	stclvs	13, cr6, [r1], #-428	; 0xfffffe54
    a058:	5f636f6c 	svcpl	0x00636f6c
    a05c:	74696e69 	strbtvc	r6, [r9], #-3689	; 0xfffff197
    a060:	7465735f 	strbtvc	r7, [r5], #-863	; 0xfffffca1
    a064:	6174735f 	cmnvs	r4, pc, asr r3
    a068:	00007472 	andeq	r7, r0, r2, ror r4

0000a06c <__FUNCTION__.5>:
    a06c:	6c616d6b 	stclvs	13, cr6, [r1], #-428	; 0xfffffe54
    a070:	5f636f6c 	svcpl	0x00636f6c
    a074:	74696e69 	strbtvc	r6, [r9], #-3689	; 0xfffff197
    a078:	00000000 	andeq	r0, r0, r0

0000a07c <__FUNCTION__.4>:
    a07c:	6c616d6b 	stclvs	13, cr6, [r1], #-428	; 0xfffffe54
    a080:	5f636f6c 	svcpl	0x00636f6c
    a084:	7a746f6e 	bvc	1d25e44 <__bss_end__+0x1d1b974>
    a088:	006f7265 	rsbeq	r7, pc, r5, ror #4

0000a08c <__FUNCTION__.2>:
    a08c:	6c616d6b 	stclvs	13, cr6, [r1], #-428	; 0xfffffe54
    a090:	00636f6c 	rsbeq	r6, r3, ip, ror #30

0000a094 <__FUNCTION__.1>:
    a094:	6c616d6b 	stclvs	13, cr6, [r1], #-428	; 0xfffffe54
    a098:	5f636f6c 	svcpl	0x00636f6c
    a09c:	67696c61 	strbvs	r6, [r9, -r1, ror #24]!
    a0a0:	0064656e 	rsbeq	r6, r4, lr, ror #10

0000a0a4 <__FUNCTION__.3>:
    a0a4:	6e756f72 	mrcvs	15, 3, r6, cr5, cr2, {3}
    a0a8:	00707564 	rsbseq	r7, r0, r4, ror #10

0000a0ac <__FUNCTION__.0>:
    a0ac:	6572666b 	ldrbvs	r6, [r2, #-1643]!	; 0xfffff995
    a0b0:	6f705f65 	svcvs	0x00705f65
    a0b4:	Address 0x000000000000a0b4 is out of bounds.


Disassembly of section .data:

0000a0b8 <putk>:
    a0b8:	00008990 	muleq	r0, r0, r9

0000a0bc <heap>:
    a0bc:	0000a4d0 	ldrdeq	sl, [r0], -r0

0000a0c0 <heap_start>:
    a0c0:	0000a4d0 	ldrdeq	sl, [r0], -r0

0000a0c4 <heap_end>:
    a0c4:	0020a4d0 	ldrdeq	sl, [r0], -r0	; <UNPREDICTABLE>

0000a0c8 <rpi_putchar>:
    a0c8:	00009c0c 	andeq	r9, r0, ip, lsl #24

Disassembly of section .bss:

0000a0cc <__bss_start__>:
	...

0000a4cc <init_p.6>:
    a4cc:	00000000 	andeq	r0, r0, r0

Disassembly of section .ARM.attributes:

00000000 <.ARM.attributes>:
   0:	00002a41 	andeq	r2, r0, r1, asr #20
   4:	61656100 	cmnvs	r5, r0, lsl #2
   8:	01006962 	tsteq	r0, r2, ror #18
   c:	00000020 	andeq	r0, r0, r0, lsr #32
  10:	4b5a3605 	blmi	168d82c <__bss_end__+0x168335c>
  14:	08070600 	stmdaeq	r7, {r9, sl}
  18:	12010901 	andne	r0, r1, #16384	; 0x4000
  1c:	15011404 	strne	r1, [r1, #-1028]	; 0xfffffbfc
  20:	18031701 	stmdane	r3, {r0, r8, r9, sl, ip}
  24:	22011a01 	andcs	r1, r1, #4096	; 0x1000
  28:	Address 0x0000000000000028 is out of bounds.


Disassembly of section .comment:

00000000 <.comment>:
   0:	3a434347 	bcc	10d0d24 <__bss_end__+0x10c6854>
   4:	4e472820 	cdpmi	8, 4, cr2, cr7, cr0, {1}
   8:	6f542055 	svcvs	0x00542055
   c:	20736c6f 	rsbscs	r6, r3, pc, ror #24
  10:	20726f66 	rsbscs	r6, r2, r6, ror #30
  14:	206d7241 	rsbcs	r7, sp, r1, asr #4
  18:	65626d45 	strbvs	r6, [r2, #-3397]!	; 0xfffff2bb
  1c:	64656464 	strbtvs	r6, [r5], #-1124	; 0xfffffb9c
  20:	6f725020 	svcvs	0x00725020
  24:	73736563 	cmnvc	r3, #415236096	; 0x18c00000
  28:	2073726f 	rsbscs	r7, r3, pc, ror #4
  2c:	30322d39 	eorscc	r2, r2, r9, lsr sp
  30:	712d3931 			; <UNDEFINED> instruction: 0x712d3931
  34:	616d2d34 	cmnvs	sp, r4, lsr sp
  38:	29726f6a 	ldmdbcs	r2!, {r1, r3, r5, r6, r8, r9, sl, fp, sp, lr}^
  3c:	322e3920 	eorcc	r3, lr, #32, 18	; 0x80000
  40:	3220312e 	eorcc	r3, r0, #-2147483637	; 0x8000000b
  44:	31393130 	teqcc	r9, r0, lsr r1
  48:	20353230 	eorscs	r3, r5, r0, lsr r2
  4c:	6c657228 	sfmvs	f7, 2, [r5], #-160	; 0xffffff60
  50:	65736165 	ldrbvs	r6, [r3, #-357]!	; 0xfffffe9b
  54:	415b2029 	cmpmi	fp, r9, lsr #32
  58:	612f4d52 			; <UNDEFINED> instruction: 0x612f4d52
  5c:	392d6d72 	pushcc	{r1, r4, r5, r6, r8, sl, fp, sp, lr}
  60:	6172622d 	cmnvs	r2, sp, lsr #4
  64:	2068636e 	rsbcs	r6, r8, lr, ror #6
  68:	69766572 	ldmdbvs	r6!, {r1, r4, r5, r6, r8, sl, sp, lr}^
  6c:	6e6f6973 			; <UNDEFINED> instruction: 0x6e6f6973
  70:	37373220 	ldrcc	r3, [r7, -r0, lsr #4]!
  74:	5d393935 			; <UNDEFINED> instruction: 0x5d393935
  78:	43434700 	movtmi	r4, #14080	; 0x3700
  7c:	4728203a 			; <UNDEFINED> instruction: 0x4728203a
  80:	5420554e 	strtpl	r5, [r0], #-1358	; 0xfffffab2
  84:	636c6f6f 	cmnvs	ip, #444	; 0x1bc
  88:	6e696168 	powvsez	f6, f1, #0.0
  8c:	726f6620 	rsbvc	r6, pc, #32, 12	; 0x2000000
  90:	65687420 	strbvs	r7, [r8, #-1056]!	; 0xfffffbe0
  94:	6d724120 	ldfvse	f4, [r2, #-128]!	; 0xffffff80
  98:	63724120 	cmnvs	r2, #8
  9c:	65746968 	ldrbvs	r6, [r4, #-2408]!	; 0xfffff698
  a0:	72757463 	rsbsvc	r7, r5, #1660944384	; 0x63000000
  a4:	31312065 	teqcc	r1, r5, rrx
  a8:	322d322e 	eorcc	r3, sp, #-536870910	; 0xe0000002
  ac:	2e323230 	mrccs	2, 1, r3, cr2, cr0, {1}
  b0:	28203230 	stmdacs	r0!, {r4, r5, r9, ip, sp}
  b4:	2d6d7261 	sfmcs	f7, 2, [sp, #-388]!	; 0xfffffe7c
  b8:	312e3131 			; <UNDEFINED> instruction: 0x312e3131
  bc:	20292934 	eorcs	r2, r9, r4, lsr r9
  c0:	322e3131 	eorcc	r3, lr, #1073741836	; 0x4000000c
  c4:	3220312e 	eorcc	r3, r0, #-2147483637	; 0x8000000b
  c8:	30323230 	eorscc	r3, r2, r0, lsr r2
  cc:	00313131 	eorseq	r3, r1, r1, lsr r1
  d0:	3a434347 	bcc	10d0df4 <__bss_end__+0x10c6924>
  d4:	4e472820 	cdpmi	8, 4, cr2, cr7, cr0, {1}
  d8:	72412055 	subvc	r2, r1, #85, 0	; 0x55
  dc:	6d45206d 	stclvs	0, cr2, [r5, #-436]	; 0xfffffe4c
  e0:	64646562 	strbtvs	r6, [r4], #-1378	; 0xfffffa9e
  e4:	54206465 	strtpl	r6, [r0], #-1125	; 0xfffffb9b
  e8:	636c6f6f 	cmnvs	ip, #444	; 0x1bc
  ec:	6e696168 	powvsez	f6, f1, #0.0
  f0:	2e303120 	rsfcssp	f3, f0, f0
  f4:	30322d33 	eorscc	r2, r2, r3, lsr sp
  f8:	312e3132 			; <UNDEFINED> instruction: 0x312e3132
  fc:	31202930 			; <UNDEFINED> instruction: 0x31202930
 100:	2e332e30 	mrccs	14, 1, r2, cr3, cr0, {1}
 104:	30322031 	eorscc	r2, r2, r1, lsr r0
 108:	38303132 	ldmdacc	r0!, {r1, r4, r5, r8, ip, sp}
 10c:	28203432 	stmdacs	r0!, {r1, r4, r5, sl, ip, sp}
 110:	656c6572 	strbvs	r6, [ip, #-1394]!	; 0xfffffa8e
 114:	29657361 	stmdbcs	r5!, {r0, r5, r6, r8, r9, ip, sp, lr}^
	...

Disassembly of section .debug_info:

00000000 <.debug_info>:
       0:	000002a4 	andeq	r0, r0, r4, lsr #5
       4:	00000004 	andeq	r0, r0, r4
       8:	01040000 	mrseq	r0, (UNDEF: 4)
       c:	000000d4 	ldrdeq	r0, [r0], -r4
      10:	0001890c 	andeq	r8, r1, ip, lsl #18
      14:	00005d00 	andeq	r5, r0, r0, lsl #26
      18:	00804000 	addeq	r4, r0, r0
      1c:	00009800 	andeq	r9, r0, r0, lsl #16
      20:	00000000 	andeq	r0, r0, r0
      24:	05040200 	streq	r0, [r4, #-512]	; 0xfffffe00
      28:	00746e69 	rsbseq	r6, r4, r9, ror #28
      2c:	9e070403 	cdpls	4, 0, cr0, cr7, cr3, {0}
      30:	04000001 	streq	r0, [r0], #-1
      34:	0000002c 	andeq	r0, r0, ip, lsr #32
      38:	00002c05 	andeq	r2, r0, r5, lsl #24
      3c:	06010300 	streq	r0, [r1], -r0, lsl #6
      40:	0000008f 	andeq	r0, r0, pc, lsl #1
      44:	d5050203 	strle	r0, [r5, #-515]	; 0xfffffdfd
      48:	03000001 	movweq	r0, #1
      4c:	01c00504 	biceq	r0, r0, r4, lsl #10
      50:	08030000 	stmdaeq	r3, {}	; <UNPREDICTABLE>
      54:	0001bb05 	andeq	fp, r1, r5, lsl #22
      58:	08010300 	stmdaeq	r1, {r8, r9}
      5c:	0000008d 	andeq	r0, r0, sp, lsl #1
      60:	a4070203 	strge	r0, [r7], #-515	; 0xfffffdfd
      64:	03000000 	movweq	r0, #0
      68:	01990704 	orrseq	r0, r9, r4, lsl #14
      6c:	08030000 	stmdaeq	r3, {}	; <UNPREDICTABLE>
      70:	00019407 	andeq	r9, r1, r7, lsl #8
      74:	00250600 	eoreq	r0, r5, r0, lsl #12
      78:	00840000 	addeq	r0, r4, r0
      7c:	25070000 	strcs	r0, [r7, #-0]
      80:	00000000 	andeq	r0, r0, r0
      84:	0001c908 	andeq	ip, r1, r8, lsl #18
      88:	0e1c0200 	cdpeq	2, 1, cr0, cr12, cr0, {0}
      8c:	00000090 	muleq	r0, r0, r0
      90:	00750409 	rsbseq	r0, r5, r9, lsl #8
      94:	25060000 	strcs	r0, [r6, #-0]
      98:	a5000000 	strge	r0, [r0, #-0]
      9c:	07000000 	streq	r0, [r0, -r0]
      a0:	000000a5 	andeq	r0, r0, r5, lsr #1
      a4:	b2040900 	andlt	r0, r4, #0, 18
      a8:	03000000 	movweq	r0, #0
      ac:	00960801 	addseq	r0, r6, r1, lsl #16
      b0:	ab050000 	blge	1400b8 <__bss_end__+0x135be8>
      b4:	08000000 	stmdaeq	r0, {}	; <UNPREDICTABLE>
      b8:	00000598 	muleq	r0, r8, r5
      bc:	c30e2102 	movwgt	r2, #57602	; 0xe102
      c0:	09000000 	stmdbeq	r0, {}	; <UNPREDICTABLE>
      c4:	00009604 	andeq	r9, r0, r4, lsl #12
      c8:	00150a00 	andseq	r0, r5, r0, lsl #20
      cc:	73030000 	movwvc	r0, #12288	; 0x3000
      d0:	0000d91b 	andeq	sp, r0, fp, lsl r9
      d4:	20001c00 	andcs	r1, r0, r0, lsl #24
      d8:	33040920 	movwcc	r0, #18720	; 0x4920
      dc:	0a000000 	beq	e4 <__code_start__-0x7f1c>
      e0:	0000000b 	andeq	r0, r0, fp
      e4:	d91b7403 	ldmdble	fp, {r0, r1, sl, ip, sp, lr}
      e8:	28000000 	stmdacs	r0, {}	; <UNPREDICTABLE>
      ec:	0a202000 	beq	8080f4 <__bss_end__+0x7fdc24>
      f0:	000001ab 	andeq	r0, r0, fp, lsr #3
      f4:	d91b7503 	ldmdble	fp, {r0, r1, r8, sl, ip, sp, lr}
      f8:	34000000 	strcc	r0, [r0], #-0
      fc:	0b202000 	bleq	808104 <__bss_end__+0x7fdc34>
     100:	00000027 	andeq	r0, r0, r7, lsr #32
     104:	38179603 	ldmdacc	r7, {r0, r1, r9, sl, ip, pc}
     108:	10000000 	andne	r0, r0, r0
     10c:	0001b50c 	andeq	fp, r1, ip, lsl #10
     110:	1c030400 	cfstrsne	mvf0, [r3], {-0}
     114:	00000118 	andeq	r0, r0, r8, lsl r1
     118:	011e0409 	tsteq	lr, r9, lsl #8
     11c:	000d0000 	andeq	r0, sp, r0
     120:	0e000000 	cdpeq	0, 0, cr0, cr0, cr0, {0}
     124:	00590107 	subseq	r0, r9, r7, lsl #2
     128:	0a010000 	beq	40130 <__bss_end__+0x35c60>
     12c:	00013806 	andeq	r3, r1, r6, lsl #16
     130:	001f0f00 	andseq	r0, pc, r0, lsl #30
     134:	00150000 	andseq	r0, r5, r0
     138:	00004110 	andeq	r4, r0, r0, lsl r1
     13c:	060c0100 	streq	r0, [ip], -r0, lsl #2
     140:	00008040 	andeq	r8, r0, r0, asr #32
     144:	00000098 	muleq	r0, r8, r0
     148:	02539c01 	subseq	r9, r3, #256	; 0x100
     14c:	490b0000 	stmdbmi	fp, {}	; <UNPREDICTABLE>
     150:	01000000 	mrseq	r0, (UNDEF: 0)
     154:	002c0e13 	eoreq	r0, ip, r3, lsl lr
     158:	11100000 	tstne	r0, r0
     15c:	14010068 	strne	r0, [r1], #-104	; 0xffffff98
     160:	00010c0b 	andeq	r0, r1, fp, lsl #24
     164:	00000400 	andeq	r0, r0, r0, lsl #8
     168:	00000000 	andeq	r0, r0, r0
     16c:	00001200 	andeq	r1, r0, r0, lsl #4
     170:	020b0000 	andeq	r0, fp, #0, 0
     174:	6a110000 	bvs	44017c <__bss_end__+0x435cac>
     178:	0d170100 	ldfeqs	f0, [r7, #-0]
     17c:	00000025 	andeq	r0, r0, r5, lsr #32
     180:	00000026 	andeq	r0, r0, r6, lsr #32
     184:	00000022 	andeq	r0, r0, r2, lsr #32
     188:	00001812 	andeq	r1, r0, r2, lsl r8
     18c:	0001f400 	andeq	pc, r1, r0, lsl #8
     190:	00691100 	rsbeq	r1, r9, r0, lsl #2
     194:	25111901 	ldrcs	r1, [r1, #-2305]	; 0xfffff6ff
     198:	4d000000 	stcmi	0, cr0, [r0, #-0]
     19c:	45000000 	strmi	r0, [r0, #-0]
     1a0:	13000000 	movwne	r0, #0
     1a4:	00008098 	muleq	r0, r8, r0
     1a8:	00000253 	andeq	r0, r0, r3, asr r2
     1ac:	000001cf 	andeq	r0, r0, pc, asr #3
     1b0:	02500114 	subseq	r0, r0, #5
     1b4:	01140075 	tsteq	r4, r5, ror r0
     1b8:	00740251 	rsbseq	r0, r4, r1, asr r2
     1bc:	02520114 	subseq	r0, r2, #5
     1c0:	01140076 	tsteq	r4, r6, ror r0
     1c4:	14300153 	ldrtne	r0, [r0], #-339	; 0xfffffead
     1c8:	02007d02 	andeq	r7, r0, #128	; 0x80
     1cc:	13000076 	movwne	r0, #118	; 0x76
     1d0:	000080a0 	andeq	r8, r0, r0, lsr #1
     1d4:	0000025f 	andeq	r0, r0, pc, asr r2
     1d8:	000001e3 	andeq	r0, r0, r3, ror #3
     1dc:	02500114 	subseq	r0, r0, #5
     1e0:	15000075 	strne	r0, [r0, #-117]	; 0xffffff8b
     1e4:	000080ac 	andeq	r8, r0, ip, lsr #1
     1e8:	0000026b 	andeq	r0, r0, fp, ror #4
     1ec:	02500114 	subseq	r0, r0, #5
     1f0:	00006408 	andeq	r6, r0, r8, lsl #8
     1f4:	00807c15 	addeq	r7, r0, r5, lsl ip
     1f8:	00027700 	andeq	r7, r2, r0, lsl #14
     1fc:	50011400 	andpl	r1, r1, r0, lsl #8
     200:	14007802 	strne	r7, [r0], #-2050	; 0xfffff7fe
     204:	77025101 	strvc	r5, [r2, -r1, lsl #2]
     208:	16000000 	strne	r0, [r0], -r0
     20c:	0000804c 	andeq	r8, r0, ip, asr #32
     210:	00000283 	andeq	r0, r0, r3, lsl #5
     214:	00805413 	addeq	r5, r0, r3, lsl r4
     218:	00028f00 	andeq	r8, r2, r0, lsl #30
     21c:	00022700 	andeq	r2, r2, r0, lsl #14
     220:	50011400 	andpl	r1, r1, r0, lsl #8
     224:	13004501 	movwne	r4, #1281	; 0x501
     228:	00008060 	andeq	r8, r0, r0, rrx
     22c:	0000029b 	muleq	r0, fp, r2
     230:	0000023f 	andeq	r0, r0, pc, lsr r2
     234:	01500114 	cmpeq	r0, r4, lsl r1
     238:	51011445 	tstpl	r1, r5, asr #8
     23c:	17004001 	strne	r4, [r0, -r1]
     240:	000080d0 	ldrdeq	r8, [r0], -r0
     244:	00000277 	andeq	r0, r0, r7, ror r2
     248:	05500114 	ldrbeq	r0, [r0, #-276]	; 0xfffffeec
     24c:	009d2c03 	addseq	r2, sp, r3, lsl #24
     250:	18000000 	stmdane	r0, {}	; <UNPREDICTABLE>
     254:	00000034 	andeq	r0, r0, r4, lsr r0
     258:	00000034 	andeq	r0, r0, r4, lsr r0
     25c:	18060c04 	stmdane	r6, {r2, sl, fp}
     260:	000000b7 	strheq	r0, [r0], -r7
     264:	000000b7 	strheq	r0, [r0], -r7
     268:	18060d04 	stmdane	r6, {r2, r8, sl, fp}
     26c:	0000009b 	muleq	r0, fp, r0
     270:	0000009b 	muleq	r0, fp, r0
     274:	18065802 	stmdane	r6, {r1, fp, ip, lr}
     278:	0000055a 	andeq	r0, r0, sl, asr r5
     27c:	0000055a 	andeq	r0, r0, sl, asr r5
     280:	18062802 	stmdane	r6, {r1, fp, sp}
     284:	000001df 	ldrdeq	r0, [r0], -pc	; <UNPREDICTABLE>
     288:	000001df 	ldrdeq	r0, [r0], -pc	; <UNPREDICTABLE>
     28c:	1806a002 	stmdane	r6, {r1, sp, pc}
     290:	000000c4 	andeq	r0, r0, r4, asr #1
     294:	000000c4 	andeq	r0, r0, r4, asr #1
     298:	18061d05 	stmdane	r6, {r0, r2, r8, sl, fp, ip}
     29c:	00000051 	andeq	r0, r0, r1, asr r0
     2a0:	00000051 	andeq	r0, r0, r1, asr r0
     2a4:	00070604 	andeq	r0, r7, r4, lsl #12
     2a8:	00002a75 	andeq	r2, r0, r5, ror sl
     2ac:	01450004 	cmpeq	r5, r4
     2b0:	01040000 	mrseq	r0, (UNDEF: 4)
     2b4:	000000d4 	ldrdeq	r0, [r0], -r4
     2b8:	0002870c 	andeq	r8, r2, ip, lsl #14
     2bc:	00005d00 	andeq	r5, r0, r0, lsl #26
     2c0:	0080e000 	addeq	lr, r0, r0
     2c4:	00064000 	andeq	r4, r6, r0
     2c8:	00012b00 	andeq	r2, r1, r0, lsl #22
     2cc:	05040200 	streq	r0, [r4, #-512]	; 0xfffffe00
     2d0:	00746e69 	rsbseq	r6, r4, r9, ror #28
     2d4:	9e070403 	cdpls	4, 0, cr0, cr7, cr3, {0}
     2d8:	04000001 	streq	r0, [r0], #-1
     2dc:	0000002c 	andeq	r0, r0, ip, lsr #32
     2e0:	00002c05 	andeq	r2, r0, r5, lsl #24
     2e4:	06010300 	streq	r0, [r1], -r0, lsl #6
     2e8:	0000008f 	andeq	r0, r0, pc, lsl #1
     2ec:	d5050203 	strle	r0, [r5, #-515]	; 0xfffffdfd
     2f0:	03000001 	movweq	r0, #1
     2f4:	01c00504 	biceq	r0, r0, r4, lsl #10
     2f8:	08030000 	stmdaeq	r3, {}	; <UNPREDICTABLE>
     2fc:	0001bb05 	andeq	fp, r1, r5, lsl #22
     300:	020b0600 	andeq	r0, fp, #0, 12
     304:	2e030000 	cdpcs	0, 0, cr0, cr3, cr0, {0}
     308:	00006518 	andeq	r6, r0, r8, lsl r5
     30c:	08010300 	stmdaeq	r1, {r8, r9}
     310:	0000008d 	andeq	r0, r0, sp, lsl #1
     314:	a4070203 	strge	r0, [r7], #-515	; 0xfffffdfd
     318:	06000000 	streq	r0, [r0], -r0
     31c:	00000265 	andeq	r0, r0, r5, ror #4
     320:	7f193403 	svcvc	0x00193403
     324:	03000000 	movweq	r0, #0
     328:	01990704 	orrseq	r0, r9, r4, lsl #14
     32c:	08030000 	stmdaeq	r3, {}	; <UNPREDICTABLE>
     330:	00019407 	andeq	r9, r1, r7, lsl #8
     334:	00250700 	eoreq	r0, r5, r0, lsl #14
     338:	009c0000 	addseq	r0, ip, r0
     33c:	25080000 	strcs	r0, [r8, #-0]
     340:	00000000 	andeq	r0, r0, r0
     344:	0001c909 	andeq	ip, r1, r9, lsl #18
     348:	0e1c0400 	cfmulseq	mvf0, mvf12, mvf0
     34c:	000000a8 	andeq	r0, r0, r8, lsr #1
     350:	008d040a 	addeq	r0, sp, sl, lsl #8
     354:	25070000 	strcs	r0, [r7, #-0]
     358:	bd000000 	stclt	0, cr0, [r0, #-0]
     35c:	08000000 	stmdaeq	r0, {}	; <UNPREDICTABLE>
     360:	000000bd 	strheq	r0, [r0], -sp
     364:	ca040a00 	bgt	102b6c <__bss_end__+0xf869c>
     368:	03000000 	movweq	r0, #0
     36c:	00960801 	addseq	r0, r6, r1, lsl #16
     370:	c3050000 	movwgt	r0, #20480	; 0x5000
     374:	09000000 	stmdbeq	r0, {}	; <UNPREDICTABLE>
     378:	00000598 	muleq	r0, r8, r5
     37c:	db0e2104 	blle	388794 <__bss_end__+0x37e2c4>
     380:	0a000000 	beq	388 <__code_start__-0x7c78>
     384:	0000ae04 	andeq	sl, r0, r4, lsl #28
     388:	01b50600 			; <UNDEFINED> instruction: 0x01b50600
     38c:	03050000 	movweq	r0, #20480	; 0x5000
     390:	0000ed1c 	andeq	lr, r0, ip, lsl sp
     394:	f3040a00 	vpmax.u8	d0, d4, d0
     398:	0b000000 	bleq	3a0 <__code_start__-0x7c60>
     39c:	00000000 	andeq	r0, r0, r0
     3a0:	08160108 	ldmdaeq	r6, {r3, r8}
     3a4:	00000128 	andeq	r0, r0, r8, lsr #2
     3a8:	6e69700c 	cdpvs	0, 6, cr7, cr9, cr12, {0}
     3ac:	0d170100 	ldfeqs	f0, [r7, #-0]
     3b0:	00000059 	andeq	r0, r0, r9, asr r0
     3b4:	026e0d00 	rsbeq	r0, lr, #0, 26
     3b8:	18010000 	stmdane	r1, {}	; <UNPREDICTABLE>
     3bc:	0000730e 	andeq	r7, r0, lr, lsl #6
     3c0:	4a0d0400 	bmi	3413c8 <__bss_end__+0x336ef8>
     3c4:	01000000 	mrseq	r0, (UNDEF: 0)
     3c8:	01c2161b 	biceq	r1, r2, fp, lsl r6
     3cc:	00080000 	andeq	r0, r8, r0
     3d0:	6c02070e 	stcvs	7, cr0, [r2], {14}
     3d4:	02000000 	andeq	r0, r0, #0, 0
     3d8:	01580a4b 	cmpeq	r8, fp, asr #20
     3dc:	540f0000 	strpl	r0, [pc], #-0	; 3e4 <__code_start__-0x7c1c>
     3e0:	76004831 			; <UNDEFINED> instruction: 0x76004831
     3e4:	30541002 	subscc	r1, r4, r2
     3e8:	10f50048 	rscsne	r0, r5, r8, asr #32
     3ec:	004c3154 	subeq	r3, ip, r4, asr r1
     3f0:	30540ff5 	ldrshcc	r0, [r4], #-245	; 0xffffff0b
     3f4:	0276004c 	rsbseq	r0, r6, #76, 0	; 0x4c
     3f8:	0002bb11 	andeq	fp, r2, r1, lsl fp
     3fc:	0088b800 	addeq	fp, r8, r0, lsl #16
     400:	00001512 	andeq	r1, r0, r2, lsl r5
     404:	1b730200 	blne	1cc0c0c <__bss_end__+0x1cb673c>
     408:	00000164 	andeq	r0, r0, r4, ror #2
     40c:	0033040a 	eorseq	r0, r3, sl, lsl #8
     410:	0b120000 	bleq	480418 <__bss_end__+0x475f48>
     414:	02000000 	andeq	r0, r0, #0, 0
     418:	01641b74 	smceq	16820	; 0x41b4
     41c:	ab130000 	blge	4c0424 <__bss_end__+0x4b5f54>
     420:	02000001 	andeq	r0, r0, #1, 0
     424:	01641b75 	smceq	16821	; 0x41b5
     428:	00340000 	eorseq	r0, r4, r0
     42c:	27142020 	ldrcs	r2, [r4, -r0, lsr #32]
     430:	02000000 	andeq	r0, r0, #0, 0
     434:	00381796 	mlaseq	r8, r6, r7, r1
     438:	0b100000 	bleq	400440 <__bss_end__+0x3f5f70>
     43c:	000001fc 	strdeq	r0, [r0], -ip
     440:	08100103 	ldmdaeq	r0, {r0, r1, r8}
     444:	000001c2 	andeq	r0, r0, r2, asr #3
     448:	0100720c 	tsteq	r0, ip, lsl #4
     44c:	00590d11 	subseq	r0, r9, r1, lsl sp
     450:	0c000000 	stceq	0, cr0, [r0], {-0}
     454:	11010067 	tstne	r1, r7, rrx
     458:	0000590f 	andeq	r5, r0, pc, lsl #18
     45c:	620c0100 	andvs	r0, ip, #0
     460:	11110100 	tstne	r1, r0, lsl #2
     464:	00000059 	andeq	r0, r0, r9, asr r0
     468:	93150002 	tstls	r5, #2, 0
     46c:	d1000001 	tstle	r0, r1
     470:	16000001 	strne	r0, [r0], -r1
     474:	0000002c 	andeq	r0, r0, ip, lsr #32
     478:	00341700 	eorseq	r1, r4, r0, lsl #14
     47c:	47010000 	strmi	r0, [r1, -r0]
     480:	00870006 	addeq	r0, r7, r6
     484:	00002000 	andeq	r2, r0, r0
     488:	2d9c0100 	ldfcss	f0, [ip]
     48c:	18000002 	stmdane	r0, {r1}
     490:	47010068 	strmi	r0, [r1, -r8, rrx]
     494:	0000e119 	andeq	lr, r0, r9, lsl r1
     498:	19500100 	ldmdbne	r0, {r8}^
     49c:	00736f70 	rsbseq	r6, r3, r0, ror pc
     4a0:	73254701 			; <UNDEFINED> instruction: 0x73254701
     4a4:	88000000 	stmdahi	r0, {}	; <UNPREDICTABLE>
     4a8:	84000000 	strhi	r0, [r0], #-0
     4ac:	18000000 	stmdane	r0, {}	; <UNPREDICTABLE>
     4b0:	47010072 	smlsdxmi	r1, r2, r0, r0
     4b4:	00005932 	andeq	r5, r0, r2, lsr r9
     4b8:	18520100 	ldmdane	r2, {r8}^
     4bc:	47010067 	strmi	r0, [r1, -r7, rrx]
     4c0:	0000593d 	andeq	r5, r0, sp, lsr r9
     4c4:	18530100 	ldmdane	r3, {r8}^
     4c8:	47010062 	strmi	r0, [r1, -r2, rrx]
     4cc:	00005948 	andeq	r5, r0, r8, asr #18
     4d0:	00910200 	addseq	r0, r1, r0, lsl #4
     4d4:	021a1700 	andseq	r1, sl, #0, 14
     4d8:	42010000 	andmi	r0, r1, #0, 0
     4dc:	00861006 	addeq	r1, r6, r6
     4e0:	0000f000 	andeq	pc, r0, r0
     4e4:	cf9c0100 	svcgt	0x009c0100
     4e8:	19000008 	stmdbne	r0, {r3}
     4ec:	42010068 	andmi	r0, r1, #104, 0	; 0x68
     4f0:	0000e119 	andeq	lr, r0, r9, lsl r1
     4f4:	0000ad00 	andeq	sl, r0, r0, lsl #26
     4f8:	0000a900 	andeq	sl, r0, r0, lsl #18
     4fc:	08cf1a00 	stmiaeq	pc, {r9, fp, ip}^	; <UNPREDICTABLE>
     500:	86180000 	ldrhi	r0, [r8], -r0
     504:	00000000 	andeq	r0, r0, r0
     508:	00000c88 	andeq	r0, r0, r8, lsl #25
     50c:	1b054301 	blne	151118 <__bss_end__+0x146c48>
     510:	000008e6 	andeq	r0, r0, r6, ror #17
     514:	000000d2 	ldrdeq	r0, [r0], -r2
     518:	000000ce 	andeq	r0, r0, lr, asr #1
     51c:	0008dc1b 	andeq	sp, r8, fp, lsl ip
     520:	0000f500 	andeq	pc, r0, r0, lsl #10
     524:	0000f100 	andeq	pc, r0, r0, lsl #2
     528:	08f01c00 	ldmeq	r0!, {sl, fp, ip}^
     52c:	0d100000 	ldceq	0, cr0, [r0, #-0]
     530:	08c40000 	stmiaeq	r4, {}^	; <UNPREDICTABLE>
     534:	f11d0000 			; <UNDEFINED> instruction: 0xf11d0000
     538:	1a000008 	bne	560 <__code_start__-0x7aa0>
     53c:	16000001 	strne	r0, [r0], -r1
     540:	1a000001 	bne	54c <__code_start__-0x7ab4>
     544:	000021b7 			; <UNDEFINED> instruction: 0x000021b7
     548:	00008634 	andeq	r8, r0, r4, lsr r6
     54c:	0d900002 	ldceq	0, cr0, [r0, #8]
     550:	3e010000 	cdpcc	0, 0, cr0, cr1, cr0, {0}
     554:	21e41b09 	mvncs	r1, r9, lsl #22
     558:	013b0000 	teqeq	fp, r0
     55c:	01390000 	teqeq	r9, r0
     560:	da1b0000 	ble	6c0568 <__bss_end__+0x6b6098>
     564:	3b000021 	blcc	5f0 <__code_start__-0x7a10>
     568:	39000001 	stmdbcc	r0, {r0}
     56c:	1b000001 	blne	578 <__code_start__-0x7a88>
     570:	000021d0 	ldrdeq	r2, [r0], -r0
     574:	0000013b 	andeq	r0, r0, fp, lsr r1
     578:	00000139 	andeq	r0, r0, r9, lsr r1
     57c:	0021c41e 	eoreq	ip, r1, lr, lsl r4
     580:	21ef1f00 	mvncs	r1, r0, lsl #30
     584:	86340000 	ldrthi	r0, [r4], -r0
     588:	00040000 	andeq	r0, r4, r0
     58c:	00000e28 	andeq	r0, r0, r8, lsr #28
     590:	e005e502 	and	lr, r5, r2, lsl #10
     594:	1b000004 	blne	5ac <__code_start__-0x7a54>
     598:	00002208 	andeq	r2, r0, r8, lsl #4
     59c:	00000151 	andeq	r0, r0, r1, asr r1
     5a0:	0000014f 	andeq	r0, r0, pc, asr #2
     5a4:	0021fc1e 	eoreq	pc, r1, lr, lsl ip	; <UNPREDICTABLE>
     5a8:	22122000 	andscs	r2, r2, #0, 0
     5ac:	0e780000 	cdpeq	0, 7, cr0, cr8, cr0, {0}
     5b0:	131d0000 	tstne	sp, #0, 0
     5b4:	67000022 	strvs	r0, [r0, -r2, lsr #32]
     5b8:	65000001 	strvs	r0, [r0, #-1]
     5bc:	1a000001 	bne	5c8 <__code_start__-0x7a38>
     5c0:	0000221f 	andeq	r2, r0, pc, lsl r2
     5c4:	00008638 	andeq	r8, r0, r8, lsr r6
     5c8:	0ec00001 	cdpeq	0, 12, cr0, cr0, cr1, {0}
     5cc:	db020000 	blle	805d4 <__bss_end__+0x76104>
     5d0:	22381b09 	eorscs	r1, r8, #9216	; 0x2400
     5d4:	017d0000 	cmneq	sp, r0
     5d8:	017b0000 	cmneq	fp, r0
     5dc:	2c1e0000 	ldccs	0, cr0, [lr], {-0}
     5e0:	1f000022 	svcne	0x00000022
     5e4:	000022ab 	andeq	r2, r0, fp, lsr #5
     5e8:	00008638 	andeq	r8, r0, r8, lsr r6
     5ec:	0f000004 	svceq	0x00000004
     5f0:	cf020000 	svcgt	0x00020000
     5f4:	00040d09 	andeq	r0, r4, r9, lsl #26
     5f8:	22b81e00 	adcscs	r1, r8, #0, 28
     5fc:	1f1a0000 	svcne	0x001a0000
     600:	38000023 	stmdacc	r0, {r0, r1, r5}
     604:	06000086 	streq	r0, [r0], -r6, lsl #1
     608:	000f2800 	andeq	r2, pc, r0, lsl #16
     60c:	05b10200 	ldreq	r0, [r1, #512]!	; 0x200
     610:	0023381b 	eoreq	r3, r3, fp, lsl r8
     614:	00019300 	andeq	r9, r1, r0, lsl #6
     618:	00019100 	andeq	r9, r1, r0, lsl #2
     61c:	232c1e00 			; <UNDEFINED> instruction: 0x232c1e00
     620:	28210000 	stmdacs	r1!, {}	; <UNPREDICTABLE>
     624:	1d00000f 	stcne	0, cr0, [r0, #-60]	; 0xffffffc4
     628:	00002344 	andeq	r2, r0, r4, asr #6
     62c:	000001aa 	andeq	r0, r0, sl, lsr #3
     630:	000001a8 	andeq	r0, r0, r8, lsr #3
     634:	0023b71f 	eoreq	fp, r3, pc, lsl r7
     638:	00863c00 	addeq	r3, r6, r0, lsl #24
     63c:	48000300 	stmdami	r0, {r8, r9}
     640:	0200000f 	andeq	r0, r0, #15, 0
     644:	03a8059e 			; <UNDEFINED> instruction: 0x03a8059e
     648:	c41e0000 	ldrgt	r0, [lr], #-0
     64c:	00000023 	andeq	r0, r0, r3, lsr #32
     650:	00235022 	eoreq	r5, r3, r2, lsr #32
     654:	00863800 	addeq	r3, r6, r0, lsl #16
     658:	00000400 	andeq	r0, r0, r0, lsl #8
     65c:	0003c700 	andeq	ip, r3, r0, lsl #14
     660:	23511d00 	cmpcs	r1, #0, 26
     664:	01bf0000 			; <UNDEFINED> instruction: 0x01bf0000
     668:	01bd0000 			; <UNDEFINED> instruction: 0x01bd0000
     66c:	23000000 	movwcs	r0, #0
     670:	0000235f 	andeq	r2, r0, pc, asr r3
     674:	00008640 	andeq	r8, r0, r0, asr #12
     678:	00000010 	andeq	r0, r0, r0, lsl r0
     67c:	1e059f02 	cdpne	15, 0, cr9, cr5, cr2, {0}
     680:	00002378 	andeq	r2, r0, r8, ror r3
     684:	00236c1e 	eoreq	r6, r3, lr, lsl ip
     688:	23841d00 	orrcs	r1, r4, #0, 26
     68c:	01d40000 	bicseq	r0, r4, r0
     690:	01d20000 	bicseq	r0, r2, r0
     694:	8e240000 	cdphi	0, 2, cr0, cr4, cr0, {0}
     698:	40000023 	andmi	r0, r0, r3, lsr #32
     69c:	04000086 	streq	r0, [r0], #-134	; 0xffffff7a
     6a0:	1d000000 	stcne	0, cr0, [r0, #-0]
     6a4:	0000238f 	andeq	r2, r0, pc, lsl #7
     6a8:	000001e9 	andeq	r0, r0, r9, ror #3
     6ac:	000001e7 	andeq	r0, r0, r7, ror #3
     6b0:	00000000 	andeq	r0, r0, r0
     6b4:	22771a00 	rsbscs	r1, r7, #0, 20
     6b8:	86500000 	ldrbhi	r0, [r0], -r0
     6bc:	00020000 	andeq	r0, r2, r0
     6c0:	00000ee8 	andeq	r0, r0, r8, ror #29
     6c4:	1e09d002 	cdpne	0, 0, cr13, cr9, cr2, {0}
     6c8:	00002284 	andeq	r2, r0, r4, lsl #5
     6cc:	0022df25 	eoreq	sp, r2, r5, lsr #30
     6d0:	00865000 	addeq	r5, r6, r0
     6d4:	50000400 	andpl	r0, r0, r0, lsl #8
     6d8:	18000086 	stmdane	r0, {r1, r2, r7}
     6dc:	02000000 	andeq	r0, r0, #0, 0
     6e0:	f81b05b9 			; <UNDEFINED> instruction: 0xf81b05b9
     6e4:	fe000022 	cdp2	0, 0, cr0, cr0, cr2, {1}
     6e8:	fc000001 	stc2	0, cr0, [r0], {1}
     6ec:	1e000001 	cdpne	0, 0, cr0, cr0, cr1, {0}
     6f0:	000022ec 	andeq	r2, r0, ip, ror #5
     6f4:	0023041d 	eoreq	r0, r3, sp, lsl r4
     6f8:	00021600 	andeq	r1, r2, r0, lsl #12
     6fc:	00021400 	andeq	r1, r2, r0, lsl #8
     700:	23102200 	tstcs	r0, #0, 4
     704:	86500000 	ldrbhi	r0, [r0], -r0
     708:	00040000 	andeq	r0, r4, r0
     70c:	04780000 	ldrbteq	r0, [r8], #-0
     710:	111d0000 	tstne	sp, r0
     714:	2b000023 	blcs	7a8 <__code_start__-0x7858>
     718:	29000002 	stmdbcs	r0, {r1}
     71c:	00000002 	andeq	r0, r0, r2
     720:	00239d26 	eoreq	r9, r3, r6, lsr #26
     724:	00865400 	addeq	r5, r6, r0, lsl #8
     728:	54000300 	strpl	r0, [r0], #-768	; 0xfffffd00
     72c:	04000086 	streq	r0, [r0], #-134	; 0xffffff7a
     730:	02000000 	andeq	r0, r0, #0, 0
     734:	049805a6 	ldreq	r0, [r8], #1446	; 0x5a6
     738:	aa1e0000 	bge	780740 <__bss_end__+0x776270>
     73c:	00000023 	andeq	r0, r0, r3, lsr #32
     740:	00235f23 	eoreq	r5, r3, r3, lsr #30
     744:	00865800 	addeq	r5, r6, r0, lsl #16
     748:	00001000 	andeq	r1, r0, r0
     74c:	05a70200 	streq	r0, [r7, #512]!	; 0x200
     750:	0023781e 	eoreq	r7, r3, lr, lsl r8
     754:	236c1e00 	cmncs	ip, #0, 28
     758:	841d0000 	ldrhi	r0, [sp], #-0
     75c:	40000023 	andmi	r0, r0, r3, lsr #32
     760:	3e000002 	cdpcc	0, 0, cr0, cr0, cr2, {0}
     764:	24000002 	strcs	r0, [r0], #-2
     768:	0000238e 	andeq	r2, r0, lr, lsl #7
     76c:	00008658 	andeq	r8, r0, r8, asr r6
     770:	00000004 	andeq	r0, r0, r4
     774:	00238f1d 	eoreq	r8, r3, sp, lsl pc
     778:	00025500 	andeq	r5, r2, r0, lsl #10
     77c:	00025300 	andeq	r5, r2, r0, lsl #6
	...
     788:	0021ef27 	eoreq	lr, r1, r7, lsr #30
     78c:	000f6800 	andeq	r6, pc, r0, lsl #16
     790:	05e60200 	strbeq	r0, [r6, #512]!	; 0x200
     794:	000006d3 	ldrdeq	r0, [r0], -r3
     798:	0022081e 	eoreq	r0, r2, lr, lsl r8
     79c:	21fc1e00 	mvnscs	r1, r0, lsl #28
     7a0:	12200000 	eorne	r0, r0, #0, 0
     7a4:	68000022 	stmdavs	r0, {r1, r5}
     7a8:	2800000f 	stmdacs	r0, {r0, r1, r2, r3}
     7ac:	00002213 	andeq	r2, r0, r3, lsl r2
     7b0:	00221f1a 	eoreq	r1, r2, sl, lsl pc
     7b4:	00867400 	addeq	r7, r6, r0, lsl #8
     7b8:	98000200 	stmdals	r0, {r9}
     7bc:	0200000f 	andeq	r0, r0, #15, 0
     7c0:	381b09db 	ldmdacc	fp, {r0, r1, r3, r4, r6, r7, r8, fp}
     7c4:	6a000022 	bvs	854 <__code_start__-0x77ac>
     7c8:	68000002 	stmdavs	r0, {r1}
     7cc:	1e000002 	cdpne	0, 0, cr0, cr0, cr2, {0}
     7d0:	0000222c 	andeq	r2, r0, ip, lsr #4
     7d4:	0022ab1f 	eoreq	sl, r2, pc, lsl fp
     7d8:	00867400 	addeq	r7, r6, r0, lsl #8
     7dc:	c8000500 	stmdagt	r0, {r8, sl}
     7e0:	0200000f 	andeq	r0, r0, #15, 0
     7e4:	060009cf 	streq	r0, [r0], -pc, asr #19
     7e8:	b81e0000 	ldmdalt	lr, {}	; <UNPREDICTABLE>
     7ec:	25000022 	strcs	r0, [r0, #-34]	; 0xffffffde
     7f0:	0000231f 	andeq	r2, r0, pc, lsl r3
     7f4:	00008674 	andeq	r8, r0, r4, ror r6
     7f8:	86740007 	ldrbthi	r0, [r4], -r7
     7fc:	00180000 	andseq	r0, r8, r0
     800:	b1020000 	mrslt	r0, (UNDEF: 2)
     804:	23381b05 	teqcs	r8, #5120	; 0x1400
     808:	02800000 	addeq	r0, r0, #0, 0
     80c:	027e0000 	rsbseq	r0, lr, #0, 0
     810:	2c1e0000 	ldccs	0, cr0, [lr], {-0}
     814:	1d000023 	stcne	0, cr0, [r0, #-140]	; 0xffffff74
     818:	00002344 	andeq	r2, r0, r4, asr #6
     81c:	00000297 	muleq	r0, r7, r2
     820:	00000295 	muleq	r0, r5, r2
     824:	00235022 	eoreq	r5, r3, r2, lsr #32
     828:	00867400 	addeq	r7, r6, r0, lsl #8
     82c:	00000400 	andeq	r0, r0, r0, lsl #8
     830:	00059b00 	andeq	r9, r5, r0, lsl #22
     834:	23511d00 	cmpcs	r1, #0, 26
     838:	02ac0000 	adceq	r0, ip, #0, 0
     83c:	02aa0000 	adceq	r0, sl, #0, 0
     840:	26000000 	strcs	r0, [r0], -r0
     844:	000023b7 			; <UNDEFINED> instruction: 0x000023b7
     848:	00008678 	andeq	r8, r0, r8, ror r6
     84c:	86780003 	ldrbthi	r0, [r8], -r3
     850:	00040000 	andeq	r0, r4, r0
     854:	9e020000 	cdpls	0, 0, cr0, cr2, cr0, {0}
     858:	0005bb05 	andeq	fp, r5, r5, lsl #22
     85c:	23c41e00 	biccs	r1, r4, #0, 28
     860:	23000000 	movwcs	r0, #0
     864:	0000235f 	andeq	r2, r0, pc, asr r3
     868:	0000867c 	andeq	r8, r0, ip, ror r6
     86c:	00000010 	andeq	r0, r0, r0, lsl r0
     870:	1e059f02 	cdpne	15, 0, cr9, cr5, cr2, {0}
     874:	00002378 	andeq	r2, r0, r8, ror r3
     878:	00236c1e 	eoreq	r6, r3, lr, lsl ip
     87c:	23841d00 	orrcs	r1, r4, #0, 26
     880:	02c10000 	sbceq	r0, r1, #0, 0
     884:	02bf0000 	adcseq	r0, pc, #0, 0
     888:	8e240000 	cdphi	0, 2, cr0, cr4, cr0, {0}
     88c:	7c000023 	stcvc	0, cr0, [r0], {35}	; 0x23
     890:	04000086 	streq	r0, [r0], #-134	; 0xffffff7a
     894:	1d000000 	stcne	0, cr0, [r0, #-0]
     898:	0000238f 	andeq	r2, r0, pc, lsl #7
     89c:	000002d6 	ldrdeq	r0, [r0], -r6
     8a0:	000002d4 	ldrdeq	r0, [r0], -r4
     8a4:	00000000 	andeq	r0, r0, r0
     8a8:	0022771a 	eoreq	r7, r2, sl, lsl r7
     8ac:	00868c00 	addeq	r8, r6, r0, lsl #24
     8b0:	b0000200 	andlt	r0, r0, r0, lsl #4
     8b4:	0200000f 	andeq	r0, r0, #15, 0
     8b8:	841e09d0 	ldrhi	r0, [lr], #-2512	; 0xfffff630
     8bc:	25000022 	strcs	r0, [r0, #-34]	; 0xffffffde
     8c0:	000022df 	ldrdeq	r2, [r0], -pc	; <UNPREDICTABLE>
     8c4:	0000868c 	andeq	r8, r0, ip, lsl #13
     8c8:	868c0004 	strhi	r0, [ip], r4
     8cc:	00180000 	andseq	r0, r8, r0
     8d0:	b9020000 	stmdblt	r2, {}	; <UNPREDICTABLE>
     8d4:	22f81b05 	rscscs	r1, r8, #5120	; 0x1400
     8d8:	02eb0000 	rsceq	r0, fp, #0, 0
     8dc:	02e90000 	rsceq	r0, r9, #0, 0
     8e0:	ec1e0000 	ldc	0, cr0, [lr], {-0}
     8e4:	1d000022 	stcne	0, cr0, [r0, #-136]	; 0xffffff78
     8e8:	00002304 	andeq	r2, r0, r4, lsl #6
     8ec:	00000303 	andeq	r0, r0, r3, lsl #6
     8f0:	00000301 	andeq	r0, r0, r1, lsl #6
     8f4:	00231022 	eoreq	r1, r3, r2, lsr #32
     8f8:	00868c00 	addeq	r8, r6, r0, lsl #24
     8fc:	00000400 	andeq	r0, r0, r0, lsl #8
     900:	00066b00 	andeq	r6, r6, r0, lsl #22
     904:	23111d00 	tstcs	r1, #0, 26
     908:	03180000 	tsteq	r8, #0, 0
     90c:	03160000 	tsteq	r6, #0, 0
     910:	26000000 	strcs	r0, [r0], -r0
     914:	0000239d 	muleq	r0, sp, r3
     918:	00008690 	muleq	r0, r0, r6
     91c:	86900003 	ldrhi	r0, [r0], r3
     920:	00040000 	andeq	r0, r4, r0
     924:	a6020000 	strge	r0, [r2], -r0
     928:	00068b05 	andeq	r8, r6, r5, lsl #22
     92c:	23aa1e00 			; <UNDEFINED> instruction: 0x23aa1e00
     930:	23000000 	movwcs	r0, #0
     934:	0000235f 	andeq	r2, r0, pc, asr r3
     938:	00008694 	muleq	r0, r4, r6
     93c:	00000010 	andeq	r0, r0, r0, lsl r0
     940:	1e05a702 	cdpne	7, 0, cr10, cr5, cr2, {0}
     944:	00002378 	andeq	r2, r0, r8, ror r3
     948:	00236c1e 	eoreq	r6, r3, lr, lsl ip
     94c:	23841d00 	orrcs	r1, r4, #0, 26
     950:	032d0000 			; <UNDEFINED> instruction: 0x032d0000
     954:	032b0000 			; <UNDEFINED> instruction: 0x032b0000
     958:	8e240000 	cdphi	0, 2, cr0, cr4, cr0, {0}
     95c:	94000023 	strls	r0, [r0], #-35	; 0xffffffdd
     960:	04000086 	streq	r0, [r0], #-134	; 0xffffff7a
     964:	1d000000 	stcne	0, cr0, [r0, #-0]
     968:	0000238f 	andeq	r2, r0, pc, lsl #7
     96c:	00000342 	andeq	r0, r0, r2, asr #6
     970:	00000340 	andeq	r0, r0, r0, asr #6
     974:	00000000 	andeq	r0, r0, r0
     978:	29000000 	stmdbcs	r0, {}	; <UNPREDICTABLE>
     97c:	000021ef 	andeq	r2, r0, pc, ror #3
     980:	00000fe0 	andeq	r0, r0, r0, ror #31
     984:	1e05e702 	cdpne	7, 0, cr14, cr5, cr2, {0}
     988:	00002208 	andeq	r2, r0, r8, lsl #4
     98c:	0021fc1e 	eoreq	pc, r1, lr, lsl ip	; <UNPREDICTABLE>
     990:	22122000 	andscs	r2, r2, #0, 0
     994:	0fe00000 	svceq	0x00e00000
     998:	13280000 			; <UNDEFINED> instruction: 0x13280000
     99c:	1a000022 	bne	a2c <__code_start__-0x75d4>
     9a0:	0000221f 	andeq	r2, r0, pc, lsl r2
     9a4:	000086b0 			; <UNDEFINED> instruction: 0x000086b0
     9a8:	10100002 	andsne	r0, r0, r2
     9ac:	db020000 	blle	809b4 <__bss_end__+0x764e4>
     9b0:	22381b09 	eorscs	r1, r8, #9216	; 0x2400
     9b4:	03570000 	cmpeq	r7, #0, 0
     9b8:	03550000 	cmpeq	r5, #0, 0
     9bc:	2c1e0000 	ldccs	0, cr0, [lr], {-0}
     9c0:	1f000022 	svcne	0x00000022
     9c4:	000022ab 	andeq	r2, r0, fp, lsr #5
     9c8:	000086b0 			; <UNDEFINED> instruction: 0x000086b0
     9cc:	10400005 	subne	r0, r0, r5
     9d0:	cf020000 	svcgt	0x00020000
     9d4:	0007ef09 	andeq	lr, r7, r9, lsl #30
     9d8:	22b81e00 	adcscs	r1, r8, #0, 28
     9dc:	1f250000 	svcne	0x00250000
     9e0:	b0000023 	andlt	r0, r0, r3, lsr #32
     9e4:	07000086 	streq	r0, [r0, -r6, lsl #1]
     9e8:	0086b000 	addeq	fp, r6, r0
     9ec:	00001800 	andeq	r1, r0, r0, lsl #16
     9f0:	05b10200 	ldreq	r0, [r1, #512]!	; 0x200
     9f4:	0023381b 	eoreq	r3, r3, fp, lsl r8
     9f8:	00036d00 	andeq	r6, r3, r0, lsl #26
     9fc:	00036b00 	andeq	r6, r3, r0, lsl #22
     a00:	232c1e00 			; <UNDEFINED> instruction: 0x232c1e00
     a04:	441d0000 	ldrmi	r0, [sp], #-0
     a08:	84000023 	strhi	r0, [r0], #-35	; 0xffffffdd
     a0c:	82000003 	andhi	r0, r0, #3, 0
     a10:	22000003 	andcs	r0, r0, #3, 0
     a14:	00002350 	andeq	r2, r0, r0, asr r3
     a18:	000086b0 			; <UNDEFINED> instruction: 0x000086b0
     a1c:	00000004 	andeq	r0, r0, r4
     a20:	0000078a 	andeq	r0, r0, sl, lsl #15
     a24:	0023511d 	eoreq	r5, r3, sp, lsl r1
     a28:	00039900 	andeq	r9, r3, r0, lsl #18
     a2c:	00039700 	andeq	r9, r3, r0, lsl #14
     a30:	b7260000 	strlt	r0, [r6, -r0]!
     a34:	b4000023 	strlt	r0, [r0], #-35	; 0xffffffdd
     a38:	03000086 	movweq	r0, #134	; 0x86
     a3c:	0086b400 	addeq	fp, r6, r0, lsl #8
     a40:	00000400 	andeq	r0, r0, r0, lsl #8
     a44:	059e0200 	ldreq	r0, [lr, #512]	; 0x200
     a48:	000007aa 	andeq	r0, r0, sl, lsr #15
     a4c:	0023c41e 	eoreq	ip, r3, lr, lsl r4
     a50:	5f230000 	svcpl	0x00230000
     a54:	b8000023 	stmdalt	r0, {r0, r1, r5}
     a58:	10000086 	andne	r0, r0, r6, lsl #1
     a5c:	02000000 	andeq	r0, r0, #0, 0
     a60:	781e059f 	ldmdavc	lr, {r0, r1, r2, r3, r4, r7, r8, sl}
     a64:	1e000023 	cdpne	0, 0, cr0, cr0, cr3, {1}
     a68:	0000236c 	andeq	r2, r0, ip, ror #6
     a6c:	0023841d 	eoreq	r8, r3, sp, lsl r4
     a70:	0003ae00 	andeq	sl, r3, r0, lsl #28
     a74:	0003ac00 	andeq	sl, r3, r0, lsl #24
     a78:	238e2400 	orrcs	r2, lr, #0, 8
     a7c:	86b80000 	ldrthi	r0, [r8], r0
     a80:	00040000 	andeq	r0, r4, r0
     a84:	8f1d0000 	svchi	0x001d0000
     a88:	c3000023 	movwgt	r0, #35	; 0x23
     a8c:	c1000003 	tstgt	r0, r3
     a90:	00000003 	andeq	r0, r0, r3
     a94:	1a000000 	bne	a9c <__code_start__-0x7564>
     a98:	00002277 	andeq	r2, r0, r7, ror r2
     a9c:	000086c8 	andeq	r8, r0, r8, asr #13
     aa0:	10280002 	eorne	r0, r8, r2
     aa4:	d0020000 	andle	r0, r2, r0
     aa8:	22841e09 	addcs	r1, r4, #144	; 0x90
     aac:	df250000 	svcle	0x00250000
     ab0:	c8000022 	stmdagt	r0, {r1, r5}
     ab4:	04000086 	streq	r0, [r0], #-134	; 0xffffff7a
     ab8:	0086c800 	addeq	ip, r6, r0, lsl #16
     abc:	00001800 	andeq	r1, r0, r0, lsl #16
     ac0:	05b90200 	ldreq	r0, [r9, #512]!	; 0x200
     ac4:	0022f81b 	eoreq	pc, r2, fp, lsl r8	; <UNPREDICTABLE>
     ac8:	0003d800 	andeq	sp, r3, r0, lsl #16
     acc:	0003d600 	andeq	sp, r3, r0, lsl #12
     ad0:	22ec1e00 	rsccs	r1, ip, #0, 28
     ad4:	041d0000 	ldreq	r0, [sp], #-0
     ad8:	f0000023 			; <UNDEFINED> instruction: 0xf0000023
     adc:	ee000003 	cdp	0, 0, cr0, cr0, cr3, {0}
     ae0:	22000003 	andcs	r0, r0, #3, 0
     ae4:	00002310 	andeq	r2, r0, r0, lsl r3
     ae8:	000086c8 	andeq	r8, r0, r8, asr #13
     aec:	00000004 	andeq	r0, r0, r4
     af0:	0000085a 	andeq	r0, r0, sl, asr r8
     af4:	0023111d 	eoreq	r1, r3, sp, lsl r1
     af8:	00040500 	andeq	r0, r4, r0, lsl #10
     afc:	00040300 	andeq	r0, r4, r0, lsl #6
     b00:	9d260000 	stcls	0, cr0, [r6, #-0]
     b04:	cc000023 	stcgt	0, cr0, [r0], {35}	; 0x23
     b08:	03000086 	movweq	r0, #134	; 0x86
     b0c:	0086cc00 	addeq	ip, r6, r0, lsl #24
     b10:	00000400 	andeq	r0, r0, r0, lsl #8
     b14:	05a60200 	streq	r0, [r6, #512]!	; 0x200
     b18:	0000087a 	andeq	r0, r0, sl, ror r8
     b1c:	0023aa1e 	eoreq	sl, r3, lr, lsl sl
     b20:	5f230000 	svcpl	0x00230000
     b24:	d0000023 	andle	r0, r0, r3, lsr #32
     b28:	10000086 	andne	r0, r0, r6, lsl #1
     b2c:	02000000 	andeq	r0, r0, #0, 0
     b30:	781e05a7 	ldmdavc	lr, {r0, r1, r2, r5, r7, r8, sl}
     b34:	1e000023 	cdpne	0, 0, cr0, cr0, cr3, {1}
     b38:	0000236c 	andeq	r2, r0, ip, ror #6
     b3c:	0023841d 	eoreq	r8, r3, sp, lsl r4
     b40:	00041a00 	andeq	r1, r4, r0, lsl #20
     b44:	00041800 	andeq	r1, r4, r0, lsl #16
     b48:	238e2400 	orrcs	r2, lr, #0, 8
     b4c:	86d00000 	ldrbhi	r0, [r0], r0
     b50:	00040000 	andeq	r0, r4, r0
     b54:	8f1d0000 	svchi	0x001d0000
     b58:	2f000023 	svccs	0x00000023
     b5c:	2d000004 	stccs	0, cr0, [r0, #-16]
     b60:	00000004 	andeq	r0, r0, r4
	...
     b6c:	0086fc2a 	addeq	pc, r6, sl, lsr #24
     b70:	00153e00 	andseq	r3, r5, r0, lsl #28
     b74:	2b000000 	blcs	b7c <__code_start__-0x7484>
     b78:	00000275 	andeq	r0, r0, r5, ror r2
     b7c:	01063c01 	tsteq	r6, r1, lsl #24
     b80:	000008fd 	strdeq	r0, [r0], -sp
     b84:	0100682c 	tsteq	r0, ip, lsr #16
     b88:	00e11e3c 	rsceq	r1, r1, ip, lsr lr
     b8c:	6e2c0000 	cdpvs	0, 2, cr0, cr12, cr0, {0}
     b90:	2a3c0100 	bcs	f00f98 <__bss_end__+0xef6ac8>
     b94:	0000002c 	andeq	r0, r0, ip, lsr #32
     b98:	00692e2d 	rsbeq	r2, r9, sp, lsr #28
     b9c:	250d3d01 	strcs	r3, [sp, #-3329]	; 0xfffff2ff
     ba0:	00000000 	andeq	r0, r0, r0
     ba4:	02c11700 	sbceq	r1, r1, #0, 14
     ba8:	37010000 	strcc	r0, [r1, -r0]
     bac:	00835006 	addeq	r5, r3, r6
     bb0:	0001c400 	andeq	ip, r1, r0, lsl #8
     bb4:	929c0100 	addsls	r0, ip, #0
     bb8:	19000014 	stmdbne	r0, {r2, r4}
     bbc:	37010068 	strcc	r0, [r1, -r8, rrx]
     bc0:	0000e11d 	andeq	lr, r0, sp, lsl r1
     bc4:	00044600 	andeq	r4, r4, r0, lsl #12
     bc8:	00044200 	andeq	r4, r4, r0, lsl #4
     bcc:	00721900 	rsbseq	r1, r2, r0, lsl #18
     bd0:	59283701 	stmdbpl	r8!, {r0, r8, r9, sl, ip, sp}
     bd4:	6d000000 	stcvs	0, cr0, [r0, #-0]
     bd8:	67000004 	strvs	r0, [r0, -r4]
     bdc:	19000004 	stmdbne	r0, {r2}
     be0:	37010067 	strcc	r0, [r1, -r7, rrx]
     be4:	00005933 	andeq	r5, r0, r3, lsr r9
     be8:	00049f00 	andeq	r9, r4, r0, lsl #30
     bec:	00049900 	andeq	r9, r4, r0, lsl #18
     bf0:	00621800 	rsbeq	r1, r2, r0, lsl #16
     bf4:	593e3701 	ldmdbpl	lr!, {r0, r8, r9, sl, ip, sp}
     bf8:	01000000 	mrseq	r0, (UNDEF: 0)
     bfc:	21b71a53 			; <UNDEFINED> instruction: 0x21b71a53
     c00:	83580000 	cmphi	r8, #0, 0
     c04:	00010000 	andeq	r0, r1, r0
     c08:	000004f0 	strdeq	r0, [r0], -r0	; <UNPREDICTABLE>
     c0c:	1b053801 	blne	14ec18 <__bss_end__+0x144748>
     c10:	000021e4 	andeq	r2, r0, r4, ror #3
     c14:	000004cd 	andeq	r0, r0, sp, asr #9
     c18:	000004cb 	andeq	r0, r0, fp, asr #9
     c1c:	0021da1b 	eoreq	sp, r1, fp, lsl sl
     c20:	0004e600 	andeq	lr, r4, r0, lsl #12
     c24:	0004e000 	andeq	lr, r4, r0
     c28:	21d01b00 	bicscs	r1, r0, r0, lsl #22
     c2c:	05180000 	ldreq	r0, [r8, #-0]
     c30:	05120000 	ldreq	r0, [r2, #-0]
     c34:	c41b0000 	ldrgt	r0, [fp], #-0
     c38:	48000021 	stmdami	r0, {r0, r5}
     c3c:	44000005 	strmi	r0, [r0], #-5
     c40:	1f000005 	svcne	0x00000005
     c44:	000021ef 	andeq	r2, r0, pc, ror #3
     c48:	00008358 	andeq	r8, r0, r8, asr r3
     c4c:	05780003 	ldrbeq	r0, [r8, #-3]!
     c50:	e5020000 	str	r0, [r2, #-0]
     c54:	000d5205 	andeq	r5, sp, r5, lsl #4
     c58:	22081b00 	andcs	r1, r8, #0, 22
     c5c:	05790000 	ldrbeq	r0, [r9, #-0]!
     c60:	05750000 	ldrbeq	r0, [r5, #-0]!
     c64:	fc1b0000 	ldc2	0, cr0, [fp], {-0}
     c68:	9b000021 	blls	cf4 <__code_start__-0x730c>
     c6c:	97000005 	strls	r0, [r0, -r5]
     c70:	20000005 	andcs	r0, r0, r5
     c74:	00002212 	andeq	r2, r0, r2, lsl r2
     c78:	000005c8 	andeq	r0, r0, r8, asr #11
     c7c:	0022131d 	eoreq	r1, r2, sp, lsl r3
     c80:	0005c600 	andeq	ip, r5, r0, lsl #12
     c84:	0005c000 	andeq	ip, r5, r0
     c88:	221f1a00 	andscs	r1, pc, #0, 20
     c8c:	83680000 	cmnhi	r8, #0, 0
     c90:	00020000 	andeq	r0, r2, r0
     c94:	00000610 	andeq	r0, r0, r0, lsl r6
     c98:	1b09db02 	blne	2778a8 <__bss_end__+0x26d3d8>
     c9c:	00002238 	andeq	r2, r0, r8, lsr r2
     ca0:	000005f4 	strdeq	r0, [r0], -r4
     ca4:	000005f0 	strdeq	r0, [r0], -r0	; <UNPREDICTABLE>
     ca8:	00222c1e 	eoreq	r2, r2, lr, lsl ip
     cac:	22ab1f00 	adccs	r1, fp, #0, 30
     cb0:	84d00000 	ldrbhi	r0, [r0], #0
     cb4:	00020000 	andeq	r0, r2, r0
     cb8:	00000660 	andeq	r0, r0, r0, ror #12
     cbc:	d709cf02 	strle	ip, [r9, -r2, lsl #30]
     cc0:	1e00000a 	cdpne	0, 0, cr0, cr0, cr10, {0}
     cc4:	000022b8 			; <UNDEFINED> instruction: 0x000022b8
     cc8:	00231f1a 	eoreq	r1, r3, sl, lsl pc
     ccc:	0084d000 	addeq	sp, r4, r0
     cd0:	88000400 	stmdahi	r0, {sl}
     cd4:	02000006 	andeq	r0, r0, #6, 0
     cd8:	381b05b1 	ldmdacc	fp, {r0, r4, r5, r7, r8, sl}
     cdc:	22000023 	andcs	r0, r0, #35, 0	; 0x23
     ce0:	20000006 	andcs	r0, r0, r6
     ce4:	1e000006 	cdpne	0, 0, cr0, cr0, cr6, {0}
     ce8:	0000232c 	andeq	r2, r0, ip, lsr #6
     cec:	00068821 	andeq	r8, r6, r1, lsr #16
     cf0:	23441d00 	movtcs	r1, #19712	; 0x4d00
     cf4:	06390000 	ldrteq	r0, [r9], -r0
     cf8:	06370000 	ldrteq	r0, [r7], -r0
     cfc:	b71f0000 	ldrlt	r0, [pc, -r0]
     d00:	d4000023 	strle	r0, [r0], #-35	; 0xffffffdd
     d04:	03000084 	movweq	r0, #132	; 0x84
     d08:	0006a800 	andeq	sl, r6, r0, lsl #16
     d0c:	059e0200 	ldreq	r0, [lr, #512]	; 0x200
     d10:	00000a72 	andeq	r0, r0, r2, ror sl
     d14:	0023c41e 	eoreq	ip, r3, lr, lsl r4
     d18:	50220000 	eorpl	r0, r2, r0
     d1c:	d0000023 	andle	r0, r0, r3, lsr #32
     d20:	04000084 	streq	r0, [r0], #-132	; 0xffffff7c
     d24:	91000000 	mrsls	r0, (UNDEF: 0)
     d28:	1d00000a 	stcne	0, cr0, [r0, #-40]	; 0xffffffd8
     d2c:	00002351 	andeq	r2, r0, r1, asr r3
     d30:	0000064e 	andeq	r0, r0, lr, asr #12
     d34:	0000064c 	andeq	r0, r0, ip, asr #12
     d38:	235f2300 	cmpcs	pc, #0, 6
     d3c:	84d80000 	ldrbhi	r0, [r8], #0
     d40:	00100000 	andseq	r0, r0, r0
     d44:	9f020000 	svcls	0x00020000
     d48:	23781e05 	cmncs	r8, #80	; 0x50
     d4c:	6c1e0000 	ldcvs	0, cr0, [lr], {-0}
     d50:	1d000023 	stcne	0, cr0, [r0, #-140]	; 0xffffff74
     d54:	00002384 	andeq	r2, r0, r4, lsl #7
     d58:	00000663 	andeq	r0, r0, r3, ror #12
     d5c:	00000661 	andeq	r0, r0, r1, ror #12
     d60:	00238e24 	eoreq	r8, r3, r4, lsr #28
     d64:	0084d800 	addeq	sp, r4, r0, lsl #16
     d68:	00000400 	andeq	r0, r0, r0, lsl #8
     d6c:	238f1d00 	orrcs	r1, pc, #0, 26
     d70:	06780000 	ldrbteq	r0, [r8], -r0
     d74:	06760000 	ldrbteq	r0, [r6], -r0
     d78:	00000000 	andeq	r0, r0, r0
     d7c:	1f000000 	svcne	0x00000000
     d80:	000022c5 	andeq	r2, r0, r5, asr #5
     d84:	00008374 	andeq	r8, r0, r4, ror r3
     d88:	06c80001 	strbeq	r0, [r8], r1
     d8c:	cc020000 	stcgt	0, cr0, [r2], {-0}
     d90:	000bab09 	andeq	sl, fp, r9, lsl #22
     d94:	22d21e00 	sbcscs	r1, r2, #0, 28
     d98:	1f250000 	svcne	0x00250000
     d9c:	74000023 	strvc	r0, [r0], #-35	; 0xffffffdd
     da0:	03000083 	movweq	r0, #131	; 0x83
     da4:	00837400 	addeq	r7, r3, r0, lsl #8
     da8:	00001800 	andeq	r1, r0, r0, lsl #16
     dac:	05ac0200 	streq	r0, [ip, #512]!	; 0x200
     db0:	0023381b 	eoreq	r3, r3, fp, lsl r8
     db4:	00068d00 	andeq	r8, r6, r0, lsl #26
     db8:	00068b00 	andeq	r8, r6, r0, lsl #22
     dbc:	232c1e00 			; <UNDEFINED> instruction: 0x232c1e00
     dc0:	441d0000 	ldrmi	r0, [sp], #-0
     dc4:	a5000023 	strge	r0, [r0, #-35]	; 0xffffffdd
     dc8:	a3000006 	movwge	r0, #6
     dcc:	22000006 	andcs	r0, r0, #6, 0
     dd0:	00002350 	andeq	r2, r0, r0, asr r3
     dd4:	00008374 	andeq	r8, r0, r4, ror r3
     dd8:	00000004 	andeq	r0, r0, r4
     ddc:	00000b46 	andeq	r0, r0, r6, asr #22
     de0:	0023511d 	eoreq	r5, r3, sp, lsl r1
     de4:	0006ba00 	andeq	fp, r6, r0, lsl #20
     de8:	0006b800 	andeq	fp, r6, r0, lsl #16
     dec:	b7260000 	strlt	r0, [r6, -r0]!
     df0:	78000023 	stmdavc	r0, {r0, r1, r5}
     df4:	03000083 	movweq	r0, #131	; 0x83
     df8:	00837800 	addeq	r7, r3, r0, lsl #16
     dfc:	00000400 	andeq	r0, r0, r0, lsl #8
     e00:	059e0200 	ldreq	r0, [lr, #512]	; 0x200
     e04:	00000b66 	andeq	r0, r0, r6, ror #22
     e08:	0023c41e 	eoreq	ip, r3, lr, lsl r4
     e0c:	5f230000 	svcpl	0x00230000
     e10:	7c000023 	stcvc	0, cr0, [r0], {35}	; 0x23
     e14:	10000083 	andne	r0, r0, r3, lsl #1
     e18:	02000000 	andeq	r0, r0, #0, 0
     e1c:	781e059f 	ldmdavc	lr, {r0, r1, r2, r3, r4, r7, r8, sl}
     e20:	1e000023 	cdpne	0, 0, cr0, cr0, cr3, {1}
     e24:	0000236c 	andeq	r2, r0, ip, ror #6
     e28:	0023841d 	eoreq	r8, r3, sp, lsl r4
     e2c:	0006cf00 	andeq	ip, r6, r0, lsl #30
     e30:	0006cd00 	andeq	ip, r6, r0, lsl #26
     e34:	238e2400 	orrcs	r2, lr, #0, 8
     e38:	837c0000 	cmnhi	ip, #0, 0
     e3c:	00040000 	andeq	r0, r4, r0
     e40:	8f1d0000 	svchi	0x001d0000
     e44:	e4000023 	str	r0, [r0], #-35	; 0xffffffdd
     e48:	e2000006 	and	r0, r0, #6, 0
     e4c:	00000006 	andeq	r0, r0, r6
     e50:	1f000000 	svcne	0x00000000
     e54:	00002291 	muleq	r0, r1, r2
     e58:	0000838c 	andeq	r8, r0, ip, lsl #7
     e5c:	06e00002 	strbteq	r0, [r0], r2
     e60:	cd020000 	stcgt	0, cr0, [r2, #-0]
     e64:	000c7f09 	andeq	r7, ip, r9, lsl #30
     e68:	229e1e00 	addscs	r1, lr, #0, 28
     e6c:	df250000 	svcle	0x00250000
     e70:	8c000022 	stchi	0, cr0, [r0], {34}	; 0x22
     e74:	04000083 	streq	r0, [r0], #-131	; 0xffffff7d
     e78:	00838c00 	addeq	r8, r3, r0, lsl #24
     e7c:	00001800 	andeq	r1, r0, r0, lsl #16
     e80:	05b50200 	ldreq	r0, [r5, #512]!	; 0x200
     e84:	0022f81b 	eoreq	pc, r2, fp, lsl r8	; <UNPREDICTABLE>
     e88:	0006f900 	andeq	pc, r6, r0, lsl #18
     e8c:	0006f700 	andeq	pc, r6, r0, lsl #14
     e90:	22ec1e00 	rsccs	r1, ip, #0, 28
     e94:	041d0000 	ldreq	r0, [sp], #-0
     e98:	10000023 	andne	r0, r0, r3, lsr #32
     e9c:	0e000007 	cdpeq	0, 0, cr0, cr0, cr7, {0}
     ea0:	22000007 	andcs	r0, r0, #7, 0
     ea4:	00002310 	andeq	r2, r0, r0, lsl r3
     ea8:	0000838c 	andeq	r8, r0, ip, lsl #7
     eac:	00000004 	andeq	r0, r0, r4
     eb0:	00000c1a 	andeq	r0, r0, sl, lsl ip
     eb4:	0023111d 	eoreq	r1, r3, sp, lsl r1
     eb8:	00072500 	andeq	r2, r7, r0, lsl #10
     ebc:	00072300 	andeq	r2, r7, r0, lsl #6
     ec0:	9d260000 	stcls	0, cr0, [r6, #-0]
     ec4:	90000023 	andls	r0, r0, r3, lsr #32
     ec8:	03000083 	movweq	r0, #131	; 0x83
     ecc:	00839000 	addeq	r9, r3, r0
     ed0:	00000400 	andeq	r0, r0, r0, lsl #8
     ed4:	05a60200 	streq	r0, [r6, #512]!	; 0x200
     ed8:	00000c3a 	andeq	r0, r0, sl, lsr ip
     edc:	0023aa1e 	eoreq	sl, r3, lr, lsl sl
     ee0:	5f230000 	svcpl	0x00230000
     ee4:	94000023 	strls	r0, [r0], #-35	; 0xffffffdd
     ee8:	10000083 	andne	r0, r0, r3, lsl #1
     eec:	02000000 	andeq	r0, r0, #0, 0
     ef0:	781e05a7 	ldmdavc	lr, {r0, r1, r2, r5, r7, r8, sl}
     ef4:	1e000023 	cdpne	0, 0, cr0, cr0, cr3, {1}
     ef8:	0000236c 	andeq	r2, r0, ip, ror #6
     efc:	0023841d 	eoreq	r8, r3, sp, lsl r4
     f00:	00073a00 	andeq	r3, r7, r0, lsl #20
     f04:	00073800 	andeq	r3, r7, r0, lsl #16
     f08:	238e2400 	orrcs	r2, lr, #0, 8
     f0c:	83940000 	orrshi	r0, r4, #0, 0
     f10:	00040000 	andeq	r0, r4, r0
     f14:	8f1d0000 	svchi	0x001d0000
     f18:	4f000023 	svcmi	0x00000023
     f1c:	4d000007 	stcmi	0, cr0, [r0, #-28]	; 0xffffffe4
     f20:	00000007 	andeq	r0, r0, r7
     f24:	1a000000 	bne	f2c <__code_start__-0x70d4>
     f28:	00002277 	andeq	r2, r0, r7, ror r2
     f2c:	000084e8 	andeq	r8, r0, r8, ror #9
     f30:	06f80002 	ldrbteq	r0, [r8], r2
     f34:	d0020000 	andle	r0, r2, r0
     f38:	22841e09 	addcs	r1, r4, #144	; 0x90
     f3c:	df250000 	svcle	0x00250000
     f40:	e8000022 	stmda	r0, {r1, r5}
     f44:	04000084 	streq	r0, [r0], #-132	; 0xffffff7c
     f48:	0084e800 	addeq	lr, r4, r0, lsl #16
     f4c:	00001800 	andeq	r1, r0, r0, lsl #16
     f50:	05b90200 	ldreq	r0, [r9, #512]!	; 0x200
     f54:	0022f81b 	eoreq	pc, r2, fp, lsl r8	; <UNPREDICTABLE>
     f58:	00076400 	andeq	r6, r7, r0, lsl #8
     f5c:	00076200 	andeq	r6, r7, r0, lsl #4
     f60:	22ec1e00 	rsccs	r1, ip, #0, 28
     f64:	041d0000 	ldreq	r0, [sp], #-0
     f68:	7c000023 	stcvc	0, cr0, [r0], {35}	; 0x23
     f6c:	7a000007 	bvc	f90 <__code_start__-0x7070>
     f70:	22000007 	andcs	r0, r0, #7, 0
     f74:	00002310 	andeq	r2, r0, r0, lsl r3
     f78:	000084e8 	andeq	r8, r0, r8, ror #9
     f7c:	00000004 	andeq	r0, r0, r4
     f80:	00000cea 	andeq	r0, r0, sl, ror #25
     f84:	0023111d 	eoreq	r1, r3, sp, lsl r1
     f88:	00079100 	andeq	r9, r7, r0, lsl #2
     f8c:	00078f00 	andeq	r8, r7, r0, lsl #30
     f90:	9d260000 	stcls	0, cr0, [r6, #-0]
     f94:	ec000023 	stc	0, cr0, [r0], {35}	; 0x23
     f98:	03000084 	movweq	r0, #132	; 0x84
     f9c:	0084ec00 	addeq	lr, r4, r0, lsl #24
     fa0:	00000400 	andeq	r0, r0, r0, lsl #8
     fa4:	05a60200 	streq	r0, [r6, #512]!	; 0x200
     fa8:	00000d0a 	andeq	r0, r0, sl, lsl #26
     fac:	0023aa1e 	eoreq	sl, r3, lr, lsl sl
     fb0:	5f230000 	svcpl	0x00230000
     fb4:	f0000023 			; <UNDEFINED> instruction: 0xf0000023
     fb8:	10000084 	andne	r0, r0, r4, lsl #1
     fbc:	02000000 	andeq	r0, r0, #0, 0
     fc0:	781e05a7 	ldmdavc	lr, {r0, r1, r2, r5, r7, r8, sl}
     fc4:	1e000023 	cdpne	0, 0, cr0, cr0, cr3, {1}
     fc8:	0000236c 	andeq	r2, r0, ip, ror #6
     fcc:	0023841d 	eoreq	r8, r3, sp, lsl r4
     fd0:	0007a600 	andeq	sl, r7, r0, lsl #12
     fd4:	0007a400 	andeq	sl, r7, r0, lsl #8
     fd8:	238e2400 	orrcs	r2, lr, #0, 8
     fdc:	84f00000 	ldrbthi	r0, [r0], #0
     fe0:	00040000 	andeq	r0, r4, r0
     fe4:	8f1d0000 	svchi	0x001d0000
     fe8:	bb000023 	bllt	107c <__code_start__-0x6f84>
     fec:	b9000007 	stmdblt	r0, {r0, r1, r2}
     ff0:	00000007 	andeq	r0, r0, r7
     ff4:	00000000 	andeq	r0, r0, r0
     ff8:	ef270000 	svc	0x00270000
     ffc:	10000021 	andne	r0, r0, r1, lsr #32
    1000:	02000007 	andeq	r0, r0, #7, 0
    1004:	10f305e6 	rscsne	r0, r3, r6, ror #11
    1008:	081e0000 	ldmdaeq	lr, {}	; <UNPREDICTABLE>
    100c:	1e000022 	cdpne	0, 0, cr0, cr0, cr2, {1}
    1010:	000021fc 	strdeq	r2, [r0], -ip
    1014:	00221220 	eoreq	r1, r2, r0, lsr #4
    1018:	00071000 	andeq	r1, r7, r0
    101c:	22131d00 	andscs	r1, r3, #0, 26
    1020:	07d20000 	ldrbeq	r0, [r2, r0]
    1024:	07ce0000 	strbeq	r0, [lr, r0]
    1028:	1f1a0000 	svcne	0x001a0000
    102c:	b8000022 	stmdalt	r0, {r1, r5}
    1030:	02000083 	andeq	r0, r0, #131, 0	; 0x83
    1034:	00074800 	andeq	r4, r7, r0, lsl #16
    1038:	09db0200 	ldmibeq	fp, {r9}^
    103c:	0022381b 	eoreq	r3, r2, fp, lsl r8
    1040:	0007f400 	andeq	pc, r7, r0, lsl #8
    1044:	0007f000 	andeq	pc, r7, r0
    1048:	222c1e00 	eorcs	r1, ip, #0, 28
    104c:	ab1f0000 	blge	7c1054 <__bss_end__+0x7b6b84>
    1050:	90000022 	andls	r0, r0, r2, lsr #32
    1054:	02000084 	andeq	r0, r0, #132, 0	; 0x84
    1058:	00079000 	andeq	r9, r7, r0
    105c:	09cf0200 	stmibeq	pc, {r9}^	; <UNPREDICTABLE>
    1060:	00000e78 	andeq	r0, r0, r8, ror lr
    1064:	0022b81e 	eoreq	fp, r2, lr, lsl r8
    1068:	231f1a00 	tstcs	pc, #0, 20
    106c:	84900000 	ldrhi	r0, [r0], #0
    1070:	00040000 	andeq	r0, r4, r0
    1074:	000007b0 			; <UNDEFINED> instruction: 0x000007b0
    1078:	1b05b102 	blne	16d488 <__bss_end__+0x162fb8>
    107c:	00002338 	andeq	r2, r0, r8, lsr r3
    1080:	00000822 	andeq	r0, r0, r2, lsr #16
    1084:	00000820 	andeq	r0, r0, r0, lsr #16
    1088:	00232c1e 	eoreq	r2, r3, lr, lsl ip
    108c:	07b02100 	ldreq	r2, [r0, r0, lsl #2]!
    1090:	441d0000 	ldrmi	r0, [sp], #-0
    1094:	39000023 	stmdbcc	r0, {r0, r1, r5}
    1098:	37000008 	strcc	r0, [r0, -r8]
    109c:	1f000008 	svcne	0x00000008
    10a0:	000023b7 			; <UNDEFINED> instruction: 0x000023b7
    10a4:	00008494 	muleq	r0, r4, r4
    10a8:	07c80003 	strbeq	r0, [r8, r3]
    10ac:	9e020000 	cdpls	0, 0, cr0, cr2, cr0, {0}
    10b0:	000e1305 	andeq	r1, lr, r5, lsl #6
    10b4:	23c41e00 	biccs	r1, r4, #0, 28
    10b8:	22000000 	andcs	r0, r0, #0, 0
    10bc:	00002350 	andeq	r2, r0, r0, asr r3
    10c0:	00008490 	muleq	r0, r0, r4
    10c4:	00000004 	andeq	r0, r0, r4
    10c8:	00000e32 	andeq	r0, r0, r2, lsr lr
    10cc:	0023511d 	eoreq	r5, r3, sp, lsl r1
    10d0:	00084e00 	andeq	r4, r8, r0, lsl #28
    10d4:	00084c00 	andeq	r4, r8, r0, lsl #24
    10d8:	5f230000 	svcpl	0x00230000
    10dc:	98000023 	stmdals	r0, {r0, r1, r5}
    10e0:	10000084 	andne	r0, r0, r4, lsl #1
    10e4:	02000000 	andeq	r0, r0, #0, 0
    10e8:	781e059f 	ldmdavc	lr, {r0, r1, r2, r3, r4, r7, r8, sl}
    10ec:	1e000023 	cdpne	0, 0, cr0, cr0, cr3, {1}
    10f0:	0000236c 	andeq	r2, r0, ip, ror #6
    10f4:	0023841d 	eoreq	r8, r3, sp, lsl r4
    10f8:	00086300 	andeq	r6, r8, r0, lsl #6
    10fc:	00086100 	andeq	r6, r8, r0, lsl #2
    1100:	238e2400 	orrcs	r2, lr, #0, 8
    1104:	84980000 	ldrhi	r0, [r8], #0
    1108:	00040000 	andeq	r0, r4, r0
    110c:	8f1d0000 	svchi	0x001d0000
    1110:	78000023 	stmdavc	r0, {r0, r1, r5}
    1114:	76000008 	strvc	r0, [r0], -r8
    1118:	00000008 	andeq	r0, r0, r8
    111c:	00000000 	andeq	r0, r0, r0
    1120:	0022c51f 	eoreq	ip, r2, pc, lsl r5
    1124:	0083c400 	addeq	ip, r3, r0, lsl #8
    1128:	e0000100 	and	r0, r0, r0, lsl #2
    112c:	02000007 	andeq	r0, r0, #7, 0
    1130:	0f4c09cc 	svceq	0x004c09cc
    1134:	d21e0000 	andsle	r0, lr, #0, 0
    1138:	25000022 	strcs	r0, [r0, #-34]	; 0xffffffde
    113c:	0000231f 	andeq	r2, r0, pc, lsl r3
    1140:	000083c4 	andeq	r8, r0, r4, asr #7
    1144:	83c40003 	bichi	r0, r4, #3, 0
    1148:	00180000 	andseq	r0, r8, r0
    114c:	ac020000 	stcge	0, cr0, [r2], {-0}
    1150:	23381b05 	teqcs	r8, #5120	; 0x1400
    1154:	088d0000 	stmeq	sp, {}	; <UNPREDICTABLE>
    1158:	088b0000 	stmeq	fp, {}	; <UNPREDICTABLE>
    115c:	2c1e0000 	ldccs	0, cr0, [lr], {-0}
    1160:	1d000023 	stcne	0, cr0, [r0, #-140]	; 0xffffff74
    1164:	00002344 	andeq	r2, r0, r4, asr #6
    1168:	000008a5 	andeq	r0, r0, r5, lsr #17
    116c:	000008a3 	andeq	r0, r0, r3, lsr #17
    1170:	00235022 	eoreq	r5, r3, r2, lsr #32
    1174:	0083c400 	addeq	ip, r3, r0, lsl #8
    1178:	00000400 	andeq	r0, r0, r0, lsl #8
    117c:	000ee700 	andeq	lr, lr, r0, lsl #14
    1180:	23511d00 	cmpcs	r1, #0, 26
    1184:	08ba0000 	ldmeq	sl!, {}	; <UNPREDICTABLE>
    1188:	08b80000 	ldmeq	r8!, {}	; <UNPREDICTABLE>
    118c:	26000000 	strcs	r0, [r0], -r0
    1190:	000023b7 			; <UNDEFINED> instruction: 0x000023b7
    1194:	000083c8 	andeq	r8, r0, r8, asr #7
    1198:	83c80003 	bichi	r0, r8, #3, 0
    119c:	00040000 	andeq	r0, r4, r0
    11a0:	9e020000 	cdpls	0, 0, cr0, cr2, cr0, {0}
    11a4:	000f0705 	andeq	r0, pc, r5, lsl #14
    11a8:	23c41e00 	biccs	r1, r4, #0, 28
    11ac:	23000000 	movwcs	r0, #0
    11b0:	0000235f 	andeq	r2, r0, pc, asr r3
    11b4:	000083cc 	andeq	r8, r0, ip, asr #7
    11b8:	00000010 	andeq	r0, r0, r0, lsl r0
    11bc:	1e059f02 	cdpne	15, 0, cr9, cr5, cr2, {0}
    11c0:	00002378 	andeq	r2, r0, r8, ror r3
    11c4:	00236c1e 	eoreq	r6, r3, lr, lsl ip
    11c8:	23841d00 	orrcs	r1, r4, #0, 26
    11cc:	08cf0000 	stmiaeq	pc, {}^	; <UNPREDICTABLE>
    11d0:	08cd0000 	stmiaeq	sp, {}^	; <UNPREDICTABLE>
    11d4:	8e240000 	cdphi	0, 2, cr0, cr4, cr0, {0}
    11d8:	cc000023 	stcgt	0, cr0, [r0], {35}	; 0x23
    11dc:	04000083 	streq	r0, [r0], #-131	; 0xffffff7d
    11e0:	1d000000 	stcne	0, cr0, [r0, #-0]
    11e4:	0000238f 	andeq	r2, r0, pc, lsl #7
    11e8:	000008e4 	andeq	r0, r0, r4, ror #17
    11ec:	000008e2 	andeq	r0, r0, r2, ror #17
    11f0:	00000000 	andeq	r0, r0, r0
    11f4:	0022911f 	eoreq	r9, r2, pc, lsl r1
    11f8:	0083dc00 	addeq	sp, r3, r0, lsl #24
    11fc:	f8000200 			; <UNDEFINED> instruction: 0xf8000200
    1200:	02000007 	andeq	r0, r0, #7, 0
    1204:	102009cd 	eorne	r0, r0, sp, asr #19
    1208:	9e1e0000 	cdpls	0, 1, cr0, cr14, cr0, {0}
    120c:	25000022 	strcs	r0, [r0, #-34]	; 0xffffffde
    1210:	000022df 	ldrdeq	r2, [r0], -pc	; <UNPREDICTABLE>
    1214:	000083dc 	ldrdeq	r8, [r0], -ip
    1218:	83dc0004 	bicshi	r0, ip, #4, 0
    121c:	00180000 	andseq	r0, r8, r0
    1220:	b5020000 	strlt	r0, [r2, #-0]
    1224:	22f81b05 	rscscs	r1, r8, #5120	; 0x1400
    1228:	08f90000 	ldmeq	r9!, {}^	; <UNPREDICTABLE>
    122c:	08f70000 	ldmeq	r7!, {}^	; <UNPREDICTABLE>
    1230:	ec1e0000 	ldc	0, cr0, [lr], {-0}
    1234:	1d000022 	stcne	0, cr0, [r0, #-136]	; 0xffffff78
    1238:	00002304 	andeq	r2, r0, r4, lsl #6
    123c:	00000910 	andeq	r0, r0, r0, lsl r9
    1240:	0000090e 	andeq	r0, r0, lr, lsl #18
    1244:	00231022 	eoreq	r1, r3, r2, lsr #32
    1248:	0083dc00 	addeq	sp, r3, r0, lsl #24
    124c:	00000400 	andeq	r0, r0, r0, lsl #8
    1250:	000fbb00 	andeq	fp, pc, r0, lsl #22
    1254:	23111d00 	tstcs	r1, #0, 26
    1258:	09250000 	stmdbeq	r5!, {}	; <UNPREDICTABLE>
    125c:	09230000 	stmdbeq	r3!, {}	; <UNPREDICTABLE>
    1260:	26000000 	strcs	r0, [r0], -r0
    1264:	0000239d 	muleq	r0, sp, r3
    1268:	000083e0 	andeq	r8, r0, r0, ror #7
    126c:	83e00003 	mvnhi	r0, #3, 0
    1270:	00040000 	andeq	r0, r4, r0
    1274:	a6020000 	strge	r0, [r2], -r0
    1278:	000fdb05 	andeq	sp, pc, r5, lsl #22
    127c:	23aa1e00 			; <UNDEFINED> instruction: 0x23aa1e00
    1280:	23000000 	movwcs	r0, #0
    1284:	0000235f 	andeq	r2, r0, pc, asr r3
    1288:	000083e4 	andeq	r8, r0, r4, ror #7
    128c:	00000010 	andeq	r0, r0, r0, lsl r0
    1290:	1e05a702 	cdpne	7, 0, cr10, cr5, cr2, {0}
    1294:	00002378 	andeq	r2, r0, r8, ror r3
    1298:	00236c1e 	eoreq	r6, r3, lr, lsl ip
    129c:	23841d00 	orrcs	r1, r4, #0, 26
    12a0:	093a0000 	ldmdbeq	sl!, {}	; <UNPREDICTABLE>
    12a4:	09380000 	ldmdbeq	r8!, {}	; <UNPREDICTABLE>
    12a8:	8e240000 	cdphi	0, 2, cr0, cr4, cr0, {0}
    12ac:	e4000023 	str	r0, [r0], #-35	; 0xffffffdd
    12b0:	04000083 	streq	r0, [r0], #-131	; 0xffffff7d
    12b4:	1d000000 	stcne	0, cr0, [r0, #-0]
    12b8:	0000238f 	andeq	r2, r0, pc, lsl #7
    12bc:	0000094f 	andeq	r0, r0, pc, asr #18
    12c0:	0000094d 	andeq	r0, r0, sp, asr #18
    12c4:	00000000 	andeq	r0, r0, r0
    12c8:	0022771a 	eoreq	r7, r2, sl, lsl r7
    12cc:	0084a800 	addeq	sl, r4, r0, lsl #16
    12d0:	10000200 	andne	r0, r0, r0, lsl #4
    12d4:	02000008 	andeq	r0, r0, #8, 0
    12d8:	841e09d0 	ldrhi	r0, [lr], #-2512	; 0xfffff630
    12dc:	25000022 	strcs	r0, [r0, #-34]	; 0xffffffde
    12e0:	000022df 	ldrdeq	r2, [r0], -pc	; <UNPREDICTABLE>
    12e4:	000084a8 	andeq	r8, r0, r8, lsr #9
    12e8:	84a80004 	strthi	r0, [r8], #4
    12ec:	00180000 	andseq	r0, r8, r0
    12f0:	b9020000 	stmdblt	r2, {}	; <UNPREDICTABLE>
    12f4:	22f81b05 	rscscs	r1, r8, #5120	; 0x1400
    12f8:	09640000 	stmdbeq	r4!, {}^	; <UNPREDICTABLE>
    12fc:	09620000 	stmdbeq	r2!, {}^	; <UNPREDICTABLE>
    1300:	ec1e0000 	ldc	0, cr0, [lr], {-0}
    1304:	1d000022 	stcne	0, cr0, [r0, #-136]	; 0xffffff78
    1308:	00002304 	andeq	r2, r0, r4, lsl #6
    130c:	0000097c 	andeq	r0, r0, ip, ror r9
    1310:	0000097a 	andeq	r0, r0, sl, ror r9
    1314:	00231022 	eoreq	r1, r3, r2, lsr #32
    1318:	0084a800 	addeq	sl, r4, r0, lsl #16
    131c:	00000400 	andeq	r0, r0, r0, lsl #8
    1320:	00108b00 	andseq	r8, r0, r0, lsl #22
    1324:	23111d00 	tstcs	r1, #0, 26
    1328:	09910000 	ldmibeq	r1, {}	; <UNPREDICTABLE>
    132c:	098f0000 	stmibeq	pc, {}	; <UNPREDICTABLE>
    1330:	26000000 	strcs	r0, [r0], -r0
    1334:	0000239d 	muleq	r0, sp, r3
    1338:	000084ac 	andeq	r8, r0, ip, lsr #9
    133c:	84ac0003 	strthi	r0, [ip], #3
    1340:	00040000 	andeq	r0, r4, r0
    1344:	a6020000 	strge	r0, [r2], -r0
    1348:	0010ab05 	andseq	sl, r0, r5, lsl #22
    134c:	23aa1e00 			; <UNDEFINED> instruction: 0x23aa1e00
    1350:	23000000 	movwcs	r0, #0
    1354:	0000235f 	andeq	r2, r0, pc, asr r3
    1358:	000084b0 			; <UNDEFINED> instruction: 0x000084b0
    135c:	00000010 	andeq	r0, r0, r0, lsl r0
    1360:	1e05a702 	cdpne	7, 0, cr10, cr5, cr2, {0}
    1364:	00002378 	andeq	r2, r0, r8, ror r3
    1368:	00236c1e 	eoreq	r6, r3, lr, lsl ip
    136c:	23841d00 	orrcs	r1, r4, #0, 26
    1370:	09a60000 	stmibeq	r6!, {}	; <UNPREDICTABLE>
    1374:	09a40000 	stmibeq	r4!, {}	; <UNPREDICTABLE>
    1378:	8e240000 	cdphi	0, 2, cr0, cr4, cr0, {0}
    137c:	b0000023 	andlt	r0, r0, r3, lsr #32
    1380:	04000084 	streq	r0, [r0], #-132	; 0xffffff7c
    1384:	1d000000 	stcne	0, cr0, [r0, #-0]
    1388:	0000238f 	andeq	r2, r0, pc, lsl #7
    138c:	000009bb 			; <UNDEFINED> instruction: 0x000009bb
    1390:	000009b9 			; <UNDEFINED> instruction: 0x000009b9
    1394:	00000000 	andeq	r0, r0, r0
    1398:	29000000 	stmdbcs	r0, {}	; <UNPREDICTABLE>
    139c:	000021ef 	andeq	r2, r0, pc, ror #3
    13a0:	00000828 	andeq	r0, r0, r8, lsr #16
    13a4:	1e05e702 	cdpne	7, 0, cr14, cr5, cr2, {0}
    13a8:	00002208 	andeq	r2, r0, r8, lsl #4
    13ac:	0021fc1e 	eoreq	pc, r1, lr, lsl ip	; <UNPREDICTABLE>
    13b0:	22122000 	andscs	r2, r2, #0, 0
    13b4:	08280000 	stmdaeq	r8!, {}	; <UNPREDICTABLE>
    13b8:	131d0000 	tstne	sp, #0, 0
    13bc:	d0000022 	andle	r0, r0, r2, lsr #32
    13c0:	ce000009 	cdpgt	0, 0, cr0, cr0, cr9, {0}
    13c4:	1a000009 	bne	13f0 <__code_start__-0x6c10>
    13c8:	0000221f 	andeq	r2, r0, pc, lsl r2
    13cc:	00008404 	andeq	r8, r0, r4, lsl #8
    13d0:	08580001 	ldmdaeq	r8, {r0}^
    13d4:	db020000 	blle	813dc <__bss_end__+0x76f0c>
    13d8:	22381b09 	eorscs	r1, r8, #9216	; 0x2400
    13dc:	09e70000 	stmibeq	r7!, {}^	; <UNPREDICTABLE>
    13e0:	09e30000 	stmibeq	r3!, {}^	; <UNPREDICTABLE>
    13e4:	2c1e0000 	ldccs	0, cr0, [lr], {-0}
    13e8:	1f000022 	svcne	0x00000022
    13ec:	000022ab 	andeq	r2, r0, fp, lsr #5
    13f0:	0000845c 	andeq	r8, r0, ip, asr r4
    13f4:	08a00001 	stmiaeq	r0!, {r0}
    13f8:	cf020000 	svcgt	0x00020000
    13fc:	00121509 	andseq	r1, r2, r9, lsl #10
    1400:	22b81e00 	adcscs	r1, r8, #0, 28
    1404:	1f1a0000 	svcne	0x001a0000
    1408:	5c000023 	stcpl	0, cr0, [r0], {35}	; 0x23
    140c:	03000084 	movweq	r0, #132	; 0x84
    1410:	0008c000 	andeq	ip, r8, r0
    1414:	05b10200 	ldreq	r0, [r1, #512]!	; 0x200
    1418:	0023381b 	eoreq	r3, r3, fp, lsl r8
    141c:	000a1500 	andeq	r1, sl, r0, lsl #10
    1420:	000a1300 	andeq	r1, sl, r0, lsl #6
    1424:	232c1e00 			; <UNDEFINED> instruction: 0x232c1e00
    1428:	c0210000 	eorgt	r0, r1, r0
    142c:	1d000008 	stcne	0, cr0, [r0, #-32]	; 0xffffffe0
    1430:	00002344 	andeq	r2, r0, r4, asr #6
    1434:	00000a2c 	andeq	r0, r0, ip, lsr #20
    1438:	00000a2a 	andeq	r0, r0, sl, lsr #20
    143c:	0023b71f 	eoreq	fp, r3, pc, lsl r7
    1440:	00846000 	addeq	r6, r4, r0
    1444:	d8000300 	stmdale	r0, {r8, r9}
    1448:	02000008 	andeq	r0, r0, #8, 0
    144c:	11b0059e 	lslsne	r0, lr	; <illegal shifter operand>
    1450:	c41e0000 	ldrgt	r0, [lr], #-0
    1454:	00000023 	andeq	r0, r0, r3, lsr #32
    1458:	00235022 	eoreq	r5, r3, r2, lsr #32
    145c:	00845c00 	addeq	r5, r4, r0, lsl #24
    1460:	00000400 	andeq	r0, r0, r0, lsl #8
    1464:	0011cf00 	andseq	ip, r1, r0, lsl #30
    1468:	23511d00 	cmpcs	r1, #0, 26
    146c:	0a410000 	beq	1041474 <__bss_end__+0x1036fa4>
    1470:	0a3f0000 	beq	fc1478 <__bss_end__+0xfb6fa8>
    1474:	23000000 	movwcs	r0, #0
    1478:	0000235f 	andeq	r2, r0, pc, asr r3
    147c:	00008464 	andeq	r8, r0, r4, ror #8
    1480:	00000010 	andeq	r0, r0, r0, lsl r0
    1484:	1e059f02 	cdpne	15, 0, cr9, cr5, cr2, {0}
    1488:	00002378 	andeq	r2, r0, r8, ror r3
    148c:	00236c1e 	eoreq	r6, r3, lr, lsl ip
    1490:	23841d00 	orrcs	r1, r4, #0, 26
    1494:	0a560000 	beq	158149c <__bss_end__+0x1576fcc>
    1498:	0a540000 	beq	15014a0 <__bss_end__+0x14f6fd0>
    149c:	8e240000 	cdphi	0, 2, cr0, cr4, cr0, {0}
    14a0:	64000023 	strvs	r0, [r0], #-35	; 0xffffffdd
    14a4:	04000084 	streq	r0, [r0], #-132	; 0xffffff7c
    14a8:	1d000000 	stcne	0, cr0, [r0, #-0]
    14ac:	0000238f 	andeq	r2, r0, pc, lsl #7
    14b0:	00000a6b 	andeq	r0, r0, fp, ror #20
    14b4:	00000a69 	andeq	r0, r0, r9, ror #20
    14b8:	00000000 	andeq	r0, r0, r0
    14bc:	22c51f00 	sbccs	r1, r5, #0, 30
    14c0:	84140000 	ldrhi	r0, [r4], #-0
    14c4:	00010000 	andeq	r0, r1, r0
    14c8:	000008f0 	strdeq	r0, [r0], -r0	; <UNPREDICTABLE>
    14cc:	e909cc02 	stmdb	r9, {r1, sl, fp, lr, pc}
    14d0:	1e000012 	mcrne	0, 0, r0, cr0, cr2, {0}
    14d4:	000022d2 	ldrdeq	r2, [r0], -r2	; <UNPREDICTABLE>
    14d8:	00231f25 	eoreq	r1, r3, r5, lsr #30
    14dc:	00841400 	addeq	r1, r4, r0, lsl #8
    14e0:	14000300 	strne	r0, [r0], #-768	; 0xfffffd00
    14e4:	18000084 	stmdane	r0, {r2, r7}
    14e8:	02000000 	andeq	r0, r0, #0, 0
    14ec:	381b05ac 	ldmdacc	fp, {r2, r3, r5, r7, r8, sl}
    14f0:	80000023 	andhi	r0, r0, r3, lsr #32
    14f4:	7e00000a 	cdpvc	0, 0, cr0, cr0, cr10, {0}
    14f8:	1e00000a 	cdpne	0, 0, cr0, cr0, cr10, {0}
    14fc:	0000232c 	andeq	r2, r0, ip, lsr #6
    1500:	0023441d 	eoreq	r4, r3, sp, lsl r4
    1504:	000a9800 	andeq	r9, sl, r0, lsl #16
    1508:	000a9600 	andeq	r9, sl, r0, lsl #12
    150c:	23502200 	cmpcs	r0, #0, 4
    1510:	84140000 	ldrhi	r0, [r4], #-0
    1514:	00040000 	andeq	r0, r4, r0
    1518:	12840000 	addne	r0, r4, #0, 0
    151c:	511d0000 	tstpl	sp, r0
    1520:	ad000023 	stcge	0, cr0, [r0, #-140]	; 0xffffff74
    1524:	ab00000a 	blge	1554 <__code_start__-0x6aac>
    1528:	0000000a 	andeq	r0, r0, sl
    152c:	0023b726 	eoreq	fp, r3, r6, lsr #14
    1530:	00841800 	addeq	r1, r4, r0, lsl #16
    1534:	18000300 	stmdane	r0, {r8, r9}
    1538:	04000084 	streq	r0, [r0], #-132	; 0xffffff7c
    153c:	02000000 	andeq	r0, r0, #0, 0
    1540:	12a4059e 	adcne	r0, r4, #662700032	; 0x27800000
    1544:	c41e0000 	ldrgt	r0, [lr], #-0
    1548:	00000023 	andeq	r0, r0, r3, lsr #32
    154c:	00235f23 	eoreq	r5, r3, r3, lsr #30
    1550:	00841c00 	addeq	r1, r4, r0, lsl #24
    1554:	00001000 	andeq	r1, r0, r0
    1558:	059f0200 	ldreq	r0, [pc, #512]	; 1760 <__code_start__-0x68a0>
    155c:	0023781e 	eoreq	r7, r3, lr, lsl r8
    1560:	236c1e00 	cmncs	ip, #0, 28
    1564:	841d0000 	ldrhi	r0, [sp], #-0
    1568:	c2000023 	andgt	r0, r0, #35, 0	; 0x23
    156c:	c000000a 	andgt	r0, r0, sl
    1570:	2400000a 	strcs	r0, [r0], #-10
    1574:	0000238e 	andeq	r2, r0, lr, lsl #7
    1578:	0000841c 	andeq	r8, r0, ip, lsl r4
    157c:	00000004 	andeq	r0, r0, r4
    1580:	00238f1d 	eoreq	r8, r3, sp, lsl pc
    1584:	000ad700 	andeq	sp, sl, r0, lsl #14
    1588:	000ad500 	andeq	sp, sl, r0, lsl #10
    158c:	00000000 	andeq	r0, r0, r0
    1590:	22911f00 	addscs	r1, r1, #0, 30
    1594:	842c0000 	strthi	r0, [ip], #-0
    1598:	00020000 	andeq	r0, r2, r0
    159c:	00000908 	andeq	r0, r0, r8, lsl #18
    15a0:	bd09cd02 	stclt	13, cr12, [r9, #-8]
    15a4:	1e000013 	mcrne	0, 0, r0, cr0, cr3, {0}
    15a8:	0000229e 	muleq	r0, lr, r2
    15ac:	0022df25 	eoreq	sp, r2, r5, lsr #30
    15b0:	00842c00 	addeq	r2, r4, r0, lsl #24
    15b4:	2c000400 	cfstrscs	mvf0, [r0], {-0}
    15b8:	18000084 	stmdane	r0, {r2, r7}
    15bc:	02000000 	andeq	r0, r0, #0, 0
    15c0:	f81b05b5 			; <UNDEFINED> instruction: 0xf81b05b5
    15c4:	ec000022 	stc	0, cr0, [r0], {34}	; 0x22
    15c8:	ea00000a 	b	15f8 <__code_start__-0x6a08>
    15cc:	1e00000a 	cdpne	0, 0, cr0, cr0, cr10, {0}
    15d0:	000022ec 	andeq	r2, r0, ip, ror #5
    15d4:	0023041d 	eoreq	r0, r3, sp, lsl r4
    15d8:	000b0300 	andeq	r0, fp, r0, lsl #6
    15dc:	000b0100 	andeq	r0, fp, r0, lsl #2
    15e0:	23102200 	tstcs	r0, #0, 4
    15e4:	842c0000 	strthi	r0, [ip], #-0
    15e8:	00040000 	andeq	r0, r4, r0
    15ec:	13580000 	cmpne	r8, #0, 0
    15f0:	111d0000 	tstne	sp, r0
    15f4:	18000023 	stmdane	r0, {r0, r1, r5}
    15f8:	1600000b 	strne	r0, [r0], -fp
    15fc:	0000000b 	andeq	r0, r0, fp
    1600:	00239d26 	eoreq	r9, r3, r6, lsr #26
    1604:	00843000 	addeq	r3, r4, r0
    1608:	30000300 	andcc	r0, r0, r0, lsl #6
    160c:	04000084 	streq	r0, [r0], #-132	; 0xffffff7c
    1610:	02000000 	andeq	r0, r0, #0, 0
    1614:	137805a6 	cmnne	r8, #696254464	; 0x29800000
    1618:	aa1e0000 	bge	781620 <__bss_end__+0x777150>
    161c:	00000023 	andeq	r0, r0, r3, lsr #32
    1620:	00235f23 	eoreq	r5, r3, r3, lsr #30
    1624:	00843400 	addeq	r3, r4, r0, lsl #8
    1628:	00001000 	andeq	r1, r0, r0
    162c:	05a70200 	streq	r0, [r7, #512]!	; 0x200
    1630:	0023781e 	eoreq	r7, r3, lr, lsl r8
    1634:	236c1e00 	cmncs	ip, #0, 28
    1638:	841d0000 	ldrhi	r0, [sp], #-0
    163c:	2d000023 	stccs	0, cr0, [r0, #-140]	; 0xffffff74
    1640:	2b00000b 	blcs	1674 <__code_start__-0x698c>
    1644:	2400000b 	strcs	r0, [r0], #-11
    1648:	0000238e 	andeq	r2, r0, lr, lsl #7
    164c:	00008434 	andeq	r8, r0, r4, lsr r4
    1650:	00000004 	andeq	r0, r0, r4
    1654:	00238f1d 	eoreq	r8, r3, sp, lsl pc
    1658:	000b4200 	andeq	r4, fp, r0, lsl #4
    165c:	000b4000 	andeq	r4, fp, r0
    1660:	00000000 	andeq	r0, r0, r0
    1664:	22771a00 	rsbscs	r1, r7, #0, 20
    1668:	84740000 	ldrbthi	r0, [r4], #-0
    166c:	00020000 	andeq	r0, r2, r0
    1670:	00000920 	andeq	r0, r0, r0, lsr #18
    1674:	1e09d002 	cdpne	0, 0, cr13, cr9, cr2, {0}
    1678:	00002284 	andeq	r2, r0, r4, lsl #5
    167c:	0022df25 	eoreq	sp, r2, r5, lsr #30
    1680:	00847400 	addeq	r7, r4, r0, lsl #8
    1684:	74000400 	strvc	r0, [r0], #-1024	; 0xfffffc00
    1688:	1c000084 	stcne	0, cr0, [r0], {132}	; 0x84
    168c:	02000000 	andeq	r0, r0, #0, 0
    1690:	f81b05b9 			; <UNDEFINED> instruction: 0xf81b05b9
    1694:	57000022 	strpl	r0, [r0, -r2, lsr #32]
    1698:	5500000b 	strpl	r0, [r0, #-11]
    169c:	1e00000b 	cdpne	0, 0, cr0, cr0, cr11, {0}
    16a0:	000022ec 	andeq	r2, r0, ip, ror #5
    16a4:	0023041d 	eoreq	r0, r3, sp, lsl r4
    16a8:	000b6f00 	andeq	r6, fp, r0, lsl #30
    16ac:	000b6d00 	andeq	r6, fp, r0, lsl #26
    16b0:	23102200 	tstcs	r0, #0, 4
    16b4:	84740000 	ldrbthi	r0, [r4], #-0
    16b8:	00040000 	andeq	r0, r4, r0
    16bc:	14280000 	strtne	r0, [r8], #-0
    16c0:	111d0000 	tstne	sp, r0
    16c4:	84000023 	strhi	r0, [r0], #-35	; 0xffffffdd
    16c8:	8200000b 	andhi	r0, r0, #11, 0
    16cc:	0000000b 	andeq	r0, r0, fp
    16d0:	00239d26 	eoreq	r9, r3, r6, lsr #26
    16d4:	00847800 	addeq	r7, r4, r0, lsl #16
    16d8:	78000300 	stmdavc	r0, {r8, r9}
    16dc:	04000084 	streq	r0, [r0], #-132	; 0xffffff7c
    16e0:	02000000 	andeq	r0, r0, #0, 0
    16e4:	144805a6 	strbne	r0, [r8], #-1446	; 0xfffffa5a
    16e8:	aa1e0000 	bge	7816f0 <__bss_end__+0x777220>
    16ec:	00000023 	andeq	r0, r0, r3, lsr #32
    16f0:	00235f23 	eoreq	r5, r3, r3, lsr #30
    16f4:	00847c00 	addeq	r7, r4, r0, lsl #24
    16f8:	00001400 	andeq	r1, r0, r0, lsl #8
    16fc:	05a70200 	streq	r0, [r7, #512]!	; 0x200
    1700:	0023781e 	eoreq	r7, r3, lr, lsl r8
    1704:	236c1e00 	cmncs	ip, #0, 28
    1708:	841d0000 	ldrhi	r0, [sp], #-0
    170c:	99000023 	stmdbls	r0, {r0, r1, r5}
    1710:	9700000b 	strls	r0, [r0, -fp]
    1714:	2400000b 	strcs	r0, [r0], #-11
    1718:	0000238e 	andeq	r2, r0, lr, lsl #7
    171c:	0000847c 	andeq	r8, r0, ip, ror r4
    1720:	00000004 	andeq	r0, r0, r4
    1724:	00238f1d 	eoreq	r8, r3, sp, lsl pc
    1728:	000bae00 	andeq	sl, fp, r0, lsl #28
    172c:	000bac00 	andeq	sl, fp, r0, lsl #24
	...
    1738:	512f0000 			; <UNDEFINED> instruction: 0x512f0000
    173c:	01000000 	mrseq	r0, (UNDEF: 0)
    1740:	00e1072a 	rsceq	r0, r1, sl, lsr #14
    1744:	83000000 	movwhi	r0, #0
    1748:	00440000 	subeq	r0, r4, r0
    174c:	9c010000 	stcls	0, cr0, [r1], {-0}
    1750:	0000153e 	andeq	r1, r0, lr, lsr r5
    1754:	6e697019 	mcrvs	0, 3, r7, cr9, cr9, {0}
    1758:	1b2a0100 	blne	a81b60 <__bss_end__+0xa77690>
    175c:	00000059 	andeq	r0, r0, r9, asr r0
    1760:	00000bc5 	andeq	r0, r0, r5, asr #23
    1764:	00000bc1 	andeq	r0, r0, r1, asr #23
    1768:	00026e30 	andeq	r6, r2, r0, lsr lr
    176c:	292a0100 	stmdbcs	sl!, {r8}
    1770:	0000002c 	andeq	r0, r0, ip, lsr #32
    1774:	00000bea 	andeq	r0, r0, sl, ror #23
    1778:	00000be6 	andeq	r0, r0, r6, ror #23
    177c:	01006831 	tsteq	r0, r1, lsr r8
    1780:	00e10b2b 	rsceq	r0, r1, fp, lsr #22
    1784:	0c0c0000 	stceq	0, cr0, [ip], {-0}
    1788:	0c080000 	stceq	0, cr0, [r8], {-0}
    178c:	e3320000 	teq	r2, #0, 0
    1790:	01000009 	tsteq	r0, r9
    1794:	002c0e2c 	eoreq	r0, ip, ip, lsr #28
    1798:	0c2c0000 	stceq	0, cr0, [ip], #-0
    179c:	0c2a0000 	stceq	0, cr0, [sl], #-0
    17a0:	1c330000 	ldcne	0, cr0, [r3], #-0
    17a4:	54000083 	strpl	r0, [r0], #-131	; 0xffffff7d
    17a8:	0e00002a 	cdpeq	0, 0, cr0, cr0, cr10, {1}
    17ac:	34000015 	strcc	r0, [r0], #-21	; 0xffffffeb
    17b0:	77025001 	strvc	r5, [r2, -r1]
    17b4:	2c330000 	ldccs	0, cr0, [r3], #-0
    17b8:	60000083 	andvs	r0, r0, r3, lsl #1
    17bc:	2d00002a 	stccs	0, cr0, [r0, #-168]	; 0xffffff58
    17c0:	34000015 	strcc	r0, [r0], #-21	; 0xffffffeb
    17c4:	74025001 	strvc	r5, [r2], #-1
    17c8:	51013400 	tstpl	r1, r0, lsl #8
    17cc:	01343001 	teqeq	r4, r1
    17d0:	00770252 	rsbseq	r0, r7, r2, asr r2
    17d4:	833c3500 	teqhi	ip, #0, 10
    17d8:	2a6c0000 	bcs	1b017e0 <__bss_end__+0x1af7310>
    17dc:	01340000 	teqeq	r4, r0
    17e0:	00760250 	rsbseq	r0, r6, r0, asr r2
    17e4:	b7170000 	ldrlt	r0, [r7, -r0]
    17e8:	01000000 	mrseq	r0, (UNDEF: 0)
    17ec:	80e0061e 	rschi	r0, r0, lr, lsl r6
    17f0:	02200000 	eoreq	r0, r0, #0, 0
    17f4:	9c010000 	stcls	0, cr0, [r1], {-0}
    17f8:	000021b7 			; <UNDEFINED> instruction: 0x000021b7
    17fc:	01006819 	tsteq	r0, r9, lsl r8
    1800:	00e1191e 	rsceq	r1, r1, lr, lsl r9
    1804:	0c430000 	mareq	acc0, r0, r3
    1808:	0c3f0000 	ldceq	0, cr0, [pc], #-0	; 1810 <__code_start__-0x67f0>
    180c:	b0360000 	eorslt	r0, r6, r0
    1810:	b2000000 	andlt	r0, r0, #0, 0
    1814:	31000020 	tstcc	r0, r0, lsr #32
    1818:	21010069 	tstcs	r1, r9, rrx
    181c:	0000250d 	andeq	r2, r0, sp, lsl #10
    1820:	000c6600 	andeq	r6, ip, r0, lsl #12
    1824:	000c6400 	andeq	r6, ip, r0, lsl #8
    1828:	21b71a00 			; <UNDEFINED> instruction: 0x21b71a00
    182c:	81380000 	teqhi	r8, r0
    1830:	00000000 	andeq	r0, r0, r0
    1834:	00000130 	andeq	r0, r0, r0, lsr r1
    1838:	1b092201 	blne	24a044 <__bss_end__+0x23fb74>
    183c:	000021e4 	andeq	r2, r0, r4, ror #3
    1840:	00000c7e 	andeq	r0, r0, lr, ror ip
    1844:	00000c7a 	andeq	r0, r0, sl, ror ip
    1848:	0021da1b 	eoreq	sp, r1, fp, lsl sl
    184c:	000ca200 	andeq	sl, ip, r0, lsl #4
    1850:	000c9c00 	andeq	r9, ip, r0, lsl #24
    1854:	21d01b00 	bicscs	r1, r0, r0, lsl #22
    1858:	0cd00000 	ldcleq	0, cr0, [r0], {0}
    185c:	0ccc0000 	stcleq	0, cr0, [ip], {0}
    1860:	c41e0000 	ldrgt	r0, [lr], #-0
    1864:	1f000021 	svcne	0x00000021
    1868:	000021ef 	andeq	r2, r0, pc, ror #3
    186c:	00008138 	andeq	r8, r0, r8, lsr r1
    1870:	01c80002 	biceq	r0, r8, r2
    1874:	e5020000 	str	r0, [r2, #-0]
    1878:	00196e05 	andseq	r6, r9, r5, lsl #28
    187c:	22081b00 	andcs	r1, r8, #0, 22
    1880:	0cf40000 	ldcleq	0, cr0, [r4]
    1884:	0cee0000 	stcleq	0, cr0, [lr]
    1888:	fc1e0000 	ldc2	0, cr0, [lr], {-0}
    188c:	20000021 	andcs	r0, r0, r1, lsr #32
    1890:	00002212 	andeq	r2, r0, r2, lsl r2
    1894:	00000218 	andeq	r0, r0, r8, lsl r2
    1898:	0022131d 	eoreq	r1, r2, sp, lsl r3
    189c:	000d2400 	andeq	r2, sp, r0, lsl #8
    18a0:	000d1e00 	andeq	r1, sp, r0, lsl #28
    18a4:	221f1a00 	andscs	r1, pc, #0, 20
    18a8:	813c0000 	teqhi	ip, r0
    18ac:	00010000 	andeq	r0, r1, r0
    18b0:	00000260 	andeq	r0, r0, r0, ror #4
    18b4:	1b09db02 	blne	2784c4 <__bss_end__+0x26dff4>
    18b8:	00002238 	andeq	r2, r0, r8, lsr r2
    18bc:	00000d52 	andeq	r0, r0, r2, asr sp
    18c0:	00000d4e 	andeq	r0, r0, lr, asr #26
    18c4:	00222c1e 	eoreq	r2, r2, lr, lsl ip
    18c8:	22ab1f00 	adccs	r1, fp, #0, 30
    18cc:	82b80000 	adcshi	r0, r8, #0, 0
    18d0:	00020000 	andeq	r0, r2, r0
    18d4:	000002a8 	andeq	r0, r0, r8, lsr #5
    18d8:	f309cf02 	vpmax.f32	d12, d9, d2
    18dc:	1e000016 	mcrne	0, 0, r0, cr0, cr6, {0}
    18e0:	000022b8 			; <UNDEFINED> instruction: 0x000022b8
    18e4:	00231f1a 	eoreq	r1, r3, sl, lsl pc
    18e8:	0082b800 	addeq	fp, r2, r0, lsl #16
    18ec:	c8000400 	stmdagt	r0, {sl}
    18f0:	02000002 	andeq	r0, r0, #2, 0
    18f4:	381b05b1 	ldmdacc	fp, {r0, r4, r5, r7, r8, sl}
    18f8:	80000023 	andhi	r0, r0, r3, lsr #32
    18fc:	7e00000d 	cdpvc	0, 0, cr0, cr0, cr13, {0}
    1900:	1e00000d 	cdpne	0, 0, cr0, cr0, cr13, {0}
    1904:	0000232c 	andeq	r2, r0, ip, lsr #6
    1908:	0002c821 	andeq	ip, r2, r1, lsr #16
    190c:	23441d00 	movtcs	r1, #19712	; 0x4d00
    1910:	0d970000 	ldceq	0, cr0, [r7]
    1914:	0d950000 	ldceq	0, cr0, [r5]
    1918:	b71f0000 	ldrlt	r0, [pc, -r0]
    191c:	bc000023 	stclt	0, cr0, [r0], {35}	; 0x23
    1920:	03000082 	movweq	r0, #130	; 0x82
    1924:	0002e000 	andeq	lr, r2, r0
    1928:	059e0200 	ldreq	r0, [lr, #512]	; 0x200
    192c:	0000168e 	andeq	r1, r0, lr, lsl #13
    1930:	0023c41e 	eoreq	ip, r3, lr, lsl r4
    1934:	50220000 	eorpl	r0, r2, r0
    1938:	b8000023 	stmdalt	r0, {r0, r1, r5}
    193c:	04000082 	streq	r0, [r0], #-130	; 0xffffff7e
    1940:	ad000000 	stcge	0, cr0, [r0, #-0]
    1944:	1d000016 	stcne	0, cr0, [r0, #-88]	; 0xffffffa8
    1948:	00002351 	andeq	r2, r0, r1, asr r3
    194c:	00000dac 	andeq	r0, r0, ip, lsr #27
    1950:	00000daa 	andeq	r0, r0, sl, lsr #27
    1954:	235f2300 	cmpcs	pc, #0, 6
    1958:	82c00000 	sbchi	r0, r0, #0, 0
    195c:	00100000 	andseq	r0, r0, r0
    1960:	9f020000 	svcls	0x00020000
    1964:	23781e05 	cmncs	r8, #80	; 0x50
    1968:	6c1e0000 	ldcvs	0, cr0, [lr], {-0}
    196c:	1d000023 	stcne	0, cr0, [r0, #-140]	; 0xffffff74
    1970:	00002384 	andeq	r2, r0, r4, lsl #7
    1974:	00000dc1 	andeq	r0, r0, r1, asr #27
    1978:	00000dbf 			; <UNDEFINED> instruction: 0x00000dbf
    197c:	00238e24 	eoreq	r8, r3, r4, lsr #28
    1980:	0082c000 	addeq	ip, r2, r0
    1984:	00000400 	andeq	r0, r0, r0, lsl #8
    1988:	238f1d00 	orrcs	r1, pc, #0, 26
    198c:	0dd60000 	ldcleq	0, cr0, [r6]
    1990:	0dd40000 	ldcleq	0, cr0, [r4]
    1994:	00000000 	andeq	r0, r0, r0
    1998:	1f000000 	svcne	0x00000000
    199c:	000022c5 	andeq	r2, r0, r5, asr #5
    19a0:	00008148 	andeq	r8, r0, r8, asr #2
    19a4:	02f80001 	rscseq	r0, r8, #1, 0
    19a8:	cc020000 	stcgt	0, cr0, [r2], {-0}
    19ac:	0017c709 	andseq	ip, r7, r9, lsl #14
    19b0:	22d21e00 	sbcscs	r1, r2, #0, 28
    19b4:	1f250000 	svcne	0x00250000
    19b8:	48000023 	stmdami	r0, {r0, r1, r5}
    19bc:	03000081 	movweq	r0, #129	; 0x81
    19c0:	00814800 	addeq	r4, r1, r0, lsl #16
    19c4:	00001800 	andeq	r1, r0, r0, lsl #16
    19c8:	05ac0200 	streq	r0, [ip, #512]!	; 0x200
    19cc:	0023381b 	eoreq	r3, r3, fp, lsl r8
    19d0:	000deb00 	andeq	lr, sp, r0, lsl #22
    19d4:	000de900 	andeq	lr, sp, r0, lsl #18
    19d8:	232c1e00 			; <UNDEFINED> instruction: 0x232c1e00
    19dc:	441d0000 	ldrmi	r0, [sp], #-0
    19e0:	03000023 	movweq	r0, #35	; 0x23
    19e4:	0100000e 	tsteq	r0, lr
    19e8:	2200000e 	andcs	r0, r0, #14, 0
    19ec:	00002350 	andeq	r2, r0, r0, asr r3
    19f0:	00008148 	andeq	r8, r0, r8, asr #2
    19f4:	00000004 	andeq	r0, r0, r4
    19f8:	00001762 	andeq	r1, r0, r2, ror #14
    19fc:	0023511d 	eoreq	r5, r3, sp, lsl r1
    1a00:	000e1800 	andeq	r1, lr, r0, lsl #16
    1a04:	000e1600 	andeq	r1, lr, r0, lsl #12
    1a08:	b7260000 	strlt	r0, [r6, -r0]!
    1a0c:	4c000023 	stcmi	0, cr0, [r0], {35}	; 0x23
    1a10:	03000081 	movweq	r0, #129	; 0x81
    1a14:	00814c00 	addeq	r4, r1, r0, lsl #24
    1a18:	00000400 	andeq	r0, r0, r0, lsl #8
    1a1c:	059e0200 	ldreq	r0, [lr, #512]	; 0x200
    1a20:	00001782 	andeq	r1, r0, r2, lsl #15
    1a24:	0023c41e 	eoreq	ip, r3, lr, lsl r4
    1a28:	5f230000 	svcpl	0x00230000
    1a2c:	50000023 	andpl	r0, r0, r3, lsr #32
    1a30:	10000081 	andne	r0, r0, r1, lsl #1
    1a34:	02000000 	andeq	r0, r0, #0, 0
    1a38:	781e059f 	ldmdavc	lr, {r0, r1, r2, r3, r4, r7, r8, sl}
    1a3c:	1e000023 	cdpne	0, 0, cr0, cr0, cr3, {1}
    1a40:	0000236c 	andeq	r2, r0, ip, ror #6
    1a44:	0023841d 	eoreq	r8, r3, sp, lsl r4
    1a48:	000e2d00 	andeq	r2, lr, r0, lsl #26
    1a4c:	000e2b00 	andeq	r2, lr, r0, lsl #22
    1a50:	238e2400 	orrcs	r2, lr, #0, 8
    1a54:	81500000 	cmphi	r0, r0
    1a58:	00040000 	andeq	r0, r4, r0
    1a5c:	8f1d0000 	svchi	0x001d0000
    1a60:	42000023 	andmi	r0, r0, #35, 0	; 0x23
    1a64:	4000000e 	andmi	r0, r0, lr
    1a68:	0000000e 	andeq	r0, r0, lr
    1a6c:	1f000000 	svcne	0x00000000
    1a70:	00002291 	muleq	r0, r1, r2
    1a74:	00008160 	andeq	r8, r0, r0, ror #2
    1a78:	03100002 	tsteq	r0, #2, 0
    1a7c:	cd020000 	stcgt	0, cr0, [r2, #-0]
    1a80:	00189b09 	andseq	r9, r8, r9, lsl #22
    1a84:	229e1e00 	addscs	r1, lr, #0, 28
    1a88:	df250000 	svcle	0x00250000
    1a8c:	60000022 	andvs	r0, r0, r2, lsr #32
    1a90:	04000081 	streq	r0, [r0], #-129	; 0xffffff7f
    1a94:	00816000 	addeq	r6, r1, r0
    1a98:	00001800 	andeq	r1, r0, r0, lsl #16
    1a9c:	05b50200 	ldreq	r0, [r5, #512]!	; 0x200
    1aa0:	0022f81b 	eoreq	pc, r2, fp, lsl r8	; <UNPREDICTABLE>
    1aa4:	000e5700 	andeq	r5, lr, r0, lsl #14
    1aa8:	000e5500 	andeq	r5, lr, r0, lsl #10
    1aac:	22ec1e00 	rsccs	r1, ip, #0, 28
    1ab0:	041d0000 	ldreq	r0, [sp], #-0
    1ab4:	6e000023 	cdpvs	0, 0, cr0, cr0, cr3, {1}
    1ab8:	6c00000e 	stcvs	0, cr0, [r0], {14}
    1abc:	2200000e 	andcs	r0, r0, #14, 0
    1ac0:	00002310 	andeq	r2, r0, r0, lsl r3
    1ac4:	00008160 	andeq	r8, r0, r0, ror #2
    1ac8:	00000004 	andeq	r0, r0, r4
    1acc:	00001836 	andeq	r1, r0, r6, lsr r8
    1ad0:	0023111d 	eoreq	r1, r3, sp, lsl r1
    1ad4:	000e8300 	andeq	r8, lr, r0, lsl #6
    1ad8:	000e8100 	andeq	r8, lr, r0, lsl #2
    1adc:	9d260000 	stcls	0, cr0, [r6, #-0]
    1ae0:	64000023 	strvs	r0, [r0], #-35	; 0xffffffdd
    1ae4:	03000081 	movweq	r0, #129	; 0x81
    1ae8:	00816400 	addeq	r6, r1, r0, lsl #8
    1aec:	00000400 	andeq	r0, r0, r0, lsl #8
    1af0:	05a60200 	streq	r0, [r6, #512]!	; 0x200
    1af4:	00001856 	andeq	r1, r0, r6, asr r8
    1af8:	0023aa1e 	eoreq	sl, r3, lr, lsl sl
    1afc:	5f230000 	svcpl	0x00230000
    1b00:	68000023 	stmdavs	r0, {r0, r1, r5}
    1b04:	10000081 	andne	r0, r0, r1, lsl #1
    1b08:	02000000 	andeq	r0, r0, #0, 0
    1b0c:	781e05a7 	ldmdavc	lr, {r0, r1, r2, r5, r7, r8, sl}
    1b10:	1e000023 	cdpne	0, 0, cr0, cr0, cr3, {1}
    1b14:	0000236c 	andeq	r2, r0, ip, ror #6
    1b18:	0023841d 	eoreq	r8, r3, sp, lsl r4
    1b1c:	000e9800 	andeq	r9, lr, r0, lsl #16
    1b20:	000e9600 	andeq	r9, lr, r0, lsl #12
    1b24:	238e2400 	orrcs	r2, lr, #0, 8
    1b28:	81680000 	cmnhi	r8, r0
    1b2c:	00040000 	andeq	r0, r4, r0
    1b30:	8f1d0000 	svchi	0x001d0000
    1b34:	ad000023 	stcge	0, cr0, [r0, #-140]	; 0xffffff74
    1b38:	ab00000e 	blge	1b78 <__code_start__-0x6488>
    1b3c:	0000000e 	andeq	r0, r0, lr
    1b40:	1a000000 	bne	1b48 <__code_start__-0x64b8>
    1b44:	00002277 	andeq	r2, r0, r7, ror r2
    1b48:	000082d0 	ldrdeq	r8, [r0], -r0
    1b4c:	03280002 			; <UNDEFINED> instruction: 0x03280002
    1b50:	d0020000 	andle	r0, r2, r0
    1b54:	22841e09 	addcs	r1, r4, #144	; 0x90
    1b58:	df250000 	svcle	0x00250000
    1b5c:	d0000022 	andle	r0, r0, r2, lsr #32
    1b60:	04000082 	streq	r0, [r0], #-130	; 0xffffff7e
    1b64:	0082d000 	addeq	sp, r2, r0
    1b68:	00001800 	andeq	r1, r0, r0, lsl #16
    1b6c:	05b90200 	ldreq	r0, [r9, #512]!	; 0x200
    1b70:	0022f81b 	eoreq	pc, r2, fp, lsl r8	; <UNPREDICTABLE>
    1b74:	000ec200 	andeq	ip, lr, r0, lsl #4
    1b78:	000ec000 	andeq	ip, lr, r0
    1b7c:	22ec1e00 	rsccs	r1, ip, #0, 28
    1b80:	041d0000 	ldreq	r0, [sp], #-0
    1b84:	da000023 	ble	1c18 <__code_start__-0x63e8>
    1b88:	d800000e 	stmdale	r0, {r1, r2, r3}
    1b8c:	2200000e 	andcs	r0, r0, #14, 0
    1b90:	00002310 	andeq	r2, r0, r0, lsl r3
    1b94:	000082d0 	ldrdeq	r8, [r0], -r0
    1b98:	00000004 	andeq	r0, r0, r4
    1b9c:	00001906 	andeq	r1, r0, r6, lsl #18
    1ba0:	0023111d 	eoreq	r1, r3, sp, lsl r1
    1ba4:	000eef00 	andeq	lr, lr, r0, lsl #30
    1ba8:	000eed00 	andeq	lr, lr, r0, lsl #26
    1bac:	9d260000 	stcls	0, cr0, [r6, #-0]
    1bb0:	d4000023 	strle	r0, [r0], #-35	; 0xffffffdd
    1bb4:	03000082 	movweq	r0, #130	; 0x82
    1bb8:	0082d400 	addeq	sp, r2, r0, lsl #8
    1bbc:	00000400 	andeq	r0, r0, r0, lsl #8
    1bc0:	05a60200 	streq	r0, [r6, #512]!	; 0x200
    1bc4:	00001926 	andeq	r1, r0, r6, lsr #18
    1bc8:	0023aa1e 	eoreq	sl, r3, lr, lsl sl
    1bcc:	5f230000 	svcpl	0x00230000
    1bd0:	d8000023 	stmdale	r0, {r0, r1, r5}
    1bd4:	10000082 	andne	r0, r0, r2, lsl #1
    1bd8:	02000000 	andeq	r0, r0, #0, 0
    1bdc:	781e05a7 	ldmdavc	lr, {r0, r1, r2, r5, r7, r8, sl}
    1be0:	1e000023 	cdpne	0, 0, cr0, cr0, cr3, {1}
    1be4:	0000236c 	andeq	r2, r0, ip, ror #6
    1be8:	0023841d 	eoreq	r8, r3, sp, lsl r4
    1bec:	000f0400 	andeq	r0, pc, r0, lsl #8
    1bf0:	000f0200 	andeq	r0, pc, r0, lsl #4
    1bf4:	238e2400 	orrcs	r2, lr, #0, 8
    1bf8:	82d80000 	sbcshi	r0, r8, #0, 0
    1bfc:	00040000 	andeq	r0, r4, r0
    1c00:	8f1d0000 	svchi	0x001d0000
    1c04:	19000023 	stmdbne	r0, {r0, r1, r5}
    1c08:	1700000f 	strne	r0, [r0, -pc]
    1c0c:	0000000f 	andeq	r0, r0, pc
    1c10:	00000000 	andeq	r0, r0, r0
    1c14:	ef270000 	svc	0x00270000
    1c18:	40000021 	andmi	r0, r0, r1, lsr #32
    1c1c:	02000003 	andeq	r0, r0, #3, 0
    1c20:	1d1105e6 	cfldr32ne	mvfx0, [r1, #-920]	; 0xfffffc68
    1c24:	081e0000 	ldmdaeq	lr, {}	; <UNPREDICTABLE>
    1c28:	1e000022 	cdpne	0, 0, cr0, cr0, cr2, {1}
    1c2c:	000021fc 	strdeq	r2, [r0], -ip
    1c30:	00221220 	eoreq	r1, r2, r0, lsr #4
    1c34:	00034000 	andeq	r4, r3, r0
    1c38:	22131d00 	andscs	r1, r3, #0, 26
    1c3c:	0f300000 	svceq	0x00300000
    1c40:	0f2c0000 	svceq	0x002c0000
    1c44:	1f1a0000 	svcne	0x001a0000
    1c48:	88000022 	stmdahi	r0, {r1, r5}
    1c4c:	01000081 	smlabbeq	r0, r1, r0, r0
    1c50:	00037800 	andeq	r7, r3, r0, lsl #16
    1c54:	09db0200 	ldmibeq	fp, {r9}^
    1c58:	0022381b 	eoreq	r3, r2, fp, lsl r8
    1c5c:	000f5200 	andeq	r5, pc, r0, lsl #4
    1c60:	000f4e00 	andeq	r4, pc, r0, lsl #28
    1c64:	222c1e00 	eorcs	r1, ip, #0, 28
    1c68:	c51f0000 	ldrgt	r0, [pc, #-0]	; 1c70 <__code_start__-0x6390>
    1c6c:	94000022 	strls	r0, [r0], #-34	; 0xffffffde
    1c70:	01000081 	smlabbeq	r0, r1, r0, r0
    1c74:	0003b800 	andeq	fp, r3, r0, lsl #16
    1c78:	09cc0200 	stmibeq	ip, {r9}^
    1c7c:	00001a96 	muleq	r0, r6, sl
    1c80:	0022d21e 	eoreq	sp, r2, lr, lsl r2
    1c84:	231f2500 	tstcs	pc, #0, 10
    1c88:	81940000 	orrshi	r0, r4, r0
    1c8c:	00030000 	andeq	r0, r3, r0
    1c90:	00008194 	muleq	r0, r4, r1
    1c94:	00000018 	andeq	r0, r0, r8, lsl r0
    1c98:	1b05ac02 	blne	16cca8 <__bss_end__+0x1627d8>
    1c9c:	00002338 	andeq	r2, r0, r8, lsr r3
    1ca0:	00000f80 	andeq	r0, r0, r0, lsl #31
    1ca4:	00000f7e 	andeq	r0, r0, lr, ror pc
    1ca8:	00232c1e 	eoreq	r2, r3, lr, lsl ip
    1cac:	23441d00 	movtcs	r1, #19712	; 0x4d00
    1cb0:	0f980000 	svceq	0x00980000
    1cb4:	0f960000 	svceq	0x00960000
    1cb8:	50220000 	eorpl	r0, r2, r0
    1cbc:	94000023 	strls	r0, [r0], #-35	; 0xffffffdd
    1cc0:	04000081 	streq	r0, [r0], #-129	; 0xffffff7f
    1cc4:	31000000 	mrscc	r0, (UNDEF: 0)
    1cc8:	1d00001a 	stcne	0, cr0, [r0, #-104]	; 0xffffff98
    1ccc:	00002351 	andeq	r2, r0, r1, asr r3
    1cd0:	00000fad 	andeq	r0, r0, sp, lsr #31
    1cd4:	00000fab 	andeq	r0, r0, fp, lsr #31
    1cd8:	23b72600 			; <UNDEFINED> instruction: 0x23b72600
    1cdc:	81980000 	orrshi	r0, r8, r0
    1ce0:	00030000 	andeq	r0, r3, r0
    1ce4:	00008198 	muleq	r0, r8, r1
    1ce8:	00000004 	andeq	r0, r0, r4
    1cec:	51059e02 	tstpl	r5, r2, lsl #28
    1cf0:	1e00001a 	mcrne	0, 0, r0, cr0, cr10, {0}
    1cf4:	000023c4 	andeq	r2, r0, r4, asr #7
    1cf8:	235f2300 	cmpcs	pc, #0, 6
    1cfc:	819c0000 	orrshi	r0, ip, r0
    1d00:	00100000 	andseq	r0, r0, r0
    1d04:	9f020000 	svcls	0x00020000
    1d08:	23781e05 	cmncs	r8, #80	; 0x50
    1d0c:	6c1e0000 	ldcvs	0, cr0, [lr], {-0}
    1d10:	1d000023 	stcne	0, cr0, [r0, #-140]	; 0xffffff74
    1d14:	00002384 	andeq	r2, r0, r4, lsl #7
    1d18:	00000fc2 	andeq	r0, r0, r2, asr #31
    1d1c:	00000fc0 	andeq	r0, r0, r0, asr #31
    1d20:	00238e24 	eoreq	r8, r3, r4, lsr #28
    1d24:	00819c00 	addeq	r9, r1, r0, lsl #24
    1d28:	00000400 	andeq	r0, r0, r0, lsl #8
    1d2c:	238f1d00 	orrcs	r1, pc, #0, 26
    1d30:	0fd70000 	svceq	0x00d70000
    1d34:	0fd50000 	svceq	0x00d50000
    1d38:	00000000 	andeq	r0, r0, r0
    1d3c:	911f0000 	tstls	pc, r0
    1d40:	ac000022 	stcge	0, cr0, [r0], {34}	; 0x22
    1d44:	02000081 	andeq	r0, r0, #129, 0	; 0x81
    1d48:	0003d000 	andeq	sp, r3, r0
    1d4c:	09cd0200 	stmibeq	sp, {r9}^
    1d50:	00001b6a 	andeq	r1, r0, sl, ror #22
    1d54:	00229e1e 	eoreq	r9, r2, lr, lsl lr
    1d58:	22df2500 	sbcscs	r2, pc, #0, 10
    1d5c:	81ac0000 			; <UNDEFINED> instruction: 0x81ac0000
    1d60:	00040000 	andeq	r0, r4, r0
    1d64:	000081ac 	andeq	r8, r0, ip, lsr #3
    1d68:	00000018 	andeq	r0, r0, r8, lsl r0
    1d6c:	1b05b502 	blne	16f17c <__bss_end__+0x164cac>
    1d70:	000022f8 	strdeq	r2, [r0], -r8
    1d74:	00000fec 	andeq	r0, r0, ip, ror #31
    1d78:	00000fea 	andeq	r0, r0, sl, ror #31
    1d7c:	0022ec1e 	eoreq	lr, r2, lr, lsl ip
    1d80:	23041d00 	movwcs	r1, #19712	; 0x4d00
    1d84:	10030000 	andne	r0, r3, r0
    1d88:	10010000 	andne	r0, r1, r0
    1d8c:	10220000 	eorne	r0, r2, r0
    1d90:	ac000023 	stcge	0, cr0, [r0], {35}	; 0x23
    1d94:	04000081 	streq	r0, [r0], #-129	; 0xffffff7f
    1d98:	05000000 	streq	r0, [r0, #-0]
    1d9c:	1d00001b 	stcne	0, cr0, [r0, #-108]	; 0xffffff94
    1da0:	00002311 	andeq	r2, r0, r1, lsl r3
    1da4:	00001018 	andeq	r1, r0, r8, lsl r0
    1da8:	00001016 	andeq	r1, r0, r6, lsl r0
    1dac:	239d2600 	orrscs	r2, sp, #0, 12
    1db0:	81b00000 	movshi	r0, r0
    1db4:	00030000 	andeq	r0, r3, r0
    1db8:	000081b0 			; <UNDEFINED> instruction: 0x000081b0
    1dbc:	00000004 	andeq	r0, r0, r4
    1dc0:	2505a602 	strcs	sl, [r5, #-1538]	; 0xfffff9fe
    1dc4:	1e00001b 	mcrne	0, 0, r0, cr0, cr11, {0}
    1dc8:	000023aa 	andeq	r2, r0, sl, lsr #7
    1dcc:	235f2300 	cmpcs	pc, #0, 6
    1dd0:	81b40000 			; <UNDEFINED> instruction: 0x81b40000
    1dd4:	00100000 	andseq	r0, r0, r0
    1dd8:	a7020000 	strge	r0, [r2, -r0]
    1ddc:	23781e05 	cmncs	r8, #80	; 0x50
    1de0:	6c1e0000 	ldcvs	0, cr0, [lr], {-0}
    1de4:	1d000023 	stcne	0, cr0, [r0, #-140]	; 0xffffff74
    1de8:	00002384 	andeq	r2, r0, r4, lsl #7
    1dec:	0000102d 	andeq	r1, r0, sp, lsr #32
    1df0:	0000102b 	andeq	r1, r0, fp, lsr #32
    1df4:	00238e24 	eoreq	r8, r3, r4, lsr #28
    1df8:	0081b400 	addeq	fp, r1, r0, lsl #8
    1dfc:	00000400 	andeq	r0, r0, r0, lsl #8
    1e00:	238f1d00 	orrcs	r1, pc, #0, 26
    1e04:	10420000 	subne	r0, r2, r0
    1e08:	10400000 	subne	r0, r0, r0
    1e0c:	00000000 	andeq	r0, r0, r0
    1e10:	ab1f0000 	blge	7c1e18 <__bss_end__+0x7b7948>
    1e14:	78000022 	stmdavc	r0, {r1, r5}
    1e18:	02000082 	andeq	r0, r0, #130, 0	; 0x82
    1e1c:	0003e800 	andeq	lr, r3, r0, lsl #16
    1e20:	09cf0200 	stmibeq	pc, {r9}^	; <UNPREDICTABLE>
    1e24:	00001c3e 	andeq	r1, r0, lr, lsr ip
    1e28:	0022b81e 	eoreq	fp, r2, lr, lsl r8
    1e2c:	231f2500 	tstcs	pc, #0, 10
    1e30:	82780000 	rsbshi	r0, r8, #0, 0
    1e34:	00040000 	andeq	r0, r4, r0
    1e38:	00008278 	andeq	r8, r0, r8, ror r2
    1e3c:	00000018 	andeq	r0, r0, r8, lsl r0
    1e40:	1b05b102 	blne	16e250 <__bss_end__+0x163d80>
    1e44:	00002338 	andeq	r2, r0, r8, lsr r3
    1e48:	00001057 	andeq	r1, r0, r7, asr r0
    1e4c:	00001055 	andeq	r1, r0, r5, asr r0
    1e50:	00232c1e 	eoreq	r2, r3, lr, lsl ip
    1e54:	23441d00 	movtcs	r1, #19712	; 0x4d00
    1e58:	106e0000 	rsbne	r0, lr, r0
    1e5c:	106c0000 	rsbne	r0, ip, r0
    1e60:	50220000 	eorpl	r0, r2, r0
    1e64:	78000023 	stmdavc	r0, {r0, r1, r5}
    1e68:	04000082 	streq	r0, [r0], #-130	; 0xffffff7e
    1e6c:	d9000000 	stmdble	r0, {}	; <UNPREDICTABLE>
    1e70:	1d00001b 	stcne	0, cr0, [r0, #-108]	; 0xffffff94
    1e74:	00002351 	andeq	r2, r0, r1, asr r3
    1e78:	00001083 	andeq	r1, r0, r3, lsl #1
    1e7c:	00001081 	andeq	r1, r0, r1, lsl #1
    1e80:	23b72600 			; <UNDEFINED> instruction: 0x23b72600
    1e84:	827c0000 	rsbshi	r0, ip, #0, 0
    1e88:	00030000 	andeq	r0, r3, r0
    1e8c:	0000827c 	andeq	r8, r0, ip, ror r2
    1e90:	00000004 	andeq	r0, r0, r4
    1e94:	f9059e02 			; <UNDEFINED> instruction: 0xf9059e02
    1e98:	1e00001b 	mcrne	0, 0, r0, cr0, cr11, {0}
    1e9c:	000023c4 	andeq	r2, r0, r4, asr #7
    1ea0:	235f2300 	cmpcs	pc, #0, 6
    1ea4:	82800000 	addhi	r0, r0, #0, 0
    1ea8:	00100000 	andseq	r0, r0, r0
    1eac:	9f020000 	svcls	0x00020000
    1eb0:	23781e05 	cmncs	r8, #80	; 0x50
    1eb4:	6c1e0000 	ldcvs	0, cr0, [lr], {-0}
    1eb8:	1d000023 	stcne	0, cr0, [r0, #-140]	; 0xffffff74
    1ebc:	00002384 	andeq	r2, r0, r4, lsl #7
    1ec0:	00001098 	muleq	r0, r8, r0
    1ec4:	00001096 	muleq	r0, r6, r0
    1ec8:	00238e24 	eoreq	r8, r3, r4, lsr #28
    1ecc:	00828000 	addeq	r8, r2, r0
    1ed0:	00000400 	andeq	r0, r0, r0, lsl #8
    1ed4:	238f1d00 	orrcs	r1, pc, #0, 26
    1ed8:	10ad0000 	adcne	r0, sp, r0
    1edc:	10ab0000 	adcne	r0, fp, r0
    1ee0:	00000000 	andeq	r0, r0, r0
    1ee4:	771a0000 	ldrvc	r0, [sl, -r0]
    1ee8:	90000022 	andls	r0, r0, r2, lsr #32
    1eec:	02000082 	andeq	r0, r0, #130, 0	; 0x82
    1ef0:	00040000 	andeq	r0, r4, r0
    1ef4:	09d00200 	ldmibeq	r0, {r9}^
    1ef8:	0022841e 	eoreq	r8, r2, lr, lsl r4
    1efc:	22df2500 	sbcscs	r2, pc, #0, 10
    1f00:	82900000 	addshi	r0, r0, #0, 0
    1f04:	00040000 	andeq	r0, r4, r0
    1f08:	00008290 	muleq	r0, r0, r2
    1f0c:	00000018 	andeq	r0, r0, r8, lsl r0
    1f10:	1b05b902 	blne	170320 <__bss_end__+0x165e50>
    1f14:	000022f8 	strdeq	r2, [r0], -r8
    1f18:	000010c2 	andeq	r1, r0, r2, asr #1
    1f1c:	000010c0 	andeq	r1, r0, r0, asr #1
    1f20:	0022ec1e 	eoreq	lr, r2, lr, lsl ip
    1f24:	23041d00 	movwcs	r1, #19712	; 0x4d00
    1f28:	10da0000 	sbcsne	r0, sl, r0
    1f2c:	10d80000 	sbcsne	r0, r8, r0
    1f30:	10220000 	eorne	r0, r2, r0
    1f34:	90000023 	andls	r0, r0, r3, lsr #32
    1f38:	04000082 	streq	r0, [r0], #-130	; 0xffffff7e
    1f3c:	a9000000 	stmdbge	r0, {}	; <UNPREDICTABLE>
    1f40:	1d00001c 	stcne	0, cr0, [r0, #-112]	; 0xffffff90
    1f44:	00002311 	andeq	r2, r0, r1, lsl r3
    1f48:	000010ef 	andeq	r1, r0, pc, ror #1
    1f4c:	000010ed 	andeq	r1, r0, sp, ror #1
    1f50:	239d2600 	orrscs	r2, sp, #0, 12
    1f54:	82940000 	addshi	r0, r4, #0, 0
    1f58:	00030000 	andeq	r0, r3, r0
    1f5c:	00008294 	muleq	r0, r4, r2
    1f60:	00000004 	andeq	r0, r0, r4
    1f64:	c905a602 	stmdbgt	r5, {r1, r9, sl, sp, pc}
    1f68:	1e00001c 	mcrne	0, 0, r0, cr0, cr12, {0}
    1f6c:	000023aa 	andeq	r2, r0, sl, lsr #7
    1f70:	235f2300 	cmpcs	pc, #0, 6
    1f74:	82980000 	addshi	r0, r8, #0, 0
    1f78:	00100000 	andseq	r0, r0, r0
    1f7c:	a7020000 	strge	r0, [r2, -r0]
    1f80:	23781e05 	cmncs	r8, #80	; 0x50
    1f84:	6c1e0000 	ldcvs	0, cr0, [lr], {-0}
    1f88:	1d000023 	stcne	0, cr0, [r0, #-140]	; 0xffffff74
    1f8c:	00002384 	andeq	r2, r0, r4, lsl #7
    1f90:	00001104 	andeq	r1, r0, r4, lsl #2
    1f94:	00001102 	andeq	r1, r0, r2, lsl #2
    1f98:	00238e24 	eoreq	r8, r3, r4, lsr #28
    1f9c:	00829800 	addeq	r9, r2, r0, lsl #16
    1fa0:	00000400 	andeq	r0, r0, r0, lsl #8
    1fa4:	238f1d00 	orrcs	r1, pc, #0, 26
    1fa8:	11190000 	tstne	r9, r0
    1fac:	11170000 	tstne	r7, r0
	...
    1fb8:	21ef2900 	mvncs	r2, r0, lsl #18
    1fbc:	04180000 	ldreq	r0, [r8], #-0
    1fc0:	e7020000 	str	r0, [r2, -r0]
    1fc4:	22081e05 	andcs	r1, r8, #80	; 0x50
    1fc8:	fc1e0000 	ldc2	0, cr0, [lr], {-0}
    1fcc:	20000021 	andcs	r0, r0, r1, lsr #32
    1fd0:	00002212 	andeq	r2, r0, r2, lsl r2
    1fd4:	00000418 	andeq	r0, r0, r8, lsl r4
    1fd8:	0022131d 	eoreq	r1, r2, sp, lsl r3
    1fdc:	00113000 	andseq	r3, r1, r0
    1fe0:	00112c00 	andseq	r2, r1, r0, lsl #24
    1fe4:	221f1a00 	andscs	r1, pc, #0, 20
    1fe8:	81d40000 	bicshi	r0, r4, r0
    1fec:	00010000 	andeq	r0, r1, r0
    1ff0:	00000450 	andeq	r0, r0, r0, asr r4
    1ff4:	1b09db02 	blne	278c04 <__bss_end__+0x26e734>
    1ff8:	00002238 	andeq	r2, r0, r8, lsr r2
    1ffc:	00001152 	andeq	r1, r0, r2, asr r1
    2000:	0000114e 	andeq	r1, r0, lr, asr #2
    2004:	00222c1e 	eoreq	r2, r2, lr, lsl ip
    2008:	22c51f00 	sbccs	r1, r5, #0, 30
    200c:	81e00000 	mvnhi	r0, r0
    2010:	00010000 	andeq	r0, r1, r0
    2014:	00000490 	muleq	r0, r0, r4
    2018:	3509cc02 	strcc	ip, [r9, #-3074]	; 0xfffff3fe
    201c:	1e00001e 	mcrne	0, 0, r0, cr0, cr14, {0}
    2020:	000022d2 	ldrdeq	r2, [r0], -r2	; <UNPREDICTABLE>
    2024:	00231f25 	eoreq	r1, r3, r5, lsr #30
    2028:	0081e000 	addeq	lr, r1, r0
    202c:	e0000300 	and	r0, r0, r0, lsl #6
    2030:	18000081 	stmdane	r0, {r0, r7}
    2034:	02000000 	andeq	r0, r0, #0, 0
    2038:	381b05ac 	ldmdacc	fp, {r2, r3, r5, r7, r8, sl}
    203c:	80000023 	andhi	r0, r0, r3, lsr #32
    2040:	7e000011 	mcrvc	0, 0, r0, cr0, cr1, {0}
    2044:	1e000011 	mcrne	0, 0, r0, cr0, cr1, {0}
    2048:	0000232c 	andeq	r2, r0, ip, lsr #6
    204c:	0023441d 	eoreq	r4, r3, sp, lsl r4
    2050:	00119800 	andseq	r9, r1, r0, lsl #16
    2054:	00119600 	andseq	r9, r1, r0, lsl #12
    2058:	23502200 	cmpcs	r0, #0, 4
    205c:	81e00000 	mvnhi	r0, r0
    2060:	00040000 	andeq	r0, r4, r0
    2064:	1dd00000 	ldclne	0, cr0, [r0]
    2068:	511d0000 	tstpl	sp, r0
    206c:	ad000023 	stcge	0, cr0, [r0, #-140]	; 0xffffff74
    2070:	ab000011 	blge	20bc <__code_start__-0x5f44>
    2074:	00000011 	andeq	r0, r0, r1, lsl r0
    2078:	0023b726 	eoreq	fp, r3, r6, lsr #14
    207c:	0081e400 	addeq	lr, r1, r0, lsl #8
    2080:	e4000300 	str	r0, [r0], #-768	; 0xfffffd00
    2084:	04000081 	streq	r0, [r0], #-129	; 0xffffff7f
    2088:	02000000 	andeq	r0, r0, #0, 0
    208c:	1df0059e 	cfldr64ne	mvdx0, [r0, #632]!	; 0x278
    2090:	c41e0000 	ldrgt	r0, [lr], #-0
    2094:	00000023 	andeq	r0, r0, r3, lsr #32
    2098:	00235f23 	eoreq	r5, r3, r3, lsr #30
    209c:	0081e800 	addeq	lr, r1, r0, lsl #16
    20a0:	00001000 	andeq	r1, r0, r0
    20a4:	059f0200 	ldreq	r0, [pc, #512]	; 22ac <__code_start__-0x5d54>
    20a8:	0023781e 	eoreq	r7, r3, lr, lsl r8
    20ac:	236c1e00 	cmncs	ip, #0, 28
    20b0:	841d0000 	ldrhi	r0, [sp], #-0
    20b4:	c2000023 	andgt	r0, r0, #35, 0	; 0x23
    20b8:	c0000011 	andgt	r0, r0, r1, lsl r0
    20bc:	24000011 	strcs	r0, [r0], #-17	; 0xffffffef
    20c0:	0000238e 	andeq	r2, r0, lr, lsl #7
    20c4:	000081e8 	andeq	r8, r0, r8, ror #3
    20c8:	00000004 	andeq	r0, r0, r4
    20cc:	00238f1d 	eoreq	r8, r3, sp, lsl pc
    20d0:	0011d700 	andseq	sp, r1, r0, lsl #14
    20d4:	0011d500 	andseq	sp, r1, r0, lsl #10
    20d8:	00000000 	andeq	r0, r0, r0
    20dc:	22911f00 	addscs	r1, r1, #0, 30
    20e0:	81f80000 	mvnshi	r0, r0
    20e4:	00020000 	andeq	r0, r2, r0
    20e8:	000004a8 	andeq	r0, r0, r8, lsr #9
    20ec:	0909cd02 	stmdbeq	r9, {r1, r8, sl, fp, lr, pc}
    20f0:	1e00001f 	mcrne	0, 0, r0, cr0, cr15, {0}
    20f4:	0000229e 	muleq	r0, lr, r2
    20f8:	0022df25 	eoreq	sp, r2, r5, lsr #30
    20fc:	0081f800 	addeq	pc, r1, r0, lsl #16
    2100:	f8000400 			; <UNDEFINED> instruction: 0xf8000400
    2104:	18000081 	stmdane	r0, {r0, r7}
    2108:	02000000 	andeq	r0, r0, #0, 0
    210c:	f81b05b5 			; <UNDEFINED> instruction: 0xf81b05b5
    2110:	ec000022 	stc	0, cr0, [r0], {34}	; 0x22
    2114:	ea000011 	b	2160 <__code_start__-0x5ea0>
    2118:	1e000011 	mcrne	0, 0, r0, cr0, cr1, {0}
    211c:	000022ec 	andeq	r2, r0, ip, ror #5
    2120:	0023041d 	eoreq	r0, r3, sp, lsl r4
    2124:	00120300 	andseq	r0, r2, r0, lsl #6
    2128:	00120100 	andseq	r0, r2, r0, lsl #2
    212c:	23102200 	tstcs	r0, #0, 4
    2130:	81f80000 	mvnshi	r0, r0
    2134:	00040000 	andeq	r0, r4, r0
    2138:	1ea40000 	cdpne	0, 10, cr0, cr4, cr0, {0}
    213c:	111d0000 	tstne	sp, r0
    2140:	18000023 	stmdane	r0, {r0, r1, r5}
    2144:	16000012 			; <UNDEFINED> instruction: 0x16000012
    2148:	00000012 	andeq	r0, r0, r2, lsl r0
    214c:	00239d26 	eoreq	r9, r3, r6, lsr #26
    2150:	0081fc00 	addeq	pc, r1, r0, lsl #24
    2154:	fc000300 	stc2	3, cr0, [r0], {-0}
    2158:	04000081 	streq	r0, [r0], #-129	; 0xffffff7f
    215c:	02000000 	andeq	r0, r0, #0, 0
    2160:	1ec405a6 	cdpne	5, 12, cr0, cr4, cr6, {5}
    2164:	aa1e0000 	bge	78216c <__bss_end__+0x777c9c>
    2168:	00000023 	andeq	r0, r0, r3, lsr #32
    216c:	00235f23 	eoreq	r5, r3, r3, lsr #30
    2170:	00820000 	addeq	r0, r2, r0
    2174:	00001000 	andeq	r1, r0, r0
    2178:	05a70200 	streq	r0, [r7, #512]!	; 0x200
    217c:	0023781e 	eoreq	r7, r3, lr, lsl r8
    2180:	236c1e00 	cmncs	ip, #0, 28
    2184:	841d0000 	ldrhi	r0, [sp], #-0
    2188:	2d000023 	stccs	0, cr0, [r0, #-140]	; 0xffffff74
    218c:	2b000012 	blcs	21dc <__code_start__-0x5e24>
    2190:	24000012 	strcs	r0, [r0], #-18	; 0xffffffee
    2194:	0000238e 	andeq	r2, r0, lr, lsl #7
    2198:	00008200 	andeq	r8, r0, r0, lsl #4
    219c:	00000004 	andeq	r0, r0, r4
    21a0:	00238f1d 	eoreq	r8, r3, sp, lsl pc
    21a4:	00124200 	andseq	r4, r2, r0, lsl #4
    21a8:	00124000 	andseq	r4, r2, r0
    21ac:	00000000 	andeq	r0, r0, r0
    21b0:	22ab1f00 	adccs	r1, fp, #0, 30
    21b4:	82380000 	eorshi	r0, r8, #0, 0
    21b8:	00010000 	andeq	r0, r1, r0
    21bc:	000004c0 	andeq	r0, r0, r0, asr #9
    21c0:	dd09cf02 	stcle	15, cr12, [r9, #-8]
    21c4:	1e00001f 	mcrne	0, 0, r0, cr0, cr15, {0}
    21c8:	000022b8 			; <UNDEFINED> instruction: 0x000022b8
    21cc:	00231f25 	eoreq	r1, r3, r5, lsr #30
    21d0:	00823800 	addeq	r3, r2, r0, lsl #16
    21d4:	38000300 	stmdacc	r0, {r8, r9}
    21d8:	18000082 	stmdane	r0, {r1, r7}
    21dc:	02000000 	andeq	r0, r0, #0, 0
    21e0:	381b05b1 	ldmdacc	fp, {r0, r4, r5, r7, r8, sl}
    21e4:	57000023 	strpl	r0, [r0, -r3, lsr #32]
    21e8:	55000012 	strpl	r0, [r0, #-18]	; 0xffffffee
    21ec:	1e000012 	mcrne	0, 0, r0, cr0, cr2, {0}
    21f0:	0000232c 	andeq	r2, r0, ip, lsr #6
    21f4:	0023441d 	eoreq	r4, r3, sp, lsl r4
    21f8:	00126e00 	andseq	r6, r2, r0, lsl #28
    21fc:	00126c00 	andseq	r6, r2, r0, lsl #24
    2200:	23502200 	cmpcs	r0, #0, 4
    2204:	82380000 	eorshi	r0, r8, #0, 0
    2208:	00040000 	andeq	r0, r4, r0
    220c:	1f780000 	svcne	0x00780000
    2210:	511d0000 	tstpl	sp, r0
    2214:	83000023 	movwhi	r0, #35	; 0x23
    2218:	81000012 	tsthi	r0, r2, lsl r0
    221c:	00000012 	andeq	r0, r0, r2, lsl r0
    2220:	0023b726 	eoreq	fp, r3, r6, lsr #14
    2224:	00823c00 	addeq	r3, r2, r0, lsl #24
    2228:	3c000300 	stccc	3, cr0, [r0], {-0}
    222c:	04000082 	streq	r0, [r0], #-130	; 0xffffff7e
    2230:	02000000 	andeq	r0, r0, #0, 0
    2234:	1f98059e 	svcne	0x0098059e
    2238:	c41e0000 	ldrgt	r0, [lr], #-0
    223c:	00000023 	andeq	r0, r0, r3, lsr #32
    2240:	00235f23 	eoreq	r5, r3, r3, lsr #30
    2244:	00824000 	addeq	r4, r2, r0
    2248:	00001000 	andeq	r1, r0, r0
    224c:	059f0200 	ldreq	r0, [pc, #512]	; 2454 <__code_start__-0x5bac>
    2250:	0023781e 	eoreq	r7, r3, lr, lsl r8
    2254:	236c1e00 	cmncs	ip, #0, 28
    2258:	841d0000 	ldrhi	r0, [sp], #-0
    225c:	98000023 	stmdals	r0, {r0, r1, r5}
    2260:	96000012 			; <UNDEFINED> instruction: 0x96000012
    2264:	24000012 	strcs	r0, [r0], #-18	; 0xffffffee
    2268:	0000238e 	andeq	r2, r0, lr, lsl #7
    226c:	00008240 	andeq	r8, r0, r0, asr #4
    2270:	00000004 	andeq	r0, r0, r4
    2274:	00238f1d 	eoreq	r8, r3, sp, lsl pc
    2278:	0012ad00 	andseq	sl, r2, r0, lsl #26
    227c:	0012ab00 	andseq	sl, r2, r0, lsl #22
    2280:	00000000 	andeq	r0, r0, r0
    2284:	22771a00 	rsbscs	r1, r7, #0, 20
    2288:	82500000 	subshi	r0, r0, #0, 0
    228c:	00020000 	andeq	r0, r2, r0
    2290:	000004d8 	ldrdeq	r0, [r0], -r8
    2294:	1e09d002 	cdpne	0, 0, cr13, cr9, cr2, {0}
    2298:	00002284 	andeq	r2, r0, r4, lsl #5
    229c:	0022df25 	eoreq	sp, r2, r5, lsr #30
    22a0:	00825000 	addeq	r5, r2, r0
    22a4:	50000400 	andpl	r0, r0, r0, lsl #8
    22a8:	18000082 	stmdane	r0, {r1, r7}
    22ac:	02000000 	andeq	r0, r0, #0, 0
    22b0:	f81b05b9 			; <UNDEFINED> instruction: 0xf81b05b9
    22b4:	c2000022 	andgt	r0, r0, #34, 0	; 0x22
    22b8:	c0000012 	andgt	r0, r0, r2, lsl r0
    22bc:	1e000012 	mcrne	0, 0, r0, cr0, cr2, {0}
    22c0:	000022ec 	andeq	r2, r0, ip, ror #5
    22c4:	0023041d 	eoreq	r0, r3, sp, lsl r4
    22c8:	0012da00 	andseq	sp, r2, r0, lsl #20
    22cc:	0012d800 	andseq	sp, r2, r0, lsl #16
    22d0:	23102200 	tstcs	r0, #0, 4
    22d4:	82500000 	subshi	r0, r0, #0, 0
    22d8:	00040000 	andeq	r0, r4, r0
    22dc:	20480000 	subcs	r0, r8, r0
    22e0:	111d0000 	tstne	sp, r0
    22e4:	ef000023 	svc	0x00000023
    22e8:	ed000012 	stc	0, cr0, [r0, #-72]	; 0xffffffb8
    22ec:	00000012 	andeq	r0, r0, r2, lsl r0
    22f0:	00239d26 	eoreq	r9, r3, r6, lsr #26
    22f4:	00825400 	addeq	r5, r2, r0, lsl #8
    22f8:	54000300 	strpl	r0, [r0], #-768	; 0xfffffd00
    22fc:	04000082 	streq	r0, [r0], #-130	; 0xffffff7e
    2300:	02000000 	andeq	r0, r0, #0, 0
    2304:	206805a6 	rsbcs	r0, r8, r6, lsr #11
    2308:	aa1e0000 	bge	782310 <__bss_end__+0x777e40>
    230c:	00000023 	andeq	r0, r0, r3, lsr #32
    2310:	00235f23 	eoreq	r5, r3, r3, lsr #30
    2314:	00825800 	addeq	r5, r2, r0, lsl #16
    2318:	00001000 	andeq	r1, r0, r0
    231c:	05a70200 	streq	r0, [r7, #512]!	; 0x200
    2320:	0023781e 	eoreq	r7, r3, lr, lsl r8
    2324:	236c1e00 	cmncs	ip, #0, 28
    2328:	841d0000 	ldrhi	r0, [sp], #-0
    232c:	04000023 	streq	r0, [r0], #-35	; 0xffffffdd
    2330:	02000013 	andeq	r0, r0, #19, 0
    2334:	24000013 	strcs	r0, [r0], #-19	; 0xffffffed
    2338:	0000238e 	andeq	r2, r0, lr, lsl #7
    233c:	00008258 	andeq	r8, r0, r8, asr r2
    2340:	00000004 	andeq	r0, r0, r4
    2344:	00238f1d 	eoreq	r8, r3, sp, lsl pc
    2348:	00131900 	andseq	r1, r3, r0, lsl #18
    234c:	00131700 	andseq	r1, r3, r0, lsl #14
	...
    2358:	431a0000 	tstmi	sl, #0, 0
    235c:	e0000022 	and	r0, r0, r2, lsr #32
    2360:	02000080 	andeq	r0, r0, #128, 0	; 0x80
    2364:	00003000 	andeq	r3, r0, r0
    2368:	05200100 	streq	r0, [r0, #-256]!	; 0xffffff00
    236c:	0022501b 	eoreq	r5, r2, fp, lsl r0
    2370:	00132e00 	andseq	r2, r3, r0, lsl #28
    2374:	00132c00 	andseq	r2, r3, r0, lsl #24
    2378:	225d1a00 	subscs	r1, sp, #0, 20
    237c:	80e00000 	rschi	r0, r0, r0
    2380:	00040000 	andeq	r0, r4, r0
    2384:	00000038 	andeq	r0, r0, r8, lsr r0
    2388:	1b05c602 	blne	173b98 <__bss_end__+0x1696c8>
    238c:	0000226a 	andeq	r2, r0, sl, ror #4
    2390:	0000134a 	andeq	r1, r0, sl, asr #6
    2394:	00001348 	andeq	r1, r0, r8, asr #6
    2398:	0022df1a 	eoreq	sp, r2, sl, lsl pc
    239c:	0080e000 	addeq	lr, r0, r0
    23a0:	40000600 	andmi	r0, r0, r0, lsl #12
    23a4:	02000000 	andeq	r0, r0, #0, 0
    23a8:	f81b05bd 			; <UNDEFINED> instruction: 0xf81b05bd
    23ac:	66000022 	strvs	r0, [r0], -r2, lsr #32
    23b0:	64000013 	strvs	r0, [r0], #-19	; 0xffffffed
    23b4:	1b000013 	blne	2408 <__code_start__-0x5bf8>
    23b8:	000022ec 	andeq	r2, r0, ip, ror #5
    23bc:	0000137e 	andeq	r1, r0, lr, ror r3
    23c0:	0000137c 	andeq	r1, r0, ip, ror r3
    23c4:	00004021 	andeq	r4, r0, r1, lsr #32
    23c8:	23041d00 	movwcs	r1, #19712	; 0x4d00
    23cc:	139a0000 	orrsne	r0, sl, #0, 0
    23d0:	13980000 	orrsne	r0, r8, #0, 0
    23d4:	101c0000 	andsne	r0, ip, r0
    23d8:	60000023 	andvs	r0, r0, r3, lsr #32
    23dc:	49000000 	stmdbmi	r0, {}	; <UNPREDICTABLE>
    23e0:	1d000021 	stcne	0, cr0, [r0, #-132]	; 0xffffff7c
    23e4:	00002311 	andeq	r2, r0, r1, lsl r3
    23e8:	000013af 	andeq	r1, r0, pc, lsr #7
    23ec:	000013ad 	andeq	r1, r0, sp, lsr #7
    23f0:	239d1f00 	orrscs	r1, sp, #0, 30
    23f4:	80e80000 	rschi	r0, r8, r0
    23f8:	00030000 	andeq	r0, r3, r0
    23fc:	00000078 	andeq	r0, r0, r8, ror r0
    2400:	6d05a602 	stcvs	6, cr10, [r5, #-8]
    2404:	1b000021 	blne	2490 <__code_start__-0x5b70>
    2408:	000023aa 	andeq	r2, r0, sl, lsr #7
    240c:	000013c8 	andeq	r1, r0, r8, asr #7
    2410:	000013c2 	andeq	r1, r0, r2, asr #7
    2414:	235f2900 	cmpcs	pc, #0, 18
    2418:	00980000 	addseq	r0, r8, r0
    241c:	a7020000 	strge	r0, [r2, -r0]
    2420:	23781e05 	cmncs	r8, #80	; 0x50
    2424:	6c1e0000 	ldcvs	0, cr0, [lr], {-0}
    2428:	21000023 	tstcs	r0, r3, lsr #32
    242c:	00000098 	muleq	r0, r8, r0
    2430:	0023841d 	eoreq	r8, r3, sp, lsl r4
    2434:	00140100 	andseq	r0, r4, r0, lsl #2
    2438:	0013ff00 	andseq	pc, r3, r0, lsl #30
    243c:	238e2400 	orrcs	r2, lr, #0, 8
    2440:	81000000 	mrshi	r0, (UNDEF: 0)
    2444:	00040000 	andeq	r0, r4, r0
    2448:	8f1d0000 	svchi	0x001d0000
    244c:	16000023 	strne	r0, [r0], -r3, lsr #32
    2450:	14000014 	strne	r0, [r0], #-20	; 0xffffffec
    2454:	00000014 	andeq	r0, r0, r4, lsl r0
    2458:	00000000 	andeq	r0, r0, r0
    245c:	37000000 	strcc	r0, [r0, -r0]
    2460:	000002c4 	andeq	r0, r0, r4, asr #5
    2464:	0314e002 	tsteq	r4, #2, 0
    2468:	000021ef 	andeq	r2, r0, pc, ror #3
    246c:	6e69702c 	cdpvs	0, 6, cr7, cr9, cr12, {1}
    2470:	2be00200 	blcs	ff802c78 <__bss_end__+0xff7f87a8>
    2474:	0000002c 	andeq	r0, r0, ip, lsr #32
    2478:	0200722c 	andeq	r7, r0, #44, 4	; 0xc0000002
    247c:	005938e0 	subseq	r3, r9, r0, ror #17
    2480:	672c0000 	strvs	r0, [ip, -r0]!
    2484:	43e00200 	mvnmi	r0, #0, 4
    2488:	00000059 	andeq	r0, r0, r9, asr r0
    248c:	0200622c 	andeq	r6, r0, #44, 4	; 0xc0000002
    2490:	00594ee0 	subseq	r4, r9, r0, ror #29
    2494:	37000000 	strcc	r0, [r0, -r0]
    2498:	0000024e 	andeq	r0, r0, lr, asr #4
    249c:	0314d902 	tsteq	r4, #32768	; 0x8000
    24a0:	0000221f 	andeq	r2, r0, pc, lsl r2
    24a4:	6e69702c 	cdpvs	0, 6, cr7, cr9, cr12, {1}
    24a8:	2ad90200 	bcs	ff642cb0 <__bss_end__+0xff6387e0>
    24ac:	0000002c 	andeq	r0, r0, ip, lsr #32
    24b0:	0200622c 	andeq	r6, r0, #44, 4	; 0xc0000002
    24b4:	005937d9 	ldrsbeq	r3, [r9], #-121	; 0xffffff87
    24b8:	2e2d0000 	cdpcs	0, 2, cr0, cr13, cr0, {0}
    24bc:	da020069 	ble	82668 <__bss_end__+0x78198>
    24c0:	0000250d 	andeq	r2, r0, sp, lsl #10
    24c4:	37000000 	strcc	r0, [r0, -r0]
    24c8:	00000227 	andeq	r0, r0, r7, lsr #4
    24cc:	0314ca02 	tsteq	r4, #8192	; 0x2000
    24d0:	00002243 	andeq	r2, r0, r3, asr #4
    24d4:	6e69702c 	cdpvs	0, 6, cr7, cr9, cr12, {1}
    24d8:	29ca0200 	stmibcs	sl, {r9}^
    24dc:	0000002c 	andeq	r0, r0, ip, lsr #32
    24e0:	0200622c 	andeq	r6, r0, #44, 4	; 0xc0000002
    24e4:	005936ca 	subseq	r3, r9, sl, asr #13
    24e8:	37000000 	strcc	r0, [r0, -r0]
    24ec:	000000ba 	strheq	r0, [r0], -sl
    24f0:	0314c502 	tsteq	r4, #8388608	; 0x800000
    24f4:	0000225d 	andeq	r2, r0, sp, asr r2
    24f8:	6e69702c 	cdpvs	0, 6, cr7, cr9, cr12, {1}
    24fc:	27c50200 	strbcs	r0, [r5, r0, lsl #4]
    2500:	0000002c 	andeq	r0, r0, ip, lsr #32
    2504:	02133700 	andseq	r3, r3, #0, 14
    2508:	bc020000 	stclt	0, cr0, [r2], {-0}
    250c:	22770314 	rsbscs	r0, r7, #20, 6	; 0x50000000
    2510:	702c0000 	eorvc	r0, ip, r0
    2514:	02006e69 	andeq	r6, r0, #1680	; 0x690
    2518:	002c24bc 	strhteq	r2, [ip], -ip
    251c:	38000000 	stmdacc	r0, {}	; <UNPREDICTABLE>
    2520:	006c3074 	rsbeq	r3, ip, r4, ror r0
    2524:	0314b802 	tsteq	r4, #131072	; 0x20000
    2528:	00002291 	muleq	r0, r1, r2
    252c:	6e69702c 	cdpvs	0, 6, cr7, cr9, cr12, {1}
    2530:	21b80200 			; <UNDEFINED> instruction: 0x21b80200
    2534:	0000002c 	andeq	r0, r0, ip, lsr #32
    2538:	31743800 	cmncc	r4, r0, lsl #16
    253c:	b402006c 	strlt	r0, [r2], #-108	; 0xffffff94
    2540:	22ab0314 	adccs	r0, fp, #20, 6	; 0x50000000
    2544:	702c0000 	eorvc	r0, ip, r0
    2548:	02006e69 	andeq	r6, r0, #1680	; 0x690
    254c:	002c21b4 	strhteq	r2, [ip], -r4
    2550:	38000000 	stmdacc	r0, {}	; <UNPREDICTABLE>
    2554:	00683074 	rsbeq	r3, r8, r4, ror r0
    2558:	0314b002 	tsteq	r4, #2, 0
    255c:	000022c5 	andeq	r2, r0, r5, asr #5
    2560:	6e69702c 	cdpvs	0, 6, cr7, cr9, cr12, {1}
    2564:	21b00200 	lslscs	r0, r0, #4
    2568:	0000002c 	andeq	r0, r0, ip, lsr #32
    256c:	31743800 	cmncc	r4, r0, lsl #16
    2570:	ab020068 	blge	82718 <__bss_end__+0x78248>
    2574:	22df0314 	sbcscs	r0, pc, #20, 6	; 0x50000000
    2578:	702c0000 	eorvc	r0, ip, r0
    257c:	02006e69 	andeq	r6, r0, #1680	; 0x690
    2580:	002c21ab 	eoreq	r2, ip, fp, lsr #3
    2584:	37000000 	strcc	r0, [r0, -r0]
    2588:	000001ec 	andeq	r0, r0, ip, ror #3
    258c:	0314a402 	tsteq	r4, #33554432	; 0x2000000
    2590:	0000231f 	andeq	r2, r0, pc, lsl r3
    2594:	6e69702c 	cdpvs	0, 6, cr7, cr9, cr12, {1}
    2598:	25a40200 	strcs	r0, [r4, #512]!	; 0x200
    259c:	0000002c 	andeq	r0, r0, ip, lsr #32
    25a0:	00023939 	andeq	r3, r2, r9, lsr r9
    25a4:	33a40200 			; <UNDEFINED> instruction: 0x33a40200
    25a8:	0000002c 	andeq	r0, r0, ip, lsr #32
    25ac:	0009d912 	andeq	sp, r9, r2, lsl r9
    25b0:	0ea50200 	cdpeq	2, 10, cr0, cr5, cr0, {0}
    25b4:	0000002c 	andeq	r0, r0, ip, lsr #32
    25b8:	0206122d 	andeq	r1, r6, #-805306366	; 0xd0000002
    25bc:	a5020000 	strge	r0, [r2, #-0]
    25c0:	00002c16 	andeq	r2, r0, r6, lsl ip
    25c4:	37000000 	strcc	r0, [r0, -r0]
    25c8:	000001f4 	strdeq	r0, [r0], -r4
    25cc:	03149c02 	tsteq	r4, #512	; 0x200
    25d0:	0000235f 	andeq	r2, r0, pc, asr r3
    25d4:	6e69702c 	cdpvs	0, 6, cr7, cr9, cr12, {1}
    25d8:	259c0200 	ldrcs	r0, [ip, #512]	; 0x200
    25dc:	0000002c 	andeq	r0, r0, ip, lsr #32
    25e0:	00023939 	andeq	r3, r2, r9, lsr r9
    25e4:	339c0200 	orrscc	r0, ip, #0, 4
    25e8:	0000002c 	andeq	r0, r0, ip, lsr #32
    25ec:	0009d912 	andeq	sp, r9, r2, lsl r9
    25f0:	0e9d0200 	cdpeq	2, 9, cr0, cr13, cr0, {0}
    25f4:	0000002c 	andeq	r0, r0, ip, lsr #32
    25f8:	0206122d 	andeq	r1, r6, #-805306366	; 0xd0000002
    25fc:	9d020000 	stcls	0, cr0, [r2, #-0]
    2600:	00002c16 	andeq	r2, r0, r6, lsl ip
    2604:	37000000 	strcc	r0, [r0, -r0]
    2608:	00000233 	andeq	r0, r0, r3, lsr r2
    260c:	03148102 	tsteq	r4, #-2147483648	; 0x80000000
    2610:	0000239d 	muleq	r0, sp, r3
    2614:	00025b39 	andeq	r5, r2, r9, lsr fp
    2618:	2b810200 	blcs	fe042e20 <__bss_end__+0xfe038950>
    261c:	0000002c 	andeq	r0, r0, ip, lsr #32
    2620:	00024839 	andeq	r4, r2, r9, lsr r8
    2624:	3f810200 	svccc	0x00810200
    2628:	0000002c 	andeq	r0, r0, ip, lsr #32
    262c:	0200632e 	andeq	r6, r0, #-1207959552	; 0xb8000000
    2630:	002c0e82 	eoreq	r0, ip, r2, lsl #29
    2634:	122d0000 	eorne	r0, sp, #0, 0
    2638:	00000206 	andeq	r0, r0, r6, lsl #4
    263c:	2c118302 	ldccs	3, cr8, [r1], {2}
    2640:	00000000 	andeq	r0, r0, r0
    2644:	02aa3700 	adceq	r3, sl, #0, 14
    2648:	7c020000 	stcvc	0, cr0, [r2], {-0}
    264c:	23b70314 			; <UNDEFINED> instruction: 0x23b70314
    2650:	702c0000 	eorvc	r0, ip, r0
    2654:	02006e69 	andeq	r6, r0, #1680	; 0x690
    2658:	002c2e7c 	eoreq	r2, ip, ip, ror lr
    265c:	37000000 	strcc	r0, [r0, -r0]
    2660:	00000292 	muleq	r0, r2, r2
    2664:	03147902 	tsteq	r4, #32768	; 0x8000
    2668:	000023d1 	ldrdeq	r2, [r0], -r1
    266c:	6e69702c 	cdpvs	0, 6, cr7, cr9, cr12, {1}
    2670:	2d790200 	lfmcs	f0, 2, [r9, #-0]
    2674:	0000002c 	andeq	r0, r0, ip, lsr #32
    2678:	08cf3a00 	stmiaeq	pc, {r9, fp, ip, sp}^	; <UNPREDICTABLE>
    267c:	85200000 	strhi	r0, [r0, #-0]!
    2680:	00f00000 	rscseq	r0, r0, r0
    2684:	9c010000 	stcls	0, cr0, [r1], {-0}
    2688:	00002a54 	andeq	r2, r0, r4, asr sl
    268c:	0008dc1b 	andeq	sp, r8, fp, lsl ip
    2690:	00143100 	andseq	r3, r4, r0, lsl #2
    2694:	00142900 	andseq	r2, r4, r0, lsl #18
    2698:	08e61b00 	stmiaeq	r6!, {r8, r9, fp, ip}^
    269c:	14730000 	ldrbtne	r0, [r3], #-0
    26a0:	146b0000 	strbtne	r0, [fp], #-0
    26a4:	f01c0000 			; <UNDEFINED> instruction: 0xf01c0000
    26a8:	38000008 	stmdacc	r0, {r3}
    26ac:	41000009 	tstmi	r0, r9
    26b0:	1d00002a 	stcne	0, cr0, [r0, #-168]	; 0xffffff58
    26b4:	000008f1 	strdeq	r0, [r0], -r1
    26b8:	000014b3 			; <UNDEFINED> instruction: 0x000014b3
    26bc:	000014ad 	andeq	r1, r0, sp, lsr #9
    26c0:	0021b71a 	eoreq	fp, r1, sl, lsl r7
    26c4:	00854000 	addeq	r4, r5, r0
    26c8:	c0000200 	andgt	r0, r0, r0, lsl #4
    26cc:	01000009 	tsteq	r0, r9
    26d0:	e41b093e 	ldr	r0, [fp], #-2366	; 0xfffff6c2
    26d4:	e0000021 	and	r0, r0, r1, lsr #32
    26d8:	de000014 	mcrle	0, 0, r0, cr0, cr4, {0}
    26dc:	1b000014 	blne	2734 <__code_start__-0x58cc>
    26e0:	000021da 	ldrdeq	r2, [r0], -sl
    26e4:	000014e0 	andeq	r1, r0, r0, ror #9
    26e8:	000014de 	ldrdeq	r1, [r0], -lr
    26ec:	0021d01b 	eoreq	sp, r1, fp, lsl r0
    26f0:	0014e000 	andseq	lr, r4, r0
    26f4:	0014de00 	andseq	sp, r4, r0, lsl #28
    26f8:	21c41e00 	biccs	r1, r4, r0, lsl #28
    26fc:	ef1f0000 	svc	0x001f0000
    2700:	40000021 	andmi	r0, r0, r1, lsr #32
    2704:	04000085 	streq	r0, [r0], #-133	; 0xffffff7b
    2708:	000a5800 	andeq	r5, sl, r0, lsl #16
    270c:	05e50200 	strbeq	r0, [r5, #512]!	; 0x200
    2710:	0000265d 	andeq	r2, r0, sp, asr r6
    2714:	0022081b 	eoreq	r0, r2, fp, lsl r8
    2718:	0014f600 	andseq	pc, r4, r0, lsl #12
    271c:	0014f400 	andseq	pc, r4, r0, lsl #8
    2720:	21fc1e00 	mvnscs	r1, r0, lsl #28
    2724:	12200000 	eorne	r0, r0, #0, 0
    2728:	a8000022 	stmdage	r0, {r1, r5}
    272c:	1d00000a 	stcne	0, cr0, [r0, #-40]	; 0xffffffd8
    2730:	00002213 	andeq	r2, r0, r3, lsl r2
    2734:	0000150c 	andeq	r1, r0, ip, lsl #10
    2738:	0000150a 	andeq	r1, r0, sl, lsl #10
    273c:	00221f1a 	eoreq	r1, r2, sl, lsl pc
    2740:	00854400 	addeq	r4, r5, r0, lsl #8
    2744:	f0000100 			; <UNDEFINED> instruction: 0xf0000100
    2748:	0200000a 	andeq	r0, r0, #10, 0
    274c:	381b09db 	ldmdacc	fp, {r0, r1, r3, r4, r6, r7, r8, fp}
    2750:	22000022 	andcs	r0, r0, #34, 0	; 0x22
    2754:	20000015 	andcs	r0, r0, r5, lsl r0
    2758:	1e000015 	mcrne	0, 0, r0, cr0, cr5, {0}
    275c:	0000222c 	andeq	r2, r0, ip, lsr #4
    2760:	0022ab1f 	eoreq	sl, r2, pc, lsl fp
    2764:	00854400 	addeq	r4, r5, r0, lsl #8
    2768:	30000400 	andcc	r0, r0, r0, lsl #8
    276c:	0200000b 	andeq	r0, r0, #11, 0
    2770:	258a09cf 	strcs	r0, [sl, #2511]	; 0x9cf
    2774:	b81e0000 	ldmdalt	lr, {}	; <UNPREDICTABLE>
    2778:	1a000022 	bne	2808 <__code_start__-0x57f8>
    277c:	0000231f 	andeq	r2, r0, pc, lsl r3
    2780:	00008544 	andeq	r8, r0, r4, asr #10
    2784:	0b580006 	bleq	16027a4 <__bss_end__+0x15f82d4>
    2788:	b1020000 	mrslt	r0, (UNDEF: 2)
    278c:	23381b05 	teqcs	r8, #5120	; 0x1400
    2790:	15380000 	ldrne	r0, [r8, #-0]!
    2794:	15360000 	ldrne	r0, [r6, #-0]!
    2798:	2c1e0000 	ldccs	0, cr0, [lr], {-0}
    279c:	21000023 	tstcs	r0, r3, lsr #32
    27a0:	00000b58 	andeq	r0, r0, r8, asr fp
    27a4:	0023441d 	eoreq	r4, r3, sp, lsl r4
    27a8:	00154f00 	andseq	r4, r5, r0, lsl #30
    27ac:	00154d00 	andseq	r4, r5, r0, lsl #26
    27b0:	23b71f00 			; <UNDEFINED> instruction: 0x23b71f00
    27b4:	85480000 	strbhi	r0, [r8, #-0]
    27b8:	00030000 	andeq	r0, r3, r0
    27bc:	00000b78 	andeq	r0, r0, r8, ror fp
    27c0:	25059e02 	strcs	r9, [r5, #-3586]	; 0xfffff1fe
    27c4:	1e000025 	cdpne	0, 0, cr0, cr0, cr5, {1}
    27c8:	000023c4 	andeq	r2, r0, r4, asr #7
    27cc:	23502200 	cmpcs	r0, #0, 4
    27d0:	85440000 	strbhi	r0, [r4, #-0]
    27d4:	00040000 	andeq	r0, r4, r0
    27d8:	25440000 	strbcs	r0, [r4, #-0]
    27dc:	511d0000 	tstpl	sp, r0
    27e0:	64000023 	strvs	r0, [r0], #-35	; 0xffffffdd
    27e4:	62000015 	andvs	r0, r0, #21, 0
    27e8:	00000015 	andeq	r0, r0, r5, lsl r0
    27ec:	00235f23 	eoreq	r5, r3, r3, lsr #30
    27f0:	00854c00 	addeq	r4, r5, r0, lsl #24
    27f4:	00001000 	andeq	r1, r0, r0
    27f8:	059f0200 	ldreq	r0, [pc, #512]	; 2a00 <__code_start__-0x5600>
    27fc:	0023781e 	eoreq	r7, r3, lr, lsl r8
    2800:	236c1e00 	cmncs	ip, #0, 28
    2804:	841d0000 	ldrhi	r0, [sp], #-0
    2808:	79000023 	stmdbvc	r0, {r0, r1, r5}
    280c:	77000015 	smladvc	r0, r5, r0, r0
    2810:	24000015 	strcs	r0, [r0], #-21	; 0xffffffeb
    2814:	0000238e 	andeq	r2, r0, lr, lsl #7
    2818:	0000854c 	andeq	r8, r0, ip, asr #10
    281c:	00000004 	andeq	r0, r0, r4
    2820:	00238f1d 	eoreq	r8, r3, sp, lsl pc
    2824:	00158e00 	andseq	r8, r5, r0, lsl #28
    2828:	00158c00 	andseq	r8, r5, r0, lsl #24
    282c:	00000000 	andeq	r0, r0, r0
    2830:	771a0000 	ldrvc	r0, [sl, -r0]
    2834:	5c000022 	stcpl	0, cr0, [r0], {34}	; 0x22
    2838:	02000085 	andeq	r0, r0, #133, 0	; 0x85
    283c:	000b1800 	andeq	r1, fp, r0, lsl #16
    2840:	09d00200 	ldmibeq	r0, {r9}^
    2844:	0022841e 	eoreq	r8, r2, lr, lsl r4
    2848:	22df2500 	sbcscs	r2, pc, #0, 10
    284c:	855c0000 	ldrbhi	r0, [ip, #-0]
    2850:	00040000 	andeq	r0, r4, r0
    2854:	0000855c 	andeq	r8, r0, ip, asr r5
    2858:	00000018 	andeq	r0, r0, r8, lsl r0
    285c:	1b05b902 	blne	170c6c <__bss_end__+0x16679c>
    2860:	000022f8 	strdeq	r2, [r0], -r8
    2864:	000015a3 	andeq	r1, r0, r3, lsr #11
    2868:	000015a1 	andeq	r1, r0, r1, lsr #11
    286c:	0022ec1e 	eoreq	lr, r2, lr, lsl ip
    2870:	23041d00 	movwcs	r1, #19712	; 0x4d00
    2874:	15bb0000 	ldrne	r0, [fp, #0]!
    2878:	15b90000 	ldrne	r0, [r9, #0]!
    287c:	10220000 	eorne	r0, r2, r0
    2880:	5c000023 	stcpl	0, cr0, [r0], {35}	; 0x23
    2884:	04000085 	streq	r0, [r0], #-133	; 0xffffff7b
    2888:	f5000000 			; <UNDEFINED> instruction: 0xf5000000
    288c:	1d000025 	stcne	0, cr0, [r0, #-148]	; 0xffffff6c
    2890:	00002311 	andeq	r2, r0, r1, lsl r3
    2894:	000015d0 	ldrdeq	r1, [r0], -r0
    2898:	000015ce 	andeq	r1, r0, lr, asr #11
    289c:	239d2600 	orrscs	r2, sp, #0, 12
    28a0:	85600000 	strbhi	r0, [r0, #-0]!
    28a4:	00030000 	andeq	r0, r3, r0
    28a8:	00008560 	andeq	r8, r0, r0, ror #10
    28ac:	00000004 	andeq	r0, r0, r4
    28b0:	1505a602 	strne	sl, [r5, #-1538]	; 0xfffff9fe
    28b4:	1e000026 	cdpne	0, 0, cr0, cr0, cr6, {1}
    28b8:	000023aa 	andeq	r2, r0, sl, lsr #7
    28bc:	235f2300 	cmpcs	pc, #0, 6
    28c0:	85640000 	strbhi	r0, [r4, #-0]!
    28c4:	00100000 	andseq	r0, r0, r0
    28c8:	a7020000 	strge	r0, [r2, -r0]
    28cc:	23781e05 	cmncs	r8, #80	; 0x50
    28d0:	6c1e0000 	ldcvs	0, cr0, [lr], {-0}
    28d4:	1d000023 	stcne	0, cr0, [r0, #-140]	; 0xffffff74
    28d8:	00002384 	andeq	r2, r0, r4, lsl #7
    28dc:	000015e5 	andeq	r1, r0, r5, ror #11
    28e0:	000015e3 	andeq	r1, r0, r3, ror #11
    28e4:	00238e24 	eoreq	r8, r3, r4, lsr #28
    28e8:	00856400 	addeq	r6, r5, r0, lsl #8
    28ec:	00000400 	andeq	r0, r0, r0, lsl #8
    28f0:	238f1d00 	orrcs	r1, pc, #0, 26
    28f4:	15fa0000 	ldrbne	r0, [sl, #0]!
    28f8:	15f80000 	ldrbne	r0, [r8, #0]!
	...
    2904:	21ef2700 	mvncs	r2, r0, lsl #14
    2908:	0b980000 	bleq	fe602910 <__bss_end__+0xfe5f8440>
    290c:	e6020000 	str	r0, [r2], -r0
    2910:	00285005 	eoreq	r5, r8, r5
    2914:	22081e00 	andcs	r1, r8, #0, 28
    2918:	fc1e0000 	ldc2	0, cr0, [lr], {-0}
    291c:	20000021 	andcs	r0, r0, r1, lsr #32
    2920:	00002212 	andeq	r2, r0, r2, lsl r2
    2924:	00000b98 	muleq	r0, r8, fp
    2928:	00221328 	eoreq	r1, r2, r8, lsr #6
    292c:	221f1a00 	andscs	r1, pc, #0, 20
    2930:	85800000 	strhi	r0, [r0]
    2934:	00020000 	andeq	r0, r2, r0
    2938:	00000bc8 	andeq	r0, r0, r8, asr #23
    293c:	1b09db02 	blne	27954c <__bss_end__+0x26f07c>
    2940:	00002238 	andeq	r2, r0, r8, lsr r2
    2944:	0000160f 	andeq	r1, r0, pc, lsl #12
    2948:	0000160d 	andeq	r1, r0, sp, lsl #12
    294c:	00222c1e 	eoreq	r2, r2, lr, lsl ip
    2950:	22ab1f00 	adccs	r1, fp, #0, 30
    2954:	85800000 	strhi	r0, [r0]
    2958:	00050000 	andeq	r0, r5, r0
    295c:	00000bf8 	strdeq	r0, [r0], -r8
    2960:	7d09cf02 	stcvc	15, cr12, [r9, #-8]
    2964:	1e000027 	cdpne	0, 0, cr0, cr0, cr7, {1}
    2968:	000022b8 			; <UNDEFINED> instruction: 0x000022b8
    296c:	00231f25 	eoreq	r1, r3, r5, lsr #30
    2970:	00858000 	addeq	r8, r5, r0
    2974:	80000700 	andhi	r0, r0, r0, lsl #14
    2978:	18000085 	stmdane	r0, {r0, r2, r7}
    297c:	02000000 	andeq	r0, r0, #0, 0
    2980:	381b05b1 	ldmdacc	fp, {r0, r4, r5, r7, r8, sl}
    2984:	25000023 	strcs	r0, [r0, #-35]	; 0xffffffdd
    2988:	23000016 	movwcs	r0, #22
    298c:	1e000016 	mcrne	0, 0, r0, cr0, cr6, {0}
    2990:	0000232c 	andeq	r2, r0, ip, lsr #6
    2994:	0023441d 	eoreq	r4, r3, sp, lsl r4
    2998:	00163c00 	andseq	r3, r6, r0, lsl #24
    299c:	00163a00 	andseq	r3, r6, r0, lsl #20
    29a0:	23502200 	cmpcs	r0, #0, 4
    29a4:	85800000 	strhi	r0, [r0]
    29a8:	00040000 	andeq	r0, r4, r0
    29ac:	27180000 	ldrcs	r0, [r8, -r0]
    29b0:	511d0000 	tstpl	sp, r0
    29b4:	51000023 	tstpl	r0, r3, lsr #32
    29b8:	4f000016 	svcmi	0x00000016
    29bc:	00000016 	andeq	r0, r0, r6, lsl r0
    29c0:	0023b726 	eoreq	fp, r3, r6, lsr #14
    29c4:	00858400 	addeq	r8, r5, r0, lsl #8
    29c8:	84000300 	strhi	r0, [r0], #-768	; 0xfffffd00
    29cc:	04000085 	streq	r0, [r0], #-133	; 0xffffff7b
    29d0:	02000000 	andeq	r0, r0, #0, 0
    29d4:	2738059e 			; <UNDEFINED> instruction: 0x2738059e
    29d8:	c41e0000 	ldrgt	r0, [lr], #-0
    29dc:	00000023 	andeq	r0, r0, r3, lsr #32
    29e0:	00235f23 	eoreq	r5, r3, r3, lsr #30
    29e4:	00858800 	addeq	r8, r5, r0, lsl #16
    29e8:	00001000 	andeq	r1, r0, r0
    29ec:	059f0200 	ldreq	r0, [pc, #512]	; 2bf4 <__code_start__-0x540c>
    29f0:	0023781e 	eoreq	r7, r3, lr, lsl r8
    29f4:	236c1e00 	cmncs	ip, #0, 28
    29f8:	841d0000 	ldrhi	r0, [sp], #-0
    29fc:	66000023 	strvs	r0, [r0], -r3, lsr #32
    2a00:	64000016 	strvs	r0, [r0], #-22	; 0xffffffea
    2a04:	24000016 	strcs	r0, [r0], #-22	; 0xffffffea
    2a08:	0000238e 	andeq	r2, r0, lr, lsl #7
    2a0c:	00008588 	andeq	r8, r0, r8, lsl #11
    2a10:	00000004 	andeq	r0, r0, r4
    2a14:	00238f1d 	eoreq	r8, r3, sp, lsl pc
    2a18:	00167b00 	andseq	r7, r6, r0, lsl #22
    2a1c:	00167900 	andseq	r7, r6, r0, lsl #18
    2a20:	00000000 	andeq	r0, r0, r0
    2a24:	22771a00 	rsbscs	r1, r7, #0, 20
    2a28:	85980000 	ldrhi	r0, [r8]
    2a2c:	00020000 	andeq	r0, r2, r0
    2a30:	00000be0 	andeq	r0, r0, r0, ror #23
    2a34:	1e09d002 	cdpne	0, 0, cr13, cr9, cr2, {0}
    2a38:	00002284 	andeq	r2, r0, r4, lsl #5
    2a3c:	0022df25 	eoreq	sp, r2, r5, lsr #30
    2a40:	00859800 	addeq	r9, r5, r0, lsl #16
    2a44:	98000400 	stmdals	r0, {sl}
    2a48:	18000085 	stmdane	r0, {r0, r2, r7}
    2a4c:	02000000 	andeq	r0, r0, #0, 0
    2a50:	f81b05b9 			; <UNDEFINED> instruction: 0xf81b05b9
    2a54:	90000022 	andls	r0, r0, r2, lsr #32
    2a58:	8e000016 	mcrhi	0, 0, r0, cr0, cr6, {0}
    2a5c:	1e000016 	mcrne	0, 0, r0, cr0, cr6, {0}
    2a60:	000022ec 	andeq	r2, r0, ip, ror #5
    2a64:	0023041d 	eoreq	r0, r3, sp, lsl r4
    2a68:	0016a800 	andseq	sl, r6, r0, lsl #16
    2a6c:	0016a600 	andseq	sl, r6, r0, lsl #12
    2a70:	23102200 	tstcs	r0, #0, 4
    2a74:	85980000 	ldrhi	r0, [r8]
    2a78:	00040000 	andeq	r0, r4, r0
    2a7c:	27e80000 	strbcs	r0, [r8, r0]!
    2a80:	111d0000 	tstne	sp, r0
    2a84:	bd000023 	stclt	0, cr0, [r0, #-140]	; 0xffffff74
    2a88:	bb000016 	bllt	2ae8 <__code_start__-0x5518>
    2a8c:	00000016 	andeq	r0, r0, r6, lsl r0
    2a90:	00239d26 	eoreq	r9, r3, r6, lsr #26
    2a94:	00859c00 	addeq	r9, r5, r0, lsl #24
    2a98:	9c000300 	stcls	3, cr0, [r0], {-0}
    2a9c:	04000085 	streq	r0, [r0], #-133	; 0xffffff7b
    2aa0:	02000000 	andeq	r0, r0, #0, 0
    2aa4:	280805a6 	stmdacs	r8, {r1, r2, r5, r7, r8, sl}
    2aa8:	aa1e0000 	bge	782ab0 <__bss_end__+0x7785e0>
    2aac:	00000023 	andeq	r0, r0, r3, lsr #32
    2ab0:	00235f23 	eoreq	r5, r3, r3, lsr #30
    2ab4:	0085a000 	addeq	sl, r5, r0
    2ab8:	00001000 	andeq	r1, r0, r0
    2abc:	05a70200 	streq	r0, [r7, #512]!	; 0x200
    2ac0:	0023781e 	eoreq	r7, r3, lr, lsl r8
    2ac4:	236c1e00 	cmncs	ip, #0, 28
    2ac8:	841d0000 	ldrhi	r0, [sp], #-0
    2acc:	d2000023 	andle	r0, r0, #35, 0	; 0x23
    2ad0:	d0000016 	andle	r0, r0, r6, lsl r0
    2ad4:	24000016 	strcs	r0, [r0], #-22	; 0xffffffea
    2ad8:	0000238e 	andeq	r2, r0, lr, lsl #7
    2adc:	000085a0 	andeq	r8, r0, r0, lsr #11
    2ae0:	00000004 	andeq	r0, r0, r4
    2ae4:	00238f1d 	eoreq	r8, r3, sp, lsl pc
    2ae8:	0016e700 	andseq	lr, r6, r0, lsl #14
    2aec:	0016e500 	andseq	lr, r6, r0, lsl #10
	...
    2af8:	0021ef29 	eoreq	lr, r1, r9, lsr #30
    2afc:	000c1000 	andeq	r1, ip, r0
    2b00:	05e70200 	strbeq	r0, [r7, #512]!	; 0x200
    2b04:	0022081e 	eoreq	r0, r2, lr, lsl r8
    2b08:	21fc1e00 	mvnscs	r1, r0, lsl #28
    2b0c:	12200000 	eorne	r0, r0, #0, 0
    2b10:	10000022 	andne	r0, r0, r2, lsr #32
    2b14:	2800000c 	stmdacs	r0, {r2, r3}
    2b18:	00002213 	andeq	r2, r0, r3, lsl r2
    2b1c:	00221f1a 	eoreq	r1, r2, sl, lsl pc
    2b20:	0085bc00 	addeq	fp, r5, r0, lsl #24
    2b24:	40000200 	andmi	r0, r0, r0, lsl #4
    2b28:	0200000c 	andeq	r0, r0, #12, 0
    2b2c:	381b09db 	ldmdacc	fp, {r0, r1, r3, r4, r6, r7, r8, fp}
    2b30:	fc000022 	stc2	0, cr0, [r0], {34}	; 0x22
    2b34:	fa000016 	blx	2b94 <__code_start__-0x546c>
    2b38:	1e000016 	mcrne	0, 0, r0, cr0, cr6, {0}
    2b3c:	0000222c 	andeq	r2, r0, ip, lsr #4
    2b40:	0022ab1f 	eoreq	sl, r2, pc, lsl fp
    2b44:	0085bc00 	addeq	fp, r5, r0, lsl #24
    2b48:	70000500 	andvc	r0, r0, r0, lsl #10
    2b4c:	0200000c 	andeq	r0, r0, #12, 0
    2b50:	296c09cf 	stmdbcs	ip!, {r0, r1, r2, r3, r6, r7, r8, fp}^
    2b54:	b81e0000 	ldmdalt	lr, {}	; <UNPREDICTABLE>
    2b58:	25000022 	strcs	r0, [r0, #-34]	; 0xffffffde
    2b5c:	0000231f 	andeq	r2, r0, pc, lsl r3
    2b60:	000085bc 			; <UNDEFINED> instruction: 0x000085bc
    2b64:	85bc0007 	ldrhi	r0, [ip, #7]!
    2b68:	00180000 	andseq	r0, r8, r0
    2b6c:	b1020000 	mrslt	r0, (UNDEF: 2)
    2b70:	23381b05 	teqcs	r8, #5120	; 0x1400
    2b74:	17120000 	ldrne	r0, [r2, -r0]
    2b78:	17100000 	ldrne	r0, [r0, -r0]
    2b7c:	2c1e0000 	ldccs	0, cr0, [lr], {-0}
    2b80:	1d000023 	stcne	0, cr0, [r0, #-140]	; 0xffffff74
    2b84:	00002344 	andeq	r2, r0, r4, asr #6
    2b88:	00001729 	andeq	r1, r0, r9, lsr #14
    2b8c:	00001727 	andeq	r1, r0, r7, lsr #14
    2b90:	00235022 	eoreq	r5, r3, r2, lsr #32
    2b94:	0085bc00 	addeq	fp, r5, r0, lsl #24
    2b98:	00000400 	andeq	r0, r0, r0, lsl #8
    2b9c:	00290700 	eoreq	r0, r9, r0, lsl #14
    2ba0:	23511d00 	cmpcs	r1, #0, 26
    2ba4:	173e0000 	ldrne	r0, [lr, -r0]!
    2ba8:	173c0000 	ldrne	r0, [ip, -r0]!
    2bac:	26000000 	strcs	r0, [r0], -r0
    2bb0:	000023b7 			; <UNDEFINED> instruction: 0x000023b7
    2bb4:	000085c0 	andeq	r8, r0, r0, asr #11
    2bb8:	85c00003 	strbhi	r0, [r0, #3]
    2bbc:	00040000 	andeq	r0, r4, r0
    2bc0:	9e020000 	cdpls	0, 0, cr0, cr2, cr0, {0}
    2bc4:	00292705 	eoreq	r2, r9, r5, lsl #14
    2bc8:	23c41e00 	biccs	r1, r4, #0, 28
    2bcc:	23000000 	movwcs	r0, #0
    2bd0:	0000235f 	andeq	r2, r0, pc, asr r3
    2bd4:	000085c4 	andeq	r8, r0, r4, asr #11
    2bd8:	00000010 	andeq	r0, r0, r0, lsl r0
    2bdc:	1e059f02 	cdpne	15, 0, cr9, cr5, cr2, {0}
    2be0:	00002378 	andeq	r2, r0, r8, ror r3
    2be4:	00236c1e 	eoreq	r6, r3, lr, lsl ip
    2be8:	23841d00 	orrcs	r1, r4, #0, 26
    2bec:	17530000 	ldrbne	r0, [r3, -r0]
    2bf0:	17510000 	ldrbne	r0, [r1, -r0]
    2bf4:	8e240000 	cdphi	0, 2, cr0, cr4, cr0, {0}
    2bf8:	c4000023 	strgt	r0, [r0], #-35	; 0xffffffdd
    2bfc:	04000085 	streq	r0, [r0], #-133	; 0xffffff7b
    2c00:	1d000000 	stcne	0, cr0, [r0, #-0]
    2c04:	0000238f 	andeq	r2, r0, pc, lsl #7
    2c08:	00001768 	andeq	r1, r0, r8, ror #14
    2c0c:	00001766 	andeq	r1, r0, r6, ror #14
    2c10:	00000000 	andeq	r0, r0, r0
    2c14:	0022771a 	eoreq	r7, r2, sl, lsl r7
    2c18:	0085d400 	addeq	sp, r5, r0, lsl #8
    2c1c:	58000200 	stmdapl	r0, {r9}
    2c20:	0200000c 	andeq	r0, r0, #12, 0
    2c24:	841e09d0 	ldrhi	r0, [lr], #-2512	; 0xfffff630
    2c28:	25000022 	strcs	r0, [r0, #-34]	; 0xffffffde
    2c2c:	000022df 	ldrdeq	r2, [r0], -pc	; <UNPREDICTABLE>
    2c30:	000085d4 	ldrdeq	r8, [r0], -r4
    2c34:	85d40004 	ldrbhi	r0, [r4, #4]
    2c38:	00180000 	andseq	r0, r8, r0
    2c3c:	b9020000 	stmdblt	r2, {}	; <UNPREDICTABLE>
    2c40:	22f81b05 	rscscs	r1, r8, #5120	; 0x1400
    2c44:	177d0000 	ldrbne	r0, [sp, -r0]!
    2c48:	177b0000 	ldrbne	r0, [fp, -r0]!
    2c4c:	ec1e0000 	ldc	0, cr0, [lr], {-0}
    2c50:	1d000022 	stcne	0, cr0, [r0, #-136]	; 0xffffff78
    2c54:	00002304 	andeq	r2, r0, r4, lsl #6
    2c58:	00001795 	muleq	r0, r5, r7
    2c5c:	00001793 	muleq	r0, r3, r7
    2c60:	00231022 	eoreq	r1, r3, r2, lsr #32
    2c64:	0085d400 	addeq	sp, r5, r0, lsl #8
    2c68:	00000400 	andeq	r0, r0, r0, lsl #8
    2c6c:	0029d700 	eoreq	sp, r9, r0, lsl #14
    2c70:	23111d00 	tstcs	r1, #0, 26
    2c74:	17aa0000 	strne	r0, [sl, r0]!
    2c78:	17a80000 	strne	r0, [r8, r0]!
    2c7c:	26000000 	strcs	r0, [r0], -r0
    2c80:	0000239d 	muleq	r0, sp, r3
    2c84:	000085d8 	ldrdeq	r8, [r0], -r8	; <UNPREDICTABLE>
    2c88:	85d80003 	ldrbhi	r0, [r8, #3]
    2c8c:	00040000 	andeq	r0, r4, r0
    2c90:	a6020000 	strge	r0, [r2], -r0
    2c94:	0029f705 	eoreq	pc, r9, r5, lsl #14
    2c98:	23aa1e00 			; <UNDEFINED> instruction: 0x23aa1e00
    2c9c:	23000000 	movwcs	r0, #0
    2ca0:	0000235f 	andeq	r2, r0, pc, asr r3
    2ca4:	000085dc 	ldrdeq	r8, [r0], -ip
    2ca8:	00000010 	andeq	r0, r0, r0, lsl r0
    2cac:	1e05a702 	cdpne	7, 0, cr10, cr5, cr2, {0}
    2cb0:	00002378 	andeq	r2, r0, r8, ror r3
    2cb4:	00236c1e 	eoreq	r6, r3, lr, lsl ip
    2cb8:	23841d00 	orrcs	r1, r4, #0, 26
    2cbc:	17bf0000 	ldrne	r0, [pc, r0]!
    2cc0:	17bd0000 	ldrne	r0, [sp, r0]!
    2cc4:	8e240000 	cdphi	0, 2, cr0, cr4, cr0, {0}
    2cc8:	dc000023 	stcle	0, cr0, [r0], {35}	; 0x23
    2ccc:	04000085 	streq	r0, [r0], #-133	; 0xffffff7b
    2cd0:	1d000000 	stcne	0, cr0, [r0, #-0]
    2cd4:	0000238f 	andeq	r2, r0, pc, lsl #7
    2cd8:	000017d4 	ldrdeq	r1, [r0], -r4
    2cdc:	000017d2 	ldrdeq	r1, [r0], -r2
	...
    2ce8:	86082a00 	strhi	r2, [r8], -r0, lsl #20
    2cec:	153e0000 	ldrne	r0, [lr, #-0]!
    2cf0:	0c2a0000 	stceq	0, cr0, [sl], #-0
    2cf4:	3e000086 	cdpcc	0, 0, cr0, cr0, cr6, {4}
    2cf8:	00000015 	andeq	r0, r0, r5, lsl r0
    2cfc:	0002a23b 	andeq	sl, r2, fp, lsr r2
    2d00:	0002a200 	andeq	sl, r2, r0, lsl #4
    2d04:	077b0400 	ldrbeq	r0, [fp, -r0, lsl #8]!
    2d08:	0002413b 	andeq	r4, r2, fp, lsr r1
    2d0c:	00024100 	andeq	r4, r2, r0, lsl #2
    2d10:	07f20400 	ldrbeq	r0, [r2, r0, lsl #8]!
    2d14:	0000c43b 	andeq	ip, r0, fp, lsr r4
    2d18:	0000c400 	andeq	ip, r0, r0, lsl #8
    2d1c:	061d0600 	ldreq	r0, [sp], -r0, lsl #12
    2d20:	00061900 	andeq	r1, r6, r0, lsl #18
    2d24:	01000500 	tsteq	r0, r0, lsl #10
    2d28:	0004a604 	andeq	sl, r4, r4, lsl #12
    2d2c:	02f81500 	rscseq	r1, r8, #0, 10
    2d30:	e50c0000 	str	r0, [ip, #-0]
    2d34:	2e000003 	cdpcs	0, 0, cr0, cr0, cr3, {0}
    2d38:	20000004 	andcs	r0, r0, r4
    2d3c:	a0000087 	andge	r0, r0, r7, lsl #1
    2d40:	20000001 	andcs	r0, r0, r1
    2d44:	03000011 	movweq	r0, #17
    2d48:	01940708 	orrseq	r0, r4, r8, lsl #14
    2d4c:	04030000 	streq	r0, [r3], #-0
    2d50:	00019e07 	andeq	r9, r1, r7, lsl #28
    2d54:	05041600 	streq	r1, [r4, #-1536]	; 0xfffffa00
    2d58:	00746e69 	rsbseq	r6, r4, r9, ror #28
    2d5c:	00002d17 	andeq	r2, r0, r7, lsl sp
    2d60:	06010300 	streq	r0, [r1], -r0, lsl #6
    2d64:	0000008f 	andeq	r0, r0, pc, lsl #1
    2d68:	d5050203 	strle	r0, [r5, #-515]	; 0xfffffdfd
    2d6c:	03000001 	movweq	r0, #1
    2d70:	01c00504 	biceq	r0, r0, r4, lsl #10
    2d74:	08030000 	stmdaeq	r3, {}	; <UNPREDICTABLE>
    2d78:	0001bb05 	andeq	fp, r1, r5, lsl #22
    2d7c:	08010300 	stmdaeq	r1, {r8, r9}
    2d80:	0000008d 	andeq	r0, r0, sp, lsl #1
    2d84:	a4070203 	strge	r0, [r7], #-515	; 0xfffffdfd
    2d88:	13000000 	movwne	r0, #0
    2d8c:	00000265 	andeq	r0, r0, r5, ror #4
    2d90:	76193402 	ldrvc	r3, [r9], -r2, lsl #8
    2d94:	03000000 	movweq	r0, #0
    2d98:	01990704 	orrseq	r0, r9, r4, lsl #14
    2d9c:	01030000 	mrseq	r0, (UNDEF: 3)
    2da0:	00009608 	andeq	r9, r0, r8, lsl #12
    2da4:	01071800 	tsteq	r7, r0, lsl #16
    2da8:	0000005c 	andeq	r0, r0, ip, asr r0
    2dac:	c30e0c03 	movwgt	r0, #60419	; 0xec03
    2db0:	06000000 	streq	r0, [r0], -r0
    2db4:	00000455 	andeq	r0, r0, r5, asr r4
    2db8:	02dd0600 	sbcseq	r0, sp, #0, 12
    2dbc:	06010000 	streq	r0, [r1], -r0
    2dc0:	0000039a 	muleq	r0, sl, r3
    2dc4:	03a90604 			; <UNDEFINED> instruction: 0x03a90604
    2dc8:	06050000 	streq	r0, [r5], -r0
    2dcc:	000003b8 			; <UNDEFINED> instruction: 0x000003b8
    2dd0:	03c70606 	biceq	r0, r7, #6291456	; 0x600000
    2dd4:	06070000 	streq	r0, [r7], -r0
    2dd8:	0000041f 	andeq	r0, r0, pc, lsl r4
    2ddc:	03d60603 	bicseq	r0, r6, #3145728	; 0x300000
    2de0:	00020000 	andeq	r0, r2, r0
    2de4:	00041313 	andeq	r1, r4, r3, lsl r3
    2de8:	03150300 	tsteq	r5, #0, 6
    2dec:	00000084 	andeq	r0, r0, r4, lsl #1
    2df0:	0000150d 	andeq	r1, r0, sp, lsl #10
    2df4:	003b1d00 	eorseq	r1, fp, r0, lsl #26
    2df8:	001c0000 	andseq	r0, ip, r0
    2dfc:	0b0d2020 	bleq	34ae84 <__bss_end__+0x3409b4>
    2e00:	1e000000 	cdpne	0, 0, cr0, cr0, cr0, {0}
    2e04:	0000003b 	andeq	r0, r0, fp, lsr r0
    2e08:	20200028 	eorcs	r0, r0, r8, lsr #32
    2e0c:	0001ab0d 	andeq	sl, r1, sp, lsl #22
    2e10:	003b1f00 	eorseq	r1, fp, r0, lsl #30
    2e14:	00340000 	eorseq	r0, r4, r0
    2e18:	84192020 	ldrhi	r2, [r9], #-32	; 0xffffffe0
    2e1c:	04000003 	streq	r0, [r0], #-3
    2e20:	011006ad 	tsteq	r0, sp, lsr #13
    2e24:	2d0e0000 	stccs	0, cr0, [lr, #-0]
    2e28:	0e000000 	cdpeq	0, 0, cr0, cr0, cr0, {0}
    2e2c:	0000002d 	andeq	r0, r0, sp, lsr #32
    2e30:	03941a00 	orrseq	r1, r4, #0, 20
    2e34:	c2040000 	andgt	r0, r4, #0, 0
    2e38:	00002d0a 	andeq	r2, r0, sl, lsl #26
    2e3c:	00012600 	andeq	r2, r1, r0, lsl #12
    2e40:	002d0e00 	eoreq	r0, sp, r0, lsl #28
    2e44:	1b000000 	blne	2e4c <__code_start__-0x51b4>
    2e48:	0000038a 	andeq	r0, r0, sl, lsl #7
    2e4c:	34055101 	strcc	r5, [r5], #-257	; 0xfffffeff
    2e50:	98000000 	stmdals	r0, {}	; <UNPREDICTABLE>
    2e54:	28000088 	stmdacs	r0, {r3, r7}
    2e58:	01000000 	mrseq	r0, (UNDEF: 0)
    2e5c:	0001949c 	muleq	r1, ip, r4
    2e60:	69700800 	ldmdbvs	r0!, {fp}^
    2e64:	1851006e 	ldmdane	r1, {r1, r2, r3, r5, r6}^
    2e68:	0000002d 	andeq	r0, r0, sp, lsr #32
    2e6c:	00000012 	andeq	r0, r0, r2, lsl r0
    2e70:	0000000c 	andeq	r0, r0, ip
    2e74:	0004501c 	andeq	r5, r4, ip, lsl r0
    2e78:	0e520100 	rdfeqs	f0, f2, f0
    2e7c:	0000002d 	andeq	r0, r0, sp, lsr #32
    2e80:	00000033 	andeq	r0, r0, r3, lsr r0
    2e84:	0000002b 	andeq	r0, r0, fp, lsr #32
    2e88:	66666f1d 	uqadd16vs	r6, r6, sp
    2e8c:	0e530100 	rdfeqs	f0, f3, f0
    2e90:	0000002d 	andeq	r0, r0, sp, lsr #32
    2e94:	00000075 	andeq	r0, r0, r5, ror r0
    2e98:	0000006f 	andeq	r0, r0, pc, rrx
    2e9c:	0088ac1e 	addeq	sl, r8, lr, lsl ip
    2ea0:	00011000 	andeq	r1, r1, r0
    2ea4:	50010100 	andpl	r0, r1, r0, lsl #2
    2ea8:	3500740a 	strcc	r7, [r0, #-1034]	; 0xfffffbf6
    2eac:	80b42325 	adcshi	r2, r4, r5, lsr #6
    2eb0:	00028180 	andeq	r8, r2, r0, lsl #3
    2eb4:	02d20f00 	sbcseq	r0, r2, #0, 30
    2eb8:	684a0000 	stmdavs	sl, {}^	; <UNPREDICTABLE>
    2ebc:	30000088 	andcc	r0, r0, r8, lsl #1
    2ec0:	01000000 	mrseq	r0, (UNDEF: 0)
    2ec4:	00024b9c 	muleq	r2, ip, fp
    2ec8:	69700800 	ldmdbvs	r0!, {fp}^
    2ecc:	1a4a006e 	bne	128308c <__bss_end__+0x1278bbc>
    2ed0:	0000002d 	andeq	r0, r0, sp, lsr #32
    2ed4:	0000009f 	muleq	r0, pc, r0	; <UNPREDICTABLE>
    2ed8:	00000093 	muleq	r0, r3, r0
    2edc:	4a007608 	bmi	20704 <__bss_end__+0x16234>
    2ee0:	00002d28 	andeq	r2, r0, r8, lsr #26
    2ee4:	0000d400 	andeq	sp, r0, r0, lsl #8
    2ee8:	0000d000 	andeq	sp, r0, r0
    2eec:	035d1f00 	cmpeq	sp, #0, 30
    2ef0:	88780000 	ldmdahi	r8!, {}^	; <UNPREDICTABLE>
    2ef4:	50010000 	andpl	r0, r1, r0
    2ef8:	01000000 	mrseq	r0, (UNDEF: 0)
    2efc:	020b094c 	andeq	r0, fp, #76, 18	; 0x130000
    2f00:	69020000 	stmdbvs	r2, {}	; <UNPREDICTABLE>
    2f04:	ec000003 	stc	0, cr0, [r0], {3}
    2f08:	e6000000 	str	r0, [r0], -r0
    2f0c:	07000000 	streq	r0, [r0, -r0]
    2f10:	00008884 	andeq	r8, r0, r4, lsl #17
    2f14:	000000f9 	strdeq	r0, [r0], -r9
    2f18:	05500101 	ldrbeq	r0, [r0, #-257]	; 0xfffffeff
    2f1c:	20001c0c 	andcs	r1, r0, ip, lsl #24
    2f20:	51010120 	tstpl	r1, r0, lsr #2
    2f24:	01a33105 			; <UNDEFINED> instruction: 0x01a33105
    2f28:	00002450 	andeq	r2, r0, r0, asr r4
    2f2c:	00034420 	andeq	r4, r3, r0, lsr #8
    2f30:	00888400 	addeq	r8, r8, r0, lsl #8
    2f34:	88840200 	stmhi	r4, {r9}
    2f38:	00140000 	andseq	r0, r4, r0
    2f3c:	4e010000 	cdpmi	0, 0, cr0, cr1, cr0, {0}
    2f40:	03500209 	cmpeq	r0, #-1879048192	; 0x90000000
    2f44:	010b0000 	mrseq	r0, (UNDEF: 11)
    2f48:	01050000 	mrseq	r0, (UNDEF: 5)
    2f4c:	90070000 	andls	r0, r7, r0
    2f50:	f9000088 			; <UNDEFINED> instruction: 0xf9000088
    2f54:	01000000 	mrseq	r0, (UNDEF: 0)
    2f58:	0c055001 	stceq	0, cr5, [r5], {1}
    2f5c:	20200028 	eorcs	r0, r0, r8, lsr #32
    2f60:	05510101 	ldrbeq	r0, [r1, #-257]	; 0xfffffeff
    2f64:	5001a331 	andpl	sl, r1, r1, lsr r3
    2f68:	00000024 	andeq	r0, r0, r4, lsr #32
    2f6c:	0003f20f 	andeq	pc, r3, pc, lsl #4
    2f70:	88104500 	ldmdahi	r0, {r8, sl, lr}
    2f74:	00580000 	subseq	r0, r8, r0
    2f78:	9c010000 	stcls	0, cr0, [r1], {-0}
    2f7c:	00000344 	andeq	r0, r0, r4, asr #6
    2f80:	6e697008 	cdpvs	0, 6, cr7, cr9, cr8, {0}
    2f84:	2d1e4500 	cfldr32cs	mvfx4, [lr, #-0]
    2f88:	2a000000 	bcs	2f90 <__code_start__-0x5070>
    2f8c:	24000001 	strcs	r0, [r0], #-1
    2f90:	09000001 	stmdbeq	r0, {r0}
    2f94:	0000046f 	andeq	r0, r0, pc, ror #8
    2f98:	00008810 	andeq	r8, r0, r0, lsl r8
    2f9c:	00003002 	andeq	r3, r0, r2
    2fa0:	0b054600 	bleq	1547a8 <__bss_end__+0x14a2d8>
    2fa4:	00000487 	andeq	r0, r0, r7, lsl #9
    2fa8:	047b0200 	ldrbteq	r0, [fp], #-512	; 0xfffffe00
    2fac:	01490000 	mrseq	r0, (UNDEF: 73)
    2fb0:	01430000 	mrseq	r0, (UNDEF: 67)
    2fb4:	300a0000 	andcc	r0, sl, r0
    2fb8:	04000000 	streq	r0, [r0], #-0
    2fbc:	00000493 	muleq	r0, r3, r4
    2fc0:	00049d04 	andeq	r9, r4, r4, lsl #26
    2fc4:	04a50400 	strteq	r0, [r5], #1024	; 0x400
    2fc8:	6f090000 	svcvs	0x00090000
    2fcc:	18000004 	stmdane	r0, {r2}
    2fd0:	00000088 	andeq	r0, r0, r8, lsl #1
    2fd4:	00000040 	andeq	r0, r0, r0, asr #32
    2fd8:	870b0628 	strhi	r0, [fp, -r8, lsr #12]
    2fdc:	00000004 	andeq	r0, r0, r4
    2fe0:	00047b02 	andeq	r7, r4, r2, lsl #22
    2fe4:	00016800 	andeq	r6, r1, r0, lsl #16
    2fe8:	00016200 	andeq	r6, r1, r0, lsl #4
    2fec:	00400a00 	subeq	r0, r0, r0, lsl #20
    2ff0:	93050000 	movwls	r0, #20480	; 0x5000
    2ff4:	87000004 	strhi	r0, [r0, -r4]
    2ff8:	81000001 	tsthi	r0, r1
    2ffc:	05000001 	streq	r0, [r0, #-1]
    3000:	0000049d 	muleq	r0, sp, r4
    3004:	000001b6 			; <UNDEFINED> instruction: 0x000001b6
    3008:	000001b0 			; <UNDEFINED> instruction: 0x000001b0
    300c:	0004a505 	andeq	sl, r4, r5, lsl #10
    3010:	0001f900 	andeq	pc, r1, r0, lsl #18
    3014:	0001f100 	andeq	pc, r1, r0, lsl #2
    3018:	88401000 	stmdahi	r0, {ip}^
    301c:	01100000 	tsteq	r0, r0
    3020:	030c0000 	movweq	r0, #49152	; 0xc000
    3024:	01010000 	mrseq	r0, (UNDEF: 1)
    3028:	00760250 	rsbseq	r0, r6, r0, asr r2
    302c:	88640700 	stmdahi	r4!, {r8, r9, sl}^
    3030:	00f90000 	rscseq	r0, r9, r0
    3034:	01010000 	mrseq	r0, (UNDEF: 1)
    3038:	01a32550 			; <UNDEFINED> instruction: 0x01a32550
    303c:	a82da850 	stmdage	sp!, {r4, r6, fp, sp, pc}
    3040:	0826a426 	stmdaeq	r6!, {r1, r2, r5, sl, sp, pc}
    3044:	cccccccd 	stclgt	12, cr12, [ip], {205}	; 0xcd
    3048:	00000000 	andeq	r0, r0, r0
    304c:	a820081e 	stmdage	r0!, {r1, r2, r3, r4, fp}
    3050:	2da82526 	cfstr32cs	mvfx2, [r8, #152]!	; 0x98
    3054:	253300a8 	ldrcs	r0, [r3, #-168]!	; 0xffffff58
    3058:	a0808023 	addge	r8, r0, r3, lsr #32
    305c:	00243240 	eoreq	r3, r4, r0, asr #4
    3060:	00000000 	andeq	r0, r0, r0
    3064:	04011100 	streq	r1, [r1], #-256	; 0xffffff00
    3068:	0d400000 	stcleq	0, cr0, [r0, #-0]
    306c:	00035d03 	andeq	r5, r3, r3, lsl #26
    3070:	69700c00 	ldmdbvs	r0!, {sl, fp}^
    3074:	4001006e 	andmi	r0, r1, lr, rrx
    3078:	00002d23 	andeq	r2, r0, r3, lsr #26
    307c:	77110000 	ldrvc	r0, [r1, -r0]
    3080:	3b000004 	blcc	3098 <__code_start__-0x4f68>
    3084:	0376030d 	cmneq	r6, #872415232	; 0x34000000
    3088:	700c0000 	andvc	r0, ip, r0
    308c:	01006e69 	tsteq	r0, r9, ror #28
    3090:	002d223b 	eoreq	r2, sp, fp, lsr r2
    3094:	0f000000 	svceq	0x00000000
    3098:	000000c4 	andeq	r0, r0, r4, asr #1
    309c:	00878436 	addeq	r8, r7, r6, lsr r4
    30a0:	00005c00 	andeq	r5, r0, r0, lsl #24
    30a4:	6f9c0100 	svcvs	0x009c0100
    30a8:	08000004 	stmdaeq	r0, {r2}
    30ac:	006e6970 	rsbeq	r6, lr, r0, ror r9
    30b0:	002d1f36 	eoreq	r1, sp, r6, lsr pc
    30b4:	02400000 	subeq	r0, r0, #0, 0
    30b8:	023c0000 	eorseq	r0, ip, #0, 0
    30bc:	6f090000 	svcvs	0x00090000
    30c0:	84000004 	strhi	r0, [r0], #-4
    30c4:	02000087 	andeq	r0, r0, #135, 0	; 0x87
    30c8:	00000016 	andeq	r0, r0, r6, lsl r0
    30cc:	870b0537 	smladxhi	fp, r7, r5, r0
    30d0:	01000004 	tsteq	r0, r4
    30d4:	00047b02 	andeq	r7, r4, r2, lsl #22
    30d8:	00025500 	andeq	r5, r2, r0, lsl #10
    30dc:	00025100 	andeq	r5, r2, r0, lsl #2
    30e0:	00160a00 	andseq	r0, r6, r0, lsl #20
    30e4:	93040000 	movwls	r0, #16384	; 0x4000
    30e8:	04000004 	streq	r0, [r0], #-4
    30ec:	0000049d 	muleq	r0, sp, r4
    30f0:	0004a504 	andeq	sl, r4, r4, lsl #10
    30f4:	046f0900 	strbteq	r0, [pc], #-2304	; 30fc <__code_start__-0x4f04>
    30f8:	878c0000 	strhi	r0, [ip, r0]
    30fc:	23000000 	movwcs	r0, #0
    3100:	28000000 	stmdacs	r0, {}	; <UNPREDICTABLE>
    3104:	04870b06 	streq	r0, [r7], #2822	; 0xb06
    3108:	02010000 	andeq	r0, r1, #0, 0
    310c:	0000047b 	andeq	r0, r0, fp, ror r4
    3110:	0000026a 	andeq	r0, r0, sl, ror #4
    3114:	00000266 	andeq	r0, r0, r6, ror #4
    3118:	0000230a 	andeq	r2, r0, sl, lsl #6
    311c:	04930500 	ldreq	r0, [r3], #1280	; 0x500
    3120:	027f0000 	rsbseq	r0, pc, #0, 0
    3124:	027b0000 	rsbseq	r0, fp, #0, 0
    3128:	9d050000 	stcls	0, cr0, [r5, #-0]
    312c:	bc000004 	stclt	0, cr0, [r0], {4}
    3130:	b6000002 	strlt	r0, [r0], -r2
    3134:	05000002 	streq	r0, [r0, #-2]
    3138:	000004a5 	andeq	r0, r0, r5, lsr #9
    313c:	000002ff 	strdeq	r0, [r0], -pc	; <UNPREDICTABLE>
    3140:	000002f7 	strdeq	r0, [r0], -r7
    3144:	0087b810 	addeq	fp, r7, r0, lsl r8
    3148:	00011000 	andeq	r1, r1, r0
    314c:	00043700 	andeq	r3, r4, r0, lsl #14
    3150:	50010100 	andpl	r0, r1, r0, lsl #2
    3154:	00007502 	andeq	r7, r0, r2, lsl #10
    3158:	0087dc07 	addeq	sp, r7, r7, lsl #24
    315c:	0000f900 	andeq	pc, r0, r0, lsl #18
    3160:	50010100 	andpl	r0, r1, r0, lsl #2
    3164:	5001a325 	andpl	sl, r1, r5, lsr #6
    3168:	26a82da8 	strtcs	r2, [r8], r8, lsr #27
    316c:	cd0826a4 	stcgt	6, cr2, [r8, #-656]	; 0xfffffd70
    3170:	00cccccc 	sbceq	ip, ip, ip, asr #25
    3174:	1e000000 	cdpne	0, 0, cr0, cr0, cr0, {0}
    3178:	26a82008 	strtcs	r2, [r8], r8
    317c:	a82da825 	stmdage	sp!, {r0, r2, r5, fp, sp, pc}
    3180:	23253300 			; <UNDEFINED> instruction: 0x23253300
    3184:	40a08080 	adcmi	r8, r0, r0, lsl #1
    3188:	00002432 	andeq	r2, r0, r2, lsr r4
    318c:	00000000 	andeq	r0, r0, r0
    3190:	00046511 	andeq	r6, r4, r1, lsl r5
    3194:	01062800 	tsteq	r6, r0, lsl #16
    3198:	000004ae 	andeq	r0, r0, lr, lsr #9
    319c:	6e69700c 	cdpvs	0, 6, cr7, cr9, cr12, {0}
    31a0:	21280100 			; <UNDEFINED> instruction: 0x21280100
    31a4:	0000002d 	andeq	r0, r0, sp, lsr #32
    31a8:	00040e21 	andeq	r0, r4, r1, lsr #28
    31ac:	32280100 	eorcc	r0, r8, #0
    31b0:	000000c3 	andeq	r0, r0, r3, asr #1
    31b4:	66666f12 	uqadd16vs	r6, r6, r2
    31b8:	002d2d00 	eoreq	r2, sp, r0, lsl #26
    31bc:	67120000 	ldrvs	r0, [r2, -r0]
    31c0:	002d2e00 	eoreq	r2, sp, r0, lsl #28
    31c4:	76120000 	ldrvc	r0, [r2], -r0
    31c8:	002d3000 	eoreq	r3, sp, r0
    31cc:	22000000 	andcs	r0, r0, #0, 0
    31d0:	000002ee 	andeq	r0, r0, lr, ror #5
    31d4:	6a18b104 	bvs	62f5ec <__bss_end__+0x62511c>
    31d8:	03000000 	movweq	r0, #0
    31dc:	000004ca 	andeq	r0, r0, sl, asr #9
    31e0:	0400780c 	streq	r7, [r0], #-2060	; 0xfffff7f4
    31e4:	006a2bb1 	strhteq	r2, [sl], #-177	; 0xffffff4f
    31e8:	14000000 	strne	r0, [r0], #-0
    31ec:	0000046f 	andeq	r0, r0, pc, ror #8
    31f0:	00008720 	andeq	r8, r0, r0, lsr #14
    31f4:	00000064 	andeq	r0, r0, r4, rrx
    31f8:	05a69c01 	streq	r9, [r6, #3073]!	; 0xc01
    31fc:	7b020000 	blvc	83204 <__bss_end__+0x78d34>
    3200:	27000004 	strcs	r0, [r0, -r4]
    3204:	23000003 	movwcs	r0, #3
    3208:	02000003 	andeq	r0, r0, #3, 0
    320c:	00000487 	andeq	r0, r0, r7, lsl #9
    3210:	00000339 	andeq	r0, r0, r9, lsr r3
    3214:	00000335 	andeq	r0, r0, r5, lsr r3
    3218:	00049304 	andeq	r9, r4, r4, lsl #6
    321c:	049d0400 	ldreq	r0, [sp], #1024	; 0x400
    3220:	a5040000 	strge	r0, [r4, #-0]
    3224:	09000004 	stmdbeq	r0, {r2}
    3228:	0000046f 	andeq	r0, r0, pc, ror #8
    322c:	00008728 	andeq	r8, r0, r8, lsr #14
    3230:	00000c00 	andeq	r0, r0, r0, lsl #24
    3234:	02062800 	andeq	r2, r6, #0, 16
    3238:	00000487 	andeq	r0, r0, r7, lsl #9
    323c:	0000034b 	andeq	r0, r0, fp, asr #6
    3240:	00000347 	andeq	r0, r0, r7, asr #6
    3244:	00047b02 	andeq	r7, r4, r2, lsl #22
    3248:	00035d00 	andeq	r5, r3, r0, lsl #26
    324c:	00035900 	andeq	r5, r3, r0, lsl #18
    3250:	000c0a00 	andeq	r0, ip, r0, lsl #20
    3254:	93050000 	movwls	r0, #20480	; 0x5000
    3258:	6f000004 	svcvs	0x00000004
    325c:	6b000003 	blvs	3270 <__code_start__-0x4d90>
    3260:	05000003 	streq	r0, [r0, #-3]
    3264:	0000049d 	muleq	r0, sp, r4
    3268:	000003a8 	andeq	r0, r0, r8, lsr #7
    326c:	000003a2 	andeq	r0, r0, r2, lsr #7
    3270:	0004a505 	andeq	sl, r4, r5, lsl #10
    3274:	0003e300 	andeq	lr, r3, r0, lsl #6
    3278:	0003dd00 	andeq	sp, r3, r0, lsl #26
    327c:	87601000 	strbhi	r1, [r0, -r0]!
    3280:	01100000 	tsteq	r0, r0
    3284:	05700000 	ldrbeq	r0, [r0, #-0]!
    3288:	01010000 	mrseq	r0, (UNDEF: 1)
    328c:	00760250 	rsbseq	r0, r6, r0, asr r2
    3290:	87800700 	strhi	r0, [r0, r0, lsl #14]
    3294:	00f90000 	rscseq	r0, r9, r0
    3298:	01010000 	mrseq	r0, (UNDEF: 1)
    329c:	01a32550 			; <UNDEFINED> instruction: 0x01a32550
    32a0:	a82da850 	stmdage	sp!, {r4, r6, fp, sp, pc}
    32a4:	0826a426 	stmdaeq	r6!, {r1, r2, r5, sl, sp, pc}
    32a8:	cccccccd 	stclgt	12, cr12, [ip], {205}	; 0xcd
    32ac:	00000000 	andeq	r0, r0, r0
    32b0:	a820081e 	stmdage	r0!, {r1, r2, r3, r4, fp}
    32b4:	2da82526 	cfstr32cs	mvfx2, [r8, #152]!	; 0x98
    32b8:	253300a8 	ldrcs	r0, [r3, #-168]!	; 0xffffff58
    32bc:	a0808023 	addge	r8, r0, r3, lsr #32
    32c0:	00243240 	eoreq	r3, r4, r0, asr #4
    32c4:	14000000 	strne	r0, [r0], #-0
    32c8:	0000035d 	andeq	r0, r0, sp, asr r3
    32cc:	000087e0 	andeq	r8, r0, r0, ror #15
    32d0:	00000018 	andeq	r0, r0, r8, lsl r0
    32d4:	05e39c01 	strbeq	r9, [r3, #3073]!	; 0xc01
    32d8:	69020000 	stmdbvs	r2, {}	; <UNPREDICTABLE>
    32dc:	04000003 	streq	r0, [r0], #-3
    32e0:	fe000004 	cdp2	0, 0, cr0, cr0, cr4, {0}
    32e4:	07000003 	streq	r0, [r0, -r3]
    32e8:	000087f4 	strdeq	r8, [r0], -r4
    32ec:	000000f9 	strdeq	r0, [r0], -r9
    32f0:	05500101 	ldrbeq	r0, [r0, #-257]	; 0xfffffeff
    32f4:	20001c0c 	andcs	r1, r0, ip, lsl #24
    32f8:	51010120 	tstpl	r1, r0, lsr #2
    32fc:	01a33105 			; <UNDEFINED> instruction: 0x01a33105
    3300:	00002450 	andeq	r2, r0, r0, asr r4
    3304:	00034423 	andeq	r4, r3, r3, lsr #8
    3308:	0087f800 	addeq	pc, r7, r0, lsl #16
    330c:	00001800 	andeq	r1, r0, r0, lsl #16
    3310:	029c0100 	addseq	r0, ip, #0
    3314:	00000350 	andeq	r0, r0, r0, asr r3
    3318:	00000423 	andeq	r0, r0, r3, lsr #8
    331c:	0000041d 	andeq	r0, r0, sp, lsl r4
    3320:	00880c07 	addeq	r0, r8, r7, lsl #24
    3324:	0000f900 	andeq	pc, r0, r0, lsl #18
    3328:	50010100 	andpl	r0, r1, r0, lsl #2
    332c:	00280c05 	eoreq	r0, r8, r5, lsl #24
    3330:	01012020 	tsteq	r1, r0, lsr #32
    3334:	a3310551 	teqge	r1, #339738624	; 0x14400000
    3338:	00245001 	eoreq	r5, r4, r1
    333c:	01400000 	mrseq	r0, (UNDEF: 64)
    3340:	00040000 	andeq	r0, r4, r0
    3344:	000006d2 	ldrdeq	r0, [r0], -r2
    3348:	049a0104 	ldreq	r0, [sl], #260	; 0x104
    334c:	8a0c0000 	bhi	303354 <__bss_end__+0x2f8e84>
    3350:	2e000004 	cdpcs	0, 0, cr0, cr0, cr4, {0}
    3354:	c0000004 	andgt	r0, r0, r4
    3358:	78000088 	stmdavc	r0, {r3, r7}
    335c:	80000000 	andhi	r0, r0, r0
    3360:	02000013 	andeq	r0, r0, #19, 0
    3364:	6e690504 	cdpvs	5, 6, cr0, cr9, cr4, {0}
    3368:	83030074 	movwhi	r0, #12404	; 0x3074
    336c:	03000004 	movweq	r0, #4
    3370:	003817d1 	ldrsbteq	r1, [r8], -r1
    3374:	04040000 	streq	r0, [r4], #-0
    3378:	00019e07 	andeq	r9, r1, r7, lsl #28
    337c:	06010400 	streq	r0, [r1], -r0, lsl #8
    3380:	0000008f 	andeq	r0, r0, pc, lsl #1
    3384:	d5050204 	strle	r0, [r5, #-516]	; 0xfffffdfc
    3388:	04000001 	streq	r0, [r0], #-1
    338c:	01c00504 	biceq	r0, r0, r4, lsl #10
    3390:	08040000 	stmdaeq	r4, {}	; <UNPREDICTABLE>
    3394:	0001bb05 	andeq	fp, r1, r5, lsl #22
    3398:	08010400 	stmdaeq	r1, {sl}
    339c:	0000008d 	andeq	r0, r0, sp, lsl #1
    33a0:	a4070204 	strge	r0, [r7], #-516	; 0xfffffdfc
    33a4:	04000000 	streq	r0, [r0], #-0
    33a8:	01990704 	orrseq	r0, r9, r4, lsl #14
    33ac:	08040000 	stmdaeq	r4, {}	; <UNPREDICTABLE>
    33b0:	00019407 	andeq	r9, r1, r7, lsl #8
    33b4:	00250500 	eoreq	r0, r5, r0, lsl #10
    33b8:	00860000 	addeq	r0, r6, r0
    33bc:	25060000 	strcs	r0, [r6, #-0]
    33c0:	00000000 	andeq	r0, r0, r0
    33c4:	0001c907 	andeq	ip, r1, r7, lsl #18
    33c8:	0e1c0200 	cdpeq	2, 1, cr0, cr12, cr0, {0}
    33cc:	00000092 	muleq	r0, r2, r0
    33d0:	00770408 	rsbseq	r0, r7, r8, lsl #8
    33d4:	25050000 	strcs	r0, [r5, #-0]
    33d8:	a7000000 	strge	r0, [r0, -r0]
    33dc:	06000000 	streq	r0, [r0], -r0
    33e0:	000000a7 	andeq	r0, r0, r7, lsr #1
    33e4:	b4040800 	strlt	r0, [r4], #-2048	; 0xfffff800
    33e8:	04000000 	streq	r0, [r0], #-0
    33ec:	00960801 	addseq	r0, r6, r1, lsl #16
    33f0:	ad090000 	stcge	0, cr0, [r9, #-0]
    33f4:	07000000 	streq	r0, [r0, -r0]
    33f8:	00000598 	muleq	r0, r8, r5
    33fc:	c50e2102 	strgt	r2, [lr, #-258]	; 0xfffffefe
    3400:	08000000 	stmdaeq	r0, {}	; <UNPREDICTABLE>
    3404:	00009804 	andeq	r9, r0, r4, lsl #16
    3408:	02410a00 	subeq	r0, r1, #0, 20
    340c:	04010000 	streq	r0, [r1], #-0
    3410:	00013b07 	andeq	r3, r1, r7, lsl #22
    3414:	0088c000 	addeq	ip, r8, r0
    3418:	00007800 	andeq	r7, r0, r0, lsl #16
    341c:	3b9c0100 	blcc	fe703824 <__bss_end__+0xfe6f9354>
    3420:	0b000001 	bleq	342c <__code_start__-0x4bd4>
    3424:	0100705f 	qaddeq	r7, pc, r0	; <UNPREDICTABLE>
    3428:	013b1404 	teqeq	fp, r4, lsl #8
    342c:	50010000 	andpl	r0, r1, r0
    3430:	0100630c 	tsteq	r0, ip, lsl #6
    3434:	00251c04 	eoreq	r1, r5, r4, lsl #24
    3438:	17eb0000 	strbne	r0, [fp, r0]!
    343c:	17e70000 	strbne	r0, [r7, r0]!
    3440:	6e0c0000 	cdpvs	0, 0, cr0, cr12, cr0, {0}
    3444:	26040100 	strcs	r0, [r4], -r0, lsl #2
    3448:	0000002c 	andeq	r0, r0, ip, lsr #32
    344c:	00001810 	andeq	r1, r0, r0, lsl r8
    3450:	0000180c 	andeq	r1, r0, ip, lsl #16
    3454:	0100700d 	tsteq	r0, sp
    3458:	013d0b05 	teqeq	sp, r5, lsl #22
    345c:	183f0000 	ldmdane	pc!, {}	; <UNPREDICTABLE>
    3460:	18310000 	ldmdane	r1!, {}	; <UNPREDICTABLE>
    3464:	650d0000 	strvs	r0, [sp, #-0]
    3468:	14050100 	strne	r0, [r5], #-256	; 0xffffff00
    346c:	0000013d 	andeq	r0, r0, sp, lsr r1
    3470:	0000189c 	muleq	r0, ip, r8
    3474:	0000189a 	muleq	r0, sl, r8
    3478:	08040e00 	stmdaeq	r4, {r9, sl, fp}
    347c:	0000ad04 	andeq	sl, r0, r4, lsl #26
    3480:	019d0000 	orrseq	r0, sp, r0
    3484:	00040000 	andeq	r0, r4, r0
    3488:	0000079e 	muleq	r0, lr, r7
    348c:	049a0104 	ldreq	r0, [sl], #260	; 0x104
    3490:	750c0000 	strvc	r0, [ip, #-0]
    3494:	2e000005 	cdpcs	0, 0, cr0, cr0, cr5, {0}
    3498:	38000004 	stmdacc	r0, {r2}
    349c:	58000089 	stmdapl	r0, {r0, r3, r7}
    34a0:	a5000000 	strge	r0, [r0, #-0]
    34a4:	02000014 	andeq	r0, r0, #20, 0
    34a8:	00000561 	andeq	r0, r0, r1, ror #10
    34ac:	311b2802 	tstcc	fp, r2, lsl #16
    34b0:	03000000 	movweq	r0, #0
    34b4:	00000585 	andeq	r0, r0, r5, lsl #11
    34b8:	48000404 	stmdami	r0, {r2, sl}
    34bc:	04000000 	streq	r0, [r0], #-0
    34c0:	00000570 	andeq	r0, r0, r0, ror r5
    34c4:	00000048 	andeq	r0, r0, r8, asr #32
    34c8:	04050000 	streq	r0, [r5], #-0
    34cc:	00058702 	andeq	r8, r5, r2, lsl #14
    34d0:	18630200 	stmdane	r3!, {r9}^
    34d4:	00000025 	andeq	r0, r0, r5, lsr #32
    34d8:	69050406 	stmdbvs	r5, {r1, r2, sl}
    34dc:	0700746e 	streq	r7, [r0, -lr, ror #8]
    34e0:	019e0704 	orrseq	r0, lr, r4, lsl #14
    34e4:	01070000 	mrseq	r0, (UNDEF: 7)
    34e8:	00008f06 	andeq	r8, r0, r6, lsl #30
    34ec:	05020700 	streq	r0, [r2, #-1792]	; 0xfffff900
    34f0:	000001d5 	ldrdeq	r0, [r0], -r5
    34f4:	c0050407 	andgt	r0, r5, r7, lsl #8
    34f8:	07000001 	streq	r0, [r0, -r1]
    34fc:	01bb0508 			; <UNDEFINED> instruction: 0x01bb0508
    3500:	01070000 	mrseq	r0, (UNDEF: 7)
    3504:	00008d08 	andeq	r8, r0, r8, lsl #26
    3508:	07020700 	streq	r0, [r2, -r0, lsl #14]
    350c:	000000a4 	andeq	r0, r0, r4, lsr #1
    3510:	99070407 	stmdbls	r7, {r0, r1, r2, sl}
    3514:	07000001 	streq	r0, [r0, -r1]
    3518:	01940708 	orrseq	r0, r4, r8, lsl #14
    351c:	56080000 	strpl	r0, [r8], -r0
    3520:	ab000000 	blge	3528 <__code_start__-0x4ad8>
    3524:	09000000 	stmdbeq	r0, {}	; <UNPREDICTABLE>
    3528:	00000056 	andeq	r0, r0, r6, asr r0
    352c:	01c90a00 	biceq	r0, r9, r0, lsl #20
    3530:	1c030000 	stcne	0, cr0, [r3], {-0}
    3534:	0000b70e 	andeq	fp, r0, lr, lsl #14
    3538:	9c040b00 			; <UNDEFINED> instruction: 0x9c040b00
    353c:	08000000 	stmdaeq	r0, {}	; <UNPREDICTABLE>
    3540:	00000056 	andeq	r0, r0, r6, asr r0
    3544:	000000cc 	andeq	r0, r0, ip, asr #1
    3548:	0000cc09 	andeq	ip, r0, r9, lsl #24
    354c:	040b0000 	streq	r0, [fp], #-0
    3550:	000000d9 	ldrdeq	r0, [r0], -r9
    3554:	96080107 	strls	r0, [r8], -r7, lsl #2
    3558:	0c000000 	stceq	0, cr0, [r0], {-0}
    355c:	000000d2 	ldrdeq	r0, [r0], -r2
    3560:	0005980a 	andeq	r9, r5, sl, lsl #16
    3564:	0e210300 	cdpeq	3, 2, cr0, cr1, cr0, {0}
    3568:	000000ea 	andeq	r0, r0, sl, ror #1
    356c:	00bd040b 	adcseq	r0, sp, fp, lsl #8
    3570:	5a0d0000 	bpl	343578 <__bss_end__+0x3390a8>
    3574:	01000005 	tsteq	r0, r5
    3578:	00560506 	subseq	r0, r6, r6, lsl #10
    357c:	89380000 	ldmdbhi	r8!, {}	; <UNPREDICTABLE>
    3580:	00580000 	subseq	r0, r8, r0
    3584:	9c010000 	stcls	0, cr0, [r1], {-0}
    3588:	00000183 	andeq	r0, r0, r3, lsl #3
    358c:	746d660e 	strbtvc	r6, [sp], #-1550	; 0xfffff9f2
    3590:	18060100 	stmdane	r6, {r8}
    3594:	000000cc 	andeq	r0, r0, ip, asr #1
    3598:	0f709102 	svceq	0x00709102
    359c:	66756210 			; <UNDEFINED> instruction: 0x66756210
    35a0:	11080100 	mrsne	r0, (UNDEF: 24)
    35a4:	00000183 	andeq	r0, r0, r3, lsl #3
    35a8:	a0cc0305 	sbcge	r0, ip, r5, lsl #6
    35ac:	52110000 	andspl	r0, r1, #0, 0
    35b0:	01000005 	tsteq	r0, r5
    35b4:	004a0d09 	subeq	r0, sl, r9, lsl #26
    35b8:	91020000 	mrsls	r0, (UNDEF: 2)
    35bc:	7a73125c 	bvc	1cc7f34 <__bss_end__+0x1cbda64>
    35c0:	0d0c0100 	stfeqs	f0, [ip, #-0]
    35c4:	00000056 	andeq	r0, r0, r6, asr r0
    35c8:	000018b5 			; <UNDEFINED> instruction: 0x000018b5
    35cc:	000018af 	andeq	r1, r0, pc, lsr #17
    35d0:	00896013 	addeq	r6, r9, r3, lsl r0
    35d4:	00019400 	andeq	r9, r1, r0, lsl #8
    35d8:	00017600 	andeq	r7, r1, r0, lsl #12
    35dc:	50011400 	andpl	r1, r1, r0, lsl #8
    35e0:	14007502 	strne	r7, [r0], #-1282	; 0xfffffafe
    35e4:	0a035101 	beq	d79f0 <__bss_end__+0xcd520>
    35e8:	01140400 	tsteq	r4, r0, lsl #8
    35ec:	48910352 	ldmmi	r1, {r1, r4, r6, r8, r9}
    35f0:	53011406 	movwpl	r1, #5126	; 0x1406
    35f4:	004c9102 	subeq	r9, ip, r2, lsl #2
    35f8:	00897415 	addeq	r7, r9, r5, lsl r4
    35fc:	50011400 	andpl	r1, r1, r0, lsl #8
    3600:	00007502 	andeq	r7, r0, r2, lsl #10
    3604:	00d21600 	sbcseq	r1, r2, r0, lsl #12
    3608:	01940000 	orrseq	r0, r4, r0
    360c:	5d170000 	ldcpl	0, cr0, [r7, #-0]
    3610:	ff000000 			; <UNDEFINED> instruction: 0xff000000
    3614:	57180003 	ldrpl	r0, [r8, -r3]
    3618:	57000005 	strpl	r0, [r0, -r5]
    361c:	05000005 	streq	r0, [r0, #-5]
    3620:	f3000502 	vrshl.u8	d0, d2, d0
    3624:	04000000 	streq	r0, [r0], #-0
    3628:	0008e000 	andeq	lr, r8, r0
    362c:	9a010400 	bls	44634 <__bss_end__+0x3a164>
    3630:	0c000004 	stceq	0, cr0, [r0], {4}
    3634:	0000059d 	muleq	r0, sp, r5
    3638:	0000042e 	andeq	r0, r0, lr, lsr #8
    363c:	00008990 	muleq	r0, r0, r9
    3640:	00000038 	andeq	r0, r0, r8, lsr r0
    3644:	000015c9 	andeq	r1, r0, r9, asr #11
    3648:	69050402 	stmdbvs	r5, {r1, sl}
    364c:	0300746e 	movweq	r7, #1134	; 0x46e
    3650:	019e0704 	orrseq	r0, lr, r4, lsl #14
    3654:	01030000 	mrseq	r0, (UNDEF: 3)
    3658:	00008f06 	andeq	r8, r0, r6, lsl #30
    365c:	05020300 	streq	r0, [r2, #-768]	; 0xfffffd00
    3660:	000001d5 	ldrdeq	r0, [r0], -r5
    3664:	c0050403 	andgt	r0, r5, r3, lsl #8
    3668:	03000001 	movweq	r0, #1
    366c:	01bb0508 			; <UNDEFINED> instruction: 0x01bb0508
    3670:	01030000 	mrseq	r0, (UNDEF: 3)
    3674:	00008d08 	andeq	r8, r0, r8, lsl #26
    3678:	07020300 	streq	r0, [r2, -r0, lsl #6]
    367c:	000000a4 	andeq	r0, r0, r4, lsr #1
    3680:	99070403 	stmdbls	r7, {r0, r1, sl}
    3684:	03000001 	movweq	r0, #1
    3688:	01940708 	orrseq	r0, r4, r8, lsl #14
    368c:	25040000 	strcs	r0, [r4, #-0]
    3690:	7a000000 	bvc	3698 <__code_start__-0x4968>
    3694:	05000000 	streq	r0, [r0, #-0]
    3698:	00000025 	andeq	r0, r0, r5, lsr #32
    369c:	01c90600 	biceq	r0, r9, r0, lsl #12
    36a0:	1c020000 	stcne	0, cr0, [r2], {-0}
    36a4:	0000860e 	andeq	r8, r0, lr, lsl #12
    36a8:	6b040700 	blvs	1052b0 <__bss_end__+0xfade0>
    36ac:	04000000 	streq	r0, [r0], #-0
    36b0:	00000025 	andeq	r0, r0, r5, lsr #32
    36b4:	0000009b 	muleq	r0, fp, r0
    36b8:	00009b05 	andeq	r9, r0, r5, lsl #22
    36bc:	04070000 	streq	r0, [r7], #-0
    36c0:	000000a8 	andeq	r0, r0, r8, lsr #1
    36c4:	96080103 	strls	r0, [r8], -r3, lsl #2
    36c8:	08000000 	stmdaeq	r0, {}	; <UNPREDICTABLE>
    36cc:	000000a1 	andeq	r0, r0, r1, lsr #1
    36d0:	00059806 	andeq	r9, r5, r6, lsl #16
    36d4:	0e210200 	cdpeq	2, 2, cr0, cr1, cr0, {0}
    36d8:	000000b9 	strheq	r0, [r0], -r9
    36dc:	008c0407 	addeq	r0, ip, r7, lsl #8
    36e0:	ad090000 	stcge	0, cr0, [r9, #-0]
    36e4:	01000000 	mrseq	r0, (UNDEF: 0)
    36e8:	0305070c 	movweq	r0, #22284	; 0x570c
    36ec:	0000a0b8 	strheq	sl, [r0], -r8
    36f0:	00058f0a 	andeq	r8, r5, sl, lsl #30
    36f4:	05040100 	streq	r0, [r4, #-256]	; 0xffffff00
    36f8:	00000025 	andeq	r0, r0, r5, lsr #32
    36fc:	00008990 	muleq	r0, r0, r9
    3700:	00000038 	andeq	r0, r0, r8, lsr r0
    3704:	700b9c01 	andvc	r9, fp, r1, lsl #24
    3708:	1f040100 	svcne	0x00040100
    370c:	0000009b 	muleq	r0, fp, r0
    3710:	000018e6 	andeq	r1, r0, r6, ror #17
    3714:	000018de 	ldrdeq	r1, [r0], -lr
    3718:	0c7f0000 	ldcleq	0, cr0, [pc], #-0	; 3720 <__code_start__-0x48e0>
    371c:	00040000 	andeq	r0, r4, r0
    3720:	0000097e 	andeq	r0, r0, lr, ror r9
    3724:	049a0104 	ldreq	r0, [sl], #260	; 0x104
    3728:	bc0c0000 	stclt	0, cr0, [ip], {-0}
    372c:	2e000005 	cdpcs	0, 0, cr0, cr0, cr5, {0}
    3730:	c8000004 	stmdagt	r0, {r2}
    3734:	b4000089 	strlt	r0, [r0], #-137	; 0xffffff77
    3738:	6d000009 	stcvs	0, cr0, [r0, #-36]	; 0xffffffdc
    373c:	02000016 	andeq	r0, r0, #22, 0
    3740:	01940708 	orrseq	r0, r4, r8, lsl #14
    3744:	04020000 	streq	r0, [r2], #-0
    3748:	00019e07 	andeq	r9, r1, r7, lsl #28
    374c:	05040300 	streq	r0, [r4, #-768]	; 0xfffffd00
    3750:	00746e69 	rsbseq	r6, r4, r9, ror #28
    3754:	8f060102 	svchi	0x00060102
    3758:	02000000 	andeq	r0, r0, #0, 0
    375c:	01d50502 	bicseq	r0, r5, r2, lsl #10
    3760:	04020000 	streq	r0, [r2], #-0
    3764:	0001c005 	andeq	ip, r1, r5
    3768:	05080200 	streq	r0, [r8, #-512]	; 0xfffffe00
    376c:	000001bb 			; <UNDEFINED> instruction: 0x000001bb
    3770:	8d080102 	stfhis	f0, [r8, #-8]
    3774:	02000000 	andeq	r0, r0, #0, 0
    3778:	00a40702 	adceq	r0, r4, r2, lsl #14
    377c:	65040000 	strvs	r0, [r4, #-0]
    3780:	02000002 	andeq	r0, r0, #2, 0
    3784:	00701934 	rsbseq	r1, r0, r4, lsr r9
    3788:	04020000 	streq	r0, [r2], #-0
    378c:	00019907 	andeq	r9, r1, r7, lsl #18
    3790:	05b30400 	ldreq	r0, [r3, #1024]!	; 0x400
    3794:	37020000 	strcc	r0, [r2, -r0]
    3798:	00002519 	andeq	r2, r0, r9, lsl r5
    379c:	00330500 	eorseq	r0, r3, r0, lsl #10
    37a0:	00920000 	addseq	r0, r2, r0
    37a4:	33060000 	movwcc	r0, #24576	; 0x6000
    37a8:	00000000 	andeq	r0, r0, r0
    37ac:	0001c907 	andeq	ip, r1, r7, lsl #18
    37b0:	0e1c0300 	cdpeq	3, 1, cr0, cr12, cr0, {0}
    37b4:	0000009e 	muleq	r0, lr, r0
    37b8:	00830408 	addeq	r0, r3, r8, lsl #8
    37bc:	33050000 	movwcc	r0, #20480	; 0x5000
    37c0:	b3000000 	movwlt	r0, #0
    37c4:	06000000 	streq	r0, [r0], -r0
    37c8:	000000b3 	strheq	r0, [r0], -r3
    37cc:	c0040800 	andgt	r0, r4, r0, lsl #16
    37d0:	02000000 	andeq	r0, r0, #0, 0
    37d4:	00960801 	addseq	r0, r6, r1, lsl #16
    37d8:	b9090000 	stmdblt	r9, {}	; <UNPREDICTABLE>
    37dc:	07000000 	streq	r0, [r0, -r0]
    37e0:	00000598 	muleq	r0, r8, r5
    37e4:	d10e2103 	tstle	lr, r3, lsl #2
    37e8:	08000000 	stmdaeq	r0, {}	; <UNPREDICTABLE>
    37ec:	0000a404 	andeq	sl, r0, r4, lsl #8
    37f0:	05cf0700 	strbeq	r0, [pc, #1792]	; 3ef8 <__code_start__-0x4108>
    37f4:	0b040000 	bleq	1037fc <__bss_end__+0xf932c>
    37f8:	0000b90d 	andeq	fp, r0, sp, lsl #18
    37fc:	06690700 	strbteq	r0, [r9], -r0, lsl #14
    3800:	0c040000 	stceq	0, cr0, [r4], {-0}
    3804:	0000b90d 	andeq	fp, r0, sp, lsl #18
    3808:	05de0700 	ldrbeq	r0, [lr, #1792]	; 0x700
    380c:	0d040000 	stceq	0, cr0, [r4, #-0]
    3810:	0000b90d 	andeq	fp, r0, sp, lsl #18
    3814:	06210700 	strteq	r0, [r1], -r0, lsl #14
    3818:	0e040000 	cdpeq	0, 0, cr0, cr4, cr0, {0}
    381c:	0000b90d 	andeq	fp, r0, sp, lsl #18
    3820:	06920700 	ldreq	r0, [r2], r0, lsl #14
    3824:	0f040000 	svceq	0x00040000
    3828:	0000b90d 	andeq	fp, r0, sp, lsl #18
    382c:	060c0700 	streq	r0, [ip], -r0, lsl #14
    3830:	10040000 	andne	r0, r4, r0
    3834:	0000b90d 	andeq	fp, r0, sp, lsl #18
    3838:	06a10700 	strteq	r0, [r1], r0, lsl #14
    383c:	11040000 	mrsne	r0, (UNDEF: 4)
    3840:	0000b90d 	andeq	fp, r0, sp, lsl #18
    3844:	062d0700 	strteq	r0, [sp], -r0, lsl #14
    3848:	12040000 	andne	r0, r4, #0, 0
    384c:	0000b90d 	andeq	fp, r0, sp, lsl #18
    3850:	05610400 	strbeq	r0, [r1, #-1024]!	; 0xfffffc00
    3854:	28050000 	stmdacs	r5, {}	; <UNPREDICTABLE>
    3858:	0001431b 	andeq	r4, r1, fp, lsl r3
    385c:	05850a00 	streq	r0, [r5, #2560]	; 0xa00
    3860:	06040000 	streq	r0, [r4], -r0
    3864:	00015a00 	andeq	r5, r1, r0, lsl #20
    3868:	05700b00 	ldrbeq	r0, [r0, #-2816]!	; 0xfffff500
    386c:	015a0000 	cmpeq	sl, r0
    3870:	00000000 	andeq	r0, r0, r0
    3874:	8704040c 	strhi	r0, [r4, -ip, lsl #8]
    3878:	05000005 	streq	r0, [r0, #-5]
    387c:	01371863 	teqeq	r7, r3, ror #16
    3880:	570d0000 	strpl	r0, [sp, -r0]
    3884:	01000005 	tsteq	r0, r5
    3888:	00330581 	eorseq	r0, r3, r1, lsl #11
    388c:	8d500000 	ldclhi	0, cr0, [r0, #-0]
    3890:	062c0000 	strteq	r0, [ip], -r0
    3894:	9c010000 	stcls	0, cr0, [r1], {-0}
    3898:	0000086a 	andeq	r0, r0, sl, ror #16
    389c:	6675620e 	ldrbtvs	r6, [r5], -lr, lsl #4
    38a0:	15810100 	strne	r0, [r1, #256]	; 0x100
    38a4:	0000086a 	andeq	r0, r0, sl, ror #16
    38a8:	00001926 	andeq	r1, r0, r6, lsr #18
    38ac:	0000191c 	andeq	r1, r0, ip, lsl r9
    38b0:	01006e0e 	tsteq	r0, lr, lsl #28
    38b4:	00331e81 	eorseq	r1, r3, r1, lsl #29
    38b8:	19730000 	ldmdbne	r3!, {}^	; <UNPREDICTABLE>
    38bc:	196b0000 	stmdbne	fp!, {}^	; <UNPREDICTABLE>
    38c0:	660e0000 	strvs	r0, [lr], -r0
    38c4:	0100746d 	tsteq	r0, sp, ror #8
    38c8:	00b32d81 	adcseq	r2, r3, r1, lsl #27
    38cc:	19c50000 	stmibne	r5, {}^	; <UNPREDICTABLE>
    38d0:	19ad0000 	stmibne	sp!, {}	; <UNPREDICTABLE>
    38d4:	520f0000 	andpl	r0, pc, #0, 0
    38d8:	01000005 	tsteq	r0, r5
    38dc:	015c3a81 	cmpeq	ip, r1, lsl #21
    38e0:	1a890000 	bne	fe2438e8 <__bss_end__+0xfe239418>
    38e4:	1a590000 	bne	16438ec <__bss_end__+0x163941c>
    38e8:	70100000 	andsvc	r0, r0, r0
    38ec:	08820100 	stmeq	r2, {r8}
    38f0:	0000086a 	andeq	r0, r0, sl, ror #16
    38f4:	00001be7 	andeq	r1, r0, r7, ror #23
    38f8:	00001bd1 	ldrdeq	r1, [r0], -r1	; <UNPREDICTABLE>
    38fc:	01006510 	tsteq	r0, r0, lsl r5
    3900:	086a1282 	stmdaeq	sl!, {r1, r7, r9, ip}^
    3904:	1c700000 	ldclne	0, cr0, [r0], #-0
    3908:	1c6e0000 	stclne	0, cr0, [lr], #-0
    390c:	78100000 	ldmdavc	r0, {}	; <UNPREDICTABLE>
    3910:	83010030 	movwhi	r0, #4144	; 0x1030
    3914:	0000640e 	andeq	r6, r0, lr, lsl #8
    3918:	001c8900 	andseq	r8, ip, r0, lsl #18
    391c:	001c8300 	andseq	r8, ip, r0, lsl #6
    3920:	31781000 	cmncc	r8, r0
    3924:	11830100 	orrne	r0, r3, r0, lsl #2
    3928:	00000064 	andeq	r0, r0, r4, rrx
    392c:	00001cb8 			; <UNDEFINED> instruction: 0x00001cb8
    3930:	00001cb2 			; <UNDEFINED> instruction: 0x00001cb2
    3934:	00064b11 	andeq	r4, r6, r1, lsl fp
    3938:	11860100 	orrne	r0, r6, r0, lsl #2
    393c:	000000b3 	strheq	r0, [r0], -r3
    3940:	00001ce9 	andeq	r1, r0, r9, ror #25
    3944:	00001ce1 	andeq	r1, r0, r1, ror #25
    3948:	0005f212 	andeq	pc, r5, r2, lsl r2	; <UNPREDICTABLE>
    394c:	00088000 	andeq	r8, r8, r0
    3950:	a4030500 	strge	r0, [r3], #-1280	; 0xfffffb00
    3954:	1300009e 	movwne	r0, #158	; 0x9e
    3958:	000010c0 	andeq	r1, r0, r0, asr #1
    395c:	01007310 	tsteq	r0, r0, lsl r3
    3960:	086a0a91 	stmdaeq	sl!, {r0, r4, r7, r9, fp}^
    3964:	1d2f0000 	stcne	0, cr0, [pc, #-0]	; 396c <__code_start__-0x4694>
    3968:	1d230000 	stcne	0, cr0, [r3, #-0]
    396c:	6e140000 	cdpvs	0, 1, cr0, cr4, cr0, {0}
    3970:	01006d75 	tsteq	r0, r5, ror sp
    3974:	08850d91 	stmeq	r5, {r0, r4, r7, r8, sl, fp}
    3978:	91030000 	mrsls	r0, (UNDEF: 3)
    397c:	ae157dd8 	mrcge	13, 0, r7, cr5, cr8, {6}
    3980:	01000006 	tsteq	r0, r6
    3984:	08851791 	stmeq	r5, {r0, r4, r7, r8, r9, sl, ip}
    3988:	91030000 	mrsls	r0, (UNDEF: 3)
    398c:	ec117ed8 	ldc	14, cr7, [r1], {216}	; 0xd8
    3990:	01000005 	tsteq	r0, r5
    3994:	002c0d92 	mlaeq	ip, r2, sp, r0
    3998:	1d810000 	stcne	0, cr0, [r1]
    399c:	1d790000 	ldclne	0, cr0, [r9, #-0]
    39a0:	e8160000 	ldmda	r6, {}	; <UNPREDICTABLE>
    39a4:	f1000010 	cps	#16
    39a8:	10000004 	andne	r0, r0, r4
    39ac:	01007974 	tsteq	r0, r4, ror r9
    39b0:	00b31d9e 	umlalseq	r1, r3, lr, sp
    39b4:	1dc20000 	stclne	0, cr0, [r2]
    39b8:	1db60000 	ldcne	0, cr0, [r6]
    39bc:	78140000 	ldmdavc	r4, {}	; <UNPREDICTABLE>
    39c0:	a2010078 	andge	r0, r1, #120, 0	; 0x78
    39c4:	0000771a 	andeq	r7, r0, sl, lsl r7
    39c8:	93590600 	cmpls	r9, #0, 12
    39cc:	04935b04 	ldreq	r5, [r3], #2820	; 0xb04
    39d0:	008edc17 	addeq	sp, lr, r7, lsl ip
    39d4:	000c3a00 	andeq	r3, ip, r0, lsl #20
    39d8:	0002d800 	andeq	sp, r2, r0, lsl #16
    39dc:	50011800 	andpl	r1, r1, r0, lsl #16
    39e0:	18007602 	stmdane	r0, {r1, r9, sl, ip, sp, lr}
    39e4:	03055101 	movweq	r5, #20737	; 0x5101
    39e8:	00009d98 	muleq	r0, r8, sp
    39ec:	01520118 	cmpeq	r2, r8, lsl r1
    39f0:	f4170033 			; <UNDEFINED> instruction: 0xf4170033
    39f4:	3a00008e 	bcc	3c34 <__code_start__-0x43cc>
    39f8:	fa00000c 	blx	3a30 <__code_start__-0x45d0>
    39fc:	18000002 	stmdane	r0, {r1}
    3a00:	76025001 	strvc	r5, [r2], -r1
    3a04:	51011800 	tstpl	r1, r0, lsl #16
    3a08:	9dac0305 	stcls	3, cr0, [ip, #20]!
    3a0c:	01180000 	tsteq	r8, r0
    3a10:	00330152 	eorseq	r0, r3, r2, asr r1
    3a14:	008f1817 	addeq	r1, pc, r7, lsl r8	; <UNPREDICTABLE>
    3a18:	000c4600 	andeq	r4, ip, r0, lsl #12
    3a1c:	00031700 	andeq	r1, r3, r0, lsl #14
    3a20:	50011800 	andpl	r1, r1, r0, lsl #16
    3a24:	9d9c0305 	ldcls	3, cr0, [ip, #20]
    3a28:	01180000 	tsteq	r8, r0
    3a2c:	007b0251 	rsbseq	r0, fp, r1, asr r2
    3a30:	8f241700 	svchi	0x00241700
    3a34:	0c460000 	mareq	acc0, r0, r6
    3a38:	03340000 	teqeq	r4, #0, 0
    3a3c:	01180000 	tsteq	r8, r0
    3a40:	a4030550 	strge	r0, [r3], #-1360	; 0xfffffab0
    3a44:	1800009d 	stmdane	r0, {r0, r2, r3, r4, r7}
    3a48:	79025101 	stmdbvc	r2, {r0, r8, ip, lr}
    3a4c:	34170000 	ldrcc	r0, [r7], #-0
    3a50:	3a00008f 	bcc	3c94 <__code_start__-0x436c>
    3a54:	5600000c 	strpl	r0, [r0], -ip
    3a58:	18000003 	stmdane	r0, {r0, r1}
    3a5c:	76025001 	strvc	r5, [r2], -r1
    3a60:	51011800 	tstpl	r1, r0, lsl #16
    3a64:	9d980305 	ldcls	3, cr0, [r8, #20]
    3a68:	01180000 	tsteq	r8, r0
    3a6c:	00330152 	eorseq	r0, r3, r2, asr r1
    3a70:	008f6417 	addeq	r6, pc, r7, lsl r4	; <UNPREDICTABLE>
    3a74:	000aa400 	andeq	sl, sl, r0, lsl #8
    3a78:	00038300 	andeq	r8, r3, r0, lsl #6
    3a7c:	50011800 	andpl	r1, r1, r0, lsl #16
    3a80:	01184001 	tsteq	r8, r1
    3a84:	d0910351 	addsle	r0, r1, r1, asr r3
    3a88:	5201187d 	andpl	r1, r1, #8192000	; 0x7d0000
    3a8c:	18007b02 	stmdane	r0, {r1, r8, r9, fp, ip, sp, lr}
    3a90:	75025301 	strvc	r5, [r2, #-769]	; 0xfffffcff
    3a94:	7d021800 	stcvc	8, cr1, [r2, #-0]
    3a98:	00760200 	rsbseq	r0, r6, r0, lsl #4
    3a9c:	8f841700 	svchi	0x00841700
    3aa0:	0aa40000 	beq	fe903aa8 <__bss_end__+0xfe8f95d8>
    3aa4:	03aa0000 			; <UNDEFINED> instruction: 0x03aa0000
    3aa8:	01180000 	tsteq	r8, r0
    3aac:	18400150 	stmdane	r0, {r4, r6, r8}^
    3ab0:	91035101 	tstls	r3, r1, lsl #2
    3ab4:	01187ed0 			; <UNDEFINED> instruction: 0x01187ed0
    3ab8:	00790252 	rsbseq	r0, r9, r2, asr r2
    3abc:	007d0218 	rsbseq	r0, sp, r8, lsl r2
    3ac0:	00007602 	andeq	r7, r0, r2, lsl #12
    3ac4:	008f9417 	addeq	r9, pc, r7, lsl r4	; <UNPREDICTABLE>
    3ac8:	000c5200 	andeq	r5, ip, r0, lsl #4
    3acc:	0003c600 	andeq	ip, r3, r0, lsl #12
    3ad0:	50011800 	andpl	r1, r1, r0, lsl #16
    3ad4:	7dd09103 	ldfvcp	f1, [r0, #12]
    3ad8:	03510118 	cmpeq	r1, #6
    3adc:	007ed291 			; <UNDEFINED> instruction: 0x007ed291
    3ae0:	0091d817 	addseq	sp, r1, r7, lsl r8
    3ae4:	000c3a00 	andeq	r3, ip, r0, lsl #20
    3ae8:	0003e800 	andeq	lr, r3, r0, lsl #16
    3aec:	50011800 	andpl	r1, r1, r0, lsl #16
    3af0:	18007602 	stmdane	r0, {r1, r9, sl, ip, sp, lr}
    3af4:	03055101 	movweq	r5, #20737	; 0x5101
    3af8:	00009dac 	andeq	r9, r0, ip, lsr #27
    3afc:	01520118 	cmpeq	r2, r8, lsl r1
    3b00:	fc170033 	ldc2	0, cr0, [r7], {51}	; 0x33
    3b04:	a4000091 	strge	r0, [r0], #-145	; 0xffffff6f
    3b08:	1500000a 	strne	r0, [r0, #-10]
    3b0c:	18000004 	stmdane	r0, {r2}
    3b10:	3a015001 	bcc	57b1c <__bss_end__+0x4d64c>
    3b14:	03510118 	cmpeq	r1, #6
    3b18:	187dd091 	ldmdane	sp!, {r0, r4, r7, ip, lr, pc}^
    3b1c:	7b025201 	blvc	98328 <__bss_end__+0x8de58>
    3b20:	53011800 	movwpl	r1, #6144	; 0x1800
    3b24:	18007502 	stmdane	r0, {r1, r8, sl, ip, sp, lr}
    3b28:	02007d02 	andeq	r7, r0, #128	; 0x80
    3b2c:	17000076 	smlsdxne	r0, r6, r0, r0
    3b30:	0000921c 	andeq	r9, r0, ip, lsl r2
    3b34:	00000aa4 	andeq	r0, r0, r4, lsr #21
    3b38:	0000043c 	andeq	r0, r0, ip, lsr r4
    3b3c:	01500118 	cmpeq	r0, r8, lsl r1
    3b40:	5101183a 	tstpl	r1, sl, lsr r8
    3b44:	7ed09103 	atnvcs	f1, f3
    3b48:	02520118 	subseq	r0, r2, #6
    3b4c:	02180079 	andseq	r0, r8, #121, 0	; 0x79
    3b50:	7602007d 			; <UNDEFINED> instruction: 0x7602007d
    3b54:	28170000 	ldmdacs	r7, {}	; <UNPREDICTABLE>
    3b58:	5e000092 	mcrpl	0, 0, r0, cr0, cr2, {4}
    3b5c:	5a00000c 	bpl	3b94 <__code_start__-0x446c>
    3b60:	18000004 	stmdane	r0, {r2}
    3b64:	91035001 	tstls	r3, r1
    3b68:	01187dd0 			; <UNDEFINED> instruction: 0x01187dd0
    3b6c:	5c030551 	cfstr32pl	mvfx0, [r3], {81}	; 0x51
    3b70:	0000009d 	muleq	r0, sp, r0
    3b74:	00923c17 	addseq	r3, r2, r7, lsl ip
    3b78:	000c6a00 	andeq	r6, ip, r0, lsl #20
    3b7c:	00047600 	andeq	r7, r4, r0, lsl #12
    3b80:	50011800 	andpl	r1, r1, r0, lsl #16
    3b84:	7dd09103 	ldfvcp	f1, [r0, #12]
    3b88:	03510118 	cmpeq	r1, #6
    3b8c:	007ed091 			; <UNDEFINED> instruction: 0x007ed091
    3b90:	00924819 	addseq	r4, r2, r9, lsl r8
    3b94:	000c5200 	andeq	r5, ip, r0, lsl #4
    3b98:	930c1700 	movwls	r1, #50944	; 0xc700
    3b9c:	0c460000 	mareq	acc0, r0, r6
    3ba0:	04a80000 	strteq	r0, [r8], #0
    3ba4:	01180000 	tsteq	r8, r0
    3ba8:	48030550 	stmdami	r3, {r4, r6, r8, sl}
    3bac:	1800009d 	stmdane	r0, {r0, r2, r3, r4, r7}
    3bb0:	03055101 	movweq	r5, #20737	; 0x5101
    3bb4:	00009d34 	andeq	r9, r0, r4, lsr sp
    3bb8:	05520118 	ldrbeq	r0, [r2, #-280]	; 0xfffffee8
    3bbc:	009ea403 	addseq	sl, lr, r3, lsl #8
    3bc0:	10190000 	andsne	r0, r9, r0
    3bc4:	76000093 			; <UNDEFINED> instruction: 0x76000093
    3bc8:	1700000c 	strne	r0, [r0, -ip]
    3bcc:	00009328 	andeq	r9, r0, r8, lsr #6
    3bd0:	00000c46 	andeq	r0, r0, r6, asr #24
    3bd4:	000004e7 	andeq	r0, r0, r7, ror #9
    3bd8:	05500118 	ldrbeq	r0, [r0, #-280]	; 0xfffffee8
    3bdc:	009dec03 	addseq	lr, sp, r3, lsl #24
    3be0:	51011800 	tstpl	r1, r0, lsl #16
    3be4:	9d340305 	ldcls	3, cr0, [r4, #-20]!	; 0xffffffec
    3be8:	01180000 	tsteq	r8, r0
    3bec:	a4030552 	strge	r0, [r3], #-1362	; 0xfffffaae
    3bf0:	1800009e 	stmdane	r0, {r1, r2, r3, r4, r7}
    3bf4:	08025301 	stmdaeq	r2, {r0, r8, r9, ip, lr}
    3bf8:	7d0218b6 	stcvc	8, cr1, [r2, #-728]	; 0xfffffd28
    3bfc:	00760200 	rsbseq	r0, r6, r0, lsl #4
    3c00:	932c1900 			; <UNDEFINED> instruction: 0x932c1900
    3c04:	0c760000 	ldcleq	0, cr0, [r6], #-0
    3c08:	1a000000 	bne	3c10 <__code_start__-0x43f0>
    3c0c:	000009e3 	andeq	r0, r0, r3, ror #19
    3c10:	00008ddc 	ldrdeq	r8, [r0], -ip
    3c14:	11100004 	tstne	r0, r4
    3c18:	94010000 	strls	r0, [r1], #-0
    3c1c:	0005150a 	andeq	r1, r5, sl, lsl #10
    3c20:	09f41b00 	ldmibeq	r4!, {r8, r9, fp, ip}^
    3c24:	1e1e0000 	cdpne	0, 1, cr0, cr14, cr0, {0}
    3c28:	1e1a0000 	cdpne	0, 1, cr0, cr10, cr0, {0}
    3c2c:	1a000000 	bne	3c34 <__code_start__-0x43cc>
    3c30:	00000895 	muleq	r0, r5, r8
    3c34:	00008fc4 	andeq	r8, r0, r4, asr #31
    3c38:	11300001 	teqne	r0, r1
    3c3c:	dc010000 	stcle	0, cr0, [r1], {-0}
    3c40:	00064b09 	andeq	r4, r6, r9, lsl #22
    3c44:	08be1b00 	ldmeq	lr!, {r8, r9, fp, ip}
    3c48:	1e4c0000 	cdpne	0, 4, cr0, cr12, cr0, {0}
    3c4c:	1e460000 	cdpne	0, 4, cr0, cr6, cr0, {0}
    3c50:	e01b0000 	ands	r0, fp, r0
    3c54:	81000008 	tsthi	r0, r8
    3c58:	7b00001e 	blvc	3cd8 <__code_start__-0x4328>
    3c5c:	1b00001e 	blne	3cdc <__code_start__-0x4324>
    3c60:	000008d4 	ldrdeq	r0, [r0], -r4
    3c64:	00001eb3 			; <UNDEFINED> instruction: 0x00001eb3
    3c68:	00001ead 	andeq	r1, r0, sp, lsr #29
    3c6c:	0008c81c 	andeq	ip, r8, ip, lsl r8
    3c70:	08b21b00 	ldmeq	r2!, {r8, r9, fp, ip}
    3c74:	1ee40000 	cdpne	0, 14, cr0, cr4, cr0, {0}
    3c78:	1edc0000 	cdpne	0, 13, cr0, cr12, cr0, {0}
    3c7c:	a61b0000 	ldrge	r0, [fp], -r0
    3c80:	27000008 	strcs	r0, [r0, -r8]
    3c84:	2100001f 	tstcs	r0, pc, lsl r0
    3c88:	1300001f 	movwne	r0, #31
    3c8c:	00001130 	andeq	r1, r0, r0, lsr r1
    3c90:	0008ec1d 	andeq	lr, r8, sp, lsl ip
    3c94:	d8910300 	ldmle	r1, {r8, r9}
    3c98:	08f81e7e 	ldmeq	r8!, {r1, r2, r3, r4, r5, r6, r9, sl, fp, ip}^
    3c9c:	1f610000 	svcne	0x00610000
    3ca0:	1f530000 	svcne	0x00530000
    3ca4:	021f0000 	andseq	r0, pc, #0, 0
    3ca8:	1a000009 	bne	3cd4 <__code_start__-0x432c>
    3cac:	000009a3 	andeq	r0, r0, r3, lsr #19
    3cb0:	00008fd0 	ldrdeq	r8, [r0], -r0
    3cb4:	11600004 	cmnne	r0, r4
    3cb8:	7c010000 	stcvc	0, cr0, [r1], {-0}
    3cbc:	0005e209 	andeq	lr, r5, r9, lsl #4
    3cc0:	09ca1b00 	stmibeq	sl, {r8, r9, fp, ip}^
    3cc4:	1fcb0000 	svcne	0x00cb0000
    3cc8:	1fc50000 	svcne	0x00c50000
    3ccc:	be1b0000 	cdplt	0, 1, cr0, cr11, cr0, {0}
    3cd0:	00000009 	andeq	r0, r0, r9
    3cd4:	f4000020 	vst4.8	{d0-d3}, [r0 :128], r0
    3cd8:	1b00001f 	blne	3d5c <__code_start__-0x42a4>
    3cdc:	000009b4 			; <UNDEFINED> instruction: 0x000009b4
    3ce0:	00002066 	andeq	r2, r0, r6, rrx
    3ce4:	00002056 	andeq	r2, r0, r6, asr r0
    3ce8:	00116013 	andseq	r6, r1, r3, lsl r0
    3cec:	09d61e00 	ldmibeq	r6, {r9, sl, fp, ip}^
    3cf0:	20e30000 	rsccs	r0, r3, r0
    3cf4:	20d50000 	sbcscs	r0, r5, r0
    3cf8:	00000000 	andeq	r0, r0, r0
    3cfc:	00094f20 	andeq	r4, r9, r0, lsr #30
    3d00:	00909800 	addseq	r9, r0, r0, lsl #16
    3d04:	90000200 	andls	r0, r0, r0, lsl #4
    3d08:	01000011 	tsteq	r0, r1, lsl r0
    3d0c:	801b097c 	andshi	r0, fp, ip, ror r9
    3d10:	43000009 	movwmi	r0, #9
    3d14:	3d000021 	stccc	0, cr0, [r0, #-132]	; 0xffffff7c
    3d18:	1b000021 	blne	3da4 <__code_start__-0x425c>
    3d1c:	00000976 	andeq	r0, r0, r6, ror r9
    3d20:	00002179 	andeq	r2, r0, r9, ror r1
    3d24:	0000216f 	andeq	r2, r0, pc, ror #2
    3d28:	00096c1b 	andeq	r6, r9, fp, lsl ip
    3d2c:	0021c800 	eoreq	ip, r1, r0, lsl #16
    3d30:	0021c400 	eoreq	ip, r1, r0, lsl #8
    3d34:	09601b00 	stmdbeq	r0!, {r8, r9, fp, ip}^
    3d38:	21f80000 	mvnscs	r0, r0
    3d3c:	21ea0000 	mvncs	r0, r0
    3d40:	90130000 	andsls	r0, r3, r0
    3d44:	1e000011 	mcrne	0, 0, r0, cr0, cr1, {0}
    3d48:	0000098c 	andeq	r0, r0, ip, lsl #19
    3d4c:	0000225d 	andeq	r2, r0, sp, asr r2
    3d50:	0000225b 	andeq	r2, r0, fp, asr r2
    3d54:	0009981e 	andeq	r9, r9, lr, lsl r8
    3d58:	00227700 	eoreq	r7, r2, r0, lsl #14
    3d5c:	00227100 	eoreq	r7, r2, r0, lsl #2
    3d60:	00000000 	andeq	r0, r0, r0
    3d64:	08951a00 	ldmeq	r5, {r9, fp, ip}
    3d68:	90d40000 	sbcsls	r0, r4, r0
    3d6c:	00000000 	andeq	r0, r0, r0
    3d70:	000011c0 	andeq	r1, r0, r0, asr #3
    3d74:	8909d601 	stmdbhi	r9, {r0, r9, sl, ip, lr, pc}
    3d78:	1b000007 	blne	3d9c <__code_start__-0x4264>
    3d7c:	000008be 			; <UNDEFINED> instruction: 0x000008be
    3d80:	000022aa 	andeq	r2, r0, sl, lsr #5
    3d84:	000022a6 	andeq	r2, r0, r6, lsr #5
    3d88:	0008e01b 	andeq	lr, r8, fp, lsl r0
    3d8c:	0022d000 	eoreq	sp, r2, r0
    3d90:	0022cc00 	eoreq	ip, r2, r0, lsl #24
    3d94:	08d41b00 	ldmeq	r4, {r8, r9, fp, ip}^
    3d98:	22f40000 	rscscs	r0, r4, #0, 0
    3d9c:	22f00000 	rscscs	r0, r0, #0, 0
    3da0:	c81c0000 	ldmdagt	ip, {}	; <UNPREDICTABLE>
    3da4:	1b000008 	blne	3dcc <__code_start__-0x4234>
    3da8:	000008b2 			; <UNDEFINED> instruction: 0x000008b2
    3dac:	00002318 	andeq	r2, r0, r8, lsl r3
    3db0:	00002312 	andeq	r2, r0, r2, lsl r3
    3db4:	0008a61b 	andeq	sl, r8, fp, lsl r6
    3db8:	00234b00 	eoreq	r4, r3, r0, lsl #22
    3dbc:	00234700 	eoreq	r4, r3, r0, lsl #14
    3dc0:	11c01300 	bicne	r1, r0, r0, lsl #6
    3dc4:	ec1d0000 	ldc	0, cr0, [sp], {-0}
    3dc8:	03000008 	movweq	r0, #8
    3dcc:	1e7ed891 	mrcne	8, 3, sp, cr14, cr1, {4}
    3dd0:	000008f8 	strdeq	r0, [r0], -r8
    3dd4:	00002375 	andeq	r2, r0, r5, ror r3
    3dd8:	0000236b 	andeq	r2, r0, fp, ror #6
    3ddc:	0009021e 	andeq	r0, r9, lr, lsl r2
    3de0:	0023ba00 	eoreq	fp, r3, r0, lsl #20
    3de4:	0023b600 	eoreq	fp, r3, r0, lsl #12
    3de8:	09a31a00 	stmibeq	r3!, {r9, fp, ip}
    3dec:	90f00000 	rscsls	r0, r0, r0
    3df0:	00030000 	andeq	r0, r3, r0
    3df4:	000011e0 	andeq	r1, r0, r0, ror #3
    3df8:	20097c01 	andcs	r7, r9, r1, lsl #24
    3dfc:	1b000007 	blne	3e20 <__code_start__-0x41e0>
    3e00:	000009ca 	andeq	r0, r0, sl, asr #19
    3e04:	000023dc 	ldrdeq	r2, [r0], -ip
    3e08:	000023d8 	ldrdeq	r2, [r0], -r8
    3e0c:	0009be1b 	andeq	fp, r9, fp, lsl lr
    3e10:	0023fe00 	eoreq	pc, r3, r0, lsl #28
    3e14:	0023fa00 	eoreq	pc, r3, r0, lsl #20
    3e18:	09b41b00 	ldmibeq	r4!, {r8, r9, fp, ip}
    3e1c:	24280000 	strtcs	r0, [r8], #-0
    3e20:	241c0000 	ldrcs	r0, [ip], #-0
    3e24:	e0130000 	ands	r0, r3, r0
    3e28:	1e000011 	mcrne	0, 0, r0, cr0, cr1, {0}
    3e2c:	000009d6 	ldrdeq	r0, [r0], -r6
    3e30:	00002484 	andeq	r2, r0, r4, lsl #9
    3e34:	00002478 	andeq	r2, r0, r8, ror r4
    3e38:	4f200000 	svcmi	0x00200000
    3e3c:	78000009 	stmdavc	r0, {r0, r3}
    3e40:	02000091 	andeq	r0, r0, #145, 0	; 0x91
    3e44:	00120800 	andseq	r0, r2, r0, lsl #16
    3e48:	097c0100 	ldmdbeq	ip!, {r8}^
    3e4c:	0009801b 	andeq	r8, r9, fp, lsl r0
    3e50:	0024d400 	eoreq	sp, r4, r0, lsl #8
    3e54:	0024d000 	eoreq	sp, r4, r0
    3e58:	09761b00 	ldmdbeq	r6!, {r8, r9, fp, ip}^
    3e5c:	24fc0000 	ldrbtcs	r0, [ip], #0
    3e60:	24f20000 	ldrbtcs	r0, [r2], #0
    3e64:	6c1b0000 	ldcvs	0, cr0, [fp], {-0}
    3e68:	48000009 	stmdami	r0, {r0, r3}
    3e6c:	44000025 	strmi	r0, [r0], #-37	; 0xffffffdb
    3e70:	1b000025 	blne	3f0c <__code_start__-0x40f4>
    3e74:	00000960 	andeq	r0, r0, r0, ror #18
    3e78:	00002576 	andeq	r2, r0, r6, ror r5
    3e7c:	0000256a 	andeq	r2, r0, sl, ror #10
    3e80:	00120813 	andseq	r0, r2, r3, lsl r8
    3e84:	098c1e00 	stmibeq	ip, {r9, sl, fp, ip}
    3e88:	25d00000 	ldrbcs	r0, [r0]
    3e8c:	25cc0000 	strbcs	r0, [ip]
    3e90:	981e0000 	ldmdals	lr, {}	; <UNPREDICTABLE>
    3e94:	f6000009 			; <UNDEFINED> instruction: 0xf6000009
    3e98:	f2000025 	vhadd.s8	d0, d0, d21
    3e9c:	00000025 	andeq	r0, r0, r5, lsr #32
    3ea0:	17000000 	strne	r0, [r0, -r0]
    3ea4:	00008ea4 	andeq	r8, r0, r4, lsr #29
    3ea8:	00000aa4 	andeq	r0, r0, r4, lsr #21
    3eac:	000007af 	andeq	r0, r0, pc, lsr #15
    3eb0:	01500118 	cmpeq	r0, r8, lsl r1
    3eb4:	51011840 	tstpl	r1, r0, asr #16
    3eb8:	7dd09103 	ldfvcp	f1, [r0, #12]
    3ebc:	02530118 	subseq	r0, r3, #6
    3ec0:	02180075 	andseq	r0, r8, #117, 0	; 0x75
    3ec4:	3001007d 	andcc	r0, r1, sp, ror r0
    3ec8:	8fb41700 	svchi	0x00b41700
    3ecc:	0aa40000 	beq	fe903ed4 <__bss_end__+0xfe8f9a04>
    3ed0:	07cf0000 	strbeq	r0, [pc, r0]
    3ed4:	01180000 	tsteq	r8, r0
    3ed8:	183a0150 	ldmdane	sl!, {r4, r6, r8}
    3edc:	91035101 	tstls	r3, r1, lsl #2
    3ee0:	01187dd0 			; <UNDEFINED> instruction: 0x01187dd0
    3ee4:	00750253 	rsbseq	r0, r5, r3, asr r2
    3ee8:	92981700 	addsls	r1, r8, #0, 14
    3eec:	0c460000 	mareq	acc0, r0, r6
    3ef0:	07e60000 	strbeq	r0, [r6, r0]!
    3ef4:	01180000 	tsteq	r8, r0
    3ef8:	3c030550 	cfstr32cc	mvfx0, [r3], {80}	; 0x50
    3efc:	0000009e 	muleq	r0, lr, r0
    3f00:	0092a821 	addseq	sl, r2, r1, lsr #16
    3f04:	0007f800 	andeq	pc, r7, r0, lsl #16
    3f08:	50011800 	andpl	r1, r1, r0, lsl #16
    3f0c:	7dc89104 	stfvcp	f1, [r8, #16]
    3f10:	bc170006 	ldclt	0, cr0, [r7], {6}
    3f14:	46000092 			; <UNDEFINED> instruction: 0x46000092
    3f18:	2700000c 	strcs	r0, [r0, -ip]
    3f1c:	18000008 	stmdane	r0, {r3}
    3f20:	03055001 	movweq	r5, #20481	; 0x5001
    3f24:	00009e6c 	andeq	r9, r0, ip, ror #28
    3f28:	05510118 	ldrbeq	r0, [r1, #-280]	; 0xfffffee8
    3f2c:	009d3403 	addseq	r3, sp, r3, lsl #8
    3f30:	52011800 	andpl	r1, r1, #0, 16
    3f34:	9ea40305 	cdpls	3, 10, cr0, cr4, cr5, {0}
    3f38:	01180000 	tsteq	r8, r0
    3f3c:	e2080253 	and	r0, r8, #805306373	; 0x30000005
    3f40:	92c01900 	sbcls	r1, r0, #0, 18
    3f44:	0c760000 	ldcleq	0, cr0, [r6], #-0
    3f48:	d4170000 	ldrle	r0, [r7], #-0
    3f4c:	46000092 			; <UNDEFINED> instruction: 0x46000092
    3f50:	5f00000c 	svcpl	0x0000000c
    3f54:	18000008 	stmdane	r0, {r3}
    3f58:	03055001 	movweq	r5, #20481	; 0x5001
    3f5c:	00009e14 	andeq	r9, r0, r4, lsl lr
    3f60:	05510118 	ldrbeq	r0, [r1, #-280]	; 0xfffffee8
    3f64:	009d3403 	addseq	r3, sp, r3, lsl #8
    3f68:	52011800 	andpl	r1, r1, #0, 16
    3f6c:	9ea40305 	cdpls	3, 10, cr0, cr4, cr5, {0}
    3f70:	01180000 	tsteq	r8, r0
    3f74:	be080253 	mcrlt	2, 0, r0, cr8, cr3, {2}
    3f78:	92d81900 	sbcsls	r1, r8, #0, 18
    3f7c:	0c760000 	ldcleq	0, cr0, [r6], #-0
    3f80:	00000000 	andeq	r0, r0, r0
    3f84:	00b90408 	adcseq	r0, r9, r8, lsl #8
    3f88:	c0220000 	eorgt	r0, r2, r0
    3f8c:	80000000 	andhi	r0, r0, r0
    3f90:	23000008 	movwcs	r0, #8
    3f94:	0000002c 	andeq	r0, r0, ip, lsr #32
    3f98:	70090009 	andvc	r0, r9, r9
    3f9c:	22000008 	andcs	r0, r0, #8, 0
    3fa0:	000000b9 	strheq	r0, [r0], -r9
    3fa4:	00000895 	muleq	r0, r5, r8
    3fa8:	00002c23 	andeq	r2, r0, r3, lsr #24
    3fac:	24007f00 	strcs	r7, [r0], #-3840	; 0xfffff100
    3fb0:	00000676 	andeq	r0, r0, r6, ror r6
    3fb4:	6a014901 	bvs	563c0 <__bss_end__+0x4bef0>
    3fb8:	01000008 	tsteq	r0, r8
    3fbc:	0000092a 	andeq	r0, r0, sl, lsr #18
    3fc0:	0006bb25 	andeq	fp, r6, r5, lsr #22
    3fc4:	0f490100 	svceq	0x00490100
    3fc8:	0000002c 	andeq	r0, r0, ip, lsr #32
    3fcc:	74736426 	ldrbtvc	r6, [r3], #-1062	; 0xfffffbda
    3fd0:	1b490100 	blne	12443d8 <__bss_end__+0x1239f08>
    3fd4:	0000086a 	andeq	r0, r0, sl, ror #16
    3fd8:	01006e26 	tsteq	r0, r6, lsr #28
    3fdc:	00332449 	eorseq	r2, r3, r9, asr #8
    3fe0:	76260000 	strtvc	r0, [r6], -r0
    3fe4:	01006c61 	tsteq	r0, r1, ror #24
    3fe8:	00332b49 	eorseq	r2, r3, r9, asr #22
    3fec:	ec250000 	stc	0, cr0, [r5], #-0
    3ff0:	01000005 	tsteq	r0, r5
    3ff4:	00333449 	eorseq	r3, r3, r9, asr #8
    3ff8:	c0250000 	eorgt	r0, r5, r0
    3ffc:	01000006 	tsteq	r0, r6
    4000:	00333f49 	eorseq	r3, r3, r9, asr #30
    4004:	62270000 	eorvs	r0, r7, #0, 0
    4008:	01006675 	tsteq	r0, r5, ror r6
    400c:	092a074e 	stmdbeq	sl!, {r1, r2, r3, r6, r8, r9, sl}
    4010:	70270000 	eorvc	r0, r7, r0
    4014:	114e0100 	mrsne	r0, (UNDEF: 94)
    4018:	0000086a 	andeq	r0, r0, sl, ror #16
    401c:	01007527 	tsteq	r0, r7, lsr #10
    4020:	002c0b4f 	eoreq	r0, ip, pc, asr #22
    4024:	f2120000 	vhadd.s16	d0, d2, d0
    4028:	4a000005 	bmi	4044 <__code_start__-0x3fbc>
    402c:	05000009 	streq	r0, [r0, #-9]
    4030:	009e8c03 	addseq	r8, lr, r3, lsl #24
    4034:	63292800 			; <UNDEFINED> instruction: 0x63292800
    4038:	01000006 	tsteq	r0, r6
    403c:	002c0d54 	eoreq	r0, ip, r4, asr sp
    4040:	00000000 	andeq	r0, r0, r0
    4044:	0000b922 	andeq	fp, r0, r2, lsr #18
    4048:	00093a00 	andeq	r3, r9, r0, lsl #20
    404c:	002c2300 	eoreq	r2, ip, r0, lsl #6
    4050:	003f0000 	eorseq	r0, pc, r0
    4054:	0000c022 	andeq	ip, r0, r2, lsr #32
    4058:	00094a00 	andeq	r4, r9, r0, lsl #20
    405c:	002c2300 	eoreq	r2, ip, r0, lsl #6
    4060:	00040000 	andeq	r0, r4, r0
    4064:	00093a09 	andeq	r3, r9, r9, lsl #20
    4068:	067b2400 	ldrbteq	r2, [fp], -r0, lsl #8
    406c:	38010000 	stmdacc	r1, {}	; <UNPREDICTABLE>
    4070:	00086a0e 	andeq	r6, r8, lr, lsl #20
    4074:	09a30100 	stmibeq	r3!, {r8}
    4078:	64260000 	strtvs	r0, [r6], #-0
    407c:	01007473 	tsteq	r0, r3, ror r4
    4080:	086a1c38 	stmdaeq	sl!, {r3, r4, r5, sl, fp, ip}^
    4084:	6e260000 	cdpvs	0, 2, cr0, cr6, cr0, {0}
    4088:	25380100 	ldrcs	r0, [r8, #-256]!	; 0xffffff00
    408c:	00000033 	andeq	r0, r0, r3, lsr r0
    4090:	01007026 	tsteq	r0, r6, lsr #32
    4094:	086a2e38 	stmdaeq	sl!, {r3, r4, r5, r9, sl, fp, sp}^
    4098:	d9250000 	stmdble	r5!, {}	; <UNPREDICTABLE>
    409c:	01000009 	tsteq	r0, r9
    40a0:	086a3738 	stmdaeq	sl!, {r3, r4, r5, r8, r9, sl, ip, sp}^
    40a4:	6c270000 	stcvs	0, cr0, [r7], #-0
    40a8:	01006e65 	tsteq	r0, r5, ror #28
    40ac:	0033063a 	eorseq	r0, r3, sl, lsr r6
    40b0:	73270000 			; <UNDEFINED> instruction: 0x73270000
    40b4:	083e0100 	ldmdaeq	lr!, {r8}
    40b8:	0000086a 	andeq	r0, r0, sl, ror #16
    40bc:	61702a00 	cmnvs	r0, r0, lsl #20
    40c0:	2e010064 	cdpcs	0, 0, cr0, cr1, cr4, {3}
    40c4:	00086a0e 	andeq	r6, r8, lr, lsl #20
    40c8:	09e30100 	stmibeq	r3!, {r8}^
    40cc:	70260000 	eorvc	r0, r6, r0
    40d0:	182e0100 	stmdane	lr!, {r8}
    40d4:	0000086a 	andeq	r0, r0, sl, ror #16
    40d8:	0006bb25 	andeq	fp, r6, r5, lsr #22
    40dc:	222e0100 	eorcs	r0, lr, #0
    40e0:	0000086a 	andeq	r0, r0, sl, ror #16
    40e4:	0005ec25 	andeq	lr, r5, r5, lsr #24
    40e8:	2c2e0100 	stfcss	f0, [lr], #-0
    40ec:	00000033 	andeq	r0, r0, r3, lsr r0
    40f0:	6e656c27 	cdpvs	12, 6, cr6, cr5, cr7, {1}
    40f4:	062f0100 	strteq	r0, [pc], -r0, lsl #2
    40f8:	00000033 	andeq	r0, r0, r3, lsr r0
    40fc:	05ab2400 	streq	r2, [fp, #1024]!	; 0x400
    4100:	27010000 	strcs	r0, [r1, -r0]
    4104:	0000330c 	andeq	r3, r0, ip, lsl #6
    4108:	09ff0100 	ldmibeq	pc!, {r8}^	; <UNPREDICTABLE>
    410c:	63260000 			; <UNDEFINED> instruction: 0x63260000
    4110:	18270100 	stmdane	r7!, {r8}
    4114:	00000033 	andeq	r0, r0, r3, lsr r0
    4118:	063c2b00 	ldrteq	r2, [ip], -r0, lsl #22
    411c:	1f010000 	svcne	0x00010000
    4120:	008cf006 	addeq	pc, ip, r6
    4124:	00006000 	andeq	r6, r0, r0
    4128:	8f9c0100 	svchi	0x009c0100
    412c:	0f00000a 	svceq	0x0000000a
    4130:	00000619 	andeq	r0, r0, r9, lsl r6
    4134:	9e1b1f01 	cdpls	15, 1, cr1, cr11, cr1, {0}
    4138:	1b000000 	blne	4140 <__code_start__-0x3ec0>
    413c:	17000026 	strne	r0, [r0, -r6, lsr #32]
    4140:	0f000026 	svceq	0x00000026
    4144:	0000068a 	andeq	r0, r0, sl, lsl #13
    4148:	d1301f01 	teqle	r0, r1, lsl #30
    414c:	40000000 	andmi	r0, r0, r0
    4150:	3c000026 	stccc	0, cr0, [r0], {38}	; 0x26
    4154:	12000026 	andne	r0, r0, #38, 0	; 0x26
    4158:	000005f2 	strdeq	r0, [r0], -r2
    415c:	00000a9f 	muleq	r0, pc, sl	; <UNPREDICTABLE>
    4160:	9e940305 	cdpls	3, 9, cr0, cr4, cr5, {0}
    4164:	34170000 	ldrcc	r0, [r7], #-0
    4168:	4600008d 	strmi	r0, [r0], -sp, lsl #1
    416c:	8500000c 	strhi	r0, [r0, #-12]
    4170:	1800000a 	stmdane	r0, {r1, r3}
    4174:	03055001 	movweq	r5, #20481	; 0x5001
    4178:	00009d48 	andeq	r9, r0, r8, asr #26
    417c:	05510118 	ldrbeq	r0, [r1, #-280]	; 0xfffffee8
    4180:	009d3403 	addseq	r3, sp, r3, lsl #8
    4184:	52011800 	andpl	r1, r1, #0, 16
    4188:	9e940305 	cdpls	3, 9, cr0, cr4, cr5, {0}
    418c:	01180000 	tsteq	r8, r0
    4190:	20080253 	andcs	r0, r8, r3, asr r2
    4194:	007d0218 	rsbseq	r0, sp, r8, lsl r2
    4198:	9d840305 	stcls	3, cr0, [r4, #20]
    419c:	19000000 	stmdbne	r0, {}	; <UNPREDICTABLE>
    41a0:	00008d38 	andeq	r8, r0, r8, lsr sp
    41a4:	00000c76 	andeq	r0, r0, r6, ror ip
    41a8:	00c02200 	sbceq	r2, r0, r0, lsl #4
    41ac:	0a9f0000 	beq	fe7c41b4 <__bss_end__+0xfe7b9ce4>
    41b0:	2c230000 	stccs	0, cr0, [r3], #-0
    41b4:	0e000000 	cdpeq	0, 0, cr0, cr0, cr0, {0}
    41b8:	0a8f0900 	beq	fe3c65c0 <__bss_end__+0xfe3bc0f0>
    41bc:	952c0000 	strls	r0, [ip, #-0]!
    41c0:	c8000008 	stmdagt	r0, {r3}
    41c4:	28000089 	stmdacs	r0, {r0, r3, r7}
    41c8:	01000003 	tsteq	r0, r3
    41cc:	000c3a9c 	muleq	ip, ip, sl
    41d0:	08a61b00 	stmiaeq	r6!, {r8, r9, fp, ip}
    41d4:	26790000 	ldrbtcs	r0, [r9], -r0
    41d8:	26610000 	strbtcs	r0, [r1], -r0
    41dc:	b21b0000 	andslt	r0, fp, #0, 0
    41e0:	23000008 	movwcs	r0, #8
    41e4:	1b000027 	blne	4288 <__code_start__-0x3d78>
    41e8:	1b000027 	blne	428c <__code_start__-0x3d74>
    41ec:	000008c8 	andeq	r0, r0, r8, asr #17
    41f0:	0000277a 	andeq	r2, r0, sl, ror r7
    41f4:	0000275a 	andeq	r2, r0, sl, asr r7
    41f8:	0008d41b 	andeq	sp, r8, fp, lsl r4
    41fc:	00285000 	eoreq	r5, r8, r0
    4200:	00284200 	eoreq	r4, r8, r0, lsl #4
    4204:	08e02d00 	stmiaeq	r0!, {r8, sl, fp, sp}^
    4208:	91020000 	mrsls	r0, (UNDEF: 2)
    420c:	08ec1d00 	stmiaeq	ip!, {r8, sl, fp, ip}^
    4210:	91030000 	mrsls	r0, (UNDEF: 3)
    4214:	f81e7fa8 			; <UNDEFINED> instruction: 0xf81e7fa8
    4218:	e4000008 	str	r0, [r0], #-8
    421c:	b0000028 	andlt	r0, r0, r8, lsr #32
    4220:	1e000028 	cdpne	0, 0, cr0, cr0, cr8, {1}
    4224:	00000902 	andeq	r0, r0, r2, lsl #18
    4228:	00002a4b 	andeq	r2, r0, fp, asr #20
    422c:	00002a29 	andeq	r2, r0, r9, lsr #20
    4230:	0008be2e 	andeq	fp, r8, lr, lsr #28
    4234:	a31a8000 	tstge	sl, #0, 0
    4238:	6c000009 	stcvs	0, cr0, [r0], {9}
    423c:	0400008a 	streq	r0, [r0], #-138	; 0xffffff76
    4240:	00105800 	andseq	r5, r0, r0, lsl #16
    4244:	097c0100 	ldmdbeq	ip!, {r8}^
    4248:	00000b6d 	andeq	r0, r0, sp, ror #22
    424c:	0009ca1b 	andeq	ip, r9, fp, lsl sl
    4250:	002b3300 	eoreq	r3, fp, r0, lsl #6
    4254:	002b2900 	eoreq	r2, fp, r0, lsl #18
    4258:	09be1b00 	ldmibeq	lr!, {r8, r9, fp, ip}
    425c:	2b870000 	blcs	fe1c4264 <__bss_end__+0xfe1b9d94>
    4260:	2b770000 	blcs	1dc4268 <__bss_end__+0x1db9d98>
    4264:	b41b0000 	ldrlt	r0, [fp], #-0
    4268:	07000009 	streq	r0, [r0, -r9]
    426c:	f300002c 	vhadd.u8	d0, d0, d28
    4270:	1300002b 	movwne	r0, #43	; 0x2b
    4274:	00001058 	andeq	r1, r0, r8, asr r0
    4278:	0009d61e 	andeq	sp, r9, lr, lsl r6
    427c:	002c9900 	eoreq	r9, ip, r0, lsl #18
    4280:	002c8900 	eoreq	r8, ip, r0, lsl #18
    4284:	1a000000 	bne	428c <__code_start__-0x3d74>
    4288:	0000094f 	andeq	r0, r0, pc, asr #18
    428c:	00008b24 	andeq	r8, r0, r4, lsr #22
    4290:	10a00002 	adcne	r0, r0, r2
    4294:	7c010000 	stcvc	0, cr0, [r1], {-0}
    4298:	000bd809 	andeq	sp, fp, r9, lsl #16
    429c:	09801b00 	stmibeq	r0, {r8, r9, fp, ip}
    42a0:	2d050000 	stccs	0, cr0, [r5, #-0]
    42a4:	2cfd0000 	ldclcs	0, cr0, [sp]
    42a8:	761b0000 	ldrvc	r0, [fp], -r0
    42ac:	44000009 	strmi	r0, [r0], #-9
    42b0:	3c00002d 	stccc	0, cr0, [r0], {45}	; 0x2d
    42b4:	1b00002d 	blne	4370 <__code_start__-0x3c90>
    42b8:	0000096c 	andeq	r0, r0, ip, ror #18
    42bc:	00002d83 	andeq	r2, r0, r3, lsl #27
    42c0:	00002d7f 	andeq	r2, r0, pc, ror sp
    42c4:	0009601b 	andeq	r6, r9, fp, lsl r0
    42c8:	002db300 	eoreq	fp, sp, r0, lsl #6
    42cc:	002da500 	eoreq	sl, sp, r0, lsl #10
    42d0:	10a01300 	adcne	r1, r0, r0, lsl #6
    42d4:	8c1e0000 	ldchi	0, cr0, [lr], {-0}
    42d8:	18000009 	stmdane	r0, {r0, r3}
    42dc:	1200002e 	andne	r0, r0, #46, 0	; 0x2e
    42e0:	1e00002e 	cdpne	0, 0, cr0, cr0, cr14, {1}
    42e4:	00000998 	muleq	r0, r8, r9
    42e8:	00002e4a 	andeq	r2, r0, sl, asr #28
    42ec:	00002e46 	andeq	r2, r0, r6, asr #28
    42f0:	1b2f0000 	blne	bc42f8 <__bss_end__+0xbb9e28>
    42f4:	dc000009 	stcle	0, cr0, [r0], {9}
    42f8:	6000008b 	andvs	r0, r0, fp, lsl #1
    42fc:	f7000000 			; <UNDEFINED> instruction: 0xf7000000
    4300:	1e00000b 	cdpne	0, 0, cr0, cr0, cr11, {0}
    4304:	0000091c 	andeq	r0, r0, ip, lsl r9
    4308:	00002e6c 	andeq	r2, r0, ip, ror #28
    430c:	00002e68 	andeq	r2, r0, r8, ror #28
    4310:	8cb01700 	ldchi	7, cr1, [r0]
    4314:	0c460000 	mareq	acc0, r0, r6
    4318:	0c300000 	ldceq	0, cr0, [r0], #-0
    431c:	01180000 	tsteq	r8, r0
    4320:	48030550 	stmdami	r3, {r4, r6, r8, sl}
    4324:	1800009d 	stmdane	r0, {r0, r2, r3, r4, r7}
    4328:	03055101 	movweq	r5, #20737	; 0x5101
    432c:	00009d34 	andeq	r9, r0, r4, lsr sp
    4330:	05520118 	ldrbeq	r0, [r2, #-280]	; 0xfffffee8
    4334:	009e8c03 	addseq	r8, lr, r3, lsl #24
    4338:	53011800 	movwpl	r1, #6144	; 0x1800
    433c:	18790802 	ldmdane	r9!, {r1, fp}^
    4340:	05007d02 	streq	r7, [r0, #-3330]	; 0xfffff2fe
    4344:	009d5c03 	addseq	r5, sp, r3, lsl #24
    4348:	b4190000 	ldrlt	r0, [r9], #-0
    434c:	7600008c 	strvc	r0, [r0], -ip, lsl #1
    4350:	0000000c 	andeq	r0, r0, ip
    4354:	0006b330 	andeq	fp, r6, r0, lsr r3
    4358:	0006b300 	andeq	fp, r6, r0, lsl #6
    435c:	05eb0300 	strbeq	r0, [fp, #768]!	; 0x300
    4360:	00055a30 	andeq	r5, r5, r0, lsr sl
    4364:	00055a00 	andeq	r5, r5, r0, lsl #20
    4368:	06280300 	strteq	r0, [r8], -r0, lsl #6
    436c:	00065530 	andeq	r5, r6, r0, lsr r5
    4370:	00065500 	andeq	r5, r6, r0, lsl #10
    4374:	07ee0300 	strbeq	r0, [lr, r0, lsl #6]!
    4378:	00068330 	andeq	r8, r6, r0, lsr r3
    437c:	00068300 	andeq	r8, r6, r0, lsl #6
    4380:	05ea0300 	strbeq	r0, [sl, #768]!	; 0x300
    4384:	00065c30 	andeq	r5, r6, r0, lsr ip
    4388:	00065c00 	andeq	r5, r6, r0, lsl #24
    438c:	07ed0300 	strbeq	r0, [sp, r0, lsl #6]!
    4390:	0005ff30 	andeq	pc, r5, r0, lsr pc	; <UNPREDICTABLE>
    4394:	0005ff00 	andeq	pc, r5, r0, lsl #30
    4398:	066e0300 	strbteq	r0, [lr], -r0, lsl #6
    439c:	00010a00 	andeq	r0, r1, r0, lsl #20
    43a0:	21000400 	tstcs	r0, r0, lsl #8
    43a4:	0400000c 	streq	r0, [r0], #-12
    43a8:	00049a01 	andeq	r9, r4, r1, lsl #20
    43ac:	06d70c00 	ldrbeq	r0, [r7], r0, lsl #24
    43b0:	042e0000 	strteq	r0, [lr], #-0
    43b4:	12300000 	eorsne	r0, r0, #0, 0
    43b8:	00000000 	andeq	r0, r0, r0
    43bc:	1f6b0000 	svcne	0x006b0000
    43c0:	04020000 	streq	r0, [r2], #-0
    43c4:	746e6905 	strbtvc	r6, [lr], #-2309	; 0xfffff6fb
    43c8:	07040300 	streq	r0, [r4, -r0, lsl #6]
    43cc:	0000019e 	muleq	r0, lr, r1
    43d0:	8f060103 	svchi	0x00060103
    43d4:	03000000 	movweq	r0, #0
    43d8:	01d50502 	bicseq	r0, r5, r2, lsl #10
    43dc:	04030000 	streq	r0, [r3], #-0
    43e0:	0001c005 	andeq	ip, r1, r5
    43e4:	05080300 	streq	r0, [r8, #-768]	; 0xfffffd00
    43e8:	000001bb 			; <UNDEFINED> instruction: 0x000001bb
    43ec:	8d080103 	stfhis	f0, [r8, #-12]
    43f0:	03000000 	movweq	r0, #0
    43f4:	00a40702 	adceq	r0, r4, r2, lsl #14
    43f8:	04030000 	streq	r0, [r3], #-0
    43fc:	00019907 	andeq	r9, r1, r7, lsl #18
    4400:	07080300 	streq	r0, [r8, -r0, lsl #6]
    4404:	00000194 	muleq	r0, r4, r1
    4408:	00002504 	andeq	r2, r0, r4, lsl #10
    440c:	00007a00 	andeq	r7, r0, r0, lsl #20
    4410:	00250500 	eoreq	r0, r5, r0, lsl #10
    4414:	06000000 	streq	r0, [r0], -r0
    4418:	000001c9 	andeq	r0, r0, r9, asr #3
    441c:	860e1c02 	strhi	r1, [lr], -r2, lsl #24
    4420:	07000000 	streq	r0, [r0, -r0]
    4424:	00006b04 	andeq	r6, r0, r4, lsl #22
    4428:	00250400 	eoreq	r0, r5, r0, lsl #8
    442c:	009b0000 	addseq	r0, fp, r0
    4430:	9b050000 	blls	144438 <__bss_end__+0x139f68>
    4434:	00000000 	andeq	r0, r0, r0
    4438:	00a80407 	adceq	r0, r8, r7, lsl #8
    443c:	01030000 	mrseq	r0, (UNDEF: 3)
    4440:	00009608 	andeq	r9, r0, r8, lsl #12
    4444:	00a10800 	adceq	r0, r1, r0, lsl #16
    4448:	98060000 	stmdals	r6, {}	; <UNPREDICTABLE>
    444c:	02000005 	andeq	r0, r0, #5, 0
    4450:	00b90e21 	adcseq	r0, r9, r1, lsr #28
    4454:	04070000 	streq	r0, [r7], #-0
    4458:	0000008c 	andeq	r0, r0, ip, lsl #1
    445c:	0006c909 	andeq	ip, r6, r9, lsl #18
    4460:	060c0100 	streq	r0, [ip], -r0, lsl #2
    4464:	0000938c 	andeq	r9, r0, ip, lsl #7
    4468:	00000010 	andeq	r0, r0, r0, lsl r0
    446c:	00e89c01 	rsceq	r9, r8, r1, lsl #24
    4470:	720a0000 	andvc	r0, sl, #0, 0
    4474:	0e0d0100 	adfeqe	f0, f5, f0
    4478:	0000002c 	andeq	r0, r0, ip, lsr #32
    447c:	00002e94 	muleq	r0, r4, lr
    4480:	00002e8c 	andeq	r2, r0, ip, lsl #29
    4484:	01df0b00 	bicseq	r0, pc, r0, lsl #22
    4488:	03010000 	movweq	r0, #4096	; 0x1000
    448c:	00937c06 	addseq	r7, r3, r6, lsl #24
    4490:	00001000 	andeq	r1, r0, r0
    4494:	0a9c0100 	beq	fe70489c <__bss_end__+0xfe6fa3cc>
    4498:	04010072 	streq	r0, [r1], #-114	; 0xffffff8e
    449c:	00002c0e 	andeq	r2, r0, lr, lsl #24
    44a0:	002edc00 	eoreq	sp, lr, r0, lsl #24
    44a4:	002ed400 	eoreq	sp, lr, r0, lsl #8
    44a8:	2f000000 	svccs	0x00000000
    44ac:	04000001 	streq	r0, [r0], #-1
    44b0:	000cca00 	andeq	ip, ip, r0, lsl #20
    44b4:	9a010400 	bls	454bc <__bss_end__+0x3afec>
    44b8:	0c000004 	stceq	0, cr0, [r0], {4}
    44bc:	000006f6 	strdeq	r0, [r0], -r6
    44c0:	0000042e 	andeq	r0, r0, lr, lsr #8
    44c4:	0000939c 	muleq	r0, ip, r3
    44c8:	0000002c 	andeq	r0, r0, ip, lsr #32
    44cc:	0000200f 	andeq	r2, r0, pc
    44d0:	69050402 	stmdbvs	r5, {r1, sl}
    44d4:	0300746e 	movweq	r7, #1134	; 0x46e
    44d8:	019e0704 	orrseq	r0, lr, r4, lsl #14
    44dc:	01030000 	mrseq	r0, (UNDEF: 3)
    44e0:	00008f06 	andeq	r8, r0, r6, lsl #30
    44e4:	05020300 	streq	r0, [r2, #-768]	; 0xfffffd00
    44e8:	000001d5 	ldrdeq	r0, [r0], -r5
    44ec:	c0050403 	andgt	r0, r5, r3, lsl #8
    44f0:	03000001 	movweq	r0, #1
    44f4:	01bb0508 			; <UNDEFINED> instruction: 0x01bb0508
    44f8:	01030000 	mrseq	r0, (UNDEF: 3)
    44fc:	00008d08 	andeq	r8, r0, r8, lsl #26
    4500:	07020300 	streq	r0, [r2, -r0, lsl #6]
    4504:	000000a4 	andeq	r0, r0, r4, lsr #1
    4508:	99070403 	stmdbls	r7, {r0, r1, sl}
    450c:	03000001 	movweq	r0, #1
    4510:	01940708 	orrseq	r0, r4, r8, lsl #14
    4514:	25040000 	strcs	r0, [r4, #-0]
    4518:	7a000000 	bvc	4520 <__code_start__-0x3ae0>
    451c:	05000000 	streq	r0, [r0, #-0]
    4520:	00000025 	andeq	r0, r0, r5, lsr #32
    4524:	01c90600 	biceq	r0, r9, r0, lsl #12
    4528:	1c020000 	stcne	0, cr0, [r2], {-0}
    452c:	0000860e 	andeq	r8, r0, lr, lsl #12
    4530:	6b040700 	blvs	106138 <__bss_end__+0xfbc68>
    4534:	04000000 	streq	r0, [r0], #-0
    4538:	00000025 	andeq	r0, r0, r5, lsr #32
    453c:	0000009b 	muleq	r0, fp, r0
    4540:	00009b05 	andeq	r9, r0, r5, lsl #22
    4544:	04070000 	streq	r0, [r7], #-0
    4548:	000000a8 	andeq	r0, r0, r8, lsr #1
    454c:	96080103 	strls	r0, [r8], -r3, lsl #2
    4550:	08000000 	stmdaeq	r0, {}	; <UNPREDICTABLE>
    4554:	000000a1 	andeq	r0, r0, r1, lsr #1
    4558:	00059806 	andeq	r9, r5, r6, lsl #16
    455c:	0e210200 	cdpeq	2, 2, cr0, cr1, cr0, {0}
    4560:	000000b9 	strheq	r0, [r0], -r9
    4564:	008c0407 	addeq	r0, ip, r7, lsl #8
    4568:	ff090000 			; <UNDEFINED> instruction: 0xff090000
    456c:	01000005 	tsteq	r0, r5
    4570:	939c0604 	orrsls	r0, ip, #4, 12	; 0x400000
    4574:	002c0000 	eoreq	r0, ip, r0
    4578:	9c010000 	stcls	0, cr0, [r1], {-0}
    457c:	0000010e 	andeq	r0, r0, lr, lsl #2
    4580:	0093b00a 	addseq	fp, r3, sl
    4584:	0000e800 	andeq	lr, r0, r0, lsl #16
    4588:	50010b00 	andpl	r0, r1, r0, lsl #22
    458c:	9eb00305 	cdpls	3, 11, cr0, cr0, cr5, {0}
    4590:	0c000000 	stceq	0, cr0, [r0], {-0}
    4594:	000093b4 			; <UNDEFINED> instruction: 0x000093b4
    4598:	0000010e 	andeq	r0, r0, lr, lsl #2
    459c:	0093bc0d 	addseq	fp, r3, sp, lsl #24
    45a0:	00011a00 	andeq	r1, r1, r0, lsl #20
    45a4:	00010400 	andeq	r0, r1, r0, lsl #8
    45a8:	50010b00 	andpl	r0, r1, r0, lsl #22
    45ac:	0c003a01 			; <UNDEFINED> instruction: 0x0c003a01
    45b0:	000093c0 	andeq	r9, r0, r0, asr #7
    45b4:	00000126 	andeq	r0, r0, r6, lsr #2
    45b8:	07110e00 	ldreq	r0, [r1, -r0, lsl #28]
    45bc:	07110000 	ldreq	r0, [r1, -r0]
    45c0:	4d020000 	stcmi	0, cr0, [r2, #-0]
    45c4:	009b0e06 	addseq	r0, fp, r6, lsl #28
    45c8:	009b0000 	addseq	r0, fp, r0
    45cc:	58020000 	stmdapl	r2, {}	; <UNPREDICTABLE>
    45d0:	06eb0e06 	strbteq	r0, [fp], r6, lsl #28
    45d4:	06eb0000 	strbteq	r0, [fp], r0
    45d8:	6b020000 	blvs	845e0 <__bss_end__+0x7a110>
    45dc:	01900006 	orrseq	r0, r0, r6
    45e0:	00040000 	andeq	r0, r4, r0
    45e4:	00000d8a 	andeq	r0, r0, sl, lsl #27
    45e8:	049a0104 	ldreq	r0, [sl], #260	; 0x104
    45ec:	470c0000 	strmi	r0, [ip, -r0]
    45f0:	2e000007 	cdpcs	0, 0, cr0, cr0, cr7, {0}
    45f4:	c8000004 	stmdagt	r0, {r2}
    45f8:	f8000093 			; <UNDEFINED> instruction: 0xf8000093
    45fc:	9a000000 	bls	4604 <__code_start__-0x39fc>
    4600:	02000020 	andeq	r0, r0, #32, 0
    4604:	6e690504 	cdpvs	5, 6, cr0, cr9, cr4, {0}
    4608:	04030074 	streq	r0, [r3], #-116	; 0xffffff8c
    460c:	00019e07 	andeq	r9, r1, r7, lsl #28
    4610:	06010300 	streq	r0, [r1], -r0, lsl #6
    4614:	0000008f 	andeq	r0, r0, pc, lsl #1
    4618:	d5050203 	strle	r0, [r5, #-515]	; 0xfffffdfd
    461c:	03000001 	movweq	r0, #1
    4620:	01c00504 	biceq	r0, r0, r4, lsl #10
    4624:	08030000 	stmdaeq	r3, {}	; <UNPREDICTABLE>
    4628:	0001bb05 	andeq	fp, r1, r5, lsl #22
    462c:	08010300 	stmdaeq	r1, {r8, r9}
    4630:	0000008d 	andeq	r0, r0, sp, lsl #1
    4634:	a4070203 	strge	r0, [r7], #-515	; 0xfffffdfd
    4638:	03000000 	movweq	r0, #0
    463c:	01990704 	orrseq	r0, r9, r4, lsl #14
    4640:	08030000 	stmdaeq	r3, {}	; <UNPREDICTABLE>
    4644:	00019407 	andeq	r9, r1, r7, lsl #8
    4648:	00250400 	eoreq	r0, r5, r0, lsl #8
    464c:	007a0000 	rsbseq	r0, sl, r0
    4650:	25050000 	strcs	r0, [r5, #-0]
    4654:	00000000 	andeq	r0, r0, r0
    4658:	0001c906 	andeq	ip, r1, r6, lsl #18
    465c:	0e1c0200 	cdpeq	2, 1, cr0, cr12, cr0, {0}
    4660:	00000086 	andeq	r0, r0, r6, lsl #1
    4664:	006b0407 	rsbeq	r0, fp, r7, lsl #8
    4668:	25040000 	strcs	r0, [r4, #-0]
    466c:	9b000000 	blls	4674 <__code_start__-0x398c>
    4670:	05000000 	streq	r0, [r0, #-0]
    4674:	0000009b 	muleq	r0, fp, r0
    4678:	a8040700 	stmdage	r4, {r8, r9, sl}
    467c:	03000000 	movweq	r0, #0
    4680:	00960801 	addseq	r0, r6, r1, lsl #16
    4684:	a1080000 	mrsge	r0, (UNDEF: 8)
    4688:	06000000 	streq	r0, [r0], -r0
    468c:	00000598 	muleq	r0, r8, r5
    4690:	b90e2102 	stmdblt	lr, {r1, r8, sp}
    4694:	07000000 	streq	r0, [r0, -r0]
    4698:	00008c04 	andeq	r8, r0, r4, lsl #24
    469c:	071f0900 	ldreq	r0, [pc, -r0, lsl #18]
    46a0:	04010000 	streq	r0, [r1], #-0
    46a4:	0093c806 	addseq	ip, r3, r6, lsl #16
    46a8:	0000f800 	andeq	pc, r0, r0, lsl #16
    46ac:	5b9c0100 	blpl	fe704ab4 <__bss_end__+0xfe6fa5e4>
    46b0:	06000001 	streq	r0, [r0], -r1
    46b4:	000005de 	ldrdeq	r0, [r0], -lr
    46b8:	25100501 	ldrcs	r0, [r0, #-1281]	; 0xfffffaff
    46bc:	06000000 	streq	r0, [r0], -r0
    46c0:	00000621 	andeq	r0, r0, r1, lsr #12
    46c4:	251f0501 	ldrcs	r0, [pc, #-1281]	; 41cb <__code_start__-0x3e35>
    46c8:	0a000000 	beq	46d0 <__code_start__-0x3930>
    46cc:	00000041 	andeq	r0, r0, r1, asr #32
    46d0:	0b070601 	bleq	1c5edc <__bss_end__+0x1bba0c>
    46d4:	00737362 	rsbseq	r7, r3, r2, ror #6
    46d8:	5b0a0a01 	blpl	286ee4 <__bss_end__+0x27ca14>
    46dc:	34000001 	strcc	r0, [r0], #-1
    46e0:	1c00002f 	stcne	0, cr0, [r0], {47}	; 0x2f
    46e4:	0c00002f 	stceq	0, cr0, [r0], {47}	; 0x2f
    46e8:	00000727 	andeq	r0, r0, r7, lsr #14
    46ec:	5b0a0b01 	blpl	2872f8 <__bss_end__+0x27ce28>
    46f0:	0d000001 	stceq	0, cr0, [r0, #-4]
    46f4:	000094a0 	andeq	r9, r0, r0, lsr #9
    46f8:	00000008 	andeq	r0, r0, r8
    46fc:	00000136 	andeq	r0, r0, r6, lsr r1
    4700:	006e690b 	rsbeq	r6, lr, fp, lsl #18
    4704:	2c051401 	cfstrscs	mvf1, [r5], {1}
    4708:	ce000000 	cdpgt	0, 0, cr0, cr0, cr0, {0}
    470c:	cc00002f 	stcgt	0, cr0, [r0], {47}	; 0x2f
    4710:	0000002f 	andeq	r0, r0, pc, lsr #32
    4714:	0093d00e 	addseq	sp, r3, lr
    4718:	00016100 	andeq	r6, r1, r0, lsl #2
    471c:	94a00e00 	strtls	r0, [r0], #3584	; 0xe00
    4720:	016e0000 	cmneq	lr, r0
    4724:	ac0e0000 	stcge	0, cr0, [lr], {-0}
    4728:	7a000094 	bvc	4980 <__code_start__-0x3680>
    472c:	0e000001 	cdpeq	0, 0, cr0, cr0, cr1, {0}
    4730:	000094b0 			; <UNDEFINED> instruction: 0x000094b0
    4734:	00000187 	andeq	r0, r0, r7, lsl #3
    4738:	25040700 	strcs	r0, [r4, #-1792]	; 0xfffff900
    473c:	0f000000 	svceq	0x00000000
    4740:	00000739 	andeq	r0, r0, r9, lsr r7
    4744:	00000739 	andeq	r0, r0, r9, lsr r7
    4748:	06013102 	streq	r3, [r1], -r2, lsl #2
    474c:	00072f10 	andeq	r2, r7, r0, lsl pc
    4750:	00072f00 	andeq	r2, r7, r0, lsl #30
    4754:	063b0200 	ldrteq	r0, [fp], -r0, lsl #4
    4758:	0000410f 	andeq	r4, r0, pc, lsl #2
    475c:	00004100 	andeq	r4, r0, r0, lsl #2
    4760:	01050200 	mrseq	r0, SP_usr
    4764:	05ff1006 	ldrbeq	r1, [pc, #6]!	; 4772 <__code_start__-0x388e>
    4768:	05ff0000 	ldrbeq	r0, [pc, #0]!	; 4770 <__code_start__-0x3890>
    476c:	6e020000 	cdpvs	0, 0, cr0, cr2, cr0, {0}
    4770:	00ce0006 	sbceq	r0, lr, r6
    4774:	00040000 	andeq	r0, r4, r0
    4778:	00000e75 	andeq	r0, r0, r5, ror lr
    477c:	049a0104 	ldreq	r0, [sl], #260	; 0x104
    4780:	5c0c0000 	stcpl	0, cr0, [ip], {-0}
    4784:	2e000007 	cdpcs	0, 0, cr0, cr0, cr7, {0}
    4788:	c0000004 	andgt	r0, r0, r4
    478c:	04000094 	streq	r0, [r0], #-148	; 0xffffff6c
    4790:	b0000000 	andlt	r0, r0, r0
    4794:	02000021 	andeq	r0, r0, #33, 0	; 0x21
    4798:	6e690504 	cdpvs	5, 6, cr0, cr9, cr4, {0}
    479c:	04030074 	streq	r0, [r3], #-116	; 0xffffff8c
    47a0:	00019e07 	andeq	r9, r1, r7, lsl #28
    47a4:	06010300 	streq	r0, [r1], -r0, lsl #6
    47a8:	0000008f 	andeq	r0, r0, pc, lsl #1
    47ac:	d5050203 	strle	r0, [r5, #-515]	; 0xfffffdfd
    47b0:	03000001 	movweq	r0, #1
    47b4:	01c00504 	biceq	r0, r0, r4, lsl #10
    47b8:	08030000 	stmdaeq	r3, {}	; <UNPREDICTABLE>
    47bc:	0001bb05 	andeq	fp, r1, r5, lsl #22
    47c0:	08010300 	stmdaeq	r1, {r8, r9}
    47c4:	0000008d 	andeq	r0, r0, sp, lsl #1
    47c8:	a4070203 	strge	r0, [r7], #-515	; 0xfffffdfd
    47cc:	03000000 	movweq	r0, #0
    47d0:	01990704 	orrseq	r0, r9, r4, lsl #14
    47d4:	08030000 	stmdaeq	r3, {}	; <UNPREDICTABLE>
    47d8:	00019407 	andeq	r9, r1, r7, lsl #8
    47dc:	00250400 	eoreq	r0, r5, r0, lsl #8
    47e0:	007a0000 	rsbseq	r0, sl, r0
    47e4:	25050000 	strcs	r0, [r5, #-0]
    47e8:	00000000 	andeq	r0, r0, r0
    47ec:	0001c906 	andeq	ip, r1, r6, lsl #18
    47f0:	0e1c0200 	cdpeq	2, 1, cr0, cr12, cr0, {0}
    47f4:	00000086 	andeq	r0, r0, r6, lsl #1
    47f8:	006b0407 	rsbeq	r0, fp, r7, lsl #8
    47fc:	25040000 	strcs	r0, [r4, #-0]
    4800:	9b000000 	blls	4808 <__code_start__-0x37f8>
    4804:	05000000 	streq	r0, [r0, #-0]
    4808:	0000009b 	muleq	r0, fp, r0
    480c:	a8040700 	stmdage	r4, {r8, r9, sl}
    4810:	03000000 	movweq	r0, #0
    4814:	00960801 	addseq	r0, r6, r1, lsl #16
    4818:	a1080000 	mrsge	r0, (UNDEF: 8)
    481c:	06000000 	streq	r0, [r0], -r0
    4820:	00000598 	muleq	r0, r8, r5
    4824:	b90e2102 	stmdblt	lr, {r1, r8, sp}
    4828:	07000000 	streq	r0, [r0, -r0]
    482c:	00008c04 	andeq	r8, r0, r4, lsl #24
    4830:	07390900 	ldreq	r0, [r9, -r0, lsl #18]!
    4834:	04010000 	streq	r0, [r1], #-0
    4838:	0094c006 	addseq	ip, r4, r6
    483c:	00000400 	andeq	r0, r0, r0, lsl #8
    4840:	009c0100 	addseq	r0, ip, r0, lsl #2
    4844:	0000027d 	andeq	r0, r0, sp, ror r2
    4848:	0eee0004 	cdpeq	0, 14, cr0, cr14, cr4, {0}
    484c:	01040000 	mrseq	r0, (UNDEF: 4)
    4850:	0000049a 	muleq	r0, sl, r4
    4854:	00079e0c 	andeq	r9, r7, ip, lsl #28
    4858:	00042e00 	andeq	r2, r4, r0, lsl #28
    485c:	00125800 	andseq	r5, r2, r0, lsl #16
    4860:	00000000 	andeq	r0, r0, r0
    4864:	00223100 	eoreq	r3, r2, r0, lsl #2
    4868:	05040200 	streq	r0, [r4, #-512]	; 0xfffffe00
    486c:	00746e69 	rsbseq	r6, r4, r9, ror #28
    4870:	00002503 	andeq	r2, r0, r3, lsl #10
    4874:	07040400 	streq	r0, [r4, -r0, lsl #8]
    4878:	0000019e 	muleq	r0, lr, r1
    487c:	8f060104 	svchi	0x00060104
    4880:	04000000 	streq	r0, [r0], #-0
    4884:	01d50502 	bicseq	r0, r5, r2, lsl #10
    4888:	04040000 	streq	r0, [r4], #-0
    488c:	0001c005 	andeq	ip, r1, r5
    4890:	05080400 	streq	r0, [r8, #-1024]	; 0xfffffc00
    4894:	000001bb 			; <UNDEFINED> instruction: 0x000001bb
    4898:	8d080104 	stfhis	f0, [r8, #-16]
    489c:	04000000 	streq	r0, [r0], #-0
    48a0:	00a40702 	adceq	r0, r4, r2, lsl #14
    48a4:	04040000 	streq	r0, [r4], #-0
    48a8:	00019907 	andeq	r9, r1, r7, lsl #18
    48ac:	07080400 	streq	r0, [r8, -r0, lsl #8]
    48b0:	00000194 	muleq	r0, r4, r1
    48b4:	00002505 	andeq	r2, r0, r5, lsl #10
    48b8:	00007f00 	andeq	r7, r0, r0, lsl #30
    48bc:	00250600 	eoreq	r0, r5, r0, lsl #12
    48c0:	07000000 	streq	r0, [r0, -r0]
    48c4:	000001c9 	andeq	r0, r0, r9, asr #3
    48c8:	8b0e1c02 	blhi	38b8d8 <__bss_end__+0x381408>
    48cc:	08000000 	stmdaeq	r0, {}	; <UNPREDICTABLE>
    48d0:	00007004 	andeq	r7, r0, r4
    48d4:	00250500 	eoreq	r0, r5, r0, lsl #10
    48d8:	00a00000 	adceq	r0, r0, r0
    48dc:	a0060000 	andge	r0, r6, r0
    48e0:	00000000 	andeq	r0, r0, r0
    48e4:	00ad0408 	adceq	r0, sp, r8, lsl #8
    48e8:	01040000 	mrseq	r0, (UNDEF: 4)
    48ec:	00009608 	andeq	r9, r0, r8, lsl #12
    48f0:	00a60300 	adceq	r0, r6, r0, lsl #6
    48f4:	98070000 	stmdals	r7, {}	; <UNPREDICTABLE>
    48f8:	02000005 	andeq	r0, r0, #5, 0
    48fc:	00be0e21 	adcseq	r0, lr, r1, lsr #28
    4900:	04080000 	streq	r0, [r8], #-0
    4904:	00000091 	muleq	r0, r1, r0
    4908:	0007c209 	andeq	ip, r7, r9, lsl #4
    490c:	110d0100 	mrsne	r0, (UNDEF: 29)
    4910:	00000031 	andeq	r0, r0, r1, lsr r0
    4914:	0006eb0a 	andeq	lr, r6, sl, lsl #22
    4918:	061f0100 	ldreq	r0, [pc], -r0, lsl #2
    491c:	000094f0 	strdeq	r9, [r0], -r0
    4920:	00000060 	andeq	r0, r0, r0, rrx
    4924:	01d59c01 	bicseq	r9, r5, r1, lsl #24
    4928:	e60b0000 	str	r0, [fp], -r0
    492c:	01000007 	tsteq	r0, r7
    4930:	002c0f2c 	eoreq	r0, ip, ip, lsr #30
    4934:	001c0000 	andseq	r0, ip, r0
    4938:	870b2010 	smladhi	fp, r0, r0, r2
    493c:	01000007 	tsteq	r0, r7
    4940:	002c0f2d 	eoreq	r0, ip, sp, lsr #30
    4944:	00240000 	eoreq	r0, r4, r0
    4948:	b30b2010 	movwlt	r2, #45072	; 0xb010
    494c:	01000007 	tsteq	r0, r7
    4950:	002c0f2e 	eoreq	r0, ip, lr, lsr #30
    4954:	00000000 	andeq	r0, r0, r0
    4958:	cd0c5a00 	vstrgt	s10, [ip, #-0]
    495c:	01000007 	tsteq	r0, r7
    4960:	002c0f2f 	eoreq	r0, ip, pc, lsr #30
    4964:	0d200000 	stceq	0, cr0, [r0, #-0]
    4968:	000001ef 	andeq	r0, r0, pc, ror #3
    496c:	000094f0 	strdeq	r9, [r0], -r0
    4970:	00124002 	andseq	r4, r2, r2
    4974:	08200100 	stmdaeq	r0!, {r8}
    4978:	0000014c 	andeq	r0, r0, ip, asr #2
    497c:	0012400e 	andseq	r4, r2, lr
    4980:	02000f00 	andeq	r0, r0, #0, 30
    4984:	2fe60000 	svccs	0x00e60000
    4988:	2fe20000 	svccs	0x00e20000
    498c:	00000000 	andeq	r0, r0, r0
    4990:	0001d510 	andeq	sp, r1, r0, lsl r5
    4994:	00950400 	addseq	r0, r5, r0, lsl #8
    4998:	95040100 	strls	r0, [r4, #-256]	; 0xffffff00
    499c:	00100000 	andseq	r0, r0, r0
    49a0:	21010000 	mrscs	r0, (UNDEF: 1)
    49a4:	00017309 	andeq	r7, r1, r9, lsl #6
    49a8:	01e20f00 	mvneq	r0, r0, lsl #30
    49ac:	300d0000 	andcc	r0, sp, r0
    49b0:	30050000 	andcc	r0, r5, r0
    49b4:	11000000 	mrsne	r0, (UNDEF: 0)
    49b8:	00009518 	andeq	r9, r0, r8, lsl r5
    49bc:	0000024f 	andeq	r0, r0, pc, asr #4
    49c0:	00951c11 	addseq	r1, r5, r1, lsl ip
    49c4:	00025c00 	andeq	r5, r2, r0, lsl #24
    49c8:	95241200 	strls	r1, [r4, #-512]!	; 0xfffffe00
    49cc:	02680000 	rsbeq	r0, r8, #0, 0
    49d0:	01980000 	orrseq	r0, r8, r0
    49d4:	01130000 	tsteq	r3, r0
    49d8:	003a0150 	eorseq	r0, sl, r0, asr r1
    49dc:	00953012 	addseq	r3, r5, r2, lsl r0
    49e0:	00027400 	andeq	r7, r2, r0, lsl #8
    49e4:	0001b800 	andeq	fp, r1, r0, lsl #16
    49e8:	50011300 	andpl	r1, r1, r0, lsl #6
    49ec:	00240c05 	eoreq	r0, r4, r5, lsl #24
    49f0:	01132010 	tsteq	r3, r0, lsl r0
    49f4:	010c0551 	tsteq	ip, r1, asr r5
    49f8:	005a0000 	subseq	r0, sl, r0
    49fc:	00953c14 	addseq	r3, r5, r4, lsl ip
    4a00:	00027400 	andeq	r7, r2, r0, lsl #8
    4a04:	50011300 	andpl	r1, r1, r0, lsl #6
    4a08:	001c0c05 	andseq	r0, ip, r5, lsl #24
    4a0c:	01132010 	tsteq	r3, r0, lsl r0
    4a10:	200c0551 	andcs	r0, ip, r1, asr r5
    4a14:	005a0000 	subseq	r0, sl, r0
    4a18:	078f1500 	streq	r1, [pc, r0, lsl #10]
    4a1c:	17010000 	strne	r0, [r1, -r0]
    4a20:	01ef0106 	mvneq	r0, r6, lsl #2
    4a24:	ee090000 	cdp	0, 0, cr0, cr9, cr0, {0}
    4a28:	01000007 	tsteq	r0, r7
    4a2c:	00310e18 	eorseq	r0, r1, r8, lsl lr
    4a30:	16000000 	strne	r0, [r0], -r0
    4a34:	000007bf 			; <UNDEFINED> instruction: 0x000007bf
    4a38:	25050e01 	strcs	r0, [r5, #-3585]	; 0xfffff1ff
    4a3c:	01000000 	mrseq	r0, (UNDEF: 0)
    4a40:	0000020d 	andeq	r0, r0, sp, lsl #4
    4a44:	0007ee09 	andeq	lr, r7, r9, lsl #28
    4a48:	0e0f0100 	adfeqe	f0, f7, f0
    4a4c:	00000031 	andeq	r0, r0, r1, lsr r0
    4a50:	01ef1700 	mvneq	r1, r0, lsl #14
    4a54:	94c40000 	strbls	r0, [r4], #0
    4a58:	00180000 	andseq	r0, r8, r0
    4a5c:	9c010000 	stcls	0, cr0, [r1], {-0}
    4a60:	0000022e 	andeq	r0, r0, lr, lsr #4
    4a64:	0002000f 	andeq	r0, r2, pc
    4a68:	00304a00 	eorseq	r4, r0, r0, lsl #20
    4a6c:	00304600 	eorseq	r4, r0, r0, lsl #12
    4a70:	d5170000 	ldrle	r0, [r7, #-0]
    4a74:	dc000001 	stcle	0, cr0, [r0], {1}
    4a78:	14000094 	strne	r0, [r0], #-148	; 0xffffff6c
    4a7c:	01000000 	mrseq	r0, (UNDEF: 0)
    4a80:	00024f9c 	muleq	r2, ip, pc	; <UNPREDICTABLE>
    4a84:	01e20f00 	mvneq	r0, r0, lsl #30
    4a88:	30710000 	rsbscc	r0, r1, r0
    4a8c:	30690000 	rsbcc	r0, r9, r0
    4a90:	18000000 	stmdane	r0, {}	; <UNPREDICTABLE>
    4a94:	00000778 	andeq	r0, r0, r8, ror r7
    4a98:	00000778 	andeq	r0, r0, r8, ror r7
    4a9c:	06013602 	streq	r3, [r1], -r2, lsl #12
    4aa0:	00071119 	andeq	r1, r7, r9, lsl r1
    4aa4:	00071100 	andeq	r1, r7, r0, lsl #2
    4aa8:	064d0200 	strbeq	r0, [sp], -r0, lsl #4
    4aac:	00009b19 	andeq	r9, r0, r9, lsl fp
    4ab0:	00009b00 	andeq	r9, r0, r0, lsl #22
    4ab4:	06580200 	ldrbeq	r0, [r8], -r0, lsl #4
    4ab8:	00038419 	andeq	r8, r3, r9, lsl r4
    4abc:	00038400 	andeq	r8, r3, r0, lsl #8
    4ac0:	06ad0200 	strteq	r0, [sp], r0, lsl #4
    4ac4:	00053f00 	andeq	r3, r5, r0, lsl #30
    4ac8:	71000400 	tstvc	r0, r0, lsl #8
    4acc:	04000010 	streq	r0, [r0], #-16
    4ad0:	00049a01 	andeq	r9, r4, r1, lsl #20
    4ad4:	08090c00 	stmdaeq	r9, {sl, fp}
    4ad8:	042e0000 	strteq	r0, [lr], #-0
    4adc:	95500000 	ldrbls	r0, [r0, #-0]
    4ae0:	011c0000 	tsteq	ip, r0
    4ae4:	23490000 	movtcs	r0, #36864	; 0x9000
    4ae8:	04020000 	streq	r0, [r2], #-0
    4aec:	746e6905 	strbtvc	r6, [lr], #-2309	; 0xfffff6fb
    4af0:	07040300 	streq	r0, [r4, -r0, lsl #6]
    4af4:	0000019e 	muleq	r0, lr, r1
    4af8:	8f060103 	svchi	0x00060103
    4afc:	03000000 	movweq	r0, #0
    4b00:	01d50502 	bicseq	r0, r5, r2, lsl #10
    4b04:	04030000 	streq	r0, [r3], #-0
    4b08:	0001c005 	andeq	ip, r1, r5
    4b0c:	05080300 	streq	r0, [r8, #-768]	; 0xfffffd00
    4b10:	000001bb 			; <UNDEFINED> instruction: 0x000001bb
    4b14:	8d080103 	stfhis	f0, [r8, #-12]
    4b18:	03000000 	movweq	r0, #0
    4b1c:	00a40702 	adceq	r0, r4, r2, lsl #14
    4b20:	04030000 	streq	r0, [r3], #-0
    4b24:	00019907 	andeq	r9, r1, r7, lsl #18
    4b28:	07080300 	streq	r0, [r8, -r0, lsl #6]
    4b2c:	00000194 	muleq	r0, r4, r1
    4b30:	00002504 	andeq	r2, r0, r4, lsl #10
    4b34:	00007a00 	andeq	r7, r0, r0, lsl #20
    4b38:	00250500 	eoreq	r0, r5, r0, lsl #10
    4b3c:	06000000 	streq	r0, [r0], -r0
    4b40:	000001c9 	andeq	r0, r0, r9, asr #3
    4b44:	860e1c02 	strhi	r1, [lr], -r2, lsl #24
    4b48:	07000000 	streq	r0, [r0, -r0]
    4b4c:	00006b04 	andeq	r6, r0, r4, lsl #22
    4b50:	00250400 	eoreq	r0, r5, r0, lsl #8
    4b54:	009b0000 	addseq	r0, fp, r0
    4b58:	9b050000 	blls	144b60 <__bss_end__+0x13a690>
    4b5c:	00000000 	andeq	r0, r0, r0
    4b60:	00a80407 	adceq	r0, r8, r7, lsl #8
    4b64:	01030000 	mrseq	r0, (UNDEF: 3)
    4b68:	00009608 	andeq	r9, r0, r8, lsl #12
    4b6c:	00a10800 	adceq	r0, r1, r0, lsl #16
    4b70:	98060000 	stmdals	r6, {}	; <UNPREDICTABLE>
    4b74:	02000005 	andeq	r0, r0, #5, 0
    4b78:	00b90e21 	adcseq	r0, r9, r1, lsr #28
    4b7c:	04070000 	streq	r0, [r7], #-0
    4b80:	0000008c 	andeq	r0, r0, ip, lsl #1
    4b84:	0007ff09 	andeq	pc, r7, r9, lsl #30
    4b88:	061e0100 	ldreq	r0, [lr], -r0, lsl #2
    4b8c:	00009618 	andeq	r9, r0, r8, lsl r6
    4b90:	00000054 	andeq	r0, r0, r4, asr r0
    4b94:	020b9c01 	andeq	r9, fp, #256	; 0x100
    4b98:	730a0000 	movwvc	r0, #40960	; 0xa000
    4b9c:	01006365 	tsteq	r0, r5, ror #6
    4ba0:	002c191e 	eoreq	r1, ip, lr, lsl r9
    4ba4:	30ae0000 	adccc	r0, lr, r0
    4ba8:	30aa0000 	adccc	r0, sl, r0
    4bac:	0b0b0000 	bleq	2c4bb4 <__bss_end__+0x2ba6e4>
    4bb0:	18000002 	stmdane	r0, {r1}
    4bb4:	02000096 	andeq	r0, r0, #150, 0	; 0x96
    4bb8:	00001320 	andeq	r1, r0, r0, lsr #6
    4bbc:	0c051f01 	stceq	15, cr1, [r5], {1}
    4bc0:	00000218 	andeq	r0, r0, r8, lsl r2
    4bc4:	000030d3 	ldrdeq	r3, [r0], -r3	; <UNPREDICTABLE>
    4bc8:	000030cf 	andeq	r3, r0, pc, asr #1
    4bcc:	0002240d 	andeq	r2, r2, sp, lsl #8
    4bd0:	00962c00 	addseq	r2, r6, r0, lsl #24
    4bd4:	962c0000 	strtls	r0, [ip], -r0
    4bd8:	00400000 	subeq	r0, r0, r0
    4bdc:	1c010000 	stcne	0, cr0, [r1], {-0}
    4be0:	02310c05 	eorseq	r0, r1, #1280	; 0x500
    4be4:	31000000 	mrscc	r0, (UNDEF: 0)
    4be8:	30fe0000 	rscscc	r0, lr, r0
    4bec:	3c0e0000 	stccc	0, cr0, [lr], {-0}
    4bf0:	15000002 	strne	r0, [r0, #-2]
    4bf4:	13000031 	movwne	r0, #49	; 0x31
    4bf8:	0f000031 	svceq	0x00000031
    4bfc:	00000255 	andeq	r0, r0, r5, asr r2
    4c00:	0000962c 	andeq	r9, r0, ip, lsr #12
    4c04:	00962c02 	addseq	r2, r6, r2, lsl #24
    4c08:	00001400 	andeq	r1, r0, r0, lsl #8
    4c0c:	13130100 	tstne	r3, #0
    4c10:	0000019c 	muleq	r0, ip, r1
    4c14:	0002660e 	andeq	r6, r2, lr, lsl #12
    4c18:	00312c00 	eorseq	r2, r1, r0, lsl #24
    4c1c:	00312800 	eorseq	r2, r1, r0, lsl #16
    4c20:	02710f00 	rsbseq	r0, r1, #0, 30
    4c24:	96300000 	ldrtls	r0, [r0], -r0
    4c28:	30010000 	andcc	r0, r1, r0
    4c2c:	0c000096 	stceq	0, cr0, [r0], {150}	; 0x96
    4c30:	01000000 	mrseq	r0, (UNDEF: 0)
    4c34:	0189120d 	orreq	r1, r9, sp, lsl #4
    4c38:	38100000 	ldmdacc	r0, {}	; <UNPREDICTABLE>
    4c3c:	2a000096 	bcs	4e9c <__code_start__-0x3164>
    4c40:	11000005 	tstne	r0, r5
    4c44:	0c055001 	stceq	0, cr5, [r5], {1}
    4c48:	20003004 	andcs	r3, r0, r4
    4c4c:	30120000 	andscc	r0, r2, r0
    4c50:	36000096 			; <UNDEFINED> instruction: 0x36000096
    4c54:	12000005 	andne	r0, r0, #5, 0
    4c58:	00009640 	andeq	r9, r0, r0, asr #12
    4c5c:	00000536 	andeq	r0, r0, r6, lsr r5
    4c60:	02471300 	subeq	r1, r7, #0, 6
    4c64:	13380000 	teqne	r8, #0, 0
    4c68:	48140000 	ldmdami	r4, {}	; <UNPREDICTABLE>
    4c6c:	0b000002 	bleq	4c7c <__code_start__-0x3384>
    4c70:	00000255 	andeq	r0, r0, r5, asr r2
    4c74:	00009644 	andeq	r9, r0, r4, asr #12
    4c78:	00135002 	andseq	r5, r3, r2
    4c7c:	17150100 	ldrne	r0, [r5, -r0, lsl #2]
    4c80:	00135015 	andseq	r5, r3, r5, lsl r0
    4c84:	02660e00 	rsbeq	r0, r6, #0, 28
    4c88:	314c0000 	mrscc	r0, (UNDEF: 76)
    4c8c:	314a0000 	mrscc	r0, (UNDEF: 74)
    4c90:	71160000 	tstvc	r6, r0
    4c94:	48000002 	stmdami	r0, {r1}
    4c98:	01000096 	swpeq	r0, r6, [r0]	; <UNPREDICTABLE>
    4c9c:	00001370 	andeq	r1, r0, r0, ror r3
    4ca0:	f3120d01 	vpadd.f16	d0, d2, d1
    4ca4:	10000001 	andne	r0, r0, r1
    4ca8:	00009650 	andeq	r9, r0, r0, asr r6
    4cac:	0000052a 	andeq	r0, r0, sl, lsr #10
    4cb0:	02500111 	subseq	r0, r0, #1073741828	; 0x40000004
    4cb4:	00000077 	andeq	r0, r0, r7, ror r0
    4cb8:	00964812 	addseq	r4, r6, r2, lsl r8
    4cbc:	00053600 	andeq	r3, r5, r0, lsl #12
    4cc0:	965c1200 	ldrbls	r1, [ip], -r0, lsl #4
    4cc4:	05360000 	ldreq	r0, [r6, #-0]!
	...
    4cd0:	00009b17 	andeq	r9, r0, r7, lsl fp
    4cd4:	061b0100 	ldreq	r0, [fp], -r0, lsl #2
    4cd8:	00022401 	andeq	r2, r2, r1, lsl #8
    4cdc:	736d1800 	cmnvc	sp, #0, 16
    4ce0:	181b0100 	ldmdane	fp, {r8}
    4ce4:	0000002c 	andeq	r0, r0, ip, lsr #32
    4ce8:	082c1700 	stmdaeq	ip!, {r8, r9, sl, ip}
    4cec:	12010000 	andne	r0, r1, #0, 0
    4cf0:	02550106 	subseq	r0, r5, #-2147483647	; 0x80000001
    4cf4:	75180000 	ldrvc	r0, [r8, #-0]
    4cf8:	12010073 	andne	r0, r1, #115, 0	; 0x73
    4cfc:	00002c18 	andeq	r2, r0, r8, lsl ip
    4d00:	62721900 	rsbsvs	r1, r2, #0, 18
    4d04:	0e130100 	mufeqs	f0, f3, f0
    4d08:	0000002c 	andeq	r0, r0, ip, lsr #32
    4d0c:	6172191a 	cmnvs	r2, sl, lsl r9
    4d10:	12150100 	andsne	r0, r5, #0
    4d14:	0000002c 	andeq	r0, r0, ip, lsr #32
    4d18:	1d1b0000 	ldcne	0, cr0, [fp, #-0]
    4d1c:	01000008 	tsteq	r0, r8
    4d20:	002c0a09 	eoreq	r0, ip, r9, lsl #20
    4d24:	71010000 	mrsvc	r0, (UNDEF: 1)
    4d28:	19000002 	stmdbne	r0, {r1}
    4d2c:	0d010075 	stceq	0, cr0, [r1, #-468]	; 0xfffffe2c
    4d30:	00002c0e 	andeq	r2, r0, lr, lsl #24
    4d34:	351c0000 	ldrcc	r0, [ip, #-0]
    4d38:	01000008 	tsteq	r0, r8
    4d3c:	002c0a04 	eoreq	r0, ip, r4, lsl #20
    4d40:	1d010000 	stcne	0, cr0, [r1, #-0]
    4d44:	00000271 	andeq	r0, r0, r1, ror r2
    4d48:	00009550 	andeq	r9, r0, r0, asr r5
    4d4c:	0000000c 	andeq	r0, r0, ip
    4d50:	02a59c01 	adceq	r9, r5, #256	; 0x100
    4d54:	581e0000 	ldmdapl	lr, {}	; <UNPREDICTABLE>
    4d58:	2a000095 	bcs	4fb4 <__code_start__-0x304c>
    4d5c:	11000005 	tstne	r0, r5
    4d60:	0c055001 	stceq	0, cr5, [r5], {1}
    4d64:	20003004 	andcs	r3, r0, r4
    4d68:	551d0000 	ldrpl	r0, [sp, #-0]
    4d6c:	5c000002 	stcpl	0, cr0, [r0], {2}
    4d70:	24000095 	strcs	r0, [r0], #-149	; 0xffffff6b
    4d74:	01000000 	mrseq	r0, (UNDEF: 0)
    4d78:	0003059c 	muleq	r3, ip, r5
    4d7c:	02660e00 	rsbeq	r0, r6, #0, 28
    4d80:	31630000 	cmncc	r3, r0
    4d84:	315f0000 	cmpcc	pc, r0
    4d88:	710f0000 	mrsvc	r0, CPSR
    4d8c:	64000002 	strvs	r0, [r0], #-2
    4d90:	01000095 	swpeq	r0, r5, [r0]	; <UNPREDICTABLE>
    4d94:	00009564 	andeq	r9, r0, r4, ror #10
    4d98:	0000000c 	andeq	r0, r0, ip
    4d9c:	f2120d01 	vadd.f16	d0, d2, d1
    4da0:	10000002 	andne	r0, r0, r2
    4da4:	0000956c 	andeq	r9, r0, ip, ror #10
    4da8:	0000052a 	andeq	r0, r0, sl, lsr #10
    4dac:	05500111 	ldrbeq	r0, [r0, #-273]	; 0xfffffeef
    4db0:	0030040c 	eorseq	r0, r0, ip, lsl #8
    4db4:	12000020 	andne	r0, r0, #32, 0
    4db8:	00009564 	andeq	r9, r0, r4, ror #10
    4dbc:	00000536 	andeq	r0, r0, r6, lsr r5
    4dc0:	00957412 	addseq	r7, r5, r2, lsl r4
    4dc4:	00053600 	andeq	r3, r5, r0, lsl #12
    4dc8:	241d0000 	ldrcs	r0, [sp], #-0
    4dcc:	80000002 	andhi	r0, r0, r2
    4dd0:	48000095 	stmdami	r0, {r0, r2, r4, r7}
    4dd4:	01000000 	mrseq	r0, (UNDEF: 0)
    4dd8:	0004079c 	muleq	r4, ip, r7
    4ddc:	02310c00 	eorseq	r0, r1, #0, 24
    4de0:	31850000 	orrcc	r0, r5, r0
    4de4:	31810000 	orrcc	r0, r1, r0
    4de8:	3c0e0000 	stccc	0, cr0, [lr], {-0}
    4dec:	a5000002 	strge	r0, [r0, #-2]
    4df0:	a3000031 	movwge	r0, #49	; 0x31
    4df4:	16000031 			; <UNDEFINED> instruction: 0x16000031
    4df8:	00000255 	andeq	r0, r0, r5, asr r2
    4dfc:	00009580 	andeq	r9, r0, r0, lsl #11
    4e00:	00126802 	andseq	r6, r2, r2, lsl #16
    4e04:	13130100 	tstne	r3, #0
    4e08:	0000039a 	muleq	r0, sl, r3
    4e0c:	00126815 	andseq	r6, r2, r5, lsl r8
    4e10:	02660e00 	rsbeq	r0, r6, #0, 28
    4e14:	31bc0000 			; <UNDEFINED> instruction: 0x31bc0000
    4e18:	31b80000 			; <UNDEFINED> instruction: 0x31b80000
    4e1c:	710f0000 	mrsvc	r0, CPSR
    4e20:	8c000002 	stchi	0, cr0, [r0], {2}
    4e24:	01000095 	swpeq	r0, r5, [r0]	; <UNPREDICTABLE>
    4e28:	0000958c 	andeq	r9, r0, ip, lsl #11
    4e2c:	0000000c 	andeq	r0, r0, ip
    4e30:	86120d01 	ldrhi	r0, [r2], -r1, lsl #26
    4e34:	10000003 	andne	r0, r0, r3
    4e38:	00009594 	muleq	r0, r4, r5
    4e3c:	0000052a 	andeq	r0, r0, sl, lsr #10
    4e40:	05500111 	ldrbeq	r0, [r0, #-273]	; 0xfffffeef
    4e44:	0030040c 	eorseq	r0, r0, ip, lsl #8
    4e48:	12000020 	andne	r0, r0, #32, 0
    4e4c:	0000958c 	andeq	r9, r0, ip, lsl #11
    4e50:	00000536 	andeq	r0, r0, r6, lsr r5
    4e54:	00959c12 	addseq	r9, r5, r2, lsl ip
    4e58:	00053600 	andeq	r3, r5, r0, lsl #12
    4e5c:	13000000 	movwne	r0, #0
    4e60:	00000247 	andeq	r0, r0, r7, asr #4
    4e64:	00001280 	andeq	r1, r0, r0, lsl #5
    4e68:	00024814 	andeq	r4, r2, r4, lsl r8
    4e6c:	02550b00 	subseq	r0, r5, #0, 22
    4e70:	95a00000 	strls	r0, [r0, #0]!
    4e74:	98020000 	stmdals	r2, {}	; <UNPREDICTABLE>
    4e78:	01000012 	tsteq	r0, r2, lsl r0
    4e7c:	98151715 	ldmdals	r5, {r0, r2, r4, r8, r9, sl, ip}
    4e80:	0e000012 	mcreq	0, 0, r0, cr0, cr2, {0}
    4e84:	00000266 	andeq	r0, r0, r6, ror #4
    4e88:	000031dc 	ldrdeq	r3, [r0], -ip
    4e8c:	000031da 	ldrdeq	r3, [r0], -sl
    4e90:	00027116 	andeq	r7, r2, r6, lsl r1
    4e94:	0095a400 	addseq	sl, r5, r0, lsl #8
    4e98:	12b80100 	adcsne	r0, r8, #0
    4e9c:	0d010000 	stceq	0, cr0, [r1, #-0]
    4ea0:	0003f112 	andeq	pc, r3, r2, lsl r1	; <UNPREDICTABLE>
    4ea4:	95ac1000 	strls	r1, [ip, #0]!
    4ea8:	052a0000 	streq	r0, [sl, #-0]!
    4eac:	01110000 	tsteq	r1, r0
    4eb0:	00770250 	rsbseq	r0, r7, r0, asr r2
    4eb4:	a4120000 	ldrge	r0, [r2], #-0
    4eb8:	36000095 			; <UNDEFINED> instruction: 0x36000095
    4ebc:	12000005 	andne	r0, r0, #5, 0
    4ec0:	000095b8 			; <UNDEFINED> instruction: 0x000095b8
    4ec4:	00000536 	andeq	r0, r0, r6, lsr r5
    4ec8:	00000000 	andeq	r0, r0, r0
    4ecc:	00020b1d 	andeq	r0, r2, sp, lsl fp
    4ed0:	0095c800 	addseq	ip, r5, r0, lsl #16
    4ed4:	00005000 	andeq	r5, r0, r0
    4ed8:	2a9c0100 	bcs	fe7052e0 <__bss_end__+0xfe6fae10>
    4edc:	0c000005 	stceq	0, cr0, [r0], {5}
    4ee0:	00000218 	andeq	r0, r0, r8, lsl r2
    4ee4:	000031f3 	strdeq	r3, [r0], -r3	; <UNPREDICTABLE>
    4ee8:	000031ef 	andeq	r3, r0, pc, ror #3
    4eec:	0002240d 	andeq	r2, r2, sp, lsl #8
    4ef0:	0095d800 	addseq	sp, r5, r0, lsl #16
    4ef4:	95d80000 	ldrbls	r0, [r8]
    4ef8:	00400000 	subeq	r0, r0, r0
    4efc:	1c010000 	stcne	0, cr0, [r1], {-0}
    4f00:	02310c05 	eorseq	r0, r1, #1280	; 0x500
    4f04:	32160000 	andscc	r0, r6, #0, 0
    4f08:	32140000 	andscc	r0, r4, #0, 0
    4f0c:	3c0e0000 	stccc	0, cr0, [lr], {-0}
    4f10:	2b000002 	blcs	4f20 <__code_start__-0x30e0>
    4f14:	29000032 	stmdbcs	r0, {r1, r4, r5}
    4f18:	0f000032 	svceq	0x00000032
    4f1c:	00000255 	andeq	r0, r0, r5, asr r2
    4f20:	000095d8 	ldrdeq	r9, [r0], -r8
    4f24:	0095d802 	addseq	sp, r5, r2, lsl #16
    4f28:	00001400 	andeq	r1, r0, r0, lsl #8
    4f2c:	13130100 	tstne	r3, #0
    4f30:	000004bc 			; <UNDEFINED> instruction: 0x000004bc
    4f34:	0002660e 	andeq	r6, r2, lr, lsl #12
    4f38:	00324200 	eorseq	r4, r2, r0, lsl #4
    4f3c:	00323e00 	eorseq	r3, r2, r0, lsl #28
    4f40:	02710f00 	rsbseq	r0, r1, #0, 30
    4f44:	95dc0000 	ldrbls	r0, [ip]
    4f48:	dc010000 	stcle	0, cr0, [r1], {-0}
    4f4c:	0c000095 	stceq	0, cr0, [r0], {149}	; 0x95
    4f50:	01000000 	mrseq	r0, (UNDEF: 0)
    4f54:	04a9120d 	strteq	r1, [r9], #525	; 0x20d
    4f58:	e4100000 	ldr	r0, [r0], #-0
    4f5c:	2a000095 	bcs	51b8 <__code_start__-0x2e48>
    4f60:	11000005 	tstne	r0, r5
    4f64:	0c055001 	stceq	0, cr5, [r5], {1}
    4f68:	20003004 	andcs	r3, r0, r4
    4f6c:	dc120000 	ldcle	0, cr0, [r2], {-0}
    4f70:	36000095 			; <UNDEFINED> instruction: 0x36000095
    4f74:	12000005 	andne	r0, r0, #5, 0
    4f78:	000095ec 	andeq	r9, r0, ip, ror #11
    4f7c:	00000536 	andeq	r0, r0, r6, lsr r5
    4f80:	02471300 	subeq	r1, r7, #0, 6
    4f84:	12d00000 	sbcsne	r0, r0, #0, 0
    4f88:	48140000 	ldmdami	r4, {}	; <UNPREDICTABLE>
    4f8c:	0b000002 	bleq	4f9c <__code_start__-0x3064>
    4f90:	00000255 	andeq	r0, r0, r5, asr r2
    4f94:	000095f0 	strdeq	r9, [r0], -r0
    4f98:	0012e802 	andseq	lr, r2, r2, lsl #16
    4f9c:	17150100 	ldrne	r0, [r5, -r0, lsl #2]
    4fa0:	0012e815 	andseq	lr, r2, r5, lsl r8
    4fa4:	02660e00 	rsbeq	r0, r6, #0, 28
    4fa8:	32620000 	rsbcc	r0, r2, #0, 0
    4fac:	32600000 	rsbcc	r0, r0, #0, 0
    4fb0:	71160000 	tstvc	r6, r0
    4fb4:	f4000002 	vst4.8	{d0-d3}, [r0], r2
    4fb8:	01000095 	swpeq	r0, r5, [r0]	; <UNPREDICTABLE>
    4fbc:	00001308 	andeq	r1, r0, r8, lsl #6
    4fc0:	13120d01 	tstne	r2, #64	; 0x40
    4fc4:	10000005 	andne	r0, r0, r5
    4fc8:	000095fc 	strdeq	r9, [r0], -ip
    4fcc:	0000052a 	andeq	r0, r0, sl, lsr #10
    4fd0:	02500111 	subseq	r0, r0, #1073741828	; 0x40000004
    4fd4:	00000077 	andeq	r0, r0, r7, ror r0
    4fd8:	0095f412 	addseq	pc, r5, r2, lsl r4	; <UNPREDICTABLE>
    4fdc:	00053600 	andeq	r3, r5, r0, lsl #12
    4fe0:	96081200 	strls	r1, [r8], -r0, lsl #4
    4fe4:	05360000 	ldreq	r0, [r6, #-0]!
    4fe8:	00000000 	andeq	r0, r0, r0
    4fec:	1f000000 	svcne	0x00000000
    4ff0:	00000394 	muleq	r0, r4, r3
    4ff4:	00000394 	muleq	r0, r4, r3
    4ff8:	1f0ac202 	svcne	0x000ac202
    4ffc:	000007f3 	strdeq	r0, [r0], -r3
    5000:	000007f3 	strdeq	r0, [r0], -r3
    5004:	00069c02 	andeq	r9, r6, r2, lsl #24
    5008:	000005cd 	andeq	r0, r0, sp, asr #11
    500c:	12400004 	subne	r0, r0, #4, 0
    5010:	01040000 	mrseq	r0, (UNDEF: 4)
    5014:	000008b0 			; <UNDEFINED> instruction: 0x000008b0
    5018:	0008640c 	andeq	r6, r8, ip, lsl #8
    501c:	00097f00 	andeq	r7, r9, r0, lsl #30
    5020:	00966c00 	addseq	r6, r6, r0, lsl #24
    5024:	0001f000 	andeq	pc, r1, r0
    5028:	00254700 	eoreq	r4, r5, r0, lsl #14
    502c:	05040200 	streq	r0, [r4, #-512]	; 0xfffffe00
    5030:	00746e69 	rsbseq	r6, r4, r9, ror #28
    5034:	9e070403 	cdpls	4, 0, cr0, cr7, cr3, {0}
    5038:	04000001 	streq	r0, [r0], #-1
    503c:	0000002c 	andeq	r0, r0, ip, lsr #32
    5040:	8f060103 	svchi	0x00060103
    5044:	03000000 	movweq	r0, #0
    5048:	01d50502 	bicseq	r0, r5, r2, lsl #10
    504c:	04030000 	streq	r0, [r3], #-0
    5050:	0001c005 	andeq	ip, r1, r5
    5054:	05080300 	streq	r0, [r8, #-768]	; 0xfffffd00
    5058:	000001bb 			; <UNDEFINED> instruction: 0x000001bb
    505c:	8d080103 	stfhis	f0, [r8, #-12]
    5060:	03000000 	movweq	r0, #0
    5064:	00a40702 	adceq	r0, r4, r2, lsl #14
    5068:	65050000 	strvs	r0, [r5, #-0]
    506c:	05000002 	streq	r0, [r0, #-2]
    5070:	006e1934 	rsbeq	r1, lr, r4, lsr r9
    5074:	04030000 	streq	r0, [r3], #-0
    5078:	00019907 	andeq	r9, r1, r7, lsl #18
    507c:	07080300 	streq	r0, [r8, -r0, lsl #6]
    5080:	00000194 	muleq	r0, r4, r1
    5084:	96080103 	strls	r0, [r8], -r3, lsl #2
    5088:	06000000 	streq	r0, [r0], -r0
    508c:	00540107 	subseq	r0, r4, r7, lsl #2
    5090:	0c040000 	stceq	0, cr0, [r4], {-0}
    5094:	0000c20e 	andeq	ip, r0, lr, lsl #4
    5098:	04550700 	ldrbeq	r0, [r5], #-1792	; 0xfffff900
    509c:	07000000 	streq	r0, [r0, -r0]
    50a0:	000002dd 	ldrdeq	r0, [r0], -sp
    50a4:	039a0701 	orrseq	r0, sl, #262144	; 0x40000
    50a8:	07040000 	streq	r0, [r4, -r0]
    50ac:	000003a9 	andeq	r0, r0, r9, lsr #7
    50b0:	03b80705 			; <UNDEFINED> instruction: 0x03b80705
    50b4:	07060000 	streq	r0, [r6, -r0]
    50b8:	000003c7 	andeq	r0, r0, r7, asr #7
    50bc:	041f0707 	ldreq	r0, [pc], #-1799	; 50c4 <__code_start__-0x2f3c>
    50c0:	07030000 	streq	r0, [r3, -r0]
    50c4:	000003d6 	ldrdeq	r0, [r0], -r6
    50c8:	73080002 	movwvc	r0, #32770	; 0x8002
    50cc:	2c000009 	stccs	0, cr0, [r0], {9}
    50d0:	5e080602 	cfmadd32pl	mvax0, mvfx0, mvfx8, mvfx2
    50d4:	09000001 	stmdbeq	r0, {r0}
    50d8:	02006f69 	andeq	r6, r0, #420	; 0x1a4
    50dc:	00330909 	eorseq	r0, r3, r9, lsl #18
    50e0:	09000000 	stmdbeq	r0, {}	; <UNPREDICTABLE>
    50e4:	00726569 	rsbseq	r6, r2, r9, ror #10
    50e8:	33090a02 	movwcc	r0, #39426	; 0x9a02
    50ec:	04000000 	streq	r0, [r0], #-0
    50f0:	72696909 	rsbvc	r6, r9, #147456	; 0x24000
    50f4:	09110200 	ldmdbeq	r1, {r9}
    50f8:	00000033 	andeq	r0, r0, r3, lsr r0
    50fc:	636c0908 	cmnvs	ip, #8, 18	; 0x20000
    5100:	13020072 	movwne	r0, #8306	; 0x2072
    5104:	00003309 	andeq	r3, r0, r9, lsl #6
    5108:	6d090c00 	stcvs	12, cr0, [r9, #-0]
    510c:	02007263 	andeq	r7, r0, #805306374	; 0x30000006
    5110:	00330914 	eorseq	r0, r3, r4, lsl r9
    5114:	09100000 	ldmdbeq	r0, {}	; <UNPREDICTABLE>
    5118:	0072736c 	rsbseq	r7, r2, ip, ror #6
    511c:	33091502 	movwcc	r1, #38146	; 0x9502
    5120:	14000000 	strne	r0, [r0], #-0
    5124:	72736d09 	rsbsvc	r6, r3, #576	; 0x240
    5128:	09160200 	ldmdbeq	r6, {r9}
    512c:	00000033 	andeq	r0, r0, r3, lsr r0
    5130:	096b0a18 	stmdbeq	fp!, {r3, r4, r9, fp}^
    5134:	17020000 	strne	r0, [r2, -r0]
    5138:	00003309 	andeq	r3, r0, r9, lsl #6
    513c:	430a1c00 	movwmi	r1, #44032	; 0xac00
    5140:	02000009 	andeq	r0, r0, #9, 0
    5144:	0033091b 	eorseq	r0, r3, fp, lsl r9
    5148:	0a200000 	beq	805150 <__bss_end__+0x7fac80>
    514c:	00000851 	andeq	r0, r0, r1, asr r8
    5150:	33091d02 	movwcc	r1, #40194	; 0x9d02
    5154:	24000000 	strcs	r0, [r0], #-0
    5158:	0008950a 	andeq	r9, r8, sl, lsl #10
    515c:	091e0200 	ldmdbeq	lr, {r9}
    5160:	00000033 	andeq	r0, r0, r3, lsr r0
    5164:	9a0b0028 	bls	2c520c <__bss_end__+0x2bad3c>
    5168:	01000008 	tsteq	r0, r8
    516c:	01740908 	cmneq	r4, r8, lsl #18
    5170:	50040000 	andpl	r0, r4, r0
    5174:	040c2021 	streq	r2, [ip], #-33	; 0xffffffdf
    5178:	00000033 	andeq	r0, r0, r3, lsr r0
    517c:	00016e0d 	andeq	r6, r1, sp, lsl #28
    5180:	08790b00 	ldmdaeq	r9!, {r8, r9, fp}^
    5184:	29010000 	stmdbcs	r1, {}	; <UNPREDICTABLE>
    5188:	00018f23 	andeq	r8, r1, r3, lsr #30
    518c:	21504000 	cmpcs	r0, r0
    5190:	c2040c20 	andgt	r0, r4, #32, 24	; 0x2000
    5194:	0d000000 	stceq	0, cr0, [r0, #-0]
    5198:	00000189 	andeq	r0, r0, r9, lsl #3
    519c:	0007110e 	andeq	r1, r7, lr, lsl #2
    51a0:	06cc0100 	strbeq	r0, [ip], r0, lsl #2
    51a4:	00009824 	andeq	r9, r0, r4, lsr #16
    51a8:	00000014 	andeq	r0, r0, r4, lsl r0
    51ac:	01b49c01 			; <UNDEFINED> instruction: 0x01b49c01
    51b0:	2c0f0000 	stccs	0, cr0, [pc], {-0}
    51b4:	b4000098 	strlt	r0, [r0], #-152	; 0xffffff68
    51b8:	00000001 	andeq	r0, r0, r1
    51bc:	00087e10 	andeq	r7, r8, r0, lsl lr
    51c0:	05b60100 	ldreq	r0, [r6, #256]!	; 0x100
    51c4:	00000025 	andeq	r0, r0, r5, lsr #32
    51c8:	00009804 	andeq	r9, r0, r4, lsl #16
    51cc:	00000020 	andeq	r0, r0, r0, lsr #32
    51d0:	01eb9c01 	mvneq	r9, r1, lsl #24
    51d4:	0c0f0000 	stceq	0, cr0, [pc], {-0}
    51d8:	a0000098 	mulge	r0, r8, r0
    51dc:	11000005 	tstne	r0, r5
    51e0:	00009814 	andeq	r9, r0, r4, lsl r8
    51e4:	000005ac 	andeq	r0, r0, ip, lsr #11
    51e8:	05500112 	ldrbeq	r0, [r0, #-274]	; 0xfffffeee
    51ec:	2150640c 	cmpcs	r0, ip, lsl #8
    51f0:	10000020 	andne	r0, r0, r0, lsr #32
    51f4:	00000955 	andeq	r0, r0, r5, asr r9
    51f8:	2505b301 	strcs	fp, [r5, #-769]	; 0xfffffcff
    51fc:	f4000000 	vst4.8	{d0-d3}, [r0], r0
    5200:	10000097 	mulne	r0, r7, r0
    5204:	01000000 	mrseq	r0, (UNDEF: 0)
    5208:	0002189c 	muleq	r2, ip, r8
    520c:	97fc0f00 	ldrbls	r0, [ip, r0, lsl #30]!
    5210:	05a00000 	streq	r0, [r0, #0]!
    5214:	000f0000 	andeq	r0, pc, r0
    5218:	09000098 	stmdbeq	r0, {r3, r4, r7}
    521c:	00000003 	andeq	r0, r0, r3
    5220:	0009bc0e 	andeq	fp, r9, lr, lsl #24
    5224:	06ab0100 	strteq	r0, [fp], r0, lsl #2
    5228:	000097c4 	andeq	r9, r0, r4, asr #15
    522c:	00000030 	andeq	r0, r0, r0, lsr r0
    5230:	027c9c01 	rsbseq	r9, ip, #256	; 0x100
    5234:	63130000 	tstvs	r3, #0, 0
    5238:	19ab0100 	stmibne	fp!, {r8}
    523c:	0000002c 	andeq	r0, r0, ip, lsr #32
    5240:	00003279 	andeq	r3, r0, r9, ror r2
    5244:	00003275 	andeq	r3, r0, r5, ror r2
    5248:	0097d00f 	addseq	sp, r7, pc
    524c:	0005a000 	andeq	sl, r5, r0
    5250:	97d40f00 	ldrbls	r0, [r4, r0, lsl #30]
    5254:	02db0000 	sbcseq	r0, fp, #0, 0
    5258:	e8140000 	ldmda	r4, {}	; <UNPREDICTABLE>
    525c:	b8000097 	stmdalt	r0, {r0, r1, r2, r4, r7}
    5260:	72000005 	andvc	r0, r0, #5, 0
    5264:	12000002 	andne	r0, r0, #2, 0
    5268:	0c055001 	stceq	0, cr5, [r5], {1}
    526c:	20215040 	eorcs	r5, r1, r0, asr #32
    5270:	05510112 	ldrbeq	r0, [r1, #-274]	; 0xfffffeee
    5274:	ff080074 			; <UNDEFINED> instruction: 0xff080074
    5278:	ec0f001a 	stc	0, cr0, [pc], {26}
    527c:	a0000097 	mulge	r0, r7, r0
    5280:	00000005 	andeq	r0, r0, r5
    5284:	0008a610 	andeq	sl, r8, r0, lsl r6
    5288:	05a30100 	streq	r0, [r3, #256]!	; 0x100
    528c:	00000025 	andeq	r0, r0, r5, lsr #32
    5290:	00009794 	muleq	r0, r4, r7
    5294:	00000030 	andeq	r0, r0, r0, lsr r0
    5298:	02db9c01 	sbcseq	r9, fp, #256	; 0x100
    529c:	63150000 	tstvs	r5, #0, 0
    52a0:	09a70100 	stmibeq	r7!, {r8}
    52a4:	00000025 	andeq	r0, r0, r5, lsr #32
    52a8:	00003299 	muleq	r0, r9, r2
    52ac:	00003297 	muleq	r0, r7, r2
    52b0:	00979c0f 	addseq	r9, r7, pc, lsl #24
    52b4:	0005a000 	andeq	sl, r5, r0
    52b8:	97a00f00 	strls	r0, [r0, r0, lsl #30]!
    52bc:	03090000 	movweq	r0, #36864	; 0x9000
    52c0:	b0140000 	andslt	r0, r4, r0
    52c4:	ac000097 	stcge	0, cr0, [r0], {151}	; 0x97
    52c8:	d1000005 	tstle	r0, r5
    52cc:	12000002 	andne	r0, r0, #2, 0
    52d0:	0c055001 	stceq	0, cr5, [r5], {1}
    52d4:	20215040 	eorcs	r5, r1, r0, asr #32
    52d8:	97b80f00 	ldrls	r0, [r8, r0, lsl #30]!
    52dc:	05a00000 	streq	r0, [r0, #0]!
    52e0:	10000000 	andne	r0, r0, r0
    52e4:	0000086b 	andeq	r0, r0, fp, ror #16
    52e8:	25059401 	strcs	r9, [r5, #-1025]	; 0xfffffbff
    52ec:	74000000 	strvc	r0, [r0], #-0
    52f0:	20000097 	mulcs	r0, r7, r0
    52f4:	01000000 	mrseq	r0, (UNDEF: 0)
    52f8:	0003099c 	muleq	r3, ip, r9
    52fc:	97801100 	strls	r1, [r0, r0, lsl #2]
    5300:	05ac0000 	streq	r0, [ip, #0]!
    5304:	01120000 	tsteq	r2, r0
    5308:	640c0550 	strvs	r0, [ip], #-1360	; 0xfffffab0
    530c:	00202150 	eoreq	r2, r0, r0, asr r1
    5310:	08561000 	ldmdaeq	r6, {ip}^
    5314:	8b010000 	blhi	4531c <__bss_end__+0x3ae4c>
    5318:	00002505 	andeq	r2, r0, r5, lsl #10
    531c:	00975c00 	addseq	r5, r7, r0, lsl #24
    5320:	00001800 	andeq	r1, r0, r0, lsl #16
    5324:	379c0100 	ldrcc	r0, [ip, r0, lsl #2]
    5328:	11000003 	tstne	r0, r3
    532c:	00009768 	andeq	r9, r0, r8, ror #14
    5330:	000005ac 	andeq	r0, r0, ip, lsr #11
    5334:	05500112 	ldrbeq	r0, [r0, #-274]	; 0xfffffeee
    5338:	2150640c 	cmpcs	r0, ip, lsl #8
    533c:	0e000020 	cdpeq	0, 0, cr0, cr0, cr0, {1}
    5340:	0000072f 	andeq	r0, r0, pc, lsr #14
    5344:	ac064501 	cfstr32ge	mvfx4, [r6], {1}
    5348:	b0000096 	mullt	r0, r6, r0
    534c:	01000000 	mrseq	r0, (UNDEF: 0)
    5350:	0004849c 	muleq	r4, ip, r4
    5354:	08481600 	stmdaeq	r8, {r9, sl, ip}^
    5358:	7e010000 	cdpvc	0, 0, cr0, cr1, cr0, {0}
    535c:	0000620e 	andeq	r6, r0, lr, lsl #4
    5360:	14010e00 	strne	r0, [r1], #-3584	; 0xfffff200
    5364:	000096bc 			; <UNDEFINED> instruction: 0x000096bc
    5368:	000005c4 	andeq	r0, r0, r4, asr #11
    536c:	00000373 	andeq	r0, r0, r3, ror r3
    5370:	01500112 	cmpeq	r0, r2, lsl r1
    5374:	5101123e 	tstpl	r1, lr, lsr r2
    5378:	14003201 	strne	r3, [r0], #-513	; 0xfffffdff
    537c:	000096c8 	andeq	r9, r0, r8, asr #13
    5380:	000005c4 	andeq	r0, r0, r4, asr #11
    5384:	0000038b 	andeq	r0, r0, fp, lsl #7
    5388:	01500112 	cmpeq	r0, r2, lsl r1
    538c:	5101123f 	tstpl	r1, pc, lsr r2
    5390:	0f003201 	svceq	0x00003201
    5394:	000096cc 	andeq	r9, r0, ip, asr #13
    5398:	000005a0 	andeq	r0, r0, r0, lsr #11
    539c:	0096d814 	addseq	sp, r6, r4, lsl r8
    53a0:	00053d00 	andeq	r3, r5, r0, lsl #26
    53a4:	0003b000 	andeq	fp, r3, r0
    53a8:	50011200 	andpl	r1, r1, r0, lsl #4
    53ac:	50040c05 	andpl	r0, r4, r5, lsl #24
    53b0:	01122021 	tsteq	r2, r1, lsr #32
    53b4:	00310151 	eorseq	r0, r1, r1, asr r1
    53b8:	0096dc0f 	addseq	sp, r6, pc, lsl #24
    53bc:	0005a000 	andeq	sl, r5, r0
    53c0:	96ec1400 	strbtls	r1, [ip], r0, lsl #8
    53c4:	05b80000 	ldreq	r0, [r8, #0]!
    53c8:	03d20000 	bicseq	r0, r2, #0, 0
    53cc:	01120000 	tsteq	r2, r0
    53d0:	00740250 	rsbseq	r0, r4, r0, asr r2
    53d4:	01510112 	cmpeq	r1, r2, lsl r1
    53d8:	f8140030 			; <UNDEFINED> instruction: 0xf8140030
    53dc:	b8000096 	stmdalt	r0, {r1, r2, r4, r7}
    53e0:	ee000005 	cdp	0, 0, cr0, cr0, cr5, {0}
    53e4:	12000003 	andne	r0, r0, #3, 0
    53e8:	0c055001 	stceq	0, cr5, [r5], {1}
    53ec:	20215044 	eorcs	r5, r1, r4, asr #32
    53f0:	01510112 	cmpeq	r1, r2, lsl r1
    53f4:	04140030 	ldreq	r0, [r4], #-48	; 0xffffffd0
    53f8:	b8000097 	stmdalt	r0, {r0, r1, r2, r4, r7}
    53fc:	0a000005 	beq	5418 <__code_start__-0x2be8>
    5400:	12000004 	andne	r0, r0, #4, 0
    5404:	0c055001 	stceq	0, cr5, [r5], {1}
    5408:	2021504c 	eorcs	r5, r1, ip, asr #32
    540c:	01510112 	cmpeq	r1, r2, lsl r1
    5410:	10140033 	andsne	r0, r4, r3, lsr r0
    5414:	b8000097 	stmdalt	r0, {r0, r1, r2, r4, r7}
    5418:	26000005 	strcs	r0, [r0], -r5
    541c:	12000004 	andne	r0, r0, #4, 0
    5420:	0c055001 	stceq	0, cr5, [r5], {1}
    5424:	20215050 	eorcs	r5, r1, r0, asr r0
    5428:	01510112 	cmpeq	r1, r2, lsl r1
    542c:	1c140030 	ldcne	0, cr0, [r4], {48}	; 0x30
    5430:	b8000097 	stmdalt	r0, {r0, r1, r2, r4, r7}
    5434:	43000005 	movwmi	r0, #5
    5438:	12000004 	andne	r0, r0, #4, 0
    543c:	0c055001 	stceq	0, cr5, [r5], {1}
    5440:	20215048 	eorcs	r5, r1, r8, asr #32
    5444:	02510112 	subseq	r0, r1, #-2147483644	; 0x80000004
    5448:	1400c708 	strne	ip, [r0], #-1800	; 0xfffff8f8
    544c:	00009728 	andeq	r9, r0, r8, lsr #14
    5450:	000005b8 			; <UNDEFINED> instruction: 0x000005b8
    5454:	00000461 	andeq	r0, r0, r1, ror #8
    5458:	05500112 	ldrbeq	r0, [r0, #-274]	; 0xfffffeee
    545c:	2150680c 	cmpcs	r0, ip, lsl #16
    5460:	51011220 	tstpl	r1, r0, lsr #4
    5464:	010e0a03 	tsteq	lr, r3, lsl #20
    5468:	97341400 	ldrls	r1, [r4, -r0, lsl #8]!
    546c:	05b80000 	ldreq	r0, [r8, #0]!
    5470:	047a0000 	ldrbteq	r0, [sl], #-0
    5474:	01120000 	tsteq	r2, r0
    5478:	00740250 	rsbseq	r0, r4, r0, asr r2
    547c:	01510112 	cmpeq	r1, r2, lsl r1
    5480:	380f0033 	stmdacc	pc, {r0, r1, r4, r5}	; <UNPREDICTABLE>
    5484:	a0000097 	mulge	r0, r7, r0
    5488:	00000005 	andeq	r0, r0, r5
    548c:	0009480e 	andeq	r4, r9, lr, lsl #16
    5490:	06350100 	ldrteq	r0, [r5], -r0, lsl #2
    5494:	00009838 	andeq	r9, r0, r8, lsr r8
    5498:	00000024 	andeq	r0, r0, r4, lsr #32
    549c:	04d39c01 	ldrbeq	r9, [r3], #3073	; 0xc01
    54a0:	400f0000 	andmi	r0, pc, r0
    54a4:	94000098 	strls	r0, [r0], #-152	; 0xffffff68
    54a8:	0f000001 	svceq	0x00000001
    54ac:	00009844 	andeq	r9, r0, r4, asr #16
    54b0:	000005a0 	andeq	r0, r0, r0, lsr #11
    54b4:	00985014 	addseq	r5, r8, r4, lsl r0
    54b8:	0004d300 	andeq	sp, r4, r0, lsl #6
    54bc:	0004c900 	andeq	ip, r4, r0, lsl #18
    54c0:	50011200 	andpl	r1, r1, r0, lsl #4
    54c4:	50040c05 	andpl	r0, r4, r5, lsl #24
    54c8:	01122021 	tsteq	r2, r1, lsr #32
    54cc:	fe090251 	mcr2	2, 0, r0, cr9, cr1, {2}
    54d0:	98540f00 	ldmdals	r4, {r8, r9, sl, fp}^
    54d4:	05a00000 	streq	r0, [r0, #0]!
    54d8:	17000000 	strne	r0, [r0, -r0]
    54dc:	000009b3 			; <UNDEFINED> instruction: 0x000009b3
    54e0:	6c0d3101 	stfvss	f3, [sp], {1}
    54e4:	20000096 	mulcs	r0, r6, r0
    54e8:	01000000 	mrseq	r0, (UNDEF: 0)
    54ec:	0005369c 	muleq	r5, ip, r6
    54f0:	09eb1800 	stmibeq	fp!, {fp, ip}^
    54f4:	31010000 	mrscc	r0, (UNDEF: 1)
    54f8:	00053625 	andeq	r3, r5, r5, lsr #12
    54fc:	0032b000 	eorseq	fp, r2, r0
    5500:	0032ac00 	eorseq	sl, r2, r0, lsl #24
    5504:	61761300 	cmnvs	r6, r0, lsl #6
    5508:	3101006c 	tstcc	r1, ip, rrx
    550c:	00002c34 	andeq	r2, r0, r4, lsr ip
    5510:	0032d200 	eorseq	sp, r2, r0, lsl #4
    5514:	0032ce00 	eorseq	ip, r2, r0, lsl #28
    5518:	967c1400 	ldrbtls	r1, [ip], -r0, lsl #8
    551c:	05ac0000 	streq	r0, [ip, #0]!
    5520:	05250000 	streq	r0, [r5, #-0]!
    5524:	01120000 	tsteq	r2, r0
    5528:	00740250 	rsbseq	r0, r4, r0, asr r2
    552c:	96881100 	strls	r1, [r8], r0, lsl #2
    5530:	05b80000 	ldreq	r0, [r8, #0]!
    5534:	01120000 	tsteq	r2, r0
    5538:	00740250 	rsbseq	r0, r4, r0, asr r2
    553c:	040c0000 	streq	r0, [ip], #-0
    5540:	0000053c 	andeq	r0, r0, ip, lsr r5
    5544:	09631719 	stmdbeq	r3!, {r0, r3, r4, r8, r9, sl, ip}^
    5548:	2e010000 	cdpcs	0, 0, cr0, cr1, cr0, {0}
    554c:	00968c0d 	addseq	r8, r6, sp, lsl #24
    5550:	00002000 	andeq	r2, r0, r0
    5554:	a09c0100 	addsge	r0, ip, r0, lsl #2
    5558:	18000005 	stmdane	r0, {r0, r2}
    555c:	000009eb 	andeq	r0, r0, fp, ror #19
    5560:	36242e01 	strtcc	r2, [r4], -r1, lsl #28
    5564:	f4000005 	vst4.8	{d0-d3}, [r0], r5
    5568:	f0000032 			; <UNDEFINED> instruction: 0xf0000032
    556c:	13000032 	movwne	r0, #50	; 0x32
    5570:	006c6176 	rsbeq	r6, ip, r6, ror r1
    5574:	2c332e01 	ldccs	14, cr2, [r3], #-4
    5578:	16000000 	strne	r0, [r0], -r0
    557c:	12000033 	andne	r0, r0, #51, 0	; 0x33
    5580:	14000033 	strne	r0, [r0], #-51	; 0xffffffcd
    5584:	0000969c 	muleq	r0, ip, r6
    5588:	000005ac 	andeq	r0, r0, ip, lsr #11
    558c:	0000058f 	andeq	r0, r0, pc, lsl #11
    5590:	02500112 	subseq	r0, r0, #-2147483644	; 0x80000004
    5594:	11000074 	tstne	r0, r4, ror r0
    5598:	000096a8 	andeq	r9, r0, r8, lsr #13
    559c:	000005b8 			; <UNDEFINED> instruction: 0x000005b8
    55a0:	02500112 	subseq	r0, r0, #-2147483644	; 0x80000004
    55a4:	00000074 	andeq	r0, r0, r4, ror r0
    55a8:	0007f31a 	andeq	pc, r7, sl, lsl r3	; <UNPREDICTABLE>
    55ac:	0007f300 	andeq	pc, r7, r0, lsl #6
    55b0:	069c0300 	ldreq	r0, [ip], r0, lsl #6
    55b4:	0009c61a 	andeq	ip, r9, sl, lsl r6
    55b8:	0009c600 	andeq	ip, r9, r0, lsl #12
    55bc:	0bc30300 	bleq	ff0c61c4 <__bss_end__+0xff0bbcf4>
    55c0:	00088f1a 	andeq	r8, r8, sl, lsl pc
    55c4:	00088f00 	andeq	r8, r8, r0, lsl #30
    55c8:	06ae0300 	strteq	r0, [lr], r0, lsl #6
    55cc:	0004651a 	andeq	r6, r4, sl, lsl r5
    55d0:	00046500 	andeq	r6, r4, r0, lsl #10
    55d4:	06190400 	ldreq	r0, [r9], -r0, lsl #8
    55d8:	0008e900 	andeq	lr, r8, r0, lsl #18
    55dc:	d8000400 	stmdale	r0, {sl}
    55e0:	04000013 	streq	r0, [r0], #-19	; 0xffffffed
    55e4:	0008b001 	andeq	fp, r8, r1
    55e8:	0a780c00 	beq	1e085f0 <__bss_end__+0x1dfe120>
    55ec:	097f0000 	ldmdbeq	pc!, {}^	; <UNPREDICTABLE>
    55f0:	985c0000 	ldmdals	ip, {}^	; <UNPREDICTABLE>
    55f4:	03b00000 	movseq	r0, #0, 0
    55f8:	274f0000 	strbcs	r0, [pc, -r0]
    55fc:	04020000 	streq	r0, [r2], #-0
    5600:	746e6905 	strbtvc	r6, [lr], #-2309	; 0xfffff6fb
    5604:	07040300 	streq	r0, [r4, -r0, lsl #6]
    5608:	0000019e 	muleq	r0, lr, r1
    560c:	8f060103 	svchi	0x00060103
    5610:	03000000 	movweq	r0, #0
    5614:	01d50502 	bicseq	r0, r5, r2, lsl #10
    5618:	04030000 	streq	r0, [r3], #-0
    561c:	0001c005 	andeq	ip, r1, r5
    5620:	05080300 	streq	r0, [r8, #-768]	; 0xfffffd00
    5624:	000001bb 			; <UNDEFINED> instruction: 0x000001bb
    5628:	8d080103 	stfhis	f0, [r8, #-12]
    562c:	03000000 	movweq	r0, #0
    5630:	00a40702 	adceq	r0, r4, r2, lsl #14
    5634:	65040000 	strvs	r0, [r4, #-0]
    5638:	03000002 	movweq	r0, #2
    563c:	00691934 	rsbeq	r1, r9, r4, lsr r9
    5640:	04030000 	streq	r0, [r3], #-0
    5644:	00019907 	andeq	r9, r1, r7, lsl #18
    5648:	07080300 	streq	r0, [r8, -r0, lsl #6]
    564c:	00000194 	muleq	r0, r4, r1
    5650:	96080103 	strls	r0, [r8], -r3, lsl #2
    5654:	05000000 	streq	r0, [r0, #-0]
    5658:	00000077 	andeq	r0, r0, r7, ror r0
    565c:	9a040803 	bls	107670 <__bss_end__+0xfd1a0>
    5660:	0600000a 	streq	r0, [r0], -sl
    5664:	04070704 	streq	r0, [r7], #-1796	; 0xfffff8fc
    5668:	0000002c 	andeq	r0, r0, ip, lsr #32
    566c:	a4061f01 	strge	r1, [r6], #-3841	; 0xfffff0ff
    5670:	08000000 	stmdaeq	r0, {}	; <UNPREDICTABLE>
    5674:	000009f6 	strdeq	r0, [r0], -r6
    5678:	00200000 	eoreq	r0, r0, r0
    567c:	062d0900 	strteq	r0, [sp], -r0, lsl #18
    5680:	22010000 	andcs	r0, r1, #0, 0
    5684:	0000770d 	andeq	r7, r0, sp, lsl #14
    5688:	0a220a00 	beq	887e90 <__bss_end__+0x87d9c0>
    568c:	23010000 	movwcs	r0, #4096	; 0x1000
    5690:	0000c20e 	andeq	ip, r0, lr, lsl #4
    5694:	bc030500 	cfstr32lt	mvfx0, [r3], {-0}
    5698:	0b0000a0 	bleq	5920 <__code_start__-0x26e0>
    569c:	00007704 	andeq	r7, r0, r4, lsl #14
    56a0:	09d40a00 	ldmibeq	r4, {r9, fp}^
    56a4:	24010000 	strcs	r0, [r1], #-0
    56a8:	0000c20e 	andeq	ip, r0, lr, lsl #4
    56ac:	c0030500 	andgt	r0, r3, r0, lsl #10
    56b0:	0a0000a0 	beq	5938 <__code_start__-0x26c8>
    56b4:	00000a19 	andeq	r0, r0, r9, lsl sl
    56b8:	c20e2501 	andgt	r2, lr, #4194304	; 0x400000
    56bc:	05000000 	streq	r0, [r0, #-0]
    56c0:	00a0c403 	adceq	ip, r0, r3, lsl #8
    56c4:	0a2e0c00 	beq	b886cc <__bss_end__+0xb7e1fc>
    56c8:	75010000 	strvc	r0, [r1, #-0]
    56cc:	009bac06 	addseq	sl, fp, r6, lsl #24
    56d0:	00006000 	andeq	r6, r0, r0
    56d4:	649c0100 	ldrvs	r0, [ip], #256	; 0x100
    56d8:	0d000001 	stceq	0, cr0, [r0, #-4]
    56dc:	75010070 	strvc	r0, [r1, #-112]	; 0xffffff90
    56e0:	00008a16 	andeq	r8, r0, r6, lsl sl
    56e4:	00333a00 	eorseq	r3, r3, r0, lsl #20
    56e8:	00333400 	eorseq	r3, r3, r0, lsl #8
    56ec:	05f20e00 	ldrbeq	r0, [r2, #3584]!	; 0xe00
    56f0:	01740000 	cmneq	r4, r0
    56f4:	03050000 	movweq	r0, #20480	; 0x5000
    56f8:	0000a0ac 	andeq	sl, r0, ip, lsr #1
    56fc:	009bf80f 	addseq	pc, fp, pc, lsl #16
    5700:	0008bc00 	andeq	fp, r8, r0, lsl #24
    5704:	00015a00 	andeq	r5, r1, r0, lsl #20
    5708:	50011000 	andpl	r1, r1, r0
    570c:	a0240305 	eorge	r0, r4, r5, lsl #6
    5710:	01100000 	tsteq	r0, r0
    5714:	bc030551 	cfstr32lt	mvfx0, [r3], {81}	; 0x51
    5718:	1000009e 	mulne	r0, lr, r0
    571c:	03055201 	movweq	r5, #20993	; 0x5201
    5720:	0000a0ac 	andeq	sl, r0, ip, lsr #1
    5724:	02530110 	subseq	r0, r3, #4
    5728:	02107708 	andseq	r7, r0, #8, 14	; 0x200000
    572c:	f303007d 	vqadd.u8	q0, <illegal reg q1.5>, <illegal reg q14.5>
    5730:	11005001 	tstne	r0, r1
    5734:	00009bfc 	strdeq	r9, [r0], -ip
    5738:	000008c8 	andeq	r0, r0, r8, asr #17
    573c:	007e1200 	rsbseq	r1, lr, r0, lsl #4
    5740:	01740000 	cmneq	r4, r0
    5744:	2c130000 	ldccs	0, cr0, [r3], {-0}
    5748:	09000000 	stmdbeq	r0, {}	; <UNPREDICTABLE>
    574c:	01640500 	cmneq	r4, r0, lsl #10
    5750:	ff140000 			; <UNDEFINED> instruction: 0xff140000
    5754:	01000009 	tsteq	r0, r9
    5758:	9b980672 	blls	fe607128 <__bss_end__+0xfe5fcc58>
    575c:	00140000 	andseq	r0, r4, r0
    5760:	9c010000 	stcls	0, cr0, [r1], {-0}
    5764:	0009f00c 	andeq	pc, r9, ip
    5768:	066f0100 	strbteq	r0, [pc], -r0, lsl #2
    576c:	00009b94 	muleq	r0, r4, fp
    5770:	00000004 	andeq	r0, r0, r4
    5774:	01ae9c01 			; <UNDEFINED> instruction: 0x01ae9c01
    5778:	70150000 	andsvc	r0, r5, r0
    577c:	126f0100 	rsbne	r0, pc, #0
    5780:	0000008a 	andeq	r0, r0, sl, lsl #1
    5784:	16005001 	strne	r5, [r0], -r1
    5788:	00000a60 	andeq	r0, r0, r0, ror #20
    578c:	8a075e01 	bhi	1dcf98 <__bss_end__+0x1d2ac8>
    5790:	7c000000 	stcvc	0, cr0, [r0], {-0}
    5794:	1800009a 	stmdane	r0, {r1, r3, r4, r7}
    5798:	01000001 	tsteq	r0, r1
    579c:	00042c9c 	muleq	r4, ip, ip
    57a0:	09e31700 	stmibeq	r3!, {r8, r9, sl, ip}^
    57a4:	5e010000 	cdppl	0, 0, cr0, cr1, cr0, {0}
    57a8:	00002c20 	andeq	r2, r0, r0, lsr #24
    57ac:	00337b00 	eorseq	r7, r3, r0, lsl #22
    57b0:	00336700 	eorseq	r6, r3, r0, lsl #14
    57b4:	0a381700 	beq	e0b3bc <__bss_end__+0xe00eec>
    57b8:	5e010000 	cdppl	0, 0, cr0, cr1, cr0, {0}
    57bc:	00002c31 	andeq	r2, r0, r1, lsr ip
    57c0:	00341400 	eorseq	r1, r4, r0, lsl #8
    57c4:	00340000 	eorseq	r0, r4, r0
    57c8:	05f20e00 	ldrbeq	r0, [r2, #3584]!	; 0xe00
    57cc:	043c0000 	ldrteq	r0, [ip], #-0
    57d0:	03050000 	movweq	r0, #20480	; 0x5000
    57d4:	0000a094 	muleq	r0, r4, r0
    57d8:	01006818 	tsteq	r0, r8, lsl r8
    57dc:	002c0e66 	eoreq	r0, ip, r6, ror #28
    57e0:	34ca0000 	strbcc	r0, [sl], #0
    57e4:	34be0000 	ldrtcc	r0, [lr], #0
    57e8:	54190000 	ldrpl	r0, [r9], #-0
    57ec:	8c000008 	stchi	0, cr0, [r0], {8}
    57f0:	0400009a 	streq	r0, [r0], #-154	; 0xffffff66
    57f4:	00009a8c 	andeq	r9, r0, ip, lsl #21
    57f8:	00000004 	andeq	r0, r0, r4
    57fc:	38056001 	stmdacc	r5, {r0, sp, lr}
    5800:	1a000002 	bne	5810 <__code_start__-0x27f0>
    5804:	00000865 	andeq	r0, r0, r5, ror #16
    5808:	0000351e 	andeq	r3, r0, lr, lsl r5
    580c:	0000351c 	andeq	r3, r0, ip, lsl r5
    5810:	08961900 	ldmeq	r6, {r8, fp, ip}
    5814:	9a980000 	bls	fe60581c <__bss_end__+0xfe5fb34c>
    5818:	98020000 	stmdals	r2, {}	; <UNPREDICTABLE>
    581c:	0800009a 	stmdaeq	r0, {r1, r3, r4, r7}
    5820:	01000000 	mrseq	r0, (UNDEF: 0)
    5824:	026c1161 	rsbeq	r1, ip, #1073741848	; 0x40000018
    5828:	b11a0000 	tstlt	sl, r0
    582c:	33000008 	movwcc	r0, #8
    5830:	31000035 	tstcc	r0, r5, lsr r0
    5834:	1a000035 	bne	5910 <__code_start__-0x26f0>
    5838:	000008a7 	andeq	r0, r0, r7, lsr #17
    583c:	00003549 	andeq	r3, r0, r9, asr #10
    5840:	00003547 	andeq	r3, r0, r7, asr #10
    5844:	081f1b00 	ldmdaeq	pc, {r8, r9, fp, ip}	; <UNPREDICTABLE>
    5848:	9aa80000 	bls	fea05850 <__bss_end__+0xfe9fb380>
    584c:	a0010000 	andge	r0, r1, r0
    5850:	01000013 	tsteq	r0, r3, lsl r0
    5854:	030a0967 	movweq	r0, #43367	; 0xa967
    5858:	3a1a0000 	bcc	685860 <__bss_end__+0x67b390>
    585c:	62000008 	andvs	r0, r0, #8, 0
    5860:	5c000035 	stcpl	0, cr0, [r0], {53}	; 0x35
    5864:	1a000035 	bne	5940 <__code_start__-0x26c0>
    5868:	00000830 	andeq	r0, r0, r0, lsr r8
    586c:	000035a9 	andeq	r3, r0, r9, lsr #11
    5870:	000035a1 	andeq	r3, r0, r1, lsr #11
    5874:	0013a01c 	andseq	sl, r3, ip, lsl r0
    5878:	08541900 	ldmdaeq	r4, {r8, fp, ip}^
    587c:	9aa80000 	bls	fea05884 <__bss_end__+0xfe9fb3b4>
    5880:	a8040000 	stmdage	r4, {}	; <UNPREDICTABLE>
    5884:	0400009a 	streq	r0, [r0], #-154	; 0xffffff66
    5888:	01000000 	mrseq	r0, (UNDEF: 0)
    588c:	02c70511 	sbceq	r0, r7, #71303168	; 0x4400000
    5890:	651a0000 	ldrvs	r0, [sl, #-0]
    5894:	e7000008 	str	r0, [r0, -r8]
    5898:	e5000035 	str	r0, [r0, #-53]	; 0xffffffcb
    589c:	00000035 	andeq	r0, r0, r5, lsr r0
    58a0:	009b400f 	addseq	r4, fp, pc
    58a4:	0008bc00 	andeq	fp, r8, r0, lsl #24
    58a8:	0002ff00 	andeq	pc, r2, r0, lsl #30
    58ac:	50011000 	andpl	r1, r1, r0
    58b0:	9d480305 	stclls	3, cr0, [r8, #-20]	; 0xffffffec
    58b4:	01100000 	tsteq	r0, r0
    58b8:	bc030551 	cfstr32lt	mvfx0, [r3], {81}	; 0x51
    58bc:	1000009e 	mulne	r0, lr, r0
    58c0:	03055201 	movweq	r5, #20993	; 0x5201
    58c4:	0000a0a4 	andeq	sl, r0, r4, lsr #1
    58c8:	01530110 	cmpeq	r3, r0, lsl r1
    58cc:	7d021041 	stcvc	0, cr1, [r2, #-260]	; 0xfffffefc
    58d0:	d0030500 	andle	r0, r3, r0, lsl #10
    58d4:	0000009f 	muleq	r0, pc, r0	; <UNPREDICTABLE>
    58d8:	009b4411 	addseq	r4, fp, r1, lsl r4
    58dc:	0008c800 	andeq	ip, r8, r0, lsl #16
    58e0:	19000000 	stmdbne	r0, {}	; <UNPREDICTABLE>
    58e4:	00000870 	andeq	r0, r0, r0, ror r8
    58e8:	00009ac0 	andeq	r9, r0, r0, asr #21
    58ec:	009ac003 	addseq	ip, sl, r3
    58f0:	00000400 	andeq	r0, r0, r0, lsl #8
    58f4:	05680100 	strbeq	r0, [r8, #-256]!	; 0xffffff00
    58f8:	0000033e 	andeq	r0, r0, lr, lsr r3
    58fc:	00088b1a 	andeq	r8, r8, sl, lsl fp
    5900:	0035fc00 	eorseq	pc, r5, r0, lsl #24
    5904:	0035fa00 	eorseq	pc, r5, r0, lsl #20
    5908:	08811a00 	stmeq	r1, {r9, fp, ip}
    590c:	36110000 	ldrcc	r0, [r1], -r0
    5910:	360f0000 	strcc	r0, [pc], -r0
    5914:	0f000000 	svceq	0x00000000
    5918:	00009ad8 	ldrdeq	r9, [r0], -r8
    591c:	00000441 	andeq	r0, r0, r1, asr #8
    5920:	00000353 	andeq	r0, r0, r3, asr r3
    5924:	03500110 	cmpeq	r0, #4
    5928:	005001f3 	ldrsheq	r0, [r0], #-19	; 0xffffffed
    592c:	009afc0f 	addseq	pc, sl, pc, lsl #24
    5930:	0008bc00 	andeq	fp, r8, r0, lsl #24
    5934:	00038c00 	andeq	r8, r3, r0, lsl #24
    5938:	50011000 	andpl	r1, r1, r0
    593c:	9d480305 	stclls	3, cr0, [r8, #-20]	; 0xffffffec
    5940:	01100000 	tsteq	r0, r0
    5944:	bc030551 	cfstr32lt	mvfx0, [r3], {81}	; 0x51
    5948:	1000009e 	mulne	r0, lr, r0
    594c:	03055201 	movweq	r5, #20993	; 0x5201
    5950:	0000a094 	muleq	r0, r4, r0
    5954:	02530110 	subseq	r0, r3, #4
    5958:	02105f08 	andseq	r5, r0, #8, 30
    595c:	0305007d 	movweq	r0, #20605	; 0x507d
    5960:	00009ecc 	andeq	r9, r0, ip, asr #29
    5964:	9b001100 	blls	9d6c <__code_end__+0x50>
    5968:	08c80000 	stmiaeq	r8, {}^	; <UNPREDICTABLE>
    596c:	04110000 	ldreq	r0, [r1], #-0
    5970:	d400009b 	strle	r0, [r0], #-155	; 0xffffff65
    5974:	0f000008 	svceq	0x00000008
    5978:	00009b20 	andeq	r9, r0, r0, lsr #22
    597c:	000008bc 			; <UNDEFINED> instruction: 0x000008bc
    5980:	000003d7 	ldrdeq	r0, [r0], -r7
    5984:	05500110 	ldrbeq	r0, [r0, #-272]	; 0xfffffef0
    5988:	009f8803 	addseq	r8, pc, r3, lsl #16
    598c:	51011000 	mrspl	r1, (UNDEF: 1)
    5990:	9ebc0305 	cdpls	3, 11, cr0, cr12, cr5, {0}
    5994:	01100000 	tsteq	r0, r0
    5998:	94030552 	strls	r0, [r3], #-1362	; 0xfffffaae
    599c:	100000a0 	andne	r0, r0, r0, lsr #1
    59a0:	08025301 	stmdaeq	r2, {r0, r8, r9, ip, lr}
    59a4:	7d021060 	stcvc	0, cr1, [r2, #-384]	; 0xfffffe80
    59a8:	bc030500 	cfstr32lt	mvfx0, [r3], {-0}
    59ac:	0000009f 	muleq	r0, pc, r0	; <UNPREDICTABLE>
    59b0:	009b2411 	addseq	r2, fp, r1, lsl r4
    59b4:	0008c800 	andeq	ip, r8, r0, lsl #16
    59b8:	9b481100 	blls	1209dc0 <__bss_end__+0x11ff8f0>
    59bc:	08d40000 	ldmeq	r4, {}^	; <UNPREDICTABLE>
    59c0:	640f0000 	strvs	r0, [pc], #-0	; 59c8 <__code_start__-0x2638>
    59c4:	bc00009b 	stclt	0, cr0, [r0], {155}	; 0x9b
    59c8:	22000008 	andcs	r0, r0, #8, 0
    59cc:	10000004 	andne	r0, r0, r4
    59d0:	03055001 	movweq	r5, #20481	; 0x5001
    59d4:	00009fdc 	ldrdeq	r9, [r0], -ip
    59d8:	05510110 	ldrbeq	r0, [r1, #-272]	; 0xfffffef0
    59dc:	009ebc03 	addseq	fp, lr, r3, lsl #24
    59e0:	52011000 	andpl	r1, r1, #0, 0
    59e4:	a0940305 	addsge	r0, r4, r5, lsl #6
    59e8:	01100000 	tsteq	r0, r0
    59ec:	68080253 	stmdavs	r8, {r0, r1, r4, r6, r9}
    59f0:	007d0210 	rsbseq	r0, sp, r0, lsl r2
    59f4:	a0080305 	andge	r0, r8, r5, lsl #6
    59f8:	11000000 	mrsne	r0, (UNDEF: 0)
    59fc:	00009b68 	andeq	r9, r0, r8, ror #22
    5a00:	000008c8 	andeq	r0, r0, r8, asr #17
    5a04:	007e1200 	rsbseq	r1, lr, r0, lsl #4
    5a08:	043c0000 	ldrteq	r0, [ip], #-0
    5a0c:	2c130000 	ldccs	0, cr0, [r3], {-0}
    5a10:	0f000000 	svceq	0x00000000
    5a14:	042c0500 	strteq	r0, [ip], #-1280	; 0xfffffb00
    5a18:	a2160000 	andsge	r0, r6, #0, 0
    5a1c:	01000002 	tsteq	r0, r2
    5a20:	008a0753 	addeq	r0, sl, r3, asr r7
    5a24:	9a180000 	bls	605a2c <__bss_end__+0x5fb55c>
    5a28:	00640000 	rsbeq	r0, r4, r0
    5a2c:	9c010000 	stcls	0, cr0, [r1], {-0}
    5a30:	00000508 	andeq	r0, r0, r8, lsl #10
    5a34:	0009e317 	andeq	lr, r9, r7, lsl r3
    5a38:	18530100 	ldmdane	r3, {r8}^
    5a3c:	0000002c 	andeq	r0, r0, ip, lsr #32
    5a40:	0000362c 	andeq	r3, r0, ip, lsr #12
    5a44:	00003624 	andeq	r3, r0, r4, lsr #12
    5a48:	0005f20e 	andeq	pc, r5, lr, lsl #4
    5a4c:	00051800 	andeq	r1, r5, r0, lsl #16
    5a50:	8c030500 	cfstr32hi	mvfx0, [r3], {-0}
    5a54:	1d0000a0 	stcne	0, cr0, [r0, #-640]	; 0xfffffd80
    5a58:	000009eb 	andeq	r0, r0, fp, ror #19
    5a5c:	8a0b5501 	bhi	2dae68 <__bss_end__+0x2d0998>
    5a60:	64000000 	strvs	r0, [r0], #-0
    5a64:	60000036 	andvs	r0, r0, r6, lsr r0
    5a68:	0f000036 	svceq	0x00000036
    5a6c:	00009a30 	andeq	r9, r0, r0, lsr sl
    5a70:	0000051d 	andeq	r0, r0, sp, lsl r5
    5a74:	000004a6 	andeq	r0, r0, r6, lsr #9
    5a78:	02500110 	subseq	r0, r0, #4
    5a7c:	0f000074 	svceq	0x00000074
    5a80:	00009a40 	andeq	r9, r0, r0, asr #20
    5a84:	000008e0 	andeq	r0, r0, r0, ror #17
    5a88:	000004c5 	andeq	r0, r0, r5, asr #9
    5a8c:	02500110 	subseq	r0, r0, #4
    5a90:	01100075 	tsteq	r0, r5, ror r0
    5a94:	10300151 	eorsne	r0, r0, r1, asr r1
    5a98:	74025201 	strvc	r5, [r2], #-513	; 0xfffffdff
    5a9c:	680f0000 	stmdavs	pc, {}	; <UNPREDICTABLE>
    5aa0:	bc00009a 	stclt	0, cr0, [r0], {154}	; 0x9a
    5aa4:	fe000008 	cdp2	0, 0, cr0, cr0, cr8, {0}
    5aa8:	10000004 	andne	r0, r0, r4
    5aac:	03055001 	movweq	r5, #20481	; 0x5001
    5ab0:	00009d48 	andeq	r9, r0, r8, asr #26
    5ab4:	05510110 	ldrbeq	r0, [r1, #-272]	; 0xfffffef0
    5ab8:	009ebc03 	addseq	fp, lr, r3, lsl #24
    5abc:	52011000 	andpl	r1, r1, #0, 0
    5ac0:	a08c0305 	addge	r0, ip, r5, lsl #6
    5ac4:	01100000 	tsteq	r0, r0
    5ac8:	54080253 	strpl	r0, [r8], #-595	; 0xfffffdad
    5acc:	007d0210 	rsbseq	r0, sp, r0, lsl r2
    5ad0:	9ecc0305 	cdpls	3, 12, cr0, cr12, cr5, {0}
    5ad4:	11000000 	mrsne	r0, (UNDEF: 0)
    5ad8:	00009a6c 	andeq	r9, r0, ip, ror #20
    5adc:	000008c8 	andeq	r0, r0, r8, asr #17
    5ae0:	007e1200 	rsbseq	r1, lr, r0, lsl #4
    5ae4:	05180000 	ldreq	r0, [r8, #-0]
    5ae8:	2c130000 	ldccs	0, cr0, [r3], {-0}
    5aec:	07000000 	streq	r0, [r0, -r0]
    5af0:	05080500 	streq	r0, [r8, #-1280]	; 0xfffffb00
    5af4:	50160000 	andspl	r0, r6, r0
    5af8:	0100000a 	tsteq	r0, sl
    5afc:	008a0747 	addeq	r0, sl, r7, asr #14
    5b00:	99800000 	stmibls	r0, {}	; <UNPREDICTABLE>
    5b04:	00980000 	addseq	r0, r8, r0
    5b08:	9c010000 	stcls	0, cr0, [r1], {-0}
    5b0c:	0000062b 	andeq	r0, r0, fp, lsr #12
    5b10:	0009e317 	andeq	lr, r9, r7, lsl r3
    5b14:	20470100 	subcs	r0, r7, r0, lsl #2
    5b18:	0000002c 	andeq	r0, r0, ip, lsr #32
    5b1c:	00003692 	muleq	r0, r2, r6
    5b20:	00003682 	andeq	r3, r0, r2, lsl #13
    5b24:	0005f20e 	andeq	pc, r5, lr, lsl #4
    5b28:	00043c00 	andeq	r3, r4, r0, lsl #24
    5b2c:	7c030500 	cfstr32vc	mvfx0, [r3], {-0}
    5b30:	1d0000a0 	stcne	0, cr0, [r0, #-640]	; 0xfffffd80
    5b34:	000009eb 	andeq	r0, r0, fp, ror #19
    5b38:	8a0b4b01 	bhi	2d8744 <__bss_end__+0x2ce274>
    5b3c:	04000000 	streq	r0, [r0], #-0
    5b40:	00000037 	andeq	r0, r0, r7, lsr r0
    5b44:	1b000037 	blne	5c28 <__code_start__-0x23d8>
    5b48:	0000081f 	andeq	r0, r0, pc, lsl r8
    5b4c:	00009990 	muleq	r0, r0, r9
    5b50:	00138803 	andseq	r8, r3, r3, lsl #16
    5b54:	0e490100 	dvfeqe	f0, f1, f0
    5b58:	000005a3 	andeq	r0, r0, r3, lsr #11
    5b5c:	00083a1a 	andeq	r3, r8, sl, lsl sl
    5b60:	00372400 	eorseq	r2, r7, r0, lsl #8
    5b64:	00372200 	eorseq	r2, r7, r0, lsl #4
    5b68:	08301a00 	ldmdaeq	r0!, {r9, fp, ip}
    5b6c:	373c0000 	ldrcc	r0, [ip, -r0]!
    5b70:	37380000 	ldrcc	r0, [r8, -r0]!
    5b74:	881e0000 	ldmdahi	lr, {}	; <UNPREDICTABLE>
    5b78:	00000013 	andeq	r0, r0, r3, lsl r0
    5b7c:	0099d80f 	addseq	sp, r9, pc, lsl #16
    5b80:	0008bc00 	andeq	fp, r8, r0, lsl #24
    5b84:	0005dc00 	andeq	sp, r5, r0, lsl #24
    5b88:	50011000 	andpl	r1, r1, r0
    5b8c:	9d480305 	stclls	3, cr0, [r8, #-20]	; 0xffffffec
    5b90:	01100000 	tsteq	r0, r0
    5b94:	bc030551 	cfstr32lt	mvfx0, [r3], {81}	; 0x51
    5b98:	1000009e 	mulne	r0, lr, r0
    5b9c:	03055201 	movweq	r5, #20993	; 0x5201
    5ba0:	0000a07c 	andeq	sl, r0, ip, ror r0
    5ba4:	02530110 	subseq	r0, r3, #4
    5ba8:	02104808 	andseq	r4, r0, #8, 16	; 0x80000
    5bac:	0305007d 	movweq	r0, #20605	; 0x507d
    5bb0:	00009ecc 	andeq	r9, r0, ip, asr #29
    5bb4:	99dc1100 	ldmibls	ip, {r8, ip}^
    5bb8:	08c80000 	stmiaeq	r8, {}^	; <UNPREDICTABLE>
    5bbc:	fc0f0000 	stc2	0, cr0, [pc], {-0}
    5bc0:	bc000099 	stclt	0, cr0, [r0], {153}	; 0x99
    5bc4:	21000008 	tstcs	r0, r8
    5bc8:	10000006 	andne	r0, r0, r6
    5bcc:	03055001 	movweq	r5, #20481	; 0x5001
    5bd0:	00009f48 	andeq	r9, r0, r8, asr #30
    5bd4:	05510110 	ldrbeq	r0, [r1, #-272]	; 0xfffffef0
    5bd8:	009ebc03 	addseq	fp, lr, r3, lsl #24
    5bdc:	52011000 	andpl	r1, r1, #0, 0
    5be0:	a07c0305 	rsbsge	r0, ip, r5, lsl #6
    5be4:	01100000 	tsteq	r0, r0
    5be8:	4e080253 	mcrmi	2, 0, r0, cr8, cr3, {2}
    5bec:	007d0210 	rsbseq	r0, sp, r0, lsl r2
    5bf0:	5001f308 	andpl	pc, r1, r8, lsl #6
    5bf4:	f8090723 			; <UNDEFINED> instruction: 0xf8090723
    5bf8:	0011001a 	andseq	r0, r1, sl, lsl r0
    5bfc:	c800009a 	stmdagt	r0, {r1, r3, r4, r7}
    5c00:	00000008 	andeq	r0, r0, r8
    5c04:	000a820c 	andeq	r8, sl, ip, lsl #4
    5c08:	063c0100 	ldrteq	r0, [ip], -r0, lsl #2
    5c0c:	00009928 	andeq	r9, r0, r8, lsr #18
    5c10:	00000058 	andeq	r0, r0, r8, asr r0
    5c14:	06cf9c01 	strbeq	r9, [pc], r1, lsl #24
    5c18:	270a0000 	strcs	r0, [sl, -r0]
    5c1c:	0100000a 	tsteq	r0, sl
    5c20:	0025103d 	eoreq	r1, r5, sp, lsr r0
    5c24:	03050000 	movweq	r0, #20480	; 0x5000
    5c28:	0000a4cc 	andeq	sl, r0, ip, asr #9
    5c2c:	0005f20e 	andeq	pc, r5, lr, lsl #4
    5c30:	0006df00 	andeq	sp, r6, r0, lsl #30
    5c34:	6c030500 	cfstr32vs	mvfx0, [r3], {-0}
    5c38:	070000a0 	streq	r0, [r0, -r0, lsr #1]
    5c3c:	002c0407 	eoreq	r0, ip, r7, lsl #8
    5c40:	42010000 	andmi	r0, r1, #0, 0
    5c44:	00067a0a 	andeq	r7, r6, sl, lsl #20
    5c48:	0a4a0800 	beq	1287c50 <__bss_end__+0x127d780>
    5c4c:	00000000 	andeq	r0, r0, r0
    5c50:	0f000010 	svceq	0x00000010
    5c54:	00009954 	andeq	r9, r0, r4, asr r9
    5c58:	000006e4 	andeq	r0, r0, r4, ror #13
    5c5c:	00000696 	muleq	r0, r6, r6
    5c60:	03500110 	cmpeq	r0, #4
    5c64:	10244040 	eorne	r4, r4, r0, asr #32
    5c68:	40035101 	andmi	r5, r3, r1, lsl #2
    5c6c:	0f002448 	svceq	0x00002448
    5c70:	0000996c 	andeq	r9, r0, ip, ror #18
    5c74:	000008bc 			; <UNDEFINED> instruction: 0x000008bc
    5c78:	000006c5 	andeq	r0, r0, r5, asr #13
    5c7c:	05500110 	ldrbeq	r0, [r0, #-272]	; 0xfffffef0
    5c80:	009f1803 	addseq	r1, pc, r3, lsl #16
    5c84:	51011000 	mrspl	r1, (UNDEF: 1)
    5c88:	9ebc0305 	cdpls	3, 11, cr0, cr12, cr5, {0}
    5c8c:	01100000 	tsteq	r0, r0
    5c90:	6c030552 	cfstr32vs	mvfx0, [r3], {82}	; 0x52
    5c94:	100000a0 	andne	r0, r0, r0, lsr #1
    5c98:	08025301 	stmdaeq	r2, {r0, r8, r9, ip, lr}
    5c9c:	70110040 	andsvc	r0, r1, r0, asr #32
    5ca0:	c8000099 	stmdagt	r0, {r0, r3, r4, r7}
    5ca4:	00000008 	andeq	r0, r0, r8
    5ca8:	00007e12 	andeq	r7, r0, r2, lsl lr
    5cac:	0006df00 	andeq	sp, r6, r0, lsl #30
    5cb0:	002c1300 	eoreq	r1, ip, r0, lsl #6
    5cb4:	000c0000 	andeq	r0, ip, r0
    5cb8:	0006cf05 	andeq	ip, r6, r5, lsl #30
    5cbc:	0ab20c00 	beq	fec88cc4 <__bss_end__+0xfec7e7f4>
    5cc0:	2d010000 	stccs	0, cr0, [r1, #-0]
    5cc4:	00988c06 	addseq	r8, r8, r6, lsl #24
    5cc8:	00009c00 	andeq	r9, r0, r0, lsl #24
    5ccc:	c89c0100 	ldmgt	ip, {r8}
    5cd0:	17000007 	strne	r0, [r0, -r7]
    5cd4:	000009ea 	andeq	r0, r0, sl, ror #19
    5cd8:	2c262d01 	stccs	13, cr2, [r6], #-4
    5cdc:	6a000000 	bvs	5ce4 <__code_start__-0x231c>
    5ce0:	5c000037 	stcpl	0, cr0, [r0], {55}	; 0x37
    5ce4:	17000037 	smladxne	r0, r7, r0, r0
    5ce8:	000009df 	ldrdeq	r0, [r0], -pc	; <UNPREDICTABLE>
    5cec:	2c362d01 	ldccs	13, cr2, [r6], #-4
    5cf0:	d2000000 	andle	r0, r0, #0, 0
    5cf4:	ca000037 	bgt	5dd8 <__code_start__-0x2228>
    5cf8:	1d000037 	stcne	0, cr0, [r0, #-220]	; 0xffffff24
    5cfc:	000009eb 	andeq	r0, r0, fp, ror #19
    5d00:	c20b2e01 	andgt	r2, fp, #1, 28
    5d04:	1a000000 	bne	5d0c <__code_start__-0x22f4>
    5d08:	0c000038 	stceq	0, cr0, [r0], {56}	; 0x38
    5d0c:	0e000038 	mcreq	0, 0, r0, cr0, cr8, {1}
    5d10:	000005f2 	strdeq	r0, [r0], -r2
    5d14:	000007d8 	ldrdeq	r0, [r0], -r8
    5d18:	a0540305 	subsge	r0, r4, r5, lsl #6
    5d1c:	e40f0000 	str	r0, [pc], #-0	; 5d24 <__code_start__-0x22dc>
    5d20:	bc000098 	stclt	0, cr0, [r0], {152}	; 0x98
    5d24:	7e000008 	cdpvc	0, 0, cr0, cr0, cr8, {0}
    5d28:	10000007 	andne	r0, r0, r7
    5d2c:	03055001 	movweq	r5, #20481	; 0x5001
    5d30:	00009d48 	andeq	r9, r0, r8, asr #26
    5d34:	05510110 	ldrbeq	r0, [r1, #-272]	; 0xfffffef0
    5d38:	009ebc03 	addseq	fp, lr, r3, lsl #24
    5d3c:	52011000 	andpl	r1, r1, #0, 0
    5d40:	a0540305 	subsge	r0, r4, r5, lsl #6
    5d44:	01100000 	tsteq	r0, r0
    5d48:	30080253 	andcc	r0, r8, r3, asr r2
    5d4c:	007d0210 	rsbseq	r0, sp, r0, lsl r2
    5d50:	9ec80305 	cdpls	3, 12, cr0, cr8, cr5, {0}
    5d54:	11000000 	mrsne	r0, (UNDEF: 0)
    5d58:	000098e8 	andeq	r9, r0, r8, ror #17
    5d5c:	000008c8 	andeq	r0, r0, r8, asr #17
    5d60:	00990c0f 	addseq	r0, r9, pc, lsl #24
    5d64:	0008bc00 	andeq	fp, r8, r0, lsl #24
    5d68:	0007be00 	andeq	fp, r7, r0, lsl #28
    5d6c:	50011000 	andpl	r1, r1, r0
    5d70:	9ed40305 	cdpls	3, 13, cr0, cr4, cr5, {0}
    5d74:	01100000 	tsteq	r0, r0
    5d78:	bc030551 	cfstr32lt	mvfx0, [r3], {81}	; 0x51
    5d7c:	1000009e 	mulne	r0, lr, r0
    5d80:	03055201 	movweq	r5, #20993	; 0x5201
    5d84:	0000a054 	andeq	sl, r0, r4, asr r0
    5d88:	02530110 	subseq	r0, r3, #4
    5d8c:	02103408 	andseq	r3, r0, #8, 8	; 0x8000000
    5d90:	f303007d 	vqadd.u8	q0, <illegal reg q1.5>, <illegal reg q14.5>
    5d94:	11005001 	tstne	r0, r1
    5d98:	00009910 	andeq	r9, r0, r0, lsl r9
    5d9c:	000008c8 	andeq	r0, r0, r8, asr #17
    5da0:	007e1200 	rsbseq	r1, lr, r0, lsl #4
    5da4:	07d80000 	ldrbeq	r0, [r8, r0]
    5da8:	2c130000 	ldccs	0, cr0, [r3], {-0}
    5dac:	16000000 	strne	r0, [r0], -r0
    5db0:	07c80500 	strbeq	r0, [r8, r0, lsl #10]
    5db4:	a11f0000 	tstge	pc, r0
    5db8:	0100000a 	tsteq	r0, sl
    5dbc:	008a072a 	addeq	r0, sl, sl, lsr #14
    5dc0:	987c0000 	ldmdals	ip!, {}^	; <UNPREDICTABLE>
    5dc4:	00100000 	andseq	r0, r0, r0
    5dc8:	9c010000 	stcls	0, cr0, [r1], {-0}
    5dcc:	0009cc1f 	andeq	ip, r9, pc, lsl ip
    5dd0:	07290100 	streq	r0, [r9, -r0, lsl #2]!
    5dd4:	0000008a 	andeq	r0, r0, sl, lsl #1
    5dd8:	0000986c 	andeq	r9, r0, ip, ror #16
    5ddc:	00000010 	andeq	r0, r0, r0, lsl r0
    5de0:	111f9c01 	tstne	pc, r1, lsl #24
    5de4:	0100000a 	tsteq	r0, sl
    5de8:	008a0728 	addeq	r0, sl, r8, lsr #14
    5dec:	985c0000 	ldmdals	ip, {}^	; <UNPREDICTABLE>
    5df0:	00100000 	andseq	r0, r0, r0
    5df4:	9c010000 	stcls	0, cr0, [r1], {-0}
    5df8:	000a0920 	andeq	r0, sl, r0, lsr #18
    5dfc:	18100100 	ldmdane	r0, {r8}
    5e00:	0000002c 	andeq	r0, r0, ip, lsr #32
    5e04:	00085403 	andeq	r5, r8, r3, lsl #8
    5e08:	00782100 	rsbseq	r2, r8, r0, lsl #2
    5e0c:	2c291001 	stccs	0, cr1, [r9], #-4
    5e10:	21000000 	mrscs	r0, (UNDEF: 0)
    5e14:	1001006e 	andne	r0, r1, lr, rrx
    5e18:	00002c35 	andeq	r2, r0, r5, lsr ip
    5e1c:	05f20e00 	ldrbeq	r0, [r2, #3584]!	; 0xe00
    5e20:	05180000 	ldreq	r0, [r8, #-0]
    5e24:	03050000 	movweq	r0, #20480	; 0x5000
    5e28:	0000a0a4 	andeq	sl, r0, r4, lsr #1
    5e2c:	0a702000 	beq	1c0de34 <__bss_end__+0x1c03964>
    5e30:	0d010000 	stceq	0, cr0, [r1, #-0]
    5e34:	00002c18 	andeq	r2, r0, r8, lsl ip
    5e38:	08700300 	ldmdaeq	r0!, {r8, r9}^
    5e3c:	78210000 	stmdavc	r1!, {}	; <UNPREDICTABLE>
    5e40:	290d0100 	stmdbcs	sp, {r8}
    5e44:	0000002c 	andeq	r0, r0, ip, lsr #32
    5e48:	0a8f2000 	beq	fe3cde50 <__bss_end__+0xfe3c3980>
    5e4c:	07010000 	streq	r0, [r1, -r0]
    5e50:	00002c18 	andeq	r2, r0, r8, lsl ip
    5e54:	08960300 	ldmeq	r6, {r8, r9}
    5e58:	78210000 	stmdavc	r1!, {}	; <UNPREDICTABLE>
    5e5c:	2c070100 	stfcss	f0, [r7], {-0}
    5e60:	0000002c 	andeq	r0, r0, ip, lsr #32
    5e64:	01006e21 	tsteq	r0, r1, lsr #28
    5e68:	002c3807 	eoreq	r3, ip, r7, lsl #16
    5e6c:	20000000 	andcs	r0, r0, r0
    5e70:	00000a42 	andeq	r0, r0, r2, asr #20
    5e74:	5d180401 	cfldrspl	mvf0, [r8, #-4]
    5e78:	03000000 	movweq	r0, #0
    5e7c:	000008bc 			; <UNDEFINED> instruction: 0x000008bc
    5e80:	01007821 	tsteq	r0, r1, lsr #16
    5e84:	005d2904 	subseq	r2, sp, r4, lsl #18
    5e88:	79210000 	stmdbvc	r1!, {}	; <UNPREDICTABLE>
    5e8c:	35040100 	strcc	r0, [r4, #-256]	; 0xffffff00
    5e90:	0000005d 	andeq	r0, r0, sp, asr r0
    5e94:	055a2200 	ldrbeq	r2, [sl, #-512]	; 0xfffffe00
    5e98:	055a0000 	ldrbeq	r0, [sl, #-0]
    5e9c:	28020000 	stmdacs	r2, {}	; <UNPREDICTABLE>
    5ea0:	05ff2206 	ldrbeq	r2, [pc, #518]!	; 60ae <__code_start__-0x1f52>
    5ea4:	05ff0000 	ldrbeq	r0, [pc, #0]!	; 5eac <__code_start__-0x2154>
    5ea8:	6e020000 	cdpvs	0, 0, cr0, cr2, cr0, {0}
    5eac:	0ac92206 	beq	ff24e6cc <__bss_end__+0xff2441fc>
    5eb0:	0ac90000 	beq	ff245eb8 <__bss_end__+0xff23b9e8>
    5eb4:	1d020000 	stcne	0, cr0, [r2, #-0]
    5eb8:	02412206 	subeq	r2, r1, #1610612736	; 0x60000000
    5ebc:	02410000 	subeq	r0, r1, #0, 0
    5ec0:	f2020000 	vhadd.s8	d0, d2, d0
    5ec4:	01490007 	cmpeq	r9, r7
    5ec8:	00040000 	andeq	r0, r4, r0
    5ecc:	000015fb 	strdeq	r1, [r0], -fp
    5ed0:	049a0104 	ldreq	r0, [sl], #260	; 0x104
    5ed4:	f60c0000 			; <UNDEFINED> instruction: 0xf60c0000
    5ed8:	2e00000a 	cdpcs	0, 0, cr0, cr0, cr10, {0}
    5edc:	0c000004 	stceq	0, cr0, [r0], {4}
    5ee0:	3c00009c 	stccc	0, cr0, [r0], {156}	; 0x9c
    5ee4:	e5000000 	str	r0, [r0, #-0]
    5ee8:	0200002a 	andeq	r0, r0, #42, 0	; 0x2a
    5eec:	6e690504 	cdpvs	5, 6, cr0, cr9, cr4, {0}
    5ef0:	04030074 	streq	r0, [r3], #-116	; 0xffffff8c
    5ef4:	00019e07 	andeq	r9, r1, r7, lsl #28
    5ef8:	06010300 	streq	r0, [r1], -r0, lsl #6
    5efc:	0000008f 	andeq	r0, r0, pc, lsl #1
    5f00:	d5050203 	strle	r0, [r5, #-515]	; 0xfffffdfd
    5f04:	03000001 	movweq	r0, #1
    5f08:	01c00504 	biceq	r0, r0, r4, lsl #10
    5f0c:	08030000 	stmdaeq	r3, {}	; <UNPREDICTABLE>
    5f10:	0001bb05 	andeq	fp, r1, r5, lsl #22
    5f14:	08010300 	stmdaeq	r1, {r8, r9}
    5f18:	0000008d 	andeq	r0, r0, sp, lsl #1
    5f1c:	a4070203 	strge	r0, [r7], #-515	; 0xfffffdfd
    5f20:	03000000 	movweq	r0, #0
    5f24:	01990704 	orrseq	r0, r9, r4, lsl #14
    5f28:	08030000 	stmdaeq	r3, {}	; <UNPREDICTABLE>
    5f2c:	00019407 	andeq	r9, r1, r7, lsl #8
    5f30:	00250400 	eoreq	r0, r5, r0, lsl #8
    5f34:	007a0000 	rsbseq	r0, sl, r0
    5f38:	25050000 	strcs	r0, [r5, #-0]
    5f3c:	00000000 	andeq	r0, r0, r0
    5f40:	0001c906 	andeq	ip, r1, r6, lsl #18
    5f44:	0e1c0200 	cdpeq	2, 1, cr0, cr12, cr0, {0}
    5f48:	00000086 	andeq	r0, r0, r6, lsl #1
    5f4c:	006b0407 	rsbeq	r0, fp, r7, lsl #8
    5f50:	25040000 	strcs	r0, [r4, #-0]
    5f54:	9b000000 	blls	5f5c <__code_start__-0x20a4>
    5f58:	05000000 	streq	r0, [r0, #-0]
    5f5c:	0000009b 	muleq	r0, fp, r0
    5f60:	a8040700 	stmdage	r4, {r8, r9, sl}
    5f64:	03000000 	movweq	r0, #0
    5f68:	00960801 	addseq	r0, r6, r1, lsl #16
    5f6c:	a1080000 	mrsge	r0, (UNDEF: 8)
    5f70:	06000000 	streq	r0, [r0], -r0
    5f74:	00000598 	muleq	r0, r8, r5
    5f78:	b90e2102 	stmdblt	lr, {r1, r8, sp}
    5f7c:	07000000 	streq	r0, [r0, -r0]
    5f80:	00008c04 	andeq	r8, r0, r4, lsl #24
    5f84:	007a0900 	rsbseq	r0, sl, r0, lsl #18
    5f88:	06010000 	streq	r0, [r1], -r0
    5f8c:	c8030507 	stmdagt	r3, {r0, r1, r2, r8, sl}
    5f90:	0a0000a0 	beq	6218 <__code_start__-0x1de8>
    5f94:	00000ae9 	andeq	r0, r0, r9, ror #21
    5f98:	38060b01 	stmdacc	r6, {r0, r8, r9, fp}
    5f9c:	1000009c 	mulne	r0, ip, r0
    5fa0:	01000000 	mrseq	r0, (UNDEF: 0)
    5fa4:	0000f19c 	muleq	r0, ip, r1
    5fa8:	70660b00 	rsbvc	r0, r6, r0, lsl #22
    5fac:	190b0100 	stmdbne	fp, {r8}
    5fb0:	00000086 	andeq	r0, r0, r6, lsl #1
    5fb4:	0c005001 	stceq	0, cr5, [r0], {1}
    5fb8:	00000ac9 	andeq	r0, r0, r9, asr #21
    5fbc:	20060801 	andcs	r0, r6, r1, lsl #16
    5fc0:	1800009c 	stmdane	r0, {r2, r3, r4, r7}
    5fc4:	01000000 	mrseq	r0, (UNDEF: 0)
    5fc8:	0ad80d9c 	beq	ff609640 <__bss_end__+0xff5ff170>
    5fcc:	03010000 	movweq	r0, #4096	; 0x1000
    5fd0:	0000250c 	andeq	r2, r0, ip, lsl #10
    5fd4:	009c0c00 	addseq	r0, ip, r0, lsl #24
    5fd8:	00001400 	andeq	r1, r0, r0, lsl #8
    5fdc:	409c0100 	addsmi	r0, ip, r0, lsl #2
    5fe0:	0e000001 	cdpeq	0, 0, cr0, cr0, cr1, {0}
    5fe4:	03010063 	movweq	r0, #4195	; 0x1063
    5fe8:	00002521 	andeq	r2, r0, r1, lsr #10
    5fec:	00387e00 	eorseq	r7, r8, r0, lsl #28
    5ff0:	00387a00 	eorseq	r7, r8, r0, lsl #20
    5ff4:	9c180f00 	ldcls	15, cr0, [r8], {-0}
    5ff8:	01400000 	mrseq	r0, (UNDEF: 64)
    5ffc:	01100000 	tsteq	r0, r0
    6000:	00740250 	rsbseq	r0, r4, r0, asr r2
    6004:	bc110000 	ldclt	0, cr0, [r1], {-0}
    6008:	bc000009 	stclt	0, cr0, [r0], {9}
    600c:	02000009 	andeq	r0, r0, #9, 0
    6010:	37000642 	strcc	r0, [r0, -r2, asr #12]
    6014:	04000001 	streq	r0, [r0], #-1
    6018:	00170a00 	andseq	r0, r7, r0, lsl #20
    601c:	9a010400 	bls	47024 <__bss_end__+0x3cb54>
    6020:	0c000004 	stceq	0, cr0, [r0], {4}
    6024:	00000b07 	andeq	r0, r0, r7, lsl #22
    6028:	0000042e 	andeq	r0, r0, lr, lsr #8
    602c:	00009c48 	andeq	r9, r0, r8, asr #24
    6030:	0000002c 	andeq	r0, r0, ip, lsr #32
    6034:	00002b87 	andeq	r2, r0, r7, lsl #23
    6038:	69050402 	stmdbvs	r5, {r1, sl}
    603c:	0300746e 	movweq	r7, #1134	; 0x46e
    6040:	019e0704 	orrseq	r0, lr, r4, lsl #14
    6044:	01030000 	mrseq	r0, (UNDEF: 3)
    6048:	00008f06 	andeq	r8, r0, r6, lsl #30
    604c:	05020300 	streq	r0, [r2, #-768]	; 0xfffffd00
    6050:	000001d5 	ldrdeq	r0, [r0], -r5
    6054:	c0050403 	andgt	r0, r5, r3, lsl #8
    6058:	03000001 	movweq	r0, #1
    605c:	01bb0508 			; <UNDEFINED> instruction: 0x01bb0508
    6060:	01030000 	mrseq	r0, (UNDEF: 3)
    6064:	00008d08 	andeq	r8, r0, r8, lsl #26
    6068:	07020300 	streq	r0, [r2, -r0, lsl #6]
    606c:	000000a4 	andeq	r0, r0, r4, lsr #1
    6070:	99070403 	stmdbls	r7, {r0, r1, sl}
    6074:	03000001 	movweq	r0, #1
    6078:	01940708 	orrseq	r0, r4, r8, lsl #14
    607c:	25040000 	strcs	r0, [r4, #-0]
    6080:	7a000000 	bvc	6088 <__code_start__-0x1f78>
    6084:	05000000 	streq	r0, [r0, #-0]
    6088:	00000025 	andeq	r0, r0, r5, lsr #32
    608c:	01c90600 	biceq	r0, r9, r0, lsl #12
    6090:	1c020000 	stcne	0, cr0, [r2], {-0}
    6094:	0000860e 	andeq	r8, r0, lr, lsl #12
    6098:	6b040700 	blvs	107ca0 <__bss_end__+0xfd7d0>
    609c:	04000000 	streq	r0, [r0], #-0
    60a0:	00000025 	andeq	r0, r0, r5, lsr #32
    60a4:	0000009b 	muleq	r0, fp, r0
    60a8:	00009b05 	andeq	r9, r0, r5, lsl #22
    60ac:	04070000 	streq	r0, [r7], #-0
    60b0:	000000a8 	andeq	r0, r0, r8, lsr #1
    60b4:	96080103 	strls	r0, [r8], -r3, lsl #2
    60b8:	08000000 	stmdaeq	r0, {}	; <UNPREDICTABLE>
    60bc:	000000a1 	andeq	r0, r0, r1, lsr #1
    60c0:	00059806 	andeq	r9, r5, r6, lsl #16
    60c4:	0e210200 	cdpeq	2, 2, cr0, cr1, cr0, {0}
    60c8:	000000b9 	strheq	r0, [r0], -r9
    60cc:	008c0407 	addeq	r0, ip, r7, lsl #8
    60d0:	55090000 	strpl	r0, [r9, #-0]
    60d4:	01000006 	tsteq	r0, r6
    60d8:	01340704 	teqeq	r4, r4, lsl #14
    60dc:	9c480000 	marls	acc0, r0, r8
    60e0:	002c0000 	eoreq	r0, ip, r0
    60e4:	9c010000 	stcls	0, cr0, [r1], {-0}
    60e8:	00000134 	andeq	r0, r0, r4, lsr r1
    60ec:	000b170a 	andeq	r1, fp, sl, lsl #14
    60f0:	15040100 	strne	r0, [r4, #-256]	; 0xffffff00
    60f4:	00000134 	andeq	r0, r0, r4, lsr r1
    60f8:	730b5001 	movwvc	r5, #45057	; 0xb001
    60fc:	01006372 	tsteq	r0, r2, ror r3
    6100:	009b2704 	addseq	r2, fp, r4, lsl #14
    6104:	38a00000 	stmiacc	r0!, {}	; <UNPREDICTABLE>
    6108:	389c0000 	ldmcc	ip, {}	; <UNPREDICTABLE>
    610c:	730c0000 	movwvc	r0, #49152	; 0xc000
    6110:	05010031 	streq	r0, [r1, #-49]	; 0xffffffcf
    6114:	0001340b 	andeq	r3, r1, fp, lsl #8
    6118:	0038cf00 	eorseq	ip, r8, r0, lsl #30
    611c:	0038c100 	eorseq	ip, r8, r0, lsl #2
    6120:	32730c00 	rsbscc	r0, r3, #0, 24
    6124:	11060100 	mrsne	r0, (UNDEF: 22)
    6128:	0000009b 	muleq	r0, fp, r0
    612c:	0000392e 	andeq	r3, r0, lr, lsr #18
    6130:	00003928 	andeq	r3, r0, r8, lsr #18
    6134:	0100630c 	tsteq	r0, ip, lsl #6
    6138:	00a10a07 	adceq	r0, r1, r7, lsl #20
    613c:	395f0000 	ldmdbcc	pc, {}^	; <UNPREDICTABLE>
    6140:	39590000 	ldmdbcc	r9, {}^	; <UNPREDICTABLE>
    6144:	07000000 	streq	r0, [r0, -r0]
    6148:	0000a104 	andeq	sl, r0, r4, lsl #2
    614c:	00f70000 	rscseq	r0, r7, r0
    6150:	00040000 	andeq	r0, r4, r0
    6154:	000017c0 	andeq	r1, r0, r0, asr #15
    6158:	049a0104 	ldreq	r0, [sl], #260	; 0x104
    615c:	1c0c0000 	stcne	0, cr0, [ip], {-0}
    6160:	2e00000b 	cdpcs	0, 0, cr0, cr0, cr11, {0}
    6164:	74000004 	strvc	r0, [r0], #-4
    6168:	4400009c 	strmi	r0, [r0], #-156	; 0xffffff64
    616c:	6d000000 	stcvs	0, cr0, [r0, #-0]
    6170:	0200002c 	andeq	r0, r0, #44, 0	; 0x2c
    6174:	6e690504 	cdpvs	5, 6, cr0, cr9, cr4, {0}
    6178:	04030074 	streq	r0, [r3], #-116	; 0xffffff8c
    617c:	00019e07 	andeq	r9, r1, r7, lsl #28
    6180:	06010300 	streq	r0, [r1], -r0, lsl #6
    6184:	0000008f 	andeq	r0, r0, pc, lsl #1
    6188:	d5050203 	strle	r0, [r5, #-515]	; 0xfffffdfd
    618c:	03000001 	movweq	r0, #1
    6190:	01c00504 	biceq	r0, r0, r4, lsl #10
    6194:	08030000 	stmdaeq	r3, {}	; <UNPREDICTABLE>
    6198:	0001bb05 	andeq	fp, r1, r5, lsl #22
    619c:	08010300 	stmdaeq	r1, {r8, r9}
    61a0:	0000008d 	andeq	r0, r0, sp, lsl #1
    61a4:	a4070203 	strge	r0, [r7], #-515	; 0xfffffdfd
    61a8:	03000000 	movweq	r0, #0
    61ac:	01990704 	orrseq	r0, r9, r4, lsl #14
    61b0:	08030000 	stmdaeq	r3, {}	; <UNPREDICTABLE>
    61b4:	00019407 	andeq	r9, r1, r7, lsl #8
    61b8:	00250400 	eoreq	r0, r5, r0, lsl #8
    61bc:	007a0000 	rsbseq	r0, sl, r0
    61c0:	25050000 	strcs	r0, [r5, #-0]
    61c4:	00000000 	andeq	r0, r0, r0
    61c8:	0001c906 	andeq	ip, r1, r6, lsl #18
    61cc:	0e1c0200 	cdpeq	2, 1, cr0, cr12, cr0, {0}
    61d0:	00000086 	andeq	r0, r0, r6, lsl #1
    61d4:	006b0407 	rsbeq	r0, fp, r7, lsl #8
    61d8:	25040000 	strcs	r0, [r4, #-0]
    61dc:	9b000000 	blls	61e4 <__code_start__-0x1e1c>
    61e0:	05000000 	streq	r0, [r0, #-0]
    61e4:	0000009b 	muleq	r0, fp, r0
    61e8:	a8040700 	stmdage	r4, {r8, r9, sl}
    61ec:	03000000 	movweq	r0, #0
    61f0:	00960801 	addseq	r0, r6, r1, lsl #16
    61f4:	a1080000 	mrsge	r0, (UNDEF: 8)
    61f8:	06000000 	streq	r0, [r0], -r0
    61fc:	00000598 	muleq	r0, r8, r5
    6200:	b90e2102 	stmdblt	lr, {r1, r8, sp}
    6204:	07000000 	streq	r0, [r0, -r0]
    6208:	00008c04 	andeq	r8, r0, r4, lsl #24
    620c:	06830900 	streq	r0, [r3], r0, lsl #18
    6210:	03010000 	movweq	r0, #4096	; 0x1000
    6214:	00002505 	andeq	r2, r0, r5, lsl #10
    6218:	009c7400 	addseq	r7, ip, r0, lsl #8
    621c:	00004400 	andeq	r4, r0, r0, lsl #8
    6220:	0a9c0100 	beq	fe706628 <__bss_end__+0xfe6fc158>
    6224:	03010061 	movweq	r0, #4193	; 0x1061
    6228:	00009b18 	andeq	r9, r0, r8, lsl fp
    622c:	00399600 	eorseq	r9, r9, r0, lsl #12
    6230:	00398a00 	eorseq	r8, r9, r0, lsl #20
    6234:	00620a00 	rsbeq	r0, r2, r0, lsl #20
    6238:	9b270301 	blls	9c6e44 <__bss_end__+0x9bc974>
    623c:	ea000000 	b	6244 <__code_start__-0x1dbc>
    6240:	e4000039 	str	r0, [r0], #-57	; 0xffffffc7
    6244:	00000039 	andeq	r0, r0, r9, lsr r0
    6248:	00010f00 	andeq	r0, r1, r0, lsl #30
    624c:	4f000400 	svcmi	0x00000400
    6250:	04000018 	streq	r0, [r0], #-24	; 0xffffffe8
    6254:	00049a01 	andeq	r9, r4, r1, lsl #20
    6258:	0b2c0c00 	bleq	b09260 <__bss_end__+0xafed90>
    625c:	042e0000 	strteq	r0, [lr], #-0
    6260:	9cb80000 	ldcls	0, cr0, [r8]
    6264:	00180000 	andseq	r0, r8, r0
    6268:	2d230000 	stccs	0, cr0, [r3, #-0]
    626c:	04020000 	streq	r0, [r2], #-0
    6270:	746e6905 	strbtvc	r6, [lr], #-2309	; 0xfffff6fb
    6274:	07040300 	streq	r0, [r4, -r0, lsl #6]
    6278:	0000019e 	muleq	r0, lr, r1
    627c:	8f060103 	svchi	0x00060103
    6280:	03000000 	movweq	r0, #0
    6284:	01d50502 	bicseq	r0, r5, r2, lsl #10
    6288:	04030000 	streq	r0, [r3], #-0
    628c:	0001c005 	andeq	ip, r1, r5
    6290:	05080300 	streq	r0, [r8, #-768]	; 0xfffffd00
    6294:	000001bb 			; <UNDEFINED> instruction: 0x000001bb
    6298:	8d080103 	stfhis	f0, [r8, #-12]
    629c:	03000000 	movweq	r0, #0
    62a0:	00a40702 	adceq	r0, r4, r2, lsl #14
    62a4:	04030000 	streq	r0, [r3], #-0
    62a8:	00019907 	andeq	r9, r1, r7, lsl #18
    62ac:	07080300 	streq	r0, [r8, -r0, lsl #6]
    62b0:	00000194 	muleq	r0, r4, r1
    62b4:	00002504 	andeq	r2, r0, r4, lsl #10
    62b8:	00007a00 	andeq	r7, r0, r0, lsl #20
    62bc:	00250500 	eoreq	r0, r5, r0, lsl #10
    62c0:	06000000 	streq	r0, [r0], -r0
    62c4:	000001c9 	andeq	r0, r0, r9, asr #3
    62c8:	860e1c02 	strhi	r1, [lr], -r2, lsl #24
    62cc:	07000000 	streq	r0, [r0, -r0]
    62d0:	00006b04 	andeq	r6, r0, r4, lsl #22
    62d4:	00250400 	eoreq	r0, r5, r0, lsl #8
    62d8:	009b0000 	addseq	r0, fp, r0
    62dc:	9b050000 	blls	1462e4 <__bss_end__+0x13be14>
    62e0:	00000000 	andeq	r0, r0, r0
    62e4:	00a80407 	adceq	r0, r8, r7, lsl #8
    62e8:	01030000 	mrseq	r0, (UNDEF: 3)
    62ec:	00009608 	andeq	r9, r0, r8, lsl #12
    62f0:	00a10800 	adceq	r0, r1, r0, lsl #16
    62f4:	98060000 	stmdals	r6, {}	; <UNPREDICTABLE>
    62f8:	02000005 	andeq	r0, r0, #5, 0
    62fc:	00b90e21 	adcseq	r0, r9, r1, lsr #28
    6300:	04070000 	streq	r0, [r7], #-0
    6304:	0000008c 	andeq	r0, r0, ip, lsl #1
    6308:	00065c09 	andeq	r5, r6, r9, lsl #24
    630c:	07030100 	streq	r0, [r3, -r0, lsl #2]
    6310:	0000010c 	andeq	r0, r0, ip, lsl #2
    6314:	00009cb8 			; <UNDEFINED> instruction: 0x00009cb8
    6318:	00000018 	andeq	r0, r0, r8, lsl r0
    631c:	010c9c01 	tsteq	ip, r1, lsl #24
    6320:	730a0000 	movwvc	r0, #40960	; 0xa000
    6324:	03010031 	movweq	r0, #4145	; 0x1031
    6328:	00010c15 	andeq	r0, r1, r5, lsl ip
    632c:	0b500100 	bleq	1406734 <__bss_end__+0x13fc264>
    6330:	01003273 	tsteq	r0, r3, ror r2
    6334:	009b2603 	addseq	r2, fp, r3, lsl #12
    6338:	3a190000 	bcc	646340 <__bss_end__+0x63be70>
    633c:	3a130000 	bcc	4c6344 <__bss_end__+0x4bbe74>
    6340:	730c0000 	movwvc	r0, #49152	; 0xc000
    6344:	14040100 	strne	r0, [r4], #-256	; 0xffffff00
    6348:	0000010c 	andeq	r0, r0, ip, lsl #2
    634c:	00003a46 	andeq	r3, r0, r6, asr #20
    6350:	00003a44 	andeq	r3, r0, r4, asr #20
    6354:	a1040700 	tstge	r4, r0, lsl #14
    6358:	00000000 	andeq	r0, r0, r0
    635c:	0000014e 	andeq	r0, r0, lr, asr #2
    6360:	19050004 	stmdbne	r5, {r2}
    6364:	01040000 	mrseq	r0, (UNDEF: 4)
    6368:	0000049a 	muleq	r0, sl, r4
    636c:	000b3c0c 	andeq	r3, fp, ip, lsl #24
    6370:	00042e00 	andeq	r2, r4, r0, lsl #28
    6374:	009cd000 	addseq	sp, ip, r0
    6378:	00003000 	andeq	r3, r0, r0
    637c:	002dc400 	eoreq	ip, sp, r0, lsl #8
    6380:	05040200 	streq	r0, [r4, #-512]	; 0xfffffe00
    6384:	00746e69 	rsbseq	r6, r4, r9, ror #28
    6388:	00048303 	andeq	r8, r4, r3, lsl #6
    638c:	17d10300 	ldrbne	r0, [r1, r0, lsl #6]
    6390:	00000038 	andeq	r0, r0, r8, lsr r0
    6394:	9e070404 	cdpls	4, 0, cr0, cr7, cr4, {0}
    6398:	04000001 	streq	r0, [r0], #-1
    639c:	008f0601 	addeq	r0, pc, r1, lsl #12
    63a0:	02040000 	andeq	r0, r4, #0, 0
    63a4:	0001d505 	andeq	sp, r1, r5, lsl #10
    63a8:	05040400 	streq	r0, [r4, #-1024]	; 0xfffffc00
    63ac:	000001c0 	andeq	r0, r0, r0, asr #3
    63b0:	bb050804 	bllt	1483c8 <__bss_end__+0x13def8>
    63b4:	04000001 	streq	r0, [r0], #-1
    63b8:	008d0801 	addeq	r0, sp, r1, lsl #16
    63bc:	5b050000 	blpl	1463c4 <__bss_end__+0x13bef4>
    63c0:	04000000 	streq	r0, [r0], #-0
    63c4:	00a40702 	adceq	r0, r4, r2, lsl #14
    63c8:	04040000 	streq	r0, [r4], #-0
    63cc:	00019907 	andeq	r9, r1, r7, lsl #18
    63d0:	07080400 	streq	r0, [r8, -r0, lsl #8]
    63d4:	00000194 	muleq	r0, r4, r1
    63d8:	00002506 	andeq	r2, r0, r6, lsl #10
    63dc:	00008b00 	andeq	r8, r0, r0, lsl #22
    63e0:	00250700 	eoreq	r0, r5, r0, lsl #14
    63e4:	08000000 	stmdaeq	r0, {}	; <UNPREDICTABLE>
    63e8:	000001c9 	andeq	r0, r0, r9, asr #3
    63ec:	970e1c02 	strls	r1, [lr, -r2, lsl #24]
    63f0:	09000000 	stmdbeq	r0, {}	; <UNPREDICTABLE>
    63f4:	00007c04 	andeq	r7, r0, r4, lsl #24
    63f8:	00250600 	eoreq	r0, r5, r0, lsl #12
    63fc:	00ac0000 	adceq	r0, ip, r0
    6400:	ac070000 	stcge	0, cr0, [r7], {-0}
    6404:	00000000 	andeq	r0, r0, r0
    6408:	00b90409 	adcseq	r0, r9, r9, lsl #8
    640c:	01040000 	mrseq	r0, (UNDEF: 4)
    6410:	00009608 	andeq	r9, r0, r8, lsl #12
    6414:	00b20500 	adcseq	r0, r2, r0, lsl #10
    6418:	98080000 	stmdals	r8, {}	; <UNPREDICTABLE>
    641c:	02000005 	andeq	r0, r0, #5, 0
    6420:	00ca0e21 	sbceq	r0, sl, r1, lsr #28
    6424:	04090000 	streq	r0, [r9], #-0
    6428:	0000009d 	muleq	r0, sp, r0
    642c:	0006b30a 	andeq	fp, r6, sl, lsl #6
    6430:	05040100 	streq	r0, [r4, #-256]	; 0xffffff00
    6434:	00000025 	andeq	r0, r0, r5, lsr #32
    6438:	00009cd0 	ldrdeq	r9, [r0], -r0
    643c:	00000030 	andeq	r0, r0, r0, lsr r0
    6440:	014b9c01 	cmpeq	fp, r1, lsl #24
    6444:	5f0b0000 	svcpl	0x000b0000
    6448:	01003173 	tsteq	r0, r3, ror r1
    644c:	00ac1904 	adceq	r1, ip, r4, lsl #18
    6450:	3a5d0000 	bcc	1746458 <__bss_end__+0x173bf88>
    6454:	3a590000 	bcc	164645c <__bss_end__+0x163bf8c>
    6458:	5f0b0000 	svcpl	0x000b0000
    645c:	01003273 	tsteq	r0, r3, ror r2
    6460:	00ac2a04 	adceq	r2, ip, r4, lsl #20
    6464:	3a820000 	bcc	fe08646c <__bss_end__+0xfe07bf9c>
    6468:	3a7e0000 	bcc	1f86470 <__bss_end__+0x1f7bfa0>
    646c:	6e0b0000 	cdpvs	0, 0, cr0, cr11, cr0, {0}
    6470:	36040100 	strcc	r0, [r4], -r0, lsl #2
    6474:	0000002c 	andeq	r0, r0, ip, lsr #32
    6478:	00003aad 	andeq	r3, r0, sp, lsr #21
    647c:	00003aa3 	andeq	r3, r0, r3, lsr #21
    6480:	0031730c 	eorseq	r7, r1, ip, lsl #6
    6484:	4b1a0501 	blmi	687890 <__bss_end__+0x67d3c0>
    6488:	04000001 	streq	r0, [r0], #-1
    648c:	fc00003b 	stc2	0, cr0, [r0], {59}	; 0x3b
    6490:	0c00003a 	stceq	0, cr0, [r0], {58}	; 0x3a
    6494:	01003273 	tsteq	r0, r3, ror r2
    6498:	014b2c05 	cmpeq	fp, r5, lsl #24
    649c:	3b420000 	blcc	10864a4 <__bss_end__+0x107bfd4>
    64a0:	3b3c0000 	blcc	f064a8 <__bss_end__+0xefbfd8>
    64a4:	09000000 	stmdbeq	r0, {}	; <UNPREDICTABLE>
    64a8:	00006204 	andeq	r6, r0, r4, lsl #4
    64ac:	00ce0000 	sbceq	r0, lr, r0
    64b0:	00040000 	andeq	r0, r4, r0
    64b4:	000019b9 			; <UNDEFINED> instruction: 0x000019b9
    64b8:	049a0104 	ldreq	r0, [sl], #260	; 0x104
    64bc:	4d0c0000 	stcmi	0, cr0, [ip, #-0]
    64c0:	2e00000b 	cdpcs	0, 0, cr0, cr0, cr11, {0}
    64c4:	00000004 	andeq	r0, r0, r4
    64c8:	0400009d 	streq	r0, [r0], #-157	; 0xffffff63
    64cc:	c5000000 	strgt	r0, [r0, #-0]
    64d0:	0200002e 	andeq	r0, r0, #46, 0	; 0x2e
    64d4:	6e690504 	cdpvs	5, 6, cr0, cr9, cr4, {0}
    64d8:	04030074 	streq	r0, [r3], #-116	; 0xffffff8c
    64dc:	00019e07 	andeq	r9, r1, r7, lsl #28
    64e0:	06010300 	streq	r0, [r1], -r0, lsl #6
    64e4:	0000008f 	andeq	r0, r0, pc, lsl #1
    64e8:	d5050203 	strle	r0, [r5, #-515]	; 0xfffffdfd
    64ec:	03000001 	movweq	r0, #1
    64f0:	01c00504 	biceq	r0, r0, r4, lsl #10
    64f4:	08030000 	stmdaeq	r3, {}	; <UNPREDICTABLE>
    64f8:	0001bb05 	andeq	fp, r1, r5, lsl #22
    64fc:	08010300 	stmdaeq	r1, {r8, r9}
    6500:	0000008d 	andeq	r0, r0, sp, lsl #1
    6504:	a4070203 	strge	r0, [r7], #-515	; 0xfffffdfd
    6508:	03000000 	movweq	r0, #0
    650c:	01990704 	orrseq	r0, r9, r4, lsl #14
    6510:	08030000 	stmdaeq	r3, {}	; <UNPREDICTABLE>
    6514:	00019407 	andeq	r9, r1, r7, lsl #8
    6518:	00250400 	eoreq	r0, r5, r0, lsl #8
    651c:	007a0000 	rsbseq	r0, sl, r0
    6520:	25050000 	strcs	r0, [r5, #-0]
    6524:	00000000 	andeq	r0, r0, r0
    6528:	0001c906 	andeq	ip, r1, r6, lsl #18
    652c:	0e1c0200 	cdpeq	2, 1, cr0, cr12, cr0, {0}
    6530:	00000086 	andeq	r0, r0, r6, lsl #1
    6534:	006b0407 	rsbeq	r0, fp, r7, lsl #8
    6538:	25040000 	strcs	r0, [r4, #-0]
    653c:	9b000000 	blls	6544 <__code_start__-0x1abc>
    6540:	05000000 	streq	r0, [r0, #-0]
    6544:	0000009b 	muleq	r0, fp, r0
    6548:	a8040700 	stmdage	r4, {r8, r9, sl}
    654c:	03000000 	movweq	r0, #0
    6550:	00960801 	addseq	r0, r6, r1, lsl #16
    6554:	a1080000 	mrsge	r0, (UNDEF: 8)
    6558:	06000000 	streq	r0, [r0], -r0
    655c:	00000598 	muleq	r0, r8, r5
    6560:	b90e2102 	stmdblt	lr, {r1, r8, sp}
    6564:	07000000 	streq	r0, [r0, -r0]
    6568:	00008c04 	andeq	r8, r0, r4, lsl #24
    656c:	07780900 	ldrbeq	r0, [r8, -r0, lsl #18]!
    6570:	03010000 	movweq	r0, #4096	; 0x1000
    6574:	009d0006 	addseq	r0, sp, r6
    6578:	00000400 	andeq	r0, r0, r0, lsl #8
    657c:	009c0100 	addseq	r0, ip, r0, lsl #2

Disassembly of section .debug_abbrev:

00000000 <.debug_abbrev>:
       0:	25011101 	strcs	r1, [r1, #-257]	; 0xfffffeff
       4:	030b130e 	movweq	r1, #45838	; 0xb30e
       8:	110e1b0e 	tstne	lr, lr, lsl #22
       c:	10061201 	andne	r1, r6, r1, lsl #4
      10:	02000017 	andeq	r0, r0, #23, 0
      14:	0b0b0024 	bleq	2c00ac <__bss_end__+0x2b5bdc>
      18:	08030b3e 	stmdaeq	r3, {r1, r2, r3, r4, r5, r8, r9, fp}
      1c:	24030000 	strcs	r0, [r3], #-0
      20:	3e0b0b00 	vmlacc.f64	d0, d11, d0
      24:	000e030b 	andeq	r0, lr, fp, lsl #6
      28:	00350400 	eorseq	r0, r5, r0, lsl #8
      2c:	00001349 	andeq	r1, r0, r9, asr #6
      30:	49002605 	stmdbmi	r0, {r0, r2, r9, sl, sp}
      34:	06000013 			; <UNDEFINED> instruction: 0x06000013
      38:	19270115 	stmdbne	r7!, {r0, r2, r4, r8}
      3c:	13011349 	movwne	r1, #4937	; 0x1349
      40:	05070000 	streq	r0, [r7, #-0]
      44:	00134900 	andseq	r4, r3, r0, lsl #18
      48:	00340800 	eorseq	r0, r4, r0, lsl #16
      4c:	0b3a0e03 	bleq	e83860 <__bss_end__+0xe79390>
      50:	0b390b3b 	bleq	e42d44 <__bss_end__+0xe38874>
      54:	193f1349 	ldmdbne	pc!, {r0, r3, r6, r8, r9, ip}	; <UNPREDICTABLE>
      58:	0000193c 	andeq	r1, r0, ip, lsr r9
      5c:	0b000f09 	bleq	3c88 <__code_start__-0x4378>
      60:	0013490b 	andseq	r4, r3, fp, lsl #18
      64:	00340a00 	eorseq	r0, r4, r0, lsl #20
      68:	0b3a0e03 	bleq	e8387c <__bss_end__+0xe793ac>
      6c:	0b390b3b 	bleq	e42d60 <__bss_end__+0xe38890>
      70:	061c1349 	ldreq	r1, [ip], -r9, asr #6
      74:	340b0000 	strcc	r0, [fp], #-0
      78:	3a0e0300 	bcc	380c80 <__bss_end__+0x3767b0>
      7c:	390b3b0b 	stmdbcc	fp, {r0, r1, r3, r8, r9, fp, ip, sp}
      80:	1c13490b 			; <UNDEFINED> instruction: 0x1c13490b
      84:	0c00000b 	stceq	0, cr0, [r0], {11}
      88:	0e030016 	mcreq	0, 0, r0, cr3, cr6, {0}
      8c:	0b3b0b3a 	bleq	ec2d7c <__bss_end__+0xeb88ac>
      90:	13490b39 	movtne	r0, #39737	; 0x9b39
      94:	130d0000 	movwne	r0, #53248	; 0xd000
      98:	3c0e0300 	stccc	3, cr0, [lr], {-0}
      9c:	0e000019 	mcreq	0, 0, r0, cr0, cr9, {0}
      a0:	0b3e0104 	bleq	f804b8 <__bss_end__+0xf75fe8>
      a4:	13490b0b 	movtne	r0, #39691	; 0x9b0b
      a8:	0b3b0b3a 	bleq	ec2d98 <__bss_end__+0xeb88c8>
      ac:	13010b39 	movwne	r0, #6969	; 0x1b39
      b0:	280f0000 	stmdacs	pc, {}	; <UNPREDICTABLE>
      b4:	1c0e0300 	stcne	3, cr0, [lr], {-0}
      b8:	1000000b 	andne	r0, r0, fp
      bc:	193f012e 	ldmdbne	pc!, {r1, r2, r3, r5, r8}	; <UNPREDICTABLE>
      c0:	0b3a0e03 	bleq	e838d4 <__bss_end__+0xe79404>
      c4:	0b390b3b 	bleq	e42db8 <__bss_end__+0xe388e8>
      c8:	01111927 	tsteq	r1, r7, lsr #18
      cc:	18400612 	stmdane	r0, {r1, r4, r9, sl}^
      d0:	01194297 			; <UNDEFINED> instruction: 0x01194297
      d4:	11000013 	tstne	r0, r3, lsl r0
      d8:	08030034 	stmdaeq	r3, {r2, r4, r5}
      dc:	0b3b0b3a 	bleq	ec2dcc <__bss_end__+0xeb88fc>
      e0:	13490b39 	movtne	r0, #39737	; 0x9b39
      e4:	42b71702 	adcsmi	r1, r7, #524288	; 0x80000
      e8:	12000017 	andne	r0, r0, #23, 0
      ec:	1755010b 	ldrbne	r0, [r5, -fp, lsl #2]
      f0:	00001301 	andeq	r1, r0, r1, lsl #6
      f4:	01828913 	orreq	r8, r2, r3, lsl r9
      f8:	31011101 	tstcc	r1, r1, lsl #2
      fc:	00130113 	andseq	r0, r3, r3, lsl r1
     100:	828a1400 	addhi	r1, sl, #0, 8
     104:	18020001 	stmdane	r2, {r0}
     108:	00184291 	mulseq	r8, r1, r2
     10c:	82891500 	addhi	r1, r9, #0, 10
     110:	01110101 	tsteq	r1, r1, lsl #2
     114:	00001331 	andeq	r1, r0, r1, lsr r3
     118:	01828916 	orreq	r8, r2, r6, lsl r9
     11c:	31011100 	mrscc	r1, (UNDEF: 17)
     120:	17000013 	smladne	r0, r3, r0, r0
     124:	01018289 	smlabbeq	r1, r9, r2, r8
     128:	42950111 	addsmi	r0, r5, #1073741828	; 0x40000004
     12c:	00133119 	andseq	r3, r3, r9, lsl r1
     130:	002e1800 	eoreq	r1, lr, r0, lsl #16
     134:	193c193f 	ldmdbne	ip!, {r0, r1, r2, r3, r4, r5, r8, fp, ip}
     138:	0e030e6e 	cdpeq	14, 0, cr0, cr3, cr14, {3}
     13c:	0b3b0b3a 	bleq	ec2e2c <__bss_end__+0xeb895c>
     140:	00000b39 	andeq	r0, r0, r9, lsr fp
     144:	01110100 	tsteq	r1, r0, lsl #2
     148:	0b130e25 	bleq	4c39e4 <__bss_end__+0x4b9514>
     14c:	0e1b0e03 	cdpeq	14, 1, cr0, cr11, cr3, {0}
     150:	06120111 			; <UNDEFINED> instruction: 0x06120111
     154:	00001710 	andeq	r1, r0, r0, lsl r7
     158:	0b002402 	bleq	9168 <va_printk+0x418>
     15c:	030b3e0b 	movweq	r3, #48651	; 0xbe0b
     160:	03000008 	movweq	r0, #8
     164:	0b0b0024 	bleq	2c01fc <__bss_end__+0x2b5d2c>
     168:	0e030b3e 	vmoveq.16	d3[0], r0
     16c:	35040000 	strcc	r0, [r4, #-0]
     170:	00134900 	andseq	r4, r3, r0, lsl #18
     174:	00260500 	eoreq	r0, r6, r0, lsl #10
     178:	00001349 	andeq	r1, r0, r9, asr #6
     17c:	03001606 	movweq	r1, #1542	; 0x606
     180:	3b0b3a0e 	blcc	2ce9c0 <__bss_end__+0x2c44f0>
     184:	490b390b 	stmdbmi	fp, {r0, r1, r3, r8, fp, ip, sp}
     188:	07000013 	smladeq	r0, r3, r0, r0
     18c:	19270115 	stmdbne	r7!, {r0, r2, r4, r8}
     190:	13011349 	movwne	r1, #4937	; 0x1349
     194:	05080000 	streq	r0, [r8, #-0]
     198:	00134900 	andseq	r4, r3, r0, lsl #18
     19c:	00340900 	eorseq	r0, r4, r0, lsl #18
     1a0:	0b3a0e03 	bleq	e839b4 <__bss_end__+0xe794e4>
     1a4:	0b390b3b 	bleq	e42e98 <__bss_end__+0xe389c8>
     1a8:	193f1349 	ldmdbne	pc!, {r0, r3, r6, r8, r9, ip}	; <UNPREDICTABLE>
     1ac:	0000193c 	andeq	r1, r0, ip, lsr r9
     1b0:	0b000f0a 	bleq	3de0 <__code_start__-0x4220>
     1b4:	0013490b 	andseq	r4, r3, fp, lsl #18
     1b8:	01130b00 	tsteq	r3, r0, lsl #22
     1bc:	0b0b0e03 	bleq	2c39d0 <__bss_end__+0x2b9500>
     1c0:	0b3b0b3a 	bleq	ec2eb0 <__bss_end__+0xeb89e0>
     1c4:	13010b39 	movwne	r0, #6969	; 0x1b39
     1c8:	0d0c0000 	stceq	0, cr0, [ip, #-0]
     1cc:	3a080300 	bcc	200dd4 <__bss_end__+0x1f6904>
     1d0:	390b3b0b 	stmdbcc	fp, {r0, r1, r3, r8, r9, fp, ip, sp}
     1d4:	3813490b 	ldmdacc	r3, {r0, r1, r3, r8, fp, lr}
     1d8:	0d00000b 	stceq	0, cr0, [r0, #-44]	; 0xffffffd4
     1dc:	0e03000d 	cdpeq	0, 0, cr0, cr3, cr13, {0}
     1e0:	0b3b0b3a 	bleq	ec2ed0 <__bss_end__+0xeb8a00>
     1e4:	13490b39 	movtne	r0, #39737	; 0x9b39
     1e8:	00000b38 	andeq	r0, r0, r8, lsr fp
     1ec:	3e01040e 	cdpcc	4, 0, cr0, cr1, cr14, {0}
     1f0:	490b0b0b 	stmdbmi	fp, {r0, r1, r3, r8, r9, fp}
     1f4:	3b0b3a13 	blcc	2cea48 <__bss_end__+0x2c4578>
     1f8:	010b390b 	tsteq	fp, fp, lsl #18
     1fc:	0f000013 	svceq	0x00000013
     200:	08030028 	stmdaeq	r3, {r3, r5}
     204:	0000051c 	andeq	r0, r0, ip, lsl r5
     208:	03002810 	movweq	r2, #2064	; 0x810
     20c:	000b1c08 	andeq	r1, fp, r8, lsl #24
     210:	00281100 	eoreq	r1, r8, r0, lsl #2
     214:	051c0e03 	ldreq	r0, [ip, #-3587]	; 0xfffff1fd
     218:	34120000 	ldrcc	r0, [r2], #-0
     21c:	3a0e0300 	bcc	380e24 <__bss_end__+0x376954>
     220:	390b3b0b 	stmdbcc	fp, {r0, r1, r3, r8, r9, fp, ip, sp}
     224:	0013490b 	andseq	r4, r3, fp, lsl #18
     228:	00341300 	eorseq	r1, r4, r0, lsl #6
     22c:	0b3a0e03 	bleq	e83a40 <__bss_end__+0xe79570>
     230:	0b390b3b 	bleq	e42f24 <__bss_end__+0xe38a54>
     234:	061c1349 	ldreq	r1, [ip], -r9, asr #6
     238:	34140000 	ldrcc	r0, [r4], #-0
     23c:	3a0e0300 	bcc	380e44 <__bss_end__+0x376974>
     240:	390b3b0b 	stmdbcc	fp, {r0, r1, r3, r8, r9, fp, ip, sp}
     244:	1c13490b 			; <UNDEFINED> instruction: 0x1c13490b
     248:	1500000b 	strne	r0, [r0, #-11]
     24c:	13490101 	movtne	r0, #37121	; 0x9101
     250:	00001301 	andeq	r1, r0, r1, lsl #6
     254:	49002116 	stmdbmi	r0, {r1, r2, r4, r8, sp}
     258:	17000013 	smladne	r0, r3, r0, r0
     25c:	193f012e 	ldmdbne	pc!, {r1, r2, r3, r5, r8}	; <UNPREDICTABLE>
     260:	0b3a0e03 	bleq	e83a74 <__bss_end__+0xe795a4>
     264:	0b390b3b 	bleq	e42f58 <__bss_end__+0xe38a88>
     268:	01111927 	tsteq	r1, r7, lsr #18
     26c:	18400612 	stmdane	r0, {r1, r4, r9, sl}^
     270:	01194297 			; <UNDEFINED> instruction: 0x01194297
     274:	18000013 	stmdane	r0, {r0, r1, r4}
     278:	08030005 	stmdaeq	r3, {r0, r2}
     27c:	0b3b0b3a 	bleq	ec2f6c <__bss_end__+0xeb8a9c>
     280:	13490b39 	movtne	r0, #39737	; 0x9b39
     284:	00001802 	andeq	r1, r0, r2, lsl #16
     288:	03000519 	movweq	r0, #1305	; 0x519
     28c:	3b0b3a08 	blcc	2ceab4 <__bss_end__+0x2c45e4>
     290:	490b390b 	stmdbmi	fp, {r0, r1, r3, r8, fp, ip, sp}
     294:	b7170213 			; <UNDEFINED> instruction: 0xb7170213
     298:	00001742 	andeq	r1, r0, r2, asr #14
     29c:	31011d1a 	tstcc	r1, sl, lsl sp
     2a0:	b8015213 	stmdalt	r1, {r0, r1, r4, r9, ip, lr}
     2a4:	17550542 	ldrbne	r0, [r5, -r2, asr #10]
     2a8:	0b590b58 	bleq	1643010 <__bss_end__+0x1638b40>
     2ac:	00000b57 	andeq	r0, r0, r7, asr fp
     2b0:	3100051b 	tstcc	r0, fp, lsl r5
     2b4:	b7170213 			; <UNDEFINED> instruction: 0xb7170213
     2b8:	00001742 	andeq	r1, r0, r2, asr #14
     2bc:	31010b1c 	tstcc	r1, ip, lsl fp
     2c0:	01175513 	tsteq	r7, r3, lsl r5
     2c4:	1d000013 	stcne	0, cr0, [r0, #-76]	; 0xffffffb4
     2c8:	13310034 	teqne	r1, #52, 0	; 0x34
     2cc:	42b71702 	adcsmi	r1, r7, #524288	; 0x80000
     2d0:	1e000017 	mcrne	0, 0, r0, cr0, cr7, {0}
     2d4:	13310005 	teqne	r1, #5, 0
     2d8:	1d1f0000 	ldcne	0, cr0, [pc, #-0]	; 2e0 <__code_start__-0x7d20>
     2dc:	52133101 	andspl	r3, r3, #1073741824	; 0x40000000
     2e0:	0542b801 	strbeq	fp, [r2, #-2049]	; 0xfffff7ff
     2e4:	0b581755 	bleq	1606040 <__bss_end__+0x15fbb70>
     2e8:	0b570b59 	bleq	15c3054 <__bss_end__+0x15b8b84>
     2ec:	00001301 	andeq	r1, r0, r1, lsl #6
     2f0:	31010b20 	tstcc	r1, r0, lsr #22
     2f4:	00175513 	andseq	r5, r7, r3, lsl r5
     2f8:	010b2100 	mrseq	r2, (UNDEF: 27)
     2fc:	00001755 	andeq	r1, r0, r5, asr r7
     300:	31010b22 	tstcc	r1, r2, lsr #22
     304:	12011113 	andne	r1, r1, #-1073741820	; 0xc0000004
     308:	00130106 	andseq	r0, r3, r6, lsl #2
     30c:	011d2300 	tsteq	sp, r0, lsl #6
     310:	01111331 	tsteq	r1, r1, lsr r3
     314:	0b580612 	bleq	1601b64 <__bss_end__+0x15f7694>
     318:	0b570b59 	bleq	15c3084 <__bss_end__+0x15b8bb4>
     31c:	0b240000 	bleq	900324 <__bss_end__+0x8f5e54>
     320:	11133101 	tstne	r3, r1, lsl #2
     324:	00061201 	andeq	r1, r6, r1, lsl #4
     328:	011d2500 	tsteq	sp, r0, lsl #10
     32c:	01521331 	cmpeq	r2, r1, lsr r3
     330:	110542b8 			; <UNDEFINED> instruction: 0x110542b8
     334:	58061201 	stmdapl	r6, {r0, r9, ip}
     338:	570b590b 	strpl	r5, [fp, -fp, lsl #18]
     33c:	2600000b 	strcs	r0, [r0], -fp
     340:	1331011d 	teqne	r1, #1073741831	; 0x40000007
     344:	42b80152 	adcsmi	r0, r8, #-2147483628	; 0x80000014
     348:	12011105 	andne	r1, r1, #1073741825	; 0x40000001
     34c:	590b5806 	stmdbpl	fp, {r1, r2, fp, ip, lr}
     350:	010b570b 	tsteq	fp, fp, lsl #14
     354:	27000013 	smladcs	r0, r3, r0, r0
     358:	1331011d 	teqne	r1, #1073741831	; 0x40000007
     35c:	0b581755 	bleq	16060b8 <__bss_end__+0x15fbbe8>
     360:	0b570b59 	bleq	15c30cc <__bss_end__+0x15b8bfc>
     364:	00001301 	andeq	r1, r0, r1, lsl #6
     368:	31003428 	tstcc	r0, r8, lsr #8
     36c:	29000013 	stmdbcs	r0, {r0, r1, r4}
     370:	1331011d 	teqne	r1, #1073741831	; 0x40000007
     374:	0b581755 	bleq	16060d0 <__bss_end__+0x15fbc00>
     378:	0b570b59 	bleq	15c30e4 <__bss_end__+0x15b8c14>
     37c:	892a0000 	stmdbhi	sl!, {}	; <UNPREDICTABLE>
     380:	11000182 	smlabbne	r0, r2, r1, r0
     384:	19429501 	stmdbne	r2, {r0, r8, sl, ip, pc}^
     388:	00001331 	andeq	r1, r0, r1, lsr r3
     38c:	3f012e2b 	svccc	0x00012e2b
     390:	3a0e0319 	bcc	380ffc <__bss_end__+0x376b2c>
     394:	390b3b0b 	stmdbcc	fp, {r0, r1, r3, r8, r9, fp, ip, sp}
     398:	2019270b 	andscs	r2, r9, fp, lsl #14
     39c:	0013010b 	andseq	r0, r3, fp, lsl #2
     3a0:	00052c00 	andeq	r2, r5, r0, lsl #24
     3a4:	0b3a0803 	bleq	e823b8 <__bss_end__+0xe77ee8>
     3a8:	0b390b3b 	bleq	e4309c <__bss_end__+0xe38bcc>
     3ac:	00001349 	andeq	r1, r0, r9, asr #6
     3b0:	00010b2d 	andeq	r0, r1, sp, lsr #22
     3b4:	00342e00 	eorseq	r2, r4, r0, lsl #28
     3b8:	0b3a0803 	bleq	e823cc <__bss_end__+0xe77efc>
     3bc:	0b390b3b 	bleq	e430b0 <__bss_end__+0xe38be0>
     3c0:	00001349 	andeq	r1, r0, r9, asr #6
     3c4:	3f012e2f 	svccc	0x00012e2f
     3c8:	3a0e0319 	bcc	381034 <__bss_end__+0x376b64>
     3cc:	390b3b0b 	stmdbcc	fp, {r0, r1, r3, r8, r9, fp, ip, sp}
     3d0:	4919270b 	ldmdbmi	r9, {r0, r1, r3, r8, r9, sl, sp}
     3d4:	12011113 	andne	r1, r1, #-1073741820	; 0xc0000004
     3d8:	97184006 	ldrls	r4, [r8, -r6]
     3dc:	13011942 	movwne	r1, #6466	; 0x1942
     3e0:	05300000 	ldreq	r0, [r0, #-0]!
     3e4:	3a0e0300 	bcc	380fec <__bss_end__+0x376b1c>
     3e8:	390b3b0b 	stmdbcc	fp, {r0, r1, r3, r8, r9, fp, ip, sp}
     3ec:	0213490b 	andseq	r4, r3, #180224	; 0x2c000
     3f0:	1742b717 	smlaldne	fp, r2, r7, r7
     3f4:	34310000 	ldrtcc	r0, [r1], #-0
     3f8:	3a080300 	bcc	201000 <__bss_end__+0x1f6b30>
     3fc:	390b3b0b 	stmdbcc	fp, {r0, r1, r3, r8, r9, fp, ip, sp}
     400:	0213490b 	andseq	r4, r3, #180224	; 0x2c000
     404:	1742b717 	smlaldne	fp, r2, r7, r7
     408:	34320000 	ldrtcc	r0, [r2], #-0
     40c:	3a0e0300 	bcc	381014 <__bss_end__+0x376b44>
     410:	390b3b0b 	stmdbcc	fp, {r0, r1, r3, r8, r9, fp, ip, sp}
     414:	0213490b 	andseq	r4, r3, #180224	; 0x2c000
     418:	1742b717 	smlaldne	fp, r2, r7, r7
     41c:	89330000 	ldmdbhi	r3!, {}	; <UNPREDICTABLE>
     420:	11010182 	smlabbne	r1, r2, r1, r0
     424:	01133101 	tsteq	r3, r1, lsl #2
     428:	34000013 	strcc	r0, [r0], #-19	; 0xffffffed
     42c:	0001828a 	andeq	r8, r1, sl, lsl #5
     430:	42911802 	addsmi	r1, r1, #131072	; 0x20000
     434:	35000018 	strcc	r0, [r0, #-24]	; 0xffffffe8
     438:	01018289 	smlabbeq	r1, r9, r2, r8
     43c:	13310111 	teqne	r1, #1073741828	; 0x40000004
     440:	0b360000 	bleq	d80448 <__bss_end__+0xd75f78>
     444:	01175501 	tsteq	r7, r1, lsl #10
     448:	37000013 	smladcc	r0, r3, r0, r0
     44c:	0e03012e 	adfeqsp	f0, f3, #0.5
     450:	0b3b0b3a 	bleq	ec3140 <__bss_end__+0xeb8c70>
     454:	19270b39 	stmdbne	r7!, {r0, r3, r4, r5, r8, r9, fp}
     458:	13010b20 	movwne	r0, #6944	; 0x1b20
     45c:	2e380000 	cdpcs	0, 3, cr0, cr8, cr0, {0}
     460:	3a080301 	bcc	20106c <__bss_end__+0x1f6b9c>
     464:	390b3b0b 	stmdbcc	fp, {r0, r1, r3, r8, r9, fp, ip, sp}
     468:	2019270b 	andscs	r2, r9, fp, lsl #14
     46c:	0013010b 	andseq	r0, r3, fp, lsl #2
     470:	00053900 	andeq	r3, r5, r0, lsl #18
     474:	0b3a0e03 	bleq	e83c88 <__bss_end__+0xe797b8>
     478:	0b390b3b 	bleq	e4316c <__bss_end__+0xe38c9c>
     47c:	00001349 	andeq	r1, r0, r9, asr #6
     480:	31012e3a 	tstcc	r1, sl, lsr lr
     484:	12011113 	andne	r1, r1, #-1073741820	; 0xc0000004
     488:	97184006 	ldrls	r4, [r8, -r6]
     48c:	13011942 	movwne	r1, #6466	; 0x1942
     490:	2e3b0000 	cdpcs	0, 3, cr0, cr11, cr0, {0}
     494:	3c193f00 	ldccc	15, cr3, [r9], {-0}
     498:	030e6e19 	movweq	r6, #60953	; 0xee19
     49c:	3b0b3a0e 	blcc	2cecdc <__bss_end__+0x2c480c>
     4a0:	000b390b 	andeq	r3, fp, fp, lsl #18
     4a4:	49010000 	stmdbmi	r1, {}	; <UNPREDICTABLE>
     4a8:	7e180200 	cdpvc	2, 1, cr0, cr8, cr0, {0}
     4ac:	02000018 	andeq	r0, r0, #24, 0
     4b0:	13310005 	teqne	r1, #5, 0
     4b4:	42b71702 	adcsmi	r1, r7, #524288	; 0x80000
     4b8:	03000017 	movweq	r0, #23
     4bc:	0b0b0024 	bleq	2c0554 <__bss_end__+0x2b6084>
     4c0:	0e030b3e 	vmoveq.16	d3[0], r0
     4c4:	34040000 	strcc	r0, [r4], #-0
     4c8:	00133100 	andseq	r3, r3, r0, lsl #2
     4cc:	00340500 	eorseq	r0, r4, r0, lsl #10
     4d0:	17021331 	smladxne	r2, r1, r3, r1
     4d4:	001742b7 			; <UNDEFINED> instruction: 0x001742b7
     4d8:	00280600 	eoreq	r0, r8, r0, lsl #12
     4dc:	0b1c0e03 	bleq	703cf0 <__bss_end__+0x6f9820>
     4e0:	48070000 	stmdami	r7, {}	; <UNPREDICTABLE>
     4e4:	82017d01 	andhi	r7, r1, #64	; 0x40
     4e8:	137f1901 	cmnne	pc, #16384	; 0x4000
     4ec:	05080000 	streq	r0, [r8, #-0]
     4f0:	3a080300 	bcc	2010f8 <__bss_end__+0x1f6c28>
     4f4:	0b3b0121 	bleq	ec0980 <__bss_end__+0xeb64b0>
     4f8:	13490b39 	movtne	r0, #39737	; 0x9b39
     4fc:	42b71702 	adcsmi	r1, r7, #524288	; 0x80000
     500:	09000017 	stmdbeq	r0, {r0, r1, r2, r4}
     504:	1331011d 	teqne	r1, #1073741831	; 0x40000007
     508:	42b80152 	adcsmi	r0, r8, #-2147483628	; 0x80000014
     50c:	5817550b 	ldmdapl	r7, {r0, r1, r3, r8, sl, ip, lr}
     510:	0b590121 	bleq	164099c <__bss_end__+0x16364cc>
     514:	00000b57 	andeq	r0, r0, r7, asr fp
     518:	55010b0a 	strpl	r0, [r1, #-2826]	; 0xfffff4f6
     51c:	0b000017 	bleq	580 <__code_start__-0x7a80>
     520:	13310005 	teqne	r1, #5, 0
     524:	00000b1c 	andeq	r0, r0, ip, lsl fp
     528:	0300050c 	movweq	r0, #1292	; 0x50c
     52c:	3b0b3a08 	blcc	2ced54 <__bss_end__+0x2c4884>
     530:	490b390b 	stmdbmi	fp, {r0, r1, r3, r8, fp, ip, sp}
     534:	0d000013 	stceq	0, cr0, [r0, #-76]	; 0xffffffb4
     538:	0e030034 	mcreq	0, 0, r0, cr3, cr4, {1}
     53c:	3b01213a 	blcc	48a2c <__bss_end__+0x3e55c>
     540:	1721390b 	strne	r3, [r1, -fp, lsl #18]!
     544:	061c1349 	ldreq	r1, [ip], -r9, asr #6
     548:	050e0000 	streq	r0, [lr, #-0]
     54c:	00134900 	andseq	r4, r3, r0, lsl #18
     550:	012e0f00 			; <UNDEFINED> instruction: 0x012e0f00
     554:	0e03193f 			; <UNDEFINED> instruction: 0x0e03193f
     558:	3b01213a 	blcc	48a48 <__bss_end__+0x3e578>
     55c:	0621390b 	strteq	r3, [r1], -fp, lsl #18
     560:	01111927 	tsteq	r1, r7, lsr #18
     564:	18400612 	stmdane	r0, {r1, r4, r9, sl}^
     568:	1301197a 	movwne	r1, #6522	; 0x197a
     56c:	48100000 	ldmdami	r0, {}	; <UNPREDICTABLE>
     570:	7f017d01 	svcvc	0x00017d01
     574:	00130113 	andseq	r0, r3, r3, lsl r1
     578:	012e1100 			; <UNDEFINED> instruction: 0x012e1100
     57c:	0e03193f 			; <UNDEFINED> instruction: 0x0e03193f
     580:	3b01213a 	blcc	48a70 <__bss_end__+0x3e5a0>
     584:	270b390b 	strcs	r3, [fp, -fp, lsl #18]
     588:	010b2019 	tsteq	fp, r9, lsl r0
     58c:	12000013 	andne	r0, r0, #19, 0
     590:	08030034 	stmdaeq	r3, {r2, r4, r5}
     594:	3b01213a 	blcc	48a84 <__bss_end__+0x3e5b4>
     598:	0e21390b 	vmuleq.f16	s6, s2, s22	; <UNPREDICTABLE>
     59c:	00001349 	andeq	r1, r0, r9, asr #6
     5a0:	03001613 	movweq	r1, #1555	; 0x613
     5a4:	3b0b3a0e 	blcc	2cede4 <__bss_end__+0x2c4914>
     5a8:	490b390b 	stmdbmi	fp, {r0, r1, r3, r8, fp, ip, sp}
     5ac:	14000013 	strne	r0, [r0], #-19	; 0xffffffed
     5b0:	1331012e 	teqne	r1, #-2147483637	; 0x8000000b
     5b4:	06120111 			; <UNDEFINED> instruction: 0x06120111
     5b8:	197a1840 	ldmdbne	sl!, {r6, fp, ip}^
     5bc:	00001301 	andeq	r1, r0, r1, lsl #6
     5c0:	25011115 	strcs	r1, [r1, #-277]	; 0xfffffeeb
     5c4:	030b130e 	movweq	r1, #45838	; 0xb30e
     5c8:	110e1b0e 	tstne	lr, lr, lsl #22
     5cc:	10061201 	andne	r1, r6, r1, lsl #4
     5d0:	16000017 			; <UNDEFINED> instruction: 0x16000017
     5d4:	0b0b0024 	bleq	2c066c <__bss_end__+0x2b619c>
     5d8:	08030b3e 	stmdaeq	r3, {r1, r2, r3, r4, r5, r8, r9, fp}
     5dc:	26170000 	ldrcs	r0, [r7], -r0
     5e0:	00134900 	andseq	r4, r3, r0, lsl #18
     5e4:	01041800 	tsteq	r4, r0, lsl #16
     5e8:	0b0b0b3e 	bleq	2c32e8 <__bss_end__+0x2b8e18>
     5ec:	0b3a1349 	bleq	e85318 <__bss_end__+0xe7ae48>
     5f0:	0b390b3b 	bleq	e432e4 <__bss_end__+0xe38e14>
     5f4:	00001301 	andeq	r1, r0, r1, lsl #6
     5f8:	3f012e19 	svccc	0x00012e19
     5fc:	3a0e0319 	bcc	381268 <__bss_end__+0x376d98>
     600:	390b3b0b 	stmdbcc	fp, {r0, r1, r3, r8, r9, fp, ip, sp}
     604:	3c19270b 	ldccc	7, cr2, [r9], {11}
     608:	00130119 	andseq	r0, r3, r9, lsl r1
     60c:	012e1a00 			; <UNDEFINED> instruction: 0x012e1a00
     610:	0e03193f 			; <UNDEFINED> instruction: 0x0e03193f
     614:	0b3b0b3a 	bleq	ec3304 <__bss_end__+0xeb8e34>
     618:	19270b39 	stmdbne	r7!, {r0, r3, r4, r5, r8, r9, fp}
     61c:	193c1349 	ldmdbne	ip!, {r0, r3, r6, r8, r9, ip}
     620:	00001301 	andeq	r1, r0, r1, lsl #6
     624:	3f012e1b 	svccc	0x00012e1b
     628:	3a0e0319 	bcc	381294 <__bss_end__+0x376dc4>
     62c:	390b3b0b 	stmdbcc	fp, {r0, r1, r3, r8, r9, fp, ip, sp}
     630:	4919270b 	ldmdbmi	r9, {r0, r1, r3, r8, r9, sl, sp}
     634:	12011113 	andne	r1, r1, #-1073741820	; 0xc0000004
     638:	7a184006 	bvc	610658 <__bss_end__+0x606188>
     63c:	00130119 	andseq	r0, r3, r9, lsl r1
     640:	00341c00 	eorseq	r1, r4, r0, lsl #24
     644:	0b3a0e03 	bleq	e83e58 <__bss_end__+0xe79988>
     648:	0b390b3b 	bleq	e4333c <__bss_end__+0xe38e6c>
     64c:	17021349 	strne	r1, [r2, -r9, asr #6]
     650:	001742b7 			; <UNDEFINED> instruction: 0x001742b7
     654:	00341d00 	eorseq	r1, r4, r0, lsl #26
     658:	0b3a0803 	bleq	e8266c <__bss_end__+0xe7819c>
     65c:	0b390b3b 	bleq	e43350 <__bss_end__+0xe38e80>
     660:	17021349 	strne	r1, [r2, -r9, asr #6]
     664:	001742b7 			; <UNDEFINED> instruction: 0x001742b7
     668:	01481e00 	cmpeq	r8, r0, lsl #28
     66c:	137f017d 	cmnne	pc, #1073741855	; 0x4000001f
     670:	1d1f0000 	ldcne	0, cr0, [pc, #-0]	; 678 <__code_start__-0x7988>
     674:	52133101 	andspl	r3, r3, #1073741824	; 0x40000000
     678:	0b42b801 	bleq	10ae684 <__bss_end__+0x10a41b4>
     67c:	0b581755 	bleq	16063d8 <__bss_end__+0x15fbf08>
     680:	0b570b59 	bleq	15c33ec <__bss_end__+0x15b8f1c>
     684:	00001301 	andeq	r1, r0, r1, lsl #6
     688:	31011d20 	tstcc	r1, r0, lsr #26
     68c:	b8015213 	stmdalt	r1, {r0, r1, r4, r9, ip, lr}
     690:	01110b42 	tsteq	r1, r2, asr #22
     694:	0b580612 	bleq	1601ee4 <__bss_end__+0x15f7a14>
     698:	0b570b59 	bleq	15c3404 <__bss_end__+0x15b8f34>
     69c:	05210000 	streq	r0, [r1, #-0]!
     6a0:	3a0e0300 	bcc	3812a8 <__bss_end__+0x376dd8>
     6a4:	390b3b0b 	stmdbcc	fp, {r0, r1, r3, r8, r9, fp, ip, sp}
     6a8:	0013490b 	andseq	r4, r3, fp, lsl #18
     6ac:	012e2200 			; <UNDEFINED> instruction: 0x012e2200
     6b0:	0b3a0e03 	bleq	e83ec4 <__bss_end__+0xe799f4>
     6b4:	0b390b3b 	bleq	e433a8 <__bss_end__+0xe38ed8>
     6b8:	13491927 	movtne	r1, #39207	; 0x9927
     6bc:	13010b20 	movwne	r0, #6944	; 0x1b20
     6c0:	2e230000 	cdpcs	0, 2, cr0, cr3, cr0, {0}
     6c4:	11133101 	tstne	r3, r1, lsl #2
     6c8:	40061201 	andmi	r1, r6, r1, lsl #4
     6cc:	00197a18 	andseq	r7, r9, r8, lsl sl
     6d0:	11010000 	mrsne	r0, (UNDEF: 1)
     6d4:	130e2501 	movwne	r2, #58625	; 0xe501
     6d8:	1b0e030b 	blne	38130c <__bss_end__+0x376e3c>
     6dc:	1201110e 	andne	r1, r1, #-2147483645	; 0x80000003
     6e0:	00171006 	andseq	r1, r7, r6
     6e4:	00240200 	eoreq	r0, r4, r0, lsl #4
     6e8:	0b3e0b0b 	bleq	f8331c <__bss_end__+0xf78e4c>
     6ec:	00000803 	andeq	r0, r0, r3, lsl #16
     6f0:	03001603 	movweq	r1, #1539	; 0x603
     6f4:	3b0b3a0e 	blcc	2cef34 <__bss_end__+0x2c4a64>
     6f8:	490b390b 	stmdbmi	fp, {r0, r1, r3, r8, fp, ip, sp}
     6fc:	04000013 	streq	r0, [r0], #-19	; 0xffffffed
     700:	0b0b0024 	bleq	2c0798 <__bss_end__+0x2b62c8>
     704:	0e030b3e 	vmoveq.16	d3[0], r0
     708:	15050000 	strne	r0, [r5, #-0]
     70c:	49192701 	ldmdbmi	r9, {r0, r8, r9, sl, sp}
     710:	00130113 	andseq	r0, r3, r3, lsl r1
     714:	00050600 	andeq	r0, r5, r0, lsl #12
     718:	00001349 	andeq	r1, r0, r9, asr #6
     71c:	03003407 	movweq	r3, #1031	; 0x407
     720:	3b0b3a0e 	blcc	2cef60 <__bss_end__+0x2c4a90>
     724:	490b390b 	stmdbmi	fp, {r0, r1, r3, r8, fp, ip, sp}
     728:	3c193f13 	ldccc	15, cr3, [r9], {19}
     72c:	08000019 	stmdaeq	r0, {r0, r3, r4}
     730:	0b0b000f 	bleq	2c0774 <__bss_end__+0x2b62a4>
     734:	00001349 	andeq	r1, r0, r9, asr #6
     738:	49002609 	stmdbmi	r0, {r0, r3, r9, sl, sp}
     73c:	0a000013 	beq	790 <__code_start__-0x7870>
     740:	193f012e 	ldmdbne	pc!, {r1, r2, r3, r5, r8}	; <UNPREDICTABLE>
     744:	0b3a0e03 	bleq	e83f58 <__bss_end__+0xe79a88>
     748:	0b390b3b 	bleq	e4343c <__bss_end__+0xe38f6c>
     74c:	13491927 	movtne	r1, #39207	; 0x9927
     750:	06120111 			; <UNDEFINED> instruction: 0x06120111
     754:	42971840 	addsmi	r1, r7, #64, 16	; 0x400000
     758:	00130119 	andseq	r0, r3, r9, lsl r1
     75c:	00050b00 	andeq	r0, r5, r0, lsl #22
     760:	0b3a0803 	bleq	e82774 <__bss_end__+0xe782a4>
     764:	0b390b3b 	bleq	e43458 <__bss_end__+0xe38f88>
     768:	18021349 	stmdane	r2, {r0, r3, r6, r8, r9, ip}
     76c:	050c0000 	streq	r0, [ip, #-0]
     770:	3a080300 	bcc	201378 <__bss_end__+0x1f6ea8>
     774:	390b3b0b 	stmdbcc	fp, {r0, r1, r3, r8, r9, fp, ip, sp}
     778:	0213490b 	andseq	r4, r3, #180224	; 0x2c000
     77c:	1742b717 	smlaldne	fp, r2, r7, r7
     780:	340d0000 	strcc	r0, [sp], #-0
     784:	3a080300 	bcc	20138c <__bss_end__+0x1f6ebc>
     788:	390b3b0b 	stmdbcc	fp, {r0, r1, r3, r8, r9, fp, ip, sp}
     78c:	0213490b 	andseq	r4, r3, #180224	; 0x2c000
     790:	1742b717 	smlaldne	fp, r2, r7, r7
     794:	0f0e0000 	svceq	0x000e0000
     798:	000b0b00 	andeq	r0, fp, r0, lsl #22
     79c:	11010000 	mrsne	r0, (UNDEF: 1)
     7a0:	130e2501 	movwne	r2, #58625	; 0xe501
     7a4:	1b0e030b 	blne	3813d8 <__bss_end__+0x376f08>
     7a8:	1201110e 	andne	r1, r1, #-2147483645	; 0x80000003
     7ac:	00171006 	andseq	r1, r7, r6
     7b0:	00160200 	andseq	r0, r6, r0, lsl #4
     7b4:	0b3a0e03 	bleq	e83fc8 <__bss_end__+0xe79af8>
     7b8:	0b390b3b 	bleq	e434ac <__bss_end__+0xe38fdc>
     7bc:	00001349 	andeq	r1, r0, r9, asr #6
     7c0:	03011303 	movweq	r1, #4867	; 0x1303
     7c4:	3a0b0b0e 	bcc	2c3404 <__bss_end__+0x2b8f34>
     7c8:	010b3b0b 	tsteq	fp, fp, lsl #22
     7cc:	04000013 	streq	r0, [r0], #-19	; 0xffffffed
     7d0:	0e03000d 	cdpeq	0, 0, cr0, cr3, cr13, {0}
     7d4:	0b381349 	bleq	e05500 <__bss_end__+0xdfb030>
     7d8:	00001934 	andeq	r1, r0, r4, lsr r9
     7dc:	0b000f05 	bleq	43f8 <__code_start__-0x3c08>
     7e0:	0600000b 	streq	r0, [r0], -fp
     7e4:	0b0b0024 	bleq	2c087c <__bss_end__+0x2b63ac>
     7e8:	08030b3e 	stmdaeq	r3, {r1, r2, r3, r4, r5, r8, r9, fp}
     7ec:	24070000 	strcs	r0, [r7], #-0
     7f0:	3e0b0b00 	vmlacc.f64	d0, d11, d0
     7f4:	000e030b 	andeq	r0, lr, fp, lsl #6
     7f8:	01150800 	tsteq	r5, r0, lsl #16
     7fc:	13491927 	movtne	r1, #39207	; 0x9927
     800:	00001301 	andeq	r1, r0, r1, lsl #6
     804:	49000509 	stmdbmi	r0, {r0, r3, r8, sl}
     808:	0a000013 	beq	85c <__code_start__-0x77a4>
     80c:	0e030034 	mcreq	0, 0, r0, cr3, cr4, {1}
     810:	0b3b0b3a 	bleq	ec3500 <__bss_end__+0xeb9030>
     814:	13490b39 	movtne	r0, #39737	; 0x9b39
     818:	193c193f 	ldmdbne	ip!, {r0, r1, r2, r3, r4, r5, r8, fp, ip}
     81c:	0f0b0000 	svceq	0x000b0000
     820:	490b0b00 	stmdbmi	fp, {r8, r9, fp}
     824:	0c000013 	stceq	0, cr0, [r0], {19}
     828:	13490026 	movtne	r0, #36902	; 0x9026
     82c:	2e0d0000 	cdpcs	0, 0, cr0, cr13, cr0, {0}
     830:	03193f01 	tsteq	r9, #1, 30
     834:	3b0b3a0e 	blcc	2cf074 <__bss_end__+0x2c4ba4>
     838:	270b390b 	strcs	r3, [fp, -fp, lsl #18]
     83c:	11134919 	tstne	r3, r9, lsl r9
     840:	40061201 	andmi	r1, r6, r1, lsl #4
     844:	19429718 	stmdbne	r2, {r3, r4, r8, r9, sl, ip, pc}^
     848:	00001301 	andeq	r1, r0, r1, lsl #6
     84c:	0300050e 	movweq	r0, #1294	; 0x50e
     850:	3b0b3a08 	blcc	2cf078 <__bss_end__+0x2c4ba8>
     854:	490b390b 	stmdbmi	fp, {r0, r1, r3, r8, fp, ip, sp}
     858:	00180213 	andseq	r0, r8, r3, lsl r2
     85c:	00180f00 	andseq	r0, r8, r0, lsl #30
     860:	34100000 	ldrcc	r0, [r0], #-0
     864:	3a080300 	bcc	20146c <__bss_end__+0x1f6f9c>
     868:	390b3b0b 	stmdbcc	fp, {r0, r1, r3, r8, r9, fp, ip, sp}
     86c:	0213490b 	andseq	r4, r3, #180224	; 0x2c000
     870:	11000018 	tstne	r0, r8, lsl r0
     874:	0e030034 	mcreq	0, 0, r0, cr3, cr4, {1}
     878:	0b3b0b3a 	bleq	ec3568 <__bss_end__+0xeb9098>
     87c:	13490b39 	movtne	r0, #39737	; 0x9b39
     880:	00001802 	andeq	r1, r0, r2, lsl #16
     884:	03003412 	movweq	r3, #1042	; 0x412
     888:	3b0b3a08 	blcc	2cf0b0 <__bss_end__+0x2c4be0>
     88c:	490b390b 	stmdbmi	fp, {r0, r1, r3, r8, fp, ip, sp}
     890:	b7170213 			; <UNDEFINED> instruction: 0xb7170213
     894:	00001742 	andeq	r1, r0, r2, asr #14
     898:	01828913 	orreq	r8, r2, r3, lsl r9
     89c:	31011101 	tstcc	r1, r1, lsl #2
     8a0:	00130113 	andseq	r0, r3, r3, lsl r1
     8a4:	828a1400 	addhi	r1, sl, #0, 8
     8a8:	18020001 	stmdane	r2, {r0}
     8ac:	00184291 	mulseq	r8, r1, r2
     8b0:	82891500 	addhi	r1, r9, #0, 10
     8b4:	01110101 	tsteq	r1, r1, lsl #2
     8b8:	01160000 	tsteq	r6, r0
     8bc:	01134901 	tsteq	r3, r1, lsl #18
     8c0:	17000013 	smladne	r0, r3, r0, r0
     8c4:	13490021 	movtne	r0, #36897	; 0x9021
     8c8:	0000052f 	andeq	r0, r0, pc, lsr #10
     8cc:	3f002e18 	svccc	0x00002e18
     8d0:	6e193c19 	mrcvs	12, 0, r3, cr9, cr9, {0}
     8d4:	3a0e030e 	bcc	381514 <__bss_end__+0x377044>
     8d8:	390b3b0b 	stmdbcc	fp, {r0, r1, r3, r8, r9, fp, ip, sp}
     8dc:	0000000b 	andeq	r0, r0, fp
     8e0:	25011101 	strcs	r1, [r1, #-257]	; 0xfffffeff
     8e4:	030b130e 	movweq	r1, #45838	; 0xb30e
     8e8:	110e1b0e 	tstne	lr, lr, lsl #22
     8ec:	10061201 	andne	r1, r6, r1, lsl #4
     8f0:	02000017 	andeq	r0, r0, #23, 0
     8f4:	0b0b0024 	bleq	2c098c <__bss_end__+0x2b64bc>
     8f8:	08030b3e 	stmdaeq	r3, {r1, r2, r3, r4, r5, r8, r9, fp}
     8fc:	24030000 	strcs	r0, [r3], #-0
     900:	3e0b0b00 	vmlacc.f64	d0, d11, d0
     904:	000e030b 	andeq	r0, lr, fp, lsl #6
     908:	01150400 	tsteq	r5, r0, lsl #8
     90c:	13491927 	movtne	r1, #39207	; 0x9927
     910:	00001301 	andeq	r1, r0, r1, lsl #6
     914:	49000505 	stmdbmi	r0, {r0, r2, r8, sl}
     918:	06000013 			; <UNDEFINED> instruction: 0x06000013
     91c:	0e030034 	mcreq	0, 0, r0, cr3, cr4, {1}
     920:	0b3b0b3a 	bleq	ec3610 <__bss_end__+0xeb9140>
     924:	13490b39 	movtne	r0, #39737	; 0x9b39
     928:	193c193f 	ldmdbne	ip!, {r0, r1, r2, r3, r4, r5, r8, fp, ip}
     92c:	0f070000 	svceq	0x00070000
     930:	490b0b00 	stmdbmi	fp, {r8, r9, fp}
     934:	08000013 	stmdaeq	r0, {r0, r1, r4}
     938:	13490026 	movtne	r0, #36902	; 0x9026
     93c:	34090000 	strcc	r0, [r9], #-0
     940:	3a134700 	bcc	4d2548 <__bss_end__+0x4c8078>
     944:	390b3b0b 	stmdbcc	fp, {r0, r1, r3, r8, r9, fp, ip, sp}
     948:	0018020b 	andseq	r0, r8, fp, lsl #4
     94c:	012e0a00 			; <UNDEFINED> instruction: 0x012e0a00
     950:	0e03193f 			; <UNDEFINED> instruction: 0x0e03193f
     954:	0b3b0b3a 	bleq	ec3644 <__bss_end__+0xeb9174>
     958:	19270b39 	stmdbne	r7!, {r0, r3, r4, r5, r8, r9, fp}
     95c:	01111349 	tsteq	r1, r9, asr #6
     960:	18400612 	stmdane	r0, {r1, r4, r9, sl}^
     964:	00194296 	mulseq	r9, r6, r2
     968:	00050b00 	andeq	r0, r5, r0, lsl #22
     96c:	0b3a0803 	bleq	e82980 <__bss_end__+0xe784b0>
     970:	0b390b3b 	bleq	e43664 <__bss_end__+0xe39194>
     974:	17021349 	strne	r1, [r2, -r9, asr #6]
     978:	001742b7 			; <UNDEFINED> instruction: 0x001742b7
     97c:	11010000 	mrsne	r0, (UNDEF: 1)
     980:	130e2501 	movwne	r2, #58625	; 0xe501
     984:	1b0e030b 	blne	3815b8 <__bss_end__+0x3770e8>
     988:	1201110e 	andne	r1, r1, #-2147483645	; 0x80000003
     98c:	00171006 	andseq	r1, r7, r6
     990:	00240200 	eoreq	r0, r4, r0, lsl #4
     994:	0b3e0b0b 	bleq	f835c8 <__bss_end__+0xf790f8>
     998:	00000e03 	andeq	r0, r0, r3, lsl #28
     99c:	0b002403 	bleq	99b0 <kmalloc_notzero+0x30>
     9a0:	030b3e0b 	movweq	r3, #48651	; 0xbe0b
     9a4:	04000008 	streq	r0, [r0], #-8
     9a8:	0e030016 	mcreq	0, 0, r0, cr3, cr6, {0}
     9ac:	0b3b0b3a 	bleq	ec369c <__bss_end__+0xeb91cc>
     9b0:	13490b39 	movtne	r0, #39737	; 0x9b39
     9b4:	15050000 	strne	r0, [r5, #-0]
     9b8:	49192701 	ldmdbmi	r9, {r0, r8, r9, sl, sp}
     9bc:	00130113 	andseq	r0, r3, r3, lsl r1
     9c0:	00050600 	andeq	r0, r5, r0, lsl #12
     9c4:	00001349 	andeq	r1, r0, r9, asr #6
     9c8:	03003407 	movweq	r3, #1031	; 0x407
     9cc:	3b0b3a0e 	blcc	2cf20c <__bss_end__+0x2c4d3c>
     9d0:	490b390b 	stmdbmi	fp, {r0, r1, r3, r8, fp, ip, sp}
     9d4:	3c193f13 	ldccc	15, cr3, [r9], {19}
     9d8:	08000019 	stmdaeq	r0, {r0, r3, r4}
     9dc:	0b0b000f 	bleq	2c0a20 <__bss_end__+0x2b6550>
     9e0:	00001349 	andeq	r1, r0, r9, asr #6
     9e4:	49002609 	stmdbmi	r0, {r0, r3, r9, sl, sp}
     9e8:	0a000013 	beq	a3c <__code_start__-0x75c4>
     9ec:	0e030113 	mcreq	1, 0, r0, cr3, cr3, {0}
     9f0:	0b3a0b0b 	bleq	e83624 <__bss_end__+0xe79154>
     9f4:	13010b3b 	movwne	r0, #6971	; 0x1b3b
     9f8:	0d0b0000 	stceq	0, cr0, [fp, #-0]
     9fc:	490e0300 	stmdbmi	lr, {r8, r9}
     a00:	340b3813 	strcc	r3, [fp], #-2067	; 0xfffff7ed
     a04:	0c000019 	stceq	0, cr0, [r0], {25}
     a08:	0b0b000f 	bleq	2c0a4c <__bss_end__+0x2b657c>
     a0c:	2e0d0000 	cdpcs	0, 0, cr0, cr13, cr0, {0}
     a10:	03193f01 	tsteq	r9, #1, 30
     a14:	3b0b3a0e 	blcc	2cf254 <__bss_end__+0x2c4d84>
     a18:	270b390b 	strcs	r3, [fp, -fp, lsl #18]
     a1c:	11134919 	tstne	r3, r9, lsl r9
     a20:	40061201 	andmi	r1, r6, r1, lsl #4
     a24:	19429718 	stmdbne	r2, {r3, r4, r8, r9, sl, ip, pc}^
     a28:	00001301 	andeq	r1, r0, r1, lsl #6
     a2c:	0300050e 	movweq	r0, #1294	; 0x50e
     a30:	3b0b3a08 	blcc	2cf258 <__bss_end__+0x2c4d88>
     a34:	490b390b 	stmdbmi	fp, {r0, r1, r3, r8, fp, ip, sp}
     a38:	b7170213 			; <UNDEFINED> instruction: 0xb7170213
     a3c:	00001742 	andeq	r1, r0, r2, asr #14
     a40:	0300050f 	movweq	r0, #1295	; 0x50f
     a44:	3b0b3a0e 	blcc	2cf284 <__bss_end__+0x2c4db4>
     a48:	490b390b 	stmdbmi	fp, {r0, r1, r3, r8, fp, ip, sp}
     a4c:	b7170213 			; <UNDEFINED> instruction: 0xb7170213
     a50:	00001742 	andeq	r1, r0, r2, asr #14
     a54:	03003410 	movweq	r3, #1040	; 0x410
     a58:	3b0b3a08 	blcc	2cf280 <__bss_end__+0x2c4db0>
     a5c:	490b390b 	stmdbmi	fp, {r0, r1, r3, r8, fp, ip, sp}
     a60:	b7170213 			; <UNDEFINED> instruction: 0xb7170213
     a64:	00001742 	andeq	r1, r0, r2, asr #14
     a68:	03003411 	movweq	r3, #1041	; 0x411
     a6c:	3b0b3a0e 	blcc	2cf2ac <__bss_end__+0x2c4ddc>
     a70:	490b390b 	stmdbmi	fp, {r0, r1, r3, r8, fp, ip, sp}
     a74:	b7170213 			; <UNDEFINED> instruction: 0xb7170213
     a78:	00001742 	andeq	r1, r0, r2, asr #14
     a7c:	03003412 	movweq	r3, #1042	; 0x412
     a80:	3413490e 	ldrcc	r4, [r3], #-2318	; 0xfffff6f2
     a84:	00180219 	andseq	r0, r8, r9, lsl r2
     a88:	010b1300 	mrseq	r1, (UNDEF: 59)
     a8c:	00001755 	andeq	r1, r0, r5, asr r7
     a90:	03003414 	movweq	r3, #1044	; 0x414
     a94:	3b0b3a08 	blcc	2cf2bc <__bss_end__+0x2c4dec>
     a98:	490b390b 	stmdbmi	fp, {r0, r1, r3, r8, fp, ip, sp}
     a9c:	00180213 	andseq	r0, r8, r3, lsl r2
     aa0:	00341500 	eorseq	r1, r4, r0, lsl #10
     aa4:	0b3a0e03 	bleq	e842b8 <__bss_end__+0xe79de8>
     aa8:	0b390b3b 	bleq	e4379c <__bss_end__+0xe392cc>
     aac:	18021349 	stmdane	r2, {r0, r3, r6, r8, r9, ip}
     ab0:	0b160000 	bleq	580ab8 <__bss_end__+0x5765e8>
     ab4:	01175501 	tsteq	r7, r1, lsl #10
     ab8:	17000013 	smladne	r0, r3, r0, r0
     abc:	01018289 	smlabbeq	r1, r9, r2, r8
     ac0:	13310111 	teqne	r1, #1073741828	; 0x40000004
     ac4:	00001301 	andeq	r1, r0, r1, lsl #6
     ac8:	01828a18 	orreq	r8, r2, r8, lsl sl
     acc:	91180200 	tstls	r8, r0, lsl #4
     ad0:	00001842 	andeq	r1, r0, r2, asr #16
     ad4:	01828919 	orreq	r8, r2, r9, lsl r9
     ad8:	31011100 	mrscc	r1, (UNDEF: 17)
     adc:	1a000013 	bne	b30 <__code_start__-0x74d0>
     ae0:	1331011d 	teqne	r1, #1073741831	; 0x40000007
     ae4:	42b80152 	adcsmi	r0, r8, #-2147483628	; 0x80000014
     ae8:	58175505 	ldmdapl	r7, {r0, r2, r8, sl, ip, lr}
     aec:	570b590b 	strpl	r5, [fp, -fp, lsl #18]
     af0:	0013010b 	andseq	r0, r3, fp, lsl #2
     af4:	00051b00 	andeq	r1, r5, r0, lsl #22
     af8:	17021331 	smladxne	r2, r1, r3, r1
     afc:	001742b7 			; <UNDEFINED> instruction: 0x001742b7
     b00:	00051c00 	andeq	r1, r5, r0, lsl #24
     b04:	00001331 	andeq	r1, r0, r1, lsr r3
     b08:	3100341d 	tstcc	r0, sp, lsl r4
     b0c:	00180213 	andseq	r0, r8, r3, lsl r2
     b10:	00341e00 	eorseq	r1, r4, r0, lsl #28
     b14:	17021331 	smladxne	r2, r1, r3, r1
     b18:	001742b7 			; <UNDEFINED> instruction: 0x001742b7
     b1c:	00341f00 	eorseq	r1, r4, r0, lsl #30
     b20:	00001331 	andeq	r1, r0, r1, lsr r3
     b24:	31011d20 	tstcc	r1, r0, lsr #26
     b28:	b8015213 	stmdalt	r1, {r0, r1, r4, r9, ip, lr}
     b2c:	17550542 	ldrbne	r0, [r5, -r2, asr #10]
     b30:	0b590b58 	bleq	1643898 <__bss_end__+0x16393c8>
     b34:	00000b57 	andeq	r0, r0, r7, asr fp
     b38:	01828921 	orreq	r8, r2, r1, lsr #18
     b3c:	01011101 	tsteq	r1, r1, lsl #2
     b40:	22000013 	andcs	r0, r0, #19, 0
     b44:	13490101 	movtne	r0, #37121	; 0x9101
     b48:	00001301 	andeq	r1, r0, r1, lsl #6
     b4c:	49002123 	stmdbmi	r0, {r0, r1, r5, r8, sp}
     b50:	000b2f13 	andeq	r2, fp, r3, lsl pc
     b54:	012e2400 			; <UNDEFINED> instruction: 0x012e2400
     b58:	0b3a0e03 	bleq	e8436c <__bss_end__+0xe79e9c>
     b5c:	0b390b3b 	bleq	e43850 <__bss_end__+0xe39380>
     b60:	13491927 	movtne	r1, #39207	; 0x9927
     b64:	13010b20 	movwne	r0, #6944	; 0x1b20
     b68:	05250000 	streq	r0, [r5, #-0]!
     b6c:	3a0e0300 	bcc	381774 <__bss_end__+0x3772a4>
     b70:	390b3b0b 	stmdbcc	fp, {r0, r1, r3, r8, r9, fp, ip, sp}
     b74:	0013490b 	andseq	r4, r3, fp, lsl #18
     b78:	00052600 	andeq	r2, r5, r0, lsl #12
     b7c:	0b3a0803 	bleq	e82b90 <__bss_end__+0xe786c0>
     b80:	0b390b3b 	bleq	e43874 <__bss_end__+0xe393a4>
     b84:	00001349 	andeq	r1, r0, r9, asr #6
     b88:	03003427 	movweq	r3, #1063	; 0x427
     b8c:	3b0b3a08 	blcc	2cf3b4 <__bss_end__+0x2c4ee4>
     b90:	490b390b 	stmdbmi	fp, {r0, r1, r3, r8, fp, ip, sp}
     b94:	28000013 	stmdacs	r0, {r0, r1, r4}
     b98:	0000010b 	andeq	r0, r0, fp, lsl #2
     b9c:	03003429 	movweq	r3, #1065	; 0x429
     ba0:	3b0b3a0e 	blcc	2cf3e0 <__bss_end__+0x2c4f10>
     ba4:	490b390b 	stmdbmi	fp, {r0, r1, r3, r8, fp, ip, sp}
     ba8:	2a000013 	bcs	bfc <__code_start__-0x7404>
     bac:	0803012e 	stmdaeq	r3, {r1, r2, r3, r5, r8}
     bb0:	0b3b0b3a 	bleq	ec38a0 <__bss_end__+0xeb93d0>
     bb4:	19270b39 	stmdbne	r7!, {r0, r3, r4, r5, r8, r9, fp}
     bb8:	0b201349 	bleq	8058e4 <__bss_end__+0x7fb414>
     bbc:	00001301 	andeq	r1, r0, r1, lsl #6
     bc0:	3f012e2b 	svccc	0x00012e2b
     bc4:	3a0e0319 	bcc	381830 <__bss_end__+0x377360>
     bc8:	390b3b0b 	stmdbcc	fp, {r0, r1, r3, r8, r9, fp, ip, sp}
     bcc:	1119270b 	tstne	r9, fp, lsl #14
     bd0:	40061201 	andmi	r1, r6, r1, lsl #4
     bd4:	19429718 	stmdbne	r2, {r3, r4, r8, r9, sl, ip, pc}^
     bd8:	00001301 	andeq	r1, r0, r1, lsl #6
     bdc:	31012e2c 	tstcc	r1, ip, lsr #28
     be0:	12011113 	andne	r1, r1, #-1073741820	; 0xc0000004
     be4:	97184006 	ldrls	r4, [r8, -r6]
     be8:	13011942 	movwne	r1, #6466	; 0x1942
     bec:	052d0000 	streq	r0, [sp, #-0]!
     bf0:	02133100 	andseq	r3, r3, #0
     bf4:	2e000018 	mcrcs	0, 0, r0, cr0, cr8, {0}
     bf8:	13310005 	teqne	r1, #5, 0
     bfc:	00000b1c 	andeq	r0, r0, ip, lsl fp
     c00:	31010b2f 	tstcc	r1, pc, lsr #22
     c04:	12011113 	andne	r1, r1, #-1073741820	; 0xc0000004
     c08:	00130106 	andseq	r0, r3, r6, lsl #2
     c0c:	002e3000 	eoreq	r3, lr, r0
     c10:	193c193f 	ldmdbne	ip!, {r0, r1, r2, r3, r4, r5, r8, fp, ip}
     c14:	0e030e6e 	cdpeq	14, 0, cr0, cr3, cr14, {3}
     c18:	0b3b0b3a 	bleq	ec3908 <__bss_end__+0xeb9438>
     c1c:	00000b39 	andeq	r0, r0, r9, lsr fp
     c20:	01110100 	tsteq	r1, r0, lsl #2
     c24:	0b130e25 	bleq	4c44c0 <__bss_end__+0x4b9ff0>
     c28:	0e1b0e03 	cdpeq	14, 1, cr0, cr11, cr3, {0}
     c2c:	01111755 	tsteq	r1, r5, asr r7
     c30:	00001710 	andeq	r1, r0, r0, lsl r7
     c34:	0b002402 	bleq	9c44 <rpi_set_putc+0xc>
     c38:	030b3e0b 	movweq	r3, #48651	; 0xbe0b
     c3c:	03000008 	movweq	r0, #8
     c40:	0b0b0024 	bleq	2c0cd8 <__bss_end__+0x2b6808>
     c44:	0e030b3e 	vmoveq.16	d3[0], r0
     c48:	15040000 	strne	r0, [r4, #-0]
     c4c:	49192701 	ldmdbmi	r9, {r0, r8, r9, sl, sp}
     c50:	00130113 	andseq	r0, r3, r3, lsl r1
     c54:	00050500 	andeq	r0, r5, r0, lsl #10
     c58:	00001349 	andeq	r1, r0, r9, asr #6
     c5c:	03003406 	movweq	r3, #1030	; 0x406
     c60:	3b0b3a0e 	blcc	2cf4a0 <__bss_end__+0x2c4fd0>
     c64:	490b390b 	stmdbmi	fp, {r0, r1, r3, r8, fp, ip, sp}
     c68:	3c193f13 	ldccc	15, cr3, [r9], {19}
     c6c:	07000019 	smladeq	r0, r9, r0, r0
     c70:	0b0b000f 	bleq	2c0cb4 <__bss_end__+0x2b67e4>
     c74:	00001349 	andeq	r1, r0, r9, asr #6
     c78:	49002608 	stmdbmi	r0, {r3, r9, sl, sp}
     c7c:	09000013 	stmdbeq	r0, {r0, r1, r4}
     c80:	193f012e 	ldmdbne	pc!, {r1, r2, r3, r5, r8}	; <UNPREDICTABLE>
     c84:	0b3a0e03 	bleq	e84498 <__bss_end__+0xe79fc8>
     c88:	0b390b3b 	bleq	e4397c <__bss_end__+0xe394ac>
     c8c:	01111927 	tsteq	r1, r7, lsr #18
     c90:	18400612 	stmdane	r0, {r1, r4, r9, sl}^
     c94:	01194297 			; <UNDEFINED> instruction: 0x01194297
     c98:	0a000013 	beq	cec <__code_start__-0x7314>
     c9c:	08030034 	stmdaeq	r3, {r2, r4, r5}
     ca0:	0b3b0b3a 	bleq	ec3990 <__bss_end__+0xeb94c0>
     ca4:	13490b39 	movtne	r0, #39737	; 0x9b39
     ca8:	42b71702 	adcsmi	r1, r7, #524288	; 0x80000
     cac:	0b000017 	bleq	d10 <__code_start__-0x72f0>
     cb0:	193f012e 	ldmdbne	pc!, {r1, r2, r3, r5, r8}	; <UNPREDICTABLE>
     cb4:	0b3a0e03 	bleq	e844c8 <__bss_end__+0xe79ff8>
     cb8:	0b390b3b 	bleq	e439ac <__bss_end__+0xe394dc>
     cbc:	01111927 	tsteq	r1, r7, lsr #18
     cc0:	18400612 	stmdane	r0, {r1, r4, r9, sl}^
     cc4:	00194297 	mulseq	r9, r7, r2
     cc8:	11010000 	mrsne	r0, (UNDEF: 1)
     ccc:	130e2501 	movwne	r2, #58625	; 0xe501
     cd0:	1b0e030b 	blne	381904 <__bss_end__+0x377434>
     cd4:	1201110e 	andne	r1, r1, #-2147483645	; 0x80000003
     cd8:	00171006 	andseq	r1, r7, r6
     cdc:	00240200 	eoreq	r0, r4, r0, lsl #4
     ce0:	0b3e0b0b 	bleq	f83914 <__bss_end__+0xf79444>
     ce4:	00000803 	andeq	r0, r0, r3, lsl #16
     ce8:	0b002403 	bleq	9cfc <strncmp+0x2c>
     cec:	030b3e0b 	movweq	r3, #48651	; 0xbe0b
     cf0:	0400000e 	streq	r0, [r0], #-14
     cf4:	19270115 	stmdbne	r7!, {r0, r2, r4, r8}
     cf8:	13011349 	movwne	r1, #4937	; 0x1349
     cfc:	05050000 	streq	r0, [r5, #-0]
     d00:	00134900 	andseq	r4, r3, r0, lsl #18
     d04:	00340600 	eorseq	r0, r4, r0, lsl #12
     d08:	0b3a0e03 	bleq	e8451c <__bss_end__+0xe7a04c>
     d0c:	0b390b3b 	bleq	e43a00 <__bss_end__+0xe39530>
     d10:	193f1349 	ldmdbne	pc!, {r0, r3, r6, r8, r9, ip}	; <UNPREDICTABLE>
     d14:	0000193c 	andeq	r1, r0, ip, lsr r9
     d18:	0b000f07 	bleq	493c <__code_start__-0x36c4>
     d1c:	0013490b 	andseq	r4, r3, fp, lsl #18
     d20:	00260800 	eoreq	r0, r6, r0, lsl #16
     d24:	00001349 	andeq	r1, r0, r9, asr #6
     d28:	3f012e09 	svccc	0x00012e09
     d2c:	3a0e0319 	bcc	381998 <__bss_end__+0x3774c8>
     d30:	390b3b0b 	stmdbcc	fp, {r0, r1, r3, r8, r9, fp, ip, sp}
     d34:	8719270b 	ldrhi	r2, [r9, -fp, lsl #14]
     d38:	01111901 	tsteq	r1, r1, lsl #18
     d3c:	18400612 	stmdane	r0, {r1, r4, r9, sl}^
     d40:	01194297 			; <UNDEFINED> instruction: 0x01194297
     d44:	0a000013 	beq	d98 <__code_start__-0x7268>
     d48:	01018289 	smlabbeq	r1, r9, r2, r8
     d4c:	13010111 	movwne	r0, #4369	; 0x1111
     d50:	8a0b0000 	bhi	2c0d58 <__bss_end__+0x2b6888>
     d54:	02000182 	andeq	r0, r0, #-2147483616	; 0x80000020
     d58:	18429118 	stmdane	r2, {r3, r4, r8, ip, pc}^
     d5c:	890c0000 	stmdbhi	ip, {}	; <UNPREDICTABLE>
     d60:	11000182 	smlabbne	r0, r2, r1, r0
     d64:	00133101 	andseq	r3, r3, r1, lsl #2
     d68:	82890d00 	addhi	r0, r9, #0, 26
     d6c:	01110101 	tsteq	r1, r1, lsl #2
     d70:	13011331 	movwne	r1, #4913	; 0x1331
     d74:	2e0e0000 	cdpcs	0, 0, cr0, cr14, cr0, {0}
     d78:	3c193f00 	ldccc	15, cr3, [r9], {-0}
     d7c:	030e6e19 	movweq	r6, #60953	; 0xee19
     d80:	3b0b3a0e 	blcc	2cf5c0 <__bss_end__+0x2c50f0>
     d84:	000b390b 	andeq	r3, fp, fp, lsl #18
     d88:	11010000 	mrsne	r0, (UNDEF: 1)
     d8c:	130e2501 	movwne	r2, #58625	; 0xe501
     d90:	1b0e030b 	blne	3819c4 <__bss_end__+0x3774f4>
     d94:	1201110e 	andne	r1, r1, #-2147483645	; 0x80000003
     d98:	00171006 	andseq	r1, r7, r6
     d9c:	00240200 	eoreq	r0, r4, r0, lsl #4
     da0:	0b3e0b0b 	bleq	f839d4 <__bss_end__+0xf79504>
     da4:	00000803 	andeq	r0, r0, r3, lsl #16
     da8:	0b002403 	bleq	9dbc <__code_end__+0xa0>
     dac:	030b3e0b 	movweq	r3, #48651	; 0xbe0b
     db0:	0400000e 	streq	r0, [r0], #-14
     db4:	19270115 	stmdbne	r7!, {r0, r2, r4, r8}
     db8:	13011349 	movwne	r1, #4937	; 0x1349
     dbc:	05050000 	streq	r0, [r5, #-0]
     dc0:	00134900 	andseq	r4, r3, r0, lsl #18
     dc4:	00340600 	eorseq	r0, r4, r0, lsl #12
     dc8:	0b3a0e03 	bleq	e845dc <__bss_end__+0xe7a10c>
     dcc:	0b390b3b 	bleq	e43ac0 <__bss_end__+0xe395f0>
     dd0:	193f1349 	ldmdbne	pc!, {r0, r3, r6, r8, r9, ip}	; <UNPREDICTABLE>
     dd4:	0000193c 	andeq	r1, r0, ip, lsr r9
     dd8:	0b000f07 	bleq	49fc <__code_start__-0x3604>
     ddc:	0013490b 	andseq	r4, r3, fp, lsl #18
     de0:	00260800 	eoreq	r0, r6, r0, lsl #16
     de4:	00001349 	andeq	r1, r0, r9, asr #6
     de8:	3f012e09 	svccc	0x00012e09
     dec:	3a0e0319 	bcc	381a58 <__bss_end__+0x377588>
     df0:	390b3b0b 	stmdbcc	fp, {r0, r1, r3, r8, r9, fp, ip, sp}
     df4:	1201110b 	andne	r1, r1, #-1073741822	; 0xc0000002
     df8:	97184006 	ldrls	r4, [r8, -r6]
     dfc:	13011942 	movwne	r1, #6466	; 0x1942
     e00:	2e0a0000 	cdpcs	0, 0, cr0, cr10, cr0, {0}
     e04:	03193f00 	tsteq	r9, #0, 30
     e08:	3b0b3a0e 	blcc	2cf648 <__bss_end__+0x2c5178>
     e0c:	270b390b 	strcs	r3, [fp, -fp, lsl #18]
     e10:	00193c19 	andseq	r3, r9, r9, lsl ip
     e14:	00340b00 	eorseq	r0, r4, r0, lsl #22
     e18:	0b3a0803 	bleq	e82e2c <__bss_end__+0xe7895c>
     e1c:	0b390b3b 	bleq	e43b10 <__bss_end__+0xe39640>
     e20:	17021349 	strne	r1, [r2, -r9, asr #6]
     e24:	001742b7 			; <UNDEFINED> instruction: 0x001742b7
     e28:	00340c00 	eorseq	r0, r4, r0, lsl #24
     e2c:	0b3a0e03 	bleq	e84640 <__bss_end__+0xe7a170>
     e30:	0b390b3b 	bleq	e43b24 <__bss_end__+0xe39654>
     e34:	00001349 	andeq	r1, r0, r9, asr #6
     e38:	11010b0d 	tstne	r1, sp, lsl #22
     e3c:	01061201 	tsteq	r6, r1, lsl #4
     e40:	0e000013 	mcreq	0, 0, r0, cr0, cr3, {0}
     e44:	00018289 	andeq	r8, r1, r9, lsl #5
     e48:	13310111 	teqne	r1, #1073741828	; 0x40000004
     e4c:	2e0f0000 	cdpcs	0, 0, cr0, cr15, cr0, {0}
     e50:	3c193f00 	ldccc	15, cr3, [r9], {-0}
     e54:	030e6e19 	movweq	r6, #60953	; 0xee19
     e58:	3b0b3a0e 	blcc	2cf698 <__bss_end__+0x2c51c8>
     e5c:	000b3905 	andeq	r3, fp, r5, lsl #18
     e60:	002e1000 	eoreq	r1, lr, r0
     e64:	193c193f 	ldmdbne	ip!, {r0, r1, r2, r3, r4, r5, r8, fp, ip}
     e68:	0e030e6e 	cdpeq	14, 0, cr0, cr3, cr14, {3}
     e6c:	0b3b0b3a 	bleq	ec3b5c <__bss_end__+0xeb968c>
     e70:	00000b39 	andeq	r0, r0, r9, lsr fp
     e74:	01110100 	tsteq	r1, r0, lsl #2
     e78:	0b130e25 	bleq	4c4714 <__bss_end__+0x4ba244>
     e7c:	0e1b0e03 	cdpeq	14, 1, cr0, cr11, cr3, {0}
     e80:	06120111 			; <UNDEFINED> instruction: 0x06120111
     e84:	00001710 	andeq	r1, r0, r0, lsl r7
     e88:	0b002402 	bleq	9e98 <__FUNCTION__.3948+0x4>
     e8c:	030b3e0b 	movweq	r3, #48651	; 0xbe0b
     e90:	03000008 	movweq	r0, #8
     e94:	0b0b0024 	bleq	2c0f2c <__bss_end__+0x2b6a5c>
     e98:	0e030b3e 	vmoveq.16	d3[0], r0
     e9c:	15040000 	strne	r0, [r4, #-0]
     ea0:	49192701 	ldmdbmi	r9, {r0, r8, r9, sl, sp}
     ea4:	00130113 	andseq	r0, r3, r3, lsl r1
     ea8:	00050500 	andeq	r0, r5, r0, lsl #10
     eac:	00001349 	andeq	r1, r0, r9, asr #6
     eb0:	03003406 	movweq	r3, #1030	; 0x406
     eb4:	3b0b3a0e 	blcc	2cf6f4 <__bss_end__+0x2c5224>
     eb8:	490b390b 	stmdbmi	fp, {r0, r1, r3, r8, fp, ip, sp}
     ebc:	3c193f13 	ldccc	15, cr3, [r9], {19}
     ec0:	07000019 	smladeq	r0, r9, r0, r0
     ec4:	0b0b000f 	bleq	2c0f08 <__bss_end__+0x2b6a38>
     ec8:	00001349 	andeq	r1, r0, r9, asr #6
     ecc:	49002608 	stmdbmi	r0, {r3, r9, sl, sp}
     ed0:	09000013 	stmdbeq	r0, {r0, r1, r4}
     ed4:	193f002e 	ldmdbne	pc!, {r1, r2, r3, r5}	; <UNPREDICTABLE>
     ed8:	0b3a0e03 	bleq	e846ec <__bss_end__+0xe7a21c>
     edc:	0b390b3b 	bleq	e43bd0 <__bss_end__+0xe39700>
     ee0:	01111927 	tsteq	r1, r7, lsr #18
     ee4:	18400612 	stmdane	r0, {r1, r4, r9, sl}^
     ee8:	00194297 	mulseq	r9, r7, r2
     eec:	11010000 	mrsne	r0, (UNDEF: 1)
     ef0:	130e2501 	movwne	r2, #58625	; 0xe501
     ef4:	1b0e030b 	blne	381b28 <__bss_end__+0x377658>
     ef8:	1117550e 	tstne	r7, lr, lsl #10
     efc:	00171001 	andseq	r1, r7, r1
     f00:	00240200 	eoreq	r0, r4, r0, lsl #4
     f04:	0b3e0b0b 	bleq	f83b38 <__bss_end__+0xf79668>
     f08:	00000803 	andeq	r0, r0, r3, lsl #16
     f0c:	49002603 	stmdbmi	r0, {r0, r1, r9, sl, sp}
     f10:	04000013 	streq	r0, [r0], #-19	; 0xffffffed
     f14:	0b0b0024 	bleq	2c0fac <__bss_end__+0x2b6adc>
     f18:	0e030b3e 	vmoveq.16	d3[0], r0
     f1c:	15050000 	strne	r0, [r5, #-0]
     f20:	49192701 	ldmdbmi	r9, {r0, r8, r9, sl, sp}
     f24:	00130113 	andseq	r0, r3, r3, lsl r1
     f28:	00050600 	andeq	r0, r5, r0, lsl #12
     f2c:	00001349 	andeq	r1, r0, r9, asr #6
     f30:	03003407 	movweq	r3, #1031	; 0x407
     f34:	3b0b3a0e 	blcc	2cf774 <__bss_end__+0x2c52a4>
     f38:	490b390b 	stmdbmi	fp, {r0, r1, r3, r8, fp, ip, sp}
     f3c:	3c193f13 	ldccc	15, cr3, [r9], {19}
     f40:	08000019 	stmdaeq	r0, {r0, r3, r4}
     f44:	0b0b000f 	bleq	2c0f88 <__bss_end__+0x2b6ab8>
     f48:	00001349 	andeq	r1, r0, r9, asr #6
     f4c:	03003409 	movweq	r3, #1033	; 0x409
     f50:	3b0b3a0e 	blcc	2cf790 <__bss_end__+0x2c52c0>
     f54:	490b390b 	stmdbmi	fp, {r0, r1, r3, r8, fp, ip, sp}
     f58:	0a000013 	beq	fac <__code_start__-0x7054>
     f5c:	193f012e 	ldmdbne	pc!, {r1, r2, r3, r5, r8}	; <UNPREDICTABLE>
     f60:	0b3a0e03 	bleq	e84774 <__bss_end__+0xe7a2a4>
     f64:	0b390b3b 	bleq	e43c58 <__bss_end__+0xe39788>
     f68:	01871927 	orreq	r1, r7, r7, lsr #18
     f6c:	12011119 	andne	r1, r1, #1073741830	; 0x40000006
     f70:	97184006 	ldrls	r4, [r8, -r6]
     f74:	13011942 	movwne	r1, #6466	; 0x1942
     f78:	340b0000 	strcc	r0, [fp], #-0
     f7c:	3a0e0300 	bcc	381b84 <__bss_end__+0x3776b4>
     f80:	390b3b0b 	stmdbcc	fp, {r0, r1, r3, r8, r9, fp, ip, sp}
     f84:	1c13490b 			; <UNDEFINED> instruction: 0x1c13490b
     f88:	0c000006 	stceq	0, cr0, [r0], {6}
     f8c:	0e030034 	mcreq	0, 0, r0, cr3, cr4, {1}
     f90:	0b3b0b3a 	bleq	ec3c80 <__bss_end__+0xeb97b0>
     f94:	13490b39 	movtne	r0, #39737	; 0x9b39
     f98:	00000b1c 	andeq	r0, r0, ip, lsl fp
     f9c:	31011d0d 	tstcc	r1, sp, lsl #26
     fa0:	b8015213 	stmdalt	r1, {r0, r1, r4, r9, ip, lr}
     fa4:	17550b42 	ldrbne	r0, [r5, -r2, asr #22]
     fa8:	0b590b58 	bleq	1643d10 <__bss_end__+0x1639840>
     fac:	13010b57 	movwne	r0, #6999	; 0x1b57
     fb0:	0b0e0000 	bleq	380fb8 <__bss_end__+0x376ae8>
     fb4:	00175501 	andseq	r5, r7, r1, lsl #10
     fb8:	00340f00 	eorseq	r0, r4, r0, lsl #30
     fbc:	17021331 	smladxne	r2, r1, r3, r1
     fc0:	001742b7 			; <UNDEFINED> instruction: 0x001742b7
     fc4:	011d1000 	tsteq	sp, r0
     fc8:	01521331 	cmpeq	r2, r1, lsr r3
     fcc:	110b42b8 			; <UNDEFINED> instruction: 0x110b42b8
     fd0:	58061201 	stmdapl	r6, {r0, r9, ip}
     fd4:	570b590b 	strpl	r5, [fp, -fp, lsl #18]
     fd8:	0013010b 	andseq	r0, r3, fp, lsl #2
     fdc:	82891100 	addhi	r1, r9, #0
     fe0:	01110001 	tsteq	r1, r1
     fe4:	00001331 	andeq	r1, r0, r1, lsr r3
     fe8:	01828912 	orreq	r8, r2, r2, lsl r9
     fec:	31011101 	tstcc	r1, r1, lsl #2
     ff0:	00130113 	andseq	r0, r3, r3, lsl r1
     ff4:	828a1300 	addhi	r1, sl, #0, 6
     ff8:	18020001 	stmdane	r2, {r0}
     ffc:	00184291 	mulseq	r8, r1, r2
    1000:	82891400 	addhi	r1, r9, #0, 8
    1004:	01110101 	tsteq	r1, r1, lsl #2
    1008:	00001331 	andeq	r1, r0, r1, lsr r3
    100c:	3f012e15 	svccc	0x00012e15
    1010:	3a0e0319 	bcc	381c7c <__bss_end__+0x3777ac>
    1014:	390b3b0b 	stmdbcc	fp, {r0, r1, r3, r8, r9, fp, ip, sp}
    1018:	2019270b 	andscs	r2, r9, fp, lsl #14
    101c:	0013010b 	andseq	r0, r3, fp, lsl #2
    1020:	012e1600 			; <UNDEFINED> instruction: 0x012e1600
    1024:	0e03193f 			; <UNDEFINED> instruction: 0x0e03193f
    1028:	0b3b0b3a 	bleq	ec3d18 <__bss_end__+0xeb9848>
    102c:	19270b39 	stmdbne	r7!, {r0, r3, r4, r5, r8, r9, fp}
    1030:	0b201349 	bleq	805d5c <__bss_end__+0x7fb88c>
    1034:	00001301 	andeq	r1, r0, r1, lsl #6
    1038:	31012e17 	tstcc	r1, r7, lsl lr
    103c:	12011113 	andne	r1, r1, #-1073741820	; 0xc0000004
    1040:	97184006 	ldrls	r4, [r8, -r6]
    1044:	13011942 	movwne	r1, #6466	; 0x1942
    1048:	2e180000 	cdpcs	0, 1, cr0, cr8, cr0, {0}
    104c:	3c193f00 	ldccc	15, cr3, [r9], {-0}
    1050:	030e6e19 	movweq	r6, #60953	; 0xee19
    1054:	3b0b3a0e 	blcc	2cf894 <__bss_end__+0x2c53c4>
    1058:	000b3905 	andeq	r3, fp, r5, lsl #18
    105c:	002e1900 	eoreq	r1, lr, r0, lsl #18
    1060:	193c193f 	ldmdbne	ip!, {r0, r1, r2, r3, r4, r5, r8, fp, ip}
    1064:	0e030e6e 	cdpeq	14, 0, cr0, cr3, cr14, {3}
    1068:	0b3b0b3a 	bleq	ec3d58 <__bss_end__+0xeb9888>
    106c:	00000b39 	andeq	r0, r0, r9, lsr fp
    1070:	01110100 	tsteq	r1, r0, lsl #2
    1074:	0b130e25 	bleq	4c4910 <__bss_end__+0x4ba440>
    1078:	0e1b0e03 	cdpeq	14, 1, cr0, cr11, cr3, {0}
    107c:	06120111 			; <UNDEFINED> instruction: 0x06120111
    1080:	00001710 	andeq	r1, r0, r0, lsl r7
    1084:	0b002402 	bleq	a094 <__FUNCTION__.1>
    1088:	030b3e0b 	movweq	r3, #48651	; 0xbe0b
    108c:	03000008 	movweq	r0, #8
    1090:	0b0b0024 	bleq	2c1128 <__bss_end__+0x2b6c58>
    1094:	0e030b3e 	vmoveq.16	d3[0], r0
    1098:	15040000 	strne	r0, [r4, #-0]
    109c:	49192701 	ldmdbmi	r9, {r0, r8, r9, sl, sp}
    10a0:	00130113 	andseq	r0, r3, r3, lsl r1
    10a4:	00050500 	andeq	r0, r5, r0, lsl #10
    10a8:	00001349 	andeq	r1, r0, r9, asr #6
    10ac:	03003406 	movweq	r3, #1030	; 0x406
    10b0:	3b0b3a0e 	blcc	2cf8f0 <__bss_end__+0x2c5420>
    10b4:	490b390b 	stmdbmi	fp, {r0, r1, r3, r8, fp, ip, sp}
    10b8:	3c193f13 	ldccc	15, cr3, [r9], {19}
    10bc:	07000019 	smladeq	r0, r9, r0, r0
    10c0:	0b0b000f 	bleq	2c1104 <__bss_end__+0x2b6c34>
    10c4:	00001349 	andeq	r1, r0, r9, asr #6
    10c8:	49002608 	stmdbmi	r0, {r3, r9, sl, sp}
    10cc:	09000013 	stmdbeq	r0, {r0, r1, r4}
    10d0:	193f012e 	ldmdbne	pc!, {r1, r2, r3, r5, r8}	; <UNPREDICTABLE>
    10d4:	0b3a0e03 	bleq	e848e8 <__bss_end__+0xe7a418>
    10d8:	0b390b3b 	bleq	e43dcc <__bss_end__+0xe398fc>
    10dc:	01111927 	tsteq	r1, r7, lsr #18
    10e0:	18400612 	stmdane	r0, {r1, r4, r9, sl}^
    10e4:	01194297 			; <UNDEFINED> instruction: 0x01194297
    10e8:	0a000013 	beq	113c <__code_start__-0x6ec4>
    10ec:	08030005 	stmdaeq	r3, {r0, r2}
    10f0:	0b3b0b3a 	bleq	ec3de0 <__bss_end__+0xeb9910>
    10f4:	13490b39 	movtne	r0, #39737	; 0x9b39
    10f8:	42b71702 	adcsmi	r1, r7, #524288	; 0x80000
    10fc:	0b000017 	bleq	1160 <__code_start__-0x6ea0>
    1100:	1331011d 	teqne	r1, #1073741831	; 0x40000007
    1104:	42b80152 	adcsmi	r0, r8, #-2147483628	; 0x80000014
    1108:	5817550b 	ldmdapl	r7, {r0, r1, r3, r8, sl, ip, lr}
    110c:	570b590b 	strpl	r5, [fp, -fp, lsl #18]
    1110:	0c00000b 	stceq	0, cr0, [r0], {11}
    1114:	13310005 	teqne	r1, #5, 0
    1118:	42b71702 	adcsmi	r1, r7, #524288	; 0x80000
    111c:	0d000017 	stceq	0, cr0, [r0, #-92]	; 0xffffffa4
    1120:	1331011d 	teqne	r1, #1073741831	; 0x40000007
    1124:	42b80152 	adcsmi	r0, r8, #-2147483628	; 0x80000014
    1128:	1201110b 	andne	r1, r1, #-1073741822	; 0xc0000002
    112c:	590b5806 	stmdbpl	fp, {r1, r2, fp, ip, lr}
    1130:	000b570b 	andeq	r5, fp, fp, lsl #14
    1134:	00340e00 	eorseq	r0, r4, r0, lsl #28
    1138:	17021331 	smladxne	r2, r1, r3, r1
    113c:	001742b7 			; <UNDEFINED> instruction: 0x001742b7
    1140:	011d0f00 	tsteq	sp, r0, lsl #30
    1144:	01521331 	cmpeq	r2, r1, lsr r3
    1148:	110b42b8 			; <UNDEFINED> instruction: 0x110b42b8
    114c:	58061201 	stmdapl	r6, {r0, r9, ip}
    1150:	570b590b 	strpl	r5, [fp, -fp, lsl #18]
    1154:	0013010b 	andseq	r0, r3, fp, lsl #2
    1158:	82891000 	addhi	r1, r9, #0, 0
    115c:	01110101 	tsteq	r1, r1, lsl #2
    1160:	00001331 	andeq	r1, r0, r1, lsr r3
    1164:	01828a11 	orreq	r8, r2, r1, lsl sl
    1168:	91180200 	tstls	r8, r0, lsl #4
    116c:	00001842 	andeq	r1, r0, r2, asr #16
    1170:	01828912 	orreq	r8, r2, r2, lsl r9
    1174:	31011100 	mrscc	r1, (UNDEF: 17)
    1178:	13000013 	movwne	r0, #19
    117c:	1331010b 	teqne	r1, #-1073741822	; 0xc0000002
    1180:	00001755 	andeq	r1, r0, r5, asr r7
    1184:	31003414 	tstcc	r0, r4, lsl r4
    1188:	15000013 	strne	r0, [r0, #-19]	; 0xffffffed
    118c:	1755010b 	ldrbne	r0, [r5, -fp, lsl #2]
    1190:	1d160000 	ldcne	0, cr0, [r6, #-0]
    1194:	52133101 	andspl	r3, r3, #1073741824	; 0x40000000
    1198:	0b42b801 	bleq	10af1a4 <__bss_end__+0x10a4cd4>
    119c:	0b581755 	bleq	1606ef8 <__bss_end__+0x15fca28>
    11a0:	0b570b59 	bleq	15c3f0c <__bss_end__+0x15b9a3c>
    11a4:	00001301 	andeq	r1, r0, r1, lsl #6
    11a8:	3f012e17 	svccc	0x00012e17
    11ac:	3a0e0319 	bcc	381e18 <__bss_end__+0x377948>
    11b0:	390b3b0b 	stmdbcc	fp, {r0, r1, r3, r8, r9, fp, ip, sp}
    11b4:	2019270b 	andscs	r2, r9, fp, lsl #14
    11b8:	0013010b 	andseq	r0, r3, fp, lsl #2
    11bc:	00051800 	andeq	r1, r5, r0, lsl #16
    11c0:	0b3a0803 	bleq	e831d4 <__bss_end__+0xe78d04>
    11c4:	0b390b3b 	bleq	e43eb8 <__bss_end__+0xe399e8>
    11c8:	00001349 	andeq	r1, r0, r9, asr #6
    11cc:	03003419 	movweq	r3, #1049	; 0x419
    11d0:	3b0b3a08 	blcc	2cf9f8 <__bss_end__+0x2c5528>
    11d4:	490b390b 	stmdbmi	fp, {r0, r1, r3, r8, fp, ip, sp}
    11d8:	1a000013 	bne	122c <__code_start__-0x6dd4>
    11dc:	0000010b 	andeq	r0, r0, fp, lsl #2
    11e0:	3f012e1b 	svccc	0x00012e1b
    11e4:	3a0e0319 	bcc	381e50 <__bss_end__+0x377980>
    11e8:	390b3b0b 	stmdbcc	fp, {r0, r1, r3, r8, r9, fp, ip, sp}
    11ec:	4919270b 	ldmdbmi	r9, {r0, r1, r3, r8, r9, sl, sp}
    11f0:	010b2013 	tsteq	fp, r3, lsl r0
    11f4:	1c000013 	stcne	0, cr0, [r0], {19}
    11f8:	193f002e 	ldmdbne	pc!, {r1, r2, r3, r5}	; <UNPREDICTABLE>
    11fc:	0b3a0e03 	bleq	e84a10 <__bss_end__+0xe7a540>
    1200:	0b390b3b 	bleq	e43ef4 <__bss_end__+0xe39a24>
    1204:	13491927 	movtne	r1, #39207	; 0x9927
    1208:	00000b20 	andeq	r0, r0, r0, lsr #22
    120c:	31012e1d 	tstcc	r1, sp, lsl lr
    1210:	12011113 	andne	r1, r1, #-1073741820	; 0xc0000004
    1214:	97184006 	ldrls	r4, [r8, -r6]
    1218:	13011942 	movwne	r1, #6466	; 0x1942
    121c:	891e0000 	ldmdbhi	lr, {}	; <UNPREDICTABLE>
    1220:	11010182 	smlabbne	r1, r2, r1, r0
    1224:	19429501 	stmdbne	r2, {r0, r8, sl, ip, pc}^
    1228:	00001331 	andeq	r1, r0, r1, lsr r3
    122c:	3f002e1f 	svccc	0x00002e1f
    1230:	6e193c19 	mrcvs	12, 0, r3, cr9, cr9, {0}
    1234:	3a0e030e 	bcc	381e74 <__bss_end__+0x3779a4>
    1238:	390b3b0b 	stmdbcc	fp, {r0, r1, r3, r8, r9, fp, ip, sp}
    123c:	0000000b 	andeq	r0, r0, fp
    1240:	25011101 	strcs	r1, [r1, #-257]	; 0xfffffeff
    1244:	030b130e 	movweq	r1, #45838	; 0xb30e
    1248:	110e1b0e 	tstne	lr, lr, lsl #22
    124c:	10061201 	andne	r1, r6, r1, lsl #4
    1250:	02000017 	andeq	r0, r0, #23, 0
    1254:	0b0b0024 	bleq	2c12ec <__bss_end__+0x2b6e1c>
    1258:	08030b3e 	stmdaeq	r3, {r1, r2, r3, r4, r5, r8, r9, fp}
    125c:	24030000 	strcs	r0, [r3], #-0
    1260:	3e0b0b00 	vmlacc.f64	d0, d11, d0
    1264:	000e030b 	andeq	r0, lr, fp, lsl #6
    1268:	00350400 	eorseq	r0, r5, r0, lsl #8
    126c:	00001349 	andeq	r1, r0, r9, asr #6
    1270:	03001605 	movweq	r1, #1541	; 0x605
    1274:	3b0b3a0e 	blcc	2cfab4 <__bss_end__+0x2c55e4>
    1278:	490b390b 	stmdbmi	fp, {r0, r1, r3, r8, fp, ip, sp}
    127c:	06000013 			; <UNDEFINED> instruction: 0x06000013
    1280:	0b3e0104 	bleq	f81698 <__bss_end__+0xf771c8>
    1284:	13490b0b 	movtne	r0, #39691	; 0x9b0b
    1288:	0b3b0b3a 	bleq	ec3f78 <__bss_end__+0xeb9aa8>
    128c:	13010b39 	movwne	r0, #6969	; 0x1b39
    1290:	28070000 	stmdacs	r7, {}	; <UNPREDICTABLE>
    1294:	1c0e0300 	stcne	3, cr0, [lr], {-0}
    1298:	0800000b 	stmdaeq	r0, {r0, r1, r3}
    129c:	0e030113 	mcreq	1, 0, r0, cr3, cr3, {0}
    12a0:	0b3a0b0b 	bleq	e83ed4 <__bss_end__+0xe79a04>
    12a4:	0b390b3b 	bleq	e43f98 <__bss_end__+0xe39ac8>
    12a8:	00001301 	andeq	r1, r0, r1, lsl #6
    12ac:	03000d09 	movweq	r0, #3337	; 0xd09
    12b0:	3b0b3a08 	blcc	2cfad8 <__bss_end__+0x2c5608>
    12b4:	490b390b 	stmdbmi	fp, {r0, r1, r3, r8, fp, ip, sp}
    12b8:	000b3813 	andeq	r3, fp, r3, lsl r8
    12bc:	000d0a00 	andeq	r0, sp, r0, lsl #20
    12c0:	0b3a0e03 	bleq	e84ad4 <__bss_end__+0xe7a604>
    12c4:	0b390b3b 	bleq	e43fb8 <__bss_end__+0xe39ae8>
    12c8:	0b381349 	bleq	e05ff4 <__bss_end__+0xdfbb24>
    12cc:	340b0000 	strcc	r0, [fp], #-0
    12d0:	3a0e0300 	bcc	381ed8 <__bss_end__+0x377a08>
    12d4:	390b3b0b 	stmdbcc	fp, {r0, r1, r3, r8, r9, fp, ip, sp}
    12d8:	1c13490b 			; <UNDEFINED> instruction: 0x1c13490b
    12dc:	0c000006 	stceq	0, cr0, [r0], {6}
    12e0:	0b0b000f 	bleq	2c1324 <__bss_end__+0x2b6e54>
    12e4:	00001349 	andeq	r1, r0, r9, asr #6
    12e8:	4900260d 	stmdbmi	r0, {r0, r2, r3, r9, sl, sp}
    12ec:	0e000013 	mcreq	0, 0, r0, cr0, cr3, {0}
    12f0:	193f012e 	ldmdbne	pc!, {r1, r2, r3, r5, r8}	; <UNPREDICTABLE>
    12f4:	0b3a0e03 	bleq	e84b08 <__bss_end__+0xe7a638>
    12f8:	0b390b3b 	bleq	e43fec <__bss_end__+0xe39b1c>
    12fc:	01111927 	tsteq	r1, r7, lsr #18
    1300:	18400612 	stmdane	r0, {r1, r4, r9, sl}^
    1304:	01194297 			; <UNDEFINED> instruction: 0x01194297
    1308:	0f000013 	svceq	0x00000013
    130c:	00018289 	andeq	r8, r1, r9, lsl #5
    1310:	13310111 	teqne	r1, #1073741828	; 0x40000004
    1314:	2e100000 	cdpcs	0, 1, cr0, cr0, cr0, {0}
    1318:	03193f01 	tsteq	r9, #1, 30
    131c:	3b0b3a0e 	blcc	2cfb5c <__bss_end__+0x2c568c>
    1320:	270b390b 	strcs	r3, [fp, -fp, lsl #18]
    1324:	11134919 	tstne	r3, r9, lsl r9
    1328:	40061201 	andmi	r1, r6, r1, lsl #4
    132c:	19429718 	stmdbne	r2, {r3, r4, r8, r9, sl, ip, pc}^
    1330:	00001301 	andeq	r1, r0, r1, lsl #6
    1334:	01828911 	orreq	r8, r2, r1, lsl r9
    1338:	31011101 	tstcc	r1, r1, lsl #2
    133c:	12000013 	andne	r0, r0, #19, 0
    1340:	0001828a 	andeq	r8, r1, sl, lsl #5
    1344:	42911802 	addsmi	r1, r1, #131072	; 0x20000
    1348:	13000018 	movwne	r0, #24
    134c:	08030005 	stmdaeq	r3, {r0, r2}
    1350:	0b3b0b3a 	bleq	ec4040 <__bss_end__+0xeb9b70>
    1354:	13490b39 	movtne	r0, #39737	; 0x9b39
    1358:	42b71702 	adcsmi	r1, r7, #524288	; 0x80000
    135c:	14000017 	strne	r0, [r0], #-23	; 0xffffffe9
    1360:	01018289 	smlabbeq	r1, r9, r2, r8
    1364:	13310111 	teqne	r1, #1073741828	; 0x40000004
    1368:	00001301 	andeq	r1, r0, r1, lsl #6
    136c:	03003415 	movweq	r3, #1045	; 0x415
    1370:	3b0b3a08 	blcc	2cfb98 <__bss_end__+0x2c56c8>
    1374:	490b390b 	stmdbmi	fp, {r0, r1, r3, r8, fp, ip, sp}
    1378:	b7170213 			; <UNDEFINED> instruction: 0xb7170213
    137c:	00001742 	andeq	r1, r0, r2, asr #14
    1380:	03003416 	movweq	r3, #1046	; 0x416
    1384:	3b0b3a0e 	blcc	2cfbc4 <__bss_end__+0x2c56f4>
    1388:	490b390b 	stmdbmi	fp, {r0, r1, r3, r8, fp, ip, sp}
    138c:	00051c13 	andeq	r1, r5, r3, lsl ip
    1390:	012e1700 			; <UNDEFINED> instruction: 0x012e1700
    1394:	0b3a0e03 	bleq	e84ba8 <__bss_end__+0xe7a6d8>
    1398:	0b390b3b 	bleq	e4408c <__bss_end__+0xe39bbc>
    139c:	01111927 	tsteq	r1, r7, lsr #18
    13a0:	18400612 	stmdane	r0, {r1, r4, r9, sl}^
    13a4:	01194297 			; <UNDEFINED> instruction: 0x01194297
    13a8:	18000013 	stmdane	r0, {r0, r1, r4}
    13ac:	0e030005 	cdpeq	0, 0, cr0, cr3, cr5, {0}
    13b0:	0b3b0b3a 	bleq	ec40a0 <__bss_end__+0xeb9bd0>
    13b4:	13490b39 	movtne	r0, #39737	; 0x9b39
    13b8:	42b71702 	adcsmi	r1, r7, #524288	; 0x80000
    13bc:	19000017 	stmdbne	r0, {r0, r1, r2, r4}
    13c0:	00000035 	andeq	r0, r0, r5, lsr r0
    13c4:	3f002e1a 	svccc	0x00002e1a
    13c8:	6e193c19 	mrcvs	12, 0, r3, cr9, cr9, {0}
    13cc:	3a0e030e 	bcc	38200c <__bss_end__+0x377b3c>
    13d0:	390b3b0b 	stmdbcc	fp, {r0, r1, r3, r8, r9, fp, ip, sp}
    13d4:	0000000b 	andeq	r0, r0, fp
    13d8:	25011101 	strcs	r1, [r1, #-257]	; 0xfffffeff
    13dc:	030b130e 	movweq	r1, #45838	; 0xb30e
    13e0:	110e1b0e 	tstne	lr, lr, lsl #22
    13e4:	10061201 	andne	r1, r6, r1, lsl #4
    13e8:	02000017 	andeq	r0, r0, #23, 0
    13ec:	0b0b0024 	bleq	2c1484 <__bss_end__+0x2b6fb4>
    13f0:	08030b3e 	stmdaeq	r3, {r1, r2, r3, r4, r5, r8, r9, fp}
    13f4:	24030000 	strcs	r0, [r3], #-0
    13f8:	3e0b0b00 	vmlacc.f64	d0, d11, d0
    13fc:	000e030b 	andeq	r0, lr, fp, lsl #6
    1400:	00160400 	andseq	r0, r6, r0, lsl #8
    1404:	0b3a0e03 	bleq	e84c18 <__bss_end__+0xe7a748>
    1408:	0b390b3b 	bleq	e440fc <__bss_end__+0xe39c2c>
    140c:	00001349 	andeq	r1, r0, r9, asr #6
    1410:	49002605 	stmdbmi	r0, {r0, r2, r9, sl, sp}
    1414:	06000013 			; <UNDEFINED> instruction: 0x06000013
    1418:	0b0b000f 	bleq	2c145c <__bss_end__+0x2b6f8c>
    141c:	04070000 	streq	r0, [r7], #-0
    1420:	0b0b3e01 	bleq	2d0c2c <__bss_end__+0x2c675c>
    1424:	3a13490b 	bcc	4d3858 <__bss_end__+0x4c9388>
    1428:	390b3b0b 	stmdbcc	fp, {r0, r1, r3, r8, r9, fp, ip, sp}
    142c:	0013010b 	andseq	r0, r3, fp, lsl #2
    1430:	00280800 	eoreq	r0, r8, r0, lsl #16
    1434:	061c0e03 	ldreq	r0, [ip], -r3, lsl #28
    1438:	34090000 	strcc	r0, [r9], #-0
    143c:	3a0e0300 	bcc	382044 <__bss_end__+0x377b74>
    1440:	390b3b0b 	stmdbcc	fp, {r0, r1, r3, r8, r9, fp, ip, sp}
    1444:	3f13490b 	svccc	0x0013490b
    1448:	00193c19 	andseq	r3, r9, r9, lsl ip
    144c:	00340a00 	eorseq	r0, r4, r0, lsl #20
    1450:	0b3a0e03 	bleq	e84c64 <__bss_end__+0xe7a794>
    1454:	0b390b3b 	bleq	e44148 <__bss_end__+0xe39c78>
    1458:	18021349 	stmdane	r2, {r0, r3, r6, r8, r9, ip}
    145c:	0f0b0000 	svceq	0x000b0000
    1460:	490b0b00 	stmdbmi	fp, {r8, r9, fp}
    1464:	0c000013 	stceq	0, cr0, [r0], {19}
    1468:	193f012e 	ldmdbne	pc!, {r1, r2, r3, r5, r8}	; <UNPREDICTABLE>
    146c:	0b3a0e03 	bleq	e84c80 <__bss_end__+0xe7a7b0>
    1470:	0b390b3b 	bleq	e44164 <__bss_end__+0xe39c94>
    1474:	01111927 	tsteq	r1, r7, lsr #18
    1478:	18400612 	stmdane	r0, {r1, r4, r9, sl}^
    147c:	01194297 			; <UNDEFINED> instruction: 0x01194297
    1480:	0d000013 	stceq	0, cr0, [r0, #-76]	; 0xffffffb4
    1484:	08030005 	stmdaeq	r3, {r0, r2}
    1488:	0b3b0b3a 	bleq	ec4178 <__bss_end__+0xeb9ca8>
    148c:	13490b39 	movtne	r0, #39737	; 0x9b39
    1490:	42b71702 	adcsmi	r1, r7, #524288	; 0x80000
    1494:	0e000017 	mcreq	0, 0, r0, cr0, cr7, {0}
    1498:	0e030034 	mcreq	0, 0, r0, cr3, cr4, {1}
    149c:	19341349 	ldmdbne	r4!, {r0, r3, r6, r8, r9, ip}
    14a0:	00001802 	andeq	r1, r0, r2, lsl #16
    14a4:	0182890f 	orreq	r8, r2, pc, lsl #18
    14a8:	31011101 	tstcc	r1, r1, lsl #2
    14ac:	00130113 	andseq	r0, r3, r3, lsl r1
    14b0:	828a1000 	addhi	r1, sl, #0, 0
    14b4:	18020001 	stmdane	r2, {r0}
    14b8:	00184291 	mulseq	r8, r1, r2
    14bc:	82891100 	addhi	r1, r9, #0
    14c0:	01110001 	tsteq	r1, r1
    14c4:	00001331 	andeq	r1, r0, r1, lsr r3
    14c8:	49010112 	stmdbmi	r1, {r1, r4, r8}
    14cc:	00130113 	andseq	r0, r3, r3, lsl r1
    14d0:	00211300 	eoreq	r1, r1, r0, lsl #6
    14d4:	0b2f1349 	bleq	bc6200 <__bss_end__+0xbbbd30>
    14d8:	2e140000 	cdpcs	0, 1, cr0, cr4, cr0, {0}
    14dc:	03193f00 	tsteq	r9, #0, 30
    14e0:	3b0b3a0e 	blcc	2cfd20 <__bss_end__+0x2c5850>
    14e4:	270b390b 	strcs	r3, [fp, -fp, lsl #18]
    14e8:	12011119 	andne	r1, r1, #1073741830	; 0x40000006
    14ec:	97184006 	ldrls	r4, [r8, -r6]
    14f0:	00001942 	andeq	r1, r0, r2, asr #18
    14f4:	03000515 	movweq	r0, #1301	; 0x515
    14f8:	3b0b3a08 	blcc	2cfd20 <__bss_end__+0x2c5850>
    14fc:	490b390b 	stmdbmi	fp, {r0, r1, r3, r8, fp, ip, sp}
    1500:	00180213 	andseq	r0, r8, r3, lsl r2
    1504:	012e1600 			; <UNDEFINED> instruction: 0x012e1600
    1508:	0e03193f 			; <UNDEFINED> instruction: 0x0e03193f
    150c:	0b3b0b3a 	bleq	ec41fc <__bss_end__+0xeb9d2c>
    1510:	19270b39 	stmdbne	r7!, {r0, r3, r4, r5, r8, r9, fp}
    1514:	01111349 	tsteq	r1, r9, asr #6
    1518:	18400612 	stmdane	r0, {r1, r4, r9, sl}^
    151c:	01194297 			; <UNDEFINED> instruction: 0x01194297
    1520:	17000013 	smladne	r0, r3, r0, r0
    1524:	0e030005 	cdpeq	0, 0, cr0, cr3, cr5, {0}
    1528:	0b3b0b3a 	bleq	ec4218 <__bss_end__+0xeb9d48>
    152c:	13490b39 	movtne	r0, #39737	; 0x9b39
    1530:	42b71702 	adcsmi	r1, r7, #524288	; 0x80000
    1534:	18000017 	stmdane	r0, {r0, r1, r2, r4}
    1538:	08030034 	stmdaeq	r3, {r2, r4, r5}
    153c:	0b3b0b3a 	bleq	ec422c <__bss_end__+0xeb9d5c>
    1540:	13490b39 	movtne	r0, #39737	; 0x9b39
    1544:	42b71702 	adcsmi	r1, r7, #524288	; 0x80000
    1548:	19000017 	stmdbne	r0, {r0, r1, r2, r4}
    154c:	1331011d 	teqne	r1, #1073741831	; 0x40000007
    1550:	42b80152 	adcsmi	r0, r8, #-2147483628	; 0x80000014
    1554:	1201110b 	andne	r1, r1, #-1073741822	; 0xc0000002
    1558:	590b5806 	stmdbpl	fp, {r1, r2, fp, ip, lr}
    155c:	010b570b 	tsteq	fp, fp, lsl #14
    1560:	1a000013 	bne	15b4 <__code_start__-0x6a4c>
    1564:	13310005 	teqne	r1, #5, 0
    1568:	42b71702 	adcsmi	r1, r7, #524288	; 0x80000
    156c:	1b000017 	blne	15d0 <__code_start__-0x6a30>
    1570:	1331011d 	teqne	r1, #1073741831	; 0x40000007
    1574:	42b80152 	adcsmi	r0, r8, #-2147483628	; 0x80000014
    1578:	5817550b 	ldmdapl	r7, {r0, r1, r3, r8, sl, ip, lr}
    157c:	570b590b 	strpl	r5, [fp, -fp, lsl #18]
    1580:	0013010b 	andseq	r0, r3, fp, lsl #2
    1584:	010b1c00 	tsteq	fp, r0, lsl #24
    1588:	00001755 	andeq	r1, r0, r5, asr r7
    158c:	0300341d 	movweq	r3, #1053	; 0x41d
    1590:	3b0b3a0e 	blcc	2cfdd0 <__bss_end__+0x2c5900>
    1594:	490b390b 	stmdbmi	fp, {r0, r1, r3, r8, fp, ip, sp}
    1598:	b7170213 			; <UNDEFINED> instruction: 0xb7170213
    159c:	00001742 	andeq	r1, r0, r2, asr #14
    15a0:	55000b1e 	strpl	r0, [r0, #-2846]	; 0xfffff4e2
    15a4:	1f000017 	svcne	0x00000017
    15a8:	193f002e 	ldmdbne	pc!, {r1, r2, r3, r5}	; <UNPREDICTABLE>
    15ac:	0b3a0e03 	bleq	e84dc0 <__bss_end__+0xe7a8f0>
    15b0:	0b390b3b 	bleq	e442a4 <__bss_end__+0xe39dd4>
    15b4:	13491927 	movtne	r1, #39207	; 0x9927
    15b8:	06120111 			; <UNDEFINED> instruction: 0x06120111
    15bc:	42971840 	addsmi	r1, r7, #64, 16	; 0x400000
    15c0:	20000019 	andcs	r0, r0, r9, lsl r0
    15c4:	0e03012e 	adfeqsp	f0, f3, #0.5
    15c8:	0b3b0b3a 	bleq	ec42b8 <__bss_end__+0xeb9de8>
    15cc:	19270b39 	stmdbne	r7!, {r0, r3, r4, r5, r8, r9, fp}
    15d0:	0b201349 	bleq	8062fc <__bss_end__+0x7fbe2c>
    15d4:	00001301 	andeq	r1, r0, r1, lsl #6
    15d8:	03000521 	movweq	r0, #1313	; 0x521
    15dc:	3b0b3a08 	blcc	2cfe04 <__bss_end__+0x2c5934>
    15e0:	490b390b 	stmdbmi	fp, {r0, r1, r3, r8, fp, ip, sp}
    15e4:	22000013 	andcs	r0, r0, #19, 0
    15e8:	193f002e 	ldmdbne	pc!, {r1, r2, r3, r5}	; <UNPREDICTABLE>
    15ec:	0e6e193c 			; <UNDEFINED> instruction: 0x0e6e193c
    15f0:	0b3a0e03 	bleq	e84e04 <__bss_end__+0xe7a934>
    15f4:	0b390b3b 	bleq	e442e8 <__bss_end__+0xe39e18>
    15f8:	01000000 	mrseq	r0, (UNDEF: 0)
    15fc:	0e250111 	mcreq	1, 1, r0, cr5, cr1, {0}
    1600:	0e030b13 	vmoveq.32	d3[0], r0
    1604:	01110e1b 	tsteq	r1, fp, lsl lr
    1608:	17100612 			; <UNDEFINED> instruction: 0x17100612
    160c:	24020000 	strcs	r0, [r2], #-0
    1610:	3e0b0b00 	vmlacc.f64	d0, d11, d0
    1614:	0008030b 	andeq	r0, r8, fp, lsl #6
    1618:	00240300 	eoreq	r0, r4, r0, lsl #6
    161c:	0b3e0b0b 	bleq	f84250 <__bss_end__+0xf79d80>
    1620:	00000e03 	andeq	r0, r0, r3, lsl #28
    1624:	27011504 	strcs	r1, [r1, -r4, lsl #10]
    1628:	01134919 	tsteq	r3, r9, lsl r9
    162c:	05000013 	streq	r0, [r0, #-19]	; 0xffffffed
    1630:	13490005 	movtne	r0, #36869	; 0x9005
    1634:	34060000 	strcc	r0, [r6], #-0
    1638:	3a0e0300 	bcc	382240 <__bss_end__+0x377d70>
    163c:	390b3b0b 	stmdbcc	fp, {r0, r1, r3, r8, r9, fp, ip, sp}
    1640:	3f13490b 	svccc	0x0013490b
    1644:	00193c19 	andseq	r3, r9, r9, lsl ip
    1648:	000f0700 	andeq	r0, pc, r0, lsl #14
    164c:	13490b0b 	movtne	r0, #39691	; 0x9b0b
    1650:	26080000 	strcs	r0, [r8], -r0
    1654:	00134900 	andseq	r4, r3, r0, lsl #18
    1658:	00340900 	eorseq	r0, r4, r0, lsl #18
    165c:	0b3a1347 	bleq	e86380 <__bss_end__+0xe7beb0>
    1660:	0b390b3b 	bleq	e44354 <__bss_end__+0xe39e84>
    1664:	00001802 	andeq	r1, r0, r2, lsl #16
    1668:	3f012e0a 	svccc	0x00012e0a
    166c:	3a0e0319 	bcc	3822d8 <__bss_end__+0x377e08>
    1670:	390b3b0b 	stmdbcc	fp, {r0, r1, r3, r8, r9, fp, ip, sp}
    1674:	1119270b 	tstne	r9, fp, lsl #14
    1678:	40061201 	andmi	r1, r6, r1, lsl #4
    167c:	19429718 	stmdbne	r2, {r3, r4, r8, r9, sl, ip, pc}^
    1680:	00001301 	andeq	r1, r0, r1, lsl #6
    1684:	0300050b 	movweq	r0, #1291	; 0x50b
    1688:	3b0b3a08 	blcc	2cfeb0 <__bss_end__+0x2c59e0>
    168c:	490b390b 	stmdbmi	fp, {r0, r1, r3, r8, fp, ip, sp}
    1690:	00180213 	andseq	r0, r8, r3, lsl r2
    1694:	002e0c00 	eoreq	r0, lr, r0, lsl #24
    1698:	0e03193f 			; <UNDEFINED> instruction: 0x0e03193f
    169c:	0b3b0b3a 	bleq	ec438c <__bss_end__+0xeb9ebc>
    16a0:	19270b39 	stmdbne	r7!, {r0, r3, r4, r5, r8, r9, fp}
    16a4:	06120111 			; <UNDEFINED> instruction: 0x06120111
    16a8:	42971840 	addsmi	r1, r7, #64, 16	; 0x400000
    16ac:	0d000019 	stceq	0, cr0, [r0, #-100]	; 0xffffff9c
    16b0:	0e03012e 	adfeqsp	f0, f3, #0.5
    16b4:	0b3b0b3a 	bleq	ec43a4 <__bss_end__+0xeb9ed4>
    16b8:	19270b39 	stmdbne	r7!, {r0, r3, r4, r5, r8, r9, fp}
    16bc:	01111349 	tsteq	r1, r9, asr #6
    16c0:	18400612 	stmdane	r0, {r1, r4, r9, sl}^
    16c4:	01194297 			; <UNDEFINED> instruction: 0x01194297
    16c8:	0e000013 	mcreq	0, 0, r0, cr0, cr3, {0}
    16cc:	08030005 	stmdaeq	r3, {r0, r2}
    16d0:	0b3b0b3a 	bleq	ec43c0 <__bss_end__+0xeb9ef0>
    16d4:	13490b39 	movtne	r0, #39737	; 0x9b39
    16d8:	42b71702 	adcsmi	r1, r7, #524288	; 0x80000
    16dc:	0f000017 	svceq	0x00000017
    16e0:	01018289 	smlabbeq	r1, r9, r2, r8
    16e4:	13310111 	teqne	r1, #1073741828	; 0x40000004
    16e8:	8a100000 	bhi	4016f0 <__bss_end__+0x3f7220>
    16ec:	02000182 	andeq	r0, r0, #-2147483616	; 0x80000020
    16f0:	18429118 	stmdane	r2, {r3, r4, r8, ip, pc}^
    16f4:	2e110000 	cdpcs	0, 1, cr0, cr1, cr0, {0}
    16f8:	3c193f00 	ldccc	15, cr3, [r9], {-0}
    16fc:	030e6e19 	movweq	r6, #60953	; 0xee19
    1700:	3b0b3a0e 	blcc	2cff40 <__bss_end__+0x2c5a70>
    1704:	000b390b 	andeq	r3, fp, fp, lsl #18
    1708:	11010000 	mrsne	r0, (UNDEF: 1)
    170c:	130e2501 	movwne	r2, #58625	; 0xe501
    1710:	1b0e030b 	blne	382344 <__bss_end__+0x377e74>
    1714:	1201110e 	andne	r1, r1, #-2147483645	; 0x80000003
    1718:	00171006 	andseq	r1, r7, r6
    171c:	00240200 	eoreq	r0, r4, r0, lsl #4
    1720:	0b3e0b0b 	bleq	f84354 <__bss_end__+0xf79e84>
    1724:	00000803 	andeq	r0, r0, r3, lsl #16
    1728:	0b002403 	bleq	a73c <__bss_end__+0x26c>
    172c:	030b3e0b 	movweq	r3, #48651	; 0xbe0b
    1730:	0400000e 	streq	r0, [r0], #-14
    1734:	19270115 	stmdbne	r7!, {r0, r2, r4, r8}
    1738:	13011349 	movwne	r1, #4937	; 0x1349
    173c:	05050000 	streq	r0, [r5, #-0]
    1740:	00134900 	andseq	r4, r3, r0, lsl #18
    1744:	00340600 	eorseq	r0, r4, r0, lsl #12
    1748:	0b3a0e03 	bleq	e84f5c <__bss_end__+0xe7aa8c>
    174c:	0b390b3b 	bleq	e44440 <__bss_end__+0xe39f70>
    1750:	193f1349 	ldmdbne	pc!, {r0, r3, r6, r8, r9, ip}	; <UNPREDICTABLE>
    1754:	0000193c 	andeq	r1, r0, ip, lsr r9
    1758:	0b000f07 	bleq	537c <__code_start__-0x2c84>
    175c:	0013490b 	andseq	r4, r3, fp, lsl #18
    1760:	00260800 	eoreq	r0, r6, r0, lsl #16
    1764:	00001349 	andeq	r1, r0, r9, asr #6
    1768:	3f012e09 	svccc	0x00012e09
    176c:	3a0e0319 	bcc	3823d8 <__bss_end__+0x377f08>
    1770:	390b3b0b 	stmdbcc	fp, {r0, r1, r3, r8, r9, fp, ip, sp}
    1774:	4919270b 	ldmdbmi	r9, {r0, r1, r3, r8, r9, sl, sp}
    1778:	12011113 	andne	r1, r1, #-1073741820	; 0xc0000004
    177c:	97184006 	ldrls	r4, [r8, -r6]
    1780:	13011942 	movwne	r1, #6466	; 0x1942
    1784:	050a0000 	streq	r0, [sl, #-0]
    1788:	3a0e0300 	bcc	382390 <__bss_end__+0x377ec0>
    178c:	390b3b0b 	stmdbcc	fp, {r0, r1, r3, r8, r9, fp, ip, sp}
    1790:	0213490b 	andseq	r4, r3, #180224	; 0x2c000
    1794:	0b000018 	bleq	17fc <__code_start__-0x6804>
    1798:	08030005 	stmdaeq	r3, {r0, r2}
    179c:	0b3b0b3a 	bleq	ec448c <__bss_end__+0xeb9fbc>
    17a0:	13490b39 	movtne	r0, #39737	; 0x9b39
    17a4:	42b71702 	adcsmi	r1, r7, #524288	; 0x80000
    17a8:	0c000017 	stceq	0, cr0, [r0], {23}
    17ac:	08030034 	stmdaeq	r3, {r2, r4, r5}
    17b0:	0b3b0b3a 	bleq	ec44a0 <__bss_end__+0xeb9fd0>
    17b4:	13490b39 	movtne	r0, #39737	; 0x9b39
    17b8:	42b71702 	adcsmi	r1, r7, #524288	; 0x80000
    17bc:	00000017 	andeq	r0, r0, r7, lsl r0
    17c0:	25011101 	strcs	r1, [r1, #-257]	; 0xfffffeff
    17c4:	030b130e 	movweq	r1, #45838	; 0xb30e
    17c8:	110e1b0e 	tstne	lr, lr, lsl #22
    17cc:	10061201 	andne	r1, r6, r1, lsl #4
    17d0:	02000017 	andeq	r0, r0, #23, 0
    17d4:	0b0b0024 	bleq	2c186c <__bss_end__+0x2b739c>
    17d8:	08030b3e 	stmdaeq	r3, {r1, r2, r3, r4, r5, r8, r9, fp}
    17dc:	24030000 	strcs	r0, [r3], #-0
    17e0:	3e0b0b00 	vmlacc.f64	d0, d11, d0
    17e4:	000e030b 	andeq	r0, lr, fp, lsl #6
    17e8:	01150400 	tsteq	r5, r0, lsl #8
    17ec:	13491927 	movtne	r1, #39207	; 0x9927
    17f0:	00001301 	andeq	r1, r0, r1, lsl #6
    17f4:	49000505 	stmdbmi	r0, {r0, r2, r8, sl}
    17f8:	06000013 			; <UNDEFINED> instruction: 0x06000013
    17fc:	0e030034 	mcreq	0, 0, r0, cr3, cr4, {1}
    1800:	0b3b0b3a 	bleq	ec44f0 <__bss_end__+0xeba020>
    1804:	13490b39 	movtne	r0, #39737	; 0x9b39
    1808:	193c193f 	ldmdbne	ip!, {r0, r1, r2, r3, r4, r5, r8, fp, ip}
    180c:	0f070000 	svceq	0x00070000
    1810:	490b0b00 	stmdbmi	fp, {r8, r9, fp}
    1814:	08000013 	stmdaeq	r0, {r0, r1, r4}
    1818:	13490026 	movtne	r0, #36902	; 0x9026
    181c:	2e090000 	cdpcs	0, 0, cr0, cr9, cr0, {0}
    1820:	03193f01 	tsteq	r9, #1, 30
    1824:	3b0b3a0e 	blcc	2d0064 <__bss_end__+0x2c5b94>
    1828:	270b390b 	strcs	r3, [fp, -fp, lsl #18]
    182c:	11134919 	tstne	r3, r9, lsl r9
    1830:	40061201 	andmi	r1, r6, r1, lsl #4
    1834:	19429718 	stmdbne	r2, {r3, r4, r8, r9, sl, ip, pc}^
    1838:	050a0000 	streq	r0, [sl, #-0]
    183c:	3a080300 	bcc	202444 <__bss_end__+0x1f7f74>
    1840:	390b3b0b 	stmdbcc	fp, {r0, r1, r3, r8, r9, fp, ip, sp}
    1844:	0213490b 	andseq	r4, r3, #180224	; 0x2c000
    1848:	1742b717 	smlaldne	fp, r2, r7, r7
    184c:	01000000 	mrseq	r0, (UNDEF: 0)
    1850:	0e250111 	mcreq	1, 1, r0, cr5, cr1, {0}
    1854:	0e030b13 	vmoveq.32	d3[0], r0
    1858:	01110e1b 	tsteq	r1, fp, lsl lr
    185c:	17100612 			; <UNDEFINED> instruction: 0x17100612
    1860:	24020000 	strcs	r0, [r2], #-0
    1864:	3e0b0b00 	vmlacc.f64	d0, d11, d0
    1868:	0008030b 	andeq	r0, r8, fp, lsl #6
    186c:	00240300 	eoreq	r0, r4, r0, lsl #6
    1870:	0b3e0b0b 	bleq	f844a4 <__bss_end__+0xf79fd4>
    1874:	00000e03 	andeq	r0, r0, r3, lsl #28
    1878:	27011504 	strcs	r1, [r1, -r4, lsl #10]
    187c:	01134919 	tsteq	r3, r9, lsl r9
    1880:	05000013 	streq	r0, [r0, #-19]	; 0xffffffed
    1884:	13490005 	movtne	r0, #36869	; 0x9005
    1888:	34060000 	strcc	r0, [r6], #-0
    188c:	3a0e0300 	bcc	382494 <__bss_end__+0x377fc4>
    1890:	390b3b0b 	stmdbcc	fp, {r0, r1, r3, r8, r9, fp, ip, sp}
    1894:	3f13490b 	svccc	0x0013490b
    1898:	00193c19 	andseq	r3, r9, r9, lsl ip
    189c:	000f0700 	andeq	r0, pc, r0, lsl #14
    18a0:	13490b0b 	movtne	r0, #39691	; 0x9b0b
    18a4:	26080000 	strcs	r0, [r8], -r0
    18a8:	00134900 	andseq	r4, r3, r0, lsl #18
    18ac:	012e0900 			; <UNDEFINED> instruction: 0x012e0900
    18b0:	0e03193f 			; <UNDEFINED> instruction: 0x0e03193f
    18b4:	0b3b0b3a 	bleq	ec45a4 <__bss_end__+0xeba0d4>
    18b8:	19270b39 	stmdbne	r7!, {r0, r3, r4, r5, r8, r9, fp}
    18bc:	01111349 	tsteq	r1, r9, asr #6
    18c0:	18400612 	stmdane	r0, {r1, r4, r9, sl}^
    18c4:	01194297 			; <UNDEFINED> instruction: 0x01194297
    18c8:	0a000013 	beq	191c <__code_start__-0x66e4>
    18cc:	08030005 	stmdaeq	r3, {r0, r2}
    18d0:	0b3b0b3a 	bleq	ec45c0 <__bss_end__+0xeba0f0>
    18d4:	13490b39 	movtne	r0, #39737	; 0x9b39
    18d8:	00001802 	andeq	r1, r0, r2, lsl #16
    18dc:	0300050b 	movweq	r0, #1291	; 0x50b
    18e0:	3b0b3a08 	blcc	2d0108 <__bss_end__+0x2c5c38>
    18e4:	490b390b 	stmdbmi	fp, {r0, r1, r3, r8, fp, ip, sp}
    18e8:	b7170213 			; <UNDEFINED> instruction: 0xb7170213
    18ec:	00001742 	andeq	r1, r0, r2, asr #14
    18f0:	0300340c 	movweq	r3, #1036	; 0x40c
    18f4:	3b0b3a08 	blcc	2d011c <__bss_end__+0x2c5c4c>
    18f8:	490b390b 	stmdbmi	fp, {r0, r1, r3, r8, fp, ip, sp}
    18fc:	b7170213 			; <UNDEFINED> instruction: 0xb7170213
    1900:	00001742 	andeq	r1, r0, r2, asr #14
    1904:	01110100 	tsteq	r1, r0, lsl #2
    1908:	0b130e25 	bleq	4c51a4 <__bss_end__+0x4bacd4>
    190c:	0e1b0e03 	cdpeq	14, 1, cr0, cr11, cr3, {0}
    1910:	06120111 			; <UNDEFINED> instruction: 0x06120111
    1914:	00001710 	andeq	r1, r0, r0, lsl r7
    1918:	0b002402 	bleq	a928 <__bss_end__+0x458>
    191c:	030b3e0b 	movweq	r3, #48651	; 0xbe0b
    1920:	03000008 	movweq	r0, #8
    1924:	0e030016 	mcreq	0, 0, r0, cr3, cr6, {0}
    1928:	0b3b0b3a 	bleq	ec4618 <__bss_end__+0xeba148>
    192c:	13490b39 	movtne	r0, #39737	; 0x9b39
    1930:	24040000 	strcs	r0, [r4], #-0
    1934:	3e0b0b00 	vmlacc.f64	d0, d11, d0
    1938:	000e030b 	andeq	r0, lr, fp, lsl #6
    193c:	00260500 	eoreq	r0, r6, r0, lsl #10
    1940:	00001349 	andeq	r1, r0, r9, asr #6
    1944:	27011506 	strcs	r1, [r1, -r6, lsl #10]
    1948:	01134919 	tsteq	r3, r9, lsl r9
    194c:	07000013 	smladeq	r0, r3, r0, r0
    1950:	13490005 	movtne	r0, #36869	; 0x9005
    1954:	34080000 	strcc	r0, [r8], #-0
    1958:	3a0e0300 	bcc	382560 <__bss_end__+0x378090>
    195c:	390b3b0b 	stmdbcc	fp, {r0, r1, r3, r8, r9, fp, ip, sp}
    1960:	3f13490b 	svccc	0x0013490b
    1964:	00193c19 	andseq	r3, r9, r9, lsl ip
    1968:	000f0900 	andeq	r0, pc, r0, lsl #18
    196c:	13490b0b 	movtne	r0, #39691	; 0x9b0b
    1970:	2e0a0000 	cdpcs	0, 0, cr0, cr10, cr0, {0}
    1974:	03193f01 	tsteq	r9, #1, 30
    1978:	3b0b3a0e 	blcc	2d01b8 <__bss_end__+0x2c5ce8>
    197c:	270b390b 	strcs	r3, [fp, -fp, lsl #18]
    1980:	11134919 	tstne	r3, r9, lsl r9
    1984:	40061201 	andmi	r1, r6, r1, lsl #4
    1988:	19429718 	stmdbne	r2, {r3, r4, r8, r9, sl, ip, pc}^
    198c:	00001301 	andeq	r1, r0, r1, lsl #6
    1990:	0300050b 	movweq	r0, #1291	; 0x50b
    1994:	3b0b3a08 	blcc	2d01bc <__bss_end__+0x2c5cec>
    1998:	490b390b 	stmdbmi	fp, {r0, r1, r3, r8, fp, ip, sp}
    199c:	b7170213 			; <UNDEFINED> instruction: 0xb7170213
    19a0:	00001742 	andeq	r1, r0, r2, asr #14
    19a4:	0300340c 	movweq	r3, #1036	; 0x40c
    19a8:	3b0b3a08 	blcc	2d01d0 <__bss_end__+0x2c5d00>
    19ac:	490b390b 	stmdbmi	fp, {r0, r1, r3, r8, fp, ip, sp}
    19b0:	b7170213 			; <UNDEFINED> instruction: 0xb7170213
    19b4:	00001742 	andeq	r1, r0, r2, asr #14
    19b8:	01110100 	tsteq	r1, r0, lsl #2
    19bc:	0b130e25 	bleq	4c5258 <__bss_end__+0x4bad88>
    19c0:	0e1b0e03 	cdpeq	14, 1, cr0, cr11, cr3, {0}
    19c4:	06120111 			; <UNDEFINED> instruction: 0x06120111
    19c8:	00001710 	andeq	r1, r0, r0, lsl r7
    19cc:	0b002402 	bleq	a9dc <__bss_end__+0x50c>
    19d0:	030b3e0b 	movweq	r3, #48651	; 0xbe0b
    19d4:	03000008 	movweq	r0, #8
    19d8:	0b0b0024 	bleq	2c1a70 <__bss_end__+0x2b75a0>
    19dc:	0e030b3e 	vmoveq.16	d3[0], r0
    19e0:	15040000 	strne	r0, [r4, #-0]
    19e4:	49192701 	ldmdbmi	r9, {r0, r8, r9, sl, sp}
    19e8:	00130113 	andseq	r0, r3, r3, lsl r1
    19ec:	00050500 	andeq	r0, r5, r0, lsl #10
    19f0:	00001349 	andeq	r1, r0, r9, asr #6
    19f4:	03003406 	movweq	r3, #1030	; 0x406
    19f8:	3b0b3a0e 	blcc	2d0238 <__bss_end__+0x2c5d68>
    19fc:	490b390b 	stmdbmi	fp, {r0, r1, r3, r8, fp, ip, sp}
    1a00:	3c193f13 	ldccc	15, cr3, [r9], {19}
    1a04:	07000019 	smladeq	r0, r9, r0, r0
    1a08:	0b0b000f 	bleq	2c1a4c <__bss_end__+0x2b757c>
    1a0c:	00001349 	andeq	r1, r0, r9, asr #6
    1a10:	49002608 	stmdbmi	r0, {r3, r9, sl, sp}
    1a14:	09000013 	stmdbeq	r0, {r0, r1, r4}
    1a18:	193f002e 	ldmdbne	pc!, {r1, r2, r3, r5}	; <UNPREDICTABLE>
    1a1c:	0b3a0e03 	bleq	e85230 <__bss_end__+0xe7ad60>
    1a20:	0b390b3b 	bleq	e44714 <__bss_end__+0xe3a244>
    1a24:	01111927 	tsteq	r1, r7, lsr #18
    1a28:	18400612 	stmdane	r0, {r1, r4, r9, sl}^
    1a2c:	00194297 	mulseq	r9, r7, r2
	...

Disassembly of section .debug_loc:

00000000 <.debug_loc>:
       0:	00000000 	andeq	r0, r0, r0
       4:	00000028 	andeq	r0, r0, r8, lsr #32
       8:	00000030 	andeq	r0, r0, r0, lsr r0
       c:	30500001 	subscc	r0, r0, r1
      10:	8c000000 	stchi	0, cr0, [r0], {-0}
      14:	01000000 	mrseq	r0, (UNDEF: 0)
      18:	00005500 	andeq	r5, r0, r0, lsl #10
      1c:	00000000 	andeq	r0, r0, r0
      20:	00020000 	andeq	r0, r2, r0
      24:	00280000 	eoreq	r0, r8, r0
      28:	00300000 	eorseq	r0, r0, r0
      2c:	00020000 	andeq	r0, r2, r0
      30:	00309f30 	eorseq	r9, r0, r0, lsr pc
      34:	008c0000 	addeq	r0, ip, r0
      38:	00010000 	andeq	r0, r1, r0
      3c:	00000057 	andeq	r0, r0, r7, asr r0
      40:	00000000 	andeq	r0, r0, r0
      44:	00000200 	andeq	r0, r0, r0, lsl #4
      48:	01010000 	mrseq	r0, (UNDEF: 1)
      4c:	00003c00 	andeq	r3, r0, r0, lsl #24
      50:	00004000 	andeq	r4, r0, r0
      54:	30000200 	andcc	r0, r0, r0, lsl #4
      58:	0000409f 	muleq	r0, pc, r0	; <UNPREDICTABLE>
      5c:	00006400 	andeq	r6, r0, r0, lsl #8
      60:	54000100 	strpl	r0, [r0], #-256	; 0xffffff00
      64:	00000064 	andeq	r0, r0, r4, rrx
      68:	0000006c 	andeq	r0, r0, ip, rrx
      6c:	7f740003 	svcvc	0x00740003
      70:	00006c9f 	muleq	r0, pc, ip	; <UNPREDICTABLE>
      74:	00008c00 	andeq	r8, r0, r0, lsl #24
      78:	54000100 	strpl	r0, [r0], #-256	; 0xffffff00
	...
      88:	00000620 	andeq	r0, r0, r0, lsr #12
      8c:	00000628 	andeq	r0, r0, r8, lsr #12
      90:	28510001 	ldmdacs	r1, {r0}^
      94:	40000006 	andmi	r0, r0, r6
      98:	04000006 	streq	r0, [r0], #-6
      9c:	5101f300 	mrspl	pc, SP_irq	; <UNPREDICTABLE>
      a0:	0000009f 	muleq	r0, pc, r0	; <UNPREDICTABLE>
	...
      ac:	00053000 	andeq	r3, r5, r0
      b0:	00061b00 	andeq	r1, r6, r0, lsl #22
      b4:	50000100 	andpl	r0, r0, r0, lsl #2
      b8:	0000061b 	andeq	r0, r0, fp, lsl r6
      bc:	00000620 	andeq	r0, r0, r0, lsr #12
      c0:	01f30004 	mvnseq	r0, r4
      c4:	00009f50 	andeq	r9, r0, r0, asr pc
	...
      d0:	05380000 	ldreq	r0, [r8, #-0]!
      d4:	06180000 	ldreq	r0, [r8], -r0
      d8:	00010000 	andeq	r0, r1, r0
      dc:	00061854 	andeq	r1, r6, r4, asr r8
      e0:	00061b00 	andeq	r1, r6, r0, lsl #22
      e4:	70000200 	andvc	r0, r0, r0, lsl #4
      e8:	00000004 	andeq	r0, r0, r4
	...
      f4:	00053800 	andeq	r3, r5, r0, lsl #16
      f8:	00061b00 	andeq	r1, r6, r0, lsl #22
      fc:	50000100 	andpl	r0, r0, r0, lsl #2
     100:	0000061b 	andeq	r0, r0, fp, lsl r6
     104:	00000620 	andeq	r0, r0, r0, lsr #12
     108:	01f30004 	mvnseq	r0, r4
     10c:	00009f50 	andeq	r9, r0, r0, asr pc
     110:	00000000 	andeq	r0, r0, r0
     114:	00010000 	andeq	r0, r1, r0
     118:	05380000 	ldreq	r0, [r8, #-0]!
     11c:	05540000 	ldrbeq	r0, [r4, #-0]
     120:	00020000 	andeq	r0, r2, r0
     124:	05549f30 	ldrbeq	r9, [r4, #-3888]	; 0xfffff0d0
     128:	06140000 	ldreq	r0, [r4], -r0
     12c:	00010000 	andeq	r0, r1, r0
     130:	0000005e 	andeq	r0, r0, lr, asr r0
     134:	00000000 	andeq	r0, r0, r0
     138:	54000200 	strpl	r0, [r0], #-512	; 0xfffffe00
     13c:	08000005 	stmdaeq	r0, {r0, r2}
     140:	02000006 	andeq	r0, r0, #6, 0
     144:	009f3000 	addseq	r3, pc, r0
     148:	00000000 	andeq	r0, r0, r0
     14c:	04000000 	streq	r0, [r0], #-0
     150:	00055400 	andeq	r5, r5, r0, lsl #8
     154:	00059400 	andeq	r9, r5, r0, lsl #8
     158:	30000200 	andcc	r0, r0, r0, lsl #4
     15c:	0000009f 	muleq	r0, pc, r0	; <UNPREDICTABLE>
     160:	00000000 	andeq	r0, r0, r0
     164:	54000700 	strpl	r0, [r0], #-1792	; 0xfffff900
     168:	58000005 	stmdapl	r0, {r0, r2}
     16c:	02000005 	andeq	r0, r0, #5, 0
     170:	009f3000 	addseq	r3, pc, r0
     174:	00000000 	andeq	r0, r0, r0
     178:	01000000 	mrseq	r0, (UNDEF: 0)
     17c:	00055800 	andeq	r5, r5, r0, lsl #16
     180:	00058800 	andeq	r8, r5, r0, lsl #16
     184:	30000200 	andcc	r0, r0, r0, lsl #4
     188:	0000009f 	muleq	r0, pc, r0	; <UNPREDICTABLE>
     18c:	00000000 	andeq	r0, r0, r0
     190:	58000600 	stmdapl	r0, {r9, sl}
     194:	70000005 	andvc	r0, r0, r5
     198:	03000005 	movweq	r0, #5
     19c:	9ff50800 	svcls	0x00f50800
	...
     1a8:	055c0001 	ldrbeq	r0, [ip, #-1]
     1ac:	05740000 	ldrbeq	r0, [r4, #-0]!
     1b0:	00010000 	andeq	r0, r1, r0
     1b4:	00000055 	andeq	r0, r0, r5, asr r0
     1b8:	00000000 	andeq	r0, r0, r0
     1bc:	5c000000 	stcpl	0, cr0, [r0], {-0}
     1c0:	70000005 	andvc	r0, r0, r5
     1c4:	01000005 	tsteq	r0, r5
     1c8:	00005500 	andeq	r5, r0, r0, lsl #10
     1cc:	00000000 	andeq	r0, r0, r0
     1d0:	00010000 	andeq	r0, r1, r0
     1d4:	00000564 	andeq	r0, r0, r4, ror #10
     1d8:	00000568 	andeq	r0, r0, r8, ror #10
     1dc:	005c0001 	subseq	r0, ip, r1
	...
     1e8:	00056400 	andeq	r6, r5, r0, lsl #8
     1ec:	00056800 	andeq	r6, r5, r0, lsl #16
     1f0:	5c000100 	stfpls	f0, [r0], {-0}
	...
     1fc:	05700004 	ldrbeq	r0, [r0, #-4]!
     200:	05880000 	streq	r0, [r8]
     204:	00040000 	andeq	r0, r4, r0
     208:	9f02760a 	svcls	0x0002760a
	...
     214:	05740001 	ldrbeq	r0, [r4, #-1]!
     218:	05940000 	ldreq	r0, [r4]
     21c:	00010000 	andeq	r0, r1, r0
     220:	00000055 	andeq	r0, r0, r5, asr r0
     224:	00000000 	andeq	r0, r0, r0
     228:	74000000 	strvc	r0, [r0], #-0
     22c:	88000005 	stmdahi	r0, {r0, r2}
     230:	01000005 	tsteq	r0, r5
     234:	00005500 	andeq	r5, r0, r0, lsl #10
     238:	00000000 	andeq	r0, r0, r0
     23c:	00010000 	andeq	r0, r1, r0
     240:	0000057c 	andeq	r0, r0, ip, ror r5
     244:	00000580 	andeq	r0, r0, r0, lsl #11
     248:	005c0001 	subseq	r0, ip, r1
	...
     254:	00057c00 	andeq	r7, r5, r0, lsl #24
     258:	00058000 	andeq	r8, r5, r0
     25c:	5c000100 	stfpls	f0, [r0], {-0}
	...
     268:	05940002 	ldreq	r0, [r4, #2]
     26c:	05c40000 	strbeq	r0, [r4]
     270:	00020000 	andeq	r0, r2, r0
     274:	00009f30 	andeq	r9, r0, r0, lsr pc
     278:	00000000 	andeq	r0, r0, r0
     27c:	00070000 	andeq	r0, r7, r0
     280:	00000594 	muleq	r0, r4, r5
     284:	000005ac 	andeq	r0, r0, ip, lsr #11
     288:	f5080003 			; <UNDEFINED> instruction: 0xf5080003
     28c:	0000009f 	muleq	r0, pc, r0	; <UNPREDICTABLE>
     290:	00000000 	andeq	r0, r0, r0
     294:	98000100 	stmdals	r0, {r8}
     298:	b0000005 	andlt	r0, r0, r5
     29c:	01000005 	tsteq	r0, r5
     2a0:	00005500 	andeq	r5, r0, r0, lsl #10
	...
     2ac:	00000598 	muleq	r0, r8, r5
     2b0:	000005ac 	andeq	r0, r0, ip, lsr #11
     2b4:	00550001 	subseq	r0, r5, r1
     2b8:	00000000 	andeq	r0, r0, r0
     2bc:	01000000 	mrseq	r0, (UNDEF: 0)
     2c0:	0005a000 	andeq	sl, r5, r0
     2c4:	0005a400 	andeq	sl, r5, r0, lsl #8
     2c8:	5c000100 	stfpls	f0, [r0], {-0}
	...
     2d4:	05a00000 	streq	r0, [r0, #0]!
     2d8:	05a40000 	streq	r0, [r4, #0]!
     2dc:	00010000 	andeq	r0, r1, r0
     2e0:	0000005c 	andeq	r0, r0, ip, asr r0
     2e4:	00000000 	andeq	r0, r0, r0
     2e8:	ac000400 	cfstrsge	mvf0, [r0], {-0}
     2ec:	c4000005 	strgt	r0, [r0], #-5
     2f0:	04000005 	streq	r0, [r0], #-5
     2f4:	02760a00 	rsbseq	r0, r6, #0, 20
     2f8:	0000009f 	muleq	r0, pc, r0	; <UNPREDICTABLE>
     2fc:	00000000 	andeq	r0, r0, r0
     300:	b0000100 	andlt	r0, r0, r0, lsl #2
     304:	d0000005 	andle	r0, r0, r5
     308:	01000005 	tsteq	r0, r5
     30c:	00005500 	andeq	r5, r0, r0, lsl #10
	...
     318:	000005b0 			; <UNDEFINED> instruction: 0x000005b0
     31c:	000005c4 	andeq	r0, r0, r4, asr #11
     320:	00550001 	subseq	r0, r5, r1
     324:	00000000 	andeq	r0, r0, r0
     328:	01000000 	mrseq	r0, (UNDEF: 0)
     32c:	0005b800 	andeq	fp, r5, r0, lsl #16
     330:	0005bc00 	andeq	fp, r5, r0, lsl #24
     334:	5c000100 	stfpls	f0, [r0], {-0}
	...
     340:	05b80000 	ldreq	r0, [r8, #0]!
     344:	05bc0000 	ldreq	r0, [ip, #0]!
     348:	00010000 	andeq	r0, r1, r0
     34c:	0000005c 	andeq	r0, r0, ip, asr r0
     350:	00000000 	andeq	r0, r0, r0
     354:	d0000200 	andle	r0, r0, r0, lsl #4
     358:	00000005 	andeq	r0, r0, r5
     35c:	02000006 	andeq	r0, r0, #6, 0
     360:	009f3000 	addseq	r3, pc, r0
     364:	00000000 	andeq	r0, r0, r0
     368:	07000000 	streq	r0, [r0, -r0]
     36c:	0005d000 	andeq	sp, r5, r0
     370:	0005e800 	andeq	lr, r5, r0, lsl #16
     374:	08000300 	stmdaeq	r0, {r8, r9}
     378:	00009ff5 	strdeq	r9, [r0], -r5
     37c:	00000000 	andeq	r0, r0, r0
     380:	00010000 	andeq	r0, r1, r0
     384:	000005d4 	ldrdeq	r0, [r0], -r4
     388:	000005ec 	andeq	r0, r0, ip, ror #11
     38c:	00550001 	subseq	r0, r5, r1
	...
     398:	0005d400 	andeq	sp, r5, r0, lsl #8
     39c:	0005e800 	andeq	lr, r5, r0, lsl #16
     3a0:	55000100 	strpl	r0, [r0, #-256]	; 0xffffff00
	...
     3ac:	05dc0001 	ldrbeq	r0, [ip, #1]
     3b0:	05e00000 	strbeq	r0, [r0, #0]!
     3b4:	00010000 	andeq	r0, r1, r0
     3b8:	0000005c 	andeq	r0, r0, ip, asr r0
     3bc:	00000000 	andeq	r0, r0, r0
     3c0:	dc000000 	stcle	0, cr0, [r0], {-0}
     3c4:	e0000005 	and	r0, r0, r5
     3c8:	01000005 	tsteq	r0, r5
     3cc:	00005c00 	andeq	r5, r0, r0, lsl #24
     3d0:	00000000 	andeq	r0, r0, r0
     3d4:	00040000 	andeq	r0, r4, r0
     3d8:	000005e8 	andeq	r0, r0, r8, ror #11
     3dc:	00000600 	andeq	r0, r0, r0, lsl #12
     3e0:	760a0004 	strvc	r0, [sl], -r4
     3e4:	00009f02 	andeq	r9, r0, r2, lsl #30
     3e8:	00000000 	andeq	r0, r0, r0
     3ec:	00010000 	andeq	r0, r1, r0
     3f0:	000005ec 	andeq	r0, r0, ip, ror #11
     3f4:	00000614 	andeq	r0, r0, r4, lsl r6
     3f8:	00550001 	subseq	r0, r5, r1
	...
     404:	0005ec00 	andeq	lr, r5, r0, lsl #24
     408:	00060000 	andeq	r0, r6, r0
     40c:	55000100 	strpl	r0, [r0, #-256]	; 0xffffff00
	...
     418:	05f40001 	ldrbeq	r0, [r4, #1]!
     41c:	05f80000 	ldrbeq	r0, [r8, #0]!
     420:	00010000 	andeq	r0, r1, r0
     424:	0000005c 	andeq	r0, r0, ip, asr r0
     428:	00000000 	andeq	r0, r0, r0
     42c:	f4000000 	vst4.8	{d0-d3}, [r0], r0
     430:	f8000005 			; <UNDEFINED> instruction: 0xf8000005
     434:	01000005 	tsteq	r0, r5
     438:	00005c00 	andeq	r5, r0, r0, lsl #24
	...
     444:	02700000 	rsbseq	r0, r0, #0, 0
     448:	02800000 	addeq	r0, r0, #0, 0
     44c:	00010000 	andeq	r0, r1, r0
     450:	00028050 	andeq	r8, r2, r0, asr r0
     454:	00043400 	andeq	r3, r4, r0, lsl #8
     458:	f3000400 	vshl.u8	d0, d0, d0
     45c:	009f5001 	addseq	r5, pc, r1
	...
     46c:	00027000 	andeq	r7, r2, r0
     470:	00032400 	andeq	r2, r3, r0, lsl #8
     474:	51000100 	mrspl	r0, (UNDEF: 16)
     478:	00000324 	andeq	r0, r0, r4, lsr #6
     47c:	000003b0 			; <UNDEFINED> instruction: 0x000003b0
     480:	01f30004 	mvnseq	r0, r4
     484:	03b09f51 	movseq	r9, #324	; 0x144
     488:	04340000 	ldrteq	r0, [r4], #-0
     48c:	00010000 	andeq	r0, r1, r0
     490:	00000051 	andeq	r0, r0, r1, asr r0
	...
     49c:	70000000 	andvc	r0, r0, r0
     4a0:	d8000002 	stmdale	r0, {r1}
     4a4:	01000002 	tsteq	r0, r2
     4a8:	02d85200 	sbcseq	r5, r8, #0, 4
     4ac:	03f00000 	mvnseq	r0, #0, 0
     4b0:	00040000 	andeq	r0, r4, r0
     4b4:	9f5201f3 	svcls	0x005201f3
     4b8:	000003f0 	strdeq	r0, [r0], -r0	; <UNPREDICTABLE>
     4bc:	00000434 	andeq	r0, r0, r4, lsr r4
     4c0:	00520001 	subseq	r0, r2, r1
	...
     4cc:	00027800 	andeq	r7, r2, r0, lsl #16
     4d0:	00043400 	andeq	r3, r4, r0, lsl #8
     4d4:	53000100 	movwpl	r0, #256	; 0x100
	...
     4e4:	02780000 	rsbseq	r0, r8, #0, 0
     4e8:	02d80000 	sbcseq	r0, r8, #0, 0
     4ec:	00010000 	andeq	r0, r1, r0
     4f0:	0002d852 	andeq	sp, r2, r2, asr r8
     4f4:	0003f000 	andeq	pc, r3, r0
     4f8:	f3000400 	vshl.u8	d0, d0, d0
     4fc:	f09f5201 			; <UNDEFINED> instruction: 0xf09f5201
     500:	34000003 	strcc	r0, [r0], #-3
     504:	01000004 	tsteq	r0, r4
     508:	00005200 	andeq	r5, r0, r0, lsl #4
	...
     518:	00000278 	andeq	r0, r0, r8, ror r2
     51c:	00000324 	andeq	r0, r0, r4, lsr #6
     520:	24510001 	ldrbcs	r0, [r1], #-1
     524:	b0000003 	andlt	r0, r0, r3
     528:	04000003 	streq	r0, [r0], #-3
     52c:	5101f300 	mrspl	pc, SP_irq	; <UNPREDICTABLE>
     530:	0003b09f 	muleq	r3, pc, r0	; <UNPREDICTABLE>
     534:	00043400 	andeq	r3, r4, r0, lsl #8
     538:	51000100 	mrspl	r0, (UNDEF: 16)
	...
     544:	00000002 	andeq	r0, r0, r2
     548:	00000270 	andeq	r0, r0, r0, ror r2
     54c:	00000280 	andeq	r0, r0, r0, lsl #5
     550:	00700008 	rsbseq	r0, r0, r8
     554:	ff080194 			; <UNDEFINED> instruction: 0xff080194
     558:	02809f1a 	addeq	r9, r0, #104	; 0x68
     55c:	02880000 	addeq	r0, r8, #0, 0
     560:	00090000 	andeq	r0, r9, r0
     564:	945001f3 	ldrbls	r0, [r0], #-499	; 0xfffffe0d
     568:	1aff0801 	bne	fffc2574 <__bss_end__+0xfffb80a4>
     56c:	0000009f 	muleq	r0, pc, r0	; <UNPREDICTABLE>
     570:	00000000 	andeq	r0, r0, r0
     574:	00000300 	andeq	r0, r0, r0, lsl #6
     578:	00027800 	andeq	r7, r2, r0, lsl #16
     57c:	0002d800 	andeq	sp, r2, r0, lsl #16
     580:	52000100 	andpl	r0, r0, #0
     584:	000003f0 	strdeq	r0, [r0], -r0	; <UNPREDICTABLE>
     588:	00000434 	andeq	r0, r0, r4, lsr r4
     58c:	00520001 	subseq	r0, r2, r1
     590:	00000000 	andeq	r0, r0, r0
     594:	03000000 	movweq	r0, #0
     598:	78000000 	stmdavc	r0, {}	; <UNPREDICTABLE>
     59c:	80000002 	andhi	r0, r0, r2
     5a0:	08000002 	stmdaeq	r0, {r1}
     5a4:	94007000 	strls	r7, [r0], #-0
     5a8:	1aff0801 	bne	fffc25b4 <__bss_end__+0xfffb80e4>
     5ac:	0002809f 	muleq	r2, pc, r0	; <UNPREDICTABLE>
     5b0:	00028800 	andeq	r8, r2, r0, lsl #16
     5b4:	50000100 	andpl	r0, r0, r0, lsl #2
	...
     5c0:	00000006 	andeq	r0, r0, r6
     5c4:	02780000 	rsbseq	r0, r8, #0, 0
     5c8:	02880000 	addeq	r0, r8, #0, 0
     5cc:	00020000 	andeq	r0, r2, r0
     5d0:	02889f30 	addeq	r9, r8, #48, 30	; 0xc0
     5d4:	02d80000 	sbcseq	r0, r8, #0, 0
     5d8:	00010000 	andeq	r0, r1, r0
     5dc:	0003f05e 	andeq	pc, r3, lr, asr r0	; <UNPREDICTABLE>
     5e0:	00043400 	andeq	r3, r4, r0, lsl #8
     5e4:	5e000100 	adfpls	f0, f0, f0
	...
     5f0:	00000002 	andeq	r0, r0, r2
     5f4:	00000288 	andeq	r0, r0, r8, lsl #5
     5f8:	000002c4 	andeq	r0, r0, r4, asr #5
     5fc:	00720008 	rsbseq	r0, r2, r8
     600:	3126007e 			; <UNDEFINED> instruction: 0x3126007e
     604:	03f09f1a 	mvnseq	r9, #104	; 0x68
     608:	04200000 	strteq	r0, [r0], #-0
     60c:	00080000 	andeq	r0, r8, r0
     610:	007e0072 	rsbseq	r0, lr, r2, ror r0
     614:	9f1a3126 	svcls	0x001a3126
	...
     620:	03f00004 	mvnseq	r0, #4, 0
     624:	04080000 	streq	r0, [r8], #-0
     628:	00030000 	andeq	r0, r3, r0
     62c:	009ff508 	addseq	pc, pc, r8, lsl #10
     630:	00000000 	andeq	r0, r0, r0
     634:	01000000 	mrseq	r0, (UNDEF: 0)
     638:	0003f400 	andeq	pc, r3, r0, lsl #8
     63c:	00040c00 	andeq	r0, r4, r0, lsl #24
     640:	55000100 	strpl	r0, [r0, #-256]	; 0xffffff00
	...
     64c:	03f40000 	mvnseq	r0, #0, 0
     650:	04080000 	streq	r0, [r8], #-0
     654:	00010000 	andeq	r0, r1, r0
     658:	00000055 	andeq	r0, r0, r5, asr r0
     65c:	00000000 	andeq	r0, r0, r0
     660:	fc000100 	stc2	1, cr0, [r0], {-0}
     664:	00000003 	andeq	r0, r0, r3
     668:	01000004 	tsteq	r0, r4
     66c:	00005400 	andeq	r5, r0, r0, lsl #8
	...
     678:	000003fc 	strdeq	r0, [r0], -ip
     67c:	00000400 	andeq	r0, r0, r0, lsl #8
     680:	00540001 	subseq	r0, r4, r1
     684:	00000000 	andeq	r0, r0, r0
     688:	03000000 	movweq	r0, #0
     68c:	00029400 	andeq	r9, r2, r0, lsl #8
     690:	0002ac00 	andeq	sl, r2, r0, lsl #24
     694:	0a000400 	beq	169c <__code_start__-0x6964>
     698:	009f0276 	addseq	r0, pc, r6, ror r2	; <UNPREDICTABLE>
     69c:	00000000 	andeq	r0, r0, r0
     6a0:	01000000 	mrseq	r0, (UNDEF: 0)
     6a4:	00029800 	andeq	r9, r2, r0, lsl #16
     6a8:	0002b000 	andeq	fp, r2, r0
     6ac:	55000100 	strpl	r0, [r0, #-256]	; 0xffffff00
	...
     6b8:	02980000 	addseq	r0, r8, #0, 0
     6bc:	02ac0000 	adceq	r0, ip, #0, 0
     6c0:	00010000 	andeq	r0, r1, r0
     6c4:	00000055 	andeq	r0, r0, r5, asr r0
     6c8:	00000000 	andeq	r0, r0, r0
     6cc:	a0000100 	andge	r0, r0, r0, lsl #2
     6d0:	a4000002 	strge	r0, [r0], #-2
     6d4:	01000002 	tsteq	r0, r2
     6d8:	00005400 	andeq	r5, r0, r0, lsl #8
	...
     6e4:	000002a0 	andeq	r0, r0, r0, lsr #5
     6e8:	000002a4 	andeq	r0, r0, r4, lsr #5
     6ec:	00540001 	subseq	r0, r4, r1
     6f0:	00000000 	andeq	r0, r0, r0
     6f4:	04000000 	streq	r0, [r0], #-0
     6f8:	0002ac00 	andeq	sl, r2, r0, lsl #24
     6fc:	0002c400 	andeq	ip, r2, r0, lsl #8
     700:	08000300 	stmdaeq	r0, {r8, r9}
     704:	00009ff5 	strdeq	r9, [r0], -r5
     708:	00000000 	andeq	r0, r0, r0
     70c:	00010000 	andeq	r0, r1, r0
     710:	000002b0 			; <UNDEFINED> instruction: 0x000002b0
     714:	000002d0 	ldrdeq	r0, [r0], -r0	; <UNPREDICTABLE>
     718:	00550001 	subseq	r0, r5, r1
	...
     724:	0002b000 	andeq	fp, r2, r0
     728:	0002c400 	andeq	ip, r2, r0, lsl #8
     72c:	55000100 	strpl	r0, [r0, #-256]	; 0xffffff00
	...
     738:	02b80001 	adcseq	r0, r8, #1, 0
     73c:	02bc0000 	adcseq	r0, ip, #0, 0
     740:	00010000 	andeq	r0, r1, r0
     744:	00000054 	andeq	r0, r0, r4, asr r0
     748:	00000000 	andeq	r0, r0, r0
     74c:	b8000000 	stmdalt	r0, {}	; <UNPREDICTABLE>
     750:	bc000002 	stclt	0, cr0, [r0], {2}
     754:	01000002 	tsteq	r0, r2
     758:	00005400 	andeq	r5, r0, r0, lsl #8
     75c:	00000000 	andeq	r0, r0, r0
     760:	00040000 	andeq	r0, r4, r0
     764:	00000408 	andeq	r0, r0, r8, lsl #8
     768:	00000420 	andeq	r0, r0, r0, lsr #8
     76c:	760a0004 	strvc	r0, [sl], -r4
     770:	00009f02 	andeq	r9, r0, r2, lsl #30
     774:	00000000 	andeq	r0, r0, r0
     778:	00010000 	andeq	r0, r1, r0
     77c:	0000040c 	andeq	r0, r0, ip, lsl #8
     780:	00000434 	andeq	r0, r0, r4, lsr r4
     784:	00550001 	subseq	r0, r5, r1
	...
     790:	00040c00 	andeq	r0, r4, r0, lsl #24
     794:	00042000 	andeq	r2, r4, r0
     798:	55000100 	strpl	r0, [r0, #-256]	; 0xffffff00
	...
     7a4:	04140001 	ldreq	r0, [r4], #-1
     7a8:	04180000 	ldreq	r0, [r8], #-0
     7ac:	00010000 	andeq	r0, r1, r0
     7b0:	00000054 	andeq	r0, r0, r4, asr r0
     7b4:	00000000 	andeq	r0, r0, r0
     7b8:	14000000 	strne	r0, [r0], #-0
     7bc:	18000004 	stmdane	r0, {r2}
     7c0:	01000004 	tsteq	r0, r4
     7c4:	00005400 	andeq	r5, r0, r0, lsl #8
	...
     7d0:	02d80000 	sbcseq	r0, r8, #0, 0
     7d4:	03200000 	nopeq	{0}	; <UNPREDICTABLE>
     7d8:	00010000 	andeq	r0, r1, r0
     7dc:	0003b05c 	andeq	fp, r3, ip, asr r0
     7e0:	0003f000 	andeq	pc, r3, r0
     7e4:	5c000100 	stfpls	f0, [r0], {-0}
	...
     7f0:	00000002 	andeq	r0, r0, r2
     7f4:	000002d8 	ldrdeq	r0, [r0], -r8
     7f8:	00000314 	andeq	r0, r0, r4, lsl r3
     7fc:	00710008 	rsbseq	r0, r1, r8
     800:	3126007c 			; <UNDEFINED> instruction: 0x3126007c
     804:	03b09f1a 	movseq	r9, #104	; 0x68
     808:	03e00000 	mvneq	r0, #0, 0
     80c:	00080000 	andeq	r0, r8, r0
     810:	007c0071 	rsbseq	r0, ip, r1, ror r0
     814:	9f1a3126 	svcls	0x001a3126
	...
     820:	03b00004 	movseq	r0, #4, 0
     824:	03c80000 	biceq	r0, r8, #0, 0
     828:	00030000 	andeq	r0, r3, r0
     82c:	009ff508 	addseq	pc, pc, r8, lsl #10
     830:	00000000 	andeq	r0, r0, r0
     834:	01000000 	mrseq	r0, (UNDEF: 0)
     838:	0003b400 	andeq	fp, r3, r0, lsl #8
     83c:	0003cc00 	andeq	ip, r3, r0, lsl #24
     840:	54000100 	strpl	r0, [r0], #-256	; 0xffffff00
	...
     84c:	03b40000 			; <UNDEFINED> instruction: 0x03b40000
     850:	03c80000 	biceq	r0, r8, #0, 0
     854:	00010000 	andeq	r0, r1, r0
     858:	00000054 	andeq	r0, r0, r4, asr r0
     85c:	00000000 	andeq	r0, r0, r0
     860:	bc000100 	stflts	f0, [r0], {-0}
     864:	c0000003 	andgt	r0, r0, r3
     868:	01000003 	tsteq	r0, r3
     86c:	00005e00 	andeq	r5, r0, r0, lsl #28
	...
     878:	000003bc 			; <UNDEFINED> instruction: 0x000003bc
     87c:	000003c0 	andeq	r0, r0, r0, asr #7
     880:	005e0001 	subseq	r0, lr, r1
     884:	00000000 	andeq	r0, r0, r0
     888:	03000000 	movweq	r0, #0
     88c:	0002e400 	andeq	lr, r2, r0, lsl #8
     890:	0002fc00 	andeq	pc, r2, r0, lsl #24
     894:	0a000400 	beq	189c <__code_start__-0x6764>
     898:	009f0276 	addseq	r0, pc, r6, ror r2	; <UNPREDICTABLE>
     89c:	00000000 	andeq	r0, r0, r0
     8a0:	01000000 	mrseq	r0, (UNDEF: 0)
     8a4:	0002e800 	andeq	lr, r2, r0, lsl #16
     8a8:	00030000 	andeq	r0, r3, r0
     8ac:	54000100 	strpl	r0, [r0], #-256	; 0xffffff00
	...
     8b8:	02e80000 	rsceq	r0, r8, #0, 0
     8bc:	02fc0000 	rscseq	r0, ip, #0, 0
     8c0:	00010000 	andeq	r0, r1, r0
     8c4:	00000054 	andeq	r0, r0, r4, asr r0
     8c8:	00000000 	andeq	r0, r0, r0
     8cc:	f0000100 			; <UNDEFINED> instruction: 0xf0000100
     8d0:	f4000002 	vst4.8	{d0-d3}, [r0], r2
     8d4:	01000002 	tsteq	r0, r2
     8d8:	00005e00 	andeq	r5, r0, r0, lsl #28
	...
     8e4:	000002f0 	strdeq	r0, [r0], -r0	; <UNPREDICTABLE>
     8e8:	000002f4 	strdeq	r0, [r0], -r4
     8ec:	005e0001 	subseq	r0, lr, r1
     8f0:	00000000 	andeq	r0, r0, r0
     8f4:	04000000 	streq	r0, [r0], #-0
     8f8:	0002fc00 	andeq	pc, r2, r0, lsl #24
     8fc:	00031400 	andeq	r1, r3, r0, lsl #8
     900:	08000300 	stmdaeq	r0, {r8, r9}
     904:	00009ff5 	strdeq	r9, [r0], -r5
     908:	00000000 	andeq	r0, r0, r0
     90c:	00010000 	andeq	r0, r1, r0
     910:	00000300 	andeq	r0, r0, r0, lsl #6
     914:	00000320 	andeq	r0, r0, r0, lsr #6
     918:	00540001 	subseq	r0, r4, r1
	...
     924:	00030000 	andeq	r0, r3, r0
     928:	00031400 	andeq	r1, r3, r0, lsl #8
     92c:	54000100 	strpl	r0, [r0], #-256	; 0xffffff00
	...
     938:	03080001 	movweq	r0, #32769	; 0x8001
     93c:	030c0000 	movweq	r0, #49152	; 0xc000
     940:	00010000 	andeq	r0, r1, r0
     944:	0000005e 	andeq	r0, r0, lr, asr r0
     948:	00000000 	andeq	r0, r0, r0
     94c:	08000000 	stmdaeq	r0, {}	; <UNPREDICTABLE>
     950:	0c000003 	stceq	0, cr0, [r0], {3}
     954:	01000003 	tsteq	r0, r3
     958:	00005e00 	andeq	r5, r0, r0, lsl #28
     95c:	00000000 	andeq	r0, r0, r0
     960:	00040000 	andeq	r0, r4, r0
     964:	000003c8 	andeq	r0, r0, r8, asr #7
     968:	000003e0 	andeq	r0, r0, r0, ror #7
     96c:	760a0004 	strvc	r0, [sl], -r4
     970:	00009f02 	andeq	r9, r0, r2, lsl #30
     974:	00000000 	andeq	r0, r0, r0
     978:	00010000 	andeq	r0, r1, r0
     97c:	000003cc 	andeq	r0, r0, ip, asr #7
     980:	000003f0 	strdeq	r0, [r0], -r0	; <UNPREDICTABLE>
     984:	00540001 	subseq	r0, r4, r1
	...
     990:	0003cc00 	andeq	ip, r3, r0, lsl #24
     994:	0003e000 	andeq	lr, r3, r0
     998:	54000100 	strpl	r0, [r0], #-256	; 0xffffff00
	...
     9a4:	03d40001 	bicseq	r0, r4, #1, 0
     9a8:	03d80000 	bicseq	r0, r8, #0, 0
     9ac:	00010000 	andeq	r0, r1, r0
     9b0:	0000005e 	andeq	r0, r0, lr, asr r0
     9b4:	00000000 	andeq	r0, r0, r0
     9b8:	d4000000 	strle	r0, [r0], #-0
     9bc:	d8000003 	stmdale	r0, {r0, r1}
     9c0:	01000003 	tsteq	r0, r3
     9c4:	00005e00 	andeq	r5, r0, r0, lsl #28
	...
     9d0:	00000324 	andeq	r0, r0, r4, lsr #6
     9d4:	000003b0 			; <UNDEFINED> instruction: 0x000003b0
     9d8:	00510001 	subseq	r0, r1, r1
     9dc:	00000000 	andeq	r0, r0, r0
     9e0:	01000000 	mrseq	r0, (UNDEF: 0)
     9e4:	24000100 	strcs	r0, [r0], #-256	; 0xffffff00
     9e8:	34000003 	strcc	r0, [r0], #-3
     9ec:	08000003 	stmdaeq	r0, {r0, r1}
     9f0:	71007300 	mrsvc	r7, LR_irq
     9f4:	1a312600 	bne	c4a1fc <__bss_end__+0xc3fd2c>
     9f8:	0003709f 	muleq	r3, pc, r0	; <UNPREDICTABLE>
     9fc:	00037c00 	andeq	r7, r3, r0, lsl #24
     a00:	73000800 	movwvc	r0, #2048	; 0x800
     a04:	26007100 	strcs	r7, [r0], -r0, lsl #2
     a08:	009f1a31 	addseq	r1, pc, r1, lsr sl	; <UNPREDICTABLE>
     a0c:	00000000 	andeq	r0, r0, r0
     a10:	03000000 	movweq	r0, #0
     a14:	00037c00 	andeq	r7, r3, r0, lsl #24
     a18:	00039400 	andeq	r9, r3, r0, lsl #8
     a1c:	08000300 	stmdaeq	r0, {r8, r9}
     a20:	00009ff5 	strdeq	r9, [r0], -r5
     a24:	00000000 	andeq	r0, r0, r0
     a28:	00010000 	andeq	r0, r1, r0
     a2c:	00000380 	andeq	r0, r0, r0, lsl #7
     a30:	00000398 	muleq	r0, r8, r3
     a34:	005e0001 	subseq	r0, lr, r1
	...
     a40:	00038000 	andeq	r8, r3, r0
     a44:	00039400 	andeq	r9, r3, r0, lsl #8
     a48:	5e000100 	adfpls	f0, f0, f0
	...
     a54:	03880001 	orreq	r0, r8, #1, 0
     a58:	038c0000 	orreq	r0, ip, #0, 0
     a5c:	00010000 	andeq	r0, r1, r0
     a60:	0000005c 	andeq	r0, r0, ip, asr r0
     a64:	00000000 	andeq	r0, r0, r0
     a68:	88000000 	stmdahi	r0, {}	; <UNPREDICTABLE>
     a6c:	8c000003 	stchi	0, cr0, [r0], {3}
     a70:	01000003 	tsteq	r0, r3
     a74:	00005c00 	andeq	r5, r0, r0, lsl #24
     a78:	00000000 	andeq	r0, r0, r0
     a7c:	00030000 	andeq	r0, r3, r0
     a80:	00000334 	andeq	r0, r0, r4, lsr r3
     a84:	0000034c 	andeq	r0, r0, ip, asr #6
     a88:	760a0004 	strvc	r0, [sl], -r4
     a8c:	00009f02 	andeq	r9, r0, r2, lsl #30
     a90:	00000000 	andeq	r0, r0, r0
     a94:	00010000 	andeq	r0, r1, r0
     a98:	00000338 	andeq	r0, r0, r8, lsr r3
     a9c:	00000350 	andeq	r0, r0, r0, asr r3
     aa0:	005e0001 	subseq	r0, lr, r1
	...
     aac:	00033800 	andeq	r3, r3, r0, lsl #16
     ab0:	00034c00 	andeq	r4, r3, r0, lsl #24
     ab4:	5e000100 	adfpls	f0, f0, f0
	...
     ac0:	03400001 	movteq	r0, #1
     ac4:	03440000 	movteq	r0, #16384	; 0x4000
     ac8:	00010000 	andeq	r0, r1, r0
     acc:	0000005c 	andeq	r0, r0, ip, asr r0
     ad0:	00000000 	andeq	r0, r0, r0
     ad4:	40000000 	andmi	r0, r0, r0
     ad8:	44000003 	strmi	r0, [r0], #-3
     adc:	01000003 	tsteq	r0, r3
     ae0:	00005c00 	andeq	r5, r0, r0, lsl #24
     ae4:	00000000 	andeq	r0, r0, r0
     ae8:	00040000 	andeq	r0, r4, r0
     aec:	0000034c 	andeq	r0, r0, ip, asr #6
     af0:	00000364 	andeq	r0, r0, r4, ror #6
     af4:	f5080003 			; <UNDEFINED> instruction: 0xf5080003
     af8:	0000009f 	muleq	r0, pc, r0	; <UNPREDICTABLE>
     afc:	00000000 	andeq	r0, r0, r0
     b00:	50000100 	andpl	r0, r0, r0, lsl #2
     b04:	64000003 	strvs	r0, [r0], #-3
     b08:	01000003 	tsteq	r0, r3
     b0c:	00005e00 	andeq	r5, r0, r0, lsl #28
	...
     b18:	00000350 	andeq	r0, r0, r0, asr r3
     b1c:	00000364 	andeq	r0, r0, r4, ror #6
     b20:	005e0001 	subseq	r0, lr, r1
     b24:	00000000 	andeq	r0, r0, r0
     b28:	01000000 	mrseq	r0, (UNDEF: 0)
     b2c:	00035800 	andeq	r5, r3, r0, lsl #16
     b30:	00035c00 	andeq	r5, r3, r0, lsl #24
     b34:	5c000100 	stfpls	f0, [r0], {-0}
	...
     b40:	03580000 	cmpeq	r8, #0, 0
     b44:	035c0000 	cmpeq	ip, #0, 0
     b48:	00010000 	andeq	r0, r1, r0
     b4c:	0000005c 	andeq	r0, r0, ip, asr r0
     b50:	00000000 	andeq	r0, r0, r0
     b54:	94000400 	strls	r0, [r0], #-1024	; 0xfffffc00
     b58:	b0000003 	andlt	r0, r0, r3
     b5c:	04000003 	streq	r0, [r0], #-3
     b60:	02760a00 	rsbseq	r0, r6, #0, 20
     b64:	0000009f 	muleq	r0, pc, r0	; <UNPREDICTABLE>
     b68:	00000000 	andeq	r0, r0, r0
     b6c:	98000100 	stmdals	r0, {r8}
     b70:	b0000003 	andlt	r0, r0, r3
     b74:	01000003 	tsteq	r0, r3
     b78:	00005e00 	andeq	r5, r0, r0, lsl #28
	...
     b84:	00000398 	muleq	r0, r8, r3
     b88:	000003b0 			; <UNDEFINED> instruction: 0x000003b0
     b8c:	005e0001 	subseq	r0, lr, r1
     b90:	00000000 	andeq	r0, r0, r0
     b94:	01000000 	mrseq	r0, (UNDEF: 0)
     b98:	0003a000 	andeq	sl, r3, r0
     b9c:	0003a400 	andeq	sl, r3, r0, lsl #8
     ba0:	5c000100 	stfpls	f0, [r0], {-0}
	...
     bac:	03a00000 	moveq	r0, #0, 0
     bb0:	03a40000 			; <UNDEFINED> instruction: 0x03a40000
     bb4:	00010000 	andeq	r0, r1, r0
     bb8:	0000005c 	andeq	r0, r0, ip, asr r0
	...
     bc4:	00022000 	andeq	r2, r2, r0
     bc8:	00023400 	andeq	r3, r2, r0, lsl #8
     bcc:	50000100 	andpl	r0, r0, r0, lsl #2
     bd0:	00000234 	andeq	r0, r0, r4, lsr r2
     bd4:	00000264 	andeq	r0, r0, r4, ror #4
     bd8:	01f30004 	mvnseq	r0, r4
     bdc:	00009f50 	andeq	r9, r0, r0, asr pc
	...
     be8:	02200000 	eoreq	r0, r0, #0, 0
     bec:	023b0000 	eorseq	r0, fp, #0, 0
     bf0:	00010000 	andeq	r0, r1, r0
     bf4:	00023b51 	andeq	r3, r2, r1, asr fp
     bf8:	00026400 	andeq	r6, r2, r0, lsl #8
     bfc:	55000100 	strpl	r0, [r0, #-256]	; 0xffffff00
	...
     c0c:	00000240 	andeq	r0, r0, r0, asr #4
     c10:	0000024b 	andeq	r0, r0, fp, asr #4
     c14:	4b500001 	blmi	1400c20 <__bss_end__+0x13f6750>
     c18:	64000002 	strvs	r0, [r0], #-2
     c1c:	01000002 	tsteq	r0, r2
     c20:	00005400 	andeq	r5, r0, r0, lsl #8
	...
     c2c:	0000022c 	andeq	r0, r0, ip, lsr #4
     c30:	00000264 	andeq	r0, r0, r4, ror #4
     c34:	00570001 	subseq	r0, r7, r1
	...
     c44:	4c000000 	stcmi	0, cr0, [r0], {-0}
     c48:	01000000 	mrseq	r0, (UNDEF: 0)
     c4c:	004c5000 	subeq	r5, ip, r0
     c50:	02200000 	eoreq	r0, r0, #0, 0
     c54:	00040000 	andeq	r0, r4, r0
     c58:	9f5001f3 	svcls	0x005001f3
	...
     c64:	00300000 	eorseq	r0, r0, r0
     c68:	004c0000 	subeq	r0, ip, r0
     c6c:	00020000 	andeq	r0, r2, r0
     c70:	00009f30 	andeq	r9, r0, r0, lsr pc
	...
     c7c:	00580000 	subseq	r0, r8, r0
     c80:	013c0000 	teqeq	ip, r0
     c84:	00010000 	andeq	r0, r1, r0
     c88:	00015854 	andeq	r5, r1, r4, asr r8
     c8c:	00022000 	andeq	r2, r2, r0
     c90:	54000100 	strpl	r0, [r0], #-256	; 0xffffff00
	...
     ca0:	00580000 	subseq	r0, r8, r0
     ca4:	005c0000 	subseq	r0, ip, r0
     ca8:	00020000 	andeq	r0, r2, r0
     cac:	005c0970 	subseq	r0, ip, r0, ror r9
     cb0:	00a80000 	adceq	r0, r8, r0
     cb4:	00010000 	andeq	r0, r1, r0
     cb8:	0001d857 	andeq	sp, r1, r7, asr r8
     cbc:	00022000 	andeq	r2, r2, r0
     cc0:	57000100 	strpl	r0, [r0, -r0, lsl #2]
	...
     cd0:	00000058 	andeq	r0, r0, r8, asr r0
     cd4:	000000f4 	strdeq	r0, [r0], -r4
     cd8:	98560001 	ldmdals	r6, {r0}^
     cdc:	20000001 	andcs	r0, r0, r1
     ce0:	01000002 	tsteq	r0, r2
     ce4:	00005600 	andeq	r5, r0, r0, lsl #12
     ce8:	00000000 	andeq	r0, r0, r0
     cec:	00020000 	andeq	r0, r2, r0
     cf0:	00000000 	andeq	r0, r0, r0
     cf4:	00000058 	andeq	r0, r0, r8, asr r0
     cf8:	0000005c 	andeq	r0, r0, ip, asr r0
     cfc:	09700002 	ldmdbeq	r0!, {r1}^
     d00:	0000005c 	andeq	r0, r0, ip, asr r0
     d04:	000000a8 	andeq	r0, r0, r8, lsr #1
     d08:	d8570001 	ldmdale	r7, {r0}^
     d0c:	20000001 	andcs	r0, r0, r1
     d10:	01000002 	tsteq	r0, r2
     d14:	00005700 	andeq	r5, r0, r0, lsl #14
     d18:	00000000 	andeq	r0, r0, r0
     d1c:	00050000 	andeq	r0, r5, r0
     d20:	00000000 	andeq	r0, r0, r0
     d24:	00000058 	andeq	r0, r0, r8, asr r0
     d28:	0000005c 	andeq	r0, r0, ip, asr r0
     d2c:	9f300002 	svcls	0x00300002
     d30:	0000005c 	andeq	r0, r0, ip, asr r0
     d34:	000000a8 	andeq	r0, r0, r8, lsr #1
     d38:	d8510001 	ldmdale	r1, {r0}^
     d3c:	20000001 	andcs	r0, r0, r1
     d40:	01000002 	tsteq	r0, r2
     d44:	00005100 	andeq	r5, r0, r0, lsl #2
     d48:	00000000 	andeq	r0, r0, r0
     d4c:	00010000 	andeq	r0, r1, r0
     d50:	005c0000 	subseq	r0, ip, r0
     d54:	00980000 	addseq	r0, r8, r0
     d58:	00080000 	andeq	r0, r8, r0
     d5c:	00710077 	rsbseq	r0, r1, r7, ror r0
     d60:	9f1a3126 	svcls	0x001a3126
     d64:	000001d8 	ldrdeq	r0, [r0], -r8
     d68:	00000208 	andeq	r0, r0, r8, lsl #4
     d6c:	00770008 	rsbseq	r0, r7, r8
     d70:	31260071 			; <UNDEFINED> instruction: 0x31260071
     d74:	00009f1a 	andeq	r9, r0, sl, lsl pc
     d78:	00000000 	andeq	r0, r0, r0
     d7c:	00040000 	andeq	r0, r4, r0
     d80:	000001d8 	ldrdeq	r0, [r0], -r8
     d84:	000001f0 	strdeq	r0, [r0], -r0	; <UNPREDICTABLE>
     d88:	f5080003 			; <UNDEFINED> instruction: 0xf5080003
     d8c:	0000009f 	muleq	r0, pc, r0	; <UNPREDICTABLE>
     d90:	00000000 	andeq	r0, r0, r0
     d94:	dc000100 	stfles	f0, [r0], {-0}
     d98:	f4000001 	vst4.8	{d0-d3}, [r0], r1
     d9c:	01000001 	tsteq	r0, r1
     da0:	00005800 	andeq	r5, r0, r0, lsl #16
	...
     dac:	000001dc 	ldrdeq	r0, [r0], -ip
     db0:	000001f0 	strdeq	r0, [r0], -r0	; <UNPREDICTABLE>
     db4:	00580001 	subseq	r0, r8, r1
     db8:	00000000 	andeq	r0, r0, r0
     dbc:	01000000 	mrseq	r0, (UNDEF: 0)
     dc0:	0001e400 	andeq	lr, r1, r0, lsl #8
     dc4:	0001e800 	andeq	lr, r1, r0, lsl #16
     dc8:	5c000100 	stfpls	f0, [r0], {-0}
	...
     dd4:	01e40000 	mvneq	r0, r0
     dd8:	01e80000 	mvneq	r0, r0
     ddc:	00010000 	andeq	r0, r1, r0
     de0:	0000005c 	andeq	r0, r0, ip, asr r0
     de4:	00000000 	andeq	r0, r0, r0
     de8:	68000300 	stmdavs	r0, {r8, r9}
     dec:	80000000 	andhi	r0, r0, r0
     df0:	04000000 	streq	r0, [r0], #-0
     df4:	02760a00 	rsbseq	r0, r6, #0, 20
     df8:	0000009f 	muleq	r0, pc, r0	; <UNPREDICTABLE>
     dfc:	00000000 	andeq	r0, r0, r0
     e00:	6c000100 	stfvss	f0, [r0], {-0}
     e04:	84000000 	strhi	r0, [r0], #-0
     e08:	01000000 	mrseq	r0, (UNDEF: 0)
     e0c:	00005800 	andeq	r5, r0, r0, lsl #16
	...
     e18:	0000006c 	andeq	r0, r0, ip, rrx
     e1c:	00000080 	andeq	r0, r0, r0, lsl #1
     e20:	00580001 	subseq	r0, r8, r1
     e24:	00000000 	andeq	r0, r0, r0
     e28:	01000000 	mrseq	r0, (UNDEF: 0)
     e2c:	00007400 	andeq	r7, r0, r0, lsl #8
     e30:	00007800 	andeq	r7, r0, r0, lsl #16
     e34:	5c000100 	stfpls	f0, [r0], {-0}
	...
     e40:	00740000 	rsbseq	r0, r4, r0
     e44:	00780000 	rsbseq	r0, r8, r0
     e48:	00010000 	andeq	r0, r1, r0
     e4c:	0000005c 	andeq	r0, r0, ip, asr r0
     e50:	00000000 	andeq	r0, r0, r0
     e54:	80000400 	andhi	r0, r0, r0, lsl #8
     e58:	98000000 	stmdals	r0, {}	; <UNPREDICTABLE>
     e5c:	03000000 	movweq	r0, #0
     e60:	9ff50800 	svcls	0x00f50800
	...
     e6c:	00840001 	addeq	r0, r4, r1
     e70:	00a40000 	adceq	r0, r4, r0
     e74:	00010000 	andeq	r0, r1, r0
     e78:	00000058 	andeq	r0, r0, r8, asr r0
     e7c:	00000000 	andeq	r0, r0, r0
     e80:	84000000 	strhi	r0, [r0], #-0
     e84:	98000000 	stmdals	r0, {}	; <UNPREDICTABLE>
     e88:	01000000 	mrseq	r0, (UNDEF: 0)
     e8c:	00005800 	andeq	r5, r0, r0, lsl #16
     e90:	00000000 	andeq	r0, r0, r0
     e94:	00010000 	andeq	r0, r1, r0
     e98:	0000008c 	andeq	r0, r0, ip, lsl #1
     e9c:	00000090 	muleq	r0, r0, r0
     ea0:	005c0001 	subseq	r0, ip, r1
	...
     eac:	00008c00 	andeq	r8, r0, r0, lsl #24
     eb0:	00009000 	andeq	r9, r0, r0
     eb4:	5c000100 	stfpls	f0, [r0], {-0}
	...
     ec0:	01f00004 	mvnseq	r0, r4
     ec4:	02080000 	andeq	r0, r8, #0, 0
     ec8:	00040000 	andeq	r0, r4, r0
     ecc:	9f02760a 	svcls	0x0002760a
	...
     ed8:	01f40001 	mvnseq	r0, r1
     edc:	02200000 	eoreq	r0, r0, #0, 0
     ee0:	00010000 	andeq	r0, r1, r0
     ee4:	00000058 	andeq	r0, r0, r8, asr r0
     ee8:	00000000 	andeq	r0, r0, r0
     eec:	f4000000 	vst4.8	{d0-d3}, [r0], r0
     ef0:	08000001 	stmdaeq	r0, {r0}
     ef4:	01000002 	tsteq	r0, r2
     ef8:	00005800 	andeq	r5, r0, r0, lsl #16
     efc:	00000000 	andeq	r0, r0, r0
     f00:	00010000 	andeq	r0, r1, r0
     f04:	000001fc 	strdeq	r0, [r0], -ip
     f08:	00000200 	andeq	r0, r0, r0, lsl #4
     f0c:	005c0001 	subseq	r0, ip, r1
	...
     f18:	0001fc00 	andeq	pc, r1, r0, lsl #24
     f1c:	00020000 	andeq	r0, r2, r0
     f20:	5c000100 	stfpls	f0, [r0], {-0}
	...
     f30:	000000a8 	andeq	r0, r0, r8, lsr #1
     f34:	000000f4 	strdeq	r0, [r0], -r4
     f38:	98510001 	ldmdals	r1, {r0}^
     f3c:	d8000001 	stmdale	r0, {r0}
     f40:	01000001 	tsteq	r0, r1
     f44:	00005100 	andeq	r5, r0, r0, lsl #2
     f48:	00000000 	andeq	r0, r0, r0
     f4c:	00010000 	andeq	r0, r1, r0
     f50:	00a80000 	adceq	r0, r8, r0
     f54:	00e40000 	rsceq	r0, r4, r0
     f58:	00080000 	andeq	r0, r8, r0
     f5c:	00710076 	rsbseq	r0, r1, r6, ror r0
     f60:	9f1a3126 	svcls	0x001a3126
     f64:	00000198 	muleq	r0, r8, r1
     f68:	000001c8 	andeq	r0, r0, r8, asr #3
     f6c:	00760008 	rsbseq	r0, r6, r8
     f70:	31260071 			; <UNDEFINED> instruction: 0x31260071
     f74:	00009f1a 	andeq	r9, r0, sl, lsl pc
     f78:	00000000 	andeq	r0, r0, r0
     f7c:	00030000 	andeq	r0, r3, r0
     f80:	000000b4 	strheq	r0, [r0], -r4
     f84:	000000cc 	andeq	r0, r0, ip, asr #1
     f88:	760a0004 	strvc	r0, [sl], -r4
     f8c:	00009f02 	andeq	r9, r0, r2, lsl #30
     f90:	00000000 	andeq	r0, r0, r0
     f94:	00010000 	andeq	r0, r1, r0
     f98:	000000b8 	strheq	r0, [r0], -r8
     f9c:	000000d0 	ldrdeq	r0, [r0], -r0	; <UNPREDICTABLE>
     fa0:	00570001 	subseq	r0, r7, r1
	...
     fac:	0000b800 	andeq	fp, r0, r0, lsl #16
     fb0:	0000cc00 	andeq	ip, r0, r0, lsl #24
     fb4:	57000100 	strpl	r0, [r0, -r0, lsl #2]
	...
     fc0:	00c00001 	sbceq	r0, r0, r1
     fc4:	00c40000 	sbceq	r0, r4, r0
     fc8:	00010000 	andeq	r0, r1, r0
     fcc:	0000005c 	andeq	r0, r0, ip, asr r0
     fd0:	00000000 	andeq	r0, r0, r0
     fd4:	c0000000 	andgt	r0, r0, r0
     fd8:	c4000000 	strgt	r0, [r0], #-0
     fdc:	01000000 	mrseq	r0, (UNDEF: 0)
     fe0:	00005c00 	andeq	r5, r0, r0, lsl #24
     fe4:	00000000 	andeq	r0, r0, r0
     fe8:	00040000 	andeq	r0, r4, r0
     fec:	000000cc 	andeq	r0, r0, ip, asr #1
     ff0:	000000e4 	andeq	r0, r0, r4, ror #1
     ff4:	f5080003 			; <UNDEFINED> instruction: 0xf5080003
     ff8:	0000009f 	muleq	r0, pc, r0	; <UNPREDICTABLE>
     ffc:	00000000 	andeq	r0, r0, r0
    1000:	d0000100 	andle	r0, r0, r0, lsl #2
    1004:	f0000000 			; <UNDEFINED> instruction: 0xf0000000
    1008:	01000000 	mrseq	r0, (UNDEF: 0)
    100c:	00005700 	andeq	r5, r0, r0, lsl #14
	...
    1018:	000000d0 	ldrdeq	r0, [r0], -r0	; <UNPREDICTABLE>
    101c:	000000e4 	andeq	r0, r0, r4, ror #1
    1020:	00570001 	subseq	r0, r7, r1
    1024:	00000000 	andeq	r0, r0, r0
    1028:	01000000 	mrseq	r0, (UNDEF: 0)
    102c:	0000d800 	andeq	sp, r0, r0, lsl #16
    1030:	0000dc00 	andeq	sp, r0, r0, lsl #24
    1034:	5c000100 	stfpls	f0, [r0], {-0}
	...
    1040:	00d80000 	sbcseq	r0, r8, r0
    1044:	00dc0000 	sbcseq	r0, ip, r0
    1048:	00010000 	andeq	r0, r1, r0
    104c:	0000005c 	andeq	r0, r0, ip, asr r0
    1050:	00000000 	andeq	r0, r0, r0
    1054:	98000400 	stmdals	r0, {sl}
    1058:	b0000001 	andlt	r0, r0, r1
    105c:	03000001 	movweq	r0, #1
    1060:	9ff50800 	svcls	0x00f50800
	...
    106c:	019c0001 	orrseq	r0, ip, r1
    1070:	01b40000 			; <UNDEFINED> instruction: 0x01b40000
    1074:	00010000 	andeq	r0, r1, r0
    1078:	00000057 	andeq	r0, r0, r7, asr r0
    107c:	00000000 	andeq	r0, r0, r0
    1080:	9c000000 	stcls	0, cr0, [r0], {-0}
    1084:	b0000001 	andlt	r0, r0, r1
    1088:	01000001 	tsteq	r0, r1
    108c:	00005700 	andeq	r5, r0, r0, lsl #14
    1090:	00000000 	andeq	r0, r0, r0
    1094:	00010000 	andeq	r0, r1, r0
    1098:	000001a4 	andeq	r0, r0, r4, lsr #3
    109c:	000001a8 	andeq	r0, r0, r8, lsr #3
    10a0:	005c0001 	subseq	r0, ip, r1
	...
    10ac:	0001a400 	andeq	sl, r1, r0, lsl #8
    10b0:	0001a800 	andeq	sl, r1, r0, lsl #16
    10b4:	5c000100 	stfpls	f0, [r0], {-0}
	...
    10c0:	01b00004 	movseq	r0, r4
    10c4:	01c80000 	biceq	r0, r8, r0
    10c8:	00040000 	andeq	r0, r4, r0
    10cc:	9f02760a 	svcls	0x0002760a
	...
    10d8:	01b40001 			; <UNDEFINED> instruction: 0x01b40001
    10dc:	01d80000 	bicseq	r0, r8, r0
    10e0:	00010000 	andeq	r0, r1, r0
    10e4:	00000057 	andeq	r0, r0, r7, asr r0
    10e8:	00000000 	andeq	r0, r0, r0
    10ec:	b4000000 	strlt	r0, [r0], #-0
    10f0:	c8000001 	stmdagt	r0, {r0}
    10f4:	01000001 	tsteq	r0, r1
    10f8:	00005700 	andeq	r5, r0, r0, lsl #14
    10fc:	00000000 	andeq	r0, r0, r0
    1100:	00010000 	andeq	r0, r1, r0
    1104:	000001bc 			; <UNDEFINED> instruction: 0x000001bc
    1108:	000001c0 	andeq	r0, r0, r0, asr #3
    110c:	005c0001 	subseq	r0, ip, r1
	...
    1118:	0001bc00 	andeq	fp, r1, r0, lsl #24
    111c:	0001c000 	andeq	ip, r1, r0
    1120:	5c000100 	stfpls	f0, [r0], {-0}
	...
    1130:	000000f4 	strdeq	r0, [r0], -r4
    1134:	0000013c 	andeq	r0, r0, ip, lsr r1
    1138:	58510001 	ldmdapl	r1, {r0}^
    113c:	98000001 	stmdals	r0, {r0}
    1140:	01000001 	tsteq	r0, r1
    1144:	00005100 	andeq	r5, r0, r0, lsl #2
    1148:	00000000 	andeq	r0, r0, r0
    114c:	00010000 	andeq	r0, r1, r0
    1150:	00f40000 	rscseq	r0, r4, r0
    1154:	01300000 	teqeq	r0, r0
    1158:	00080000 	andeq	r0, r8, r0
    115c:	00710074 	rsbseq	r0, r1, r4, ror r0
    1160:	9f1a3126 	svcls	0x001a3126
    1164:	00000158 	andeq	r0, r0, r8, asr r1
    1168:	00000188 	andeq	r0, r0, r8, lsl #3
    116c:	00740008 	rsbseq	r0, r4, r8
    1170:	31260071 			; <UNDEFINED> instruction: 0x31260071
    1174:	00009f1a 	andeq	r9, r0, sl, lsl pc
    1178:	00000000 	andeq	r0, r0, r0
    117c:	00030000 	andeq	r0, r3, r0
    1180:	00000100 	andeq	r0, r0, r0, lsl #2
    1184:	00000118 	andeq	r0, r0, r8, lsl r1
    1188:	760a0004 	strvc	r0, [sl], -r4
    118c:	00009f02 	andeq	r9, r0, r2, lsl #30
    1190:	00000000 	andeq	r0, r0, r0
    1194:	00010000 	andeq	r0, r1, r0
    1198:	00000104 	andeq	r0, r0, r4, lsl #2
    119c:	0000011c 	andeq	r0, r0, ip, lsl r1
    11a0:	00560001 	subseq	r0, r6, r1
	...
    11ac:	00010400 	andeq	r0, r1, r0, lsl #8
    11b0:	00011800 	andeq	r1, r1, r0, lsl #16
    11b4:	56000100 	strpl	r0, [r0], -r0, lsl #2
	...
    11c0:	010c0001 	tsteq	ip, r1
    11c4:	01100000 	tsteq	r0, r0
    11c8:	00010000 	andeq	r0, r1, r0
    11cc:	0000005c 	andeq	r0, r0, ip, asr r0
    11d0:	00000000 	andeq	r0, r0, r0
    11d4:	0c000000 	stceq	0, cr0, [r0], {-0}
    11d8:	10000001 	andne	r0, r0, r1
    11dc:	01000001 	tsteq	r0, r1
    11e0:	00005c00 	andeq	r5, r0, r0, lsl #24
    11e4:	00000000 	andeq	r0, r0, r0
    11e8:	00040000 	andeq	r0, r4, r0
    11ec:	00000118 	andeq	r0, r0, r8, lsl r1
    11f0:	00000130 	andeq	r0, r0, r0, lsr r1
    11f4:	f5080003 			; <UNDEFINED> instruction: 0xf5080003
    11f8:	0000009f 	muleq	r0, pc, r0	; <UNPREDICTABLE>
    11fc:	00000000 	andeq	r0, r0, r0
    1200:	1c000100 	stfnes	f0, [r0], {-0}
    1204:	3c000001 	stccc	0, cr0, [r0], {1}
    1208:	01000001 	tsteq	r0, r1
    120c:	00005600 	andeq	r5, r0, r0, lsl #12
	...
    1218:	0000011c 	andeq	r0, r0, ip, lsl r1
    121c:	00000130 	andeq	r0, r0, r0, lsr r1
    1220:	00560001 	subseq	r0, r6, r1
    1224:	00000000 	andeq	r0, r0, r0
    1228:	01000000 	mrseq	r0, (UNDEF: 0)
    122c:	00012400 	andeq	r2, r1, r0, lsl #8
    1230:	00012800 	andeq	r2, r1, r0, lsl #16
    1234:	5c000100 	stfpls	f0, [r0], {-0}
	...
    1240:	01240000 			; <UNDEFINED> instruction: 0x01240000
    1244:	01280000 			; <UNDEFINED> instruction: 0x01280000
    1248:	00010000 	andeq	r0, r1, r0
    124c:	0000005c 	andeq	r0, r0, ip, asr r0
    1250:	00000000 	andeq	r0, r0, r0
    1254:	58000300 	stmdapl	r0, {r8, r9}
    1258:	70000001 	andvc	r0, r0, r1
    125c:	03000001 	movweq	r0, #1
    1260:	9ff50800 	svcls	0x00f50800
	...
    126c:	015c0001 	cmpeq	ip, r1
    1270:	01740000 	cmneq	r4, r0
    1274:	00010000 	andeq	r0, r1, r0
    1278:	00000056 	andeq	r0, r0, r6, asr r0
    127c:	00000000 	andeq	r0, r0, r0
    1280:	5c000000 	stcpl	0, cr0, [r0], {-0}
    1284:	70000001 	andvc	r0, r0, r1
    1288:	01000001 	tsteq	r0, r1
    128c:	00005600 	andeq	r5, r0, r0, lsl #12
    1290:	00000000 	andeq	r0, r0, r0
    1294:	00010000 	andeq	r0, r1, r0
    1298:	00000164 	andeq	r0, r0, r4, ror #2
    129c:	00000168 	andeq	r0, r0, r8, ror #2
    12a0:	005c0001 	subseq	r0, ip, r1
	...
    12ac:	00016400 	andeq	r6, r1, r0, lsl #8
    12b0:	00016800 	andeq	r6, r1, r0, lsl #16
    12b4:	5c000100 	stfpls	f0, [r0], {-0}
	...
    12c0:	01700004 	cmneq	r0, r4
    12c4:	01880000 	orreq	r0, r8, r0
    12c8:	00040000 	andeq	r0, r4, r0
    12cc:	9f02760a 	svcls	0x0002760a
	...
    12d8:	01740001 	cmneq	r4, r1
    12dc:	01980000 	orrseq	r0, r8, r0
    12e0:	00010000 	andeq	r0, r1, r0
    12e4:	00000056 	andeq	r0, r0, r6, asr r0
    12e8:	00000000 	andeq	r0, r0, r0
    12ec:	74000000 	strvc	r0, [r0], #-0
    12f0:	88000001 	stmdahi	r0, {r0}
    12f4:	01000001 	tsteq	r0, r1
    12f8:	00005600 	andeq	r5, r0, r0, lsl #12
    12fc:	00000000 	andeq	r0, r0, r0
    1300:	00010000 	andeq	r0, r1, r0
    1304:	0000017c 	andeq	r0, r0, ip, ror r1
    1308:	00000180 	andeq	r0, r0, r0, lsl #3
    130c:	005c0001 	subseq	r0, ip, r1
	...
    1318:	00017c00 	andeq	r7, r1, r0, lsl #24
    131c:	00018000 	andeq	r8, r1, r0
    1320:	5c000100 	stfpls	f0, [r0], {-0}
	...
    132c:	00000002 	andeq	r0, r0, r2
    1330:	00200000 	eoreq	r0, r0, r0
    1334:	00080000 	andeq	r0, r8, r0
    1338:	01940070 	orrseq	r0, r4, r0, ror r0
    133c:	9f1aff08 	svcls	0x001aff08
	...
    1348:	00000004 	andeq	r0, r0, r4
    134c:	00200000 	eoreq	r0, r0, r0
    1350:	00080000 	andeq	r0, r8, r0
    1354:	01940070 	orrseq	r0, r4, r0, ror r0
    1358:	9f1aff08 	svcls	0x001aff08
	...
    1364:	00000006 	andeq	r0, r0, r6
    1368:	00300000 	eorseq	r0, r0, r0
    136c:	00040000 	andeq	r0, r4, r0
    1370:	9f88b80a 	svcls	0x0088b80a
	...
    137c:	00000006 	andeq	r0, r0, r6
    1380:	00200000 	eoreq	r0, r0, r0
    1384:	00080000 	andeq	r0, r8, r0
    1388:	01940070 	orrseq	r0, r4, r0, ror r0
    138c:	9f1aff08 	svcls	0x001aff08
	...
    1398:	00080001 	andeq	r0, r8, r1
    139c:	004c0000 	subeq	r0, ip, r0
    13a0:	00010000 	andeq	r0, r1, r0
    13a4:	0000005c 	andeq	r0, r0, ip, asr r0
    13a8:	00000000 	andeq	r0, r0, r0
    13ac:	08000000 	stmdaeq	r0, {}	; <UNPREDICTABLE>
    13b0:	30000000 	andcc	r0, r0, r0
    13b4:	01000000 	mrseq	r0, (UNDEF: 0)
    13b8:	00005c00 	andeq	r5, r0, r0, lsl #24
    13bc:	00000000 	andeq	r0, r0, r0
    13c0:	00030000 	andeq	r0, r3, r0
    13c4:	00000000 	andeq	r0, r0, r0
    13c8:	00000008 	andeq	r0, r0, r8
    13cc:	00000010 	andeq	r0, r0, r0, lsl r0
    13d0:	00700008 	rsbseq	r0, r0, r8
    13d4:	ff080194 			; <UNDEFINED> instruction: 0xff080194
    13d8:	00109f1a 	andseq	r9, r0, sl, lsl pc
    13dc:	00180000 	andseq	r0, r8, r0
    13e0:	00010000 	andeq	r0, r1, r0
    13e4:	00001853 	andeq	r1, r0, r3, asr r8
    13e8:	00002000 	andeq	r2, r0, r0
    13ec:	70000800 	andvc	r0, r0, r0, lsl #16
    13f0:	08019400 	stmdaeq	r1, {sl, ip, pc}
    13f4:	009f1aff 			; <UNDEFINED> instruction: 0x009f1aff
    13f8:	00000000 	andeq	r0, r0, r0
    13fc:	01000000 	mrseq	r0, (UNDEF: 0)
    1400:	00002400 	andeq	r2, r0, r0, lsl #8
    1404:	00002800 	andeq	r2, r0, r0, lsl #16
    1408:	52000100 	andpl	r0, r0, #0
	...
    1414:	00240000 	eoreq	r0, r4, r0
    1418:	00280000 	eoreq	r0, r8, r0
    141c:	00010000 	andeq	r0, r1, r0
    1420:	00000052 	andeq	r0, r0, r2, asr r0
	...
    1430:	00044000 	andeq	r4, r4, r0
    1434:	00052700 	andeq	r2, r5, r0, lsl #14
    1438:	50000100 	andpl	r0, r0, r0, lsl #2
    143c:	00000527 	andeq	r0, r0, r7, lsr #10
    1440:	00000528 	andeq	r0, r0, r8, lsr #10
    1444:	01f30004 	mvnseq	r0, r4
    1448:	05289f50 	streq	r9, [r8, #-3920]!	; 0xfffff0b0
    144c:	052b0000 	streq	r0, [fp, #-0]!
    1450:	00010000 	andeq	r0, r1, r0
    1454:	00052b50 	andeq	r2, r5, r0, asr fp
    1458:	00053000 	andeq	r3, r5, r0
    145c:	f3000400 	vshl.u8	d0, d0, d0
    1460:	009f5001 	addseq	r5, pc, r1
	...
    1470:	40000000 	andmi	r0, r0, r0
    1474:	27000004 	strcs	r0, [r0, -r4]
    1478:	01000005 	tsteq	r0, r5
    147c:	05275100 	streq	r5, [r7, #-256]!	; 0xffffff00
    1480:	05280000 	streq	r0, [r8, #-0]!
    1484:	00040000 	andeq	r0, r4, r0
    1488:	9f5101f3 	svcls	0x005101f3
    148c:	00000528 	andeq	r0, r0, r8, lsr #10
    1490:	0000052b 	andeq	r0, r0, fp, lsr #10
    1494:	2b510001 	blcs	14414a0 <__bss_end__+0x1436fd0>
    1498:	30000005 	andcc	r0, r0, r5
    149c:	04000005 	streq	r0, [r0], #-5
    14a0:	5101f300 	mrspl	pc, SP_irq	; <UNPREDICTABLE>
    14a4:	0000009f 	muleq	r0, pc, r0	; <UNPREDICTABLE>
    14a8:	00000000 	andeq	r0, r0, r0
    14ac:	00000300 	andeq	r0, r0, r0, lsl #6
    14b0:	40000000 	andmi	r0, r0, r0
    14b4:	60000004 	andvs	r0, r0, r4
    14b8:	02000004 	andeq	r0, r0, #4, 0
    14bc:	609f3000 	addsvs	r3, pc, r0
    14c0:	24000004 	strcs	r0, [r0], #-4
    14c4:	01000005 	tsteq	r0, r5
    14c8:	05285e00 	streq	r5, [r8, #-3584]!	; 0xfffff200
    14cc:	05300000 	ldreq	r0, [r0, #-0]!
    14d0:	00020000 	andeq	r0, r2, r0
    14d4:	00009f30 	andeq	r9, r0, r0, lsr pc
    14d8:	00000000 	andeq	r0, r0, r0
    14dc:	00020000 	andeq	r0, r2, r0
    14e0:	00000460 	andeq	r0, r0, r0, ror #8
    14e4:	00000514 	andeq	r0, r0, r4, lsl r5
    14e8:	9f300002 	svcls	0x00300002
	...
    14f4:	04600004 	strbteq	r0, [r0], #-4
    14f8:	04a00000 	strteq	r0, [r0], #0
    14fc:	00020000 	andeq	r0, r2, r0
    1500:	00009f30 	andeq	r9, r0, r0, lsr pc
    1504:	00000000 	andeq	r0, r0, r0
    1508:	00070000 	andeq	r0, r7, r0
    150c:	00000460 	andeq	r0, r0, r0, ror #8
    1510:	00000464 	andeq	r0, r0, r4, ror #8
    1514:	9f300002 	svcls	0x00300002
	...
    1520:	04640001 	strbteq	r0, [r4], #-1
    1524:	04940000 	ldreq	r0, [r4], #0
    1528:	00020000 	andeq	r0, r2, r0
    152c:	00009f30 	andeq	r9, r0, r0, lsr pc
    1530:	00000000 	andeq	r0, r0, r0
    1534:	00060000 	andeq	r0, r6, r0
    1538:	00000464 	andeq	r0, r0, r4, ror #8
    153c:	0000047c 	andeq	r0, r0, ip, ror r4
    1540:	f5080003 			; <UNDEFINED> instruction: 0xf5080003
    1544:	0000009f 	muleq	r0, pc, r0	; <UNPREDICTABLE>
    1548:	00000000 	andeq	r0, r0, r0
    154c:	68000100 	stmdavs	r0, {r8}
    1550:	80000004 	andhi	r0, r0, r4
    1554:	01000004 	tsteq	r0, r4
    1558:	00005500 	andeq	r5, r0, r0, lsl #10
	...
    1564:	00000468 	andeq	r0, r0, r8, ror #8
    1568:	0000047c 	andeq	r0, r0, ip, ror r4
    156c:	00550001 	subseq	r0, r5, r1
    1570:	00000000 	andeq	r0, r0, r0
    1574:	01000000 	mrseq	r0, (UNDEF: 0)
    1578:	00047000 	andeq	r7, r4, r0
    157c:	00047400 	andeq	r7, r4, r0, lsl #8
    1580:	5c000100 	stfpls	f0, [r0], {-0}
	...
    158c:	04700000 	ldrbteq	r0, [r0], #-0
    1590:	04740000 	ldrbteq	r0, [r4], #-0
    1594:	00010000 	andeq	r0, r1, r0
    1598:	0000005c 	andeq	r0, r0, ip, asr r0
    159c:	00000000 	andeq	r0, r0, r0
    15a0:	7c000400 	cfstrsvc	mvf0, [r0], {-0}
    15a4:	94000004 	strls	r0, [r0], #-4
    15a8:	04000004 	streq	r0, [r0], #-4
    15ac:	02760a00 	rsbseq	r0, r6, #0, 20
    15b0:	0000009f 	muleq	r0, pc, r0	; <UNPREDICTABLE>
    15b4:	00000000 	andeq	r0, r0, r0
    15b8:	80000100 	andhi	r0, r0, r0, lsl #2
    15bc:	a0000004 	andge	r0, r0, r4
    15c0:	01000004 	tsteq	r0, r4
    15c4:	00005500 	andeq	r5, r0, r0, lsl #10
	...
    15d0:	00000480 	andeq	r0, r0, r0, lsl #9
    15d4:	00000494 	muleq	r0, r4, r4
    15d8:	00550001 	subseq	r0, r5, r1
    15dc:	00000000 	andeq	r0, r0, r0
    15e0:	01000000 	mrseq	r0, (UNDEF: 0)
    15e4:	00048800 	andeq	r8, r4, r0, lsl #16
    15e8:	00048c00 	andeq	r8, r4, r0, lsl #24
    15ec:	5c000100 	stfpls	f0, [r0], {-0}
	...
    15f8:	04880000 	streq	r0, [r8], #0
    15fc:	048c0000 	streq	r0, [ip], #0
    1600:	00010000 	andeq	r0, r1, r0
    1604:	0000005c 	andeq	r0, r0, ip, asr r0
    1608:	00000000 	andeq	r0, r0, r0
    160c:	a0000200 	andge	r0, r0, r0, lsl #4
    1610:	d0000004 	andle	r0, r0, r4
    1614:	02000004 	andeq	r0, r0, #4, 0
    1618:	009f3000 	addseq	r3, pc, r0
    161c:	00000000 	andeq	r0, r0, r0
    1620:	07000000 	streq	r0, [r0, -r0]
    1624:	0004a000 	andeq	sl, r4, r0
    1628:	0004b800 	andeq	fp, r4, r0, lsl #16
    162c:	08000300 	stmdaeq	r0, {r8, r9}
    1630:	00009ff5 	strdeq	r9, [r0], -r5
    1634:	00000000 	andeq	r0, r0, r0
    1638:	00010000 	andeq	r0, r1, r0
    163c:	000004a4 	andeq	r0, r0, r4, lsr #9
    1640:	000004bc 			; <UNDEFINED> instruction: 0x000004bc
    1644:	00550001 	subseq	r0, r5, r1
	...
    1650:	0004a400 	andeq	sl, r4, r0, lsl #8
    1654:	0004b800 	andeq	fp, r4, r0, lsl #16
    1658:	55000100 	strpl	r0, [r0, #-256]	; 0xffffff00
	...
    1664:	04ac0001 	strteq	r0, [ip], #1
    1668:	04b00000 	ldrteq	r0, [r0], #0
    166c:	00010000 	andeq	r0, r1, r0
    1670:	0000005c 	andeq	r0, r0, ip, asr r0
    1674:	00000000 	andeq	r0, r0, r0
    1678:	ac000000 	stcge	0, cr0, [r0], {-0}
    167c:	b0000004 	andlt	r0, r0, r4
    1680:	01000004 	tsteq	r0, r4
    1684:	00005c00 	andeq	r5, r0, r0, lsl #24
    1688:	00000000 	andeq	r0, r0, r0
    168c:	00040000 	andeq	r0, r4, r0
    1690:	000004b8 			; <UNDEFINED> instruction: 0x000004b8
    1694:	000004d0 	ldrdeq	r0, [r0], -r0	; <UNPREDICTABLE>
    1698:	760a0004 	strvc	r0, [sl], -r4
    169c:	00009f02 	andeq	r9, r0, r2, lsl #30
    16a0:	00000000 	andeq	r0, r0, r0
    16a4:	00010000 	andeq	r0, r1, r0
    16a8:	000004bc 			; <UNDEFINED> instruction: 0x000004bc
    16ac:	000004dc 	ldrdeq	r0, [r0], -ip
    16b0:	00550001 	subseq	r0, r5, r1
	...
    16bc:	0004bc00 	andeq	fp, r4, r0, lsl #24
    16c0:	0004d000 	andeq	sp, r4, r0
    16c4:	55000100 	strpl	r0, [r0, #-256]	; 0xffffff00
	...
    16d0:	04c40001 	strbeq	r0, [r4], #1
    16d4:	04c80000 	strbeq	r0, [r8], #0
    16d8:	00010000 	andeq	r0, r1, r0
    16dc:	0000005c 	andeq	r0, r0, ip, asr r0
    16e0:	00000000 	andeq	r0, r0, r0
    16e4:	c4000000 	strgt	r0, [r0], #-0
    16e8:	c8000004 	stmdagt	r0, {r2}
    16ec:	01000004 	tsteq	r0, r4
    16f0:	00005c00 	andeq	r5, r0, r0, lsl #24
    16f4:	00000000 	andeq	r0, r0, r0
    16f8:	00020000 	andeq	r0, r2, r0
    16fc:	000004dc 	ldrdeq	r0, [r0], -ip
    1700:	0000050c 	andeq	r0, r0, ip, lsl #10
    1704:	9f300002 	svcls	0x00300002
	...
    1710:	04dc0007 	ldrbeq	r0, [ip], #7
    1714:	04f40000 	ldrbteq	r0, [r4], #0
    1718:	00030000 	andeq	r0, r3, r0
    171c:	009ff508 	addseq	pc, pc, r8, lsl #10
    1720:	00000000 	andeq	r0, r0, r0
    1724:	01000000 	mrseq	r0, (UNDEF: 0)
    1728:	0004e000 	andeq	lr, r4, r0
    172c:	0004f800 	andeq	pc, r4, r0, lsl #16
    1730:	55000100 	strpl	r0, [r0, #-256]	; 0xffffff00
	...
    173c:	04e00000 	strbteq	r0, [r0], #0
    1740:	04f40000 	ldrbteq	r0, [r4], #0
    1744:	00010000 	andeq	r0, r1, r0
    1748:	00000055 	andeq	r0, r0, r5, asr r0
    174c:	00000000 	andeq	r0, r0, r0
    1750:	e8000100 	stmda	r0, {r8}
    1754:	ec000004 	stc	0, cr0, [r0], {4}
    1758:	01000004 	tsteq	r0, r4
    175c:	00005c00 	andeq	r5, r0, r0, lsl #24
	...
    1768:	000004e8 	andeq	r0, r0, r8, ror #9
    176c:	000004ec 	andeq	r0, r0, ip, ror #9
    1770:	005c0001 	subseq	r0, ip, r1
    1774:	00000000 	andeq	r0, r0, r0
    1778:	04000000 	streq	r0, [r0], #-0
    177c:	0004f400 	andeq	pc, r4, r0, lsl #8
    1780:	00050c00 	andeq	r0, r5, r0, lsl #24
    1784:	0a000400 	beq	278c <__code_start__-0x5874>
    1788:	009f0276 	addseq	r0, pc, r6, ror r2	; <UNPREDICTABLE>
    178c:	00000000 	andeq	r0, r0, r0
    1790:	01000000 	mrseq	r0, (UNDEF: 0)
    1794:	0004f800 	andeq	pc, r4, r0, lsl #16
    1798:	00052400 	andeq	r2, r5, r0, lsl #8
    179c:	55000100 	strpl	r0, [r0, #-256]	; 0xffffff00
	...
    17a8:	04f80000 	ldrbteq	r0, [r8], #0
    17ac:	050c0000 	streq	r0, [ip, #-0]
    17b0:	00010000 	andeq	r0, r1, r0
    17b4:	00000055 	andeq	r0, r0, r5, asr r0
    17b8:	00000000 	andeq	r0, r0, r0
    17bc:	00000100 	andeq	r0, r0, r0, lsl #2
    17c0:	04000005 	streq	r0, [r0], #-5
    17c4:	01000005 	tsteq	r0, r5
    17c8:	00005c00 	andeq	r5, r0, r0, lsl #24
	...
    17d4:	00000500 	andeq	r0, r0, r0, lsl #10
    17d8:	00000504 	andeq	r0, r0, r4, lsl #10
    17dc:	005c0001 	subseq	r0, ip, r1
	...
    17ec:	1c000000 	stcne	0, cr0, [r0], {-0}
    17f0:	01000000 	mrseq	r0, (UNDEF: 0)
    17f4:	001c5100 	andseq	r5, ip, r0, lsl #2
    17f8:	00780000 	rsbseq	r0, r8, r0
    17fc:	00040000 	andeq	r0, r4, r0
    1800:	9f5101f3 	svcls	0x005101f3
	...
    1814:	00000058 	andeq	r0, r0, r8, asr r0
    1818:	58520001 	ldmdapl	r2, {r0}^
    181c:	78000000 	stmdavc	r0, {}	; <UNPREDICTABLE>
    1820:	04000000 	streq	r0, [r0], #-0
    1824:	5201f300 	andpl	pc, r1, #0, 6
    1828:	0000009f 	muleq	r0, pc, r0	; <UNPREDICTABLE>
    182c:	00000000 	andeq	r0, r0, r0
    1830:	00000200 	andeq	r0, r0, r0, lsl #4
    1834:	00000101 	andeq	r0, r0, r1, lsl #2
    1838:	00000101 	andeq	r0, r0, r1, lsl #2
    183c:	00000101 	andeq	r0, r0, r1, lsl #2
    1840:	38000000 	stmdacc	r0, {}	; <UNPREDICTABLE>
    1844:	01000000 	mrseq	r0, (UNDEF: 0)
    1848:	00545000 	subseq	r5, r4, r0
    184c:	00540000 	subseq	r0, r4, r0
    1850:	00010000 	andeq	r0, r1, r0
    1854:	00005453 	andeq	r5, r0, r3, asr r4
    1858:	00005c00 	andeq	r5, r0, r0, lsl #24
    185c:	73000300 	movwvc	r0, #768	; 0x300
    1860:	005c9f01 	subseq	r9, ip, r1, lsl #30
    1864:	00640000 	rsbeq	r0, r4, r0
    1868:	00010000 	andeq	r0, r1, r0
    186c:	00006452 	andeq	r6, r0, r2, asr r4
    1870:	00006800 	andeq	r6, r0, r0, lsl #16
    1874:	73000300 	movwvc	r0, #768	; 0x300
    1878:	00689f02 	rsbeq	r9, r8, r2, lsl #30
    187c:	00740000 	rsbseq	r0, r4, r0
    1880:	00010000 	andeq	r0, r1, r0
    1884:	00007452 	andeq	r7, r0, r2, asr r4
    1888:	00007800 	andeq	r7, r0, r0, lsl #16
    188c:	72000300 	andvc	r0, r0, #0, 6
    1890:	00009f01 	andeq	r9, r0, r1, lsl #30
	...
    189c:	00000008 	andeq	r0, r0, r8
    18a0:	00000078 	andeq	r0, r0, r8, ror r0
    18a4:	00540001 	subseq	r0, r4, r1
	...
    18b4:	00002c00 	andeq	r2, r0, r0, lsl #24
    18b8:	00003400 	andeq	r3, r0, r0, lsl #8
    18bc:	50000100 	andpl	r0, r0, r0, lsl #2
    18c0:	00000034 	andeq	r0, r0, r4, lsr r0
    18c4:	00000048 	andeq	r0, r0, r8, asr #32
    18c8:	48540001 	ldmdami	r4, {r0}^
    18cc:	58000000 	stmdapl	r0, {}	; <UNPREDICTABLE>
    18d0:	01000000 	mrseq	r0, (UNDEF: 0)
    18d4:	00005000 	andeq	r5, r0, r0
	...
    18e0:	00010100 	andeq	r0, r1, r0, lsl #2
    18e4:	00000000 	andeq	r0, r0, r0
    18e8:	000c0000 	andeq	r0, ip, r0
    18ec:	00010000 	andeq	r0, r1, r0
    18f0:	00000c50 	andeq	r0, r0, r0, asr ip
    18f4:	00002000 	andeq	r2, r0, r0
    18f8:	54000100 	strpl	r0, [r0], #-256	; 0xffffff00
    18fc:	00000020 	andeq	r0, r0, r0, lsr #32
    1900:	00000024 	andeq	r0, r0, r4, lsr #32
    1904:	01740003 	cmneq	r4, r3
    1908:	0000249f 	muleq	r0, pc, r4	; <UNPREDICTABLE>
    190c:	00003800 	andeq	r3, r0, r0, lsl #16
    1910:	54000100 	strpl	r0, [r0], #-256	; 0xffffff00
	...
    1924:	03880000 	orreq	r0, r8, #0, 0
    1928:	03940000 	orrseq	r0, r4, #0, 0
    192c:	00010000 	andeq	r0, r1, r0
    1930:	00039450 	andeq	r9, r3, r0, asr r4
    1934:	0003d000 	andeq	sp, r3, r0
    1938:	5b000100 	blpl	1d40 <__code_start__-0x62c0>
    193c:	000003d0 	ldrdeq	r0, [r0], -r0	; <UNPREDICTABLE>
    1940:	00000920 	andeq	r0, r0, r0, lsr #18
    1944:	01f30004 	mvnseq	r0, r4
    1948:	09209f50 	stmdbeq	r0!, {r4, r6, r8, r9, sl, fp, ip, pc}
    194c:	09280000 	stmdbeq	r8!, {}	; <UNPREDICTABLE>
    1950:	00010000 	andeq	r0, r1, r0
    1954:	0009285b 	andeq	r2, r9, fp, asr r8
    1958:	0009b400 	andeq	fp, r9, r0, lsl #8
    195c:	f3000400 	vshl.u8	d0, d0, d0
    1960:	009f5001 	addseq	r5, pc, r1
	...
    1970:	88000000 	stmdahi	r0, {}	; <UNPREDICTABLE>
    1974:	d0000003 	andle	r0, r0, r3
    1978:	01000003 	tsteq	r0, r3
    197c:	03d05100 	bicseq	r5, r0, #0
    1980:	09200000 	stmdbeq	r0!, {}	; <UNPREDICTABLE>
    1984:	00040000 	andeq	r0, r4, r0
    1988:	9f5101f3 	svcls	0x005101f3
    198c:	00000920 	andeq	r0, r0, r0, lsr #18
    1990:	00000928 	andeq	r0, r0, r8, lsr #18
    1994:	28510001 	ldmdacs	r1, {r0}^
    1998:	b4000009 	strlt	r0, [r0], #-9
    199c:	04000009 	streq	r0, [r0], #-9
    19a0:	5101f300 	mrspl	pc, SP_irq	; <UNPREDICTABLE>
    19a4:	0000009f 	muleq	r0, pc, r0	; <UNPREDICTABLE>
	...
    19b4:	01000001 	tsteq	r0, r1
	...
    19c4:	00038800 	andeq	r8, r3, r0, lsl #16
    19c8:	0003d000 	andeq	sp, r3, r0
    19cc:	52000100 	andpl	r0, r0, #0
    19d0:	000003d0 	ldrdeq	r0, [r0], -r0	; <UNPREDICTABLE>
    19d4:	00000400 	andeq	r0, r0, r0, lsl #8
    19d8:	14560001 	ldrbne	r0, [r6], #-1
    19dc:	24000004 	strcs	r0, [r0], #-4
    19e0:	01000004 	tsteq	r0, r4
    19e4:	04245600 	strteq	r5, [r4], #-1536	; 0xfffffa00
    19e8:	04280000 	strteq	r0, [r8], #-0
    19ec:	00030000 	andeq	r0, r3, r0
    19f0:	a89f7f76 	ldmge	pc, {r1, r2, r4, r5, r6, r8, r9, sl, fp, ip, sp, lr}	; <UNPREDICTABLE>
    19f4:	ac000004 	stcge	0, cr0, [r0], {4}
    19f8:	01000004 	tsteq	r0, r4
    19fc:	04e05600 	strbteq	r5, [r0], #1536	; 0x600
    1a00:	05040000 	streq	r0, [r4, #-0]
    1a04:	00010000 	andeq	r0, r1, r0
    1a08:	00057c56 	andeq	r7, r5, r6, asr ip
    1a0c:	00058800 	andeq	r8, r5, r0, lsl #16
    1a10:	53000100 	movwpl	r0, #256	; 0x100
    1a14:	00000588 	andeq	r0, r0, r8, lsl #11
    1a18:	000005d0 	ldrdeq	r0, [r0], -r0	; <UNPREDICTABLE>
    1a1c:	cc910003 	ldcgt	0, cr0, [r1], {3}
    1a20:	0008007d 	andeq	r0, r8, sp, ror r0
    1a24:	00080f00 	andeq	r0, r8, r0, lsl #30
    1a28:	53000100 	movwpl	r0, #256	; 0x100
    1a2c:	0000080f 	andeq	r0, r0, pc, lsl #16
    1a30:	00000888 	andeq	r0, r0, r8, lsl #17
    1a34:	cc910003 	ldcgt	0, cr0, [r1], {3}
    1a38:	0009207d 	andeq	r2, r9, sp, ror r0
    1a3c:	00092800 	andeq	r2, r9, r0, lsl #16
    1a40:	52000100 	andpl	r0, r0, #0
    1a44:	00000948 	andeq	r0, r0, r8, asr #18
    1a48:	00000964 	andeq	r0, r0, r4, ror #18
    1a4c:	cc910003 	ldcgt	0, cr0, [r1], {3}
    1a50:	0000007d 	andeq	r0, r0, sp, ror r0
	...
    1a64:	00000101 	andeq	r0, r0, r1, lsl #2
    1a68:	00000101 	andeq	r0, r0, r1, lsl #2
    1a6c:	02020000 	andeq	r0, r2, #0, 0
    1a70:	02020000 	andeq	r0, r2, #0, 0
    1a74:	01010000 	mrseq	r0, (UNDEF: 1)
    1a78:	02020000 	andeq	r0, r2, #0, 0
    1a7c:	01010000 	mrseq	r0, (UNDEF: 1)
	...
    1a88:	00038800 	andeq	r8, r3, r0, lsl #16
    1a8c:	0003ac00 	andeq	sl, r3, r0, lsl #24
    1a90:	53000100 	movwpl	r0, #256	; 0x100
    1a94:	000003ac 	andeq	r0, r0, ip, lsr #7
    1a98:	000003c0 	andeq	r0, r0, r0, asr #7
    1a9c:	93530003 	cmpls	r3, #3, 0
    1aa0:	0003d004 	andeq	sp, r3, r4
    1aa4:	0003e800 	andeq	lr, r3, r0, lsl #16
    1aa8:	58000300 	stmdapl	r0, {r8, r9}
    1aac:	03e80493 	mvneq	r0, #-1828716544	; 0x93000000
    1ab0:	04ac0000 	strteq	r0, [ip], #0
    1ab4:	00030000 	andeq	r0, r3, r0
    1ab8:	ac049358 	stcge	3, cr9, [r4], {88}	; 0x58
    1abc:	b0000004 	andlt	r0, r0, r4
    1ac0:	01000004 	tsteq	r0, r4
    1ac4:	04c05300 	strbeq	r5, [r0], #768	; 0x300
    1ac8:	04c00000 	strbeq	r0, [r0], #0
    1acc:	00030000 	andeq	r0, r3, r0
    1ad0:	c0049358 	andgt	r9, r4, r8, asr r3
    1ad4:	cc000004 	stcgt	0, cr0, [r0], {4}
    1ad8:	05000004 	streq	r0, [r0, #-4]
    1adc:	9f047800 	svcls	0x00047800
    1ae0:	04cc0493 	strbeq	r0, [ip], #1171	; 0x493
    1ae4:	04e00000 	strbteq	r0, [r0], #0
    1ae8:	00030000 	andeq	r0, r3, r0
    1aec:	e0049358 	and	r9, r4, r8, asr r3
    1af0:	38000004 	stmdacc	r0, {r2}
    1af4:	03000005 	movweq	r0, #5
    1af8:	04935800 	ldreq	r5, [r3], #2048	; 0x800
    1afc:	00000538 	andeq	r0, r0, r8, lsr r5
    1b00:	0000053c 	andeq	r0, r0, ip, lsr r5
    1b04:	79780005 	ldmdbvc	r8!, {r0, r2}^
    1b08:	d004939f 	mulle	r4, pc, r3	; <UNPREDICTABLE>
    1b0c:	d0000005 	andle	r0, r0, r5
    1b10:	03000005 	movweq	r0, #5
    1b14:	04935800 	ldreq	r5, [r3], #2048	; 0x800
    1b18:	000005d0 	ldrdeq	r0, [r0], -r0	; <UNPREDICTABLE>
    1b1c:	000005d4 	ldrdeq	r0, [r0], -r4
    1b20:	04780005 	ldrbteq	r0, [r8], #-5
    1b24:	f404939f 	vst2.32	{d9-d12}, [r4 :64]
    1b28:	f4000005 	vst4.8	{d0-d3}, [r0], r5
    1b2c:	03000005 	movweq	r0, #5
    1b30:	04935800 	ldreq	r5, [r3], #2048	; 0x800
    1b34:	000005f4 	strdeq	r0, [r0], -r4
    1b38:	000005fc 	strdeq	r0, [r0], -ip
    1b3c:	04780005 	ldrbteq	r0, [r8], #-5
    1b40:	fc04939f 	stc2	3, cr9, [r4], {159}	; 0x9f
    1b44:	fc000005 	stc2	0, cr0, [r0], {5}
    1b48:	03000005 	movweq	r0, #5
    1b4c:	04935800 	ldreq	r5, [r3], #2048	; 0x800
    1b50:	000005fc 	strdeq	r0, [r0], -ip
    1b54:	00000600 	andeq	r0, r0, r0, lsl #12
    1b58:	04780005 	ldrbteq	r0, [r8], #-5
    1b5c:	0004939f 	muleq	r4, pc, r3	; <UNPREDICTABLE>
    1b60:	00000006 	andeq	r0, r0, r6
    1b64:	03000007 	movweq	r0, #7
    1b68:	04935800 	ldreq	r5, [r3], #2048	; 0x800
    1b6c:	00000700 	andeq	r0, r0, r0, lsl #14
    1b70:	0000070c 	andeq	r0, r0, ip, lsl #14
    1b74:	04780005 	ldrbteq	r0, [r8], #-5
    1b78:	0c04939f 	stceq	3, cr9, [r4], {159}	; 0x9f
    1b7c:	f8000007 			; <UNDEFINED> instruction: 0xf8000007
    1b80:	03000007 	movweq	r0, #7
    1b84:	04935800 	ldreq	r5, [r3], #2048	; 0x800
    1b88:	000007f8 	strdeq	r0, [r0], -r8
    1b8c:	000007fc 	strdeq	r0, [r0], -ip
    1b90:	04780005 	ldrbteq	r0, [r8], #-5
    1b94:	fc04939f 	stc2	3, cr9, [r4], {159}	; 0x9f
    1b98:	00000007 	andeq	r0, r0, r7
    1b9c:	03000008 	movweq	r0, #8
    1ba0:	04935800 	ldreq	r5, [r3], #2048	; 0x800
    1ba4:	00000888 	andeq	r0, r0, r8, lsl #17
    1ba8:	00000920 	andeq	r0, r0, r0, lsr #18
    1bac:	93580003 	cmpls	r8, #3, 0
    1bb0:	00092004 	andeq	r2, r9, r4
    1bb4:	00092800 	andeq	r2, r9, r0, lsl #16
    1bb8:	53000100 	movwpl	r0, #256	; 0x100
    1bbc:	00000964 	andeq	r0, r0, r4, ror #18
    1bc0:	000009b4 			; <UNDEFINED> instruction: 0x000009b4
    1bc4:	93580003 	cmpls	r8, #3, 0
    1bc8:	00000004 	andeq	r0, r0, r4
    1bcc:	00000000 	andeq	r0, r0, r0
    1bd0:	00000100 	andeq	r0, r0, r0, lsl #2
    1bd4:	00000000 	andeq	r0, r0, r0
    1bd8:	02020000 	andeq	r0, r2, #0, 0
    1bdc:	01000000 	mrseq	r0, (UNDEF: 0)
    1be0:	00000101 	andeq	r0, r0, r1, lsl #2
    1be4:	ac000000 	stcge	0, cr0, [r0], {-0}
    1be8:	d0000003 	andle	r0, r0, r3
    1bec:	01000003 	tsteq	r0, r3
    1bf0:	03d05b00 	bicseq	r5, r0, #0, 22
    1bf4:	03d40000 	bicseq	r0, r4, #0, 0
    1bf8:	00010000 	andeq	r0, r1, r0
    1bfc:	0003d454 	andeq	sp, r3, r4, asr r4
    1c00:	0003d800 	andeq	sp, r3, r0, lsl #16
    1c04:	74000300 	strvc	r0, [r0], #-768	; 0xfffffd00
    1c08:	03d89f7f 	bicseq	r9, r8, #508	; 0x1fc
    1c0c:	03fc0000 	mvnseq	r0, #0, 0
    1c10:	00010000 	andeq	r0, r1, r0
    1c14:	0004a854 	andeq	sl, r4, r4, asr r8
    1c18:	0004ac00 	andeq	sl, r4, r0, lsl #24
    1c1c:	54000100 	strpl	r0, [r0], #-256	; 0xffffff00
    1c20:	000004ac 	andeq	r0, r0, ip, lsr #9
    1c24:	000004b4 			; <UNDEFINED> instruction: 0x000004b4
    1c28:	01740003 	cmneq	r4, r3
    1c2c:	0004b49f 	muleq	r4, pc, r4	; <UNPREDICTABLE>
    1c30:	0004c000 	andeq	ip, r4, r0
    1c34:	54000100 	strpl	r0, [r0], #-256	; 0xffffff00
    1c38:	000004e4 	andeq	r0, r0, r4, ror #9
    1c3c:	000004f4 	strdeq	r0, [r0], -r4
    1c40:	f4540001 			; <UNDEFINED> instruction: 0xf4540001
    1c44:	f8000004 			; <UNDEFINED> instruction: 0xf8000004
    1c48:	03000004 	movweq	r0, #4
    1c4c:	9f017400 	svcls	0x00017400
    1c50:	000004f8 	strdeq	r0, [r0], -r8
    1c54:	00000504 	andeq	r0, r0, r4, lsl #10
    1c58:	20540001 	subscs	r0, r4, r1
    1c5c:	28000009 	stmdacs	r0, {r0, r3}
    1c60:	01000009 	tsteq	r0, r9
    1c64:	00005b00 	andeq	r5, r0, r0, lsl #22
    1c68:	00000000 	andeq	r0, r0, r0
    1c6c:	00010000 	andeq	r0, r1, r0
    1c70:	000003ac 	andeq	r0, r0, ip, lsr #7
    1c74:	000009b4 			; <UNDEFINED> instruction: 0x000009b4
    1c78:	00570001 	subseq	r0, r7, r1
    1c7c:	00000000 	andeq	r0, r0, r0
    1c80:	02000000 	andeq	r0, r0, #0, 0
    1c84:	00000000 	andeq	r0, r0, r0
    1c88:	00057c00 	andeq	r7, r5, r0, lsl #24
    1c8c:	0005d000 	andeq	sp, r5, r0
    1c90:	5b000100 	blpl	2098 <__code_start__-0x5f68>
    1c94:	00000800 	andeq	r0, r0, r0, lsl #16
    1c98:	00000888 	andeq	r0, r0, r8, lsl #17
    1c9c:	485b0001 	ldmdami	fp, {r0}^
    1ca0:	64000009 	strvs	r0, [r0], #-9
    1ca4:	01000009 	tsteq	r0, r9
    1ca8:	00005b00 	andeq	r5, r0, r0, lsl #22
    1cac:	00000000 	andeq	r0, r0, r0
    1cb0:	00030000 	andeq	r0, r3, r0
    1cb4:	00000000 	andeq	r0, r0, r0
    1cb8:	0000057c 	andeq	r0, r0, ip, ror r5
    1cbc:	000005d0 	ldrdeq	r0, [r0], -r0	; <UNPREDICTABLE>
    1cc0:	00590001 	subseq	r0, r9, r1
    1cc4:	88000008 	stmdahi	r0, {r3}
    1cc8:	01000008 	tsteq	r0, r8
    1ccc:	09485900 	stmdbeq	r8, {r8, fp, ip, lr}^
    1cd0:	09640000 	stmdbeq	r4!, {}^	; <UNPREDICTABLE>
    1cd4:	00010000 	andeq	r0, r1, r0
    1cd8:	00000059 	andeq	r0, r0, r9, asr r0
    1cdc:	00000000 	andeq	r0, r0, r0
    1ce0:	00000400 	andeq	r0, r0, r0, lsl #8
    1ce4:	00000000 	andeq	r0, r0, r0
    1ce8:	0003ac00 	andeq	sl, r3, r0, lsl #24
    1cec:	0003d000 	andeq	sp, r3, r0
    1cf0:	52000100 	andpl	r0, r0, #0
    1cf4:	000003d0 	ldrdeq	r0, [r0], -r0	; <UNPREDICTABLE>
    1cf8:	00000920 	andeq	r0, r0, r0, lsr #18
    1cfc:	01f30004 	mvnseq	r0, r4
    1d00:	09209f52 	stmdbeq	r0!, {r1, r4, r6, r8, r9, sl, fp, ip, pc}
    1d04:	09280000 	stmdbeq	r8!, {}	; <UNPREDICTABLE>
    1d08:	00010000 	andeq	r0, r1, r0
    1d0c:	00092852 	andeq	r2, r9, r2, asr r8
    1d10:	0009b400 	andeq	fp, r9, r0, lsl #8
    1d14:	f3000400 	vshl.u8	d0, d0, d0
    1d18:	009f5201 	addseq	r5, pc, r1, lsl #4
	...
    1d24:	00000101 	andeq	r0, r0, r1, lsl #2
    1d28:	01000000 	mrseq	r0, (UNDEF: 0)
    1d2c:	e0000000 	and	r0, r0, r0
    1d30:	e0000004 	and	r0, r0, r4
    1d34:	01000004 	tsteq	r0, r4
    1d38:	04e05000 	strbteq	r5, [r0], #0
    1d3c:	04e80000 	strbteq	r0, [r8], #0
    1d40:	00010000 	andeq	r0, r1, r0
    1d44:	0005b855 	andeq	fp, r5, r5, asr r8
    1d48:	0005d000 	andeq	sp, r5, r0
    1d4c:	55000100 	strpl	r0, [r0, #-256]	; 0xffffff00
    1d50:	000005f0 	strdeq	r0, [r0], -r0	; <UNPREDICTABLE>
    1d54:	000005f4 	strdeq	r0, [r0], -r4
    1d58:	f4500001 			; <UNDEFINED> instruction: 0xf4500001
    1d5c:	f8000007 			; <UNDEFINED> instruction: 0xf8000007
    1d60:	01000007 	tsteq	r0, r7
    1d64:	08505500 	ldmdaeq	r0, {r8, sl, ip, lr}^
    1d68:	08880000 	stmeq	r8, {}	; <UNPREDICTABLE>
    1d6c:	00010000 	andeq	r0, r1, r0
    1d70:	00000055 	andeq	r0, r0, r5, asr r0
    1d74:	00000000 	andeq	r0, r0, r0
    1d78:	00000200 	andeq	r0, r0, r0, lsl #4
    1d7c:	00000000 	andeq	r0, r0, r0
    1d80:	00041400 	andeq	r1, r4, r0, lsl #8
    1d84:	00041800 	andeq	r1, r4, r0, lsl #16
    1d88:	30000200 	andcc	r0, r0, r0, lsl #4
    1d8c:	0004189f 	muleq	r4, pc, r8	; <UNPREDICTABLE>
    1d90:	00041c00 	andeq	r1, r4, r0, lsl #24
    1d94:	55000100 	strpl	r0, [r0, #-256]	; 0xffffff00
    1d98:	00000428 	andeq	r0, r0, r8, lsr #8
    1d9c:	0000043c 	andeq	r0, r0, ip, lsr r4
    1da0:	28550001 	ldmdacs	r5, {r0}^
    1da4:	30000009 	andcc	r0, r0, r9
    1da8:	01000009 	tsteq	r0, r9
    1dac:	00005500 	andeq	r5, r0, r0, lsl #10
    1db0:	00000000 	andeq	r0, r0, r0
    1db4:	00010000 	andeq	r0, r1, r0
	...
    1dc0:	05040000 	streq	r0, [r4, #-0]
    1dc4:	05840000 	streq	r0, [r4]
    1dc8:	00010000 	andeq	r0, r1, r0
    1dcc:	00058456 	andeq	r8, r5, r6, asr r4
    1dd0:	00058800 	andeq	r8, r5, r0, lsl #16
    1dd4:	73000300 	movwvc	r0, #768	; 0x300
    1dd8:	05889f7e 	streq	r9, [r8, #3966]	; 0xf7e
    1ddc:	05d00000 	ldrbeq	r0, [r0]
    1de0:	00070000 	andeq	r0, r7, r0
    1de4:	067dcc91 			; <UNDEFINED> instruction: 0x067dcc91
    1de8:	009f1c32 	addseq	r1, pc, r2, lsr ip	; <UNPREDICTABLE>
    1dec:	1c000008 	stcne	0, cr0, [r0], {8}
    1df0:	01000008 	tsteq	r0, r8
    1df4:	081c5600 	ldmdaeq	ip, {r9, sl, ip, lr}
    1df8:	08880000 	stmeq	r8, {}	; <UNPREDICTABLE>
    1dfc:	00070000 	andeq	r0, r7, r0
    1e00:	067dcc91 			; <UNDEFINED> instruction: 0x067dcc91
    1e04:	489f1c32 	ldmmi	pc, {r1, r4, r5, sl, fp, ip}	; <UNPREDICTABLE>
    1e08:	b4000009 	strlt	r0, [r0], #-9
    1e0c:	01000009 	tsteq	r0, r9
    1e10:	00005600 	andeq	r5, r0, r0, lsl #12
    1e14:	00000000 	andeq	r0, r0, r0
    1e18:	06040000 	streq	r0, [r4], -r0
    1e1c:	04140402 	ldreq	r0, [r4], #-1026	; 0xfffffbfe
    1e20:	04140000 	ldreq	r0, [r4], #-0
    1e24:	00060000 	andeq	r0, r6, r0
    1e28:	ff080072 			; <UNDEFINED> instruction: 0xff080072
    1e2c:	04289f1a 	strteq	r9, [r8], #-3866	; 0xfffff0e6
    1e30:	04280000 	strteq	r0, [r8], #-0
    1e34:	00060000 	andeq	r0, r6, r0
    1e38:	ff080072 			; <UNDEFINED> instruction: 0xff080072
    1e3c:	00009f1a 	andeq	r9, r0, sl, lsl pc
    1e40:	00000000 	andeq	r0, r0, r0
    1e44:	00020000 	andeq	r0, r2, r0
    1e48:	00000000 	andeq	r0, r0, r0
    1e4c:	000005fc 	strdeq	r0, [r0], -ip
    1e50:	00000700 	andeq	r0, r0, r0, lsl #14
    1e54:	80080003 	andhi	r0, r8, r3
    1e58:	0008a89f 	muleq	r8, pc, r8	; <UNPREDICTABLE>
    1e5c:	0008bc00 	andeq	fp, r8, r0, lsl #24
    1e60:	08000300 	stmdaeq	r0, {r8, r9}
    1e64:	09109f80 	ldmdbeq	r0, {r7, r8, r9, sl, fp, ip, pc}
    1e68:	09200000 	stmdbeq	r0!, {}	; <UNPREDICTABLE>
    1e6c:	00030000 	andeq	r0, r3, r0
    1e70:	009f8008 	addseq	r8, pc, r8
    1e74:	00000000 	andeq	r0, r0, r0
    1e78:	01000000 	mrseq	r0, (UNDEF: 0)
    1e7c:	00000000 	andeq	r0, r0, r0
    1e80:	0005fc00 	andeq	pc, r5, r0, lsl #24
    1e84:	00070000 	andeq	r0, r7, r0
    1e88:	30000200 	andcc	r0, r0, r0, lsl #4
    1e8c:	0008a89f 	muleq	r8, pc, r8	; <UNPREDICTABLE>
    1e90:	0008bc00 	andeq	fp, r8, r0, lsl #24
    1e94:	30000200 	andcc	r0, r0, r0, lsl #4
    1e98:	0009109f 	muleq	r9, pc, r0	; <UNPREDICTABLE>
    1e9c:	00092000 	andeq	r2, r9, r0
    1ea0:	30000200 	andcc	r0, r0, r0, lsl #4
    1ea4:	0000009f 	muleq	r0, pc, r0	; <UNPREDICTABLE>
    1ea8:	00000000 	andeq	r0, r0, r0
    1eac:	00000100 	andeq	r0, r0, r0, lsl #2
    1eb0:	fc000000 	stc2	0, cr0, [r0], {-0}
    1eb4:	e0000005 	and	r0, r0, r5
    1eb8:	01000006 	tsteq	r0, r6
    1ebc:	08a85500 	stmiaeq	r8!, {r8, sl, ip, lr}
    1ec0:	08bc0000 	ldmeq	ip!, {}	; <UNPREDICTABLE>
    1ec4:	00010000 	andeq	r0, r1, r0
    1ec8:	00091055 	andeq	r1, r9, r5, asr r0
    1ecc:	00092000 	andeq	r2, r9, r0
    1ed0:	55000100 	strpl	r0, [r0, #-256]	; 0xffffff00
	...
    1edc:	00000001 	andeq	r0, r0, r1
    1ee0:	00000000 	andeq	r0, r0, r0
    1ee4:	000005fc 	strdeq	r0, [r0], -ip
    1ee8:	000006e0 	andeq	r0, r0, r0, ror #13
    1eec:	d0910004 	addsle	r0, r1, r4
    1ef0:	06e09f7d 			; <UNDEFINED> instruction: 0x06e09f7d
    1ef4:	07000000 	streq	r0, [r0, -r0]
    1ef8:	00010000 	andeq	r0, r1, r0
    1efc:	0008a855 	andeq	sl, r8, r5, asr r8
    1f00:	0008bc00 	andeq	fp, r8, r0, lsl #24
    1f04:	91000400 	tstls	r0, r0, lsl #8
    1f08:	109f7dd0 			; <UNDEFINED> instruction: 0x109f7dd0
    1f0c:	20000009 	andcs	r0, r0, r9
    1f10:	04000009 	streq	r0, [r0], #-9
    1f14:	7dd09100 	ldfvcp	f1, [r0]
    1f18:	0000009f 	muleq	r0, pc, r0	; <UNPREDICTABLE>
    1f1c:	00000000 	andeq	r0, r0, r0
    1f20:	00000100 	andeq	r0, r0, r0, lsl #2
    1f24:	fc000000 	stc2	0, cr0, [r0], {-0}
    1f28:	00000005 	andeq	r0, r0, r5
    1f2c:	02000007 	andeq	r0, r0, #7, 0
    1f30:	a89f3800 	ldmge	pc, {fp, ip, sp}	; <UNPREDICTABLE>
    1f34:	bc000008 	stclt	0, cr0, [r0], {8}
    1f38:	02000008 	andeq	r0, r0, #8, 0
    1f3c:	109f3800 	addsne	r3, pc, r0, lsl #16
    1f40:	20000009 	andcs	r0, r0, r9
    1f44:	02000009 	andeq	r0, r0, #9, 0
    1f48:	009f3800 	addseq	r3, pc, r0, lsl #16
    1f4c:	00000000 	andeq	r0, r0, r0
    1f50:	04000000 	streq	r0, [r0], #-0
    1f54:	00000707 	andeq	r0, r0, r7, lsl #14
	...
    1f60:	0005fc00 	andeq	pc, r5, r0, lsl #24
    1f64:	0005fc00 	andeq	pc, r5, r0, lsl #24
    1f68:	91000400 	tstls	r0, r0, lsl #8
    1f6c:	fc9f7ed0 	ldc2	14, cr7, [pc], {208}	; 0xd0
    1f70:	78000005 	stmdavc	r0, {r0, r2}
    1f74:	04000006 	streq	r0, [r0], #-6
    1f78:	7ed19100 	atnvcs	f1, f0
    1f7c:	0006789f 	muleq	r6, pc, r8	; <UNPREDICTABLE>
    1f80:	0006d400 	andeq	sp, r6, r0, lsl #8
    1f84:	5c000100 	stfpls	f0, [r0], {-0}
    1f88:	000006d4 	ldrdeq	r0, [r0], -r4
    1f8c:	00000700 	andeq	r0, r0, r0, lsl #14
    1f90:	d1910004 	orrsle	r0, r1, r4
    1f94:	08a89f7e 	stmiaeq	r8!, {r1, r2, r3, r4, r5, r6, r8, r9, sl, fp, ip, pc}
    1f98:	08bc0000 	ldmeq	ip!, {}	; <UNPREDICTABLE>
    1f9c:	00040000 	andeq	r0, r4, r0
    1fa0:	9f7ed191 	svcls	0x007ed191
    1fa4:	00000910 	andeq	r0, r0, r0, lsl r9
    1fa8:	00000914 	andeq	r0, r0, r4, lsl r9
    1fac:	d1910004 	orrsle	r0, r1, r4
    1fb0:	09149f7e 	ldmdbeq	r4, {r1, r2, r3, r4, r5, r6, r8, r9, sl, fp, ip, pc}
    1fb4:	09200000 	stmdbeq	r0!, {}	; <UNPREDICTABLE>
    1fb8:	00010000 	andeq	r0, r1, r0
    1fbc:	0000005c 	andeq	r0, r0, ip, asr r0
    1fc0:	00000000 	andeq	r0, r0, r0
    1fc4:	00010400 	andeq	r0, r1, r0, lsl #8
    1fc8:	08000001 	stmdaeq	r0, {r0}
    1fcc:	d0000006 	andle	r0, r0, r6
    1fd0:	01000006 	tsteq	r0, r6
    1fd4:	08a85500 	stmiaeq	r8!, {r8, sl, ip, lr}
    1fd8:	08b80000 	ldmeq	r8!, {}	; <UNPREDICTABLE>
    1fdc:	00010000 	andeq	r0, r1, r0
    1fe0:	00091055 	andeq	r1, r9, r5, asr r0
    1fe4:	00092000 	andeq	r2, r9, r0
    1fe8:	55000100 	strpl	r0, [r0, #-256]	; 0xffffff00
	...
    1ff4:	00000004 	andeq	r0, r0, r4
    1ff8:	00000100 	andeq	r0, r0, r0, lsl #2
    1ffc:	00000100 	andeq	r0, r0, r0, lsl #2
    2000:	00000608 	andeq	r0, r0, r8, lsl #12
    2004:	000006b0 			; <UNDEFINED> instruction: 0x000006b0
    2008:	d0910004 	addsle	r0, r1, r4
    200c:	06b09f7e 			; <UNDEFINED> instruction: 0x06b09f7e
    2010:	06c80000 	strbeq	r0, [r8], r0
    2014:	00010000 	andeq	r0, r1, r0
    2018:	0006c850 	andeq	ip, r6, r0, asr r8
    201c:	0006d000 	andeq	sp, r6, r0
    2020:	91000400 	tstls	r0, r0, lsl #8
    2024:	a89f7ed0 	ldmge	pc, {r4, r6, r7, r9, sl, fp, ip, sp, lr}	; <UNPREDICTABLE>
    2028:	b0000008 	andlt	r0, r0, r8
    202c:	04000008 	streq	r0, [r0], #-8
    2030:	7ed09100 	atnvcs	f1, f0
    2034:	0008b09f 	muleq	r8, pc, r0	; <UNPREDICTABLE>
    2038:	0008b800 	andeq	fp, r8, r0, lsl #16
    203c:	53000100 	movwpl	r0, #256	; 0x100
    2040:	00000910 	andeq	r0, r0, r0, lsl r9
    2044:	00000920 	andeq	r0, r0, r0, lsr #18
    2048:	d0910004 	addsle	r0, r1, r4
    204c:	00009f7e 	andeq	r9, r0, lr, ror pc
    2050:	00000000 	andeq	r0, r0, r0
    2054:	00040000 	andeq	r0, r4, r0
    2058:	01010100 	mrseq	r0, (UNDEF: 17)
    205c:	02030301 	andeq	r0, r3, #67108864	; 0x4000000
    2060:	00000100 	andeq	r0, r0, r0, lsl #2
    2064:	06080000 	streq	r0, [r8], -r0
    2068:	06240000 	strteq	r0, [r4], -r0
    206c:	00040000 	andeq	r0, r4, r0
    2070:	9f7ed191 	svcls	0x007ed191
    2074:	00000684 	andeq	r0, r0, r4, lsl #13
    2078:	00000684 	andeq	r0, r0, r4, lsl #13
    207c:	84500001 	ldrbhi	r0, [r0], #-1
    2080:	98000006 	stmdals	r0, {r1, r2}
    2084:	03000006 	movweq	r0, #6
    2088:	9f017000 	svcls	0x00017000
    208c:	00000698 	muleq	r0, r8, r6
    2090:	000006a4 	andeq	r0, r0, r4, lsr #13
    2094:	02700003 	rsbseq	r0, r0, #3, 0
    2098:	0006a49f 	muleq	r6, pc, r4	; <UNPREDICTABLE>
    209c:	0006a800 	andeq	sl, r6, r0, lsl #16
    20a0:	70000300 	andvc	r0, r0, r0, lsl #6
    20a4:	08a89f03 	stmiaeq	r8!, {r0, r1, r8, r9, sl, fp, ip, pc}
    20a8:	08b80000 	ldmeq	r8!, {}	; <UNPREDICTABLE>
    20ac:	00040000 	andeq	r0, r4, r0
    20b0:	9f7ed191 	svcls	0x007ed191
    20b4:	00000910 	andeq	r0, r0, r0, lsl r9
    20b8:	00000914 	andeq	r0, r0, r4, lsl r9
    20bc:	d1910004 	orrsle	r0, r1, r4
    20c0:	09149f7e 	ldmdbeq	r4, {r1, r2, r3, r4, r5, r6, r8, r9, sl, fp, ip, pc}
    20c4:	09200000 	stmdbeq	r0!, {}	; <UNPREDICTABLE>
    20c8:	00010000 	andeq	r0, r1, r0
    20cc:	0000005c 	andeq	r0, r0, ip, asr r0
    20d0:	00000000 	andeq	r0, r0, r0
    20d4:	00000600 	andeq	r0, r0, r0, lsl #12
    20d8:	01010101 	tsteq	r1, r1, lsl #2
    20dc:	00020101 	andeq	r0, r2, r1, lsl #2
    20e0:	08000001 	stmdaeq	r0, {r0}
    20e4:	24000006 	strcs	r0, [r0], #-6
    20e8:	02000006 	andeq	r0, r0, #6, 0
    20ec:	849f3100 	ldrhi	r3, [pc], #256	; 20f4 <__code_start__-0x5f0c>
    20f0:	94000006 	strls	r0, [r0], #-6
    20f4:	01000006 	tsteq	r0, r6
    20f8:	06945200 	ldreq	r5, [r4], r0, lsl #4
    20fc:	06a40000 	strteq	r0, [r4], r0
    2100:	00010000 	andeq	r0, r1, r0
    2104:	0006a459 	andeq	sl, r6, r9, asr r4
    2108:	0006a800 	andeq	sl, r6, r0, lsl #16
    210c:	52000100 	andpl	r0, r0, #0
    2110:	000006a8 	andeq	r0, r0, r8, lsr #13
    2114:	000006a8 	andeq	r0, r0, r8, lsr #13
    2118:	01720003 	cmneq	r2, r3
    211c:	0008a89f 	muleq	r8, pc, r8	; <UNPREDICTABLE>
    2120:	0008b800 	andeq	fp, r8, r0, lsl #16
    2124:	31000200 	mrscc	r0, R8_usr
    2128:	0009109f 	muleq	r9, pc, r0	; <UNPREDICTABLE>
    212c:	00092000 	andeq	r2, r9, r0
    2130:	31000200 	mrscc	r0, R8_usr
    2134:	0000009f 	muleq	r0, pc, r0	; <UNPREDICTABLE>
    2138:	00000000 	andeq	r0, r0, r0
    213c:	06060100 	streq	r0, [r6], -r0, lsl #2
    2140:	d0000100 	andle	r0, r0, r0, lsl #2
    2144:	d0000006 	andle	r0, r0, r6
    2148:	04000006 	streq	r0, [r0], #-6
    214c:	7ed09100 	atnvcs	f1, f0
    2150:	0006d09f 	muleq	r6, pc, r0	; <UNPREDICTABLE>
    2154:	00070000 	andeq	r0, r7, r0
    2158:	50000100 	andpl	r0, r0, r0, lsl #2
    215c:	000008b8 			; <UNDEFINED> instruction: 0x000008b8
    2160:	000008bc 			; <UNDEFINED> instruction: 0x000008bc
    2164:	00530001 	subseq	r0, r3, r1
    2168:	00000000 	andeq	r0, r0, r0
    216c:	01000000 	mrseq	r0, (UNDEF: 0)
    2170:	00000008 	andeq	r0, r0, r8
    2174:	01000101 	tsteq	r0, r1, lsl #2
    2178:	0006d007 	andeq	sp, r6, r7
    217c:	0006d000 	andeq	sp, r6, r0
    2180:	7c000600 	stcvc	6, cr0, [r0], {-0}
    2184:	22007100 	andcs	r7, r0, #0
    2188:	0006e49f 	muleq	r6, pc, r4	; <UNPREDICTABLE>
    218c:	0006e800 	andeq	lr, r6, r0, lsl #16
    2190:	73000300 	movwvc	r0, #768	; 0x300
    2194:	06e89f7f 			; <UNDEFINED> instruction: 0x06e89f7f
    2198:	06f00000 	ldrbteq	r0, [r0], r0
    219c:	00010000 	andeq	r0, r1, r0
    21a0:	0006f053 	andeq	pc, r6, r3, asr r0	; <UNPREDICTABLE>
    21a4:	0006f800 	andeq	pc, r6, r0, lsl #16
    21a8:	73000300 	movwvc	r0, #768	; 0x300
    21ac:	08b89f7f 	ldmeq	r8!, {r0, r1, r2, r3, r4, r5, r6, r8, r9, sl, fp, ip, pc}
    21b0:	08b80000 	ldmeq	r8!, {}	; <UNPREDICTABLE>
    21b4:	00040000 	andeq	r0, r4, r0
    21b8:	9f7ed191 	svcls	0x007ed191
	...
    21c4:	00010001 	andeq	r0, r1, r1
    21c8:	000006d0 	ldrdeq	r0, [r0], -r0	; <UNPREDICTABLE>
    21cc:	00000700 	andeq	r0, r0, r0, lsl #14
    21d0:	80080003 	andhi	r0, r8, r3
    21d4:	0008b89f 	muleq	r8, pc, r8	; <UNPREDICTABLE>
    21d8:	0008bc00 	andeq	fp, r8, r0, lsl #24
    21dc:	08000300 	stmdaeq	r0, {r8, r9}
    21e0:	00009f80 	andeq	r9, r0, r0, lsl #31
    21e4:	00000000 	andeq	r0, r0, r0
    21e8:	00010000 	andeq	r0, r1, r0
    21ec:	01000000 	mrseq	r0, (UNDEF: 0)
    21f0:	00000001 	andeq	r0, r0, r1
    21f4:	00010102 	andeq	r0, r1, r2, lsl #2
    21f8:	000006d0 	ldrdeq	r0, [r0], -r0	; <UNPREDICTABLE>
    21fc:	000006e0 	andeq	r0, r0, r0, ror #13
    2200:	d0910004 	addsle	r0, r1, r4
    2204:	06e09f7d 			; <UNDEFINED> instruction: 0x06e09f7d
    2208:	06e40000 	strbteq	r0, [r4], r0
    220c:	00010000 	andeq	r0, r1, r0
    2210:	0006e455 	andeq	lr, r6, r5, asr r4
    2214:	0006e400 	andeq	lr, r6, r0, lsl #8
    2218:	72000300 	andvc	r0, r0, #0, 6
    221c:	06e49f01 	strbteq	r9, [r4], r1, lsl #30
    2220:	06f00000 	ldrbteq	r0, [r0], r0
    2224:	00030000 	andeq	r0, r3, r0
    2228:	f09f0272 			; <UNDEFINED> instruction: 0xf09f0272
    222c:	00000006 	andeq	r0, r0, r6
    2230:	03000007 	movweq	r0, #7
    2234:	9f017200 	svcls	0x00017200
    2238:	000007ec 	andeq	r0, r0, ip, ror #15
    223c:	000007f4 	strdeq	r0, [r0], -r4
    2240:	01730003 	cmneq	r3, r3
    2244:	0008b89f 	muleq	r8, pc, r8	; <UNPREDICTABLE>
    2248:	0008bc00 	andeq	fp, r8, r0, lsl #24
    224c:	91000400 	tstls	r0, r0, lsl #8
    2250:	009f7dd0 			; <UNDEFINED> instruction: 0x009f7dd0
    2254:	00000000 	andeq	r0, r0, r0
    2258:	04000000 	streq	r0, [r0], #-0
    225c:	0008b800 	andeq	fp, r8, r0, lsl #16
    2260:	0008bc00 	andeq	fp, r8, r0, lsl #24
    2264:	32000200 	andcc	r0, r0, #0, 4
    2268:	0000009f 	muleq	r0, pc, r0	; <UNPREDICTABLE>
    226c:	00000000 	andeq	r0, r0, r0
    2270:	00000700 	andeq	r0, r0, r0, lsl #14
    2274:	d0000600 	andle	r0, r0, r0, lsl #12
    2278:	e0000006 	and	r0, r0, r6
    227c:	04000006 	streq	r0, [r0], #-6
    2280:	7dd09100 	ldfvcp	f1, [r0]
    2284:	0006e09f 	muleq	r6, pc, r0	; <UNPREDICTABLE>
    2288:	00070000 	andeq	r0, r7, r0
    228c:	55000100 	strpl	r0, [r0, #-256]	; 0xffffff00
    2290:	000008b8 			; <UNDEFINED> instruction: 0x000008b8
    2294:	000008bc 			; <UNDEFINED> instruction: 0x000008bc
    2298:	d0910004 	addsle	r0, r1, r4
    229c:	00009f7d 	andeq	r9, r0, sp, ror pc
    22a0:	00000000 	andeq	r0, r0, r0
    22a4:	00010000 	andeq	r0, r1, r0
    22a8:	070c0000 	streq	r0, [ip, -r0]
    22ac:	07ec0000 	strbeq	r0, [ip, r0]!
    22b0:	00030000 	andeq	r0, r3, r0
    22b4:	949f8008 	ldrls	r8, [pc], #8	; 22bc <__code_start__-0x5d44>
    22b8:	a8000008 	stmdage	r0, {r3}
    22bc:	03000008 	movweq	r0, #8
    22c0:	9f800800 	svcls	0x00800800
	...
    22d0:	0000070c 	andeq	r0, r0, ip, lsl #14
    22d4:	000007ec 	andeq	r0, r0, ip, ror #15
    22d8:	9f300002 	svcls	0x00300002
    22dc:	00000894 	muleq	r0, r4, r8
    22e0:	000008a8 	andeq	r0, r0, r8, lsr #17
    22e4:	9f300002 	svcls	0x00300002
	...
    22f4:	0000070c 	andeq	r0, r0, ip, lsl #14
    22f8:	000007d0 	ldrdeq	r0, [r0], -r0	; <UNPREDICTABLE>
    22fc:	94550001 	ldrbls	r0, [r5], #-1
    2300:	a8000008 	stmdage	r0, {r3}
    2304:	01000008 	tsteq	r0, r8
    2308:	00005500 	andeq	r5, r0, r0, lsl #10
	...
    2318:	0000070c 	andeq	r0, r0, ip, lsl #14
    231c:	000007d0 	ldrdeq	r0, [r0], -r0	; <UNPREDICTABLE>
    2320:	d0910004 	addsle	r0, r1, r4
    2324:	07d09f7d 			; <UNDEFINED> instruction: 0x07d09f7d
    2328:	07ec0000 	strbeq	r0, [ip, r0]!
    232c:	00010000 	andeq	r0, r1, r0
    2330:	00089455 	andeq	r9, r8, r5, asr r4
    2334:	0008a800 	andeq	sl, r8, r0, lsl #16
    2338:	91000400 	tstls	r0, r0, lsl #8
    233c:	009f7dd0 			; <UNDEFINED> instruction: 0x009f7dd0
	...
    2348:	0c000000 	stceq	0, cr0, [r0], {-0}
    234c:	ec000007 	stc	0, cr0, [r0], {7}
    2350:	02000007 	andeq	r0, r0, #7, 0
    2354:	949f3200 	ldrls	r3, [pc], #512	; 235c <__code_start__-0x5ca4>
    2358:	a8000008 	stmdage	r0, {r3}
    235c:	02000008 	andeq	r0, r0, #8, 0
    2360:	009f3200 	addseq	r3, pc, r0, lsl #4
    2364:	00000000 	andeq	r0, r0, r0
    2368:	03000000 	movweq	r0, #0
    236c:	00000505 	andeq	r0, r0, r5, lsl #10
    2370:	00000000 	andeq	r0, r0, r0
    2374:	00070c00 	andeq	r0, r7, r0, lsl #24
    2378:	00070c00 	andeq	r0, r7, r0, lsl #24
    237c:	51000100 	mrspl	r0, (UNDEF: 16)
    2380:	0000070c 	andeq	r0, r0, ip, lsl #14
    2384:	0000071c 	andeq	r0, r0, ip, lsl r7
    2388:	1c530001 	mrrcne	0, 0, r0, r3, cr1
    238c:	24000007 	strcs	r0, [r0], #-7
    2390:	03000007 	movweq	r0, #7
    2394:	9f017200 	svcls	0x00017200
    2398:	00000724 	andeq	r0, r0, r4, lsr #14
    239c:	000007cc 	andeq	r0, r0, ip, asr #15
    23a0:	94530001 	ldrbls	r0, [r3], #-1
    23a4:	a8000008 	stmdage	r0, {r3}
    23a8:	01000008 	tsteq	r0, r8
    23ac:	00005300 	andeq	r5, r0, r0, lsl #6
    23b0:	00000000 	andeq	r0, r0, r0
    23b4:	00050000 	andeq	r0, r5, r0
    23b8:	070c0001 	streq	r0, [ip, -r1]
    23bc:	07200000 	streq	r0, [r0, -r0]!
    23c0:	00010000 	andeq	r0, r1, r0
    23c4:	00072450 	andeq	r2, r7, r0, asr r4
    23c8:	00072c00 	andeq	r2, r7, r0, lsl #24
    23cc:	50000100 	andpl	r0, r0, r0, lsl #2
	...
    23d8:	01000103 	tsteq	r0, r3, lsl #2
    23dc:	00000728 	andeq	r0, r0, r8, lsr #14
    23e0:	000007b0 			; <UNDEFINED> instruction: 0x000007b0
    23e4:	94550001 	ldrbls	r0, [r5], #-1
    23e8:	a0000008 	andge	r0, r0, r8
    23ec:	01000008 	tsteq	r0, r8
    23f0:	00005500 	andeq	r5, r0, r0, lsl #10
    23f4:	00000000 	andeq	r0, r0, r0
    23f8:	01030000 	mrseq	r0, (UNDEF: 3)
    23fc:	07280100 	streq	r0, [r8, -r0, lsl #2]!
    2400:	07b00000 	ldreq	r0, [r0, r0]!
    2404:	00010000 	andeq	r0, r1, r0
    2408:	00089451 	andeq	r9, r8, r1, asr r4
    240c:	0008a000 	andeq	sl, r8, r0
    2410:	51000100 	mrspl	r0, (UNDEF: 16)
	...
    241c:	01000003 	tsteq	r0, r3
    2420:	03010101 	movweq	r0, #4353	; 0x1101
    2424:	01000203 	tsteq	r0, r3, lsl #4
    2428:	00000728 	andeq	r0, r0, r8, lsr #14
    242c:	00000750 	andeq	r0, r0, r0, asr r7
    2430:	74530001 	ldrbvc	r0, [r3], #-1
    2434:	74000007 	strvc	r0, [r0], #-7
    2438:	01000007 	tsteq	r0, r7
    243c:	07745e00 	ldrbeq	r5, [r4, -r0, lsl #28]!
    2440:	07880000 	streq	r0, [r8, r0]
    2444:	00030000 	andeq	r0, r3, r0
    2448:	889f017e 	ldmhi	pc, {r1, r2, r3, r4, r5, r6, r8}	; <UNPREDICTABLE>
    244c:	94000007 	strls	r0, [r0], #-7
    2450:	03000007 	movweq	r0, #7
    2454:	9f027e00 	svcls	0x00027e00
    2458:	00000794 	muleq	r0, r4, r7
    245c:	00000798 	muleq	r0, r8, r7
    2460:	037e0003 	cmneq	lr, #3, 0
    2464:	0008949f 	muleq	r8, pc, r4	; <UNPREDICTABLE>
    2468:	0008a000 	andeq	sl, r8, r0
    246c:	53000100 	movwpl	r0, #256	; 0x100
	...
    2478:	01000000 	mrseq	r0, (UNDEF: 0)
    247c:	01010101 	tsteq	r1, r1, lsl #2
    2480:	01000201 	tsteq	r0, r1, lsl #4
    2484:	0000072c 	andeq	r0, r0, ip, lsr #14
    2488:	00000750 	andeq	r0, r0, r0, asr r7
    248c:	74500001 	ldrbvc	r0, [r0], #-1
    2490:	84000007 	strhi	r0, [r0], #-7
    2494:	01000007 	tsteq	r0, r7
    2498:	07845000 	streq	r5, [r4, r0]
    249c:	07940000 	ldreq	r0, [r4, r0]
    24a0:	00010000 	andeq	r0, r1, r0
    24a4:	0007945b 	andeq	r9, r7, fp, asr r4
    24a8:	00079800 	andeq	r9, r7, r0, lsl #16
    24ac:	50000100 	andpl	r0, r0, r0, lsl #2
    24b0:	00000798 	muleq	r0, r8, r7
    24b4:	00000798 	muleq	r0, r8, r7
    24b8:	01700003 	cmneq	r0, r3
    24bc:	0008949f 	muleq	r8, pc, r4	; <UNPREDICTABLE>
    24c0:	0008a000 	andeq	sl, r8, r0
    24c4:	50000100 	andpl	r0, r0, r0, lsl #2
	...
    24d0:	00010001 	andeq	r0, r1, r1
    24d4:	000007b0 			; <UNDEFINED> instruction: 0x000007b0
    24d8:	000007ec 	andeq	r0, r0, ip, ror #15
    24dc:	a0510001 	subsge	r0, r1, r1
    24e0:	a8000008 	stmdage	r0, {r3}
    24e4:	01000008 	tsteq	r0, r8
    24e8:	00005100 	andeq	r5, r0, r0, lsl #2
    24ec:	00000000 	andeq	r0, r0, r0
    24f0:	00010000 	andeq	r0, r1, r0
    24f4:	01000000 	mrseq	r0, (UNDEF: 0)
    24f8:	00010001 	andeq	r0, r1, r1
    24fc:	000007b0 			; <UNDEFINED> instruction: 0x000007b0
    2500:	000007b4 			; <UNDEFINED> instruction: 0x000007b4
    2504:	00730006 	rsbseq	r0, r3, r6
    2508:	9f22007c 	svcls	0x0022007c
    250c:	000007d4 	ldrdeq	r0, [r0], -r4
    2510:	000007d8 	ldrdeq	r0, [r0], -r8
    2514:	7f730003 	svcvc	0x00730003
    2518:	0007d89f 	muleq	r7, pc, r8	; <UNPREDICTABLE>
    251c:	0007e000 	andeq	lr, r7, r0
    2520:	53000100 	movwpl	r0, #256	; 0x100
    2524:	000007e0 	andeq	r0, r0, r0, ror #15
    2528:	000007e8 	andeq	r0, r0, r8, ror #15
    252c:	7f730003 	svcvc	0x00730003
    2530:	0008a09f 	muleq	r8, pc, r0	; <UNPREDICTABLE>
    2534:	0008a800 	andeq	sl, r8, r0, lsl #16
    2538:	53000100 	movwpl	r0, #256	; 0x100
	...
    2544:	00010001 	andeq	r0, r1, r1
    2548:	000007b0 			; <UNDEFINED> instruction: 0x000007b0
    254c:	000007ec 	andeq	r0, r0, ip, ror #15
    2550:	80080003 	andhi	r0, r8, r3
    2554:	0008a09f 	muleq	r8, pc, r0	; <UNPREDICTABLE>
    2558:	0008a800 	andeq	sl, r8, r0, lsl #16
    255c:	08000300 	stmdaeq	r0, {r8, r9}
    2560:	00009f80 	andeq	r9, r0, r0, lsl #31
    2564:	00000000 	andeq	r0, r0, r0
    2568:	00010000 	andeq	r0, r1, r0
    256c:	01000000 	mrseq	r0, (UNDEF: 0)
    2570:	00000001 	andeq	r0, r0, r1
    2574:	07b00001 	ldreq	r0, [r0, r1]!
    2578:	07d00000 	ldrbeq	r0, [r0, r0]
    257c:	00040000 	andeq	r0, r4, r0
    2580:	9f7dd091 	svcls	0x007dd091
    2584:	000007d0 	ldrdeq	r0, [r0], -r0	; <UNPREDICTABLE>
    2588:	000007d4 	ldrdeq	r0, [r0], -r4
    258c:	d4550001 	ldrble	r0, [r5], #-1
    2590:	d4000007 	strle	r0, [r0], #-7
    2594:	03000007 	movweq	r0, #7
    2598:	9f017c00 	svcls	0x00017c00
    259c:	000007d4 	ldrdeq	r0, [r0], -r4
    25a0:	000007e0 	andeq	r0, r0, r0, ror #15
    25a4:	027c0003 	rsbseq	r0, ip, #3, 0
    25a8:	0007e09f 	muleq	r7, pc, r0	; <UNPREDICTABLE>
    25ac:	0007ec00 	andeq	lr, r7, r0, lsl #24
    25b0:	7c000300 	stcvc	3, cr0, [r0], {-0}
    25b4:	08a09f01 	stmiaeq	r0!, {r0, r8, r9, sl, fp, ip, pc}
    25b8:	08a80000 	stmiaeq	r8!, {}	; <UNPREDICTABLE>
    25bc:	00040000 	andeq	r0, r4, r0
    25c0:	9f7dd091 	svcls	0x007dd091
	...
    25cc:	00040004 	andeq	r0, r4, r4
    25d0:	000007b0 			; <UNDEFINED> instruction: 0x000007b0
    25d4:	000007b4 			; <UNDEFINED> instruction: 0x000007b4
    25d8:	01700003 	cmneq	r0, r3
    25dc:	0008a09f 	muleq	r8, pc, r0	; <UNPREDICTABLE>
    25e0:	0008a800 	andeq	sl, r8, r0, lsl #16
    25e4:	70000300 	andvc	r0, r0, r0, lsl #6
    25e8:	00009f01 	andeq	r9, r0, r1, lsl #30
    25ec:	00000000 	andeq	r0, r0, r0
    25f0:	00010000 	andeq	r0, r1, r0
    25f4:	07bc0000 	ldreq	r0, [ip, r0]!
    25f8:	07d00000 	ldrbeq	r0, [r0, r0]
    25fc:	00040000 	andeq	r0, r4, r0
    2600:	9f7dd091 	svcls	0x007dd091
    2604:	000007d0 	ldrdeq	r0, [r0], -r0	; <UNPREDICTABLE>
    2608:	000007ec 	andeq	r0, r0, ip, ror #15
    260c:	00550001 	subseq	r0, r5, r1
	...
    2618:	28000000 	stmdacs	r0, {}	; <UNPREDICTABLE>
    261c:	64000003 	strvs	r0, [r0], #-3
    2620:	01000003 	tsteq	r0, r3
    2624:	03645000 	cmneq	r4, #0, 0
    2628:	03880000 	orreq	r0, r8, #0, 0
    262c:	00040000 	andeq	r0, r4, r0
    2630:	9f5001f3 	svcls	0x005001f3
	...
    2640:	00000328 	andeq	r0, r0, r8, lsr #6
    2644:	0000035c 	andeq	r0, r0, ip, asr r3
    2648:	5c510001 	mrrcpl	0, 0, r0, r1, cr1
    264c:	88000003 	stmdahi	r0, {r0, r1}
    2650:	04000003 	streq	r0, [r0], #-3
    2654:	5101f300 	mrspl	pc, SP_irq	; <UNPREDICTABLE>
    2658:	0000009f 	muleq	r0, pc, r0	; <UNPREDICTABLE>
	...
    267c:	00001400 	andeq	r1, r0, r0, lsl #8
    2680:	50000100 	andpl	r0, r0, r0, lsl #2
    2684:	00000014 	andeq	r0, r0, r4, lsl r0
    2688:	00000020 	andeq	r0, r0, r0, lsr #32
    268c:	205c0001 	subscs	r0, ip, r1
    2690:	68000000 	stmdavs	r0, {}	; <UNPREDICTABLE>
    2694:	03000000 	movweq	r0, #0
    2698:	9f027100 	svcls	0x00027100
    269c:	00000068 	andeq	r0, r0, r8, rrx
    26a0:	0000006c 	andeq	r0, r0, ip, rrx
    26a4:	02730003 	rsbseq	r0, r3, #3, 0
    26a8:	00006c9f 	muleq	r0, pc, ip	; <UNPREDICTABLE>
    26ac:	00019400 	andeq	r9, r1, r0, lsl #8
    26b0:	f3000400 	vshl.u8	d0, d0, d0
    26b4:	949f5001 	ldrls	r5, [pc], #1	; 26bc <__code_start__-0x5944>
    26b8:	98000001 	stmdals	r0, {r0}
    26bc:	03000001 	movweq	r0, #1
    26c0:	9f027300 	svcls	0x00027300
    26c4:	00000198 	muleq	r0, r8, r1
    26c8:	000001c0 	andeq	r0, r0, r0, asr #3
    26cc:	01f30004 	mvnseq	r0, r4
    26d0:	01c09f50 	biceq	r9, r0, r0, asr pc
    26d4:	01c80000 	biceq	r0, r8, r0
    26d8:	00010000 	andeq	r0, r1, r0
    26dc:	0001c85c 	andeq	ip, r1, ip, asr r8
    26e0:	00021400 	andeq	r1, r2, r0, lsl #8
    26e4:	73000300 	movwvc	r0, #768	; 0x300
    26e8:	02149f02 	andseq	r9, r4, #2, 30
    26ec:	02ec0000 	rsceq	r0, ip, #0, 0
    26f0:	00040000 	andeq	r0, r4, r0
    26f4:	9f5001f3 	svcls	0x005001f3
    26f8:	000002ec 	andeq	r0, r0, ip, ror #5
    26fc:	000002f4 	strdeq	r0, [r0], -r4
    2700:	02730003 	rsbseq	r0, r3, #3, 0
    2704:	0002f49f 	muleq	r2, pc, r4	; <UNPREDICTABLE>
    2708:	00032800 	andeq	r2, r3, r0, lsl #16
    270c:	f3000400 	vshl.u8	d0, d0, d0
    2710:	009f5001 	addseq	r5, pc, r1
	...
    2724:	1c000000 	stcne	0, cr0, [r0], {-0}
    2728:	01000000 	mrseq	r0, (UNDEF: 0)
    272c:	001c5100 	andseq	r5, ip, r0, lsl #2
    2730:	02e00000 	rsceq	r0, r0, #0, 0
    2734:	00010000 	andeq	r0, r1, r0
    2738:	0002e050 	andeq	lr, r2, r0, asr r0
    273c:	0002ec00 	andeq	lr, r2, r0, lsl #24
    2740:	f3000400 	vshl.u8	d0, d0, d0
    2744:	ec9f5101 	ldfs	f5, [pc], {1}
    2748:	28000002 	stmdacs	r0, {r1}
    274c:	01000003 	tsteq	r0, r3
    2750:	00005000 	andeq	r5, r0, r0
	...
    275c:	01000000 	mrseq	r0, (UNDEF: 0)
    2760:	00000000 	andeq	r0, r0, r0
    2764:	02000000 	andeq	r0, r0, #0, 0
    2768:	00000002 	andeq	r0, r0, r2
	...
    277c:	00700000 	rsbseq	r0, r0, r0
    2780:	00010000 	andeq	r0, r1, r0
    2784:	00007052 	andeq	r7, r0, r2, asr r0
    2788:	00007800 	andeq	r7, r0, r0, lsl #16
    278c:	5c000100 	stfpls	f0, [r0], {-0}
    2790:	00000078 	andeq	r0, r0, r8, ror r0
    2794:	000000a4 	andeq	r0, r0, r4, lsr #1
    2798:	01f30004 	mvnseq	r0, r4
    279c:	01949f52 	orrseq	r9, r4, r2, asr pc
    27a0:	019c0000 	orrseq	r0, ip, r0
    27a4:	00010000 	andeq	r0, r1, r0
    27a8:	00019c52 	andeq	r9, r1, r2, asr ip
    27ac:	0001a400 	andeq	sl, r1, r0, lsl #8
    27b0:	5c000100 	stfpls	f0, [r0], {-0}
    27b4:	000001a4 	andeq	r0, r0, r4, lsr #3
    27b8:	000001c0 	andeq	r0, r0, r0, asr #3
    27bc:	01f30004 	mvnseq	r0, r4
    27c0:	01c09f52 	biceq	r9, r0, r2, asr pc
    27c4:	02200000 	eoreq	r0, r0, #0, 0
    27c8:	00010000 	andeq	r0, r1, r0
    27cc:	00022052 	andeq	r2, r2, r2, asr r0
    27d0:	00022800 	andeq	r2, r2, r0, lsl #16
    27d4:	72000400 	andvc	r0, r0, #0, 8
    27d8:	289f1f00 	ldmcs	pc, {r8, r9, sl, fp, ip}	; <UNPREDICTABLE>
    27dc:	74000002 	strvc	r0, [r0], #-2
    27e0:	05000002 	streq	r0, [r0, #-2]
    27e4:	5201f300 	andpl	pc, r1, #0, 6
    27e8:	02749f1f 	rsbseq	r9, r4, #124	; 0x7c
    27ec:	02880000 	addeq	r0, r8, #0, 0
    27f0:	00010000 	andeq	r0, r1, r0
    27f4:	00028852 	andeq	r8, r2, r2, asr r8
    27f8:	0002a000 	andeq	sl, r2, r0
    27fc:	5c000100 	stfpls	f0, [r0], {-0}
    2800:	000002cc 	andeq	r0, r0, ip, asr #5
    2804:	000002d0 	ldrdeq	r0, [r0], -r0	; <UNPREDICTABLE>
    2808:	d0520001 	subsle	r0, r2, r1
    280c:	e7000002 	str	r0, [r0, -r2]
    2810:	01000002 	tsteq	r0, r2
    2814:	02e75c00 	rsceq	r5, r7, #0, 24
    2818:	02ec0000 	rsceq	r0, ip, #0, 0
    281c:	00040000 	andeq	r0, r4, r0
    2820:	9f5201f3 	svcls	0x005201f3
    2824:	000002ec 	andeq	r0, r0, ip, ror #5
    2828:	00000300 	andeq	r0, r0, r0, lsl #6
    282c:	00520001 	subseq	r0, r2, r1
    2830:	28000003 	stmdacs	r0, {r0, r1}
    2834:	01000003 	tsteq	r0, r3
    2838:	00005c00 	andeq	r5, r0, r0, lsl #24
	...
    2854:	00000068 	andeq	r0, r0, r8, rrx
    2858:	68530001 	ldmdavs	r3, {r0}^
    285c:	6c000000 	stcvs	0, cr0, [r0], {-0}
    2860:	03000000 	movweq	r0, #0
    2864:	9f7f0800 	svcls	0x007f0800
    2868:	00000194 	muleq	r0, r4, r1
    286c:	00000198 	muleq	r0, r8, r1
    2870:	7f080003 	svcvc	0x00080003
    2874:	0001c09f 	muleq	r1, pc, r0	; <UNPREDICTABLE>
    2878:	00021400 	andeq	r1, r2, r0, lsl #8
    287c:	08000300 	stmdaeq	r0, {r8, r9}
    2880:	02749f7f 	rsbseq	r9, r4, #508	; 0x1fc
    2884:	02900000 	addseq	r0, r0, #0, 0
    2888:	00010000 	andeq	r0, r1, r0
    288c:	00029053 	andeq	r9, r2, r3, asr r0
    2890:	0002a000 	andeq	sl, r2, r0
    2894:	f3000400 	vshl.u8	d0, d0, d0
    2898:	ec9f5301 	ldc	3, cr5, [pc], {1}
    289c:	28000002 	stmdacs	r0, {r1}
    28a0:	03000003 	movweq	r0, #3
    28a4:	9f7f0800 	svcls	0x007f0800
	...
    28b0:	00000001 	andeq	r0, r0, r1
    28b4:	00020200 	andeq	r0, r2, r0, lsl #4
    28b8:	00010100 	andeq	r0, r1, r0, lsl #2
    28bc:	00000000 	andeq	r0, r0, r0
    28c0:	02000000 	andeq	r0, r0, #0, 0
    28c4:	00000002 	andeq	r0, r0, r2
    28c8:	00000001 	andeq	r0, r0, r1
    28cc:	00000000 	andeq	r0, r0, r0
    28d0:	00010100 	andeq	r0, r1, r0, lsl #2
    28d4:	02000000 	andeq	r0, r0, #0, 0
    28d8:	00000002 	andeq	r0, r0, r2
    28dc:	01000000 	mrseq	r0, (UNDEF: 0)
    28e0:	00000001 	andeq	r0, r0, r1
    28e4:	00000018 	andeq	r0, r0, r8, lsl r0
    28e8:	00000070 	andeq	r0, r0, r0, ror r0
    28ec:	a0910004 	addsge	r0, r1, r4
    28f0:	00709f7f 	rsbseq	r9, r0, pc, ror pc
    28f4:	00780000 	rsbseq	r0, r8, r0
    28f8:	00010000 	andeq	r0, r1, r0
    28fc:	00007852 	andeq	r7, r0, r2, asr r8
    2900:	00007800 	andeq	r7, r0, r0, lsl #16
    2904:	54000100 	strpl	r0, [r0], #-256	; 0xffffff00
    2908:	00000078 	andeq	r0, r0, r8, ror r0
    290c:	00000088 	andeq	r0, r0, r8, lsl #1
    2910:	01740003 	cmneq	r4, r3
    2914:	0000889f 	muleq	r0, pc, r8	; <UNPREDICTABLE>
    2918:	00009000 	andeq	r9, r0, r0
    291c:	54000100 	strpl	r0, [r0], #-256	; 0xffffff00
    2920:	00000090 	muleq	r0, r0, r0
    2924:	000000a0 	andeq	r0, r0, r0, lsr #1
    2928:	02740003 	rsbseq	r0, r4, #3, 0
    292c:	0000a09f 	muleq	r0, pc, r0	; <UNPREDICTABLE>
    2930:	0000b000 	andeq	fp, r0, r0
    2934:	5e000100 	adfpls	f0, f0, f0
    2938:	00000194 	muleq	r0, r4, r1
    293c:	0000019c 	muleq	r0, ip, r1
    2940:	a0910004 	addsge	r0, r1, r4
    2944:	019c9f7f 	orrseq	r9, ip, pc, ror pc
    2948:	01a40000 			; <UNDEFINED> instruction: 0x01a40000
    294c:	00010000 	andeq	r0, r1, r0
    2950:	0001a452 	andeq	sl, r1, r2, asr r4
    2954:	0001a400 	andeq	sl, r1, r0, lsl #8
    2958:	5e000100 	adfpls	f0, f0, f0
    295c:	000001a4 	andeq	r0, r0, r4, lsr #3
    2960:	000001b4 			; <UNDEFINED> instruction: 0x000001b4
    2964:	017e0003 	cmneq	lr, r3
    2968:	0001b49f 	muleq	r1, pc, r4	; <UNPREDICTABLE>
    296c:	0001c000 	andeq	ip, r1, r0
    2970:	5e000100 	adfpls	f0, f0, f0
    2974:	000001c0 	andeq	r0, r0, r0, asr #3
    2978:	00000228 	andeq	r0, r0, r8, lsr #4
    297c:	a0910004 	addsge	r0, r1, r4
    2980:	02289f7f 	eoreq	r9, r8, #508	; 0x1fc
    2984:	02340000 	eorseq	r0, r4, #0, 0
    2988:	00010000 	andeq	r0, r1, r0
    298c:	00023452 	andeq	r3, r2, r2, asr r4
    2990:	00025800 	andeq	r5, r2, r0, lsl #16
    2994:	5e000100 	adfpls	f0, f0, f0
    2998:	00000258 	andeq	r0, r0, r8, asr r2
    299c:	0000025c 	andeq	r0, r0, ip, asr r2
    29a0:	017e0003 	cmneq	lr, r3
    29a4:	00025c9f 	muleq	r2, pc, ip	; <UNPREDICTABLE>
    29a8:	00026400 	andeq	r6, r2, r0, lsl #8
    29ac:	5e000100 	adfpls	f0, f0, f0
    29b0:	00000264 	andeq	r0, r0, r4, ror #4
    29b4:	00000270 	andeq	r0, r0, r0, ror r2
    29b8:	02710003 	rsbseq	r0, r1, #3, 0
    29bc:	0002709f 	muleq	r2, pc, r0	; <UNPREDICTABLE>
    29c0:	00027400 	andeq	r7, r2, r0, lsl #8
    29c4:	5e000100 	adfpls	f0, f0, f0
    29c8:	00000274 	andeq	r0, r0, r4, ror r2
    29cc:	00000274 	andeq	r0, r0, r4, ror r2
    29d0:	a0910004 	addsge	r0, r1, r4
    29d4:	02749f7f 	rsbseq	r9, r4, #508	; 0x1fc
    29d8:	02a00000 	adceq	r0, r0, #0, 0
    29dc:	00040000 	andeq	r0, r4, r0
    29e0:	9f7fa191 	svcls	0x007fa191
    29e4:	000002c0 	andeq	r0, r0, r0, asr #5
    29e8:	000002c8 	andeq	r0, r0, r8, asr #5
    29ec:	c85e0001 	ldmdagt	lr, {r0}^
    29f0:	cc000002 	stcgt	0, cr0, [r0], {2}
    29f4:	01000002 	tsteq	r0, r2
    29f8:	02cc5600 	sbceq	r5, ip, #0, 12
    29fc:	02ec0000 	rsceq	r0, ip, #0, 0
    2a00:	00040000 	andeq	r0, r4, r0
    2a04:	9f7fa091 	svcls	0x007fa091
    2a08:	000002ec 	andeq	r0, r0, ip, ror #5
    2a0c:	000002fc 	strdeq	r0, [r0], -ip
    2a10:	a1910004 	orrsge	r0, r1, r4
    2a14:	02fc9f7f 	rscseq	r9, ip, #508	; 0x1fc
    2a18:	03280000 			; <UNDEFINED> instruction: 0x03280000
    2a1c:	00010000 	andeq	r0, r1, r0
    2a20:	0000005e 	andeq	r0, r0, lr, asr r0
	...
    2a38:	00000101 	andeq	r0, r0, r1, lsl #2
	...
    2a48:	20000000 	andcs	r0, r0, r0
    2a4c:	70000000 	andvc	r0, r0, r0
    2a50:	01000000 	mrseq	r0, (UNDEF: 0)
    2a54:	00705200 	rsbseq	r5, r0, r0, lsl #4
    2a58:	00940000 	addseq	r0, r4, r0
    2a5c:	00010000 	andeq	r0, r1, r0
    2a60:	0001945c 	andeq	r9, r1, ip, asr r4
    2a64:	00019c00 	andeq	r9, r1, r0, lsl #24
    2a68:	52000100 	andpl	r0, r0, #0
    2a6c:	0000019c 	muleq	r0, ip, r1
    2a70:	000001c0 	andeq	r0, r0, r0, asr #3
    2a74:	c85c0001 	ldmdagt	ip, {r0}^
    2a78:	10000001 	andne	r0, r0, r1
    2a7c:	01000002 	tsteq	r0, r2
    2a80:	02105c00 	andseq	r5, r0, #0, 24
    2a84:	02240000 	eoreq	r0, r4, #0, 0
    2a88:	00010000 	andeq	r0, r1, r0
    2a8c:	00022452 	andeq	r2, r2, r2, asr r4
    2a90:	00024800 	andeq	r4, r2, r0, lsl #16
    2a94:	5c000100 	stfpls	f0, [r0], {-0}
    2a98:	00000248 	andeq	r0, r0, r8, asr #4
    2a9c:	0000025c 	andeq	r0, r0, ip, asr r2
    2aa0:	5c550001 	mrrcpl	0, 0, r0, r5, cr1
    2aa4:	68000002 	stmdavs	r0, {r1}
    2aa8:	01000002 	tsteq	r0, r2
    2aac:	02685c00 	rsbeq	r5, r8, #0, 24
    2ab0:	02740000 	rsbseq	r0, r4, #0, 0
    2ab4:	00190000 	andseq	r0, r9, r0
    2ab8:	2cf70075 	ldclcs	0, cr0, [r7], #468	; 0x1d4
    2abc:	007625f7 	ldrshteq	r2, [r6], #-87	; 0xffffffa9
    2ac0:	25f72cf7 	ldrbcs	r2, [r7, #3319]!	; 0xcf7
    2ac4:	f720081e 			; <UNDEFINED> instruction: 0xf720081e
    2ac8:	2cf72525 	cfldr64cs	mvdx2, [r7], #148	; 0x94
    2acc:	253300f7 	ldrcs	r0, [r3, #-247]!	; 0xffffff09
    2ad0:	0002749f 	muleq	r2, pc, r4	; <UNPREDICTABLE>
    2ad4:	00028800 	andeq	r8, r2, r0, lsl #16
    2ad8:	52000100 	andpl	r0, r0, #0
    2adc:	00000288 	andeq	r0, r0, r8, lsl #5
    2ae0:	000002a0 	andeq	r0, r0, r0, lsr #5
    2ae4:	cc5c0001 	mrrcgt	0, 0, r0, ip, cr1
    2ae8:	d0000002 	andle	r0, r0, r2
    2aec:	01000002 	tsteq	r0, r2
    2af0:	02d05200 	sbcseq	r5, r0, #0, 4
    2af4:	02e70000 	rsceq	r0, r7, #0, 0
    2af8:	00010000 	andeq	r0, r1, r0
    2afc:	0002e75c 	andeq	lr, r2, ip, asr r7
    2b00:	0002ec00 	andeq	lr, r2, r0, lsl #24
    2b04:	f3000400 	vshl.u8	d0, d0, d0
    2b08:	ec9f5201 	lfm	f5, 4, [pc], {1}
    2b0c:	00000002 	andeq	r0, r0, r2
    2b10:	01000003 	tsteq	r0, r3
    2b14:	03005200 	movweq	r5, #512	; 0x200
    2b18:	03280000 			; <UNDEFINED> instruction: 0x03280000
    2b1c:	00010000 	andeq	r0, r1, r0
    2b20:	0000005c 	andeq	r0, r0, ip, asr r0
    2b24:	00000000 	andeq	r0, r0, r0
    2b28:	04000400 	streq	r0, [r0], #-1024	; 0xfffffc00
    2b2c:	00010000 	andeq	r0, r1, r0
    2b30:	a4000400 	strge	r0, [r0], #-1024	; 0xfffffc00
    2b34:	b0000000 	andlt	r0, r0, r0
    2b38:	01000000 	mrseq	r0, (UNDEF: 0)
    2b3c:	027c5300 	rsbseq	r5, ip, #0, 6
    2b40:	02900000 	addseq	r0, r0, #0, 0
    2b44:	00010000 	andeq	r0, r1, r0
    2b48:	00029053 	andeq	r9, r2, r3, asr r0
    2b4c:	00029c00 	andeq	r9, r2, r0, lsl #24
    2b50:	f3000400 	vshl.u8	d0, d0, d0
    2b54:	c09f5301 	addsgt	r5, pc, r1, lsl #6
    2b58:	cc000002 	stcgt	0, cr0, [r0], {2}
    2b5c:	01000002 	tsteq	r0, r2
    2b60:	02f05300 	rscseq	r5, r0, #0, 6
    2b64:	03280000 			; <UNDEFINED> instruction: 0x03280000
    2b68:	00030000 	andeq	r0, r3, r0
    2b6c:	009f7f08 	addseq	r7, pc, r8, lsl #30
    2b70:	00000000 	andeq	r0, r0, r0
    2b74:	04000000 	streq	r0, [r0], #-0
    2b78:	04010000 	streq	r0, [r1], #-0
    2b7c:	00010000 	andeq	r0, r1, r0
    2b80:	04000000 	streq	r0, [r0], #-0
    2b84:	a4000000 	strge	r0, [r0], #-0
    2b88:	b0000000 	andlt	r0, r0, r0
    2b8c:	01000000 	mrseq	r0, (UNDEF: 0)
    2b90:	00b05200 	adcseq	r5, r0, r0, lsl #4
    2b94:	015c0000 	cmpeq	ip, r0
    2b98:	00040000 	andeq	r0, r4, r0
    2b9c:	9f7fa091 	svcls	0x007fa091
    2ba0:	0000027c 	andeq	r0, r0, ip, ror r2
    2ba4:	00000294 	muleq	r0, r4, r2
    2ba8:	a0910004 	addsge	r0, r1, r4
    2bac:	02949f7f 	addseq	r9, r4, #508	; 0x1fc
    2bb0:	029c0000 	addseq	r0, ip, #0, 0
    2bb4:	00010000 	andeq	r0, r1, r0
    2bb8:	0002b45e 	andeq	fp, r2, lr, asr r4
    2bbc:	0002c000 	andeq	ip, r2, r0
    2bc0:	91000400 	tstls	r0, r0, lsl #8
    2bc4:	c09f7fa0 	addsgt	r7, pc, r0, lsr #31
    2bc8:	cc000002 	stcgt	0, cr0, [r0], {2}
    2bcc:	01000002 	tsteq	r0, r2
    2bd0:	02f05200 	rscseq	r5, r0, #0, 4
    2bd4:	03000000 	movweq	r0, #0
    2bd8:	00040000 	andeq	r0, r4, r0
    2bdc:	9f7fa091 	svcls	0x007fa091
    2be0:	00000300 	andeq	r0, r0, r0, lsl #6
    2be4:	00000328 	andeq	r0, r0, r8, lsr #6
    2be8:	00520001 	subseq	r0, r2, r1
    2bec:	00000000 	andeq	r0, r0, r0
    2bf0:	04000000 	streq	r0, [r0], #-0
    2bf4:	01010000 	mrseq	r0, (UNDEF: 1)
    2bf8:	03030101 	movweq	r0, #12545	; 0x3101
    2bfc:	00010402 	andeq	r0, r1, r2, lsl #8
    2c00:	04000000 	streq	r0, [r0], #-0
    2c04:	a4000000 	strge	r0, [r0], #-0
    2c08:	b0000000 	andlt	r0, r0, r0
    2c0c:	01000000 	mrseq	r0, (UNDEF: 0)
    2c10:	010c5e00 	tsteq	ip, r0, lsl #28
    2c14:	010c0000 	mrseq	r0, (UNDEF: 12)
    2c18:	00010000 	andeq	r0, r1, r0
    2c1c:	00010c55 	andeq	r0, r1, r5, asr ip
    2c20:	00012000 	andeq	r2, r1, r0
    2c24:	75000300 	strvc	r0, [r0, #-768]	; 0xfffffd00
    2c28:	01209f01 			; <UNDEFINED> instruction: 0x01209f01
    2c2c:	012c0000 			; <UNDEFINED> instruction: 0x012c0000
    2c30:	00030000 	andeq	r0, r3, r0
    2c34:	2c9f0275 	lfmcs	f0, 4, [pc], {117}	; 0x75
    2c38:	30000001 	andcc	r0, r0, r1
    2c3c:	03000001 	movweq	r0, #1
    2c40:	9f037500 	svcls	0x00037500
    2c44:	0000027c 	andeq	r0, r0, ip, ror r2
    2c48:	0000029c 	muleq	r0, ip, r2
    2c4c:	a1910004 	orrsge	r0, r1, r4
    2c50:	02c09f7f 	sbceq	r9, r0, #508	; 0x1fc
    2c54:	02c80000 	sbceq	r0, r8, #0, 0
    2c58:	00010000 	andeq	r0, r1, r0
    2c5c:	0002c85e 	andeq	ip, r2, lr, asr r8
    2c60:	0002cc00 	andeq	ip, r2, r0, lsl #24
    2c64:	56000100 	strpl	r0, [r0], -r0, lsl #2
    2c68:	000002f0 	strdeq	r0, [r0], -r0	; <UNPREDICTABLE>
    2c6c:	000002fc 	strdeq	r0, [r0], -ip
    2c70:	a1910004 	orrsge	r0, r1, r4
    2c74:	02fc9f7f 	rscseq	r9, ip, #508	; 0x1fc
    2c78:	03280000 			; <UNDEFINED> instruction: 0x03280000
    2c7c:	00010000 	andeq	r0, r1, r0
    2c80:	0000005e 	andeq	r0, r0, lr, asr r0
	...
    2c8c:	01010101 	tsteq	r1, r1, lsl #2
    2c90:	06020101 	streq	r0, [r2], -r1, lsl #2
    2c94:	06000001 	streq	r0, [r0], -r1
    2c98:	0000a800 	andeq	sl, r0, r0, lsl #16
    2c9c:	0000b000 	andeq	fp, r0, r0
    2ca0:	51000100 	mrspl	r0, (UNDEF: 16)
    2ca4:	0000010c 	andeq	r0, r0, ip, lsl #2
    2ca8:	0000011c 	andeq	r0, r0, ip, lsl r1
    2cac:	1c5c0001 	mrrcne	0, 0, r0, ip, cr1
    2cb0:	2c000001 	stccs	0, cr0, [r0], {1}
    2cb4:	01000001 	tsteq	r0, r1
    2cb8:	012c5800 			; <UNDEFINED> instruction: 0x012c5800
    2cbc:	01300000 	teqeq	r0, r0
    2cc0:	00010000 	andeq	r0, r1, r0
    2cc4:	0001305c 	andeq	r3, r1, ip, asr r0
    2cc8:	00013000 	andeq	r3, r1, r0
    2ccc:	7c000300 	stcvc	3, cr0, [r0], {-0}
    2cd0:	027c9f01 	rsbseq	r9, ip, #1, 30
    2cd4:	029c0000 	addseq	r0, ip, #0, 0
    2cd8:	00020000 	andeq	r0, r2, r0
    2cdc:	02c09f31 	sbceq	r9, r0, #196	; 0xc4
    2ce0:	02cc0000 	sbceq	r0, ip, #0, 0
    2ce4:	00010000 	andeq	r0, r1, r0
    2ce8:	0002f051 	andeq	pc, r2, r1, asr r0	; <UNPREDICTABLE>
    2cec:	00032800 	andeq	r2, r3, r0, lsl #16
    2cf0:	31000200 	mrscc	r0, R8_usr
    2cf4:	0000009f 	muleq	r0, pc, r0	; <UNPREDICTABLE>
    2cf8:	00000000 	andeq	r0, r0, r0
    2cfc:	06060100 	streq	r0, [r6], -r0, lsl #2
    2d00:	00000101 	andeq	r0, r0, r1, lsl #2
    2d04:	00015c01 	andeq	r5, r1, r1, lsl #24
    2d08:	00015c00 	andeq	r5, r1, r0, lsl #24
    2d0c:	91000400 	tstls	r0, r0, lsl #8
    2d10:	5c9f7fa0 	ldcpl	15, cr7, [pc], {160}	; 0xa0
    2d14:	8c000001 	stchi	0, cr0, [r0], {1}
    2d18:	01000001 	tsteq	r0, r1
    2d1c:	029c5200 	addseq	r5, ip, #0, 4
    2d20:	02a00000 	adceq	r0, r0, #0, 0
    2d24:	00010000 	andeq	r0, r1, r0
    2d28:	0002a05e 	andeq	sl, r2, lr, asr r0
    2d2c:	0002ac00 	andeq	sl, r2, r0, lsl #24
    2d30:	52000100 	andpl	r0, r0, #0
	...
    2d3c:	01000000 	mrseq	r0, (UNDEF: 0)
    2d40:	07010001 	streq	r0, [r1, -r1]
    2d44:	0000016c 	andeq	r0, r0, ip, ror #2
    2d48:	00000170 	andeq	r0, r0, r0, ror r1
    2d4c:	7f730003 	svcvc	0x00730003
    2d50:	0001709f 	muleq	r1, pc, r0	; <UNPREDICTABLE>
    2d54:	00017800 	andeq	r7, r1, r0, lsl #16
    2d58:	53000100 	movwpl	r0, #256	; 0x100
    2d5c:	00000178 	andeq	r0, r0, r8, ror r1
    2d60:	00000184 	andeq	r0, r0, r4, lsl #3
    2d64:	7f730003 	svcvc	0x00730003
    2d68:	00029c9f 	muleq	r2, pc, ip	; <UNPREDICTABLE>
    2d6c:	00029c00 	andeq	r9, r2, r0, lsl #24
    2d70:	91000400 	tstls	r0, r0, lsl #8
    2d74:	009f7fa1 	addseq	r7, pc, r1, lsr #31
    2d78:	00000000 	andeq	r0, r0, r0
    2d7c:	01000000 	mrseq	r0, (UNDEF: 0)
    2d80:	5c010101 	stfpls	f0, [r1], {1}
    2d84:	8c000001 	stchi	0, cr0, [r0], {1}
    2d88:	03000001 	movweq	r0, #1
    2d8c:	9f800800 	svcls	0x00800800
    2d90:	0000029c 	muleq	r0, ip, r2
    2d94:	000002ac 	andeq	r0, r0, ip, lsr #5
    2d98:	80080003 	andhi	r0, r8, r3
    2d9c:	0000009f 	muleq	r0, pc, r0	; <UNPREDICTABLE>
    2da0:	00000000 	andeq	r0, r0, r0
    2da4:	00000100 	andeq	r0, r0, r0, lsl #2
    2da8:	00000101 	andeq	r0, r0, r1, lsl #2
    2dac:	01010101 	tsteq	r1, r1, lsl #2
    2db0:	5c010101 	stfpls	f0, [r1], {1}
    2db4:	6c000001 	stcvs	0, cr0, [r0], {1}
    2db8:	01000001 	tsteq	r0, r1
    2dbc:	016c5000 	cmneq	ip, r0
    2dc0:	016c0000 	cmneq	ip, r0
    2dc4:	00030000 	andeq	r0, r3, r0
    2dc8:	6c9f017c 	ldfvss	f0, [pc], {124}	; 0x7c
    2dcc:	78000001 	stmdavc	r0, {r0}
    2dd0:	03000001 	movweq	r0, #1
    2dd4:	9f027c00 	svcls	0x00027c00
    2dd8:	00000178 	andeq	r0, r0, r8, ror r1
    2ddc:	00000188 	andeq	r0, r0, r8, lsl #3
    2de0:	017c0003 	cmneq	ip, r3
    2de4:	0001889f 	muleq	r1, pc, r8	; <UNPREDICTABLE>
    2de8:	00018c00 	andeq	r8, r1, r0, lsl #24
    2dec:	7e000300 	cdpvc	3, 0, cr0, cr0, cr0, {0}
    2df0:	029c9f01 	addseq	r9, ip, #1, 30
    2df4:	02a40000 	adceq	r0, r4, #0, 0
    2df8:	00010000 	andeq	r0, r1, r0
    2dfc:	0002a450 	andeq	sl, r2, r0, asr r4
    2e00:	0002ac00 	andeq	sl, r2, r0, lsl #24
    2e04:	7e000300 	cdpvc	3, 0, cr0, cr0, cr0, {0}
    2e08:	00009f01 	andeq	r9, r0, r1, lsl #30
    2e0c:	00000000 	andeq	r0, r0, r0
    2e10:	00040000 	andeq	r0, r4, r0
    2e14:	01000004 	tsteq	r0, r4
    2e18:	0000015c 	andeq	r0, r0, ip, asr r1
    2e1c:	00000160 	andeq	r0, r0, r0, ror #2
    2e20:	01710003 	cmneq	r1, r3
    2e24:	00029c9f 	muleq	r2, pc, ip	; <UNPREDICTABLE>
    2e28:	0002a000 	andeq	sl, r2, r0
    2e2c:	32000200 	andcc	r0, r0, #0, 4
    2e30:	0002a09f 	muleq	r2, pc, r0	; <UNPREDICTABLE>
    2e34:	0002ac00 	andeq	sl, r2, r0, lsl #24
    2e38:	71000300 	mrsvc	r0, LR_irq
    2e3c:	00009f01 	andeq	r9, r0, r1, lsl #30
    2e40:	00000000 	andeq	r0, r0, r0
    2e44:	00070000 	andeq	r0, r7, r0
    2e48:	015c0006 	cmpeq	ip, r6
    2e4c:	01940000 	orrseq	r0, r4, r0
    2e50:	00010000 	andeq	r0, r1, r0
    2e54:	00029c50 	andeq	r9, r2, r0, asr ip
    2e58:	0002b400 	andeq	fp, r2, r0, lsl #8
    2e5c:	50000100 	andpl	r0, r0, r0, lsl #2
	...
    2e68:	00010101 	andeq	r0, r1, r1, lsl #2
    2e6c:	00000214 	andeq	r0, r0, r4, lsl r2
    2e70:	00000220 	andeq	r0, r0, r0, lsr #4
    2e74:	9f300002 	svcls	0x00300002
    2e78:	00000220 	andeq	r0, r0, r0, lsr #4
    2e7c:	00000234 	andeq	r0, r0, r4, lsr r2
    2e80:	9f310002 	svcls	0x00310002
	...
    2e8c:	02010100 	andeq	r0, r1, #0
    2e90:	00000002 	andeq	r0, r0, r2
    2e94:	00009390 	muleq	r0, r0, r3
    2e98:	00009390 	muleq	r0, r0, r3
    2e9c:	90530001 	subsls	r0, r3, r1
    2ea0:	90000093 	mulls	r0, r3, r0
    2ea4:	07000093 			; <UNDEFINED> instruction: 0x07000093
    2ea8:	0b007300 	bleq	1fab0 <__bss_end__+0x155e0>
    2eac:	9f1aefff 	svcls	0x001aefff
    2eb0:	00009390 	muleq	r0, r0, r3
    2eb4:	00009394 	muleq	r0, r4, r3
    2eb8:	00730007 	rsbseq	r0, r3, r7
    2ebc:	1ae7ff0b 	bne	ffa02af0 <__bss_end__+0xff9f8620>
    2ec0:	0093949f 	umullseq	r9, r3, pc, r4	; <UNPREDICTABLE>
    2ec4:	00939c00 	addseq	r9, r3, r0, lsl #24
    2ec8:	53000100 	movwpl	r0, #256	; 0x100
	...
    2ed4:	02010100 	andeq	r0, r1, #0
    2ed8:	00000002 	andeq	r0, r0, r2
    2edc:	00009380 	andeq	r9, r0, r0, lsl #7
    2ee0:	00009380 	andeq	r9, r0, r0, lsl #7
    2ee4:	80530001 	subshi	r0, r3, r1
    2ee8:	80000093 	mulhi	r0, r3, r0
    2eec:	07000093 			; <UNDEFINED> instruction: 0x07000093
    2ef0:	0a007300 	beq	1faf8 <__bss_end__+0x15628>
    2ef4:	9f211000 	svcls	0x00211000
    2ef8:	00009380 	andeq	r9, r0, r0, lsl #7
    2efc:	00009384 	andeq	r9, r0, r4, lsl #7
    2f00:	00730007 	rsbseq	r0, r3, r7
    2f04:	2118000a 	tstcs	r8, sl
    2f08:	0093849f 	umullseq	r8, r3, pc, r4	; <UNPREDICTABLE>
    2f0c:	00938c00 	addseq	r8, r3, r0, lsl #24
    2f10:	53000100 	movwpl	r0, #256	; 0x100
	...
    2f1c:	00010100 	andeq	r0, r1, r0, lsl #2
    2f20:	00010100 	andeq	r0, r1, r0, lsl #2
    2f24:	00010100 	andeq	r0, r1, r0, lsl #2
    2f28:	00010100 	andeq	r0, r1, r0, lsl #2
    2f2c:	00010100 	andeq	r0, r1, r0, lsl #2
    2f30:	01020200 	mrseq	r0, R10_usr
    2f34:	00000080 	andeq	r0, r0, r0, lsl #1
    2f38:	00000080 	andeq	r0, r0, r0, lsl #1
    2f3c:	80530001 	subshi	r0, r3, r1
    2f40:	8c000000 	stchi	0, cr0, [r0], {-0}
    2f44:	03000000 	movweq	r0, #0
    2f48:	9f047300 	svcls	0x00047300
    2f4c:	0000008c 	andeq	r0, r0, ip, lsl #1
    2f50:	00000094 	muleq	r0, r4, r0
    2f54:	94510001 	ldrbls	r0, [r1], #-1
    2f58:	98000000 	stmdals	r0, {}	; <UNPREDICTABLE>
    2f5c:	03000000 	movweq	r0, #0
    2f60:	9f087300 	svcls	0x00087300
    2f64:	00000098 	muleq	r0, r8, r0
    2f68:	000000a4 	andeq	r0, r0, r4, lsr #1
    2f6c:	a4510001 	ldrbge	r0, [r1], #-1
    2f70:	a8000000 	stmdage	r0, {}	; <UNPREDICTABLE>
    2f74:	03000000 	movweq	r0, #0
    2f78:	9f0c7300 	svcls	0x000c7300
    2f7c:	000000a8 	andeq	r0, r0, r8, lsr #1
    2f80:	000000b4 	strheq	r0, [r0], -r4
    2f84:	b4510001 	ldrblt	r0, [r1], #-1
    2f88:	b8000000 	stmdalt	r0, {}	; <UNPREDICTABLE>
    2f8c:	03000000 	movweq	r0, #0
    2f90:	9f107300 	svcls	0x00107300
    2f94:	000000b8 	strheq	r0, [r0], -r8
    2f98:	000000c4 	andeq	r0, r0, r4, asr #1
    2f9c:	c4510001 	ldrbgt	r0, [r1], #-1
    2fa0:	c8000000 	stmdagt	r0, {}	; <UNPREDICTABLE>
    2fa4:	03000000 	movweq	r0, #0
    2fa8:	9f147300 	svcls	0x00147300
    2fac:	000000c8 	andeq	r0, r0, r8, asr #1
    2fb0:	000000d0 	ldrdeq	r0, [r0], -r0	; <UNPREDICTABLE>
    2fb4:	d0510001 	subsle	r0, r1, r1
    2fb8:	d4000000 	strle	r0, [r0], #-0
    2fbc:	03000000 	movweq	r0, #0
    2fc0:	9f047100 	svcls	0x00047100
	...
    2fcc:	00d80002 	sbcseq	r0, r8, r2
    2fd0:	00e80000 	rsceq	r0, r8, r0
    2fd4:	00020000 	andeq	r0, r2, r0
    2fd8:	00009f31 	andeq	r9, r0, r1, lsr pc
    2fdc:	00000000 	andeq	r0, r0, r0
    2fe0:	00040000 	andeq	r0, r4, r0
    2fe4:	94f00100 	ldrbtls	r0, [r0], #256	; 0x100
    2fe8:	94f80000 	ldrbtls	r0, [r8], #0
    2fec:	00020000 	andeq	r0, r2, r0
    2ff0:	94f89f30 	ldrbtls	r9, [r8], #3888	; 0xf30
    2ff4:	94f80000 	ldrbtls	r0, [r8], #0
    2ff8:	00010000 	andeq	r0, r1, r0
    2ffc:	00000053 	andeq	r0, r0, r3, asr r0
    3000:	00000000 	andeq	r0, r0, r0
    3004:	00000300 	andeq	r0, r0, r0, lsl #6
    3008:	00000000 	andeq	r0, r0, r0
    300c:	00950400 	addseq	r0, r5, r0, lsl #8
    3010:	00950800 	addseq	r0, r5, r0, lsl #16
    3014:	30000200 	andcc	r0, r0, r0, lsl #4
    3018:	0095089f 	umullseq	r0, r5, pc, r8	; <UNPREDICTABLE>
    301c:	00950c00 	addseq	r0, r5, r0, lsl #24
    3020:	53000100 	movwpl	r0, #256	; 0x100
    3024:	0000950c 	andeq	r9, r0, ip, lsl #10
    3028:	00009510 	andeq	r9, r0, r0, lsl r5
    302c:	00730005 	rsbseq	r0, r3, r5
    3030:	109f2140 	addsne	r2, pc, r0, asr #2
    3034:	14000095 	strne	r0, [r0], #-149	; 0xffffff6b
    3038:	01000095 	swpeq	r0, r5, [r0]	; <UNPREDICTABLE>
    303c:	00005300 	andeq	r5, r0, r0, lsl #6
    3040:	00000000 	andeq	r0, r0, r0
    3044:	00020000 	andeq	r0, r2, r0
    3048:	94c40000 	strbls	r0, [r4], #0
    304c:	94c80000 	strbls	r0, [r8], #0
    3050:	00020000 	andeq	r0, r2, r0
    3054:	94c89f30 	strbls	r9, [r8], #3888	; 0xf30
    3058:	94cc0000 	strbls	r0, [ip], #0
    305c:	00010000 	andeq	r0, r1, r0
    3060:	00000050 	andeq	r0, r0, r0, asr r0
    3064:	00000000 	andeq	r0, r0, r0
    3068:	00000200 	andeq	r0, r0, r0, lsl #4
    306c:	00000000 	andeq	r0, r0, r0
    3070:	0094dc00 	addseq	sp, r4, r0, lsl #24
    3074:	0094e000 	addseq	lr, r4, r0
    3078:	30000200 	andcc	r0, r0, r0, lsl #4
    307c:	0094e09f 	umullseq	lr, r4, pc, r0	; <UNPREDICTABLE>
    3080:	0094e400 	addseq	lr, r4, r0, lsl #8
    3084:	53000100 	movwpl	r0, #256	; 0x100
    3088:	000094e4 	andeq	r9, r0, r4, ror #9
    308c:	000094e8 	andeq	r9, r0, r8, ror #9
    3090:	00730005 	rsbseq	r0, r3, r5
    3094:	e89f2140 	ldm	pc, {r6, r8, sp}	; <UNPREDICTABLE>
    3098:	f0000094 			; <UNDEFINED> instruction: 0xf0000094
    309c:	01000094 	swpeq	r0, r4, [r0]	; <UNPREDICTABLE>
    30a0:	00005300 	andeq	r5, r0, r0, lsl #6
	...
    30ac:	00c80000 	sbceq	r0, r8, r0
    30b0:	00d80000 	sbcseq	r0, r8, r0
    30b4:	00010000 	andeq	r0, r1, r0
    30b8:	0000d850 	andeq	sp, r0, r0, asr r8
    30bc:	00011c00 	andeq	r1, r1, r0, lsl #24
    30c0:	f3000400 	vshl.u8	d0, d0, d0
    30c4:	009f5001 	addseq	r5, pc, r1
    30c8:	00000000 	andeq	r0, r0, r0
    30cc:	02000000 	andeq	r0, r0, #0, 0
    30d0:	c8000000 	stmdagt	r0, {}	; <UNPREDICTABLE>
    30d4:	d8000000 	stmdale	r0, {}	; <UNPREDICTABLE>
    30d8:	07000000 	streq	r0, [r0, -r0]
    30dc:	0a007000 	beq	1f0e4 <__bss_end__+0x14c14>
    30e0:	9f1e03e8 	svcls	0x001e03e8
    30e4:	000000d8 	ldrdeq	r0, [r0], -r8
    30e8:	0000011c 	andeq	r0, r0, ip, lsl r1
    30ec:	01f30008 	mvnseq	r0, r8
    30f0:	03e80a50 	mvneq	r0, #80, 20	; 0x50000
    30f4:	00009f1e 	andeq	r9, r0, lr, lsl pc
	...
    3100:	000000dc 	ldrdeq	r0, [r0], -ip
    3104:	0000011c 	andeq	r0, r0, ip, lsl r1
    3108:	00540001 	subseq	r0, r4, r1
    310c:	00000000 	andeq	r0, r0, r0
    3110:	01000000 	mrseq	r0, (UNDEF: 0)
    3114:	0000f000 	andeq	pc, r0, r0
    3118:	00011c00 	andeq	r1, r1, r0, lsl #24
    311c:	56000100 	strpl	r0, [r0], -r0, lsl #2
	...
    312c:	000000ec 	andeq	r0, r0, ip, ror #1
    3130:	000000ef 	andeq	r0, r0, pc, ror #1
    3134:	ef500001 	svc	0x00500001
    3138:	1c000000 	stcne	0, cr0, [r0], {-0}
    313c:	01000001 	tsteq	r0, r1
    3140:	00005600 	andeq	r5, r0, r0, lsl #12
	...
    314c:	00000104 	andeq	r0, r0, r4, lsl #2
    3150:	0000010b 	andeq	r0, r0, fp, lsl #2
    3154:	00500001 	subseq	r0, r0, r1
	...
    3160:	20000000 	andcs	r0, r0, r0
    3164:	23000000 	movwcs	r0, #0
    3168:	01000000 	mrseq	r0, (UNDEF: 0)
    316c:	00235000 	eoreq	r5, r3, r0
    3170:	00300000 	eorseq	r0, r0, r0
    3174:	00010000 	andeq	r0, r1, r0
    3178:	00000054 	andeq	r0, r0, r4, asr r0
	...
    3184:	00003000 	andeq	r3, r0, r0
    3188:	00003b00 	andeq	r3, r0, r0, lsl #22
    318c:	50000100 	andpl	r0, r0, r0, lsl #2
    3190:	0000003b 	andeq	r0, r0, fp, lsr r0
    3194:	00000078 	andeq	r0, r0, r8, ror r0
    3198:	00560001 	subseq	r0, r6, r1
    319c:	00000000 	andeq	r0, r0, r0
    31a0:	01000000 	mrseq	r0, (UNDEF: 0)
    31a4:	00004c00 	andeq	r4, r0, r0, lsl #24
    31a8:	00007800 	andeq	r7, r0, r0, lsl #16
    31ac:	55000100 	strpl	r0, [r0, #-256]	; 0xffffff00
	...
    31bc:	00000048 	andeq	r0, r0, r8, asr #32
    31c0:	0000004b 	andeq	r0, r0, fp, asr #32
    31c4:	4b500001 	blmi	14031d0 <__bss_end__+0x13f8d00>
    31c8:	78000000 	stmdavc	r0, {}	; <UNPREDICTABLE>
    31cc:	01000000 	mrseq	r0, (UNDEF: 0)
    31d0:	00005500 	andeq	r5, r0, r0, lsl #10
	...
    31dc:	00000060 	andeq	r0, r0, r0, rrx
    31e0:	00000067 	andeq	r0, r0, r7, rrx
    31e4:	00500001 	subseq	r0, r0, r1
	...
    31f0:	78000000 	stmdavc	r0, {}	; <UNPREDICTABLE>
    31f4:	84000000 	strhi	r0, [r0], #-0
    31f8:	01000000 	mrseq	r0, (UNDEF: 0)
    31fc:	00845000 	addeq	r5, r4, r0
    3200:	00c80000 	sbceq	r0, r8, r0
    3204:	00040000 	andeq	r0, r4, r0
    3208:	9f5001f3 	svcls	0x005001f3
	...
    3214:	00880000 	addeq	r0, r8, r0
    3218:	00c80000 	sbceq	r0, r8, r0
    321c:	00010000 	andeq	r0, r1, r0
    3220:	00000054 	andeq	r0, r0, r4, asr r0
    3224:	00000000 	andeq	r0, r0, r0
    3228:	9c000100 	stflss	f0, [r0], {-0}
    322c:	c8000000 	stmdagt	r0, {}	; <UNPREDICTABLE>
    3230:	01000000 	mrseq	r0, (UNDEF: 0)
    3234:	00005600 	andeq	r5, r0, r0, lsl #12
	...
    3240:	00980000 	addseq	r0, r8, r0
    3244:	009b0000 	addseq	r0, fp, r0
    3248:	00010000 	andeq	r0, r1, r0
    324c:	00009b50 	andeq	r9, r0, r0, asr fp
    3250:	0000c800 	andeq	ip, r0, r0, lsl #16
    3254:	56000100 	strpl	r0, [r0], -r0, lsl #2
	...
    3260:	00b00000 	adcseq	r0, r0, r0
    3264:	00b70000 	adcseq	r0, r7, r0
    3268:	00010000 	andeq	r0, r1, r0
    326c:	00000050 	andeq	r0, r0, r0, asr r0
	...
    3278:	00015800 	andeq	r5, r1, r0, lsl #16
    327c:	00016300 	andeq	r6, r1, r0, lsl #6
    3280:	50000100 	andpl	r0, r0, r0, lsl #2
    3284:	00000163 	andeq	r0, r0, r3, ror #2
    3288:	00000188 	andeq	r0, r0, r8, lsl #3
    328c:	00540001 	subseq	r0, r4, r1
	...
    3298:	00014800 	andeq	r4, r1, r0, lsl #16
    329c:	00015800 	andeq	r5, r1, r0, lsl #16
    32a0:	54000100 	strpl	r0, [r0], #-256	; 0xffffff00
	...
    32b4:	0000000f 	andeq	r0, r0, pc
    32b8:	0f500001 	svceq	0x00500001
    32bc:	20000000 	andcs	r0, r0, r0
    32c0:	01000000 	mrseq	r0, (UNDEF: 0)
    32c4:	00005400 	andeq	r5, r0, r0, lsl #8
	...
    32d4:	000f0000 	andeq	r0, pc, r0
    32d8:	00010000 	andeq	r0, r1, r0
    32dc:	00000f51 	andeq	r0, r0, r1, asr pc
    32e0:	00002000 	andeq	r2, r0, r0
    32e4:	55000100 	strpl	r0, [r0, #-256]	; 0xffffff00
	...
    32f4:	00000020 	andeq	r0, r0, r0, lsr #32
    32f8:	0000002f 	andeq	r0, r0, pc, lsr #32
    32fc:	2f500001 	svccs	0x00500001
    3300:	40000000 	andmi	r0, r0, r0
    3304:	01000000 	mrseq	r0, (UNDEF: 0)
    3308:	00005400 	andeq	r5, r0, r0, lsl #8
	...
    3314:	00200000 	eoreq	r0, r0, r0
    3318:	002f0000 	eoreq	r0, pc, r0
    331c:	00010000 	andeq	r0, r1, r0
    3320:	00002f51 	andeq	r2, r0, r1, asr pc
    3324:	00004000 	andeq	r4, r0, r0
    3328:	55000100 	strpl	r0, [r0, #-256]	; 0xffffff00
	...
    3338:	03500000 	cmpeq	r0, #0, 0
    333c:	03980000 	orrseq	r0, r8, #0, 0
    3340:	00010000 	andeq	r0, r1, r0
    3344:	00039850 	andeq	r9, r3, r0, asr r8
    3348:	00039b00 	andeq	r9, r3, r0, lsl #22
    334c:	91000200 	mrsls	r0, R8_usr
    3350:	00039b68 	andeq	r9, r3, r8, ror #22
    3354:	0003b000 	andeq	fp, r3, r0
    3358:	f3000400 	vshl.u8	d0, d0, d0
    335c:	009f5001 	addseq	r5, pc, r1
	...
    3378:	20000000 	andcs	r0, r0, r0
    337c:	7b000002 	blvc	338c <__code_start__-0x4c74>
    3380:	01000002 	tsteq	r0, r2
    3384:	027b5000 	rsbseq	r5, fp, #0, 0
    3388:	02840000 	addeq	r0, r4, #0, 0
    338c:	00040000 	andeq	r0, r4, r0
    3390:	9f5001f3 	svcls	0x005001f3
    3394:	00000284 	andeq	r0, r0, r4, lsl #5
    3398:	0000029c 	muleq	r0, ip, r2
    339c:	9c500001 	mrrcls	0, 0, r0, r0, cr1	; <UNPREDICTABLE>
    33a0:	a4000002 	strge	r0, [r0], #-2
    33a4:	04000002 	streq	r0, [r0], #-2
    33a8:	5001f300 	andpl	pc, r1, r0, lsl #6
    33ac:	0002a49f 	muleq	r2, pc, r4	; <UNPREDICTABLE>
    33b0:	0002a700 	andeq	sl, r2, r0, lsl #14
    33b4:	50000100 	andpl	r0, r0, r0, lsl #2
    33b8:	000002a7 	andeq	r0, r0, r7, lsr #5
    33bc:	000002c8 	andeq	r0, r0, r8, asr #5
    33c0:	01f30004 	mvnseq	r0, r4
    33c4:	02c89f50 	sbceq	r9, r8, #80, 30	; 0x140
    33c8:	02e00000 	rsceq	r0, r0, #0, 0
    33cc:	00010000 	andeq	r0, r1, r0
    33d0:	0002e050 	andeq	lr, r2, r0, asr r0
    33d4:	0002e800 	andeq	lr, r2, r0, lsl #16
    33d8:	f3000400 	vshl.u8	d0, d0, d0
    33dc:	e89f5001 	ldm	pc, {r0, ip, lr}	; <UNPREDICTABLE>
    33e0:	eb000002 	bl	33f0 <__code_start__-0x4c10>
    33e4:	01000002 	tsteq	r0, r2
    33e8:	02eb5000 	rsceq	r5, fp, #0, 0
    33ec:	03380000 	teqeq	r8, #0, 0
    33f0:	00040000 	andeq	r0, r4, r0
    33f4:	9f5001f3 	svcls	0x005001f3
	...
    3414:	00000220 	andeq	r0, r0, r0, lsr #4
    3418:	00000244 	andeq	r0, r0, r4, asr #4
    341c:	44510001 	ldrbmi	r0, [r1], #-1
    3420:	68000002 	stmdavs	r0, {r1}
    3424:	01000002 	tsteq	r0, r2
    3428:	02685100 	rsbeq	r5, r8, #0
    342c:	027b0000 	rsbseq	r0, fp, #0, 0
    3430:	00030000 	andeq	r0, r3, r0
    3434:	7b9f0171 	blvc	fe7c3a00 <__bss_end__+0xfe7b9530>
    3438:	84000002 	strhi	r0, [r0], #-2
    343c:	17000002 	strne	r0, [r0, -r2]
    3440:	01f33800 	mvnseq	r3, r0, lsl #16
    3444:	5101f351 	tstpl	r1, r1, asr r3	; <UNPREDICTABLE>
    3448:	22244b40 	eorcs	r4, r4, #64, 22	; 0x10000
    344c:	0000080c 	andeq	r0, r0, ip, lsl #16
    3450:	01282d80 	smlawbeq	r8, r0, sp, r2
    3454:	9f131600 	svcls	0x00131600
    3458:	00000284 	andeq	r0, r0, r4, lsl #5
    345c:	00000298 	muleq	r0, r8, r2
    3460:	98510001 	ldmdals	r1, {r0}^
    3464:	a4000002 	strge	r0, [r0], #-2
    3468:	04000002 	streq	r0, [r0], #-2
    346c:	5101f300 	mrspl	pc, SP_irq	; <UNPREDICTABLE>
    3470:	0002a49f 	muleq	r2, pc, r4	; <UNPREDICTABLE>
    3474:	0002a700 	andeq	sl, r2, r0, lsl #14
    3478:	51000100 	mrspl	r0, (UNDEF: 16)
    347c:	000002a7 	andeq	r0, r0, r7, lsr #5
    3480:	000002c8 	andeq	r0, r0, r8, asr #5
    3484:	01f30004 	mvnseq	r0, r4
    3488:	02c89f51 	sbceq	r9, r8, #324	; 0x144
    348c:	02dc0000 	sbcseq	r0, ip, #0, 0
    3490:	00010000 	andeq	r0, r1, r0
    3494:	0002dc51 	andeq	sp, r2, r1, asr ip
    3498:	00033800 	andeq	r3, r3, r0, lsl #16
    349c:	38001700 	stmdacc	r0, {r8, r9, sl, ip}
    34a0:	f35101f3 	vbsl	q8, <illegal reg q8.5>, <illegal reg q9.5>
    34a4:	4b405101 	blmi	10178b0 <__bss_end__+0x100d3e0>
    34a8:	080c2224 	stmdaeq	ip, {r2, r5, r9, sp}
    34ac:	2d800000 	stccs	0, cr0, [r0]
    34b0:	16000128 	strne	r0, [r0], -r8, lsr #2
    34b4:	00009f13 	andeq	r9, r0, r3, lsl pc
	...
    34c8:	024c0000 	subeq	r0, ip, #0, 0
    34cc:	025c0000 	subseq	r0, ip, #0, 0
    34d0:	00010000 	andeq	r0, r1, r0
    34d4:	00025c52 	andeq	r5, r2, r2, asr ip
    34d8:	00026400 	andeq	r6, r2, r0, lsl #8
    34dc:	03000500 	movweq	r0, #1280	; 0x500
    34e0:	0000a0bc 	strheq	sl, [r0], -ip
    34e4:	00000264 	andeq	r0, r0, r4, ror #4
    34e8:	0000027b 	andeq	r0, r0, fp, ror r2
    34ec:	c8530001 	ldmdagt	r3, {r0}^
    34f0:	d8000002 	stmdale	r0, {r1}
    34f4:	01000002 	tsteq	r0, r2
    34f8:	02d85200 	sbcseq	r5, r8, #0, 4
    34fc:	02e30000 	rsceq	r0, r3, #0, 0
    3500:	00050000 	andeq	r0, r5, r0
    3504:	00a0bc03 	adceq	fp, r0, r3, lsl #24
    3508:	0002e800 	andeq	lr, r2, r0, lsl #16
    350c:	0002eb00 	andeq	lr, r2, r0, lsl #22
    3510:	53000100 	movwpl	r0, #256	; 0x100
	...
    351c:	02300004 	eorseq	r0, r0, #4, 0
    3520:	02340000 	eorseq	r0, r4, #0, 0
    3524:	00010000 	andeq	r0, r1, r0
    3528:	00000051 	andeq	r0, r0, r1, asr r0
    352c:	00000000 	andeq	r0, r0, r0
    3530:	3c000200 	sfmcc	f0, 4, [r0], {-0}
    3534:	44000002 	strmi	r0, [r0], #-2
    3538:	02000002 	andeq	r0, r0, #2, 0
    353c:	009f3800 	addseq	r3, pc, r0, lsl #16
    3540:	00000000 	andeq	r0, r0, r0
    3544:	02000000 	andeq	r0, r0, #0, 0
    3548:	00023c00 	andeq	r3, r2, r0, lsl #24
    354c:	00024400 	andeq	r4, r2, r0, lsl #8
    3550:	51000100 	mrspl	r0, (UNDEF: 16)
	...
    355c:	00000001 	andeq	r0, r0, r1
    3560:	024c0000 	subeq	r0, ip, #0, 0
    3564:	02640000 	rsbeq	r0, r4, #0, 0
    3568:	00010000 	andeq	r0, r1, r0
    356c:	0002c851 	andeq	ip, r2, r1, asr r8
    3570:	0002dc00 	andeq	sp, r2, r0, lsl #24
    3574:	51000100 	mrspl	r0, (UNDEF: 16)
    3578:	000002dc 	ldrdeq	r0, [r0], -ip
    357c:	000002e8 	andeq	r0, r0, r8, ror #5
    3580:	f3380017 	vqadd.u64	d0, d8, d7
    3584:	01f35101 	mvnseq	r5, r1, lsl #2
    3588:	244b4051 	strbcs	r4, [fp], #-81	; 0xffffffaf
    358c:	00080c22 	andeq	r0, r8, r2, lsr #24
    3590:	282d8000 	stmdacs	sp!, {pc}
    3594:	13160001 	tstne	r6, #1, 0
    3598:	0000009f 	muleq	r0, pc, r0	; <UNPREDICTABLE>
    359c:	00000000 	andeq	r0, r0, r0
    35a0:	00000100 	andeq	r0, r0, r0, lsl #2
    35a4:	00000000 	andeq	r0, r0, r0
    35a8:	00024c00 	andeq	r4, r2, r0, lsl #24
    35ac:	00025c00 	andeq	r5, r2, r0, lsl #24
    35b0:	52000100 	andpl	r0, r0, #0
    35b4:	0000025c 	andeq	r0, r0, ip, asr r2
    35b8:	00000264 	andeq	r0, r0, r4, ror #4
    35bc:	bc030005 	stclt	0, cr0, [r3], {5}
    35c0:	c80000a0 	stmdagt	r0, {r5, r7}
    35c4:	d8000002 	stmdale	r0, {r1}
    35c8:	01000002 	tsteq	r0, r2
    35cc:	02d85200 	sbcseq	r5, r8, #0, 4
    35d0:	02e30000 	rsceq	r0, r3, #0, 0
    35d4:	00050000 	andeq	r0, r5, r0
    35d8:	00a0bc03 	adceq	fp, r0, r3, lsl #24
	...
    35e4:	4c000400 	cfstrsmi	mvf0, [r0], {-0}
    35e8:	50000002 	andpl	r0, r0, r2
    35ec:	01000002 	tsteq	r0, r2
    35f0:	00005100 	andeq	r5, r0, r0, lsl #2
    35f4:	00000000 	andeq	r0, r0, r0
    35f8:	00030000 	andeq	r0, r3, r0
    35fc:	00000264 	andeq	r0, r0, r4, ror #4
    3600:	00000268 	andeq	r0, r0, r8, ror #4
    3604:	00510001 	subseq	r0, r1, r1
    3608:	00000000 	andeq	r0, r0, r0
    360c:	03000000 	movweq	r0, #0
    3610:	00026400 	andeq	r6, r2, r0, lsl #8
    3614:	00026800 	andeq	r6, r2, r0, lsl #16
    3618:	53000100 	movwpl	r0, #256	; 0x100
	...
    362c:	000001bc 			; <UNDEFINED> instruction: 0x000001bc
    3630:	000001d3 	ldrdeq	r0, [r0], -r3
    3634:	d3500001 	cmple	r0, #1, 0
    3638:	f0000001 			; <UNDEFINED> instruction: 0xf0000001
    363c:	01000001 	tsteq	r0, r1
    3640:	01f05400 	mvnseq	r5, r0, lsl #8
    3644:	02080000 	andeq	r0, r8, #0, 0
    3648:	00010000 	andeq	r0, r1, r0
    364c:	00020850 	andeq	r0, r2, r0, asr r8
    3650:	00022000 	andeq	r2, r2, r0
    3654:	54000100 	strpl	r0, [r0], #-256	; 0xffffff00
	...
    3664:	000001d8 	ldrdeq	r0, [r0], -r8
    3668:	000001e3 	andeq	r0, r0, r3, ror #3
    366c:	e3500001 	cmp	r0, #1, 0
    3670:	f0000001 			; <UNDEFINED> instruction: 0xf0000001
    3674:	01000001 	tsteq	r0, r1
    3678:	00005500 	andeq	r5, r0, r0, lsl #10
	...
    3690:	01240000 			; <UNDEFINED> instruction: 0x01240000
    3694:	01380000 	teqeq	r8, r0
    3698:	00010000 	andeq	r0, r1, r0
    369c:	00013850 	andeq	r3, r1, r0, asr r8
    36a0:	00013c00 	andeq	r3, r1, r0, lsl #24
    36a4:	70000300 	andvc	r0, r0, r0, lsl #6
    36a8:	013c9f79 	teqeq	ip, r9, ror pc
    36ac:	01600000 	cmneq	r0, r0
    36b0:	00010000 	andeq	r0, r1, r0
    36b4:	00016053 	andeq	r6, r1, r3, asr r0
    36b8:	00017800 	andeq	r7, r1, r0, lsl #16
    36bc:	50000100 	andpl	r0, r0, r0, lsl #2
    36c0:	00000178 	andeq	r0, r0, r8, ror r1
    36c4:	00000180 	andeq	r0, r0, r0, lsl #3
    36c8:	01f30004 	mvnseq	r0, r4
    36cc:	01809f50 	orreq	r9, r0, r0, asr pc
    36d0:	01900000 	orrseq	r0, r0, r0
    36d4:	00010000 	andeq	r0, r1, r0
    36d8:	00019053 	andeq	r9, r1, r3, asr r0
    36dc:	00019f00 	andeq	r9, r1, r0, lsl #30
    36e0:	91000200 	mrsls	r0, R8_usr
    36e4:	00019f68 	andeq	r9, r1, r8, ror #30
    36e8:	0001bc00 	andeq	fp, r1, r0, lsl #24
    36ec:	f3000900 	vmls.i8	d0, d0, d0
    36f0:	07235001 	streq	r5, [r3, -r1]!
    36f4:	9f1af809 	svcls	0x001af809
	...
    3704:	00000144 	andeq	r0, r0, r4, asr #2
    3708:	00000160 	andeq	r0, r0, r0, ror #2
    370c:	80500001 	subshi	r0, r0, r1
    3710:	9c000001 	stcls	0, cr0, [r0], {1}
    3714:	01000001 	tsteq	r0, r1
    3718:	00005000 	andeq	r5, r0, r0
    371c:	00000000 	andeq	r0, r0, r0
    3720:	00030000 	andeq	r0, r3, r0
    3724:	00000134 	andeq	r0, r0, r4, lsr r1
    3728:	0000013c 	andeq	r0, r0, ip, lsr r1
    372c:	9f380002 	svcls	0x00380002
	...
    3738:	00000003 	andeq	r0, r0, r3
    373c:	00000134 	andeq	r0, r0, r4, lsr r1
    3740:	00000138 	andeq	r0, r0, r8, lsr r1
    3744:	38500001 	ldmdacc	r0, {r0}^
    3748:	3c000001 	stccc	0, cr0, [r0], {1}
    374c:	03000001 	movweq	r0, #1
    3750:	9f797000 	svcls	0x00797000
	...
    3768:	00300000 	eorseq	r0, r0, r0
    376c:	00600000 	rsbeq	r0, r0, r0
    3770:	00010000 	andeq	r0, r1, r0
    3774:	00006050 	andeq	r6, r0, r0, asr r0
    3778:	00006c00 	andeq	r6, r0, r0, lsl #24
    377c:	03000500 	movweq	r0, #1280	; 0x500
    3780:	0000a0bc 	strheq	sl, [r0], -ip
    3784:	0000006c 	andeq	r0, r0, ip, rrx
    3788:	00000084 	andeq	r0, r0, r4, lsl #1
    378c:	84500001 	ldrbhi	r0, [r0], #-1
    3790:	8c000000 	stchi	0, cr0, [r0], {-0}
    3794:	04000000 	streq	r0, [r0], #-0
    3798:	5001f300 	andpl	pc, r1, r0, lsl #6
    379c:	00008c9f 	muleq	r0, pc, ip	; <UNPREDICTABLE>
    37a0:	0000ac00 	andeq	sl, r0, r0, lsl #24
    37a4:	50000100 	andpl	r0, r0, r0, lsl #2
    37a8:	000000ac 	andeq	r0, r0, ip, lsr #1
    37ac:	000000af 	andeq	r0, r0, pc, lsr #1
    37b0:	68910002 	ldmvs	r1, {r1}
    37b4:	000000af 	andeq	r0, r0, pc, lsr #1
    37b8:	000000cc 	andeq	r0, r0, ip, asr #1
    37bc:	01f30004 	mvnseq	r0, r4
    37c0:	00009f50 	andeq	r9, r0, r0, asr pc
	...
    37d0:	00300000 	eorseq	r0, r0, r0
    37d4:	00800000 	addeq	r0, r0, r0
    37d8:	00010000 	andeq	r0, r1, r0
    37dc:	00008051 	andeq	r8, r0, r1, asr r0
    37e0:	00008c00 	andeq	r8, r0, r0, lsl #24
    37e4:	f3000400 	vshl.u8	d0, d0, d0
    37e8:	8c9f5101 	ldfhis	f5, [pc], {1}
    37ec:	a8000000 	stmdage	r0, {}	; <UNPREDICTABLE>
    37f0:	01000000 	mrseq	r0, (UNDEF: 0)
    37f4:	00a85100 	adceq	r5, r8, r0, lsl #2
    37f8:	00cc0000 	sbceq	r0, ip, r0
    37fc:	00040000 	andeq	r0, r4, r0
    3800:	9f5101f3 	svcls	0x005101f3
	...
    380c:	00000001 	andeq	r0, r0, r1
	...
    3818:	00380000 	eorseq	r0, r8, r0
    381c:	00600000 	rsbeq	r0, r0, r0
    3820:	00010000 	andeq	r0, r1, r0
    3824:	00006050 	andeq	r6, r0, r0, asr r0
    3828:	00006c00 	andeq	r6, r0, r0, lsl #24
    382c:	03000500 	movweq	r0, #1280	; 0x500
    3830:	0000a0bc 	strheq	sl, [r0], -ip
    3834:	0000006c 	andeq	r0, r0, ip, rrx
    3838:	00000084 	andeq	r0, r0, r4, lsl #1
    383c:	84500001 	ldrbhi	r0, [r0], #-1
    3840:	8c000000 	stchi	0, cr0, [r0], {-0}
    3844:	04000000 	streq	r0, [r0], #-0
    3848:	5001f300 	andpl	pc, r1, r0, lsl #6
    384c:	00008c9f 	muleq	r0, pc, ip	; <UNPREDICTABLE>
    3850:	0000ac00 	andeq	sl, r0, r0, lsl #24
    3854:	50000100 	andpl	r0, r0, r0, lsl #2
    3858:	000000ac 	andeq	r0, r0, ip, lsr #1
    385c:	000000af 	andeq	r0, r0, pc, lsr #1
    3860:	68910002 	ldmvs	r1, {r1}
    3864:	000000af 	andeq	r0, r0, pc, lsr #1
    3868:	000000cc 	andeq	r0, r0, ip, asr #1
    386c:	01f30004 	mvnseq	r0, r4
    3870:	00009f50 	andeq	r9, r0, r0, asr pc
	...
    3880:	000b0000 	andeq	r0, fp, r0
    3884:	00010000 	andeq	r0, r1, r0
    3888:	00000b50 	andeq	r0, r0, r0, asr fp
    388c:	00001400 	andeq	r1, r0, r0, lsl #8
    3890:	54000100 	strpl	r0, [r0], #-256	; 0xffffff00
	...
    38a4:	00000018 	andeq	r0, r0, r8, lsl r0
    38a8:	18510001 	ldmdane	r1, {r0}^
    38ac:	2c000000 	stccs	0, cr0, [r0], {-0}
    38b0:	04000000 	streq	r0, [r0], #-0
    38b4:	5101f300 	mrspl	pc, SP_irq	; <UNPREDICTABLE>
    38b8:	0000009f 	muleq	r0, pc, r0	; <UNPREDICTABLE>
    38bc:	00000000 	andeq	r0, r0, r0
    38c0:	00000200 	andeq	r0, r0, r0, lsl #4
    38c4:	00000000 	andeq	r0, r0, r0
    38c8:	01010000 	mrseq	r0, (UNDEF: 1)
    38cc:	00000000 	andeq	r0, r0, r0
    38d0:	04000000 	streq	r0, [r0], #-0
    38d4:	01000000 	mrseq	r0, (UNDEF: 0)
    38d8:	00045000 	andeq	r5, r4, r0
    38dc:	00080000 	andeq	r0, r8, r0
    38e0:	00010000 	andeq	r0, r1, r0
    38e4:	00000852 	andeq	r0, r0, r2, asr r8
    38e8:	00000c00 	andeq	r0, r0, r0, lsl #24
    38ec:	72000300 	andvc	r0, r0, #0, 6
    38f0:	000c9f01 	andeq	r9, ip, r1, lsl #30
    38f4:	00180000 	andseq	r0, r8, r0
    38f8:	00010000 	andeq	r0, r1, r0
    38fc:	00001852 	andeq	r1, r0, r2, asr r8
    3900:	00001c00 	andeq	r1, r0, r0, lsl #24
    3904:	53000100 	movwpl	r0, #256	; 0x100
    3908:	0000001c 	andeq	r0, r0, ip, lsl r0
    390c:	00000024 	andeq	r0, r0, r4, lsr #32
    3910:	01730003 	cmneq	r3, r3
    3914:	0000249f 	muleq	r0, pc, r4	; <UNPREDICTABLE>
    3918:	00002c00 	andeq	r2, r0, r0, lsl #24
    391c:	53000100 	movwpl	r0, #256	; 0x100
	...
    3928:	00020203 	andeq	r0, r2, r3, lsl #4
    392c:	00000000 	andeq	r0, r0, r0
    3930:	00180000 	andseq	r0, r8, r0
    3934:	00010000 	andeq	r0, r1, r0
    3938:	00001851 	andeq	r1, r0, r1, asr r8
    393c:	00001c00 	andeq	r1, r0, r0, lsl #24
    3940:	71000300 	mrsvc	r0, LR_irq
    3944:	001c9f01 	andseq	r9, ip, r1, lsl #30
    3948:	002c0000 	eoreq	r0, ip, r0
    394c:	00010000 	andeq	r0, r1, r0
    3950:	00000051 	andeq	r0, r0, r1, asr r0
	...
    395c:	08000000 	stmdaeq	r0, {}	; <UNPREDICTABLE>
    3960:	0c000000 	stceq	0, cr0, [r0], {-0}
    3964:	02000000 	andeq	r0, r0, #0, 0
    3968:	0c007200 	sfmeq	f7, 4, [r0], {-0}
    396c:	18000000 	stmdane	r0, {}	; <UNPREDICTABLE>
    3970:	02000000 	andeq	r0, r0, #0, 0
    3974:	1c007300 	stcne	3, cr7, [r0], {-0}
    3978:	2c000000 	stccs	0, cr0, [r0], {-0}
    397c:	01000000 	mrseq	r0, (UNDEF: 0)
    3980:	00005200 	andeq	r5, r0, r0, lsl #4
	...
    3998:	00140000 	andseq	r0, r4, r0
    399c:	00010000 	andeq	r0, r1, r0
    39a0:	00001450 	andeq	r1, r0, r0, asr r4
    39a4:	00001800 	andeq	r1, r0, r0, lsl #16
    39a8:	70000300 	andvc	r0, r0, r0, lsl #6
    39ac:	00189f01 	andseq	r9, r8, r1, lsl #30
    39b0:	00200000 	eoreq	r0, r0, r0
    39b4:	00010000 	andeq	r0, r1, r0
    39b8:	00002450 	andeq	r2, r0, r0, asr r4
    39bc:	00002800 	andeq	r2, r0, r0, lsl #16
    39c0:	50000100 	andpl	r0, r0, r0, lsl #2
    39c4:	00000028 	andeq	r0, r0, r8, lsr #32
    39c8:	00000030 	andeq	r0, r0, r0, lsr r0
    39cc:	01700003 	cmneq	r0, r3
    39d0:	0000389f 	muleq	r0, pc, r8	; <UNPREDICTABLE>
    39d4:	00004000 	andeq	r4, r0, r0
    39d8:	50000100 	andpl	r0, r0, r0, lsl #2
	...
    39ec:	00240000 	eoreq	r0, r4, r0
    39f0:	00010000 	andeq	r0, r1, r0
    39f4:	00002451 	andeq	r2, r0, r1, asr r4
    39f8:	00002800 	andeq	r2, r0, r0, lsl #16
    39fc:	5c000100 	stfpls	f0, [r0], {-0}
    3a00:	00000028 	andeq	r0, r0, r8, lsr #32
    3a04:	00000044 	andeq	r0, r0, r4, asr #32
    3a08:	00510001 	subseq	r0, r1, r1
	...
    3a14:	00000202 	andeq	r0, r0, r2, lsl #4
    3a18:	00000000 	andeq	r0, r0, r0
    3a1c:	00000400 	andeq	r0, r0, r0, lsl #8
    3a20:	51000100 	mrspl	r0, (UNDEF: 16)
    3a24:	00000004 	andeq	r0, r0, r4
    3a28:	00000008 	andeq	r0, r0, r8
    3a2c:	01710003 	cmneq	r1, r3
    3a30:	0000089f 	muleq	r0, pc, r8	; <UNPREDICTABLE>
    3a34:	00001800 	andeq	r1, r0, r0, lsl #16
    3a38:	51000100 	mrspl	r0, (UNDEF: 16)
	...
    3a44:	00000002 	andeq	r0, r0, r2
    3a48:	00040000 	andeq	r0, r4, r0
    3a4c:	00010000 	andeq	r0, r1, r0
    3a50:	00000050 	andeq	r0, r0, r0, asr r0
	...
    3a60:	00000800 	andeq	r0, r0, r0, lsl #16
    3a64:	50000100 	andpl	r0, r0, r0, lsl #2
    3a68:	00000008 	andeq	r0, r0, r8
    3a6c:	00000030 	andeq	r0, r0, r0, lsr r0
    3a70:	01f30004 	mvnseq	r0, r4
    3a74:	00009f50 	andeq	r9, r0, r0, asr pc
	...
    3a84:	00080000 	andeq	r0, r8, r0
    3a88:	00010000 	andeq	r0, r1, r0
    3a8c:	00000851 	andeq	r0, r0, r1, asr r8
    3a90:	00003000 	andeq	r3, r0, r0
    3a94:	f3000400 	vshl.u8	d0, d0, d0
    3a98:	009f5101 	addseq	r5, pc, r1, lsl #2
	...
    3aa8:	02020100 	andeq	r0, r2, #0
    3aac:	00000000 	andeq	r0, r0, r0
    3ab0:	00000400 	andeq	r0, r0, r0, lsl #8
    3ab4:	52000100 	andpl	r0, r0, #0
    3ab8:	00000004 	andeq	r0, r0, r4
    3abc:	00000008 	andeq	r0, r0, r8
    3ac0:	01f30004 	mvnseq	r0, r4
    3ac4:	00089f52 	andeq	r9, r8, r2, asr pc
    3ac8:	00180000 	andseq	r0, r8, r0
    3acc:	00060000 	andeq	r0, r6, r0
    3ad0:	315201f3 	ldrshcc	r0, [r2, #-19]	; 0xffffffed
    3ad4:	00189f1c 	andseq	r9, r8, ip, lsl pc
    3ad8:	00180000 	andseq	r0, r8, r0
    3adc:	00040000 	andeq	r0, r4, r0
    3ae0:	9f5201f3 	svcls	0x005201f3
    3ae4:	00000018 	andeq	r0, r0, r8, lsl r0
    3ae8:	00000030 	andeq	r0, r0, r0, lsr r0
    3aec:	01f30006 	mvnseq	r0, r6
    3af0:	9f1c3152 	svcls	0x001c3152
	...
    3afc:	00000002 	andeq	r0, r0, r2
    3b00:	00000001 	andeq	r0, r0, r1
    3b04:	00000000 	andeq	r0, r0, r0
    3b08:	0000000c 	andeq	r0, r0, ip
    3b0c:	0c500001 	mrrceq	0, 0, r0, r0, cr1	; <UNPREDICTABLE>
    3b10:	18000000 	stmdane	r0, {}	; <UNPREDICTABLE>
    3b14:	03000000 	movweq	r0, #0
    3b18:	9f7f7000 	svcls	0x007f7000
    3b1c:	00000018 	andeq	r0, r0, r8, lsl r0
    3b20:	00000024 	andeq	r0, r0, r4, lsr #32
    3b24:	28500001 	ldmdacs	r0, {r0}^
    3b28:	2c000000 	stccs	0, cr0, [r0], {-0}
    3b2c:	03000000 	movweq	r0, #0
    3b30:	9f7f7000 	svcls	0x007f7000
	...
    3b3c:	00000002 	andeq	r0, r0, r2
    3b40:	00000000 	andeq	r0, r0, r0
    3b44:	000c0000 	andeq	r0, ip, r0
    3b48:	00010000 	andeq	r0, r1, r0
    3b4c:	00000c51 	andeq	r0, r0, r1, asr ip
    3b50:	00001000 	andeq	r1, r0, r0
    3b54:	71000300 	mrsvc	r0, LR_irq
    3b58:	00109f01 	andseq	r9, r0, r1, lsl #30
    3b5c:	00300000 	eorseq	r0, r0, r0
    3b60:	00010000 	andeq	r0, r1, r0
    3b64:	00000051 	andeq	r0, r0, r1, asr r0
    3b68:	00000000 	andeq	r0, r0, r0
	...

Disassembly of section .debug_aranges:

00000000 <.debug_aranges>:
   0:	0000001c 	andeq	r0, r0, ip, lsl r0
   4:	00000002 	andeq	r0, r0, r2
   8:	00040000 	andeq	r0, r4, r0
   c:	00000000 	andeq	r0, r0, r0
  10:	00008040 	andeq	r8, r0, r0, asr #32
  14:	00000098 	muleq	r0, r8, r0
	...
  20:	0000001c 	andeq	r0, r0, ip, lsl r0
  24:	02a80002 	adceq	r0, r8, #2, 0
  28:	00040000 	andeq	r0, r4, r0
  2c:	00000000 	andeq	r0, r0, r0
  30:	000080e0 	andeq	r8, r0, r0, ror #1
  34:	00000640 	andeq	r0, r0, r0, asr #12
	...
  40:	0000001c 	andeq	r0, r0, ip, lsl r0
  44:	2d210002 	stccs	0, cr0, [r1, #-8]!
  48:	00040000 	andeq	r0, r4, r0
  4c:	00000000 	andeq	r0, r0, r0
  50:	00008720 	andeq	r8, r0, r0, lsr #14
  54:	000001a0 	andeq	r0, r0, r0, lsr #3
	...
  60:	0000001c 	andeq	r0, r0, ip, lsl r0
  64:	333e0002 	teqcc	lr, #2, 0
  68:	00040000 	andeq	r0, r4, r0
  6c:	00000000 	andeq	r0, r0, r0
  70:	000088c0 	andeq	r8, r0, r0, asr #17
  74:	00000078 	andeq	r0, r0, r8, ror r0
	...
  80:	0000001c 	andeq	r0, r0, ip, lsl r0
  84:	34820002 	strcc	r0, [r2], #2
  88:	00040000 	andeq	r0, r4, r0
  8c:	00000000 	andeq	r0, r0, r0
  90:	00008938 	andeq	r8, r0, r8, lsr r9
  94:	00000058 	andeq	r0, r0, r8, asr r0
	...
  a0:	0000001c 	andeq	r0, r0, ip, lsl r0
  a4:	36230002 	strtcc	r0, [r3], -r2
  a8:	00040000 	andeq	r0, r4, r0
  ac:	00000000 	andeq	r0, r0, r0
  b0:	00008990 	muleq	r0, r0, r9
  b4:	00000038 	andeq	r0, r0, r8, lsr r0
	...
  c0:	0000001c 	andeq	r0, r0, ip, lsl r0
  c4:	371a0002 	ldrcc	r0, [sl, -r2]
  c8:	00040000 	andeq	r0, r4, r0
  cc:	00000000 	andeq	r0, r0, r0
  d0:	000089c8 	andeq	r8, r0, r8, asr #19
  d4:	000009b4 			; <UNDEFINED> instruction: 0x000009b4
	...
  e0:	0000001c 	andeq	r0, r0, ip, lsl r0
  e4:	439d0002 	orrsmi	r0, sp, #2, 0
  e8:	00040000 	andeq	r0, r4, r0
  ec:	00000000 	andeq	r0, r0, r0
  f0:	0000937c 	andeq	r9, r0, ip, ror r3
  f4:	00000020 	andeq	r0, r0, r0, lsr #32
	...
 100:	0000001c 	andeq	r0, r0, ip, lsl r0
 104:	44ab0002 	strtmi	r0, [fp], #2
 108:	00040000 	andeq	r0, r4, r0
 10c:	00000000 	andeq	r0, r0, r0
 110:	0000939c 	muleq	r0, ip, r3
 114:	0000002c 	andeq	r0, r0, ip, lsr #32
	...
 120:	0000001c 	andeq	r0, r0, ip, lsl r0
 124:	45de0002 	ldrbmi	r0, [lr, #2]
 128:	00040000 	andeq	r0, r4, r0
 12c:	00000000 	andeq	r0, r0, r0
 130:	000093c8 	andeq	r9, r0, r8, asr #7
 134:	000000f8 	strdeq	r0, [r0], -r8
	...
 140:	0000001c 	andeq	r0, r0, ip, lsl r0
 144:	47720002 	ldrbmi	r0, [r2, -r2]!
 148:	00040000 	andeq	r0, r4, r0
 14c:	00000000 	andeq	r0, r0, r0
 150:	000094c0 	andeq	r9, r0, r0, asr #9
 154:	00000004 	andeq	r0, r0, r4
	...
 160:	0000001c 	andeq	r0, r0, ip, lsl r0
 164:	48440002 	stmdami	r4, {r1}^
 168:	00040000 	andeq	r0, r4, r0
 16c:	00000000 	andeq	r0, r0, r0
 170:	000094c4 	andeq	r9, r0, r4, asr #9
 174:	0000008c 	andeq	r0, r0, ip, lsl #1
	...
 180:	0000001c 	andeq	r0, r0, ip, lsl r0
 184:	4ac50002 	bmi	ff140194 <__bss_end__+0xff135cc4>
 188:	00040000 	andeq	r0, r4, r0
 18c:	00000000 	andeq	r0, r0, r0
 190:	00009550 	andeq	r9, r0, r0, asr r5
 194:	0000011c 	andeq	r0, r0, ip, lsl r1
	...
 1a0:	0000001c 	andeq	r0, r0, ip, lsl r0
 1a4:	50080002 	andpl	r0, r8, r2
 1a8:	00040000 	andeq	r0, r4, r0
 1ac:	00000000 	andeq	r0, r0, r0
 1b0:	0000966c 	andeq	r9, r0, ip, ror #12
 1b4:	000001f0 	strdeq	r0, [r0], -r0	; <UNPREDICTABLE>
	...
 1c0:	0000001c 	andeq	r0, r0, ip, lsl r0
 1c4:	55d90002 	ldrbpl	r0, [r9, #2]
 1c8:	00040000 	andeq	r0, r4, r0
 1cc:	00000000 	andeq	r0, r0, r0
 1d0:	0000985c 	andeq	r9, r0, ip, asr r8
 1d4:	000003b0 			; <UNDEFINED> instruction: 0x000003b0
	...
 1e0:	0000001c 	andeq	r0, r0, ip, lsl r0
 1e4:	5ec60002 	cdppl	0, 12, cr0, cr6, cr2, {0}
 1e8:	00040000 	andeq	r0, r4, r0
 1ec:	00000000 	andeq	r0, r0, r0
 1f0:	00009c0c 	andeq	r9, r0, ip, lsl #24
 1f4:	0000003c 	andeq	r0, r0, ip, lsr r0
	...
 200:	0000001c 	andeq	r0, r0, ip, lsl r0
 204:	60130002 	andsvs	r0, r3, r2
 208:	00040000 	andeq	r0, r4, r0
 20c:	00000000 	andeq	r0, r0, r0
 210:	00009c48 	andeq	r9, r0, r8, asr #24
 214:	0000002c 	andeq	r0, r0, ip, lsr #32
	...
 220:	0000001c 	andeq	r0, r0, ip, lsl r0
 224:	614e0002 	cmpvs	lr, r2
 228:	00040000 	andeq	r0, r4, r0
 22c:	00000000 	andeq	r0, r0, r0
 230:	00009c74 	andeq	r9, r0, r4, ror ip
 234:	00000044 	andeq	r0, r0, r4, asr #32
	...
 240:	0000001c 	andeq	r0, r0, ip, lsl r0
 244:	62490002 	subvs	r0, r9, #2, 0
 248:	00040000 	andeq	r0, r4, r0
 24c:	00000000 	andeq	r0, r0, r0
 250:	00009cb8 			; <UNDEFINED> instruction: 0x00009cb8
 254:	00000018 	andeq	r0, r0, r8, lsl r0
	...
 260:	0000001c 	andeq	r0, r0, ip, lsl r0
 264:	635c0002 	cmpvs	ip, #2, 0
 268:	00040000 	andeq	r0, r4, r0
 26c:	00000000 	andeq	r0, r0, r0
 270:	00009cd0 	ldrdeq	r9, [r0], -r0
 274:	00000030 	andeq	r0, r0, r0, lsr r0
	...
 280:	0000001c 	andeq	r0, r0, ip, lsl r0
 284:	64ae0002 	strtvs	r0, [lr], #2
 288:	00040000 	andeq	r0, r4, r0
 28c:	00000000 	andeq	r0, r0, r0
 290:	00009d00 	andeq	r9, r0, r0, lsl #26
 294:	00000004 	andeq	r0, r0, r4
	...

Disassembly of section .debug_ranges:

00000000 <.debug_ranges>:
       0:	00000020 	andeq	r0, r0, r0, lsr #32
       4:	00000024 	andeq	r0, r0, r4, lsr #32
       8:	00000028 	andeq	r0, r0, r8, lsr #32
       c:	00000080 	andeq	r0, r0, r0, lsl #1
	...
      18:	00000028 	andeq	r0, r0, r8, lsr #32
      1c:	0000002c 	andeq	r0, r0, ip, lsr #32
      20:	0000003c 	andeq	r0, r0, ip, lsr r0
      24:	00000074 	andeq	r0, r0, r4, ror r0
	...
      48:	00000004 	andeq	r0, r0, r4
      4c:	0000000c 	andeq	r0, r0, ip
      50:	00000010 	andeq	r0, r0, r0, lsl r0
      54:	00000030 	andeq	r0, r0, r0, lsr r0
	...
      68:	00000004 	andeq	r0, r0, r4
      6c:	00000008 	andeq	r0, r0, r8
	...
      78:	00000008 	andeq	r0, r0, r8
      7c:	0000000c 	andeq	r0, r0, ip
      80:	00000010 	andeq	r0, r0, r0, lsl r0
      84:	00000018 	andeq	r0, r0, r8, lsl r0
      88:	0000001c 	andeq	r0, r0, ip, lsl r0
      8c:	00000020 	andeq	r0, r0, r0, lsr #32
	...
      98:	00000018 	andeq	r0, r0, r8, lsl r0
      9c:	0000001c 	andeq	r0, r0, ip, lsl r0
      a0:	00000020 	andeq	r0, r0, r0, lsr #32
      a4:	00000030 	andeq	r0, r0, r0, lsr r0
	...
      b0:	00000030 	andeq	r0, r0, r0, lsr r0
      b4:	00000058 	andeq	r0, r0, r8, asr r0
      b8:	00000058 	andeq	r0, r0, r8, asr r0
      bc:	00000058 	andeq	r0, r0, r8, asr r0
      c0:	00000058 	andeq	r0, r0, r8, asr r0
      c4:	00000068 	andeq	r0, r0, r8, rrx
      c8:	00000068 	andeq	r0, r0, r8, rrx
      cc:	00000080 	andeq	r0, r0, r0, lsl #1
      d0:	00000080 	andeq	r0, r0, r0, lsl #1
      d4:	000000b4 	strheq	r0, [r0], -r4
      d8:	000000b4 	strheq	r0, [r0], -r4
      dc:	000000cc 	andeq	r0, r0, ip, asr #1
      e0:	000000cc 	andeq	r0, r0, ip, asr #1
      e4:	00000100 	andeq	r0, r0, r0, lsl #2
      e8:	00000100 	andeq	r0, r0, r0, lsl #2
      ec:	00000118 	andeq	r0, r0, r8, lsl r1
      f0:	00000118 	andeq	r0, r0, r8, lsl r1
      f4:	00000158 	andeq	r0, r0, r8, asr r1
      f8:	00000158 	andeq	r0, r0, r8, asr r1
      fc:	00000170 	andeq	r0, r0, r0, ror r1
     100:	00000170 	andeq	r0, r0, r0, ror r1
     104:	00000198 	muleq	r0, r8, r1
     108:	00000198 	muleq	r0, r8, r1
     10c:	000001b0 			; <UNDEFINED> instruction: 0x000001b0
     110:	000001b0 			; <UNDEFINED> instruction: 0x000001b0
     114:	000001d8 	ldrdeq	r0, [r0], -r8
     118:	000001d8 	ldrdeq	r0, [r0], -r8
     11c:	000001f0 	strdeq	r0, [r0], -r0	; <UNPREDICTABLE>
     120:	000001f0 	strdeq	r0, [r0], -r0	; <UNPREDICTABLE>
     124:	00000220 	andeq	r0, r0, r0, lsr #4
	...
     130:	00000044 	andeq	r0, r0, r4, asr #32
     134:	0000004c 	andeq	r0, r0, ip, asr #32
     138:	0000004c 	andeq	r0, r0, ip, asr #32
     13c:	00000050 	andeq	r0, r0, r0, asr r0
     140:	00000058 	andeq	r0, r0, r8, asr r0
     144:	00000058 	andeq	r0, r0, r8, asr r0
     148:	00000058 	andeq	r0, r0, r8, asr r0
     14c:	00000058 	andeq	r0, r0, r8, asr r0
     150:	00000058 	andeq	r0, r0, r8, asr r0
     154:	00000068 	andeq	r0, r0, r8, rrx
     158:	00000068 	andeq	r0, r0, r8, rrx
     15c:	00000080 	andeq	r0, r0, r0, lsl #1
     160:	00000080 	andeq	r0, r0, r0, lsl #1
     164:	000000b4 	strheq	r0, [r0], -r4
     168:	000000b4 	strheq	r0, [r0], -r4
     16c:	000000cc 	andeq	r0, r0, ip, asr #1
     170:	000000cc 	andeq	r0, r0, ip, asr #1
     174:	00000100 	andeq	r0, r0, r0, lsl #2
     178:	00000100 	andeq	r0, r0, r0, lsl #2
     17c:	00000118 	andeq	r0, r0, r8, lsl r1
     180:	00000118 	andeq	r0, r0, r8, lsl r1
     184:	0000013c 	andeq	r0, r0, ip, lsr r1
     188:	00000158 	andeq	r0, r0, r8, asr r1
     18c:	00000158 	andeq	r0, r0, r8, asr r1
     190:	00000158 	andeq	r0, r0, r8, asr r1
     194:	00000170 	andeq	r0, r0, r0, ror r1
     198:	00000170 	andeq	r0, r0, r0, ror r1
     19c:	00000198 	muleq	r0, r8, r1
     1a0:	00000198 	muleq	r0, r8, r1
     1a4:	000001b0 			; <UNDEFINED> instruction: 0x000001b0
     1a8:	000001b0 			; <UNDEFINED> instruction: 0x000001b0
     1ac:	000001d8 	ldrdeq	r0, [r0], -r8
     1b0:	000001d8 	ldrdeq	r0, [r0], -r8
     1b4:	000001f0 	strdeq	r0, [r0], -r0	; <UNPREDICTABLE>
     1b8:	000001f0 	strdeq	r0, [r0], -r0	; <UNPREDICTABLE>
     1bc:	00000220 	andeq	r0, r0, r0, lsr #4
	...
     1c8:	00000044 	andeq	r0, r0, r4, asr #32
     1cc:	0000004c 	andeq	r0, r0, ip, asr #32
     1d0:	0000004c 	andeq	r0, r0, ip, asr #32
     1d4:	00000050 	andeq	r0, r0, r0, asr r0
     1d8:	00000058 	andeq	r0, r0, r8, asr r0
     1dc:	00000058 	andeq	r0, r0, r8, asr r0
     1e0:	00000058 	andeq	r0, r0, r8, asr r0
     1e4:	00000068 	andeq	r0, r0, r8, rrx
     1e8:	00000068 	andeq	r0, r0, r8, rrx
     1ec:	00000080 	andeq	r0, r0, r0, lsl #1
     1f0:	00000080 	andeq	r0, r0, r0, lsl #1
     1f4:	000000a4 	andeq	r0, r0, r4, lsr #1
     1f8:	000001d8 	ldrdeq	r0, [r0], -r8
     1fc:	000001d8 	ldrdeq	r0, [r0], -r8
     200:	000001d8 	ldrdeq	r0, [r0], -r8
     204:	000001f0 	strdeq	r0, [r0], -r0	; <UNPREDICTABLE>
     208:	000001f0 	strdeq	r0, [r0], -r0	; <UNPREDICTABLE>
     20c:	00000220 	andeq	r0, r0, r0, lsr #4
	...
     218:	00000044 	andeq	r0, r0, r4, asr #32
     21c:	0000004c 	andeq	r0, r0, ip, asr #32
     220:	0000004c 	andeq	r0, r0, ip, asr #32
     224:	00000050 	andeq	r0, r0, r0, asr r0
     228:	00000058 	andeq	r0, r0, r8, asr r0
     22c:	00000068 	andeq	r0, r0, r8, rrx
     230:	00000068 	andeq	r0, r0, r8, rrx
     234:	00000080 	andeq	r0, r0, r0, lsl #1
     238:	00000080 	andeq	r0, r0, r0, lsl #1
     23c:	000000a4 	andeq	r0, r0, r4, lsr #1
     240:	000001d8 	ldrdeq	r0, [r0], -r8
     244:	000001d8 	ldrdeq	r0, [r0], -r8
     248:	000001d8 	ldrdeq	r0, [r0], -r8
     24c:	000001f0 	strdeq	r0, [r0], -r0	; <UNPREDICTABLE>
     250:	000001f0 	strdeq	r0, [r0], -r0	; <UNPREDICTABLE>
     254:	00000220 	andeq	r0, r0, r0, lsr #4
	...
     260:	00000044 	andeq	r0, r0, r4, asr #32
     264:	0000004c 	andeq	r0, r0, ip, asr #32
     268:	0000005c 	andeq	r0, r0, ip, asr r0
     26c:	0000005c 	andeq	r0, r0, ip, asr r0
     270:	00000060 	andeq	r0, r0, r0, rrx
     274:	00000068 	andeq	r0, r0, r8, rrx
     278:	00000068 	andeq	r0, r0, r8, rrx
     27c:	00000080 	andeq	r0, r0, r0, lsl #1
     280:	00000080 	andeq	r0, r0, r0, lsl #1
     284:	00000098 	muleq	r0, r8, r0
     288:	000001d8 	ldrdeq	r0, [r0], -r8
     28c:	000001d8 	ldrdeq	r0, [r0], -r8
     290:	000001d8 	ldrdeq	r0, [r0], -r8
     294:	000001f0 	strdeq	r0, [r0], -r0	; <UNPREDICTABLE>
     298:	000001f0 	strdeq	r0, [r0], -r0	; <UNPREDICTABLE>
     29c:	00000208 	andeq	r0, r0, r8, lsl #4
	...
     2a8:	00000044 	andeq	r0, r0, r4, asr #32
     2ac:	0000004c 	andeq	r0, r0, ip, asr #32
     2b0:	000001d8 	ldrdeq	r0, [r0], -r8
     2b4:	000001d8 	ldrdeq	r0, [r0], -r8
     2b8:	000001d8 	ldrdeq	r0, [r0], -r8
     2bc:	000001f0 	strdeq	r0, [r0], -r0	; <UNPREDICTABLE>
	...
     2c8:	00000044 	andeq	r0, r0, r4, asr #32
     2cc:	0000004c 	andeq	r0, r0, ip, asr #32
     2d0:	000001d8 	ldrdeq	r0, [r0], -r8
     2d4:	000001f0 	strdeq	r0, [r0], -r0	; <UNPREDICTABLE>
	...
     2e0:	00000044 	andeq	r0, r0, r4, asr #32
     2e4:	0000004c 	andeq	r0, r0, ip, asr #32
     2e8:	000001dc 	ldrdeq	r0, [r0], -ip
     2ec:	000001e0 	andeq	r0, r0, r0, ror #3
	...
     2f8:	00000068 	andeq	r0, r0, r8, rrx
     2fc:	00000068 	andeq	r0, r0, r8, rrx
     300:	00000068 	andeq	r0, r0, r8, rrx
     304:	00000080 	andeq	r0, r0, r0, lsl #1
	...
     310:	00000080 	andeq	r0, r0, r0, lsl #1
     314:	00000080 	andeq	r0, r0, r0, lsl #1
     318:	00000080 	andeq	r0, r0, r0, lsl #1
     31c:	00000098 	muleq	r0, r8, r0
	...
     328:	000001f0 	strdeq	r0, [r0], -r0	; <UNPREDICTABLE>
     32c:	000001f0 	strdeq	r0, [r0], -r0	; <UNPREDICTABLE>
     330:	000001f0 	strdeq	r0, [r0], -r0	; <UNPREDICTABLE>
     334:	00000208 	andeq	r0, r0, r8, lsl #4
	...
     340:	000000a4 	andeq	r0, r0, r4, lsr #1
     344:	000000b4 	strheq	r0, [r0], -r4
     348:	000000b4 	strheq	r0, [r0], -r4
     34c:	000000cc 	andeq	r0, r0, ip, asr #1
     350:	000000cc 	andeq	r0, r0, ip, asr #1
     354:	000000f0 	strdeq	r0, [r0], -r0	; <UNPREDICTABLE>
     358:	00000198 	muleq	r0, r8, r1
     35c:	00000198 	muleq	r0, r8, r1
     360:	00000198 	muleq	r0, r8, r1
     364:	000001b0 			; <UNDEFINED> instruction: 0x000001b0
     368:	000001b0 			; <UNDEFINED> instruction: 0x000001b0
     36c:	000001d8 	ldrdeq	r0, [r0], -r8
	...
     378:	000000a8 	andeq	r0, r0, r8, lsr #1
     37c:	000000a8 	andeq	r0, r0, r8, lsr #1
     380:	000000ac 	andeq	r0, r0, ip, lsr #1
     384:	000000b4 	strheq	r0, [r0], -r4
     388:	000000b4 	strheq	r0, [r0], -r4
     38c:	000000cc 	andeq	r0, r0, ip, asr #1
     390:	000000cc 	andeq	r0, r0, ip, asr #1
     394:	000000e4 	andeq	r0, r0, r4, ror #1
     398:	00000198 	muleq	r0, r8, r1
     39c:	00000198 	muleq	r0, r8, r1
     3a0:	00000198 	muleq	r0, r8, r1
     3a4:	000001b0 			; <UNDEFINED> instruction: 0x000001b0
     3a8:	000001b0 			; <UNDEFINED> instruction: 0x000001b0
     3ac:	000001c8 	andeq	r0, r0, r8, asr #3
	...
     3b8:	000000b4 	strheq	r0, [r0], -r4
     3bc:	000000b4 	strheq	r0, [r0], -r4
     3c0:	000000b4 	strheq	r0, [r0], -r4
     3c4:	000000cc 	andeq	r0, r0, ip, asr #1
	...
     3d0:	000000cc 	andeq	r0, r0, ip, asr #1
     3d4:	000000cc 	andeq	r0, r0, ip, asr #1
     3d8:	000000cc 	andeq	r0, r0, ip, asr #1
     3dc:	000000e4 	andeq	r0, r0, r4, ror #1
	...
     3e8:	00000198 	muleq	r0, r8, r1
     3ec:	00000198 	muleq	r0, r8, r1
     3f0:	00000198 	muleq	r0, r8, r1
     3f4:	000001b0 			; <UNDEFINED> instruction: 0x000001b0
	...
     400:	000001b0 			; <UNDEFINED> instruction: 0x000001b0
     404:	000001b0 			; <UNDEFINED> instruction: 0x000001b0
     408:	000001b0 			; <UNDEFINED> instruction: 0x000001b0
     40c:	000001c8 	andeq	r0, r0, r8, asr #3
	...
     418:	000000f0 	strdeq	r0, [r0], -r0	; <UNPREDICTABLE>
     41c:	00000100 	andeq	r0, r0, r0, lsl #2
     420:	00000100 	andeq	r0, r0, r0, lsl #2
     424:	00000118 	andeq	r0, r0, r8, lsl r1
     428:	00000118 	andeq	r0, r0, r8, lsl r1
     42c:	0000013c 	andeq	r0, r0, ip, lsr r1
     430:	00000158 	andeq	r0, r0, r8, asr r1
     434:	00000158 	andeq	r0, r0, r8, asr r1
     438:	00000158 	andeq	r0, r0, r8, asr r1
     43c:	00000170 	andeq	r0, r0, r0, ror r1
     440:	00000170 	andeq	r0, r0, r0, ror r1
     444:	00000198 	muleq	r0, r8, r1
	...
     450:	000000f4 	strdeq	r0, [r0], -r4
     454:	000000f4 	strdeq	r0, [r0], -r4
     458:	000000f8 	strdeq	r0, [r0], -r8
     45c:	00000100 	andeq	r0, r0, r0, lsl #2
     460:	00000100 	andeq	r0, r0, r0, lsl #2
     464:	00000118 	andeq	r0, r0, r8, lsl r1
     468:	00000118 	andeq	r0, r0, r8, lsl r1
     46c:	00000130 	andeq	r0, r0, r0, lsr r1
     470:	00000158 	andeq	r0, r0, r8, asr r1
     474:	00000158 	andeq	r0, r0, r8, asr r1
     478:	00000158 	andeq	r0, r0, r8, asr r1
     47c:	00000170 	andeq	r0, r0, r0, ror r1
     480:	00000170 	andeq	r0, r0, r0, ror r1
     484:	00000188 	andeq	r0, r0, r8, lsl #3
	...
     490:	00000100 	andeq	r0, r0, r0, lsl #2
     494:	00000100 	andeq	r0, r0, r0, lsl #2
     498:	00000100 	andeq	r0, r0, r0, lsl #2
     49c:	00000118 	andeq	r0, r0, r8, lsl r1
	...
     4a8:	00000118 	andeq	r0, r0, r8, lsl r1
     4ac:	00000118 	andeq	r0, r0, r8, lsl r1
     4b0:	00000118 	andeq	r0, r0, r8, lsl r1
     4b4:	00000130 	andeq	r0, r0, r0, lsr r1
	...
     4c0:	00000158 	andeq	r0, r0, r8, asr r1
     4c4:	00000158 	andeq	r0, r0, r8, asr r1
     4c8:	00000158 	andeq	r0, r0, r8, asr r1
     4cc:	00000170 	andeq	r0, r0, r0, ror r1
	...
     4d8:	00000170 	andeq	r0, r0, r0, ror r1
     4dc:	00000170 	andeq	r0, r0, r0, ror r1
     4e0:	00000170 	andeq	r0, r0, r0, ror r1
     4e4:	00000188 	andeq	r0, r0, r8, lsl #3
	...
     4f0:	00000274 	andeq	r0, r0, r4, ror r2
     4f4:	00000278 	andeq	r0, r0, r8, ror r2
     4f8:	00000278 	andeq	r0, r0, r8, ror r2
     4fc:	00000278 	andeq	r0, r0, r8, ror r2
     500:	00000278 	andeq	r0, r0, r8, ror r2
     504:	0000027c 	andeq	r0, r0, ip, ror r2
     508:	00000280 	andeq	r0, r0, r0, lsl #5
     50c:	00000294 	muleq	r0, r4, r2
     510:	00000294 	muleq	r0, r4, r2
     514:	000002ac 	andeq	r0, r0, ip, lsr #5
     518:	000002ac 	andeq	r0, r0, ip, lsr #5
     51c:	000002e4 	andeq	r0, r0, r4, ror #5
     520:	000002e4 	andeq	r0, r0, r4, ror #5
     524:	000002fc 	strdeq	r0, [r0], -ip
     528:	000002fc 	strdeq	r0, [r0], -ip
     52c:	00000334 	andeq	r0, r0, r4, lsr r3
     530:	00000334 	andeq	r0, r0, r4, lsr r3
     534:	0000034c 	andeq	r0, r0, ip, asr #6
     538:	0000034c 	andeq	r0, r0, ip, asr #6
     53c:	0000037c 	andeq	r0, r0, ip, ror r3
     540:	0000037c 	andeq	r0, r0, ip, ror r3
     544:	00000394 	muleq	r0, r4, r3
     548:	00000394 	muleq	r0, r4, r3
     54c:	000003b0 			; <UNDEFINED> instruction: 0x000003b0
     550:	000003b0 			; <UNDEFINED> instruction: 0x000003b0
     554:	000003c8 	andeq	r0, r0, r8, asr #7
     558:	000003c8 	andeq	r0, r0, r8, asr #7
     55c:	000003f0 	strdeq	r0, [r0], -r0	; <UNPREDICTABLE>
     560:	000003f0 	strdeq	r0, [r0], -r0	; <UNPREDICTABLE>
     564:	00000408 	andeq	r0, r0, r8, lsl #8
     568:	00000408 	andeq	r0, r0, r8, lsl #8
     56c:	00000434 	andeq	r0, r0, r4, lsr r4
	...
     578:	00000274 	andeq	r0, r0, r4, ror r2
     57c:	00000278 	andeq	r0, r0, r8, ror r2
     580:	00000278 	andeq	r0, r0, r8, ror r2
     584:	00000278 	andeq	r0, r0, r8, ror r2
     588:	00000278 	andeq	r0, r0, r8, ror r2
     58c:	0000027c 	andeq	r0, r0, ip, ror r2
     590:	00000280 	andeq	r0, r0, r0, lsl #5
     594:	00000294 	muleq	r0, r4, r2
     598:	00000294 	muleq	r0, r4, r2
     59c:	000002ac 	andeq	r0, r0, ip, lsr #5
     5a0:	000002ac 	andeq	r0, r0, ip, lsr #5
     5a4:	000002d0 	ldrdeq	r0, [r0], -r0	; <UNPREDICTABLE>
     5a8:	000003f0 	strdeq	r0, [r0], -r0	; <UNPREDICTABLE>
     5ac:	000003f0 	strdeq	r0, [r0], -r0	; <UNPREDICTABLE>
     5b0:	000003f0 	strdeq	r0, [r0], -r0	; <UNPREDICTABLE>
     5b4:	00000408 	andeq	r0, r0, r8, lsl #8
     5b8:	00000408 	andeq	r0, r0, r8, lsl #8
     5bc:	00000434 	andeq	r0, r0, r4, lsr r4
	...
     5c8:	00000274 	andeq	r0, r0, r4, ror r2
     5cc:	00000278 	andeq	r0, r0, r8, ror r2
     5d0:	00000278 	andeq	r0, r0, r8, ror r2
     5d4:	0000027c 	andeq	r0, r0, ip, ror r2
     5d8:	00000280 	andeq	r0, r0, r0, lsl #5
     5dc:	00000294 	muleq	r0, r4, r2
     5e0:	00000294 	muleq	r0, r4, r2
     5e4:	000002ac 	andeq	r0, r0, ip, lsr #5
     5e8:	000002ac 	andeq	r0, r0, ip, lsr #5
     5ec:	000002d0 	ldrdeq	r0, [r0], -r0	; <UNPREDICTABLE>
     5f0:	000003f0 	strdeq	r0, [r0], -r0	; <UNPREDICTABLE>
     5f4:	000003f0 	strdeq	r0, [r0], -r0	; <UNPREDICTABLE>
     5f8:	000003f0 	strdeq	r0, [r0], -r0	; <UNPREDICTABLE>
     5fc:	00000408 	andeq	r0, r0, r8, lsl #8
     600:	00000408 	andeq	r0, r0, r8, lsl #8
     604:	00000434 	andeq	r0, r0, r4, lsr r4
	...
     610:	00000274 	andeq	r0, r0, r4, ror r2
     614:	00000278 	andeq	r0, r0, r8, ror r2
     618:	00000280 	andeq	r0, r0, r0, lsl #5
     61c:	00000288 	andeq	r0, r0, r8, lsl #5
     620:	00000288 	andeq	r0, r0, r8, lsl #5
     624:	00000288 	andeq	r0, r0, r8, lsl #5
     628:	0000028c 	andeq	r0, r0, ip, lsl #5
     62c:	00000294 	muleq	r0, r4, r2
     630:	00000294 	muleq	r0, r4, r2
     634:	000002ac 	andeq	r0, r0, ip, lsr #5
     638:	000002ac 	andeq	r0, r0, ip, lsr #5
     63c:	000002c4 	andeq	r0, r0, r4, asr #5
     640:	000003f0 	strdeq	r0, [r0], -r0	; <UNPREDICTABLE>
     644:	000003f0 	strdeq	r0, [r0], -r0	; <UNPREDICTABLE>
     648:	000003f0 	strdeq	r0, [r0], -r0	; <UNPREDICTABLE>
     64c:	00000408 	andeq	r0, r0, r8, lsl #8
     650:	00000408 	andeq	r0, r0, r8, lsl #8
     654:	00000420 	andeq	r0, r0, r0, lsr #8
	...
     660:	00000274 	andeq	r0, r0, r4, ror r2
     664:	00000278 	andeq	r0, r0, r8, ror r2
     668:	00000280 	andeq	r0, r0, r0, lsl #5
     66c:	00000288 	andeq	r0, r0, r8, lsl #5
     670:	000003f0 	strdeq	r0, [r0], -r0	; <UNPREDICTABLE>
     674:	000003f0 	strdeq	r0, [r0], -r0	; <UNPREDICTABLE>
     678:	000003f0 	strdeq	r0, [r0], -r0	; <UNPREDICTABLE>
     67c:	00000408 	andeq	r0, r0, r8, lsl #8
	...
     688:	00000274 	andeq	r0, r0, r4, ror r2
     68c:	00000278 	andeq	r0, r0, r8, ror r2
     690:	00000280 	andeq	r0, r0, r0, lsl #5
     694:	00000288 	andeq	r0, r0, r8, lsl #5
     698:	000003f0 	strdeq	r0, [r0], -r0	; <UNPREDICTABLE>
     69c:	00000408 	andeq	r0, r0, r8, lsl #8
	...
     6a8:	00000274 	andeq	r0, r0, r4, ror r2
     6ac:	00000278 	andeq	r0, r0, r8, ror r2
     6b0:	00000280 	andeq	r0, r0, r0, lsl #5
     6b4:	00000288 	andeq	r0, r0, r8, lsl #5
     6b8:	000003f4 	strdeq	r0, [r0], -r4
     6bc:	000003f8 	strdeq	r0, [r0], -r8
	...
     6c8:	00000294 	muleq	r0, r4, r2
     6cc:	00000294 	muleq	r0, r4, r2
     6d0:	00000294 	muleq	r0, r4, r2
     6d4:	000002ac 	andeq	r0, r0, ip, lsr #5
	...
     6e0:	000002ac 	andeq	r0, r0, ip, lsr #5
     6e4:	000002ac 	andeq	r0, r0, ip, lsr #5
     6e8:	000002ac 	andeq	r0, r0, ip, lsr #5
     6ec:	000002c4 	andeq	r0, r0, r4, asr #5
	...
     6f8:	00000408 	andeq	r0, r0, r8, lsl #8
     6fc:	00000408 	andeq	r0, r0, r8, lsl #8
     700:	00000408 	andeq	r0, r0, r8, lsl #8
     704:	00000420 	andeq	r0, r0, r0, lsr #8
	...
     710:	000002d0 	ldrdeq	r0, [r0], -r0	; <UNPREDICTABLE>
     714:	000002e4 	andeq	r0, r0, r4, ror #5
     718:	000002e4 	andeq	r0, r0, r4, ror #5
     71c:	000002fc 	strdeq	r0, [r0], -ip
     720:	000002fc 	strdeq	r0, [r0], -ip
     724:	00000320 	andeq	r0, r0, r0, lsr #6
     728:	000003b0 			; <UNDEFINED> instruction: 0x000003b0
     72c:	000003b0 			; <UNDEFINED> instruction: 0x000003b0
     730:	000003b0 			; <UNDEFINED> instruction: 0x000003b0
     734:	000003c8 	andeq	r0, r0, r8, asr #7
     738:	000003c8 	andeq	r0, r0, r8, asr #7
     73c:	000003f0 	strdeq	r0, [r0], -r0	; <UNPREDICTABLE>
	...
     748:	000002d4 	ldrdeq	r0, [r0], -r4
     74c:	000002d8 	ldrdeq	r0, [r0], -r8
     750:	000002d8 	ldrdeq	r0, [r0], -r8
     754:	000002d8 	ldrdeq	r0, [r0], -r8
     758:	000002dc 	ldrdeq	r0, [r0], -ip
     75c:	000002e4 	andeq	r0, r0, r4, ror #5
     760:	000002e4 	andeq	r0, r0, r4, ror #5
     764:	000002fc 	strdeq	r0, [r0], -ip
     768:	000002fc 	strdeq	r0, [r0], -ip
     76c:	00000314 	andeq	r0, r0, r4, lsl r3
     770:	000003b0 			; <UNDEFINED> instruction: 0x000003b0
     774:	000003b0 			; <UNDEFINED> instruction: 0x000003b0
     778:	000003b0 			; <UNDEFINED> instruction: 0x000003b0
     77c:	000003c8 	andeq	r0, r0, r8, asr #7
     780:	000003c8 	andeq	r0, r0, r8, asr #7
     784:	000003e0 	andeq	r0, r0, r0, ror #7
	...
     790:	000002d4 	ldrdeq	r0, [r0], -r4
     794:	000002d8 	ldrdeq	r0, [r0], -r8
     798:	000003b0 			; <UNDEFINED> instruction: 0x000003b0
     79c:	000003b0 			; <UNDEFINED> instruction: 0x000003b0
     7a0:	000003b0 			; <UNDEFINED> instruction: 0x000003b0
     7a4:	000003c8 	andeq	r0, r0, r8, asr #7
	...
     7b0:	000002d4 	ldrdeq	r0, [r0], -r4
     7b4:	000002d8 	ldrdeq	r0, [r0], -r8
     7b8:	000003b0 			; <UNDEFINED> instruction: 0x000003b0
     7bc:	000003c8 	andeq	r0, r0, r8, asr #7
	...
     7c8:	000002d4 	ldrdeq	r0, [r0], -r4
     7cc:	000002d8 	ldrdeq	r0, [r0], -r8
     7d0:	000003b4 			; <UNDEFINED> instruction: 0x000003b4
     7d4:	000003b8 			; <UNDEFINED> instruction: 0x000003b8
	...
     7e0:	000002e4 	andeq	r0, r0, r4, ror #5
     7e4:	000002e4 	andeq	r0, r0, r4, ror #5
     7e8:	000002e4 	andeq	r0, r0, r4, ror #5
     7ec:	000002fc 	strdeq	r0, [r0], -ip
	...
     7f8:	000002fc 	strdeq	r0, [r0], -ip
     7fc:	000002fc 	strdeq	r0, [r0], -ip
     800:	000002fc 	strdeq	r0, [r0], -ip
     804:	00000314 	andeq	r0, r0, r4, lsl r3
	...
     810:	000003c8 	andeq	r0, r0, r8, asr #7
     814:	000003c8 	andeq	r0, r0, r8, asr #7
     818:	000003c8 	andeq	r0, r0, r8, asr #7
     81c:	000003e0 	andeq	r0, r0, r0, ror #7
	...
     828:	00000320 	andeq	r0, r0, r0, lsr #6
     82c:	00000334 	andeq	r0, r0, r4, lsr r3
     830:	00000334 	andeq	r0, r0, r4, lsr r3
     834:	0000034c 	andeq	r0, r0, ip, asr #6
     838:	0000034c 	andeq	r0, r0, ip, asr #6
     83c:	0000037c 	andeq	r0, r0, ip, ror r3
     840:	0000037c 	andeq	r0, r0, ip, ror r3
     844:	00000394 	muleq	r0, r4, r3
     848:	00000394 	muleq	r0, r4, r3
     84c:	000003b0 			; <UNDEFINED> instruction: 0x000003b0
	...
     858:	00000324 	andeq	r0, r0, r4, lsr #6
     85c:	00000324 	andeq	r0, r0, r4, lsr #6
     860:	00000328 	andeq	r0, r0, r8, lsr #6
     864:	00000334 	andeq	r0, r0, r4, lsr r3
     868:	00000334 	andeq	r0, r0, r4, lsr r3
     86c:	0000034c 	andeq	r0, r0, ip, asr #6
     870:	0000034c 	andeq	r0, r0, ip, asr #6
     874:	00000364 	andeq	r0, r0, r4, ror #6
     878:	00000370 	andeq	r0, r0, r0, ror r3
     87c:	00000370 	andeq	r0, r0, r0, ror r3
     880:	00000374 	andeq	r0, r0, r4, ror r3
     884:	0000037c 	andeq	r0, r0, ip, ror r3
     888:	0000037c 	andeq	r0, r0, ip, ror r3
     88c:	00000394 	muleq	r0, r4, r3
     890:	00000394 	muleq	r0, r4, r3
     894:	000003b0 			; <UNDEFINED> instruction: 0x000003b0
	...
     8a0:	0000032c 	andeq	r0, r0, ip, lsr #6
     8a4:	00000330 	andeq	r0, r0, r0, lsr r3
     8a8:	0000037c 	andeq	r0, r0, ip, ror r3
     8ac:	0000037c 	andeq	r0, r0, ip, ror r3
     8b0:	0000037c 	andeq	r0, r0, ip, ror r3
     8b4:	00000394 	muleq	r0, r4, r3
	...
     8c0:	0000032c 	andeq	r0, r0, ip, lsr #6
     8c4:	00000330 	andeq	r0, r0, r0, lsr r3
     8c8:	0000037c 	andeq	r0, r0, ip, ror r3
     8cc:	00000394 	muleq	r0, r4, r3
	...
     8d8:	0000032c 	andeq	r0, r0, ip, lsr #6
     8dc:	00000330 	andeq	r0, r0, r0, lsr r3
     8e0:	00000380 	andeq	r0, r0, r0, lsl #7
     8e4:	00000384 	andeq	r0, r0, r4, lsl #7
	...
     8f0:	00000334 	andeq	r0, r0, r4, lsr r3
     8f4:	00000334 	andeq	r0, r0, r4, lsr r3
     8f8:	00000334 	andeq	r0, r0, r4, lsr r3
     8fc:	0000034c 	andeq	r0, r0, ip, asr #6
	...
     908:	0000034c 	andeq	r0, r0, ip, asr #6
     90c:	0000034c 	andeq	r0, r0, ip, asr #6
     910:	0000034c 	andeq	r0, r0, ip, asr #6
     914:	00000364 	andeq	r0, r0, r4, ror #6
	...
     920:	00000394 	muleq	r0, r4, r3
     924:	00000394 	muleq	r0, r4, r3
     928:	00000394 	muleq	r0, r4, r3
     92c:	000003b0 			; <UNDEFINED> instruction: 0x000003b0
	...
     938:	00000440 	andeq	r0, r0, r0, asr #8
     93c:	0000044c 	andeq	r0, r0, ip, asr #8
     940:	00000450 	andeq	r0, r0, r0, asr r4
     944:	00000460 	andeq	r0, r0, r0, ror #8
     948:	00000460 	andeq	r0, r0, r0, ror #8
     94c:	00000460 	andeq	r0, r0, r0, ror #8
     950:	00000460 	andeq	r0, r0, r0, ror #8
     954:	00000464 	andeq	r0, r0, r4, ror #8
     958:	00000464 	andeq	r0, r0, r4, ror #8
     95c:	00000464 	andeq	r0, r0, r4, ror #8
     960:	00000464 	andeq	r0, r0, r4, ror #8
     964:	0000047c 	andeq	r0, r0, ip, ror r4
     968:	0000047c 	andeq	r0, r0, ip, ror r4
     96c:	0000047c 	andeq	r0, r0, ip, ror r4
     970:	0000047c 	andeq	r0, r0, ip, ror r4
     974:	000004a0 	andeq	r0, r0, r0, lsr #9
     978:	000004a0 	andeq	r0, r0, r0, lsr #9
     97c:	000004a0 	andeq	r0, r0, r0, lsr #9
     980:	000004a0 	andeq	r0, r0, r0, lsr #9
     984:	000004b8 			; <UNDEFINED> instruction: 0x000004b8
     988:	000004b8 			; <UNDEFINED> instruction: 0x000004b8
     98c:	000004b8 			; <UNDEFINED> instruction: 0x000004b8
     990:	000004b8 			; <UNDEFINED> instruction: 0x000004b8
     994:	000004dc 	ldrdeq	r0, [r0], -ip
     998:	000004dc 	ldrdeq	r0, [r0], -ip
     99c:	000004dc 	ldrdeq	r0, [r0], -ip
     9a0:	000004dc 	ldrdeq	r0, [r0], -ip
     9a4:	000004f4 	strdeq	r0, [r0], -r4
     9a8:	000004f4 	strdeq	r0, [r0], -r4
     9ac:	000004f4 	strdeq	r0, [r0], -r4
     9b0:	000004f4 	strdeq	r0, [r0], -r4
     9b4:	00000520 	andeq	r0, r0, r0, lsr #10
	...
     9c0:	00000448 	andeq	r0, r0, r8, asr #8
     9c4:	0000044c 	andeq	r0, r0, ip, asr #8
     9c8:	00000458 	andeq	r0, r0, r8, asr r4
     9cc:	00000460 	andeq	r0, r0, r0, ror #8
     9d0:	00000460 	andeq	r0, r0, r0, ror #8
     9d4:	00000460 	andeq	r0, r0, r0, ror #8
     9d8:	00000460 	andeq	r0, r0, r0, ror #8
     9dc:	00000460 	andeq	r0, r0, r0, ror #8
     9e0:	00000460 	andeq	r0, r0, r0, ror #8
     9e4:	00000460 	andeq	r0, r0, r0, ror #8
     9e8:	00000464 	andeq	r0, r0, r4, ror #8
     9ec:	00000464 	andeq	r0, r0, r4, ror #8
     9f0:	00000464 	andeq	r0, r0, r4, ror #8
     9f4:	00000464 	andeq	r0, r0, r4, ror #8
     9f8:	00000464 	andeq	r0, r0, r4, ror #8
     9fc:	0000047c 	andeq	r0, r0, ip, ror r4
     a00:	0000047c 	andeq	r0, r0, ip, ror r4
     a04:	0000047c 	andeq	r0, r0, ip, ror r4
     a08:	0000047c 	andeq	r0, r0, ip, ror r4
     a0c:	000004a0 	andeq	r0, r0, r0, lsr #9
     a10:	000004a0 	andeq	r0, r0, r0, lsr #9
     a14:	000004a0 	andeq	r0, r0, r0, lsr #9
     a18:	000004a0 	andeq	r0, r0, r0, lsr #9
     a1c:	000004b8 			; <UNDEFINED> instruction: 0x000004b8
     a20:	000004b8 			; <UNDEFINED> instruction: 0x000004b8
     a24:	000004b8 			; <UNDEFINED> instruction: 0x000004b8
     a28:	000004b8 			; <UNDEFINED> instruction: 0x000004b8
     a2c:	000004dc 	ldrdeq	r0, [r0], -ip
     a30:	000004dc 	ldrdeq	r0, [r0], -ip
     a34:	000004dc 	ldrdeq	r0, [r0], -ip
     a38:	000004dc 	ldrdeq	r0, [r0], -ip
     a3c:	000004f4 	strdeq	r0, [r0], -r4
     a40:	000004f4 	strdeq	r0, [r0], -r4
     a44:	000004f4 	strdeq	r0, [r0], -r4
     a48:	000004f4 	strdeq	r0, [r0], -r4
     a4c:	00000514 	andeq	r0, r0, r4, lsl r5
	...
     a58:	00000448 	andeq	r0, r0, r8, asr #8
     a5c:	0000044c 	andeq	r0, r0, ip, asr #8
     a60:	00000458 	andeq	r0, r0, r8, asr r4
     a64:	00000460 	andeq	r0, r0, r0, ror #8
     a68:	00000460 	andeq	r0, r0, r0, ror #8
     a6c:	00000460 	andeq	r0, r0, r0, ror #8
     a70:	00000460 	andeq	r0, r0, r0, ror #8
     a74:	00000460 	andeq	r0, r0, r0, ror #8
     a78:	00000464 	andeq	r0, r0, r4, ror #8
     a7c:	00000464 	andeq	r0, r0, r4, ror #8
     a80:	00000464 	andeq	r0, r0, r4, ror #8
     a84:	00000464 	andeq	r0, r0, r4, ror #8
     a88:	00000464 	andeq	r0, r0, r4, ror #8
     a8c:	0000047c 	andeq	r0, r0, ip, ror r4
     a90:	0000047c 	andeq	r0, r0, ip, ror r4
     a94:	0000047c 	andeq	r0, r0, ip, ror r4
     a98:	0000047c 	andeq	r0, r0, ip, ror r4
     a9c:	000004a0 	andeq	r0, r0, r0, lsr #9
	...
     aa8:	00000448 	andeq	r0, r0, r8, asr #8
     aac:	0000044c 	andeq	r0, r0, ip, asr #8
     ab0:	00000458 	andeq	r0, r0, r8, asr r4
     ab4:	00000460 	andeq	r0, r0, r0, ror #8
     ab8:	00000460 	andeq	r0, r0, r0, ror #8
     abc:	00000460 	andeq	r0, r0, r0, ror #8
     ac0:	00000464 	andeq	r0, r0, r4, ror #8
     ac4:	00000464 	andeq	r0, r0, r4, ror #8
     ac8:	00000464 	andeq	r0, r0, r4, ror #8
     acc:	00000464 	andeq	r0, r0, r4, ror #8
     ad0:	00000464 	andeq	r0, r0, r4, ror #8
     ad4:	0000047c 	andeq	r0, r0, ip, ror r4
     ad8:	0000047c 	andeq	r0, r0, ip, ror r4
     adc:	0000047c 	andeq	r0, r0, ip, ror r4
     ae0:	0000047c 	andeq	r0, r0, ip, ror r4
     ae4:	000004a0 	andeq	r0, r0, r0, lsr #9
	...
     af0:	00000448 	andeq	r0, r0, r8, asr #8
     af4:	0000044c 	andeq	r0, r0, ip, asr #8
     af8:	00000458 	andeq	r0, r0, r8, asr r4
     afc:	00000460 	andeq	r0, r0, r0, ror #8
     b00:	00000464 	andeq	r0, r0, r4, ror #8
     b04:	00000464 	andeq	r0, r0, r4, ror #8
     b08:	00000464 	andeq	r0, r0, r4, ror #8
     b0c:	00000464 	andeq	r0, r0, r4, ror #8
     b10:	00000464 	andeq	r0, r0, r4, ror #8
     b14:	0000047c 	andeq	r0, r0, ip, ror r4
     b18:	0000047c 	andeq	r0, r0, ip, ror r4
     b1c:	0000047c 	andeq	r0, r0, ip, ror r4
     b20:	0000047c 	andeq	r0, r0, ip, ror r4
     b24:	00000494 	muleq	r0, r4, r4
	...
     b30:	00000448 	andeq	r0, r0, r8, asr #8
     b34:	0000044c 	andeq	r0, r0, ip, asr #8
     b38:	00000458 	andeq	r0, r0, r8, asr r4
     b3c:	00000460 	andeq	r0, r0, r0, ror #8
     b40:	00000464 	andeq	r0, r0, r4, ror #8
     b44:	00000464 	andeq	r0, r0, r4, ror #8
     b48:	00000464 	andeq	r0, r0, r4, ror #8
     b4c:	0000047c 	andeq	r0, r0, ip, ror r4
	...
     b58:	00000448 	andeq	r0, r0, r8, asr #8
     b5c:	0000044c 	andeq	r0, r0, ip, asr #8
     b60:	00000458 	andeq	r0, r0, r8, asr r4
     b64:	00000460 	andeq	r0, r0, r0, ror #8
     b68:	00000464 	andeq	r0, r0, r4, ror #8
     b6c:	0000047c 	andeq	r0, r0, ip, ror r4
	...
     b78:	00000448 	andeq	r0, r0, r8, asr #8
     b7c:	0000044c 	andeq	r0, r0, ip, asr #8
     b80:	00000458 	andeq	r0, r0, r8, asr r4
     b84:	00000460 	andeq	r0, r0, r0, ror #8
     b88:	00000468 	andeq	r0, r0, r8, ror #8
     b8c:	0000046c 	andeq	r0, r0, ip, ror #8
	...
     b98:	000004a0 	andeq	r0, r0, r0, lsr #9
     b9c:	000004a0 	andeq	r0, r0, r0, lsr #9
     ba0:	000004a0 	andeq	r0, r0, r0, lsr #9
     ba4:	000004a0 	andeq	r0, r0, r0, lsr #9
     ba8:	000004a0 	andeq	r0, r0, r0, lsr #9
     bac:	000004b8 			; <UNDEFINED> instruction: 0x000004b8
     bb0:	000004b8 			; <UNDEFINED> instruction: 0x000004b8
     bb4:	000004b8 			; <UNDEFINED> instruction: 0x000004b8
     bb8:	000004b8 			; <UNDEFINED> instruction: 0x000004b8
     bbc:	000004dc 	ldrdeq	r0, [r0], -ip
	...
     bc8:	000004a0 	andeq	r0, r0, r0, lsr #9
     bcc:	000004a0 	andeq	r0, r0, r0, lsr #9
     bd0:	000004a0 	andeq	r0, r0, r0, lsr #9
     bd4:	000004a0 	andeq	r0, r0, r0, lsr #9
     bd8:	000004a0 	andeq	r0, r0, r0, lsr #9
     bdc:	000004b8 			; <UNDEFINED> instruction: 0x000004b8
     be0:	000004b8 			; <UNDEFINED> instruction: 0x000004b8
     be4:	000004b8 			; <UNDEFINED> instruction: 0x000004b8
     be8:	000004b8 			; <UNDEFINED> instruction: 0x000004b8
     bec:	000004d0 	ldrdeq	r0, [r0], -r0	; <UNPREDICTABLE>
	...
     bf8:	000004a0 	andeq	r0, r0, r0, lsr #9
     bfc:	000004a0 	andeq	r0, r0, r0, lsr #9
     c00:	000004a0 	andeq	r0, r0, r0, lsr #9
     c04:	000004b8 			; <UNDEFINED> instruction: 0x000004b8
	...
     c10:	000004dc 	ldrdeq	r0, [r0], -ip
     c14:	000004dc 	ldrdeq	r0, [r0], -ip
     c18:	000004dc 	ldrdeq	r0, [r0], -ip
     c1c:	000004dc 	ldrdeq	r0, [r0], -ip
     c20:	000004dc 	ldrdeq	r0, [r0], -ip
     c24:	000004f4 	strdeq	r0, [r0], -r4
     c28:	000004f4 	strdeq	r0, [r0], -r4
     c2c:	000004f4 	strdeq	r0, [r0], -r4
     c30:	000004f4 	strdeq	r0, [r0], -r4
     c34:	00000514 	andeq	r0, r0, r4, lsl r5
	...
     c40:	000004dc 	ldrdeq	r0, [r0], -ip
     c44:	000004dc 	ldrdeq	r0, [r0], -ip
     c48:	000004dc 	ldrdeq	r0, [r0], -ip
     c4c:	000004dc 	ldrdeq	r0, [r0], -ip
     c50:	000004dc 	ldrdeq	r0, [r0], -ip
     c54:	000004f4 	strdeq	r0, [r0], -r4
     c58:	000004f4 	strdeq	r0, [r0], -r4
     c5c:	000004f4 	strdeq	r0, [r0], -r4
     c60:	000004f4 	strdeq	r0, [r0], -r4
     c64:	0000050c 	andeq	r0, r0, ip, lsl #10
	...
     c70:	000004dc 	ldrdeq	r0, [r0], -ip
     c74:	000004dc 	ldrdeq	r0, [r0], -ip
     c78:	000004dc 	ldrdeq	r0, [r0], -ip
     c7c:	000004f4 	strdeq	r0, [r0], -r4
	...
     c88:	00000538 	andeq	r0, r0, r8, lsr r5
     c8c:	00000554 	andeq	r0, r0, r4, asr r5
     c90:	00000554 	andeq	r0, r0, r4, asr r5
     c94:	00000554 	andeq	r0, r0, r4, asr r5
     c98:	00000554 	andeq	r0, r0, r4, asr r5
     c9c:	00000558 	andeq	r0, r0, r8, asr r5
     ca0:	00000558 	andeq	r0, r0, r8, asr r5
     ca4:	00000558 	andeq	r0, r0, r8, asr r5
     ca8:	00000558 	andeq	r0, r0, r8, asr r5
     cac:	00000570 	andeq	r0, r0, r0, ror r5
     cb0:	00000570 	andeq	r0, r0, r0, ror r5
     cb4:	00000570 	andeq	r0, r0, r0, ror r5
     cb8:	00000570 	andeq	r0, r0, r0, ror r5
     cbc:	00000594 	muleq	r0, r4, r5
     cc0:	00000594 	muleq	r0, r4, r5
     cc4:	00000594 	muleq	r0, r4, r5
     cc8:	00000594 	muleq	r0, r4, r5
     ccc:	000005ac 	andeq	r0, r0, ip, lsr #11
     cd0:	000005ac 	andeq	r0, r0, ip, lsr #11
     cd4:	000005ac 	andeq	r0, r0, ip, lsr #11
     cd8:	000005ac 	andeq	r0, r0, ip, lsr #11
     cdc:	000005d0 	ldrdeq	r0, [r0], -r0	; <UNPREDICTABLE>
     ce0:	000005d0 	ldrdeq	r0, [r0], -r0	; <UNPREDICTABLE>
     ce4:	000005d0 	ldrdeq	r0, [r0], -r0	; <UNPREDICTABLE>
     ce8:	000005d0 	ldrdeq	r0, [r0], -r0	; <UNPREDICTABLE>
     cec:	000005e8 	andeq	r0, r0, r8, ror #11
     cf0:	000005e8 	andeq	r0, r0, r8, ror #11
     cf4:	000005e8 	andeq	r0, r0, r8, ror #11
     cf8:	000005e8 	andeq	r0, r0, r8, ror #11
     cfc:	00000614 	andeq	r0, r0, r4, lsl r6
     d00:	00000618 	andeq	r0, r0, r8, lsl r6
     d04:	00000620 	andeq	r0, r0, r0, lsr #12
	...
     d10:	00000538 	andeq	r0, r0, r8, lsr r5
     d14:	00000554 	andeq	r0, r0, r4, asr r5
     d18:	00000554 	andeq	r0, r0, r4, asr r5
     d1c:	00000554 	andeq	r0, r0, r4, asr r5
     d20:	00000554 	andeq	r0, r0, r4, asr r5
     d24:	00000558 	andeq	r0, r0, r8, asr r5
     d28:	00000558 	andeq	r0, r0, r8, asr r5
     d2c:	00000558 	andeq	r0, r0, r8, asr r5
     d30:	00000558 	andeq	r0, r0, r8, asr r5
     d34:	00000570 	andeq	r0, r0, r0, ror r5
     d38:	00000570 	andeq	r0, r0, r0, ror r5
     d3c:	00000570 	andeq	r0, r0, r0, ror r5
     d40:	00000570 	andeq	r0, r0, r0, ror r5
     d44:	00000594 	muleq	r0, r4, r5
     d48:	00000594 	muleq	r0, r4, r5
     d4c:	00000594 	muleq	r0, r4, r5
     d50:	00000594 	muleq	r0, r4, r5
     d54:	000005ac 	andeq	r0, r0, ip, lsr #11
     d58:	000005ac 	andeq	r0, r0, ip, lsr #11
     d5c:	000005ac 	andeq	r0, r0, ip, lsr #11
     d60:	000005ac 	andeq	r0, r0, ip, lsr #11
     d64:	000005d0 	ldrdeq	r0, [r0], -r0	; <UNPREDICTABLE>
     d68:	000005d0 	ldrdeq	r0, [r0], -r0	; <UNPREDICTABLE>
     d6c:	000005d0 	ldrdeq	r0, [r0], -r0	; <UNPREDICTABLE>
     d70:	000005d0 	ldrdeq	r0, [r0], -r0	; <UNPREDICTABLE>
     d74:	000005e8 	andeq	r0, r0, r8, ror #11
     d78:	000005e8 	andeq	r0, r0, r8, ror #11
     d7c:	000005e8 	andeq	r0, r0, r8, ror #11
     d80:	000005e8 	andeq	r0, r0, r8, ror #11
     d84:	00000614 	andeq	r0, r0, r4, lsl r6
	...
     d90:	00000540 	andeq	r0, r0, r0, asr #10
     d94:	00000544 	andeq	r0, r0, r4, asr #10
     d98:	0000054c 	andeq	r0, r0, ip, asr #10
     d9c:	00000554 	andeq	r0, r0, r4, asr r5
     da0:	00000554 	andeq	r0, r0, r4, asr r5
     da4:	00000554 	andeq	r0, r0, r4, asr r5
     da8:	00000554 	andeq	r0, r0, r4, asr r5
     dac:	00000554 	andeq	r0, r0, r4, asr r5
     db0:	00000554 	andeq	r0, r0, r4, asr r5
     db4:	00000554 	andeq	r0, r0, r4, asr r5
     db8:	00000558 	andeq	r0, r0, r8, asr r5
     dbc:	00000558 	andeq	r0, r0, r8, asr r5
     dc0:	00000558 	andeq	r0, r0, r8, asr r5
     dc4:	00000558 	andeq	r0, r0, r8, asr r5
     dc8:	00000558 	andeq	r0, r0, r8, asr r5
     dcc:	00000570 	andeq	r0, r0, r0, ror r5
     dd0:	00000570 	andeq	r0, r0, r0, ror r5
     dd4:	00000570 	andeq	r0, r0, r0, ror r5
     dd8:	00000570 	andeq	r0, r0, r0, ror r5
     ddc:	00000594 	muleq	r0, r4, r5
     de0:	00000594 	muleq	r0, r4, r5
     de4:	00000594 	muleq	r0, r4, r5
     de8:	00000594 	muleq	r0, r4, r5
     dec:	000005ac 	andeq	r0, r0, ip, lsr #11
     df0:	000005ac 	andeq	r0, r0, ip, lsr #11
     df4:	000005ac 	andeq	r0, r0, ip, lsr #11
     df8:	000005ac 	andeq	r0, r0, ip, lsr #11
     dfc:	000005d0 	ldrdeq	r0, [r0], -r0	; <UNPREDICTABLE>
     e00:	000005d0 	ldrdeq	r0, [r0], -r0	; <UNPREDICTABLE>
     e04:	000005d0 	ldrdeq	r0, [r0], -r0	; <UNPREDICTABLE>
     e08:	000005d0 	ldrdeq	r0, [r0], -r0	; <UNPREDICTABLE>
     e0c:	000005e8 	andeq	r0, r0, r8, ror #11
     e10:	000005e8 	andeq	r0, r0, r8, ror #11
     e14:	000005e8 	andeq	r0, r0, r8, ror #11
     e18:	000005e8 	andeq	r0, r0, r8, ror #11
     e1c:	00000608 	andeq	r0, r0, r8, lsl #12
	...
     e28:	00000540 	andeq	r0, r0, r0, asr #10
     e2c:	00000544 	andeq	r0, r0, r4, asr #10
     e30:	0000054c 	andeq	r0, r0, ip, asr #10
     e34:	00000554 	andeq	r0, r0, r4, asr r5
     e38:	00000554 	andeq	r0, r0, r4, asr r5
     e3c:	00000554 	andeq	r0, r0, r4, asr r5
     e40:	00000554 	andeq	r0, r0, r4, asr r5
     e44:	00000554 	andeq	r0, r0, r4, asr r5
     e48:	00000558 	andeq	r0, r0, r8, asr r5
     e4c:	00000558 	andeq	r0, r0, r8, asr r5
     e50:	00000558 	andeq	r0, r0, r8, asr r5
     e54:	00000558 	andeq	r0, r0, r8, asr r5
     e58:	00000558 	andeq	r0, r0, r8, asr r5
     e5c:	00000570 	andeq	r0, r0, r0, ror r5
     e60:	00000570 	andeq	r0, r0, r0, ror r5
     e64:	00000570 	andeq	r0, r0, r0, ror r5
     e68:	00000570 	andeq	r0, r0, r0, ror r5
     e6c:	00000594 	muleq	r0, r4, r5
	...
     e78:	00000540 	andeq	r0, r0, r0, asr #10
     e7c:	00000544 	andeq	r0, r0, r4, asr #10
     e80:	0000054c 	andeq	r0, r0, ip, asr #10
     e84:	00000554 	andeq	r0, r0, r4, asr r5
     e88:	00000554 	andeq	r0, r0, r4, asr r5
     e8c:	00000554 	andeq	r0, r0, r4, asr r5
     e90:	00000558 	andeq	r0, r0, r8, asr r5
     e94:	00000558 	andeq	r0, r0, r8, asr r5
     e98:	00000558 	andeq	r0, r0, r8, asr r5
     e9c:	00000558 	andeq	r0, r0, r8, asr r5
     ea0:	00000558 	andeq	r0, r0, r8, asr r5
     ea4:	00000570 	andeq	r0, r0, r0, ror r5
     ea8:	00000570 	andeq	r0, r0, r0, ror r5
     eac:	00000570 	andeq	r0, r0, r0, ror r5
     eb0:	00000570 	andeq	r0, r0, r0, ror r5
     eb4:	00000594 	muleq	r0, r4, r5
	...
     ec0:	00000540 	andeq	r0, r0, r0, asr #10
     ec4:	00000544 	andeq	r0, r0, r4, asr #10
     ec8:	0000054c 	andeq	r0, r0, ip, asr #10
     ecc:	00000554 	andeq	r0, r0, r4, asr r5
     ed0:	00000558 	andeq	r0, r0, r8, asr r5
     ed4:	00000558 	andeq	r0, r0, r8, asr r5
     ed8:	00000558 	andeq	r0, r0, r8, asr r5
     edc:	00000558 	andeq	r0, r0, r8, asr r5
     ee0:	00000558 	andeq	r0, r0, r8, asr r5
     ee4:	00000570 	andeq	r0, r0, r0, ror r5
     ee8:	00000570 	andeq	r0, r0, r0, ror r5
     eec:	00000570 	andeq	r0, r0, r0, ror r5
     ef0:	00000570 	andeq	r0, r0, r0, ror r5
     ef4:	00000588 	andeq	r0, r0, r8, lsl #11
	...
     f00:	00000540 	andeq	r0, r0, r0, asr #10
     f04:	00000544 	andeq	r0, r0, r4, asr #10
     f08:	0000054c 	andeq	r0, r0, ip, asr #10
     f0c:	00000554 	andeq	r0, r0, r4, asr r5
     f10:	00000558 	andeq	r0, r0, r8, asr r5
     f14:	00000558 	andeq	r0, r0, r8, asr r5
     f18:	00000558 	andeq	r0, r0, r8, asr r5
     f1c:	00000570 	andeq	r0, r0, r0, ror r5
	...
     f28:	00000540 	andeq	r0, r0, r0, asr #10
     f2c:	00000544 	andeq	r0, r0, r4, asr #10
     f30:	0000054c 	andeq	r0, r0, ip, asr #10
     f34:	00000554 	andeq	r0, r0, r4, asr r5
     f38:	00000558 	andeq	r0, r0, r8, asr r5
     f3c:	00000570 	andeq	r0, r0, r0, ror r5
	...
     f48:	00000540 	andeq	r0, r0, r0, asr #10
     f4c:	00000544 	andeq	r0, r0, r4, asr #10
     f50:	0000054c 	andeq	r0, r0, ip, asr #10
     f54:	00000554 	andeq	r0, r0, r4, asr r5
     f58:	0000055c 	andeq	r0, r0, ip, asr r5
     f5c:	00000560 	andeq	r0, r0, r0, ror #10
	...
     f68:	00000594 	muleq	r0, r4, r5
     f6c:	00000594 	muleq	r0, r4, r5
     f70:	00000594 	muleq	r0, r4, r5
     f74:	00000594 	muleq	r0, r4, r5
     f78:	00000594 	muleq	r0, r4, r5
     f7c:	000005ac 	andeq	r0, r0, ip, lsr #11
     f80:	000005ac 	andeq	r0, r0, ip, lsr #11
     f84:	000005ac 	andeq	r0, r0, ip, lsr #11
     f88:	000005ac 	andeq	r0, r0, ip, lsr #11
     f8c:	000005d0 	ldrdeq	r0, [r0], -r0	; <UNPREDICTABLE>
	...
     f98:	00000594 	muleq	r0, r4, r5
     f9c:	00000594 	muleq	r0, r4, r5
     fa0:	00000594 	muleq	r0, r4, r5
     fa4:	00000594 	muleq	r0, r4, r5
     fa8:	00000594 	muleq	r0, r4, r5
     fac:	000005ac 	andeq	r0, r0, ip, lsr #11
     fb0:	000005ac 	andeq	r0, r0, ip, lsr #11
     fb4:	000005ac 	andeq	r0, r0, ip, lsr #11
     fb8:	000005ac 	andeq	r0, r0, ip, lsr #11
     fbc:	000005c4 	andeq	r0, r0, r4, asr #11
	...
     fc8:	00000594 	muleq	r0, r4, r5
     fcc:	00000594 	muleq	r0, r4, r5
     fd0:	00000594 	muleq	r0, r4, r5
     fd4:	000005ac 	andeq	r0, r0, ip, lsr #11
	...
     fe0:	000005d0 	ldrdeq	r0, [r0], -r0	; <UNPREDICTABLE>
     fe4:	000005d0 	ldrdeq	r0, [r0], -r0	; <UNPREDICTABLE>
     fe8:	000005d0 	ldrdeq	r0, [r0], -r0	; <UNPREDICTABLE>
     fec:	000005d0 	ldrdeq	r0, [r0], -r0	; <UNPREDICTABLE>
     ff0:	000005d0 	ldrdeq	r0, [r0], -r0	; <UNPREDICTABLE>
     ff4:	000005e8 	andeq	r0, r0, r8, ror #11
     ff8:	000005e8 	andeq	r0, r0, r8, ror #11
     ffc:	000005e8 	andeq	r0, r0, r8, ror #11
    1000:	000005e8 	andeq	r0, r0, r8, ror #11
    1004:	00000608 	andeq	r0, r0, r8, lsl #12
	...
    1010:	000005d0 	ldrdeq	r0, [r0], -r0	; <UNPREDICTABLE>
    1014:	000005d0 	ldrdeq	r0, [r0], -r0	; <UNPREDICTABLE>
    1018:	000005d0 	ldrdeq	r0, [r0], -r0	; <UNPREDICTABLE>
    101c:	000005d0 	ldrdeq	r0, [r0], -r0	; <UNPREDICTABLE>
    1020:	000005d0 	ldrdeq	r0, [r0], -r0	; <UNPREDICTABLE>
    1024:	000005e8 	andeq	r0, r0, r8, ror #11
    1028:	000005e8 	andeq	r0, r0, r8, ror #11
    102c:	000005e8 	andeq	r0, r0, r8, ror #11
    1030:	000005e8 	andeq	r0, r0, r8, ror #11
    1034:	00000600 	andeq	r0, r0, r0, lsl #12
	...
    1040:	000005d0 	ldrdeq	r0, [r0], -r0	; <UNPREDICTABLE>
    1044:	000005d0 	ldrdeq	r0, [r0], -r0	; <UNPREDICTABLE>
    1048:	000005d0 	ldrdeq	r0, [r0], -r0	; <UNPREDICTABLE>
    104c:	000005e8 	andeq	r0, r0, r8, ror #11
	...
    1058:	000000a4 	andeq	r0, r0, r4, lsr #1
    105c:	00000148 	andeq	r0, r0, r8, asr #2
    1060:	00000158 	andeq	r0, r0, r8, asr r1
    1064:	0000015c 	andeq	r0, r0, ip, asr r1
    1068:	00000274 	andeq	r0, r0, r4, ror r2
    106c:	00000278 	andeq	r0, r0, r8, ror r2
    1070:	0000027c 	andeq	r0, r0, ip, ror r2
    1074:	00000280 	andeq	r0, r0, r0, lsl #5
    1078:	00000288 	andeq	r0, r0, r8, lsl #5
    107c:	0000029c 	muleq	r0, ip, r2
    1080:	000002c0 	andeq	r0, r0, r0, asr #5
    1084:	000002cc 	andeq	r0, r0, ip, asr #5
    1088:	000002f0 	strdeq	r0, [r0], -r0	; <UNPREDICTABLE>
    108c:	000002f0 	strdeq	r0, [r0], -r0	; <UNPREDICTABLE>
    1090:	000002f4 	strdeq	r0, [r0], -r4
    1094:	000002f8 	strdeq	r0, [r0], -r8
	...
    10a0:	00000148 	andeq	r0, r0, r8, asr #2
    10a4:	00000158 	andeq	r0, r0, r8, asr r1
    10a8:	0000015c 	andeq	r0, r0, ip, asr r1
    10ac:	0000018c 	andeq	r0, r0, ip, lsl #3
    10b0:	0000029c 	muleq	r0, ip, r2
    10b4:	000002ac 	andeq	r0, r0, ip, lsr #5
	...
    10c0:	000003c8 	andeq	r0, r0, r8, asr #7
    10c4:	000003d0 	ldrdeq	r0, [r0], -r0	; <UNPREDICTABLE>
    10c8:	00000404 	andeq	r0, r0, r4, lsl #8
    10cc:	000004ac 	andeq	r0, r0, ip, lsr #9
    10d0:	000004c0 	andeq	r0, r0, r0, asr #9
    10d4:	00000920 	andeq	r0, r0, r0, lsr #18
    10d8:	00000928 	andeq	r0, r0, r8, lsr #18
    10dc:	000009b4 			; <UNDEFINED> instruction: 0x000009b4
	...
    10e8:	000003c8 	andeq	r0, r0, r8, asr #7
    10ec:	000003d0 	ldrdeq	r0, [r0], -r0	; <UNPREDICTABLE>
    10f0:	00000504 	andeq	r0, r0, r4, lsl #10
    10f4:	000005d0 	ldrdeq	r0, [r0], -r0	; <UNPREDICTABLE>
    10f8:	00000800 	andeq	r0, r0, r0, lsl #16
    10fc:	00000888 	andeq	r0, r0, r8, lsl #17
    1100:	00000930 	andeq	r0, r0, r0, lsr r9
    1104:	000009b4 			; <UNDEFINED> instruction: 0x000009b4
	...
    1110:	00000404 	andeq	r0, r0, r4, lsl #8
    1114:	00000408 	andeq	r0, r0, r8, lsl #8
    1118:	00000414 	andeq	r0, r0, r4, lsl r4
    111c:	00000414 	andeq	r0, r0, r4, lsl r4
    1120:	00000428 	andeq	r0, r0, r8, lsr #8
    1124:	0000042c 	andeq	r0, r0, ip, lsr #8
	...
    1130:	000005fc 	strdeq	r0, [r0], -ip
    1134:	00000700 	andeq	r0, r0, r0, lsl #14
    1138:	000007ec 	andeq	r0, r0, ip, ror #15
    113c:	000007f4 	strdeq	r0, [r0], -r4
    1140:	00000888 	andeq	r0, r0, r8, lsl #17
    1144:	00000894 	muleq	r0, r4, r8
    1148:	000008a8 	andeq	r0, r0, r8, lsr #17
    114c:	000008bc 			; <UNDEFINED> instruction: 0x000008bc
    1150:	00000910 	andeq	r0, r0, r0, lsl r9
    1154:	00000920 	andeq	r0, r0, r0, lsr #18
	...
    1160:	00000600 	andeq	r0, r0, r0, lsl #12
    1164:	00000604 	andeq	r0, r0, r4, lsl #12
    1168:	00000608 	andeq	r0, r0, r8, lsl #12
    116c:	000006b4 			; <UNDEFINED> instruction: 0x000006b4
    1170:	000006cc 	andeq	r0, r0, ip, asr #13
    1174:	000006d0 	ldrdeq	r0, [r0], -r0	; <UNPREDICTABLE>
    1178:	000008a8 	andeq	r0, r0, r8, lsr #17
    117c:	000008b8 			; <UNDEFINED> instruction: 0x000008b8
    1180:	00000910 	andeq	r0, r0, r0, lsl r9
    1184:	00000920 	andeq	r0, r0, r0, lsr #18
	...
    1190:	000006b4 			; <UNDEFINED> instruction: 0x000006b4
    1194:	000006cc 	andeq	r0, r0, ip, asr #13
    1198:	000006d0 	ldrdeq	r0, [r0], -r0	; <UNPREDICTABLE>
    119c:	00000700 	andeq	r0, r0, r0, lsl #14
    11a0:	000007ec 	andeq	r0, r0, ip, ror #15
    11a4:	000007f4 	strdeq	r0, [r0], -r4
    11a8:	00000888 	andeq	r0, r0, r8, lsl #17
    11ac:	00000894 	muleq	r0, r4, r8
    11b0:	000008b8 			; <UNDEFINED> instruction: 0x000008b8
    11b4:	000008bc 			; <UNDEFINED> instruction: 0x000008bc
	...
    11c0:	00000700 	andeq	r0, r0, r0, lsl #14
    11c4:	00000708 	andeq	r0, r0, r8, lsl #14
    11c8:	0000070c 	andeq	r0, r0, ip, lsl #14
    11cc:	000007ec 	andeq	r0, r0, ip, ror #15
    11d0:	00000894 	muleq	r0, r4, r8
    11d4:	000008a8 	andeq	r0, r0, r8, lsr #17
	...
    11e0:	00000728 	andeq	r0, r0, r8, lsr #14
    11e4:	000007a4 	andeq	r0, r0, r4, lsr #15
    11e8:	000007ac 	andeq	r0, r0, ip, lsr #15
    11ec:	000007b0 			; <UNDEFINED> instruction: 0x000007b0
    11f0:	00000894 	muleq	r0, r4, r8
    11f4:	00000898 	muleq	r0, r8, r8
    11f8:	0000089c 	muleq	r0, ip, r8
    11fc:	000008a0 	andeq	r0, r0, r0, lsr #17
	...
    1208:	000007a4 	andeq	r0, r0, r4, lsr #15
    120c:	000007ac 	andeq	r0, r0, ip, lsr #15
    1210:	000007b0 			; <UNDEFINED> instruction: 0x000007b0
    1214:	000007ec 	andeq	r0, r0, ip, ror #15
    1218:	00000898 	muleq	r0, r8, r8
    121c:	0000089c 	muleq	r0, ip, r8
    1220:	000008a0 	andeq	r0, r0, r0, lsr #17
    1224:	000008a8 	andeq	r0, r0, r8, lsr #17
	...
    1230:	0000937c 	andeq	r9, r0, ip, ror r3
    1234:	0000939c 	muleq	r0, ip, r3
	...
    1240:	000094f0 	strdeq	r9, [r0], -r0
    1244:	000094f0 	strdeq	r9, [r0], -r0
    1248:	000094f4 	strdeq	r9, [r0], -r4
    124c:	000094fc 	strdeq	r9, [r0], -ip
	...
    1258:	000094c4 	andeq	r9, r0, r4, asr #9
    125c:	00009550 	andeq	r9, r0, r0, asr r5
	...
    1268:	00000030 	andeq	r0, r0, r0, lsr r0
    126c:	00000030 	andeq	r0, r0, r0, lsr r0
    1270:	00000038 	andeq	r0, r0, r8, lsr r0
    1274:	0000004c 	andeq	r0, r0, ip, asr #32
	...
    1280:	0000004c 	andeq	r0, r0, ip, asr #32
    1284:	00000050 	andeq	r0, r0, r0, asr r0
    1288:	00000050 	andeq	r0, r0, r0, asr r0
    128c:	00000078 	andeq	r0, r0, r8, ror r0
	...
    1298:	0000004c 	andeq	r0, r0, ip, asr #32
    129c:	00000050 	andeq	r0, r0, r0, asr r0
    12a0:	00000050 	andeq	r0, r0, r0, asr r0
    12a4:	00000060 	andeq	r0, r0, r0, rrx
    12a8:	00000064 	andeq	r0, r0, r4, rrx
    12ac:	00000068 	andeq	r0, r0, r8, rrx
	...
    12b8:	0000004c 	andeq	r0, r0, ip, asr #32
    12bc:	00000050 	andeq	r0, r0, r0, asr r0
    12c0:	00000054 	andeq	r0, r0, r4, asr r0
    12c4:	00000060 	andeq	r0, r0, r0, rrx
	...
    12d0:	0000009c 	muleq	r0, ip, r0
    12d4:	000000a0 	andeq	r0, r0, r0, lsr #1
    12d8:	000000a0 	andeq	r0, r0, r0, lsr #1
    12dc:	000000c8 	andeq	r0, r0, r8, asr #1
	...
    12e8:	0000009c 	muleq	r0, ip, r0
    12ec:	000000a0 	andeq	r0, r0, r0, lsr #1
    12f0:	000000a0 	andeq	r0, r0, r0, lsr #1
    12f4:	000000b0 	strheq	r0, [r0], -r0	; <UNPREDICTABLE>
    12f8:	000000b4 	strheq	r0, [r0], -r4
    12fc:	000000b8 	strheq	r0, [r0], -r8
	...
    1308:	0000009c 	muleq	r0, ip, r0
    130c:	000000a0 	andeq	r0, r0, r0, lsr #1
    1310:	000000a4 	andeq	r0, r0, r4, lsr #1
    1314:	000000b0 	strheq	r0, [r0], -r0	; <UNPREDICTABLE>
	...
    1320:	000000c8 	andeq	r0, r0, r8, asr #1
    1324:	000000c8 	andeq	r0, r0, r8, asr #1
    1328:	000000cc 	andeq	r0, r0, ip, asr #1
    132c:	0000011c 	andeq	r0, r0, ip, lsl r1
	...
    1338:	000000f0 	strdeq	r0, [r0], -r0	; <UNPREDICTABLE>
    133c:	000000f4 	strdeq	r0, [r0], -r4
    1340:	000000f4 	strdeq	r0, [r0], -r4
    1344:	0000011c 	andeq	r0, r0, ip, lsl r1
	...
    1350:	000000f0 	strdeq	r0, [r0], -r0	; <UNPREDICTABLE>
    1354:	000000f4 	strdeq	r0, [r0], -r4
    1358:	000000f4 	strdeq	r0, [r0], -r4
    135c:	00000104 	andeq	r0, r0, r4, lsl #2
    1360:	00000108 	andeq	r0, r0, r8, lsl #2
    1364:	0000010c 	andeq	r0, r0, ip, lsl #2
	...
    1370:	000000f0 	strdeq	r0, [r0], -r0	; <UNPREDICTABLE>
    1374:	000000f4 	strdeq	r0, [r0], -r4
    1378:	000000f8 	strdeq	r0, [r0], -r8
    137c:	00000104 	andeq	r0, r0, r4, lsl #2
	...
    1388:	00000134 	andeq	r0, r0, r4, lsr r1
    138c:	00000134 	andeq	r0, r0, r4, lsr r1
    1390:	00000134 	andeq	r0, r0, r4, lsr r1
    1394:	0000013c 	andeq	r0, r0, ip, lsr r1
	...
    13a0:	0000024c 	andeq	r0, r0, ip, asr #4
    13a4:	00000264 	andeq	r0, r0, r4, ror #4
    13a8:	000002c8 	andeq	r0, r0, r8, asr #5
    13ac:	000002e8 	andeq	r0, r0, r8, ror #5
	...

Disassembly of section .debug_line:

00000000 <.debug_line>:
       0:	00000127 	andeq	r0, r0, r7, lsr #2
       4:	00790003 	rsbseq	r0, r9, r3
       8:	01020000 	mrseq	r0, (UNDEF: 2)
       c:	000d0efb 	strdeq	r0, [sp], -fp
      10:	01010101 	tsteq	r1, r1, lsl #2
      14:	01000000 	mrseq	r0, (UNDEF: 0)
      18:	2f010000 	svccs	0x00010000
      1c:	72657355 	rsbvc	r7, r5, #1409286145	; 0x54000001
      20:	696d2f73 	stmdbvs	sp!, {r0, r1, r4, r5, r6, r8, r9, sl, fp, sp}^
      24:	2f73656c 	svccs	0x0073656c
      28:	72756f53 	rsbsvc	r6, r5, #332	; 0x14c
      2c:	632f6563 			; <UNDEFINED> instruction: 0x632f6563
      30:	30343273 	eorscc	r3, r4, r3, ror r2
      34:	6c2f786c 	stcvs	8, cr7, [pc], #-432	; fffffe8c <__bss_end__+0xffff59bc>
      38:	69706269 	ldmdbvs	r0!, {r0, r3, r5, r6, r9, sp, lr}^
      3c:	636e692f 	cmnvs	lr, #770048	; 0xbc000
      40:	6564756c 	strbvs	r7, [r4, #-1388]!	; 0xfffffa94
      44:	2d330000 	ldccs	0, cr0, [r3, #-0]
      48:	63726963 	cmnvs	r2, #1622016	; 0x18c000
      4c:	632e656c 			; <UNDEFINED> instruction: 0x632e656c
      50:	00000000 	andeq	r0, r0, r0
      54:	2e697072 	mcrcs	0, 3, r7, cr9, cr2, {3}
      58:	00010068 	andeq	r0, r1, r8, rrx
      5c:	32535700 	subscc	r5, r3, #0, 14
      60:	42323138 	eorsmi	r3, r2, #14
      64:	0000682e 	andeq	r6, r0, lr, lsr #16
      68:	656e0000 	strbvs	r0, [lr, #-0]!
      6c:	7869706f 	stmdavc	r9!, {r0, r1, r2, r3, r5, r6, ip, sp, lr}^
      70:	682e6c65 	stmdavs	lr!, {r0, r2, r5, r6, sl, fp, sp, lr}
      74:	00000000 	andeq	r0, r0, r0
      78:	6f697067 	svcvs	0x00697067
      7c:	0100682e 	tsteq	r0, lr, lsr #16
      80:	05000000 	streq	r0, [r0, #-0]
      84:	02050014 	andeq	r0, r5, #20, 0
      88:	00008040 	andeq	r8, r0, r0, asr #32
      8c:	05010b03 	streq	r0, [r1, #-2819]	; 0xfffff4fd
      90:	14051305 	strne	r1, [r5], #-773	; 0xfffffcfb
      94:	05051106 	streq	r1, [r5, #-262]	; 0xfffffefa
      98:	4f2f064b 	svcmi	0x002f064b
      9c:	060f0513 			; <UNDEFINED> instruction: 0x060f0513
      a0:	690d0501 	stmdbvs	sp, {r0, r8, sl}
      a4:	052b0f05 	streq	r0, [fp, #-3845]!	; 0xfffff0fb
      a8:	05310605 	ldreq	r0, [r1, #-1541]!	; 0xfffff9fb
      ac:	14050109 	strne	r0, [r5], #-265	; 0xfffffef7
      b0:	060d0501 	streq	r0, [sp], -r1, lsl #10
      b4:	2c090515 	cfstr32cs	mvfx0, [r9], {21}
      b8:	05672e06 	strbeq	r2, [r7, #-3590]!	; 0xfffff1fa
      bc:	1805010d 	stmdane	r5, {r0, r2, r3, r8}
      c0:	06110501 	ldreq	r0, [r1], -r1, lsl #10
      c4:	000d0501 	andeq	r0, sp, r1, lsl #10
      c8:	06030402 	streq	r0, [r3], -r2, lsl #8
      cc:	0402002f 	streq	r0, [r2], #-47	; 0xffffffd1
      d0:	0200bb03 	andeq	fp, r0, #3072	; 0xc00
      d4:	054b0304 	strbeq	r0, [fp, #-772]	; 0xfffffcfc
      d8:	04020026 	streq	r0, [r2], #-38	; 0xffffffda
      dc:	050f0603 	streq	r0, [pc, #-1539]	; fffffae1 <__bss_end__+0xffff5611>
      e0:	0402000d 	streq	r0, [r2], #-13
      e4:	25053103 	strcs	r3, [r5, #-259]	; 0xfffffefd
      e8:	03040200 	movweq	r0, #16896	; 0x4200
      ec:	18054706 	stmdane	r5, {r1, r2, r8, r9, sl, lr}
      f0:	03040200 	movweq	r0, #16896	; 0x4200
      f4:	00090501 	andeq	r0, r9, r1, lsl #10
      f8:	06030402 	streq	r0, [r3], -r2, lsl #8
      fc:	001c0501 	andseq	r0, ip, r1, lsl #10
     100:	06020402 	streq	r0, [r2], -r2, lsl #8
     104:	001d0548 	andseq	r0, sp, r8, asr #10
     108:	06020402 	streq	r0, [r2], -r2, lsl #8
     10c:	00140501 	andseq	r0, r4, r1, lsl #10
     110:	06020402 	streq	r0, [r2], -r2, lsl #8
     114:	0005052e 	andeq	r0, r5, lr, lsr #10
     118:	06020402 	streq	r0, [r2], -r2, lsl #8
     11c:	05520601 	ldrbeq	r0, [r2, #-1537]	; 0xfffff9ff
     120:	052f0601 	streq	r0, [pc, #-1537]!	; fffffb27 <__bss_end__+0xffff5657>
     124:	06024905 	streq	r4, [r2], -r5, lsl #18
     128:	f1010100 	setend	le
     12c:	0300000f 	movweq	r0, #15
     130:	0000e200 	andeq	lr, r0, r0, lsl #4
     134:	fb010200 	blx	4093e <__bss_end__+0x3646e>
     138:	01000d0e 	tsteq	r0, lr, lsl #26
     13c:	00010101 	andeq	r0, r1, r1, lsl #2
     140:	00010000 	andeq	r0, r1, r0
     144:	6f2f0100 	svcvs	0x002f0100
     148:	682f7470 	stmdavs	pc!, {r4, r5, r6, sl, ip, sp, lr}	; <UNPREDICTABLE>
     14c:	62656d6f 	rsbvs	r6, r5, #7104	; 0x1bc0
     150:	2f776572 	svccs	0x00776572
     154:	6c6c6543 	cfstr64vs	mvdx6, [ip], #-268	; 0xfffffef4
     158:	612f7261 			; <UNDEFINED> instruction: 0x612f7261
     15c:	6e2d6d72 	mcrvs	13, 1, r6, cr13, cr2, {3}
     160:	2d656e6f 	stclcs	14, cr6, [r5, #-444]!	; 0xfffffe44
     164:	69626165 	stmdbvs	r2!, {r0, r2, r5, r6, r8, sp, lr}^
     168:	392f392d 	stmdbcc	pc!, {r0, r2, r3, r5, r8, fp, ip, sp}	; <UNPREDICTABLE>
     16c:	3130322d 	teqcc	r0, sp, lsr #4
     170:	2d347139 	ldfcss	f7, [r4, #-228]!	; 0xffffff1c
     174:	30317363 	eorscc	r7, r1, r3, ror #6
     178:	6c2f6537 	cfstr32vs	mvfx6, [pc], #-220	; a4 <__code_start__-0x7f5c>
     17c:	672f6269 	strvs	r6, [pc, -r9, ror #4]!
     180:	612f6363 			; <UNDEFINED> instruction: 0x612f6363
     184:	6e2d6d72 	mcrvs	13, 1, r6, cr13, cr2, {3}
     188:	2d656e6f 	stclcs	14, cr6, [r5, #-444]!	; 0xfffffe44
     18c:	69626165 	stmdbvs	r2!, {r0, r2, r5, r6, r8, sp, lr}^
     190:	322e392f 	eorcc	r3, lr, #770048	; 0xbc000
     194:	692f312e 	stmdbvs	pc!, {r1, r2, r3, r5, r8, ip, sp}	; <UNPREDICTABLE>
     198:	756c636e 	strbvc	r6, [ip, #-878]!	; 0xfffffc92
     19c:	2f006564 	svccs	0x00006564
     1a0:	72657355 	rsbvc	r7, r5, #1409286145	; 0x54000001
     1a4:	696d2f73 	stmdbvs	sp!, {r0, r1, r4, r5, r6, r8, r9, sl, fp, sp}^
     1a8:	2f73656c 	svccs	0x0073656c
     1ac:	72756f53 	rsbsvc	r6, r5, #332	; 0x14c
     1b0:	632f6563 			; <UNDEFINED> instruction: 0x632f6563
     1b4:	30343273 	eorscc	r3, r4, r3, ror r2
     1b8:	6c2f786c 	stcvs	8, cr7, [pc], #-432	; 10 <__code_start__-0x7ff0>
     1bc:	69706269 	ldmdbvs	r0!, {r0, r3, r5, r6, r9, sp, lr}^
     1c0:	636e692f 	cmnvs	lr, #770048	; 0xbc000
     1c4:	6564756c 	strbvs	r7, [r4, #-1388]!	; 0xfffffa94
     1c8:	656e0000 	strbvs	r0, [lr, #-0]!
     1cc:	7869706f 	stmdavc	r9!, {r0, r1, r2, r3, r5, r6, ip, sp, lr}^
     1d0:	632e6c65 			; <UNDEFINED> instruction: 0x632e6c65
     1d4:	00000000 	andeq	r0, r0, r0
     1d8:	38325357 	ldmdacc	r2!, {r0, r1, r2, r4, r6, r8, r9, ip, lr}
     1dc:	2e423231 	mcrcs	2, 2, r3, cr2, cr1, {1}
     1e0:	00000068 	andeq	r0, r0, r8, rrx
     1e4:	64747300 	ldrbtvs	r7, [r4], #-768	; 0xfffffd00
     1e8:	2d746e69 	ldclcs	14, cr6, [r4, #-420]!	; 0xfffffe5c
     1ec:	2e636367 	cdpcs	3, 6, cr6, cr3, cr7, {3}
     1f0:	00010068 	andeq	r0, r1, r8, rrx
     1f4:	69707200 	ldmdbvs	r0!, {r9, ip, sp, lr}^
     1f8:	0200682e 	andeq	r6, r0, #3014656	; 0x2e0000
     1fc:	656e0000 	strbvs	r0, [lr, #-0]!
     200:	7869706f 	stmdavc	r9!, {r0, r1, r2, r3, r5, r6, ip, sp, lr}^
     204:	682e6c65 	stmdavs	lr!, {r0, r2, r5, r6, sl, fp, sp, lr}
     208:	00000000 	andeq	r0, r0, r0
     20c:	6f697067 	svcvs	0x00697067
     210:	0200682e 	andeq	r6, r0, #3014656	; 0x2e0000
     214:	05000000 	streq	r0, [r0, #-0]
     218:	0205001c 	andeq	r0, r5, #28, 0
     21c:	000080e0 	andeq	r8, r0, r0, ror #1
     220:	05011d03 	streq	r1, [r1, #-3331]	; 0xfffff2fd
     224:	02041405 	andeq	r1, r4, #83886080	; 0x5000000
     228:	a5031405 	strge	r1, [r3, #-1029]	; 0xfffffbfb
     22c:	05050101 	streq	r0, [r5, #-257]	; 0xfffffeff
     230:	03140513 	tsteq	r4, #79691776	; 0x4c00000
     234:	05050176 	streq	r0, [r5, #-374]	; 0xfffffe8a
     238:	03140513 	tsteq	r4, #79691776	; 0x4c00000
     23c:	05050167 	streq	r0, [r5, #-359]	; 0xfffffe99
     240:	01160513 	tsteq	r6, r3, lsl r5
     244:	05010401 	streq	r0, [r1, #-1025]	; 0xfffffbff
     248:	f903061c 			; <UNDEFINED> instruction: 0xf903061c
     24c:	0204017e 	andeq	r0, r4, #-2147483617	; 0x8000001f
     250:	87031605 	strhi	r1, [r3, -r5, lsl #12]
     254:	2e062e01 	cdpcs	14, 0, cr2, cr6, cr1, {0}
     258:	05050106 	streq	r0, [r5, #-262]	; 0xfffffefa
     25c:	14051306 	strne	r1, [r5], #-774	; 0xfffffcfa
     260:	05015603 	streq	r5, [r1, #-1539]	; 0xfffff9fd
     264:	14051305 	strne	r1, [r5], #-773	; 0xfffffcfb
     268:	01040106 	tsteq	r4, r6, lsl #2
     26c:	a3030505 	movwge	r0, #13573	; 0x3505
     270:	02042e7f 	andeq	r2, r4, #2032	; 0x7f0
     274:	dd031005 	stcle	0, cr1, [r3, #-20]	; 0xffffffec
     278:	14052e00 	strne	r2, [r5], #-3584	; 0xfffff200
     27c:	0a052e2e 	beq	14bb3c <__bss_end__+0x14166c>
     280:	03100518 	tsteq	r0, #24, 10	; 0x6000000
     284:	052e2e7a 	streq	r2, [lr, #-3706]!	; 0xfffff186
     288:	05190609 	ldreq	r0, [r9, #-1545]	; 0xfffff9f7
     28c:	1105110a 	tstne	r5, sl, lsl #2
     290:	062e0101 	strteq	r0, [lr], -r1, lsl #2
     294:	01230501 			; <UNDEFINED> instruction: 0x01230501
     298:	4a2e0a05 	bmi	b82ab4 <__bss_end__+0xb785e4>
     29c:	14050104 	strne	r0, [r5], #-260	; 0xfffffefc
     2a0:	7f9e0306 	svcvc	0x009e0306
     2a4:	06190501 	ldreq	r0, [r9], -r1, lsl #10
     2a8:	2e050501 	cfsh32cs	mvfx0, mvfx5, #1
     2ac:	044c1805 	strbeq	r1, [ip], #-2053	; 0xfffff7fb
     2b0:	03100502 	tsteq	r0, #8388608	; 0x800000
     2b4:	4a4a00d7 	bmi	1280618 <__bss_end__+0x1276148>
     2b8:	09050104 	stmdbeq	r5, {r2, r8}
     2bc:	03040200 	movweq	r0, #16896	; 0x4200
     2c0:	7fa80306 	svcvc	0x00a80306
     2c4:	05020401 	streq	r0, [r2, #-1025]	; 0xfffffbff
     2c8:	0402000d 	streq	r0, [r2], #-13
     2cc:	b8030603 	stmdalt	r3, {r0, r1, r9, sl}
     2d0:	01040101 	tsteq	r4, r1, lsl #2
     2d4:	02000905 	andeq	r0, r0, #81920	; 0x14000
     2d8:	c8030304 	stmdagt	r3, {r2, r8, r9}
     2dc:	02042e7e 	andeq	r2, r4, #2016	; 0x7e0
     2e0:	02001405 	andeq	r1, r0, #83886080	; 0x5000000
     2e4:	03060304 	movweq	r0, #25348	; 0x6304
     2e8:	054a01be 	strbeq	r0, [sl, #-446]	; 0xfffffe42
     2ec:	04020005 	streq	r0, [r2], #-5
     2f0:	14051703 	strne	r1, [r5], #-1795	; 0xfffff8fd
     2f4:	03040200 	movweq	r0, #16896	; 0x4200
     2f8:	05017403 	streq	r7, [r1, #-1027]	; 0xfffffbfd
     2fc:	04020005 	streq	r0, [r2], #-5
     300:	09051303 	stmdbeq	r5, {r0, r1, r8, r9, ip}
     304:	03040200 	movweq	r0, #16896	; 0x4200
     308:	00140501 	andseq	r0, r4, r1, lsl #10
     30c:	01030402 	tsteq	r3, r2, lsl #8
     310:	052f0905 	streq	r0, [pc, #-2309]!	; fffffa13 <__bss_end__+0xffff5543>
     314:	016f0314 	cmneq	pc, r4, lsl r3	; <UNPREDICTABLE>
     318:	05130505 	ldreq	r0, [r3, #-1285]	; 0xfffffafb
     31c:	1003061d 	andne	r0, r3, sp, lsl r6
     320:	03080501 	movweq	r0, #34049	; 0x8501
     324:	09052e70 	stmdbeq	r5, {r4, r5, r6, r9, sl, fp, sp}
     328:	14054b06 	strne	r4, [r5], #-2822	; 0xfffff4fa
     32c:	05015f03 	streq	r5, [r1, #-3843]	; 0xfffff0fd
     330:	14051305 	strne	r1, [r5], #-773	; 0xfffffcfb
     334:	05017003 	streq	r7, [r1, #-3]
     338:	16051305 	strne	r1, [r5], -r5, lsl #6
     33c:	062e0101 	strteq	r0, [lr], -r1, lsl #2
     340:	06050501 	streq	r0, [r5], -r1, lsl #10
     344:	03140513 	tsteq	r4, #79691776	; 0x4c00000
     348:	0505015b 	streq	r0, [r5, #-347]	; 0xfffffea5
     34c:	06100513 			; <UNDEFINED> instruction: 0x06100513
     350:	09052e01 	stmdbeq	r5, {r0, r9, sl, fp, sp}
     354:	010a0306 	tsteq	sl, r6, lsl #6
     358:	05110a05 	ldreq	r0, [r1, #-2565]	; 0xfffff5fb
     35c:	2e010111 	mcrcs	1, 0, r0, cr1, cr1, {0}
     360:	23050106 	movwcs	r0, #20742	; 0x5106
     364:	2e0a0501 	cfsh32cs	mvfx0, mvfx10, #1
     368:	0609054a 	streq	r0, [r9], -sl, asr #10
     36c:	0100ca03 	tsteq	r0, r3, lsl #20
     370:	67031405 	strvs	r1, [r3, -r5, lsl #8]
     374:	13050501 	movwne	r0, #21761	; 0x5501
     378:	6f031405 	svcvs	0x00031405
     37c:	13050501 	movwne	r0, #21761	; 0x5501
     380:	01011605 	tsteq	r1, r5, lsl #12
     384:	0501062e 	streq	r0, [r1, #-1582]	; 0xfffff9d2
     388:	05130605 	ldreq	r0, [r3, #-1541]	; 0xfffff9fb
     38c:	01560314 	cmpeq	r6, r4, lsl r3
     390:	05130505 	ldreq	r0, [r3, #-1285]	; 0xfffffafb
     394:	2e010610 	mcrcs	6, 0, r0, cr1, cr0, {0}
     398:	19060905 	stmdbne	r6, {r0, r2, r8, fp}
     39c:	05110a05 	ldreq	r0, [r1, #-2565]	; 0xfffff5fb
     3a0:	2e010111 	mcrcs	1, 0, r0, cr1, cr1, {0}
     3a4:	23050106 	movwcs	r0, #20742	; 0x5106
     3a8:	2e0a0501 	cfsh32cs	mvfx0, mvfx10, #1
     3ac:	061b054a 	ldreq	r0, [fp], -sl, asr #10
     3b0:	0100d703 	tsteq	r0, r3, lsl #14
     3b4:	01061c05 	tsteq	r6, r5, lsl #24
     3b8:	2e061405 	cdpcs	4, 0, cr1, cr6, cr5, {0}
     3bc:	01060505 	tsteq	r6, r5, lsl #10
     3c0:	010d054a 	tsteq	sp, sl, asr #10
     3c4:	2f060905 	svccs	0x00060905
     3c8:	6f031405 	svcvs	0x00031405
     3cc:	13050501 	movwne	r0, #21761	; 0x5501
     3d0:	03061d05 	movweq	r1, #27909	; 0x6d05
     3d4:	08050110 	stmdaeq	r5, {r4, r8}
     3d8:	052e7003 	streq	r7, [lr, #-3]!
     3dc:	054b0609 	strbeq	r0, [fp, #-1545]	; 0xfffff9f7
     3e0:	015f0314 	cmpeq	pc, r4, lsl r3	; <UNPREDICTABLE>
     3e4:	05130505 	ldreq	r0, [r3, #-1285]	; 0xfffffafb
     3e8:	01700314 	cmneq	r0, r4, lsl r3
     3ec:	05130505 	ldreq	r0, [r3, #-1285]	; 0xfffffafb
     3f0:	2e010116 	mcrcs	1, 0, r0, cr1, cr6, {0}
     3f4:	05050106 	streq	r0, [r5, #-262]	; 0xfffffefa
     3f8:	14051306 	strne	r1, [r5], #-774	; 0xfffffcfa
     3fc:	05015b03 	streq	r5, [r1, #-2819]	; 0xfffff4fd
     400:	10051305 	andne	r1, r5, r5, lsl #6
     404:	052e0106 	streq	r0, [lr, #-262]!	; 0xfffffefa
     408:	0a030609 	beq	c1c34 <__bss_end__+0xb7764>
     40c:	110a0501 	tstne	sl, r1, lsl #10
     410:	01011105 	tsteq	r1, r5, lsl #2
     414:	0501062e 	streq	r0, [r1, #-1582]	; 0xfffff9d2
     418:	0a050123 	beq	1408ac <__bss_end__+0x1363dc>
     41c:	09054a2e 	stmdbeq	r5, {r1, r2, r3, r5, r9, fp, lr}
     420:	00ca0306 	sbceq	r0, sl, r6, lsl #6
     424:	03140501 	tsteq	r4, #4194304	; 0x400000
     428:	05050167 	streq	r0, [r5, #-359]	; 0xfffffe99
     42c:	03140513 	tsteq	r4, #79691776	; 0x4c00000
     430:	0505016f 	streq	r0, [r5, #-367]	; 0xfffffe91
     434:	01160513 	tsteq	r6, r3, lsl r5
     438:	01062e01 	tsteq	r6, r1, lsl #28
     43c:	13060505 	movwne	r0, #25861	; 0x6505
     440:	56031405 	strpl	r1, [r3], -r5, lsl #8
     444:	13050501 	movwne	r0, #21761	; 0x5501
     448:	01061005 	tsteq	r6, r5
     44c:	0609052e 	streq	r0, [r9], -lr, lsr #10
     450:	110a0519 	tstne	sl, r9, lsl r5
     454:	01011105 	tsteq	r1, r5, lsl #2
     458:	0501062e 	streq	r0, [r1, #-1582]	; 0xfffff9d2
     45c:	0a050123 	beq	1408f0 <__bss_end__+0x136420>
     460:	1b054a2e 	blne	152d20 <__bss_end__+0x148850>
     464:	00d70306 	sbcseq	r0, r7, r6, lsl #6
     468:	061c0501 	ldreq	r0, [ip], -r1, lsl #10
     46c:	06140501 	ldreq	r0, [r4], -r1, lsl #10
     470:	0605052e 	streq	r0, [r5], -lr, lsr #10
     474:	0d054a01 	vstreq	s8, [r5, #-4]
     478:	06090501 	streq	r0, [r9], -r1, lsl #10
     47c:	0314052f 	tsteq	r4, #197132288	; 0xbc00000
     480:	0505016f 	streq	r0, [r5, #-367]	; 0xfffffe91
     484:	061d0513 			; <UNDEFINED> instruction: 0x061d0513
     488:	05011003 	streq	r1, [r1, #-3]
     48c:	2e700308 	cdpcs	3, 7, cr0, cr0, cr8, {0}
     490:	4b060905 	blmi	1828ac <__bss_end__+0x1783dc>
     494:	5f031405 	svcpl	0x00031405
     498:	13050501 	movwne	r0, #21761	; 0x5501
     49c:	70031405 	andvc	r1, r3, r5, lsl #8
     4a0:	13050501 	movwne	r0, #21761	; 0x5501
     4a4:	01011605 	tsteq	r1, r5, lsl #12
     4a8:	0501062e 	streq	r0, [r1, #-1582]	; 0xfffff9d2
     4ac:	05130605 	ldreq	r0, [r3, #-1541]	; 0xfffff9fb
     4b0:	015b0314 	cmpeq	fp, r4, lsl r3
     4b4:	05130505 	ldreq	r0, [r3, #-1285]	; 0xfffffafb
     4b8:	2e010610 	mcrcs	6, 0, r0, cr1, cr0, {0}
     4bc:	03060905 	movweq	r0, #26885	; 0x6905
     4c0:	0a05010a 	beq	1408f0 <__bss_end__+0x136420>
     4c4:	01110511 	tsteq	r1, r1, lsl r5
     4c8:	01062e01 	tsteq	r6, r1, lsl #28
     4cc:	05012305 	streq	r2, [r1, #-773]	; 0xfffffcfb
     4d0:	054a2e0a 	strbeq	r2, [sl, #-3594]	; 0xfffff1f6
     4d4:	ca030609 	bgt	c1d00 <__bss_end__+0xb7830>
     4d8:	14050100 	strne	r0, [r5], #-256	; 0xffffff00
     4dc:	05016703 	streq	r6, [r1, #-1795]	; 0xfffff8fd
     4e0:	14051305 	strne	r1, [r5], #-773	; 0xfffffcfb
     4e4:	05016f03 	streq	r6, [r1, #-3843]	; 0xfffff0fd
     4e8:	16051305 	strne	r1, [r5], -r5, lsl #6
     4ec:	062e0101 	strteq	r0, [lr], -r1, lsl #2
     4f0:	06050501 	streq	r0, [r5], -r1, lsl #10
     4f4:	03140513 	tsteq	r4, #79691776	; 0x4c00000
     4f8:	05050156 	streq	r0, [r5, #-342]	; 0xfffffeaa
     4fc:	06100513 			; <UNDEFINED> instruction: 0x06100513
     500:	09052e01 	stmdbeq	r5, {r0, r9, sl, fp, sp}
     504:	0a051906 	beq	146924 <__bss_end__+0x13c454>
     508:	01110511 	tsteq	r1, r1, lsl r5
     50c:	01062e01 	tsteq	r6, r1, lsl #28
     510:	05012305 	streq	r2, [r1, #-773]	; 0xfffffcfb
     514:	054a2e0a 	strbeq	r2, [sl, #-3594]	; 0xfffff1f6
     518:	d703061b 	smladle	r3, fp, r6, r0
     51c:	1c050100 	stfnes	f0, [r5], {-0}
     520:	14050106 	strne	r0, [r5], #-262	; 0xfffffefa
     524:	05052e06 	streq	r2, [r5, #-3590]	; 0xfffff1fa
     528:	044a0106 	strbeq	r0, [sl], #-262	; 0xfffffefa
     52c:	00090501 	andeq	r0, r9, r1, lsl #10
     530:	06030402 	streq	r0, [r3], -r2, lsl #8
     534:	017ec903 	cmneq	lr, r3, lsl #18
     538:	02001805 	andeq	r1, r0, #327680	; 0x50000
     53c:	01060304 	tsteq	r6, r4, lsl #6
     540:	02000905 	andeq	r0, r0, #81920	; 0x14000
     544:	2f060304 	svccs	0x00060304
     548:	02001805 	andeq	r1, r0, #327680	; 0x50000
     54c:	01060304 	tsteq	r6, r4, lsl #6
     550:	02000905 	andeq	r0, r0, #81920	; 0x14000
     554:	2f060304 	svccs	0x00060304
     558:	02001805 	andeq	r1, r0, #327680	; 0x50000
     55c:	01060304 	tsteq	r6, r4, lsl #6
     560:	02002305 	andeq	r2, r0, #335544320	; 0x14000000
     564:	2a060304 	bcs	18117c <__bss_end__+0x176cac>
     568:	02001405 	andeq	r1, r0, #83886080	; 0x5000000
     56c:	05010304 	streq	r0, [r1, #-772]	; 0xfffffcfc
     570:	04020005 	streq	r0, [r2], #-5
     574:	042e0603 	strteq	r0, [lr], #-1539	; 0xfffff9fd
     578:	06090502 	streq	r0, [r9], -r2, lsl #10
     57c:	6601ae03 	strvs	sl, [r1], -r3, lsl #28
     580:	61031405 	tstvs	r3, r5, lsl #8
     584:	13050501 	movwne	r0, #21761	; 0x5501
     588:	6b031405 	blvs	c55a4 <__bss_end__+0xbb0d4>
     58c:	13050501 	movwne	r0, #21761	; 0x5501
     590:	01011605 	tsteq	r1, r5, lsl #12
     594:	0501062e 	streq	r0, [r1, #-1582]	; 0xfffff9d2
     598:	05130605 	ldreq	r0, [r3, #-1541]	; 0xfffff9fb
     59c:	015b0314 	cmpeq	fp, r4, lsl r3
     5a0:	05130505 	ldreq	r0, [r3, #-1285]	; 0xfffffafb
     5a4:	2e010610 	mcrcs	6, 0, r0, cr1, cr0, {0}
     5a8:	03060905 	movweq	r0, #26885	; 0x6905
     5ac:	0a05010a 	beq	1409dc <__bss_end__+0x13650c>
     5b0:	01110511 	tsteq	r1, r1, lsl r5
     5b4:	01062e01 	tsteq	r6, r1, lsl #28
     5b8:	05012305 	streq	r2, [r1, #-773]	; 0xfffffcfb
     5bc:	054a2e0a 	strbeq	r2, [sl, #-3594]	; 0xfffff1f6
     5c0:	cd030609 	stcgt	6, cr0, [r3, #-36]	; 0xffffffdc
     5c4:	14050100 	strne	r0, [r5], #-256	; 0xffffff00
     5c8:	05016803 	streq	r6, [r1, #-2051]	; 0xfffff7fd
     5cc:	14051305 	strne	r1, [r5], #-773	; 0xfffffcfb
     5d0:	05016b03 	streq	r6, [r1, #-2819]	; 0xfffff4fd
     5d4:	16051305 	strne	r1, [r5], -r5, lsl #6
     5d8:	062e0101 	strteq	r0, [lr], -r1, lsl #2
     5dc:	06050501 	streq	r0, [r5], -r1, lsl #10
     5e0:	03140513 	tsteq	r4, #79691776	; 0x4c00000
     5e4:	05050156 	streq	r0, [r5, #-342]	; 0xfffffeaa
     5e8:	06100513 			; <UNDEFINED> instruction: 0x06100513
     5ec:	09052e01 	stmdbeq	r5, {r0, r9, sl, fp, sp}
     5f0:	0a051906 	beq	146a10 <__bss_end__+0x13c540>
     5f4:	01110511 	tsteq	r1, r1, lsl r5
     5f8:	01062e01 	tsteq	r6, r1, lsl #28
     5fc:	05012305 	streq	r2, [r1, #-773]	; 0xfffffcfb
     600:	054a2e0a 	strbeq	r2, [sl, #-3594]	; 0xfffff1f6
     604:	d703061b 	smladle	r3, fp, r6, r0
     608:	1c050100 	stfnes	f0, [r5], {-0}
     60c:	14050106 	strne	r0, [r5], #-262	; 0xfffffefa
     610:	05052e06 	streq	r2, [r5, #-3590]	; 0xfffff1fa
     614:	05660106 	strbeq	r0, [r6, #-262]!	; 0xfffffefa
     618:	75030609 	strvc	r0, [r3, #-1545]	; 0xfffff9f7
     61c:	03140501 	tsteq	r4, #4194304	; 0x400000
     620:	05050161 	streq	r0, [r5, #-353]	; 0xfffffe9f
     624:	03140513 	tsteq	r4, #79691776	; 0x4c00000
     628:	0505016b 	streq	r0, [r5, #-363]	; 0xfffffe95
     62c:	01160513 	tsteq	r6, r3, lsl r5
     630:	01062e01 	tsteq	r6, r1, lsl #28
     634:	13060505 	movwne	r0, #25861	; 0x6505
     638:	5b031405 	blpl	c5654 <__bss_end__+0xbb184>
     63c:	13050501 	movwne	r0, #21761	; 0x5501
     640:	01061005 	tsteq	r6, r5
     644:	0609052e 	streq	r0, [r9], -lr, lsr #10
     648:	05010a03 	streq	r0, [r1, #-2563]	; 0xfffff5fd
     64c:	1105110a 	tstne	r5, sl, lsl #2
     650:	062e0101 	strteq	r0, [lr], -r1, lsl #2
     654:	01230501 			; <UNDEFINED> instruction: 0x01230501
     658:	4a2e0a05 	bmi	b82e74 <__bss_end__+0xb789a4>
     65c:	03060905 	movweq	r0, #26885	; 0x6905
     660:	050100cd 	streq	r0, [r1, #-205]	; 0xffffff33
     664:	01680314 	cmneq	r8, r4, lsl r3
     668:	05130505 	ldreq	r0, [r3, #-1285]	; 0xfffffafb
     66c:	016b0314 	cmneq	fp, r4, lsl r3
     670:	05130505 	ldreq	r0, [r3, #-1285]	; 0xfffffafb
     674:	2e010116 	mcrcs	1, 0, r0, cr1, cr6, {0}
     678:	05050106 	streq	r0, [r5, #-262]	; 0xfffffefa
     67c:	14051306 	strne	r1, [r5], #-774	; 0xfffffcfa
     680:	05015603 	streq	r5, [r1, #-1539]	; 0xfffff9fd
     684:	10051305 	andne	r1, r5, r5, lsl #6
     688:	052e0106 	streq	r0, [lr, #-262]!	; 0xfffffefa
     68c:	05190609 	ldreq	r0, [r9, #-1545]	; 0xfffff9f7
     690:	1105110a 	tstne	r5, sl, lsl #2
     694:	062e0101 	strteq	r0, [lr], -r1, lsl #2
     698:	01230501 			; <UNDEFINED> instruction: 0x01230501
     69c:	4a2e0a05 	bmi	b82eb8 <__bss_end__+0xb789e8>
     6a0:	03061b05 	movweq	r1, #27397	; 0x6b05
     6a4:	050100d7 	streq	r0, [r1, #-215]	; 0xffffff29
     6a8:	0501061c 	streq	r0, [r1, #-1564]	; 0xfffff9e4
     6ac:	052e0614 	streq	r0, [lr, #-1556]!	; 0xfffff9ec
     6b0:	66010605 	strvs	r0, [r1], -r5, lsl #12
     6b4:	03060905 	movweq	r0, #26885	; 0x6905
     6b8:	14050175 	strne	r0, [r5], #-373	; 0xfffffe8b
     6bc:	05016103 	streq	r6, [r1, #-259]	; 0xfffffefd
     6c0:	14051305 	strne	r1, [r5], #-773	; 0xfffffcfb
     6c4:	05016b03 	streq	r6, [r1, #-2819]	; 0xfffff4fd
     6c8:	16051305 	strne	r1, [r5], -r5, lsl #6
     6cc:	062e0101 	strteq	r0, [lr], -r1, lsl #2
     6d0:	06050501 	streq	r0, [r5], -r1, lsl #10
     6d4:	03140513 	tsteq	r4, #79691776	; 0x4c00000
     6d8:	0505015b 	streq	r0, [r5, #-347]	; 0xfffffea5
     6dc:	06100513 			; <UNDEFINED> instruction: 0x06100513
     6e0:	09052e01 	stmdbeq	r5, {r0, r9, sl, fp, sp}
     6e4:	010a0306 	tsteq	sl, r6, lsl #6
     6e8:	05110a05 	ldreq	r0, [r1, #-2565]	; 0xfffff5fb
     6ec:	2e010111 	mcrcs	1, 0, r0, cr1, cr1, {0}
     6f0:	23050106 	movwcs	r0, #20742	; 0x5106
     6f4:	2e0a0501 	cfsh32cs	mvfx0, mvfx10, #1
     6f8:	0609054a 	streq	r0, [r9], -sl, asr #10
     6fc:	0100cd03 	tsteq	r0, r3, lsl #26
     700:	68031405 	stmdavs	r3, {r0, r2, sl, ip}
     704:	13050501 	movwne	r0, #21761	; 0x5501
     708:	6b031405 	blvs	c5724 <__bss_end__+0xbb254>
     70c:	13050501 	movwne	r0, #21761	; 0x5501
     710:	01011605 	tsteq	r1, r5, lsl #12
     714:	0501062e 	streq	r0, [r1, #-1582]	; 0xfffff9d2
     718:	05130605 	ldreq	r0, [r3, #-1541]	; 0xfffff9fb
     71c:	01560314 	cmpeq	r6, r4, lsl r3
     720:	05130505 	ldreq	r0, [r3, #-1285]	; 0xfffffafb
     724:	2e010610 	mcrcs	6, 0, r0, cr1, cr0, {0}
     728:	19060905 	stmdbne	r6, {r0, r2, r8, fp}
     72c:	05110a05 	ldreq	r0, [r1, #-2565]	; 0xfffff5fb
     730:	2e010111 	mcrcs	1, 0, r0, cr1, cr1, {0}
     734:	23050106 	movwcs	r0, #20742	; 0x5106
     738:	2e0a0501 	cfsh32cs	mvfx0, mvfx10, #1
     73c:	061b054a 	ldreq	r0, [fp], -sl, asr #10
     740:	0100d703 	tsteq	r0, r3, lsl #14
     744:	01061c05 	tsteq	r6, r5, lsl #24
     748:	2e061405 	cdpcs	4, 0, cr1, cr6, cr5, {0}
     74c:	01060505 	tsteq	r6, r5, lsl #10
     750:	31050104 	tstcc	r5, r4, lsl #2
     754:	7ed00306 	cdpvc	3, 13, cr0, cr0, cr6, {0}
     758:	1305059e 	movwne	r0, #21918	; 0x559e
     75c:	06310513 			; <UNDEFINED> instruction: 0x06310513
     760:	30370510 	eorscc	r0, r7, r0, lsl r5
     764:	052e0e05 	streq	r0, [lr, #-3589]!	; 0xfffff1fb
     768:	052f0605 	streq	r0, [pc, #-1541]!	; 16b <__code_start__-0x7e95>
     76c:	050f0631 	streq	r0, [pc, #-1585]	; 143 <__code_start__-0x7ebd>
     770:	31053109 	tstcc	r5, r9, lsl #2
     774:	3109052b 	tstcc	r9, fp, lsr #10
     778:	0605052e 	streq	r0, [r5], -lr, lsr #10
     77c:	1406682f 	strne	r6, [r6], #-2095	; 0xfffff7d1
     780:	052c0f05 	streq	r0, [ip, #-3845]!	; 0xfffff0fb
     784:	052f0605 	streq	r0, [pc, #-1541]!	; 187 <__code_start__-0x7e79>
     788:	0501060c 	streq	r0, [r1, #-1548]	; 0xfffff9f4
     78c:	2f2f0605 	svccs	0x002f0605
     790:	13060105 	movwne	r0, #24837	; 0x6105
     794:	a1064105 	tstge	r6, r5, lsl #2
     798:	05130505 	ldreq	r0, [r3, #-1285]	; 0xfffffafb
     79c:	04110641 	ldreq	r0, [r1], #-1601	; 0xfffff9bf
     7a0:	03140502 	tsteq	r4, #8388608	; 0x800000
     7a4:	2e2e00c3 	cdpcs	0, 2, cr0, cr14, cr3, {6}
     7a8:	00e60306 	rsceq	r0, r6, r6, lsl #6
     7ac:	17050501 	strne	r0, [r5, -r1, lsl #10]
     7b0:	74031405 	strvc	r1, [r3], #-1029	; 0xfffffbfb
     7b4:	13050501 	movwne	r0, #21761	; 0x5501
     7b8:	05010905 	streq	r0, [r1, #-2309]	; 0xfffff6fb
     7bc:	0d050114 	stfeqs	f0, [r5, #-80]	; 0xffffffb0
     7c0:	01040106 	tsteq	r4, r6, lsl #2
     7c4:	de030505 	cfsh32le	mvfx0, mvfx3, #5
     7c8:	02042e7e 	andeq	r2, r4, #2016	; 0x7e0
     7cc:	c2031005 	andgt	r1, r3, #5, 0
     7d0:	14052e00 	strne	r2, [r5], #-3584	; 0xfffff200
     7d4:	09052e2e 	stmdbeq	r5, {r1, r2, r3, r5, r9, sl, fp, sp}
     7d8:	00e10306 	rsceq	r0, r1, r6, lsl #6
     7dc:	03140501 	tsteq	r4, #4194304	; 0x400000
     7e0:	0505016f 	streq	r0, [r5, #-367]	; 0xfffffe91
     7e4:	061d0513 			; <UNDEFINED> instruction: 0x061d0513
     7e8:	05011003 	streq	r1, [r1, #-3]
     7ec:	2e700308 	cdpcs	3, 7, cr0, cr0, cr8, {0}
     7f0:	4b060905 	blmi	182c0c <__bss_end__+0x17873c>
     7f4:	5f031405 	svcpl	0x00031405
     7f8:	13050501 	movwne	r0, #21761	; 0x5501
     7fc:	70031405 	andvc	r1, r3, r5, lsl #8
     800:	13050501 	movwne	r0, #21761	; 0x5501
     804:	01011605 	tsteq	r1, r5, lsl #12
     808:	0501062e 	streq	r0, [r1, #-1582]	; 0xfffff9d2
     80c:	05130605 	ldreq	r0, [r3, #-1541]	; 0xfffff9fb
     810:	015b0314 	cmpeq	fp, r4, lsl r3
     814:	05130505 	ldreq	r0, [r3, #-1285]	; 0xfffffafb
     818:	2e010610 	mcrcs	6, 0, r0, cr1, cr0, {0}
     81c:	03060905 	movweq	r0, #26885	; 0x6905
     820:	0a05010a 	beq	140c50 <__bss_end__+0x136780>
     824:	01110511 	tsteq	r1, r1, lsl r5
     828:	01062e01 	tsteq	r6, r1, lsl #28
     82c:	05012305 	streq	r2, [r1, #-773]	; 0xfffffcfb
     830:	054a2e0a 	strbeq	r2, [sl, #-3594]	; 0xfffff1f6
     834:	ca030609 	bgt	c2060 <__bss_end__+0xb7b90>
     838:	14050100 	strne	r0, [r5], #-256	; 0xffffff00
     83c:	05016703 	streq	r6, [r1, #-1795]	; 0xfffff8fd
     840:	14051305 	strne	r1, [r5], #-773	; 0xfffffcfb
     844:	05016f03 	streq	r6, [r1, #-3843]	; 0xfffff0fd
     848:	16051305 	strne	r1, [r5], -r5, lsl #6
     84c:	062e0101 	strteq	r0, [lr], -r1, lsl #2
     850:	06050501 	streq	r0, [r5], -r1, lsl #10
     854:	03140513 	tsteq	r4, #79691776	; 0x4c00000
     858:	05050156 	streq	r0, [r5, #-342]	; 0xfffffeaa
     85c:	06100513 			; <UNDEFINED> instruction: 0x06100513
     860:	09052e01 	stmdbeq	r5, {r0, r9, sl, fp, sp}
     864:	0a051906 	beq	146c84 <__bss_end__+0x13c7b4>
     868:	01110511 	tsteq	r1, r1, lsl r5
     86c:	01062e01 	tsteq	r6, r1, lsl #28
     870:	05012305 	streq	r2, [r1, #-773]	; 0xfffffcfb
     874:	054a2e0a 	strbeq	r2, [sl, #-3594]	; 0xfffff1f6
     878:	d703061b 	smladle	r3, fp, r6, r0
     87c:	1c050100 	stfnes	f0, [r5], {-0}
     880:	14050106 	strne	r0, [r5], #-262	; 0xfffffefa
     884:	05052e06 	streq	r2, [r5, #-3590]	; 0xfffff1fa
     888:	054a0106 	strbeq	r0, [sl, #-262]	; 0xfffffefa
     88c:	1005010d 	andne	r0, r5, sp, lsl #2
     890:	2e7fa003 	cdpcs	0, 7, cr10, cr15, cr3, {0}
     894:	0609052e 	streq	r0, [r9], -lr, lsr #10
     898:	0100e103 	tsteq	r0, r3, lsl #2
     89c:	6f031405 	svcvs	0x00031405
     8a0:	13050501 	movwne	r0, #21761	; 0x5501
     8a4:	03061d05 	movweq	r1, #27909	; 0x6d05
     8a8:	08050110 	stmdaeq	r5, {r4, r8}
     8ac:	052e7003 	streq	r7, [lr, #-3]!
     8b0:	054b0609 	strbeq	r0, [fp, #-1545]	; 0xfffff9f7
     8b4:	015f0314 	cmpeq	pc, r4, lsl r3	; <UNPREDICTABLE>
     8b8:	05130505 	ldreq	r0, [r3, #-1285]	; 0xfffffafb
     8bc:	01700314 	cmneq	r0, r4, lsl r3
     8c0:	05130505 	ldreq	r0, [r3, #-1285]	; 0xfffffafb
     8c4:	2e010116 	mcrcs	1, 0, r0, cr1, cr6, {0}
     8c8:	05050106 	streq	r0, [r5, #-262]	; 0xfffffefa
     8cc:	14051306 	strne	r1, [r5], #-774	; 0xfffffcfa
     8d0:	05015b03 	streq	r5, [r1, #-2819]	; 0xfffff4fd
     8d4:	10051305 	andne	r1, r5, r5, lsl #6
     8d8:	052e0106 	streq	r0, [lr, #-262]!	; 0xfffffefa
     8dc:	0a030609 	beq	c2108 <__bss_end__+0xb7c38>
     8e0:	110a0501 	tstne	sl, r1, lsl #10
     8e4:	01011105 	tsteq	r1, r5, lsl #2
     8e8:	0501062e 	streq	r0, [r1, #-1582]	; 0xfffff9d2
     8ec:	0a050123 	beq	140d80 <__bss_end__+0x1368b0>
     8f0:	09054a2e 	stmdbeq	r5, {r1, r2, r3, r5, r9, fp, lr}
     8f4:	00ca0306 	sbceq	r0, sl, r6, lsl #6
     8f8:	03140501 	tsteq	r4, #4194304	; 0x400000
     8fc:	05050167 	streq	r0, [r5, #-359]	; 0xfffffe99
     900:	03140513 	tsteq	r4, #79691776	; 0x4c00000
     904:	0505016f 	streq	r0, [r5, #-367]	; 0xfffffe91
     908:	01160513 	tsteq	r6, r3, lsl r5
     90c:	01062e01 	tsteq	r6, r1, lsl #28
     910:	13060505 	movwne	r0, #25861	; 0x6505
     914:	56031405 	strpl	r1, [r3], -r5, lsl #8
     918:	13050501 	movwne	r0, #21761	; 0x5501
     91c:	01061005 	tsteq	r6, r5
     920:	0609052e 	streq	r0, [r9], -lr, lsr #10
     924:	110a0519 	tstne	sl, r9, lsl r5
     928:	01011105 	tsteq	r1, r5, lsl #2
     92c:	0501062e 	streq	r0, [r1, #-1582]	; 0xfffff9d2
     930:	0a050123 	beq	140dc4 <__bss_end__+0x1368f4>
     934:	1b054a2e 	blne	1531f4 <__bss_end__+0x148d24>
     938:	00d70306 	sbcseq	r0, r7, r6, lsl #6
     93c:	061c0501 	ldreq	r0, [ip], -r1, lsl #10
     940:	06140501 	ldreq	r0, [r4], -r1, lsl #10
     944:	0605052e 	streq	r0, [r5], -lr, lsr #10
     948:	0d054a01 	vstreq	s8, [r5, #-4]
     94c:	06090501 	streq	r0, [r9], -r1, lsl #10
     950:	0314052f 	tsteq	r4, #197132288	; 0xbc00000
     954:	0505016f 	streq	r0, [r5, #-367]	; 0xfffffe91
     958:	061d0513 			; <UNDEFINED> instruction: 0x061d0513
     95c:	05011003 	streq	r1, [r1, #-3]
     960:	2e700308 	cdpcs	3, 7, cr0, cr0, cr8, {0}
     964:	af031005 	svcge	0x00031005
     968:	08052e7f 	stmdaeq	r5, {r0, r1, r2, r3, r4, r5, r6, r9, sl, fp, sp}
     96c:	2e00d103 	mvfcss	f5, f3
     970:	2f060905 	svccs	0x00060905
     974:	5f031405 	svcpl	0x00031405
     978:	13050501 	movwne	r0, #21761	; 0x5501
     97c:	70031405 	andvc	r1, r3, r5, lsl #8
     980:	13050501 	movwne	r0, #21761	; 0x5501
     984:	01011605 	tsteq	r1, r5, lsl #12
     988:	0501062e 	streq	r0, [r1, #-1582]	; 0xfffff9d2
     98c:	05130605 	ldreq	r0, [r3, #-1541]	; 0xfffff9fb
     990:	015b0314 	cmpeq	fp, r4, lsl r3
     994:	05130505 	ldreq	r0, [r3, #-1285]	; 0xfffffafb
     998:	2e010610 	mcrcs	6, 0, r0, cr1, cr0, {0}
     99c:	03060905 	movweq	r0, #26885	; 0x6905
     9a0:	0a05010a 	beq	140dd0 <__bss_end__+0x136900>
     9a4:	01110511 	tsteq	r1, r1, lsl r5
     9a8:	01062e01 	tsteq	r6, r1, lsl #28
     9ac:	05012305 	streq	r2, [r1, #-773]	; 0xfffffcfb
     9b0:	054a2e0a 	strbeq	r2, [sl, #-3594]	; 0xfffff1f6
     9b4:	ca030609 	bgt	c21e0 <__bss_end__+0xb7d10>
     9b8:	14050100 	strne	r0, [r5], #-256	; 0xffffff00
     9bc:	05016703 	streq	r6, [r1, #-1795]	; 0xfffff8fd
     9c0:	14051305 	strne	r1, [r5], #-773	; 0xfffffcfb
     9c4:	05016f03 	streq	r6, [r1, #-3843]	; 0xfffff0fd
     9c8:	16051305 	strne	r1, [r5], -r5, lsl #6
     9cc:	062e0101 	strteq	r0, [lr], -r1, lsl #2
     9d0:	06050501 	streq	r0, [r5], -r1, lsl #10
     9d4:	03140513 	tsteq	r4, #79691776	; 0x4c00000
     9d8:	05050156 	streq	r0, [r5, #-342]	; 0xfffffeaa
     9dc:	06100513 			; <UNDEFINED> instruction: 0x06100513
     9e0:	09052e01 	stmdbeq	r5, {r0, r9, sl, fp, sp}
     9e4:	0a051906 	beq	146e04 <__bss_end__+0x13c934>
     9e8:	01110511 	tsteq	r1, r1, lsl r5
     9ec:	01062e01 	tsteq	r6, r1, lsl #28
     9f0:	05012305 	streq	r2, [r1, #-773]	; 0xfffffcfb
     9f4:	054a2e0a 	strbeq	r2, [sl, #-3594]	; 0xfffff1f6
     9f8:	d703061b 	smladle	r3, fp, r6, r0
     9fc:	1c050100 	stfnes	f0, [r5], {-0}
     a00:	14050106 	strne	r0, [r5], #-262	; 0xfffffefa
     a04:	05052e06 	streq	r2, [r5, #-3590]	; 0xfffff1fa
     a08:	09050106 	stmdbeq	r5, {r1, r2, r8}
     a0c:	14054b06 	strne	r4, [r5], #-2822	; 0xfffff4fa
     a10:	05016f03 	streq	r6, [r1, #-3843]	; 0xfffff0fd
     a14:	1d051305 	stcne	3, cr1, [r5, #-20]	; 0xffffffec
     a18:	01100306 	tsteq	r0, r6, lsl #6
     a1c:	70030805 	andvc	r0, r3, r5, lsl #16
     a20:	0609052e 	streq	r0, [r9], -lr, lsr #10
     a24:	0314054e 	tsteq	r4, #327155712	; 0x13800000
     a28:	05050161 	streq	r0, [r5, #-353]	; 0xfffffe9f
     a2c:	03140513 	tsteq	r4, #79691776	; 0x4c00000
     a30:	0505016b 	streq	r0, [r5, #-363]	; 0xfffffe95
     a34:	01160513 	tsteq	r6, r3, lsl r5
     a38:	01062e01 	tsteq	r6, r1, lsl #28
     a3c:	13060505 	movwne	r0, #25861	; 0x6505
     a40:	5b031405 	blpl	c5a5c <__bss_end__+0xbb58c>
     a44:	13050501 	movwne	r0, #21761	; 0x5501
     a48:	01061005 	tsteq	r6, r5
     a4c:	0609052e 	streq	r0, [r9], -lr, lsr #10
     a50:	05010a03 	streq	r0, [r1, #-2563]	; 0xfffff5fd
     a54:	1105110a 	tstne	r5, sl, lsl #2
     a58:	062e0101 	strteq	r0, [lr], -r1, lsl #2
     a5c:	01230501 			; <UNDEFINED> instruction: 0x01230501
     a60:	4a2e0a05 	bmi	b8327c <__bss_end__+0xb78dac>
     a64:	03060905 	movweq	r0, #26885	; 0x6905
     a68:	050100cd 	streq	r0, [r1, #-205]	; 0xffffff33
     a6c:	01680314 	cmneq	r8, r4, lsl r3
     a70:	05130505 	ldreq	r0, [r3, #-1285]	; 0xfffffafb
     a74:	016b0314 	cmneq	fp, r4, lsl r3
     a78:	05130505 	ldreq	r0, [r3, #-1285]	; 0xfffffafb
     a7c:	2e010116 	mcrcs	1, 0, r0, cr1, cr6, {0}
     a80:	05050106 	streq	r0, [r5, #-262]	; 0xfffffefa
     a84:	14051306 	strne	r1, [r5], #-774	; 0xfffffcfa
     a88:	05015603 	streq	r5, [r1, #-1539]	; 0xfffff9fd
     a8c:	10051305 	andne	r1, r5, r5, lsl #6
     a90:	052e0106 	streq	r0, [lr, #-262]!	; 0xfffffefa
     a94:	05190609 	ldreq	r0, [r9, #-1545]	; 0xfffff9f7
     a98:	1105110a 	tstne	r5, sl, lsl #2
     a9c:	062e0101 	strteq	r0, [lr], -r1, lsl #2
     aa0:	01230501 			; <UNDEFINED> instruction: 0x01230501
     aa4:	662e0a05 	strtvs	r0, [lr], -r5, lsl #20
     aa8:	03060905 	movweq	r0, #26885	; 0x6905
     aac:	050100cc 	streq	r0, [r1, #-204]	; 0xffffff34
     ab0:	01610314 	cmneq	r1, r4, lsl r3
     ab4:	05130505 	ldreq	r0, [r3, #-1285]	; 0xfffffafb
     ab8:	016b0314 	cmneq	fp, r4, lsl r3
     abc:	05130505 	ldreq	r0, [r3, #-1285]	; 0xfffffafb
     ac0:	2e010116 	mcrcs	1, 0, r0, cr1, cr6, {0}
     ac4:	05050106 	streq	r0, [r5, #-262]	; 0xfffffefa
     ac8:	14051306 	strne	r1, [r5], #-774	; 0xfffffcfa
     acc:	05015b03 	streq	r5, [r1, #-2819]	; 0xfffff4fd
     ad0:	10051305 	andne	r1, r5, r5, lsl #6
     ad4:	052e0106 	streq	r0, [lr, #-262]!	; 0xfffffefa
     ad8:	0a030609 	beq	c2304 <__bss_end__+0xb7e34>
     adc:	110a0501 	tstne	sl, r1, lsl #10
     ae0:	01011105 	tsteq	r1, r5, lsl #2
     ae4:	0501062e 	streq	r0, [r1, #-1582]	; 0xfffff9d2
     ae8:	0a050123 	beq	140f7c <__bss_end__+0x136aac>
     aec:	09054a2e 	stmdbeq	r5, {r1, r2, r3, r5, r9, fp, lr}
     af0:	00cd0306 	sbceq	r0, sp, r6, lsl #6
     af4:	03140501 	tsteq	r4, #4194304	; 0x400000
     af8:	05050168 	streq	r0, [r5, #-360]	; 0xfffffe98
     afc:	03140513 	tsteq	r4, #79691776	; 0x4c00000
     b00:	0505016b 	streq	r0, [r5, #-363]	; 0xfffffe95
     b04:	01160513 	tsteq	r6, r3, lsl r5
     b08:	01062e01 	tsteq	r6, r1, lsl #28
     b0c:	13060505 	movwne	r0, #25861	; 0x6505
     b10:	56031405 	strpl	r1, [r3], -r5, lsl #8
     b14:	13050501 	movwne	r0, #21761	; 0x5501
     b18:	01061005 	tsteq	r6, r5
     b1c:	0609052e 	streq	r0, [r9], -lr, lsr #10
     b20:	110a0519 	tstne	sl, r9, lsl r5
     b24:	01011105 	tsteq	r1, r5, lsl #2
     b28:	0501062e 	streq	r0, [r1, #-1582]	; 0xfffff9d2
     b2c:	0a050123 	beq	140fc0 <__bss_end__+0x136af0>
     b30:	1b054a2e 	blne	1533f0 <__bss_end__+0x148f20>
     b34:	00d70306 	sbcseq	r0, r7, r6, lsl #6
     b38:	061c0501 	ldreq	r0, [ip], -r1, lsl #10
     b3c:	06140501 	ldreq	r0, [r4], -r1, lsl #10
     b40:	0605052e 	streq	r0, [r5], -lr, lsr #10
     b44:	09056601 	stmdbeq	r5, {r0, r9, sl, sp, lr}
     b48:	01750306 	cmneq	r5, r6, lsl #6
     b4c:	61031405 	tstvs	r3, r5, lsl #8
     b50:	13050501 	movwne	r0, #21761	; 0x5501
     b54:	6b031405 	blvs	c5b70 <__bss_end__+0xbb6a0>
     b58:	13050501 	movwne	r0, #21761	; 0x5501
     b5c:	01011605 	tsteq	r1, r5, lsl #12
     b60:	0501062e 	streq	r0, [r1, #-1582]	; 0xfffff9d2
     b64:	05130605 	ldreq	r0, [r3, #-1541]	; 0xfffff9fb
     b68:	015b0314 	cmpeq	fp, r4, lsl r3
     b6c:	05130505 	ldreq	r0, [r3, #-1285]	; 0xfffffafb
     b70:	2e010610 	mcrcs	6, 0, r0, cr1, cr0, {0}
     b74:	03060905 	movweq	r0, #26885	; 0x6905
     b78:	0a05010a 	beq	140fa8 <__bss_end__+0x136ad8>
     b7c:	01110511 	tsteq	r1, r1, lsl r5
     b80:	01062e01 	tsteq	r6, r1, lsl #28
     b84:	05012305 	streq	r2, [r1, #-773]	; 0xfffffcfb
     b88:	054a2e0a 	strbeq	r2, [sl, #-3594]	; 0xfffff1f6
     b8c:	cd030609 	stcgt	6, cr0, [r3, #-36]	; 0xffffffdc
     b90:	14050100 	strne	r0, [r5], #-256	; 0xffffff00
     b94:	05016803 	streq	r6, [r1, #-2051]	; 0xfffff7fd
     b98:	14051305 	strne	r1, [r5], #-773	; 0xfffffcfb
     b9c:	05016b03 	streq	r6, [r1, #-2819]	; 0xfffff4fd
     ba0:	16051305 	strne	r1, [r5], -r5, lsl #6
     ba4:	062e0101 	strteq	r0, [lr], -r1, lsl #2
     ba8:	06050501 	streq	r0, [r5], -r1, lsl #10
     bac:	03140513 	tsteq	r4, #79691776	; 0x4c00000
     bb0:	05050156 	streq	r0, [r5, #-342]	; 0xfffffeaa
     bb4:	06100513 			; <UNDEFINED> instruction: 0x06100513
     bb8:	09052e01 	stmdbeq	r5, {r0, r9, sl, fp, sp}
     bbc:	0a051906 	beq	146fdc <__bss_end__+0x13cb0c>
     bc0:	01110511 	tsteq	r1, r1, lsl r5
     bc4:	01062e01 	tsteq	r6, r1, lsl #28
     bc8:	05012305 	streq	r2, [r1, #-773]	; 0xfffffcfb
     bcc:	054a2e0a 	strbeq	r2, [sl, #-3594]	; 0xfffff1f6
     bd0:	d703061b 	smladle	r3, fp, r6, r0
     bd4:	1c050100 	stfnes	f0, [r5], {-0}
     bd8:	14050106 	strne	r0, [r5], #-262	; 0xfffffefa
     bdc:	05052e06 	streq	r2, [r5, #-3590]	; 0xfffff1fa
     be0:	01040106 	tsteq	r4, r6, lsl #2
     be4:	03062d05 	movweq	r2, #27909	; 0x6d05
     be8:	05d67ee2 	ldrbeq	r7, [r6, #3810]	; 0xee2
     bec:	09051305 	stmdbeq	r5, {r0, r2, r8, r9, ip}
     bf0:	01140501 	tsteq	r4, r1, lsl #10
     bf4:	01060505 	tsteq	r6, r5, lsl #10
     bf8:	0502042e 	streq	r0, [r2, #-1070]	; 0xfffffbd2
     bfc:	2e3d0314 	mrccs	3, 1, r0, cr13, cr4, {0}
     c00:	2d050104 	stfcss	f0, [r5, #-16]
     c04:	052e4203 	streq	r4, [lr, #-515]!	; 0xfffffdfd
     c08:	09052f0d 	stmdbeq	r5, {r0, r2, r3, r8, r9, sl, fp, sp}
     c0c:	0502042f 	streq	r0, [r2, #-1071]	; 0xfffffbd1
     c10:	2e3c0310 	mrccs	3, 1, r0, cr12, cr0, {0}
     c14:	2e2e1405 	cdpcs	4, 2, cr1, cr14, cr5, {0}
     c18:	09050104 	stmdbeq	r5, {r2, r8}
     c1c:	03040200 	movweq	r0, #16896	; 0x4200
     c20:	01440306 	cmpeq	r4, r6, lsl #6
     c24:	14050204 	strne	r0, [r5], #-516	; 0xfffffdfc
     c28:	03040200 	movweq	r0, #16896	; 0x4200
     c2c:	0101a203 	tsteq	r1, r3, lsl #4
     c30:	02000505 	andeq	r0, r0, #20971520	; 0x1400000
     c34:	05170304 	ldreq	r0, [r7, #-772]	; 0xfffffcfc
     c38:	04020014 	streq	r0, [r2], #-20	; 0xffffffec
     c3c:	01740303 	cmneq	r4, r3, lsl #6
     c40:	02000505 	andeq	r0, r0, #20971520	; 0x1400000
     c44:	05130304 	ldreq	r0, [r3, #-772]	; 0xfffffcfc
     c48:	04020009 	streq	r0, [r2], #-9
     c4c:	14050103 	strne	r0, [r5], #-259	; 0xfffffefd
     c50:	03040200 	movweq	r0, #16896	; 0x4200
     c54:	05010401 	streq	r0, [r1, #-1025]	; 0xfffffbff
     c58:	0402000d 	streq	r0, [r2], #-13
     c5c:	e3030603 	movw	r0, #13827	; 0x3603
     c60:	0204017e 	andeq	r0, r4, #-2147483617	; 0x8000001f
     c64:	03060905 	movweq	r0, #26885	; 0x6905
     c68:	052e019e 	streq	r0, [lr, #-414]!	; 0xfffffe62
     c6c:	016f0314 	cmneq	pc, r4, lsl r3	; <UNPREDICTABLE>
     c70:	05130505 	ldreq	r0, [r3, #-1285]	; 0xfffffafb
     c74:	14051609 	strne	r1, [r5], #-1545	; 0xfffff9f7
     c78:	05016103 	streq	r6, [r1, #-259]	; 0xfffffefd
     c7c:	14051305 	strne	r1, [r5], #-773	; 0xfffffcfb
     c80:	05016b03 	streq	r6, [r1, #-2819]	; 0xfffff4fd
     c84:	16051305 	strne	r1, [r5], -r5, lsl #6
     c88:	062e0101 	strteq	r0, [lr], -r1, lsl #2
     c8c:	06050501 	streq	r0, [r5], -r1, lsl #10
     c90:	03140513 	tsteq	r4, #79691776	; 0x4c00000
     c94:	0505015b 	streq	r0, [r5, #-347]	; 0xfffffea5
     c98:	06100513 			; <UNDEFINED> instruction: 0x06100513
     c9c:	09052e01 	stmdbeq	r5, {r0, r9, sl, fp, sp}
     ca0:	010a0306 	tsteq	sl, r6, lsl #6
     ca4:	05110a05 	ldreq	r0, [r1, #-2565]	; 0xfffff5fb
     ca8:	2e010111 	mcrcs	1, 0, r0, cr1, cr1, {0}
     cac:	23050106 	movwcs	r0, #20742	; 0x5106
     cb0:	2e0a0501 	cfsh32cs	mvfx0, mvfx10, #1
     cb4:	0609054a 	streq	r0, [r9], -sl, asr #10
     cb8:	0100cd03 	tsteq	r0, r3, lsl #26
     cbc:	68031405 	stmdavs	r3, {r0, r2, sl, ip}
     cc0:	13050501 	movwne	r0, #21761	; 0x5501
     cc4:	6b031405 	blvs	c5ce0 <__bss_end__+0xbb810>
     cc8:	13050501 	movwne	r0, #21761	; 0x5501
     ccc:	01011605 	tsteq	r1, r5, lsl #12
     cd0:	0501062e 	streq	r0, [r1, #-1582]	; 0xfffff9d2
     cd4:	05130605 	ldreq	r0, [r3, #-1541]	; 0xfffff9fb
     cd8:	01560314 	cmpeq	r6, r4, lsl r3
     cdc:	05130505 	ldreq	r0, [r3, #-1285]	; 0xfffffafb
     ce0:	2e010610 	mcrcs	6, 0, r0, cr1, cr0, {0}
     ce4:	19060905 	stmdbne	r6, {r0, r2, r8, fp}
     ce8:	05110a05 	ldreq	r0, [r1, #-2565]	; 0xfffff5fb
     cec:	2e010111 	mcrcs	1, 0, r0, cr1, cr1, {0}
     cf0:	23050106 	movwcs	r0, #20742	; 0x5106
     cf4:	2e0a0501 	cfsh32cs	mvfx0, mvfx10, #1
     cf8:	061b054a 	ldreq	r0, [fp], -sl, asr #10
     cfc:	0100d703 	tsteq	r0, r3, lsl #14
     d00:	05011405 	streq	r1, [r1, #-1029]	; 0xfffffbfb
     d04:	66010605 	strvs	r0, [r1], -r5, lsl #12
     d08:	13060905 	movwne	r0, #26885	; 0x6905
     d0c:	6f031405 	svcvs	0x00031405
     d10:	13050501 	movwne	r0, #21761	; 0x5501
     d14:	05160905 	ldreq	r0, [r6, #-2309]	; 0xfffff6fb
     d18:	01610314 	cmneq	r1, r4, lsl r3
     d1c:	05130505 	ldreq	r0, [r3, #-1285]	; 0xfffffafb
     d20:	016b0314 	cmneq	fp, r4, lsl r3
     d24:	05130505 	ldreq	r0, [r3, #-1285]	; 0xfffffafb
     d28:	2e010116 	mcrcs	1, 0, r0, cr1, cr6, {0}
     d2c:	05050106 	streq	r0, [r5, #-262]	; 0xfffffefa
     d30:	14051306 	strne	r1, [r5], #-774	; 0xfffffcfa
     d34:	05015b03 	streq	r5, [r1, #-2819]	; 0xfffff4fd
     d38:	10051305 	andne	r1, r5, r5, lsl #6
     d3c:	052e0106 	streq	r0, [lr, #-262]!	; 0xfffffefa
     d40:	0a030609 	beq	c256c <__bss_end__+0xb809c>
     d44:	110a0501 	tstne	sl, r1, lsl #10
     d48:	01011105 	tsteq	r1, r5, lsl #2
     d4c:	0501062e 	streq	r0, [r1, #-1582]	; 0xfffff9d2
     d50:	0a050123 	beq	1411e4 <__bss_end__+0x136d14>
     d54:	09054a2e 	stmdbeq	r5, {r1, r2, r3, r5, r9, fp, lr}
     d58:	00cd0306 	sbceq	r0, sp, r6, lsl #6
     d5c:	03140501 	tsteq	r4, #4194304	; 0x400000
     d60:	05050168 	streq	r0, [r5, #-360]	; 0xfffffe98
     d64:	03140513 	tsteq	r4, #79691776	; 0x4c00000
     d68:	0505016b 	streq	r0, [r5, #-363]	; 0xfffffe95
     d6c:	01160513 	tsteq	r6, r3, lsl r5
     d70:	01062e01 	tsteq	r6, r1, lsl #28
     d74:	13060505 	movwne	r0, #25861	; 0x6505
     d78:	56031405 	strpl	r1, [r3], -r5, lsl #8
     d7c:	13050501 	movwne	r0, #21761	; 0x5501
     d80:	01061005 	tsteq	r6, r5
     d84:	0609052e 	streq	r0, [r9], -lr, lsr #10
     d88:	110a0519 	tstne	sl, r9, lsl r5
     d8c:	01011105 	tsteq	r1, r5, lsl #2
     d90:	0501062e 	streq	r0, [r1, #-1582]	; 0xfffff9d2
     d94:	0a050123 	beq	141228 <__bss_end__+0x136d58>
     d98:	1b054a2e 	blne	153658 <__bss_end__+0x149188>
     d9c:	00d70306 	sbcseq	r0, r7, r6, lsl #6
     da0:	01140501 	tsteq	r4, r1, lsl #10
     da4:	01060505 	tsteq	r6, r5, lsl #10
     da8:	06090566 	streq	r0, [r9], -r6, ror #10
     dac:	03140513 	tsteq	r4, #79691776	; 0x4c00000
     db0:	0505016f 	streq	r0, [r5, #-367]	; 0xfffffe91
     db4:	16090513 			; <UNDEFINED> instruction: 0x16090513
     db8:	61031405 	tstvs	r3, r5, lsl #8
     dbc:	13050501 	movwne	r0, #21761	; 0x5501
     dc0:	6b031405 	blvs	c5ddc <__bss_end__+0xbb90c>
     dc4:	13050501 	movwne	r0, #21761	; 0x5501
     dc8:	01011605 	tsteq	r1, r5, lsl #12
     dcc:	0501062e 	streq	r0, [r1, #-1582]	; 0xfffff9d2
     dd0:	05130605 	ldreq	r0, [r3, #-1541]	; 0xfffff9fb
     dd4:	015b0314 	cmpeq	fp, r4, lsl r3
     dd8:	05130505 	ldreq	r0, [r3, #-1285]	; 0xfffffafb
     ddc:	2e010610 	mcrcs	6, 0, r0, cr1, cr0, {0}
     de0:	03060905 	movweq	r0, #26885	; 0x6905
     de4:	0a05010a 	beq	141214 <__bss_end__+0x136d44>
     de8:	01110511 	tsteq	r1, r1, lsl r5
     dec:	01062e01 	tsteq	r6, r1, lsl #28
     df0:	05012305 	streq	r2, [r1, #-773]	; 0xfffffcfb
     df4:	054a2e0a 	strbeq	r2, [sl, #-3594]	; 0xfffff1f6
     df8:	cd030609 	stcgt	6, cr0, [r3, #-36]	; 0xffffffdc
     dfc:	14050100 	strne	r0, [r5], #-256	; 0xffffff00
     e00:	05016803 	streq	r6, [r1, #-2051]	; 0xfffff7fd
     e04:	14051305 	strne	r1, [r5], #-773	; 0xfffffcfb
     e08:	05016b03 	streq	r6, [r1, #-2819]	; 0xfffff4fd
     e0c:	16051305 	strne	r1, [r5], -r5, lsl #6
     e10:	062e0101 	strteq	r0, [lr], -r1, lsl #2
     e14:	06050501 	streq	r0, [r5], -r1, lsl #10
     e18:	03140513 	tsteq	r4, #79691776	; 0x4c00000
     e1c:	05050156 	streq	r0, [r5, #-342]	; 0xfffffeaa
     e20:	06100513 			; <UNDEFINED> instruction: 0x06100513
     e24:	09052e01 	stmdbeq	r5, {r0, r9, sl, fp, sp}
     e28:	0a051906 	beq	147248 <__bss_end__+0x13cd78>
     e2c:	01110511 	tsteq	r1, r1, lsl r5
     e30:	01062e01 	tsteq	r6, r1, lsl #28
     e34:	05012305 	streq	r2, [r1, #-773]	; 0xfffffcfb
     e38:	054a2e0a 	strbeq	r2, [sl, #-3594]	; 0xfffff1f6
     e3c:	d703061b 	smladle	r3, fp, r6, r0
     e40:	14050100 	strne	r0, [r5], #-256	; 0xffffff00
     e44:	06050501 	streq	r0, [r5], -r1, lsl #10
     e48:	01044a01 	tsteq	r4, r1, lsl #20
     e4c:	02001b05 	andeq	r1, r0, #5120	; 0x1400
     e50:	03060304 	movweq	r0, #25348	; 0x6304
     e54:	05017ee3 	streq	r7, [r1, #-3811]	; 0xfffff11d
     e58:	0402001c 	streq	r0, [r2], #-28	; 0xffffffe4
     e5c:	05010603 	streq	r0, [r1, #-1539]	; 0xfffff9fd
     e60:	04020014 	streq	r0, [r2], #-20	; 0xffffffec
     e64:	052e0603 	streq	r0, [lr, #-1539]!	; 0xfffff9fd
     e68:	04020005 	streq	r0, [r2], #-5
     e6c:	06010603 	streq	r0, [r1], -r3, lsl #12
     e70:	0601054c 	streq	r0, [r1], -ip, asr #10
     e74:	2d050513 	cfstr32cs	mvfx0, [r5, #-76]	; 0xffffffb4
     e78:	2e062e06 	cdpcs	14, 0, cr2, cr6, cr6, {0}
     e7c:	00061c05 	andeq	r1, r6, r5, lsl #24
     e80:	86100205 	ldrhi	r0, [r0], -r5, lsl #4
     e84:	05150000 	ldreq	r0, [r5, #-0]
     e88:	1c051305 	stcne	3, cr1, [r5], {5}
     e8c:	1b051106 	blne	1452ac <__bss_end__+0x13addc>
     e90:	0606052f 	streq	r0, [r6], -pc, lsr #10
     e94:	052e7903 	streq	r7, [lr, #-2307]!	; 0xfffff6fd
     e98:	05051314 	streq	r1, [r5, #-788]	; 0xfffffcec
     e9c:	02040106 	andeq	r0, r4, #-2147483647	; 0x80000001
     ea0:	3d031405 	cfstrscc	mvf1, [r3, #-20]	; 0xffffffec
     ea4:	0501044a 	streq	r0, [r1, #-1098]	; 0xfffffbb6
     ea8:	2e43030d 	cdpcs	3, 4, cr0, cr3, cr13, {0}
     eac:	042f0905 	strteq	r0, [pc], #-2309	; eb4 <__code_start__-0x714c>
     eb0:	03100502 	tsteq	r0, #8388608	; 0x800000
     eb4:	14052e3c 	strne	r2, [r5], #-3644	; 0xfffff1c4
     eb8:	01042e2e 	tsteq	r4, lr, lsr #28
     ebc:	03060905 	movweq	r0, #26885	; 0x6905
     ec0:	02040144 	andeq	r0, r4, #17
     ec4:	a2031405 	andge	r1, r3, #83886080	; 0x5000000
     ec8:	05050101 	streq	r0, [r5, #-257]	; 0xfffffeff
     ecc:	03140517 	tsteq	r4, #96468992	; 0x5c00000
     ed0:	05050174 	streq	r0, [r5, #-372]	; 0xfffffe8c
     ed4:	01090513 	tsteq	r9, r3, lsl r5
     ed8:	04011405 	streq	r1, [r1], #-1029	; 0xfffffbfb
     edc:	060d0501 	streq	r0, [sp], -r1, lsl #10
     ee0:	017ee303 	cmneq	lr, r3, lsl #6
     ee4:	09050204 	stmdbeq	r5, {r2, r9}
     ee8:	019e0306 	orrseq	r0, lr, r6, lsl #6
     eec:	0314052e 	tsteq	r4, #192937984	; 0xb800000
     ef0:	0505016f 	streq	r0, [r5, #-367]	; 0xfffffe91
     ef4:	16090513 			; <UNDEFINED> instruction: 0x16090513
     ef8:	61031405 	tstvs	r3, r5, lsl #8
     efc:	13050501 	movwne	r0, #21761	; 0x5501
     f00:	6b031405 	blvs	c5f1c <__bss_end__+0xbba4c>
     f04:	13050501 	movwne	r0, #21761	; 0x5501
     f08:	01011605 	tsteq	r1, r5, lsl #12
     f0c:	0501062e 	streq	r0, [r1, #-1582]	; 0xfffff9d2
     f10:	05130605 	ldreq	r0, [r3, #-1541]	; 0xfffff9fb
     f14:	015b0314 	cmpeq	fp, r4, lsl r3
     f18:	05130505 	ldreq	r0, [r3, #-1285]	; 0xfffffafb
     f1c:	2e010610 	mcrcs	6, 0, r0, cr1, cr0, {0}
     f20:	03060905 	movweq	r0, #26885	; 0x6905
     f24:	0a05010a 	beq	141354 <__bss_end__+0x136e84>
     f28:	01110511 	tsteq	r1, r1, lsl r5
     f2c:	01062e01 	tsteq	r6, r1, lsl #28
     f30:	05012305 	streq	r2, [r1, #-773]	; 0xfffffcfb
     f34:	054a2e0a 	strbeq	r2, [sl, #-3594]	; 0xfffff1f6
     f38:	cd030609 	stcgt	6, cr0, [r3, #-36]	; 0xffffffdc
     f3c:	14050100 	strne	r0, [r5], #-256	; 0xffffff00
     f40:	05016803 	streq	r6, [r1, #-2051]	; 0xfffff7fd
     f44:	14051305 	strne	r1, [r5], #-773	; 0xfffffcfb
     f48:	05016b03 	streq	r6, [r1, #-2819]	; 0xfffff4fd
     f4c:	16051305 	strne	r1, [r5], -r5, lsl #6
     f50:	062e0101 	strteq	r0, [lr], -r1, lsl #2
     f54:	06050501 	streq	r0, [r5], -r1, lsl #10
     f58:	03140513 	tsteq	r4, #79691776	; 0x4c00000
     f5c:	05050156 	streq	r0, [r5, #-342]	; 0xfffffeaa
     f60:	06100513 			; <UNDEFINED> instruction: 0x06100513
     f64:	09052e01 	stmdbeq	r5, {r0, r9, sl, fp, sp}
     f68:	0a051906 	beq	147388 <__bss_end__+0x13ceb8>
     f6c:	01110511 	tsteq	r1, r1, lsl r5
     f70:	01062e01 	tsteq	r6, r1, lsl #28
     f74:	05012305 	streq	r2, [r1, #-773]	; 0xfffffcfb
     f78:	054a2e0a 	strbeq	r2, [sl, #-3594]	; 0xfffff1f6
     f7c:	d703061b 	smladle	r3, fp, r6, r0
     f80:	14050100 	strne	r0, [r5], #-256	; 0xffffff00
     f84:	06050501 	streq	r0, [r5], -r1, lsl #10
     f88:	09056601 	stmdbeq	r5, {r0, r9, sl, sp, lr}
     f8c:	14051306 	strne	r1, [r5], #-774	; 0xfffffcfa
     f90:	05016f03 	streq	r6, [r1, #-3843]	; 0xfffff0fd
     f94:	09051305 	stmdbeq	r5, {r0, r2, r8, r9, ip}
     f98:	03140516 	tsteq	r4, #92274688	; 0x5800000
     f9c:	05050161 	streq	r0, [r5, #-353]	; 0xfffffe9f
     fa0:	03140513 	tsteq	r4, #79691776	; 0x4c00000
     fa4:	0505016b 	streq	r0, [r5, #-363]	; 0xfffffe95
     fa8:	01160513 	tsteq	r6, r3, lsl r5
     fac:	01062e01 	tsteq	r6, r1, lsl #28
     fb0:	13060505 	movwne	r0, #25861	; 0x6505
     fb4:	5b031405 	blpl	c5fd0 <__bss_end__+0xbbb00>
     fb8:	13050501 	movwne	r0, #21761	; 0x5501
     fbc:	01061005 	tsteq	r6, r5
     fc0:	0609052e 	streq	r0, [r9], -lr, lsr #10
     fc4:	05010a03 	streq	r0, [r1, #-2563]	; 0xfffff5fd
     fc8:	1105110a 	tstne	r5, sl, lsl #2
     fcc:	062e0101 	strteq	r0, [lr], -r1, lsl #2
     fd0:	01230501 			; <UNDEFINED> instruction: 0x01230501
     fd4:	4a2e0a05 	bmi	b837f0 <__bss_end__+0xb79320>
     fd8:	03060905 	movweq	r0, #26885	; 0x6905
     fdc:	050100cd 	streq	r0, [r1, #-205]	; 0xffffff33
     fe0:	01680314 	cmneq	r8, r4, lsl r3
     fe4:	05130505 	ldreq	r0, [r3, #-1285]	; 0xfffffafb
     fe8:	016b0314 	cmneq	fp, r4, lsl r3
     fec:	05130505 	ldreq	r0, [r3, #-1285]	; 0xfffffafb
     ff0:	2e010116 	mcrcs	1, 0, r0, cr1, cr6, {0}
     ff4:	05050106 	streq	r0, [r5, #-262]	; 0xfffffefa
     ff8:	14051306 	strne	r1, [r5], #-774	; 0xfffffcfa
     ffc:	05015603 	streq	r5, [r1, #-1539]	; 0xfffff9fd
    1000:	10051305 	andne	r1, r5, r5, lsl #6
    1004:	052e0106 	streq	r0, [lr, #-262]!	; 0xfffffefa
    1008:	05190609 	ldreq	r0, [r9, #-1545]	; 0xfffff9f7
    100c:	1105110a 	tstne	r5, sl, lsl #2
    1010:	062e0101 	strteq	r0, [lr], -r1, lsl #2
    1014:	01230501 			; <UNDEFINED> instruction: 0x01230501
    1018:	4a2e0a05 	bmi	b83834 <__bss_end__+0xb79364>
    101c:	03061b05 	movweq	r1, #27397	; 0x6b05
    1020:	050100d7 	streq	r0, [r1, #-215]	; 0xffffff29
    1024:	05050114 	streq	r0, [r5, #-276]	; 0xfffffeec
    1028:	05660106 	strbeq	r0, [r6, #-262]!	; 0xfffffefa
    102c:	05130609 	ldreq	r0, [r3, #-1545]	; 0xfffff9f7
    1030:	016f0314 	cmneq	pc, r4, lsl r3	; <UNPREDICTABLE>
    1034:	05130505 	ldreq	r0, [r3, #-1285]	; 0xfffffafb
    1038:	14051609 	strne	r1, [r5], #-1545	; 0xfffff9f7
    103c:	05016103 	streq	r6, [r1, #-259]	; 0xfffffefd
    1040:	14051305 	strne	r1, [r5], #-773	; 0xfffffcfb
    1044:	05016b03 	streq	r6, [r1, #-2819]	; 0xfffff4fd
    1048:	16051305 	strne	r1, [r5], -r5, lsl #6
    104c:	062e0101 	strteq	r0, [lr], -r1, lsl #2
    1050:	06050501 	streq	r0, [r5], -r1, lsl #10
    1054:	03140513 	tsteq	r4, #79691776	; 0x4c00000
    1058:	0505015b 	streq	r0, [r5, #-347]	; 0xfffffea5
    105c:	06100513 			; <UNDEFINED> instruction: 0x06100513
    1060:	09052e01 	stmdbeq	r5, {r0, r9, sl, fp, sp}
    1064:	010a0306 	tsteq	sl, r6, lsl #6
    1068:	05110a05 	ldreq	r0, [r1, #-2565]	; 0xfffff5fb
    106c:	2e010111 	mcrcs	1, 0, r0, cr1, cr1, {0}
    1070:	23050106 	movwcs	r0, #20742	; 0x5106
    1074:	2e0a0501 	cfsh32cs	mvfx0, mvfx10, #1
    1078:	0609054a 	streq	r0, [r9], -sl, asr #10
    107c:	0100cd03 	tsteq	r0, r3, lsl #26
    1080:	68031405 	stmdavs	r3, {r0, r2, sl, ip}
    1084:	13050501 	movwne	r0, #21761	; 0x5501
    1088:	6b031405 	blvs	c60a4 <__bss_end__+0xbbbd4>
    108c:	13050501 	movwne	r0, #21761	; 0x5501
    1090:	01011605 	tsteq	r1, r5, lsl #12
    1094:	0501062e 	streq	r0, [r1, #-1582]	; 0xfffff9d2
    1098:	05130605 	ldreq	r0, [r3, #-1541]	; 0xfffff9fb
    109c:	01560314 	cmpeq	r6, r4, lsl r3
    10a0:	05130505 	ldreq	r0, [r3, #-1285]	; 0xfffffafb
    10a4:	2e010610 	mcrcs	6, 0, r0, cr1, cr0, {0}
    10a8:	19060905 	stmdbne	r6, {r0, r2, r8, fp}
    10ac:	05110a05 	ldreq	r0, [r1, #-2565]	; 0xfffff5fb
    10b0:	2e010111 	mcrcs	1, 0, r0, cr1, cr1, {0}
    10b4:	23050106 	movwcs	r0, #20742	; 0x5106
    10b8:	2e0a0501 	cfsh32cs	mvfx0, mvfx10, #1
    10bc:	061b054a 	ldreq	r0, [fp], -sl, asr #10
    10c0:	0100d703 	tsteq	r0, r3, lsl #14
    10c4:	05011405 	streq	r1, [r1, #-1029]	; 0xfffffbfb
    10c8:	4a010605 	bmi	428e4 <__bss_end__+0x38414>
    10cc:	1b050104 	blne	1414e4 <__bss_end__+0x137014>
    10d0:	7ee30306 	cdpvc	3, 14, cr0, cr3, cr6, {0}
    10d4:	061c0501 	ldreq	r0, [ip], -r1, lsl #10
    10d8:	06140501 	ldreq	r0, [r4], -r1, lsl #10
    10dc:	0605052e 	streq	r0, [r5], -lr, lsr #10
    10e0:	14064a01 	strne	r4, [r6], #-2561	; 0xfffff5ff
    10e4:	17060105 	strne	r0, [r6, -r5, lsl #2]
    10e8:	2e290505 	cfsh64cs	mvdx0, mvdx9, #5
    10ec:	00064b05 	andeq	r4, r6, r5, lsl #22
    10f0:	87000205 	strhi	r0, [r0, -r5, lsl #4]
    10f4:	051a0000 	ldreq	r0, [sl, #-0]
    10f8:	05161305 	ldreq	r1, [r6, #-773]	; 0xfffffcfb
    10fc:	050e0608 	streq	r0, [lr, #-1544]	; 0xfffff9f8
    1100:	4b053216 	blmi	14d960 <__bss_end__+0x143490>
    1104:	33160529 	tstcc	r6, #171966464	; 0xa400000
    1108:	4b060505 	blmi	182524 <__bss_end__+0x178054>
    110c:	01061605 	tsteq	r6, r5, lsl #12
    1110:	2f060505 	svccs	0x00060505
    1114:	01061605 	tsteq	r6, r5, lsl #12
    1118:	022f0105 	eoreq	r0, pc, #1073741825	; 0x40000001
    111c:	01010002 	tsteq	r1, r2
    1120:	0000025c 	andeq	r0, r0, ip, asr r2
    1124:	00a70003 	adceq	r0, r7, r3
    1128:	01020000 	mrseq	r0, (UNDEF: 2)
    112c:	000d0efb 	strdeq	r0, [sp], -fp
    1130:	01010101 	tsteq	r1, r1, lsl #2
    1134:	01000000 	mrseq	r0, (UNDEF: 0)
    1138:	2e010000 	cdpcs	0, 0, cr0, cr1, cr0, {0}
    113c:	6372732f 	cmnvs	r2, #-1140850688	; 0xbc000000
    1140:	70412f00 	subvc	r2, r1, r0, lsl #30
    1144:	63696c70 	cmnvs	r9, #112, 24	; 0x7000
    1148:	6f697461 	svcvs	0x00697461
    114c:	412f736e 			; <UNDEFINED> instruction: 0x412f736e
    1150:	6c2f4d52 	stcvs	13, cr4, [pc], #-328	; 1010 <__code_start__-0x6ff0>
    1154:	672f6269 	strvs	r6, [pc, -r9, ror #4]!
    1158:	612f6363 			; <UNDEFINED> instruction: 0x612f6363
    115c:	6e2d6d72 	mcrvs	13, 1, r6, cr13, cr2, {3}
    1160:	2d656e6f 	stclcs	14, cr6, [r5, #-444]!	; 0xfffffe44
    1164:	69626165 	stmdbvs	r2!, {r0, r2, r5, r6, r8, sp, lr}^
    1168:	2e31312f 	rsfcssp	f3, f1, #10.0
    116c:	2f312e32 	svccs	0x00312e32
    1170:	6c636e69 	stclvs	14, cr6, [r3], #-420	; 0xfffffe5c
    1174:	00656475 	rsbeq	r6, r5, r5, ror r4
    1178:	6573552f 	ldrbvs	r5, [r3, #-1327]!	; 0xfffffad1
    117c:	6d2f7372 	stcvs	3, cr7, [pc, #-456]!	; fbc <__code_start__-0x7044>
    1180:	73656c69 	cmnvc	r5, #26880	; 0x6900
    1184:	756f532f 	strbvc	r5, [pc, #-815]!	; e5d <__code_start__-0x71a3>
    1188:	2f656372 	svccs	0x00656372
    118c:	34327363 	ldrtcc	r7, [r2], #-867	; 0xfffffc9d
    1190:	2f786c30 	svccs	0x00786c30
    1194:	7062696c 	rsbvc	r6, r2, ip, ror #18
    1198:	6e692f69 	cdpvs	15, 6, cr2, cr9, cr9, {3}
    119c:	64756c63 	ldrbtvs	r6, [r5], #-3171	; 0xfffff39d
    11a0:	67000065 	strvs	r0, [r0, -r5, rrx]
    11a4:	2e6f6970 			; <UNDEFINED> instruction: 0x2e6f6970
    11a8:	00010063 	andeq	r0, r1, r3, rrx
    11ac:	64747300 	ldrbtvs	r7, [r4], #-768	; 0xfffffd00
    11b0:	2d746e69 	ldclcs	14, cr6, [r4, #-420]!	; 0xfffffe5c
    11b4:	2e636367 	cdpcs	3, 6, cr6, cr3, cr7, {3}
    11b8:	00020068 	andeq	r0, r2, r8, rrx
    11bc:	69706700 	ldmdbvs	r0!, {r8, r9, sl, sp, lr}^
    11c0:	00682e6f 	rsbeq	r2, r8, pc, ror #28
    11c4:	72000003 	andvc	r0, r0, #3, 0
    11c8:	682e6970 	stmdavs	lr!, {r4, r5, r6, r8, fp, sp, lr}
    11cc:	00000300 	andeq	r0, r0, r0, lsl #6
    11d0:	00380500 	eorseq	r0, r8, r0, lsl #10
    11d4:	87200205 	strhi	r0, [r0, -r5, lsl #4]!
    11d8:	27030000 	strcs	r0, [r3, -r0]
    11dc:	13050501 	movwne	r0, #21761	; 0x5501
    11e0:	01060705 	tsteq	r6, r5, lsl #14
    11e4:	49060605 	stmdbmi	r6, {r0, r2, r9, sl}
    11e8:	05150505 	ldreq	r0, [r5, #-1285]	; 0xfffffafb
    11ec:	05010607 	streq	r0, [r1, #-1543]	; 0xfffff9f9
    11f0:	07052b38 	smladxeq	r5, r8, fp, r2
    11f4:	0605054d 	streq	r0, [r5], -sp, asr #10
    11f8:	06180530 			; <UNDEFINED> instruction: 0x06180530
    11fc:	671c0501 	ldrvs	r0, [ip, -r1, lsl #10]
    1200:	054a0e05 	strbeq	r0, [sl, #-3589]	; 0xfffff1fb
    1204:	12052d18 	andne	r2, r5, #24, 26	; 0x600
    1208:	2d2f2e4d 	stccs	14, cr2, [pc, #-308]!	; 10dc <__code_start__-0x6f24>
    120c:	052b0e05 	streq	r0, [fp, #-3589]!	; 0xfffff1fb
    1210:	142f0605 	strtne	r0, [pc], #-1541	; 1218 <__code_start__-0x6de8>
    1214:	06070513 			; <UNDEFINED> instruction: 0x06070513
    1218:	06050501 	streq	r0, [r5], -r1, lsl #10
    121c:	4a06132f 	bmi	185ee0 <__bss_end__+0x17ba10>
    1220:	05130105 	ldreq	r0, [r3, #-261]	; 0xfffffefb
    1224:	052e2d05 	streq	r2, [lr, #-3333]!	; 0xfffff2fb
    1228:	05000624 	streq	r0, [r0, #-1572]	; 0xfffff9dc
    122c:	00878402 	addeq	r8, r7, r2, lsl #8
    1230:	05051500 	streq	r1, [r5, #-1280]	; 0xfffffb00
    1234:	03060513 	movweq	r0, #25875	; 0x6513
    1238:	05050171 	streq	r0, [r5, #-369]	; 0xfffffe8f
    123c:	06070513 			; <UNDEFINED> instruction: 0x06070513
    1240:	06060501 	streq	r0, [r6], -r1, lsl #10
    1244:	15050549 	strne	r0, [r5, #-1353]	; 0xfffffab7
    1248:	06180514 			; <UNDEFINED> instruction: 0x06180514
    124c:	03240501 			; <UNDEFINED> instruction: 0x03240501
    1250:	18052e09 	stmdane	r5, {r0, r3, r9, sl, fp, sp}
    1254:	052e7703 	streq	r7, [lr, #-1795]!	; 0xfffff8fd
    1258:	0e054b1c 	vmoveq.32	d5[0], r4
    125c:	2d18054a 	cfldr32cs	mvfx0, [r8, #-296]	; 0xfffffed8
    1260:	2e4d1205 	cdpcs	2, 4, cr1, cr13, cr5, {0}
    1264:	0f052d2f 	svceq	0x00052d2f
    1268:	290e0530 	stmdbcs	lr, {r4, r5, r8, sl}
    126c:	2f060505 	svccs	0x00060505
    1270:	07051314 	smladeq	r5, r4, r3, r1
    1274:	05050106 	streq	r0, [r5, #-262]	; 0xfffffefa
    1278:	06132f06 	ldreq	r2, [r3], -r6, lsl #30
    127c:	1701054a 	strne	r0, [r1, -sl, asr #10]
    1280:	2e290505 	cfsh64cs	mvdx0, mvdx9, #5
    1284:	00062705 	andeq	r2, r6, r5, lsl #14
    1288:	87e00205 	strbhi	r0, [r0, r5, lsl #4]!
    128c:	051a0000 	ldreq	r0, [sl, #-0]
    1290:	27051305 	strcs	r1, [r5, -r5, lsl #6]
    1294:	18051106 	stmdane	r5, {r1, r2, r8, ip}
    1298:	2e05052f 	cfsh32cs	mvfx0, mvfx5, #31
    129c:	28054a2e 	stmdacs	r5, {r1, r2, r3, r5, r9, fp, lr}
    12a0:	02050006 	andeq	r0, r5, #6, 0
    12a4:	000087f8 	strdeq	r8, [r0], -r8	; <UNPREDICTABLE>
    12a8:	13050516 	movwne	r0, #21782	; 0x5516
    12ac:	11062805 	tstne	r6, r5, lsl #16
    12b0:	052f1805 	streq	r1, [pc, #-2053]!	; ab3 <__code_start__-0x754d>
    12b4:	4a2e2e05 	bmi	b8cad0 <__bss_end__+0xb82600>
    12b8:	00062305 	andeq	r2, r6, r5, lsl #6
    12bc:	88100205 	ldmdahi	r0, {r0, r2, r9}
    12c0:	05160000 	ldreq	r0, [r6, #-0]
    12c4:	06051305 	streq	r1, [r5], -r5, lsl #6
    12c8:	05016203 	streq	r6, [r1, #-515]	; 0xfffffdfd
    12cc:	07051305 	streq	r1, [r5, -r5, lsl #6]
    12d0:	06050106 	streq	r0, [r5], -r6, lsl #2
    12d4:	05054906 	streq	r4, [r5, #-2310]	; 0xfffff6fa
    12d8:	05131415 	ldreq	r1, [r3, #-1045]	; 0xfffffbeb
    12dc:	17030623 	strne	r0, [r3, -r3, lsr #12]
    12e0:	03220501 			; <UNDEFINED> instruction: 0x03220501
    12e4:	1c052e69 	stcne	14, cr2, [r5], {105}	; 0x69
    12e8:	0e052e82 	cdpeq	14, 0, cr2, cr5, cr2, {4}
    12ec:	0605052e 	streq	r0, [r5], -lr, lsr #10
    12f0:	06120530 			; <UNDEFINED> instruction: 0x06120530
    12f4:	052d4b01 	streq	r4, [sp, #-2817]!	; 0xfffff4ff
    12f8:	132f0605 			; <UNDEFINED> instruction: 0x132f0605
    12fc:	06180513 			; <UNDEFINED> instruction: 0x06180513
    1300:	05017a03 	streq	r7, [r1, #-2563]	; 0xfffff5fd
    1304:	05054a0e 	streq	r4, [r5, #-2574]	; 0xfffff5f2
    1308:	01052e34 	tsteq	r5, r4, lsr lr
    130c:	052e1403 	streq	r1, [lr, #-1027]!	; 0xfffffbfd
    1310:	2e6c0305 	cdpcs	3, 6, cr0, cr12, cr5, {0}
    1314:	062b052e 	strteq	r0, [fp], -lr, lsr #10
    1318:	68020500 	stmdavs	r2, {r8, sl}
    131c:	03000088 	movweq	r0, #136	; 0x88
    1320:	05050117 	streq	r0, [r5, #-279]	; 0xfffffee9
    1324:	06070513 			; <UNDEFINED> instruction: 0x06070513
    1328:	03180501 	tsteq	r8, #4194304	; 0x400000
    132c:	2b052e71 	blcs	14ccf8 <__bss_end__+0x142828>
    1330:	052e0e03 	streq	r0, [lr, #-3587]!	; 0xfffff1fd
    1334:	09052f07 	stmdbeq	r5, {r0, r1, r2, r8, r9, sl, fp, sp}
    1338:	0d052f06 	stceq	15, cr2, [r5, #-24]	; 0xffffffe8
    133c:	05016f03 	streq	r6, [r1, #-3843]	; 0xfffff0fd
    1340:	2e061305 	cdpcs	3, 0, cr1, cr6, cr5, {0}
    1344:	09052e2e 	stmdbeq	r5, {r1, r2, r3, r5, r9, sl, fp, sp}
    1348:	01120306 	tsteq	r2, r6, lsl #6
    134c:	72030d05 	andvc	r0, r3, #320	; 0x140
    1350:	13050501 	movwne	r0, #21761	; 0x5501
    1354:	052e2e06 	streq	r2, [lr, #-3590]!	; 0xfffff1fa
    1358:	1003061d 	andne	r0, r3, sp, lsl r6
    135c:	13050566 	movwne	r0, #21862	; 0x5566
    1360:	01060e05 	tsteq	r6, r5, lsl #28
    1364:	2e2d1d05 	cdpcs	13, 2, cr1, cr13, cr5, {0}
    1368:	30060505 	andcc	r0, r6, r5, lsl #10
    136c:	06170513 			; <UNDEFINED> instruction: 0x06170513
    1370:	0e052e01 	cdpeq	14, 0, cr2, cr5, cr1, {0}
    1374:	2f23052d 	svccs	0x0023052d
    1378:	022f0105 	eoreq	r0, pc, #1073741825	; 0x40000001
    137c:	01010006 	tsteq	r1, r6
    1380:	00000121 	andeq	r0, r0, r1, lsr #2
    1384:	00be0003 	adcseq	r0, lr, r3
    1388:	01020000 	mrseq	r0, (UNDEF: 2)
    138c:	000d0efb 	strdeq	r0, [sp], -fp
    1390:	01010101 	tsteq	r1, r1, lsl #2
    1394:	01000000 	mrseq	r0, (UNDEF: 0)
    1398:	2e010000 	cdpcs	0, 0, cr0, cr1, cr0, {0}
    139c:	62696c2f 	rsbvs	r6, r9, #12032	; 0x2f00
    13a0:	552f0063 	strpl	r0, [pc, #-99]!	; 1345 <__code_start__-0x6cbb>
    13a4:	73726573 	cmnvc	r2, #482344960	; 0x1cc00000
    13a8:	6c696d2f 	stclvs	13, cr6, [r9], #-188	; 0xffffff44
    13ac:	532f7365 			; <UNDEFINED> instruction: 0x532f7365
    13b0:	6372756f 	cmnvs	r2, #465567744	; 0x1bc00000
    13b4:	73632f65 	cmnvc	r3, #404	; 0x194
    13b8:	6c303432 	cfldrsvs	mvf3, [r0], #-200	; 0xffffff38
    13bc:	696c2f78 	stmdbvs	ip!, {r3, r4, r5, r6, r8, r9, sl, fp, sp}^
    13c0:	2f697062 	svccs	0x00697062
    13c4:	6c636e69 	stclvs	14, cr6, [r3], #-420	; 0xfffffe5c
    13c8:	00656475 	rsbeq	r6, r5, r5, ror r4
    13cc:	74706f2f 	ldrbtvc	r6, [r0], #-3887	; 0xfffff0d1
    13d0:	6d6f682f 	stclvs	8, cr6, [pc, #-188]!	; 131c <__code_start__-0x6ce4>
    13d4:	65726265 	ldrbvs	r6, [r2, #-613]!	; 0xfffffd9b
    13d8:	65432f77 	strbvs	r2, [r3, #-3959]	; 0xfffff089
    13dc:	72616c6c 	rsbvc	r6, r1, #108, 24	; 0x6c00
    13e0:	6d72612f 	ldfvse	f6, [r2, #-188]!	; 0xffffff44
    13e4:	6e6f6e2d 	cdpvs	14, 6, cr6, cr15, cr13, {1}
    13e8:	61652d65 	cmnvs	r5, r5, ror #26
    13ec:	392d6962 	pushcc	{r1, r5, r6, r8, fp, sp, lr}
    13f0:	322d392f 	eorcc	r3, sp, #770048	; 0xbc000
    13f4:	71393130 	teqvc	r9, r0, lsr r1
    13f8:	73632d34 	cmnvc	r3, #52, 26	; 0xd00
    13fc:	65373031 	ldrvs	r3, [r7, #-49]!	; 0xffffffcf
    1400:	62696c2f 	rsbvs	r6, r9, #12032	; 0x2f00
    1404:	6363672f 	cmnvs	r3, #12320768	; 0xbc0000
    1408:	6d72612f 	ldfvse	f6, [r2, #-188]!	; 0xffffff44
    140c:	6e6f6e2d 	cdpvs	14, 6, cr6, cr15, cr13, {1}
    1410:	61652d65 	cmnvs	r5, r5, ror #26
    1414:	392f6962 	stmdbcc	pc!, {r1, r5, r6, r8, fp, sp, lr}	; <UNPREDICTABLE>
    1418:	312e322e 			; <UNDEFINED> instruction: 0x312e322e
    141c:	636e692f 	cmnvs	lr, #770048	; 0xbc000
    1420:	6564756c 	strbvs	r7, [r4, #-1388]!	; 0xfffffa94
    1424:	656d0000 	strbvs	r0, [sp, #-0]!
    1428:	7465736d 	strbtvc	r7, [r5], #-877	; 0xfffffc93
    142c:	0100632e 	tsteq	r0, lr, lsr #6
    1430:	70720000 	rsbsvc	r0, r2, r0
    1434:	00682e69 	rsbeq	r2, r8, r9, ror #28
    1438:	73000002 	movwvc	r0, #2
    143c:	65646474 	strbvs	r6, [r4, #-1140]!	; 0xfffffb8c
    1440:	00682e66 	rsbeq	r2, r8, r6, ror #28
    1444:	00000003 	andeq	r0, r0, r3
    1448:	05002905 	streq	r2, [r0, #-2309]	; 0xfffff6fb
    144c:	0088c002 	addeq	ip, r8, r2
    1450:	05051500 	streq	r1, [r5, #-1280]	; 0xfffffb00
    1454:	06290513 			; <UNDEFINED> instruction: 0x06290513
    1458:	2f140511 	svccs	0x00140511
    145c:	30060505 	andcc	r0, r6, r5, lsl #10
    1460:	06010a05 	streq	r0, [r1], -r5, lsl #20
    1464:	0609059e 			; <UNDEFINED> instruction: 0x0609059e
    1468:	060e05d7 			; <UNDEFINED> instruction: 0x060e05d7
    146c:	060a0501 	streq	r0, [sl], -r1, lsl #10
    1470:	bb09052d 	bllt	24292c <__bss_end__+0x23845c>
    1474:	01060e05 	tsteq	r6, r5, lsl #28
    1478:	060a052e 	streq	r0, [sl], -lr, lsr #10
    147c:	4b09052d 	blmi	242938 <__bss_end__+0x238468>
    1480:	01060b05 	tsteq	r6, r5, lsl #22
    1484:	052d0a05 	streq	r0, [sp, #-2565]!	; 0xfffff5fb
    1488:	0a052f0e 	beq	14d0c8 <__bss_end__+0x142bf8>
    148c:	0e052d06 	cdpeq	13, 0, cr2, cr5, cr6, {0}
    1490:	09051306 	stmdbeq	r5, {r1, r2, r8, r9, ip}
    1494:	0a052e06 	beq	14ccb4 <__bss_end__+0x1427e4>
    1498:	14050511 	strne	r0, [r5], #-1297	; 0xfffffaef
    149c:	13060105 	movwne	r0, #24837	; 0x6105
    14a0:	01000202 	tsteq	r0, r2, lsl #4
    14a4:	00012001 	andeq	r2, r1, r1
    14a8:	db000300 	blle	20b0 <__code_start__-0x5f50>
    14ac:	02000000 	andeq	r0, r0, #0, 0
    14b0:	0d0efb01 	vstreq	d15, [lr, #-4]
    14b4:	01010100 	mrseq	r0, (UNDEF: 17)
    14b8:	00000001 	andeq	r0, r0, r1
    14bc:	01000001 	tsteq	r0, r1
    14c0:	696c2f2e 	stmdbvs	ip!, {r1, r2, r3, r5, r8, r9, sl, fp, sp}^
    14c4:	2f006362 	svccs	0x00006362
    14c8:	2f74706f 	svccs	0x0074706f
    14cc:	656d6f68 	strbvs	r6, [sp, #-3944]!	; 0xfffff098
    14d0:	77657262 	strbvc	r7, [r5, -r2, ror #4]!
    14d4:	6c65432f 	stclvs	3, cr4, [r5], #-188	; 0xffffff44
    14d8:	2f72616c 	svccs	0x0072616c
    14dc:	2d6d7261 	sfmcs	f7, 2, [sp, #-388]!	; 0xfffffe7c
    14e0:	656e6f6e 	strbvs	r6, [lr, #-3950]!	; 0xfffff092
    14e4:	6261652d 	rsbvs	r6, r1, #188743680	; 0xb400000
    14e8:	2f392d69 	svccs	0x00392d69
    14ec:	30322d39 	eorscc	r2, r2, r9, lsr sp
    14f0:	34713931 	ldrbtcc	r3, [r1], #-2353	; 0xfffff6cf
    14f4:	3173632d 	cmncc	r3, sp, lsr #6
    14f8:	2f653730 	svccs	0x00653730
    14fc:	2f62696c 	svccs	0x0062696c
    1500:	2f636367 	svccs	0x00636367
    1504:	2d6d7261 	sfmcs	f7, 2, [sp, #-388]!	; 0xfffffe7c
    1508:	656e6f6e 	strbvs	r6, [lr, #-3950]!	; 0xfffff092
    150c:	6261652d 	rsbvs	r6, r1, #188743680	; 0xb400000
    1510:	2e392f69 	cdpcs	15, 3, cr2, cr9, cr9, {3}
    1514:	2f312e32 	svccs	0x00312e32
    1518:	6c636e69 	stclvs	14, cr6, [r3], #-420	; 0xfffffe5c
    151c:	00656475 	rsbeq	r6, r5, r5, ror r4
    1520:	6573552f 	ldrbvs	r5, [r3, #-1327]!	; 0xfffffad1
    1524:	6d2f7372 	stcvs	3, cr7, [pc, #-456]!	; 1364 <__code_start__-0x6c9c>
    1528:	73656c69 	cmnvc	r5, #26880	; 0x6900
    152c:	756f532f 	strbvc	r5, [pc, #-815]!	; 1205 <__code_start__-0x6dfb>
    1530:	2f656372 	svccs	0x00656372
    1534:	34327363 	ldrtcc	r7, [r2], #-867	; 0xfffffc9d
    1538:	2f786c30 	svccs	0x00786c30
    153c:	7062696c 	rsbvc	r6, r2, ip, ror #18
    1540:	6e692f69 	cdpvs	15, 6, cr2, cr9, cr9, {3}
    1544:	64756c63 	ldrbtvs	r6, [r5], #-3171	; 0xfffff39d
    1548:	70000065 	andvc	r0, r0, r5, rrx
    154c:	746e6972 	strbtvc	r6, [lr], #-2418	; 0xfffff68e
    1550:	00632e6b 	rsbeq	r2, r3, fp, ror #28
    1554:	73000001 	movwvc	r0, #1
    1558:	72616474 	rsbvc	r6, r1, #116, 8	; 0x74000000
    155c:	00682e67 	rsbeq	r2, r8, r7, ror #28
    1560:	72000002 	andvc	r0, r0, #2, 0
    1564:	682e6970 	stmdavs	lr!, {r4, r5, r6, r8, fp, sp, lr}
    1568:	00000300 	andeq	r0, r0, r0, lsl #6
    156c:	6975623c 	ldmdbvs	r5!, {r2, r3, r4, r5, r9, sp, lr}^
    1570:	692d746c 	pushvs	{r2, r3, r5, r6, sl, ip, sp, lr}
    1574:	00003e6e 	andeq	r3, r0, lr, ror #28
    1578:	61760000 	cmnvs	r6, r0
    157c:	6972702d 	ldmdbvs	r2!, {r0, r2, r3, r5, ip, sp, lr}^
    1580:	2e6b746e 	cdpcs	4, 6, cr7, cr11, cr14, {3}
    1584:	00010068 	andeq	r0, r1, r8, rrx
    1588:	22050000 	andcs	r0, r5, #0, 0
    158c:	38020500 	stmdacc	r2, {r8, sl}
    1590:	17000089 	strne	r0, [r0, -r9, lsl #1]
    1594:	13140505 	tstne	r4, #20971520	; 0x1400000
    1598:	06220514 			; <UNDEFINED> instruction: 0x06220514
    159c:	5012050d 	andspl	r0, r2, sp, lsl #10
    15a0:	7a032205 	bvc	c9dbc <__bss_end__+0xbf8ec>
    15a4:	3305052e 	movwcc	r0, #21806	; 0x552e
    15a8:	052f1205 	streq	r1, [pc, #-517]!	; 13ab <__code_start__-0x6c55>
    15ac:	09056505 	stmdbeq	r5, {r0, r2, r8, sl, sp, lr}
    15b0:	12052f06 	andne	r2, r5, #6, 30
    15b4:	05050106 	streq	r0, [r5, #-262]	; 0xfffffefa
    15b8:	06164b06 	ldreq	r4, [r6], -r6, lsl #22
    15bc:	0550064a 	ldrbeq	r0, [r0, #-1610]	; 0xfffff9b6
    15c0:	66130601 	ldrvs	r0, [r3], -r1, lsl #12
    15c4:	01000802 	tsteq	r0, r2, lsl #16
    15c8:	0000a001 	andeq	sl, r0, r1
    15cc:	57000300 	strpl	r0, [r0, -r0, lsl #6]
    15d0:	02000000 	andeq	r0, r0, #0, 0
    15d4:	0d0efb01 	vstreq	d15, [lr, #-4]
    15d8:	01010100 	mrseq	r0, (UNDEF: 17)
    15dc:	00000001 	andeq	r0, r0, r1
    15e0:	01000001 	tsteq	r0, r1
    15e4:	696c2f2e 	stmdbvs	ip!, {r1, r2, r3, r5, r8, r9, sl, fp, sp}^
    15e8:	2f006362 	svccs	0x00006362
    15ec:	72657355 	rsbvc	r7, r5, #1409286145	; 0x54000001
    15f0:	696d2f73 	stmdbvs	sp!, {r0, r1, r4, r5, r6, r8, r9, sl, fp, sp}^
    15f4:	2f73656c 	svccs	0x0073656c
    15f8:	72756f53 	rsbsvc	r6, r5, #332	; 0x14c
    15fc:	632f6563 			; <UNDEFINED> instruction: 0x632f6563
    1600:	30343273 	eorscc	r3, r4, r3, ror r2
    1604:	6c2f786c 	stcvs	8, cr7, [pc], #-432	; 145c <__code_start__-0x6ba4>
    1608:	69706269 	ldmdbvs	r0!, {r0, r3, r5, r6, r9, sp, lr}^
    160c:	636e692f 	cmnvs	lr, #770048	; 0xbc000
    1610:	6564756c 	strbvs	r7, [r4, #-1388]!	; 0xfffffa94
    1614:	75700000 	ldrbvc	r0, [r0, #-0]!
    1618:	632e6b74 			; <UNDEFINED> instruction: 0x632e6b74
    161c:	00000100 	andeq	r0, r0, r0, lsl #2
    1620:	2e697072 	mcrcs	0, 3, r7, cr9, cr2, {3}
    1624:	00020068 	andeq	r0, r2, r8, rrx
    1628:	22050000 	andcs	r0, r5, #0, 0
    162c:	90020500 	andls	r0, r2, r0, lsl #10
    1630:	15000089 	strne	r0, [r0, #-137]	; 0xffffff77
    1634:	05130505 	ldreq	r0, [r3, #-1285]	; 0xfffffafb
    1638:	2e110622 	cfmsub32cs	mvax1, mvfx0, mvfx1, mvfx2
    163c:	2f060b05 	svccs	0x00060b05
    1640:	2e060505 	cfsh32cs	mvfx0, mvfx6, #5
    1644:	02000905 	andeq	r0, r0, #81920	; 0x14000
    1648:	67060204 	strvs	r0, [r6, -r4, lsl #4]
    164c:	02000f05 	andeq	r0, r0, #5, 30
    1650:	05490204 	strbeq	r0, [r9, #-516]	; 0xfffffdfc
    1654:	0402000b 	streq	r0, [r2], #-11
    1658:	05050102 	streq	r0, [r5, #-258]	; 0xfffffefe
    165c:	02040200 	andeq	r0, r4, #0, 4
    1660:	4e062e06 	cdpmi	14, 0, cr2, cr6, cr6, {0}
    1664:	13060105 	movwne	r0, #24837	; 0x6105
    1668:	01000602 	tsteq	r0, r2, lsl #12
    166c:	0008fa01 	andeq	pc, r8, r1, lsl #20
    1670:	f1000300 			; <UNDEFINED> instruction: 0xf1000300
    1674:	02000000 	andeq	r0, r0, #0, 0
    1678:	0d0efb01 	vstreq	d15, [lr, #-4]
    167c:	01010100 	mrseq	r0, (UNDEF: 17)
    1680:	00000001 	andeq	r0, r0, r1
    1684:	01000001 	tsteq	r0, r1
    1688:	696c2f2e 	stmdbvs	ip!, {r1, r2, r3, r5, r8, r9, sl, fp, sp}^
    168c:	2f006362 	svccs	0x00006362
    1690:	2f74706f 	svccs	0x0074706f
    1694:	656d6f68 	strbvs	r6, [sp, #-3944]!	; 0xfffff098
    1698:	77657262 	strbvc	r7, [r5, -r2, ror #4]!
    169c:	6c65432f 	stclvs	3, cr4, [r5], #-188	; 0xffffff44
    16a0:	2f72616c 	svccs	0x0072616c
    16a4:	2d6d7261 	sfmcs	f7, 2, [sp, #-388]!	; 0xfffffe7c
    16a8:	656e6f6e 	strbvs	r6, [lr, #-3950]!	; 0xfffff092
    16ac:	6261652d 	rsbvs	r6, r1, #188743680	; 0xb400000
    16b0:	2f392d69 	svccs	0x00392d69
    16b4:	30322d39 	eorscc	r2, r2, r9, lsr sp
    16b8:	34713931 	ldrbtcc	r3, [r1], #-2353	; 0xfffff6cf
    16bc:	3173632d 	cmncc	r3, sp, lsr #6
    16c0:	2f653730 	svccs	0x00653730
    16c4:	2f62696c 	svccs	0x0062696c
    16c8:	2f636367 	svccs	0x00636367
    16cc:	2d6d7261 	sfmcs	f7, 2, [sp, #-388]!	; 0xfffffe7c
    16d0:	656e6f6e 	strbvs	r6, [lr, #-3950]!	; 0xfffff092
    16d4:	6261652d 	rsbvs	r6, r1, #188743680	; 0xb400000
    16d8:	2e392f69 	cdpcs	15, 3, cr2, cr9, cr9, {3}
    16dc:	2f312e32 	svccs	0x00312e32
    16e0:	6c636e69 	stclvs	14, cr6, [r3], #-420	; 0xfffffe5c
    16e4:	00656475 	rsbeq	r6, r5, r5, ror r4
    16e8:	6573552f 	ldrbvs	r5, [r3, #-1327]!	; 0xfffffad1
    16ec:	6d2f7372 	stcvs	3, cr7, [pc, #-456]!	; 152c <__code_start__-0x6ad4>
    16f0:	73656c69 	cmnvc	r5, #26880	; 0x6900
    16f4:	756f532f 	strbvc	r5, [pc, #-815]!	; 13cd <__code_start__-0x6c33>
    16f8:	2f656372 	svccs	0x00656372
    16fc:	34327363 	ldrtcc	r7, [r2], #-867	; 0xfffffc9d
    1700:	2f786c30 	svccs	0x00786c30
    1704:	7062696c 	rsbvc	r6, r2, ip, ror #18
    1708:	6e692f69 	cdpvs	15, 6, cr2, cr9, cr9, {3}
    170c:	64756c63 	ldrbtvs	r6, [r5], #-3171	; 0xfffff39d
    1710:	76000065 	strvc	r0, [r0], -r5, rrx
    1714:	72702d61 	rsbsvc	r2, r0, #6208	; 0x1840
    1718:	6b746e69 	blvs	1d1d0c4 <__bss_end__+0x1d12bf4>
    171c:	0100632e 	tsteq	r0, lr, lsr #6
    1720:	74730000 	ldrbtvc	r0, [r3], #-0
    1724:	746e6964 	strbtvc	r6, [lr], #-2404	; 0xfffff69c
    1728:	6363672d 	cmnvs	r3, #11796480	; 0xb40000
    172c:	0200682e 	andeq	r6, r0, #3014656	; 0x2e0000
    1730:	70720000 	rsbsvc	r0, r2, r0
    1734:	00682e69 	rsbeq	r2, r8, r9, ror #28
    1738:	72000003 	andvc	r0, r0, #3, 0
    173c:	692d6970 	pushvs	{r4, r5, r6, r8, fp, sp, lr}
    1740:	7265746e 	rsbvc	r7, r5, #1845493760	; 0x6e000000
    1744:	2e6c616e 	powcsez	f6, f4, #0.5
    1748:	00030068 	andeq	r0, r3, r8, rrx
    174c:	64747300 	ldrbtvs	r7, [r4], #-768	; 0xfffffd00
    1750:	2e677261 	cdpcs	2, 6, cr7, cr7, cr1, {3}
    1754:	00020068 	andeq	r0, r2, r8, rrx
    1758:	75623c00 	strbvc	r3, [r2, #-3072]!	; 0xfffff400
    175c:	2d746c69 	ldclcs	12, cr6, [r4, #-420]!	; 0xfffffe5c
    1760:	003e6e69 	eorseq	r6, lr, r9, ror #28
    1764:	00000000 	andeq	r0, r0, r0
    1768:	05000105 	streq	r0, [r0, #-261]	; 0xfffffefb
    176c:	0089c802 	addeq	ip, r9, r2, lsl #16
    1770:	00c80300 	sbceq	r0, r8, r0, lsl #6
    1774:	14020501 	strne	r0, [r2], #-1281	; 0xfffffaff
    1778:	10060105 	andne	r0, r6, r5, lsl #2
    177c:	05300405 	ldreq	r0, [r0, #-1029]!	; 0xfffffbfb
    1780:	054a2c01 	strbeq	r2, [sl, #-3073]	; 0xfffff3ff
    1784:	02053004 	andeq	r3, r5, #4, 0
    1788:	05133106 	ldreq	r3, [r3, #-262]	; 0xfffffefa
    178c:	052e060b 	streq	r0, [lr, #-1547]!	; 0xfffff9f5
    1790:	05300602 	ldreq	r0, [r0, #-1538]!	; 0xfffff9fe
    1794:	24020609 	strcs	r0, [r2], #-1545	; 0xfffff9f7
    1798:	052e2e0d 	streq	r2, [lr, #-3597]!	; 0xfffff1f3
    179c:	1703060d 	strne	r0, [r3, -sp, lsl #12]
    17a0:	1311054a 	tstne	r1, #310378496	; 0x12800000
    17a4:	01062d05 	tsteq	r6, r5, lsl #26
    17a8:	052e1605 	streq	r1, [lr, #-1541]!	; 0xfffff9fb
    17ac:	16052f0d 	strne	r2, [r5], -sp, lsl #30
    17b0:	0614052d 	ldreq	r0, [r4], -sp, lsr #10
    17b4:	0617052f 	ldreq	r0, [r7], -pc, lsr #10
    17b8:	2e0d0501 	cfsh32cs	mvfx0, mvfx13, #1
    17bc:	12052f06 	andne	r2, r5, #6, 30
    17c0:	2f2e0106 	svccs	0x002e0106
    17c4:	060d052d 	streq	r0, [sp], -sp, lsr #10
    17c8:	0612052f 	ldreq	r0, [r2], -pc, lsr #10
    17cc:	06190501 	ldreq	r0, [r9], -r1, lsl #10
    17d0:	0304052f 	movweq	r0, #17711	; 0x452f
    17d4:	05010111 	streq	r0, [r1, #-273]	; 0xfffffeef
    17d8:	0e051502 	cfsh32eq	mvfx1, mvfx5, #2
    17dc:	017fb203 	cmneq	pc, r3, lsl #4
    17e0:	05130205 	ldreq	r0, [r3, #-517]	; 0xfffffdfb
    17e4:	05010606 	streq	r0, [r1, #-1542]	; 0xfffff9fa
    17e8:	05300602 	ldreq	r0, [r0, #-1538]!	; 0xfffff9fe
    17ec:	02050108 	andeq	r0, r5, #2
    17f0:	054a0106 	strbeq	r0, [sl, #-262]	; 0xfffffefa
    17f4:	05910808 	ldreq	r0, [r1, #2056]	; 0x808
    17f8:	054a0603 	strbeq	r0, [sl, #-1539]	; 0xfffff9fd
    17fc:	05010608 	streq	r0, [r1, #-1544]	; 0xfffff9f8
    1800:	052d0615 	streq	r0, [sp, #-1557]!	; 0xfffff9eb
    1804:	03050108 	movweq	r0, #20744	; 0x5108
    1808:	060805d7 			; <UNDEFINED> instruction: 0x060805d7
    180c:	2d180501 	cfldr32cs	mvfx0, [r8, #-4]
    1810:	052e0205 	streq	r0, [lr, #-517]!	; 0xfffffdfb
    1814:	15052f08 	strne	r2, [r5, #-3848]	; 0xfffff0f8
    1818:	08052d06 	stmdaeq	r5, {r1, r2, r8, sl, fp, sp}
    181c:	06020501 	streq	r0, [r2], -r1, lsl #10
    1820:	06030501 	streq	r0, [r3], -r1, lsl #10
    1824:	0618052f 	ldreq	r0, [r8], -pc, lsr #10
    1828:	2e020511 	mcrcs	5, 0, r0, cr2, cr1, {0}
    182c:	052f0805 	streq	r0, [pc, #-2053]!	; 102f <__code_start__-0x6fd1>
    1830:	052d0615 	streq	r0, [sp, #-1557]!	; 0xfffff9eb
    1834:	03050108 	movweq	r0, #20744	; 0x5108
    1838:	06080513 			; <UNDEFINED> instruction: 0x06080513
    183c:	06150501 	ldreq	r0, [r5], -r1, lsl #10
    1840:	0108052d 	tsteq	r8, sp, lsr #10
    1844:	02050106 	andeq	r0, r5, #-2147483647	; 0x80000001
    1848:	0505a006 	streq	sl, [r5, #-6]
    184c:	04050106 	streq	r0, [r5], #-262	; 0xfffffefa
    1850:	2f110536 	svccs	0x00110536
    1854:	052e0905 	streq	r0, [lr, #-2309]!	; 0xfffff6fb
    1858:	05053302 	streq	r3, [r5, #-770]	; 0xfffffcfe
    185c:	052e7203 	streq	r7, [lr, #-515]!	; 0xfffffdfd
    1860:	062f0602 	strteq	r0, [pc], -r2, lsl #12
    1864:	060e0501 	streq	r0, [lr], -r1, lsl #10
    1868:	14020516 	strne	r0, [r2], #-1302	; 0xfffffaea
    186c:	13030513 	movwne	r0, #13587	; 0x3513
    1870:	15140205 	ldrne	r0, [r4, #-517]	; 0xfffffdfb
    1874:	05010b05 	streq	r0, [r1, #-2821]	; 0xfffff4fb
    1878:	2e010602 	cfmadd32cs	mvax0, mvfx0, mvfx1, mvfx2
    187c:	67060305 	strvs	r0, [r6, -r5, lsl #6]
    1880:	01060a05 	tsteq	r6, r5, lsl #20
    1884:	052d0205 	streq	r0, [sp, #-517]!	; 0xfffffdfb
    1888:	17052f0a 	strne	r2, [r5, -sl, lsl #30]
    188c:	0b052d06 	bleq	14ccac <__bss_end__+0x1427dc>
    1890:	06020501 	streq	r0, [r2], -r1, lsl #10
    1894:	4c090501 	cfstr32mi	mvfx0, [r9], {1}
    1898:	0602052e 	streq	r0, [r2], -lr, lsr #10
    189c:	0609052e 	streq	r0, [r9], -lr, lsr #10
    18a0:	06020501 	streq	r0, [r2], -r1, lsl #10
    18a4:	05010630 	streq	r0, [r1, #-1584]	; 0xfffff9d0
    18a8:	01380301 	teqeq	r8, r1, lsl #6
    18ac:	4f030905 	svcmi	0x00030905
    18b0:	052e2e4a 	streq	r2, [lr, #-3658]!	; 0xfffff1b6
    18b4:	27030619 	smladcs	r3, r9, r6, r0
    18b8:	131a054a 	tstne	sl, #310378496	; 0x12800000
    18bc:	01062805 	tsteq	r6, r5, lsl #16
    18c0:	052e1f05 	streq	r1, [lr, #-3845]!	; 0xfffff0fb
    18c4:	1f052f04 	svcne	0x00052f04
    18c8:	060b052d 	streq	r0, [fp], -sp, lsr #10
    18cc:	060e052f 	streq	r0, [lr], -pc, lsr #10
    18d0:	2e040501 	cfsh32cs	mvfx0, mvfx4, #1
    18d4:	03060205 	movweq	r0, #25093	; 0x6205
    18d8:	05134a59 	ldreq	r4, [r3, #-2649]	; 0xfffff5a7
    18dc:	052e060b 	streq	r0, [lr, #-1547]!	; 0xfffff9f5
    18e0:	05300602 	ldreq	r0, [r0, #-1538]!	; 0xfffff9fe
    18e4:	24020609 	strcs	r0, [r2], #-1545	; 0xfffff9f7
    18e8:	0604050d 	streq	r0, [r4], -sp, lsl #10
    18ec:	06051336 			; <UNDEFINED> instruction: 0x06051336
    18f0:	05050106 	streq	r0, [r5, #-262]	; 0xfffffefa
    18f4:	13136706 	tstne	r3, #1572864	; 0x180000
    18f8:	11060905 	tstne	r6, r5, lsl #18
    18fc:	052b0d05 	streq	r0, [fp, #-3333]!	; 0xfffff2fb
    1900:	0d05300b 	stceq	0, cr3, [r5, #-44]	; 0xffffffd4
    1904:	351b052c 	ldrcc	r0, [fp, #-1324]	; 0xfffffad4
    1908:	2d060405 	cfstrscs	mvf0, [r6, #-20]	; 0xffffffec
    190c:	05130505 	ldreq	r0, [r3, #-1285]	; 0xfffffafb
    1910:	052e061b 	streq	r0, [lr, #-1563]!	; 0xfffff9e5
    1914:	0405820a 	streq	r8, [r5], #-522	; 0xfffffdf6
    1918:	2e0e052f 	cfsh32cs	mvfx0, mvfx14, #31
    191c:	05490a05 	strbeq	r0, [r9, #-2565]	; 0xfffff5fb
    1920:	052f060b 	streq	r0, [pc, #-1547]!	; 131d <__code_start__-0x6ce3>
    1924:	06010604 	streq	r0, [r1], -r4, lsl #12
    1928:	0606052f 	streq	r0, [r6], -pc, lsr #10
    192c:	06050501 	streq	r0, [r5], -r1, lsl #10
    1930:	060a052f 	streq	r0, [sl], -pc, lsr #10
    1934:	07052e01 	streq	r2, [r5, -r1, lsl #28]
    1938:	052e2e2e 	streq	r2, [lr, #-3630]!	; 0xfffff1d2
    193c:	0d030604 	stceq	6, cr0, [r3, #-16]
    1940:	06020501 	streq	r0, [r2], -r1, lsl #10
    1944:	05014603 	streq	r4, [r1, #-1539]	; 0xfffff9fd
    1948:	2e3a0309 	cdpcs	3, 3, cr0, cr10, cr9, {0}
    194c:	2f060405 	svccs	0x00060405
    1950:	01010d03 	tsteq	r1, r3, lsl #26
    1954:	05150205 	ldreq	r0, [r5, #-517]	; 0xfffffdfb
    1958:	7fb2030e 	svcvc	0x00b2030e
    195c:	13020501 	movwne	r0, #9473	; 0x2501
    1960:	01080514 	tsteq	r8, r4, lsl r5
    1964:	10060605 	andne	r0, r6, r5, lsl #12
    1968:	052e3c03 	streq	r3, [lr, #-3075]!	; 0xfffff3fd
    196c:	4a460302 	bmi	118257c <__bss_end__+0x11780ac>
    1970:	05053006 	streq	r3, [r5, #-6]
    1974:	2e2e0106 	sufcse	f0, f6, f6
    1978:	4b060205 	blmi	182194 <__bss_end__+0x177cc4>
    197c:	0e050106 	adfeqs	f0, f5, f6
    1980:	02051606 	andeq	r1, r5, #6291456	; 0x600000
    1984:	15151314 	ldrne	r1, [r5, #-788]	; 0xfffffcec
    1988:	05010b05 	streq	r0, [r1, #-2821]	; 0xfffff4fb
    198c:	062e0602 	strteq	r0, [lr], -r2, lsl #12
    1990:	06090530 			; <UNDEFINED> instruction: 0x06090530
    1994:	06020501 	streq	r0, [r2], -r1, lsl #10
    1998:	0501064c 	streq	r0, [r1, #-1612]	; 0xfffff9b4
    199c:	01380301 	teqeq	r8, r1, lsl #6
    19a0:	6e030605 	cfmadd32vs	mvax0, mvfx0, mvfx3, mvfx5
    19a4:	0302054a 	movweq	r0, #9546	; 0x254a
    19a8:	2e4a6646 	cdpcs	6, 4, cr6, cr10, cr6, {2}
    19ac:	03060405 	movweq	r0, #25605	; 0x6405
    19b0:	010100c8 	smlabteq	r1, r8, r0, r0
    19b4:	2e060101 	adfcss	f0, f6, f1
    19b8:	034a0682 	movteq	r0, #42626	; 0xa682
    19bc:	09052e72 	stmdbeq	r5, {r1, r4, r5, r6, r9, sl, fp, sp}
    19c0:	04050106 	streq	r0, [r5], #-262	; 0xfffffefa
    19c4:	0d032f06 	stceq	15, cr2, [r3, #-24]	; 0xffffffe8
    19c8:	02050101 	andeq	r0, r5, #1073741824	; 0x40000000
    19cc:	030e0515 	movweq	r0, #58645	; 0xe515
    19d0:	05017fb2 	streq	r7, [r1, #-4018]	; 0xfffff04e
    19d4:	05141302 	ldreq	r1, [r4, #-770]	; 0xfffffcfe
    19d8:	09050108 	stmdbeq	r5, {r3, r8}
    19dc:	011b0306 	tsteq	fp, r6, lsl #6
    19e0:	63030605 	movwvs	r0, #13829	; 0x3605
    19e4:	2e3c032e 	cdpcs	3, 3, cr0, cr12, cr14, {1}
    19e8:	48052e2e 	stmdami	r5, {r1, r2, r3, r5, r9, sl, fp, sp}
    19ec:	7fb40306 	svcvc	0x00b40306
    19f0:	05053c08 	streq	r3, [r5, #-3080]	; 0xfffff3f8
    19f4:	2e060113 	mcrcs	1, 0, r0, cr6, cr3, {0}
    19f8:	02040200 	andeq	r0, r4, #0, 4
    19fc:	02002e06 	andeq	r2, r0, #96	; 0x60
    1a00:	00010204 	andeq	r0, r1, r4, lsl #4
    1a04:	13020402 	movwne	r0, #9218	; 0x2402
    1a08:	02001105 	andeq	r1, r0, #1073741825	; 0x40000001
    1a0c:	01060204 	tsteq	r6, r4, lsl #4
    1a10:	02000705 	andeq	r0, r0, #1310720	; 0x140000
    1a14:	052f0204 	streq	r0, [pc, #-516]!	; 1818 <__code_start__-0x67e8>
    1a18:	04020011 	streq	r0, [r2], #-17	; 0xffffffef
    1a1c:	05052d02 	streq	r2, [r5, #-3330]	; 0xfffff2fe
    1a20:	02040200 	andeq	r0, r4, #0, 4
    1a24:	09052f06 	stmdbeq	r5, {r1, r2, r8, r9, sl, fp, sp}
    1a28:	02040200 	andeq	r0, r4, #0, 4
    1a2c:	000e0513 	andeq	r0, lr, r3, lsl r5
    1a30:	06020402 	streq	r0, [r2], -r2, lsl #8
    1a34:	00050501 	andeq	r0, r5, r1, lsl #10
    1a38:	06010402 	streq	r0, [r1], -r2, lsl #8
    1a3c:	04020063 	streq	r0, [r2], #-99	; 0xffffff9d
    1a40:	48050101 	stmdami	r5, {r0, r8}
    1a44:	01040200 	mrseq	r0, R12_usr
    1a48:	05051106 	streq	r1, [r5, #-262]	; 0xfffffefa
    1a4c:	01040200 	mrseq	r0, R12_usr
    1a50:	0048052f 	subeq	r0, r8, pc, lsr #10
    1a54:	2d010402 	cfstrscs	mvf0, [r1, #-8]
    1a58:	02000505 	andeq	r0, r0, #20971520	; 0x1400000
    1a5c:	002f0104 	eoreq	r0, pc, r4, lsl #2
    1a60:	4a010402 	bmi	42a70 <__bss_end__+0x385a0>
    1a64:	01040200 	mrseq	r0, R12_usr
    1a68:	0402004a 	streq	r0, [r2], #-74	; 0xffffffb6
    1a6c:	054a0601 	strbeq	r0, [sl, #-1537]	; 0xfffff9ff
    1a70:	00e10340 	rsceq	r0, r1, r0, asr #6
    1a74:	050106d6 	streq	r0, [r1, #-1750]	; 0xfffff92a
    1a78:	052e4e09 	streq	r4, [lr, #-3593]!	; 0xfffff1f7
    1a7c:	1e053008 	cdpne	0, 0, cr3, cr5, cr8, {0}
    1a80:	2e120529 	cfmul64cs	mvdx0, mvdx2, mvdx9
    1a84:	05330d05 	ldreq	r0, [r3, #-3333]!	; 0xfffff2fb
    1a88:	05450602 	strbeq	r0, [r5, #-1538]	; 0xfffff9fe
    1a8c:	02051305 	andeq	r1, r5, #335544320	; 0x14000000
    1a90:	13050514 	movwne	r0, #21780	; 0x5514
    1a94:	05130205 	ldreq	r0, [r3, #-517]	; 0xfffffdfb
    1a98:	40050108 	andmi	r0, r5, r8, lsl #2
    1a9c:	017a0306 	cmneq	sl, r6, lsl #6
    1aa0:	340d052e 	strcc	r0, [sp], #-1326	; 0xfffffad2
    1aa4:	03110566 	tsteq	r1, #427819008	; 0x19800000
    1aa8:	054a4a20 	strbeq	r4, [sl, #-2592]	; 0xfffff5e0
    1aac:	62030604 	andvs	r0, r3, #4, 12	; 0x400000
    1ab0:	06090501 	streq	r0, [r9], -r1, lsl #10
    1ab4:	2e0f0501 	cfsh32cs	mvfx0, mvfx15, #1
    1ab8:	2c060805 	stccs	8, cr0, [r6], {5}
    1abc:	2e060d05 	cdpcs	13, 0, cr0, cr6, cr5, {0}
    1ac0:	67060305 	strvs	r0, [r6, -r5, lsl #6]
    1ac4:	01060505 	tsteq	r6, r5, lsl #10
    1ac8:	4d060805 	stcmi	8, cr0, [r6, #-20]	; 0xffffffec
    1acc:	01060e05 	tsteq	r6, r5, lsl #28
    1ad0:	052e0a05 	streq	r0, [lr, #-2565]!	; 0xfffff5fb
    1ad4:	04052f09 	streq	r2, [r5], #-3849	; 0xfffff0f7
    1ad8:	07052f06 	streq	r2, [r5, -r6, lsl #30]
    1adc:	0a050106 	beq	141efc <__bss_end__+0x137a2c>
    1ae0:	0604052c 	streq	r0, [r4], -ip, lsr #10
    1ae4:	062d0532 			; <UNDEFINED> instruction: 0x062d0532
    1ae8:	017f9803 	cmneq	pc, r3, lsl #16
    1aec:	ed030905 	vstr.16	s0, [r3, #-10]
    1af0:	0d052e00 	stceq	14, cr2, [r5, #-0]
    1af4:	2b07052c 	blcs	1c2fac <__bss_end__+0x1b8adc>
    1af8:	30060405 	andcc	r0, r6, r5, lsl #8
    1afc:	09051413 	stmdbeq	r5, {r0, r1, r4, sl, ip}
    1b00:	030c0501 	movweq	r0, #50433	; 0xc501
    1b04:	05017f93 	streq	r7, [r1, #-3987]	; 0xfffff06d
    1b08:	0106011d 	tsteq	r6, sp, lsl r1
    1b0c:	ed030905 	vstr.16	s0, [r3, #-10]
    1b10:	05050100 	streq	r0, [r5, #-256]	; 0xffffff00
    1b14:	12052f06 	andne	r2, r5, #6, 30
    1b18:	2d2e0106 	stfcss	f0, [lr, #-24]!	; 0xffffffe8
    1b1c:	052f0b05 	streq	r0, [pc, #-2821]!	; 101f <__code_start__-0x6fe1>
    1b20:	052f0605 	streq	r0, [pc, #-1541]!	; 1523 <__code_start__-0x6add>
    1b24:	0c051009 	stceq	0, cr1, [r5], {9}
    1b28:	017f9303 	cmneq	pc, r3, lsl #6
    1b2c:	05011d05 	streq	r1, [r1, #-3333]	; 0xfffff2fb
    1b30:	0501062d 	streq	r0, [r1, #-1581]	; 0xfffff9d3
    1b34:	00ed0309 	rsceq	r0, sp, r9, lsl #6
    1b38:	0604052e 	streq	r0, [r4], -lr, lsr #10
    1b3c:	0200014e 	andeq	r0, r0, #-2147483629	; 0x80000013
    1b40:	004a0204 	subeq	r0, sl, r4, lsl #4
    1b44:	01020402 	tsteq	r2, r2, lsl #8
    1b48:	02040200 	andeq	r0, r4, #0, 4
    1b4c:	04020015 	streq	r0, [r2], #-21	; 0xffffffeb
    1b50:	36020602 	strcc	r0, [r2], -r2, lsl #12
    1b54:	04020012 	streq	r0, [r2], #-18	; 0xffffffee
    1b58:	02052e02 	andeq	r2, r5, #2, 28
    1b5c:	00d10306 	sbcseq	r0, r1, r6, lsl #6
    1b60:	06070501 	streq	r0, [r7], -r1, lsl #10
    1b64:	02052e01 	andeq	r2, r5, #1, 28
    1b68:	0b052f06 	bleq	14d788 <__bss_end__+0x1432b8>
    1b6c:	01050106 	tsteq	r5, r6, lsl #2
    1b70:	0605052f 	streq	r0, [r5], -pc, lsr #10
    1b74:	054a6503 	strbeq	r6, [sl, #-1283]	; 0xfffffafd
    1b78:	66010609 	strvs	r0, [r1], -r9, lsl #12
    1b7c:	9f060505 	svcls	0x00060505
    1b80:	11030405 	tstne	r3, r5, lsl #8
    1b84:	06070501 	streq	r0, [r7], -r1, lsl #10
    1b88:	06040501 	streq	r0, [r4], -r1, lsl #10
    1b8c:	010a0531 	tsteq	sl, r1, lsr r5
    1b90:	02001305 	andeq	r1, r0, #335544320	; 0x14000000
    1b94:	2e060104 	adfcss	f0, f6, f4
    1b98:	02001005 	andeq	r1, r0, #5, 0
    1b9c:	052e0104 	streq	r0, [lr, #-260]!	; 0xfffffefc
    1ba0:	054b0605 	strbeq	r0, [fp, #-1541]	; 0xfffff9fb
    1ba4:	0601060a 	streq	r0, [r1], -sl, lsl #12
    1ba8:	0604052d 	streq	r0, [r4], -sp, lsr #10
    1bac:	06110501 	ldreq	r0, [r1], -r1, lsl #10
    1bb0:	667fb603 	ldrbtvs	fp, [pc], -r3, lsl #12
    1bb4:	02000113 	andeq	r0, r0, #-1073741820	; 0xc0000004
    1bb8:	ba060204 	blt	1823d0 <__bss_end__+0x177f00>
    1bbc:	1401ba06 	strne	fp, [r1], #-2566	; 0xfffff5fa
    1bc0:	13061a05 	movwne	r1, #27141	; 0x6a05
    1bc4:	11052e2e 	tstne	r5, lr, lsr #28
    1bc8:	1405674e 	strne	r6, [r5], #-1870	; 0xfffff8b2
    1bcc:	82130568 	andshi	r0, r3, #104, 10	; 0x1a000000
    1bd0:	78031505 	stmdavc	r3, {r0, r2, r8, sl, ip}
    1bd4:	0611054a 	ldreq	r0, [r1], -sl, asr #10
    1bd8:	1413134b 	ldrne	r1, [r3], #-843	; 0xfffffcb5
    1bdc:	13051413 	movwne	r1, #21523	; 0x5413
    1be0:	09050106 	stmdbeq	r5, {r1, r2, r8}
    1be4:	0d052f06 	stceq	15, cr2, [r5, #-24]	; 0xffffffe8
    1be8:	2e2e0106 	sufcse	f0, f6, f6
    1bec:	05bb0905 	ldreq	r0, [fp, #2309]!	; 0x905
    1bf0:	09059d0d 	stmdbeq	r5, {r0, r2, r3, r8, sl, fp, ip, pc}
    1bf4:	15052f06 	strne	r2, [r5, #-3846]	; 0xfffff0fa
    1bf8:	7503062f 	strvc	r0, [r3, #-1583]	; 0xfffff9d1
    1bfc:	2e0b034a 	cdpcs	3, 0, cr0, cr11, cr10, {2}
    1c00:	0605054a 	streq	r0, [r5], -sl, asr #10
    1c04:	05012303 	streq	r2, [r1, #-771]	; 0xfffffcfd
    1c08:	2e010609 	cfmadd32cs	mvax0, mvfx0, mvfx1, mvfx9
    1c0c:	d7060505 	strle	r0, [r6, -r5, lsl #10]
    1c10:	032e6e03 			; <UNDEFINED> instruction: 0x032e6e03
    1c14:	0905010e 	stmdbeq	r5, {r1, r2, r3, r8}
    1c18:	05050106 	streq	r0, [r5, #-262]	; 0xfffffefa
    1c1c:	4a100306 	bmi	40283c <__bss_end__+0x3f836c>
    1c20:	ed030105 	stfs	f0, [r3, #-20]	; 0xffffffec
    1c24:	0205017e 	andeq	r0, r5, #-2147483617	; 0x8000001f
    1c28:	14131514 	ldrne	r1, [r3], #-1300	; 0xfffffaec
    1c2c:	1a030405 	bne	c2c48 <__bss_end__+0xb8778>
    1c30:	06090501 	streq	r0, [r9], -r1, lsl #10
    1c34:	03020501 	movweq	r0, #9473	; 0x2501
    1c38:	09052e46 	stmdbeq	r5, {r1, r2, r6, r9, sl, fp, sp}
    1c3c:	052e3a03 	streq	r3, [lr, #-2563]!	; 0xfffff5fd
    1c40:	032f0604 			; <UNDEFINED> instruction: 0x032f0604
    1c44:	0501010d 	streq	r0, [r1, #-269]	; 0xfffffef3
    1c48:	0e051502 	cfsh32eq	mvfx1, mvfx5, #2
    1c4c:	017fb203 	cmneq	pc, r3, lsl #4
    1c50:	14130205 	ldrne	r0, [r3], #-517	; 0xfffffdfb
    1c54:	05010805 	streq	r0, [r1, #-2053]	; 0xfffff7fb
    1c58:	05010602 	streq	r0, [r1, #-1538]	; 0xfffff9fe
    1c5c:	03059f08 	movweq	r9, #24328	; 0x5f08
    1c60:	01064a06 	tsteq	r6, r6, lsl #20
    1c64:	052e0805 	streq	r0, [lr, #-2053]!	; 0xfffff7fb
    1c68:	052d0615 	streq	r0, [sp, #-1557]!	; 0xfffff9eb
    1c6c:	03050108 	movweq	r0, #20744	; 0x5108
    1c70:	0501062f 	streq	r0, [r1, #-1583]	; 0xfffff9d1
    1c74:	15052e08 	strne	r2, [r5, #-3592]	; 0xfffff1f8
    1c78:	08052d06 	stmdaeq	r5, {r1, r2, r8, sl, fp, sp}
    1c7c:	2f030501 	svccs	0x00030501
    1c80:	08050106 	stmdaeq	r5, {r1, r2, r8}
    1c84:	0615052e 	ldreq	r0, [r5], -lr, lsr #10
    1c88:	0108052d 	tsteq	r8, sp, lsr #10
    1c8c:	062f0305 	strteq	r0, [pc], -r5, lsl #6
    1c90:	2e080501 	cfsh32cs	mvfx0, mvfx8, #1
    1c94:	2d061505 	cfstr32cs	mvfx1, [r6, #-20]	; 0xffffffec
    1c98:	05010805 	streq	r0, [r1, #-2053]	; 0xfffff7fb
    1c9c:	01062f03 	tsteq	r6, r3, lsl #30
    1ca0:	052e0805 	streq	r0, [lr, #-2053]!	; 0xfffff7fb
    1ca4:	052d0615 	streq	r0, [sp, #-1557]!	; 0xfffff9eb
    1ca8:	03050108 	movweq	r0, #20744	; 0x5108
    1cac:	0501062f 	streq	r0, [r1, #-1583]	; 0xfffff9d1
    1cb0:	15052e08 	strne	r2, [r5, #-3592]	; 0xfffff1f8
    1cb4:	08052d06 	stmdaeq	r5, {r1, r2, r8, sl, fp, sp}
    1cb8:	13030501 	movwne	r0, #13569	; 0x3501
    1cbc:	01060805 	tsteq	r6, r5, lsl #16
    1cc0:	2d061505 	cfstr32cs	mvfx1, [r6, #-20]	; 0xffffffec
    1cc4:	06010805 	streq	r0, [r1], -r5, lsl #16
    1cc8:	06030566 	streq	r0, [r3], -r6, ror #10
    1ccc:	06080567 	streq	r0, [r8], -r7, ror #10
    1cd0:	2d180501 	cfldr32cs	mvfx0, [r8, #-4]
    1cd4:	052e0205 	streq	r0, [lr, #-517]!	; 0xfffffdfb
    1cd8:	15052f08 	strne	r2, [r5, #-3848]	; 0xfffff0f8
    1cdc:	08052d06 	stmdaeq	r5, {r1, r2, r8, sl, fp, sp}
    1ce0:	06020501 	streq	r0, [r2], -r1, lsl #10
    1ce4:	06030501 	streq	r0, [r3], -r1, lsl #10
    1ce8:	0618052f 	ldreq	r0, [r8], -pc, lsr #10
    1cec:	2e020511 	mcrcs	5, 0, r0, cr2, cr1, {0}
    1cf0:	052f0805 	streq	r0, [pc, #-2053]!	; 14f3 <__code_start__-0x6b0d>
    1cf4:	052d0615 	streq	r0, [sp, #-1557]!	; 0xfffff9eb
    1cf8:	03050108 	movweq	r0, #20744	; 0x5108
    1cfc:	06080513 			; <UNDEFINED> instruction: 0x06080513
    1d00:	06150501 	ldreq	r0, [r5], -r1, lsl #10
    1d04:	0108052d 	tsteq	r8, sp, lsr #10
    1d08:	14060505 	strne	r0, [r6], #-1285	; 0xfffffafb
    1d0c:	0602054a 	streq	r0, [r2], -sl, asr #10
    1d10:	060e052e 	streq	r0, [lr], -lr, lsr #10
    1d14:	2f040519 	svccs	0x00040519
    1d18:	052f1105 	streq	r1, [pc, #-261]!	; 1c1b <__code_start__-0x63e5>
    1d1c:	02054a09 	andeq	r4, r5, #36864	; 0x9000
    1d20:	03050533 	movweq	r0, #21811	; 0x5533
    1d24:	02052e72 	andeq	r2, r5, #1824	; 0x720
    1d28:	01062f06 	tsteq	r6, r6, lsl #30
    1d2c:	16060e05 	strne	r0, [r6], -r5, lsl #28
    1d30:	13140205 	tstne	r4, #1342177280	; 0x50000000
    1d34:	05130305 	ldreq	r0, [r3, #-773]	; 0xfffffcfb
    1d38:	05151402 	ldreq	r1, [r5, #-1026]	; 0xfffffbfe
    1d3c:	0205010b 	andeq	r0, r5, #-1073741822	; 0xc0000002
    1d40:	662e0106 	strtvs	r0, [lr], -r6, lsl #2
    1d44:	2f060305 	svccs	0x00060305
    1d48:	01060a05 	tsteq	r6, r5, lsl #20
    1d4c:	052d0205 	streq	r0, [sp, #-517]!	; 0xfffffdfb
    1d50:	17052f0a 	strne	r2, [r5, -sl, lsl #30]
    1d54:	0b052d06 	bleq	14d174 <__bss_end__+0x142ca4>
    1d58:	06020501 	streq	r0, [r2], -r1, lsl #10
    1d5c:	054a4a01 	strbeq	r4, [sl, #-2561]	; 0xfffff5ff
    1d60:	95030605 	strls	r0, [r3, #-1541]	; 0xfffff9fb
    1d64:	11050101 	tstne	r5, r1, lsl #2
    1d68:	7ef80306 	cdpvc	3, 15, cr0, cr8, cr6, {0}
    1d6c:	031b0501 	tsteq	fp, #4194304	; 0x400000
    1d70:	054a0188 	strbeq	r0, [sl, #-392]	; 0xfffffe78
    1d74:	f3030601 	vmax.u8	d0, d3, d1
    1d78:	02052e7e 	andeq	r2, r5, #2016	; 0x7e0
    1d7c:	14131514 	ldrne	r1, [r3], #-1300	; 0xfffffaec
    1d80:	22031905 	andcs	r1, r3, #81920	; 0x14000
    1d84:	131a0501 	tstne	sl, #4194304	; 0x400000
    1d88:	01062805 	tsteq	r6, r5, lsl #16
    1d8c:	052e1f05 	streq	r1, [lr, #-3845]!	; 0xfffff0fb
    1d90:	0e052f04 	cdpeq	15, 0, cr2, cr5, cr4, {0}
    1d94:	2d1f054a 	cfldr32cs	mvfx0, [pc, #-296]	; 1c74 <__code_start__-0x638c>
    1d98:	2f060b05 	svccs	0x00060b05
    1d9c:	01060405 	tsteq	r6, r5, lsl #8
    1da0:	05013206 	streq	r3, [r1, #-518]	; 0xfffffdfa
    1da4:	0e051502 	cfsh32eq	mvfx1, mvfx5, #2
    1da8:	017fb203 	cmneq	pc, r3, lsl #4
    1dac:	05130205 	ldreq	r0, [r3, #-517]	; 0xfffffdfb
    1db0:	05010606 	streq	r0, [r1, #-1542]	; 0xfffff9fa
    1db4:	05300602 	ldreq	r0, [r0, #-1538]!	; 0xfffff9fe
    1db8:	02050108 	andeq	r0, r5, #2
    1dbc:	03050106 	movweq	r0, #20742	; 0x5106
    1dc0:	05210806 	streq	r0, [r1, #-2054]!	; 0xfffff7fa
    1dc4:	05010608 	streq	r0, [r1, #-1544]	; 0xfffff9f8
    1dc8:	05490615 	strbeq	r0, [r9, #-1557]	; 0xfffff9eb
    1dcc:	03050108 	movweq	r0, #20744	; 0x5108
    1dd0:	060805d7 			; <UNDEFINED> instruction: 0x060805d7
    1dd4:	2d180501 	cfldr32cs	mvfx0, [r8, #-4]
    1dd8:	052e0205 	streq	r0, [lr, #-517]!	; 0xfffffdfb
    1ddc:	15052f08 	strne	r2, [r5, #-3848]	; 0xfffff0f8
    1de0:	08052d06 	stmdaeq	r5, {r1, r2, r8, sl, fp, sp}
    1de4:	06020501 	streq	r0, [r2], -r1, lsl #10
    1de8:	06030501 	streq	r0, [r3], -r1, lsl #10
    1dec:	0618052f 	ldreq	r0, [r8], -pc, lsr #10
    1df0:	2e020511 	mcrcs	5, 0, r0, cr2, cr1, {0}
    1df4:	052f0805 	streq	r0, [pc, #-2053]!	; 15f7 <__code_start__-0x6a09>
    1df8:	052d0615 	streq	r0, [sp, #-1557]!	; 0xfffff9eb
    1dfc:	03050108 	movweq	r0, #20744	; 0x5108
    1e00:	06080513 			; <UNDEFINED> instruction: 0x06080513
    1e04:	06150501 	ldreq	r0, [r5], -r1, lsl #10
    1e08:	0108052d 	tsteq	r8, sp, lsr #10
    1e0c:	14060505 	strne	r0, [r6], #-1285	; 0xfffffafb
    1e10:	66060205 	strvs	r0, [r6], -r5, lsl #4
    1e14:	1a060405 	bne	182e30 <__bss_end__+0x178960>
    1e18:	78030505 	stmdavc	r3, {r0, r2, r8, sl}
    1e1c:	0602054a 	streq	r0, [r2], -sl, asr #10
    1e20:	0501062f 	streq	r0, [r1, #-1583]	; 0xfffff9d1
    1e24:	0516060e 	ldreq	r0, [r6, #-1550]	; 0xfffff9f2
    1e28:	05131402 	ldreq	r1, [r3, #-1026]	; 0xfffffbfe
    1e2c:	05010604 	streq	r0, [r1, #-1540]	; 0xfffff9fc
    1e30:	052f0603 	streq	r0, [pc, #-1539]!	; 1835 <__code_start__-0x67cb>
    1e34:	05010611 	streq	r0, [r1, #-1553]	; 0xfffff9ef
    1e38:	02052e09 	andeq	r2, r5, #144	; 0x90
    1e3c:	05153006 	ldreq	r3, [r5, #-6]
    1e40:	0205010b 	andeq	r0, r5, #-1073741822	; 0xc0000002
    1e44:	4a4a0106 	bmi	1282264 <__bss_end__+0x1277d94>
    1e48:	0603052e 	streq	r0, [r3], -lr, lsr #10
    1e4c:	060a052f 	streq	r0, [sl], -pc, lsr #10
    1e50:	2d020501 	cfstr32cs	mvfx0, [r2, #-4]
    1e54:	052f0a05 	streq	r0, [pc, #-2565]!	; 1457 <__code_start__-0x6ba9>
    1e58:	052d0617 	streq	r0, [sp, #-1559]!	; 0xfffff9e9
    1e5c:	0205010b 	andeq	r0, r5, #-1073741822	; 0xc0000002
    1e60:	2e4a0106 	dvfcse	f0, f2, f6
    1e64:	09051406 	stmdbeq	r5, {r1, r2, sl, ip}
    1e68:	02050106 	andeq	r0, r5, #-2147483647	; 0x80000001
    1e6c:	01064c06 	tsteq	r6, r6, lsl #24
    1e70:	03060505 	movweq	r0, #25861	; 0x6505
    1e74:	2a010198 	bcs	424dc <__bss_end__+0x3800c>
    1e78:	01060705 	tsteq	r6, r5, lsl #14
    1e7c:	2f060505 	svccs	0x00060505
    1e80:	53031805 	movwpl	r1, #14341	; 0x3805
    1e84:	061b052e 	ldreq	r0, [fp], -lr, lsr #10
    1e88:	821a0501 	andshi	r0, sl, #4194304	; 0x400000
    1e8c:	4b060905 	blmi	1842a8 <__bss_end__+0x179dd8>
    1e90:	01060d05 	tsteq	r6, r5, lsl #26
    1e94:	d709052e 	strle	r0, [r9, -lr, lsr #10]
    1e98:	059d0d05 	ldreq	r0, [sp, #3333]	; 0xd05
    1e9c:	052f0609 	streq	r0, [pc, #-1545]!	; 189b <__code_start__-0x6765>
    1ea0:	18053015 	stmdane	r5, {r0, r2, r4, ip, sp}
    1ea4:	17050106 	strne	r0, [r5, -r6, lsl #2]
    1ea8:	2f190566 	svccs	0x00190566
    1eac:	05491705 	strbeq	r1, [r9, #-1797]	; 0xfffff8fb
    1eb0:	052f0619 	streq	r0, [pc, #-1561]!	; 189f <__code_start__-0x6761>
    1eb4:	6f030615 	svcvs	0x00030615
    1eb8:	0619052e 	ldreq	r0, [r9], -lr, lsr #10
    1ebc:	054a1303 	strbeq	r1, [sl, #-771]	; 0xfffffcfd
    1ec0:	6d030615 	stcvs	6, cr0, [r3, #-84]	; 0xffffffac
    1ec4:	02054a2e 	andeq	r4, r5, #188416	; 0x2e000
    1ec8:	017fa003 	cmneq	pc, r3
    1ecc:	72030666 	andvc	r0, r3, #106954752	; 0x6600000
    1ed0:	06050501 	streq	r0, [r5], -r1, lsl #10
    1ed4:	36040501 	strcc	r0, [r4], -r1, lsl #10
    1ed8:	78030505 	stmdavc	r3, {r0, r2, r8, sl}
    1edc:	0602052e 	streq	r0, [r2], -lr, lsr #10
    1ee0:	0501062f 	streq	r0, [r1, #-1583]	; 0xfffff9d1
    1ee4:	0516060e 	ldreq	r0, [r6, #-1550]	; 0xfffff9f2
    1ee8:	05131402 	ldreq	r1, [r3, #-1026]	; 0xfffffbfe
    1eec:	4a010604 	bmi	43704 <__bss_end__+0x39234>
    1ef0:	03060205 	movweq	r0, #25093	; 0x6205
    1ef4:	05050178 	streq	r0, [r5, #-376]	; 0xfffffe88
    1ef8:	054a0106 	strbeq	r0, [sl, #-262]	; 0xfffffefa
    1efc:	064b0602 	strbeq	r0, [fp], -r2, lsl #12
    1f00:	060e0501 	streq	r0, [lr], -r1, lsl #10
    1f04:	14020516 	strne	r0, [r2], #-1302	; 0xfffffaea
    1f08:	05151513 	ldreq	r1, [r5, #-1299]	; 0xfffffaed
    1f0c:	2e06010b 	adfcss	f0, f6, #3.0
    1f10:	03061105 	movweq	r1, #24837	; 0x6105
    1f14:	0501019e 	streq	r0, [r1, #-414]	; 0xfffffe62
    1f18:	05010622 	streq	r0, [r1, #-1570]	; 0xfffff9de
    1f1c:	22052f05 	andcs	r2, r5, #5, 30
    1f20:	0605052d 	streq	r0, [r5], -sp, lsr #10
    1f24:	4b11052f 	blmi	4433e8 <__bss_end__+0x438f18>
    1f28:	01830505 	orreq	r0, r3, r5, lsl #10
    1f2c:	2e5c039e 	mrccs	3, 2, r0, cr12, cr14, {4}
    1f30:	02059e01 	andeq	r9, r5, #1, 28
    1f34:	7ef30306 	cdpvc	3, 15, cr0, cr3, cr6, {0}
    1f38:	06052e2e 	streq	r2, [r5], -lr, lsr #28
    1f3c:	0d054a2c 	vstreq	s8, [r5, #-176]	; 0xffffff50
    1f40:	0100d803 	tsteq	r0, r3, lsl #16
    1f44:	02000405 	andeq	r0, r0, #83886080	; 0x5000000
    1f48:	03060104 	movweq	r0, #24836	; 0x6104
    1f4c:	02004a11 	andeq	r4, r0, #69632	; 0x11000
    1f50:	05010104 	streq	r0, [r1, #-260]	; 0xfffffefc
    1f54:	06510611 			; <UNDEFINED> instruction: 0x06510611
    1f58:	0315059e 	tsteq	r5, #662700032	; 0x27800000
    1f5c:	ba012e17 	blt	4d7c0 <__bss_end__+0x432f0>
    1f60:	69031105 	stmdbvs	r3, {r0, r2, r8, ip}
    1f64:	2802012e 	stmdacs	r2, {r1, r2, r3, r5, r8}
    1f68:	a0010100 	andge	r0, r1, r0, lsl #2
    1f6c:	03000000 	movweq	r0, #0
    1f70:	00005d00 	andeq	r5, r0, r0, lsl #26
    1f74:	fb010200 	blx	4277e <__bss_end__+0x382ae>
    1f78:	01000d0e 	tsteq	r0, lr, lsl #26
    1f7c:	00010101 	andeq	r0, r1, r1, lsl #2
    1f80:	00010000 	andeq	r0, r1, r0
    1f84:	2f2e0100 	svccs	0x002e0100
    1f88:	66617473 			; <UNDEFINED> instruction: 0x66617473
    1f8c:	72732d66 	rsbsvc	r2, r3, #6528	; 0x1980
    1f90:	552f0063 	strpl	r0, [pc, #-99]!	; 1f35 <__code_start__-0x60cb>
    1f94:	73726573 	cmnvc	r2, #482344960	; 0x1cc00000
    1f98:	6c696d2f 	stclvs	13, cr6, [r9], #-188	; 0xffffff44
    1f9c:	532f7365 			; <UNDEFINED> instruction: 0x532f7365
    1fa0:	6372756f 	cmnvs	r2, #465567744	; 0x1bc00000
    1fa4:	73632f65 	cmnvc	r3, #404	; 0x194
    1fa8:	6c303432 	cfldrsvs	mvf3, [r0], #-200	; 0xffffff38
    1fac:	696c2f78 	stmdbvs	ip!, {r3, r4, r5, r6, r8, r9, sl, fp, sp}^
    1fb0:	2f697062 	svccs	0x00697062
    1fb4:	6c636e69 	stclvs	14, cr6, [r3], #-420	; 0xfffffe5c
    1fb8:	00656475 	rsbeq	r6, r5, r5, ror r4
    1fbc:	63616300 	cmnvs	r1, #0, 6
    1fc0:	632e6568 			; <UNDEFINED> instruction: 0x632e6568
    1fc4:	00000100 	andeq	r0, r0, r0, lsl #2
    1fc8:	2e697072 	mcrcs	0, 3, r7, cr9, cr2, {3}
    1fcc:	00020068 	andeq	r0, r2, r8, rrx
    1fd0:	19050000 	stmdbne	r5, {}	; <UNPREDICTABLE>
    1fd4:	7c020500 	cfstr32vc	mvfx0, [r2], {-0}
    1fd8:	14000093 	strne	r0, [r0], #-147	; 0xffffff6d
    1fdc:	13130505 	tstne	r3, #20971520	; 0x1400000
    1fe0:	132f0205 			; <UNDEFINED> instruction: 0x132f0205
    1fe4:	05130505 	ldreq	r0, [r3, #-1285]	; 0xfffffafb
    1fe8:	05110604 	ldreq	r0, [r1, #-1540]	; 0xfffff9fc
    1fec:	01052f05 	tsteq	r5, r5, lsl #30
    1ff0:	061a052f 	ldreq	r0, [sl], -pc, lsr #10
    1ff4:	13050531 	movwne	r0, #21809	; 0x5531
    1ff8:	30020513 	andcc	r0, r2, r3, lsl r5
    1ffc:	13050513 	movwne	r0, #21779	; 0x5513
    2000:	11060405 	tstne	r6, r5, lsl #8
    2004:	052f0505 	streq	r0, [pc, #-1285]!	; 1b07 <__code_start__-0x64f9>
    2008:	02022f01 	andeq	r2, r2, #1, 30
    200c:	87010100 	strhi	r0, [r1, -r0, lsl #2]
    2010:	03000000 	movweq	r0, #0
    2014:	00006400 	andeq	r6, r0, r0, lsl #8
    2018:	fb010200 	blx	42822 <__bss_end__+0x38352>
    201c:	01000d0e 	tsteq	r0, lr, lsl #26
    2020:	00010101 	andeq	r0, r1, r1, lsl #2
    2024:	00010000 	andeq	r0, r1, r0
    2028:	2f2e0100 	svccs	0x002e0100
    202c:	66617473 			; <UNDEFINED> instruction: 0x66617473
    2030:	72732d66 	rsbsvc	r2, r3, #6528	; 0x1980
    2034:	552f0063 	strpl	r0, [pc, #-99]!	; 1fd9 <__code_start__-0x6027>
    2038:	73726573 	cmnvc	r2, #482344960	; 0x1cc00000
    203c:	6c696d2f 	stclvs	13, cr6, [r9], #-188	; 0xffffff44
    2040:	532f7365 			; <UNDEFINED> instruction: 0x532f7365
    2044:	6372756f 	cmnvs	r2, #465567744	; 0x1bc00000
    2048:	73632f65 	cmnvc	r3, #404	; 0x194
    204c:	6c303432 	cfldrsvs	mvf3, [r0], #-200	; 0xffffff38
    2050:	696c2f78 	stmdbvs	ip!, {r3, r4, r5, r6, r8, r9, sl, fp, sp}^
    2054:	2f697062 	svccs	0x00697062
    2058:	6c636e69 	stclvs	14, cr6, [r3], #-420	; 0xfffffe5c
    205c:	00656475 	rsbeq	r6, r5, r5, ror r4
    2060:	656c6300 	strbvs	r6, [ip, #-768]!	; 0xfffffd00
    2064:	722d6e61 	eorvc	r6, sp, #1552	; 0x610
    2068:	6f6f6265 	svcvs	0x006f6265
    206c:	00632e74 	rsbeq	r2, r3, r4, ror lr
    2070:	72000001 	andvc	r0, r0, #1, 0
    2074:	682e6970 	stmdavs	lr!, {r4, r5, r6, r8, fp, sp, lr}
    2078:	00000200 	andeq	r0, r0, r0, lsl #4
    207c:	00190500 	andseq	r0, r9, r0, lsl #10
    2080:	939c0205 	orrsls	r0, ip, #1342177280	; 0x50000000
    2084:	05150000 	ldreq	r0, [r5, #-0]
    2088:	19051305 	stmdbne	r5, {r0, r2, r8, r9, ip}
    208c:	05052d06 	streq	r2, [r5, #-3334]	; 0xfffff2fa
    2090:	2f67062f 	svccs	0x0067062f
    2094:	0006024b 	andeq	r0, r6, fp, asr #4
    2098:	01120101 	tsteq	r2, r1, lsl #2
    209c:	00030000 	andeq	r0, r3, r0
    20a0:	0000005e 	andeq	r0, r0, lr, asr r0
    20a4:	0efb0102 	cdpeq	1, 15, cr0, cr11, cr2, {0}
    20a8:	0101000d 	tsteq	r1, sp
    20ac:	00000101 	andeq	r0, r0, r1, lsl #2
    20b0:	00000100 	andeq	r0, r0, r0, lsl #2
    20b4:	732f2e01 			; <UNDEFINED> instruction: 0x732f2e01
    20b8:	66666174 			; <UNDEFINED> instruction: 0x66666174
    20bc:	6372732d 	cmnvs	r2, #-1275068416	; 0xb4000000
    20c0:	73552f00 	cmpvc	r5, #0, 30
    20c4:	2f737265 	svccs	0x00737265
    20c8:	656c696d 	strbvs	r6, [ip, #-2413]!	; 0xfffff693
    20cc:	6f532f73 	svcvs	0x00532f73
    20d0:	65637275 	strbvs	r7, [r3, #-629]!	; 0xfffffd8b
    20d4:	3273632f 	rsbscc	r6, r3, #-1140850688	; 0xbc000000
    20d8:	786c3034 	stmdavc	ip!, {r2, r4, r5, ip, sp}^
    20dc:	62696c2f 	rsbvs	r6, r9, #12032	; 0x2f00
    20e0:	692f6970 	stmdbvs	pc!, {r4, r5, r6, r8, fp, sp, lr}	; <UNPREDICTABLE>
    20e4:	756c636e 	strbvc	r6, [ip, #-878]!	; 0xfffffc92
    20e8:	00006564 	andeq	r6, r0, r4, ror #10
    20ec:	61747363 	cmnvs	r4, r3, ror #6
    20f0:	632e7472 			; <UNDEFINED> instruction: 0x632e7472
    20f4:	00000100 	andeq	r0, r0, r0, lsl #2
    20f8:	2e697072 	mcrcs	0, 3, r7, cr9, cr2, {3}
    20fc:	00020068 	andeq	r0, r2, r8, rrx
    2100:	10050000 	andne	r0, r5, r0
    2104:	c8020500 	stmdagt	r2, {r8, sl}
    2108:	15000093 	strne	r0, [r0, #-147]	; 0xffffff6d
    210c:	05130505 	ldreq	r0, [r3, #-1285]	; 0xfffffafb
    2110:	05051302 	streq	r1, [r5, #-770]	; 0xfffffcfe
    2114:	06100514 			; <UNDEFINED> instruction: 0x06100514
    2118:	3205050e 	andcc	r0, r5, #58720256	; 0x3800000
    211c:	14133006 	ldrne	r3, [r3], #-6
    2120:	05010a05 	streq	r0, [r1, #-2565]	; 0xfffff5fb
    2124:	05910809 	ldreq	r0, [r1, #2057]	; 0x809
    2128:	05010610 	streq	r0, [r1, #-1552]	; 0xfffff9f0
    212c:	10059a0a 	andne	r9, r5, sl, lsl #20
    2130:	060a056a 	streq	r0, [sl], -sl, ror #10
    2134:	2f09052d 	svccs	0x0009052d
    2138:	01061005 	tsteq	r6, r5
    213c:	2d060a05 	vstrcs	s0, [r6, #-20]	; 0xffffffec
    2140:	05bb0905 	ldreq	r0, [fp, #2309]!	; 0x905
    2144:	05010610 	streq	r0, [r1, #-1552]	; 0xfffff9f0
    2148:	0565060a 	strbeq	r0, [r5, #-1546]!	; 0xfffff9f6
    214c:	0d054b09 	vstreq	d4, [r5, #-36]	; 0xffffffdc
    2150:	0a050106 	beq	142570 <__bss_end__+0x1380a0>
    2154:	2f10052d 	svccs	0x0010052d
    2158:	2d060a05 	vstrcs	s0, [r6, #-20]	; 0xffffffec
    215c:	052f0905 	streq	r0, [pc, #-2309]!	; 185f <__code_start__-0x67a1>
    2160:	0501060d 	streq	r0, [r1, #-1549]	; 0xfffff9f3
    2164:	10052d0a 	andne	r2, r5, sl, lsl #26
    2168:	060a052f 	streq	r0, [sl], -pc, lsr #10
    216c:	2f09052d 	svccs	0x0009052d
    2170:	01060d05 	tsteq	r6, r5, lsl #26
    2174:	052d0a05 	streq	r0, [sp, #-2565]!	; 0xfffff5fb
    2178:	0a052f10 	beq	14ddc0 <__bss_end__+0x1438f0>
    217c:	09052d06 	stmdbeq	r5, {r1, r2, r8, sl, fp, sp}
    2180:	060d052f 	streq	r0, [sp], -pc, lsr #10
    2184:	2d0a0501 	cfstr32cs	mvfx0, [sl, #-4]
    2188:	052f1005 	streq	r1, [pc, #-5]!	; 218b <__code_start__-0x5e75>
    218c:	052d060a 	streq	r0, [sp, #-1546]!	; 0xfffff9f6
    2190:	10051309 	andne	r1, r5, r9, lsl #6
    2194:	0a050106 	beq	1425b4 <__bss_end__+0x1380e4>
    2198:	05052d06 	streq	r2, [r5, #-3334]	; 0xfffff2fa
    219c:	01013215 	tsteq	r1, r5, lsl r2
    21a0:	0205144a 	andeq	r1, r5, #1241513984	; 0x4a000000
    21a4:	060a052f 	streq	r0, [sl], -pc, lsr #10
    21a8:	022e7303 	eoreq	r7, lr, #201326592	; 0xc000000
    21ac:	01010008 	tsteq	r1, r8
    21b0:	0000007d 	andeq	r0, r0, sp, ror r0
    21b4:	00650003 	rsbeq	r0, r5, r3
    21b8:	01020000 	mrseq	r0, (UNDEF: 2)
    21bc:	000d0efb 	strdeq	r0, [sp], -fp
    21c0:	01010101 	tsteq	r1, r1, lsl #2
    21c4:	01000000 	mrseq	r0, (UNDEF: 0)
    21c8:	2e010000 	cdpcs	0, 0, cr0, cr1, cr0, {0}
    21cc:	6174732f 	cmnvs	r4, pc, lsr #6
    21d0:	732d6666 			; <UNDEFINED> instruction: 0x732d6666
    21d4:	2f006372 	svccs	0x00006372
    21d8:	72657355 	rsbvc	r7, r5, #1409286145	; 0x54000001
    21dc:	696d2f73 	stmdbvs	sp!, {r0, r1, r4, r5, r6, r8, r9, sl, fp, sp}^
    21e0:	2f73656c 	svccs	0x0073656c
    21e4:	72756f53 	rsbsvc	r6, r5, #332	; 0x14c
    21e8:	632f6563 			; <UNDEFINED> instruction: 0x632f6563
    21ec:	30343273 	eorscc	r3, r4, r3, ror r2
    21f0:	6c2f786c 	stcvs	8, cr7, [pc], #-432	; 2048 <__code_start__-0x5fb8>
    21f4:	69706269 	ldmdbvs	r0!, {r0, r3, r5, r6, r9, sp, lr}^
    21f8:	636e692f 	cmnvs	lr, #770048	; 0xbc000
    21fc:	6564756c 	strbvs	r7, [r4, #-1388]!	; 0xfffffa94
    2200:	75630000 	strbvc	r0, [r3, #-0]!
    2204:	6d6f7473 	cfstrdvs	mvd7, [pc, #-460]!	; 2040 <__code_start__-0x5fc0>
    2208:	616f6c2d 	cmnvs	pc, sp, lsr #24
    220c:	2e726564 	cdpcs	5, 7, cr6, cr2, cr4, {3}
    2210:	00010063 	andeq	r0, r1, r3, rrx
    2214:	69707200 	ldmdbvs	r0!, {r9, ip, sp, lr}^
    2218:	0200682e 	andeq	r6, r0, #3014656	; 0x2e0000
    221c:	05000000 	streq	r0, [r0, #-0]
    2220:	0205001a 	andeq	r0, r5, #26, 0
    2224:	000094c0 	andeq	r9, r0, r0, asr #9
    2228:	14010515 	strne	r0, [r1], #-1301	; 0xfffffaeb
    222c:	01000202 	tsteq	r0, r2, lsl #4
    2230:	00011401 	andeq	r1, r1, r1, lsl #8
    2234:	5e000300 	cdppl	3, 0, cr0, cr0, cr0, {0}
    2238:	02000000 	andeq	r0, r0, #0, 0
    223c:	0d0efb01 	vstreq	d15, [lr, #-4]
    2240:	01010100 	mrseq	r0, (UNDEF: 17)
    2244:	00000001 	andeq	r0, r0, r1
    2248:	01000001 	tsteq	r0, r1
    224c:	74732f2e 	ldrbtvc	r2, [r3], #-3886	; 0xfffff0d2
    2250:	2d666661 	stclcs	6, cr6, [r6, #-388]!	; 0xfffffe7c
    2254:	00637273 	rsbeq	r7, r3, r3, ror r2
    2258:	6573552f 	ldrbvs	r5, [r3, #-1327]!	; 0xfffffad1
    225c:	6d2f7372 	stcvs	3, cr7, [pc, #-456]!	; 209c <__code_start__-0x5f64>
    2260:	73656c69 	cmnvc	r5, #26880	; 0x6900
    2264:	756f532f 	strbvc	r5, [pc, #-815]!	; 1f3d <__code_start__-0x60c3>
    2268:	2f656372 	svccs	0x00656372
    226c:	34327363 	ldrtcc	r7, [r2], #-867	; 0xfffffc9d
    2270:	2f786c30 	svccs	0x00786c30
    2274:	7062696c 	rsbvc	r6, r2, ip, ror #18
    2278:	6e692f69 	cdpvs	15, 6, cr2, cr9, cr9, {3}
    227c:	64756c63 	ldrbtvs	r6, [r5], #-3171	; 0xfffff39d
    2280:	72000065 	andvc	r0, r0, #101, 0	; 0x65
    2284:	6f6f6265 	svcvs	0x006f6265
    2288:	00632e74 	rsbeq	r2, r3, r4, ror lr
    228c:	72000001 	andvc	r0, r0, #1, 0
    2290:	682e6970 	stmdavs	lr!, {r4, r5, r6, r8, fp, sp, lr}
    2294:	00000200 	andeq	r0, r0, r0, lsl #4
    2298:	00190500 	andseq	r0, r9, r0, lsl #10
    229c:	94c40205 	strbls	r0, [r4], #517	; 0x205
    22a0:	0d030000 	stceq	0, cr0, [r3, #-0]
    22a4:	13050501 	movwne	r0, #21761	; 0x5501
    22a8:	13053113 	movwne	r3, #20755	; 0x5113
    22ac:	01050106 	tsteq	r5, r6, lsl #2
    22b0:	061b052f 	ldreq	r0, [fp], -pc, lsr #10
    22b4:	13050585 	movwne	r0, #21893	; 0x5585
    22b8:	2f090514 	svccs	0x00090514
    22bc:	01061605 	tsteq	r6, r5, lsl #12
    22c0:	2f060505 	svccs	0x00060505
    22c4:	11060e05 	tstne	r6, r5, lsl #28
    22c8:	052f0505 	streq	r0, [pc, #-1285]!	; 1dcb <__code_start__-0x6235>
    22cc:	17052f01 	strne	r2, [r5, -r1, lsl #30]
    22d0:	05053006 	streq	r3, [r5, #-6]
    22d4:	016e0313 	cmneq	lr, r3, lsl r3
    22d8:	17051313 	smladne	r5, r3, r3, r1
    22dc:	010f0306 	tsteq	pc, r6, lsl #6
    22e0:	71030505 	tstvc	r3, r5, lsl #10
    22e4:	0531062e 	ldreq	r0, [r1, #-1582]!	; 0xfffff9d2
    22e8:	05010613 	streq	r0, [r1, #-1555]	; 0xfffff9ed
    22ec:	2e0d0307 	cdpcs	3, 0, cr0, cr13, cr7, {0}
    22f0:	4b060905 	blmi	18470c <__bss_end__+0x17a23c>
    22f4:	76030605 	strvc	r0, [r3], -r5, lsl #12
    22f8:	13050501 	movwne	r0, #21761	; 0x5501
    22fc:	2f090514 	svccs	0x00090514
    2300:	01061605 	tsteq	r6, r5, lsl #12
    2304:	2f060505 	svccs	0x00060505
    2308:	11060e05 	tstne	r6, r5, lsl #28
    230c:	2e2f0505 	cfsh64cs	mvdx0, mvdx15, #5
    2310:	010a0306 	tsteq	sl, r6, lsl #6
    2314:	134d2f30 	movtne	r2, #57136	; 0xdf30
    2318:	67151313 			; <UNDEFINED> instruction: 0x67151313
    231c:	01040200 	mrseq	r0, R12_usr
    2320:	000d0567 	andeq	r0, sp, r7, ror #10
    2324:	01010402 	tsteq	r1, r2, lsl #8
    2328:	02000a05 	andeq	r0, r0, #20480	; 0x5000
    232c:	05010104 	streq	r0, [r1, #-260]	; 0xfffffefc
    2330:	04020005 	streq	r0, [r2], #-5
    2334:	0d050101 	stfeqs	f0, [r5, #-4]
    2338:	01040200 	mrseq	r0, R12_usr
    233c:	000a0501 	andeq	r0, sl, r1, lsl #10
    2340:	01010402 	tsteq	r1, r2, lsl #8
    2344:	01000a02 	tsteq	r0, r2, lsl #20
    2348:	0001fa01 	andeq	pc, r1, r1, lsl #20
    234c:	5d000300 	stcpl	3, cr0, [r0, #-0]
    2350:	02000000 	andeq	r0, r0, #0, 0
    2354:	0d0efb01 	vstreq	d15, [lr, #-4]
    2358:	01010100 	mrseq	r0, (UNDEF: 17)
    235c:	00000001 	andeq	r0, r0, r1
    2360:	01000001 	tsteq	r0, r1
    2364:	74732f2e 	ldrbtvc	r2, [r3], #-3886	; 0xfffff0d2
    2368:	2d666661 	stclcs	6, cr6, [r6, #-388]!	; 0xfffffe7c
    236c:	00637273 	rsbeq	r7, r3, r3, ror r2
    2370:	6573552f 	ldrbvs	r5, [r3, #-1327]!	; 0xfffffad1
    2374:	6d2f7372 	stcvs	3, cr7, [pc, #-456]!	; 21b4 <__code_start__-0x5e4c>
    2378:	73656c69 	cmnvc	r5, #26880	; 0x6900
    237c:	756f532f 	strbvc	r5, [pc, #-815]!	; 2055 <__code_start__-0x5fab>
    2380:	2f656372 	svccs	0x00656372
    2384:	34327363 	ldrtcc	r7, [r2], #-867	; 0xfffffc9d
    2388:	2f786c30 	svccs	0x00786c30
    238c:	7062696c 	rsbvc	r6, r2, ip, ror #18
    2390:	6e692f69 	cdpvs	15, 6, cr2, cr9, cr9, {3}
    2394:	64756c63 	ldrbtvs	r6, [r5], #-3171	; 0xfffff39d
    2398:	74000065 	strvc	r0, [r0], #-101	; 0xffffff9b
    239c:	72656d69 	rsbvc	r6, r5, #6720	; 0x1a40
    23a0:	0100632e 	tsteq	r0, lr, lsr #6
    23a4:	70720000 	rsbsvc	r0, r2, r0
    23a8:	00682e69 	rsbeq	r2, r8, r9, ror #28
    23ac:	00000002 	andeq	r0, r0, r2
    23b0:	05002305 	streq	r2, [r0, #-773]	; 0xfffffcfb
    23b4:	00955002 	addseq	r5, r5, r2
    23b8:	05051500 	streq	r1, [r5, #-1280]	; 0xfffffb00
    23bc:	060c0513 			; <UNDEFINED> instruction: 0x060c0513
    23c0:	061f0501 	ldreq	r0, [pc], -r1, lsl #10
    23c4:	1505056a 	strne	r0, [r5, #-1386]	; 0xfffffa96
    23c8:	0f061f05 	svceq	0x00061f05
    23cc:	06310505 	ldrteq	r0, [r1], -r5, lsl #10
    23d0:	030a052f 	movweq	r0, #42287	; 0xa52f
    23d4:	05050177 	streq	r0, [r5, #-375]	; 0xfffffe89
    23d8:	060c0513 			; <UNDEFINED> instruction: 0x060c0513
    23dc:	05056601 	streq	r6, [r5, #-1537]	; 0xfffff9ff
    23e0:	01090306 	tsteq	r9, r6, lsl #6
    23e4:	0601052f 	streq	r0, [r1], -pc, lsr #10
    23e8:	061c0513 			; <UNDEFINED> instruction: 0x061c0513
    23ec:	13050568 	movwne	r0, #21864	; 0x5568
    23f0:	76030a05 	strvc	r0, [r3], -r5, lsl #20
    23f4:	15050501 	strne	r0, [r5, #-1281]	; 0xfffffaff
    23f8:	18061c05 	stmdane	r6, {r0, r2, sl, fp, ip}
    23fc:	0305052e 	movweq	r0, #21806	; 0x552e
    2400:	2f062e7a 	svccs	0x00062e7a
    2404:	77030a05 	strvc	r0, [r3, -r5, lsl #20]
    2408:	13050501 	movwne	r0, #21761	; 0x5501
    240c:	01060c05 	tsteq	r6, r5, lsl #24
    2410:	06050566 	streq	r0, [r5], -r6, ror #10
    2414:	2f010903 	svccs	0x00010903
    2418:	0c050106 	stfeqs	f0, [r5], {6}
    241c:	05017603 	streq	r7, [r1, #-1539]	; 0xfffff9fd
    2420:	0f030605 	svceq	0x00030605
    2424:	1309052e 	movwne	r0, #38190	; 0x952e
    2428:	74030a05 	strvc	r0, [r3], #-2565	; 0xfffff5fb
    242c:	15050501 	strne	r0, [r5, #-1281]	; 0xfffffaff
    2430:	030a052f 	movweq	r0, #42287	; 0xa52f
    2434:	05050177 	streq	r0, [r5, #-375]	; 0xfffffe89
    2438:	060c0513 			; <UNDEFINED> instruction: 0x060c0513
    243c:	05056601 	streq	r6, [r5, #-1537]	; 0xfffff9ff
    2440:	01090306 	tsteq	r9, r6, lsl #6
    2444:	1a061105 	bne	186860 <__bss_end__+0x17c390>
    2448:	78030505 	stmdavc	r3, {r0, r2, r8, sl}
    244c:	052f062e 	streq	r0, [pc, #-1582]!	; 1e26 <__code_start__-0x61da>
    2450:	0c051909 			; <UNDEFINED> instruction: 0x0c051909
    2454:	1c050106 	stfnes	f0, [r5], {6}
    2458:	05058706 	streq	r8, [r5, #-1798]	; 0xfffff8fa
    245c:	061c0513 			; <UNDEFINED> instruction: 0x061c0513
    2460:	2f050511 	svccs	0x00050511
    2464:	0606054a 	streq	r0, [r6], -sl, asr #10
    2468:	052e7603 	streq	r7, [lr, #-1539]!	; 0xfffff9fd
    246c:	0a051305 	beq	147088 <__bss_end__+0x13cbb8>
    2470:	05017603 	streq	r7, [r1, #-1539]	; 0xfffff9fd
    2474:	052f1505 	streq	r1, [pc, #-1285]!	; 1f77 <__code_start__-0x6089>
    2478:	0177030a 	cmneq	r7, sl, lsl #6
    247c:	05130505 	ldreq	r0, [r3, #-1285]	; 0xfffffafb
    2480:	6601060c 	strvs	r0, [r1], -ip, lsl #12
    2484:	03060505 	movweq	r0, #25861	; 0x6505
    2488:	062f0109 	strteq	r0, [pc], -r9, lsl #2
    248c:	030c0501 	movweq	r0, #50433	; 0xc501
    2490:	05050176 	streq	r0, [r5, #-374]	; 0xfffffe8a
    2494:	2e0f0306 	cdpcs	3, 0, cr0, cr15, cr6, {0}
    2498:	05130905 	ldreq	r0, [r3, #-2309]	; 0xfffff6fb
    249c:	0174030a 	cmneq	r4, sl, lsl #6
    24a0:	2f150505 	svccs	0x00150505
    24a4:	77030a05 	strvc	r0, [r3, -r5, lsl #20]
    24a8:	13050501 	movwne	r0, #21761	; 0x5501
    24ac:	01060c05 	tsteq	r6, r5, lsl #24
    24b0:	06050566 	streq	r0, [r5], -r6, ror #10
    24b4:	05010903 	streq	r0, [r1, #-2307]	; 0xfffff6fd
    24b8:	051a0611 	ldreq	r0, [sl, #-1553]	; 0xfffff9ef
    24bc:	2e780305 	cdpcs	3, 7, cr0, cr8, cr5, {0}
    24c0:	09052f06 	stmdbeq	r5, {r1, r2, r8, r9, sl, fp, sp}
    24c4:	060c0519 			; <UNDEFINED> instruction: 0x060c0519
    24c8:	061e0501 	ldreq	r0, [lr], -r1, lsl #10
    24cc:	1305058a 	movwne	r0, #21898	; 0x558a
    24d0:	050e0605 	streq	r0, [lr, #-1541]	; 0xfffff9fb
    24d4:	1e051305 	cdpne	3, 0, cr1, cr5, cr5, {0}
    24d8:	05051406 	streq	r1, [r5, #-1030]	; 0xfffffbfa
    24dc:	0605662c 	streq	r6, [r5], -ip, lsr #12
    24e0:	2e760306 	cdpcs	3, 7, cr0, cr6, cr6, {0}
    24e4:	05130505 	ldreq	r0, [r3, #-1285]	; 0xfffffafb
    24e8:	0176030a 	cmneq	r6, sl, lsl #6
    24ec:	2f150505 	svccs	0x00150505
    24f0:	77030a05 	strvc	r0, [r3, -r5, lsl #20]
    24f4:	13050501 	movwne	r0, #21761	; 0x5501
    24f8:	01060c05 	tsteq	r6, r5, lsl #24
    24fc:	06050566 	streq	r0, [r5], -r6, ror #10
    2500:	2f010903 	svccs	0x00010903
    2504:	0c050106 	stfeqs	f0, [r5], {6}
    2508:	05017603 	streq	r7, [r1, #-1539]	; 0xfffff9fd
    250c:	0f030605 	svceq	0x00030605
    2510:	1309052e 	movwne	r0, #38190	; 0x952e
    2514:	74030a05 	strvc	r0, [r3], #-2565	; 0xfffff5fb
    2518:	15050501 	strne	r0, [r5, #-1281]	; 0xfffffaff
    251c:	030a052f 	movweq	r0, #42287	; 0xa52f
    2520:	05050177 	streq	r0, [r5, #-375]	; 0xfffffe89
    2524:	060c0513 			; <UNDEFINED> instruction: 0x060c0513
    2528:	05056601 	streq	r6, [r5, #-1537]	; 0xfffff9ff
    252c:	01090306 	tsteq	r9, r6, lsl #6
    2530:	1a061105 	bne	18694c <__bss_end__+0x17c47c>
    2534:	78030505 	stmdavc	r3, {r0, r2, r8, sl}
    2538:	052f062e 	streq	r0, [pc, #-1582]!	; 1f12 <__code_start__-0x60ee>
    253c:	0c051909 			; <UNDEFINED> instruction: 0x0c051909
    2540:	08020106 	stmdaeq	r2, {r1, r2, r8}
    2544:	04010100 	streq	r0, [r1], #-256	; 0xffffff00
    2548:	03000002 	movweq	r0, #2
    254c:	0000c800 	andeq	ip, r0, r0, lsl #16
    2550:	fb010200 	blx	42d5a <__bss_end__+0x3888a>
    2554:	01000d0e 	tsteq	r0, lr, lsl #26
    2558:	00010101 	andeq	r0, r1, r1, lsl #2
    255c:	00010000 	andeq	r0, r1, r0
    2560:	682f0100 	stmdavs	pc!, {r8}	; <UNPREDICTABLE>
    2564:	2f656d6f 	svccs	0x00656d6f
    2568:	6c676e65 	stclvs	14, cr6, [r7], #-404	; 0xfffffe6c
    256c:	632f7265 			; <UNDEFINED> instruction: 0x632f7265
    2570:	7373616c 	cmnvc	r3, #27
    2574:	3173632f 	cmncc	r3, pc, lsr #6
    2578:	2d653034 	stclcs	0, cr3, [r5, #-208]!	; 0xffffff30
    257c:	69773232 	ldmdbvs	r7!, {r1, r4, r5, r9, ip, sp}^
    2580:	6c2f2f6e 	stcvs	15, cr2, [pc], #-440	; 23d0 <__code_start__-0x5c30>
    2584:	69706269 	ldmdbvs	r0!, {r0, r3, r5, r6, r9, sp, lr}^
    2588:	636e692f 	cmnvs	lr, #770048	; 0xbc000
    258c:	6564756c 	strbvs	r7, [r4, #-1388]!	; 0xfffffa94
    2590:	73752f00 	cmnvc	r5, #0, 30
    2594:	68732f72 	ldmdavs	r3!, {r1, r4, r5, r6, r8, r9, sl, fp, sp}^
    2598:	2f657261 	svccs	0x00657261
    259c:	2d636367 	stclcs	3, cr6, [r3, #-412]!	; 0xfffffe64
    25a0:	2d6d7261 	sfmcs	f7, 2, [sp, #-388]!	; 0xfffffe7c
    25a4:	656e6f6e 	strbvs	r6, [lr, #-3950]!	; 0xfffff092
    25a8:	6261652d 	rsbvs	r6, r1, #188743680	; 0xb400000
    25ac:	30312d69 	eorscc	r2, r1, r9, ror #26
    25b0:	322d332e 	eorcc	r3, sp, #-1207959552	; 0xb8000000
    25b4:	2e313230 	mrccs	2, 1, r3, cr1, cr0, {1}
    25b8:	6c2f3031 	stcvs	0, cr3, [pc], #-196	; 24fc <__code_start__-0x5b04>
    25bc:	672f6269 	strvs	r6, [pc, -r9, ror #4]!
    25c0:	612f6363 			; <UNDEFINED> instruction: 0x612f6363
    25c4:	6e2d6d72 	mcrvs	13, 1, r6, cr13, cr2, {3}
    25c8:	2d656e6f 	stclcs	14, cr6, [r5, #-444]!	; 0xfffffe44
    25cc:	69626165 	stmdbvs	r2!, {r0, r2, r5, r6, r8, sp, lr}^
    25d0:	2e30312f 	rsfcssp	f3, f0, #10.0
    25d4:	2f312e33 	svccs	0x00312e33
    25d8:	6c636e69 	stclvs	14, cr6, [r3], #-420	; 0xfffffe5c
    25dc:	00656475 	rsbeq	r6, r5, r5, ror r4
    25e0:	72617500 	rsbvc	r7, r1, #0, 10
    25e4:	00632e74 	rsbeq	r2, r3, r4, ror lr
    25e8:	75000000 	strvc	r0, [r0, #-0]
    25ec:	2e747261 	cdpcs	2, 7, cr7, cr4, cr1, {3}
    25f0:	00010068 	andeq	r0, r1, r8, rrx
    25f4:	69707200 	ldmdbvs	r0!, {r9, ip, sp, lr}^
    25f8:	0100682e 	tsteq	r0, lr, lsr #16
    25fc:	70670000 	rsbvc	r0, r7, r0
    2600:	682e6f69 	stmdavs	lr!, {r0, r3, r5, r6, r8, r9, sl, fp, sp, lr}
    2604:	00000100 	andeq	r0, r0, r0, lsl #2
    2608:	69647473 	stmdbvs	r4!, {r0, r1, r4, r5, r6, sl, ip, sp, lr}^
    260c:	672d746e 	strvs	r7, [sp, -lr, ror #8]!
    2610:	682e6363 	stmdavs	lr!, {r0, r1, r5, r6, r8, r9, sp, lr}
    2614:	00000200 	andeq	r0, r0, r0, lsl #4
    2618:	00390500 	eorseq	r0, r9, r0, lsl #10
    261c:	966c0205 	strbtls	r0, [ip], -r5, lsl #4
    2620:	30030000 	andcc	r0, r3, r0
    2624:	05010601 	streq	r0, [r1, #-1537]	; 0xfffff9ff
    2628:	05670605 	strbeq	r0, [r7, #-1541]!	; 0xfffff9fb
    262c:	05010611 	streq	r0, [r1, #-1553]	; 0xfffff9ef
    2630:	01052e05 	tsteq	r5, r5, lsl #28
    2634:	06380567 	ldrteq	r0, [r8], -r7, ror #10
    2638:	05010629 	streq	r0, [r1, #-1577]	; 0xfffff9d7
    263c:	05670605 	strbeq	r0, [r7, #-1541]!	; 0xfffff9fb
    2640:	05010611 	streq	r0, [r1, #-1553]	; 0xfffff9ef
    2644:	01052e05 	tsteq	r5, r5, lsl #28
    2648:	06160567 	ldreq	r0, [r6], -r7, ror #10
    264c:	052e1503 	streq	r1, [lr, #-1283]!	; 0xfffffafd
    2650:	68673505 	stmdavs	r7!, {r0, r2, r8, sl, ip, sp}^
    2654:	0c036835 	stceq	8, cr6, [r3], {53}	; 0x35
    2658:	696b852e 	stmdbvs	fp!, {r1, r2, r3, r5, r8, sl, pc}^
    265c:	660c0369 	strvs	r0, [ip], -r9, ror #6
    2660:	05676b13 	strbeq	r6, [r7, #-2835]!	; 0xfffff4ed
    2664:	052f0601 	streq	r0, [pc, #-1537]!	; 206b <__code_start__-0x5f95>
    2668:	25080619 	strcs	r0, [r8, #-1561]	; 0xfffff9e7
    266c:	05340505 	ldreq	r0, [r4, #-1285]!	; 0xfffffafb
    2670:	0501060d 	streq	r0, [r1, #-1549]	; 0xfffff9f3
    2674:	19054c01 	stmdbne	r5, {r0, sl, fp, lr}
    2678:	05056706 	streq	r6, [r5, #-1798]	; 0xfffff8fa
    267c:	060d0536 			; <UNDEFINED> instruction: 0x060d0536
    2680:	4a280501 	bmi	a03a8c <__bss_end__+0x9f95bc>
    2684:	05300105 	ldreq	r0, [r0, #-261]!	; 0xfffffefb
    2688:	05870615 	streq	r0, [r7, #1557]	; 0x615
    268c:	052f2f05 	streq	r2, [pc, #-3845]!	; 178f <__code_start__-0x6871>
    2690:	04020009 	streq	r0, [r2], #-9
    2694:	0a051301 	beq	1472a0 <__bss_end__+0x13cdd0>
    2698:	01040200 	mrseq	r0, R12_usr
    269c:	000c0511 	andeq	r0, ip, r1, lsl r5
    26a0:	06010402 	streq	r0, [r1], -r2, lsl #8
    26a4:	000a0501 	andeq	r0, sl, r1, lsl #10
    26a8:	2e010402 	cdpcs	4, 0, cr0, cr1, cr2, {0}
    26ac:	4c060505 	cfstr32mi	mvfx0, [r6], {5}
    26b0:	01060e05 	tsteq	r6, r5, lsl #28
    26b4:	054a0905 	strbeq	r0, [sl, #-2309]	; 0xfffff6fb
    26b8:	2f2f0605 	svccs	0x002f0605
    26bc:	13060105 	movwne	r0, #24837	; 0x6105
    26c0:	67061c05 	strvs	r1, [r6, -r5, lsl #24]
    26c4:	05050106 	streq	r0, [r5, #-262]	; 0xfffffefa
    26c8:	052f4b06 	streq	r4, [pc, #-2822]!	; 1bca <__code_start__-0x6436>
    26cc:	04020009 	streq	r0, [r2], #-9
    26d0:	0a051301 	beq	1472dc <__bss_end__+0x13ce0c>
    26d4:	01040200 	mrseq	r0, R12_usr
    26d8:	000c0511 	andeq	r0, ip, r1, lsl r5
    26dc:	06010402 	streq	r0, [r1], -r2, lsl #8
    26e0:	000a0501 	andeq	r0, sl, r1, lsl #10
    26e4:	2e010402 	cdpcs	4, 0, cr0, cr1, cr2, {0}
    26e8:	4c060505 	cfstr32mi	mvfx0, [r6], {5}
    26ec:	06010567 	streq	r0, [r1], -r7, ror #10
    26f0:	0619052f 	ldreq	r0, [r9], -pc, lsr #10
    26f4:	2e1b054c 	cfmac32cs	mvfx0, mvfx11, mvfx12
    26f8:	052e2a05 	streq	r2, [lr, #-2565]!	; 0xfffff5fb
    26fc:	05010631 	streq	r0, [r1, #-1585]	; 0xfffff9cf
    2700:	1c052e42 	stcne	14, cr2, [r5], {66}	; 0x42
    2704:	05053106 	streq	r3, [r5, #-262]	; 0xfffffefa
    2708:	2e09032f 	cdpcs	3, 0, cr0, cr9, cr15, {1}
    270c:	01060e05 	tsteq	r6, r5, lsl #28
    2710:	054a2105 	strbeq	r2, [sl, #-261]	; 0xfffffefb
    2714:	2e0a0301 	cdpcs	3, 0, cr0, cr10, cr1, {0}
    2718:	68061a05 	stmdavs	r6, {r0, r2, r9, fp, ip}
    271c:	02000905 	andeq	r0, r0, #81920	; 0x14000
    2720:	05300104 	ldreq	r0, [r0, #-260]!	; 0xfffffefc
    2724:	0402000a 	streq	r0, [r2], #-10
    2728:	0c051101 	stfeqs	f1, [r5], {1}
    272c:	01040200 	mrseq	r0, R12_usr
    2730:	0a050106 	beq	142b50 <__bss_end__+0x138680>
    2734:	01040200 	mrseq	r0, R12_usr
    2738:	0619052e 	ldreq	r0, [r9], -lr, lsr #10
    273c:	667ee803 	ldrbtvs	lr, [lr], -r3, lsl #16
    2740:	2f2f0505 	svccs	0x002f0505
    2744:	0105672f 	tsteq	r5, pc, lsr #14
    2748:	04022f06 	streq	r2, [r2], #-3846	; 0xfffff0fa
    274c:	92010100 	andls	r0, r1, #0
    2750:	03000003 	movweq	r0, #3
    2754:	0000b700 	andeq	fp, r0, r0, lsl #14
    2758:	fb010200 	blx	42f62 <__bss_end__+0x38a92>
    275c:	01000d0e 	tsteq	r0, lr, lsl #26
    2760:	00010101 	andeq	r0, r1, r1, lsl #2
    2764:	00010000 	andeq	r0, r1, r0
    2768:	682f0100 	stmdavs	pc!, {r8}	; <UNPREDICTABLE>
    276c:	2f656d6f 	svccs	0x00656d6f
    2770:	6c676e65 	stclvs	14, cr6, [r7], #-404	; 0xfffffe6c
    2774:	632f7265 			; <UNDEFINED> instruction: 0x632f7265
    2778:	7373616c 	cmnvc	r3, #27
    277c:	3173632f 	cmncc	r3, pc, lsr #6
    2780:	2d653034 	stclcs	0, cr3, [r5, #-208]!	; 0xffffff30
    2784:	69773232 	ldmdbvs	r7!, {r1, r4, r5, r9, ip, sp}^
    2788:	6c2f2f6e 	stcvs	15, cr2, [pc], #-440	; 25d8 <__code_start__-0x5a28>
    278c:	69706269 	ldmdbvs	r0!, {r0, r3, r5, r6, r9, sp, lr}^
    2790:	636e692f 	cmnvs	lr, #770048	; 0xbc000
    2794:	6564756c 	strbvs	r7, [r4, #-1388]!	; 0xfffffa94
    2798:	73752f00 	cmnvc	r5, #0, 30
    279c:	68732f72 	ldmdavs	r3!, {r1, r4, r5, r6, r8, r9, sl, fp, sp}^
    27a0:	2f657261 	svccs	0x00657261
    27a4:	2d636367 	stclcs	3, cr6, [r3, #-412]!	; 0xfffffe64
    27a8:	2d6d7261 	sfmcs	f7, 2, [sp, #-388]!	; 0xfffffe7c
    27ac:	656e6f6e 	strbvs	r6, [lr, #-3950]!	; 0xfffff092
    27b0:	6261652d 	rsbvs	r6, r1, #188743680	; 0xb400000
    27b4:	30312d69 	eorscc	r2, r1, r9, ror #26
    27b8:	322d332e 	eorcc	r3, sp, #-1207959552	; 0xb8000000
    27bc:	2e313230 	mrccs	2, 1, r3, cr1, cr0, {1}
    27c0:	6c2f3031 	stcvs	0, cr3, [pc], #-196	; 2704 <__code_start__-0x58fc>
    27c4:	672f6269 	strvs	r6, [pc, -r9, ror #4]!
    27c8:	612f6363 			; <UNDEFINED> instruction: 0x612f6363
    27cc:	6e2d6d72 	mcrvs	13, 1, r6, cr13, cr2, {3}
    27d0:	2d656e6f 	stclcs	14, cr6, [r5, #-444]!	; 0xfffffe44
    27d4:	69626165 	stmdbvs	r2!, {r0, r2, r5, r6, r8, sp, lr}^
    27d8:	2e30312f 	rsfcssp	f3, f0, #10.0
    27dc:	2f312e33 	svccs	0x00312e33
    27e0:	6c636e69 	stclvs	14, cr6, [r3], #-420	; 0xfffffe5c
    27e4:	00656475 	rsbeq	r6, r5, r5, ror r4
    27e8:	616d6b00 	cmnvs	sp, r0, lsl #22
    27ec:	636f6c6c 	cmnvs	pc, #108, 24	; 0x6c00
    27f0:	0000632e 	andeq	r6, r0, lr, lsr #6
    27f4:	70720000 	rsbsvc	r0, r2, r0
    27f8:	00682e69 	rsbeq	r2, r8, r9, ror #28
    27fc:	73000001 	movwvc	r0, #1
    2800:	6e696474 	mcrvs	4, 3, r6, cr9, cr4, {3}
    2804:	63672d74 	cmnvs	r7, #116, 26	; 0x1d00
    2808:	00682e63 	rsbeq	r2, r8, r3, ror #28
    280c:	00000002 	andeq	r0, r0, r2
    2810:	05001e05 	streq	r1, [r0, #-3589]	; 0xfffff1fb
    2814:	00985c02 	addseq	r5, r8, r2, lsl #24
    2818:	01270300 			; <UNDEFINED> instruction: 0x01270300
    281c:	05012005 	streq	r2, [r1, #-5]
    2820:	0501062d 	streq	r0, [r1, #-1581]	; 0xfffff9d3
    2824:	05830620 	streq	r0, [r3, #1568]	; 0x620
    2828:	35050122 	strcc	r0, [r5, #-290]	; 0xfffffede
    282c:	1e050106 	adfnes	f0, f5, f6
    2830:	20058306 	andcs	r8, r5, r6, lsl #6
    2834:	062d0501 	strteq	r0, [sp], -r1, lsl #10
    2838:	06420501 	strbeq	r0, [r2], -r1, lsl #10
    283c:	05010685 	streq	r0, [r1, #-1669]	; 0xfffff97b
    2840:	144b0605 	strbne	r0, [fp], #-1541	; 0xfffff9fb
    2844:	002e0601 	eoreq	r0, lr, r1, lsl #12
    2848:	06020402 	streq	r0, [r2], -r2, lsl #8
    284c:	0402002e 	streq	r0, [r2], #-46	; 0xffffffd2
    2850:	02000102 	andeq	r0, r0, #-2147483648	; 0x80000000
    2854:	05150204 	ldreq	r0, [r5, #-516]	; 0xfffffdfc
    2858:	0402000d 	streq	r0, [r2], #-13
    285c:	05010602 	streq	r0, [r1, #-1538]	; 0xfffff9fe
    2860:	04020007 	streq	r0, [r2], #-7
    2864:	09054a02 	stmdbeq	r5, {r1, r9, fp, lr}
    2868:	05054b06 	streq	r4, [r5, #-2822]	; 0xfffff4fa
    286c:	06170515 			; <UNDEFINED> instruction: 0x06170515
    2870:	4a100501 	bmi	403c7c <__bss_end__+0x3f97ac>
    2874:	2f060505 	svccs	0x00060505
    2878:	01061b05 	tsteq	r6, r5, lsl #22
    287c:	052e0e05 	streq	r0, [lr, #-3589]!	; 0xfffff1fb
    2880:	05052f01 	streq	r2, [r5, #-3841]	; 0xfffff0ff
    2884:	01040200 	mrseq	r0, R12_usr
    2888:	4a770306 	bmi	1dc34a8 <__bss_end__+0x1db8fd8>
    288c:	01040200 	mrseq	r0, R12_usr
    2890:	04020001 	streq	r0, [r2], #-1
    2894:	009e0601 	addseq	r0, lr, r1, lsl #12
    2898:	2e010402 	cdpcs	4, 0, cr0, cr1, cr2, {0}
    289c:	01040200 	mrseq	r0, R12_usr
    28a0:	09052e06 	stmdbeq	r5, {r1, r2, r9, sl, fp, sp}
    28a4:	d6060132 			; <UNDEFINED> instruction: 0xd6060132
    28a8:	052e062e 	streq	r0, [lr, #-1582]!	; 0xfffff9d2
    28ac:	0505de19 	streq	sp, [r5, #-3609]	; 0xfffff1e7
    28b0:	0805142f 	stmdaeq	r5, {r0, r1, r2, r3, r5, sl, ip}
    28b4:	07050106 	streq	r0, [r5, -r6, lsl #2]
    28b8:	0609054a 	streq	r0, [r9], -sl, asr #10
    28bc:	1305054b 	movwne	r0, #21835	; 0x554b
    28c0:	01060c05 	tsteq	r6, r5, lsl #24
    28c4:	67060505 	strvs	r0, [r6, -r5, lsl #10]
    28c8:	06010513 			; <UNDEFINED> instruction: 0x06010513
    28cc:	06090567 	streq	r0, [r9], -r7, ror #10
    28d0:	059e012a 	ldreq	r0, [lr, #298]	; 0x12a
    28d4:	0106a528 	tsteq	r6, r8, lsr #10
    28d8:	4b060505 	blmi	183cf4 <__bss_end__+0x179824>
    28dc:	062e0601 	strteq	r0, [lr], -r1, lsl #12
    28e0:	0513012e 	ldreq	r0, [r3, #-302]	; 0xfffffed2
    28e4:	01470318 	cmpeq	r7, r8, lsl r3
    28e8:	01130505 	tsteq	r3, r5, lsl #10
    28ec:	0f060106 	svceq	0x00060106
    28f0:	05130115 	ldreq	r0, [r3, #-277]	; 0xfffffeeb
    28f4:	0501060e 	streq	r0, [r1, #-1550]	; 0xfffff9f2
    28f8:	052e2e16 	streq	r2, [lr, #-3606]!	; 0xfffff1ea
    28fc:	39030605 	stmdbcc	r3, {r0, r2, r9, sl}
    2900:	060b0501 	streq	r0, [fp], -r1, lsl #10
    2904:	06050501 	streq	r0, [r5], -r1, lsl #10
    2908:	060a054b 	streq	r0, [sl], -fp, asr #10
    290c:	06050501 	streq	r0, [r5], -r1, lsl #10
    2910:	060d054b 	streq	r0, [sp], -fp, asr #10
    2914:	2e070501 	cfsh32cs	mvfx0, mvfx7, #1
    2918:	054d0105 	strbeq	r0, [sp, #-261]	; 0xfffffefb
    291c:	04020005 	streq	r0, [r2], #-5
    2920:	78030601 	stmdavc	r3, {r0, r9, sl}
    2924:	0402004a 	streq	r0, [r2], #-74	; 0xffffffb6
    2928:	02000101 	andeq	r0, r0, #1073741824	; 0x40000000
    292c:	ba060104 	blt	182d44 <__bss_end__+0x178874>
    2930:	01040200 	mrseq	r0, R12_usr
    2934:	09052e06 	stmdbeq	r5, {r1, r2, r9, sl, fp, sp}
    2938:	82060134 	andhi	r0, r6, #13
    293c:	052e0666 	streq	r0, [lr, #-1638]!	; 0xfffff99a
    2940:	0106db20 	tsteq	r6, r0, lsr #22
    2944:	4b060505 	blmi	183d60 <__bss_end__+0x179890>
    2948:	04020001 	streq	r0, [r2], #-1
    294c:	02004a02 	andeq	r4, r0, #8192	; 0x2000
    2950:	00010204 	andeq	r0, r1, r4, lsl #4
    2954:	13020402 	movwne	r0, #9218	; 0x2402
    2958:	02001205 	andeq	r1, r0, #1342177280	; 0x50000000
    295c:	01060204 	tsteq	r6, r4, lsl #4
    2960:	02040200 	andeq	r0, r4, #0, 4
    2964:	0402002e 	streq	r0, [r2], #-46	; 0xffffffd2
    2968:	05052e02 	streq	r2, [r5, #-3586]	; 0xfffff1fe
    296c:	02040200 	andeq	r0, r4, #0, 4
    2970:	02002f06 	andeq	r2, r0, #6, 30
    2974:	05670204 	strbeq	r0, [r7, #-516]!	; 0xfffffdfc
    2978:	04020001 	streq	r0, [r2], #-1
    297c:	05130602 	ldreq	r0, [r3, #-1538]	; 0xfffff9fe
    2980:	04020005 	streq	r0, [r2], #-5
    2984:	00620601 	rsbeq	r0, r2, r1, lsl #12
    2988:	01010402 	tsteq	r1, r2, lsl #8
    298c:	01040200 	mrseq	r0, R12_usr
    2990:	0200ba06 	andeq	fp, r0, #24576	; 0x6000
    2994:	2e060104 	adfcss	f0, f6, f4
    2998:	0a033c05 	beq	d19b4 <__bss_end__+0xc74e4>
    299c:	0501069e 	streq	r0, [r1, #-1694]	; 0xfffff962
    29a0:	014b0605 	cmpeq	fp, r5, lsl #12
    29a4:	2e062e06 	cdpcs	14, 0, cr2, cr6, cr6, {0}
    29a8:	05011301 	streq	r1, [r1, #-769]	; 0xfffffcff
    29ac:	7fad0318 	svcvc	0x00ad0318
    29b0:	13050501 	movwne	r0, #21761	; 0x5501
    29b4:	01061105 	tsteq	r6, r5, lsl #2
    29b8:	0305052e 	movweq	r0, #21806	; 0x552e
    29bc:	060100d2 			; <UNDEFINED> instruction: 0x060100d2
    29c0:	1805134a 	stmdane	r5, {r1, r3, r6, r8, r9, ip}
    29c4:	017fa303 	cmneq	pc, r3, lsl #6
    29c8:	05130505 	ldreq	r0, [r3, #-1285]	; 0xfffffafb
    29cc:	4a010616 	bmi	4422c <__bss_end__+0x39d5c>
    29d0:	03060505 	movweq	r0, #25861	; 0x6505
    29d4:	050100e1 	streq	r0, [r1, #-225]	; 0xffffff1f
    29d8:	05010612 	streq	r0, [r1, #-1554]	; 0xfffff9ee
    29dc:	054b0605 	strbeq	r0, [fp, #-1541]	; 0xfffff9fb
    29e0:	7fa90318 	svcvc	0x00a90318
    29e4:	13050501 	movwne	r0, #21761	; 0x5501
    29e8:	0e180501 	cfmul32eq	mvfx0, mvfx8, mvfx1
    29ec:	05130505 	ldreq	r0, [r3, #-1285]	; 0xfffffafb
    29f0:	2e010611 	mcrcs	6, 0, r0, cr1, cr1, {0}
    29f4:	06150505 	ldreq	r0, [r5], -r5, lsl #10
    29f8:	0513014a 	ldreq	r0, [r3, #-330]	; 0xfffffeb6
    29fc:	2e01060e 	cfmadd32cs	mvax0, mvfx0, mvfx1, mvfx14
    2a00:	2e2e1605 	cfmadda32cs	mvax0, mvax1, mvfx14, mvfx5
    2a04:	03060505 	movweq	r0, #25861	; 0x6505
    2a08:	010100d6 	ldrdeq	r0, [r1, -r6]
    2a0c:	9f031805 	svcls	0x00031805
    2a10:	0505017f 	streq	r0, [r5, #-383]	; 0xfffffe81
    2a14:	06190513 			; <UNDEFINED> instruction: 0x06190513
    2a18:	05052e01 	streq	r2, [r5, #-3585]	; 0xfffff1ff
    2a1c:	0100e003 	tsteq	r0, r3
    2a20:	02040200 	andeq	r0, r4, #0, 4
    2a24:	02004a06 	andeq	r4, r0, #24576	; 0x6000
    2a28:	05140204 	ldreq	r0, [r4, #-516]	; 0xfffffdfc
    2a2c:	0402000a 	streq	r0, [r2], #-10
    2a30:	05010602 	streq	r0, [r1, #-1538]	; 0xfffff9fe
    2a34:	04020005 	streq	r0, [r2], #-5
    2a38:	054b0602 	strbeq	r0, [fp, #-1538]	; 0xfffff9fe
    2a3c:	0402000c 	streq	r0, [r2], #-12
    2a40:	05010602 	streq	r0, [r1, #-1538]	; 0xfffff9fe
    2a44:	04020001 	streq	r0, [r2], #-1
    2a48:	05052f02 	streq	r2, [r5, #-3842]	; 0xfffff0fe
    2a4c:	01040200 	mrseq	r0, R12_usr
    2a50:	4a730306 	bmi	1cc3670 <__bss_end__+0x1cb91a0>
    2a54:	01040200 	mrseq	r0, R12_usr
    2a58:	04020001 	streq	r0, [r2], #-1
    2a5c:	009e0601 	addseq	r0, lr, r1, lsl #12
    2a60:	2e010402 	cdpcs	4, 0, cr0, cr1, cr2, {0}
    2a64:	01040200 	mrseq	r0, R12_usr
    2a68:	02002e06 	andeq	r2, r0, #96	; 0x60
    2a6c:	002f0104 	eoreq	r0, pc, r4, lsl #2
    2a70:	2e010402 	cdpcs	4, 0, cr0, cr1, cr2, {0}
    2a74:	01040200 	mrseq	r0, R12_usr
    2a78:	7fb103d6 	svcvc	0x00b103d6
    2a7c:	8206012e 	andhi	r0, r6, #-2147483637	; 0x8000000b
    2a80:	2e062e2e 	cdpcs	14, 0, cr2, cr6, cr14, {1}
    2a84:	02002e06 	andeq	r2, r0, #96	; 0x60
    2a88:	03060104 	movweq	r0, #24836	; 0x6104
    2a8c:	000100d7 	ldrdeq	r0, [r1], -r7
    2a90:	2e010402 	cdpcs	4, 0, cr0, cr1, cr2, {0}
    2a94:	01040200 	mrseq	r0, R12_usr
    2a98:	081505d6 	ldmdaeq	r5, {r1, r2, r4, r6, r7, r8, sl}
    2a9c:	0117057b 	tsteq	r7, fp, ror r5
    2aa0:	05311605 	ldreq	r1, [r1, #-1541]!	; 0xfffff9fb
    2aa4:	1d050118 	stfnes	f0, [r5, #-96]	; 0xffffffa0
    2aa8:	2b050106 	blcs	142ec8 <__bss_end__+0x1389f8>
    2aac:	06190566 	ldreq	r0, [r9], -r6, ror #10
    2ab0:	1305054d 	movwne	r0, #21837	; 0x554d
    2ab4:	01060c05 	tsteq	r6, r5, lsl #24
    2ab8:	054a0705 	strbeq	r0, [sl, #-1797]	; 0xfffff8fb
    2abc:	04020025 	streq	r0, [r2], #-37	; 0xffffffdb
    2ac0:	1e054a01 	vmlane.f32	s8, s10, s2
    2ac4:	01040200 	mrseq	r0, R12_usr
    2ac8:	0609054a 	streq	r0, [r9], -sl, asr #10
    2acc:	1305054b 	movwne	r0, #21835	; 0x554b
    2ad0:	01060a05 	tsteq	r6, r5, lsl #20
    2ad4:	05631905 	strbeq	r1, [r3, #-2309]!	; 0xfffff6fb
    2ad8:	014c0609 	cmpeq	ip, r9, lsl #12
    2adc:	2e069e06 	cdpcs	14, 0, cr9, cr6, cr6, {0}
    2ae0:	01000a02 	tsteq	r0, r2, lsl #20
    2ae4:	00009e01 	andeq	r9, r0, r1, lsl #28
    2ae8:	5a000300 	bpl	36f0 <__code_start__-0x4910>
    2aec:	02000000 	andeq	r0, r0, #0, 0
    2af0:	0d0efb01 	vstreq	d15, [lr, #-4]
    2af4:	01010100 	mrseq	r0, (UNDEF: 17)
    2af8:	00000001 	andeq	r0, r0, r1
    2afc:	01000001 	tsteq	r0, r1
    2b00:	696c2f2e 	stmdbvs	ip!, {r1, r2, r3, r5, r8, r9, sl, fp, sp}^
    2b04:	2f006362 	svccs	0x00006362
    2b08:	72657355 	rsbvc	r7, r5, #1409286145	; 0x54000001
    2b0c:	696d2f73 	stmdbvs	sp!, {r0, r1, r4, r5, r6, r8, r9, sl, fp, sp}^
    2b10:	2f73656c 	svccs	0x0073656c
    2b14:	72756f53 	rsbsvc	r6, r5, #332	; 0x14c
    2b18:	632f6563 			; <UNDEFINED> instruction: 0x632f6563
    2b1c:	30343273 	eorscc	r3, r4, r3, ror r2
    2b20:	6c2f786c 	stcvs	8, cr7, [pc], #-432	; 2978 <__code_start__-0x5688>
    2b24:	69706269 	ldmdbvs	r0!, {r0, r3, r5, r6, r9, sp, lr}^
    2b28:	636e692f 	cmnvs	lr, #770048	; 0xbc000
    2b2c:	6564756c 	strbvs	r7, [r4, #-1388]!	; 0xfffffa94
    2b30:	75700000 	ldrbvc	r0, [r0, #-0]!
    2b34:	61686374 	smcvs	34356	; 0x8634
    2b38:	00632e72 	rsbeq	r2, r3, r2, ror lr
    2b3c:	72000001 	andvc	r0, r0, #1, 0
    2b40:	682e6970 	stmdavs	lr!, {r4, r5, r6, r8, fp, sp, lr}
    2b44:	00000200 	andeq	r0, r0, r0, lsl #4
    2b48:	00240500 	eoreq	r0, r4, r0, lsl #10
    2b4c:	9c0c0205 	sfmls	f0, 4, [ip], {5}
    2b50:	05140000 	ldreq	r0, [r4, #-0]
    2b54:	24050126 	strcs	r0, [r5], #-294	; 0xfffffeda
    2b58:	052e0106 	streq	r0, [lr, #-262]!	; 0xfffffefa
    2b5c:	34052e26 	strcc	r2, [r5], #-3622	; 0xfffff1da
    2b60:	01052e06 	tsteq	r5, r6, lsl #28
    2b64:	1b050106 	blne	142f84 <__bss_end__+0x138ab4>
    2b68:	05054f06 	streq	r4, [r5, #-3846]	; 0xfffff0fa
    2b6c:	06110513 			; <UNDEFINED> instruction: 0x06110513
    2b70:	67010501 	strvs	r0, [r1, -r1, lsl #10]
    2b74:	67062305 	strvs	r2, [r6, -r5, lsl #6]
    2b78:	05130505 	ldreq	r0, [r3, #-1285]	; 0xfffffafb
    2b7c:	05010611 	streq	r0, [r1, #-1553]	; 0xfffff9ef
    2b80:	04024b01 	streq	r4, [r2], #-2817	; 0xfffff4ff
    2b84:	e2010100 	and	r0, r1, #0
    2b88:	03000000 	movweq	r0, #0
    2b8c:	00005900 	andeq	r5, r0, r0, lsl #18
    2b90:	fb010200 	blx	4339a <__bss_end__+0x38eca>
    2b94:	01000d0e 	tsteq	r0, lr, lsl #26
    2b98:	00010101 	andeq	r0, r1, r1, lsl #2
    2b9c:	00010000 	andeq	r0, r1, r0
    2ba0:	2f2e0100 	svccs	0x002e0100
    2ba4:	6362696c 	cmnvs	r2, #108, 18	; 0x1b0000
    2ba8:	73552f00 	cmpvc	r5, #0, 30
    2bac:	2f737265 	svccs	0x00737265
    2bb0:	656c696d 	strbvs	r6, [ip, #-2413]!	; 0xfffff693
    2bb4:	6f532f73 	svcvs	0x00532f73
    2bb8:	65637275 	strbvs	r7, [r3, #-629]!	; 0xfffffd8b
    2bbc:	3273632f 	rsbscc	r6, r3, #-1140850688	; 0xbc000000
    2bc0:	786c3034 	stmdavc	ip!, {r2, r4, r5, ip, sp}^
    2bc4:	62696c2f 	rsbvs	r6, r9, #12032	; 0x2f00
    2bc8:	692f6970 	stmdbvs	pc!, {r4, r5, r6, r8, fp, sp, lr}	; <UNPREDICTABLE>
    2bcc:	756c636e 	strbvc	r6, [ip, #-878]!	; 0xfffffc92
    2bd0:	00006564 	andeq	r6, r0, r4, ror #10
    2bd4:	63727473 	cmnvs	r2, #1929379840	; 0x73000000
    2bd8:	632e7461 			; <UNDEFINED> instruction: 0x632e7461
    2bdc:	00000100 	andeq	r0, r0, r0, lsl #2
    2be0:	2e697072 	mcrcs	0, 3, r7, cr9, cr2, {3}
    2be4:	00020068 	andeq	r0, r2, r8, rrx
    2be8:	2c050000 	stccs	0, cr0, [r5], {-0}
    2bec:	48020500 	stmdami	r2, {r8, sl}
    2bf0:	1500009c 	strne	r0, [r0, #-156]	; 0xffffff64
    2bf4:	13130505 	tstne	r3, #20971520	; 0x1400000
    2bf8:	11060b05 	tstne	r6, r5, lsl #22
    2bfc:	02000505 	andeq	r0, r0, #20971520	; 0x1400000
    2c00:	30060104 	andcc	r0, r6, r4, lsl #2
    2c04:	01040200 	mrseq	r0, R12_usr
    2c08:	00090515 	andeq	r0, r9, r5, lsl r5
    2c0c:	13010402 	movwne	r0, #5122	; 0x1402
    2c10:	02000b05 	andeq	r0, r0, #5120	; 0x1400
    2c14:	052f0104 	streq	r0, [pc, #-260]!	; 2b18 <__code_start__-0x54e8>
    2c18:	04020005 	streq	r0, [r2], #-5
    2c1c:	00010601 	andeq	r0, r1, r1, lsl #12
    2c20:	2e010402 	cdpcs	4, 0, cr0, cr1, cr2, {0}
    2c24:	08054e06 	stmdaeq	r5, {r1, r2, r9, sl, fp, lr}
    2c28:	05050106 	streq	r0, [r5, #-262]	; 0xfffffefa
    2c2c:	01040200 	mrseq	r0, R12_usr
    2c30:	09052f06 	stmdbeq	r5, {r1, r2, r8, r9, sl, fp, sp}
    2c34:	01040200 	mrseq	r0, R12_usr
    2c38:	000b0513 	andeq	r0, fp, r3, lsl r5
    2c3c:	06010402 	streq	r0, [r1], -r2, lsl #8
    2c40:	00090501 	andeq	r0, r9, r1, lsl #10
    2c44:	06010402 	streq	r0, [r1], -r2, lsl #8
    2c48:	0005052f 	andeq	r0, r5, pc, lsr #10
    2c4c:	06010402 	streq	r0, [r1], -r2, lsl #8
    2c50:	000f0513 	andeq	r0, pc, r3, lsl r5	; <UNPREDICTABLE>
    2c54:	2d010402 	cfstrscs	mvf0, [r1, #-8]
    2c58:	02000d05 	andeq	r0, r0, #320	; 0x140
    2c5c:	2f060104 	svccs	0x00060104
    2c60:	02000505 	andeq	r0, r0, #20971520	; 0x1400000
    2c64:	01060104 	tsteq	r6, r4, lsl #2
    2c68:	01000402 	tsteq	r0, r2, lsl #8
    2c6c:	0000b201 	andeq	fp, r0, r1, lsl #4
    2c70:	59000300 	stmdbpl	r0, {r8, r9}
    2c74:	02000000 	andeq	r0, r0, #0, 0
    2c78:	0d0efb01 	vstreq	d15, [lr, #-4]
    2c7c:	01010100 	mrseq	r0, (UNDEF: 17)
    2c80:	00000001 	andeq	r0, r0, r1
    2c84:	01000001 	tsteq	r0, r1
    2c88:	696c2f2e 	stmdbvs	ip!, {r1, r2, r3, r5, r8, r9, sl, fp, sp}^
    2c8c:	2f006362 	svccs	0x00006362
    2c90:	72657355 	rsbvc	r7, r5, #1409286145	; 0x54000001
    2c94:	696d2f73 	stmdbvs	sp!, {r0, r1, r4, r5, r6, r8, r9, sl, fp, sp}^
    2c98:	2f73656c 	svccs	0x0073656c
    2c9c:	72756f53 	rsbsvc	r6, r5, #332	; 0x14c
    2ca0:	632f6563 			; <UNDEFINED> instruction: 0x632f6563
    2ca4:	30343273 	eorscc	r3, r4, r3, ror r2
    2ca8:	6c2f786c 	stcvs	8, cr7, [pc], #-432	; 2b00 <__code_start__-0x5500>
    2cac:	69706269 	ldmdbvs	r0!, {r0, r3, r5, r6, r9, sp, lr}^
    2cb0:	636e692f 	cmnvs	lr, #770048	; 0xbc000
    2cb4:	6564756c 	strbvs	r7, [r4, #-1388]!	; 0xfffffa94
    2cb8:	74730000 	ldrbtvc	r0, [r3], #-0
    2cbc:	706d6372 	rsbvc	r6, sp, r2, ror r3
    2cc0:	0100632e 	tsteq	r0, lr, lsr #6
    2cc4:	70720000 	rsbsvc	r0, r2, r0
    2cc8:	00682e69 	rsbeq	r2, r8, r9, ror #28
    2ccc:	00000002 	andeq	r0, r0, r2
    2cd0:	05002a05 	streq	r2, [r0, #-2565]	; 0xfffff5fb
    2cd4:	009c7402 	addseq	r7, ip, r2, lsl #8
    2cd8:	09051400 	stmdbeq	r5, {sl, ip}
    2cdc:	06100513 			; <UNDEFINED> instruction: 0x06100513
    2ce0:	060f0501 	streq	r0, [pc], -r1, lsl #10
    2ce4:	0610052e 	ldreq	r0, [r0], -lr, lsr #10
    2ce8:	2e0f0582 	cfsh32cs	mvfx0, mvfx15, #-62
    2cec:	02001105 	andeq	r1, r0, #1073741825	; 0x40000001
    2cf0:	4b060104 	blmi	183108 <__bss_end__+0x178c38>
    2cf4:	02001c05 	andeq	r1, r0, #1280	; 0x500
    2cf8:	2d060104 	stfcss	f0, [r6, #-16]
    2cfc:	02000f05 	andeq	r0, r0, #5, 30
    2d00:	2e060104 	adfcss	f0, f6, f4
    2d04:	02001305 	andeq	r1, r0, #335544320	; 0x14000000
    2d08:	01060104 	tsteq	r6, r4, lsl #2
    2d0c:	4c060905 			; <UNDEFINED> instruction: 0x4c060905
    2d10:	13060105 	movwne	r0, #24837	; 0x6105
    2d14:	0609054a 	streq	r0, [r9], -sl, asr #10
    2d18:	0601052d 	streq	r0, [r1], -sp, lsr #10
    2d1c:	02022e13 	andeq	r2, r2, #304	; 0x130
    2d20:	9d010100 	stflss	f0, [r1, #-0]
    2d24:	03000000 	movweq	r0, #0
    2d28:	00005900 	andeq	r5, r0, r0, lsl #18
    2d2c:	fb010200 	blx	43536 <__bss_end__+0x39066>
    2d30:	01000d0e 	tsteq	r0, lr, lsl #26
    2d34:	00010101 	andeq	r0, r1, r1, lsl #2
    2d38:	00010000 	andeq	r0, r1, r0
    2d3c:	2f2e0100 	svccs	0x002e0100
    2d40:	6362696c 	cmnvs	r2, #108, 18	; 0x1b0000
    2d44:	73552f00 	cmpvc	r5, #0, 30
    2d48:	2f737265 	svccs	0x00737265
    2d4c:	656c696d 	strbvs	r6, [ip, #-2413]!	; 0xfffff693
    2d50:	6f532f73 	svcvs	0x00532f73
    2d54:	65637275 	strbvs	r7, [r3, #-629]!	; 0xfffffd8b
    2d58:	3273632f 	rsbscc	r6, r3, #-1140850688	; 0xbc000000
    2d5c:	786c3034 	stmdavc	ip!, {r2, r4, r5, ip, sp}^
    2d60:	62696c2f 	rsbvs	r6, r9, #12032	; 0x2f00
    2d64:	692f6970 	stmdbvs	pc!, {r4, r5, r6, r8, fp, sp, lr}	; <UNPREDICTABLE>
    2d68:	756c636e 	strbvc	r6, [ip, #-878]!	; 0xfffffc92
    2d6c:	00006564 	andeq	r6, r0, r4, ror #10
    2d70:	63727473 	cmnvs	r2, #1929379840	; 0x73000000
    2d74:	632e7970 			; <UNDEFINED> instruction: 0x632e7970
    2d78:	00000100 	andeq	r0, r0, r0, lsl #2
    2d7c:	2e697072 	mcrcs	0, 3, r7, cr9, cr2, {3}
    2d80:	00020068 	andeq	r0, r2, r8, rrx
    2d84:	2a050000 	bcs	142d8c <__bss_end__+0x1388bc>
    2d88:	b8020500 	stmdalt	r2, {r8, sl}
    2d8c:	1400009c 	strne	r0, [r0], #-156	; 0xffffff64
    2d90:	13130505 	tstne	r3, #20971520	; 0x1400000
    2d94:	02002205 	andeq	r2, r0, #1342177280	; 0x50000000
    2d98:	052e0104 	streq	r0, [lr, #-260]!	; 0xfffffefc
    2d9c:	0402000b 	streq	r0, [r2], #-11
    2da0:	15050101 	strne	r0, [r5, #-257]	; 0xfffffeff
    2da4:	01040200 	mrseq	r0, R12_usr
    2da8:	0b050106 	bleq	1431c8 <__bss_end__+0x138cf8>
    2dac:	01040200 	mrseq	r0, R12_usr
    2db0:	0013052e 	andseq	r0, r3, lr, lsr #10
    2db4:	2e010402 	cdpcs	4, 0, cr0, cr1, cr2, {0}
    2db8:	02000b05 	andeq	r0, r0, #5120	; 0x1400
    2dbc:	022e0104 	eoreq	r0, lr, #1
    2dc0:	01010004 	tsteq	r1, r4
    2dc4:	000000fd 	strdeq	r0, [r0], -sp
    2dc8:	00bf0003 	adcseq	r0, pc, r3
    2dcc:	01020000 	mrseq	r0, (UNDEF: 2)
    2dd0:	000d0efb 	strdeq	r0, [sp], -fp
    2dd4:	01010101 	tsteq	r1, r1, lsl #2
    2dd8:	01000000 	mrseq	r0, (UNDEF: 0)
    2ddc:	2e010000 	cdpcs	0, 0, cr0, cr1, cr0, {0}
    2de0:	62696c2f 	rsbvs	r6, r9, #12032	; 0x2f00
    2de4:	552f0063 	strpl	r0, [pc, #-99]!	; 2d89 <__code_start__-0x5277>
    2de8:	73726573 	cmnvc	r2, #482344960	; 0x1cc00000
    2dec:	6c696d2f 	stclvs	13, cr6, [r9], #-188	; 0xffffff44
    2df0:	532f7365 			; <UNDEFINED> instruction: 0x532f7365
    2df4:	6372756f 	cmnvs	r2, #465567744	; 0x1bc00000
    2df8:	73632f65 	cmnvc	r3, #404	; 0x194
    2dfc:	6c303432 	cfldrsvs	mvf3, [r0], #-200	; 0xffffff38
    2e00:	696c2f78 	stmdbvs	ip!, {r3, r4, r5, r6, r8, r9, sl, fp, sp}^
    2e04:	2f697062 	svccs	0x00697062
    2e08:	6c636e69 	stclvs	14, cr6, [r3], #-420	; 0xfffffe5c
    2e0c:	00656475 	rsbeq	r6, r5, r5, ror r4
    2e10:	74706f2f 	ldrbtvc	r6, [r0], #-3887	; 0xfffff0d1
    2e14:	6d6f682f 	stclvs	8, cr6, [pc, #-188]!	; 2d60 <__code_start__-0x52a0>
    2e18:	65726265 	ldrbvs	r6, [r2, #-613]!	; 0xfffffd9b
    2e1c:	65432f77 	strbvs	r2, [r3, #-3959]	; 0xfffff089
    2e20:	72616c6c 	rsbvc	r6, r1, #108, 24	; 0x6c00
    2e24:	6d72612f 	ldfvse	f6, [r2, #-188]!	; 0xffffff44
    2e28:	6e6f6e2d 	cdpvs	14, 6, cr6, cr15, cr13, {1}
    2e2c:	61652d65 	cmnvs	r5, r5, ror #26
    2e30:	392d6962 	pushcc	{r1, r5, r6, r8, fp, sp, lr}
    2e34:	322d392f 	eorcc	r3, sp, #770048	; 0xbc000
    2e38:	71393130 	teqvc	r9, r0, lsr r1
    2e3c:	73632d34 	cmnvc	r3, #52, 26	; 0xd00
    2e40:	65373031 	ldrvs	r3, [r7, #-49]!	; 0xffffffcf
    2e44:	62696c2f 	rsbvs	r6, r9, #12032	; 0x2f00
    2e48:	6363672f 	cmnvs	r3, #12320768	; 0xbc0000
    2e4c:	6d72612f 	ldfvse	f6, [r2, #-188]!	; 0xffffff44
    2e50:	6e6f6e2d 	cdpvs	14, 6, cr6, cr15, cr13, {1}
    2e54:	61652d65 	cmnvs	r5, r5, ror #26
    2e58:	392f6962 	stmdbcc	pc!, {r1, r5, r6, r8, fp, sp, lr}	; <UNPREDICTABLE>
    2e5c:	312e322e 			; <UNDEFINED> instruction: 0x312e322e
    2e60:	636e692f 	cmnvs	lr, #770048	; 0xbc000
    2e64:	6564756c 	strbvs	r7, [r4, #-1388]!	; 0xfffffa94
    2e68:	74730000 	ldrbtvc	r0, [r3], #-0
    2e6c:	6d636e72 	stclvs	14, cr6, [r3, #-456]!	; 0xfffffe38
    2e70:	00632e70 	rsbeq	r2, r3, r0, ror lr
    2e74:	72000001 	andvc	r0, r0, #1, 0
    2e78:	682e6970 	stmdavs	lr!, {r4, r5, r6, r8, fp, sp, lr}
    2e7c:	00000200 	andeq	r0, r0, r0, lsl #4
    2e80:	64647473 	strbtvs	r7, [r4], #-1139	; 0xfffffb8d
    2e84:	682e6665 	stmdavs	lr!, {r0, r2, r5, r6, r9, sl, sp, lr}
    2e88:	00000300 	andeq	r0, r0, r0, lsl #6
    2e8c:	00390500 	eorseq	r0, r9, r0, lsl #10
    2e90:	9cd00205 	lfmls	f0, 2, [r0], {5}
    2e94:	05150000 	ldreq	r0, [r5, #-0]
    2e98:	05131305 	ldreq	r1, [r3, #-773]	; 0xfffffcfb
    2e9c:	052e060a 	streq	r0, [lr, #-1546]!	; 0xfffff9f6
    2ea0:	13052f0c 	movwne	r2, #24332	; 0x5f0c
    2ea4:	2e0b052e 	cfsh32cs	mvfx0, mvfx11, #30
    2ea8:	4a060905 	bmi	1852c4 <__bss_end__+0x17adf4>
    2eac:	06110a05 	ldreq	r0, [r1], -r5, lsl #20
    2eb0:	4e0c0501 	cfsh32mi	mvfx0, mvfx12, #1
    2eb4:	052f0105 	streq	r0, [pc, #-261]!	; 2db7 <__code_start__-0x5249>
    2eb8:	052b060d 	streq	r0, [fp, #-1549]!	; 0xfffff9f3
    2ebc:	2e01061b 	mcrcs	6, 0, r0, cr1, cr11, {0}
    2ec0:	01000202 	tsteq	r0, r2, lsl #4
    2ec4:	00008a01 	andeq	r8, r0, r1, lsl #20
    2ec8:	6e000300 	cdpvs	3, 0, cr0, cr0, cr0, {0}
    2ecc:	02000000 	andeq	r0, r0, #0, 0
    2ed0:	0d0efb01 	vstreq	d15, [lr, #-4]
    2ed4:	01010100 	mrseq	r0, (UNDEF: 17)
    2ed8:	00000001 	andeq	r0, r0, r1
    2edc:	01000001 	tsteq	r0, r1
    2ee0:	74732f2e 	ldrbtvc	r2, [r3], #-3886	; 0xfffff0d2
    2ee4:	2d666661 	stclcs	6, cr6, [r6, #-388]!	; 0xfffffe7c
    2ee8:	00637273 	rsbeq	r7, r3, r3, ror r2
    2eec:	6573552f 	ldrbvs	r5, [r3, #-1327]!	; 0xfffffad1
    2ef0:	6d2f7372 	stcvs	3, cr7, [pc, #-456]!	; 2d30 <__code_start__-0x52d0>
    2ef4:	73656c69 	cmnvc	r5, #26880	; 0x6900
    2ef8:	756f532f 	strbvc	r5, [pc, #-815]!	; 2bd1 <__code_start__-0x542f>
    2efc:	2f656372 	svccs	0x00656372
    2f00:	34327363 	ldrtcc	r7, [r2], #-867	; 0xfffffc9d
    2f04:	2f786c30 	svccs	0x00786c30
    2f08:	7062696c 	rsbvc	r6, r2, ip, ror #18
    2f0c:	6e692f69 	cdpvs	15, 6, cr2, cr9, cr9, {3}
    2f10:	64756c63 	ldrbtvs	r6, [r5], #-3171	; 0xfffff39d
    2f14:	64000065 	strvs	r0, [r0], #-101	; 0xffffff9b
    2f18:	75616665 	strbvc	r6, [r1, #-1637]!	; 0xfffff99b
    2f1c:	722d746c 	eorvc	r7, sp, #108, 8	; 0x6c000000
    2f20:	6f6f6265 	svcvs	0x006f6265
    2f24:	61632d74 	smcvs	13012	; 0x32d4
    2f28:	756f6c6c 	strbvc	r6, [pc, #-3180]!	; 22c4 <__code_start__-0x5d3c>
    2f2c:	00632e74 	rsbeq	r2, r3, r4, ror lr
    2f30:	72000001 	andvc	r0, r0, #1, 0
    2f34:	682e6970 	stmdavs	lr!, {r4, r5, r6, r8, fp, sp, lr}
    2f38:	00000200 	andeq	r0, r0, r0, lsl #4
    2f3c:	001b0500 	andseq	r0, fp, r0, lsl #10
    2f40:	9d000205 	sfmls	f0, 4, [r0, #-20]	; 0xffffffec
    2f44:	05140000 	ldreq	r0, [r4, #-0]
    2f48:	0105011c 	tsteq	r5, ip, lsl r1
    2f4c:	02020106 	andeq	r0, r2, #-2147483647	; 0x80000001
    2f50:	Address 0x0000000000002f50 is out of bounds.


Disassembly of section .debug_str:

00000000 <.debug_str>:
   0:	5f6f656e 	svcpl	0x006f656e
   4:	646e6168 	strbtvs	r6, [lr], #-360	; 0xfffffe98
   8:	6700656c 	strvs	r6, [r0, -ip, ror #10]
   c:	5f6f6970 	svcpl	0x006f6970
  10:	30726c63 	rsbscc	r6, r2, r3, ror #24
  14:	69706700 	ldmdbvs	r0!, {r8, r9, sl, sp, lr}^
  18:	65735f6f 	ldrbvs	r5, [r3, #-3951]!	; 0xfffff091
  1c:	70003074 	andvc	r3, r0, r4, ror r0
  20:	705f7869 	subsvc	r7, pc, r9, ror #16
  24:	63006e69 	movwvs	r6, #3689	; 0xe69
  28:	65706d6f 	ldrbvs	r6, [r0, #-3439]!	; 0xfffff291
  2c:	7461736e 	strbtvc	r7, [r1], #-878	; 0xfffffc92
  30:	006e6f69 	rsbeq	r6, lr, r9, ror #30
  34:	706f656e 	rsbvc	r6, pc, lr, ror #10
  38:	775f7869 	ldrbvc	r7, [pc, -r9, ror #16]
  3c:	65746972 	ldrbvs	r6, [r4, #-2418]!	; 0xfffff68e
  40:	746f6e00 	strbtvc	r6, [pc], #-3584	; 48 <__code_start__-0x7fb8>
  44:	6e69616d 	powvsez	f6, f1, #5.0
  48:	69706e00 	ldmdbvs	r0!, {r9, sl, fp, sp, lr}^
  4c:	736c6578 	cmnvc	ip, #120, 10	; 0x1e000000
  50:	6f656e00 	svcvs	0x00656e00
  54:	5f786970 	svcpl	0x00786970
  58:	74696e69 	strbtvc	r6, [r9], #-3689	; 0xfffff197
  5c:	73552f00 	cmpvc	r5, #0, 30
  60:	2f737265 	svccs	0x00737265
  64:	656c696d 	strbvs	r6, [ip, #-2413]!	; 0xfffff693
  68:	6f532f73 	svcvs	0x00532f73
  6c:	65637275 	strbvs	r7, [r3, #-629]!	; 0xfffffd8b
  70:	3273632f 	rsbscc	r6, r3, #-1140850688	; 0xbc000000
  74:	786c3034 	stmdavc	ip!, {r2, r4, r5, ip, sp}^
  78:	62616c2f 	rsbvs	r6, r1, #12032	; 0x2f00
  7c:	2d342f73 	ldccs	15, cr2, [r4, #-460]!	; 0xfffffe34
  80:	38327377 	ldmdacc	r2!, {r0, r1, r2, r4, r5, r6, r8, r9, ip, sp, lr}
  84:	2f623231 	svccs	0x00623231
  88:	65646f63 	strbvs	r6, [r4, #-3939]!	; 0xfffff09d
  8c:	736e7500 	cmnvc	lr, #0, 10
  90:	656e6769 	strbvs	r6, [lr, #-1897]!	; 0xfffff897
  94:	68632064 	stmdavs	r3!, {r2, r5, r6, sp}^
  98:	64007261 	strvs	r7, [r0], #-609	; 0xfffffd9f
  9c:	79616c65 	stmdbvc	r1!, {r0, r2, r5, r6, sl, fp, sp, lr}^
  a0:	00736d5f 	rsbseq	r6, r3, pc, asr sp
  a4:	726f6873 	rsbvc	r6, pc, #7536640	; 0x730000
  a8:	6e752074 	mrcvs	0, 3, r2, cr5, cr4, {3}
  ac:	6e676973 			; <UNDEFINED> instruction: 0x6e676973
  b0:	69206465 	stmdbvs	r0!, {r0, r2, r5, r6, sl, sp, lr}
  b4:	6e00746e 	cdpvs	4, 0, cr7, cr0, cr14, {3}
  b8:	69706f65 	ldmdbvs	r0!, {r0, r2, r5, r6, r8, r9, sl, fp, sp, lr}^
  bc:	6c665f78 	stclvs	15, cr5, [r6], #-480	; 0xfffffe20
  c0:	00687375 	rsbeq	r7, r8, r5, ror r3
  c4:	6f697067 	svcvs	0x00697067
  c8:	7465735f 	strbtvc	r7, [r5], #-863	; 0xfffffca1
  cc:	74756f5f 	ldrbtvc	r6, [r5], #-3935	; 0xfffff0a1
  d0:	00747570 	rsbseq	r7, r4, r0, ror r5
  d4:	20554e47 	subscs	r4, r5, r7, asr #28
  d8:	20393943 	eorscs	r3, r9, r3, asr #18
  dc:	2e322e39 	mrccs	14, 1, r2, cr2, cr9, {1}
  e0:	30322031 	eorscc	r2, r2, r1, lsr r0
  e4:	30313931 	eorscc	r3, r1, r1, lsr r9
  e8:	28203532 	stmdacs	r0!, {r1, r4, r5, r8, sl, ip, sp}
  ec:	656c6572 	strbvs	r6, [ip, #-1394]!	; 0xfffffa8e
  f0:	29657361 	stmdbcs	r5!, {r0, r5, r6, r8, r9, ip, sp, lr}^
  f4:	52415b20 	subpl	r5, r1, #32, 22	; 0x8000
  f8:	72612f4d 	rsbvc	r2, r1, #308	; 0x134
  fc:	2d392d6d 	ldccs	13, cr2, [r9, #-436]!	; 0xfffffe4c
 100:	6e617262 	cdpvs	2, 6, cr7, cr1, cr2, {3}
 104:	72206863 	eorvc	r6, r0, #6488064	; 0x630000
 108:	73697665 	cmnvc	r9, #105906176	; 0x6500000
 10c:	206e6f69 	rsbcs	r6, lr, r9, ror #30
 110:	35373732 	ldrcc	r3, [r7, #-1842]!	; 0xfffff8ce
 114:	205d3939 	subscs	r3, sp, r9, lsr r9
 118:	70636d2d 	rsbvc	r6, r3, sp, lsr #26
 11c:	72613d75 	rsbvc	r3, r1, #7488	; 0x1d40
 120:	3731316d 	ldrcc	r3, [r1, -sp, ror #2]!
 124:	667a6a36 			; <UNDEFINED> instruction: 0x667a6a36
 128:	2d20732d 	stccs	3, cr7, [r0, #-180]!	; 0xffffff4c
 12c:	6e75746d 	cdpvs	4, 7, cr7, cr5, cr13, {3}
 130:	72613d65 	rsbvc	r3, r1, #6464	; 0x1940
 134:	3731316d 	ldrcc	r3, [r1, -sp, ror #2]!
 138:	667a6a36 			; <UNDEFINED> instruction: 0x667a6a36
 13c:	2d20732d 	stccs	3, cr7, [r0, #-180]!	; 0xffffff4c
 140:	6f6c666d 	svcvs	0x006c666d
 144:	612d7461 			; <UNDEFINED> instruction: 0x612d7461
 148:	733d6962 	teqvc	sp, #1605632	; 0x188000
 14c:	2074666f 	rsbscs	r6, r4, pc, ror #12
 150:	72616d2d 	rsbvc	r6, r1, #2880	; 0xb40
 154:	6d2d206d 	stcvs	0, cr2, [sp, #-436]!	; 0xfffffe4c
 158:	68637261 	stmdavs	r3!, {r0, r5, r6, r9, ip, sp, lr}^
 15c:	6d72613d 	ldfvse	f6, [r2, #-244]!	; 0xffffff0c
 160:	7a6b3676 	bvc	1acdb40 <__bss_end__+0x1ac3670>
 164:	67672d20 	strbvs	r2, [r7, -r0, lsr #26]!
 168:	2d206264 	sfmcs	f6, 4, [r0, #-400]!	; 0xfffffe70
 16c:	2d20334f 	stccs	3, cr3, [r0, #-316]!	; 0xfffffec4
 170:	3d647473 	cfstrdcc	mvd7, [r4, #-460]!	; 0xfffffe34
 174:	39756e67 	ldmdbcc	r5!, {r0, r1, r2, r5, r6, r9, sl, fp, sp, lr}^
 178:	662d2039 			; <UNDEFINED> instruction: 0x662d2039
 17c:	65657266 	strbvs	r7, [r5, #-614]!	; 0xfffffd9a
 180:	6e617473 	mcrvs	4, 3, r7, cr1, cr3, {3}
 184:	676e6964 	strbvs	r6, [lr, -r4, ror #18]!
 188:	632d3300 			; <UNDEFINED> instruction: 0x632d3300
 18c:	6c637269 	sfmvs	f7, 2, [r3], #-420	; 0xfffffe5c
 190:	00632e65 	rsbeq	r2, r3, r5, ror #28
 194:	676e6f6c 	strbvs	r6, [lr, -ip, ror #30]!
 198:	6e6f6c20 	cdpvs	12, 6, cr6, cr15, cr0, {1}
 19c:	6e752067 	cdpvs	0, 7, cr2, cr5, cr7, {3}
 1a0:	6e676973 			; <UNDEFINED> instruction: 0x6e676973
 1a4:	69206465 	stmdbvs	r0!, {r0, r2, r5, r6, sl, sp, lr}
 1a8:	6700746e 	strvs	r7, [r0, -lr, ror #8]
 1ac:	5f6f6970 	svcpl	0x006f6970
 1b0:	3076656c 	rsbscc	r6, r6, ip, ror #10
 1b4:	6f656e00 	svcvs	0x00656e00
 1b8:	6c00745f 	cfstrsvs	mvf7, [r0], {95}	; 0x5f
 1bc:	20676e6f 	rsbcs	r6, r7, pc, ror #28
 1c0:	676e6f6c 	strbvs	r6, [lr, -ip, ror #30]!
 1c4:	746e6920 	strbtvc	r6, [lr], #-2336	; 0xfffff6e0
 1c8:	69707200 	ldmdbvs	r0!, {r9, ip, sp, lr}^
 1cc:	7475705f 	ldrbtvc	r7, [r5], #-95	; 0xffffffa1
 1d0:	72616863 	rsbvc	r6, r1, #6488064	; 0x630000
 1d4:	6f687300 	svcvs	0x00687300
 1d8:	69207472 	stmdbvs	r0!, {r1, r4, r5, r6, sl, ip, sp, lr}
 1dc:	6500746e 	strvs	r7, [r0, #-1134]	; 0xfffffb92
 1e0:	6c62616e 	stfvse	f6, [r2], #-440	; 0xfffffe48
 1e4:	61635f65 	cmnvs	r3, r5, ror #30
 1e8:	00656863 	rsbeq	r6, r5, r3, ror #16
 1ec:	74697277 	strbtvc	r7, [r9], #-631	; 0xfffffd89
 1f0:	00305f65 	eorseq	r5, r0, r5, ror #30
 1f4:	74697277 	strbtvc	r7, [r9], #-631	; 0xfffffd89
 1f8:	00315f65 	eorseq	r5, r1, r5, ror #30
 1fc:	5f6f656e 	svcpl	0x006f656e
 200:	65786970 	ldrbvs	r6, [r8, #-2416]!	; 0xfffff690
 204:	6f5f006c 	svcvs	0x005f006c
 208:	75007475 	strvc	r7, [r0, #-1141]	; 0xfffffb8b
 20c:	38746e69 	ldmdacc	r4!, {r0, r3, r5, r6, r9, sl, fp, sp, lr}^
 210:	7400745f 	strvc	r7, [r0], #-1119	; 0xfffffba1
 214:	65736572 	ldrbvs	r6, [r3, #-1394]!	; 0xfffffa8e
 218:	656e0074 	strbvs	r0, [lr, #-116]!	; 0xffffff8c
 21c:	7869706f 	stmdavc	r9!, {r0, r1, r2, r3, r5, r6, ip, sp, lr}^
 220:	656c635f 	strbvs	r6, [ip, #-863]!	; 0xfffffca1
 224:	70007261 	andvc	r7, r0, r1, ror #4
 228:	735f7869 	cmpvc	pc, #6881280	; 0x690000
 22c:	62646e65 	rsbvs	r6, r4, #1616	; 0x650
 230:	64007469 	strvs	r7, [r0], #-1129	; 0xfffffb97
 234:	79616c65 	stmdbvc	r1!, {r0, r2, r5, r6, sl, fp, sp, lr}^
 238:	79636e5f 	stmdbvc	r3!, {r0, r1, r2, r3, r4, r6, r9, sl, fp, sp, lr}^
 23c:	73656c63 	cmnvc	r5, #25344	; 0x6300
 240:	6d656d00 	stclvs	13, cr6, [r5, #-0]
 244:	00746573 	rsbseq	r6, r4, r3, ror r5
 248:	79635f6e 	stmdbvc	r3!, {r1, r2, r3, r5, r6, r8, r9, sl, fp, ip, lr}^
 24c:	69700063 	ldmdbvs	r0!, {r0, r1, r5, r6}^
 250:	65735f78 	ldrbvs	r5, [r3, #-3960]!	; 0xfffff088
 254:	7962646e 	stmdbvc	r2!, {r1, r2, r3, r5, r6, sl, sp, lr}^
 258:	73006574 	movwvc	r6, #1396	; 0x574
 25c:	74726174 	ldrbtvc	r6, [r2], #-372	; 0xfffffe8c
 260:	6379635f 	cmnvs	r9, #2080374785	; 0x7c000001
 264:	6e697500 	cdpvs	5, 6, cr7, cr9, cr0, {0}
 268:	5f323374 	svcpl	0x00323374
 26c:	706e0074 	rsbvc	r0, lr, r4, ror r0
 270:	6c657869 	stclvs	8, cr7, [r5], #-420	; 0xfffffe5c
 274:	6f656e00 	svcvs	0x00656e00
 278:	5f786970 	svcpl	0x00786970
 27c:	74736166 	ldrbtvc	r6, [r3], #-358	; 0xfffffe9a
 280:	656c635f 	strbvs	r6, [ip, #-863]!	; 0xfffffca1
 284:	6e007261 	cdpvs	2, 0, cr7, cr0, cr1, {3}
 288:	69706f65 	ldmdbvs	r0!, {r0, r2, r5, r6, r8, r9, sl, fp, sp, lr}^
 28c:	2e6c6578 	mcrcs	5, 3, r6, cr12, cr8, {3}
 290:	70670063 	rsbvc	r0, r7, r3, rrx
 294:	735f6f69 	cmpvc	pc, #420	; 0x1a4
 298:	6f5f7465 	svcvs	0x005f7465
 29c:	61725f6e 	cmnvs	r2, lr, ror #30
 2a0:	6d6b0077 	stclvs	0, cr0, [fp, #-476]!	; 0xfffffe24
 2a4:	6f6c6c61 	svcvs	0x006c6c61
 2a8:	70670063 	rsbvc	r0, r7, r3, rrx
 2ac:	735f6f69 	cmpvc	pc, #420	; 0x1a4
 2b0:	6f5f7465 	svcvs	0x005f7465
 2b4:	725f6666 	subsvc	r6, pc, #106954752	; 0x6600000
 2b8:	46007761 	strmi	r7, [r0], -r1, ror #14
 2bc:	4853554c 	ldmdami	r3, {r2, r3, r6, r8, sl, ip, lr}^
 2c0:	6f656e00 	svcvs	0x00656e00
 2c4:	5f786970 	svcpl	0x00786970
 2c8:	646e6573 	strbtvs	r6, [lr], #-1395	; 0xfffffa8d
 2cc:	65786970 	ldrbvs	r6, [r8, #-2416]!	; 0xfffff690
 2d0:	7067006c 	rsbvc	r0, r7, ip, rrx
 2d4:	775f6f69 	ldrbvc	r6, [pc, -r9, ror #30]
 2d8:	65746972 	ldrbvs	r6, [r4, #-2418]!	; 0xfffff68e
 2dc:	49504700 	ldmdbmi	r0, {r8, r9, sl, lr}^
 2e0:	55465f4f 	strbpl	r5, [r6, #-3919]	; 0xfffff0b1
 2e4:	4f5f434e 	svcmi	0x005f434e
 2e8:	55505455 	ldrbpl	r5, [r0, #-1109]	; 0xfffffbab
 2ec:	45440054 	strbmi	r0, [r4, #-84]	; 0xffffffac
 2f0:	41565f56 	cmpmi	r6, r6, asr pc
 2f4:	0032334c 	eorseq	r3, r2, ip, asr #6
 2f8:	20554e47 	subscs	r4, r5, r7, asr #28
 2fc:	20393943 	eorscs	r3, r9, r3, asr #18
 300:	322e3131 	eorcc	r3, lr, #1073741836	; 0x4000000c
 304:	3220312e 	eorcc	r3, r0, #-2147483637	; 0x8000000b
 308:	30323230 	eorscc	r3, r2, r0, lsr r2
 30c:	20313131 	eorscs	r3, r1, r1, lsr r1
 310:	70636d2d 	rsbvc	r6, r3, sp, lsr #26
 314:	72613d75 	rsbvc	r3, r1, #7488	; 0x1d40
 318:	3731316d 	ldrcc	r3, [r1, -sp, ror #2]!
 31c:	667a6a36 			; <UNDEFINED> instruction: 0x667a6a36
 320:	2d20732d 	stccs	3, cr7, [r0, #-180]!	; 0xffffff4c
 324:	6e75746d 	cdpvs	4, 7, cr7, cr5, cr13, {3}
 328:	72613d65 	rsbvc	r3, r1, #6464	; 0x1940
 32c:	3731316d 	ldrcc	r3, [r1, -sp, ror #2]!
 330:	667a6a36 			; <UNDEFINED> instruction: 0x667a6a36
 334:	2d20732d 	stccs	3, cr7, [r0, #-180]!	; 0xffffff4c
 338:	6f6c666d 	svcvs	0x006c666d
 33c:	612d7461 			; <UNDEFINED> instruction: 0x612d7461
 340:	733d6962 	teqvc	sp, #1605632	; 0x188000
 344:	2074666f 	rsbscs	r6, r4, pc, ror #12
 348:	72616d2d 	rsbvc	r6, r1, #2880	; 0xb40
 34c:	6d2d206d 	stcvs	0, cr2, [sp, #-436]!	; 0xfffffe4c
 350:	68637261 	stmdavs	r3!, {r0, r5, r6, r9, ip, sp, lr}^
 354:	6d72613d 	ldfvse	f6, [r2, #-244]!	; 0xffffff0c
 358:	7a6b3676 	bvc	1acdd38 <__bss_end__+0x1ac3868>
 35c:	67672d20 	strbvs	r2, [r7, -r0, lsr #26]!
 360:	2d206264 	sfmcs	f6, 4, [r0, #-400]!	; 0xfffffe70
 364:	7361664f 	cmnvc	r1, #82837504	; 0x4f00000
 368:	732d2074 			; <UNDEFINED> instruction: 0x732d2074
 36c:	673d6474 			; <UNDEFINED> instruction: 0x673d6474
 370:	3939756e 	ldmdbcc	r9!, {r1, r2, r3, r5, r6, r8, sl, ip, sp, lr}
 374:	66662d20 	strbtvs	r2, [r6], -r0, lsr #26
 378:	73656572 	cmnvc	r5, #478150656	; 0x1c800000
 37c:	646e6174 	strbtvs	r6, [lr], #-372	; 0xfffffe8c
 380:	00676e69 	rsbeq	r6, r7, r9, ror #28
 384:	33545550 	cmpcc	r4, #80, 10	; 0x14000000
 388:	70670032 	rsbvc	r0, r7, r2, lsr r0
 38c:	725f6f69 	subsvc	r6, pc, #420	; 0x1a4
 390:	00646165 	rsbeq	r6, r4, r5, ror #2
 394:	33544547 	cmpcc	r4, #297795584	; 0x11c00000
 398:	50470032 	subpl	r0, r7, r2, lsr r0
 39c:	465f4f49 	ldrbmi	r4, [pc], -r9, asr #30
 3a0:	5f434e55 	svcpl	0x00434e55
 3a4:	30544c41 	subscc	r4, r4, r1, asr #24
 3a8:	49504700 	ldmdbmi	r0, {r8, r9, sl, lr}^
 3ac:	55465f4f 	strbpl	r5, [r6, #-3919]	; 0xfffff0b1
 3b0:	415f434e 	cmpmi	pc, lr, asr #6
 3b4:	0031544c 	eorseq	r5, r1, ip, asr #8
 3b8:	4f495047 	svcmi	0x00495047
 3bc:	4e55465f 	mrcmi	6, 2, r4, cr5, cr15, {2}
 3c0:	4c415f43 	mcrrmi	15, 4, r5, r1, cr3
 3c4:	47003254 	smlsdmi	r0, r4, r2, r3
 3c8:	5f4f4950 	svcpl	0x004f4950
 3cc:	434e5546 	movtmi	r5, #58694	; 0xe546
 3d0:	544c415f 	strbpl	r4, [ip], #-351	; 0xfffffea1
 3d4:	50470033 	subpl	r0, r7, r3, lsr r0
 3d8:	465f4f49 	ldrbmi	r4, [pc], -r9, asr #30
 3dc:	5f434e55 	svcpl	0x00434e55
 3e0:	35544c41 	ldrbcc	r4, [r4, #-3137]	; 0xfffff3bf
 3e4:	732f2e00 			; <UNDEFINED> instruction: 0x732f2e00
 3e8:	672f6372 			; <UNDEFINED> instruction: 0x672f6372
 3ec:	2e6f6970 			; <UNDEFINED> instruction: 0x2e6f6970
 3f0:	70670063 	rsbvc	r0, r7, r3, rrx
 3f4:	735f6f69 	cmpvc	pc, #420	; 0x1a4
 3f8:	695f7465 	ldmdbvs	pc, {r0, r2, r5, r6, sl, ip, sp, lr}^	; <UNPREDICTABLE>
 3fc:	7475706e 	ldrbtvc	r7, [r5], #-110	; 0xffffff92
 400:	69706700 	ldmdbvs	r0!, {r8, r9, sl, sp, lr}^
 404:	65735f6f 	ldrbvs	r5, [r3, #-3951]!	; 0xfffff091
 408:	666f5f74 	uqsub16vs	r5, pc, r4	; <UNPREDICTABLE>
 40c:	75660066 	strbvc	r0, [r6, #-102]!	; 0xffffff9a
 410:	6700636e 	strvs	r6, [r0, -lr, ror #6]
 414:	5f6f6970 	svcpl	0x006f6970
 418:	636e7566 	cmnvs	lr, #427819008	; 0x19800000
 41c:	4700745f 	smlsdmi	r0, pc, r4, r7	; <UNPREDICTABLE>
 420:	5f4f4950 	svcpl	0x004f4950
 424:	434e5546 	movtmi	r5, #58694	; 0xe546
 428:	544c415f 	strbpl	r4, [ip], #-351	; 0xfffffea1
 42c:	552f0034 	strpl	r0, [pc, #-52]!	; 400 <__code_start__-0x7c00>
 430:	73726573 	cmnvc	r2, #482344960	; 0x1cc00000
 434:	6c696d2f 	stclvs	13, cr6, [r9], #-188	; 0xffffff44
 438:	532f7365 			; <UNDEFINED> instruction: 0x532f7365
 43c:	6372756f 	cmnvs	r2, #465567744	; 0x1bc00000
 440:	73632f65 	cmnvc	r3, #404	; 0x194
 444:	6c303432 	cfldrsvs	mvf3, [r0], #-200	; 0xffffff38
 448:	696c2f78 	stmdbvs	ip!, {r3, r4, r5, r6, r8, r9, sl, fp, sp}^
 44c:	00697062 	rsbeq	r7, r9, r2, rrx
 450:	6b6e6162 	blvs	1b989e0 <__bss_end__+0x1b8e510>
 454:	49504700 	ldmdbmi	r0, {r8, r9, sl, lr}^
 458:	55465f4f 	strbpl	r5, [r6, #-3919]	; 0xfffff0b1
 45c:	495f434e 	ldmdbmi	pc, {r1, r2, r3, r6, r8, r9, lr}^	; <UNPREDICTABLE>
 460:	5455504e 	ldrbpl	r5, [r5], #-78	; 0xffffffb2
 464:	69706700 	ldmdbvs	r0!, {r8, r9, sl, sp, lr}^
 468:	65735f6f 	ldrbvs	r5, [r3, #-3951]!	; 0xfffff091
 46c:	75665f74 	strbvc	r5, [r6, #-3956]!	; 0xfffff08c
 470:	6974636e 	ldmdbvs	r4!, {r1, r2, r3, r5, r6, r8, r9, sp, lr}^
 474:	67006e6f 	strvs	r6, [r0, -pc, ror #28]
 478:	5f6f6970 	svcpl	0x006f6970
 47c:	5f746573 	svcpl	0x00746573
 480:	73006e6f 	movwvc	r6, #3695	; 0xe6f
 484:	5f657a69 	svcpl	0x00657a69
 488:	2f2e0074 	svccs	0x002e0074
 48c:	6362696c 	cmnvs	r2, #108, 18	; 0x1b0000
 490:	6d656d2f 	stclvs	13, cr6, [r5, #-188]!	; 0xffffff44
 494:	2e746573 	mrccs	5, 3, r6, cr4, cr3, {3}
 498:	4e470063 	cdpmi	0, 4, cr0, cr7, cr3, {3}
 49c:	39432055 	stmdbcc	r3, {r0, r2, r4, r6, sp}^
 4a0:	2e392039 	mrccs	0, 1, r2, cr9, cr9, {1}
 4a4:	20312e32 	eorscs	r2, r1, r2, lsr lr
 4a8:	39313032 	ldmdbcc	r1!, {r1, r4, r5, ip, sp}
 4ac:	35323031 	ldrcc	r3, [r2, #-49]!	; 0xffffffcf
 4b0:	65722820 	ldrbvs	r2, [r2, #-2080]!	; 0xfffff7e0
 4b4:	7361656c 	cmnvc	r1, #108, 10	; 0x1b000000
 4b8:	5b202965 	blpl	80aa54 <__bss_end__+0x800584>
 4bc:	2f4d5241 	svccs	0x004d5241
 4c0:	2d6d7261 	sfmcs	f7, 2, [sp, #-388]!	; 0xfffffe7c
 4c4:	72622d39 	rsbvc	r2, r2, #3648	; 0xe40
 4c8:	68636e61 	stmdavs	r3!, {r0, r5, r6, r9, sl, fp, sp, lr}^
 4cc:	76657220 	strbtvc	r7, [r5], -r0, lsr #4
 4d0:	6f697369 	svcvs	0x00697369
 4d4:	3732206e 	ldrcc	r2, [r2, -lr, rrx]!
 4d8:	39393537 	ldmdbcc	r9!, {r0, r1, r2, r4, r5, r8, sl, ip, sp}
 4dc:	6d2d205d 	stcvs	0, cr2, [sp, #-372]!	; 0xfffffe8c
 4e0:	3d757063 	ldclcc	0, cr7, [r5, #-396]!	; 0xfffffe74
 4e4:	316d7261 	cmncc	sp, r1, ror #4
 4e8:	6a363731 	bvs	d8e1b4 <__bss_end__+0xd83ce4>
 4ec:	732d667a 			; <UNDEFINED> instruction: 0x732d667a
 4f0:	746d2d20 	strbtvc	r2, [sp], #-3360	; 0xfffff2e0
 4f4:	3d656e75 	stclcc	14, cr6, [r5, #-468]!	; 0xfffffe2c
 4f8:	316d7261 	cmncc	sp, r1, ror #4
 4fc:	6a363731 	bvs	d8e1c8 <__bss_end__+0xd83cf8>
 500:	732d667a 			; <UNDEFINED> instruction: 0x732d667a
 504:	666d2d20 	strbtvs	r2, [sp], -r0, lsr #26
 508:	74616f6c 	strbtvc	r6, [r1], #-3948	; 0xfffff094
 50c:	6962612d 	stmdbvs	r2!, {r0, r2, r3, r5, r8, sp, lr}^
 510:	666f733d 			; <UNDEFINED> instruction: 0x666f733d
 514:	6d2d2074 	stcvs	0, cr2, [sp, #-464]!	; 0xfffffe30
 518:	206d7261 	rsbcs	r7, sp, r1, ror #4
 51c:	72616d2d 	rsbvc	r6, r1, #2880	; 0xb40
 520:	613d6863 	teqvs	sp, r3, ror #16
 524:	36766d72 			; <UNDEFINED> instruction: 0x36766d72
 528:	2d207a6b 	vstmdbcs	r0!, {s14-s120}
 52c:	62646767 	rsbvs	r6, r4, #27000832	; 0x19c0000
 530:	664f2d20 	strbvs	r2, [pc], -r0, lsr #26
 534:	20747361 	rsbscs	r7, r4, r1, ror #6
 538:	6474732d 	ldrbtvs	r7, [r4], #-813	; 0xfffffcd3
 53c:	756e673d 	strbvc	r6, [lr, #-1853]!	; 0xfffff8c3
 540:	2d203939 			; <UNDEFINED> instruction: 0x2d203939
 544:	65726666 	ldrbvs	r6, [r2, #-1638]!	; 0xfffff99a
 548:	61747365 	cmnvs	r4, r5, ror #6
 54c:	6e69646e 	cdpvs	4, 6, cr6, cr9, cr14, {3}
 550:	72610067 	rsbvc	r0, r1, #103, 0	; 0x67
 554:	76007367 	strvc	r7, [r0], -r7, ror #6
 558:	72705f61 	rsbsvc	r5, r0, #388	; 0x184
 55c:	6b746e69 	blvs	1d1bf08 <__bss_end__+0x1d11a38>
 560:	675f5f00 	ldrbvs	r5, [pc, -r0, lsl #30]
 564:	5f63756e 	svcpl	0x0063756e
 568:	6c5f6176 	ldfvse	f6, [pc], {118}	; 0x76
 56c:	00747369 	rsbseq	r7, r4, r9, ror #6
 570:	70615f5f 	rsbvc	r5, r1, pc, asr pc
 574:	6c2f2e00 	stcvs	14, cr2, [pc], #-0	; 57c <__code_start__-0x7a84>
 578:	2f636269 	svccs	0x00636269
 57c:	6e697270 	mcrvs	2, 3, r7, cr9, cr0, {3}
 580:	632e6b74 			; <UNDEFINED> instruction: 0x632e6b74
 584:	765f5f00 	ldrbvc	r5, [pc], -r0, lsl #30
 588:	696c5f61 	stmdbvs	ip!, {r0, r5, r6, r8, r9, sl, fp, ip, lr}^
 58c:	69007473 	stmdbvs	r0, {r0, r1, r4, r5, r6, sl, ip, sp, lr}
 590:	7265746e 	rsbvc	r7, r5, #1845493760	; 0x6e000000
 594:	5f6c616e 	svcpl	0x006c616e
 598:	6b747570 	blvs	1d1db60 <__bss_end__+0x1d13690>
 59c:	6c2f2e00 	stcvs	14, cr2, [pc], #-0	; 5a4 <__code_start__-0x7a5c>
 5a0:	2f636269 	svccs	0x00636269
 5a4:	6b747570 	blvs	1d1db6c <__bss_end__+0x1d1369c>
 5a8:	6900632e 	stmdbvs	r0, {r1, r2, r3, r5, r8, r9, sp, lr}
 5ac:	67696473 			; <UNDEFINED> instruction: 0x67696473
 5b0:	75007469 	strvc	r7, [r0, #-1129]	; 0xfffffb97
 5b4:	36746e69 	ldrbtcc	r6, [r4], -r9, ror #28
 5b8:	00745f34 	rsbseq	r5, r4, r4, lsr pc
 5bc:	696c2f2e 	stmdbvs	ip!, {r1, r2, r3, r5, r8, r9, sl, fp, sp}^
 5c0:	762f6362 	strtvc	r6, [pc], -r2, ror #6
 5c4:	72702d61 	rsbsvc	r2, r0, #6208	; 0x1840
 5c8:	6b746e69 	blvs	1d1bf74 <__bss_end__+0x1d11aa4>
 5cc:	5f00632e 	svcpl	0x0000632e
 5d0:	646f635f 	strbtvs	r6, [pc], #-863	; 5d8 <__code_start__-0x7a28>
 5d4:	74735f65 	ldrbtvc	r5, [r3], #-3941	; 0xfffff09b
 5d8:	5f747261 	svcpl	0x00747261
 5dc:	5f5f005f 	svcpl	0x005f005f
 5e0:	5f737362 	svcpl	0x00737362
 5e4:	72617473 	rsbvc	r7, r1, #1929379840	; 0x73000000
 5e8:	005f5f74 	subseq	r5, pc, r4, ror pc	; <UNPREDICTABLE>
 5ec:	74646977 	strbtvc	r6, [r4], #-2423	; 0xfffff689
 5f0:	5f5f0068 	svcpl	0x005f0068
 5f4:	434e5546 	movtmi	r5, #58694	; 0xe546
 5f8:	4e4f4954 			; <UNDEFINED> instruction: 0x4e4f4954
 5fc:	63005f5f 	movwvs	r5, #3935	; 0xf5f
 600:	6e61656c 	cdpvs	5, 6, cr6, cr1, cr12, {3}
 604:	6265725f 	rsbvs	r7, r5, #-268435451	; 0xf0000005
 608:	00746f6f 	rsbseq	r6, r4, pc, ror #30
 60c:	61645f5f 	cmnvs	r4, pc, asr pc
 610:	655f6174 	ldrbvs	r6, [pc, #-372]	; 4a4 <__code_start__-0x7b5c>
 614:	5f5f646e 	svcpl	0x005f646e
 618:	74757000 	ldrbtvc	r7, [r5], #-0
 61c:	70665f63 	rsbvc	r5, r6, r3, ror #30
 620:	625f5f00 	subsvs	r5, pc, #0, 30
 624:	655f7373 	ldrbvs	r7, [pc, #-883]	; 2b9 <__code_start__-0x7d47>
 628:	5f5f646e 	svcpl	0x005f646e
 62c:	685f5f00 	ldmdavs	pc, {r8, r9, sl, fp, ip, lr}^	; <UNPREDICTABLE>
 630:	5f706165 	svcpl	0x00706165
 634:	72617473 	rsbvc	r7, r1, #1929379840	; 0x73000000
 638:	005f5f74 	subseq	r5, pc, r4, ror pc	; <UNPREDICTABLE>
 63c:	5f697072 	svcpl	0x00697072
 640:	5f746573 	svcpl	0x00746573
 644:	7074756f 	rsbsvc	r7, r4, pc, ror #10
 648:	66007475 			; <UNDEFINED> instruction: 0x66007475
 64c:	735f746d 	cmpvc	pc, #1828716544	; 0x6d000000
 650:	74726174 	ldrbtvc	r6, [r2], #-372	; 0xfffffe8c
 654:	72747300 	rsbsvc	r7, r4, #0, 6
 658:	00746163 	rsbseq	r6, r4, r3, ror #2
 65c:	63727473 	cmnvs	r2, #1929379840	; 0x73000000
 660:	6e007970 			; <UNDEFINED> instruction: 0x6e007970
 664:	705f6765 	subsvc	r6, pc, r5, ror #14
 668:	635f5f00 	cmpvs	pc, #0, 30
 66c:	5f65646f 	svcpl	0x0065646f
 670:	5f646e65 	svcpl	0x00646e65
 674:	6d65005f 	stclvs	0, cr0, [r5, #-380]!	; 0xfffffe84
 678:	72007469 	andvc	r7, r0, #1761607680	; 0x69000000
 67c:	72657665 	rsbvc	r7, r5, #105906176	; 0x6500000
 680:	73006573 	movwvc	r6, #1395	; 0x573
 684:	6d637274 	sfmvs	f7, 2, [r3, #-464]!	; 0xfffffe30
 688:	75700070 	ldrbvc	r0, [r0, #-112]!	; 0xffffff90
 68c:	665f7374 			; <UNDEFINED> instruction: 0x665f7374
 690:	5f5f0070 	svcpl	0x005f0070
 694:	61746164 	cmnvs	r4, r4, ror #2
 698:	6174735f 	cmnvs	r4, pc, asr r3
 69c:	5f5f7472 	svcpl	0x005f7472
 6a0:	705f5f00 	subsvc	r5, pc, r0, lsl #30
 6a4:	5f676f72 	svcpl	0x00676f72
 6a8:	5f646e65 	svcpl	0x00646e65
 6ac:	756e005f 	strbvc	r0, [lr, #-95]!	; 0xffffffa1
 6b0:	7300316d 	movwvc	r3, #365	; 0x16d
 6b4:	636e7274 	cmnvs	lr, #116, 4	; 0x40000007
 6b8:	6200706d 	andvs	r7, r0, #109, 0	; 0x6d
 6bc:	00657361 	rsbeq	r7, r5, r1, ror #6
 6c0:	6e676973 			; <UNDEFINED> instruction: 0x6e676973
 6c4:	705f6465 	subsvc	r6, pc, r5, ror #8
 6c8:	73696400 	cmnvc	r9, #0, 8
 6cc:	656c6261 	strbvs	r6, [ip, #-609]!	; 0xfffffd9f
 6d0:	6361635f 	cmnvs	r1, #2080374785	; 0x7c000001
 6d4:	2e006568 	cfsh32cs	mvfx6, mvfx0, #56
 6d8:	6174732f 	cmnvs	r4, pc, lsr #6
 6dc:	732d6666 			; <UNDEFINED> instruction: 0x732d6666
 6e0:	632f6372 			; <UNDEFINED> instruction: 0x632f6372
 6e4:	65686361 	strbvs	r6, [r8, #-865]!	; 0xfffffc9f
 6e8:	7200632e 	andvc	r6, r0, #-1207959552	; 0xb8000000
 6ec:	725f6970 	subsvc	r6, pc, #112, 18	; 0x1c0000
 6f0:	6f6f6265 	svcvs	0x006f6265
 6f4:	2f2e0074 	svccs	0x002e0074
 6f8:	66617473 			; <UNDEFINED> instruction: 0x66617473
 6fc:	72732d66 	rsbsvc	r2, r3, #6528	; 0x1980
 700:	6c632f63 	stclvs	15, cr2, [r3], #-396	; 0xfffffe74
 704:	2d6e6165 	stfcse	f6, [lr, #-404]!	; 0xfffffe6c
 708:	6f626572 	svcvs	0x00626572
 70c:	632e746f 			; <UNDEFINED> instruction: 0x632e746f
 710:	72617500 	rsbvc	r7, r1, #0, 10
 714:	6c665f74 	stclvs	15, cr5, [r6], #-464	; 0xfffffe30
 718:	5f687375 	svcpl	0x00687375
 71c:	5f007874 	svcpl	0x00007874
 720:	61747363 	cmnvs	r4, r3, ror #6
 724:	62007472 	andvs	r7, r0, #1912602624	; 0x72000000
 728:	655f7373 	ldrbvs	r7, [pc, #-883]	; 3bd <__code_start__-0x7c43>
 72c:	7500646e 	strvc	r6, [r0, #-1134]	; 0xfffffb92
 730:	5f747261 	svcpl	0x00747261
 734:	74696e69 	strbtvc	r6, [r9], #-3689	; 0xfffff197
 738:	73756300 	cmnvc	r5, #0, 6
 73c:	5f6d6f74 	svcpl	0x006d6f74
 740:	64616f6c 	strbtvs	r6, [r1], #-3948	; 0xfffff094
 744:	2e007265 	cdpcs	2, 0, cr7, cr0, cr5, {3}
 748:	6174732f 	cmnvs	r4, pc, lsr #6
 74c:	732d6666 			; <UNDEFINED> instruction: 0x732d6666
 750:	632f6372 			; <UNDEFINED> instruction: 0x632f6372
 754:	72617473 	rsbvc	r7, r1, #1929379840	; 0x73000000
 758:	00632e74 	rsbeq	r2, r3, r4, ror lr
 75c:	74732f2e 	ldrbtvc	r2, [r3], #-3886	; 0xfffff0d2
 760:	2d666661 	stclcs	6, cr6, [r6, #-388]!	; 0xfffffe7c
 764:	2f637273 	svccs	0x00637273
 768:	74737563 	ldrbtvc	r7, [r3], #-1379	; 0xfffffa9d
 76c:	6c2d6d6f 	stcvs	13, cr6, [sp], #-444	; 0xfffffe44
 770:	6564616f 	strbvs	r6, [r4, #-367]!	; 0xfffffe91
 774:	00632e72 	rsbeq	r2, r3, r2, ror lr
 778:	6f626572 	svcvs	0x00626572
 77c:	635f746f 	cmpvs	pc, #1862270976	; 0x6f000000
 780:	6f6c6c61 	svcvs	0x006c6c61
 784:	50007475 	andpl	r7, r0, r5, ror r4
 788:	44575f4d 	ldrbmi	r5, [r7], #-3917	; 0xfffff0b3
 78c:	7300474f 	movwvc	r4, #1871	; 0x74f
 790:	755f7465 	ldrbvc	r7, [pc, #-1125]	; 333 <__code_start__-0x7ccd>
 794:	5f726573 	svcpl	0x00726573
 798:	6576656c 	ldrbvs	r6, [r6, #-1388]!	; 0xfffffa94
 79c:	2f2e006c 	svccs	0x002e006c
 7a0:	66617473 			; <UNDEFINED> instruction: 0x66617473
 7a4:	72732d66 	rsbsvc	r2, r3, #6528	; 0x1980
 7a8:	65722f63 	ldrbvs	r2, [r2, #-3939]!	; 0xfffff09d
 7ac:	746f6f62 	strbtvc	r6, [pc], #-3938	; 7b4 <__code_start__-0x784c>
 7b0:	5000632e 	andpl	r6, r0, lr, lsr #6
 7b4:	41505f4d 	cmpmi	r0, sp, asr #30
 7b8:	4f575353 	svcmi	0x00575353
 7bc:	61004452 	tstvs	r0, r2, asr r4
 7c0:	73755f74 	cmnvc	r5, #116, 30	; 0x1d0
 7c4:	6c5f7265 	lfmvs	f7, 2, [pc], {101}	; 0x65
 7c8:	6c657665 	stclvs	6, cr7, [r5], #-404	; 0xfffffe6c
 7cc:	5f4d5000 	svcpl	0x004d5000
 7d0:	43545352 	cmpmi	r4, #1207959553	; 0x48000001
 7d4:	4352575f 	cmpmi	r2, #24903680	; 0x17c0000
 7d8:	465f4746 	ldrbmi	r4, [pc], -r6, asr #14
 7dc:	5f4c4c55 	svcpl	0x004c4c55
 7e0:	45534552 	ldrbmi	r4, [r3, #-1362]	; 0xfffffaae
 7e4:	4d500054 	ldclmi	0, cr0, [r0, #-336]	; 0xfffffeb0
 7e8:	5453525f 	ldrbpl	r5, [r3], #-607	; 0xfffffda1
 7ec:	70630043 	rsbvc	r0, r3, r3, asr #32
 7f0:	64007273 	strvs	r7, [r0], #-627	; 0xfffffd8d
 7f4:	625f7665 	subsvs	r7, pc, #105906176	; 0x6500000
 7f8:	69727261 	ldmdbvs	r2!, {r0, r5, r6, r9, ip, sp, lr}^
 7fc:	64007265 	strvs	r7, [r0], #-613	; 0xfffffd9b
 800:	79616c65 	stmdbvc	r1!, {r0, r2, r5, r6, sl, fp, sp, lr}^
 804:	6365735f 	cmnvs	r5, #2080374785	; 0x7c000001
 808:	732f2e00 			; <UNDEFINED> instruction: 0x732f2e00
 80c:	66666174 			; <UNDEFINED> instruction: 0x66666174
 810:	6372732d 	cmnvs	r2, #-1275068416	; 0xb4000000
 814:	6d69742f 	cfstrdvs	mvd7, [r9, #-188]!	; 0xffffff44
 818:	632e7265 			; <UNDEFINED> instruction: 0x632e7265
 81c:	6d697400 	cfstrdvs	mvd7, [r9, #-0]
 820:	675f7265 	ldrbvs	r7, [pc, -r5, ror #4]
 824:	755f7465 	ldrbvc	r7, [pc, #-1125]	; 3c7 <__code_start__-0x7c39>
 828:	00636573 	rsbeq	r6, r3, r3, ror r5
 82c:	616c6564 	cmnvs	ip, r4, ror #10
 830:	73755f79 	cmnvc	r5, #484	; 0x1e4
 834:	6d697400 	cfstrdvs	mvd7, [r9, #-0]
 838:	675f7265 	ldrbvs	r7, [pc, -r5, ror #4]
 83c:	755f7465 	ldrbvc	r7, [pc, #-1125]	; 3df <__code_start__-0x7c21>
 840:	5f636573 	svcpl	0x00636573
 844:	00776172 	rsbseq	r6, r7, r2, ror r1
 848:	64756162 	ldrbtvs	r6, [r5], #-354	; 0xfffffe9e
 84c:	6c61765f 	stclvs	6, cr7, [r1], #-380	; 0xfffffe84
 850:	61747300 	cmnvs	r4, r0, lsl #6
 854:	61750074 	cmnvs	r5, r4, ror r0
 858:	635f7472 	cmpvs	pc, #1912602624	; 0x72000000
 85c:	675f6e61 	ldrbvs	r6, [pc, -r1, ror #28]
 860:	00637465 	rsbeq	r7, r3, r5, ror #8
 864:	74726175 	ldrbtvc	r6, [r2], #-373	; 0xfffffe8b
 868:	7500632e 	strvc	r6, [r0, #-814]	; 0xfffffcd2
 86c:	5f747261 	svcpl	0x00747261
 870:	5f6e6163 	svcpl	0x006e6163
 874:	63747570 	cmnvs	r4, #112, 10	; 0x1c000000
 878:	72617500 	rsbvc	r7, r1, #0, 10
 87c:	61750074 	cmnvs	r5, r4, ror r0
 880:	745f7472 	ldrbvc	r7, [pc], #-1138	; 888 <__code_start__-0x7778>
 884:	73695f78 	cmnvc	r9, #120, 30	; 0x1e0
 888:	706d655f 	rsbvc	r6, sp, pc, asr r5
 88c:	70007974 	andvc	r7, r0, r4, ror r9
 890:	32337475 	eorscc	r7, r3, #1962934272	; 0x75000000
 894:	75616200 	strbvc	r6, [r1, #-512]!	; 0xfffffe00
 898:	75610064 	strbvc	r0, [r1, #-100]!	; 0xffffff9c
 89c:	6e655f78 	mcrvs	15, 3, r5, cr5, cr8, {3}
 8a0:	656c6261 	strbvs	r6, [ip, #-609]!	; 0xfffffd9f
 8a4:	61750073 	cmnvs	r5, r3, ror r0
 8a8:	675f7472 			; <UNDEFINED> instruction: 0x675f7472
 8ac:	00637465 	rsbeq	r7, r3, r5, ror #8
 8b0:	20554e47 	subscs	r4, r5, r7, asr #28
 8b4:	20393943 	eorscs	r3, r9, r3, asr #18
 8b8:	332e3031 			; <UNDEFINED> instruction: 0x332e3031
 8bc:	3220312e 	eorcc	r3, r0, #-2147483637	; 0x8000000b
 8c0:	30313230 	eorscc	r3, r1, r0, lsr r2
 8c4:	20343238 	eorscs	r3, r4, r8, lsr r2
 8c8:	6c657228 	sfmvs	f7, 2, [r5], #-160	; 0xffffff60
 8cc:	65736165 	ldrbvs	r6, [r3, #-357]!	; 0xfffffe9b
 8d0:	6d2d2029 	stcvs	0, cr2, [sp, #-164]!	; 0xffffff5c
 8d4:	3d757063 	ldclcc	0, cr7, [r5, #-396]!	; 0xfffffe74
 8d8:	316d7261 	cmncc	sp, r1, ror #4
 8dc:	6a363731 	bvs	d8e5a8 <__bss_end__+0xd840d8>
 8e0:	732d667a 			; <UNDEFINED> instruction: 0x732d667a
 8e4:	746d2d20 	strbtvc	r2, [sp], #-3360	; 0xfffff2e0
 8e8:	3d656e75 	stclcc	14, cr6, [r5, #-468]!	; 0xfffffe2c
 8ec:	316d7261 	cmncc	sp, r1, ror #4
 8f0:	6a363731 	bvs	d8e5bc <__bss_end__+0xd840ec>
 8f4:	732d667a 			; <UNDEFINED> instruction: 0x732d667a
 8f8:	666d2d20 	strbtvs	r2, [sp], -r0, lsr #26
 8fc:	74616f6c 	strbtvc	r6, [r1], #-3948	; 0xfffff094
 900:	6962612d 	stmdbvs	r2!, {r0, r2, r3, r5, r8, sp, lr}^
 904:	666f733d 			; <UNDEFINED> instruction: 0x666f733d
 908:	6d2d2074 	stcvs	0, cr2, [sp, #-464]!	; 0xfffffe30
 90c:	206d7261 	rsbcs	r7, sp, r1, ror #4
 910:	72616d2d 	rsbvc	r6, r1, #2880	; 0xb40
 914:	613d6863 	teqvs	sp, r3, ror #16
 918:	36766d72 			; <UNDEFINED> instruction: 0x36766d72
 91c:	2d207a6b 	vstmdbcs	r0!, {s14-s120}
 920:	62646767 	rsbvs	r6, r4, #27000832	; 0x19c0000
 924:	674f2d20 	strbvs	r2, [pc, -r0, lsr #26]
 928:	74732d20 	ldrbtvc	r2, [r3], #-3360	; 0xfffff2e0
 92c:	6e673d64 	cdpvs	13, 6, cr3, cr7, cr4, {3}
 930:	20393975 	eorscs	r3, r9, r5, ror r9
 934:	7266662d 	rsbvc	r6, r6, #47185920	; 0x2d00000
 938:	74736565 	ldrbtvc	r6, [r3], #-1381	; 0xfffffa9b
 93c:	69646e61 	stmdbvs	r4!, {r0, r5, r6, r9, sl, fp, sp, lr}^
 940:	6300676e 	movwvs	r6, #1902	; 0x76e
 944:	006c746e 	rsbeq	r7, ip, lr, ror #8
 948:	74726175 	ldrbtvc	r6, [r2], #-373	; 0xfffffe8b
 94c:	7369645f 	cmnvc	r9, #1593835520	; 0x5f000000
 950:	656c6261 	strbvs	r6, [ip, #-609]!	; 0xfffffd9f
 954:	72617500 	rsbvc	r7, r1, #0, 10
 958:	61685f74 	smcvs	34292	; 0x85f4
 95c:	61645f73 	smcvs	17907	; 0x45f3
 960:	6f006174 	svcvs	0x00006174
 964:	6e695f72 	mcrvs	15, 3, r5, cr9, cr2, {3}
 968:	73003233 	movwvc	r3, #563	; 0x233
 96c:	74617263 	strbtvc	r7, [r1], #-611	; 0xfffffd9d
 970:	61006863 	tstvs	r0, r3, ror #16
 974:	705f7875 	subsvc	r7, pc, r5, ror r8	; <UNPREDICTABLE>
 978:	70697265 	rsbvc	r7, r9, r5, ror #4
 97c:	2f007368 	svccs	0x00007368
 980:	656d6f68 	strbvs	r6, [sp, #-3944]!	; 0xfffff098
 984:	676e652f 	strbvs	r6, [lr, -pc, lsr #10]!
 988:	2f72656c 	svccs	0x0072656c
 98c:	73616c63 	cmnvc	r1, #25344	; 0x6300
 990:	73632f73 	cmnvc	r3, #460	; 0x1cc
 994:	65303431 	ldrvs	r3, [r0, #-1073]!	; 0xfffffbcf
 998:	7732322d 	ldrvc	r3, [r2, -sp, lsr #4]!
 99c:	6c2f6e69 	stcvs	14, cr6, [pc], #-420	; 800 <__code_start__-0x7800>
 9a0:	69706269 	ldmdbvs	r0!, {r0, r3, r5, r6, r9, sp, lr}^
 9a4:	6174732f 	cmnvs	r4, pc, lsr #6
 9a8:	702d6666 	eorvc	r6, sp, r6, ror #12
 9ac:	61766972 	cmnvs	r6, r2, ror r9
 9b0:	61006574 	tstvs	r0, r4, ror r5
 9b4:	695f646e 	ldmdbvs	pc, {r1, r2, r3, r5, r6, sl, sp, lr}^	; <UNPREDICTABLE>
 9b8:	0032336e 	eorseq	r3, r2, lr, ror #6
 9bc:	74726175 	ldrbtvc	r6, [r2], #-373	; 0xfffffe8b
 9c0:	7475705f 	ldrbtvc	r7, [r5], #-95	; 0xffffffa1
 9c4:	65670063 	strbvs	r0, [r7, #-99]!	; 0xffffff9d
 9c8:	00323374 	eorseq	r3, r2, r4, ror r3
 9cc:	6c616d6b 	stclvs	13, cr6, [r1], #-428	; 0xfffffe54
 9d0:	5f636f6c 	svcpl	0x00636f6c
 9d4:	70616568 	rsbvc	r6, r1, r8, ror #10
 9d8:	6174735f 	cmnvs	r4, pc, asr r3
 9dc:	6d007472 	cfstrsvs	mvf7, [r0, #-456]	; 0xfffffe38
 9e0:	6e5f7861 	cdpvs	8, 5, cr7, cr15, cr1, {3}
 9e4:	65747962 	ldrbvs	r7, [r4, #-2402]!	; 0xfffff69e
 9e8:	615f0073 	cmpvs	pc, r3, ror r0	; <UNPREDICTABLE>
 9ec:	00726464 	rsbseq	r6, r2, r4, ror #8
 9f0:	6572666b 	ldrbvs	r6, [r2, #-1643]!	; 0xfffff995
 9f4:	65680065 	strbvs	r0, [r8, #-101]!	; 0xffffff9b
 9f8:	6d5f7061 	ldclvs	0, cr7, [pc, #-388]	; 87c <__code_start__-0x7784>
 9fc:	6b007861 	blvs	1eb88 <__bss_end__+0x146b8>
 a00:	65657266 	strbvs	r7, [r5, #-614]!	; 0xfffffd9a
 a04:	6c6c615f 	stfvse	f6, [ip], #-380	; 0xfffffe84
 a08:	756f7200 	strbvc	r7, [pc, #-512]!	; 810 <__code_start__-0x77f0>
 a0c:	7075646e 	rsbsvc	r6, r5, lr, ror #8
 a10:	616d6b00 	cmnvs	sp, r0, lsl #22
 a14:	636f6c6c 	cmnvs	pc, #108, 24	; 0x6c00
 a18:	6165685f 	cmnvs	r5, pc, asr r8
 a1c:	6e655f70 	mcrvs	15, 3, r5, cr5, cr0, {3}
 a20:	65680064 	strbvs	r0, [r8, #-100]!	; 0xffffff9c
 a24:	69007061 	stmdbvs	r0, {r0, r5, r6, ip, sp, lr}
 a28:	5f74696e 	svcpl	0x0074696e
 a2c:	666b0070 			; <UNDEFINED> instruction: 0x666b0070
 a30:	5f656572 	svcpl	0x00656572
 a34:	00706f70 	rsbseq	r6, r0, r0, ror pc
 a38:	67696c61 	strbvs	r6, [r9, -r1, ror #24]!
 a3c:	6e656d6e 	cdpvs	13, 6, cr6, cr5, cr14, {3}
 a40:	616d0074 	smcvs	53252	; 0xd004
 a44:	33755f78 	cmncc	r5, #120, 30	; 0x1e0
 a48:	6e4f0032 	mcrvs	0, 2, r0, cr15, cr2, {1}
 a4c:	00424d65 	subeq	r4, r2, r5, ror #26
 a50:	6c616d6b 	stclvs	13, cr6, [r1], #-428	; 0xfffffe54
 a54:	5f636f6c 	svcpl	0x00636f6c
 a58:	7a746f6e 	bvc	1d1c818 <__bss_end__+0x1d12348>
 a5c:	006f7265 	rsbeq	r7, pc, r5, ror #4
 a60:	6c616d6b 	stclvs	13, cr6, [r1], #-428	; 0xfffffe54
 a64:	5f636f6c 	svcpl	0x00636f6c
 a68:	67696c61 	strbvs	r6, [r9, -r1, ror #24]!
 a6c:	0064656e 	rsbeq	r6, r4, lr, ror #10
 a70:	705f7369 	subsvc	r7, pc, r9, ror #6
 a74:	0032776f 	eorseq	r7, r2, pc, ror #14
 a78:	6c616d6b 	stclvs	13, cr6, [r1], #-428	; 0xfffffe54
 a7c:	2e636f6c 	cdpcs	15, 6, cr6, cr3, cr12, {3}
 a80:	6d6b0063 	stclvs	0, cr0, [fp, #-396]!	; 0xfffffe74
 a84:	6f6c6c61 	svcvs	0x006c6c61
 a88:	6e695f63 	cdpvs	15, 6, cr5, cr9, cr3, {3}
 a8c:	69007469 	stmdbvs	r0, {r0, r3, r5, r6, sl, ip, sp, lr}
 a90:	6c615f73 	stclvs	15, cr5, [r1], #-460	; 0xfffffe34
 a94:	656e6769 	strbvs	r6, [lr, #-1897]!	; 0xfffff897
 a98:	6f640064 	svcvs	0x00640064
 a9c:	656c6275 	strbvs	r6, [ip, #-629]!	; 0xfffffd8b
 aa0:	616d6b00 	cmnvs	sp, r0, lsl #22
 aa4:	636f6c6c 	cmnvs	pc, #108, 24	; 0x6c00
 aa8:	6165685f 	cmnvs	r5, pc, asr r8
 aac:	74705f70 	ldrbtvc	r5, [r0], #-3952	; 0xfffff090
 ab0:	6d6b0072 	stclvs	0, cr0, [fp, #-456]!	; 0xfffffe38
 ab4:	6f6c6c61 	svcvs	0x006c6c61
 ab8:	6e695f63 	cdpvs	15, 6, cr5, cr9, cr3, {3}
 abc:	735f7469 	cmpvc	pc, #1761607680	; 0x69000000
 ac0:	735f7465 	cmpvc	pc, #1694498816	; 0x65000000
 ac4:	74726174 	ldrbtvc	r6, [r2], #-372	; 0xfffffe8c
 ac8:	69707200 	ldmdbvs	r0!, {r9, ip, sp, lr}^
 acc:	7365725f 	cmnvc	r5, #-268435451	; 0xf0000005
 ad0:	705f7465 	subsvc	r7, pc, r5, ror #8
 ad4:	00637475 	rsbeq	r7, r3, r5, ror r4
 ad8:	65746e69 	ldrbvs	r6, [r4, #-3689]!	; 0xfffff197
 adc:	6c616e72 	stclvs	14, cr6, [r1], #-456	; 0xfffffe38
 ae0:	7475705f 	ldrbtvc	r7, [r5], #-95	; 0xffffffa1
 ae4:	72616863 	rsbvc	r6, r1, #6488064	; 0x630000
 ae8:	69707200 	ldmdbvs	r0!, {r9, ip, sp, lr}^
 aec:	7465735f 	strbtvc	r7, [r5], #-863	; 0xfffffca1
 af0:	7475705f 	ldrbtvc	r7, [r5], #-95	; 0xffffffa1
 af4:	2f2e0063 	svccs	0x002e0063
 af8:	6362696c 	cmnvs	r2, #108, 18	; 0x1b0000
 afc:	7475702f 	ldrbtvc	r7, [r5], #-47	; 0xffffffd1
 b00:	72616863 	rsbvc	r6, r1, #6488064	; 0x630000
 b04:	2e00632e 	cdpcs	3, 0, cr6, cr0, cr14, {1}
 b08:	62696c2f 	rsbvs	r6, r9, #12032	; 0x2f00
 b0c:	74732f63 	ldrbtvc	r2, [r3], #-3939	; 0xfffff09d
 b10:	74616372 	strbtvc	r6, [r1], #-882	; 0xfffffc8e
 b14:	6400632e 	strvs	r6, [r0], #-814	; 0xfffffcd2
 b18:	00747365 	rsbseq	r7, r4, r5, ror #6
 b1c:	696c2f2e 	stmdbvs	ip!, {r1, r2, r3, r5, r8, r9, sl, fp, sp}^
 b20:	732f6362 			; <UNDEFINED> instruction: 0x732f6362
 b24:	6d637274 	sfmvs	f7, 2, [r3, #-464]!	; 0xfffffe30
 b28:	00632e70 	rsbeq	r2, r3, r0, ror lr
 b2c:	696c2f2e 	stmdbvs	ip!, {r1, r2, r3, r5, r8, r9, sl, fp, sp}^
 b30:	732f6362 			; <UNDEFINED> instruction: 0x732f6362
 b34:	70637274 	rsbvc	r7, r3, r4, ror r2
 b38:	00632e79 	rsbeq	r2, r3, r9, ror lr
 b3c:	696c2f2e 	stmdbvs	ip!, {r1, r2, r3, r5, r8, r9, sl, fp, sp}^
 b40:	732f6362 			; <UNDEFINED> instruction: 0x732f6362
 b44:	636e7274 	cmnvs	lr, #116, 4	; 0x40000007
 b48:	632e706d 			; <UNDEFINED> instruction: 0x632e706d
 b4c:	732f2e00 			; <UNDEFINED> instruction: 0x732f2e00
 b50:	66666174 			; <UNDEFINED> instruction: 0x66666174
 b54:	6372732d 	cmnvs	r2, #-1275068416	; 0xb4000000
 b58:	6665642f 	strbtvs	r6, [r5], -pc, lsr #8
 b5c:	746c7561 	strbtvc	r7, [ip], #-1377	; 0xfffffa9f
 b60:	6265722d 	rsbvs	r7, r5, #-805306366	; 0xd0000002
 b64:	2d746f6f 	ldclcs	15, cr6, [r4, #-444]!	; 0xfffffe44
 b68:	6c6c6163 	stfvse	f6, [ip], #-396	; 0xfffffe74
 b6c:	2e74756f 	cdpcs	5, 7, cr7, cr4, cr15, {3}
 b70:	Address 0x0000000000000b70 is out of bounds.


Disassembly of section .debug_frame:

00000000 <.debug_frame>:
   0:	0000000c 	andeq	r0, r0, ip
   4:	ffffffff 			; <UNDEFINED> instruction: 0xffffffff
   8:	7c020001 	stcvc	0, cr0, [r2], {1}
   c:	000d0c0e 	andeq	r0, sp, lr, lsl #24
  10:	0000002c 	andeq	r0, r0, ip, lsr #32
  14:	00000000 	andeq	r0, r0, r0
  18:	00008040 	andeq	r8, r0, r0, asr #32
  1c:	00000098 	muleq	r0, r8, r0
  20:	84180e42 	ldrhi	r0, [r8], #-3650	; 0xfffff1be
  24:	86058506 	strhi	r8, [r5], -r6, lsl #10
  28:	88038704 	stmdahi	r3, {r2, r8, r9, sl, pc}
  2c:	42018e02 	andmi	r8, r1, #2, 28
  30:	4002200e 	andmi	r2, r2, lr
  34:	ce42180e 	cdpgt	8, 4, cr1, cr2, cr14, {0}
  38:	c5c6c7c8 	strbgt	ip, [r6, #1992]	; 0x7c8
  3c:	00000ec4 	andeq	r0, r0, r4, asr #29
  40:	0000000c 	andeq	r0, r0, ip
  44:	ffffffff 			; <UNDEFINED> instruction: 0xffffffff
  48:	7c020001 	stcvc	0, cr0, [r2], {1}
  4c:	000d0c0e 	andeq	r0, sp, lr, lsl #24
  50:	0000001c 	andeq	r0, r0, ip, lsl r0
  54:	00000040 	andeq	r0, r0, r0, asr #32
  58:	000080e0 	andeq	r8, r0, r0, ror #1
  5c:	00000220 	andeq	r0, r0, r0, lsr #4
  60:	84180e42 	ldrhi	r0, [r8], #-3650	; 0xfffff1be
  64:	86058506 	strhi	r8, [r5], -r6, lsl #10
  68:	88038704 	stmdahi	r3, {r2, r8, r9, sl, pc}
  6c:	00018e02 	andeq	r8, r1, r2, lsl #28
  70:	0000001c 	andeq	r0, r0, ip, lsl r0
  74:	00000040 	andeq	r0, r0, r0, asr #32
  78:	00008300 	andeq	r8, r0, r0, lsl #6
  7c:	00000044 	andeq	r0, r0, r4, asr #32
  80:	84180e42 	ldrhi	r0, [r8], #-3650	; 0xfffff1be
  84:	86058506 	strhi	r8, [r5], -r6, lsl #10
  88:	88038704 	stmdahi	r3, {r2, r8, r9, sl, pc}
  8c:	00018e02 	andeq	r8, r1, r2, lsl #28
  90:	00000018 	andeq	r0, r0, r8, lsl r0
  94:	00000040 	andeq	r0, r0, r0, asr #32
  98:	00008350 	andeq	r8, r0, r0, asr r3
  9c:	000001c4 	andeq	r0, r0, r4, asr #3
  a0:	840c0e42 	strhi	r0, [ip], #-3650	; 0xfffff1be
  a4:	8e028503 	cfsh32hi	mvfx8, mvfx2, #3
  a8:	00000001 	andeq	r0, r0, r1
  ac:	0000001c 	andeq	r0, r0, ip, lsl r0
  b0:	00000040 	andeq	r0, r0, r0, asr #32
  b4:	00008520 	andeq	r8, r0, r0, lsr #10
  b8:	000000f0 	strdeq	r0, [r0], -r0	; <UNPREDICTABLE>
  bc:	840c0e48 	strhi	r0, [ip], #-3656	; 0xfffff1b8
  c0:	8e028503 	cfsh32hi	mvfx8, mvfx2, #3
  c4:	ce6a0201 	cdpgt	2, 6, cr0, cr10, cr1, {0}
  c8:	000ec4c5 	andeq	ip, lr, r5, asr #9
  cc:	0000001c 	andeq	r0, r0, ip, lsl r0
  d0:	00000040 	andeq	r0, r0, r0, asr #32
  d4:	00008610 	andeq	r8, r0, r0, lsl r6
  d8:	000000f0 	strdeq	r0, [r0], -r0	; <UNPREDICTABLE>
  dc:	840c0e42 	strhi	r0, [ip], #-3650	; 0xfffff1be
  e0:	8e028503 	cfsh32hi	mvfx8, mvfx2, #3
  e4:	ce720201 	cdpgt	2, 7, cr0, cr2, cr1, {0}
  e8:	000ec4c5 	andeq	ip, lr, r5, asr #9
  ec:	0000000c 	andeq	r0, r0, ip
  f0:	00000040 	andeq	r0, r0, r0, asr #32
  f4:	00008700 	andeq	r8, r0, r0, lsl #14
  f8:	00000020 	andeq	r0, r0, r0, lsr #32
  fc:	0000000c 	andeq	r0, r0, ip
 100:	ffffffff 			; <UNDEFINED> instruction: 0xffffffff
 104:	7c020001 	stcvc	0, cr0, [r2], {1}
 108:	000d0c0e 	andeq	r0, sp, lr, lsl #24
 10c:	00000020 	andeq	r0, r0, r0, lsr #32
 110:	000000fc 	strdeq	r0, [r0], -ip
 114:	00008720 	andeq	r8, r0, r0, lsr #14
 118:	00000064 	andeq	r0, r0, r4, rrx
 11c:	84100e48 	ldrhi	r0, [r0], #-3656	; 0xfffff1b8
 120:	86038504 	strhi	r8, [r3], -r4, lsl #10
 124:	66018e02 	strvs	r8, [r1], -r2, lsl #28
 128:	c4c5c6ce 	strbgt	ip, [r5], #1742	; 0x6ce
 12c:	0000000e 	andeq	r0, r0, lr
 130:	00000020 	andeq	r0, r0, r0, lsr #32
 134:	000000fc 	strdeq	r0, [r0], -ip
 138:	00008784 	andeq	r8, r0, r4, lsl #15
 13c:	0000005c 	andeq	r0, r0, ip, asr r0
 140:	84100e48 	ldrhi	r0, [r0], #-3656	; 0xfffff1b8
 144:	86038504 	strhi	r8, [r3], -r4, lsl #10
 148:	62018e02 	andvs	r8, r1, #2, 28
 14c:	c4c5c6ce 	strbgt	ip, [r5], #1742	; 0x6ce
 150:	0000000e 	andeq	r0, r0, lr
 154:	0000000c 	andeq	r0, r0, ip
 158:	000000fc 	strdeq	r0, [r0], -ip
 15c:	000087e0 	andeq	r8, r0, r0, ror #15
 160:	00000018 	andeq	r0, r0, r8, lsl r0
 164:	0000000c 	andeq	r0, r0, ip
 168:	000000fc 	strdeq	r0, [r0], -ip
 16c:	000087f8 	strdeq	r8, [r0], -r8	; <UNPREDICTABLE>
 170:	00000018 	andeq	r0, r0, r8, lsl r0
 174:	00000020 	andeq	r0, r0, r0, lsr #32
 178:	000000fc 	strdeq	r0, [r0], -ip
 17c:	00008810 	andeq	r8, r0, r0, lsl r8
 180:	00000058 	andeq	r0, r0, r8, asr r0
 184:	84100e46 	ldrhi	r0, [r0], #-3654	; 0xfffff1ba
 188:	86038504 	strhi	r8, [r3], -r4, lsl #10
 18c:	62018e02 	andvs	r8, r1, #2, 28
 190:	c4c5c6ce 	strbgt	ip, [r5], #1742	; 0x6ce
 194:	0000000e 	andeq	r0, r0, lr
 198:	0000000c 	andeq	r0, r0, ip
 19c:	000000fc 	strdeq	r0, [r0], -ip
 1a0:	00008868 	andeq	r8, r0, r8, ror #16
 1a4:	00000030 	andeq	r0, r0, r0, lsr r0
 1a8:	00000014 	andeq	r0, r0, r4, lsl r0
 1ac:	000000fc 	strdeq	r0, [r0], -ip
 1b0:	00008898 	muleq	r0, r8, r8
 1b4:	00000028 	andeq	r0, r0, r8, lsr #32
 1b8:	84080e44 	strhi	r0, [r8], #-3652	; 0xfffff1bc
 1bc:	00018e02 	andeq	r8, r1, r2, lsl #28
 1c0:	0000000c 	andeq	r0, r0, ip
 1c4:	ffffffff 			; <UNDEFINED> instruction: 0xffffffff
 1c8:	7c020001 	stcvc	0, cr0, [r2], {1}
 1cc:	000d0c0e 	andeq	r0, sp, lr, lsl #24
 1d0:	00000014 	andeq	r0, r0, r4, lsl r0
 1d4:	000001c0 	andeq	r0, r0, r0, asr #3
 1d8:	000088c0 	andeq	r8, r0, r0, asr #17
 1dc:	00000078 	andeq	r0, r0, r8, ror r0
 1e0:	84080e42 	strhi	r0, [r8], #-3650	; 0xfffff1be
 1e4:	00018e02 	andeq	r8, r1, r2, lsl #28
 1e8:	0000000c 	andeq	r0, r0, ip
 1ec:	ffffffff 			; <UNDEFINED> instruction: 0xffffffff
 1f0:	7c020001 	stcvc	0, cr0, [r2], {1}
 1f4:	000d0c0e 	andeq	r0, sp, lr, lsl #24
 1f8:	00000034 	andeq	r0, r0, r4, lsr r0
 1fc:	000001e8 	andeq	r0, r0, r8, ror #3
 200:	00008938 	andeq	r8, r0, r8, lsr r9
 204:	00000058 	andeq	r0, r0, r8, asr r0
 208:	80100e42 	andshi	r0, r0, r2, asr #28
 20c:	82038104 	andhi	r8, r3, #1
 210:	42018302 	andmi	r8, r1, #134217728	; 0x8000000
 214:	07841c0e 	streq	r1, [r4, lr, lsl #24]
 218:	058e0685 	streq	r0, [lr, #1669]	; 0x685
 21c:	5a280e44 	bpl	a03b34 <__bss_end__+0x9f9664>
 220:	ce421c0e 	cdpgt	12, 4, cr1, cr2, cr14, {0}
 224:	100ec4c5 	andne	ip, lr, r5, asr #9
 228:	c1c2c342 	bicgt	ip, r2, r2, asr #6
 22c:	00000ec0 	andeq	r0, r0, r0, asr #29
 230:	0000000c 	andeq	r0, r0, ip
 234:	ffffffff 			; <UNDEFINED> instruction: 0xffffffff
 238:	7c020001 	stcvc	0, cr0, [r2], {1}
 23c:	000d0c0e 	andeq	r0, sp, lr, lsl #24
 240:	00000018 	andeq	r0, r0, r8, lsl r0
 244:	00000230 	andeq	r0, r0, r0, lsr r2
 248:	00008990 	muleq	r0, r0, r9
 24c:	00000038 	andeq	r0, r0, r8, lsr r0
 250:	84100e42 	ldrhi	r0, [r0], #-3650	; 0xfffff1be
 254:	86038504 	strhi	r8, [r3], -r4, lsl #10
 258:	00018e02 	andeq	r8, r1, r2, lsl #28
 25c:	0000000c 	andeq	r0, r0, ip
 260:	ffffffff 			; <UNDEFINED> instruction: 0xffffffff
 264:	7c020001 	stcvc	0, cr0, [r2], {1}
 268:	000d0c0e 	andeq	r0, sp, lr, lsl #24
 26c:	0000002c 	andeq	r0, r0, ip, lsr #32
 270:	0000025c 	andeq	r0, r0, ip, asr r2
 274:	000089c8 	andeq	r8, r0, r8, asr #19
 278:	00000328 	andeq	r0, r0, r8, lsr #6
 27c:	84180e42 	ldrhi	r0, [r8], #-3650	; 0xfffff1be
 280:	86058506 	strhi	r8, [r5], -r6, lsl #10
 284:	88038704 	stmdahi	r3, {r2, r8, r9, sl, pc}
 288:	46018e02 	strmi	r8, [r1], -r2, lsl #28
 28c:	c002600e 	andgt	r6, r2, lr
 290:	42180e0a 	andsmi	r0, r8, #160	; 0xa0
 294:	0a8e020b 	beq	fe380ac8 <__bss_end__+0xfe3765f8>
 298:	0b42180e 	bleq	10862d8 <__bss_end__+0x107be08>
 29c:	00000014 	andeq	r0, r0, r4, lsl r0
 2a0:	0000025c 	andeq	r0, r0, ip, asr r2
 2a4:	00008cf0 	strdeq	r8, [r0], -r0
 2a8:	00000060 	andeq	r0, r0, r0, rrx
 2ac:	8e040e52 	mcrhi	14, 0, r0, cr4, cr2, {2}
 2b0:	100e4401 	andne	r4, lr, r1, lsl #8
 2b4:	0000002c 	andeq	r0, r0, ip, lsr #32
 2b8:	0000025c 	andeq	r0, r0, ip, asr r2
 2bc:	00008d50 	andeq	r8, r0, r0, asr sp
 2c0:	0000062c 	andeq	r0, r0, ip, lsr #12
 2c4:	84240e42 	strthi	r0, [r4], #-3650	; 0xfffff1be
 2c8:	86088509 	strhi	r8, [r8], -r9, lsl #10
 2cc:	88068707 	stmdahi	r6, {r0, r1, r2, r8, r9, sl, pc}
 2d0:	8a048905 	bhi	1226ec <__bss_end__+0x11821c>
 2d4:	8e028b03 	vmlahi.f64	d8, d2, d3
 2d8:	c00e5201 	andgt	r5, lr, r1, lsl #4
 2dc:	0a860202 	beq	fe180aec <__bss_end__+0xfe17661c>
 2e0:	0b42240e 	bleq	1089320 <__bss_end__+0x107ee50>
 2e4:	0000000c 	andeq	r0, r0, ip
 2e8:	ffffffff 			; <UNDEFINED> instruction: 0xffffffff
 2ec:	7c020001 	stcvc	0, cr0, [r2], {1}
 2f0:	000d0c0e 	andeq	r0, sp, lr, lsl #24
 2f4:	0000000c 	andeq	r0, r0, ip
 2f8:	000002e4 	andeq	r0, r0, r4, ror #5
 2fc:	0000937c 	andeq	r9, r0, ip, ror r3
 300:	00000010 	andeq	r0, r0, r0, lsl r0
 304:	0000000c 	andeq	r0, r0, ip
 308:	000002e4 	andeq	r0, r0, r4, ror #5
 30c:	0000938c 	andeq	r9, r0, ip, lsl #7
 310:	00000010 	andeq	r0, r0, r0, lsl r0
 314:	0000000c 	andeq	r0, r0, ip
 318:	ffffffff 			; <UNDEFINED> instruction: 0xffffffff
 31c:	7c020001 	stcvc	0, cr0, [r2], {1}
 320:	000d0c0e 	andeq	r0, sp, lr, lsl #24
 324:	00000014 	andeq	r0, r0, r4, lsl r0
 328:	00000314 	andeq	r0, r0, r4, lsl r3
 32c:	0000939c 	muleq	r0, ip, r3
 330:	0000002c 	andeq	r0, r0, ip, lsr #32
 334:	84080e44 	strhi	r0, [r8], #-3652	; 0xfffff1bc
 338:	00018e02 	andeq	r8, r1, r2, lsl #28
 33c:	0000000c 	andeq	r0, r0, ip
 340:	ffffffff 			; <UNDEFINED> instruction: 0xffffffff
 344:	7c020001 	stcvc	0, cr0, [r2], {1}
 348:	000d0c0e 	andeq	r0, sp, lr, lsl #24
 34c:	00000018 	andeq	r0, r0, r8, lsl r0
 350:	0000033c 	andeq	r0, r0, ip, lsr r3
 354:	000093c8 	andeq	r9, r0, r8, asr #7
 358:	000000f8 	strdeq	r0, [r0], -r8
 35c:	84100e42 	ldrhi	r0, [r0], #-3650	; 0xfffff1be
 360:	86038504 	strhi	r8, [r3], -r4, lsl #10
 364:	00018e02 	andeq	r8, r1, r2, lsl #28
 368:	0000000c 	andeq	r0, r0, ip
 36c:	ffffffff 			; <UNDEFINED> instruction: 0xffffffff
 370:	7c020001 	stcvc	0, cr0, [r2], {1}
 374:	000d0c0e 	andeq	r0, sp, lr, lsl #24
 378:	0000000c 	andeq	r0, r0, ip
 37c:	00000368 	andeq	r0, r0, r8, ror #6
 380:	000094c0 	andeq	r9, r0, r0, asr #9
 384:	00000004 	andeq	r0, r0, r4
 388:	0000000c 	andeq	r0, r0, ip
 38c:	ffffffff 			; <UNDEFINED> instruction: 0xffffffff
 390:	7c020001 	stcvc	0, cr0, [r2], {1}
 394:	000d0c0e 	andeq	r0, sp, lr, lsl #24
 398:	0000000c 	andeq	r0, r0, ip
 39c:	00000388 	andeq	r0, r0, r8, lsl #7
 3a0:	000094c4 	andeq	r9, r0, r4, asr #9
 3a4:	00000018 	andeq	r0, r0, r8, lsl r0
 3a8:	0000000c 	andeq	r0, r0, ip
 3ac:	00000388 	andeq	r0, r0, r8, lsl #7
 3b0:	000094dc 	ldrdeq	r9, [r0], -ip
 3b4:	00000014 	andeq	r0, r0, r4, lsl r0
 3b8:	00000014 	andeq	r0, r0, r4, lsl r0
 3bc:	00000388 	andeq	r0, r0, r8, lsl #7
 3c0:	000094f0 	strdeq	r9, [r0], -r0
 3c4:	00000060 	andeq	r0, r0, r0, rrx
 3c8:	84080e42 	strhi	r0, [r8], #-3650	; 0xfffff1be
 3cc:	00018e02 	andeq	r8, r1, r2, lsl #28
 3d0:	0000000c 	andeq	r0, r0, ip
 3d4:	ffffffff 			; <UNDEFINED> instruction: 0xffffffff
 3d8:	7c020001 	stcvc	0, cr0, [r2], {1}
 3dc:	000d0c0e 	andeq	r0, sp, lr, lsl #24
 3e0:	0000000c 	andeq	r0, r0, ip
 3e4:	000003d0 	ldrdeq	r0, [r0], -r0	; <UNPREDICTABLE>
 3e8:	00009550 	andeq	r9, r0, r0, asr r5
 3ec:	0000000c 	andeq	r0, r0, ip
 3f0:	00000014 	andeq	r0, r0, r4, lsl r0
 3f4:	000003d0 	ldrdeq	r0, [r0], -r0	; <UNPREDICTABLE>
 3f8:	0000955c 	andeq	r9, r0, ip, asr r5
 3fc:	00000024 	andeq	r0, r0, r4, lsr #32
 400:	84080e42 	strhi	r0, [r8], #-3650	; 0xfffff1be
 404:	00018e02 	andeq	r8, r1, r2, lsl #28
 408:	0000001c 	andeq	r0, r0, ip, lsl r0
 40c:	000003d0 	ldrdeq	r0, [r0], -r0	; <UNPREDICTABLE>
 410:	00009580 	andeq	r9, r0, r0, lsl #11
 414:	00000048 	andeq	r0, r0, r8, asr #32
 418:	84180e42 	ldrhi	r0, [r8], #-3650	; 0xfffff1be
 41c:	86058506 	strhi	r8, [r5], -r6, lsl #10
 420:	88038704 	stmdahi	r3, {r2, r8, r9, sl, pc}
 424:	00018e02 	andeq	r8, r1, r2, lsl #28
 428:	0000001c 	andeq	r0, r0, ip, lsl r0
 42c:	000003d0 	ldrdeq	r0, [r0], -r0	; <UNPREDICTABLE>
 430:	000095c8 	andeq	r9, r0, r8, asr #11
 434:	00000050 	andeq	r0, r0, r0, asr r0
 438:	84180e42 	ldrhi	r0, [r8], #-3650	; 0xfffff1be
 43c:	86058506 	strhi	r8, [r5], -r6, lsl #10
 440:	88038704 	stmdahi	r3, {r2, r8, r9, sl, pc}
 444:	00018e02 	andeq	r8, r1, r2, lsl #28
 448:	0000001c 	andeq	r0, r0, ip, lsl r0
 44c:	000003d0 	ldrdeq	r0, [r0], -r0	; <UNPREDICTABLE>
 450:	00009618 	andeq	r9, r0, r8, lsl r6
 454:	00000054 	andeq	r0, r0, r4, asr r0
 458:	84180e42 	ldrhi	r0, [r8], #-3650	; 0xfffff1be
 45c:	86058506 	strhi	r8, [r5], -r6, lsl #10
 460:	88038704 	stmdahi	r3, {r2, r8, r9, sl, pc}
 464:	00018e02 	andeq	r8, r1, r2, lsl #28
 468:	0000000c 	andeq	r0, r0, ip
 46c:	ffffffff 			; <UNDEFINED> instruction: 0xffffffff
 470:	7c020001 	stcvc	0, cr0, [r2], {1}
 474:	000d0c0e 	andeq	r0, sp, lr, lsl #24
 478:	00000018 	andeq	r0, r0, r8, lsl r0
 47c:	00000468 	andeq	r0, r0, r8, ror #8
 480:	0000966c 	andeq	r9, r0, ip, ror #12
 484:	00000020 	andeq	r0, r0, r0, lsr #32
 488:	84100e42 	ldrhi	r0, [r0], #-3650	; 0xfffff1be
 48c:	86038504 	strhi	r8, [r3], -r4, lsl #10
 490:	00018e02 	andeq	r8, r1, r2, lsl #28
 494:	00000018 	andeq	r0, r0, r8, lsl r0
 498:	00000468 	andeq	r0, r0, r8, ror #8
 49c:	0000968c 	andeq	r9, r0, ip, lsl #13
 4a0:	00000020 	andeq	r0, r0, r0, lsr #32
 4a4:	84100e42 	ldrhi	r0, [r0], #-3650	; 0xfffff1be
 4a8:	86038504 	strhi	r8, [r3], -r4, lsl #10
 4ac:	00018e02 	andeq	r8, r1, r2, lsl #28
 4b0:	00000014 	andeq	r0, r0, r4, lsl r0
 4b4:	00000468 	andeq	r0, r0, r8, ror #8
 4b8:	000096ac 	andeq	r9, r0, ip, lsr #13
 4bc:	000000b0 	strheq	r0, [r0], -r0	; <UNPREDICTABLE>
 4c0:	84080e42 	strhi	r0, [r8], #-3650	; 0xfffff1be
 4c4:	00018e02 	andeq	r8, r1, r2, lsl #28
 4c8:	00000014 	andeq	r0, r0, r4, lsl r0
 4cc:	00000468 	andeq	r0, r0, r8, ror #8
 4d0:	0000975c 	andeq	r9, r0, ip, asr r7
 4d4:	00000018 	andeq	r0, r0, r8, lsl r0
 4d8:	84080e42 	strhi	r0, [r8], #-3650	; 0xfffff1be
 4dc:	00018e02 	andeq	r8, r1, r2, lsl #28
 4e0:	00000014 	andeq	r0, r0, r4, lsl r0
 4e4:	00000468 	andeq	r0, r0, r8, ror #8
 4e8:	00009774 	andeq	r9, r0, r4, ror r7
 4ec:	00000020 	andeq	r0, r0, r0, lsr #32
 4f0:	84080e42 	strhi	r0, [r8], #-3650	; 0xfffff1be
 4f4:	00018e02 	andeq	r8, r1, r2, lsl #28
 4f8:	00000014 	andeq	r0, r0, r4, lsl r0
 4fc:	00000468 	andeq	r0, r0, r8, ror #8
 500:	00009794 	muleq	r0, r4, r7
 504:	00000030 	andeq	r0, r0, r0, lsr r0
 508:	84080e42 	strhi	r0, [r8], #-3650	; 0xfffff1be
 50c:	00018e02 	andeq	r8, r1, r2, lsl #28
 510:	00000014 	andeq	r0, r0, r4, lsl r0
 514:	00000468 	andeq	r0, r0, r8, ror #8
 518:	000097c4 	andeq	r9, r0, r4, asr #15
 51c:	00000030 	andeq	r0, r0, r0, lsr r0
 520:	84080e42 	strhi	r0, [r8], #-3650	; 0xfffff1be
 524:	00018e02 	andeq	r8, r1, r2, lsl #28
 528:	00000014 	andeq	r0, r0, r4, lsl r0
 52c:	00000468 	andeq	r0, r0, r8, ror #8
 530:	000097f4 	strdeq	r9, [r0], -r4
 534:	00000010 	andeq	r0, r0, r0, lsl r0
 538:	84080e42 	strhi	r0, [r8], #-3650	; 0xfffff1be
 53c:	00018e02 	andeq	r8, r1, r2, lsl #28
 540:	00000014 	andeq	r0, r0, r4, lsl r0
 544:	00000468 	andeq	r0, r0, r8, ror #8
 548:	00009804 	andeq	r9, r0, r4, lsl #16
 54c:	00000020 	andeq	r0, r0, r0, lsr #32
 550:	84080e42 	strhi	r0, [r8], #-3650	; 0xfffff1be
 554:	00018e02 	andeq	r8, r1, r2, lsl #28
 558:	00000014 	andeq	r0, r0, r4, lsl r0
 55c:	00000468 	andeq	r0, r0, r8, ror #8
 560:	00009824 	andeq	r9, r0, r4, lsr #16
 564:	00000014 	andeq	r0, r0, r4, lsl r0
 568:	84080e42 	strhi	r0, [r8], #-3650	; 0xfffff1be
 56c:	00018e02 	andeq	r8, r1, r2, lsl #28
 570:	00000014 	andeq	r0, r0, r4, lsl r0
 574:	00000468 	andeq	r0, r0, r8, ror #8
 578:	00009838 	andeq	r9, r0, r8, lsr r8
 57c:	00000024 	andeq	r0, r0, r4, lsr #32
 580:	84080e42 	strhi	r0, [r8], #-3650	; 0xfffff1be
 584:	00018e02 	andeq	r8, r1, r2, lsl #28
 588:	0000000c 	andeq	r0, r0, ip
 58c:	ffffffff 			; <UNDEFINED> instruction: 0xffffffff
 590:	7c020001 	stcvc	0, cr0, [r2], {1}
 594:	000d0c0e 	andeq	r0, sp, lr, lsl #24
 598:	0000000c 	andeq	r0, r0, ip
 59c:	00000588 	andeq	r0, r0, r8, lsl #11
 5a0:	0000985c 	andeq	r9, r0, ip, asr r8
 5a4:	00000010 	andeq	r0, r0, r0, lsl r0
 5a8:	0000000c 	andeq	r0, r0, ip
 5ac:	00000588 	andeq	r0, r0, r8, lsl #11
 5b0:	0000986c 	andeq	r9, r0, ip, ror #16
 5b4:	00000010 	andeq	r0, r0, r0, lsl r0
 5b8:	0000000c 	andeq	r0, r0, ip
 5bc:	00000588 	andeq	r0, r0, r8, lsl #11
 5c0:	0000987c 	andeq	r9, r0, ip, ror r8
 5c4:	00000010 	andeq	r0, r0, r0, lsl r0
 5c8:	0000001c 	andeq	r0, r0, ip, lsl r0
 5cc:	00000588 	andeq	r0, r0, r8, lsl #11
 5d0:	0000988c 	andeq	r9, r0, ip, lsl #17
 5d4:	0000009c 	muleq	r0, ip, r0
 5d8:	8e040e42 	cdphi	14, 0, cr0, cr4, cr2, {2}
 5dc:	100e4201 	andne	r4, lr, r1, lsl #4
 5e0:	040e0a58 	streq	r0, [lr], #-2648	; 0xfffff5a8
 5e4:	00000b42 	andeq	r0, r0, r2, asr #22
 5e8:	00000014 	andeq	r0, r0, r4, lsl r0
 5ec:	00000588 	andeq	r0, r0, r8, lsl #11
 5f0:	00009928 	andeq	r9, r0, r8, lsr #18
 5f4:	00000058 	andeq	r0, r0, r8, asr r0
 5f8:	84080e42 	strhi	r0, [r8], #-3650	; 0xfffff1be
 5fc:	00018e02 	andeq	r8, r1, r2, lsl #28
 600:	0000001c 	andeq	r0, r0, ip, lsl r0
 604:	00000588 	andeq	r0, r0, r8, lsl #11
 608:	00009980 	andeq	r9, r0, r0, lsl #19
 60c:	00000098 	muleq	r0, r8, r0
 610:	8e040e42 	cdphi	14, 0, cr0, cr4, cr2, {2}
 614:	100e4201 	andne	r4, lr, r1, lsl #4
 618:	040e0a58 	streq	r0, [lr], #-2648	; 0xfffff5a8
 61c:	00000b42 	andeq	r0, r0, r2, asr #22
 620:	00000020 	andeq	r0, r0, r0, lsr #32
 624:	00000588 	andeq	r0, r0, r8, lsl #11
 628:	00009a18 	andeq	r9, r0, r8, lsl sl
 62c:	00000064 	andeq	r0, r0, r4, rrx
 630:	840c0e42 	strhi	r0, [ip], #-3650	; 0xfffff1be
 634:	8e028503 	cfsh32hi	mvfx8, mvfx2, #3
 638:	180e4201 	stmdane	lr, {r0, r9, lr}
 63c:	0c0e0a54 			; <UNDEFINED> instruction: 0x0c0e0a54
 640:	00000b42 	andeq	r0, r0, r2, asr #22
 644:	0000001c 	andeq	r0, r0, ip, lsl r0
 648:	00000588 	andeq	r0, r0, r8, lsl #11
 64c:	00009a7c 	andeq	r9, r0, ip, ror sl
 650:	00000118 	andeq	r0, r0, r8, lsl r1
 654:	8e040e42 	cdphi	14, 0, cr0, cr4, cr2, {2}
 658:	100e4201 	andne	r4, lr, r1, lsl #4
 65c:	040e0a6c 	streq	r0, [lr], #-2668	; 0xfffff594
 660:	00000b42 	andeq	r0, r0, r2, asr #22
 664:	0000000c 	andeq	r0, r0, ip
 668:	00000588 	andeq	r0, r0, r8, lsl #11
 66c:	00009b94 	muleq	r0, r4, fp
 670:	00000004 	andeq	r0, r0, r4
 674:	0000000c 	andeq	r0, r0, ip
 678:	00000588 	andeq	r0, r0, r8, lsl #11
 67c:	00009b98 	muleq	r0, r8, fp
 680:	00000014 	andeq	r0, r0, r4, lsl r0
 684:	00000014 	andeq	r0, r0, r4, lsl r0
 688:	00000588 	andeq	r0, r0, r8, lsl #11
 68c:	00009bac 	andeq	r9, r0, ip, lsr #23
 690:	00000060 	andeq	r0, r0, r0, rrx
 694:	8e040e58 	mcrhi	14, 0, r0, cr4, cr8, {2}
 698:	100e4201 	andne	r4, lr, r1, lsl #4
 69c:	0000000c 	andeq	r0, r0, ip
 6a0:	ffffffff 			; <UNDEFINED> instruction: 0xffffffff
 6a4:	7c020001 	stcvc	0, cr0, [r2], {1}
 6a8:	000d0c0e 	andeq	r0, sp, lr, lsl #24
 6ac:	00000014 	andeq	r0, r0, r4, lsl r0
 6b0:	0000069c 	muleq	r0, ip, r6
 6b4:	00009c0c 	andeq	r9, r0, ip, lsl #24
 6b8:	00000014 	andeq	r0, r0, r4, lsl r0
 6bc:	84080e42 	strhi	r0, [r8], #-3650	; 0xfffff1be
 6c0:	00018e02 	andeq	r8, r1, r2, lsl #28
 6c4:	0000000c 	andeq	r0, r0, ip
 6c8:	0000069c 	muleq	r0, ip, r6
 6cc:	00009c20 	andeq	r9, r0, r0, lsr #24
 6d0:	00000018 	andeq	r0, r0, r8, lsl r0
 6d4:	0000000c 	andeq	r0, r0, ip
 6d8:	0000069c 	muleq	r0, ip, r6
 6dc:	00009c38 	andeq	r9, r0, r8, lsr ip
 6e0:	00000010 	andeq	r0, r0, r0, lsl r0
 6e4:	0000000c 	andeq	r0, r0, ip
 6e8:	ffffffff 			; <UNDEFINED> instruction: 0xffffffff
 6ec:	7c020001 	stcvc	0, cr0, [r2], {1}
 6f0:	000d0c0e 	andeq	r0, sp, lr, lsl #24
 6f4:	0000000c 	andeq	r0, r0, ip
 6f8:	000006e4 	andeq	r0, r0, r4, ror #13
 6fc:	00009c48 	andeq	r9, r0, r8, asr #24
 700:	0000002c 	andeq	r0, r0, ip, lsr #32
 704:	0000000c 	andeq	r0, r0, ip
 708:	ffffffff 			; <UNDEFINED> instruction: 0xffffffff
 70c:	7c020001 	stcvc	0, cr0, [r2], {1}
 710:	000d0c0e 	andeq	r0, sp, lr, lsl #24
 714:	0000000c 	andeq	r0, r0, ip
 718:	00000704 	andeq	r0, r0, r4, lsl #14
 71c:	00009c74 	andeq	r9, r0, r4, ror ip
 720:	00000044 	andeq	r0, r0, r4, asr #32
 724:	0000000c 	andeq	r0, r0, ip
 728:	ffffffff 			; <UNDEFINED> instruction: 0xffffffff
 72c:	7c020001 	stcvc	0, cr0, [r2], {1}
 730:	000d0c0e 	andeq	r0, sp, lr, lsl #24
 734:	0000000c 	andeq	r0, r0, ip
 738:	00000724 	andeq	r0, r0, r4, lsr #14
 73c:	00009cb8 			; <UNDEFINED> instruction: 0x00009cb8
 740:	00000018 	andeq	r0, r0, r8, lsl r0
 744:	0000000c 	andeq	r0, r0, ip
 748:	ffffffff 			; <UNDEFINED> instruction: 0xffffffff
 74c:	7c020001 	stcvc	0, cr0, [r2], {1}
 750:	000d0c0e 	andeq	r0, sp, lr, lsl #24
 754:	0000000c 	andeq	r0, r0, ip
 758:	00000744 	andeq	r0, r0, r4, asr #14
 75c:	00009cd0 	ldrdeq	r9, [r0], -r0
 760:	00000030 	andeq	r0, r0, r0, lsr r0
 764:	0000000c 	andeq	r0, r0, ip
 768:	ffffffff 			; <UNDEFINED> instruction: 0xffffffff
 76c:	7c020001 	stcvc	0, cr0, [r2], {1}
 770:	000d0c0e 	andeq	r0, sp, lr, lsl #24
 774:	0000000c 	andeq	r0, r0, ip
 778:	00000764 	andeq	r0, r0, r4, ror #14
 77c:	00009d00 	andeq	r9, r0, r0, lsl #26
 780:	00000004 	andeq	r0, r0, r4

Disassembly of section .debug_loclists:

00000000 <.debug_loclists>:
   0:	00000438 	andeq	r0, r0, r8, lsr r4
   4:	00040005 	andeq	r0, r4, r5
	...
  10:	f8040000 			; <UNDEFINED> instruction: 0xf8040000
  14:	01038802 	tsteq	r3, r2, lsl #16
  18:	03880450 	orreq	r0, r8, #80, 8	; 0x50000000
  1c:	54010390 	strpl	r0, [r1], #-912	; 0xfffffc70
  20:	a0039004 	andge	r9, r3, r4
  24:	01a30403 			; <UNDEFINED> instruction: 0x01a30403
  28:	00009f50 	andeq	r9, r0, r0, asr pc
  2c:	00000000 	andeq	r0, r0, r0
  30:	04000000 	streq	r0, [r0], #-0
  34:	03880384 	orreq	r0, r8, #132, 6	; 0x10000002
  38:	3500700b 	strcc	r7, [r0, #-11]
  3c:	80b42325 	adcshi	r2, r4, r5, lsr #6
  40:	9f028180 	svcls	0x00028180
  44:	8b038804 	blhi	e205c <__bss_end__+0xd7b8c>
  48:	04500103 	ldrbeq	r0, [r0], #-259	; 0xfffffefd
  4c:	0390038b 	orrseq	r0, r0, #738197506	; 0x2c000002
  50:	3500740b 	strcc	r7, [r0, #-1035]	; 0xfffffbf5
  54:	80b42325 	adcshi	r2, r4, r5, lsr #6
  58:	9f028180 	svcls	0x00028180
  5c:	a0039004 	andge	r9, r3, r4
  60:	01a30c03 			; <UNDEFINED> instruction: 0x01a30c03
  64:	23253550 			; <UNDEFINED> instruction: 0x23253550
  68:	818080b4 	strhhi	r8, [r0, r4]
  6c:	01009f02 	tsteq	r0, r2, lsl #30
  70:	00000000 	andeq	r0, r0, r0
  74:	03840400 	orreq	r0, r4, #0, 8
  78:	70050388 	andvc	r0, r5, r8, lsl #7
  7c:	9f1a4f00 	svcls	0x001a4f00
  80:	90038804 	andls	r8, r3, r4, lsl #16
  84:	00740503 	rsbseq	r0, r4, r3, lsl #10
  88:	049f1a4f 	ldreq	r1, [pc], #2639	; 90 <__code_start__-0x7f70>
  8c:	03a00390 	moveq	r0, #144, 6	; 0x40000002
  90:	00005401 	andeq	r5, r0, r1, lsl #8
	...
  9c:	04000000 	streq	r0, [r0], #-0
  a0:	02dc02c8 	sbcseq	r0, ip, #200, 4	; 0x8000000c
  a4:	dc045001 	stcle	0, cr5, [r4], {1}
  a8:	0102e002 	tsteq	r2, r2
  ac:	02e00451 	rsceq	r0, r0, #1358954496	; 0x51000000
  b0:	a30402e4 	movwge	r0, #17124	; 0x42e4
  b4:	049f5001 	ldreq	r5, [pc], #1	; bc <__code_start__-0x7f44>
  b8:	02e802e4 	rsceq	r0, r8, #228, 4	; 0x4000000e
  bc:	e8045001 	stmda	r4, {r0, ip, lr}
  c0:	0102ec02 	tsteq	r2, r2, lsl #24
  c4:	02ec0451 	rsceq	r0, ip, #1358954496	; 0x51000000
  c8:	a30402f8 	movwge	r0, #17144	; 0x42f8
  cc:	009f5001 	addseq	r5, pc, r1
  d0:	00000000 	andeq	r0, r0, r0
  d4:	d402c804 	strle	ip, [r2], #-2052	; 0xfffff7fc
  d8:	04510102 	ldrbeq	r0, [r1], #-258	; 0xfffffefe
  dc:	02f802d4 	rscseq	r0, r8, #212, 4	; 0x4000000d
  e0:	5101a304 	tstpl	r1, r4, lsl #6
  e4:	0001009f 	muleq	r1, pc, r0	; <UNPREDICTABLE>
  e8:	00000000 	andeq	r0, r0, r0
  ec:	dc02d804 	stcle	8, cr13, [r2], {4}
  f0:	04500102 	ldrbeq	r0, [r0], #-258	; 0xfffffefe
  f4:	02e002dc 	rsceq	r0, r0, #220, 4	; 0xc000000d
  f8:	e0045101 	and	r5, r4, r1, lsl #2
  fc:	0402e402 	streq	lr, [r2], #-1026	; 0xfffffbfe
 100:	9f5001a3 	svcls	0x005001a3
 104:	00000200 	andeq	r0, r0, r0, lsl #4
 108:	04000000 	streq	r0, [r0], #-0
 10c:	02e802e4 	rsceq	r0, r8, #228, 4	; 0x4000000e
 110:	e8045001 	stmda	r4, {r0, ip, lr}
 114:	0102ec02 	tsteq	r2, r2, lsl #24
 118:	02ec0451 	rsceq	r0, ip, #1358954496	; 0x51000000
 11c:	a30402f8 	movwge	r0, #17144	; 0x42f8
 120:	009f5001 	addseq	r5, pc, r1
 124:	00000000 	andeq	r0, r0, r0
 128:	f0040000 			; <UNDEFINED> instruction: 0xf0040000
 12c:	01029001 	tsteq	r2, r1
 130:	02900450 	addseq	r0, r0, #80, 8	; 0x50000000
 134:	540102b0 	strpl	r0, [r1], #-688	; 0xfffffd50
 138:	c802b004 	stmdagt	r2, {r2, ip, sp, pc}
 13c:	01a30402 			; <UNDEFINED> instruction: 0x01a30402
 140:	02009f50 	andeq	r9, r0, #80, 30	; 0x140
 144:	00000000 	andeq	r0, r0, r0
 148:	01f00400 	mvnseq	r0, r0, lsl #8
 14c:	50010290 	mulpl	r1, r0, r2
 150:	b0029004 	andlt	r9, r2, r4
 154:	04540102 	ldrbeq	r0, [r4], #-258	; 0xfffffefe
 158:	02c802b0 	sbceq	r0, r8, #176, 4
 15c:	5001a304 	andpl	sl, r1, r4, lsl #6
 160:	0000009f 	muleq	r0, pc, r0	; <UNPREDICTABLE>
 164:	00000000 	andeq	r0, r0, r0
 168:	9001f804 	andls	pc, r1, r4, lsl #16
 16c:	04500102 	ldrbeq	r0, [r0], #-258	; 0xfffffefe
 170:	02b00290 	adcseq	r0, r0, #144, 4
 174:	b0045401 	andlt	r5, r4, r1, lsl #8
 178:	0402c802 	streq	ip, [r2], #-2050	; 0xfffff7fe
 17c:	9f5001a3 	svcls	0x005001a3
 180:	00000300 	andeq	r0, r0, r0, lsl #6
 184:	04000000 	streq	r0, [r0], #-0
 188:	029001f8 	addseq	r0, r0, #62	; 0x3e
 18c:	3a007007 	bcc	1c1b0 <__bss_end__+0x11ce0>
 190:	9f1e331d 	svcls	0x001e331d
 194:	b0029004 	andlt	r9, r2, r4
 198:	00740702 	rsbseq	r0, r4, r2, lsl #14
 19c:	1e331d3a 	mrcne	13, 1, r1, cr3, cr10, {1}
 1a0:	02b0049f 	adcseq	r0, r0, #-1627389952	; 0x9f000000
 1a4:	a30802c8 	movwge	r0, #33480	; 0x82c8
 1a8:	1d3a5001 	ldcne	0, cr5, [sl, #-4]!
 1ac:	009f1e33 	addseq	r1, pc, r3, lsr lr	; <UNPREDICTABLE>
 1b0:	00000000 	andeq	r0, r0, r0
 1b4:	98040000 	stmdals	r4, {}	; <UNPREDICTABLE>
 1b8:	0102c002 	tsteq	r2, r2
 1bc:	02c00456 	sbceq	r0, r0, #1442840576	; 0x56000000
 1c0:	500102c3 	andpl	r0, r1, r3, asr #5
 1c4:	c802c304 	stmdagt	r2, {r2, r8, r9, lr, pc}
 1c8:	01a32602 			; <UNDEFINED> instruction: 0x01a32602
 1cc:	a82da850 	stmdage	sp!, {r4, r6, fp, sp, pc}
 1d0:	0826a426 	stmdaeq	r6!, {r1, r2, r5, sl, sp, pc}
 1d4:	cccccccd 	stclgt	12, cr12, [ip], {205}	; 0xcd
 1d8:	00000000 	andeq	r0, r0, r0
 1dc:	a820081e 	stmdage	r0!, {r1, r2, r3, r4, fp}
 1e0:	2da82526 	cfstr32cs	mvfx2, [r8, #152]!	; 0x98
 1e4:	253300a8 	ldrcs	r0, [r3, #-168]!	; 0xffffff58
 1e8:	a0808023 	addge	r8, r0, r3, lsr #32
 1ec:	9f243240 	svcls	0x00243240
 1f0:	01010000 	mrseq	r0, (UNDEF: 1)
 1f4:	00000000 	andeq	r0, r0, r0
 1f8:	02a80400 	adceq	r0, r8, #0, 8
 1fc:	500102a8 	andpl	r0, r1, r8, lsr #5
 200:	b002a804 	andlt	sl, r2, r4, lsl #16
 204:	74370d02 	ldrtvc	r0, [r7], #-3330	; 0xfffff2fe
 208:	331d3a00 	tstcc	sp, #0, 20
 20c:	7020241e 	eorvc	r2, r0, lr, lsl r4
 210:	049f1a00 	ldreq	r1, [pc], #2560	; 218 <__code_start__-0x7de8>
 214:	02b802b0 	adcseq	r0, r8, #176, 4
 218:	01a3370e 			; <UNDEFINED> instruction: 0x01a3370e
 21c:	331d3a50 	tstcc	sp, #80, 20	; 0x50000
 220:	7020241e 	eorvc	r2, r0, lr, lsl r4
 224:	049f1a00 	ldreq	r1, [pc], #2560	; 22c <__code_start__-0x7dd4>
 228:	02c302b8 	sbceq	r0, r3, #184, 4	; 0x8000000b
 22c:	01a3370e 			; <UNDEFINED> instruction: 0x01a3370e
 230:	331d3a50 	tstcc	sp, #80, 20	; 0x50000
 234:	7320241e 			; <UNDEFINED> instruction: 0x7320241e
 238:	009f1a00 	addseq	r1, pc, r0, lsl #20
 23c:	00000000 	andeq	r0, r0, r0
 240:	01946404 	orrseq	r6, r4, r4, lsl #8
 244:	94045001 	strls	r5, [r4], #-1
 248:	0401c001 	streq	ip, [r1], #-1
 24c:	9f5001a3 	svcls	0x005001a3
 250:	00000200 	andeq	r0, r0, r0, lsl #4
 254:	94640400 	strbtls	r0, [r4], #-1024	; 0xfffffc00
 258:	04500101 	ldrbeq	r0, [r0], #-257	; 0xfffffeff
 25c:	01c00194 			; <UNDEFINED> instruction: 0x01c00194
 260:	5001a304 	andpl	sl, r1, r4, lsl #6
 264:	0000009f 	muleq	r0, pc, r0	; <UNPREDICTABLE>
 268:	6c040000 	stcvs	0, cr0, [r4], {-0}
 26c:	50010194 	mulpl	r1, r4, r1
 270:	c0019404 	andgt	r9, r1, r4, lsl #8
 274:	01a30401 			; <UNDEFINED> instruction: 0x01a30401
 278:	00009f50 	andeq	r9, r0, r0, asr pc
 27c:	04000000 	streq	r0, [r0], #-0
 280:	01b801a8 			; <UNDEFINED> instruction: 0x01b801a8
 284:	b8045401 	stmdalt	r4, {r0, sl, ip, lr}
 288:	2901c001 	stmdbcs	r1, {r0, lr, pc}
 28c:	a35001a3 	cmpge	r0, #-1073741784	; 0xc0000028
 290:	2da85001 	stccs	0, cr5, [r8, #4]!
 294:	26a426a8 	strtcs	r2, [r4], r8, lsr #13
 298:	cccccd08 	stclgt	13, cr12, [ip], {8}
 29c:	000000cc 	andeq	r0, r0, ip, asr #1
 2a0:	20081e00 	andcs	r1, r8, r0, lsl #28
 2a4:	a82526a8 	stmdage	r5!, {r3, r5, r7, r9, sl, sp}
 2a8:	3300a82d 	movwcc	sl, #2093	; 0x82d
 2ac:	311e3525 	tstcc	lr, r5, lsr #10
 2b0:	1e331c24 	cdpne	12, 3, cr1, cr3, cr4, {1}
 2b4:	0001009f 	muleq	r1, pc, r0	; <UNPREDICTABLE>
 2b8:	00000000 	andeq	r0, r0, r0
 2bc:	b801a804 	stmdalt	r1, {r2, fp, sp, pc}
 2c0:	04550101 	ldrbeq	r0, [r5], #-257	; 0xfffffeff
 2c4:	01bb01b8 			; <UNDEFINED> instruction: 0x01bb01b8
 2c8:	bb045001 	bllt	1142d4 <__bss_end__+0x109e04>
 2cc:	2601c001 	strcs	ip, [r1], -r1
 2d0:	a85001a3 	ldmdage	r0, {r0, r1, r5, r7, r8}^
 2d4:	a426a82d 	strtge	sl, [r6], #-2093	; 0xfffff7d3
 2d8:	cccd0826 	stclgt	8, cr0, [sp], {38}	; 0x26
 2dc:	0000cccc 	andeq	ip, r0, ip, asr #25
 2e0:	081e0000 	ldmdaeq	lr, {}	; <UNPREDICTABLE>
 2e4:	2526a820 	strcs	sl, [r6, #-2080]!	; 0xfffff7e0
 2e8:	00a82da8 	adceq	r2, r8, r8, lsr #27
 2ec:	80232533 	eorhi	r2, r3, r3, lsr r5
 2f0:	3240a080 	subcc	sl, r0, #128, 0	; 0x80
 2f4:	02009f24 	andeq	r9, r0, #36, 30	; 0x90
 2f8:	01010000 	mrseq	r0, (UNDEF: 1)
 2fc:	04000000 	streq	r0, [r0], #-0
 300:	01ac01a8 			; <UNDEFINED> instruction: 0x01ac01a8
 304:	ac045001 	stcge	0, cr5, [r4], {1}
 308:	0101ac01 	tsteq	r1, r1, lsl #24
 30c:	01ac0453 			; <UNDEFINED> instruction: 0x01ac0453
 310:	310801b4 			; <UNDEFINED> instruction: 0x310801b4
 314:	73240074 			; <UNDEFINED> instruction: 0x73240074
 318:	049f2100 	ldreq	r2, [pc], #256	; 320 <__code_start__-0x7ce0>
 31c:	01bb01b4 			; <UNDEFINED> instruction: 0x01bb01b4
 320:	00005101 	andeq	r5, r0, r1, lsl #2
 324:	04000000 	streq	r0, [r0], #-0
 328:	50013c00 	andpl	r3, r1, r0, lsl #24
 32c:	04643c04 	strbteq	r3, [r4], #-3076	; 0xfffff3fc
 330:	9f5001a3 	svcls	0x005001a3
 334:	00000000 	andeq	r0, r0, r0
 338:	3f000400 	svccc	0x00000400
 33c:	3f045101 	svccc	0x00045101
 340:	01a30464 			; <UNDEFINED> instruction: 0x01a30464
 344:	00009f51 	andeq	r9, r0, r1, asr pc
 348:	04000000 	streq	r0, [r0], #-0
 34c:	51013f08 	tstpl	r1, r8, lsl #30
 350:	04643f04 	strbteq	r3, [r4], #-3844	; 0xfffff0fc
 354:	9f5101a3 	svcls	0x005101a3
 358:	00000000 	andeq	r0, r0, r0
 35c:	3c080400 	cfstrscc	mvf0, [r8], {-0}
 360:	3c045001 	stccc	0, cr5, [r4], {1}
 364:	01a30464 			; <UNDEFINED> instruction: 0x01a30464
 368:	00009f50 	andeq	r9, r0, r0, asr pc
 36c:	04000000 	streq	r0, [r0], #-0
 370:	54015c4c 	strpl	r5, [r1], #-3148	; 0xfffff3b4
 374:	29645c04 	stmdbcs	r4!, {r2, sl, fp, ip, lr}^
 378:	a35001a3 	cmpge	r0, #-1073741784	; 0xc0000028
 37c:	2da85001 	stccs	0, cr5, [r8, #4]!
 380:	26a426a8 	strtcs	r2, [r4], r8, lsr #13
 384:	cccccd08 	stclgt	13, cr12, [ip], {8}
 388:	000000cc 	andeq	r0, r0, ip, asr #1
 38c:	20081e00 	andcs	r1, r8, r0, lsl #28
 390:	a82526a8 	stmdage	r5!, {r3, r5, r7, r9, sl, sp}
 394:	3300a82d 	movwcc	sl, #2093	; 0x82d
 398:	311e3525 	tstcc	lr, r5, lsr #10
 39c:	1e331c24 	cdpne	12, 3, cr1, cr3, cr4, {1}
 3a0:	0001009f 	muleq	r1, pc, r0	; <UNPREDICTABLE>
 3a4:	00000000 	andeq	r0, r0, r0
 3a8:	015c4c04 	cmpeq	ip, r4, lsl #24
 3ac:	5f5c0456 	svcpl	0x005c0456
 3b0:	5f045001 	svcpl	0x00045001
 3b4:	01a32664 			; <UNDEFINED> instruction: 0x01a32664
 3b8:	a82da850 	stmdage	sp!, {r4, r6, fp, sp, pc}
 3bc:	0826a426 	stmdaeq	r6!, {r1, r2, r5, sl, sp, pc}
 3c0:	cccccccd 	stclgt	12, cr12, [ip], {205}	; 0xcd
 3c4:	00000000 	andeq	r0, r0, r0
 3c8:	a820081e 	stmdage	r0!, {r1, r2, r3, r4, fp}
 3cc:	2da82526 	cfstr32cs	mvfx2, [r8, #152]!	; 0x98
 3d0:	253300a8 	ldrcs	r0, [r3, #-168]!	; 0xffffff58
 3d4:	a0808023 	addge	r8, r0, r3, lsr #32
 3d8:	9f243240 	svcls	0x00243240
 3dc:	00000200 	andeq	r0, r0, r0, lsl #4
 3e0:	04000101 	streq	r0, [r0], #-257	; 0xfffffeff
 3e4:	5001504c 	andpl	r5, r1, ip, asr #32
 3e8:	01505004 	cmpeq	r0, r4
 3ec:	58500451 	ldmdapl	r0, {r0, r4, r6, sl}^
 3f0:	0800750c 	stmdaeq	r0, {r2, r3, r8, sl, ip, sp, lr}
 3f4:	00741aff 	ldrshteq	r1, [r4], #-175	; 0xffffff51
 3f8:	21007124 	tstcs	r0, r4, lsr #2
 3fc:	0000009f 	muleq	r0, pc, r0	; <UNPREDICTABLE>
 400:	00000000 	andeq	r0, r0, r0
 404:	cc01c004 	stcgt	0, cr12, [r1], {4}
 408:	04500101 	ldrbeq	r0, [r0], #-257	; 0xfffffeff
 40c:	01d301cc 	bicseq	r0, r3, ip, asr #3
 410:	d3045301 	movwle	r5, #17153	; 0x4301
 414:	0401d801 	streq	sp, [r1], #-2049	; 0xfffff7ff
 418:	9f5001a3 	svcls	0x005001a3
 41c:	00000000 	andeq	r0, r0, r0
 420:	04000000 	streq	r0, [r0], #-0
 424:	01e401d8 	ldrdeq	r0, [r4, #24]!
 428:	e4045001 	str	r5, [r4], #-1
 42c:	0101eb01 	tsteq	r1, r1, lsl #22
 430:	01eb0453 	mvneq	r0, r3, asr r4
 434:	a30401f0 	movwge	r0, #16880	; 0x41f0
 438:	009f5001 	addseq	r5, pc, r1

Disassembly of section .debug_rnglists:

00000000 <.debug_rnglists>:
   0:	00000057 	andeq	r0, r0, r7, asr r0
   4:	00040005 	andeq	r0, r4, r5
   8:	00000000 	andeq	r0, r0, r0
   c:	040c0804 	streq	r0, [ip], #-2052	; 0xfffff7fc
  10:	5c045814 	stcpl	8, cr5, [r4], {20}
  14:	64040064 	strvs	r0, [r4], #-100	; 0xffffff9c
  18:	b4740470 	ldrbtlt	r0, [r4], #-1136	; 0xfffffb90
  1c:	01b80401 			; <UNDEFINED> instruction: 0x01b80401
  20:	040001c0 	streq	r0, [r0], #-448	; 0xfffffe40
  24:	7404706c 	strvc	r7, [r4], #-108	; 0xffffff94
  28:	b80401b4 	stmdalt	r4, {r2, r4, r5, r7, r8}
  2c:	0001c001 	andeq	ip, r1, r1
  30:	f801f004 			; <UNDEFINED> instruction: 0xf801f004
  34:	01fc0401 	mvnseq	r0, r1, lsl #8
  38:	c00402bc 			; <UNDEFINED> instruction: 0xc00402bc
  3c:	0002c802 	andeq	ip, r2, r2, lsl #16
  40:	f801f804 			; <UNDEFINED> instruction: 0xf801f804
  44:	01fc0401 	mvnseq	r0, r1, lsl #8
  48:	c00402bc 			; <UNDEFINED> instruction: 0xc00402bc
  4c:	0002c802 	andeq	ip, r2, r2, lsl #16
  50:	d002cc04 	andle	ip, r2, r4, lsl #24
  54:	02d80402 	sbcseq	r0, r8, #33554432	; 0x2000000
  58:	Address 0x0000000000000058 is out of bounds.

