
4-cycle.elf:     file format elf32-littlearm


Disassembly of section .text:

00008000 <__code_start__>:
    8000:	e3a00013 	mov	r0, #19, 0
    8004:	e3800080 	orr	r0, r0, #128, 0	; 0x80
    8008:	e129f000 	msr	CPSR_fc, r0
    800c:	e3a01000 	mov	r1, #0, 0
    8010:	ee071f95 	mcr	15, 0, r1, cr7, cr5, {4}
    8014:	e3a0d302 	mov	sp, #134217728	; 0x8000000
    8018:	e3a0b000 	mov	fp, #0, 0
    801c:	eb0004f1 	bl	93e8 <_cstart>
    8020:	eb00053a 	bl	9510 <rpi_reboot>

00008024 <PUT32>:
    8024:	e5801000 	str	r1, [r0]
    8028:	e12fff1e 	bx	lr

0000802c <GET32>:
    802c:	e5900000 	ldr	r0, [r0]
    8030:	e12fff1e 	bx	lr

00008034 <BRANCHTO>:
    8034:	e12fff10 	bx	r0
	...

00008040 <notmain>:
    8040:	e92d4ff0 	push	{r4, r5, r6, r7, r8, r9, sl, fp, lr}
    8044:	e24dd014 	sub	sp, sp, #20, 0
    8048:	eb0004d3 	bl	939c <enable_cache>
    804c:	e3a00015 	mov	r0, #21, 0
    8050:	eb0001d3 	bl	87a4 <gpio_set_output>
    8054:	e3a01010 	mov	r1, #16, 0
    8058:	e3a00015 	mov	r0, #21, 0
    805c:	eb0000af 	bl	8320 <neopix_init>
    8060:	e3a0a000 	mov	sl, #0, 0
    8064:	e1a06000 	mov	r6, r0
    8068:	e58da00c 	str	sl, [sp, #12]
    806c:	e3a08000 	mov	r8, #0, 0
    8070:	e59d900c 	ldr	r9, [sp, #12]
    8074:	e6efb07a 	uxtb	fp, sl
    8078:	e1a05009 	mov	r5, r9
    807c:	e3a04000 	mov	r4, #0, 0
    8080:	e6ef7078 	uxtb	r7, r8
    8084:	e6ef1074 	uxtb	r1, r4
    8088:	e1a03007 	mov	r3, r7
    808c:	e1a0200b 	mov	r2, fp
    8090:	e1a00006 	mov	r0, r6
    8094:	e58d1000 	str	r1, [sp]
    8098:	e205100f 	and	r1, r5, #15, 0
    809c:	eb00019f 	bl	8720 <neopix_write>
    80a0:	e1a00006 	mov	r0, r6
    80a4:	eb000015 	bl	8100 <neopix_flush>
    80a8:	e2844005 	add	r4, r4, #5, 0
    80ac:	e3a00064 	mov	r0, #100, 0	; 0x64
    80b0:	eb00054c 	bl	95e8 <delay_ms>
    80b4:	e3540f41 	cmp	r4, #260	; 0x104
    80b8:	e2855001 	add	r5, r5, #1, 0
    80bc:	1afffff0 	bne	8084 <notmain+0x44>
    80c0:	e2888005 	add	r8, r8, #5, 0
    80c4:	e3580f41 	cmp	r8, #260	; 0x104
    80c8:	e2899034 	add	r9, r9, #52, 0	; 0x34
    80cc:	1affffe9 	bne	8078 <notmain+0x38>
    80d0:	e59d300c 	ldr	r3, [sp, #12]
    80d4:	e28aa005 	add	sl, sl, #5, 0
    80d8:	e2833ea9 	add	r3, r3, #2704	; 0xa90
    80dc:	e35a0f41 	cmp	sl, #260	; 0x104
    80e0:	e58d300c 	str	r3, [sp, #12]
    80e4:	1affffe0 	bne	806c <notmain+0x2c>
    80e8:	e59f0008 	ldr	r0, [pc, #8]	; 80f8 <notmain+0xb8>
    80ec:	e28dd014 	add	sp, sp, #20, 0
    80f0:	e8bd4ff0 	pop	{r4, r5, r6, r7, r8, r9, sl, fp, lr}
    80f4:	ea000217 	b	8958 <printk>
    80f8:	00009d40 	andeq	r9, r0, r0, asr #26
    80fc:	00000000 	andeq	r0, r0, r0

00008100 <neopix_flush>:
    8100:	e92d41f0 	push	{r4, r5, r6, r7, r8, lr}
    8104:	ee1fcf3c 	mrc	15, 0, ip, cr15, cr12, {1}
    8108:	e3a01001 	mov	r1, #1, 0
    810c:	e5d03000 	ldrb	r3, [r0]
    8110:	e59f2200 	ldr	r2, [pc, #512]	; 8318 <neopix_flush+0x218>
    8114:	e1a03311 	lsl	r3, r1, r3
    8118:	e59f11fc 	ldr	r1, [pc, #508]	; 831c <neopix_flush+0x21c>
    811c:	e5823028 	str	r3, [r2, #40]	; 0x28
    8120:	ee1f2f3c 	mrc	15, 0, r2, cr15, cr12, {1}
    8124:	e042200c 	sub	r2, r2, ip
    8128:	e1520001 	cmp	r2, r1
    812c:	9afffffb 	bls	8120 <neopix_flush+0x20>
    8130:	e5905004 	ldr	r5, [r0, #4]
    8134:	e3550000 	cmp	r5, #0, 0
    8138:	08bd81f0 	popeq	{r4, r5, r6, r7, r8, pc}
    813c:	e3a0e000 	mov	lr, #0, 0
    8140:	e0855085 	add	r5, r5, r5, lsl #1
    8144:	e59f21cc 	ldr	r2, [pc, #460]	; 8318 <neopix_flush+0x218>
    8148:	e0805005 	add	r5, r0, r5
    814c:	e3a01000 	mov	r1, #0, 0
    8150:	e5d06008 	ldrb	r6, [r0, #8]
    8154:	e5d0400a 	ldrb	r4, [r0, #10]
    8158:	e5d07009 	ldrb	r7, [r0, #9]
    815c:	e1a0c157 	asr	ip, r7, r1
    8160:	e31c0001 	tst	ip, #1, 0
    8164:	0a00005b 	beq	82d8 <neopix_flush+0x1d8>
    8168:	ee1f8f3c 	mrc	15, 0, r8, cr15, cr12, {1}
    816c:	e582301c 	str	r3, [r2, #28]
    8170:	ee1fcf3c 	mrc	15, 0, ip, cr15, cr12, {1}
    8174:	e04cc008 	sub	ip, ip, r8
    8178:	e35c0e27 	cmp	ip, #624	; 0x270
    817c:	9afffffb 	bls	8170 <neopix_flush+0x70>
    8180:	ee1f8f3c 	mrc	15, 0, r8, cr15, cr12, {1}
    8184:	e5823028 	str	r3, [r2, #40]	; 0x28
    8188:	ee1fcf3c 	mrc	15, 0, ip, cr15, cr12, {1}
    818c:	e04cc008 	sub	ip, ip, r8
    8190:	e35c00ef 	cmp	ip, #239, 0	; 0xef
    8194:	9afffffb 	bls	8188 <neopix_flush+0x88>
    8198:	e2811001 	add	r1, r1, #1, 0
    819c:	e3510008 	cmp	r1, #8, 0
    81a0:	1affffed 	bne	815c <neopix_flush+0x5c>
    81a4:	e3a01000 	mov	r1, #0, 0
    81a8:	e1a0c156 	asr	ip, r6, r1
    81ac:	e31c0001 	tst	ip, #1, 0
    81b0:	0a000038 	beq	8298 <neopix_flush+0x198>
    81b4:	ee1f7f3c 	mrc	15, 0, r7, cr15, cr12, {1}
    81b8:	e582301c 	str	r3, [r2, #28]
    81bc:	ee1fcf3c 	mrc	15, 0, ip, cr15, cr12, {1}
    81c0:	e04cc007 	sub	ip, ip, r7
    81c4:	e35c0e27 	cmp	ip, #624	; 0x270
    81c8:	9afffffb 	bls	81bc <neopix_flush+0xbc>
    81cc:	ee1f7f3c 	mrc	15, 0, r7, cr15, cr12, {1}
    81d0:	e5823028 	str	r3, [r2, #40]	; 0x28
    81d4:	ee1fcf3c 	mrc	15, 0, ip, cr15, cr12, {1}
    81d8:	e04cc007 	sub	ip, ip, r7
    81dc:	e35c00ef 	cmp	ip, #239, 0	; 0xef
    81e0:	9afffffb 	bls	81d4 <neopix_flush+0xd4>
    81e4:	e2811001 	add	r1, r1, #1, 0
    81e8:	e3510008 	cmp	r1, #8, 0
    81ec:	1affffed 	bne	81a8 <neopix_flush+0xa8>
    81f0:	e3a01000 	mov	r1, #0, 0
    81f4:	e1a0c154 	asr	ip, r4, r1
    81f8:	e31c0001 	tst	ip, #1, 0
    81fc:	0a000015 	beq	8258 <neopix_flush+0x158>
    8200:	ee1f6f3c 	mrc	15, 0, r6, cr15, cr12, {1}
    8204:	e582301c 	str	r3, [r2, #28]
    8208:	ee1fcf3c 	mrc	15, 0, ip, cr15, cr12, {1}
    820c:	e04cc006 	sub	ip, ip, r6
    8210:	e35c0e27 	cmp	ip, #624	; 0x270
    8214:	9afffffb 	bls	8208 <neopix_flush+0x108>
    8218:	ee1f6f3c 	mrc	15, 0, r6, cr15, cr12, {1}
    821c:	e5823028 	str	r3, [r2, #40]	; 0x28
    8220:	ee1fcf3c 	mrc	15, 0, ip, cr15, cr12, {1}
    8224:	e04cc006 	sub	ip, ip, r6
    8228:	e35c00ef 	cmp	ip, #239, 0	; 0xef
    822c:	9afffffb 	bls	8220 <neopix_flush+0x120>
    8230:	e2811001 	add	r1, r1, #1, 0
    8234:	e3510008 	cmp	r1, #8, 0
    8238:	1affffed 	bne	81f4 <neopix_flush+0xf4>
    823c:	e5c0e008 	strb	lr, [r0, #8]
    8240:	e5c0e009 	strb	lr, [r0, #9]
    8244:	e5c0e00a 	strb	lr, [r0, #10]
    8248:	e2800003 	add	r0, r0, #3, 0
    824c:	e1550000 	cmp	r5, r0
    8250:	1affffbd 	bne	814c <neopix_flush+0x4c>
    8254:	e8bd81f0 	pop	{r4, r5, r6, r7, r8, pc}
    8258:	ee1f6f3c 	mrc	15, 0, r6, cr15, cr12, {1}
    825c:	e582301c 	str	r3, [r2, #28]
    8260:	ee1fcf3c 	mrc	15, 0, ip, cr15, cr12, {1}
    8264:	e04cc006 	sub	ip, ip, r6
    8268:	e35c00ef 	cmp	ip, #239, 0	; 0xef
    826c:	9afffffb 	bls	8260 <neopix_flush+0x160>
    8270:	ee1f6f3c 	mrc	15, 0, r6, cr15, cr12, {1}
    8274:	e5823028 	str	r3, [r2, #40]	; 0x28
    8278:	ee1fcf3c 	mrc	15, 0, ip, cr15, cr12, {1}
    827c:	e04cc006 	sub	ip, ip, r6
    8280:	e35c0e27 	cmp	ip, #624	; 0x270
    8284:	9afffffb 	bls	8278 <neopix_flush+0x178>
    8288:	e2811001 	add	r1, r1, #1, 0
    828c:	e3510008 	cmp	r1, #8, 0
    8290:	1affffd7 	bne	81f4 <neopix_flush+0xf4>
    8294:	eaffffe8 	b	823c <neopix_flush+0x13c>
    8298:	ee1f7f3c 	mrc	15, 0, r7, cr15, cr12, {1}
    829c:	e582301c 	str	r3, [r2, #28]
    82a0:	ee1fcf3c 	mrc	15, 0, ip, cr15, cr12, {1}
    82a4:	e04cc007 	sub	ip, ip, r7
    82a8:	e35c00ef 	cmp	ip, #239, 0	; 0xef
    82ac:	9afffffb 	bls	82a0 <neopix_flush+0x1a0>
    82b0:	ee1f7f3c 	mrc	15, 0, r7, cr15, cr12, {1}
    82b4:	e5823028 	str	r3, [r2, #40]	; 0x28
    82b8:	ee1fcf3c 	mrc	15, 0, ip, cr15, cr12, {1}
    82bc:	e04cc007 	sub	ip, ip, r7
    82c0:	e35c0e27 	cmp	ip, #624	; 0x270
    82c4:	9afffffb 	bls	82b8 <neopix_flush+0x1b8>
    82c8:	e2811001 	add	r1, r1, #1, 0
    82cc:	e3510008 	cmp	r1, #8, 0
    82d0:	1affffb4 	bne	81a8 <neopix_flush+0xa8>
    82d4:	eaffffc5 	b	81f0 <neopix_flush+0xf0>
    82d8:	ee1f8f3c 	mrc	15, 0, r8, cr15, cr12, {1}
    82dc:	e582301c 	str	r3, [r2, #28]
    82e0:	ee1fcf3c 	mrc	15, 0, ip, cr15, cr12, {1}
    82e4:	e04cc008 	sub	ip, ip, r8
    82e8:	e35c00ef 	cmp	ip, #239, 0	; 0xef
    82ec:	9afffffb 	bls	82e0 <neopix_flush+0x1e0>
    82f0:	ee1f8f3c 	mrc	15, 0, r8, cr15, cr12, {1}
    82f4:	e5823028 	str	r3, [r2, #40]	; 0x28
    82f8:	ee1fcf3c 	mrc	15, 0, ip, cr15, cr12, {1}
    82fc:	e04cc008 	sub	ip, ip, r8
    8300:	e35c0e27 	cmp	ip, #624	; 0x270
    8304:	9afffffb 	bls	82f8 <neopix_flush+0x1f8>
    8308:	e2811001 	add	r1, r1, #1, 0
    830c:	e3510008 	cmp	r1, #8, 0
    8310:	1affff91 	bne	815c <neopix_flush+0x5c>
    8314:	eaffffa2 	b	81a4 <neopix_flush+0xa4>
    8318:	20200000 	eorcs	r0, r0, r0
    831c:	000088b2 			; <UNDEFINED> instruction: 0x000088b2

00008320 <neopix_init>:
    8320:	e92d41f0 	push	{r4, r5, r6, r7, r8, lr}
    8324:	e0817081 	add	r7, r1, r1, lsl #1
    8328:	e2877008 	add	r7, r7, #8, 0
    832c:	e1a06000 	mov	r6, r0
    8330:	e1a00007 	mov	r0, r7
    8334:	e1a05001 	mov	r5, r1
    8338:	eb0005be 	bl	9a38 <kmalloc>
    833c:	e1a04000 	mov	r4, r0
    8340:	e1a02007 	mov	r2, r7
    8344:	e3a01000 	mov	r1, #0, 0
    8348:	eb000164 	bl	88e0 <memset>
    834c:	e1a00006 	mov	r0, r6
    8350:	e5845004 	str	r5, [r4, #4]
    8354:	e5c46000 	strb	r6, [r4]
    8358:	eb000111 	bl	87a4 <gpio_set_output>
    835c:	e1a00004 	mov	r0, r4
    8360:	e8bd81f0 	pop	{r4, r5, r6, r7, r8, pc}
    8364:	e320f000 	nop	{0}
    8368:	e320f000 	nop	{0}
    836c:	e320f000 	nop	{0}

00008370 <neopix_sendpixel>:
    8370:	e92d4030 	push	{r4, r5, lr}
    8374:	e3a04001 	mov	r4, #1, 0
    8378:	e3a0e000 	mov	lr, #0, 0
    837c:	e5d00000 	ldrb	r0, [r0]
    8380:	e59fc1a8 	ldr	ip, [pc, #424]	; 8530 <neopix_sendpixel+0x1c0>
    8384:	e1a00014 	lsl	r0, r4, r0
    8388:	e1a04e52 	asr	r4, r2, lr
    838c:	e3140001 	tst	r4, #1, 0
    8390:	0a000056 	beq	84f0 <neopix_sendpixel+0x180>
    8394:	ee1f5f3c 	mrc	15, 0, r5, cr15, cr12, {1}
    8398:	e58c001c 	str	r0, [ip, #28]
    839c:	ee1f4f3c 	mrc	15, 0, r4, cr15, cr12, {1}
    83a0:	e0444005 	sub	r4, r4, r5
    83a4:	e3540e27 	cmp	r4, #624	; 0x270
    83a8:	9afffffb 	bls	839c <neopix_sendpixel+0x2c>
    83ac:	ee1f5f3c 	mrc	15, 0, r5, cr15, cr12, {1}
    83b0:	e58c0028 	str	r0, [ip, #40]	; 0x28
    83b4:	ee1f4f3c 	mrc	15, 0, r4, cr15, cr12, {1}
    83b8:	e0444005 	sub	r4, r4, r5
    83bc:	e35400ef 	cmp	r4, #239, 0	; 0xef
    83c0:	9afffffb 	bls	83b4 <neopix_sendpixel+0x44>
    83c4:	e28ee001 	add	lr, lr, #1, 0
    83c8:	e35e0008 	cmp	lr, #8, 0
    83cc:	1affffed 	bne	8388 <neopix_sendpixel+0x18>
    83d0:	e3a0c000 	mov	ip, #0, 0
    83d4:	e59f2154 	ldr	r2, [pc, #340]	; 8530 <neopix_sendpixel+0x1c0>
    83d8:	e1a0ec51 	asr	lr, r1, ip
    83dc:	e31e0001 	tst	lr, #1, 0
    83e0:	0a000032 	beq	84b0 <neopix_sendpixel+0x140>
    83e4:	ee1f4f3c 	mrc	15, 0, r4, cr15, cr12, {1}
    83e8:	e582001c 	str	r0, [r2, #28]
    83ec:	ee1fef3c 	mrc	15, 0, lr, cr15, cr12, {1}
    83f0:	e04ee004 	sub	lr, lr, r4
    83f4:	e35e0e27 	cmp	lr, #624	; 0x270
    83f8:	9afffffb 	bls	83ec <neopix_sendpixel+0x7c>
    83fc:	ee1f4f3c 	mrc	15, 0, r4, cr15, cr12, {1}
    8400:	e5820028 	str	r0, [r2, #40]	; 0x28
    8404:	ee1fef3c 	mrc	15, 0, lr, cr15, cr12, {1}
    8408:	e04ee004 	sub	lr, lr, r4
    840c:	e35e00ef 	cmp	lr, #239, 0	; 0xef
    8410:	9afffffb 	bls	8404 <neopix_sendpixel+0x94>
    8414:	e28cc001 	add	ip, ip, #1, 0
    8418:	e35c0008 	cmp	ip, #8, 0
    841c:	1affffed 	bne	83d8 <neopix_sendpixel+0x68>
    8420:	e3a01000 	mov	r1, #0, 0
    8424:	e1a0c153 	asr	ip, r3, r1
    8428:	e31c0001 	tst	ip, #1, 0
    842c:	e59f20fc 	ldr	r2, [pc, #252]	; 8530 <neopix_sendpixel+0x1c0>
    8430:	0a000011 	beq	847c <neopix_sendpixel+0x10c>
    8434:	ee1fef3c 	mrc	15, 0, lr, cr15, cr12, {1}
    8438:	e582001c 	str	r0, [r2, #28]
    843c:	ee1fcf3c 	mrc	15, 0, ip, cr15, cr12, {1}
    8440:	e04cc00e 	sub	ip, ip, lr
    8444:	e35c0e27 	cmp	ip, #624	; 0x270
    8448:	9afffffb 	bls	843c <neopix_sendpixel+0xcc>
    844c:	ee1fef3c 	mrc	15, 0, lr, cr15, cr12, {1}
    8450:	e5820028 	str	r0, [r2, #40]	; 0x28
    8454:	ee1fcf3c 	mrc	15, 0, ip, cr15, cr12, {1}
    8458:	e04cc00e 	sub	ip, ip, lr
    845c:	e35c00ef 	cmp	ip, #239, 0	; 0xef
    8460:	9afffffb 	bls	8454 <neopix_sendpixel+0xe4>
    8464:	e2811001 	add	r1, r1, #1, 0
    8468:	e3510008 	cmp	r1, #8, 0
    846c:	08bd8030 	popeq	{r4, r5, pc}
    8470:	e1a0c153 	asr	ip, r3, r1
    8474:	e31c0001 	tst	ip, #1, 0
    8478:	1affffed 	bne	8434 <neopix_sendpixel+0xc4>
    847c:	ee1fef3c 	mrc	15, 0, lr, cr15, cr12, {1}
    8480:	e582001c 	str	r0, [r2, #28]
    8484:	ee1fcf3c 	mrc	15, 0, ip, cr15, cr12, {1}
    8488:	e04cc00e 	sub	ip, ip, lr
    848c:	e35c00ef 	cmp	ip, #239, 0	; 0xef
    8490:	9afffffb 	bls	8484 <neopix_sendpixel+0x114>
    8494:	ee1fef3c 	mrc	15, 0, lr, cr15, cr12, {1}
    8498:	e5820028 	str	r0, [r2, #40]	; 0x28
    849c:	ee1fcf3c 	mrc	15, 0, ip, cr15, cr12, {1}
    84a0:	e04cc00e 	sub	ip, ip, lr
    84a4:	e35c0e27 	cmp	ip, #624	; 0x270
    84a8:	9afffffb 	bls	849c <neopix_sendpixel+0x12c>
    84ac:	eaffffec 	b	8464 <neopix_sendpixel+0xf4>
    84b0:	ee1f4f3c 	mrc	15, 0, r4, cr15, cr12, {1}
    84b4:	e582001c 	str	r0, [r2, #28]
    84b8:	ee1fef3c 	mrc	15, 0, lr, cr15, cr12, {1}
    84bc:	e04ee004 	sub	lr, lr, r4
    84c0:	e35e00ef 	cmp	lr, #239, 0	; 0xef
    84c4:	9afffffb 	bls	84b8 <neopix_sendpixel+0x148>
    84c8:	ee1f4f3c 	mrc	15, 0, r4, cr15, cr12, {1}
    84cc:	e5820028 	str	r0, [r2, #40]	; 0x28
    84d0:	ee1fef3c 	mrc	15, 0, lr, cr15, cr12, {1}
    84d4:	e04ee004 	sub	lr, lr, r4
    84d8:	e35e0e27 	cmp	lr, #624	; 0x270
    84dc:	9afffffb 	bls	84d0 <neopix_sendpixel+0x160>
    84e0:	e28cc001 	add	ip, ip, #1, 0
    84e4:	e35c0008 	cmp	ip, #8, 0
    84e8:	1affffba 	bne	83d8 <neopix_sendpixel+0x68>
    84ec:	eaffffcb 	b	8420 <neopix_sendpixel+0xb0>
    84f0:	ee1f5f3c 	mrc	15, 0, r5, cr15, cr12, {1}
    84f4:	e58c001c 	str	r0, [ip, #28]
    84f8:	ee1f4f3c 	mrc	15, 0, r4, cr15, cr12, {1}
    84fc:	e0444005 	sub	r4, r4, r5
    8500:	e35400ef 	cmp	r4, #239, 0	; 0xef
    8504:	9afffffb 	bls	84f8 <neopix_sendpixel+0x188>
    8508:	ee1f5f3c 	mrc	15, 0, r5, cr15, cr12, {1}
    850c:	e58c0028 	str	r0, [ip, #40]	; 0x28
    8510:	ee1f4f3c 	mrc	15, 0, r4, cr15, cr12, {1}
    8514:	e0444005 	sub	r4, r4, r5
    8518:	e3540e27 	cmp	r4, #624	; 0x270
    851c:	9afffffb 	bls	8510 <neopix_sendpixel+0x1a0>
    8520:	e28ee001 	add	lr, lr, #1, 0
    8524:	e35e0008 	cmp	lr, #8, 0
    8528:	1affff96 	bne	8388 <neopix_sendpixel+0x18>
    852c:	eaffffa7 	b	83d0 <neopix_sendpixel+0x60>
    8530:	20200000 	eorcs	r0, r0, r0
    8534:	e320f000 	nop	{0}
    8538:	e320f000 	nop	{0}
    853c:	e320f000 	nop	{0}

00008540 <neopix_fast_clear>:
    8540:	e3510000 	cmp	r1, #0, 0
    8544:	0a000037 	beq	8628 <neopix_fast_clear+0xe8>
    8548:	e3a0c001 	mov	ip, #1, 0
    854c:	e92d4030 	push	{r4, r5, lr}
    8550:	e3a0e000 	mov	lr, #0, 0
    8554:	e5d03000 	ldrb	r3, [r0]
    8558:	e59f20cc 	ldr	r2, [pc, #204]	; 862c <neopix_fast_clear+0xec>
    855c:	e1a0331c 	lsl	r3, ip, r3
    8560:	e3a04008 	mov	r4, #8, 0
    8564:	ee1f5f3c 	mrc	15, 0, r5, cr15, cr12, {1}
    8568:	e582301c 	str	r3, [r2, #28]
    856c:	ee1fcf3c 	mrc	15, 0, ip, cr15, cr12, {1}
    8570:	e04cc005 	sub	ip, ip, r5
    8574:	e35c00ef 	cmp	ip, #239, 0	; 0xef
    8578:	9afffffb 	bls	856c <neopix_fast_clear+0x2c>
    857c:	ee1f5f3c 	mrc	15, 0, r5, cr15, cr12, {1}
    8580:	e5823028 	str	r3, [r2, #40]	; 0x28
    8584:	ee1fcf3c 	mrc	15, 0, ip, cr15, cr12, {1}
    8588:	e04cc005 	sub	ip, ip, r5
    858c:	e35c0e27 	cmp	ip, #624	; 0x270
    8590:	9afffffb 	bls	8584 <neopix_fast_clear+0x44>
    8594:	e2544001 	subs	r4, r4, #1, 0
    8598:	1afffff1 	bne	8564 <neopix_fast_clear+0x24>
    859c:	e3a04008 	mov	r4, #8, 0
    85a0:	ee1f5f3c 	mrc	15, 0, r5, cr15, cr12, {1}
    85a4:	e582301c 	str	r3, [r2, #28]
    85a8:	ee1fcf3c 	mrc	15, 0, ip, cr15, cr12, {1}
    85ac:	e04cc005 	sub	ip, ip, r5
    85b0:	e35c00ef 	cmp	ip, #239, 0	; 0xef
    85b4:	9afffffb 	bls	85a8 <neopix_fast_clear+0x68>
    85b8:	ee1f5f3c 	mrc	15, 0, r5, cr15, cr12, {1}
    85bc:	e5823028 	str	r3, [r2, #40]	; 0x28
    85c0:	ee1fcf3c 	mrc	15, 0, ip, cr15, cr12, {1}
    85c4:	e04cc005 	sub	ip, ip, r5
    85c8:	e35c0e27 	cmp	ip, #624	; 0x270
    85cc:	9afffffb 	bls	85c0 <neopix_fast_clear+0x80>
    85d0:	e2544001 	subs	r4, r4, #1, 0
    85d4:	1afffff1 	bne	85a0 <neopix_fast_clear+0x60>
    85d8:	e3a04008 	mov	r4, #8, 0
    85dc:	ee1f5f3c 	mrc	15, 0, r5, cr15, cr12, {1}
    85e0:	e582301c 	str	r3, [r2, #28]
    85e4:	ee1fcf3c 	mrc	15, 0, ip, cr15, cr12, {1}
    85e8:	e04cc005 	sub	ip, ip, r5
    85ec:	e35c00ef 	cmp	ip, #239, 0	; 0xef
    85f0:	9afffffb 	bls	85e4 <neopix_fast_clear+0xa4>
    85f4:	ee1f5f3c 	mrc	15, 0, r5, cr15, cr12, {1}
    85f8:	e5823028 	str	r3, [r2, #40]	; 0x28
    85fc:	ee1fcf3c 	mrc	15, 0, ip, cr15, cr12, {1}
    8600:	e04cc005 	sub	ip, ip, r5
    8604:	e35c0e27 	cmp	ip, #624	; 0x270
    8608:	9afffffb 	bls	85fc <neopix_fast_clear+0xbc>
    860c:	e2544001 	subs	r4, r4, #1, 0
    8610:	1afffff1 	bne	85dc <neopix_fast_clear+0x9c>
    8614:	e28ee001 	add	lr, lr, #1, 0
    8618:	e15e0001 	cmp	lr, r1
    861c:	1affffcf 	bne	8560 <neopix_fast_clear+0x20>
    8620:	e8bd4030 	pop	{r4, r5, lr}
    8624:	eafffeb5 	b	8100 <neopix_flush>
    8628:	eafffeb4 	b	8100 <neopix_flush>
    862c:	20200000 	eorcs	r0, r0, r0

00008630 <neopix_clear>:
    8630:	e92d4030 	push	{r4, r5, lr}
    8634:	e5904004 	ldr	r4, [r0, #4]
    8638:	e3540000 	cmp	r4, #0, 0
    863c:	0a000034 	beq	8714 <neopix_clear+0xe4>
    8640:	e3a01001 	mov	r1, #1, 0
    8644:	e3a0e000 	mov	lr, #0, 0
    8648:	e5d03000 	ldrb	r3, [r0]
    864c:	e59f20c8 	ldr	r2, [pc, #200]	; 871c <neopix_clear+0xec>
    8650:	e1a03311 	lsl	r3, r1, r3
    8654:	e3a01008 	mov	r1, #8, 0
    8658:	ee1f5f3c 	mrc	15, 0, r5, cr15, cr12, {1}
    865c:	e582301c 	str	r3, [r2, #28]
    8660:	ee1fcf3c 	mrc	15, 0, ip, cr15, cr12, {1}
    8664:	e04cc005 	sub	ip, ip, r5
    8668:	e35c00ef 	cmp	ip, #239, 0	; 0xef
    866c:	9afffffb 	bls	8660 <neopix_clear+0x30>
    8670:	ee1f5f3c 	mrc	15, 0, r5, cr15, cr12, {1}
    8674:	e5823028 	str	r3, [r2, #40]	; 0x28
    8678:	ee1fcf3c 	mrc	15, 0, ip, cr15, cr12, {1}
    867c:	e04cc005 	sub	ip, ip, r5
    8680:	e35c0e27 	cmp	ip, #624	; 0x270
    8684:	9afffffb 	bls	8678 <neopix_clear+0x48>
    8688:	e2511001 	subs	r1, r1, #1, 0
    868c:	1afffff1 	bne	8658 <neopix_clear+0x28>
    8690:	e3a01008 	mov	r1, #8, 0
    8694:	ee1f5f3c 	mrc	15, 0, r5, cr15, cr12, {1}
    8698:	e582301c 	str	r3, [r2, #28]
    869c:	ee1fcf3c 	mrc	15, 0, ip, cr15, cr12, {1}
    86a0:	e04cc005 	sub	ip, ip, r5
    86a4:	e35c00ef 	cmp	ip, #239, 0	; 0xef
    86a8:	9afffffb 	bls	869c <neopix_clear+0x6c>
    86ac:	ee1f5f3c 	mrc	15, 0, r5, cr15, cr12, {1}
    86b0:	e5823028 	str	r3, [r2, #40]	; 0x28
    86b4:	ee1fcf3c 	mrc	15, 0, ip, cr15, cr12, {1}
    86b8:	e04cc005 	sub	ip, ip, r5
    86bc:	e35c0e27 	cmp	ip, #624	; 0x270
    86c0:	9afffffb 	bls	86b4 <neopix_clear+0x84>
    86c4:	e2511001 	subs	r1, r1, #1, 0
    86c8:	1afffff1 	bne	8694 <neopix_clear+0x64>
    86cc:	e3a01008 	mov	r1, #8, 0
    86d0:	ee1f5f3c 	mrc	15, 0, r5, cr15, cr12, {1}
    86d4:	e582301c 	str	r3, [r2, #28]
    86d8:	ee1fcf3c 	mrc	15, 0, ip, cr15, cr12, {1}
    86dc:	e04cc005 	sub	ip, ip, r5
    86e0:	e35c00ef 	cmp	ip, #239, 0	; 0xef
    86e4:	9afffffb 	bls	86d8 <neopix_clear+0xa8>
    86e8:	ee1f5f3c 	mrc	15, 0, r5, cr15, cr12, {1}
    86ec:	e5823028 	str	r3, [r2, #40]	; 0x28
    86f0:	ee1fcf3c 	mrc	15, 0, ip, cr15, cr12, {1}
    86f4:	e04cc005 	sub	ip, ip, r5
    86f8:	e35c0e27 	cmp	ip, #624	; 0x270
    86fc:	9afffffb 	bls	86f0 <neopix_clear+0xc0>
    8700:	e2511001 	subs	r1, r1, #1, 0
    8704:	1afffff1 	bne	86d0 <neopix_clear+0xa0>
    8708:	e28ee001 	add	lr, lr, #1, 0
    870c:	e15e0004 	cmp	lr, r4
    8710:	1affffcf 	bne	8654 <neopix_clear+0x24>
    8714:	e8bd4030 	pop	{r4, r5, lr}
    8718:	eafffe78 	b	8100 <neopix_flush>
    871c:	20200000 	eorcs	r0, r0, r0

00008720 <neopix_write>:
    8720:	e3510000 	cmp	r1, #0, 0
    8724:	a0811081 	addge	r1, r1, r1, lsl #1
    8728:	e5ddc000 	ldrb	ip, [sp]
    872c:	a0801001 	addge	r1, r0, r1
    8730:	a5c12008 	strbge	r2, [r1, #8]
    8734:	a5c13009 	strbge	r3, [r1, #9]
    8738:	a5c1c00a 	strbge	ip, [r1, #10]
    873c:	e12fff1e 	bx	lr

00008740 <gpio_set_function>:
    8740:	e350001f 	cmp	r0, #31, 0
    8744:	812fff1e 	bxhi	lr
    8748:	e3d13007 	bics	r3, r1, #7, 0
    874c:	e92d4070 	push	{r4, r5, r6, lr}
    8750:	e1a05001 	mov	r5, r1
    8754:	18bd8070 	popne	{r4, r5, r6, pc}
    8758:	e59f3040 	ldr	r3, [pc, #64]	; 87a0 <gpio_set_function+0x60>
    875c:	e0832093 	umull	r2, r3, r3, r0
    8760:	e1a031a3 	lsr	r3, r3, #3
    8764:	e2832302 	add	r2, r3, #134217728	; 0x8000000
    8768:	e2822702 	add	r2, r2, #524288	; 0x80000
    876c:	e1a06102 	lsl	r6, r2, #2
    8770:	e0833103 	add	r3, r3, r3, lsl #2
    8774:	e0404083 	sub	r4, r0, r3, lsl #1
    8778:	e1a00006 	mov	r0, r6
    877c:	ebfffe2a 	bl	802c <GET32>
    8780:	e3a03007 	mov	r3, #7, 0
    8784:	e1a01000 	mov	r1, r0
    8788:	e0844084 	add	r4, r4, r4, lsl #1
    878c:	e1c11413 	bic	r1, r1, r3, lsl r4
    8790:	e1a00006 	mov	r0, r6
    8794:	e1811415 	orr	r1, r1, r5, lsl r4
    8798:	e8bd4070 	pop	{r4, r5, r6, lr}
    879c:	eafffe20 	b	8024 <PUT32>
    87a0:	cccccccd 	stclgt	12, cr12, [ip], {205}	; 0xcd

000087a4 <gpio_set_output>:
    87a4:	e350001f 	cmp	r0, #31, 0
    87a8:	812fff1e 	bxhi	lr
    87ac:	e59f3048 	ldr	r3, [pc, #72]	; 87fc <gpio_set_output+0x58>
    87b0:	e92d4070 	push	{r4, r5, r6, lr}
    87b4:	e0832093 	umull	r2, r3, r3, r0
    87b8:	e1a031a3 	lsr	r3, r3, #3
    87bc:	e2832302 	add	r2, r3, #134217728	; 0x8000000
    87c0:	e2822702 	add	r2, r2, #524288	; 0x80000
    87c4:	e1a05102 	lsl	r5, r2, #2
    87c8:	e0833103 	add	r3, r3, r3, lsl #2
    87cc:	e0404083 	sub	r4, r0, r3, lsl #1
    87d0:	e1a00005 	mov	r0, r5
    87d4:	ebfffe14 	bl	802c <GET32>
    87d8:	e3a02007 	mov	r2, #7, 0
    87dc:	e1a03000 	mov	r3, r0
    87e0:	e3a01001 	mov	r1, #1, 0
    87e4:	e0844084 	add	r4, r4, r4, lsl #1
    87e8:	e1c33412 	bic	r3, r3, r2, lsl r4
    87ec:	e1a00005 	mov	r0, r5
    87f0:	e1831411 	orr	r1, r3, r1, lsl r4
    87f4:	e8bd4070 	pop	{r4, r5, r6, lr}
    87f8:	eafffe09 	b	8024 <PUT32>
    87fc:	cccccccd 	stclgt	12, cr12, [ip], {205}	; 0xcd

00008800 <gpio_set_on>:
    8800:	e1a03000 	mov	r3, r0
    8804:	e3a01001 	mov	r1, #1, 0
    8808:	e59f0004 	ldr	r0, [pc, #4]	; 8814 <gpio_set_on+0x14>
    880c:	e1a01311 	lsl	r1, r1, r3
    8810:	eafffe03 	b	8024 <PUT32>
    8814:	2020001c 	eorcs	r0, r0, ip, lsl r0

00008818 <gpio_set_off>:
    8818:	e1a03000 	mov	r3, r0
    881c:	e3a01001 	mov	r1, #1, 0
    8820:	e59f0004 	ldr	r0, [pc, #4]	; 882c <gpio_set_off+0x14>
    8824:	e1a01311 	lsl	r1, r1, r3
    8828:	eafffdfd 	b	8024 <PUT32>
    882c:	20200028 	eorcs	r0, r0, r8, lsr #32

00008830 <gpio_set_input>:
    8830:	e350001f 	cmp	r0, #31, 0
    8834:	812fff1e 	bxhi	lr
    8838:	e92d4070 	push	{r4, r5, r6, lr}
    883c:	e59f5040 	ldr	r5, [pc, #64]	; 8884 <gpio_set_input+0x54>
    8840:	e1a04000 	mov	r4, r0
    8844:	e0853095 	umull	r3, r5, r5, r0
    8848:	e1a051a5 	lsr	r5, r5, #3
    884c:	e2850302 	add	r0, r5, #134217728	; 0x8000000
    8850:	e2800702 	add	r0, r0, #524288	; 0x80000
    8854:	e1a06100 	lsl	r6, r0, #2
    8858:	e1a00006 	mov	r0, r6
    885c:	ebfffdf2 	bl	802c <GET32>
    8860:	e3a01007 	mov	r1, #7, 0
    8864:	e1a03000 	mov	r3, r0
    8868:	e0855105 	add	r5, r5, r5, lsl #2
    886c:	e0444085 	sub	r4, r4, r5, lsl #1
    8870:	e0844084 	add	r4, r4, r4, lsl #1
    8874:	e1a00006 	mov	r0, r6
    8878:	e1c31411 	bic	r1, r3, r1, lsl r4
    887c:	e8bd4070 	pop	{r4, r5, r6, lr}
    8880:	eafffde7 	b	8024 <PUT32>
    8884:	cccccccd 	stclgt	12, cr12, [ip], {205}	; 0xcd

00008888 <gpio_write>:
    8888:	e3510000 	cmp	r1, #0, 0
    888c:	e3a03001 	mov	r3, #1, 0
    8890:	e1a01000 	mov	r1, r0
    8894:	0a000002 	beq	88a4 <gpio_write+0x1c>
    8898:	e59f0010 	ldr	r0, [pc, #16]	; 88b0 <gpio_write+0x28>
    889c:	e1a01113 	lsl	r1, r3, r1
    88a0:	eafffddf 	b	8024 <PUT32>
    88a4:	e59f0008 	ldr	r0, [pc, #8]	; 88b4 <gpio_write+0x2c>
    88a8:	e1a01113 	lsl	r1, r3, r1
    88ac:	eafffddc 	b	8024 <PUT32>
    88b0:	2020001c 	eorcs	r0, r0, ip, lsl r0
    88b4:	20200028 	eorcs	r0, r0, r8, lsr #32

000088b8 <gpio_read>:
    88b8:	e59f301c 	ldr	r3, [pc, #28]	; 88dc <gpio_read+0x24>
    88bc:	e92d4010 	push	{r4, lr}
    88c0:	e1a04000 	mov	r4, r0
    88c4:	e08302a0 	add	r0, r3, r0, lsr #5
    88c8:	ebfffdd7 	bl	802c <GET32>
    88cc:	e204401f 	and	r4, r4, #31, 0
    88d0:	e1a00430 	lsr	r0, r0, r4
    88d4:	e2000001 	and	r0, r0, #1, 0
    88d8:	e8bd8010 	pop	{r4, pc}
    88dc:	20200034 	eorcs	r0, r0, r4, lsr r0

000088e0 <memset>:
    88e0:	e92d4010 	push	{r4, lr}
    88e4:	e0804002 	add	r4, r0, r2
    88e8:	e1500004 	cmp	r0, r4
    88ec:	28bd8010 	popcs	{r4, pc}
    88f0:	e2423001 	sub	r3, r2, #1, 0
    88f4:	e3530002 	cmp	r3, #2, 0
    88f8:	e6ef1071 	uxtb	r1, r1
    88fc:	e1a03000 	mov	r3, r0
    8900:	9a00000b 	bls	8934 <memset+0x54>
    8904:	e181e401 	orr	lr, r1, r1, lsl #8
    8908:	e18ee801 	orr	lr, lr, r1, lsl #16
    890c:	e3c2c003 	bic	ip, r2, #3, 0
    8910:	e18eec01 	orr	lr, lr, r1, lsl #24
    8914:	e08cc000 	add	ip, ip, r0
    8918:	e483e004 	str	lr, [r3], #4
    891c:	e153000c 	cmp	r3, ip
    8920:	1afffffc 	bne	8918 <memset+0x38>
    8924:	e3c23003 	bic	r3, r2, #3, 0
    8928:	e1520003 	cmp	r2, r3
    892c:	e0803003 	add	r3, r0, r3
    8930:	08bd8010 	popeq	{r4, pc}
    8934:	e1a02003 	mov	r2, r3
    8938:	e4c21001 	strb	r1, [r2], #1
    893c:	e1540002 	cmp	r4, r2
    8940:	98bd8010 	popls	{r4, pc}
    8944:	e2832002 	add	r2, r3, #2, 0
    8948:	e1540002 	cmp	r4, r2
    894c:	e5c31001 	strb	r1, [r3, #1]
    8950:	85c31002 	strbhi	r1, [r3, #2]
    8954:	e8bd8010 	pop	{r4, pc}

00008958 <printk>:
    8958:	e92d000f 	push	{r0, r1, r2, r3}
    895c:	e92d4030 	push	{r4, r5, lr}
    8960:	e59f5040 	ldr	r5, [pc, #64]	; 89a8 <printk+0x50>
    8964:	e24dd00c 	sub	sp, sp, #12, 0
    8968:	e28d301c 	add	r3, sp, #28, 0
    896c:	e3a01b01 	mov	r1, #1024	; 0x400
    8970:	e59d2018 	ldr	r2, [sp, #24]
    8974:	e1a00005 	mov	r0, r5
    8978:	e58d3004 	str	r3, [sp, #4]
    897c:	eb0000fb 	bl	8d70 <va_printk>
    8980:	e1a04000 	mov	r4, r0
    8984:	e59f3020 	ldr	r3, [pc, #32]	; 89ac <printk+0x54>
    8988:	e1a00005 	mov	r0, r5
    898c:	e5933000 	ldr	r3, [r3]
    8990:	e12fff33 	blx	r3
    8994:	e1a00004 	mov	r0, r4
    8998:	e28dd00c 	add	sp, sp, #12, 0
    899c:	e8bd4030 	pop	{r4, r5, lr}
    89a0:	e28dd010 	add	sp, sp, #16, 0
    89a4:	e12fff1e 	bx	lr
    89a8:	0000a0e0 	andeq	sl, r0, r0, ror #1
    89ac:	0000a0cc 	andeq	sl, r0, ip, asr #1

000089b0 <internal_putk>:
    89b0:	e92d4070 	push	{r4, r5, r6, lr}
    89b4:	e1a04000 	mov	r4, r0
    89b8:	e5d00000 	ldrb	r0, [r0]
    89bc:	e3500000 	cmp	r0, #0, 0
    89c0:	0a000005 	beq	89dc <internal_putk+0x2c>
    89c4:	e59f5018 	ldr	r5, [pc, #24]	; 89e4 <internal_putk+0x34>
    89c8:	e5953000 	ldr	r3, [r5]
    89cc:	e12fff33 	blx	r3
    89d0:	e5f40001 	ldrb	r0, [r4, #1]!
    89d4:	e3500000 	cmp	r0, #0, 0
    89d8:	1afffffa 	bne	89c8 <internal_putk+0x18>
    89dc:	e3a00001 	mov	r0, #1, 0
    89e0:	e8bd8070 	pop	{r4, r5, r6, pc}
    89e4:	0000a0dc 	ldrdeq	sl, [r0], -ip

000089e8 <emit.constprop.0>:
    89e8:	e92d41f0 	push	{r4, r5, r6, r7, r8, lr}
    89ec:	e3530080 	cmp	r3, #128, 0	; 0x80
    89f0:	e1a0c000 	mov	ip, r0
    89f4:	e24dd048 	sub	sp, sp, #72, 0	; 0x48
    89f8:	e1a00001 	mov	r0, r1
    89fc:	ca000069 	bgt	8ba8 <emit.constprop.0+0x1c0>
    8a00:	e24c1002 	sub	r1, ip, #2, 0
    8a04:	e1a0c002 	mov	ip, r2
    8a08:	e351000e 	cmp	r1, #14, 0
    8a0c:	979ff101 	ldrls	pc, [pc, r1, lsl #2]
    8a10:	ea0000a7 	b	8cb4 <emit.constprop.0+0x2cc>
    8a14:	00008b80 	andeq	r8, r0, r0, lsl #23
    8a18:	00008cb4 			; <UNDEFINED> instruction: 0x00008cb4
    8a1c:	00008cb4 			; <UNDEFINED> instruction: 0x00008cb4
    8a20:	00008cb4 			; <UNDEFINED> instruction: 0x00008cb4
    8a24:	00008cb4 			; <UNDEFINED> instruction: 0x00008cb4
    8a28:	00008cb4 			; <UNDEFINED> instruction: 0x00008cb4
    8a2c:	00008c5c 	andeq	r8, r0, ip, asr ip
    8a30:	00008cb4 			; <UNDEFINED> instruction: 0x00008cb4
    8a34:	00008bfc 	strdeq	r8, [r0], -ip
    8a38:	00008cb4 			; <UNDEFINED> instruction: 0x00008cb4
    8a3c:	00008cb4 			; <UNDEFINED> instruction: 0x00008cb4
    8a40:	00008cb4 			; <UNDEFINED> instruction: 0x00008cb4
    8a44:	00008cb4 			; <UNDEFINED> instruction: 0x00008cb4
    8a48:	00008cb4 			; <UNDEFINED> instruction: 0x00008cb4
    8a4c:	00008a54 	andeq	r8, r0, r4, asr sl
    8a50:	e3a0307f 	mov	r3, #127, 0	; 0x7f
    8a54:	e28d2008 	add	r2, sp, #8, 0
    8a58:	e1a04002 	mov	r4, r2
    8a5c:	e59f1288 	ldr	r1, [pc, #648]	; 8cec <emit.constprop.0+0x304>
    8a60:	e20ce00f 	and	lr, ip, #15, 0
    8a64:	e7d1e00e 	ldrb	lr, [r1, lr]
    8a68:	e35c000f 	cmp	ip, #15, 0
    8a6c:	e4c4e001 	strb	lr, [r4], #1
    8a70:	e1a0c22c 	lsr	ip, ip, #4
    8a74:	8afffff9 	bhi	8a60 <emit.constprop.0+0x78>
    8a78:	e3a0c078 	mov	ip, #120, 0	; 0x78
    8a7c:	e1a0e004 	mov	lr, r4
    8a80:	e3a01030 	mov	r1, #48, 0	; 0x30
    8a84:	e4cec002 	strb	ip, [lr], #2
    8a88:	e5c41001 	strb	r1, [r4, #1]
    8a8c:	e04e1002 	sub	r1, lr, r2
    8a90:	e1510003 	cmp	r1, r3
    8a94:	aa000083 	bge	8ca8 <emit.constprop.0+0x2c0>
    8a98:	e1510003 	cmp	r1, r3
    8a9c:	a3a0c001 	movge	ip, #1, 0
    8aa0:	b3a0c000 	movlt	ip, #0, 0
    8aa4:	e2434001 	sub	r4, r3, #1, 0
    8aa8:	e0444001 	sub	r4, r4, r1
    8aac:	b0436001 	sublt	r6, r3, r1
    8ab0:	a3a06001 	movge	r6, #1, 0
    8ab4:	e3540002 	cmp	r4, #2, 0
    8ab8:	938cc001 	orrls	ip, ip, #1, 0
    8abc:	e35c0000 	cmp	ip, #0, 0
    8ac0:	1a000075 	bne	8c9c <emit.constprop.0+0x2b4>
    8ac4:	e1a0c00e 	mov	ip, lr
    8ac8:	e3c65003 	bic	r5, r6, #3, 0
    8acc:	e59f721c 	ldr	r7, [pc, #540]	; 8cf0 <emit.constprop.0+0x308>
    8ad0:	e085500e 	add	r5, r5, lr
    8ad4:	e48c7004 	str	r7, [ip], #4
    8ad8:	e15c0005 	cmp	ip, r5
    8adc:	1afffffc 	bne	8ad4 <emit.constprop.0+0xec>
    8ae0:	e3c6c003 	bic	ip, r6, #3, 0
    8ae4:	e156000c 	cmp	r6, ip
    8ae8:	e08e500c 	add	r5, lr, ip
    8aec:	e08cc001 	add	ip, ip, r1
    8af0:	0a000008 	beq	8b18 <emit.constprop.0+0x130>
    8af4:	e3a07020 	mov	r7, #32, 0
    8af8:	e28c8001 	add	r8, ip, #1, 0
    8afc:	e1580003 	cmp	r8, r3
    8b00:	e5c57000 	strb	r7, [r5]
    8b04:	aa000003 	bge	8b18 <emit.constprop.0+0x130>
    8b08:	e28cc002 	add	ip, ip, #2, 0
    8b0c:	e15c0003 	cmp	ip, r3
    8b10:	e5c57001 	strb	r7, [r5, #1]
    8b14:	b5c57002 	strblt	r7, [r5, #2]
    8b18:	e1510003 	cmp	r1, r3
    8b1c:	a3a04000 	movge	r4, #0, 0
    8b20:	e08e6006 	add	r6, lr, r6
    8b24:	e0461002 	sub	r1, r6, r2
    8b28:	e08ee004 	add	lr, lr, r4
    8b2c:	e3a03000 	mov	r3, #0, 0
    8b30:	e351007f 	cmp	r1, #127, 0	; 0x7f
    8b34:	c241407f 	subgt	r4, r1, #127, 0	; 0x7f
    8b38:	c0822004 	addgt	r2, r2, r4
    8b3c:	e152000e 	cmp	r2, lr
    8b40:	e5c63000 	strb	r3, [r6]
    8b44:	8a00004f 	bhi	8c88 <emit.constprop.0+0x2a0>
    8b48:	e28ee001 	add	lr, lr, #1, 0
    8b4c:	e1a0300e 	mov	r3, lr
    8b50:	e240c001 	sub	ip, r0, #1, 0
    8b54:	e5734001 	ldrb	r4, [r3, #-1]!
    8b58:	e1530002 	cmp	r3, r2
    8b5c:	e5ec4001 	strb	r4, [ip, #1]!
    8b60:	1afffffb 	bne	8b54 <emit.constprop.0+0x16c>
    8b64:	e04ee003 	sub	lr, lr, r3
    8b68:	e3a03000 	mov	r3, #0, 0
    8b6c:	e080e00e 	add	lr, r0, lr
    8b70:	e5ce3000 	strb	r3, [lr]
    8b74:	e28dd048 	add	sp, sp, #72, 0	; 0x48
    8b78:	e8bd81f0 	pop	{r4, r5, r6, r7, r8, pc}
    8b7c:	e3a0307f 	mov	r3, #127, 0	; 0x7f
    8b80:	e28d2008 	add	r2, sp, #8, 0
    8b84:	e1a0e002 	mov	lr, r2
    8b88:	e59f1164 	ldr	r1, [pc, #356]	; 8cf4 <emit.constprop.0+0x30c>
    8b8c:	e20c4001 	and	r4, ip, #1, 0
    8b90:	e7d14004 	ldrb	r4, [r1, r4]
    8b94:	e35c0001 	cmp	ip, #1, 0
    8b98:	e4ce4001 	strb	r4, [lr], #1
    8b9c:	e1a0c0ac 	lsr	ip, ip, #1
    8ba0:	8afffff9 	bhi	8b8c <emit.constprop.0+0x1a4>
    8ba4:	eaffffb8 	b	8a8c <emit.constprop.0+0xa4>
    8ba8:	e24c3002 	sub	r3, ip, #2, 0
    8bac:	e1a0c002 	mov	ip, r2
    8bb0:	e353000e 	cmp	r3, #14, 0
    8bb4:	979ff103 	ldrls	pc, [pc, r3, lsl #2]
    8bb8:	ea00003d 	b	8cb4 <emit.constprop.0+0x2cc>
    8bbc:	00008b7c 	andeq	r8, r0, ip, ror fp
    8bc0:	00008cb4 			; <UNDEFINED> instruction: 0x00008cb4
    8bc4:	00008cb4 			; <UNDEFINED> instruction: 0x00008cb4
    8bc8:	00008cb4 			; <UNDEFINED> instruction: 0x00008cb4
    8bcc:	00008cb4 			; <UNDEFINED> instruction: 0x00008cb4
    8bd0:	00008cb4 			; <UNDEFINED> instruction: 0x00008cb4
    8bd4:	00008cd4 	ldrdeq	r8, [r0], -r4
    8bd8:	00008cb4 			; <UNDEFINED> instruction: 0x00008cb4
    8bdc:	00008bf8 	strdeq	r8, [r0], -r8	; <UNPREDICTABLE>
    8be0:	00008cb4 			; <UNDEFINED> instruction: 0x00008cb4
    8be4:	00008cb4 			; <UNDEFINED> instruction: 0x00008cb4
    8be8:	00008cb4 			; <UNDEFINED> instruction: 0x00008cb4
    8bec:	00008cb4 			; <UNDEFINED> instruction: 0x00008cb4
    8bf0:	00008cb4 			; <UNDEFINED> instruction: 0x00008cb4
    8bf4:	00008a50 	andeq	r8, r0, r0, asr sl
    8bf8:	e3a0307f 	mov	r3, #127, 0	; 0x7f
    8bfc:	e59d1060 	ldr	r1, [sp, #96]	; 0x60
    8c00:	e59f70f0 	ldr	r7, [pc, #240]	; 8cf8 <emit.constprop.0+0x310>
    8c04:	e0118fa2 	ands	r8, r1, r2, lsr #31
    8c08:	1262c000 	rsbne	ip, r2, #0, 0
    8c0c:	e28d2008 	add	r2, sp, #8, 0
    8c10:	13a08001 	movne	r8, #1, 0
    8c14:	e1a0e002 	mov	lr, r2
    8c18:	e59f60dc 	ldr	r6, [pc, #220]	; 8cfc <emit.constprop.0+0x314>
    8c1c:	e1a0500c 	mov	r5, ip
    8c20:	e0814c96 	umull	r4, r1, r6, ip
    8c24:	e1a011a1 	lsr	r1, r1, #3
    8c28:	e0814101 	add	r4, r1, r1, lsl #2
    8c2c:	e04cc084 	sub	ip, ip, r4, lsl #1
    8c30:	e7d7400c 	ldrb	r4, [r7, ip]
    8c34:	e3550009 	cmp	r5, #9, 0
    8c38:	e1a0c001 	mov	ip, r1
    8c3c:	e1a0100e 	mov	r1, lr
    8c40:	e4ce4001 	strb	r4, [lr], #1
    8c44:	8afffff4 	bhi	8c1c <emit.constprop.0+0x234>
    8c48:	e3580000 	cmp	r8, #0, 0
    8c4c:	13a0c02d 	movne	ip, #45, 0	; 0x2d
    8c50:	15cec000 	strbne	ip, [lr]
    8c54:	1281e002 	addne	lr, r1, #2, 0
    8c58:	eaffff8b 	b	8a8c <emit.constprop.0+0xa4>
    8c5c:	e3530001 	cmp	r3, #1, 0
    8c60:	e5cd2008 	strb	r2, [sp, #8]
    8c64:	c3a01001 	movgt	r1, #1, 0
    8c68:	c28de009 	addgt	lr, sp, #9, 0
    8c6c:	c28d2008 	addgt	r2, sp, #8, 0
    8c70:	caffff88 	bgt	8a98 <emit.constprop.0+0xb0>
    8c74:	e3a03000 	mov	r3, #0, 0
    8c78:	e28de008 	add	lr, sp, #8, 0
    8c7c:	e1a0200e 	mov	r2, lr
    8c80:	e5cd3009 	strb	r3, [sp, #9]
    8c84:	eaffffaf 	b	8b48 <emit.constprop.0+0x160>
    8c88:	e1a0e000 	mov	lr, r0
    8c8c:	e3a03000 	mov	r3, #0, 0
    8c90:	e5ce3000 	strb	r3, [lr]
    8c94:	e28dd048 	add	sp, sp, #72, 0	; 0x48
    8c98:	e8bd81f0 	pop	{r4, r5, r6, r7, r8, pc}
    8c9c:	e1a0c001 	mov	ip, r1
    8ca0:	e1a0500e 	mov	r5, lr
    8ca4:	eaffff92 	b	8af4 <emit.constprop.0+0x10c>
    8ca8:	e1a0600e 	mov	r6, lr
    8cac:	e24ee001 	sub	lr, lr, #1, 0
    8cb0:	eaffff9d 	b	8b2c <emit.constprop.0+0x144>
    8cb4:	e59f2044 	ldr	r2, [pc, #68]	; 8d00 <emit.constprop.0+0x318>
    8cb8:	e3a03079 	mov	r3, #121, 0	; 0x79
    8cbc:	e59f1040 	ldr	r1, [pc, #64]	; 8d04 <emit.constprop.0+0x31c>
    8cc0:	e58d2000 	str	r2, [sp]
    8cc4:	e59f003c 	ldr	r0, [pc, #60]	; 8d08 <emit.constprop.0+0x320>
    8cc8:	e59f203c 	ldr	r2, [pc, #60]	; 8d0c <emit.constprop.0+0x324>
    8ccc:	ebffff21 	bl	8958 <printk>
    8cd0:	eb0001b9 	bl	93bc <clean_reboot>
    8cd4:	e5cd2008 	strb	r2, [sp, #8]
    8cd8:	e3a0307f 	mov	r3, #127, 0	; 0x7f
    8cdc:	e3a01001 	mov	r1, #1, 0
    8ce0:	e28de009 	add	lr, sp, #9, 0
    8ce4:	e28d2008 	add	r2, sp, #8, 0
    8ce8:	eaffff6a 	b	8a98 <emit.constprop.0+0xb0>
    8cec:	00009d74 	andeq	r9, r0, r4, ror sp
    8cf0:	20202020 	eorcs	r2, r0, r0, lsr #32
    8cf4:	00009d88 	andeq	r9, r0, r8, lsl #27
    8cf8:	00009d8c 	andeq	r9, r0, ip, lsl #27
    8cfc:	cccccccd 	stclgt	12, cr12, [ip], {205}	; 0xcd
    8d00:	00009d70 	andeq	r9, r0, r0, ror sp
    8d04:	00009d48 	andeq	r9, r0, r8, asr #26
    8d08:	00009d5c 	andeq	r9, r0, ip, asr sp
    8d0c:	00009ea0 	andeq	r9, r0, r0, lsr #29

00008d10 <rpi_set_output>:
    8d10:	e3500000 	cmp	r0, #0, 0
    8d14:	0a000005 	beq	8d30 <rpi_set_output+0x20>
    8d18:	e59f3038 	ldr	r3, [pc, #56]	; 8d58 <rpi_set_output+0x48>
    8d1c:	e3510000 	cmp	r1, #0, 0
    8d20:	e5830000 	str	r0, [r3]
    8d24:	159f3030 	ldrne	r3, [pc, #48]	; 8d5c <rpi_set_output+0x4c>
    8d28:	15831000 	strne	r1, [r3]
    8d2c:	e12fff1e 	bx	lr
    8d30:	e52de004 	push	{lr}		; (str lr, [sp, #-4]!)
    8d34:	e59f2024 	ldr	r2, [pc, #36]	; 8d60 <rpi_set_output+0x50>
    8d38:	e24dd00c 	sub	sp, sp, #12, 0
    8d3c:	e3a03020 	mov	r3, #32, 0
    8d40:	e59f101c 	ldr	r1, [pc, #28]	; 8d64 <rpi_set_output+0x54>
    8d44:	e58d2000 	str	r2, [sp]
    8d48:	e59f0018 	ldr	r0, [pc, #24]	; 8d68 <rpi_set_output+0x58>
    8d4c:	e59f2018 	ldr	r2, [pc, #24]	; 8d6c <rpi_set_output+0x5c>
    8d50:	ebffff00 	bl	8958 <printk>
    8d54:	eb000198 	bl	93bc <clean_reboot>
    8d58:	0000a0dc 	ldrdeq	sl, [r0], -ip
    8d5c:	0000a0cc 	andeq	sl, r0, ip, asr #1
    8d60:	00009d98 	muleq	r0, r8, sp
    8d64:	00009d48 	andeq	r9, r0, r8, asr #26
    8d68:	00009d5c 	andeq	r9, r0, ip, asr sp
    8d6c:	00009ea8 	andeq	r9, r0, r8, lsr #29

00008d70 <va_printk>:
    8d70:	e92d4ff0 	push	{r4, r5, r6, r7, r8, r9, sl, fp, lr}
    8d74:	e1a0b000 	mov	fp, r0
    8d78:	e3a00000 	mov	r0, #0, 0
    8d7c:	e5cb0000 	strb	r0, [fp]
    8d80:	e5d2c000 	ldrb	ip, [r2]
    8d84:	e2417001 	sub	r7, r1, #1, 0
    8d88:	e08b7007 	add	r7, fp, r7
    8d8c:	e15c0000 	cmp	ip, r0
    8d90:	115b0007 	cmpne	fp, r7
    8d94:	e24ddf47 	sub	sp, sp, #284	; 0x11c
    8d98:	e58d2010 	str	r2, [sp, #16]
    8d9c:	2a000159 	bcs	9308 <va_printk+0x598>
    8da0:	e1a06002 	mov	r6, r2
    8da4:	e1a08003 	mov	r8, r3
    8da8:	e1a0400b 	mov	r4, fp
    8dac:	e59fa5a4 	ldr	sl, [pc, #1444]	; 9358 <va_printk+0x5e8>
    8db0:	e58db00c 	str	fp, [sp, #12]
    8db4:	ea000005 	b	8dd0 <va_printk+0x60>
    8db8:	e4c4c001 	strb	ip, [r4], #1
    8dbc:	e2866001 	add	r6, r6, #1, 0
    8dc0:	e5d6c000 	ldrb	ip, [r6]
    8dc4:	e35c0000 	cmp	ip, #0, 0
    8dc8:	11570004 	cmpne	r7, r4
    8dcc:	9a00002f 	bls	8e90 <va_printk+0x120>
    8dd0:	e35c0025 	cmp	ip, #37, 0	; 0x25
    8dd4:	1afffff7 	bne	8db8 <va_printk+0x48>
    8dd8:	e5d62001 	ldrb	r2, [r6, #1]
    8ddc:	e3520025 	cmp	r2, #37, 0	; 0x25
    8de0:	04c4c001 	strbeq	ip, [r4], #1
    8de4:	02866002 	addeq	r6, r6, #2, 0
    8de8:	0afffff4 	beq	8dc0 <va_printk+0x50>
    8dec:	e2423030 	sub	r3, r2, #48, 0	; 0x30
    8df0:	e3530009 	cmp	r3, #9, 0
    8df4:	e3a05000 	mov	r5, #0, 0
    8df8:	e2866001 	add	r6, r6, #1, 0
    8dfc:	8a000008 	bhi	8e24 <va_printk+0xb4>
    8e00:	e0855105 	add	r5, r5, r5, lsl #2
    8e04:	e0825085 	add	r5, r2, r5, lsl #1
    8e08:	e5f62001 	ldrb	r2, [r6, #1]!
    8e0c:	e2455030 	sub	r5, r5, #48, 0	; 0x30
    8e10:	e2423030 	sub	r3, r2, #48, 0	; 0x30
    8e14:	e3530009 	cmp	r3, #9, 0
    8e18:	9afffff8 	bls	8e00 <va_printk+0x90>
    8e1c:	e355001f 	cmp	r5, #31, 0
    8e20:	8a00013a 	bhi	9310 <va_printk+0x5a0>
    8e24:	e2423062 	sub	r3, r2, #98, 0	; 0x62
    8e28:	e3530016 	cmp	r3, #22, 0
    8e2c:	979ff103 	ldrls	pc, [pc, r3, lsl #2]
    8e30:	ea00011b 	b	92a4 <va_printk+0x534>
    8e34:	000090e8 	andeq	r9, r0, r8, ror #1
    8e38:	00008fe4 	andeq	r8, r0, r4, ror #31
    8e3c:	00008fdc 	ldrdeq	r8, [r0], -ip
    8e40:	000092a4 	andeq	r9, r0, r4, lsr #5
    8e44:	000092e0 	andeq	r9, r0, r0, ror #5
    8e48:	000092a4 	andeq	r9, r0, r4, lsr #5
    8e4c:	000092a4 	andeq	r9, r0, r4, lsr #5
    8e50:	000092a4 	andeq	r9, r0, r4, lsr #5
    8e54:	000092a4 	andeq	r9, r0, r4, lsr #5
    8e58:	000092a4 	andeq	r9, r0, r4, lsr #5
    8e5c:	00008eec 	andeq	r8, r0, ip, ror #29
    8e60:	000092a4 	andeq	r9, r0, r4, lsr #5
    8e64:	000092a4 	andeq	r9, r0, r4, lsr #5
    8e68:	000092a4 	andeq	r9, r0, r4, lsr #5
    8e6c:	00008ea8 	andeq	r8, r0, r8, lsr #29
    8e70:	000092a4 	andeq	r9, r0, r4, lsr #5
    8e74:	000092a4 	andeq	r9, r0, r4, lsr #5
    8e78:	000091e0 	andeq	r9, r0, r0, ror #3
    8e7c:	000092a4 	andeq	r9, r0, r4, lsr #5
    8e80:	00008fb8 			; <UNDEFINED> instruction: 0x00008fb8
    8e84:	000092a4 	andeq	r9, r0, r4, lsr #5
    8e88:	000092a4 	andeq	r9, r0, r4, lsr #5
    8e8c:	00008ea8 	andeq	r8, r0, r8, lsr #29
    8e90:	e59db00c 	ldr	fp, [sp, #12]
    8e94:	e3a03000 	mov	r3, #0, 0
    8e98:	e4c43001 	strb	r3, [r4], #1
    8e9c:	e044000b 	sub	r0, r4, fp
    8ea0:	e28ddf47 	add	sp, sp, #284	; 0x11c
    8ea4:	e8bd8ff0 	pop	{r4, r5, r6, r7, r8, r9, sl, fp, pc}
    8ea8:	e3a01000 	mov	r1, #0, 0
    8eac:	e1a03005 	mov	r3, r5
    8eb0:	e4982004 	ldr	r2, [r8], #4
    8eb4:	e3a00010 	mov	r0, #16, 0
    8eb8:	e58d1000 	str	r1, [sp]
    8ebc:	e28d1018 	add	r1, sp, #24, 0
    8ec0:	ebfffec8 	bl	89e8 <emit.constprop.0>
    8ec4:	e1a05000 	mov	r5, r0
    8ec8:	e2866001 	add	r6, r6, #1, 0
    8ecc:	e2455001 	sub	r5, r5, #1, 0
    8ed0:	e5f53001 	ldrb	r3, [r5, #1]!
    8ed4:	e3530000 	cmp	r3, #0, 0
    8ed8:	0affffb8 	beq	8dc0 <va_printk+0x50>
    8edc:	e4c43001 	strb	r3, [r4], #1
    8ee0:	e1570004 	cmp	r7, r4
    8ee4:	8afffff9 	bhi	8ed0 <va_printk+0x160>
    8ee8:	eaffffb4 	b	8dc0 <va_printk+0x50>
    8eec:	e3a02003 	mov	r2, #3, 0
    8ef0:	e1a00006 	mov	r0, r6
    8ef4:	e59f1460 	ldr	r1, [pc, #1120]	; 935c <va_printk+0x5ec>
    8ef8:	eb00037c 	bl	9cf0 <strncmp>
    8efc:	e3500000 	cmp	r0, #0, 0
    8f00:	0a000005 	beq	8f1c <va_printk+0x1ac>
    8f04:	e3a02003 	mov	r2, #3, 0
    8f08:	e1a00006 	mov	r0, r6
    8f0c:	e59f144c 	ldr	r1, [pc, #1100]	; 9360 <va_printk+0x5f0>
    8f10:	eb000376 	bl	9cf0 <strncmp>
    8f14:	e3500000 	cmp	r0, #0, 0
    8f18:	1a00010b 	bne	934c <va_printk+0x5dc>
    8f1c:	e2888007 	add	r8, r8, #7, 0
    8f20:	e3c88007 	bic	r8, r8, #7, 0
    8f24:	e598b004 	ldr	fp, [r8, #4]
    8f28:	e4989008 	ldr	r9, [r8], #8
    8f2c:	e1a0100b 	mov	r1, fp
    8f30:	e59f042c 	ldr	r0, [pc, #1068]	; 9364 <va_printk+0x5f4>
    8f34:	ebfffe87 	bl	8958 <printk>
    8f38:	e1a01009 	mov	r1, r9
    8f3c:	e59f0424 	ldr	r0, [pc, #1060]	; 9368 <va_printk+0x5f8>
    8f40:	ebfffe84 	bl	8958 <printk>
    8f44:	e3a02003 	mov	r2, #3, 0
    8f48:	e1a00006 	mov	r0, r6
    8f4c:	e59f1408 	ldr	r1, [pc, #1032]	; 935c <va_printk+0x5ec>
    8f50:	eb000366 	bl	9cf0 <strncmp>
    8f54:	e2503000 	subs	r3, r0, #0, 0
    8f58:	e1a02003 	mov	r2, r3
    8f5c:	e2863002 	add	r3, r6, #2, 0
    8f60:	e58d3014 	str	r3, [sp, #20]
    8f64:	1a00009f 	bne	91e8 <va_printk+0x478>
    8f68:	e1a06002 	mov	r6, r2
    8f6c:	e1a03005 	mov	r3, r5
    8f70:	e58d2000 	str	r2, [sp]
    8f74:	e28d1018 	add	r1, sp, #24, 0
    8f78:	e1a0200b 	mov	r2, fp
    8f7c:	e3a00010 	mov	r0, #16, 0
    8f80:	ebfffe98 	bl	89e8 <emit.constprop.0>
    8f84:	e1a0c000 	mov	ip, r0
    8f88:	e1a03005 	mov	r3, r5
    8f8c:	e58d6000 	str	r6, [sp]
    8f90:	e28d1098 	add	r1, sp, #152, 0	; 0x98
    8f94:	e1a02009 	mov	r2, r9
    8f98:	e3a00010 	mov	r0, #16, 0
    8f9c:	e1a0500c 	mov	r5, ip
    8fa0:	ebfffe90 	bl	89e8 <emit.constprop.0>
    8fa4:	e28d0018 	add	r0, sp, #24, 0
    8fa8:	e28d109a 	add	r1, sp, #154, 0	; 0x9a
    8fac:	e59d6014 	ldr	r6, [sp, #20]
    8fb0:	eb00032c 	bl	9c68 <strcat>
    8fb4:	eaffffc3 	b	8ec8 <va_printk+0x158>
    8fb8:	e3a01000 	mov	r1, #0, 0
    8fbc:	e1a03005 	mov	r3, r5
    8fc0:	e4982004 	ldr	r2, [r8], #4
    8fc4:	e3a0000a 	mov	r0, #10, 0
    8fc8:	e58d1000 	str	r1, [sp]
    8fcc:	e28d1018 	add	r1, sp, #24, 0
    8fd0:	ebfffe84 	bl	89e8 <emit.constprop.0>
    8fd4:	e1a05000 	mov	r5, r0
    8fd8:	eaffffba 	b	8ec8 <va_printk+0x158>
    8fdc:	e3a01001 	mov	r1, #1, 0
    8fe0:	eafffff5 	b	8fbc <va_printk+0x24c>
    8fe4:	e4983004 	ldr	r3, [r8], #4
    8fe8:	e3550001 	cmp	r5, #1, 0
    8fec:	e5cd3098 	strb	r3, [sp, #152]	; 0x98
    8ff0:	9a0000a6 	bls	9290 <va_printk+0x520>
    8ff4:	e2453002 	sub	r3, r5, #2, 0
    8ff8:	e3530002 	cmp	r3, #2, 0
    8ffc:	e2451001 	sub	r1, r5, #1, 0
    9000:	9a0000bc 	bls	92f8 <va_printk+0x588>
    9004:	e59f0360 	ldr	r0, [pc, #864]	; 936c <va_printk+0x5fc>
    9008:	e1a02121 	lsr	r2, r1, #2
    900c:	e3520001 	cmp	r2, #1, 0
    9010:	e58d0099 	str	r0, [sp, #153]	; 0x99
    9014:	0a00000e 	beq	9054 <va_printk+0x2e4>
    9018:	e3520002 	cmp	r2, #2, 0
    901c:	e58d009d 	str	r0, [sp, #157]	; 0x9d
    9020:	0a00000b 	beq	9054 <va_printk+0x2e4>
    9024:	e3520003 	cmp	r2, #3, 0
    9028:	e58d00a1 	str	r0, [sp, #161]	; 0xa1
    902c:	0a000008 	beq	9054 <va_printk+0x2e4>
    9030:	e3520004 	cmp	r2, #4, 0
    9034:	e58d00a5 	str	r0, [sp, #165]	; 0xa5
    9038:	0a000005 	beq	9054 <va_printk+0x2e4>
    903c:	e3520005 	cmp	r2, #5, 0
    9040:	e58d00a9 	str	r0, [sp, #169]	; 0xa9
    9044:	0a000002 	beq	9054 <va_printk+0x2e4>
    9048:	e3520007 	cmp	r2, #7, 0
    904c:	e58d00ad 	str	r0, [sp, #173]	; 0xad
    9050:	058d00b1 	streq	r0, [sp, #177]	; 0xb1
    9054:	e3c12003 	bic	r2, r1, #3, 0
    9058:	e1510002 	cmp	r1, r2
    905c:	e28dc099 	add	ip, sp, #153, 0	; 0x99
    9060:	e08c0002 	add	r0, ip, r2
    9064:	e2822001 	add	r2, r2, #1, 0
    9068:	0a000008 	beq	9090 <va_printk+0x320>
    906c:	e3a0e020 	mov	lr, #32, 0
    9070:	e2829001 	add	r9, r2, #1, 0
    9074:	e1550009 	cmp	r5, r9
    9078:	e5c0e000 	strb	lr, [r0]
    907c:	da000003 	ble	9090 <va_printk+0x320>
    9080:	e2822002 	add	r2, r2, #2, 0
    9084:	e1550002 	cmp	r5, r2
    9088:	e5c0e001 	strb	lr, [r0, #1]
    908c:	c5c0e002 	strbgt	lr, [r0, #2]
    9090:	e3a0e000 	mov	lr, #0, 0
    9094:	e28d0098 	add	r0, sp, #152, 0	; 0x98
    9098:	e08c2001 	add	r2, ip, r1
    909c:	e0422000 	sub	r2, r2, r0
    90a0:	e352007f 	cmp	r2, #127, 0	; 0x7f
    90a4:	c242207f 	subgt	r2, r2, #127, 0	; 0x7f
    90a8:	e08c3003 	add	r3, ip, r3
    90ac:	c0800002 	addgt	r0, r0, r2
    90b0:	e1530000 	cmp	r3, r0
    90b4:	e7cce001 	strb	lr, [ip, r1]
    90b8:	3a00006c 	bcc	9270 <va_printk+0x500>
    90bc:	e283c001 	add	ip, r3, #1, 0
    90c0:	e1a0300c 	mov	r3, ip
    90c4:	e28d5018 	add	r5, sp, #24, 0
    90c8:	e2452001 	sub	r2, r5, #1, 0
    90cc:	e5731001 	ldrb	r1, [r3, #-1]!
    90d0:	e1500003 	cmp	r0, r3
    90d4:	e5e21001 	strb	r1, [r2, #1]!
    90d8:	1afffffb 	bne	90cc <va_printk+0x35c>
    90dc:	e04c3000 	sub	r3, ip, r0
    90e0:	e0853003 	add	r3, r5, r3
    90e4:	ea00003a 	b	91d4 <va_printk+0x464>
    90e8:	e28d1098 	add	r1, sp, #152, 0	; 0x98
    90ec:	e1a03001 	mov	r3, r1
    90f0:	e4980004 	ldr	r0, [r8], #4
    90f4:	e200c001 	and	ip, r0, #1, 0
    90f8:	e7dac00c 	ldrb	ip, [sl, ip]
    90fc:	e3500001 	cmp	r0, #1, 0
    9100:	e1a02003 	mov	r2, r3
    9104:	e1a000a0 	lsr	r0, r0, #1
    9108:	e4c3c001 	strb	ip, [r3], #1
    910c:	8afffff8 	bhi	90f4 <va_printk+0x384>
    9110:	e0430001 	sub	r0, r3, r1
    9114:	e1550000 	cmp	r5, r0
    9118:	da000057 	ble	927c <va_printk+0x50c>
    911c:	e045c000 	sub	ip, r5, r0
    9120:	e24ce001 	sub	lr, ip, #1, 0
    9124:	e35e0002 	cmp	lr, #2, 0
    9128:	e1a0e003 	mov	lr, r3
    912c:	9a00000a 	bls	915c <va_printk+0x3ec>
    9130:	e3cc9003 	bic	r9, ip, #3, 0
    9134:	e0899003 	add	r9, r9, r3
    9138:	e59fb22c 	ldr	fp, [pc, #556]	; 936c <va_printk+0x5fc>
    913c:	e48eb004 	str	fp, [lr], #4
    9140:	e15e0009 	cmp	lr, r9
    9144:	1afffffb 	bne	9138 <va_printk+0x3c8>
    9148:	e3cce003 	bic	lr, ip, #3, 0
    914c:	e15e000c 	cmp	lr, ip
    9150:	e080000e 	add	r0, r0, lr
    9154:	e083e00e 	add	lr, r3, lr
    9158:	0a000008 	beq	9180 <va_printk+0x410>
    915c:	e3a09020 	mov	r9, #32, 0
    9160:	e280b001 	add	fp, r0, #1, 0
    9164:	e155000b 	cmp	r5, fp
    9168:	e5ce9000 	strb	r9, [lr]
    916c:	da000003 	ble	9180 <va_printk+0x410>
    9170:	e2800002 	add	r0, r0, #2, 0
    9174:	e1550000 	cmp	r5, r0
    9178:	e5ce9001 	strb	r9, [lr, #1]
    917c:	c5ce9002 	strbgt	r9, [lr, #2]
    9180:	e3a0e000 	mov	lr, #0, 0
    9184:	e083000c 	add	r0, r3, ip
    9188:	e0400001 	sub	r0, r0, r1
    918c:	e350007f 	cmp	r0, #127, 0	; 0x7f
    9190:	e082200c 	add	r2, r2, ip
    9194:	e7c3e00c 	strb	lr, [r3, ip]
    9198:	da000001 	ble	91a4 <va_printk+0x434>
    919c:	e240007f 	sub	r0, r0, #127, 0	; 0x7f
    91a0:	e0811000 	add	r1, r1, r0
    91a4:	e1510002 	cmp	r1, r2
    91a8:	8a000030 	bhi	9270 <va_printk+0x500>
    91ac:	e2822001 	add	r2, r2, #1, 0
    91b0:	e1a03002 	mov	r3, r2
    91b4:	e28d5018 	add	r5, sp, #24, 0
    91b8:	e245c001 	sub	ip, r5, #1, 0
    91bc:	e5730001 	ldrb	r0, [r3, #-1]!
    91c0:	e1530001 	cmp	r3, r1
    91c4:	e5ec0001 	strb	r0, [ip, #1]!
    91c8:	1afffffb 	bne	91bc <va_printk+0x44c>
    91cc:	e0423003 	sub	r3, r2, r3
    91d0:	e0853003 	add	r3, r5, r3
    91d4:	e3a02000 	mov	r2, #0, 0
    91d8:	e5c32000 	strb	r2, [r3]
    91dc:	eaffff39 	b	8ec8 <va_printk+0x158>
    91e0:	e4985004 	ldr	r5, [r8], #4
    91e4:	eaffff37 	b	8ec8 <va_printk+0x158>
    91e8:	e3a02003 	mov	r2, #3, 0
    91ec:	e1a00006 	mov	r0, r6
    91f0:	e59f1168 	ldr	r1, [pc, #360]	; 9360 <va_printk+0x5f0>
    91f4:	eb0002bd 	bl	9cf0 <strncmp>
    91f8:	e2503000 	subs	r3, r0, #0, 0
    91fc:	1a00004b 	bne	9330 <va_printk+0x5c0>
    9200:	e1a06003 	mov	r6, r3
    9204:	e1a0200b 	mov	r2, fp
    9208:	e58d3000 	str	r3, [sp]
    920c:	e28d1018 	add	r1, sp, #24, 0
    9210:	e1a03005 	mov	r3, r5
    9214:	e3a0000a 	mov	r0, #10, 0
    9218:	ebfffdf2 	bl	89e8 <emit.constprop.0>
    921c:	e1a0c000 	mov	ip, r0
    9220:	e1a03005 	mov	r3, r5
    9224:	e1a02009 	mov	r2, r9
    9228:	e28d1098 	add	r1, sp, #152, 0	; 0x98
    922c:	e3a0000a 	mov	r0, #10, 0
    9230:	e58d6000 	str	r6, [sp]
    9234:	e1a0500c 	mov	r5, ip
    9238:	ebfffdea 	bl	89e8 <emit.constprop.0>
    923c:	e59f112c 	ldr	r1, [pc, #300]	; 9370 <va_printk+0x600>
    9240:	e28d0018 	add	r0, sp, #24, 0
    9244:	eb000292 	bl	9c94 <strcmp>
    9248:	e3500000 	cmp	r0, #0, 0
    924c:	e28d1098 	add	r1, sp, #152, 0	; 0x98
    9250:	e28d0018 	add	r0, sp, #24, 0
    9254:	1a000002 	bne	9264 <va_printk+0x4f4>
    9258:	eb00029e 	bl	9cd8 <strcpy>
    925c:	e59d6014 	ldr	r6, [sp, #20]
    9260:	eaffff18 	b	8ec8 <va_printk+0x158>
    9264:	eb00027f 	bl	9c68 <strcat>
    9268:	e59d6014 	ldr	r6, [sp, #20]
    926c:	eaffff15 	b	8ec8 <va_printk+0x158>
    9270:	e28d5018 	add	r5, sp, #24, 0
    9274:	e1a03005 	mov	r3, r5
    9278:	eaffffd5 	b	91d4 <va_printk+0x464>
    927c:	e3a0c000 	mov	ip, #0, 0
    9280:	e350007f 	cmp	r0, #127, 0	; 0x7f
    9284:	e5c3c000 	strb	ip, [r3]
    9288:	caffffc3 	bgt	919c <va_printk+0x42c>
    928c:	eaffffc6 	b	91ac <va_printk+0x43c>
    9290:	e3a02000 	mov	r2, #0, 0
    9294:	e28d3098 	add	r3, sp, #152, 0	; 0x98
    9298:	e1a00003 	mov	r0, r3
    929c:	e5cd2099 	strb	r2, [sp, #153]	; 0x99
    92a0:	eaffff85 	b	90bc <va_printk+0x34c>
    92a4:	e3a03000 	mov	r3, #0, 0
    92a8:	e1a01002 	mov	r1, r2
    92ac:	e5c63001 	strb	r3, [r6, #1]
    92b0:	e59f00bc 	ldr	r0, [pc, #188]	; 9374 <va_printk+0x604>
    92b4:	ebfffda7 	bl	8958 <printk>
    92b8:	e59f30b8 	ldr	r3, [pc, #184]	; 9378 <va_printk+0x608>
    92bc:	e59d0010 	ldr	r0, [sp, #16]
    92c0:	e5933000 	ldr	r3, [r3]
    92c4:	e12fff33 	blx	r3
    92c8:	e3a030e2 	mov	r3, #226, 0	; 0xe2
    92cc:	e59f20a8 	ldr	r2, [pc, #168]	; 937c <va_printk+0x60c>
    92d0:	e59f10a8 	ldr	r1, [pc, #168]	; 9380 <va_printk+0x610>
    92d4:	e59f00a8 	ldr	r0, [pc, #168]	; 9384 <va_printk+0x614>
    92d8:	ebfffd9e 	bl	8958 <printk>
    92dc:	eb000036 	bl	93bc <clean_reboot>
    92e0:	e3a030be 	mov	r3, #190, 0	; 0xbe
    92e4:	e59f2090 	ldr	r2, [pc, #144]	; 937c <va_printk+0x60c>
    92e8:	e59f1090 	ldr	r1, [pc, #144]	; 9380 <va_printk+0x610>
    92ec:	e59f0094 	ldr	r0, [pc, #148]	; 9388 <va_printk+0x618>
    92f0:	ebfffd98 	bl	8958 <printk>
    92f4:	eb000030 	bl	93bc <clean_reboot>
    92f8:	e28dc099 	add	ip, sp, #153, 0	; 0x99
    92fc:	e1a0000c 	mov	r0, ip
    9300:	e3a02001 	mov	r2, #1, 0
    9304:	eaffff58 	b	906c <va_printk+0x2fc>
    9308:	e1a0400b 	mov	r4, fp
    930c:	eafffee0 	b	8e94 <va_printk+0x124>
    9310:	e3a03098 	mov	r3, #152, 0	; 0x98
    9314:	e59f2070 	ldr	r2, [pc, #112]	; 938c <va_printk+0x61c>
    9318:	e59f1060 	ldr	r1, [pc, #96]	; 9380 <va_printk+0x610>
    931c:	e58d2000 	str	r2, [sp]
    9320:	e59f0068 	ldr	r0, [pc, #104]	; 9390 <va_printk+0x620>
    9324:	e59f2050 	ldr	r2, [pc, #80]	; 937c <va_printk+0x60c>
    9328:	ebfffd8a 	bl	8958 <printk>
    932c:	eb000022 	bl	93bc <clean_reboot>
    9330:	e3a030b6 	mov	r3, #182, 0	; 0xb6
    9334:	e59f2040 	ldr	r2, [pc, #64]	; 937c <va_printk+0x60c>
    9338:	e59f1040 	ldr	r1, [pc, #64]	; 9380 <va_printk+0x610>
    933c:	e59f0050 	ldr	r0, [pc, #80]	; 9394 <va_printk+0x624>
    9340:	e58d6000 	str	r6, [sp]
    9344:	ebfffd83 	bl	8958 <printk>
    9348:	eb00001b 	bl	93bc <clean_reboot>
    934c:	e3a0309f 	mov	r3, #159, 0	; 0x9f
    9350:	e59f2040 	ldr	r2, [pc, #64]	; 9398 <va_printk+0x628>
    9354:	eaffffef 	b	9318 <va_printk+0x5a8>
    9358:	00009d88 	andeq	r9, r0, r8, lsl #27
    935c:	00009dac 	andeq	r9, r0, ip, lsr #27
    9360:	00009dc0 	andeq	r9, r0, r0, asr #27
    9364:	00009db0 			; <UNDEFINED> instruction: 0x00009db0
    9368:	00009db8 			; <UNDEFINED> instruction: 0x00009db8
    936c:	20202020 	eorcs	r2, r0, r0, lsr #32
    9370:	00009d70 	andeq	r9, r0, r0, ror sp
    9374:	00009e50 	andeq	r9, r0, r0, asr lr
    9378:	0000a0cc 	andeq	sl, r0, ip, asr #1
    937c:	00009eb8 			; <UNDEFINED> instruction: 0x00009eb8
    9380:	00009d48 	andeq	r9, r0, r8, asr #26
    9384:	00009e80 	andeq	r9, r0, r0, lsl #29
    9388:	00009e28 	andeq	r9, r0, r8, lsr #28
    938c:	00009da0 	andeq	r9, r0, r0, lsr #27
    9390:	00009d5c 	andeq	r9, r0, ip, asr sp
    9394:	00009e00 	andeq	r9, r0, r0, lsl #28
    9398:	00009dc4 	andeq	r9, r0, r4, asr #27

0000939c <enable_cache>:
    939c:	ee113f10 	mrc	15, 0, r3, cr1, cr0, {0}
    93a0:	e3833b06 	orr	r3, r3, #6144	; 0x1800
    93a4:	ee013f10 	mcr	15, 0, r3, cr1, cr0, {0}
    93a8:	e12fff1e 	bx	lr

000093ac <disable_cache>:
    93ac:	ee113f10 	mrc	15, 0, r3, cr1, cr0, {0}
    93b0:	e3c33b06 	bic	r3, r3, #6144	; 0x1800
    93b4:	ee013f10 	mcr	15, 0, r3, cr1, cr0, {0}
    93b8:	e12fff1e 	bx	lr

000093bc <clean_reboot>:
    93bc:	e59f301c 	ldr	r3, [pc, #28]	; 93e0 <clean_reboot+0x24>
    93c0:	e92d4010 	push	{r4, lr}
    93c4:	e5933000 	ldr	r3, [r3]
    93c8:	e59f0014 	ldr	r0, [pc, #20]	; 93e4 <clean_reboot+0x28>
    93cc:	e12fff33 	blx	r3
    93d0:	eb00011b 	bl	9844 <uart_flush_tx>
    93d4:	e3a0000a 	mov	r0, #10, 0
    93d8:	eb000082 	bl	95e8 <delay_ms>
    93dc:	eb00004b 	bl	9510 <rpi_reboot>
    93e0:	0000a0cc 	andeq	sl, r0, ip, asr #1
    93e4:	00009ec4 	andeq	r9, r0, r4, asr #29

000093e8 <_cstart>:
    93e8:	e92d4070 	push	{r4, r5, r6, lr}
    93ec:	eb00003b 	bl	94e0 <custom_loader>
    93f0:	e59f20e0 	ldr	r2, [pc, #224]	; 94d8 <_cstart+0xf0>
    93f4:	e59fc0e0 	ldr	ip, [pc, #224]	; 94dc <_cstart+0xf4>
    93f8:	e152000c 	cmp	r2, ip
    93fc:	2a00002e 	bcs	94bc <_cstart+0xd4>
    9400:	e24c1001 	sub	r1, ip, #1, 0
    9404:	e0411002 	sub	r1, r1, r2
    9408:	e3510017 	cmp	r1, #23, 0
    940c:	e1a03122 	lsr	r3, r2, #2
    9410:	e1a01121 	lsr	r1, r1, #2
    9414:	e2811001 	add	r1, r1, #1, 0
    9418:	e2033001 	and	r3, r3, #1, 0
    941c:	9a00002b 	bls	94d0 <_cstart+0xe8>
    9420:	e3530000 	cmp	r3, #0, 0
    9424:	11a00002 	movne	r0, r2
    9428:	13a0e000 	movne	lr, #0, 0
    942c:	e3a04000 	mov	r4, #0, 0
    9430:	e3a05000 	mov	r5, #0, 0
    9434:	e0411003 	sub	r1, r1, r3
    9438:	01a00002 	moveq	r0, r2
    943c:	e0823103 	add	r3, r2, r3, lsl #2
    9440:	e1a020a1 	lsr	r2, r1, #1
    9444:	1480e004 	strne	lr, [r0], #4
    9448:	e0832182 	add	r2, r3, r2, lsl #3
    944c:	e0c340f8 	strd	r4, [r3], #8
    9450:	e1520003 	cmp	r2, r3
    9454:	1afffffc 	bne	944c <_cstart+0x64>
    9458:	e3c13001 	bic	r3, r1, #1, 0
    945c:	e1510003 	cmp	r1, r3
    9460:	e0803103 	add	r3, r0, r3, lsl #2
    9464:	0a000014 	beq	94bc <_cstart+0xd4>
    9468:	e1a01003 	mov	r1, r3
    946c:	e3a02000 	mov	r2, #0, 0
    9470:	e4812004 	str	r2, [r1], #4
    9474:	e151000c 	cmp	r1, ip
    9478:	2a00000f 	bcs	94bc <_cstart+0xd4>
    947c:	e2831008 	add	r1, r3, #8, 0
    9480:	e151000c 	cmp	r1, ip
    9484:	e5832004 	str	r2, [r3, #4]
    9488:	2a00000b 	bcs	94bc <_cstart+0xd4>
    948c:	e283100c 	add	r1, r3, #12, 0
    9490:	e151000c 	cmp	r1, ip
    9494:	e5832008 	str	r2, [r3, #8]
    9498:	2a000007 	bcs	94bc <_cstart+0xd4>
    949c:	e2831010 	add	r1, r3, #16, 0
    94a0:	e151000c 	cmp	r1, ip
    94a4:	e583200c 	str	r2, [r3, #12]
    94a8:	2a000003 	bcs	94bc <_cstart+0xd4>
    94ac:	e2831014 	add	r1, r3, #20, 0
    94b0:	e151000c 	cmp	r1, ip
    94b4:	e5832010 	str	r2, [r3, #16]
    94b8:	35832014 	strcc	r2, [r3, #20]
    94bc:	eb000082 	bl	96cc <uart_init>
    94c0:	e3a03001 	mov	r3, #1, 0
    94c4:	ee0f3f1c 	mcr	15, 0, r3, cr15, cr12, {0}
    94c8:	ebfffadc 	bl	8040 <notmain>
    94cc:	ebffffba 	bl	93bc <clean_reboot>
    94d0:	e1a03002 	mov	r3, r2
    94d4:	eaffffe3 	b	9468 <_cstart+0x80>
    94d8:	0000a0e0 	andeq	sl, r0, r0, ror #1
    94dc:	0000a4e8 	andeq	sl, r0, r8, ror #9

000094e0 <custom_loader>:
    94e0:	e12fff1e 	bx	lr

000094e4 <at_user_level>:
    94e4:	e10f0000 	mrs	r0, CPSR
    94e8:	e200001f 	and	r0, r0, #31, 0
    94ec:	e2400010 	sub	r0, r0, #16, 0
    94f0:	e16f0f10 	clz	r0, r0
    94f4:	e1a002a0 	lsr	r0, r0, #5
    94f8:	e12fff1e 	bx	lr

000094fc <set_user_level>:
    94fc:	e10f3000 	mrs	r3, CPSR
    9500:	e3c3301f 	bic	r3, r3, #31, 0
    9504:	e3833010 	orr	r3, r3, #16, 0
    9508:	e129f003 	msr	CPSR_fc, r3
    950c:	e12fff1e 	bx	lr

00009510 <rpi_reboot>:
    9510:	e92d4010 	push	{r4, lr}
    9514:	e10f3000 	mrs	r3, CPSR
    9518:	e203301f 	and	r3, r3, #31, 0
    951c:	e3530010 	cmp	r3, #16, 0
    9520:	1a000003 	bne	9534 <rpi_reboot+0x24>
    9524:	e10f3000 	mrs	r3, CPSR
    9528:	e3c3301f 	bic	r3, r3, #31, 0
    952c:	e3833010 	orr	r3, r3, #16, 0
    9530:	e129f003 	msr	CPSR_fc, r3
    9534:	eb0001f9 	bl	9d20 <reboot_callout>
    9538:	eb0000c1 	bl	9844 <uart_flush_tx>
    953c:	e3a0000a 	mov	r0, #10, 0
    9540:	eb000028 	bl	95e8 <delay_ms>
    9544:	e59f1014 	ldr	r1, [pc, #20]	; 9560 <rpi_reboot+0x50>
    9548:	e59f0014 	ldr	r0, [pc, #20]	; 9564 <rpi_reboot+0x54>
    954c:	ebfffab4 	bl	8024 <PUT32>
    9550:	e59f1010 	ldr	r1, [pc, #16]	; 9568 <rpi_reboot+0x58>
    9554:	e59f0010 	ldr	r0, [pc, #16]	; 956c <rpi_reboot+0x5c>
    9558:	ebfffab1 	bl	8024 <PUT32>
    955c:	eafffffe 	b	955c <rpi_reboot+0x4c>
    9560:	5a000001 	bpl	956c <rpi_reboot+0x5c>
    9564:	20100024 	andscs	r0, r0, r4, lsr #32
    9568:	5a000020 	bpl	95f0 <delay_ms+0x8>
    956c:	2010001c 	andscs	r0, r0, ip, lsl r0

00009570 <timer_get_usec_raw>:
    9570:	e59f0000 	ldr	r0, [pc]	; 9578 <timer_get_usec_raw+0x8>
    9574:	eafffaac 	b	802c <GET32>
    9578:	20003004 	andcs	r3, r0, r4

0000957c <timer_get_usec>:
    957c:	e92d4010 	push	{r4, lr}
    9580:	eb0001e7 	bl	9d24 <dev_barrier>
    9584:	e59f0010 	ldr	r0, [pc, #16]	; 959c <timer_get_usec+0x20>
    9588:	ebfffaa7 	bl	802c <GET32>
    958c:	e1a04000 	mov	r4, r0
    9590:	eb0001e3 	bl	9d24 <dev_barrier>
    9594:	e1a00004 	mov	r0, r4
    9598:	e8bd8010 	pop	{r4, pc}
    959c:	20003004 	andcs	r3, r0, r4

000095a0 <delay_us>:
    95a0:	e92d41f0 	push	{r4, r5, r6, r7, r8, lr}
    95a4:	e1a06000 	mov	r6, r0
    95a8:	eb0001dd 	bl	9d24 <dev_barrier>
    95ac:	e59f0030 	ldr	r0, [pc, #48]	; 95e4 <delay_us+0x44>
    95b0:	ebfffa9d 	bl	802c <GET32>
    95b4:	e1a05000 	mov	r5, r0
    95b8:	eb0001d9 	bl	9d24 <dev_barrier>
    95bc:	e59f7020 	ldr	r7, [pc, #32]	; 95e4 <delay_us+0x44>
    95c0:	eb0001d7 	bl	9d24 <dev_barrier>
    95c4:	e1a00007 	mov	r0, r7
    95c8:	ebfffa97 	bl	802c <GET32>
    95cc:	e1a04000 	mov	r4, r0
    95d0:	e0444005 	sub	r4, r4, r5
    95d4:	eb0001d2 	bl	9d24 <dev_barrier>
    95d8:	e1540006 	cmp	r4, r6
    95dc:	3afffff7 	bcc	95c0 <delay_us+0x20>
    95e0:	e8bd81f0 	pop	{r4, r5, r6, r7, r8, pc}
    95e4:	20003004 	andcs	r3, r0, r4

000095e8 <delay_ms>:
    95e8:	e92d41f0 	push	{r4, r5, r6, r7, r8, lr}
    95ec:	e0604280 	rsb	r4, r0, r0, lsl #5
    95f0:	e0800104 	add	r0, r0, r4, lsl #2
    95f4:	e1a04180 	lsl	r4, r0, #3
    95f8:	eb0001c9 	bl	9d24 <dev_barrier>
    95fc:	e59f0030 	ldr	r0, [pc, #48]	; 9634 <delay_ms+0x4c>
    9600:	ebfffa89 	bl	802c <GET32>
    9604:	e1a06000 	mov	r6, r0
    9608:	eb0001c5 	bl	9d24 <dev_barrier>
    960c:	e59f7020 	ldr	r7, [pc, #32]	; 9634 <delay_ms+0x4c>
    9610:	eb0001c3 	bl	9d24 <dev_barrier>
    9614:	e1a00007 	mov	r0, r7
    9618:	ebfffa83 	bl	802c <GET32>
    961c:	e1a05000 	mov	r5, r0
    9620:	e0455006 	sub	r5, r5, r6
    9624:	eb0001be 	bl	9d24 <dev_barrier>
    9628:	e1540005 	cmp	r4, r5
    962c:	8afffff7 	bhi	9610 <delay_ms+0x28>
    9630:	e8bd81f0 	pop	{r4, r5, r6, r7, r8, pc}
    9634:	20003004 	andcs	r3, r0, r4

00009638 <delay_sec>:
    9638:	e92d41f0 	push	{r4, r5, r6, r7, r8, lr}
    963c:	e0604280 	rsb	r4, r0, r0, lsl #5
    9640:	e0644304 	rsb	r4, r4, r4, lsl #6
    9644:	e0800184 	add	r0, r0, r4, lsl #3
    9648:	e1a04300 	lsl	r4, r0, #6
    964c:	eb0001b4 	bl	9d24 <dev_barrier>
    9650:	e59f0030 	ldr	r0, [pc, #48]	; 9688 <delay_sec+0x50>
    9654:	ebfffa74 	bl	802c <GET32>
    9658:	e1a06000 	mov	r6, r0
    965c:	eb0001b0 	bl	9d24 <dev_barrier>
    9660:	e59f7020 	ldr	r7, [pc, #32]	; 9688 <delay_sec+0x50>
    9664:	eb0001ae 	bl	9d24 <dev_barrier>
    9668:	e1a00007 	mov	r0, r7
    966c:	ebfffa6e 	bl	802c <GET32>
    9670:	e1a05000 	mov	r5, r0
    9674:	e0455006 	sub	r5, r5, r6
    9678:	eb0001a9 	bl	9d24 <dev_barrier>
    967c:	e1540005 	cmp	r4, r5
    9680:	8afffff7 	bhi	9664 <delay_sec+0x2c>
    9684:	e8bd81f0 	pop	{r4, r5, r6, r7, r8, pc}
    9688:	20003004 	andcs	r3, r0, r4

0000968c <and_in32>:
    968c:	e92d4070 	push	{r4, r5, r6, lr}
    9690:	e1a04000 	mov	r4, r0
    9694:	e1a05001 	mov	r5, r1
    9698:	ebfffa63 	bl	802c <GET32>
    969c:	e0001005 	and	r1, r0, r5
    96a0:	e1a00004 	mov	r0, r4
    96a4:	ebfffa5e 	bl	8024 <PUT32>
    96a8:	e8bd8070 	pop	{r4, r5, r6, pc}

000096ac <or_in32>:
    96ac:	e92d4070 	push	{r4, r5, r6, lr}
    96b0:	e1a04000 	mov	r4, r0
    96b4:	e1a05001 	mov	r5, r1
    96b8:	ebfffa5b 	bl	802c <GET32>
    96bc:	e1801005 	orr	r1, r0, r5
    96c0:	e1a00004 	mov	r0, r4
    96c4:	ebfffa56 	bl	8024 <PUT32>
    96c8:	e8bd8070 	pop	{r4, r5, r6, pc}

000096cc <uart_init>:
    96cc:	e92d4010 	push	{r4, lr}
    96d0:	e3a01002 	mov	r1, #2, 0
    96d4:	e3a0000e 	mov	r0, #14, 0
    96d8:	ebfffc18 	bl	8740 <gpio_set_function>
    96dc:	e3a01002 	mov	r1, #2, 0
    96e0:	e3a0000f 	mov	r0, #15, 0
    96e4:	ebfffc15 	bl	8740 <gpio_set_function>
    96e8:	eb00018d 	bl	9d24 <dev_barrier>
    96ec:	e3a01001 	mov	r1, #1, 0
    96f0:	e59f0064 	ldr	r0, [pc, #100]	; 975c <uart_init+0x90>
    96f4:	ebffffec 	bl	96ac <or_in32>
    96f8:	eb000189 	bl	9d24 <dev_barrier>
    96fc:	e59f405c 	ldr	r4, [pc, #92]	; 9760 <uart_init+0x94>
    9700:	e3a01000 	mov	r1, #0, 0
    9704:	e1a00004 	mov	r0, r4
    9708:	ebfffa45 	bl	8024 <PUT32>
    970c:	e3a01000 	mov	r1, #0, 0
    9710:	e59f004c 	ldr	r0, [pc, #76]	; 9764 <uart_init+0x98>
    9714:	ebfffa42 	bl	8024 <PUT32>
    9718:	e3a01003 	mov	r1, #3, 0
    971c:	e59f0044 	ldr	r0, [pc, #68]	; 9768 <uart_init+0x9c>
    9720:	ebfffa3f 	bl	8024 <PUT32>
    9724:	e3a01000 	mov	r1, #0, 0
    9728:	e59f003c 	ldr	r0, [pc, #60]	; 976c <uart_init+0xa0>
    972c:	ebfffa3c 	bl	8024 <PUT32>
    9730:	e3a010c7 	mov	r1, #199, 0	; 0xc7
    9734:	e59f0034 	ldr	r0, [pc, #52]	; 9770 <uart_init+0xa4>
    9738:	ebfffa39 	bl	8024 <PUT32>
    973c:	e59f1030 	ldr	r1, [pc, #48]	; 9774 <uart_init+0xa8>
    9740:	e59f0030 	ldr	r0, [pc, #48]	; 9778 <uart_init+0xac>
    9744:	ebfffa36 	bl	8024 <PUT32>
    9748:	e3a01003 	mov	r1, #3, 0
    974c:	e1a00004 	mov	r0, r4
    9750:	ebfffa33 	bl	8024 <PUT32>
    9754:	eb000172 	bl	9d24 <dev_barrier>
    9758:	e8bd8010 	pop	{r4, pc}
    975c:	20215004 	eorcs	r5, r1, r4
    9760:	20215060 	eorcs	r5, r1, r0, rrx
    9764:	20215044 	eorcs	r5, r1, r4, asr #32
    9768:	2021504c 	eorcs	r5, r1, ip, asr #32
    976c:	20215050 	eorcs	r5, r1, r0, asr r0
    9770:	20215048 	eorcs	r5, r1, r8, asr #32
    9774:	0000010e 	andeq	r0, r0, lr, lsl #2
    9778:	20215068 	eorcs	r5, r1, r8, rrx

0000977c <uart_can_getc>:
    977c:	e92d4010 	push	{r4, lr}
    9780:	e59f0008 	ldr	r0, [pc, #8]	; 9790 <uart_can_getc+0x14>
    9784:	ebfffa28 	bl	802c <GET32>
    9788:	e2000001 	and	r0, r0, #1, 0
    978c:	e8bd8010 	pop	{r4, pc}
    9790:	20215064 	eorcs	r5, r1, r4, rrx

00009794 <uart_can_putc>:
    9794:	e92d4010 	push	{r4, lr}
    9798:	e59f0010 	ldr	r0, [pc, #16]	; 97b0 <uart_can_putc+0x1c>
    979c:	ebfffa22 	bl	802c <GET32>
    97a0:	e3100002 	tst	r0, #2, 0
    97a4:	13a00001 	movne	r0, #1, 0
    97a8:	03a00000 	moveq	r0, #0, 0
    97ac:	e8bd8010 	pop	{r4, pc}
    97b0:	20215064 	eorcs	r5, r1, r4, rrx

000097b4 <uart_getc>:
    97b4:	e92d4010 	push	{r4, lr}
    97b8:	eb000159 	bl	9d24 <dev_barrier>
    97bc:	ebffffee 	bl	977c <uart_can_getc>
    97c0:	e3500000 	cmp	r0, #0, 0
    97c4:	0afffffc 	beq	97bc <uart_getc+0x8>
    97c8:	e59f0010 	ldr	r0, [pc, #16]	; 97e0 <uart_getc+0x2c>
    97cc:	ebfffa16 	bl	802c <GET32>
    97d0:	e6ef4070 	uxtb	r4, r0
    97d4:	eb000152 	bl	9d24 <dev_barrier>
    97d8:	e1a00004 	mov	r0, r4
    97dc:	e8bd8010 	pop	{r4, pc}
    97e0:	20215040 	eorcs	r5, r1, r0, asr #32

000097e4 <uart_putc>:
    97e4:	e92d4010 	push	{r4, lr}
    97e8:	e1a04000 	mov	r4, r0
    97ec:	eb00014c 	bl	9d24 <dev_barrier>
    97f0:	ebffffe7 	bl	9794 <uart_can_putc>
    97f4:	e3500000 	cmp	r0, #0, 0
    97f8:	0afffffc 	beq	97f0 <uart_putc+0xc>
    97fc:	e6ef1074 	uxtb	r1, r4
    9800:	e59f0008 	ldr	r0, [pc, #8]	; 9810 <uart_putc+0x2c>
    9804:	ebfffa06 	bl	8024 <PUT32>
    9808:	eb000145 	bl	9d24 <dev_barrier>
    980c:	e8bd8010 	pop	{r4, pc}
    9810:	20215040 	eorcs	r5, r1, r0, asr #32

00009814 <uart_has_data>:
    9814:	e92d4010 	push	{r4, lr}
    9818:	eb000141 	bl	9d24 <dev_barrier>
    981c:	ebffffd6 	bl	977c <uart_can_getc>
    9820:	e8bd8010 	pop	{r4, pc}

00009824 <uart_tx_is_empty>:
    9824:	e92d4010 	push	{r4, lr}
    9828:	eb00013d 	bl	9d24 <dev_barrier>
    982c:	e59f000c 	ldr	r0, [pc, #12]	; 9840 <uart_tx_is_empty+0x1c>
    9830:	ebfff9fd 	bl	802c <GET32>
    9834:	e1a004a0 	lsr	r0, r0, #9
    9838:	e2000001 	and	r0, r0, #1, 0
    983c:	e8bd8010 	pop	{r4, pc}
    9840:	20215064 	eorcs	r5, r1, r4, rrx

00009844 <uart_flush_tx>:
    9844:	e92d4010 	push	{r4, lr}
    9848:	ebfffff5 	bl	9824 <uart_tx_is_empty>
    984c:	e3500000 	cmp	r0, #0, 0
    9850:	0afffffc 	beq	9848 <uart_flush_tx+0x4>
    9854:	e8bd8010 	pop	{r4, pc}

00009858 <uart_disable>:
    9858:	e92d4010 	push	{r4, lr}
    985c:	ebfffff8 	bl	9844 <uart_flush_tx>
    9860:	eb00012f 	bl	9d24 <dev_barrier>
    9864:	e3e01001 	mvn	r1, #1, 0
    9868:	e59f0008 	ldr	r0, [pc, #8]	; 9878 <uart_disable+0x20>
    986c:	ebffff86 	bl	968c <and_in32>
    9870:	eb00012b 	bl	9d24 <dev_barrier>
    9874:	e8bd8010 	pop	{r4, pc}
    9878:	20215004 	eorcs	r5, r1, r4

0000987c <kmalloc_heap_end>:
    987c:	e59f3004 	ldr	r3, [pc, #4]	; 9888 <kmalloc_heap_end+0xc>
    9880:	e5930000 	ldr	r0, [r3]
    9884:	e12fff1e 	bx	lr
    9888:	0000a0d0 	ldrdeq	sl, [r0], -r0

0000988c <kmalloc_heap_start>:
    988c:	e59f3004 	ldr	r3, [pc, #4]	; 9898 <kmalloc_heap_start+0xc>
    9890:	e5930004 	ldr	r0, [r3, #4]
    9894:	e12fff1e 	bx	lr
    9898:	0000a0d0 	ldrdeq	sl, [r0], -r0

0000989c <kmalloc_heap_ptr>:
    989c:	e59f3004 	ldr	r3, [pc, #4]	; 98a8 <kmalloc_heap_ptr+0xc>
    98a0:	e5930000 	ldr	r0, [r3]
    98a4:	e12fff1e 	bx	lr
    98a8:	0000a0d0 	ldrdeq	sl, [r0], -r0

000098ac <kmalloc_init_set_start>:
    98ac:	e52de004 	push	{lr}		; (str lr, [sp, #-4]!)
    98b0:	e24dd00c 	sub	sp, sp, #12, 0
    98b4:	e3510000 	cmp	r1, #0, 0
    98b8:	0a00000a 	beq	98e8 <kmalloc_init_set_start+0x3c>
    98bc:	e59f306c 	ldr	r3, [pc, #108]	; 9930 <kmalloc_init_set_start+0x84>
    98c0:	e5933000 	ldr	r3, [r3]
    98c4:	e1530000 	cmp	r3, r0
    98c8:	8a00000e 	bhi	9908 <kmalloc_init_set_start+0x5c>
    98cc:	e59f305c 	ldr	r3, [pc, #92]	; 9930 <kmalloc_init_set_start+0x84>
    98d0:	e5830000 	str	r0, [r3]
    98d4:	e5830004 	str	r0, [r3, #4]
    98d8:	e0800001 	add	r0, r0, r1
    98dc:	e5830008 	str	r0, [r3, #8]
    98e0:	e28dd00c 	add	sp, sp, #12, 0
    98e4:	e49df004 	pop	{pc}		; (ldr pc, [sp], #4)
    98e8:	e59f3044 	ldr	r3, [pc, #68]	; 9934 <kmalloc_init_set_start+0x88>
    98ec:	e58d3000 	str	r3, [sp]
    98f0:	e3a03030 	mov	r3, #48, 0	; 0x30
    98f4:	e59f203c 	ldr	r2, [pc, #60]	; 9938 <kmalloc_init_set_start+0x8c>
    98f8:	e59f103c 	ldr	r1, [pc, #60]	; 993c <kmalloc_init_set_start+0x90>
    98fc:	e59f003c 	ldr	r0, [pc, #60]	; 9940 <kmalloc_init_set_start+0x94>
    9900:	ebfffc14 	bl	8958 <printk>
    9904:	ebfffeac 	bl	93bc <clean_reboot>
    9908:	e59f3020 	ldr	r3, [pc, #32]	; 9930 <kmalloc_init_set_start+0x84>
    990c:	e5933008 	ldr	r3, [r3, #8]
    9910:	e58d3004 	str	r3, [sp, #4]
    9914:	e58d0000 	str	r0, [sp]
    9918:	e3a03034 	mov	r3, #52, 0	; 0x34
    991c:	e59f2014 	ldr	r2, [pc, #20]	; 9938 <kmalloc_init_set_start+0x8c>
    9920:	e59f1014 	ldr	r1, [pc, #20]	; 993c <kmalloc_init_set_start+0x90>
    9924:	e59f0018 	ldr	r0, [pc, #24]	; 9944 <kmalloc_init_set_start+0x98>
    9928:	ebfffc0a 	bl	8958 <printk>
    992c:	ebfffea2 	bl	93bc <clean_reboot>
    9930:	0000a0d0 	ldrdeq	sl, [r0], -r0
    9934:	00009edc 	ldrdeq	r9, [r0], -ip
    9938:	0000a068 	andeq	sl, r0, r8, rrx
    993c:	00009ed0 	ldrdeq	r9, [r0], -r0
    9940:	00009d5c 	andeq	r9, r0, ip, asr sp
    9944:	00009ee8 	andeq	r9, r0, r8, ror #29

00009948 <kmalloc_init>:
    9948:	e92d4010 	push	{r4, lr}
    994c:	e59f303c 	ldr	r3, [pc, #60]	; 9990 <kmalloc_init+0x48>
    9950:	e5933000 	ldr	r3, [r3]
    9954:	e3530000 	cmp	r3, #0, 0
    9958:	1a000006 	bne	9978 <kmalloc_init+0x30>
    995c:	e59f302c 	ldr	r3, [pc, #44]	; 9990 <kmalloc_init+0x48>
    9960:	e3a02001 	mov	r2, #1, 0
    9964:	e5832000 	str	r2, [r3]
    9968:	e3a01201 	mov	r1, #268435456	; 0x10000000
    996c:	e3a00601 	mov	r0, #1048576	; 0x100000
    9970:	ebffffcd 	bl	98ac <kmalloc_init_set_start>
    9974:	e8bd8010 	pop	{r4, pc}
    9978:	e3a03040 	mov	r3, #64, 0	; 0x40
    997c:	e59f2010 	ldr	r2, [pc, #16]	; 9994 <kmalloc_init+0x4c>
    9980:	e59f1010 	ldr	r1, [pc, #16]	; 9998 <kmalloc_init+0x50>
    9984:	e59f0010 	ldr	r0, [pc, #16]	; 999c <kmalloc_init+0x54>
    9988:	ebfffbf2 	bl	8958 <printk>
    998c:	ebfffe8a 	bl	93bc <clean_reboot>
    9990:	0000a4e0 	andeq	sl, r0, r0, ror #9
    9994:	0000a080 	andeq	sl, r0, r0, lsl #1
    9998:	00009ed0 	ldrdeq	r9, [r0], -r0
    999c:	00009f2c 	andeq	r9, r0, ip, lsr #30

000099a0 <kmalloc_notzero>:
    99a0:	e52de004 	push	{lr}		; (str lr, [sp, #-4]!)
    99a4:	e24dd00c 	sub	sp, sp, #12, 0
    99a8:	e3500000 	cmp	r0, #0, 0
    99ac:	0a00000a 	beq	99dc <kmalloc_notzero+0x3c>
    99b0:	e2800007 	add	r0, r0, #7, 0
    99b4:	e3c03007 	bic	r3, r0, #7, 0
    99b8:	e59f2060 	ldr	r2, [pc, #96]	; 9a20 <kmalloc_notzero+0x80>
    99bc:	e5920000 	ldr	r0, [r2]
    99c0:	e0801003 	add	r1, r0, r3
    99c4:	e5821000 	str	r1, [r2]
    99c8:	e5922008 	ldr	r2, [r2, #8]
    99cc:	e1510002 	cmp	r1, r2
    99d0:	8a000009 	bhi	99fc <kmalloc_notzero+0x5c>
    99d4:	e28dd00c 	add	sp, sp, #12, 0
    99d8:	e49df004 	pop	{pc}		; (ldr pc, [sp], #4)
    99dc:	e59f3040 	ldr	r3, [pc, #64]	; 9a24 <kmalloc_notzero+0x84>
    99e0:	e58d3000 	str	r3, [sp]
    99e4:	e3a03048 	mov	r3, #72, 0	; 0x48
    99e8:	e59f2038 	ldr	r2, [pc, #56]	; 9a28 <kmalloc_notzero+0x88>
    99ec:	e59f1038 	ldr	r1, [pc, #56]	; 9a2c <kmalloc_notzero+0x8c>
    99f0:	e59f0038 	ldr	r0, [pc, #56]	; 9a30 <kmalloc_notzero+0x90>
    99f4:	ebfffbd7 	bl	8958 <printk>
    99f8:	ebfffe6f 	bl	93bc <clean_reboot>
    99fc:	e0422000 	sub	r2, r2, r0
    9a00:	e58d2004 	str	r2, [sp, #4]
    9a04:	e58d3000 	str	r3, [sp]
    9a08:	e3a0304e 	mov	r3, #78, 0	; 0x4e
    9a0c:	e59f2014 	ldr	r2, [pc, #20]	; 9a28 <kmalloc_notzero+0x88>
    9a10:	e59f1014 	ldr	r1, [pc, #20]	; 9a2c <kmalloc_notzero+0x8c>
    9a14:	e59f0018 	ldr	r0, [pc, #24]	; 9a34 <kmalloc_notzero+0x94>
    9a18:	ebfffbce 	bl	8958 <printk>
    9a1c:	ebfffe66 	bl	93bc <clean_reboot>
    9a20:	0000a0d0 	ldrdeq	sl, [r0], -r0
    9a24:	00009ee0 	andeq	r9, r0, r0, ror #29
    9a28:	0000a090 	muleq	r0, r0, r0
    9a2c:	00009ed0 	ldrdeq	r9, [r0], -r0
    9a30:	00009d5c 	andeq	r9, r0, ip, asr sp
    9a34:	00009f5c 	andeq	r9, r0, ip, asr pc

00009a38 <kmalloc>:
    9a38:	e92d4030 	push	{r4, r5, lr}
    9a3c:	e24dd00c 	sub	sp, sp, #12, 0
    9a40:	e2504000 	subs	r4, r0, #0, 0
    9a44:	0a000008 	beq	9a6c <kmalloc+0x34>
    9a48:	e1a00004 	mov	r0, r4
    9a4c:	ebffffd3 	bl	99a0 <kmalloc_notzero>
    9a50:	e1a05000 	mov	r5, r0
    9a54:	e1a02004 	mov	r2, r4
    9a58:	e3a01000 	mov	r1, #0, 0
    9a5c:	ebfffb9f 	bl	88e0 <memset>
    9a60:	e1a00005 	mov	r0, r5
    9a64:	e28dd00c 	add	sp, sp, #12, 0
    9a68:	e8bd8030 	pop	{r4, r5, pc}
    9a6c:	e59f3018 	ldr	r3, [pc, #24]	; 9a8c <kmalloc+0x54>
    9a70:	e58d3000 	str	r3, [sp]
    9a74:	e3a03054 	mov	r3, #84, 0	; 0x54
    9a78:	e59f2010 	ldr	r2, [pc, #16]	; 9a90 <kmalloc+0x58>
    9a7c:	e59f1010 	ldr	r1, [pc, #16]	; 9a94 <kmalloc+0x5c>
    9a80:	e59f0010 	ldr	r0, [pc, #16]	; 9a98 <kmalloc+0x60>
    9a84:	ebfffbb3 	bl	8958 <printk>
    9a88:	ebfffe4b 	bl	93bc <clean_reboot>
    9a8c:	00009ee0 	andeq	r9, r0, r0, ror #29
    9a90:	0000a0a0 	andeq	sl, r0, r0, lsr #1
    9a94:	00009ed0 	ldrdeq	r9, [r0], -r0
    9a98:	00009d5c 	andeq	r9, r0, ip, asr sp

00009a9c <kmalloc_aligned>:
    9a9c:	e52de004 	push	{lr}		; (str lr, [sp, #-4]!)
    9aa0:	e24dd00c 	sub	sp, sp, #12, 0
    9aa4:	e3500000 	cmp	r0, #0, 0
    9aa8:	0a000014 	beq	9b00 <kmalloc_aligned+0x64>
    9aac:	e2613000 	rsb	r3, r1, #0, 0
    9ab0:	e1d13003 	bics	r3, r1, r3
    9ab4:	1a000019 	bne	9b20 <kmalloc_aligned+0x84>
    9ab8:	e3510008 	cmp	r1, #8, 0
    9abc:	33a01008 	movcc	r1, #8, 0
    9ac0:	e59f30c0 	ldr	r3, [pc, #192]	; 9b88 <kmalloc_aligned+0xec>
    9ac4:	e5932000 	ldr	r2, [r3]
    9ac8:	e2613000 	rsb	r3, r1, #0, 0
    9acc:	e1d1c003 	bics	ip, r1, r3
    9ad0:	1a00001b 	bne	9b44 <kmalloc_aligned+0xa8>
    9ad4:	e0822001 	add	r2, r2, r1
    9ad8:	e2422001 	sub	r2, r2, #1, 0
    9adc:	e0033002 	and	r3, r3, r2
    9ae0:	e2411001 	sub	r1, r1, #1, 0
    9ae4:	e1110003 	tst	r1, r3
    9ae8:	1a00001d 	bne	9b64 <kmalloc_aligned+0xc8>
    9aec:	e59f2094 	ldr	r2, [pc, #148]	; 9b88 <kmalloc_aligned+0xec>
    9af0:	e5823000 	str	r3, [r2]
    9af4:	ebffffcf 	bl	9a38 <kmalloc>
    9af8:	e28dd00c 	add	sp, sp, #12, 0
    9afc:	e49df004 	pop	{pc}		; (ldr pc, [sp], #4)
    9b00:	e59f3084 	ldr	r3, [pc, #132]	; 9b8c <kmalloc_aligned+0xf0>
    9b04:	e58d3000 	str	r3, [sp]
    9b08:	e3a0305f 	mov	r3, #95, 0	; 0x5f
    9b0c:	e59f207c 	ldr	r2, [pc, #124]	; 9b90 <kmalloc_aligned+0xf4>
    9b10:	e59f107c 	ldr	r1, [pc, #124]	; 9b94 <kmalloc_aligned+0xf8>
    9b14:	e59f007c 	ldr	r0, [pc, #124]	; 9b98 <kmalloc_aligned+0xfc>
    9b18:	ebfffb8e 	bl	8958 <printk>
    9b1c:	ebfffe26 	bl	93bc <clean_reboot>
    9b20:	eb000046 	bl	9c40 <rpi_reset_putc>
    9b24:	e59f3070 	ldr	r3, [pc, #112]	; 9b9c <kmalloc_aligned+0x100>
    9b28:	e58d3000 	str	r3, [sp]
    9b2c:	e3a03060 	mov	r3, #96, 0	; 0x60
    9b30:	e59f2058 	ldr	r2, [pc, #88]	; 9b90 <kmalloc_aligned+0xf4>
    9b34:	e59f1058 	ldr	r1, [pc, #88]	; 9b94 <kmalloc_aligned+0xf8>
    9b38:	e59f0060 	ldr	r0, [pc, #96]	; 9ba0 <kmalloc_aligned+0x104>
    9b3c:	ebfffb85 	bl	8958 <printk>
    9b40:	ebfffe1d 	bl	93bc <clean_reboot>
    9b44:	e59f3058 	ldr	r3, [pc, #88]	; 9ba4 <kmalloc_aligned+0x108>
    9b48:	e58d3000 	str	r3, [sp]
    9b4c:	e3a03011 	mov	r3, #17, 0
    9b50:	e59f2050 	ldr	r2, [pc, #80]	; 9ba8 <kmalloc_aligned+0x10c>
    9b54:	e59f1038 	ldr	r1, [pc, #56]	; 9b94 <kmalloc_aligned+0xf8>
    9b58:	e59f0038 	ldr	r0, [pc, #56]	; 9b98 <kmalloc_aligned+0xfc>
    9b5c:	ebfffb7d 	bl	8958 <printk>
    9b60:	ebfffe15 	bl	93bc <clean_reboot>
    9b64:	eb000035 	bl	9c40 <rpi_reset_putc>
    9b68:	e59f303c 	ldr	r3, [pc, #60]	; 9bac <kmalloc_aligned+0x110>
    9b6c:	e58d3000 	str	r3, [sp]
    9b70:	e3a03068 	mov	r3, #104, 0	; 0x68
    9b74:	e59f2014 	ldr	r2, [pc, #20]	; 9b90 <kmalloc_aligned+0xf4>
    9b78:	e59f1014 	ldr	r1, [pc, #20]	; 9b94 <kmalloc_aligned+0xf8>
    9b7c:	e59f002c 	ldr	r0, [pc, #44]	; 9bb0 <kmalloc_aligned+0x114>
    9b80:	ebfffb74 	bl	8958 <printk>
    9b84:	ebfffe0c 	bl	93bc <clean_reboot>
    9b88:	0000a0d0 	ldrdeq	sl, [r0], -r0
    9b8c:	00009ee0 	andeq	r9, r0, r0, ror #29
    9b90:	0000a0a8 	andeq	sl, r0, r8, lsr #1
    9b94:	00009ed0 	ldrdeq	r9, [r0], -r0
    9b98:	00009d5c 	andeq	r9, r0, ip, asr sp
    9b9c:	00009fd0 	ldrdeq	r9, [r0], -r0
    9ba0:	00009f9c 	muleq	r0, ip, pc	; <UNPREDICTABLE>
    9ba4:	00009fe4 	andeq	r9, r0, r4, ror #31
    9ba8:	0000a0b8 	strheq	sl, [r0], -r8
    9bac:	0000a01c 	andeq	sl, r0, ip, lsl r0
    9bb0:	00009ff0 	strdeq	r9, [r0], -r0

00009bb4 <kfree>:
    9bb4:	e12fff1e 	bx	lr

00009bb8 <kfree_all>:
    9bb8:	e59f3008 	ldr	r3, [pc, #8]	; 9bc8 <kfree_all+0x10>
    9bbc:	e5932004 	ldr	r2, [r3, #4]
    9bc0:	e5832000 	str	r2, [r3]
    9bc4:	e12fff1e 	bx	lr
    9bc8:	0000a0d0 	ldrdeq	sl, [r0], -r0

00009bcc <kfree_pop>:
    9bcc:	e59f3048 	ldr	r3, [pc, #72]	; 9c1c <kfree_pop+0x50>
    9bd0:	e5933004 	ldr	r3, [r3, #4]
    9bd4:	e1530000 	cmp	r3, r0
    9bd8:	8a000006 	bhi	9bf8 <kfree_pop+0x2c>
    9bdc:	e59f3038 	ldr	r3, [pc, #56]	; 9c1c <kfree_pop+0x50>
    9be0:	e5933008 	ldr	r3, [r3, #8]
    9be4:	e1530000 	cmp	r3, r0
    9be8:	3a000002 	bcc	9bf8 <kfree_pop+0x2c>
    9bec:	e59f3028 	ldr	r3, [pc, #40]	; 9c1c <kfree_pop+0x50>
    9bf0:	e5830000 	str	r0, [r3]
    9bf4:	e12fff1e 	bx	lr
    9bf8:	e52de004 	push	{lr}		; (str lr, [sp, #-4]!)
    9bfc:	e24dd00c 	sub	sp, sp, #12, 0
    9c00:	e58d0000 	str	r0, [sp]
    9c04:	e3a03077 	mov	r3, #119, 0	; 0x77
    9c08:	e59f2010 	ldr	r2, [pc, #16]	; 9c20 <kfree_pop+0x54>
    9c0c:	e59f1010 	ldr	r1, [pc, #16]	; 9c24 <kfree_pop+0x58>
    9c10:	e59f0010 	ldr	r0, [pc, #16]	; 9c28 <kfree_pop+0x5c>
    9c14:	ebfffb4f 	bl	8958 <printk>
    9c18:	ebfffde7 	bl	93bc <clean_reboot>
    9c1c:	0000a0d0 	ldrdeq	sl, [r0], -r0
    9c20:	0000a0c0 	andeq	sl, r0, r0, asr #1
    9c24:	00009ed0 	ldrdeq	r9, [r0], -r0
    9c28:	0000a038 	andeq	sl, r0, r8, lsr r0

00009c2c <internal_putchar>:
    9c2c:	e92d4010 	push	{r4, lr}
    9c30:	e1a04000 	mov	r4, r0
    9c34:	ebfffeea 	bl	97e4 <uart_putc>
    9c38:	e1a00004 	mov	r0, r4
    9c3c:	e8bd8010 	pop	{r4, pc}

00009c40 <rpi_reset_putc>:
    9c40:	e59f3008 	ldr	r3, [pc, #8]	; 9c50 <rpi_reset_putc+0x10>
    9c44:	e59f2008 	ldr	r2, [pc, #8]	; 9c54 <rpi_reset_putc+0x14>
    9c48:	e5832000 	str	r2, [r3]
    9c4c:	e12fff1e 	bx	lr
    9c50:	0000a0dc 	ldrdeq	sl, [r0], -ip
    9c54:	00009c2c 	andeq	r9, r0, ip, lsr #24

00009c58 <rpi_set_putc>:
    9c58:	e59f3004 	ldr	r3, [pc, #4]	; 9c64 <rpi_set_putc+0xc>
    9c5c:	e5830000 	str	r0, [r3]
    9c60:	e12fff1e 	bx	lr
    9c64:	0000a0dc 	ldrdeq	sl, [r0], -ip

00009c68 <strcat>:
    9c68:	e1a02000 	mov	r2, r0
    9c6c:	e1a03002 	mov	r3, r2
    9c70:	e4d2c001 	ldrb	ip, [r2], #1
    9c74:	e35c0000 	cmp	ip, #0, 0
    9c78:	1afffffb 	bne	9c6c <strcat+0x4>
    9c7c:	e2433001 	sub	r3, r3, #1, 0
    9c80:	e4d12001 	ldrb	r2, [r1], #1
    9c84:	e3520000 	cmp	r2, #0, 0
    9c88:	e5e32001 	strb	r2, [r3, #1]!
    9c8c:	1afffffb 	bne	9c80 <strcat+0x18>
    9c90:	e12fff1e 	bx	lr

00009c94 <strcmp>:
    9c94:	e5d03000 	ldrb	r3, [r0]
    9c98:	e3530000 	cmp	r3, #0, 0
    9c9c:	05d12000 	ldrbeq	r2, [r1]
    9ca0:	1a000003 	bne	9cb4 <strcmp+0x20>
    9ca4:	ea000006 	b	9cc4 <strcmp+0x30>
    9ca8:	e5f03001 	ldrb	r3, [r0, #1]!
    9cac:	e3530000 	cmp	r3, #0, 0
    9cb0:	0a000005 	beq	9ccc <strcmp+0x38>
    9cb4:	e1a0c001 	mov	ip, r1
    9cb8:	e4d12001 	ldrb	r2, [r1], #1
    9cbc:	e1520003 	cmp	r2, r3
    9cc0:	0afffff8 	beq	9ca8 <strcmp+0x14>
    9cc4:	e0430002 	sub	r0, r3, r2
    9cc8:	e12fff1e 	bx	lr
    9ccc:	e5dc2001 	ldrb	r2, [ip, #1]
    9cd0:	e0430002 	sub	r0, r3, r2
    9cd4:	e12fff1e 	bx	lr

00009cd8 <strcpy>:
    9cd8:	e2402001 	sub	r2, r0, #1, 0
    9cdc:	e4d13001 	ldrb	r3, [r1], #1
    9ce0:	e3530000 	cmp	r3, #0, 0
    9ce4:	e5e23001 	strb	r3, [r2, #1]!
    9ce8:	1afffffb 	bne	9cdc <strcpy+0x4>
    9cec:	e12fff1e 	bx	lr

00009cf0 <strncmp>:
    9cf0:	e0802002 	add	r2, r0, r2
    9cf4:	ea000003 	b	9d08 <strncmp+0x18>
    9cf8:	e4d03001 	ldrb	r3, [r0], #1
    9cfc:	e4d1c001 	ldrb	ip, [r1], #1
    9d00:	e153000c 	cmp	r3, ip
    9d04:	1a000003 	bne	9d18 <strncmp+0x28>
    9d08:	e1500002 	cmp	r0, r2
    9d0c:	1afffff9 	bne	9cf8 <strncmp+0x8>
    9d10:	e3a00000 	mov	r0, #0, 0
    9d14:	e12fff1e 	bx	lr
    9d18:	e043000c 	sub	r0, r3, ip
    9d1c:	e12fff1e 	bx	lr

00009d20 <reboot_callout>:
    9d20:	e12fff1e 	bx	lr

00009d24 <dev_barrier>:
    9d24:	ea000002 	b	9d34 <dsb>

00009d28 <dmb>:
    9d28:	e3a00000 	mov	r0, #0, 0
    9d2c:	ee070fba 	mcr	15, 0, r0, cr7, cr10, {5}
    9d30:	e12fff1e 	bx	lr

00009d34 <dsb>:
    9d34:	ee070f9a 	mcr	15, 0, r0, cr7, cr10, {4}
    9d38:	e12fff1e 	bx	lr

00009d3c <__code_end__>:
    9d3c:	00000000 	andeq	r0, r0, r0

Disassembly of section .rodata:

00009d40 <__FUNCTION__.4000-0x160>:
    9d40:	656e6f64 	strbvs	r6, [lr, #-3940]!	; 0xfffff09c
    9d44:	00000a21 	andeq	r0, r0, r1, lsr #20
    9d48:	696c2f2e 	stmdbvs	ip!, {r1, r2, r3, r5, r8, r9, sl, fp, sp}^
    9d4c:	762f6362 	strtvc	r6, [pc], -r2, ror #6
    9d50:	72702d61 	rsbsvc	r2, r0, #6208	; 0x1840
    9d54:	6b746e69 	blvs	1d25700 <__bss_end__+0x1d1b218>
    9d58:	0000632e 	andeq	r6, r0, lr, lsr #6
    9d5c:	494e4150 	stmdbmi	lr, {r4, r6, r8, lr}^
    9d60:	73253a43 			; <UNDEFINED> instruction: 0x73253a43
    9d64:	3a73253a 	bcc	1cd3254 <__bss_end__+0x1cc8d6c>
    9d68:	253a6425 	ldrcs	r6, [sl, #-1061]!	; 0xfffffbdb
    9d6c:	00000a73 	andeq	r0, r0, r3, ror sl
    9d70:	00000030 	andeq	r0, r0, r0, lsr r0
    9d74:	33323130 	teqcc	r2, #12
    9d78:	37363534 			; <UNDEFINED> instruction: 0x37363534
    9d7c:	62613938 	rsbvs	r3, r1, #56, 18	; 0xe0000
    9d80:	66656463 	strbtvs	r6, [r5], -r3, ror #8
    9d84:	00000000 	andeq	r0, r0, r0
    9d88:	00003130 	andeq	r3, r0, r0, lsr r1
    9d8c:	33323130 	teqcc	r2, #12
    9d90:	37363534 			; <UNDEFINED> instruction: 0x37363534
    9d94:	00003938 	andeq	r3, r0, r8, lsr r9
    9d98:	63747570 	cmnvs	r4, #112, 10	; 0x1c000000
    9d9c:	0070665f 	rsbseq	r6, r0, pc, asr r6
    9da0:	74646977 	strbtvc	r6, [r4], #-2423	; 0xfffff689
    9da4:	203c2068 	eorscs	r2, ip, r8, rrx
    9da8:	00003233 	andeq	r3, r0, r3, lsr r2
    9dac:	00786c6c 	rsbseq	r6, r8, ip, ror #24
    9db0:	253d3078 	ldrcs	r3, [sp, #-120]!	; 0xffffff88
    9db4:	00000a78 	andeq	r0, r0, r8, ror sl
    9db8:	253d3178 	ldrcs	r3, [sp, #-376]!	; 0xfffffe88
    9dbc:	00000a78 	andeq	r0, r0, r8, ror sl
    9dc0:	00646c6c 	rsbeq	r6, r4, ip, ror #24
    9dc4:	6e727473 	mrcvs	4, 3, r7, cr2, cr3, {3}
    9dc8:	28706d63 	ldmdacs	r0!, {r0, r1, r5, r6, r8, sl, fp, sp, lr}^
    9dcc:	202c7974 	eorcs	r7, ip, r4, ror r9
    9dd0:	786c6c22 	stmdavc	ip!, {r1, r5, sl, fp, sp, lr}^
    9dd4:	33202c22 			; <UNDEFINED> instruction: 0x33202c22
    9dd8:	3d3d2029 	ldccc	0, cr2, [sp, #-164]!	; 0xffffff5c
    9ddc:	7c203020 	stcvc	0, cr3, [r0], #-128	; 0xffffff80
    9de0:	7473207c 	ldrbtvc	r2, [r3], #-124	; 0xffffff84
    9de4:	6d636e72 	stclvs	14, cr6, [r3, #-456]!	; 0xfffffe38
    9de8:	79742870 	ldmdbvc	r4!, {r4, r5, r6, fp, sp}^
    9dec:	6c22202c 	stcvs	0, cr2, [r2], #-176	; 0xffffff50
    9df0:	2c22646c 	cfstrscs	mvf6, [r2], #-432	; 0xfffffe50
    9df4:	20293320 	eorcs	r3, r9, r0, lsr #6
    9df8:	30203d3d 	eorcc	r3, r0, sp, lsr sp
    9dfc:	00000000 	andeq	r0, r0, r0
    9e00:	494e4150 	stmdbmi	lr, {r4, r6, r8, lr}^
    9e04:	73253a43 			; <UNDEFINED> instruction: 0x73253a43
    9e08:	3a73253a 	bcc	1cd32f8 <__bss_end__+0x1cc8e10>
    9e0c:	693a6425 	ldmdbvs	sl!, {r0, r2, r5, sl, sp, lr}
    9e10:	736f706d 	cmnvc	pc, #109, 0	; 0x6d
    9e14:	6c626973 			; <UNDEFINED> instruction: 0x6c626973
    9e18:	66203a65 	strtvs	r3, [r0], -r5, ror #20
    9e1c:	3c3d746d 	cfldrscc	mvf7, [sp], #-436	; 0xfffffe4c
    9e20:	0a3e7325 	beq	fa6abc <__bss_end__+0xf9c5d4>
    9e24:	0000000a 	andeq	r0, r0, sl
    9e28:	494e4150 	stmdbmi	lr, {r4, r6, r8, lr}^
    9e2c:	73253a43 			; <UNDEFINED> instruction: 0x73253a43
    9e30:	3a73253a 	bcc	1cd3320 <__bss_end__+0x1cc8e38>
    9e34:	663a6425 	ldrtvs	r6, [sl], -r5, lsr #8
    9e38:	74616f6c 	strbtvc	r6, [r1], #-3948	; 0xfffff094
    9e3c:	746f6e20 	strbtvc	r6, [pc], #-3616	; 9e44 <__code_end__+0x108>
    9e40:	616e6520 	cmnvs	lr, r0, lsr #10
    9e44:	64656c62 	strbtvs	r6, [r5], #-3170	; 0xfffff39e
    9e48:	0a212121 	beq	8522d4 <__bss_end__+0x847dec>
    9e4c:	00000000 	andeq	r0, r0, r0
    9e50:	6e697270 	mcrvs	2, 3, r7, cr9, cr0, {3}
    9e54:	203a6b74 	eorscs	r6, sl, r4, ror fp
    9e58:	20746f6e 	rsbscs	r6, r4, lr, ror #30
    9e5c:	646e6168 	strbtvs	r6, [lr], #-360	; 0xfffffe98
    9e60:	676e696c 	strbvs	r6, [lr, -ip, ror #18]!
    9e64:	65707320 	ldrbvs	r7, [r0, #-800]!	; 0xfffffce0
    9e68:	69666963 	stmdbvs	r6!, {r0, r1, r5, r6, r8, fp, sp, lr}^
    9e6c:	27207265 	strcs	r7, [r0, -r5, ror #4]!
    9e70:	20276325 	eorcs	r6, r7, r5, lsr #6
    9e74:	63736128 	cmnvs	r3, #10
    9e78:	253d6969 	ldrcs	r6, [sp, #-2409]!	; 0xfffff697
    9e7c:	000a2964 	andeq	r2, sl, r4, ror #18
    9e80:	494e4150 	stmdbmi	lr, {r4, r6, r8, lr}^
    9e84:	73253a43 			; <UNDEFINED> instruction: 0x73253a43
    9e88:	3a73253a 	bcc	1cd3378 <__bss_end__+0x1cc8e90>
    9e8c:	703a6425 	eorsvc	r6, sl, r5, lsr #8
    9e90:	746e6972 	strbtvc	r6, [lr], #-2418	; 0xfffff68e
    9e94:	7265206b 	rsbvc	r2, r5, #107, 0	; 0x6b
    9e98:	0a726f72 	beq	1ca5c68 <__bss_end__+0x1c9b780>
    9e9c:	0000000a 	andeq	r0, r0, sl

00009ea0 <__FUNCTION__.4000>:
    9ea0:	74696d65 	strbtvc	r6, [r9], #-3429	; 0xfffff29b
    9ea4:	00000000 	andeq	r0, r0, r0

00009ea8 <__FUNCTION__.3948>:
    9ea8:	5f697072 	svcpl	0x00697072
    9eac:	5f746573 	svcpl	0x00746573
    9eb0:	7074756f 	rsbsvc	r7, r4, pc, ror #10
    9eb4:	00007475 	andeq	r7, r0, r5, ror r4

00009eb8 <__FUNCTION__.4026>:
    9eb8:	705f6176 	subsvc	r6, pc, r6, ror r1	; <UNPREDICTABLE>
    9ebc:	746e6972 	strbtvc	r6, [lr], #-2418	; 0xfffff68e
    9ec0:	0000006b 	andeq	r0, r0, fp, rrx
    9ec4:	454e4f44 	strbmi	r4, [lr, #-3908]	; 0xfffff0bc
    9ec8:	0a212121 	beq	852354 <__bss_end__+0x847e6c>
    9ecc:	00000000 	andeq	r0, r0, r0
    9ed0:	6c616d6b 	stclvs	13, cr6, [r1], #-428	; 0xfffffe54
    9ed4:	2e636f6c 	cdpcs	15, 6, cr6, cr3, cr12, {3}
    9ed8:	00000063 	andeq	r0, r0, r3, rrx
    9edc:	5f78616d 	svcpl	0x0078616d
    9ee0:	7479626e 	ldrbtvc	r6, [r9], #-622	; 0xfffffd92
    9ee4:	00007365 	andeq	r7, r0, r5, ror #6
    9ee8:	494e4150 	stmdbmi	lr, {r4, r6, r8, lr}^
    9eec:	73253a43 			; <UNDEFINED> instruction: 0x73253a43
    9ef0:	3a73253a 	bcc	1cd33e0 <__bss_end__+0x1cc8ef8>
    9ef4:	733a6425 	teqvc	sl, #620756992	; 0x25000000
    9ef8:	69747465 	ldmdbvs	r4!, {r0, r2, r5, r6, sl, ip, sp, lr}^
    9efc:	6820676e 	stmdavs	r0!, {r1, r2, r3, r5, r6, r8, r9, sl, sp, lr}
    9f00:	20706165 	rsbscs	r6, r0, r5, ror #2
    9f04:	25206f74 	strcs	r6, [r0, #-3956]!	; 0xfffff08c
    9f08:	77203a70 			; <UNDEFINED> instruction: 0x77203a70
    9f0c:	206c6c69 	rsbcs	r6, ip, r9, ror #24
    9f10:	20746968 	rsbscs	r6, r4, r8, ror #18
    9f14:	20656874 	rsbcs	r6, r5, r4, ror r8
    9f18:	20646c6f 	rsbcs	r6, r4, pc, ror #24
    9f1c:	70616568 	rsbvc	r6, r1, r8, ror #10
    9f20:	20746120 	rsbscs	r6, r4, r0, lsr #2
    9f24:	0a0a7025 	beq	2a5fc0 <__bss_end__+0x29bad8>
    9f28:	00000000 	andeq	r0, r0, r0
    9f2c:	494e4150 	stmdbmi	lr, {r4, r6, r8, lr}^
    9f30:	73253a43 			; <UNDEFINED> instruction: 0x73253a43
    9f34:	3a73253a 	bcc	1cd3424 <__bss_end__+0x1cc8f3c>
    9f38:	613a6425 	teqvs	sl, r5, lsr #8
    9f3c:	6165726c 	cmnvs	r5, ip, ror #4
    9f40:	63207964 			; <UNDEFINED> instruction: 0x63207964
    9f44:	656c6c61 	strbvs	r6, [ip, #-3169]!	; 0xfffff39f
    9f48:	6d6b2064 	stclvs	0, cr2, [fp, #-400]!	; 0xfffffe70
    9f4c:	6f6c6c61 	svcvs	0x006c6c61
    9f50:	6e695f63 	cdpvs	15, 6, cr5, cr9, cr3, {3}
    9f54:	0a0a7469 	beq	2a7100 <__bss_end__+0x29cc18>
    9f58:	00000000 	andeq	r0, r0, r0
    9f5c:	494e4150 	stmdbmi	lr, {r4, r6, r8, lr}^
    9f60:	73253a43 			; <UNDEFINED> instruction: 0x73253a43
    9f64:	3a73253a 	bcc	1cd3454 <__bss_end__+0x1cc8f6c>
    9f68:	253a6425 	ldrcs	r6, [sl, #-1061]!	; 0xfffffbdb
    9f6c:	626e2064 	rsbvs	r2, lr, #100, 0	; 0x64
    9f70:	73657479 	cmnvc	r5, #2030043136	; 0x79000000
    9f74:	63786520 	cmnvs	r8, #32, 10	; 0x8000000
    9f78:	65646565 	strbvs	r6, [r4, #-1381]!	; 0xfffffa9b
    9f7c:	69732064 	ldmdbvs	r3!, {r2, r5, r6, sp}^
    9f80:	6f20657a 	svcvs	0x0020657a
    9f84:	65682066 	strbvs	r2, [r8, #-102]!	; 0xffffff9a
    9f88:	62207061 	eorvs	r7, r0, #97, 0	; 0x61
    9f8c:	75252079 	strvc	r2, [r5, #-121]!	; 0xffffff87
    9f90:	79626e20 	stmdbvc	r2!, {r5, r9, sl, fp, sp, lr}^
    9f94:	0a736574 	beq	1ce356c <__bss_end__+0x1cd9084>
    9f98:	0000000a 	andeq	r0, r0, sl
    9f9c:	4f525245 	svcmi	0x00525245
    9fa0:	73253a52 			; <UNDEFINED> instruction: 0x73253a52
    9fa4:	3a73253a 	bcc	1cd3494 <__bss_end__+0x1cc8fac>
    9fa8:	203a6425 	eorscs	r6, sl, r5, lsr #8
    9fac:	534c4146 	movtpl	r4, #49478	; 0xc146
    9fb0:	253c2845 	ldrcs	r2, [ip, #-2117]!	; 0xfffff7bb
    9fb4:	3a293e73 	bcc	a59988 <__bss_end__+0xa4f4a0>
    9fb8:	73736120 	cmnvc	r3, #8
    9fbc:	6e696d75 	mcrvs	13, 3, r6, cr9, cr5, {3}
    9fc0:	6f702067 	svcvs	0x00702067
    9fc4:	20726577 	rsbscs	r6, r2, r7, ror r5
    9fc8:	7420666f 	strtvc	r6, [r0], #-1647	; 0xfffff991
    9fcc:	000a6f77 	andeq	r6, sl, r7, ror pc
    9fd0:	705f7369 	subsvc	r7, pc, r9, ror #6
    9fd4:	2832776f 	ldmdacs	r2!, {r0, r1, r2, r3, r5, r6, r8, r9, sl, ip, sp, lr}
    9fd8:	67696c61 	strbvs	r6, [r9, -r1, ror #24]!
    9fdc:	6e656d6e 	cdpvs	13, 6, cr6, cr5, cr14, {3}
    9fe0:	00002974 	andeq	r2, r0, r4, ror r9
    9fe4:	705f7369 	subsvc	r7, pc, r9, ror #6
    9fe8:	2832776f 	ldmdacs	r2!, {r0, r1, r2, r3, r5, r6, r8, r9, sl, ip, sp, lr}
    9fec:	0000296e 	andeq	r2, r0, lr, ror #18
    9ff0:	4f525245 	svcmi	0x00525245
    9ff4:	73253a52 			; <UNDEFINED> instruction: 0x73253a52
    9ff8:	3a73253a 	bcc	1cd34e8 <__bss_end__+0x1cc9000>
    9ffc:	203a6425 	eorscs	r6, sl, r5, lsr #8
    a000:	534c4146 	movtpl	r4, #49478	; 0xc146
    a004:	253c2845 	ldrcs	r2, [ip, #-2117]!	; 0xfffff7bb
    a008:	3a293e73 	bcc	a599dc <__bss_end__+0xa4f4f4>
    a00c:	706d6920 	rsbvc	r6, sp, r0, lsr #18
    a010:	6973736f 	ldmdbvs	r3!, {r0, r1, r2, r3, r5, r6, r8, r9, ip, sp, lr}^
    a014:	0a656c62 	beq	19651a4 <__bss_end__+0x195acbc>
    a018:	00000000 	andeq	r0, r0, r0
    a01c:	615f7369 	cmpvs	pc, r9, ror #6
    a020:	6e67696c 	vnmulvs.f16	s13, s14, s25	; <UNPREDICTABLE>
    a024:	68286465 	stmdavs	r8!, {r0, r2, r5, r6, sl, sp, lr}
    a028:	6c61202c 	stclvs	0, cr2, [r1], #-176	; 0xffffff50
    a02c:	6d6e6769 	stclvs	7, cr6, [lr, #-420]!	; 0xfffffe5c
    a030:	29746e65 	ldmdbcs	r4!, {r0, r2, r5, r6, r9, sl, fp, sp, lr}^
    a034:	00000000 	andeq	r0, r0, r0
    a038:	494e4150 	stmdbmi	lr, {r4, r6, r8, lr}^
    a03c:	73253a43 			; <UNDEFINED> instruction: 0x73253a43
    a040:	3a73253a 	bcc	1cd3530 <__bss_end__+0x1cc9048>
    a044:	703a6425 	eorsvc	r6, sl, r5, lsr #8
    a048:	746e696f 	strbtvc	r6, [lr], #-2415	; 0xfffff691
    a04c:	25207265 	strcs	r7, [r0, #-613]!	; 0xfffffd9b
    a050:	61772070 	cmnvs	r7, r0, ror r0
    a054:	656e2073 	strbvs	r2, [lr, #-115]!	; 0xffffff8d
    a058:	20726576 	rsbscs	r6, r2, r6, ror r5
    a05c:	6f6c6c61 	svcvs	0x006c6c61
    a060:	65746163 	ldrbvs	r6, [r4, #-355]!	; 0xfffffe9d
    a064:	000a0a64 	andeq	r0, sl, r4, ror #20

0000a068 <__FUNCTION__.7>:
    a068:	6c616d6b 	stclvs	13, cr6, [r1], #-428	; 0xfffffe54
    a06c:	5f636f6c 	svcpl	0x00636f6c
    a070:	74696e69 	strbtvc	r6, [r9], #-3689	; 0xfffff197
    a074:	7465735f 	strbtvc	r7, [r5], #-863	; 0xfffffca1
    a078:	6174735f 	cmnvs	r4, pc, asr r3
    a07c:	00007472 	andeq	r7, r0, r2, ror r4

0000a080 <__FUNCTION__.5>:
    a080:	6c616d6b 	stclvs	13, cr6, [r1], #-428	; 0xfffffe54
    a084:	5f636f6c 	svcpl	0x00636f6c
    a088:	74696e69 	strbtvc	r6, [r9], #-3689	; 0xfffff197
    a08c:	00000000 	andeq	r0, r0, r0

0000a090 <__FUNCTION__.4>:
    a090:	6c616d6b 	stclvs	13, cr6, [r1], #-428	; 0xfffffe54
    a094:	5f636f6c 	svcpl	0x00636f6c
    a098:	7a746f6e 	bvc	1d25e58 <__bss_end__+0x1d1b970>
    a09c:	006f7265 	rsbeq	r7, pc, r5, ror #4

0000a0a0 <__FUNCTION__.2>:
    a0a0:	6c616d6b 	stclvs	13, cr6, [r1], #-428	; 0xfffffe54
    a0a4:	00636f6c 	rsbeq	r6, r3, ip, ror #30

0000a0a8 <__FUNCTION__.1>:
    a0a8:	6c616d6b 	stclvs	13, cr6, [r1], #-428	; 0xfffffe54
    a0ac:	5f636f6c 	svcpl	0x00636f6c
    a0b0:	67696c61 	strbvs	r6, [r9, -r1, ror #24]!
    a0b4:	0064656e 	rsbeq	r6, r4, lr, ror #10

0000a0b8 <__FUNCTION__.3>:
    a0b8:	6e756f72 	mrcvs	15, 3, r6, cr5, cr2, {3}
    a0bc:	00707564 	rsbseq	r7, r0, r4, ror #10

0000a0c0 <__FUNCTION__.0>:
    a0c0:	6572666b 	ldrbvs	r6, [r2, #-1643]!	; 0xfffff995
    a0c4:	6f705f65 	svcvs	0x00705f65
    a0c8:	Address 0x000000000000a0c8 is out of bounds.


Disassembly of section .data:

0000a0cc <putk>:
    a0cc:	000089b0 			; <UNDEFINED> instruction: 0x000089b0

0000a0d0 <heap>:
    a0d0:	0000a4e8 	andeq	sl, r0, r8, ror #9

0000a0d4 <heap_start>:
    a0d4:	0000a4e8 	andeq	sl, r0, r8, ror #9

0000a0d8 <heap_end>:
    a0d8:	0020a4e8 	eoreq	sl, r0, r8, ror #9

0000a0dc <rpi_putchar>:
    a0dc:	00009c2c 	andeq	r9, r0, ip, lsr #24

Disassembly of section .bss:

0000a0e0 <__bss_start__>:
	...

0000a4e0 <init_p.6>:
	...

Disassembly of section .ARM.attributes:

00000000 <.ARM.attributes>:
   0:	00002a41 	andeq	r2, r0, r1, asr #20
   4:	61656100 	cmnvs	r5, r0, lsl #2
   8:	01006962 	tsteq	r0, r2, ror #18
   c:	00000020 	andeq	r0, r0, r0, lsr #32
  10:	4b5a3605 	blmi	168d82c <__bss_end__+0x1683344>
  14:	08070600 	stmdaeq	r7, {r9, sl}
  18:	12010901 	andne	r0, r1, #16384	; 0x4000
  1c:	15011404 	strne	r1, [r1, #-1028]	; 0xfffffbfc
  20:	18031701 	stmdane	r3, {r0, r8, r9, sl, ip}
  24:	22011a01 	andcs	r1, r1, #4096	; 0x1000
  28:	Address 0x0000000000000028 is out of bounds.


Disassembly of section .comment:

00000000 <.comment>:
   0:	3a434347 	bcc	10d0d24 <__bss_end__+0x10c683c>
   4:	4e472820 	cdpmi	8, 4, cr2, cr7, cr0, {1}
   8:	6f542055 	svcvs	0x00542055
   c:	20736c6f 	rsbscs	r6, r3, pc, ror #24
  10:	20726f66 	rsbscs	r6, r2, r6, ror #30
  14:	206d7241 	rsbcs	r7, sp, r1, asr #4
  18:	65626d45 	strbvs	r6, [r2, #-3397]!	; 0xfffff2bb
  1c:	64656464 	strbtvs	r6, [r5], #-1124	; 0xfffffb9c
  20:	6f725020 	svcvs	0x00725020
  24:	73736563 	cmnvc	r3, #415236096	; 0x18c00000
  28:	2073726f 	rsbscs	r7, r3, pc, ror #4
  2c:	30322d39 	eorscc	r2, r2, r9, lsr sp
  30:	712d3931 			; <UNDEFINED> instruction: 0x712d3931
  34:	616d2d34 	cmnvs	sp, r4, lsr sp
  38:	29726f6a 	ldmdbcs	r2!, {r1, r3, r5, r6, r8, r9, sl, fp, sp, lr}^
  3c:	322e3920 	eorcc	r3, lr, #32, 18	; 0x80000
  40:	3220312e 	eorcc	r3, r0, #-2147483637	; 0x8000000b
  44:	31393130 	teqcc	r9, r0, lsr r1
  48:	20353230 	eorscs	r3, r5, r0, lsr r2
  4c:	6c657228 	sfmvs	f7, 2, [r5], #-160	; 0xffffff60
  50:	65736165 	ldrbvs	r6, [r3, #-357]!	; 0xfffffe9b
  54:	415b2029 	cmpmi	fp, r9, lsr #32
  58:	612f4d52 			; <UNDEFINED> instruction: 0x612f4d52
  5c:	392d6d72 	pushcc	{r1, r4, r5, r6, r8, sl, fp, sp, lr}
  60:	6172622d 	cmnvs	r2, sp, lsr #4
  64:	2068636e 	rsbcs	r6, r8, lr, ror #6
  68:	69766572 	ldmdbvs	r6!, {r1, r4, r5, r6, r8, sl, sp, lr}^
  6c:	6e6f6973 			; <UNDEFINED> instruction: 0x6e6f6973
  70:	37373220 	ldrcc	r3, [r7, -r0, lsr #4]!
  74:	5d393935 			; <UNDEFINED> instruction: 0x5d393935
  78:	43434700 	movtmi	r4, #14080	; 0x3700
  7c:	4728203a 			; <UNDEFINED> instruction: 0x4728203a
  80:	5420554e 	strtpl	r5, [r0], #-1358	; 0xfffffab2
  84:	636c6f6f 	cmnvs	ip, #444	; 0x1bc
  88:	6e696168 	powvsez	f6, f1, #0.0
  8c:	726f6620 	rsbvc	r6, pc, #32, 12	; 0x2000000
  90:	65687420 	strbvs	r7, [r8, #-1056]!	; 0xfffffbe0
  94:	6d724120 	ldfvse	f4, [r2, #-128]!	; 0xffffff80
  98:	63724120 	cmnvs	r2, #8
  9c:	65746968 	ldrbvs	r6, [r4, #-2408]!	; 0xfffff698
  a0:	72757463 	rsbsvc	r7, r5, #1660944384	; 0x63000000
  a4:	31312065 	teqcc	r1, r5, rrx
  a8:	322d322e 	eorcc	r3, sp, #-536870910	; 0xe0000002
  ac:	2e323230 	mrccs	2, 1, r3, cr2, cr0, {1}
  b0:	28203230 	stmdacs	r0!, {r4, r5, r9, ip, sp}
  b4:	2d6d7261 	sfmcs	f7, 2, [sp, #-388]!	; 0xfffffe7c
  b8:	312e3131 			; <UNDEFINED> instruction: 0x312e3131
  bc:	20292934 	eorcs	r2, r9, r4, lsr r9
  c0:	322e3131 	eorcc	r3, lr, #1073741836	; 0x4000000c
  c4:	3220312e 	eorcc	r3, r0, #-2147483637	; 0x8000000b
  c8:	30323230 	eorscc	r3, r2, r0, lsr r2
  cc:	00313131 	eorseq	r3, r1, r1, lsr r1
  d0:	3a434347 	bcc	10d0df4 <__bss_end__+0x10c690c>
  d4:	4e472820 	cdpmi	8, 4, cr2, cr7, cr0, {1}
  d8:	72412055 	subvc	r2, r1, #85, 0	; 0x55
  dc:	6d45206d 	stclvs	0, cr2, [r5, #-436]	; 0xfffffe4c
  e0:	64646562 	strbtvs	r6, [r4], #-1378	; 0xfffffa9e
  e4:	54206465 	strtpl	r6, [r0], #-1125	; 0xfffffb9b
  e8:	636c6f6f 	cmnvs	ip, #444	; 0x1bc
  ec:	6e696168 	powvsez	f6, f1, #0.0
  f0:	2e303120 	rsfcssp	f3, f0, f0
  f4:	30322d33 	eorscc	r2, r2, r3, lsr sp
  f8:	312e3132 			; <UNDEFINED> instruction: 0x312e3132
  fc:	31202930 			; <UNDEFINED> instruction: 0x31202930
 100:	2e332e30 	mrccs	14, 1, r2, cr3, cr0, {1}
 104:	30322031 	eorscc	r2, r2, r1, lsr r0
 108:	38303132 	ldmdacc	r0!, {r1, r4, r5, r8, ip, sp}
 10c:	28203432 	stmdacs	r0!, {r1, r4, r5, sl, ip, sp}
 110:	656c6572 	strbvs	r6, [ip, #-1394]!	; 0xfffffa8e
 114:	29657361 	stmdbcs	r5!, {r0, r5, r6, r8, r9, ip, sp, lr}^
	...

Disassembly of section .debug_info:

00000000 <.debug_info>:
       0:	000002b7 			; <UNDEFINED> instruction: 0x000002b7
       4:	00000004 	andeq	r0, r0, r4
       8:	01040000 	mrseq	r0, (UNDEF: 4)
       c:	000000d4 	ldrdeq	r0, [r0], -r4
      10:	0001890c 	andeq	r8, r1, ip, lsl #18
      14:	00005d00 	andeq	r5, r0, r0, lsl #26
      18:	00804000 	addeq	r4, r0, r0
      1c:	0000bc00 	andeq	fp, r0, r0, lsl #24
      20:	00000000 	andeq	r0, r0, r0
      24:	05040200 	streq	r0, [r4, #-512]	; 0xfffffe00
      28:	00746e69 	rsbseq	r6, r4, r9, ror #28
      2c:	9d070403 	cfstrsls	mvf0, [r7, #-12]
      30:	04000001 	streq	r0, [r0], #-1
      34:	0000002c 	andeq	r0, r0, ip, lsr #32
      38:	00002c05 	andeq	r2, r0, r5, lsl #24
      3c:	06010300 	streq	r0, [r1], -r0, lsl #6
      40:	0000008f 	andeq	r0, r0, pc, lsl #1
      44:	d4050203 	strle	r0, [r5], #-515	; 0xfffffdfd
      48:	03000001 	movweq	r0, #1
      4c:	01bf0504 			; <UNDEFINED> instruction: 0x01bf0504
      50:	08030000 	stmdaeq	r3, {}	; <UNPREDICTABLE>
      54:	0001ba05 	andeq	fp, r1, r5, lsl #20
      58:	08010300 	stmdaeq	r1, {r8, r9}
      5c:	0000008d 	andeq	r0, r0, sp, lsl #1
      60:	a4070203 	strge	r0, [r7], #-515	; 0xfffffdfd
      64:	03000000 	movweq	r0, #0
      68:	01980704 	orrseq	r0, r8, r4, lsl #14
      6c:	08030000 	stmdaeq	r3, {}	; <UNPREDICTABLE>
      70:	00019307 	andeq	r9, r1, r7, lsl #6
      74:	00250600 	eoreq	r0, r5, r0, lsl #12
      78:	00840000 	addeq	r0, r4, r0
      7c:	25070000 	strcs	r0, [r7, #-0]
      80:	00000000 	andeq	r0, r0, r0
      84:	0001c808 	andeq	ip, r1, r8, lsl #16
      88:	0e1c0200 	cdpeq	2, 1, cr0, cr12, cr0, {0}
      8c:	00000090 	muleq	r0, r0, r0
      90:	00750409 	rsbseq	r0, r5, r9, lsl #8
      94:	25060000 	strcs	r0, [r6, #-0]
      98:	a5000000 	strge	r0, [r0, #-0]
      9c:	07000000 	streq	r0, [r0, -r0]
      a0:	000000a5 	andeq	r0, r0, r5, lsr #1
      a4:	b2040900 	andlt	r0, r4, #0, 18
      a8:	03000000 	movweq	r0, #0
      ac:	00960801 	addseq	r0, r6, r1, lsl #16
      b0:	ab050000 	blge	1400b8 <__bss_end__+0x135bd0>
      b4:	08000000 	stmdaeq	r0, {}	; <UNPREDICTABLE>
      b8:	00000597 	muleq	r0, r7, r5
      bc:	c30e2102 	movwgt	r2, #57602	; 0xe102
      c0:	09000000 	stmdbeq	r0, {}	; <UNPREDICTABLE>
      c4:	00009604 	andeq	r9, r0, r4, lsl #12
      c8:	00150a00 	andseq	r0, r5, r0, lsl #20
      cc:	73030000 	movwvc	r0, #12288	; 0x3000
      d0:	0000d91b 	andeq	sp, r0, fp, lsl r9
      d4:	20001c00 	andcs	r1, r0, r0, lsl #24
      d8:	33040920 	movwcc	r0, #18720	; 0x4920
      dc:	0a000000 	beq	e4 <__code_start__-0x7f1c>
      e0:	0000000b 	andeq	r0, r0, fp
      e4:	d91b7403 	ldmdble	fp, {r0, r1, sl, ip, sp, lr}
      e8:	28000000 	stmdacs	r0, {}	; <UNPREDICTABLE>
      ec:	0a202000 	beq	8080f4 <__bss_end__+0x7fdc0c>
      f0:	000001aa 	andeq	r0, r0, sl, lsr #3
      f4:	d91b7503 	ldmdble	fp, {r0, r1, r8, sl, ip, sp, lr}
      f8:	34000000 	strcc	r0, [r0], #-0
      fc:	0b202000 	bleq	808104 <__bss_end__+0x7fdc1c>
     100:	00000027 	andeq	r0, r0, r7, lsr #32
     104:	38179603 	ldmdacc	r7, {r0, r1, r9, sl, ip, pc}
     108:	10000000 	andne	r0, r0, r0
     10c:	0001b40c 	andeq	fp, r1, ip, lsl #8
     110:	1c030400 	cfstrsne	mvf0, [r3], {-0}
     114:	00000118 	andeq	r0, r0, r8, lsl r1
     118:	011e0409 	tsteq	lr, r9, lsl #8
     11c:	000d0000 	andeq	r0, sp, r0
     120:	0e000000 	cdpeq	0, 0, cr0, cr0, cr0, {0}
     124:	00590107 	subseq	r0, r9, r7, lsl #2
     128:	0b010000 	bleq	40130 <__bss_end__+0x35c48>
     12c:	00013801 	andeq	r3, r1, r1, lsl #16
     130:	001f0f00 	andseq	r0, pc, r0, lsl #30
     134:	00150000 	andseq	r0, r5, r0
     138:	00004110 	andeq	r4, r0, r0, lsl r1
     13c:	060f0100 	streq	r0, [pc], -r0, lsl #2
     140:	00008040 	andeq	r8, r0, r0, asr #32
     144:	000000bc 	strheq	r0, [r0], -ip
     148:	02669c01 	rsbeq	r9, r6, #256	; 0x100
     14c:	490b0000 	stmdbmi	fp, {}	; <UNPREDICTABLE>
     150:	01000000 	mrseq	r0, (UNDEF: 0)
     154:	002c0e17 	eoreq	r0, ip, r7, lsl lr
     158:	11100000 	tstne	r0, r0
     15c:	18010068 	stmdane	r1, {r3, r5, r6}
     160:	00010c0b 	andeq	r0, r1, fp, lsl #24
     164:	00000400 	andeq	r0, r0, r0, lsl #8
     168:	00000000 	andeq	r0, r0, r0
     16c:	00691100 	rsbeq	r1, r9, r0, lsl #2
     170:	25091b01 	strcs	r1, [r9, #-2817]	; 0xfffff4ff
     174:	30000000 	andcc	r0, r0, r0
     178:	22000000 	andcs	r0, r0, #0, 0
     17c:	12000000 	andne	r0, r0, #0, 0
     180:	00000000 	andeq	r0, r0, r0
     184:	0000021e 	andeq	r0, r0, lr, lsl r2
     188:	01007211 	tsteq	r0, r1, lsl r2
     18c:	00250e1c 	eoreq	r0, r5, ip, lsl lr
     190:	00900000 	addseq	r0, r0, r0
     194:	00880000 	addeq	r0, r8, r0
     198:	28130000 	ldmdacs	r3, {}	; <UNPREDICTABLE>
     19c:	11000000 	mrsne	r0, (UNDEF: 0)
     1a0:	1e010067 	cdpne	0, 0, cr0, cr1, cr7, {3}
     1a4:	00002512 	andeq	r2, r0, r2, lsl r5
     1a8:	0000cf00 	andeq	ip, r0, r0, lsl #30
     1ac:	0000c700 	andeq	ip, r0, r0, lsl #14
     1b0:	00401300 	subeq	r1, r0, r0, lsl #6
     1b4:	62110000 	andsvs	r0, r1, #0, 0
     1b8:	16200100 	strtne	r0, [r0], -r0, lsl #2
     1bc:	00000025 	andeq	r0, r0, r5, lsr #32
     1c0:	0000010e 	andeq	r0, r0, lr, lsl #2
     1c4:	00000106 	andeq	r0, r0, r6, lsl #2
     1c8:	0080a014 	addeq	sl, r0, r4, lsl r0
     1cc:	00026600 	andeq	r6, r2, r0, lsl #12
     1d0:	0001f700 	andeq	pc, r1, r0, lsl #14
     1d4:	50011500 	andpl	r1, r1, r0, lsl #10
     1d8:	15007602 	strne	r7, [r0, #-1538]	; 0xfffff9fe
     1dc:	75045101 	strvc	r5, [r4, #-257]	; 0xfffffeff
     1e0:	151a3f00 	ldrne	r3, [sl, #-3840]	; 0xfffff100
     1e4:	7b025201 	blvc	949f0 <__bss_end__+0x8a508>
     1e8:	53011500 	movwpl	r1, #5376	; 0x1500
     1ec:	15007702 	strne	r7, [r0, #-1794]	; 0xfffff8fe
     1f0:	02007d02 	andeq	r7, r0, #128	; 0x80
     1f4:	14000074 	strne	r0, [r0], #-116	; 0xffffff8c
     1f8:	000080a8 	andeq	r8, r0, r8, lsr #1
     1fc:	00000272 	andeq	r0, r0, r2, ror r2
     200:	0000020b 	andeq	r0, r0, fp, lsl #4
     204:	02500115 	subseq	r0, r0, #1073741829	; 0x40000005
     208:	16000076 			; <UNDEFINED> instruction: 0x16000076
     20c:	000080b4 	strheq	r8, [r0], -r4
     210:	0000027e 	andeq	r0, r0, lr, ror r2
     214:	02500115 	subseq	r0, r0, #1073741829	; 0x40000005
     218:	00006408 	andeq	r6, r0, r8, lsl #8
     21c:	4c170000 	ldcmi	0, cr0, [r7], {-0}
     220:	8a000080 	bhi	428 <__code_start__-0x7bd8>
     224:	14000002 	strne	r0, [r0], #-2
     228:	00008054 	andeq	r8, r0, r4, asr r0
     22c:	00000296 	muleq	r0, r6, r2
     230:	0000023a 	andeq	r0, r0, sl, lsr r2
     234:	01500115 	cmpeq	r0, r5, lsl r1
     238:	60140045 	andsvs	r0, r4, r5, asr #32
     23c:	a2000080 	andge	r0, r0, #128, 0	; 0x80
     240:	52000002 	andpl	r0, r0, #2, 0
     244:	15000002 	strne	r0, [r0, #-2]
     248:	45015001 	strmi	r5, [r1, #-1]
     24c:	01510115 	cmpeq	r1, r5, lsl r1
     250:	f8180040 			; <UNDEFINED> instruction: 0xf8180040
     254:	ae000080 	cdpge	0, 0, cr0, cr0, cr0, {4}
     258:	15000002 	strne	r0, [r0, #-2]
     25c:	03055001 	movweq	r5, #20481	; 0x5001
     260:	00009d40 	andeq	r9, r0, r0, asr #26
     264:	34190000 	ldrcc	r0, [r9], #-0
     268:	34000000 	strcc	r0, [r0], #-0
     26c:	04000000 	streq	r0, [r0], #-0
     270:	b719060c 	ldrlt	r0, [r9, -ip, lsl #12]
     274:	b7000000 	strlt	r0, [r0, -r0]
     278:	04000000 	streq	r0, [r0], #-0
     27c:	9b19060d 	blls	641ab8 <__bss_end__+0x6375d0>
     280:	9b000000 	blls	288 <__code_start__-0x7d78>
     284:	02000000 	andeq	r0, r0, #0, 0
     288:	de190658 	mrcle	6, 0, r0, cr9, cr8, {2}
     28c:	de000001 	cdple	0, 0, cr0, cr0, cr1, {0}
     290:	02000001 	andeq	r0, r0, #1, 0
     294:	c41906a0 	ldrgt	r0, [r9], #-1696	; 0xfffff960
     298:	c4000000 	strgt	r0, [r0], #-0
     29c:	05000000 	streq	r0, [r0, #-0]
     2a0:	5119061d 	tstpl	r9, sp, lsl r6
     2a4:	51000000 	mrspl	r0, (UNDEF: 0)
     2a8:	04000000 	streq	r0, [r0], #-0
     2ac:	59190706 	ldmdbpl	r9, {r1, r2, r8, r9, sl}
     2b0:	59000005 	stmdbpl	r0, {r0, r2}
     2b4:	02000005 	andeq	r0, r0, #5, 0
     2b8:	75000628 	strvc	r0, [r0, #-1576]	; 0xfffff9d8
     2bc:	0400002a 	streq	r0, [r0], #-42	; 0xffffffd6
     2c0:	00014c00 	andeq	r4, r1, r0, lsl #24
     2c4:	d4010400 	strle	r0, [r1], #-1024	; 0xfffffc00
     2c8:	0c000000 	stceq	0, cr0, [r0], {-0}
     2cc:	00000286 	andeq	r0, r0, r6, lsl #5
     2d0:	0000005d 	andeq	r0, r0, sp, asr r0
     2d4:	00008100 	andeq	r8, r0, r0, lsl #2
     2d8:	00000640 	andeq	r0, r0, r0, asr #12
     2dc:	0000017c 	andeq	r0, r0, ip, ror r1
     2e0:	69050402 	stmdbvs	r5, {r1, sl}
     2e4:	0300746e 	movweq	r7, #1134	; 0x46e
     2e8:	019d0704 	orrseq	r0, sp, r4, lsl #14
     2ec:	2c040000 	stccs	0, cr0, [r4], {-0}
     2f0:	05000000 	streq	r0, [r0, #-0]
     2f4:	0000002c 	andeq	r0, r0, ip, lsr #32
     2f8:	8f060103 	svchi	0x00060103
     2fc:	03000000 	movweq	r0, #0
     300:	01d40502 	bicseq	r0, r4, r2, lsl #10
     304:	04030000 	streq	r0, [r3], #-0
     308:	0001bf05 	andeq	fp, r1, r5, lsl #30
     30c:	05080300 	streq	r0, [r8, #-768]	; 0xfffffd00
     310:	000001ba 			; <UNDEFINED> instruction: 0x000001ba
     314:	00020a06 	andeq	r0, r2, r6, lsl #20
     318:	182e0300 	stmdane	lr!, {r8, r9}
     31c:	00000065 	andeq	r0, r0, r5, rrx
     320:	8d080103 	stfhis	f0, [r8, #-12]
     324:	03000000 	movweq	r0, #0
     328:	00a40702 	adceq	r0, r4, r2, lsl #14
     32c:	64060000 	strvs	r0, [r6], #-0
     330:	03000002 	movweq	r0, #2
     334:	007f1934 	rsbseq	r1, pc, r4, lsr r9	; <UNPREDICTABLE>
     338:	04030000 	streq	r0, [r3], #-0
     33c:	00019807 	andeq	r9, r1, r7, lsl #16
     340:	07080300 	streq	r0, [r8, -r0, lsl #6]
     344:	00000193 	muleq	r0, r3, r1
     348:	00002507 	andeq	r2, r0, r7, lsl #10
     34c:	00009c00 	andeq	r9, r0, r0, lsl #24
     350:	00250800 	eoreq	r0, r5, r0, lsl #16
     354:	09000000 	stmdbeq	r0, {}	; <UNPREDICTABLE>
     358:	000001c8 	andeq	r0, r0, r8, asr #3
     35c:	a80e1c04 	stmdage	lr, {r2, sl, fp, ip}
     360:	0a000000 	beq	368 <__code_start__-0x7c98>
     364:	00008d04 	andeq	r8, r0, r4, lsl #26
     368:	00250700 	eoreq	r0, r5, r0, lsl #14
     36c:	00bd0000 	adcseq	r0, sp, r0
     370:	bd080000 	stclt	0, cr0, [r8, #-0]
     374:	00000000 	andeq	r0, r0, r0
     378:	00ca040a 	sbceq	r0, sl, sl, lsl #8
     37c:	01030000 	mrseq	r0, (UNDEF: 3)
     380:	00009608 	andeq	r9, r0, r8, lsl #12
     384:	00c30500 	sbceq	r0, r3, r0, lsl #10
     388:	97090000 	strls	r0, [r9, -r0]
     38c:	04000005 	streq	r0, [r0], #-5
     390:	00db0e21 	sbcseq	r0, fp, r1, lsr #28
     394:	040a0000 	streq	r0, [sl], #-0
     398:	000000ae 	andeq	r0, r0, lr, lsr #1
     39c:	0001b406 	andeq	fp, r1, r6, lsl #8
     3a0:	1c030500 	cfstr32ne	mvfx0, [r3], {-0}
     3a4:	000000ed 	andeq	r0, r0, sp, ror #1
     3a8:	00f3040a 	rscseq	r0, r3, sl, lsl #8
     3ac:	000b0000 	andeq	r0, fp, r0
     3b0:	08000000 	stmdaeq	r0, {}	; <UNPREDICTABLE>
     3b4:	28081601 	stmdacs	r8, {r0, r9, sl, ip}
     3b8:	0c000001 	stceq	0, cr0, [r0], {1}
     3bc:	006e6970 	rsbeq	r6, lr, r0, ror r9
     3c0:	590d1701 	stmdbpl	sp, {r0, r8, r9, sl, ip}
     3c4:	00000000 	andeq	r0, r0, r0
     3c8:	00026d0d 	andeq	r6, r2, sp, lsl #26
     3cc:	0e180100 	mufeqe	f0, f0, f0
     3d0:	00000073 	andeq	r0, r0, r3, ror r0
     3d4:	004a0d04 	subeq	r0, sl, r4, lsl #26
     3d8:	1b010000 	blne	403e0 <__bss_end__+0x35ef8>
     3dc:	0001c216 	andeq	ip, r1, r6, lsl r2
     3e0:	0e000800 	cdpeq	8, 0, cr0, cr0, cr0, {0}
     3e4:	006c0207 	rsbeq	r0, ip, r7, lsl #4
     3e8:	4b020000 	blmi	803f0 <__bss_end__+0x75f08>
     3ec:	0001580a 	andeq	r5, r1, sl, lsl #16
     3f0:	31540f00 	cmpcc	r4, r0, lsl #30
     3f4:	02760048 	rsbseq	r0, r6, #72, 0	; 0x48
     3f8:	48305410 	ldmdami	r0!, {r4, sl, ip, lr}
     3fc:	5410f500 	ldrpl	pc, [r0], #-1280	; 0xfffffb00
     400:	f5004c31 			; <UNDEFINED> instruction: 0xf5004c31
     404:	4c30540f 	cfldrsmi	mvf5, [r0], #-60	; 0xffffffc4
     408:	11027600 	tstne	r2, r0, lsl #12
     40c:	000002ba 			; <UNDEFINED> instruction: 0x000002ba
     410:	120088b8 	andne	r8, r0, #184, 16	; 0xb80000
     414:	00000015 	andeq	r0, r0, r5, lsl r0
     418:	641b7302 	ldrvs	r7, [fp], #-770	; 0xfffffcfe
     41c:	0a000001 	beq	428 <__code_start__-0x7bd8>
     420:	00003304 	andeq	r3, r0, r4, lsl #6
     424:	000b1200 	andeq	r1, fp, r0, lsl #4
     428:	74020000 	strvc	r0, [r2], #-0
     42c:	0001641b 	andeq	r6, r1, fp, lsl r4
     430:	01aa1300 			; <UNDEFINED> instruction: 0x01aa1300
     434:	75020000 	strvc	r0, [r2, #-0]
     438:	0001641b 	andeq	r6, r1, fp, lsl r4
     43c:	20003400 	andcs	r3, r0, r0, lsl #8
     440:	00271420 	eoreq	r1, r7, r0, lsr #8
     444:	96020000 	strls	r0, [r2], -r0
     448:	00003817 	andeq	r3, r0, r7, lsl r8
     44c:	fb0b1000 	blx	2c4456 <__bss_end__+0x2b9f6e>
     450:	03000001 	movweq	r0, #1
     454:	c2081001 	andgt	r1, r8, #1, 0
     458:	0c000001 	stceq	0, cr0, [r0], {1}
     45c:	11010072 	tstne	r1, r2, ror r0
     460:	0000590d 	andeq	r5, r0, sp, lsl #18
     464:	670c0000 	strvs	r0, [ip, -r0]
     468:	0f110100 	svceq	0x00110100
     46c:	00000059 	andeq	r0, r0, r9, asr r0
     470:	00620c01 	rsbeq	r0, r2, r1, lsl #24
     474:	59111101 	ldmdbpl	r1, {r0, r8, ip}
     478:	02000000 	andeq	r0, r0, #0, 0
     47c:	01931500 	orrseq	r1, r3, r0, lsl #10
     480:	01d10000 	bicseq	r0, r1, r0
     484:	2c160000 	ldccs	0, cr0, [r6], {-0}
     488:	00000000 	andeq	r0, r0, r0
     48c:	00003417 	andeq	r3, r0, r7, lsl r4
     490:	06470100 	strbeq	r0, [r7], -r0, lsl #2
     494:	00008720 	andeq	r8, r0, r0, lsr #14
     498:	00000020 	andeq	r0, r0, r0, lsr #32
     49c:	022d9c01 	eoreq	r9, sp, #256	; 0x100
     4a0:	68180000 	ldmdavs	r8, {}	; <UNPREDICTABLE>
     4a4:	19470100 	stmdbne	r7, {r8}^
     4a8:	000000e1 	andeq	r0, r0, r1, ror #1
     4ac:	70195001 	andsvc	r5, r9, r1
     4b0:	0100736f 	tsteq	r0, pc, ror #6
     4b4:	00732547 	rsbseq	r2, r3, r7, asr #10
     4b8:	01490000 	mrseq	r0, (UNDEF: 73)
     4bc:	01450000 	mrseq	r0, (UNDEF: 69)
     4c0:	72180000 	andsvc	r0, r8, #0, 0
     4c4:	32470100 	subcc	r0, r7, #0
     4c8:	00000059 	andeq	r0, r0, r9, asr r0
     4cc:	67185201 	ldrvs	r5, [r8, -r1, lsl #4]
     4d0:	3d470100 	stfcce	f0, [r7, #-0]
     4d4:	00000059 	andeq	r0, r0, r9, asr r0
     4d8:	62185301 	andsvs	r5, r8, #67108864	; 0x4000000
     4dc:	48470100 	stmdami	r7, {r8}^
     4e0:	00000059 	andeq	r0, r0, r9, asr r0
     4e4:	00009102 	andeq	r9, r0, r2, lsl #2
     4e8:	00021917 	andeq	r1, r2, r7, lsl r9
     4ec:	06420100 	strbeq	r0, [r2], -r0, lsl #2
     4f0:	00008630 	andeq	r8, r0, r0, lsr r6
     4f4:	000000f0 	strdeq	r0, [r0], -r0	; <UNPREDICTABLE>
     4f8:	08cf9c01 	stmiaeq	pc, {r0, sl, fp, ip, pc}^	; <UNPREDICTABLE>
     4fc:	68190000 	ldmdavs	r9, {}	; <UNPREDICTABLE>
     500:	19420100 	stmdbne	r2, {r8}^
     504:	000000e1 	andeq	r0, r0, r1, ror #1
     508:	0000016e 	andeq	r0, r0, lr, ror #2
     50c:	0000016a 	andeq	r0, r0, sl, ror #2
     510:	0008cf1a 	andeq	ip, r8, sl, lsl pc
     514:	00863800 	addeq	r3, r6, r0, lsl #16
     518:	b0000000 	andlt	r0, r0, r0
     51c:	0100000c 	tsteq	r0, ip
     520:	e61b0543 	ldr	r0, [fp], -r3, asr #10
     524:	93000008 	movwls	r0, #8
     528:	8f000001 	svchi	0x00000001
     52c:	1b000001 	blne	538 <__code_start__-0x7ac8>
     530:	000008dc 	ldrdeq	r0, [r0], -ip
     534:	000001b6 			; <UNDEFINED> instruction: 0x000001b6
     538:	000001b2 			; <UNDEFINED> instruction: 0x000001b2
     53c:	0008f01c 	andeq	pc, r8, ip, lsl r0	; <UNPREDICTABLE>
     540:	000d3800 	andeq	r3, sp, r0, lsl #16
     544:	0008c400 	andeq	ip, r8, r0, lsl #8
     548:	08f11d00 	ldmeq	r1!, {r8, sl, fp, ip}^
     54c:	01db0000 	bicseq	r0, fp, r0
     550:	01d70000 	bicseq	r0, r7, r0
     554:	b71a0000 	ldrlt	r0, [sl, -r0]
     558:	54000021 	strpl	r0, [r0], #-33	; 0xffffffdf
     55c:	02000086 	andeq	r0, r0, #134, 0	; 0x86
     560:	000db800 	andeq	fp, sp, r0, lsl #16
     564:	093e0100 	ldmdbeq	lr!, {r8}
     568:	0021e41b 	eoreq	lr, r1, fp, lsl r4
     56c:	0001fc00 	andeq	pc, r1, r0, lsl #24
     570:	0001fa00 	andeq	pc, r1, r0, lsl #20
     574:	21da1b00 	bicscs	r1, sl, r0, lsl #22
     578:	01fc0000 	mvnseq	r0, r0
     57c:	01fa0000 	mvnseq	r0, r0
     580:	d01b0000 	andsle	r0, fp, r0
     584:	fc000021 	stc2	0, cr0, [r0], {33}	; 0x21
     588:	fa000001 	blx	594 <__code_start__-0x7a6c>
     58c:	1e000001 	cdpne	0, 0, cr0, cr0, cr1, {0}
     590:	000021c4 	andeq	r2, r0, r4, asr #3
     594:	0021ef1f 	eoreq	lr, r1, pc, lsl pc
     598:	00865400 	addeq	r5, r6, r0, lsl #8
     59c:	50000400 	andpl	r0, r0, r0, lsl #8
     5a0:	0200000e 	andeq	r0, r0, #14, 0
     5a4:	04e005e5 	strbteq	r0, [r0], #1509	; 0x5e5
     5a8:	081b0000 	ldmdaeq	fp, {}	; <UNPREDICTABLE>
     5ac:	12000022 	andne	r0, r0, #34, 0	; 0x22
     5b0:	10000002 	andne	r0, r0, r2
     5b4:	1e000002 	cdpne	0, 0, cr0, cr0, cr2, {0}
     5b8:	000021fc 	strdeq	r2, [r0], -ip
     5bc:	00221220 	eoreq	r1, r2, r0, lsr #4
     5c0:	000ea000 	andeq	sl, lr, r0
     5c4:	22131d00 	andscs	r1, r3, #0, 26
     5c8:	02280000 	eoreq	r0, r8, #0, 0
     5cc:	02260000 	eoreq	r0, r6, #0, 0
     5d0:	1f1a0000 	svcne	0x001a0000
     5d4:	58000022 	stmdapl	r0, {r1, r5}
     5d8:	01000086 	smlabbeq	r0, r6, r0, r0
     5dc:	000ee800 	andeq	lr, lr, r0, lsl #16
     5e0:	09db0200 	ldmibeq	fp, {r9}^
     5e4:	0022381b 	eoreq	r3, r2, fp, lsl r8
     5e8:	00023e00 	andeq	r3, r2, r0, lsl #28
     5ec:	00023c00 	andeq	r3, r2, r0, lsl #24
     5f0:	222c1e00 	eorcs	r1, ip, #0, 28
     5f4:	ab1f0000 	blge	7c05fc <__bss_end__+0x7b6114>
     5f8:	58000022 	stmdapl	r0, {r1, r5}
     5fc:	04000086 	streq	r0, [r0], #-134	; 0xffffff7a
     600:	000f2800 	andeq	r2, pc, r0, lsl #16
     604:	09cf0200 	stmibeq	pc, {r9}^	; <UNPREDICTABLE>
     608:	0000040d 	andeq	r0, r0, sp, lsl #8
     60c:	0022b81e 	eoreq	fp, r2, lr, lsl r8
     610:	231f1a00 	tstcs	pc, #0, 20
     614:	86580000 	ldrbhi	r0, [r8], -r0
     618:	00060000 	andeq	r0, r6, r0
     61c:	00000f50 	andeq	r0, r0, r0, asr pc
     620:	1b05b102 	blne	16ca30 <__bss_end__+0x162548>
     624:	00002338 	andeq	r2, r0, r8, lsr r3
     628:	00000254 	andeq	r0, r0, r4, asr r2
     62c:	00000252 	andeq	r0, r0, r2, asr r2
     630:	00232c1e 	eoreq	r2, r3, lr, lsl ip
     634:	0f502100 	svceq	0x00502100
     638:	441d0000 	ldrmi	r0, [sp], #-0
     63c:	6b000023 	blvs	6d0 <__code_start__-0x7930>
     640:	69000002 	stmdbvs	r0, {r1}
     644:	1f000002 	svcne	0x00000002
     648:	000023b7 			; <UNDEFINED> instruction: 0x000023b7
     64c:	0000865c 	andeq	r8, r0, ip, asr r6
     650:	0f700003 	svceq	0x00700003
     654:	9e020000 	cdpls	0, 0, cr0, cr2, cr0, {0}
     658:	0003a805 	andeq	sl, r3, r5, lsl #16
     65c:	23c41e00 	biccs	r1, r4, #0, 28
     660:	22000000 	andcs	r0, r0, #0, 0
     664:	00002350 	andeq	r2, r0, r0, asr r3
     668:	00008658 	andeq	r8, r0, r8, asr r6
     66c:	00000004 	andeq	r0, r0, r4
     670:	000003c7 	andeq	r0, r0, r7, asr #7
     674:	0023511d 	eoreq	r5, r3, sp, lsl r1
     678:	00028000 	andeq	r8, r2, r0
     67c:	00027e00 	andeq	r7, r2, r0, lsl #28
     680:	5f230000 	svcpl	0x00230000
     684:	60000023 	andvs	r0, r0, r3, lsr #32
     688:	10000086 	andne	r0, r0, r6, lsl #1
     68c:	02000000 	andeq	r0, r0, #0, 0
     690:	781e059f 	ldmdavc	lr, {r0, r1, r2, r3, r4, r7, r8, sl}
     694:	1e000023 	cdpne	0, 0, cr0, cr0, cr3, {1}
     698:	0000236c 	andeq	r2, r0, ip, ror #6
     69c:	0023841d 	eoreq	r8, r3, sp, lsl r4
     6a0:	00029500 	andeq	r9, r2, r0, lsl #10
     6a4:	00029300 	andeq	r9, r2, r0, lsl #6
     6a8:	238e2400 	orrcs	r2, lr, #0, 8
     6ac:	86600000 	strbthi	r0, [r0], -r0
     6b0:	00040000 	andeq	r0, r4, r0
     6b4:	8f1d0000 	svchi	0x001d0000
     6b8:	aa000023 	bge	74c <__code_start__-0x78b4>
     6bc:	a8000002 	stmdage	r0, {r1}
     6c0:	00000002 	andeq	r0, r0, r2
     6c4:	00000000 	andeq	r0, r0, r0
     6c8:	0022771a 	eoreq	r7, r2, sl, lsl r7
     6cc:	00867000 	addeq	r7, r6, r0
     6d0:	10000200 	andne	r0, r0, r0, lsl #4
     6d4:	0200000f 	andeq	r0, r0, #15, 0
     6d8:	841e09d0 	ldrhi	r0, [lr], #-2512	; 0xfffff630
     6dc:	25000022 	strcs	r0, [r0, #-34]	; 0xffffffde
     6e0:	000022df 	ldrdeq	r2, [r0], -pc	; <UNPREDICTABLE>
     6e4:	00008670 	andeq	r8, r0, r0, ror r6
     6e8:	86700004 	ldrbthi	r0, [r0], -r4
     6ec:	00180000 	andseq	r0, r8, r0
     6f0:	b9020000 	stmdblt	r2, {}	; <UNPREDICTABLE>
     6f4:	22f81b05 	rscscs	r1, r8, #5120	; 0x1400
     6f8:	02bf0000 	adcseq	r0, pc, #0, 0
     6fc:	02bd0000 	adcseq	r0, sp, #0, 0
     700:	ec1e0000 	ldc	0, cr0, [lr], {-0}
     704:	1d000022 	stcne	0, cr0, [r0, #-136]	; 0xffffff78
     708:	00002304 	andeq	r2, r0, r4, lsl #6
     70c:	000002d7 	ldrdeq	r0, [r0], -r7
     710:	000002d5 	ldrdeq	r0, [r0], -r5
     714:	00231022 	eoreq	r1, r3, r2, lsr #32
     718:	00867000 	addeq	r7, r6, r0
     71c:	00000400 	andeq	r0, r0, r0, lsl #8
     720:	00047800 	andeq	r7, r4, r0, lsl #16
     724:	23111d00 	tstcs	r1, #0, 26
     728:	02ec0000 	rsceq	r0, ip, #0, 0
     72c:	02ea0000 	rsceq	r0, sl, #0, 0
     730:	26000000 	strcs	r0, [r0], -r0
     734:	0000239d 	muleq	r0, sp, r3
     738:	00008674 	andeq	r8, r0, r4, ror r6
     73c:	86740003 	ldrbthi	r0, [r4], -r3
     740:	00040000 	andeq	r0, r4, r0
     744:	a6020000 	strge	r0, [r2], -r0
     748:	00049805 	andeq	r9, r4, r5, lsl #16
     74c:	23aa1e00 			; <UNDEFINED> instruction: 0x23aa1e00
     750:	23000000 	movwcs	r0, #0
     754:	0000235f 	andeq	r2, r0, pc, asr r3
     758:	00008678 	andeq	r8, r0, r8, ror r6
     75c:	00000010 	andeq	r0, r0, r0, lsl r0
     760:	1e05a702 	cdpne	7, 0, cr10, cr5, cr2, {0}
     764:	00002378 	andeq	r2, r0, r8, ror r3
     768:	00236c1e 	eoreq	r6, r3, lr, lsl ip
     76c:	23841d00 	orrcs	r1, r4, #0, 26
     770:	03010000 	movweq	r0, #4096	; 0x1000
     774:	02ff0000 	rscseq	r0, pc, #0, 0
     778:	8e240000 	cdphi	0, 2, cr0, cr4, cr0, {0}
     77c:	78000023 	stmdavc	r0, {r0, r1, r5}
     780:	04000086 	streq	r0, [r0], #-134	; 0xffffff7a
     784:	1d000000 	stcne	0, cr0, [r0, #-0]
     788:	0000238f 	andeq	r2, r0, pc, lsl #7
     78c:	00000316 	andeq	r0, r0, r6, lsl r3
     790:	00000314 	andeq	r0, r0, r4, lsl r3
     794:	00000000 	andeq	r0, r0, r0
     798:	27000000 	strcs	r0, [r0, -r0]
     79c:	000021ef 	andeq	r2, r0, pc, ror #3
     7a0:	00000f90 	muleq	r0, r0, pc	; <UNPREDICTABLE>
     7a4:	d305e602 	movwle	lr, #22018	; 0x5602
     7a8:	1e000006 	cdpne	0, 0, cr0, cr0, cr6, {0}
     7ac:	00002208 	andeq	r2, r0, r8, lsl #4
     7b0:	0021fc1e 	eoreq	pc, r1, lr, lsl ip	; <UNPREDICTABLE>
     7b4:	22122000 	andscs	r2, r2, #0, 0
     7b8:	0f900000 	svceq	0x00900000
     7bc:	13280000 			; <UNDEFINED> instruction: 0x13280000
     7c0:	1a000022 	bne	850 <__code_start__-0x77b0>
     7c4:	0000221f 	andeq	r2, r0, pc, lsl r2
     7c8:	00008694 	muleq	r0, r4, r6
     7cc:	0fc00002 	svceq	0x00c00002
     7d0:	db020000 	blle	807d8 <__bss_end__+0x762f0>
     7d4:	22381b09 	eorscs	r1, r8, #9216	; 0x2400
     7d8:	032b0000 			; <UNDEFINED> instruction: 0x032b0000
     7dc:	03290000 			; <UNDEFINED> instruction: 0x03290000
     7e0:	2c1e0000 	ldccs	0, cr0, [lr], {-0}
     7e4:	1f000022 	svcne	0x00000022
     7e8:	000022ab 	andeq	r2, r0, fp, lsr #5
     7ec:	00008694 	muleq	r0, r4, r6
     7f0:	0ff00005 	svceq	0x00f00005
     7f4:	cf020000 	svcgt	0x00020000
     7f8:	00060009 	andeq	r0, r6, r9
     7fc:	22b81e00 	adcscs	r1, r8, #0, 28
     800:	1f250000 	svcne	0x00250000
     804:	94000023 	strls	r0, [r0], #-35	; 0xffffffdd
     808:	07000086 	streq	r0, [r0, -r6, lsl #1]
     80c:	00869400 	addeq	r9, r6, r0, lsl #8
     810:	00001800 	andeq	r1, r0, r0, lsl #16
     814:	05b10200 	ldreq	r0, [r1, #512]!	; 0x200
     818:	0023381b 	eoreq	r3, r3, fp, lsl r8
     81c:	00034100 	andeq	r4, r3, r0, lsl #2
     820:	00033f00 	andeq	r3, r3, r0, lsl #30
     824:	232c1e00 			; <UNDEFINED> instruction: 0x232c1e00
     828:	441d0000 	ldrmi	r0, [sp], #-0
     82c:	58000023 	stmdapl	r0, {r0, r1, r5}
     830:	56000003 	strpl	r0, [r0], -r3
     834:	22000003 	andcs	r0, r0, #3, 0
     838:	00002350 	andeq	r2, r0, r0, asr r3
     83c:	00008694 	muleq	r0, r4, r6
     840:	00000004 	andeq	r0, r0, r4
     844:	0000059b 	muleq	r0, fp, r5
     848:	0023511d 	eoreq	r5, r3, sp, lsl r1
     84c:	00036d00 	andeq	r6, r3, r0, lsl #26
     850:	00036b00 	andeq	r6, r3, r0, lsl #22
     854:	b7260000 	strlt	r0, [r6, -r0]!
     858:	98000023 	stmdals	r0, {r0, r1, r5}
     85c:	03000086 	movweq	r0, #134	; 0x86
     860:	00869800 	addeq	r9, r6, r0, lsl #16
     864:	00000400 	andeq	r0, r0, r0, lsl #8
     868:	059e0200 	ldreq	r0, [lr, #512]	; 0x200
     86c:	000005bb 			; <UNDEFINED> instruction: 0x000005bb
     870:	0023c41e 	eoreq	ip, r3, lr, lsl r4
     874:	5f230000 	svcpl	0x00230000
     878:	9c000023 	stcls	0, cr0, [r0], {35}	; 0x23
     87c:	10000086 	andne	r0, r0, r6, lsl #1
     880:	02000000 	andeq	r0, r0, #0, 0
     884:	781e059f 	ldmdavc	lr, {r0, r1, r2, r3, r4, r7, r8, sl}
     888:	1e000023 	cdpne	0, 0, cr0, cr0, cr3, {1}
     88c:	0000236c 	andeq	r2, r0, ip, ror #6
     890:	0023841d 	eoreq	r8, r3, sp, lsl r4
     894:	00038200 	andeq	r8, r3, r0, lsl #4
     898:	00038000 	andeq	r8, r3, r0
     89c:	238e2400 	orrcs	r2, lr, #0, 8
     8a0:	869c0000 	ldrhi	r0, [ip], r0
     8a4:	00040000 	andeq	r0, r4, r0
     8a8:	8f1d0000 	svchi	0x001d0000
     8ac:	97000023 	strls	r0, [r0, -r3, lsr #32]
     8b0:	95000003 	strls	r0, [r0, #-3]
     8b4:	00000003 	andeq	r0, r0, r3
     8b8:	1a000000 	bne	8c0 <__code_start__-0x7740>
     8bc:	00002277 	andeq	r2, r0, r7, ror r2
     8c0:	000086ac 	andeq	r8, r0, ip, lsr #13
     8c4:	0fd80002 	svceq	0x00d80002
     8c8:	d0020000 	andle	r0, r2, r0
     8cc:	22841e09 	addcs	r1, r4, #144	; 0x90
     8d0:	df250000 	svcle	0x00250000
     8d4:	ac000022 	stcge	0, cr0, [r0], {34}	; 0x22
     8d8:	04000086 	streq	r0, [r0], #-134	; 0xffffff7a
     8dc:	0086ac00 	addeq	sl, r6, r0, lsl #24
     8e0:	00001800 	andeq	r1, r0, r0, lsl #16
     8e4:	05b90200 	ldreq	r0, [r9, #512]!	; 0x200
     8e8:	0022f81b 	eoreq	pc, r2, fp, lsl r8	; <UNPREDICTABLE>
     8ec:	0003ac00 	andeq	sl, r3, r0, lsl #24
     8f0:	0003aa00 	andeq	sl, r3, r0, lsl #20
     8f4:	22ec1e00 	rsccs	r1, ip, #0, 28
     8f8:	041d0000 	ldreq	r0, [sp], #-0
     8fc:	c4000023 	strgt	r0, [r0], #-35	; 0xffffffdd
     900:	c2000003 	andgt	r0, r0, #3, 0
     904:	22000003 	andcs	r0, r0, #3, 0
     908:	00002310 	andeq	r2, r0, r0, lsl r3
     90c:	000086ac 	andeq	r8, r0, ip, lsr #13
     910:	00000004 	andeq	r0, r0, r4
     914:	0000066b 	andeq	r0, r0, fp, ror #12
     918:	0023111d 	eoreq	r1, r3, sp, lsl r1
     91c:	0003d900 	andeq	sp, r3, r0, lsl #18
     920:	0003d700 	andeq	sp, r3, r0, lsl #14
     924:	9d260000 	stcls	0, cr0, [r6, #-0]
     928:	b0000023 	andlt	r0, r0, r3, lsr #32
     92c:	03000086 	movweq	r0, #134	; 0x86
     930:	0086b000 	addeq	fp, r6, r0
     934:	00000400 	andeq	r0, r0, r0, lsl #8
     938:	05a60200 	streq	r0, [r6, #512]!	; 0x200
     93c:	0000068b 	andeq	r0, r0, fp, lsl #13
     940:	0023aa1e 	eoreq	sl, r3, lr, lsl sl
     944:	5f230000 	svcpl	0x00230000
     948:	b4000023 	strlt	r0, [r0], #-35	; 0xffffffdd
     94c:	10000086 	andne	r0, r0, r6, lsl #1
     950:	02000000 	andeq	r0, r0, #0, 0
     954:	781e05a7 	ldmdavc	lr, {r0, r1, r2, r5, r7, r8, sl}
     958:	1e000023 	cdpne	0, 0, cr0, cr0, cr3, {1}
     95c:	0000236c 	andeq	r2, r0, ip, ror #6
     960:	0023841d 	eoreq	r8, r3, sp, lsl r4
     964:	0003ee00 	andeq	lr, r3, r0, lsl #28
     968:	0003ec00 	andeq	lr, r3, r0, lsl #24
     96c:	238e2400 	orrcs	r2, lr, #0, 8
     970:	86b40000 	ldrthi	r0, [r4], r0
     974:	00040000 	andeq	r0, r4, r0
     978:	8f1d0000 	svchi	0x001d0000
     97c:	03000023 	movweq	r0, #35	; 0x23
     980:	01000004 	tsteq	r0, r4
     984:	00000004 	andeq	r0, r0, r4
     988:	00000000 	andeq	r0, r0, r0
     98c:	ef290000 	svc	0x00290000
     990:	08000021 	stmdaeq	r0, {r0, r5}
     994:	02000010 	andeq	r0, r0, #16, 0
     998:	081e05e7 	ldmdaeq	lr, {r0, r1, r2, r5, r6, r7, r8, sl}
     99c:	1e000022 	cdpne	0, 0, cr0, cr0, cr2, {1}
     9a0:	000021fc 	strdeq	r2, [r0], -ip
     9a4:	00221220 	eoreq	r1, r2, r0, lsr #4
     9a8:	00100800 	andseq	r0, r0, r0, lsl #16
     9ac:	22132800 	andscs	r2, r3, #0, 16
     9b0:	1f1a0000 	svcne	0x001a0000
     9b4:	d0000022 	andle	r0, r0, r2, lsr #32
     9b8:	02000086 	andeq	r0, r0, #134, 0	; 0x86
     9bc:	00103800 	andseq	r3, r0, r0, lsl #16
     9c0:	09db0200 	ldmibeq	fp, {r9}^
     9c4:	0022381b 	eoreq	r3, r2, fp, lsl r8
     9c8:	00041800 	andeq	r1, r4, r0, lsl #16
     9cc:	00041600 	andeq	r1, r4, r0, lsl #12
     9d0:	222c1e00 	eorcs	r1, ip, #0, 28
     9d4:	ab1f0000 	blge	7c09dc <__bss_end__+0x7b64f4>
     9d8:	d0000022 	andle	r0, r0, r2, lsr #32
     9dc:	05000086 	streq	r0, [r0, #-134]	; 0xffffff7a
     9e0:	00106800 	andseq	r6, r0, r0, lsl #16
     9e4:	09cf0200 	stmibeq	pc, {r9}^	; <UNPREDICTABLE>
     9e8:	000007ef 	andeq	r0, r0, pc, ror #15
     9ec:	0022b81e 	eoreq	fp, r2, lr, lsl r8
     9f0:	231f2500 	tstcs	pc, #0, 10
     9f4:	86d00000 	ldrbhi	r0, [r0], r0
     9f8:	00070000 	andeq	r0, r7, r0
     9fc:	000086d0 	ldrdeq	r8, [r0], -r0
     a00:	00000018 	andeq	r0, r0, r8, lsl r0
     a04:	1b05b102 	blne	16ce14 <__bss_end__+0x16292c>
     a08:	00002338 	andeq	r2, r0, r8, lsr r3
     a0c:	0000042e 	andeq	r0, r0, lr, lsr #8
     a10:	0000042c 	andeq	r0, r0, ip, lsr #8
     a14:	00232c1e 	eoreq	r2, r3, lr, lsl ip
     a18:	23441d00 	movtcs	r1, #19712	; 0x4d00
     a1c:	04450000 	strbeq	r0, [r5], #-0
     a20:	04430000 	strbeq	r0, [r3], #-0
     a24:	50220000 	eorpl	r0, r2, r0
     a28:	d0000023 	andle	r0, r0, r3, lsr #32
     a2c:	04000086 	streq	r0, [r0], #-134	; 0xffffff7a
     a30:	8a000000 	bhi	a38 <__code_start__-0x75c8>
     a34:	1d000007 	stcne	0, cr0, [r0, #-28]	; 0xffffffe4
     a38:	00002351 	andeq	r2, r0, r1, asr r3
     a3c:	0000045a 	andeq	r0, r0, sl, asr r4
     a40:	00000458 	andeq	r0, r0, r8, asr r4
     a44:	23b72600 			; <UNDEFINED> instruction: 0x23b72600
     a48:	86d40000 	ldrbhi	r0, [r4], r0
     a4c:	00030000 	andeq	r0, r3, r0
     a50:	000086d4 	ldrdeq	r8, [r0], -r4
     a54:	00000004 	andeq	r0, r0, r4
     a58:	aa059e02 	bge	168268 <__bss_end__+0x15dd80>
     a5c:	1e000007 	cdpne	0, 0, cr0, cr0, cr7, {0}
     a60:	000023c4 	andeq	r2, r0, r4, asr #7
     a64:	235f2300 	cmpcs	pc, #0, 6
     a68:	86d80000 	ldrbhi	r0, [r8], r0
     a6c:	00100000 	andseq	r0, r0, r0
     a70:	9f020000 	svcls	0x00020000
     a74:	23781e05 	cmncs	r8, #80	; 0x50
     a78:	6c1e0000 	ldcvs	0, cr0, [lr], {-0}
     a7c:	1d000023 	stcne	0, cr0, [r0, #-140]	; 0xffffff74
     a80:	00002384 	andeq	r2, r0, r4, lsl #7
     a84:	0000046f 	andeq	r0, r0, pc, ror #8
     a88:	0000046d 	andeq	r0, r0, sp, ror #8
     a8c:	00238e24 	eoreq	r8, r3, r4, lsr #28
     a90:	0086d800 	addeq	sp, r6, r0, lsl #16
     a94:	00000400 	andeq	r0, r0, r0, lsl #8
     a98:	238f1d00 	orrcs	r1, pc, #0, 26
     a9c:	04840000 	streq	r0, [r4], #0
     aa0:	04820000 	streq	r0, [r2], #0
     aa4:	00000000 	andeq	r0, r0, r0
     aa8:	771a0000 	ldrvc	r0, [sl, -r0]
     aac:	e8000022 	stmda	r0, {r1, r5}
     ab0:	02000086 	andeq	r0, r0, #134, 0	; 0x86
     ab4:	00105000 	andseq	r5, r0, r0
     ab8:	09d00200 	ldmibeq	r0, {r9}^
     abc:	0022841e 	eoreq	r8, r2, lr, lsl r4
     ac0:	22df2500 	sbcscs	r2, pc, #0, 10
     ac4:	86e80000 	strbthi	r0, [r8], r0
     ac8:	00040000 	andeq	r0, r4, r0
     acc:	000086e8 	andeq	r8, r0, r8, ror #13
     ad0:	00000018 	andeq	r0, r0, r8, lsl r0
     ad4:	1b05b902 	blne	16eee4 <__bss_end__+0x1649fc>
     ad8:	000022f8 	strdeq	r2, [r0], -r8
     adc:	00000499 	muleq	r0, r9, r4
     ae0:	00000497 	muleq	r0, r7, r4
     ae4:	0022ec1e 	eoreq	lr, r2, lr, lsl ip
     ae8:	23041d00 	movwcs	r1, #19712	; 0x4d00
     aec:	04b10000 	ldrteq	r0, [r1], #0
     af0:	04af0000 	strteq	r0, [pc], #0	; af8 <__code_start__-0x7508>
     af4:	10220000 	eorne	r0, r2, r0
     af8:	e8000023 	stmda	r0, {r0, r1, r5}
     afc:	04000086 	streq	r0, [r0], #-134	; 0xffffff7a
     b00:	5a000000 	bpl	b08 <__code_start__-0x74f8>
     b04:	1d000008 	stcne	0, cr0, [r0, #-32]	; 0xffffffe0
     b08:	00002311 	andeq	r2, r0, r1, lsl r3
     b0c:	000004c6 	andeq	r0, r0, r6, asr #9
     b10:	000004c4 	andeq	r0, r0, r4, asr #9
     b14:	239d2600 	orrscs	r2, sp, #0, 12
     b18:	86ec0000 	strbthi	r0, [ip], r0
     b1c:	00030000 	andeq	r0, r3, r0
     b20:	000086ec 	andeq	r8, r0, ip, ror #13
     b24:	00000004 	andeq	r0, r0, r4
     b28:	7a05a602 	bvc	16a338 <__bss_end__+0x15fe50>
     b2c:	1e000008 	cdpne	0, 0, cr0, cr0, cr8, {0}
     b30:	000023aa 	andeq	r2, r0, sl, lsr #7
     b34:	235f2300 	cmpcs	pc, #0, 6
     b38:	86f00000 	ldrbthi	r0, [r0], r0
     b3c:	00100000 	andseq	r0, r0, r0
     b40:	a7020000 	strge	r0, [r2, -r0]
     b44:	23781e05 	cmncs	r8, #80	; 0x50
     b48:	6c1e0000 	ldcvs	0, cr0, [lr], {-0}
     b4c:	1d000023 	stcne	0, cr0, [r0, #-140]	; 0xffffff74
     b50:	00002384 	andeq	r2, r0, r4, lsl #7
     b54:	000004db 	ldrdeq	r0, [r0], -fp
     b58:	000004d9 	ldrdeq	r0, [r0], -r9
     b5c:	00238e24 	eoreq	r8, r3, r4, lsr #28
     b60:	0086f000 	addeq	pc, r6, r0
     b64:	00000400 	andeq	r0, r0, r0, lsl #8
     b68:	238f1d00 	orrcs	r1, pc, #0, 26
     b6c:	04f00000 	ldrbteq	r0, [r0], #0
     b70:	04ee0000 	strbteq	r0, [lr], #0
	...
     b7c:	2a000000 	bcs	b84 <__code_start__-0x747c>
     b80:	0000871c 	andeq	r8, r0, ip, lsl r7
     b84:	0000153e 	andeq	r1, r0, lr, lsr r5
     b88:	742b0000 	strtvc	r0, [fp], #-0
     b8c:	01000002 	tsteq	r0, r2
     b90:	fd01063c 	stc2	6, cr0, [r1, #-240]	; 0xffffff10
     b94:	2c000008 	stccs	0, cr0, [r0], {8}
     b98:	3c010068 	stccc	0, cr0, [r1], {104}	; 0x68
     b9c:	0000e11e 	andeq	lr, r0, lr, lsl r1
     ba0:	006e2c00 	rsbeq	r2, lr, r0, lsl #24
     ba4:	2c2a3c01 	stccs	12, cr3, [sl], #-4
     ba8:	2d000000 	stccs	0, cr0, [r0, #-0]
     bac:	0100692e 	tsteq	r0, lr, lsr #18
     bb0:	00250d3d 	eoreq	r0, r5, sp, lsr sp
     bb4:	00000000 	andeq	r0, r0, r0
     bb8:	0002c017 	andeq	ip, r2, r7, lsl r0
     bbc:	06370100 	ldrteq	r0, [r7], -r0, lsl #2
     bc0:	00008370 	andeq	r8, r0, r0, ror r3
     bc4:	000001c4 	andeq	r0, r0, r4, asr #3
     bc8:	14929c01 	ldrne	r9, [r2], #3073	; 0xc01
     bcc:	68190000 	ldmdavs	r9, {}	; <UNPREDICTABLE>
     bd0:	1d370100 	ldfnes	f0, [r7, #-0]
     bd4:	000000e1 	andeq	r0, r0, r1, ror #1
     bd8:	00000507 	andeq	r0, r0, r7, lsl #10
     bdc:	00000503 	andeq	r0, r0, r3, lsl #10
     be0:	01007219 	tsteq	r0, r9, lsl r2
     be4:	00592837 	subseq	r2, r9, r7, lsr r8
     be8:	052e0000 	streq	r0, [lr, #-0]!
     bec:	05280000 	streq	r0, [r8, #-0]!
     bf0:	67190000 	ldrvs	r0, [r9, -r0]
     bf4:	33370100 	teqcc	r7, #0
     bf8:	00000059 	andeq	r0, r0, r9, asr r0
     bfc:	00000560 	andeq	r0, r0, r0, ror #10
     c00:	0000055a 	andeq	r0, r0, sl, asr r5
     c04:	01006218 	tsteq	r0, r8, lsl r2
     c08:	00593e37 	subseq	r3, r9, r7, lsr lr
     c0c:	53010000 	movwpl	r0, #4096	; 0x1000
     c10:	0021b71a 	eoreq	fp, r1, sl, lsl r7
     c14:	00837800 	addeq	r7, r3, r0, lsl #16
     c18:	18000100 	stmdane	r0, {r8}
     c1c:	01000005 	tsteq	r0, r5
     c20:	e41b0538 	ldr	r0, [fp], #-1336	; 0xfffffac8
     c24:	8e000021 	cdphi	0, 0, cr0, cr0, cr1, {1}
     c28:	8c000005 	stchi	0, cr0, [r0], {5}
     c2c:	1b000005 	blne	c48 <__code_start__-0x73b8>
     c30:	000021da 	ldrdeq	r2, [r0], -sl
     c34:	000005a7 	andeq	r0, r0, r7, lsr #11
     c38:	000005a1 	andeq	r0, r0, r1, lsr #11
     c3c:	0021d01b 	eoreq	sp, r1, fp, lsl r0
     c40:	0005d900 	andeq	sp, r5, r0, lsl #18
     c44:	0005d300 	andeq	sp, r5, r0, lsl #6
     c48:	21c41b00 	biccs	r1, r4, r0, lsl #22
     c4c:	06090000 	streq	r0, [r9], -r0
     c50:	06050000 	streq	r0, [r5], -r0
     c54:	ef1f0000 	svc	0x001f0000
     c58:	78000021 	stmdavc	r0, {r0, r5}
     c5c:	03000083 	movweq	r0, #131	; 0x83
     c60:	0005a000 	andeq	sl, r5, r0
     c64:	05e50200 	strbeq	r0, [r5, #512]!	; 0x200
     c68:	00000d52 	andeq	r0, r0, r2, asr sp
     c6c:	0022081b 	eoreq	r0, r2, fp, lsl r8
     c70:	00063a00 	andeq	r3, r6, r0, lsl #20
     c74:	00063600 	andeq	r3, r6, r0, lsl #12
     c78:	21fc1b00 	mvnscs	r1, r0, lsl #22
     c7c:	065c0000 	ldrbeq	r0, [ip], -r0
     c80:	06580000 	ldrbeq	r0, [r8], -r0
     c84:	12200000 	eorne	r0, r0, #0, 0
     c88:	f0000022 			; <UNDEFINED> instruction: 0xf0000022
     c8c:	1d000005 	stcne	0, cr0, [r0, #-20]	; 0xffffffec
     c90:	00002213 	andeq	r2, r0, r3, lsl r2
     c94:	00000687 	andeq	r0, r0, r7, lsl #13
     c98:	00000681 	andeq	r0, r0, r1, lsl #13
     c9c:	00221f1a 	eoreq	r1, r2, sl, lsl pc
     ca0:	00838800 	addeq	r8, r3, r0, lsl #16
     ca4:	38000200 	stmdacc	r0, {r9}
     ca8:	02000006 	andeq	r0, r0, #6, 0
     cac:	381b09db 	ldmdacc	fp, {r0, r1, r3, r4, r6, r7, r8, fp}
     cb0:	b5000022 	strlt	r0, [r0, #-34]	; 0xffffffde
     cb4:	b1000006 	tstlt	r0, r6
     cb8:	1e000006 	cdpne	0, 0, cr0, cr0, cr6, {0}
     cbc:	0000222c 	andeq	r2, r0, ip, lsr #4
     cc0:	0022ab1f 	eoreq	sl, r2, pc, lsl fp
     cc4:	0084f000 	addeq	pc, r4, r0
     cc8:	88000200 	stmdahi	r0, {r9}
     ccc:	02000006 	andeq	r0, r0, #6, 0
     cd0:	0ad709cf 	beq	ff5c3414 <__bss_end__+0xff5b8f2c>
     cd4:	b81e0000 	ldmdalt	lr, {}	; <UNPREDICTABLE>
     cd8:	1a000022 	bne	d68 <__code_start__-0x7298>
     cdc:	0000231f 	andeq	r2, r0, pc, lsl r3
     ce0:	000084f0 	strdeq	r8, [r0], -r0
     ce4:	06b00004 	ldrteq	r0, [r0], r4
     ce8:	b1020000 	mrslt	r0, (UNDEF: 2)
     cec:	23381b05 	teqcs	r8, #5120	; 0x1400
     cf0:	06e30000 	strbteq	r0, [r3], r0
     cf4:	06e10000 	strbteq	r0, [r1], r0
     cf8:	2c1e0000 	ldccs	0, cr0, [lr], {-0}
     cfc:	21000023 	tstcs	r0, r3, lsr #32
     d00:	000006b0 			; <UNDEFINED> instruction: 0x000006b0
     d04:	0023441d 	eoreq	r4, r3, sp, lsl r4
     d08:	0006fa00 	andeq	pc, r6, r0, lsl #20
     d0c:	0006f800 	andeq	pc, r6, r0, lsl #16
     d10:	23b71f00 			; <UNDEFINED> instruction: 0x23b71f00
     d14:	84f40000 	ldrbthi	r0, [r4], #0
     d18:	00030000 	andeq	r0, r3, r0
     d1c:	000006d0 	ldrdeq	r0, [r0], -r0	; <UNPREDICTABLE>
     d20:	72059e02 	andvc	r9, r5, #2, 28
     d24:	1e00000a 	cdpne	0, 0, cr0, cr0, cr10, {0}
     d28:	000023c4 	andeq	r2, r0, r4, asr #7
     d2c:	23502200 	cmpcs	r0, #0, 4
     d30:	84f00000 	ldrbthi	r0, [r0], #0
     d34:	00040000 	andeq	r0, r4, r0
     d38:	0a910000 	beq	fe440d40 <__bss_end__+0xfe436858>
     d3c:	511d0000 	tstpl	sp, r0
     d40:	0f000023 	svceq	0x00000023
     d44:	0d000007 	stceq	0, cr0, [r0, #-28]	; 0xffffffe4
     d48:	00000007 	andeq	r0, r0, r7
     d4c:	00235f23 	eoreq	r5, r3, r3, lsr #30
     d50:	0084f800 	addeq	pc, r4, r0, lsl #16
     d54:	00001000 	andeq	r1, r0, r0
     d58:	059f0200 	ldreq	r0, [pc, #512]	; f60 <__code_start__-0x70a0>
     d5c:	0023781e 	eoreq	r7, r3, lr, lsl r8
     d60:	236c1e00 	cmncs	ip, #0, 28
     d64:	841d0000 	ldrhi	r0, [sp], #-0
     d68:	24000023 	strcs	r0, [r0], #-35	; 0xffffffdd
     d6c:	22000007 	andcs	r0, r0, #7, 0
     d70:	24000007 	strcs	r0, [r0], #-7
     d74:	0000238e 	andeq	r2, r0, lr, lsl #7
     d78:	000084f8 	strdeq	r8, [r0], -r8	; <UNPREDICTABLE>
     d7c:	00000004 	andeq	r0, r0, r4
     d80:	00238f1d 	eoreq	r8, r3, sp, lsl pc
     d84:	00073900 	andeq	r3, r7, r0, lsl #18
     d88:	00073700 	andeq	r3, r7, r0, lsl #14
     d8c:	00000000 	andeq	r0, r0, r0
     d90:	c51f0000 	ldrgt	r0, [pc, #-0]	; d98 <__code_start__-0x7268>
     d94:	94000022 	strls	r0, [r0], #-34	; 0xffffffde
     d98:	01000083 	smlabbeq	r0, r3, r0, r0
     d9c:	0006f000 	andeq	pc, r6, r0
     da0:	09cc0200 	stmibeq	ip, {r9}^
     da4:	00000bab 	andeq	r0, r0, fp, lsr #23
     da8:	0022d21e 	eoreq	sp, r2, lr, lsl r2
     dac:	231f2500 	tstcs	pc, #0, 10
     db0:	83940000 	orrshi	r0, r4, #0, 0
     db4:	00030000 	andeq	r0, r3, r0
     db8:	00008394 	muleq	r0, r4, r3
     dbc:	00000018 	andeq	r0, r0, r8, lsl r0
     dc0:	1b05ac02 	blne	16bdd0 <__bss_end__+0x1618e8>
     dc4:	00002338 	andeq	r2, r0, r8, lsr r3
     dc8:	0000074e 	andeq	r0, r0, lr, asr #14
     dcc:	0000074c 	andeq	r0, r0, ip, asr #14
     dd0:	00232c1e 	eoreq	r2, r3, lr, lsl ip
     dd4:	23441d00 	movtcs	r1, #19712	; 0x4d00
     dd8:	07660000 	strbeq	r0, [r6, -r0]!
     ddc:	07640000 	strbeq	r0, [r4, -r0]!
     de0:	50220000 	eorpl	r0, r2, r0
     de4:	94000023 	strls	r0, [r0], #-35	; 0xffffffdd
     de8:	04000083 	streq	r0, [r0], #-131	; 0xffffff7d
     dec:	46000000 	strmi	r0, [r0], -r0
     df0:	1d00000b 	stcne	0, cr0, [r0, #-44]	; 0xffffffd4
     df4:	00002351 	andeq	r2, r0, r1, asr r3
     df8:	0000077b 	andeq	r0, r0, fp, ror r7
     dfc:	00000779 	andeq	r0, r0, r9, ror r7
     e00:	23b72600 			; <UNDEFINED> instruction: 0x23b72600
     e04:	83980000 	orrshi	r0, r8, #0, 0
     e08:	00030000 	andeq	r0, r3, r0
     e0c:	00008398 	muleq	r0, r8, r3
     e10:	00000004 	andeq	r0, r0, r4
     e14:	66059e02 	strvs	r9, [r5], -r2, lsl #28
     e18:	1e00000b 	cdpne	0, 0, cr0, cr0, cr11, {0}
     e1c:	000023c4 	andeq	r2, r0, r4, asr #7
     e20:	235f2300 	cmpcs	pc, #0, 6
     e24:	839c0000 	orrshi	r0, ip, #0, 0
     e28:	00100000 	andseq	r0, r0, r0
     e2c:	9f020000 	svcls	0x00020000
     e30:	23781e05 	cmncs	r8, #80	; 0x50
     e34:	6c1e0000 	ldcvs	0, cr0, [lr], {-0}
     e38:	1d000023 	stcne	0, cr0, [r0, #-140]	; 0xffffff74
     e3c:	00002384 	andeq	r2, r0, r4, lsl #7
     e40:	00000790 	muleq	r0, r0, r7
     e44:	0000078e 	andeq	r0, r0, lr, lsl #15
     e48:	00238e24 	eoreq	r8, r3, r4, lsr #28
     e4c:	00839c00 	addeq	r9, r3, r0, lsl #24
     e50:	00000400 	andeq	r0, r0, r0, lsl #8
     e54:	238f1d00 	orrcs	r1, pc, #0, 26
     e58:	07a50000 	streq	r0, [r5, r0]!
     e5c:	07a30000 	streq	r0, [r3, r0]!
     e60:	00000000 	andeq	r0, r0, r0
     e64:	911f0000 	tstls	pc, r0
     e68:	ac000022 	stcge	0, cr0, [r0], {34}	; 0x22
     e6c:	02000083 	andeq	r0, r0, #131, 0	; 0x83
     e70:	00070800 	andeq	r0, r7, r0, lsl #16
     e74:	09cd0200 	stmibeq	sp, {r9}^
     e78:	00000c7f 	andeq	r0, r0, pc, ror ip
     e7c:	00229e1e 	eoreq	r9, r2, lr, lsl lr
     e80:	22df2500 	sbcscs	r2, pc, #0, 10
     e84:	83ac0000 			; <UNDEFINED> instruction: 0x83ac0000
     e88:	00040000 	andeq	r0, r4, r0
     e8c:	000083ac 	andeq	r8, r0, ip, lsr #7
     e90:	00000018 	andeq	r0, r0, r8, lsl r0
     e94:	1b05b502 	blne	16e2a4 <__bss_end__+0x163dbc>
     e98:	000022f8 	strdeq	r2, [r0], -r8
     e9c:	000007ba 			; <UNDEFINED> instruction: 0x000007ba
     ea0:	000007b8 			; <UNDEFINED> instruction: 0x000007b8
     ea4:	0022ec1e 	eoreq	lr, r2, lr, lsl ip
     ea8:	23041d00 	movwcs	r1, #19712	; 0x4d00
     eac:	07d10000 	ldrbeq	r0, [r1, r0]
     eb0:	07cf0000 	strbeq	r0, [pc, r0]
     eb4:	10220000 	eorne	r0, r2, r0
     eb8:	ac000023 	stcge	0, cr0, [r0], {35}	; 0x23
     ebc:	04000083 	streq	r0, [r0], #-131	; 0xffffff7d
     ec0:	1a000000 	bne	ec8 <__code_start__-0x7138>
     ec4:	1d00000c 	stcne	0, cr0, [r0, #-48]	; 0xffffffd0
     ec8:	00002311 	andeq	r2, r0, r1, lsl r3
     ecc:	000007e6 	andeq	r0, r0, r6, ror #15
     ed0:	000007e4 	andeq	r0, r0, r4, ror #15
     ed4:	239d2600 	orrscs	r2, sp, #0, 12
     ed8:	83b00000 	movshi	r0, #0, 0
     edc:	00030000 	andeq	r0, r3, r0
     ee0:	000083b0 			; <UNDEFINED> instruction: 0x000083b0
     ee4:	00000004 	andeq	r0, r0, r4
     ee8:	3a05a602 	bcc	16a6f8 <__bss_end__+0x160210>
     eec:	1e00000c 	cdpne	0, 0, cr0, cr0, cr12, {0}
     ef0:	000023aa 	andeq	r2, r0, sl, lsr #7
     ef4:	235f2300 	cmpcs	pc, #0, 6
     ef8:	83b40000 			; <UNDEFINED> instruction: 0x83b40000
     efc:	00100000 	andseq	r0, r0, r0
     f00:	a7020000 	strge	r0, [r2, -r0]
     f04:	23781e05 	cmncs	r8, #80	; 0x50
     f08:	6c1e0000 	ldcvs	0, cr0, [lr], {-0}
     f0c:	1d000023 	stcne	0, cr0, [r0, #-140]	; 0xffffff74
     f10:	00002384 	andeq	r2, r0, r4, lsl #7
     f14:	000007fb 	strdeq	r0, [r0], -fp
     f18:	000007f9 	strdeq	r0, [r0], -r9
     f1c:	00238e24 	eoreq	r8, r3, r4, lsr #28
     f20:	0083b400 	addeq	fp, r3, r0, lsl #8
     f24:	00000400 	andeq	r0, r0, r0, lsl #8
     f28:	238f1d00 	orrcs	r1, pc, #0, 26
     f2c:	08100000 	ldmdaeq	r0, {}	; <UNPREDICTABLE>
     f30:	080e0000 	stmdaeq	lr, {}	; <UNPREDICTABLE>
     f34:	00000000 	andeq	r0, r0, r0
     f38:	771a0000 	ldrvc	r0, [sl, -r0]
     f3c:	08000022 	stmdaeq	r0, {r1, r5}
     f40:	02000085 	andeq	r0, r0, #133, 0	; 0x85
     f44:	00072000 	andeq	r2, r7, r0
     f48:	09d00200 	ldmibeq	r0, {r9}^
     f4c:	0022841e 	eoreq	r8, r2, lr, lsl r4
     f50:	22df2500 	sbcscs	r2, pc, #0, 10
     f54:	85080000 	strhi	r0, [r8, #-0]
     f58:	00040000 	andeq	r0, r4, r0
     f5c:	00008508 	andeq	r8, r0, r8, lsl #10
     f60:	00000018 	andeq	r0, r0, r8, lsl r0
     f64:	1b05b902 	blne	16f374 <__bss_end__+0x164e8c>
     f68:	000022f8 	strdeq	r2, [r0], -r8
     f6c:	00000825 	andeq	r0, r0, r5, lsr #16
     f70:	00000823 	andeq	r0, r0, r3, lsr #16
     f74:	0022ec1e 	eoreq	lr, r2, lr, lsl ip
     f78:	23041d00 	movwcs	r1, #19712	; 0x4d00
     f7c:	083d0000 	ldmdaeq	sp!, {}	; <UNPREDICTABLE>
     f80:	083b0000 	ldmdaeq	fp!, {}	; <UNPREDICTABLE>
     f84:	10220000 	eorne	r0, r2, r0
     f88:	08000023 	stmdaeq	r0, {r0, r1, r5}
     f8c:	04000085 	streq	r0, [r0], #-133	; 0xffffff7b
     f90:	ea000000 	b	f98 <__code_start__-0x7068>
     f94:	1d00000c 	stcne	0, cr0, [r0, #-48]	; 0xffffffd0
     f98:	00002311 	andeq	r2, r0, r1, lsl r3
     f9c:	00000852 	andeq	r0, r0, r2, asr r8
     fa0:	00000850 	andeq	r0, r0, r0, asr r8
     fa4:	239d2600 	orrscs	r2, sp, #0, 12
     fa8:	850c0000 	strhi	r0, [ip, #-0]
     fac:	00030000 	andeq	r0, r3, r0
     fb0:	0000850c 	andeq	r8, r0, ip, lsl #10
     fb4:	00000004 	andeq	r0, r0, r4
     fb8:	0a05a602 	beq	16a7c8 <__bss_end__+0x1602e0>
     fbc:	1e00000d 	cdpne	0, 0, cr0, cr0, cr13, {0}
     fc0:	000023aa 	andeq	r2, r0, sl, lsr #7
     fc4:	235f2300 	cmpcs	pc, #0, 6
     fc8:	85100000 	ldrhi	r0, [r0, #-0]
     fcc:	00100000 	andseq	r0, r0, r0
     fd0:	a7020000 	strge	r0, [r2, -r0]
     fd4:	23781e05 	cmncs	r8, #80	; 0x50
     fd8:	6c1e0000 	ldcvs	0, cr0, [lr], {-0}
     fdc:	1d000023 	stcne	0, cr0, [r0, #-140]	; 0xffffff74
     fe0:	00002384 	andeq	r2, r0, r4, lsl #7
     fe4:	00000867 	andeq	r0, r0, r7, ror #16
     fe8:	00000865 	andeq	r0, r0, r5, ror #16
     fec:	00238e24 	eoreq	r8, r3, r4, lsr #28
     ff0:	00851000 	addeq	r1, r5, r0
     ff4:	00000400 	andeq	r0, r0, r0, lsl #8
     ff8:	238f1d00 	orrcs	r1, pc, #0, 26
     ffc:	087c0000 	ldmdaeq	ip!, {}^	; <UNPREDICTABLE>
    1000:	087a0000 	ldmdaeq	sl!, {}^	; <UNPREDICTABLE>
	...
    100c:	21ef2700 	mvncs	r2, r0, lsl #14
    1010:	07380000 	ldreq	r0, [r8, -r0]!
    1014:	e6020000 	str	r0, [r2], -r0
    1018:	0010f305 	andseq	pc, r0, r5, lsl #6
    101c:	22081e00 	andcs	r1, r8, #0, 28
    1020:	fc1e0000 	ldc2	0, cr0, [lr], {-0}
    1024:	20000021 	andcs	r0, r0, r1, lsr #32
    1028:	00002212 	andeq	r2, r0, r2, lsl r2
    102c:	00000738 	andeq	r0, r0, r8, lsr r7
    1030:	0022131d 	eoreq	r1, r2, sp, lsl r3
    1034:	00089300 	andeq	r9, r8, r0, lsl #6
    1038:	00088f00 	andeq	r8, r8, r0, lsl #30
    103c:	221f1a00 	andscs	r1, pc, #0, 20
    1040:	83d80000 	bicshi	r0, r8, #0, 0
    1044:	00020000 	andeq	r0, r2, r0
    1048:	00000770 	andeq	r0, r0, r0, ror r7
    104c:	1b09db02 	blne	277c5c <__bss_end__+0x26d774>
    1050:	00002238 	andeq	r2, r0, r8, lsr r2
    1054:	000008b5 			; <UNDEFINED> instruction: 0x000008b5
    1058:	000008b1 			; <UNDEFINED> instruction: 0x000008b1
    105c:	00222c1e 	eoreq	r2, r2, lr, lsl ip
    1060:	22ab1f00 	adccs	r1, fp, #0, 30
    1064:	84b00000 	ldrthi	r0, [r0], #0
    1068:	00020000 	andeq	r0, r2, r0
    106c:	000007b8 			; <UNDEFINED> instruction: 0x000007b8
    1070:	7809cf02 	stmdavc	r9, {r1, r8, r9, sl, fp, lr, pc}
    1074:	1e00000e 	cdpne	0, 0, cr0, cr0, cr14, {0}
    1078:	000022b8 			; <UNDEFINED> instruction: 0x000022b8
    107c:	00231f1a 	eoreq	r1, r3, sl, lsl pc
    1080:	0084b000 	addeq	fp, r4, r0
    1084:	d8000400 	stmdale	r0, {sl}
    1088:	02000007 	andeq	r0, r0, #7, 0
    108c:	381b05b1 	ldmdacc	fp, {r0, r4, r5, r7, r8, sl}
    1090:	e3000023 	movw	r0, #35	; 0x23
    1094:	e1000008 	tst	r0, r8
    1098:	1e000008 	cdpne	0, 0, cr0, cr0, cr8, {0}
    109c:	0000232c 	andeq	r2, r0, ip, lsr #6
    10a0:	0007d821 	andeq	sp, r7, r1, lsr #16
    10a4:	23441d00 	movtcs	r1, #19712	; 0x4d00
    10a8:	08fa0000 	ldmeq	sl!, {}^	; <UNPREDICTABLE>
    10ac:	08f80000 	ldmeq	r8!, {}^	; <UNPREDICTABLE>
    10b0:	b71f0000 	ldrlt	r0, [pc, -r0]
    10b4:	b4000023 	strlt	r0, [r0], #-35	; 0xffffffdd
    10b8:	03000084 	movweq	r0, #132	; 0x84
    10bc:	0007f000 	andeq	pc, r7, r0
    10c0:	059e0200 	ldreq	r0, [lr, #512]	; 0x200
    10c4:	00000e13 	andeq	r0, r0, r3, lsl lr
    10c8:	0023c41e 	eoreq	ip, r3, lr, lsl r4
    10cc:	50220000 	eorpl	r0, r2, r0
    10d0:	b0000023 	andlt	r0, r0, r3, lsr #32
    10d4:	04000084 	streq	r0, [r0], #-132	; 0xffffff7c
    10d8:	32000000 	andcc	r0, r0, #0, 0
    10dc:	1d00000e 	stcne	0, cr0, [r0, #-56]	; 0xffffffc8
    10e0:	00002351 	andeq	r2, r0, r1, asr r3
    10e4:	0000090f 	andeq	r0, r0, pc, lsl #18
    10e8:	0000090d 	andeq	r0, r0, sp, lsl #18
    10ec:	235f2300 	cmpcs	pc, #0, 6
    10f0:	84b80000 	ldrthi	r0, [r8], #0
    10f4:	00100000 	andseq	r0, r0, r0
    10f8:	9f020000 	svcls	0x00020000
    10fc:	23781e05 	cmncs	r8, #80	; 0x50
    1100:	6c1e0000 	ldcvs	0, cr0, [lr], {-0}
    1104:	1d000023 	stcne	0, cr0, [r0, #-140]	; 0xffffff74
    1108:	00002384 	andeq	r2, r0, r4, lsl #7
    110c:	00000924 	andeq	r0, r0, r4, lsr #18
    1110:	00000922 	andeq	r0, r0, r2, lsr #18
    1114:	00238e24 	eoreq	r8, r3, r4, lsr #28
    1118:	0084b800 	addeq	fp, r4, r0, lsl #16
    111c:	00000400 	andeq	r0, r0, r0, lsl #8
    1120:	238f1d00 	orrcs	r1, pc, #0, 26
    1124:	09390000 	ldmdbeq	r9!, {}	; <UNPREDICTABLE>
    1128:	09370000 	ldmdbeq	r7!, {}	; <UNPREDICTABLE>
    112c:	00000000 	andeq	r0, r0, r0
    1130:	1f000000 	svcne	0x00000000
    1134:	000022c5 	andeq	r2, r0, r5, asr #5
    1138:	000083e4 	andeq	r8, r0, r4, ror #7
    113c:	08080001 	stmdaeq	r8, {r0}
    1140:	cc020000 	stcgt	0, cr0, [r2], {-0}
    1144:	000f4c09 	andeq	r4, pc, r9, lsl #24
    1148:	22d21e00 	sbcscs	r1, r2, #0, 28
    114c:	1f250000 	svcne	0x00250000
    1150:	e4000023 	str	r0, [r0], #-35	; 0xffffffdd
    1154:	03000083 	movweq	r0, #131	; 0x83
    1158:	0083e400 	addeq	lr, r3, r0, lsl #8
    115c:	00001800 	andeq	r1, r0, r0, lsl #16
    1160:	05ac0200 	streq	r0, [ip, #512]!	; 0x200
    1164:	0023381b 	eoreq	r3, r3, fp, lsl r8
    1168:	00094e00 	andeq	r4, r9, r0, lsl #28
    116c:	00094c00 	andeq	r4, r9, r0, lsl #24
    1170:	232c1e00 			; <UNDEFINED> instruction: 0x232c1e00
    1174:	441d0000 	ldrmi	r0, [sp], #-0
    1178:	66000023 	strvs	r0, [r0], -r3, lsr #32
    117c:	64000009 	strvs	r0, [r0], #-9
    1180:	22000009 	andcs	r0, r0, #9, 0
    1184:	00002350 	andeq	r2, r0, r0, asr r3
    1188:	000083e4 	andeq	r8, r0, r4, ror #7
    118c:	00000004 	andeq	r0, r0, r4
    1190:	00000ee7 	andeq	r0, r0, r7, ror #29
    1194:	0023511d 	eoreq	r5, r3, sp, lsl r1
    1198:	00097b00 	andeq	r7, r9, r0, lsl #22
    119c:	00097900 	andeq	r7, r9, r0, lsl #18
    11a0:	b7260000 	strlt	r0, [r6, -r0]!
    11a4:	e8000023 	stmda	r0, {r0, r1, r5}
    11a8:	03000083 	movweq	r0, #131	; 0x83
    11ac:	0083e800 	addeq	lr, r3, r0, lsl #16
    11b0:	00000400 	andeq	r0, r0, r0, lsl #8
    11b4:	059e0200 	ldreq	r0, [lr, #512]	; 0x200
    11b8:	00000f07 	andeq	r0, r0, r7, lsl #30
    11bc:	0023c41e 	eoreq	ip, r3, lr, lsl r4
    11c0:	5f230000 	svcpl	0x00230000
    11c4:	ec000023 	stc	0, cr0, [r0], {35}	; 0x23
    11c8:	10000083 	andne	r0, r0, r3, lsl #1
    11cc:	02000000 	andeq	r0, r0, #0, 0
    11d0:	781e059f 	ldmdavc	lr, {r0, r1, r2, r3, r4, r7, r8, sl}
    11d4:	1e000023 	cdpne	0, 0, cr0, cr0, cr3, {1}
    11d8:	0000236c 	andeq	r2, r0, ip, ror #6
    11dc:	0023841d 	eoreq	r8, r3, sp, lsl r4
    11e0:	00099000 	andeq	r9, r9, r0
    11e4:	00098e00 	andeq	r8, r9, r0, lsl #28
    11e8:	238e2400 	orrcs	r2, lr, #0, 8
    11ec:	83ec0000 	mvnhi	r0, #0, 0
    11f0:	00040000 	andeq	r0, r4, r0
    11f4:	8f1d0000 	svchi	0x001d0000
    11f8:	a5000023 	strge	r0, [r0, #-35]	; 0xffffffdd
    11fc:	a3000009 	movwge	r0, #9
    1200:	00000009 	andeq	r0, r0, r9
    1204:	1f000000 	svcne	0x00000000
    1208:	00002291 	muleq	r0, r1, r2
    120c:	000083fc 	strdeq	r8, [r0], -ip
    1210:	08200002 	stmdaeq	r0!, {r1}
    1214:	cd020000 	stcgt	0, cr0, [r2, #-0]
    1218:	00102009 	andseq	r2, r0, r9
    121c:	229e1e00 	addscs	r1, lr, #0, 28
    1220:	df250000 	svcle	0x00250000
    1224:	fc000022 	stc2	0, cr0, [r0], {34}	; 0x22
    1228:	04000083 	streq	r0, [r0], #-131	; 0xffffff7d
    122c:	0083fc00 	addeq	pc, r3, r0, lsl #24
    1230:	00001800 	andeq	r1, r0, r0, lsl #16
    1234:	05b50200 	ldreq	r0, [r5, #512]!	; 0x200
    1238:	0022f81b 	eoreq	pc, r2, fp, lsl r8	; <UNPREDICTABLE>
    123c:	0009ba00 	andeq	fp, r9, r0, lsl #20
    1240:	0009b800 	andeq	fp, r9, r0, lsl #16
    1244:	22ec1e00 	rsccs	r1, ip, #0, 28
    1248:	041d0000 	ldreq	r0, [sp], #-0
    124c:	d1000023 	tstle	r0, r3, lsr #32
    1250:	cf000009 	svcgt	0x00000009
    1254:	22000009 	andcs	r0, r0, #9, 0
    1258:	00002310 	andeq	r2, r0, r0, lsl r3
    125c:	000083fc 	strdeq	r8, [r0], -ip
    1260:	00000004 	andeq	r0, r0, r4
    1264:	00000fbb 			; <UNDEFINED> instruction: 0x00000fbb
    1268:	0023111d 	eoreq	r1, r3, sp, lsl r1
    126c:	0009e600 	andeq	lr, r9, r0, lsl #12
    1270:	0009e400 	andeq	lr, r9, r0, lsl #8
    1274:	9d260000 	stcls	0, cr0, [r6, #-0]
    1278:	00000023 	andeq	r0, r0, r3, lsr #32
    127c:	03000084 	movweq	r0, #132	; 0x84
    1280:	00840000 	addeq	r0, r4, r0
    1284:	00000400 	andeq	r0, r0, r0, lsl #8
    1288:	05a60200 	streq	r0, [r6, #512]!	; 0x200
    128c:	00000fdb 	ldrdeq	r0, [r0], -fp
    1290:	0023aa1e 	eoreq	sl, r3, lr, lsl sl
    1294:	5f230000 	svcpl	0x00230000
    1298:	04000023 	streq	r0, [r0], #-35	; 0xffffffdd
    129c:	10000084 	andne	r0, r0, r4, lsl #1
    12a0:	02000000 	andeq	r0, r0, #0, 0
    12a4:	781e05a7 	ldmdavc	lr, {r0, r1, r2, r5, r7, r8, sl}
    12a8:	1e000023 	cdpne	0, 0, cr0, cr0, cr3, {1}
    12ac:	0000236c 	andeq	r2, r0, ip, ror #6
    12b0:	0023841d 	eoreq	r8, r3, sp, lsl r4
    12b4:	0009fb00 	andeq	pc, r9, r0, lsl #22
    12b8:	0009f900 	andeq	pc, r9, r0, lsl #18
    12bc:	238e2400 	orrcs	r2, lr, #0, 8
    12c0:	84040000 	strhi	r0, [r4], #-0
    12c4:	00040000 	andeq	r0, r4, r0
    12c8:	8f1d0000 	svchi	0x001d0000
    12cc:	10000023 	andne	r0, r0, r3, lsr #32
    12d0:	0e00000a 	cdpeq	0, 0, cr0, cr0, cr10, {0}
    12d4:	0000000a 	andeq	r0, r0, sl
    12d8:	1a000000 	bne	12e0 <__code_start__-0x6d20>
    12dc:	00002277 	andeq	r2, r0, r7, ror r2
    12e0:	000084c8 	andeq	r8, r0, r8, asr #9
    12e4:	08380002 	ldmdaeq	r8!, {r1}
    12e8:	d0020000 	andle	r0, r2, r0
    12ec:	22841e09 	addcs	r1, r4, #144	; 0x90
    12f0:	df250000 	svcle	0x00250000
    12f4:	c8000022 	stmdagt	r0, {r1, r5}
    12f8:	04000084 	streq	r0, [r0], #-132	; 0xffffff7c
    12fc:	0084c800 	addeq	ip, r4, r0, lsl #16
    1300:	00001800 	andeq	r1, r0, r0, lsl #16
    1304:	05b90200 	ldreq	r0, [r9, #512]!	; 0x200
    1308:	0022f81b 	eoreq	pc, r2, fp, lsl r8	; <UNPREDICTABLE>
    130c:	000a2500 	andeq	r2, sl, r0, lsl #10
    1310:	000a2300 	andeq	r2, sl, r0, lsl #6
    1314:	22ec1e00 	rsccs	r1, ip, #0, 28
    1318:	041d0000 	ldreq	r0, [sp], #-0
    131c:	3d000023 	stccc	0, cr0, [r0, #-140]	; 0xffffff74
    1320:	3b00000a 	blcc	1350 <__code_start__-0x6cb0>
    1324:	2200000a 	andcs	r0, r0, #10, 0
    1328:	00002310 	andeq	r2, r0, r0, lsl r3
    132c:	000084c8 	andeq	r8, r0, r8, asr #9
    1330:	00000004 	andeq	r0, r0, r4
    1334:	0000108b 	andeq	r1, r0, fp, lsl #1
    1338:	0023111d 	eoreq	r1, r3, sp, lsl r1
    133c:	000a5200 	andeq	r5, sl, r0, lsl #4
    1340:	000a5000 	andeq	r5, sl, r0
    1344:	9d260000 	stcls	0, cr0, [r6, #-0]
    1348:	cc000023 	stcgt	0, cr0, [r0], {35}	; 0x23
    134c:	03000084 	movweq	r0, #132	; 0x84
    1350:	0084cc00 	addeq	ip, r4, r0, lsl #24
    1354:	00000400 	andeq	r0, r0, r0, lsl #8
    1358:	05a60200 	streq	r0, [r6, #512]!	; 0x200
    135c:	000010ab 	andeq	r1, r0, fp, lsr #1
    1360:	0023aa1e 	eoreq	sl, r3, lr, lsl sl
    1364:	5f230000 	svcpl	0x00230000
    1368:	d0000023 	andle	r0, r0, r3, lsr #32
    136c:	10000084 	andne	r0, r0, r4, lsl #1
    1370:	02000000 	andeq	r0, r0, #0, 0
    1374:	781e05a7 	ldmdavc	lr, {r0, r1, r2, r5, r7, r8, sl}
    1378:	1e000023 	cdpne	0, 0, cr0, cr0, cr3, {1}
    137c:	0000236c 	andeq	r2, r0, ip, ror #6
    1380:	0023841d 	eoreq	r8, r3, sp, lsl r4
    1384:	000a6700 	andeq	r6, sl, r0, lsl #14
    1388:	000a6500 	andeq	r6, sl, r0, lsl #10
    138c:	238e2400 	orrcs	r2, lr, #0, 8
    1390:	84d00000 	ldrbhi	r0, [r0], #0
    1394:	00040000 	andeq	r0, r4, r0
    1398:	8f1d0000 	svchi	0x001d0000
    139c:	7c000023 	stcvc	0, cr0, [r0], {35}	; 0x23
    13a0:	7a00000a 	bvc	13d0 <__code_start__-0x6c30>
    13a4:	0000000a 	andeq	r0, r0, sl
    13a8:	00000000 	andeq	r0, r0, r0
    13ac:	ef290000 	svc	0x00290000
    13b0:	50000021 	andpl	r0, r0, r1, lsr #32
    13b4:	02000008 	andeq	r0, r0, #8, 0
    13b8:	081e05e7 	ldmdaeq	lr, {r0, r1, r2, r5, r6, r7, r8, sl}
    13bc:	1e000022 	cdpne	0, 0, cr0, cr0, cr2, {1}
    13c0:	000021fc 	strdeq	r2, [r0], -ip
    13c4:	00221220 	eoreq	r1, r2, r0, lsr #4
    13c8:	00085000 	andeq	r5, r8, r0
    13cc:	22131d00 	andscs	r1, r3, #0, 26
    13d0:	0a910000 	beq	fe4413d8 <__bss_end__+0xfe436ef0>
    13d4:	0a8f0000 	beq	fe3c13dc <__bss_end__+0xfe3b6ef4>
    13d8:	1f1a0000 	svcne	0x001a0000
    13dc:	24000022 	strcs	r0, [r0], #-34	; 0xffffffde
    13e0:	01000084 	smlabbeq	r0, r4, r0, r0
    13e4:	00088000 	andeq	r8, r8, r0
    13e8:	09db0200 	ldmibeq	fp, {r9}^
    13ec:	0022381b 	eoreq	r3, r2, fp, lsl r8
    13f0:	000aa800 	andeq	sl, sl, r0, lsl #16
    13f4:	000aa400 	andeq	sl, sl, r0, lsl #8
    13f8:	222c1e00 	eorcs	r1, ip, #0, 28
    13fc:	ab1f0000 	blge	7c1404 <__bss_end__+0x7b6f1c>
    1400:	7c000022 	stcvc	0, cr0, [r0], {34}	; 0x22
    1404:	01000084 	smlabbeq	r0, r4, r0, r0
    1408:	0008c800 	andeq	ip, r8, r0, lsl #16
    140c:	09cf0200 	stmibeq	pc, {r9}^	; <UNPREDICTABLE>
    1410:	00001215 	andeq	r1, r0, r5, lsl r2
    1414:	0022b81e 	eoreq	fp, r2, lr, lsl r8
    1418:	231f1a00 	tstcs	pc, #0, 20
    141c:	847c0000 	ldrbthi	r0, [ip], #-0
    1420:	00030000 	andeq	r0, r3, r0
    1424:	000008e8 	andeq	r0, r0, r8, ror #17
    1428:	1b05b102 	blne	16d838 <__bss_end__+0x163350>
    142c:	00002338 	andeq	r2, r0, r8, lsr r3
    1430:	00000ad6 	ldrdeq	r0, [r0], -r6
    1434:	00000ad4 	ldrdeq	r0, [r0], -r4
    1438:	00232c1e 	eoreq	r2, r3, lr, lsl ip
    143c:	08e82100 	stmiaeq	r8!, {r8, sp}^
    1440:	441d0000 	ldrmi	r0, [sp], #-0
    1444:	ed000023 	stc	0, cr0, [r0, #-140]	; 0xffffff74
    1448:	eb00000a 	bl	1478 <__code_start__-0x6b88>
    144c:	1f00000a 	svcne	0x0000000a
    1450:	000023b7 			; <UNDEFINED> instruction: 0x000023b7
    1454:	00008480 	andeq	r8, r0, r0, lsl #9
    1458:	09000003 	stmdbeq	r0, {r0, r1}
    145c:	9e020000 	cdpls	0, 0, cr0, cr2, cr0, {0}
    1460:	0011b005 	andseq	fp, r1, r5
    1464:	23c41e00 	biccs	r1, r4, #0, 28
    1468:	22000000 	andcs	r0, r0, #0, 0
    146c:	00002350 	andeq	r2, r0, r0, asr r3
    1470:	0000847c 	andeq	r8, r0, ip, ror r4
    1474:	00000004 	andeq	r0, r0, r4
    1478:	000011cf 	andeq	r1, r0, pc, asr #3
    147c:	0023511d 	eoreq	r5, r3, sp, lsl r1
    1480:	000b0200 	andeq	r0, fp, r0, lsl #4
    1484:	000b0000 	andeq	r0, fp, r0
    1488:	5f230000 	svcpl	0x00230000
    148c:	84000023 	strhi	r0, [r0], #-35	; 0xffffffdd
    1490:	10000084 	andne	r0, r0, r4, lsl #1
    1494:	02000000 	andeq	r0, r0, #0, 0
    1498:	781e059f 	ldmdavc	lr, {r0, r1, r2, r3, r4, r7, r8, sl}
    149c:	1e000023 	cdpne	0, 0, cr0, cr0, cr3, {1}
    14a0:	0000236c 	andeq	r2, r0, ip, ror #6
    14a4:	0023841d 	eoreq	r8, r3, sp, lsl r4
    14a8:	000b1700 	andeq	r1, fp, r0, lsl #14
    14ac:	000b1500 	andeq	r1, fp, r0, lsl #10
    14b0:	238e2400 	orrcs	r2, lr, #0, 8
    14b4:	84840000 	strhi	r0, [r4], #0
    14b8:	00040000 	andeq	r0, r4, r0
    14bc:	8f1d0000 	svchi	0x001d0000
    14c0:	2c000023 	stccs	0, cr0, [r0], {35}	; 0x23
    14c4:	2a00000b 	bcs	14f8 <__code_start__-0x6b08>
    14c8:	0000000b 	andeq	r0, r0, fp
    14cc:	00000000 	andeq	r0, r0, r0
    14d0:	0022c51f 	eoreq	ip, r2, pc, lsl r5
    14d4:	00843400 	addeq	r3, r4, r0, lsl #8
    14d8:	18000100 	stmdane	r0, {r8}
    14dc:	02000009 	andeq	r0, r0, #9, 0
    14e0:	12e909cc 	rscne	r0, r9, #204, 18	; 0x330000
    14e4:	d21e0000 	andsle	r0, lr, #0, 0
    14e8:	25000022 	strcs	r0, [r0, #-34]	; 0xffffffde
    14ec:	0000231f 	andeq	r2, r0, pc, lsl r3
    14f0:	00008434 	andeq	r8, r0, r4, lsr r4
    14f4:	84340003 	ldrthi	r0, [r4], #-3
    14f8:	00180000 	andseq	r0, r8, r0
    14fc:	ac020000 	stcge	0, cr0, [r2], {-0}
    1500:	23381b05 	teqcs	r8, #5120	; 0x1400
    1504:	0b410000 	bleq	104150c <__bss_end__+0x1037024>
    1508:	0b3f0000 	bleq	fc1510 <__bss_end__+0xfb7028>
    150c:	2c1e0000 	ldccs	0, cr0, [lr], {-0}
    1510:	1d000023 	stcne	0, cr0, [r0, #-140]	; 0xffffff74
    1514:	00002344 	andeq	r2, r0, r4, asr #6
    1518:	00000b59 	andeq	r0, r0, r9, asr fp
    151c:	00000b57 	andeq	r0, r0, r7, asr fp
    1520:	00235022 	eoreq	r5, r3, r2, lsr #32
    1524:	00843400 	addeq	r3, r4, r0, lsl #8
    1528:	00000400 	andeq	r0, r0, r0, lsl #8
    152c:	00128400 	andseq	r8, r2, r0, lsl #8
    1530:	23511d00 	cmpcs	r1, #0, 26
    1534:	0b6e0000 	bleq	1b8153c <__bss_end__+0x1b77054>
    1538:	0b6c0000 	bleq	1b01540 <__bss_end__+0x1af7058>
    153c:	26000000 	strcs	r0, [r0], -r0
    1540:	000023b7 			; <UNDEFINED> instruction: 0x000023b7
    1544:	00008438 	andeq	r8, r0, r8, lsr r4
    1548:	84380003 	ldrthi	r0, [r8], #-3
    154c:	00040000 	andeq	r0, r4, r0
    1550:	9e020000 	cdpls	0, 0, cr0, cr2, cr0, {0}
    1554:	0012a405 	andseq	sl, r2, r5, lsl #8
    1558:	23c41e00 	biccs	r1, r4, #0, 28
    155c:	23000000 	movwcs	r0, #0
    1560:	0000235f 	andeq	r2, r0, pc, asr r3
    1564:	0000843c 	andeq	r8, r0, ip, lsr r4
    1568:	00000010 	andeq	r0, r0, r0, lsl r0
    156c:	1e059f02 	cdpne	15, 0, cr9, cr5, cr2, {0}
    1570:	00002378 	andeq	r2, r0, r8, ror r3
    1574:	00236c1e 	eoreq	r6, r3, lr, lsl ip
    1578:	23841d00 	orrcs	r1, r4, #0, 26
    157c:	0b830000 	bleq	fe0c1584 <__bss_end__+0xfe0b709c>
    1580:	0b810000 	bleq	fe041588 <__bss_end__+0xfe0370a0>
    1584:	8e240000 	cdphi	0, 2, cr0, cr4, cr0, {0}
    1588:	3c000023 	stccc	0, cr0, [r0], {35}	; 0x23
    158c:	04000084 	streq	r0, [r0], #-132	; 0xffffff7c
    1590:	1d000000 	stcne	0, cr0, [r0, #-0]
    1594:	0000238f 	andeq	r2, r0, pc, lsl #7
    1598:	00000b98 	muleq	r0, r8, fp
    159c:	00000b96 	muleq	r0, r6, fp
    15a0:	00000000 	andeq	r0, r0, r0
    15a4:	0022911f 	eoreq	r9, r2, pc, lsl r1
    15a8:	00844c00 	addeq	r4, r4, r0, lsl #24
    15ac:	30000200 	andcc	r0, r0, r0, lsl #4
    15b0:	02000009 	andeq	r0, r0, #9, 0
    15b4:	13bd09cd 			; <UNDEFINED> instruction: 0x13bd09cd
    15b8:	9e1e0000 	cdpls	0, 1, cr0, cr14, cr0, {0}
    15bc:	25000022 	strcs	r0, [r0, #-34]	; 0xffffffde
    15c0:	000022df 	ldrdeq	r2, [r0], -pc	; <UNPREDICTABLE>
    15c4:	0000844c 	andeq	r8, r0, ip, asr #8
    15c8:	844c0004 	strbhi	r0, [ip], #-4
    15cc:	00180000 	andseq	r0, r8, r0
    15d0:	b5020000 	strlt	r0, [r2, #-0]
    15d4:	22f81b05 	rscscs	r1, r8, #5120	; 0x1400
    15d8:	0bad0000 	bleq	feb415e0 <__bss_end__+0xfeb370f8>
    15dc:	0bab0000 	bleq	feac15e4 <__bss_end__+0xfeab70fc>
    15e0:	ec1e0000 	ldc	0, cr0, [lr], {-0}
    15e4:	1d000022 	stcne	0, cr0, [r0, #-136]	; 0xffffff78
    15e8:	00002304 	andeq	r2, r0, r4, lsl #6
    15ec:	00000bc4 	andeq	r0, r0, r4, asr #23
    15f0:	00000bc2 	andeq	r0, r0, r2, asr #23
    15f4:	00231022 	eoreq	r1, r3, r2, lsr #32
    15f8:	00844c00 	addeq	r4, r4, r0, lsl #24
    15fc:	00000400 	andeq	r0, r0, r0, lsl #8
    1600:	00135800 	andseq	r5, r3, r0, lsl #16
    1604:	23111d00 	tstcs	r1, #0, 26
    1608:	0bd90000 	bleq	ff641610 <__bss_end__+0xff637128>
    160c:	0bd70000 	bleq	ff5c1614 <__bss_end__+0xff5b712c>
    1610:	26000000 	strcs	r0, [r0], -r0
    1614:	0000239d 	muleq	r0, sp, r3
    1618:	00008450 	andeq	r8, r0, r0, asr r4
    161c:	84500003 	ldrbhi	r0, [r0], #-3
    1620:	00040000 	andeq	r0, r4, r0
    1624:	a6020000 	strge	r0, [r2], -r0
    1628:	00137805 	andseq	r7, r3, r5, lsl #16
    162c:	23aa1e00 			; <UNDEFINED> instruction: 0x23aa1e00
    1630:	23000000 	movwcs	r0, #0
    1634:	0000235f 	andeq	r2, r0, pc, asr r3
    1638:	00008454 	andeq	r8, r0, r4, asr r4
    163c:	00000010 	andeq	r0, r0, r0, lsl r0
    1640:	1e05a702 	cdpne	7, 0, cr10, cr5, cr2, {0}
    1644:	00002378 	andeq	r2, r0, r8, ror r3
    1648:	00236c1e 	eoreq	r6, r3, lr, lsl ip
    164c:	23841d00 	orrcs	r1, r4, #0, 26
    1650:	0bee0000 	bleq	ffb81658 <__bss_end__+0xffb77170>
    1654:	0bec0000 	bleq	ffb0165c <__bss_end__+0xffaf7174>
    1658:	8e240000 	cdphi	0, 2, cr0, cr4, cr0, {0}
    165c:	54000023 	strpl	r0, [r0], #-35	; 0xffffffdd
    1660:	04000084 	streq	r0, [r0], #-132	; 0xffffff7c
    1664:	1d000000 	stcne	0, cr0, [r0, #-0]
    1668:	0000238f 	andeq	r2, r0, pc, lsl #7
    166c:	00000c03 	andeq	r0, r0, r3, lsl #24
    1670:	00000c01 	andeq	r0, r0, r1, lsl #24
    1674:	00000000 	andeq	r0, r0, r0
    1678:	0022771a 	eoreq	r7, r2, sl, lsl r7
    167c:	00849400 	addeq	r9, r4, r0, lsl #8
    1680:	48000200 	stmdami	r0, {r9}
    1684:	02000009 	andeq	r0, r0, #9, 0
    1688:	841e09d0 	ldrhi	r0, [lr], #-2512	; 0xfffff630
    168c:	25000022 	strcs	r0, [r0, #-34]	; 0xffffffde
    1690:	000022df 	ldrdeq	r2, [r0], -pc	; <UNPREDICTABLE>
    1694:	00008494 	muleq	r0, r4, r4
    1698:	84940004 	ldrhi	r0, [r4], #4
    169c:	001c0000 	andseq	r0, ip, r0
    16a0:	b9020000 	stmdblt	r2, {}	; <UNPREDICTABLE>
    16a4:	22f81b05 	rscscs	r1, r8, #5120	; 0x1400
    16a8:	0c180000 	ldceq	0, cr0, [r8], {-0}
    16ac:	0c160000 	ldceq	0, cr0, [r6], {-0}
    16b0:	ec1e0000 	ldc	0, cr0, [lr], {-0}
    16b4:	1d000022 	stcne	0, cr0, [r0, #-136]	; 0xffffff78
    16b8:	00002304 	andeq	r2, r0, r4, lsl #6
    16bc:	00000c30 	andeq	r0, r0, r0, lsr ip
    16c0:	00000c2e 	andeq	r0, r0, lr, lsr #24
    16c4:	00231022 	eoreq	r1, r3, r2, lsr #32
    16c8:	00849400 	addeq	r9, r4, r0, lsl #8
    16cc:	00000400 	andeq	r0, r0, r0, lsl #8
    16d0:	00142800 	andseq	r2, r4, r0, lsl #16
    16d4:	23111d00 	tstcs	r1, #0, 26
    16d8:	0c450000 	mareq	acc0, r0, r5
    16dc:	0c430000 	mareq	acc0, r0, r3
    16e0:	26000000 	strcs	r0, [r0], -r0
    16e4:	0000239d 	muleq	r0, sp, r3
    16e8:	00008498 	muleq	r0, r8, r4
    16ec:	84980003 	ldrhi	r0, [r8], #3
    16f0:	00040000 	andeq	r0, r4, r0
    16f4:	a6020000 	strge	r0, [r2], -r0
    16f8:	00144805 	andseq	r4, r4, r5, lsl #16
    16fc:	23aa1e00 			; <UNDEFINED> instruction: 0x23aa1e00
    1700:	23000000 	movwcs	r0, #0
    1704:	0000235f 	andeq	r2, r0, pc, asr r3
    1708:	0000849c 	muleq	r0, ip, r4
    170c:	00000014 	andeq	r0, r0, r4, lsl r0
    1710:	1e05a702 	cdpne	7, 0, cr10, cr5, cr2, {0}
    1714:	00002378 	andeq	r2, r0, r8, ror r3
    1718:	00236c1e 	eoreq	r6, r3, lr, lsl ip
    171c:	23841d00 	orrcs	r1, r4, #0, 26
    1720:	0c5a0000 	mraeq	r0, sl, acc0
    1724:	0c580000 	mraeq	r0, r8, acc0
    1728:	8e240000 	cdphi	0, 2, cr0, cr4, cr0, {0}
    172c:	9c000023 	stcls	0, cr0, [r0], {35}	; 0x23
    1730:	04000084 	streq	r0, [r0], #-132	; 0xffffff7c
    1734:	1d000000 	stcne	0, cr0, [r0, #-0]
    1738:	0000238f 	andeq	r2, r0, pc, lsl #7
    173c:	00000c6f 	andeq	r0, r0, pc, ror #24
    1740:	00000c6d 	andeq	r0, r0, sp, ror #24
	...
    174c:	00512f00 	subseq	r2, r1, r0, lsl #30
    1750:	2a010000 	bcs	41758 <__bss_end__+0x37270>
    1754:	0000e107 	andeq	lr, r0, r7, lsl #2
    1758:	00832000 	addeq	r2, r3, r0
    175c:	00004400 	andeq	r4, r0, r0, lsl #8
    1760:	3e9c0100 	fmlcce	f0, f4, f0
    1764:	19000015 	stmdbne	r0, {r0, r2, r4}
    1768:	006e6970 	rsbeq	r6, lr, r0, ror r9
    176c:	591b2a01 	ldmdbpl	fp, {r0, r9, fp, sp}
    1770:	86000000 	strhi	r0, [r0], -r0
    1774:	8200000c 	andhi	r0, r0, #12, 0
    1778:	3000000c 	andcc	r0, r0, ip
    177c:	0000026d 	andeq	r0, r0, sp, ror #4
    1780:	2c292a01 			; <UNDEFINED> instruction: 0x2c292a01
    1784:	ab000000 	blge	178c <__code_start__-0x6874>
    1788:	a700000c 	strge	r0, [r0, -ip]
    178c:	3100000c 	tstcc	r0, ip
    1790:	2b010068 	blcs	41938 <__bss_end__+0x37450>
    1794:	0000e10b 	andeq	lr, r0, fp, lsl #2
    1798:	000ccd00 	andeq	ip, ip, r0, lsl #26
    179c:	000cc900 	andeq	ip, ip, r0, lsl #18
    17a0:	09e23200 	stmibeq	r2!, {r9, ip, sp}^
    17a4:	2c010000 	stccs	0, cr0, [r1], {-0}
    17a8:	00002c0e 	andeq	r2, r0, lr, lsl #24
    17ac:	000ced00 	andeq	lr, ip, r0, lsl #26
    17b0:	000ceb00 	andeq	lr, ip, r0, lsl #22
    17b4:	833c3300 	teqhi	ip, #0, 6
    17b8:	2a540000 	bcs	15017c0 <__bss_end__+0x14f72d8>
    17bc:	150e0000 	strne	r0, [lr, #-0]
    17c0:	01340000 	teqeq	r4, r0
    17c4:	00770250 	rsbseq	r0, r7, r0, asr r2
    17c8:	834c3300 	movthi	r3, #49920	; 0xc300
    17cc:	2a600000 	bcs	18017d4 <__bss_end__+0x17f72ec>
    17d0:	152d0000 	strne	r0, [sp, #-0]!
    17d4:	01340000 	teqeq	r4, r0
    17d8:	00740250 	rsbseq	r0, r4, r0, asr r2
    17dc:	01510134 	cmpeq	r1, r4, lsr r1
    17e0:	52013430 	andpl	r3, r1, #48, 8	; 0x30000000
    17e4:	00007702 	andeq	r7, r0, r2, lsl #14
    17e8:	00835c35 	addeq	r5, r3, r5, lsr ip
    17ec:	002a6c00 	eoreq	r6, sl, r0, lsl #24
    17f0:	50013400 	andpl	r3, r1, r0, lsl #8
    17f4:	00007602 	andeq	r7, r0, r2, lsl #12
    17f8:	00b71700 	adcseq	r1, r7, r0, lsl #14
    17fc:	1e010000 	cdpne	0, 0, cr0, cr1, cr0, {0}
    1800:	00810006 	addeq	r0, r1, r6
    1804:	00022000 	andeq	r2, r2, r0
    1808:	b79c0100 	ldrlt	r0, [ip, r0, lsl #2]
    180c:	19000021 	stmdbne	r0, {r0, r5}
    1810:	1e010068 	cdpne	0, 0, cr0, cr1, cr8, {3}
    1814:	0000e119 	andeq	lr, r0, r9, lsl r1
    1818:	000d0400 	andeq	r0, sp, r0, lsl #8
    181c:	000d0000 	andeq	r0, sp, r0
    1820:	00d83600 	sbcseq	r3, r8, r0, lsl #12
    1824:	20b20000 	adcscs	r0, r2, r0
    1828:	69310000 	ldmdbvs	r1!, {}	; <UNPREDICTABLE>
    182c:	0d210100 	stfeqs	f0, [r1, #-0]
    1830:	00000025 	andeq	r0, r0, r5, lsr #32
    1834:	00000d27 	andeq	r0, r0, r7, lsr #26
    1838:	00000d25 	andeq	r0, r0, r5, lsr #26
    183c:	0021b71a 	eoreq	fp, r1, sl, lsl r7
    1840:	00815800 	addeq	r5, r1, r0, lsl #16
    1844:	58000000 	stmdapl	r0, {}	; <UNPREDICTABLE>
    1848:	01000001 	tsteq	r0, r1
    184c:	e41b0922 	ldr	r0, [fp], #-2338	; 0xfffff6de
    1850:	3f000021 	svccc	0x00000021
    1854:	3b00000d 	blcc	1890 <__code_start__-0x6770>
    1858:	1b00000d 	blne	1894 <__code_start__-0x676c>
    185c:	000021da 	ldrdeq	r2, [r0], -sl
    1860:	00000d63 	andeq	r0, r0, r3, ror #26
    1864:	00000d5d 	andeq	r0, r0, sp, asr sp
    1868:	0021d01b 	eoreq	sp, r1, fp, lsl r0
    186c:	000d9100 	andeq	r9, sp, r0, lsl #2
    1870:	000d8d00 	andeq	r8, sp, r0, lsl #26
    1874:	21c41e00 	biccs	r1, r4, r0, lsl #28
    1878:	ef1f0000 	svc	0x001f0000
    187c:	58000021 	stmdapl	r0, {r0, r5}
    1880:	02000081 	andeq	r0, r0, #129, 0	; 0x81
    1884:	0001f000 	andeq	pc, r1, r0
    1888:	05e50200 	strbeq	r0, [r5, #512]!	; 0x200
    188c:	0000196e 	andeq	r1, r0, lr, ror #18
    1890:	0022081b 	eoreq	r0, r2, fp, lsl r8
    1894:	000db500 	andeq	fp, sp, r0, lsl #10
    1898:	000daf00 	andeq	sl, sp, r0, lsl #30
    189c:	21fc1e00 	mvnscs	r1, r0, lsl #28
    18a0:	12200000 	eorne	r0, r0, #0, 0
    18a4:	40000022 	andmi	r0, r0, r2, lsr #32
    18a8:	1d000002 	stcne	0, cr0, [r0, #-8]
    18ac:	00002213 	andeq	r2, r0, r3, lsl r2
    18b0:	00000de5 	andeq	r0, r0, r5, ror #27
    18b4:	00000ddf 	ldrdeq	r0, [r0], -pc	; <UNPREDICTABLE>
    18b8:	00221f1a 	eoreq	r1, r2, sl, lsl pc
    18bc:	00815c00 	addeq	r5, r1, r0, lsl #24
    18c0:	88000100 	stmdahi	r0, {r8}
    18c4:	02000002 	andeq	r0, r0, #2, 0
    18c8:	381b09db 	ldmdacc	fp, {r0, r1, r3, r4, r6, r7, r8, fp}
    18cc:	13000022 	movwne	r0, #34	; 0x22
    18d0:	0f00000e 	svceq	0x0000000e
    18d4:	1e00000e 	cdpne	0, 0, cr0, cr0, cr14, {0}
    18d8:	0000222c 	andeq	r2, r0, ip, lsr #4
    18dc:	0022ab1f 	eoreq	sl, r2, pc, lsl fp
    18e0:	0082d800 	addeq	sp, r2, r0, lsl #16
    18e4:	d0000200 	andle	r0, r0, r0, lsl #4
    18e8:	02000002 	andeq	r0, r0, #2, 0
    18ec:	16f309cf 	ldrbtne	r0, [r3], pc, asr #19
    18f0:	b81e0000 	ldmdalt	lr, {}	; <UNPREDICTABLE>
    18f4:	1a000022 	bne	1984 <__code_start__-0x667c>
    18f8:	0000231f 	andeq	r2, r0, pc, lsl r3
    18fc:	000082d8 	ldrdeq	r8, [r0], -r8	; <UNPREDICTABLE>
    1900:	02f00004 	rscseq	r0, r0, #4, 0
    1904:	b1020000 	mrslt	r0, (UNDEF: 2)
    1908:	23381b05 	teqcs	r8, #5120	; 0x1400
    190c:	0e410000 	cdpeq	0, 4, cr0, cr1, cr0, {0}
    1910:	0e3f0000 	cdpeq	0, 3, cr0, cr15, cr0, {0}
    1914:	2c1e0000 	ldccs	0, cr0, [lr], {-0}
    1918:	21000023 	tstcs	r0, r3, lsr #32
    191c:	000002f0 	strdeq	r0, [r0], -r0	; <UNPREDICTABLE>
    1920:	0023441d 	eoreq	r4, r3, sp, lsl r4
    1924:	000e5800 	andeq	r5, lr, r0, lsl #16
    1928:	000e5600 	andeq	r5, lr, r0, lsl #12
    192c:	23b71f00 			; <UNDEFINED> instruction: 0x23b71f00
    1930:	82dc0000 	sbcshi	r0, ip, #0, 0
    1934:	00030000 	andeq	r0, r3, r0
    1938:	00000308 	andeq	r0, r0, r8, lsl #6
    193c:	8e059e02 	cdphi	14, 0, cr9, cr5, cr2, {0}
    1940:	1e000016 	mcrne	0, 0, r0, cr0, cr6, {0}
    1944:	000023c4 	andeq	r2, r0, r4, asr #7
    1948:	23502200 	cmpcs	r0, #0, 4
    194c:	82d80000 	sbcshi	r0, r8, #0, 0
    1950:	00040000 	andeq	r0, r4, r0
    1954:	16ad0000 	strtne	r0, [sp], r0
    1958:	511d0000 	tstpl	sp, r0
    195c:	6d000023 	stcvs	0, cr0, [r0, #-140]	; 0xffffff74
    1960:	6b00000e 	blvs	19a0 <__code_start__-0x6660>
    1964:	0000000e 	andeq	r0, r0, lr
    1968:	00235f23 	eoreq	r5, r3, r3, lsr #30
    196c:	0082e000 	addeq	lr, r2, r0
    1970:	00001000 	andeq	r1, r0, r0
    1974:	059f0200 	ldreq	r0, [pc, #512]	; 1b7c <__code_start__-0x6484>
    1978:	0023781e 	eoreq	r7, r3, lr, lsl r8
    197c:	236c1e00 	cmncs	ip, #0, 28
    1980:	841d0000 	ldrhi	r0, [sp], #-0
    1984:	82000023 	andhi	r0, r0, #35, 0	; 0x23
    1988:	8000000e 	andhi	r0, r0, lr
    198c:	2400000e 	strcs	r0, [r0], #-14
    1990:	0000238e 	andeq	r2, r0, lr, lsl #7
    1994:	000082e0 	andeq	r8, r0, r0, ror #5
    1998:	00000004 	andeq	r0, r0, r4
    199c:	00238f1d 	eoreq	r8, r3, sp, lsl pc
    19a0:	000e9700 	andeq	r9, lr, r0, lsl #14
    19a4:	000e9500 	andeq	r9, lr, r0, lsl #10
    19a8:	00000000 	andeq	r0, r0, r0
    19ac:	c51f0000 	ldrgt	r0, [pc, #-0]	; 19b4 <__code_start__-0x664c>
    19b0:	68000022 	stmdavs	r0, {r1, r5}
    19b4:	01000081 	smlabbeq	r0, r1, r0, r0
    19b8:	00032000 	andeq	r2, r3, r0
    19bc:	09cc0200 	stmibeq	ip, {r9}^
    19c0:	000017c7 	andeq	r1, r0, r7, asr #15
    19c4:	0022d21e 	eoreq	sp, r2, lr, lsl r2
    19c8:	231f2500 	tstcs	pc, #0, 10
    19cc:	81680000 	cmnhi	r8, r0
    19d0:	00030000 	andeq	r0, r3, r0
    19d4:	00008168 	andeq	r8, r0, r8, ror #2
    19d8:	00000018 	andeq	r0, r0, r8, lsl r0
    19dc:	1b05ac02 	blne	16c9ec <__bss_end__+0x162504>
    19e0:	00002338 	andeq	r2, r0, r8, lsr r3
    19e4:	00000eac 	andeq	r0, r0, ip, lsr #29
    19e8:	00000eaa 	andeq	r0, r0, sl, lsr #29
    19ec:	00232c1e 	eoreq	r2, r3, lr, lsl ip
    19f0:	23441d00 	movtcs	r1, #19712	; 0x4d00
    19f4:	0ec40000 	cdpeq	0, 12, cr0, cr4, cr0, {0}
    19f8:	0ec20000 	cdpeq	0, 12, cr0, cr2, cr0, {0}
    19fc:	50220000 	eorpl	r0, r2, r0
    1a00:	68000023 	stmdavs	r0, {r0, r1, r5}
    1a04:	04000081 	streq	r0, [r0], #-129	; 0xffffff7f
    1a08:	62000000 	andvs	r0, r0, #0, 0
    1a0c:	1d000017 	stcne	0, cr0, [r0, #-92]	; 0xffffffa4
    1a10:	00002351 	andeq	r2, r0, r1, asr r3
    1a14:	00000ed9 	ldrdeq	r0, [r0], -r9
    1a18:	00000ed7 	ldrdeq	r0, [r0], -r7
    1a1c:	23b72600 			; <UNDEFINED> instruction: 0x23b72600
    1a20:	816c0000 	cmnhi	ip, r0
    1a24:	00030000 	andeq	r0, r3, r0
    1a28:	0000816c 	andeq	r8, r0, ip, ror #2
    1a2c:	00000004 	andeq	r0, r0, r4
    1a30:	82059e02 	andhi	r9, r5, #2, 28
    1a34:	1e000017 	mcrne	0, 0, r0, cr0, cr7, {0}
    1a38:	000023c4 	andeq	r2, r0, r4, asr #7
    1a3c:	235f2300 	cmpcs	pc, #0, 6
    1a40:	81700000 	cmnhi	r0, r0
    1a44:	00100000 	andseq	r0, r0, r0
    1a48:	9f020000 	svcls	0x00020000
    1a4c:	23781e05 	cmncs	r8, #80	; 0x50
    1a50:	6c1e0000 	ldcvs	0, cr0, [lr], {-0}
    1a54:	1d000023 	stcne	0, cr0, [r0, #-140]	; 0xffffff74
    1a58:	00002384 	andeq	r2, r0, r4, lsl #7
    1a5c:	00000eee 	andeq	r0, r0, lr, ror #29
    1a60:	00000eec 	andeq	r0, r0, ip, ror #29
    1a64:	00238e24 	eoreq	r8, r3, r4, lsr #28
    1a68:	00817000 	addeq	r7, r1, r0
    1a6c:	00000400 	andeq	r0, r0, r0, lsl #8
    1a70:	238f1d00 	orrcs	r1, pc, #0, 26
    1a74:	0f030000 	svceq	0x00030000
    1a78:	0f010000 	svceq	0x00010000
    1a7c:	00000000 	andeq	r0, r0, r0
    1a80:	911f0000 	tstls	pc, r0
    1a84:	80000022 	andhi	r0, r0, r2, lsr #32
    1a88:	02000081 	andeq	r0, r0, #129, 0	; 0x81
    1a8c:	00033800 	andeq	r3, r3, r0, lsl #16
    1a90:	09cd0200 	stmibeq	sp, {r9}^
    1a94:	0000189b 	muleq	r0, fp, r8
    1a98:	00229e1e 	eoreq	r9, r2, lr, lsl lr
    1a9c:	22df2500 	sbcscs	r2, pc, #0, 10
    1aa0:	81800000 	orrhi	r0, r0, r0
    1aa4:	00040000 	andeq	r0, r4, r0
    1aa8:	00008180 	andeq	r8, r0, r0, lsl #3
    1aac:	00000018 	andeq	r0, r0, r8, lsl r0
    1ab0:	1b05b502 	blne	16eec0 <__bss_end__+0x1649d8>
    1ab4:	000022f8 	strdeq	r2, [r0], -r8
    1ab8:	00000f18 	andeq	r0, r0, r8, lsl pc
    1abc:	00000f16 	andeq	r0, r0, r6, lsl pc
    1ac0:	0022ec1e 	eoreq	lr, r2, lr, lsl ip
    1ac4:	23041d00 	movwcs	r1, #19712	; 0x4d00
    1ac8:	0f2f0000 	svceq	0x002f0000
    1acc:	0f2d0000 	svceq	0x002d0000
    1ad0:	10220000 	eorne	r0, r2, r0
    1ad4:	80000023 	andhi	r0, r0, r3, lsr #32
    1ad8:	04000081 	streq	r0, [r0], #-129	; 0xffffff7f
    1adc:	36000000 	strcc	r0, [r0], -r0
    1ae0:	1d000018 	stcne	0, cr0, [r0, #-96]	; 0xffffffa0
    1ae4:	00002311 	andeq	r2, r0, r1, lsl r3
    1ae8:	00000f44 	andeq	r0, r0, r4, asr #30
    1aec:	00000f42 	andeq	r0, r0, r2, asr #30
    1af0:	239d2600 	orrscs	r2, sp, #0, 12
    1af4:	81840000 	orrhi	r0, r4, r0
    1af8:	00030000 	andeq	r0, r3, r0
    1afc:	00008184 	andeq	r8, r0, r4, lsl #3
    1b00:	00000004 	andeq	r0, r0, r4
    1b04:	5605a602 	strpl	sl, [r5], -r2, lsl #12
    1b08:	1e000018 	mcrne	0, 0, r0, cr0, cr8, {0}
    1b0c:	000023aa 	andeq	r2, r0, sl, lsr #7
    1b10:	235f2300 	cmpcs	pc, #0, 6
    1b14:	81880000 	orrhi	r0, r8, r0
    1b18:	00100000 	andseq	r0, r0, r0
    1b1c:	a7020000 	strge	r0, [r2, -r0]
    1b20:	23781e05 	cmncs	r8, #80	; 0x50
    1b24:	6c1e0000 	ldcvs	0, cr0, [lr], {-0}
    1b28:	1d000023 	stcne	0, cr0, [r0, #-140]	; 0xffffff74
    1b2c:	00002384 	andeq	r2, r0, r4, lsl #7
    1b30:	00000f59 	andeq	r0, r0, r9, asr pc
    1b34:	00000f57 	andeq	r0, r0, r7, asr pc
    1b38:	00238e24 	eoreq	r8, r3, r4, lsr #28
    1b3c:	00818800 	addeq	r8, r1, r0, lsl #16
    1b40:	00000400 	andeq	r0, r0, r0, lsl #8
    1b44:	238f1d00 	orrcs	r1, pc, #0, 26
    1b48:	0f6e0000 	svceq	0x006e0000
    1b4c:	0f6c0000 	svceq	0x006c0000
    1b50:	00000000 	andeq	r0, r0, r0
    1b54:	771a0000 	ldrvc	r0, [sl, -r0]
    1b58:	f0000022 			; <UNDEFINED> instruction: 0xf0000022
    1b5c:	02000082 	andeq	r0, r0, #130, 0	; 0x82
    1b60:	00035000 	andeq	r5, r3, r0
    1b64:	09d00200 	ldmibeq	r0, {r9}^
    1b68:	0022841e 	eoreq	r8, r2, lr, lsl r4
    1b6c:	22df2500 	sbcscs	r2, pc, #0, 10
    1b70:	82f00000 	rscshi	r0, r0, #0, 0
    1b74:	00040000 	andeq	r0, r4, r0
    1b78:	000082f0 	strdeq	r8, [r0], -r0
    1b7c:	00000018 	andeq	r0, r0, r8, lsl r0
    1b80:	1b05b902 	blne	16ff90 <__bss_end__+0x165aa8>
    1b84:	000022f8 	strdeq	r2, [r0], -r8
    1b88:	00000f83 	andeq	r0, r0, r3, lsl #31
    1b8c:	00000f81 	andeq	r0, r0, r1, lsl #31
    1b90:	0022ec1e 	eoreq	lr, r2, lr, lsl ip
    1b94:	23041d00 	movwcs	r1, #19712	; 0x4d00
    1b98:	0f9b0000 	svceq	0x009b0000
    1b9c:	0f990000 	svceq	0x00990000
    1ba0:	10220000 	eorne	r0, r2, r0
    1ba4:	f0000023 			; <UNDEFINED> instruction: 0xf0000023
    1ba8:	04000082 	streq	r0, [r0], #-130	; 0xffffff7e
    1bac:	06000000 	streq	r0, [r0], -r0
    1bb0:	1d000019 	stcne	0, cr0, [r0, #-100]	; 0xffffff9c
    1bb4:	00002311 	andeq	r2, r0, r1, lsl r3
    1bb8:	00000fb0 			; <UNDEFINED> instruction: 0x00000fb0
    1bbc:	00000fae 	andeq	r0, r0, lr, lsr #31
    1bc0:	239d2600 	orrscs	r2, sp, #0, 12
    1bc4:	82f40000 	rscshi	r0, r4, #0, 0
    1bc8:	00030000 	andeq	r0, r3, r0
    1bcc:	000082f4 	strdeq	r8, [r0], -r4
    1bd0:	00000004 	andeq	r0, r0, r4
    1bd4:	2605a602 	strcs	sl, [r5], -r2, lsl #12
    1bd8:	1e000019 	mcrne	0, 0, r0, cr0, cr9, {0}
    1bdc:	000023aa 	andeq	r2, r0, sl, lsr #7
    1be0:	235f2300 	cmpcs	pc, #0, 6
    1be4:	82f80000 	rscshi	r0, r8, #0, 0
    1be8:	00100000 	andseq	r0, r0, r0
    1bec:	a7020000 	strge	r0, [r2, -r0]
    1bf0:	23781e05 	cmncs	r8, #80	; 0x50
    1bf4:	6c1e0000 	ldcvs	0, cr0, [lr], {-0}
    1bf8:	1d000023 	stcne	0, cr0, [r0, #-140]	; 0xffffff74
    1bfc:	00002384 	andeq	r2, r0, r4, lsl #7
    1c00:	00000fc5 	andeq	r0, r0, r5, asr #31
    1c04:	00000fc3 	andeq	r0, r0, r3, asr #31
    1c08:	00238e24 	eoreq	r8, r3, r4, lsr #28
    1c0c:	0082f800 	addeq	pc, r2, r0, lsl #16
    1c10:	00000400 	andeq	r0, r0, r0, lsl #8
    1c14:	238f1d00 	orrcs	r1, pc, #0, 26
    1c18:	0fda0000 	svceq	0x00da0000
    1c1c:	0fd80000 	svceq	0x00d80000
	...
    1c28:	21ef2700 	mvncs	r2, r0, lsl #14
    1c2c:	03680000 	cmneq	r8, #0, 0
    1c30:	e6020000 	str	r0, [r2], -r0
    1c34:	001d1105 	andseq	r1, sp, r5, lsl #2
    1c38:	22081e00 	andcs	r1, r8, #0, 28
    1c3c:	fc1e0000 	ldc2	0, cr0, [lr], {-0}
    1c40:	20000021 	andcs	r0, r0, r1, lsr #32
    1c44:	00002212 	andeq	r2, r0, r2, lsl r2
    1c48:	00000368 	andeq	r0, r0, r8, ror #6
    1c4c:	0022131d 	eoreq	r1, r2, sp, lsl r3
    1c50:	000ff100 	andeq	pc, pc, r0, lsl #2
    1c54:	000fed00 	andeq	lr, pc, r0, lsl #26
    1c58:	221f1a00 	andscs	r1, pc, #0, 20
    1c5c:	81a80000 			; <UNDEFINED> instruction: 0x81a80000
    1c60:	00010000 	andeq	r0, r1, r0
    1c64:	000003a0 	andeq	r0, r0, r0, lsr #7
    1c68:	1b09db02 	blne	278878 <__bss_end__+0x26e390>
    1c6c:	00002238 	andeq	r2, r0, r8, lsr r2
    1c70:	00001013 	andeq	r1, r0, r3, lsl r0
    1c74:	0000100f 	andeq	r1, r0, pc
    1c78:	00222c1e 	eoreq	r2, r2, lr, lsl ip
    1c7c:	22c51f00 	sbccs	r1, r5, #0, 30
    1c80:	81b40000 			; <UNDEFINED> instruction: 0x81b40000
    1c84:	00010000 	andeq	r0, r1, r0
    1c88:	000003e0 	andeq	r0, r0, r0, ror #7
    1c8c:	9609cc02 	strls	ip, [r9], -r2, lsl #24
    1c90:	1e00001a 	mcrne	0, 0, r0, cr0, cr10, {0}
    1c94:	000022d2 	ldrdeq	r2, [r0], -r2	; <UNPREDICTABLE>
    1c98:	00231f25 	eoreq	r1, r3, r5, lsr #30
    1c9c:	0081b400 	addeq	fp, r1, r0, lsl #8
    1ca0:	b4000300 	strlt	r0, [r0], #-768	; 0xfffffd00
    1ca4:	18000081 	stmdane	r0, {r0, r7}
    1ca8:	02000000 	andeq	r0, r0, #0, 0
    1cac:	381b05ac 	ldmdacc	fp, {r2, r3, r5, r7, r8, sl}
    1cb0:	41000023 	tstmi	r0, r3, lsr #32
    1cb4:	3f000010 	svccc	0x00000010
    1cb8:	1e000010 	mcrne	0, 0, r0, cr0, cr0, {0}
    1cbc:	0000232c 	andeq	r2, r0, ip, lsr #6
    1cc0:	0023441d 	eoreq	r4, r3, sp, lsl r4
    1cc4:	00105900 	andseq	r5, r0, r0, lsl #18
    1cc8:	00105700 	andseq	r5, r0, r0, lsl #14
    1ccc:	23502200 	cmpcs	r0, #0, 4
    1cd0:	81b40000 			; <UNDEFINED> instruction: 0x81b40000
    1cd4:	00040000 	andeq	r0, r4, r0
    1cd8:	1a310000 	bne	c41ce0 <__bss_end__+0xc377f8>
    1cdc:	511d0000 	tstpl	sp, r0
    1ce0:	6e000023 	cdpvs	0, 0, cr0, cr0, cr3, {1}
    1ce4:	6c000010 	stcvs	0, cr0, [r0], {16}
    1ce8:	00000010 	andeq	r0, r0, r0, lsl r0
    1cec:	0023b726 	eoreq	fp, r3, r6, lsr #14
    1cf0:	0081b800 	addeq	fp, r1, r0, lsl #16
    1cf4:	b8000300 	stmdalt	r0, {r8, r9}
    1cf8:	04000081 	streq	r0, [r0], #-129	; 0xffffff7f
    1cfc:	02000000 	andeq	r0, r0, #0, 0
    1d00:	1a51059e 	bne	1443380 <__bss_end__+0x1438e98>
    1d04:	c41e0000 	ldrgt	r0, [lr], #-0
    1d08:	00000023 	andeq	r0, r0, r3, lsr #32
    1d0c:	00235f23 	eoreq	r5, r3, r3, lsr #30
    1d10:	0081bc00 	addeq	fp, r1, r0, lsl #24
    1d14:	00001000 	andeq	r1, r0, r0
    1d18:	059f0200 	ldreq	r0, [pc, #512]	; 1f20 <__code_start__-0x60e0>
    1d1c:	0023781e 	eoreq	r7, r3, lr, lsl r8
    1d20:	236c1e00 	cmncs	ip, #0, 28
    1d24:	841d0000 	ldrhi	r0, [sp], #-0
    1d28:	83000023 	movwhi	r0, #35	; 0x23
    1d2c:	81000010 	tsthi	r0, r0, lsl r0
    1d30:	24000010 	strcs	r0, [r0], #-16
    1d34:	0000238e 	andeq	r2, r0, lr, lsl #7
    1d38:	000081bc 			; <UNDEFINED> instruction: 0x000081bc
    1d3c:	00000004 	andeq	r0, r0, r4
    1d40:	00238f1d 	eoreq	r8, r3, sp, lsl pc
    1d44:	00109800 	andseq	r9, r0, r0, lsl #16
    1d48:	00109600 	andseq	r9, r0, r0, lsl #12
    1d4c:	00000000 	andeq	r0, r0, r0
    1d50:	22911f00 	addscs	r1, r1, #0, 30
    1d54:	81cc0000 	bichi	r0, ip, r0
    1d58:	00020000 	andeq	r0, r2, r0
    1d5c:	000003f8 	strdeq	r0, [r0], -r8
    1d60:	6a09cd02 	bvs	275170 <__bss_end__+0x26ac88>
    1d64:	1e00001b 	mcrne	0, 0, r0, cr0, cr11, {0}
    1d68:	0000229e 	muleq	r0, lr, r2
    1d6c:	0022df25 	eoreq	sp, r2, r5, lsr #30
    1d70:	0081cc00 	addeq	ip, r1, r0, lsl #24
    1d74:	cc000400 	cfstrsgt	mvf0, [r0], {-0}
    1d78:	18000081 	stmdane	r0, {r0, r7}
    1d7c:	02000000 	andeq	r0, r0, #0, 0
    1d80:	f81b05b5 			; <UNDEFINED> instruction: 0xf81b05b5
    1d84:	ad000022 	stcge	0, cr0, [r0, #-136]	; 0xffffff78
    1d88:	ab000010 	blge	1dd0 <__code_start__-0x6230>
    1d8c:	1e000010 	mcrne	0, 0, r0, cr0, cr0, {0}
    1d90:	000022ec 	andeq	r2, r0, ip, ror #5
    1d94:	0023041d 	eoreq	r0, r3, sp, lsl r4
    1d98:	0010c400 	andseq	ip, r0, r0, lsl #8
    1d9c:	0010c200 	andseq	ip, r0, r0, lsl #4
    1da0:	23102200 	tstcs	r0, #0, 4
    1da4:	81cc0000 	bichi	r0, ip, r0
    1da8:	00040000 	andeq	r0, r4, r0
    1dac:	1b050000 	blne	141db4 <__bss_end__+0x1378cc>
    1db0:	111d0000 	tstne	sp, r0
    1db4:	d9000023 	stmdble	r0, {r0, r1, r5}
    1db8:	d7000010 	smladle	r0, r0, r0, r0
    1dbc:	00000010 	andeq	r0, r0, r0, lsl r0
    1dc0:	00239d26 	eoreq	r9, r3, r6, lsr #26
    1dc4:	0081d000 	addeq	sp, r1, r0
    1dc8:	d0000300 	andle	r0, r0, r0, lsl #6
    1dcc:	04000081 	streq	r0, [r0], #-129	; 0xffffff7f
    1dd0:	02000000 	andeq	r0, r0, #0, 0
    1dd4:	1b2505a6 	blne	943474 <__bss_end__+0x938f8c>
    1dd8:	aa1e0000 	bge	781de0 <__bss_end__+0x7778f8>
    1ddc:	00000023 	andeq	r0, r0, r3, lsr #32
    1de0:	00235f23 	eoreq	r5, r3, r3, lsr #30
    1de4:	0081d400 	addeq	sp, r1, r0, lsl #8
    1de8:	00001000 	andeq	r1, r0, r0
    1dec:	05a70200 	streq	r0, [r7, #512]!	; 0x200
    1df0:	0023781e 	eoreq	r7, r3, lr, lsl r8
    1df4:	236c1e00 	cmncs	ip, #0, 28
    1df8:	841d0000 	ldrhi	r0, [sp], #-0
    1dfc:	ee000023 	cdp	0, 0, cr0, cr0, cr3, {1}
    1e00:	ec000010 	stc	0, cr0, [r0], {16}
    1e04:	24000010 	strcs	r0, [r0], #-16
    1e08:	0000238e 	andeq	r2, r0, lr, lsl #7
    1e0c:	000081d4 	ldrdeq	r8, [r0], -r4
    1e10:	00000004 	andeq	r0, r0, r4
    1e14:	00238f1d 	eoreq	r8, r3, sp, lsl pc
    1e18:	00110300 	andseq	r0, r1, r0, lsl #6
    1e1c:	00110100 	andseq	r0, r1, r0, lsl #2
    1e20:	00000000 	andeq	r0, r0, r0
    1e24:	22ab1f00 	adccs	r1, fp, #0, 30
    1e28:	82980000 	addshi	r0, r8, #0, 0
    1e2c:	00020000 	andeq	r0, r2, r0
    1e30:	00000410 	andeq	r0, r0, r0, lsl r4
    1e34:	3e09cf02 	cdpcc	15, 0, cr12, cr9, cr2, {0}
    1e38:	1e00001c 	mcrne	0, 0, r0, cr0, cr12, {0}
    1e3c:	000022b8 			; <UNDEFINED> instruction: 0x000022b8
    1e40:	00231f25 	eoreq	r1, r3, r5, lsr #30
    1e44:	00829800 	addeq	r9, r2, r0, lsl #16
    1e48:	98000400 	stmdals	r0, {sl}
    1e4c:	18000082 	stmdane	r0, {r1, r7}
    1e50:	02000000 	andeq	r0, r0, #0, 0
    1e54:	381b05b1 	ldmdacc	fp, {r0, r4, r5, r7, r8, sl}
    1e58:	18000023 	stmdane	r0, {r0, r1, r5}
    1e5c:	16000011 			; <UNDEFINED> instruction: 0x16000011
    1e60:	1e000011 	mcrne	0, 0, r0, cr0, cr1, {0}
    1e64:	0000232c 	andeq	r2, r0, ip, lsr #6
    1e68:	0023441d 	eoreq	r4, r3, sp, lsl r4
    1e6c:	00112f00 	andseq	r2, r1, r0, lsl #30
    1e70:	00112d00 	andseq	r2, r1, r0, lsl #26
    1e74:	23502200 	cmpcs	r0, #0, 4
    1e78:	82980000 	addshi	r0, r8, #0, 0
    1e7c:	00040000 	andeq	r0, r4, r0
    1e80:	1bd90000 	blne	ff641e88 <__bss_end__+0xff6379a0>
    1e84:	511d0000 	tstpl	sp, r0
    1e88:	44000023 	strmi	r0, [r0], #-35	; 0xffffffdd
    1e8c:	42000011 	andmi	r0, r0, #17, 0
    1e90:	00000011 	andeq	r0, r0, r1, lsl r0
    1e94:	0023b726 	eoreq	fp, r3, r6, lsr #14
    1e98:	00829c00 	addeq	r9, r2, r0, lsl #24
    1e9c:	9c000300 	stcls	3, cr0, [r0], {-0}
    1ea0:	04000082 	streq	r0, [r0], #-130	; 0xffffff7e
    1ea4:	02000000 	andeq	r0, r0, #0, 0
    1ea8:	1bf9059e 	blne	ffe43528 <__bss_end__+0xffe39040>
    1eac:	c41e0000 	ldrgt	r0, [lr], #-0
    1eb0:	00000023 	andeq	r0, r0, r3, lsr #32
    1eb4:	00235f23 	eoreq	r5, r3, r3, lsr #30
    1eb8:	0082a000 	addeq	sl, r2, r0
    1ebc:	00001000 	andeq	r1, r0, r0
    1ec0:	059f0200 	ldreq	r0, [pc, #512]	; 20c8 <__code_start__-0x5f38>
    1ec4:	0023781e 	eoreq	r7, r3, lr, lsl r8
    1ec8:	236c1e00 	cmncs	ip, #0, 28
    1ecc:	841d0000 	ldrhi	r0, [sp], #-0
    1ed0:	59000023 	stmdbpl	r0, {r0, r1, r5}
    1ed4:	57000011 	smladpl	r0, r1, r0, r0
    1ed8:	24000011 	strcs	r0, [r0], #-17	; 0xffffffef
    1edc:	0000238e 	andeq	r2, r0, lr, lsl #7
    1ee0:	000082a0 	andeq	r8, r0, r0, lsr #5
    1ee4:	00000004 	andeq	r0, r0, r4
    1ee8:	00238f1d 	eoreq	r8, r3, sp, lsl pc
    1eec:	00116e00 	andseq	r6, r1, r0, lsl #28
    1ef0:	00116c00 	andseq	r6, r1, r0, lsl #24
    1ef4:	00000000 	andeq	r0, r0, r0
    1ef8:	22771a00 	rsbscs	r1, r7, #0, 20
    1efc:	82b00000 	adcshi	r0, r0, #0, 0
    1f00:	00020000 	andeq	r0, r2, r0
    1f04:	00000428 	andeq	r0, r0, r8, lsr #8
    1f08:	1e09d002 	cdpne	0, 0, cr13, cr9, cr2, {0}
    1f0c:	00002284 	andeq	r2, r0, r4, lsl #5
    1f10:	0022df25 	eoreq	sp, r2, r5, lsr #30
    1f14:	0082b000 	addeq	fp, r2, r0
    1f18:	b0000400 	andlt	r0, r0, r0, lsl #8
    1f1c:	18000082 	stmdane	r0, {r1, r7}
    1f20:	02000000 	andeq	r0, r0, #0, 0
    1f24:	f81b05b9 			; <UNDEFINED> instruction: 0xf81b05b9
    1f28:	83000022 	movwhi	r0, #34	; 0x22
    1f2c:	81000011 	tsthi	r0, r1, lsl r0
    1f30:	1e000011 	mcrne	0, 0, r0, cr0, cr1, {0}
    1f34:	000022ec 	andeq	r2, r0, ip, ror #5
    1f38:	0023041d 	eoreq	r0, r3, sp, lsl r4
    1f3c:	00119b00 	andseq	r9, r1, r0, lsl #22
    1f40:	00119900 	andseq	r9, r1, r0, lsl #18
    1f44:	23102200 	tstcs	r0, #0, 4
    1f48:	82b00000 	adcshi	r0, r0, #0, 0
    1f4c:	00040000 	andeq	r0, r4, r0
    1f50:	1ca90000 	stcne	0, cr0, [r9]
    1f54:	111d0000 	tstne	sp, r0
    1f58:	b0000023 	andlt	r0, r0, r3, lsr #32
    1f5c:	ae000011 	mcrge	0, 0, r0, cr0, cr1, {0}
    1f60:	00000011 	andeq	r0, r0, r1, lsl r0
    1f64:	00239d26 	eoreq	r9, r3, r6, lsr #26
    1f68:	0082b400 	addeq	fp, r2, r0, lsl #8
    1f6c:	b4000300 	strlt	r0, [r0], #-768	; 0xfffffd00
    1f70:	04000082 	streq	r0, [r0], #-130	; 0xffffff7e
    1f74:	02000000 	andeq	r0, r0, #0, 0
    1f78:	1cc905a6 	cfstr64ne	mvdx0, [r9], {166}	; 0xa6
    1f7c:	aa1e0000 	bge	781f84 <__bss_end__+0x777a9c>
    1f80:	00000023 	andeq	r0, r0, r3, lsr #32
    1f84:	00235f23 	eoreq	r5, r3, r3, lsr #30
    1f88:	0082b800 	addeq	fp, r2, r0, lsl #16
    1f8c:	00001000 	andeq	r1, r0, r0
    1f90:	05a70200 	streq	r0, [r7, #512]!	; 0x200
    1f94:	0023781e 	eoreq	r7, r3, lr, lsl r8
    1f98:	236c1e00 	cmncs	ip, #0, 28
    1f9c:	841d0000 	ldrhi	r0, [sp], #-0
    1fa0:	c5000023 	strgt	r0, [r0, #-35]	; 0xffffffdd
    1fa4:	c3000011 	movwgt	r0, #17
    1fa8:	24000011 	strcs	r0, [r0], #-17	; 0xffffffef
    1fac:	0000238e 	andeq	r2, r0, lr, lsl #7
    1fb0:	000082b8 			; <UNDEFINED> instruction: 0x000082b8
    1fb4:	00000004 	andeq	r0, r0, r4
    1fb8:	00238f1d 	eoreq	r8, r3, sp, lsl pc
    1fbc:	0011da00 	andseq	sp, r1, r0, lsl #20
    1fc0:	0011d800 	andseq	sp, r1, r0, lsl #16
	...
    1fcc:	0021ef29 	eoreq	lr, r1, r9, lsr #30
    1fd0:	00044000 	andeq	r4, r4, r0
    1fd4:	05e70200 	strbeq	r0, [r7, #512]!	; 0x200
    1fd8:	0022081e 	eoreq	r0, r2, lr, lsl r8
    1fdc:	21fc1e00 	mvnscs	r1, r0, lsl #28
    1fe0:	12200000 	eorne	r0, r0, #0, 0
    1fe4:	40000022 	andmi	r0, r0, r2, lsr #32
    1fe8:	1d000004 	stcne	0, cr0, [r0, #-16]
    1fec:	00002213 	andeq	r2, r0, r3, lsl r2
    1ff0:	000011f1 	strdeq	r1, [r0], -r1	; <UNPREDICTABLE>
    1ff4:	000011ed 	andeq	r1, r0, sp, ror #3
    1ff8:	00221f1a 	eoreq	r1, r2, sl, lsl pc
    1ffc:	0081f400 	addeq	pc, r1, r0, lsl #8
    2000:	78000100 	stmdavc	r0, {r8}
    2004:	02000004 	andeq	r0, r0, #4, 0
    2008:	381b09db 	ldmdacc	fp, {r0, r1, r3, r4, r6, r7, r8, fp}
    200c:	13000022 	movwne	r0, #34	; 0x22
    2010:	0f000012 	svceq	0x00000012
    2014:	1e000012 	mcrne	0, 0, r0, cr0, cr2, {0}
    2018:	0000222c 	andeq	r2, r0, ip, lsr #4
    201c:	0022c51f 	eoreq	ip, r2, pc, lsl r5
    2020:	00820000 	addeq	r0, r2, r0
    2024:	b8000100 	stmdalt	r0, {r8}
    2028:	02000004 	andeq	r0, r0, #4, 0
    202c:	1e3509cc 	vsubne.f16	s0, s11, s24	; <UNPREDICTABLE>
    2030:	d21e0000 	andsle	r0, lr, #0, 0
    2034:	25000022 	strcs	r0, [r0, #-34]	; 0xffffffde
    2038:	0000231f 	andeq	r2, r0, pc, lsl r3
    203c:	00008200 	andeq	r8, r0, r0, lsl #4
    2040:	82000003 	andhi	r0, r0, #3, 0
    2044:	00180000 	andseq	r0, r8, r0
    2048:	ac020000 	stcge	0, cr0, [r2], {-0}
    204c:	23381b05 	teqcs	r8, #5120	; 0x1400
    2050:	12410000 	subne	r0, r1, #0, 0
    2054:	123f0000 	eorsne	r0, pc, #0, 0
    2058:	2c1e0000 	ldccs	0, cr0, [lr], {-0}
    205c:	1d000023 	stcne	0, cr0, [r0, #-140]	; 0xffffff74
    2060:	00002344 	andeq	r2, r0, r4, asr #6
    2064:	00001259 	andeq	r1, r0, r9, asr r2
    2068:	00001257 	andeq	r1, r0, r7, asr r2
    206c:	00235022 	eoreq	r5, r3, r2, lsr #32
    2070:	00820000 	addeq	r0, r2, r0
    2074:	00000400 	andeq	r0, r0, r0, lsl #8
    2078:	001dd000 	andseq	sp, sp, r0
    207c:	23511d00 	cmpcs	r1, #0, 26
    2080:	126e0000 	rsbne	r0, lr, #0, 0
    2084:	126c0000 	rsbne	r0, ip, #0, 0
    2088:	26000000 	strcs	r0, [r0], -r0
    208c:	000023b7 			; <UNDEFINED> instruction: 0x000023b7
    2090:	00008204 	andeq	r8, r0, r4, lsl #4
    2094:	82040003 	andhi	r0, r4, #3, 0
    2098:	00040000 	andeq	r0, r4, r0
    209c:	9e020000 	cdpls	0, 0, cr0, cr2, cr0, {0}
    20a0:	001df005 	andseq	pc, sp, r5
    20a4:	23c41e00 	biccs	r1, r4, #0, 28
    20a8:	23000000 	movwcs	r0, #0
    20ac:	0000235f 	andeq	r2, r0, pc, asr r3
    20b0:	00008208 	andeq	r8, r0, r8, lsl #4
    20b4:	00000010 	andeq	r0, r0, r0, lsl r0
    20b8:	1e059f02 	cdpne	15, 0, cr9, cr5, cr2, {0}
    20bc:	00002378 	andeq	r2, r0, r8, ror r3
    20c0:	00236c1e 	eoreq	r6, r3, lr, lsl ip
    20c4:	23841d00 	orrcs	r1, r4, #0, 26
    20c8:	12830000 	addne	r0, r3, #0, 0
    20cc:	12810000 	addne	r0, r1, #0, 0
    20d0:	8e240000 	cdphi	0, 2, cr0, cr4, cr0, {0}
    20d4:	08000023 	stmdaeq	r0, {r0, r1, r5}
    20d8:	04000082 	streq	r0, [r0], #-130	; 0xffffff7e
    20dc:	1d000000 	stcne	0, cr0, [r0, #-0]
    20e0:	0000238f 	andeq	r2, r0, pc, lsl #7
    20e4:	00001298 	muleq	r0, r8, r2
    20e8:	00001296 	muleq	r0, r6, r2
    20ec:	00000000 	andeq	r0, r0, r0
    20f0:	0022911f 	eoreq	r9, r2, pc, lsl r1
    20f4:	00821800 	addeq	r1, r2, r0, lsl #16
    20f8:	d0000200 	andle	r0, r0, r0, lsl #4
    20fc:	02000004 	andeq	r0, r0, #4, 0
    2100:	1f0909cd 	svcne	0x000909cd
    2104:	9e1e0000 	cdpls	0, 1, cr0, cr14, cr0, {0}
    2108:	25000022 	strcs	r0, [r0, #-34]	; 0xffffffde
    210c:	000022df 	ldrdeq	r2, [r0], -pc	; <UNPREDICTABLE>
    2110:	00008218 	andeq	r8, r0, r8, lsl r2
    2114:	82180004 	andshi	r0, r8, #4, 0
    2118:	00180000 	andseq	r0, r8, r0
    211c:	b5020000 	strlt	r0, [r2, #-0]
    2120:	22f81b05 	rscscs	r1, r8, #5120	; 0x1400
    2124:	12ad0000 	adcne	r0, sp, #0, 0
    2128:	12ab0000 	adcne	r0, fp, #0, 0
    212c:	ec1e0000 	ldc	0, cr0, [lr], {-0}
    2130:	1d000022 	stcne	0, cr0, [r0, #-136]	; 0xffffff78
    2134:	00002304 	andeq	r2, r0, r4, lsl #6
    2138:	000012c4 	andeq	r1, r0, r4, asr #5
    213c:	000012c2 	andeq	r1, r0, r2, asr #5
    2140:	00231022 	eoreq	r1, r3, r2, lsr #32
    2144:	00821800 	addeq	r1, r2, r0, lsl #16
    2148:	00000400 	andeq	r0, r0, r0, lsl #8
    214c:	001ea400 	andseq	sl, lr, r0, lsl #8
    2150:	23111d00 	tstcs	r1, #0, 26
    2154:	12d90000 	sbcsne	r0, r9, #0, 0
    2158:	12d70000 	sbcsne	r0, r7, #0, 0
    215c:	26000000 	strcs	r0, [r0], -r0
    2160:	0000239d 	muleq	r0, sp, r3
    2164:	0000821c 	andeq	r8, r0, ip, lsl r2
    2168:	821c0003 	andshi	r0, ip, #3, 0
    216c:	00040000 	andeq	r0, r4, r0
    2170:	a6020000 	strge	r0, [r2], -r0
    2174:	001ec405 	andseq	ip, lr, r5, lsl #8
    2178:	23aa1e00 			; <UNDEFINED> instruction: 0x23aa1e00
    217c:	23000000 	movwcs	r0, #0
    2180:	0000235f 	andeq	r2, r0, pc, asr r3
    2184:	00008220 	andeq	r8, r0, r0, lsr #4
    2188:	00000010 	andeq	r0, r0, r0, lsl r0
    218c:	1e05a702 	cdpne	7, 0, cr10, cr5, cr2, {0}
    2190:	00002378 	andeq	r2, r0, r8, ror r3
    2194:	00236c1e 	eoreq	r6, r3, lr, lsl ip
    2198:	23841d00 	orrcs	r1, r4, #0, 26
    219c:	12ee0000 	rscne	r0, lr, #0, 0
    21a0:	12ec0000 	rscne	r0, ip, #0, 0
    21a4:	8e240000 	cdphi	0, 2, cr0, cr4, cr0, {0}
    21a8:	20000023 	andcs	r0, r0, r3, lsr #32
    21ac:	04000082 	streq	r0, [r0], #-130	; 0xffffff7e
    21b0:	1d000000 	stcne	0, cr0, [r0, #-0]
    21b4:	0000238f 	andeq	r2, r0, pc, lsl #7
    21b8:	00001303 	andeq	r1, r0, r3, lsl #6
    21bc:	00001301 	andeq	r1, r0, r1, lsl #6
    21c0:	00000000 	andeq	r0, r0, r0
    21c4:	0022ab1f 	eoreq	sl, r2, pc, lsl fp
    21c8:	00825800 	addeq	r5, r2, r0, lsl #16
    21cc:	e8000100 	stmda	r0, {r8}
    21d0:	02000004 	andeq	r0, r0, #4, 0
    21d4:	1fdd09cf 	svcne	0x00dd09cf
    21d8:	b81e0000 	ldmdalt	lr, {}	; <UNPREDICTABLE>
    21dc:	25000022 	strcs	r0, [r0, #-34]	; 0xffffffde
    21e0:	0000231f 	andeq	r2, r0, pc, lsl r3
    21e4:	00008258 	andeq	r8, r0, r8, asr r2
    21e8:	82580003 	subshi	r0, r8, #3, 0
    21ec:	00180000 	andseq	r0, r8, r0
    21f0:	b1020000 	mrslt	r0, (UNDEF: 2)
    21f4:	23381b05 	teqcs	r8, #5120	; 0x1400
    21f8:	13180000 	tstne	r8, #0, 0
    21fc:	13160000 	tstne	r6, #0, 0
    2200:	2c1e0000 	ldccs	0, cr0, [lr], {-0}
    2204:	1d000023 	stcne	0, cr0, [r0, #-140]	; 0xffffff74
    2208:	00002344 	andeq	r2, r0, r4, asr #6
    220c:	0000132f 	andeq	r1, r0, pc, lsr #6
    2210:	0000132d 	andeq	r1, r0, sp, lsr #6
    2214:	00235022 	eoreq	r5, r3, r2, lsr #32
    2218:	00825800 	addeq	r5, r2, r0, lsl #16
    221c:	00000400 	andeq	r0, r0, r0, lsl #8
    2220:	001f7800 	andseq	r7, pc, r0, lsl #16
    2224:	23511d00 	cmpcs	r1, #0, 26
    2228:	13440000 	movtne	r0, #16384	; 0x4000
    222c:	13420000 	movtne	r0, #8192	; 0x2000
    2230:	26000000 	strcs	r0, [r0], -r0
    2234:	000023b7 			; <UNDEFINED> instruction: 0x000023b7
    2238:	0000825c 	andeq	r8, r0, ip, asr r2
    223c:	825c0003 	subshi	r0, ip, #3, 0
    2240:	00040000 	andeq	r0, r4, r0
    2244:	9e020000 	cdpls	0, 0, cr0, cr2, cr0, {0}
    2248:	001f9805 	andseq	r9, pc, r5, lsl #16
    224c:	23c41e00 	biccs	r1, r4, #0, 28
    2250:	23000000 	movwcs	r0, #0
    2254:	0000235f 	andeq	r2, r0, pc, asr r3
    2258:	00008260 	andeq	r8, r0, r0, ror #4
    225c:	00000010 	andeq	r0, r0, r0, lsl r0
    2260:	1e059f02 	cdpne	15, 0, cr9, cr5, cr2, {0}
    2264:	00002378 	andeq	r2, r0, r8, ror r3
    2268:	00236c1e 	eoreq	r6, r3, lr, lsl ip
    226c:	23841d00 	orrcs	r1, r4, #0, 26
    2270:	13590000 	cmpne	r9, #0, 0
    2274:	13570000 	cmpne	r7, #0, 0
    2278:	8e240000 	cdphi	0, 2, cr0, cr4, cr0, {0}
    227c:	60000023 	andvs	r0, r0, r3, lsr #32
    2280:	04000082 	streq	r0, [r0], #-130	; 0xffffff7e
    2284:	1d000000 	stcne	0, cr0, [r0, #-0]
    2288:	0000238f 	andeq	r2, r0, pc, lsl #7
    228c:	0000136e 	andeq	r1, r0, lr, ror #6
    2290:	0000136c 	andeq	r1, r0, ip, ror #6
    2294:	00000000 	andeq	r0, r0, r0
    2298:	0022771a 	eoreq	r7, r2, sl, lsl r7
    229c:	00827000 	addeq	r7, r2, r0
    22a0:	00000200 	andeq	r0, r0, r0, lsl #4
    22a4:	02000005 	andeq	r0, r0, #5, 0
    22a8:	841e09d0 	ldrhi	r0, [lr], #-2512	; 0xfffff630
    22ac:	25000022 	strcs	r0, [r0, #-34]	; 0xffffffde
    22b0:	000022df 	ldrdeq	r2, [r0], -pc	; <UNPREDICTABLE>
    22b4:	00008270 	andeq	r8, r0, r0, ror r2
    22b8:	82700004 	rsbshi	r0, r0, #4, 0
    22bc:	00180000 	andseq	r0, r8, r0
    22c0:	b9020000 	stmdblt	r2, {}	; <UNPREDICTABLE>
    22c4:	22f81b05 	rscscs	r1, r8, #5120	; 0x1400
    22c8:	13830000 	orrne	r0, r3, #0, 0
    22cc:	13810000 	orrne	r0, r1, #0, 0
    22d0:	ec1e0000 	ldc	0, cr0, [lr], {-0}
    22d4:	1d000022 	stcne	0, cr0, [r0, #-136]	; 0xffffff78
    22d8:	00002304 	andeq	r2, r0, r4, lsl #6
    22dc:	0000139b 	muleq	r0, fp, r3
    22e0:	00001399 	muleq	r0, r9, r3
    22e4:	00231022 	eoreq	r1, r3, r2, lsr #32
    22e8:	00827000 	addeq	r7, r2, r0
    22ec:	00000400 	andeq	r0, r0, r0, lsl #8
    22f0:	00204800 	eoreq	r4, r0, r0, lsl #16
    22f4:	23111d00 	tstcs	r1, #0, 26
    22f8:	13b00000 	movsne	r0, #0, 0
    22fc:	13ae0000 			; <UNDEFINED> instruction: 0x13ae0000
    2300:	26000000 	strcs	r0, [r0], -r0
    2304:	0000239d 	muleq	r0, sp, r3
    2308:	00008274 	andeq	r8, r0, r4, ror r2
    230c:	82740003 	rsbshi	r0, r4, #3, 0
    2310:	00040000 	andeq	r0, r4, r0
    2314:	a6020000 	strge	r0, [r2], -r0
    2318:	00206805 	eoreq	r6, r0, r5, lsl #16
    231c:	23aa1e00 			; <UNDEFINED> instruction: 0x23aa1e00
    2320:	23000000 	movwcs	r0, #0
    2324:	0000235f 	andeq	r2, r0, pc, asr r3
    2328:	00008278 	andeq	r8, r0, r8, ror r2
    232c:	00000010 	andeq	r0, r0, r0, lsl r0
    2330:	1e05a702 	cdpne	7, 0, cr10, cr5, cr2, {0}
    2334:	00002378 	andeq	r2, r0, r8, ror r3
    2338:	00236c1e 	eoreq	r6, r3, lr, lsl ip
    233c:	23841d00 	orrcs	r1, r4, #0, 26
    2340:	13c50000 	bicne	r0, r5, #0, 0
    2344:	13c30000 	bicne	r0, r3, #0, 0
    2348:	8e240000 	cdphi	0, 2, cr0, cr4, cr0, {0}
    234c:	78000023 	stmdavc	r0, {r0, r1, r5}
    2350:	04000082 	streq	r0, [r0], #-130	; 0xffffff7e
    2354:	1d000000 	stcne	0, cr0, [r0, #-0]
    2358:	0000238f 	andeq	r2, r0, pc, lsl #7
    235c:	000013da 	ldrdeq	r1, [r0], -sl
    2360:	000013d8 	ldrdeq	r1, [r0], -r8
	...
    236c:	22431a00 	subcs	r1, r3, #0, 20
    2370:	81000000 	mrshi	r0, (UNDEF: 0)
    2374:	00020000 	andeq	r0, r2, r0
    2378:	00000058 	andeq	r0, r0, r8, asr r0
    237c:	1b052001 	blne	14a388 <__bss_end__+0x13fea0>
    2380:	00002250 	andeq	r2, r0, r0, asr r2
    2384:	000013ef 	andeq	r1, r0, pc, ror #7
    2388:	000013ed 	andeq	r1, r0, sp, ror #7
    238c:	00225d1a 	eoreq	r5, r2, sl, lsl sp
    2390:	00810000 	addeq	r0, r1, r0
    2394:	60000400 	andvs	r0, r0, r0, lsl #8
    2398:	02000000 	andeq	r0, r0, #0, 0
    239c:	6a1b05c6 	bvs	6c3abc <__bss_end__+0x6b95d4>
    23a0:	0b000022 	bleq	2430 <__code_start__-0x5bd0>
    23a4:	09000014 	stmdbeq	r0, {r2, r4}
    23a8:	1a000014 	bne	2400 <__code_start__-0x5c00>
    23ac:	000022df 	ldrdeq	r2, [r0], -pc	; <UNPREDICTABLE>
    23b0:	00008100 	andeq	r8, r0, r0, lsl #2
    23b4:	00680006 	rsbeq	r0, r8, r6
    23b8:	bd020000 	stclt	0, cr0, [r2, #-0]
    23bc:	22f81b05 	rscscs	r1, r8, #5120	; 0x1400
    23c0:	14270000 	strtne	r0, [r7], #-0
    23c4:	14250000 	strtne	r0, [r5], #-0
    23c8:	ec1b0000 	ldc	0, cr0, [fp], {-0}
    23cc:	3f000022 	svccc	0x00000022
    23d0:	3d000014 	stccc	0, cr0, [r0, #-80]	; 0xffffffb0
    23d4:	21000014 	tstcs	r0, r4, lsl r0
    23d8:	00000068 	andeq	r0, r0, r8, rrx
    23dc:	0023041d 	eoreq	r0, r3, sp, lsl r4
    23e0:	00145b00 	andseq	r5, r4, r0, lsl #22
    23e4:	00145900 	andseq	r5, r4, r0, lsl #18
    23e8:	23101c00 	tstcs	r0, #0, 24
    23ec:	00880000 	addeq	r0, r8, r0
    23f0:	21490000 	mrscs	r0, (UNDEF: 73)
    23f4:	111d0000 	tstne	sp, r0
    23f8:	70000023 	andvc	r0, r0, r3, lsr #32
    23fc:	6e000014 	mcrvs	0, 0, r0, cr0, cr4, {0}
    2400:	00000014 	andeq	r0, r0, r4, lsl r0
    2404:	00239d1f 	eoreq	r9, r3, pc, lsl sp
    2408:	00810800 	addeq	r0, r1, r0, lsl #16
    240c:	a0000300 	andge	r0, r0, r0, lsl #6
    2410:	02000000 	andeq	r0, r0, #0, 0
    2414:	216d05a6 	smultbcs	sp, r6, r5
    2418:	aa1b0000 	bge	6c2420 <__bss_end__+0x6b7f38>
    241c:	89000023 	stmdbhi	r0, {r0, r1, r5}
    2420:	83000014 	movwhi	r0, #20
    2424:	00000014 	andeq	r0, r0, r4, lsl r0
    2428:	00235f29 	eoreq	r5, r3, r9, lsr #30
    242c:	0000c000 	andeq	ip, r0, r0
    2430:	05a70200 	streq	r0, [r7, #512]!	; 0x200
    2434:	0023781e 	eoreq	r7, r3, lr, lsl r8
    2438:	236c1e00 	cmncs	ip, #0, 28
    243c:	c0210000 	eorgt	r0, r1, r0
    2440:	1d000000 	stcne	0, cr0, [r0, #-0]
    2444:	00002384 	andeq	r2, r0, r4, lsl #7
    2448:	000014c2 	andeq	r1, r0, r2, asr #9
    244c:	000014c0 	andeq	r1, r0, r0, asr #9
    2450:	00238e24 	eoreq	r8, r3, r4, lsr #28
    2454:	00812000 	addeq	r2, r1, r0
    2458:	00000400 	andeq	r0, r0, r0, lsl #8
    245c:	238f1d00 	orrcs	r1, pc, #0, 26
    2460:	14d70000 	ldrbne	r0, [r7], #0
    2464:	14d50000 	ldrbne	r0, [r5], #0
	...
    2470:	c3370000 	teqgt	r7, #0, 0
    2474:	02000002 	andeq	r0, r0, #2, 0
    2478:	ef0314e0 	svc	0x000314e0
    247c:	2c000021 	stccs	0, cr0, [r0], {33}	; 0x21
    2480:	006e6970 	rsbeq	r6, lr, r0, ror r9
    2484:	2c2be002 	stccs	0, cr14, [fp], #-8
    2488:	2c000000 	stccs	0, cr0, [r0], {-0}
    248c:	e0020072 	and	r0, r2, r2, ror r0
    2490:	00005938 	andeq	r5, r0, r8, lsr r9
    2494:	00672c00 	rsbeq	r2, r7, r0, lsl #24
    2498:	5943e002 	stmdbpl	r3, {r1, sp, lr, pc}^
    249c:	2c000000 	stccs	0, cr0, [r0], {-0}
    24a0:	e0020062 	and	r0, r2, r2, rrx
    24a4:	0000594e 	andeq	r5, r0, lr, asr #18
    24a8:	4d370000 	ldcmi	0, cr0, [r7, #-0]
    24ac:	02000002 	andeq	r0, r0, #2, 0
    24b0:	1f0314d9 	svcne	0x000314d9
    24b4:	2c000022 	stccs	0, cr0, [r0], {34}	; 0x22
    24b8:	006e6970 	rsbeq	r6, lr, r0, ror r9
    24bc:	2c2ad902 			; <UNDEFINED> instruction: 0x2c2ad902
    24c0:	2c000000 	stccs	0, cr0, [r0], {-0}
    24c4:	d9020062 	stmdble	r2, {r1, r5, r6}
    24c8:	00005937 	andeq	r5, r0, r7, lsr r9
    24cc:	692e2d00 	stmdbvs	lr!, {r8, sl, fp, sp}
    24d0:	0dda0200 	lfmeq	f0, 2, [sl]
    24d4:	00000025 	andeq	r0, r0, r5, lsr #32
    24d8:	26370000 	ldrtcs	r0, [r7], -r0
    24dc:	02000002 	andeq	r0, r0, #2, 0
    24e0:	430314ca 	movwmi	r1, #13514	; 0x34ca
    24e4:	2c000022 	stccs	0, cr0, [r0], {34}	; 0x22
    24e8:	006e6970 	rsbeq	r6, lr, r0, ror r9
    24ec:	2c29ca02 			; <UNDEFINED> instruction: 0x2c29ca02
    24f0:	2c000000 	stccs	0, cr0, [r0], {-0}
    24f4:	ca020062 	bgt	82684 <__bss_end__+0x7819c>
    24f8:	00005936 	andeq	r5, r0, r6, lsr r9
    24fc:	ba370000 	blt	dc2504 <__bss_end__+0xdb801c>
    2500:	02000000 	andeq	r0, r0, #0, 0
    2504:	5d0314c5 	cfstrspl	mvf1, [r3, #-788]	; 0xfffffcec
    2508:	2c000022 	stccs	0, cr0, [r0], {34}	; 0x22
    250c:	006e6970 	rsbeq	r6, lr, r0, ror r9
    2510:	2c27c502 	cfstr32cs	mvfx12, [r7], #-8
    2514:	00000000 	andeq	r0, r0, r0
    2518:	00021237 	andeq	r1, r2, r7, lsr r2
    251c:	14bc0200 	ldrtne	r0, [ip], #512	; 0x200
    2520:	00227703 	eoreq	r7, r2, r3, lsl #14
    2524:	69702c00 	ldmdbvs	r0!, {sl, fp, sp}^
    2528:	bc02006e 	stclt	0, cr0, [r2], {110}	; 0x6e
    252c:	00002c24 	andeq	r2, r0, r4, lsr #24
    2530:	74380000 	ldrtvc	r0, [r8], #-0
    2534:	02006c30 	andeq	r6, r0, #48, 24	; 0x3000
    2538:	910314b8 			; <UNDEFINED> instruction: 0x910314b8
    253c:	2c000022 	stccs	0, cr0, [r0], {34}	; 0x22
    2540:	006e6970 	rsbeq	r6, lr, r0, ror r9
    2544:	2c21b802 	stccs	8, cr11, [r1], #-8
    2548:	00000000 	andeq	r0, r0, r0
    254c:	6c317438 	cfldrsvs	mvf7, [r1], #-224	; 0xffffff20
    2550:	14b40200 	ldrtne	r0, [r4], #512	; 0x200
    2554:	0022ab03 	eoreq	sl, r2, r3, lsl #22
    2558:	69702c00 	ldmdbvs	r0!, {sl, fp, sp}^
    255c:	b402006e 	strlt	r0, [r2], #-110	; 0xffffff92
    2560:	00002c21 	andeq	r2, r0, r1, lsr #24
    2564:	74380000 	ldrtvc	r0, [r8], #-0
    2568:	02006830 	andeq	r6, r0, #48, 16	; 0x300000
    256c:	c50314b0 	strgt	r1, [r3, #-1200]	; 0xfffffb50
    2570:	2c000022 	stccs	0, cr0, [r0], {34}	; 0x22
    2574:	006e6970 	rsbeq	r6, lr, r0, ror r9
    2578:	2c21b002 	stccs	0, cr11, [r1], #-8
    257c:	00000000 	andeq	r0, r0, r0
    2580:	68317438 	ldmdavs	r1!, {r3, r4, r5, sl, ip, sp, lr}
    2584:	14ab0200 	strtne	r0, [fp], #512	; 0x200
    2588:	0022df03 	eoreq	sp, r2, r3, lsl #30
    258c:	69702c00 	ldmdbvs	r0!, {sl, fp, sp}^
    2590:	ab02006e 	blge	82750 <__bss_end__+0x78268>
    2594:	00002c21 	andeq	r2, r0, r1, lsr #24
    2598:	eb370000 	bl	dc25a0 <__bss_end__+0xdb80b8>
    259c:	02000001 	andeq	r0, r0, #1, 0
    25a0:	1f0314a4 	svcne	0x000314a4
    25a4:	2c000023 	stccs	0, cr0, [r0], {35}	; 0x23
    25a8:	006e6970 	rsbeq	r6, lr, r0, ror r9
    25ac:	2c25a402 	cfstrscs	mvf10, [r5], #-8
    25b0:	39000000 	stmdbcc	r0, {}	; <UNPREDICTABLE>
    25b4:	00000238 	andeq	r0, r0, r8, lsr r2
    25b8:	2c33a402 	cfldrscs	mvf10, [r3], #-8
    25bc:	12000000 	andne	r0, r0, #0, 0
    25c0:	000009d8 	ldrdeq	r0, [r0], -r8
    25c4:	2c0ea502 	cfstr32cs	mvfx10, [lr], {2}
    25c8:	2d000000 	stccs	0, cr0, [r0, #-0]
    25cc:	00020512 	andeq	r0, r2, r2, lsl r5
    25d0:	16a50200 	strtne	r0, [r5], r0, lsl #4
    25d4:	0000002c 	andeq	r0, r0, ip, lsr #32
    25d8:	f3370000 	vhadd.u<illegal width 64>	d0, d7, d0
    25dc:	02000001 	andeq	r0, r0, #1, 0
    25e0:	5f03149c 	svcpl	0x0003149c
    25e4:	2c000023 	stccs	0, cr0, [r0], {35}	; 0x23
    25e8:	006e6970 	rsbeq	r6, lr, r0, ror r9
    25ec:	2c259c02 	stccs	12, cr9, [r5], #-8
    25f0:	39000000 	stmdbcc	r0, {}	; <UNPREDICTABLE>
    25f4:	00000238 	andeq	r0, r0, r8, lsr r2
    25f8:	2c339c02 	ldccs	12, cr9, [r3], #-8
    25fc:	12000000 	andne	r0, r0, #0, 0
    2600:	000009d8 	ldrdeq	r0, [r0], -r8
    2604:	2c0e9d02 	stccs	13, cr9, [lr], {2}
    2608:	2d000000 	stccs	0, cr0, [r0, #-0]
    260c:	00020512 	andeq	r0, r2, r2, lsl r5
    2610:	169d0200 	ldrne	r0, [sp], r0, lsl #4
    2614:	0000002c 	andeq	r0, r0, ip, lsr #32
    2618:	32370000 	eorscc	r0, r7, #0, 0
    261c:	02000002 	andeq	r0, r0, #2, 0
    2620:	9d031481 	cfstrsls	mvf1, [r3, #-516]	; 0xfffffdfc
    2624:	39000023 	stmdbcc	r0, {r0, r1, r5}
    2628:	0000025a 	andeq	r0, r0, sl, asr r2
    262c:	2c2b8102 	stfcsd	f0, [fp], #-8
    2630:	39000000 	stmdbcc	r0, {}	; <UNPREDICTABLE>
    2634:	00000247 	andeq	r0, r0, r7, asr #4
    2638:	2c3f8102 	ldfcsd	f0, [pc], #-8	; 2638 <__code_start__-0x59c8>
    263c:	2e000000 	cdpcs	0, 0, cr0, cr0, cr0, {0}
    2640:	82020063 	andhi	r0, r2, #99, 0	; 0x63
    2644:	00002c0e 	andeq	r2, r0, lr, lsl #24
    2648:	05122d00 	ldreq	r2, [r2, #-3328]	; 0xfffff300
    264c:	02000002 	andeq	r0, r0, #2, 0
    2650:	002c1183 	eoreq	r1, ip, r3, lsl #3
    2654:	00000000 	andeq	r0, r0, r0
    2658:	0002a937 	andeq	sl, r2, r7, lsr r9
    265c:	147c0200 	ldrbtne	r0, [ip], #-512	; 0xfffffe00
    2660:	0023b703 	eoreq	fp, r3, r3, lsl #14
    2664:	69702c00 	ldmdbvs	r0!, {sl, fp, sp}^
    2668:	7c02006e 	stcvc	0, cr0, [r2], {110}	; 0x6e
    266c:	00002c2e 	andeq	r2, r0, lr, lsr #24
    2670:	91370000 	teqls	r7, r0
    2674:	02000002 	andeq	r0, r0, #2, 0
    2678:	d1031479 	tstle	r3, r9, ror r4
    267c:	2c000023 	stccs	0, cr0, [r0], {35}	; 0x23
    2680:	006e6970 	rsbeq	r6, lr, r0, ror r9
    2684:	2c2d7902 			; <UNDEFINED> instruction: 0x2c2d7902
    2688:	00000000 	andeq	r0, r0, r0
    268c:	0008cf3a 	andeq	ip, r8, sl, lsr pc
    2690:	00854000 	addeq	r4, r5, r0
    2694:	0000f000 	andeq	pc, r0, r0
    2698:	549c0100 	ldrpl	r0, [ip], #256	; 0x100
    269c:	1b00002a 	blne	274c <__code_start__-0x58b4>
    26a0:	000008dc 	ldrdeq	r0, [r0], -ip
    26a4:	000014f2 	strdeq	r1, [r0], -r2
    26a8:	000014ea 	andeq	r1, r0, sl, ror #9
    26ac:	0008e61b 	andeq	lr, r8, fp, lsl r6
    26b0:	00153400 	andseq	r3, r5, r0, lsl #8
    26b4:	00152c00 	andseq	r2, r5, r0, lsl #24
    26b8:	08f01c00 	ldmeq	r0!, {sl, fp, ip}^
    26bc:	09600000 	stmdbeq	r0!, {}^	; <UNPREDICTABLE>
    26c0:	2a410000 	bcs	10426c8 <__bss_end__+0x10381e0>
    26c4:	f11d0000 			; <UNDEFINED> instruction: 0xf11d0000
    26c8:	74000008 	strvc	r0, [r0], #-8
    26cc:	6e000015 	mcrvs	0, 0, r0, cr0, cr5, {0}
    26d0:	1a000015 	bne	272c <__code_start__-0x58d4>
    26d4:	000021b7 			; <UNDEFINED> instruction: 0x000021b7
    26d8:	00008560 	andeq	r8, r0, r0, ror #10
    26dc:	09e80002 	stmibeq	r8!, {r1}^
    26e0:	3e010000 	cdpcc	0, 0, cr0, cr1, cr0, {0}
    26e4:	21e41b09 	mvncs	r1, r9, lsl #22
    26e8:	15a10000 	strne	r0, [r1, #0]!
    26ec:	159f0000 	ldrne	r0, [pc]	; 26f4 <__code_start__-0x590c>
    26f0:	da1b0000 	ble	6c26f8 <__bss_end__+0x6b8210>
    26f4:	a1000021 	tstge	r0, r1, lsr #32
    26f8:	9f000015 	svcls	0x00000015
    26fc:	1b000015 	blne	2758 <__code_start__-0x58a8>
    2700:	000021d0 	ldrdeq	r2, [r0], -r0
    2704:	000015a1 	andeq	r1, r0, r1, lsr #11
    2708:	0000159f 	muleq	r0, pc, r5	; <UNPREDICTABLE>
    270c:	0021c41e 	eoreq	ip, r1, lr, lsl r4
    2710:	21ef1f00 	mvncs	r1, r0, lsl #30
    2714:	85600000 	strbhi	r0, [r0, #-0]!
    2718:	00040000 	andeq	r0, r4, r0
    271c:	00000a80 	andeq	r0, r0, r0, lsl #21
    2720:	5d05e502 	cfstr32pl	mvfx14, [r5, #-8]
    2724:	1b000026 	blne	27c4 <__code_start__-0x583c>
    2728:	00002208 	andeq	r2, r0, r8, lsl #4
    272c:	000015b7 			; <UNDEFINED> instruction: 0x000015b7
    2730:	000015b5 			; <UNDEFINED> instruction: 0x000015b5
    2734:	0021fc1e 	eoreq	pc, r1, lr, lsl ip	; <UNPREDICTABLE>
    2738:	22122000 	andscs	r2, r2, #0, 0
    273c:	0ad00000 	beq	ff402744 <__bss_end__+0xff3f825c>
    2740:	131d0000 	tstne	sp, #0, 0
    2744:	cd000022 	stcgt	0, cr0, [r0, #-136]	; 0xffffff78
    2748:	cb000015 	blgt	27a4 <__code_start__-0x585c>
    274c:	1a000015 	bne	27a8 <__code_start__-0x5858>
    2750:	0000221f 	andeq	r2, r0, pc, lsl r2
    2754:	00008564 	andeq	r8, r0, r4, ror #10
    2758:	0b180001 	bleq	602764 <__bss_end__+0x5f827c>
    275c:	db020000 	blle	82764 <__bss_end__+0x7827c>
    2760:	22381b09 	eorscs	r1, r8, #9216	; 0x2400
    2764:	15e30000 	strbne	r0, [r3, #0]!
    2768:	15e10000 	strbne	r0, [r1, #0]!
    276c:	2c1e0000 	ldccs	0, cr0, [lr], {-0}
    2770:	1f000022 	svcne	0x00000022
    2774:	000022ab 	andeq	r2, r0, fp, lsr #5
    2778:	00008564 	andeq	r8, r0, r4, ror #10
    277c:	0b580004 	bleq	1602794 <__bss_end__+0x15f82ac>
    2780:	cf020000 	svcgt	0x00020000
    2784:	00258a09 	eoreq	r8, r5, r9, lsl #20
    2788:	22b81e00 	adcscs	r1, r8, #0, 28
    278c:	1f1a0000 	svcne	0x001a0000
    2790:	64000023 	strvs	r0, [r0], #-35	; 0xffffffdd
    2794:	06000085 	streq	r0, [r0], -r5, lsl #1
    2798:	000b8000 	andeq	r8, fp, r0
    279c:	05b10200 	ldreq	r0, [r1, #512]!	; 0x200
    27a0:	0023381b 	eoreq	r3, r3, fp, lsl r8
    27a4:	0015f900 	andseq	pc, r5, r0, lsl #18
    27a8:	0015f700 	andseq	pc, r5, r0, lsl #14
    27ac:	232c1e00 			; <UNDEFINED> instruction: 0x232c1e00
    27b0:	80210000 	eorhi	r0, r1, r0
    27b4:	1d00000b 	stcne	0, cr0, [r0, #-44]	; 0xffffffd4
    27b8:	00002344 	andeq	r2, r0, r4, asr #6
    27bc:	00001610 	andeq	r1, r0, r0, lsl r6
    27c0:	0000160e 	andeq	r1, r0, lr, lsl #12
    27c4:	0023b71f 	eoreq	fp, r3, pc, lsl r7
    27c8:	00856800 	addeq	r6, r5, r0, lsl #16
    27cc:	a0000300 	andge	r0, r0, r0, lsl #6
    27d0:	0200000b 	andeq	r0, r0, #11, 0
    27d4:	2525059e 	strcs	r0, [r5, #-1438]!	; 0xfffffa62
    27d8:	c41e0000 	ldrgt	r0, [lr], #-0
    27dc:	00000023 	andeq	r0, r0, r3, lsr #32
    27e0:	00235022 	eoreq	r5, r3, r2, lsr #32
    27e4:	00856400 	addeq	r6, r5, r0, lsl #8
    27e8:	00000400 	andeq	r0, r0, r0, lsl #8
    27ec:	00254400 	eoreq	r4, r5, r0, lsl #8
    27f0:	23511d00 	cmpcs	r1, #0, 26
    27f4:	16250000 	strtne	r0, [r5], -r0
    27f8:	16230000 	strtne	r0, [r3], -r0
    27fc:	23000000 	movwcs	r0, #0
    2800:	0000235f 	andeq	r2, r0, pc, asr r3
    2804:	0000856c 	andeq	r8, r0, ip, ror #10
    2808:	00000010 	andeq	r0, r0, r0, lsl r0
    280c:	1e059f02 	cdpne	15, 0, cr9, cr5, cr2, {0}
    2810:	00002378 	andeq	r2, r0, r8, ror r3
    2814:	00236c1e 	eoreq	r6, r3, lr, lsl ip
    2818:	23841d00 	orrcs	r1, r4, #0, 26
    281c:	163a0000 	ldrtne	r0, [sl], -r0
    2820:	16380000 	ldrtne	r0, [r8], -r0
    2824:	8e240000 	cdphi	0, 2, cr0, cr4, cr0, {0}
    2828:	6c000023 	stcvs	0, cr0, [r0], {35}	; 0x23
    282c:	04000085 	streq	r0, [r0], #-133	; 0xffffff7b
    2830:	1d000000 	stcne	0, cr0, [r0, #-0]
    2834:	0000238f 	andeq	r2, r0, pc, lsl #7
    2838:	0000164f 	andeq	r1, r0, pc, asr #12
    283c:	0000164d 	andeq	r1, r0, sp, asr #12
    2840:	00000000 	andeq	r0, r0, r0
    2844:	22771a00 	rsbscs	r1, r7, #0, 20
    2848:	857c0000 	ldrbhi	r0, [ip, #-0]!
    284c:	00020000 	andeq	r0, r2, r0
    2850:	00000b40 	andeq	r0, r0, r0, asr #22
    2854:	1e09d002 	cdpne	0, 0, cr13, cr9, cr2, {0}
    2858:	00002284 	andeq	r2, r0, r4, lsl #5
    285c:	0022df25 	eoreq	sp, r2, r5, lsr #30
    2860:	00857c00 	addeq	r7, r5, r0, lsl #24
    2864:	7c000400 	cfstrsvc	mvf0, [r0], {-0}
    2868:	18000085 	stmdane	r0, {r0, r2, r7}
    286c:	02000000 	andeq	r0, r0, #0, 0
    2870:	f81b05b9 			; <UNDEFINED> instruction: 0xf81b05b9
    2874:	64000022 	strvs	r0, [r0], #-34	; 0xffffffde
    2878:	62000016 	andvs	r0, r0, #22, 0
    287c:	1e000016 	mcrne	0, 0, r0, cr0, cr6, {0}
    2880:	000022ec 	andeq	r2, r0, ip, ror #5
    2884:	0023041d 	eoreq	r0, r3, sp, lsl r4
    2888:	00167c00 	andseq	r7, r6, r0, lsl #24
    288c:	00167a00 	andseq	r7, r6, r0, lsl #20
    2890:	23102200 	tstcs	r0, #0, 4
    2894:	857c0000 	ldrbhi	r0, [ip, #-0]!
    2898:	00040000 	andeq	r0, r4, r0
    289c:	25f50000 	ldrbcs	r0, [r5, #0]!
    28a0:	111d0000 	tstne	sp, r0
    28a4:	91000023 	tstls	r0, r3, lsr #32
    28a8:	8f000016 	svchi	0x00000016
    28ac:	00000016 	andeq	r0, r0, r6, lsl r0
    28b0:	00239d26 	eoreq	r9, r3, r6, lsr #26
    28b4:	00858000 	addeq	r8, r5, r0
    28b8:	80000300 	andhi	r0, r0, r0, lsl #6
    28bc:	04000085 	streq	r0, [r0], #-133	; 0xffffff7b
    28c0:	02000000 	andeq	r0, r0, #0, 0
    28c4:	261505a6 	ldrcs	r0, [r5], -r6, lsr #11
    28c8:	aa1e0000 	bge	7828d0 <__bss_end__+0x7783e8>
    28cc:	00000023 	andeq	r0, r0, r3, lsr #32
    28d0:	00235f23 	eoreq	r5, r3, r3, lsr #30
    28d4:	00858400 	addeq	r8, r5, r0, lsl #8
    28d8:	00001000 	andeq	r1, r0, r0
    28dc:	05a70200 	streq	r0, [r7, #512]!	; 0x200
    28e0:	0023781e 	eoreq	r7, r3, lr, lsl r8
    28e4:	236c1e00 	cmncs	ip, #0, 28
    28e8:	841d0000 	ldrhi	r0, [sp], #-0
    28ec:	a6000023 	strge	r0, [r0], -r3, lsr #32
    28f0:	a4000016 	strge	r0, [r0], #-22	; 0xffffffea
    28f4:	24000016 	strcs	r0, [r0], #-22	; 0xffffffea
    28f8:	0000238e 	andeq	r2, r0, lr, lsl #7
    28fc:	00008584 	andeq	r8, r0, r4, lsl #11
    2900:	00000004 	andeq	r0, r0, r4
    2904:	00238f1d 	eoreq	r8, r3, sp, lsl pc
    2908:	0016bb00 	andseq	fp, r6, r0, lsl #22
    290c:	0016b900 	andseq	fp, r6, r0, lsl #18
	...
    2918:	0021ef27 	eoreq	lr, r1, r7, lsr #30
    291c:	000bc000 	andeq	ip, fp, r0
    2920:	05e60200 	strbeq	r0, [r6, #512]!	; 0x200
    2924:	00002850 	andeq	r2, r0, r0, asr r8
    2928:	0022081e 	eoreq	r0, r2, lr, lsl r8
    292c:	21fc1e00 	mvnscs	r1, r0, lsl #28
    2930:	12200000 	eorne	r0, r0, #0, 0
    2934:	c0000022 	andgt	r0, r0, r2, lsr #32
    2938:	2800000b 	stmdacs	r0, {r0, r1, r3}
    293c:	00002213 	andeq	r2, r0, r3, lsl r2
    2940:	00221f1a 	eoreq	r1, r2, sl, lsl pc
    2944:	0085a000 	addeq	sl, r5, r0
    2948:	f0000200 			; <UNDEFINED> instruction: 0xf0000200
    294c:	0200000b 	andeq	r0, r0, #11, 0
    2950:	381b09db 	ldmdacc	fp, {r0, r1, r3, r4, r6, r7, r8, fp}
    2954:	d0000022 	andle	r0, r0, r2, lsr #32
    2958:	ce000016 	mcrgt	0, 0, r0, cr0, cr6, {0}
    295c:	1e000016 	mcrne	0, 0, r0, cr0, cr6, {0}
    2960:	0000222c 	andeq	r2, r0, ip, lsr #4
    2964:	0022ab1f 	eoreq	sl, r2, pc, lsl fp
    2968:	0085a000 	addeq	sl, r5, r0
    296c:	20000500 	andcs	r0, r0, r0, lsl #10
    2970:	0200000c 	andeq	r0, r0, #12, 0
    2974:	277d09cf 	ldrbcs	r0, [sp, -pc, asr #19]!
    2978:	b81e0000 	ldmdalt	lr, {}	; <UNPREDICTABLE>
    297c:	25000022 	strcs	r0, [r0, #-34]	; 0xffffffde
    2980:	0000231f 	andeq	r2, r0, pc, lsl r3
    2984:	000085a0 	andeq	r8, r0, r0, lsr #11
    2988:	85a00007 	strhi	r0, [r0, #7]!
    298c:	00180000 	andseq	r0, r8, r0
    2990:	b1020000 	mrslt	r0, (UNDEF: 2)
    2994:	23381b05 	teqcs	r8, #5120	; 0x1400
    2998:	16e60000 	strbtne	r0, [r6], r0
    299c:	16e40000 	strbtne	r0, [r4], r0
    29a0:	2c1e0000 	ldccs	0, cr0, [lr], {-0}
    29a4:	1d000023 	stcne	0, cr0, [r0, #-140]	; 0xffffff74
    29a8:	00002344 	andeq	r2, r0, r4, asr #6
    29ac:	000016fd 	strdeq	r1, [r0], -sp
    29b0:	000016fb 	strdeq	r1, [r0], -fp
    29b4:	00235022 	eoreq	r5, r3, r2, lsr #32
    29b8:	0085a000 	addeq	sl, r5, r0
    29bc:	00000400 	andeq	r0, r0, r0, lsl #8
    29c0:	00271800 	eoreq	r1, r7, r0, lsl #16
    29c4:	23511d00 	cmpcs	r1, #0, 26
    29c8:	17120000 	ldrne	r0, [r2, -r0]
    29cc:	17100000 	ldrne	r0, [r0, -r0]
    29d0:	26000000 	strcs	r0, [r0], -r0
    29d4:	000023b7 			; <UNDEFINED> instruction: 0x000023b7
    29d8:	000085a4 	andeq	r8, r0, r4, lsr #11
    29dc:	85a40003 	strhi	r0, [r4, #3]!
    29e0:	00040000 	andeq	r0, r4, r0
    29e4:	9e020000 	cdpls	0, 0, cr0, cr2, cr0, {0}
    29e8:	00273805 	eoreq	r3, r7, r5, lsl #16
    29ec:	23c41e00 	biccs	r1, r4, #0, 28
    29f0:	23000000 	movwcs	r0, #0
    29f4:	0000235f 	andeq	r2, r0, pc, asr r3
    29f8:	000085a8 	andeq	r8, r0, r8, lsr #11
    29fc:	00000010 	andeq	r0, r0, r0, lsl r0
    2a00:	1e059f02 	cdpne	15, 0, cr9, cr5, cr2, {0}
    2a04:	00002378 	andeq	r2, r0, r8, ror r3
    2a08:	00236c1e 	eoreq	r6, r3, lr, lsl ip
    2a0c:	23841d00 	orrcs	r1, r4, #0, 26
    2a10:	17270000 	strne	r0, [r7, -r0]!
    2a14:	17250000 	strne	r0, [r5, -r0]!
    2a18:	8e240000 	cdphi	0, 2, cr0, cr4, cr0, {0}
    2a1c:	a8000023 	stmdage	r0, {r0, r1, r5}
    2a20:	04000085 	streq	r0, [r0], #-133	; 0xffffff7b
    2a24:	1d000000 	stcne	0, cr0, [r0, #-0]
    2a28:	0000238f 	andeq	r2, r0, pc, lsl #7
    2a2c:	0000173c 	andeq	r1, r0, ip, lsr r7
    2a30:	0000173a 	andeq	r1, r0, sl, lsr r7
    2a34:	00000000 	andeq	r0, r0, r0
    2a38:	0022771a 	eoreq	r7, r2, sl, lsl r7
    2a3c:	0085b800 	addeq	fp, r5, r0, lsl #16
    2a40:	08000200 	stmdaeq	r0, {r9}
    2a44:	0200000c 	andeq	r0, r0, #12, 0
    2a48:	841e09d0 	ldrhi	r0, [lr], #-2512	; 0xfffff630
    2a4c:	25000022 	strcs	r0, [r0, #-34]	; 0xffffffde
    2a50:	000022df 	ldrdeq	r2, [r0], -pc	; <UNPREDICTABLE>
    2a54:	000085b8 			; <UNDEFINED> instruction: 0x000085b8
    2a58:	85b80004 	ldrhi	r0, [r8, #4]!
    2a5c:	00180000 	andseq	r0, r8, r0
    2a60:	b9020000 	stmdblt	r2, {}	; <UNPREDICTABLE>
    2a64:	22f81b05 	rscscs	r1, r8, #5120	; 0x1400
    2a68:	17510000 	ldrbne	r0, [r1, -r0]
    2a6c:	174f0000 	strbne	r0, [pc, -r0]
    2a70:	ec1e0000 	ldc	0, cr0, [lr], {-0}
    2a74:	1d000022 	stcne	0, cr0, [r0, #-136]	; 0xffffff78
    2a78:	00002304 	andeq	r2, r0, r4, lsl #6
    2a7c:	00001769 	andeq	r1, r0, r9, ror #14
    2a80:	00001767 	andeq	r1, r0, r7, ror #14
    2a84:	00231022 	eoreq	r1, r3, r2, lsr #32
    2a88:	0085b800 	addeq	fp, r5, r0, lsl #16
    2a8c:	00000400 	andeq	r0, r0, r0, lsl #8
    2a90:	0027e800 	eoreq	lr, r7, r0, lsl #16
    2a94:	23111d00 	tstcs	r1, #0, 26
    2a98:	177e0000 	ldrbne	r0, [lr, -r0]!
    2a9c:	177c0000 	ldrbne	r0, [ip, -r0]!
    2aa0:	26000000 	strcs	r0, [r0], -r0
    2aa4:	0000239d 	muleq	r0, sp, r3
    2aa8:	000085bc 			; <UNDEFINED> instruction: 0x000085bc
    2aac:	85bc0003 	ldrhi	r0, [ip, #3]!
    2ab0:	00040000 	andeq	r0, r4, r0
    2ab4:	a6020000 	strge	r0, [r2], -r0
    2ab8:	00280805 	eoreq	r0, r8, r5, lsl #16
    2abc:	23aa1e00 			; <UNDEFINED> instruction: 0x23aa1e00
    2ac0:	23000000 	movwcs	r0, #0
    2ac4:	0000235f 	andeq	r2, r0, pc, asr r3
    2ac8:	000085c0 	andeq	r8, r0, r0, asr #11
    2acc:	00000010 	andeq	r0, r0, r0, lsl r0
    2ad0:	1e05a702 	cdpne	7, 0, cr10, cr5, cr2, {0}
    2ad4:	00002378 	andeq	r2, r0, r8, ror r3
    2ad8:	00236c1e 	eoreq	r6, r3, lr, lsl ip
    2adc:	23841d00 	orrcs	r1, r4, #0, 26
    2ae0:	17930000 	ldrne	r0, [r3, r0]
    2ae4:	17910000 	ldrne	r0, [r1, r0]
    2ae8:	8e240000 	cdphi	0, 2, cr0, cr4, cr0, {0}
    2aec:	c0000023 	andgt	r0, r0, r3, lsr #32
    2af0:	04000085 	streq	r0, [r0], #-133	; 0xffffff7b
    2af4:	1d000000 	stcne	0, cr0, [r0, #-0]
    2af8:	0000238f 	andeq	r2, r0, pc, lsl #7
    2afc:	000017a8 	andeq	r1, r0, r8, lsr #15
    2b00:	000017a6 	andeq	r1, r0, r6, lsr #15
    2b04:	00000000 	andeq	r0, r0, r0
    2b08:	29000000 	stmdbcs	r0, {}	; <UNPREDICTABLE>
    2b0c:	000021ef 	andeq	r2, r0, pc, ror #3
    2b10:	00000c38 	andeq	r0, r0, r8, lsr ip
    2b14:	1e05e702 	cdpne	7, 0, cr14, cr5, cr2, {0}
    2b18:	00002208 	andeq	r2, r0, r8, lsl #4
    2b1c:	0021fc1e 	eoreq	pc, r1, lr, lsl ip	; <UNPREDICTABLE>
    2b20:	22122000 	andscs	r2, r2, #0, 0
    2b24:	0c380000 	ldceq	0, cr0, [r8], #-0
    2b28:	13280000 			; <UNDEFINED> instruction: 0x13280000
    2b2c:	1a000022 	bne	2bbc <__code_start__-0x5444>
    2b30:	0000221f 	andeq	r2, r0, pc, lsl r2
    2b34:	000085dc 	ldrdeq	r8, [r0], -ip
    2b38:	0c680002 	stcleq	0, cr0, [r8], #-8
    2b3c:	db020000 	blle	82b44 <__bss_end__+0x7865c>
    2b40:	22381b09 	eorscs	r1, r8, #9216	; 0x2400
    2b44:	17bd0000 	ldrne	r0, [sp, r0]!
    2b48:	17bb0000 	ldrne	r0, [fp, r0]!
    2b4c:	2c1e0000 	ldccs	0, cr0, [lr], {-0}
    2b50:	1f000022 	svcne	0x00000022
    2b54:	000022ab 	andeq	r2, r0, fp, lsr #5
    2b58:	000085dc 	ldrdeq	r8, [r0], -ip
    2b5c:	0c980005 	ldceq	0, cr0, [r8], {5}
    2b60:	cf020000 	svcgt	0x00020000
    2b64:	00296c09 	eoreq	r6, r9, r9, lsl #24
    2b68:	22b81e00 	adcscs	r1, r8, #0, 28
    2b6c:	1f250000 	svcne	0x00250000
    2b70:	dc000023 	stcle	0, cr0, [r0], {35}	; 0x23
    2b74:	07000085 	streq	r0, [r0, -r5, lsl #1]
    2b78:	0085dc00 	addeq	sp, r5, r0, lsl #24
    2b7c:	00001800 	andeq	r1, r0, r0, lsl #16
    2b80:	05b10200 	ldreq	r0, [r1, #512]!	; 0x200
    2b84:	0023381b 	eoreq	r3, r3, fp, lsl r8
    2b88:	0017d300 	andseq	sp, r7, r0, lsl #6
    2b8c:	0017d100 	andseq	sp, r7, r0, lsl #2
    2b90:	232c1e00 			; <UNDEFINED> instruction: 0x232c1e00
    2b94:	441d0000 	ldrmi	r0, [sp], #-0
    2b98:	ea000023 	b	2c2c <__code_start__-0x53d4>
    2b9c:	e8000017 	stmda	r0, {r0, r1, r2, r4}
    2ba0:	22000017 	andcs	r0, r0, #23, 0
    2ba4:	00002350 	andeq	r2, r0, r0, asr r3
    2ba8:	000085dc 	ldrdeq	r8, [r0], -ip
    2bac:	00000004 	andeq	r0, r0, r4
    2bb0:	00002907 	andeq	r2, r0, r7, lsl #18
    2bb4:	0023511d 	eoreq	r5, r3, sp, lsl r1
    2bb8:	0017ff00 	andseq	pc, r7, r0, lsl #30
    2bbc:	0017fd00 	andseq	pc, r7, r0, lsl #26
    2bc0:	b7260000 	strlt	r0, [r6, -r0]!
    2bc4:	e0000023 	and	r0, r0, r3, lsr #32
    2bc8:	03000085 	movweq	r0, #133	; 0x85
    2bcc:	0085e000 	addeq	lr, r5, r0
    2bd0:	00000400 	andeq	r0, r0, r0, lsl #8
    2bd4:	059e0200 	ldreq	r0, [lr, #512]	; 0x200
    2bd8:	00002927 	andeq	r2, r0, r7, lsr #18
    2bdc:	0023c41e 	eoreq	ip, r3, lr, lsl r4
    2be0:	5f230000 	svcpl	0x00230000
    2be4:	e4000023 	str	r0, [r0], #-35	; 0xffffffdd
    2be8:	10000085 	andne	r0, r0, r5, lsl #1
    2bec:	02000000 	andeq	r0, r0, #0, 0
    2bf0:	781e059f 	ldmdavc	lr, {r0, r1, r2, r3, r4, r7, r8, sl}
    2bf4:	1e000023 	cdpne	0, 0, cr0, cr0, cr3, {1}
    2bf8:	0000236c 	andeq	r2, r0, ip, ror #6
    2bfc:	0023841d 	eoreq	r8, r3, sp, lsl r4
    2c00:	00181400 	andseq	r1, r8, r0, lsl #8
    2c04:	00181200 	andseq	r1, r8, r0, lsl #4
    2c08:	238e2400 	orrcs	r2, lr, #0, 8
    2c0c:	85e40000 	strbhi	r0, [r4, #0]!
    2c10:	00040000 	andeq	r0, r4, r0
    2c14:	8f1d0000 	svchi	0x001d0000
    2c18:	29000023 	stmdbcs	r0, {r0, r1, r5}
    2c1c:	27000018 	smladcs	r0, r8, r0, r0
    2c20:	00000018 	andeq	r0, r0, r8, lsl r0
    2c24:	1a000000 	bne	2c2c <__code_start__-0x53d4>
    2c28:	00002277 	andeq	r2, r0, r7, ror r2
    2c2c:	000085f4 	strdeq	r8, [r0], -r4
    2c30:	0c800002 	stceq	0, cr0, [r0], {2}
    2c34:	d0020000 	andle	r0, r2, r0
    2c38:	22841e09 	addcs	r1, r4, #144	; 0x90
    2c3c:	df250000 	svcle	0x00250000
    2c40:	f4000022 	vst4.8	{d0-d3}, [r0 :128], r2
    2c44:	04000085 	streq	r0, [r0], #-133	; 0xffffff7b
    2c48:	0085f400 	addeq	pc, r5, r0, lsl #8
    2c4c:	00001800 	andeq	r1, r0, r0, lsl #16
    2c50:	05b90200 	ldreq	r0, [r9, #512]!	; 0x200
    2c54:	0022f81b 	eoreq	pc, r2, fp, lsl r8	; <UNPREDICTABLE>
    2c58:	00183e00 	andseq	r3, r8, r0, lsl #28
    2c5c:	00183c00 	andseq	r3, r8, r0, lsl #24
    2c60:	22ec1e00 	rsccs	r1, ip, #0, 28
    2c64:	041d0000 	ldreq	r0, [sp], #-0
    2c68:	56000023 	strpl	r0, [r0], -r3, lsr #32
    2c6c:	54000018 	strpl	r0, [r0], #-24	; 0xffffffe8
    2c70:	22000018 	andcs	r0, r0, #24, 0
    2c74:	00002310 	andeq	r2, r0, r0, lsl r3
    2c78:	000085f4 	strdeq	r8, [r0], -r4
    2c7c:	00000004 	andeq	r0, r0, r4
    2c80:	000029d7 	ldrdeq	r2, [r0], -r7
    2c84:	0023111d 	eoreq	r1, r3, sp, lsl r1
    2c88:	00186b00 	andseq	r6, r8, r0, lsl #22
    2c8c:	00186900 	andseq	r6, r8, r0, lsl #18
    2c90:	9d260000 	stcls	0, cr0, [r6, #-0]
    2c94:	f8000023 			; <UNDEFINED> instruction: 0xf8000023
    2c98:	03000085 	movweq	r0, #133	; 0x85
    2c9c:	0085f800 	addeq	pc, r5, r0, lsl #16
    2ca0:	00000400 	andeq	r0, r0, r0, lsl #8
    2ca4:	05a60200 	streq	r0, [r6, #512]!	; 0x200
    2ca8:	000029f7 	strdeq	r2, [r0], -r7
    2cac:	0023aa1e 	eoreq	sl, r3, lr, lsl sl
    2cb0:	5f230000 	svcpl	0x00230000
    2cb4:	fc000023 	stc2	0, cr0, [r0], {35}	; 0x23
    2cb8:	10000085 	andne	r0, r0, r5, lsl #1
    2cbc:	02000000 	andeq	r0, r0, #0, 0
    2cc0:	781e05a7 	ldmdavc	lr, {r0, r1, r2, r5, r7, r8, sl}
    2cc4:	1e000023 	cdpne	0, 0, cr0, cr0, cr3, {1}
    2cc8:	0000236c 	andeq	r2, r0, ip, ror #6
    2ccc:	0023841d 	eoreq	r8, r3, sp, lsl r4
    2cd0:	00188000 	andseq	r8, r8, r0
    2cd4:	00187e00 	andseq	r7, r8, r0, lsl #28
    2cd8:	238e2400 	orrcs	r2, lr, #0, 8
    2cdc:	85fc0000 	ldrbhi	r0, [ip, #0]!
    2ce0:	00040000 	andeq	r0, r4, r0
    2ce4:	8f1d0000 	svchi	0x001d0000
    2ce8:	95000023 	strls	r0, [r0, #-35]	; 0xffffffdd
    2cec:	93000018 	movwls	r0, #24
    2cf0:	00000018 	andeq	r0, r0, r8, lsl r0
	...
    2cfc:	0086282a 	addeq	r2, r6, sl, lsr #16
    2d00:	00153e00 	andseq	r3, r5, r0, lsl #28
    2d04:	862c2a00 	strthi	r2, [ip], -r0, lsl #20
    2d08:	153e0000 	ldrne	r0, [lr, #-0]!
    2d0c:	3b000000 	blcc	2d14 <__code_start__-0x52ec>
    2d10:	000002a1 	andeq	r0, r0, r1, lsr #5
    2d14:	000002a1 	andeq	r0, r0, r1, lsr #5
    2d18:	3b077b04 	blcc	1e1930 <__bss_end__+0x1d7448>
    2d1c:	00000240 	andeq	r0, r0, r0, asr #4
    2d20:	00000240 	andeq	r0, r0, r0, asr #4
    2d24:	3b07f204 	blcc	1ff53c <__bss_end__+0x1f5054>
    2d28:	000000c4 	andeq	r0, r0, r4, asr #1
    2d2c:	000000c4 	andeq	r0, r0, r4, asr #1
    2d30:	00061d06 	andeq	r1, r6, r6, lsl #26
    2d34:	00000619 	andeq	r0, r0, r9, lsl r6
    2d38:	04010005 	streq	r0, [r1], #-5
    2d3c:	000004ad 	andeq	r0, r0, sp, lsr #9
    2d40:	0002f715 	andeq	pc, r2, r5, lsl r7	; <UNPREDICTABLE>
    2d44:	03e40c00 	mvneq	r0, #0, 24
    2d48:	042d0000 	strteq	r0, [sp], #-0
    2d4c:	87400000 	strbhi	r0, [r0, -r0]
    2d50:	01a00000 	moveq	r0, r0
    2d54:	11710000 	cmnne	r1, r0
    2d58:	08030000 	stmdaeq	r3, {}	; <UNPREDICTABLE>
    2d5c:	00019307 	andeq	r9, r1, r7, lsl #6
    2d60:	07040300 	streq	r0, [r4, -r0, lsl #6]
    2d64:	0000019d 	muleq	r0, sp, r1
    2d68:	69050416 	stmdbvs	r5, {r1, r2, r4, sl}
    2d6c:	1700746e 	strne	r7, [r0, -lr, ror #8]
    2d70:	0000002d 	andeq	r0, r0, sp, lsr #32
    2d74:	8f060103 	svchi	0x00060103
    2d78:	03000000 	movweq	r0, #0
    2d7c:	01d40502 	bicseq	r0, r4, r2, lsl #10
    2d80:	04030000 	streq	r0, [r3], #-0
    2d84:	0001bf05 	andeq	fp, r1, r5, lsl #30
    2d88:	05080300 	streq	r0, [r8, #-768]	; 0xfffffd00
    2d8c:	000001ba 			; <UNDEFINED> instruction: 0x000001ba
    2d90:	8d080103 	stfhis	f0, [r8, #-12]
    2d94:	03000000 	movweq	r0, #0
    2d98:	00a40702 	adceq	r0, r4, r2, lsl #14
    2d9c:	64130000 	ldrvs	r0, [r3], #-0
    2da0:	02000002 	andeq	r0, r0, #2, 0
    2da4:	00761934 	rsbseq	r1, r6, r4, lsr r9
    2da8:	04030000 	streq	r0, [r3], #-0
    2dac:	00019807 	andeq	r9, r1, r7, lsl #16
    2db0:	08010300 	stmdaeq	r1, {r8, r9}
    2db4:	00000096 	muleq	r0, r6, r0
    2db8:	5c010718 	stcpl	7, cr0, [r1], {24}
    2dbc:	03000000 	movweq	r0, #0
    2dc0:	00c30e0c 	sbceq	r0, r3, ip, lsl #28
    2dc4:	54060000 	strpl	r0, [r6], #-0
    2dc8:	00000004 	andeq	r0, r0, r4
    2dcc:	0002dc06 	andeq	sp, r2, r6, lsl #24
    2dd0:	99060100 	stmdbls	r6, {r8}
    2dd4:	04000003 	streq	r0, [r0], #-3
    2dd8:	0003a806 	andeq	sl, r3, r6, lsl #16
    2ddc:	b7060500 	strlt	r0, [r6, -r0, lsl #10]
    2de0:	06000003 	streq	r0, [r0], -r3
    2de4:	0003c606 	andeq	ip, r3, r6, lsl #12
    2de8:	1e060700 	cdpne	7, 0, cr0, cr6, cr0, {0}
    2dec:	03000004 	movweq	r0, #4
    2df0:	0003d506 	andeq	sp, r3, r6, lsl #10
    2df4:	13000200 	movwne	r0, #512	; 0x200
    2df8:	00000412 	andeq	r0, r0, r2, lsl r4
    2dfc:	84031503 	strhi	r1, [r3], #-1283	; 0xfffffafd
    2e00:	0d000000 	stceq	0, cr0, [r0, #-0]
    2e04:	00000015 	andeq	r0, r0, r5, lsl r0
    2e08:	00003b1d 	andeq	r3, r0, sp, lsl fp
    2e0c:	20001c00 	andcs	r1, r0, r0, lsl #24
    2e10:	000b0d20 	andeq	r0, fp, r0, lsr #26
    2e14:	3b1e0000 	blcc	782e1c <__bss_end__+0x778934>
    2e18:	28000000 	stmdacs	r0, {}	; <UNPREDICTABLE>
    2e1c:	0d202000 	stceq	0, cr2, [r0, #-0]
    2e20:	000001aa 	andeq	r0, r0, sl, lsr #3
    2e24:	00003b1f 	andeq	r3, r0, pc, lsl fp
    2e28:	20003400 	andcs	r3, r0, r0, lsl #8
    2e2c:	03831920 	orreq	r1, r3, #32, 18	; 0x80000
    2e30:	ad040000 	stcge	0, cr0, [r4, #-0]
    2e34:	00011006 	andeq	r1, r1, r6
    2e38:	002d0e00 	eoreq	r0, sp, r0, lsl #28
    2e3c:	2d0e0000 	stccs	0, cr0, [lr, #-0]
    2e40:	00000000 	andeq	r0, r0, r0
    2e44:	0003931a 	andeq	r9, r3, sl, lsl r3
    2e48:	0ac20400 	beq	ff083e50 <__bss_end__+0xff079968>
    2e4c:	0000002d 	andeq	r0, r0, sp, lsr #32
    2e50:	00000126 	andeq	r0, r0, r6, lsr #2
    2e54:	00002d0e 	andeq	r2, r0, lr, lsl #26
    2e58:	891b0000 	ldmdbhi	fp, {}	; <UNPREDICTABLE>
    2e5c:	01000003 	tsteq	r0, r3
    2e60:	00340551 	eorseq	r0, r4, r1, asr r5
    2e64:	88b80000 	ldmhi	r8!, {}	; <UNPREDICTABLE>
    2e68:	00280000 	eoreq	r0, r8, r0
    2e6c:	9c010000 	stcls	0, cr0, [r1], {-0}
    2e70:	00000194 	muleq	r0, r4, r1
    2e74:	6e697008 	cdpvs	0, 6, cr7, cr9, cr8, {0}
    2e78:	2d185100 	ldfcss	f5, [r8, #-0]
    2e7c:	12000000 	andne	r0, r0, #0, 0
    2e80:	0c000000 	stceq	0, cr0, [r0], {-0}
    2e84:	1c000000 	stcne	0, cr0, [r0], {-0}
    2e88:	0000044f 	andeq	r0, r0, pc, asr #8
    2e8c:	2d0e5201 	sfmcs	f5, 4, [lr, #-4]
    2e90:	33000000 	movwcc	r0, #0
    2e94:	2b000000 	blcs	2e9c <__code_start__-0x5164>
    2e98:	1d000000 	stcne	0, cr0, [r0, #-0]
    2e9c:	0066666f 	rsbeq	r6, r6, pc, ror #12
    2ea0:	2d0e5301 	stccs	3, cr5, [lr, #-4]
    2ea4:	75000000 	strvc	r0, [r0, #-0]
    2ea8:	6f000000 	svcvs	0x00000000
    2eac:	1e000000 	cdpne	0, 0, cr0, cr0, cr0, {0}
    2eb0:	000088cc 	andeq	r8, r0, ip, asr #17
    2eb4:	00000110 	andeq	r0, r0, r0, lsl r1
    2eb8:	0a500101 	beq	14032c4 <__bss_end__+0x13f8ddc>
    2ebc:	25350074 	ldrcs	r0, [r5, #-116]!	; 0xffffff8c
    2ec0:	8080b423 	addhi	fp, r0, r3, lsr #8
    2ec4:	00000281 	andeq	r0, r0, r1, lsl #5
    2ec8:	0002d10f 	andeq	sp, r2, pc, lsl #2
    2ecc:	88884a00 	stmhi	r8, {r9, fp, lr}
    2ed0:	00300000 	eorseq	r0, r0, r0
    2ed4:	9c010000 	stcls	0, cr0, [r1], {-0}
    2ed8:	0000024b 	andeq	r0, r0, fp, asr #4
    2edc:	6e697008 	cdpvs	0, 6, cr7, cr9, cr8, {0}
    2ee0:	2d1a4a00 	vldrcs	s8, [sl, #-0]
    2ee4:	9f000000 	svcls	0x00000000
    2ee8:	93000000 	movwls	r0, #0
    2eec:	08000000 	stmdaeq	r0, {}	; <UNPREDICTABLE>
    2ef0:	284a0076 	stmdacs	sl, {r1, r2, r4, r5, r6}^
    2ef4:	0000002d 	andeq	r0, r0, sp, lsr #32
    2ef8:	000000d4 	ldrdeq	r0, [r0], -r4
    2efc:	000000d0 	ldrdeq	r0, [r0], -r0	; <UNPREDICTABLE>
    2f00:	00035d1f 	andeq	r5, r3, pc, lsl sp
    2f04:	00889800 	addeq	r9, r8, r0, lsl #16
    2f08:	00500100 	subseq	r0, r0, r0, lsl #2
    2f0c:	4c010000 	stcmi	0, cr0, [r1], {-0}
    2f10:	00020b09 	andeq	r0, r2, r9, lsl #22
    2f14:	03690200 	cmneq	r9, #0, 4
    2f18:	00ec0000 	rsceq	r0, ip, r0
    2f1c:	00e60000 	rsceq	r0, r6, r0
    2f20:	a4070000 	strge	r0, [r7], #-0
    2f24:	f9000088 			; <UNDEFINED> instruction: 0xf9000088
    2f28:	01000000 	mrseq	r0, (UNDEF: 0)
    2f2c:	0c055001 	stceq	0, cr5, [r5], {1}
    2f30:	2020001c 	eorcs	r0, r0, ip, lsl r0
    2f34:	05510101 	ldrbeq	r0, [r1, #-257]	; 0xfffffeff
    2f38:	5001a331 	andpl	sl, r1, r1, lsr r3
    2f3c:	20000024 	andcs	r0, r0, r4, lsr #32
    2f40:	00000344 	andeq	r0, r0, r4, asr #6
    2f44:	000088a4 	andeq	r8, r0, r4, lsr #17
    2f48:	0088a402 	addeq	sl, r8, r2, lsl #8
    2f4c:	00001400 	andeq	r1, r0, r0, lsl #8
    2f50:	094e0100 	stmdbeq	lr, {r8}^
    2f54:	00035002 	andeq	r5, r3, r2
    2f58:	00010b00 	andeq	r0, r1, r0, lsl #22
    2f5c:	00010500 	andeq	r0, r1, r0, lsl #10
    2f60:	88b00700 	ldmhi	r0!, {r8, r9, sl}
    2f64:	00f90000 	rscseq	r0, r9, r0
    2f68:	01010000 	mrseq	r0, (UNDEF: 1)
    2f6c:	280c0550 	stmdacs	ip, {r4, r6, r8, sl}
    2f70:	01202000 			; <UNDEFINED> instruction: 0x01202000
    2f74:	31055101 	tstcc	r5, r1, lsl #2
    2f78:	245001a3 	ldrbcs	r0, [r0], #-419	; 0xfffffe5d
    2f7c:	0f000000 	svceq	0x00000000
    2f80:	000003f1 	strdeq	r0, [r0], -r1
    2f84:	00883045 	addeq	r3, r8, r5, asr #32
    2f88:	00005800 	andeq	r5, r0, r0, lsl #16
    2f8c:	449c0100 	ldrmi	r0, [ip], #256	; 0x100
    2f90:	08000003 	stmdaeq	r0, {r0, r1}
    2f94:	006e6970 	rsbeq	r6, lr, r0, ror r9
    2f98:	002d1e45 	eoreq	r1, sp, r5, asr #28
    2f9c:	012a0000 			; <UNDEFINED> instruction: 0x012a0000
    2fa0:	01240000 			; <UNDEFINED> instruction: 0x01240000
    2fa4:	6f090000 	svcvs	0x00090000
    2fa8:	30000004 	andcc	r0, r0, r4
    2fac:	02000088 	andeq	r0, r0, #136, 0	; 0x88
    2fb0:	00000030 	andeq	r0, r0, r0, lsr r0
    2fb4:	870b0546 	strhi	r0, [fp, -r6, asr #10]
    2fb8:	00000004 	andeq	r0, r0, r4
    2fbc:	00047b02 	andeq	r7, r4, r2, lsl #22
    2fc0:	00014900 	andeq	r4, r1, r0, lsl #18
    2fc4:	00014300 	andeq	r4, r1, r0, lsl #6
    2fc8:	00300a00 	eorseq	r0, r0, r0, lsl #20
    2fcc:	93040000 	movwls	r0, #16384	; 0x4000
    2fd0:	04000004 	streq	r0, [r0], #-4
    2fd4:	0000049d 	muleq	r0, sp, r4
    2fd8:	0004a504 	andeq	sl, r4, r4, lsl #10
    2fdc:	046f0900 	strbteq	r0, [pc], #-2304	; 2fe4 <__code_start__-0x501c>
    2fe0:	88380000 	ldmdahi	r8!, {}	; <UNPREDICTABLE>
    2fe4:	40000000 	andmi	r0, r0, r0
    2fe8:	28000000 	stmdacs	r0, {}	; <UNPREDICTABLE>
    2fec:	04870b06 	streq	r0, [r7], #2822	; 0xb06
    2ff0:	02000000 	andeq	r0, r0, #0, 0
    2ff4:	0000047b 	andeq	r0, r0, fp, ror r4
    2ff8:	00000168 	andeq	r0, r0, r8, ror #2
    2ffc:	00000162 	andeq	r0, r0, r2, ror #2
    3000:	0000400a 	andeq	r4, r0, sl
    3004:	04930500 	ldreq	r0, [r3], #1280	; 0x500
    3008:	01870000 	orreq	r0, r7, r0
    300c:	01810000 	orreq	r0, r1, r0
    3010:	9d050000 	stcls	0, cr0, [r5, #-0]
    3014:	b6000004 	strlt	r0, [r0], -r4
    3018:	b0000001 	andlt	r0, r0, r1
    301c:	05000001 	streq	r0, [r0, #-1]
    3020:	000004a5 	andeq	r0, r0, r5, lsr #9
    3024:	000001f9 	strdeq	r0, [r0], -r9
    3028:	000001f1 	strdeq	r0, [r0], -r1
    302c:	00886010 	addeq	r6, r8, r0, lsl r0
    3030:	00011000 	andeq	r1, r1, r0
    3034:	00030c00 	andeq	r0, r3, r0, lsl #24
    3038:	50010100 	andpl	r0, r1, r0, lsl #2
    303c:	00007602 	andeq	r7, r0, r2, lsl #12
    3040:	00888407 	addeq	r8, r8, r7, lsl #8
    3044:	0000f900 	andeq	pc, r0, r0, lsl #18
    3048:	50010100 	andpl	r0, r1, r0, lsl #2
    304c:	5001a325 	andpl	sl, r1, r5, lsr #6
    3050:	26a82da8 	strtcs	r2, [r8], r8, lsr #27
    3054:	cd0826a4 	stcgt	6, cr2, [r8, #-656]	; 0xfffffd70
    3058:	00cccccc 	sbceq	ip, ip, ip, asr #25
    305c:	1e000000 	cdpne	0, 0, cr0, cr0, cr0, {0}
    3060:	26a82008 	strtcs	r2, [r8], r8
    3064:	a82da825 	stmdage	sp!, {r0, r2, r5, fp, sp, pc}
    3068:	23253300 			; <UNDEFINED> instruction: 0x23253300
    306c:	40a08080 	adcmi	r8, r0, r0, lsl #1
    3070:	00002432 	andeq	r2, r0, r2, lsr r4
    3074:	00000000 	andeq	r0, r0, r0
    3078:	00040011 	andeq	r0, r4, r1, lsl r0
    307c:	030d4000 	movweq	r4, #53248	; 0xd000
    3080:	0000035d 	andeq	r0, r0, sp, asr r3
    3084:	6e69700c 	cdpvs	0, 6, cr7, cr9, cr12, {0}
    3088:	23400100 	movtcs	r0, #256	; 0x100
    308c:	0000002d 	andeq	r0, r0, sp, lsr #32
    3090:	04761100 	ldrbteq	r1, [r6], #-256	; 0xffffff00
    3094:	0d3b0000 	ldceq	0, cr0, [fp, #-0]
    3098:	00037603 	andeq	r7, r3, r3, lsl #12
    309c:	69700c00 	ldmdbvs	r0!, {sl, fp}^
    30a0:	3b01006e 	blcc	43260 <__bss_end__+0x38d78>
    30a4:	00002d22 	andeq	r2, r0, r2, lsr #26
    30a8:	c40f0000 	strgt	r0, [pc], #-0	; 30b0 <__code_start__-0x4f50>
    30ac:	36000000 	strcc	r0, [r0], -r0
    30b0:	000087a4 	andeq	r8, r0, r4, lsr #15
    30b4:	0000005c 	andeq	r0, r0, ip, asr r0
    30b8:	046f9c01 	strbteq	r9, [pc], #-3073	; 30c0 <__code_start__-0x4f40>
    30bc:	70080000 	andvc	r0, r8, r0
    30c0:	36006e69 	strcc	r6, [r0], -r9, ror #28
    30c4:	00002d1f 	andeq	r2, r0, pc, lsl sp
    30c8:	00024000 	andeq	r4, r2, r0
    30cc:	00023c00 	andeq	r3, r2, r0, lsl #24
    30d0:	046f0900 	strbteq	r0, [pc], #-2304	; 30d8 <__code_start__-0x4f28>
    30d4:	87a40000 	strhi	r0, [r4, r0]!
    30d8:	16020000 	strne	r0, [r2], -r0
    30dc:	37000000 	strcc	r0, [r0, -r0]
    30e0:	04870b05 	streq	r0, [r7], #2821	; 0xb05
    30e4:	02010000 	andeq	r0, r1, #0, 0
    30e8:	0000047b 	andeq	r0, r0, fp, ror r4
    30ec:	00000255 	andeq	r0, r0, r5, asr r2
    30f0:	00000251 	andeq	r0, r0, r1, asr r2
    30f4:	0000160a 	andeq	r1, r0, sl, lsl #12
    30f8:	04930400 	ldreq	r0, [r3], #1024	; 0x400
    30fc:	9d040000 	stcls	0, cr0, [r4, #-0]
    3100:	04000004 	streq	r0, [r0], #-4
    3104:	000004a5 	andeq	r0, r0, r5, lsr #9
    3108:	00046f09 	andeq	r6, r4, r9, lsl #30
    310c:	0087ac00 	addeq	sl, r7, r0, lsl #24
    3110:	00230000 	eoreq	r0, r3, r0
    3114:	06280000 	strteq	r0, [r8], -r0
    3118:	0004870b 	andeq	r8, r4, fp, lsl #14
    311c:	7b020100 	blvc	83524 <__bss_end__+0x7903c>
    3120:	6a000004 	bvs	3138 <__code_start__-0x4ec8>
    3124:	66000002 	strvs	r0, [r0], -r2
    3128:	0a000002 	beq	3138 <__code_start__-0x4ec8>
    312c:	00000023 	andeq	r0, r0, r3, lsr #32
    3130:	00049305 	andeq	r9, r4, r5, lsl #6
    3134:	00027f00 	andeq	r7, r2, r0, lsl #30
    3138:	00027b00 	andeq	r7, r2, r0, lsl #22
    313c:	049d0500 	ldreq	r0, [sp], #1280	; 0x500
    3140:	02bc0000 	adcseq	r0, ip, #0, 0
    3144:	02b60000 	adcseq	r0, r6, #0, 0
    3148:	a5050000 	strge	r0, [r5, #-0]
    314c:	ff000004 			; <UNDEFINED> instruction: 0xff000004
    3150:	f7000002 			; <UNDEFINED> instruction: 0xf7000002
    3154:	10000002 	andne	r0, r0, r2
    3158:	000087d8 	ldrdeq	r8, [r0], -r8	; <UNPREDICTABLE>
    315c:	00000110 	andeq	r0, r0, r0, lsl r1
    3160:	00000437 	andeq	r0, r0, r7, lsr r4
    3164:	02500101 	subseq	r0, r0, #1073741824	; 0x40000000
    3168:	07000075 	smlsdxeq	r0, r5, r0, r0
    316c:	000087fc 	strdeq	r8, [r0], -ip
    3170:	000000f9 	strdeq	r0, [r0], -r9
    3174:	25500101 	ldrbcs	r0, [r0, #-257]	; 0xfffffeff
    3178:	a85001a3 	ldmdage	r0, {r0, r1, r5, r7, r8}^
    317c:	a426a82d 	strtge	sl, [r6], #-2093	; 0xfffff7d3
    3180:	cccd0826 	stclgt	8, cr0, [sp], {38}	; 0x26
    3184:	0000cccc 	andeq	ip, r0, ip, asr #25
    3188:	081e0000 	ldmdaeq	lr, {}	; <UNPREDICTABLE>
    318c:	2526a820 	strcs	sl, [r6, #-2080]!	; 0xfffff7e0
    3190:	00a82da8 	adceq	r2, r8, r8, lsr #27
    3194:	80232533 	eorhi	r2, r3, r3, lsr r5
    3198:	3240a080 	subcc	sl, r0, #128, 0	; 0x80
    319c:	00000024 	andeq	r0, r0, r4, lsr #32
    31a0:	11000000 	mrsne	r0, (UNDEF: 0)
    31a4:	00000464 	andeq	r0, r0, r4, ror #8
    31a8:	ae010628 	cfmadd32ge	mvax1, mvfx0, mvfx1, mvfx8
    31ac:	0c000004 	stceq	0, cr0, [r0], {4}
    31b0:	006e6970 	rsbeq	r6, lr, r0, ror r9
    31b4:	2d212801 	stccs	8, cr2, [r1, #-4]!
    31b8:	21000000 	mrscs	r0, (UNDEF: 0)
    31bc:	0000040d 	andeq	r0, r0, sp, lsl #8
    31c0:	c3322801 	teqgt	r2, #65536	; 0x10000
    31c4:	12000000 	andne	r0, r0, #0, 0
    31c8:	0066666f 	rsbeq	r6, r6, pc, ror #12
    31cc:	00002d2d 	andeq	r2, r0, sp, lsr #26
    31d0:	00671200 	rsbeq	r1, r7, r0, lsl #4
    31d4:	00002d2e 	andeq	r2, r0, lr, lsr #26
    31d8:	00761200 	rsbseq	r1, r6, r0, lsl #4
    31dc:	00002d30 	andeq	r2, r0, r0, lsr sp
    31e0:	ed220000 	stc	0, cr0, [r2, #-0]
    31e4:	04000002 	streq	r0, [r0], #-2
    31e8:	006a18b1 	strhteq	r1, [sl], #-129	; 0xffffff7f
    31ec:	ca030000 	bgt	c31f4 <__bss_end__+0xb8d0c>
    31f0:	0c000004 	stceq	0, cr0, [r0], {4}
    31f4:	b1040078 	tstlt	r4, r8, ror r0
    31f8:	00006a2b 	andeq	r6, r0, fp, lsr #20
    31fc:	6f140000 	svcvs	0x00140000
    3200:	40000004 	andmi	r0, r0, r4
    3204:	64000087 	strvs	r0, [r0], #-135	; 0xffffff79
    3208:	01000000 	mrseq	r0, (UNDEF: 0)
    320c:	0005a69c 	muleq	r5, ip, r6
    3210:	047b0200 	ldrbteq	r0, [fp], #-512	; 0xfffffe00
    3214:	03270000 			; <UNDEFINED> instruction: 0x03270000
    3218:	03230000 			; <UNDEFINED> instruction: 0x03230000
    321c:	87020000 	strhi	r0, [r2, -r0]
    3220:	39000004 	stmdbcc	r0, {r2}
    3224:	35000003 	strcc	r0, [r0, #-3]
    3228:	04000003 	streq	r0, [r0], #-3
    322c:	00000493 	muleq	r0, r3, r4
    3230:	00049d04 	andeq	r9, r4, r4, lsl #26
    3234:	04a50400 	strteq	r0, [r5], #1024	; 0x400
    3238:	6f090000 	svcvs	0x00090000
    323c:	48000004 	stmdami	r0, {r2}
    3240:	00000087 	andeq	r0, r0, r7, lsl #1
    3244:	0000000c 	andeq	r0, r0, ip
    3248:	87020628 	strhi	r0, [r2, -r8, lsr #12]
    324c:	4b000004 	blmi	3264 <__code_start__-0x4d9c>
    3250:	47000003 	strmi	r0, [r0, -r3]
    3254:	02000003 	andeq	r0, r0, #3, 0
    3258:	0000047b 	andeq	r0, r0, fp, ror r4
    325c:	0000035d 	andeq	r0, r0, sp, asr r3
    3260:	00000359 	andeq	r0, r0, r9, asr r3
    3264:	00000c0a 	andeq	r0, r0, sl, lsl #24
    3268:	04930500 	ldreq	r0, [r3], #1280	; 0x500
    326c:	036f0000 	cmneq	pc, #0, 0
    3270:	036b0000 	cmneq	fp, #0, 0
    3274:	9d050000 	stcls	0, cr0, [r5, #-0]
    3278:	a8000004 	stmdage	r0, {r2}
    327c:	a2000003 	andge	r0, r0, #3, 0
    3280:	05000003 	streq	r0, [r0, #-3]
    3284:	000004a5 	andeq	r0, r0, r5, lsr #9
    3288:	000003e3 	andeq	r0, r0, r3, ror #7
    328c:	000003dd 	ldrdeq	r0, [r0], -sp
    3290:	00878010 	addeq	r8, r7, r0, lsl r0
    3294:	00011000 	andeq	r1, r1, r0
    3298:	00057000 	andeq	r7, r5, r0
    329c:	50010100 	andpl	r0, r1, r0, lsl #2
    32a0:	00007602 	andeq	r7, r0, r2, lsl #12
    32a4:	0087a007 	addeq	sl, r7, r7
    32a8:	0000f900 	andeq	pc, r0, r0, lsl #18
    32ac:	50010100 	andpl	r0, r1, r0, lsl #2
    32b0:	5001a325 	andpl	sl, r1, r5, lsr #6
    32b4:	26a82da8 	strtcs	r2, [r8], r8, lsr #27
    32b8:	cd0826a4 	stcgt	6, cr2, [r8, #-656]	; 0xfffffd70
    32bc:	00cccccc 	sbceq	ip, ip, ip, asr #25
    32c0:	1e000000 	cdpne	0, 0, cr0, cr0, cr0, {0}
    32c4:	26a82008 	strtcs	r2, [r8], r8
    32c8:	a82da825 	stmdage	sp!, {r0, r2, r5, fp, sp, pc}
    32cc:	23253300 			; <UNDEFINED> instruction: 0x23253300
    32d0:	40a08080 	adcmi	r8, r0, r0, lsl #1
    32d4:	00002432 	andeq	r2, r0, r2, lsr r4
    32d8:	5d140000 	ldcpl	0, cr0, [r4, #-0]
    32dc:	00000003 	andeq	r0, r0, r3
    32e0:	18000088 	stmdane	r0, {r3, r7}
    32e4:	01000000 	mrseq	r0, (UNDEF: 0)
    32e8:	0005e39c 	muleq	r5, ip, r3
    32ec:	03690200 	cmneq	r9, #0, 4
    32f0:	04040000 	streq	r0, [r4], #-0
    32f4:	03fe0000 	mvnseq	r0, #0, 0
    32f8:	14070000 	strne	r0, [r7], #-0
    32fc:	f9000088 			; <UNDEFINED> instruction: 0xf9000088
    3300:	01000000 	mrseq	r0, (UNDEF: 0)
    3304:	0c055001 	stceq	0, cr5, [r5], {1}
    3308:	2020001c 	eorcs	r0, r0, ip, lsl r0
    330c:	05510101 	ldrbeq	r0, [r1, #-257]	; 0xfffffeff
    3310:	5001a331 	andpl	sl, r1, r1, lsr r3
    3314:	23000024 	movwcs	r0, #36	; 0x24
    3318:	00000344 	andeq	r0, r0, r4, asr #6
    331c:	00008818 	andeq	r8, r0, r8, lsl r8
    3320:	00000018 	andeq	r0, r0, r8, lsl r0
    3324:	50029c01 	andpl	r9, r2, r1, lsl #24
    3328:	23000003 	movwcs	r0, #3
    332c:	1d000004 	stcne	0, cr0, [r0, #-16]
    3330:	07000004 	streq	r0, [r0, -r4]
    3334:	0000882c 	andeq	r8, r0, ip, lsr #16
    3338:	000000f9 	strdeq	r0, [r0], -r9
    333c:	05500101 	ldrbeq	r0, [r0, #-257]	; 0xfffffeff
    3340:	2000280c 	andcs	r2, r0, ip, lsl #16
    3344:	51010120 	tstpl	r1, r0, lsr #2
    3348:	01a33105 			; <UNDEFINED> instruction: 0x01a33105
    334c:	00002450 	andeq	r2, r0, r0, asr r4
    3350:	00014000 	andeq	r4, r1, r0
    3354:	d9000400 	stmdble	r0, {sl}
    3358:	04000006 	streq	r0, [r0], #-6
    335c:	00049901 	andeq	r9, r4, r1, lsl #18
    3360:	04890c00 	streq	r0, [r9], #3072	; 0xc00
    3364:	042d0000 	strteq	r0, [sp], #-0
    3368:	88e00000 	stmiahi	r0!, {}^	; <UNPREDICTABLE>
    336c:	00780000 	rsbseq	r0, r8, r0
    3370:	13d10000 	bicsne	r0, r1, #0, 0
    3374:	04020000 	streq	r0, [r2], #-0
    3378:	746e6905 	strbtvc	r6, [lr], #-2309	; 0xfffff6fb
    337c:	04820300 	streq	r0, [r2], #768	; 0x300
    3380:	d1030000 	mrsle	r0, (UNDEF: 3)
    3384:	00003817 	andeq	r3, r0, r7, lsl r8
    3388:	07040400 	streq	r0, [r4, -r0, lsl #8]
    338c:	0000019d 	muleq	r0, sp, r1
    3390:	8f060104 	svchi	0x00060104
    3394:	04000000 	streq	r0, [r0], #-0
    3398:	01d40502 	bicseq	r0, r4, r2, lsl #10
    339c:	04040000 	streq	r0, [r4], #-0
    33a0:	0001bf05 	andeq	fp, r1, r5, lsl #30
    33a4:	05080400 	streq	r0, [r8, #-1024]	; 0xfffffc00
    33a8:	000001ba 			; <UNDEFINED> instruction: 0x000001ba
    33ac:	8d080104 	stfhis	f0, [r8, #-16]
    33b0:	04000000 	streq	r0, [r0], #-0
    33b4:	00a40702 	adceq	r0, r4, r2, lsl #14
    33b8:	04040000 	streq	r0, [r4], #-0
    33bc:	00019807 	andeq	r9, r1, r7, lsl #16
    33c0:	07080400 	streq	r0, [r8, -r0, lsl #8]
    33c4:	00000193 	muleq	r0, r3, r1
    33c8:	00002505 	andeq	r2, r0, r5, lsl #10
    33cc:	00008600 	andeq	r8, r0, r0, lsl #12
    33d0:	00250600 	eoreq	r0, r5, r0, lsl #12
    33d4:	07000000 	streq	r0, [r0, -r0]
    33d8:	000001c8 	andeq	r0, r0, r8, asr #3
    33dc:	920e1c02 	andls	r1, lr, #512	; 0x200
    33e0:	08000000 	stmdaeq	r0, {}	; <UNPREDICTABLE>
    33e4:	00007704 	andeq	r7, r0, r4, lsl #14
    33e8:	00250500 	eoreq	r0, r5, r0, lsl #10
    33ec:	00a70000 	adceq	r0, r7, r0
    33f0:	a7060000 	strge	r0, [r6, -r0]
    33f4:	00000000 	andeq	r0, r0, r0
    33f8:	00b40408 	adcseq	r0, r4, r8, lsl #8
    33fc:	01040000 	mrseq	r0, (UNDEF: 4)
    3400:	00009608 	andeq	r9, r0, r8, lsl #12
    3404:	00ad0900 	adceq	r0, sp, r0, lsl #18
    3408:	97070000 	strls	r0, [r7, -r0]
    340c:	02000005 	andeq	r0, r0, #5, 0
    3410:	00c50e21 	sbceq	r0, r5, r1, lsr #28
    3414:	04080000 	streq	r0, [r8], #-0
    3418:	00000098 	muleq	r0, r8, r0
    341c:	0002400a 	andeq	r4, r2, sl
    3420:	07040100 	streq	r0, [r4, -r0, lsl #2]
    3424:	0000013b 	andeq	r0, r0, fp, lsr r1
    3428:	000088e0 	andeq	r8, r0, r0, ror #17
    342c:	00000078 	andeq	r0, r0, r8, ror r0
    3430:	013b9c01 	teqeq	fp, r1, lsl #24
    3434:	5f0b0000 	svcpl	0x000b0000
    3438:	04010070 	streq	r0, [r1], #-112	; 0xffffff90
    343c:	00013b14 	andeq	r3, r1, r4, lsl fp
    3440:	0c500100 	ldfeqe	f0, [r0], {-0}
    3444:	04010063 	streq	r0, [r1], #-99	; 0xffffff9d
    3448:	0000251c 	andeq	r2, r0, ip, lsl r5
    344c:	0018ac00 	andseq	sl, r8, r0, lsl #24
    3450:	0018a800 	andseq	sl, r8, r0, lsl #16
    3454:	006e0c00 	rsbeq	r0, lr, r0, lsl #24
    3458:	2c260401 	cfstrscs	mvf0, [r6], #-4
    345c:	d1000000 	mrsle	r0, (UNDEF: 0)
    3460:	cd000018 	stcgt	0, cr0, [r0, #-96]	; 0xffffffa0
    3464:	0d000018 	stceq	0, cr0, [r0, #-96]	; 0xffffffa0
    3468:	05010070 	streq	r0, [r1, #-112]	; 0xffffff90
    346c:	00013d0b 	andeq	r3, r1, fp, lsl #26
    3470:	00190000 	andseq	r0, r9, r0
    3474:	0018f200 	andseq	pc, r8, r0, lsl #4
    3478:	00650d00 	rsbeq	r0, r5, r0, lsl #26
    347c:	3d140501 	cfldr32cc	mvfx0, [r4, #-4]
    3480:	5d000001 	stcpl	0, cr0, [r0, #-4]
    3484:	5b000019 	blpl	34f0 <__code_start__-0x4b10>
    3488:	00000019 	andeq	r0, r0, r9, lsl r0
    348c:	0408040e 	streq	r0, [r8], #-1038	; 0xfffffbf2
    3490:	000000ad 	andeq	r0, r0, sp, lsr #1
    3494:	00019d00 	andeq	r9, r1, r0, lsl #26
    3498:	a5000400 	strge	r0, [r0, #-1024]	; 0xfffffc00
    349c:	04000007 	streq	r0, [r0], #-7
    34a0:	00049901 	andeq	r9, r4, r1, lsl #18
    34a4:	05740c00 	ldrbeq	r0, [r4, #-3072]!	; 0xfffff400
    34a8:	042d0000 	strteq	r0, [sp], #-0
    34ac:	89580000 	ldmdbhi	r8, {}^	; <UNPREDICTABLE>
    34b0:	00580000 	subseq	r0, r8, r0
    34b4:	14f60000 	ldrbtne	r0, [r6], #0
    34b8:	60020000 	andvs	r0, r2, r0
    34bc:	02000005 	andeq	r0, r0, #5, 0
    34c0:	00311b28 	eorseq	r1, r1, r8, lsr #22
    34c4:	84030000 	strhi	r0, [r3], #-0
    34c8:	04000005 	streq	r0, [r0], #-5
    34cc:	00480004 	subeq	r0, r8, r4
    34d0:	6f040000 	svcvs	0x00040000
    34d4:	48000005 	stmdami	r0, {r0, r2}
    34d8:	00000000 	andeq	r0, r0, r0
    34dc:	02040500 	andeq	r0, r4, #0, 10
    34e0:	00000586 	andeq	r0, r0, r6, lsl #11
    34e4:	25186302 	ldrcs	r6, [r8, #-770]	; 0xfffffcfe
    34e8:	06000000 	streq	r0, [r0], -r0
    34ec:	6e690504 	cdpvs	5, 6, cr0, cr9, cr4, {0}
    34f0:	04070074 	streq	r0, [r7], #-116	; 0xffffff8c
    34f4:	00019d07 	andeq	r9, r1, r7, lsl #26
    34f8:	06010700 	streq	r0, [r1], -r0, lsl #14
    34fc:	0000008f 	andeq	r0, r0, pc, lsl #1
    3500:	d4050207 	strle	r0, [r5], #-519	; 0xfffffdf9
    3504:	07000001 	streq	r0, [r0, -r1]
    3508:	01bf0504 			; <UNDEFINED> instruction: 0x01bf0504
    350c:	08070000 	stmdaeq	r7, {}	; <UNPREDICTABLE>
    3510:	0001ba05 	andeq	fp, r1, r5, lsl #20
    3514:	08010700 	stmdaeq	r1, {r8, r9, sl}
    3518:	0000008d 	andeq	r0, r0, sp, lsl #1
    351c:	a4070207 	strge	r0, [r7], #-519	; 0xfffffdf9
    3520:	07000000 	streq	r0, [r0, -r0]
    3524:	01980704 	orrseq	r0, r8, r4, lsl #14
    3528:	08070000 	stmdaeq	r7, {}	; <UNPREDICTABLE>
    352c:	00019307 	andeq	r9, r1, r7, lsl #6
    3530:	00560800 	subseq	r0, r6, r0, lsl #16
    3534:	00ab0000 	adceq	r0, fp, r0
    3538:	56090000 	strpl	r0, [r9], -r0
    353c:	00000000 	andeq	r0, r0, r0
    3540:	0001c80a 	andeq	ip, r1, sl, lsl #16
    3544:	0e1c0300 	cdpeq	3, 1, cr0, cr12, cr0, {0}
    3548:	000000b7 	strheq	r0, [r0], -r7
    354c:	009c040b 	addseq	r0, ip, fp, lsl #8
    3550:	56080000 	strpl	r0, [r8], -r0
    3554:	cc000000 	stcgt	0, cr0, [r0], {-0}
    3558:	09000000 	stmdbeq	r0, {}	; <UNPREDICTABLE>
    355c:	000000cc 	andeq	r0, r0, ip, asr #1
    3560:	d9040b00 	stmdble	r4, {r8, r9, fp}
    3564:	07000000 	streq	r0, [r0, -r0]
    3568:	00960801 	addseq	r0, r6, r1, lsl #16
    356c:	d20c0000 	andle	r0, ip, #0, 0
    3570:	0a000000 	beq	3578 <__code_start__-0x4a88>
    3574:	00000597 	muleq	r0, r7, r5
    3578:	ea0e2103 	b	38b98c <__bss_end__+0x3814a4>
    357c:	0b000000 	bleq	3584 <__code_start__-0x4a7c>
    3580:	0000bd04 	andeq	fp, r0, r4, lsl #26
    3584:	05590d00 	ldrbeq	r0, [r9, #-3328]	; 0xfffff300
    3588:	06010000 	streq	r0, [r1], -r0
    358c:	00005605 	andeq	r5, r0, r5, lsl #12
    3590:	00895800 	addeq	r5, r9, r0, lsl #16
    3594:	00005800 	andeq	r5, r0, r0, lsl #16
    3598:	839c0100 	orrshi	r0, ip, #0
    359c:	0e000001 	cdpeq	0, 0, cr0, cr0, cr1, {0}
    35a0:	00746d66 	rsbseq	r6, r4, r6, ror #26
    35a4:	cc180601 	ldcgt	6, cr0, [r8], {1}
    35a8:	02000000 	andeq	r0, r0, #0, 0
    35ac:	100f7091 	mulne	pc, r1, r0	; <UNPREDICTABLE>
    35b0:	00667562 	rsbeq	r7, r6, r2, ror #10
    35b4:	83110801 	tsthi	r1, #65536	; 0x10000
    35b8:	05000001 	streq	r0, [r0, #-1]
    35bc:	00a0e003 	adceq	lr, r0, r3
    35c0:	05511100 	ldrbeq	r1, [r1, #-256]	; 0xffffff00
    35c4:	09010000 	stmdbeq	r1, {}	; <UNPREDICTABLE>
    35c8:	00004a0d 	andeq	r4, r0, sp, lsl #20
    35cc:	5c910200 	lfmpl	f0, 4, [r1], {0}
    35d0:	007a7312 	rsbseq	r7, sl, r2, lsl r3
    35d4:	560d0c01 	strpl	r0, [sp], -r1, lsl #24
    35d8:	76000000 	strvc	r0, [r0], -r0
    35dc:	70000019 	andvc	r0, r0, r9, lsl r0
    35e0:	13000019 	movwne	r0, #25
    35e4:	00008980 	andeq	r8, r0, r0, lsl #19
    35e8:	00000194 	muleq	r0, r4, r1
    35ec:	00000176 	andeq	r0, r0, r6, ror r1
    35f0:	02500114 	subseq	r0, r0, #5
    35f4:	01140075 	tsteq	r4, r5, ror r0
    35f8:	000a0351 	andeq	r0, sl, r1, asr r3
    35fc:	52011404 	andpl	r1, r1, #4, 8	; 0x4000000
    3600:	06489103 	strbeq	r9, [r8], -r3, lsl #2
    3604:	02530114 	subseq	r0, r3, #5
    3608:	15004c91 	strne	r4, [r0, #-3217]	; 0xfffff36f
    360c:	00008994 	muleq	r0, r4, r9
    3610:	02500114 	subseq	r0, r0, #5
    3614:	00000075 	andeq	r0, r0, r5, ror r0
    3618:	0000d216 	andeq	sp, r0, r6, lsl r2
    361c:	00019400 	andeq	r9, r1, r0, lsl #8
    3620:	005d1700 	subseq	r1, sp, r0, lsl #14
    3624:	03ff0000 	mvnseq	r0, #0, 0
    3628:	05561800 	ldrbeq	r1, [r6, #-2048]	; 0xfffff800
    362c:	05560000 	ldrbeq	r0, [r6, #-0]
    3630:	02050000 	andeq	r0, r5, #0, 0
    3634:	00f30005 	rscseq	r0, r3, r5
    3638:	00040000 	andeq	r0, r4, r0
    363c:	000008e7 	andeq	r0, r0, r7, ror #17
    3640:	04990104 	ldreq	r0, [r9], #260	; 0x104
    3644:	9c0c0000 	stcls	0, cr0, [ip], {-0}
    3648:	2d000005 	stccs	0, cr0, [r0, #-20]	; 0xffffffec
    364c:	b0000004 	andlt	r0, r0, r4
    3650:	38000089 	stmdacc	r0, {r0, r3, r7}
    3654:	1a000000 	bne	365c <__code_start__-0x49a4>
    3658:	02000016 	andeq	r0, r0, #22, 0
    365c:	6e690504 	cdpvs	5, 6, cr0, cr9, cr4, {0}
    3660:	04030074 	streq	r0, [r3], #-116	; 0xffffff8c
    3664:	00019d07 	andeq	r9, r1, r7, lsl #26
    3668:	06010300 	streq	r0, [r1], -r0, lsl #6
    366c:	0000008f 	andeq	r0, r0, pc, lsl #1
    3670:	d4050203 	strle	r0, [r5], #-515	; 0xfffffdfd
    3674:	03000001 	movweq	r0, #1
    3678:	01bf0504 			; <UNDEFINED> instruction: 0x01bf0504
    367c:	08030000 	stmdaeq	r3, {}	; <UNPREDICTABLE>
    3680:	0001ba05 	andeq	fp, r1, r5, lsl #20
    3684:	08010300 	stmdaeq	r1, {r8, r9}
    3688:	0000008d 	andeq	r0, r0, sp, lsl #1
    368c:	a4070203 	strge	r0, [r7], #-515	; 0xfffffdfd
    3690:	03000000 	movweq	r0, #0
    3694:	01980704 	orrseq	r0, r8, r4, lsl #14
    3698:	08030000 	stmdaeq	r3, {}	; <UNPREDICTABLE>
    369c:	00019307 	andeq	r9, r1, r7, lsl #6
    36a0:	00250400 	eoreq	r0, r5, r0, lsl #8
    36a4:	007a0000 	rsbseq	r0, sl, r0
    36a8:	25050000 	strcs	r0, [r5, #-0]
    36ac:	00000000 	andeq	r0, r0, r0
    36b0:	0001c806 	andeq	ip, r1, r6, lsl #16
    36b4:	0e1c0200 	cdpeq	2, 1, cr0, cr12, cr0, {0}
    36b8:	00000086 	andeq	r0, r0, r6, lsl #1
    36bc:	006b0407 	rsbeq	r0, fp, r7, lsl #8
    36c0:	25040000 	strcs	r0, [r4, #-0]
    36c4:	9b000000 	blls	36cc <__code_start__-0x4934>
    36c8:	05000000 	streq	r0, [r0, #-0]
    36cc:	0000009b 	muleq	r0, fp, r0
    36d0:	a8040700 	stmdage	r4, {r8, r9, sl}
    36d4:	03000000 	movweq	r0, #0
    36d8:	00960801 	addseq	r0, r6, r1, lsl #16
    36dc:	a1080000 	mrsge	r0, (UNDEF: 8)
    36e0:	06000000 	streq	r0, [r0], -r0
    36e4:	00000597 	muleq	r0, r7, r5
    36e8:	b90e2102 	stmdblt	lr, {r1, r8, sp}
    36ec:	07000000 	streq	r0, [r0, -r0]
    36f0:	00008c04 	andeq	r8, r0, r4, lsl #24
    36f4:	00ad0900 	adceq	r0, sp, r0, lsl #18
    36f8:	0c010000 	stceq	0, cr0, [r1], {-0}
    36fc:	cc030507 	cfstr32gt	mvfx0, [r3], {7}
    3700:	0a0000a0 	beq	3988 <__code_start__-0x4678>
    3704:	0000058e 	andeq	r0, r0, lr, lsl #11
    3708:	25050401 	strcs	r0, [r5, #-1025]	; 0xfffffbff
    370c:	b0000000 	andlt	r0, r0, r0
    3710:	38000089 	stmdacc	r0, {r0, r3, r7}
    3714:	01000000 	mrseq	r0, (UNDEF: 0)
    3718:	00700b9c 			; <UNDEFINED> instruction: 0x00700b9c
    371c:	9b1f0401 	blls	7c4728 <__bss_end__+0x7ba240>
    3720:	a7000000 	strge	r0, [r0, -r0]
    3724:	9f000019 	svcls	0x00000019
    3728:	00000019 	andeq	r0, r0, r9, lsl r0
    372c:	000c7f00 	andeq	r7, ip, r0, lsl #30
    3730:	85000400 	strhi	r0, [r0, #-1024]	; 0xfffffc00
    3734:	04000009 	streq	r0, [r0], #-9
    3738:	00049901 	andeq	r9, r4, r1, lsl #18
    373c:	05bb0c00 	ldreq	r0, [fp, #3072]!	; 0xc00
    3740:	042d0000 	strteq	r0, [sp], #-0
    3744:	89e80000 	stmibhi	r8!, {}^	; <UNPREDICTABLE>
    3748:	09b40000 	ldmibeq	r4!, {}	; <UNPREDICTABLE>
    374c:	16be0000 	ldrtne	r0, [lr], r0
    3750:	08020000 	stmdaeq	r2, {}	; <UNPREDICTABLE>
    3754:	00019307 	andeq	r9, r1, r7, lsl #6
    3758:	07040200 	streq	r0, [r4, -r0, lsl #4]
    375c:	0000019d 	muleq	r0, sp, r1
    3760:	69050403 	stmdbvs	r5, {r0, r1, sl}
    3764:	0200746e 	andeq	r7, r0, #1845493760	; 0x6e000000
    3768:	008f0601 	addeq	r0, pc, r1, lsl #12
    376c:	02020000 	andeq	r0, r2, #0, 0
    3770:	0001d405 	andeq	sp, r1, r5, lsl #8
    3774:	05040200 	streq	r0, [r4, #-512]	; 0xfffffe00
    3778:	000001bf 			; <UNDEFINED> instruction: 0x000001bf
    377c:	ba050802 	blt	14578c <__bss_end__+0x13b2a4>
    3780:	02000001 	andeq	r0, r0, #1, 0
    3784:	008d0801 	addeq	r0, sp, r1, lsl #16
    3788:	02020000 	andeq	r0, r2, #0, 0
    378c:	0000a407 	andeq	sl, r0, r7, lsl #8
    3790:	02640400 	rsbeq	r0, r4, #0, 8
    3794:	34020000 	strcc	r0, [r2], #-0
    3798:	00007019 	andeq	r7, r0, r9, lsl r0
    379c:	07040200 	streq	r0, [r4, -r0, lsl #4]
    37a0:	00000198 	muleq	r0, r8, r1
    37a4:	0005b204 	andeq	fp, r5, r4, lsl #4
    37a8:	19370200 	ldmdbne	r7!, {r9}
    37ac:	00000025 	andeq	r0, r0, r5, lsr #32
    37b0:	00003305 	andeq	r3, r0, r5, lsl #6
    37b4:	00009200 	andeq	r9, r0, r0, lsl #4
    37b8:	00330600 	eorseq	r0, r3, r0, lsl #12
    37bc:	07000000 	streq	r0, [r0, -r0]
    37c0:	000001c8 	andeq	r0, r0, r8, asr #3
    37c4:	9e0e1c03 	cdpls	12, 0, cr1, cr14, cr3, {0}
    37c8:	08000000 	stmdaeq	r0, {}	; <UNPREDICTABLE>
    37cc:	00008304 	andeq	r8, r0, r4, lsl #6
    37d0:	00330500 	eorseq	r0, r3, r0, lsl #10
    37d4:	00b30000 	adcseq	r0, r3, r0
    37d8:	b3060000 	movwlt	r0, #24576	; 0x6000
    37dc:	00000000 	andeq	r0, r0, r0
    37e0:	00c00408 	sbceq	r0, r0, r8, lsl #8
    37e4:	01020000 	mrseq	r0, (UNDEF: 2)
    37e8:	00009608 	andeq	r9, r0, r8, lsl #12
    37ec:	00b90900 	adcseq	r0, r9, r0, lsl #18
    37f0:	97070000 	strls	r0, [r7, -r0]
    37f4:	03000005 	movweq	r0, #5
    37f8:	00d10e21 	sbcseq	r0, r1, r1, lsr #28
    37fc:	04080000 	streq	r0, [r8], #-0
    3800:	000000a4 	andeq	r0, r0, r4, lsr #1
    3804:	0005ce07 	andeq	ip, r5, r7, lsl #28
    3808:	0d0b0400 	cfstrseq	mvf0, [fp, #-0]
    380c:	000000b9 	strheq	r0, [r0], -r9
    3810:	00066807 	andeq	r6, r6, r7, lsl #16
    3814:	0d0c0400 	cfstrseq	mvf0, [ip, #-0]
    3818:	000000b9 	strheq	r0, [r0], -r9
    381c:	0005dd07 	andeq	sp, r5, r7, lsl #26
    3820:	0d0d0400 	cfstrseq	mvf0, [sp, #-0]
    3824:	000000b9 	strheq	r0, [r0], -r9
    3828:	00062007 	andeq	r2, r6, r7
    382c:	0d0e0400 	cfstrseq	mvf0, [lr, #-0]
    3830:	000000b9 	strheq	r0, [r0], -r9
    3834:	00069107 	andeq	r9, r6, r7, lsl #2
    3838:	0d0f0400 	cfstrseq	mvf0, [pc, #-0]	; 3840 <__code_start__-0x47c0>
    383c:	000000b9 	strheq	r0, [r0], -r9
    3840:	00060b07 	andeq	r0, r6, r7, lsl #22
    3844:	0d100400 	cfldrseq	mvf0, [r0, #-0]
    3848:	000000b9 	strheq	r0, [r0], -r9
    384c:	0006a007 	andeq	sl, r6, r7
    3850:	0d110400 	cfldrseq	mvf0, [r1, #-0]
    3854:	000000b9 	strheq	r0, [r0], -r9
    3858:	00062c07 	andeq	r2, r6, r7, lsl #24
    385c:	0d120400 	cfldrseq	mvf0, [r2, #-0]
    3860:	000000b9 	strheq	r0, [r0], -r9
    3864:	00056004 	andeq	r6, r5, r4
    3868:	1b280500 	blne	a04c70 <__bss_end__+0x9fa788>
    386c:	00000143 	andeq	r0, r0, r3, asr #2
    3870:	0005840a 	andeq	r8, r5, sl, lsl #8
    3874:	00060400 	andeq	r0, r6, r0, lsl #8
    3878:	0000015a 	andeq	r0, r0, sl, asr r1
    387c:	00056f0b 	andeq	r6, r5, fp, lsl #30
    3880:	00015a00 	andeq	r5, r1, r0, lsl #20
    3884:	0c000000 	stceq	0, cr0, [r0], {-0}
    3888:	05860404 	streq	r0, [r6, #1028]	; 0x404
    388c:	63050000 	movwvs	r0, #20480	; 0x5000
    3890:	00013718 	andeq	r3, r1, r8, lsl r7
    3894:	05560d00 	ldrbeq	r0, [r6, #-3328]	; 0xfffff300
    3898:	81010000 	mrshi	r0, (UNDEF: 1)
    389c:	00003305 	andeq	r3, r0, r5, lsl #6
    38a0:	008d7000 	addeq	r7, sp, r0
    38a4:	00062c00 	andeq	r2, r6, r0, lsl #24
    38a8:	6a9c0100 	bvs	fe703cb0 <__bss_end__+0xfe6f97c8>
    38ac:	0e000008 	cdpeq	0, 0, cr0, cr0, cr8, {0}
    38b0:	00667562 	rsbeq	r7, r6, r2, ror #10
    38b4:	6a158101 	bvs	563cc0 <__bss_end__+0x5597d8>
    38b8:	e7000008 	str	r0, [r0, -r8]
    38bc:	dd000019 	stcle	0, cr0, [r0, #-100]	; 0xffffff9c
    38c0:	0e000019 	mcreq	0, 0, r0, cr0, cr9, {0}
    38c4:	8101006e 	tsthi	r1, lr, rrx
    38c8:	0000331e 	andeq	r3, r0, lr, lsl r3
    38cc:	001a3400 	andseq	r3, sl, r0, lsl #8
    38d0:	001a2c00 	andseq	r2, sl, r0, lsl #24
    38d4:	6d660e00 	stclvs	14, cr0, [r6, #-0]
    38d8:	81010074 	tsthi	r1, r4, ror r0
    38dc:	0000b32d 	andeq	fp, r0, sp, lsr #6
    38e0:	001a8600 	andseq	r8, sl, r0, lsl #12
    38e4:	001a6e00 	andseq	r6, sl, r0, lsl #28
    38e8:	05510f00 	ldrbeq	r0, [r1, #-3840]	; 0xfffff100
    38ec:	81010000 	mrshi	r0, (UNDEF: 1)
    38f0:	00015c3a 	andeq	r5, r1, sl, lsr ip
    38f4:	001b4a00 	andseq	r4, fp, r0, lsl #20
    38f8:	001b1a00 	andseq	r1, fp, r0, lsl #20
    38fc:	00701000 	rsbseq	r1, r0, r0
    3900:	6a088201 	bvs	22410c <__bss_end__+0x219c24>
    3904:	a8000008 	stmdage	r0, {r3}
    3908:	9200001c 	andls	r0, r0, #28, 0
    390c:	1000001c 	andne	r0, r0, ip, lsl r0
    3910:	82010065 	andhi	r0, r1, #101, 0	; 0x65
    3914:	00086a12 	andeq	r6, r8, r2, lsl sl
    3918:	001d3100 	andseq	r3, sp, r0, lsl #2
    391c:	001d2f00 	andseq	r2, sp, r0, lsl #30
    3920:	30781000 	rsbscc	r1, r8, r0
    3924:	0e830100 	rmfeqs	f0, f3, f0
    3928:	00000064 	andeq	r0, r0, r4, rrx
    392c:	00001d4a 	andeq	r1, r0, sl, asr #26
    3930:	00001d44 	andeq	r1, r0, r4, asr #26
    3934:	00317810 	eorseq	r7, r1, r0, lsl r8
    3938:	64118301 	ldrvs	r8, [r1], #-769	; 0xfffffcff
    393c:	79000000 	stmdbvc	r0, {}	; <UNPREDICTABLE>
    3940:	7300001d 	movwvc	r0, #29
    3944:	1100001d 	tstne	r0, sp, lsl r0
    3948:	0000064a 	andeq	r0, r0, sl, asr #12
    394c:	b3118601 	tstlt	r1, #1048576	; 0x100000
    3950:	aa000000 	bge	3958 <__code_start__-0x46a8>
    3954:	a200001d 	andge	r0, r0, #29, 0
    3958:	1200001d 	andne	r0, r0, #29, 0
    395c:	000005f1 	strdeq	r0, [r0], -r1
    3960:	00000880 	andeq	r0, r0, r0, lsl #17
    3964:	9eb80305 	cdpls	3, 11, cr0, cr8, cr5, {0}
    3968:	e8130000 	ldmda	r3, {}	; <UNPREDICTABLE>
    396c:	10000010 	andne	r0, r0, r0, lsl r0
    3970:	91010073 	tstls	r1, r3, ror r0
    3974:	00086a0a 	andeq	r6, r8, sl, lsl #20
    3978:	001df000 	andseq	pc, sp, r0
    397c:	001de400 	andseq	lr, sp, r0, lsl #8
    3980:	756e1400 	strbvc	r1, [lr, #-1024]!	; 0xfffffc00
    3984:	9101006d 	tstls	r1, sp, rrx
    3988:	0008850d 	andeq	r8, r8, sp, lsl #10
    398c:	d8910300 	ldmle	r1, {r8, r9}
    3990:	06ad157d 			; <UNDEFINED> instruction: 0x06ad157d
    3994:	91010000 	mrsls	r0, (UNDEF: 1)
    3998:	00088517 	andeq	r8, r8, r7, lsl r5
    399c:	d8910300 	ldmle	r1, {r8, r9}
    39a0:	05eb117e 	strbeq	r1, [fp, #382]!	; 0x17e
    39a4:	92010000 	andls	r0, r1, #0, 0
    39a8:	00002c0d 	andeq	r2, r0, sp, lsl #24
    39ac:	001e4200 	andseq	r4, lr, r0, lsl #4
    39b0:	001e3a00 	andseq	r3, lr, r0, lsl #20
    39b4:	11101600 	tstne	r0, r0, lsl #12
    39b8:	04f10000 	ldrbteq	r0, [r1], #0
    39bc:	74100000 	ldrvc	r0, [r0], #-0
    39c0:	9e010079 	mcrls	0, 0, r0, cr1, cr9, {3}
    39c4:	0000b31d 	andeq	fp, r0, sp, lsl r3
    39c8:	001e8300 	andseq	r8, lr, r0, lsl #6
    39cc:	001e7700 	andseq	r7, lr, r0, lsl #14
    39d0:	78781400 	ldmdavc	r8!, {sl, ip}^
    39d4:	1aa20100 	bne	fe883ddc <__bss_end__+0xfe8798f4>
    39d8:	00000077 	andeq	r0, r0, r7, ror r0
    39dc:	04935906 	ldreq	r5, [r3], #2310	; 0x906
    39e0:	1704935b 	smlsdne	r4, fp, r3, r9
    39e4:	00008efc 	strdeq	r8, [r0], -ip
    39e8:	00000c3a 	andeq	r0, r0, sl, lsr ip
    39ec:	000002d8 	ldrdeq	r0, [r0], -r8
    39f0:	02500118 	subseq	r0, r0, #6
    39f4:	01180076 	tsteq	r8, r6, ror r0
    39f8:	ac030551 	cfstr32ge	mvfx0, [r3], {81}	; 0x51
    39fc:	1800009d 	stmdane	r0, {r0, r2, r3, r4, r7}
    3a00:	33015201 	movwcc	r5, #4609	; 0x1201
    3a04:	8f141700 	svchi	0x00141700
    3a08:	0c3a0000 	ldceq	0, cr0, [sl], #-0
    3a0c:	02fa0000 	rscseq	r0, sl, #0, 0
    3a10:	01180000 	tsteq	r8, r0
    3a14:	00760250 	rsbseq	r0, r6, r0, asr r2
    3a18:	05510118 	ldrbeq	r0, [r1, #-280]	; 0xfffffee8
    3a1c:	009dc003 	addseq	ip, sp, r3
    3a20:	52011800 	andpl	r1, r1, #0, 16
    3a24:	17003301 	strne	r3, [r0, -r1, lsl #6]
    3a28:	00008f38 	andeq	r8, r0, r8, lsr pc
    3a2c:	00000c46 	andeq	r0, r0, r6, asr #24
    3a30:	00000317 	andeq	r0, r0, r7, lsl r3
    3a34:	05500118 	ldrbeq	r0, [r0, #-280]	; 0xfffffee8
    3a38:	009db003 	addseq	fp, sp, r3
    3a3c:	51011800 	tstpl	r1, r0, lsl #16
    3a40:	00007b02 	andeq	r7, r0, r2, lsl #22
    3a44:	008f4417 	addeq	r4, pc, r7, lsl r4	; <UNPREDICTABLE>
    3a48:	000c4600 	andeq	r4, ip, r0, lsl #12
    3a4c:	00033400 	andeq	r3, r3, r0, lsl #8
    3a50:	50011800 	andpl	r1, r1, r0, lsl #16
    3a54:	9db80305 	ldcls	3, cr0, [r8, #20]!
    3a58:	01180000 	tsteq	r8, r0
    3a5c:	00790251 	rsbseq	r0, r9, r1, asr r2
    3a60:	8f541700 	svchi	0x00541700
    3a64:	0c3a0000 	ldceq	0, cr0, [sl], #-0
    3a68:	03560000 	cmpeq	r6, #0, 0
    3a6c:	01180000 	tsteq	r8, r0
    3a70:	00760250 	rsbseq	r0, r6, r0, asr r2
    3a74:	05510118 	ldrbeq	r0, [r1, #-280]	; 0xfffffee8
    3a78:	009dac03 	addseq	sl, sp, r3, lsl #24
    3a7c:	52011800 	andpl	r1, r1, #0, 16
    3a80:	17003301 	strne	r3, [r0, -r1, lsl #6]
    3a84:	00008f84 	andeq	r8, r0, r4, lsl #31
    3a88:	00000aa4 	andeq	r0, r0, r4, lsr #21
    3a8c:	00000383 	andeq	r0, r0, r3, lsl #7
    3a90:	01500118 	cmpeq	r0, r8, lsl r1
    3a94:	51011840 	tstpl	r1, r0, asr #16
    3a98:	7dd09103 	ldfvcp	f1, [r0, #12]
    3a9c:	02520118 	subseq	r0, r2, #6
    3aa0:	0118007b 	tsteq	r8, fp, ror r0
    3aa4:	00750253 	rsbseq	r0, r5, r3, asr r2
    3aa8:	007d0218 	rsbseq	r0, sp, r8, lsl r2
    3aac:	00007602 	andeq	r7, r0, r2, lsl #12
    3ab0:	008fa417 	addeq	sl, pc, r7, lsl r4	; <UNPREDICTABLE>
    3ab4:	000aa400 	andeq	sl, sl, r0, lsl #8
    3ab8:	0003aa00 	andeq	sl, r3, r0, lsl #20
    3abc:	50011800 	andpl	r1, r1, r0, lsl #16
    3ac0:	01184001 	tsteq	r8, r1
    3ac4:	d0910351 	addsle	r0, r1, r1, asr r3
    3ac8:	5201187e 	andpl	r1, r1, #8257536	; 0x7e0000
    3acc:	18007902 	stmdane	r0, {r1, r8, fp, ip, sp, lr}
    3ad0:	02007d02 	andeq	r7, r0, #128	; 0x80
    3ad4:	17000076 	smlsdxne	r0, r6, r0, r0
    3ad8:	00008fb4 			; <UNDEFINED> instruction: 0x00008fb4
    3adc:	00000c52 	andeq	r0, r0, r2, asr ip
    3ae0:	000003c6 	andeq	r0, r0, r6, asr #7
    3ae4:	03500118 	cmpeq	r0, #6
    3ae8:	187dd091 	ldmdane	sp!, {r0, r4, r7, ip, lr, pc}^
    3aec:	91035101 	tstls	r3, r1, lsl #2
    3af0:	17007ed2 			; <UNDEFINED> instruction: 0x17007ed2
    3af4:	000091f8 	strdeq	r9, [r0], -r8
    3af8:	00000c3a 	andeq	r0, r0, sl, lsr ip
    3afc:	000003e8 	andeq	r0, r0, r8, ror #7
    3b00:	02500118 	subseq	r0, r0, #6
    3b04:	01180076 	tsteq	r8, r6, ror r0
    3b08:	c0030551 	andgt	r0, r3, r1, asr r5
    3b0c:	1800009d 	stmdane	r0, {r0, r2, r3, r4, r7}
    3b10:	33015201 	movwcc	r5, #4609	; 0x1201
    3b14:	921c1700 	andsls	r1, ip, #0, 14
    3b18:	0aa40000 	beq	fe903b20 <__bss_end__+0xfe8f9638>
    3b1c:	04150000 	ldreq	r0, [r5], #-0
    3b20:	01180000 	tsteq	r8, r0
    3b24:	183a0150 	ldmdane	sl!, {r4, r6, r8}
    3b28:	91035101 	tstls	r3, r1, lsl #2
    3b2c:	01187dd0 			; <UNDEFINED> instruction: 0x01187dd0
    3b30:	007b0252 	rsbseq	r0, fp, r2, asr r2
    3b34:	02530118 	subseq	r0, r3, #6
    3b38:	02180075 	andseq	r0, r8, #117, 0	; 0x75
    3b3c:	7602007d 			; <UNDEFINED> instruction: 0x7602007d
    3b40:	3c170000 	ldccc	0, cr0, [r7], {-0}
    3b44:	a4000092 	strge	r0, [r0], #-146	; 0xffffff6e
    3b48:	3c00000a 	stccc	0, cr0, [r0], {10}
    3b4c:	18000004 	stmdane	r0, {r2}
    3b50:	3a015001 	bcc	57b5c <__bss_end__+0x4d674>
    3b54:	03510118 	cmpeq	r1, #6
    3b58:	187ed091 	ldmdane	lr!, {r0, r4, r7, ip, lr, pc}^
    3b5c:	79025201 	stmdbvc	r2, {r0, r9, ip, lr}
    3b60:	7d021800 	stcvc	8, cr1, [r2, #-0]
    3b64:	00760200 	rsbseq	r0, r6, r0, lsl #4
    3b68:	92481700 	subls	r1, r8, #0, 14
    3b6c:	0c5e0000 	mraeq	r0, lr, acc0
    3b70:	045a0000 	ldrbeq	r0, [sl], #-0
    3b74:	01180000 	tsteq	r8, r0
    3b78:	d0910350 	addsle	r0, r1, r0, asr r3
    3b7c:	5101187d 	tstpl	r1, sp, ror r8
    3b80:	9d700305 	ldclls	3, cr0, [r0, #-20]!	; 0xffffffec
    3b84:	17000000 	strne	r0, [r0, -r0]
    3b88:	0000925c 	andeq	r9, r0, ip, asr r2
    3b8c:	00000c6a 	andeq	r0, r0, sl, ror #24
    3b90:	00000476 	andeq	r0, r0, r6, ror r4
    3b94:	03500118 	cmpeq	r0, #6
    3b98:	187dd091 	ldmdane	sp!, {r0, r4, r7, ip, lr, pc}^
    3b9c:	91035101 	tstls	r3, r1, lsl #2
    3ba0:	19007ed0 	stmdbne	r0, {r4, r6, r7, r9, sl, fp, ip, sp, lr}
    3ba4:	00009268 	andeq	r9, r0, r8, ror #4
    3ba8:	00000c52 	andeq	r0, r0, r2, asr ip
    3bac:	00932c17 	addseq	r2, r3, r7, lsl ip
    3bb0:	000c4600 	andeq	r4, ip, r0, lsl #12
    3bb4:	0004a800 	andeq	sl, r4, r0, lsl #16
    3bb8:	50011800 	andpl	r1, r1, r0, lsl #16
    3bbc:	9d5c0305 	ldclls	3, cr0, [ip, #-20]	; 0xffffffec
    3bc0:	01180000 	tsteq	r8, r0
    3bc4:	48030551 	stmdami	r3, {r0, r4, r6, r8, sl}
    3bc8:	1800009d 	stmdane	r0, {r0, r2, r3, r4, r7}
    3bcc:	03055201 	movweq	r5, #20993	; 0x5201
    3bd0:	00009eb8 			; <UNDEFINED> instruction: 0x00009eb8
    3bd4:	93301900 	teqls	r0, #0, 18
    3bd8:	0c760000 	ldcleq	0, cr0, [r6], #-0
    3bdc:	48170000 	ldmdami	r7, {}	; <UNPREDICTABLE>
    3be0:	46000093 			; <UNDEFINED> instruction: 0x46000093
    3be4:	e700000c 	str	r0, [r0, -ip]
    3be8:	18000004 	stmdane	r0, {r2}
    3bec:	03055001 	movweq	r5, #20481	; 0x5001
    3bf0:	00009e00 	andeq	r9, r0, r0, lsl #28
    3bf4:	05510118 	ldrbeq	r0, [r1, #-280]	; 0xfffffee8
    3bf8:	009d4803 	addseq	r4, sp, r3, lsl #16
    3bfc:	52011800 	andpl	r1, r1, #0, 16
    3c00:	9eb80305 	cdpls	3, 11, cr0, cr8, cr5, {0}
    3c04:	01180000 	tsteq	r8, r0
    3c08:	b6080253 			; <UNDEFINED> instruction: 0xb6080253
    3c0c:	007d0218 	rsbseq	r0, sp, r8, lsl r2
    3c10:	00007602 	andeq	r7, r0, r2, lsl #12
    3c14:	00934c19 	addseq	r4, r3, r9, lsl ip
    3c18:	000c7600 	andeq	r7, ip, r0, lsl #12
    3c1c:	e31a0000 	tst	sl, #0, 0
    3c20:	fc000009 	stc2	0, cr0, [r0], {9}
    3c24:	0400008d 	streq	r0, [r0], #-141	; 0xffffff73
    3c28:	00113800 	andseq	r3, r1, r0, lsl #16
    3c2c:	0a940100 	beq	fe504034 <__bss_end__+0xfe4f9b4c>
    3c30:	00000515 	andeq	r0, r0, r5, lsl r5
    3c34:	0009f41b 	andeq	pc, r9, fp, lsl r4	; <UNPREDICTABLE>
    3c38:	001edf00 	andseq	sp, lr, r0, lsl #30
    3c3c:	001edb00 	andseq	sp, lr, r0, lsl #22
    3c40:	951a0000 	ldrls	r0, [sl, #-0]
    3c44:	e4000008 	str	r0, [r0], #-8
    3c48:	0100008f 	smlabbeq	r0, pc, r0, r0	; <UNPREDICTABLE>
    3c4c:	00115800 	andseq	r5, r1, r0, lsl #16
    3c50:	09dc0100 	ldmibeq	ip, {r8}^
    3c54:	0000064b 	andeq	r0, r0, fp, asr #12
    3c58:	0008be1b 	andeq	fp, r8, fp, lsl lr
    3c5c:	001f0d00 	andseq	r0, pc, r0, lsl #26
    3c60:	001f0700 	andseq	r0, pc, r0, lsl #14
    3c64:	08e01b00 	stmiaeq	r0!, {r8, r9, fp, ip}^
    3c68:	1f420000 	svcne	0x00420000
    3c6c:	1f3c0000 	svcne	0x003c0000
    3c70:	d41b0000 	ldrle	r0, [fp], #-0
    3c74:	74000008 	strvc	r0, [r0], #-8
    3c78:	6e00001f 	mcrvs	0, 0, r0, cr0, cr15, {0}
    3c7c:	1c00001f 	stcne	0, cr0, [r0], {31}
    3c80:	000008c8 	andeq	r0, r0, r8, asr #17
    3c84:	0008b21b 	andeq	fp, r8, fp, lsl r2
    3c88:	001fa500 	andseq	sl, pc, r0, lsl #10
    3c8c:	001f9d00 	andseq	r9, pc, r0, lsl #26
    3c90:	08a61b00 	stmiaeq	r6!, {r8, r9, fp, ip}
    3c94:	1fe80000 	svcne	0x00e80000
    3c98:	1fe20000 	svcne	0x00e20000
    3c9c:	58130000 	ldmdapl	r3, {}	; <UNPREDICTABLE>
    3ca0:	1d000011 	stcne	0, cr0, [r0, #-68]	; 0xffffffbc
    3ca4:	000008ec 	andeq	r0, r0, ip, ror #17
    3ca8:	7ed89103 	atnvce	f1, f3
    3cac:	0008f81e 	andeq	pc, r8, lr, lsl r8	; <UNPREDICTABLE>
    3cb0:	00202200 	eoreq	r2, r0, r0, lsl #4
    3cb4:	00201400 	eoreq	r1, r0, r0, lsl #8
    3cb8:	09021f00 	stmdbeq	r2, {r8, r9, sl, fp, ip}
    3cbc:	a31a0000 	tstge	sl, #0, 0
    3cc0:	f0000009 			; <UNDEFINED> instruction: 0xf0000009
    3cc4:	0400008f 	streq	r0, [r0], #-143	; 0xffffff71
    3cc8:	00118800 	andseq	r8, r1, r0, lsl #16
    3ccc:	097c0100 	ldmdbeq	ip!, {r8}^
    3cd0:	000005e2 	andeq	r0, r0, r2, ror #11
    3cd4:	0009ca1b 	andeq	ip, r9, fp, lsl sl
    3cd8:	00208c00 	eoreq	r8, r0, r0, lsl #24
    3cdc:	00208600 	eoreq	r8, r0, r0, lsl #12
    3ce0:	09be1b00 	ldmibeq	lr!, {r8, r9, fp, ip}
    3ce4:	20c10000 	sbccs	r0, r1, r0
    3ce8:	20b50000 	adcscs	r0, r5, r0
    3cec:	b41b0000 	ldrlt	r0, [fp], #-0
    3cf0:	27000009 	strcs	r0, [r0, -r9]
    3cf4:	17000021 	strne	r0, [r0, -r1, lsr #32]
    3cf8:	13000021 	movwne	r0, #33	; 0x21
    3cfc:	00001188 	andeq	r1, r0, r8, lsl #3
    3d00:	0009d61e 	andeq	sp, r9, lr, lsl r6
    3d04:	0021a400 	eoreq	sl, r1, r0, lsl #8
    3d08:	00219600 	eoreq	r9, r1, r0, lsl #12
    3d0c:	20000000 	andcs	r0, r0, r0
    3d10:	0000094f 	andeq	r0, r0, pc, asr #18
    3d14:	000090b8 	strheq	r9, [r0], -r8
    3d18:	11b80002 			; <UNDEFINED> instruction: 0x11b80002
    3d1c:	7c010000 	stcvc	0, cr0, [r1], {-0}
    3d20:	09801b09 	stmibeq	r0, {r0, r3, r8, r9, fp, ip}
    3d24:	22040000 	andcs	r0, r4, #0, 0
    3d28:	21fe0000 	mvnscs	r0, r0
    3d2c:	761b0000 	ldrvc	r0, [fp], -r0
    3d30:	3a000009 	bcc	3d5c <__code_start__-0x42a4>
    3d34:	30000022 	andcc	r0, r0, r2, lsr #32
    3d38:	1b000022 	blne	3dc8 <__code_start__-0x4238>
    3d3c:	0000096c 	andeq	r0, r0, ip, ror #18
    3d40:	00002289 	andeq	r2, r0, r9, lsl #5
    3d44:	00002285 	andeq	r2, r0, r5, lsl #5
    3d48:	0009601b 	andeq	r6, r9, fp, lsl r0
    3d4c:	0022b900 	eoreq	fp, r2, r0, lsl #18
    3d50:	0022ab00 	eoreq	sl, r2, r0, lsl #22
    3d54:	11b81300 			; <UNDEFINED> instruction: 0x11b81300
    3d58:	8c1e0000 	ldchi	0, cr0, [lr], {-0}
    3d5c:	1e000009 	cdpne	0, 0, cr0, cr0, cr9, {0}
    3d60:	1c000023 	stcne	0, cr0, [r0], {35}	; 0x23
    3d64:	1e000023 	cdpne	0, 0, cr0, cr0, cr3, {1}
    3d68:	00000998 	muleq	r0, r8, r9
    3d6c:	00002338 	andeq	r2, r0, r8, lsr r3
    3d70:	00002332 	andeq	r2, r0, r2, lsr r3
    3d74:	00000000 	andeq	r0, r0, r0
    3d78:	0008951a 	andeq	r9, r8, sl, lsl r5
    3d7c:	0090f400 	addseq	pc, r0, r0, lsl #8
    3d80:	e8000000 	stmda	r0, {}	; <UNPREDICTABLE>
    3d84:	01000011 	tsteq	r0, r1, lsl r0
    3d88:	078909d6 			; <UNDEFINED> instruction: 0x078909d6
    3d8c:	be1b0000 	cdplt	0, 1, cr0, cr11, cr0, {0}
    3d90:	6b000008 	blvs	3db8 <__code_start__-0x4248>
    3d94:	67000023 	strvs	r0, [r0, -r3, lsr #32]
    3d98:	1b000023 	blne	3e2c <__code_start__-0x41d4>
    3d9c:	000008e0 	andeq	r0, r0, r0, ror #17
    3da0:	00002391 	muleq	r0, r1, r3
    3da4:	0000238d 	andeq	r2, r0, sp, lsl #7
    3da8:	0008d41b 	andeq	sp, r8, fp, lsl r4
    3dac:	0023b500 	eoreq	fp, r3, r0, lsl #10
    3db0:	0023b100 	eoreq	fp, r3, r0, lsl #2
    3db4:	08c81c00 	stmiaeq	r8, {sl, fp, ip}^
    3db8:	b21b0000 	andslt	r0, fp, #0, 0
    3dbc:	d9000008 	stmdble	r0, {r3}
    3dc0:	d3000023 	movwle	r0, #35	; 0x23
    3dc4:	1b000023 	blne	3e58 <__code_start__-0x41a8>
    3dc8:	000008a6 	andeq	r0, r0, r6, lsr #17
    3dcc:	0000240c 	andeq	r2, r0, ip, lsl #8
    3dd0:	00002408 	andeq	r2, r0, r8, lsl #8
    3dd4:	0011e813 	andseq	lr, r1, r3, lsl r8
    3dd8:	08ec1d00 	stmiaeq	ip!, {r8, sl, fp, ip}^
    3ddc:	91030000 	mrsls	r0, (UNDEF: 3)
    3de0:	f81e7ed8 			; <UNDEFINED> instruction: 0xf81e7ed8
    3de4:	36000008 	strcc	r0, [r0], -r8
    3de8:	2c000024 	stccs	0, cr0, [r0], {36}	; 0x24
    3dec:	1e000024 	cdpne	0, 0, cr0, cr0, cr4, {1}
    3df0:	00000902 	andeq	r0, r0, r2, lsl #18
    3df4:	0000247b 	andeq	r2, r0, fp, ror r4
    3df8:	00002477 	andeq	r2, r0, r7, ror r4
    3dfc:	0009a31a 	andeq	sl, r9, sl, lsl r3
    3e00:	00911000 	addseq	r1, r1, r0
    3e04:	08000300 	stmdaeq	r0, {r8, r9}
    3e08:	01000012 	tsteq	r0, r2, lsl r0
    3e0c:	0720097c 			; <UNDEFINED> instruction: 0x0720097c
    3e10:	ca1b0000 	bgt	6c3e18 <__bss_end__+0x6b9930>
    3e14:	9d000009 	stcls	0, cr0, [r0, #-36]	; 0xffffffdc
    3e18:	99000024 	stmdbls	r0, {r2, r5}
    3e1c:	1b000024 	blne	3eb4 <__code_start__-0x414c>
    3e20:	000009be 			; <UNDEFINED> instruction: 0x000009be
    3e24:	000024bf 			; <UNDEFINED> instruction: 0x000024bf
    3e28:	000024bb 			; <UNDEFINED> instruction: 0x000024bb
    3e2c:	0009b41b 	andeq	fp, r9, fp, lsl r4
    3e30:	0024e900 	eoreq	lr, r4, r0, lsl #18
    3e34:	0024dd00 	eoreq	sp, r4, r0, lsl #26
    3e38:	12081300 	andne	r1, r8, #0, 6
    3e3c:	d61e0000 	ldrle	r0, [lr], -r0
    3e40:	45000009 	strmi	r0, [r0, #-9]
    3e44:	39000025 	stmdbcc	r0, {r0, r2, r5}
    3e48:	00000025 	andeq	r0, r0, r5, lsr #32
    3e4c:	094f2000 	stmdbeq	pc, {sp}^	; <UNPREDICTABLE>
    3e50:	91980000 	orrsls	r0, r8, r0
    3e54:	00020000 	andeq	r0, r2, r0
    3e58:	00001230 	andeq	r1, r0, r0, lsr r2
    3e5c:	1b097c01 	blne	262e68 <__bss_end__+0x258980>
    3e60:	00000980 	andeq	r0, r0, r0, lsl #19
    3e64:	00002595 	muleq	r0, r5, r5
    3e68:	00002591 	muleq	r0, r1, r5
    3e6c:	0009761b 	andeq	r7, r9, fp, lsl r6
    3e70:	0025bd00 	eoreq	fp, r5, r0, lsl #26
    3e74:	0025b300 	eoreq	fp, r5, r0, lsl #6
    3e78:	096c1b00 	stmdbeq	ip!, {r8, r9, fp, ip}^
    3e7c:	26090000 	strcs	r0, [r9], -r0
    3e80:	26050000 	strcs	r0, [r5], -r0
    3e84:	601b0000 	andsvs	r0, fp, r0
    3e88:	37000009 	strcc	r0, [r0, -r9]
    3e8c:	2b000026 	blcs	3f2c <__code_start__-0x40d4>
    3e90:	13000026 	movwne	r0, #38	; 0x26
    3e94:	00001230 	andeq	r1, r0, r0, lsr r2
    3e98:	00098c1e 	andeq	r8, r9, lr, lsl ip
    3e9c:	00269100 	eoreq	r9, r6, r0, lsl #2
    3ea0:	00268d00 	eoreq	r8, r6, r0, lsl #26
    3ea4:	09981e00 	ldmibeq	r8, {r9, sl, fp, ip}
    3ea8:	26b70000 	ldrtcs	r0, [r7], r0
    3eac:	26b30000 	ldrtcs	r0, [r3], r0
    3eb0:	00000000 	andeq	r0, r0, r0
    3eb4:	c4170000 	ldrgt	r0, [r7], #-0
    3eb8:	a400008e 	strge	r0, [r0], #-142	; 0xffffff72
    3ebc:	af00000a 	svcge	0x0000000a
    3ec0:	18000007 	stmdane	r0, {r0, r1, r2}
    3ec4:	40015001 	andmi	r5, r1, r1
    3ec8:	03510118 	cmpeq	r1, #6
    3ecc:	187dd091 	ldmdane	sp!, {r0, r4, r7, ip, lr, pc}^
    3ed0:	75025301 	strvc	r5, [r2, #-769]	; 0xfffffcff
    3ed4:	7d021800 	stcvc	8, cr1, [r2, #-0]
    3ed8:	00300100 	eorseq	r0, r0, r0, lsl #2
    3edc:	008fd417 	addeq	sp, pc, r7, lsl r4	; <UNPREDICTABLE>
    3ee0:	000aa400 	andeq	sl, sl, r0, lsl #8
    3ee4:	0007cf00 	andeq	ip, r7, r0, lsl #30
    3ee8:	50011800 	andpl	r1, r1, r0, lsl #16
    3eec:	01183a01 	tsteq	r8, r1, lsl #20
    3ef0:	d0910351 	addsle	r0, r1, r1, asr r3
    3ef4:	5301187d 	movwpl	r1, #6269	; 0x187d
    3ef8:	00007502 	andeq	r7, r0, r2, lsl #10
    3efc:	0092b817 	addseq	fp, r2, r7, lsl r8
    3f00:	000c4600 	andeq	r4, ip, r0, lsl #12
    3f04:	0007e600 	andeq	lr, r7, r0, lsl #12
    3f08:	50011800 	andpl	r1, r1, r0, lsl #16
    3f0c:	9e500305 	cdpls	3, 5, cr0, cr0, cr5, {0}
    3f10:	21000000 	mrscs	r0, (UNDEF: 0)
    3f14:	000092c8 	andeq	r9, r0, r8, asr #5
    3f18:	000007f8 	strdeq	r0, [r0], -r8
    3f1c:	04500118 	ldrbeq	r0, [r0], #-280	; 0xfffffee8
    3f20:	067dc891 			; <UNDEFINED> instruction: 0x067dc891
    3f24:	92dc1700 	sbcsls	r1, ip, #0, 14
    3f28:	0c460000 	mareq	acc0, r0, r6
    3f2c:	08270000 	stmdaeq	r7!, {}	; <UNPREDICTABLE>
    3f30:	01180000 	tsteq	r8, r0
    3f34:	80030550 	andhi	r0, r3, r0, asr r5
    3f38:	1800009e 	stmdane	r0, {r1, r2, r3, r4, r7}
    3f3c:	03055101 	movweq	r5, #20737	; 0x5101
    3f40:	00009d48 	andeq	r9, r0, r8, asr #26
    3f44:	05520118 	ldrbeq	r0, [r2, #-280]	; 0xfffffee8
    3f48:	009eb803 	addseq	fp, lr, r3, lsl #16
    3f4c:	53011800 	movwpl	r1, #6144	; 0x1800
    3f50:	00e20802 	rsceq	r0, r2, r2, lsl #16
    3f54:	0092e019 	addseq	lr, r2, r9, lsl r0
    3f58:	000c7600 	andeq	r7, ip, r0, lsl #12
    3f5c:	92f41700 	rscsls	r1, r4, #0, 14
    3f60:	0c460000 	mareq	acc0, r0, r6
    3f64:	085f0000 	ldmdaeq	pc, {}^	; <UNPREDICTABLE>
    3f68:	01180000 	tsteq	r8, r0
    3f6c:	28030550 	stmdacs	r3, {r4, r6, r8, sl}
    3f70:	1800009e 	stmdane	r0, {r1, r2, r3, r4, r7}
    3f74:	03055101 	movweq	r5, #20737	; 0x5101
    3f78:	00009d48 	andeq	r9, r0, r8, asr #26
    3f7c:	05520118 	ldrbeq	r0, [r2, #-280]	; 0xfffffee8
    3f80:	009eb803 	addseq	fp, lr, r3, lsl #16
    3f84:	53011800 	movwpl	r1, #6144	; 0x1800
    3f88:	00be0802 	adcseq	r0, lr, r2, lsl #16
    3f8c:	0092f819 	addseq	pc, r2, r9, lsl r8	; <UNPREDICTABLE>
    3f90:	000c7600 	andeq	r7, ip, r0, lsl #12
    3f94:	08000000 	stmdaeq	r0, {}	; <UNPREDICTABLE>
    3f98:	0000b904 	andeq	fp, r0, r4, lsl #18
    3f9c:	00c02200 	sbceq	r2, r0, r0, lsl #4
    3fa0:	08800000 	stmeq	r0, {}	; <UNPREDICTABLE>
    3fa4:	2c230000 	stccs	0, cr0, [r3], #-0
    3fa8:	09000000 	stmdbeq	r0, {}	; <UNPREDICTABLE>
    3fac:	08700900 	ldmdaeq	r0!, {r8, fp}^
    3fb0:	b9220000 	stmdblt	r2!, {}	; <UNPREDICTABLE>
    3fb4:	95000000 	strls	r0, [r0, #-0]
    3fb8:	23000008 	movwcs	r0, #8
    3fbc:	0000002c 	andeq	r0, r0, ip, lsr #32
    3fc0:	7524007f 	strvc	r0, [r4, #-127]!	; 0xffffff81
    3fc4:	01000006 	tsteq	r0, r6
    3fc8:	086a0149 	stmdaeq	sl!, {r0, r3, r6, r8}^
    3fcc:	2a010000 	bcs	43fd4 <__bss_end__+0x39aec>
    3fd0:	25000009 	strcs	r0, [r0, #-9]
    3fd4:	000006ba 			; <UNDEFINED> instruction: 0x000006ba
    3fd8:	2c0f4901 			; <UNDEFINED> instruction: 0x2c0f4901
    3fdc:	26000000 	strcs	r0, [r0], -r0
    3fe0:	00747364 	rsbseq	r7, r4, r4, ror #6
    3fe4:	6a1b4901 	bvs	6d63f0 <__bss_end__+0x6cbf08>
    3fe8:	26000008 	strcs	r0, [r0], -r8
    3fec:	4901006e 	stmdbmi	r1, {r1, r2, r3, r5, r6}
    3ff0:	00003324 	andeq	r3, r0, r4, lsr #6
    3ff4:	61762600 	cmnvs	r6, r0, lsl #12
    3ff8:	4901006c 	stmdbmi	r1, {r2, r3, r5, r6}
    3ffc:	0000332b 	andeq	r3, r0, fp, lsr #6
    4000:	05eb2500 	strbeq	r2, [fp, #1280]!	; 0x500
    4004:	49010000 	stmdbmi	r1, {}	; <UNPREDICTABLE>
    4008:	00003334 	andeq	r3, r0, r4, lsr r3
    400c:	06bf2500 	ldrteq	r2, [pc], r0, lsl #10
    4010:	49010000 	stmdbmi	r1, {}	; <UNPREDICTABLE>
    4014:	0000333f 	andeq	r3, r0, pc, lsr r3
    4018:	75622700 	strbvc	r2, [r2, #-1792]!	; 0xfffff900
    401c:	4e010066 	cdpmi	0, 0, cr0, cr1, cr6, {3}
    4020:	00092a07 	andeq	r2, r9, r7, lsl #20
    4024:	00702700 	rsbseq	r2, r0, r0, lsl #14
    4028:	6a114e01 	bvs	457834 <__bss_end__+0x44d34c>
    402c:	27000008 	strcs	r0, [r0, -r8]
    4030:	4f010075 	svcmi	0x00010075
    4034:	00002c0b 	andeq	r2, r0, fp, lsl #24
    4038:	05f11200 	ldrbeq	r1, [r1, #512]!	; 0x200
    403c:	094a0000 	stmdbeq	sl, {}^	; <UNPREDICTABLE>
    4040:	03050000 	movweq	r0, #20480	; 0x5000
    4044:	00009ea0 	andeq	r9, r0, r0, lsr #29
    4048:	06622928 	strbteq	r2, [r2], -r8, lsr #18
    404c:	54010000 	strpl	r0, [r1], #-0
    4050:	00002c0d 	andeq	r2, r0, sp, lsl #24
    4054:	22000000 	andcs	r0, r0, #0, 0
    4058:	000000b9 	strheq	r0, [r0], -r9
    405c:	0000093a 	andeq	r0, r0, sl, lsr r9
    4060:	00002c23 	andeq	r2, r0, r3, lsr #24
    4064:	22003f00 	andcs	r3, r0, #0, 30
    4068:	000000c0 	andeq	r0, r0, r0, asr #1
    406c:	0000094a 	andeq	r0, r0, sl, asr #18
    4070:	00002c23 	andeq	r2, r0, r3, lsr #24
    4074:	09000400 	stmdbeq	r0, {sl}
    4078:	0000093a 	andeq	r0, r0, sl, lsr r9
    407c:	00067a24 	andeq	r7, r6, r4, lsr #20
    4080:	0e380100 	rsfeqe	f0, f0, f0
    4084:	0000086a 	andeq	r0, r0, sl, ror #16
    4088:	0009a301 	andeq	sl, r9, r1, lsl #6
    408c:	73642600 	cmnvc	r4, #0, 12
    4090:	38010074 	stmdacc	r1, {r2, r4, r5, r6}
    4094:	00086a1c 	andeq	r6, r8, ip, lsl sl
    4098:	006e2600 	rsbeq	r2, lr, r0, lsl #12
    409c:	33253801 			; <UNDEFINED> instruction: 0x33253801
    40a0:	26000000 	strcs	r0, [r0], -r0
    40a4:	38010070 	stmdacc	r1, {r4, r5, r6}
    40a8:	00086a2e 	andeq	r6, r8, lr, lsr #20
    40ac:	09d82500 	ldmibeq	r8, {r8, sl, sp}^
    40b0:	38010000 	stmdacc	r1, {}	; <UNPREDICTABLE>
    40b4:	00086a37 	andeq	r6, r8, r7, lsr sl
    40b8:	656c2700 	strbvs	r2, [ip, #-1792]!	; 0xfffff900
    40bc:	3a01006e 	bcc	4427c <__bss_end__+0x39d94>
    40c0:	00003306 	andeq	r3, r0, r6, lsl #6
    40c4:	00732700 	rsbseq	r2, r3, r0, lsl #14
    40c8:	6a083e01 	bvs	2138d4 <__bss_end__+0x2093ec>
    40cc:	00000008 	andeq	r0, r0, r8
    40d0:	6461702a 	strbtvs	r7, [r1], #-42	; 0xffffffd6
    40d4:	0e2e0100 	sufeqe	f0, f6, f0
    40d8:	0000086a 	andeq	r0, r0, sl, ror #16
    40dc:	0009e301 	andeq	lr, r9, r1, lsl #6
    40e0:	00702600 	rsbseq	r2, r0, r0, lsl #12
    40e4:	6a182e01 	bvs	60f8f0 <__bss_end__+0x605408>
    40e8:	25000008 	strcs	r0, [r0, #-8]
    40ec:	000006ba 			; <UNDEFINED> instruction: 0x000006ba
    40f0:	6a222e01 	bvs	88f8fc <__bss_end__+0x885414>
    40f4:	25000008 	strcs	r0, [r0, #-8]
    40f8:	000005eb 	andeq	r0, r0, fp, ror #11
    40fc:	332c2e01 			; <UNDEFINED> instruction: 0x332c2e01
    4100:	27000000 	strcs	r0, [r0, -r0]
    4104:	006e656c 	rsbeq	r6, lr, ip, ror #10
    4108:	33062f01 	movwcc	r2, #28417	; 0x6f01
    410c:	00000000 	andeq	r0, r0, r0
    4110:	0005aa24 	andeq	sl, r5, r4, lsr #20
    4114:	0c270100 	stfeqs	f0, [r7], #-0
    4118:	00000033 	andeq	r0, r0, r3, lsr r0
    411c:	0009ff01 	andeq	pc, r9, r1, lsl #30
    4120:	00632600 	rsbeq	r2, r3, r0, lsl #12
    4124:	33182701 	tstcc	r8, #262144	; 0x40000
    4128:	00000000 	andeq	r0, r0, r0
    412c:	00063b2b 	andeq	r3, r6, fp, lsr #22
    4130:	061f0100 	ldreq	r0, [pc], -r0, lsl #2
    4134:	00008d10 	andeq	r8, r0, r0, lsl sp
    4138:	00000060 	andeq	r0, r0, r0, rrx
    413c:	0a8f9c01 	beq	fe3eb148 <__bss_end__+0xfe3e0c60>
    4140:	180f0000 	stmdane	pc, {}	; <UNPREDICTABLE>
    4144:	01000006 	tsteq	r0, r6
    4148:	009e1b1f 	addseq	r1, lr, pc, lsl fp
    414c:	26dc0000 	ldrbcs	r0, [ip], r0
    4150:	26d80000 	ldrbcs	r0, [r8], r0
    4154:	890f0000 	stmdbhi	pc, {}	; <UNPREDICTABLE>
    4158:	01000006 	tsteq	r0, r6
    415c:	00d1301f 	sbcseq	r3, r1, pc, lsl r0
    4160:	27010000 	strcs	r0, [r1, -r0]
    4164:	26fd0000 	ldrbtcs	r0, [sp], r0
    4168:	f1120000 			; <UNDEFINED> instruction: 0xf1120000
    416c:	9f000005 	svcls	0x00000005
    4170:	0500000a 	streq	r0, [r0, #-10]
    4174:	009ea803 	addseq	sl, lr, r3, lsl #16
    4178:	8d541700 	ldclhi	7, cr1, [r4, #-0]
    417c:	0c460000 	mareq	acc0, r0, r6
    4180:	0a850000 	beq	fe144188 <__bss_end__+0xfe139ca0>
    4184:	01180000 	tsteq	r8, r0
    4188:	5c030550 	cfstr32pl	mvfx0, [r3], {80}	; 0x50
    418c:	1800009d 	stmdane	r0, {r0, r2, r3, r4, r7}
    4190:	03055101 	movweq	r5, #20737	; 0x5101
    4194:	00009d48 	andeq	r9, r0, r8, asr #26
    4198:	05520118 	ldrbeq	r0, [r2, #-280]	; 0xfffffee8
    419c:	009ea803 	addseq	sl, lr, r3, lsl #16
    41a0:	53011800 	movwpl	r1, #6144	; 0x1800
    41a4:	18200802 	stmdane	r0!, {r1, fp}
    41a8:	05007d02 	streq	r7, [r0, #-3330]	; 0xfffff2fe
    41ac:	009d9803 	addseq	r9, sp, r3, lsl #16
    41b0:	58190000 	ldmdapl	r9, {}	; <UNPREDICTABLE>
    41b4:	7600008d 	strvc	r0, [r0], -sp, lsl #1
    41b8:	0000000c 	andeq	r0, r0, ip
    41bc:	0000c022 	andeq	ip, r0, r2, lsr #32
    41c0:	000a9f00 	andeq	r9, sl, r0, lsl #30
    41c4:	002c2300 	eoreq	r2, ip, r0, lsl #6
    41c8:	000e0000 	andeq	r0, lr, r0
    41cc:	000a8f09 	andeq	r8, sl, r9, lsl #30
    41d0:	08952c00 	ldmeq	r5, {sl, fp, sp}
    41d4:	89e80000 	stmibhi	r8!, {}^	; <UNPREDICTABLE>
    41d8:	03280000 			; <UNDEFINED> instruction: 0x03280000
    41dc:	9c010000 	stcls	0, cr0, [r1], {-0}
    41e0:	00000c3a 	andeq	r0, r0, sl, lsr ip
    41e4:	0008a61b 	andeq	sl, r8, fp, lsl r6
    41e8:	00273a00 	eoreq	r3, r7, r0, lsl #20
    41ec:	00272200 	eoreq	r2, r7, r0, lsl #4
    41f0:	08b21b00 	ldmeq	r2!, {r8, r9, fp, ip}
    41f4:	27e40000 	strbcs	r0, [r4, r0]!
    41f8:	27dc0000 	ldrbcs	r0, [ip, r0]
    41fc:	c81b0000 	ldmdagt	fp, {}	; <UNPREDICTABLE>
    4200:	3b000008 	blcc	4228 <__code_start__-0x3dd8>
    4204:	1b000028 	blne	42ac <__code_start__-0x3d54>
    4208:	1b000028 	blne	42b0 <__code_start__-0x3d50>
    420c:	000008d4 	ldrdeq	r0, [r0], -r4
    4210:	00002911 	andeq	r2, r0, r1, lsl r9
    4214:	00002903 	andeq	r2, r0, r3, lsl #18
    4218:	0008e02d 	andeq	lr, r8, sp, lsr #32
    421c:	00910200 	addseq	r0, r1, r0, lsl #4
    4220:	0008ec1d 	andeq	lr, r8, sp, lsl ip
    4224:	a8910300 	ldmge	r1, {r8, r9}
    4228:	08f81e7f 	ldmeq	r8!, {r0, r1, r2, r3, r4, r5, r6, r9, sl, fp, ip}^
    422c:	29a50000 	stmibcs	r5!, {}	; <UNPREDICTABLE>
    4230:	29710000 	ldmdbcs	r1!, {}^	; <UNPREDICTABLE>
    4234:	021e0000 	andseq	r0, lr, #0, 0
    4238:	0c000009 	stceq	0, cr0, [r0], {9}
    423c:	ea00002b 	b	42f0 <__code_start__-0x3d10>
    4240:	2e00002a 	cdpcs	0, 0, cr0, cr0, cr10, {1}
    4244:	000008be 			; <UNDEFINED> instruction: 0x000008be
    4248:	09a31a80 	stmibeq	r3!, {r7, r9, fp, ip}
    424c:	8a8c0000 	bhi	fe304254 <__bss_end__+0xfe2f9d6c>
    4250:	00040000 	andeq	r0, r4, r0
    4254:	00001080 	andeq	r1, r0, r0, lsl #1
    4258:	6d097c01 	stcvs	12, cr7, [r9, #-4]
    425c:	1b00000b 	blne	4290 <__code_start__-0x3d70>
    4260:	000009ca 	andeq	r0, r0, sl, asr #19
    4264:	00002bf4 	strdeq	r2, [r0], -r4
    4268:	00002bea 	andeq	r2, r0, sl, ror #23
    426c:	0009be1b 	andeq	fp, r9, fp, lsl lr
    4270:	002c4800 	eoreq	r4, ip, r0, lsl #16
    4274:	002c3800 	eoreq	r3, ip, r0, lsl #16
    4278:	09b41b00 	ldmibeq	r4!, {r8, r9, fp, ip}
    427c:	2cc80000 	stclcs	0, cr0, [r8], {0}
    4280:	2cb40000 	ldccs	0, cr0, [r4]
    4284:	80130000 	andshi	r0, r3, r0
    4288:	1e000010 	mcrne	0, 0, r0, cr0, cr0, {0}
    428c:	000009d6 	ldrdeq	r0, [r0], -r6
    4290:	00002d5a 	andeq	r2, r0, sl, asr sp
    4294:	00002d4a 	andeq	r2, r0, sl, asr #26
    4298:	4f1a0000 	svcmi	0x001a0000
    429c:	44000009 	strmi	r0, [r0], #-9
    42a0:	0200008b 	andeq	r0, r0, #139, 0	; 0x8b
    42a4:	0010c800 	andseq	ip, r0, r0, lsl #16
    42a8:	097c0100 	ldmdbeq	ip!, {r8}^
    42ac:	00000bd8 	ldrdeq	r0, [r0], -r8
    42b0:	0009801b 	andeq	r8, r9, fp, lsl r0
    42b4:	002dc600 	eoreq	ip, sp, r0, lsl #12
    42b8:	002dbe00 	eoreq	fp, sp, r0, lsl #28
    42bc:	09761b00 	ldmdbeq	r6!, {r8, r9, fp, ip}^
    42c0:	2e050000 	cdpcs	0, 0, cr0, cr5, cr0, {0}
    42c4:	2dfd0000 	ldclcs	0, cr0, [sp]
    42c8:	6c1b0000 	ldcvs	0, cr0, [fp], {-0}
    42cc:	44000009 	strmi	r0, [r0], #-9
    42d0:	4000002e 	andmi	r0, r0, lr, lsr #32
    42d4:	1b00002e 	blne	4394 <__code_start__-0x3c6c>
    42d8:	00000960 	andeq	r0, r0, r0, ror #18
    42dc:	00002e74 	andeq	r2, r0, r4, ror lr
    42e0:	00002e66 	andeq	r2, r0, r6, ror #28
    42e4:	0010c813 	andseq	ip, r0, r3, lsl r8
    42e8:	098c1e00 	stmibeq	ip, {r9, sl, fp, ip}
    42ec:	2ed90000 	cdpcs	0, 13, cr0, cr9, cr0, {0}
    42f0:	2ed30000 	cdpcs	0, 13, cr0, cr3, cr0, {0}
    42f4:	981e0000 	ldmdals	lr, {}	; <UNPREDICTABLE>
    42f8:	0b000009 	bleq	4324 <__code_start__-0x3cdc>
    42fc:	0700002f 	streq	r0, [r0, -pc, lsr #32]
    4300:	0000002f 	andeq	r0, r0, pc, lsr #32
    4304:	091b2f00 	ldmdbeq	fp, {r8, r9, sl, fp, sp}
    4308:	8bfc0000 	blhi	fff04310 <__bss_end__+0xffef9e28>
    430c:	00600000 	rsbeq	r0, r0, r0
    4310:	0bf70000 	bleq	ffdc4318 <__bss_end__+0xffdb9e30>
    4314:	1c1e0000 	ldcne	0, cr0, [lr], {-0}
    4318:	2d000009 	stccs	0, cr0, [r0, #-36]	; 0xffffffdc
    431c:	2900002f 	stmdbcs	r0, {r0, r1, r2, r3, r5}
    4320:	0000002f 	andeq	r0, r0, pc, lsr #32
    4324:	008cd017 	addeq	sp, ip, r7, lsl r0
    4328:	000c4600 	andeq	r4, ip, r0, lsl #12
    432c:	000c3000 	andeq	r3, ip, r0
    4330:	50011800 	andpl	r1, r1, r0, lsl #16
    4334:	9d5c0305 	ldclls	3, cr0, [ip, #-20]	; 0xffffffec
    4338:	01180000 	tsteq	r8, r0
    433c:	48030551 	stmdami	r3, {r0, r4, r6, r8, sl}
    4340:	1800009d 	stmdane	r0, {r0, r2, r3, r4, r7}
    4344:	03055201 	movweq	r5, #20993	; 0x5201
    4348:	00009ea0 	andeq	r9, r0, r0, lsr #29
    434c:	02530118 	subseq	r0, r3, #6
    4350:	02187908 	andseq	r7, r8, #8, 18	; 0x20000
    4354:	0305007d 	movweq	r0, #20605	; 0x507d
    4358:	00009d70 	andeq	r9, r0, r0, ror sp
    435c:	8cd41900 			; <UNDEFINED> instruction: 0x8cd41900
    4360:	0c760000 	ldcleq	0, cr0, [r6], #-0
    4364:	30000000 	andcc	r0, r0, r0
    4368:	000006b2 			; <UNDEFINED> instruction: 0x000006b2
    436c:	000006b2 			; <UNDEFINED> instruction: 0x000006b2
    4370:	3005eb03 	andcc	lr, r5, r3, lsl #22
    4374:	00000559 	andeq	r0, r0, r9, asr r5
    4378:	00000559 	andeq	r0, r0, r9, asr r5
    437c:	30062803 	andcc	r2, r6, r3, lsl #16
    4380:	00000654 	andeq	r0, r0, r4, asr r6
    4384:	00000654 	andeq	r0, r0, r4, asr r6
    4388:	3007ee03 	andcc	lr, r7, r3, lsl #28
    438c:	00000682 	andeq	r0, r0, r2, lsl #13
    4390:	00000682 	andeq	r0, r0, r2, lsl #13
    4394:	3005ea03 	andcc	lr, r5, r3, lsl #20
    4398:	0000065b 	andeq	r0, r0, fp, asr r6
    439c:	0000065b 	andeq	r0, r0, fp, asr r6
    43a0:	3007ed03 	andcc	lr, r7, r3, lsl #26
    43a4:	000005fe 	strdeq	r0, [r0], -lr
    43a8:	000005fe 	strdeq	r0, [r0], -lr
    43ac:	00066e03 	andeq	r6, r6, r3, lsl #28
    43b0:	0000010a 	andeq	r0, r0, sl, lsl #2
    43b4:	0c280004 	stceq	0, cr0, [r8], #-16
    43b8:	01040000 	mrseq	r0, (UNDEF: 4)
    43bc:	00000499 	muleq	r0, r9, r4
    43c0:	0006d60c 	andeq	sp, r6, ip, lsl #12
    43c4:	00042d00 	andeq	r2, r4, r0, lsl #26
    43c8:	00125800 	andseq	r5, r2, r0, lsl #16
    43cc:	00000000 	andeq	r0, r0, r0
    43d0:	001fbc00 	andseq	fp, pc, r0, lsl #24
    43d4:	05040200 	streq	r0, [r4, #-512]	; 0xfffffe00
    43d8:	00746e69 	rsbseq	r6, r4, r9, ror #28
    43dc:	9d070403 	cfstrsls	mvf0, [r7, #-12]
    43e0:	03000001 	movweq	r0, #1
    43e4:	008f0601 	addeq	r0, pc, r1, lsl #12
    43e8:	02030000 	andeq	r0, r3, #0, 0
    43ec:	0001d405 	andeq	sp, r1, r5, lsl #8
    43f0:	05040300 	streq	r0, [r4, #-768]	; 0xfffffd00
    43f4:	000001bf 			; <UNDEFINED> instruction: 0x000001bf
    43f8:	ba050803 	blt	14640c <__bss_end__+0x13bf24>
    43fc:	03000001 	movweq	r0, #1
    4400:	008d0801 	addeq	r0, sp, r1, lsl #16
    4404:	02030000 	andeq	r0, r3, #0, 0
    4408:	0000a407 	andeq	sl, r0, r7, lsl #8
    440c:	07040300 	streq	r0, [r4, -r0, lsl #6]
    4410:	00000198 	muleq	r0, r8, r1
    4414:	93070803 	movwls	r0, #30723	; 0x7803
    4418:	04000001 	streq	r0, [r0], #-1
    441c:	00000025 	andeq	r0, r0, r5, lsr #32
    4420:	0000007a 	andeq	r0, r0, sl, ror r0
    4424:	00002505 	andeq	r2, r0, r5, lsl #10
    4428:	c8060000 	stmdagt	r6, {}	; <UNPREDICTABLE>
    442c:	02000001 	andeq	r0, r0, #1, 0
    4430:	00860e1c 	addeq	r0, r6, ip, lsl lr
    4434:	04070000 	streq	r0, [r7], #-0
    4438:	0000006b 	andeq	r0, r0, fp, rrx
    443c:	00002504 	andeq	r2, r0, r4, lsl #10
    4440:	00009b00 	andeq	r9, r0, r0, lsl #22
    4444:	009b0500 	addseq	r0, fp, r0, lsl #10
    4448:	07000000 	streq	r0, [r0, -r0]
    444c:	0000a804 	andeq	sl, r0, r4, lsl #16
    4450:	08010300 	stmdaeq	r1, {r8, r9}
    4454:	00000096 	muleq	r0, r6, r0
    4458:	0000a108 	andeq	sl, r0, r8, lsl #2
    445c:	05970600 	ldreq	r0, [r7, #1536]	; 0x600
    4460:	21020000 	mrscs	r0, (UNDEF: 2)
    4464:	0000b90e 	andeq	fp, r0, lr, lsl #18
    4468:	8c040700 	stchi	7, cr0, [r4], {-0}
    446c:	09000000 	stmdbeq	r0, {}	; <UNPREDICTABLE>
    4470:	000006c8 	andeq	r0, r0, r8, asr #13
    4474:	ac060c01 	stcge	12, cr0, [r6], {1}
    4478:	10000093 	mulne	r0, r3, r0
    447c:	01000000 	mrseq	r0, (UNDEF: 0)
    4480:	0000e89c 	muleq	r0, ip, r8
    4484:	00720a00 	rsbseq	r0, r2, r0, lsl #20
    4488:	2c0e0d01 	stccs	13, cr0, [lr], {1}
    448c:	55000000 	strpl	r0, [r0, #-0]
    4490:	4d00002f 	stcmi	0, cr0, [r0, #-188]	; 0xffffff44
    4494:	0000002f 	andeq	r0, r0, pc, lsr #32
    4498:	0001de0b 	andeq	sp, r1, fp, lsl #28
    449c:	06030100 	streq	r0, [r3], -r0, lsl #2
    44a0:	0000939c 	muleq	r0, ip, r3
    44a4:	00000010 	andeq	r0, r0, r0, lsl r0
    44a8:	720a9c01 	andvc	r9, sl, #256	; 0x100
    44ac:	0e040100 	adfeqs	f0, f4, f0
    44b0:	0000002c 	andeq	r0, r0, ip, lsr #32
    44b4:	00002f9d 	muleq	r0, sp, pc	; <UNPREDICTABLE>
    44b8:	00002f95 	muleq	r0, r5, pc	; <UNPREDICTABLE>
    44bc:	012f0000 			; <UNDEFINED> instruction: 0x012f0000
    44c0:	00040000 	andeq	r0, r4, r0
    44c4:	00000cd1 	ldrdeq	r0, [r0], -r1
    44c8:	04990104 	ldreq	r0, [r9], #260	; 0x104
    44cc:	f50c0000 			; <UNDEFINED> instruction: 0xf50c0000
    44d0:	2d000006 	stccs	0, cr0, [r0, #-24]	; 0xffffffe8
    44d4:	bc000004 	stclt	0, cr0, [r0], {4}
    44d8:	2c000093 	stccs	0, cr0, [r0], {147}	; 0x93
    44dc:	60000000 	andvs	r0, r0, r0
    44e0:	02000020 	andeq	r0, r0, #32, 0
    44e4:	6e690504 	cdpvs	5, 6, cr0, cr9, cr4, {0}
    44e8:	04030074 	streq	r0, [r3], #-116	; 0xffffff8c
    44ec:	00019d07 	andeq	r9, r1, r7, lsl #26
    44f0:	06010300 	streq	r0, [r1], -r0, lsl #6
    44f4:	0000008f 	andeq	r0, r0, pc, lsl #1
    44f8:	d4050203 	strle	r0, [r5], #-515	; 0xfffffdfd
    44fc:	03000001 	movweq	r0, #1
    4500:	01bf0504 			; <UNDEFINED> instruction: 0x01bf0504
    4504:	08030000 	stmdaeq	r3, {}	; <UNPREDICTABLE>
    4508:	0001ba05 	andeq	fp, r1, r5, lsl #20
    450c:	08010300 	stmdaeq	r1, {r8, r9}
    4510:	0000008d 	andeq	r0, r0, sp, lsl #1
    4514:	a4070203 	strge	r0, [r7], #-515	; 0xfffffdfd
    4518:	03000000 	movweq	r0, #0
    451c:	01980704 	orrseq	r0, r8, r4, lsl #14
    4520:	08030000 	stmdaeq	r3, {}	; <UNPREDICTABLE>
    4524:	00019307 	andeq	r9, r1, r7, lsl #6
    4528:	00250400 	eoreq	r0, r5, r0, lsl #8
    452c:	007a0000 	rsbseq	r0, sl, r0
    4530:	25050000 	strcs	r0, [r5, #-0]
    4534:	00000000 	andeq	r0, r0, r0
    4538:	0001c806 	andeq	ip, r1, r6, lsl #16
    453c:	0e1c0200 	cdpeq	2, 1, cr0, cr12, cr0, {0}
    4540:	00000086 	andeq	r0, r0, r6, lsl #1
    4544:	006b0407 	rsbeq	r0, fp, r7, lsl #8
    4548:	25040000 	strcs	r0, [r4, #-0]
    454c:	9b000000 	blls	4554 <__code_start__-0x3aac>
    4550:	05000000 	streq	r0, [r0, #-0]
    4554:	0000009b 	muleq	r0, fp, r0
    4558:	a8040700 	stmdage	r4, {r8, r9, sl}
    455c:	03000000 	movweq	r0, #0
    4560:	00960801 	addseq	r0, r6, r1, lsl #16
    4564:	a1080000 	mrsge	r0, (UNDEF: 8)
    4568:	06000000 	streq	r0, [r0], -r0
    456c:	00000597 	muleq	r0, r7, r5
    4570:	b90e2102 	stmdblt	lr, {r1, r8, sp}
    4574:	07000000 	streq	r0, [r0, -r0]
    4578:	00008c04 	andeq	r8, r0, r4, lsl #24
    457c:	05fe0900 	ldrbeq	r0, [lr, #2304]!	; 0x900
    4580:	04010000 	streq	r0, [r1], #-0
    4584:	0093bc06 	addseq	fp, r3, r6, lsl #24
    4588:	00002c00 	andeq	r2, r0, r0, lsl #24
    458c:	0e9c0100 	fmleqe	f0, f4, f0
    4590:	0a000001 	beq	459c <__code_start__-0x3a64>
    4594:	000093d0 	ldrdeq	r9, [r0], -r0
    4598:	000000e8 	andeq	r0, r0, r8, ror #1
    459c:	0550010b 	ldrbeq	r0, [r0, #-267]	; 0xfffffef5
    45a0:	009ec403 	addseq	ip, lr, r3, lsl #8
    45a4:	d40c0000 	strle	r0, [ip], #-0
    45a8:	0e000093 	mcreq	0, 0, r0, cr0, cr3, {4}
    45ac:	0d000001 	stceq	0, cr0, [r0, #-4]
    45b0:	000093dc 	ldrdeq	r9, [r0], -ip
    45b4:	0000011a 	andeq	r0, r0, sl, lsl r1
    45b8:	00000104 	andeq	r0, r0, r4, lsl #2
    45bc:	0150010b 	cmpeq	r0, fp, lsl #2
    45c0:	e00c003a 	and	r0, ip, sl, lsr r0
    45c4:	26000093 			; <UNDEFINED> instruction: 0x26000093
    45c8:	00000001 	andeq	r0, r0, r1
    45cc:	0007100e 	andeq	r1, r7, lr
    45d0:	00071000 	andeq	r1, r7, r0
    45d4:	064d0200 	strbeq	r0, [sp], -r0, lsl #4
    45d8:	00009b0e 	andeq	r9, r0, lr, lsl #22
    45dc:	00009b00 	andeq	r9, r0, r0, lsl #22
    45e0:	06580200 	ldrbeq	r0, [r8], -r0, lsl #4
    45e4:	0006ea0e 	andeq	lr, r6, lr, lsl #20
    45e8:	0006ea00 	andeq	lr, r6, r0, lsl #20
    45ec:	066b0200 	strbteq	r0, [fp], -r0, lsl #4
    45f0:	00019000 	andeq	r9, r1, r0
    45f4:	91000400 	tstls	r0, r0, lsl #8
    45f8:	0400000d 	streq	r0, [r0], #-13
    45fc:	00049901 	andeq	r9, r4, r1, lsl #18
    4600:	07460c00 	strbeq	r0, [r6, -r0, lsl #24]
    4604:	042d0000 	strteq	r0, [sp], #-0
    4608:	93e80000 	mvnls	r0, #0, 0
    460c:	00f80000 	rscseq	r0, r8, r0
    4610:	20eb0000 	rsccs	r0, fp, r0
    4614:	04020000 	streq	r0, [r2], #-0
    4618:	746e6905 	strbtvc	r6, [lr], #-2309	; 0xfffff6fb
    461c:	07040300 	streq	r0, [r4, -r0, lsl #6]
    4620:	0000019d 	muleq	r0, sp, r1
    4624:	8f060103 	svchi	0x00060103
    4628:	03000000 	movweq	r0, #0
    462c:	01d40502 	bicseq	r0, r4, r2, lsl #10
    4630:	04030000 	streq	r0, [r3], #-0
    4634:	0001bf05 	andeq	fp, r1, r5, lsl #30
    4638:	05080300 	streq	r0, [r8, #-768]	; 0xfffffd00
    463c:	000001ba 			; <UNDEFINED> instruction: 0x000001ba
    4640:	8d080103 	stfhis	f0, [r8, #-12]
    4644:	03000000 	movweq	r0, #0
    4648:	00a40702 	adceq	r0, r4, r2, lsl #14
    464c:	04030000 	streq	r0, [r3], #-0
    4650:	00019807 	andeq	r9, r1, r7, lsl #16
    4654:	07080300 	streq	r0, [r8, -r0, lsl #6]
    4658:	00000193 	muleq	r0, r3, r1
    465c:	00002504 	andeq	r2, r0, r4, lsl #10
    4660:	00007a00 	andeq	r7, r0, r0, lsl #20
    4664:	00250500 	eoreq	r0, r5, r0, lsl #10
    4668:	06000000 	streq	r0, [r0], -r0
    466c:	000001c8 	andeq	r0, r0, r8, asr #3
    4670:	860e1c02 	strhi	r1, [lr], -r2, lsl #24
    4674:	07000000 	streq	r0, [r0, -r0]
    4678:	00006b04 	andeq	r6, r0, r4, lsl #22
    467c:	00250400 	eoreq	r0, r5, r0, lsl #8
    4680:	009b0000 	addseq	r0, fp, r0
    4684:	9b050000 	blls	14468c <__bss_end__+0x13a1a4>
    4688:	00000000 	andeq	r0, r0, r0
    468c:	00a80407 	adceq	r0, r8, r7, lsl #8
    4690:	01030000 	mrseq	r0, (UNDEF: 3)
    4694:	00009608 	andeq	r9, r0, r8, lsl #12
    4698:	00a10800 	adceq	r0, r1, r0, lsl #16
    469c:	97060000 	strls	r0, [r6, -r0]
    46a0:	02000005 	andeq	r0, r0, #5, 0
    46a4:	00b90e21 	adcseq	r0, r9, r1, lsr #28
    46a8:	04070000 	streq	r0, [r7], #-0
    46ac:	0000008c 	andeq	r0, r0, ip, lsl #1
    46b0:	00071e09 	andeq	r1, r7, r9, lsl #28
    46b4:	06040100 	streq	r0, [r4], -r0, lsl #2
    46b8:	000093e8 	andeq	r9, r0, r8, ror #7
    46bc:	000000f8 	strdeq	r0, [r0], -r8
    46c0:	015b9c01 	cmpeq	fp, r1, lsl #24
    46c4:	dd060000 	stcle	0, cr0, [r6, #-0]
    46c8:	01000005 	tsteq	r0, r5
    46cc:	00251005 	eoreq	r1, r5, r5
    46d0:	20060000 	andcs	r0, r6, r0
    46d4:	01000006 	tsteq	r0, r6
    46d8:	00251f05 	eoreq	r1, r5, r5, lsl #30
    46dc:	410a0000 	mrsmi	r0, (UNDEF: 10)
    46e0:	01000000 	mrseq	r0, (UNDEF: 0)
    46e4:	620b0706 	andvs	r0, fp, #1572864	; 0x180000
    46e8:	01007373 	tsteq	r0, r3, ror r3
    46ec:	015b0a0a 	cmpeq	fp, sl, lsl #20
    46f0:	2ff50000 	svccs	0x00f50000
    46f4:	2fdd0000 	svccs	0x00dd0000
    46f8:	260c0000 	strcs	r0, [ip], -r0
    46fc:	01000007 	tsteq	r0, r7
    4700:	015b0a0b 	cmpeq	fp, fp, lsl #20
    4704:	c00d0000 	andgt	r0, sp, r0
    4708:	08000094 	stmdaeq	r0, {r2, r4, r7}
    470c:	36000000 	strcc	r0, [r0], -r0
    4710:	0b000001 	bleq	471c <__code_start__-0x38e4>
    4714:	01006e69 	tsteq	r0, r9, ror #28
    4718:	002c0514 	eoreq	r0, ip, r4, lsl r5
    471c:	308f0000 	addcc	r0, pc, r0
    4720:	308d0000 	addcc	r0, sp, r0
    4724:	0e000000 	cdpeq	0, 0, cr0, cr0, cr0, {0}
    4728:	000093f0 	strdeq	r9, [r0], -r0
    472c:	00000161 	andeq	r0, r0, r1, ror #2
    4730:	0094c00e 	addseq	ip, r4, lr
    4734:	00016e00 	andeq	r6, r1, r0, lsl #28
    4738:	94cc0e00 	strbls	r0, [ip], #3584	; 0xe00
    473c:	017a0000 	cmneq	sl, r0
    4740:	d00e0000 	andle	r0, lr, r0
    4744:	87000094 			; <UNDEFINED> instruction: 0x87000094
    4748:	00000001 	andeq	r0, r0, r1
    474c:	00250407 	eoreq	r0, r5, r7, lsl #8
    4750:	380f0000 	stmdacc	pc, {}	; <UNPREDICTABLE>
    4754:	38000007 	stmdacc	r0, {r0, r1, r2}
    4758:	02000007 	andeq	r0, r0, #7, 0
    475c:	10060131 	andne	r0, r6, r1, lsr r1
    4760:	0000072e 	andeq	r0, r0, lr, lsr #14
    4764:	0000072e 	andeq	r0, r0, lr, lsr #14
    4768:	0f063b02 	svceq	0x00063b02
    476c:	00000041 	andeq	r0, r0, r1, asr #32
    4770:	00000041 	andeq	r0, r0, r1, asr #32
    4774:	06010502 	streq	r0, [r1], -r2, lsl #10
    4778:	0005fe10 	andeq	pc, r5, r0, lsl lr	; <UNPREDICTABLE>
    477c:	0005fe00 	andeq	pc, r5, r0, lsl #28
    4780:	066e0200 	strbteq	r0, [lr], -r0, lsl #4
    4784:	0000ce00 	andeq	ip, r0, r0, lsl #28
    4788:	7c000400 	cfstrsvc	mvf0, [r0], {-0}
    478c:	0400000e 	streq	r0, [r0], #-14
    4790:	00049901 	andeq	r9, r4, r1, lsl #18
    4794:	075b0c00 	ldrbeq	r0, [fp, -r0, lsl #24]
    4798:	042d0000 	strteq	r0, [sp], #-0
    479c:	94e00000 	strbtls	r0, [r0], #0
    47a0:	00040000 	andeq	r0, r4, r0
    47a4:	22010000 	andcs	r0, r1, #0, 0
    47a8:	04020000 	streq	r0, [r2], #-0
    47ac:	746e6905 	strbtvc	r6, [lr], #-2309	; 0xfffff6fb
    47b0:	07040300 	streq	r0, [r4, -r0, lsl #6]
    47b4:	0000019d 	muleq	r0, sp, r1
    47b8:	8f060103 	svchi	0x00060103
    47bc:	03000000 	movweq	r0, #0
    47c0:	01d40502 	bicseq	r0, r4, r2, lsl #10
    47c4:	04030000 	streq	r0, [r3], #-0
    47c8:	0001bf05 	andeq	fp, r1, r5, lsl #30
    47cc:	05080300 	streq	r0, [r8, #-768]	; 0xfffffd00
    47d0:	000001ba 			; <UNDEFINED> instruction: 0x000001ba
    47d4:	8d080103 	stfhis	f0, [r8, #-12]
    47d8:	03000000 	movweq	r0, #0
    47dc:	00a40702 	adceq	r0, r4, r2, lsl #14
    47e0:	04030000 	streq	r0, [r3], #-0
    47e4:	00019807 	andeq	r9, r1, r7, lsl #16
    47e8:	07080300 	streq	r0, [r8, -r0, lsl #6]
    47ec:	00000193 	muleq	r0, r3, r1
    47f0:	00002504 	andeq	r2, r0, r4, lsl #10
    47f4:	00007a00 	andeq	r7, r0, r0, lsl #20
    47f8:	00250500 	eoreq	r0, r5, r0, lsl #10
    47fc:	06000000 	streq	r0, [r0], -r0
    4800:	000001c8 	andeq	r0, r0, r8, asr #3
    4804:	860e1c02 	strhi	r1, [lr], -r2, lsl #24
    4808:	07000000 	streq	r0, [r0, -r0]
    480c:	00006b04 	andeq	r6, r0, r4, lsl #22
    4810:	00250400 	eoreq	r0, r5, r0, lsl #8
    4814:	009b0000 	addseq	r0, fp, r0
    4818:	9b050000 	blls	144820 <__bss_end__+0x13a338>
    481c:	00000000 	andeq	r0, r0, r0
    4820:	00a80407 	adceq	r0, r8, r7, lsl #8
    4824:	01030000 	mrseq	r0, (UNDEF: 3)
    4828:	00009608 	andeq	r9, r0, r8, lsl #12
    482c:	00a10800 	adceq	r0, r1, r0, lsl #16
    4830:	97060000 	strls	r0, [r6, -r0]
    4834:	02000005 	andeq	r0, r0, #5, 0
    4838:	00b90e21 	adcseq	r0, r9, r1, lsr #28
    483c:	04070000 	streq	r0, [r7], #-0
    4840:	0000008c 	andeq	r0, r0, ip, lsl #1
    4844:	00073809 	andeq	r3, r7, r9, lsl #16
    4848:	06040100 	streq	r0, [r4], -r0, lsl #2
    484c:	000094e0 	andeq	r9, r0, r0, ror #9
    4850:	00000004 	andeq	r0, r0, r4
    4854:	7d009c01 	stcvc	12, cr9, [r0, #-4]
    4858:	04000002 	streq	r0, [r0], #-2
    485c:	000ef500 	andeq	pc, lr, r0, lsl #10
    4860:	99010400 	stmdbls	r1, {sl}
    4864:	0c000004 	stceq	0, cr0, [r0], {4}
    4868:	0000079d 	muleq	r0, sp, r7
    486c:	0000042d 	andeq	r0, r0, sp, lsr #8
    4870:	00001280 	andeq	r1, r0, r0, lsl #5
    4874:	00000000 	andeq	r0, r0, r0
    4878:	00002282 	andeq	r2, r0, r2, lsl #5
    487c:	69050402 	stmdbvs	r5, {r1, sl}
    4880:	0300746e 	movweq	r7, #1134	; 0x46e
    4884:	00000025 	andeq	r0, r0, r5, lsr #32
    4888:	9d070404 	cfstrsls	mvf0, [r7, #-16]
    488c:	04000001 	streq	r0, [r0], #-1
    4890:	008f0601 	addeq	r0, pc, r1, lsl #12
    4894:	02040000 	andeq	r0, r4, #0, 0
    4898:	0001d405 	andeq	sp, r1, r5, lsl #8
    489c:	05040400 	streq	r0, [r4, #-1024]	; 0xfffffc00
    48a0:	000001bf 			; <UNDEFINED> instruction: 0x000001bf
    48a4:	ba050804 	blt	1468bc <__bss_end__+0x13c3d4>
    48a8:	04000001 	streq	r0, [r0], #-1
    48ac:	008d0801 	addeq	r0, sp, r1, lsl #16
    48b0:	02040000 	andeq	r0, r4, #0, 0
    48b4:	0000a407 	andeq	sl, r0, r7, lsl #8
    48b8:	07040400 	streq	r0, [r4, -r0, lsl #8]
    48bc:	00000198 	muleq	r0, r8, r1
    48c0:	93070804 	movwls	r0, #30724	; 0x7804
    48c4:	05000001 	streq	r0, [r0, #-1]
    48c8:	00000025 	andeq	r0, r0, r5, lsr #32
    48cc:	0000007f 	andeq	r0, r0, pc, ror r0
    48d0:	00002506 	andeq	r2, r0, r6, lsl #10
    48d4:	c8070000 	stmdagt	r7, {}	; <UNPREDICTABLE>
    48d8:	02000001 	andeq	r0, r0, #1, 0
    48dc:	008b0e1c 	addeq	r0, fp, ip, lsl lr
    48e0:	04080000 	streq	r0, [r8], #-0
    48e4:	00000070 	andeq	r0, r0, r0, ror r0
    48e8:	00002505 	andeq	r2, r0, r5, lsl #10
    48ec:	0000a000 	andeq	sl, r0, r0
    48f0:	00a00600 	adceq	r0, r0, r0, lsl #12
    48f4:	08000000 	stmdaeq	r0, {}	; <UNPREDICTABLE>
    48f8:	0000ad04 	andeq	sl, r0, r4, lsl #26
    48fc:	08010400 	stmdaeq	r1, {sl}
    4900:	00000096 	muleq	r0, r6, r0
    4904:	0000a603 	andeq	sl, r0, r3, lsl #12
    4908:	05970700 	ldreq	r0, [r7, #1792]	; 0x700
    490c:	21020000 	mrscs	r0, (UNDEF: 2)
    4910:	0000be0e 	andeq	fp, r0, lr, lsl #28
    4914:	91040800 	tstls	r4, r0, lsl #16
    4918:	09000000 	stmdbeq	r0, {}	; <UNPREDICTABLE>
    491c:	000007c1 	andeq	r0, r0, r1, asr #15
    4920:	31110d01 	tstcc	r1, r1, lsl #26
    4924:	0a000000 	beq	492c <__code_start__-0x36d4>
    4928:	000006ea 	andeq	r0, r0, sl, ror #13
    492c:	10061f01 	andne	r1, r6, r1, lsl #30
    4930:	60000095 	mulvs	r0, r5, r0
    4934:	01000000 	mrseq	r0, (UNDEF: 0)
    4938:	0001d59c 	muleq	r1, ip, r5
    493c:	07e50b00 	strbeq	r0, [r5, r0, lsl #22]!
    4940:	2c010000 	stccs	0, cr0, [r1], {-0}
    4944:	00002c0f 	andeq	r2, r0, pc, lsl #24
    4948:	10001c00 	andne	r1, r0, r0, lsl #24
    494c:	07860b20 	streq	r0, [r6, r0, lsr #22]
    4950:	2d010000 	stccs	0, cr0, [r1, #-0]
    4954:	00002c0f 	andeq	r2, r0, pc, lsl #24
    4958:	10002400 	andne	r2, r0, r0, lsl #8
    495c:	07b20b20 	ldreq	r0, [r2, r0, lsr #22]!
    4960:	2e010000 	cdpcs	0, 0, cr0, cr1, cr0, {0}
    4964:	00002c0f 	andeq	r2, r0, pc, lsl #24
    4968:	00000000 	andeq	r0, r0, r0
    496c:	07cc0c5a 			; <UNDEFINED> instruction: 0x07cc0c5a
    4970:	2f010000 	svccs	0x00010000
    4974:	00002c0f 	andeq	r2, r0, pc, lsl #24
    4978:	ef0d2000 	svc	0x000d2000
    497c:	10000001 	andne	r0, r0, r1
    4980:	02000095 	andeq	r0, r0, #149, 0	; 0x95
    4984:	00001268 	andeq	r1, r0, r8, ror #4
    4988:	4c082001 	stcmi	0, cr2, [r8], {1}
    498c:	0e000001 	cdpeq	0, 0, cr0, cr0, cr1, {0}
    4990:	00001268 	andeq	r1, r0, r8, ror #4
    4994:	0002000f 	andeq	r0, r2, pc
    4998:	0030a700 	eorseq	sl, r0, r0, lsl #14
    499c:	0030a300 	eorseq	sl, r0, r0, lsl #6
    49a0:	10000000 	andne	r0, r0, r0
    49a4:	000001d5 	ldrdeq	r0, [r0], -r5
    49a8:	00009524 	andeq	r9, r0, r4, lsr #10
    49ac:	00952401 	addseq	r2, r5, r1, lsl #8
    49b0:	00001000 	andeq	r1, r0, r0
    49b4:	09210100 	stmdbeq	r1!, {r8}
    49b8:	00000173 	andeq	r0, r0, r3, ror r1
    49bc:	0001e20f 	andeq	lr, r1, pc, lsl #4
    49c0:	0030ce00 	eorseq	ip, r0, r0, lsl #28
    49c4:	0030c600 	eorseq	ip, r0, r0, lsl #12
    49c8:	38110000 	ldmdacc	r1, {}	; <UNPREDICTABLE>
    49cc:	4f000095 	svcmi	0x00000095
    49d0:	11000002 	tstne	r0, r2
    49d4:	0000953c 	andeq	r9, r0, ip, lsr r5
    49d8:	0000025c 	andeq	r0, r0, ip, asr r2
    49dc:	00954412 	addseq	r4, r5, r2, lsl r4
    49e0:	00026800 	andeq	r6, r2, r0, lsl #16
    49e4:	00019800 	andeq	r9, r1, r0, lsl #16
    49e8:	50011300 	andpl	r1, r1, r0, lsl #6
    49ec:	12003a01 	andne	r3, r0, #4096	; 0x1000
    49f0:	00009550 	andeq	r9, r0, r0, asr r5
    49f4:	00000274 	andeq	r0, r0, r4, ror r2
    49f8:	000001b8 			; <UNDEFINED> instruction: 0x000001b8
    49fc:	05500113 	ldrbeq	r0, [r0, #-275]	; 0xfffffeed
    4a00:	1000240c 	andne	r2, r0, ip, lsl #8
    4a04:	51011320 	tstpl	r1, r0, lsr #6
    4a08:	00010c05 	andeq	r0, r1, r5, lsl #24
    4a0c:	14005a00 	strne	r5, [r0], #-2560	; 0xfffff600
    4a10:	0000955c 	andeq	r9, r0, ip, asr r5
    4a14:	00000274 	andeq	r0, r0, r4, ror r2
    4a18:	05500113 	ldrbeq	r0, [r0, #-275]	; 0xfffffeed
    4a1c:	10001c0c 	andne	r1, r0, ip, lsl #24
    4a20:	51011320 	tstpl	r1, r0, lsr #6
    4a24:	00200c05 	eoreq	r0, r0, r5, lsl #24
    4a28:	00005a00 	andeq	r5, r0, r0, lsl #20
    4a2c:	00078e15 	andeq	r8, r7, r5, lsl lr
    4a30:	06170100 	ldreq	r0, [r7], -r0, lsl #2
    4a34:	0001ef01 	andeq	lr, r1, r1, lsl #30
    4a38:	07ed0900 	strbeq	r0, [sp, r0, lsl #18]!
    4a3c:	18010000 	stmdane	r1, {}	; <UNPREDICTABLE>
    4a40:	0000310e 	andeq	r3, r0, lr, lsl #2
    4a44:	be160000 	cdplt	0, 1, cr0, cr6, cr0, {0}
    4a48:	01000007 	tsteq	r0, r7
    4a4c:	0025050e 	eoreq	r0, r5, lr, lsl #10
    4a50:	0d010000 	stceq	0, cr0, [r1, #-0]
    4a54:	09000002 	stmdbeq	r0, {r1}
    4a58:	000007ed 	andeq	r0, r0, sp, ror #15
    4a5c:	310e0f01 	tstcc	lr, r1, lsl #30
    4a60:	00000000 	andeq	r0, r0, r0
    4a64:	0001ef17 	andeq	lr, r1, r7, lsl pc
    4a68:	0094e400 	addseq	lr, r4, r0, lsl #8
    4a6c:	00001800 	andeq	r1, r0, r0, lsl #16
    4a70:	2e9c0100 	fmlcse	f0, f4, f0
    4a74:	0f000002 	svceq	0x00000002
    4a78:	00000200 	andeq	r0, r0, r0, lsl #4
    4a7c:	0000310b 	andeq	r3, r0, fp, lsl #2
    4a80:	00003107 	andeq	r3, r0, r7, lsl #2
    4a84:	01d51700 	bicseq	r1, r5, r0, lsl #14
    4a88:	94fc0000 	ldrbtls	r0, [ip], #0
    4a8c:	00140000 	andseq	r0, r4, r0
    4a90:	9c010000 	stcls	0, cr0, [r1], {-0}
    4a94:	0000024f 	andeq	r0, r0, pc, asr #4
    4a98:	0001e20f 	andeq	lr, r1, pc, lsl #4
    4a9c:	00313200 	eorseq	r3, r1, r0, lsl #4
    4aa0:	00312a00 	eorseq	r2, r1, r0, lsl #20
    4aa4:	77180000 	ldrvc	r0, [r8, -r0]
    4aa8:	77000007 	strvc	r0, [r0, -r7]
    4aac:	02000007 	andeq	r0, r0, #7, 0
    4ab0:	19060136 	stmdbne	r6, {r1, r2, r4, r5, r8}
    4ab4:	00000710 	andeq	r0, r0, r0, lsl r7
    4ab8:	00000710 	andeq	r0, r0, r0, lsl r7
    4abc:	19064d02 	stmdbne	r6, {r1, r8, sl, fp, lr}
    4ac0:	0000009b 	muleq	r0, fp, r0
    4ac4:	0000009b 	muleq	r0, fp, r0
    4ac8:	19065802 	stmdbne	r6, {r1, fp, ip, lr}
    4acc:	00000383 	andeq	r0, r0, r3, lsl #7
    4ad0:	00000383 	andeq	r0, r0, r3, lsl #7
    4ad4:	0006ad02 	andeq	sl, r6, r2, lsl #26
    4ad8:	0000053f 	andeq	r0, r0, pc, lsr r5
    4adc:	10780004 	rsbsne	r0, r8, r4
    4ae0:	01040000 	mrseq	r0, (UNDEF: 4)
    4ae4:	00000499 	muleq	r0, r9, r4
    4ae8:	0008080c 	andeq	r0, r8, ip, lsl #16
    4aec:	00042d00 	andeq	r2, r4, r0, lsl #26
    4af0:	00957000 	addseq	r7, r5, r0
    4af4:	00011c00 	andeq	r1, r1, r0, lsl #24
    4af8:	00239a00 	eoreq	r9, r3, r0, lsl #20
    4afc:	05040200 	streq	r0, [r4, #-512]	; 0xfffffe00
    4b00:	00746e69 	rsbseq	r6, r4, r9, ror #28
    4b04:	9d070403 	cfstrsls	mvf0, [r7, #-12]
    4b08:	03000001 	movweq	r0, #1
    4b0c:	008f0601 	addeq	r0, pc, r1, lsl #12
    4b10:	02030000 	andeq	r0, r3, #0, 0
    4b14:	0001d405 	andeq	sp, r1, r5, lsl #8
    4b18:	05040300 	streq	r0, [r4, #-768]	; 0xfffffd00
    4b1c:	000001bf 			; <UNDEFINED> instruction: 0x000001bf
    4b20:	ba050803 	blt	146b34 <__bss_end__+0x13c64c>
    4b24:	03000001 	movweq	r0, #1
    4b28:	008d0801 	addeq	r0, sp, r1, lsl #16
    4b2c:	02030000 	andeq	r0, r3, #0, 0
    4b30:	0000a407 	andeq	sl, r0, r7, lsl #8
    4b34:	07040300 	streq	r0, [r4, -r0, lsl #6]
    4b38:	00000198 	muleq	r0, r8, r1
    4b3c:	93070803 	movwls	r0, #30723	; 0x7803
    4b40:	04000001 	streq	r0, [r0], #-1
    4b44:	00000025 	andeq	r0, r0, r5, lsr #32
    4b48:	0000007a 	andeq	r0, r0, sl, ror r0
    4b4c:	00002505 	andeq	r2, r0, r5, lsl #10
    4b50:	c8060000 	stmdagt	r6, {}	; <UNPREDICTABLE>
    4b54:	02000001 	andeq	r0, r0, #1, 0
    4b58:	00860e1c 	addeq	r0, r6, ip, lsl lr
    4b5c:	04070000 	streq	r0, [r7], #-0
    4b60:	0000006b 	andeq	r0, r0, fp, rrx
    4b64:	00002504 	andeq	r2, r0, r4, lsl #10
    4b68:	00009b00 	andeq	r9, r0, r0, lsl #22
    4b6c:	009b0500 	addseq	r0, fp, r0, lsl #10
    4b70:	07000000 	streq	r0, [r0, -r0]
    4b74:	0000a804 	andeq	sl, r0, r4, lsl #16
    4b78:	08010300 	stmdaeq	r1, {r8, r9}
    4b7c:	00000096 	muleq	r0, r6, r0
    4b80:	0000a108 	andeq	sl, r0, r8, lsl #2
    4b84:	05970600 	ldreq	r0, [r7, #1536]	; 0x600
    4b88:	21020000 	mrscs	r0, (UNDEF: 2)
    4b8c:	0000b90e 	andeq	fp, r0, lr, lsl #18
    4b90:	8c040700 	stchi	7, cr0, [r4], {-0}
    4b94:	09000000 	stmdbeq	r0, {}	; <UNPREDICTABLE>
    4b98:	000007fe 	strdeq	r0, [r0], -lr
    4b9c:	38061e01 	stmdacc	r6, {r0, r9, sl, fp, ip}
    4ba0:	54000096 	strpl	r0, [r0], #-150	; 0xffffff6a
    4ba4:	01000000 	mrseq	r0, (UNDEF: 0)
    4ba8:	00020b9c 	muleq	r2, ip, fp
    4bac:	65730a00 	ldrbvs	r0, [r3, #-2560]!	; 0xfffff600
    4bb0:	1e010063 	cdpne	0, 0, cr0, cr1, cr3, {3}
    4bb4:	00002c19 	andeq	r2, r0, r9, lsl ip
    4bb8:	00316f00 	eorseq	r6, r1, r0, lsl #30
    4bbc:	00316b00 	eorseq	r6, r1, r0, lsl #22
    4bc0:	020b0b00 	andeq	r0, fp, #0, 22
    4bc4:	96380000 	ldrtls	r0, [r8], -r0
    4bc8:	48020000 	stmdami	r2, {}	; <UNPREDICTABLE>
    4bcc:	01000013 	tsteq	r0, r3, lsl r0
    4bd0:	180c051f 	stmdane	ip, {r0, r1, r2, r3, r4, r8, sl}
    4bd4:	94000002 	strls	r0, [r0], #-2
    4bd8:	90000031 	andls	r0, r0, r1, lsr r0
    4bdc:	0d000031 	stceq	0, cr0, [r0, #-196]	; 0xffffff3c
    4be0:	00000224 	andeq	r0, r0, r4, lsr #4
    4be4:	0000964c 	andeq	r9, r0, ip, asr #12
    4be8:	00964c00 	addseq	r4, r6, r0, lsl #24
    4bec:	00004000 	andeq	r4, r0, r0
    4bf0:	051c0100 	ldreq	r0, [ip, #-256]	; 0xffffff00
    4bf4:	0002310c 	andeq	r3, r2, ip, lsl #2
    4bf8:	0031c100 	eorseq	ip, r1, r0, lsl #2
    4bfc:	0031bf00 	eorseq	fp, r1, r0, lsl #30
    4c00:	023c0e00 	eorseq	r0, ip, #0, 28
    4c04:	31d60000 	bicscc	r0, r6, r0
    4c08:	31d40000 	bicscc	r0, r4, r0
    4c0c:	550f0000 	strpl	r0, [pc, #-0]	; 4c14 <__code_start__-0x33ec>
    4c10:	4c000002 	stcmi	0, cr0, [r0], {2}
    4c14:	02000096 	andeq	r0, r0, #150, 0	; 0x96
    4c18:	0000964c 	andeq	r9, r0, ip, asr #12
    4c1c:	00000014 	andeq	r0, r0, r4, lsl r0
    4c20:	9c131301 	ldcls	3, cr1, [r3], {1}
    4c24:	0e000001 	cdpeq	0, 0, cr0, cr0, cr1, {0}
    4c28:	00000266 	andeq	r0, r0, r6, ror #4
    4c2c:	000031ed 	andeq	r3, r0, sp, ror #3
    4c30:	000031e9 	andeq	r3, r0, r9, ror #3
    4c34:	0002710f 	andeq	r7, r2, pc, lsl #2
    4c38:	00965000 	addseq	r5, r6, r0
    4c3c:	96500100 	ldrbls	r0, [r0], -r0, lsl #2
    4c40:	000c0000 	andeq	r0, ip, r0
    4c44:	0d010000 	stceq	0, cr0, [r1, #-0]
    4c48:	00018912 	andeq	r8, r1, r2, lsl r9
    4c4c:	96581000 	ldrbls	r1, [r8], -r0
    4c50:	052a0000 	streq	r0, [sl, #-0]!
    4c54:	01110000 	tsteq	r1, r0
    4c58:	040c0550 	streq	r0, [ip], #-1360	; 0xfffffab0
    4c5c:	00200030 	eoreq	r0, r0, r0, lsr r0
    4c60:	96501200 	ldrbls	r1, [r0], -r0, lsl #4
    4c64:	05360000 	ldreq	r0, [r6, #-0]!
    4c68:	60120000 	andsvs	r0, r2, r0
    4c6c:	36000096 			; <UNDEFINED> instruction: 0x36000096
    4c70:	00000005 	andeq	r0, r0, r5
    4c74:	00024713 	andeq	r4, r2, r3, lsl r7
    4c78:	00136000 	andseq	r6, r3, r0
    4c7c:	02481400 	subeq	r1, r8, #0, 8
    4c80:	550b0000 	strpl	r0, [fp, #-0]
    4c84:	64000002 	strvs	r0, [r0], #-2
    4c88:	02000096 	andeq	r0, r0, #150, 0	; 0x96
    4c8c:	00001378 	andeq	r1, r0, r8, ror r3
    4c90:	15171501 	ldrne	r1, [r7, #-1281]	; 0xfffffaff
    4c94:	00001378 	andeq	r1, r0, r8, ror r3
    4c98:	0002660e 	andeq	r6, r2, lr, lsl #12
    4c9c:	00320d00 	eorseq	r0, r2, r0, lsl #26
    4ca0:	00320b00 	eorseq	r0, r2, r0, lsl #22
    4ca4:	02711600 	rsbseq	r1, r1, #0, 12
    4ca8:	96680000 	strbtls	r0, [r8], -r0
    4cac:	98010000 	stmdals	r1, {}	; <UNPREDICTABLE>
    4cb0:	01000013 	tsteq	r0, r3, lsl r0
    4cb4:	01f3120d 	mvnseq	r1, sp, lsl #4
    4cb8:	70100000 	andsvc	r0, r0, r0
    4cbc:	2a000096 	bcs	4f1c <__code_start__-0x30e4>
    4cc0:	11000005 	tstne	r0, r5
    4cc4:	77025001 	strvc	r5, [r2, -r1]
    4cc8:	12000000 	andne	r0, r0, #0, 0
    4ccc:	00009668 	andeq	r9, r0, r8, ror #12
    4cd0:	00000536 	andeq	r0, r0, r6, lsr r5
    4cd4:	00967c12 	addseq	r7, r6, r2, lsl ip
    4cd8:	00053600 	andeq	r3, r5, r0, lsl #12
    4cdc:	00000000 	andeq	r0, r0, r0
    4ce0:	17000000 	strne	r0, [r0, -r0]
    4ce4:	0000009b 	muleq	r0, fp, r0
    4ce8:	01061b01 	tsteq	r6, r1, lsl #22
    4cec:	00000224 	andeq	r0, r0, r4, lsr #4
    4cf0:	00736d18 	rsbseq	r6, r3, r8, lsl sp
    4cf4:	2c181b01 			; <UNDEFINED> instruction: 0x2c181b01
    4cf8:	00000000 	andeq	r0, r0, r0
    4cfc:	00082b17 	andeq	r2, r8, r7, lsl fp
    4d00:	06120100 	ldreq	r0, [r2], -r0, lsl #2
    4d04:	00025501 	andeq	r5, r2, r1, lsl #10
    4d08:	73751800 	cmnvc	r5, #0, 16
    4d0c:	18120100 	ldmdane	r2, {r8}
    4d10:	0000002c 	andeq	r0, r0, ip, lsr #32
    4d14:	00627219 	rsbeq	r7, r2, r9, lsl r2
    4d18:	2c0e1301 	stccs	3, cr1, [lr], {1}
    4d1c:	1a000000 	bne	4d24 <__code_start__-0x32dc>
    4d20:	00617219 	rsbeq	r7, r1, r9, lsl r2
    4d24:	2c121501 	cfldr32cs	mvfx1, [r2], {1}
    4d28:	00000000 	andeq	r0, r0, r0
    4d2c:	081c1b00 	ldmdaeq	ip, {r8, r9, fp, ip}
    4d30:	09010000 	stmdbeq	r1, {}	; <UNPREDICTABLE>
    4d34:	00002c0a 	andeq	r2, r0, sl, lsl #24
    4d38:	02710100 	rsbseq	r0, r1, #0
    4d3c:	75190000 	ldrvc	r0, [r9, #-0]
    4d40:	0e0d0100 	adfeqe	f0, f5, f0
    4d44:	0000002c 	andeq	r0, r0, ip, lsr #32
    4d48:	08341c00 	ldmdaeq	r4!, {sl, fp, ip}
    4d4c:	04010000 	streq	r0, [r1], #-0
    4d50:	00002c0a 	andeq	r2, r0, sl, lsl #24
    4d54:	711d0100 	tstvc	sp, r0, lsl #2
    4d58:	70000002 	andvc	r0, r0, r2
    4d5c:	0c000095 	stceq	0, cr0, [r0], {149}	; 0x95
    4d60:	01000000 	mrseq	r0, (UNDEF: 0)
    4d64:	0002a59c 	muleq	r2, ip, r5
    4d68:	95781e00 	ldrbls	r1, [r8, #-3584]!	; 0xfffff200
    4d6c:	052a0000 	streq	r0, [sl, #-0]!
    4d70:	01110000 	tsteq	r1, r0
    4d74:	040c0550 	streq	r0, [ip], #-1360	; 0xfffffab0
    4d78:	00200030 	eoreq	r0, r0, r0, lsr r0
    4d7c:	02551d00 	subseq	r1, r5, #0, 26
    4d80:	957c0000 	ldrbls	r0, [ip, #-0]!
    4d84:	00240000 	eoreq	r0, r4, r0
    4d88:	9c010000 	stcls	0, cr0, [r1], {-0}
    4d8c:	00000305 	andeq	r0, r0, r5, lsl #6
    4d90:	0002660e 	andeq	r6, r2, lr, lsl #12
    4d94:	00322400 	eorseq	r2, r2, r0, lsl #8
    4d98:	00322000 	eorseq	r2, r2, r0
    4d9c:	02710f00 	rsbseq	r0, r1, #0, 30
    4da0:	95840000 	strls	r0, [r4]
    4da4:	84010000 	strhi	r0, [r1], #-0
    4da8:	0c000095 	stceq	0, cr0, [r0], {149}	; 0x95
    4dac:	01000000 	mrseq	r0, (UNDEF: 0)
    4db0:	02f2120d 	rscseq	r1, r2, #-805306368	; 0xd0000000
    4db4:	8c100000 	ldchi	0, cr0, [r0], {-0}
    4db8:	2a000095 	bcs	5014 <__code_start__-0x2fec>
    4dbc:	11000005 	tstne	r0, r5
    4dc0:	0c055001 	stceq	0, cr5, [r5], {1}
    4dc4:	20003004 	andcs	r3, r0, r4
    4dc8:	84120000 	ldrhi	r0, [r2], #-0
    4dcc:	36000095 			; <UNDEFINED> instruction: 0x36000095
    4dd0:	12000005 	andne	r0, r0, #5, 0
    4dd4:	00009594 	muleq	r0, r4, r5
    4dd8:	00000536 	andeq	r0, r0, r6, lsr r5
    4ddc:	02241d00 	eoreq	r1, r4, #0, 26
    4de0:	95a00000 	strls	r0, [r0, #0]!
    4de4:	00480000 	subeq	r0, r8, r0
    4de8:	9c010000 	stcls	0, cr0, [r1], {-0}
    4dec:	00000407 	andeq	r0, r0, r7, lsl #8
    4df0:	0002310c 	andeq	r3, r2, ip, lsl #2
    4df4:	00324600 	eorseq	r4, r2, r0, lsl #12
    4df8:	00324200 	eorseq	r4, r2, r0, lsl #4
    4dfc:	023c0e00 	eorseq	r0, ip, #0, 28
    4e00:	32660000 	rsbcc	r0, r6, #0, 0
    4e04:	32640000 	rsbcc	r0, r4, #0, 0
    4e08:	55160000 	ldrpl	r0, [r6, #-0]
    4e0c:	a0000002 	andge	r0, r0, r2
    4e10:	02000095 	andeq	r0, r0, #149, 0	; 0x95
    4e14:	00001290 	muleq	r0, r0, r2
    4e18:	9a131301 	bls	4c9a24 <__bss_end__+0x4bf53c>
    4e1c:	15000003 	strne	r0, [r0, #-3]
    4e20:	00001290 	muleq	r0, r0, r2
    4e24:	0002660e 	andeq	r6, r2, lr, lsl #12
    4e28:	00327d00 	eorseq	r7, r2, r0, lsl #26
    4e2c:	00327900 	eorseq	r7, r2, r0, lsl #18
    4e30:	02710f00 	rsbseq	r0, r1, #0, 30
    4e34:	95ac0000 	strls	r0, [ip, #0]!
    4e38:	ac010000 	stcge	0, cr0, [r1], {-0}
    4e3c:	0c000095 	stceq	0, cr0, [r0], {149}	; 0x95
    4e40:	01000000 	mrseq	r0, (UNDEF: 0)
    4e44:	0386120d 	orreq	r1, r6, #-805306368	; 0xd0000000
    4e48:	b4100000 	ldrlt	r0, [r0], #-0
    4e4c:	2a000095 	bcs	50a8 <__code_start__-0x2f58>
    4e50:	11000005 	tstne	r0, r5
    4e54:	0c055001 	stceq	0, cr5, [r5], {1}
    4e58:	20003004 	andcs	r3, r0, r4
    4e5c:	ac120000 	ldcge	0, cr0, [r2], {-0}
    4e60:	36000095 			; <UNDEFINED> instruction: 0x36000095
    4e64:	12000005 	andne	r0, r0, #5, 0
    4e68:	000095bc 			; <UNDEFINED> instruction: 0x000095bc
    4e6c:	00000536 	andeq	r0, r0, r6, lsr r5
    4e70:	47130000 	ldrmi	r0, [r3, -r0]
    4e74:	a8000002 	stmdage	r0, {r1}
    4e78:	14000012 	strne	r0, [r0], #-18	; 0xffffffee
    4e7c:	00000248 	andeq	r0, r0, r8, asr #4
    4e80:	0002550b 	andeq	r5, r2, fp, lsl #10
    4e84:	0095c000 	addseq	ip, r5, r0
    4e88:	12c00200 	sbcne	r0, r0, #0, 4
    4e8c:	15010000 	strne	r0, [r1, #-0]
    4e90:	12c01517 	sbcne	r1, r0, #96468992	; 0x5c00000
    4e94:	660e0000 	strvs	r0, [lr], -r0
    4e98:	9d000002 	stcls	0, cr0, [r0, #-8]
    4e9c:	9b000032 	blls	4f6c <__code_start__-0x3094>
    4ea0:	16000032 			; <UNDEFINED> instruction: 0x16000032
    4ea4:	00000271 	andeq	r0, r0, r1, ror r2
    4ea8:	000095c4 	andeq	r9, r0, r4, asr #11
    4eac:	0012e001 	andseq	lr, r2, r1
    4eb0:	120d0100 	andne	r0, sp, #0
    4eb4:	000003f1 	strdeq	r0, [r0], -r1
    4eb8:	0095cc10 	addseq	ip, r5, r0, lsl ip
    4ebc:	00052a00 	andeq	r2, r5, r0, lsl #20
    4ec0:	50011100 	andpl	r1, r1, r0, lsl #2
    4ec4:	00007702 	andeq	r7, r0, r2, lsl #14
    4ec8:	95c41200 	strbls	r1, [r4, #512]	; 0x200
    4ecc:	05360000 	ldreq	r0, [r6, #-0]!
    4ed0:	d8120000 	ldmdale	r2, {}	; <UNPREDICTABLE>
    4ed4:	36000095 			; <UNDEFINED> instruction: 0x36000095
    4ed8:	00000005 	andeq	r0, r0, r5
    4edc:	1d000000 	stcne	0, cr0, [r0, #-0]
    4ee0:	0000020b 	andeq	r0, r0, fp, lsl #4
    4ee4:	000095e8 	andeq	r9, r0, r8, ror #11
    4ee8:	00000050 	andeq	r0, r0, r0, asr r0
    4eec:	052a9c01 	streq	r9, [sl, #-3073]!	; 0xfffff3ff
    4ef0:	180c0000 	stmdane	ip, {}	; <UNPREDICTABLE>
    4ef4:	b4000002 	strlt	r0, [r0], #-2
    4ef8:	b0000032 	andlt	r0, r0, r2, lsr r0
    4efc:	0d000032 	stceq	0, cr0, [r0, #-200]	; 0xffffff38
    4f00:	00000224 	andeq	r0, r0, r4, lsr #4
    4f04:	000095f8 	strdeq	r9, [r0], -r8
    4f08:	0095f800 	addseq	pc, r5, r0, lsl #16
    4f0c:	00004000 	andeq	r4, r0, r0
    4f10:	051c0100 	ldreq	r0, [ip, #-256]	; 0xffffff00
    4f14:	0002310c 	andeq	r3, r2, ip, lsl #2
    4f18:	0032d700 	eorseq	sp, r2, r0, lsl #14
    4f1c:	0032d500 	eorseq	sp, r2, r0, lsl #10
    4f20:	023c0e00 	eorseq	r0, ip, #0, 28
    4f24:	32ec0000 	rsccc	r0, ip, #0, 0
    4f28:	32ea0000 	rsccc	r0, sl, #0, 0
    4f2c:	550f0000 	strpl	r0, [pc, #-0]	; 4f34 <__code_start__-0x30cc>
    4f30:	f8000002 			; <UNDEFINED> instruction: 0xf8000002
    4f34:	02000095 	andeq	r0, r0, #149, 0	; 0x95
    4f38:	000095f8 	strdeq	r9, [r0], -r8
    4f3c:	00000014 	andeq	r0, r0, r4, lsl r0
    4f40:	bc131301 	ldclt	3, cr1, [r3], {1}
    4f44:	0e000004 	cdpeq	0, 0, cr0, cr0, cr4, {0}
    4f48:	00000266 	andeq	r0, r0, r6, ror #4
    4f4c:	00003303 	andeq	r3, r0, r3, lsl #6
    4f50:	000032ff 	strdeq	r3, [r0], -pc	; <UNPREDICTABLE>
    4f54:	0002710f 	andeq	r7, r2, pc, lsl #2
    4f58:	0095fc00 	addseq	pc, r5, r0, lsl #24
    4f5c:	95fc0100 	ldrbls	r0, [ip, #256]!	; 0x100
    4f60:	000c0000 	andeq	r0, ip, r0
    4f64:	0d010000 	stceq	0, cr0, [r1, #-0]
    4f68:	0004a912 	andeq	sl, r4, r2, lsl r9
    4f6c:	96041000 	strls	r1, [r4], -r0
    4f70:	052a0000 	streq	r0, [sl, #-0]!
    4f74:	01110000 	tsteq	r1, r0
    4f78:	040c0550 	streq	r0, [ip], #-1360	; 0xfffffab0
    4f7c:	00200030 	eoreq	r0, r0, r0, lsr r0
    4f80:	95fc1200 	ldrbls	r1, [ip, #512]!	; 0x200
    4f84:	05360000 	ldreq	r0, [r6, #-0]!
    4f88:	0c120000 	ldceq	0, cr0, [r2], {-0}
    4f8c:	36000096 			; <UNDEFINED> instruction: 0x36000096
    4f90:	00000005 	andeq	r0, r0, r5
    4f94:	00024713 	andeq	r4, r2, r3, lsl r7
    4f98:	0012f800 	andseq	pc, r2, r0, lsl #16
    4f9c:	02481400 	subeq	r1, r8, #0, 8
    4fa0:	550b0000 	strpl	r0, [fp, #-0]
    4fa4:	10000002 	andne	r0, r0, r2
    4fa8:	02000096 	andeq	r0, r0, #150, 0	; 0x96
    4fac:	00001310 	andeq	r1, r0, r0, lsl r3
    4fb0:	15171501 	ldrne	r1, [r7, #-1281]	; 0xfffffaff
    4fb4:	00001310 	andeq	r1, r0, r0, lsl r3
    4fb8:	0002660e 	andeq	r6, r2, lr, lsl #12
    4fbc:	00332300 	eorseq	r2, r3, r0, lsl #6
    4fc0:	00332100 	eorseq	r2, r3, r0, lsl #2
    4fc4:	02711600 	rsbseq	r1, r1, #0, 12
    4fc8:	96140000 	ldrls	r0, [r4], -r0
    4fcc:	30010000 	andcc	r0, r1, r0
    4fd0:	01000013 	tsteq	r0, r3, lsl r0
    4fd4:	0513120d 	ldreq	r1, [r3, #-525]	; 0xfffffdf3
    4fd8:	1c100000 	ldcne	0, cr0, [r0], {-0}
    4fdc:	2a000096 	bcs	523c <__code_start__-0x2dc4>
    4fe0:	11000005 	tstne	r0, r5
    4fe4:	77025001 	strvc	r5, [r2, -r1]
    4fe8:	12000000 	andne	r0, r0, #0, 0
    4fec:	00009614 	andeq	r9, r0, r4, lsl r6
    4ff0:	00000536 	andeq	r0, r0, r6, lsr r5
    4ff4:	00962812 	addseq	r2, r6, r2, lsl r8
    4ff8:	00053600 	andeq	r3, r5, r0, lsl #12
    4ffc:	00000000 	andeq	r0, r0, r0
    5000:	931f0000 	tstls	pc, #0, 0
    5004:	93000003 	movwls	r0, #3
    5008:	02000003 	andeq	r0, r0, #3, 0
    500c:	f21f0ac2 	vpmax.s16	q0, <illegal reg q15.5>, q1
    5010:	f2000007 	vhadd.s8	d0, d0, d7
    5014:	02000007 	andeq	r0, r0, #7, 0
    5018:	cd00069c 	stcgt	6, cr0, [r0, #-624]	; 0xfffffd90
    501c:	04000005 	streq	r0, [r0], #-5
    5020:	00124700 	andseq	r4, r2, r0, lsl #14
    5024:	af010400 	svcge	0x00010400
    5028:	0c000008 	stceq	0, cr0, [r0], {8}
    502c:	00000863 	andeq	r0, r0, r3, ror #16
    5030:	0000097e 	andeq	r0, r0, lr, ror r9
    5034:	0000968c 	andeq	r9, r0, ip, lsl #13
    5038:	000001f0 	strdeq	r0, [r0], -r0	; <UNPREDICTABLE>
    503c:	00002598 	muleq	r0, r8, r5
    5040:	69050402 	stmdbvs	r5, {r1, sl}
    5044:	0300746e 	movweq	r7, #1134	; 0x46e
    5048:	019d0704 	orrseq	r0, sp, r4, lsl #14
    504c:	2c040000 	stccs	0, cr0, [r4], {-0}
    5050:	03000000 	movweq	r0, #0
    5054:	008f0601 	addeq	r0, pc, r1, lsl #12
    5058:	02030000 	andeq	r0, r3, #0, 0
    505c:	0001d405 	andeq	sp, r1, r5, lsl #8
    5060:	05040300 	streq	r0, [r4, #-768]	; 0xfffffd00
    5064:	000001bf 			; <UNDEFINED> instruction: 0x000001bf
    5068:	ba050803 	blt	14707c <__bss_end__+0x13cb94>
    506c:	03000001 	movweq	r0, #1
    5070:	008d0801 	addeq	r0, sp, r1, lsl #16
    5074:	02030000 	andeq	r0, r3, #0, 0
    5078:	0000a407 	andeq	sl, r0, r7, lsl #8
    507c:	02640500 	rsbeq	r0, r4, #0, 10
    5080:	34050000 	strcc	r0, [r5], #-0
    5084:	00006e19 	andeq	r6, r0, r9, lsl lr
    5088:	07040300 	streq	r0, [r4, -r0, lsl #6]
    508c:	00000198 	muleq	r0, r8, r1
    5090:	93070803 	movwls	r0, #30723	; 0x7803
    5094:	03000001 	movweq	r0, #1
    5098:	00960801 	addseq	r0, r6, r1, lsl #16
    509c:	07060000 	streq	r0, [r6, -r0]
    50a0:	00005401 	andeq	r5, r0, r1, lsl #8
    50a4:	0e0c0400 	cfcpyseq	mvf0, mvf12
    50a8:	000000c2 	andeq	r0, r0, r2, asr #1
    50ac:	00045407 	andeq	r5, r4, r7, lsl #8
    50b0:	dc070000 	stcle	0, cr0, [r7], {-0}
    50b4:	01000002 	tsteq	r0, r2
    50b8:	00039907 	andeq	r9, r3, r7, lsl #18
    50bc:	a8070400 	stmdage	r7, {sl}
    50c0:	05000003 	streq	r0, [r0, #-3]
    50c4:	0003b707 	andeq	fp, r3, r7, lsl #14
    50c8:	c6070600 	strgt	r0, [r7], -r0, lsl #12
    50cc:	07000003 	streq	r0, [r0, -r3]
    50d0:	00041e07 	andeq	r1, r4, r7, lsl #28
    50d4:	d5070300 	strle	r0, [r7, #-768]	; 0xfffffd00
    50d8:	02000003 	andeq	r0, r0, #3, 0
    50dc:	09720800 	ldmdbeq	r2!, {fp}^
    50e0:	022c0000 	eoreq	r0, ip, #0, 0
    50e4:	015e0806 	cmpeq	lr, r6, lsl #16
    50e8:	69090000 	stmdbvs	r9, {}	; <UNPREDICTABLE>
    50ec:	0902006f 	stmdbeq	r2, {r0, r1, r2, r3, r5, r6}
    50f0:	00003309 	andeq	r3, r0, r9, lsl #6
    50f4:	69090000 	stmdbvs	r9, {}	; <UNPREDICTABLE>
    50f8:	02007265 	andeq	r7, r0, #1342177286	; 0x50000006
    50fc:	0033090a 	eorseq	r0, r3, sl, lsl #18
    5100:	09040000 	stmdbeq	r4, {}	; <UNPREDICTABLE>
    5104:	00726969 	rsbseq	r6, r2, r9, ror #18
    5108:	33091102 	movwcc	r1, #37122	; 0x9102
    510c:	08000000 	stmdaeq	r0, {}	; <UNPREDICTABLE>
    5110:	72636c09 	rsbvc	r6, r3, #2304	; 0x900
    5114:	09130200 	ldmdbeq	r3, {r9}
    5118:	00000033 	andeq	r0, r0, r3, lsr r0
    511c:	636d090c 	cmnvs	sp, #12, 18	; 0x30000
    5120:	14020072 	strne	r0, [r2], #-114	; 0xffffff8e
    5124:	00003309 	andeq	r3, r0, r9, lsl #6
    5128:	6c091000 	stcvs	0, cr1, [r9], {-0}
    512c:	02007273 	andeq	r7, r0, #805306375	; 0x30000007
    5130:	00330915 	eorseq	r0, r3, r5, lsl r9
    5134:	09140000 	ldmdbeq	r4, {}	; <UNPREDICTABLE>
    5138:	0072736d 	rsbseq	r7, r2, sp, ror #6
    513c:	33091602 	movwcc	r1, #38402	; 0x9602
    5140:	18000000 	stmdane	r0, {}	; <UNPREDICTABLE>
    5144:	00096a0a 	andeq	r6, r9, sl, lsl #20
    5148:	09170200 	ldmdbeq	r7, {r9}
    514c:	00000033 	andeq	r0, r0, r3, lsr r0
    5150:	09420a1c 	stmdbeq	r2, {r2, r3, r4, r9, fp}^
    5154:	1b020000 	blne	8515c <__bss_end__+0x7ac74>
    5158:	00003309 	andeq	r3, r0, r9, lsl #6
    515c:	500a2000 	andpl	r2, sl, r0
    5160:	02000008 	andeq	r0, r0, #8, 0
    5164:	0033091d 	eorseq	r0, r3, sp, lsl r9
    5168:	0a240000 	beq	905170 <__bss_end__+0x8fac88>
    516c:	00000894 	muleq	r0, r4, r8
    5170:	33091e02 	movwcc	r1, #40450	; 0x9e02
    5174:	28000000 	stmdacs	r0, {}	; <UNPREDICTABLE>
    5178:	08990b00 	ldmeq	r9, {r8, r9, fp}
    517c:	08010000 	stmdaeq	r1, {}	; <UNPREDICTABLE>
    5180:	00017409 	andeq	r7, r1, r9, lsl #8
    5184:	21500400 	cmpcs	r0, r0, lsl #8
    5188:	33040c20 	movwcc	r0, #19488	; 0x4c20
    518c:	0d000000 	stceq	0, cr0, [r0, #-0]
    5190:	0000016e 	andeq	r0, r0, lr, ror #2
    5194:	0008780b 	andeq	r7, r8, fp, lsl #16
    5198:	23290100 			; <UNDEFINED> instruction: 0x23290100
    519c:	0000018f 	andeq	r0, r0, pc, lsl #3
    51a0:	20215040 	eorcs	r5, r1, r0, asr #32
    51a4:	00c2040c 	sbceq	r0, r2, ip, lsl #8
    51a8:	890d0000 	stmdbhi	sp, {}	; <UNPREDICTABLE>
    51ac:	0e000001 	cdpeq	0, 0, cr0, cr0, cr1, {0}
    51b0:	00000710 	andeq	r0, r0, r0, lsl r7
    51b4:	4406cc01 	strmi	ip, [r6], #-3073	; 0xfffff3ff
    51b8:	14000098 	strne	r0, [r0], #-152	; 0xffffff68
    51bc:	01000000 	mrseq	r0, (UNDEF: 0)
    51c0:	0001b49c 	muleq	r1, ip, r4
    51c4:	984c0f00 	stmdals	ip, {r8, r9, sl, fp}^
    51c8:	01b40000 			; <UNDEFINED> instruction: 0x01b40000
    51cc:	10000000 	andne	r0, r0, r0
    51d0:	0000087d 	andeq	r0, r0, sp, ror r8
    51d4:	2505b601 	strcs	fp, [r5, #-1537]	; 0xfffff9ff
    51d8:	24000000 	strcs	r0, [r0], #-0
    51dc:	20000098 	mulcs	r0, r8, r0
    51e0:	01000000 	mrseq	r0, (UNDEF: 0)
    51e4:	0001eb9c 	muleq	r1, ip, fp
    51e8:	982c0f00 	stmdals	ip!, {r8, r9, sl, fp}
    51ec:	05a00000 	streq	r0, [r0, #0]!
    51f0:	34110000 	ldrcc	r0, [r1], #-0
    51f4:	ac000098 	stcge	0, cr0, [r0], {152}	; 0x98
    51f8:	12000005 	andne	r0, r0, #5, 0
    51fc:	0c055001 	stceq	0, cr5, [r5], {1}
    5200:	20215064 	eorcs	r5, r1, r4, rrx
    5204:	54100000 	ldrpl	r0, [r0], #-0
    5208:	01000009 	tsteq	r0, r9
    520c:	002505b3 	strhteq	r0, [r5], -r3
    5210:	98140000 	ldmdals	r4, {}	; <UNPREDICTABLE>
    5214:	00100000 	andseq	r0, r0, r0
    5218:	9c010000 	stcls	0, cr0, [r1], {-0}
    521c:	00000218 	andeq	r0, r0, r8, lsl r2
    5220:	00981c0f 	addseq	r1, r8, pc, lsl #24
    5224:	0005a000 	andeq	sl, r5, r0
    5228:	98200f00 	stmdals	r0!, {r8, r9, sl, fp}
    522c:	03090000 	movweq	r0, #36864	; 0x9000
    5230:	0e000000 	cdpeq	0, 0, cr0, cr0, cr0, {0}
    5234:	000009bb 			; <UNDEFINED> instruction: 0x000009bb
    5238:	e406ab01 	str	sl, [r6], #-2817	; 0xfffff4ff
    523c:	30000097 	mulcc	r0, r7, r0
    5240:	01000000 	mrseq	r0, (UNDEF: 0)
    5244:	00027c9c 	muleq	r2, ip, ip
    5248:	00631300 	rsbeq	r1, r3, r0, lsl #6
    524c:	2c19ab01 			; <UNDEFINED> instruction: 0x2c19ab01
    5250:	3a000000 	bcc	5258 <__code_start__-0x2da8>
    5254:	36000033 			; <UNDEFINED> instruction: 0x36000033
    5258:	0f000033 	svceq	0x00000033
    525c:	000097f0 	strdeq	r9, [r0], -r0
    5260:	000005a0 	andeq	r0, r0, r0, lsr #11
    5264:	0097f40f 	addseq	pc, r7, pc, lsl #8
    5268:	0002db00 	andeq	sp, r2, r0, lsl #22
    526c:	98081400 	stmdals	r8, {sl, ip}
    5270:	05b80000 	ldreq	r0, [r8, #0]!
    5274:	02720000 	rsbseq	r0, r2, #0, 0
    5278:	01120000 	tsteq	r2, r0
    527c:	400c0550 	andmi	r0, ip, r0, asr r5
    5280:	12202150 	eorne	r2, r0, #20
    5284:	74055101 	strvc	r5, [r5], #-257	; 0xfffffeff
    5288:	1aff0800 	bne	fffc7290 <__bss_end__+0xfffbcda8>
    528c:	980c0f00 	stmdals	ip, {r8, r9, sl, fp}
    5290:	05a00000 	streq	r0, [r0, #0]!
    5294:	10000000 	andne	r0, r0, r0
    5298:	000008a5 	andeq	r0, r0, r5, lsr #17
    529c:	2505a301 	strcs	sl, [r5, #-769]	; 0xfffffcff
    52a0:	b4000000 	strlt	r0, [r0], #-0
    52a4:	30000097 	mulcc	r0, r7, r0
    52a8:	01000000 	mrseq	r0, (UNDEF: 0)
    52ac:	0002db9c 	muleq	r2, ip, fp
    52b0:	00631500 	rsbeq	r1, r3, r0, lsl #10
    52b4:	2509a701 	strcs	sl, [r9, #-1793]	; 0xfffff8ff
    52b8:	5a000000 	bpl	52c0 <__code_start__-0x2d40>
    52bc:	58000033 	stmdapl	r0, {r0, r1, r4, r5}
    52c0:	0f000033 	svceq	0x00000033
    52c4:	000097bc 			; <UNDEFINED> instruction: 0x000097bc
    52c8:	000005a0 	andeq	r0, r0, r0, lsr #11
    52cc:	0097c00f 	addseq	ip, r7, pc
    52d0:	00030900 	andeq	r0, r3, r0, lsl #18
    52d4:	97d01400 	ldrbls	r1, [r0, r0, lsl #8]
    52d8:	05ac0000 	streq	r0, [ip, #0]!
    52dc:	02d10000 	sbcseq	r0, r1, #0, 0
    52e0:	01120000 	tsteq	r2, r0
    52e4:	400c0550 	andmi	r0, ip, r0, asr r5
    52e8:	00202150 	eoreq	r2, r0, r0, asr r1
    52ec:	0097d80f 	addseq	sp, r7, pc, lsl #16
    52f0:	0005a000 	andeq	sl, r5, r0
    52f4:	6a100000 	bvs	4052fc <__bss_end__+0x3fae14>
    52f8:	01000008 	tsteq	r0, r8
    52fc:	00250594 	mlaeq	r5, r4, r5, r0
    5300:	97940000 	ldrls	r0, [r4, r0]
    5304:	00200000 	eoreq	r0, r0, r0
    5308:	9c010000 	stcls	0, cr0, [r1], {-0}
    530c:	00000309 	andeq	r0, r0, r9, lsl #6
    5310:	0097a011 	addseq	sl, r7, r1, lsl r0
    5314:	0005ac00 	andeq	sl, r5, r0, lsl #24
    5318:	50011200 	andpl	r1, r1, r0, lsl #4
    531c:	50640c05 	rsbpl	r0, r4, r5, lsl #24
    5320:	00002021 	andeq	r2, r0, r1, lsr #32
    5324:	00085510 	andeq	r5, r8, r0, lsl r5
    5328:	058b0100 	streq	r0, [fp, #256]	; 0x100
    532c:	00000025 	andeq	r0, r0, r5, lsr #32
    5330:	0000977c 	andeq	r9, r0, ip, ror r7
    5334:	00000018 	andeq	r0, r0, r8, lsl r0
    5338:	03379c01 	teqeq	r7, #256	; 0x100
    533c:	88110000 	ldmdahi	r1, {}	; <UNPREDICTABLE>
    5340:	ac000097 	stcge	0, cr0, [r0], {151}	; 0x97
    5344:	12000005 	andne	r0, r0, #5, 0
    5348:	0c055001 	stceq	0, cr5, [r5], {1}
    534c:	20215064 	eorcs	r5, r1, r4, rrx
    5350:	2e0e0000 	cdpcs	0, 0, cr0, cr14, cr0, {0}
    5354:	01000007 	tsteq	r0, r7
    5358:	96cc0645 	strbls	r0, [ip], r5, asr #12
    535c:	00b00000 	adcseq	r0, r0, r0
    5360:	9c010000 	stcls	0, cr0, [r1], {-0}
    5364:	00000484 	andeq	r0, r0, r4, lsl #9
    5368:	00084716 	andeq	r4, r8, r6, lsl r7
    536c:	0e7e0100 	rpweqe	f0, f6, f0
    5370:	00000062 	andeq	r0, r0, r2, rrx
    5374:	dc14010e 	ldfles	f0, [r4], {14}
    5378:	c4000096 	strgt	r0, [r0], #-150	; 0xffffff6a
    537c:	73000005 	movwvc	r0, #5
    5380:	12000003 	andne	r0, r0, #3, 0
    5384:	3e015001 	cdpcc	0, 0, cr5, cr1, cr1, {0}
    5388:	01510112 	cmpeq	r1, r2, lsl r1
    538c:	e8140032 	ldmda	r4, {r1, r4, r5}
    5390:	c4000096 	strgt	r0, [r0], #-150	; 0xffffff6a
    5394:	8b000005 	blhi	53b0 <__code_start__-0x2c50>
    5398:	12000003 	andne	r0, r0, #3, 0
    539c:	3f015001 	svccc	0x00015001
    53a0:	01510112 	cmpeq	r1, r2, lsl r1
    53a4:	ec0f0032 	stc	0, cr0, [pc], {50}	; 0x32
    53a8:	a0000096 	mulge	r0, r6, r0
    53ac:	14000005 	strne	r0, [r0], #-5
    53b0:	000096f8 	strdeq	r9, [r0], -r8
    53b4:	0000053d 	andeq	r0, r0, sp, lsr r5
    53b8:	000003b0 			; <UNDEFINED> instruction: 0x000003b0
    53bc:	05500112 	ldrbeq	r0, [r0, #-274]	; 0xfffffeee
    53c0:	2150040c 	cmpcs	r0, ip, lsl #8
    53c4:	51011220 	tstpl	r1, r0, lsr #4
    53c8:	0f003101 	svceq	0x00003101
    53cc:	000096fc 	strdeq	r9, [r0], -ip
    53d0:	000005a0 	andeq	r0, r0, r0, lsr #11
    53d4:	00970c14 	addseq	r0, r7, r4, lsl ip
    53d8:	0005b800 	andeq	fp, r5, r0, lsl #16
    53dc:	0003d200 	andeq	sp, r3, r0, lsl #4
    53e0:	50011200 	andpl	r1, r1, r0, lsl #4
    53e4:	12007402 	andne	r7, r0, #33554432	; 0x2000000
    53e8:	30015101 	andcc	r5, r1, r1, lsl #2
    53ec:	97181400 	ldrls	r1, [r8, -r0, lsl #8]
    53f0:	05b80000 	ldreq	r0, [r8, #0]!
    53f4:	03ee0000 	mvneq	r0, #0, 0
    53f8:	01120000 	tsteq	r2, r0
    53fc:	440c0550 	strmi	r0, [ip], #-1360	; 0xfffffab0
    5400:	12202150 	eorne	r2, r0, #20
    5404:	30015101 	andcc	r5, r1, r1, lsl #2
    5408:	97241400 	strls	r1, [r4, -r0, lsl #8]!
    540c:	05b80000 	ldreq	r0, [r8, #0]!
    5410:	040a0000 	streq	r0, [sl], #-0
    5414:	01120000 	tsteq	r2, r0
    5418:	4c0c0550 	cfstr32mi	mvfx0, [ip], {80}	; 0x50
    541c:	12202150 	eorne	r2, r0, #20
    5420:	33015101 	movwcc	r5, #4353	; 0x1101
    5424:	97301400 	ldrls	r1, [r0, -r0, lsl #8]!
    5428:	05b80000 	ldreq	r0, [r8, #0]!
    542c:	04260000 	strteq	r0, [r6], #-0
    5430:	01120000 	tsteq	r2, r0
    5434:	500c0550 	andpl	r0, ip, r0, asr r5
    5438:	12202150 	eorne	r2, r0, #20
    543c:	30015101 	andcc	r5, r1, r1, lsl #2
    5440:	973c1400 	ldrls	r1, [ip, -r0, lsl #8]!
    5444:	05b80000 	ldreq	r0, [r8, #0]!
    5448:	04430000 	strbeq	r0, [r3], #-0
    544c:	01120000 	tsteq	r2, r0
    5450:	480c0550 	stmdami	ip, {r4, r6, r8, sl}
    5454:	12202150 	eorne	r2, r0, #20
    5458:	08025101 	stmdaeq	r2, {r0, r8, ip, lr}
    545c:	481400c7 	ldmdami	r4, {r0, r1, r2, r6, r7}
    5460:	b8000097 	stmdalt	r0, {r0, r1, r2, r4, r7}
    5464:	61000005 	tstvs	r0, r5
    5468:	12000004 	andne	r0, r0, #4, 0
    546c:	0c055001 	stceq	0, cr5, [r5], {1}
    5470:	20215068 	eorcs	r5, r1, r8, rrx
    5474:	03510112 	cmpeq	r1, #-2147483644	; 0x80000004
    5478:	00010e0a 	andeq	r0, r1, sl, lsl #28
    547c:	00975414 	addseq	r5, r7, r4, lsl r4
    5480:	0005b800 	andeq	fp, r5, r0, lsl #16
    5484:	00047a00 	andeq	r7, r4, r0, lsl #20
    5488:	50011200 	andpl	r1, r1, r0, lsl #4
    548c:	12007402 	andne	r7, r0, #33554432	; 0x2000000
    5490:	33015101 	movwcc	r5, #4353	; 0x1101
    5494:	97580f00 	ldrbls	r0, [r8, -r0, lsl #30]
    5498:	05a00000 	streq	r0, [r0, #0]!
    549c:	0e000000 	cdpeq	0, 0, cr0, cr0, cr0, {0}
    54a0:	00000947 	andeq	r0, r0, r7, asr #18
    54a4:	58063501 	stmdapl	r6, {r0, r8, sl, ip, sp}
    54a8:	24000098 	strcs	r0, [r0], #-152	; 0xffffff68
    54ac:	01000000 	mrseq	r0, (UNDEF: 0)
    54b0:	0004d39c 	muleq	r4, ip, r3
    54b4:	98600f00 	stmdals	r0!, {r8, r9, sl, fp}^
    54b8:	01940000 	orrseq	r0, r4, r0
    54bc:	640f0000 	strvs	r0, [pc], #-0	; 54c4 <__code_start__-0x2b3c>
    54c0:	a0000098 	mulge	r0, r8, r0
    54c4:	14000005 	strne	r0, [r0], #-5
    54c8:	00009870 	andeq	r9, r0, r0, ror r8
    54cc:	000004d3 	ldrdeq	r0, [r0], -r3
    54d0:	000004c9 	andeq	r0, r0, r9, asr #9
    54d4:	05500112 	ldrbeq	r0, [r0, #-274]	; 0xfffffeee
    54d8:	2150040c 	cmpcs	r0, ip, lsl #8
    54dc:	51011220 	tstpl	r1, r0, lsr #4
    54e0:	00fe0902 	rscseq	r0, lr, r2, lsl #18
    54e4:	0098740f 	addseq	r7, r8, pc, lsl #8
    54e8:	0005a000 	andeq	sl, r5, r0
    54ec:	b2170000 	andslt	r0, r7, #0, 0
    54f0:	01000009 	tsteq	r0, r9
    54f4:	968c0d31 			; <UNDEFINED> instruction: 0x968c0d31
    54f8:	00200000 	eoreq	r0, r0, r0
    54fc:	9c010000 	stcls	0, cr0, [r1], {-0}
    5500:	00000536 	andeq	r0, r0, r6, lsr r5
    5504:	0009ea18 	andeq	lr, r9, r8, lsl sl
    5508:	25310100 	ldrcs	r0, [r1, #-256]!	; 0xffffff00
    550c:	00000536 	andeq	r0, r0, r6, lsr r5
    5510:	00003371 	andeq	r3, r0, r1, ror r3
    5514:	0000336d 	andeq	r3, r0, sp, ror #6
    5518:	6c617613 	stclvs	6, cr7, [r1], #-76	; 0xffffffb4
    551c:	34310100 	ldrtcc	r0, [r1], #-256	; 0xffffff00
    5520:	0000002c 	andeq	r0, r0, ip, lsr #32
    5524:	00003393 	muleq	r0, r3, r3
    5528:	0000338f 	andeq	r3, r0, pc, lsl #7
    552c:	00969c14 	addseq	r9, r6, r4, lsl ip
    5530:	0005ac00 	andeq	sl, r5, r0, lsl #24
    5534:	00052500 	andeq	r2, r5, r0, lsl #10
    5538:	50011200 	andpl	r1, r1, r0, lsl #4
    553c:	00007402 	andeq	r7, r0, r2, lsl #8
    5540:	0096a811 	addseq	sl, r6, r1, lsl r8
    5544:	0005b800 	andeq	fp, r5, r0, lsl #16
    5548:	50011200 	andpl	r1, r1, r0, lsl #4
    554c:	00007402 	andeq	r7, r0, r2, lsl #8
    5550:	3c040c00 	stccc	12, cr0, [r4], {-0}
    5554:	19000005 	stmdbne	r0, {r0, r2}
    5558:	00096217 	andeq	r6, r9, r7, lsl r2
    555c:	0d2e0100 	stfeqs	f0, [lr, #-0]
    5560:	000096ac 	andeq	r9, r0, ip, lsr #13
    5564:	00000020 	andeq	r0, r0, r0, lsr #32
    5568:	05a09c01 	streq	r9, [r0, #3073]!	; 0xc01
    556c:	ea180000 	b	605574 <__bss_end__+0x5fb08c>
    5570:	01000009 	tsteq	r0, r9
    5574:	0536242e 	ldreq	r2, [r6, #-1070]!	; 0xfffffbd2
    5578:	33b50000 			; <UNDEFINED> instruction: 0x33b50000
    557c:	33b10000 			; <UNDEFINED> instruction: 0x33b10000
    5580:	76130000 	ldrvc	r0, [r3], -r0
    5584:	01006c61 	tsteq	r0, r1, ror #24
    5588:	002c332e 	eoreq	r3, ip, lr, lsr #6
    558c:	33d70000 	bicscc	r0, r7, #0, 0
    5590:	33d30000 	bicscc	r0, r3, #0, 0
    5594:	bc140000 	ldclt	0, cr0, [r4], {-0}
    5598:	ac000096 	stcge	0, cr0, [r0], {150}	; 0x96
    559c:	8f000005 	svchi	0x00000005
    55a0:	12000005 	andne	r0, r0, #5, 0
    55a4:	74025001 	strvc	r5, [r2], #-1
    55a8:	c8110000 	ldmdagt	r1, {}	; <UNPREDICTABLE>
    55ac:	b8000096 	stmdalt	r0, {r1, r2, r4, r7}
    55b0:	12000005 	andne	r0, r0, #5, 0
    55b4:	74025001 	strvc	r5, [r2], #-1
    55b8:	1a000000 	bne	55c0 <__code_start__-0x2a40>
    55bc:	000007f2 	strdeq	r0, [r0], -r2
    55c0:	000007f2 	strdeq	r0, [r0], -r2
    55c4:	1a069c03 	bne	1ac5d8 <__bss_end__+0x1a20f0>
    55c8:	000009c5 	andeq	r0, r0, r5, asr #19
    55cc:	000009c5 	andeq	r0, r0, r5, asr #19
    55d0:	1a0bc303 	bne	2f61e4 <__bss_end__+0x2ebcfc>
    55d4:	0000088e 	andeq	r0, r0, lr, lsl #17
    55d8:	0000088e 	andeq	r0, r0, lr, lsl #17
    55dc:	1a06ae03 	bne	1b0df0 <__bss_end__+0x1a6908>
    55e0:	00000464 	andeq	r0, r0, r4, ror #8
    55e4:	00000464 	andeq	r0, r0, r4, ror #8
    55e8:	00061904 	andeq	r1, r6, r4, lsl #18
    55ec:	000008e9 	andeq	r0, r0, r9, ror #17
    55f0:	13df0004 	bicsne	r0, pc, #4, 0
    55f4:	01040000 	mrseq	r0, (UNDEF: 4)
    55f8:	000008af 	andeq	r0, r0, pc, lsr #17
    55fc:	000a770c 	andeq	r7, sl, ip, lsl #14
    5600:	00097e00 	andeq	r7, r9, r0, lsl #28
    5604:	00987c00 	addseq	r7, r8, r0, lsl #24
    5608:	0003b000 	andeq	fp, r3, r0
    560c:	0027a000 	eoreq	sl, r7, r0
    5610:	05040200 	streq	r0, [r4, #-512]	; 0xfffffe00
    5614:	00746e69 	rsbseq	r6, r4, r9, ror #28
    5618:	9d070403 	cfstrsls	mvf0, [r7, #-12]
    561c:	03000001 	movweq	r0, #1
    5620:	008f0601 	addeq	r0, pc, r1, lsl #12
    5624:	02030000 	andeq	r0, r3, #0, 0
    5628:	0001d405 	andeq	sp, r1, r5, lsl #8
    562c:	05040300 	streq	r0, [r4, #-768]	; 0xfffffd00
    5630:	000001bf 			; <UNDEFINED> instruction: 0x000001bf
    5634:	ba050803 	blt	147648 <__bss_end__+0x13d160>
    5638:	03000001 	movweq	r0, #1
    563c:	008d0801 	addeq	r0, sp, r1, lsl #16
    5640:	02030000 	andeq	r0, r3, #0, 0
    5644:	0000a407 	andeq	sl, r0, r7, lsl #8
    5648:	02640400 	rsbeq	r0, r4, #0, 8
    564c:	34030000 	strcc	r0, [r3], #-0
    5650:	00006919 	andeq	r6, r0, r9, lsl r9
    5654:	07040300 	streq	r0, [r4, -r0, lsl #6]
    5658:	00000198 	muleq	r0, r8, r1
    565c:	93070803 	movwls	r0, #30723	; 0x7803
    5660:	03000001 	movweq	r0, #1
    5664:	00960801 	addseq	r0, r6, r1, lsl #16
    5668:	77050000 	strvc	r0, [r5, -r0]
    566c:	03000000 	movweq	r0, #0
    5670:	0a990408 	beq	fe646698 <__bss_end__+0xfe63c1b0>
    5674:	04060000 	streq	r0, [r6], #-0
    5678:	2c040707 	stccs	7, cr0, [r4], {7}
    567c:	01000000 	mrseq	r0, (UNDEF: 0)
    5680:	00a4061f 	adceq	r0, r4, pc, lsl r6
    5684:	f5080000 			; <UNDEFINED> instruction: 0xf5080000
    5688:	00000009 	andeq	r0, r0, r9
    568c:	00002000 	andeq	r2, r0, r0
    5690:	00062c09 	andeq	r2, r6, r9, lsl #24
    5694:	0d220100 	stfeqs	f0, [r2, #-0]
    5698:	00000077 	andeq	r0, r0, r7, ror r0
    569c:	000a210a 	andeq	r2, sl, sl, lsl #2
    56a0:	0e230100 	sufeqs	f0, f3, f0
    56a4:	000000c2 	andeq	r0, r0, r2, asr #1
    56a8:	a0d00305 	sbcsge	r0, r0, r5, lsl #6
    56ac:	040b0000 	streq	r0, [fp], #-0
    56b0:	00000077 	andeq	r0, r0, r7, ror r0
    56b4:	0009d30a 	andeq	sp, r9, sl, lsl #6
    56b8:	0e240100 	sufeqs	f0, f4, f0
    56bc:	000000c2 	andeq	r0, r0, r2, asr #1
    56c0:	a0d40305 	sbcsge	r0, r4, r5, lsl #6
    56c4:	180a0000 	stmdane	sl, {}	; <UNPREDICTABLE>
    56c8:	0100000a 	tsteq	r0, sl
    56cc:	00c20e25 	sbceq	r0, r2, r5, lsr #28
    56d0:	03050000 	movweq	r0, #20480	; 0x5000
    56d4:	0000a0d8 	ldrdeq	sl, [r0], -r8
    56d8:	000a2d0c 	andeq	r2, sl, ip, lsl #26
    56dc:	06750100 	ldrbteq	r0, [r5], -r0, lsl #2
    56e0:	00009bcc 	andeq	r9, r0, ip, asr #23
    56e4:	00000060 	andeq	r0, r0, r0, rrx
    56e8:	01649c01 	cmneq	r4, r1, lsl #24
    56ec:	700d0000 	andvc	r0, sp, r0
    56f0:	16750100 	ldrbtne	r0, [r5], -r0, lsl #2
    56f4:	0000008a 	andeq	r0, r0, sl, lsl #1
    56f8:	000033fb 	strdeq	r3, [r0], -fp
    56fc:	000033f5 	strdeq	r3, [r0], -r5
    5700:	0005f10e 	andeq	pc, r5, lr, lsl #2
    5704:	00017400 	andeq	r7, r1, r0, lsl #8
    5708:	c0030500 	andgt	r0, r3, r0, lsl #10
    570c:	0f0000a0 	svceq	0x000000a0
    5710:	00009c18 	andeq	r9, r0, r8, lsl ip
    5714:	000008bc 			; <UNDEFINED> instruction: 0x000008bc
    5718:	0000015a 	andeq	r0, r0, sl, asr r1
    571c:	05500110 	ldrbeq	r0, [r0, #-272]	; 0xfffffef0
    5720:	00a03803 	adceq	r3, r0, r3, lsl #16
    5724:	51011000 	mrspl	r1, (UNDEF: 1)
    5728:	9ed00305 	cdpls	3, 13, cr0, cr0, cr5, {0}
    572c:	01100000 	tsteq	r0, r0
    5730:	c0030552 	andgt	r0, r3, r2, asr r5
    5734:	100000a0 	andne	r0, r0, r0, lsr #1
    5738:	08025301 	stmdaeq	r2, {r0, r8, r9, ip, lr}
    573c:	7d021077 	stcvc	0, cr1, [r2, #-476]	; 0xfffffe24
    5740:	01f30300 	mvnseq	r0, r0, lsl #6
    5744:	1c110050 	ldcne	0, cr0, [r1], {80}	; 0x50
    5748:	c800009c 	stmdagt	r0, {r2, r3, r4, r7}
    574c:	00000008 	andeq	r0, r0, r8
    5750:	00007e12 	andeq	r7, r0, r2, lsl lr
    5754:	00017400 	andeq	r7, r1, r0, lsl #8
    5758:	002c1300 	eoreq	r1, ip, r0, lsl #6
    575c:	00090000 	andeq	r0, r9, r0
    5760:	00016405 	andeq	r6, r1, r5, lsl #8
    5764:	09fe1400 	ldmibeq	lr!, {sl, ip}^
    5768:	72010000 	andvc	r0, r1, #0, 0
    576c:	009bb806 	addseq	fp, fp, r6, lsl #16
    5770:	00001400 	andeq	r1, r0, r0, lsl #8
    5774:	0c9c0100 	ldfeqs	f0, [ip], {0}
    5778:	000009ef 	andeq	r0, r0, pc, ror #19
    577c:	b4066f01 	strlt	r6, [r6], #-3841	; 0xfffff0ff
    5780:	0400009b 	streq	r0, [r0], #-155	; 0xffffff65
    5784:	01000000 	mrseq	r0, (UNDEF: 0)
    5788:	0001ae9c 	muleq	r1, ip, lr
    578c:	00701500 	rsbseq	r1, r0, r0, lsl #10
    5790:	8a126f01 	bhi	4a139c <__bss_end__+0x496eb4>
    5794:	01000000 	mrseq	r0, (UNDEF: 0)
    5798:	5f160050 	svcpl	0x00160050
    579c:	0100000a 	tsteq	r0, sl
    57a0:	008a075e 	addeq	r0, sl, lr, asr r7
    57a4:	9a9c0000 	bls	fe7057ac <__bss_end__+0xfe6fb2c4>
    57a8:	01180000 	tsteq	r8, r0
    57ac:	9c010000 	stcls	0, cr0, [r1], {-0}
    57b0:	0000042c 	andeq	r0, r0, ip, lsr #8
    57b4:	0009e217 	andeq	lr, r9, r7, lsl r2
    57b8:	205e0100 	subscs	r0, lr, r0, lsl #2
    57bc:	0000002c 	andeq	r0, r0, ip, lsr #32
    57c0:	0000343c 	andeq	r3, r0, ip, lsr r4
    57c4:	00003428 	andeq	r3, r0, r8, lsr #8
    57c8:	000a3717 	andeq	r3, sl, r7, lsl r7
    57cc:	315e0100 	cmpcc	lr, r0, lsl #2
    57d0:	0000002c 	andeq	r0, r0, ip, lsr #32
    57d4:	000034d5 	ldrdeq	r3, [r0], -r5
    57d8:	000034c1 	andeq	r3, r0, r1, asr #9
    57dc:	0005f10e 	andeq	pc, r5, lr, lsl #2
    57e0:	00043c00 	andeq	r3, r4, r0, lsl #24
    57e4:	a8030500 	stmdage	r3, {r8, sl}
    57e8:	180000a0 	stmdane	r0, {r5, r7}
    57ec:	66010068 	strvs	r0, [r1], -r8, rrx
    57f0:	00002c0e 	andeq	r2, r0, lr, lsl #24
    57f4:	00358b00 	eorseq	r8, r5, r0, lsl #22
    57f8:	00357f00 	eorseq	r7, r5, r0, lsl #30
    57fc:	08541900 	ldmdaeq	r4, {r8, fp, ip}^
    5800:	9aac0000 	bls	feb05808 <__bss_end__+0xfeafb320>
    5804:	ac040000 	stcge	0, cr0, [r4], {-0}
    5808:	0400009a 	streq	r0, [r0], #-154	; 0xffffff66
    580c:	01000000 	mrseq	r0, (UNDEF: 0)
    5810:	02380560 	eorseq	r0, r8, #96, 10	; 0x18000000
    5814:	651a0000 	ldrvs	r0, [sl, #-0]
    5818:	df000008 	svcle	0x00000008
    581c:	dd000035 	stcle	0, cr0, [r0, #-212]	; 0xffffff2c
    5820:	00000035 	andeq	r0, r0, r5, lsr r0
    5824:	00089619 	andeq	r9, r8, r9, lsl r6
    5828:	009ab800 	addseq	fp, sl, r0, lsl #16
    582c:	9ab80200 	bls	fee06034 <__bss_end__+0xfedfbb4c>
    5830:	00080000 	andeq	r0, r8, r0
    5834:	61010000 	mrsvs	r0, (UNDEF: 1)
    5838:	00026c11 	andeq	r6, r2, r1, lsl ip
    583c:	08b11a00 	ldmeq	r1!, {r9, fp, ip}
    5840:	35f40000 	ldrbcc	r0, [r4, #0]!
    5844:	35f20000 	ldrbcc	r0, [r2, #0]!
    5848:	a71a0000 	ldrge	r0, [sl, -r0]
    584c:	0a000008 	beq	5874 <__code_start__-0x278c>
    5850:	08000036 	stmdaeq	r0, {r1, r2, r4, r5}
    5854:	00000036 	andeq	r0, r0, r6, lsr r0
    5858:	00081f1b 	andeq	r1, r8, fp, lsl pc
    585c:	009ac800 	addseq	ip, sl, r0, lsl #16
    5860:	13c80100 	bicne	r0, r8, #0
    5864:	67010000 	strvs	r0, [r1, -r0]
    5868:	00030a09 	andeq	r0, r3, r9, lsl #20
    586c:	083a1a00 	ldmdaeq	sl!, {r9, fp, ip}
    5870:	36230000 	strtcc	r0, [r3], -r0
    5874:	361d0000 	ldrcc	r0, [sp], -r0
    5878:	301a0000 	andscc	r0, sl, r0
    587c:	6a000008 	bvs	58a4 <__code_start__-0x275c>
    5880:	62000036 	andvs	r0, r0, #54, 0	; 0x36
    5884:	1c000036 	stcne	0, cr0, [r0], {54}	; 0x36
    5888:	000013c8 	andeq	r1, r0, r8, asr #7
    588c:	00085419 	andeq	r5, r8, r9, lsl r4
    5890:	009ac800 	addseq	ip, sl, r0, lsl #16
    5894:	9ac80400 	bls	ff20689c <__bss_end__+0xff1fc3b4>
    5898:	00040000 	andeq	r0, r4, r0
    589c:	11010000 	mrsne	r0, (UNDEF: 1)
    58a0:	0002c705 	andeq	ip, r2, r5, lsl #14
    58a4:	08651a00 	stmdaeq	r5!, {r9, fp, ip}^
    58a8:	36a80000 	strtcc	r0, [r8], r0
    58ac:	36a60000 	strtcc	r0, [r6], r0
    58b0:	0f000000 	svceq	0x00000000
    58b4:	00009b60 	andeq	r9, r0, r0, ror #22
    58b8:	000008bc 			; <UNDEFINED> instruction: 0x000008bc
    58bc:	000002ff 	strdeq	r0, [r0], -pc	; <UNPREDICTABLE>
    58c0:	05500110 	ldrbeq	r0, [r0, #-272]	; 0xfffffef0
    58c4:	009d5c03 	addseq	r5, sp, r3, lsl #24
    58c8:	51011000 	mrspl	r1, (UNDEF: 1)
    58cc:	9ed00305 	cdpls	3, 13, cr0, cr0, cr5, {0}
    58d0:	01100000 	tsteq	r0, r0
    58d4:	b8030552 	stmdalt	r3, {r1, r4, r6, r8, sl}
    58d8:	100000a0 	andne	r0, r0, r0, lsr #1
    58dc:	41015301 	tstmi	r1, r1, lsl #6
    58e0:	007d0210 	rsbseq	r0, sp, r0, lsl r2
    58e4:	9fe40305 	svcls	0x00e40305
    58e8:	11000000 	mrsne	r0, (UNDEF: 0)
    58ec:	00009b64 	andeq	r9, r0, r4, ror #22
    58f0:	000008c8 	andeq	r0, r0, r8, asr #17
    58f4:	70190000 	andsvc	r0, r9, r0
    58f8:	e0000008 	and	r0, r0, r8
    58fc:	0300009a 	movweq	r0, #154	; 0x9a
    5900:	00009ae0 	andeq	r9, r0, r0, ror #21
    5904:	00000004 	andeq	r0, r0, r4
    5908:	3e056801 	cdpcc	8, 0, cr6, cr5, cr1, {0}
    590c:	1a000003 	bne	5920 <__code_start__-0x26e0>
    5910:	0000088b 	andeq	r0, r0, fp, lsl #17
    5914:	000036bd 			; <UNDEFINED> instruction: 0x000036bd
    5918:	000036bb 			; <UNDEFINED> instruction: 0x000036bb
    591c:	0008811a 	andeq	r8, r8, sl, lsl r1
    5920:	0036d200 	eorseq	sp, r6, r0, lsl #4
    5924:	0036d000 	eorseq	sp, r6, r0
    5928:	f80f0000 			; <UNDEFINED> instruction: 0xf80f0000
    592c:	4100009a 	swpmi	r0, sl, [r0]	; <UNPREDICTABLE>
    5930:	53000004 	movwpl	r0, #4
    5934:	10000003 	andne	r0, r0, r3
    5938:	f3035001 	vhadd.u8	d5, d3, d1
    593c:	0f005001 	svceq	0x00005001
    5940:	00009b1c 	andeq	r9, r0, ip, lsl fp
    5944:	000008bc 			; <UNDEFINED> instruction: 0x000008bc
    5948:	0000038c 	andeq	r0, r0, ip, lsl #7
    594c:	05500110 	ldrbeq	r0, [r0, #-272]	; 0xfffffef0
    5950:	009d5c03 	addseq	r5, sp, r3, lsl #24
    5954:	51011000 	mrspl	r1, (UNDEF: 1)
    5958:	9ed00305 	cdpls	3, 13, cr0, cr0, cr5, {0}
    595c:	01100000 	tsteq	r0, r0
    5960:	a8030552 	stmdage	r3, {r1, r4, r6, r8, sl}
    5964:	100000a0 	andne	r0, r0, r0, lsr #1
    5968:	08025301 	stmdaeq	r2, {r0, r8, r9, ip, lr}
    596c:	7d02105f 	stcvc	0, cr1, [r2, #-380]	; 0xfffffe84
    5970:	e0030500 	and	r0, r3, r0, lsl #10
    5974:	0000009e 	muleq	r0, lr, r0
    5978:	009b2011 	addseq	r2, fp, r1, lsl r0
    597c:	0008c800 	andeq	ip, r8, r0, lsl #16
    5980:	9b241100 	blls	909d88 <__bss_end__+0x8ff8a0>
    5984:	08d40000 	ldmeq	r4, {}^	; <UNPREDICTABLE>
    5988:	400f0000 	andmi	r0, pc, r0
    598c:	bc00009b 	stclt	0, cr0, [r0], {155}	; 0x9b
    5990:	d7000008 	strle	r0, [r0, -r8]
    5994:	10000003 	andne	r0, r0, r3
    5998:	03055001 	movweq	r5, #20481	; 0x5001
    599c:	00009f9c 	muleq	r0, ip, pc	; <UNPREDICTABLE>
    59a0:	05510110 	ldrbeq	r0, [r1, #-272]	; 0xfffffef0
    59a4:	009ed003 	addseq	sp, lr, r3
    59a8:	52011000 	andpl	r1, r1, #0, 0
    59ac:	a0a80305 	adcge	r0, r8, r5, lsl #6
    59b0:	01100000 	tsteq	r0, r0
    59b4:	60080253 	andvs	r0, r8, r3, asr r2
    59b8:	007d0210 	rsbseq	r0, sp, r0, lsl r2
    59bc:	9fd00305 	svcls	0x00d00305
    59c0:	11000000 	mrsne	r0, (UNDEF: 0)
    59c4:	00009b44 	andeq	r9, r0, r4, asr #22
    59c8:	000008c8 	andeq	r0, r0, r8, asr #17
    59cc:	009b6811 	addseq	r6, fp, r1, lsl r8
    59d0:	0008d400 	andeq	sp, r8, r0, lsl #8
    59d4:	9b840f00 	blls	fe1095dc <__bss_end__+0xfe0ff0f4>
    59d8:	08bc0000 	ldmeq	ip!, {}	; <UNPREDICTABLE>
    59dc:	04220000 	strteq	r0, [r2], #-0
    59e0:	01100000 	tsteq	r0, r0
    59e4:	f0030550 			; <UNDEFINED> instruction: 0xf0030550
    59e8:	1000009f 	mulne	r0, pc, r0	; <UNPREDICTABLE>
    59ec:	03055101 	movweq	r5, #20737	; 0x5101
    59f0:	00009ed0 	ldrdeq	r9, [r0], -r0
    59f4:	05520110 	ldrbeq	r0, [r2, #-272]	; 0xfffffef0
    59f8:	00a0a803 	adceq	sl, r0, r3, lsl #16
    59fc:	53011000 	movwpl	r1, #4096	; 0x1000
    5a00:	10680802 	rsbne	r0, r8, r2, lsl #16
    5a04:	05007d02 	streq	r7, [r0, #-3330]	; 0xfffff2fe
    5a08:	00a01c03 	adceq	r1, r0, r3, lsl #24
    5a0c:	88110000 	ldmdahi	r1, {}	; <UNPREDICTABLE>
    5a10:	c800009b 	stmdagt	r0, {r0, r1, r3, r4, r7}
    5a14:	00000008 	andeq	r0, r0, r8
    5a18:	00007e12 	andeq	r7, r0, r2, lsl lr
    5a1c:	00043c00 	andeq	r3, r4, r0, lsl #24
    5a20:	002c1300 	eoreq	r1, ip, r0, lsl #6
    5a24:	000f0000 	andeq	r0, pc, r0
    5a28:	00042c05 	andeq	r2, r4, r5, lsl #24
    5a2c:	02a11600 	adceq	r1, r1, #0, 12
    5a30:	53010000 	movwpl	r0, #4096	; 0x1000
    5a34:	00008a07 	andeq	r8, r0, r7, lsl #20
    5a38:	009a3800 	addseq	r3, sl, r0, lsl #16
    5a3c:	00006400 	andeq	r6, r0, r0, lsl #8
    5a40:	089c0100 	ldmeq	ip, {r8}
    5a44:	17000005 	strne	r0, [r0, -r5]
    5a48:	000009e2 	andeq	r0, r0, r2, ror #19
    5a4c:	2c185301 	ldccs	3, cr5, [r8], {1}
    5a50:	ed000000 	stc	0, cr0, [r0, #-0]
    5a54:	e5000036 	str	r0, [r0, #-54]	; 0xffffffca
    5a58:	0e000036 	mcreq	0, 0, r0, cr0, cr6, {1}
    5a5c:	000005f1 	strdeq	r0, [r0], -r1
    5a60:	00000518 	andeq	r0, r0, r8, lsl r5
    5a64:	a0a00305 	adcge	r0, r0, r5, lsl #6
    5a68:	ea1d0000 	b	745a70 <__bss_end__+0x73b588>
    5a6c:	01000009 	tsteq	r0, r9
    5a70:	008a0b55 	addeq	r0, sl, r5, asr fp
    5a74:	37250000 	strcc	r0, [r5, -r0]!
    5a78:	37210000 	strcc	r0, [r1, -r0]!
    5a7c:	500f0000 	andpl	r0, pc, r0
    5a80:	1d00009a 	stcne	0, cr0, [r0, #-616]	; 0xfffffd98
    5a84:	a6000005 	strge	r0, [r0], -r5
    5a88:	10000004 	andne	r0, r0, r4
    5a8c:	74025001 	strvc	r5, [r2], #-1
    5a90:	600f0000 	andvs	r0, pc, r0
    5a94:	e000009a 	mul	r0, sl, r0
    5a98:	c5000008 	strgt	r0, [r0, #-8]
    5a9c:	10000004 	andne	r0, r0, r4
    5aa0:	75025001 	strvc	r5, [r2, #-1]
    5aa4:	51011000 	mrspl	r1, (UNDEF: 1)
    5aa8:	01103001 	tsteq	r0, r1
    5aac:	00740252 	rsbseq	r0, r4, r2, asr r2
    5ab0:	9a880f00 	bls	fe2096b8 <__bss_end__+0xfe1ff1d0>
    5ab4:	08bc0000 	ldmeq	ip!, {}	; <UNPREDICTABLE>
    5ab8:	04fe0000 	ldrbteq	r0, [lr], #0
    5abc:	01100000 	tsteq	r0, r0
    5ac0:	5c030550 	cfstr32pl	mvfx0, [r3], {80}	; 0x50
    5ac4:	1000009d 	mulne	r0, sp, r0
    5ac8:	03055101 	movweq	r5, #20737	; 0x5101
    5acc:	00009ed0 	ldrdeq	r9, [r0], -r0
    5ad0:	05520110 	ldrbeq	r0, [r2, #-272]	; 0xfffffef0
    5ad4:	00a0a003 	adceq	sl, r0, r3
    5ad8:	53011000 	movwpl	r1, #4096	; 0x1000
    5adc:	10540802 	subsne	r0, r4, r2, lsl #16
    5ae0:	05007d02 	streq	r7, [r0, #-3330]	; 0xfffff2fe
    5ae4:	009ee003 	addseq	lr, lr, r3
    5ae8:	8c110000 	ldchi	0, cr0, [r1], {-0}
    5aec:	c800009a 	stmdagt	r0, {r1, r3, r4, r7}
    5af0:	00000008 	andeq	r0, r0, r8
    5af4:	00007e12 	andeq	r7, r0, r2, lsl lr
    5af8:	00051800 	andeq	r1, r5, r0, lsl #16
    5afc:	002c1300 	eoreq	r1, ip, r0, lsl #6
    5b00:	00070000 	andeq	r0, r7, r0
    5b04:	00050805 	andeq	r0, r5, r5, lsl #16
    5b08:	0a4f1600 	beq	13cb310 <__bss_end__+0x13c0e28>
    5b0c:	47010000 	strmi	r0, [r1, -r0]
    5b10:	00008a07 	andeq	r8, r0, r7, lsl #20
    5b14:	0099a000 	addseq	sl, r9, r0
    5b18:	00009800 	andeq	r9, r0, r0, lsl #16
    5b1c:	2b9c0100 	blcs	fe705f24 <__bss_end__+0xfe6fba3c>
    5b20:	17000006 	strne	r0, [r0, -r6]
    5b24:	000009e2 	andeq	r0, r0, r2, ror #19
    5b28:	2c204701 	stccs	7, cr4, [r0], #-4
    5b2c:	53000000 	movwpl	r0, #0
    5b30:	43000037 	movwmi	r0, #55	; 0x37
    5b34:	0e000037 	mcreq	0, 0, r0, cr0, cr7, {1}
    5b38:	000005f1 	strdeq	r0, [r0], -r1
    5b3c:	0000043c 	andeq	r0, r0, ip, lsr r4
    5b40:	a0900305 	addsge	r0, r0, r5, lsl #6
    5b44:	ea1d0000 	b	745b4c <__bss_end__+0x73b664>
    5b48:	01000009 	tsteq	r0, r9
    5b4c:	008a0b4b 	addeq	r0, sl, fp, asr #22
    5b50:	37c50000 	strbcc	r0, [r5, r0]
    5b54:	37c10000 	strbcc	r0, [r1, r0]
    5b58:	1f1b0000 	svcne	0x001b0000
    5b5c:	b0000008 	andlt	r0, r0, r8
    5b60:	03000099 	movweq	r0, #153	; 0x99
    5b64:	000013b0 			; <UNDEFINED> instruction: 0x000013b0
    5b68:	a30e4901 	movwge	r4, #59649	; 0xe901
    5b6c:	1a000005 	bne	5b88 <__code_start__-0x2478>
    5b70:	0000083a 	andeq	r0, r0, sl, lsr r8
    5b74:	000037e5 	andeq	r3, r0, r5, ror #15
    5b78:	000037e3 	andeq	r3, r0, r3, ror #15
    5b7c:	0008301a 	andeq	r3, r8, sl, lsl r0
    5b80:	0037fd00 	eorseq	pc, r7, r0, lsl #26
    5b84:	0037f900 	eorseq	pc, r7, r0, lsl #18
    5b88:	13b01e00 	movsne	r1, #0, 28
    5b8c:	0f000000 	svceq	0x00000000
    5b90:	000099f8 	strdeq	r9, [r0], -r8
    5b94:	000008bc 			; <UNDEFINED> instruction: 0x000008bc
    5b98:	000005dc 	ldrdeq	r0, [r0], -ip
    5b9c:	05500110 	ldrbeq	r0, [r0, #-272]	; 0xfffffef0
    5ba0:	009d5c03 	addseq	r5, sp, r3, lsl #24
    5ba4:	51011000 	mrspl	r1, (UNDEF: 1)
    5ba8:	9ed00305 	cdpls	3, 13, cr0, cr0, cr5, {0}
    5bac:	01100000 	tsteq	r0, r0
    5bb0:	90030552 	andls	r0, r3, r2, asr r5
    5bb4:	100000a0 	andne	r0, r0, r0, lsr #1
    5bb8:	08025301 	stmdaeq	r2, {r0, r8, r9, ip, lr}
    5bbc:	7d021048 	stcvc	0, cr1, [r2, #-288]	; 0xfffffee0
    5bc0:	e0030500 	and	r0, r3, r0, lsl #10
    5bc4:	0000009e 	muleq	r0, lr, r0
    5bc8:	0099fc11 	addseq	pc, r9, r1, lsl ip	; <UNPREDICTABLE>
    5bcc:	0008c800 	andeq	ip, r8, r0, lsl #16
    5bd0:	9a1c0f00 	bls	7097d8 <__bss_end__+0x6ff2f0>
    5bd4:	08bc0000 	ldmeq	ip!, {}	; <UNPREDICTABLE>
    5bd8:	06210000 	strteq	r0, [r1], -r0
    5bdc:	01100000 	tsteq	r0, r0
    5be0:	5c030550 	cfstr32pl	mvfx0, [r3], {80}	; 0x50
    5be4:	1000009f 	mulne	r0, pc, r0	; <UNPREDICTABLE>
    5be8:	03055101 	movweq	r5, #20737	; 0x5101
    5bec:	00009ed0 	ldrdeq	r9, [r0], -r0
    5bf0:	05520110 	ldrbeq	r0, [r2, #-272]	; 0xfffffef0
    5bf4:	00a09003 	adceq	r9, r0, r3
    5bf8:	53011000 	movwpl	r1, #4096	; 0x1000
    5bfc:	104e0802 	subne	r0, lr, r2, lsl #16
    5c00:	08007d02 	stmdaeq	r0, {r1, r8, sl, fp, ip, sp, lr}
    5c04:	235001f3 	cmpcs	r0, #-1073741764	; 0xc000003c
    5c08:	1af80907 	bne	ffe0802c <__bss_end__+0xffdfdb44>
    5c0c:	9a201100 	bls	80a014 <__bss_end__+0x7ffb2c>
    5c10:	08c80000 	stmiaeq	r8, {}^	; <UNPREDICTABLE>
    5c14:	0c000000 	stceq	0, cr0, [r0], {-0}
    5c18:	00000a81 	andeq	r0, r0, r1, lsl #21
    5c1c:	48063c01 	stmdami	r6, {r0, sl, fp, ip, sp}
    5c20:	58000099 	stmdapl	r0, {r0, r3, r4, r7}
    5c24:	01000000 	mrseq	r0, (UNDEF: 0)
    5c28:	0006cf9c 	muleq	r6, ip, pc	; <UNPREDICTABLE>
    5c2c:	0a260a00 	beq	988434 <__bss_end__+0x97df4c>
    5c30:	3d010000 	stccc	0, cr0, [r1, #-0]
    5c34:	00002510 	andeq	r2, r0, r0, lsl r5
    5c38:	e0030500 	and	r0, r3, r0, lsl #10
    5c3c:	0e0000a4 	cdpeq	0, 0, cr0, cr0, cr4, {5}
    5c40:	000005f1 	strdeq	r0, [r0], -r1
    5c44:	000006df 	ldrdeq	r0, [r0], -pc	; <UNPREDICTABLE>
    5c48:	a0800305 	addge	r0, r0, r5, lsl #6
    5c4c:	07070000 	streq	r0, [r7, -r0]
    5c50:	00002c04 	andeq	r2, r0, r4, lsl #24
    5c54:	0a420100 	beq	108605c <__bss_end__+0x107bb74>
    5c58:	0000067a 	andeq	r0, r0, sl, ror r6
    5c5c:	000a4908 	andeq	r4, sl, r8, lsl #18
    5c60:	10000000 	andne	r0, r0, r0
    5c64:	740f0000 	strvc	r0, [pc], #-0	; 5c6c <__code_start__-0x2394>
    5c68:	e4000099 	str	r0, [r0], #-153	; 0xffffff67
    5c6c:	96000006 	strls	r0, [r0], -r6
    5c70:	10000006 	andne	r0, r0, r6
    5c74:	40035001 	andmi	r5, r3, r1
    5c78:	01102440 	tsteq	r0, r0, asr #8
    5c7c:	48400351 	stmdami	r0, {r0, r4, r6, r8, r9}^
    5c80:	8c0f0024 	stchi	0, cr0, [pc], {36}	; 0x24
    5c84:	bc000099 	stclt	0, cr0, [r0], {153}	; 0x99
    5c88:	c5000008 	strgt	r0, [r0, #-8]
    5c8c:	10000006 	andne	r0, r0, r6
    5c90:	03055001 	movweq	r5, #20481	; 0x5001
    5c94:	00009f2c 	andeq	r9, r0, ip, lsr #30
    5c98:	05510110 	ldrbeq	r0, [r1, #-272]	; 0xfffffef0
    5c9c:	009ed003 	addseq	sp, lr, r3
    5ca0:	52011000 	andpl	r1, r1, #0, 0
    5ca4:	a0800305 	addge	r0, r0, r5, lsl #6
    5ca8:	01100000 	tsteq	r0, r0
    5cac:	40080253 	andmi	r0, r8, r3, asr r2
    5cb0:	99901100 	ldmibls	r0, {r8, ip}
    5cb4:	08c80000 	stmiaeq	r8, {}^	; <UNPREDICTABLE>
    5cb8:	12000000 	andne	r0, r0, #0, 0
    5cbc:	0000007e 	andeq	r0, r0, lr, ror r0
    5cc0:	000006df 	ldrdeq	r0, [r0], -pc	; <UNPREDICTABLE>
    5cc4:	00002c13 	andeq	r2, r0, r3, lsl ip
    5cc8:	05000c00 	streq	r0, [r0, #-3072]	; 0xfffff400
    5ccc:	000006cf 	andeq	r0, r0, pc, asr #13
    5cd0:	000ab10c 	andeq	fp, sl, ip, lsl #2
    5cd4:	062d0100 	strteq	r0, [sp], -r0, lsl #2
    5cd8:	000098ac 	andeq	r9, r0, ip, lsr #17
    5cdc:	0000009c 	muleq	r0, ip, r0
    5ce0:	07c89c01 	strbeq	r9, [r8, r1, lsl #24]
    5ce4:	e9170000 	ldmdb	r7, {}	; <UNPREDICTABLE>
    5ce8:	01000009 	tsteq	r0, r9
    5cec:	002c262d 	eoreq	r2, ip, sp, lsr #12
    5cf0:	382b0000 	stmdacc	fp!, {}	; <UNPREDICTABLE>
    5cf4:	381d0000 	ldmdacc	sp, {}	; <UNPREDICTABLE>
    5cf8:	de170000 	cdple	0, 1, cr0, cr7, cr0, {0}
    5cfc:	01000009 	tsteq	r0, r9
    5d00:	002c362d 	eoreq	r3, ip, sp, lsr #12
    5d04:	38930000 	ldmcc	r3, {}	; <UNPREDICTABLE>
    5d08:	388b0000 	stmcc	fp, {}	; <UNPREDICTABLE>
    5d0c:	ea1d0000 	b	745d14 <__bss_end__+0x73b82c>
    5d10:	01000009 	tsteq	r0, r9
    5d14:	00c20b2e 	sbceq	r0, r2, lr, lsr #22
    5d18:	38db0000 	ldmcc	fp, {}^	; <UNPREDICTABLE>
    5d1c:	38cd0000 	stmiacc	sp, {}^	; <UNPREDICTABLE>
    5d20:	f10e0000 	cpsid	,#0
    5d24:	d8000005 	stmdale	r0, {r0, r2}
    5d28:	05000007 	streq	r0, [r0, #-7]
    5d2c:	00a06803 	adceq	r6, r0, r3, lsl #16
    5d30:	99040f00 	stmdbls	r4, {r8, r9, sl, fp}
    5d34:	08bc0000 	ldmeq	ip!, {}	; <UNPREDICTABLE>
    5d38:	077e0000 	ldrbeq	r0, [lr, -r0]!
    5d3c:	01100000 	tsteq	r0, r0
    5d40:	5c030550 	cfstr32pl	mvfx0, [r3], {80}	; 0x50
    5d44:	1000009d 	mulne	r0, sp, r0
    5d48:	03055101 	movweq	r5, #20737	; 0x5101
    5d4c:	00009ed0 	ldrdeq	r9, [r0], -r0
    5d50:	05520110 	ldrbeq	r0, [r2, #-272]	; 0xfffffef0
    5d54:	00a06803 	adceq	r6, r0, r3, lsl #16
    5d58:	53011000 	movwpl	r1, #4096	; 0x1000
    5d5c:	10300802 	eorsne	r0, r0, r2, lsl #16
    5d60:	05007d02 	streq	r7, [r0, #-3330]	; 0xfffff2fe
    5d64:	009edc03 	addseq	sp, lr, r3, lsl #24
    5d68:	08110000 	ldmdaeq	r1, {}	; <UNPREDICTABLE>
    5d6c:	c8000099 	stmdagt	r0, {r0, r3, r4, r7}
    5d70:	0f000008 	svceq	0x00000008
    5d74:	0000992c 	andeq	r9, r0, ip, lsr #18
    5d78:	000008bc 			; <UNDEFINED> instruction: 0x000008bc
    5d7c:	000007be 			; <UNDEFINED> instruction: 0x000007be
    5d80:	05500110 	ldrbeq	r0, [r0, #-272]	; 0xfffffef0
    5d84:	009ee803 	addseq	lr, lr, r3, lsl #16
    5d88:	51011000 	mrspl	r1, (UNDEF: 1)
    5d8c:	9ed00305 	cdpls	3, 13, cr0, cr0, cr5, {0}
    5d90:	01100000 	tsteq	r0, r0
    5d94:	68030552 	stmdavs	r3, {r1, r4, r6, r8, sl}
    5d98:	100000a0 	andne	r0, r0, r0, lsr #1
    5d9c:	08025301 	stmdaeq	r2, {r0, r8, r9, ip, lr}
    5da0:	7d021034 	stcvc	0, cr1, [r2, #-208]	; 0xffffff30
    5da4:	01f30300 	mvnseq	r0, r0, lsl #6
    5da8:	30110050 	andscc	r0, r1, r0, asr r0
    5dac:	c8000099 	stmdagt	r0, {r0, r3, r4, r7}
    5db0:	00000008 	andeq	r0, r0, r8
    5db4:	00007e12 	andeq	r7, r0, r2, lsl lr
    5db8:	0007d800 	andeq	sp, r7, r0, lsl #16
    5dbc:	002c1300 	eoreq	r1, ip, r0, lsl #6
    5dc0:	00160000 	andseq	r0, r6, r0
    5dc4:	0007c805 	andeq	ip, r7, r5, lsl #16
    5dc8:	0aa01f00 	beq	fe80d9d0 <__bss_end__+0xfe8034e8>
    5dcc:	2a010000 	bcs	45dd4 <__bss_end__+0x3b8ec>
    5dd0:	00008a07 	andeq	r8, r0, r7, lsl #20
    5dd4:	00989c00 	addseq	r9, r8, r0, lsl #24
    5dd8:	00001000 	andeq	r1, r0, r0
    5ddc:	1f9c0100 	svcne	0x009c0100
    5de0:	000009cb 	andeq	r0, r0, fp, asr #19
    5de4:	8a072901 	bhi	1d01f0 <__bss_end__+0x1c5d08>
    5de8:	8c000000 	stchi	0, cr0, [r0], {-0}
    5dec:	10000098 	mulne	r0, r8, r0
    5df0:	01000000 	mrseq	r0, (UNDEF: 0)
    5df4:	0a101f9c 	beq	40dc6c <__bss_end__+0x403784>
    5df8:	28010000 	stmdacs	r1, {}	; <UNPREDICTABLE>
    5dfc:	00008a07 	andeq	r8, r0, r7, lsl #20
    5e00:	00987c00 	addseq	r7, r8, r0, lsl #24
    5e04:	00001000 	andeq	r1, r0, r0
    5e08:	209c0100 	addscs	r0, ip, r0, lsl #2
    5e0c:	00000a08 	andeq	r0, r0, r8, lsl #20
    5e10:	2c181001 	ldccs	0, cr1, [r8], {1}
    5e14:	03000000 	movweq	r0, #0
    5e18:	00000854 	andeq	r0, r0, r4, asr r8
    5e1c:	01007821 	tsteq	r0, r1, lsr #16
    5e20:	002c2910 	eoreq	r2, ip, r0, lsl r9
    5e24:	6e210000 	cdpvs	0, 2, cr0, cr1, cr0, {0}
    5e28:	35100100 	ldrcc	r0, [r0, #-256]	; 0xffffff00
    5e2c:	0000002c 	andeq	r0, r0, ip, lsr #32
    5e30:	0005f10e 	andeq	pc, r5, lr, lsl #2
    5e34:	00051800 	andeq	r1, r5, r0, lsl #16
    5e38:	b8030500 	stmdalt	r3, {r8, sl}
    5e3c:	000000a0 	andeq	r0, r0, r0, lsr #1
    5e40:	000a6f20 	andeq	r6, sl, r0, lsr #30
    5e44:	180d0100 	stmdane	sp, {r8}
    5e48:	0000002c 	andeq	r0, r0, ip, lsr #32
    5e4c:	00087003 	andeq	r7, r8, r3
    5e50:	00782100 	rsbseq	r2, r8, r0, lsl #2
    5e54:	2c290d01 	stccs	13, cr0, [r9], #-4
    5e58:	00000000 	andeq	r0, r0, r0
    5e5c:	000a8e20 	andeq	r8, sl, r0, lsr #28
    5e60:	18070100 	stmdane	r7, {r8}
    5e64:	0000002c 	andeq	r0, r0, ip, lsr #32
    5e68:	00089603 	andeq	r9, r8, r3, lsl #12
    5e6c:	00782100 	rsbseq	r2, r8, r0, lsl #2
    5e70:	2c2c0701 	stccs	7, cr0, [ip], #-4
    5e74:	21000000 	mrscs	r0, (UNDEF: 0)
    5e78:	0701006e 	streq	r0, [r1, -lr, rrx]
    5e7c:	00002c38 	andeq	r2, r0, r8, lsr ip
    5e80:	41200000 			; <UNDEFINED> instruction: 0x41200000
    5e84:	0100000a 	tsteq	r0, sl
    5e88:	005d1804 	subseq	r1, sp, r4, lsl #16
    5e8c:	bc030000 	stclt	0, cr0, [r3], {-0}
    5e90:	21000008 	tstcs	r0, r8
    5e94:	04010078 	streq	r0, [r1], #-120	; 0xffffff88
    5e98:	00005d29 	andeq	r5, r0, r9, lsr #26
    5e9c:	00792100 	rsbseq	r2, r9, r0, lsl #2
    5ea0:	5d350401 	cfldrspl	mvf0, [r5, #-4]!
    5ea4:	00000000 	andeq	r0, r0, r0
    5ea8:	00055922 	andeq	r5, r5, r2, lsr #18
    5eac:	00055900 	andeq	r5, r5, r0, lsl #18
    5eb0:	06280200 	strteq	r0, [r8], -r0, lsl #4
    5eb4:	0005fe22 	andeq	pc, r5, r2, lsr #28
    5eb8:	0005fe00 	andeq	pc, r5, r0, lsl #28
    5ebc:	066e0200 	strbteq	r0, [lr], -r0, lsl #4
    5ec0:	000ac822 	andeq	ip, sl, r2, lsr #16
    5ec4:	000ac800 	andeq	ip, sl, r0, lsl #16
    5ec8:	061d0200 	ldreq	r0, [sp], -r0, lsl #4
    5ecc:	00024022 	andeq	r4, r2, r2, lsr #32
    5ed0:	00024000 	andeq	r4, r2, r0
    5ed4:	07f20200 	ldrbeq	r0, [r2, r0, lsl #4]!
    5ed8:	00014900 	andeq	r4, r1, r0, lsl #18
    5edc:	02000400 	andeq	r0, r0, #0, 8
    5ee0:	04000016 	streq	r0, [r0], #-22	; 0xffffffea
    5ee4:	00049901 	andeq	r9, r4, r1, lsl #18
    5ee8:	0af50c00 	beq	ffd48ef0 <__bss_end__+0xffd3ea08>
    5eec:	042d0000 	strteq	r0, [sp], #-0
    5ef0:	9c2c0000 	stcls	0, cr0, [ip], #-0
    5ef4:	003c0000 	eorseq	r0, ip, r0
    5ef8:	2b360000 	blcs	d85f00 <__bss_end__+0xd7ba18>
    5efc:	04020000 	streq	r0, [r2], #-0
    5f00:	746e6905 	strbtvc	r6, [lr], #-2309	; 0xfffff6fb
    5f04:	07040300 	streq	r0, [r4, -r0, lsl #6]
    5f08:	0000019d 	muleq	r0, sp, r1
    5f0c:	8f060103 	svchi	0x00060103
    5f10:	03000000 	movweq	r0, #0
    5f14:	01d40502 	bicseq	r0, r4, r2, lsl #10
    5f18:	04030000 	streq	r0, [r3], #-0
    5f1c:	0001bf05 	andeq	fp, r1, r5, lsl #30
    5f20:	05080300 	streq	r0, [r8, #-768]	; 0xfffffd00
    5f24:	000001ba 			; <UNDEFINED> instruction: 0x000001ba
    5f28:	8d080103 	stfhis	f0, [r8, #-12]
    5f2c:	03000000 	movweq	r0, #0
    5f30:	00a40702 	adceq	r0, r4, r2, lsl #14
    5f34:	04030000 	streq	r0, [r3], #-0
    5f38:	00019807 	andeq	r9, r1, r7, lsl #16
    5f3c:	07080300 	streq	r0, [r8, -r0, lsl #6]
    5f40:	00000193 	muleq	r0, r3, r1
    5f44:	00002504 	andeq	r2, r0, r4, lsl #10
    5f48:	00007a00 	andeq	r7, r0, r0, lsl #20
    5f4c:	00250500 	eoreq	r0, r5, r0, lsl #10
    5f50:	06000000 	streq	r0, [r0], -r0
    5f54:	000001c8 	andeq	r0, r0, r8, asr #3
    5f58:	860e1c02 	strhi	r1, [lr], -r2, lsl #24
    5f5c:	07000000 	streq	r0, [r0, -r0]
    5f60:	00006b04 	andeq	r6, r0, r4, lsl #22
    5f64:	00250400 	eoreq	r0, r5, r0, lsl #8
    5f68:	009b0000 	addseq	r0, fp, r0
    5f6c:	9b050000 	blls	145f74 <__bss_end__+0x13ba8c>
    5f70:	00000000 	andeq	r0, r0, r0
    5f74:	00a80407 	adceq	r0, r8, r7, lsl #8
    5f78:	01030000 	mrseq	r0, (UNDEF: 3)
    5f7c:	00009608 	andeq	r9, r0, r8, lsl #12
    5f80:	00a10800 	adceq	r0, r1, r0, lsl #16
    5f84:	97060000 	strls	r0, [r6, -r0]
    5f88:	02000005 	andeq	r0, r0, #5, 0
    5f8c:	00b90e21 	adcseq	r0, r9, r1, lsr #28
    5f90:	04070000 	streq	r0, [r7], #-0
    5f94:	0000008c 	andeq	r0, r0, ip, lsl #1
    5f98:	00007a09 	andeq	r7, r0, r9, lsl #20
    5f9c:	07060100 	streq	r0, [r6, -r0, lsl #2]
    5fa0:	a0dc0305 	sbcsge	r0, ip, r5, lsl #6
    5fa4:	e80a0000 	stmda	sl, {}	; <UNPREDICTABLE>
    5fa8:	0100000a 	tsteq	r0, sl
    5fac:	9c58060b 	mrrcls	6, 0, r0, r8, cr11
    5fb0:	00100000 	andseq	r0, r0, r0
    5fb4:	9c010000 	stcls	0, cr0, [r1], {-0}
    5fb8:	000000f1 	strdeq	r0, [r0], -r1
    5fbc:	0070660b 	rsbseq	r6, r0, fp, lsl #12
    5fc0:	86190b01 	ldrhi	r0, [r9], -r1, lsl #22
    5fc4:	01000000 	mrseq	r0, (UNDEF: 0)
    5fc8:	c80c0050 	stmdagt	ip, {r4, r6}
    5fcc:	0100000a 	tsteq	r0, sl
    5fd0:	9c400608 	mcrrls	6, 0, r0, r0, cr8
    5fd4:	00180000 	andseq	r0, r8, r0
    5fd8:	9c010000 	stcls	0, cr0, [r1], {-0}
    5fdc:	000ad70d 	andeq	sp, sl, sp, lsl #14
    5fe0:	0c030100 	stfeqs	f0, [r3], {-0}
    5fe4:	00000025 	andeq	r0, r0, r5, lsr #32
    5fe8:	00009c2c 	andeq	r9, r0, ip, lsr #24
    5fec:	00000014 	andeq	r0, r0, r4, lsl r0
    5ff0:	01409c01 	cmpeq	r0, r1, lsl #24
    5ff4:	630e0000 	movwvs	r0, #57344	; 0xe000
    5ff8:	21030100 	mrscs	r0, (UNDEF: 19)
    5ffc:	00000025 	andeq	r0, r0, r5, lsr #32
    6000:	0000393f 	andeq	r3, r0, pc, lsr r9
    6004:	0000393b 	andeq	r3, r0, fp, lsr r9
    6008:	009c380f 	addseq	r3, ip, pc, lsl #16
    600c:	00014000 	andeq	r4, r1, r0
    6010:	50011000 	andpl	r1, r1, r0
    6014:	00007402 	andeq	r7, r0, r2, lsl #8
    6018:	09bb1100 	ldmibeq	fp!, {r8, ip}
    601c:	09bb0000 	ldmibeq	fp!, {}	; <UNPREDICTABLE>
    6020:	42020000 	andmi	r0, r2, #0, 0
    6024:	01370006 	teqeq	r7, r6
    6028:	00040000 	andeq	r0, r4, r0
    602c:	00001711 	andeq	r1, r0, r1, lsl r7
    6030:	04990104 	ldreq	r0, [r9], #260	; 0x104
    6034:	060c0000 	streq	r0, [ip], -r0
    6038:	2d00000b 	stccs	0, cr0, [r0, #-44]	; 0xffffffd4
    603c:	68000004 	stmdavs	r0, {r2}
    6040:	2c00009c 	stccs	0, cr0, [r0], {156}	; 0x9c
    6044:	d8000000 	stmdale	r0, {}	; <UNPREDICTABLE>
    6048:	0200002b 	andeq	r0, r0, #43, 0	; 0x2b
    604c:	6e690504 	cdpvs	5, 6, cr0, cr9, cr4, {0}
    6050:	04030074 	streq	r0, [r3], #-116	; 0xffffff8c
    6054:	00019d07 	andeq	r9, r1, r7, lsl #26
    6058:	06010300 	streq	r0, [r1], -r0, lsl #6
    605c:	0000008f 	andeq	r0, r0, pc, lsl #1
    6060:	d4050203 	strle	r0, [r5], #-515	; 0xfffffdfd
    6064:	03000001 	movweq	r0, #1
    6068:	01bf0504 			; <UNDEFINED> instruction: 0x01bf0504
    606c:	08030000 	stmdaeq	r3, {}	; <UNPREDICTABLE>
    6070:	0001ba05 	andeq	fp, r1, r5, lsl #20
    6074:	08010300 	stmdaeq	r1, {r8, r9}
    6078:	0000008d 	andeq	r0, r0, sp, lsl #1
    607c:	a4070203 	strge	r0, [r7], #-515	; 0xfffffdfd
    6080:	03000000 	movweq	r0, #0
    6084:	01980704 	orrseq	r0, r8, r4, lsl #14
    6088:	08030000 	stmdaeq	r3, {}	; <UNPREDICTABLE>
    608c:	00019307 	andeq	r9, r1, r7, lsl #6
    6090:	00250400 	eoreq	r0, r5, r0, lsl #8
    6094:	007a0000 	rsbseq	r0, sl, r0
    6098:	25050000 	strcs	r0, [r5, #-0]
    609c:	00000000 	andeq	r0, r0, r0
    60a0:	0001c806 	andeq	ip, r1, r6, lsl #16
    60a4:	0e1c0200 	cdpeq	2, 1, cr0, cr12, cr0, {0}
    60a8:	00000086 	andeq	r0, r0, r6, lsl #1
    60ac:	006b0407 	rsbeq	r0, fp, r7, lsl #8
    60b0:	25040000 	strcs	r0, [r4, #-0]
    60b4:	9b000000 	blls	60bc <__code_start__-0x1f44>
    60b8:	05000000 	streq	r0, [r0, #-0]
    60bc:	0000009b 	muleq	r0, fp, r0
    60c0:	a8040700 	stmdage	r4, {r8, r9, sl}
    60c4:	03000000 	movweq	r0, #0
    60c8:	00960801 	addseq	r0, r6, r1, lsl #16
    60cc:	a1080000 	mrsge	r0, (UNDEF: 8)
    60d0:	06000000 	streq	r0, [r0], -r0
    60d4:	00000597 	muleq	r0, r7, r5
    60d8:	b90e2102 	stmdblt	lr, {r1, r8, sp}
    60dc:	07000000 	streq	r0, [r0, -r0]
    60e0:	00008c04 	andeq	r8, r0, r4, lsl #24
    60e4:	06540900 	ldrbeq	r0, [r4], -r0, lsl #18
    60e8:	04010000 	streq	r0, [r1], #-0
    60ec:	00013407 	andeq	r3, r1, r7, lsl #8
    60f0:	009c6800 	addseq	r6, ip, r0, lsl #16
    60f4:	00002c00 	andeq	r2, r0, r0, lsl #24
    60f8:	349c0100 	ldrcc	r0, [ip], #256	; 0x100
    60fc:	0a000001 	beq	6108 <__code_start__-0x1ef8>
    6100:	00000b16 	andeq	r0, r0, r6, lsl fp
    6104:	34150401 	ldrcc	r0, [r5], #-1025	; 0xfffffbff
    6108:	01000001 	tsteq	r0, r1
    610c:	72730b50 	rsbsvc	r0, r3, #80, 22	; 0x14000
    6110:	04010063 	streq	r0, [r1], #-99	; 0xffffff9d
    6114:	00009b27 	andeq	r9, r0, r7, lsr #22
    6118:	00396100 	eorseq	r6, r9, r0, lsl #2
    611c:	00395d00 	eorseq	r5, r9, r0, lsl #26
    6120:	31730c00 	cmncc	r3, r0, lsl #24
    6124:	0b050100 	bleq	14652c <__bss_end__+0x13c044>
    6128:	00000134 	andeq	r0, r0, r4, lsr r1
    612c:	00003990 	muleq	r0, r0, r9
    6130:	00003982 	andeq	r3, r0, r2, lsl #19
    6134:	0032730c 	eorseq	r7, r2, ip, lsl #6
    6138:	9b110601 	blls	447944 <__bss_end__+0x43d45c>
    613c:	ef000000 	svc	0x00000000
    6140:	e9000039 	stmdb	r0, {r0, r3, r4, r5}
    6144:	0c000039 	stceq	0, cr0, [r0], {57}	; 0x39
    6148:	07010063 	streq	r0, [r1, -r3, rrx]
    614c:	0000a10a 	andeq	sl, r0, sl, lsl #2
    6150:	003a2000 	eorseq	r2, sl, r0
    6154:	003a1a00 	eorseq	r1, sl, r0, lsl #20
    6158:	04070000 	streq	r0, [r7], #-0
    615c:	000000a1 	andeq	r0, r0, r1, lsr #1
    6160:	0000f700 	andeq	pc, r0, r0, lsl #14
    6164:	c7000400 	strgt	r0, [r0, -r0, lsl #8]
    6168:	04000017 	streq	r0, [r0], #-23	; 0xffffffe9
    616c:	00049901 	andeq	r9, r4, r1, lsl #18
    6170:	0b1b0c00 	bleq	6c9178 <__bss_end__+0x6bec90>
    6174:	042d0000 	strteq	r0, [sp], #-0
    6178:	9c940000 	ldcls	0, cr0, [r4], {0}
    617c:	00440000 	subeq	r0, r4, r0
    6180:	2cbe0000 	ldccs	0, cr0, [lr]
    6184:	04020000 	streq	r0, [r2], #-0
    6188:	746e6905 	strbtvc	r6, [lr], #-2309	; 0xfffff6fb
    618c:	07040300 	streq	r0, [r4, -r0, lsl #6]
    6190:	0000019d 	muleq	r0, sp, r1
    6194:	8f060103 	svchi	0x00060103
    6198:	03000000 	movweq	r0, #0
    619c:	01d40502 	bicseq	r0, r4, r2, lsl #10
    61a0:	04030000 	streq	r0, [r3], #-0
    61a4:	0001bf05 	andeq	fp, r1, r5, lsl #30
    61a8:	05080300 	streq	r0, [r8, #-768]	; 0xfffffd00
    61ac:	000001ba 			; <UNDEFINED> instruction: 0x000001ba
    61b0:	8d080103 	stfhis	f0, [r8, #-12]
    61b4:	03000000 	movweq	r0, #0
    61b8:	00a40702 	adceq	r0, r4, r2, lsl #14
    61bc:	04030000 	streq	r0, [r3], #-0
    61c0:	00019807 	andeq	r9, r1, r7, lsl #16
    61c4:	07080300 	streq	r0, [r8, -r0, lsl #6]
    61c8:	00000193 	muleq	r0, r3, r1
    61cc:	00002504 	andeq	r2, r0, r4, lsl #10
    61d0:	00007a00 	andeq	r7, r0, r0, lsl #20
    61d4:	00250500 	eoreq	r0, r5, r0, lsl #10
    61d8:	06000000 	streq	r0, [r0], -r0
    61dc:	000001c8 	andeq	r0, r0, r8, asr #3
    61e0:	860e1c02 	strhi	r1, [lr], -r2, lsl #24
    61e4:	07000000 	streq	r0, [r0, -r0]
    61e8:	00006b04 	andeq	r6, r0, r4, lsl #22
    61ec:	00250400 	eoreq	r0, r5, r0, lsl #8
    61f0:	009b0000 	addseq	r0, fp, r0
    61f4:	9b050000 	blls	1461fc <__bss_end__+0x13bd14>
    61f8:	00000000 	andeq	r0, r0, r0
    61fc:	00a80407 	adceq	r0, r8, r7, lsl #8
    6200:	01030000 	mrseq	r0, (UNDEF: 3)
    6204:	00009608 	andeq	r9, r0, r8, lsl #12
    6208:	00a10800 	adceq	r0, r1, r0, lsl #16
    620c:	97060000 	strls	r0, [r6, -r0]
    6210:	02000005 	andeq	r0, r0, #5, 0
    6214:	00b90e21 	adcseq	r0, r9, r1, lsr #28
    6218:	04070000 	streq	r0, [r7], #-0
    621c:	0000008c 	andeq	r0, r0, ip, lsl #1
    6220:	00068209 	andeq	r8, r6, r9, lsl #4
    6224:	05030100 	streq	r0, [r3, #-256]	; 0xffffff00
    6228:	00000025 	andeq	r0, r0, r5, lsr #32
    622c:	00009c94 	muleq	r0, r4, ip
    6230:	00000044 	andeq	r0, r0, r4, asr #32
    6234:	610a9c01 	tstvs	sl, r1, lsl #24
    6238:	18030100 	stmdane	r3, {r8}
    623c:	0000009b 	muleq	r0, fp, r0
    6240:	00003a57 	andeq	r3, r0, r7, asr sl
    6244:	00003a4b 	andeq	r3, r0, fp, asr #20
    6248:	0100620a 	tsteq	r0, sl, lsl #4
    624c:	009b2703 	addseq	r2, fp, r3, lsl #14
    6250:	3aab0000 	bcc	feac6258 <__bss_end__+0xfeabbd70>
    6254:	3aa50000 	bcc	fe94625c <__bss_end__+0xfe93bd74>
    6258:	00000000 	andeq	r0, r0, r0
    625c:	0000010f 	andeq	r0, r0, pc, lsl #2
    6260:	18560004 	ldmdane	r6, {r2}^
    6264:	01040000 	mrseq	r0, (UNDEF: 4)
    6268:	00000499 	muleq	r0, r9, r4
    626c:	000b2b0c 	andeq	r2, fp, ip, lsl #22
    6270:	00042d00 	andeq	r2, r4, r0, lsl #26
    6274:	009cd800 	addseq	sp, ip, r0, lsl #16
    6278:	00001800 	andeq	r1, r0, r0, lsl #16
    627c:	002d7400 	eoreq	r7, sp, r0, lsl #8
    6280:	05040200 	streq	r0, [r4, #-512]	; 0xfffffe00
    6284:	00746e69 	rsbseq	r6, r4, r9, ror #28
    6288:	9d070403 	cfstrsls	mvf0, [r7, #-12]
    628c:	03000001 	movweq	r0, #1
    6290:	008f0601 	addeq	r0, pc, r1, lsl #12
    6294:	02030000 	andeq	r0, r3, #0, 0
    6298:	0001d405 	andeq	sp, r1, r5, lsl #8
    629c:	05040300 	streq	r0, [r4, #-768]	; 0xfffffd00
    62a0:	000001bf 			; <UNDEFINED> instruction: 0x000001bf
    62a4:	ba050803 	blt	1482b8 <__bss_end__+0x13ddd0>
    62a8:	03000001 	movweq	r0, #1
    62ac:	008d0801 	addeq	r0, sp, r1, lsl #16
    62b0:	02030000 	andeq	r0, r3, #0, 0
    62b4:	0000a407 	andeq	sl, r0, r7, lsl #8
    62b8:	07040300 	streq	r0, [r4, -r0, lsl #6]
    62bc:	00000198 	muleq	r0, r8, r1
    62c0:	93070803 	movwls	r0, #30723	; 0x7803
    62c4:	04000001 	streq	r0, [r0], #-1
    62c8:	00000025 	andeq	r0, r0, r5, lsr #32
    62cc:	0000007a 	andeq	r0, r0, sl, ror r0
    62d0:	00002505 	andeq	r2, r0, r5, lsl #10
    62d4:	c8060000 	stmdagt	r6, {}	; <UNPREDICTABLE>
    62d8:	02000001 	andeq	r0, r0, #1, 0
    62dc:	00860e1c 	addeq	r0, r6, ip, lsl lr
    62e0:	04070000 	streq	r0, [r7], #-0
    62e4:	0000006b 	andeq	r0, r0, fp, rrx
    62e8:	00002504 	andeq	r2, r0, r4, lsl #10
    62ec:	00009b00 	andeq	r9, r0, r0, lsl #22
    62f0:	009b0500 	addseq	r0, fp, r0, lsl #10
    62f4:	07000000 	streq	r0, [r0, -r0]
    62f8:	0000a804 	andeq	sl, r0, r4, lsl #16
    62fc:	08010300 	stmdaeq	r1, {r8, r9}
    6300:	00000096 	muleq	r0, r6, r0
    6304:	0000a108 	andeq	sl, r0, r8, lsl #2
    6308:	05970600 	ldreq	r0, [r7, #1536]	; 0x600
    630c:	21020000 	mrscs	r0, (UNDEF: 2)
    6310:	0000b90e 	andeq	fp, r0, lr, lsl #18
    6314:	8c040700 	stchi	7, cr0, [r4], {-0}
    6318:	09000000 	stmdbeq	r0, {}	; <UNPREDICTABLE>
    631c:	0000065b 	andeq	r0, r0, fp, asr r6
    6320:	0c070301 	stceq	3, cr0, [r7], {1}
    6324:	d8000001 	stmdale	r0, {r0}
    6328:	1800009c 	stmdane	r0, {r2, r3, r4, r7}
    632c:	01000000 	mrseq	r0, (UNDEF: 0)
    6330:	00010c9c 	muleq	r1, ip, ip
    6334:	31730a00 	cmncc	r3, r0, lsl #20
    6338:	15030100 	strne	r0, [r3, #-256]	; 0xffffff00
    633c:	0000010c 	andeq	r0, r0, ip, lsl #2
    6340:	730b5001 	movwvc	r5, #45057	; 0xb001
    6344:	03010032 	movweq	r0, #4146	; 0x1032
    6348:	00009b26 	andeq	r9, r0, r6, lsr #22
    634c:	003ada00 	eorseq	sp, sl, r0, lsl #20
    6350:	003ad400 	eorseq	sp, sl, r0, lsl #8
    6354:	00730c00 	rsbseq	r0, r3, r0, lsl #24
    6358:	0c140401 	cfldrseq	mvf0, [r4], {1}
    635c:	07000001 	streq	r0, [r0, -r1]
    6360:	0500003b 	streq	r0, [r0, #-59]	; 0xffffffc5
    6364:	0000003b 	andeq	r0, r0, fp, lsr r0
    6368:	00a10407 	adceq	r0, r1, r7, lsl #8
    636c:	4e000000 	cdpmi	0, 0, cr0, cr0, cr0, {0}
    6370:	04000001 	streq	r0, [r0], #-1
    6374:	00190c00 	andseq	r0, r9, r0, lsl #24
    6378:	99010400 	stmdbls	r1, {sl}
    637c:	0c000004 	stceq	0, cr0, [r0], {4}
    6380:	00000b3b 	andeq	r0, r0, fp, lsr fp
    6384:	0000042d 	andeq	r0, r0, sp, lsr #8
    6388:	00009cf0 	strdeq	r9, [r0], -r0
    638c:	00000030 	andeq	r0, r0, r0, lsr r0
    6390:	00002e15 	andeq	r2, r0, r5, lsl lr
    6394:	69050402 	stmdbvs	r5, {r1, sl}
    6398:	0300746e 	movweq	r7, #1134	; 0x46e
    639c:	00000482 	andeq	r0, r0, r2, lsl #9
    63a0:	3817d103 	ldmdacc	r7, {r0, r1, r8, ip, lr, pc}
    63a4:	04000000 	streq	r0, [r0], #-0
    63a8:	019d0704 	orrseq	r0, sp, r4, lsl #14
    63ac:	01040000 	mrseq	r0, (UNDEF: 4)
    63b0:	00008f06 	andeq	r8, r0, r6, lsl #30
    63b4:	05020400 	streq	r0, [r2, #-1024]	; 0xfffffc00
    63b8:	000001d4 	ldrdeq	r0, [r0], -r4
    63bc:	bf050404 	svclt	0x00050404
    63c0:	04000001 	streq	r0, [r0], #-1
    63c4:	01ba0508 			; <UNDEFINED> instruction: 0x01ba0508
    63c8:	01040000 	mrseq	r0, (UNDEF: 4)
    63cc:	00008d08 	andeq	r8, r0, r8, lsl #26
    63d0:	005b0500 	subseq	r0, fp, r0, lsl #10
    63d4:	02040000 	andeq	r0, r4, #0, 0
    63d8:	0000a407 	andeq	sl, r0, r7, lsl #8
    63dc:	07040400 	streq	r0, [r4, -r0, lsl #8]
    63e0:	00000198 	muleq	r0, r8, r1
    63e4:	93070804 	movwls	r0, #30724	; 0x7804
    63e8:	06000001 	streq	r0, [r0], -r1
    63ec:	00000025 	andeq	r0, r0, r5, lsr #32
    63f0:	0000008b 	andeq	r0, r0, fp, lsl #1
    63f4:	00002507 	andeq	r2, r0, r7, lsl #10
    63f8:	c8080000 	stmdagt	r8, {}	; <UNPREDICTABLE>
    63fc:	02000001 	andeq	r0, r0, #1, 0
    6400:	00970e1c 	addseq	r0, r7, ip, lsl lr
    6404:	04090000 	streq	r0, [r9], #-0
    6408:	0000007c 	andeq	r0, r0, ip, ror r0
    640c:	00002506 	andeq	r2, r0, r6, lsl #10
    6410:	0000ac00 	andeq	sl, r0, r0, lsl #24
    6414:	00ac0700 	adceq	r0, ip, r0, lsl #14
    6418:	09000000 	stmdbeq	r0, {}	; <UNPREDICTABLE>
    641c:	0000b904 	andeq	fp, r0, r4, lsl #18
    6420:	08010400 	stmdaeq	r1, {sl}
    6424:	00000096 	muleq	r0, r6, r0
    6428:	0000b205 	andeq	fp, r0, r5, lsl #4
    642c:	05970800 	ldreq	r0, [r7, #2048]	; 0x800
    6430:	21020000 	mrscs	r0, (UNDEF: 2)
    6434:	0000ca0e 	andeq	ip, r0, lr, lsl #20
    6438:	9d040900 	vstrls.16	s0, [r4, #-0]	; <UNPREDICTABLE>
    643c:	0a000000 	beq	6444 <__code_start__-0x1bbc>
    6440:	000006b2 			; <UNDEFINED> instruction: 0x000006b2
    6444:	25050401 	strcs	r0, [r5, #-1025]	; 0xfffffbff
    6448:	f0000000 			; <UNDEFINED> instruction: 0xf0000000
    644c:	3000009c 	mulcc	r0, ip, r0
    6450:	01000000 	mrseq	r0, (UNDEF: 0)
    6454:	00014b9c 	muleq	r1, ip, fp
    6458:	735f0b00 	cmpvc	pc, #0, 22
    645c:	04010031 	streq	r0, [r1], #-49	; 0xffffffcf
    6460:	0000ac19 	andeq	sl, r0, r9, lsl ip
    6464:	003b1e00 	eorseq	r1, fp, r0, lsl #28
    6468:	003b1a00 	eorseq	r1, fp, r0, lsl #20
    646c:	735f0b00 	cmpvc	pc, #0, 22
    6470:	04010032 	streq	r0, [r1], #-50	; 0xffffffce
    6474:	0000ac2a 	andeq	sl, r0, sl, lsr #24
    6478:	003b4300 	eorseq	r4, fp, r0, lsl #6
    647c:	003b3f00 	eorseq	r3, fp, r0, lsl #30
    6480:	006e0b00 	rsbeq	r0, lr, r0, lsl #22
    6484:	2c360401 	cfldrscs	mvf0, [r6], #-4
    6488:	6e000000 	cdpvs	0, 0, cr0, cr0, cr0, {0}
    648c:	6400003b 	strvs	r0, [r0], #-59	; 0xffffffc5
    6490:	0c00003b 	stceq	0, cr0, [r0], {59}	; 0x3b
    6494:	01003173 	tsteq	r0, r3, ror r1
    6498:	014b1a05 	cmpeq	fp, r5, lsl #20
    649c:	3bc50000 	blcc	ff1464a4 <__bss_end__+0xff13bfbc>
    64a0:	3bbd0000 	blcc	fef464a8 <__bss_end__+0xfef3bfc0>
    64a4:	730c0000 	movwvc	r0, #49152	; 0xc000
    64a8:	05010032 	streq	r0, [r1, #-50]	; 0xffffffce
    64ac:	00014b2c 	andeq	r4, r1, ip, lsr #22
    64b0:	003c0300 	eorseq	r0, ip, r0, lsl #6
    64b4:	003bfd00 	eorseq	pc, fp, r0, lsl #26
    64b8:	04090000 	streq	r0, [r9], #-0
    64bc:	00000062 	andeq	r0, r0, r2, rrx
    64c0:	0000ce00 	andeq	ip, r0, r0, lsl #28
    64c4:	c0000400 	andgt	r0, r0, r0, lsl #8
    64c8:	04000019 	streq	r0, [r0], #-25	; 0xffffffe7
    64cc:	00049901 	andeq	r9, r4, r1, lsl #18
    64d0:	0b4c0c00 	bleq	13094d8 <__bss_end__+0x12feff0>
    64d4:	042d0000 	strteq	r0, [sp], #-0
    64d8:	9d200000 	stcls	0, cr0, [r0, #-0]
    64dc:	00040000 	andeq	r0, r4, r0
    64e0:	2f160000 	svccs	0x00160000
    64e4:	04020000 	streq	r0, [r2], #-0
    64e8:	746e6905 	strbtvc	r6, [lr], #-2309	; 0xfffff6fb
    64ec:	07040300 	streq	r0, [r4, -r0, lsl #6]
    64f0:	0000019d 	muleq	r0, sp, r1
    64f4:	8f060103 	svchi	0x00060103
    64f8:	03000000 	movweq	r0, #0
    64fc:	01d40502 	bicseq	r0, r4, r2, lsl #10
    6500:	04030000 	streq	r0, [r3], #-0
    6504:	0001bf05 	andeq	fp, r1, r5, lsl #30
    6508:	05080300 	streq	r0, [r8, #-768]	; 0xfffffd00
    650c:	000001ba 			; <UNDEFINED> instruction: 0x000001ba
    6510:	8d080103 	stfhis	f0, [r8, #-12]
    6514:	03000000 	movweq	r0, #0
    6518:	00a40702 	adceq	r0, r4, r2, lsl #14
    651c:	04030000 	streq	r0, [r3], #-0
    6520:	00019807 	andeq	r9, r1, r7, lsl #16
    6524:	07080300 	streq	r0, [r8, -r0, lsl #6]
    6528:	00000193 	muleq	r0, r3, r1
    652c:	00002504 	andeq	r2, r0, r4, lsl #10
    6530:	00007a00 	andeq	r7, r0, r0, lsl #20
    6534:	00250500 	eoreq	r0, r5, r0, lsl #10
    6538:	06000000 	streq	r0, [r0], -r0
    653c:	000001c8 	andeq	r0, r0, r8, asr #3
    6540:	860e1c02 	strhi	r1, [lr], -r2, lsl #24
    6544:	07000000 	streq	r0, [r0, -r0]
    6548:	00006b04 	andeq	r6, r0, r4, lsl #22
    654c:	00250400 	eoreq	r0, r5, r0, lsl #8
    6550:	009b0000 	addseq	r0, fp, r0
    6554:	9b050000 	blls	14655c <__bss_end__+0x13c074>
    6558:	00000000 	andeq	r0, r0, r0
    655c:	00a80407 	adceq	r0, r8, r7, lsl #8
    6560:	01030000 	mrseq	r0, (UNDEF: 3)
    6564:	00009608 	andeq	r9, r0, r8, lsl #12
    6568:	00a10800 	adceq	r0, r1, r0, lsl #16
    656c:	97060000 	strls	r0, [r6, -r0]
    6570:	02000005 	andeq	r0, r0, #5, 0
    6574:	00b90e21 	adcseq	r0, r9, r1, lsr #28
    6578:	04070000 	streq	r0, [r7], #-0
    657c:	0000008c 	andeq	r0, r0, ip, lsl #1
    6580:	00077709 	andeq	r7, r7, r9, lsl #14
    6584:	06030100 	streq	r0, [r3], -r0, lsl #2
    6588:	00009d20 	andeq	r9, r0, r0, lsr #26
    658c:	00000004 	andeq	r0, r0, r4
    6590:	Address 0x0000000000006590 is out of bounds.


Disassembly of section .debug_abbrev:

00000000 <.debug_abbrev>:
       0:	25011101 	strcs	r1, [r1, #-257]	; 0xfffffeff
       4:	030b130e 	movweq	r1, #45838	; 0xb30e
       8:	110e1b0e 	tstne	lr, lr, lsl #22
       c:	10061201 	andne	r1, r6, r1, lsl #4
      10:	02000017 	andeq	r0, r0, #23, 0
      14:	0b0b0024 	bleq	2c00ac <__bss_end__+0x2b5bc4>
      18:	08030b3e 	stmdaeq	r3, {r1, r2, r3, r4, r5, r8, r9, fp}
      1c:	24030000 	strcs	r0, [r3], #-0
      20:	3e0b0b00 	vmlacc.f64	d0, d11, d0
      24:	000e030b 	andeq	r0, lr, fp, lsl #6
      28:	00350400 	eorseq	r0, r5, r0, lsl #8
      2c:	00001349 	andeq	r1, r0, r9, asr #6
      30:	49002605 	stmdbmi	r0, {r0, r2, r9, sl, sp}
      34:	06000013 			; <UNDEFINED> instruction: 0x06000013
      38:	19270115 	stmdbne	r7!, {r0, r2, r4, r8}
      3c:	13011349 	movwne	r1, #4937	; 0x1349
      40:	05070000 	streq	r0, [r7, #-0]
      44:	00134900 	andseq	r4, r3, r0, lsl #18
      48:	00340800 	eorseq	r0, r4, r0, lsl #16
      4c:	0b3a0e03 	bleq	e83860 <__bss_end__+0xe79378>
      50:	0b390b3b 	bleq	e42d44 <__bss_end__+0xe3885c>
      54:	193f1349 	ldmdbne	pc!, {r0, r3, r6, r8, r9, ip}	; <UNPREDICTABLE>
      58:	0000193c 	andeq	r1, r0, ip, lsr r9
      5c:	0b000f09 	bleq	3c88 <__code_start__-0x4378>
      60:	0013490b 	andseq	r4, r3, fp, lsl #18
      64:	00340a00 	eorseq	r0, r4, r0, lsl #20
      68:	0b3a0e03 	bleq	e8387c <__bss_end__+0xe79394>
      6c:	0b390b3b 	bleq	e42d60 <__bss_end__+0xe38878>
      70:	061c1349 	ldreq	r1, [ip], -r9, asr #6
      74:	340b0000 	strcc	r0, [fp], #-0
      78:	3a0e0300 	bcc	380c80 <__bss_end__+0x376798>
      7c:	390b3b0b 	stmdbcc	fp, {r0, r1, r3, r8, r9, fp, ip, sp}
      80:	1c13490b 			; <UNDEFINED> instruction: 0x1c13490b
      84:	0c00000b 	stceq	0, cr0, [r0], {11}
      88:	0e030016 	mcreq	0, 0, r0, cr3, cr6, {0}
      8c:	0b3b0b3a 	bleq	ec2d7c <__bss_end__+0xeb8894>
      90:	13490b39 	movtne	r0, #39737	; 0x9b39
      94:	130d0000 	movwne	r0, #53248	; 0xd000
      98:	3c0e0300 	stccc	3, cr0, [lr], {-0}
      9c:	0e000019 	mcreq	0, 0, r0, cr0, cr9, {0}
      a0:	0b3e0104 	bleq	f804b8 <__bss_end__+0xf75fd0>
      a4:	13490b0b 	movtne	r0, #39691	; 0x9b0b
      a8:	0b3b0b3a 	bleq	ec2d98 <__bss_end__+0xeb88b0>
      ac:	13010b39 	movwne	r0, #6969	; 0x1b39
      b0:	280f0000 	stmdacs	pc, {}	; <UNPREDICTABLE>
      b4:	1c0e0300 	stcne	3, cr0, [lr], {-0}
      b8:	1000000b 	andne	r0, r0, fp
      bc:	193f012e 	ldmdbne	pc!, {r1, r2, r3, r5, r8}	; <UNPREDICTABLE>
      c0:	0b3a0e03 	bleq	e838d4 <__bss_end__+0xe793ec>
      c4:	0b390b3b 	bleq	e42db8 <__bss_end__+0xe388d0>
      c8:	01111927 	tsteq	r1, r7, lsr #18
      cc:	18400612 	stmdane	r0, {r1, r4, r9, sl}^
      d0:	01194297 			; <UNDEFINED> instruction: 0x01194297
      d4:	11000013 	tstne	r0, r3, lsl r0
      d8:	08030034 	stmdaeq	r3, {r2, r4, r5}
      dc:	0b3b0b3a 	bleq	ec2dcc <__bss_end__+0xeb88e4>
      e0:	13490b39 	movtne	r0, #39737	; 0x9b39
      e4:	42b71702 	adcsmi	r1, r7, #524288	; 0x80000
      e8:	12000017 	andne	r0, r0, #23, 0
      ec:	1755010b 	ldrbne	r0, [r5, -fp, lsl #2]
      f0:	00001301 	andeq	r1, r0, r1, lsl #6
      f4:	55010b13 	strpl	r0, [r1, #-2835]	; 0xfffff4ed
      f8:	14000017 	strne	r0, [r0], #-23	; 0xffffffe9
      fc:	01018289 	smlabbeq	r1, r9, r2, r8
     100:	13310111 	teqne	r1, #1073741828	; 0x40000004
     104:	00001301 	andeq	r1, r0, r1, lsl #6
     108:	01828a15 	orreq	r8, r2, r5, lsl sl
     10c:	91180200 	tstls	r8, r0, lsl #4
     110:	00001842 	andeq	r1, r0, r2, asr #16
     114:	01828916 	orreq	r8, r2, r6, lsl r9
     118:	31011101 	tstcc	r1, r1, lsl #2
     11c:	17000013 	smladne	r0, r3, r0, r0
     120:	00018289 	andeq	r8, r1, r9, lsl #5
     124:	13310111 	teqne	r1, #1073741828	; 0x40000004
     128:	89180000 	ldmdbhi	r8, {}	; <UNPREDICTABLE>
     12c:	11010182 	smlabbne	r1, r2, r1, r0
     130:	19429501 	stmdbne	r2, {r0, r8, sl, ip, pc}^
     134:	00001331 	andeq	r1, r0, r1, lsr r3
     138:	3f002e19 	svccc	0x00002e19
     13c:	6e193c19 	mrcvs	12, 0, r3, cr9, cr9, {0}
     140:	3a0e030e 	bcc	380d80 <__bss_end__+0x376898>
     144:	390b3b0b 	stmdbcc	fp, {r0, r1, r3, r8, r9, fp, ip, sp}
     148:	0000000b 	andeq	r0, r0, fp
     14c:	25011101 	strcs	r1, [r1, #-257]	; 0xfffffeff
     150:	030b130e 	movweq	r1, #45838	; 0xb30e
     154:	110e1b0e 	tstne	lr, lr, lsl #22
     158:	10061201 	andne	r1, r6, r1, lsl #4
     15c:	02000017 	andeq	r0, r0, #23, 0
     160:	0b0b0024 	bleq	2c01f8 <__bss_end__+0x2b5d10>
     164:	08030b3e 	stmdaeq	r3, {r1, r2, r3, r4, r5, r8, r9, fp}
     168:	24030000 	strcs	r0, [r3], #-0
     16c:	3e0b0b00 	vmlacc.f64	d0, d11, d0
     170:	000e030b 	andeq	r0, lr, fp, lsl #6
     174:	00350400 	eorseq	r0, r5, r0, lsl #8
     178:	00001349 	andeq	r1, r0, r9, asr #6
     17c:	49002605 	stmdbmi	r0, {r0, r2, r9, sl, sp}
     180:	06000013 			; <UNDEFINED> instruction: 0x06000013
     184:	0e030016 	mcreq	0, 0, r0, cr3, cr6, {0}
     188:	0b3b0b3a 	bleq	ec2e78 <__bss_end__+0xeb8990>
     18c:	13490b39 	movtne	r0, #39737	; 0x9b39
     190:	15070000 	strne	r0, [r7, #-0]
     194:	49192701 	ldmdbmi	r9, {r0, r8, r9, sl, sp}
     198:	00130113 	andseq	r0, r3, r3, lsl r1
     19c:	00050800 	andeq	r0, r5, r0, lsl #16
     1a0:	00001349 	andeq	r1, r0, r9, asr #6
     1a4:	03003409 	movweq	r3, #1033	; 0x409
     1a8:	3b0b3a0e 	blcc	2ce9e8 <__bss_end__+0x2c4500>
     1ac:	490b390b 	stmdbmi	fp, {r0, r1, r3, r8, fp, ip, sp}
     1b0:	3c193f13 	ldccc	15, cr3, [r9], {19}
     1b4:	0a000019 	beq	220 <__code_start__-0x7de0>
     1b8:	0b0b000f 	bleq	2c01fc <__bss_end__+0x2b5d14>
     1bc:	00001349 	andeq	r1, r0, r9, asr #6
     1c0:	0301130b 	movweq	r1, #4875	; 0x130b
     1c4:	3a0b0b0e 	bcc	2c2e04 <__bss_end__+0x2b891c>
     1c8:	390b3b0b 	stmdbcc	fp, {r0, r1, r3, r8, r9, fp, ip, sp}
     1cc:	0013010b 	andseq	r0, r3, fp, lsl #2
     1d0:	000d0c00 	andeq	r0, sp, r0, lsl #24
     1d4:	0b3a0803 	bleq	e821e8 <__bss_end__+0xe77d00>
     1d8:	0b390b3b 	bleq	e42ecc <__bss_end__+0xe389e4>
     1dc:	0b381349 	bleq	e04f08 <__bss_end__+0xdfaa20>
     1e0:	0d0d0000 	stceq	0, cr0, [sp, #-0]
     1e4:	3a0e0300 	bcc	380dec <__bss_end__+0x376904>
     1e8:	390b3b0b 	stmdbcc	fp, {r0, r1, r3, r8, r9, fp, ip, sp}
     1ec:	3813490b 	ldmdacc	r3, {r0, r1, r3, r8, fp, lr}
     1f0:	0e00000b 	cdpeq	0, 0, cr0, cr0, cr11, {0}
     1f4:	0b3e0104 	bleq	f8060c <__bss_end__+0xf76124>
     1f8:	13490b0b 	movtne	r0, #39691	; 0x9b0b
     1fc:	0b3b0b3a 	bleq	ec2eec <__bss_end__+0xeb8a04>
     200:	13010b39 	movwne	r0, #6969	; 0x1b39
     204:	280f0000 	stmdacs	pc, {}	; <UNPREDICTABLE>
     208:	1c080300 	stcne	3, cr0, [r8], {-0}
     20c:	10000005 	andne	r0, r0, r5
     210:	08030028 	stmdaeq	r3, {r3, r5}
     214:	00000b1c 	andeq	r0, r0, ip, lsl fp
     218:	03002811 	movweq	r2, #2065	; 0x811
     21c:	00051c0e 	andeq	r1, r5, lr, lsl #24
     220:	00341200 	eorseq	r1, r4, r0, lsl #4
     224:	0b3a0e03 	bleq	e83a38 <__bss_end__+0xe79550>
     228:	0b390b3b 	bleq	e42f1c <__bss_end__+0xe38a34>
     22c:	00001349 	andeq	r1, r0, r9, asr #6
     230:	03003413 	movweq	r3, #1043	; 0x413
     234:	3b0b3a0e 	blcc	2cea74 <__bss_end__+0x2c458c>
     238:	490b390b 	stmdbmi	fp, {r0, r1, r3, r8, fp, ip, sp}
     23c:	00061c13 	andeq	r1, r6, r3, lsl ip
     240:	00341400 	eorseq	r1, r4, r0, lsl #8
     244:	0b3a0e03 	bleq	e83a58 <__bss_end__+0xe79570>
     248:	0b390b3b 	bleq	e42f3c <__bss_end__+0xe38a54>
     24c:	0b1c1349 	bleq	704f78 <__bss_end__+0x6faa90>
     250:	01150000 	tsteq	r5, r0
     254:	01134901 	tsteq	r3, r1, lsl #18
     258:	16000013 			; <UNDEFINED> instruction: 0x16000013
     25c:	13490021 	movtne	r0, #36897	; 0x9021
     260:	2e170000 	cdpcs	0, 1, cr0, cr7, cr0, {0}
     264:	03193f01 	tsteq	r9, #1, 30
     268:	3b0b3a0e 	blcc	2ceaa8 <__bss_end__+0x2c45c0>
     26c:	270b390b 	strcs	r3, [fp, -fp, lsl #18]
     270:	12011119 	andne	r1, r1, #1073741830	; 0x40000006
     274:	97184006 	ldrls	r4, [r8, -r6]
     278:	13011942 	movwne	r1, #6466	; 0x1942
     27c:	05180000 	ldreq	r0, [r8, #-0]
     280:	3a080300 	bcc	200e88 <__bss_end__+0x1f69a0>
     284:	390b3b0b 	stmdbcc	fp, {r0, r1, r3, r8, r9, fp, ip, sp}
     288:	0213490b 	andseq	r4, r3, #180224	; 0x2c000
     28c:	19000018 	stmdbne	r0, {r3, r4}
     290:	08030005 	stmdaeq	r3, {r0, r2}
     294:	0b3b0b3a 	bleq	ec2f84 <__bss_end__+0xeb8a9c>
     298:	13490b39 	movtne	r0, #39737	; 0x9b39
     29c:	42b71702 	adcsmi	r1, r7, #524288	; 0x80000
     2a0:	1a000017 	bne	304 <__code_start__-0x7cfc>
     2a4:	1331011d 	teqne	r1, #1073741831	; 0x40000007
     2a8:	42b80152 	adcsmi	r0, r8, #-2147483628	; 0x80000014
     2ac:	58175505 	ldmdapl	r7, {r0, r2, r8, sl, ip, lr}
     2b0:	570b590b 	strpl	r5, [fp, -fp, lsl #18]
     2b4:	1b00000b 	blne	2e8 <__code_start__-0x7d18>
     2b8:	13310005 	teqne	r1, #5, 0
     2bc:	42b71702 	adcsmi	r1, r7, #524288	; 0x80000
     2c0:	1c000017 	stcne	0, cr0, [r0], {23}
     2c4:	1331010b 	teqne	r1, #-1073741822	; 0xc0000002
     2c8:	13011755 	movwne	r1, #5973	; 0x1755
     2cc:	341d0000 	ldrcc	r0, [sp], #-0
     2d0:	02133100 	andseq	r3, r3, #0
     2d4:	1742b717 	smlaldne	fp, r2, r7, r7
     2d8:	051e0000 	ldreq	r0, [lr, #-0]
     2dc:	00133100 	andseq	r3, r3, r0, lsl #2
     2e0:	011d1f00 	tsteq	sp, r0, lsl #30
     2e4:	01521331 	cmpeq	r2, r1, lsr r3
     2e8:	550542b8 	strpl	r4, [r5, #-696]	; 0xfffffd48
     2ec:	590b5817 	stmdbpl	fp, {r0, r1, r2, r4, fp, ip, lr}
     2f0:	010b570b 	tsteq	fp, fp, lsl #14
     2f4:	20000013 	andcs	r0, r0, r3, lsl r0
     2f8:	1331010b 	teqne	r1, #-1073741822	; 0xc0000002
     2fc:	00001755 	andeq	r1, r0, r5, asr r7
     300:	55010b21 	strpl	r0, [r1, #-2849]	; 0xfffff4df
     304:	22000017 	andcs	r0, r0, #23, 0
     308:	1331010b 	teqne	r1, #-1073741822	; 0xc0000002
     30c:	06120111 			; <UNDEFINED> instruction: 0x06120111
     310:	00001301 	andeq	r1, r0, r1, lsl #6
     314:	31011d23 	tstcc	r1, r3, lsr #26
     318:	12011113 	andne	r1, r1, #-1073741820	; 0xc0000004
     31c:	590b5806 	stmdbpl	fp, {r1, r2, fp, ip, lr}
     320:	000b570b 	andeq	r5, fp, fp, lsl #14
     324:	010b2400 	tsteq	fp, r0, lsl #8
     328:	01111331 	tsteq	r1, r1, lsr r3
     32c:	00000612 	andeq	r0, r0, r2, lsl r6
     330:	31011d25 	tstcc	r1, r5, lsr #26
     334:	b8015213 	stmdalt	r1, {r0, r1, r4, r9, ip, lr}
     338:	01110542 	tsteq	r1, r2, asr #10
     33c:	0b580612 	bleq	1601b8c <__bss_end__+0x15f76a4>
     340:	0b570b59 	bleq	15c30ac <__bss_end__+0x15b8bc4>
     344:	1d260000 	stcne	0, cr0, [r6, #-0]
     348:	52133101 	andspl	r3, r3, #1073741824	; 0x40000000
     34c:	0542b801 	strbeq	fp, [r2, #-2049]	; 0xfffff7ff
     350:	06120111 			; <UNDEFINED> instruction: 0x06120111
     354:	0b590b58 	bleq	16430bc <__bss_end__+0x1638bd4>
     358:	13010b57 	movwne	r0, #6999	; 0x1b57
     35c:	1d270000 	stcne	0, cr0, [r7, #-0]
     360:	55133101 	ldrpl	r3, [r3, #-257]	; 0xfffffeff
     364:	590b5817 	stmdbpl	fp, {r0, r1, r2, r4, fp, ip, lr}
     368:	010b570b 	tsteq	fp, fp, lsl #14
     36c:	28000013 	stmdacs	r0, {r0, r1, r4}
     370:	13310034 	teqne	r1, #52, 0	; 0x34
     374:	1d290000 	stcne	0, cr0, [r9, #-0]
     378:	55133101 	ldrpl	r3, [r3, #-257]	; 0xfffffeff
     37c:	590b5817 	stmdbpl	fp, {r0, r1, r2, r4, fp, ip, lr}
     380:	000b570b 	andeq	r5, fp, fp, lsl #14
     384:	82892a00 	addhi	r2, r9, #0, 20
     388:	01110001 	tsteq	r1, r1
     38c:	31194295 			; <UNDEFINED> instruction: 0x31194295
     390:	2b000013 	blcs	3e4 <__code_start__-0x7c1c>
     394:	193f012e 	ldmdbne	pc!, {r1, r2, r3, r5, r8}	; <UNPREDICTABLE>
     398:	0b3a0e03 	bleq	e83bac <__bss_end__+0xe796c4>
     39c:	0b390b3b 	bleq	e43090 <__bss_end__+0xe38ba8>
     3a0:	0b201927 	bleq	806844 <__bss_end__+0x7fc35c>
     3a4:	00001301 	andeq	r1, r0, r1, lsl #6
     3a8:	0300052c 	movweq	r0, #1324	; 0x52c
     3ac:	3b0b3a08 	blcc	2cebd4 <__bss_end__+0x2c46ec>
     3b0:	490b390b 	stmdbmi	fp, {r0, r1, r3, r8, fp, ip, sp}
     3b4:	2d000013 	stccs	0, cr0, [r0, #-76]	; 0xffffffb4
     3b8:	0000010b 	andeq	r0, r0, fp, lsl #2
     3bc:	0300342e 	movweq	r3, #1070	; 0x42e
     3c0:	3b0b3a08 	blcc	2cebe8 <__bss_end__+0x2c4700>
     3c4:	490b390b 	stmdbmi	fp, {r0, r1, r3, r8, fp, ip, sp}
     3c8:	2f000013 	svccs	0x00000013
     3cc:	193f012e 	ldmdbne	pc!, {r1, r2, r3, r5, r8}	; <UNPREDICTABLE>
     3d0:	0b3a0e03 	bleq	e83be4 <__bss_end__+0xe796fc>
     3d4:	0b390b3b 	bleq	e430c8 <__bss_end__+0xe38be0>
     3d8:	13491927 	movtne	r1, #39207	; 0x9927
     3dc:	06120111 			; <UNDEFINED> instruction: 0x06120111
     3e0:	42971840 	addsmi	r1, r7, #64, 16	; 0x400000
     3e4:	00130119 	andseq	r0, r3, r9, lsl r1
     3e8:	00053000 	andeq	r3, r5, r0
     3ec:	0b3a0e03 	bleq	e83c00 <__bss_end__+0xe79718>
     3f0:	0b390b3b 	bleq	e430e4 <__bss_end__+0xe38bfc>
     3f4:	17021349 	strne	r1, [r2, -r9, asr #6]
     3f8:	001742b7 			; <UNDEFINED> instruction: 0x001742b7
     3fc:	00343100 	eorseq	r3, r4, r0, lsl #2
     400:	0b3a0803 	bleq	e82414 <__bss_end__+0xe77f2c>
     404:	0b390b3b 	bleq	e430f8 <__bss_end__+0xe38c10>
     408:	17021349 	strne	r1, [r2, -r9, asr #6]
     40c:	001742b7 			; <UNDEFINED> instruction: 0x001742b7
     410:	00343200 	eorseq	r3, r4, r0, lsl #4
     414:	0b3a0e03 	bleq	e83c28 <__bss_end__+0xe79740>
     418:	0b390b3b 	bleq	e4310c <__bss_end__+0xe38c24>
     41c:	17021349 	strne	r1, [r2, -r9, asr #6]
     420:	001742b7 			; <UNDEFINED> instruction: 0x001742b7
     424:	82893300 	addhi	r3, r9, #0, 6
     428:	01110101 	tsteq	r1, r1, lsl #2
     42c:	13011331 	movwne	r1, #4913	; 0x1331
     430:	8a340000 	bhi	d00438 <__bss_end__+0xcf5f50>
     434:	02000182 	andeq	r0, r0, #-2147483616	; 0x80000020
     438:	18429118 	stmdane	r2, {r3, r4, r8, ip, pc}^
     43c:	89350000 	ldmdbhi	r5!, {}	; <UNPREDICTABLE>
     440:	11010182 	smlabbne	r1, r2, r1, r0
     444:	00133101 	andseq	r3, r3, r1, lsl #2
     448:	010b3600 	tsteq	fp, r0, lsl #12
     44c:	13011755 	movwne	r1, #5973	; 0x1755
     450:	2e370000 	cdpcs	0, 3, cr0, cr7, cr0, {0}
     454:	3a0e0301 	bcc	381060 <__bss_end__+0x376b78>
     458:	390b3b0b 	stmdbcc	fp, {r0, r1, r3, r8, r9, fp, ip, sp}
     45c:	2019270b 	andscs	r2, r9, fp, lsl #14
     460:	0013010b 	andseq	r0, r3, fp, lsl #2
     464:	012e3800 			; <UNDEFINED> instruction: 0x012e3800
     468:	0b3a0803 	bleq	e8247c <__bss_end__+0xe77f94>
     46c:	0b390b3b 	bleq	e43160 <__bss_end__+0xe38c78>
     470:	0b201927 	bleq	806914 <__bss_end__+0x7fc42c>
     474:	00001301 	andeq	r1, r0, r1, lsl #6
     478:	03000539 	movweq	r0, #1337	; 0x539
     47c:	3b0b3a0e 	blcc	2cecbc <__bss_end__+0x2c47d4>
     480:	490b390b 	stmdbmi	fp, {r0, r1, r3, r8, fp, ip, sp}
     484:	3a000013 	bcc	4d8 <__code_start__-0x7b28>
     488:	1331012e 	teqne	r1, #-2147483637	; 0x8000000b
     48c:	06120111 			; <UNDEFINED> instruction: 0x06120111
     490:	42971840 	addsmi	r1, r7, #64, 16	; 0x400000
     494:	00130119 	andseq	r0, r3, r9, lsl r1
     498:	002e3b00 	eoreq	r3, lr, r0, lsl #22
     49c:	193c193f 	ldmdbne	ip!, {r0, r1, r2, r3, r4, r5, r8, fp, ip}
     4a0:	0e030e6e 	cdpeq	14, 0, cr0, cr3, cr14, {3}
     4a4:	0b3b0b3a 	bleq	ec3194 <__bss_end__+0xeb8cac>
     4a8:	00000b39 	andeq	r0, r0, r9, lsr fp
     4ac:	00490100 	subeq	r0, r9, r0, lsl #2
     4b0:	187e1802 	ldmdane	lr!, {r1, fp, ip}^
     4b4:	05020000 	streq	r0, [r2, #-0]
     4b8:	02133100 	andseq	r3, r3, #0
     4bc:	1742b717 	smlaldne	fp, r2, r7, r7
     4c0:	24030000 	strcs	r0, [r3], #-0
     4c4:	3e0b0b00 	vmlacc.f64	d0, d11, d0
     4c8:	000e030b 	andeq	r0, lr, fp, lsl #6
     4cc:	00340400 	eorseq	r0, r4, r0, lsl #8
     4d0:	00001331 	andeq	r1, r0, r1, lsr r3
     4d4:	31003405 	tstcc	r0, r5, lsl #8
     4d8:	b7170213 			; <UNDEFINED> instruction: 0xb7170213
     4dc:	00001742 	andeq	r1, r0, r2, asr #14
     4e0:	03002806 	movweq	r2, #2054	; 0x806
     4e4:	000b1c0e 	andeq	r1, fp, lr, lsl #24
     4e8:	01480700 	cmpeq	r8, r0, lsl #14
     4ec:	0182017d 	orreq	r0, r2, sp, ror r1
     4f0:	00137f19 	andseq	r7, r3, r9, lsl pc
     4f4:	00050800 	andeq	r0, r5, r0, lsl #16
     4f8:	213a0803 	teqcs	sl, r3, lsl #16
     4fc:	390b3b01 	stmdbcc	fp, {r0, r8, r9, fp, ip, sp}
     500:	0213490b 	andseq	r4, r3, #180224	; 0x2c000
     504:	1742b717 	smlaldne	fp, r2, r7, r7
     508:	1d090000 	stcne	0, cr0, [r9, #-0]
     50c:	52133101 	andspl	r3, r3, #1073741824	; 0x40000000
     510:	0b42b801 	bleq	10ae51c <__bss_end__+0x10a4034>
     514:	21581755 	cmpcs	r8, r5, asr r7
     518:	570b5901 	strpl	r5, [fp, -r1, lsl #18]
     51c:	0a00000b 	beq	550 <__code_start__-0x7ab0>
     520:	1755010b 	ldrbne	r0, [r5, -fp, lsl #2]
     524:	050b0000 	streq	r0, [fp, #-0]
     528:	1c133100 	ldfnes	f3, [r3], {-0}
     52c:	0c00000b 	stceq	0, cr0, [r0], {11}
     530:	08030005 	stmdaeq	r3, {r0, r2}
     534:	0b3b0b3a 	bleq	ec3224 <__bss_end__+0xeb8d3c>
     538:	13490b39 	movtne	r0, #39737	; 0x9b39
     53c:	340d0000 	strcc	r0, [sp], #-0
     540:	3a0e0300 	bcc	381148 <__bss_end__+0x376c60>
     544:	0b3b0121 	bleq	ec09d0 <__bss_end__+0xeb64e8>
     548:	49172139 	ldmdbmi	r7, {r0, r3, r4, r5, r8, sp}
     54c:	00061c13 	andeq	r1, r6, r3, lsl ip
     550:	00050e00 	andeq	r0, r5, r0, lsl #28
     554:	00001349 	andeq	r1, r0, r9, asr #6
     558:	3f012e0f 	svccc	0x00012e0f
     55c:	3a0e0319 	bcc	3811c8 <__bss_end__+0x376ce0>
     560:	0b3b0121 	bleq	ec09ec <__bss_end__+0xeb6504>
     564:	27062139 	smladxcs	r6, r9, r1, r2
     568:	12011119 	andne	r1, r1, #1073741830	; 0x40000006
     56c:	7a184006 	bvc	61058c <__bss_end__+0x6060a4>
     570:	00130119 	andseq	r0, r3, r9, lsl r1
     574:	01481000 	mrseq	r1, (UNDEF: 72)
     578:	137f017d 	cmnne	pc, #1073741855	; 0x4000001f
     57c:	00001301 	andeq	r1, r0, r1, lsl #6
     580:	3f012e11 	svccc	0x00012e11
     584:	3a0e0319 	bcc	3811f0 <__bss_end__+0x376d08>
     588:	0b3b0121 	bleq	ec0a14 <__bss_end__+0xeb652c>
     58c:	19270b39 	stmdbne	r7!, {r0, r3, r4, r5, r8, r9, fp}
     590:	13010b20 	movwne	r0, #6944	; 0x1b20
     594:	34120000 	ldrcc	r0, [r2], #-0
     598:	3a080300 	bcc	2011a0 <__bss_end__+0x1f6cb8>
     59c:	0b3b0121 	bleq	ec0a28 <__bss_end__+0xeb6540>
     5a0:	490e2139 	stmdbmi	lr, {r0, r3, r4, r5, r8, sp}
     5a4:	13000013 	movwne	r0, #19
     5a8:	0e030016 	mcreq	0, 0, r0, cr3, cr6, {0}
     5ac:	0b3b0b3a 	bleq	ec329c <__bss_end__+0xeb8db4>
     5b0:	13490b39 	movtne	r0, #39737	; 0x9b39
     5b4:	2e140000 	cdpcs	0, 1, cr0, cr4, cr0, {0}
     5b8:	11133101 	tstne	r3, r1, lsl #2
     5bc:	40061201 	andmi	r1, r6, r1, lsl #4
     5c0:	01197a18 	tsteq	r9, r8, lsl sl
     5c4:	15000013 	strne	r0, [r0, #-19]	; 0xffffffed
     5c8:	0e250111 	mcreq	1, 1, r0, cr5, cr1, {0}
     5cc:	0e030b13 	vmoveq.32	d3[0], r0
     5d0:	01110e1b 	tsteq	r1, fp, lsl lr
     5d4:	17100612 			; <UNDEFINED> instruction: 0x17100612
     5d8:	24160000 	ldrcs	r0, [r6], #-0
     5dc:	3e0b0b00 	vmlacc.f64	d0, d11, d0
     5e0:	0008030b 	andeq	r0, r8, fp, lsl #6
     5e4:	00261700 	eoreq	r1, r6, r0, lsl #14
     5e8:	00001349 	andeq	r1, r0, r9, asr #6
     5ec:	3e010418 	cfmvdlrcc	mvd1, r0
     5f0:	490b0b0b 	stmdbmi	fp, {r0, r1, r3, r8, r9, fp}
     5f4:	3b0b3a13 	blcc	2cee48 <__bss_end__+0x2c4960>
     5f8:	010b390b 	tsteq	fp, fp, lsl #18
     5fc:	19000013 	stmdbne	r0, {r0, r1, r4}
     600:	193f012e 	ldmdbne	pc!, {r1, r2, r3, r5, r8}	; <UNPREDICTABLE>
     604:	0b3a0e03 	bleq	e83e18 <__bss_end__+0xe79930>
     608:	0b390b3b 	bleq	e432fc <__bss_end__+0xe38e14>
     60c:	193c1927 	ldmdbne	ip!, {r0, r1, r2, r5, r8, fp, ip}
     610:	00001301 	andeq	r1, r0, r1, lsl #6
     614:	3f012e1a 	svccc	0x00012e1a
     618:	3a0e0319 	bcc	381284 <__bss_end__+0x376d9c>
     61c:	390b3b0b 	stmdbcc	fp, {r0, r1, r3, r8, r9, fp, ip, sp}
     620:	4919270b 	ldmdbmi	r9, {r0, r1, r3, r8, r9, sl, sp}
     624:	01193c13 	tsteq	r9, r3, lsl ip
     628:	1b000013 	blne	67c <__code_start__-0x7984>
     62c:	193f012e 	ldmdbne	pc!, {r1, r2, r3, r5, r8}	; <UNPREDICTABLE>
     630:	0b3a0e03 	bleq	e83e44 <__bss_end__+0xe7995c>
     634:	0b390b3b 	bleq	e43328 <__bss_end__+0xe38e40>
     638:	13491927 	movtne	r1, #39207	; 0x9927
     63c:	06120111 			; <UNDEFINED> instruction: 0x06120111
     640:	197a1840 	ldmdbne	sl!, {r6, fp, ip}^
     644:	00001301 	andeq	r1, r0, r1, lsl #6
     648:	0300341c 	movweq	r3, #1052	; 0x41c
     64c:	3b0b3a0e 	blcc	2cee8c <__bss_end__+0x2c49a4>
     650:	490b390b 	stmdbmi	fp, {r0, r1, r3, r8, fp, ip, sp}
     654:	b7170213 			; <UNDEFINED> instruction: 0xb7170213
     658:	00001742 	andeq	r1, r0, r2, asr #14
     65c:	0300341d 	movweq	r3, #1053	; 0x41d
     660:	3b0b3a08 	blcc	2cee88 <__bss_end__+0x2c49a0>
     664:	490b390b 	stmdbmi	fp, {r0, r1, r3, r8, fp, ip, sp}
     668:	b7170213 			; <UNDEFINED> instruction: 0xb7170213
     66c:	00001742 	andeq	r1, r0, r2, asr #14
     670:	7d01481e 	stcvc	8, cr4, [r1, #-120]	; 0xffffff88
     674:	00137f01 	andseq	r7, r3, r1, lsl #30
     678:	011d1f00 	tsteq	sp, r0, lsl #30
     67c:	01521331 	cmpeq	r2, r1, lsr r3
     680:	550b42b8 	strpl	r4, [fp, #-696]	; 0xfffffd48
     684:	590b5817 	stmdbpl	fp, {r0, r1, r2, r4, fp, ip, lr}
     688:	010b570b 	tsteq	fp, fp, lsl #14
     68c:	20000013 	andcs	r0, r0, r3, lsl r0
     690:	1331011d 	teqne	r1, #1073741831	; 0x40000007
     694:	42b80152 	adcsmi	r0, r8, #-2147483628	; 0x80000014
     698:	1201110b 	andne	r1, r1, #-1073741822	; 0xc0000002
     69c:	590b5806 	stmdbpl	fp, {r1, r2, fp, ip, lr}
     6a0:	000b570b 	andeq	r5, fp, fp, lsl #14
     6a4:	00052100 	andeq	r2, r5, r0, lsl #2
     6a8:	0b3a0e03 	bleq	e83ebc <__bss_end__+0xe799d4>
     6ac:	0b390b3b 	bleq	e433a0 <__bss_end__+0xe38eb8>
     6b0:	00001349 	andeq	r1, r0, r9, asr #6
     6b4:	03012e22 	movweq	r2, #7714	; 0x1e22
     6b8:	3b0b3a0e 	blcc	2ceef8 <__bss_end__+0x2c4a10>
     6bc:	270b390b 	strcs	r3, [fp, -fp, lsl #18]
     6c0:	20134919 	andscs	r4, r3, r9, lsl r9
     6c4:	0013010b 	andseq	r0, r3, fp, lsl #2
     6c8:	012e2300 			; <UNDEFINED> instruction: 0x012e2300
     6cc:	01111331 	tsteq	r1, r1, lsr r3
     6d0:	18400612 	stmdane	r0, {r1, r4, r9, sl}^
     6d4:	0000197a 	andeq	r1, r0, sl, ror r9
     6d8:	01110100 	tsteq	r1, r0, lsl #2
     6dc:	0b130e25 	bleq	4c3f78 <__bss_end__+0x4b9a90>
     6e0:	0e1b0e03 	cdpeq	14, 1, cr0, cr11, cr3, {0}
     6e4:	06120111 			; <UNDEFINED> instruction: 0x06120111
     6e8:	00001710 	andeq	r1, r0, r0, lsl r7
     6ec:	0b002402 	bleq	96fc <uart_init+0x30>
     6f0:	030b3e0b 	movweq	r3, #48651	; 0xbe0b
     6f4:	03000008 	movweq	r0, #8
     6f8:	0e030016 	mcreq	0, 0, r0, cr3, cr6, {0}
     6fc:	0b3b0b3a 	bleq	ec33ec <__bss_end__+0xeb8f04>
     700:	13490b39 	movtne	r0, #39737	; 0x9b39
     704:	24040000 	strcs	r0, [r4], #-0
     708:	3e0b0b00 	vmlacc.f64	d0, d11, d0
     70c:	000e030b 	andeq	r0, lr, fp, lsl #6
     710:	01150500 	tsteq	r5, r0, lsl #10
     714:	13491927 	movtne	r1, #39207	; 0x9927
     718:	00001301 	andeq	r1, r0, r1, lsl #6
     71c:	49000506 	stmdbmi	r0, {r1, r2, r8, sl}
     720:	07000013 	smladeq	r0, r3, r0, r0
     724:	0e030034 	mcreq	0, 0, r0, cr3, cr4, {1}
     728:	0b3b0b3a 	bleq	ec3418 <__bss_end__+0xeb8f30>
     72c:	13490b39 	movtne	r0, #39737	; 0x9b39
     730:	193c193f 	ldmdbne	ip!, {r0, r1, r2, r3, r4, r5, r8, fp, ip}
     734:	0f080000 	svceq	0x00080000
     738:	490b0b00 	stmdbmi	fp, {r8, r9, fp}
     73c:	09000013 	stmdbeq	r0, {r0, r1, r4}
     740:	13490026 	movtne	r0, #36902	; 0x9026
     744:	2e0a0000 	cdpcs	0, 0, cr0, cr10, cr0, {0}
     748:	03193f01 	tsteq	r9, #1, 30
     74c:	3b0b3a0e 	blcc	2cef8c <__bss_end__+0x2c4aa4>
     750:	270b390b 	strcs	r3, [fp, -fp, lsl #18]
     754:	11134919 	tstne	r3, r9, lsl r9
     758:	40061201 	andmi	r1, r6, r1, lsl #4
     75c:	19429718 	stmdbne	r2, {r3, r4, r8, r9, sl, ip, pc}^
     760:	00001301 	andeq	r1, r0, r1, lsl #6
     764:	0300050b 	movweq	r0, #1291	; 0x50b
     768:	3b0b3a08 	blcc	2cef90 <__bss_end__+0x2c4aa8>
     76c:	490b390b 	stmdbmi	fp, {r0, r1, r3, r8, fp, ip, sp}
     770:	00180213 	andseq	r0, r8, r3, lsl r2
     774:	00050c00 	andeq	r0, r5, r0, lsl #24
     778:	0b3a0803 	bleq	e8278c <__bss_end__+0xe782a4>
     77c:	0b390b3b 	bleq	e43470 <__bss_end__+0xe38f88>
     780:	17021349 	strne	r1, [r2, -r9, asr #6]
     784:	001742b7 			; <UNDEFINED> instruction: 0x001742b7
     788:	00340d00 	eorseq	r0, r4, r0, lsl #26
     78c:	0b3a0803 	bleq	e827a0 <__bss_end__+0xe782b8>
     790:	0b390b3b 	bleq	e43484 <__bss_end__+0xe38f9c>
     794:	17021349 	strne	r1, [r2, -r9, asr #6]
     798:	001742b7 			; <UNDEFINED> instruction: 0x001742b7
     79c:	000f0e00 	andeq	r0, pc, r0, lsl #28
     7a0:	00000b0b 	andeq	r0, r0, fp, lsl #22
     7a4:	01110100 	tsteq	r1, r0, lsl #2
     7a8:	0b130e25 	bleq	4c4044 <__bss_end__+0x4b9b5c>
     7ac:	0e1b0e03 	cdpeq	14, 1, cr0, cr11, cr3, {0}
     7b0:	06120111 			; <UNDEFINED> instruction: 0x06120111
     7b4:	00001710 	andeq	r1, r0, r0, lsl r7
     7b8:	03001602 	movweq	r1, #1538	; 0x602
     7bc:	3b0b3a0e 	blcc	2ceffc <__bss_end__+0x2c4b14>
     7c0:	490b390b 	stmdbmi	fp, {r0, r1, r3, r8, fp, ip, sp}
     7c4:	03000013 	movweq	r0, #19
     7c8:	0e030113 	mcreq	1, 0, r0, cr3, cr3, {0}
     7cc:	0b3a0b0b 	bleq	e83400 <__bss_end__+0xe78f18>
     7d0:	13010b3b 	movwne	r0, #6971	; 0x1b3b
     7d4:	0d040000 	stceq	0, cr0, [r4, #-0]
     7d8:	490e0300 	stmdbmi	lr, {r8, r9}
     7dc:	340b3813 	strcc	r3, [fp], #-2067	; 0xfffff7ed
     7e0:	05000019 	streq	r0, [r0, #-25]	; 0xffffffe7
     7e4:	0b0b000f 	bleq	2c0828 <__bss_end__+0x2b6340>
     7e8:	24060000 	strcs	r0, [r6], #-0
     7ec:	3e0b0b00 	vmlacc.f64	d0, d11, d0
     7f0:	0008030b 	andeq	r0, r8, fp, lsl #6
     7f4:	00240700 	eoreq	r0, r4, r0, lsl #14
     7f8:	0b3e0b0b 	bleq	f8342c <__bss_end__+0xf78f44>
     7fc:	00000e03 	andeq	r0, r0, r3, lsl #28
     800:	27011508 	strcs	r1, [r1, -r8, lsl #10]
     804:	01134919 	tsteq	r3, r9, lsl r9
     808:	09000013 	stmdbeq	r0, {r0, r1, r4}
     80c:	13490005 	movtne	r0, #36869	; 0x9005
     810:	340a0000 	strcc	r0, [sl], #-0
     814:	3a0e0300 	bcc	38141c <__bss_end__+0x376f34>
     818:	390b3b0b 	stmdbcc	fp, {r0, r1, r3, r8, r9, fp, ip, sp}
     81c:	3f13490b 	svccc	0x0013490b
     820:	00193c19 	andseq	r3, r9, r9, lsl ip
     824:	000f0b00 	andeq	r0, pc, r0, lsl #22
     828:	13490b0b 	movtne	r0, #39691	; 0x9b0b
     82c:	260c0000 	strcs	r0, [ip], -r0
     830:	00134900 	andseq	r4, r3, r0, lsl #18
     834:	012e0d00 			; <UNDEFINED> instruction: 0x012e0d00
     838:	0e03193f 			; <UNDEFINED> instruction: 0x0e03193f
     83c:	0b3b0b3a 	bleq	ec352c <__bss_end__+0xeb9044>
     840:	19270b39 	stmdbne	r7!, {r0, r3, r4, r5, r8, r9, fp}
     844:	01111349 	tsteq	r1, r9, asr #6
     848:	18400612 	stmdane	r0, {r1, r4, r9, sl}^
     84c:	01194297 			; <UNDEFINED> instruction: 0x01194297
     850:	0e000013 	mcreq	0, 0, r0, cr0, cr3, {0}
     854:	08030005 	stmdaeq	r3, {r0, r2}
     858:	0b3b0b3a 	bleq	ec3548 <__bss_end__+0xeb9060>
     85c:	13490b39 	movtne	r0, #39737	; 0x9b39
     860:	00001802 	andeq	r1, r0, r2, lsl #16
     864:	0000180f 	andeq	r1, r0, pc, lsl #16
     868:	00341000 	eorseq	r1, r4, r0
     86c:	0b3a0803 	bleq	e82880 <__bss_end__+0xe78398>
     870:	0b390b3b 	bleq	e43564 <__bss_end__+0xe3907c>
     874:	18021349 	stmdane	r2, {r0, r3, r6, r8, r9, ip}
     878:	34110000 	ldrcc	r0, [r1], #-0
     87c:	3a0e0300 	bcc	381484 <__bss_end__+0x376f9c>
     880:	390b3b0b 	stmdbcc	fp, {r0, r1, r3, r8, r9, fp, ip, sp}
     884:	0213490b 	andseq	r4, r3, #180224	; 0x2c000
     888:	12000018 	andne	r0, r0, #24, 0
     88c:	08030034 	stmdaeq	r3, {r2, r4, r5}
     890:	0b3b0b3a 	bleq	ec3580 <__bss_end__+0xeb9098>
     894:	13490b39 	movtne	r0, #39737	; 0x9b39
     898:	42b71702 	adcsmi	r1, r7, #524288	; 0x80000
     89c:	13000017 	movwne	r0, #23
     8a0:	01018289 	smlabbeq	r1, r9, r2, r8
     8a4:	13310111 	teqne	r1, #1073741828	; 0x40000004
     8a8:	00001301 	andeq	r1, r0, r1, lsl #6
     8ac:	01828a14 	orreq	r8, r2, r4, lsl sl
     8b0:	91180200 	tstls	r8, r0, lsl #4
     8b4:	00001842 	andeq	r1, r0, r2, asr #16
     8b8:	01828915 	orreq	r8, r2, r5, lsl r9
     8bc:	00011101 	andeq	r1, r1, r1, lsl #2
     8c0:	01011600 	tsteq	r1, r0, lsl #12
     8c4:	13011349 	movwne	r1, #4937	; 0x1349
     8c8:	21170000 	tstcs	r7, r0
     8cc:	2f134900 	svccs	0x00134900
     8d0:	18000005 	stmdane	r0, {r0, r2}
     8d4:	193f002e 	ldmdbne	pc!, {r1, r2, r3, r5}	; <UNPREDICTABLE>
     8d8:	0e6e193c 			; <UNDEFINED> instruction: 0x0e6e193c
     8dc:	0b3a0e03 	bleq	e840f0 <__bss_end__+0xe79c08>
     8e0:	0b390b3b 	bleq	e435d4 <__bss_end__+0xe390ec>
     8e4:	01000000 	mrseq	r0, (UNDEF: 0)
     8e8:	0e250111 	mcreq	1, 1, r0, cr5, cr1, {0}
     8ec:	0e030b13 	vmoveq.32	d3[0], r0
     8f0:	01110e1b 	tsteq	r1, fp, lsl lr
     8f4:	17100612 			; <UNDEFINED> instruction: 0x17100612
     8f8:	24020000 	strcs	r0, [r2], #-0
     8fc:	3e0b0b00 	vmlacc.f64	d0, d11, d0
     900:	0008030b 	andeq	r0, r8, fp, lsl #6
     904:	00240300 	eoreq	r0, r4, r0, lsl #6
     908:	0b3e0b0b 	bleq	f8353c <__bss_end__+0xf79054>
     90c:	00000e03 	andeq	r0, r0, r3, lsl #28
     910:	27011504 	strcs	r1, [r1, -r4, lsl #10]
     914:	01134919 	tsteq	r3, r9, lsl r9
     918:	05000013 	streq	r0, [r0, #-19]	; 0xffffffed
     91c:	13490005 	movtne	r0, #36869	; 0x9005
     920:	34060000 	strcc	r0, [r6], #-0
     924:	3a0e0300 	bcc	38152c <__bss_end__+0x377044>
     928:	390b3b0b 	stmdbcc	fp, {r0, r1, r3, r8, r9, fp, ip, sp}
     92c:	3f13490b 	svccc	0x0013490b
     930:	00193c19 	andseq	r3, r9, r9, lsl ip
     934:	000f0700 	andeq	r0, pc, r0, lsl #14
     938:	13490b0b 	movtne	r0, #39691	; 0x9b0b
     93c:	26080000 	strcs	r0, [r8], -r0
     940:	00134900 	andseq	r4, r3, r0, lsl #18
     944:	00340900 	eorseq	r0, r4, r0, lsl #18
     948:	0b3a1347 	bleq	e8566c <__bss_end__+0xe7b184>
     94c:	0b390b3b 	bleq	e43640 <__bss_end__+0xe39158>
     950:	00001802 	andeq	r1, r0, r2, lsl #16
     954:	3f012e0a 	svccc	0x00012e0a
     958:	3a0e0319 	bcc	3815c4 <__bss_end__+0x3770dc>
     95c:	390b3b0b 	stmdbcc	fp, {r0, r1, r3, r8, r9, fp, ip, sp}
     960:	4919270b 	ldmdbmi	r9, {r0, r1, r3, r8, r9, sl, sp}
     964:	12011113 	andne	r1, r1, #-1073741820	; 0xc0000004
     968:	96184006 	ldrls	r4, [r8], -r6
     96c:	00001942 	andeq	r1, r0, r2, asr #18
     970:	0300050b 	movweq	r0, #1291	; 0x50b
     974:	3b0b3a08 	blcc	2cf19c <__bss_end__+0x2c4cb4>
     978:	490b390b 	stmdbmi	fp, {r0, r1, r3, r8, fp, ip, sp}
     97c:	b7170213 			; <UNDEFINED> instruction: 0xb7170213
     980:	00001742 	andeq	r1, r0, r2, asr #14
     984:	01110100 	tsteq	r1, r0, lsl #2
     988:	0b130e25 	bleq	4c4224 <__bss_end__+0x4b9d3c>
     98c:	0e1b0e03 	cdpeq	14, 1, cr0, cr11, cr3, {0}
     990:	06120111 			; <UNDEFINED> instruction: 0x06120111
     994:	00001710 	andeq	r1, r0, r0, lsl r7
     998:	0b002402 	bleq	99a8 <kmalloc_notzero+0x8>
     99c:	030b3e0b 	movweq	r3, #48651	; 0xbe0b
     9a0:	0300000e 	movweq	r0, #14
     9a4:	0b0b0024 	bleq	2c0a3c <__bss_end__+0x2b6554>
     9a8:	08030b3e 	stmdaeq	r3, {r1, r2, r3, r4, r5, r8, r9, fp}
     9ac:	16040000 	strne	r0, [r4], -r0
     9b0:	3a0e0300 	bcc	3815b8 <__bss_end__+0x3770d0>
     9b4:	390b3b0b 	stmdbcc	fp, {r0, r1, r3, r8, r9, fp, ip, sp}
     9b8:	0013490b 	andseq	r4, r3, fp, lsl #18
     9bc:	01150500 	tsteq	r5, r0, lsl #10
     9c0:	13491927 	movtne	r1, #39207	; 0x9927
     9c4:	00001301 	andeq	r1, r0, r1, lsl #6
     9c8:	49000506 	stmdbmi	r0, {r1, r2, r8, sl}
     9cc:	07000013 	smladeq	r0, r3, r0, r0
     9d0:	0e030034 	mcreq	0, 0, r0, cr3, cr4, {1}
     9d4:	0b3b0b3a 	bleq	ec36c4 <__bss_end__+0xeb91dc>
     9d8:	13490b39 	movtne	r0, #39737	; 0x9b39
     9dc:	193c193f 	ldmdbne	ip!, {r0, r1, r2, r3, r4, r5, r8, fp, ip}
     9e0:	0f080000 	svceq	0x00080000
     9e4:	490b0b00 	stmdbmi	fp, {r8, r9, fp}
     9e8:	09000013 	stmdbeq	r0, {r0, r1, r4}
     9ec:	13490026 	movtne	r0, #36902	; 0x9026
     9f0:	130a0000 	movwne	r0, #40960	; 0xa000
     9f4:	0b0e0301 	bleq	381600 <__bss_end__+0x377118>
     9f8:	3b0b3a0b 	blcc	2cf22c <__bss_end__+0x2c4d44>
     9fc:	0013010b 	andseq	r0, r3, fp, lsl #2
     a00:	000d0b00 	andeq	r0, sp, r0, lsl #22
     a04:	13490e03 	movtne	r0, #40451	; 0x9e03
     a08:	19340b38 	ldmdbne	r4!, {r3, r4, r5, r8, r9, fp}
     a0c:	0f0c0000 	svceq	0x000c0000
     a10:	000b0b00 	andeq	r0, fp, r0, lsl #22
     a14:	012e0d00 			; <UNDEFINED> instruction: 0x012e0d00
     a18:	0e03193f 			; <UNDEFINED> instruction: 0x0e03193f
     a1c:	0b3b0b3a 	bleq	ec370c <__bss_end__+0xeb9224>
     a20:	19270b39 	stmdbne	r7!, {r0, r3, r4, r5, r8, r9, fp}
     a24:	01111349 	tsteq	r1, r9, asr #6
     a28:	18400612 	stmdane	r0, {r1, r4, r9, sl}^
     a2c:	01194297 			; <UNDEFINED> instruction: 0x01194297
     a30:	0e000013 	mcreq	0, 0, r0, cr0, cr3, {0}
     a34:	08030005 	stmdaeq	r3, {r0, r2}
     a38:	0b3b0b3a 	bleq	ec3728 <__bss_end__+0xeb9240>
     a3c:	13490b39 	movtne	r0, #39737	; 0x9b39
     a40:	42b71702 	adcsmi	r1, r7, #524288	; 0x80000
     a44:	0f000017 	svceq	0x00000017
     a48:	0e030005 	cdpeq	0, 0, cr0, cr3, cr5, {0}
     a4c:	0b3b0b3a 	bleq	ec373c <__bss_end__+0xeb9254>
     a50:	13490b39 	movtne	r0, #39737	; 0x9b39
     a54:	42b71702 	adcsmi	r1, r7, #524288	; 0x80000
     a58:	10000017 	andne	r0, r0, r7, lsl r0
     a5c:	08030034 	stmdaeq	r3, {r2, r4, r5}
     a60:	0b3b0b3a 	bleq	ec3750 <__bss_end__+0xeb9268>
     a64:	13490b39 	movtne	r0, #39737	; 0x9b39
     a68:	42b71702 	adcsmi	r1, r7, #524288	; 0x80000
     a6c:	11000017 	tstne	r0, r7, lsl r0
     a70:	0e030034 	mcreq	0, 0, r0, cr3, cr4, {1}
     a74:	0b3b0b3a 	bleq	ec3764 <__bss_end__+0xeb927c>
     a78:	13490b39 	movtne	r0, #39737	; 0x9b39
     a7c:	42b71702 	adcsmi	r1, r7, #524288	; 0x80000
     a80:	12000017 	andne	r0, r0, #23, 0
     a84:	0e030034 	mcreq	0, 0, r0, cr3, cr4, {1}
     a88:	19341349 	ldmdbne	r4!, {r0, r3, r6, r8, r9, ip}
     a8c:	00001802 	andeq	r1, r0, r2, lsl #16
     a90:	55010b13 	strpl	r0, [r1, #-2835]	; 0xfffff4ed
     a94:	14000017 	strne	r0, [r0], #-23	; 0xffffffe9
     a98:	08030034 	stmdaeq	r3, {r2, r4, r5}
     a9c:	0b3b0b3a 	bleq	ec378c <__bss_end__+0xeb92a4>
     aa0:	13490b39 	movtne	r0, #39737	; 0x9b39
     aa4:	00001802 	andeq	r1, r0, r2, lsl #16
     aa8:	03003415 	movweq	r3, #1045	; 0x415
     aac:	3b0b3a0e 	blcc	2cf2ec <__bss_end__+0x2c4e04>
     ab0:	490b390b 	stmdbmi	fp, {r0, r1, r3, r8, fp, ip, sp}
     ab4:	00180213 	andseq	r0, r8, r3, lsl r2
     ab8:	010b1600 	tsteq	fp, r0, lsl #12
     abc:	13011755 	movwne	r1, #5973	; 0x1755
     ac0:	89170000 	ldmdbhi	r7, {}	; <UNPREDICTABLE>
     ac4:	11010182 	smlabbne	r1, r2, r1, r0
     ac8:	01133101 	tsteq	r3, r1, lsl #2
     acc:	18000013 	stmdane	r0, {r0, r1, r4}
     ad0:	0001828a 	andeq	r8, r1, sl, lsl #5
     ad4:	42911802 	addsmi	r1, r1, #131072	; 0x20000
     ad8:	19000018 	stmdbne	r0, {r3, r4}
     adc:	00018289 	andeq	r8, r1, r9, lsl #5
     ae0:	13310111 	teqne	r1, #1073741828	; 0x40000004
     ae4:	1d1a0000 	ldcne	0, cr0, [sl, #-0]
     ae8:	52133101 	andspl	r3, r3, #1073741824	; 0x40000000
     aec:	0542b801 	strbeq	fp, [r2, #-2049]	; 0xfffff7ff
     af0:	0b581755 	bleq	160684c <__bss_end__+0x15fc364>
     af4:	0b570b59 	bleq	15c3860 <__bss_end__+0x15b9378>
     af8:	00001301 	andeq	r1, r0, r1, lsl #6
     afc:	3100051b 	tstcc	r0, fp, lsl r5
     b00:	b7170213 			; <UNDEFINED> instruction: 0xb7170213
     b04:	00001742 	andeq	r1, r0, r2, asr #14
     b08:	3100051c 	tstcc	r0, ip, lsl r5
     b0c:	1d000013 	stcne	0, cr0, [r0, #-76]	; 0xffffffb4
     b10:	13310034 	teqne	r1, #52, 0	; 0x34
     b14:	00001802 	andeq	r1, r0, r2, lsl #16
     b18:	3100341e 	tstcc	r0, lr, lsl r4
     b1c:	b7170213 			; <UNDEFINED> instruction: 0xb7170213
     b20:	00001742 	andeq	r1, r0, r2, asr #14
     b24:	3100341f 	tstcc	r0, pc, lsl r4
     b28:	20000013 	andcs	r0, r0, r3, lsl r0
     b2c:	1331011d 	teqne	r1, #1073741831	; 0x40000007
     b30:	42b80152 	adcsmi	r0, r8, #-2147483628	; 0x80000014
     b34:	58175505 	ldmdapl	r7, {r0, r2, r8, sl, ip, lr}
     b38:	570b590b 	strpl	r5, [fp, -fp, lsl #18]
     b3c:	2100000b 	tstcs	r0, fp
     b40:	01018289 	smlabbeq	r1, r9, r2, r8
     b44:	13010111 	movwne	r0, #4369	; 0x1111
     b48:	01220000 			; <UNDEFINED> instruction: 0x01220000
     b4c:	01134901 	tsteq	r3, r1, lsl #18
     b50:	23000013 	movwcs	r0, #19
     b54:	13490021 	movtne	r0, #36897	; 0x9021
     b58:	00000b2f 	andeq	r0, r0, pc, lsr #22
     b5c:	03012e24 	movweq	r2, #7716	; 0x1e24
     b60:	3b0b3a0e 	blcc	2cf3a0 <__bss_end__+0x2c4eb8>
     b64:	270b390b 	strcs	r3, [fp, -fp, lsl #18]
     b68:	20134919 	andscs	r4, r3, r9, lsl r9
     b6c:	0013010b 	andseq	r0, r3, fp, lsl #2
     b70:	00052500 	andeq	r2, r5, r0, lsl #10
     b74:	0b3a0e03 	bleq	e84388 <__bss_end__+0xe79ea0>
     b78:	0b390b3b 	bleq	e4386c <__bss_end__+0xe39384>
     b7c:	00001349 	andeq	r1, r0, r9, asr #6
     b80:	03000526 	movweq	r0, #1318	; 0x526
     b84:	3b0b3a08 	blcc	2cf3ac <__bss_end__+0x2c4ec4>
     b88:	490b390b 	stmdbmi	fp, {r0, r1, r3, r8, fp, ip, sp}
     b8c:	27000013 	smladcs	r0, r3, r0, r0
     b90:	08030034 	stmdaeq	r3, {r2, r4, r5}
     b94:	0b3b0b3a 	bleq	ec3884 <__bss_end__+0xeb939c>
     b98:	13490b39 	movtne	r0, #39737	; 0x9b39
     b9c:	0b280000 	bleq	a00ba4 <__bss_end__+0x9f66bc>
     ba0:	29000001 	stmdbcs	r0, {r0}
     ba4:	0e030034 	mcreq	0, 0, r0, cr3, cr4, {1}
     ba8:	0b3b0b3a 	bleq	ec3898 <__bss_end__+0xeb93b0>
     bac:	13490b39 	movtne	r0, #39737	; 0x9b39
     bb0:	2e2a0000 	cdpcs	0, 2, cr0, cr10, cr0, {0}
     bb4:	3a080301 	bcc	2017c0 <__bss_end__+0x1f72d8>
     bb8:	390b3b0b 	stmdbcc	fp, {r0, r1, r3, r8, r9, fp, ip, sp}
     bbc:	4919270b 	ldmdbmi	r9, {r0, r1, r3, r8, r9, sl, sp}
     bc0:	010b2013 	tsteq	fp, r3, lsl r0
     bc4:	2b000013 	blcs	c18 <__code_start__-0x73e8>
     bc8:	193f012e 	ldmdbne	pc!, {r1, r2, r3, r5, r8}	; <UNPREDICTABLE>
     bcc:	0b3a0e03 	bleq	e843e0 <__bss_end__+0xe79ef8>
     bd0:	0b390b3b 	bleq	e438c4 <__bss_end__+0xe393dc>
     bd4:	01111927 	tsteq	r1, r7, lsr #18
     bd8:	18400612 	stmdane	r0, {r1, r4, r9, sl}^
     bdc:	01194297 			; <UNDEFINED> instruction: 0x01194297
     be0:	2c000013 	stccs	0, cr0, [r0], {19}
     be4:	1331012e 	teqne	r1, #-2147483637	; 0x8000000b
     be8:	06120111 			; <UNDEFINED> instruction: 0x06120111
     bec:	42971840 	addsmi	r1, r7, #64, 16	; 0x400000
     bf0:	00130119 	andseq	r0, r3, r9, lsl r1
     bf4:	00052d00 	andeq	r2, r5, r0, lsl #26
     bf8:	18021331 	stmdane	r2, {r0, r4, r5, r8, r9, ip}
     bfc:	052e0000 	streq	r0, [lr, #-0]!
     c00:	1c133100 	ldfnes	f3, [r3], {-0}
     c04:	2f00000b 	svccs	0x0000000b
     c08:	1331010b 	teqne	r1, #-1073741822	; 0xc0000002
     c0c:	06120111 			; <UNDEFINED> instruction: 0x06120111
     c10:	00001301 	andeq	r1, r0, r1, lsl #6
     c14:	3f002e30 	svccc	0x00002e30
     c18:	6e193c19 	mrcvs	12, 0, r3, cr9, cr9, {0}
     c1c:	3a0e030e 	bcc	38185c <__bss_end__+0x377374>
     c20:	390b3b0b 	stmdbcc	fp, {r0, r1, r3, r8, r9, fp, ip, sp}
     c24:	0000000b 	andeq	r0, r0, fp
     c28:	25011101 	strcs	r1, [r1, #-257]	; 0xfffffeff
     c2c:	030b130e 	movweq	r1, #45838	; 0xb30e
     c30:	550e1b0e 	strpl	r1, [lr, #-2830]	; 0xfffff4f2
     c34:	10011117 	andne	r1, r1, r7, lsl r1
     c38:	02000017 	andeq	r0, r0, #23, 0
     c3c:	0b0b0024 	bleq	2c0cd4 <__bss_end__+0x2b67ec>
     c40:	08030b3e 	stmdaeq	r3, {r1, r2, r3, r4, r5, r8, r9, fp}
     c44:	24030000 	strcs	r0, [r3], #-0
     c48:	3e0b0b00 	vmlacc.f64	d0, d11, d0
     c4c:	000e030b 	andeq	r0, lr, fp, lsl #6
     c50:	01150400 	tsteq	r5, r0, lsl #8
     c54:	13491927 	movtne	r1, #39207	; 0x9927
     c58:	00001301 	andeq	r1, r0, r1, lsl #6
     c5c:	49000505 	stmdbmi	r0, {r0, r2, r8, sl}
     c60:	06000013 			; <UNDEFINED> instruction: 0x06000013
     c64:	0e030034 	mcreq	0, 0, r0, cr3, cr4, {1}
     c68:	0b3b0b3a 	bleq	ec3958 <__bss_end__+0xeb9470>
     c6c:	13490b39 	movtne	r0, #39737	; 0x9b39
     c70:	193c193f 	ldmdbne	ip!, {r0, r1, r2, r3, r4, r5, r8, fp, ip}
     c74:	0f070000 	svceq	0x00070000
     c78:	490b0b00 	stmdbmi	fp, {r8, r9, fp}
     c7c:	08000013 	stmdaeq	r0, {r0, r1, r4}
     c80:	13490026 	movtne	r0, #36902	; 0x9026
     c84:	2e090000 	cdpcs	0, 0, cr0, cr9, cr0, {0}
     c88:	03193f01 	tsteq	r9, #1, 30
     c8c:	3b0b3a0e 	blcc	2cf4cc <__bss_end__+0x2c4fe4>
     c90:	270b390b 	strcs	r3, [fp, -fp, lsl #18]
     c94:	12011119 	andne	r1, r1, #1073741830	; 0x40000006
     c98:	97184006 	ldrls	r4, [r8, -r6]
     c9c:	13011942 	movwne	r1, #6466	; 0x1942
     ca0:	340a0000 	strcc	r0, [sl], #-0
     ca4:	3a080300 	bcc	2018ac <__bss_end__+0x1f73c4>
     ca8:	390b3b0b 	stmdbcc	fp, {r0, r1, r3, r8, r9, fp, ip, sp}
     cac:	0213490b 	andseq	r4, r3, #180224	; 0x2c000
     cb0:	1742b717 	smlaldne	fp, r2, r7, r7
     cb4:	2e0b0000 	cdpcs	0, 0, cr0, cr11, cr0, {0}
     cb8:	03193f01 	tsteq	r9, #1, 30
     cbc:	3b0b3a0e 	blcc	2cf4fc <__bss_end__+0x2c5014>
     cc0:	270b390b 	strcs	r3, [fp, -fp, lsl #18]
     cc4:	12011119 	andne	r1, r1, #1073741830	; 0x40000006
     cc8:	97184006 	ldrls	r4, [r8, -r6]
     ccc:	00001942 	andeq	r1, r0, r2, asr #18
     cd0:	01110100 	tsteq	r1, r0, lsl #2
     cd4:	0b130e25 	bleq	4c4570 <__bss_end__+0x4ba088>
     cd8:	0e1b0e03 	cdpeq	14, 1, cr0, cr11, cr3, {0}
     cdc:	06120111 			; <UNDEFINED> instruction: 0x06120111
     ce0:	00001710 	andeq	r1, r0, r0, lsl r7
     ce4:	0b002402 	bleq	9cf4 <strncmp+0x4>
     ce8:	030b3e0b 	movweq	r3, #48651	; 0xbe0b
     cec:	03000008 	movweq	r0, #8
     cf0:	0b0b0024 	bleq	2c0d88 <__bss_end__+0x2b68a0>
     cf4:	0e030b3e 	vmoveq.16	d3[0], r0
     cf8:	15040000 	strne	r0, [r4, #-0]
     cfc:	49192701 	ldmdbmi	r9, {r0, r8, r9, sl, sp}
     d00:	00130113 	andseq	r0, r3, r3, lsl r1
     d04:	00050500 	andeq	r0, r5, r0, lsl #10
     d08:	00001349 	andeq	r1, r0, r9, asr #6
     d0c:	03003406 	movweq	r3, #1030	; 0x406
     d10:	3b0b3a0e 	blcc	2cf550 <__bss_end__+0x2c5068>
     d14:	490b390b 	stmdbmi	fp, {r0, r1, r3, r8, fp, ip, sp}
     d18:	3c193f13 	ldccc	15, cr3, [r9], {19}
     d1c:	07000019 	smladeq	r0, r9, r0, r0
     d20:	0b0b000f 	bleq	2c0d64 <__bss_end__+0x2b687c>
     d24:	00001349 	andeq	r1, r0, r9, asr #6
     d28:	49002608 	stmdbmi	r0, {r3, r9, sl, sp}
     d2c:	09000013 	stmdbeq	r0, {r0, r1, r4}
     d30:	193f012e 	ldmdbne	pc!, {r1, r2, r3, r5, r8}	; <UNPREDICTABLE>
     d34:	0b3a0e03 	bleq	e84548 <__bss_end__+0xe7a060>
     d38:	0b390b3b 	bleq	e43a2c <__bss_end__+0xe39544>
     d3c:	01871927 	orreq	r1, r7, r7, lsr #18
     d40:	12011119 	andne	r1, r1, #1073741830	; 0x40000006
     d44:	97184006 	ldrls	r4, [r8, -r6]
     d48:	13011942 	movwne	r1, #6466	; 0x1942
     d4c:	890a0000 	stmdbhi	sl, {}	; <UNPREDICTABLE>
     d50:	11010182 	smlabbne	r1, r2, r1, r0
     d54:	00130101 	andseq	r0, r3, r1, lsl #2
     d58:	828a0b00 	addhi	r0, sl, #0, 22
     d5c:	18020001 	stmdane	r2, {r0}
     d60:	00184291 	mulseq	r8, r1, r2
     d64:	82890c00 	addhi	r0, r9, #0, 24
     d68:	01110001 	tsteq	r1, r1
     d6c:	00001331 	andeq	r1, r0, r1, lsr r3
     d70:	0182890d 	orreq	r8, r2, sp, lsl #18
     d74:	31011101 	tstcc	r1, r1, lsl #2
     d78:	00130113 	andseq	r0, r3, r3, lsl r1
     d7c:	002e0e00 	eoreq	r0, lr, r0, lsl #28
     d80:	193c193f 	ldmdbne	ip!, {r0, r1, r2, r3, r4, r5, r8, fp, ip}
     d84:	0e030e6e 	cdpeq	14, 0, cr0, cr3, cr14, {3}
     d88:	0b3b0b3a 	bleq	ec3a78 <__bss_end__+0xeb9590>
     d8c:	00000b39 	andeq	r0, r0, r9, lsr fp
     d90:	01110100 	tsteq	r1, r0, lsl #2
     d94:	0b130e25 	bleq	4c4630 <__bss_end__+0x4ba148>
     d98:	0e1b0e03 	cdpeq	14, 1, cr0, cr11, cr3, {0}
     d9c:	06120111 			; <UNDEFINED> instruction: 0x06120111
     da0:	00001710 	andeq	r1, r0, r0, lsl r7
     da4:	0b002402 	bleq	9db4 <__code_end__+0x78>
     da8:	030b3e0b 	movweq	r3, #48651	; 0xbe0b
     dac:	03000008 	movweq	r0, #8
     db0:	0b0b0024 	bleq	2c0e48 <__bss_end__+0x2b6960>
     db4:	0e030b3e 	vmoveq.16	d3[0], r0
     db8:	15040000 	strne	r0, [r4, #-0]
     dbc:	49192701 	ldmdbmi	r9, {r0, r8, r9, sl, sp}
     dc0:	00130113 	andseq	r0, r3, r3, lsl r1
     dc4:	00050500 	andeq	r0, r5, r0, lsl #10
     dc8:	00001349 	andeq	r1, r0, r9, asr #6
     dcc:	03003406 	movweq	r3, #1030	; 0x406
     dd0:	3b0b3a0e 	blcc	2cf610 <__bss_end__+0x2c5128>
     dd4:	490b390b 	stmdbmi	fp, {r0, r1, r3, r8, fp, ip, sp}
     dd8:	3c193f13 	ldccc	15, cr3, [r9], {19}
     ddc:	07000019 	smladeq	r0, r9, r0, r0
     de0:	0b0b000f 	bleq	2c0e24 <__bss_end__+0x2b693c>
     de4:	00001349 	andeq	r1, r0, r9, asr #6
     de8:	49002608 	stmdbmi	r0, {r3, r9, sl, sp}
     dec:	09000013 	stmdbeq	r0, {r0, r1, r4}
     df0:	193f012e 	ldmdbne	pc!, {r1, r2, r3, r5, r8}	; <UNPREDICTABLE>
     df4:	0b3a0e03 	bleq	e84608 <__bss_end__+0xe7a120>
     df8:	0b390b3b 	bleq	e43aec <__bss_end__+0xe39604>
     dfc:	06120111 			; <UNDEFINED> instruction: 0x06120111
     e00:	42971840 	addsmi	r1, r7, #64, 16	; 0x400000
     e04:	00130119 	andseq	r0, r3, r9, lsl r1
     e08:	002e0a00 	eoreq	r0, lr, r0, lsl #20
     e0c:	0e03193f 			; <UNDEFINED> instruction: 0x0e03193f
     e10:	0b3b0b3a 	bleq	ec3b00 <__bss_end__+0xeb9618>
     e14:	19270b39 	stmdbne	r7!, {r0, r3, r4, r5, r8, r9, fp}
     e18:	0000193c 	andeq	r1, r0, ip, lsr r9
     e1c:	0300340b 	movweq	r3, #1035	; 0x40b
     e20:	3b0b3a08 	blcc	2cf648 <__bss_end__+0x2c5160>
     e24:	490b390b 	stmdbmi	fp, {r0, r1, r3, r8, fp, ip, sp}
     e28:	b7170213 			; <UNDEFINED> instruction: 0xb7170213
     e2c:	00001742 	andeq	r1, r0, r2, asr #14
     e30:	0300340c 	movweq	r3, #1036	; 0x40c
     e34:	3b0b3a0e 	blcc	2cf674 <__bss_end__+0x2c518c>
     e38:	490b390b 	stmdbmi	fp, {r0, r1, r3, r8, fp, ip, sp}
     e3c:	0d000013 	stceq	0, cr0, [r0, #-76]	; 0xffffffb4
     e40:	0111010b 	tsteq	r1, fp, lsl #2
     e44:	13010612 	movwne	r0, #5650	; 0x1612
     e48:	890e0000 	stmdbhi	lr, {}	; <UNPREDICTABLE>
     e4c:	11000182 	smlabbne	r0, r2, r1, r0
     e50:	00133101 	andseq	r3, r3, r1, lsl #2
     e54:	002e0f00 	eoreq	r0, lr, r0, lsl #30
     e58:	193c193f 	ldmdbne	ip!, {r0, r1, r2, r3, r4, r5, r8, fp, ip}
     e5c:	0e030e6e 	cdpeq	14, 0, cr0, cr3, cr14, {3}
     e60:	053b0b3a 	ldreq	r0, [fp, #-2874]!	; 0xfffff4c6
     e64:	00000b39 	andeq	r0, r0, r9, lsr fp
     e68:	3f002e10 	svccc	0x00002e10
     e6c:	6e193c19 	mrcvs	12, 0, r3, cr9, cr9, {0}
     e70:	3a0e030e 	bcc	381ab0 <__bss_end__+0x3775c8>
     e74:	390b3b0b 	stmdbcc	fp, {r0, r1, r3, r8, r9, fp, ip, sp}
     e78:	0000000b 	andeq	r0, r0, fp
     e7c:	25011101 	strcs	r1, [r1, #-257]	; 0xfffffeff
     e80:	030b130e 	movweq	r1, #45838	; 0xb30e
     e84:	110e1b0e 	tstne	lr, lr, lsl #22
     e88:	10061201 	andne	r1, r6, r1, lsl #4
     e8c:	02000017 	andeq	r0, r0, #23, 0
     e90:	0b0b0024 	bleq	2c0f28 <__bss_end__+0x2b6a40>
     e94:	08030b3e 	stmdaeq	r3, {r1, r2, r3, r4, r5, r8, r9, fp}
     e98:	24030000 	strcs	r0, [r3], #-0
     e9c:	3e0b0b00 	vmlacc.f64	d0, d11, d0
     ea0:	000e030b 	andeq	r0, lr, fp, lsl #6
     ea4:	01150400 	tsteq	r5, r0, lsl #8
     ea8:	13491927 	movtne	r1, #39207	; 0x9927
     eac:	00001301 	andeq	r1, r0, r1, lsl #6
     eb0:	49000505 	stmdbmi	r0, {r0, r2, r8, sl}
     eb4:	06000013 			; <UNDEFINED> instruction: 0x06000013
     eb8:	0e030034 	mcreq	0, 0, r0, cr3, cr4, {1}
     ebc:	0b3b0b3a 	bleq	ec3bac <__bss_end__+0xeb96c4>
     ec0:	13490b39 	movtne	r0, #39737	; 0x9b39
     ec4:	193c193f 	ldmdbne	ip!, {r0, r1, r2, r3, r4, r5, r8, fp, ip}
     ec8:	0f070000 	svceq	0x00070000
     ecc:	490b0b00 	stmdbmi	fp, {r8, r9, fp}
     ed0:	08000013 	stmdaeq	r0, {r0, r1, r4}
     ed4:	13490026 	movtne	r0, #36902	; 0x9026
     ed8:	2e090000 	cdpcs	0, 0, cr0, cr9, cr0, {0}
     edc:	03193f00 	tsteq	r9, #0, 30
     ee0:	3b0b3a0e 	blcc	2cf720 <__bss_end__+0x2c5238>
     ee4:	270b390b 	strcs	r3, [fp, -fp, lsl #18]
     ee8:	12011119 	andne	r1, r1, #1073741830	; 0x40000006
     eec:	97184006 	ldrls	r4, [r8, -r6]
     ef0:	00001942 	andeq	r1, r0, r2, asr #18
     ef4:	01110100 	tsteq	r1, r0, lsl #2
     ef8:	0b130e25 	bleq	4c4794 <__bss_end__+0x4ba2ac>
     efc:	0e1b0e03 	cdpeq	14, 1, cr0, cr11, cr3, {0}
     f00:	01111755 	tsteq	r1, r5, asr r7
     f04:	00001710 	andeq	r1, r0, r0, lsl r7
     f08:	0b002402 	bleq	9f18 <__FUNCTION__.4026+0x60>
     f0c:	030b3e0b 	movweq	r3, #48651	; 0xbe0b
     f10:	03000008 	movweq	r0, #8
     f14:	13490026 	movtne	r0, #36902	; 0x9026
     f18:	24040000 	strcs	r0, [r4], #-0
     f1c:	3e0b0b00 	vmlacc.f64	d0, d11, d0
     f20:	000e030b 	andeq	r0, lr, fp, lsl #6
     f24:	01150500 	tsteq	r5, r0, lsl #10
     f28:	13491927 	movtne	r1, #39207	; 0x9927
     f2c:	00001301 	andeq	r1, r0, r1, lsl #6
     f30:	49000506 	stmdbmi	r0, {r1, r2, r8, sl}
     f34:	07000013 	smladeq	r0, r3, r0, r0
     f38:	0e030034 	mcreq	0, 0, r0, cr3, cr4, {1}
     f3c:	0b3b0b3a 	bleq	ec3c2c <__bss_end__+0xeb9744>
     f40:	13490b39 	movtne	r0, #39737	; 0x9b39
     f44:	193c193f 	ldmdbne	ip!, {r0, r1, r2, r3, r4, r5, r8, fp, ip}
     f48:	0f080000 	svceq	0x00080000
     f4c:	490b0b00 	stmdbmi	fp, {r8, r9, fp}
     f50:	09000013 	stmdbeq	r0, {r0, r1, r4}
     f54:	0e030034 	mcreq	0, 0, r0, cr3, cr4, {1}
     f58:	0b3b0b3a 	bleq	ec3c48 <__bss_end__+0xeb9760>
     f5c:	13490b39 	movtne	r0, #39737	; 0x9b39
     f60:	2e0a0000 	cdpcs	0, 0, cr0, cr10, cr0, {0}
     f64:	03193f01 	tsteq	r9, #1, 30
     f68:	3b0b3a0e 	blcc	2cf7a8 <__bss_end__+0x2c52c0>
     f6c:	270b390b 	strcs	r3, [fp, -fp, lsl #18]
     f70:	19018719 	stmdbne	r1, {r0, r3, r4, r8, r9, sl, pc}
     f74:	06120111 			; <UNDEFINED> instruction: 0x06120111
     f78:	42971840 	addsmi	r1, r7, #64, 16	; 0x400000
     f7c:	00130119 	andseq	r0, r3, r9, lsl r1
     f80:	00340b00 	eorseq	r0, r4, r0, lsl #22
     f84:	0b3a0e03 	bleq	e84798 <__bss_end__+0xe7a2b0>
     f88:	0b390b3b 	bleq	e43c7c <__bss_end__+0xe39794>
     f8c:	061c1349 	ldreq	r1, [ip], -r9, asr #6
     f90:	340c0000 	strcc	r0, [ip], #-0
     f94:	3a0e0300 	bcc	381b9c <__bss_end__+0x3776b4>
     f98:	390b3b0b 	stmdbcc	fp, {r0, r1, r3, r8, r9, fp, ip, sp}
     f9c:	1c13490b 			; <UNDEFINED> instruction: 0x1c13490b
     fa0:	0d00000b 	stceq	0, cr0, [r0, #-44]	; 0xffffffd4
     fa4:	1331011d 	teqne	r1, #1073741831	; 0x40000007
     fa8:	42b80152 	adcsmi	r0, r8, #-2147483628	; 0x80000014
     fac:	5817550b 	ldmdapl	r7, {r0, r1, r3, r8, sl, ip, lr}
     fb0:	570b590b 	strpl	r5, [fp, -fp, lsl #18]
     fb4:	0013010b 	andseq	r0, r3, fp, lsl #2
     fb8:	010b0e00 	tsteq	fp, r0, lsl #28
     fbc:	00001755 	andeq	r1, r0, r5, asr r7
     fc0:	3100340f 	tstcc	r0, pc, lsl #8
     fc4:	b7170213 			; <UNDEFINED> instruction: 0xb7170213
     fc8:	00001742 	andeq	r1, r0, r2, asr #14
     fcc:	31011d10 	tstcc	r1, r0, lsl sp
     fd0:	b8015213 	stmdalt	r1, {r0, r1, r4, r9, ip, lr}
     fd4:	01110b42 	tsteq	r1, r2, asr #22
     fd8:	0b580612 	bleq	1602828 <__bss_end__+0x15f8340>
     fdc:	0b570b59 	bleq	15c3d48 <__bss_end__+0x15b9860>
     fe0:	00001301 	andeq	r1, r0, r1, lsl #6
     fe4:	01828911 	orreq	r8, r2, r1, lsl r9
     fe8:	31011100 	mrscc	r1, (UNDEF: 17)
     fec:	12000013 	andne	r0, r0, #19, 0
     ff0:	01018289 	smlabbeq	r1, r9, r2, r8
     ff4:	13310111 	teqne	r1, #1073741828	; 0x40000004
     ff8:	00001301 	andeq	r1, r0, r1, lsl #6
     ffc:	01828a13 	orreq	r8, r2, r3, lsl sl
    1000:	91180200 	tstls	r8, r0, lsl #4
    1004:	00001842 	andeq	r1, r0, r2, asr #16
    1008:	01828914 	orreq	r8, r2, r4, lsl r9
    100c:	31011101 	tstcc	r1, r1, lsl #2
    1010:	15000013 	strne	r0, [r0, #-19]	; 0xffffffed
    1014:	193f012e 	ldmdbne	pc!, {r1, r2, r3, r5, r8}	; <UNPREDICTABLE>
    1018:	0b3a0e03 	bleq	e8482c <__bss_end__+0xe7a344>
    101c:	0b390b3b 	bleq	e43d10 <__bss_end__+0xe39828>
    1020:	0b201927 	bleq	8074c4 <__bss_end__+0x7fcfdc>
    1024:	00001301 	andeq	r1, r0, r1, lsl #6
    1028:	3f012e16 	svccc	0x00012e16
    102c:	3a0e0319 	bcc	381c98 <__bss_end__+0x3777b0>
    1030:	390b3b0b 	stmdbcc	fp, {r0, r1, r3, r8, r9, fp, ip, sp}
    1034:	4919270b 	ldmdbmi	r9, {r0, r1, r3, r8, r9, sl, sp}
    1038:	010b2013 	tsteq	fp, r3, lsl r0
    103c:	17000013 	smladne	r0, r3, r0, r0
    1040:	1331012e 	teqne	r1, #-2147483637	; 0x8000000b
    1044:	06120111 			; <UNDEFINED> instruction: 0x06120111
    1048:	42971840 	addsmi	r1, r7, #64, 16	; 0x400000
    104c:	00130119 	andseq	r0, r3, r9, lsl r1
    1050:	002e1800 	eoreq	r1, lr, r0, lsl #16
    1054:	193c193f 	ldmdbne	ip!, {r0, r1, r2, r3, r4, r5, r8, fp, ip}
    1058:	0e030e6e 	cdpeq	14, 0, cr0, cr3, cr14, {3}
    105c:	053b0b3a 	ldreq	r0, [fp, #-2874]!	; 0xfffff4c6
    1060:	00000b39 	andeq	r0, r0, r9, lsr fp
    1064:	3f002e19 	svccc	0x00002e19
    1068:	6e193c19 	mrcvs	12, 0, r3, cr9, cr9, {0}
    106c:	3a0e030e 	bcc	381cac <__bss_end__+0x3777c4>
    1070:	390b3b0b 	stmdbcc	fp, {r0, r1, r3, r8, r9, fp, ip, sp}
    1074:	0000000b 	andeq	r0, r0, fp
    1078:	25011101 	strcs	r1, [r1, #-257]	; 0xfffffeff
    107c:	030b130e 	movweq	r1, #45838	; 0xb30e
    1080:	110e1b0e 	tstne	lr, lr, lsl #22
    1084:	10061201 	andne	r1, r6, r1, lsl #4
    1088:	02000017 	andeq	r0, r0, #23, 0
    108c:	0b0b0024 	bleq	2c1124 <__bss_end__+0x2b6c3c>
    1090:	08030b3e 	stmdaeq	r3, {r1, r2, r3, r4, r5, r8, r9, fp}
    1094:	24030000 	strcs	r0, [r3], #-0
    1098:	3e0b0b00 	vmlacc.f64	d0, d11, d0
    109c:	000e030b 	andeq	r0, lr, fp, lsl #6
    10a0:	01150400 	tsteq	r5, r0, lsl #8
    10a4:	13491927 	movtne	r1, #39207	; 0x9927
    10a8:	00001301 	andeq	r1, r0, r1, lsl #6
    10ac:	49000505 	stmdbmi	r0, {r0, r2, r8, sl}
    10b0:	06000013 			; <UNDEFINED> instruction: 0x06000013
    10b4:	0e030034 	mcreq	0, 0, r0, cr3, cr4, {1}
    10b8:	0b3b0b3a 	bleq	ec3da8 <__bss_end__+0xeb98c0>
    10bc:	13490b39 	movtne	r0, #39737	; 0x9b39
    10c0:	193c193f 	ldmdbne	ip!, {r0, r1, r2, r3, r4, r5, r8, fp, ip}
    10c4:	0f070000 	svceq	0x00070000
    10c8:	490b0b00 	stmdbmi	fp, {r8, r9, fp}
    10cc:	08000013 	stmdaeq	r0, {r0, r1, r4}
    10d0:	13490026 	movtne	r0, #36902	; 0x9026
    10d4:	2e090000 	cdpcs	0, 0, cr0, cr9, cr0, {0}
    10d8:	03193f01 	tsteq	r9, #1, 30
    10dc:	3b0b3a0e 	blcc	2cf91c <__bss_end__+0x2c5434>
    10e0:	270b390b 	strcs	r3, [fp, -fp, lsl #18]
    10e4:	12011119 	andne	r1, r1, #1073741830	; 0x40000006
    10e8:	97184006 	ldrls	r4, [r8, -r6]
    10ec:	13011942 	movwne	r1, #6466	; 0x1942
    10f0:	050a0000 	streq	r0, [sl, #-0]
    10f4:	3a080300 	bcc	201cfc <__bss_end__+0x1f7814>
    10f8:	390b3b0b 	stmdbcc	fp, {r0, r1, r3, r8, r9, fp, ip, sp}
    10fc:	0213490b 	andseq	r4, r3, #180224	; 0x2c000
    1100:	1742b717 	smlaldne	fp, r2, r7, r7
    1104:	1d0b0000 	stcne	0, cr0, [fp, #-0]
    1108:	52133101 	andspl	r3, r3, #1073741824	; 0x40000000
    110c:	0b42b801 	bleq	10af118 <__bss_end__+0x10a4c30>
    1110:	0b581755 	bleq	1606e6c <__bss_end__+0x15fc984>
    1114:	0b570b59 	bleq	15c3e80 <__bss_end__+0x15b9998>
    1118:	050c0000 	streq	r0, [ip, #-0]
    111c:	02133100 	andseq	r3, r3, #0
    1120:	1742b717 	smlaldne	fp, r2, r7, r7
    1124:	1d0d0000 	stcne	0, cr0, [sp, #-0]
    1128:	52133101 	andspl	r3, r3, #1073741824	; 0x40000000
    112c:	0b42b801 	bleq	10af138 <__bss_end__+0x10a4c50>
    1130:	06120111 			; <UNDEFINED> instruction: 0x06120111
    1134:	0b590b58 	bleq	1643e9c <__bss_end__+0x16399b4>
    1138:	00000b57 	andeq	r0, r0, r7, asr fp
    113c:	3100340e 	tstcc	r0, lr, lsl #8
    1140:	b7170213 			; <UNDEFINED> instruction: 0xb7170213
    1144:	00001742 	andeq	r1, r0, r2, asr #14
    1148:	31011d0f 	tstcc	r1, pc, lsl #26
    114c:	b8015213 	stmdalt	r1, {r0, r1, r4, r9, ip, lr}
    1150:	01110b42 	tsteq	r1, r2, asr #22
    1154:	0b580612 	bleq	16029a4 <__bss_end__+0x15f84bc>
    1158:	0b570b59 	bleq	15c3ec4 <__bss_end__+0x15b99dc>
    115c:	00001301 	andeq	r1, r0, r1, lsl #6
    1160:	01828910 	orreq	r8, r2, r0, lsl r9
    1164:	31011101 	tstcc	r1, r1, lsl #2
    1168:	11000013 	tstne	r0, r3, lsl r0
    116c:	0001828a 	andeq	r8, r1, sl, lsl #5
    1170:	42911802 	addsmi	r1, r1, #131072	; 0x20000
    1174:	12000018 	andne	r0, r0, #24, 0
    1178:	00018289 	andeq	r8, r1, r9, lsl #5
    117c:	13310111 	teqne	r1, #1073741828	; 0x40000004
    1180:	0b130000 	bleq	4c1188 <__bss_end__+0x4b6ca0>
    1184:	55133101 	ldrpl	r3, [r3, #-257]	; 0xfffffeff
    1188:	14000017 	strne	r0, [r0], #-23	; 0xffffffe9
    118c:	13310034 	teqne	r1, #52, 0	; 0x34
    1190:	0b150000 	bleq	541198 <__bss_end__+0x536cb0>
    1194:	00175501 	andseq	r5, r7, r1, lsl #10
    1198:	011d1600 	tsteq	sp, r0, lsl #12
    119c:	01521331 	cmpeq	r2, r1, lsr r3
    11a0:	550b42b8 	strpl	r4, [fp, #-696]	; 0xfffffd48
    11a4:	590b5817 	stmdbpl	fp, {r0, r1, r2, r4, fp, ip, lr}
    11a8:	010b570b 	tsteq	fp, fp, lsl #14
    11ac:	17000013 	smladne	r0, r3, r0, r0
    11b0:	193f012e 	ldmdbne	pc!, {r1, r2, r3, r5, r8}	; <UNPREDICTABLE>
    11b4:	0b3a0e03 	bleq	e849c8 <__bss_end__+0xe7a4e0>
    11b8:	0b390b3b 	bleq	e43eac <__bss_end__+0xe399c4>
    11bc:	0b201927 	bleq	807660 <__bss_end__+0x7fd178>
    11c0:	00001301 	andeq	r1, r0, r1, lsl #6
    11c4:	03000518 	movweq	r0, #1304	; 0x518
    11c8:	3b0b3a08 	blcc	2cf9f0 <__bss_end__+0x2c5508>
    11cc:	490b390b 	stmdbmi	fp, {r0, r1, r3, r8, fp, ip, sp}
    11d0:	19000013 	stmdbne	r0, {r0, r1, r4}
    11d4:	08030034 	stmdaeq	r3, {r2, r4, r5}
    11d8:	0b3b0b3a 	bleq	ec3ec8 <__bss_end__+0xeb99e0>
    11dc:	13490b39 	movtne	r0, #39737	; 0x9b39
    11e0:	0b1a0000 	bleq	6811e8 <__bss_end__+0x676d00>
    11e4:	1b000001 	blne	11f0 <__code_start__-0x6e10>
    11e8:	193f012e 	ldmdbne	pc!, {r1, r2, r3, r5, r8}	; <UNPREDICTABLE>
    11ec:	0b3a0e03 	bleq	e84a00 <__bss_end__+0xe7a518>
    11f0:	0b390b3b 	bleq	e43ee4 <__bss_end__+0xe399fc>
    11f4:	13491927 	movtne	r1, #39207	; 0x9927
    11f8:	13010b20 	movwne	r0, #6944	; 0x1b20
    11fc:	2e1c0000 	cdpcs	0, 1, cr0, cr12, cr0, {0}
    1200:	03193f00 	tsteq	r9, #0, 30
    1204:	3b0b3a0e 	blcc	2cfa44 <__bss_end__+0x2c555c>
    1208:	270b390b 	strcs	r3, [fp, -fp, lsl #18]
    120c:	20134919 	andscs	r4, r3, r9, lsl r9
    1210:	1d00000b 	stcne	0, cr0, [r0, #-44]	; 0xffffffd4
    1214:	1331012e 	teqne	r1, #-2147483637	; 0x8000000b
    1218:	06120111 			; <UNDEFINED> instruction: 0x06120111
    121c:	42971840 	addsmi	r1, r7, #64, 16	; 0x400000
    1220:	00130119 	andseq	r0, r3, r9, lsl r1
    1224:	82891e00 	addhi	r1, r9, #0, 28
    1228:	01110101 	tsteq	r1, r1, lsl #2
    122c:	31194295 			; <UNDEFINED> instruction: 0x31194295
    1230:	1f000013 	svcne	0x00000013
    1234:	193f002e 	ldmdbne	pc!, {r1, r2, r3, r5}	; <UNPREDICTABLE>
    1238:	0e6e193c 			; <UNDEFINED> instruction: 0x0e6e193c
    123c:	0b3a0e03 	bleq	e84a50 <__bss_end__+0xe7a568>
    1240:	0b390b3b 	bleq	e43f34 <__bss_end__+0xe39a4c>
    1244:	01000000 	mrseq	r0, (UNDEF: 0)
    1248:	0e250111 	mcreq	1, 1, r0, cr5, cr1, {0}
    124c:	0e030b13 	vmoveq.32	d3[0], r0
    1250:	01110e1b 	tsteq	r1, fp, lsl lr
    1254:	17100612 			; <UNDEFINED> instruction: 0x17100612
    1258:	24020000 	strcs	r0, [r2], #-0
    125c:	3e0b0b00 	vmlacc.f64	d0, d11, d0
    1260:	0008030b 	andeq	r0, r8, fp, lsl #6
    1264:	00240300 	eoreq	r0, r4, r0, lsl #6
    1268:	0b3e0b0b 	bleq	f83e9c <__bss_end__+0xf799b4>
    126c:	00000e03 	andeq	r0, r0, r3, lsl #28
    1270:	49003504 	stmdbmi	r0, {r2, r8, sl, ip, sp}
    1274:	05000013 	streq	r0, [r0, #-19]	; 0xffffffed
    1278:	0e030016 	mcreq	0, 0, r0, cr3, cr6, {0}
    127c:	0b3b0b3a 	bleq	ec3f6c <__bss_end__+0xeb9a84>
    1280:	13490b39 	movtne	r0, #39737	; 0x9b39
    1284:	04060000 	streq	r0, [r6], #-0
    1288:	0b0b3e01 	bleq	2d0a94 <__bss_end__+0x2c65ac>
    128c:	3a13490b 	bcc	4d36c0 <__bss_end__+0x4c91d8>
    1290:	390b3b0b 	stmdbcc	fp, {r0, r1, r3, r8, r9, fp, ip, sp}
    1294:	0013010b 	andseq	r0, r3, fp, lsl #2
    1298:	00280700 	eoreq	r0, r8, r0, lsl #14
    129c:	0b1c0e03 	bleq	704ab0 <__bss_end__+0x6fa5c8>
    12a0:	13080000 	movwne	r0, #32768	; 0x8000
    12a4:	0b0e0301 	bleq	381eb0 <__bss_end__+0x3779c8>
    12a8:	3b0b3a0b 	blcc	2cfadc <__bss_end__+0x2c55f4>
    12ac:	010b390b 	tsteq	fp, fp, lsl #18
    12b0:	09000013 	stmdbeq	r0, {r0, r1, r4}
    12b4:	0803000d 	stmdaeq	r3, {r0, r2, r3}
    12b8:	0b3b0b3a 	bleq	ec3fa8 <__bss_end__+0xeb9ac0>
    12bc:	13490b39 	movtne	r0, #39737	; 0x9b39
    12c0:	00000b38 	andeq	r0, r0, r8, lsr fp
    12c4:	03000d0a 	movweq	r0, #3338	; 0xd0a
    12c8:	3b0b3a0e 	blcc	2cfb08 <__bss_end__+0x2c5620>
    12cc:	490b390b 	stmdbmi	fp, {r0, r1, r3, r8, fp, ip, sp}
    12d0:	000b3813 	andeq	r3, fp, r3, lsl r8
    12d4:	00340b00 	eorseq	r0, r4, r0, lsl #22
    12d8:	0b3a0e03 	bleq	e84aec <__bss_end__+0xe7a604>
    12dc:	0b390b3b 	bleq	e43fd0 <__bss_end__+0xe39ae8>
    12e0:	061c1349 	ldreq	r1, [ip], -r9, asr #6
    12e4:	0f0c0000 	svceq	0x000c0000
    12e8:	490b0b00 	stmdbmi	fp, {r8, r9, fp}
    12ec:	0d000013 	stceq	0, cr0, [r0, #-76]	; 0xffffffb4
    12f0:	13490026 	movtne	r0, #36902	; 0x9026
    12f4:	2e0e0000 	cdpcs	0, 0, cr0, cr14, cr0, {0}
    12f8:	03193f01 	tsteq	r9, #1, 30
    12fc:	3b0b3a0e 	blcc	2cfb3c <__bss_end__+0x2c5654>
    1300:	270b390b 	strcs	r3, [fp, -fp, lsl #18]
    1304:	12011119 	andne	r1, r1, #1073741830	; 0x40000006
    1308:	97184006 	ldrls	r4, [r8, -r6]
    130c:	13011942 	movwne	r1, #6466	; 0x1942
    1310:	890f0000 	stmdbhi	pc, {}	; <UNPREDICTABLE>
    1314:	11000182 	smlabbne	r0, r2, r1, r0
    1318:	00133101 	andseq	r3, r3, r1, lsl #2
    131c:	012e1000 			; <UNDEFINED> instruction: 0x012e1000
    1320:	0e03193f 			; <UNDEFINED> instruction: 0x0e03193f
    1324:	0b3b0b3a 	bleq	ec4014 <__bss_end__+0xeb9b2c>
    1328:	19270b39 	stmdbne	r7!, {r0, r3, r4, r5, r8, r9, fp}
    132c:	01111349 	tsteq	r1, r9, asr #6
    1330:	18400612 	stmdane	r0, {r1, r4, r9, sl}^
    1334:	01194297 			; <UNDEFINED> instruction: 0x01194297
    1338:	11000013 	tstne	r0, r3, lsl r0
    133c:	01018289 	smlabbeq	r1, r9, r2, r8
    1340:	13310111 	teqne	r1, #1073741828	; 0x40000004
    1344:	8a120000 	bhi	48134c <__bss_end__+0x476e64>
    1348:	02000182 	andeq	r0, r0, #-2147483616	; 0x80000020
    134c:	18429118 	stmdane	r2, {r3, r4, r8, ip, pc}^
    1350:	05130000 	ldreq	r0, [r3, #-0]
    1354:	3a080300 	bcc	201f5c <__bss_end__+0x1f7a74>
    1358:	390b3b0b 	stmdbcc	fp, {r0, r1, r3, r8, r9, fp, ip, sp}
    135c:	0213490b 	andseq	r4, r3, #180224	; 0x2c000
    1360:	1742b717 	smlaldne	fp, r2, r7, r7
    1364:	89140000 	ldmdbhi	r4, {}	; <UNPREDICTABLE>
    1368:	11010182 	smlabbne	r1, r2, r1, r0
    136c:	01133101 	tsteq	r3, r1, lsl #2
    1370:	15000013 	strne	r0, [r0, #-19]	; 0xffffffed
    1374:	08030034 	stmdaeq	r3, {r2, r4, r5}
    1378:	0b3b0b3a 	bleq	ec4068 <__bss_end__+0xeb9b80>
    137c:	13490b39 	movtne	r0, #39737	; 0x9b39
    1380:	42b71702 	adcsmi	r1, r7, #524288	; 0x80000
    1384:	16000017 			; <UNDEFINED> instruction: 0x16000017
    1388:	0e030034 	mcreq	0, 0, r0, cr3, cr4, {1}
    138c:	0b3b0b3a 	bleq	ec407c <__bss_end__+0xeb9b94>
    1390:	13490b39 	movtne	r0, #39737	; 0x9b39
    1394:	0000051c 	andeq	r0, r0, ip, lsl r5
    1398:	03012e17 	movweq	r2, #7703	; 0x1e17
    139c:	3b0b3a0e 	blcc	2cfbdc <__bss_end__+0x2c56f4>
    13a0:	270b390b 	strcs	r3, [fp, -fp, lsl #18]
    13a4:	12011119 	andne	r1, r1, #1073741830	; 0x40000006
    13a8:	97184006 	ldrls	r4, [r8, -r6]
    13ac:	13011942 	movwne	r1, #6466	; 0x1942
    13b0:	05180000 	ldreq	r0, [r8, #-0]
    13b4:	3a0e0300 	bcc	381fbc <__bss_end__+0x377ad4>
    13b8:	390b3b0b 	stmdbcc	fp, {r0, r1, r3, r8, r9, fp, ip, sp}
    13bc:	0213490b 	andseq	r4, r3, #180224	; 0x2c000
    13c0:	1742b717 	smlaldne	fp, r2, r7, r7
    13c4:	35190000 	ldrcc	r0, [r9, #-0]
    13c8:	1a000000 	bne	13d0 <__code_start__-0x6c30>
    13cc:	193f002e 	ldmdbne	pc!, {r1, r2, r3, r5}	; <UNPREDICTABLE>
    13d0:	0e6e193c 			; <UNDEFINED> instruction: 0x0e6e193c
    13d4:	0b3a0e03 	bleq	e84be8 <__bss_end__+0xe7a700>
    13d8:	0b390b3b 	bleq	e440cc <__bss_end__+0xe39be4>
    13dc:	01000000 	mrseq	r0, (UNDEF: 0)
    13e0:	0e250111 	mcreq	1, 1, r0, cr5, cr1, {0}
    13e4:	0e030b13 	vmoveq.32	d3[0], r0
    13e8:	01110e1b 	tsteq	r1, fp, lsl lr
    13ec:	17100612 			; <UNDEFINED> instruction: 0x17100612
    13f0:	24020000 	strcs	r0, [r2], #-0
    13f4:	3e0b0b00 	vmlacc.f64	d0, d11, d0
    13f8:	0008030b 	andeq	r0, r8, fp, lsl #6
    13fc:	00240300 	eoreq	r0, r4, r0, lsl #6
    1400:	0b3e0b0b 	bleq	f84034 <__bss_end__+0xf79b4c>
    1404:	00000e03 	andeq	r0, r0, r3, lsl #28
    1408:	03001604 	movweq	r1, #1540	; 0x604
    140c:	3b0b3a0e 	blcc	2cfc4c <__bss_end__+0x2c5764>
    1410:	490b390b 	stmdbmi	fp, {r0, r1, r3, r8, fp, ip, sp}
    1414:	05000013 	streq	r0, [r0, #-19]	; 0xffffffed
    1418:	13490026 	movtne	r0, #36902	; 0x9026
    141c:	0f060000 	svceq	0x00060000
    1420:	000b0b00 	andeq	r0, fp, r0, lsl #22
    1424:	01040700 	tsteq	r4, r0, lsl #14
    1428:	0b0b0b3e 	bleq	2c4128 <__bss_end__+0x2b9c40>
    142c:	0b3a1349 	bleq	e86158 <__bss_end__+0xe7bc70>
    1430:	0b390b3b 	bleq	e44124 <__bss_end__+0xe39c3c>
    1434:	00001301 	andeq	r1, r0, r1, lsl #6
    1438:	03002808 	movweq	r2, #2056	; 0x808
    143c:	00061c0e 	andeq	r1, r6, lr, lsl #24
    1440:	00340900 	eorseq	r0, r4, r0, lsl #18
    1444:	0b3a0e03 	bleq	e84c58 <__bss_end__+0xe7a770>
    1448:	0b390b3b 	bleq	e4413c <__bss_end__+0xe39c54>
    144c:	193f1349 	ldmdbne	pc!, {r0, r3, r6, r8, r9, ip}	; <UNPREDICTABLE>
    1450:	0000193c 	andeq	r1, r0, ip, lsr r9
    1454:	0300340a 	movweq	r3, #1034	; 0x40a
    1458:	3b0b3a0e 	blcc	2cfc98 <__bss_end__+0x2c57b0>
    145c:	490b390b 	stmdbmi	fp, {r0, r1, r3, r8, fp, ip, sp}
    1460:	00180213 	andseq	r0, r8, r3, lsl r2
    1464:	000f0b00 	andeq	r0, pc, r0, lsl #22
    1468:	13490b0b 	movtne	r0, #39691	; 0x9b0b
    146c:	2e0c0000 	cdpcs	0, 0, cr0, cr12, cr0, {0}
    1470:	03193f01 	tsteq	r9, #1, 30
    1474:	3b0b3a0e 	blcc	2cfcb4 <__bss_end__+0x2c57cc>
    1478:	270b390b 	strcs	r3, [fp, -fp, lsl #18]
    147c:	12011119 	andne	r1, r1, #1073741830	; 0x40000006
    1480:	97184006 	ldrls	r4, [r8, -r6]
    1484:	13011942 	movwne	r1, #6466	; 0x1942
    1488:	050d0000 	streq	r0, [sp, #-0]
    148c:	3a080300 	bcc	202094 <__bss_end__+0x1f7bac>
    1490:	390b3b0b 	stmdbcc	fp, {r0, r1, r3, r8, r9, fp, ip, sp}
    1494:	0213490b 	andseq	r4, r3, #180224	; 0x2c000
    1498:	1742b717 	smlaldne	fp, r2, r7, r7
    149c:	340e0000 	strcc	r0, [lr], #-0
    14a0:	490e0300 	stmdbmi	lr, {r8, r9}
    14a4:	02193413 	andseq	r3, r9, #318767104	; 0x13000000
    14a8:	0f000018 	svceq	0x00000018
    14ac:	01018289 	smlabbeq	r1, r9, r2, r8
    14b0:	13310111 	teqne	r1, #1073741828	; 0x40000004
    14b4:	00001301 	andeq	r1, r0, r1, lsl #6
    14b8:	01828a10 	orreq	r8, r2, r0, lsl sl
    14bc:	91180200 	tstls	r8, r0, lsl #4
    14c0:	00001842 	andeq	r1, r0, r2, asr #16
    14c4:	01828911 	orreq	r8, r2, r1, lsl r9
    14c8:	31011100 	mrscc	r1, (UNDEF: 17)
    14cc:	12000013 	andne	r0, r0, #19, 0
    14d0:	13490101 	movtne	r0, #37121	; 0x9101
    14d4:	00001301 	andeq	r1, r0, r1, lsl #6
    14d8:	49002113 	stmdbmi	r0, {r0, r1, r4, r8, sp}
    14dc:	000b2f13 	andeq	r2, fp, r3, lsl pc
    14e0:	002e1400 	eoreq	r1, lr, r0, lsl #8
    14e4:	0e03193f 			; <UNDEFINED> instruction: 0x0e03193f
    14e8:	0b3b0b3a 	bleq	ec41d8 <__bss_end__+0xeb9cf0>
    14ec:	19270b39 	stmdbne	r7!, {r0, r3, r4, r5, r8, r9, fp}
    14f0:	06120111 			; <UNDEFINED> instruction: 0x06120111
    14f4:	42971840 	addsmi	r1, r7, #64, 16	; 0x400000
    14f8:	15000019 	strne	r0, [r0, #-25]	; 0xffffffe7
    14fc:	08030005 	stmdaeq	r3, {r0, r2}
    1500:	0b3b0b3a 	bleq	ec41f0 <__bss_end__+0xeb9d08>
    1504:	13490b39 	movtne	r0, #39737	; 0x9b39
    1508:	00001802 	andeq	r1, r0, r2, lsl #16
    150c:	3f012e16 	svccc	0x00012e16
    1510:	3a0e0319 	bcc	38217c <__bss_end__+0x377c94>
    1514:	390b3b0b 	stmdbcc	fp, {r0, r1, r3, r8, r9, fp, ip, sp}
    1518:	4919270b 	ldmdbmi	r9, {r0, r1, r3, r8, r9, sl, sp}
    151c:	12011113 	andne	r1, r1, #-1073741820	; 0xc0000004
    1520:	97184006 	ldrls	r4, [r8, -r6]
    1524:	13011942 	movwne	r1, #6466	; 0x1942
    1528:	05170000 	ldreq	r0, [r7, #-0]
    152c:	3a0e0300 	bcc	382134 <__bss_end__+0x377c4c>
    1530:	390b3b0b 	stmdbcc	fp, {r0, r1, r3, r8, r9, fp, ip, sp}
    1534:	0213490b 	andseq	r4, r3, #180224	; 0x2c000
    1538:	1742b717 	smlaldne	fp, r2, r7, r7
    153c:	34180000 	ldrcc	r0, [r8], #-0
    1540:	3a080300 	bcc	202148 <__bss_end__+0x1f7c60>
    1544:	390b3b0b 	stmdbcc	fp, {r0, r1, r3, r8, r9, fp, ip, sp}
    1548:	0213490b 	andseq	r4, r3, #180224	; 0x2c000
    154c:	1742b717 	smlaldne	fp, r2, r7, r7
    1550:	1d190000 	ldcne	0, cr0, [r9, #-0]
    1554:	52133101 	andspl	r3, r3, #1073741824	; 0x40000000
    1558:	0b42b801 	bleq	10af564 <__bss_end__+0x10a507c>
    155c:	06120111 			; <UNDEFINED> instruction: 0x06120111
    1560:	0b590b58 	bleq	16442c8 <__bss_end__+0x1639de0>
    1564:	13010b57 	movwne	r0, #6999	; 0x1b57
    1568:	051a0000 	ldreq	r0, [sl, #-0]
    156c:	02133100 	andseq	r3, r3, #0
    1570:	1742b717 	smlaldne	fp, r2, r7, r7
    1574:	1d1b0000 	ldcne	0, cr0, [fp, #-0]
    1578:	52133101 	andspl	r3, r3, #1073741824	; 0x40000000
    157c:	0b42b801 	bleq	10af588 <__bss_end__+0x10a50a0>
    1580:	0b581755 	bleq	16072dc <__bss_end__+0x15fcdf4>
    1584:	0b570b59 	bleq	15c42f0 <__bss_end__+0x15b9e08>
    1588:	00001301 	andeq	r1, r0, r1, lsl #6
    158c:	55010b1c 	strpl	r0, [r1, #-2844]	; 0xfffff4e4
    1590:	1d000017 	stcne	0, cr0, [r0, #-92]	; 0xffffffa4
    1594:	0e030034 	mcreq	0, 0, r0, cr3, cr4, {1}
    1598:	0b3b0b3a 	bleq	ec4288 <__bss_end__+0xeb9da0>
    159c:	13490b39 	movtne	r0, #39737	; 0x9b39
    15a0:	42b71702 	adcsmi	r1, r7, #524288	; 0x80000
    15a4:	1e000017 	mcrne	0, 0, r0, cr0, cr7, {0}
    15a8:	1755000b 	ldrbne	r0, [r5, -fp]
    15ac:	2e1f0000 	cdpcs	0, 1, cr0, cr15, cr0, {0}
    15b0:	03193f00 	tsteq	r9, #0, 30
    15b4:	3b0b3a0e 	blcc	2cfdf4 <__bss_end__+0x2c590c>
    15b8:	270b390b 	strcs	r3, [fp, -fp, lsl #18]
    15bc:	11134919 	tstne	r3, r9, lsl r9
    15c0:	40061201 	andmi	r1, r6, r1, lsl #4
    15c4:	19429718 	stmdbne	r2, {r3, r4, r8, r9, sl, ip, pc}^
    15c8:	2e200000 	cdpcs	0, 2, cr0, cr0, cr0, {0}
    15cc:	3a0e0301 	bcc	3821d8 <__bss_end__+0x377cf0>
    15d0:	390b3b0b 	stmdbcc	fp, {r0, r1, r3, r8, r9, fp, ip, sp}
    15d4:	4919270b 	ldmdbmi	r9, {r0, r1, r3, r8, r9, sl, sp}
    15d8:	010b2013 	tsteq	fp, r3, lsl r0
    15dc:	21000013 	tstcs	r0, r3, lsl r0
    15e0:	08030005 	stmdaeq	r3, {r0, r2}
    15e4:	0b3b0b3a 	bleq	ec42d4 <__bss_end__+0xeb9dec>
    15e8:	13490b39 	movtne	r0, #39737	; 0x9b39
    15ec:	2e220000 	cdpcs	0, 2, cr0, cr2, cr0, {0}
    15f0:	3c193f00 	ldccc	15, cr3, [r9], {-0}
    15f4:	030e6e19 	movweq	r6, #60953	; 0xee19
    15f8:	3b0b3a0e 	blcc	2cfe38 <__bss_end__+0x2c5950>
    15fc:	000b390b 	andeq	r3, fp, fp, lsl #18
    1600:	11010000 	mrsne	r0, (UNDEF: 1)
    1604:	130e2501 	movwne	r2, #58625	; 0xe501
    1608:	1b0e030b 	blne	38223c <__bss_end__+0x377d54>
    160c:	1201110e 	andne	r1, r1, #-2147483645	; 0x80000003
    1610:	00171006 	andseq	r1, r7, r6
    1614:	00240200 	eoreq	r0, r4, r0, lsl #4
    1618:	0b3e0b0b 	bleq	f8424c <__bss_end__+0xf79d64>
    161c:	00000803 	andeq	r0, r0, r3, lsl #16
    1620:	0b002403 	bleq	a634 <__bss_end__+0x14c>
    1624:	030b3e0b 	movweq	r3, #48651	; 0xbe0b
    1628:	0400000e 	streq	r0, [r0], #-14
    162c:	19270115 	stmdbne	r7!, {r0, r2, r4, r8}
    1630:	13011349 	movwne	r1, #4937	; 0x1349
    1634:	05050000 	streq	r0, [r5, #-0]
    1638:	00134900 	andseq	r4, r3, r0, lsl #18
    163c:	00340600 	eorseq	r0, r4, r0, lsl #12
    1640:	0b3a0e03 	bleq	e84e54 <__bss_end__+0xe7a96c>
    1644:	0b390b3b 	bleq	e44338 <__bss_end__+0xe39e50>
    1648:	193f1349 	ldmdbne	pc!, {r0, r3, r6, r8, r9, ip}	; <UNPREDICTABLE>
    164c:	0000193c 	andeq	r1, r0, ip, lsr r9
    1650:	0b000f07 	bleq	5274 <__code_start__-0x2d8c>
    1654:	0013490b 	andseq	r4, r3, fp, lsl #18
    1658:	00260800 	eoreq	r0, r6, r0, lsl #16
    165c:	00001349 	andeq	r1, r0, r9, asr #6
    1660:	47003409 	strmi	r3, [r0, -r9, lsl #8]
    1664:	3b0b3a13 	blcc	2cfeb8 <__bss_end__+0x2c59d0>
    1668:	020b390b 	andeq	r3, fp, #180224	; 0x2c000
    166c:	0a000018 	beq	16d4 <__code_start__-0x692c>
    1670:	193f012e 	ldmdbne	pc!, {r1, r2, r3, r5, r8}	; <UNPREDICTABLE>
    1674:	0b3a0e03 	bleq	e84e88 <__bss_end__+0xe7a9a0>
    1678:	0b390b3b 	bleq	e4436c <__bss_end__+0xe39e84>
    167c:	01111927 	tsteq	r1, r7, lsr #18
    1680:	18400612 	stmdane	r0, {r1, r4, r9, sl}^
    1684:	01194297 			; <UNDEFINED> instruction: 0x01194297
    1688:	0b000013 	bleq	16dc <__code_start__-0x6924>
    168c:	08030005 	stmdaeq	r3, {r0, r2}
    1690:	0b3b0b3a 	bleq	ec4380 <__bss_end__+0xeb9e98>
    1694:	13490b39 	movtne	r0, #39737	; 0x9b39
    1698:	00001802 	andeq	r1, r0, r2, lsl #16
    169c:	3f002e0c 	svccc	0x00002e0c
    16a0:	3a0e0319 	bcc	38230c <__bss_end__+0x377e24>
    16a4:	390b3b0b 	stmdbcc	fp, {r0, r1, r3, r8, r9, fp, ip, sp}
    16a8:	1119270b 	tstne	r9, fp, lsl #14
    16ac:	40061201 	andmi	r1, r6, r1, lsl #4
    16b0:	19429718 	stmdbne	r2, {r3, r4, r8, r9, sl, ip, pc}^
    16b4:	2e0d0000 	cdpcs	0, 0, cr0, cr13, cr0, {0}
    16b8:	3a0e0301 	bcc	3822c4 <__bss_end__+0x377ddc>
    16bc:	390b3b0b 	stmdbcc	fp, {r0, r1, r3, r8, r9, fp, ip, sp}
    16c0:	4919270b 	ldmdbmi	r9, {r0, r1, r3, r8, r9, sl, sp}
    16c4:	12011113 	andne	r1, r1, #-1073741820	; 0xc0000004
    16c8:	97184006 	ldrls	r4, [r8, -r6]
    16cc:	13011942 	movwne	r1, #6466	; 0x1942
    16d0:	050e0000 	streq	r0, [lr, #-0]
    16d4:	3a080300 	bcc	2022dc <__bss_end__+0x1f7df4>
    16d8:	390b3b0b 	stmdbcc	fp, {r0, r1, r3, r8, r9, fp, ip, sp}
    16dc:	0213490b 	andseq	r4, r3, #180224	; 0x2c000
    16e0:	1742b717 	smlaldne	fp, r2, r7, r7
    16e4:	890f0000 	stmdbhi	pc, {}	; <UNPREDICTABLE>
    16e8:	11010182 	smlabbne	r1, r2, r1, r0
    16ec:	00133101 	andseq	r3, r3, r1, lsl #2
    16f0:	828a1000 	addhi	r1, sl, #0, 0
    16f4:	18020001 	stmdane	r2, {r0}
    16f8:	00184291 	mulseq	r8, r1, r2
    16fc:	002e1100 	eoreq	r1, lr, r0, lsl #2
    1700:	193c193f 	ldmdbne	ip!, {r0, r1, r2, r3, r4, r5, r8, fp, ip}
    1704:	0e030e6e 	cdpeq	14, 0, cr0, cr3, cr14, {3}
    1708:	0b3b0b3a 	bleq	ec43f8 <__bss_end__+0xeb9f10>
    170c:	00000b39 	andeq	r0, r0, r9, lsr fp
    1710:	01110100 	tsteq	r1, r0, lsl #2
    1714:	0b130e25 	bleq	4c4fb0 <__bss_end__+0x4baac8>
    1718:	0e1b0e03 	cdpeq	14, 1, cr0, cr11, cr3, {0}
    171c:	06120111 			; <UNDEFINED> instruction: 0x06120111
    1720:	00001710 	andeq	r1, r0, r0, lsl r7
    1724:	0b002402 	bleq	a734 <__bss_end__+0x24c>
    1728:	030b3e0b 	movweq	r3, #48651	; 0xbe0b
    172c:	03000008 	movweq	r0, #8
    1730:	0b0b0024 	bleq	2c17c8 <__bss_end__+0x2b72e0>
    1734:	0e030b3e 	vmoveq.16	d3[0], r0
    1738:	15040000 	strne	r0, [r4, #-0]
    173c:	49192701 	ldmdbmi	r9, {r0, r8, r9, sl, sp}
    1740:	00130113 	andseq	r0, r3, r3, lsl r1
    1744:	00050500 	andeq	r0, r5, r0, lsl #10
    1748:	00001349 	andeq	r1, r0, r9, asr #6
    174c:	03003406 	movweq	r3, #1030	; 0x406
    1750:	3b0b3a0e 	blcc	2cff90 <__bss_end__+0x2c5aa8>
    1754:	490b390b 	stmdbmi	fp, {r0, r1, r3, r8, fp, ip, sp}
    1758:	3c193f13 	ldccc	15, cr3, [r9], {19}
    175c:	07000019 	smladeq	r0, r9, r0, r0
    1760:	0b0b000f 	bleq	2c17a4 <__bss_end__+0x2b72bc>
    1764:	00001349 	andeq	r1, r0, r9, asr #6
    1768:	49002608 	stmdbmi	r0, {r3, r9, sl, sp}
    176c:	09000013 	stmdbeq	r0, {r0, r1, r4}
    1770:	193f012e 	ldmdbne	pc!, {r1, r2, r3, r5, r8}	; <UNPREDICTABLE>
    1774:	0b3a0e03 	bleq	e84f88 <__bss_end__+0xe7aaa0>
    1778:	0b390b3b 	bleq	e4446c <__bss_end__+0xe39f84>
    177c:	13491927 	movtne	r1, #39207	; 0x9927
    1780:	06120111 			; <UNDEFINED> instruction: 0x06120111
    1784:	42971840 	addsmi	r1, r7, #64, 16	; 0x400000
    1788:	00130119 	andseq	r0, r3, r9, lsl r1
    178c:	00050a00 	andeq	r0, r5, r0, lsl #20
    1790:	0b3a0e03 	bleq	e84fa4 <__bss_end__+0xe7aabc>
    1794:	0b390b3b 	bleq	e44488 <__bss_end__+0xe39fa0>
    1798:	18021349 	stmdane	r2, {r0, r3, r6, r8, r9, ip}
    179c:	050b0000 	streq	r0, [fp, #-0]
    17a0:	3a080300 	bcc	2023a8 <__bss_end__+0x1f7ec0>
    17a4:	390b3b0b 	stmdbcc	fp, {r0, r1, r3, r8, r9, fp, ip, sp}
    17a8:	0213490b 	andseq	r4, r3, #180224	; 0x2c000
    17ac:	1742b717 	smlaldne	fp, r2, r7, r7
    17b0:	340c0000 	strcc	r0, [ip], #-0
    17b4:	3a080300 	bcc	2023bc <__bss_end__+0x1f7ed4>
    17b8:	390b3b0b 	stmdbcc	fp, {r0, r1, r3, r8, r9, fp, ip, sp}
    17bc:	0213490b 	andseq	r4, r3, #180224	; 0x2c000
    17c0:	1742b717 	smlaldne	fp, r2, r7, r7
    17c4:	01000000 	mrseq	r0, (UNDEF: 0)
    17c8:	0e250111 	mcreq	1, 1, r0, cr5, cr1, {0}
    17cc:	0e030b13 	vmoveq.32	d3[0], r0
    17d0:	01110e1b 	tsteq	r1, fp, lsl lr
    17d4:	17100612 			; <UNDEFINED> instruction: 0x17100612
    17d8:	24020000 	strcs	r0, [r2], #-0
    17dc:	3e0b0b00 	vmlacc.f64	d0, d11, d0
    17e0:	0008030b 	andeq	r0, r8, fp, lsl #6
    17e4:	00240300 	eoreq	r0, r4, r0, lsl #6
    17e8:	0b3e0b0b 	bleq	f8441c <__bss_end__+0xf79f34>
    17ec:	00000e03 	andeq	r0, r0, r3, lsl #28
    17f0:	27011504 	strcs	r1, [r1, -r4, lsl #10]
    17f4:	01134919 	tsteq	r3, r9, lsl r9
    17f8:	05000013 	streq	r0, [r0, #-19]	; 0xffffffed
    17fc:	13490005 	movtne	r0, #36869	; 0x9005
    1800:	34060000 	strcc	r0, [r6], #-0
    1804:	3a0e0300 	bcc	38240c <__bss_end__+0x377f24>
    1808:	390b3b0b 	stmdbcc	fp, {r0, r1, r3, r8, r9, fp, ip, sp}
    180c:	3f13490b 	svccc	0x0013490b
    1810:	00193c19 	andseq	r3, r9, r9, lsl ip
    1814:	000f0700 	andeq	r0, pc, r0, lsl #14
    1818:	13490b0b 	movtne	r0, #39691	; 0x9b0b
    181c:	26080000 	strcs	r0, [r8], -r0
    1820:	00134900 	andseq	r4, r3, r0, lsl #18
    1824:	012e0900 			; <UNDEFINED> instruction: 0x012e0900
    1828:	0e03193f 			; <UNDEFINED> instruction: 0x0e03193f
    182c:	0b3b0b3a 	bleq	ec451c <__bss_end__+0xeba034>
    1830:	19270b39 	stmdbne	r7!, {r0, r3, r4, r5, r8, r9, fp}
    1834:	01111349 	tsteq	r1, r9, asr #6
    1838:	18400612 	stmdane	r0, {r1, r4, r9, sl}^
    183c:	00194297 	mulseq	r9, r7, r2
    1840:	00050a00 	andeq	r0, r5, r0, lsl #20
    1844:	0b3a0803 	bleq	e83858 <__bss_end__+0xe79370>
    1848:	0b390b3b 	bleq	e4453c <__bss_end__+0xe3a054>
    184c:	17021349 	strne	r1, [r2, -r9, asr #6]
    1850:	001742b7 			; <UNDEFINED> instruction: 0x001742b7
    1854:	11010000 	mrsne	r0, (UNDEF: 1)
    1858:	130e2501 	movwne	r2, #58625	; 0xe501
    185c:	1b0e030b 	blne	382490 <__bss_end__+0x377fa8>
    1860:	1201110e 	andne	r1, r1, #-2147483645	; 0x80000003
    1864:	00171006 	andseq	r1, r7, r6
    1868:	00240200 	eoreq	r0, r4, r0, lsl #4
    186c:	0b3e0b0b 	bleq	f844a0 <__bss_end__+0xf79fb8>
    1870:	00000803 	andeq	r0, r0, r3, lsl #16
    1874:	0b002403 	bleq	a888 <__bss_end__+0x3a0>
    1878:	030b3e0b 	movweq	r3, #48651	; 0xbe0b
    187c:	0400000e 	streq	r0, [r0], #-14
    1880:	19270115 	stmdbne	r7!, {r0, r2, r4, r8}
    1884:	13011349 	movwne	r1, #4937	; 0x1349
    1888:	05050000 	streq	r0, [r5, #-0]
    188c:	00134900 	andseq	r4, r3, r0, lsl #18
    1890:	00340600 	eorseq	r0, r4, r0, lsl #12
    1894:	0b3a0e03 	bleq	e850a8 <__bss_end__+0xe7abc0>
    1898:	0b390b3b 	bleq	e4458c <__bss_end__+0xe3a0a4>
    189c:	193f1349 	ldmdbne	pc!, {r0, r3, r6, r8, r9, ip}	; <UNPREDICTABLE>
    18a0:	0000193c 	andeq	r1, r0, ip, lsr r9
    18a4:	0b000f07 	bleq	54c8 <__code_start__-0x2b38>
    18a8:	0013490b 	andseq	r4, r3, fp, lsl #18
    18ac:	00260800 	eoreq	r0, r6, r0, lsl #16
    18b0:	00001349 	andeq	r1, r0, r9, asr #6
    18b4:	3f012e09 	svccc	0x00012e09
    18b8:	3a0e0319 	bcc	382524 <__bss_end__+0x37803c>
    18bc:	390b3b0b 	stmdbcc	fp, {r0, r1, r3, r8, r9, fp, ip, sp}
    18c0:	4919270b 	ldmdbmi	r9, {r0, r1, r3, r8, r9, sl, sp}
    18c4:	12011113 	andne	r1, r1, #-1073741820	; 0xc0000004
    18c8:	97184006 	ldrls	r4, [r8, -r6]
    18cc:	13011942 	movwne	r1, #6466	; 0x1942
    18d0:	050a0000 	streq	r0, [sl, #-0]
    18d4:	3a080300 	bcc	2024dc <__bss_end__+0x1f7ff4>
    18d8:	390b3b0b 	stmdbcc	fp, {r0, r1, r3, r8, r9, fp, ip, sp}
    18dc:	0213490b 	andseq	r4, r3, #180224	; 0x2c000
    18e0:	0b000018 	bleq	1948 <__code_start__-0x66b8>
    18e4:	08030005 	stmdaeq	r3, {r0, r2}
    18e8:	0b3b0b3a 	bleq	ec45d8 <__bss_end__+0xeba0f0>
    18ec:	13490b39 	movtne	r0, #39737	; 0x9b39
    18f0:	42b71702 	adcsmi	r1, r7, #524288	; 0x80000
    18f4:	0c000017 	stceq	0, cr0, [r0], {23}
    18f8:	08030034 	stmdaeq	r3, {r2, r4, r5}
    18fc:	0b3b0b3a 	bleq	ec45ec <__bss_end__+0xeba104>
    1900:	13490b39 	movtne	r0, #39737	; 0x9b39
    1904:	42b71702 	adcsmi	r1, r7, #524288	; 0x80000
    1908:	00000017 	andeq	r0, r0, r7, lsl r0
    190c:	25011101 	strcs	r1, [r1, #-257]	; 0xfffffeff
    1910:	030b130e 	movweq	r1, #45838	; 0xb30e
    1914:	110e1b0e 	tstne	lr, lr, lsl #22
    1918:	10061201 	andne	r1, r6, r1, lsl #4
    191c:	02000017 	andeq	r0, r0, #23, 0
    1920:	0b0b0024 	bleq	2c19b8 <__bss_end__+0x2b74d0>
    1924:	08030b3e 	stmdaeq	r3, {r1, r2, r3, r4, r5, r8, r9, fp}
    1928:	16030000 	strne	r0, [r3], -r0
    192c:	3a0e0300 	bcc	382534 <__bss_end__+0x37804c>
    1930:	390b3b0b 	stmdbcc	fp, {r0, r1, r3, r8, r9, fp, ip, sp}
    1934:	0013490b 	andseq	r4, r3, fp, lsl #18
    1938:	00240400 	eoreq	r0, r4, r0, lsl #8
    193c:	0b3e0b0b 	bleq	f84570 <__bss_end__+0xf7a088>
    1940:	00000e03 	andeq	r0, r0, r3, lsl #28
    1944:	49002605 	stmdbmi	r0, {r0, r2, r9, sl, sp}
    1948:	06000013 			; <UNDEFINED> instruction: 0x06000013
    194c:	19270115 	stmdbne	r7!, {r0, r2, r4, r8}
    1950:	13011349 	movwne	r1, #4937	; 0x1349
    1954:	05070000 	streq	r0, [r7, #-0]
    1958:	00134900 	andseq	r4, r3, r0, lsl #18
    195c:	00340800 	eorseq	r0, r4, r0, lsl #16
    1960:	0b3a0e03 	bleq	e85174 <__bss_end__+0xe7ac8c>
    1964:	0b390b3b 	bleq	e44658 <__bss_end__+0xe3a170>
    1968:	193f1349 	ldmdbne	pc!, {r0, r3, r6, r8, r9, ip}	; <UNPREDICTABLE>
    196c:	0000193c 	andeq	r1, r0, ip, lsr r9
    1970:	0b000f09 	bleq	559c <__code_start__-0x2a64>
    1974:	0013490b 	andseq	r4, r3, fp, lsl #18
    1978:	012e0a00 			; <UNDEFINED> instruction: 0x012e0a00
    197c:	0e03193f 			; <UNDEFINED> instruction: 0x0e03193f
    1980:	0b3b0b3a 	bleq	ec4670 <__bss_end__+0xeba188>
    1984:	19270b39 	stmdbne	r7!, {r0, r3, r4, r5, r8, r9, fp}
    1988:	01111349 	tsteq	r1, r9, asr #6
    198c:	18400612 	stmdane	r0, {r1, r4, r9, sl}^
    1990:	01194297 			; <UNDEFINED> instruction: 0x01194297
    1994:	0b000013 	bleq	19e8 <__code_start__-0x6618>
    1998:	08030005 	stmdaeq	r3, {r0, r2}
    199c:	0b3b0b3a 	bleq	ec468c <__bss_end__+0xeba1a4>
    19a0:	13490b39 	movtne	r0, #39737	; 0x9b39
    19a4:	42b71702 	adcsmi	r1, r7, #524288	; 0x80000
    19a8:	0c000017 	stceq	0, cr0, [r0], {23}
    19ac:	08030034 	stmdaeq	r3, {r2, r4, r5}
    19b0:	0b3b0b3a 	bleq	ec46a0 <__bss_end__+0xeba1b8>
    19b4:	13490b39 	movtne	r0, #39737	; 0x9b39
    19b8:	42b71702 	adcsmi	r1, r7, #524288	; 0x80000
    19bc:	00000017 	andeq	r0, r0, r7, lsl r0
    19c0:	25011101 	strcs	r1, [r1, #-257]	; 0xfffffeff
    19c4:	030b130e 	movweq	r1, #45838	; 0xb30e
    19c8:	110e1b0e 	tstne	lr, lr, lsl #22
    19cc:	10061201 	andne	r1, r6, r1, lsl #4
    19d0:	02000017 	andeq	r0, r0, #23, 0
    19d4:	0b0b0024 	bleq	2c1a6c <__bss_end__+0x2b7584>
    19d8:	08030b3e 	stmdaeq	r3, {r1, r2, r3, r4, r5, r8, r9, fp}
    19dc:	24030000 	strcs	r0, [r3], #-0
    19e0:	3e0b0b00 	vmlacc.f64	d0, d11, d0
    19e4:	000e030b 	andeq	r0, lr, fp, lsl #6
    19e8:	01150400 	tsteq	r5, r0, lsl #8
    19ec:	13491927 	movtne	r1, #39207	; 0x9927
    19f0:	00001301 	andeq	r1, r0, r1, lsl #6
    19f4:	49000505 	stmdbmi	r0, {r0, r2, r8, sl}
    19f8:	06000013 			; <UNDEFINED> instruction: 0x06000013
    19fc:	0e030034 	mcreq	0, 0, r0, cr3, cr4, {1}
    1a00:	0b3b0b3a 	bleq	ec46f0 <__bss_end__+0xeba208>
    1a04:	13490b39 	movtne	r0, #39737	; 0x9b39
    1a08:	193c193f 	ldmdbne	ip!, {r0, r1, r2, r3, r4, r5, r8, fp, ip}
    1a0c:	0f070000 	svceq	0x00070000
    1a10:	490b0b00 	stmdbmi	fp, {r8, r9, fp}
    1a14:	08000013 	stmdaeq	r0, {r0, r1, r4}
    1a18:	13490026 	movtne	r0, #36902	; 0x9026
    1a1c:	2e090000 	cdpcs	0, 0, cr0, cr9, cr0, {0}
    1a20:	03193f00 	tsteq	r9, #0, 30
    1a24:	3b0b3a0e 	blcc	2d0264 <__bss_end__+0x2c5d7c>
    1a28:	270b390b 	strcs	r3, [fp, -fp, lsl #18]
    1a2c:	12011119 	andne	r1, r1, #1073741830	; 0x40000006
    1a30:	97184006 	ldrls	r4, [r8, -r6]
    1a34:	00001942 	andeq	r1, r0, r2, asr #18
	...

Disassembly of section .debug_loc:

00000000 <.debug_loc>:
       0:	00000000 	andeq	r0, r0, r0
       4:	00000028 	andeq	r0, r0, r8, lsr #32
       8:	0000002c 	andeq	r0, r0, ip, lsr #32
       c:	2c500001 	mrrccs	0, 0, r0, r0, cr1	; <UNPREDICTABLE>
      10:	b4000000 	strlt	r0, [r0], #-0
      14:	01000000 	mrseq	r0, (UNDEF: 0)
      18:	00005600 	andeq	r5, r0, r0, lsl #12
      1c:	00000000 	andeq	r0, r0, r0
      20:	00010000 	andeq	r0, r1, r0
      24:	00000000 	andeq	r0, r0, r0
      28:	01010100 	mrseq	r0, (UNDEF: 17)
      2c:	00000001 	andeq	r0, r0, r1
      30:	00000028 	andeq	r0, r0, r8, lsr #32
      34:	0000002c 	andeq	r0, r0, ip, lsr #32
      38:	9f300002 	svcls	0x00300002
      3c:	0000002c 	andeq	r0, r0, ip, lsr #32
      40:	00000038 	andeq	r0, r0, r8, lsr r0
      44:	4c910002 	ldcmi	0, cr0, [r1], {2}
      48:	00000038 	andeq	r0, r0, r8, lsr r0
      4c:	00000044 	andeq	r0, r0, r4, asr #32
      50:	44590001 	ldrbmi	r0, [r9], #-1
      54:	8c000000 	stchi	0, cr0, [r0], {-0}
      58:	01000000 	mrseq	r0, (UNDEF: 0)
      5c:	008c5500 	addeq	r5, ip, r0, lsl #10
      60:	00a40000 	adceq	r0, r4, r0
      64:	00010000 	andeq	r0, r1, r0
      68:	0000a459 	andeq	sl, r0, r9, asr r4
      6c:	0000b700 	andeq	fp, r0, r0, lsl #14
      70:	53000100 	movwpl	r0, #256	; 0x100
      74:	000000b7 	strheq	r0, [r0], -r7
      78:	000000bc 	strheq	r0, [r0], -ip
      7c:	4c910002 	ldcmi	0, cr0, [r1], {2}
	...
      88:	00000003 	andeq	r0, r0, r3
      8c:	00010100 	andeq	r0, r1, r0, lsl #2
      90:	00000028 	andeq	r0, r0, r8, lsr #32
      94:	0000002c 	andeq	r0, r0, ip, lsr #32
      98:	9f300002 	svcls	0x00300002
      9c:	0000002c 	andeq	r0, r0, ip, lsr #32
      a0:	00000098 	muleq	r0, r8, r0
      a4:	985a0001 	ldmdals	sl, {r0}^
      a8:	a4000000 	strge	r0, [r0], #-0
      ac:	03000000 	movweq	r0, #0
      b0:	9f7b7a00 	svcls	0x007b7a00
      b4:	000000a4 	andeq	r0, r0, r4, lsr #1
      b8:	000000b4 	strheq	r0, [r0], -r4
      bc:	005a0001 	subseq	r0, sl, r1
	...
      cc:	2c000101 	stfcss	f0, [r0], {1}
      d0:	38000000 	stmdacc	r0, {}	; <UNPREDICTABLE>
      d4:	02000000 	andeq	r0, r0, #0, 0
      d8:	389f3000 	ldmcc	pc, {ip, sp}	; <UNPREDICTABLE>
      dc:	84000000 	strhi	r0, [r0], #-0
      e0:	01000000 	mrseq	r0, (UNDEF: 0)
      e4:	00845800 	addeq	r5, r4, r0, lsl #16
      e8:	008c0000 	addeq	r0, ip, r0
      ec:	00030000 	andeq	r0, r3, r0
      f0:	8c9f7b78 	vldmiahi	pc, {d7-<overflow reg d66>}
      f4:	b4000000 	strlt	r0, [r0], #-0
      f8:	01000000 	mrseq	r0, (UNDEF: 0)
      fc:	00005800 	andeq	r5, r0, r0, lsl #16
	...
     108:	02000000 	andeq	r0, r0, #0, 0
     10c:	00380002 	eorseq	r0, r8, r2
     110:	00440000 	subeq	r0, r4, r0
     114:	00020000 	andeq	r0, r2, r0
     118:	00449f30 	subeq	r9, r4, r0, lsr pc
     11c:	006c0000 	rsbeq	r0, ip, r0
     120:	00010000 	andeq	r0, r1, r0
     124:	00006c54 	andeq	r6, r0, r4, asr ip
     128:	00007c00 	andeq	r7, r0, r0, lsl #24
     12c:	74000300 	strvc	r0, [r0], #-768	; 0xfffffd00
     130:	007c9f7b 	rsbseq	r9, ip, fp, ror pc
     134:	00b40000 	adcseq	r0, r4, r0
     138:	00010000 	andeq	r0, r1, r0
     13c:	00000054 	andeq	r0, r0, r4, asr r0
	...
     148:	00062000 	andeq	r2, r6, r0
     14c:	00062800 	andeq	r2, r6, r0, lsl #16
     150:	51000100 	mrspl	r0, (UNDEF: 16)
     154:	00000628 	andeq	r0, r0, r8, lsr #12
     158:	00000640 	andeq	r0, r0, r0, asr #12
     15c:	01f30004 	mvnseq	r0, r4
     160:	00009f51 	andeq	r9, r0, r1, asr pc
	...
     16c:	05300000 	ldreq	r0, [r0, #-0]!
     170:	061b0000 	ldreq	r0, [fp], -r0
     174:	00010000 	andeq	r0, r1, r0
     178:	00061b50 	andeq	r1, r6, r0, asr fp
     17c:	00062000 	andeq	r2, r6, r0
     180:	f3000400 	vshl.u8	d0, d0, d0
     184:	009f5001 	addseq	r5, pc, r1
	...
     190:	38000000 	stmdacc	r0, {}	; <UNPREDICTABLE>
     194:	18000005 	stmdane	r0, {r0, r2}
     198:	01000006 	tsteq	r0, r6
     19c:	06185400 	ldreq	r5, [r8], -r0, lsl #8
     1a0:	061b0000 	ldreq	r0, [fp], -r0
     1a4:	00020000 	andeq	r0, r2, r0
     1a8:	00000470 	andeq	r0, r0, r0, ror r4
	...
     1b4:	05380000 	ldreq	r0, [r8, #-0]!
     1b8:	061b0000 	ldreq	r0, [fp], -r0
     1bc:	00010000 	andeq	r0, r1, r0
     1c0:	00061b50 	andeq	r1, r6, r0, asr fp
     1c4:	00062000 	andeq	r2, r6, r0
     1c8:	f3000400 	vshl.u8	d0, d0, d0
     1cc:	009f5001 	addseq	r5, pc, r1
     1d0:	00000000 	andeq	r0, r0, r0
     1d4:	01000000 	mrseq	r0, (UNDEF: 0)
     1d8:	38000000 	stmdacc	r0, {}	; <UNPREDICTABLE>
     1dc:	54000005 	strpl	r0, [r0], #-5
     1e0:	02000005 	andeq	r0, r0, #5, 0
     1e4:	549f3000 	ldrpl	r3, [pc], #0	; 1ec <__code_start__-0x7e14>
     1e8:	14000005 	strne	r0, [r0], #-5
     1ec:	01000006 	tsteq	r0, r6
     1f0:	00005e00 	andeq	r5, r0, r0, lsl #28
     1f4:	00000000 	andeq	r0, r0, r0
     1f8:	00020000 	andeq	r0, r2, r0
     1fc:	00000554 	andeq	r0, r0, r4, asr r5
     200:	00000608 	andeq	r0, r0, r8, lsl #12
     204:	9f300002 	svcls	0x00300002
	...
     210:	05540004 	ldrbeq	r0, [r4, #-4]
     214:	05940000 	ldreq	r0, [r4]
     218:	00020000 	andeq	r0, r2, r0
     21c:	00009f30 	andeq	r9, r0, r0, lsr pc
     220:	00000000 	andeq	r0, r0, r0
     224:	00070000 	andeq	r0, r7, r0
     228:	00000554 	andeq	r0, r0, r4, asr r5
     22c:	00000558 	andeq	r0, r0, r8, asr r5
     230:	9f300002 	svcls	0x00300002
	...
     23c:	05580001 	ldrbeq	r0, [r8, #-1]
     240:	05880000 	streq	r0, [r8]
     244:	00020000 	andeq	r0, r2, r0
     248:	00009f30 	andeq	r9, r0, r0, lsr pc
     24c:	00000000 	andeq	r0, r0, r0
     250:	00060000 	andeq	r0, r6, r0
     254:	00000558 	andeq	r0, r0, r8, asr r5
     258:	00000570 	andeq	r0, r0, r0, ror r5
     25c:	f5080003 			; <UNDEFINED> instruction: 0xf5080003
     260:	0000009f 	muleq	r0, pc, r0	; <UNPREDICTABLE>
     264:	00000000 	andeq	r0, r0, r0
     268:	5c000100 	stfpls	f0, [r0], {-0}
     26c:	74000005 	strvc	r0, [r0], #-5
     270:	01000005 	tsteq	r0, r5
     274:	00005500 	andeq	r5, r0, r0, lsl #10
	...
     280:	0000055c 	andeq	r0, r0, ip, asr r5
     284:	00000570 	andeq	r0, r0, r0, ror r5
     288:	00550001 	subseq	r0, r5, r1
     28c:	00000000 	andeq	r0, r0, r0
     290:	01000000 	mrseq	r0, (UNDEF: 0)
     294:	00056400 	andeq	r6, r5, r0, lsl #8
     298:	00056800 	andeq	r6, r5, r0, lsl #16
     29c:	5c000100 	stfpls	f0, [r0], {-0}
	...
     2a8:	05640000 	strbeq	r0, [r4, #-0]!
     2ac:	05680000 	strbeq	r0, [r8, #-0]!
     2b0:	00010000 	andeq	r0, r1, r0
     2b4:	0000005c 	andeq	r0, r0, ip, asr r0
     2b8:	00000000 	andeq	r0, r0, r0
     2bc:	70000400 	andvc	r0, r0, r0, lsl #8
     2c0:	88000005 	stmdahi	r0, {r0, r2}
     2c4:	04000005 	streq	r0, [r0], #-5
     2c8:	02760a00 	rsbseq	r0, r6, #0, 20
     2cc:	0000009f 	muleq	r0, pc, r0	; <UNPREDICTABLE>
     2d0:	00000000 	andeq	r0, r0, r0
     2d4:	74000100 	strvc	r0, [r0], #-256	; 0xffffff00
     2d8:	94000005 	strls	r0, [r0], #-5
     2dc:	01000005 	tsteq	r0, r5
     2e0:	00005500 	andeq	r5, r0, r0, lsl #10
	...
     2ec:	00000574 	andeq	r0, r0, r4, ror r5
     2f0:	00000588 	andeq	r0, r0, r8, lsl #11
     2f4:	00550001 	subseq	r0, r5, r1
     2f8:	00000000 	andeq	r0, r0, r0
     2fc:	01000000 	mrseq	r0, (UNDEF: 0)
     300:	00057c00 	andeq	r7, r5, r0, lsl #24
     304:	00058000 	andeq	r8, r5, r0
     308:	5c000100 	stfpls	f0, [r0], {-0}
	...
     314:	057c0000 	ldrbeq	r0, [ip, #-0]!
     318:	05800000 	streq	r0, [r0]
     31c:	00010000 	andeq	r0, r1, r0
     320:	0000005c 	andeq	r0, r0, ip, asr r0
     324:	00000000 	andeq	r0, r0, r0
     328:	94000200 	strls	r0, [r0], #-512	; 0xfffffe00
     32c:	c4000005 	strgt	r0, [r0], #-5
     330:	02000005 	andeq	r0, r0, #5, 0
     334:	009f3000 	addseq	r3, pc, r0
     338:	00000000 	andeq	r0, r0, r0
     33c:	07000000 	streq	r0, [r0, -r0]
     340:	00059400 	andeq	r9, r5, r0, lsl #8
     344:	0005ac00 	andeq	sl, r5, r0, lsl #24
     348:	08000300 	stmdaeq	r0, {r8, r9}
     34c:	00009ff5 	strdeq	r9, [r0], -r5
     350:	00000000 	andeq	r0, r0, r0
     354:	00010000 	andeq	r0, r1, r0
     358:	00000598 	muleq	r0, r8, r5
     35c:	000005b0 			; <UNDEFINED> instruction: 0x000005b0
     360:	00550001 	subseq	r0, r5, r1
	...
     36c:	00059800 	andeq	r9, r5, r0, lsl #16
     370:	0005ac00 	andeq	sl, r5, r0, lsl #24
     374:	55000100 	strpl	r0, [r0, #-256]	; 0xffffff00
	...
     380:	05a00001 	streq	r0, [r0, #1]!
     384:	05a40000 	streq	r0, [r4, #0]!
     388:	00010000 	andeq	r0, r1, r0
     38c:	0000005c 	andeq	r0, r0, ip, asr r0
     390:	00000000 	andeq	r0, r0, r0
     394:	a0000000 	andge	r0, r0, r0
     398:	a4000005 	strge	r0, [r0], #-5
     39c:	01000005 	tsteq	r0, r5
     3a0:	00005c00 	andeq	r5, r0, r0, lsl #24
     3a4:	00000000 	andeq	r0, r0, r0
     3a8:	00040000 	andeq	r0, r4, r0
     3ac:	000005ac 	andeq	r0, r0, ip, lsr #11
     3b0:	000005c4 	andeq	r0, r0, r4, asr #11
     3b4:	760a0004 	strvc	r0, [sl], -r4
     3b8:	00009f02 	andeq	r9, r0, r2, lsl #30
     3bc:	00000000 	andeq	r0, r0, r0
     3c0:	00010000 	andeq	r0, r1, r0
     3c4:	000005b0 			; <UNDEFINED> instruction: 0x000005b0
     3c8:	000005d0 	ldrdeq	r0, [r0], -r0	; <UNPREDICTABLE>
     3cc:	00550001 	subseq	r0, r5, r1
	...
     3d8:	0005b000 	andeq	fp, r5, r0
     3dc:	0005c400 	andeq	ip, r5, r0, lsl #8
     3e0:	55000100 	strpl	r0, [r0, #-256]	; 0xffffff00
	...
     3ec:	05b80001 	ldreq	r0, [r8, #1]!
     3f0:	05bc0000 	ldreq	r0, [ip, #0]!
     3f4:	00010000 	andeq	r0, r1, r0
     3f8:	0000005c 	andeq	r0, r0, ip, asr r0
     3fc:	00000000 	andeq	r0, r0, r0
     400:	b8000000 	stmdalt	r0, {}	; <UNPREDICTABLE>
     404:	bc000005 	stclt	0, cr0, [r0], {5}
     408:	01000005 	tsteq	r0, r5
     40c:	00005c00 	andeq	r5, r0, r0, lsl #24
     410:	00000000 	andeq	r0, r0, r0
     414:	00020000 	andeq	r0, r2, r0
     418:	000005d0 	ldrdeq	r0, [r0], -r0	; <UNPREDICTABLE>
     41c:	00000600 	andeq	r0, r0, r0, lsl #12
     420:	9f300002 	svcls	0x00300002
	...
     42c:	05d00007 	ldrbeq	r0, [r0, #7]
     430:	05e80000 	strbeq	r0, [r8, #0]!
     434:	00030000 	andeq	r0, r3, r0
     438:	009ff508 	addseq	pc, pc, r8, lsl #10
     43c:	00000000 	andeq	r0, r0, r0
     440:	01000000 	mrseq	r0, (UNDEF: 0)
     444:	0005d400 	andeq	sp, r5, r0, lsl #8
     448:	0005ec00 	andeq	lr, r5, r0, lsl #24
     44c:	55000100 	strpl	r0, [r0, #-256]	; 0xffffff00
	...
     458:	05d40000 	ldrbeq	r0, [r4]
     45c:	05e80000 	strbeq	r0, [r8, #0]!
     460:	00010000 	andeq	r0, r1, r0
     464:	00000055 	andeq	r0, r0, r5, asr r0
     468:	00000000 	andeq	r0, r0, r0
     46c:	dc000100 	stfles	f0, [r0], {-0}
     470:	e0000005 	and	r0, r0, r5
     474:	01000005 	tsteq	r0, r5
     478:	00005c00 	andeq	r5, r0, r0, lsl #24
	...
     484:	000005dc 	ldrdeq	r0, [r0], -ip
     488:	000005e0 	andeq	r0, r0, r0, ror #11
     48c:	005c0001 	subseq	r0, ip, r1
     490:	00000000 	andeq	r0, r0, r0
     494:	04000000 	streq	r0, [r0], #-0
     498:	0005e800 	andeq	lr, r5, r0, lsl #16
     49c:	00060000 	andeq	r0, r6, r0
     4a0:	0a000400 	beq	14a8 <__code_start__-0x6b58>
     4a4:	009f0276 	addseq	r0, pc, r6, ror r2	; <UNPREDICTABLE>
     4a8:	00000000 	andeq	r0, r0, r0
     4ac:	01000000 	mrseq	r0, (UNDEF: 0)
     4b0:	0005ec00 	andeq	lr, r5, r0, lsl #24
     4b4:	00061400 	andeq	r1, r6, r0, lsl #8
     4b8:	55000100 	strpl	r0, [r0, #-256]	; 0xffffff00
	...
     4c4:	05ec0000 	strbeq	r0, [ip, #0]!
     4c8:	06000000 	streq	r0, [r0], -r0
     4cc:	00010000 	andeq	r0, r1, r0
     4d0:	00000055 	andeq	r0, r0, r5, asr r0
     4d4:	00000000 	andeq	r0, r0, r0
     4d8:	f4000100 	vst4.8	{d0,d2,d4,d6}, [r0], r0
     4dc:	f8000005 			; <UNDEFINED> instruction: 0xf8000005
     4e0:	01000005 	tsteq	r0, r5
     4e4:	00005c00 	andeq	r5, r0, r0, lsl #24
	...
     4f0:	000005f4 	strdeq	r0, [r0], -r4
     4f4:	000005f8 	strdeq	r0, [r0], -r8
     4f8:	005c0001 	subseq	r0, ip, r1
	...
     504:	70000000 	andvc	r0, r0, r0
     508:	80000002 	andhi	r0, r0, r2
     50c:	01000002 	tsteq	r0, r2
     510:	02805000 	addeq	r5, r0, #0, 0
     514:	04340000 	ldrteq	r0, [r4], #-0
     518:	00040000 	andeq	r0, r4, r0
     51c:	9f5001f3 	svcls	0x005001f3
	...
     52c:	02700000 	rsbseq	r0, r0, #0, 0
     530:	03240000 			; <UNDEFINED> instruction: 0x03240000
     534:	00010000 	andeq	r0, r1, r0
     538:	00032451 	andeq	r2, r3, r1, asr r4
     53c:	0003b000 	andeq	fp, r3, r0
     540:	f3000400 	vshl.u8	d0, d0, d0
     544:	b09f5101 	addslt	r5, pc, r1, lsl #2
     548:	34000003 	strcc	r0, [r0], #-3
     54c:	01000004 	tsteq	r0, r4
     550:	00005100 	andeq	r5, r0, r0, lsl #2
	...
     560:	00000270 	andeq	r0, r0, r0, ror r2
     564:	000002d8 	ldrdeq	r0, [r0], -r8
     568:	d8520001 	ldmdale	r2, {r0}^
     56c:	f0000002 			; <UNDEFINED> instruction: 0xf0000002
     570:	04000003 	streq	r0, [r0], #-3
     574:	5201f300 	andpl	pc, r1, #0, 6
     578:	0003f09f 	muleq	r3, pc, r0	; <UNPREDICTABLE>
     57c:	00043400 	andeq	r3, r4, r0, lsl #8
     580:	52000100 	andpl	r0, r0, #0
	...
     58c:	02780000 	rsbseq	r0, r8, #0, 0
     590:	04340000 	ldrteq	r0, [r4], #-0
     594:	00010000 	andeq	r0, r1, r0
     598:	00000053 	andeq	r0, r0, r3, asr r0
	...
     5a4:	78000000 	stmdavc	r0, {}	; <UNPREDICTABLE>
     5a8:	d8000002 	stmdale	r0, {r1}
     5ac:	01000002 	tsteq	r0, r2
     5b0:	02d85200 	sbcseq	r5, r8, #0, 4
     5b4:	03f00000 	mvnseq	r0, #0, 0
     5b8:	00040000 	andeq	r0, r4, r0
     5bc:	9f5201f3 	svcls	0x005201f3
     5c0:	000003f0 	strdeq	r0, [r0], -r0	; <UNPREDICTABLE>
     5c4:	00000434 	andeq	r0, r0, r4, lsr r4
     5c8:	00520001 	subseq	r0, r2, r1
	...
     5d8:	00027800 	andeq	r7, r2, r0, lsl #16
     5dc:	00032400 	andeq	r2, r3, r0, lsl #8
     5e0:	51000100 	mrspl	r0, (UNDEF: 16)
     5e4:	00000324 	andeq	r0, r0, r4, lsr #6
     5e8:	000003b0 			; <UNDEFINED> instruction: 0x000003b0
     5ec:	01f30004 	mvnseq	r0, r4
     5f0:	03b09f51 	movseq	r9, #324	; 0x144
     5f4:	04340000 	ldrteq	r0, [r4], #-0
     5f8:	00010000 	andeq	r0, r1, r0
     5fc:	00000051 	andeq	r0, r0, r1, asr r0
     600:	00000000 	andeq	r0, r0, r0
     604:	00000200 	andeq	r0, r0, r0, lsl #4
     608:	00027000 	andeq	r7, r2, r0
     60c:	00028000 	andeq	r8, r2, r0
     610:	70000800 	andvc	r0, r0, r0, lsl #16
     614:	08019400 	stmdaeq	r1, {sl, ip, pc}
     618:	809f1aff 			; <UNDEFINED> instruction: 0x809f1aff
     61c:	88000002 	stmdahi	r0, {r1}
     620:	09000002 	stmdbeq	r0, {r1}
     624:	5001f300 	andpl	pc, r1, r0, lsl #6
     628:	ff080194 			; <UNDEFINED> instruction: 0xff080194
     62c:	00009f1a 	andeq	r9, r0, sl, lsl pc
     630:	00000000 	andeq	r0, r0, r0
     634:	00030000 	andeq	r0, r3, r0
     638:	02780000 	rsbseq	r0, r8, #0, 0
     63c:	02d80000 	sbcseq	r0, r8, #0, 0
     640:	00010000 	andeq	r0, r1, r0
     644:	0003f052 	andeq	pc, r3, r2, asr r0	; <UNPREDICTABLE>
     648:	00043400 	andeq	r3, r4, r0, lsl #8
     64c:	52000100 	andpl	r0, r0, #0
	...
     658:	00000003 	andeq	r0, r0, r3
     65c:	00000278 	andeq	r0, r0, r8, ror r2
     660:	00000280 	andeq	r0, r0, r0, lsl #5
     664:	00700008 	rsbseq	r0, r0, r8
     668:	ff080194 			; <UNDEFINED> instruction: 0xff080194
     66c:	02809f1a 	addeq	r9, r0, #104	; 0x68
     670:	02880000 	addeq	r0, r8, #0, 0
     674:	00010000 	andeq	r0, r1, r0
     678:	00000050 	andeq	r0, r0, r0, asr r0
     67c:	00000000 	andeq	r0, r0, r0
     680:	00000600 	andeq	r0, r0, r0, lsl #12
     684:	78000000 	stmdavc	r0, {}	; <UNPREDICTABLE>
     688:	88000002 	stmdahi	r0, {r1}
     68c:	02000002 	andeq	r0, r0, #2, 0
     690:	889f3000 	ldmhi	pc, {ip, sp}	; <UNPREDICTABLE>
     694:	d8000002 	stmdale	r0, {r1}
     698:	01000002 	tsteq	r0, r2
     69c:	03f05e00 	mvnseq	r5, #0, 28
     6a0:	04340000 	ldrteq	r0, [r4], #-0
     6a4:	00010000 	andeq	r0, r1, r0
     6a8:	0000005e 	andeq	r0, r0, lr, asr r0
     6ac:	00000000 	andeq	r0, r0, r0
     6b0:	00000200 	andeq	r0, r0, r0, lsl #4
     6b4:	00028800 	andeq	r8, r2, r0, lsl #16
     6b8:	0002c400 	andeq	ip, r2, r0, lsl #8
     6bc:	72000800 	andvc	r0, r0, #0, 16
     6c0:	26007e00 	strcs	r7, [r0], -r0, lsl #28
     6c4:	f09f1a31 			; <UNDEFINED> instruction: 0xf09f1a31
     6c8:	20000003 	andcs	r0, r0, r3
     6cc:	08000004 	stmdaeq	r0, {r2}
     6d0:	7e007200 	cdpvc	2, 0, cr7, cr0, cr0, {0}
     6d4:	1a312600 	bne	c49edc <__bss_end__+0xc3f9f4>
     6d8:	0000009f 	muleq	r0, pc, r0	; <UNPREDICTABLE>
     6dc:	00000000 	andeq	r0, r0, r0
     6e0:	f0000400 			; <UNDEFINED> instruction: 0xf0000400
     6e4:	08000003 	stmdaeq	r0, {r0, r1}
     6e8:	03000004 	movweq	r0, #4
     6ec:	9ff50800 	svcls	0x00f50800
	...
     6f8:	03f40001 	mvnseq	r0, #1, 0
     6fc:	040c0000 	streq	r0, [ip], #-0
     700:	00010000 	andeq	r0, r1, r0
     704:	00000055 	andeq	r0, r0, r5, asr r0
     708:	00000000 	andeq	r0, r0, r0
     70c:	f4000000 	vst4.8	{d0-d3}, [r0], r0
     710:	08000003 	stmdaeq	r0, {r0, r1}
     714:	01000004 	tsteq	r0, r4
     718:	00005500 	andeq	r5, r0, r0, lsl #10
     71c:	00000000 	andeq	r0, r0, r0
     720:	00010000 	andeq	r0, r1, r0
     724:	000003fc 	strdeq	r0, [r0], -ip
     728:	00000400 	andeq	r0, r0, r0, lsl #8
     72c:	00540001 	subseq	r0, r4, r1
	...
     738:	0003fc00 	andeq	pc, r3, r0, lsl #24
     73c:	00040000 	andeq	r0, r4, r0
     740:	54000100 	strpl	r0, [r0], #-256	; 0xffffff00
	...
     74c:	02940003 	addseq	r0, r4, #3, 0
     750:	02ac0000 	adceq	r0, ip, #0, 0
     754:	00040000 	andeq	r0, r4, r0
     758:	9f02760a 	svcls	0x0002760a
	...
     764:	02980001 	addseq	r0, r8, #1, 0
     768:	02b00000 	adcseq	r0, r0, #0, 0
     76c:	00010000 	andeq	r0, r1, r0
     770:	00000055 	andeq	r0, r0, r5, asr r0
     774:	00000000 	andeq	r0, r0, r0
     778:	98000000 	stmdals	r0, {}	; <UNPREDICTABLE>
     77c:	ac000002 	stcge	0, cr0, [r0], {2}
     780:	01000002 	tsteq	r0, r2
     784:	00005500 	andeq	r5, r0, r0, lsl #10
     788:	00000000 	andeq	r0, r0, r0
     78c:	00010000 	andeq	r0, r1, r0
     790:	000002a0 	andeq	r0, r0, r0, lsr #5
     794:	000002a4 	andeq	r0, r0, r4, lsr #5
     798:	00540001 	subseq	r0, r4, r1
	...
     7a4:	0002a000 	andeq	sl, r2, r0
     7a8:	0002a400 	andeq	sl, r2, r0, lsl #8
     7ac:	54000100 	strpl	r0, [r0], #-256	; 0xffffff00
	...
     7b8:	02ac0004 	adceq	r0, ip, #4, 0
     7bc:	02c40000 	sbceq	r0, r4, #0, 0
     7c0:	00030000 	andeq	r0, r3, r0
     7c4:	009ff508 	addseq	pc, pc, r8, lsl #10
     7c8:	00000000 	andeq	r0, r0, r0
     7cc:	01000000 	mrseq	r0, (UNDEF: 0)
     7d0:	0002b000 	andeq	fp, r2, r0
     7d4:	0002d000 	andeq	sp, r2, r0
     7d8:	55000100 	strpl	r0, [r0, #-256]	; 0xffffff00
	...
     7e4:	02b00000 	adcseq	r0, r0, #0, 0
     7e8:	02c40000 	sbceq	r0, r4, #0, 0
     7ec:	00010000 	andeq	r0, r1, r0
     7f0:	00000055 	andeq	r0, r0, r5, asr r0
     7f4:	00000000 	andeq	r0, r0, r0
     7f8:	b8000100 	stmdalt	r0, {r8}
     7fc:	bc000002 	stclt	0, cr0, [r0], {2}
     800:	01000002 	tsteq	r0, r2
     804:	00005400 	andeq	r5, r0, r0, lsl #8
	...
     810:	000002b8 			; <UNDEFINED> instruction: 0x000002b8
     814:	000002bc 			; <UNDEFINED> instruction: 0x000002bc
     818:	00540001 	subseq	r0, r4, r1
     81c:	00000000 	andeq	r0, r0, r0
     820:	04000000 	streq	r0, [r0], #-0
     824:	00040800 	andeq	r0, r4, r0, lsl #16
     828:	00042000 	andeq	r2, r4, r0
     82c:	0a000400 	beq	1834 <__code_start__-0x67cc>
     830:	009f0276 	addseq	r0, pc, r6, ror r2	; <UNPREDICTABLE>
     834:	00000000 	andeq	r0, r0, r0
     838:	01000000 	mrseq	r0, (UNDEF: 0)
     83c:	00040c00 	andeq	r0, r4, r0, lsl #24
     840:	00043400 	andeq	r3, r4, r0, lsl #8
     844:	55000100 	strpl	r0, [r0, #-256]	; 0xffffff00
	...
     850:	040c0000 	streq	r0, [ip], #-0
     854:	04200000 	strteq	r0, [r0], #-0
     858:	00010000 	andeq	r0, r1, r0
     85c:	00000055 	andeq	r0, r0, r5, asr r0
     860:	00000000 	andeq	r0, r0, r0
     864:	14000100 	strne	r0, [r0], #-256	; 0xffffff00
     868:	18000004 	stmdane	r0, {r2}
     86c:	01000004 	tsteq	r0, r4
     870:	00005400 	andeq	r5, r0, r0, lsl #8
	...
     87c:	00000414 	andeq	r0, r0, r4, lsl r4
     880:	00000418 	andeq	r0, r0, r8, lsl r4
     884:	00540001 	subseq	r0, r4, r1
	...
     890:	d8000000 	stmdale	r0, {}	; <UNPREDICTABLE>
     894:	20000002 	andcs	r0, r0, r2
     898:	01000003 	tsteq	r0, r3
     89c:	03b05c00 	movseq	r5, #0, 24
     8a0:	03f00000 	mvnseq	r0, #0, 0
     8a4:	00010000 	andeq	r0, r1, r0
     8a8:	0000005c 	andeq	r0, r0, ip, asr r0
     8ac:	00000000 	andeq	r0, r0, r0
     8b0:	00000200 	andeq	r0, r0, r0, lsl #4
     8b4:	0002d800 	andeq	sp, r2, r0, lsl #16
     8b8:	00031400 	andeq	r1, r3, r0, lsl #8
     8bc:	71000800 	tstvc	r0, r0, lsl #16
     8c0:	26007c00 	strcs	r7, [r0], -r0, lsl #24
     8c4:	b09f1a31 	addslt	r1, pc, r1, lsr sl	; <UNPREDICTABLE>
     8c8:	e0000003 	and	r0, r0, r3
     8cc:	08000003 	stmdaeq	r0, {r0, r1}
     8d0:	7c007100 	stfvcs	f7, [r0], {-0}
     8d4:	1a312600 	bne	c4a0dc <__bss_end__+0xc3fbf4>
     8d8:	0000009f 	muleq	r0, pc, r0	; <UNPREDICTABLE>
     8dc:	00000000 	andeq	r0, r0, r0
     8e0:	b0000400 	andlt	r0, r0, r0, lsl #8
     8e4:	c8000003 	stmdagt	r0, {r0, r1}
     8e8:	03000003 	movweq	r0, #3
     8ec:	9ff50800 	svcls	0x00f50800
	...
     8f8:	03b40001 			; <UNDEFINED> instruction: 0x03b40001
     8fc:	03cc0000 	biceq	r0, ip, #0, 0
     900:	00010000 	andeq	r0, r1, r0
     904:	00000054 	andeq	r0, r0, r4, asr r0
     908:	00000000 	andeq	r0, r0, r0
     90c:	b4000000 	strlt	r0, [r0], #-0
     910:	c8000003 	stmdagt	r0, {r0, r1}
     914:	01000003 	tsteq	r0, r3
     918:	00005400 	andeq	r5, r0, r0, lsl #8
     91c:	00000000 	andeq	r0, r0, r0
     920:	00010000 	andeq	r0, r1, r0
     924:	000003bc 			; <UNDEFINED> instruction: 0x000003bc
     928:	000003c0 	andeq	r0, r0, r0, asr #7
     92c:	005e0001 	subseq	r0, lr, r1
	...
     938:	0003bc00 	andeq	fp, r3, r0, lsl #24
     93c:	0003c000 	andeq	ip, r3, r0
     940:	5e000100 	adfpls	f0, f0, f0
	...
     94c:	02e40003 	rsceq	r0, r4, #3, 0
     950:	02fc0000 	rscseq	r0, ip, #0, 0
     954:	00040000 	andeq	r0, r4, r0
     958:	9f02760a 	svcls	0x0002760a
	...
     964:	02e80001 	rsceq	r0, r8, #1, 0
     968:	03000000 	movweq	r0, #0
     96c:	00010000 	andeq	r0, r1, r0
     970:	00000054 	andeq	r0, r0, r4, asr r0
     974:	00000000 	andeq	r0, r0, r0
     978:	e8000000 	stmda	r0, {}	; <UNPREDICTABLE>
     97c:	fc000002 	stc2	0, cr0, [r0], {2}
     980:	01000002 	tsteq	r0, r2
     984:	00005400 	andeq	r5, r0, r0, lsl #8
     988:	00000000 	andeq	r0, r0, r0
     98c:	00010000 	andeq	r0, r1, r0
     990:	000002f0 	strdeq	r0, [r0], -r0	; <UNPREDICTABLE>
     994:	000002f4 	strdeq	r0, [r0], -r4
     998:	005e0001 	subseq	r0, lr, r1
	...
     9a4:	0002f000 	andeq	pc, r2, r0
     9a8:	0002f400 	andeq	pc, r2, r0, lsl #8
     9ac:	5e000100 	adfpls	f0, f0, f0
	...
     9b8:	02fc0004 	rscseq	r0, ip, #4, 0
     9bc:	03140000 	tsteq	r4, #0, 0
     9c0:	00030000 	andeq	r0, r3, r0
     9c4:	009ff508 	addseq	pc, pc, r8, lsl #10
     9c8:	00000000 	andeq	r0, r0, r0
     9cc:	01000000 	mrseq	r0, (UNDEF: 0)
     9d0:	00030000 	andeq	r0, r3, r0
     9d4:	00032000 	andeq	r2, r3, r0
     9d8:	54000100 	strpl	r0, [r0], #-256	; 0xffffff00
	...
     9e4:	03000000 	movweq	r0, #0
     9e8:	03140000 	tsteq	r4, #0, 0
     9ec:	00010000 	andeq	r0, r1, r0
     9f0:	00000054 	andeq	r0, r0, r4, asr r0
     9f4:	00000000 	andeq	r0, r0, r0
     9f8:	08000100 	stmdaeq	r0, {r8}
     9fc:	0c000003 	stceq	0, cr0, [r0], {3}
     a00:	01000003 	tsteq	r0, r3
     a04:	00005e00 	andeq	r5, r0, r0, lsl #28
	...
     a10:	00000308 	andeq	r0, r0, r8, lsl #6
     a14:	0000030c 	andeq	r0, r0, ip, lsl #6
     a18:	005e0001 	subseq	r0, lr, r1
     a1c:	00000000 	andeq	r0, r0, r0
     a20:	04000000 	streq	r0, [r0], #-0
     a24:	0003c800 	andeq	ip, r3, r0, lsl #16
     a28:	0003e000 	andeq	lr, r3, r0
     a2c:	0a000400 	beq	1a34 <__code_start__-0x65cc>
     a30:	009f0276 	addseq	r0, pc, r6, ror r2	; <UNPREDICTABLE>
     a34:	00000000 	andeq	r0, r0, r0
     a38:	01000000 	mrseq	r0, (UNDEF: 0)
     a3c:	0003cc00 	andeq	ip, r3, r0, lsl #24
     a40:	0003f000 	andeq	pc, r3, r0
     a44:	54000100 	strpl	r0, [r0], #-256	; 0xffffff00
	...
     a50:	03cc0000 	biceq	r0, ip, #0, 0
     a54:	03e00000 	mvneq	r0, #0, 0
     a58:	00010000 	andeq	r0, r1, r0
     a5c:	00000054 	andeq	r0, r0, r4, asr r0
     a60:	00000000 	andeq	r0, r0, r0
     a64:	d4000100 	strle	r0, [r0], #-256	; 0xffffff00
     a68:	d8000003 	stmdale	r0, {r0, r1}
     a6c:	01000003 	tsteq	r0, r3
     a70:	00005e00 	andeq	r5, r0, r0, lsl #28
	...
     a7c:	000003d4 	ldrdeq	r0, [r0], -r4
     a80:	000003d8 	ldrdeq	r0, [r0], -r8
     a84:	005e0001 	subseq	r0, lr, r1
	...
     a90:	00032400 	andeq	r2, r3, r0, lsl #8
     a94:	0003b000 	andeq	fp, r3, r0
     a98:	51000100 	mrspl	r0, (UNDEF: 16)
	...
     aa4:	00010001 	andeq	r0, r1, r1
     aa8:	00000324 	andeq	r0, r0, r4, lsr #6
     aac:	00000334 	andeq	r0, r0, r4, lsr r3
     ab0:	00730008 	rsbseq	r0, r3, r8
     ab4:	31260071 			; <UNDEFINED> instruction: 0x31260071
     ab8:	03709f1a 	cmneq	r0, #104	; 0x68
     abc:	037c0000 	cmneq	ip, #0, 0
     ac0:	00080000 	andeq	r0, r8, r0
     ac4:	00710073 	rsbseq	r0, r1, r3, ror r0
     ac8:	9f1a3126 	svcls	0x001a3126
	...
     ad4:	037c0003 	cmneq	ip, #3, 0
     ad8:	03940000 	orrseq	r0, r4, #0, 0
     adc:	00030000 	andeq	r0, r3, r0
     ae0:	009ff508 	addseq	pc, pc, r8, lsl #10
     ae4:	00000000 	andeq	r0, r0, r0
     ae8:	01000000 	mrseq	r0, (UNDEF: 0)
     aec:	00038000 	andeq	r8, r3, r0
     af0:	00039800 	andeq	r9, r3, r0, lsl #16
     af4:	5e000100 	adfpls	f0, f0, f0
	...
     b00:	03800000 	orreq	r0, r0, #0, 0
     b04:	03940000 	orrseq	r0, r4, #0, 0
     b08:	00010000 	andeq	r0, r1, r0
     b0c:	0000005e 	andeq	r0, r0, lr, asr r0
     b10:	00000000 	andeq	r0, r0, r0
     b14:	88000100 	stmdahi	r0, {r8}
     b18:	8c000003 	stchi	0, cr0, [r0], {3}
     b1c:	01000003 	tsteq	r0, r3
     b20:	00005c00 	andeq	r5, r0, r0, lsl #24
	...
     b2c:	00000388 	andeq	r0, r0, r8, lsl #7
     b30:	0000038c 	andeq	r0, r0, ip, lsl #7
     b34:	005c0001 	subseq	r0, ip, r1
     b38:	00000000 	andeq	r0, r0, r0
     b3c:	03000000 	movweq	r0, #0
     b40:	00033400 	andeq	r3, r3, r0, lsl #8
     b44:	00034c00 	andeq	r4, r3, r0, lsl #24
     b48:	0a000400 	beq	1b50 <__code_start__-0x64b0>
     b4c:	009f0276 	addseq	r0, pc, r6, ror r2	; <UNPREDICTABLE>
     b50:	00000000 	andeq	r0, r0, r0
     b54:	01000000 	mrseq	r0, (UNDEF: 0)
     b58:	00033800 	andeq	r3, r3, r0, lsl #16
     b5c:	00035000 	andeq	r5, r3, r0
     b60:	5e000100 	adfpls	f0, f0, f0
	...
     b6c:	03380000 	teqeq	r8, #0, 0
     b70:	034c0000 	movteq	r0, #49152	; 0xc000
     b74:	00010000 	andeq	r0, r1, r0
     b78:	0000005e 	andeq	r0, r0, lr, asr r0
     b7c:	00000000 	andeq	r0, r0, r0
     b80:	40000100 	andmi	r0, r0, r0, lsl #2
     b84:	44000003 	strmi	r0, [r0], #-3
     b88:	01000003 	tsteq	r0, r3
     b8c:	00005c00 	andeq	r5, r0, r0, lsl #24
	...
     b98:	00000340 	andeq	r0, r0, r0, asr #6
     b9c:	00000344 	andeq	r0, r0, r4, asr #6
     ba0:	005c0001 	subseq	r0, ip, r1
     ba4:	00000000 	andeq	r0, r0, r0
     ba8:	04000000 	streq	r0, [r0], #-0
     bac:	00034c00 	andeq	r4, r3, r0, lsl #24
     bb0:	00036400 	andeq	r6, r3, r0, lsl #8
     bb4:	08000300 	stmdaeq	r0, {r8, r9}
     bb8:	00009ff5 	strdeq	r9, [r0], -r5
     bbc:	00000000 	andeq	r0, r0, r0
     bc0:	00010000 	andeq	r0, r1, r0
     bc4:	00000350 	andeq	r0, r0, r0, asr r3
     bc8:	00000364 	andeq	r0, r0, r4, ror #6
     bcc:	005e0001 	subseq	r0, lr, r1
	...
     bd8:	00035000 	andeq	r5, r3, r0
     bdc:	00036400 	andeq	r6, r3, r0, lsl #8
     be0:	5e000100 	adfpls	f0, f0, f0
	...
     bec:	03580001 	cmpeq	r8, #1, 0
     bf0:	035c0000 	cmpeq	ip, #0, 0
     bf4:	00010000 	andeq	r0, r1, r0
     bf8:	0000005c 	andeq	r0, r0, ip, asr r0
     bfc:	00000000 	andeq	r0, r0, r0
     c00:	58000000 	stmdapl	r0, {}	; <UNPREDICTABLE>
     c04:	5c000003 	stcpl	0, cr0, [r0], {3}
     c08:	01000003 	tsteq	r0, r3
     c0c:	00005c00 	andeq	r5, r0, r0, lsl #24
     c10:	00000000 	andeq	r0, r0, r0
     c14:	00040000 	andeq	r0, r4, r0
     c18:	00000394 	muleq	r0, r4, r3
     c1c:	000003b0 			; <UNDEFINED> instruction: 0x000003b0
     c20:	760a0004 	strvc	r0, [sl], -r4
     c24:	00009f02 	andeq	r9, r0, r2, lsl #30
     c28:	00000000 	andeq	r0, r0, r0
     c2c:	00010000 	andeq	r0, r1, r0
     c30:	00000398 	muleq	r0, r8, r3
     c34:	000003b0 			; <UNDEFINED> instruction: 0x000003b0
     c38:	005e0001 	subseq	r0, lr, r1
	...
     c44:	00039800 	andeq	r9, r3, r0, lsl #16
     c48:	0003b000 	andeq	fp, r3, r0
     c4c:	5e000100 	adfpls	f0, f0, f0
	...
     c58:	03a00001 	moveq	r0, #1, 0
     c5c:	03a40000 			; <UNDEFINED> instruction: 0x03a40000
     c60:	00010000 	andeq	r0, r1, r0
     c64:	0000005c 	andeq	r0, r0, ip, asr r0
     c68:	00000000 	andeq	r0, r0, r0
     c6c:	a0000000 	andge	r0, r0, r0
     c70:	a4000003 	strge	r0, [r0], #-3
     c74:	01000003 	tsteq	r0, r3
     c78:	00005c00 	andeq	r5, r0, r0, lsl #24
	...
     c84:	02200000 	eoreq	r0, r0, #0, 0
     c88:	02340000 	eorseq	r0, r4, #0, 0
     c8c:	00010000 	andeq	r0, r1, r0
     c90:	00023450 	andeq	r3, r2, r0, asr r4
     c94:	00026400 	andeq	r6, r2, r0, lsl #8
     c98:	f3000400 	vshl.u8	d0, d0, d0
     c9c:	009f5001 	addseq	r5, pc, r1
	...
     ca8:	20000000 	andcs	r0, r0, r0
     cac:	3b000002 	blcc	cbc <__code_start__-0x7344>
     cb0:	01000002 	tsteq	r0, r2
     cb4:	023b5100 	eorseq	r5, fp, #0
     cb8:	02640000 	rsbeq	r0, r4, #0, 0
     cbc:	00010000 	andeq	r0, r1, r0
     cc0:	00000055 	andeq	r0, r0, r5, asr r0
	...
     ccc:	00024000 	andeq	r4, r2, r0
     cd0:	00024b00 	andeq	r4, r2, r0, lsl #22
     cd4:	50000100 	andpl	r0, r0, r0, lsl #2
     cd8:	0000024b 	andeq	r0, r0, fp, asr #4
     cdc:	00000264 	andeq	r0, r0, r4, ror #4
     ce0:	00540001 	subseq	r0, r4, r1
	...
     cec:	00022c00 	andeq	r2, r2, r0, lsl #24
     cf0:	00026400 	andeq	r6, r2, r0, lsl #8
     cf4:	57000100 	strpl	r0, [r0, -r0, lsl #2]
	...
     d08:	0000004c 	andeq	r0, r0, ip, asr #32
     d0c:	4c500001 	mrrcmi	0, 0, r0, r0, cr1	; <UNPREDICTABLE>
     d10:	20000000 	andcs	r0, r0, r0
     d14:	04000002 	streq	r0, [r0], #-2
     d18:	5001f300 	andpl	pc, r1, r0, lsl #6
     d1c:	0000009f 	muleq	r0, pc, r0	; <UNPREDICTABLE>
     d20:	00000000 	andeq	r0, r0, r0
     d24:	30000000 	andcc	r0, r0, r0
     d28:	4c000000 	stcmi	0, cr0, [r0], {-0}
     d2c:	02000000 	andeq	r0, r0, #0, 0
     d30:	009f3000 	addseq	r3, pc, r0
	...
     d3c:	58000000 	stmdapl	r0, {}	; <UNPREDICTABLE>
     d40:	3c000000 	stccc	0, cr0, [r0], {-0}
     d44:	01000001 	tsteq	r0, r1
     d48:	01585400 	cmpeq	r8, r0, lsl #8
     d4c:	02200000 	eoreq	r0, r0, #0, 0
     d50:	00010000 	andeq	r0, r1, r0
     d54:	00000054 	andeq	r0, r0, r4, asr r0
	...
     d60:	58000000 	stmdapl	r0, {}	; <UNPREDICTABLE>
     d64:	5c000000 	stcpl	0, cr0, [r0], {-0}
     d68:	02000000 	andeq	r0, r0, #0, 0
     d6c:	5c097000 	stcpl	0, cr7, [r9], {-0}
     d70:	a8000000 	stmdage	r0, {}	; <UNPREDICTABLE>
     d74:	01000000 	mrseq	r0, (UNDEF: 0)
     d78:	01d85700 	bicseq	r5, r8, r0, lsl #14
     d7c:	02200000 	eoreq	r0, r0, #0, 0
     d80:	00010000 	andeq	r0, r1, r0
     d84:	00000057 	andeq	r0, r0, r7, asr r0
	...
     d90:	00005800 	andeq	r5, r0, r0, lsl #16
     d94:	0000f400 	andeq	pc, r0, r0, lsl #8
     d98:	56000100 	strpl	r0, [r0], -r0, lsl #2
     d9c:	00000198 	muleq	r0, r8, r1
     da0:	00000220 	andeq	r0, r0, r0, lsr #4
     da4:	00560001 	subseq	r0, r6, r1
     da8:	00000000 	andeq	r0, r0, r0
     dac:	02000000 	andeq	r0, r0, #0, 0
     db0:	00000000 	andeq	r0, r0, r0
     db4:	00005800 	andeq	r5, r0, r0, lsl #16
     db8:	00005c00 	andeq	r5, r0, r0, lsl #24
     dbc:	70000200 	andvc	r0, r0, r0, lsl #4
     dc0:	00005c09 	andeq	r5, r0, r9, lsl #24
     dc4:	0000a800 	andeq	sl, r0, r0, lsl #16
     dc8:	57000100 	strpl	r0, [r0, -r0, lsl #2]
     dcc:	000001d8 	ldrdeq	r0, [r0], -r8
     dd0:	00000220 	andeq	r0, r0, r0, lsr #4
     dd4:	00570001 	subseq	r0, r7, r1
     dd8:	00000000 	andeq	r0, r0, r0
     ddc:	05000000 	streq	r0, [r0, #-0]
     de0:	00000000 	andeq	r0, r0, r0
     de4:	00005800 	andeq	r5, r0, r0, lsl #16
     de8:	00005c00 	andeq	r5, r0, r0, lsl #24
     dec:	30000200 	andcc	r0, r0, r0, lsl #4
     df0:	00005c9f 	muleq	r0, pc, ip	; <UNPREDICTABLE>
     df4:	0000a800 	andeq	sl, r0, r0, lsl #16
     df8:	51000100 	mrspl	r0, (UNDEF: 16)
     dfc:	000001d8 	ldrdeq	r0, [r0], -r8
     e00:	00000220 	andeq	r0, r0, r0, lsr #4
     e04:	00510001 	subseq	r0, r1, r1
     e08:	00000000 	andeq	r0, r0, r0
     e0c:	01000000 	mrseq	r0, (UNDEF: 0)
     e10:	5c000000 	stcpl	0, cr0, [r0], {-0}
     e14:	98000000 	stmdals	r0, {}	; <UNPREDICTABLE>
     e18:	08000000 	stmdaeq	r0, {}	; <UNPREDICTABLE>
     e1c:	71007700 	tstvc	r0, r0, lsl #14
     e20:	1a312600 	bne	c4a628 <__bss_end__+0xc40140>
     e24:	0001d89f 	muleq	r1, pc, r8	; <UNPREDICTABLE>
     e28:	00020800 	andeq	r0, r2, r0, lsl #16
     e2c:	77000800 	strvc	r0, [r0, -r0, lsl #16]
     e30:	26007100 	strcs	r7, [r0], -r0, lsl #2
     e34:	009f1a31 	addseq	r1, pc, r1, lsr sl	; <UNPREDICTABLE>
     e38:	00000000 	andeq	r0, r0, r0
     e3c:	04000000 	streq	r0, [r0], #-0
     e40:	0001d800 	andeq	sp, r1, r0, lsl #16
     e44:	0001f000 	andeq	pc, r1, r0
     e48:	08000300 	stmdaeq	r0, {r8, r9}
     e4c:	00009ff5 	strdeq	r9, [r0], -r5
     e50:	00000000 	andeq	r0, r0, r0
     e54:	00010000 	andeq	r0, r1, r0
     e58:	000001dc 	ldrdeq	r0, [r0], -ip
     e5c:	000001f4 	strdeq	r0, [r0], -r4
     e60:	00580001 	subseq	r0, r8, r1
	...
     e6c:	0001dc00 	andeq	sp, r1, r0, lsl #24
     e70:	0001f000 	andeq	pc, r1, r0
     e74:	58000100 	stmdapl	r0, {r8}
	...
     e80:	01e40001 	mvneq	r0, r1
     e84:	01e80000 	mvneq	r0, r0
     e88:	00010000 	andeq	r0, r1, r0
     e8c:	0000005c 	andeq	r0, r0, ip, asr r0
     e90:	00000000 	andeq	r0, r0, r0
     e94:	e4000000 	str	r0, [r0], #-0
     e98:	e8000001 	stmda	r0, {r0}
     e9c:	01000001 	tsteq	r0, r1
     ea0:	00005c00 	andeq	r5, r0, r0, lsl #24
     ea4:	00000000 	andeq	r0, r0, r0
     ea8:	00030000 	andeq	r0, r3, r0
     eac:	00000068 	andeq	r0, r0, r8, rrx
     eb0:	00000080 	andeq	r0, r0, r0, lsl #1
     eb4:	760a0004 	strvc	r0, [sl], -r4
     eb8:	00009f02 	andeq	r9, r0, r2, lsl #30
     ebc:	00000000 	andeq	r0, r0, r0
     ec0:	00010000 	andeq	r0, r1, r0
     ec4:	0000006c 	andeq	r0, r0, ip, rrx
     ec8:	00000084 	andeq	r0, r0, r4, lsl #1
     ecc:	00580001 	subseq	r0, r8, r1
	...
     ed8:	00006c00 	andeq	r6, r0, r0, lsl #24
     edc:	00008000 	andeq	r8, r0, r0
     ee0:	58000100 	stmdapl	r0, {r8}
	...
     eec:	00740001 	rsbseq	r0, r4, r1
     ef0:	00780000 	rsbseq	r0, r8, r0
     ef4:	00010000 	andeq	r0, r1, r0
     ef8:	0000005c 	andeq	r0, r0, ip, asr r0
     efc:	00000000 	andeq	r0, r0, r0
     f00:	74000000 	strvc	r0, [r0], #-0
     f04:	78000000 	stmdavc	r0, {}	; <UNPREDICTABLE>
     f08:	01000000 	mrseq	r0, (UNDEF: 0)
     f0c:	00005c00 	andeq	r5, r0, r0, lsl #24
     f10:	00000000 	andeq	r0, r0, r0
     f14:	00040000 	andeq	r0, r4, r0
     f18:	00000080 	andeq	r0, r0, r0, lsl #1
     f1c:	00000098 	muleq	r0, r8, r0
     f20:	f5080003 			; <UNDEFINED> instruction: 0xf5080003
     f24:	0000009f 	muleq	r0, pc, r0	; <UNPREDICTABLE>
     f28:	00000000 	andeq	r0, r0, r0
     f2c:	84000100 	strhi	r0, [r0], #-256	; 0xffffff00
     f30:	a4000000 	strge	r0, [r0], #-0
     f34:	01000000 	mrseq	r0, (UNDEF: 0)
     f38:	00005800 	andeq	r5, r0, r0, lsl #16
	...
     f44:	00000084 	andeq	r0, r0, r4, lsl #1
     f48:	00000098 	muleq	r0, r8, r0
     f4c:	00580001 	subseq	r0, r8, r1
     f50:	00000000 	andeq	r0, r0, r0
     f54:	01000000 	mrseq	r0, (UNDEF: 0)
     f58:	00008c00 	andeq	r8, r0, r0, lsl #24
     f5c:	00009000 	andeq	r9, r0, r0
     f60:	5c000100 	stfpls	f0, [r0], {-0}
	...
     f6c:	008c0000 	addeq	r0, ip, r0
     f70:	00900000 	addseq	r0, r0, r0
     f74:	00010000 	andeq	r0, r1, r0
     f78:	0000005c 	andeq	r0, r0, ip, asr r0
     f7c:	00000000 	andeq	r0, r0, r0
     f80:	f0000400 			; <UNDEFINED> instruction: 0xf0000400
     f84:	08000001 	stmdaeq	r0, {r0}
     f88:	04000002 	streq	r0, [r0], #-2
     f8c:	02760a00 	rsbseq	r0, r6, #0, 20
     f90:	0000009f 	muleq	r0, pc, r0	; <UNPREDICTABLE>
     f94:	00000000 	andeq	r0, r0, r0
     f98:	f4000100 	vst4.8	{d0,d2,d4,d6}, [r0], r0
     f9c:	20000001 	andcs	r0, r0, r1
     fa0:	01000002 	tsteq	r0, r2
     fa4:	00005800 	andeq	r5, r0, r0, lsl #16
	...
     fb0:	000001f4 	strdeq	r0, [r0], -r4
     fb4:	00000208 	andeq	r0, r0, r8, lsl #4
     fb8:	00580001 	subseq	r0, r8, r1
     fbc:	00000000 	andeq	r0, r0, r0
     fc0:	01000000 	mrseq	r0, (UNDEF: 0)
     fc4:	0001fc00 	andeq	pc, r1, r0, lsl #24
     fc8:	00020000 	andeq	r0, r2, r0
     fcc:	5c000100 	stfpls	f0, [r0], {-0}
	...
     fd8:	01fc0000 	mvnseq	r0, r0
     fdc:	02000000 	andeq	r0, r0, #0, 0
     fe0:	00010000 	andeq	r0, r1, r0
     fe4:	0000005c 	andeq	r0, r0, ip, asr r0
	...
     ff0:	0000a800 	andeq	sl, r0, r0, lsl #16
     ff4:	0000f400 	andeq	pc, r0, r0, lsl #8
     ff8:	51000100 	mrspl	r0, (UNDEF: 16)
     ffc:	00000198 	muleq	r0, r8, r1
    1000:	000001d8 	ldrdeq	r0, [r0], -r8
    1004:	00510001 	subseq	r0, r1, r1
    1008:	00000000 	andeq	r0, r0, r0
    100c:	01000000 	mrseq	r0, (UNDEF: 0)
    1010:	a8000000 	stmdage	r0, {}	; <UNPREDICTABLE>
    1014:	e4000000 	str	r0, [r0], #-0
    1018:	08000000 	stmdaeq	r0, {}	; <UNPREDICTABLE>
    101c:	71007600 	tstvc	r0, r0, lsl #12
    1020:	1a312600 	bne	c4a828 <__bss_end__+0xc40340>
    1024:	0001989f 	muleq	r1, pc, r8	; <UNPREDICTABLE>
    1028:	0001c800 	andeq	ip, r1, r0, lsl #16
    102c:	76000800 	strvc	r0, [r0], -r0, lsl #16
    1030:	26007100 	strcs	r7, [r0], -r0, lsl #2
    1034:	009f1a31 	addseq	r1, pc, r1, lsr sl	; <UNPREDICTABLE>
    1038:	00000000 	andeq	r0, r0, r0
    103c:	03000000 	movweq	r0, #0
    1040:	0000b400 	andeq	fp, r0, r0, lsl #8
    1044:	0000cc00 	andeq	ip, r0, r0, lsl #24
    1048:	0a000400 	beq	2050 <__code_start__-0x5fb0>
    104c:	009f0276 	addseq	r0, pc, r6, ror r2	; <UNPREDICTABLE>
    1050:	00000000 	andeq	r0, r0, r0
    1054:	01000000 	mrseq	r0, (UNDEF: 0)
    1058:	0000b800 	andeq	fp, r0, r0, lsl #16
    105c:	0000d000 	andeq	sp, r0, r0
    1060:	57000100 	strpl	r0, [r0, -r0, lsl #2]
	...
    106c:	00b80000 	adcseq	r0, r8, r0
    1070:	00cc0000 	sbceq	r0, ip, r0
    1074:	00010000 	andeq	r0, r1, r0
    1078:	00000057 	andeq	r0, r0, r7, asr r0
    107c:	00000000 	andeq	r0, r0, r0
    1080:	c0000100 	andgt	r0, r0, r0, lsl #2
    1084:	c4000000 	strgt	r0, [r0], #-0
    1088:	01000000 	mrseq	r0, (UNDEF: 0)
    108c:	00005c00 	andeq	r5, r0, r0, lsl #24
	...
    1098:	000000c0 	andeq	r0, r0, r0, asr #1
    109c:	000000c4 	andeq	r0, r0, r4, asr #1
    10a0:	005c0001 	subseq	r0, ip, r1
    10a4:	00000000 	andeq	r0, r0, r0
    10a8:	04000000 	streq	r0, [r0], #-0
    10ac:	0000cc00 	andeq	ip, r0, r0, lsl #24
    10b0:	0000e400 	andeq	lr, r0, r0, lsl #8
    10b4:	08000300 	stmdaeq	r0, {r8, r9}
    10b8:	00009ff5 	strdeq	r9, [r0], -r5
    10bc:	00000000 	andeq	r0, r0, r0
    10c0:	00010000 	andeq	r0, r1, r0
    10c4:	000000d0 	ldrdeq	r0, [r0], -r0	; <UNPREDICTABLE>
    10c8:	000000f0 	strdeq	r0, [r0], -r0	; <UNPREDICTABLE>
    10cc:	00570001 	subseq	r0, r7, r1
	...
    10d8:	0000d000 	andeq	sp, r0, r0
    10dc:	0000e400 	andeq	lr, r0, r0, lsl #8
    10e0:	57000100 	strpl	r0, [r0, -r0, lsl #2]
	...
    10ec:	00d80001 	sbcseq	r0, r8, r1
    10f0:	00dc0000 	sbcseq	r0, ip, r0
    10f4:	00010000 	andeq	r0, r1, r0
    10f8:	0000005c 	andeq	r0, r0, ip, asr r0
    10fc:	00000000 	andeq	r0, r0, r0
    1100:	d8000000 	stmdale	r0, {}	; <UNPREDICTABLE>
    1104:	dc000000 	stcle	0, cr0, [r0], {-0}
    1108:	01000000 	mrseq	r0, (UNDEF: 0)
    110c:	00005c00 	andeq	r5, r0, r0, lsl #24
    1110:	00000000 	andeq	r0, r0, r0
    1114:	00040000 	andeq	r0, r4, r0
    1118:	00000198 	muleq	r0, r8, r1
    111c:	000001b0 			; <UNDEFINED> instruction: 0x000001b0
    1120:	f5080003 			; <UNDEFINED> instruction: 0xf5080003
    1124:	0000009f 	muleq	r0, pc, r0	; <UNPREDICTABLE>
    1128:	00000000 	andeq	r0, r0, r0
    112c:	9c000100 	stflss	f0, [r0], {-0}
    1130:	b4000001 	strlt	r0, [r0], #-1
    1134:	01000001 	tsteq	r0, r1
    1138:	00005700 	andeq	r5, r0, r0, lsl #14
	...
    1144:	0000019c 	muleq	r0, ip, r1
    1148:	000001b0 			; <UNDEFINED> instruction: 0x000001b0
    114c:	00570001 	subseq	r0, r7, r1
    1150:	00000000 	andeq	r0, r0, r0
    1154:	01000000 	mrseq	r0, (UNDEF: 0)
    1158:	0001a400 	andeq	sl, r1, r0, lsl #8
    115c:	0001a800 	andeq	sl, r1, r0, lsl #16
    1160:	5c000100 	stfpls	f0, [r0], {-0}
	...
    116c:	01a40000 			; <UNDEFINED> instruction: 0x01a40000
    1170:	01a80000 			; <UNDEFINED> instruction: 0x01a80000
    1174:	00010000 	andeq	r0, r1, r0
    1178:	0000005c 	andeq	r0, r0, ip, asr r0
    117c:	00000000 	andeq	r0, r0, r0
    1180:	b0000400 	andlt	r0, r0, r0, lsl #8
    1184:	c8000001 	stmdagt	r0, {r0}
    1188:	04000001 	streq	r0, [r0], #-1
    118c:	02760a00 	rsbseq	r0, r6, #0, 20
    1190:	0000009f 	muleq	r0, pc, r0	; <UNPREDICTABLE>
    1194:	00000000 	andeq	r0, r0, r0
    1198:	b4000100 	strlt	r0, [r0], #-256	; 0xffffff00
    119c:	d8000001 	stmdale	r0, {r0}
    11a0:	01000001 	tsteq	r0, r1
    11a4:	00005700 	andeq	r5, r0, r0, lsl #14
	...
    11b0:	000001b4 			; <UNDEFINED> instruction: 0x000001b4
    11b4:	000001c8 	andeq	r0, r0, r8, asr #3
    11b8:	00570001 	subseq	r0, r7, r1
    11bc:	00000000 	andeq	r0, r0, r0
    11c0:	01000000 	mrseq	r0, (UNDEF: 0)
    11c4:	0001bc00 	andeq	fp, r1, r0, lsl #24
    11c8:	0001c000 	andeq	ip, r1, r0
    11cc:	5c000100 	stfpls	f0, [r0], {-0}
	...
    11d8:	01bc0000 			; <UNDEFINED> instruction: 0x01bc0000
    11dc:	01c00000 	biceq	r0, r0, r0
    11e0:	00010000 	andeq	r0, r1, r0
    11e4:	0000005c 	andeq	r0, r0, ip, asr r0
	...
    11f0:	0000f400 	andeq	pc, r0, r0, lsl #8
    11f4:	00013c00 	andeq	r3, r1, r0, lsl #24
    11f8:	51000100 	mrspl	r0, (UNDEF: 16)
    11fc:	00000158 	andeq	r0, r0, r8, asr r1
    1200:	00000198 	muleq	r0, r8, r1
    1204:	00510001 	subseq	r0, r1, r1
    1208:	00000000 	andeq	r0, r0, r0
    120c:	01000000 	mrseq	r0, (UNDEF: 0)
    1210:	f4000000 	vst4.8	{d0-d3}, [r0], r0
    1214:	30000000 	andcc	r0, r0, r0
    1218:	08000001 	stmdaeq	r0, {r0}
    121c:	71007400 	tstvc	r0, r0, lsl #8
    1220:	1a312600 	bne	c4aa28 <__bss_end__+0xc40540>
    1224:	0001589f 	muleq	r1, pc, r8	; <UNPREDICTABLE>
    1228:	00018800 	andeq	r8, r1, r0, lsl #16
    122c:	74000800 	strvc	r0, [r0], #-2048	; 0xfffff800
    1230:	26007100 	strcs	r7, [r0], -r0, lsl #2
    1234:	009f1a31 	addseq	r1, pc, r1, lsr sl	; <UNPREDICTABLE>
    1238:	00000000 	andeq	r0, r0, r0
    123c:	03000000 	movweq	r0, #0
    1240:	00010000 	andeq	r0, r1, r0
    1244:	00011800 	andeq	r1, r1, r0, lsl #16
    1248:	0a000400 	beq	2250 <__code_start__-0x5db0>
    124c:	009f0276 	addseq	r0, pc, r6, ror r2	; <UNPREDICTABLE>
    1250:	00000000 	andeq	r0, r0, r0
    1254:	01000000 	mrseq	r0, (UNDEF: 0)
    1258:	00010400 	andeq	r0, r1, r0, lsl #8
    125c:	00011c00 	andeq	r1, r1, r0, lsl #24
    1260:	56000100 	strpl	r0, [r0], -r0, lsl #2
	...
    126c:	01040000 	mrseq	r0, (UNDEF: 4)
    1270:	01180000 	tsteq	r8, r0
    1274:	00010000 	andeq	r0, r1, r0
    1278:	00000056 	andeq	r0, r0, r6, asr r0
    127c:	00000000 	andeq	r0, r0, r0
    1280:	0c000100 	stfeqs	f0, [r0], {-0}
    1284:	10000001 	andne	r0, r0, r1
    1288:	01000001 	tsteq	r0, r1
    128c:	00005c00 	andeq	r5, r0, r0, lsl #24
	...
    1298:	0000010c 	andeq	r0, r0, ip, lsl #2
    129c:	00000110 	andeq	r0, r0, r0, lsl r1
    12a0:	005c0001 	subseq	r0, ip, r1
    12a4:	00000000 	andeq	r0, r0, r0
    12a8:	04000000 	streq	r0, [r0], #-0
    12ac:	00011800 	andeq	r1, r1, r0, lsl #16
    12b0:	00013000 	andeq	r3, r1, r0
    12b4:	08000300 	stmdaeq	r0, {r8, r9}
    12b8:	00009ff5 	strdeq	r9, [r0], -r5
    12bc:	00000000 	andeq	r0, r0, r0
    12c0:	00010000 	andeq	r0, r1, r0
    12c4:	0000011c 	andeq	r0, r0, ip, lsl r1
    12c8:	0000013c 	andeq	r0, r0, ip, lsr r1
    12cc:	00560001 	subseq	r0, r6, r1
	...
    12d8:	00011c00 	andeq	r1, r1, r0, lsl #24
    12dc:	00013000 	andeq	r3, r1, r0
    12e0:	56000100 	strpl	r0, [r0], -r0, lsl #2
	...
    12ec:	01240001 			; <UNDEFINED> instruction: 0x01240001
    12f0:	01280000 			; <UNDEFINED> instruction: 0x01280000
    12f4:	00010000 	andeq	r0, r1, r0
    12f8:	0000005c 	andeq	r0, r0, ip, asr r0
    12fc:	00000000 	andeq	r0, r0, r0
    1300:	24000000 	strcs	r0, [r0], #-0
    1304:	28000001 	stmdacs	r0, {r0}
    1308:	01000001 	tsteq	r0, r1
    130c:	00005c00 	andeq	r5, r0, r0, lsl #24
    1310:	00000000 	andeq	r0, r0, r0
    1314:	00030000 	andeq	r0, r3, r0
    1318:	00000158 	andeq	r0, r0, r8, asr r1
    131c:	00000170 	andeq	r0, r0, r0, ror r1
    1320:	f5080003 			; <UNDEFINED> instruction: 0xf5080003
    1324:	0000009f 	muleq	r0, pc, r0	; <UNPREDICTABLE>
    1328:	00000000 	andeq	r0, r0, r0
    132c:	5c000100 	stfpls	f0, [r0], {-0}
    1330:	74000001 	strvc	r0, [r0], #-1
    1334:	01000001 	tsteq	r0, r1
    1338:	00005600 	andeq	r5, r0, r0, lsl #12
	...
    1344:	0000015c 	andeq	r0, r0, ip, asr r1
    1348:	00000170 	andeq	r0, r0, r0, ror r1
    134c:	00560001 	subseq	r0, r6, r1
    1350:	00000000 	andeq	r0, r0, r0
    1354:	01000000 	mrseq	r0, (UNDEF: 0)
    1358:	00016400 	andeq	r6, r1, r0, lsl #8
    135c:	00016800 	andeq	r6, r1, r0, lsl #16
    1360:	5c000100 	stfpls	f0, [r0], {-0}
	...
    136c:	01640000 	cmneq	r4, r0
    1370:	01680000 	cmneq	r8, r0
    1374:	00010000 	andeq	r0, r1, r0
    1378:	0000005c 	andeq	r0, r0, ip, asr r0
    137c:	00000000 	andeq	r0, r0, r0
    1380:	70000400 	andvc	r0, r0, r0, lsl #8
    1384:	88000001 	stmdahi	r0, {r0}
    1388:	04000001 	streq	r0, [r0], #-1
    138c:	02760a00 	rsbseq	r0, r6, #0, 20
    1390:	0000009f 	muleq	r0, pc, r0	; <UNPREDICTABLE>
    1394:	00000000 	andeq	r0, r0, r0
    1398:	74000100 	strvc	r0, [r0], #-256	; 0xffffff00
    139c:	98000001 	stmdals	r0, {r0}
    13a0:	01000001 	tsteq	r0, r1
    13a4:	00005600 	andeq	r5, r0, r0, lsl #12
	...
    13b0:	00000174 	andeq	r0, r0, r4, ror r1
    13b4:	00000188 	andeq	r0, r0, r8, lsl #3
    13b8:	00560001 	subseq	r0, r6, r1
    13bc:	00000000 	andeq	r0, r0, r0
    13c0:	01000000 	mrseq	r0, (UNDEF: 0)
    13c4:	00017c00 	andeq	r7, r1, r0, lsl #24
    13c8:	00018000 	andeq	r8, r1, r0
    13cc:	5c000100 	stfpls	f0, [r0], {-0}
	...
    13d8:	017c0000 	cmneq	ip, r0
    13dc:	01800000 	orreq	r0, r0, r0
    13e0:	00010000 	andeq	r0, r1, r0
    13e4:	0000005c 	andeq	r0, r0, ip, asr r0
    13e8:	00000000 	andeq	r0, r0, r0
    13ec:	00000200 	andeq	r0, r0, r0, lsl #4
    13f0:	20000000 	andcs	r0, r0, r0
    13f4:	08000000 	stmdaeq	r0, {}	; <UNPREDICTABLE>
    13f8:	94007000 	strls	r7, [r0], #-0
    13fc:	1aff0801 	bne	fffc3408 <__bss_end__+0xfffb8f20>
    1400:	0000009f 	muleq	r0, pc, r0	; <UNPREDICTABLE>
    1404:	00000000 	andeq	r0, r0, r0
    1408:	00000400 	andeq	r0, r0, r0, lsl #8
    140c:	20000000 	andcs	r0, r0, r0
    1410:	08000000 	stmdaeq	r0, {}	; <UNPREDICTABLE>
    1414:	94007000 	strls	r7, [r0], #-0
    1418:	1aff0801 	bne	fffc3424 <__bss_end__+0xfffb8f3c>
    141c:	0000009f 	muleq	r0, pc, r0	; <UNPREDICTABLE>
    1420:	00000000 	andeq	r0, r0, r0
    1424:	00000600 	andeq	r0, r0, r0, lsl #12
    1428:	30000000 	andcc	r0, r0, r0
    142c:	04000000 	streq	r0, [r0], #-0
    1430:	88b80a00 	ldmhi	r8!, {r9, fp}
    1434:	0000009f 	muleq	r0, pc, r0	; <UNPREDICTABLE>
    1438:	00000000 	andeq	r0, r0, r0
    143c:	00000600 	andeq	r0, r0, r0, lsl #12
    1440:	20000000 	andcs	r0, r0, r0
    1444:	08000000 	stmdaeq	r0, {}	; <UNPREDICTABLE>
    1448:	94007000 	strls	r7, [r0], #-0
    144c:	1aff0801 	bne	fffc3458 <__bss_end__+0xfffb8f70>
    1450:	0000009f 	muleq	r0, pc, r0	; <UNPREDICTABLE>
    1454:	00000000 	andeq	r0, r0, r0
    1458:	08000100 	stmdaeq	r0, {r8}
    145c:	4c000000 	stcmi	0, cr0, [r0], {-0}
    1460:	01000000 	mrseq	r0, (UNDEF: 0)
    1464:	00005c00 	andeq	r5, r0, r0, lsl #24
	...
    1470:	00000008 	andeq	r0, r0, r8
    1474:	00000030 	andeq	r0, r0, r0, lsr r0
    1478:	005c0001 	subseq	r0, ip, r1
    147c:	00000000 	andeq	r0, r0, r0
    1480:	03000000 	movweq	r0, #0
    1484:	00000000 	andeq	r0, r0, r0
    1488:	00000800 	andeq	r0, r0, r0, lsl #16
    148c:	00001000 	andeq	r1, r0, r0
    1490:	70000800 	andvc	r0, r0, r0, lsl #16
    1494:	08019400 	stmdaeq	r1, {sl, ip, pc}
    1498:	109f1aff 			; <UNDEFINED> instruction: 0x109f1aff
    149c:	18000000 	stmdane	r0, {}	; <UNPREDICTABLE>
    14a0:	01000000 	mrseq	r0, (UNDEF: 0)
    14a4:	00185300 	andseq	r5, r8, r0, lsl #6
    14a8:	00200000 	eoreq	r0, r0, r0
    14ac:	00080000 	andeq	r0, r8, r0
    14b0:	01940070 	orrseq	r0, r4, r0, ror r0
    14b4:	9f1aff08 	svcls	0x001aff08
	...
    14c0:	00240001 	eoreq	r0, r4, r1
    14c4:	00280000 	eoreq	r0, r8, r0
    14c8:	00010000 	andeq	r0, r1, r0
    14cc:	00000052 	andeq	r0, r0, r2, asr r0
    14d0:	00000000 	andeq	r0, r0, r0
    14d4:	24000000 	strcs	r0, [r0], #-0
    14d8:	28000000 	stmdacs	r0, {}	; <UNPREDICTABLE>
    14dc:	01000000 	mrseq	r0, (UNDEF: 0)
    14e0:	00005200 	andeq	r5, r0, r0, lsl #4
	...
    14f0:	04400000 	strbeq	r0, [r0], #-0
    14f4:	05270000 	streq	r0, [r7, #-0]!
    14f8:	00010000 	andeq	r0, r1, r0
    14fc:	00052750 	andeq	r2, r5, r0, asr r7
    1500:	00052800 	andeq	r2, r5, r0, lsl #16
    1504:	f3000400 	vshl.u8	d0, d0, d0
    1508:	289f5001 	ldmcs	pc, {r0, ip, lr}	; <UNPREDICTABLE>
    150c:	2b000005 	blcs	1528 <__code_start__-0x6ad8>
    1510:	01000005 	tsteq	r0, r5
    1514:	052b5000 	streq	r5, [fp, #-0]!
    1518:	05300000 	ldreq	r0, [r0, #-0]!
    151c:	00040000 	andeq	r0, r4, r0
    1520:	9f5001f3 	svcls	0x005001f3
	...
    1534:	00000440 	andeq	r0, r0, r0, asr #8
    1538:	00000527 	andeq	r0, r0, r7, lsr #10
    153c:	27510001 	ldrbcs	r0, [r1, -r1]
    1540:	28000005 	stmdacs	r0, {r0, r2}
    1544:	04000005 	streq	r0, [r0], #-5
    1548:	5101f300 	mrspl	pc, SP_irq	; <UNPREDICTABLE>
    154c:	0005289f 	muleq	r5, pc, r8	; <UNPREDICTABLE>
    1550:	00052b00 	andeq	r2, r5, r0, lsl #22
    1554:	51000100 	mrspl	r0, (UNDEF: 16)
    1558:	0000052b 	andeq	r0, r0, fp, lsr #10
    155c:	00000530 	andeq	r0, r0, r0, lsr r5
    1560:	01f30004 	mvnseq	r0, r4
    1564:	00009f51 	andeq	r9, r0, r1, asr pc
    1568:	00000000 	andeq	r0, r0, r0
    156c:	00030000 	andeq	r0, r3, r0
    1570:	00000000 	andeq	r0, r0, r0
    1574:	00000440 	andeq	r0, r0, r0, asr #8
    1578:	00000460 	andeq	r0, r0, r0, ror #8
    157c:	9f300002 	svcls	0x00300002
    1580:	00000460 	andeq	r0, r0, r0, ror #8
    1584:	00000524 	andeq	r0, r0, r4, lsr #10
    1588:	285e0001 	ldmdacs	lr, {r0}^
    158c:	30000005 	andcc	r0, r0, r5
    1590:	02000005 	andeq	r0, r0, #5, 0
    1594:	009f3000 	addseq	r3, pc, r0
    1598:	00000000 	andeq	r0, r0, r0
    159c:	02000000 	andeq	r0, r0, #0, 0
    15a0:	00046000 	andeq	r6, r4, r0
    15a4:	00051400 	andeq	r1, r5, r0, lsl #8
    15a8:	30000200 	andcc	r0, r0, r0, lsl #4
    15ac:	0000009f 	muleq	r0, pc, r0	; <UNPREDICTABLE>
    15b0:	00000000 	andeq	r0, r0, r0
    15b4:	60000400 	andvs	r0, r0, r0, lsl #8
    15b8:	a0000004 	andge	r0, r0, r4
    15bc:	02000004 	andeq	r0, r0, #4, 0
    15c0:	009f3000 	addseq	r3, pc, r0
    15c4:	00000000 	andeq	r0, r0, r0
    15c8:	07000000 	streq	r0, [r0, -r0]
    15cc:	00046000 	andeq	r6, r4, r0
    15d0:	00046400 	andeq	r6, r4, r0, lsl #8
    15d4:	30000200 	andcc	r0, r0, r0, lsl #4
    15d8:	0000009f 	muleq	r0, pc, r0	; <UNPREDICTABLE>
    15dc:	00000000 	andeq	r0, r0, r0
    15e0:	64000100 	strvs	r0, [r0], #-256	; 0xffffff00
    15e4:	94000004 	strls	r0, [r0], #-4
    15e8:	02000004 	andeq	r0, r0, #4, 0
    15ec:	009f3000 	addseq	r3, pc, r0
    15f0:	00000000 	andeq	r0, r0, r0
    15f4:	06000000 	streq	r0, [r0], -r0
    15f8:	00046400 	andeq	r6, r4, r0, lsl #8
    15fc:	00047c00 	andeq	r7, r4, r0, lsl #24
    1600:	08000300 	stmdaeq	r0, {r8, r9}
    1604:	00009ff5 	strdeq	r9, [r0], -r5
    1608:	00000000 	andeq	r0, r0, r0
    160c:	00010000 	andeq	r0, r1, r0
    1610:	00000468 	andeq	r0, r0, r8, ror #8
    1614:	00000480 	andeq	r0, r0, r0, lsl #9
    1618:	00550001 	subseq	r0, r5, r1
	...
    1624:	00046800 	andeq	r6, r4, r0, lsl #16
    1628:	00047c00 	andeq	r7, r4, r0, lsl #24
    162c:	55000100 	strpl	r0, [r0, #-256]	; 0xffffff00
	...
    1638:	04700001 	ldrbteq	r0, [r0], #-1
    163c:	04740000 	ldrbteq	r0, [r4], #-0
    1640:	00010000 	andeq	r0, r1, r0
    1644:	0000005c 	andeq	r0, r0, ip, asr r0
    1648:	00000000 	andeq	r0, r0, r0
    164c:	70000000 	andvc	r0, r0, r0
    1650:	74000004 	strvc	r0, [r0], #-4
    1654:	01000004 	tsteq	r0, r4
    1658:	00005c00 	andeq	r5, r0, r0, lsl #24
    165c:	00000000 	andeq	r0, r0, r0
    1660:	00040000 	andeq	r0, r4, r0
    1664:	0000047c 	andeq	r0, r0, ip, ror r4
    1668:	00000494 	muleq	r0, r4, r4
    166c:	760a0004 	strvc	r0, [sl], -r4
    1670:	00009f02 	andeq	r9, r0, r2, lsl #30
    1674:	00000000 	andeq	r0, r0, r0
    1678:	00010000 	andeq	r0, r1, r0
    167c:	00000480 	andeq	r0, r0, r0, lsl #9
    1680:	000004a0 	andeq	r0, r0, r0, lsr #9
    1684:	00550001 	subseq	r0, r5, r1
	...
    1690:	00048000 	andeq	r8, r4, r0
    1694:	00049400 	andeq	r9, r4, r0, lsl #8
    1698:	55000100 	strpl	r0, [r0, #-256]	; 0xffffff00
	...
    16a4:	04880001 	streq	r0, [r8], #1
    16a8:	048c0000 	streq	r0, [ip], #0
    16ac:	00010000 	andeq	r0, r1, r0
    16b0:	0000005c 	andeq	r0, r0, ip, asr r0
    16b4:	00000000 	andeq	r0, r0, r0
    16b8:	88000000 	stmdahi	r0, {}	; <UNPREDICTABLE>
    16bc:	8c000004 	stchi	0, cr0, [r0], {4}
    16c0:	01000004 	tsteq	r0, r4
    16c4:	00005c00 	andeq	r5, r0, r0, lsl #24
    16c8:	00000000 	andeq	r0, r0, r0
    16cc:	00020000 	andeq	r0, r2, r0
    16d0:	000004a0 	andeq	r0, r0, r0, lsr #9
    16d4:	000004d0 	ldrdeq	r0, [r0], -r0	; <UNPREDICTABLE>
    16d8:	9f300002 	svcls	0x00300002
	...
    16e4:	04a00007 	strteq	r0, [r0], #7
    16e8:	04b80000 	ldrteq	r0, [r8], #0
    16ec:	00030000 	andeq	r0, r3, r0
    16f0:	009ff508 	addseq	pc, pc, r8, lsl #10
    16f4:	00000000 	andeq	r0, r0, r0
    16f8:	01000000 	mrseq	r0, (UNDEF: 0)
    16fc:	0004a400 	andeq	sl, r4, r0, lsl #8
    1700:	0004bc00 	andeq	fp, r4, r0, lsl #24
    1704:	55000100 	strpl	r0, [r0, #-256]	; 0xffffff00
	...
    1710:	04a40000 	strteq	r0, [r4], #0
    1714:	04b80000 	ldrteq	r0, [r8], #0
    1718:	00010000 	andeq	r0, r1, r0
    171c:	00000055 	andeq	r0, r0, r5, asr r0
    1720:	00000000 	andeq	r0, r0, r0
    1724:	ac000100 	stfges	f0, [r0], {-0}
    1728:	b0000004 	andlt	r0, r0, r4
    172c:	01000004 	tsteq	r0, r4
    1730:	00005c00 	andeq	r5, r0, r0, lsl #24
	...
    173c:	000004ac 	andeq	r0, r0, ip, lsr #9
    1740:	000004b0 			; <UNDEFINED> instruction: 0x000004b0
    1744:	005c0001 	subseq	r0, ip, r1
    1748:	00000000 	andeq	r0, r0, r0
    174c:	04000000 	streq	r0, [r0], #-0
    1750:	0004b800 	andeq	fp, r4, r0, lsl #16
    1754:	0004d000 	andeq	sp, r4, r0
    1758:	0a000400 	beq	2760 <__code_start__-0x58a0>
    175c:	009f0276 	addseq	r0, pc, r6, ror r2	; <UNPREDICTABLE>
    1760:	00000000 	andeq	r0, r0, r0
    1764:	01000000 	mrseq	r0, (UNDEF: 0)
    1768:	0004bc00 	andeq	fp, r4, r0, lsl #24
    176c:	0004dc00 	andeq	sp, r4, r0, lsl #24
    1770:	55000100 	strpl	r0, [r0, #-256]	; 0xffffff00
	...
    177c:	04bc0000 	ldrteq	r0, [ip], #0
    1780:	04d00000 	ldrbeq	r0, [r0], #0
    1784:	00010000 	andeq	r0, r1, r0
    1788:	00000055 	andeq	r0, r0, r5, asr r0
    178c:	00000000 	andeq	r0, r0, r0
    1790:	c4000100 	strgt	r0, [r0], #-256	; 0xffffff00
    1794:	c8000004 	stmdagt	r0, {r2}
    1798:	01000004 	tsteq	r0, r4
    179c:	00005c00 	andeq	r5, r0, r0, lsl #24
	...
    17a8:	000004c4 	andeq	r0, r0, r4, asr #9
    17ac:	000004c8 	andeq	r0, r0, r8, asr #9
    17b0:	005c0001 	subseq	r0, ip, r1
    17b4:	00000000 	andeq	r0, r0, r0
    17b8:	02000000 	andeq	r0, r0, #0, 0
    17bc:	0004dc00 	andeq	sp, r4, r0, lsl #24
    17c0:	00050c00 	andeq	r0, r5, r0, lsl #24
    17c4:	30000200 	andcc	r0, r0, r0, lsl #4
    17c8:	0000009f 	muleq	r0, pc, r0	; <UNPREDICTABLE>
    17cc:	00000000 	andeq	r0, r0, r0
    17d0:	dc000700 	stcle	7, cr0, [r0], {-0}
    17d4:	f4000004 	vst4.8	{d0-d3}, [r0], r4
    17d8:	03000004 	movweq	r0, #4
    17dc:	9ff50800 	svcls	0x00f50800
	...
    17e8:	04e00001 	strbteq	r0, [r0], #1
    17ec:	04f80000 	ldrbteq	r0, [r8], #0
    17f0:	00010000 	andeq	r0, r1, r0
    17f4:	00000055 	andeq	r0, r0, r5, asr r0
    17f8:	00000000 	andeq	r0, r0, r0
    17fc:	e0000000 	and	r0, r0, r0
    1800:	f4000004 	vst4.8	{d0-d3}, [r0], r4
    1804:	01000004 	tsteq	r0, r4
    1808:	00005500 	andeq	r5, r0, r0, lsl #10
    180c:	00000000 	andeq	r0, r0, r0
    1810:	00010000 	andeq	r0, r1, r0
    1814:	000004e8 	andeq	r0, r0, r8, ror #9
    1818:	000004ec 	andeq	r0, r0, ip, ror #9
    181c:	005c0001 	subseq	r0, ip, r1
	...
    1828:	0004e800 	andeq	lr, r4, r0, lsl #16
    182c:	0004ec00 	andeq	lr, r4, r0, lsl #24
    1830:	5c000100 	stfpls	f0, [r0], {-0}
	...
    183c:	04f40004 	ldrbteq	r0, [r4], #4
    1840:	050c0000 	streq	r0, [ip, #-0]
    1844:	00040000 	andeq	r0, r4, r0
    1848:	9f02760a 	svcls	0x0002760a
	...
    1854:	04f80001 	ldrbteq	r0, [r8], #1
    1858:	05240000 	streq	r0, [r4, #-0]!
    185c:	00010000 	andeq	r0, r1, r0
    1860:	00000055 	andeq	r0, r0, r5, asr r0
    1864:	00000000 	andeq	r0, r0, r0
    1868:	f8000000 			; <UNDEFINED> instruction: 0xf8000000
    186c:	0c000004 	stceq	0, cr0, [r0], {4}
    1870:	01000005 	tsteq	r0, r5
    1874:	00005500 	andeq	r5, r0, r0, lsl #10
    1878:	00000000 	andeq	r0, r0, r0
    187c:	00010000 	andeq	r0, r1, r0
    1880:	00000500 	andeq	r0, r0, r0, lsl #10
    1884:	00000504 	andeq	r0, r0, r4, lsl #10
    1888:	005c0001 	subseq	r0, ip, r1
	...
    1894:	00050000 	andeq	r0, r5, r0
    1898:	00050400 	andeq	r0, r5, r0, lsl #8
    189c:	5c000100 	stfpls	f0, [r0], {-0}
	...
    18b0:	0000001c 	andeq	r0, r0, ip, lsl r0
    18b4:	1c510001 	mrrcne	0, 0, r0, r1, cr1
    18b8:	78000000 	stmdavc	r0, {}	; <UNPREDICTABLE>
    18bc:	04000000 	streq	r0, [r0], #-0
    18c0:	5101f300 	mrspl	pc, SP_irq	; <UNPREDICTABLE>
    18c4:	0000009f 	muleq	r0, pc, r0	; <UNPREDICTABLE>
	...
    18d4:	00005800 	andeq	r5, r0, r0, lsl #16
    18d8:	52000100 	andpl	r0, r0, #0
    18dc:	00000058 	andeq	r0, r0, r8, asr r0
    18e0:	00000078 	andeq	r0, r0, r8, ror r0
    18e4:	01f30004 	mvnseq	r0, r4
    18e8:	00009f52 	andeq	r9, r0, r2, asr pc
    18ec:	00000000 	andeq	r0, r0, r0
    18f0:	00020000 	andeq	r0, r2, r0
    18f4:	00010100 	andeq	r0, r1, r0, lsl #2
    18f8:	00010100 	andeq	r0, r1, r0, lsl #2
    18fc:	00010100 	andeq	r0, r1, r0, lsl #2
    1900:	00000000 	andeq	r0, r0, r0
    1904:	00000038 	andeq	r0, r0, r8, lsr r0
    1908:	54500001 	ldrbpl	r0, [r0], #-1
    190c:	54000000 	strpl	r0, [r0], #-0
    1910:	01000000 	mrseq	r0, (UNDEF: 0)
    1914:	00545300 	subseq	r5, r4, r0, lsl #6
    1918:	005c0000 	subseq	r0, ip, r0
    191c:	00030000 	andeq	r0, r3, r0
    1920:	5c9f0173 	ldfpls	f0, [pc], {115}	; 0x73
    1924:	64000000 	strvs	r0, [r0], #-0
    1928:	01000000 	mrseq	r0, (UNDEF: 0)
    192c:	00645200 	rsbeq	r5, r4, r0, lsl #4
    1930:	00680000 	rsbeq	r0, r8, r0
    1934:	00030000 	andeq	r0, r3, r0
    1938:	689f0273 	ldmvs	pc, {r0, r1, r4, r5, r6, r9}	; <UNPREDICTABLE>
    193c:	74000000 	strvc	r0, [r0], #-0
    1940:	01000000 	mrseq	r0, (UNDEF: 0)
    1944:	00745200 	rsbseq	r5, r4, r0, lsl #4
    1948:	00780000 	rsbseq	r0, r8, r0
    194c:	00030000 	andeq	r0, r3, r0
    1950:	009f0172 	addseq	r0, pc, r2, ror r1	; <UNPREDICTABLE>
	...
    195c:	00000800 	andeq	r0, r0, r0, lsl #16
    1960:	00007800 	andeq	r7, r0, r0, lsl #16
    1964:	54000100 	strpl	r0, [r0], #-256	; 0xffffff00
	...
    1974:	002c0000 	eoreq	r0, ip, r0
    1978:	00340000 	eorseq	r0, r4, r0
    197c:	00010000 	andeq	r0, r1, r0
    1980:	00003450 	andeq	r3, r0, r0, asr r4
    1984:	00004800 	andeq	r4, r0, r0, lsl #16
    1988:	54000100 	strpl	r0, [r0], #-256	; 0xffffff00
    198c:	00000048 	andeq	r0, r0, r8, asr #32
    1990:	00000058 	andeq	r0, r0, r8, asr r0
    1994:	00500001 	subseq	r0, r0, r1
	...
    19a0:	01010000 	mrseq	r0, (UNDEF: 1)
    19a4:	00000000 	andeq	r0, r0, r0
    19a8:	0c000000 	stceq	0, cr0, [r0], {-0}
    19ac:	01000000 	mrseq	r0, (UNDEF: 0)
    19b0:	000c5000 	andeq	r5, ip, r0
    19b4:	00200000 	eoreq	r0, r0, r0
    19b8:	00010000 	andeq	r0, r1, r0
    19bc:	00002054 	andeq	r2, r0, r4, asr r0
    19c0:	00002400 	andeq	r2, r0, r0, lsl #8
    19c4:	74000300 	strvc	r0, [r0], #-768	; 0xfffffd00
    19c8:	00249f01 	eoreq	r9, r4, r1, lsl #30
    19cc:	00380000 	eorseq	r0, r8, r0
    19d0:	00010000 	andeq	r0, r1, r0
    19d4:	00000054 	andeq	r0, r0, r4, asr r0
	...
    19e4:	88000000 	stmdahi	r0, {}	; <UNPREDICTABLE>
    19e8:	94000003 	strls	r0, [r0], #-3
    19ec:	01000003 	tsteq	r0, r3
    19f0:	03945000 	orrseq	r5, r4, #0, 0
    19f4:	03d00000 	bicseq	r0, r0, #0, 0
    19f8:	00010000 	andeq	r0, r1, r0
    19fc:	0003d05b 	andeq	sp, r3, fp, asr r0
    1a00:	00092000 	andeq	r2, r9, r0
    1a04:	f3000400 	vshl.u8	d0, d0, d0
    1a08:	209f5001 	addscs	r5, pc, r1
    1a0c:	28000009 	stmdacs	r0, {r0, r3}
    1a10:	01000009 	tsteq	r0, r9
    1a14:	09285b00 	stmdbeq	r8!, {r8, r9, fp, ip, lr}
    1a18:	09b40000 	ldmibeq	r4!, {}	; <UNPREDICTABLE>
    1a1c:	00040000 	andeq	r0, r4, r0
    1a20:	9f5001f3 	svcls	0x005001f3
	...
    1a34:	00000388 	andeq	r0, r0, r8, lsl #7
    1a38:	000003d0 	ldrdeq	r0, [r0], -r0	; <UNPREDICTABLE>
    1a3c:	d0510001 	subsle	r0, r1, r1
    1a40:	20000003 	andcs	r0, r0, r3
    1a44:	04000009 	streq	r0, [r0], #-9
    1a48:	5101f300 	mrspl	pc, SP_irq	; <UNPREDICTABLE>
    1a4c:	0009209f 	muleq	r9, pc, r0	; <UNPREDICTABLE>
    1a50:	00092800 	andeq	r2, r9, r0, lsl #16
    1a54:	51000100 	mrspl	r0, (UNDEF: 16)
    1a58:	00000928 	andeq	r0, r0, r8, lsr #18
    1a5c:	000009b4 			; <UNDEFINED> instruction: 0x000009b4
    1a60:	01f30004 	mvnseq	r0, r4
    1a64:	00009f51 	andeq	r9, r0, r1, asr pc
	...
    1a74:	00000100 	andeq	r0, r0, r0, lsl #2
    1a78:	00000001 	andeq	r0, r0, r1
	...
    1a84:	03880000 	orreq	r0, r8, #0, 0
    1a88:	03d00000 	bicseq	r0, r0, #0, 0
    1a8c:	00010000 	andeq	r0, r1, r0
    1a90:	0003d052 	andeq	sp, r3, r2, asr r0
    1a94:	00040000 	andeq	r0, r4, r0
    1a98:	56000100 	strpl	r0, [r0], -r0, lsl #2
    1a9c:	00000414 	andeq	r0, r0, r4, lsl r4
    1aa0:	00000424 	andeq	r0, r0, r4, lsr #8
    1aa4:	24560001 	ldrbcs	r0, [r6], #-1
    1aa8:	28000004 	stmdacs	r0, {r2}
    1aac:	03000004 	movweq	r0, #4
    1ab0:	9f7f7600 	svcls	0x007f7600
    1ab4:	000004a8 	andeq	r0, r0, r8, lsr #9
    1ab8:	000004ac 	andeq	r0, r0, ip, lsr #9
    1abc:	e0560001 	subs	r0, r6, r1
    1ac0:	04000004 	streq	r0, [r0], #-4
    1ac4:	01000005 	tsteq	r0, r5
    1ac8:	057c5600 	ldrbeq	r5, [ip, #-1536]!	; 0xfffffa00
    1acc:	05880000 	streq	r0, [r8]
    1ad0:	00010000 	andeq	r0, r1, r0
    1ad4:	00058853 	andeq	r8, r5, r3, asr r8
    1ad8:	0005d000 	andeq	sp, r5, r0
    1adc:	91000300 	mrsls	r0, LR_irq
    1ae0:	08007dcc 	stmdaeq	r0, {r2, r3, r6, r7, r8, sl, fp, ip, sp, lr}
    1ae4:	080f0000 	stmdaeq	pc, {}	; <UNPREDICTABLE>
    1ae8:	00010000 	andeq	r0, r1, r0
    1aec:	00080f53 	andeq	r0, r8, r3, asr pc
    1af0:	00088800 	andeq	r8, r8, r0, lsl #16
    1af4:	91000300 	mrsls	r0, LR_irq
    1af8:	09207dcc 	stmdbeq	r0!, {r2, r3, r6, r7, r8, sl, fp, ip, sp, lr}
    1afc:	09280000 	stmdbeq	r8!, {}	; <UNPREDICTABLE>
    1b00:	00010000 	andeq	r0, r1, r0
    1b04:	00094852 	andeq	r4, r9, r2, asr r8
    1b08:	00096400 	andeq	r6, r9, r0, lsl #8
    1b0c:	91000300 	mrsls	r0, LR_irq
    1b10:	00007dcc 	andeq	r7, r0, ip, asr #27
	...
    1b24:	00010100 	andeq	r0, r1, r0, lsl #2
    1b28:	00010100 	andeq	r0, r1, r0, lsl #2
    1b2c:	02000000 	andeq	r0, r0, #0, 0
    1b30:	02000002 	andeq	r0, r0, #2, 0
    1b34:	01000002 	tsteq	r0, r2
    1b38:	02000001 	andeq	r0, r0, #1, 0
    1b3c:	01000002 	tsteq	r0, r2
    1b40:	00000001 	andeq	r0, r0, r1
    1b44:	00000000 	andeq	r0, r0, r0
    1b48:	03880000 	orreq	r0, r8, #0, 0
    1b4c:	03ac0000 			; <UNDEFINED> instruction: 0x03ac0000
    1b50:	00010000 	andeq	r0, r1, r0
    1b54:	0003ac53 	andeq	sl, r3, r3, asr ip
    1b58:	0003c000 	andeq	ip, r3, r0
    1b5c:	53000300 	movwpl	r0, #768	; 0x300
    1b60:	03d00493 	bicseq	r0, r0, #-1828716544	; 0x93000000
    1b64:	03e80000 	mvneq	r0, #0, 0
    1b68:	00030000 	andeq	r0, r3, r0
    1b6c:	e8049358 	stmda	r4, {r3, r4, r6, r8, r9, ip, pc}
    1b70:	ac000003 	stcge	0, cr0, [r0], {3}
    1b74:	03000004 	movweq	r0, #4
    1b78:	04935800 	ldreq	r5, [r3], #2048	; 0x800
    1b7c:	000004ac 	andeq	r0, r0, ip, lsr #9
    1b80:	000004b0 			; <UNDEFINED> instruction: 0x000004b0
    1b84:	c0530001 	subsgt	r0, r3, r1
    1b88:	c0000004 	andgt	r0, r0, r4
    1b8c:	03000004 	movweq	r0, #4
    1b90:	04935800 	ldreq	r5, [r3], #2048	; 0x800
    1b94:	000004c0 	andeq	r0, r0, r0, asr #9
    1b98:	000004cc 	andeq	r0, r0, ip, asr #9
    1b9c:	04780005 	ldrbteq	r0, [r8], #-5
    1ba0:	cc04939f 	stcgt	3, cr9, [r4], {159}	; 0x9f
    1ba4:	e0000004 	and	r0, r0, r4
    1ba8:	03000004 	movweq	r0, #4
    1bac:	04935800 	ldreq	r5, [r3], #2048	; 0x800
    1bb0:	000004e0 	andeq	r0, r0, r0, ror #9
    1bb4:	00000538 	andeq	r0, r0, r8, lsr r5
    1bb8:	93580003 	cmpls	r8, #3, 0
    1bbc:	00053804 	andeq	r3, r5, r4, lsl #16
    1bc0:	00053c00 	andeq	r3, r5, r0, lsl #24
    1bc4:	78000500 	stmdavc	r0, {r8, sl}
    1bc8:	04939f79 	ldreq	r9, [r3], #3961	; 0xf79
    1bcc:	000005d0 	ldrdeq	r0, [r0], -r0	; <UNPREDICTABLE>
    1bd0:	000005d0 	ldrdeq	r0, [r0], -r0	; <UNPREDICTABLE>
    1bd4:	93580003 	cmpls	r8, #3, 0
    1bd8:	0005d004 	andeq	sp, r5, r4
    1bdc:	0005d400 	andeq	sp, r5, r0, lsl #8
    1be0:	78000500 	stmdavc	r0, {r8, sl}
    1be4:	04939f04 	ldreq	r9, [r3], #3844	; 0xf04
    1be8:	000005f4 	strdeq	r0, [r0], -r4
    1bec:	000005f4 	strdeq	r0, [r0], -r4
    1bf0:	93580003 	cmpls	r8, #3, 0
    1bf4:	0005f404 	andeq	pc, r5, r4, lsl #8
    1bf8:	0005fc00 	andeq	pc, r5, r0, lsl #24
    1bfc:	78000500 	stmdavc	r0, {r8, sl}
    1c00:	04939f04 	ldreq	r9, [r3], #3844	; 0xf04
    1c04:	000005fc 	strdeq	r0, [r0], -ip
    1c08:	000005fc 	strdeq	r0, [r0], -ip
    1c0c:	93580003 	cmpls	r8, #3, 0
    1c10:	0005fc04 	andeq	pc, r5, r4, lsl #24
    1c14:	00060000 	andeq	r0, r6, r0
    1c18:	78000500 	stmdavc	r0, {r8, sl}
    1c1c:	04939f04 	ldreq	r9, [r3], #3844	; 0xf04
    1c20:	00000600 	andeq	r0, r0, r0, lsl #12
    1c24:	00000700 	andeq	r0, r0, r0, lsl #14
    1c28:	93580003 	cmpls	r8, #3, 0
    1c2c:	00070004 	andeq	r0, r7, r4
    1c30:	00070c00 	andeq	r0, r7, r0, lsl #24
    1c34:	78000500 	stmdavc	r0, {r8, sl}
    1c38:	04939f04 	ldreq	r9, [r3], #3844	; 0xf04
    1c3c:	0000070c 	andeq	r0, r0, ip, lsl #14
    1c40:	000007f8 	strdeq	r0, [r0], -r8
    1c44:	93580003 	cmpls	r8, #3, 0
    1c48:	0007f804 	andeq	pc, r7, r4, lsl #16
    1c4c:	0007fc00 	andeq	pc, r7, r0, lsl #24
    1c50:	78000500 	stmdavc	r0, {r8, sl}
    1c54:	04939f04 	ldreq	r9, [r3], #3844	; 0xf04
    1c58:	000007fc 	strdeq	r0, [r0], -ip
    1c5c:	00000800 	andeq	r0, r0, r0, lsl #16
    1c60:	93580003 	cmpls	r8, #3, 0
    1c64:	00088804 	andeq	r8, r8, r4, lsl #16
    1c68:	00092000 	andeq	r2, r9, r0
    1c6c:	58000300 	stmdapl	r0, {r8, r9}
    1c70:	09200493 	stmdbeq	r0!, {r0, r1, r4, r7, sl}
    1c74:	09280000 	stmdbeq	r8!, {}	; <UNPREDICTABLE>
    1c78:	00010000 	andeq	r0, r1, r0
    1c7c:	00096453 	andeq	r6, r9, r3, asr r4
    1c80:	0009b400 	andeq	fp, r9, r0, lsl #8
    1c84:	58000300 	stmdapl	r0, {r8, r9}
    1c88:	00000493 	muleq	r0, r3, r4
    1c8c:	00000000 	andeq	r0, r0, r0
    1c90:	00010000 	andeq	r0, r1, r0
    1c94:	00000000 	andeq	r0, r0, r0
    1c98:	02000000 	andeq	r0, r0, #0, 0
    1c9c:	00000002 	andeq	r0, r0, r2
    1ca0:	00010101 	andeq	r0, r1, r1, lsl #2
    1ca4:	00000000 	andeq	r0, r0, r0
    1ca8:	000003ac 	andeq	r0, r0, ip, lsr #7
    1cac:	000003d0 	ldrdeq	r0, [r0], -r0	; <UNPREDICTABLE>
    1cb0:	d05b0001 	subsle	r0, fp, r1
    1cb4:	d4000003 	strle	r0, [r0], #-3
    1cb8:	01000003 	tsteq	r0, r3
    1cbc:	03d45400 	bicseq	r5, r4, #0, 8
    1cc0:	03d80000 	bicseq	r0, r8, #0, 0
    1cc4:	00030000 	andeq	r0, r3, r0
    1cc8:	d89f7f74 	ldmle	pc, {r2, r4, r5, r6, r8, r9, sl, fp, ip, sp, lr}	; <UNPREDICTABLE>
    1ccc:	fc000003 	stc2	0, cr0, [r0], {3}
    1cd0:	01000003 	tsteq	r0, r3
    1cd4:	04a85400 	strteq	r5, [r8], #1024	; 0x400
    1cd8:	04ac0000 	strteq	r0, [ip], #0
    1cdc:	00010000 	andeq	r0, r1, r0
    1ce0:	0004ac54 	andeq	sl, r4, r4, asr ip
    1ce4:	0004b400 	andeq	fp, r4, r0, lsl #8
    1ce8:	74000300 	strvc	r0, [r0], #-768	; 0xfffffd00
    1cec:	04b49f01 	ldrteq	r9, [r4], #3841	; 0xf01
    1cf0:	04c00000 	strbeq	r0, [r0], #0
    1cf4:	00010000 	andeq	r0, r1, r0
    1cf8:	0004e454 	andeq	lr, r4, r4, asr r4
    1cfc:	0004f400 	andeq	pc, r4, r0, lsl #8
    1d00:	54000100 	strpl	r0, [r0], #-256	; 0xffffff00
    1d04:	000004f4 	strdeq	r0, [r0], -r4
    1d08:	000004f8 	strdeq	r0, [r0], -r8
    1d0c:	01740003 	cmneq	r4, r3
    1d10:	0004f89f 	muleq	r4, pc, r8	; <UNPREDICTABLE>
    1d14:	00050400 	andeq	r0, r5, r0, lsl #8
    1d18:	54000100 	strpl	r0, [r0], #-256	; 0xffffff00
    1d1c:	00000920 	andeq	r0, r0, r0, lsr #18
    1d20:	00000928 	andeq	r0, r0, r8, lsr #18
    1d24:	005b0001 	subseq	r0, fp, r1
    1d28:	00000000 	andeq	r0, r0, r0
    1d2c:	01000000 	mrseq	r0, (UNDEF: 0)
    1d30:	0003ac00 	andeq	sl, r3, r0, lsl #24
    1d34:	0009b400 	andeq	fp, r9, r0, lsl #8
    1d38:	57000100 	strpl	r0, [r0, -r0, lsl #2]
	...
    1d44:	00000002 	andeq	r0, r0, r2
    1d48:	057c0000 	ldrbeq	r0, [ip, #-0]!
    1d4c:	05d00000 	ldrbeq	r0, [r0]
    1d50:	00010000 	andeq	r0, r1, r0
    1d54:	0008005b 	andeq	r0, r8, fp, asr r0
    1d58:	00088800 	andeq	r8, r8, r0, lsl #16
    1d5c:	5b000100 	blpl	2164 <__code_start__-0x5e9c>
    1d60:	00000948 	andeq	r0, r0, r8, asr #18
    1d64:	00000964 	andeq	r0, r0, r4, ror #18
    1d68:	005b0001 	subseq	r0, fp, r1
    1d6c:	00000000 	andeq	r0, r0, r0
    1d70:	03000000 	movweq	r0, #0
    1d74:	00000000 	andeq	r0, r0, r0
    1d78:	00057c00 	andeq	r7, r5, r0, lsl #24
    1d7c:	0005d000 	andeq	sp, r5, r0
    1d80:	59000100 	stmdbpl	r0, {r8}
    1d84:	00000800 	andeq	r0, r0, r0, lsl #16
    1d88:	00000888 	andeq	r0, r0, r8, lsl #17
    1d8c:	48590001 	ldmdami	r9, {r0}^
    1d90:	64000009 	strvs	r0, [r0], #-9
    1d94:	01000009 	tsteq	r0, r9
    1d98:	00005900 	andeq	r5, r0, r0, lsl #18
    1d9c:	00000000 	andeq	r0, r0, r0
    1da0:	00040000 	andeq	r0, r4, r0
    1da4:	00000000 	andeq	r0, r0, r0
    1da8:	03ac0000 			; <UNDEFINED> instruction: 0x03ac0000
    1dac:	03d00000 	bicseq	r0, r0, #0, 0
    1db0:	00010000 	andeq	r0, r1, r0
    1db4:	0003d052 	andeq	sp, r3, r2, asr r0
    1db8:	00092000 	andeq	r2, r9, r0
    1dbc:	f3000400 	vshl.u8	d0, d0, d0
    1dc0:	209f5201 	addscs	r5, pc, r1, lsl #4
    1dc4:	28000009 	stmdacs	r0, {r0, r3}
    1dc8:	01000009 	tsteq	r0, r9
    1dcc:	09285200 	stmdbeq	r8!, {r9, ip, lr}
    1dd0:	09b40000 	ldmibeq	r4!, {}	; <UNPREDICTABLE>
    1dd4:	00040000 	andeq	r0, r4, r0
    1dd8:	9f5201f3 	svcls	0x005201f3
	...
    1de4:	00010100 	andeq	r0, r1, r0, lsl #2
    1de8:	00000000 	andeq	r0, r0, r0
    1dec:	00000001 	andeq	r0, r0, r1
    1df0:	000004e0 	andeq	r0, r0, r0, ror #9
    1df4:	000004e0 	andeq	r0, r0, r0, ror #9
    1df8:	e0500001 	subs	r0, r0, r1
    1dfc:	e8000004 	stmda	r0, {r2}
    1e00:	01000004 	tsteq	r0, r4
    1e04:	05b85500 	ldreq	r5, [r8, #1280]!	; 0x500
    1e08:	05d00000 	ldrbeq	r0, [r0]
    1e0c:	00010000 	andeq	r0, r1, r0
    1e10:	0005f055 	andeq	pc, r5, r5, asr r0	; <UNPREDICTABLE>
    1e14:	0005f400 	andeq	pc, r5, r0, lsl #8
    1e18:	50000100 	andpl	r0, r0, r0, lsl #2
    1e1c:	000007f4 	strdeq	r0, [r0], -r4
    1e20:	000007f8 	strdeq	r0, [r0], -r8
    1e24:	50550001 	subspl	r0, r5, r1
    1e28:	88000008 	stmdahi	r0, {r3}
    1e2c:	01000008 	tsteq	r0, r8
    1e30:	00005500 	andeq	r5, r0, r0, lsl #10
    1e34:	00000000 	andeq	r0, r0, r0
    1e38:	00020000 	andeq	r0, r2, r0
    1e3c:	00000000 	andeq	r0, r0, r0
    1e40:	04140000 	ldreq	r0, [r4], #-0
    1e44:	04180000 	ldreq	r0, [r8], #-0
    1e48:	00020000 	andeq	r0, r2, r0
    1e4c:	04189f30 	ldreq	r9, [r8], #-3888	; 0xfffff0d0
    1e50:	041c0000 	ldreq	r0, [ip], #-0
    1e54:	00010000 	andeq	r0, r1, r0
    1e58:	00042855 	andeq	r2, r4, r5, asr r8
    1e5c:	00043c00 	andeq	r3, r4, r0, lsl #24
    1e60:	55000100 	strpl	r0, [r0, #-256]	; 0xffffff00
    1e64:	00000928 	andeq	r0, r0, r8, lsr #18
    1e68:	00000930 	andeq	r0, r0, r0, lsr r9
    1e6c:	00550001 	subseq	r0, r5, r1
    1e70:	00000000 	andeq	r0, r0, r0
    1e74:	01000000 	mrseq	r0, (UNDEF: 0)
	...
    1e80:	04000000 	streq	r0, [r0], #-0
    1e84:	84000005 	strhi	r0, [r0], #-5
    1e88:	01000005 	tsteq	r0, r5
    1e8c:	05845600 	streq	r5, [r4, #1536]	; 0x600
    1e90:	05880000 	streq	r0, [r8]
    1e94:	00030000 	andeq	r0, r3, r0
    1e98:	889f7e73 	ldmhi	pc, {r0, r1, r4, r5, r6, r9, sl, fp, ip, sp, lr}	; <UNPREDICTABLE>
    1e9c:	d0000005 	andle	r0, r0, r5
    1ea0:	07000005 	streq	r0, [r0, -r5]
    1ea4:	7dcc9100 	stfvcp	f1, [ip]
    1ea8:	9f1c3206 	svcls	0x001c3206
    1eac:	00000800 	andeq	r0, r0, r0, lsl #16
    1eb0:	0000081c 	andeq	r0, r0, ip, lsl r8
    1eb4:	1c560001 	mrrcne	0, 0, r0, r6, cr1
    1eb8:	88000008 	stmdahi	r0, {r3}
    1ebc:	07000008 	streq	r0, [r0, -r8]
    1ec0:	7dcc9100 	stfvcp	f1, [ip]
    1ec4:	9f1c3206 	svcls	0x001c3206
    1ec8:	00000948 	andeq	r0, r0, r8, asr #18
    1ecc:	000009b4 			; <UNDEFINED> instruction: 0x000009b4
    1ed0:	00560001 	subseq	r0, r6, r1
    1ed4:	00000000 	andeq	r0, r0, r0
    1ed8:	04000000 	streq	r0, [r0], #-0
    1edc:	14040206 	strne	r0, [r4], #-518	; 0xfffffdfa
    1ee0:	14000004 	strne	r0, [r0], #-4
    1ee4:	06000004 	streq	r0, [r0], -r4
    1ee8:	08007200 	stmdaeq	r0, {r9, ip, sp, lr}
    1eec:	289f1aff 	ldmcs	pc, {r0, r1, r2, r3, r4, r5, r6, r7, r9, fp, ip}	; <UNPREDICTABLE>
    1ef0:	28000004 	stmdacs	r0, {r2}
    1ef4:	06000004 	streq	r0, [r0], -r4
    1ef8:	08007200 	stmdaeq	r0, {r9, ip, sp, lr}
    1efc:	009f1aff 			; <UNDEFINED> instruction: 0x009f1aff
    1f00:	00000000 	andeq	r0, r0, r0
    1f04:	02000000 	andeq	r0, r0, #0, 0
    1f08:	00000000 	andeq	r0, r0, r0
    1f0c:	0005fc00 	andeq	pc, r5, r0, lsl #24
    1f10:	00070000 	andeq	r0, r7, r0
    1f14:	08000300 	stmdaeq	r0, {r8, r9}
    1f18:	08a89f80 	stmiaeq	r8!, {r7, r8, r9, sl, fp, ip, pc}
    1f1c:	08bc0000 	ldmeq	ip!, {}	; <UNPREDICTABLE>
    1f20:	00030000 	andeq	r0, r3, r0
    1f24:	109f8008 	addsne	r8, pc, r8
    1f28:	20000009 	andcs	r0, r0, r9
    1f2c:	03000009 	movweq	r0, #9
    1f30:	9f800800 	svcls	0x00800800
	...
    1f3c:	00000001 	andeq	r0, r0, r1
    1f40:	05fc0000 	ldrbeq	r0, [ip, #0]!
    1f44:	07000000 	streq	r0, [r0, -r0]
    1f48:	00020000 	andeq	r0, r2, r0
    1f4c:	08a89f30 	stmiaeq	r8!, {r4, r5, r8, r9, sl, fp, ip, pc}
    1f50:	08bc0000 	ldmeq	ip!, {}	; <UNPREDICTABLE>
    1f54:	00020000 	andeq	r0, r2, r0
    1f58:	09109f30 	ldmdbeq	r0, {r4, r5, r8, r9, sl, fp, ip, pc}
    1f5c:	09200000 	stmdbeq	r0!, {}	; <UNPREDICTABLE>
    1f60:	00020000 	andeq	r0, r2, r0
    1f64:	00009f30 	andeq	r9, r0, r0, lsr pc
    1f68:	00000000 	andeq	r0, r0, r0
    1f6c:	00010000 	andeq	r0, r1, r0
    1f70:	00000000 	andeq	r0, r0, r0
    1f74:	000005fc 	strdeq	r0, [r0], -ip
    1f78:	000006e0 	andeq	r0, r0, r0, ror #13
    1f7c:	a8550001 	ldmdage	r5, {r0}^
    1f80:	bc000008 	stclt	0, cr0, [r0], {8}
    1f84:	01000008 	tsteq	r0, r8
    1f88:	09105500 	ldmdbeq	r0, {r8, sl, ip, lr}
    1f8c:	09200000 	stmdbeq	r0!, {}	; <UNPREDICTABLE>
    1f90:	00010000 	andeq	r0, r1, r0
    1f94:	00000055 	andeq	r0, r0, r5, asr r0
    1f98:	00000000 	andeq	r0, r0, r0
    1f9c:	00000100 	andeq	r0, r0, r0, lsl #2
    1fa0:	00000000 	andeq	r0, r0, r0
    1fa4:	0005fc00 	andeq	pc, r5, r0, lsl #24
    1fa8:	0006e000 	andeq	lr, r6, r0
    1fac:	91000400 	tstls	r0, r0, lsl #8
    1fb0:	e09f7dd0 			; <UNDEFINED> instruction: 0xe09f7dd0
    1fb4:	00000006 	andeq	r0, r0, r6
    1fb8:	01000007 	tsteq	r0, r7
    1fbc:	08a85500 	stmiaeq	r8!, {r8, sl, ip, lr}
    1fc0:	08bc0000 	ldmeq	ip!, {}	; <UNPREDICTABLE>
    1fc4:	00040000 	andeq	r0, r4, r0
    1fc8:	9f7dd091 	svcls	0x007dd091
    1fcc:	00000910 	andeq	r0, r0, r0, lsl r9
    1fd0:	00000920 	andeq	r0, r0, r0, lsr #18
    1fd4:	d0910004 	addsle	r0, r1, r4
    1fd8:	00009f7d 	andeq	r9, r0, sp, ror pc
    1fdc:	00000000 	andeq	r0, r0, r0
    1fe0:	00010000 	andeq	r0, r1, r0
    1fe4:	00000000 	andeq	r0, r0, r0
    1fe8:	000005fc 	strdeq	r0, [r0], -ip
    1fec:	00000700 	andeq	r0, r0, r0, lsl #14
    1ff0:	9f380002 	svcls	0x00380002
    1ff4:	000008a8 	andeq	r0, r0, r8, lsr #17
    1ff8:	000008bc 			; <UNDEFINED> instruction: 0x000008bc
    1ffc:	9f380002 	svcls	0x00380002
    2000:	00000910 	andeq	r0, r0, r0, lsl r9
    2004:	00000920 	andeq	r0, r0, r0, lsr #18
    2008:	9f380002 	svcls	0x00380002
	...
    2014:	00070704 	andeq	r0, r7, r4, lsl #14
	...
    2020:	05fc0000 	ldrbeq	r0, [ip, #0]!
    2024:	05fc0000 	ldrbeq	r0, [ip, #0]!
    2028:	00040000 	andeq	r0, r4, r0
    202c:	9f7ed091 	svcls	0x007ed091
    2030:	000005fc 	strdeq	r0, [r0], -ip
    2034:	00000678 	andeq	r0, r0, r8, ror r6
    2038:	d1910004 	orrsle	r0, r1, r4
    203c:	06789f7e 	uhsub16eq	r9, r8, lr
    2040:	06d40000 	ldrbeq	r0, [r4], r0
    2044:	00010000 	andeq	r0, r1, r0
    2048:	0006d45c 	andeq	sp, r6, ip, asr r4
    204c:	00070000 	andeq	r0, r7, r0
    2050:	91000400 	tstls	r0, r0, lsl #8
    2054:	a89f7ed1 	ldmge	pc, {r0, r4, r6, r7, r9, sl, fp, ip, sp, lr}	; <UNPREDICTABLE>
    2058:	bc000008 	stclt	0, cr0, [r0], {8}
    205c:	04000008 	streq	r0, [r0], #-8
    2060:	7ed19100 	atnvcs	f1, f0
    2064:	0009109f 	muleq	r9, pc, r0	; <UNPREDICTABLE>
    2068:	00091400 	andeq	r1, r9, r0, lsl #8
    206c:	91000400 	tstls	r0, r0, lsl #8
    2070:	149f7ed1 	ldrne	r7, [pc], #3793	; 2078 <__code_start__-0x5f88>
    2074:	20000009 	andcs	r0, r0, r9
    2078:	01000009 	tsteq	r0, r9
    207c:	00005c00 	andeq	r5, r0, r0, lsl #24
    2080:	00000000 	andeq	r0, r0, r0
    2084:	01040000 	mrseq	r0, (UNDEF: 4)
    2088:	00000100 	andeq	r0, r0, r0, lsl #2
    208c:	00000608 	andeq	r0, r0, r8, lsl #12
    2090:	000006d0 	ldrdeq	r0, [r0], -r0	; <UNPREDICTABLE>
    2094:	a8550001 	ldmdage	r5, {r0}^
    2098:	b8000008 	stmdalt	r0, {r3}
    209c:	01000008 	tsteq	r0, r8
    20a0:	09105500 	ldmdbeq	r0, {r8, sl, ip, lr}
    20a4:	09200000 	stmdbeq	r0!, {}	; <UNPREDICTABLE>
    20a8:	00010000 	andeq	r0, r1, r0
    20ac:	00000055 	andeq	r0, r0, r5, asr r0
    20b0:	00000000 	andeq	r0, r0, r0
    20b4:	00000400 	andeq	r0, r0, r0, lsl #8
    20b8:	00010000 	andeq	r0, r1, r0
    20bc:	00010000 	andeq	r0, r1, r0
    20c0:	00060800 	andeq	r0, r6, r0, lsl #16
    20c4:	0006b000 	andeq	fp, r6, r0
    20c8:	91000400 	tstls	r0, r0, lsl #8
    20cc:	b09f7ed0 			; <UNDEFINED> instruction: 0xb09f7ed0
    20d0:	c8000006 	stmdagt	r0, {r1, r2}
    20d4:	01000006 	tsteq	r0, r6
    20d8:	06c85000 	strbeq	r5, [r8], r0
    20dc:	06d00000 	ldrbeq	r0, [r0], r0
    20e0:	00040000 	andeq	r0, r4, r0
    20e4:	9f7ed091 	svcls	0x007ed091
    20e8:	000008a8 	andeq	r0, r0, r8, lsr #17
    20ec:	000008b0 			; <UNDEFINED> instruction: 0x000008b0
    20f0:	d0910004 	addsle	r0, r1, r4
    20f4:	08b09f7e 	ldmeq	r0!, {r1, r2, r3, r4, r5, r6, r8, r9, sl, fp, ip, pc}
    20f8:	08b80000 	ldmeq	r8!, {}	; <UNPREDICTABLE>
    20fc:	00010000 	andeq	r0, r1, r0
    2100:	00091053 	andeq	r1, r9, r3, asr r0
    2104:	00092000 	andeq	r2, r9, r0
    2108:	91000400 	tstls	r0, r0, lsl #8
    210c:	009f7ed0 			; <UNDEFINED> instruction: 0x009f7ed0
    2110:	00000000 	andeq	r0, r0, r0
    2114:	04000000 	streq	r0, [r0], #-0
    2118:	01010000 	mrseq	r0, (UNDEF: 1)
    211c:	03030101 	movweq	r0, #12545	; 0x3101
    2120:	00010002 	andeq	r0, r1, r2
    2124:	08000000 	stmdaeq	r0, {}	; <UNPREDICTABLE>
    2128:	24000006 	strcs	r0, [r0], #-6
    212c:	04000006 	streq	r0, [r0], #-6
    2130:	7ed19100 	atnvcs	f1, f0
    2134:	0006849f 	muleq	r6, pc, r4	; <UNPREDICTABLE>
    2138:	00068400 	andeq	r8, r6, r0, lsl #8
    213c:	50000100 	andpl	r0, r0, r0, lsl #2
    2140:	00000684 	andeq	r0, r0, r4, lsl #13
    2144:	00000698 	muleq	r0, r8, r6
    2148:	01700003 	cmneq	r0, r3
    214c:	0006989f 	muleq	r6, pc, r8	; <UNPREDICTABLE>
    2150:	0006a400 	andeq	sl, r6, r0, lsl #8
    2154:	70000300 	andvc	r0, r0, r0, lsl #6
    2158:	06a49f02 	strteq	r9, [r4], r2, lsl #30
    215c:	06a80000 	strteq	r0, [r8], r0
    2160:	00030000 	andeq	r0, r3, r0
    2164:	a89f0370 	ldmge	pc, {r4, r5, r6, r8, r9}	; <UNPREDICTABLE>
    2168:	b8000008 	stmdalt	r0, {r3}
    216c:	04000008 	streq	r0, [r0], #-8
    2170:	7ed19100 	atnvcs	f1, f0
    2174:	0009109f 	muleq	r9, pc, r0	; <UNPREDICTABLE>
    2178:	00091400 	andeq	r1, r9, r0, lsl #8
    217c:	91000400 	tstls	r0, r0, lsl #8
    2180:	149f7ed1 	ldrne	r7, [pc], #3793	; 2188 <__code_start__-0x5e78>
    2184:	20000009 	andcs	r0, r0, r9
    2188:	01000009 	tsteq	r0, r9
    218c:	00005c00 	andeq	r5, r0, r0, lsl #24
    2190:	00000000 	andeq	r0, r0, r0
    2194:	00060000 	andeq	r0, r6, r0
    2198:	01010100 	mrseq	r0, (UNDEF: 17)
    219c:	02010101 	andeq	r0, r1, #1073741824	; 0x40000000
    21a0:	00000100 	andeq	r0, r0, r0, lsl #2
    21a4:	00000608 	andeq	r0, r0, r8, lsl #12
    21a8:	00000624 	andeq	r0, r0, r4, lsr #12
    21ac:	9f310002 	svcls	0x00310002
    21b0:	00000684 	andeq	r0, r0, r4, lsl #13
    21b4:	00000694 	muleq	r0, r4, r6
    21b8:	94520001 	ldrbls	r0, [r2], #-1
    21bc:	a4000006 	strge	r0, [r0], #-6
    21c0:	01000006 	tsteq	r0, r6
    21c4:	06a45900 	strteq	r5, [r4], r0, lsl #18
    21c8:	06a80000 	strteq	r0, [r8], r0
    21cc:	00010000 	andeq	r0, r1, r0
    21d0:	0006a852 	andeq	sl, r6, r2, asr r8
    21d4:	0006a800 	andeq	sl, r6, r0, lsl #16
    21d8:	72000300 	andvc	r0, r0, #0, 6
    21dc:	08a89f01 	stmiaeq	r8!, {r0, r8, r9, sl, fp, ip, pc}
    21e0:	08b80000 	ldmeq	r8!, {}	; <UNPREDICTABLE>
    21e4:	00020000 	andeq	r0, r2, r0
    21e8:	09109f31 	ldmdbeq	r0, {r0, r4, r5, r8, r9, sl, fp, ip, pc}
    21ec:	09200000 	stmdbeq	r0!, {}	; <UNPREDICTABLE>
    21f0:	00020000 	andeq	r0, r2, r0
    21f4:	00009f31 	andeq	r9, r0, r1, lsr pc
    21f8:	00000000 	andeq	r0, r0, r0
    21fc:	06010000 	streq	r0, [r1], -r0
    2200:	00010006 	andeq	r0, r1, r6
    2204:	000006d0 	ldrdeq	r0, [r0], -r0	; <UNPREDICTABLE>
    2208:	000006d0 	ldrdeq	r0, [r0], -r0	; <UNPREDICTABLE>
    220c:	d0910004 	addsle	r0, r1, r4
    2210:	06d09f7e 			; <UNDEFINED> instruction: 0x06d09f7e
    2214:	07000000 	streq	r0, [r0, -r0]
    2218:	00010000 	andeq	r0, r1, r0
    221c:	0008b850 	andeq	fp, r8, r0, asr r8
    2220:	0008bc00 	andeq	fp, r8, r0, lsl #24
    2224:	53000100 	movwpl	r0, #256	; 0x100
	...
    2230:	00000801 	andeq	r0, r0, r1, lsl #16
    2234:	00010100 	andeq	r0, r1, r0, lsl #2
    2238:	06d00701 	ldrbeq	r0, [r0], r1, lsl #14
    223c:	06d00000 	ldrbeq	r0, [r0], r0
    2240:	00060000 	andeq	r0, r6, r0
    2244:	0071007c 	rsbseq	r0, r1, ip, ror r0
    2248:	06e49f22 	strbteq	r9, [r4], r2, lsr #30
    224c:	06e80000 	strbteq	r0, [r8], r0
    2250:	00030000 	andeq	r0, r3, r0
    2254:	e89f7f73 	ldm	pc, {r0, r1, r4, r5, r6, r8, r9, sl, fp, ip, sp, lr}	; <UNPREDICTABLE>
    2258:	f0000006 			; <UNDEFINED> instruction: 0xf0000006
    225c:	01000006 	tsteq	r0, r6
    2260:	06f05300 	ldrbteq	r5, [r0], r0, lsl #6
    2264:	06f80000 	ldrbteq	r0, [r8], r0
    2268:	00030000 	andeq	r0, r3, r0
    226c:	b89f7f73 	ldmlt	pc, {r0, r1, r4, r5, r6, r8, r9, sl, fp, ip, sp, lr}	; <UNPREDICTABLE>
    2270:	b8000008 	stmdalt	r0, {r3}
    2274:	04000008 	streq	r0, [r0], #-8
    2278:	7ed19100 	atnvcs	f1, f0
    227c:	0000009f 	muleq	r0, pc, r0	; <UNPREDICTABLE>
    2280:	00000000 	andeq	r0, r0, r0
    2284:	01000100 	mrseq	r0, (UNDEF: 16)
    2288:	0006d000 	andeq	sp, r6, r0
    228c:	00070000 	andeq	r0, r7, r0
    2290:	08000300 	stmdaeq	r0, {r8, r9}
    2294:	08b89f80 	ldmeq	r8!, {r7, r8, r9, sl, fp, ip, pc}
    2298:	08bc0000 	ldmeq	ip!, {}	; <UNPREDICTABLE>
    229c:	00030000 	andeq	r0, r3, r0
    22a0:	009f8008 	addseq	r8, pc, r8
    22a4:	00000000 	andeq	r0, r0, r0
    22a8:	01000000 	mrseq	r0, (UNDEF: 0)
    22ac:	00000000 	andeq	r0, r0, r0
    22b0:	00000101 	andeq	r0, r0, r1, lsl #2
    22b4:	01010200 	mrseq	r0, R9_usr
    22b8:	0006d000 	andeq	sp, r6, r0
    22bc:	0006e000 	andeq	lr, r6, r0
    22c0:	91000400 	tstls	r0, r0, lsl #8
    22c4:	e09f7dd0 			; <UNDEFINED> instruction: 0xe09f7dd0
    22c8:	e4000006 	str	r0, [r0], #-6
    22cc:	01000006 	tsteq	r0, r6
    22d0:	06e45500 	strbteq	r5, [r4], r0, lsl #10
    22d4:	06e40000 	strbteq	r0, [r4], r0
    22d8:	00030000 	andeq	r0, r3, r0
    22dc:	e49f0172 	ldr	r0, [pc], #370	; 22e4 <__code_start__-0x5d1c>
    22e0:	f0000006 			; <UNDEFINED> instruction: 0xf0000006
    22e4:	03000006 	movweq	r0, #6
    22e8:	9f027200 	svcls	0x00027200
    22ec:	000006f0 	strdeq	r0, [r0], -r0	; <UNPREDICTABLE>
    22f0:	00000700 	andeq	r0, r0, r0, lsl #14
    22f4:	01720003 	cmneq	r2, r3
    22f8:	0007ec9f 	muleq	r7, pc, ip	; <UNPREDICTABLE>
    22fc:	0007f400 	andeq	pc, r7, r0, lsl #8
    2300:	73000300 	movwvc	r0, #768	; 0x300
    2304:	08b89f01 	ldmeq	r8!, {r0, r8, r9, sl, fp, ip, pc}
    2308:	08bc0000 	ldmeq	ip!, {}	; <UNPREDICTABLE>
    230c:	00040000 	andeq	r0, r4, r0
    2310:	9f7dd091 	svcls	0x007dd091
	...
    231c:	08b80004 	ldmeq	r8!, {r2}
    2320:	08bc0000 	ldmeq	ip!, {}	; <UNPREDICTABLE>
    2324:	00020000 	andeq	r0, r2, r0
    2328:	00009f32 	andeq	r9, r0, r2, lsr pc
    232c:	00000000 	andeq	r0, r0, r0
    2330:	00070000 	andeq	r0, r7, r0
    2334:	00060000 	andeq	r0, r6, r0
    2338:	000006d0 	ldrdeq	r0, [r0], -r0	; <UNPREDICTABLE>
    233c:	000006e0 	andeq	r0, r0, r0, ror #13
    2340:	d0910004 	addsle	r0, r1, r4
    2344:	06e09f7d 			; <UNDEFINED> instruction: 0x06e09f7d
    2348:	07000000 	streq	r0, [r0, -r0]
    234c:	00010000 	andeq	r0, r1, r0
    2350:	0008b855 	andeq	fp, r8, r5, asr r8
    2354:	0008bc00 	andeq	fp, r8, r0, lsl #24
    2358:	91000400 	tstls	r0, r0, lsl #8
    235c:	009f7dd0 			; <UNDEFINED> instruction: 0x009f7dd0
    2360:	00000000 	andeq	r0, r0, r0
    2364:	01000000 	mrseq	r0, (UNDEF: 0)
    2368:	0c000000 	stceq	0, cr0, [r0], {-0}
    236c:	ec000007 	stc	0, cr0, [r0], {7}
    2370:	03000007 	movweq	r0, #7
    2374:	9f800800 	svcls	0x00800800
    2378:	00000894 	muleq	r0, r4, r8
    237c:	000008a8 	andeq	r0, r0, r8, lsr #17
    2380:	80080003 	andhi	r0, r8, r3
    2384:	0000009f 	muleq	r0, pc, r0	; <UNPREDICTABLE>
	...
    2390:	00070c00 	andeq	r0, r7, r0, lsl #24
    2394:	0007ec00 	andeq	lr, r7, r0, lsl #24
    2398:	30000200 	andcc	r0, r0, r0, lsl #4
    239c:	0008949f 	muleq	r8, pc, r4	; <UNPREDICTABLE>
    23a0:	0008a800 	andeq	sl, r8, r0, lsl #16
    23a4:	30000200 	andcc	r0, r0, r0, lsl #4
    23a8:	0000009f 	muleq	r0, pc, r0	; <UNPREDICTABLE>
	...
    23b4:	00070c00 	andeq	r0, r7, r0, lsl #24
    23b8:	0007d000 	andeq	sp, r7, r0
    23bc:	55000100 	strpl	r0, [r0, #-256]	; 0xffffff00
    23c0:	00000894 	muleq	r0, r4, r8
    23c4:	000008a8 	andeq	r0, r0, r8, lsr #17
    23c8:	00550001 	subseq	r0, r5, r1
	...
    23d8:	00070c00 	andeq	r0, r7, r0, lsl #24
    23dc:	0007d000 	andeq	sp, r7, r0
    23e0:	91000400 	tstls	r0, r0, lsl #8
    23e4:	d09f7dd0 			; <UNDEFINED> instruction: 0xd09f7dd0
    23e8:	ec000007 	stc	0, cr0, [r0], {7}
    23ec:	01000007 	tsteq	r0, r7
    23f0:	08945500 	ldmeq	r4, {r8, sl, ip, lr}
    23f4:	08a80000 	stmiaeq	r8!, {}	; <UNPREDICTABLE>
    23f8:	00040000 	andeq	r0, r4, r0
    23fc:	9f7dd091 	svcls	0x007dd091
	...
    240c:	0000070c 	andeq	r0, r0, ip, lsl #14
    2410:	000007ec 	andeq	r0, r0, ip, ror #15
    2414:	9f320002 	svcls	0x00320002
    2418:	00000894 	muleq	r0, r4, r8
    241c:	000008a8 	andeq	r0, r0, r8, lsr #17
    2420:	9f320002 	svcls	0x00320002
	...
    242c:	00050503 	andeq	r0, r5, r3, lsl #10
    2430:	00000000 	andeq	r0, r0, r0
    2434:	070c0000 	streq	r0, [ip, -r0]
    2438:	070c0000 	streq	r0, [ip, -r0]
    243c:	00010000 	andeq	r0, r1, r0
    2440:	00070c51 	andeq	r0, r7, r1, asr ip
    2444:	00071c00 	andeq	r1, r7, r0, lsl #24
    2448:	53000100 	movwpl	r0, #256	; 0x100
    244c:	0000071c 	andeq	r0, r0, ip, lsl r7
    2450:	00000724 	andeq	r0, r0, r4, lsr #14
    2454:	01720003 	cmneq	r2, r3
    2458:	0007249f 	muleq	r7, pc, r4	; <UNPREDICTABLE>
    245c:	0007cc00 	andeq	ip, r7, r0, lsl #24
    2460:	53000100 	movwpl	r0, #256	; 0x100
    2464:	00000894 	muleq	r0, r4, r8
    2468:	000008a8 	andeq	r0, r0, r8, lsr #17
    246c:	00530001 	subseq	r0, r3, r1
    2470:	00000000 	andeq	r0, r0, r0
    2474:	05000000 	streq	r0, [r0, #-0]
    2478:	0c000100 	stfeqs	f0, [r0], {-0}
    247c:	20000007 	andcs	r0, r0, r7
    2480:	01000007 	tsteq	r0, r7
    2484:	07245000 	streq	r5, [r4, -r0]!
    2488:	072c0000 	streq	r0, [ip, -r0]!
    248c:	00010000 	andeq	r0, r1, r0
    2490:	00000050 	andeq	r0, r0, r0, asr r0
    2494:	00000000 	andeq	r0, r0, r0
    2498:	00010300 	andeq	r0, r1, r0, lsl #6
    249c:	00072801 	andeq	r2, r7, r1, lsl #16
    24a0:	0007b000 	andeq	fp, r7, r0
    24a4:	55000100 	strpl	r0, [r0, #-256]	; 0xffffff00
    24a8:	00000894 	muleq	r0, r4, r8
    24ac:	000008a0 	andeq	r0, r0, r0, lsr #17
    24b0:	00550001 	subseq	r0, r5, r1
    24b4:	00000000 	andeq	r0, r0, r0
    24b8:	03000000 	movweq	r0, #0
    24bc:	28010001 	stmdacs	r1, {r0}
    24c0:	b0000007 	andlt	r0, r0, r7
    24c4:	01000007 	tsteq	r0, r7
    24c8:	08945100 	ldmeq	r4, {r8, ip, lr}
    24cc:	08a00000 	stmiaeq	r0!, {}	; <UNPREDICTABLE>
    24d0:	00010000 	andeq	r0, r1, r0
    24d4:	00000051 	andeq	r0, r0, r1, asr r0
    24d8:	00000000 	andeq	r0, r0, r0
    24dc:	00000300 	andeq	r0, r0, r0, lsl #6
    24e0:	01010101 	tsteq	r1, r1, lsl #2
    24e4:	00020303 	andeq	r0, r2, r3, lsl #6
    24e8:	00072801 	andeq	r2, r7, r1, lsl #16
    24ec:	00075000 	andeq	r5, r7, r0
    24f0:	53000100 	movwpl	r0, #256	; 0x100
    24f4:	00000774 	andeq	r0, r0, r4, ror r7
    24f8:	00000774 	andeq	r0, r0, r4, ror r7
    24fc:	745e0001 	ldrbvc	r0, [lr], #-1
    2500:	88000007 	stmdahi	r0, {r0, r1, r2}
    2504:	03000007 	movweq	r0, #7
    2508:	9f017e00 	svcls	0x00017e00
    250c:	00000788 	andeq	r0, r0, r8, lsl #15
    2510:	00000794 	muleq	r0, r4, r7
    2514:	027e0003 	rsbseq	r0, lr, #3, 0
    2518:	0007949f 	muleq	r7, pc, r4	; <UNPREDICTABLE>
    251c:	00079800 	andeq	r9, r7, r0, lsl #16
    2520:	7e000300 	cdpvc	3, 0, cr0, cr0, cr0, {0}
    2524:	08949f03 	ldmeq	r4, {r0, r1, r8, r9, sl, fp, ip, pc}
    2528:	08a00000 	stmiaeq	r0!, {}	; <UNPREDICTABLE>
    252c:	00010000 	andeq	r0, r1, r0
    2530:	00000053 	andeq	r0, r0, r3, asr r0
	...
    253c:	01010101 	tsteq	r1, r1, lsl #2
    2540:	00020101 	andeq	r0, r2, r1, lsl #2
    2544:	00072c01 	andeq	r2, r7, r1, lsl #24
    2548:	00075000 	andeq	r5, r7, r0
    254c:	50000100 	andpl	r0, r0, r0, lsl #2
    2550:	00000774 	andeq	r0, r0, r4, ror r7
    2554:	00000784 	andeq	r0, r0, r4, lsl #15
    2558:	84500001 	ldrbhi	r0, [r0], #-1
    255c:	94000007 	strls	r0, [r0], #-7
    2560:	01000007 	tsteq	r0, r7
    2564:	07945b00 	ldreq	r5, [r4, r0, lsl #22]
    2568:	07980000 	ldreq	r0, [r8, r0]
    256c:	00010000 	andeq	r0, r1, r0
    2570:	00079850 	andeq	r9, r7, r0, asr r8
    2574:	00079800 	andeq	r9, r7, r0, lsl #16
    2578:	70000300 	andvc	r0, r0, r0, lsl #6
    257c:	08949f01 	ldmeq	r4, {r0, r8, r9, sl, fp, ip, pc}
    2580:	08a00000 	stmiaeq	r0!, {}	; <UNPREDICTABLE>
    2584:	00010000 	andeq	r0, r1, r0
    2588:	00000050 	andeq	r0, r0, r0, asr r0
    258c:	00000000 	andeq	r0, r0, r0
    2590:	01000100 	mrseq	r0, (UNDEF: 16)
    2594:	0007b000 	andeq	fp, r7, r0
    2598:	0007ec00 	andeq	lr, r7, r0, lsl #24
    259c:	51000100 	mrspl	r0, (UNDEF: 16)
    25a0:	000008a0 	andeq	r0, r0, r0, lsr #17
    25a4:	000008a8 	andeq	r0, r0, r8, lsr #17
    25a8:	00510001 	subseq	r0, r1, r1
    25ac:	00000000 	andeq	r0, r0, r0
    25b0:	01000000 	mrseq	r0, (UNDEF: 0)
    25b4:	00000000 	andeq	r0, r0, r0
    25b8:	01000101 	tsteq	r0, r1, lsl #2
    25bc:	0007b000 	andeq	fp, r7, r0
    25c0:	0007b400 	andeq	fp, r7, r0, lsl #8
    25c4:	73000600 	movwvc	r0, #1536	; 0x600
    25c8:	22007c00 	andcs	r7, r0, #0, 24
    25cc:	0007d49f 	muleq	r7, pc, r4	; <UNPREDICTABLE>
    25d0:	0007d800 	andeq	sp, r7, r0, lsl #16
    25d4:	73000300 	movwvc	r0, #768	; 0x300
    25d8:	07d89f7f 			; <UNDEFINED> instruction: 0x07d89f7f
    25dc:	07e00000 	strbeq	r0, [r0, r0]!
    25e0:	00010000 	andeq	r0, r1, r0
    25e4:	0007e053 	andeq	lr, r7, r3, asr r0
    25e8:	0007e800 	andeq	lr, r7, r0, lsl #16
    25ec:	73000300 	movwvc	r0, #768	; 0x300
    25f0:	08a09f7f 	stmiaeq	r0!, {r0, r1, r2, r3, r4, r5, r6, r8, r9, sl, fp, ip, pc}
    25f4:	08a80000 	stmiaeq	r8!, {}	; <UNPREDICTABLE>
    25f8:	00010000 	andeq	r0, r1, r0
    25fc:	00000053 	andeq	r0, r0, r3, asr r0
    2600:	00000000 	andeq	r0, r0, r0
    2604:	01000100 	mrseq	r0, (UNDEF: 16)
    2608:	0007b000 	andeq	fp, r7, r0
    260c:	0007ec00 	andeq	lr, r7, r0, lsl #24
    2610:	08000300 	stmdaeq	r0, {r8, r9}
    2614:	08a09f80 	stmiaeq	r0!, {r7, r8, r9, sl, fp, ip, pc}
    2618:	08a80000 	stmiaeq	r8!, {}	; <UNPREDICTABLE>
    261c:	00030000 	andeq	r0, r3, r0
    2620:	009f8008 	addseq	r8, pc, r8
    2624:	00000000 	andeq	r0, r0, r0
    2628:	01000000 	mrseq	r0, (UNDEF: 0)
    262c:	00000000 	andeq	r0, r0, r0
    2630:	00000101 	andeq	r0, r0, r1, lsl #2
    2634:	b0000100 	andlt	r0, r0, r0, lsl #2
    2638:	d0000007 	andle	r0, r0, r7
    263c:	04000007 	streq	r0, [r0], #-7
    2640:	7dd09100 	ldfvcp	f1, [r0]
    2644:	0007d09f 	muleq	r7, pc, r0	; <UNPREDICTABLE>
    2648:	0007d400 	andeq	sp, r7, r0, lsl #8
    264c:	55000100 	strpl	r0, [r0, #-256]	; 0xffffff00
    2650:	000007d4 	ldrdeq	r0, [r0], -r4
    2654:	000007d4 	ldrdeq	r0, [r0], -r4
    2658:	017c0003 	cmneq	ip, r3
    265c:	0007d49f 	muleq	r7, pc, r4	; <UNPREDICTABLE>
    2660:	0007e000 	andeq	lr, r7, r0
    2664:	7c000300 	stcvc	3, cr0, [r0], {-0}
    2668:	07e09f02 	strbeq	r9, [r0, r2, lsl #30]!
    266c:	07ec0000 	strbeq	r0, [ip, r0]!
    2670:	00030000 	andeq	r0, r3, r0
    2674:	a09f017c 	addsge	r0, pc, ip, ror r1	; <UNPREDICTABLE>
    2678:	a8000008 	stmdage	r0, {r3}
    267c:	04000008 	streq	r0, [r0], #-8
    2680:	7dd09100 	ldfvcp	f1, [r0]
    2684:	0000009f 	muleq	r0, pc, r0	; <UNPREDICTABLE>
    2688:	00000000 	andeq	r0, r0, r0
    268c:	04000400 	streq	r0, [r0], #-1024	; 0xfffffc00
    2690:	0007b000 	andeq	fp, r7, r0
    2694:	0007b400 	andeq	fp, r7, r0, lsl #8
    2698:	70000300 	andvc	r0, r0, r0, lsl #6
    269c:	08a09f01 	stmiaeq	r0!, {r0, r8, r9, sl, fp, ip, pc}
    26a0:	08a80000 	stmiaeq	r8!, {}	; <UNPREDICTABLE>
    26a4:	00030000 	andeq	r0, r3, r0
    26a8:	009f0170 	addseq	r0, pc, r0, ror r1	; <UNPREDICTABLE>
    26ac:	00000000 	andeq	r0, r0, r0
    26b0:	01000000 	mrseq	r0, (UNDEF: 0)
    26b4:	bc000000 	stclt	0, cr0, [r0], {-0}
    26b8:	d0000007 	andle	r0, r0, r7
    26bc:	04000007 	streq	r0, [r0], #-7
    26c0:	7dd09100 	ldfvcp	f1, [r0]
    26c4:	0007d09f 	muleq	r7, pc, r0	; <UNPREDICTABLE>
    26c8:	0007ec00 	andeq	lr, r7, r0, lsl #24
    26cc:	55000100 	strpl	r0, [r0, #-256]	; 0xffffff00
	...
    26dc:	00000328 	andeq	r0, r0, r8, lsr #6
    26e0:	00000364 	andeq	r0, r0, r4, ror #6
    26e4:	64500001 	ldrbvs	r0, [r0], #-1
    26e8:	88000003 	stmdahi	r0, {r0, r1}
    26ec:	04000003 	streq	r0, [r0], #-3
    26f0:	5001f300 	andpl	pc, r1, r0, lsl #6
    26f4:	0000009f 	muleq	r0, pc, r0	; <UNPREDICTABLE>
	...
    2700:	00032800 	andeq	r2, r3, r0, lsl #16
    2704:	00035c00 	andeq	r5, r3, r0, lsl #24
    2708:	51000100 	mrspl	r0, (UNDEF: 16)
    270c:	0000035c 	andeq	r0, r0, ip, asr r3
    2710:	00000388 	andeq	r0, r0, r8, lsl #7
    2714:	01f30004 	mvnseq	r0, r4
    2718:	00009f51 	andeq	r9, r0, r1, asr pc
	...
    273c:	00140000 	andseq	r0, r4, r0
    2740:	00010000 	andeq	r0, r1, r0
    2744:	00001450 	andeq	r1, r0, r0, asr r4
    2748:	00002000 	andeq	r2, r0, r0
    274c:	5c000100 	stfpls	f0, [r0], {-0}
    2750:	00000020 	andeq	r0, r0, r0, lsr #32
    2754:	00000068 	andeq	r0, r0, r8, rrx
    2758:	02710003 	rsbseq	r0, r1, #3, 0
    275c:	0000689f 	muleq	r0, pc, r8	; <UNPREDICTABLE>
    2760:	00006c00 	andeq	r6, r0, r0, lsl #24
    2764:	73000300 	movwvc	r0, #768	; 0x300
    2768:	006c9f02 	rsbeq	r9, ip, r2, lsl #30
    276c:	01940000 	orrseq	r0, r4, r0
    2770:	00040000 	andeq	r0, r4, r0
    2774:	9f5001f3 	svcls	0x005001f3
    2778:	00000194 	muleq	r0, r4, r1
    277c:	00000198 	muleq	r0, r8, r1
    2780:	02730003 	rsbseq	r0, r3, #3, 0
    2784:	0001989f 	muleq	r1, pc, r8	; <UNPREDICTABLE>
    2788:	0001c000 	andeq	ip, r1, r0
    278c:	f3000400 	vshl.u8	d0, d0, d0
    2790:	c09f5001 	addsgt	r5, pc, r1
    2794:	c8000001 	stmdagt	r0, {r0}
    2798:	01000001 	tsteq	r0, r1
    279c:	01c85c00 	biceq	r5, r8, r0, lsl #24
    27a0:	02140000 	andseq	r0, r4, #0, 0
    27a4:	00030000 	andeq	r0, r3, r0
    27a8:	149f0273 	ldrne	r0, [pc], #627	; 27b0 <__code_start__-0x5850>
    27ac:	ec000002 	stc	0, cr0, [r0], {2}
    27b0:	04000002 	streq	r0, [r0], #-2
    27b4:	5001f300 	andpl	pc, r1, r0, lsl #6
    27b8:	0002ec9f 	muleq	r2, pc, ip	; <UNPREDICTABLE>
    27bc:	0002f400 	andeq	pc, r2, r0, lsl #8
    27c0:	73000300 	movwvc	r0, #768	; 0x300
    27c4:	02f49f02 	rscseq	r9, r4, #2, 30
    27c8:	03280000 			; <UNDEFINED> instruction: 0x03280000
    27cc:	00040000 	andeq	r0, r4, r0
    27d0:	9f5001f3 	svcls	0x005001f3
	...
    27e8:	0000001c 	andeq	r0, r0, ip, lsl r0
    27ec:	1c510001 	mrrcne	0, 0, r0, r1, cr1
    27f0:	e0000000 	and	r0, r0, r0
    27f4:	01000002 	tsteq	r0, r2
    27f8:	02e05000 	rsceq	r5, r0, #0, 0
    27fc:	02ec0000 	rsceq	r0, ip, #0, 0
    2800:	00040000 	andeq	r0, r4, r0
    2804:	9f5101f3 	svcls	0x005101f3
    2808:	000002ec 	andeq	r0, r0, ip, ror #5
    280c:	00000328 	andeq	r0, r0, r8, lsr #6
    2810:	00500001 	subseq	r0, r0, r1
	...
    2820:	00000001 	andeq	r0, r0, r1
    2824:	00000000 	andeq	r0, r0, r0
    2828:	00000202 	andeq	r0, r0, r2, lsl #4
	...
    283c:	70000000 	andvc	r0, r0, r0
    2840:	01000000 	mrseq	r0, (UNDEF: 0)
    2844:	00705200 	rsbseq	r5, r0, r0, lsl #4
    2848:	00780000 	rsbseq	r0, r8, r0
    284c:	00010000 	andeq	r0, r1, r0
    2850:	0000785c 	andeq	r7, r0, ip, asr r8
    2854:	0000a400 	andeq	sl, r0, r0, lsl #8
    2858:	f3000400 	vshl.u8	d0, d0, d0
    285c:	949f5201 	ldrls	r5, [pc], #513	; 2864 <__code_start__-0x579c>
    2860:	9c000001 	stcls	0, cr0, [r0], {1}
    2864:	01000001 	tsteq	r0, r1
    2868:	019c5200 	orrseq	r5, ip, r0, lsl #4
    286c:	01a40000 			; <UNDEFINED> instruction: 0x01a40000
    2870:	00010000 	andeq	r0, r1, r0
    2874:	0001a45c 	andeq	sl, r1, ip, asr r4
    2878:	0001c000 	andeq	ip, r1, r0
    287c:	f3000400 	vshl.u8	d0, d0, d0
    2880:	c09f5201 	addsgt	r5, pc, r1, lsl #4
    2884:	20000001 	andcs	r0, r0, r1
    2888:	01000002 	tsteq	r0, r2
    288c:	02205200 	eoreq	r5, r0, #0, 4
    2890:	02280000 	eoreq	r0, r8, #0, 0
    2894:	00040000 	andeq	r0, r4, r0
    2898:	9f1f0072 	svcls	0x001f0072
    289c:	00000228 	andeq	r0, r0, r8, lsr #4
    28a0:	00000274 	andeq	r0, r0, r4, ror r2
    28a4:	01f30005 	mvnseq	r0, r5
    28a8:	749f1f52 	ldrvc	r1, [pc], #3922	; 28b0 <__code_start__-0x5750>
    28ac:	88000002 	stmdahi	r0, {r1}
    28b0:	01000002 	tsteq	r0, r2
    28b4:	02885200 	addeq	r5, r8, #0, 4
    28b8:	02a00000 	adceq	r0, r0, #0, 0
    28bc:	00010000 	andeq	r0, r1, r0
    28c0:	0002cc5c 	andeq	ip, r2, ip, asr ip
    28c4:	0002d000 	andeq	sp, r2, r0
    28c8:	52000100 	andpl	r0, r0, #0
    28cc:	000002d0 	ldrdeq	r0, [r0], -r0	; <UNPREDICTABLE>
    28d0:	000002e7 	andeq	r0, r0, r7, ror #5
    28d4:	e75c0001 	ldrb	r0, [ip, -r1]
    28d8:	ec000002 	stc	0, cr0, [r0], {2}
    28dc:	04000002 	streq	r0, [r0], #-2
    28e0:	5201f300 	andpl	pc, r1, #0, 6
    28e4:	0002ec9f 	muleq	r2, pc, ip	; <UNPREDICTABLE>
    28e8:	00030000 	andeq	r0, r3, r0
    28ec:	52000100 	andpl	r0, r0, #0
    28f0:	00000300 	andeq	r0, r0, r0, lsl #6
    28f4:	00000328 	andeq	r0, r0, r8, lsr #6
    28f8:	005c0001 	subseq	r0, ip, r1
	...
    2914:	00006800 	andeq	r6, r0, r0, lsl #16
    2918:	53000100 	movwpl	r0, #256	; 0x100
    291c:	00000068 	andeq	r0, r0, r8, rrx
    2920:	0000006c 	andeq	r0, r0, ip, rrx
    2924:	7f080003 	svcvc	0x00080003
    2928:	0001949f 	muleq	r1, pc, r4	; <UNPREDICTABLE>
    292c:	00019800 	andeq	r9, r1, r0, lsl #16
    2930:	08000300 	stmdaeq	r0, {r8, r9}
    2934:	01c09f7f 	biceq	r9, r0, pc, ror pc
    2938:	02140000 	andseq	r0, r4, #0, 0
    293c:	00030000 	andeq	r0, r3, r0
    2940:	749f7f08 	ldrvc	r7, [pc], #3848	; 2948 <__code_start__-0x56b8>
    2944:	90000002 	andls	r0, r0, r2
    2948:	01000002 	tsteq	r0, r2
    294c:	02905300 	addseq	r5, r0, #0, 6
    2950:	02a00000 	adceq	r0, r0, #0, 0
    2954:	00040000 	andeq	r0, r4, r0
    2958:	9f5301f3 	svcls	0x005301f3
    295c:	000002ec 	andeq	r0, r0, ip, ror #5
    2960:	00000328 	andeq	r0, r0, r8, lsr #6
    2964:	7f080003 	svcvc	0x00080003
    2968:	0000009f 	muleq	r0, pc, r0	; <UNPREDICTABLE>
    296c:	00000000 	andeq	r0, r0, r0
    2970:	00000100 	andeq	r0, r0, r0, lsl #2
    2974:	02020000 	andeq	r0, r2, #0, 0
    2978:	01010000 	mrseq	r0, (UNDEF: 1)
	...
    2984:	00000202 	andeq	r0, r0, r2, lsl #4
    2988:	00000100 	andeq	r0, r0, r0, lsl #2
    298c:	00000000 	andeq	r0, r0, r0
    2990:	01010000 	mrseq	r0, (UNDEF: 1)
    2994:	00000000 	andeq	r0, r0, r0
    2998:	00000202 	andeq	r0, r0, r2, lsl #4
    299c:	00000000 	andeq	r0, r0, r0
    29a0:	00000101 	andeq	r0, r0, r1, lsl #2
    29a4:	00001800 	andeq	r1, r0, r0, lsl #16
    29a8:	00007000 	andeq	r7, r0, r0
    29ac:	91000400 	tstls	r0, r0, lsl #8
    29b0:	709f7fa0 	addsvc	r7, pc, r0, lsr #31
    29b4:	78000000 	stmdavc	r0, {}	; <UNPREDICTABLE>
    29b8:	01000000 	mrseq	r0, (UNDEF: 0)
    29bc:	00785200 	rsbseq	r5, r8, r0, lsl #4
    29c0:	00780000 	rsbseq	r0, r8, r0
    29c4:	00010000 	andeq	r0, r1, r0
    29c8:	00007854 	andeq	r7, r0, r4, asr r8
    29cc:	00008800 	andeq	r8, r0, r0, lsl #16
    29d0:	74000300 	strvc	r0, [r0], #-768	; 0xfffffd00
    29d4:	00889f01 	addeq	r9, r8, r1, lsl #30
    29d8:	00900000 	addseq	r0, r0, r0
    29dc:	00010000 	andeq	r0, r1, r0
    29e0:	00009054 	andeq	r9, r0, r4, asr r0
    29e4:	0000a000 	andeq	sl, r0, r0
    29e8:	74000300 	strvc	r0, [r0], #-768	; 0xfffffd00
    29ec:	00a09f02 	adceq	r9, r0, r2, lsl #30
    29f0:	00b00000 	adcseq	r0, r0, r0
    29f4:	00010000 	andeq	r0, r1, r0
    29f8:	0001945e 	andeq	r9, r1, lr, asr r4
    29fc:	00019c00 	andeq	r9, r1, r0, lsl #24
    2a00:	91000400 	tstls	r0, r0, lsl #8
    2a04:	9c9f7fa0 	ldcls	15, cr7, [pc], {160}	; 0xa0
    2a08:	a4000001 	strge	r0, [r0], #-1
    2a0c:	01000001 	tsteq	r0, r1
    2a10:	01a45200 			; <UNDEFINED> instruction: 0x01a45200
    2a14:	01a40000 			; <UNDEFINED> instruction: 0x01a40000
    2a18:	00010000 	andeq	r0, r1, r0
    2a1c:	0001a45e 	andeq	sl, r1, lr, asr r4
    2a20:	0001b400 	andeq	fp, r1, r0, lsl #8
    2a24:	7e000300 	cdpvc	3, 0, cr0, cr0, cr0, {0}
    2a28:	01b49f01 			; <UNDEFINED> instruction: 0x01b49f01
    2a2c:	01c00000 	biceq	r0, r0, r0
    2a30:	00010000 	andeq	r0, r1, r0
    2a34:	0001c05e 	andeq	ip, r1, lr, asr r0
    2a38:	00022800 	andeq	r2, r2, r0, lsl #16
    2a3c:	91000400 	tstls	r0, r0, lsl #8
    2a40:	289f7fa0 	ldmcs	pc, {r5, r7, r8, r9, sl, fp, ip, sp, lr}	; <UNPREDICTABLE>
    2a44:	34000002 	strcc	r0, [r0], #-2
    2a48:	01000002 	tsteq	r0, r2
    2a4c:	02345200 	eorseq	r5, r4, #0, 4
    2a50:	02580000 	subseq	r0, r8, #0, 0
    2a54:	00010000 	andeq	r0, r1, r0
    2a58:	0002585e 	andeq	r5, r2, lr, asr r8
    2a5c:	00025c00 	andeq	r5, r2, r0, lsl #24
    2a60:	7e000300 	cdpvc	3, 0, cr0, cr0, cr0, {0}
    2a64:	025c9f01 	subseq	r9, ip, #1, 30
    2a68:	02640000 	rsbeq	r0, r4, #0, 0
    2a6c:	00010000 	andeq	r0, r1, r0
    2a70:	0002645e 	andeq	r6, r2, lr, asr r4
    2a74:	00027000 	andeq	r7, r2, r0
    2a78:	71000300 	mrsvc	r0, LR_irq
    2a7c:	02709f02 	rsbseq	r9, r0, #2, 30
    2a80:	02740000 	rsbseq	r0, r4, #0, 0
    2a84:	00010000 	andeq	r0, r1, r0
    2a88:	0002745e 	andeq	r7, r2, lr, asr r4
    2a8c:	00027400 	andeq	r7, r2, r0, lsl #8
    2a90:	91000400 	tstls	r0, r0, lsl #8
    2a94:	749f7fa0 	ldrvc	r7, [pc], #4000	; 2a9c <__code_start__-0x5564>
    2a98:	a0000002 	andge	r0, r0, r2
    2a9c:	04000002 	streq	r0, [r0], #-2
    2aa0:	7fa19100 	svcvc	0x00a19100
    2aa4:	0002c09f 	muleq	r2, pc, r0	; <UNPREDICTABLE>
    2aa8:	0002c800 	andeq	ip, r2, r0, lsl #16
    2aac:	5e000100 	adfpls	f0, f0, f0
    2ab0:	000002c8 	andeq	r0, r0, r8, asr #5
    2ab4:	000002cc 	andeq	r0, r0, ip, asr #5
    2ab8:	cc560001 	mrrcgt	0, 0, r0, r6, cr1
    2abc:	ec000002 	stc	0, cr0, [r0], {2}
    2ac0:	04000002 	streq	r0, [r0], #-2
    2ac4:	7fa09100 	svcvc	0x00a09100
    2ac8:	0002ec9f 	muleq	r2, pc, ip	; <UNPREDICTABLE>
    2acc:	0002fc00 	andeq	pc, r2, r0, lsl #24
    2ad0:	91000400 	tstls	r0, r0, lsl #8
    2ad4:	fc9f7fa1 	ldc2	15, cr7, [pc], {161}	; 0xa1
    2ad8:	28000002 	stmdacs	r0, {r1}
    2adc:	01000003 	tsteq	r0, r3
    2ae0:	00005e00 	andeq	r5, r0, r0, lsl #28
	...
    2af8:	00010100 	andeq	r0, r1, r0, lsl #2
	...
    2b0c:	00000020 	andeq	r0, r0, r0, lsr #32
    2b10:	00000070 	andeq	r0, r0, r0, ror r0
    2b14:	70520001 	subsvc	r0, r2, r1
    2b18:	94000000 	strls	r0, [r0], #-0
    2b1c:	01000000 	mrseq	r0, (UNDEF: 0)
    2b20:	01945c00 	orrseq	r5, r4, r0, lsl #24
    2b24:	019c0000 	orrseq	r0, ip, r0
    2b28:	00010000 	andeq	r0, r1, r0
    2b2c:	00019c52 	andeq	r9, r1, r2, asr ip
    2b30:	0001c000 	andeq	ip, r1, r0
    2b34:	5c000100 	stfpls	f0, [r0], {-0}
    2b38:	000001c8 	andeq	r0, r0, r8, asr #3
    2b3c:	00000210 	andeq	r0, r0, r0, lsl r2
    2b40:	105c0001 	subsne	r0, ip, r1
    2b44:	24000002 	strcs	r0, [r0], #-2
    2b48:	01000002 	tsteq	r0, r2
    2b4c:	02245200 	eoreq	r5, r4, #0, 4
    2b50:	02480000 	subeq	r0, r8, #0, 0
    2b54:	00010000 	andeq	r0, r1, r0
    2b58:	0002485c 	andeq	r4, r2, ip, asr r8
    2b5c:	00025c00 	andeq	r5, r2, r0, lsl #24
    2b60:	55000100 	strpl	r0, [r0, #-256]	; 0xffffff00
    2b64:	0000025c 	andeq	r0, r0, ip, asr r2
    2b68:	00000268 	andeq	r0, r0, r8, ror #4
    2b6c:	685c0001 	ldmdavs	ip, {r0}^
    2b70:	74000002 	strvc	r0, [r0], #-2
    2b74:	19000002 	stmdbne	r0, {r1}
    2b78:	f7007500 			; <UNDEFINED> instruction: 0xf7007500
    2b7c:	7625f72c 	strtvc	pc, [r5], -ip, lsr #14
    2b80:	f72cf700 			; <UNDEFINED> instruction: 0xf72cf700
    2b84:	20081e25 	andcs	r1, r8, r5, lsr #28
    2b88:	f72525f7 			; <UNDEFINED> instruction: 0xf72525f7
    2b8c:	3300f72c 	movwcc	pc, #1836	; 0x72c	; <UNPREDICTABLE>
    2b90:	02749f25 	rsbseq	r9, r4, #148	; 0x94
    2b94:	02880000 	addeq	r0, r8, #0, 0
    2b98:	00010000 	andeq	r0, r1, r0
    2b9c:	00028852 	andeq	r8, r2, r2, asr r8
    2ba0:	0002a000 	andeq	sl, r2, r0
    2ba4:	5c000100 	stfpls	f0, [r0], {-0}
    2ba8:	000002cc 	andeq	r0, r0, ip, asr #5
    2bac:	000002d0 	ldrdeq	r0, [r0], -r0	; <UNPREDICTABLE>
    2bb0:	d0520001 	subsle	r0, r2, r1
    2bb4:	e7000002 	str	r0, [r0, -r2]
    2bb8:	01000002 	tsteq	r0, r2
    2bbc:	02e75c00 	rsceq	r5, r7, #0, 24
    2bc0:	02ec0000 	rsceq	r0, ip, #0, 0
    2bc4:	00040000 	andeq	r0, r4, r0
    2bc8:	9f5201f3 	svcls	0x005201f3
    2bcc:	000002ec 	andeq	r0, r0, ip, ror #5
    2bd0:	00000300 	andeq	r0, r0, r0, lsl #6
    2bd4:	00520001 	subseq	r0, r2, r1
    2bd8:	28000003 	stmdacs	r0, {r0, r1}
    2bdc:	01000003 	tsteq	r0, r3
    2be0:	00005c00 	andeq	r5, r0, r0, lsl #24
    2be4:	00000000 	andeq	r0, r0, r0
    2be8:	00040000 	andeq	r0, r4, r0
    2bec:	01000004 	tsteq	r0, r4
    2bf0:	00040000 	andeq	r0, r4, r0
    2bf4:	000000a4 	andeq	r0, r0, r4, lsr #1
    2bf8:	000000b0 	strheq	r0, [r0], -r0	; <UNPREDICTABLE>
    2bfc:	7c530001 	mrrcvc	0, 0, r0, r3, cr1
    2c00:	90000002 	andls	r0, r0, r2
    2c04:	01000002 	tsteq	r0, r2
    2c08:	02905300 	addseq	r5, r0, #0, 6
    2c0c:	029c0000 	addseq	r0, ip, #0, 0
    2c10:	00040000 	andeq	r0, r4, r0
    2c14:	9f5301f3 	svcls	0x005301f3
    2c18:	000002c0 	andeq	r0, r0, r0, asr #5
    2c1c:	000002cc 	andeq	r0, r0, ip, asr #5
    2c20:	f0530001 			; <UNDEFINED> instruction: 0xf0530001
    2c24:	28000002 	stmdacs	r0, {r1}
    2c28:	03000003 	movweq	r0, #3
    2c2c:	9f7f0800 	svcls	0x007f0800
	...
    2c38:	01000004 	tsteq	r0, r4
    2c3c:	01000004 	tsteq	r0, r4
    2c40:	00000000 	andeq	r0, r0, r0
    2c44:	00000004 	andeq	r0, r0, r4
    2c48:	000000a4 	andeq	r0, r0, r4, lsr #1
    2c4c:	000000b0 	strheq	r0, [r0], -r0	; <UNPREDICTABLE>
    2c50:	b0520001 	subslt	r0, r2, r1
    2c54:	5c000000 	stcpl	0, cr0, [r0], {-0}
    2c58:	04000001 	streq	r0, [r0], #-1
    2c5c:	7fa09100 	svcvc	0x00a09100
    2c60:	00027c9f 	muleq	r2, pc, ip	; <UNPREDICTABLE>
    2c64:	00029400 	andeq	r9, r2, r0, lsl #8
    2c68:	91000400 	tstls	r0, r0, lsl #8
    2c6c:	949f7fa0 	ldrls	r7, [pc], #4000	; 2c74 <__code_start__-0x538c>
    2c70:	9c000002 	stcls	0, cr0, [r0], {2}
    2c74:	01000002 	tsteq	r0, r2
    2c78:	02b45e00 	adcseq	r5, r4, #0, 28
    2c7c:	02c00000 	sbceq	r0, r0, #0, 0
    2c80:	00040000 	andeq	r0, r4, r0
    2c84:	9f7fa091 	svcls	0x007fa091
    2c88:	000002c0 	andeq	r0, r0, r0, asr #5
    2c8c:	000002cc 	andeq	r0, r0, ip, asr #5
    2c90:	f0520001 			; <UNDEFINED> instruction: 0xf0520001
    2c94:	00000002 	andeq	r0, r0, r2
    2c98:	04000003 	streq	r0, [r0], #-3
    2c9c:	7fa09100 	svcvc	0x00a09100
    2ca0:	0003009f 	muleq	r3, pc, r0	; <UNPREDICTABLE>
    2ca4:	00032800 	andeq	r2, r3, r0, lsl #16
    2ca8:	52000100 	andpl	r0, r0, #0
	...
    2cb4:	01000004 	tsteq	r0, r4
    2cb8:	03010101 	movweq	r0, #4353	; 0x1101
    2cbc:	01040203 	tsteq	r4, r3, lsl #4
    2cc0:	00000000 	andeq	r0, r0, r0
    2cc4:	00000004 	andeq	r0, r0, r4
    2cc8:	000000a4 	andeq	r0, r0, r4, lsr #1
    2ccc:	000000b0 	strheq	r0, [r0], -r0	; <UNPREDICTABLE>
    2cd0:	0c5e0001 	mrrceq	0, 0, r0, lr, cr1
    2cd4:	0c000001 	stceq	0, cr0, [r0], {1}
    2cd8:	01000001 	tsteq	r0, r1
    2cdc:	010c5500 	tsteq	ip, r0, lsl #10
    2ce0:	01200000 			; <UNDEFINED> instruction: 0x01200000
    2ce4:	00030000 	andeq	r0, r3, r0
    2ce8:	209f0175 	addscs	r0, pc, r5, ror r1	; <UNPREDICTABLE>
    2cec:	2c000001 	stccs	0, cr0, [r0], {1}
    2cf0:	03000001 	movweq	r0, #1
    2cf4:	9f027500 	svcls	0x00027500
    2cf8:	0000012c 	andeq	r0, r0, ip, lsr #2
    2cfc:	00000130 	andeq	r0, r0, r0, lsr r1
    2d00:	03750003 	cmneq	r5, #3, 0
    2d04:	00027c9f 	muleq	r2, pc, ip	; <UNPREDICTABLE>
    2d08:	00029c00 	andeq	r9, r2, r0, lsl #24
    2d0c:	91000400 	tstls	r0, r0, lsl #8
    2d10:	c09f7fa1 	addsgt	r7, pc, r1, lsr #31
    2d14:	c8000002 	stmdagt	r0, {r1}
    2d18:	01000002 	tsteq	r0, r2
    2d1c:	02c85e00 	sbceq	r5, r8, #0, 28
    2d20:	02cc0000 	sbceq	r0, ip, #0, 0
    2d24:	00010000 	andeq	r0, r1, r0
    2d28:	0002f056 	andeq	pc, r2, r6, asr r0	; <UNPREDICTABLE>
    2d2c:	0002fc00 	andeq	pc, r2, r0, lsl #24
    2d30:	91000400 	tstls	r0, r0, lsl #8
    2d34:	fc9f7fa1 	ldc2	15, cr7, [pc], {161}	; 0xa1
    2d38:	28000002 	stmdacs	r0, {r1}
    2d3c:	01000003 	tsteq	r0, r3
    2d40:	00005e00 	andeq	r5, r0, r0, lsl #28
	...
    2d4c:	01010100 	mrseq	r0, (UNDEF: 17)
    2d50:	02010101 	andeq	r0, r1, #1073741824	; 0x40000000
    2d54:	00000106 	andeq	r0, r0, r6, lsl #2
    2d58:	00a80006 	adceq	r0, r8, r6
    2d5c:	00b00000 	adcseq	r0, r0, r0
    2d60:	00010000 	andeq	r0, r1, r0
    2d64:	00010c51 	andeq	r0, r1, r1, asr ip
    2d68:	00011c00 	andeq	r1, r1, r0, lsl #24
    2d6c:	5c000100 	stfpls	f0, [r0], {-0}
    2d70:	0000011c 	andeq	r0, r0, ip, lsl r1
    2d74:	0000012c 	andeq	r0, r0, ip, lsr #2
    2d78:	2c580001 	mrrccs	0, 0, r0, r8, cr1
    2d7c:	30000001 	andcc	r0, r0, r1
    2d80:	01000001 	tsteq	r0, r1
    2d84:	01305c00 	teqeq	r0, r0, lsl #24
    2d88:	01300000 	teqeq	r0, r0
    2d8c:	00030000 	andeq	r0, r3, r0
    2d90:	7c9f017c 	ldfvcs	f0, [pc], {124}	; 0x7c
    2d94:	9c000002 	stcls	0, cr0, [r0], {2}
    2d98:	02000002 	andeq	r0, r0, #2, 0
    2d9c:	c09f3100 	addsgt	r3, pc, r0, lsl #2
    2da0:	cc000002 	stcgt	0, cr0, [r0], {2}
    2da4:	01000002 	tsteq	r0, r2
    2da8:	02f05100 	rscseq	r5, r0, #0
    2dac:	03280000 			; <UNDEFINED> instruction: 0x03280000
    2db0:	00020000 	andeq	r0, r2, r0
    2db4:	00009f31 	andeq	r9, r0, r1, lsr pc
    2db8:	00000000 	andeq	r0, r0, r0
    2dbc:	06010000 	streq	r0, [r1], -r0
    2dc0:	00010106 	andeq	r0, r1, r6, lsl #2
    2dc4:	015c0100 	cmpeq	ip, r0, lsl #2
    2dc8:	015c0000 	cmpeq	ip, r0
    2dcc:	00040000 	andeq	r0, r4, r0
    2dd0:	9f7fa091 	svcls	0x007fa091
    2dd4:	0000015c 	andeq	r0, r0, ip, asr r1
    2dd8:	0000018c 	andeq	r0, r0, ip, lsl #3
    2ddc:	9c520001 	mrrcls	0, 0, r0, r2, cr1
    2de0:	a0000002 	andge	r0, r0, r2
    2de4:	01000002 	tsteq	r0, r2
    2de8:	02a05e00 	adceq	r5, r0, #0, 28
    2dec:	02ac0000 	adceq	r0, ip, #0, 0
    2df0:	00010000 	andeq	r0, r1, r0
    2df4:	00000052 	andeq	r0, r0, r2, asr r0
	...
    2e00:	01000101 	tsteq	r0, r1, lsl #2
    2e04:	00016c07 	andeq	r6, r1, r7, lsl #24
    2e08:	00017000 	andeq	r7, r1, r0
    2e0c:	73000300 	movwvc	r0, #768	; 0x300
    2e10:	01709f7f 	cmneq	r0, pc, ror pc
    2e14:	01780000 	cmneq	r8, r0
    2e18:	00010000 	andeq	r0, r1, r0
    2e1c:	00017853 	andeq	r7, r1, r3, asr r8
    2e20:	00018400 	andeq	r8, r1, r0, lsl #8
    2e24:	73000300 	movwvc	r0, #768	; 0x300
    2e28:	029c9f7f 	addseq	r9, ip, #508	; 0x1fc
    2e2c:	029c0000 	addseq	r0, ip, #0, 0
    2e30:	00040000 	andeq	r0, r4, r0
    2e34:	9f7fa191 	svcls	0x007fa191
	...
    2e40:	01010101 	tsteq	r1, r1, lsl #2
    2e44:	0000015c 	andeq	r0, r0, ip, asr r1
    2e48:	0000018c 	andeq	r0, r0, ip, lsl #3
    2e4c:	80080003 	andhi	r0, r8, r3
    2e50:	00029c9f 	muleq	r2, pc, ip	; <UNPREDICTABLE>
    2e54:	0002ac00 	andeq	sl, r2, r0, lsl #24
    2e58:	08000300 	stmdaeq	r0, {r8, r9}
    2e5c:	00009f80 	andeq	r9, r0, r0, lsl #31
    2e60:	00000000 	andeq	r0, r0, r0
    2e64:	00010000 	andeq	r0, r1, r0
    2e68:	00010100 	andeq	r0, r1, r0, lsl #2
    2e6c:	01010100 	mrseq	r0, (UNDEF: 17)
    2e70:	01010101 	tsteq	r1, r1, lsl #2
    2e74:	0000015c 	andeq	r0, r0, ip, asr r1
    2e78:	0000016c 	andeq	r0, r0, ip, ror #2
    2e7c:	6c500001 	mrrcvs	0, 0, r0, r0, cr1	; <UNPREDICTABLE>
    2e80:	6c000001 	stcvs	0, cr0, [r0], {1}
    2e84:	03000001 	movweq	r0, #1
    2e88:	9f017c00 	svcls	0x00017c00
    2e8c:	0000016c 	andeq	r0, r0, ip, ror #2
    2e90:	00000178 	andeq	r0, r0, r8, ror r1
    2e94:	027c0003 	rsbseq	r0, ip, #3, 0
    2e98:	0001789f 	muleq	r1, pc, r8	; <UNPREDICTABLE>
    2e9c:	00018800 	andeq	r8, r1, r0, lsl #16
    2ea0:	7c000300 	stcvc	3, cr0, [r0], {-0}
    2ea4:	01889f01 	orreq	r9, r8, r1, lsl #30
    2ea8:	018c0000 	orreq	r0, ip, r0
    2eac:	00030000 	andeq	r0, r3, r0
    2eb0:	9c9f017e 	ldflss	f0, [pc], {126}	; 0x7e
    2eb4:	a4000002 	strge	r0, [r0], #-2
    2eb8:	01000002 	tsteq	r0, r2
    2ebc:	02a45000 	adceq	r5, r4, #0, 0
    2ec0:	02ac0000 	adceq	r0, ip, #0, 0
    2ec4:	00030000 	andeq	r0, r3, r0
    2ec8:	009f017e 	addseq	r0, pc, lr, ror r1	; <UNPREDICTABLE>
    2ecc:	00000000 	andeq	r0, r0, r0
    2ed0:	04000000 	streq	r0, [r0], #-0
    2ed4:	00000400 	andeq	r0, r0, r0, lsl #8
    2ed8:	00015c01 	andeq	r5, r1, r1, lsl #24
    2edc:	00016000 	andeq	r6, r1, r0
    2ee0:	71000300 	mrsvc	r0, LR_irq
    2ee4:	029c9f01 	addseq	r9, ip, #1, 30
    2ee8:	02a00000 	adceq	r0, r0, #0, 0
    2eec:	00020000 	andeq	r0, r2, r0
    2ef0:	02a09f32 	adceq	r9, r0, #200	; 0xc8
    2ef4:	02ac0000 	adceq	r0, ip, #0, 0
    2ef8:	00030000 	andeq	r0, r3, r0
    2efc:	009f0171 	addseq	r0, pc, r1, ror r1	; <UNPREDICTABLE>
    2f00:	00000000 	andeq	r0, r0, r0
    2f04:	07000000 	streq	r0, [r0, -r0]
    2f08:	5c000600 	stcpl	6, cr0, [r0], {-0}
    2f0c:	94000001 	strls	r0, [r0], #-1
    2f10:	01000001 	tsteq	r0, r1
    2f14:	029c5000 	addseq	r5, ip, #0, 0
    2f18:	02b40000 	adcseq	r0, r4, #0, 0
    2f1c:	00010000 	andeq	r0, r1, r0
    2f20:	00000050 	andeq	r0, r0, r0, asr r0
    2f24:	00000000 	andeq	r0, r0, r0
    2f28:	01010100 	mrseq	r0, (UNDEF: 17)
    2f2c:	00021400 	andeq	r1, r2, r0, lsl #8
    2f30:	00022000 	andeq	r2, r2, r0
    2f34:	30000200 	andcc	r0, r0, r0, lsl #4
    2f38:	0002209f 	muleq	r2, pc, r0	; <UNPREDICTABLE>
    2f3c:	00023400 	andeq	r3, r2, r0, lsl #8
    2f40:	31000200 	mrscc	r0, R8_usr
    2f44:	0000009f 	muleq	r0, pc, r0	; <UNPREDICTABLE>
    2f48:	00000000 	andeq	r0, r0, r0
    2f4c:	01010000 	mrseq	r0, (UNDEF: 1)
    2f50:	00000202 	andeq	r0, r0, r2, lsl #4
    2f54:	0093b000 	addseq	fp, r3, r0
    2f58:	0093b000 	addseq	fp, r3, r0
    2f5c:	53000100 	movwpl	r0, #256	; 0x100
    2f60:	000093b0 			; <UNDEFINED> instruction: 0x000093b0
    2f64:	000093b0 			; <UNDEFINED> instruction: 0x000093b0
    2f68:	00730007 	rsbseq	r0, r3, r7
    2f6c:	1aefff0b 	bne	ffc02ba0 <__bss_end__+0xffbf86b8>
    2f70:	0093b09f 	umullseq	fp, r3, pc, r0	; <UNPREDICTABLE>
    2f74:	0093b400 	addseq	fp, r3, r0, lsl #8
    2f78:	73000700 	movwvc	r0, #1792	; 0x700
    2f7c:	e7ff0b00 	ldrb	r0, [pc, r0, lsl #22]!
    2f80:	93b49f1a 			; <UNDEFINED> instruction: 0x93b49f1a
    2f84:	93bc0000 			; <UNDEFINED> instruction: 0x93bc0000
    2f88:	00010000 	andeq	r0, r1, r0
    2f8c:	00000053 	andeq	r0, r0, r3, asr r0
    2f90:	00000000 	andeq	r0, r0, r0
    2f94:	01010000 	mrseq	r0, (UNDEF: 1)
    2f98:	00000202 	andeq	r0, r0, r2, lsl #4
    2f9c:	0093a000 	addseq	sl, r3, r0
    2fa0:	0093a000 	addseq	sl, r3, r0
    2fa4:	53000100 	movwpl	r0, #256	; 0x100
    2fa8:	000093a0 	andeq	r9, r0, r0, lsr #7
    2fac:	000093a0 	andeq	r9, r0, r0, lsr #7
    2fb0:	00730007 	rsbseq	r0, r3, r7
    2fb4:	2110000a 	tstcs	r0, sl
    2fb8:	0093a09f 	umullseq	sl, r3, pc, r0	; <UNPREDICTABLE>
    2fbc:	0093a400 	addseq	sl, r3, r0, lsl #8
    2fc0:	73000700 	movwvc	r0, #1792	; 0x700
    2fc4:	18000a00 	stmdane	r0, {r9, fp}
    2fc8:	93a49f21 			; <UNDEFINED> instruction: 0x93a49f21
    2fcc:	93ac0000 			; <UNDEFINED> instruction: 0x93ac0000
    2fd0:	00010000 	andeq	r0, r1, r0
    2fd4:	00000053 	andeq	r0, r0, r3, asr r0
    2fd8:	00000000 	andeq	r0, r0, r0
    2fdc:	01010000 	mrseq	r0, (UNDEF: 1)
    2fe0:	01010000 	mrseq	r0, (UNDEF: 1)
    2fe4:	01010000 	mrseq	r0, (UNDEF: 1)
    2fe8:	01010000 	mrseq	r0, (UNDEF: 1)
    2fec:	01010000 	mrseq	r0, (UNDEF: 1)
    2ff0:	02020000 	andeq	r0, r2, #0, 0
    2ff4:	00008001 	andeq	r8, r0, r1
    2ff8:	00008000 	andeq	r8, r0, r0
    2ffc:	53000100 	movwpl	r0, #256	; 0x100
    3000:	00000080 	andeq	r0, r0, r0, lsl #1
    3004:	0000008c 	andeq	r0, r0, ip, lsl #1
    3008:	04730003 	ldrbteq	r0, [r3], #-3
    300c:	00008c9f 	muleq	r0, pc, ip	; <UNPREDICTABLE>
    3010:	00009400 	andeq	r9, r0, r0, lsl #8
    3014:	51000100 	mrspl	r0, (UNDEF: 16)
    3018:	00000094 	muleq	r0, r4, r0
    301c:	00000098 	muleq	r0, r8, r0
    3020:	08730003 	ldmdaeq	r3!, {r0, r1}^
    3024:	0000989f 	muleq	r0, pc, r8	; <UNPREDICTABLE>
    3028:	0000a400 	andeq	sl, r0, r0, lsl #8
    302c:	51000100 	mrspl	r0, (UNDEF: 16)
    3030:	000000a4 	andeq	r0, r0, r4, lsr #1
    3034:	000000a8 	andeq	r0, r0, r8, lsr #1
    3038:	0c730003 	ldcleq	0, cr0, [r3], #-12
    303c:	0000a89f 	muleq	r0, pc, r8	; <UNPREDICTABLE>
    3040:	0000b400 	andeq	fp, r0, r0, lsl #8
    3044:	51000100 	mrspl	r0, (UNDEF: 16)
    3048:	000000b4 	strheq	r0, [r0], -r4
    304c:	000000b8 	strheq	r0, [r0], -r8
    3050:	10730003 	rsbsne	r0, r3, r3
    3054:	0000b89f 	muleq	r0, pc, r8	; <UNPREDICTABLE>
    3058:	0000c400 	andeq	ip, r0, r0, lsl #8
    305c:	51000100 	mrspl	r0, (UNDEF: 16)
    3060:	000000c4 	andeq	r0, r0, r4, asr #1
    3064:	000000c8 	andeq	r0, r0, r8, asr #1
    3068:	14730003 	ldrbtne	r0, [r3], #-3
    306c:	0000c89f 	muleq	r0, pc, r8	; <UNPREDICTABLE>
    3070:	0000d000 	andeq	sp, r0, r0
    3074:	51000100 	mrspl	r0, (UNDEF: 16)
    3078:	000000d0 	ldrdeq	r0, [r0], -r0	; <UNPREDICTABLE>
    307c:	000000d4 	ldrdeq	r0, [r0], -r4
    3080:	04710003 	ldrbteq	r0, [r1], #-3
    3084:	0000009f 	muleq	r0, pc, r0	; <UNPREDICTABLE>
    3088:	00000000 	andeq	r0, r0, r0
    308c:	d8000200 	stmdale	r0, {r9}
    3090:	e8000000 	stmda	r0, {}	; <UNPREDICTABLE>
    3094:	02000000 	andeq	r0, r0, #0, 0
    3098:	009f3100 	addseq	r3, pc, r0, lsl #2
    309c:	00000000 	andeq	r0, r0, r0
    30a0:	04000000 	streq	r0, [r0], #-0
    30a4:	10010000 	andne	r0, r1, r0
    30a8:	18000095 	stmdane	r0, {r0, r2, r4, r7}
    30ac:	02000095 	andeq	r0, r0, #149, 0	; 0x95
    30b0:	189f3000 	ldmne	pc, {ip, sp}	; <UNPREDICTABLE>
    30b4:	18000095 	stmdane	r0, {r0, r2, r4, r7}
    30b8:	01000095 	swpeq	r0, r5, [r0]	; <UNPREDICTABLE>
    30bc:	00005300 	andeq	r5, r0, r0, lsl #6
    30c0:	00000000 	andeq	r0, r0, r0
    30c4:	00030000 	andeq	r0, r3, r0
    30c8:	00000000 	andeq	r0, r0, r0
    30cc:	95240000 	strls	r0, [r4, #-0]!
    30d0:	95280000 	strls	r0, [r8, #-0]!
    30d4:	00020000 	andeq	r0, r2, r0
    30d8:	95289f30 	strls	r9, [r8, #-3888]!	; 0xfffff0d0
    30dc:	952c0000 	strls	r0, [ip, #-0]!
    30e0:	00010000 	andeq	r0, r1, r0
    30e4:	00952c53 	addseq	r2, r5, r3, asr ip
    30e8:	00953000 	addseq	r3, r5, r0
    30ec:	73000500 	movwvc	r0, #1280	; 0x500
    30f0:	9f214000 	svcls	0x00214000
    30f4:	00009530 	andeq	r9, r0, r0, lsr r5
    30f8:	00009534 	andeq	r9, r0, r4, lsr r5
    30fc:	00530001 	subseq	r0, r3, r1
    3100:	00000000 	andeq	r0, r0, r0
    3104:	02000000 	andeq	r0, r0, #0, 0
    3108:	e4000000 	str	r0, [r0], #-0
    310c:	e8000094 	stmda	r0, {r2, r4, r7}
    3110:	02000094 	andeq	r0, r0, #148, 0	; 0x94
    3114:	e89f3000 	ldm	pc, {ip, sp}	; <UNPREDICTABLE>
    3118:	ec000094 	stc	0, cr0, [r0], {148}	; 0x94
    311c:	01000094 	swpeq	r0, r4, [r0]	; <UNPREDICTABLE>
    3120:	00005000 	andeq	r5, r0, r0
    3124:	00000000 	andeq	r0, r0, r0
    3128:	00020000 	andeq	r0, r2, r0
    312c:	00000000 	andeq	r0, r0, r0
    3130:	94fc0000 	ldrbtls	r0, [ip], #0
    3134:	95000000 	strls	r0, [r0, #-0]
    3138:	00020000 	andeq	r0, r2, r0
    313c:	95009f30 	strls	r9, [r0, #-3888]	; 0xfffff0d0
    3140:	95040000 	strls	r0, [r4, #-0]
    3144:	00010000 	andeq	r0, r1, r0
    3148:	00950453 	addseq	r0, r5, r3, asr r4
    314c:	00950800 	addseq	r0, r5, r0, lsl #16
    3150:	73000500 	movwvc	r0, #1280	; 0x500
    3154:	9f214000 	svcls	0x00214000
    3158:	00009508 	andeq	r9, r0, r8, lsl #10
    315c:	00009510 	andeq	r9, r0, r0, lsl r5
    3160:	00530001 	subseq	r0, r3, r1
	...
    316c:	c8000000 	stmdagt	r0, {}	; <UNPREDICTABLE>
    3170:	d8000000 	stmdale	r0, {}	; <UNPREDICTABLE>
    3174:	01000000 	mrseq	r0, (UNDEF: 0)
    3178:	00d85000 	sbcseq	r5, r8, r0
    317c:	011c0000 	tsteq	ip, r0
    3180:	00040000 	andeq	r0, r4, r0
    3184:	9f5001f3 	svcls	0x005001f3
	...
    3190:	00000002 	andeq	r0, r0, r2
    3194:	000000c8 	andeq	r0, r0, r8, asr #1
    3198:	000000d8 	ldrdeq	r0, [r0], -r8
    319c:	00700007 	rsbseq	r0, r0, r7
    31a0:	1e03e80a 	cdpne	8, 0, cr14, cr3, cr10, {0}
    31a4:	0000d89f 	muleq	r0, pc, r8	; <UNPREDICTABLE>
    31a8:	00011c00 	andeq	r1, r1, r0, lsl #24
    31ac:	f3000800 	vsub.i8	d0, d0, d0
    31b0:	e80a5001 	stmda	sl, {r0, ip, lr}
    31b4:	009f1e03 	addseq	r1, pc, r3, lsl #28
	...
    31c0:	0000dc00 	andeq	sp, r0, r0, lsl #24
    31c4:	00011c00 	andeq	r1, r1, r0, lsl #24
    31c8:	54000100 	strpl	r0, [r0], #-256	; 0xffffff00
	...
    31d4:	00f00001 	rscseq	r0, r0, r1
    31d8:	011c0000 	tsteq	ip, r0
    31dc:	00010000 	andeq	r0, r1, r0
    31e0:	00000056 	andeq	r0, r0, r6, asr r0
	...
    31ec:	0000ec00 	andeq	lr, r0, r0, lsl #24
    31f0:	0000ef00 	andeq	lr, r0, r0, lsl #30
    31f4:	50000100 	andpl	r0, r0, r0, lsl #2
    31f8:	000000ef 	andeq	r0, r0, pc, ror #1
    31fc:	0000011c 	andeq	r0, r0, ip, lsl r1
    3200:	00560001 	subseq	r0, r6, r1
	...
    320c:	00010400 	andeq	r0, r1, r0, lsl #8
    3210:	00010b00 	andeq	r0, r1, r0, lsl #22
    3214:	50000100 	andpl	r0, r0, r0, lsl #2
	...
    3224:	00000020 	andeq	r0, r0, r0, lsr #32
    3228:	00000023 	andeq	r0, r0, r3, lsr #32
    322c:	23500001 	cmpcs	r0, #1, 0
    3230:	30000000 	andcc	r0, r0, r0
    3234:	01000000 	mrseq	r0, (UNDEF: 0)
    3238:	00005400 	andeq	r5, r0, r0, lsl #8
	...
    3244:	00300000 	eorseq	r0, r0, r0
    3248:	003b0000 	eorseq	r0, fp, r0
    324c:	00010000 	andeq	r0, r1, r0
    3250:	00003b50 	andeq	r3, r0, r0, asr fp
    3254:	00007800 	andeq	r7, r0, r0, lsl #16
    3258:	56000100 	strpl	r0, [r0], -r0, lsl #2
	...
    3264:	004c0001 	subeq	r0, ip, r1
    3268:	00780000 	rsbseq	r0, r8, r0
    326c:	00010000 	andeq	r0, r1, r0
    3270:	00000055 	andeq	r0, r0, r5, asr r0
	...
    327c:	00004800 	andeq	r4, r0, r0, lsl #16
    3280:	00004b00 	andeq	r4, r0, r0, lsl #22
    3284:	50000100 	andpl	r0, r0, r0, lsl #2
    3288:	0000004b 	andeq	r0, r0, fp, asr #32
    328c:	00000078 	andeq	r0, r0, r8, ror r0
    3290:	00550001 	subseq	r0, r5, r1
	...
    329c:	00006000 	andeq	r6, r0, r0
    32a0:	00006700 	andeq	r6, r0, r0, lsl #14
    32a4:	50000100 	andpl	r0, r0, r0, lsl #2
	...
    32b4:	00000078 	andeq	r0, r0, r8, ror r0
    32b8:	00000084 	andeq	r0, r0, r4, lsl #1
    32bc:	84500001 	ldrbhi	r0, [r0], #-1
    32c0:	c8000000 	stmdagt	r0, {}	; <UNPREDICTABLE>
    32c4:	04000000 	streq	r0, [r0], #-0
    32c8:	5001f300 	andpl	pc, r1, r0, lsl #6
    32cc:	0000009f 	muleq	r0, pc, r0	; <UNPREDICTABLE>
    32d0:	00000000 	andeq	r0, r0, r0
    32d4:	88000000 	stmdahi	r0, {}	; <UNPREDICTABLE>
    32d8:	c8000000 	stmdagt	r0, {}	; <UNPREDICTABLE>
    32dc:	01000000 	mrseq	r0, (UNDEF: 0)
    32e0:	00005400 	andeq	r5, r0, r0, lsl #8
    32e4:	00000000 	andeq	r0, r0, r0
    32e8:	00010000 	andeq	r0, r1, r0
    32ec:	0000009c 	muleq	r0, ip, r0
    32f0:	000000c8 	andeq	r0, r0, r8, asr #1
    32f4:	00560001 	subseq	r0, r6, r1
	...
    3300:	98000000 	stmdals	r0, {}	; <UNPREDICTABLE>
    3304:	9b000000 	blls	330c <__code_start__-0x4cf4>
    3308:	01000000 	mrseq	r0, (UNDEF: 0)
    330c:	009b5000 	addseq	r5, fp, r0
    3310:	00c80000 	sbceq	r0, r8, r0
    3314:	00010000 	andeq	r0, r1, r0
    3318:	00000056 	andeq	r0, r0, r6, asr r0
    331c:	00000000 	andeq	r0, r0, r0
    3320:	b0000000 	andlt	r0, r0, r0
    3324:	b7000000 	strlt	r0, [r0, -r0]
    3328:	01000000 	mrseq	r0, (UNDEF: 0)
    332c:	00005000 	andeq	r5, r0, r0
	...
    3338:	01580000 	cmpeq	r8, r0
    333c:	01630000 	cmneq	r3, r0
    3340:	00010000 	andeq	r0, r1, r0
    3344:	00016350 	andeq	r6, r1, r0, asr r3
    3348:	00018800 	andeq	r8, r1, r0, lsl #16
    334c:	54000100 	strpl	r0, [r0], #-256	; 0xffffff00
	...
    3358:	01480000 	mrseq	r0, (UNDEF: 72)
    335c:	01580000 	cmpeq	r8, r0
    3360:	00010000 	andeq	r0, r1, r0
    3364:	00000054 	andeq	r0, r0, r4, asr r0
	...
    3374:	00000f00 	andeq	r0, r0, r0, lsl #30
    3378:	50000100 	andpl	r0, r0, r0, lsl #2
    337c:	0000000f 	andeq	r0, r0, pc
    3380:	00000020 	andeq	r0, r0, r0, lsr #32
    3384:	00540001 	subseq	r0, r4, r1
	...
    3394:	0f000000 	svceq	0x00000000
    3398:	01000000 	mrseq	r0, (UNDEF: 0)
    339c:	000f5100 	andeq	r5, pc, r0, lsl #2
    33a0:	00200000 	eoreq	r0, r0, r0
    33a4:	00010000 	andeq	r0, r1, r0
    33a8:	00000055 	andeq	r0, r0, r5, asr r0
	...
    33b4:	00002000 	andeq	r2, r0, r0
    33b8:	00002f00 	andeq	r2, r0, r0, lsl #30
    33bc:	50000100 	andpl	r0, r0, r0, lsl #2
    33c0:	0000002f 	andeq	r0, r0, pc, lsr #32
    33c4:	00000040 	andeq	r0, r0, r0, asr #32
    33c8:	00540001 	subseq	r0, r4, r1
	...
    33d4:	20000000 	andcs	r0, r0, r0
    33d8:	2f000000 	svccs	0x00000000
    33dc:	01000000 	mrseq	r0, (UNDEF: 0)
    33e0:	002f5100 	eoreq	r5, pc, r0, lsl #2
    33e4:	00400000 	subeq	r0, r0, r0
    33e8:	00010000 	andeq	r0, r1, r0
    33ec:	00000055 	andeq	r0, r0, r5, asr r0
	...
    33f8:	50000000 	andpl	r0, r0, r0
    33fc:	98000003 	stmdals	r0, {r0, r1}
    3400:	01000003 	tsteq	r0, r3
    3404:	03985000 	orrseq	r5, r8, #0, 0
    3408:	039b0000 	orrseq	r0, fp, #0, 0
    340c:	00020000 	andeq	r0, r2, r0
    3410:	039b6891 	orrseq	r6, fp, #9502720	; 0x910000
    3414:	03b00000 	movseq	r0, #0, 0
    3418:	00040000 	andeq	r0, r4, r0
    341c:	9f5001f3 	svcls	0x005001f3
	...
    343c:	00000220 	andeq	r0, r0, r0, lsr #4
    3440:	0000027b 	andeq	r0, r0, fp, ror r2
    3444:	7b500001 	blvc	1403450 <__bss_end__+0x13f8f68>
    3448:	84000002 	strhi	r0, [r0], #-2
    344c:	04000002 	streq	r0, [r0], #-2
    3450:	5001f300 	andpl	pc, r1, r0, lsl #6
    3454:	0002849f 	muleq	r2, pc, r4	; <UNPREDICTABLE>
    3458:	00029c00 	andeq	r9, r2, r0, lsl #24
    345c:	50000100 	andpl	r0, r0, r0, lsl #2
    3460:	0000029c 	muleq	r0, ip, r2
    3464:	000002a4 	andeq	r0, r0, r4, lsr #5
    3468:	01f30004 	mvnseq	r0, r4
    346c:	02a49f50 	adceq	r9, r4, #80, 30	; 0x140
    3470:	02a70000 	adceq	r0, r7, #0, 0
    3474:	00010000 	andeq	r0, r1, r0
    3478:	0002a750 	andeq	sl, r2, r0, asr r7
    347c:	0002c800 	andeq	ip, r2, r0, lsl #16
    3480:	f3000400 	vshl.u8	d0, d0, d0
    3484:	c89f5001 	ldmgt	pc, {r0, ip, lr}	; <UNPREDICTABLE>
    3488:	e0000002 	and	r0, r0, r2
    348c:	01000002 	tsteq	r0, r2
    3490:	02e05000 	rsceq	r5, r0, #0, 0
    3494:	02e80000 	rsceq	r0, r8, #0, 0
    3498:	00040000 	andeq	r0, r4, r0
    349c:	9f5001f3 	svcls	0x005001f3
    34a0:	000002e8 	andeq	r0, r0, r8, ror #5
    34a4:	000002eb 	andeq	r0, r0, fp, ror #5
    34a8:	eb500001 	bl	14034b4 <__bss_end__+0x13f8fcc>
    34ac:	38000002 	stmdacc	r0, {r1}
    34b0:	04000003 	streq	r0, [r0], #-3
    34b4:	5001f300 	andpl	pc, r1, r0, lsl #6
    34b8:	0000009f 	muleq	r0, pc, r0	; <UNPREDICTABLE>
	...
    34d4:	00022000 	andeq	r2, r2, r0
    34d8:	00024400 	andeq	r4, r2, r0, lsl #8
    34dc:	51000100 	mrspl	r0, (UNDEF: 16)
    34e0:	00000244 	andeq	r0, r0, r4, asr #4
    34e4:	00000268 	andeq	r0, r0, r8, ror #4
    34e8:	68510001 	ldmdavs	r1, {r0}^
    34ec:	7b000002 	blvc	34fc <__code_start__-0x4b04>
    34f0:	03000002 	movweq	r0, #2
    34f4:	9f017100 	svcls	0x00017100
    34f8:	0000027b 	andeq	r0, r0, fp, ror r2
    34fc:	00000284 	andeq	r0, r0, r4, lsl #5
    3500:	f3380017 	vqadd.u64	d0, d8, d7
    3504:	01f35101 	mvnseq	r5, r1, lsl #2
    3508:	244b4051 	strbcs	r4, [fp], #-81	; 0xffffffaf
    350c:	00080c22 	andeq	r0, r8, r2, lsr #24
    3510:	282d8000 	stmdacs	sp!, {pc}
    3514:	13160001 	tstne	r6, #1, 0
    3518:	0002849f 	muleq	r2, pc, r4	; <UNPREDICTABLE>
    351c:	00029800 	andeq	r9, r2, r0, lsl #16
    3520:	51000100 	mrspl	r0, (UNDEF: 16)
    3524:	00000298 	muleq	r0, r8, r2
    3528:	000002a4 	andeq	r0, r0, r4, lsr #5
    352c:	01f30004 	mvnseq	r0, r4
    3530:	02a49f51 	adceq	r9, r4, #324	; 0x144
    3534:	02a70000 	adceq	r0, r7, #0, 0
    3538:	00010000 	andeq	r0, r1, r0
    353c:	0002a751 	andeq	sl, r2, r1, asr r7
    3540:	0002c800 	andeq	ip, r2, r0, lsl #16
    3544:	f3000400 	vshl.u8	d0, d0, d0
    3548:	c89f5101 	ldmgt	pc, {r0, r8, ip, lr}	; <UNPREDICTABLE>
    354c:	dc000002 	stcle	0, cr0, [r0], {2}
    3550:	01000002 	tsteq	r0, r2
    3554:	02dc5100 	sbcseq	r5, ip, #0
    3558:	03380000 	teqeq	r8, #0, 0
    355c:	00170000 	andseq	r0, r7, r0
    3560:	5101f338 	tstpl	r1, r8, lsr r3	; <UNPREDICTABLE>
    3564:	405101f3 	ldrshmi	r0, [r1], #-19	; 0xffffffed
    3568:	0c22244b 	cfstrseq	mvf2, [r2], #-300	; 0xfffffed4
    356c:	80000008 	andhi	r0, r0, r8
    3570:	0001282d 	andeq	r2, r1, sp, lsr #16
    3574:	009f1316 	addseq	r1, pc, r6, lsl r3	; <UNPREDICTABLE>
	...
    3588:	4c000000 	stcmi	0, cr0, [r0], {-0}
    358c:	5c000002 	stcpl	0, cr0, [r0], {2}
    3590:	01000002 	tsteq	r0, r2
    3594:	025c5200 	subseq	r5, ip, #0, 4
    3598:	02640000 	rsbeq	r0, r4, #0, 0
    359c:	00050000 	andeq	r0, r5, r0
    35a0:	00a0d003 	adceq	sp, r0, r3
    35a4:	00026400 	andeq	r6, r2, r0, lsl #8
    35a8:	00027b00 	andeq	r7, r2, r0, lsl #22
    35ac:	53000100 	movwpl	r0, #256	; 0x100
    35b0:	000002c8 	andeq	r0, r0, r8, asr #5
    35b4:	000002d8 	ldrdeq	r0, [r0], -r8
    35b8:	d8520001 	ldmdale	r2, {r0}^
    35bc:	e3000002 	movw	r0, #2
    35c0:	05000002 	streq	r0, [r0, #-2]
    35c4:	a0d00300 	sbcsge	r0, r0, r0, lsl #6
    35c8:	02e80000 	rsceq	r0, r8, #0, 0
    35cc:	02eb0000 	rsceq	r0, fp, #0, 0
    35d0:	00010000 	andeq	r0, r1, r0
    35d4:	00000053 	andeq	r0, r0, r3, asr r0
    35d8:	00000000 	andeq	r0, r0, r0
    35dc:	30000400 	andcc	r0, r0, r0, lsl #8
    35e0:	34000002 	strcc	r0, [r0], #-2
    35e4:	01000002 	tsteq	r0, r2
    35e8:	00005100 	andeq	r5, r0, r0, lsl #2
    35ec:	00000000 	andeq	r0, r0, r0
    35f0:	00020000 	andeq	r0, r2, r0
    35f4:	0000023c 	andeq	r0, r0, ip, lsr r2
    35f8:	00000244 	andeq	r0, r0, r4, asr #4
    35fc:	9f380002 	svcls	0x00380002
	...
    3608:	023c0002 	eorseq	r0, ip, #2, 0
    360c:	02440000 	subeq	r0, r4, #0, 0
    3610:	00010000 	andeq	r0, r1, r0
    3614:	00000051 	andeq	r0, r0, r1, asr r0
    3618:	00000000 	andeq	r0, r0, r0
    361c:	00000100 	andeq	r0, r0, r0, lsl #2
    3620:	4c000000 	stcmi	0, cr0, [r0], {-0}
    3624:	64000002 	strvs	r0, [r0], #-2
    3628:	01000002 	tsteq	r0, r2
    362c:	02c85100 	sbceq	r5, r8, #0
    3630:	02dc0000 	sbcseq	r0, ip, #0, 0
    3634:	00010000 	andeq	r0, r1, r0
    3638:	0002dc51 	andeq	sp, r2, r1, asr ip
    363c:	0002e800 	andeq	lr, r2, r0, lsl #16
    3640:	38001700 	stmdacc	r0, {r8, r9, sl, ip}
    3644:	f35101f3 	vbsl	q8, <illegal reg q8.5>, <illegal reg q9.5>
    3648:	4b405101 	blmi	1017a54 <__bss_end__+0x100d56c>
    364c:	080c2224 	stmdaeq	ip, {r2, r5, r9, sp}
    3650:	2d800000 	stccs	0, cr0, [r0]
    3654:	16000128 	strne	r0, [r0], -r8, lsr #2
    3658:	00009f13 	andeq	r9, r0, r3, lsl pc
    365c:	00000000 	andeq	r0, r0, r0
    3660:	00010000 	andeq	r0, r1, r0
    3664:	00000000 	andeq	r0, r0, r0
    3668:	024c0000 	subeq	r0, ip, #0, 0
    366c:	025c0000 	subseq	r0, ip, #0, 0
    3670:	00010000 	andeq	r0, r1, r0
    3674:	00025c52 	andeq	r5, r2, r2, asr ip
    3678:	00026400 	andeq	r6, r2, r0, lsl #8
    367c:	03000500 	movweq	r0, #1280	; 0x500
    3680:	0000a0d0 	ldrdeq	sl, [r0], -r0
    3684:	000002c8 	andeq	r0, r0, r8, asr #5
    3688:	000002d8 	ldrdeq	r0, [r0], -r8
    368c:	d8520001 	ldmdale	r2, {r0}^
    3690:	e3000002 	movw	r0, #2
    3694:	05000002 	streq	r0, [r0, #-2]
    3698:	a0d00300 	sbcsge	r0, r0, r0, lsl #6
	...
    36a4:	00040000 	andeq	r0, r4, r0
    36a8:	0000024c 	andeq	r0, r0, ip, asr #4
    36ac:	00000250 	andeq	r0, r0, r0, asr r2
    36b0:	00510001 	subseq	r0, r1, r1
    36b4:	00000000 	andeq	r0, r0, r0
    36b8:	03000000 	movweq	r0, #0
    36bc:	00026400 	andeq	r6, r2, r0, lsl #8
    36c0:	00026800 	andeq	r6, r2, r0, lsl #16
    36c4:	51000100 	mrspl	r0, (UNDEF: 16)
	...
    36d0:	02640003 	rsbeq	r0, r4, #3, 0
    36d4:	02680000 	rsbeq	r0, r8, #0, 0
    36d8:	00010000 	andeq	r0, r1, r0
    36dc:	00000053 	andeq	r0, r0, r3, asr r0
	...
    36ec:	0001bc00 	andeq	fp, r1, r0, lsl #24
    36f0:	0001d300 	andeq	sp, r1, r0, lsl #6
    36f4:	50000100 	andpl	r0, r0, r0, lsl #2
    36f8:	000001d3 	ldrdeq	r0, [r0], -r3
    36fc:	000001f0 	strdeq	r0, [r0], -r0	; <UNPREDICTABLE>
    3700:	f0540001 			; <UNDEFINED> instruction: 0xf0540001
    3704:	08000001 	stmdaeq	r0, {r0}
    3708:	01000002 	tsteq	r0, r2
    370c:	02085000 	andeq	r5, r8, #0, 0
    3710:	02200000 	eoreq	r0, r0, #0, 0
    3714:	00010000 	andeq	r0, r1, r0
    3718:	00000054 	andeq	r0, r0, r4, asr r0
	...
    3724:	0001d800 	andeq	sp, r1, r0, lsl #16
    3728:	0001e300 	andeq	lr, r1, r0, lsl #6
    372c:	50000100 	andpl	r0, r0, r0, lsl #2
    3730:	000001e3 	andeq	r0, r0, r3, ror #3
    3734:	000001f0 	strdeq	r0, [r0], -r0	; <UNPREDICTABLE>
    3738:	00550001 	subseq	r0, r5, r1
	...
    3750:	24000000 	strcs	r0, [r0], #-0
    3754:	38000001 	stmdacc	r0, {r0}
    3758:	01000001 	tsteq	r0, r1
    375c:	01385000 	teqeq	r8, r0
    3760:	013c0000 	teqeq	ip, r0
    3764:	00030000 	andeq	r0, r3, r0
    3768:	3c9f7970 			; <UNDEFINED> instruction: 0x3c9f7970
    376c:	60000001 	andvs	r0, r0, r1
    3770:	01000001 	tsteq	r0, r1
    3774:	01605300 	cmneq	r0, r0, lsl #6
    3778:	01780000 	cmneq	r8, r0
    377c:	00010000 	andeq	r0, r1, r0
    3780:	00017850 	andeq	r7, r1, r0, asr r8
    3784:	00018000 	andeq	r8, r1, r0
    3788:	f3000400 	vshl.u8	d0, d0, d0
    378c:	809f5001 	addshi	r5, pc, r1
    3790:	90000001 	andls	r0, r0, r1
    3794:	01000001 	tsteq	r0, r1
    3798:	01905300 	orrseq	r5, r0, r0, lsl #6
    379c:	019f0000 	orrseq	r0, pc, r0
    37a0:	00020000 	andeq	r0, r2, r0
    37a4:	019f6891 			; <UNDEFINED> instruction: 0x019f6891
    37a8:	01bc0000 			; <UNDEFINED> instruction: 0x01bc0000
    37ac:	00090000 	andeq	r0, r9, r0
    37b0:	235001f3 	cmpcs	r0, #-1073741764	; 0xc000003c
    37b4:	1af80907 	bne	ffe05bd8 <__bss_end__+0xffdfb6f0>
    37b8:	0000009f 	muleq	r0, pc, r0	; <UNPREDICTABLE>
	...
    37c4:	00014400 	andeq	r4, r1, r0, lsl #8
    37c8:	00016000 	andeq	r6, r1, r0
    37cc:	50000100 	andpl	r0, r0, r0, lsl #2
    37d0:	00000180 	andeq	r0, r0, r0, lsl #3
    37d4:	0000019c 	muleq	r0, ip, r1
    37d8:	00500001 	subseq	r0, r0, r1
    37dc:	00000000 	andeq	r0, r0, r0
    37e0:	03000000 	movweq	r0, #0
    37e4:	00013400 	andeq	r3, r1, r0, lsl #8
    37e8:	00013c00 	andeq	r3, r1, r0, lsl #24
    37ec:	38000200 	stmdacc	r0, {r9}
    37f0:	0000009f 	muleq	r0, pc, r0	; <UNPREDICTABLE>
    37f4:	00000000 	andeq	r0, r0, r0
    37f8:	00000300 	andeq	r0, r0, r0, lsl #6
    37fc:	00013400 	andeq	r3, r1, r0, lsl #8
    3800:	00013800 	andeq	r3, r1, r0, lsl #16
    3804:	50000100 	andpl	r0, r0, r0, lsl #2
    3808:	00000138 	andeq	r0, r0, r8, lsr r1
    380c:	0000013c 	andeq	r0, r0, ip, lsr r1
    3810:	79700003 	ldmdbvc	r0!, {r0, r1}^
    3814:	0000009f 	muleq	r0, pc, r0	; <UNPREDICTABLE>
	...
    3828:	30000000 	andcc	r0, r0, r0
    382c:	60000000 	andvs	r0, r0, r0
    3830:	01000000 	mrseq	r0, (UNDEF: 0)
    3834:	00605000 	rsbeq	r5, r0, r0
    3838:	006c0000 	rsbeq	r0, ip, r0
    383c:	00050000 	andeq	r0, r5, r0
    3840:	00a0d003 	adceq	sp, r0, r3
    3844:	00006c00 	andeq	r6, r0, r0, lsl #24
    3848:	00008400 	andeq	r8, r0, r0, lsl #8
    384c:	50000100 	andpl	r0, r0, r0, lsl #2
    3850:	00000084 	andeq	r0, r0, r4, lsl #1
    3854:	0000008c 	andeq	r0, r0, ip, lsl #1
    3858:	01f30004 	mvnseq	r0, r4
    385c:	008c9f50 	addeq	r9, ip, r0, asr pc
    3860:	00ac0000 	adceq	r0, ip, r0
    3864:	00010000 	andeq	r0, r1, r0
    3868:	0000ac50 	andeq	sl, r0, r0, asr ip
    386c:	0000af00 	andeq	sl, r0, r0, lsl #30
    3870:	91000200 	mrsls	r0, R8_usr
    3874:	0000af68 	andeq	sl, r0, r8, ror #30
    3878:	0000cc00 	andeq	ip, r0, r0, lsl #24
    387c:	f3000400 	vshl.u8	d0, d0, d0
    3880:	009f5001 	addseq	r5, pc, r1
	...
    3890:	30000000 	andcc	r0, r0, r0
    3894:	80000000 	andhi	r0, r0, r0
    3898:	01000000 	mrseq	r0, (UNDEF: 0)
    389c:	00805100 	addeq	r5, r0, r0, lsl #2
    38a0:	008c0000 	addeq	r0, ip, r0
    38a4:	00040000 	andeq	r0, r4, r0
    38a8:	9f5101f3 	svcls	0x005101f3
    38ac:	0000008c 	andeq	r0, r0, ip, lsl #1
    38b0:	000000a8 	andeq	r0, r0, r8, lsr #1
    38b4:	a8510001 	ldmdage	r1, {r0}^
    38b8:	cc000000 	stcgt	0, cr0, [r0], {-0}
    38bc:	04000000 	streq	r0, [r0], #-0
    38c0:	5101f300 	mrspl	pc, SP_irq	; <UNPREDICTABLE>
    38c4:	0000009f 	muleq	r0, pc, r0	; <UNPREDICTABLE>
    38c8:	00000000 	andeq	r0, r0, r0
    38cc:	00000100 	andeq	r0, r0, r0, lsl #2
	...
    38d8:	38000000 	stmdacc	r0, {}	; <UNPREDICTABLE>
    38dc:	60000000 	andvs	r0, r0, r0
    38e0:	01000000 	mrseq	r0, (UNDEF: 0)
    38e4:	00605000 	rsbeq	r5, r0, r0
    38e8:	006c0000 	rsbeq	r0, ip, r0
    38ec:	00050000 	andeq	r0, r5, r0
    38f0:	00a0d003 	adceq	sp, r0, r3
    38f4:	00006c00 	andeq	r6, r0, r0, lsl #24
    38f8:	00008400 	andeq	r8, r0, r0, lsl #8
    38fc:	50000100 	andpl	r0, r0, r0, lsl #2
    3900:	00000084 	andeq	r0, r0, r4, lsl #1
    3904:	0000008c 	andeq	r0, r0, ip, lsl #1
    3908:	01f30004 	mvnseq	r0, r4
    390c:	008c9f50 	addeq	r9, ip, r0, asr pc
    3910:	00ac0000 	adceq	r0, ip, r0
    3914:	00010000 	andeq	r0, r1, r0
    3918:	0000ac50 	andeq	sl, r0, r0, asr ip
    391c:	0000af00 	andeq	sl, r0, r0, lsl #30
    3920:	91000200 	mrsls	r0, R8_usr
    3924:	0000af68 	andeq	sl, r0, r8, ror #30
    3928:	0000cc00 	andeq	ip, r0, r0, lsl #24
    392c:	f3000400 	vshl.u8	d0, d0, d0
    3930:	009f5001 	addseq	r5, pc, r1
	...
    3940:	0b000000 	bleq	3948 <__code_start__-0x46b8>
    3944:	01000000 	mrseq	r0, (UNDEF: 0)
    3948:	000b5000 	andeq	r5, fp, r0
    394c:	00140000 	andseq	r0, r4, r0
    3950:	00010000 	andeq	r0, r1, r0
    3954:	00000054 	andeq	r0, r0, r4, asr r0
	...
    3964:	00001800 	andeq	r1, r0, r0, lsl #16
    3968:	51000100 	mrspl	r0, (UNDEF: 16)
    396c:	00000018 	andeq	r0, r0, r8, lsl r0
    3970:	0000002c 	andeq	r0, r0, ip, lsr #32
    3974:	01f30004 	mvnseq	r0, r4
    3978:	00009f51 	andeq	r9, r0, r1, asr pc
    397c:	00000000 	andeq	r0, r0, r0
    3980:	00020000 	andeq	r0, r2, r0
    3984:	00000000 	andeq	r0, r0, r0
    3988:	01000000 	mrseq	r0, (UNDEF: 0)
    398c:	00000001 	andeq	r0, r0, r1
    3990:	00000000 	andeq	r0, r0, r0
    3994:	00000004 	andeq	r0, r0, r4
    3998:	04500001 	ldrbeq	r0, [r0], #-1
    399c:	08000000 	stmdaeq	r0, {}	; <UNPREDICTABLE>
    39a0:	01000000 	mrseq	r0, (UNDEF: 0)
    39a4:	00085200 	andeq	r5, r8, r0, lsl #4
    39a8:	000c0000 	andeq	r0, ip, r0
    39ac:	00030000 	andeq	r0, r3, r0
    39b0:	0c9f0172 	ldfeqs	f0, [pc], {114}	; 0x72
    39b4:	18000000 	stmdane	r0, {}	; <UNPREDICTABLE>
    39b8:	01000000 	mrseq	r0, (UNDEF: 0)
    39bc:	00185200 	andseq	r5, r8, r0, lsl #4
    39c0:	001c0000 	andseq	r0, ip, r0
    39c4:	00010000 	andeq	r0, r1, r0
    39c8:	00001c53 	andeq	r1, r0, r3, asr ip
    39cc:	00002400 	andeq	r2, r0, r0, lsl #8
    39d0:	73000300 	movwvc	r0, #768	; 0x300
    39d4:	00249f01 	eoreq	r9, r4, r1, lsl #30
    39d8:	002c0000 	eoreq	r0, ip, r0
    39dc:	00010000 	andeq	r0, r1, r0
    39e0:	00000053 	andeq	r0, r0, r3, asr r0
    39e4:	00000000 	andeq	r0, r0, r0
    39e8:	02020300 	andeq	r0, r2, #0, 6
    39ec:	00000000 	andeq	r0, r0, r0
    39f0:	18000000 	stmdane	r0, {}	; <UNPREDICTABLE>
    39f4:	01000000 	mrseq	r0, (UNDEF: 0)
    39f8:	00185100 	andseq	r5, r8, r0, lsl #2
    39fc:	001c0000 	andseq	r0, ip, r0
    3a00:	00030000 	andeq	r0, r3, r0
    3a04:	1c9f0171 	ldfnes	f0, [pc], {113}	; 0x71
    3a08:	2c000000 	stccs	0, cr0, [r0], {-0}
    3a0c:	01000000 	mrseq	r0, (UNDEF: 0)
    3a10:	00005100 	andeq	r5, r0, r0, lsl #2
	...
    3a20:	00000008 	andeq	r0, r0, r8
    3a24:	0000000c 	andeq	r0, r0, ip
    3a28:	00720002 	rsbseq	r0, r2, r2
    3a2c:	0000000c 	andeq	r0, r0, ip
    3a30:	00000018 	andeq	r0, r0, r8, lsl r0
    3a34:	00730002 	rsbseq	r0, r3, r2
    3a38:	0000001c 	andeq	r0, r0, ip, lsl r0
    3a3c:	0000002c 	andeq	r0, r0, ip, lsr #32
    3a40:	00520001 	subseq	r0, r2, r1
	...
    3a58:	14000000 	strne	r0, [r0], #-0
    3a5c:	01000000 	mrseq	r0, (UNDEF: 0)
    3a60:	00145000 	andseq	r5, r4, r0
    3a64:	00180000 	andseq	r0, r8, r0
    3a68:	00030000 	andeq	r0, r3, r0
    3a6c:	189f0170 	ldmne	pc, {r4, r5, r6, r8}	; <UNPREDICTABLE>
    3a70:	20000000 	andcs	r0, r0, r0
    3a74:	01000000 	mrseq	r0, (UNDEF: 0)
    3a78:	00245000 	eoreq	r5, r4, r0
    3a7c:	00280000 	eoreq	r0, r8, r0
    3a80:	00010000 	andeq	r0, r1, r0
    3a84:	00002850 	andeq	r2, r0, r0, asr r8
    3a88:	00003000 	andeq	r3, r0, r0
    3a8c:	70000300 	andvc	r0, r0, r0, lsl #6
    3a90:	00389f01 	eorseq	r9, r8, r1, lsl #30
    3a94:	00400000 	subeq	r0, r0, r0
    3a98:	00010000 	andeq	r0, r1, r0
    3a9c:	00000050 	andeq	r0, r0, r0, asr r0
	...
    3aac:	24000000 	strcs	r0, [r0], #-0
    3ab0:	01000000 	mrseq	r0, (UNDEF: 0)
    3ab4:	00245100 	eoreq	r5, r4, r0, lsl #2
    3ab8:	00280000 	eoreq	r0, r8, r0
    3abc:	00010000 	andeq	r0, r1, r0
    3ac0:	0000285c 	andeq	r2, r0, ip, asr r8
    3ac4:	00004400 	andeq	r4, r0, r0, lsl #8
    3ac8:	51000100 	mrspl	r0, (UNDEF: 16)
	...
    3ad4:	00020200 	andeq	r0, r2, r0, lsl #4
    3ad8:	00000000 	andeq	r0, r0, r0
    3adc:	00040000 	andeq	r0, r4, r0
    3ae0:	00010000 	andeq	r0, r1, r0
    3ae4:	00000451 	andeq	r0, r0, r1, asr r4
    3ae8:	00000800 	andeq	r0, r0, r0, lsl #16
    3aec:	71000300 	mrsvc	r0, LR_irq
    3af0:	00089f01 	andeq	r9, r8, r1, lsl #30
    3af4:	00180000 	andseq	r0, r8, r0
    3af8:	00010000 	andeq	r0, r1, r0
    3afc:	00000051 	andeq	r0, r0, r1, asr r0
    3b00:	00000000 	andeq	r0, r0, r0
    3b04:	00000200 	andeq	r0, r0, r0, lsl #4
    3b08:	04000000 	streq	r0, [r0], #-0
    3b0c:	01000000 	mrseq	r0, (UNDEF: 0)
    3b10:	00005000 	andeq	r5, r0, r0
	...
    3b20:	00080000 	andeq	r0, r8, r0
    3b24:	00010000 	andeq	r0, r1, r0
    3b28:	00000850 	andeq	r0, r0, r0, asr r8
    3b2c:	00003000 	andeq	r3, r0, r0
    3b30:	f3000400 	vshl.u8	d0, d0, d0
    3b34:	009f5001 	addseq	r5, pc, r1
	...
    3b44:	08000000 	stmdaeq	r0, {}	; <UNPREDICTABLE>
    3b48:	01000000 	mrseq	r0, (UNDEF: 0)
    3b4c:	00085100 	andeq	r5, r8, r0, lsl #2
    3b50:	00300000 	eorseq	r0, r0, r0
    3b54:	00040000 	andeq	r0, r4, r0
    3b58:	9f5101f3 	svcls	0x005101f3
	...
    3b68:	02010000 	andeq	r0, r1, #0, 0
    3b6c:	00000002 	andeq	r0, r0, r2
    3b70:	00040000 	andeq	r0, r4, r0
    3b74:	00010000 	andeq	r0, r1, r0
    3b78:	00000452 	andeq	r0, r0, r2, asr r4
    3b7c:	00000800 	andeq	r0, r0, r0, lsl #16
    3b80:	f3000400 	vshl.u8	d0, d0, d0
    3b84:	089f5201 	ldmeq	pc, {r0, r9, ip, lr}	; <UNPREDICTABLE>
    3b88:	18000000 	stmdane	r0, {}	; <UNPREDICTABLE>
    3b8c:	06000000 	streq	r0, [r0], -r0
    3b90:	5201f300 	andpl	pc, r1, #0, 6
    3b94:	189f1c31 	ldmne	pc, {r0, r4, r5, sl, fp, ip}	; <UNPREDICTABLE>
    3b98:	18000000 	stmdane	r0, {}	; <UNPREDICTABLE>
    3b9c:	04000000 	streq	r0, [r0], #-0
    3ba0:	5201f300 	andpl	pc, r1, #0, 6
    3ba4:	0000189f 	muleq	r0, pc, r8	; <UNPREDICTABLE>
    3ba8:	00003000 	andeq	r3, r0, r0
    3bac:	f3000600 	vmax.u8	d0, d0, d0
    3bb0:	1c315201 	lfmne	f5, 4, [r1], #-4
    3bb4:	0000009f 	muleq	r0, pc, r0	; <UNPREDICTABLE>
    3bb8:	00000000 	andeq	r0, r0, r0
    3bbc:	00000200 	andeq	r0, r0, r0, lsl #4
    3bc0:	00000100 	andeq	r0, r0, r0, lsl #2
    3bc4:	00000000 	andeq	r0, r0, r0
    3bc8:	00000c00 	andeq	r0, r0, r0, lsl #24
    3bcc:	50000100 	andpl	r0, r0, r0, lsl #2
    3bd0:	0000000c 	andeq	r0, r0, ip
    3bd4:	00000018 	andeq	r0, r0, r8, lsl r0
    3bd8:	7f700003 	svcvc	0x00700003
    3bdc:	0000189f 	muleq	r0, pc, r8	; <UNPREDICTABLE>
    3be0:	00002400 	andeq	r2, r0, r0, lsl #8
    3be4:	50000100 	andpl	r0, r0, r0, lsl #2
    3be8:	00000028 	andeq	r0, r0, r8, lsr #32
    3bec:	0000002c 	andeq	r0, r0, ip, lsr #32
    3bf0:	7f700003 	svcvc	0x00700003
    3bf4:	0000009f 	muleq	r0, pc, r0	; <UNPREDICTABLE>
    3bf8:	00000000 	andeq	r0, r0, r0
    3bfc:	00000200 	andeq	r0, r0, r0, lsl #4
    3c00:	00000000 	andeq	r0, r0, r0
    3c04:	0c000000 	stceq	0, cr0, [r0], {-0}
    3c08:	01000000 	mrseq	r0, (UNDEF: 0)
    3c0c:	000c5100 	andeq	r5, ip, r0, lsl #2
    3c10:	00100000 	andseq	r0, r0, r0
    3c14:	00030000 	andeq	r0, r3, r0
    3c18:	109f0171 	addsne	r0, pc, r1, ror r1	; <UNPREDICTABLE>
    3c1c:	30000000 	andcc	r0, r0, r0
    3c20:	01000000 	mrseq	r0, (UNDEF: 0)
    3c24:	00005100 	andeq	r5, r0, r0, lsl #2
    3c28:	00000000 	andeq	r0, r0, r0
	...

Disassembly of section .debug_aranges:

00000000 <.debug_aranges>:
   0:	0000001c 	andeq	r0, r0, ip, lsl r0
   4:	00000002 	andeq	r0, r0, r2
   8:	00040000 	andeq	r0, r4, r0
   c:	00000000 	andeq	r0, r0, r0
  10:	00008040 	andeq	r8, r0, r0, asr #32
  14:	000000bc 	strheq	r0, [r0], -ip
	...
  20:	0000001c 	andeq	r0, r0, ip, lsl r0
  24:	02bb0002 	adcseq	r0, fp, #2, 0
  28:	00040000 	andeq	r0, r4, r0
  2c:	00000000 	andeq	r0, r0, r0
  30:	00008100 	andeq	r8, r0, r0, lsl #2
  34:	00000640 	andeq	r0, r0, r0, asr #12
	...
  40:	0000001c 	andeq	r0, r0, ip, lsl r0
  44:	2d340002 	ldccs	0, cr0, [r4, #-8]!
  48:	00040000 	andeq	r0, r4, r0
  4c:	00000000 	andeq	r0, r0, r0
  50:	00008740 	andeq	r8, r0, r0, asr #14
  54:	000001a0 	andeq	r0, r0, r0, lsr #3
	...
  60:	0000001c 	andeq	r0, r0, ip, lsl r0
  64:	33510002 	cmpcc	r1, #2, 0
  68:	00040000 	andeq	r0, r4, r0
  6c:	00000000 	andeq	r0, r0, r0
  70:	000088e0 	andeq	r8, r0, r0, ror #17
  74:	00000078 	andeq	r0, r0, r8, ror r0
	...
  80:	0000001c 	andeq	r0, r0, ip, lsl r0
  84:	34950002 	ldrcc	r0, [r5], #2
  88:	00040000 	andeq	r0, r4, r0
  8c:	00000000 	andeq	r0, r0, r0
  90:	00008958 	andeq	r8, r0, r8, asr r9
  94:	00000058 	andeq	r0, r0, r8, asr r0
	...
  a0:	0000001c 	andeq	r0, r0, ip, lsl r0
  a4:	36360002 	ldrtcc	r0, [r6], -r2
  a8:	00040000 	andeq	r0, r4, r0
  ac:	00000000 	andeq	r0, r0, r0
  b0:	000089b0 			; <UNDEFINED> instruction: 0x000089b0
  b4:	00000038 	andeq	r0, r0, r8, lsr r0
	...
  c0:	0000001c 	andeq	r0, r0, ip, lsl r0
  c4:	372d0002 	strcc	r0, [sp, -r2]!
  c8:	00040000 	andeq	r0, r4, r0
  cc:	00000000 	andeq	r0, r0, r0
  d0:	000089e8 	andeq	r8, r0, r8, ror #19
  d4:	000009b4 			; <UNDEFINED> instruction: 0x000009b4
	...
  e0:	0000001c 	andeq	r0, r0, ip, lsl r0
  e4:	43b00002 	movsmi	r0, #2, 0
  e8:	00040000 	andeq	r0, r4, r0
  ec:	00000000 	andeq	r0, r0, r0
  f0:	0000939c 	muleq	r0, ip, r3
  f4:	00000020 	andeq	r0, r0, r0, lsr #32
	...
 100:	0000001c 	andeq	r0, r0, ip, lsl r0
 104:	44be0002 	ldrtmi	r0, [lr], #2
 108:	00040000 	andeq	r0, r4, r0
 10c:	00000000 	andeq	r0, r0, r0
 110:	000093bc 			; <UNDEFINED> instruction: 0x000093bc
 114:	0000002c 	andeq	r0, r0, ip, lsr #32
	...
 120:	0000001c 	andeq	r0, r0, ip, lsl r0
 124:	45f10002 	ldrbmi	r0, [r1, #2]!
 128:	00040000 	andeq	r0, r4, r0
 12c:	00000000 	andeq	r0, r0, r0
 130:	000093e8 	andeq	r9, r0, r8, ror #7
 134:	000000f8 	strdeq	r0, [r0], -r8
	...
 140:	0000001c 	andeq	r0, r0, ip, lsl r0
 144:	47850002 	strmi	r0, [r5, r2]
 148:	00040000 	andeq	r0, r4, r0
 14c:	00000000 	andeq	r0, r0, r0
 150:	000094e0 	andeq	r9, r0, r0, ror #9
 154:	00000004 	andeq	r0, r0, r4
	...
 160:	0000001c 	andeq	r0, r0, ip, lsl r0
 164:	48570002 	ldmdami	r7, {r1}^
 168:	00040000 	andeq	r0, r4, r0
 16c:	00000000 	andeq	r0, r0, r0
 170:	000094e4 	andeq	r9, r0, r4, ror #9
 174:	0000008c 	andeq	r0, r0, ip, lsl #1
	...
 180:	0000001c 	andeq	r0, r0, ip, lsl r0
 184:	4ad80002 	bmi	ff600194 <__bss_end__+0xff5f5cac>
 188:	00040000 	andeq	r0, r4, r0
 18c:	00000000 	andeq	r0, r0, r0
 190:	00009570 	andeq	r9, r0, r0, ror r5
 194:	0000011c 	andeq	r0, r0, ip, lsl r1
	...
 1a0:	0000001c 	andeq	r0, r0, ip, lsl r0
 1a4:	501b0002 	andspl	r0, fp, r2
 1a8:	00040000 	andeq	r0, r4, r0
 1ac:	00000000 	andeq	r0, r0, r0
 1b0:	0000968c 	andeq	r9, r0, ip, lsl #13
 1b4:	000001f0 	strdeq	r0, [r0], -r0	; <UNPREDICTABLE>
	...
 1c0:	0000001c 	andeq	r0, r0, ip, lsl r0
 1c4:	55ec0002 	strbpl	r0, [ip, #2]!
 1c8:	00040000 	andeq	r0, r4, r0
 1cc:	00000000 	andeq	r0, r0, r0
 1d0:	0000987c 	andeq	r9, r0, ip, ror r8
 1d4:	000003b0 			; <UNDEFINED> instruction: 0x000003b0
	...
 1e0:	0000001c 	andeq	r0, r0, ip, lsl r0
 1e4:	5ed90002 	cdppl	0, 13, cr0, cr9, cr2, {0}
 1e8:	00040000 	andeq	r0, r4, r0
 1ec:	00000000 	andeq	r0, r0, r0
 1f0:	00009c2c 	andeq	r9, r0, ip, lsr #24
 1f4:	0000003c 	andeq	r0, r0, ip, lsr r0
	...
 200:	0000001c 	andeq	r0, r0, ip, lsl r0
 204:	60260002 	eorvs	r0, r6, r2
 208:	00040000 	andeq	r0, r4, r0
 20c:	00000000 	andeq	r0, r0, r0
 210:	00009c68 	andeq	r9, r0, r8, ror #24
 214:	0000002c 	andeq	r0, r0, ip, lsr #32
	...
 220:	0000001c 	andeq	r0, r0, ip, lsl r0
 224:	61610002 	cmnvs	r1, r2
 228:	00040000 	andeq	r0, r4, r0
 22c:	00000000 	andeq	r0, r0, r0
 230:	00009c94 	muleq	r0, r4, ip
 234:	00000044 	andeq	r0, r0, r4, asr #32
	...
 240:	0000001c 	andeq	r0, r0, ip, lsl r0
 244:	625c0002 	subsvs	r0, ip, #2, 0
 248:	00040000 	andeq	r0, r4, r0
 24c:	00000000 	andeq	r0, r0, r0
 250:	00009cd8 	ldrdeq	r9, [r0], -r8
 254:	00000018 	andeq	r0, r0, r8, lsl r0
	...
 260:	0000001c 	andeq	r0, r0, ip, lsl r0
 264:	636f0002 	cmnvs	pc, #2, 0
 268:	00040000 	andeq	r0, r4, r0
 26c:	00000000 	andeq	r0, r0, r0
 270:	00009cf0 	strdeq	r9, [r0], -r0
 274:	00000030 	andeq	r0, r0, r0, lsr r0
	...
 280:	0000001c 	andeq	r0, r0, ip, lsl r0
 284:	64c10002 	strbvs	r0, [r1], #2
 288:	00040000 	andeq	r0, r4, r0
 28c:	00000000 	andeq	r0, r0, r0
 290:	00009d20 	andeq	r9, r0, r0, lsr #26
 294:	00000004 	andeq	r0, r0, r4
	...

Disassembly of section .debug_ranges:

00000000 <.debug_ranges>:
       0:	00000020 	andeq	r0, r0, r0, lsr #32
       4:	00000024 	andeq	r0, r0, r4, lsr #32
       8:	00000028 	andeq	r0, r0, r8, lsr #32
       c:	00000028 	andeq	r0, r0, r8, lsr #32
      10:	0000002c 	andeq	r0, r0, ip, lsr #32
      14:	00000038 	andeq	r0, r0, r8, lsr r0
      18:	0000003c 	andeq	r0, r0, ip, lsr r0
      1c:	000000a8 	andeq	r0, r0, r8, lsr #1
	...
      28:	0000002c 	andeq	r0, r0, ip, lsr #32
      2c:	00000038 	andeq	r0, r0, r8, lsr r0
      30:	0000003c 	andeq	r0, r0, ip, lsr r0
      34:	00000094 	muleq	r0, r4, r0
	...
      40:	00000030 	andeq	r0, r0, r0, lsr r0
      44:	00000038 	andeq	r0, r0, r8, lsr r0
      48:	0000003c 	andeq	r0, r0, ip, lsr r0
      4c:	00000080 	andeq	r0, r0, r0, lsl #1
	...
      70:	00000004 	andeq	r0, r0, r4
      74:	0000000c 	andeq	r0, r0, ip
      78:	00000010 	andeq	r0, r0, r0, lsl r0
      7c:	00000030 	andeq	r0, r0, r0, lsr r0
	...
      90:	00000004 	andeq	r0, r0, r4
      94:	00000008 	andeq	r0, r0, r8
	...
      a0:	00000008 	andeq	r0, r0, r8
      a4:	0000000c 	andeq	r0, r0, ip
      a8:	00000010 	andeq	r0, r0, r0, lsl r0
      ac:	00000018 	andeq	r0, r0, r8, lsl r0
      b0:	0000001c 	andeq	r0, r0, ip, lsl r0
      b4:	00000020 	andeq	r0, r0, r0, lsr #32
	...
      c0:	00000018 	andeq	r0, r0, r8, lsl r0
      c4:	0000001c 	andeq	r0, r0, ip, lsl r0
      c8:	00000020 	andeq	r0, r0, r0, lsr #32
      cc:	00000030 	andeq	r0, r0, r0, lsr r0
	...
      d8:	00000030 	andeq	r0, r0, r0, lsr r0
      dc:	00000058 	andeq	r0, r0, r8, asr r0
      e0:	00000058 	andeq	r0, r0, r8, asr r0
      e4:	00000058 	andeq	r0, r0, r8, asr r0
      e8:	00000058 	andeq	r0, r0, r8, asr r0
      ec:	00000068 	andeq	r0, r0, r8, rrx
      f0:	00000068 	andeq	r0, r0, r8, rrx
      f4:	00000080 	andeq	r0, r0, r0, lsl #1
      f8:	00000080 	andeq	r0, r0, r0, lsl #1
      fc:	000000b4 	strheq	r0, [r0], -r4
     100:	000000b4 	strheq	r0, [r0], -r4
     104:	000000cc 	andeq	r0, r0, ip, asr #1
     108:	000000cc 	andeq	r0, r0, ip, asr #1
     10c:	00000100 	andeq	r0, r0, r0, lsl #2
     110:	00000100 	andeq	r0, r0, r0, lsl #2
     114:	00000118 	andeq	r0, r0, r8, lsl r1
     118:	00000118 	andeq	r0, r0, r8, lsl r1
     11c:	00000158 	andeq	r0, r0, r8, asr r1
     120:	00000158 	andeq	r0, r0, r8, asr r1
     124:	00000170 	andeq	r0, r0, r0, ror r1
     128:	00000170 	andeq	r0, r0, r0, ror r1
     12c:	00000198 	muleq	r0, r8, r1
     130:	00000198 	muleq	r0, r8, r1
     134:	000001b0 			; <UNDEFINED> instruction: 0x000001b0
     138:	000001b0 			; <UNDEFINED> instruction: 0x000001b0
     13c:	000001d8 	ldrdeq	r0, [r0], -r8
     140:	000001d8 	ldrdeq	r0, [r0], -r8
     144:	000001f0 	strdeq	r0, [r0], -r0	; <UNPREDICTABLE>
     148:	000001f0 	strdeq	r0, [r0], -r0	; <UNPREDICTABLE>
     14c:	00000220 	andeq	r0, r0, r0, lsr #4
	...
     158:	00000044 	andeq	r0, r0, r4, asr #32
     15c:	0000004c 	andeq	r0, r0, ip, asr #32
     160:	0000004c 	andeq	r0, r0, ip, asr #32
     164:	00000050 	andeq	r0, r0, r0, asr r0
     168:	00000058 	andeq	r0, r0, r8, asr r0
     16c:	00000058 	andeq	r0, r0, r8, asr r0
     170:	00000058 	andeq	r0, r0, r8, asr r0
     174:	00000058 	andeq	r0, r0, r8, asr r0
     178:	00000058 	andeq	r0, r0, r8, asr r0
     17c:	00000068 	andeq	r0, r0, r8, rrx
     180:	00000068 	andeq	r0, r0, r8, rrx
     184:	00000080 	andeq	r0, r0, r0, lsl #1
     188:	00000080 	andeq	r0, r0, r0, lsl #1
     18c:	000000b4 	strheq	r0, [r0], -r4
     190:	000000b4 	strheq	r0, [r0], -r4
     194:	000000cc 	andeq	r0, r0, ip, asr #1
     198:	000000cc 	andeq	r0, r0, ip, asr #1
     19c:	00000100 	andeq	r0, r0, r0, lsl #2
     1a0:	00000100 	andeq	r0, r0, r0, lsl #2
     1a4:	00000118 	andeq	r0, r0, r8, lsl r1
     1a8:	00000118 	andeq	r0, r0, r8, lsl r1
     1ac:	0000013c 	andeq	r0, r0, ip, lsr r1
     1b0:	00000158 	andeq	r0, r0, r8, asr r1
     1b4:	00000158 	andeq	r0, r0, r8, asr r1
     1b8:	00000158 	andeq	r0, r0, r8, asr r1
     1bc:	00000170 	andeq	r0, r0, r0, ror r1
     1c0:	00000170 	andeq	r0, r0, r0, ror r1
     1c4:	00000198 	muleq	r0, r8, r1
     1c8:	00000198 	muleq	r0, r8, r1
     1cc:	000001b0 			; <UNDEFINED> instruction: 0x000001b0
     1d0:	000001b0 			; <UNDEFINED> instruction: 0x000001b0
     1d4:	000001d8 	ldrdeq	r0, [r0], -r8
     1d8:	000001d8 	ldrdeq	r0, [r0], -r8
     1dc:	000001f0 	strdeq	r0, [r0], -r0	; <UNPREDICTABLE>
     1e0:	000001f0 	strdeq	r0, [r0], -r0	; <UNPREDICTABLE>
     1e4:	00000220 	andeq	r0, r0, r0, lsr #4
	...
     1f0:	00000044 	andeq	r0, r0, r4, asr #32
     1f4:	0000004c 	andeq	r0, r0, ip, asr #32
     1f8:	0000004c 	andeq	r0, r0, ip, asr #32
     1fc:	00000050 	andeq	r0, r0, r0, asr r0
     200:	00000058 	andeq	r0, r0, r8, asr r0
     204:	00000058 	andeq	r0, r0, r8, asr r0
     208:	00000058 	andeq	r0, r0, r8, asr r0
     20c:	00000068 	andeq	r0, r0, r8, rrx
     210:	00000068 	andeq	r0, r0, r8, rrx
     214:	00000080 	andeq	r0, r0, r0, lsl #1
     218:	00000080 	andeq	r0, r0, r0, lsl #1
     21c:	000000a4 	andeq	r0, r0, r4, lsr #1
     220:	000001d8 	ldrdeq	r0, [r0], -r8
     224:	000001d8 	ldrdeq	r0, [r0], -r8
     228:	000001d8 	ldrdeq	r0, [r0], -r8
     22c:	000001f0 	strdeq	r0, [r0], -r0	; <UNPREDICTABLE>
     230:	000001f0 	strdeq	r0, [r0], -r0	; <UNPREDICTABLE>
     234:	00000220 	andeq	r0, r0, r0, lsr #4
	...
     240:	00000044 	andeq	r0, r0, r4, asr #32
     244:	0000004c 	andeq	r0, r0, ip, asr #32
     248:	0000004c 	andeq	r0, r0, ip, asr #32
     24c:	00000050 	andeq	r0, r0, r0, asr r0
     250:	00000058 	andeq	r0, r0, r8, asr r0
     254:	00000068 	andeq	r0, r0, r8, rrx
     258:	00000068 	andeq	r0, r0, r8, rrx
     25c:	00000080 	andeq	r0, r0, r0, lsl #1
     260:	00000080 	andeq	r0, r0, r0, lsl #1
     264:	000000a4 	andeq	r0, r0, r4, lsr #1
     268:	000001d8 	ldrdeq	r0, [r0], -r8
     26c:	000001d8 	ldrdeq	r0, [r0], -r8
     270:	000001d8 	ldrdeq	r0, [r0], -r8
     274:	000001f0 	strdeq	r0, [r0], -r0	; <UNPREDICTABLE>
     278:	000001f0 	strdeq	r0, [r0], -r0	; <UNPREDICTABLE>
     27c:	00000220 	andeq	r0, r0, r0, lsr #4
	...
     288:	00000044 	andeq	r0, r0, r4, asr #32
     28c:	0000004c 	andeq	r0, r0, ip, asr #32
     290:	0000005c 	andeq	r0, r0, ip, asr r0
     294:	0000005c 	andeq	r0, r0, ip, asr r0
     298:	00000060 	andeq	r0, r0, r0, rrx
     29c:	00000068 	andeq	r0, r0, r8, rrx
     2a0:	00000068 	andeq	r0, r0, r8, rrx
     2a4:	00000080 	andeq	r0, r0, r0, lsl #1
     2a8:	00000080 	andeq	r0, r0, r0, lsl #1
     2ac:	00000098 	muleq	r0, r8, r0
     2b0:	000001d8 	ldrdeq	r0, [r0], -r8
     2b4:	000001d8 	ldrdeq	r0, [r0], -r8
     2b8:	000001d8 	ldrdeq	r0, [r0], -r8
     2bc:	000001f0 	strdeq	r0, [r0], -r0	; <UNPREDICTABLE>
     2c0:	000001f0 	strdeq	r0, [r0], -r0	; <UNPREDICTABLE>
     2c4:	00000208 	andeq	r0, r0, r8, lsl #4
	...
     2d0:	00000044 	andeq	r0, r0, r4, asr #32
     2d4:	0000004c 	andeq	r0, r0, ip, asr #32
     2d8:	000001d8 	ldrdeq	r0, [r0], -r8
     2dc:	000001d8 	ldrdeq	r0, [r0], -r8
     2e0:	000001d8 	ldrdeq	r0, [r0], -r8
     2e4:	000001f0 	strdeq	r0, [r0], -r0	; <UNPREDICTABLE>
	...
     2f0:	00000044 	andeq	r0, r0, r4, asr #32
     2f4:	0000004c 	andeq	r0, r0, ip, asr #32
     2f8:	000001d8 	ldrdeq	r0, [r0], -r8
     2fc:	000001f0 	strdeq	r0, [r0], -r0	; <UNPREDICTABLE>
	...
     308:	00000044 	andeq	r0, r0, r4, asr #32
     30c:	0000004c 	andeq	r0, r0, ip, asr #32
     310:	000001dc 	ldrdeq	r0, [r0], -ip
     314:	000001e0 	andeq	r0, r0, r0, ror #3
	...
     320:	00000068 	andeq	r0, r0, r8, rrx
     324:	00000068 	andeq	r0, r0, r8, rrx
     328:	00000068 	andeq	r0, r0, r8, rrx
     32c:	00000080 	andeq	r0, r0, r0, lsl #1
	...
     338:	00000080 	andeq	r0, r0, r0, lsl #1
     33c:	00000080 	andeq	r0, r0, r0, lsl #1
     340:	00000080 	andeq	r0, r0, r0, lsl #1
     344:	00000098 	muleq	r0, r8, r0
	...
     350:	000001f0 	strdeq	r0, [r0], -r0	; <UNPREDICTABLE>
     354:	000001f0 	strdeq	r0, [r0], -r0	; <UNPREDICTABLE>
     358:	000001f0 	strdeq	r0, [r0], -r0	; <UNPREDICTABLE>
     35c:	00000208 	andeq	r0, r0, r8, lsl #4
	...
     368:	000000a4 	andeq	r0, r0, r4, lsr #1
     36c:	000000b4 	strheq	r0, [r0], -r4
     370:	000000b4 	strheq	r0, [r0], -r4
     374:	000000cc 	andeq	r0, r0, ip, asr #1
     378:	000000cc 	andeq	r0, r0, ip, asr #1
     37c:	000000f0 	strdeq	r0, [r0], -r0	; <UNPREDICTABLE>
     380:	00000198 	muleq	r0, r8, r1
     384:	00000198 	muleq	r0, r8, r1
     388:	00000198 	muleq	r0, r8, r1
     38c:	000001b0 			; <UNDEFINED> instruction: 0x000001b0
     390:	000001b0 			; <UNDEFINED> instruction: 0x000001b0
     394:	000001d8 	ldrdeq	r0, [r0], -r8
	...
     3a0:	000000a8 	andeq	r0, r0, r8, lsr #1
     3a4:	000000a8 	andeq	r0, r0, r8, lsr #1
     3a8:	000000ac 	andeq	r0, r0, ip, lsr #1
     3ac:	000000b4 	strheq	r0, [r0], -r4
     3b0:	000000b4 	strheq	r0, [r0], -r4
     3b4:	000000cc 	andeq	r0, r0, ip, asr #1
     3b8:	000000cc 	andeq	r0, r0, ip, asr #1
     3bc:	000000e4 	andeq	r0, r0, r4, ror #1
     3c0:	00000198 	muleq	r0, r8, r1
     3c4:	00000198 	muleq	r0, r8, r1
     3c8:	00000198 	muleq	r0, r8, r1
     3cc:	000001b0 			; <UNDEFINED> instruction: 0x000001b0
     3d0:	000001b0 			; <UNDEFINED> instruction: 0x000001b0
     3d4:	000001c8 	andeq	r0, r0, r8, asr #3
	...
     3e0:	000000b4 	strheq	r0, [r0], -r4
     3e4:	000000b4 	strheq	r0, [r0], -r4
     3e8:	000000b4 	strheq	r0, [r0], -r4
     3ec:	000000cc 	andeq	r0, r0, ip, asr #1
	...
     3f8:	000000cc 	andeq	r0, r0, ip, asr #1
     3fc:	000000cc 	andeq	r0, r0, ip, asr #1
     400:	000000cc 	andeq	r0, r0, ip, asr #1
     404:	000000e4 	andeq	r0, r0, r4, ror #1
	...
     410:	00000198 	muleq	r0, r8, r1
     414:	00000198 	muleq	r0, r8, r1
     418:	00000198 	muleq	r0, r8, r1
     41c:	000001b0 			; <UNDEFINED> instruction: 0x000001b0
	...
     428:	000001b0 			; <UNDEFINED> instruction: 0x000001b0
     42c:	000001b0 			; <UNDEFINED> instruction: 0x000001b0
     430:	000001b0 			; <UNDEFINED> instruction: 0x000001b0
     434:	000001c8 	andeq	r0, r0, r8, asr #3
	...
     440:	000000f0 	strdeq	r0, [r0], -r0	; <UNPREDICTABLE>
     444:	00000100 	andeq	r0, r0, r0, lsl #2
     448:	00000100 	andeq	r0, r0, r0, lsl #2
     44c:	00000118 	andeq	r0, r0, r8, lsl r1
     450:	00000118 	andeq	r0, r0, r8, lsl r1
     454:	0000013c 	andeq	r0, r0, ip, lsr r1
     458:	00000158 	andeq	r0, r0, r8, asr r1
     45c:	00000158 	andeq	r0, r0, r8, asr r1
     460:	00000158 	andeq	r0, r0, r8, asr r1
     464:	00000170 	andeq	r0, r0, r0, ror r1
     468:	00000170 	andeq	r0, r0, r0, ror r1
     46c:	00000198 	muleq	r0, r8, r1
	...
     478:	000000f4 	strdeq	r0, [r0], -r4
     47c:	000000f4 	strdeq	r0, [r0], -r4
     480:	000000f8 	strdeq	r0, [r0], -r8
     484:	00000100 	andeq	r0, r0, r0, lsl #2
     488:	00000100 	andeq	r0, r0, r0, lsl #2
     48c:	00000118 	andeq	r0, r0, r8, lsl r1
     490:	00000118 	andeq	r0, r0, r8, lsl r1
     494:	00000130 	andeq	r0, r0, r0, lsr r1
     498:	00000158 	andeq	r0, r0, r8, asr r1
     49c:	00000158 	andeq	r0, r0, r8, asr r1
     4a0:	00000158 	andeq	r0, r0, r8, asr r1
     4a4:	00000170 	andeq	r0, r0, r0, ror r1
     4a8:	00000170 	andeq	r0, r0, r0, ror r1
     4ac:	00000188 	andeq	r0, r0, r8, lsl #3
	...
     4b8:	00000100 	andeq	r0, r0, r0, lsl #2
     4bc:	00000100 	andeq	r0, r0, r0, lsl #2
     4c0:	00000100 	andeq	r0, r0, r0, lsl #2
     4c4:	00000118 	andeq	r0, r0, r8, lsl r1
	...
     4d0:	00000118 	andeq	r0, r0, r8, lsl r1
     4d4:	00000118 	andeq	r0, r0, r8, lsl r1
     4d8:	00000118 	andeq	r0, r0, r8, lsl r1
     4dc:	00000130 	andeq	r0, r0, r0, lsr r1
	...
     4e8:	00000158 	andeq	r0, r0, r8, asr r1
     4ec:	00000158 	andeq	r0, r0, r8, asr r1
     4f0:	00000158 	andeq	r0, r0, r8, asr r1
     4f4:	00000170 	andeq	r0, r0, r0, ror r1
	...
     500:	00000170 	andeq	r0, r0, r0, ror r1
     504:	00000170 	andeq	r0, r0, r0, ror r1
     508:	00000170 	andeq	r0, r0, r0, ror r1
     50c:	00000188 	andeq	r0, r0, r8, lsl #3
	...
     518:	00000274 	andeq	r0, r0, r4, ror r2
     51c:	00000278 	andeq	r0, r0, r8, ror r2
     520:	00000278 	andeq	r0, r0, r8, ror r2
     524:	00000278 	andeq	r0, r0, r8, ror r2
     528:	00000278 	andeq	r0, r0, r8, ror r2
     52c:	0000027c 	andeq	r0, r0, ip, ror r2
     530:	00000280 	andeq	r0, r0, r0, lsl #5
     534:	00000294 	muleq	r0, r4, r2
     538:	00000294 	muleq	r0, r4, r2
     53c:	000002ac 	andeq	r0, r0, ip, lsr #5
     540:	000002ac 	andeq	r0, r0, ip, lsr #5
     544:	000002e4 	andeq	r0, r0, r4, ror #5
     548:	000002e4 	andeq	r0, r0, r4, ror #5
     54c:	000002fc 	strdeq	r0, [r0], -ip
     550:	000002fc 	strdeq	r0, [r0], -ip
     554:	00000334 	andeq	r0, r0, r4, lsr r3
     558:	00000334 	andeq	r0, r0, r4, lsr r3
     55c:	0000034c 	andeq	r0, r0, ip, asr #6
     560:	0000034c 	andeq	r0, r0, ip, asr #6
     564:	0000037c 	andeq	r0, r0, ip, ror r3
     568:	0000037c 	andeq	r0, r0, ip, ror r3
     56c:	00000394 	muleq	r0, r4, r3
     570:	00000394 	muleq	r0, r4, r3
     574:	000003b0 			; <UNDEFINED> instruction: 0x000003b0
     578:	000003b0 			; <UNDEFINED> instruction: 0x000003b0
     57c:	000003c8 	andeq	r0, r0, r8, asr #7
     580:	000003c8 	andeq	r0, r0, r8, asr #7
     584:	000003f0 	strdeq	r0, [r0], -r0	; <UNPREDICTABLE>
     588:	000003f0 	strdeq	r0, [r0], -r0	; <UNPREDICTABLE>
     58c:	00000408 	andeq	r0, r0, r8, lsl #8
     590:	00000408 	andeq	r0, r0, r8, lsl #8
     594:	00000434 	andeq	r0, r0, r4, lsr r4
	...
     5a0:	00000274 	andeq	r0, r0, r4, ror r2
     5a4:	00000278 	andeq	r0, r0, r8, ror r2
     5a8:	00000278 	andeq	r0, r0, r8, ror r2
     5ac:	00000278 	andeq	r0, r0, r8, ror r2
     5b0:	00000278 	andeq	r0, r0, r8, ror r2
     5b4:	0000027c 	andeq	r0, r0, ip, ror r2
     5b8:	00000280 	andeq	r0, r0, r0, lsl #5
     5bc:	00000294 	muleq	r0, r4, r2
     5c0:	00000294 	muleq	r0, r4, r2
     5c4:	000002ac 	andeq	r0, r0, ip, lsr #5
     5c8:	000002ac 	andeq	r0, r0, ip, lsr #5
     5cc:	000002d0 	ldrdeq	r0, [r0], -r0	; <UNPREDICTABLE>
     5d0:	000003f0 	strdeq	r0, [r0], -r0	; <UNPREDICTABLE>
     5d4:	000003f0 	strdeq	r0, [r0], -r0	; <UNPREDICTABLE>
     5d8:	000003f0 	strdeq	r0, [r0], -r0	; <UNPREDICTABLE>
     5dc:	00000408 	andeq	r0, r0, r8, lsl #8
     5e0:	00000408 	andeq	r0, r0, r8, lsl #8
     5e4:	00000434 	andeq	r0, r0, r4, lsr r4
	...
     5f0:	00000274 	andeq	r0, r0, r4, ror r2
     5f4:	00000278 	andeq	r0, r0, r8, ror r2
     5f8:	00000278 	andeq	r0, r0, r8, ror r2
     5fc:	0000027c 	andeq	r0, r0, ip, ror r2
     600:	00000280 	andeq	r0, r0, r0, lsl #5
     604:	00000294 	muleq	r0, r4, r2
     608:	00000294 	muleq	r0, r4, r2
     60c:	000002ac 	andeq	r0, r0, ip, lsr #5
     610:	000002ac 	andeq	r0, r0, ip, lsr #5
     614:	000002d0 	ldrdeq	r0, [r0], -r0	; <UNPREDICTABLE>
     618:	000003f0 	strdeq	r0, [r0], -r0	; <UNPREDICTABLE>
     61c:	000003f0 	strdeq	r0, [r0], -r0	; <UNPREDICTABLE>
     620:	000003f0 	strdeq	r0, [r0], -r0	; <UNPREDICTABLE>
     624:	00000408 	andeq	r0, r0, r8, lsl #8
     628:	00000408 	andeq	r0, r0, r8, lsl #8
     62c:	00000434 	andeq	r0, r0, r4, lsr r4
	...
     638:	00000274 	andeq	r0, r0, r4, ror r2
     63c:	00000278 	andeq	r0, r0, r8, ror r2
     640:	00000280 	andeq	r0, r0, r0, lsl #5
     644:	00000288 	andeq	r0, r0, r8, lsl #5
     648:	00000288 	andeq	r0, r0, r8, lsl #5
     64c:	00000288 	andeq	r0, r0, r8, lsl #5
     650:	0000028c 	andeq	r0, r0, ip, lsl #5
     654:	00000294 	muleq	r0, r4, r2
     658:	00000294 	muleq	r0, r4, r2
     65c:	000002ac 	andeq	r0, r0, ip, lsr #5
     660:	000002ac 	andeq	r0, r0, ip, lsr #5
     664:	000002c4 	andeq	r0, r0, r4, asr #5
     668:	000003f0 	strdeq	r0, [r0], -r0	; <UNPREDICTABLE>
     66c:	000003f0 	strdeq	r0, [r0], -r0	; <UNPREDICTABLE>
     670:	000003f0 	strdeq	r0, [r0], -r0	; <UNPREDICTABLE>
     674:	00000408 	andeq	r0, r0, r8, lsl #8
     678:	00000408 	andeq	r0, r0, r8, lsl #8
     67c:	00000420 	andeq	r0, r0, r0, lsr #8
	...
     688:	00000274 	andeq	r0, r0, r4, ror r2
     68c:	00000278 	andeq	r0, r0, r8, ror r2
     690:	00000280 	andeq	r0, r0, r0, lsl #5
     694:	00000288 	andeq	r0, r0, r8, lsl #5
     698:	000003f0 	strdeq	r0, [r0], -r0	; <UNPREDICTABLE>
     69c:	000003f0 	strdeq	r0, [r0], -r0	; <UNPREDICTABLE>
     6a0:	000003f0 	strdeq	r0, [r0], -r0	; <UNPREDICTABLE>
     6a4:	00000408 	andeq	r0, r0, r8, lsl #8
	...
     6b0:	00000274 	andeq	r0, r0, r4, ror r2
     6b4:	00000278 	andeq	r0, r0, r8, ror r2
     6b8:	00000280 	andeq	r0, r0, r0, lsl #5
     6bc:	00000288 	andeq	r0, r0, r8, lsl #5
     6c0:	000003f0 	strdeq	r0, [r0], -r0	; <UNPREDICTABLE>
     6c4:	00000408 	andeq	r0, r0, r8, lsl #8
	...
     6d0:	00000274 	andeq	r0, r0, r4, ror r2
     6d4:	00000278 	andeq	r0, r0, r8, ror r2
     6d8:	00000280 	andeq	r0, r0, r0, lsl #5
     6dc:	00000288 	andeq	r0, r0, r8, lsl #5
     6e0:	000003f4 	strdeq	r0, [r0], -r4
     6e4:	000003f8 	strdeq	r0, [r0], -r8
	...
     6f0:	00000294 	muleq	r0, r4, r2
     6f4:	00000294 	muleq	r0, r4, r2
     6f8:	00000294 	muleq	r0, r4, r2
     6fc:	000002ac 	andeq	r0, r0, ip, lsr #5
	...
     708:	000002ac 	andeq	r0, r0, ip, lsr #5
     70c:	000002ac 	andeq	r0, r0, ip, lsr #5
     710:	000002ac 	andeq	r0, r0, ip, lsr #5
     714:	000002c4 	andeq	r0, r0, r4, asr #5
	...
     720:	00000408 	andeq	r0, r0, r8, lsl #8
     724:	00000408 	andeq	r0, r0, r8, lsl #8
     728:	00000408 	andeq	r0, r0, r8, lsl #8
     72c:	00000420 	andeq	r0, r0, r0, lsr #8
	...
     738:	000002d0 	ldrdeq	r0, [r0], -r0	; <UNPREDICTABLE>
     73c:	000002e4 	andeq	r0, r0, r4, ror #5
     740:	000002e4 	andeq	r0, r0, r4, ror #5
     744:	000002fc 	strdeq	r0, [r0], -ip
     748:	000002fc 	strdeq	r0, [r0], -ip
     74c:	00000320 	andeq	r0, r0, r0, lsr #6
     750:	000003b0 			; <UNDEFINED> instruction: 0x000003b0
     754:	000003b0 			; <UNDEFINED> instruction: 0x000003b0
     758:	000003b0 			; <UNDEFINED> instruction: 0x000003b0
     75c:	000003c8 	andeq	r0, r0, r8, asr #7
     760:	000003c8 	andeq	r0, r0, r8, asr #7
     764:	000003f0 	strdeq	r0, [r0], -r0	; <UNPREDICTABLE>
	...
     770:	000002d4 	ldrdeq	r0, [r0], -r4
     774:	000002d8 	ldrdeq	r0, [r0], -r8
     778:	000002d8 	ldrdeq	r0, [r0], -r8
     77c:	000002d8 	ldrdeq	r0, [r0], -r8
     780:	000002dc 	ldrdeq	r0, [r0], -ip
     784:	000002e4 	andeq	r0, r0, r4, ror #5
     788:	000002e4 	andeq	r0, r0, r4, ror #5
     78c:	000002fc 	strdeq	r0, [r0], -ip
     790:	000002fc 	strdeq	r0, [r0], -ip
     794:	00000314 	andeq	r0, r0, r4, lsl r3
     798:	000003b0 			; <UNDEFINED> instruction: 0x000003b0
     79c:	000003b0 			; <UNDEFINED> instruction: 0x000003b0
     7a0:	000003b0 			; <UNDEFINED> instruction: 0x000003b0
     7a4:	000003c8 	andeq	r0, r0, r8, asr #7
     7a8:	000003c8 	andeq	r0, r0, r8, asr #7
     7ac:	000003e0 	andeq	r0, r0, r0, ror #7
	...
     7b8:	000002d4 	ldrdeq	r0, [r0], -r4
     7bc:	000002d8 	ldrdeq	r0, [r0], -r8
     7c0:	000003b0 			; <UNDEFINED> instruction: 0x000003b0
     7c4:	000003b0 			; <UNDEFINED> instruction: 0x000003b0
     7c8:	000003b0 			; <UNDEFINED> instruction: 0x000003b0
     7cc:	000003c8 	andeq	r0, r0, r8, asr #7
	...
     7d8:	000002d4 	ldrdeq	r0, [r0], -r4
     7dc:	000002d8 	ldrdeq	r0, [r0], -r8
     7e0:	000003b0 			; <UNDEFINED> instruction: 0x000003b0
     7e4:	000003c8 	andeq	r0, r0, r8, asr #7
	...
     7f0:	000002d4 	ldrdeq	r0, [r0], -r4
     7f4:	000002d8 	ldrdeq	r0, [r0], -r8
     7f8:	000003b4 			; <UNDEFINED> instruction: 0x000003b4
     7fc:	000003b8 			; <UNDEFINED> instruction: 0x000003b8
	...
     808:	000002e4 	andeq	r0, r0, r4, ror #5
     80c:	000002e4 	andeq	r0, r0, r4, ror #5
     810:	000002e4 	andeq	r0, r0, r4, ror #5
     814:	000002fc 	strdeq	r0, [r0], -ip
	...
     820:	000002fc 	strdeq	r0, [r0], -ip
     824:	000002fc 	strdeq	r0, [r0], -ip
     828:	000002fc 	strdeq	r0, [r0], -ip
     82c:	00000314 	andeq	r0, r0, r4, lsl r3
	...
     838:	000003c8 	andeq	r0, r0, r8, asr #7
     83c:	000003c8 	andeq	r0, r0, r8, asr #7
     840:	000003c8 	andeq	r0, r0, r8, asr #7
     844:	000003e0 	andeq	r0, r0, r0, ror #7
	...
     850:	00000320 	andeq	r0, r0, r0, lsr #6
     854:	00000334 	andeq	r0, r0, r4, lsr r3
     858:	00000334 	andeq	r0, r0, r4, lsr r3
     85c:	0000034c 	andeq	r0, r0, ip, asr #6
     860:	0000034c 	andeq	r0, r0, ip, asr #6
     864:	0000037c 	andeq	r0, r0, ip, ror r3
     868:	0000037c 	andeq	r0, r0, ip, ror r3
     86c:	00000394 	muleq	r0, r4, r3
     870:	00000394 	muleq	r0, r4, r3
     874:	000003b0 			; <UNDEFINED> instruction: 0x000003b0
	...
     880:	00000324 	andeq	r0, r0, r4, lsr #6
     884:	00000324 	andeq	r0, r0, r4, lsr #6
     888:	00000328 	andeq	r0, r0, r8, lsr #6
     88c:	00000334 	andeq	r0, r0, r4, lsr r3
     890:	00000334 	andeq	r0, r0, r4, lsr r3
     894:	0000034c 	andeq	r0, r0, ip, asr #6
     898:	0000034c 	andeq	r0, r0, ip, asr #6
     89c:	00000364 	andeq	r0, r0, r4, ror #6
     8a0:	00000370 	andeq	r0, r0, r0, ror r3
     8a4:	00000370 	andeq	r0, r0, r0, ror r3
     8a8:	00000374 	andeq	r0, r0, r4, ror r3
     8ac:	0000037c 	andeq	r0, r0, ip, ror r3
     8b0:	0000037c 	andeq	r0, r0, ip, ror r3
     8b4:	00000394 	muleq	r0, r4, r3
     8b8:	00000394 	muleq	r0, r4, r3
     8bc:	000003b0 			; <UNDEFINED> instruction: 0x000003b0
	...
     8c8:	0000032c 	andeq	r0, r0, ip, lsr #6
     8cc:	00000330 	andeq	r0, r0, r0, lsr r3
     8d0:	0000037c 	andeq	r0, r0, ip, ror r3
     8d4:	0000037c 	andeq	r0, r0, ip, ror r3
     8d8:	0000037c 	andeq	r0, r0, ip, ror r3
     8dc:	00000394 	muleq	r0, r4, r3
	...
     8e8:	0000032c 	andeq	r0, r0, ip, lsr #6
     8ec:	00000330 	andeq	r0, r0, r0, lsr r3
     8f0:	0000037c 	andeq	r0, r0, ip, ror r3
     8f4:	00000394 	muleq	r0, r4, r3
	...
     900:	0000032c 	andeq	r0, r0, ip, lsr #6
     904:	00000330 	andeq	r0, r0, r0, lsr r3
     908:	00000380 	andeq	r0, r0, r0, lsl #7
     90c:	00000384 	andeq	r0, r0, r4, lsl #7
	...
     918:	00000334 	andeq	r0, r0, r4, lsr r3
     91c:	00000334 	andeq	r0, r0, r4, lsr r3
     920:	00000334 	andeq	r0, r0, r4, lsr r3
     924:	0000034c 	andeq	r0, r0, ip, asr #6
	...
     930:	0000034c 	andeq	r0, r0, ip, asr #6
     934:	0000034c 	andeq	r0, r0, ip, asr #6
     938:	0000034c 	andeq	r0, r0, ip, asr #6
     93c:	00000364 	andeq	r0, r0, r4, ror #6
	...
     948:	00000394 	muleq	r0, r4, r3
     94c:	00000394 	muleq	r0, r4, r3
     950:	00000394 	muleq	r0, r4, r3
     954:	000003b0 			; <UNDEFINED> instruction: 0x000003b0
	...
     960:	00000440 	andeq	r0, r0, r0, asr #8
     964:	0000044c 	andeq	r0, r0, ip, asr #8
     968:	00000450 	andeq	r0, r0, r0, asr r4
     96c:	00000460 	andeq	r0, r0, r0, ror #8
     970:	00000460 	andeq	r0, r0, r0, ror #8
     974:	00000460 	andeq	r0, r0, r0, ror #8
     978:	00000460 	andeq	r0, r0, r0, ror #8
     97c:	00000464 	andeq	r0, r0, r4, ror #8
     980:	00000464 	andeq	r0, r0, r4, ror #8
     984:	00000464 	andeq	r0, r0, r4, ror #8
     988:	00000464 	andeq	r0, r0, r4, ror #8
     98c:	0000047c 	andeq	r0, r0, ip, ror r4
     990:	0000047c 	andeq	r0, r0, ip, ror r4
     994:	0000047c 	andeq	r0, r0, ip, ror r4
     998:	0000047c 	andeq	r0, r0, ip, ror r4
     99c:	000004a0 	andeq	r0, r0, r0, lsr #9
     9a0:	000004a0 	andeq	r0, r0, r0, lsr #9
     9a4:	000004a0 	andeq	r0, r0, r0, lsr #9
     9a8:	000004a0 	andeq	r0, r0, r0, lsr #9
     9ac:	000004b8 			; <UNDEFINED> instruction: 0x000004b8
     9b0:	000004b8 			; <UNDEFINED> instruction: 0x000004b8
     9b4:	000004b8 			; <UNDEFINED> instruction: 0x000004b8
     9b8:	000004b8 			; <UNDEFINED> instruction: 0x000004b8
     9bc:	000004dc 	ldrdeq	r0, [r0], -ip
     9c0:	000004dc 	ldrdeq	r0, [r0], -ip
     9c4:	000004dc 	ldrdeq	r0, [r0], -ip
     9c8:	000004dc 	ldrdeq	r0, [r0], -ip
     9cc:	000004f4 	strdeq	r0, [r0], -r4
     9d0:	000004f4 	strdeq	r0, [r0], -r4
     9d4:	000004f4 	strdeq	r0, [r0], -r4
     9d8:	000004f4 	strdeq	r0, [r0], -r4
     9dc:	00000520 	andeq	r0, r0, r0, lsr #10
	...
     9e8:	00000448 	andeq	r0, r0, r8, asr #8
     9ec:	0000044c 	andeq	r0, r0, ip, asr #8
     9f0:	00000458 	andeq	r0, r0, r8, asr r4
     9f4:	00000460 	andeq	r0, r0, r0, ror #8
     9f8:	00000460 	andeq	r0, r0, r0, ror #8
     9fc:	00000460 	andeq	r0, r0, r0, ror #8
     a00:	00000460 	andeq	r0, r0, r0, ror #8
     a04:	00000460 	andeq	r0, r0, r0, ror #8
     a08:	00000460 	andeq	r0, r0, r0, ror #8
     a0c:	00000460 	andeq	r0, r0, r0, ror #8
     a10:	00000464 	andeq	r0, r0, r4, ror #8
     a14:	00000464 	andeq	r0, r0, r4, ror #8
     a18:	00000464 	andeq	r0, r0, r4, ror #8
     a1c:	00000464 	andeq	r0, r0, r4, ror #8
     a20:	00000464 	andeq	r0, r0, r4, ror #8
     a24:	0000047c 	andeq	r0, r0, ip, ror r4
     a28:	0000047c 	andeq	r0, r0, ip, ror r4
     a2c:	0000047c 	andeq	r0, r0, ip, ror r4
     a30:	0000047c 	andeq	r0, r0, ip, ror r4
     a34:	000004a0 	andeq	r0, r0, r0, lsr #9
     a38:	000004a0 	andeq	r0, r0, r0, lsr #9
     a3c:	000004a0 	andeq	r0, r0, r0, lsr #9
     a40:	000004a0 	andeq	r0, r0, r0, lsr #9
     a44:	000004b8 			; <UNDEFINED> instruction: 0x000004b8
     a48:	000004b8 			; <UNDEFINED> instruction: 0x000004b8
     a4c:	000004b8 			; <UNDEFINED> instruction: 0x000004b8
     a50:	000004b8 			; <UNDEFINED> instruction: 0x000004b8
     a54:	000004dc 	ldrdeq	r0, [r0], -ip
     a58:	000004dc 	ldrdeq	r0, [r0], -ip
     a5c:	000004dc 	ldrdeq	r0, [r0], -ip
     a60:	000004dc 	ldrdeq	r0, [r0], -ip
     a64:	000004f4 	strdeq	r0, [r0], -r4
     a68:	000004f4 	strdeq	r0, [r0], -r4
     a6c:	000004f4 	strdeq	r0, [r0], -r4
     a70:	000004f4 	strdeq	r0, [r0], -r4
     a74:	00000514 	andeq	r0, r0, r4, lsl r5
	...
     a80:	00000448 	andeq	r0, r0, r8, asr #8
     a84:	0000044c 	andeq	r0, r0, ip, asr #8
     a88:	00000458 	andeq	r0, r0, r8, asr r4
     a8c:	00000460 	andeq	r0, r0, r0, ror #8
     a90:	00000460 	andeq	r0, r0, r0, ror #8
     a94:	00000460 	andeq	r0, r0, r0, ror #8
     a98:	00000460 	andeq	r0, r0, r0, ror #8
     a9c:	00000460 	andeq	r0, r0, r0, ror #8
     aa0:	00000464 	andeq	r0, r0, r4, ror #8
     aa4:	00000464 	andeq	r0, r0, r4, ror #8
     aa8:	00000464 	andeq	r0, r0, r4, ror #8
     aac:	00000464 	andeq	r0, r0, r4, ror #8
     ab0:	00000464 	andeq	r0, r0, r4, ror #8
     ab4:	0000047c 	andeq	r0, r0, ip, ror r4
     ab8:	0000047c 	andeq	r0, r0, ip, ror r4
     abc:	0000047c 	andeq	r0, r0, ip, ror r4
     ac0:	0000047c 	andeq	r0, r0, ip, ror r4
     ac4:	000004a0 	andeq	r0, r0, r0, lsr #9
	...
     ad0:	00000448 	andeq	r0, r0, r8, asr #8
     ad4:	0000044c 	andeq	r0, r0, ip, asr #8
     ad8:	00000458 	andeq	r0, r0, r8, asr r4
     adc:	00000460 	andeq	r0, r0, r0, ror #8
     ae0:	00000460 	andeq	r0, r0, r0, ror #8
     ae4:	00000460 	andeq	r0, r0, r0, ror #8
     ae8:	00000464 	andeq	r0, r0, r4, ror #8
     aec:	00000464 	andeq	r0, r0, r4, ror #8
     af0:	00000464 	andeq	r0, r0, r4, ror #8
     af4:	00000464 	andeq	r0, r0, r4, ror #8
     af8:	00000464 	andeq	r0, r0, r4, ror #8
     afc:	0000047c 	andeq	r0, r0, ip, ror r4
     b00:	0000047c 	andeq	r0, r0, ip, ror r4
     b04:	0000047c 	andeq	r0, r0, ip, ror r4
     b08:	0000047c 	andeq	r0, r0, ip, ror r4
     b0c:	000004a0 	andeq	r0, r0, r0, lsr #9
	...
     b18:	00000448 	andeq	r0, r0, r8, asr #8
     b1c:	0000044c 	andeq	r0, r0, ip, asr #8
     b20:	00000458 	andeq	r0, r0, r8, asr r4
     b24:	00000460 	andeq	r0, r0, r0, ror #8
     b28:	00000464 	andeq	r0, r0, r4, ror #8
     b2c:	00000464 	andeq	r0, r0, r4, ror #8
     b30:	00000464 	andeq	r0, r0, r4, ror #8
     b34:	00000464 	andeq	r0, r0, r4, ror #8
     b38:	00000464 	andeq	r0, r0, r4, ror #8
     b3c:	0000047c 	andeq	r0, r0, ip, ror r4
     b40:	0000047c 	andeq	r0, r0, ip, ror r4
     b44:	0000047c 	andeq	r0, r0, ip, ror r4
     b48:	0000047c 	andeq	r0, r0, ip, ror r4
     b4c:	00000494 	muleq	r0, r4, r4
	...
     b58:	00000448 	andeq	r0, r0, r8, asr #8
     b5c:	0000044c 	andeq	r0, r0, ip, asr #8
     b60:	00000458 	andeq	r0, r0, r8, asr r4
     b64:	00000460 	andeq	r0, r0, r0, ror #8
     b68:	00000464 	andeq	r0, r0, r4, ror #8
     b6c:	00000464 	andeq	r0, r0, r4, ror #8
     b70:	00000464 	andeq	r0, r0, r4, ror #8
     b74:	0000047c 	andeq	r0, r0, ip, ror r4
	...
     b80:	00000448 	andeq	r0, r0, r8, asr #8
     b84:	0000044c 	andeq	r0, r0, ip, asr #8
     b88:	00000458 	andeq	r0, r0, r8, asr r4
     b8c:	00000460 	andeq	r0, r0, r0, ror #8
     b90:	00000464 	andeq	r0, r0, r4, ror #8
     b94:	0000047c 	andeq	r0, r0, ip, ror r4
	...
     ba0:	00000448 	andeq	r0, r0, r8, asr #8
     ba4:	0000044c 	andeq	r0, r0, ip, asr #8
     ba8:	00000458 	andeq	r0, r0, r8, asr r4
     bac:	00000460 	andeq	r0, r0, r0, ror #8
     bb0:	00000468 	andeq	r0, r0, r8, ror #8
     bb4:	0000046c 	andeq	r0, r0, ip, ror #8
	...
     bc0:	000004a0 	andeq	r0, r0, r0, lsr #9
     bc4:	000004a0 	andeq	r0, r0, r0, lsr #9
     bc8:	000004a0 	andeq	r0, r0, r0, lsr #9
     bcc:	000004a0 	andeq	r0, r0, r0, lsr #9
     bd0:	000004a0 	andeq	r0, r0, r0, lsr #9
     bd4:	000004b8 			; <UNDEFINED> instruction: 0x000004b8
     bd8:	000004b8 			; <UNDEFINED> instruction: 0x000004b8
     bdc:	000004b8 			; <UNDEFINED> instruction: 0x000004b8
     be0:	000004b8 			; <UNDEFINED> instruction: 0x000004b8
     be4:	000004dc 	ldrdeq	r0, [r0], -ip
	...
     bf0:	000004a0 	andeq	r0, r0, r0, lsr #9
     bf4:	000004a0 	andeq	r0, r0, r0, lsr #9
     bf8:	000004a0 	andeq	r0, r0, r0, lsr #9
     bfc:	000004a0 	andeq	r0, r0, r0, lsr #9
     c00:	000004a0 	andeq	r0, r0, r0, lsr #9
     c04:	000004b8 			; <UNDEFINED> instruction: 0x000004b8
     c08:	000004b8 			; <UNDEFINED> instruction: 0x000004b8
     c0c:	000004b8 			; <UNDEFINED> instruction: 0x000004b8
     c10:	000004b8 			; <UNDEFINED> instruction: 0x000004b8
     c14:	000004d0 	ldrdeq	r0, [r0], -r0	; <UNPREDICTABLE>
	...
     c20:	000004a0 	andeq	r0, r0, r0, lsr #9
     c24:	000004a0 	andeq	r0, r0, r0, lsr #9
     c28:	000004a0 	andeq	r0, r0, r0, lsr #9
     c2c:	000004b8 			; <UNDEFINED> instruction: 0x000004b8
	...
     c38:	000004dc 	ldrdeq	r0, [r0], -ip
     c3c:	000004dc 	ldrdeq	r0, [r0], -ip
     c40:	000004dc 	ldrdeq	r0, [r0], -ip
     c44:	000004dc 	ldrdeq	r0, [r0], -ip
     c48:	000004dc 	ldrdeq	r0, [r0], -ip
     c4c:	000004f4 	strdeq	r0, [r0], -r4
     c50:	000004f4 	strdeq	r0, [r0], -r4
     c54:	000004f4 	strdeq	r0, [r0], -r4
     c58:	000004f4 	strdeq	r0, [r0], -r4
     c5c:	00000514 	andeq	r0, r0, r4, lsl r5
	...
     c68:	000004dc 	ldrdeq	r0, [r0], -ip
     c6c:	000004dc 	ldrdeq	r0, [r0], -ip
     c70:	000004dc 	ldrdeq	r0, [r0], -ip
     c74:	000004dc 	ldrdeq	r0, [r0], -ip
     c78:	000004dc 	ldrdeq	r0, [r0], -ip
     c7c:	000004f4 	strdeq	r0, [r0], -r4
     c80:	000004f4 	strdeq	r0, [r0], -r4
     c84:	000004f4 	strdeq	r0, [r0], -r4
     c88:	000004f4 	strdeq	r0, [r0], -r4
     c8c:	0000050c 	andeq	r0, r0, ip, lsl #10
	...
     c98:	000004dc 	ldrdeq	r0, [r0], -ip
     c9c:	000004dc 	ldrdeq	r0, [r0], -ip
     ca0:	000004dc 	ldrdeq	r0, [r0], -ip
     ca4:	000004f4 	strdeq	r0, [r0], -r4
	...
     cb0:	00000538 	andeq	r0, r0, r8, lsr r5
     cb4:	00000554 	andeq	r0, r0, r4, asr r5
     cb8:	00000554 	andeq	r0, r0, r4, asr r5
     cbc:	00000554 	andeq	r0, r0, r4, asr r5
     cc0:	00000554 	andeq	r0, r0, r4, asr r5
     cc4:	00000558 	andeq	r0, r0, r8, asr r5
     cc8:	00000558 	andeq	r0, r0, r8, asr r5
     ccc:	00000558 	andeq	r0, r0, r8, asr r5
     cd0:	00000558 	andeq	r0, r0, r8, asr r5
     cd4:	00000570 	andeq	r0, r0, r0, ror r5
     cd8:	00000570 	andeq	r0, r0, r0, ror r5
     cdc:	00000570 	andeq	r0, r0, r0, ror r5
     ce0:	00000570 	andeq	r0, r0, r0, ror r5
     ce4:	00000594 	muleq	r0, r4, r5
     ce8:	00000594 	muleq	r0, r4, r5
     cec:	00000594 	muleq	r0, r4, r5
     cf0:	00000594 	muleq	r0, r4, r5
     cf4:	000005ac 	andeq	r0, r0, ip, lsr #11
     cf8:	000005ac 	andeq	r0, r0, ip, lsr #11
     cfc:	000005ac 	andeq	r0, r0, ip, lsr #11
     d00:	000005ac 	andeq	r0, r0, ip, lsr #11
     d04:	000005d0 	ldrdeq	r0, [r0], -r0	; <UNPREDICTABLE>
     d08:	000005d0 	ldrdeq	r0, [r0], -r0	; <UNPREDICTABLE>
     d0c:	000005d0 	ldrdeq	r0, [r0], -r0	; <UNPREDICTABLE>
     d10:	000005d0 	ldrdeq	r0, [r0], -r0	; <UNPREDICTABLE>
     d14:	000005e8 	andeq	r0, r0, r8, ror #11
     d18:	000005e8 	andeq	r0, r0, r8, ror #11
     d1c:	000005e8 	andeq	r0, r0, r8, ror #11
     d20:	000005e8 	andeq	r0, r0, r8, ror #11
     d24:	00000614 	andeq	r0, r0, r4, lsl r6
     d28:	00000618 	andeq	r0, r0, r8, lsl r6
     d2c:	00000620 	andeq	r0, r0, r0, lsr #12
	...
     d38:	00000538 	andeq	r0, r0, r8, lsr r5
     d3c:	00000554 	andeq	r0, r0, r4, asr r5
     d40:	00000554 	andeq	r0, r0, r4, asr r5
     d44:	00000554 	andeq	r0, r0, r4, asr r5
     d48:	00000554 	andeq	r0, r0, r4, asr r5
     d4c:	00000558 	andeq	r0, r0, r8, asr r5
     d50:	00000558 	andeq	r0, r0, r8, asr r5
     d54:	00000558 	andeq	r0, r0, r8, asr r5
     d58:	00000558 	andeq	r0, r0, r8, asr r5
     d5c:	00000570 	andeq	r0, r0, r0, ror r5
     d60:	00000570 	andeq	r0, r0, r0, ror r5
     d64:	00000570 	andeq	r0, r0, r0, ror r5
     d68:	00000570 	andeq	r0, r0, r0, ror r5
     d6c:	00000594 	muleq	r0, r4, r5
     d70:	00000594 	muleq	r0, r4, r5
     d74:	00000594 	muleq	r0, r4, r5
     d78:	00000594 	muleq	r0, r4, r5
     d7c:	000005ac 	andeq	r0, r0, ip, lsr #11
     d80:	000005ac 	andeq	r0, r0, ip, lsr #11
     d84:	000005ac 	andeq	r0, r0, ip, lsr #11
     d88:	000005ac 	andeq	r0, r0, ip, lsr #11
     d8c:	000005d0 	ldrdeq	r0, [r0], -r0	; <UNPREDICTABLE>
     d90:	000005d0 	ldrdeq	r0, [r0], -r0	; <UNPREDICTABLE>
     d94:	000005d0 	ldrdeq	r0, [r0], -r0	; <UNPREDICTABLE>
     d98:	000005d0 	ldrdeq	r0, [r0], -r0	; <UNPREDICTABLE>
     d9c:	000005e8 	andeq	r0, r0, r8, ror #11
     da0:	000005e8 	andeq	r0, r0, r8, ror #11
     da4:	000005e8 	andeq	r0, r0, r8, ror #11
     da8:	000005e8 	andeq	r0, r0, r8, ror #11
     dac:	00000614 	andeq	r0, r0, r4, lsl r6
	...
     db8:	00000540 	andeq	r0, r0, r0, asr #10
     dbc:	00000544 	andeq	r0, r0, r4, asr #10
     dc0:	0000054c 	andeq	r0, r0, ip, asr #10
     dc4:	00000554 	andeq	r0, r0, r4, asr r5
     dc8:	00000554 	andeq	r0, r0, r4, asr r5
     dcc:	00000554 	andeq	r0, r0, r4, asr r5
     dd0:	00000554 	andeq	r0, r0, r4, asr r5
     dd4:	00000554 	andeq	r0, r0, r4, asr r5
     dd8:	00000554 	andeq	r0, r0, r4, asr r5
     ddc:	00000554 	andeq	r0, r0, r4, asr r5
     de0:	00000558 	andeq	r0, r0, r8, asr r5
     de4:	00000558 	andeq	r0, r0, r8, asr r5
     de8:	00000558 	andeq	r0, r0, r8, asr r5
     dec:	00000558 	andeq	r0, r0, r8, asr r5
     df0:	00000558 	andeq	r0, r0, r8, asr r5
     df4:	00000570 	andeq	r0, r0, r0, ror r5
     df8:	00000570 	andeq	r0, r0, r0, ror r5
     dfc:	00000570 	andeq	r0, r0, r0, ror r5
     e00:	00000570 	andeq	r0, r0, r0, ror r5
     e04:	00000594 	muleq	r0, r4, r5
     e08:	00000594 	muleq	r0, r4, r5
     e0c:	00000594 	muleq	r0, r4, r5
     e10:	00000594 	muleq	r0, r4, r5
     e14:	000005ac 	andeq	r0, r0, ip, lsr #11
     e18:	000005ac 	andeq	r0, r0, ip, lsr #11
     e1c:	000005ac 	andeq	r0, r0, ip, lsr #11
     e20:	000005ac 	andeq	r0, r0, ip, lsr #11
     e24:	000005d0 	ldrdeq	r0, [r0], -r0	; <UNPREDICTABLE>
     e28:	000005d0 	ldrdeq	r0, [r0], -r0	; <UNPREDICTABLE>
     e2c:	000005d0 	ldrdeq	r0, [r0], -r0	; <UNPREDICTABLE>
     e30:	000005d0 	ldrdeq	r0, [r0], -r0	; <UNPREDICTABLE>
     e34:	000005e8 	andeq	r0, r0, r8, ror #11
     e38:	000005e8 	andeq	r0, r0, r8, ror #11
     e3c:	000005e8 	andeq	r0, r0, r8, ror #11
     e40:	000005e8 	andeq	r0, r0, r8, ror #11
     e44:	00000608 	andeq	r0, r0, r8, lsl #12
	...
     e50:	00000540 	andeq	r0, r0, r0, asr #10
     e54:	00000544 	andeq	r0, r0, r4, asr #10
     e58:	0000054c 	andeq	r0, r0, ip, asr #10
     e5c:	00000554 	andeq	r0, r0, r4, asr r5
     e60:	00000554 	andeq	r0, r0, r4, asr r5
     e64:	00000554 	andeq	r0, r0, r4, asr r5
     e68:	00000554 	andeq	r0, r0, r4, asr r5
     e6c:	00000554 	andeq	r0, r0, r4, asr r5
     e70:	00000558 	andeq	r0, r0, r8, asr r5
     e74:	00000558 	andeq	r0, r0, r8, asr r5
     e78:	00000558 	andeq	r0, r0, r8, asr r5
     e7c:	00000558 	andeq	r0, r0, r8, asr r5
     e80:	00000558 	andeq	r0, r0, r8, asr r5
     e84:	00000570 	andeq	r0, r0, r0, ror r5
     e88:	00000570 	andeq	r0, r0, r0, ror r5
     e8c:	00000570 	andeq	r0, r0, r0, ror r5
     e90:	00000570 	andeq	r0, r0, r0, ror r5
     e94:	00000594 	muleq	r0, r4, r5
	...
     ea0:	00000540 	andeq	r0, r0, r0, asr #10
     ea4:	00000544 	andeq	r0, r0, r4, asr #10
     ea8:	0000054c 	andeq	r0, r0, ip, asr #10
     eac:	00000554 	andeq	r0, r0, r4, asr r5
     eb0:	00000554 	andeq	r0, r0, r4, asr r5
     eb4:	00000554 	andeq	r0, r0, r4, asr r5
     eb8:	00000558 	andeq	r0, r0, r8, asr r5
     ebc:	00000558 	andeq	r0, r0, r8, asr r5
     ec0:	00000558 	andeq	r0, r0, r8, asr r5
     ec4:	00000558 	andeq	r0, r0, r8, asr r5
     ec8:	00000558 	andeq	r0, r0, r8, asr r5
     ecc:	00000570 	andeq	r0, r0, r0, ror r5
     ed0:	00000570 	andeq	r0, r0, r0, ror r5
     ed4:	00000570 	andeq	r0, r0, r0, ror r5
     ed8:	00000570 	andeq	r0, r0, r0, ror r5
     edc:	00000594 	muleq	r0, r4, r5
	...
     ee8:	00000540 	andeq	r0, r0, r0, asr #10
     eec:	00000544 	andeq	r0, r0, r4, asr #10
     ef0:	0000054c 	andeq	r0, r0, ip, asr #10
     ef4:	00000554 	andeq	r0, r0, r4, asr r5
     ef8:	00000558 	andeq	r0, r0, r8, asr r5
     efc:	00000558 	andeq	r0, r0, r8, asr r5
     f00:	00000558 	andeq	r0, r0, r8, asr r5
     f04:	00000558 	andeq	r0, r0, r8, asr r5
     f08:	00000558 	andeq	r0, r0, r8, asr r5
     f0c:	00000570 	andeq	r0, r0, r0, ror r5
     f10:	00000570 	andeq	r0, r0, r0, ror r5
     f14:	00000570 	andeq	r0, r0, r0, ror r5
     f18:	00000570 	andeq	r0, r0, r0, ror r5
     f1c:	00000588 	andeq	r0, r0, r8, lsl #11
	...
     f28:	00000540 	andeq	r0, r0, r0, asr #10
     f2c:	00000544 	andeq	r0, r0, r4, asr #10
     f30:	0000054c 	andeq	r0, r0, ip, asr #10
     f34:	00000554 	andeq	r0, r0, r4, asr r5
     f38:	00000558 	andeq	r0, r0, r8, asr r5
     f3c:	00000558 	andeq	r0, r0, r8, asr r5
     f40:	00000558 	andeq	r0, r0, r8, asr r5
     f44:	00000570 	andeq	r0, r0, r0, ror r5
	...
     f50:	00000540 	andeq	r0, r0, r0, asr #10
     f54:	00000544 	andeq	r0, r0, r4, asr #10
     f58:	0000054c 	andeq	r0, r0, ip, asr #10
     f5c:	00000554 	andeq	r0, r0, r4, asr r5
     f60:	00000558 	andeq	r0, r0, r8, asr r5
     f64:	00000570 	andeq	r0, r0, r0, ror r5
	...
     f70:	00000540 	andeq	r0, r0, r0, asr #10
     f74:	00000544 	andeq	r0, r0, r4, asr #10
     f78:	0000054c 	andeq	r0, r0, ip, asr #10
     f7c:	00000554 	andeq	r0, r0, r4, asr r5
     f80:	0000055c 	andeq	r0, r0, ip, asr r5
     f84:	00000560 	andeq	r0, r0, r0, ror #10
	...
     f90:	00000594 	muleq	r0, r4, r5
     f94:	00000594 	muleq	r0, r4, r5
     f98:	00000594 	muleq	r0, r4, r5
     f9c:	00000594 	muleq	r0, r4, r5
     fa0:	00000594 	muleq	r0, r4, r5
     fa4:	000005ac 	andeq	r0, r0, ip, lsr #11
     fa8:	000005ac 	andeq	r0, r0, ip, lsr #11
     fac:	000005ac 	andeq	r0, r0, ip, lsr #11
     fb0:	000005ac 	andeq	r0, r0, ip, lsr #11
     fb4:	000005d0 	ldrdeq	r0, [r0], -r0	; <UNPREDICTABLE>
	...
     fc0:	00000594 	muleq	r0, r4, r5
     fc4:	00000594 	muleq	r0, r4, r5
     fc8:	00000594 	muleq	r0, r4, r5
     fcc:	00000594 	muleq	r0, r4, r5
     fd0:	00000594 	muleq	r0, r4, r5
     fd4:	000005ac 	andeq	r0, r0, ip, lsr #11
     fd8:	000005ac 	andeq	r0, r0, ip, lsr #11
     fdc:	000005ac 	andeq	r0, r0, ip, lsr #11
     fe0:	000005ac 	andeq	r0, r0, ip, lsr #11
     fe4:	000005c4 	andeq	r0, r0, r4, asr #11
	...
     ff0:	00000594 	muleq	r0, r4, r5
     ff4:	00000594 	muleq	r0, r4, r5
     ff8:	00000594 	muleq	r0, r4, r5
     ffc:	000005ac 	andeq	r0, r0, ip, lsr #11
	...
    1008:	000005d0 	ldrdeq	r0, [r0], -r0	; <UNPREDICTABLE>
    100c:	000005d0 	ldrdeq	r0, [r0], -r0	; <UNPREDICTABLE>
    1010:	000005d0 	ldrdeq	r0, [r0], -r0	; <UNPREDICTABLE>
    1014:	000005d0 	ldrdeq	r0, [r0], -r0	; <UNPREDICTABLE>
    1018:	000005d0 	ldrdeq	r0, [r0], -r0	; <UNPREDICTABLE>
    101c:	000005e8 	andeq	r0, r0, r8, ror #11
    1020:	000005e8 	andeq	r0, r0, r8, ror #11
    1024:	000005e8 	andeq	r0, r0, r8, ror #11
    1028:	000005e8 	andeq	r0, r0, r8, ror #11
    102c:	00000608 	andeq	r0, r0, r8, lsl #12
	...
    1038:	000005d0 	ldrdeq	r0, [r0], -r0	; <UNPREDICTABLE>
    103c:	000005d0 	ldrdeq	r0, [r0], -r0	; <UNPREDICTABLE>
    1040:	000005d0 	ldrdeq	r0, [r0], -r0	; <UNPREDICTABLE>
    1044:	000005d0 	ldrdeq	r0, [r0], -r0	; <UNPREDICTABLE>
    1048:	000005d0 	ldrdeq	r0, [r0], -r0	; <UNPREDICTABLE>
    104c:	000005e8 	andeq	r0, r0, r8, ror #11
    1050:	000005e8 	andeq	r0, r0, r8, ror #11
    1054:	000005e8 	andeq	r0, r0, r8, ror #11
    1058:	000005e8 	andeq	r0, r0, r8, ror #11
    105c:	00000600 	andeq	r0, r0, r0, lsl #12
	...
    1068:	000005d0 	ldrdeq	r0, [r0], -r0	; <UNPREDICTABLE>
    106c:	000005d0 	ldrdeq	r0, [r0], -r0	; <UNPREDICTABLE>
    1070:	000005d0 	ldrdeq	r0, [r0], -r0	; <UNPREDICTABLE>
    1074:	000005e8 	andeq	r0, r0, r8, ror #11
	...
    1080:	000000a4 	andeq	r0, r0, r4, lsr #1
    1084:	00000148 	andeq	r0, r0, r8, asr #2
    1088:	00000158 	andeq	r0, r0, r8, asr r1
    108c:	0000015c 	andeq	r0, r0, ip, asr r1
    1090:	00000274 	andeq	r0, r0, r4, ror r2
    1094:	00000278 	andeq	r0, r0, r8, ror r2
    1098:	0000027c 	andeq	r0, r0, ip, ror r2
    109c:	00000280 	andeq	r0, r0, r0, lsl #5
    10a0:	00000288 	andeq	r0, r0, r8, lsl #5
    10a4:	0000029c 	muleq	r0, ip, r2
    10a8:	000002c0 	andeq	r0, r0, r0, asr #5
    10ac:	000002cc 	andeq	r0, r0, ip, asr #5
    10b0:	000002f0 	strdeq	r0, [r0], -r0	; <UNPREDICTABLE>
    10b4:	000002f0 	strdeq	r0, [r0], -r0	; <UNPREDICTABLE>
    10b8:	000002f4 	strdeq	r0, [r0], -r4
    10bc:	000002f8 	strdeq	r0, [r0], -r8
	...
    10c8:	00000148 	andeq	r0, r0, r8, asr #2
    10cc:	00000158 	andeq	r0, r0, r8, asr r1
    10d0:	0000015c 	andeq	r0, r0, ip, asr r1
    10d4:	0000018c 	andeq	r0, r0, ip, lsl #3
    10d8:	0000029c 	muleq	r0, ip, r2
    10dc:	000002ac 	andeq	r0, r0, ip, lsr #5
	...
    10e8:	000003c8 	andeq	r0, r0, r8, asr #7
    10ec:	000003d0 	ldrdeq	r0, [r0], -r0	; <UNPREDICTABLE>
    10f0:	00000404 	andeq	r0, r0, r4, lsl #8
    10f4:	000004ac 	andeq	r0, r0, ip, lsr #9
    10f8:	000004c0 	andeq	r0, r0, r0, asr #9
    10fc:	00000920 	andeq	r0, r0, r0, lsr #18
    1100:	00000928 	andeq	r0, r0, r8, lsr #18
    1104:	000009b4 			; <UNDEFINED> instruction: 0x000009b4
	...
    1110:	000003c8 	andeq	r0, r0, r8, asr #7
    1114:	000003d0 	ldrdeq	r0, [r0], -r0	; <UNPREDICTABLE>
    1118:	00000504 	andeq	r0, r0, r4, lsl #10
    111c:	000005d0 	ldrdeq	r0, [r0], -r0	; <UNPREDICTABLE>
    1120:	00000800 	andeq	r0, r0, r0, lsl #16
    1124:	00000888 	andeq	r0, r0, r8, lsl #17
    1128:	00000930 	andeq	r0, r0, r0, lsr r9
    112c:	000009b4 			; <UNDEFINED> instruction: 0x000009b4
	...
    1138:	00000404 	andeq	r0, r0, r4, lsl #8
    113c:	00000408 	andeq	r0, r0, r8, lsl #8
    1140:	00000414 	andeq	r0, r0, r4, lsl r4
    1144:	00000414 	andeq	r0, r0, r4, lsl r4
    1148:	00000428 	andeq	r0, r0, r8, lsr #8
    114c:	0000042c 	andeq	r0, r0, ip, lsr #8
	...
    1158:	000005fc 	strdeq	r0, [r0], -ip
    115c:	00000700 	andeq	r0, r0, r0, lsl #14
    1160:	000007ec 	andeq	r0, r0, ip, ror #15
    1164:	000007f4 	strdeq	r0, [r0], -r4
    1168:	00000888 	andeq	r0, r0, r8, lsl #17
    116c:	00000894 	muleq	r0, r4, r8
    1170:	000008a8 	andeq	r0, r0, r8, lsr #17
    1174:	000008bc 			; <UNDEFINED> instruction: 0x000008bc
    1178:	00000910 	andeq	r0, r0, r0, lsl r9
    117c:	00000920 	andeq	r0, r0, r0, lsr #18
	...
    1188:	00000600 	andeq	r0, r0, r0, lsl #12
    118c:	00000604 	andeq	r0, r0, r4, lsl #12
    1190:	00000608 	andeq	r0, r0, r8, lsl #12
    1194:	000006b4 			; <UNDEFINED> instruction: 0x000006b4
    1198:	000006cc 	andeq	r0, r0, ip, asr #13
    119c:	000006d0 	ldrdeq	r0, [r0], -r0	; <UNPREDICTABLE>
    11a0:	000008a8 	andeq	r0, r0, r8, lsr #17
    11a4:	000008b8 			; <UNDEFINED> instruction: 0x000008b8
    11a8:	00000910 	andeq	r0, r0, r0, lsl r9
    11ac:	00000920 	andeq	r0, r0, r0, lsr #18
	...
    11b8:	000006b4 			; <UNDEFINED> instruction: 0x000006b4
    11bc:	000006cc 	andeq	r0, r0, ip, asr #13
    11c0:	000006d0 	ldrdeq	r0, [r0], -r0	; <UNPREDICTABLE>
    11c4:	00000700 	andeq	r0, r0, r0, lsl #14
    11c8:	000007ec 	andeq	r0, r0, ip, ror #15
    11cc:	000007f4 	strdeq	r0, [r0], -r4
    11d0:	00000888 	andeq	r0, r0, r8, lsl #17
    11d4:	00000894 	muleq	r0, r4, r8
    11d8:	000008b8 			; <UNDEFINED> instruction: 0x000008b8
    11dc:	000008bc 			; <UNDEFINED> instruction: 0x000008bc
	...
    11e8:	00000700 	andeq	r0, r0, r0, lsl #14
    11ec:	00000708 	andeq	r0, r0, r8, lsl #14
    11f0:	0000070c 	andeq	r0, r0, ip, lsl #14
    11f4:	000007ec 	andeq	r0, r0, ip, ror #15
    11f8:	00000894 	muleq	r0, r4, r8
    11fc:	000008a8 	andeq	r0, r0, r8, lsr #17
	...
    1208:	00000728 	andeq	r0, r0, r8, lsr #14
    120c:	000007a4 	andeq	r0, r0, r4, lsr #15
    1210:	000007ac 	andeq	r0, r0, ip, lsr #15
    1214:	000007b0 			; <UNDEFINED> instruction: 0x000007b0
    1218:	00000894 	muleq	r0, r4, r8
    121c:	00000898 	muleq	r0, r8, r8
    1220:	0000089c 	muleq	r0, ip, r8
    1224:	000008a0 	andeq	r0, r0, r0, lsr #17
	...
    1230:	000007a4 	andeq	r0, r0, r4, lsr #15
    1234:	000007ac 	andeq	r0, r0, ip, lsr #15
    1238:	000007b0 			; <UNDEFINED> instruction: 0x000007b0
    123c:	000007ec 	andeq	r0, r0, ip, ror #15
    1240:	00000898 	muleq	r0, r8, r8
    1244:	0000089c 	muleq	r0, ip, r8
    1248:	000008a0 	andeq	r0, r0, r0, lsr #17
    124c:	000008a8 	andeq	r0, r0, r8, lsr #17
	...
    1258:	0000939c 	muleq	r0, ip, r3
    125c:	000093bc 			; <UNDEFINED> instruction: 0x000093bc
	...
    1268:	00009510 	andeq	r9, r0, r0, lsl r5
    126c:	00009510 	andeq	r9, r0, r0, lsl r5
    1270:	00009514 	andeq	r9, r0, r4, lsl r5
    1274:	0000951c 	andeq	r9, r0, ip, lsl r5
	...
    1280:	000094e4 	andeq	r9, r0, r4, ror #9
    1284:	00009570 	andeq	r9, r0, r0, ror r5
	...
    1290:	00000030 	andeq	r0, r0, r0, lsr r0
    1294:	00000030 	andeq	r0, r0, r0, lsr r0
    1298:	00000038 	andeq	r0, r0, r8, lsr r0
    129c:	0000004c 	andeq	r0, r0, ip, asr #32
	...
    12a8:	0000004c 	andeq	r0, r0, ip, asr #32
    12ac:	00000050 	andeq	r0, r0, r0, asr r0
    12b0:	00000050 	andeq	r0, r0, r0, asr r0
    12b4:	00000078 	andeq	r0, r0, r8, ror r0
	...
    12c0:	0000004c 	andeq	r0, r0, ip, asr #32
    12c4:	00000050 	andeq	r0, r0, r0, asr r0
    12c8:	00000050 	andeq	r0, r0, r0, asr r0
    12cc:	00000060 	andeq	r0, r0, r0, rrx
    12d0:	00000064 	andeq	r0, r0, r4, rrx
    12d4:	00000068 	andeq	r0, r0, r8, rrx
	...
    12e0:	0000004c 	andeq	r0, r0, ip, asr #32
    12e4:	00000050 	andeq	r0, r0, r0, asr r0
    12e8:	00000054 	andeq	r0, r0, r4, asr r0
    12ec:	00000060 	andeq	r0, r0, r0, rrx
	...
    12f8:	0000009c 	muleq	r0, ip, r0
    12fc:	000000a0 	andeq	r0, r0, r0, lsr #1
    1300:	000000a0 	andeq	r0, r0, r0, lsr #1
    1304:	000000c8 	andeq	r0, r0, r8, asr #1
	...
    1310:	0000009c 	muleq	r0, ip, r0
    1314:	000000a0 	andeq	r0, r0, r0, lsr #1
    1318:	000000a0 	andeq	r0, r0, r0, lsr #1
    131c:	000000b0 	strheq	r0, [r0], -r0	; <UNPREDICTABLE>
    1320:	000000b4 	strheq	r0, [r0], -r4
    1324:	000000b8 	strheq	r0, [r0], -r8
	...
    1330:	0000009c 	muleq	r0, ip, r0
    1334:	000000a0 	andeq	r0, r0, r0, lsr #1
    1338:	000000a4 	andeq	r0, r0, r4, lsr #1
    133c:	000000b0 	strheq	r0, [r0], -r0	; <UNPREDICTABLE>
	...
    1348:	000000c8 	andeq	r0, r0, r8, asr #1
    134c:	000000c8 	andeq	r0, r0, r8, asr #1
    1350:	000000cc 	andeq	r0, r0, ip, asr #1
    1354:	0000011c 	andeq	r0, r0, ip, lsl r1
	...
    1360:	000000f0 	strdeq	r0, [r0], -r0	; <UNPREDICTABLE>
    1364:	000000f4 	strdeq	r0, [r0], -r4
    1368:	000000f4 	strdeq	r0, [r0], -r4
    136c:	0000011c 	andeq	r0, r0, ip, lsl r1
	...
    1378:	000000f0 	strdeq	r0, [r0], -r0	; <UNPREDICTABLE>
    137c:	000000f4 	strdeq	r0, [r0], -r4
    1380:	000000f4 	strdeq	r0, [r0], -r4
    1384:	00000104 	andeq	r0, r0, r4, lsl #2
    1388:	00000108 	andeq	r0, r0, r8, lsl #2
    138c:	0000010c 	andeq	r0, r0, ip, lsl #2
	...
    1398:	000000f0 	strdeq	r0, [r0], -r0	; <UNPREDICTABLE>
    139c:	000000f4 	strdeq	r0, [r0], -r4
    13a0:	000000f8 	strdeq	r0, [r0], -r8
    13a4:	00000104 	andeq	r0, r0, r4, lsl #2
	...
    13b0:	00000134 	andeq	r0, r0, r4, lsr r1
    13b4:	00000134 	andeq	r0, r0, r4, lsr r1
    13b8:	00000134 	andeq	r0, r0, r4, lsr r1
    13bc:	0000013c 	andeq	r0, r0, ip, lsr r1
	...
    13c8:	0000024c 	andeq	r0, r0, ip, asr #4
    13cc:	00000264 	andeq	r0, r0, r4, ror #4
    13d0:	000002c8 	andeq	r0, r0, r8, asr #5
    13d4:	000002e8 	andeq	r0, r0, r8, ror #5
	...

Disassembly of section .debug_line:

00000000 <.debug_line>:
       0:	00000178 	andeq	r0, r0, r8, ror r1
       4:	00780003 	rsbseq	r0, r8, r3
       8:	01020000 	mrseq	r0, (UNDEF: 2)
       c:	000d0efb 	strdeq	r0, [sp], -fp
      10:	01010101 	tsteq	r1, r1, lsl #2
      14:	01000000 	mrseq	r0, (UNDEF: 0)
      18:	2f010000 	svccs	0x00010000
      1c:	72657355 	rsbvc	r7, r5, #1409286145	; 0x54000001
      20:	696d2f73 	stmdbvs	sp!, {r0, r1, r4, r5, r6, r8, r9, sl, fp, sp}^
      24:	2f73656c 	svccs	0x0073656c
      28:	72756f53 	rsbsvc	r6, r5, #332	; 0x14c
      2c:	632f6563 			; <UNDEFINED> instruction: 0x632f6563
      30:	30343273 	eorscc	r3, r4, r3, ror r2
      34:	6c2f786c 	stcvs	8, cr7, [pc], #-432	; fffffe8c <__bss_end__+0xffff59a4>
      38:	69706269 	ldmdbvs	r0!, {r0, r3, r5, r6, r9, sp, lr}^
      3c:	636e692f 	cmnvs	lr, #770048	; 0xbc000
      40:	6564756c 	strbvs	r7, [r4, #-1388]!	; 0xfffffa94
      44:	2d340000 	ldccs	0, cr0, [r4, #-0]
      48:	6c637963 			; <UNDEFINED> instruction: 0x6c637963
      4c:	00632e65 	rsbeq	r2, r3, r5, ror #28
      50:	72000000 	andvc	r0, r0, #0, 0
      54:	682e6970 	stmdavs	lr!, {r4, r5, r6, r8, fp, sp, lr}
      58:	00000100 	andeq	r0, r0, r0, lsl #2
      5c:	38325357 	ldmdacc	r2!, {r0, r1, r2, r4, r6, r8, r9, ip, lr}
      60:	2e423231 	mcrcs	2, 2, r3, cr2, cr1, {1}
      64:	00000068 	andeq	r0, r0, r8, rrx
      68:	6f656e00 	svcvs	0x00656e00
      6c:	65786970 	ldrbvs	r6, [r8, #-2416]!	; 0xfffff690
      70:	00682e6c 	rsbeq	r2, r8, ip, ror #28
      74:	67000000 	strvs	r0, [r0, -r0]
      78:	2e6f6970 			; <UNDEFINED> instruction: 0x2e6f6970
      7c:	00010068 	andeq	r0, r1, r8, rrx
      80:	01050000 	mrseq	r0, (UNDEF: 5)
      84:	40020500 	andmi	r0, r2, r0, lsl #10
      88:	03000080 	movweq	r0, #128	; 0x80
      8c:	0505010f 	streq	r0, [r5, #-271]	; 0xfffffef1
      90:	06010513 			; <UNDEFINED> instruction: 0x06010513
      94:	4b050511 	blmi	1414e0 <__bss_end__+0x136ff8>
      98:	134f2f06 	movtne	r2, #65286	; 0xff06
      9c:	01060f05 	tsteq	r6, r5, lsl #30
      a0:	056a0e05 	strbeq	r0, [sl, #-3589]!	; 0xfffff1fb
      a4:	05052a0f 	streq	r2, [r5, #-2575]	; 0xfffff5f1
      a8:	05133106 	ldreq	r3, [r3, #-262]	; 0xfffffefa
      ac:	1505010a 	strne	r0, [r5, #-266]	; 0xfffffef6
      b0:	06090501 	streq	r0, [r9], -r1, lsl #10
      b4:	06190511 			; <UNDEFINED> instruction: 0x06190511
      b8:	06120531 			; <UNDEFINED> instruction: 0x06120531
      bc:	30160501 	andscc	r0, r6, r1, lsl #10
      c0:	4a061d05 	bmi	1874dc <__bss_end__+0x17cff4>
      c4:	03060105 	movweq	r0, #24837	; 0x6105
      c8:	16050170 			; <UNDEFINED> instruction: 0x16050170
      cc:	052e1003 	streq	r1, [lr, #-3]!
      d0:	04020015 	streq	r0, [r2], #-21	; 0xffffffeb
      d4:	004c0603 	subeq	r0, ip, r3, lsl #12
      d8:	d7030402 	strle	r0, [r3, -r2, lsl #8]
      dc:	03040200 	movweq	r0, #16896	; 0x4200
      e0:	0028054b 	eoreq	r0, r8, fp, asr #10
      e4:	06030402 	streq	r0, [r3], -r2, lsl #8
      e8:	0015050e 	andseq	r0, r5, lr, lsl #10
      ec:	33030402 	movwcc	r0, #13314	; 0x3402
      f0:	02000d05 	andeq	r0, r0, #320	; 0x140
      f4:	05450304 	strbeq	r0, [r5, #-772]	; 0xfffffcfc
      f8:	04020016 	streq	r0, [r2], #-22	; 0xffffffea
      fc:	15053203 	strne	r3, [r5, #-515]	; 0xfffffdfd
     100:	03040200 	movweq	r0, #16896	; 0x4200
     104:	26052f06 	strcs	r2, [r5], -r6, lsl #30
     108:	03040200 	movweq	r0, #16896	; 0x4200
     10c:	001d050d 	andseq	r0, sp, sp, lsl #10
     110:	01030402 	tsteq	r3, r2, lsl #8
     114:	02000d05 	andeq	r0, r0, #320	; 0x140
     118:	01060304 	tsteq	r6, r4, lsl #6
     11c:	02002405 	andeq	r2, r0, #83886080	; 0x5000000
     120:	052c0204 	streq	r0, [ip, #-516]!	; 0xfffffdfc
     124:	04020009 	streq	r0, [r2], #-9
     128:	22052e02 	andcs	r2, r5, #2, 28
     12c:	02040200 	andeq	r0, r4, #0, 4
     130:	19054a06 	stmdbne	r5, {r1, r2, r9, fp, lr}
     134:	02040200 	andeq	r0, r4, #0, 4
     138:	00090501 	andeq	r0, r9, r1, lsl #10
     13c:	06020402 	streq	r0, [r2], -r2, lsl #8
     140:	00200501 	eoreq	r0, r0, r1, lsl #10
     144:	48020402 	stmdami	r2, {r1, sl}
     148:	02040200 	andeq	r0, r4, #0, 4
     14c:	0005052e 	andeq	r0, r5, lr, lsr #10
     150:	2e020402 	cdpcs	4, 0, cr0, cr2, cr2, {0}
     154:	02001e05 	andeq	r1, r0, #80	; 0x50
     158:	4a060204 	bmi	180970 <__bss_end__+0x176488>
     15c:	02001505 	andeq	r1, r0, #20971520	; 0x1400000
     160:	05010204 	streq	r0, [r1, #-516]	; 0xfffffdfc
     164:	04020005 	streq	r0, [r2], #-5
     168:	06010602 	streq	r0, [r1], -r2, lsl #12
     16c:	052e0d03 	streq	r0, [lr, #-3331]!	; 0xfffff2fd
     170:	052f0601 	streq	r0, [pc, #-1537]!	; fffffb77 <__bss_end__+0xffff568f>
     174:	022e4905 	eoreq	r4, lr, #81920	; 0x14000
     178:	01010002 	tsteq	r1, r2
     17c:	00000ff1 	strdeq	r0, [r0], -r1
     180:	00e20003 	rsceq	r0, r2, r3
     184:	01020000 	mrseq	r0, (UNDEF: 2)
     188:	000d0efb 	strdeq	r0, [sp], -fp
     18c:	01010101 	tsteq	r1, r1, lsl #2
     190:	01000000 	mrseq	r0, (UNDEF: 0)
     194:	2f010000 	svccs	0x00010000
     198:	2f74706f 	svccs	0x0074706f
     19c:	656d6f68 	strbvs	r6, [sp, #-3944]!	; 0xfffff098
     1a0:	77657262 	strbvc	r7, [r5, -r2, ror #4]!
     1a4:	6c65432f 	stclvs	3, cr4, [r5], #-188	; 0xffffff44
     1a8:	2f72616c 	svccs	0x0072616c
     1ac:	2d6d7261 	sfmcs	f7, 2, [sp, #-388]!	; 0xfffffe7c
     1b0:	656e6f6e 	strbvs	r6, [lr, #-3950]!	; 0xfffff092
     1b4:	6261652d 	rsbvs	r6, r1, #188743680	; 0xb400000
     1b8:	2f392d69 	svccs	0x00392d69
     1bc:	30322d39 	eorscc	r2, r2, r9, lsr sp
     1c0:	34713931 	ldrbtcc	r3, [r1], #-2353	; 0xfffff6cf
     1c4:	3173632d 	cmncc	r3, sp, lsr #6
     1c8:	2f653730 	svccs	0x00653730
     1cc:	2f62696c 	svccs	0x0062696c
     1d0:	2f636367 	svccs	0x00636367
     1d4:	2d6d7261 	sfmcs	f7, 2, [sp, #-388]!	; 0xfffffe7c
     1d8:	656e6f6e 	strbvs	r6, [lr, #-3950]!	; 0xfffff092
     1dc:	6261652d 	rsbvs	r6, r1, #188743680	; 0xb400000
     1e0:	2e392f69 	cdpcs	15, 3, cr2, cr9, cr9, {3}
     1e4:	2f312e32 	svccs	0x00312e32
     1e8:	6c636e69 	stclvs	14, cr6, [r3], #-420	; 0xfffffe5c
     1ec:	00656475 	rsbeq	r6, r5, r5, ror r4
     1f0:	6573552f 	ldrbvs	r5, [r3, #-1327]!	; 0xfffffad1
     1f4:	6d2f7372 	stcvs	3, cr7, [pc, #-456]!	; 34 <__code_start__-0x7fcc>
     1f8:	73656c69 	cmnvc	r5, #26880	; 0x6900
     1fc:	756f532f 	strbvc	r5, [pc, #-815]!	; fffffed5 <__bss_end__+0xffff59ed>
     200:	2f656372 	svccs	0x00656372
     204:	34327363 	ldrtcc	r7, [r2], #-867	; 0xfffffc9d
     208:	2f786c30 	svccs	0x00786c30
     20c:	7062696c 	rsbvc	r6, r2, ip, ror #18
     210:	6e692f69 	cdpvs	15, 6, cr2, cr9, cr9, {3}
     214:	64756c63 	ldrbtvs	r6, [r5], #-3171	; 0xfffff39d
     218:	6e000065 	cdpvs	0, 0, cr0, cr0, cr5, {3}
     21c:	69706f65 	ldmdbvs	r0!, {r0, r2, r5, r6, r8, r9, sl, fp, sp, lr}^
     220:	2e6c6578 	mcrcs	5, 3, r6, cr12, cr8, {3}
     224:	00000063 	andeq	r0, r0, r3, rrx
     228:	32535700 	subscc	r5, r3, #0, 14
     22c:	42323138 	eorsmi	r3, r2, #14
     230:	0000682e 	andeq	r6, r0, lr, lsr #16
     234:	74730000 	ldrbtvc	r0, [r3], #-0
     238:	746e6964 	strbtvc	r6, [lr], #-2404	; 0xfffff69c
     23c:	6363672d 	cmnvs	r3, #11796480	; 0xb40000
     240:	0100682e 	tsteq	r0, lr, lsr #16
     244:	70720000 	rsbsvc	r0, r2, r0
     248:	00682e69 	rsbeq	r2, r8, r9, ror #28
     24c:	6e000002 	cdpvs	0, 0, cr0, cr0, cr2, {0}
     250:	69706f65 	ldmdbvs	r0!, {r0, r2, r5, r6, r8, r9, sl, fp, sp, lr}^
     254:	2e6c6578 	mcrcs	5, 3, r6, cr12, cr8, {3}
     258:	00000068 	andeq	r0, r0, r8, rrx
     25c:	69706700 	ldmdbvs	r0!, {r8, r9, sl, sp, lr}^
     260:	00682e6f 	rsbeq	r2, r8, pc, ror #28
     264:	00000002 	andeq	r0, r0, r2
     268:	05001c05 	streq	r1, [r0, #-3077]	; 0xfffff3fb
     26c:	00810002 	addeq	r0, r1, r2
     270:	011d0300 	tsteq	sp, r0, lsl #6
     274:	04140505 	ldreq	r0, [r4], #-1285	; 0xfffffafb
     278:	03140502 	tsteq	r4, #8388608	; 0x800000
     27c:	050101a5 	streq	r0, [r1, #-421]	; 0xfffffe5b
     280:	14051305 	strne	r1, [r5], #-773	; 0xfffffcfb
     284:	05017603 	streq	r7, [r1, #-1539]	; 0xfffff9fd
     288:	14051305 	strne	r1, [r5], #-773	; 0xfffffcfb
     28c:	05016703 	streq	r6, [r1, #-1795]	; 0xfffff8fd
     290:	16051305 	strne	r1, [r5], -r5, lsl #6
     294:	01040101 	tsteq	r4, r1, lsl #2
     298:	03061c05 	movweq	r1, #27653	; 0x6c05
     29c:	04017ef9 	streq	r7, [r1], #-3833	; 0xfffff107
     2a0:	03160502 	tsteq	r6, #8388608	; 0x800000
     2a4:	062e0187 	strteq	r0, [lr], -r7, lsl #3
     2a8:	0501062e 	streq	r0, [r1, #-1582]	; 0xfffff9d2
     2ac:	05130605 	ldreq	r0, [r3, #-1541]	; 0xfffff9fb
     2b0:	01560314 	cmpeq	r6, r4, lsl r3
     2b4:	05130505 	ldreq	r0, [r3, #-1285]	; 0xfffffafb
     2b8:	04010614 	streq	r0, [r1], #-1556	; 0xfffff9ec
     2bc:	03050501 	movweq	r0, #21761	; 0x5501
     2c0:	042e7fa3 	strteq	r7, [lr], #-4003	; 0xfffff05d
     2c4:	03100502 	tsteq	r0, #8388608	; 0x800000
     2c8:	052e00dd 	streq	r0, [lr, #-221]!	; 0xffffff23
     2cc:	052e2e14 	streq	r2, [lr, #-3604]!	; 0xfffff1ec
     2d0:	1005180a 	andne	r1, r5, sl, lsl #16
     2d4:	2e2e7a03 	vmulcs.f32	s14, s28, s6
     2d8:	19060905 	stmdbne	r6, {r0, r2, r8, fp}
     2dc:	05110a05 	ldreq	r0, [r1, #-2565]	; 0xfffff5fb
     2e0:	2e010111 	mcrcs	1, 0, r0, cr1, cr1, {0}
     2e4:	23050106 	movwcs	r0, #20742	; 0x5106
     2e8:	2e0a0501 	cfsh32cs	mvfx0, mvfx10, #1
     2ec:	0501044a 	streq	r0, [r1, #-1098]	; 0xfffffbb6
     2f0:	9e030614 	mcrls	6, 0, r0, cr3, cr4, {0}
     2f4:	1905017f 	stmdbne	r5, {r0, r1, r2, r3, r4, r5, r6, r8}
     2f8:	05050106 	streq	r0, [r5, #-262]	; 0xfffffefa
     2fc:	4c18052e 	cfldr32mi	mvfx0, [r8], {46}	; 0x2e
     300:	10050204 	andne	r0, r5, r4, lsl #4
     304:	4a00d703 	bmi	35f18 <__bss_end__+0x2ba30>
     308:	0501044a 	streq	r0, [r1, #-1098]	; 0xfffffbb6
     30c:	04020009 	streq	r0, [r2], #-9
     310:	a8030603 	stmdage	r3, {r0, r1, r9, sl}
     314:	0204017f 	andeq	r0, r4, #-1073741793	; 0xc000001f
     318:	02000d05 	andeq	r0, r0, #320	; 0x140
     31c:	03060304 	movweq	r0, #25348	; 0x6304
     320:	040101b8 	streq	r0, [r1], #-440	; 0xfffffe48
     324:	00090501 	andeq	r0, r9, r1, lsl #10
     328:	03030402 	movweq	r0, #13314	; 0x3402
     32c:	042e7ec8 	strteq	r7, [lr], #-3784	; 0xfffff138
     330:	00140502 	andseq	r0, r4, r2, lsl #10
     334:	06030402 	streq	r0, [r3], -r2, lsl #8
     338:	4a01be03 	bmi	6fb4c <__bss_end__+0x65664>
     33c:	02000505 	andeq	r0, r0, #20971520	; 0x1400000
     340:	05170304 	ldreq	r0, [r7, #-772]	; 0xfffffcfc
     344:	04020014 	streq	r0, [r2], #-20	; 0xffffffec
     348:	01740303 	cmneq	r4, r3, lsl #6
     34c:	02000505 	andeq	r0, r0, #20971520	; 0x1400000
     350:	05130304 	ldreq	r0, [r3, #-772]	; 0xfffffcfc
     354:	04020009 	streq	r0, [r2], #-9
     358:	14050103 	strne	r0, [r5], #-259	; 0xfffffefd
     35c:	03040200 	movweq	r0, #16896	; 0x4200
     360:	2f090501 	svccs	0x00090501
     364:	6f031405 	svcvs	0x00031405
     368:	13050501 	movwne	r0, #21761	; 0x5501
     36c:	03061d05 	movweq	r1, #27909	; 0x6d05
     370:	08050110 	stmdaeq	r5, {r4, r8}
     374:	052e7003 	streq	r7, [lr, #-3]!
     378:	054b0609 	strbeq	r0, [fp, #-1545]	; 0xfffff9f7
     37c:	015f0314 	cmpeq	pc, r4, lsl r3	; <UNPREDICTABLE>
     380:	05130505 	ldreq	r0, [r3, #-1285]	; 0xfffffafb
     384:	01700314 	cmneq	r0, r4, lsl r3
     388:	05130505 	ldreq	r0, [r3, #-1285]	; 0xfffffafb
     38c:	2e010116 	mcrcs	1, 0, r0, cr1, cr6, {0}
     390:	05050106 	streq	r0, [r5, #-262]	; 0xfffffefa
     394:	14051306 	strne	r1, [r5], #-774	; 0xfffffcfa
     398:	05015b03 	streq	r5, [r1, #-2819]	; 0xfffff4fd
     39c:	10051305 	andne	r1, r5, r5, lsl #6
     3a0:	052e0106 	streq	r0, [lr, #-262]!	; 0xfffffefa
     3a4:	0a030609 	beq	c1bd0 <__bss_end__+0xb76e8>
     3a8:	110a0501 	tstne	sl, r1, lsl #10
     3ac:	01011105 	tsteq	r1, r5, lsl #2
     3b0:	0501062e 	streq	r0, [r1, #-1582]	; 0xfffff9d2
     3b4:	0a050123 	beq	140848 <__bss_end__+0x136360>
     3b8:	09054a2e 	stmdbeq	r5, {r1, r2, r3, r5, r9, fp, lr}
     3bc:	00ca0306 	sbceq	r0, sl, r6, lsl #6
     3c0:	03140501 	tsteq	r4, #4194304	; 0x400000
     3c4:	05050167 	streq	r0, [r5, #-359]	; 0xfffffe99
     3c8:	03140513 	tsteq	r4, #79691776	; 0x4c00000
     3cc:	0505016f 	streq	r0, [r5, #-367]	; 0xfffffe91
     3d0:	01160513 	tsteq	r6, r3, lsl r5
     3d4:	01062e01 	tsteq	r6, r1, lsl #28
     3d8:	13060505 	movwne	r0, #25861	; 0x6505
     3dc:	56031405 	strpl	r1, [r3], -r5, lsl #8
     3e0:	13050501 	movwne	r0, #21761	; 0x5501
     3e4:	01061005 	tsteq	r6, r5
     3e8:	0609052e 	streq	r0, [r9], -lr, lsr #10
     3ec:	110a0519 	tstne	sl, r9, lsl r5
     3f0:	01011105 	tsteq	r1, r5, lsl #2
     3f4:	0501062e 	streq	r0, [r1, #-1582]	; 0xfffff9d2
     3f8:	0a050123 	beq	14088c <__bss_end__+0x1363a4>
     3fc:	1b054a2e 	blne	152cbc <__bss_end__+0x1487d4>
     400:	00d70306 	sbcseq	r0, r7, r6, lsl #6
     404:	061c0501 	ldreq	r0, [ip], -r1, lsl #10
     408:	06140501 	ldreq	r0, [r4], -r1, lsl #10
     40c:	0605052e 	streq	r0, [r5], -lr, lsr #10
     410:	0d054a01 	vstreq	s8, [r5, #-4]
     414:	06090501 	streq	r0, [r9], -r1, lsl #10
     418:	0314052f 	tsteq	r4, #197132288	; 0xbc00000
     41c:	0505016f 	streq	r0, [r5, #-367]	; 0xfffffe91
     420:	061d0513 			; <UNDEFINED> instruction: 0x061d0513
     424:	05011003 	streq	r1, [r1, #-3]
     428:	2e700308 	cdpcs	3, 7, cr0, cr0, cr8, {0}
     42c:	4b060905 	blmi	182848 <__bss_end__+0x178360>
     430:	5f031405 	svcpl	0x00031405
     434:	13050501 	movwne	r0, #21761	; 0x5501
     438:	70031405 	andvc	r1, r3, r5, lsl #8
     43c:	13050501 	movwne	r0, #21761	; 0x5501
     440:	01011605 	tsteq	r1, r5, lsl #12
     444:	0501062e 	streq	r0, [r1, #-1582]	; 0xfffff9d2
     448:	05130605 	ldreq	r0, [r3, #-1541]	; 0xfffff9fb
     44c:	015b0314 	cmpeq	fp, r4, lsl r3
     450:	05130505 	ldreq	r0, [r3, #-1285]	; 0xfffffafb
     454:	2e010610 	mcrcs	6, 0, r0, cr1, cr0, {0}
     458:	03060905 	movweq	r0, #26885	; 0x6905
     45c:	0a05010a 	beq	14088c <__bss_end__+0x1363a4>
     460:	01110511 	tsteq	r1, r1, lsl r5
     464:	01062e01 	tsteq	r6, r1, lsl #28
     468:	05012305 	streq	r2, [r1, #-773]	; 0xfffffcfb
     46c:	054a2e0a 	strbeq	r2, [sl, #-3594]	; 0xfffff1f6
     470:	ca030609 	bgt	c1c9c <__bss_end__+0xb77b4>
     474:	14050100 	strne	r0, [r5], #-256	; 0xffffff00
     478:	05016703 	streq	r6, [r1, #-1795]	; 0xfffff8fd
     47c:	14051305 	strne	r1, [r5], #-773	; 0xfffffcfb
     480:	05016f03 	streq	r6, [r1, #-3843]	; 0xfffff0fd
     484:	16051305 	strne	r1, [r5], -r5, lsl #6
     488:	062e0101 	strteq	r0, [lr], -r1, lsl #2
     48c:	06050501 	streq	r0, [r5], -r1, lsl #10
     490:	03140513 	tsteq	r4, #79691776	; 0x4c00000
     494:	05050156 	streq	r0, [r5, #-342]	; 0xfffffeaa
     498:	06100513 			; <UNDEFINED> instruction: 0x06100513
     49c:	09052e01 	stmdbeq	r5, {r0, r9, sl, fp, sp}
     4a0:	0a051906 	beq	1468c0 <__bss_end__+0x13c3d8>
     4a4:	01110511 	tsteq	r1, r1, lsl r5
     4a8:	01062e01 	tsteq	r6, r1, lsl #28
     4ac:	05012305 	streq	r2, [r1, #-773]	; 0xfffffcfb
     4b0:	054a2e0a 	strbeq	r2, [sl, #-3594]	; 0xfffff1f6
     4b4:	d703061b 	smladle	r3, fp, r6, r0
     4b8:	1c050100 	stfnes	f0, [r5], {-0}
     4bc:	14050106 	strne	r0, [r5], #-262	; 0xfffffefa
     4c0:	05052e06 	streq	r2, [r5, #-3590]	; 0xfffff1fa
     4c4:	054a0106 	strbeq	r0, [sl, #-262]	; 0xfffffefa
     4c8:	0905010d 	stmdbeq	r5, {r0, r2, r3, r8}
     4cc:	14052f06 	strne	r2, [r5], #-3846	; 0xfffff0fa
     4d0:	05016f03 	streq	r6, [r1, #-3843]	; 0xfffff0fd
     4d4:	1d051305 	stcne	3, cr1, [r5, #-20]	; 0xffffffec
     4d8:	01100306 	tsteq	r0, r6, lsl #6
     4dc:	70030805 	andvc	r0, r3, r5, lsl #16
     4e0:	0609052e 	streq	r0, [r9], -lr, lsr #10
     4e4:	0314054b 	tsteq	r4, #314572800	; 0x12c00000
     4e8:	0505015f 	streq	r0, [r5, #-351]	; 0xfffffea1
     4ec:	03140513 	tsteq	r4, #79691776	; 0x4c00000
     4f0:	05050170 	streq	r0, [r5, #-368]	; 0xfffffe90
     4f4:	01160513 	tsteq	r6, r3, lsl r5
     4f8:	01062e01 	tsteq	r6, r1, lsl #28
     4fc:	13060505 	movwne	r0, #25861	; 0x6505
     500:	5b031405 	blpl	c551c <__bss_end__+0xbb034>
     504:	13050501 	movwne	r0, #21761	; 0x5501
     508:	01061005 	tsteq	r6, r5
     50c:	0609052e 	streq	r0, [r9], -lr, lsr #10
     510:	05010a03 	streq	r0, [r1, #-2563]	; 0xfffff5fd
     514:	1105110a 	tstne	r5, sl, lsl #2
     518:	062e0101 	strteq	r0, [lr], -r1, lsl #2
     51c:	01230501 			; <UNDEFINED> instruction: 0x01230501
     520:	4a2e0a05 	bmi	b82d3c <__bss_end__+0xb78854>
     524:	03060905 	movweq	r0, #26885	; 0x6905
     528:	050100ca 	streq	r0, [r1, #-202]	; 0xffffff36
     52c:	01670314 	cmneq	r7, r4, lsl r3
     530:	05130505 	ldreq	r0, [r3, #-1285]	; 0xfffffafb
     534:	016f0314 	cmneq	pc, r4, lsl r3	; <UNPREDICTABLE>
     538:	05130505 	ldreq	r0, [r3, #-1285]	; 0xfffffafb
     53c:	2e010116 	mcrcs	1, 0, r0, cr1, cr6, {0}
     540:	05050106 	streq	r0, [r5, #-262]	; 0xfffffefa
     544:	14051306 	strne	r1, [r5], #-774	; 0xfffffcfa
     548:	05015603 	streq	r5, [r1, #-1539]	; 0xfffff9fd
     54c:	10051305 	andne	r1, r5, r5, lsl #6
     550:	052e0106 	streq	r0, [lr, #-262]!	; 0xfffffefa
     554:	05190609 	ldreq	r0, [r9, #-1545]	; 0xfffff9f7
     558:	1105110a 	tstne	r5, sl, lsl #2
     55c:	062e0101 	strteq	r0, [lr], -r1, lsl #2
     560:	01230501 			; <UNDEFINED> instruction: 0x01230501
     564:	4a2e0a05 	bmi	b82d80 <__bss_end__+0xb78898>
     568:	03061b05 	movweq	r1, #27397	; 0x6b05
     56c:	050100d7 	streq	r0, [r1, #-215]	; 0xffffff29
     570:	0501061c 	streq	r0, [r1, #-1564]	; 0xfffff9e4
     574:	052e0614 	streq	r0, [lr, #-1556]!	; 0xfffff9ec
     578:	4a010605 	bmi	41d94 <__bss_end__+0x378ac>
     57c:	09050104 	stmdbeq	r5, {r2, r8}
     580:	03040200 	movweq	r0, #16896	; 0x4200
     584:	7ec90306 	cdpvc	3, 12, cr0, cr9, cr6, {0}
     588:	00180501 	andseq	r0, r8, r1, lsl #10
     58c:	06030402 	streq	r0, [r3], -r2, lsl #8
     590:	00090501 	andeq	r0, r9, r1, lsl #10
     594:	06030402 	streq	r0, [r3], -r2, lsl #8
     598:	0018052f 	andseq	r0, r8, pc, lsr #10
     59c:	06030402 	streq	r0, [r3], -r2, lsl #8
     5a0:	00090501 	andeq	r0, r9, r1, lsl #10
     5a4:	06030402 	streq	r0, [r3], -r2, lsl #8
     5a8:	0018052f 	andseq	r0, r8, pc, lsr #10
     5ac:	06030402 	streq	r0, [r3], -r2, lsl #8
     5b0:	00230501 	eoreq	r0, r3, r1, lsl #10
     5b4:	06030402 	streq	r0, [r3], -r2, lsl #8
     5b8:	0014052a 	andseq	r0, r4, sl, lsr #10
     5bc:	01030402 	tsteq	r3, r2, lsl #8
     5c0:	02000505 	andeq	r0, r0, #20971520	; 0x1400000
     5c4:	2e060304 	cdpcs	3, 0, cr0, cr6, cr4, {0}
     5c8:	09050204 	stmdbeq	r5, {r2, r9}
     5cc:	01ae0306 			; <UNDEFINED> instruction: 0x01ae0306
     5d0:	03140566 	tsteq	r4, #427819008	; 0x19800000
     5d4:	05050161 	streq	r0, [r5, #-353]	; 0xfffffe9f
     5d8:	03140513 	tsteq	r4, #79691776	; 0x4c00000
     5dc:	0505016b 	streq	r0, [r5, #-363]	; 0xfffffe95
     5e0:	01160513 	tsteq	r6, r3, lsl r5
     5e4:	01062e01 	tsteq	r6, r1, lsl #28
     5e8:	13060505 	movwne	r0, #25861	; 0x6505
     5ec:	5b031405 	blpl	c5608 <__bss_end__+0xbb120>
     5f0:	13050501 	movwne	r0, #21761	; 0x5501
     5f4:	01061005 	tsteq	r6, r5
     5f8:	0609052e 	streq	r0, [r9], -lr, lsr #10
     5fc:	05010a03 	streq	r0, [r1, #-2563]	; 0xfffff5fd
     600:	1105110a 	tstne	r5, sl, lsl #2
     604:	062e0101 	strteq	r0, [lr], -r1, lsl #2
     608:	01230501 			; <UNDEFINED> instruction: 0x01230501
     60c:	4a2e0a05 	bmi	b82e28 <__bss_end__+0xb78940>
     610:	03060905 	movweq	r0, #26885	; 0x6905
     614:	050100cd 	streq	r0, [r1, #-205]	; 0xffffff33
     618:	01680314 	cmneq	r8, r4, lsl r3
     61c:	05130505 	ldreq	r0, [r3, #-1285]	; 0xfffffafb
     620:	016b0314 	cmneq	fp, r4, lsl r3
     624:	05130505 	ldreq	r0, [r3, #-1285]	; 0xfffffafb
     628:	2e010116 	mcrcs	1, 0, r0, cr1, cr6, {0}
     62c:	05050106 	streq	r0, [r5, #-262]	; 0xfffffefa
     630:	14051306 	strne	r1, [r5], #-774	; 0xfffffcfa
     634:	05015603 	streq	r5, [r1, #-1539]	; 0xfffff9fd
     638:	10051305 	andne	r1, r5, r5, lsl #6
     63c:	052e0106 	streq	r0, [lr, #-262]!	; 0xfffffefa
     640:	05190609 	ldreq	r0, [r9, #-1545]	; 0xfffff9f7
     644:	1105110a 	tstne	r5, sl, lsl #2
     648:	062e0101 	strteq	r0, [lr], -r1, lsl #2
     64c:	01230501 			; <UNDEFINED> instruction: 0x01230501
     650:	4a2e0a05 	bmi	b82e6c <__bss_end__+0xb78984>
     654:	03061b05 	movweq	r1, #27397	; 0x6b05
     658:	050100d7 	streq	r0, [r1, #-215]	; 0xffffff29
     65c:	0501061c 	streq	r0, [r1, #-1564]	; 0xfffff9e4
     660:	052e0614 	streq	r0, [lr, #-1556]!	; 0xfffff9ec
     664:	66010605 	strvs	r0, [r1], -r5, lsl #12
     668:	03060905 	movweq	r0, #26885	; 0x6905
     66c:	14050175 	strne	r0, [r5], #-373	; 0xfffffe8b
     670:	05016103 	streq	r6, [r1, #-259]	; 0xfffffefd
     674:	14051305 	strne	r1, [r5], #-773	; 0xfffffcfb
     678:	05016b03 	streq	r6, [r1, #-2819]	; 0xfffff4fd
     67c:	16051305 	strne	r1, [r5], -r5, lsl #6
     680:	062e0101 	strteq	r0, [lr], -r1, lsl #2
     684:	06050501 	streq	r0, [r5], -r1, lsl #10
     688:	03140513 	tsteq	r4, #79691776	; 0x4c00000
     68c:	0505015b 	streq	r0, [r5, #-347]	; 0xfffffea5
     690:	06100513 			; <UNDEFINED> instruction: 0x06100513
     694:	09052e01 	stmdbeq	r5, {r0, r9, sl, fp, sp}
     698:	010a0306 	tsteq	sl, r6, lsl #6
     69c:	05110a05 	ldreq	r0, [r1, #-2565]	; 0xfffff5fb
     6a0:	2e010111 	mcrcs	1, 0, r0, cr1, cr1, {0}
     6a4:	23050106 	movwcs	r0, #20742	; 0x5106
     6a8:	2e0a0501 	cfsh32cs	mvfx0, mvfx10, #1
     6ac:	0609054a 	streq	r0, [r9], -sl, asr #10
     6b0:	0100cd03 	tsteq	r0, r3, lsl #26
     6b4:	68031405 	stmdavs	r3, {r0, r2, sl, ip}
     6b8:	13050501 	movwne	r0, #21761	; 0x5501
     6bc:	6b031405 	blvs	c56d8 <__bss_end__+0xbb1f0>
     6c0:	13050501 	movwne	r0, #21761	; 0x5501
     6c4:	01011605 	tsteq	r1, r5, lsl #12
     6c8:	0501062e 	streq	r0, [r1, #-1582]	; 0xfffff9d2
     6cc:	05130605 	ldreq	r0, [r3, #-1541]	; 0xfffff9fb
     6d0:	01560314 	cmpeq	r6, r4, lsl r3
     6d4:	05130505 	ldreq	r0, [r3, #-1285]	; 0xfffffafb
     6d8:	2e010610 	mcrcs	6, 0, r0, cr1, cr0, {0}
     6dc:	19060905 	stmdbne	r6, {r0, r2, r8, fp}
     6e0:	05110a05 	ldreq	r0, [r1, #-2565]	; 0xfffff5fb
     6e4:	2e010111 	mcrcs	1, 0, r0, cr1, cr1, {0}
     6e8:	23050106 	movwcs	r0, #20742	; 0x5106
     6ec:	2e0a0501 	cfsh32cs	mvfx0, mvfx10, #1
     6f0:	061b054a 	ldreq	r0, [fp], -sl, asr #10
     6f4:	0100d703 	tsteq	r0, r3, lsl #14
     6f8:	01061c05 	tsteq	r6, r5, lsl #24
     6fc:	2e061405 	cdpcs	4, 0, cr1, cr6, cr5, {0}
     700:	01060505 	tsteq	r6, r5, lsl #10
     704:	06090566 	streq	r0, [r9], -r6, ror #10
     708:	05017503 	streq	r7, [r1, #-1283]	; 0xfffffafd
     70c:	01610314 	cmneq	r1, r4, lsl r3
     710:	05130505 	ldreq	r0, [r3, #-1285]	; 0xfffffafb
     714:	016b0314 	cmneq	fp, r4, lsl r3
     718:	05130505 	ldreq	r0, [r3, #-1285]	; 0xfffffafb
     71c:	2e010116 	mcrcs	1, 0, r0, cr1, cr6, {0}
     720:	05050106 	streq	r0, [r5, #-262]	; 0xfffffefa
     724:	14051306 	strne	r1, [r5], #-774	; 0xfffffcfa
     728:	05015b03 	streq	r5, [r1, #-2819]	; 0xfffff4fd
     72c:	10051305 	andne	r1, r5, r5, lsl #6
     730:	052e0106 	streq	r0, [lr, #-262]!	; 0xfffffefa
     734:	0a030609 	beq	c1f60 <__bss_end__+0xb7a78>
     738:	110a0501 	tstne	sl, r1, lsl #10
     73c:	01011105 	tsteq	r1, r5, lsl #2
     740:	0501062e 	streq	r0, [r1, #-1582]	; 0xfffff9d2
     744:	0a050123 	beq	140bd8 <__bss_end__+0x1366f0>
     748:	09054a2e 	stmdbeq	r5, {r1, r2, r3, r5, r9, fp, lr}
     74c:	00cd0306 	sbceq	r0, sp, r6, lsl #6
     750:	03140501 	tsteq	r4, #4194304	; 0x400000
     754:	05050168 	streq	r0, [r5, #-360]	; 0xfffffe98
     758:	03140513 	tsteq	r4, #79691776	; 0x4c00000
     75c:	0505016b 	streq	r0, [r5, #-363]	; 0xfffffe95
     760:	01160513 	tsteq	r6, r3, lsl r5
     764:	01062e01 	tsteq	r6, r1, lsl #28
     768:	13060505 	movwne	r0, #25861	; 0x6505
     76c:	56031405 	strpl	r1, [r3], -r5, lsl #8
     770:	13050501 	movwne	r0, #21761	; 0x5501
     774:	01061005 	tsteq	r6, r5
     778:	0609052e 	streq	r0, [r9], -lr, lsr #10
     77c:	110a0519 	tstne	sl, r9, lsl r5
     780:	01011105 	tsteq	r1, r5, lsl #2
     784:	0501062e 	streq	r0, [r1, #-1582]	; 0xfffff9d2
     788:	0a050123 	beq	140c1c <__bss_end__+0x136734>
     78c:	1b054a2e 	blne	15304c <__bss_end__+0x148b64>
     790:	00d70306 	sbcseq	r0, r7, r6, lsl #6
     794:	061c0501 	ldreq	r0, [ip], -r1, lsl #10
     798:	06140501 	ldreq	r0, [r4], -r1, lsl #10
     79c:	0605052e 	streq	r0, [r5], -lr, lsr #10
     7a0:	05010401 	streq	r0, [r1, #-1025]	; 0xfffffbff
     7a4:	d0030631 	andle	r0, r3, r1, lsr r6
     7a8:	05059e7e 	streq	r9, [r5, #-3710]	; 0xfffff182
     7ac:	31051313 	tstcc	r5, r3, lsl r3
     7b0:	37051006 	strcc	r1, [r5, -r6]
     7b4:	2e0e0530 	cfmv64hrcs	mvdx14, r0
     7b8:	2f060505 	svccs	0x00060505
     7bc:	0f063105 	svceq	0x00063105
     7c0:	05310905 	ldreq	r0, [r1, #-2309]!	; 0xfffff6fb
     7c4:	09052b31 	stmdbeq	r5, {r0, r4, r5, r8, r9, fp, sp}
     7c8:	05052e31 	streq	r2, [r5, #-3633]	; 0xfffff1cf
     7cc:	06682f06 	strbteq	r2, [r8], -r6, lsl #30
     7d0:	2c0f0514 	cfstr32cs	mvfx0, [pc], {20}
     7d4:	2f060505 	svccs	0x00060505
     7d8:	01060c05 	tsteq	r6, r5, lsl #24
     7dc:	2f060505 	svccs	0x00060505
     7e0:	0601052f 	streq	r0, [r1], -pc, lsr #10
     7e4:	06410513 			; <UNDEFINED> instruction: 0x06410513
     7e8:	130505a1 	movwne	r0, #21921	; 0x55a1
     7ec:	11064105 	tstne	r6, r5, lsl #2
     7f0:	14050204 	strne	r0, [r5], #-516	; 0xfffffdfc
     7f4:	2e00c303 	cdpcs	3, 0, cr12, cr0, cr3, {0}
     7f8:	e603062e 	str	r0, [r3], -lr, lsr #12
     7fc:	05050100 	streq	r0, [r5, #-256]	; 0xffffff00
     800:	03140517 	tsteq	r4, #96468992	; 0x5c00000
     804:	05050174 	streq	r0, [r5, #-372]	; 0xfffffe8c
     808:	01090513 	tsteq	r9, r3, lsl r5
     80c:	05011405 	streq	r1, [r1, #-1029]	; 0xfffffbfb
     810:	0401060d 	streq	r0, [r1], #-1549	; 0xfffff9f3
     814:	03050501 	movweq	r0, #21761	; 0x5501
     818:	042e7ede 	strteq	r7, [lr], #-3806	; 0xfffff122
     81c:	03100502 	tsteq	r0, #8388608	; 0x800000
     820:	052e00c2 	streq	r0, [lr, #-194]!	; 0xffffff3e
     824:	052e2e14 	streq	r2, [lr, #-3604]!	; 0xfffff1ec
     828:	e1030609 	tst	r3, r9, lsl #12
     82c:	14050100 	strne	r0, [r5], #-256	; 0xffffff00
     830:	05016f03 	streq	r6, [r1, #-3843]	; 0xfffff0fd
     834:	1d051305 	stcne	3, cr1, [r5, #-20]	; 0xffffffec
     838:	01100306 	tsteq	r0, r6, lsl #6
     83c:	70030805 	andvc	r0, r3, r5, lsl #16
     840:	0609052e 	streq	r0, [r9], -lr, lsr #10
     844:	0314054b 	tsteq	r4, #314572800	; 0x12c00000
     848:	0505015f 	streq	r0, [r5, #-351]	; 0xfffffea1
     84c:	03140513 	tsteq	r4, #79691776	; 0x4c00000
     850:	05050170 	streq	r0, [r5, #-368]	; 0xfffffe90
     854:	01160513 	tsteq	r6, r3, lsl r5
     858:	01062e01 	tsteq	r6, r1, lsl #28
     85c:	13060505 	movwne	r0, #25861	; 0x6505
     860:	5b031405 	blpl	c587c <__bss_end__+0xbb394>
     864:	13050501 	movwne	r0, #21761	; 0x5501
     868:	01061005 	tsteq	r6, r5
     86c:	0609052e 	streq	r0, [r9], -lr, lsr #10
     870:	05010a03 	streq	r0, [r1, #-2563]	; 0xfffff5fd
     874:	1105110a 	tstne	r5, sl, lsl #2
     878:	062e0101 	strteq	r0, [lr], -r1, lsl #2
     87c:	01230501 			; <UNDEFINED> instruction: 0x01230501
     880:	4a2e0a05 	bmi	b8309c <__bss_end__+0xb78bb4>
     884:	03060905 	movweq	r0, #26885	; 0x6905
     888:	050100ca 	streq	r0, [r1, #-202]	; 0xffffff36
     88c:	01670314 	cmneq	r7, r4, lsl r3
     890:	05130505 	ldreq	r0, [r3, #-1285]	; 0xfffffafb
     894:	016f0314 	cmneq	pc, r4, lsl r3	; <UNPREDICTABLE>
     898:	05130505 	ldreq	r0, [r3, #-1285]	; 0xfffffafb
     89c:	2e010116 	mcrcs	1, 0, r0, cr1, cr6, {0}
     8a0:	05050106 	streq	r0, [r5, #-262]	; 0xfffffefa
     8a4:	14051306 	strne	r1, [r5], #-774	; 0xfffffcfa
     8a8:	05015603 	streq	r5, [r1, #-1539]	; 0xfffff9fd
     8ac:	10051305 	andne	r1, r5, r5, lsl #6
     8b0:	052e0106 	streq	r0, [lr, #-262]!	; 0xfffffefa
     8b4:	05190609 	ldreq	r0, [r9, #-1545]	; 0xfffff9f7
     8b8:	1105110a 	tstne	r5, sl, lsl #2
     8bc:	062e0101 	strteq	r0, [lr], -r1, lsl #2
     8c0:	01230501 			; <UNDEFINED> instruction: 0x01230501
     8c4:	4a2e0a05 	bmi	b830e0 <__bss_end__+0xb78bf8>
     8c8:	03061b05 	movweq	r1, #27397	; 0x6b05
     8cc:	050100d7 	streq	r0, [r1, #-215]	; 0xffffff29
     8d0:	0501061c 	streq	r0, [r1, #-1564]	; 0xfffff9e4
     8d4:	052e0614 	streq	r0, [lr, #-1556]!	; 0xfffff9ec
     8d8:	4a010605 	bmi	420f4 <__bss_end__+0x37c0c>
     8dc:	05010d05 	streq	r0, [r1, #-3333]	; 0xfffff2fb
     8e0:	7fa00310 	svcvc	0x00a00310
     8e4:	09052e2e 	stmdbeq	r5, {r1, r2, r3, r5, r9, sl, fp, sp}
     8e8:	00e10306 	rsceq	r0, r1, r6, lsl #6
     8ec:	03140501 	tsteq	r4, #4194304	; 0x400000
     8f0:	0505016f 	streq	r0, [r5, #-367]	; 0xfffffe91
     8f4:	061d0513 			; <UNDEFINED> instruction: 0x061d0513
     8f8:	05011003 	streq	r1, [r1, #-3]
     8fc:	2e700308 	cdpcs	3, 7, cr0, cr0, cr8, {0}
     900:	4b060905 	blmi	182d1c <__bss_end__+0x178834>
     904:	5f031405 	svcpl	0x00031405
     908:	13050501 	movwne	r0, #21761	; 0x5501
     90c:	70031405 	andvc	r1, r3, r5, lsl #8
     910:	13050501 	movwne	r0, #21761	; 0x5501
     914:	01011605 	tsteq	r1, r5, lsl #12
     918:	0501062e 	streq	r0, [r1, #-1582]	; 0xfffff9d2
     91c:	05130605 	ldreq	r0, [r3, #-1541]	; 0xfffff9fb
     920:	015b0314 	cmpeq	fp, r4, lsl r3
     924:	05130505 	ldreq	r0, [r3, #-1285]	; 0xfffffafb
     928:	2e010610 	mcrcs	6, 0, r0, cr1, cr0, {0}
     92c:	03060905 	movweq	r0, #26885	; 0x6905
     930:	0a05010a 	beq	140d60 <__bss_end__+0x136878>
     934:	01110511 	tsteq	r1, r1, lsl r5
     938:	01062e01 	tsteq	r6, r1, lsl #28
     93c:	05012305 	streq	r2, [r1, #-773]	; 0xfffffcfb
     940:	054a2e0a 	strbeq	r2, [sl, #-3594]	; 0xfffff1f6
     944:	ca030609 	bgt	c2170 <__bss_end__+0xb7c88>
     948:	14050100 	strne	r0, [r5], #-256	; 0xffffff00
     94c:	05016703 	streq	r6, [r1, #-1795]	; 0xfffff8fd
     950:	14051305 	strne	r1, [r5], #-773	; 0xfffffcfb
     954:	05016f03 	streq	r6, [r1, #-3843]	; 0xfffff0fd
     958:	16051305 	strne	r1, [r5], -r5, lsl #6
     95c:	062e0101 	strteq	r0, [lr], -r1, lsl #2
     960:	06050501 	streq	r0, [r5], -r1, lsl #10
     964:	03140513 	tsteq	r4, #79691776	; 0x4c00000
     968:	05050156 	streq	r0, [r5, #-342]	; 0xfffffeaa
     96c:	06100513 			; <UNDEFINED> instruction: 0x06100513
     970:	09052e01 	stmdbeq	r5, {r0, r9, sl, fp, sp}
     974:	0a051906 	beq	146d94 <__bss_end__+0x13c8ac>
     978:	01110511 	tsteq	r1, r1, lsl r5
     97c:	01062e01 	tsteq	r6, r1, lsl #28
     980:	05012305 	streq	r2, [r1, #-773]	; 0xfffffcfb
     984:	054a2e0a 	strbeq	r2, [sl, #-3594]	; 0xfffff1f6
     988:	d703061b 	smladle	r3, fp, r6, r0
     98c:	1c050100 	stfnes	f0, [r5], {-0}
     990:	14050106 	strne	r0, [r5], #-262	; 0xfffffefa
     994:	05052e06 	streq	r2, [r5, #-3590]	; 0xfffff1fa
     998:	054a0106 	strbeq	r0, [sl, #-262]	; 0xfffffefa
     99c:	0905010d 	stmdbeq	r5, {r0, r2, r3, r8}
     9a0:	14052f06 	strne	r2, [r5], #-3846	; 0xfffff0fa
     9a4:	05016f03 	streq	r6, [r1, #-3843]	; 0xfffff0fd
     9a8:	1d051305 	stcne	3, cr1, [r5, #-20]	; 0xffffffec
     9ac:	01100306 	tsteq	r0, r6, lsl #6
     9b0:	70030805 	andvc	r0, r3, r5, lsl #16
     9b4:	0310052e 	tsteq	r0, #192937984	; 0xb800000
     9b8:	052e7faf 	streq	r7, [lr, #-4015]!	; 0xfffff051
     9bc:	00d10308 	sbcseq	r0, r1, r8, lsl #6
     9c0:	0609052e 	streq	r0, [r9], -lr, lsr #10
     9c4:	0314052f 	tsteq	r4, #197132288	; 0xbc00000
     9c8:	0505015f 	streq	r0, [r5, #-351]	; 0xfffffea1
     9cc:	03140513 	tsteq	r4, #79691776	; 0x4c00000
     9d0:	05050170 	streq	r0, [r5, #-368]	; 0xfffffe90
     9d4:	01160513 	tsteq	r6, r3, lsl r5
     9d8:	01062e01 	tsteq	r6, r1, lsl #28
     9dc:	13060505 	movwne	r0, #25861	; 0x6505
     9e0:	5b031405 	blpl	c59fc <__bss_end__+0xbb514>
     9e4:	13050501 	movwne	r0, #21761	; 0x5501
     9e8:	01061005 	tsteq	r6, r5
     9ec:	0609052e 	streq	r0, [r9], -lr, lsr #10
     9f0:	05010a03 	streq	r0, [r1, #-2563]	; 0xfffff5fd
     9f4:	1105110a 	tstne	r5, sl, lsl #2
     9f8:	062e0101 	strteq	r0, [lr], -r1, lsl #2
     9fc:	01230501 			; <UNDEFINED> instruction: 0x01230501
     a00:	4a2e0a05 	bmi	b8321c <__bss_end__+0xb78d34>
     a04:	03060905 	movweq	r0, #26885	; 0x6905
     a08:	050100ca 	streq	r0, [r1, #-202]	; 0xffffff36
     a0c:	01670314 	cmneq	r7, r4, lsl r3
     a10:	05130505 	ldreq	r0, [r3, #-1285]	; 0xfffffafb
     a14:	016f0314 	cmneq	pc, r4, lsl r3	; <UNPREDICTABLE>
     a18:	05130505 	ldreq	r0, [r3, #-1285]	; 0xfffffafb
     a1c:	2e010116 	mcrcs	1, 0, r0, cr1, cr6, {0}
     a20:	05050106 	streq	r0, [r5, #-262]	; 0xfffffefa
     a24:	14051306 	strne	r1, [r5], #-774	; 0xfffffcfa
     a28:	05015603 	streq	r5, [r1, #-1539]	; 0xfffff9fd
     a2c:	10051305 	andne	r1, r5, r5, lsl #6
     a30:	052e0106 	streq	r0, [lr, #-262]!	; 0xfffffefa
     a34:	05190609 	ldreq	r0, [r9, #-1545]	; 0xfffff9f7
     a38:	1105110a 	tstne	r5, sl, lsl #2
     a3c:	062e0101 	strteq	r0, [lr], -r1, lsl #2
     a40:	01230501 			; <UNDEFINED> instruction: 0x01230501
     a44:	4a2e0a05 	bmi	b83260 <__bss_end__+0xb78d78>
     a48:	03061b05 	movweq	r1, #27397	; 0x6b05
     a4c:	050100d7 	streq	r0, [r1, #-215]	; 0xffffff29
     a50:	0501061c 	streq	r0, [r1, #-1564]	; 0xfffff9e4
     a54:	052e0614 	streq	r0, [lr, #-1556]!	; 0xfffff9ec
     a58:	05010605 	streq	r0, [r1, #-1541]	; 0xfffff9fb
     a5c:	054b0609 	strbeq	r0, [fp, #-1545]	; 0xfffff9f7
     a60:	016f0314 	cmneq	pc, r4, lsl r3	; <UNPREDICTABLE>
     a64:	05130505 	ldreq	r0, [r3, #-1285]	; 0xfffffafb
     a68:	1003061d 	andne	r0, r3, sp, lsl r6
     a6c:	03080501 	movweq	r0, #34049	; 0x8501
     a70:	09052e70 	stmdbeq	r5, {r4, r5, r6, r9, sl, fp, sp}
     a74:	14054e06 	strne	r4, [r5], #-3590	; 0xfffff1fa
     a78:	05016103 	streq	r6, [r1, #-259]	; 0xfffffefd
     a7c:	14051305 	strne	r1, [r5], #-773	; 0xfffffcfb
     a80:	05016b03 	streq	r6, [r1, #-2819]	; 0xfffff4fd
     a84:	16051305 	strne	r1, [r5], -r5, lsl #6
     a88:	062e0101 	strteq	r0, [lr], -r1, lsl #2
     a8c:	06050501 	streq	r0, [r5], -r1, lsl #10
     a90:	03140513 	tsteq	r4, #79691776	; 0x4c00000
     a94:	0505015b 	streq	r0, [r5, #-347]	; 0xfffffea5
     a98:	06100513 			; <UNDEFINED> instruction: 0x06100513
     a9c:	09052e01 	stmdbeq	r5, {r0, r9, sl, fp, sp}
     aa0:	010a0306 	tsteq	sl, r6, lsl #6
     aa4:	05110a05 	ldreq	r0, [r1, #-2565]	; 0xfffff5fb
     aa8:	2e010111 	mcrcs	1, 0, r0, cr1, cr1, {0}
     aac:	23050106 	movwcs	r0, #20742	; 0x5106
     ab0:	2e0a0501 	cfsh32cs	mvfx0, mvfx10, #1
     ab4:	0609054a 	streq	r0, [r9], -sl, asr #10
     ab8:	0100cd03 	tsteq	r0, r3, lsl #26
     abc:	68031405 	stmdavs	r3, {r0, r2, sl, ip}
     ac0:	13050501 	movwne	r0, #21761	; 0x5501
     ac4:	6b031405 	blvs	c5ae0 <__bss_end__+0xbb5f8>
     ac8:	13050501 	movwne	r0, #21761	; 0x5501
     acc:	01011605 	tsteq	r1, r5, lsl #12
     ad0:	0501062e 	streq	r0, [r1, #-1582]	; 0xfffff9d2
     ad4:	05130605 	ldreq	r0, [r3, #-1541]	; 0xfffff9fb
     ad8:	01560314 	cmpeq	r6, r4, lsl r3
     adc:	05130505 	ldreq	r0, [r3, #-1285]	; 0xfffffafb
     ae0:	2e010610 	mcrcs	6, 0, r0, cr1, cr0, {0}
     ae4:	19060905 	stmdbne	r6, {r0, r2, r8, fp}
     ae8:	05110a05 	ldreq	r0, [r1, #-2565]	; 0xfffff5fb
     aec:	2e010111 	mcrcs	1, 0, r0, cr1, cr1, {0}
     af0:	23050106 	movwcs	r0, #20742	; 0x5106
     af4:	2e0a0501 	cfsh32cs	mvfx0, mvfx10, #1
     af8:	06090566 	streq	r0, [r9], -r6, ror #10
     afc:	0100cc03 	tsteq	r0, r3, lsl #24
     b00:	61031405 	tstvs	r3, r5, lsl #8
     b04:	13050501 	movwne	r0, #21761	; 0x5501
     b08:	6b031405 	blvs	c5b24 <__bss_end__+0xbb63c>
     b0c:	13050501 	movwne	r0, #21761	; 0x5501
     b10:	01011605 	tsteq	r1, r5, lsl #12
     b14:	0501062e 	streq	r0, [r1, #-1582]	; 0xfffff9d2
     b18:	05130605 	ldreq	r0, [r3, #-1541]	; 0xfffff9fb
     b1c:	015b0314 	cmpeq	fp, r4, lsl r3
     b20:	05130505 	ldreq	r0, [r3, #-1285]	; 0xfffffafb
     b24:	2e010610 	mcrcs	6, 0, r0, cr1, cr0, {0}
     b28:	03060905 	movweq	r0, #26885	; 0x6905
     b2c:	0a05010a 	beq	140f5c <__bss_end__+0x136a74>
     b30:	01110511 	tsteq	r1, r1, lsl r5
     b34:	01062e01 	tsteq	r6, r1, lsl #28
     b38:	05012305 	streq	r2, [r1, #-773]	; 0xfffffcfb
     b3c:	054a2e0a 	strbeq	r2, [sl, #-3594]	; 0xfffff1f6
     b40:	cd030609 	stcgt	6, cr0, [r3, #-36]	; 0xffffffdc
     b44:	14050100 	strne	r0, [r5], #-256	; 0xffffff00
     b48:	05016803 	streq	r6, [r1, #-2051]	; 0xfffff7fd
     b4c:	14051305 	strne	r1, [r5], #-773	; 0xfffffcfb
     b50:	05016b03 	streq	r6, [r1, #-2819]	; 0xfffff4fd
     b54:	16051305 	strne	r1, [r5], -r5, lsl #6
     b58:	062e0101 	strteq	r0, [lr], -r1, lsl #2
     b5c:	06050501 	streq	r0, [r5], -r1, lsl #10
     b60:	03140513 	tsteq	r4, #79691776	; 0x4c00000
     b64:	05050156 	streq	r0, [r5, #-342]	; 0xfffffeaa
     b68:	06100513 			; <UNDEFINED> instruction: 0x06100513
     b6c:	09052e01 	stmdbeq	r5, {r0, r9, sl, fp, sp}
     b70:	0a051906 	beq	146f90 <__bss_end__+0x13caa8>
     b74:	01110511 	tsteq	r1, r1, lsl r5
     b78:	01062e01 	tsteq	r6, r1, lsl #28
     b7c:	05012305 	streq	r2, [r1, #-773]	; 0xfffffcfb
     b80:	054a2e0a 	strbeq	r2, [sl, #-3594]	; 0xfffff1f6
     b84:	d703061b 	smladle	r3, fp, r6, r0
     b88:	1c050100 	stfnes	f0, [r5], {-0}
     b8c:	14050106 	strne	r0, [r5], #-262	; 0xfffffefa
     b90:	05052e06 	streq	r2, [r5, #-3590]	; 0xfffff1fa
     b94:	05660106 	strbeq	r0, [r6, #-262]!	; 0xfffffefa
     b98:	75030609 	strvc	r0, [r3, #-1545]	; 0xfffff9f7
     b9c:	03140501 	tsteq	r4, #4194304	; 0x400000
     ba0:	05050161 	streq	r0, [r5, #-353]	; 0xfffffe9f
     ba4:	03140513 	tsteq	r4, #79691776	; 0x4c00000
     ba8:	0505016b 	streq	r0, [r5, #-363]	; 0xfffffe95
     bac:	01160513 	tsteq	r6, r3, lsl r5
     bb0:	01062e01 	tsteq	r6, r1, lsl #28
     bb4:	13060505 	movwne	r0, #25861	; 0x6505
     bb8:	5b031405 	blpl	c5bd4 <__bss_end__+0xbb6ec>
     bbc:	13050501 	movwne	r0, #21761	; 0x5501
     bc0:	01061005 	tsteq	r6, r5
     bc4:	0609052e 	streq	r0, [r9], -lr, lsr #10
     bc8:	05010a03 	streq	r0, [r1, #-2563]	; 0xfffff5fd
     bcc:	1105110a 	tstne	r5, sl, lsl #2
     bd0:	062e0101 	strteq	r0, [lr], -r1, lsl #2
     bd4:	01230501 			; <UNDEFINED> instruction: 0x01230501
     bd8:	4a2e0a05 	bmi	b833f4 <__bss_end__+0xb78f0c>
     bdc:	03060905 	movweq	r0, #26885	; 0x6905
     be0:	050100cd 	streq	r0, [r1, #-205]	; 0xffffff33
     be4:	01680314 	cmneq	r8, r4, lsl r3
     be8:	05130505 	ldreq	r0, [r3, #-1285]	; 0xfffffafb
     bec:	016b0314 	cmneq	fp, r4, lsl r3
     bf0:	05130505 	ldreq	r0, [r3, #-1285]	; 0xfffffafb
     bf4:	2e010116 	mcrcs	1, 0, r0, cr1, cr6, {0}
     bf8:	05050106 	streq	r0, [r5, #-262]	; 0xfffffefa
     bfc:	14051306 	strne	r1, [r5], #-774	; 0xfffffcfa
     c00:	05015603 	streq	r5, [r1, #-1539]	; 0xfffff9fd
     c04:	10051305 	andne	r1, r5, r5, lsl #6
     c08:	052e0106 	streq	r0, [lr, #-262]!	; 0xfffffefa
     c0c:	05190609 	ldreq	r0, [r9, #-1545]	; 0xfffff9f7
     c10:	1105110a 	tstne	r5, sl, lsl #2
     c14:	062e0101 	strteq	r0, [lr], -r1, lsl #2
     c18:	01230501 			; <UNDEFINED> instruction: 0x01230501
     c1c:	4a2e0a05 	bmi	b83438 <__bss_end__+0xb78f50>
     c20:	03061b05 	movweq	r1, #27397	; 0x6b05
     c24:	050100d7 	streq	r0, [r1, #-215]	; 0xffffff29
     c28:	0501061c 	streq	r0, [r1, #-1564]	; 0xfffff9e4
     c2c:	052e0614 	streq	r0, [lr, #-1556]!	; 0xfffff9ec
     c30:	04010605 	streq	r0, [r1], #-1541	; 0xfffff9fb
     c34:	062d0501 	strteq	r0, [sp], -r1, lsl #10
     c38:	d67ee203 	ldrbtle	lr, [lr], -r3, lsl #4
     c3c:	05130505 	ldreq	r0, [r3, #-1285]	; 0xfffffafb
     c40:	14050109 	strne	r0, [r5], #-265	; 0xfffffef7
     c44:	06050501 	streq	r0, [r5], -r1, lsl #10
     c48:	02042e01 	andeq	r2, r4, #1, 28
     c4c:	3d031405 	cfstrscc	mvf1, [r3, #-20]	; 0xffffffec
     c50:	0501042e 	streq	r0, [r1, #-1070]	; 0xfffffbd2
     c54:	2e42032d 	cdpcs	3, 4, cr0, cr2, cr13, {1}
     c58:	052f0d05 	streq	r0, [pc, #-3333]!	; ffffff5b <__bss_end__+0xffff5a73>
     c5c:	02042f09 	andeq	r2, r4, #9, 30	; 0x24
     c60:	3c031005 	stccc	0, cr1, [r3], {5}
     c64:	2e14052e 	cfmul64cs	mvdx0, mvdx4, mvdx14
     c68:	0501042e 	streq	r0, [r1, #-1070]	; 0xfffffbd2
     c6c:	04020009 	streq	r0, [r2], #-9
     c70:	44030603 	strmi	r0, [r3], #-1539	; 0xfffff9fd
     c74:	05020401 	streq	r0, [r2, #-1025]	; 0xfffffbff
     c78:	04020014 	streq	r0, [r2], #-20	; 0xffffffec
     c7c:	01a20303 			; <UNDEFINED> instruction: 0x01a20303
     c80:	00050501 	andeq	r0, r5, r1, lsl #10
     c84:	17030402 	strne	r0, [r3, -r2, lsl #8]
     c88:	02001405 	andeq	r1, r0, #83886080	; 0x5000000
     c8c:	74030304 	strvc	r0, [r3], #-772	; 0xfffffcfc
     c90:	00050501 	andeq	r0, r5, r1, lsl #10
     c94:	13030402 	movwne	r0, #13314	; 0x3402
     c98:	02000905 	andeq	r0, r0, #81920	; 0x14000
     c9c:	05010304 	streq	r0, [r1, #-772]	; 0xfffffcfc
     ca0:	04020014 	streq	r0, [r2], #-20	; 0xffffffec
     ca4:	01040103 	tsteq	r4, r3, lsl #2
     ca8:	02000d05 	andeq	r0, r0, #320	; 0x140
     cac:	03060304 	movweq	r0, #25348	; 0x6304
     cb0:	04017ee3 	streq	r7, [r1], #-3811	; 0xfffff11d
     cb4:	06090502 	streq	r0, [r9], -r2, lsl #10
     cb8:	2e019e03 	cdpcs	14, 0, cr9, cr1, cr3, {0}
     cbc:	6f031405 	svcvs	0x00031405
     cc0:	13050501 	movwne	r0, #21761	; 0x5501
     cc4:	05160905 	ldreq	r0, [r6, #-2309]	; 0xfffff6fb
     cc8:	01610314 	cmneq	r1, r4, lsl r3
     ccc:	05130505 	ldreq	r0, [r3, #-1285]	; 0xfffffafb
     cd0:	016b0314 	cmneq	fp, r4, lsl r3
     cd4:	05130505 	ldreq	r0, [r3, #-1285]	; 0xfffffafb
     cd8:	2e010116 	mcrcs	1, 0, r0, cr1, cr6, {0}
     cdc:	05050106 	streq	r0, [r5, #-262]	; 0xfffffefa
     ce0:	14051306 	strne	r1, [r5], #-774	; 0xfffffcfa
     ce4:	05015b03 	streq	r5, [r1, #-2819]	; 0xfffff4fd
     ce8:	10051305 	andne	r1, r5, r5, lsl #6
     cec:	052e0106 	streq	r0, [lr, #-262]!	; 0xfffffefa
     cf0:	0a030609 	beq	c251c <__bss_end__+0xb8034>
     cf4:	110a0501 	tstne	sl, r1, lsl #10
     cf8:	01011105 	tsteq	r1, r5, lsl #2
     cfc:	0501062e 	streq	r0, [r1, #-1582]	; 0xfffff9d2
     d00:	0a050123 	beq	141194 <__bss_end__+0x136cac>
     d04:	09054a2e 	stmdbeq	r5, {r1, r2, r3, r5, r9, fp, lr}
     d08:	00cd0306 	sbceq	r0, sp, r6, lsl #6
     d0c:	03140501 	tsteq	r4, #4194304	; 0x400000
     d10:	05050168 	streq	r0, [r5, #-360]	; 0xfffffe98
     d14:	03140513 	tsteq	r4, #79691776	; 0x4c00000
     d18:	0505016b 	streq	r0, [r5, #-363]	; 0xfffffe95
     d1c:	01160513 	tsteq	r6, r3, lsl r5
     d20:	01062e01 	tsteq	r6, r1, lsl #28
     d24:	13060505 	movwne	r0, #25861	; 0x6505
     d28:	56031405 	strpl	r1, [r3], -r5, lsl #8
     d2c:	13050501 	movwne	r0, #21761	; 0x5501
     d30:	01061005 	tsteq	r6, r5
     d34:	0609052e 	streq	r0, [r9], -lr, lsr #10
     d38:	110a0519 	tstne	sl, r9, lsl r5
     d3c:	01011105 	tsteq	r1, r5, lsl #2
     d40:	0501062e 	streq	r0, [r1, #-1582]	; 0xfffff9d2
     d44:	0a050123 	beq	1411d8 <__bss_end__+0x136cf0>
     d48:	1b054a2e 	blne	153608 <__bss_end__+0x149120>
     d4c:	00d70306 	sbcseq	r0, r7, r6, lsl #6
     d50:	01140501 	tsteq	r4, r1, lsl #10
     d54:	01060505 	tsteq	r6, r5, lsl #10
     d58:	06090566 	streq	r0, [r9], -r6, ror #10
     d5c:	03140513 	tsteq	r4, #79691776	; 0x4c00000
     d60:	0505016f 	streq	r0, [r5, #-367]	; 0xfffffe91
     d64:	16090513 			; <UNDEFINED> instruction: 0x16090513
     d68:	61031405 	tstvs	r3, r5, lsl #8
     d6c:	13050501 	movwne	r0, #21761	; 0x5501
     d70:	6b031405 	blvs	c5d8c <__bss_end__+0xbb8a4>
     d74:	13050501 	movwne	r0, #21761	; 0x5501
     d78:	01011605 	tsteq	r1, r5, lsl #12
     d7c:	0501062e 	streq	r0, [r1, #-1582]	; 0xfffff9d2
     d80:	05130605 	ldreq	r0, [r3, #-1541]	; 0xfffff9fb
     d84:	015b0314 	cmpeq	fp, r4, lsl r3
     d88:	05130505 	ldreq	r0, [r3, #-1285]	; 0xfffffafb
     d8c:	2e010610 	mcrcs	6, 0, r0, cr1, cr0, {0}
     d90:	03060905 	movweq	r0, #26885	; 0x6905
     d94:	0a05010a 	beq	1411c4 <__bss_end__+0x136cdc>
     d98:	01110511 	tsteq	r1, r1, lsl r5
     d9c:	01062e01 	tsteq	r6, r1, lsl #28
     da0:	05012305 	streq	r2, [r1, #-773]	; 0xfffffcfb
     da4:	054a2e0a 	strbeq	r2, [sl, #-3594]	; 0xfffff1f6
     da8:	cd030609 	stcgt	6, cr0, [r3, #-36]	; 0xffffffdc
     dac:	14050100 	strne	r0, [r5], #-256	; 0xffffff00
     db0:	05016803 	streq	r6, [r1, #-2051]	; 0xfffff7fd
     db4:	14051305 	strne	r1, [r5], #-773	; 0xfffffcfb
     db8:	05016b03 	streq	r6, [r1, #-2819]	; 0xfffff4fd
     dbc:	16051305 	strne	r1, [r5], -r5, lsl #6
     dc0:	062e0101 	strteq	r0, [lr], -r1, lsl #2
     dc4:	06050501 	streq	r0, [r5], -r1, lsl #10
     dc8:	03140513 	tsteq	r4, #79691776	; 0x4c00000
     dcc:	05050156 	streq	r0, [r5, #-342]	; 0xfffffeaa
     dd0:	06100513 			; <UNDEFINED> instruction: 0x06100513
     dd4:	09052e01 	stmdbeq	r5, {r0, r9, sl, fp, sp}
     dd8:	0a051906 	beq	1471f8 <__bss_end__+0x13cd10>
     ddc:	01110511 	tsteq	r1, r1, lsl r5
     de0:	01062e01 	tsteq	r6, r1, lsl #28
     de4:	05012305 	streq	r2, [r1, #-773]	; 0xfffffcfb
     de8:	054a2e0a 	strbeq	r2, [sl, #-3594]	; 0xfffff1f6
     dec:	d703061b 	smladle	r3, fp, r6, r0
     df0:	14050100 	strne	r0, [r5], #-256	; 0xffffff00
     df4:	06050501 	streq	r0, [r5], -r1, lsl #10
     df8:	09056601 	stmdbeq	r5, {r0, r9, sl, sp, lr}
     dfc:	14051306 	strne	r1, [r5], #-774	; 0xfffffcfa
     e00:	05016f03 	streq	r6, [r1, #-3843]	; 0xfffff0fd
     e04:	09051305 	stmdbeq	r5, {r0, r2, r8, r9, ip}
     e08:	03140516 	tsteq	r4, #92274688	; 0x5800000
     e0c:	05050161 	streq	r0, [r5, #-353]	; 0xfffffe9f
     e10:	03140513 	tsteq	r4, #79691776	; 0x4c00000
     e14:	0505016b 	streq	r0, [r5, #-363]	; 0xfffffe95
     e18:	01160513 	tsteq	r6, r3, lsl r5
     e1c:	01062e01 	tsteq	r6, r1, lsl #28
     e20:	13060505 	movwne	r0, #25861	; 0x6505
     e24:	5b031405 	blpl	c5e40 <__bss_end__+0xbb958>
     e28:	13050501 	movwne	r0, #21761	; 0x5501
     e2c:	01061005 	tsteq	r6, r5
     e30:	0609052e 	streq	r0, [r9], -lr, lsr #10
     e34:	05010a03 	streq	r0, [r1, #-2563]	; 0xfffff5fd
     e38:	1105110a 	tstne	r5, sl, lsl #2
     e3c:	062e0101 	strteq	r0, [lr], -r1, lsl #2
     e40:	01230501 			; <UNDEFINED> instruction: 0x01230501
     e44:	4a2e0a05 	bmi	b83660 <__bss_end__+0xb79178>
     e48:	03060905 	movweq	r0, #26885	; 0x6905
     e4c:	050100cd 	streq	r0, [r1, #-205]	; 0xffffff33
     e50:	01680314 	cmneq	r8, r4, lsl r3
     e54:	05130505 	ldreq	r0, [r3, #-1285]	; 0xfffffafb
     e58:	016b0314 	cmneq	fp, r4, lsl r3
     e5c:	05130505 	ldreq	r0, [r3, #-1285]	; 0xfffffafb
     e60:	2e010116 	mcrcs	1, 0, r0, cr1, cr6, {0}
     e64:	05050106 	streq	r0, [r5, #-262]	; 0xfffffefa
     e68:	14051306 	strne	r1, [r5], #-774	; 0xfffffcfa
     e6c:	05015603 	streq	r5, [r1, #-1539]	; 0xfffff9fd
     e70:	10051305 	andne	r1, r5, r5, lsl #6
     e74:	052e0106 	streq	r0, [lr, #-262]!	; 0xfffffefa
     e78:	05190609 	ldreq	r0, [r9, #-1545]	; 0xfffff9f7
     e7c:	1105110a 	tstne	r5, sl, lsl #2
     e80:	062e0101 	strteq	r0, [lr], -r1, lsl #2
     e84:	01230501 			; <UNDEFINED> instruction: 0x01230501
     e88:	4a2e0a05 	bmi	b836a4 <__bss_end__+0xb791bc>
     e8c:	03061b05 	movweq	r1, #27397	; 0x6b05
     e90:	050100d7 	streq	r0, [r1, #-215]	; 0xffffff29
     e94:	05050114 	streq	r0, [r5, #-276]	; 0xfffffeec
     e98:	044a0106 	strbeq	r0, [sl], #-262	; 0xfffffefa
     e9c:	001b0501 	andseq	r0, fp, r1, lsl #10
     ea0:	06030402 	streq	r0, [r3], -r2, lsl #8
     ea4:	017ee303 	cmneq	lr, r3, lsl #6
     ea8:	02001c05 	andeq	r1, r0, #1280	; 0x500
     eac:	01060304 	tsteq	r6, r4, lsl #6
     eb0:	02001405 	andeq	r1, r0, #83886080	; 0x5000000
     eb4:	2e060304 	cdpcs	3, 0, cr0, cr6, cr4, {0}
     eb8:	02000505 	andeq	r0, r0, #20971520	; 0x1400000
     ebc:	01060304 	tsteq	r6, r4, lsl #6
     ec0:	01054c06 	tsteq	r5, r6, lsl #24
     ec4:	05051306 	streq	r1, [r5, #-774]	; 0xfffffcfa
     ec8:	062e062d 	strteq	r0, [lr], -sp, lsr #12
     ecc:	061c052e 	ldreq	r0, [ip], -lr, lsr #10
     ed0:	30020500 	andcc	r0, r2, r0, lsl #10
     ed4:	15000086 	strne	r0, [r0, #-134]	; 0xffffff7a
     ed8:	05130505 	ldreq	r0, [r3, #-1285]	; 0xfffffafb
     edc:	0511061c 	ldreq	r0, [r1, #-1564]	; 0xfffff9e4
     ee0:	06052f1b 			; <UNDEFINED> instruction: 0x06052f1b
     ee4:	2e790306 	cdpcs	3, 7, cr0, cr9, cr6, {0}
     ee8:	05131405 	ldreq	r1, [r3, #-1029]	; 0xfffffbfb
     eec:	04010605 	streq	r0, [r1], #-1541	; 0xfffff9fb
     ef0:	03140502 	tsteq	r4, #8388608	; 0x800000
     ef4:	01044a3d 	tsteq	r4, sp, lsr sl
     ef8:	43030d05 	movwmi	r0, #15621	; 0x3d05
     efc:	2f09052e 	svccs	0x0009052e
     f00:	10050204 	andne	r0, r5, r4, lsl #4
     f04:	052e3c03 	streq	r3, [lr, #-3075]!	; 0xfffff3fd
     f08:	042e2e14 	strteq	r2, [lr], #-3604	; 0xfffff1ec
     f0c:	06090501 	streq	r0, [r9], -r1, lsl #10
     f10:	04014403 	streq	r4, [r1], #-1027	; 0xfffffbfd
     f14:	03140502 	tsteq	r4, #8388608	; 0x800000
     f18:	050101a2 	streq	r0, [r1, #-418]	; 0xfffffe5e
     f1c:	14051705 	strne	r1, [r5], #-1797	; 0xfffff8fb
     f20:	05017403 	streq	r7, [r1, #-1027]	; 0xfffffbfd
     f24:	09051305 	stmdbeq	r5, {r0, r2, r8, r9, ip}
     f28:	01140501 	tsteq	r4, r1, lsl #10
     f2c:	0d050104 	stfeqs	f0, [r5, #-16]
     f30:	7ee30306 	cdpvc	3, 14, cr0, cr3, cr6, {0}
     f34:	05020401 	streq	r0, [r2, #-1025]	; 0xfffffbff
     f38:	9e030609 	cfmadd32ls	mvax0, mvfx0, mvfx3, mvfx9
     f3c:	14052e01 	strne	r2, [r5], #-3585	; 0xfffff1ff
     f40:	05016f03 	streq	r6, [r1, #-3843]	; 0xfffff0fd
     f44:	09051305 	stmdbeq	r5, {r0, r2, r8, r9, ip}
     f48:	03140516 	tsteq	r4, #92274688	; 0x5800000
     f4c:	05050161 	streq	r0, [r5, #-353]	; 0xfffffe9f
     f50:	03140513 	tsteq	r4, #79691776	; 0x4c00000
     f54:	0505016b 	streq	r0, [r5, #-363]	; 0xfffffe95
     f58:	01160513 	tsteq	r6, r3, lsl r5
     f5c:	01062e01 	tsteq	r6, r1, lsl #28
     f60:	13060505 	movwne	r0, #25861	; 0x6505
     f64:	5b031405 	blpl	c5f80 <__bss_end__+0xbba98>
     f68:	13050501 	movwne	r0, #21761	; 0x5501
     f6c:	01061005 	tsteq	r6, r5
     f70:	0609052e 	streq	r0, [r9], -lr, lsr #10
     f74:	05010a03 	streq	r0, [r1, #-2563]	; 0xfffff5fd
     f78:	1105110a 	tstne	r5, sl, lsl #2
     f7c:	062e0101 	strteq	r0, [lr], -r1, lsl #2
     f80:	01230501 			; <UNDEFINED> instruction: 0x01230501
     f84:	4a2e0a05 	bmi	b837a0 <__bss_end__+0xb792b8>
     f88:	03060905 	movweq	r0, #26885	; 0x6905
     f8c:	050100cd 	streq	r0, [r1, #-205]	; 0xffffff33
     f90:	01680314 	cmneq	r8, r4, lsl r3
     f94:	05130505 	ldreq	r0, [r3, #-1285]	; 0xfffffafb
     f98:	016b0314 	cmneq	fp, r4, lsl r3
     f9c:	05130505 	ldreq	r0, [r3, #-1285]	; 0xfffffafb
     fa0:	2e010116 	mcrcs	1, 0, r0, cr1, cr6, {0}
     fa4:	05050106 	streq	r0, [r5, #-262]	; 0xfffffefa
     fa8:	14051306 	strne	r1, [r5], #-774	; 0xfffffcfa
     fac:	05015603 	streq	r5, [r1, #-1539]	; 0xfffff9fd
     fb0:	10051305 	andne	r1, r5, r5, lsl #6
     fb4:	052e0106 	streq	r0, [lr, #-262]!	; 0xfffffefa
     fb8:	05190609 	ldreq	r0, [r9, #-1545]	; 0xfffff9f7
     fbc:	1105110a 	tstne	r5, sl, lsl #2
     fc0:	062e0101 	strteq	r0, [lr], -r1, lsl #2
     fc4:	01230501 			; <UNDEFINED> instruction: 0x01230501
     fc8:	4a2e0a05 	bmi	b837e4 <__bss_end__+0xb792fc>
     fcc:	03061b05 	movweq	r1, #27397	; 0x6b05
     fd0:	050100d7 	streq	r0, [r1, #-215]	; 0xffffff29
     fd4:	05050114 	streq	r0, [r5, #-276]	; 0xfffffeec
     fd8:	05660106 	strbeq	r0, [r6, #-262]!	; 0xfffffefa
     fdc:	05130609 	ldreq	r0, [r3, #-1545]	; 0xfffff9f7
     fe0:	016f0314 	cmneq	pc, r4, lsl r3	; <UNPREDICTABLE>
     fe4:	05130505 	ldreq	r0, [r3, #-1285]	; 0xfffffafb
     fe8:	14051609 	strne	r1, [r5], #-1545	; 0xfffff9f7
     fec:	05016103 	streq	r6, [r1, #-259]	; 0xfffffefd
     ff0:	14051305 	strne	r1, [r5], #-773	; 0xfffffcfb
     ff4:	05016b03 	streq	r6, [r1, #-2819]	; 0xfffff4fd
     ff8:	16051305 	strne	r1, [r5], -r5, lsl #6
     ffc:	062e0101 	strteq	r0, [lr], -r1, lsl #2
    1000:	06050501 	streq	r0, [r5], -r1, lsl #10
    1004:	03140513 	tsteq	r4, #79691776	; 0x4c00000
    1008:	0505015b 	streq	r0, [r5, #-347]	; 0xfffffea5
    100c:	06100513 			; <UNDEFINED> instruction: 0x06100513
    1010:	09052e01 	stmdbeq	r5, {r0, r9, sl, fp, sp}
    1014:	010a0306 	tsteq	sl, r6, lsl #6
    1018:	05110a05 	ldreq	r0, [r1, #-2565]	; 0xfffff5fb
    101c:	2e010111 	mcrcs	1, 0, r0, cr1, cr1, {0}
    1020:	23050106 	movwcs	r0, #20742	; 0x5106
    1024:	2e0a0501 	cfsh32cs	mvfx0, mvfx10, #1
    1028:	0609054a 	streq	r0, [r9], -sl, asr #10
    102c:	0100cd03 	tsteq	r0, r3, lsl #26
    1030:	68031405 	stmdavs	r3, {r0, r2, sl, ip}
    1034:	13050501 	movwne	r0, #21761	; 0x5501
    1038:	6b031405 	blvs	c6054 <__bss_end__+0xbbb6c>
    103c:	13050501 	movwne	r0, #21761	; 0x5501
    1040:	01011605 	tsteq	r1, r5, lsl #12
    1044:	0501062e 	streq	r0, [r1, #-1582]	; 0xfffff9d2
    1048:	05130605 	ldreq	r0, [r3, #-1541]	; 0xfffff9fb
    104c:	01560314 	cmpeq	r6, r4, lsl r3
    1050:	05130505 	ldreq	r0, [r3, #-1285]	; 0xfffffafb
    1054:	2e010610 	mcrcs	6, 0, r0, cr1, cr0, {0}
    1058:	19060905 	stmdbne	r6, {r0, r2, r8, fp}
    105c:	05110a05 	ldreq	r0, [r1, #-2565]	; 0xfffff5fb
    1060:	2e010111 	mcrcs	1, 0, r0, cr1, cr1, {0}
    1064:	23050106 	movwcs	r0, #20742	; 0x5106
    1068:	2e0a0501 	cfsh32cs	mvfx0, mvfx10, #1
    106c:	061b054a 	ldreq	r0, [fp], -sl, asr #10
    1070:	0100d703 	tsteq	r0, r3, lsl #14
    1074:	05011405 	streq	r1, [r1, #-1029]	; 0xfffffbfb
    1078:	66010605 	strvs	r0, [r1], -r5, lsl #12
    107c:	13060905 	movwne	r0, #26885	; 0x6905
    1080:	6f031405 	svcvs	0x00031405
    1084:	13050501 	movwne	r0, #21761	; 0x5501
    1088:	05160905 	ldreq	r0, [r6, #-2309]	; 0xfffff6fb
    108c:	01610314 	cmneq	r1, r4, lsl r3
    1090:	05130505 	ldreq	r0, [r3, #-1285]	; 0xfffffafb
    1094:	016b0314 	cmneq	fp, r4, lsl r3
    1098:	05130505 	ldreq	r0, [r3, #-1285]	; 0xfffffafb
    109c:	2e010116 	mcrcs	1, 0, r0, cr1, cr6, {0}
    10a0:	05050106 	streq	r0, [r5, #-262]	; 0xfffffefa
    10a4:	14051306 	strne	r1, [r5], #-774	; 0xfffffcfa
    10a8:	05015b03 	streq	r5, [r1, #-2819]	; 0xfffff4fd
    10ac:	10051305 	andne	r1, r5, r5, lsl #6
    10b0:	052e0106 	streq	r0, [lr, #-262]!	; 0xfffffefa
    10b4:	0a030609 	beq	c28e0 <__bss_end__+0xb83f8>
    10b8:	110a0501 	tstne	sl, r1, lsl #10
    10bc:	01011105 	tsteq	r1, r5, lsl #2
    10c0:	0501062e 	streq	r0, [r1, #-1582]	; 0xfffff9d2
    10c4:	0a050123 	beq	141558 <__bss_end__+0x137070>
    10c8:	09054a2e 	stmdbeq	r5, {r1, r2, r3, r5, r9, fp, lr}
    10cc:	00cd0306 	sbceq	r0, sp, r6, lsl #6
    10d0:	03140501 	tsteq	r4, #4194304	; 0x400000
    10d4:	05050168 	streq	r0, [r5, #-360]	; 0xfffffe98
    10d8:	03140513 	tsteq	r4, #79691776	; 0x4c00000
    10dc:	0505016b 	streq	r0, [r5, #-363]	; 0xfffffe95
    10e0:	01160513 	tsteq	r6, r3, lsl r5
    10e4:	01062e01 	tsteq	r6, r1, lsl #28
    10e8:	13060505 	movwne	r0, #25861	; 0x6505
    10ec:	56031405 	strpl	r1, [r3], -r5, lsl #8
    10f0:	13050501 	movwne	r0, #21761	; 0x5501
    10f4:	01061005 	tsteq	r6, r5
    10f8:	0609052e 	streq	r0, [r9], -lr, lsr #10
    10fc:	110a0519 	tstne	sl, r9, lsl r5
    1100:	01011105 	tsteq	r1, r5, lsl #2
    1104:	0501062e 	streq	r0, [r1, #-1582]	; 0xfffff9d2
    1108:	0a050123 	beq	14159c <__bss_end__+0x1370b4>
    110c:	1b054a2e 	blne	1539cc <__bss_end__+0x1494e4>
    1110:	00d70306 	sbcseq	r0, r7, r6, lsl #6
    1114:	01140501 	tsteq	r4, r1, lsl #10
    1118:	01060505 	tsteq	r6, r5, lsl #10
    111c:	0501044a 	streq	r0, [r1, #-1098]	; 0xfffffbb6
    1120:	e303061b 	movw	r0, #13851	; 0x361b
    1124:	1c05017e 	stfnes	f0, [r5], {126}	; 0x7e
    1128:	14050106 	strne	r0, [r5], #-262	; 0xfffffefa
    112c:	05052e06 	streq	r2, [r5, #-3590]	; 0xfffff1fa
    1130:	064a0106 	strbeq	r0, [sl], -r6, lsl #2
    1134:	06010514 			; <UNDEFINED> instruction: 0x06010514
    1138:	29050517 	stmdbcs	r5, {r0, r1, r2, r4, r8, sl}
    113c:	064b052e 	strbeq	r0, [fp], -lr, lsr #10
    1140:	20020500 	andcs	r0, r2, r0, lsl #10
    1144:	1a000087 	bne	1368 <__code_start__-0x6c98>
    1148:	16130505 	ldrne	r0, [r3], -r5, lsl #10
    114c:	0e060805 	cdpeq	8, 0, cr0, cr6, cr5, {0}
    1150:	05321605 	ldreq	r1, [r2, #-1541]!	; 0xfffff9fb
    1154:	1605294b 	strne	r2, [r5], -fp, asr #18
    1158:	06050533 			; <UNDEFINED> instruction: 0x06050533
    115c:	0616054b 	ldreq	r0, [r6], -fp, asr #10
    1160:	06050501 	streq	r0, [r5], -r1, lsl #10
    1164:	0616052f 	ldreq	r0, [r6], -pc, lsr #10
    1168:	2f010501 	svccs	0x00010501
    116c:	01000202 	tsteq	r0, r2, lsl #4
    1170:	00025c01 	andeq	r5, r2, r1, lsl #24
    1174:	a7000300 	strge	r0, [r0, -r0, lsl #6]
    1178:	02000000 	andeq	r0, r0, #0, 0
    117c:	0d0efb01 	vstreq	d15, [lr, #-4]
    1180:	01010100 	mrseq	r0, (UNDEF: 17)
    1184:	00000001 	andeq	r0, r0, r1
    1188:	01000001 	tsteq	r0, r1
    118c:	72732f2e 	rsbsvc	r2, r3, #184	; 0xb8
    1190:	412f0063 			; <UNDEFINED> instruction: 0x412f0063
    1194:	696c7070 	stmdbvs	ip!, {r4, r5, r6, ip, sp, lr}^
    1198:	69746163 	ldmdbvs	r4!, {r0, r1, r5, r6, r8, sp, lr}^
    119c:	2f736e6f 	svccs	0x00736e6f
    11a0:	2f4d5241 	svccs	0x004d5241
    11a4:	2f62696c 	svccs	0x0062696c
    11a8:	2f636367 	svccs	0x00636367
    11ac:	2d6d7261 	sfmcs	f7, 2, [sp, #-388]!	; 0xfffffe7c
    11b0:	656e6f6e 	strbvs	r6, [lr, #-3950]!	; 0xfffff092
    11b4:	6261652d 	rsbvs	r6, r1, #188743680	; 0xb400000
    11b8:	31312f69 	teqcc	r1, r9, ror #30
    11bc:	312e322e 			; <UNDEFINED> instruction: 0x312e322e
    11c0:	636e692f 	cmnvs	lr, #770048	; 0xbc000
    11c4:	6564756c 	strbvs	r7, [r4, #-1388]!	; 0xfffffa94
    11c8:	73552f00 	cmpvc	r5, #0, 30
    11cc:	2f737265 	svccs	0x00737265
    11d0:	656c696d 	strbvs	r6, [ip, #-2413]!	; 0xfffff693
    11d4:	6f532f73 	svcvs	0x00532f73
    11d8:	65637275 	strbvs	r7, [r3, #-629]!	; 0xfffffd8b
    11dc:	3273632f 	rsbscc	r6, r3, #-1140850688	; 0xbc000000
    11e0:	786c3034 	stmdavc	ip!, {r2, r4, r5, ip, sp}^
    11e4:	62696c2f 	rsbvs	r6, r9, #12032	; 0x2f00
    11e8:	692f6970 	stmdbvs	pc!, {r4, r5, r6, r8, fp, sp, lr}	; <UNPREDICTABLE>
    11ec:	756c636e 	strbvc	r6, [ip, #-878]!	; 0xfffffc92
    11f0:	00006564 	andeq	r6, r0, r4, ror #10
    11f4:	6f697067 	svcvs	0x00697067
    11f8:	0100632e 	tsteq	r0, lr, lsr #6
    11fc:	74730000 	ldrbtvc	r0, [r3], #-0
    1200:	746e6964 	strbtvc	r6, [lr], #-2404	; 0xfffff69c
    1204:	6363672d 	cmnvs	r3, #11796480	; 0xb40000
    1208:	0200682e 	andeq	r6, r0, #3014656	; 0x2e0000
    120c:	70670000 	rsbvc	r0, r7, r0
    1210:	682e6f69 	stmdavs	lr!, {r0, r3, r5, r6, r8, r9, sl, fp, sp, lr}
    1214:	00000300 	andeq	r0, r0, r0, lsl #6
    1218:	2e697072 	mcrcs	0, 3, r7, cr9, cr2, {3}
    121c:	00030068 	andeq	r0, r3, r8, rrx
    1220:	38050000 	stmdacc	r5, {}	; <UNPREDICTABLE>
    1224:	40020500 	andmi	r0, r2, r0, lsl #10
    1228:	03000087 	movweq	r0, #135	; 0x87
    122c:	05050127 	streq	r0, [r5, #-295]	; 0xfffffed9
    1230:	06070513 			; <UNDEFINED> instruction: 0x06070513
    1234:	06060501 	streq	r0, [r6], -r1, lsl #10
    1238:	15050549 	strne	r0, [r5, #-1353]	; 0xfffffab7
    123c:	01060705 	tsteq	r6, r5, lsl #14
    1240:	052b3805 	streq	r3, [fp, #-2053]!	; 0xfffff7fb
    1244:	05054d07 	streq	r4, [r5, #-3335]	; 0xfffff2f9
    1248:	18053006 	stmdane	r5, {r1, r2, ip, sp}
    124c:	1c050106 	stfnes	f0, [r5], {6}
    1250:	4a0e0567 	bmi	3827f4 <__bss_end__+0x37830c>
    1254:	052d1805 	streq	r1, [sp, #-2053]!	; 0xfffff7fb
    1258:	2f2e4d12 	svccs	0x002e4d12
    125c:	2b0e052d 	blcs	382718 <__bss_end__+0x378230>
    1260:	2f060505 	svccs	0x00060505
    1264:	07051314 	smladeq	r5, r4, r3, r1
    1268:	05050106 	streq	r0, [r5, #-262]	; 0xfffffefa
    126c:	06132f06 	ldreq	r2, [r3], -r6, lsl #30
    1270:	1301054a 	movwne	r0, #5450	; 0x154a
    1274:	2e2d0505 	cfsh64cs	mvdx0, mvdx13, #5
    1278:	00062405 	andeq	r2, r6, r5, lsl #8
    127c:	87a40205 	strhi	r0, [r4, r5, lsl #4]!
    1280:	05150000 	ldreq	r0, [r5, #-0]
    1284:	06051305 	streq	r1, [r5], -r5, lsl #6
    1288:	05017103 	streq	r7, [r1, #-259]	; 0xfffffefd
    128c:	07051305 	streq	r1, [r5, -r5, lsl #6]
    1290:	06050106 	streq	r0, [r5], -r6, lsl #2
    1294:	05054906 	streq	r4, [r5, #-2310]	; 0xfffff6fa
    1298:	18051415 	stmdane	r5, {r0, r2, r4, sl, ip}
    129c:	24050106 	strcs	r0, [r5], #-262	; 0xfffffefa
    12a0:	052e0903 	streq	r0, [lr, #-2307]!	; 0xfffff6fd
    12a4:	2e770318 	mrccs	3, 3, r0, cr7, cr8, {0}
    12a8:	054b1c05 	strbeq	r1, [fp, #-3077]	; 0xfffff3fb
    12ac:	18054a0e 	stmdane	r5, {r1, r2, r3, r9, fp, lr}
    12b0:	4d12052d 	cfldr32mi	mvfx0, [r2, #-180]	; 0xffffff4c
    12b4:	052d2f2e 	streq	r2, [sp, #-3886]!	; 0xfffff0d2
    12b8:	0e05300f 	cdpeq	0, 0, cr3, cr5, cr15, {0}
    12bc:	06050529 	streq	r0, [r5], -r9, lsr #10
    12c0:	0513142f 	ldreq	r1, [r3, #-1071]	; 0xfffffbd1
    12c4:	05010607 	streq	r0, [r1, #-1543]	; 0xfffff9f9
    12c8:	132f0605 			; <UNDEFINED> instruction: 0x132f0605
    12cc:	01054a06 	tsteq	r5, r6, lsl #20
    12d0:	29050517 	stmdbcs	r5, {r0, r1, r2, r4, r8, sl}
    12d4:	0627052e 	strteq	r0, [r7], -lr, lsr #10
    12d8:	00020500 	andeq	r0, r2, r0, lsl #10
    12dc:	1a000088 	bne	1504 <__code_start__-0x6afc>
    12e0:	05130505 	ldreq	r0, [r3, #-1285]	; 0xfffffafb
    12e4:	05110627 	ldreq	r0, [r1, #-1575]	; 0xfffff9d9
    12e8:	05052f18 	streq	r2, [r5, #-3864]	; 0xfffff0e8
    12ec:	054a2e2e 	strbeq	r2, [sl, #-3630]	; 0xfffff1d2
    12f0:	05000628 	streq	r0, [r0, #-1576]	; 0xfffff9d8
    12f4:	00881802 	addeq	r1, r8, r2, lsl #16
    12f8:	05051600 	streq	r1, [r5, #-1536]	; 0xfffffa00
    12fc:	06280513 			; <UNDEFINED> instruction: 0x06280513
    1300:	2f180511 	svccs	0x00180511
    1304:	2e2e0505 	cfsh64cs	mvdx0, mvdx14, #5
    1308:	0623054a 	strteq	r0, [r3], -sl, asr #10
    130c:	30020500 	andcc	r0, r2, r0, lsl #10
    1310:	16000088 	strne	r0, [r0], -r8, lsl #1
    1314:	05130505 	ldreq	r0, [r3, #-1285]	; 0xfffffafb
    1318:	01620306 	cmneq	r2, r6, lsl #6
    131c:	05130505 	ldreq	r0, [r3, #-1285]	; 0xfffffafb
    1320:	05010607 	streq	r0, [r1, #-1543]	; 0xfffff9f9
    1324:	05490606 	strbeq	r0, [r9, #-1542]	; 0xfffff9fa
    1328:	13141505 	tstne	r4, #20971520	; 0x1400000
    132c:	03062305 	movweq	r2, #25349	; 0x6305
    1330:	22050117 	andcs	r0, r5, #-1073741819	; 0xc0000005
    1334:	052e6903 	streq	r6, [lr, #-2307]!	; 0xfffff6fd
    1338:	052e821c 	streq	r8, [lr, #-540]!	; 0xfffffde4
    133c:	05052e0e 	streq	r2, [r5, #-3598]	; 0xfffff1f2
    1340:	12053006 	andne	r3, r5, #6, 0
    1344:	2d4b0106 	stfcse	f0, [fp, #-24]	; 0xffffffe8
    1348:	2f060505 	svccs	0x00060505
    134c:	18051313 	stmdane	r5, {r0, r1, r4, r8, r9, ip}
    1350:	017a0306 	cmneq	sl, r6, lsl #6
    1354:	054a0e05 	strbeq	r0, [sl, #-3589]	; 0xfffff1fb
    1358:	052e3405 	streq	r3, [lr, #-1029]!	; 0xfffffbfb
    135c:	2e140301 	cdpcs	3, 1, cr0, cr4, cr1, {0}
    1360:	6c030505 	cfstr32vs	mvfx0, [r3], {5}
    1364:	2b052e2e 	blcs	14cc24 <__bss_end__+0x14273c>
    1368:	02050006 	andeq	r0, r5, #6, 0
    136c:	00008888 	andeq	r8, r0, r8, lsl #17
    1370:	05011703 	streq	r1, [r1, #-1795]	; 0xfffff8fd
    1374:	07051305 	streq	r1, [r5, -r5, lsl #6]
    1378:	18050106 	stmdane	r5, {r1, r2, r8}
    137c:	052e7103 	streq	r7, [lr, #-259]!	; 0xfffffefd
    1380:	2e0e032b 	cdpcs	3, 0, cr0, cr14, cr11, {1}
    1384:	052f0705 	streq	r0, [pc, #-1797]!	; c87 <__code_start__-0x7379>
    1388:	052f0609 	streq	r0, [pc, #-1545]!	; d87 <__code_start__-0x7279>
    138c:	016f030d 	cmneq	pc, sp, lsl #6
    1390:	06130505 	ldreq	r0, [r3], -r5, lsl #10
    1394:	052e2e2e 	streq	r2, [lr, #-3630]!	; 0xfffff1d2
    1398:	12030609 	andne	r0, r3, #9437184	; 0x900000
    139c:	030d0501 	movweq	r0, #54529	; 0xd501
    13a0:	05050172 	streq	r0, [r5, #-370]	; 0xfffffe8e
    13a4:	2e2e0613 	mcrcs	6, 1, r0, cr14, cr3, {0}
    13a8:	03061d05 	movweq	r1, #27909	; 0x6d05
    13ac:	05056610 	streq	r6, [r5, #-1552]	; 0xfffff9f0
    13b0:	060e0513 			; <UNDEFINED> instruction: 0x060e0513
    13b4:	2d1d0501 	cfldr32cs	mvfx0, [sp, #-4]
    13b8:	0605052e 	streq	r0, [r5], -lr, lsr #10
    13bc:	17051330 	smladxne	r5, r0, r3, r1
    13c0:	052e0106 	streq	r0, [lr, #-262]!	; 0xfffffefa
    13c4:	23052d0e 	movwcs	r2, #23822	; 0x5d0e
    13c8:	2f01052f 	svccs	0x0001052f
    13cc:	01000602 	tsteq	r0, r2, lsl #12
    13d0:	00012101 	andeq	r2, r1, r1, lsl #2
    13d4:	be000300 	cdplt	3, 0, cr0, cr0, cr0, {0}
    13d8:	02000000 	andeq	r0, r0, #0, 0
    13dc:	0d0efb01 	vstreq	d15, [lr, #-4]
    13e0:	01010100 	mrseq	r0, (UNDEF: 17)
    13e4:	00000001 	andeq	r0, r0, r1
    13e8:	01000001 	tsteq	r0, r1
    13ec:	696c2f2e 	stmdbvs	ip!, {r1, r2, r3, r5, r8, r9, sl, fp, sp}^
    13f0:	2f006362 	svccs	0x00006362
    13f4:	72657355 	rsbvc	r7, r5, #1409286145	; 0x54000001
    13f8:	696d2f73 	stmdbvs	sp!, {r0, r1, r4, r5, r6, r8, r9, sl, fp, sp}^
    13fc:	2f73656c 	svccs	0x0073656c
    1400:	72756f53 	rsbsvc	r6, r5, #332	; 0x14c
    1404:	632f6563 			; <UNDEFINED> instruction: 0x632f6563
    1408:	30343273 	eorscc	r3, r4, r3, ror r2
    140c:	6c2f786c 	stcvs	8, cr7, [pc], #-432	; 1264 <__code_start__-0x6d9c>
    1410:	69706269 	ldmdbvs	r0!, {r0, r3, r5, r6, r9, sp, lr}^
    1414:	636e692f 	cmnvs	lr, #770048	; 0xbc000
    1418:	6564756c 	strbvs	r7, [r4, #-1388]!	; 0xfffffa94
    141c:	706f2f00 	rsbvc	r2, pc, r0, lsl #30
    1420:	6f682f74 	svcvs	0x00682f74
    1424:	7262656d 	rsbvc	r6, r2, #457179136	; 0x1b400000
    1428:	432f7765 			; <UNDEFINED> instruction: 0x432f7765
    142c:	616c6c65 	cmnvs	ip, r5, ror #24
    1430:	72612f72 	rsbvc	r2, r1, #456	; 0x1c8
    1434:	6f6e2d6d 	svcvs	0x006e2d6d
    1438:	652d656e 	strvs	r6, [sp, #-1390]!	; 0xfffffa92
    143c:	2d696261 	sfmcs	f6, 2, [r9, #-388]!	; 0xfffffe7c
    1440:	2d392f39 	ldccs	15, cr2, [r9, #-228]!	; 0xffffff1c
    1444:	39313032 	ldmdbcc	r1!, {r1, r4, r5, ip, sp}
    1448:	632d3471 			; <UNDEFINED> instruction: 0x632d3471
    144c:	37303173 			; <UNDEFINED> instruction: 0x37303173
    1450:	696c2f65 	stmdbvs	ip!, {r0, r2, r5, r6, r8, r9, sl, fp, sp}^
    1454:	63672f62 	cmnvs	r7, #392	; 0x188
    1458:	72612f63 	rsbvc	r2, r1, #396	; 0x18c
    145c:	6f6e2d6d 	svcvs	0x006e2d6d
    1460:	652d656e 	strvs	r6, [sp, #-1390]!	; 0xfffffa92
    1464:	2f696261 	svccs	0x00696261
    1468:	2e322e39 	mrccs	14, 1, r2, cr2, cr9, {1}
    146c:	6e692f31 	mcrvs	15, 3, r2, cr9, cr1, {1}
    1470:	64756c63 	ldrbtvs	r6, [r5], #-3171	; 0xfffff39d
    1474:	6d000065 	stcvs	0, cr0, [r0, #-404]	; 0xfffffe6c
    1478:	65736d65 	ldrbvs	r6, [r3, #-3429]!	; 0xfffff29b
    147c:	00632e74 	rsbeq	r2, r3, r4, ror lr
    1480:	72000001 	andvc	r0, r0, #1, 0
    1484:	682e6970 	stmdavs	lr!, {r4, r5, r6, r8, fp, sp, lr}
    1488:	00000200 	andeq	r0, r0, r0, lsl #4
    148c:	64647473 	strbtvs	r7, [r4], #-1139	; 0xfffffb8d
    1490:	682e6665 	stmdavs	lr!, {r0, r2, r5, r6, r9, sl, sp, lr}
    1494:	00000300 	andeq	r0, r0, r0, lsl #6
    1498:	00290500 	eoreq	r0, r9, r0, lsl #10
    149c:	88e00205 	stmiahi	r0!, {r0, r2, r9}^
    14a0:	05150000 	ldreq	r0, [r5, #-0]
    14a4:	29051305 	stmdbcs	r5, {r0, r2, r8, r9, ip}
    14a8:	14051106 	strne	r1, [r5], #-262	; 0xfffffefa
    14ac:	0605052f 	streq	r0, [r5], -pc, lsr #10
    14b0:	010a0530 	tsteq	sl, r0, lsr r5
    14b4:	09059e06 	stmdbeq	r5, {r1, r2, r9, sl, fp, ip, pc}
    14b8:	0e05d706 	cdpeq	7, 0, cr13, cr5, cr6, {0}
    14bc:	0a050106 	beq	1418dc <__bss_end__+0x1373f4>
    14c0:	09052d06 	stmdbeq	r5, {r1, r2, r8, sl, fp, sp}
    14c4:	060e05bb 			; <UNDEFINED> instruction: 0x060e05bb
    14c8:	0a052e01 	beq	14ccd4 <__bss_end__+0x1427ec>
    14cc:	09052d06 	stmdbeq	r5, {r1, r2, r8, sl, fp, sp}
    14d0:	060b054b 	streq	r0, [fp], -fp, asr #10
    14d4:	2d0a0501 	cfstr32cs	mvfx0, [sl, #-4]
    14d8:	052f0e05 	streq	r0, [pc, #-3589]!	; 6db <__code_start__-0x7925>
    14dc:	052d060a 	streq	r0, [sp, #-1546]!	; 0xfffff9f6
    14e0:	0513060e 	ldreq	r0, [r3, #-1550]	; 0xfffff9f2
    14e4:	052e0609 	streq	r0, [lr, #-1545]!	; 0xfffff9f7
    14e8:	0505110a 	streq	r1, [r5, #-266]	; 0xfffffef6
    14ec:	06010514 			; <UNDEFINED> instruction: 0x06010514
    14f0:	00020213 	andeq	r0, r2, r3, lsl r2
    14f4:	01200101 			; <UNDEFINED> instruction: 0x01200101
    14f8:	00030000 	andeq	r0, r3, r0
    14fc:	000000db 	ldrdeq	r0, [r0], -fp
    1500:	0efb0102 	cdpeq	1, 15, cr0, cr11, cr2, {0}
    1504:	0101000d 	tsteq	r1, sp
    1508:	00000101 	andeq	r0, r0, r1, lsl #2
    150c:	00000100 	andeq	r0, r0, r0, lsl #2
    1510:	6c2f2e01 	stcvs	14, cr2, [pc], #-4	; 1514 <__code_start__-0x6aec>
    1514:	00636269 	rsbeq	r6, r3, r9, ror #4
    1518:	74706f2f 	ldrbtvc	r6, [r0], #-3887	; 0xfffff0d1
    151c:	6d6f682f 	stclvs	8, cr6, [pc, #-188]!	; 1468 <__code_start__-0x6b98>
    1520:	65726265 	ldrbvs	r6, [r2, #-613]!	; 0xfffffd9b
    1524:	65432f77 	strbvs	r2, [r3, #-3959]	; 0xfffff089
    1528:	72616c6c 	rsbvc	r6, r1, #108, 24	; 0x6c00
    152c:	6d72612f 	ldfvse	f6, [r2, #-188]!	; 0xffffff44
    1530:	6e6f6e2d 	cdpvs	14, 6, cr6, cr15, cr13, {1}
    1534:	61652d65 	cmnvs	r5, r5, ror #26
    1538:	392d6962 	pushcc	{r1, r5, r6, r8, fp, sp, lr}
    153c:	322d392f 	eorcc	r3, sp, #770048	; 0xbc000
    1540:	71393130 	teqvc	r9, r0, lsr r1
    1544:	73632d34 	cmnvc	r3, #52, 26	; 0xd00
    1548:	65373031 	ldrvs	r3, [r7, #-49]!	; 0xffffffcf
    154c:	62696c2f 	rsbvs	r6, r9, #12032	; 0x2f00
    1550:	6363672f 	cmnvs	r3, #12320768	; 0xbc0000
    1554:	6d72612f 	ldfvse	f6, [r2, #-188]!	; 0xffffff44
    1558:	6e6f6e2d 	cdpvs	14, 6, cr6, cr15, cr13, {1}
    155c:	61652d65 	cmnvs	r5, r5, ror #26
    1560:	392f6962 	stmdbcc	pc!, {r1, r5, r6, r8, fp, sp, lr}	; <UNPREDICTABLE>
    1564:	312e322e 			; <UNDEFINED> instruction: 0x312e322e
    1568:	636e692f 	cmnvs	lr, #770048	; 0xbc000
    156c:	6564756c 	strbvs	r7, [r4, #-1388]!	; 0xfffffa94
    1570:	73552f00 	cmpvc	r5, #0, 30
    1574:	2f737265 	svccs	0x00737265
    1578:	656c696d 	strbvs	r6, [ip, #-2413]!	; 0xfffff693
    157c:	6f532f73 	svcvs	0x00532f73
    1580:	65637275 	strbvs	r7, [r3, #-629]!	; 0xfffffd8b
    1584:	3273632f 	rsbscc	r6, r3, #-1140850688	; 0xbc000000
    1588:	786c3034 	stmdavc	ip!, {r2, r4, r5, ip, sp}^
    158c:	62696c2f 	rsbvs	r6, r9, #12032	; 0x2f00
    1590:	692f6970 	stmdbvs	pc!, {r4, r5, r6, r8, fp, sp, lr}	; <UNPREDICTABLE>
    1594:	756c636e 	strbvc	r6, [ip, #-878]!	; 0xfffffc92
    1598:	00006564 	andeq	r6, r0, r4, ror #10
    159c:	6e697270 	mcrvs	2, 3, r7, cr9, cr0, {3}
    15a0:	632e6b74 			; <UNDEFINED> instruction: 0x632e6b74
    15a4:	00000100 	andeq	r0, r0, r0, lsl #2
    15a8:	61647473 	smcvs	18243	; 0x4743
    15ac:	682e6772 	stmdavs	lr!, {r1, r4, r5, r6, r8, r9, sl, sp, lr}
    15b0:	00000200 	andeq	r0, r0, r0, lsl #4
    15b4:	2e697072 	mcrcs	0, 3, r7, cr9, cr2, {3}
    15b8:	00030068 	andeq	r0, r3, r8, rrx
    15bc:	75623c00 	strbvc	r3, [r2, #-3072]!	; 0xfffff400
    15c0:	2d746c69 	ldclcs	12, cr6, [r4, #-420]!	; 0xfffffe5c
    15c4:	003e6e69 	eorseq	r6, lr, r9, ror #28
    15c8:	76000000 	strvc	r0, [r0], -r0
    15cc:	72702d61 	rsbsvc	r2, r0, #6208	; 0x1840
    15d0:	6b746e69 	blvs	1d1cf7c <__bss_end__+0x1d12a94>
    15d4:	0100682e 	tsteq	r0, lr, lsr #16
    15d8:	05000000 	streq	r0, [r0, #-0]
    15dc:	02050022 	andeq	r0, r5, #34, 0	; 0x22
    15e0:	00008958 	andeq	r8, r0, r8, asr r9
    15e4:	14050517 	strne	r0, [r5], #-1303	; 0xfffffae9
    15e8:	22051413 	andcs	r1, r5, #318767104	; 0x13000000
    15ec:	12050d06 	andne	r0, r5, #384	; 0x180
    15f0:	03220550 			; <UNDEFINED> instruction: 0x03220550
    15f4:	05052e7a 	streq	r2, [r5, #-3706]	; 0xfffff186
    15f8:	2f120533 	svccs	0x00120533
    15fc:	05650505 	strbeq	r0, [r5, #-1285]!	; 0xfffffafb
    1600:	052f0609 	streq	r0, [pc, #-1545]!	; fff <__code_start__-0x7001>
    1604:	05010612 	streq	r0, [r1, #-1554]	; 0xfffff9ee
    1608:	164b0605 	strbne	r0, [fp], -r5, lsl #12
    160c:	50064a06 	andpl	r4, r6, r6, lsl #20
    1610:	13060105 	movwne	r0, #24837	; 0x6105
    1614:	00080266 	andeq	r0, r8, r6, ror #4
    1618:	00a00101 	adceq	r0, r0, r1, lsl #2
    161c:	00030000 	andeq	r0, r3, r0
    1620:	00000057 	andeq	r0, r0, r7, asr r0
    1624:	0efb0102 	cdpeq	1, 15, cr0, cr11, cr2, {0}
    1628:	0101000d 	tsteq	r1, sp
    162c:	00000101 	andeq	r0, r0, r1, lsl #2
    1630:	00000100 	andeq	r0, r0, r0, lsl #2
    1634:	6c2f2e01 	stcvs	14, cr2, [pc], #-4	; 1638 <__code_start__-0x69c8>
    1638:	00636269 	rsbeq	r6, r3, r9, ror #4
    163c:	6573552f 	ldrbvs	r5, [r3, #-1327]!	; 0xfffffad1
    1640:	6d2f7372 	stcvs	3, cr7, [pc, #-456]!	; 1480 <__code_start__-0x6b80>
    1644:	73656c69 	cmnvc	r5, #26880	; 0x6900
    1648:	756f532f 	strbvc	r5, [pc, #-815]!	; 1321 <__code_start__-0x6cdf>
    164c:	2f656372 	svccs	0x00656372
    1650:	34327363 	ldrtcc	r7, [r2], #-867	; 0xfffffc9d
    1654:	2f786c30 	svccs	0x00786c30
    1658:	7062696c 	rsbvc	r6, r2, ip, ror #18
    165c:	6e692f69 	cdpvs	15, 6, cr2, cr9, cr9, {3}
    1660:	64756c63 	ldrbtvs	r6, [r5], #-3171	; 0xfffff39d
    1664:	70000065 	andvc	r0, r0, r5, rrx
    1668:	2e6b7475 	mcrcs	4, 3, r7, cr11, cr5, {3}
    166c:	00010063 	andeq	r0, r1, r3, rrx
    1670:	69707200 	ldmdbvs	r0!, {r9, ip, sp, lr}^
    1674:	0200682e 	andeq	r6, r0, #3014656	; 0x2e0000
    1678:	05000000 	streq	r0, [r0, #-0]
    167c:	02050022 	andeq	r0, r5, #34, 0	; 0x22
    1680:	000089b0 			; <UNDEFINED> instruction: 0x000089b0
    1684:	13050515 	movwne	r0, #21781	; 0x5515
    1688:	11062205 	tstne	r6, r5, lsl #4
    168c:	060b052e 	streq	r0, [fp], -lr, lsr #10
    1690:	0605052f 	streq	r0, [r5], -pc, lsr #10
    1694:	0009052e 	andeq	r0, r9, lr, lsr #10
    1698:	06020402 	streq	r0, [r2], -r2, lsl #8
    169c:	000f0567 	andeq	r0, pc, r7, ror #10
    16a0:	49020402 	stmdbmi	r2, {r1, sl}
    16a4:	02000b05 	andeq	r0, r0, #5120	; 0x1400
    16a8:	05010204 	streq	r0, [r1, #-516]	; 0xfffffdfc
    16ac:	04020005 	streq	r0, [r2], #-5
    16b0:	062e0602 	strteq	r0, [lr], -r2, lsl #12
    16b4:	0601054e 	streq	r0, [r1], -lr, asr #10
    16b8:	00060213 	andeq	r0, r6, r3, lsl r2
    16bc:	08fa0101 	ldmeq	sl!, {r0, r8}^
    16c0:	00030000 	andeq	r0, r3, r0
    16c4:	000000f1 	strdeq	r0, [r0], -r1
    16c8:	0efb0102 	cdpeq	1, 15, cr0, cr11, cr2, {0}
    16cc:	0101000d 	tsteq	r1, sp
    16d0:	00000101 	andeq	r0, r0, r1, lsl #2
    16d4:	00000100 	andeq	r0, r0, r0, lsl #2
    16d8:	6c2f2e01 	stcvs	14, cr2, [pc], #-4	; 16dc <__code_start__-0x6924>
    16dc:	00636269 	rsbeq	r6, r3, r9, ror #4
    16e0:	74706f2f 	ldrbtvc	r6, [r0], #-3887	; 0xfffff0d1
    16e4:	6d6f682f 	stclvs	8, cr6, [pc, #-188]!	; 1630 <__code_start__-0x69d0>
    16e8:	65726265 	ldrbvs	r6, [r2, #-613]!	; 0xfffffd9b
    16ec:	65432f77 	strbvs	r2, [r3, #-3959]	; 0xfffff089
    16f0:	72616c6c 	rsbvc	r6, r1, #108, 24	; 0x6c00
    16f4:	6d72612f 	ldfvse	f6, [r2, #-188]!	; 0xffffff44
    16f8:	6e6f6e2d 	cdpvs	14, 6, cr6, cr15, cr13, {1}
    16fc:	61652d65 	cmnvs	r5, r5, ror #26
    1700:	392d6962 	pushcc	{r1, r5, r6, r8, fp, sp, lr}
    1704:	322d392f 	eorcc	r3, sp, #770048	; 0xbc000
    1708:	71393130 	teqvc	r9, r0, lsr r1
    170c:	73632d34 	cmnvc	r3, #52, 26	; 0xd00
    1710:	65373031 	ldrvs	r3, [r7, #-49]!	; 0xffffffcf
    1714:	62696c2f 	rsbvs	r6, r9, #12032	; 0x2f00
    1718:	6363672f 	cmnvs	r3, #12320768	; 0xbc0000
    171c:	6d72612f 	ldfvse	f6, [r2, #-188]!	; 0xffffff44
    1720:	6e6f6e2d 	cdpvs	14, 6, cr6, cr15, cr13, {1}
    1724:	61652d65 	cmnvs	r5, r5, ror #26
    1728:	392f6962 	stmdbcc	pc!, {r1, r5, r6, r8, fp, sp, lr}	; <UNPREDICTABLE>
    172c:	312e322e 			; <UNDEFINED> instruction: 0x312e322e
    1730:	636e692f 	cmnvs	lr, #770048	; 0xbc000
    1734:	6564756c 	strbvs	r7, [r4, #-1388]!	; 0xfffffa94
    1738:	73552f00 	cmpvc	r5, #0, 30
    173c:	2f737265 	svccs	0x00737265
    1740:	656c696d 	strbvs	r6, [ip, #-2413]!	; 0xfffff693
    1744:	6f532f73 	svcvs	0x00532f73
    1748:	65637275 	strbvs	r7, [r3, #-629]!	; 0xfffffd8b
    174c:	3273632f 	rsbscc	r6, r3, #-1140850688	; 0xbc000000
    1750:	786c3034 	stmdavc	ip!, {r2, r4, r5, ip, sp}^
    1754:	62696c2f 	rsbvs	r6, r9, #12032	; 0x2f00
    1758:	692f6970 	stmdbvs	pc!, {r4, r5, r6, r8, fp, sp, lr}	; <UNPREDICTABLE>
    175c:	756c636e 	strbvc	r6, [ip, #-878]!	; 0xfffffc92
    1760:	00006564 	andeq	r6, r0, r4, ror #10
    1764:	702d6176 	eorvc	r6, sp, r6, ror r1
    1768:	746e6972 	strbtvc	r6, [lr], #-2418	; 0xfffff68e
    176c:	00632e6b 	rsbeq	r2, r3, fp, ror #28
    1770:	73000001 	movwvc	r0, #1
    1774:	6e696474 	mcrvs	4, 3, r6, cr9, cr4, {3}
    1778:	63672d74 	cmnvs	r7, #116, 26	; 0x1d00
    177c:	00682e63 	rsbeq	r2, r8, r3, ror #28
    1780:	72000002 	andvc	r0, r0, #2, 0
    1784:	682e6970 	stmdavs	lr!, {r4, r5, r6, r8, fp, sp, lr}
    1788:	00000300 	andeq	r0, r0, r0, lsl #6
    178c:	2d697072 	stclcs	0, cr7, [r9, #-456]!	; 0xfffffe38
    1790:	65746e69 	ldrbvs	r6, [r4, #-3689]!	; 0xfffff197
    1794:	6c616e72 	stclvs	14, cr6, [r1], #-456	; 0xfffffe38
    1798:	0300682e 	movweq	r6, #2094	; 0x82e
    179c:	74730000 	ldrbtvc	r0, [r3], #-0
    17a0:	67726164 	ldrbvs	r6, [r2, -r4, ror #2]!
    17a4:	0200682e 	andeq	r6, r0, #3014656	; 0x2e0000
    17a8:	623c0000 	eorsvs	r0, ip, #0, 0
    17ac:	746c6975 	strbtvc	r6, [ip], #-2421	; 0xfffff68b
    17b0:	3e6e692d 	vmulcc.f16	s13, s28, s27	; <UNPREDICTABLE>
    17b4:	00000000 	andeq	r0, r0, r0
    17b8:	00010500 	andeq	r0, r1, r0, lsl #10
    17bc:	89e80205 	stmibhi	r8!, {r0, r2, r9}^
    17c0:	c8030000 	stmdagt	r3, {}	; <UNPREDICTABLE>
    17c4:	02050100 	andeq	r0, r5, #0
    17c8:	06010514 			; <UNDEFINED> instruction: 0x06010514
    17cc:	30040510 	andcc	r0, r4, r0, lsl r5
    17d0:	4a2c0105 	bmi	b01bec <__bss_end__+0xaf7704>
    17d4:	05300405 	ldreq	r0, [r0, #-1029]!	; 0xfffffbfb
    17d8:	13310602 	teqne	r1, #2097152	; 0x200000
    17dc:	2e060b05 	vmlacs.f64	d0, d6, d5
    17e0:	30060205 	andcc	r0, r6, r5, lsl #4
    17e4:	02060905 	andeq	r0, r6, #81920	; 0x14000
    17e8:	2e2e0d24 	cdpcs	13, 2, cr0, cr14, cr4, {1}
    17ec:	03060d05 	movweq	r0, #27909	; 0x6d05
    17f0:	11054a17 	tstne	r5, r7, lsl sl
    17f4:	062d0513 			; <UNDEFINED> instruction: 0x062d0513
    17f8:	2e160501 	cfmul32cs	mvfx0, mvfx6, mvfx1
    17fc:	052f0d05 	streq	r0, [pc, #-3333]!	; aff <__code_start__-0x7501>
    1800:	14052d16 	strne	r2, [r5], #-3350	; 0xfffff2ea
    1804:	17052f06 	strne	r2, [r5, -r6, lsl #30]
    1808:	0d050106 	stfeqs	f0, [r5, #-24]	; 0xffffffe8
    180c:	052f062e 	streq	r0, [pc, #-1582]!	; 11e6 <__code_start__-0x6e1a>
    1810:	2e010612 	mcrcs	6, 0, r0, cr1, cr2, {0}
    1814:	0d052d2f 	stceq	13, cr2, [r5, #-188]	; 0xffffff44
    1818:	12052f06 	andne	r2, r5, #6, 30
    181c:	19050106 	stmdbne	r5, {r1, r2, r8}
    1820:	04052f06 	streq	r2, [r5], #-3846	; 0xfffff0fa
    1824:	01011103 	tsteq	r1, r3, lsl #2
    1828:	05150205 	ldreq	r0, [r5, #-517]	; 0xfffffdfb
    182c:	7fb2030e 	svcvc	0x00b2030e
    1830:	13020501 	movwne	r0, #9473	; 0x2501
    1834:	01060605 	tsteq	r6, r5, lsl #12
    1838:	30060205 	andcc	r0, r6, r5, lsl #4
    183c:	05010805 	streq	r0, [r1, #-2053]	; 0xfffff7fb
    1840:	4a010602 	bmi	43050 <__bss_end__+0x38b68>
    1844:	91080805 	tstls	r8, r5, lsl #16
    1848:	4a060305 	bmi	182464 <__bss_end__+0x177f7c>
    184c:	01060805 	tsteq	r6, r5, lsl #16
    1850:	2d061505 	cfstr32cs	mvfx1, [r6, #-20]	; 0xffffffec
    1854:	05010805 	streq	r0, [r1, #-2053]	; 0xfffff7fb
    1858:	0805d703 	stmdaeq	r5, {r0, r1, r8, r9, sl, ip, lr, pc}
    185c:	18050106 	stmdane	r5, {r1, r2, r8}
    1860:	2e02052d 	cfsh32cs	mvfx0, mvfx2, #29
    1864:	052f0805 	streq	r0, [pc, #-2053]!	; 1067 <__code_start__-0x6f99>
    1868:	052d0615 	streq	r0, [sp, #-1557]!	; 0xfffff9eb
    186c:	02050108 	andeq	r0, r5, #2
    1870:	03050106 	movweq	r0, #20742	; 0x5106
    1874:	18052f06 	stmdane	r5, {r1, r2, r8, r9, sl, fp, sp}
    1878:	02051106 	andeq	r1, r5, #-2147483647	; 0x80000001
    187c:	2f08052e 	svccs	0x0008052e
    1880:	2d061505 	cfstr32cs	mvfx1, [r6, #-20]	; 0xffffffec
    1884:	05010805 	streq	r0, [r1, #-2053]	; 0xfffff7fb
    1888:	08051303 	stmdaeq	r5, {r0, r1, r8, r9, ip}
    188c:	15050106 	strne	r0, [r5, #-262]	; 0xfffffefa
    1890:	08052d06 	stmdaeq	r5, {r1, r2, r8, sl, fp, sp}
    1894:	05010601 	streq	r0, [r1, #-1537]	; 0xfffff9ff
    1898:	05a00602 	streq	r0, [r0, #1538]!	; 0x602
    189c:	05010605 	streq	r0, [r1, #-1541]	; 0xfffff9fb
    18a0:	11053604 	tstne	r5, r4, lsl #12
    18a4:	2e09052f 	cfsh32cs	mvfx0, mvfx9, #31
    18a8:	05330205 	ldreq	r0, [r3, #-517]!	; 0xfffffdfb
    18ac:	2e720305 	cdpcs	3, 7, cr0, cr2, cr5, {0}
    18b0:	2f060205 	svccs	0x00060205
    18b4:	0e050106 	adfeqs	f0, f5, f6
    18b8:	02051606 	andeq	r1, r5, #6291456	; 0x600000
    18bc:	03051314 	movweq	r1, #21268	; 0x5314
    18c0:	14020513 	strne	r0, [r2], #-1299	; 0xfffffaed
    18c4:	010b0515 	tsteq	fp, r5, lsl r5
    18c8:	01060205 	tsteq	r6, r5, lsl #4
    18cc:	0603052e 	streq	r0, [r3], -lr, lsr #10
    18d0:	060a0567 	streq	r0, [sl], -r7, ror #10
    18d4:	2d020501 	cfstr32cs	mvfx0, [r2, #-4]
    18d8:	052f0a05 	streq	r0, [pc, #-2565]!	; edb <__code_start__-0x7125>
    18dc:	052d0617 	streq	r0, [sp, #-1559]!	; 0xfffff9e9
    18e0:	0205010b 	andeq	r0, r5, #-1073741822	; 0xc0000002
    18e4:	09050106 	stmdbeq	r5, {r1, r2, r8}
    18e8:	02052e4c 	andeq	r2, r5, #76, 28	; 0x4c0
    18ec:	09052e06 	stmdbeq	r5, {r1, r2, r9, sl, fp, sp}
    18f0:	02050106 	andeq	r0, r5, #-2147483647	; 0x80000001
    18f4:	01063006 	tsteq	r6, r6
    18f8:	38030105 	stmdacc	r3, {r0, r2, r8}
    18fc:	03090501 	movweq	r0, #38145	; 0x9501
    1900:	2e2e4a4f 	vnmulcs.f32	s8, s28, s30
    1904:	03061905 	movweq	r1, #26885	; 0x6905
    1908:	1a054a27 	bne	1541ac <__bss_end__+0x149cc4>
    190c:	06280513 			; <UNDEFINED> instruction: 0x06280513
    1910:	2e1f0501 	cfmul32cs	mvfx0, mvfx15, mvfx1
    1914:	052f0405 	streq	r0, [pc, #-1029]!	; 1517 <__code_start__-0x6ae9>
    1918:	0b052d1f 	bleq	14cd9c <__bss_end__+0x1428b4>
    191c:	0e052f06 	cdpeq	15, 0, cr2, cr5, cr6, {0}
    1920:	04050106 	streq	r0, [r5], #-262	; 0xfffffefa
    1924:	0602052e 	streq	r0, [r2], -lr, lsr #10
    1928:	134a5903 	movtne	r5, #43267	; 0xa903
    192c:	2e060b05 	vmlacs.f64	d0, d6, d5
    1930:	30060205 	andcc	r0, r6, r5, lsl #4
    1934:	02060905 	andeq	r0, r6, #81920	; 0x14000
    1938:	04050d24 	streq	r0, [r5], #-3364	; 0xfffff2dc
    193c:	05133606 	ldreq	r3, [r3, #-1542]	; 0xfffff9fa
    1940:	05010606 	streq	r0, [r1, #-1542]	; 0xfffff9fa
    1944:	13670605 	cmnne	r7, #5242880	; 0x500000
    1948:	06090513 			; <UNDEFINED> instruction: 0x06090513
    194c:	2b0d0511 	blcs	342d98 <__bss_end__+0x3388b0>
    1950:	05300b05 	ldreq	r0, [r0, #-2821]!	; 0xfffff4fb
    1954:	1b052c0d 	blne	14c990 <__bss_end__+0x1424a8>
    1958:	06040535 			; <UNDEFINED> instruction: 0x06040535
    195c:	1305052d 	movwne	r0, #21805	; 0x552d
    1960:	2e061b05 	vmlacs.f64	d1, d6, d5
    1964:	05820a05 	streq	r0, [r2, #2565]	; 0xa05
    1968:	0e052f04 	cdpeq	15, 0, cr2, cr5, cr4, {0}
    196c:	490a052e 	stmdbmi	sl, {r1, r2, r3, r5, r8, sl}
    1970:	2f060b05 	svccs	0x00060b05
    1974:	01060405 	tsteq	r6, r5, lsl #8
    1978:	06052f06 	streq	r2, [r5], -r6, lsl #30
    197c:	05050106 	streq	r0, [r5, #-262]	; 0xfffffefa
    1980:	0a052f06 	beq	14d5a0 <__bss_end__+0x1430b8>
    1984:	052e0106 	streq	r0, [lr, #-262]!	; 0xfffffefa
    1988:	2e2e2e07 	cdpcs	14, 2, cr2, cr14, cr7, {0}
    198c:	03060405 	movweq	r0, #25605	; 0x6405
    1990:	0205010d 	andeq	r0, r5, #1073741827	; 0x40000003
    1994:	01460306 	cmpeq	r6, r6, lsl #6
    1998:	3a030905 	bcc	c3db4 <__bss_end__+0xb98cc>
    199c:	0604052e 	streq	r0, [r4], -lr, lsr #10
    19a0:	010d032f 	tsteq	sp, pc, lsr #6
    19a4:	15020501 	strne	r0, [r2, #-1281]	; 0xfffffaff
    19a8:	b2030e05 	andlt	r0, r3, #80	; 0x50
    19ac:	0205017f 	andeq	r0, r5, #-1073741793	; 0xc000001f
    19b0:	08051413 	stmdaeq	r5, {r0, r1, r4, sl, ip}
    19b4:	06060501 	streq	r0, [r6], -r1, lsl #10
    19b8:	2e3c0310 	mrccs	3, 1, r0, cr12, cr0, {0}
    19bc:	46030205 	strmi	r0, [r3], -r5, lsl #4
    19c0:	0530064a 	ldreq	r0, [r0, #-1610]!	; 0xfffff9b6
    19c4:	2e010605 	cfmadd32cs	mvax0, mvfx0, mvfx1, mvfx5
    19c8:	0602052e 	streq	r0, [r2], -lr, lsr #10
    19cc:	0501064b 	streq	r0, [r1, #-1611]	; 0xfffff9b5
    19d0:	0516060e 	ldreq	r0, [r6, #-1550]	; 0xfffff9f2
    19d4:	15131402 	ldrne	r1, [r3, #-1026]	; 0xfffffbfe
    19d8:	010b0515 	tsteq	fp, r5, lsl r5
    19dc:	2e060205 	cdpcs	2, 0, cr0, cr6, cr5, {0}
    19e0:	09053006 	stmdbeq	r5, {r1, r2, ip, sp}
    19e4:	02050106 	andeq	r0, r5, #-2147483647	; 0x80000001
    19e8:	01064c06 	tsteq	r6, r6, lsl #24
    19ec:	38030105 	stmdacc	r3, {r0, r2, r8}
    19f0:	03060501 	movweq	r0, #25857	; 0x6501
    19f4:	02054a6e 	andeq	r4, r5, #450560	; 0x6e000
    19f8:	4a664603 	bmi	199320c <__bss_end__+0x1988d24>
    19fc:	0604052e 	streq	r0, [r4], -lr, lsr #10
    1a00:	0100c803 	tsteq	r0, r3, lsl #16
    1a04:	06010101 	streq	r0, [r1], -r1, lsl #2
    1a08:	4a06822e 	bmi	1a22c8 <__bss_end__+0x197de0>
    1a0c:	052e7203 	streq	r7, [lr, #-515]!	; 0xfffffdfd
    1a10:	05010609 	streq	r0, [r1, #-1545]	; 0xfffff9f7
    1a14:	032f0604 			; <UNDEFINED> instruction: 0x032f0604
    1a18:	0501010d 	streq	r0, [r1, #-269]	; 0xfffffef3
    1a1c:	0e051502 	cfsh32eq	mvfx1, mvfx5, #2
    1a20:	017fb203 	cmneq	pc, r3, lsl #4
    1a24:	14130205 	ldrne	r0, [r3], #-517	; 0xfffffdfb
    1a28:	05010805 	streq	r0, [r1, #-2053]	; 0xfffff7fb
    1a2c:	1b030609 	blne	c3258 <__bss_end__+0xb8d70>
    1a30:	03060501 	movweq	r0, #25857	; 0x6501
    1a34:	3c032e63 	stccc	14, cr2, [r3], {99}	; 0x63
    1a38:	052e2e2e 	streq	r2, [lr, #-3630]!	; 0xfffff1d2
    1a3c:	b4030648 	strlt	r0, [r3], #-1608	; 0xfffff9b8
    1a40:	053c087f 	ldreq	r0, [ip, #-2175]!	; 0xfffff781
    1a44:	06011305 	streq	r1, [r1], -r5, lsl #6
    1a48:	0402002e 	streq	r0, [r2], #-46	; 0xffffffd2
    1a4c:	002e0602 	eoreq	r0, lr, r2, lsl #12
    1a50:	01020402 	tsteq	r2, r2, lsl #8
    1a54:	02040200 	andeq	r0, r4, #0, 4
    1a58:	00110513 	andseq	r0, r1, r3, lsl r5
    1a5c:	06020402 	streq	r0, [r2], -r2, lsl #8
    1a60:	00070501 	andeq	r0, r7, r1, lsl #10
    1a64:	2f020402 	svccs	0x00020402
    1a68:	02001105 	andeq	r1, r0, #1073741825	; 0x40000001
    1a6c:	052d0204 	streq	r0, [sp, #-516]!	; 0xfffffdfc
    1a70:	04020005 	streq	r0, [r2], #-5
    1a74:	052f0602 	streq	r0, [pc, #-1538]!	; 147a <__code_start__-0x6b86>
    1a78:	04020009 	streq	r0, [r2], #-9
    1a7c:	0e051302 	cdpeq	3, 0, cr1, cr5, cr2, {0}
    1a80:	02040200 	andeq	r0, r4, #0, 4
    1a84:	05050106 	streq	r0, [r5, #-262]	; 0xfffffefa
    1a88:	01040200 	mrseq	r0, R12_usr
    1a8c:	02006306 	andeq	r6, r0, #402653184	; 0x18000000
    1a90:	05010104 	streq	r0, [r1, #-260]	; 0xfffffefc
    1a94:	04020048 	streq	r0, [r2], #-72	; 0xffffffb8
    1a98:	05110601 	ldreq	r0, [r1, #-1537]	; 0xfffff9ff
    1a9c:	04020005 	streq	r0, [r2], #-5
    1aa0:	48052f01 	stmdami	r5, {r0, r8, r9, sl, fp, sp}
    1aa4:	01040200 	mrseq	r0, R12_usr
    1aa8:	0005052d 	andeq	r0, r5, sp, lsr #10
    1aac:	2f010402 	svccs	0x00010402
    1ab0:	01040200 	mrseq	r0, R12_usr
    1ab4:	0402004a 	streq	r0, [r2], #-74	; 0xffffffb6
    1ab8:	02004a01 	andeq	r4, r0, #4096	; 0x1000
    1abc:	4a060104 	bmi	181ed4 <__bss_end__+0x1779ec>
    1ac0:	e1034005 	tst	r3, r5
    1ac4:	0106d600 	tsteq	r6, r0, lsl #12
    1ac8:	2e4e0905 	vmlacs.f16	s1, s28, s10	; <UNPREDICTABLE>
    1acc:	05300805 	ldreq	r0, [r0, #-2053]!	; 0xfffff7fb
    1ad0:	1205291e 	andne	r2, r5, #491520	; 0x78000
    1ad4:	330d052e 	movwcc	r0, #54574	; 0xd52e
    1ad8:	45060205 	strmi	r0, [r6, #-517]	; 0xfffffdfb
    1adc:	05130505 	ldreq	r0, [r3, #-1285]	; 0xfffffafb
    1ae0:	05051402 	streq	r1, [r5, #-1026]	; 0xfffffbfe
    1ae4:	13020513 	movwne	r0, #9491	; 0x2513
    1ae8:	05010805 	streq	r0, [r1, #-2053]	; 0xfffff7fb
    1aec:	7a030640 	bvc	c33f4 <__bss_end__+0xb8f0c>
    1af0:	0d052e01 	stceq	14, cr2, [r5, #-4]
    1af4:	11056634 	tstne	r5, r4, lsr r6
    1af8:	4a4a2003 	bmi	1289b0c <__bss_end__+0x127f624>
    1afc:	03060405 	movweq	r0, #25605	; 0x6405
    1b00:	09050162 	stmdbeq	r5, {r1, r5, r6, r8}
    1b04:	0f050106 	svceq	0x00050106
    1b08:	0608052e 	streq	r0, [r8], -lr, lsr #10
    1b0c:	060d052c 	streq	r0, [sp], -ip, lsr #10
    1b10:	0603052e 	streq	r0, [r3], -lr, lsr #10
    1b14:	06050567 	streq	r0, [r5], -r7, ror #10
    1b18:	06080501 	streq	r0, [r8], -r1, lsl #10
    1b1c:	060e054d 	streq	r0, [lr], -sp, asr #10
    1b20:	2e0a0501 	cfsh32cs	mvfx0, mvfx10, #1
    1b24:	052f0905 	streq	r0, [pc, #-2309]!	; 1227 <__code_start__-0x6dd9>
    1b28:	052f0604 	streq	r0, [pc, #-1540]!	; 152c <__code_start__-0x6ad4>
    1b2c:	05010607 	streq	r0, [r1, #-1543]	; 0xfffff9f9
    1b30:	04052c0a 	streq	r2, [r5], #-3082	; 0xfffff3f6
    1b34:	2d053206 	sfmcs	f3, 4, [r5, #-24]	; 0xffffffe8
    1b38:	7f980306 	svcvc	0x00980306
    1b3c:	03090501 	movweq	r0, #38145	; 0x9501
    1b40:	052e00ed 	streq	r0, [lr, #-237]!	; 0xffffff13
    1b44:	07052c0d 	streq	r2, [r5, -sp, lsl #24]
    1b48:	0604052b 	streq	r0, [r4], -fp, lsr #10
    1b4c:	05141330 	ldreq	r1, [r4, #-816]	; 0xfffffcd0
    1b50:	0c050109 	stfeqs	f0, [r5], {9}
    1b54:	017f9303 	cmneq	pc, r3, lsl #6
    1b58:	06011d05 	streq	r1, [r1], -r5, lsl #26
    1b5c:	03090501 	movweq	r0, #38145	; 0x9501
    1b60:	050100ed 	streq	r0, [r1, #-237]	; 0xffffff13
    1b64:	052f0605 	streq	r0, [pc, #-1541]!	; 1567 <__code_start__-0x6a99>
    1b68:	2e010612 	mcrcs	6, 0, r0, cr1, cr2, {0}
    1b6c:	2f0b052d 	svccs	0x000b052d
    1b70:	2f060505 	svccs	0x00060505
    1b74:	05100905 	ldreq	r0, [r0, #-2309]	; 0xfffff6fb
    1b78:	7f93030c 	svcvc	0x0093030c
    1b7c:	011d0501 	tsteq	sp, r1, lsl #10
    1b80:	01062d05 	tsteq	r6, r5, lsl #26
    1b84:	ed030905 	vstr.16	s0, [r3, #-10]
    1b88:	04052e00 	streq	r2, [r5], #-3584	; 0xfffff200
    1b8c:	00014e06 	andeq	r4, r1, r6, lsl #28
    1b90:	4a020402 	bmi	82ba0 <__bss_end__+0x786b8>
    1b94:	02040200 	andeq	r0, r4, #0, 4
    1b98:	04020001 	streq	r0, [r2], #-1
    1b9c:	02001502 	andeq	r1, r0, #8388608	; 0x800000
    1ba0:	02060204 	andeq	r0, r6, #4, 4	; 0x40000000
    1ba4:	02001236 	andeq	r1, r0, #1610612739	; 0x60000003
    1ba8:	052e0204 	streq	r0, [lr, #-516]!	; 0xfffffdfc
    1bac:	d1030602 	tstle	r3, r2, lsl #12
    1bb0:	07050100 	streq	r0, [r5, -r0, lsl #2]
    1bb4:	052e0106 	streq	r0, [lr, #-262]!	; 0xfffffefa
    1bb8:	052f0602 	streq	r0, [pc, #-1538]!	; 15be <__code_start__-0x6a42>
    1bbc:	0501060b 	streq	r0, [r1, #-1547]	; 0xfffff9f5
    1bc0:	05052f01 	streq	r2, [r5, #-3841]	; 0xfffff0ff
    1bc4:	4a650306 	bmi	19427e4 <__bss_end__+0x19382fc>
    1bc8:	01060905 	tsteq	r6, r5, lsl #18
    1bcc:	06050566 	streq	r0, [r5], -r6, ror #10
    1bd0:	0304059f 	movweq	r0, #17823	; 0x459f
    1bd4:	07050111 	smladeq	r5, r1, r1, r0
    1bd8:	04050106 	streq	r0, [r5], #-262	; 0xfffffefa
    1bdc:	0a053106 	beq	14dffc <__bss_end__+0x143b14>
    1be0:	00130501 	andseq	r0, r3, r1, lsl #10
    1be4:	06010402 	streq	r0, [r1], -r2, lsl #8
    1be8:	0010052e 	andseq	r0, r0, lr, lsr #10
    1bec:	2e010402 	cdpcs	4, 0, cr0, cr1, cr2, {0}
    1bf0:	4b060505 	blmi	18300c <__bss_end__+0x178b24>
    1bf4:	01060a05 	tsteq	r6, r5, lsl #20
    1bf8:	04052d06 	streq	r2, [r5], #-3334	; 0xfffff2fa
    1bfc:	11050106 	tstne	r5, r6, lsl #2
    1c00:	7fb60306 	svcvc	0x00b60306
    1c04:	00011366 	andeq	r1, r1, r6, ror #6
    1c08:	06020402 	streq	r0, [r2], -r2, lsl #8
    1c0c:	01ba06ba 			; <UNDEFINED> instruction: 0x01ba06ba
    1c10:	061a0514 			; <UNDEFINED> instruction: 0x061a0514
    1c14:	052e2e13 	streq	r2, [lr, #-3603]!	; 0xfffff1ed
    1c18:	05674e11 	strbeq	r4, [r7, #-3601]!	; 0xfffff1ef
    1c1c:	13056814 	movwne	r6, #22548	; 0x5814
    1c20:	03150582 	tsteq	r5, #545259520	; 0x20800000
    1c24:	11054a78 	tstne	r5, r8, ror sl
    1c28:	13134b06 	tstne	r3, #6144	; 0x1800
    1c2c:	05141314 	ldreq	r1, [r4, #-788]	; 0xfffffcec
    1c30:	05010613 	streq	r0, [r1, #-1555]	; 0xfffff9ed
    1c34:	052f0609 	streq	r0, [pc, #-1545]!	; 1633 <__code_start__-0x69cd>
    1c38:	2e01060d 	cfmadd32cs	mvax0, mvfx0, mvfx1, mvfx13
    1c3c:	bb09052e 	bllt	2430fc <__bss_end__+0x238c14>
    1c40:	059d0d05 	ldreq	r0, [sp, #3333]	; 0xd05
    1c44:	052f0609 	streq	r0, [pc, #-1545]!	; 1643 <__code_start__-0x69bd>
    1c48:	03062f15 	movweq	r2, #28437	; 0x6f15
    1c4c:	0b034a75 	bleq	d4628 <__bss_end__+0xca140>
    1c50:	05054a2e 	streq	r4, [r5, #-2606]	; 0xfffff5d2
    1c54:	01230306 			; <UNDEFINED> instruction: 0x01230306
    1c58:	01060905 	tsteq	r6, r5, lsl #18
    1c5c:	0605052e 	streq	r0, [r5], -lr, lsr #10
    1c60:	2e6e03d7 	mcrcs	3, 3, r0, cr14, cr7, {6}
    1c64:	05010e03 	streq	r0, [r1, #-3587]	; 0xfffff1fd
    1c68:	05010609 	streq	r0, [r1, #-1545]	; 0xfffff9f7
    1c6c:	10030605 	andne	r0, r3, r5, lsl #12
    1c70:	0301054a 	movweq	r0, #5450	; 0x154a
    1c74:	05017eed 	streq	r7, [r1, #-3821]	; 0xfffff113
    1c78:	13151402 	tstne	r5, #33554432	; 0x2000000
    1c7c:	03040514 	movweq	r0, #17684	; 0x4514
    1c80:	0905011a 	stmdbeq	r5, {r1, r3, r4, r8}
    1c84:	02050106 	andeq	r0, r5, #-2147483647	; 0x80000001
    1c88:	052e4603 	streq	r4, [lr, #-1539]!	; 0xfffff9fd
    1c8c:	2e3a0309 	cdpcs	3, 3, cr0, cr10, cr9, {0}
    1c90:	2f060405 	svccs	0x00060405
    1c94:	01010d03 	tsteq	r1, r3, lsl #26
    1c98:	05150205 	ldreq	r0, [r5, #-517]	; 0xfffffdfb
    1c9c:	7fb2030e 	svcvc	0x00b2030e
    1ca0:	13020501 	movwne	r0, #9473	; 0x2501
    1ca4:	01080514 	tsteq	r8, r4, lsl r5
    1ca8:	01060205 	tsteq	r6, r5, lsl #4
    1cac:	059f0805 	ldreq	r0, [pc, #2053]	; 24b9 <__code_start__-0x5b47>
    1cb0:	064a0603 	strbeq	r0, [sl], -r3, lsl #12
    1cb4:	2e080501 	cfsh32cs	mvfx0, mvfx8, #1
    1cb8:	2d061505 	cfstr32cs	mvfx1, [r6, #-20]	; 0xffffffec
    1cbc:	05010805 	streq	r0, [r1, #-2053]	; 0xfffff7fb
    1cc0:	01062f03 	tsteq	r6, r3, lsl #30
    1cc4:	052e0805 	streq	r0, [lr, #-2053]!	; 0xfffff7fb
    1cc8:	052d0615 	streq	r0, [sp, #-1557]!	; 0xfffff9eb
    1ccc:	03050108 	movweq	r0, #20744	; 0x5108
    1cd0:	0501062f 	streq	r0, [r1, #-1583]	; 0xfffff9d1
    1cd4:	15052e08 	strne	r2, [r5, #-3592]	; 0xfffff1f8
    1cd8:	08052d06 	stmdaeq	r5, {r1, r2, r8, sl, fp, sp}
    1cdc:	2f030501 	svccs	0x00030501
    1ce0:	08050106 	stmdaeq	r5, {r1, r2, r8}
    1ce4:	0615052e 	ldreq	r0, [r5], -lr, lsr #10
    1ce8:	0108052d 	tsteq	r8, sp, lsr #10
    1cec:	062f0305 	strteq	r0, [pc], -r5, lsl #6
    1cf0:	2e080501 	cfsh32cs	mvfx0, mvfx8, #1
    1cf4:	2d061505 	cfstr32cs	mvfx1, [r6, #-20]	; 0xffffffec
    1cf8:	05010805 	streq	r0, [r1, #-2053]	; 0xfffff7fb
    1cfc:	01062f03 	tsteq	r6, r3, lsl #30
    1d00:	052e0805 	streq	r0, [lr, #-2053]!	; 0xfffff7fb
    1d04:	052d0615 	streq	r0, [sp, #-1557]!	; 0xfffff9eb
    1d08:	03050108 	movweq	r0, #20744	; 0x5108
    1d0c:	06080513 			; <UNDEFINED> instruction: 0x06080513
    1d10:	06150501 	ldreq	r0, [r5], -r1, lsl #10
    1d14:	0108052d 	tsteq	r8, sp, lsr #10
    1d18:	03056606 	movweq	r6, #22022	; 0x5606
    1d1c:	08056706 	stmdaeq	r5, {r1, r2, r8, r9, sl, sp, lr}
    1d20:	18050106 	stmdane	r5, {r1, r2, r8}
    1d24:	2e02052d 	cfsh32cs	mvfx0, mvfx2, #29
    1d28:	052f0805 	streq	r0, [pc, #-2053]!	; 152b <__code_start__-0x6ad5>
    1d2c:	052d0615 	streq	r0, [sp, #-1557]!	; 0xfffff9eb
    1d30:	02050108 	andeq	r0, r5, #2
    1d34:	03050106 	movweq	r0, #20742	; 0x5106
    1d38:	18052f06 	stmdane	r5, {r1, r2, r8, r9, sl, fp, sp}
    1d3c:	02051106 	andeq	r1, r5, #-2147483647	; 0x80000001
    1d40:	2f08052e 	svccs	0x0008052e
    1d44:	2d061505 	cfstr32cs	mvfx1, [r6, #-20]	; 0xffffffec
    1d48:	05010805 	streq	r0, [r1, #-2053]	; 0xfffff7fb
    1d4c:	08051303 	stmdaeq	r5, {r0, r1, r8, r9, ip}
    1d50:	15050106 	strne	r0, [r5, #-262]	; 0xfffffefa
    1d54:	08052d06 	stmdaeq	r5, {r1, r2, r8, sl, fp, sp}
    1d58:	06050501 	streq	r0, [r5], -r1, lsl #10
    1d5c:	02054a14 	andeq	r4, r5, #20, 20	; 0x14000
    1d60:	0e052e06 	cdpeq	14, 0, cr2, cr5, cr6, {0}
    1d64:	04051906 	streq	r1, [r5], #-2310	; 0xfffff6fa
    1d68:	2f11052f 	svccs	0x0011052f
    1d6c:	054a0905 	strbeq	r0, [sl, #-2309]	; 0xfffff6fb
    1d70:	05053302 	streq	r3, [r5, #-770]	; 0xfffffcfe
    1d74:	052e7203 	streq	r7, [lr, #-515]!	; 0xfffffdfd
    1d78:	062f0602 	strteq	r0, [pc], -r2, lsl #12
    1d7c:	060e0501 	streq	r0, [lr], -r1, lsl #10
    1d80:	14020516 	strne	r0, [r2], #-1302	; 0xfffffaea
    1d84:	13030513 	movwne	r0, #13587	; 0x3513
    1d88:	15140205 	ldrne	r0, [r4, #-517]	; 0xfffffdfb
    1d8c:	05010b05 	streq	r0, [r1, #-2821]	; 0xfffff4fb
    1d90:	2e010602 	cfmadd32cs	mvax0, mvfx0, mvfx1, mvfx2
    1d94:	06030566 	streq	r0, [r3], -r6, ror #10
    1d98:	060a052f 	streq	r0, [sl], -pc, lsr #10
    1d9c:	2d020501 	cfstr32cs	mvfx0, [r2, #-4]
    1da0:	052f0a05 	streq	r0, [pc, #-2565]!	; 13a3 <__code_start__-0x6c5d>
    1da4:	052d0617 	streq	r0, [sp, #-1559]!	; 0xfffff9e9
    1da8:	0205010b 	andeq	r0, r5, #-1073741822	; 0xc0000002
    1dac:	4a4a0106 	bmi	12821cc <__bss_end__+0x1277ce4>
    1db0:	03060505 	movweq	r0, #25861	; 0x6505
    1db4:	05010195 	streq	r0, [r1, #-405]	; 0xfffffe6b
    1db8:	f8030611 			; <UNDEFINED> instruction: 0xf8030611
    1dbc:	1b05017e 	blne	1423bc <__bss_end__+0x137ed4>
    1dc0:	4a018803 	bmi	63dd4 <__bss_end__+0x598ec>
    1dc4:	03060105 	movweq	r0, #24837	; 0x6105
    1dc8:	052e7ef3 	streq	r7, [lr, #-3827]!	; 0xfffff10d
    1dcc:	13151402 	tstne	r5, #33554432	; 0x2000000
    1dd0:	03190514 	tsteq	r9, #20, 10	; 0x5000000
    1dd4:	1a050122 	bne	142264 <__bss_end__+0x137d7c>
    1dd8:	06280513 			; <UNDEFINED> instruction: 0x06280513
    1ddc:	2e1f0501 	cfmul32cs	mvfx0, mvfx15, mvfx1
    1de0:	052f0405 	streq	r0, [pc, #-1029]!	; 19e3 <__code_start__-0x661d>
    1de4:	1f054a0e 	svcne	0x00054a0e
    1de8:	060b052d 	streq	r0, [fp], -sp, lsr #10
    1dec:	0604052f 	streq	r0, [r4], -pc, lsr #10
    1df0:	01320601 	teqeq	r2, r1, lsl #12
    1df4:	05150205 	ldreq	r0, [r5, #-517]	; 0xfffffdfb
    1df8:	7fb2030e 	svcvc	0x00b2030e
    1dfc:	13020501 	movwne	r0, #9473	; 0x2501
    1e00:	01060605 	tsteq	r6, r5, lsl #12
    1e04:	30060205 	andcc	r0, r6, r5, lsl #4
    1e08:	05010805 	streq	r0, [r1, #-2053]	; 0xfffff7fb
    1e0c:	05010602 	streq	r0, [r1, #-1538]	; 0xfffff9fe
    1e10:	21080603 	tstcs	r8, r3, lsl #12
    1e14:	01060805 	tsteq	r6, r5, lsl #16
    1e18:	49061505 	stmdbmi	r6, {r0, r2, r8, sl, ip}
    1e1c:	05010805 	streq	r0, [r1, #-2053]	; 0xfffff7fb
    1e20:	0805d703 	stmdaeq	r5, {r0, r1, r8, r9, sl, ip, lr, pc}
    1e24:	18050106 	stmdane	r5, {r1, r2, r8}
    1e28:	2e02052d 	cfsh32cs	mvfx0, mvfx2, #29
    1e2c:	052f0805 	streq	r0, [pc, #-2053]!	; 162f <__code_start__-0x69d1>
    1e30:	052d0615 	streq	r0, [sp, #-1557]!	; 0xfffff9eb
    1e34:	02050108 	andeq	r0, r5, #2
    1e38:	03050106 	movweq	r0, #20742	; 0x5106
    1e3c:	18052f06 	stmdane	r5, {r1, r2, r8, r9, sl, fp, sp}
    1e40:	02051106 	andeq	r1, r5, #-2147483647	; 0x80000001
    1e44:	2f08052e 	svccs	0x0008052e
    1e48:	2d061505 	cfstr32cs	mvfx1, [r6, #-20]	; 0xffffffec
    1e4c:	05010805 	streq	r0, [r1, #-2053]	; 0xfffff7fb
    1e50:	08051303 	stmdaeq	r5, {r0, r1, r8, r9, ip}
    1e54:	15050106 	strne	r0, [r5, #-262]	; 0xfffffefa
    1e58:	08052d06 	stmdaeq	r5, {r1, r2, r8, sl, fp, sp}
    1e5c:	06050501 	streq	r0, [r5], -r1, lsl #10
    1e60:	06020514 			; <UNDEFINED> instruction: 0x06020514
    1e64:	06040566 	streq	r0, [r4], -r6, ror #10
    1e68:	0305051a 	movweq	r0, #21786	; 0x551a
    1e6c:	02054a78 	andeq	r4, r5, #120, 20	; 0x78000
    1e70:	01062f06 	tsteq	r6, r6, lsl #30
    1e74:	16060e05 	strne	r0, [r6], -r5, lsl #28
    1e78:	13140205 	tstne	r4, #1342177280	; 0x50000000
    1e7c:	01060405 	tsteq	r6, r5, lsl #8
    1e80:	2f060305 	svccs	0x00060305
    1e84:	01061105 	tsteq	r6, r5, lsl #2
    1e88:	052e0905 	streq	r0, [lr, #-2309]!	; 0xfffff6fb
    1e8c:	15300602 	ldrne	r0, [r0, #-1538]!	; 0xfffff9fe
    1e90:	05010b05 	streq	r0, [r1, #-2821]	; 0xfffff4fb
    1e94:	4a010602 	bmi	436a4 <__bss_end__+0x391bc>
    1e98:	03052e4a 	movweq	r2, #24138	; 0x5e4a
    1e9c:	0a052f06 	beq	14dabc <__bss_end__+0x1435d4>
    1ea0:	02050106 	andeq	r0, r5, #-2147483647	; 0x80000001
    1ea4:	2f0a052d 	svccs	0x000a052d
    1ea8:	2d061705 	stccs	7, cr1, [r6, #-20]	; 0xffffffec
    1eac:	05010b05 	streq	r0, [r1, #-2821]	; 0xfffff4fb
    1eb0:	4a010602 	bmi	436c0 <__bss_end__+0x391d8>
    1eb4:	0514062e 	ldreq	r0, [r4, #-1582]	; 0xfffff9d2
    1eb8:	05010609 	streq	r0, [r1, #-1545]	; 0xfffff9f7
    1ebc:	064c0602 	strbeq	r0, [ip], -r2, lsl #12
    1ec0:	06050501 	streq	r0, [r5], -r1, lsl #10
    1ec4:	01019803 	tsteq	r1, r3, lsl #16
    1ec8:	0607052a 	streq	r0, [r7], -sl, lsr #10
    1ecc:	06050501 	streq	r0, [r5], -r1, lsl #10
    1ed0:	0318052f 	tsteq	r8, #197132288	; 0xbc00000
    1ed4:	1b052e53 	blne	14d828 <__bss_end__+0x143340>
    1ed8:	1a050106 	bne	1422f8 <__bss_end__+0x137e10>
    1edc:	06090582 	streq	r0, [r9], -r2, lsl #11
    1ee0:	060d054b 	streq	r0, [sp], -fp, asr #10
    1ee4:	09052e01 	stmdbeq	r5, {r0, r9, sl, fp, sp}
    1ee8:	9d0d05d7 	cfstr32ls	mvfx0, [sp, #-860]	; 0xfffffca4
    1eec:	2f060905 	svccs	0x00060905
    1ef0:	05301505 	ldreq	r1, [r0, #-1285]!	; 0xfffffafb
    1ef4:	05010618 	streq	r0, [r1, #-1560]	; 0xfffff9e8
    1ef8:	19056617 	stmdbne	r5, {r0, r1, r2, r4, r9, sl, sp, lr}
    1efc:	4917052f 	ldmdbmi	r7, {r0, r1, r2, r3, r5, r8, sl}
    1f00:	2f061905 	svccs	0x00061905
    1f04:	03061505 	movweq	r1, #25861	; 0x6505
    1f08:	19052e6f 	stmdbne	r5, {r0, r1, r2, r3, r5, r6, r9, sl, fp, sp}
    1f0c:	4a130306 	bmi	4c2b2c <__bss_end__+0x4b8644>
    1f10:	03061505 	movweq	r1, #25861	; 0x6505
    1f14:	054a2e6d 	strbeq	r2, [sl, #-3693]	; 0xfffff193
    1f18:	7fa00302 	svcvc	0x00a00302
    1f1c:	03066601 	movweq	r6, #26113	; 0x6601
    1f20:	05050172 	streq	r0, [r5, #-370]	; 0xfffffe8e
    1f24:	04050106 	streq	r0, [r5], #-262	; 0xfffffefa
    1f28:	03050536 	movweq	r0, #21814	; 0x5536
    1f2c:	02052e78 	andeq	r2, r5, #120, 28	; 0x780
    1f30:	01062f06 	tsteq	r6, r6, lsl #30
    1f34:	16060e05 	strne	r0, [r6], -r5, lsl #28
    1f38:	13140205 	tstne	r4, #1342177280	; 0x50000000
    1f3c:	01060405 	tsteq	r6, r5, lsl #8
    1f40:	0602054a 	streq	r0, [r2], -sl, asr #10
    1f44:	05017803 	streq	r7, [r1, #-2051]	; 0xfffff7fd
    1f48:	4a010605 	bmi	43764 <__bss_end__+0x3927c>
    1f4c:	4b060205 	blmi	182768 <__bss_end__+0x178280>
    1f50:	0e050106 	adfeqs	f0, f5, f6
    1f54:	02051606 	andeq	r1, r5, #6291456	; 0x600000
    1f58:	15151314 	ldrne	r1, [r5, #-788]	; 0xfffffcec
    1f5c:	06010b05 	streq	r0, [r1], -r5, lsl #22
    1f60:	0611052e 	ldreq	r0, [r1], -lr, lsr #10
    1f64:	01019e03 	tsteq	r1, r3, lsl #28
    1f68:	01062205 	tsteq	r6, r5, lsl #4
    1f6c:	052f0505 	streq	r0, [pc, #-1285]!	; 1a6f <__code_start__-0x6591>
    1f70:	05052d22 	streq	r2, [r5, #-3362]	; 0xfffff2de
    1f74:	11052f06 	tstne	r5, r6, lsl #30
    1f78:	8305054b 	movwhi	r0, #21835	; 0x554b
    1f7c:	5c039e01 	stcpl	14, cr9, [r3], {1}
    1f80:	059e012e 	ldreq	r0, [lr, #302]	; 0x12e
    1f84:	f3030602 	vmax.u8	d0, d3, d2
    1f88:	052e2e7e 	streq	r2, [lr, #-3710]!	; 0xfffff182
    1f8c:	054a2c06 	strbeq	r2, [sl, #-3078]	; 0xfffff3fa
    1f90:	00d8030d 	sbcseq	r0, r8, sp, lsl #6
    1f94:	00040501 	andeq	r0, r4, r1, lsl #10
    1f98:	06010402 	streq	r0, [r1], -r2, lsl #8
    1f9c:	004a1103 	subeq	r1, sl, r3, lsl #2
    1fa0:	01010402 	tsteq	r1, r2, lsl #8
    1fa4:	51061105 	tstpl	r6, r5, lsl #2
    1fa8:	15059e06 	strne	r9, [r5, #-3590]	; 0xfffff1fa
    1fac:	012e1703 			; <UNDEFINED> instruction: 0x012e1703
    1fb0:	031105ba 	tsteq	r1, #780140544	; 0x2e800000
    1fb4:	02012e69 	andeq	r2, r1, #1680	; 0x690
    1fb8:	01010028 	tsteq	r1, r8, lsr #32
    1fbc:	000000a0 	andeq	r0, r0, r0, lsr #1
    1fc0:	005d0003 	subseq	r0, sp, r3
    1fc4:	01020000 	mrseq	r0, (UNDEF: 2)
    1fc8:	000d0efb 	strdeq	r0, [sp], -fp
    1fcc:	01010101 	tsteq	r1, r1, lsl #2
    1fd0:	01000000 	mrseq	r0, (UNDEF: 0)
    1fd4:	2e010000 	cdpcs	0, 0, cr0, cr1, cr0, {0}
    1fd8:	6174732f 	cmnvs	r4, pc, lsr #6
    1fdc:	732d6666 			; <UNDEFINED> instruction: 0x732d6666
    1fe0:	2f006372 	svccs	0x00006372
    1fe4:	72657355 	rsbvc	r7, r5, #1409286145	; 0x54000001
    1fe8:	696d2f73 	stmdbvs	sp!, {r0, r1, r4, r5, r6, r8, r9, sl, fp, sp}^
    1fec:	2f73656c 	svccs	0x0073656c
    1ff0:	72756f53 	rsbsvc	r6, r5, #332	; 0x14c
    1ff4:	632f6563 			; <UNDEFINED> instruction: 0x632f6563
    1ff8:	30343273 	eorscc	r3, r4, r3, ror r2
    1ffc:	6c2f786c 	stcvs	8, cr7, [pc], #-432	; 1e54 <__code_start__-0x61ac>
    2000:	69706269 	ldmdbvs	r0!, {r0, r3, r5, r6, r9, sp, lr}^
    2004:	636e692f 	cmnvs	lr, #770048	; 0xbc000
    2008:	6564756c 	strbvs	r7, [r4, #-1388]!	; 0xfffffa94
    200c:	61630000 	cmnvs	r3, r0
    2010:	2e656863 	cdpcs	8, 6, cr6, cr5, cr3, {3}
    2014:	00010063 	andeq	r0, r1, r3, rrx
    2018:	69707200 	ldmdbvs	r0!, {r9, ip, sp, lr}^
    201c:	0200682e 	andeq	r6, r0, #3014656	; 0x2e0000
    2020:	05000000 	streq	r0, [r0, #-0]
    2024:	02050019 	andeq	r0, r5, #25, 0
    2028:	0000939c 	muleq	r0, ip, r3
    202c:	13050514 	movwne	r0, #21780	; 0x5514
    2030:	2f020513 	svccs	0x00020513
    2034:	13050513 	movwne	r0, #21779	; 0x5513
    2038:	11060405 	tstne	r6, r5, lsl #8
    203c:	052f0505 	streq	r0, [pc, #-1285]!	; 1b3f <__code_start__-0x64c1>
    2040:	1a052f01 	bne	14dc4c <__bss_end__+0x143764>
    2044:	05053106 	streq	r3, [r5, #-262]	; 0xfffffefa
    2048:	02051313 	andeq	r1, r5, #1275068416	; 0x4c000000
    204c:	05051330 	streq	r1, [r5, #-816]	; 0xfffffcd0
    2050:	06040513 			; <UNDEFINED> instruction: 0x06040513
    2054:	2f050511 	svccs	0x00050511
    2058:	022f0105 	eoreq	r0, pc, #1073741825	; 0x40000001
    205c:	01010002 	tsteq	r1, r2
    2060:	00000087 	andeq	r0, r0, r7, lsl #1
    2064:	00640003 	rsbeq	r0, r4, r3
    2068:	01020000 	mrseq	r0, (UNDEF: 2)
    206c:	000d0efb 	strdeq	r0, [sp], -fp
    2070:	01010101 	tsteq	r1, r1, lsl #2
    2074:	01000000 	mrseq	r0, (UNDEF: 0)
    2078:	2e010000 	cdpcs	0, 0, cr0, cr1, cr0, {0}
    207c:	6174732f 	cmnvs	r4, pc, lsr #6
    2080:	732d6666 			; <UNDEFINED> instruction: 0x732d6666
    2084:	2f006372 	svccs	0x00006372
    2088:	72657355 	rsbvc	r7, r5, #1409286145	; 0x54000001
    208c:	696d2f73 	stmdbvs	sp!, {r0, r1, r4, r5, r6, r8, r9, sl, fp, sp}^
    2090:	2f73656c 	svccs	0x0073656c
    2094:	72756f53 	rsbsvc	r6, r5, #332	; 0x14c
    2098:	632f6563 			; <UNDEFINED> instruction: 0x632f6563
    209c:	30343273 	eorscc	r3, r4, r3, ror r2
    20a0:	6c2f786c 	stcvs	8, cr7, [pc], #-432	; 1ef8 <__code_start__-0x6108>
    20a4:	69706269 	ldmdbvs	r0!, {r0, r3, r5, r6, r9, sp, lr}^
    20a8:	636e692f 	cmnvs	lr, #770048	; 0xbc000
    20ac:	6564756c 	strbvs	r7, [r4, #-1388]!	; 0xfffffa94
    20b0:	6c630000 	stclvs	0, cr0, [r3], #-0
    20b4:	2d6e6165 	stfcse	f6, [lr, #-404]!	; 0xfffffe6c
    20b8:	6f626572 	svcvs	0x00626572
    20bc:	632e746f 			; <UNDEFINED> instruction: 0x632e746f
    20c0:	00000100 	andeq	r0, r0, r0, lsl #2
    20c4:	2e697072 	mcrcs	0, 3, r7, cr9, cr2, {3}
    20c8:	00020068 	andeq	r0, r2, r8, rrx
    20cc:	19050000 	stmdbne	r5, {}	; <UNPREDICTABLE>
    20d0:	bc020500 	cfstr32lt	mvfx0, [r2], {-0}
    20d4:	15000093 	strne	r0, [r0, #-147]	; 0xffffff6d
    20d8:	05130505 	ldreq	r0, [r3, #-1285]	; 0xfffffafb
    20dc:	052d0619 	streq	r0, [sp, #-1561]!	; 0xfffff9e7
    20e0:	67062f05 	strvs	r2, [r6, -r5, lsl #30]
    20e4:	06024b2f 	streq	r4, [r2], -pc, lsr #22
    20e8:	12010100 	andne	r0, r1, #0
    20ec:	03000001 	movweq	r0, #1
    20f0:	00005e00 	andeq	r5, r0, r0, lsl #28
    20f4:	fb010200 	blx	428fe <__bss_end__+0x38416>
    20f8:	01000d0e 	tsteq	r0, lr, lsl #26
    20fc:	00010101 	andeq	r0, r1, r1, lsl #2
    2100:	00010000 	andeq	r0, r1, r0
    2104:	2f2e0100 	svccs	0x002e0100
    2108:	66617473 			; <UNDEFINED> instruction: 0x66617473
    210c:	72732d66 	rsbsvc	r2, r3, #6528	; 0x1980
    2110:	552f0063 	strpl	r0, [pc, #-99]!	; 20b5 <__code_start__-0x5f4b>
    2114:	73726573 	cmnvc	r2, #482344960	; 0x1cc00000
    2118:	6c696d2f 	stclvs	13, cr6, [r9], #-188	; 0xffffff44
    211c:	532f7365 			; <UNDEFINED> instruction: 0x532f7365
    2120:	6372756f 	cmnvs	r2, #465567744	; 0x1bc00000
    2124:	73632f65 	cmnvc	r3, #404	; 0x194
    2128:	6c303432 	cfldrsvs	mvf3, [r0], #-200	; 0xffffff38
    212c:	696c2f78 	stmdbvs	ip!, {r3, r4, r5, r6, r8, r9, sl, fp, sp}^
    2130:	2f697062 	svccs	0x00697062
    2134:	6c636e69 	stclvs	14, cr6, [r3], #-420	; 0xfffffe5c
    2138:	00656475 	rsbeq	r6, r5, r5, ror r4
    213c:	74736300 	ldrbtvc	r6, [r3], #-768	; 0xfffffd00
    2140:	2e747261 	cdpcs	2, 7, cr7, cr4, cr1, {3}
    2144:	00010063 	andeq	r0, r1, r3, rrx
    2148:	69707200 	ldmdbvs	r0!, {r9, ip, sp, lr}^
    214c:	0200682e 	andeq	r6, r0, #3014656	; 0x2e0000
    2150:	05000000 	streq	r0, [r0, #-0]
    2154:	02050010 	andeq	r0, r5, #16, 0
    2158:	000093e8 	andeq	r9, r0, r8, ror #7
    215c:	13050515 	movwne	r0, #21781	; 0x5515
    2160:	05130205 	ldreq	r0, [r3, #-517]	; 0xfffffdfb
    2164:	10051405 	andne	r1, r5, r5, lsl #8
    2168:	05050e06 	streq	r0, [r5, #-3590]	; 0xfffff1fa
    216c:	13300632 	teqne	r0, #52428800	; 0x3200000
    2170:	010a0514 	tsteq	sl, r4, lsl r5
    2174:	91080905 	tstls	r8, r5, lsl #18
    2178:	01061005 	tsteq	r6, r5
    217c:	059a0a05 	ldreq	r0, [sl, #2565]	; 0xa05
    2180:	0a056a10 	beq	15c9c8 <__bss_end__+0x1524e0>
    2184:	09052d06 	stmdbeq	r5, {r1, r2, r8, sl, fp, sp}
    2188:	0610052f 	ldreq	r0, [r0], -pc, lsr #10
    218c:	060a0501 	streq	r0, [sl], -r1, lsl #10
    2190:	bb09052d 	bllt	24364c <__bss_end__+0x239164>
    2194:	01061005 	tsteq	r6, r5
    2198:	65060a05 	strvs	r0, [r6, #-2565]	; 0xfffff5fb
    219c:	054b0905 	strbeq	r0, [fp, #-2309]	; 0xfffff6fb
    21a0:	0501060d 	streq	r0, [r1, #-1549]	; 0xfffff9f3
    21a4:	10052d0a 	andne	r2, r5, sl, lsl #26
    21a8:	060a052f 	streq	r0, [sl], -pc, lsr #10
    21ac:	2f09052d 	svccs	0x0009052d
    21b0:	01060d05 	tsteq	r6, r5, lsl #26
    21b4:	052d0a05 	streq	r0, [sp, #-2565]!	; 0xfffff5fb
    21b8:	0a052f10 	beq	14de00 <__bss_end__+0x143918>
    21bc:	09052d06 	stmdbeq	r5, {r1, r2, r8, sl, fp, sp}
    21c0:	060d052f 	streq	r0, [sp], -pc, lsr #10
    21c4:	2d0a0501 	cfstr32cs	mvfx0, [sl, #-4]
    21c8:	052f1005 	streq	r1, [pc, #-5]!	; 21cb <__code_start__-0x5e35>
    21cc:	052d060a 	streq	r0, [sp, #-1546]!	; 0xfffff9f6
    21d0:	0d052f09 	stceq	15, cr2, [r5, #-36]	; 0xffffffdc
    21d4:	0a050106 	beq	1425f4 <__bss_end__+0x13810c>
    21d8:	2f10052d 	svccs	0x0010052d
    21dc:	2d060a05 	vstrcs	s0, [r6, #-20]	; 0xffffffec
    21e0:	05130905 	ldreq	r0, [r3, #-2309]	; 0xfffff6fb
    21e4:	05010610 	streq	r0, [r1, #-1552]	; 0xfffff9f0
    21e8:	052d060a 	streq	r0, [sp, #-1546]!	; 0xfffff9f6
    21ec:	01321505 	teqeq	r2, r5, lsl #10
    21f0:	05144a01 	ldreq	r4, [r4, #-2561]	; 0xfffff5ff
    21f4:	0a052f02 	beq	14de04 <__bss_end__+0x14391c>
    21f8:	2e730306 	cdpcs	3, 7, cr0, cr3, cr6, {0}
    21fc:	01000802 	tsteq	r0, r2, lsl #16
    2200:	00007d01 	andeq	r7, r0, r1, lsl #26
    2204:	65000300 	strvs	r0, [r0, #-768]	; 0xfffffd00
    2208:	02000000 	andeq	r0, r0, #0, 0
    220c:	0d0efb01 	vstreq	d15, [lr, #-4]
    2210:	01010100 	mrseq	r0, (UNDEF: 17)
    2214:	00000001 	andeq	r0, r0, r1
    2218:	01000001 	tsteq	r0, r1
    221c:	74732f2e 	ldrbtvc	r2, [r3], #-3886	; 0xfffff0d2
    2220:	2d666661 	stclcs	6, cr6, [r6, #-388]!	; 0xfffffe7c
    2224:	00637273 	rsbeq	r7, r3, r3, ror r2
    2228:	6573552f 	ldrbvs	r5, [r3, #-1327]!	; 0xfffffad1
    222c:	6d2f7372 	stcvs	3, cr7, [pc, #-456]!	; 206c <__code_start__-0x5f94>
    2230:	73656c69 	cmnvc	r5, #26880	; 0x6900
    2234:	756f532f 	strbvc	r5, [pc, #-815]!	; 1f0d <__code_start__-0x60f3>
    2238:	2f656372 	svccs	0x00656372
    223c:	34327363 	ldrtcc	r7, [r2], #-867	; 0xfffffc9d
    2240:	2f786c30 	svccs	0x00786c30
    2244:	7062696c 	rsbvc	r6, r2, ip, ror #18
    2248:	6e692f69 	cdpvs	15, 6, cr2, cr9, cr9, {3}
    224c:	64756c63 	ldrbtvs	r6, [r5], #-3171	; 0xfffff39d
    2250:	63000065 	movwvs	r0, #101	; 0x65
    2254:	6f747375 	svcvs	0x00747375
    2258:	6f6c2d6d 	svcvs	0x006c2d6d
    225c:	72656461 	rsbvc	r6, r5, #1627389952	; 0x61000000
    2260:	0100632e 	tsteq	r0, lr, lsr #6
    2264:	70720000 	rsbsvc	r0, r2, r0
    2268:	00682e69 	rsbeq	r2, r8, r9, ror #28
    226c:	00000002 	andeq	r0, r0, r2
    2270:	05001a05 	streq	r1, [r0, #-2565]	; 0xfffff5fb
    2274:	0094e002 	addseq	lr, r4, r2
    2278:	01051500 	tsteq	r5, r0, lsl #10
    227c:	00020214 	andeq	r0, r2, r4, lsl r2
    2280:	01140101 	tsteq	r4, r1, lsl #2
    2284:	00030000 	andeq	r0, r3, r0
    2288:	0000005e 	andeq	r0, r0, lr, asr r0
    228c:	0efb0102 	cdpeq	1, 15, cr0, cr11, cr2, {0}
    2290:	0101000d 	tsteq	r1, sp
    2294:	00000101 	andeq	r0, r0, r1, lsl #2
    2298:	00000100 	andeq	r0, r0, r0, lsl #2
    229c:	732f2e01 			; <UNDEFINED> instruction: 0x732f2e01
    22a0:	66666174 			; <UNDEFINED> instruction: 0x66666174
    22a4:	6372732d 	cmnvs	r2, #-1275068416	; 0xb4000000
    22a8:	73552f00 	cmpvc	r5, #0, 30
    22ac:	2f737265 	svccs	0x00737265
    22b0:	656c696d 	strbvs	r6, [ip, #-2413]!	; 0xfffff693
    22b4:	6f532f73 	svcvs	0x00532f73
    22b8:	65637275 	strbvs	r7, [r3, #-629]!	; 0xfffffd8b
    22bc:	3273632f 	rsbscc	r6, r3, #-1140850688	; 0xbc000000
    22c0:	786c3034 	stmdavc	ip!, {r2, r4, r5, ip, sp}^
    22c4:	62696c2f 	rsbvs	r6, r9, #12032	; 0x2f00
    22c8:	692f6970 	stmdbvs	pc!, {r4, r5, r6, r8, fp, sp, lr}	; <UNPREDICTABLE>
    22cc:	756c636e 	strbvc	r6, [ip, #-878]!	; 0xfffffc92
    22d0:	00006564 	andeq	r6, r0, r4, ror #10
    22d4:	6f626572 	svcvs	0x00626572
    22d8:	632e746f 			; <UNDEFINED> instruction: 0x632e746f
    22dc:	00000100 	andeq	r0, r0, r0, lsl #2
    22e0:	2e697072 	mcrcs	0, 3, r7, cr9, cr2, {3}
    22e4:	00020068 	andeq	r0, r2, r8, rrx
    22e8:	19050000 	stmdbne	r5, {}	; <UNPREDICTABLE>
    22ec:	e4020500 	str	r0, [r2], #-1280	; 0xfffffb00
    22f0:	03000094 	movweq	r0, #148	; 0x94
    22f4:	0505010d 	streq	r0, [r5, #-269]	; 0xfffffef3
    22f8:	05311313 	ldreq	r1, [r1, #-787]!	; 0xfffffced
    22fc:	05010613 	streq	r0, [r1, #-1555]	; 0xfffff9ed
    2300:	1b052f01 	blne	14df0c <__bss_end__+0x143a24>
    2304:	05058506 	streq	r8, [r5, #-1286]	; 0xfffffafa
    2308:	09051413 	stmdbeq	r5, {r0, r1, r4, sl, ip}
    230c:	0616052f 	ldreq	r0, [r6], -pc, lsr #10
    2310:	06050501 	streq	r0, [r5], -r1, lsl #10
    2314:	060e052f 	streq	r0, [lr], -pc, lsr #10
    2318:	2f050511 	svccs	0x00050511
    231c:	052f0105 	streq	r0, [pc, #-261]!	; 221f <__code_start__-0x5de1>
    2320:	05300617 	ldreq	r0, [r0, #-1559]!	; 0xfffff9e9
    2324:	6e031305 	cdpvs	3, 0, cr1, cr3, cr5, {0}
    2328:	05131301 	ldreq	r1, [r3, #-769]	; 0xfffffcff
    232c:	0f030617 	svceq	0x00030617
    2330:	03050501 	movweq	r0, #21761	; 0x5501
    2334:	31062e71 	tstcc	r6, r1, ror lr
    2338:	01061305 	tsteq	r6, r5, lsl #6
    233c:	0d030705 	stceq	7, cr0, [r3, #-20]	; 0xffffffec
    2340:	0609052e 	streq	r0, [r9], -lr, lsr #10
    2344:	0306054b 	movweq	r0, #25931	; 0x654b
    2348:	05050176 	streq	r0, [r5, #-374]	; 0xfffffe8a
    234c:	09051413 	stmdbeq	r5, {r0, r1, r4, sl, ip}
    2350:	0616052f 	ldreq	r0, [r6], -pc, lsr #10
    2354:	06050501 	streq	r0, [r5], -r1, lsl #10
    2358:	060e052f 	streq	r0, [lr], -pc, lsr #10
    235c:	2f050511 	svccs	0x00050511
    2360:	0a03062e 	beq	c3c20 <__bss_end__+0xb9738>
    2364:	4d2f3001 	stcmi	0, cr3, [pc, #-4]!	; 2368 <__code_start__-0x5c98>
    2368:	15131313 	ldrne	r1, [r3, #-787]	; 0xfffffced
    236c:	04020067 	streq	r0, [r2], #-103	; 0xffffff99
    2370:	0d056701 	stceq	7, cr6, [r5, #-4]
    2374:	01040200 	mrseq	r0, R12_usr
    2378:	000a0501 	andeq	r0, sl, r1, lsl #10
    237c:	01010402 	tsteq	r1, r2, lsl #8
    2380:	02000505 	andeq	r0, r0, #20971520	; 0x1400000
    2384:	05010104 	streq	r0, [r1, #-260]	; 0xfffffefc
    2388:	0402000d 	streq	r0, [r2], #-13
    238c:	0a050101 	beq	142798 <__bss_end__+0x1382b0>
    2390:	01040200 	mrseq	r0, R12_usr
    2394:	000a0201 	andeq	r0, sl, r1, lsl #4
    2398:	01fa0101 	mvnseq	r0, r1, lsl #2
    239c:	00030000 	andeq	r0, r3, r0
    23a0:	0000005d 	andeq	r0, r0, sp, asr r0
    23a4:	0efb0102 	cdpeq	1, 15, cr0, cr11, cr2, {0}
    23a8:	0101000d 	tsteq	r1, sp
    23ac:	00000101 	andeq	r0, r0, r1, lsl #2
    23b0:	00000100 	andeq	r0, r0, r0, lsl #2
    23b4:	732f2e01 			; <UNDEFINED> instruction: 0x732f2e01
    23b8:	66666174 			; <UNDEFINED> instruction: 0x66666174
    23bc:	6372732d 	cmnvs	r2, #-1275068416	; 0xb4000000
    23c0:	73552f00 	cmpvc	r5, #0, 30
    23c4:	2f737265 	svccs	0x00737265
    23c8:	656c696d 	strbvs	r6, [ip, #-2413]!	; 0xfffff693
    23cc:	6f532f73 	svcvs	0x00532f73
    23d0:	65637275 	strbvs	r7, [r3, #-629]!	; 0xfffffd8b
    23d4:	3273632f 	rsbscc	r6, r3, #-1140850688	; 0xbc000000
    23d8:	786c3034 	stmdavc	ip!, {r2, r4, r5, ip, sp}^
    23dc:	62696c2f 	rsbvs	r6, r9, #12032	; 0x2f00
    23e0:	692f6970 	stmdbvs	pc!, {r4, r5, r6, r8, fp, sp, lr}	; <UNPREDICTABLE>
    23e4:	756c636e 	strbvc	r6, [ip, #-878]!	; 0xfffffc92
    23e8:	00006564 	andeq	r6, r0, r4, ror #10
    23ec:	656d6974 	strbvs	r6, [sp, #-2420]!	; 0xfffff68c
    23f0:	00632e72 	rsbeq	r2, r3, r2, ror lr
    23f4:	72000001 	andvc	r0, r0, #1, 0
    23f8:	682e6970 	stmdavs	lr!, {r4, r5, r6, r8, fp, sp, lr}
    23fc:	00000200 	andeq	r0, r0, r0, lsl #4
    2400:	00230500 	eoreq	r0, r3, r0, lsl #10
    2404:	95700205 	ldrbls	r0, [r0, #-517]!	; 0xfffffdfb
    2408:	05150000 	ldreq	r0, [r5, #-0]
    240c:	0c051305 	stceq	3, cr1, [r5], {5}
    2410:	1f050106 	svcne	0x00050106
    2414:	05056a06 	streq	r6, [r5, #-2566]	; 0xfffff5fa
    2418:	061f0515 			; <UNDEFINED> instruction: 0x061f0515
    241c:	3105050f 	tstcc	r5, pc, lsl #10
    2420:	0a052f06 	beq	14e040 <__bss_end__+0x143b58>
    2424:	05017703 	streq	r7, [r1, #-1795]	; 0xfffff8fd
    2428:	0c051305 	stceq	3, cr1, [r5], {5}
    242c:	05660106 	strbeq	r0, [r6, #-262]!	; 0xfffffefa
    2430:	09030605 	stmdbeq	r3, {r0, r2, r9, sl}
    2434:	01052f01 	tsteq	r5, r1, lsl #30
    2438:	1c051306 	stcne	3, cr1, [r5], {6}
    243c:	05056806 	streq	r6, [r5, #-2054]	; 0xfffff7fa
    2440:	030a0513 	movweq	r0, #42259	; 0xa513
    2444:	05050176 	streq	r0, [r5, #-374]	; 0xfffffe8a
    2448:	061c0515 			; <UNDEFINED> instruction: 0x061c0515
    244c:	05052e18 	streq	r2, [r5, #-3608]	; 0xfffff1e8
    2450:	062e7a03 	strteq	r7, [lr], -r3, lsl #20
    2454:	030a052f 	movweq	r0, #42287	; 0xa52f
    2458:	05050177 	streq	r0, [r5, #-375]	; 0xfffffe89
    245c:	060c0513 			; <UNDEFINED> instruction: 0x060c0513
    2460:	05056601 	streq	r6, [r5, #-1537]	; 0xfffff9ff
    2464:	01090306 	tsteq	r9, r6, lsl #6
    2468:	0501062f 	streq	r0, [r1, #-1583]	; 0xfffff9d1
    246c:	0176030c 	cmneq	r6, ip, lsl #6
    2470:	03060505 	movweq	r0, #25861	; 0x6505
    2474:	09052e0f 	stmdbeq	r5, {r0, r1, r2, r3, r9, sl, fp, sp}
    2478:	030a0513 	movweq	r0, #42259	; 0xa513
    247c:	05050174 	streq	r0, [r5, #-372]	; 0xfffffe8c
    2480:	0a052f15 	beq	14e0dc <__bss_end__+0x143bf4>
    2484:	05017703 	streq	r7, [r1, #-1795]	; 0xfffff8fd
    2488:	0c051305 	stceq	3, cr1, [r5], {5}
    248c:	05660106 	strbeq	r0, [r6, #-262]!	; 0xfffffefa
    2490:	09030605 	stmdbeq	r3, {r0, r2, r9, sl}
    2494:	06110501 	ldreq	r0, [r1], -r1, lsl #10
    2498:	0305051a 	movweq	r0, #21786	; 0x551a
    249c:	2f062e78 	svccs	0x00062e78
    24a0:	05190905 	ldreq	r0, [r9, #-2309]	; 0xfffff6fb
    24a4:	0501060c 	streq	r0, [r1, #-1548]	; 0xfffff9f4
    24a8:	0587061c 	streq	r0, [r7, #1564]	; 0x61c
    24ac:	1c051305 	stcne	3, cr1, [r5], {5}
    24b0:	05051106 	streq	r1, [r5, #-262]	; 0xfffffefa
    24b4:	06054a2f 	streq	r4, [r5], -pc, lsr #20
    24b8:	2e760306 	cdpcs	3, 7, cr0, cr6, cr6, {0}
    24bc:	05130505 	ldreq	r0, [r3, #-1285]	; 0xfffffafb
    24c0:	0176030a 	cmneq	r6, sl, lsl #6
    24c4:	2f150505 	svccs	0x00150505
    24c8:	77030a05 	strvc	r0, [r3, -r5, lsl #20]
    24cc:	13050501 	movwne	r0, #21761	; 0x5501
    24d0:	01060c05 	tsteq	r6, r5, lsl #24
    24d4:	06050566 	streq	r0, [r5], -r6, ror #10
    24d8:	2f010903 	svccs	0x00010903
    24dc:	0c050106 	stfeqs	f0, [r5], {6}
    24e0:	05017603 	streq	r7, [r1, #-1539]	; 0xfffff9fd
    24e4:	0f030605 	svceq	0x00030605
    24e8:	1309052e 	movwne	r0, #38190	; 0x952e
    24ec:	74030a05 	strvc	r0, [r3], #-2565	; 0xfffff5fb
    24f0:	15050501 	strne	r0, [r5, #-1281]	; 0xfffffaff
    24f4:	030a052f 	movweq	r0, #42287	; 0xa52f
    24f8:	05050177 	streq	r0, [r5, #-375]	; 0xfffffe89
    24fc:	060c0513 			; <UNDEFINED> instruction: 0x060c0513
    2500:	05056601 	streq	r6, [r5, #-1537]	; 0xfffff9ff
    2504:	01090306 	tsteq	r9, r6, lsl #6
    2508:	1a061105 	bne	186924 <__bss_end__+0x17c43c>
    250c:	78030505 	stmdavc	r3, {r0, r2, r8, sl}
    2510:	052f062e 	streq	r0, [pc, #-1582]!	; 1eea <__code_start__-0x6116>
    2514:	0c051909 			; <UNDEFINED> instruction: 0x0c051909
    2518:	1e050106 	adfnes	f0, f5, f6
    251c:	05058a06 	streq	r8, [r5, #-2566]	; 0xfffff5fa
    2520:	0e060513 	mcreq	5, 0, r0, cr6, cr3, {0}
    2524:	05130505 	ldreq	r0, [r3, #-1285]	; 0xfffffafb
    2528:	0514061e 	ldreq	r0, [r4, #-1566]	; 0xfffff9e2
    252c:	05662c05 	strbeq	r2, [r6, #-3077]!	; 0xfffff3fb
    2530:	76030606 	strvc	r0, [r3], -r6, lsl #12
    2534:	1305052e 	movwne	r0, #21806	; 0x552e
    2538:	76030a05 	strvc	r0, [r3], -r5, lsl #20
    253c:	15050501 	strne	r0, [r5, #-1281]	; 0xfffffaff
    2540:	030a052f 	movweq	r0, #42287	; 0xa52f
    2544:	05050177 	streq	r0, [r5, #-375]	; 0xfffffe89
    2548:	060c0513 			; <UNDEFINED> instruction: 0x060c0513
    254c:	05056601 	streq	r6, [r5, #-1537]	; 0xfffff9ff
    2550:	01090306 	tsteq	r9, r6, lsl #6
    2554:	0501062f 	streq	r0, [r1, #-1583]	; 0xfffff9d1
    2558:	0176030c 	cmneq	r6, ip, lsl #6
    255c:	03060505 	movweq	r0, #25861	; 0x6505
    2560:	09052e0f 	stmdbeq	r5, {r0, r1, r2, r3, r9, sl, fp, sp}
    2564:	030a0513 	movweq	r0, #42259	; 0xa513
    2568:	05050174 	streq	r0, [r5, #-372]	; 0xfffffe8c
    256c:	0a052f15 	beq	14e1c8 <__bss_end__+0x143ce0>
    2570:	05017703 	streq	r7, [r1, #-1795]	; 0xfffff8fd
    2574:	0c051305 	stceq	3, cr1, [r5], {5}
    2578:	05660106 	strbeq	r0, [r6, #-262]!	; 0xfffffefa
    257c:	09030605 	stmdbeq	r3, {r0, r2, r9, sl}
    2580:	06110501 	ldreq	r0, [r1], -r1, lsl #10
    2584:	0305051a 	movweq	r0, #21786	; 0x551a
    2588:	2f062e78 	svccs	0x00062e78
    258c:	05190905 	ldreq	r0, [r9, #-2309]	; 0xfffff6fb
    2590:	0201060c 	andeq	r0, r1, #12, 12	; 0xc00000
    2594:	01010008 	tsteq	r1, r8
    2598:	00000204 	andeq	r0, r0, r4, lsl #4
    259c:	00c80003 	sbceq	r0, r8, r3
    25a0:	01020000 	mrseq	r0, (UNDEF: 2)
    25a4:	000d0efb 	strdeq	r0, [sp], -fp
    25a8:	01010101 	tsteq	r1, r1, lsl #2
    25ac:	01000000 	mrseq	r0, (UNDEF: 0)
    25b0:	2f010000 	svccs	0x00010000
    25b4:	656d6f68 	strbvs	r6, [sp, #-3944]!	; 0xfffff098
    25b8:	676e652f 	strbvs	r6, [lr, -pc, lsr #10]!
    25bc:	2f72656c 	svccs	0x0072656c
    25c0:	73616c63 	cmnvc	r1, #25344	; 0x6300
    25c4:	73632f73 	cmnvc	r3, #460	; 0x1cc
    25c8:	65303431 	ldrvs	r3, [r0, #-1073]!	; 0xfffffbcf
    25cc:	7732322d 	ldrvc	r3, [r2, -sp, lsr #4]!
    25d0:	2f2f6e69 	svccs	0x002f6e69
    25d4:	7062696c 	rsbvc	r6, r2, ip, ror #18
    25d8:	6e692f69 	cdpvs	15, 6, cr2, cr9, cr9, {3}
    25dc:	64756c63 	ldrbtvs	r6, [r5], #-3171	; 0xfffff39d
    25e0:	752f0065 	strvc	r0, [pc, #-101]!	; 2583 <__code_start__-0x5a7d>
    25e4:	732f7273 			; <UNDEFINED> instruction: 0x732f7273
    25e8:	65726168 	ldrbvs	r6, [r2, #-360]!	; 0xfffffe98
    25ec:	6363672f 	cmnvs	r3, #12320768	; 0xbc0000
    25f0:	6d72612d 	ldfvse	f6, [r2, #-180]!	; 0xffffff4c
    25f4:	6e6f6e2d 	cdpvs	14, 6, cr6, cr15, cr13, {1}
    25f8:	61652d65 	cmnvs	r5, r5, ror #26
    25fc:	312d6962 			; <UNDEFINED> instruction: 0x312d6962
    2600:	2d332e30 	ldccs	14, cr2, [r3, #-192]!	; 0xffffff40
    2604:	31323032 	teqcc	r2, r2, lsr r0
    2608:	2f30312e 	svccs	0x0030312e
    260c:	2f62696c 	svccs	0x0062696c
    2610:	2f636367 	svccs	0x00636367
    2614:	2d6d7261 	sfmcs	f7, 2, [sp, #-388]!	; 0xfffffe7c
    2618:	656e6f6e 	strbvs	r6, [lr, #-3950]!	; 0xfffff092
    261c:	6261652d 	rsbvs	r6, r1, #188743680	; 0xb400000
    2620:	30312f69 	eorscc	r2, r1, r9, ror #30
    2624:	312e332e 			; <UNDEFINED> instruction: 0x312e332e
    2628:	636e692f 	cmnvs	lr, #770048	; 0xbc000
    262c:	6564756c 	strbvs	r7, [r4, #-1388]!	; 0xfffffa94
    2630:	61750000 	cmnvs	r5, r0
    2634:	632e7472 			; <UNDEFINED> instruction: 0x632e7472
    2638:	00000000 	andeq	r0, r0, r0
    263c:	74726175 	ldrbtvc	r6, [r2], #-373	; 0xfffffe8b
    2640:	0100682e 	tsteq	r0, lr, lsr #16
    2644:	70720000 	rsbsvc	r0, r2, r0
    2648:	00682e69 	rsbeq	r2, r8, r9, ror #28
    264c:	67000001 	strvs	r0, [r0, -r1]
    2650:	2e6f6970 			; <UNDEFINED> instruction: 0x2e6f6970
    2654:	00010068 	andeq	r0, r1, r8, rrx
    2658:	64747300 	ldrbtvs	r7, [r4], #-768	; 0xfffffd00
    265c:	2d746e69 	ldclcs	14, cr6, [r4, #-420]!	; 0xfffffe5c
    2660:	2e636367 	cdpcs	3, 6, cr6, cr3, cr7, {3}
    2664:	00020068 	andeq	r0, r2, r8, rrx
    2668:	39050000 	stmdbcc	r5, {}	; <UNPREDICTABLE>
    266c:	8c020500 	cfstr32hi	mvfx0, [r2], {-0}
    2670:	03000096 	movweq	r0, #150	; 0x96
    2674:	01060130 	tsteq	r6, r0, lsr r1
    2678:	67060505 	strvs	r0, [r6, -r5, lsl #10]
    267c:	01061105 	tsteq	r6, r5, lsl #2
    2680:	052e0505 	streq	r0, [lr, #-1285]!	; 0xfffffafb
    2684:	38056701 	stmdacc	r5, {r0, r8, r9, sl, sp, lr}
    2688:	01062906 	tsteq	r6, r6, lsl #18
    268c:	67060505 	strvs	r0, [r6, -r5, lsl #10]
    2690:	01061105 	tsteq	r6, r5, lsl #2
    2694:	052e0505 	streq	r0, [lr, #-1285]!	; 0xfffffafb
    2698:	16056701 	strne	r6, [r5], -r1, lsl #14
    269c:	2e150306 	cdpcs	3, 1, cr0, cr5, cr6, {0}
    26a0:	67350505 	ldrvs	r0, [r5, -r5, lsl #10]!
    26a4:	03683568 	cmneq	r8, #104, 10	; 0x1a000000
    26a8:	6b852e0c 	blvs	fe14dee0 <__bss_end__+0xfe1439f8>
    26ac:	0c036969 			; <UNDEFINED> instruction: 0x0c036969
    26b0:	676b1366 	strbvs	r1, [fp, -r6, ror #6]!
    26b4:	2f060105 	svccs	0x00060105
    26b8:	08061905 	stmdaeq	r6, {r0, r2, r8, fp, ip}
    26bc:	34050525 	strcc	r0, [r5], #-1317	; 0xfffffadb
    26c0:	01060d05 	tsteq	r6, r5, lsl #26
    26c4:	054c0105 	strbeq	r0, [ip, #-261]	; 0xfffffefb
    26c8:	05670619 	strbeq	r0, [r7, #-1561]!	; 0xfffff9e7
    26cc:	0d053605 	stceq	6, cr3, [r5, #-20]	; 0xffffffec
    26d0:	28050106 	stmdacs	r5, {r1, r2, r8}
    26d4:	3001054a 	andcc	r0, r1, sl, asr #10
    26d8:	87061505 	strhi	r1, [r6, -r5, lsl #10]
    26dc:	2f2f0505 	svccs	0x002f0505
    26e0:	02000905 	andeq	r0, r0, #81920	; 0x14000
    26e4:	05130104 	ldreq	r0, [r3, #-260]	; 0xfffffefc
    26e8:	0402000a 	streq	r0, [r2], #-10
    26ec:	0c051101 	stfeqs	f1, [r5], {1}
    26f0:	01040200 	mrseq	r0, R12_usr
    26f4:	0a050106 	beq	142b14 <__bss_end__+0x13862c>
    26f8:	01040200 	mrseq	r0, R12_usr
    26fc:	0605052e 	streq	r0, [r5], -lr, lsr #10
    2700:	060e054c 	streq	r0, [lr], -ip, asr #10
    2704:	4a090501 	bmi	243b10 <__bss_end__+0x239628>
    2708:	2f060505 	svccs	0x00060505
    270c:	0601052f 	streq	r0, [r1], -pc, lsr #10
    2710:	061c0513 			; <UNDEFINED> instruction: 0x061c0513
    2714:	05010667 	streq	r0, [r1, #-1639]	; 0xfffff999
    2718:	2f4b0605 	svccs	0x004b0605
    271c:	02000905 	andeq	r0, r0, #81920	; 0x14000
    2720:	05130104 	ldreq	r0, [r3, #-260]	; 0xfffffefc
    2724:	0402000a 	streq	r0, [r2], #-10
    2728:	0c051101 	stfeqs	f1, [r5], {1}
    272c:	01040200 	mrseq	r0, R12_usr
    2730:	0a050106 	beq	142b50 <__bss_end__+0x138668>
    2734:	01040200 	mrseq	r0, R12_usr
    2738:	0605052e 	streq	r0, [r5], -lr, lsr #10
    273c:	0105674c 	tsteq	r5, ip, asr #14
    2740:	19052f06 	stmdbne	r5, {r1, r2, r8, r9, sl, fp, sp}
    2744:	1b054c06 	blne	155764 <__bss_end__+0x14b27c>
    2748:	2e2a052e 	cfsh64cs	mvdx0, mvdx10, #30
    274c:	01063105 	tsteq	r6, r5, lsl #2
    2750:	052e4205 	streq	r4, [lr, #-517]!	; 0xfffffdfb
    2754:	0531061c 	ldreq	r0, [r1, #-1564]!	; 0xfffff9e4
    2758:	09032f05 	stmdbeq	r3, {r0, r2, r8, r9, sl, fp, sp}
    275c:	060e052e 	streq	r0, [lr], -lr, lsr #10
    2760:	4a210501 	bmi	843b6c <__bss_end__+0x839684>
    2764:	0a030105 	beq	c2b80 <__bss_end__+0xb8698>
    2768:	061a052e 	ldreq	r0, [sl], -lr, lsr #10
    276c:	00090568 	andeq	r0, r9, r8, ror #10
    2770:	30010402 	andcc	r0, r1, r2, lsl #8
    2774:	02000a05 	andeq	r0, r0, #20480	; 0x5000
    2778:	05110104 	ldreq	r0, [r1, #-260]	; 0xfffffefc
    277c:	0402000c 	streq	r0, [r2], #-12
    2780:	05010601 	streq	r0, [r1, #-1537]	; 0xfffff9ff
    2784:	0402000a 	streq	r0, [r2], #-10
    2788:	19052e01 	stmdbne	r5, {r0, r9, sl, fp, sp}
    278c:	7ee80306 	cdpvc	3, 14, cr0, cr8, cr6, {0}
    2790:	2f050566 	svccs	0x00050566
    2794:	05672f2f 	strbeq	r2, [r7, #-3887]!	; 0xfffff0d1
    2798:	022f0601 	eoreq	r0, pc, #1048576	; 0x100000
    279c:	01010004 	tsteq	r1, r4
    27a0:	00000392 	muleq	r0, r2, r3
    27a4:	00b70003 	adcseq	r0, r7, r3
    27a8:	01020000 	mrseq	r0, (UNDEF: 2)
    27ac:	000d0efb 	strdeq	r0, [sp], -fp
    27b0:	01010101 	tsteq	r1, r1, lsl #2
    27b4:	01000000 	mrseq	r0, (UNDEF: 0)
    27b8:	2f010000 	svccs	0x00010000
    27bc:	656d6f68 	strbvs	r6, [sp, #-3944]!	; 0xfffff098
    27c0:	676e652f 	strbvs	r6, [lr, -pc, lsr #10]!
    27c4:	2f72656c 	svccs	0x0072656c
    27c8:	73616c63 	cmnvc	r1, #25344	; 0x6300
    27cc:	73632f73 	cmnvc	r3, #460	; 0x1cc
    27d0:	65303431 	ldrvs	r3, [r0, #-1073]!	; 0xfffffbcf
    27d4:	7732322d 	ldrvc	r3, [r2, -sp, lsr #4]!
    27d8:	2f2f6e69 	svccs	0x002f6e69
    27dc:	7062696c 	rsbvc	r6, r2, ip, ror #18
    27e0:	6e692f69 	cdpvs	15, 6, cr2, cr9, cr9, {3}
    27e4:	64756c63 	ldrbtvs	r6, [r5], #-3171	; 0xfffff39d
    27e8:	752f0065 	strvc	r0, [pc, #-101]!	; 278b <__code_start__-0x5875>
    27ec:	732f7273 			; <UNDEFINED> instruction: 0x732f7273
    27f0:	65726168 	ldrbvs	r6, [r2, #-360]!	; 0xfffffe98
    27f4:	6363672f 	cmnvs	r3, #12320768	; 0xbc0000
    27f8:	6d72612d 	ldfvse	f6, [r2, #-180]!	; 0xffffff4c
    27fc:	6e6f6e2d 	cdpvs	14, 6, cr6, cr15, cr13, {1}
    2800:	61652d65 	cmnvs	r5, r5, ror #26
    2804:	312d6962 			; <UNDEFINED> instruction: 0x312d6962
    2808:	2d332e30 	ldccs	14, cr2, [r3, #-192]!	; 0xffffff40
    280c:	31323032 	teqcc	r2, r2, lsr r0
    2810:	2f30312e 	svccs	0x0030312e
    2814:	2f62696c 	svccs	0x0062696c
    2818:	2f636367 	svccs	0x00636367
    281c:	2d6d7261 	sfmcs	f7, 2, [sp, #-388]!	; 0xfffffe7c
    2820:	656e6f6e 	strbvs	r6, [lr, #-3950]!	; 0xfffff092
    2824:	6261652d 	rsbvs	r6, r1, #188743680	; 0xb400000
    2828:	30312f69 	eorscc	r2, r1, r9, ror #30
    282c:	312e332e 			; <UNDEFINED> instruction: 0x312e332e
    2830:	636e692f 	cmnvs	lr, #770048	; 0xbc000
    2834:	6564756c 	strbvs	r7, [r4, #-1388]!	; 0xfffffa94
    2838:	6d6b0000 	stclvs	0, cr0, [fp, #-0]
    283c:	6f6c6c61 	svcvs	0x006c6c61
    2840:	00632e63 	rsbeq	r2, r3, r3, ror #28
    2844:	72000000 	andvc	r0, r0, #0, 0
    2848:	682e6970 	stmdavs	lr!, {r4, r5, r6, r8, fp, sp, lr}
    284c:	00000100 	andeq	r0, r0, r0, lsl #2
    2850:	69647473 	stmdbvs	r4!, {r0, r1, r4, r5, r6, sl, ip, sp, lr}^
    2854:	672d746e 	strvs	r7, [sp, -lr, ror #8]!
    2858:	682e6363 	stmdavs	lr!, {r0, r1, r5, r6, r8, r9, sp, lr}
    285c:	00000200 	andeq	r0, r0, r0, lsl #4
    2860:	001e0500 	andseq	r0, lr, r0, lsl #10
    2864:	987c0205 	ldmdals	ip!, {r0, r2, r9}^
    2868:	27030000 	strcs	r0, [r3, -r0]
    286c:	01200501 			; <UNDEFINED> instruction: 0x01200501
    2870:	01062d05 	tsteq	r6, r5, lsl #26
    2874:	83062005 	movwhi	r2, #24581	; 0x6005
    2878:	05012205 	streq	r2, [r1, #-517]	; 0xfffffdfb
    287c:	05010635 	streq	r0, [r1, #-1589]	; 0xfffff9cb
    2880:	0583061e 	streq	r0, [r3, #1566]	; 0x61e
    2884:	2d050120 	stfcss	f0, [r5, #-128]	; 0xffffff80
    2888:	42050106 	andmi	r0, r5, #-2147483647	; 0x80000001
    288c:	01068506 	tsteq	r6, r6, lsl #10
    2890:	4b060505 	blmi	183cac <__bss_end__+0x1797c4>
    2894:	2e060114 	mcrcs	1, 0, r0, cr6, cr4, {0}
    2898:	02040200 	andeq	r0, r4, #0, 4
    289c:	02002e06 	andeq	r2, r0, #96	; 0x60
    28a0:	00010204 	andeq	r0, r1, r4, lsl #4
    28a4:	15020402 	strne	r0, [r2, #-1026]	; 0xfffffbfe
    28a8:	02000d05 	andeq	r0, r0, #320	; 0x140
    28ac:	01060204 	tsteq	r6, r4, lsl #4
    28b0:	02000705 	andeq	r0, r0, #1310720	; 0x140000
    28b4:	054a0204 	strbeq	r0, [sl, #-516]	; 0xfffffdfc
    28b8:	054b0609 	strbeq	r0, [fp, #-1545]	; 0xfffff9f7
    28bc:	17051505 	strne	r1, [r5, -r5, lsl #10]
    28c0:	10050106 	andne	r0, r5, r6, lsl #2
    28c4:	0605054a 	streq	r0, [r5], -sl, asr #10
    28c8:	061b052f 	ldreq	r0, [fp], -pc, lsr #10
    28cc:	2e0e0501 	cfsh32cs	mvfx0, mvfx14, #1
    28d0:	052f0105 	streq	r0, [pc, #-261]!	; 27d3 <__code_start__-0x582d>
    28d4:	04020005 	streq	r0, [r2], #-5
    28d8:	77030601 	strvc	r0, [r3, -r1, lsl #12]
    28dc:	0402004a 	streq	r0, [r2], #-74	; 0xffffffb6
    28e0:	02000101 	andeq	r0, r0, #1073741824	; 0x40000000
    28e4:	9e060104 	adflss	f0, f6, f4
    28e8:	01040200 	mrseq	r0, R12_usr
    28ec:	0402002e 	streq	r0, [r2], #-46	; 0xffffffd2
    28f0:	052e0601 	streq	r0, [lr, #-1537]!	; 0xfffff9ff
    28f4:	06013209 	streq	r3, [r1], -r9, lsl #4
    28f8:	2e062ed6 	mcrcs	14, 0, r2, cr6, cr6, {6}
    28fc:	05de1905 	ldrbeq	r1, [lr, #2309]	; 0x905
    2900:	05142f05 	ldreq	r2, [r4, #-3845]	; 0xfffff0fb
    2904:	05010608 	streq	r0, [r1, #-1544]	; 0xfffff9f8
    2908:	09054a07 	stmdbeq	r5, {r0, r1, r2, r9, fp, lr}
    290c:	05054b06 	streq	r4, [r5, #-2822]	; 0xfffff4fa
    2910:	060c0513 			; <UNDEFINED> instruction: 0x060c0513
    2914:	06050501 	streq	r0, [r5], -r1, lsl #10
    2918:	01051367 	tsteq	r5, r7, ror #6
    291c:	09056706 	stmdbeq	r5, {r1, r2, r8, r9, sl, sp, lr}
    2920:	9e012a06 	vmlals.f32	s4, s2, s12
    2924:	06a52805 	strteq	r2, [r5], r5, lsl #16
    2928:	06050501 	streq	r0, [r5], -r1, lsl #10
    292c:	2e06014b 	adfcssm	f0, f6, #3.0
    2930:	13012e06 	movwne	r2, #7686	; 0x1e06
    2934:	47031805 	strmi	r1, [r3, -r5, lsl #16]
    2938:	13050501 	movwne	r0, #21761	; 0x5501
    293c:	06010601 	streq	r0, [r1], -r1, lsl #12
    2940:	1301150f 	movwne	r1, #5391	; 0x150f
    2944:	01060e05 	tsteq	r6, r5, lsl #28
    2948:	2e2e1605 	cfmadda32cs	mvax0, mvax1, mvfx14, mvfx5
    294c:	03060505 	movweq	r0, #25861	; 0x6505
    2950:	0b050139 	bleq	142e3c <__bss_end__+0x138954>
    2954:	05050106 	streq	r0, [r5, #-262]	; 0xfffffefa
    2958:	0a054b06 	beq	155578 <__bss_end__+0x14b090>
    295c:	05050106 	streq	r0, [r5, #-262]	; 0xfffffefa
    2960:	0d054b06 	vstreq	d4, [r5, #-24]	; 0xffffffe8
    2964:	07050106 	streq	r0, [r5, -r6, lsl #2]
    2968:	4d01052e 	cfstr32mi	mvfx0, [r1, #-184]	; 0xffffff48
    296c:	02000505 	andeq	r0, r0, #20971520	; 0x1400000
    2970:	03060104 	movweq	r0, #24836	; 0x6104
    2974:	02004a78 	andeq	r4, r0, #120, 20	; 0x78000
    2978:	00010104 	andeq	r0, r1, r4, lsl #2
    297c:	06010402 	streq	r0, [r1], -r2, lsl #8
    2980:	040200ba 	streq	r0, [r2], #-186	; 0xffffff46
    2984:	052e0601 	streq	r0, [lr, #-1537]!	; 0xfffff9ff
    2988:	06013409 	streq	r3, [r1], -r9, lsl #8
    298c:	2e066682 	cfmadd32cs	mvax4, mvfx6, mvfx6, mvfx2
    2990:	06db2005 	ldrbeq	r2, [fp], r5
    2994:	06050501 	streq	r0, [r5], -r1, lsl #10
    2998:	0200014b 	andeq	r0, r0, #-1073741806	; 0xc0000012
    299c:	004a0204 	subeq	r0, sl, r4, lsl #4
    29a0:	01020402 	tsteq	r2, r2, lsl #8
    29a4:	02040200 	andeq	r0, r4, #0, 4
    29a8:	00120513 	andseq	r0, r2, r3, lsl r5
    29ac:	06020402 	streq	r0, [r2], -r2, lsl #8
    29b0:	04020001 	streq	r0, [r2], #-1
    29b4:	02002e02 	andeq	r2, r0, #2, 28
    29b8:	052e0204 	streq	r0, [lr, #-516]!	; 0xfffffdfc
    29bc:	04020005 	streq	r0, [r2], #-5
    29c0:	002f0602 	eoreq	r0, pc, r2, lsl #12
    29c4:	67020402 	strvs	r0, [r2, -r2, lsl #8]
    29c8:	02000105 	andeq	r0, r0, #1073741825	; 0x40000001
    29cc:	13060204 	movwne	r0, #25092	; 0x6204
    29d0:	02000505 	andeq	r0, r0, #20971520	; 0x1400000
    29d4:	62060104 	andvs	r0, r6, #1
    29d8:	01040200 	mrseq	r0, R12_usr
    29dc:	04020001 	streq	r0, [r2], #-1
    29e0:	00ba0601 	adcseq	r0, sl, r1, lsl #12
    29e4:	06010402 	streq	r0, [r1], -r2, lsl #8
    29e8:	033c052e 	teqeq	ip, #192937984	; 0xb800000
    29ec:	01069e0a 	tsteq	r6, sl, lsl #28
    29f0:	4b060505 	blmi	183e0c <__bss_end__+0x179924>
    29f4:	062e0601 	strteq	r0, [lr], -r1, lsl #12
    29f8:	0113012e 	tsteq	r3, lr, lsr #2
    29fc:	ad031805 	stcge	8, cr1, [r3, #-20]	; 0xffffffec
    2a00:	0505017f 	streq	r0, [r5, #-383]	; 0xfffffe81
    2a04:	06110513 			; <UNDEFINED> instruction: 0x06110513
    2a08:	05052e01 	streq	r2, [r5, #-3585]	; 0xfffff1ff
    2a0c:	0100d203 	tsteq	r0, r3, lsl #4
    2a10:	05134a06 	ldreq	r4, [r3, #-2566]	; 0xfffff5fa
    2a14:	7fa30318 	svcvc	0x00a30318
    2a18:	13050501 	movwne	r0, #21761	; 0x5501
    2a1c:	01061605 	tsteq	r6, r5, lsl #12
    2a20:	0605054a 	streq	r0, [r5], -sl, asr #10
    2a24:	0100e103 	tsteq	r0, r3, lsl #2
    2a28:	01061205 	tsteq	r6, r5, lsl #4
    2a2c:	4b060505 	blmi	183e48 <__bss_end__+0x179960>
    2a30:	a9031805 	stmdbge	r3, {r0, r2, fp, ip}
    2a34:	0505017f 	streq	r0, [r5, #-383]	; 0xfffffe81
    2a38:	18050113 	stmdane	r5, {r0, r1, r4, r8}
    2a3c:	1305050e 	movwne	r0, #21774	; 0x550e
    2a40:	01061105 	tsteq	r6, r5, lsl #2
    2a44:	1505052e 	strne	r0, [r5, #-1326]	; 0xfffffad2
    2a48:	13014a06 	movwne	r4, #6662	; 0x1a06
    2a4c:	01060e05 	tsteq	r6, r5, lsl #28
    2a50:	2e16052e 	cfmul64cs	mvdx0, mvdx6, mvdx14
    2a54:	0605052e 	streq	r0, [r5], -lr, lsr #10
    2a58:	0100d603 	tsteq	r0, r3, lsl #12
    2a5c:	03180501 	tsteq	r8, #4194304	; 0x400000
    2a60:	05017f9f 	streq	r7, [r1, #-3999]	; 0xfffff061
    2a64:	19051305 	stmdbne	r5, {r0, r2, r8, r9, ip}
    2a68:	052e0106 	streq	r0, [lr, #-262]!	; 0xfffffefa
    2a6c:	00e00305 	rsceq	r0, r0, r5, lsl #6
    2a70:	04020001 	streq	r0, [r2], #-1
    2a74:	004a0602 	subeq	r0, sl, r2, lsl #12
    2a78:	14020402 	strne	r0, [r2], #-1026	; 0xfffffbfe
    2a7c:	02000a05 	andeq	r0, r0, #20480	; 0x5000
    2a80:	01060204 	tsteq	r6, r4, lsl #4
    2a84:	02000505 	andeq	r0, r0, #20971520	; 0x1400000
    2a88:	4b060204 	blmi	1832a0 <__bss_end__+0x178db8>
    2a8c:	02000c05 	andeq	r0, r0, #1280	; 0x500
    2a90:	01060204 	tsteq	r6, r4, lsl #4
    2a94:	02000105 	andeq	r0, r0, #1073741825	; 0x40000001
    2a98:	052f0204 	streq	r0, [pc, #-516]!	; 289c <__code_start__-0x5764>
    2a9c:	04020005 	streq	r0, [r2], #-5
    2aa0:	73030601 	movwvc	r0, #13825	; 0x3601
    2aa4:	0402004a 	streq	r0, [r2], #-74	; 0xffffffb6
    2aa8:	02000101 	andeq	r0, r0, #1073741824	; 0x40000000
    2aac:	9e060104 	adflss	f0, f6, f4
    2ab0:	01040200 	mrseq	r0, R12_usr
    2ab4:	0402002e 	streq	r0, [r2], #-46	; 0xffffffd2
    2ab8:	002e0601 	eoreq	r0, lr, r1, lsl #12
    2abc:	2f010402 	svccs	0x00010402
    2ac0:	01040200 	mrseq	r0, R12_usr
    2ac4:	0402002e 	streq	r0, [r2], #-46	; 0xffffffd2
    2ac8:	b103d601 	tstlt	r3, r1, lsl #12
    2acc:	06012e7f 			; <UNDEFINED> instruction: 0x06012e7f
    2ad0:	062e2e82 	strteq	r2, [lr], -r2, lsl #29
    2ad4:	002e062e 	eoreq	r0, lr, lr, lsr #12
    2ad8:	06010402 	streq	r0, [r1], -r2, lsl #8
    2adc:	0100d703 	tsteq	r0, r3, lsl #14
    2ae0:	01040200 	mrseq	r0, R12_usr
    2ae4:	0402002e 	streq	r0, [r2], #-46	; 0xffffffd2
    2ae8:	1505d601 	strne	sp, [r5, #-1537]	; 0xfffff9ff
    2aec:	17057b08 	strne	r7, [r5, -r8, lsl #22]
    2af0:	31160501 	tstcc	r6, r1, lsl #10
    2af4:	05011805 	streq	r1, [r1, #-2053]	; 0xfffff7fb
    2af8:	0501061d 	streq	r0, [r1, #-1565]	; 0xfffff9e3
    2afc:	1905662b 	stmdbne	r5, {r0, r1, r3, r5, r9, sl, sp, lr}
    2b00:	05054d06 	streq	r4, [r5, #-3334]	; 0xfffff2fa
    2b04:	060c0513 			; <UNDEFINED> instruction: 0x060c0513
    2b08:	4a070501 	bmi	1c3f14 <__bss_end__+0x1b9a2c>
    2b0c:	02002505 	andeq	r2, r0, #20971520	; 0x1400000
    2b10:	054a0104 	strbeq	r0, [sl, #-260]	; 0xfffffefc
    2b14:	0402001e 	streq	r0, [r2], #-30	; 0xffffffe2
    2b18:	09054a01 	stmdbeq	r5, {r0, r9, fp, lr}
    2b1c:	05054b06 	streq	r4, [r5, #-2822]	; 0xfffff4fa
    2b20:	060a0513 			; <UNDEFINED> instruction: 0x060a0513
    2b24:	63190501 	tstvs	r9, #4194304	; 0x400000
    2b28:	4c060905 			; <UNDEFINED> instruction: 0x4c060905
    2b2c:	069e0601 	ldreq	r0, [lr], r1, lsl #12
    2b30:	000a022e 	andeq	r0, sl, lr, lsr #4
    2b34:	009e0101 	addseq	r0, lr, r1, lsl #2
    2b38:	00030000 	andeq	r0, r3, r0
    2b3c:	0000005a 	andeq	r0, r0, sl, asr r0
    2b40:	0efb0102 	cdpeq	1, 15, cr0, cr11, cr2, {0}
    2b44:	0101000d 	tsteq	r1, sp
    2b48:	00000101 	andeq	r0, r0, r1, lsl #2
    2b4c:	00000100 	andeq	r0, r0, r0, lsl #2
    2b50:	6c2f2e01 	stcvs	14, cr2, [pc], #-4	; 2b54 <__code_start__-0x54ac>
    2b54:	00636269 	rsbeq	r6, r3, r9, ror #4
    2b58:	6573552f 	ldrbvs	r5, [r3, #-1327]!	; 0xfffffad1
    2b5c:	6d2f7372 	stcvs	3, cr7, [pc, #-456]!	; 299c <__code_start__-0x5664>
    2b60:	73656c69 	cmnvc	r5, #26880	; 0x6900
    2b64:	756f532f 	strbvc	r5, [pc, #-815]!	; 283d <__code_start__-0x57c3>
    2b68:	2f656372 	svccs	0x00656372
    2b6c:	34327363 	ldrtcc	r7, [r2], #-867	; 0xfffffc9d
    2b70:	2f786c30 	svccs	0x00786c30
    2b74:	7062696c 	rsbvc	r6, r2, ip, ror #18
    2b78:	6e692f69 	cdpvs	15, 6, cr2, cr9, cr9, {3}
    2b7c:	64756c63 	ldrbtvs	r6, [r5], #-3171	; 0xfffff39d
    2b80:	70000065 	andvc	r0, r0, r5, rrx
    2b84:	68637475 	stmdavs	r3!, {r0, r2, r4, r5, r6, sl, ip, sp, lr}^
    2b88:	632e7261 			; <UNDEFINED> instruction: 0x632e7261
    2b8c:	00000100 	andeq	r0, r0, r0, lsl #2
    2b90:	2e697072 	mcrcs	0, 3, r7, cr9, cr2, {3}
    2b94:	00020068 	andeq	r0, r2, r8, rrx
    2b98:	24050000 	strcs	r0, [r5], #-0
    2b9c:	2c020500 	cfstr32cs	mvfx0, [r2], {-0}
    2ba0:	1400009c 	strne	r0, [r0], #-156	; 0xffffff64
    2ba4:	05012605 	streq	r2, [r1, #-1541]	; 0xfffff9fb
    2ba8:	2e010624 	cfmadd32cs	mvax1, mvfx0, mvfx1, mvfx4
    2bac:	052e2605 	streq	r2, [lr, #-1541]!	; 0xfffff9fb
    2bb0:	052e0634 	streq	r0, [lr, #-1588]!	; 0xfffff9cc
    2bb4:	05010601 	streq	r0, [r1, #-1537]	; 0xfffff9ff
    2bb8:	054f061b 	strbeq	r0, [pc, #-1563]	; 25a5 <__code_start__-0x5a5b>
    2bbc:	11051305 	tstne	r5, r5, lsl #6
    2bc0:	01050106 	tsteq	r5, r6, lsl #2
    2bc4:	06230567 	strteq	r0, [r3], -r7, ror #10
    2bc8:	13050567 	movwne	r0, #21863	; 0x5567
    2bcc:	01061105 	tsteq	r6, r5, lsl #2
    2bd0:	024b0105 	subeq	r0, fp, #1073741825	; 0x40000001
    2bd4:	01010004 	tsteq	r1, r4
    2bd8:	000000e2 	andeq	r0, r0, r2, ror #1
    2bdc:	00590003 	subseq	r0, r9, r3
    2be0:	01020000 	mrseq	r0, (UNDEF: 2)
    2be4:	000d0efb 	strdeq	r0, [sp], -fp
    2be8:	01010101 	tsteq	r1, r1, lsl #2
    2bec:	01000000 	mrseq	r0, (UNDEF: 0)
    2bf0:	2e010000 	cdpcs	0, 0, cr0, cr1, cr0, {0}
    2bf4:	62696c2f 	rsbvs	r6, r9, #12032	; 0x2f00
    2bf8:	552f0063 	strpl	r0, [pc, #-99]!	; 2b9d <__code_start__-0x5463>
    2bfc:	73726573 	cmnvc	r2, #482344960	; 0x1cc00000
    2c00:	6c696d2f 	stclvs	13, cr6, [r9], #-188	; 0xffffff44
    2c04:	532f7365 			; <UNDEFINED> instruction: 0x532f7365
    2c08:	6372756f 	cmnvs	r2, #465567744	; 0x1bc00000
    2c0c:	73632f65 	cmnvc	r3, #404	; 0x194
    2c10:	6c303432 	cfldrsvs	mvf3, [r0], #-200	; 0xffffff38
    2c14:	696c2f78 	stmdbvs	ip!, {r3, r4, r5, r6, r8, r9, sl, fp, sp}^
    2c18:	2f697062 	svccs	0x00697062
    2c1c:	6c636e69 	stclvs	14, cr6, [r3], #-420	; 0xfffffe5c
    2c20:	00656475 	rsbeq	r6, r5, r5, ror r4
    2c24:	72747300 	rsbsvc	r7, r4, #0, 6
    2c28:	2e746163 	rpwcssz	f6, f4, f3
    2c2c:	00010063 	andeq	r0, r1, r3, rrx
    2c30:	69707200 	ldmdbvs	r0!, {r9, ip, sp, lr}^
    2c34:	0200682e 	andeq	r6, r0, #3014656	; 0x2e0000
    2c38:	05000000 	streq	r0, [r0, #-0]
    2c3c:	0205002c 	andeq	r0, r5, #44, 0	; 0x2c
    2c40:	00009c68 	andeq	r9, r0, r8, ror #24
    2c44:	13050515 	movwne	r0, #21781	; 0x5515
    2c48:	060b0513 			; <UNDEFINED> instruction: 0x060b0513
    2c4c:	00050511 	andeq	r0, r5, r1, lsl r5
    2c50:	06010402 	streq	r0, [r1], -r2, lsl #8
    2c54:	04020030 	streq	r0, [r2], #-48	; 0xffffffd0
    2c58:	09051501 	stmdbeq	r5, {r0, r8, sl, ip}
    2c5c:	01040200 	mrseq	r0, R12_usr
    2c60:	000b0513 	andeq	r0, fp, r3, lsl r5
    2c64:	2f010402 	svccs	0x00010402
    2c68:	02000505 	andeq	r0, r0, #20971520	; 0x1400000
    2c6c:	01060104 	tsteq	r6, r4, lsl #2
    2c70:	01040200 	mrseq	r0, R12_usr
    2c74:	054e062e 	strbeq	r0, [lr, #-1582]	; 0xfffff9d2
    2c78:	05010608 	streq	r0, [r1, #-1544]	; 0xfffff9f8
    2c7c:	04020005 	streq	r0, [r2], #-5
    2c80:	052f0601 	streq	r0, [pc, #-1537]!	; 2687 <__code_start__-0x5979>
    2c84:	04020009 	streq	r0, [r2], #-9
    2c88:	0b051301 	bleq	147894 <__bss_end__+0x13d3ac>
    2c8c:	01040200 	mrseq	r0, R12_usr
    2c90:	09050106 	stmdbeq	r5, {r1, r2, r8}
    2c94:	01040200 	mrseq	r0, R12_usr
    2c98:	05052f06 	streq	r2, [r5, #-3846]	; 0xfffff0fa
    2c9c:	01040200 	mrseq	r0, R12_usr
    2ca0:	0f051306 	svceq	0x00051306
    2ca4:	01040200 	mrseq	r0, R12_usr
    2ca8:	000d052d 	andeq	r0, sp, sp, lsr #10
    2cac:	06010402 	streq	r0, [r1], -r2, lsl #8
    2cb0:	0005052f 	andeq	r0, r5, pc, lsr #10
    2cb4:	06010402 	streq	r0, [r1], -r2, lsl #8
    2cb8:	00040201 	andeq	r0, r4, r1, lsl #4
    2cbc:	00b20101 	adcseq	r0, r2, r1, lsl #2
    2cc0:	00030000 	andeq	r0, r3, r0
    2cc4:	00000059 	andeq	r0, r0, r9, asr r0
    2cc8:	0efb0102 	cdpeq	1, 15, cr0, cr11, cr2, {0}
    2ccc:	0101000d 	tsteq	r1, sp
    2cd0:	00000101 	andeq	r0, r0, r1, lsl #2
    2cd4:	00000100 	andeq	r0, r0, r0, lsl #2
    2cd8:	6c2f2e01 	stcvs	14, cr2, [pc], #-4	; 2cdc <__code_start__-0x5324>
    2cdc:	00636269 	rsbeq	r6, r3, r9, ror #4
    2ce0:	6573552f 	ldrbvs	r5, [r3, #-1327]!	; 0xfffffad1
    2ce4:	6d2f7372 	stcvs	3, cr7, [pc, #-456]!	; 2b24 <__code_start__-0x54dc>
    2ce8:	73656c69 	cmnvc	r5, #26880	; 0x6900
    2cec:	756f532f 	strbvc	r5, [pc, #-815]!	; 29c5 <__code_start__-0x563b>
    2cf0:	2f656372 	svccs	0x00656372
    2cf4:	34327363 	ldrtcc	r7, [r2], #-867	; 0xfffffc9d
    2cf8:	2f786c30 	svccs	0x00786c30
    2cfc:	7062696c 	rsbvc	r6, r2, ip, ror #18
    2d00:	6e692f69 	cdpvs	15, 6, cr2, cr9, cr9, {3}
    2d04:	64756c63 	ldrbtvs	r6, [r5], #-3171	; 0xfffff39d
    2d08:	73000065 	movwvc	r0, #101	; 0x65
    2d0c:	6d637274 	sfmvs	f7, 2, [r3, #-464]!	; 0xfffffe30
    2d10:	00632e70 	rsbeq	r2, r3, r0, ror lr
    2d14:	72000001 	andvc	r0, r0, #1, 0
    2d18:	682e6970 	stmdavs	lr!, {r4, r5, r6, r8, fp, sp, lr}
    2d1c:	00000200 	andeq	r0, r0, r0, lsl #4
    2d20:	002a0500 	eoreq	r0, sl, r0, lsl #10
    2d24:	9c940205 	lfmls	f0, 4, [r4], {5}
    2d28:	05140000 	ldreq	r0, [r4, #-0]
    2d2c:	10051309 	andne	r1, r5, r9, lsl #6
    2d30:	0f050106 	svceq	0x00050106
    2d34:	10052e06 	andne	r2, r5, r6, lsl #28
    2d38:	0f058206 	svceq	0x00058206
    2d3c:	0011052e 	andseq	r0, r1, lr, lsr #10
    2d40:	06010402 	streq	r0, [r1], -r2, lsl #8
    2d44:	001c054b 	andseq	r0, ip, fp, asr #10
    2d48:	06010402 	streq	r0, [r1], -r2, lsl #8
    2d4c:	000f052d 	andeq	r0, pc, sp, lsr #10
    2d50:	06010402 	streq	r0, [r1], -r2, lsl #8
    2d54:	0013052e 	andseq	r0, r3, lr, lsr #10
    2d58:	06010402 	streq	r0, [r1], -r2, lsl #8
    2d5c:	06090501 	streq	r0, [r9], -r1, lsl #10
    2d60:	0601054c 	streq	r0, [r1], -ip, asr #10
    2d64:	09054a13 	stmdbeq	r5, {r0, r1, r4, r9, fp, lr}
    2d68:	01052d06 	tsteq	r5, r6, lsl #26
    2d6c:	022e1306 	eoreq	r1, lr, #402653184	; 0x18000000
    2d70:	01010002 	tsteq	r1, r2
    2d74:	0000009d 	muleq	r0, sp, r0
    2d78:	00590003 	subseq	r0, r9, r3
    2d7c:	01020000 	mrseq	r0, (UNDEF: 2)
    2d80:	000d0efb 	strdeq	r0, [sp], -fp
    2d84:	01010101 	tsteq	r1, r1, lsl #2
    2d88:	01000000 	mrseq	r0, (UNDEF: 0)
    2d8c:	2e010000 	cdpcs	0, 0, cr0, cr1, cr0, {0}
    2d90:	62696c2f 	rsbvs	r6, r9, #12032	; 0x2f00
    2d94:	552f0063 	strpl	r0, [pc, #-99]!	; 2d39 <__code_start__-0x52c7>
    2d98:	73726573 	cmnvc	r2, #482344960	; 0x1cc00000
    2d9c:	6c696d2f 	stclvs	13, cr6, [r9], #-188	; 0xffffff44
    2da0:	532f7365 			; <UNDEFINED> instruction: 0x532f7365
    2da4:	6372756f 	cmnvs	r2, #465567744	; 0x1bc00000
    2da8:	73632f65 	cmnvc	r3, #404	; 0x194
    2dac:	6c303432 	cfldrsvs	mvf3, [r0], #-200	; 0xffffff38
    2db0:	696c2f78 	stmdbvs	ip!, {r3, r4, r5, r6, r8, r9, sl, fp, sp}^
    2db4:	2f697062 	svccs	0x00697062
    2db8:	6c636e69 	stclvs	14, cr6, [r3], #-420	; 0xfffffe5c
    2dbc:	00656475 	rsbeq	r6, r5, r5, ror r4
    2dc0:	72747300 	rsbsvc	r7, r4, #0, 6
    2dc4:	2e797063 	cdpcs	0, 7, cr7, cr9, cr3, {3}
    2dc8:	00010063 	andeq	r0, r1, r3, rrx
    2dcc:	69707200 	ldmdbvs	r0!, {r9, ip, sp, lr}^
    2dd0:	0200682e 	andeq	r6, r0, #3014656	; 0x2e0000
    2dd4:	05000000 	streq	r0, [r0, #-0]
    2dd8:	0205002a 	andeq	r0, r5, #42, 0	; 0x2a
    2ddc:	00009cd8 	ldrdeq	r9, [r0], -r8
    2de0:	13050514 	movwne	r0, #21780	; 0x5514
    2de4:	00220513 	eoreq	r0, r2, r3, lsl r5
    2de8:	2e010402 	cdpcs	4, 0, cr0, cr1, cr2, {0}
    2dec:	02000b05 	andeq	r0, r0, #5120	; 0x1400
    2df0:	05010104 	streq	r0, [r1, #-260]	; 0xfffffefc
    2df4:	04020015 	streq	r0, [r2], #-21	; 0xffffffeb
    2df8:	05010601 	streq	r0, [r1, #-1537]	; 0xfffff9ff
    2dfc:	0402000b 	streq	r0, [r2], #-11
    2e00:	13052e01 	movwne	r2, #24065	; 0x5e01
    2e04:	01040200 	mrseq	r0, R12_usr
    2e08:	000b052e 	andeq	r0, fp, lr, lsr #10
    2e0c:	2e010402 	cdpcs	4, 0, cr0, cr1, cr2, {0}
    2e10:	01000402 	tsteq	r0, r2, lsl #8
    2e14:	0000fd01 	andeq	pc, r0, r1, lsl #26
    2e18:	bf000300 	svclt	0x00000300
    2e1c:	02000000 	andeq	r0, r0, #0, 0
    2e20:	0d0efb01 	vstreq	d15, [lr, #-4]
    2e24:	01010100 	mrseq	r0, (UNDEF: 17)
    2e28:	00000001 	andeq	r0, r0, r1
    2e2c:	01000001 	tsteq	r0, r1
    2e30:	696c2f2e 	stmdbvs	ip!, {r1, r2, r3, r5, r8, r9, sl, fp, sp}^
    2e34:	2f006362 	svccs	0x00006362
    2e38:	72657355 	rsbvc	r7, r5, #1409286145	; 0x54000001
    2e3c:	696d2f73 	stmdbvs	sp!, {r0, r1, r4, r5, r6, r8, r9, sl, fp, sp}^
    2e40:	2f73656c 	svccs	0x0073656c
    2e44:	72756f53 	rsbsvc	r6, r5, #332	; 0x14c
    2e48:	632f6563 			; <UNDEFINED> instruction: 0x632f6563
    2e4c:	30343273 	eorscc	r3, r4, r3, ror r2
    2e50:	6c2f786c 	stcvs	8, cr7, [pc], #-432	; 2ca8 <__code_start__-0x5358>
    2e54:	69706269 	ldmdbvs	r0!, {r0, r3, r5, r6, r9, sp, lr}^
    2e58:	636e692f 	cmnvs	lr, #770048	; 0xbc000
    2e5c:	6564756c 	strbvs	r7, [r4, #-1388]!	; 0xfffffa94
    2e60:	706f2f00 	rsbvc	r2, pc, r0, lsl #30
    2e64:	6f682f74 	svcvs	0x00682f74
    2e68:	7262656d 	rsbvc	r6, r2, #457179136	; 0x1b400000
    2e6c:	432f7765 			; <UNDEFINED> instruction: 0x432f7765
    2e70:	616c6c65 	cmnvs	ip, r5, ror #24
    2e74:	72612f72 	rsbvc	r2, r1, #456	; 0x1c8
    2e78:	6f6e2d6d 	svcvs	0x006e2d6d
    2e7c:	652d656e 	strvs	r6, [sp, #-1390]!	; 0xfffffa92
    2e80:	2d696261 	sfmcs	f6, 2, [r9, #-388]!	; 0xfffffe7c
    2e84:	2d392f39 	ldccs	15, cr2, [r9, #-228]!	; 0xffffff1c
    2e88:	39313032 	ldmdbcc	r1!, {r1, r4, r5, ip, sp}
    2e8c:	632d3471 			; <UNDEFINED> instruction: 0x632d3471
    2e90:	37303173 			; <UNDEFINED> instruction: 0x37303173
    2e94:	696c2f65 	stmdbvs	ip!, {r0, r2, r5, r6, r8, r9, sl, fp, sp}^
    2e98:	63672f62 	cmnvs	r7, #392	; 0x188
    2e9c:	72612f63 	rsbvc	r2, r1, #396	; 0x18c
    2ea0:	6f6e2d6d 	svcvs	0x006e2d6d
    2ea4:	652d656e 	strvs	r6, [sp, #-1390]!	; 0xfffffa92
    2ea8:	2f696261 	svccs	0x00696261
    2eac:	2e322e39 	mrccs	14, 1, r2, cr2, cr9, {1}
    2eb0:	6e692f31 	mcrvs	15, 3, r2, cr9, cr1, {1}
    2eb4:	64756c63 	ldrbtvs	r6, [r5], #-3171	; 0xfffff39d
    2eb8:	73000065 	movwvc	r0, #101	; 0x65
    2ebc:	636e7274 	cmnvs	lr, #116, 4	; 0x40000007
    2ec0:	632e706d 			; <UNDEFINED> instruction: 0x632e706d
    2ec4:	00000100 	andeq	r0, r0, r0, lsl #2
    2ec8:	2e697072 	mcrcs	0, 3, r7, cr9, cr2, {3}
    2ecc:	00020068 	andeq	r0, r2, r8, rrx
    2ed0:	64747300 	ldrbtvs	r7, [r4], #-768	; 0xfffffd00
    2ed4:	2e666564 	cdpcs	5, 6, cr6, cr6, cr4, {3}
    2ed8:	00030068 	andeq	r0, r3, r8, rrx
    2edc:	39050000 	stmdbcc	r5, {}	; <UNPREDICTABLE>
    2ee0:	f0020500 			; <UNDEFINED> instruction: 0xf0020500
    2ee4:	1500009c 	strne	r0, [r0, #-156]	; 0xffffff64
    2ee8:	13130505 	tstne	r3, #20971520	; 0x1400000
    2eec:	2e060a05 	vmlacs.f32	s0, s12, s10
    2ef0:	052f0c05 	streq	r0, [pc, #-3077]!	; 22f3 <__code_start__-0x5d0d>
    2ef4:	0b052e13 	bleq	14e748 <__bss_end__+0x144260>
    2ef8:	0609052e 	streq	r0, [r9], -lr, lsr #10
    2efc:	110a054a 	tstne	sl, sl, asr #10
    2f00:	0c050106 	stfeqs	f0, [r5], {6}
    2f04:	2f01054e 	svccs	0x0001054e
    2f08:	2b060d05 	blcs	186324 <__bss_end__+0x17be3c>
    2f0c:	01061b05 	tsteq	r6, r5, lsl #22
    2f10:	0002022e 	andeq	r0, r2, lr, lsr #4
    2f14:	008a0101 	addeq	r0, sl, r1, lsl #2
    2f18:	00030000 	andeq	r0, r3, r0
    2f1c:	0000006e 	andeq	r0, r0, lr, rrx
    2f20:	0efb0102 	cdpeq	1, 15, cr0, cr11, cr2, {0}
    2f24:	0101000d 	tsteq	r1, sp
    2f28:	00000101 	andeq	r0, r0, r1, lsl #2
    2f2c:	00000100 	andeq	r0, r0, r0, lsl #2
    2f30:	732f2e01 			; <UNDEFINED> instruction: 0x732f2e01
    2f34:	66666174 			; <UNDEFINED> instruction: 0x66666174
    2f38:	6372732d 	cmnvs	r2, #-1275068416	; 0xb4000000
    2f3c:	73552f00 	cmpvc	r5, #0, 30
    2f40:	2f737265 	svccs	0x00737265
    2f44:	656c696d 	strbvs	r6, [ip, #-2413]!	; 0xfffff693
    2f48:	6f532f73 	svcvs	0x00532f73
    2f4c:	65637275 	strbvs	r7, [r3, #-629]!	; 0xfffffd8b
    2f50:	3273632f 	rsbscc	r6, r3, #-1140850688	; 0xbc000000
    2f54:	786c3034 	stmdavc	ip!, {r2, r4, r5, ip, sp}^
    2f58:	62696c2f 	rsbvs	r6, r9, #12032	; 0x2f00
    2f5c:	692f6970 	stmdbvs	pc!, {r4, r5, r6, r8, fp, sp, lr}	; <UNPREDICTABLE>
    2f60:	756c636e 	strbvc	r6, [ip, #-878]!	; 0xfffffc92
    2f64:	00006564 	andeq	r6, r0, r4, ror #10
    2f68:	61666564 	cmnvs	r6, r4, ror #10
    2f6c:	2d746c75 	ldclcs	12, cr6, [r4, #-468]!	; 0xfffffe2c
    2f70:	6f626572 	svcvs	0x00626572
    2f74:	632d746f 			; <UNDEFINED> instruction: 0x632d746f
    2f78:	6f6c6c61 	svcvs	0x006c6c61
    2f7c:	632e7475 			; <UNDEFINED> instruction: 0x632e7475
    2f80:	00000100 	andeq	r0, r0, r0, lsl #2
    2f84:	2e697072 	mcrcs	0, 3, r7, cr9, cr2, {3}
    2f88:	00020068 	andeq	r0, r2, r8, rrx
    2f8c:	1b050000 	blne	142f94 <__bss_end__+0x138aac>
    2f90:	20020500 	andcs	r0, r2, r0, lsl #10
    2f94:	1400009d 	strne	r0, [r0], #-157	; 0xffffff63
    2f98:	05011c05 	streq	r1, [r1, #-3077]	; 0xfffff3fb
    2f9c:	02010601 	andeq	r0, r1, #1048576	; 0x100000
    2fa0:	01010002 	tsteq	r1, r2

Disassembly of section .debug_str:

00000000 <.debug_str>:
   0:	5f6f656e 	svcpl	0x006f656e
   4:	646e6168 	strbtvs	r6, [lr], #-360	; 0xfffffe98
   8:	6700656c 	strvs	r6, [r0, -ip, ror #10]
   c:	5f6f6970 	svcpl	0x006f6970
  10:	30726c63 	rsbscc	r6, r2, r3, ror #24
  14:	69706700 	ldmdbvs	r0!, {r8, r9, sl, sp, lr}^
  18:	65735f6f 	ldrbvs	r5, [r3, #-3951]!	; 0xfffff091
  1c:	70003074 	andvc	r3, r0, r4, ror r0
  20:	705f7869 	subsvc	r7, pc, r9, ror #16
  24:	63006e69 	movwvs	r6, #3689	; 0xe69
  28:	65706d6f 	ldrbvs	r6, [r0, #-3439]!	; 0xfffff291
  2c:	7461736e 	strbtvc	r7, [r1], #-878	; 0xfffffc92
  30:	006e6f69 	rsbeq	r6, lr, r9, ror #30
  34:	706f656e 	rsbvc	r6, pc, lr, ror #10
  38:	775f7869 	ldrbvc	r7, [pc, -r9, ror #16]
  3c:	65746972 	ldrbvs	r6, [r4, #-2418]!	; 0xfffff68e
  40:	746f6e00 	strbtvc	r6, [pc], #-3584	; 48 <__code_start__-0x7fb8>
  44:	6e69616d 	powvsez	f6, f1, #5.0
  48:	69706e00 	ldmdbvs	r0!, {r9, sl, fp, sp, lr}^
  4c:	736c6578 	cmnvc	ip, #120, 10	; 0x1e000000
  50:	6f656e00 	svcvs	0x00656e00
  54:	5f786970 	svcpl	0x00786970
  58:	74696e69 	strbtvc	r6, [r9], #-3689	; 0xfffff197
  5c:	73552f00 	cmpvc	r5, #0, 30
  60:	2f737265 	svccs	0x00737265
  64:	656c696d 	strbvs	r6, [ip, #-2413]!	; 0xfffff693
  68:	6f532f73 	svcvs	0x00532f73
  6c:	65637275 	strbvs	r7, [r3, #-629]!	; 0xfffffd8b
  70:	3273632f 	rsbscc	r6, r3, #-1140850688	; 0xbc000000
  74:	786c3034 	stmdavc	ip!, {r2, r4, r5, ip, sp}^
  78:	62616c2f 	rsbvs	r6, r1, #12032	; 0x2f00
  7c:	2d342f73 	ldccs	15, cr2, [r4, #-460]!	; 0xfffffe34
  80:	38327377 	ldmdacc	r2!, {r0, r1, r2, r4, r5, r6, r8, r9, ip, sp, lr}
  84:	2f623231 	svccs	0x00623231
  88:	65646f63 	strbvs	r6, [r4, #-3939]!	; 0xfffff09d
  8c:	736e7500 	cmnvc	lr, #0, 10
  90:	656e6769 	strbvs	r6, [lr, #-1897]!	; 0xfffff897
  94:	68632064 	stmdavs	r3!, {r2, r5, r6, sp}^
  98:	64007261 	strvs	r7, [r0], #-609	; 0xfffffd9f
  9c:	79616c65 	stmdbvc	r1!, {r0, r2, r5, r6, sl, fp, sp, lr}^
  a0:	00736d5f 	rsbseq	r6, r3, pc, asr sp
  a4:	726f6873 	rsbvc	r6, pc, #7536640	; 0x730000
  a8:	6e752074 	mrcvs	0, 3, r2, cr5, cr4, {3}
  ac:	6e676973 			; <UNDEFINED> instruction: 0x6e676973
  b0:	69206465 	stmdbvs	r0!, {r0, r2, r5, r6, sl, sp, lr}
  b4:	6e00746e 	cdpvs	4, 0, cr7, cr0, cr14, {3}
  b8:	69706f65 	ldmdbvs	r0!, {r0, r2, r5, r6, r8, r9, sl, fp, sp, lr}^
  bc:	6c665f78 	stclvs	15, cr5, [r6], #-480	; 0xfffffe20
  c0:	00687375 	rsbeq	r7, r8, r5, ror r3
  c4:	6f697067 	svcvs	0x00697067
  c8:	7465735f 	strbtvc	r7, [r5], #-863	; 0xfffffca1
  cc:	74756f5f 	ldrbtvc	r6, [r5], #-3935	; 0xfffff0a1
  d0:	00747570 	rsbseq	r7, r4, r0, ror r5
  d4:	20554e47 	subscs	r4, r5, r7, asr #28
  d8:	20393943 	eorscs	r3, r9, r3, asr #18
  dc:	2e322e39 	mrccs	14, 1, r2, cr2, cr9, {1}
  e0:	30322031 	eorscc	r2, r2, r1, lsr r0
  e4:	30313931 	eorscc	r3, r1, r1, lsr r9
  e8:	28203532 	stmdacs	r0!, {r1, r4, r5, r8, sl, ip, sp}
  ec:	656c6572 	strbvs	r6, [ip, #-1394]!	; 0xfffffa8e
  f0:	29657361 	stmdbcs	r5!, {r0, r5, r6, r8, r9, ip, sp, lr}^
  f4:	52415b20 	subpl	r5, r1, #32, 22	; 0x8000
  f8:	72612f4d 	rsbvc	r2, r1, #308	; 0x134
  fc:	2d392d6d 	ldccs	13, cr2, [r9, #-436]!	; 0xfffffe4c
 100:	6e617262 	cdpvs	2, 6, cr7, cr1, cr2, {3}
 104:	72206863 	eorvc	r6, r0, #6488064	; 0x630000
 108:	73697665 	cmnvc	r9, #105906176	; 0x6500000
 10c:	206e6f69 	rsbcs	r6, lr, r9, ror #30
 110:	35373732 	ldrcc	r3, [r7, #-1842]!	; 0xfffff8ce
 114:	205d3939 	subscs	r3, sp, r9, lsr r9
 118:	70636d2d 	rsbvc	r6, r3, sp, lsr #26
 11c:	72613d75 	rsbvc	r3, r1, #7488	; 0x1d40
 120:	3731316d 	ldrcc	r3, [r1, -sp, ror #2]!
 124:	667a6a36 			; <UNDEFINED> instruction: 0x667a6a36
 128:	2d20732d 	stccs	3, cr7, [r0, #-180]!	; 0xffffff4c
 12c:	6e75746d 	cdpvs	4, 7, cr7, cr5, cr13, {3}
 130:	72613d65 	rsbvc	r3, r1, #6464	; 0x1940
 134:	3731316d 	ldrcc	r3, [r1, -sp, ror #2]!
 138:	667a6a36 			; <UNDEFINED> instruction: 0x667a6a36
 13c:	2d20732d 	stccs	3, cr7, [r0, #-180]!	; 0xffffff4c
 140:	6f6c666d 	svcvs	0x006c666d
 144:	612d7461 			; <UNDEFINED> instruction: 0x612d7461
 148:	733d6962 	teqvc	sp, #1605632	; 0x188000
 14c:	2074666f 	rsbscs	r6, r4, pc, ror #12
 150:	72616d2d 	rsbvc	r6, r1, #2880	; 0xb40
 154:	6d2d206d 	stcvs	0, cr2, [sp, #-436]!	; 0xfffffe4c
 158:	68637261 	stmdavs	r3!, {r0, r5, r6, r9, ip, sp, lr}^
 15c:	6d72613d 	ldfvse	f6, [r2, #-244]!	; 0xffffff0c
 160:	7a6b3676 	bvc	1acdb40 <__bss_end__+0x1ac3658>
 164:	67672d20 	strbvs	r2, [r7, -r0, lsr #26]!
 168:	2d206264 	sfmcs	f6, 4, [r0, #-400]!	; 0xfffffe70
 16c:	2d20334f 	stccs	3, cr3, [r0, #-316]!	; 0xfffffec4
 170:	3d647473 	cfstrdcc	mvd7, [r4, #-460]!	; 0xfffffe34
 174:	39756e67 	ldmdbcc	r5!, {r0, r1, r2, r5, r6, r9, sl, fp, sp, lr}^
 178:	662d2039 			; <UNDEFINED> instruction: 0x662d2039
 17c:	65657266 	strbvs	r7, [r5, #-614]!	; 0xfffffd9a
 180:	6e617473 	mcrvs	4, 3, r7, cr1, cr3, {3}
 184:	676e6964 	strbvs	r6, [lr, -r4, ror #18]!
 188:	632d3400 			; <UNDEFINED> instruction: 0x632d3400
 18c:	656c6379 	strbvs	r6, [ip, #-889]!	; 0xfffffc87
 190:	6c00632e 	stcvs	3, cr6, [r0], {46}	; 0x2e
 194:	20676e6f 	rsbcs	r6, r7, pc, ror #28
 198:	676e6f6c 	strbvs	r6, [lr, -ip, ror #30]!
 19c:	736e7520 	cmnvc	lr, #32, 10	; 0x8000000
 1a0:	656e6769 	strbvs	r6, [lr, #-1897]!	; 0xfffff897
 1a4:	6e692064 	cdpvs	0, 6, cr2, cr9, cr4, {3}
 1a8:	70670074 	rsbvc	r0, r7, r4, ror r0
 1ac:	6c5f6f69 	mrrcvs	15, 6, r6, pc, cr9	; <UNPREDICTABLE>
 1b0:	00307665 	eorseq	r7, r0, r5, ror #12
 1b4:	5f6f656e 	svcpl	0x006f656e
 1b8:	6f6c0074 	svcvs	0x006c0074
 1bc:	6c20676e 	stcvs	7, cr6, [r0], #-440	; 0xfffffe48
 1c0:	20676e6f 	rsbcs	r6, r7, pc, ror #28
 1c4:	00746e69 	rsbseq	r6, r4, r9, ror #28
 1c8:	5f697072 	svcpl	0x00697072
 1cc:	63747570 	cmnvs	r4, #112, 10	; 0x1c000000
 1d0:	00726168 	rsbseq	r6, r2, r8, ror #2
 1d4:	726f6873 	rsbvc	r6, pc, #7536640	; 0x730000
 1d8:	6e692074 	mcrvs	0, 3, r2, cr9, cr4, {3}
 1dc:	6e650074 	mcrvs	0, 3, r0, cr5, cr4, {3}
 1e0:	656c6261 	strbvs	r6, [ip, #-609]!	; 0xfffffd9f
 1e4:	6361635f 	cmnvs	r1, #2080374785	; 0x7c000001
 1e8:	77006568 	strvc	r6, [r0, -r8, ror #10]
 1ec:	65746972 	ldrbvs	r6, [r4, #-2418]!	; 0xfffff68e
 1f0:	7700305f 	smlsdvc	r0, pc, r0, r3	; <UNPREDICTABLE>
 1f4:	65746972 	ldrbvs	r6, [r4, #-2418]!	; 0xfffff68e
 1f8:	6e00315f 	mcrvs	1, 0, r3, cr0, cr15, {2}
 1fc:	705f6f65 	subsvc	r6, pc, r5, ror #30
 200:	6c657869 	stclvs	8, cr7, [r5], #-420	; 0xfffffe5c
 204:	756f5f00 	strbvc	r5, [pc, #-3840]!	; fffff30c <__bss_end__+0xffff4e24>
 208:	69750074 	ldmdbvs	r5!, {r2, r4, r5, r6}^
 20c:	5f38746e 	svcpl	0x0038746e
 210:	72740074 	rsbsvc	r0, r4, #116, 0	; 0x74
 214:	74657365 	strbtvc	r7, [r5], #-869	; 0xfffffc9b
 218:	6f656e00 	svcvs	0x00656e00
 21c:	5f786970 	svcpl	0x00786970
 220:	61656c63 	cmnvs	r5, r3, ror #24
 224:	69700072 	ldmdbvs	r0!, {r1, r4, r5, r6}^
 228:	65735f78 	ldrbvs	r5, [r3, #-3960]!	; 0xfffff088
 22c:	6962646e 	stmdbvs	r2!, {r1, r2, r3, r5, r6, sl, sp, lr}^
 230:	65640074 	strbvs	r0, [r4, #-116]!	; 0xffffff8c
 234:	5f79616c 	svcpl	0x0079616c
 238:	6379636e 	cmnvs	r9, #-1207959551	; 0xb8000001
 23c:	0073656c 	rsbseq	r6, r3, ip, ror #10
 240:	736d656d 	cmnvc	sp, #457179136	; 0x1b400000
 244:	6e007465 	cdpvs	4, 0, cr7, cr0, cr5, {3}
 248:	6379635f 	cmnvs	r9, #2080374785	; 0x7c000001
 24c:	78697000 	stmdavc	r9!, {ip, sp, lr}^
 250:	6e65735f 	mcrvs	3, 3, r7, cr5, cr15, {2}
 254:	74796264 	ldrbtvc	r6, [r9], #-612	; 0xfffffd9c
 258:	74730065 	ldrbtvc	r0, [r3], #-101	; 0xffffff9b
 25c:	5f747261 	svcpl	0x00747261
 260:	00637963 	rsbeq	r7, r3, r3, ror #18
 264:	746e6975 	strbtvc	r6, [lr], #-2421	; 0xfffff68b
 268:	745f3233 	ldrbvc	r3, [pc], #-563	; 270 <__code_start__-0x7d90>
 26c:	69706e00 	ldmdbvs	r0!, {r9, sl, fp, sp, lr}^
 270:	006c6578 	rsbeq	r6, ip, r8, ror r5
 274:	706f656e 	rsbvc	r6, pc, lr, ror #10
 278:	665f7869 	ldrbvs	r7, [pc], -r9, ror #16
 27c:	5f747361 	svcpl	0x00747361
 280:	61656c63 	cmnvs	r5, r3, ror #24
 284:	656e0072 	strbvs	r0, [lr, #-114]!	; 0xffffff8e
 288:	7869706f 	stmdavc	r9!, {r0, r1, r2, r3, r5, r6, ip, sp, lr}^
 28c:	632e6c65 			; <UNDEFINED> instruction: 0x632e6c65
 290:	69706700 	ldmdbvs	r0!, {r8, r9, sl, sp, lr}^
 294:	65735f6f 	ldrbvs	r5, [r3, #-3951]!	; 0xfffff091
 298:	6e6f5f74 	mcrvs	15, 3, r5, cr15, cr4, {3}
 29c:	7761725f 			; <UNDEFINED> instruction: 0x7761725f
 2a0:	616d6b00 	cmnvs	sp, r0, lsl #22
 2a4:	636f6c6c 	cmnvs	pc, #108, 24	; 0x6c00
 2a8:	69706700 	ldmdbvs	r0!, {r8, r9, sl, sp, lr}^
 2ac:	65735f6f 	ldrbvs	r5, [r3, #-3951]!	; 0xfffff091
 2b0:	666f5f74 	uqsub16vs	r5, pc, r4	; <UNPREDICTABLE>
 2b4:	61725f66 	cmnvs	r2, r6, ror #30
 2b8:	4c460077 	mcrrmi	0, 7, r0, r6, cr7
 2bc:	00485355 	subeq	r5, r8, r5, asr r3
 2c0:	706f656e 	rsbvc	r6, pc, lr, ror #10
 2c4:	735f7869 	cmpvc	pc, #6881280	; 0x690000
 2c8:	70646e65 	rsbvc	r6, r4, r5, ror #28
 2cc:	6c657869 	stclvs	8, cr7, [r5], #-420	; 0xfffffe5c
 2d0:	69706700 	ldmdbvs	r0!, {r8, r9, sl, sp, lr}^
 2d4:	72775f6f 	rsbsvc	r5, r7, #444	; 0x1bc
 2d8:	00657469 	rsbeq	r7, r5, r9, ror #8
 2dc:	4f495047 	svcmi	0x00495047
 2e0:	4e55465f 	mrcmi	6, 2, r4, cr5, cr15, {2}
 2e4:	554f5f43 	strbpl	r5, [pc, #-3907]	; fffff3a9 <__bss_end__+0xffff4ec1>
 2e8:	54555054 	ldrbpl	r5, [r5], #-84	; 0xffffffac
 2ec:	56454400 	strbpl	r4, [r5], -r0, lsl #8
 2f0:	4c41565f 	mcrrmi	6, 5, r5, r1, cr15
 2f4:	47003233 	smladxmi	r0, r3, r2, r3
 2f8:	4320554e 			; <UNDEFINED> instruction: 0x4320554e
 2fc:	31203939 			; <UNDEFINED> instruction: 0x31203939
 300:	2e322e31 	mrccs	14, 1, r2, cr2, cr1, {1}
 304:	30322031 	eorscc	r2, r2, r1, lsr r0
 308:	31303232 	teqcc	r0, r2, lsr r2
 30c:	2d203131 	stfcss	f3, [r0, #-196]!	; 0xffffff3c
 310:	7570636d 	ldrbvc	r6, [r0, #-877]!	; 0xfffffc93
 314:	6d72613d 	ldfvse	f6, [r2, #-244]!	; 0xffffff0c
 318:	36373131 			; <UNDEFINED> instruction: 0x36373131
 31c:	2d667a6a 	vstmdbcs	r6!, {s15-s120}
 320:	6d2d2073 	stcvs	0, cr2, [sp, #-460]!	; 0xfffffe34
 324:	656e7574 	strbvs	r7, [lr, #-1396]!	; 0xfffffa8c
 328:	6d72613d 	ldfvse	f6, [r2, #-244]!	; 0xffffff0c
 32c:	36373131 			; <UNDEFINED> instruction: 0x36373131
 330:	2d667a6a 	vstmdbcs	r6!, {s15-s120}
 334:	6d2d2073 	stcvs	0, cr2, [sp, #-460]!	; 0xfffffe34
 338:	616f6c66 	cmnvs	pc, r6, ror #24
 33c:	62612d74 	rsbvs	r2, r1, #116, 26	; 0x1d00
 340:	6f733d69 	svcvs	0x00733d69
 344:	2d207466 	cfstrscs	mvf7, [r0, #-408]!	; 0xfffffe68
 348:	6d72616d 	ldfvse	f6, [r2, #-436]!	; 0xfffffe4c
 34c:	616d2d20 	cmnvs	sp, r0, lsr #26
 350:	3d686372 	stclcc	3, cr6, [r8, #-456]!	; 0xfffffe38
 354:	766d7261 	strbtvc	r7, [sp], -r1, ror #4
 358:	207a6b36 	rsbscs	r6, sl, r6, lsr fp
 35c:	6467672d 	strbtvs	r6, [r7], #-1837	; 0xfffff8d3
 360:	4f2d2062 	svcmi	0x002d2062
 364:	74736166 	ldrbtvc	r6, [r3], #-358	; 0xfffffe9a
 368:	74732d20 	ldrbtvc	r2, [r3], #-3360	; 0xfffff2e0
 36c:	6e673d64 	cdpvs	13, 6, cr3, cr7, cr4, {3}
 370:	20393975 	eorscs	r3, r9, r5, ror r9
 374:	7266662d 	rsbvc	r6, r6, #47185920	; 0x2d00000
 378:	74736565 	ldrbtvc	r6, [r3], #-1381	; 0xfffffa9b
 37c:	69646e61 	stmdbvs	r4!, {r0, r5, r6, r9, sl, fp, sp, lr}^
 380:	5000676e 	andpl	r6, r0, lr, ror #14
 384:	32335455 	eorscc	r5, r3, #1426063360	; 0x55000000
 388:	69706700 	ldmdbvs	r0!, {r8, r9, sl, sp, lr}^
 38c:	65725f6f 	ldrbvs	r5, [r2, #-3951]!	; 0xfffff091
 390:	47006461 	strmi	r6, [r0, -r1, ror #8]
 394:	32335445 	eorscc	r5, r3, #1157627904	; 0x45000000
 398:	49504700 	ldmdbmi	r0, {r8, r9, sl, lr}^
 39c:	55465f4f 	strbpl	r5, [r6, #-3919]	; 0xfffff0b1
 3a0:	415f434e 	cmpmi	pc, lr, asr #6
 3a4:	0030544c 	eorseq	r5, r0, ip, asr #8
 3a8:	4f495047 	svcmi	0x00495047
 3ac:	4e55465f 	mrcmi	6, 2, r4, cr5, cr15, {2}
 3b0:	4c415f43 	mcrrmi	15, 4, r5, r1, cr3
 3b4:	47003154 	smlsdmi	r0, r4, r1, r3
 3b8:	5f4f4950 	svcpl	0x004f4950
 3bc:	434e5546 	movtmi	r5, #58694	; 0xe546
 3c0:	544c415f 	strbpl	r4, [ip], #-351	; 0xfffffea1
 3c4:	50470032 	subpl	r0, r7, r2, lsr r0
 3c8:	465f4f49 	ldrbmi	r4, [pc], -r9, asr #30
 3cc:	5f434e55 	svcpl	0x00434e55
 3d0:	33544c41 	cmpcc	r4, #16640	; 0x4100
 3d4:	49504700 	ldmdbmi	r0, {r8, r9, sl, lr}^
 3d8:	55465f4f 	strbpl	r5, [r6, #-3919]	; 0xfffff0b1
 3dc:	415f434e 	cmpmi	pc, lr, asr #6
 3e0:	0035544c 	eorseq	r5, r5, ip, asr #8
 3e4:	72732f2e 	rsbsvc	r2, r3, #184	; 0xb8
 3e8:	70672f63 	rsbvc	r2, r7, r3, ror #30
 3ec:	632e6f69 			; <UNDEFINED> instruction: 0x632e6f69
 3f0:	69706700 	ldmdbvs	r0!, {r8, r9, sl, sp, lr}^
 3f4:	65735f6f 	ldrbvs	r5, [r3, #-3951]!	; 0xfffff091
 3f8:	6e695f74 	mcrvs	15, 3, r5, cr9, cr4, {3}
 3fc:	00747570 	rsbseq	r7, r4, r0, ror r5
 400:	6f697067 	svcvs	0x00697067
 404:	7465735f 	strbtvc	r7, [r5], #-863	; 0xfffffca1
 408:	66666f5f 	uqsaxvs	r6, r6, pc	; <UNPREDICTABLE>
 40c:	6e756600 	cdpvs	6, 7, cr6, cr5, cr0, {0}
 410:	70670063 	rsbvc	r0, r7, r3, rrx
 414:	665f6f69 	ldrbvs	r6, [pc], -r9, ror #30
 418:	5f636e75 	svcpl	0x00636e75
 41c:	50470074 	subpl	r0, r7, r4, ror r0
 420:	465f4f49 	ldrbmi	r4, [pc], -r9, asr #30
 424:	5f434e55 	svcpl	0x00434e55
 428:	34544c41 	ldrbcc	r4, [r4], #-3137	; 0xfffff3bf
 42c:	73552f00 	cmpvc	r5, #0, 30
 430:	2f737265 	svccs	0x00737265
 434:	656c696d 	strbvs	r6, [ip, #-2413]!	; 0xfffff693
 438:	6f532f73 	svcvs	0x00532f73
 43c:	65637275 	strbvs	r7, [r3, #-629]!	; 0xfffffd8b
 440:	3273632f 	rsbscc	r6, r3, #-1140850688	; 0xbc000000
 444:	786c3034 	stmdavc	ip!, {r2, r4, r5, ip, sp}^
 448:	62696c2f 	rsbvs	r6, r9, #12032	; 0x2f00
 44c:	62006970 	andvs	r6, r0, #112, 18	; 0x1c0000
 450:	006b6e61 	rsbeq	r6, fp, r1, ror #28
 454:	4f495047 	svcmi	0x00495047
 458:	4e55465f 	mrcmi	6, 2, r4, cr5, cr15, {2}
 45c:	4e495f43 	cdpmi	15, 4, cr5, cr9, cr3, {2}
 460:	00545550 	subseq	r5, r4, r0, asr r5
 464:	6f697067 	svcvs	0x00697067
 468:	7465735f 	strbtvc	r7, [r5], #-863	; 0xfffffca1
 46c:	6e75665f 	mrcvs	6, 3, r6, cr5, cr15, {2}
 470:	6f697463 	svcvs	0x00697463
 474:	7067006e 	rsbvc	r0, r7, lr, rrx
 478:	735f6f69 	cmpvc	pc, #420	; 0x1a4
 47c:	6f5f7465 	svcvs	0x005f7465
 480:	6973006e 	ldmdbvs	r3!, {r1, r2, r3, r5, r6}^
 484:	745f657a 	ldrbvc	r6, [pc], #-1402	; 48c <__code_start__-0x7b74>
 488:	6c2f2e00 	stcvs	14, cr2, [pc], #-0	; 490 <__code_start__-0x7b70>
 48c:	2f636269 	svccs	0x00636269
 490:	736d656d 	cmnvc	sp, #457179136	; 0x1b400000
 494:	632e7465 			; <UNDEFINED> instruction: 0x632e7465
 498:	554e4700 	strbpl	r4, [lr, #-1792]	; 0xfffff900
 49c:	39394320 	ldmdbcc	r9!, {r5, r8, r9, lr}
 4a0:	322e3920 	eorcc	r3, lr, #32, 18	; 0x80000
 4a4:	3220312e 	eorcc	r3, r0, #-2147483637	; 0x8000000b
 4a8:	31393130 	teqcc	r9, r0, lsr r1
 4ac:	20353230 	eorscs	r3, r5, r0, lsr r2
 4b0:	6c657228 	sfmvs	f7, 2, [r5], #-160	; 0xffffff60
 4b4:	65736165 	ldrbvs	r6, [r3, #-357]!	; 0xfffffe9b
 4b8:	415b2029 	cmpmi	fp, r9, lsr #32
 4bc:	612f4d52 			; <UNDEFINED> instruction: 0x612f4d52
 4c0:	392d6d72 	pushcc	{r1, r4, r5, r6, r8, sl, fp, sp, lr}
 4c4:	6172622d 	cmnvs	r2, sp, lsr #4
 4c8:	2068636e 	rsbcs	r6, r8, lr, ror #6
 4cc:	69766572 	ldmdbvs	r6!, {r1, r4, r5, r6, r8, sl, sp, lr}^
 4d0:	6e6f6973 			; <UNDEFINED> instruction: 0x6e6f6973
 4d4:	37373220 	ldrcc	r3, [r7, -r0, lsr #4]!
 4d8:	5d393935 			; <UNDEFINED> instruction: 0x5d393935
 4dc:	636d2d20 	cmnvs	sp, #32, 26	; 0x800
 4e0:	613d7570 	teqvs	sp, r0, ror r5
 4e4:	31316d72 	teqcc	r1, r2, ror sp
 4e8:	7a6a3637 	bvc	1a8ddcc <__bss_end__+0x1a838e4>
 4ec:	20732d66 	rsbscs	r2, r3, r6, ror #26
 4f0:	75746d2d 	ldrbvc	r6, [r4, #-3373]!	; 0xfffff2d3
 4f4:	613d656e 	teqvs	sp, lr, ror #10
 4f8:	31316d72 	teqcc	r1, r2, ror sp
 4fc:	7a6a3637 	bvc	1a8dde0 <__bss_end__+0x1a838f8>
 500:	20732d66 	rsbscs	r2, r3, r6, ror #26
 504:	6c666d2d 	stclvs	13, cr6, [r6], #-180	; 0xffffff4c
 508:	2d74616f 	ldfcse	f6, [r4, #-444]!	; 0xfffffe44
 50c:	3d696261 	sfmcc	f6, 2, [r9, #-388]!	; 0xfffffe7c
 510:	74666f73 	strbtvc	r6, [r6], #-3955	; 0xfffff08d
 514:	616d2d20 	cmnvs	sp, r0, lsr #26
 518:	2d206d72 	stccs	13, cr6, [r0, #-456]!	; 0xfffffe38
 51c:	6372616d 	cmnvs	r2, #1073741851	; 0x4000001b
 520:	72613d68 	rsbvc	r3, r1, #104, 26	; 0x1a00
 524:	6b36766d 	blvs	d9dee0 <__bss_end__+0xd939f8>
 528:	672d207a 			; <UNDEFINED> instruction: 0x672d207a
 52c:	20626467 	rsbcs	r6, r2, r7, ror #8
 530:	61664f2d 	cmnvs	r6, sp, lsr #30
 534:	2d207473 	cfstrscs	mvf7, [r0, #-460]!	; 0xfffffe34
 538:	3d647473 	cfstrdcc	mvd7, [r4, #-460]!	; 0xfffffe34
 53c:	39756e67 	ldmdbcc	r5!, {r0, r1, r2, r5, r6, r9, sl, fp, sp, lr}^
 540:	662d2039 			; <UNDEFINED> instruction: 0x662d2039
 544:	65657266 	strbvs	r7, [r5, #-614]!	; 0xfffffd9a
 548:	6e617473 	mcrvs	4, 3, r7, cr1, cr3, {3}
 54c:	676e6964 	strbvs	r6, [lr, -r4, ror #18]!
 550:	67726100 	ldrbvs	r6, [r2, -r0, lsl #2]!
 554:	61760073 	cmnvs	r6, r3, ror r0
 558:	6972705f 	ldmdbvs	r2!, {r0, r1, r2, r3, r4, r6, ip, sp, lr}^
 55c:	006b746e 	rsbeq	r7, fp, lr, ror #8
 560:	6e675f5f 	mcrvs	15, 3, r5, cr7, cr15, {2}
 564:	765f6375 			; <UNDEFINED> instruction: 0x765f6375
 568:	696c5f61 	stmdbvs	ip!, {r0, r5, r6, r8, r9, sl, fp, ip, lr}^
 56c:	5f007473 	svcpl	0x00007473
 570:	0070615f 	rsbseq	r6, r0, pc, asr r1
 574:	696c2f2e 	stmdbvs	ip!, {r1, r2, r3, r5, r8, r9, sl, fp, sp}^
 578:	702f6362 	eorvc	r6, pc, r2, ror #6
 57c:	746e6972 	strbtvc	r6, [lr], #-2418	; 0xfffff68e
 580:	00632e6b 	rsbeq	r2, r3, fp, ror #28
 584:	61765f5f 	cmnvs	r6, pc, asr pc
 588:	73696c5f 	cmnvc	r9, #24320	; 0x5f00
 58c:	6e690074 	mcrvs	0, 3, r0, cr9, cr4, {3}
 590:	6e726574 	mrcvs	5, 3, r6, cr2, cr4, {3}
 594:	705f6c61 	subsvc	r6, pc, r1, ror #24
 598:	006b7475 	rsbeq	r7, fp, r5, ror r4
 59c:	696c2f2e 	stmdbvs	ip!, {r1, r2, r3, r5, r8, r9, sl, fp, sp}^
 5a0:	702f6362 	eorvc	r6, pc, r2, ror #6
 5a4:	2e6b7475 	mcrcs	4, 3, r7, cr11, cr5, {3}
 5a8:	73690063 	cmnvc	r9, #99, 0	; 0x63
 5ac:	69676964 	stmdbvs	r7!, {r2, r5, r6, r8, fp, sp, lr}^
 5b0:	69750074 	ldmdbvs	r5!, {r2, r4, r5, r6}^
 5b4:	3436746e 	ldrtcc	r7, [r6], #-1134	; 0xfffffb92
 5b8:	2e00745f 	cfmvsrcs	mvf0, r7
 5bc:	62696c2f 	rsbvs	r6, r9, #12032	; 0x2f00
 5c0:	61762f63 	cmnvs	r6, r3, ror #30
 5c4:	6972702d 	ldmdbvs	r2!, {r0, r2, r3, r5, ip, sp, lr}^
 5c8:	2e6b746e 	cdpcs	4, 6, cr7, cr11, cr14, {3}
 5cc:	5f5f0063 	svcpl	0x005f0063
 5d0:	65646f63 	strbvs	r6, [r4, #-3939]!	; 0xfffff09d
 5d4:	6174735f 	cmnvs	r4, pc, asr r3
 5d8:	5f5f7472 	svcpl	0x005f7472
 5dc:	625f5f00 	subsvs	r5, pc, #0, 30
 5e0:	735f7373 	cmpvc	pc, #-872415231	; 0xcc000001
 5e4:	74726174 	ldrbtvc	r6, [r2], #-372	; 0xfffffe8c
 5e8:	77005f5f 	smlsdvc	r0, pc, pc, r5	; <UNPREDICTABLE>
 5ec:	68746469 	ldmdavs	r4!, {r0, r3, r5, r6, sl, sp, lr}^
 5f0:	465f5f00 	ldrbmi	r5, [pc], -r0, lsl #30
 5f4:	54434e55 	strbpl	r4, [r3], #-3669	; 0xfffff1ab
 5f8:	5f4e4f49 	svcpl	0x004e4f49
 5fc:	6c63005f 	stclvs	0, cr0, [r3], #-380	; 0xfffffe84
 600:	5f6e6165 	svcpl	0x006e6165
 604:	6f626572 	svcvs	0x00626572
 608:	5f00746f 	svcpl	0x0000746f
 60c:	7461645f 	strbtvc	r6, [r1], #-1119	; 0xfffffba1
 610:	6e655f61 	cdpvs	15, 6, cr5, cr5, cr1, {3}
 614:	005f5f64 	subseq	r5, pc, r4, ror #30
 618:	63747570 	cmnvs	r4, #112, 10	; 0x1c000000
 61c:	0070665f 	rsbseq	r6, r0, pc, asr r6
 620:	73625f5f 	cmnvc	r2, #380	; 0x17c
 624:	6e655f73 	mcrvs	15, 3, r5, cr5, cr3, {3}
 628:	005f5f64 	subseq	r5, pc, r4, ror #30
 62c:	65685f5f 	strbvs	r5, [r8, #-3935]!	; 0xfffff0a1
 630:	735f7061 	cmpvc	pc, #97, 0	; 0x61
 634:	74726174 	ldrbtvc	r6, [r2], #-372	; 0xfffffe8c
 638:	72005f5f 	andvc	r5, r0, #380	; 0x17c
 63c:	735f6970 	cmpvc	pc, #112, 18	; 0x1c0000
 640:	6f5f7465 	svcvs	0x005f7465
 644:	75707475 	ldrbvc	r7, [r0, #-1141]!	; 0xfffffb8b
 648:	6d660074 	stclvs	0, cr0, [r6, #-464]!	; 0xfffffe30
 64c:	74735f74 	ldrbtvc	r5, [r3], #-3956	; 0xfffff08c
 650:	00747261 	rsbseq	r7, r4, r1, ror #4
 654:	63727473 	cmnvs	r2, #1929379840	; 0x73000000
 658:	73007461 	movwvc	r7, #1121	; 0x461
 65c:	70637274 	rsbvc	r7, r3, r4, ror r2
 660:	656e0079 	strbvs	r0, [lr, #-121]!	; 0xffffff87
 664:	00705f67 	rsbseq	r5, r0, r7, ror #30
 668:	6f635f5f 	svcvs	0x00635f5f
 66c:	655f6564 	ldrbvs	r6, [pc, #-1380]	; 110 <__code_start__-0x7ef0>
 670:	5f5f646e 	svcpl	0x005f646e
 674:	696d6500 	stmdbvs	sp!, {r8, sl, sp, lr}^
 678:	65720074 	ldrbvs	r0, [r2, #-116]!	; 0xffffff8c
 67c:	73726576 	cmnvc	r2, #494927872	; 0x1d800000
 680:	74730065 	ldrbtvc	r0, [r3], #-101	; 0xffffff9b
 684:	706d6372 	rsbvc	r6, sp, r2, ror r3
 688:	74757000 	ldrbtvc	r7, [r5], #-0
 68c:	70665f73 	rsbvc	r5, r6, r3, ror pc
 690:	645f5f00 	ldrbvs	r5, [pc], #-3840	; 698 <__code_start__-0x7968>
 694:	5f617461 	svcpl	0x00617461
 698:	72617473 	rsbvc	r7, r1, #1929379840	; 0x73000000
 69c:	005f5f74 	subseq	r5, pc, r4, ror pc	; <UNPREDICTABLE>
 6a0:	72705f5f 	rsbsvc	r5, r0, #380	; 0x17c
 6a4:	655f676f 	ldrbvs	r6, [pc, #-1903]	; ffffff3d <__bss_end__+0xffff5a55>
 6a8:	5f5f646e 	svcpl	0x005f646e
 6ac:	6d756e00 	ldclvs	14, cr6, [r5, #-0]
 6b0:	74730031 	ldrbtvc	r0, [r3], #-49	; 0xffffffcf
 6b4:	6d636e72 	stclvs	14, cr6, [r3, #-456]!	; 0xfffffe38
 6b8:	61620070 	smcvs	8192	; 0x2000
 6bc:	73006573 	movwvc	r6, #1395	; 0x573
 6c0:	656e6769 	strbvs	r6, [lr, #-1897]!	; 0xfffff897
 6c4:	00705f64 	rsbseq	r5, r0, r4, ror #30
 6c8:	61736964 	cmnvs	r3, r4, ror #18
 6cc:	5f656c62 	svcpl	0x00656c62
 6d0:	68636163 	stmdavs	r3!, {r0, r1, r5, r6, r8, sp, lr}^
 6d4:	2f2e0065 	svccs	0x002e0065
 6d8:	66617473 			; <UNDEFINED> instruction: 0x66617473
 6dc:	72732d66 	rsbsvc	r2, r3, #6528	; 0x1980
 6e0:	61632f63 	cmnvs	r3, r3, ror #30
 6e4:	2e656863 	cdpcs	8, 6, cr6, cr5, cr3, {3}
 6e8:	70720063 	rsbsvc	r0, r2, r3, rrx
 6ec:	65725f69 	ldrbvs	r5, [r2, #-3945]!	; 0xfffff097
 6f0:	746f6f62 	strbtvc	r6, [pc], #-3938	; 6f8 <__code_start__-0x7908>
 6f4:	732f2e00 			; <UNDEFINED> instruction: 0x732f2e00
 6f8:	66666174 			; <UNDEFINED> instruction: 0x66666174
 6fc:	6372732d 	cmnvs	r2, #-1275068416	; 0xb4000000
 700:	656c632f 	strbvs	r6, [ip, #-815]!	; 0xfffffcd1
 704:	722d6e61 	eorvc	r6, sp, #1552	; 0x610
 708:	6f6f6265 	svcvs	0x006f6265
 70c:	00632e74 	rsbeq	r2, r3, r4, ror lr
 710:	74726175 	ldrbtvc	r6, [r2], #-373	; 0xfffffe8b
 714:	756c665f 	strbvc	r6, [ip, #-1631]!	; 0xfffff9a1
 718:	745f6873 	ldrbvc	r6, [pc], #-2163	; 720 <__code_start__-0x78e0>
 71c:	635f0078 	cmpvs	pc, #120, 0	; 0x78
 720:	72617473 	rsbvc	r7, r1, #1929379840	; 0x73000000
 724:	73620074 	cmnvc	r2, #116, 0	; 0x74
 728:	6e655f73 	mcrvs	15, 3, r5, cr5, cr3, {3}
 72c:	61750064 	cmnvs	r5, r4, rrx
 730:	695f7472 	ldmdbvs	pc, {r1, r4, r5, r6, sl, ip, sp, lr}^	; <UNPREDICTABLE>
 734:	0074696e 	rsbseq	r6, r4, lr, ror #18
 738:	74737563 	ldrbtvc	r7, [r3], #-1379	; 0xfffffa9d
 73c:	6c5f6d6f 	mrrcvs	13, 6, r6, pc, cr15	; <UNPREDICTABLE>
 740:	6564616f 	strbvs	r6, [r4, #-367]!	; 0xfffffe91
 744:	2f2e0072 	svccs	0x002e0072
 748:	66617473 			; <UNDEFINED> instruction: 0x66617473
 74c:	72732d66 	rsbsvc	r2, r3, #6528	; 0x1980
 750:	73632f63 	cmnvc	r3, #396	; 0x18c
 754:	74726174 	ldrbtvc	r6, [r2], #-372	; 0xfffffe8c
 758:	2e00632e 	cdpcs	3, 0, cr6, cr0, cr14, {1}
 75c:	6174732f 	cmnvs	r4, pc, lsr #6
 760:	732d6666 			; <UNDEFINED> instruction: 0x732d6666
 764:	632f6372 			; <UNDEFINED> instruction: 0x632f6372
 768:	6f747375 	svcvs	0x00747375
 76c:	6f6c2d6d 	svcvs	0x006c2d6d
 770:	72656461 	rsbvc	r6, r5, #1627389952	; 0x61000000
 774:	7200632e 	andvc	r6, r0, #-1207959552	; 0xb8000000
 778:	6f6f6265 	svcvs	0x006f6265
 77c:	61635f74 	smcvs	13812	; 0x35f4
 780:	756f6c6c 	strbvc	r6, [pc, #-3180]!	; fffffb1c <__bss_end__+0xffff5634>
 784:	4d500074 	ldclmi	0, cr0, [r0, #-464]	; 0xfffffe30
 788:	4f44575f 	svcmi	0x0044575f
 78c:	65730047 	ldrbvs	r0, [r3, #-71]!	; 0xffffffb9
 790:	73755f74 	cmnvc	r5, #116, 30	; 0x1d0
 794:	6c5f7265 	lfmvs	f7, 2, [pc], {101}	; 0x65
 798:	6c657665 	stclvs	6, cr7, [r5], #-404	; 0xfffffe6c
 79c:	732f2e00 			; <UNDEFINED> instruction: 0x732f2e00
 7a0:	66666174 			; <UNDEFINED> instruction: 0x66666174
 7a4:	6372732d 	cmnvs	r2, #-1275068416	; 0xb4000000
 7a8:	6265722f 	rsbvs	r7, r5, #-268435454	; 0xf0000002
 7ac:	2e746f6f 	cdpcs	15, 7, cr6, cr4, cr15, {3}
 7b0:	4d500063 	ldclmi	0, cr0, [r0, #-396]	; 0xfffffe74
 7b4:	5341505f 	movtpl	r5, #4191	; 0x105f
 7b8:	524f5753 	subpl	r5, pc, #21757952	; 0x14c0000
 7bc:	74610044 	strbtvc	r0, [r1], #-68	; 0xffffffbc
 7c0:	6573755f 	ldrbvs	r7, [r3, #-1375]!	; 0xfffffaa1
 7c4:	656c5f72 	strbvs	r5, [ip, #-3954]!	; 0xfffff08e
 7c8:	006c6576 	rsbeq	r6, ip, r6, ror r5
 7cc:	525f4d50 	subspl	r4, pc, #80, 26	; 0x1400
 7d0:	5f435453 	svcpl	0x00435453
 7d4:	46435257 			; <UNDEFINED> instruction: 0x46435257
 7d8:	55465f47 	strbpl	r5, [r6, #-3911]	; 0xfffff0b9
 7dc:	525f4c4c 	subspl	r4, pc, #76, 24	; 0x4c00
 7e0:	54455345 	strbpl	r5, [r5], #-837	; 0xfffffcbb
 7e4:	5f4d5000 	svcpl	0x004d5000
 7e8:	43545352 	cmpmi	r4, #1207959553	; 0x48000001
 7ec:	73706300 	cmnvc	r0, #0, 6
 7f0:	65640072 	strbvs	r0, [r4, #-114]!	; 0xffffff8e
 7f4:	61625f76 	smcvs	9718	; 0x25f6
 7f8:	65697272 	strbvs	r7, [r9, #-626]!	; 0xfffffd8e
 7fc:	65640072 	strbvs	r0, [r4, #-114]!	; 0xffffff8e
 800:	5f79616c 	svcpl	0x0079616c
 804:	00636573 	rsbeq	r6, r3, r3, ror r5
 808:	74732f2e 	ldrbtvc	r2, [r3], #-3886	; 0xfffff0d2
 80c:	2d666661 	stclcs	6, cr6, [r6, #-388]!	; 0xfffffe7c
 810:	2f637273 	svccs	0x00637273
 814:	656d6974 	strbvs	r6, [sp, #-2420]!	; 0xfffff68c
 818:	00632e72 	rsbeq	r2, r3, r2, ror lr
 81c:	656d6974 	strbvs	r6, [sp, #-2420]!	; 0xfffff68c
 820:	65675f72 	strbvs	r5, [r7, #-3954]!	; 0xfffff08e
 824:	73755f74 	cmnvc	r5, #116, 30	; 0x1d0
 828:	64006365 	strvs	r6, [r0], #-869	; 0xfffffc9b
 82c:	79616c65 	stmdbvc	r1!, {r0, r2, r5, r6, sl, fp, sp, lr}^
 830:	0073755f 	rsbseq	r7, r3, pc, asr r5
 834:	656d6974 	strbvs	r6, [sp, #-2420]!	; 0xfffff68c
 838:	65675f72 	strbvs	r5, [r7, #-3954]!	; 0xfffff08e
 83c:	73755f74 	cmnvc	r5, #116, 30	; 0x1d0
 840:	725f6365 	subsvc	r6, pc, #-1811939327	; 0x94000001
 844:	62007761 	andvs	r7, r0, #25427968	; 0x1840000
 848:	5f647561 	svcpl	0x00647561
 84c:	006c6176 	rsbeq	r6, ip, r6, ror r1
 850:	74617473 	strbtvc	r7, [r1], #-1139	; 0xfffffb8d
 854:	72617500 	rsbvc	r7, r1, #0, 10
 858:	61635f74 	smcvs	13812	; 0x35f4
 85c:	65675f6e 	strbvs	r5, [r7, #-3950]!	; 0xfffff092
 860:	75006374 	strvc	r6, [r0, #-884]	; 0xfffffc8c
 864:	2e747261 	cdpcs	2, 7, cr7, cr4, cr1, {3}
 868:	61750063 	cmnvs	r5, r3, rrx
 86c:	635f7472 	cmpvs	pc, #1912602624	; 0x72000000
 870:	705f6e61 	subsvc	r6, pc, r1, ror #28
 874:	00637475 	rsbeq	r7, r3, r5, ror r4
 878:	74726175 	ldrbtvc	r6, [r2], #-373	; 0xfffffe8b
 87c:	72617500 	rsbvc	r7, r1, #0, 10
 880:	78745f74 	ldmdavc	r4!, {r2, r4, r5, r6, r8, r9, sl, fp, ip, lr}^
 884:	5f73695f 	svcpl	0x0073695f
 888:	74706d65 	ldrbtvc	r6, [r0], #-3429	; 0xfffff29b
 88c:	75700079 	ldrbvc	r0, [r0, #-121]!	; 0xffffff87
 890:	00323374 	eorseq	r3, r2, r4, ror r3
 894:	64756162 	ldrbtvs	r6, [r5], #-354	; 0xfffffe9e
 898:	78756100 	ldmdavc	r5!, {r8, sp, lr}^
 89c:	616e655f 	cmnvs	lr, pc, asr r5
 8a0:	73656c62 	cmnvc	r5, #25088	; 0x6200
 8a4:	72617500 	rsbvc	r7, r1, #0, 10
 8a8:	65675f74 	strbvs	r5, [r7, #-3956]!	; 0xfffff08c
 8ac:	47006374 	smlsdxmi	r0, r4, r3, r6
 8b0:	4320554e 			; <UNDEFINED> instruction: 0x4320554e
 8b4:	31203939 			; <UNDEFINED> instruction: 0x31203939
 8b8:	2e332e30 	mrccs	14, 1, r2, cr3, cr0, {1}
 8bc:	30322031 	eorscc	r2, r2, r1, lsr r0
 8c0:	38303132 	ldmdacc	r0!, {r1, r4, r5, r8, ip, sp}
 8c4:	28203432 	stmdacs	r0!, {r1, r4, r5, sl, ip, sp}
 8c8:	656c6572 	strbvs	r6, [ip, #-1394]!	; 0xfffffa8e
 8cc:	29657361 	stmdbcs	r5!, {r0, r5, r6, r8, r9, ip, sp, lr}^
 8d0:	636d2d20 	cmnvs	sp, #32, 26	; 0x800
 8d4:	613d7570 	teqvs	sp, r0, ror r5
 8d8:	31316d72 	teqcc	r1, r2, ror sp
 8dc:	7a6a3637 	bvc	1a8e1c0 <__bss_end__+0x1a83cd8>
 8e0:	20732d66 	rsbscs	r2, r3, r6, ror #26
 8e4:	75746d2d 	ldrbvc	r6, [r4, #-3373]!	; 0xfffff2d3
 8e8:	613d656e 	teqvs	sp, lr, ror #10
 8ec:	31316d72 	teqcc	r1, r2, ror sp
 8f0:	7a6a3637 	bvc	1a8e1d4 <__bss_end__+0x1a83cec>
 8f4:	20732d66 	rsbscs	r2, r3, r6, ror #26
 8f8:	6c666d2d 	stclvs	13, cr6, [r6], #-180	; 0xffffff4c
 8fc:	2d74616f 	ldfcse	f6, [r4, #-444]!	; 0xfffffe44
 900:	3d696261 	sfmcc	f6, 2, [r9, #-388]!	; 0xfffffe7c
 904:	74666f73 	strbtvc	r6, [r6], #-3955	; 0xfffff08d
 908:	616d2d20 	cmnvs	sp, r0, lsr #26
 90c:	2d206d72 	stccs	13, cr6, [r0, #-456]!	; 0xfffffe38
 910:	6372616d 	cmnvs	r2, #1073741851	; 0x4000001b
 914:	72613d68 	rsbvc	r3, r1, #104, 26	; 0x1a00
 918:	6b36766d 	blvs	d9e2d4 <__bss_end__+0xd93dec>
 91c:	672d207a 			; <UNDEFINED> instruction: 0x672d207a
 920:	20626467 	rsbcs	r6, r2, r7, ror #8
 924:	20674f2d 	rsbcs	r4, r7, sp, lsr #30
 928:	6474732d 	ldrbtvs	r7, [r4], #-813	; 0xfffffcd3
 92c:	756e673d 	strbvc	r6, [lr, #-1853]!	; 0xfffff8c3
 930:	2d203939 			; <UNDEFINED> instruction: 0x2d203939
 934:	65726666 	ldrbvs	r6, [r2, #-1638]!	; 0xfffff99a
 938:	61747365 	cmnvs	r4, r5, ror #6
 93c:	6e69646e 	cdpvs	4, 6, cr6, cr9, cr14, {3}
 940:	6e630067 	cdpvs	0, 6, cr0, cr3, cr7, {3}
 944:	75006c74 	strvc	r6, [r0, #-3188]	; 0xfffff38c
 948:	5f747261 	svcpl	0x00747261
 94c:	61736964 	cmnvs	r3, r4, ror #18
 950:	00656c62 	rsbeq	r6, r5, r2, ror #24
 954:	74726175 	ldrbtvc	r6, [r2], #-373	; 0xfffffe8b
 958:	7361685f 	cmnvc	r1, #6225920	; 0x5f0000
 95c:	7461645f 	strbtvc	r6, [r1], #-1119	; 0xfffffba1
 960:	726f0061 	rsbvc	r0, pc, #97, 0	; 0x61
 964:	336e695f 	cmncc	lr, #1556480	; 0x17c000
 968:	63730032 	cmnvs	r3, #50, 0	; 0x32
 96c:	63746172 	cmnvs	r4, #-2147483620	; 0x8000001c
 970:	75610068 	strbvc	r0, [r1, #-104]!	; 0xffffff98
 974:	65705f78 	ldrbvs	r5, [r0, #-3960]!	; 0xfffff088
 978:	68706972 	ldmdavs	r0!, {r1, r4, r5, r6, r8, fp, sp, lr}^
 97c:	682f0073 	stmdavs	pc!, {r0, r1, r4, r5, r6}	; <UNPREDICTABLE>
 980:	2f656d6f 	svccs	0x00656d6f
 984:	6c676e65 	stclvs	14, cr6, [r7], #-404	; 0xfffffe6c
 988:	632f7265 			; <UNDEFINED> instruction: 0x632f7265
 98c:	7373616c 	cmnvc	r3, #27
 990:	3173632f 	cmncc	r3, pc, lsr #6
 994:	2d653034 	stclcs	0, cr3, [r5, #-208]!	; 0xffffff30
 998:	69773232 	ldmdbvs	r7!, {r1, r4, r5, r9, ip, sp}^
 99c:	696c2f6e 	stmdbvs	ip!, {r1, r2, r3, r5, r6, r8, r9, sl, fp, sp}^
 9a0:	2f697062 	svccs	0x00697062
 9a4:	66617473 			; <UNDEFINED> instruction: 0x66617473
 9a8:	72702d66 	rsbsvc	r2, r0, #6528	; 0x1980
 9ac:	74617669 	strbtvc	r7, [r1], #-1641	; 0xfffff997
 9b0:	6e610065 	cdpvs	0, 6, cr0, cr1, cr5, {3}
 9b4:	6e695f64 	cdpvs	15, 6, cr5, cr9, cr4, {3}
 9b8:	75003233 	strvc	r3, [r0, #-563]	; 0xfffffdcd
 9bc:	5f747261 	svcpl	0x00747261
 9c0:	63747570 	cmnvs	r4, #112, 10	; 0x1c000000
 9c4:	74656700 	strbtvc	r6, [r5], #-1792	; 0xfffff900
 9c8:	6b003233 	blvs	d29c <__bss_end__+0x2db4>
 9cc:	6c6c616d 	stfvse	f6, [ip], #-436	; 0xfffffe4c
 9d0:	685f636f 	ldmdavs	pc, {r0, r1, r2, r3, r5, r6, r8, r9, sp, lr}^	; <UNPREDICTABLE>
 9d4:	5f706165 	svcpl	0x00706165
 9d8:	72617473 	rsbvc	r7, r1, #1929379840	; 0x73000000
 9dc:	616d0074 	smcvs	53252	; 0xd004
 9e0:	626e5f78 	rsbvs	r5, lr, #120, 30	; 0x1e0
 9e4:	73657479 	cmnvc	r5, #2030043136	; 0x79000000
 9e8:	64615f00 	strbtvs	r5, [r1], #-3840	; 0xfffff100
 9ec:	6b007264 	blvs	1d384 <__bss_end__+0x12e9c>
 9f0:	65657266 	strbvs	r7, [r5, #-614]!	; 0xfffffd9a
 9f4:	61656800 	cmnvs	r5, r0, lsl #16
 9f8:	616d5f70 	smcvs	54768	; 0xd5f0
 9fc:	666b0078 			; <UNDEFINED> instruction: 0x666b0078
 a00:	5f656572 	svcpl	0x00656572
 a04:	006c6c61 	rsbeq	r6, ip, r1, ror #24
 a08:	6e756f72 	mrcvs	15, 3, r6, cr5, cr2, {3}
 a0c:	00707564 	rsbseq	r7, r0, r4, ror #10
 a10:	6c616d6b 	stclvs	13, cr6, [r1], #-428	; 0xfffffe54
 a14:	5f636f6c 	svcpl	0x00636f6c
 a18:	70616568 	rsbvc	r6, r1, r8, ror #10
 a1c:	646e655f 	strbtvs	r6, [lr], #-1375	; 0xfffffaa1
 a20:	61656800 	cmnvs	r5, r0, lsl #16
 a24:	6e690070 	mcrvs	0, 3, r0, cr9, cr0, {3}
 a28:	705f7469 	subsvc	r7, pc, r9, ror #8
 a2c:	72666b00 	rsbvc	r6, r6, #0, 22
 a30:	705f6565 	subsvc	r6, pc, r5, ror #10
 a34:	6100706f 	tstvs	r0, pc, rrx
 a38:	6e67696c 	vnmulvs.f16	s13, s14, s25	; <UNPREDICTABLE>
 a3c:	746e656d 	strbtvc	r6, [lr], #-1389	; 0xfffffa93
 a40:	78616d00 	stmdavc	r1!, {r8, sl, fp, sp, lr}^
 a44:	3233755f 	eorscc	r7, r3, #398458880	; 0x17c00000
 a48:	656e4f00 	strbvs	r4, [lr, #-3840]!	; 0xfffff100
 a4c:	6b00424d 	blvs	11388 <__bss_end__+0x6ea0>
 a50:	6c6c616d 	stfvse	f6, [ip], #-436	; 0xfffffe4c
 a54:	6e5f636f 	cdpvs	3, 5, cr6, cr15, cr15, {3}
 a58:	657a746f 	ldrbvs	r7, [sl, #-1135]!	; 0xfffffb91
 a5c:	6b006f72 	blvs	1c82c <__bss_end__+0x12344>
 a60:	6c6c616d 	stfvse	f6, [ip], #-436	; 0xfffffe4c
 a64:	615f636f 	cmpvs	pc, pc, ror #6
 a68:	6e67696c 	vnmulvs.f16	s13, s14, s25	; <UNPREDICTABLE>
 a6c:	69006465 	stmdbvs	r0, {r0, r2, r5, r6, sl, sp, lr}
 a70:	6f705f73 	svcvs	0x00705f73
 a74:	6b003277 	blvs	d458 <__bss_end__+0x2f70>
 a78:	6c6c616d 	stfvse	f6, [ip], #-436	; 0xfffffe4c
 a7c:	632e636f 			; <UNDEFINED> instruction: 0x632e636f
 a80:	616d6b00 	cmnvs	sp, r0, lsl #22
 a84:	636f6c6c 	cmnvs	pc, #108, 24	; 0x6c00
 a88:	696e695f 	stmdbvs	lr!, {r0, r1, r2, r3, r4, r6, r8, fp, sp, lr}^
 a8c:	73690074 	cmnvc	r9, #116, 0	; 0x74
 a90:	696c615f 	stmdbvs	ip!, {r0, r1, r2, r3, r4, r6, r8, sp, lr}^
 a94:	64656e67 	strbtvs	r6, [r5], #-3687	; 0xfffff199
 a98:	756f6400 	strbvc	r6, [pc, #-1024]!	; 6a0 <__code_start__-0x7960>
 a9c:	00656c62 	rsbeq	r6, r5, r2, ror #24
 aa0:	6c616d6b 	stclvs	13, cr6, [r1], #-428	; 0xfffffe54
 aa4:	5f636f6c 	svcpl	0x00636f6c
 aa8:	70616568 	rsbvc	r6, r1, r8, ror #10
 aac:	7274705f 	rsbsvc	r7, r4, #95, 0	; 0x5f
 ab0:	616d6b00 	cmnvs	sp, r0, lsl #22
 ab4:	636f6c6c 	cmnvs	pc, #108, 24	; 0x6c00
 ab8:	696e695f 	stmdbvs	lr!, {r0, r1, r2, r3, r4, r6, r8, fp, sp, lr}^
 abc:	65735f74 	ldrbvs	r5, [r3, #-3956]!	; 0xfffff08c
 ac0:	74735f74 	ldrbtvc	r5, [r3], #-3956	; 0xfffff08c
 ac4:	00747261 	rsbseq	r7, r4, r1, ror #4
 ac8:	5f697072 	svcpl	0x00697072
 acc:	65736572 	ldrbvs	r6, [r3, #-1394]!	; 0xfffffa8e
 ad0:	75705f74 	ldrbvc	r5, [r0, #-3956]!	; 0xfffff08c
 ad4:	69006374 	stmdbvs	r0, {r2, r4, r5, r6, r8, r9, sp, lr}
 ad8:	7265746e 	rsbvc	r7, r5, #1845493760	; 0x6e000000
 adc:	5f6c616e 	svcpl	0x006c616e
 ae0:	63747570 	cmnvs	r4, #112, 10	; 0x1c000000
 ae4:	00726168 	rsbseq	r6, r2, r8, ror #2
 ae8:	5f697072 	svcpl	0x00697072
 aec:	5f746573 	svcpl	0x00746573
 af0:	63747570 	cmnvs	r4, #112, 10	; 0x1c000000
 af4:	6c2f2e00 	stcvs	14, cr2, [pc], #-0	; afc <__code_start__-0x7504>
 af8:	2f636269 	svccs	0x00636269
 afc:	63747570 	cmnvs	r4, #112, 10	; 0x1c000000
 b00:	2e726168 	rpwcssz	f6, f2, #0.0
 b04:	2f2e0063 	svccs	0x002e0063
 b08:	6362696c 	cmnvs	r2, #108, 18	; 0x1b0000
 b0c:	7274732f 	rsbsvc	r7, r4, #-1140850688	; 0xbc000000
 b10:	2e746163 	rpwcssz	f6, f4, f3
 b14:	65640063 	strbvs	r0, [r4, #-99]!	; 0xffffff9d
 b18:	2e007473 	mcrcs	4, 0, r7, cr0, cr3, {3}
 b1c:	62696c2f 	rsbvs	r6, r9, #12032	; 0x2f00
 b20:	74732f63 	ldrbtvc	r2, [r3], #-3939	; 0xfffff09d
 b24:	706d6372 	rsbvc	r6, sp, r2, ror r3
 b28:	2e00632e 	cdpcs	3, 0, cr6, cr0, cr14, {1}
 b2c:	62696c2f 	rsbvs	r6, r9, #12032	; 0x2f00
 b30:	74732f63 	ldrbtvc	r2, [r3], #-3939	; 0xfffff09d
 b34:	79706372 	ldmdbvc	r0!, {r1, r4, r5, r6, r8, r9, sp, lr}^
 b38:	2e00632e 	cdpcs	3, 0, cr6, cr0, cr14, {1}
 b3c:	62696c2f 	rsbvs	r6, r9, #12032	; 0x2f00
 b40:	74732f63 	ldrbtvc	r2, [r3], #-3939	; 0xfffff09d
 b44:	6d636e72 	stclvs	14, cr6, [r3, #-456]!	; 0xfffffe38
 b48:	00632e70 	rsbeq	r2, r3, r0, ror lr
 b4c:	74732f2e 	ldrbtvc	r2, [r3], #-3886	; 0xfffff0d2
 b50:	2d666661 	stclcs	6, cr6, [r6, #-388]!	; 0xfffffe7c
 b54:	2f637273 	svccs	0x00637273
 b58:	61666564 	cmnvs	r6, r4, ror #10
 b5c:	2d746c75 	ldclcs	12, cr6, [r4, #-468]!	; 0xfffffe2c
 b60:	6f626572 	svcvs	0x00626572
 b64:	632d746f 			; <UNDEFINED> instruction: 0x632d746f
 b68:	6f6c6c61 	svcvs	0x006c6c61
 b6c:	632e7475 			; <UNDEFINED> instruction: 0x632e7475
	...

Disassembly of section .debug_frame:

00000000 <.debug_frame>:
   0:	0000000c 	andeq	r0, r0, ip
   4:	ffffffff 			; <UNDEFINED> instruction: 0xffffffff
   8:	7c020001 	stcvc	0, cr0, [r2], {1}
   c:	000d0c0e 	andeq	r0, sp, lr, lsl #24
  10:	00000034 	andeq	r0, r0, r4, lsr r0
  14:	00000000 	andeq	r0, r0, r0
  18:	00008040 	andeq	r8, r0, r0, asr #32
  1c:	000000bc 	strheq	r0, [r0], -ip
  20:	84240e42 	strthi	r0, [r4], #-3650	; 0xfffff1be
  24:	86088509 	strhi	r8, [r8], -r9, lsl #10
  28:	88068707 	stmdahi	r6, {r0, r1, r2, r8, r9, sl, pc}
  2c:	8a048905 	bhi	122448 <__bss_end__+0x117f60>
  30:	8e028b03 	vmlahi.f64	d8, d2, d3
  34:	380e4201 	stmdacc	lr, {r0, r9, lr}
  38:	240e5402 	strcs	r5, [lr], #-1026	; 0xfffffbfe
  3c:	cacbce42 	bgt	ff2f394c <__bss_end__+0xff2e9464>
  40:	c6c7c8c9 	strbgt	ip, [r7], r9, asr #17
  44:	000ec4c5 	andeq	ip, lr, r5, asr #9
  48:	0000000c 	andeq	r0, r0, ip
  4c:	ffffffff 			; <UNDEFINED> instruction: 0xffffffff
  50:	7c020001 	stcvc	0, cr0, [r2], {1}
  54:	000d0c0e 	andeq	r0, sp, lr, lsl #24
  58:	0000001c 	andeq	r0, r0, ip, lsl r0
  5c:	00000048 	andeq	r0, r0, r8, asr #32
  60:	00008100 	andeq	r8, r0, r0, lsl #2
  64:	00000220 	andeq	r0, r0, r0, lsr #4
  68:	84180e42 	ldrhi	r0, [r8], #-3650	; 0xfffff1be
  6c:	86058506 	strhi	r8, [r5], -r6, lsl #10
  70:	88038704 	stmdahi	r3, {r2, r8, r9, sl, pc}
  74:	00018e02 	andeq	r8, r1, r2, lsl #28
  78:	0000001c 	andeq	r0, r0, ip, lsl r0
  7c:	00000048 	andeq	r0, r0, r8, asr #32
  80:	00008320 	andeq	r8, r0, r0, lsr #6
  84:	00000044 	andeq	r0, r0, r4, asr #32
  88:	84180e42 	ldrhi	r0, [r8], #-3650	; 0xfffff1be
  8c:	86058506 	strhi	r8, [r5], -r6, lsl #10
  90:	88038704 	stmdahi	r3, {r2, r8, r9, sl, pc}
  94:	00018e02 	andeq	r8, r1, r2, lsl #28
  98:	00000018 	andeq	r0, r0, r8, lsl r0
  9c:	00000048 	andeq	r0, r0, r8, asr #32
  a0:	00008370 	andeq	r8, r0, r0, ror r3
  a4:	000001c4 	andeq	r0, r0, r4, asr #3
  a8:	840c0e42 	strhi	r0, [ip], #-3650	; 0xfffff1be
  ac:	8e028503 	cfsh32hi	mvfx8, mvfx2, #3
  b0:	00000001 	andeq	r0, r0, r1
  b4:	0000001c 	andeq	r0, r0, ip, lsl r0
  b8:	00000048 	andeq	r0, r0, r8, asr #32
  bc:	00008540 	andeq	r8, r0, r0, asr #10
  c0:	000000f0 	strdeq	r0, [r0], -r0	; <UNPREDICTABLE>
  c4:	840c0e48 	strhi	r0, [ip], #-3656	; 0xfffff1b8
  c8:	8e028503 	cfsh32hi	mvfx8, mvfx2, #3
  cc:	ce6a0201 	cdpgt	2, 6, cr0, cr10, cr1, {0}
  d0:	000ec4c5 	andeq	ip, lr, r5, asr #9
  d4:	0000001c 	andeq	r0, r0, ip, lsl r0
  d8:	00000048 	andeq	r0, r0, r8, asr #32
  dc:	00008630 	andeq	r8, r0, r0, lsr r6
  e0:	000000f0 	strdeq	r0, [r0], -r0	; <UNPREDICTABLE>
  e4:	840c0e42 	strhi	r0, [ip], #-3650	; 0xfffff1be
  e8:	8e028503 	cfsh32hi	mvfx8, mvfx2, #3
  ec:	ce720201 	cdpgt	2, 7, cr0, cr2, cr1, {0}
  f0:	000ec4c5 	andeq	ip, lr, r5, asr #9
  f4:	0000000c 	andeq	r0, r0, ip
  f8:	00000048 	andeq	r0, r0, r8, asr #32
  fc:	00008720 	andeq	r8, r0, r0, lsr #14
 100:	00000020 	andeq	r0, r0, r0, lsr #32
 104:	0000000c 	andeq	r0, r0, ip
 108:	ffffffff 			; <UNDEFINED> instruction: 0xffffffff
 10c:	7c020001 	stcvc	0, cr0, [r2], {1}
 110:	000d0c0e 	andeq	r0, sp, lr, lsl #24
 114:	00000020 	andeq	r0, r0, r0, lsr #32
 118:	00000104 	andeq	r0, r0, r4, lsl #2
 11c:	00008740 	andeq	r8, r0, r0, asr #14
 120:	00000064 	andeq	r0, r0, r4, rrx
 124:	84100e48 	ldrhi	r0, [r0], #-3656	; 0xfffff1b8
 128:	86038504 	strhi	r8, [r3], -r4, lsl #10
 12c:	66018e02 	strvs	r8, [r1], -r2, lsl #28
 130:	c4c5c6ce 	strbgt	ip, [r5], #1742	; 0x6ce
 134:	0000000e 	andeq	r0, r0, lr
 138:	00000020 	andeq	r0, r0, r0, lsr #32
 13c:	00000104 	andeq	r0, r0, r4, lsl #2
 140:	000087a4 	andeq	r8, r0, r4, lsr #15
 144:	0000005c 	andeq	r0, r0, ip, asr r0
 148:	84100e48 	ldrhi	r0, [r0], #-3656	; 0xfffff1b8
 14c:	86038504 	strhi	r8, [r3], -r4, lsl #10
 150:	62018e02 	andvs	r8, r1, #2, 28
 154:	c4c5c6ce 	strbgt	ip, [r5], #1742	; 0x6ce
 158:	0000000e 	andeq	r0, r0, lr
 15c:	0000000c 	andeq	r0, r0, ip
 160:	00000104 	andeq	r0, r0, r4, lsl #2
 164:	00008800 	andeq	r8, r0, r0, lsl #16
 168:	00000018 	andeq	r0, r0, r8, lsl r0
 16c:	0000000c 	andeq	r0, r0, ip
 170:	00000104 	andeq	r0, r0, r4, lsl #2
 174:	00008818 	andeq	r8, r0, r8, lsl r8
 178:	00000018 	andeq	r0, r0, r8, lsl r0
 17c:	00000020 	andeq	r0, r0, r0, lsr #32
 180:	00000104 	andeq	r0, r0, r4, lsl #2
 184:	00008830 	andeq	r8, r0, r0, lsr r8
 188:	00000058 	andeq	r0, r0, r8, asr r0
 18c:	84100e46 	ldrhi	r0, [r0], #-3654	; 0xfffff1ba
 190:	86038504 	strhi	r8, [r3], -r4, lsl #10
 194:	62018e02 	andvs	r8, r1, #2, 28
 198:	c4c5c6ce 	strbgt	ip, [r5], #1742	; 0x6ce
 19c:	0000000e 	andeq	r0, r0, lr
 1a0:	0000000c 	andeq	r0, r0, ip
 1a4:	00000104 	andeq	r0, r0, r4, lsl #2
 1a8:	00008888 	andeq	r8, r0, r8, lsl #17
 1ac:	00000030 	andeq	r0, r0, r0, lsr r0
 1b0:	00000014 	andeq	r0, r0, r4, lsl r0
 1b4:	00000104 	andeq	r0, r0, r4, lsl #2
 1b8:	000088b8 			; <UNDEFINED> instruction: 0x000088b8
 1bc:	00000028 	andeq	r0, r0, r8, lsr #32
 1c0:	84080e44 	strhi	r0, [r8], #-3652	; 0xfffff1bc
 1c4:	00018e02 	andeq	r8, r1, r2, lsl #28
 1c8:	0000000c 	andeq	r0, r0, ip
 1cc:	ffffffff 			; <UNDEFINED> instruction: 0xffffffff
 1d0:	7c020001 	stcvc	0, cr0, [r2], {1}
 1d4:	000d0c0e 	andeq	r0, sp, lr, lsl #24
 1d8:	00000014 	andeq	r0, r0, r4, lsl r0
 1dc:	000001c8 	andeq	r0, r0, r8, asr #3
 1e0:	000088e0 	andeq	r8, r0, r0, ror #17
 1e4:	00000078 	andeq	r0, r0, r8, ror r0
 1e8:	84080e42 	strhi	r0, [r8], #-3650	; 0xfffff1be
 1ec:	00018e02 	andeq	r8, r1, r2, lsl #28
 1f0:	0000000c 	andeq	r0, r0, ip
 1f4:	ffffffff 			; <UNDEFINED> instruction: 0xffffffff
 1f8:	7c020001 	stcvc	0, cr0, [r2], {1}
 1fc:	000d0c0e 	andeq	r0, sp, lr, lsl #24
 200:	00000034 	andeq	r0, r0, r4, lsr r0
 204:	000001f0 	strdeq	r0, [r0], -r0	; <UNPREDICTABLE>
 208:	00008958 	andeq	r8, r0, r8, asr r9
 20c:	00000058 	andeq	r0, r0, r8, asr r0
 210:	80100e42 	andshi	r0, r0, r2, asr #28
 214:	82038104 	andhi	r8, r3, #1
 218:	42018302 	andmi	r8, r1, #134217728	; 0x8000000
 21c:	07841c0e 	streq	r1, [r4, lr, lsl #24]
 220:	058e0685 	streq	r0, [lr, #1669]	; 0x685
 224:	5a280e44 	bpl	a03b3c <__bss_end__+0x9f9654>
 228:	ce421c0e 	cdpgt	12, 4, cr1, cr2, cr14, {0}
 22c:	100ec4c5 	andne	ip, lr, r5, asr #9
 230:	c1c2c342 	bicgt	ip, r2, r2, asr #6
 234:	00000ec0 	andeq	r0, r0, r0, asr #29
 238:	0000000c 	andeq	r0, r0, ip
 23c:	ffffffff 			; <UNDEFINED> instruction: 0xffffffff
 240:	7c020001 	stcvc	0, cr0, [r2], {1}
 244:	000d0c0e 	andeq	r0, sp, lr, lsl #24
 248:	00000018 	andeq	r0, r0, r8, lsl r0
 24c:	00000238 	andeq	r0, r0, r8, lsr r2
 250:	000089b0 			; <UNDEFINED> instruction: 0x000089b0
 254:	00000038 	andeq	r0, r0, r8, lsr r0
 258:	84100e42 	ldrhi	r0, [r0], #-3650	; 0xfffff1be
 25c:	86038504 	strhi	r8, [r3], -r4, lsl #10
 260:	00018e02 	andeq	r8, r1, r2, lsl #28
 264:	0000000c 	andeq	r0, r0, ip
 268:	ffffffff 			; <UNDEFINED> instruction: 0xffffffff
 26c:	7c020001 	stcvc	0, cr0, [r2], {1}
 270:	000d0c0e 	andeq	r0, sp, lr, lsl #24
 274:	0000002c 	andeq	r0, r0, ip, lsr #32
 278:	00000264 	andeq	r0, r0, r4, ror #4
 27c:	000089e8 	andeq	r8, r0, r8, ror #19
 280:	00000328 	andeq	r0, r0, r8, lsr #6
 284:	84180e42 	ldrhi	r0, [r8], #-3650	; 0xfffff1be
 288:	86058506 	strhi	r8, [r5], -r6, lsl #10
 28c:	88038704 	stmdahi	r3, {r2, r8, r9, sl, pc}
 290:	46018e02 	strmi	r8, [r1], -r2, lsl #28
 294:	c002600e 	andgt	r6, r2, lr
 298:	42180e0a 	andsmi	r0, r8, #160	; 0xa0
 29c:	0a8e020b 	beq	fe380ad0 <__bss_end__+0xfe3765e8>
 2a0:	0b42180e 	bleq	10862e0 <__bss_end__+0x107bdf8>
 2a4:	00000014 	andeq	r0, r0, r4, lsl r0
 2a8:	00000264 	andeq	r0, r0, r4, ror #4
 2ac:	00008d10 	andeq	r8, r0, r0, lsl sp
 2b0:	00000060 	andeq	r0, r0, r0, rrx
 2b4:	8e040e52 	mcrhi	14, 0, r0, cr4, cr2, {2}
 2b8:	100e4401 	andne	r4, lr, r1, lsl #8
 2bc:	0000002c 	andeq	r0, r0, ip, lsr #32
 2c0:	00000264 	andeq	r0, r0, r4, ror #4
 2c4:	00008d70 	andeq	r8, r0, r0, ror sp
 2c8:	0000062c 	andeq	r0, r0, ip, lsr #12
 2cc:	84240e42 	strthi	r0, [r4], #-3650	; 0xfffff1be
 2d0:	86088509 	strhi	r8, [r8], -r9, lsl #10
 2d4:	88068707 	stmdahi	r6, {r0, r1, r2, r8, r9, sl, pc}
 2d8:	8a048905 	bhi	1226f4 <__bss_end__+0x11820c>
 2dc:	8e028b03 	vmlahi.f64	d8, d2, d3
 2e0:	c00e5201 	andgt	r5, lr, r1, lsl #4
 2e4:	0a860202 	beq	fe180af4 <__bss_end__+0xfe17660c>
 2e8:	0b42240e 	bleq	1089328 <__bss_end__+0x107ee40>
 2ec:	0000000c 	andeq	r0, r0, ip
 2f0:	ffffffff 			; <UNDEFINED> instruction: 0xffffffff
 2f4:	7c020001 	stcvc	0, cr0, [r2], {1}
 2f8:	000d0c0e 	andeq	r0, sp, lr, lsl #24
 2fc:	0000000c 	andeq	r0, r0, ip
 300:	000002ec 	andeq	r0, r0, ip, ror #5
 304:	0000939c 	muleq	r0, ip, r3
 308:	00000010 	andeq	r0, r0, r0, lsl r0
 30c:	0000000c 	andeq	r0, r0, ip
 310:	000002ec 	andeq	r0, r0, ip, ror #5
 314:	000093ac 	andeq	r9, r0, ip, lsr #7
 318:	00000010 	andeq	r0, r0, r0, lsl r0
 31c:	0000000c 	andeq	r0, r0, ip
 320:	ffffffff 			; <UNDEFINED> instruction: 0xffffffff
 324:	7c020001 	stcvc	0, cr0, [r2], {1}
 328:	000d0c0e 	andeq	r0, sp, lr, lsl #24
 32c:	00000014 	andeq	r0, r0, r4, lsl r0
 330:	0000031c 	andeq	r0, r0, ip, lsl r3
 334:	000093bc 			; <UNDEFINED> instruction: 0x000093bc
 338:	0000002c 	andeq	r0, r0, ip, lsr #32
 33c:	84080e44 	strhi	r0, [r8], #-3652	; 0xfffff1bc
 340:	00018e02 	andeq	r8, r1, r2, lsl #28
 344:	0000000c 	andeq	r0, r0, ip
 348:	ffffffff 			; <UNDEFINED> instruction: 0xffffffff
 34c:	7c020001 	stcvc	0, cr0, [r2], {1}
 350:	000d0c0e 	andeq	r0, sp, lr, lsl #24
 354:	00000018 	andeq	r0, r0, r8, lsl r0
 358:	00000344 	andeq	r0, r0, r4, asr #6
 35c:	000093e8 	andeq	r9, r0, r8, ror #7
 360:	000000f8 	strdeq	r0, [r0], -r8
 364:	84100e42 	ldrhi	r0, [r0], #-3650	; 0xfffff1be
 368:	86038504 	strhi	r8, [r3], -r4, lsl #10
 36c:	00018e02 	andeq	r8, r1, r2, lsl #28
 370:	0000000c 	andeq	r0, r0, ip
 374:	ffffffff 			; <UNDEFINED> instruction: 0xffffffff
 378:	7c020001 	stcvc	0, cr0, [r2], {1}
 37c:	000d0c0e 	andeq	r0, sp, lr, lsl #24
 380:	0000000c 	andeq	r0, r0, ip
 384:	00000370 	andeq	r0, r0, r0, ror r3
 388:	000094e0 	andeq	r9, r0, r0, ror #9
 38c:	00000004 	andeq	r0, r0, r4
 390:	0000000c 	andeq	r0, r0, ip
 394:	ffffffff 			; <UNDEFINED> instruction: 0xffffffff
 398:	7c020001 	stcvc	0, cr0, [r2], {1}
 39c:	000d0c0e 	andeq	r0, sp, lr, lsl #24
 3a0:	0000000c 	andeq	r0, r0, ip
 3a4:	00000390 	muleq	r0, r0, r3
 3a8:	000094e4 	andeq	r9, r0, r4, ror #9
 3ac:	00000018 	andeq	r0, r0, r8, lsl r0
 3b0:	0000000c 	andeq	r0, r0, ip
 3b4:	00000390 	muleq	r0, r0, r3
 3b8:	000094fc 	strdeq	r9, [r0], -ip
 3bc:	00000014 	andeq	r0, r0, r4, lsl r0
 3c0:	00000014 	andeq	r0, r0, r4, lsl r0
 3c4:	00000390 	muleq	r0, r0, r3
 3c8:	00009510 	andeq	r9, r0, r0, lsl r5
 3cc:	00000060 	andeq	r0, r0, r0, rrx
 3d0:	84080e42 	strhi	r0, [r8], #-3650	; 0xfffff1be
 3d4:	00018e02 	andeq	r8, r1, r2, lsl #28
 3d8:	0000000c 	andeq	r0, r0, ip
 3dc:	ffffffff 			; <UNDEFINED> instruction: 0xffffffff
 3e0:	7c020001 	stcvc	0, cr0, [r2], {1}
 3e4:	000d0c0e 	andeq	r0, sp, lr, lsl #24
 3e8:	0000000c 	andeq	r0, r0, ip
 3ec:	000003d8 	ldrdeq	r0, [r0], -r8
 3f0:	00009570 	andeq	r9, r0, r0, ror r5
 3f4:	0000000c 	andeq	r0, r0, ip
 3f8:	00000014 	andeq	r0, r0, r4, lsl r0
 3fc:	000003d8 	ldrdeq	r0, [r0], -r8
 400:	0000957c 	andeq	r9, r0, ip, ror r5
 404:	00000024 	andeq	r0, r0, r4, lsr #32
 408:	84080e42 	strhi	r0, [r8], #-3650	; 0xfffff1be
 40c:	00018e02 	andeq	r8, r1, r2, lsl #28
 410:	0000001c 	andeq	r0, r0, ip, lsl r0
 414:	000003d8 	ldrdeq	r0, [r0], -r8
 418:	000095a0 	andeq	r9, r0, r0, lsr #11
 41c:	00000048 	andeq	r0, r0, r8, asr #32
 420:	84180e42 	ldrhi	r0, [r8], #-3650	; 0xfffff1be
 424:	86058506 	strhi	r8, [r5], -r6, lsl #10
 428:	88038704 	stmdahi	r3, {r2, r8, r9, sl, pc}
 42c:	00018e02 	andeq	r8, r1, r2, lsl #28
 430:	0000001c 	andeq	r0, r0, ip, lsl r0
 434:	000003d8 	ldrdeq	r0, [r0], -r8
 438:	000095e8 	andeq	r9, r0, r8, ror #11
 43c:	00000050 	andeq	r0, r0, r0, asr r0
 440:	84180e42 	ldrhi	r0, [r8], #-3650	; 0xfffff1be
 444:	86058506 	strhi	r8, [r5], -r6, lsl #10
 448:	88038704 	stmdahi	r3, {r2, r8, r9, sl, pc}
 44c:	00018e02 	andeq	r8, r1, r2, lsl #28
 450:	0000001c 	andeq	r0, r0, ip, lsl r0
 454:	000003d8 	ldrdeq	r0, [r0], -r8
 458:	00009638 	andeq	r9, r0, r8, lsr r6
 45c:	00000054 	andeq	r0, r0, r4, asr r0
 460:	84180e42 	ldrhi	r0, [r8], #-3650	; 0xfffff1be
 464:	86058506 	strhi	r8, [r5], -r6, lsl #10
 468:	88038704 	stmdahi	r3, {r2, r8, r9, sl, pc}
 46c:	00018e02 	andeq	r8, r1, r2, lsl #28
 470:	0000000c 	andeq	r0, r0, ip
 474:	ffffffff 			; <UNDEFINED> instruction: 0xffffffff
 478:	7c020001 	stcvc	0, cr0, [r2], {1}
 47c:	000d0c0e 	andeq	r0, sp, lr, lsl #24
 480:	00000018 	andeq	r0, r0, r8, lsl r0
 484:	00000470 	andeq	r0, r0, r0, ror r4
 488:	0000968c 	andeq	r9, r0, ip, lsl #13
 48c:	00000020 	andeq	r0, r0, r0, lsr #32
 490:	84100e42 	ldrhi	r0, [r0], #-3650	; 0xfffff1be
 494:	86038504 	strhi	r8, [r3], -r4, lsl #10
 498:	00018e02 	andeq	r8, r1, r2, lsl #28
 49c:	00000018 	andeq	r0, r0, r8, lsl r0
 4a0:	00000470 	andeq	r0, r0, r0, ror r4
 4a4:	000096ac 	andeq	r9, r0, ip, lsr #13
 4a8:	00000020 	andeq	r0, r0, r0, lsr #32
 4ac:	84100e42 	ldrhi	r0, [r0], #-3650	; 0xfffff1be
 4b0:	86038504 	strhi	r8, [r3], -r4, lsl #10
 4b4:	00018e02 	andeq	r8, r1, r2, lsl #28
 4b8:	00000014 	andeq	r0, r0, r4, lsl r0
 4bc:	00000470 	andeq	r0, r0, r0, ror r4
 4c0:	000096cc 	andeq	r9, r0, ip, asr #13
 4c4:	000000b0 	strheq	r0, [r0], -r0	; <UNPREDICTABLE>
 4c8:	84080e42 	strhi	r0, [r8], #-3650	; 0xfffff1be
 4cc:	00018e02 	andeq	r8, r1, r2, lsl #28
 4d0:	00000014 	andeq	r0, r0, r4, lsl r0
 4d4:	00000470 	andeq	r0, r0, r0, ror r4
 4d8:	0000977c 	andeq	r9, r0, ip, ror r7
 4dc:	00000018 	andeq	r0, r0, r8, lsl r0
 4e0:	84080e42 	strhi	r0, [r8], #-3650	; 0xfffff1be
 4e4:	00018e02 	andeq	r8, r1, r2, lsl #28
 4e8:	00000014 	andeq	r0, r0, r4, lsl r0
 4ec:	00000470 	andeq	r0, r0, r0, ror r4
 4f0:	00009794 	muleq	r0, r4, r7
 4f4:	00000020 	andeq	r0, r0, r0, lsr #32
 4f8:	84080e42 	strhi	r0, [r8], #-3650	; 0xfffff1be
 4fc:	00018e02 	andeq	r8, r1, r2, lsl #28
 500:	00000014 	andeq	r0, r0, r4, lsl r0
 504:	00000470 	andeq	r0, r0, r0, ror r4
 508:	000097b4 			; <UNDEFINED> instruction: 0x000097b4
 50c:	00000030 	andeq	r0, r0, r0, lsr r0
 510:	84080e42 	strhi	r0, [r8], #-3650	; 0xfffff1be
 514:	00018e02 	andeq	r8, r1, r2, lsl #28
 518:	00000014 	andeq	r0, r0, r4, lsl r0
 51c:	00000470 	andeq	r0, r0, r0, ror r4
 520:	000097e4 	andeq	r9, r0, r4, ror #15
 524:	00000030 	andeq	r0, r0, r0, lsr r0
 528:	84080e42 	strhi	r0, [r8], #-3650	; 0xfffff1be
 52c:	00018e02 	andeq	r8, r1, r2, lsl #28
 530:	00000014 	andeq	r0, r0, r4, lsl r0
 534:	00000470 	andeq	r0, r0, r0, ror r4
 538:	00009814 	andeq	r9, r0, r4, lsl r8
 53c:	00000010 	andeq	r0, r0, r0, lsl r0
 540:	84080e42 	strhi	r0, [r8], #-3650	; 0xfffff1be
 544:	00018e02 	andeq	r8, r1, r2, lsl #28
 548:	00000014 	andeq	r0, r0, r4, lsl r0
 54c:	00000470 	andeq	r0, r0, r0, ror r4
 550:	00009824 	andeq	r9, r0, r4, lsr #16
 554:	00000020 	andeq	r0, r0, r0, lsr #32
 558:	84080e42 	strhi	r0, [r8], #-3650	; 0xfffff1be
 55c:	00018e02 	andeq	r8, r1, r2, lsl #28
 560:	00000014 	andeq	r0, r0, r4, lsl r0
 564:	00000470 	andeq	r0, r0, r0, ror r4
 568:	00009844 	andeq	r9, r0, r4, asr #16
 56c:	00000014 	andeq	r0, r0, r4, lsl r0
 570:	84080e42 	strhi	r0, [r8], #-3650	; 0xfffff1be
 574:	00018e02 	andeq	r8, r1, r2, lsl #28
 578:	00000014 	andeq	r0, r0, r4, lsl r0
 57c:	00000470 	andeq	r0, r0, r0, ror r4
 580:	00009858 	andeq	r9, r0, r8, asr r8
 584:	00000024 	andeq	r0, r0, r4, lsr #32
 588:	84080e42 	strhi	r0, [r8], #-3650	; 0xfffff1be
 58c:	00018e02 	andeq	r8, r1, r2, lsl #28
 590:	0000000c 	andeq	r0, r0, ip
 594:	ffffffff 			; <UNDEFINED> instruction: 0xffffffff
 598:	7c020001 	stcvc	0, cr0, [r2], {1}
 59c:	000d0c0e 	andeq	r0, sp, lr, lsl #24
 5a0:	0000000c 	andeq	r0, r0, ip
 5a4:	00000590 	muleq	r0, r0, r5
 5a8:	0000987c 	andeq	r9, r0, ip, ror r8
 5ac:	00000010 	andeq	r0, r0, r0, lsl r0
 5b0:	0000000c 	andeq	r0, r0, ip
 5b4:	00000590 	muleq	r0, r0, r5
 5b8:	0000988c 	andeq	r9, r0, ip, lsl #17
 5bc:	00000010 	andeq	r0, r0, r0, lsl r0
 5c0:	0000000c 	andeq	r0, r0, ip
 5c4:	00000590 	muleq	r0, r0, r5
 5c8:	0000989c 	muleq	r0, ip, r8
 5cc:	00000010 	andeq	r0, r0, r0, lsl r0
 5d0:	0000001c 	andeq	r0, r0, ip, lsl r0
 5d4:	00000590 	muleq	r0, r0, r5
 5d8:	000098ac 	andeq	r9, r0, ip, lsr #17
 5dc:	0000009c 	muleq	r0, ip, r0
 5e0:	8e040e42 	cdphi	14, 0, cr0, cr4, cr2, {2}
 5e4:	100e4201 	andne	r4, lr, r1, lsl #4
 5e8:	040e0a58 	streq	r0, [lr], #-2648	; 0xfffff5a8
 5ec:	00000b42 	andeq	r0, r0, r2, asr #22
 5f0:	00000014 	andeq	r0, r0, r4, lsl r0
 5f4:	00000590 	muleq	r0, r0, r5
 5f8:	00009948 	andeq	r9, r0, r8, asr #18
 5fc:	00000058 	andeq	r0, r0, r8, asr r0
 600:	84080e42 	strhi	r0, [r8], #-3650	; 0xfffff1be
 604:	00018e02 	andeq	r8, r1, r2, lsl #28
 608:	0000001c 	andeq	r0, r0, ip, lsl r0
 60c:	00000590 	muleq	r0, r0, r5
 610:	000099a0 	andeq	r9, r0, r0, lsr #19
 614:	00000098 	muleq	r0, r8, r0
 618:	8e040e42 	cdphi	14, 0, cr0, cr4, cr2, {2}
 61c:	100e4201 	andne	r4, lr, r1, lsl #4
 620:	040e0a58 	streq	r0, [lr], #-2648	; 0xfffff5a8
 624:	00000b42 	andeq	r0, r0, r2, asr #22
 628:	00000020 	andeq	r0, r0, r0, lsr #32
 62c:	00000590 	muleq	r0, r0, r5
 630:	00009a38 	andeq	r9, r0, r8, lsr sl
 634:	00000064 	andeq	r0, r0, r4, rrx
 638:	840c0e42 	strhi	r0, [ip], #-3650	; 0xfffff1be
 63c:	8e028503 	cfsh32hi	mvfx8, mvfx2, #3
 640:	180e4201 	stmdane	lr, {r0, r9, lr}
 644:	0c0e0a54 			; <UNDEFINED> instruction: 0x0c0e0a54
 648:	00000b42 	andeq	r0, r0, r2, asr #22
 64c:	0000001c 	andeq	r0, r0, ip, lsl r0
 650:	00000590 	muleq	r0, r0, r5
 654:	00009a9c 	muleq	r0, ip, sl
 658:	00000118 	andeq	r0, r0, r8, lsl r1
 65c:	8e040e42 	cdphi	14, 0, cr0, cr4, cr2, {2}
 660:	100e4201 	andne	r4, lr, r1, lsl #4
 664:	040e0a6c 	streq	r0, [lr], #-2668	; 0xfffff594
 668:	00000b42 	andeq	r0, r0, r2, asr #22
 66c:	0000000c 	andeq	r0, r0, ip
 670:	00000590 	muleq	r0, r0, r5
 674:	00009bb4 			; <UNDEFINED> instruction: 0x00009bb4
 678:	00000004 	andeq	r0, r0, r4
 67c:	0000000c 	andeq	r0, r0, ip
 680:	00000590 	muleq	r0, r0, r5
 684:	00009bb8 			; <UNDEFINED> instruction: 0x00009bb8
 688:	00000014 	andeq	r0, r0, r4, lsl r0
 68c:	00000014 	andeq	r0, r0, r4, lsl r0
 690:	00000590 	muleq	r0, r0, r5
 694:	00009bcc 	andeq	r9, r0, ip, asr #23
 698:	00000060 	andeq	r0, r0, r0, rrx
 69c:	8e040e58 	mcrhi	14, 0, r0, cr4, cr8, {2}
 6a0:	100e4201 	andne	r4, lr, r1, lsl #4
 6a4:	0000000c 	andeq	r0, r0, ip
 6a8:	ffffffff 			; <UNDEFINED> instruction: 0xffffffff
 6ac:	7c020001 	stcvc	0, cr0, [r2], {1}
 6b0:	000d0c0e 	andeq	r0, sp, lr, lsl #24
 6b4:	00000014 	andeq	r0, r0, r4, lsl r0
 6b8:	000006a4 	andeq	r0, r0, r4, lsr #13
 6bc:	00009c2c 	andeq	r9, r0, ip, lsr #24
 6c0:	00000014 	andeq	r0, r0, r4, lsl r0
 6c4:	84080e42 	strhi	r0, [r8], #-3650	; 0xfffff1be
 6c8:	00018e02 	andeq	r8, r1, r2, lsl #28
 6cc:	0000000c 	andeq	r0, r0, ip
 6d0:	000006a4 	andeq	r0, r0, r4, lsr #13
 6d4:	00009c40 	andeq	r9, r0, r0, asr #24
 6d8:	00000018 	andeq	r0, r0, r8, lsl r0
 6dc:	0000000c 	andeq	r0, r0, ip
 6e0:	000006a4 	andeq	r0, r0, r4, lsr #13
 6e4:	00009c58 	andeq	r9, r0, r8, asr ip
 6e8:	00000010 	andeq	r0, r0, r0, lsl r0
 6ec:	0000000c 	andeq	r0, r0, ip
 6f0:	ffffffff 			; <UNDEFINED> instruction: 0xffffffff
 6f4:	7c020001 	stcvc	0, cr0, [r2], {1}
 6f8:	000d0c0e 	andeq	r0, sp, lr, lsl #24
 6fc:	0000000c 	andeq	r0, r0, ip
 700:	000006ec 	andeq	r0, r0, ip, ror #13
 704:	00009c68 	andeq	r9, r0, r8, ror #24
 708:	0000002c 	andeq	r0, r0, ip, lsr #32
 70c:	0000000c 	andeq	r0, r0, ip
 710:	ffffffff 			; <UNDEFINED> instruction: 0xffffffff
 714:	7c020001 	stcvc	0, cr0, [r2], {1}
 718:	000d0c0e 	andeq	r0, sp, lr, lsl #24
 71c:	0000000c 	andeq	r0, r0, ip
 720:	0000070c 	andeq	r0, r0, ip, lsl #14
 724:	00009c94 	muleq	r0, r4, ip
 728:	00000044 	andeq	r0, r0, r4, asr #32
 72c:	0000000c 	andeq	r0, r0, ip
 730:	ffffffff 			; <UNDEFINED> instruction: 0xffffffff
 734:	7c020001 	stcvc	0, cr0, [r2], {1}
 738:	000d0c0e 	andeq	r0, sp, lr, lsl #24
 73c:	0000000c 	andeq	r0, r0, ip
 740:	0000072c 	andeq	r0, r0, ip, lsr #14
 744:	00009cd8 	ldrdeq	r9, [r0], -r8
 748:	00000018 	andeq	r0, r0, r8, lsl r0
 74c:	0000000c 	andeq	r0, r0, ip
 750:	ffffffff 			; <UNDEFINED> instruction: 0xffffffff
 754:	7c020001 	stcvc	0, cr0, [r2], {1}
 758:	000d0c0e 	andeq	r0, sp, lr, lsl #24
 75c:	0000000c 	andeq	r0, r0, ip
 760:	0000074c 	andeq	r0, r0, ip, asr #14
 764:	00009cf0 	strdeq	r9, [r0], -r0
 768:	00000030 	andeq	r0, r0, r0, lsr r0
 76c:	0000000c 	andeq	r0, r0, ip
 770:	ffffffff 			; <UNDEFINED> instruction: 0xffffffff
 774:	7c020001 	stcvc	0, cr0, [r2], {1}
 778:	000d0c0e 	andeq	r0, sp, lr, lsl #24
 77c:	0000000c 	andeq	r0, r0, ip
 780:	0000076c 	andeq	r0, r0, ip, ror #14
 784:	00009d20 	andeq	r9, r0, r0, lsr #26
 788:	00000004 	andeq	r0, r0, r4

Disassembly of section .debug_loclists:

00000000 <.debug_loclists>:
   0:	00000438 	andeq	r0, r0, r8, lsr r4
   4:	00040005 	andeq	r0, r4, r5
	...
  10:	f8040000 			; <UNDEFINED> instruction: 0xf8040000
  14:	01038802 	tsteq	r3, r2, lsl #16
  18:	03880450 	orreq	r0, r8, #80, 8	; 0x50000000
  1c:	54010390 	strpl	r0, [r1], #-912	; 0xfffffc70
  20:	a0039004 	andge	r9, r3, r4
  24:	01a30403 			; <UNDEFINED> instruction: 0x01a30403
  28:	00009f50 	andeq	r9, r0, r0, asr pc
  2c:	00000000 	andeq	r0, r0, r0
  30:	04000000 	streq	r0, [r0], #-0
  34:	03880384 	orreq	r0, r8, #132, 6	; 0x10000002
  38:	3500700b 	strcc	r7, [r0, #-11]
  3c:	80b42325 	adcshi	r2, r4, r5, lsr #6
  40:	9f028180 	svcls	0x00028180
  44:	8b038804 	blhi	e205c <__bss_end__+0xd7b74>
  48:	04500103 	ldrbeq	r0, [r0], #-259	; 0xfffffefd
  4c:	0390038b 	orrseq	r0, r0, #738197506	; 0x2c000002
  50:	3500740b 	strcc	r7, [r0, #-1035]	; 0xfffffbf5
  54:	80b42325 	adcshi	r2, r4, r5, lsr #6
  58:	9f028180 	svcls	0x00028180
  5c:	a0039004 	andge	r9, r3, r4
  60:	01a30c03 			; <UNDEFINED> instruction: 0x01a30c03
  64:	23253550 			; <UNDEFINED> instruction: 0x23253550
  68:	818080b4 	strhhi	r8, [r0, r4]
  6c:	01009f02 	tsteq	r0, r2, lsl #30
  70:	00000000 	andeq	r0, r0, r0
  74:	03840400 	orreq	r0, r4, #0, 8
  78:	70050388 	andvc	r0, r5, r8, lsl #7
  7c:	9f1a4f00 	svcls	0x001a4f00
  80:	90038804 	andls	r8, r3, r4, lsl #16
  84:	00740503 	rsbseq	r0, r4, r3, lsl #10
  88:	049f1a4f 	ldreq	r1, [pc], #2639	; 90 <__code_start__-0x7f70>
  8c:	03a00390 	moveq	r0, #144, 6	; 0x40000002
  90:	00005401 	andeq	r5, r0, r1, lsl #8
	...
  9c:	04000000 	streq	r0, [r0], #-0
  a0:	02dc02c8 	sbcseq	r0, ip, #200, 4	; 0x8000000c
  a4:	dc045001 	stcle	0, cr5, [r4], {1}
  a8:	0102e002 	tsteq	r2, r2
  ac:	02e00451 	rsceq	r0, r0, #1358954496	; 0x51000000
  b0:	a30402e4 	movwge	r0, #17124	; 0x42e4
  b4:	049f5001 	ldreq	r5, [pc], #1	; bc <__code_start__-0x7f44>
  b8:	02e802e4 	rsceq	r0, r8, #228, 4	; 0x4000000e
  bc:	e8045001 	stmda	r4, {r0, ip, lr}
  c0:	0102ec02 	tsteq	r2, r2, lsl #24
  c4:	02ec0451 	rsceq	r0, ip, #1358954496	; 0x51000000
  c8:	a30402f8 	movwge	r0, #17144	; 0x42f8
  cc:	009f5001 	addseq	r5, pc, r1
  d0:	00000000 	andeq	r0, r0, r0
  d4:	d402c804 	strle	ip, [r2], #-2052	; 0xfffff7fc
  d8:	04510102 	ldrbeq	r0, [r1], #-258	; 0xfffffefe
  dc:	02f802d4 	rscseq	r0, r8, #212, 4	; 0x4000000d
  e0:	5101a304 	tstpl	r1, r4, lsl #6
  e4:	0001009f 	muleq	r1, pc, r0	; <UNPREDICTABLE>
  e8:	00000000 	andeq	r0, r0, r0
  ec:	dc02d804 	stcle	8, cr13, [r2], {4}
  f0:	04500102 	ldrbeq	r0, [r0], #-258	; 0xfffffefe
  f4:	02e002dc 	rsceq	r0, r0, #220, 4	; 0xc000000d
  f8:	e0045101 	and	r5, r4, r1, lsl #2
  fc:	0402e402 	streq	lr, [r2], #-1026	; 0xfffffbfe
 100:	9f5001a3 	svcls	0x005001a3
 104:	00000200 	andeq	r0, r0, r0, lsl #4
 108:	04000000 	streq	r0, [r0], #-0
 10c:	02e802e4 	rsceq	r0, r8, #228, 4	; 0x4000000e
 110:	e8045001 	stmda	r4, {r0, ip, lr}
 114:	0102ec02 	tsteq	r2, r2, lsl #24
 118:	02ec0451 	rsceq	r0, ip, #1358954496	; 0x51000000
 11c:	a30402f8 	movwge	r0, #17144	; 0x42f8
 120:	009f5001 	addseq	r5, pc, r1
 124:	00000000 	andeq	r0, r0, r0
 128:	f0040000 			; <UNDEFINED> instruction: 0xf0040000
 12c:	01029001 	tsteq	r2, r1
 130:	02900450 	addseq	r0, r0, #80, 8	; 0x50000000
 134:	540102b0 	strpl	r0, [r1], #-688	; 0xfffffd50
 138:	c802b004 	stmdagt	r2, {r2, ip, sp, pc}
 13c:	01a30402 			; <UNDEFINED> instruction: 0x01a30402
 140:	02009f50 	andeq	r9, r0, #80, 30	; 0x140
 144:	00000000 	andeq	r0, r0, r0
 148:	01f00400 	mvnseq	r0, r0, lsl #8
 14c:	50010290 	mulpl	r1, r0, r2
 150:	b0029004 	andlt	r9, r2, r4
 154:	04540102 	ldrbeq	r0, [r4], #-258	; 0xfffffefe
 158:	02c802b0 	sbceq	r0, r8, #176, 4
 15c:	5001a304 	andpl	sl, r1, r4, lsl #6
 160:	0000009f 	muleq	r0, pc, r0	; <UNPREDICTABLE>
 164:	00000000 	andeq	r0, r0, r0
 168:	9001f804 	andls	pc, r1, r4, lsl #16
 16c:	04500102 	ldrbeq	r0, [r0], #-258	; 0xfffffefe
 170:	02b00290 	adcseq	r0, r0, #144, 4
 174:	b0045401 	andlt	r5, r4, r1, lsl #8
 178:	0402c802 	streq	ip, [r2], #-2050	; 0xfffff7fe
 17c:	9f5001a3 	svcls	0x005001a3
 180:	00000300 	andeq	r0, r0, r0, lsl #6
 184:	04000000 	streq	r0, [r0], #-0
 188:	029001f8 	addseq	r0, r0, #62	; 0x3e
 18c:	3a007007 	bcc	1c1b0 <__bss_end__+0x11cc8>
 190:	9f1e331d 	svcls	0x001e331d
 194:	b0029004 	andlt	r9, r2, r4
 198:	00740702 	rsbseq	r0, r4, r2, lsl #14
 19c:	1e331d3a 	mrcne	13, 1, r1, cr3, cr10, {1}
 1a0:	02b0049f 	adcseq	r0, r0, #-1627389952	; 0x9f000000
 1a4:	a30802c8 	movwge	r0, #33480	; 0x82c8
 1a8:	1d3a5001 	ldcne	0, cr5, [sl, #-4]!
 1ac:	009f1e33 	addseq	r1, pc, r3, lsr lr	; <UNPREDICTABLE>
 1b0:	00000000 	andeq	r0, r0, r0
 1b4:	98040000 	stmdals	r4, {}	; <UNPREDICTABLE>
 1b8:	0102c002 	tsteq	r2, r2
 1bc:	02c00456 	sbceq	r0, r0, #1442840576	; 0x56000000
 1c0:	500102c3 	andpl	r0, r1, r3, asr #5
 1c4:	c802c304 	stmdagt	r2, {r2, r8, r9, lr, pc}
 1c8:	01a32602 			; <UNDEFINED> instruction: 0x01a32602
 1cc:	a82da850 	stmdage	sp!, {r4, r6, fp, sp, pc}
 1d0:	0826a426 	stmdaeq	r6!, {r1, r2, r5, sl, sp, pc}
 1d4:	cccccccd 	stclgt	12, cr12, [ip], {205}	; 0xcd
 1d8:	00000000 	andeq	r0, r0, r0
 1dc:	a820081e 	stmdage	r0!, {r1, r2, r3, r4, fp}
 1e0:	2da82526 	cfstr32cs	mvfx2, [r8, #152]!	; 0x98
 1e4:	253300a8 	ldrcs	r0, [r3, #-168]!	; 0xffffff58
 1e8:	a0808023 	addge	r8, r0, r3, lsr #32
 1ec:	9f243240 	svcls	0x00243240
 1f0:	01010000 	mrseq	r0, (UNDEF: 1)
 1f4:	00000000 	andeq	r0, r0, r0
 1f8:	02a80400 	adceq	r0, r8, #0, 8
 1fc:	500102a8 	andpl	r0, r1, r8, lsr #5
 200:	b002a804 	andlt	sl, r2, r4, lsl #16
 204:	74370d02 	ldrtvc	r0, [r7], #-3330	; 0xfffff2fe
 208:	331d3a00 	tstcc	sp, #0, 20
 20c:	7020241e 	eorvc	r2, r0, lr, lsl r4
 210:	049f1a00 	ldreq	r1, [pc], #2560	; 218 <__code_start__-0x7de8>
 214:	02b802b0 	adcseq	r0, r8, #176, 4
 218:	01a3370e 			; <UNDEFINED> instruction: 0x01a3370e
 21c:	331d3a50 	tstcc	sp, #80, 20	; 0x50000
 220:	7020241e 	eorvc	r2, r0, lr, lsl r4
 224:	049f1a00 	ldreq	r1, [pc], #2560	; 22c <__code_start__-0x7dd4>
 228:	02c302b8 	sbceq	r0, r3, #184, 4	; 0x8000000b
 22c:	01a3370e 			; <UNDEFINED> instruction: 0x01a3370e
 230:	331d3a50 	tstcc	sp, #80, 20	; 0x50000
 234:	7320241e 			; <UNDEFINED> instruction: 0x7320241e
 238:	009f1a00 	addseq	r1, pc, r0, lsl #20
 23c:	00000000 	andeq	r0, r0, r0
 240:	01946404 	orrseq	r6, r4, r4, lsl #8
 244:	94045001 	strls	r5, [r4], #-1
 248:	0401c001 	streq	ip, [r1], #-1
 24c:	9f5001a3 	svcls	0x005001a3
 250:	00000200 	andeq	r0, r0, r0, lsl #4
 254:	94640400 	strbtls	r0, [r4], #-1024	; 0xfffffc00
 258:	04500101 	ldrbeq	r0, [r0], #-257	; 0xfffffeff
 25c:	01c00194 			; <UNDEFINED> instruction: 0x01c00194
 260:	5001a304 	andpl	sl, r1, r4, lsl #6
 264:	0000009f 	muleq	r0, pc, r0	; <UNPREDICTABLE>
 268:	6c040000 	stcvs	0, cr0, [r4], {-0}
 26c:	50010194 	mulpl	r1, r4, r1
 270:	c0019404 	andgt	r9, r1, r4, lsl #8
 274:	01a30401 			; <UNDEFINED> instruction: 0x01a30401
 278:	00009f50 	andeq	r9, r0, r0, asr pc
 27c:	04000000 	streq	r0, [r0], #-0
 280:	01b801a8 			; <UNDEFINED> instruction: 0x01b801a8
 284:	b8045401 	stmdalt	r4, {r0, sl, ip, lr}
 288:	2901c001 	stmdbcs	r1, {r0, lr, pc}
 28c:	a35001a3 	cmpge	r0, #-1073741784	; 0xc0000028
 290:	2da85001 	stccs	0, cr5, [r8, #4]!
 294:	26a426a8 	strtcs	r2, [r4], r8, lsr #13
 298:	cccccd08 	stclgt	13, cr12, [ip], {8}
 29c:	000000cc 	andeq	r0, r0, ip, asr #1
 2a0:	20081e00 	andcs	r1, r8, r0, lsl #28
 2a4:	a82526a8 	stmdage	r5!, {r3, r5, r7, r9, sl, sp}
 2a8:	3300a82d 	movwcc	sl, #2093	; 0x82d
 2ac:	311e3525 	tstcc	lr, r5, lsr #10
 2b0:	1e331c24 	cdpne	12, 3, cr1, cr3, cr4, {1}
 2b4:	0001009f 	muleq	r1, pc, r0	; <UNPREDICTABLE>
 2b8:	00000000 	andeq	r0, r0, r0
 2bc:	b801a804 	stmdalt	r1, {r2, fp, sp, pc}
 2c0:	04550101 	ldrbeq	r0, [r5], #-257	; 0xfffffeff
 2c4:	01bb01b8 			; <UNDEFINED> instruction: 0x01bb01b8
 2c8:	bb045001 	bllt	1142d4 <__bss_end__+0x109dec>
 2cc:	2601c001 	strcs	ip, [r1], -r1
 2d0:	a85001a3 	ldmdage	r0, {r0, r1, r5, r7, r8}^
 2d4:	a426a82d 	strtge	sl, [r6], #-2093	; 0xfffff7d3
 2d8:	cccd0826 	stclgt	8, cr0, [sp], {38}	; 0x26
 2dc:	0000cccc 	andeq	ip, r0, ip, asr #25
 2e0:	081e0000 	ldmdaeq	lr, {}	; <UNPREDICTABLE>
 2e4:	2526a820 	strcs	sl, [r6, #-2080]!	; 0xfffff7e0
 2e8:	00a82da8 	adceq	r2, r8, r8, lsr #27
 2ec:	80232533 	eorhi	r2, r3, r3, lsr r5
 2f0:	3240a080 	subcc	sl, r0, #128, 0	; 0x80
 2f4:	02009f24 	andeq	r9, r0, #36, 30	; 0x90
 2f8:	01010000 	mrseq	r0, (UNDEF: 1)
 2fc:	04000000 	streq	r0, [r0], #-0
 300:	01ac01a8 			; <UNDEFINED> instruction: 0x01ac01a8
 304:	ac045001 	stcge	0, cr5, [r4], {1}
 308:	0101ac01 	tsteq	r1, r1, lsl #24
 30c:	01ac0453 			; <UNDEFINED> instruction: 0x01ac0453
 310:	310801b4 			; <UNDEFINED> instruction: 0x310801b4
 314:	73240074 			; <UNDEFINED> instruction: 0x73240074
 318:	049f2100 	ldreq	r2, [pc], #256	; 320 <__code_start__-0x7ce0>
 31c:	01bb01b4 			; <UNDEFINED> instruction: 0x01bb01b4
 320:	00005101 	andeq	r5, r0, r1, lsl #2
 324:	04000000 	streq	r0, [r0], #-0
 328:	50013c00 	andpl	r3, r1, r0, lsl #24
 32c:	04643c04 	strbteq	r3, [r4], #-3076	; 0xfffff3fc
 330:	9f5001a3 	svcls	0x005001a3
 334:	00000000 	andeq	r0, r0, r0
 338:	3f000400 	svccc	0x00000400
 33c:	3f045101 	svccc	0x00045101
 340:	01a30464 			; <UNDEFINED> instruction: 0x01a30464
 344:	00009f51 	andeq	r9, r0, r1, asr pc
 348:	04000000 	streq	r0, [r0], #-0
 34c:	51013f08 	tstpl	r1, r8, lsl #30
 350:	04643f04 	strbteq	r3, [r4], #-3844	; 0xfffff0fc
 354:	9f5101a3 	svcls	0x005101a3
 358:	00000000 	andeq	r0, r0, r0
 35c:	3c080400 	cfstrscc	mvf0, [r8], {-0}
 360:	3c045001 	stccc	0, cr5, [r4], {1}
 364:	01a30464 			; <UNDEFINED> instruction: 0x01a30464
 368:	00009f50 	andeq	r9, r0, r0, asr pc
 36c:	04000000 	streq	r0, [r0], #-0
 370:	54015c4c 	strpl	r5, [r1], #-3148	; 0xfffff3b4
 374:	29645c04 	stmdbcs	r4!, {r2, sl, fp, ip, lr}^
 378:	a35001a3 	cmpge	r0, #-1073741784	; 0xc0000028
 37c:	2da85001 	stccs	0, cr5, [r8, #4]!
 380:	26a426a8 	strtcs	r2, [r4], r8, lsr #13
 384:	cccccd08 	stclgt	13, cr12, [ip], {8}
 388:	000000cc 	andeq	r0, r0, ip, asr #1
 38c:	20081e00 	andcs	r1, r8, r0, lsl #28
 390:	a82526a8 	stmdage	r5!, {r3, r5, r7, r9, sl, sp}
 394:	3300a82d 	movwcc	sl, #2093	; 0x82d
 398:	311e3525 	tstcc	lr, r5, lsr #10
 39c:	1e331c24 	cdpne	12, 3, cr1, cr3, cr4, {1}
 3a0:	0001009f 	muleq	r1, pc, r0	; <UNPREDICTABLE>
 3a4:	00000000 	andeq	r0, r0, r0
 3a8:	015c4c04 	cmpeq	ip, r4, lsl #24
 3ac:	5f5c0456 	svcpl	0x005c0456
 3b0:	5f045001 	svcpl	0x00045001
 3b4:	01a32664 			; <UNDEFINED> instruction: 0x01a32664
 3b8:	a82da850 	stmdage	sp!, {r4, r6, fp, sp, pc}
 3bc:	0826a426 	stmdaeq	r6!, {r1, r2, r5, sl, sp, pc}
 3c0:	cccccccd 	stclgt	12, cr12, [ip], {205}	; 0xcd
 3c4:	00000000 	andeq	r0, r0, r0
 3c8:	a820081e 	stmdage	r0!, {r1, r2, r3, r4, fp}
 3cc:	2da82526 	cfstr32cs	mvfx2, [r8, #152]!	; 0x98
 3d0:	253300a8 	ldrcs	r0, [r3, #-168]!	; 0xffffff58
 3d4:	a0808023 	addge	r8, r0, r3, lsr #32
 3d8:	9f243240 	svcls	0x00243240
 3dc:	00000200 	andeq	r0, r0, r0, lsl #4
 3e0:	04000101 	streq	r0, [r0], #-257	; 0xfffffeff
 3e4:	5001504c 	andpl	r5, r1, ip, asr #32
 3e8:	01505004 	cmpeq	r0, r4
 3ec:	58500451 	ldmdapl	r0, {r0, r4, r6, sl}^
 3f0:	0800750c 	stmdaeq	r0, {r2, r3, r8, sl, ip, sp, lr}
 3f4:	00741aff 	ldrshteq	r1, [r4], #-175	; 0xffffff51
 3f8:	21007124 	tstcs	r0, r4, lsr #2
 3fc:	0000009f 	muleq	r0, pc, r0	; <UNPREDICTABLE>
 400:	00000000 	andeq	r0, r0, r0
 404:	cc01c004 	stcgt	0, cr12, [r1], {4}
 408:	04500101 	ldrbeq	r0, [r0], #-257	; 0xfffffeff
 40c:	01d301cc 	bicseq	r0, r3, ip, asr #3
 410:	d3045301 	movwle	r5, #17153	; 0x4301
 414:	0401d801 	streq	sp, [r1], #-2049	; 0xfffff7ff
 418:	9f5001a3 	svcls	0x005001a3
 41c:	00000000 	andeq	r0, r0, r0
 420:	04000000 	streq	r0, [r0], #-0
 424:	01e401d8 	ldrdeq	r0, [r4, #24]!
 428:	e4045001 	str	r5, [r4], #-1
 42c:	0101eb01 	tsteq	r1, r1, lsl #22
 430:	01eb0453 	mvneq	r0, r3, asr r4
 434:	a30401f0 	movwge	r0, #16880	; 0x41f0
 438:	009f5001 	addseq	r5, pc, r1

Disassembly of section .debug_rnglists:

00000000 <.debug_rnglists>:
   0:	00000057 	andeq	r0, r0, r7, asr r0
   4:	00040005 	andeq	r0, r4, r5
   8:	00000000 	andeq	r0, r0, r0
   c:	040c0804 	streq	r0, [ip], #-2052	; 0xfffff7fc
  10:	5c045814 	stcpl	8, cr5, [r4], {20}
  14:	64040064 	strvs	r0, [r4], #-100	; 0xffffff9c
  18:	b4740470 	ldrbtlt	r0, [r4], #-1136	; 0xfffffb90
  1c:	01b80401 			; <UNDEFINED> instruction: 0x01b80401
  20:	040001c0 	streq	r0, [r0], #-448	; 0xfffffe40
  24:	7404706c 	strvc	r7, [r4], #-108	; 0xffffff94
  28:	b80401b4 	stmdalt	r4, {r2, r4, r5, r7, r8}
  2c:	0001c001 	andeq	ip, r1, r1
  30:	f801f004 			; <UNDEFINED> instruction: 0xf801f004
  34:	01fc0401 	mvnseq	r0, r1, lsl #8
  38:	c00402bc 			; <UNDEFINED> instruction: 0xc00402bc
  3c:	0002c802 	andeq	ip, r2, r2, lsl #16
  40:	f801f804 			; <UNDEFINED> instruction: 0xf801f804
  44:	01fc0401 	mvnseq	r0, r1, lsl #8
  48:	c00402bc 			; <UNDEFINED> instruction: 0xc00402bc
  4c:	0002c802 	andeq	ip, r2, r2, lsl #16
  50:	d002cc04 	andle	ip, r2, r4, lsl #24
  54:	02d80402 	sbcseq	r0, r8, #33554432	; 0x2000000
  58:	Address 0x0000000000000058 is out of bounds.

