
tests-2.0/part2-test4-no-leak.elf:     file format elf32-littlearm


Disassembly of section .text:

00008000 <__code_start__>:
    8000:	e3a00013 	mov	r0, #19, 0
    8004:	e3800080 	orr	r0, r0, #128, 0	; 0x80
    8008:	e129f000 	msr	CPSR_fc, r0
    800c:	e3a01000 	mov	r1, #0, 0
    8010:	ee071f95 	mcr	15, 0, r1, cr7, cr5, {4}
    8014:	e3a0d302 	mov	sp, #134217728	; 0x8000000
    8018:	e3a0b000 	mov	fp, #0, 0
    801c:	eb0005b5 	bl	96f8 <_cstart>
    8020:	eb0005fe 	bl	9820 <rpi_reboot>

00008024 <PUT32>:
    8024:	e5801000 	str	r1, [r0]
    8028:	e12fff1e 	bx	lr

0000802c <GET32>:
    802c:	e5900000 	ldr	r0, [r0]
    8030:	e12fff1e 	bx	lr

00008034 <BRANCHTO>:
    8034:	e12fff10 	bx	r0

00008038 <test>:
    8038:	e92d4ff0 	push	{r4, r5, r6, r7, r8, r9, sl, fp, lr}
    803c:	e3a09010 	mov	r9, #16, 0
    8040:	e59fb0bc 	ldr	fp, [pc, #188]	; 8104 <test+0xcc>
    8044:	e59fa0bc 	ldr	sl, [pc, #188]	; 8108 <test+0xd0>
    8048:	e24dd01c 	sub	sp, sp, #28, 0
    804c:	e58d9014 	str	r9, [sp, #20]
    8050:	e58db00c 	str	fp, [sp, #12]
    8054:	e58da010 	str	sl, [sp, #16]
    8058:	e28d700c 	add	r7, sp, #12, 0
    805c:	e897000e 	ldm	r7, {r1, r2, r3}
    8060:	e3a0000c 	mov	r0, #12, 0
    8064:	eb0000f3 	bl	8438 <ckalloc>
    8068:	e3a08000 	mov	r8, #0, 0
    806c:	e1a05000 	mov	r5, r0
    8070:	e3a0200c 	mov	r2, #12, 0
    8074:	e3a01000 	mov	r1, #0, 0
    8078:	eb0002e4 	bl	8c10 <memset>
    807c:	e3a06064 	mov	r6, #100, 0	; 0x64
    8080:	e5858000 	str	r8, [r5]
    8084:	ea000010 	b	80cc <test+0x94>
    8088:	e58db00c 	str	fp, [sp, #12]
    808c:	e58da010 	str	sl, [sp, #16]
    8090:	e58d9014 	str	r9, [sp, #20]
    8094:	e897000e 	ldm	r7, {r1, r2, r3}
    8098:	e3a0000c 	mov	r0, #12, 0
    809c:	eb0000e5 	bl	8438 <ckalloc>
    80a0:	e1a04000 	mov	r4, r0
    80a4:	e3a0200c 	mov	r2, #12, 0
    80a8:	e3a01000 	mov	r1, #0, 0
    80ac:	eb0002d7 	bl	8c10 <memset>
    80b0:	e5953008 	ldr	r3, [r5, #8]
    80b4:	e5848000 	str	r8, [r4]
    80b8:	e3530000 	cmp	r3, #0, 0
    80bc:	1a000008 	bne	80e4 <test+0xac>
    80c0:	e5854008 	str	r4, [r5, #8]
    80c4:	e5845004 	str	r5, [r4, #4]
    80c8:	e1a05004 	mov	r5, r4
    80cc:	e2566001 	subs	r6, r6, #1, 0
    80d0:	1affffec 	bne	8088 <test+0x50>
    80d4:	eb00025a 	bl	8a44 <check_no_leak>
    80d8:	e1a00005 	mov	r0, r5
    80dc:	e28dd01c 	add	sp, sp, #28, 0
    80e0:	e8bd8ff0 	pop	{r4, r5, r6, r7, r8, r9, sl, fp, pc}
    80e4:	e59f2020 	ldr	r2, [pc, #32]	; 810c <test+0xd4>
    80e8:	e3a03014 	mov	r3, #20, 0
    80ec:	e59f1010 	ldr	r1, [pc, #16]	; 8104 <test+0xcc>
    80f0:	e58d2000 	str	r2, [sp]
    80f4:	e59f0014 	ldr	r0, [pc, #20]	; 8110 <test+0xd8>
    80f8:	e59f2008 	ldr	r2, [pc, #8]	; 8108 <test+0xd0>
    80fc:	eb0002e1 	bl	8c88 <printk>
    8100:	eb000571 	bl	96cc <clean_reboot>
    8104:	0000a1e8 	andeq	sl, r0, r8, ror #3
    8108:	0000a290 	muleq	r0, r0, r2
    810c:	0000a21c 	andeq	sl, r0, ip, lsl r2
    8110:	0000a208 	andeq	sl, r0, r8, lsl #4

00008114 <notmain>:
    8114:	e92d4010 	push	{r4, lr}
    8118:	e59f0018 	ldr	r0, [pc, #24]	; 8138 <notmain+0x24>
    811c:	eb0002d9 	bl	8c88 <printk>
    8120:	ebffffc4 	bl	8038 <test>
    8124:	e8bd4010 	pop	{r4, lr}
    8128:	e1a02000 	mov	r2, r0
    812c:	e59f0008 	ldr	r0, [pc, #8]	; 813c <notmain+0x28>
    8130:	e512109c 	ldr	r1, [r2, #-156]	; 0xffffff64
    8134:	ea0002d3 	b	8c88 <printk>
    8138:	0000a228 	andeq	sl, r0, r8, lsr #4
    813c:	0000a264 	andeq	sl, r0, r4, ror #4

00008140 <ck_first_hdr>:
    8140:	e59f3004 	ldr	r3, [pc, #4]	; 814c <ck_first_hdr+0xc>
    8144:	e5930000 	ldr	r0, [r3]
    8148:	e12fff1e 	bx	lr
    814c:	0000aae0 	andeq	sl, r0, r0, ror #21

00008150 <ck_next_hdr>:
    8150:	e3500000 	cmp	r0, #0, 0
    8154:	012fff1e 	bxeq	lr
    8158:	e5900000 	ldr	r0, [r0]
    815c:	e12fff1e 	bx	lr

00008160 <list_remove>:
    8160:	e92d4030 	push	{r4, r5, lr}
    8164:	e24dd00c 	sub	sp, sp, #12, 0
    8168:	e2503000 	subs	r3, r0, #0, 0
    816c:	0a00000d 	beq	81a8 <list_remove+0x48>
    8170:	e1a04001 	mov	r4, r1
    8174:	e5930000 	ldr	r0, [r3]
    8178:	e1500001 	cmp	r0, r1
    817c:	0a000011 	beq	81c8 <list_remove+0x68>
    8180:	e1a05000 	mov	r5, r0
    8184:	ebfffff1 	bl	8150 <ck_next_hdr>
    8188:	e3500000 	cmp	r0, #0, 0
    818c:	0a000010 	beq	81d4 <list_remove+0x74>
    8190:	e1540000 	cmp	r4, r0
    8194:	1afffff9 	bne	8180 <list_remove+0x20>
    8198:	e5903000 	ldr	r3, [r0]
    819c:	e5853000 	str	r3, [r5]
    81a0:	e28dd00c 	add	sp, sp, #12, 0
    81a4:	e8bd8030 	pop	{r4, r5, pc}
    81a8:	e59f3040 	ldr	r3, [pc, #64]	; 81f0 <list_remove+0x90>
    81ac:	e58d3000 	str	r3, [sp]
    81b0:	e3a0303c 	mov	r3, #60, 0	; 0x3c
    81b4:	e59f2038 	ldr	r2, [pc, #56]	; 81f4 <list_remove+0x94>
    81b8:	e59f1038 	ldr	r1, [pc, #56]	; 81f8 <list_remove+0x98>
    81bc:	e59f0038 	ldr	r0, [pc, #56]	; 81fc <list_remove+0x9c>
    81c0:	eb0002b0 	bl	8c88 <printk>
    81c4:	eb000540 	bl	96cc <clean_reboot>
    81c8:	e5912000 	ldr	r2, [r1]
    81cc:	e5832000 	str	r2, [r3]
    81d0:	eafffff2 	b	81a0 <list_remove+0x40>
    81d4:	e58d4000 	str	r4, [sp]
    81d8:	e3a0304f 	mov	r3, #79, 0	; 0x4f
    81dc:	e59f2010 	ldr	r2, [pc, #16]	; 81f4 <list_remove+0x94>
    81e0:	e59f1010 	ldr	r1, [pc, #16]	; 81f8 <list_remove+0x98>
    81e4:	e59f0014 	ldr	r0, [pc, #20]	; 8200 <list_remove+0xa0>
    81e8:	eb0002a6 	bl	8c88 <printk>
    81ec:	eb000536 	bl	96cc <clean_reboot>
    81f0:	0000a2a4 	andeq	sl, r0, r4, lsr #5
    81f4:	0000a3c0 	andeq	sl, r0, r0, asr #7
    81f8:	0000a298 	muleq	r0, r8, r2
    81fc:	0000a208 	andeq	sl, r0, r8, lsl #4
    8200:	0000a2a8 	andeq	sl, r0, r8, lsr #5

00008204 <ck_hdr_start>:
    8204:	e28000a8 	add	r0, r0, #168, 0	; 0xa8
    8208:	e12fff1e 	bx	lr

0000820c <ck_hdr_end>:
    820c:	e92d4010 	push	{r4, lr}
    8210:	e1a04000 	mov	r4, r0
    8214:	ebfffffa 	bl	8204 <ck_hdr_start>
    8218:	e5943004 	ldr	r3, [r4, #4]
    821c:	e0800003 	add	r0, r0, r3
    8220:	e8bd8010 	pop	{r4, pc}

00008224 <ck_ptr_in_block>:
    8224:	e92d4070 	push	{r4, r5, r6, lr}
    8228:	e1a06000 	mov	r6, r0
    822c:	e1a04001 	mov	r4, r1
    8230:	ebfffff3 	bl	8204 <ck_hdr_start>
    8234:	e1a05000 	mov	r5, r0
    8238:	e1a00006 	mov	r0, r6
    823c:	ebfffff2 	bl	820c <ck_hdr_end>
    8240:	e1550004 	cmp	r5, r4
    8244:	91540000 	cmpls	r4, r0
    8248:	33a00001 	movcc	r0, #1, 0
    824c:	23a00000 	movcs	r0, #0, 0
    8250:	e8bd8070 	pop	{r4, r5, r6, pc}

00008254 <ck_ptr_is_alloced>:
    8254:	e92d4070 	push	{r4, r5, r6, lr}
    8258:	e1a05000 	mov	r5, r0
    825c:	ebffffb7 	bl	8140 <ck_first_hdr>
    8260:	e1a04000 	mov	r4, r0
    8264:	e3540000 	cmp	r4, #0, 0
    8268:	0a00000c 	beq	82a0 <ck_ptr_is_alloced+0x4c>
    826c:	e1a01005 	mov	r1, r5
    8270:	e1a00004 	mov	r0, r4
    8274:	ebffffea 	bl	8224 <ck_ptr_in_block>
    8278:	e3500000 	cmp	r0, #0, 0
    827c:	1a000003 	bne	8290 <ck_ptr_is_alloced+0x3c>
    8280:	e1a00004 	mov	r0, r4
    8284:	ebffffb1 	bl	8150 <ck_next_hdr>
    8288:	e1a04000 	mov	r4, r0
    828c:	eafffff4 	b	8264 <ck_ptr_is_alloced+0x10>
    8290:	e1a02004 	mov	r2, r4
    8294:	e1a01005 	mov	r1, r5
    8298:	e59f0008 	ldr	r0, [pc, #8]	; 82a8 <ck_ptr_is_alloced+0x54>
    829c:	eb000279 	bl	8c88 <printk>
    82a0:	e1a00004 	mov	r0, r4
    82a4:	e8bd8070 	pop	{r4, r5, r6, pc}
    82a8:	0000a2d4 	ldrdeq	sl, [r0], -r4

000082ac <ckfree>:
    82ac:	e92d43f0 	push	{r4, r5, r6, r7, r8, r9, lr}
    82b0:	e24dd01c 	sub	sp, sp, #28, 0
    82b4:	e1a05000 	mov	r5, r0
    82b8:	e28d0018 	add	r0, sp, #24, 0
    82bc:	e900000e 	stmdb	r0, {r1, r2, r3}
    82c0:	e59d600c 	ldr	r6, [sp, #12]
    82c4:	e59d7010 	ldr	r7, [sp, #16]
    82c8:	e59d8014 	ldr	r8, [sp, #20]
    82cc:	e1a03008 	mov	r3, r8
    82d0:	e1a02007 	mov	r2, r7
    82d4:	e1a01006 	mov	r1, r6
    82d8:	e59f012c 	ldr	r0, [pc, #300]	; 840c <ckfree+0x160>
    82dc:	eb000269 	bl	8c88 <printk>
    82e0:	e1a01005 	mov	r1, r5
    82e4:	e59f0124 	ldr	r0, [pc, #292]	; 8410 <ckfree+0x164>
    82e8:	eb000266 	bl	8c88 <printk>
    82ec:	e51530a0 	ldr	r3, [r5, #-160]	; 0xffffff60
    82f0:	e353000b 	cmp	r3, #11, 0
    82f4:	1a00000e 	bne	8334 <ckfree+0x88>
    82f8:	e24590a8 	sub	r9, r5, #168, 0	; 0xa8
    82fc:	e3a04000 	mov	r4, #0, 0
    8300:	e354007f 	cmp	r4, #127, 0	; 0x7f
    8304:	ca000026 	bgt	83a4 <ckfree+0xf8>
    8308:	e0853004 	add	r3, r5, r4
    830c:	e5533082 	ldrb	r3, [r3, #-130]	; 0xffffff7e
    8310:	e35300fe 	cmp	r3, #254, 0	; 0xfe
    8314:	1a00000f 	bne	8358 <ckfree+0xac>
    8318:	e51530a4 	ldr	r3, [r5, #-164]	; 0xffffff5c
    831c:	e0843003 	add	r3, r4, r3
    8320:	e7d53003 	ldrb	r3, [r5, r3]
    8324:	e35300fe 	cmp	r3, #254, 0	; 0xfe
    8328:	1a000015 	bne	8384 <ckfree+0xd8>
    832c:	e2844001 	add	r4, r4, #1, 0
    8330:	eafffff2 	b	8300 <ckfree+0x54>
    8334:	e1a03008 	mov	r3, r8
    8338:	e1a02007 	mov	r2, r7
    833c:	e1a01006 	mov	r1, r6
    8340:	e59f00cc 	ldr	r0, [pc, #204]	; 8414 <ckfree+0x168>
    8344:	eb00024f 	bl	8c88 <printk>
    8348:	e51510a0 	ldr	r1, [r5, #-160]	; 0xffffff60
    834c:	e59f00c4 	ldr	r0, [pc, #196]	; 8418 <ckfree+0x16c>
    8350:	eb00024c 	bl	8c88 <printk>
    8354:	eb0004dc 	bl	96cc <clean_reboot>
    8358:	e1a03008 	mov	r3, r8
    835c:	e1a02007 	mov	r2, r7
    8360:	e1a01006 	mov	r1, r6
    8364:	e59f00a8 	ldr	r0, [pc, #168]	; 8414 <ckfree+0x168>
    8368:	eb000246 	bl	8c88 <printk>
    836c:	e0854004 	add	r4, r5, r4
    8370:	e3a020fe 	mov	r2, #254, 0	; 0xfe
    8374:	e5541082 	ldrb	r1, [r4, #-130]	; 0xffffff7e
    8378:	e59f009c 	ldr	r0, [pc, #156]	; 841c <ckfree+0x170>
    837c:	eb000241 	bl	8c88 <printk>
    8380:	eb0004d1 	bl	96cc <clean_reboot>
    8384:	e1a03008 	mov	r3, r8
    8388:	e1a02007 	mov	r2, r7
    838c:	e1a01006 	mov	r1, r6
    8390:	e59f007c 	ldr	r0, [pc, #124]	; 8414 <ckfree+0x168>
    8394:	eb00023b 	bl	8c88 <printk>
    8398:	e59f0080 	ldr	r0, [pc, #128]	; 8420 <ckfree+0x174>
    839c:	eb000239 	bl	8c88 <printk>
    83a0:	eb0004c9 	bl	96cc <clean_reboot>
    83a4:	e3a03000 	mov	r3, #0, 0
    83a8:	e51520a4 	ldr	r2, [r5, #-164]	; 0xffffff5c
    83ac:	e1520003 	cmp	r2, r3
    83b0:	83e02001 	mvnhi	r2, #1, 0
    83b4:	87c52003 	strbhi	r2, [r5, r3]
    83b8:	82833001 	addhi	r3, r3, #1, 0
    83bc:	8afffff9 	bhi	83a8 <ckfree+0xfc>
    83c0:	e3a0300c 	mov	r3, #12, 0
    83c4:	e50530a0 	str	r3, [r5, #-160]	; 0xffffff60
    83c8:	e1a00005 	mov	r0, r5
    83cc:	ebffffa0 	bl	8254 <ck_ptr_is_alloced>
    83d0:	e3500000 	cmp	r0, #0, 0
    83d4:	0a000004 	beq	83ec <ckfree+0x140>
    83d8:	e1a01009 	mov	r1, r9
    83dc:	e59f0040 	ldr	r0, [pc, #64]	; 8424 <ckfree+0x178>
    83e0:	ebffff5e 	bl	8160 <list_remove>
    83e4:	e28dd01c 	add	sp, sp, #28, 0
    83e8:	e8bd83f0 	pop	{r4, r5, r6, r7, r8, r9, pc}
    83ec:	e59f3034 	ldr	r3, [pc, #52]	; 8428 <ckfree+0x17c>
    83f0:	e58d3000 	str	r3, [sp]
    83f4:	e3a03069 	mov	r3, #105, 0	; 0x69
    83f8:	e59f202c 	ldr	r2, [pc, #44]	; 842c <ckfree+0x180>
    83fc:	e59f102c 	ldr	r1, [pc, #44]	; 8430 <ckfree+0x184>
    8400:	e59f002c 	ldr	r0, [pc, #44]	; 8434 <ckfree+0x188>
    8404:	eb00021f 	bl	8c88 <printk>
    8408:	eb0004af 	bl	96cc <clean_reboot>
    840c:	0000a2e4 	andeq	sl, r0, r4, ror #5
    8410:	0000a2f0 	strdeq	sl, [r0], -r0
    8414:	0000a300 	andeq	sl, r0, r0, lsl #6
    8418:	0000a318 	andeq	sl, r0, r8, lsl r3
    841c:	0000a340 	andeq	sl, r0, r0, asr #6
    8420:	0000a370 	andeq	sl, r0, r0, ror r3
    8424:	0000aae0 	andeq	sl, r0, r0, ror #21
    8428:	0000a38c 	andeq	sl, r0, ip, lsl #7
    842c:	0000a3cc 	andeq	sl, r0, ip, asr #7
    8430:	0000a298 	muleq	r0, r8, r2
    8434:	0000a208 	andeq	sl, r0, r8, lsl #4

00008438 <ckalloc>:
    8438:	e92d4070 	push	{r4, r5, r6, lr}
    843c:	e24dd010 	sub	sp, sp, #16, 0
    8440:	e1a05000 	mov	r5, r0
    8444:	e28d0010 	add	r0, sp, #16, 0
    8448:	e900000e 	stmdb	r0, {r1, r2, r3}
    844c:	e2850f4a 	add	r0, r5, #296	; 0x128
    8450:	eb00004b 	bl	8584 <kr_malloc>
    8454:	e1a04000 	mov	r4, r0
    8458:	e3a020a8 	mov	r2, #168, 0	; 0xa8
    845c:	e3a01000 	mov	r1, #0, 0
    8460:	eb0001ea 	bl	8c10 <memset>
    8464:	e3a03000 	mov	r3, #0, 0
    8468:	e353007f 	cmp	r3, #127, 0	; 0x7f
    846c:	ca000007 	bgt	8490 <ckalloc+0x58>
    8470:	e0842003 	add	r2, r4, r3
    8474:	e3e01001 	mvn	r1, #1, 0
    8478:	e5c21026 	strb	r1, [r2, #38]	; 0x26
    847c:	e0832005 	add	r2, r3, r5
    8480:	e28220a8 	add	r2, r2, #168, 0	; 0xa8
    8484:	e7c41002 	strb	r1, [r4, r2]
    8488:	e2833001 	add	r3, r3, #1, 0
    848c:	eafffff5 	b	8468 <ckalloc+0x30>
    8490:	e5845004 	str	r5, [r4, #4]
    8494:	e3a0300b 	mov	r3, #11, 0
    8498:	e5843008 	str	r3, [r4, #8]
    849c:	e2843010 	add	r3, r4, #16, 0
    84a0:	e28d2010 	add	r2, sp, #16, 0
    84a4:	e9120007 	ldmdb	r2, {r0, r1, r2}
    84a8:	e8830007 	stm	r3, {r0, r1, r2}
    84ac:	e59d300c 	ldr	r3, [sp, #12]
    84b0:	e59d2008 	ldr	r2, [sp, #8]
    84b4:	e59d1004 	ldr	r1, [sp, #4]
    84b8:	e59f0030 	ldr	r0, [pc, #48]	; 84f0 <ckalloc+0xb8>
    84bc:	eb0001f1 	bl	8c88 <printk>
    84c0:	e28460a8 	add	r6, r4, #168, 0	; 0xa8
    84c4:	e1a02005 	mov	r2, r5
    84c8:	e1a01006 	mov	r1, r6
    84cc:	e59f0020 	ldr	r0, [pc, #32]	; 84f4 <ckalloc+0xbc>
    84d0:	eb0001ec 	bl	8c88 <printk>
    84d4:	e59f301c 	ldr	r3, [pc, #28]	; 84f8 <ckalloc+0xc0>
    84d8:	e5932000 	ldr	r2, [r3]
    84dc:	e5842000 	str	r2, [r4]
    84e0:	e5834000 	str	r4, [r3]
    84e4:	e1a00006 	mov	r0, r6
    84e8:	e28dd010 	add	sp, sp, #16, 0
    84ec:	e8bd8070 	pop	{r4, r5, r6, pc}
    84f0:	0000a2e4 	andeq	sl, r0, r4, ror #5
    84f4:	0000a3a4 	andeq	sl, r0, r4, lsr #7
    84f8:	0000aae0 	andeq	sl, r0, r0, ror #21

000084fc <kr_free>:
    84fc:	e92d4010 	push	{r4, lr}
    8500:	e59fe078 	ldr	lr, [pc, #120]	; 8580 <kr_free+0x84>
    8504:	e2401008 	sub	r1, r0, #8, 0
    8508:	e59e3000 	ldr	r3, [lr]
    850c:	ea000004 	b	8524 <kr_free+0x28>
    8510:	e1520001 	cmp	r2, r1
    8514:	8a000009 	bhi	8540 <kr_free+0x44>
    8518:	e1520003 	cmp	r2, r3
    851c:	9a000007 	bls	8540 <kr_free+0x44>
    8520:	e1a03002 	mov	r3, r2
    8524:	e1530001 	cmp	r3, r1
    8528:	e5932000 	ldr	r2, [r3]
    852c:	3afffff7 	bcc	8510 <kr_free+0x14>
    8530:	e1530002 	cmp	r3, r2
    8534:	3afffff9 	bcc	8520 <kr_free+0x24>
    8538:	e1510002 	cmp	r1, r2
    853c:	2afffff7 	bcs	8520 <kr_free+0x24>
    8540:	e510c004 	ldr	ip, [r0, #-4]
    8544:	e58e3000 	str	r3, [lr]
    8548:	e081418c 	add	r4, r1, ip, lsl #3
    854c:	e1520004 	cmp	r2, r4
    8550:	08920014 	ldmeq	r2, {r2, r4}
    8554:	008cc004 	addeq	ip, ip, r4
    8558:	0500c004 	streq	ip, [r0, #-4]
    855c:	e5934004 	ldr	r4, [r3, #4]
    8560:	e5002008 	str	r2, [r0, #-8]
    8564:	e0830184 	add	r0, r3, r4, lsl #3
    8568:	e1510000 	cmp	r1, r0
    856c:	01a01002 	moveq	r1, r2
    8570:	0084c00c 	addeq	ip, r4, ip
    8574:	0583c004 	streq	ip, [r3, #4]
    8578:	e5831000 	str	r1, [r3]
    857c:	e8bd8010 	pop	{r4, pc}
    8580:	0000aae8 	andeq	sl, r0, r8, ror #21

00008584 <kr_malloc>:
    8584:	e92d41f0 	push	{r4, r5, r6, r7, r8, lr}
    8588:	e59f50ec 	ldr	r5, [pc, #236]	; 867c <kr_malloc+0xf8>
    858c:	e2804007 	add	r4, r0, #7, 0
    8590:	e5951000 	ldr	r1, [r5]
    8594:	e1a041a4 	lsr	r4, r4, #3
    8598:	e3510000 	cmp	r1, #0, 0
    859c:	e2844001 	add	r4, r4, #1, 0
    85a0:	0a00002c 	beq	8658 <kr_malloc+0xd4>
    85a4:	e5910000 	ldr	r0, [r1]
    85a8:	e5902004 	ldr	r2, [r0, #4]
    85ac:	e1520004 	cmp	r2, r4
    85b0:	2a00002f 	bcs	8674 <kr_malloc+0xf0>
    85b4:	e3a07902 	mov	r7, #32768	; 0x8000
    85b8:	e59f60c0 	ldr	r6, [pc, #192]	; 8680 <kr_malloc+0xfc>
    85bc:	ea000003 	b	85d0 <kr_malloc+0x4c>
    85c0:	e5930000 	ldr	r0, [r3]
    85c4:	e5902004 	ldr	r2, [r0, #4]
    85c8:	e1520004 	cmp	r2, r4
    85cc:	2a000015 	bcs	8628 <kr_malloc+0xa4>
    85d0:	e1510000 	cmp	r1, r0
    85d4:	11a03000 	movne	r3, r0
    85d8:	1afffff8 	bne	85c0 <kr_malloc+0x3c>
    85dc:	e3a01902 	mov	r1, #32768	; 0x8000
    85e0:	e1a00006 	mov	r0, r6
    85e4:	eb0001a7 	bl	8c88 <printk>
    85e8:	e3a00701 	mov	r0, #262144	; 0x40000
    85ec:	eb0000ec 	bl	89a4 <sbrk>
    85f0:	e1a03000 	mov	r3, r0
    85f4:	e3730001 	cmn	r3, #1, 0
    85f8:	e2800008 	add	r0, r0, #8, 0
    85fc:	0a000013 	beq	8650 <kr_malloc+0xcc>
    8600:	e5837004 	str	r7, [r3, #4]
    8604:	ebffffbc 	bl	84fc <kr_free>
    8608:	e5953000 	ldr	r3, [r5]
    860c:	e3530000 	cmp	r3, #0, 0
    8610:	0a00000e 	beq	8650 <kr_malloc+0xcc>
    8614:	e5930000 	ldr	r0, [r3]
    8618:	e1a01003 	mov	r1, r3
    861c:	e5902004 	ldr	r2, [r0, #4]
    8620:	e1520004 	cmp	r2, r4
    8624:	3affffe9 	bcc	85d0 <kr_malloc+0x4c>
    8628:	e1520004 	cmp	r2, r4
    862c:	05902000 	ldreq	r2, [r0]
    8630:	10422004 	subne	r2, r2, r4
    8634:	15802004 	strne	r2, [r0, #4]
    8638:	10800182 	addne	r0, r0, r2, lsl #3
    863c:	15804004 	strne	r4, [r0, #4]
    8640:	05832000 	streq	r2, [r3]
    8644:	e5853000 	str	r3, [r5]
    8648:	e2800008 	add	r0, r0, #8, 0
    864c:	e8bd81f0 	pop	{r4, r5, r6, r7, r8, pc}
    8650:	e3a00000 	mov	r0, #0, 0
    8654:	e8bd81f0 	pop	{r4, r5, r6, r7, r8, pc}
    8658:	e2853008 	add	r3, r5, #8, 0
    865c:	e585100c 	str	r1, [r5, #12]
    8660:	e1a00003 	mov	r0, r3
    8664:	e1a01003 	mov	r1, r3
    8668:	e5853000 	str	r3, [r5]
    866c:	e5853008 	str	r3, [r5, #8]
    8670:	eaffffcf 	b	85b4 <kr_malloc+0x30>
    8674:	e1a03001 	mov	r3, r1
    8678:	eaffffea 	b	8628 <kr_malloc+0xa4>
    867c:	0000aae8 	andeq	sl, r0, r8, ror #21
    8680:	0000a3d4 	ldrdeq	sl, [r0], -r4

00008684 <mark>:
    8684:	e92d4ff0 	push	{r4, r5, r6, r7, r8, r9, sl, fp, lr}
    8688:	e1500001 	cmp	r0, r1
    868c:	23a03052 	movcs	r3, #82, 0	; 0x52
    8690:	259f2120 	ldrcs	r2, [pc, #288]	; 87b8 <mark+0x134>
    8694:	e24dd00c 	sub	sp, sp, #12, 0
    8698:	2a000040 	bcs	87a0 <mark+0x11c>
    869c:	e3100003 	tst	r0, #3, 0
    86a0:	e1a04000 	mov	r4, r0
    86a4:	1a00003b 	bne	8798 <mark+0x114>
    86a8:	e3110003 	tst	r1, #3, 0
    86ac:	13a03056 	movne	r3, #86, 0	; 0x56
    86b0:	159f2104 	ldrne	r2, [pc, #260]	; 87bc <mark+0x138>
    86b4:	1a000039 	bne	87a0 <mark+0x11c>
    86b8:	e0411000 	sub	r1, r1, r0
    86bc:	e3c11003 	bic	r1, r1, #3, 0
    86c0:	e2805004 	add	r5, r0, #4, 0
    86c4:	e59f70f4 	ldr	r7, [pc, #244]	; 87c0 <mark+0x13c>
    86c8:	e59fa0f4 	ldr	sl, [pc, #244]	; 87c4 <mark+0x140>
    86cc:	e0815005 	add	r5, r1, r5
    86d0:	e5940000 	ldr	r0, [r4]
    86d4:	e5973000 	ldr	r3, [r7]
    86d8:	e1a08004 	mov	r8, r4
    86dc:	e1500003 	cmp	r0, r3
    86e0:	e2844004 	add	r4, r4, #4, 0
    86e4:	3a00001a 	bcc	8754 <mark+0xd0>
    86e8:	e5973004 	ldr	r3, [r7, #4]
    86ec:	e1500003 	cmp	r0, r3
    86f0:	2a000017 	bcs	8754 <mark+0xd0>
    86f4:	ebfffed6 	bl	8254 <ck_ptr_is_alloced>
    86f8:	e2506000 	subs	r6, r0, #0, 0
    86fc:	0a000014 	beq	8754 <mark+0xd0>
    8700:	e1d692b4 	ldrh	r9, [r6, #36]	; 0x24
    8704:	ebfffebe 	bl	8204 <ck_hdr_start>
    8708:	e286b0a8 	add	fp, r6, #168, 0	; 0xa8
    870c:	e1a01000 	mov	r1, r0
    8710:	e5143004 	ldr	r3, [r4, #-4]
    8714:	e1a02008 	mov	r2, r8
    8718:	e1a0000a 	mov	r0, sl
    871c:	e58db000 	str	fp, [sp]
    8720:	eb000158 	bl	8c88 <printk>
    8724:	e3590001 	cmp	r9, #1, 0
    8728:	8a00000d 	bhi	8764 <mark+0xe0>
    872c:	e5143004 	ldr	r3, [r4, #-4]
    8730:	e59f0090 	ldr	r0, [pc, #144]	; 87c8 <mark+0x144>
    8734:	e15b0003 	cmp	fp, r3
    8738:	03a03002 	moveq	r3, #2, 0
    873c:	13a03001 	movne	r3, #1, 0
    8740:	e1a01003 	mov	r1, r3
    8744:	e1c632b4 	strh	r3, [r6, #36]	; 0x24
    8748:	eb00014e 	bl	8c88 <printk>
    874c:	e3590000 	cmp	r9, #0, 0
    8750:	0a000008 	beq	8778 <mark+0xf4>
    8754:	e1550004 	cmp	r5, r4
    8758:	1affffdc 	bne	86d0 <mark+0x4c>
    875c:	e28dd00c 	add	sp, sp, #12, 0
    8760:	e8bd8ff0 	pop	{r4, r5, r6, r7, r8, r9, sl, fp, pc}
    8764:	e59f0060 	ldr	r0, [pc, #96]	; 87cc <mark+0x148>
    8768:	eb000146 	bl	8c88 <printk>
    876c:	e1550004 	cmp	r5, r4
    8770:	1affffd6 	bne	86d0 <mark+0x4c>
    8774:	eafffff8 	b	875c <mark+0xd8>
    8778:	e5961004 	ldr	r1, [r6, #4]
    877c:	e2860004 	add	r0, r6, #4, 0
    8780:	e28110a8 	add	r1, r1, #168, 0	; 0xa8
    8784:	e0861001 	add	r1, r6, r1
    8788:	ebffffbd 	bl	8684 <mark>
    878c:	e1550004 	cmp	r5, r4
    8790:	1affffce 	bne	86d0 <mark+0x4c>
    8794:	eafffff0 	b	875c <mark+0xd8>
    8798:	e3a03055 	mov	r3, #85, 0	; 0x55
    879c:	e59f202c 	ldr	r2, [pc, #44]	; 87d0 <mark+0x14c>
    87a0:	e59f102c 	ldr	r1, [pc, #44]	; 87d4 <mark+0x150>
    87a4:	e58d2000 	str	r2, [sp]
    87a8:	e59f0028 	ldr	r0, [pc, #40]	; 87d8 <mark+0x154>
    87ac:	e59f2028 	ldr	r2, [pc, #40]	; 87dc <mark+0x158>
    87b0:	eb000134 	bl	8c88 <printk>
    87b4:	eb0003c4 	bl	96cc <clean_reboot>
    87b8:	0000a400 	andeq	sl, r0, r0, lsl #8
    87bc:	0000a418 	andeq	sl, r0, r8, lsl r4
    87c0:	0000aaf8 	strdeq	sl, [r0], -r8
    87c4:	0000a428 	andeq	sl, r0, r8, lsr #8
    87c8:	0000a454 	andeq	sl, r0, r4, asr r4
    87cc:	0000a464 	andeq	sl, r0, r4, ror #8
    87d0:	0000a408 	andeq	sl, r0, r8, lsl #8
    87d4:	0000a3f8 	strdeq	sl, [r0], -r8
    87d8:	0000a208 	andeq	sl, r0, r8, lsl #4
    87dc:	0000a710 	andeq	sl, r0, r0, lsl r7

000087e0 <mark_all>:
    87e0:	e92d4010 	push	{r4, lr}
    87e4:	e24dd040 	sub	sp, sp, #64, 0	; 0x40
    87e8:	ebfffe54 	bl	8140 <ck_first_hdr>
    87ec:	e3500000 	cmp	r0, #0, 0
    87f0:	0a000006 	beq	8810 <mark_all+0x30>
    87f4:	e3a04000 	mov	r4, #0, 0
    87f8:	e5804020 	str	r4, [r0, #32]
    87fc:	e580401c 	str	r4, [r0, #28]
    8800:	e1c042b4 	strh	r4, [r0, #36]	; 0x24
    8804:	ebfffe51 	bl	8150 <ck_next_hdr>
    8808:	e3500000 	cmp	r0, #0, 0
    880c:	1afffff9 	bne	87f8 <mark_all+0x18>
    8810:	e1a0000d 	mov	r0, sp
    8814:	eb0000fb 	bl	8c08 <dump_regs>
    8818:	e3a03000 	mov	r3, #0, 0
    881c:	e3a02000 	mov	r2, #0, 0
    8820:	e1a0000d 	mov	r0, sp
    8824:	e28d1038 	add	r1, sp, #56, 0	; 0x38
    8828:	e1cd20f0 	strd	r2, [sp]
    882c:	e1cd20f8 	strd	r2, [sp, #8]
    8830:	ebffff93 	bl	8684 <mark>
    8834:	e3a02302 	mov	r2, #134217728	; 0x8000000
    8838:	e59d1034 	ldr	r1, [sp, #52]	; 0x34
    883c:	e59f002c 	ldr	r0, [pc, #44]	; 8870 <mark_all+0x90>
    8840:	eb000110 	bl	8c88 <printk>
    8844:	e59d0034 	ldr	r0, [sp, #52]	; 0x34
    8848:	e3a01302 	mov	r1, #134217728	; 0x8000000
    884c:	ebffff8c 	bl	8684 <mark>
    8850:	e59f101c 	ldr	r1, [pc, #28]	; 8874 <mark_all+0x94>
    8854:	e59f001c 	ldr	r0, [pc, #28]	; 8878 <mark_all+0x98>
    8858:	ebffff89 	bl	8684 <mark>
    885c:	e59f1018 	ldr	r1, [pc, #24]	; 887c <mark_all+0x9c>
    8860:	e59f0018 	ldr	r0, [pc, #24]	; 8880 <mark_all+0xa0>
    8864:	ebffff86 	bl	8684 <mark>
    8868:	e28dd040 	add	sp, sp, #64, 0	; 0x40
    886c:	e8bd8010 	pop	{r4, pc}
    8870:	0000a474 	andeq	sl, r0, r4, ror r4
    8874:	0000af08 	andeq	sl, r0, r8, lsl #30
    8878:	0000aae0 	andeq	sl, r0, r0, ror #21
    887c:	0000aae0 	andeq	sl, r0, r0, ror #21
    8880:	0000aacc 	andeq	sl, r0, ip, asr #21

00008884 <sweep_leak>:
    8884:	e92d47f0 	push	{r4, r5, r6, r7, r8, r9, sl, lr}
    8888:	e1a08000 	mov	r8, r0
    888c:	e59f00f0 	ldr	r0, [pc, #240]	; 8984 <sweep_leak+0x100>
    8890:	eb0000fc 	bl	8c88 <printk>
    8894:	e59f00ec 	ldr	r0, [pc, #236]	; 8988 <sweep_leak+0x104>
    8898:	eb0000fa 	bl	8c88 <printk>
    889c:	ebffffcf 	bl	87e0 <mark_all>
    88a0:	ebfffe26 	bl	8140 <ck_first_hdr>
    88a4:	e2504000 	subs	r4, r0, #0, 0
    88a8:	0a00002d 	beq	8964 <sweep_leak+0xe0>
    88ac:	e3a07000 	mov	r7, #0, 0
    88b0:	e59fa0d4 	ldr	sl, [pc, #212]	; 898c <sweep_leak+0x108>
    88b4:	e1a06007 	mov	r6, r7
    88b8:	e1a05007 	mov	r5, r7
    88bc:	e59f90cc 	ldr	r9, [pc, #204]	; 8990 <sweep_leak+0x10c>
    88c0:	ea000005 	b	88dc <sweep_leak+0x58>
    88c4:	e3530001 	cmp	r3, #1, 0
    88c8:	0a00001f 	beq	894c <sweep_leak+0xc8>
    88cc:	e1a00004 	mov	r0, r4
    88d0:	ebfffe1e 	bl	8150 <ck_next_hdr>
    88d4:	e2504000 	subs	r4, r0, #0, 0
    88d8:	0a00000c 	beq	8910 <sweep_leak+0x8c>
    88dc:	e1d432b4 	ldrh	r3, [r4, #36]	; 0x24
    88e0:	e2855001 	add	r5, r5, #1, 0
    88e4:	e3530000 	cmp	r3, #0, 0
    88e8:	1afffff5 	bne	88c4 <sweep_leak+0x40>
    88ec:	e1a02004 	mov	r2, r4
    88f0:	e1a01005 	mov	r1, r5
    88f4:	e1a00009 	mov	r0, r9
    88f8:	eb0000e2 	bl	8c88 <printk>
    88fc:	e1a00004 	mov	r0, r4
    8900:	ebfffe12 	bl	8150 <ck_next_hdr>
    8904:	e2504000 	subs	r4, r0, #0, 0
    8908:	e2866001 	add	r6, r6, #1, 0
    890c:	1afffff2 	bne	88dc <sweep_leak+0x58>
    8910:	e1a01005 	mov	r1, r5
    8914:	e59f0078 	ldr	r0, [pc, #120]	; 8994 <sweep_leak+0x110>
    8918:	eb0000da 	bl	8c88 <printk>
    891c:	e1963007 	orrs	r3, r6, r7
    8920:	0a000012 	beq	8970 <sweep_leak+0xec>
    8924:	e1a02007 	mov	r2, r7
    8928:	e1a01006 	mov	r1, r6
    892c:	e59f0064 	ldr	r0, [pc, #100]	; 8998 <sweep_leak+0x114>
    8930:	eb0000d4 	bl	8c88 <printk>
    8934:	e59f0060 	ldr	r0, [pc, #96]	; 899c <sweep_leak+0x118>
    8938:	eb0000d2 	bl	8c88 <printk>
    893c:	e3580000 	cmp	r8, #0, 0
    8940:	10866007 	addne	r6, r6, r7
    8944:	e1a00006 	mov	r0, r6
    8948:	e8bd87f0 	pop	{r4, r5, r6, r7, r8, r9, sl, pc}
    894c:	e1a02004 	mov	r2, r4
    8950:	e1a01005 	mov	r1, r5
    8954:	e1a0000a 	mov	r0, sl
    8958:	e2877001 	add	r7, r7, #1, 0
    895c:	eb0000c9 	bl	8c88 <printk>
    8960:	eaffffd9 	b	88cc <sweep_leak+0x48>
    8964:	e1a01004 	mov	r1, r4
    8968:	e59f0024 	ldr	r0, [pc, #36]	; 8994 <sweep_leak+0x110>
    896c:	eb0000c5 	bl	8c88 <printk>
    8970:	e3a07000 	mov	r7, #0, 0
    8974:	e59f0024 	ldr	r0, [pc, #36]	; 89a0 <sweep_leak+0x11c>
    8978:	e1a06007 	mov	r6, r7
    897c:	eb0000c1 	bl	8c88 <printk>
    8980:	eaffffeb 	b	8934 <sweep_leak+0xb0>
    8984:	0000a490 	muleq	r0, r0, r4
    8988:	0000a4cc 	andeq	sl, r0, ip, asr #9
    898c:	0000a4f8 	strdeq	sl, [r0], -r8
    8990:	0000a4e4 	andeq	sl, r0, r4, ror #9
    8994:	0000a510 	andeq	sl, r0, r0, lsl r5
    8998:	0000a558 	andeq	sl, r0, r8, asr r5
    899c:	0000a588 	andeq	sl, r0, r8, lsl #11
    89a0:	0000a530 	andeq	sl, r0, r0, lsr r5

000089a4 <sbrk>:
    89a4:	e92d4030 	push	{r4, r5, lr}
    89a8:	e2504000 	subs	r4, r0, #0, 0
    89ac:	e24dd00c 	sub	sp, sp, #12, 0
    89b0:	da00000e 	ble	89f0 <sbrk+0x4c>
    89b4:	e59f506c 	ldr	r5, [pc, #108]	; 8a28 <sbrk+0x84>
    89b8:	e5953008 	ldr	r3, [r5, #8]
    89bc:	e3530000 	cmp	r3, #0, 0
    89c0:	1a000012 	bne	8a10 <sbrk+0x6c>
    89c4:	e3a01601 	mov	r1, #1048576	; 0x100000
    89c8:	e3a03602 	mov	r3, #2097152	; 0x200000
    89cc:	e1a00001 	mov	r0, r1
    89d0:	e885000a 	stm	r5, {r1, r3}
    89d4:	eb000478 	bl	9bbc <kmalloc_init_set_start>
    89d8:	e3a03001 	mov	r3, #1, 0
    89dc:	e1a00004 	mov	r0, r4
    89e0:	e5853008 	str	r3, [r5, #8]
    89e4:	e28dd00c 	add	sp, sp, #12, 0
    89e8:	e8bd4030 	pop	{r4, r5, lr}
    89ec:	ea0004d5 	b	9d48 <kmalloc>
    89f0:	e59f2034 	ldr	r2, [pc, #52]	; 8a2c <sbrk+0x88>
    89f4:	e3a03017 	mov	r3, #23, 0
    89f8:	e59f1030 	ldr	r1, [pc, #48]	; 8a30 <sbrk+0x8c>
    89fc:	e58d2000 	str	r2, [sp]
    8a00:	e59f002c 	ldr	r0, [pc, #44]	; 8a34 <sbrk+0x90>
    8a04:	e59f202c 	ldr	r2, [pc, #44]	; 8a38 <sbrk+0x94>
    8a08:	eb00009e 	bl	8c88 <printk>
    8a0c:	eb00032e 	bl	96cc <clean_reboot>
    8a10:	e3a03019 	mov	r3, #25, 0
    8a14:	e59f201c 	ldr	r2, [pc, #28]	; 8a38 <sbrk+0x94>
    8a18:	e59f1010 	ldr	r1, [pc, #16]	; 8a30 <sbrk+0x8c>
    8a1c:	e59f0018 	ldr	r0, [pc, #24]	; 8a3c <sbrk+0x98>
    8a20:	eb000098 	bl	8c88 <printk>
    8a24:	eb000328 	bl	96cc <clean_reboot>
    8a28:	0000aaf8 	strdeq	sl, [r0], -r8
    8a2c:	0000a5c4 	andeq	sl, r0, r4, asr #11
    8a30:	0000a3f8 	strdeq	sl, [r0], -r8
    8a34:	0000a208 	andeq	sl, r0, r8, lsl #4
    8a38:	0000a718 	andeq	sl, r0, r8, lsl r7
    8a3c:	0000a5d4 	ldrdeq	sl, [r0], -r4

00008a40 <ck_find_leaks>:
    8a40:	eaffff8f 	b	8884 <sweep_leak>

00008a44 <check_no_leak>:
    8a44:	e92d4010 	push	{r4, lr}
    8a48:	e3a00001 	mov	r0, #1, 0
    8a4c:	ebffff8c 	bl	8884 <sweep_leak>
    8a50:	e3500000 	cmp	r0, #0, 0
    8a54:	1a000002 	bne	8a64 <check_no_leak+0x20>
    8a58:	e59f001c 	ldr	r0, [pc, #28]	; 8a7c <check_no_leak+0x38>
    8a5c:	eb000089 	bl	8c88 <printk>
    8a60:	e8bd8010 	pop	{r4, pc}
    8a64:	e3a030dc 	mov	r3, #220, 0	; 0xdc
    8a68:	e59f2010 	ldr	r2, [pc, #16]	; 8a80 <check_no_leak+0x3c>
    8a6c:	e59f1010 	ldr	r1, [pc, #16]	; 8a84 <check_no_leak+0x40>
    8a70:	e59f0010 	ldr	r0, [pc, #16]	; 8a88 <check_no_leak+0x44>
    8a74:	eb000083 	bl	8c88 <printk>
    8a78:	eb000313 	bl	96cc <clean_reboot>
    8a7c:	0000a620 	andeq	sl, r0, r0, lsr #12
    8a80:	0000a720 	andeq	sl, r0, r0, lsr #14
    8a84:	0000a3f8 	strdeq	sl, [r0], -r8
    8a88:	0000a5f4 	strdeq	sl, [r0], -r4

00008a8c <check_should_leak>:
    8a8c:	e92d4010 	push	{r4, lr}
    8a90:	e3a00001 	mov	r0, #1, 0
    8a94:	ebffff7a 	bl	8884 <sweep_leak>
    8a98:	e2504000 	subs	r4, r0, #0, 0
    8a9c:	0a000004 	beq	8ab4 <check_should_leak+0x28>
    8aa0:	e1a01004 	mov	r1, r4
    8aa4:	e59f0020 	ldr	r0, [pc, #32]	; 8acc <check_should_leak+0x40>
    8aa8:	eb000076 	bl	8c88 <printk>
    8aac:	e1a00004 	mov	r0, r4
    8ab0:	e8bd8010 	pop	{r4, pc}
    8ab4:	e3a030eb 	mov	r3, #235, 0	; 0xeb
    8ab8:	e59f2010 	ldr	r2, [pc, #16]	; 8ad0 <check_should_leak+0x44>
    8abc:	e59f1010 	ldr	r1, [pc, #16]	; 8ad4 <check_should_leak+0x48>
    8ac0:	e59f0010 	ldr	r0, [pc, #16]	; 8ad8 <check_should_leak+0x4c>
    8ac4:	eb00006f 	bl	8c88 <printk>
    8ac8:	eb0002ff 	bl	96cc <clean_reboot>
    8acc:	0000a668 	andeq	sl, r0, r8, ror #12
    8ad0:	0000a730 	andeq	sl, r0, r0, lsr r7
    8ad4:	0000a3f8 	strdeq	sl, [r0], -r8
    8ad8:	0000a640 	andeq	sl, r0, r0, asr #12

00008adc <ck_gc>:
    8adc:	e92d4ff0 	push	{r4, r5, r6, r7, r8, r9, sl, fp, lr}
    8ae0:	e24dd014 	sub	sp, sp, #20, 0
    8ae4:	ebffff3d 	bl	87e0 <mark_all>
    8ae8:	e59f00d0 	ldr	r0, [pc, #208]	; 8bc0 <ck_gc+0xe4>
    8aec:	eb000065 	bl	8c88 <printk>
    8af0:	e59f00cc 	ldr	r0, [pc, #204]	; 8bc4 <ck_gc+0xe8>
    8af4:	eb000063 	bl	8c88 <printk>
    8af8:	ebffff38 	bl	87e0 <mark_all>
    8afc:	ebfffd8f 	bl	8140 <ck_first_hdr>
    8b00:	e2504000 	subs	r4, r0, #0, 0
    8b04:	0a000029 	beq	8bb0 <ck_gc+0xd4>
    8b08:	e3a05000 	mov	r5, #0, 0
    8b0c:	e1a07005 	mov	r7, r5
    8b10:	e1a06005 	mov	r6, r5
    8b14:	e59fa0ac 	ldr	sl, [pc, #172]	; 8bc8 <ck_gc+0xec>
    8b18:	e59f90ac 	ldr	r9, [pc, #172]	; 8bcc <ck_gc+0xf0>
    8b1c:	e59f80ac 	ldr	r8, [pc, #172]	; 8bd0 <ck_gc+0xf4>
    8b20:	e1d432b4 	ldrh	r3, [r4, #36]	; 0x24
    8b24:	e2866001 	add	r6, r6, #1, 0
    8b28:	e3530000 	cmp	r3, #0, 0
    8b2c:	0a00000b 	beq	8b60 <ck_gc+0x84>
    8b30:	e1a00004 	mov	r0, r4
    8b34:	ebfffd85 	bl	8150 <ck_next_hdr>
    8b38:	e2504000 	subs	r4, r0, #0, 0
    8b3c:	1afffff7 	bne	8b20 <ck_gc+0x44>
    8b40:	e1a02007 	mov	r2, r7
    8b44:	e1a01006 	mov	r1, r6
    8b48:	e1a03005 	mov	r3, r5
    8b4c:	e59f0080 	ldr	r0, [pc, #128]	; 8bd4 <ck_gc+0xf8>
    8b50:	eb00004c 	bl	8c88 <printk>
    8b54:	e1a00005 	mov	r0, r5
    8b58:	e28dd014 	add	sp, sp, #20, 0
    8b5c:	e8bd8ff0 	pop	{r4, r5, r6, r7, r8, r9, sl, fp, pc}
    8b60:	e59f3070 	ldr	r3, [pc, #112]	; 8bd8 <ck_gc+0xfc>
    8b64:	e594c004 	ldr	ip, [r4, #4]
    8b68:	e58d300c 	str	r3, [sp, #12]
    8b6c:	e284b0a8 	add	fp, r4, #168, 0	; 0xa8
    8b70:	e58da004 	str	sl, [sp, #4]
    8b74:	e58d9008 	str	r9, [sp, #8]
    8b78:	e28d3010 	add	r3, sp, #16, 0
    8b7c:	e913000e 	ldmdb	r3, {r1, r2, r3}
    8b80:	e1a0000b 	mov	r0, fp
    8b84:	e085500c 	add	r5, r5, ip
    8b88:	ebfffdc7 	bl	82ac <ckfree>
    8b8c:	e1a0100b 	mov	r1, fp
    8b90:	e1a00008 	mov	r0, r8
    8b94:	eb00003b 	bl	8c88 <printk>
    8b98:	e1a00004 	mov	r0, r4
    8b9c:	ebfffd6b 	bl	8150 <ck_next_hdr>
    8ba0:	e2504000 	subs	r4, r0, #0, 0
    8ba4:	e2877001 	add	r7, r7, #1, 0
    8ba8:	1affffdc 	bne	8b20 <ck_gc+0x44>
    8bac:	eaffffe3 	b	8b40 <ck_gc+0x64>
    8bb0:	e1a05004 	mov	r5, r4
    8bb4:	e1a07004 	mov	r7, r4
    8bb8:	e1a06004 	mov	r6, r4
    8bbc:	eaffffdf 	b	8b40 <ck_gc+0x64>
    8bc0:	0000a490 	muleq	r0, r0, r4
    8bc4:	0000a68c 	andeq	sl, r0, ip, lsl #13
    8bc8:	0000a3f8 	strdeq	sl, [r0], -r8
    8bcc:	0000a744 	andeq	sl, r0, r4, asr #14
    8bd0:	0000a69c 	muleq	r0, ip, r6
    8bd4:	0000a6ac 	andeq	sl, r0, ip, lsr #13
    8bd8:	00000101 	andeq	r0, r0, r1, lsl #2

00008bdc <implement_this>:
    8bdc:	e92d4010 	push	{r4, lr}
    8be0:	e59f3010 	ldr	r3, [pc, #16]	; 8bf8 <implement_this+0x1c>
    8be4:	e59f2010 	ldr	r2, [pc, #16]	; 8bfc <implement_this+0x20>
    8be8:	e59f1010 	ldr	r1, [pc, #16]	; 8c00 <implement_this+0x24>
    8bec:	e59f0010 	ldr	r0, [pc, #16]	; 8c04 <implement_this+0x28>
    8bf0:	eb000024 	bl	8c88 <printk>
    8bf4:	eb0002b4 	bl	96cc <clean_reboot>
    8bf8:	00000117 	andeq	r0, r0, r7, lsl r1
    8bfc:	0000a750 	andeq	sl, r0, r0, asr r7
    8c00:	0000a3f8 	strdeq	sl, [r0], -r8
    8c04:	0000a6e0 	andeq	sl, r0, r0, ror #13

00008c08 <dump_regs>:
    8c08:	e8a0ffff 	stmia	r0!, {r0, r1, r2, r3, r4, r5, r6, r7, r8, r9, sl, fp, ip, sp, lr, pc}
    8c0c:	e12fff1e 	bx	lr

00008c10 <memset>:
    8c10:	e92d4010 	push	{r4, lr}
    8c14:	e0804002 	add	r4, r0, r2
    8c18:	e1500004 	cmp	r0, r4
    8c1c:	28bd8010 	popcs	{r4, pc}
    8c20:	e2423001 	sub	r3, r2, #1, 0
    8c24:	e3530002 	cmp	r3, #2, 0
    8c28:	e6ef1071 	uxtb	r1, r1
    8c2c:	e1a03000 	mov	r3, r0
    8c30:	9a00000b 	bls	8c64 <memset+0x54>
    8c34:	e181e401 	orr	lr, r1, r1, lsl #8
    8c38:	e18ee801 	orr	lr, lr, r1, lsl #16
    8c3c:	e3c2c003 	bic	ip, r2, #3, 0
    8c40:	e18eec01 	orr	lr, lr, r1, lsl #24
    8c44:	e08cc000 	add	ip, ip, r0
    8c48:	e483e004 	str	lr, [r3], #4
    8c4c:	e153000c 	cmp	r3, ip
    8c50:	1afffffc 	bne	8c48 <memset+0x38>
    8c54:	e3c23003 	bic	r3, r2, #3, 0
    8c58:	e1520003 	cmp	r2, r3
    8c5c:	e0803003 	add	r3, r0, r3
    8c60:	08bd8010 	popeq	{r4, pc}
    8c64:	e1a02003 	mov	r2, r3
    8c68:	e4c21001 	strb	r1, [r2], #1
    8c6c:	e1540002 	cmp	r4, r2
    8c70:	98bd8010 	popls	{r4, pc}
    8c74:	e2832002 	add	r2, r3, #2, 0
    8c78:	e1540002 	cmp	r4, r2
    8c7c:	e5c31001 	strb	r1, [r3, #1]
    8c80:	85c31002 	strbhi	r1, [r3, #2]
    8c84:	e8bd8010 	pop	{r4, pc}

00008c88 <printk>:
    8c88:	e92d000f 	push	{r0, r1, r2, r3}
    8c8c:	e92d4030 	push	{r4, r5, lr}
    8c90:	e59f5040 	ldr	r5, [pc, #64]	; 8cd8 <printk+0x50>
    8c94:	e24dd00c 	sub	sp, sp, #12, 0
    8c98:	e28d301c 	add	r3, sp, #28, 0
    8c9c:	e3a01b01 	mov	r1, #1024	; 0x400
    8ca0:	e59d2018 	ldr	r2, [sp, #24]
    8ca4:	e1a00005 	mov	r0, r5
    8ca8:	e58d3004 	str	r3, [sp, #4]
    8cac:	eb0000fb 	bl	90a0 <va_printk>
    8cb0:	e1a04000 	mov	r4, r0
    8cb4:	e59f3020 	ldr	r3, [pc, #32]	; 8cdc <printk+0x54>
    8cb8:	e1a00005 	mov	r0, r5
    8cbc:	e5933000 	ldr	r3, [r3]
    8cc0:	e12fff33 	blx	r3
    8cc4:	e1a00004 	mov	r0, r4
    8cc8:	e28dd00c 	add	sp, sp, #12, 0
    8ccc:	e8bd4030 	pop	{r4, r5, lr}
    8cd0:	e28dd010 	add	sp, sp, #16, 0
    8cd4:	e12fff1e 	bx	lr
    8cd8:	0000ab04 	andeq	sl, r0, r4, lsl #22
    8cdc:	0000aacc 	andeq	sl, r0, ip, asr #21

00008ce0 <internal_putk>:
    8ce0:	e92d4070 	push	{r4, r5, r6, lr}
    8ce4:	e1a04000 	mov	r4, r0
    8ce8:	e5d00000 	ldrb	r0, [r0]
    8cec:	e3500000 	cmp	r0, #0, 0
    8cf0:	0a000005 	beq	8d0c <internal_putk+0x2c>
    8cf4:	e59f5018 	ldr	r5, [pc, #24]	; 8d14 <internal_putk+0x34>
    8cf8:	e5953000 	ldr	r3, [r5]
    8cfc:	e12fff33 	blx	r3
    8d00:	e5f40001 	ldrb	r0, [r4, #1]!
    8d04:	e3500000 	cmp	r0, #0, 0
    8d08:	1afffffa 	bne	8cf8 <internal_putk+0x18>
    8d0c:	e3a00001 	mov	r0, #1, 0
    8d10:	e8bd8070 	pop	{r4, r5, r6, pc}
    8d14:	0000aadc 	ldrdeq	sl, [r0], -ip

00008d18 <emit.constprop.0>:
    8d18:	e92d41f0 	push	{r4, r5, r6, r7, r8, lr}
    8d1c:	e3530080 	cmp	r3, #128, 0	; 0x80
    8d20:	e1a0c000 	mov	ip, r0
    8d24:	e24dd048 	sub	sp, sp, #72, 0	; 0x48
    8d28:	e1a00001 	mov	r0, r1
    8d2c:	ca000069 	bgt	8ed8 <emit.constprop.0+0x1c0>
    8d30:	e24c1002 	sub	r1, ip, #2, 0
    8d34:	e1a0c002 	mov	ip, r2
    8d38:	e351000e 	cmp	r1, #14, 0
    8d3c:	979ff101 	ldrls	pc, [pc, r1, lsl #2]
    8d40:	ea0000a7 	b	8fe4 <emit.constprop.0+0x2cc>
    8d44:	00008eb0 			; <UNDEFINED> instruction: 0x00008eb0
    8d48:	00008fe4 	andeq	r8, r0, r4, ror #31
    8d4c:	00008fe4 	andeq	r8, r0, r4, ror #31
    8d50:	00008fe4 	andeq	r8, r0, r4, ror #31
    8d54:	00008fe4 	andeq	r8, r0, r4, ror #31
    8d58:	00008fe4 	andeq	r8, r0, r4, ror #31
    8d5c:	00008f8c 	andeq	r8, r0, ip, lsl #31
    8d60:	00008fe4 	andeq	r8, r0, r4, ror #31
    8d64:	00008f2c 	andeq	r8, r0, ip, lsr #30
    8d68:	00008fe4 	andeq	r8, r0, r4, ror #31
    8d6c:	00008fe4 	andeq	r8, r0, r4, ror #31
    8d70:	00008fe4 	andeq	r8, r0, r4, ror #31
    8d74:	00008fe4 	andeq	r8, r0, r4, ror #31
    8d78:	00008fe4 	andeq	r8, r0, r4, ror #31
    8d7c:	00008d84 	andeq	r8, r0, r4, lsl #27
    8d80:	e3a0307f 	mov	r3, #127, 0	; 0x7f
    8d84:	e28d2008 	add	r2, sp, #8, 0
    8d88:	e1a04002 	mov	r4, r2
    8d8c:	e59f1288 	ldr	r1, [pc, #648]	; 901c <emit.constprop.0+0x304>
    8d90:	e20ce00f 	and	lr, ip, #15, 0
    8d94:	e7d1e00e 	ldrb	lr, [r1, lr]
    8d98:	e35c000f 	cmp	ip, #15, 0
    8d9c:	e4c4e001 	strb	lr, [r4], #1
    8da0:	e1a0c22c 	lsr	ip, ip, #4
    8da4:	8afffff9 	bhi	8d90 <emit.constprop.0+0x78>
    8da8:	e3a0c078 	mov	ip, #120, 0	; 0x78
    8dac:	e1a0e004 	mov	lr, r4
    8db0:	e3a01030 	mov	r1, #48, 0	; 0x30
    8db4:	e4cec002 	strb	ip, [lr], #2
    8db8:	e5c41001 	strb	r1, [r4, #1]
    8dbc:	e04e1002 	sub	r1, lr, r2
    8dc0:	e1510003 	cmp	r1, r3
    8dc4:	aa000083 	bge	8fd8 <emit.constprop.0+0x2c0>
    8dc8:	e1510003 	cmp	r1, r3
    8dcc:	a3a0c001 	movge	ip, #1, 0
    8dd0:	b3a0c000 	movlt	ip, #0, 0
    8dd4:	e2434001 	sub	r4, r3, #1, 0
    8dd8:	e0444001 	sub	r4, r4, r1
    8ddc:	b0436001 	sublt	r6, r3, r1
    8de0:	a3a06001 	movge	r6, #1, 0
    8de4:	e3540002 	cmp	r4, #2, 0
    8de8:	938cc001 	orrls	ip, ip, #1, 0
    8dec:	e35c0000 	cmp	ip, #0, 0
    8df0:	1a000075 	bne	8fcc <emit.constprop.0+0x2b4>
    8df4:	e1a0c00e 	mov	ip, lr
    8df8:	e3c65003 	bic	r5, r6, #3, 0
    8dfc:	e59f721c 	ldr	r7, [pc, #540]	; 9020 <emit.constprop.0+0x308>
    8e00:	e085500e 	add	r5, r5, lr
    8e04:	e48c7004 	str	r7, [ip], #4
    8e08:	e15c0005 	cmp	ip, r5
    8e0c:	1afffffc 	bne	8e04 <emit.constprop.0+0xec>
    8e10:	e3c6c003 	bic	ip, r6, #3, 0
    8e14:	e156000c 	cmp	r6, ip
    8e18:	e08e500c 	add	r5, lr, ip
    8e1c:	e08cc001 	add	ip, ip, r1
    8e20:	0a000008 	beq	8e48 <emit.constprop.0+0x130>
    8e24:	e3a07020 	mov	r7, #32, 0
    8e28:	e28c8001 	add	r8, ip, #1, 0
    8e2c:	e1580003 	cmp	r8, r3
    8e30:	e5c57000 	strb	r7, [r5]
    8e34:	aa000003 	bge	8e48 <emit.constprop.0+0x130>
    8e38:	e28cc002 	add	ip, ip, #2, 0
    8e3c:	e15c0003 	cmp	ip, r3
    8e40:	e5c57001 	strb	r7, [r5, #1]
    8e44:	b5c57002 	strblt	r7, [r5, #2]
    8e48:	e1510003 	cmp	r1, r3
    8e4c:	a3a04000 	movge	r4, #0, 0
    8e50:	e08e6006 	add	r6, lr, r6
    8e54:	e0461002 	sub	r1, r6, r2
    8e58:	e08ee004 	add	lr, lr, r4
    8e5c:	e3a03000 	mov	r3, #0, 0
    8e60:	e351007f 	cmp	r1, #127, 0	; 0x7f
    8e64:	c241407f 	subgt	r4, r1, #127, 0	; 0x7f
    8e68:	c0822004 	addgt	r2, r2, r4
    8e6c:	e152000e 	cmp	r2, lr
    8e70:	e5c63000 	strb	r3, [r6]
    8e74:	8a00004f 	bhi	8fb8 <emit.constprop.0+0x2a0>
    8e78:	e28ee001 	add	lr, lr, #1, 0
    8e7c:	e1a0300e 	mov	r3, lr
    8e80:	e240c001 	sub	ip, r0, #1, 0
    8e84:	e5734001 	ldrb	r4, [r3, #-1]!
    8e88:	e1530002 	cmp	r3, r2
    8e8c:	e5ec4001 	strb	r4, [ip, #1]!
    8e90:	1afffffb 	bne	8e84 <emit.constprop.0+0x16c>
    8e94:	e04ee003 	sub	lr, lr, r3
    8e98:	e3a03000 	mov	r3, #0, 0
    8e9c:	e080e00e 	add	lr, r0, lr
    8ea0:	e5ce3000 	strb	r3, [lr]
    8ea4:	e28dd048 	add	sp, sp, #72, 0	; 0x48
    8ea8:	e8bd81f0 	pop	{r4, r5, r6, r7, r8, pc}
    8eac:	e3a0307f 	mov	r3, #127, 0	; 0x7f
    8eb0:	e28d2008 	add	r2, sp, #8, 0
    8eb4:	e1a0e002 	mov	lr, r2
    8eb8:	e59f1164 	ldr	r1, [pc, #356]	; 9024 <emit.constprop.0+0x30c>
    8ebc:	e20c4001 	and	r4, ip, #1, 0
    8ec0:	e7d14004 	ldrb	r4, [r1, r4]
    8ec4:	e35c0001 	cmp	ip, #1, 0
    8ec8:	e4ce4001 	strb	r4, [lr], #1
    8ecc:	e1a0c0ac 	lsr	ip, ip, #1
    8ed0:	8afffff9 	bhi	8ebc <emit.constprop.0+0x1a4>
    8ed4:	eaffffb8 	b	8dbc <emit.constprop.0+0xa4>
    8ed8:	e24c3002 	sub	r3, ip, #2, 0
    8edc:	e1a0c002 	mov	ip, r2
    8ee0:	e353000e 	cmp	r3, #14, 0
    8ee4:	979ff103 	ldrls	pc, [pc, r3, lsl #2]
    8ee8:	ea00003d 	b	8fe4 <emit.constprop.0+0x2cc>
    8eec:	00008eac 	andeq	r8, r0, ip, lsr #29
    8ef0:	00008fe4 	andeq	r8, r0, r4, ror #31
    8ef4:	00008fe4 	andeq	r8, r0, r4, ror #31
    8ef8:	00008fe4 	andeq	r8, r0, r4, ror #31
    8efc:	00008fe4 	andeq	r8, r0, r4, ror #31
    8f00:	00008fe4 	andeq	r8, r0, r4, ror #31
    8f04:	00009004 	andeq	r9, r0, r4
    8f08:	00008fe4 	andeq	r8, r0, r4, ror #31
    8f0c:	00008f28 	andeq	r8, r0, r8, lsr #30
    8f10:	00008fe4 	andeq	r8, r0, r4, ror #31
    8f14:	00008fe4 	andeq	r8, r0, r4, ror #31
    8f18:	00008fe4 	andeq	r8, r0, r4, ror #31
    8f1c:	00008fe4 	andeq	r8, r0, r4, ror #31
    8f20:	00008fe4 	andeq	r8, r0, r4, ror #31
    8f24:	00008d80 	andeq	r8, r0, r0, lsl #27
    8f28:	e3a0307f 	mov	r3, #127, 0	; 0x7f
    8f2c:	e59d1060 	ldr	r1, [sp, #96]	; 0x60
    8f30:	e59f70f0 	ldr	r7, [pc, #240]	; 9028 <emit.constprop.0+0x310>
    8f34:	e0118fa2 	ands	r8, r1, r2, lsr #31
    8f38:	1262c000 	rsbne	ip, r2, #0, 0
    8f3c:	e28d2008 	add	r2, sp, #8, 0
    8f40:	13a08001 	movne	r8, #1, 0
    8f44:	e1a0e002 	mov	lr, r2
    8f48:	e59f60dc 	ldr	r6, [pc, #220]	; 902c <emit.constprop.0+0x314>
    8f4c:	e1a0500c 	mov	r5, ip
    8f50:	e0814c96 	umull	r4, r1, r6, ip
    8f54:	e1a011a1 	lsr	r1, r1, #3
    8f58:	e0814101 	add	r4, r1, r1, lsl #2
    8f5c:	e04cc084 	sub	ip, ip, r4, lsl #1
    8f60:	e7d7400c 	ldrb	r4, [r7, ip]
    8f64:	e3550009 	cmp	r5, #9, 0
    8f68:	e1a0c001 	mov	ip, r1
    8f6c:	e1a0100e 	mov	r1, lr
    8f70:	e4ce4001 	strb	r4, [lr], #1
    8f74:	8afffff4 	bhi	8f4c <emit.constprop.0+0x234>
    8f78:	e3580000 	cmp	r8, #0, 0
    8f7c:	13a0c02d 	movne	ip, #45, 0	; 0x2d
    8f80:	15cec000 	strbne	ip, [lr]
    8f84:	1281e002 	addne	lr, r1, #2, 0
    8f88:	eaffff8b 	b	8dbc <emit.constprop.0+0xa4>
    8f8c:	e3530001 	cmp	r3, #1, 0
    8f90:	e5cd2008 	strb	r2, [sp, #8]
    8f94:	c3a01001 	movgt	r1, #1, 0
    8f98:	c28de009 	addgt	lr, sp, #9, 0
    8f9c:	c28d2008 	addgt	r2, sp, #8, 0
    8fa0:	caffff88 	bgt	8dc8 <emit.constprop.0+0xb0>
    8fa4:	e3a03000 	mov	r3, #0, 0
    8fa8:	e28de008 	add	lr, sp, #8, 0
    8fac:	e1a0200e 	mov	r2, lr
    8fb0:	e5cd3009 	strb	r3, [sp, #9]
    8fb4:	eaffffaf 	b	8e78 <emit.constprop.0+0x160>
    8fb8:	e1a0e000 	mov	lr, r0
    8fbc:	e3a03000 	mov	r3, #0, 0
    8fc0:	e5ce3000 	strb	r3, [lr]
    8fc4:	e28dd048 	add	sp, sp, #72, 0	; 0x48
    8fc8:	e8bd81f0 	pop	{r4, r5, r6, r7, r8, pc}
    8fcc:	e1a0c001 	mov	ip, r1
    8fd0:	e1a0500e 	mov	r5, lr
    8fd4:	eaffff92 	b	8e24 <emit.constprop.0+0x10c>
    8fd8:	e1a0600e 	mov	r6, lr
    8fdc:	e24ee001 	sub	lr, lr, #1, 0
    8fe0:	eaffff9d 	b	8e5c <emit.constprop.0+0x144>
    8fe4:	e59f2044 	ldr	r2, [pc, #68]	; 9030 <emit.constprop.0+0x318>
    8fe8:	e3a03079 	mov	r3, #121, 0	; 0x79
    8fec:	e59f1040 	ldr	r1, [pc, #64]	; 9034 <emit.constprop.0+0x31c>
    8ff0:	e58d2000 	str	r2, [sp]
    8ff4:	e59f003c 	ldr	r0, [pc, #60]	; 9038 <emit.constprop.0+0x320>
    8ff8:	e59f203c 	ldr	r2, [pc, #60]	; 903c <emit.constprop.0+0x324>
    8ffc:	ebffff21 	bl	8c88 <printk>
    9000:	eb0001b1 	bl	96cc <clean_reboot>
    9004:	e5cd2008 	strb	r2, [sp, #8]
    9008:	e3a0307f 	mov	r3, #127, 0	; 0x7f
    900c:	e3a01001 	mov	r1, #1, 0
    9010:	e28de009 	add	lr, sp, #9, 0
    9014:	e28d2008 	add	r2, sp, #8, 0
    9018:	eaffff6a 	b	8dc8 <emit.constprop.0+0xb0>
    901c:	0000a774 	andeq	sl, r0, r4, ror r7
    9020:	20202020 	eorcs	r2, r0, r0, lsr #32
    9024:	0000a788 	andeq	sl, r0, r8, lsl #15
    9028:	0000a78c 	andeq	sl, r0, ip, lsl #15
    902c:	cccccccd 	stclgt	12, cr12, [ip], {205}	; 0xcd
    9030:	0000a5d0 	ldrdeq	sl, [r0], -r0
    9034:	0000a760 	andeq	sl, r0, r0, ror #14
    9038:	0000a208 	andeq	sl, r0, r8, lsl #4
    903c:	0000a8a0 	andeq	sl, r0, r0, lsr #17

00009040 <rpi_set_output>:
    9040:	e3500000 	cmp	r0, #0, 0
    9044:	0a000005 	beq	9060 <rpi_set_output+0x20>
    9048:	e59f3038 	ldr	r3, [pc, #56]	; 9088 <rpi_set_output+0x48>
    904c:	e3510000 	cmp	r1, #0, 0
    9050:	e5830000 	str	r0, [r3]
    9054:	159f3030 	ldrne	r3, [pc, #48]	; 908c <rpi_set_output+0x4c>
    9058:	15831000 	strne	r1, [r3]
    905c:	e12fff1e 	bx	lr
    9060:	e52de004 	push	{lr}		; (str lr, [sp, #-4]!)
    9064:	e59f2024 	ldr	r2, [pc, #36]	; 9090 <rpi_set_output+0x50>
    9068:	e24dd00c 	sub	sp, sp, #12, 0
    906c:	e3a03020 	mov	r3, #32, 0
    9070:	e59f101c 	ldr	r1, [pc, #28]	; 9094 <rpi_set_output+0x54>
    9074:	e58d2000 	str	r2, [sp]
    9078:	e59f0018 	ldr	r0, [pc, #24]	; 9098 <rpi_set_output+0x58>
    907c:	e59f2018 	ldr	r2, [pc, #24]	; 909c <rpi_set_output+0x5c>
    9080:	ebffff00 	bl	8c88 <printk>
    9084:	eb000190 	bl	96cc <clean_reboot>
    9088:	0000aadc 	ldrdeq	sl, [r0], -ip
    908c:	0000aacc 	andeq	sl, r0, ip, asr #21
    9090:	0000a798 	muleq	r0, r8, r7
    9094:	0000a760 	andeq	sl, r0, r0, ror #14
    9098:	0000a208 	andeq	sl, r0, r8, lsl #4
    909c:	0000a8a8 	andeq	sl, r0, r8, lsr #17

000090a0 <va_printk>:
    90a0:	e92d4ff0 	push	{r4, r5, r6, r7, r8, r9, sl, fp, lr}
    90a4:	e1a0b000 	mov	fp, r0
    90a8:	e3a00000 	mov	r0, #0, 0
    90ac:	e5cb0000 	strb	r0, [fp]
    90b0:	e5d2c000 	ldrb	ip, [r2]
    90b4:	e2417001 	sub	r7, r1, #1, 0
    90b8:	e08b7007 	add	r7, fp, r7
    90bc:	e15c0000 	cmp	ip, r0
    90c0:	115b0007 	cmpne	fp, r7
    90c4:	e24ddf47 	sub	sp, sp, #284	; 0x11c
    90c8:	e58d2010 	str	r2, [sp, #16]
    90cc:	2a000159 	bcs	9638 <va_printk+0x598>
    90d0:	e1a06002 	mov	r6, r2
    90d4:	e1a08003 	mov	r8, r3
    90d8:	e1a0400b 	mov	r4, fp
    90dc:	e59fa5a4 	ldr	sl, [pc, #1444]	; 9688 <va_printk+0x5e8>
    90e0:	e58db00c 	str	fp, [sp, #12]
    90e4:	ea000005 	b	9100 <va_printk+0x60>
    90e8:	e4c4c001 	strb	ip, [r4], #1
    90ec:	e2866001 	add	r6, r6, #1, 0
    90f0:	e5d6c000 	ldrb	ip, [r6]
    90f4:	e35c0000 	cmp	ip, #0, 0
    90f8:	11570004 	cmpne	r7, r4
    90fc:	9a00002f 	bls	91c0 <va_printk+0x120>
    9100:	e35c0025 	cmp	ip, #37, 0	; 0x25
    9104:	1afffff7 	bne	90e8 <va_printk+0x48>
    9108:	e5d62001 	ldrb	r2, [r6, #1]
    910c:	e3520025 	cmp	r2, #37, 0	; 0x25
    9110:	04c4c001 	strbeq	ip, [r4], #1
    9114:	02866002 	addeq	r6, r6, #2, 0
    9118:	0afffff4 	beq	90f0 <va_printk+0x50>
    911c:	e2423030 	sub	r3, r2, #48, 0	; 0x30
    9120:	e3530009 	cmp	r3, #9, 0
    9124:	e3a05000 	mov	r5, #0, 0
    9128:	e2866001 	add	r6, r6, #1, 0
    912c:	8a000008 	bhi	9154 <va_printk+0xb4>
    9130:	e0855105 	add	r5, r5, r5, lsl #2
    9134:	e0825085 	add	r5, r2, r5, lsl #1
    9138:	e5f62001 	ldrb	r2, [r6, #1]!
    913c:	e2455030 	sub	r5, r5, #48, 0	; 0x30
    9140:	e2423030 	sub	r3, r2, #48, 0	; 0x30
    9144:	e3530009 	cmp	r3, #9, 0
    9148:	9afffff8 	bls	9130 <va_printk+0x90>
    914c:	e355001f 	cmp	r5, #31, 0
    9150:	8a00013a 	bhi	9640 <va_printk+0x5a0>
    9154:	e2423062 	sub	r3, r2, #98, 0	; 0x62
    9158:	e3530016 	cmp	r3, #22, 0
    915c:	979ff103 	ldrls	pc, [pc, r3, lsl #2]
    9160:	ea00011b 	b	95d4 <va_printk+0x534>
    9164:	00009418 	andeq	r9, r0, r8, lsl r4
    9168:	00009314 	andeq	r9, r0, r4, lsl r3
    916c:	0000930c 	andeq	r9, r0, ip, lsl #6
    9170:	000095d4 	ldrdeq	r9, [r0], -r4
    9174:	00009610 	andeq	r9, r0, r0, lsl r6
    9178:	000095d4 	ldrdeq	r9, [r0], -r4
    917c:	000095d4 	ldrdeq	r9, [r0], -r4
    9180:	000095d4 	ldrdeq	r9, [r0], -r4
    9184:	000095d4 	ldrdeq	r9, [r0], -r4
    9188:	000095d4 	ldrdeq	r9, [r0], -r4
    918c:	0000921c 	andeq	r9, r0, ip, lsl r2
    9190:	000095d4 	ldrdeq	r9, [r0], -r4
    9194:	000095d4 	ldrdeq	r9, [r0], -r4
    9198:	000095d4 	ldrdeq	r9, [r0], -r4
    919c:	000091d8 	ldrdeq	r9, [r0], -r8
    91a0:	000095d4 	ldrdeq	r9, [r0], -r4
    91a4:	000095d4 	ldrdeq	r9, [r0], -r4
    91a8:	00009510 	andeq	r9, r0, r0, lsl r5
    91ac:	000095d4 	ldrdeq	r9, [r0], -r4
    91b0:	000092e8 	andeq	r9, r0, r8, ror #5
    91b4:	000095d4 	ldrdeq	r9, [r0], -r4
    91b8:	000095d4 	ldrdeq	r9, [r0], -r4
    91bc:	000091d8 	ldrdeq	r9, [r0], -r8
    91c0:	e59db00c 	ldr	fp, [sp, #12]
    91c4:	e3a03000 	mov	r3, #0, 0
    91c8:	e4c43001 	strb	r3, [r4], #1
    91cc:	e044000b 	sub	r0, r4, fp
    91d0:	e28ddf47 	add	sp, sp, #284	; 0x11c
    91d4:	e8bd8ff0 	pop	{r4, r5, r6, r7, r8, r9, sl, fp, pc}
    91d8:	e3a01000 	mov	r1, #0, 0
    91dc:	e1a03005 	mov	r3, r5
    91e0:	e4982004 	ldr	r2, [r8], #4
    91e4:	e3a00010 	mov	r0, #16, 0
    91e8:	e58d1000 	str	r1, [sp]
    91ec:	e28d1018 	add	r1, sp, #24, 0
    91f0:	ebfffec8 	bl	8d18 <emit.constprop.0>
    91f4:	e1a05000 	mov	r5, r0
    91f8:	e2866001 	add	r6, r6, #1, 0
    91fc:	e2455001 	sub	r5, r5, #1, 0
    9200:	e5f53001 	ldrb	r3, [r5, #1]!
    9204:	e3530000 	cmp	r3, #0, 0
    9208:	0affffb8 	beq	90f0 <va_printk+0x50>
    920c:	e4c43001 	strb	r3, [r4], #1
    9210:	e1570004 	cmp	r7, r4
    9214:	8afffff9 	bhi	9200 <va_printk+0x160>
    9218:	eaffffb4 	b	90f0 <va_printk+0x50>
    921c:	e3a02003 	mov	r2, #3, 0
    9220:	e1a00006 	mov	r0, r6
    9224:	e59f1460 	ldr	r1, [pc, #1120]	; 968c <va_printk+0x5ec>
    9228:	eb0003da 	bl	a198 <strncmp>
    922c:	e3500000 	cmp	r0, #0, 0
    9230:	0a000005 	beq	924c <va_printk+0x1ac>
    9234:	e3a02003 	mov	r2, #3, 0
    9238:	e1a00006 	mov	r0, r6
    923c:	e59f144c 	ldr	r1, [pc, #1100]	; 9690 <va_printk+0x5f0>
    9240:	eb0003d4 	bl	a198 <strncmp>
    9244:	e3500000 	cmp	r0, #0, 0
    9248:	1a00010b 	bne	967c <va_printk+0x5dc>
    924c:	e2888007 	add	r8, r8, #7, 0
    9250:	e3c88007 	bic	r8, r8, #7, 0
    9254:	e598b004 	ldr	fp, [r8, #4]
    9258:	e4989008 	ldr	r9, [r8], #8
    925c:	e1a0100b 	mov	r1, fp
    9260:	e59f042c 	ldr	r0, [pc, #1068]	; 9694 <va_printk+0x5f4>
    9264:	ebfffe87 	bl	8c88 <printk>
    9268:	e1a01009 	mov	r1, r9
    926c:	e59f0424 	ldr	r0, [pc, #1060]	; 9698 <va_printk+0x5f8>
    9270:	ebfffe84 	bl	8c88 <printk>
    9274:	e3a02003 	mov	r2, #3, 0
    9278:	e1a00006 	mov	r0, r6
    927c:	e59f1408 	ldr	r1, [pc, #1032]	; 968c <va_printk+0x5ec>
    9280:	eb0003c4 	bl	a198 <strncmp>
    9284:	e2503000 	subs	r3, r0, #0, 0
    9288:	e1a02003 	mov	r2, r3
    928c:	e2863002 	add	r3, r6, #2, 0
    9290:	e58d3014 	str	r3, [sp, #20]
    9294:	1a00009f 	bne	9518 <va_printk+0x478>
    9298:	e1a06002 	mov	r6, r2
    929c:	e1a03005 	mov	r3, r5
    92a0:	e58d2000 	str	r2, [sp]
    92a4:	e28d1018 	add	r1, sp, #24, 0
    92a8:	e1a0200b 	mov	r2, fp
    92ac:	e3a00010 	mov	r0, #16, 0
    92b0:	ebfffe98 	bl	8d18 <emit.constprop.0>
    92b4:	e1a0c000 	mov	ip, r0
    92b8:	e1a03005 	mov	r3, r5
    92bc:	e58d6000 	str	r6, [sp]
    92c0:	e28d1098 	add	r1, sp, #152, 0	; 0x98
    92c4:	e1a02009 	mov	r2, r9
    92c8:	e3a00010 	mov	r0, #16, 0
    92cc:	e1a0500c 	mov	r5, ip
    92d0:	ebfffe90 	bl	8d18 <emit.constprop.0>
    92d4:	e28d0018 	add	r0, sp, #24, 0
    92d8:	e28d109a 	add	r1, sp, #154, 0	; 0x9a
    92dc:	e59d6014 	ldr	r6, [sp, #20]
    92e0:	eb00038a 	bl	a110 <strcat>
    92e4:	eaffffc3 	b	91f8 <va_printk+0x158>
    92e8:	e3a01000 	mov	r1, #0, 0
    92ec:	e1a03005 	mov	r3, r5
    92f0:	e4982004 	ldr	r2, [r8], #4
    92f4:	e3a0000a 	mov	r0, #10, 0
    92f8:	e58d1000 	str	r1, [sp]
    92fc:	e28d1018 	add	r1, sp, #24, 0
    9300:	ebfffe84 	bl	8d18 <emit.constprop.0>
    9304:	e1a05000 	mov	r5, r0
    9308:	eaffffba 	b	91f8 <va_printk+0x158>
    930c:	e3a01001 	mov	r1, #1, 0
    9310:	eafffff5 	b	92ec <va_printk+0x24c>
    9314:	e4983004 	ldr	r3, [r8], #4
    9318:	e3550001 	cmp	r5, #1, 0
    931c:	e5cd3098 	strb	r3, [sp, #152]	; 0x98
    9320:	9a0000a6 	bls	95c0 <va_printk+0x520>
    9324:	e2453002 	sub	r3, r5, #2, 0
    9328:	e3530002 	cmp	r3, #2, 0
    932c:	e2451001 	sub	r1, r5, #1, 0
    9330:	9a0000bc 	bls	9628 <va_printk+0x588>
    9334:	e59f0360 	ldr	r0, [pc, #864]	; 969c <va_printk+0x5fc>
    9338:	e1a02121 	lsr	r2, r1, #2
    933c:	e3520001 	cmp	r2, #1, 0
    9340:	e58d0099 	str	r0, [sp, #153]	; 0x99
    9344:	0a00000e 	beq	9384 <va_printk+0x2e4>
    9348:	e3520002 	cmp	r2, #2, 0
    934c:	e58d009d 	str	r0, [sp, #157]	; 0x9d
    9350:	0a00000b 	beq	9384 <va_printk+0x2e4>
    9354:	e3520003 	cmp	r2, #3, 0
    9358:	e58d00a1 	str	r0, [sp, #161]	; 0xa1
    935c:	0a000008 	beq	9384 <va_printk+0x2e4>
    9360:	e3520004 	cmp	r2, #4, 0
    9364:	e58d00a5 	str	r0, [sp, #165]	; 0xa5
    9368:	0a000005 	beq	9384 <va_printk+0x2e4>
    936c:	e3520005 	cmp	r2, #5, 0
    9370:	e58d00a9 	str	r0, [sp, #169]	; 0xa9
    9374:	0a000002 	beq	9384 <va_printk+0x2e4>
    9378:	e3520007 	cmp	r2, #7, 0
    937c:	e58d00ad 	str	r0, [sp, #173]	; 0xad
    9380:	058d00b1 	streq	r0, [sp, #177]	; 0xb1
    9384:	e3c12003 	bic	r2, r1, #3, 0
    9388:	e1510002 	cmp	r1, r2
    938c:	e28dc099 	add	ip, sp, #153, 0	; 0x99
    9390:	e08c0002 	add	r0, ip, r2
    9394:	e2822001 	add	r2, r2, #1, 0
    9398:	0a000008 	beq	93c0 <va_printk+0x320>
    939c:	e3a0e020 	mov	lr, #32, 0
    93a0:	e2829001 	add	r9, r2, #1, 0
    93a4:	e1550009 	cmp	r5, r9
    93a8:	e5c0e000 	strb	lr, [r0]
    93ac:	da000003 	ble	93c0 <va_printk+0x320>
    93b0:	e2822002 	add	r2, r2, #2, 0
    93b4:	e1550002 	cmp	r5, r2
    93b8:	e5c0e001 	strb	lr, [r0, #1]
    93bc:	c5c0e002 	strbgt	lr, [r0, #2]
    93c0:	e3a0e000 	mov	lr, #0, 0
    93c4:	e28d0098 	add	r0, sp, #152, 0	; 0x98
    93c8:	e08c2001 	add	r2, ip, r1
    93cc:	e0422000 	sub	r2, r2, r0
    93d0:	e352007f 	cmp	r2, #127, 0	; 0x7f
    93d4:	c242207f 	subgt	r2, r2, #127, 0	; 0x7f
    93d8:	e08c3003 	add	r3, ip, r3
    93dc:	c0800002 	addgt	r0, r0, r2
    93e0:	e1530000 	cmp	r3, r0
    93e4:	e7cce001 	strb	lr, [ip, r1]
    93e8:	3a00006c 	bcc	95a0 <va_printk+0x500>
    93ec:	e283c001 	add	ip, r3, #1, 0
    93f0:	e1a0300c 	mov	r3, ip
    93f4:	e28d5018 	add	r5, sp, #24, 0
    93f8:	e2452001 	sub	r2, r5, #1, 0
    93fc:	e5731001 	ldrb	r1, [r3, #-1]!
    9400:	e1500003 	cmp	r0, r3
    9404:	e5e21001 	strb	r1, [r2, #1]!
    9408:	1afffffb 	bne	93fc <va_printk+0x35c>
    940c:	e04c3000 	sub	r3, ip, r0
    9410:	e0853003 	add	r3, r5, r3
    9414:	ea00003a 	b	9504 <va_printk+0x464>
    9418:	e28d1098 	add	r1, sp, #152, 0	; 0x98
    941c:	e1a03001 	mov	r3, r1
    9420:	e4980004 	ldr	r0, [r8], #4
    9424:	e200c001 	and	ip, r0, #1, 0
    9428:	e7dac00c 	ldrb	ip, [sl, ip]
    942c:	e3500001 	cmp	r0, #1, 0
    9430:	e1a02003 	mov	r2, r3
    9434:	e1a000a0 	lsr	r0, r0, #1
    9438:	e4c3c001 	strb	ip, [r3], #1
    943c:	8afffff8 	bhi	9424 <va_printk+0x384>
    9440:	e0430001 	sub	r0, r3, r1
    9444:	e1550000 	cmp	r5, r0
    9448:	da000057 	ble	95ac <va_printk+0x50c>
    944c:	e045c000 	sub	ip, r5, r0
    9450:	e24ce001 	sub	lr, ip, #1, 0
    9454:	e35e0002 	cmp	lr, #2, 0
    9458:	e1a0e003 	mov	lr, r3
    945c:	9a00000a 	bls	948c <va_printk+0x3ec>
    9460:	e3cc9003 	bic	r9, ip, #3, 0
    9464:	e0899003 	add	r9, r9, r3
    9468:	e59fb22c 	ldr	fp, [pc, #556]	; 969c <va_printk+0x5fc>
    946c:	e48eb004 	str	fp, [lr], #4
    9470:	e15e0009 	cmp	lr, r9
    9474:	1afffffb 	bne	9468 <va_printk+0x3c8>
    9478:	e3cce003 	bic	lr, ip, #3, 0
    947c:	e15e000c 	cmp	lr, ip
    9480:	e080000e 	add	r0, r0, lr
    9484:	e083e00e 	add	lr, r3, lr
    9488:	0a000008 	beq	94b0 <va_printk+0x410>
    948c:	e3a09020 	mov	r9, #32, 0
    9490:	e280b001 	add	fp, r0, #1, 0
    9494:	e155000b 	cmp	r5, fp
    9498:	e5ce9000 	strb	r9, [lr]
    949c:	da000003 	ble	94b0 <va_printk+0x410>
    94a0:	e2800002 	add	r0, r0, #2, 0
    94a4:	e1550000 	cmp	r5, r0
    94a8:	e5ce9001 	strb	r9, [lr, #1]
    94ac:	c5ce9002 	strbgt	r9, [lr, #2]
    94b0:	e3a0e000 	mov	lr, #0, 0
    94b4:	e083000c 	add	r0, r3, ip
    94b8:	e0400001 	sub	r0, r0, r1
    94bc:	e350007f 	cmp	r0, #127, 0	; 0x7f
    94c0:	e082200c 	add	r2, r2, ip
    94c4:	e7c3e00c 	strb	lr, [r3, ip]
    94c8:	da000001 	ble	94d4 <va_printk+0x434>
    94cc:	e240007f 	sub	r0, r0, #127, 0	; 0x7f
    94d0:	e0811000 	add	r1, r1, r0
    94d4:	e1510002 	cmp	r1, r2
    94d8:	8a000030 	bhi	95a0 <va_printk+0x500>
    94dc:	e2822001 	add	r2, r2, #1, 0
    94e0:	e1a03002 	mov	r3, r2
    94e4:	e28d5018 	add	r5, sp, #24, 0
    94e8:	e245c001 	sub	ip, r5, #1, 0
    94ec:	e5730001 	ldrb	r0, [r3, #-1]!
    94f0:	e1530001 	cmp	r3, r1
    94f4:	e5ec0001 	strb	r0, [ip, #1]!
    94f8:	1afffffb 	bne	94ec <va_printk+0x44c>
    94fc:	e0423003 	sub	r3, r2, r3
    9500:	e0853003 	add	r3, r5, r3
    9504:	e3a02000 	mov	r2, #0, 0
    9508:	e5c32000 	strb	r2, [r3]
    950c:	eaffff39 	b	91f8 <va_printk+0x158>
    9510:	e4985004 	ldr	r5, [r8], #4
    9514:	eaffff37 	b	91f8 <va_printk+0x158>
    9518:	e3a02003 	mov	r2, #3, 0
    951c:	e1a00006 	mov	r0, r6
    9520:	e59f1168 	ldr	r1, [pc, #360]	; 9690 <va_printk+0x5f0>
    9524:	eb00031b 	bl	a198 <strncmp>
    9528:	e2503000 	subs	r3, r0, #0, 0
    952c:	1a00004b 	bne	9660 <va_printk+0x5c0>
    9530:	e1a06003 	mov	r6, r3
    9534:	e1a0200b 	mov	r2, fp
    9538:	e58d3000 	str	r3, [sp]
    953c:	e28d1018 	add	r1, sp, #24, 0
    9540:	e1a03005 	mov	r3, r5
    9544:	e3a0000a 	mov	r0, #10, 0
    9548:	ebfffdf2 	bl	8d18 <emit.constprop.0>
    954c:	e1a0c000 	mov	ip, r0
    9550:	e1a03005 	mov	r3, r5
    9554:	e1a02009 	mov	r2, r9
    9558:	e28d1098 	add	r1, sp, #152, 0	; 0x98
    955c:	e3a0000a 	mov	r0, #10, 0
    9560:	e58d6000 	str	r6, [sp]
    9564:	e1a0500c 	mov	r5, ip
    9568:	ebfffdea 	bl	8d18 <emit.constprop.0>
    956c:	e59f112c 	ldr	r1, [pc, #300]	; 96a0 <va_printk+0x600>
    9570:	e28d0018 	add	r0, sp, #24, 0
    9574:	eb0002f0 	bl	a13c <strcmp>
    9578:	e3500000 	cmp	r0, #0, 0
    957c:	e28d1098 	add	r1, sp, #152, 0	; 0x98
    9580:	e28d0018 	add	r0, sp, #24, 0
    9584:	1a000002 	bne	9594 <va_printk+0x4f4>
    9588:	eb0002fc 	bl	a180 <strcpy>
    958c:	e59d6014 	ldr	r6, [sp, #20]
    9590:	eaffff18 	b	91f8 <va_printk+0x158>
    9594:	eb0002dd 	bl	a110 <strcat>
    9598:	e59d6014 	ldr	r6, [sp, #20]
    959c:	eaffff15 	b	91f8 <va_printk+0x158>
    95a0:	e28d5018 	add	r5, sp, #24, 0
    95a4:	e1a03005 	mov	r3, r5
    95a8:	eaffffd5 	b	9504 <va_printk+0x464>
    95ac:	e3a0c000 	mov	ip, #0, 0
    95b0:	e350007f 	cmp	r0, #127, 0	; 0x7f
    95b4:	e5c3c000 	strb	ip, [r3]
    95b8:	caffffc3 	bgt	94cc <va_printk+0x42c>
    95bc:	eaffffc6 	b	94dc <va_printk+0x43c>
    95c0:	e3a02000 	mov	r2, #0, 0
    95c4:	e28d3098 	add	r3, sp, #152, 0	; 0x98
    95c8:	e1a00003 	mov	r0, r3
    95cc:	e5cd2099 	strb	r2, [sp, #153]	; 0x99
    95d0:	eaffff85 	b	93ec <va_printk+0x34c>
    95d4:	e3a03000 	mov	r3, #0, 0
    95d8:	e1a01002 	mov	r1, r2
    95dc:	e5c63001 	strb	r3, [r6, #1]
    95e0:	e59f00bc 	ldr	r0, [pc, #188]	; 96a4 <va_printk+0x604>
    95e4:	ebfffda7 	bl	8c88 <printk>
    95e8:	e59f30b8 	ldr	r3, [pc, #184]	; 96a8 <va_printk+0x608>
    95ec:	e59d0010 	ldr	r0, [sp, #16]
    95f0:	e5933000 	ldr	r3, [r3]
    95f4:	e12fff33 	blx	r3
    95f8:	e3a030e2 	mov	r3, #226, 0	; 0xe2
    95fc:	e59f20a8 	ldr	r2, [pc, #168]	; 96ac <va_printk+0x60c>
    9600:	e59f10a8 	ldr	r1, [pc, #168]	; 96b0 <va_printk+0x610>
    9604:	e59f00a8 	ldr	r0, [pc, #168]	; 96b4 <va_printk+0x614>
    9608:	ebfffd9e 	bl	8c88 <printk>
    960c:	eb00002e 	bl	96cc <clean_reboot>
    9610:	e3a030be 	mov	r3, #190, 0	; 0xbe
    9614:	e59f2090 	ldr	r2, [pc, #144]	; 96ac <va_printk+0x60c>
    9618:	e59f1090 	ldr	r1, [pc, #144]	; 96b0 <va_printk+0x610>
    961c:	e59f0094 	ldr	r0, [pc, #148]	; 96b8 <va_printk+0x618>
    9620:	ebfffd98 	bl	8c88 <printk>
    9624:	eb000028 	bl	96cc <clean_reboot>
    9628:	e28dc099 	add	ip, sp, #153, 0	; 0x99
    962c:	e1a0000c 	mov	r0, ip
    9630:	e3a02001 	mov	r2, #1, 0
    9634:	eaffff58 	b	939c <va_printk+0x2fc>
    9638:	e1a0400b 	mov	r4, fp
    963c:	eafffee0 	b	91c4 <va_printk+0x124>
    9640:	e3a03098 	mov	r3, #152, 0	; 0x98
    9644:	e59f2070 	ldr	r2, [pc, #112]	; 96bc <va_printk+0x61c>
    9648:	e59f1060 	ldr	r1, [pc, #96]	; 96b0 <va_printk+0x610>
    964c:	e58d2000 	str	r2, [sp]
    9650:	e59f0068 	ldr	r0, [pc, #104]	; 96c0 <va_printk+0x620>
    9654:	e59f2050 	ldr	r2, [pc, #80]	; 96ac <va_printk+0x60c>
    9658:	ebfffd8a 	bl	8c88 <printk>
    965c:	eb00001a 	bl	96cc <clean_reboot>
    9660:	e3a030b6 	mov	r3, #182, 0	; 0xb6
    9664:	e59f2040 	ldr	r2, [pc, #64]	; 96ac <va_printk+0x60c>
    9668:	e59f1040 	ldr	r1, [pc, #64]	; 96b0 <va_printk+0x610>
    966c:	e59f0050 	ldr	r0, [pc, #80]	; 96c4 <va_printk+0x624>
    9670:	e58d6000 	str	r6, [sp]
    9674:	ebfffd83 	bl	8c88 <printk>
    9678:	eb000013 	bl	96cc <clean_reboot>
    967c:	e3a0309f 	mov	r3, #159, 0	; 0x9f
    9680:	e59f2040 	ldr	r2, [pc, #64]	; 96c8 <va_printk+0x628>
    9684:	eaffffef 	b	9648 <va_printk+0x5a8>
    9688:	0000a788 	andeq	sl, r0, r8, lsl #15
    968c:	0000a7ac 	andeq	sl, r0, ip, lsr #15
    9690:	0000a7c0 	andeq	sl, r0, r0, asr #15
    9694:	0000a7b0 			; <UNDEFINED> instruction: 0x0000a7b0
    9698:	0000a7b8 			; <UNDEFINED> instruction: 0x0000a7b8
    969c:	20202020 	eorcs	r2, r0, r0, lsr #32
    96a0:	0000a5d0 	ldrdeq	sl, [r0], -r0
    96a4:	0000a850 	andeq	sl, r0, r0, asr r8
    96a8:	0000aacc 	andeq	sl, r0, ip, asr #21
    96ac:	0000a8b8 			; <UNDEFINED> instruction: 0x0000a8b8
    96b0:	0000a760 	andeq	sl, r0, r0, ror #14
    96b4:	0000a880 	andeq	sl, r0, r0, lsl #17
    96b8:	0000a828 	andeq	sl, r0, r8, lsr #16
    96bc:	0000a7a0 	andeq	sl, r0, r0, lsr #15
    96c0:	0000a208 	andeq	sl, r0, r8, lsl #4
    96c4:	0000a800 	andeq	sl, r0, r0, lsl #16
    96c8:	0000a7c4 	andeq	sl, r0, r4, asr #15

000096cc <clean_reboot>:
    96cc:	e59f301c 	ldr	r3, [pc, #28]	; 96f0 <clean_reboot+0x24>
    96d0:	e92d4010 	push	{r4, lr}
    96d4:	e5933000 	ldr	r3, [r3]
    96d8:	e59f0014 	ldr	r0, [pc, #20]	; 96f4 <clean_reboot+0x28>
    96dc:	e12fff33 	blx	r3
    96e0:	eb00011b 	bl	9b54 <uart_flush_tx>
    96e4:	e3a0000a 	mov	r0, #10, 0
    96e8:	eb000082 	bl	98f8 <delay_ms>
    96ec:	eb00004b 	bl	9820 <rpi_reboot>
    96f0:	0000aacc 	andeq	sl, r0, ip, asr #21
    96f4:	0000a8c4 	andeq	sl, r0, r4, asr #17

000096f8 <_cstart>:
    96f8:	e92d4070 	push	{r4, r5, r6, lr}
    96fc:	eb00003b 	bl	97f0 <custom_loader>
    9700:	e59f20e0 	ldr	r2, [pc, #224]	; 97e8 <_cstart+0xf0>
    9704:	e59fc0e0 	ldr	ip, [pc, #224]	; 97ec <_cstart+0xf4>
    9708:	e152000c 	cmp	r2, ip
    970c:	2a00002e 	bcs	97cc <_cstart+0xd4>
    9710:	e24c1001 	sub	r1, ip, #1, 0
    9714:	e0411002 	sub	r1, r1, r2
    9718:	e3510017 	cmp	r1, #23, 0
    971c:	e1a03122 	lsr	r3, r2, #2
    9720:	e1a01121 	lsr	r1, r1, #2
    9724:	e2811001 	add	r1, r1, #1, 0
    9728:	e2033001 	and	r3, r3, #1, 0
    972c:	9a00002b 	bls	97e0 <_cstart+0xe8>
    9730:	e3530000 	cmp	r3, #0, 0
    9734:	11a00002 	movne	r0, r2
    9738:	13a0e000 	movne	lr, #0, 0
    973c:	e3a04000 	mov	r4, #0, 0
    9740:	e3a05000 	mov	r5, #0, 0
    9744:	e0411003 	sub	r1, r1, r3
    9748:	01a00002 	moveq	r0, r2
    974c:	e0823103 	add	r3, r2, r3, lsl #2
    9750:	e1a020a1 	lsr	r2, r1, #1
    9754:	1480e004 	strne	lr, [r0], #4
    9758:	e0832182 	add	r2, r3, r2, lsl #3
    975c:	e0c340f8 	strd	r4, [r3], #8
    9760:	e1520003 	cmp	r2, r3
    9764:	1afffffc 	bne	975c <_cstart+0x64>
    9768:	e3c13001 	bic	r3, r1, #1, 0
    976c:	e1510003 	cmp	r1, r3
    9770:	e0803103 	add	r3, r0, r3, lsl #2
    9774:	0a000014 	beq	97cc <_cstart+0xd4>
    9778:	e1a01003 	mov	r1, r3
    977c:	e3a02000 	mov	r2, #0, 0
    9780:	e4812004 	str	r2, [r1], #4
    9784:	e151000c 	cmp	r1, ip
    9788:	2a00000f 	bcs	97cc <_cstart+0xd4>
    978c:	e2831008 	add	r1, r3, #8, 0
    9790:	e151000c 	cmp	r1, ip
    9794:	e5832004 	str	r2, [r3, #4]
    9798:	2a00000b 	bcs	97cc <_cstart+0xd4>
    979c:	e283100c 	add	r1, r3, #12, 0
    97a0:	e151000c 	cmp	r1, ip
    97a4:	e5832008 	str	r2, [r3, #8]
    97a8:	2a000007 	bcs	97cc <_cstart+0xd4>
    97ac:	e2831010 	add	r1, r3, #16, 0
    97b0:	e151000c 	cmp	r1, ip
    97b4:	e583200c 	str	r2, [r3, #12]
    97b8:	2a000003 	bcs	97cc <_cstart+0xd4>
    97bc:	e2831014 	add	r1, r3, #20, 0
    97c0:	e151000c 	cmp	r1, ip
    97c4:	e5832010 	str	r2, [r3, #16]
    97c8:	35832014 	strcc	r2, [r3, #20]
    97cc:	eb000082 	bl	99dc <uart_init>
    97d0:	e3a03001 	mov	r3, #1, 0
    97d4:	ee0f3f1c 	mcr	15, 0, r3, cr15, cr12, {0}
    97d8:	ebfffa4d 	bl	8114 <notmain>
    97dc:	ebffffba 	bl	96cc <clean_reboot>
    97e0:	e1a03002 	mov	r3, r2
    97e4:	eaffffe3 	b	9778 <_cstart+0x80>
    97e8:	0000aae0 	andeq	sl, r0, r0, ror #21
    97ec:	0000af08 	andeq	sl, r0, r8, lsl #30

000097f0 <custom_loader>:
    97f0:	e12fff1e 	bx	lr

000097f4 <at_user_level>:
    97f4:	e10f0000 	mrs	r0, CPSR
    97f8:	e200001f 	and	r0, r0, #31, 0
    97fc:	e2400010 	sub	r0, r0, #16, 0
    9800:	e16f0f10 	clz	r0, r0
    9804:	e1a002a0 	lsr	r0, r0, #5
    9808:	e12fff1e 	bx	lr

0000980c <set_user_level>:
    980c:	e10f3000 	mrs	r3, CPSR
    9810:	e3c3301f 	bic	r3, r3, #31, 0
    9814:	e3833010 	orr	r3, r3, #16, 0
    9818:	e129f003 	msr	CPSR_fc, r3
    981c:	e12fff1e 	bx	lr

00009820 <rpi_reboot>:
    9820:	e92d4010 	push	{r4, lr}
    9824:	e10f3000 	mrs	r3, CPSR
    9828:	e203301f 	and	r3, r3, #31, 0
    982c:	e3530010 	cmp	r3, #16, 0
    9830:	1a000003 	bne	9844 <rpi_reboot+0x24>
    9834:	e10f3000 	mrs	r3, CPSR
    9838:	e3c3301f 	bic	r3, r3, #31, 0
    983c:	e3833010 	orr	r3, r3, #16, 0
    9840:	e129f003 	msr	CPSR_fc, r3
    9844:	eb00025f 	bl	a1c8 <reboot_callout>
    9848:	eb0000c1 	bl	9b54 <uart_flush_tx>
    984c:	e3a0000a 	mov	r0, #10, 0
    9850:	eb000028 	bl	98f8 <delay_ms>
    9854:	e59f1014 	ldr	r1, [pc, #20]	; 9870 <rpi_reboot+0x50>
    9858:	e59f0014 	ldr	r0, [pc, #20]	; 9874 <rpi_reboot+0x54>
    985c:	ebfff9f0 	bl	8024 <PUT32>
    9860:	e59f1010 	ldr	r1, [pc, #16]	; 9878 <rpi_reboot+0x58>
    9864:	e59f0010 	ldr	r0, [pc, #16]	; 987c <rpi_reboot+0x5c>
    9868:	ebfff9ed 	bl	8024 <PUT32>
    986c:	eafffffe 	b	986c <rpi_reboot+0x4c>
    9870:	5a000001 	bpl	987c <rpi_reboot+0x5c>
    9874:	20100024 	andscs	r0, r0, r4, lsr #32
    9878:	5a000020 	bpl	9900 <delay_ms+0x8>
    987c:	2010001c 	andscs	r0, r0, ip, lsl r0

00009880 <timer_get_usec_raw>:
    9880:	e59f0000 	ldr	r0, [pc]	; 9888 <timer_get_usec_raw+0x8>
    9884:	eafff9e8 	b	802c <GET32>
    9888:	20003004 	andcs	r3, r0, r4

0000988c <timer_get_usec>:
    988c:	e92d4010 	push	{r4, lr}
    9890:	eb00024d 	bl	a1cc <dev_barrier>
    9894:	e59f0010 	ldr	r0, [pc, #16]	; 98ac <timer_get_usec+0x20>
    9898:	ebfff9e3 	bl	802c <GET32>
    989c:	e1a04000 	mov	r4, r0
    98a0:	eb000249 	bl	a1cc <dev_barrier>
    98a4:	e1a00004 	mov	r0, r4
    98a8:	e8bd8010 	pop	{r4, pc}
    98ac:	20003004 	andcs	r3, r0, r4

000098b0 <delay_us>:
    98b0:	e92d41f0 	push	{r4, r5, r6, r7, r8, lr}
    98b4:	e1a06000 	mov	r6, r0
    98b8:	eb000243 	bl	a1cc <dev_barrier>
    98bc:	e59f0030 	ldr	r0, [pc, #48]	; 98f4 <delay_us+0x44>
    98c0:	ebfff9d9 	bl	802c <GET32>
    98c4:	e1a05000 	mov	r5, r0
    98c8:	eb00023f 	bl	a1cc <dev_barrier>
    98cc:	e59f7020 	ldr	r7, [pc, #32]	; 98f4 <delay_us+0x44>
    98d0:	eb00023d 	bl	a1cc <dev_barrier>
    98d4:	e1a00007 	mov	r0, r7
    98d8:	ebfff9d3 	bl	802c <GET32>
    98dc:	e1a04000 	mov	r4, r0
    98e0:	e0444005 	sub	r4, r4, r5
    98e4:	eb000238 	bl	a1cc <dev_barrier>
    98e8:	e1540006 	cmp	r4, r6
    98ec:	3afffff7 	bcc	98d0 <delay_us+0x20>
    98f0:	e8bd81f0 	pop	{r4, r5, r6, r7, r8, pc}
    98f4:	20003004 	andcs	r3, r0, r4

000098f8 <delay_ms>:
    98f8:	e92d41f0 	push	{r4, r5, r6, r7, r8, lr}
    98fc:	e0604280 	rsb	r4, r0, r0, lsl #5
    9900:	e0800104 	add	r0, r0, r4, lsl #2
    9904:	e1a04180 	lsl	r4, r0, #3
    9908:	eb00022f 	bl	a1cc <dev_barrier>
    990c:	e59f0030 	ldr	r0, [pc, #48]	; 9944 <delay_ms+0x4c>
    9910:	ebfff9c5 	bl	802c <GET32>
    9914:	e1a06000 	mov	r6, r0
    9918:	eb00022b 	bl	a1cc <dev_barrier>
    991c:	e59f7020 	ldr	r7, [pc, #32]	; 9944 <delay_ms+0x4c>
    9920:	eb000229 	bl	a1cc <dev_barrier>
    9924:	e1a00007 	mov	r0, r7
    9928:	ebfff9bf 	bl	802c <GET32>
    992c:	e1a05000 	mov	r5, r0
    9930:	e0455006 	sub	r5, r5, r6
    9934:	eb000224 	bl	a1cc <dev_barrier>
    9938:	e1540005 	cmp	r4, r5
    993c:	8afffff7 	bhi	9920 <delay_ms+0x28>
    9940:	e8bd81f0 	pop	{r4, r5, r6, r7, r8, pc}
    9944:	20003004 	andcs	r3, r0, r4

00009948 <delay_sec>:
    9948:	e92d41f0 	push	{r4, r5, r6, r7, r8, lr}
    994c:	e0604280 	rsb	r4, r0, r0, lsl #5
    9950:	e0644304 	rsb	r4, r4, r4, lsl #6
    9954:	e0800184 	add	r0, r0, r4, lsl #3
    9958:	e1a04300 	lsl	r4, r0, #6
    995c:	eb00021a 	bl	a1cc <dev_barrier>
    9960:	e59f0030 	ldr	r0, [pc, #48]	; 9998 <delay_sec+0x50>
    9964:	ebfff9b0 	bl	802c <GET32>
    9968:	e1a06000 	mov	r6, r0
    996c:	eb000216 	bl	a1cc <dev_barrier>
    9970:	e59f7020 	ldr	r7, [pc, #32]	; 9998 <delay_sec+0x50>
    9974:	eb000214 	bl	a1cc <dev_barrier>
    9978:	e1a00007 	mov	r0, r7
    997c:	ebfff9aa 	bl	802c <GET32>
    9980:	e1a05000 	mov	r5, r0
    9984:	e0455006 	sub	r5, r5, r6
    9988:	eb00020f 	bl	a1cc <dev_barrier>
    998c:	e1540005 	cmp	r4, r5
    9990:	8afffff7 	bhi	9974 <delay_sec+0x2c>
    9994:	e8bd81f0 	pop	{r4, r5, r6, r7, r8, pc}
    9998:	20003004 	andcs	r3, r0, r4

0000999c <and_in32>:
    999c:	e92d4070 	push	{r4, r5, r6, lr}
    99a0:	e1a04000 	mov	r4, r0
    99a4:	e1a05001 	mov	r5, r1
    99a8:	ebfff99f 	bl	802c <GET32>
    99ac:	e0001005 	and	r1, r0, r5
    99b0:	e1a00004 	mov	r0, r4
    99b4:	ebfff99a 	bl	8024 <PUT32>
    99b8:	e8bd8070 	pop	{r4, r5, r6, pc}

000099bc <or_in32>:
    99bc:	e92d4070 	push	{r4, r5, r6, lr}
    99c0:	e1a04000 	mov	r4, r0
    99c4:	e1a05001 	mov	r5, r1
    99c8:	ebfff997 	bl	802c <GET32>
    99cc:	e1801005 	orr	r1, r0, r5
    99d0:	e1a00004 	mov	r0, r4
    99d4:	ebfff992 	bl	8024 <PUT32>
    99d8:	e8bd8070 	pop	{r4, r5, r6, pc}

000099dc <uart_init>:
    99dc:	e92d4010 	push	{r4, lr}
    99e0:	e3a01002 	mov	r1, #2, 0
    99e4:	e3a0000e 	mov	r0, #14, 0
    99e8:	eb000153 	bl	9f3c <gpio_set_function>
    99ec:	e3a01002 	mov	r1, #2, 0
    99f0:	e3a0000f 	mov	r0, #15, 0
    99f4:	eb000150 	bl	9f3c <gpio_set_function>
    99f8:	eb0001f3 	bl	a1cc <dev_barrier>
    99fc:	e3a01001 	mov	r1, #1, 0
    9a00:	e59f0064 	ldr	r0, [pc, #100]	; 9a6c <uart_init+0x90>
    9a04:	ebffffec 	bl	99bc <or_in32>
    9a08:	eb0001ef 	bl	a1cc <dev_barrier>
    9a0c:	e59f405c 	ldr	r4, [pc, #92]	; 9a70 <uart_init+0x94>
    9a10:	e3a01000 	mov	r1, #0, 0
    9a14:	e1a00004 	mov	r0, r4
    9a18:	ebfff981 	bl	8024 <PUT32>
    9a1c:	e3a01000 	mov	r1, #0, 0
    9a20:	e59f004c 	ldr	r0, [pc, #76]	; 9a74 <uart_init+0x98>
    9a24:	ebfff97e 	bl	8024 <PUT32>
    9a28:	e3a01003 	mov	r1, #3, 0
    9a2c:	e59f0044 	ldr	r0, [pc, #68]	; 9a78 <uart_init+0x9c>
    9a30:	ebfff97b 	bl	8024 <PUT32>
    9a34:	e3a01000 	mov	r1, #0, 0
    9a38:	e59f003c 	ldr	r0, [pc, #60]	; 9a7c <uart_init+0xa0>
    9a3c:	ebfff978 	bl	8024 <PUT32>
    9a40:	e3a010c7 	mov	r1, #199, 0	; 0xc7
    9a44:	e59f0034 	ldr	r0, [pc, #52]	; 9a80 <uart_init+0xa4>
    9a48:	ebfff975 	bl	8024 <PUT32>
    9a4c:	e59f1030 	ldr	r1, [pc, #48]	; 9a84 <uart_init+0xa8>
    9a50:	e59f0030 	ldr	r0, [pc, #48]	; 9a88 <uart_init+0xac>
    9a54:	ebfff972 	bl	8024 <PUT32>
    9a58:	e3a01003 	mov	r1, #3, 0
    9a5c:	e1a00004 	mov	r0, r4
    9a60:	ebfff96f 	bl	8024 <PUT32>
    9a64:	eb0001d8 	bl	a1cc <dev_barrier>
    9a68:	e8bd8010 	pop	{r4, pc}
    9a6c:	20215004 	eorcs	r5, r1, r4
    9a70:	20215060 	eorcs	r5, r1, r0, rrx
    9a74:	20215044 	eorcs	r5, r1, r4, asr #32
    9a78:	2021504c 	eorcs	r5, r1, ip, asr #32
    9a7c:	20215050 	eorcs	r5, r1, r0, asr r0
    9a80:	20215048 	eorcs	r5, r1, r8, asr #32
    9a84:	0000010e 	andeq	r0, r0, lr, lsl #2
    9a88:	20215068 	eorcs	r5, r1, r8, rrx

00009a8c <uart_can_getc>:
    9a8c:	e92d4010 	push	{r4, lr}
    9a90:	e59f0008 	ldr	r0, [pc, #8]	; 9aa0 <uart_can_getc+0x14>
    9a94:	ebfff964 	bl	802c <GET32>
    9a98:	e2000001 	and	r0, r0, #1, 0
    9a9c:	e8bd8010 	pop	{r4, pc}
    9aa0:	20215064 	eorcs	r5, r1, r4, rrx

00009aa4 <uart_can_putc>:
    9aa4:	e92d4010 	push	{r4, lr}
    9aa8:	e59f0010 	ldr	r0, [pc, #16]	; 9ac0 <uart_can_putc+0x1c>
    9aac:	ebfff95e 	bl	802c <GET32>
    9ab0:	e3100002 	tst	r0, #2, 0
    9ab4:	13a00001 	movne	r0, #1, 0
    9ab8:	03a00000 	moveq	r0, #0, 0
    9abc:	e8bd8010 	pop	{r4, pc}
    9ac0:	20215064 	eorcs	r5, r1, r4, rrx

00009ac4 <uart_getc>:
    9ac4:	e92d4010 	push	{r4, lr}
    9ac8:	eb0001bf 	bl	a1cc <dev_barrier>
    9acc:	ebffffee 	bl	9a8c <uart_can_getc>
    9ad0:	e3500000 	cmp	r0, #0, 0
    9ad4:	0afffffc 	beq	9acc <uart_getc+0x8>
    9ad8:	e59f0010 	ldr	r0, [pc, #16]	; 9af0 <uart_getc+0x2c>
    9adc:	ebfff952 	bl	802c <GET32>
    9ae0:	e6ef4070 	uxtb	r4, r0
    9ae4:	eb0001b8 	bl	a1cc <dev_barrier>
    9ae8:	e1a00004 	mov	r0, r4
    9aec:	e8bd8010 	pop	{r4, pc}
    9af0:	20215040 	eorcs	r5, r1, r0, asr #32

00009af4 <uart_putc>:
    9af4:	e92d4010 	push	{r4, lr}
    9af8:	e1a04000 	mov	r4, r0
    9afc:	eb0001b2 	bl	a1cc <dev_barrier>
    9b00:	ebffffe7 	bl	9aa4 <uart_can_putc>
    9b04:	e3500000 	cmp	r0, #0, 0
    9b08:	0afffffc 	beq	9b00 <uart_putc+0xc>
    9b0c:	e6ef1074 	uxtb	r1, r4
    9b10:	e59f0008 	ldr	r0, [pc, #8]	; 9b20 <uart_putc+0x2c>
    9b14:	ebfff942 	bl	8024 <PUT32>
    9b18:	eb0001ab 	bl	a1cc <dev_barrier>
    9b1c:	e8bd8010 	pop	{r4, pc}
    9b20:	20215040 	eorcs	r5, r1, r0, asr #32

00009b24 <uart_has_data>:
    9b24:	e92d4010 	push	{r4, lr}
    9b28:	eb0001a7 	bl	a1cc <dev_barrier>
    9b2c:	ebffffd6 	bl	9a8c <uart_can_getc>
    9b30:	e8bd8010 	pop	{r4, pc}

00009b34 <uart_tx_is_empty>:
    9b34:	e92d4010 	push	{r4, lr}
    9b38:	eb0001a3 	bl	a1cc <dev_barrier>
    9b3c:	e59f000c 	ldr	r0, [pc, #12]	; 9b50 <uart_tx_is_empty+0x1c>
    9b40:	ebfff939 	bl	802c <GET32>
    9b44:	e1a004a0 	lsr	r0, r0, #9
    9b48:	e2000001 	and	r0, r0, #1, 0
    9b4c:	e8bd8010 	pop	{r4, pc}
    9b50:	20215064 	eorcs	r5, r1, r4, rrx

00009b54 <uart_flush_tx>:
    9b54:	e92d4010 	push	{r4, lr}
    9b58:	ebfffff5 	bl	9b34 <uart_tx_is_empty>
    9b5c:	e3500000 	cmp	r0, #0, 0
    9b60:	0afffffc 	beq	9b58 <uart_flush_tx+0x4>
    9b64:	e8bd8010 	pop	{r4, pc}

00009b68 <uart_disable>:
    9b68:	e92d4010 	push	{r4, lr}
    9b6c:	ebfffff8 	bl	9b54 <uart_flush_tx>
    9b70:	eb000195 	bl	a1cc <dev_barrier>
    9b74:	e3e01001 	mvn	r1, #1, 0
    9b78:	e59f0008 	ldr	r0, [pc, #8]	; 9b88 <uart_disable+0x20>
    9b7c:	ebffff86 	bl	999c <and_in32>
    9b80:	eb000191 	bl	a1cc <dev_barrier>
    9b84:	e8bd8010 	pop	{r4, pc}
    9b88:	20215004 	eorcs	r5, r1, r4

00009b8c <kmalloc_heap_end>:
    9b8c:	e59f3004 	ldr	r3, [pc, #4]	; 9b98 <kmalloc_heap_end+0xc>
    9b90:	e5930000 	ldr	r0, [r3]
    9b94:	e12fff1e 	bx	lr
    9b98:	0000aad0 	ldrdeq	sl, [r0], -r0

00009b9c <kmalloc_heap_start>:
    9b9c:	e59f3004 	ldr	r3, [pc, #4]	; 9ba8 <kmalloc_heap_start+0xc>
    9ba0:	e5930004 	ldr	r0, [r3, #4]
    9ba4:	e12fff1e 	bx	lr
    9ba8:	0000aad0 	ldrdeq	sl, [r0], -r0

00009bac <kmalloc_heap_ptr>:
    9bac:	e59f3004 	ldr	r3, [pc, #4]	; 9bb8 <kmalloc_heap_ptr+0xc>
    9bb0:	e5930000 	ldr	r0, [r3]
    9bb4:	e12fff1e 	bx	lr
    9bb8:	0000aad0 	ldrdeq	sl, [r0], -r0

00009bbc <kmalloc_init_set_start>:
    9bbc:	e52de004 	push	{lr}		; (str lr, [sp, #-4]!)
    9bc0:	e24dd00c 	sub	sp, sp, #12, 0
    9bc4:	e3510000 	cmp	r1, #0, 0
    9bc8:	0a00000a 	beq	9bf8 <kmalloc_init_set_start+0x3c>
    9bcc:	e59f306c 	ldr	r3, [pc, #108]	; 9c40 <kmalloc_init_set_start+0x84>
    9bd0:	e5933000 	ldr	r3, [r3]
    9bd4:	e1530000 	cmp	r3, r0
    9bd8:	8a00000e 	bhi	9c18 <kmalloc_init_set_start+0x5c>
    9bdc:	e59f305c 	ldr	r3, [pc, #92]	; 9c40 <kmalloc_init_set_start+0x84>
    9be0:	e5830000 	str	r0, [r3]
    9be4:	e5830004 	str	r0, [r3, #4]
    9be8:	e0800001 	add	r0, r0, r1
    9bec:	e5830008 	str	r0, [r3, #8]
    9bf0:	e28dd00c 	add	sp, sp, #12, 0
    9bf4:	e49df004 	pop	{pc}		; (ldr pc, [sp], #4)
    9bf8:	e59f3044 	ldr	r3, [pc, #68]	; 9c44 <kmalloc_init_set_start+0x88>
    9bfc:	e58d3000 	str	r3, [sp]
    9c00:	e3a03030 	mov	r3, #48, 0	; 0x30
    9c04:	e59f203c 	ldr	r2, [pc, #60]	; 9c48 <kmalloc_init_set_start+0x8c>
    9c08:	e59f103c 	ldr	r1, [pc, #60]	; 9c4c <kmalloc_init_set_start+0x90>
    9c0c:	e59f003c 	ldr	r0, [pc, #60]	; 9c50 <kmalloc_init_set_start+0x94>
    9c10:	ebfffc1c 	bl	8c88 <printk>
    9c14:	ebfffeac 	bl	96cc <clean_reboot>
    9c18:	e59f3020 	ldr	r3, [pc, #32]	; 9c40 <kmalloc_init_set_start+0x84>
    9c1c:	e5933008 	ldr	r3, [r3, #8]
    9c20:	e58d3004 	str	r3, [sp, #4]
    9c24:	e58d0000 	str	r0, [sp]
    9c28:	e3a03034 	mov	r3, #52, 0	; 0x34
    9c2c:	e59f2014 	ldr	r2, [pc, #20]	; 9c48 <kmalloc_init_set_start+0x8c>
    9c30:	e59f1014 	ldr	r1, [pc, #20]	; 9c4c <kmalloc_init_set_start+0x90>
    9c34:	e59f0018 	ldr	r0, [pc, #24]	; 9c54 <kmalloc_init_set_start+0x98>
    9c38:	ebfffc12 	bl	8c88 <printk>
    9c3c:	ebfffea2 	bl	96cc <clean_reboot>
    9c40:	0000aad0 	ldrdeq	sl, [r0], -r0
    9c44:	0000a8dc 	ldrdeq	sl, [r0], -ip
    9c48:	0000aa68 	andeq	sl, r0, r8, ror #20
    9c4c:	0000a8d0 	ldrdeq	sl, [r0], -r0
    9c50:	0000a208 	andeq	sl, r0, r8, lsl #4
    9c54:	0000a8e8 	andeq	sl, r0, r8, ror #17

00009c58 <kmalloc_init>:
    9c58:	e92d4010 	push	{r4, lr}
    9c5c:	e59f303c 	ldr	r3, [pc, #60]	; 9ca0 <kmalloc_init+0x48>
    9c60:	e5933000 	ldr	r3, [r3]
    9c64:	e3530000 	cmp	r3, #0, 0
    9c68:	1a000006 	bne	9c88 <kmalloc_init+0x30>
    9c6c:	e59f302c 	ldr	r3, [pc, #44]	; 9ca0 <kmalloc_init+0x48>
    9c70:	e3a02001 	mov	r2, #1, 0
    9c74:	e5832000 	str	r2, [r3]
    9c78:	e3a01201 	mov	r1, #268435456	; 0x10000000
    9c7c:	e3a00601 	mov	r0, #1048576	; 0x100000
    9c80:	ebffffcd 	bl	9bbc <kmalloc_init_set_start>
    9c84:	e8bd8010 	pop	{r4, pc}
    9c88:	e3a03040 	mov	r3, #64, 0	; 0x40
    9c8c:	e59f2010 	ldr	r2, [pc, #16]	; 9ca4 <kmalloc_init+0x4c>
    9c90:	e59f1010 	ldr	r1, [pc, #16]	; 9ca8 <kmalloc_init+0x50>
    9c94:	e59f0010 	ldr	r0, [pc, #16]	; 9cac <kmalloc_init+0x54>
    9c98:	ebfffbfa 	bl	8c88 <printk>
    9c9c:	ebfffe8a 	bl	96cc <clean_reboot>
    9ca0:	0000af04 	andeq	sl, r0, r4, lsl #30
    9ca4:	0000aa80 	andeq	sl, r0, r0, lsl #21
    9ca8:	0000a8d0 	ldrdeq	sl, [r0], -r0
    9cac:	0000a92c 	andeq	sl, r0, ip, lsr #18

00009cb0 <kmalloc_notzero>:
    9cb0:	e52de004 	push	{lr}		; (str lr, [sp, #-4]!)
    9cb4:	e24dd00c 	sub	sp, sp, #12, 0
    9cb8:	e3500000 	cmp	r0, #0, 0
    9cbc:	0a00000a 	beq	9cec <kmalloc_notzero+0x3c>
    9cc0:	e2800007 	add	r0, r0, #7, 0
    9cc4:	e3c03007 	bic	r3, r0, #7, 0
    9cc8:	e59f2060 	ldr	r2, [pc, #96]	; 9d30 <kmalloc_notzero+0x80>
    9ccc:	e5920000 	ldr	r0, [r2]
    9cd0:	e0801003 	add	r1, r0, r3
    9cd4:	e5821000 	str	r1, [r2]
    9cd8:	e5922008 	ldr	r2, [r2, #8]
    9cdc:	e1510002 	cmp	r1, r2
    9ce0:	8a000009 	bhi	9d0c <kmalloc_notzero+0x5c>
    9ce4:	e28dd00c 	add	sp, sp, #12, 0
    9ce8:	e49df004 	pop	{pc}		; (ldr pc, [sp], #4)
    9cec:	e59f3040 	ldr	r3, [pc, #64]	; 9d34 <kmalloc_notzero+0x84>
    9cf0:	e58d3000 	str	r3, [sp]
    9cf4:	e3a03048 	mov	r3, #72, 0	; 0x48
    9cf8:	e59f2038 	ldr	r2, [pc, #56]	; 9d38 <kmalloc_notzero+0x88>
    9cfc:	e59f1038 	ldr	r1, [pc, #56]	; 9d3c <kmalloc_notzero+0x8c>
    9d00:	e59f0038 	ldr	r0, [pc, #56]	; 9d40 <kmalloc_notzero+0x90>
    9d04:	ebfffbdf 	bl	8c88 <printk>
    9d08:	ebfffe6f 	bl	96cc <clean_reboot>
    9d0c:	e0422000 	sub	r2, r2, r0
    9d10:	e58d2004 	str	r2, [sp, #4]
    9d14:	e58d3000 	str	r3, [sp]
    9d18:	e3a0304e 	mov	r3, #78, 0	; 0x4e
    9d1c:	e59f2014 	ldr	r2, [pc, #20]	; 9d38 <kmalloc_notzero+0x88>
    9d20:	e59f1014 	ldr	r1, [pc, #20]	; 9d3c <kmalloc_notzero+0x8c>
    9d24:	e59f0018 	ldr	r0, [pc, #24]	; 9d44 <kmalloc_notzero+0x94>
    9d28:	ebfffbd6 	bl	8c88 <printk>
    9d2c:	ebfffe66 	bl	96cc <clean_reboot>
    9d30:	0000aad0 	ldrdeq	sl, [r0], -r0
    9d34:	0000a8e0 	andeq	sl, r0, r0, ror #17
    9d38:	0000aa90 	muleq	r0, r0, sl
    9d3c:	0000a8d0 	ldrdeq	sl, [r0], -r0
    9d40:	0000a208 	andeq	sl, r0, r8, lsl #4
    9d44:	0000a95c 	andeq	sl, r0, ip, asr r9

00009d48 <kmalloc>:
    9d48:	e92d4030 	push	{r4, r5, lr}
    9d4c:	e24dd00c 	sub	sp, sp, #12, 0
    9d50:	e2504000 	subs	r4, r0, #0, 0
    9d54:	0a000008 	beq	9d7c <kmalloc+0x34>
    9d58:	e1a00004 	mov	r0, r4
    9d5c:	ebffffd3 	bl	9cb0 <kmalloc_notzero>
    9d60:	e1a05000 	mov	r5, r0
    9d64:	e1a02004 	mov	r2, r4
    9d68:	e3a01000 	mov	r1, #0, 0
    9d6c:	ebfffba7 	bl	8c10 <memset>
    9d70:	e1a00005 	mov	r0, r5
    9d74:	e28dd00c 	add	sp, sp, #12, 0
    9d78:	e8bd8030 	pop	{r4, r5, pc}
    9d7c:	e59f3018 	ldr	r3, [pc, #24]	; 9d9c <kmalloc+0x54>
    9d80:	e58d3000 	str	r3, [sp]
    9d84:	e3a03054 	mov	r3, #84, 0	; 0x54
    9d88:	e59f2010 	ldr	r2, [pc, #16]	; 9da0 <kmalloc+0x58>
    9d8c:	e59f1010 	ldr	r1, [pc, #16]	; 9da4 <kmalloc+0x5c>
    9d90:	e59f0010 	ldr	r0, [pc, #16]	; 9da8 <kmalloc+0x60>
    9d94:	ebfffbbb 	bl	8c88 <printk>
    9d98:	ebfffe4b 	bl	96cc <clean_reboot>
    9d9c:	0000a8e0 	andeq	sl, r0, r0, ror #17
    9da0:	0000aaa0 	andeq	sl, r0, r0, lsr #21
    9da4:	0000a8d0 	ldrdeq	sl, [r0], -r0
    9da8:	0000a208 	andeq	sl, r0, r8, lsl #4

00009dac <kmalloc_aligned>:
    9dac:	e52de004 	push	{lr}		; (str lr, [sp, #-4]!)
    9db0:	e24dd00c 	sub	sp, sp, #12, 0
    9db4:	e3500000 	cmp	r0, #0, 0
    9db8:	0a000014 	beq	9e10 <kmalloc_aligned+0x64>
    9dbc:	e2613000 	rsb	r3, r1, #0, 0
    9dc0:	e1d13003 	bics	r3, r1, r3
    9dc4:	1a000019 	bne	9e30 <kmalloc_aligned+0x84>
    9dc8:	e3510008 	cmp	r1, #8, 0
    9dcc:	33a01008 	movcc	r1, #8, 0
    9dd0:	e59f30c0 	ldr	r3, [pc, #192]	; 9e98 <kmalloc_aligned+0xec>
    9dd4:	e5932000 	ldr	r2, [r3]
    9dd8:	e2613000 	rsb	r3, r1, #0, 0
    9ddc:	e1d1c003 	bics	ip, r1, r3
    9de0:	1a00001b 	bne	9e54 <kmalloc_aligned+0xa8>
    9de4:	e0822001 	add	r2, r2, r1
    9de8:	e2422001 	sub	r2, r2, #1, 0
    9dec:	e0033002 	and	r3, r3, r2
    9df0:	e2411001 	sub	r1, r1, #1, 0
    9df4:	e1110003 	tst	r1, r3
    9df8:	1a00001d 	bne	9e74 <kmalloc_aligned+0xc8>
    9dfc:	e59f2094 	ldr	r2, [pc, #148]	; 9e98 <kmalloc_aligned+0xec>
    9e00:	e5823000 	str	r3, [r2]
    9e04:	ebffffcf 	bl	9d48 <kmalloc>
    9e08:	e28dd00c 	add	sp, sp, #12, 0
    9e0c:	e49df004 	pop	{pc}		; (ldr pc, [sp], #4)
    9e10:	e59f3084 	ldr	r3, [pc, #132]	; 9e9c <kmalloc_aligned+0xf0>
    9e14:	e58d3000 	str	r3, [sp]
    9e18:	e3a0305f 	mov	r3, #95, 0	; 0x5f
    9e1c:	e59f207c 	ldr	r2, [pc, #124]	; 9ea0 <kmalloc_aligned+0xf4>
    9e20:	e59f107c 	ldr	r1, [pc, #124]	; 9ea4 <kmalloc_aligned+0xf8>
    9e24:	e59f007c 	ldr	r0, [pc, #124]	; 9ea8 <kmalloc_aligned+0xfc>
    9e28:	ebfffb96 	bl	8c88 <printk>
    9e2c:	ebfffe26 	bl	96cc <clean_reboot>
    9e30:	eb0000ac 	bl	a0e8 <rpi_reset_putc>
    9e34:	e59f3070 	ldr	r3, [pc, #112]	; 9eac <kmalloc_aligned+0x100>
    9e38:	e58d3000 	str	r3, [sp]
    9e3c:	e3a03060 	mov	r3, #96, 0	; 0x60
    9e40:	e59f2058 	ldr	r2, [pc, #88]	; 9ea0 <kmalloc_aligned+0xf4>
    9e44:	e59f1058 	ldr	r1, [pc, #88]	; 9ea4 <kmalloc_aligned+0xf8>
    9e48:	e59f0060 	ldr	r0, [pc, #96]	; 9eb0 <kmalloc_aligned+0x104>
    9e4c:	ebfffb8d 	bl	8c88 <printk>
    9e50:	ebfffe1d 	bl	96cc <clean_reboot>
    9e54:	e59f3058 	ldr	r3, [pc, #88]	; 9eb4 <kmalloc_aligned+0x108>
    9e58:	e58d3000 	str	r3, [sp]
    9e5c:	e3a03011 	mov	r3, #17, 0
    9e60:	e59f2050 	ldr	r2, [pc, #80]	; 9eb8 <kmalloc_aligned+0x10c>
    9e64:	e59f1038 	ldr	r1, [pc, #56]	; 9ea4 <kmalloc_aligned+0xf8>
    9e68:	e59f0038 	ldr	r0, [pc, #56]	; 9ea8 <kmalloc_aligned+0xfc>
    9e6c:	ebfffb85 	bl	8c88 <printk>
    9e70:	ebfffe15 	bl	96cc <clean_reboot>
    9e74:	eb00009b 	bl	a0e8 <rpi_reset_putc>
    9e78:	e59f303c 	ldr	r3, [pc, #60]	; 9ebc <kmalloc_aligned+0x110>
    9e7c:	e58d3000 	str	r3, [sp]
    9e80:	e3a03068 	mov	r3, #104, 0	; 0x68
    9e84:	e59f2014 	ldr	r2, [pc, #20]	; 9ea0 <kmalloc_aligned+0xf4>
    9e88:	e59f1014 	ldr	r1, [pc, #20]	; 9ea4 <kmalloc_aligned+0xf8>
    9e8c:	e59f002c 	ldr	r0, [pc, #44]	; 9ec0 <kmalloc_aligned+0x114>
    9e90:	ebfffb7c 	bl	8c88 <printk>
    9e94:	ebfffe0c 	bl	96cc <clean_reboot>
    9e98:	0000aad0 	ldrdeq	sl, [r0], -r0
    9e9c:	0000a8e0 	andeq	sl, r0, r0, ror #17
    9ea0:	0000aaa8 	andeq	sl, r0, r8, lsr #21
    9ea4:	0000a8d0 	ldrdeq	sl, [r0], -r0
    9ea8:	0000a208 	andeq	sl, r0, r8, lsl #4
    9eac:	0000a9d0 	ldrdeq	sl, [r0], -r0
    9eb0:	0000a99c 	muleq	r0, ip, r9
    9eb4:	0000a9e4 	andeq	sl, r0, r4, ror #19
    9eb8:	0000aab8 			; <UNDEFINED> instruction: 0x0000aab8
    9ebc:	0000aa1c 	andeq	sl, r0, ip, lsl sl
    9ec0:	0000a9f0 	strdeq	sl, [r0], -r0

00009ec4 <kfree>:
    9ec4:	e12fff1e 	bx	lr

00009ec8 <kfree_all>:
    9ec8:	e59f3008 	ldr	r3, [pc, #8]	; 9ed8 <kfree_all+0x10>
    9ecc:	e5932004 	ldr	r2, [r3, #4]
    9ed0:	e5832000 	str	r2, [r3]
    9ed4:	e12fff1e 	bx	lr
    9ed8:	0000aad0 	ldrdeq	sl, [r0], -r0

00009edc <kfree_pop>:
    9edc:	e59f3048 	ldr	r3, [pc, #72]	; 9f2c <kfree_pop+0x50>
    9ee0:	e5933004 	ldr	r3, [r3, #4]
    9ee4:	e1530000 	cmp	r3, r0
    9ee8:	8a000006 	bhi	9f08 <kfree_pop+0x2c>
    9eec:	e59f3038 	ldr	r3, [pc, #56]	; 9f2c <kfree_pop+0x50>
    9ef0:	e5933008 	ldr	r3, [r3, #8]
    9ef4:	e1530000 	cmp	r3, r0
    9ef8:	3a000002 	bcc	9f08 <kfree_pop+0x2c>
    9efc:	e59f3028 	ldr	r3, [pc, #40]	; 9f2c <kfree_pop+0x50>
    9f00:	e5830000 	str	r0, [r3]
    9f04:	e12fff1e 	bx	lr
    9f08:	e52de004 	push	{lr}		; (str lr, [sp, #-4]!)
    9f0c:	e24dd00c 	sub	sp, sp, #12, 0
    9f10:	e58d0000 	str	r0, [sp]
    9f14:	e3a03077 	mov	r3, #119, 0	; 0x77
    9f18:	e59f2010 	ldr	r2, [pc, #16]	; 9f30 <kfree_pop+0x54>
    9f1c:	e59f1010 	ldr	r1, [pc, #16]	; 9f34 <kfree_pop+0x58>
    9f20:	e59f0010 	ldr	r0, [pc, #16]	; 9f38 <kfree_pop+0x5c>
    9f24:	ebfffb57 	bl	8c88 <printk>
    9f28:	ebfffde7 	bl	96cc <clean_reboot>
    9f2c:	0000aad0 	ldrdeq	sl, [r0], -r0
    9f30:	0000aac0 	andeq	sl, r0, r0, asr #21
    9f34:	0000a8d0 	ldrdeq	sl, [r0], -r0
    9f38:	0000aa38 	andeq	sl, r0, r8, lsr sl

00009f3c <gpio_set_function>:
    9f3c:	e350001f 	cmp	r0, #31, 0
    9f40:	812fff1e 	bxhi	lr
    9f44:	e3d13007 	bics	r3, r1, #7, 0
    9f48:	e92d4070 	push	{r4, r5, r6, lr}
    9f4c:	e1a05001 	mov	r5, r1
    9f50:	18bd8070 	popne	{r4, r5, r6, pc}
    9f54:	e59f403c 	ldr	r4, [pc, #60]	; 9f98 <gpio_set_function+0x5c>
    9f58:	e0843094 	umull	r3, r4, r4, r0
    9f5c:	e1a041a4 	lsr	r4, r4, #3
    9f60:	e2843302 	add	r3, r4, #134217728	; 0x8000000
    9f64:	e2833702 	add	r3, r3, #524288	; 0x80000
    9f68:	e1a06103 	lsl	r6, r3, #2
    9f6c:	e0844104 	add	r4, r4, r4, lsl #2
    9f70:	e0404084 	sub	r4, r0, r4, lsl #1
    9f74:	e1a00006 	mov	r0, r6
    9f78:	ebfff82b 	bl	802c <GET32>
    9f7c:	e3a01007 	mov	r1, #7, 0
    9f80:	e0844084 	add	r4, r4, r4, lsl #1
    9f84:	e1c01411 	bic	r1, r0, r1, lsl r4
    9f88:	e1811415 	orr	r1, r1, r5, lsl r4
    9f8c:	e1a00006 	mov	r0, r6
    9f90:	e8bd4070 	pop	{r4, r5, r6, lr}
    9f94:	eafff822 	b	8024 <PUT32>
    9f98:	cccccccd 	stclgt	12, cr12, [ip], {205}	; 0xcd

00009f9c <gpio_set_output>:
    9f9c:	e350001f 	cmp	r0, #31, 0
    9fa0:	812fff1e 	bxhi	lr
    9fa4:	e92d4070 	push	{r4, r5, r6, lr}
    9fa8:	e59f4040 	ldr	r4, [pc, #64]	; 9ff0 <gpio_set_output+0x54>
    9fac:	e0843094 	umull	r3, r4, r4, r0
    9fb0:	e1a041a4 	lsr	r4, r4, #3
    9fb4:	e2843302 	add	r3, r4, #134217728	; 0x8000000
    9fb8:	e2833702 	add	r3, r3, #524288	; 0x80000
    9fbc:	e1a05103 	lsl	r5, r3, #2
    9fc0:	e0844104 	add	r4, r4, r4, lsl #2
    9fc4:	e0404084 	sub	r4, r0, r4, lsl #1
    9fc8:	e1a00005 	mov	r0, r5
    9fcc:	ebfff816 	bl	802c <GET32>
    9fd0:	e3a03007 	mov	r3, #7, 0
    9fd4:	e3a01001 	mov	r1, #1, 0
    9fd8:	e0844084 	add	r4, r4, r4, lsl #1
    9fdc:	e1c03413 	bic	r3, r0, r3, lsl r4
    9fe0:	e1831411 	orr	r1, r3, r1, lsl r4
    9fe4:	e1a00005 	mov	r0, r5
    9fe8:	e8bd4070 	pop	{r4, r5, r6, lr}
    9fec:	eafff80c 	b	8024 <PUT32>
    9ff0:	cccccccd 	stclgt	12, cr12, [ip], {205}	; 0xcd

00009ff4 <gpio_set_on>:
    9ff4:	e1a03000 	mov	r3, r0
    9ff8:	e3a01001 	mov	r1, #1, 0
    9ffc:	e59f0004 	ldr	r0, [pc, #4]	; a008 <gpio_set_on+0x14>
    a000:	e1a01311 	lsl	r1, r1, r3
    a004:	eafff806 	b	8024 <PUT32>
    a008:	2020001c 	eorcs	r0, r0, ip, lsl r0

0000a00c <gpio_set_off>:
    a00c:	e1a03000 	mov	r3, r0
    a010:	e3a01001 	mov	r1, #1, 0
    a014:	e59f0004 	ldr	r0, [pc, #4]	; a020 <gpio_set_off+0x14>
    a018:	e1a01311 	lsl	r1, r1, r3
    a01c:	eafff800 	b	8024 <PUT32>
    a020:	20200028 	eorcs	r0, r0, r8, lsr #32

0000a024 <gpio_set_input>:
    a024:	e350001f 	cmp	r0, #31, 0
    a028:	812fff1e 	bxhi	lr
    a02c:	e92d4070 	push	{r4, r5, r6, lr}
    a030:	e59f5040 	ldr	r5, [pc, #64]	; a078 <gpio_set_input+0x54>
    a034:	e1a04000 	mov	r4, r0
    a038:	e0853095 	umull	r3, r5, r5, r0
    a03c:	e1a051a5 	lsr	r5, r5, #3
    a040:	e2850302 	add	r0, r5, #134217728	; 0x8000000
    a044:	e2800702 	add	r0, r0, #524288	; 0x80000
    a048:	e1a06100 	lsl	r6, r0, #2
    a04c:	e1a00006 	mov	r0, r6
    a050:	ebfff7f5 	bl	802c <GET32>
    a054:	e3a01007 	mov	r1, #7, 0
    a058:	e1a03000 	mov	r3, r0
    a05c:	e0855105 	add	r5, r5, r5, lsl #2
    a060:	e0444085 	sub	r4, r4, r5, lsl #1
    a064:	e0844084 	add	r4, r4, r4, lsl #1
    a068:	e1a00006 	mov	r0, r6
    a06c:	e1c31411 	bic	r1, r3, r1, lsl r4
    a070:	e8bd4070 	pop	{r4, r5, r6, lr}
    a074:	eafff7ea 	b	8024 <PUT32>
    a078:	cccccccd 	stclgt	12, cr12, [ip], {205}	; 0xcd

0000a07c <gpio_write>:
    a07c:	e3510000 	cmp	r1, #0, 0
    a080:	e3a03001 	mov	r3, #1, 0
    a084:	e1a01000 	mov	r1, r0
    a088:	0a000002 	beq	a098 <gpio_write+0x1c>
    a08c:	e59f0010 	ldr	r0, [pc, #16]	; a0a4 <gpio_write+0x28>
    a090:	e1a01113 	lsl	r1, r3, r1
    a094:	eafff7e2 	b	8024 <PUT32>
    a098:	e59f0008 	ldr	r0, [pc, #8]	; a0a8 <gpio_write+0x2c>
    a09c:	e1a01113 	lsl	r1, r3, r1
    a0a0:	eafff7df 	b	8024 <PUT32>
    a0a4:	2020001c 	eorcs	r0, r0, ip, lsl r0
    a0a8:	20200028 	eorcs	r0, r0, r8, lsr #32

0000a0ac <gpio_read>:
    a0ac:	e92d4010 	push	{r4, lr}
    a0b0:	e1a04000 	mov	r4, r0
    a0b4:	e59f0014 	ldr	r0, [pc, #20]	; a0d0 <gpio_read+0x24>
    a0b8:	e08002a4 	add	r0, r0, r4, lsr #5
    a0bc:	ebfff7da 	bl	802c <GET32>
    a0c0:	e204401f 	and	r4, r4, #31, 0
    a0c4:	e1a00430 	lsr	r0, r0, r4
    a0c8:	e2000001 	and	r0, r0, #1, 0
    a0cc:	e8bd8010 	pop	{r4, pc}
    a0d0:	20200034 	eorcs	r0, r0, r4, lsr r0

0000a0d4 <internal_putchar>:
    a0d4:	e92d4010 	push	{r4, lr}
    a0d8:	e1a04000 	mov	r4, r0
    a0dc:	ebfffe84 	bl	9af4 <uart_putc>
    a0e0:	e1a00004 	mov	r0, r4
    a0e4:	e8bd8010 	pop	{r4, pc}

0000a0e8 <rpi_reset_putc>:
    a0e8:	e59f3008 	ldr	r3, [pc, #8]	; a0f8 <rpi_reset_putc+0x10>
    a0ec:	e59f2008 	ldr	r2, [pc, #8]	; a0fc <rpi_reset_putc+0x14>
    a0f0:	e5832000 	str	r2, [r3]
    a0f4:	e12fff1e 	bx	lr
    a0f8:	0000aadc 	ldrdeq	sl, [r0], -ip
    a0fc:	0000a0d4 	ldrdeq	sl, [r0], -r4

0000a100 <rpi_set_putc>:
    a100:	e59f3004 	ldr	r3, [pc, #4]	; a10c <rpi_set_putc+0xc>
    a104:	e5830000 	str	r0, [r3]
    a108:	e12fff1e 	bx	lr
    a10c:	0000aadc 	ldrdeq	sl, [r0], -ip

0000a110 <strcat>:
    a110:	e1a02000 	mov	r2, r0
    a114:	e1a03002 	mov	r3, r2
    a118:	e4d2c001 	ldrb	ip, [r2], #1
    a11c:	e35c0000 	cmp	ip, #0, 0
    a120:	1afffffb 	bne	a114 <strcat+0x4>
    a124:	e2433001 	sub	r3, r3, #1, 0
    a128:	e4d12001 	ldrb	r2, [r1], #1
    a12c:	e3520000 	cmp	r2, #0, 0
    a130:	e5e32001 	strb	r2, [r3, #1]!
    a134:	1afffffb 	bne	a128 <strcat+0x18>
    a138:	e12fff1e 	bx	lr

0000a13c <strcmp>:
    a13c:	e5d03000 	ldrb	r3, [r0]
    a140:	e3530000 	cmp	r3, #0, 0
    a144:	05d12000 	ldrbeq	r2, [r1]
    a148:	1a000003 	bne	a15c <strcmp+0x20>
    a14c:	ea000006 	b	a16c <strcmp+0x30>
    a150:	e5f03001 	ldrb	r3, [r0, #1]!
    a154:	e3530000 	cmp	r3, #0, 0
    a158:	0a000005 	beq	a174 <strcmp+0x38>
    a15c:	e1a0c001 	mov	ip, r1
    a160:	e4d12001 	ldrb	r2, [r1], #1
    a164:	e1520003 	cmp	r2, r3
    a168:	0afffff8 	beq	a150 <strcmp+0x14>
    a16c:	e0430002 	sub	r0, r3, r2
    a170:	e12fff1e 	bx	lr
    a174:	e5dc2001 	ldrb	r2, [ip, #1]
    a178:	e0430002 	sub	r0, r3, r2
    a17c:	e12fff1e 	bx	lr

0000a180 <strcpy>:
    a180:	e2402001 	sub	r2, r0, #1, 0
    a184:	e4d13001 	ldrb	r3, [r1], #1
    a188:	e3530000 	cmp	r3, #0, 0
    a18c:	e5e23001 	strb	r3, [r2, #1]!
    a190:	1afffffb 	bne	a184 <strcpy+0x4>
    a194:	e12fff1e 	bx	lr

0000a198 <strncmp>:
    a198:	e0802002 	add	r2, r0, r2
    a19c:	ea000003 	b	a1b0 <strncmp+0x18>
    a1a0:	e4d03001 	ldrb	r3, [r0], #1
    a1a4:	e4d1c001 	ldrb	ip, [r1], #1
    a1a8:	e153000c 	cmp	r3, ip
    a1ac:	1a000003 	bne	a1c0 <strncmp+0x28>
    a1b0:	e1500002 	cmp	r0, r2
    a1b4:	1afffff9 	bne	a1a0 <strncmp+0x8>
    a1b8:	e3a00000 	mov	r0, #0, 0
    a1bc:	e12fff1e 	bx	lr
    a1c0:	e043000c 	sub	r0, r3, ip
    a1c4:	e12fff1e 	bx	lr

0000a1c8 <reboot_callout>:
    a1c8:	e12fff1e 	bx	lr

0000a1cc <dev_barrier>:
    a1cc:	ea000002 	b	a1dc <dsb>

0000a1d0 <dmb>:
    a1d0:	e3a00000 	mov	r0, #0, 0
    a1d4:	ee070fba 	mcr	15, 0, r0, cr7, cr10, {5}
    a1d8:	e12fff1e 	bx	lr

0000a1dc <dsb>:
    a1dc:	ee070f9a 	mcr	15, 0, r0, cr7, cr10, {4}
    a1e0:	e12fff1e 	bx	lr

0000a1e4 <__code_end__>:
    a1e4:	00000000 	andeq	r0, r0, r0

Disassembly of section .rodata:

0000a1e8 <__FUNCTION__.4030-0xa8>:
    a1e8:	74736574 	ldrbtvc	r6, [r3], #-1396	; 0xfffffa8c
    a1ec:	2e322d73 	mrccs	13, 1, r2, cr2, cr3, {3}
    a1f0:	61702f30 	cmnvs	r0, r0, lsr pc
    a1f4:	2d327472 	cfldrscs	mvf7, [r2, #-456]!	; 0xfffffe38
    a1f8:	74736574 	ldrbtvc	r6, [r3], #-1396	; 0xfffffa8c
    a1fc:	6f6e2d34 	svcvs	0x006e2d34
    a200:	61656c2d 	cmnvs	r5, sp, lsr #24
    a204:	00632e6b 	rsbeq	r2, r3, fp, ror #28
    a208:	494e4150 	stmdbmi	lr, {r4, r6, r8, lr}^
    a20c:	73253a43 			; <UNDEFINED> instruction: 0x73253a43
    a210:	3a73253a 	bcc	1cd3700 <__bss_end__+0x1cc87f8>
    a214:	253a6425 	ldrcs	r6, [sl, #-1061]!	; 0xfffffbdb
    a218:	00000a73 	andeq	r0, r0, r3, ror sl
    a21c:	3e2d6821 	cdpcc	8, 2, cr6, cr13, cr1, {1}
    a220:	76657270 			; <UNDEFINED> instruction: 0x76657270
    a224:	00000000 	andeq	r0, r0, r0
    a228:	74204347 	strtvc	r4, [r0], #-839	; 0xfffffcb9
    a22c:	3a747365 	bcc	1d26fc8 <__bss_end__+0x1d1c0c0>
    a230:	65686320 	strbvs	r6, [r8, #-800]!	; 0xfffffce0
    a234:	6e696b63 	vnmulvs.f64	d22, d9, d19
    a238:	68742067 	ldmdavs	r4!, {r0, r1, r2, r5, r6, sp}^
    a23c:	61207461 			; <UNDEFINED> instruction: 0x61207461
    a240:	756f6420 	strbvc	r6, [pc, #-1056]!	; 9e28 <kmalloc_aligned+0x7c>
    a244:	2d796c62 	ldclcs	12, cr6, [r9, #-392]!	; 0xfffffe78
    a248:	6b6e696c 	blvs	1ba4800 <__bss_end__+0x1b998f8>
    a24c:	6c206465 	cfstrsvs	mvf6, [r0], #-404	; 0xfffffe6c
    a250:	20747369 	rsbscs	r7, r4, r9, ror #6
    a254:	68207369 	stmdavs	r0!, {r0, r3, r5, r6, r8, r9, ip, sp, lr}
    a258:	6c646e61 	stclvs	14, cr6, [r4], #-388	; 0xfffffe7c
    a25c:	0a2e6465 	beq	ba33f8 <__bss_end__+0xb984f0>
    a260:	00000000 	andeq	r0, r0, r0
    a264:	43415254 	movtmi	r5, #4692	; 0x1254
    a268:	616c3a45 	cmnvs	ip, r5, asr #20
    a26c:	61207473 			; <UNDEFINED> instruction: 0x61207473
    a270:	636f6c6c 	cmnvs	pc, #108, 24	; 0x6c00
    a274:	62203d20 	eorvs	r3, r0, #32, 26	; 0x800
    a278:	6b636f6c 	blvs	18e6030 <__bss_end__+0x18db128>
    a27c:	3d646920 			; <UNDEFINED> instruction: 0x3d646920
    a280:	5b207525 	blpl	82771c <__bss_end__+0x81c814>
    a284:	72646461 	rsbvc	r6, r4, #1627389952	; 0x61000000
    a288:	5d70253d 	cfldr64pl	mvdx2, [r0, #-244]!	; 0xffffff0c
    a28c:	0000000a 	andeq	r0, r0, sl

0000a290 <__FUNCTION__.4030>:
    a290:	74736574 	ldrbtvc	r6, [r3], #-1396	; 0xfffffa8c
    a294:	00000000 	andeq	r0, r0, r0
    a298:	6c616b63 			; <UNDEFINED> instruction: 0x6c616b63
    a29c:	2e636f6c 	cdpcs	15, 6, cr6, cr3, cr12, {3}
    a2a0:	00000063 	andeq	r0, r0, r3, rrx
    a2a4:	0000006c 	andeq	r0, r0, ip, rrx
    a2a8:	494e4150 	stmdbmi	lr, {r4, r6, r8, lr}^
    a2ac:	73253a43 			; <UNDEFINED> instruction: 0x73253a43
    a2b0:	3a73253a 	bcc	1cd37a0 <__bss_end__+0x1cc8898>
    a2b4:	643a6425 	ldrtvs	r6, [sl], #-1061	; 0xfffffbdb
    a2b8:	6e206469 	cdpvs	4, 2, cr6, cr0, cr9, {3}
    a2bc:	6620746f 	strtvs	r7, [r0], -pc, ror #8
    a2c0:	20646e69 	rsbcs	r6, r4, r9, ror #28
    a2c4:	69207025 	stmdbvs	r0!, {r0, r2, r5, ip, sp, lr}
    a2c8:	696c206e 	stmdbvs	ip!, {r1, r2, r3, r5, r6, sp}^
    a2cc:	0a0a7473 	beq	2a74a0 <__bss_end__+0x29c598>
    a2d0:	00000000 	andeq	r0, r0, r0
    a2d4:	6e756f66 	cdpvs	15, 7, cr6, cr5, cr6, {3}
    a2d8:	70252064 	eorvc	r2, r5, r4, rrx
    a2dc:	206e6920 	rsbcs	r6, lr, r0, lsr #18
    a2e0:	000a7025 	andeq	r7, sl, r5, lsr #32
    a2e4:	253a7325 	ldrcs	r7, [sl, #-805]!	; 0xfffffcdb
    a2e8:	64253a73 	strtvs	r3, [r5], #-2675	; 0xfffff58d
    a2ec:	0000003a 	andeq	r0, r0, sl, lsr r0
    a2f0:	65657266 	strbvs	r7, [r5, #-614]!	; 0xfffffd9a
    a2f4:	20676e69 	rsbcs	r6, r7, r9, ror #28
    a2f8:	0a702509 	beq	1c13724 <__bss_end__+0x1c0881c>
    a2fc:	00000000 	andeq	r0, r0, r0
    a300:	5f434f4c 	svcpl	0x00434f4c
    a304:	494e4150 	stmdbmi	lr, {r4, r6, r8, lr}^
    a308:	25203a43 	strcs	r3, [r0, #-2627]!	; 0xfffff5bd
    a30c:	73253a73 			; <UNDEFINED> instruction: 0x73253a73
    a310:	3a64253a 	bcc	1913800 <__bss_end__+0x19088f8>
    a314:	00000000 	andeq	r0, r0, r0
    a318:	65657266 	strbvs	r7, [r5, #-614]!	; 0xfffffd9a
    a31c:	20676e69 	rsbcs	r6, r7, r9, ror #28
    a320:	6c616e75 	stclvs	14, cr6, [r1], #-468	; 0xfffffe2c
    a324:	61636f6c 	cmnvs	r3, ip, ror #30
    a328:	20646574 	rsbcs	r6, r4, r4, ror r5
    a32c:	6f6d656d 	svcvs	0x006d656d
    a330:	203a7972 	eorscs	r7, sl, r2, ror r9
    a334:	74617473 	strbtvc	r7, [r1], #-1139	; 0xfffffb8d
    a338:	64253d65 	strtvs	r3, [r5], #-3429	; 0xfffff29b
    a33c:	0000000a 	andeq	r0, r0, sl
    a340:	7a646572 	bvc	1923910 <__bss_end__+0x1918a08>
    a344:	31656e6f 	cmncc	r5, pc, ror #28
    a348:	73617720 	cmnvc	r1, #32, 14	; 0x800000
    a34c:	726f6320 	rsbvc	r6, pc, #32, 6	; 0x80000000
    a350:	74707572 	ldrbtvc	r7, [r0], #-1394	; 0xfffffa8e
    a354:	20216465 	eorcs	r6, r1, r5, ror #8
    a358:	6e756f66 	cdpvs	15, 7, cr6, cr5, cr6, {3}
    a35c:	78252064 	stmdavc	r5!, {r2, r5, r6, sp}
    a360:	7865202c 	stmdavc	r5!, {r2, r3, r5, sp}^
    a364:	74636570 	strbtvc	r6, [r3], #-1392	; 0xfffffa90
    a368:	25206465 	strcs	r6, [r0, #-1125]!	; 0xfffffb9b
    a36c:	00000a78 	andeq	r0, r0, r8, ror sl
    a370:	7a646572 	bvc	1923940 <__bss_end__+0x1918a38>
    a374:	32656e6f 	rsbcc	r6, r5, #1776	; 0x6f0
    a378:	73617720 	cmnvc	r1, #32, 14	; 0x800000
    a37c:	726f6320 	rsbvc	r6, pc, #32, 6	; 0x80000000
    a380:	74707572 	ldrbtvc	r7, [r0], #-1394	; 0xfffffa8e
    a384:	0a216465 	beq	863520 <__bss_end__+0x858618>
    a388:	00000000 	andeq	r0, r0, r0
    a38c:	705f6b63 	subsvc	r6, pc, r3, ror #22
    a390:	695f7274 	ldmdbvs	pc, {r2, r4, r5, r6, r9, ip, sp, lr}^	; <UNPREDICTABLE>
    a394:	6c615f73 	stclvs	15, cr5, [r1], #-460	; 0xfffffe34
    a398:	65636f6c 	strbvs	r6, [r3, #-3948]!	; 0xfffff094
    a39c:	64612864 	strbtvs	r2, [r1], #-2148	; 0xfffff79c
    a3a0:	00297264 	eoreq	r7, r9, r4, ror #4
    a3a4:	6f6c6c61 	svcvs	0x006c6c61
    a3a8:	69746163 	ldmdbvs	r4!, {r0, r1, r5, r6, r8, sp, lr}^
    a3ac:	2520676e 	strcs	r6, [r0, #-1902]!	; 0xfffff892
    a3b0:	25282070 	strcs	r2, [r8, #-112]!	; 0xffffff90
    a3b4:	79622064 	stmdbvc	r2!, {r2, r5, r6, sp}^
    a3b8:	29736574 	ldmdbcs	r3!, {r2, r4, r5, r6, r8, sl, sp, lr}^
    a3bc:	0000000a 	andeq	r0, r0, sl

0000a3c0 <__FUNCTION__.4058>:
    a3c0:	7473696c 	ldrbtvc	r6, [r3], #-2412	; 0xfffff694
    a3c4:	6d65725f 	sfmvs	f7, 2, [r5, #-380]!	; 0xfffffe84
    a3c8:	0065766f 	rsbeq	r7, r5, pc, ror #12

0000a3cc <__FUNCTION__.4077>:
    a3cc:	72666b63 	rsbvc	r6, r6, #101376	; 0x18c00
    a3d0:	00006565 	andeq	r6, r0, r5, ror #10
    a3d4:	75716552 	ldrbvc	r6, [r1, #-1362]!	; 0xfffffaae
    a3d8:	74737265 	ldrbtvc	r7, [r3], #-613	; 0xfffffd9b
    a3dc:	20676e69 	rsbcs	r6, r7, r9, ror #28
    a3e0:	65726f6d 	ldrbvs	r6, [r2, #-3949]!	; 0xfffff093
    a3e4:	6d656d20 	stclvs	13, cr6, [r5, #-128]!	; 0xffffff80
    a3e8:	2079726f 	rsbscs	r7, r9, pc, ror #4
    a3ec:	29642528 	stmdbcs	r4!, {r3, r5, r8, sl, sp}^
    a3f0:	0a2e2e2e 	beq	b95cb0 <__bss_end__+0xb8ada8>
    a3f4:	00000000 	andeq	r0, r0, r0
    a3f8:	672d6b63 	strvs	r6, [sp, -r3, ror #22]!
    a3fc:	00632e63 	rsbeq	r2, r3, r3, ror #28
    a400:	203c2070 	eorscs	r2, ip, r0, ror r0
    a404:	00000065 	andeq	r0, r0, r5, rrx
    a408:	67696c61 	strbvs	r6, [r9, -r1, ror #24]!
    a40c:	2864656e 	stmdacs	r4!, {r1, r2, r3, r5, r6, r8, sl, sp, lr}^
    a410:	34202c70 	strtcc	r2, [r0], #-3184	; 0xfffff390
    a414:	00000029 	andeq	r0, r0, r9, lsr #32
    a418:	67696c61 	strbvs	r6, [r9, -r1, ror #24]!
    a41c:	2864656e 	stmdacs	r4!, {r1, r2, r3, r5, r6, r8, sl, sp, lr}^
    a420:	34202c65 	strtcc	r2, [r0], #-3173	; 0xfffff39b
    a424:	00000029 	andeq	r0, r0, r9, lsr #32
    a428:	6e696f67 	cdpvs	15, 6, cr6, cr9, cr7, {3}
    a42c:	6f742067 	svcvs	0x00742067
    a430:	72616d20 	rsbvc	r6, r1, #32, 26	; 0x800
    a434:	7025206b 	eorvc	r2, r5, fp, rrx
    a438:	20692820 	rsbcs	r2, r9, r0, lsr #16
    a43c:	70252040 	eorvc	r2, r5, r0, asr #32
    a440:	25203d20 	strcs	r3, [r0, #-3360]!	; 0xfffff2e0
    a444:	202c2970 	eorcs	r2, ip, r0, ror r9
    a448:	20707865 	rsbscs	r7, r0, r5, ror #16
    a44c:	7025203d 	eorvc	r2, r5, sp, lsr r0
    a450:	0000000a 	andeq	r0, r0, sl
    a454:	6b72616d 	blvs	1ca2a10 <__bss_end__+0x1c97b08>
    a458:	20676e69 	rsbcs	r6, r7, r9, ror #28
    a45c:	25207361 	strcs	r7, [r0, #-865]!	; 0xfffffc9f
    a460:	00000a64 	andeq	r0, r0, r4, ror #20
    a464:	20746f6e 	rsbscs	r6, r4, lr, ror #30
    a468:	6b72616d 	blvs	1ca2a24 <__bss_end__+0x1c97b1c>
    a46c:	21676e69 	cmncs	r7, r9, ror #28
    a470:	0000000a 	andeq	r0, r0, sl
    a474:	63656863 	cmnvs	r5, #6488064	; 0x630000
    a478:	676e696b 	strbvs	r6, [lr, -fp, ror #18]!
    a47c:	61747320 	cmnvs	r4, r0, lsr #6
    a480:	203a6b63 	eorscs	r6, sl, r3, ror #22
    a484:	74207025 	strtvc	r7, [r0], #-37	; 0xffffffdb
    a488:	7025206f 	eorvc	r2, r5, pc, rrx
    a48c:	0000000a 	andeq	r0, r0, sl
    a490:	2d2d2d2d 	stccs	13, cr2, [sp, #-180]!	; 0xffffff4c
    a494:	2d2d2d2d 	stccs	13, cr2, [sp, #-180]!	; 0xffffff4c
    a498:	2d2d2d2d 	stccs	13, cr2, [sp, #-180]!	; 0xffffff4c
    a49c:	2d2d2d2d 	stccs	13, cr2, [sp, #-180]!	; 0xffffff4c
    a4a0:	2d2d2d2d 	stccs	13, cr2, [sp, #-180]!	; 0xffffff4c
    a4a4:	2d2d2d2d 	stccs	13, cr2, [sp, #-180]!	; 0xffffff4c
    a4a8:	2d2d2d2d 	stccs	13, cr2, [sp, #-180]!	; 0xffffff4c
    a4ac:	2d2d2d2d 	stccs	13, cr2, [sp, #-180]!	; 0xffffff4c
    a4b0:	2d2d2d2d 	stccs	13, cr2, [sp, #-180]!	; 0xffffff4c
    a4b4:	2d2d2d2d 	stccs	13, cr2, [sp, #-180]!	; 0xffffff4c
    a4b8:	2d2d2d2d 	stccs	13, cr2, [sp, #-180]!	; 0xffffff4c
    a4bc:	2d2d2d2d 	stccs	13, cr2, [sp, #-180]!	; 0xffffff4c
    a4c0:	2d2d2d2d 	stccs	13, cr2, [sp, #-180]!	; 0xffffff4c
    a4c4:	2d2d2d2d 	stccs	13, cr2, [sp, #-180]!	; 0xffffff4c
    a4c8:	00000a2d 	andeq	r0, r0, sp, lsr #20
    a4cc:	63656863 	cmnvs	r5, #6488064	; 0x630000
    a4d0:	676e696b 	strbvs	r6, [lr, -fp, ror #18]!
    a4d4:	726f6620 	rsbvc	r6, pc, #32, 12	; 0x2000000
    a4d8:	61656c20 	cmnvs	r5, r0, lsr #24
    a4dc:	0a3a736b 	beq	ea7290 <__bss_end__+0xe9c388>
    a4e0:	00000000 	andeq	r0, r0, r0
    a4e4:	4c3a4347 	ldcmi	3, cr4, [sl], #-284	; 0xfffffee4
    a4e8:	2054534f 	subscs	r5, r4, pc, asr #6
    a4ec:	2d206425 	cfstrscs	mvf6, [r0, #-148]!	; 0xffffff6c
    a4f0:	7025203e 	eorvc	r2, r5, lr, lsr r0
    a4f4:	0000000a 	andeq	r0, r0, sl
    a4f8:	4d3a4347 	ldcmi	3, cr4, [sl, #-284]!	; 0xfffffee4
    a4fc:	45425941 	strbmi	r5, [r2, #-2369]	; 0xfffff6bf
    a500:	534f4c20 	movtpl	r4, #64544	; 0xfc20
    a504:	64252054 	strtvs	r2, [r5], #-84	; 0xffffffac
    a508:	203e2d20 	eorscs	r2, lr, r0, lsr #26
    a50c:	000a7025 	andeq	r7, sl, r5, lsr #32
    a510:	43415254 	movtmi	r5, #4692	; 0x1254
    a514:	47093a45 	strmi	r3, [r9, -r5, asr #20]
    a518:	68433a43 	stmdavs	r3, {r0, r1, r6, r9, fp, ip, sp}^
    a51c:	656b6365 	strbvs	r6, [fp, #-869]!	; 0xfffffc9b
    a520:	64252064 	strtvs	r2, [r5], #-100	; 0xffffff9c
    a524:	6f6c6220 	svcvs	0x006c6220
    a528:	2e736b63 	vsubcs.f64	d22, d3, d19
    a52c:	0000000a 	andeq	r0, r0, sl
    a530:	43415254 	movtmi	r5, #4692	; 0x1254
    a534:	09093a45 	stmdbeq	r9, {r0, r2, r6, r9, fp, ip, sp}
    a538:	533a4347 	teqpl	sl, #469762049	; 0x1c000001
    a53c:	45434355 	strbmi	r4, [r3, #-853]	; 0xfffffcab
    a540:	203a5353 	eorscs	r5, sl, r3, asr r3
    a544:	6c206f4e 	stcvs	15, cr6, [r0], #-312	; 0xfffffec8
    a548:	736b6165 	cmnvc	fp, #1073741849	; 0x40000019
    a54c:	756f6620 	strbvc	r6, [pc, #-1568]!	; 9f34 <kfree_pop+0x58>
    a550:	0a21646e 	beq	863710 <__bss_end__+0x858808>
    a554:	00000000 	andeq	r0, r0, r0
    a558:	43415254 	movtmi	r5, #4692	; 0x1254
    a55c:	09093a45 	stmdbeq	r9, {r0, r2, r6, r9, fp, ip, sp}
    a560:	453a4347 	ldrmi	r4, [sl, #-839]!	; 0xfffffcb9
    a564:	524f5252 	subpl	r5, pc, #536870917	; 0x20000005
    a568:	25203a53 	strcs	r3, [r0, #-2643]!	; 0xfffff5ad
    a56c:	72652064 	rsbvc	r2, r5, #100, 0	; 0x64
    a570:	73726f72 	cmnvc	r2, #456	; 0x1c8
    a574:	6425202c 	strtvs	r2, [r5], #-44	; 0xffffffd4
    a578:	79616d20 	stmdbvc	r1!, {r5, r8, sl, fp, sp, lr}^
    a57c:	655f6562 	ldrbvs	r6, [pc, #-1378]	; a022 <gpio_set_off+0x16>
    a580:	726f7272 	rsbvc	r7, pc, #536870919	; 0x20000007
    a584:	00000a73 	andeq	r0, r0, r3, ror sl
    a588:	2d2d2d2d 	stccs	13, cr2, [sp, #-180]!	; 0xffffff4c
    a58c:	2d2d2d2d 	stccs	13, cr2, [sp, #-180]!	; 0xffffff4c
    a590:	2d2d2d2d 	stccs	13, cr2, [sp, #-180]!	; 0xffffff4c
    a594:	2d2d2d2d 	stccs	13, cr2, [sp, #-180]!	; 0xffffff4c
    a598:	2d2d2d2d 	stccs	13, cr2, [sp, #-180]!	; 0xffffff4c
    a59c:	2d2d2d2d 	stccs	13, cr2, [sp, #-180]!	; 0xffffff4c
    a5a0:	2d2d2d2d 	stccs	13, cr2, [sp, #-180]!	; 0xffffff4c
    a5a4:	2d2d2d2d 	stccs	13, cr2, [sp, #-180]!	; 0xffffff4c
    a5a8:	2d2d2d2d 	stccs	13, cr2, [sp, #-180]!	; 0xffffff4c
    a5ac:	2d2d2d2d 	stccs	13, cr2, [sp, #-180]!	; 0xffffff4c
    a5b0:	2d2d2d2d 	stccs	13, cr2, [sp, #-180]!	; 0xffffff4c
    a5b4:	2d2d2d2d 	stccs	13, cr2, [sp, #-180]!	; 0xffffff4c
    a5b8:	2d2d2d2d 	stccs	13, cr2, [sp, #-180]!	; 0xffffff4c
    a5bc:	2d2d2d2d 	stccs	13, cr2, [sp, #-180]!	; 0xffffff4c
    a5c0:	000a2d2d 	andeq	r2, sl, sp, lsr #26
    a5c4:	72636e69 	rsbvc	r6, r3, #1680	; 0x690
    a5c8:	6e656d65 	cdpvs	13, 6, cr6, cr5, cr5, {3}
    a5cc:	203e2074 	eorscs	r2, lr, r4, ror r0
    a5d0:	00000030 	andeq	r0, r0, r0, lsr r0
    a5d4:	494e4150 	stmdbmi	lr, {r4, r6, r8, lr}^
    a5d8:	73253a43 			; <UNDEFINED> instruction: 0x73253a43
    a5dc:	3a73253a 	bcc	1cd3acc <__bss_end__+0x1cc8bc4>
    a5e0:	6e3a6425 	cdpvs	4, 3, cr6, cr10, cr5, {1}
    a5e4:	6820746f 	stmdavs	r0!, {r0, r1, r2, r3, r5, r6, sl, ip, sp, lr}
    a5e8:	6c646e61 	stclvs	14, cr6, [r4], #-388	; 0xfffffe7c
    a5ec:	0a676e69 	beq	19e5f98 <__bss_end__+0x19db090>
    a5f0:	0000000a 	andeq	r0, r0, sl
    a5f4:	494e4150 	stmdbmi	lr, {r4, r6, r8, lr}^
    a5f8:	73253a43 			; <UNDEFINED> instruction: 0x73253a43
    a5fc:	3a73253a 	bcc	1cd3aec <__bss_end__+0x1cc8be4>
    a600:	473a6425 	ldrmi	r6, [sl, -r5, lsr #8]!
    a604:	73203a43 			; <UNDEFINED> instruction: 0x73203a43
    a608:	6c756f68 	ldclvs	15, cr6, [r5], #-416	; 0xfffffe60
    a60c:	61682064 	cmnvs	r8, r4, rrx
    a610:	6e206576 	mcrvs	5, 1, r6, cr0, cr6, {3}
    a614:	656c206f 	strbvs	r2, [ip, #-111]!	; 0xffffff91
    a618:	21736b61 	cmncs	r3, r1, ror #22
    a61c:	00000a0a 	andeq	r0, r0, sl, lsl #20
    a620:	43415254 	movtmi	r5, #4692	; 0x1254
    a624:	43473a45 	movtmi	r3, #31301	; 0x7a45
    a628:	5553203a 	ldrbpl	r2, [r3, #-58]	; 0xffffffc6
    a62c:	53454343 	movtpl	r4, #21315	; 0x5343
    a630:	6e203a53 			; <UNDEFINED> instruction: 0x6e203a53
    a634:	656c206f 	strbvs	r2, [ip, #-111]!	; 0xffffff91
    a638:	21736b61 	cmncs	r3, r1, ror #22
    a63c:	0000000a 	andeq	r0, r0, sl
    a640:	494e4150 	stmdbmi	lr, {r4, r6, r8, lr}^
    a644:	73253a43 			; <UNDEFINED> instruction: 0x73253a43
    a648:	3a73253a 	bcc	1cd3b38 <__bss_end__+0x1cc8c30>
    a64c:	473a6425 	ldrmi	r6, [sl, -r5, lsr #8]!
    a650:	73203a43 			; <UNDEFINED> instruction: 0x73203a43
    a654:	6c756f68 	ldclvs	15, cr6, [r5], #-416	; 0xfffffe60
    a658:	61682064 	cmnvs	r8, r4, rrx
    a65c:	6c206576 	cfstr32vs	mvfx6, [r0], #-472	; 0xfffffe28
    a660:	736b6165 	cmnvc	fp, #1073741849	; 0x40000019
    a664:	000a0a21 	andeq	r0, sl, r1, lsr #20
    a668:	43415254 	movtmi	r5, #4692	; 0x1254
    a66c:	43473a45 	movtmi	r3, #31301	; 0x7a45
    a670:	5553203a 	ldrbpl	r2, [r3, #-58]	; 0xffffffc6
    a674:	53454343 	movtpl	r4, #21315	; 0x5343
    a678:	66203a53 			; <UNDEFINED> instruction: 0x66203a53
    a67c:	646e756f 	strbtvs	r7, [lr], #-1391	; 0xfffffa91
    a680:	20642520 	rsbcs	r2, r4, r0, lsr #10
    a684:	6b61656c 	blvs	1863c3c <__bss_end__+0x1858d34>
    a688:	000a2173 	andeq	r2, sl, r3, ror r1
    a68c:	706d6f63 	rsbvc	r6, sp, r3, ror #30
    a690:	69746361 	ldmdbvs	r4!, {r0, r5, r6, r8, r9, sp, lr}^
    a694:	0a3a676e 	beq	ea4454 <__bss_end__+0xe9954c>
    a698:	00000000 	andeq	r0, r0, r0
    a69c:	463a4347 	ldrtmi	r4, [sl], -r7, asr #6
    a6a0:	44454552 	strbmi	r4, [r5], #-1362	; 0xfffffaae
    a6a4:	0a702520 	beq	1c13b2c <__bss_end__+0x1c08c24>
    a6a8:	00000000 	andeq	r0, r0, r0
    a6ac:	43415254 	movtmi	r5, #4692	; 0x1254
    a6b0:	47093a45 	strmi	r3, [r9, -r5, asr #20]
    a6b4:	68433a43 	stmdavs	r3, {r0, r1, r6, r9, fp, ip, sp}^
    a6b8:	656b6365 	strbvs	r6, [fp, #-869]!	; 0xfffffc9b
    a6bc:	64252064 	strtvs	r2, [r5], #-100	; 0xffffff9c
    a6c0:	6f6c6220 	svcvs	0x006c6220
    a6c4:	2c736b63 			; <UNDEFINED> instruction: 0x2c736b63
    a6c8:	65726620 	ldrbvs	r6, [r2, #-1568]!	; 0xfffff9e0
    a6cc:	25206465 	strcs	r6, [r0, #-1125]!	; 0xfffffb9b
    a6d0:	25202c64 	strcs	r2, [r0, #-3172]!	; 0xfffff39c
    a6d4:	79622064 	stmdbvc	r2!, {r2, r5, r6, sp}^
    a6d8:	0a736574 	beq	1ce3cb0 <__bss_end__+0x1cd8da8>
    a6dc:	00000000 	andeq	r0, r0, r0
    a6e0:	494e4150 	stmdbmi	lr, {r4, r6, r8, lr}^
    a6e4:	73253a43 			; <UNDEFINED> instruction: 0x73253a43
    a6e8:	3a73253a 	bcc	1cd3bd8 <__bss_end__+0x1cc8cd0>
    a6ec:	643a6425 	ldrtvs	r6, [sl], #-1061	; 0xfffffbdb
    a6f0:	6e206469 	cdpvs	4, 2, cr6, cr0, cr9, {3}
    a6f4:	6920746f 	stmdbvs	r0!, {r0, r1, r2, r3, r5, r6, sl, ip, sp, lr}
    a6f8:	656c706d 	strbvs	r7, [ip, #-109]!	; 0xffffff93
    a6fc:	746e656d 	strbtvc	r6, [lr], #-1389	; 0xfffffa93
    a700:	6d756420 	cfldrdvs	mvd6, [r5, #-128]!	; 0xffffff80
    a704:	65725f70 	ldrbvs	r5, [r2, #-3952]!	; 0xfffff090
    a708:	0a217367 	beq	8674ac <__bss_end__+0x85c5a4>
    a70c:	0000000a 	andeq	r0, r0, sl

0000a710 <__FUNCTION__.4045>:
    a710:	6b72616d 	blvs	1ca2ccc <__bss_end__+0x1c97dc4>
    a714:	00000000 	andeq	r0, r0, r0

0000a718 <__FUNCTION__.4032>:
    a718:	6b726273 	blvs	1ca30ec <__bss_end__+0x1c981e4>
    a71c:	00000000 	andeq	r0, r0, r0

0000a720 <__FUNCTION__.4088>:
    a720:	63656863 	cmnvs	r5, #6488064	; 0x630000
    a724:	6f6e5f6b 	svcvs	0x006e5f6b
    a728:	61656c5f 	cmnvs	r5, pc, asr ip
    a72c:	0000006b 	andeq	r0, r0, fp, rrx

0000a730 <__FUNCTION__.4093>:
    a730:	63656863 	cmnvs	r5, #6488064	; 0x630000
    a734:	68735f6b 	ldmdavs	r3!, {r0, r1, r3, r5, r6, r8, r9, sl, fp, ip, lr}^
    a738:	646c756f 	strbtvs	r7, [ip], #-1391	; 0xfffffa91
    a73c:	61656c5f 	cmnvs	r5, pc, asr ip
    a740:	0000006b 	andeq	r0, r0, fp, rrx

0000a744 <__FUNCTION__.4101>:
    a744:	65657773 	strbvs	r7, [r5, #-1907]!	; 0xfffff88d
    a748:	72665f70 	rsbvc	r5, r6, #112, 30	; 0x1c0
    a74c:	00006565 	andeq	r6, r0, r5, ror #10

0000a750 <__FUNCTION__.4112>:
    a750:	6c706d69 	ldclvs	13, cr6, [r0], #-420	; 0xfffffe5c
    a754:	6e656d65 	cdpvs	13, 6, cr6, cr5, cr5, {3}
    a758:	68745f74 	ldmdavs	r4!, {r2, r4, r5, r6, r8, r9, sl, fp, ip, lr}^
    a75c:	00007369 	andeq	r7, r0, r9, ror #6
    a760:	696c2f2e 	stmdbvs	ip!, {r1, r2, r3, r5, r8, r9, sl, fp, sp}^
    a764:	762f6362 	strtvc	r6, [pc], -r2, ror #6
    a768:	72702d61 	rsbsvc	r2, r0, #6208	; 0x1840
    a76c:	6b746e69 	blvs	1d26118 <__bss_end__+0x1d1b210>
    a770:	0000632e 	andeq	r6, r0, lr, lsr #6
    a774:	33323130 	teqcc	r2, #12
    a778:	37363534 			; <UNDEFINED> instruction: 0x37363534
    a77c:	62613938 	rsbvs	r3, r1, #56, 18	; 0xe0000
    a780:	66656463 	strbtvs	r6, [r5], -r3, ror #8
    a784:	00000000 	andeq	r0, r0, r0
    a788:	00003130 	andeq	r3, r0, r0, lsr r1
    a78c:	33323130 	teqcc	r2, #12
    a790:	37363534 			; <UNDEFINED> instruction: 0x37363534
    a794:	00003938 	andeq	r3, r0, r8, lsr r9
    a798:	63747570 	cmnvs	r4, #112, 10	; 0x1c000000
    a79c:	0070665f 	rsbseq	r6, r0, pc, asr r6
    a7a0:	74646977 	strbtvc	r6, [r4], #-2423	; 0xfffff689
    a7a4:	203c2068 	eorscs	r2, ip, r8, rrx
    a7a8:	00003233 	andeq	r3, r0, r3, lsr r2
    a7ac:	00786c6c 	rsbseq	r6, r8, ip, ror #24
    a7b0:	253d3078 	ldrcs	r3, [sp, #-120]!	; 0xffffff88
    a7b4:	00000a78 	andeq	r0, r0, r8, ror sl
    a7b8:	253d3178 	ldrcs	r3, [sp, #-376]!	; 0xfffffe88
    a7bc:	00000a78 	andeq	r0, r0, r8, ror sl
    a7c0:	00646c6c 	rsbeq	r6, r4, ip, ror #24
    a7c4:	6e727473 	mrcvs	4, 3, r7, cr2, cr3, {3}
    a7c8:	28706d63 	ldmdacs	r0!, {r0, r1, r5, r6, r8, sl, fp, sp, lr}^
    a7cc:	202c7974 	eorcs	r7, ip, r4, ror r9
    a7d0:	786c6c22 	stmdavc	ip!, {r1, r5, sl, fp, sp, lr}^
    a7d4:	33202c22 			; <UNDEFINED> instruction: 0x33202c22
    a7d8:	3d3d2029 	ldccc	0, cr2, [sp, #-164]!	; 0xffffff5c
    a7dc:	7c203020 	stcvc	0, cr3, [r0], #-128	; 0xffffff80
    a7e0:	7473207c 	ldrbtvc	r2, [r3], #-124	; 0xffffff84
    a7e4:	6d636e72 	stclvs	14, cr6, [r3, #-456]!	; 0xfffffe38
    a7e8:	79742870 	ldmdbvc	r4!, {r4, r5, r6, fp, sp}^
    a7ec:	6c22202c 	stcvs	0, cr2, [r2], #-176	; 0xffffff50
    a7f0:	2c22646c 	cfstrscs	mvf6, [r2], #-432	; 0xfffffe50
    a7f4:	20293320 	eorcs	r3, r9, r0, lsr #6
    a7f8:	30203d3d 	eorcc	r3, r0, sp, lsr sp
    a7fc:	00000000 	andeq	r0, r0, r0
    a800:	494e4150 	stmdbmi	lr, {r4, r6, r8, lr}^
    a804:	73253a43 			; <UNDEFINED> instruction: 0x73253a43
    a808:	3a73253a 	bcc	1cd3cf8 <__bss_end__+0x1cc8df0>
    a80c:	693a6425 	ldmdbvs	sl!, {r0, r2, r5, sl, sp, lr}
    a810:	736f706d 	cmnvc	pc, #109, 0	; 0x6d
    a814:	6c626973 			; <UNDEFINED> instruction: 0x6c626973
    a818:	66203a65 	strtvs	r3, [r0], -r5, ror #20
    a81c:	3c3d746d 	cfldrscc	mvf7, [sp], #-436	; 0xfffffe4c
    a820:	0a3e7325 	beq	fa74bc <__bss_end__+0xf9c5b4>
    a824:	0000000a 	andeq	r0, r0, sl
    a828:	494e4150 	stmdbmi	lr, {r4, r6, r8, lr}^
    a82c:	73253a43 			; <UNDEFINED> instruction: 0x73253a43
    a830:	3a73253a 	bcc	1cd3d20 <__bss_end__+0x1cc8e18>
    a834:	663a6425 	ldrtvs	r6, [sl], -r5, lsr #8
    a838:	74616f6c 	strbtvc	r6, [r1], #-3948	; 0xfffff094
    a83c:	746f6e20 	strbtvc	r6, [pc], #-3616	; a844 <__FUNCTION__.4112+0xf4>
    a840:	616e6520 	cmnvs	lr, r0, lsr #10
    a844:	64656c62 	strbtvs	r6, [r5], #-3170	; 0xfffff39e
    a848:	0a212121 	beq	852cd4 <__bss_end__+0x847dcc>
    a84c:	00000000 	andeq	r0, r0, r0
    a850:	6e697270 	mcrvs	2, 3, r7, cr9, cr0, {3}
    a854:	203a6b74 	eorscs	r6, sl, r4, ror fp
    a858:	20746f6e 	rsbscs	r6, r4, lr, ror #30
    a85c:	646e6168 	strbtvs	r6, [lr], #-360	; 0xfffffe98
    a860:	676e696c 	strbvs	r6, [lr, -ip, ror #18]!
    a864:	65707320 	ldrbvs	r7, [r0, #-800]!	; 0xfffffce0
    a868:	69666963 	stmdbvs	r6!, {r0, r1, r5, r6, r8, fp, sp, lr}^
    a86c:	27207265 	strcs	r7, [r0, -r5, ror #4]!
    a870:	20276325 	eorcs	r6, r7, r5, lsr #6
    a874:	63736128 	cmnvs	r3, #10
    a878:	253d6969 	ldrcs	r6, [sp, #-2409]!	; 0xfffff697
    a87c:	000a2964 	andeq	r2, sl, r4, ror #18
    a880:	494e4150 	stmdbmi	lr, {r4, r6, r8, lr}^
    a884:	73253a43 			; <UNDEFINED> instruction: 0x73253a43
    a888:	3a73253a 	bcc	1cd3d78 <__bss_end__+0x1cc8e70>
    a88c:	703a6425 	eorsvc	r6, sl, r5, lsr #8
    a890:	746e6972 	strbtvc	r6, [lr], #-2418	; 0xfffff68e
    a894:	7265206b 	rsbvc	r2, r5, #107, 0	; 0x6b
    a898:	0a726f72 	beq	1ca6668 <__bss_end__+0x1c9b760>
    a89c:	0000000a 	andeq	r0, r0, sl

0000a8a0 <__FUNCTION__.4004>:
    a8a0:	74696d65 	strbtvc	r6, [r9], #-3429	; 0xfffff29b
    a8a4:	00000000 	andeq	r0, r0, r0

0000a8a8 <__FUNCTION__.3952>:
    a8a8:	5f697072 	svcpl	0x00697072
    a8ac:	5f746573 	svcpl	0x00746573
    a8b0:	7074756f 	rsbsvc	r7, r4, pc, ror #10
    a8b4:	00007475 	andeq	r7, r0, r5, ror r4

0000a8b8 <__FUNCTION__.4030>:
    a8b8:	705f6176 	subsvc	r6, pc, r6, ror r1	; <UNPREDICTABLE>
    a8bc:	746e6972 	strbtvc	r6, [lr], #-2418	; 0xfffff68e
    a8c0:	0000006b 	andeq	r0, r0, fp, rrx
    a8c4:	454e4f44 	strbmi	r4, [lr, #-3908]	; 0xfffff0bc
    a8c8:	0a212121 	beq	852d54 <__bss_end__+0x847e4c>
    a8cc:	00000000 	andeq	r0, r0, r0
    a8d0:	6c616d6b 	stclvs	13, cr6, [r1], #-428	; 0xfffffe54
    a8d4:	2e636f6c 	cdpcs	15, 6, cr6, cr3, cr12, {3}
    a8d8:	00000063 	andeq	r0, r0, r3, rrx
    a8dc:	5f78616d 	svcpl	0x0078616d
    a8e0:	7479626e 	ldrbtvc	r6, [r9], #-622	; 0xfffffd92
    a8e4:	00007365 	andeq	r7, r0, r5, ror #6
    a8e8:	494e4150 	stmdbmi	lr, {r4, r6, r8, lr}^
    a8ec:	73253a43 			; <UNDEFINED> instruction: 0x73253a43
    a8f0:	3a73253a 	bcc	1cd3de0 <__bss_end__+0x1cc8ed8>
    a8f4:	733a6425 	teqvc	sl, #620756992	; 0x25000000
    a8f8:	69747465 	ldmdbvs	r4!, {r0, r2, r5, r6, sl, ip, sp, lr}^
    a8fc:	6820676e 	stmdavs	r0!, {r1, r2, r3, r5, r6, r8, r9, sl, sp, lr}
    a900:	20706165 	rsbscs	r6, r0, r5, ror #2
    a904:	25206f74 	strcs	r6, [r0, #-3956]!	; 0xfffff08c
    a908:	77203a70 			; <UNDEFINED> instruction: 0x77203a70
    a90c:	206c6c69 	rsbcs	r6, ip, r9, ror #24
    a910:	20746968 	rsbscs	r6, r4, r8, ror #18
    a914:	20656874 	rsbcs	r6, r5, r4, ror r8
    a918:	20646c6f 	rsbcs	r6, r4, pc, ror #24
    a91c:	70616568 	rsbvc	r6, r1, r8, ror #10
    a920:	20746120 	rsbscs	r6, r4, r0, lsr #2
    a924:	0a0a7025 	beq	2a69c0 <__bss_end__+0x29bab8>
    a928:	00000000 	andeq	r0, r0, r0
    a92c:	494e4150 	stmdbmi	lr, {r4, r6, r8, lr}^
    a930:	73253a43 			; <UNDEFINED> instruction: 0x73253a43
    a934:	3a73253a 	bcc	1cd3e24 <__bss_end__+0x1cc8f1c>
    a938:	613a6425 	teqvs	sl, r5, lsr #8
    a93c:	6165726c 	cmnvs	r5, ip, ror #4
    a940:	63207964 			; <UNDEFINED> instruction: 0x63207964
    a944:	656c6c61 	strbvs	r6, [ip, #-3169]!	; 0xfffff39f
    a948:	6d6b2064 	stclvs	0, cr2, [fp, #-400]!	; 0xfffffe70
    a94c:	6f6c6c61 	svcvs	0x006c6c61
    a950:	6e695f63 	cdpvs	15, 6, cr5, cr9, cr3, {3}
    a954:	0a0a7469 	beq	2a7b00 <__bss_end__+0x29cbf8>
    a958:	00000000 	andeq	r0, r0, r0
    a95c:	494e4150 	stmdbmi	lr, {r4, r6, r8, lr}^
    a960:	73253a43 			; <UNDEFINED> instruction: 0x73253a43
    a964:	3a73253a 	bcc	1cd3e54 <__bss_end__+0x1cc8f4c>
    a968:	253a6425 	ldrcs	r6, [sl, #-1061]!	; 0xfffffbdb
    a96c:	626e2064 	rsbvs	r2, lr, #100, 0	; 0x64
    a970:	73657479 	cmnvc	r5, #2030043136	; 0x79000000
    a974:	63786520 	cmnvs	r8, #32, 10	; 0x8000000
    a978:	65646565 	strbvs	r6, [r4, #-1381]!	; 0xfffffa9b
    a97c:	69732064 	ldmdbvs	r3!, {r2, r5, r6, sp}^
    a980:	6f20657a 	svcvs	0x0020657a
    a984:	65682066 	strbvs	r2, [r8, #-102]!	; 0xffffff9a
    a988:	62207061 	eorvs	r7, r0, #97, 0	; 0x61
    a98c:	75252079 	strvc	r2, [r5, #-121]!	; 0xffffff87
    a990:	79626e20 	stmdbvc	r2!, {r5, r9, sl, fp, sp, lr}^
    a994:	0a736574 	beq	1ce3f6c <__bss_end__+0x1cd9064>
    a998:	0000000a 	andeq	r0, r0, sl
    a99c:	4f525245 	svcmi	0x00525245
    a9a0:	73253a52 			; <UNDEFINED> instruction: 0x73253a52
    a9a4:	3a73253a 	bcc	1cd3e94 <__bss_end__+0x1cc8f8c>
    a9a8:	203a6425 	eorscs	r6, sl, r5, lsr #8
    a9ac:	534c4146 	movtpl	r4, #49478	; 0xc146
    a9b0:	253c2845 	ldrcs	r2, [ip, #-2117]!	; 0xfffff7bb
    a9b4:	3a293e73 	bcc	a5a388 <__bss_end__+0xa4f480>
    a9b8:	73736120 	cmnvc	r3, #8
    a9bc:	6e696d75 	mcrvs	13, 3, r6, cr9, cr5, {3}
    a9c0:	6f702067 	svcvs	0x00702067
    a9c4:	20726577 	rsbscs	r6, r2, r7, ror r5
    a9c8:	7420666f 	strtvc	r6, [r0], #-1647	; 0xfffff991
    a9cc:	000a6f77 	andeq	r6, sl, r7, ror pc
    a9d0:	705f7369 	subsvc	r7, pc, r9, ror #6
    a9d4:	2832776f 	ldmdacs	r2!, {r0, r1, r2, r3, r5, r6, r8, r9, sl, ip, sp, lr}
    a9d8:	67696c61 	strbvs	r6, [r9, -r1, ror #24]!
    a9dc:	6e656d6e 	cdpvs	13, 6, cr6, cr5, cr14, {3}
    a9e0:	00002974 	andeq	r2, r0, r4, ror r9
    a9e4:	705f7369 	subsvc	r7, pc, r9, ror #6
    a9e8:	2832776f 	ldmdacs	r2!, {r0, r1, r2, r3, r5, r6, r8, r9, sl, ip, sp, lr}
    a9ec:	0000296e 	andeq	r2, r0, lr, ror #18
    a9f0:	4f525245 	svcmi	0x00525245
    a9f4:	73253a52 			; <UNDEFINED> instruction: 0x73253a52
    a9f8:	3a73253a 	bcc	1cd3ee8 <__bss_end__+0x1cc8fe0>
    a9fc:	203a6425 	eorscs	r6, sl, r5, lsr #8
    aa00:	534c4146 	movtpl	r4, #49478	; 0xc146
    aa04:	253c2845 	ldrcs	r2, [ip, #-2117]!	; 0xfffff7bb
    aa08:	3a293e73 	bcc	a5a3dc <__bss_end__+0xa4f4d4>
    aa0c:	706d6920 	rsbvc	r6, sp, r0, lsr #18
    aa10:	6973736f 	ldmdbvs	r3!, {r0, r1, r2, r3, r5, r6, r8, r9, ip, sp, lr}^
    aa14:	0a656c62 	beq	1965ba4 <__bss_end__+0x195ac9c>
    aa18:	00000000 	andeq	r0, r0, r0
    aa1c:	615f7369 	cmpvs	pc, r9, ror #6
    aa20:	6e67696c 	vnmulvs.f16	s13, s14, s25	; <UNPREDICTABLE>
    aa24:	68286465 	stmdavs	r8!, {r0, r2, r5, r6, sl, sp, lr}
    aa28:	6c61202c 	stclvs	0, cr2, [r1], #-176	; 0xffffff50
    aa2c:	6d6e6769 	stclvs	7, cr6, [lr, #-420]!	; 0xfffffe5c
    aa30:	29746e65 	ldmdbcs	r4!, {r0, r2, r5, r6, r9, sl, fp, sp, lr}^
    aa34:	00000000 	andeq	r0, r0, r0
    aa38:	494e4150 	stmdbmi	lr, {r4, r6, r8, lr}^
    aa3c:	73253a43 			; <UNDEFINED> instruction: 0x73253a43
    aa40:	3a73253a 	bcc	1cd3f30 <__bss_end__+0x1cc9028>
    aa44:	703a6425 	eorsvc	r6, sl, r5, lsr #8
    aa48:	746e696f 	strbtvc	r6, [lr], #-2415	; 0xfffff691
    aa4c:	25207265 	strcs	r7, [r0, #-613]!	; 0xfffffd9b
    aa50:	61772070 	cmnvs	r7, r0, ror r0
    aa54:	656e2073 	strbvs	r2, [lr, #-115]!	; 0xffffff8d
    aa58:	20726576 	rsbscs	r6, r2, r6, ror r5
    aa5c:	6f6c6c61 	svcvs	0x006c6c61
    aa60:	65746163 	ldrbvs	r6, [r4, #-355]!	; 0xfffffe9d
    aa64:	000a0a64 	andeq	r0, sl, r4, ror #20

0000aa68 <__FUNCTION__.7>:
    aa68:	6c616d6b 	stclvs	13, cr6, [r1], #-428	; 0xfffffe54
    aa6c:	5f636f6c 	svcpl	0x00636f6c
    aa70:	74696e69 	strbtvc	r6, [r9], #-3689	; 0xfffff197
    aa74:	7465735f 	strbtvc	r7, [r5], #-863	; 0xfffffca1
    aa78:	6174735f 	cmnvs	r4, pc, asr r3
    aa7c:	00007472 	andeq	r7, r0, r2, ror r4

0000aa80 <__FUNCTION__.5>:
    aa80:	6c616d6b 	stclvs	13, cr6, [r1], #-428	; 0xfffffe54
    aa84:	5f636f6c 	svcpl	0x00636f6c
    aa88:	74696e69 	strbtvc	r6, [r9], #-3689	; 0xfffff197
    aa8c:	00000000 	andeq	r0, r0, r0

0000aa90 <__FUNCTION__.4>:
    aa90:	6c616d6b 	stclvs	13, cr6, [r1], #-428	; 0xfffffe54
    aa94:	5f636f6c 	svcpl	0x00636f6c
    aa98:	7a746f6e 	bvc	1d26858 <__bss_end__+0x1d1b950>
    aa9c:	006f7265 	rsbeq	r7, pc, r5, ror #4

0000aaa0 <__FUNCTION__.2>:
    aaa0:	6c616d6b 	stclvs	13, cr6, [r1], #-428	; 0xfffffe54
    aaa4:	00636f6c 	rsbeq	r6, r3, ip, ror #30

0000aaa8 <__FUNCTION__.1>:
    aaa8:	6c616d6b 	stclvs	13, cr6, [r1], #-428	; 0xfffffe54
    aaac:	5f636f6c 	svcpl	0x00636f6c
    aab0:	67696c61 	strbvs	r6, [r9, -r1, ror #24]!
    aab4:	0064656e 	rsbeq	r6, r4, lr, ror #10

0000aab8 <__FUNCTION__.3>:
    aab8:	6e756f72 	mrcvs	15, 3, r6, cr5, cr2, {3}
    aabc:	00707564 	rsbseq	r7, r0, r4, ror #10

0000aac0 <__FUNCTION__.0>:
    aac0:	6572666b 	ldrbvs	r6, [r2, #-1643]!	; 0xfffff995
    aac4:	6f705f65 	svcvs	0x00705f65
    aac8:	Address 0x000000000000aac8 is out of bounds.


Disassembly of section .data:

0000aacc <putk>:
    aacc:	00008ce0 	andeq	r8, r0, r0, ror #25

0000aad0 <heap>:
    aad0:	0000af08 	andeq	sl, r0, r8, lsl #30

0000aad4 <heap_start>:
    aad4:	0000af08 	andeq	sl, r0, r8, lsl #30

0000aad8 <heap_end>:
    aad8:	0020af08 	eoreq	sl, r0, r8, lsl #30

0000aadc <rpi_putchar>:
    aadc:	0000a0d4 	ldrdeq	sl, [r0], -r4

Disassembly of section .bss:

0000aae0 <__bss_start__>:
	...

0000aae8 <freep>:
	...

0000aaf0 <base>:
	...

0000aaf8 <heap_start>:
    aaf8:	00000000 	andeq	r0, r0, r0

0000aafc <heap_end>:
    aafc:	00000000 	andeq	r0, r0, r0

0000ab00 <init_p.4031>:
    ab00:	00000000 	andeq	r0, r0, r0

0000ab04 <buf.3944>:
	...

0000af04 <init_p.6>:
    af04:	00000000 	andeq	r0, r0, r0

Disassembly of section .ARM.attributes:

00000000 <.ARM.attributes>:
   0:	00002a41 	andeq	r2, r0, r1, asr #20
   4:	61656100 	cmnvs	r5, r0, lsl #2
   8:	01006962 	tsteq	r0, r2, ror #18
   c:	00000020 	andeq	r0, r0, r0, lsr #32
  10:	4b5a3605 	blmi	168d82c <__bss_end__+0x1682924>
  14:	08070600 	stmdaeq	r7, {r9, sl}
  18:	12010901 	andne	r0, r1, #16384	; 0x4000
  1c:	15011404 	strne	r1, [r1, #-1028]	; 0xfffffbfc
  20:	18031701 	stmdane	r3, {r0, r8, r9, sl, ip}
  24:	22011a01 	andcs	r1, r1, #4096	; 0x1000
  28:	Address 0x0000000000000028 is out of bounds.


Disassembly of section .comment:

00000000 <.comment>:
   0:	3a434347 	bcc	10d0d24 <__bss_end__+0x10c5e1c>
   4:	4e472820 	cdpmi	8, 4, cr2, cr7, cr0, {1}
   8:	6f542055 	svcvs	0x00542055
   c:	20736c6f 	rsbscs	r6, r3, pc, ror #24
  10:	20726f66 	rsbscs	r6, r2, r6, ror #30
  14:	206d7241 	rsbcs	r7, sp, r1, asr #4
  18:	65626d45 	strbvs	r6, [r2, #-3397]!	; 0xfffff2bb
  1c:	64656464 	strbtvs	r6, [r5], #-1124	; 0xfffffb9c
  20:	6f725020 	svcvs	0x00725020
  24:	73736563 	cmnvc	r3, #415236096	; 0x18c00000
  28:	2073726f 	rsbscs	r7, r3, pc, ror #4
  2c:	30322d39 	eorscc	r2, r2, r9, lsr sp
  30:	712d3931 			; <UNDEFINED> instruction: 0x712d3931
  34:	616d2d34 	cmnvs	sp, r4, lsr sp
  38:	29726f6a 	ldmdbcs	r2!, {r1, r3, r5, r6, r8, r9, sl, fp, sp, lr}^
  3c:	322e3920 	eorcc	r3, lr, #32, 18	; 0x80000
  40:	3220312e 	eorcc	r3, r0, #-2147483637	; 0x8000000b
  44:	31393130 	teqcc	r9, r0, lsr r1
  48:	20353230 	eorscs	r3, r5, r0, lsr r2
  4c:	6c657228 	sfmvs	f7, 2, [r5], #-160	; 0xffffff60
  50:	65736165 	ldrbvs	r6, [r3, #-357]!	; 0xfffffe9b
  54:	415b2029 	cmpmi	fp, r9, lsr #32
  58:	612f4d52 			; <UNDEFINED> instruction: 0x612f4d52
  5c:	392d6d72 	pushcc	{r1, r4, r5, r6, r8, sl, fp, sp, lr}
  60:	6172622d 	cmnvs	r2, sp, lsr #4
  64:	2068636e 	rsbcs	r6, r8, lr, ror #6
  68:	69766572 	ldmdbvs	r6!, {r1, r4, r5, r6, r8, sl, sp, lr}^
  6c:	6e6f6973 			; <UNDEFINED> instruction: 0x6e6f6973
  70:	37373220 	ldrcc	r3, [r7, -r0, lsr #4]!
  74:	5d393935 			; <UNDEFINED> instruction: 0x5d393935
  78:	43434700 	movtmi	r4, #14080	; 0x3700
  7c:	4728203a 			; <UNDEFINED> instruction: 0x4728203a
  80:	4120554e 			; <UNDEFINED> instruction: 0x4120554e
  84:	45206d72 	strmi	r6, [r0, #-3442]!	; 0xfffff28e
  88:	6465626d 	strbtvs	r6, [r5], #-621	; 0xfffffd93
  8c:	20646564 	rsbcs	r6, r4, r4, ror #10
  90:	6c6f6f54 	stclvs	15, cr6, [pc], #-336	; ffffff48 <__bss_end__+0xffff5040>
  94:	69616863 	stmdbvs	r1!, {r0, r1, r5, r6, fp, sp, lr}^
  98:	3031206e 	eorscc	r2, r1, lr, rrx
  9c:	322d332e 	eorcc	r3, sp, #-1207959552	; 0xb8000000
  a0:	2e313230 	mrccs	2, 1, r3, cr1, cr0, {1}
  a4:	20293031 	eorcs	r3, r9, r1, lsr r0
  a8:	332e3031 			; <UNDEFINED> instruction: 0x332e3031
  ac:	3220312e 	eorcc	r3, r0, #-2147483637	; 0x8000000b
  b0:	30313230 	eorscc	r3, r1, r0, lsr r2
  b4:	20343238 	eorscs	r3, r4, r8, lsr r2
  b8:	6c657228 	sfmvs	f7, 2, [r5], #-160	; 0xffffff60
  bc:	65736165 	ldrbvs	r6, [r3, #-357]!	; 0xfffffe9b
  c0:	Address 0x00000000000000c0 is out of bounds.


Disassembly of section .debug_info:

00000000 <.debug_info>:
       0:	0000050d 	andeq	r0, r0, sp, lsl #10
       4:	00000004 	andeq	r0, r0, r4
       8:	01040000 	mrseq	r0, (UNDEF: 4)
       c:	0000016a 	andeq	r0, r0, sl, ror #2
      10:	0000690c 	andeq	r6, r0, ip, lsl #18
      14:	0000da00 	andeq	sp, r0, r0, lsl #20
      18:	00803800 	addeq	r3, r0, r0, lsl #16
      1c:	00010800 	andeq	r0, r1, r0, lsl #16
      20:	00000000 	andeq	r0, r0, r0
      24:	05040200 	streq	r0, [r4, #-512]	; 0xfffffe00
      28:	00746e69 	rsbseq	r6, r4, r9, ror #28
      2c:	2b070403 	blcs	1c1040 <__bss_end__+0x1b6138>
      30:	03000001 	movweq	r0, #1
      34:	00c30601 	sbceq	r0, r3, r1, lsl #12
      38:	02030000 	andeq	r0, r3, #0, 0
      3c:	00002105 	andeq	r2, r0, r5, lsl #2
      40:	05040300 	streq	r0, [r4, #-768]	; 0xfffffd00
      44:	00000056 	andeq	r0, r0, r6, asr r0
      48:	51050803 	tstpl	r5, r3, lsl #16
      4c:	04000000 	streq	r0, [r0], #-0
      50:	00000044 	andeq	r0, r0, r4, asr #32
      54:	5b182e04 	blpl	60b86c <__bss_end__+0x600964>
      58:	03000000 	movweq	r0, #0
      5c:	00c10801 	sbceq	r0, r1, r1, lsl #16
      60:	41040000 	mrsmi	r0, (UNDEF: 4)
      64:	04000001 	streq	r0, [r0], #-1
      68:	006e1931 	rsbeq	r1, lr, r1, lsr r9
      6c:	02030000 	andeq	r0, r3, #0, 0
      70:	00015207 	andeq	r5, r1, r7, lsl #4
      74:	01380400 	teqeq	r8, r0, lsl #8
      78:	34040000 	strcc	r0, [r4], #-0
      7c:	00008119 	andeq	r8, r0, r9, lsl r1
      80:	07040300 	streq	r0, [r4, -r0, lsl #6]
      84:	00000126 	andeq	r0, r0, r6, lsr #2
      88:	21070803 	tstcs	r7, r3, lsl #16
      8c:	05000001 	streq	r0, [r0, #-1]
      90:	00000025 	andeq	r0, r0, r5, lsr #32
      94:	0000009e 	muleq	r0, lr, r0
      98:	00002506 	andeq	r2, r0, r6, lsl #10
      9c:	2b070000 	blcs	1c00a4 <__bss_end__+0x1b519c>
      a0:	05000000 	streq	r0, [r0, #-0]
      a4:	00aa0e1c 	adceq	r0, sl, ip, lsl lr
      a8:	04080000 	streq	r0, [r8], #-0
      ac:	0000008f 	andeq	r0, r0, pc, lsl #1
      b0:	00002505 	andeq	r2, r0, r5, lsl #10
      b4:	0000bf00 	andeq	fp, r0, r0, lsl #30
      b8:	00bf0600 	adcseq	r0, pc, r0, lsl #12
      bc:	08000000 	stmdaeq	r0, {}	; <UNPREDICTABLE>
      c0:	0000cc04 	andeq	ip, r0, r4, lsl #24
      c4:	08010300 	stmdaeq	r1, {r8, r9}
      c8:	000000ca 	andeq	r0, r0, sl, asr #1
      cc:	0000c509 	andeq	ip, r0, r9, lsl #10
      d0:	06070700 	streq	r0, [r7], -r0, lsl #14
      d4:	21050000 	mrscs	r0, (UNDEF: 5)
      d8:	0000dd0e 	andeq	sp, r0, lr, lsl #26
      dc:	b0040800 	andlt	r0, r4, r0, lsl #16
      e0:	0a000000 	beq	e8 <__code_start__-0x7f18>
      e4:	0904020c 	stmdbeq	r4, {r2, r3, r9}
      e8:	00000114 	andeq	r0, r0, r4, lsl r1
      ec:	00003f0b 	andeq	r3, r0, fp, lsl #30
      f0:	11060200 	mrsne	r0, LR_usr
      f4:	000000bf 	strheq	r0, [r0], -pc	; <UNPREDICTABLE>
      f8:	004c0b00 	subeq	r0, ip, r0, lsl #22
      fc:	07020000 	streq	r0, [r2, -r0]
     100:	0000bf11 	andeq	fp, r0, r1, lsl pc
     104:	1a0b0400 	bne	2c110c <__bss_end__+0x2b6204>
     108:	02000001 	andeq	r0, r0, #1, 0
     10c:	002c0e08 	eoreq	r0, ip, r8, lsl #28
     110:	00080000 	andeq	r0, r8, r0
     114:	00024b04 	andeq	r4, r2, r4, lsl #22
     118:	03090200 	movweq	r0, #37376	; 0x9200
     11c:	000000e3 	andeq	r0, r0, r3, ror #1
     120:	0000890c 	andeq	r8, r0, ip, lsl #18
     124:	0d03a800 	stceq	8, cr10, [r3, #-0]
     128:	0001a310 	andeq	sl, r1, r0, lsl r3
     12c:	02460b00 	subeq	r0, r6, #0, 22
     130:	0e030000 	cdpeq	0, 0, cr0, cr3, cr0, {0}
     134:	0001a314 	andeq	sl, r1, r4, lsl r3
     138:	220b0000 	andcs	r0, fp, #0, 0
     13c:	03000002 	movweq	r0, #2
     140:	00750e0f 	rsbseq	r0, r5, pc, lsl #28
     144:	0b040000 	bleq	10014c <__bss_end__+0xf5244>
     148:	0000000f 	andeq	r0, r0, pc
     14c:	750e1003 	strvc	r1, [lr, #-3]
     150:	08000000 	stmdaeq	r0, {}	; <UNPREDICTABLE>
     154:	0000060b 	andeq	r0, r0, fp, lsl #12
     158:	0e140300 	cdpeq	3, 1, cr0, cr4, cr0, {0}
     15c:	00000075 	andeq	r0, r0, r5, ror r0
     160:	009d0b0c 	addseq	r0, sp, ip, lsl #22
     164:	16030000 	strne	r0, [r3], -r0
     168:	0001140f 	andeq	r1, r1, pc, lsl #8
     16c:	cf0b1000 	svcgt	0x000b1000
     170:	03000000 	movweq	r0, #0
     174:	00750e19 	rsbseq	r0, r5, r9, lsl lr
     178:	0b1c0000 	bleq	700180 <__bss_end__+0x6f5278>
     17c:	00000015 	andeq	r0, r0, r5, lsl r0
     180:	750e1a03 	strvc	r1, [lr, #-2563]	; 0xfffff5fd
     184:	20000000 	andcs	r0, r0, r0
     188:	0004a00b 	andeq	sl, r4, fp
     18c:	0e1c0300 	cdpeq	3, 1, cr0, cr12, cr0, {0}
     190:	00000062 	andeq	r0, r0, r2, rrx
     194:	7a720d24 	bvc	1c8362c <__bss_end__+0x1c78724>
     198:	1e030031 	mcrne	0, 0, r0, cr3, cr1, {1}
     19c:	0001a90d 	andeq	sl, r1, sp, lsl #18
     1a0:	08002600 	stmdaeq	r0, {r9, sl, sp}
     1a4:	00012004 	andeq	r2, r1, r4
     1a8:	004f0e00 	subeq	r0, pc, r0, lsl #28
     1ac:	01b90000 			; <UNDEFINED> instruction: 0x01b90000
     1b0:	2c0f0000 	stccs	0, cr0, [pc], {-0}
     1b4:	7f000000 	svcvc	0x00000000
     1b8:	00000400 	andeq	r0, r0, r0, lsl #8
     1bc:	1f030000 	svcne	0x00030000
     1c0:	00012003 	andeq	r2, r1, r3
     1c4:	07041000 	streq	r1, [r4, -r0]
     1c8:	000000b4 	strheq	r0, [r0], -r4
     1cc:	2c11a503 	cfldr32cs	mvfx10, [r1], {3}
     1d0:	11000000 	mrsne	r0, (UNDEF: 0)
     1d4:	0000014a 	andeq	r0, r0, sl, asr #2
     1d8:	14062401 	strne	r2, [r6], #-1025	; 0xfffffbff
     1dc:	2c000081 	stccs	0, cr0, [r0], {129}	; 0x81
     1e0:	01000000 	mrseq	r0, (UNDEF: 0)
     1e4:	0002639c 	muleq	r2, ip, r3
     1e8:	00701200 	rsbseq	r1, r0, r0, lsl #4
     1ec:	c50b2801 	strgt	r2, [fp, #-2049]	; 0xfffff7ff
     1f0:	04000001 	streq	r0, [r0], #-1
     1f4:	00000000 	andeq	r0, r0, r0
     1f8:	13000000 	movwne	r0, #0
     1fc:	00000354 	andeq	r0, r0, r4, asr r3
     200:	0000812c 	andeq	r8, r0, ip, lsr #2
     204:	00812c02 	addeq	r2, r1, r2, lsl #24
     208:	00000000 	andeq	r0, r0, r0
     20c:	05290100 	streq	r0, [r9, #-256]!	; 0xffffff00
     210:	0000022f 	andeq	r0, r0, pc, lsr #4
     214:	00036514 	andeq	r6, r3, r4, lsl r5
     218:	00002400 	andeq	r2, r0, r0, lsl #8
     21c:	00002200 	andeq	r2, r0, r0, lsl #4
     220:	036f1500 	cmneq	pc, #0, 10
     224:	003b0000 	eorseq	r0, fp, r0
     228:	00370000 	eorseq	r0, r7, r0
     22c:	16000000 	strne	r0, [r0], -r0
     230:	00008120 	andeq	r8, r0, r0, lsr #2
     234:	000004cb 	andeq	r0, r0, fp, asr #9
     238:	00000246 	andeq	r0, r0, r6, asr #4
     23c:	05500117 	ldrbeq	r0, [r0, #-279]	; 0xfffffee9
     240:	00a22803 	adceq	r2, r2, r3, lsl #16
     244:	24180000 	ldrcs	r0, [r8], #-0
     248:	63000081 	movwvs	r0, #129	; 0x81
     24c:	19000002 	stmdbne	r0, {r1}
     250:	00008138 	andeq	r8, r0, r8, lsr r1
     254:	000004cb 	andeq	r0, r0, fp, asr #9
     258:	05500117 	ldrbeq	r0, [r0, #-279]	; 0xfffffee9
     25c:	00a26403 	adceq	r6, r2, r3, lsl #8
     260:	1a000000 	bne	268 <__code_start__-0x7d98>
     264:	00000165 	andeq	r0, r0, r5, ror #2
     268:	c5070801 	strgt	r0, [r7, #-2049]	; 0xfffff7ff
     26c:	01000001 	tsteq	r0, r1
     270:	00000339 	andeq	r0, r0, r9, lsr r3
     274:	0005f90c 	andeq	pc, r5, ip, lsl #18
     278:	09010c00 	stmdbeq	r1, {sl, fp}
     27c:	0002a70c 	andeq	sl, r2, ip, lsl #14
     280:	00780d00 	rsbseq	r0, r8, r0, lsl #26
     284:	250d0a01 	strcs	r0, [sp, #-2561]	; 0xfffff5ff
     288:	00000000 	andeq	r0, r0, r0
     28c:	0002460b 	andeq	r4, r2, fp, lsl #12
     290:	160b0100 	strne	r0, [fp], -r0, lsl #2
     294:	00000339 	andeq	r0, r0, r9, lsr r3
     298:	02360b04 	eorseq	r0, r6, #4, 22	; 0x1000
     29c:	0c010000 	stceq	0, cr0, [r1], {-0}
     2a0:	00033916 	andeq	r3, r3, r6, lsl r9
     2a4:	1b000800 	blne	22ac <__code_start__-0x5d54>
     2a8:	0d010068 	stceq	0, cr0, [r1, #-416]	; 0xfffffe60
     2ac:	00033908 	andeq	r3, r3, r8, lsl #18
     2b0:	00901c00 	addseq	r1, r0, r0, lsl #24
     2b4:	034f0000 	movteq	r0, #61440	; 0xf000
     2b8:	03050000 	movweq	r0, #20480	; 0x5000
     2bc:	0000a290 	muleq	r0, r0, r2
     2c0:	00691b1d 	rsbeq	r1, r9, sp, lsl fp
     2c4:	250d0f01 	strcs	r0, [sp, #-3841]	; 0xfffff0ff
     2c8:	1d000000 	stcne	0, cr0, [r0, #-0]
     2cc:	0100651b 	tsteq	r0, fp, lsl r5
     2d0:	03391610 	teqeq	r9, #16, 12	; 0x1000000
     2d4:	68160000 	ldmdavs	r6, {}	; <UNPREDICTABLE>
     2d8:	d7000080 	strle	r0, [r0, -r0, lsl #1]
     2dc:	e9000004 	stmdb	r0, {r2}
     2e0:	17000002 	strne	r0, [r0, -r2]
     2e4:	3c015001 	stccc	0, cr5, [r1], {1}
     2e8:	807c1600 	rsbshi	r1, ip, r0, lsl #12
     2ec:	04e30000 	strbteq	r0, [r3], #0
     2f0:	03080000 	movweq	r0, #32768	; 0x8000
     2f4:	01170000 	tsteq	r7, r0
     2f8:	00750250 	rsbseq	r0, r5, r0, asr r2
     2fc:	02510117 	subseq	r0, r1, #-1073741819	; 0xc0000005
     300:	01170078 	tsteq	r7, r8, ror r0
     304:	003c0152 	eorseq	r0, ip, r2, asr r1
     308:	0080a016 	addeq	sl, r0, r6, lsl r0
     30c:	0004d700 	andeq	sp, r4, r0, lsl #14
     310:	00031b00 	andeq	r1, r3, r0, lsl #22
     314:	50011700 	andpl	r1, r1, r0, lsl #14
     318:	1e003c01 	cdpne	12, 0, cr3, cr0, cr1, {0}
     31c:	000080b0 	strheq	r8, [r0], -r0
     320:	000004e3 	andeq	r0, r0, r3, ror #9
     324:	02500117 	subseq	r0, r0, #-1073741819	; 0xc0000005
     328:	01170074 	tsteq	r7, r4, ror r0
     32c:	00780251 	rsbseq	r0, r8, r1, asr r2
     330:	01520117 	cmpeq	r2, r7, lsl r1
     334:	0000003c 	andeq	r0, r0, ip, lsr r0
     338:	74040800 	strvc	r0, [r4], #-2048	; 0xfffff800
     33c:	0e000002 	cdpeq	0, 0, cr0, cr0, cr2, {0}
     340:	000000cc 	andeq	r0, r0, ip, asr #1
     344:	0000034f 	andeq	r0, r0, pc, asr #6
     348:	00002c0f 	andeq	r2, r0, pc, lsl #24
     34c:	09000400 	stmdbeq	r0, {sl}
     350:	0000033f 	andeq	r0, r0, pc, lsr r3
     354:	00005f1f 	andeq	r5, r0, pc, lsl pc
     358:	11220300 			; <UNDEFINED> instruction: 0x11220300
     35c:	0000002c 	andeq	r0, r0, ip, lsr #32
     360:	00037a01 	andeq	r7, r3, r1, lsl #20
     364:	00702000 	rsbseq	r2, r0, r0
     368:	c5212203 	strgt	r2, [r1, #-515]!	; 0xfffffdfd
     36c:	1b000001 	blne	378 <__code_start__-0x7c88>
     370:	23030068 	movwcs	r0, #12392	; 0x3068
     374:	00037a0c 	andeq	r7, r3, ip, lsl #20
     378:	04080000 	streq	r0, [r8], #-0
     37c:	000001b9 			; <UNDEFINED> instruction: 0x000001b9
     380:	00023b1f 	andeq	r3, r2, pc, lsl fp
     384:	0b0c0200 	bleq	300b8c <__bss_end__+0x2f5c84>
     388:	00000114 	andeq	r0, r0, r4, lsl r1
     38c:	0003b603 	andeq	fp, r3, r3, lsl #12
     390:	003f2100 	eorseq	r2, pc, r0, lsl #2
     394:	0c020000 	stceq	0, cr0, [r2], {-0}
     398:	0000bf22 	andeq	fp, r0, r2, lsr #30
     39c:	004c2100 	subeq	r2, ip, r0, lsl #2
     3a0:	0c020000 	stceq	0, cr0, [r2], {-0}
     3a4:	0000bf34 	andeq	fp, r0, r4, lsr pc
     3a8:	011a2100 	tsteq	sl, r0, lsl #2
     3ac:	0c020000 	stceq	0, cr0, [r2], {-0}
     3b0:	00002c43 	andeq	r2, r0, r3, asr #24
     3b4:	63220000 			; <UNDEFINED> instruction: 0x63220000
     3b8:	38000002 	stmdacc	r0, {r1}
     3bc:	dc000080 	stcle	0, cr0, [r0], {128}	; 0x80
     3c0:	01000000 	mrseq	r0, (UNDEF: 0)
     3c4:	0004cb9c 	muleq	r4, ip, fp
     3c8:	02a71500 	adceq	r1, r7, #0, 10
     3cc:	005f0000 	subseq	r0, pc, r0
     3d0:	00590000 	subseq	r0, r9, r0
     3d4:	c0230000 	eorgt	r0, r3, r0
     3d8:	00000002 	andeq	r0, r0, r2
     3dc:	41000000 	mrsmi	r0, (UNDEF: 0)
     3e0:	15000004 	strne	r0, [r0, #-4]
     3e4:	000002c1 	andeq	r0, r0, r1, asr #5
     3e8:	0000008b 	andeq	r0, r0, fp, lsl #1
     3ec:	00000089 	andeq	r0, r0, r9, lsl #1
     3f0:	0002cb24 	andeq	ip, r2, r4, lsr #22
     3f4:	00002000 	andeq	r2, r0, r0
     3f8:	02cc1500 	sbceq	r1, ip, #0, 10
     3fc:	00ab0000 	adceq	r0, fp, r0
     400:	009f0000 	addseq	r0, pc, r0
     404:	80250000 	eorhi	r0, r5, r0
     408:	38000003 	stmdacc	r0, {r0, r1}
     40c:	06000080 	streq	r0, [r0], -r0, lsl #1
     410:	00000040 	andeq	r0, r0, r0, asr #32
     414:	141a1001 	ldrne	r1, [sl], #-1
     418:	000003a9 	andeq	r0, r0, r9, lsr #7
     41c:	000000f9 	strdeq	r0, [r0], -r9
     420:	000000f5 	strdeq	r0, [r0], -r5
     424:	00039d14 	andeq	r9, r3, r4, lsl sp
     428:	00011d00 	andeq	r1, r1, r0, lsl #26
     42c:	00011900 	andeq	r1, r1, r0, lsl #18
     430:	03911400 	orrseq	r1, r1, #0, 8
     434:	01490000 	mrseq	r0, (UNDEF: 73)
     438:	01450000 	mrseq	r0, (UNDEF: 69)
     43c:	00000000 	andeq	r0, r0, r0
     440:	02631300 	rsbeq	r1, r3, #0, 6
     444:	80e40000 	rschi	r0, r4, r0
     448:	e4000000 	str	r0, [r0], #-0
     44c:	30000080 	andcc	r0, r0, r0, lsl #1
     450:	01000000 	mrseq	r0, (UNDEF: 0)
     454:	04c10708 	strbeq	r0, [r1], #1800	; 0x708
     458:	a7260000 	strge	r0, [r6, -r0]!
     45c:	27000002 	strcs	r0, [r0, -r2]
     460:	000002c0 	andeq	r0, r0, r0, asr #5
     464:	000080e4 	andeq	r8, r0, r4, ror #1
     468:	00000030 	andeq	r0, r0, r0, lsr r0
     46c:	0002c126 	andeq	ip, r2, r6, lsr #2
     470:	02cb2700 	sbceq	r2, fp, #0, 14
     474:	80e40000 	rschi	r0, r4, r0
     478:	00300000 	eorseq	r0, r0, r0
     47c:	cc260000 	stcgt	0, cr0, [r6], #-0
     480:	16000002 	strne	r0, [r0], -r2
     484:	00008100 	andeq	r8, r0, r0, lsl #2
     488:	000004cb 	andeq	r0, r0, fp, asr #9
     48c:	000004b5 			; <UNDEFINED> instruction: 0x000004b5
     490:	05500117 	ldrbeq	r0, [r0, #-279]	; 0xfffffee9
     494:	00a20803 	adceq	r0, r2, r3, lsl #16
     498:	51011700 	tstpl	r1, r0, lsl #14
     49c:	17007b02 	strne	r7, [r0, -r2, lsl #22]
     4a0:	7a025201 	bvc	94cac <__bss_end__+0x89da4>
     4a4:	53011700 	movwpl	r1, #5888	; 0x1700
     4a8:	02174401 	andseq	r4, r7, #16777216	; 0x1000000
     4ac:	0305007d 	movweq	r0, #20605	; 0x507d
     4b0:	0000a21c 	andeq	sl, r0, ip, lsl r2
     4b4:	81041800 	tsthi	r4, r0, lsl #16
     4b8:	04f80000 	ldrbteq	r0, [r8], #0
     4bc:	00000000 	andeq	r0, r0, r0
     4c0:	80d81800 	sbcshi	r1, r8, r0, lsl #16
     4c4:	05040000 	streq	r0, [r4, #-0]
     4c8:	28000000 	stmdacs	r0, {}	; <UNPREDICTABLE>
     4cc:	000005c9 	andeq	r0, r0, r9, asr #11
     4d0:	000005c9 	andeq	r0, r0, r9, asr #11
     4d4:	28062805 	stmdacs	r6, {r0, r2, fp, sp}
     4d8:	00000037 	andeq	r0, r0, r7, lsr r0
     4dc:	00000037 	andeq	r0, r0, r7, lsr r0
     4e0:	28084903 	stmdacs	r8, {r0, r1, r8, fp, lr}
     4e4:	0000022f 	andeq	r0, r0, pc, lsr #4
     4e8:	0000022f 	andeq	r0, r0, pc, lsr #4
     4ec:	2907f205 	stmdbcs	r7, {r0, r2, r9, ip, sp, lr, pc}
     4f0:	74059e07 	strvc	r9, [r5], #-3591	; 0xfffff1f9
     4f4:	00747365 	rsbseq	r7, r4, r5, ror #6
     4f8:	0000a728 	andeq	sl, r0, r8, lsr #14
     4fc:	0000a700 	andeq	sl, r0, r0, lsl #14
     500:	066e0500 	strbteq	r0, [lr], -r0, lsl #10
     504:	00010c28 	andeq	r0, r1, r8, lsr #24
     508:	00010c00 	andeq	r0, r1, r0, lsl #24
     50c:	066c0300 	strbteq	r0, [ip], -r0, lsl #6
     510:	0008bd00 	andeq	fp, r8, r0, lsl #26
     514:	37000400 	strcc	r0, [r0, -r0, lsl #8]
     518:	04000002 	streq	r0, [r0], #-2
     51c:	0002d901 	andeq	sp, r2, r1, lsl #18
     520:	02cf0c00 	sbceq	r0, pc, #0, 24
     524:	03960000 	orrseq	r0, r6, #0, 0
     528:	81400000 	mrshi	r0, (UNDEF: 64)
     52c:	03bc0000 			; <UNDEFINED> instruction: 0x03bc0000
     530:	020c0000 	andeq	r0, ip, #0, 0
     534:	04020000 	streq	r0, [r2], #-0
     538:	746e6905 	strbtvc	r6, [lr], #-2309	; 0xfffff6fb
     53c:	07040300 	streq	r0, [r4, -r0, lsl #6]
     540:	0000012b 	andeq	r0, r0, fp, lsr #2
     544:	c3060103 	movwgt	r0, #24835	; 0x6103
     548:	03000000 	movweq	r0, #0
     54c:	00210502 	eoreq	r0, r1, r2, lsl #10
     550:	04030000 	streq	r0, [r3], #-0
     554:	00005605 	andeq	r5, r0, r5, lsl #12
     558:	05080300 	streq	r0, [r8, #-768]	; 0xfffffd00
     55c:	00000051 	andeq	r0, r0, r1, asr r0
     560:	00004404 	andeq	r4, r0, r4, lsl #8
     564:	182e0300 	stmdane	lr!, {r8, r9}
     568:	0000005b 	andeq	r0, r0, fp, asr r0
     56c:	c1080103 	tstgt	r8, r3, lsl #2
     570:	04000000 	streq	r0, [r0], #-0
     574:	00000141 	andeq	r0, r0, r1, asr #2
     578:	6e193103 	mufvse	f3, f1, f3
     57c:	03000000 	movweq	r0, #0
     580:	01520702 	cmpeq	r2, r2, lsl #14
     584:	38040000 	stmdacc	r4, {}	; <UNPREDICTABLE>
     588:	03000001 	movweq	r0, #1
     58c:	00811934 	addeq	r1, r1, r4, lsr r9
     590:	04030000 	streq	r0, [r3], #-0
     594:	00012607 	andeq	r2, r1, r7, lsl #12
     598:	07080300 	streq	r0, [r8, -r0, lsl #6]
     59c:	00000121 	andeq	r0, r0, r1, lsr #2
     5a0:	00002505 	andeq	r2, r0, r5, lsl #10
     5a4:	00009e00 	andeq	r9, r0, r0, lsl #28
     5a8:	00250600 	eoreq	r0, r5, r0, lsl #12
     5ac:	07000000 	streq	r0, [r0, -r0]
     5b0:	0000002b 	andeq	r0, r0, fp, lsr #32
     5b4:	aa0e1c04 	bge	3875cc <__bss_end__+0x37c6c4>
     5b8:	08000000 	stmdaeq	r0, {}	; <UNPREDICTABLE>
     5bc:	00008f04 	andeq	r8, r0, r4, lsl #30
     5c0:	00250500 	eoreq	r0, r5, r0, lsl #10
     5c4:	00bf0000 	adcseq	r0, pc, r0
     5c8:	bf060000 	svclt	0x00060000
     5cc:	00000000 	andeq	r0, r0, r0
     5d0:	00cc0408 	sbceq	r0, ip, r8, lsl #8
     5d4:	01030000 	mrseq	r0, (UNDEF: 3)
     5d8:	0000ca08 	andeq	ip, r0, r8, lsl #20
     5dc:	00c50900 	sbceq	r0, r5, r0, lsl #18
     5e0:	07070000 	streq	r0, [r7, -r0]
     5e4:	04000006 	streq	r0, [r0], #-6
     5e8:	00dd0e21 	sbcseq	r0, sp, r1, lsr #28
     5ec:	04080000 	streq	r0, [r8], #-0
     5f0:	000000b0 	strheq	r0, [r0], -r0	; <UNPREDICTABLE>
     5f4:	04050c0a 	streq	r0, [r5], #-3082	; 0xfffff3f6
     5f8:	00011409 	andeq	r1, r1, r9, lsl #8
     5fc:	003f0b00 	eorseq	r0, pc, r0, lsl #22
     600:	06050000 	streq	r0, [r5], -r0
     604:	0000bf11 	andeq	fp, r0, r1, lsl pc
     608:	4c0b0000 	stcmi	0, cr0, [fp], {-0}
     60c:	05000000 	streq	r0, [r0, #-0]
     610:	00bf1107 	adcseq	r1, pc, r7, lsl #2
     614:	0b040000 	bleq	10061c <__bss_end__+0xf5714>
     618:	0000011a 	andeq	r0, r0, sl, lsl r1
     61c:	2c0e0805 	stccs	8, cr0, [lr], {5}
     620:	08000000 	stmdaeq	r0, {}	; <UNPREDICTABLE>
     624:	024b0400 	subeq	r0, fp, #0, 8
     628:	09050000 	stmdbeq	r5, {}	; <UNPREDICTABLE>
     62c:	0000e303 	andeq	lr, r0, r3, lsl #6
     630:	01070c00 	tsteq	r7, r0, lsl #24
     634:	0000005b 	andeq	r0, r0, fp, asr r0
     638:	3b0e0902 	blcc	382a48 <__bss_end__+0x377b40>
     63c:	0d000001 	stceq	0, cr0, [r0, #-4]
     640:	0000038e 	andeq	r0, r0, lr, lsl #7
     644:	02650d0b 	rsbeq	r0, r5, #704	; 0x2c0
     648:	000c0000 	andeq	r0, ip, r0
     64c:	5b01070c 	blpl	42284 <__bss_end__+0x3737c>
     650:	02000000 	andeq	r0, r0, #0, 0
     654:	0156060a 	cmpeq	r6, sl, lsl #12
     658:	770d0000 	strvc	r0, [sp, -r0]
     65c:	80000002 	andhi	r0, r0, r2
     660:	00026b0d 	andeq	r6, r2, sp, lsl #22
     664:	0e00fe00 	cdpeq	14, 0, cr15, cr0, cr0, {0}
     668:	00000089 	andeq	r0, r0, r9, lsl #1
     66c:	100d02a8 	andne	r0, sp, r8, lsr #5
     670:	000001d9 	ldrdeq	r0, [r0], -r9
     674:	0002460b 	andeq	r4, r2, fp, lsl #12
     678:	140e0200 	strne	r0, [lr], #-512	; 0xfffffe00
     67c:	000001d9 	ldrdeq	r0, [r0], -r9
     680:	02220b00 	eoreq	r0, r2, #0, 22
     684:	0f020000 	svceq	0x00020000
     688:	0000750e 	andeq	r7, r0, lr, lsl #10
     68c:	0f0b0400 	svceq	0x000b0400
     690:	02000000 	andeq	r0, r0, #0, 0
     694:	00750e10 	rsbseq	r0, r5, r0, lsl lr
     698:	0b080000 	bleq	2006a0 <__bss_end__+0x1f5798>
     69c:	00000006 	andeq	r0, r0, r6
     6a0:	750e1402 	strvc	r1, [lr, #-1026]	; 0xfffffbfe
     6a4:	0c000000 	stceq	0, cr0, [r0], {-0}
     6a8:	00009d0b 	andeq	r9, r0, fp, lsl #26
     6ac:	0f160200 	svceq	0x00160200
     6b0:	00000114 	andeq	r0, r0, r4, lsl r1
     6b4:	00cf0b10 	sbceq	r0, pc, r0, lsl fp	; <UNPREDICTABLE>
     6b8:	19020000 	stmdbne	r2, {}	; <UNPREDICTABLE>
     6bc:	0000750e 	andeq	r7, r0, lr, lsl #10
     6c0:	150b1c00 	strne	r1, [fp, #-3072]	; 0xfffff400
     6c4:	02000000 	andeq	r0, r0, #0, 0
     6c8:	00750e1a 	rsbseq	r0, r5, sl, lsl lr
     6cc:	0b200000 	bleq	8006d4 <__bss_end__+0x7f57cc>
     6d0:	000004a0 	andeq	r0, r0, r0, lsr #9
     6d4:	620e1c02 	andvs	r1, lr, #512	; 0x200
     6d8:	24000000 	strcs	r0, [r0], #-0
     6dc:	317a720f 	cmncc	sl, pc, lsl #4
     6e0:	0d1e0200 	lfmeq	f0, 4, [lr, #-0]
     6e4:	000001df 	ldrdeq	r0, [r0], -pc	; <UNPREDICTABLE>
     6e8:	04080026 	streq	r0, [r8], #-38	; 0xffffffda
     6ec:	00000156 	andeq	r0, r0, r6, asr r1
     6f0:	00004f10 	andeq	r4, r0, r0, lsl pc
     6f4:	0001ef00 	andeq	lr, r1, r0, lsl #30
     6f8:	002c1100 	eoreq	r1, ip, r0, lsl #2
     6fc:	007f0000 	rsbseq	r0, pc, r0
     700:	00000004 	andeq	r0, r0, r4
     704:	031f0200 	tsteq	pc, #0, 4
     708:	00000156 	andeq	r0, r0, r6, asr r1
     70c:	b4070412 	strlt	r0, [r7], #-1042	; 0xfffffbee
     710:	02000000 	andeq	r0, r0, #0, 0
     714:	002c11a5 	eoreq	r1, ip, r5, lsr #3
     718:	9a130000 	bls	4c0720 <__bss_end__+0x4b5818>
     71c:	01000002 	tsteq	r0, r2
     720:	021b0f08 	andseq	r0, fp, #8, 30
     724:	03050000 	movweq	r0, #20480	; 0x5000
     728:	0000aae0 	andeq	sl, r0, r0, ror #21
     72c:	01ef0408 	mvneq	r0, r8, lsl #8
     730:	37140000 	ldrcc	r0, [r4, -r0]
     734:	01000000 	mrseq	r0, (UNDEF: 0)
     738:	01fb0872 	mvnseq	r0, r2, ror r8
     73c:	84380000 	ldrthi	r0, [r8], #-0
     740:	00c40000 	sbceq	r0, r4, r0
     744:	9c010000 	stcls	0, cr0, [r1], {-0}
     748:	0000030e 	andeq	r0, r0, lr, lsl #6
     74c:	0003e515 	andeq	lr, r3, r5, lsl r5
     750:	1a720100 	bne	1c80b58 <__bss_end__+0x1c75c50>
     754:	00000075 	andeq	r0, r0, r5, ror r0
     758:	00000177 	andeq	r0, r0, r7, ror r1
     75c:	00000171 	andeq	r0, r0, r1, ror r1
     760:	01006c16 	tsteq	r0, r6, lsl ip
     764:	01142c72 	tsteq	r4, r2, ror ip
     768:	91020000 	mrsls	r0, (UNDEF: 2)
     76c:	00681764 	rsbeq	r1, r8, r4, ror #14
     770:	1b0c7401 	blne	31d77c <__bss_end__+0x312874>
     774:	a9000002 	stmdbge	r0, {r1}
     778:	a3000001 	movwge	r0, #1
     77c:	18000001 	stmdane	r0, {r0}
     780:	00008464 	andeq	r8, r0, r4, ror #8
     784:	0000002c 	andeq	r0, r0, ip, lsr #32
     788:	0000028e 	andeq	r0, r0, lr, lsl #5
     78c:	01006917 	tsteq	r0, r7, lsl r9
     790:	00250d7a 	eoreq	r0, r5, sl, ror sp
     794:	01da0000 	bicseq	r0, sl, r0
     798:	01d60000 	bicseq	r0, r6, r0
     79c:	19000000 	stmdbne	r0, {}	; <UNPREDICTABLE>
     7a0:	00008454 	andeq	r8, r0, r4, asr r4
     7a4:	00000890 	muleq	r0, r0, r8
     7a8:	000002a3 	andeq	r0, r0, r3, lsr #5
     7ac:	0350011a 	cmpeq	r0, #-2147483642	; 0x80000006
     7b0:	0002a875 	andeq	sl, r2, r5, ror r8
     7b4:	00846419 	addeq	r6, r4, r9, lsl r4
     7b8:	00089c00 	andeq	r9, r8, r0, lsl #24
     7bc:	0002c200 	andeq	ip, r2, r0, lsl #4
     7c0:	50011a00 	andpl	r1, r1, r0, lsl #20
     7c4:	1a007402 	bne	1d7d4 <__bss_end__+0x128cc>
     7c8:	30015101 	andcc	r5, r1, r1, lsl #2
     7cc:	0252011a 	subseq	r0, r2, #-2147483642	; 0x80000006
     7d0:	1900a808 	stmdbne	r0, {r3, fp, sp, pc}
     7d4:	000084c0 	andeq	r8, r0, r0, asr #9
     7d8:	000008a8 	andeq	r0, r0, r8, lsr #17
     7dc:	000002ee 	andeq	r0, r0, lr, ror #5
     7e0:	0550011a 	ldrbeq	r0, [r0, #-282]	; 0xfffffee6
     7e4:	00a2e403 	adceq	lr, r2, r3, lsl #8
     7e8:	51011a00 	tstpl	r1, r0, lsl #20
     7ec:	065c9103 	ldrbeq	r9, [ip], -r3, lsl #2
     7f0:	0352011a 	cmpeq	r2, #-2147483642	; 0x80000006
     7f4:	1a066091 	bne	198a40 <__bss_end__+0x18db38>
     7f8:	91035301 	tstls	r3, r1, lsl #6
     7fc:	1b000664 	blne	2194 <__code_start__-0x5e6c>
     800:	000084d4 	ldrdeq	r8, [r0], -r4
     804:	000008a8 	andeq	r0, r0, r8, lsr #17
     808:	0550011a 	ldrbeq	r0, [r0, #-282]	; 0xfffffee6
     80c:	00a3a403 	adceq	sl, r3, r3, lsl #8
     810:	51011a00 	tstpl	r1, r0, lsl #20
     814:	1a007602 	bne	1e024 <__bss_end__+0x1311c>
     818:	75025201 	strvc	r5, [r2, #-513]	; 0xfffffdff
     81c:	1c000000 	stcne	0, cr0, [r0], {-0}
     820:	00000293 	muleq	r0, r3, r2
     824:	ac065301 	stcge	3, cr5, [r6], {1}
     828:	8c000082 	stchi	0, cr0, [r0], {130}	; 0x82
     82c:	01000001 	tsteq	r0, r1
     830:	00053d9c 	muleq	r5, ip, sp
     834:	0a861500 	beq	fe185c3c <__bss_end__+0xfe17ad34>
     838:	53010000 	movwpl	r0, #4096	; 0x1000
     83c:	0001fb14 	andeq	pc, r1, r4, lsl fp	; <UNPREDICTABLE>
     840:	0001fd00 	andeq	pc, r1, r0, lsl #26
     844:	0001f900 	andeq	pc, r1, r0, lsl #18
     848:	006c1600 	rsbeq	r1, ip, r0, lsl #12
     84c:	14245301 	strtne	r5, [r4], #-769	; 0xfffffcff
     850:	02000001 	andeq	r0, r0, #1, 0
     854:	68175491 	ldmdavs	r7, {r0, r4, r7, sl, ip, lr}
     858:	0c550100 	ldfeqe	f0, [r5], {-0}
     85c:	0000021b 	andeq	r0, r0, fp, lsl r2
     860:	00000225 	andeq	r0, r0, r5, lsr #4
     864:	0000021b 	andeq	r0, r0, fp, lsl r2
     868:	0000901d 	andeq	r9, r0, sp, lsl r0
     86c:	00054d00 	andeq	r4, r5, r0, lsl #26
     870:	cc030500 	cfstr32gt	mvfx0, [r3], {-0}
     874:	1e0000a3 	cdpne	0, 0, cr0, cr0, cr3, {5}
     878:	00000068 	andeq	r0, r0, r8, rrx
     87c:	0000041a 	andeq	r0, r0, sl, lsl r4
     880:	01006917 	tsteq	r0, r7, lsl r9
     884:	00250d5c 	eoreq	r0, r5, ip, asr sp
     888:	02700000 	rsbseq	r0, r0, #0, 0
     88c:	026a0000 	rsbeq	r0, sl, #0, 0
     890:	6c190000 	ldcvs	0, cr0, [r9], {-0}
     894:	a8000083 	stmdage	r0, {r0, r1, r7}
     898:	aa000008 	bge	8c0 <__code_start__-0x7740>
     89c:	1a000003 	bne	8b0 <__code_start__-0x7750>
     8a0:	03055001 	movweq	r5, #20481	; 0x5001
     8a4:	0000a300 	andeq	sl, r0, r0, lsl #6
     8a8:	0251011a 	subseq	r0, r1, #-2147483642	; 0x80000006
     8ac:	011a0076 	tsteq	sl, r6, ror r0
     8b0:	00770252 	rsbseq	r0, r7, r2, asr r2
     8b4:	0253011a 	subseq	r0, r3, #-2147483642	; 0x80000006
     8b8:	19000078 	stmdbne	r0, {r3, r4, r5, r6}
     8bc:	00008380 	andeq	r8, r0, r0, lsl #7
     8c0:	000008a8 	andeq	r0, r0, r8, lsr #17
     8c4:	000003c7 	andeq	r0, r0, r7, asr #7
     8c8:	0550011a 	ldrbeq	r0, [r0, #-282]	; 0xfffffee6
     8cc:	00a34003 	adceq	r4, r3, r3
     8d0:	52011a00 	andpl	r1, r1, #0, 20
     8d4:	00fe0802 	rscseq	r0, lr, r2, lsl #16
     8d8:	0083841f 	addeq	r8, r3, pc, lsl r4
     8dc:	0008b400 	andeq	fp, r8, r0, lsl #8
     8e0:	83981900 	orrshi	r1, r8, #0, 18
     8e4:	08a80000 	stmiaeq	r8!, {}	; <UNPREDICTABLE>
     8e8:	03f90000 	mvnseq	r0, #0, 0
     8ec:	011a0000 	tsteq	sl, r0
     8f0:	00030550 	andeq	r0, r3, r0, asr r5
     8f4:	1a0000a3 	bne	b88 <__code_start__-0x7478>
     8f8:	76025101 	strvc	r5, [r2], -r1, lsl #2
     8fc:	52011a00 	andpl	r1, r1, #0, 20
     900:	1a007702 	bne	1e510 <__bss_end__+0x13608>
     904:	78025301 	stmdavc	r2, {r0, r8, r9, ip, lr}
     908:	a0190000 	andsge	r0, r9, r0
     90c:	a8000083 	stmdage	r0, {r0, r1, r7}
     910:	10000008 	andne	r0, r0, r8
     914:	1a000004 	bne	92c <__code_start__-0x76d4>
     918:	03055001 	movweq	r5, #20481	; 0x5001
     91c:	0000a370 	andeq	sl, r0, r0, ror r3
     920:	83a41f00 			; <UNDEFINED> instruction: 0x83a41f00
     924:	08b40000 	ldmeq	r4!, {}	; <UNPREDICTABLE>
     928:	18000000 	stmdane	r0, {}	; <UNPREDICTABLE>
     92c:	000083a4 	andeq	r8, r0, r4, lsr #7
     930:	0000001c 	andeq	r0, r0, ip, lsl r0
     934:	0000043a 	andeq	r0, r0, sl, lsr r4
     938:	01006917 	tsteq	r0, r7, lsl r9
     93c:	00250d64 	eoreq	r0, r5, r4, ror #26
     940:	029b0000 	addseq	r0, fp, #0, 0
     944:	02990000 	addseq	r0, r9, #0, 0
     948:	19000000 	stmdbne	r0, {}	; <UNPREDICTABLE>
     94c:	000082e0 	andeq	r8, r0, r0, ror #5
     950:	000008a8 	andeq	r0, r0, r8, lsr #17
     954:	00000463 	andeq	r0, r0, r3, ror #8
     958:	0550011a 	ldrbeq	r0, [r0, #-282]	; 0xfffffee6
     95c:	00a2e403 	adceq	lr, r2, r3, lsl #8
     960:	51011a00 	tstpl	r1, r0, lsl #20
     964:	1a007602 	bne	1e174 <__bss_end__+0x1326c>
     968:	77025201 	strvc	r5, [r2, -r1, lsl #4]
     96c:	53011a00 	movwpl	r1, #6656	; 0x1a00
     970:	00007802 	andeq	r7, r0, r2, lsl #16
     974:	0082ec19 	addeq	lr, r2, r9, lsl ip
     978:	0008a800 	andeq	sl, r8, r0, lsl #16
     97c:	00048000 	andeq	r8, r4, r0
     980:	50011a00 	andpl	r1, r1, r0, lsl #20
     984:	a2f00305 	rscsge	r0, r0, #335544320	; 0x14000000
     988:	011a0000 	tsteq	sl, r0
     98c:	00750251 	rsbseq	r0, r5, r1, asr r2
     990:	83481900 	movthi	r1, #35072	; 0x8900
     994:	08a80000 	stmiaeq	r8!, {}	; <UNPREDICTABLE>
     998:	04a90000 	strteq	r0, [r9], #0
     99c:	011a0000 	tsteq	sl, r0
     9a0:	00030550 	andeq	r0, r3, r0, asr r5
     9a4:	1a0000a3 	bne	c38 <__code_start__-0x73c8>
     9a8:	76025101 	strvc	r5, [r2], -r1, lsl #2
     9ac:	52011a00 	andpl	r1, r1, #0, 20
     9b0:	1a007702 	bne	1e5c0 <__bss_end__+0x136b8>
     9b4:	78025301 	stmdavc	r2, {r0, r8, r9, ip, lr}
     9b8:	54190000 	ldrpl	r0, [r9], #-0
     9bc:	a8000083 	stmdage	r0, {r0, r1, r7}
     9c0:	c0000008 	andgt	r0, r0, r8
     9c4:	1a000004 	bne	9dc <__code_start__-0x7624>
     9c8:	03055001 	movweq	r5, #20481	; 0x5001
     9cc:	0000a318 	andeq	sl, r0, r8, lsl r3
     9d0:	83581f00 	cmphi	r8, #0, 30
     9d4:	08b40000 	ldmeq	r4!, {}	; <UNPREDICTABLE>
     9d8:	d0190000 	andsle	r0, r9, r0
     9dc:	72000083 	andvc	r0, r0, #131, 0	; 0x83
     9e0:	dd000006 	stcle	0, cr0, [r0, #-24]	; 0xffffffe8
     9e4:	1a000004 	bne	9fc <__code_start__-0x7604>
     9e8:	75025001 	strvc	r5, [r2, #-1]
     9ec:	e4190000 	ldr	r0, [r9], #-0
     9f0:	52000083 	andpl	r0, r0, #131, 0	; 0x83
     9f4:	fa000005 	blx	a10 <__code_start__-0x75f0>
     9f8:	1a000004 	bne	a10 <__code_start__-0x75f0>
     9fc:	03055001 	movweq	r5, #20481	; 0x5001
     a00:	0000aae0 	andeq	sl, r0, r0, ror #21
     a04:	0251011a 	subseq	r0, r1, #-2147483642	; 0x80000006
     a08:	19000079 	stmdbne	r0, {r0, r3, r4, r5, r6}
     a0c:	00008408 	andeq	r8, r0, r8, lsl #8
     a10:	000008a8 	andeq	r0, r0, r8, lsr #17
     a14:	00000533 	andeq	r0, r0, r3, lsr r5
     a18:	0550011a 	ldrbeq	r0, [r0, #-282]	; 0xfffffee6
     a1c:	00a20803 	adceq	r0, r2, r3, lsl #16
     a20:	51011a00 	tstpl	r1, r0, lsl #20
     a24:	a2980305 	addsge	r0, r8, #335544320	; 0x14000000
     a28:	011a0000 	tsteq	sl, r0
     a2c:	cc030552 	cfstr32gt	mvfx0, [r3], {82}	; 0x52
     a30:	1a0000a3 	bne	cc4 <__code_start__-0x733c>
     a34:	08025301 	stmdaeq	r2, {r0, r8, r9, ip, lr}
     a38:	7d021a69 	vstrvc	s2, [r2, #-420]	; 0xfffffe5c
     a3c:	8c030500 	cfstr32hi	mvfx0, [r3], {-0}
     a40:	000000a3 	andeq	r0, r0, r3, lsr #1
     a44:	00840c1f 	addeq	r0, r4, pc, lsl ip
     a48:	0008b400 	andeq	fp, r8, r0, lsl #8
     a4c:	cc100000 	ldcgt	0, cr0, [r0], {-0}
     a50:	4d000000 	stcmi	0, cr0, [r0, #-0]
     a54:	11000005 	tstne	r0, r5
     a58:	0000002c 	andeq	r0, r0, ip, lsr #32
     a5c:	3d090006 	stccc	0, cr0, [r9, #-24]	; 0xffffffe8
     a60:	20000005 	andcs	r0, r0, r5
     a64:	000002a5 	andeq	r0, r0, r5, lsr #5
     a68:	600d3a01 	andvs	r3, sp, r1, lsl #20
     a6c:	a4000081 	strge	r0, [r0], #-129	; 0xffffff7f
     a70:	01000000 	mrseq	r0, (UNDEF: 0)
     a74:	0006579c 	muleq	r6, ip, r7
     a78:	006c2100 	rsbeq	r2, ip, r0, lsl #2
     a7c:	57213a01 	strpl	r3, [r1, -r1, lsl #20]!
     a80:	bc000006 	stclt	0, cr0, [r0], {6}
     a84:	ae000002 	cdpge	0, 0, cr0, cr0, cr2, {0}
     a88:	21000002 	tstcs	r0, r2
     a8c:	3a010068 	bcc	40c34 <__bss_end__+0x35d2c>
     a90:	00021b2b 	andeq	r1, r2, fp, lsr #22
     a94:	00032600 	andeq	r2, r3, r0, lsl #12
     a98:	00031a00 	andeq	r1, r3, r0, lsl #20
     a9c:	00901d00 	addseq	r1, r0, r0, lsl #26
     aa0:	066d0000 	strbteq	r0, [sp], -r0
     aa4:	03050000 	movweq	r0, #20480	; 0x5000
     aa8:	0000a3c0 	andeq	sl, r0, r0, asr #7
     aac:	00023622 	andeq	r3, r2, r2, lsr #12
     ab0:	0c3d0100 	ldfeqs	f0, [sp], #-0
     ab4:	0000021b 	andeq	r0, r0, fp, lsl r2
     ab8:	0000037b 	andeq	r0, r0, fp, ror r3
     abc:	00000373 	andeq	r0, r0, r3, ror r3
     ac0:	01007017 	tsteq	r0, r7, lsl r0
     ac4:	021b0c45 	andseq	r0, fp, #17664	; 0x4500
     ac8:	03b30000 			; <UNDEFINED> instruction: 0x03b30000
     acc:	03af0000 			; <UNDEFINED> instruction: 0x03af0000
     ad0:	88190000 	ldmdahi	r9, {}	; <UNPREDICTABLE>
     ad4:	31000081 	smlabbcc	r0, r1, r0, r0
     ad8:	d5000008 	strle	r0, [r0, #-8]
     adc:	1a000005 	bne	af8 <__code_start__-0x7508>
     ae0:	75025001 	strvc	r5, [r2, #-1]
     ae4:	c4190000 	ldrgt	r0, [r9], #-0
     ae8:	a8000081 	stmdage	r0, {r0, r7}
     aec:	0e000008 	cdpeq	0, 0, cr0, cr0, cr8, {0}
     af0:	1a000006 	bne	b10 <__code_start__-0x74f0>
     af4:	03055001 	movweq	r5, #20481	; 0x5001
     af8:	0000a208 	andeq	sl, r0, r8, lsl #4
     afc:	0551011a 	ldrbeq	r0, [r1, #-282]	; 0xfffffee6
     b00:	00a29803 	adceq	r9, r2, r3, lsl #16
     b04:	52011a00 	andpl	r1, r1, #0, 20
     b08:	a3c00305 	bicge	r0, r0, #335544320	; 0x14000000
     b0c:	011a0000 	tsteq	sl, r0
     b10:	3c080253 	sfmcc	f0, 4, [r8], {83}	; 0x53
     b14:	007d021a 	rsbseq	r0, sp, sl, lsl r2
     b18:	a2a40305 	adcge	r0, r4, #335544320	; 0x14000000
     b1c:	1f000000 	svcne	0x00000000
     b20:	000081c8 	andeq	r8, r0, r8, asr #3
     b24:	000008b4 			; <UNDEFINED> instruction: 0x000008b4
     b28:	0081ec19 	addeq	lr, r1, r9, lsl ip
     b2c:	0008a800 	andeq	sl, r8, r0, lsl #16
     b30:	00064d00 	andeq	r4, r6, r0, lsl #26
     b34:	50011a00 	andpl	r1, r1, r0, lsl #20
     b38:	a2a80305 	adcge	r0, r8, #335544320	; 0x14000000
     b3c:	011a0000 	tsteq	sl, r0
     b40:	98030551 	stmdals	r3, {r0, r4, r6, r8, sl}
     b44:	1a0000a2 	bne	dd4 <__code_start__-0x722c>
     b48:	03055201 	movweq	r5, #20993	; 0x5201
     b4c:	0000a3c0 	andeq	sl, r0, r0, asr #7
     b50:	0253011a 	subseq	r0, r3, #-2147483642	; 0x80000006
     b54:	021a4f08 	andseq	r4, sl, #8, 30
     b58:	7402007d 	strvc	r0, [r2], #-125	; 0xffffff83
     b5c:	f01f0000 			; <UNDEFINED> instruction: 0xf01f0000
     b60:	b4000081 	strlt	r0, [r0], #-129	; 0xffffff7f
     b64:	00000008 	andeq	r0, r0, r8
     b68:	021b0408 	andseq	r0, fp, #8, 8	; 0x8000000
     b6c:	cc100000 	ldcgt	0, cr0, [r0], {-0}
     b70:	6d000000 	stcvs	0, cr0, [r0, #-0]
     b74:	11000006 	tstne	r0, r6
     b78:	0000002c 	andeq	r0, r0, ip, lsr #32
     b7c:	5d09000b 	stcpl	0, cr0, [r9, #-44]	; 0xffffffd4
     b80:	14000006 	strne	r0, [r0], #-6
     b84:	000002b1 			; <UNDEFINED> instruction: 0x000002b1
     b88:	1b082b01 	blne	20b794 <__bss_end__+0x20088c>
     b8c:	54000002 	strpl	r0, [r0], #-2
     b90:	58000082 	stmdapl	r0, {r1, r7}
     b94:	01000000 	mrseq	r0, (UNDEF: 0)
     b98:	0007139c 	muleq	r7, ip, r3
     b9c:	74702100 	ldrbtvc	r2, [r0], #-256	; 0xffffff00
     ba0:	2b010072 	blcs	40d70 <__bss_end__+0x35e68>
     ba4:	0001fb20 	andeq	pc, r1, r0, lsr #22
     ba8:	0003d500 	andeq	sp, r3, r0, lsl #10
     bac:	0003d100 	andeq	sp, r3, r0, lsl #2
     bb0:	825c2300 	subshi	r2, ip, #0, 6
     bb4:	00440000 	subeq	r0, r4, r0
     bb8:	68170000 	ldmdavs	r7, {}	; <UNPREDICTABLE>
     bbc:	112e0100 			; <UNDEFINED> instruction: 0x112e0100
     bc0:	0000021b 	andeq	r0, r0, fp, lsl r2
     bc4:	000003fb 	strdeq	r0, [r0], -fp
     bc8:	000003f3 	strdeq	r0, [r0], -r3
     bcc:	0082601f 	addeq	r6, r2, pc, lsl r0
     bd0:	00085e00 	andeq	r5, r8, r0, lsl #28
     bd4:	82781900 	rsbshi	r1, r8, #0, 18
     bd8:	07130000 	ldreq	r0, [r3, -r0]
     bdc:	06de0000 	ldrbeq	r0, [lr], r0
     be0:	011a0000 	tsteq	sl, r0
     be4:	00740250 	rsbseq	r0, r4, r0, asr r2
     be8:	0251011a 	subseq	r0, r1, #-2147483642	; 0x80000006
     bec:	19000075 	stmdbne	r0, {r0, r2, r4, r5, r6}
     bf0:	00008288 	andeq	r8, r0, r8, lsl #5
     bf4:	00000831 	andeq	r0, r0, r1, lsr r8
     bf8:	000006f2 	strdeq	r0, [r0], -r2
     bfc:	0250011a 	subseq	r0, r0, #-2147483642	; 0x80000006
     c00:	1b000074 	blne	dd8 <__code_start__-0x7228>
     c04:	000082a0 	andeq	r8, r0, r0, lsr #5
     c08:	000008a8 	andeq	r0, r0, r8, lsr #17
     c0c:	0550011a 	ldrbeq	r0, [r0, #-282]	; 0xfffffee6
     c10:	00a2d403 	adceq	sp, r2, r3, lsl #8
     c14:	51011a00 	tstpl	r1, r0, lsl #20
     c18:	1a007502 	bne	1e028 <__bss_end__+0x13120>
     c1c:	74025201 	strvc	r5, [r2], #-513	; 0xfffffdff
     c20:	00000000 	andeq	r0, r0, r0
     c24:	00025514 	andeq	r5, r2, r4, lsl r5
     c28:	0a240100 	beq	901030 <__bss_end__+0x8f6128>
     c2c:	0000002c 	andeq	r0, r0, ip, lsr #32
     c30:	00008224 	andeq	r8, r0, r4, lsr #4
     c34:	00000030 	andeq	r0, r0, r0, lsr r0
     c38:	07a09c01 	streq	r9, [r0, r1, lsl #24]!
     c3c:	68210000 	stmdavs	r1!, {}	; <UNPREDICTABLE>
     c40:	21240100 			; <UNDEFINED> instruction: 0x21240100
     c44:	0000021b 	andeq	r0, r0, fp, lsl r2
     c48:	00000433 	andeq	r0, r0, r3, lsr r4
     c4c:	0000042f 	andeq	r0, r0, pc, lsr #8
     c50:	72747021 	rsbsvc	r7, r4, #33, 0	; 0x21
     c54:	2a240100 	bcs	90105c <__bss_end__+0x8f6154>
     c58:	000001fb 	strdeq	r0, [r0], -fp
     c5c:	00000455 	andeq	r0, r0, r5, asr r4
     c60:	00000451 	andeq	r0, r0, r1, asr r4
     c64:	6e696d17 	mcrvs	13, 3, r6, cr9, cr7, {0}
     c68:	0b260100 	bleq	981070 <__bss_end__+0x976168>
     c6c:	000001fb 	strdeq	r0, [r0], -fp
     c70:	00000477 	andeq	r0, r0, r7, ror r4
     c74:	00000473 	andeq	r0, r0, r3, ror r4
     c78:	78616d17 	stmdavc	r1!, {r0, r1, r2, r4, r8, sl, fp, sp, lr}^
     c7c:	0b270100 	bleq	9c1084 <__bss_end__+0x9b617c>
     c80:	000001fb 	strdeq	r0, [r0], -fp
     c84:	00000497 	muleq	r0, r7, r4
     c88:	00000495 	muleq	r0, r5, r4
     c8c:	00823419 	addeq	r3, r2, r9, lsl r4
     c90:	00080400 	andeq	r0, r8, r0, lsl #8
     c94:	00078f00 	andeq	r8, r7, r0, lsl #30
     c98:	50011a00 	andpl	r1, r1, r0, lsl #20
     c9c:	00007602 	andeq	r7, r0, r2, lsl #12
     ca0:	0082401b 	addeq	r4, r2, fp, lsl r0
     ca4:	0007a000 	andeq	sl, r7, r0
     ca8:	50011a00 	andpl	r1, r1, r0, lsl #20
     cac:	00007602 	andeq	r7, r0, r2, lsl #12
     cb0:	03d71400 	bicseq	r1, r7, #0, 8
     cb4:	1e010000 	cdpne	0, 0, cr0, cr1, cr0, {0}
     cb8:	0001fb07 	andeq	pc, r1, r7, lsl #22
     cbc:	00820c00 	addeq	r0, r2, r0, lsl #24
     cc0:	00001800 	andeq	r1, r0, r0, lsl #16
     cc4:	049c0100 	ldreq	r0, [ip], #256	; 0x100
     cc8:	21000008 	tstcs	r0, r8
     ccc:	1e010068 	cdpne	0, 0, cr0, cr1, cr8, {3}
     cd0:	00021b19 	andeq	r1, r2, r9, lsl fp
     cd4:	0004ae00 	andeq	sl, r4, r0, lsl #28
     cd8:	0004aa00 	andeq	sl, r4, r0, lsl #20
     cdc:	08742400 	ldmdaeq	r4!, {sl, sp}^
     ce0:	82180000 	andshi	r0, r8, #0, 0
     ce4:	18000000 	stmdane	r0, {}	; <UNPREDICTABLE>
     ce8:	04000082 	streq	r0, [r0], #-130	; 0xffffff7e
     cec:	01000000 	mrseq	r0, (UNDEF: 0)
     cf0:	07f32620 	ldrbeq	r2, [r3, r0, lsr #12]!
     cf4:	85250000 	strhi	r0, [r5, #-0]!
     cf8:	ce000008 	cdpgt	0, 0, cr0, cr0, cr8, {0}
     cfc:	cc000004 	stcgt	0, cr0, [r0], {4}
     d00:	00000004 	andeq	r0, r0, r4
     d04:	0082181b 	addeq	r1, r2, fp, lsl r8
     d08:	00080400 	andeq	r0, r8, r0, lsl #8
     d0c:	50011a00 	andpl	r1, r1, r0, lsl #20
     d10:	00007402 	andeq	r7, r0, r2, lsl #8
     d14:	03ca1400 	biceq	r1, sl, #0, 8
     d18:	18010000 	stmdane	r1, {}	; <UNPREDICTABLE>
     d1c:	0001fb07 	andeq	pc, r1, r7, lsl #22
     d20:	00820400 	addeq	r0, r2, r0, lsl #8
     d24:	00000800 	andeq	r0, r0, r0, lsl #16
     d28:	319c0100 	orrscc	r0, ip, r0, lsl #2
     d2c:	21000008 	tstcs	r0, r8
     d30:	18010068 	stmdane	r1, {r3, r5, r6}
     d34:	00021b1b 	andeq	r1, r2, fp, lsl fp
     d38:	0004e500 	andeq	lr, r4, r0, lsl #10
     d3c:	0004e100 	andeq	lr, r4, r0, lsl #2
     d40:	c3140000 	tstgt	r4, #0, 0
     d44:	01000002 	tsteq	r0, r2
     d48:	021b0811 	andseq	r0, fp, #1114112	; 0x110000
     d4c:	81500000 	cmphi	r0, r0
     d50:	00100000 	andseq	r0, r0, r0
     d54:	9c010000 	stcls	0, cr0, [r1], {-0}
     d58:	0000085e 	andeq	r0, r0, lr, asr r8
     d5c:	01007021 	tsteq	r0, r1, lsr #32
     d60:	021b1b11 	andseq	r1, fp, #17408	; 0x4400
     d64:	050a0000 	streq	r0, [sl, #-0]
     d68:	05060000 	streq	r0, [r6, #-0]
     d6c:	26000000 	strcs	r0, [r0], -r0
     d70:	00000286 	andeq	r0, r0, r6, lsl #5
     d74:	1b080b01 	blne	203980 <__bss_end__+0x1f8a78>
     d78:	40000002 	andmi	r0, r0, r2
     d7c:	10000081 	andne	r0, r0, r1, lsl #1
     d80:	01000000 	mrseq	r0, (UNDEF: 0)
     d84:	03e2279c 	mvneq	r2, #156, 14	; 0x2700000
     d88:	2e020000 	cdpcs	0, 0, cr0, cr2, cr0, {0}
     d8c:	00002c18 	andeq	r2, r0, r8, lsl ip
     d90:	08900300 	ldmeq	r0, {r8, r9}
     d94:	68280000 	stmdavs	r8!, {}	; <UNPREDICTABLE>
     d98:	292e0200 	stmdbcs	lr!, {r9}
     d9c:	0000021b 	andeq	r0, r0, fp, lsl r2
     da0:	03ec2900 	mvneq	r2, #0, 18
     da4:	03ec0000 	mvneq	r0, #0, 0
     da8:	1e060000 	cdpne	0, 0, cr0, cr6, cr0, {0}
     dac:	022f2907 	eoreq	r2, pc, #114688	; 0x1c000
     db0:	022f0000 	eoreq	r0, pc, #0, 0
     db4:	f2040000 	vhadd.s8	d0, d4, d0
     db8:	05c92907 	strbeq	r2, [r9, #2311]	; 0x907
     dbc:	05c90000 	strbeq	r0, [r9]
     dc0:	28040000 	stmdacs	r4, {}	; <UNPREDICTABLE>
     dc4:	00a72906 	adceq	r2, r7, r6, lsl #18
     dc8:	00a70000 	adceq	r0, r7, r0
     dcc:	6e040000 	cdpvs	0, 0, cr0, cr4, cr0, {0}
     dd0:	02fb0006 	rscseq	r0, fp, #6, 0
     dd4:	00040000 	andeq	r0, r4, r0
     dd8:	000004b2 			; <UNDEFINED> instruction: 0x000004b2
     ddc:	016a0104 	cmneq	sl, r4, lsl #2
     de0:	1e0c0000 	cdpne	0, 0, cr0, cr12, cr0, {0}
     de4:	da000004 	ble	dfc <__code_start__-0x7204>
     de8:	fc000000 	stc2	0, cr0, [r0], {-0}
     dec:	88000084 	stmdahi	r0, {r2, r7}
     df0:	f1000001 	cps	#1
     df4:	02000005 	andeq	r0, r0, #5, 0
     df8:	6e690504 	cdpvs	5, 6, cr0, cr9, cr4, {0}
     dfc:	04030074 	streq	r0, [r3], #-116	; 0xffffff8c
     e00:	00012b07 	andeq	r2, r1, r7, lsl #22
     e04:	06010300 	streq	r0, [r1], -r0, lsl #6
     e08:	000000c3 	andeq	r0, r0, r3, asr #1
     e0c:	21050203 	tstcs	r5, r3, lsl #4
     e10:	03000000 	movweq	r0, #0
     e14:	00560504 	subseq	r0, r6, r4, lsl #10
     e18:	08030000 	stmdaeq	r3, {}	; <UNPREDICTABLE>
     e1c:	00005105 	andeq	r5, r0, r5, lsl #2
     e20:	08010300 	stmdaeq	r1, {r8, r9}
     e24:	000000c1 	andeq	r0, r0, r1, asr #1
     e28:	52070203 	andpl	r0, r7, #805306368	; 0x30000000
     e2c:	03000001 	movweq	r0, #1
     e30:	01260704 			; <UNDEFINED> instruction: 0x01260704
     e34:	08030000 	stmdaeq	r3, {}	; <UNPREDICTABLE>
     e38:	00012107 	andeq	r2, r1, r7, lsl #2
     e3c:	00250400 	eoreq	r0, r5, r0, lsl #8
     e40:	007a0000 	rsbseq	r0, sl, r0
     e44:	25050000 	strcs	r0, [r5, #-0]
     e48:	00000000 	andeq	r0, r0, r0
     e4c:	00002b06 	andeq	r2, r0, r6, lsl #22
     e50:	0e1c0200 	cdpeq	2, 1, cr0, cr12, cr0, {0}
     e54:	00000086 	andeq	r0, r0, r6, lsl #1
     e58:	006b0407 	rsbeq	r0, fp, r7, lsl #8
     e5c:	25040000 	strcs	r0, [r4, #-0]
     e60:	9b000000 	blls	e68 <__code_start__-0x7198>
     e64:	05000000 	streq	r0, [r0, #-0]
     e68:	0000009b 	muleq	r0, fp, r0
     e6c:	a8040700 	stmdage	r4, {r8, r9, sl}
     e70:	03000000 	movweq	r0, #0
     e74:	00ca0801 	sbceq	r0, sl, r1, lsl #16
     e78:	a1080000 	mrsge	r0, (UNDEF: 8)
     e7c:	06000000 	streq	r0, [r0], -r0
     e80:	00000607 	andeq	r0, r0, r7, lsl #12
     e84:	b90e2102 	stmdblt	lr, {r1, r8, sp}
     e88:	07000000 	streq	r0, [r0, -r0]
     e8c:	00008c04 	andeq	r8, r0, r4, lsl #24
     e90:	04030900 	streq	r0, [r3], #-2304	; 0xfffff700
     e94:	01080000 	mrseq	r0, (UNDEF: 8)
     e98:	00ec0705 	rsceq	r0, ip, r5, lsl #14
     e9c:	640a0000 	strvs	r0, [sl], #-0
     ea0:	09070100 	stmdbeq	r7, {r8}
     ea4:	000000ec 	andeq	r0, r0, ip, ror #1
     ea8:	0100700a 	tsteq	r0, sl
     eac:	00f30808 	rscseq	r0, r3, r8, lsl #16
     eb0:	660a0000 	strvs	r0, [sl], -r0
     eb4:	09010070 	stmdbeq	r1, {r4, r5, r6}
     eb8:	0000f609 	andeq	pc, r0, r9, lsl #12
     ebc:	08030000 	stmdaeq	r3, {}	; <UNPREDICTABLE>
     ec0:	00042a04 	andeq	r2, r4, r4, lsl #20
     ec4:	0c040b00 			; <UNDEFINED> instruction: 0x0c040b00
     ec8:	00f50407 	rscseq	r0, r5, r7, lsl #8
     ecc:	080d0000 	stmdaeq	sp, {}	; <UNPREDICTABLE>
     ed0:	20020e01 	andcs	r0, r2, r1, lsl #28
     ed4:	0e000001 	cdpeq	0, 0, cr0, cr0, cr1, {0}
     ed8:	00727470 	rsbseq	r7, r2, r0, ror r4
     edc:	42111001 	andsmi	r1, r1, #1, 0
     ee0:	00000001 	andeq	r0, r0, r1
     ee4:	0004440f 	andeq	r4, r4, pc, lsl #8
     ee8:	0c110100 	ldfeqs	f0, [r1], {-0}
     eec:	0000002c 	andeq	r0, r0, ip, lsr #32
     ef0:	f6090004 			; <UNDEFINED> instruction: 0xf6090004
     ef4:	08000003 	stmdaeq	r0, {r0, r1}
     ef8:	420f0c01 	andmi	r0, pc, #256	; 0x100
     efc:	0a000001 	beq	f08 <__code_start__-0x70f8>
     f00:	12010073 	andne	r0, r1, #115, 0	; 0x73
     f04:	0000fc04 	andeq	pc, r0, r4, lsl #24
     f08:	00780a00 	rsbseq	r0, r8, r0, lsl #20
     f0c:	bf0e1301 	svclt	0x000e1301
     f10:	00000000 	andeq	r0, r0, r0
     f14:	01200407 			; <UNDEFINED> instruction: 0x01200407
     f18:	49100000 	ldmdbmi	r0, {}	; <UNPREDICTABLE>
     f1c:	01000004 	tsteq	r0, r4
     f20:	01200314 			; <UNDEFINED> instruction: 0x01200314
     f24:	31110000 	tstcc	r1, r0
     f28:	01000004 	tsteq	r0, r4
     f2c:	01480f18 	cmpeq	r8, r8, lsl pc
     f30:	03050000 	movweq	r0, #20480	; 0x5000
     f34:	0000aaf0 	strdeq	sl, [r0], -r0
     f38:	00041111 	andeq	r1, r4, r1, lsl r1
     f3c:	10190100 	andsne	r0, r9, r0, lsl #2
     f40:	00000178 	andeq	r0, r0, r8, ror r1
     f44:	aae80305 	bge	ffa01b60 <__bss_end__+0xff9f6c58>
     f48:	04070000 	streq	r0, [r7], #-0
     f4c:	00000148 	andeq	r0, r0, r8, asr #2
     f50:	00040912 	andeq	r0, r4, r2, lsl r9
     f54:	06530100 	ldrbeq	r0, [r3], -r0, lsl #2
     f58:	000084fc 	strdeq	r8, [r0], -ip
     f5c:	00000088 	andeq	r0, r0, r8, lsl #1
     f60:	01cd9c01 	biceq	r9, sp, r1, lsl #24
     f64:	61130000 	tstvs	r3, r0
     f68:	53010070 	movwpl	r0, #4208	; 0x1070
     f6c:	0000f314 	andeq	pc, r0, r4, lsl r3	; <UNPREDICTABLE>
     f70:	00053100 	andeq	r3, r5, r0, lsl #2
     f74:	00052b00 	andeq	r2, r5, r0, lsl #22
     f78:	70621400 	rsbvc	r1, r2, r0, lsl #8
     f7c:	0a550100 	beq	1541384 <__bss_end__+0x153647c>
     f80:	00000178 	andeq	r0, r0, r8, ror r1
     f84:	00000563 	andeq	r0, r0, r3, ror #10
     f88:	0000055f 	andeq	r0, r0, pc, asr r5
     f8c:	01007014 	tsteq	r0, r4, lsl r0
     f90:	01780f55 	cmneq	r8, r5, asr pc
     f94:	05880000 	streq	r0, [r8]
     f98:	05860000 	streq	r0, [r6]
     f9c:	15000000 	strne	r0, [r0, #-0]
     fa0:	000003ec 	andeq	r0, r0, ip, ror #7
     fa4:	f3072b01 	vqrdmulh.s<illegal width 8>	d2, d7, d1
     fa8:	84000000 	strhi	r0, [r0], #-0
     fac:	00000085 	andeq	r0, r0, r5, lsl #1
     fb0:	01000001 	tsteq	r0, r1
     fb4:	0002ad9c 	muleq	r2, ip, sp
     fb8:	03e51600 	mvneq	r1, #0, 12
     fbc:	2b010000 	blcs	40fc4 <__bss_end__+0x360bc>
     fc0:	00002c1a 	andeq	r2, r0, sl, lsl ip
     fc4:	0005a300 	andeq	sl, r5, r0, lsl #6
     fc8:	00059b00 	andeq	r9, r5, r0, lsl #22
     fcc:	00701400 	rsbseq	r1, r0, r0, lsl #8
     fd0:	780a2d01 	stmdavc	sl, {r0, r8, sl, fp, sp}
     fd4:	ed000001 	stc	0, cr0, [r0, #-4]
     fd8:	dd000005 	stcle	0, cr0, [r0, #-20]	; 0xffffffec
     fdc:	17000005 	strne	r0, [r0, -r5]
     fe0:	000003fd 	strdeq	r0, [r0], -sp
     fe4:	780e2d01 	stmdavc	lr, {r0, r8, sl, fp, sp}
     fe8:	65000001 	strvs	r0, [r0, #-1]
     fec:	59000006 	stmdbpl	r0, {r1, r2}
     ff0:	17000006 	strne	r0, [r0, -r6]
     ff4:	00000417 	andeq	r0, r0, r7, lsl r4
     ff8:	2c0b2e01 	stccs	14, cr2, [fp], {1}
     ffc:	b6000000 	strlt	r0, [r0], -r0
    1000:	b4000006 	strlt	r0, [r0], #-6
    1004:	18000006 	stmdane	r0, {r1, r2}
    1008:	000002ad 	andeq	r0, r0, sp, lsr #5
    100c:	000085dc 	ldrdeq	r8, [r0], -ip
    1010:	00008001 	andeq	r8, r0, r1
    1014:	0d4a0100 	stfeqe	f0, [sl, #-0]
    1018:	0002be19 	andeq	fp, r2, r9, lsl lr
    101c:	0006cb00 	andeq	ip, r6, r0, lsl #22
    1020:	0006c900 	andeq	ip, r6, r0, lsl #18
    1024:	00801a00 	addeq	r1, r0, r0, lsl #20
    1028:	c91b0000 	ldmdbgt	fp, {}	; <UNPREDICTABLE>
    102c:	e5000002 	str	r0, [r0, #-2]
    1030:	e1000006 	tst	r0, r6
    1034:	1b000006 	blne	1054 <__code_start__-0x6fac>
    1038:	000002d4 	ldrdeq	r0, [r0], -r4
    103c:	00000707 	andeq	r0, r0, r7, lsl #14
    1040:	00000703 	andeq	r0, r0, r3, lsl #14
    1044:	0085e81c 	addeq	lr, r5, ip, lsl r8
    1048:	0002e600 	andeq	lr, r2, r0, lsl #12
    104c:	00028c00 	andeq	r8, r2, r0, lsl #24
    1050:	50011d00 	andpl	r1, r1, r0, lsl #26
    1054:	1d007602 	stcne	6, cr7, [r0, #-8]
    1058:	77025101 	strvc	r5, [r2, -r1, lsl #2]
    105c:	f01c0000 			; <UNDEFINED> instruction: 0xf01c0000
    1060:	f2000085 	vhadd.s8	d0, d16, d5
    1064:	a1000002 	tstge	r0, r2
    1068:	1d000002 	stcne	0, cr0, [r0, #-8]
    106c:	40035001 	andmi	r5, r3, r1
    1070:	1e00243e 	cfmvdhrne	mvd0, r2
    1074:	00008608 	andeq	r8, r0, r8, lsl #12
    1078:	0000017e 	andeq	r0, r0, lr, ror r1
    107c:	1f000000 	svcne	0x00000000
    1080:	0000043b 	andeq	r0, r0, fp, lsr r4
    1084:	78101c01 	ldmdavc	r0, {r0, sl, fp, ip}
    1088:	01000001 	tsteq	r0, r1
    108c:	000002e0 	andeq	r0, r0, r0, ror #5
    1090:	00756e20 	rsbseq	r6, r5, r0, lsr #28
    1094:	2c221c01 	stccs	12, cr1, [r2], #-4
    1098:	21000000 	mrscs	r0, (UNDEF: 0)
    109c:	01007063 	tsteq	r0, r3, rrx
    10a0:	02e00821 	rsceq	r0, r0, #2162688	; 0x210000
    10a4:	75210000 	strvc	r0, [r1, #-0]!
    10a8:	24010070 	strcs	r0, [r1], #-112	; 0xffffff90
    10ac:	0001780a 	andeq	r7, r1, sl, lsl #16
    10b0:	04070000 	streq	r0, [r7], #-0
    10b4:	000000a1 	andeq	r0, r0, r1, lsr #1
    10b8:	0005c922 	andeq	ip, r5, r2, lsr #18
    10bc:	0005c900 	andeq	ip, r5, r0, lsl #18
    10c0:	06280200 	strteq	r0, [r8], -r0, lsl #4
    10c4:	00043622 	andeq	r3, r4, r2, lsr #12
    10c8:	00043600 	andeq	r3, r4, r0, lsl #12
    10cc:	0b1a0300 	bleq	681cd4 <__bss_end__+0x676dcc>
    10d0:	000d7000 	andeq	r7, sp, r0
    10d4:	b7000400 	strlt	r0, [r0, -r0, lsl #8]
    10d8:	04000006 	streq	r0, [r0], #-6
    10dc:	00016a01 	andeq	r6, r1, r1, lsl #20
    10e0:	050a0c00 	streq	r0, [sl, #-3072]	; 0xfffff400
    10e4:	00da0000 	sbcseq	r0, sl, r0
    10e8:	86840000 	strhi	r0, [r4], r0
    10ec:	05840000 	streq	r0, [r4]
    10f0:	08310000 	ldmdaeq	r1!, {}	; <UNPREDICTABLE>
    10f4:	04020000 	streq	r0, [r2], #-0
    10f8:	746e6905 	strbtvc	r6, [lr], #-2309	; 0xfffff6fb
    10fc:	07040300 	streq	r0, [r4, -r0, lsl #6]
    1100:	0000012b 	andeq	r0, r0, fp, lsr #2
    1104:	c3060103 	movwgt	r0, #24835	; 0x6103
    1108:	03000000 	movweq	r0, #0
    110c:	00210502 	eoreq	r0, r1, r2, lsl #10
    1110:	04030000 	streq	r0, [r3], #-0
    1114:	00005605 	andeq	r5, r0, r5, lsl #12
    1118:	05080300 	streq	r0, [r8, #-768]	; 0xfffffd00
    111c:	00000051 	andeq	r0, r0, r1, asr r0
    1120:	00004404 	andeq	r4, r0, r4, lsl #8
    1124:	182e0300 	stmdane	lr!, {r8, r9}
    1128:	0000005b 	andeq	r0, r0, fp, asr r0
    112c:	c1080103 	tstgt	r8, r3, lsl #2
    1130:	04000000 	streq	r0, [r0], #-0
    1134:	00000141 	andeq	r0, r0, r1, asr #2
    1138:	6e193103 	mufvse	f3, f1, f3
    113c:	03000000 	movweq	r0, #0
    1140:	01520702 	cmpeq	r2, r2, lsl #14
    1144:	38040000 	stmdacc	r4, {}	; <UNPREDICTABLE>
    1148:	03000001 	movweq	r0, #1
    114c:	00811934 	addeq	r1, r1, r4, lsr r9
    1150:	04030000 	streq	r0, [r3], #-0
    1154:	00012607 	andeq	r2, r1, r7, lsl #12
    1158:	07080300 	streq	r0, [r8, -r0, lsl #6]
    115c:	00000121 	andeq	r0, r0, r1, lsr #2
    1160:	00002505 	andeq	r2, r0, r5, lsl #10
    1164:	00009e00 	andeq	r9, r0, r0, lsl #28
    1168:	00250600 	eoreq	r0, r5, r0, lsl #12
    116c:	07000000 	streq	r0, [r0, -r0]
    1170:	0000002b 	andeq	r0, r0, fp, lsr #32
    1174:	aa0e1c04 	bge	38818c <__bss_end__+0x37d284>
    1178:	08000000 	stmdaeq	r0, {}	; <UNPREDICTABLE>
    117c:	00008f04 	andeq	r8, r0, r4, lsl #30
    1180:	00250500 	eoreq	r0, r5, r0, lsl #10
    1184:	00bf0000 	adcseq	r0, pc, r0
    1188:	bf060000 	svclt	0x00060000
    118c:	00000000 	andeq	r0, r0, r0
    1190:	00cc0408 	sbceq	r0, ip, r8, lsl #8
    1194:	01030000 	mrseq	r0, (UNDEF: 3)
    1198:	0000ca08 	andeq	ip, r0, r8, lsl #20
    119c:	00c50900 	sbceq	r0, r5, r0, lsl #18
    11a0:	07070000 	streq	r0, [r7, -r0]
    11a4:	04000006 	streq	r0, [r0], #-6
    11a8:	00dd0e21 	sbcseq	r0, sp, r1, lsr #28
    11ac:	04080000 	streq	r0, [r8], #-0
    11b0:	000000b0 	strheq	r0, [r0], -r0	; <UNPREDICTABLE>
    11b4:	04020c0a 	streq	r0, [r2], #-3082	; 0xfffff3f6
    11b8:	00011409 	andeq	r1, r1, r9, lsl #8
    11bc:	003f0b00 	eorseq	r0, pc, r0, lsl #22
    11c0:	06020000 	streq	r0, [r2], -r0
    11c4:	0000bf11 	andeq	fp, r0, r1, lsl pc
    11c8:	4c0b0000 	stcmi	0, cr0, [fp], {-0}
    11cc:	02000000 	andeq	r0, r0, #0, 0
    11d0:	00bf1107 	adcseq	r1, pc, r7, lsl #2
    11d4:	0b040000 	bleq	1011dc <__bss_end__+0xf62d4>
    11d8:	0000011a 	andeq	r0, r0, sl, lsl r1
    11dc:	2c0e0802 	stccs	8, cr0, [lr], {2}
    11e0:	08000000 	stmdaeq	r0, {}	; <UNPREDICTABLE>
    11e4:	024b0400 	subeq	r0, fp, #0, 8
    11e8:	09020000 	stmdbeq	r2, {}	; <UNPREDICTABLE>
    11ec:	0000e303 	andeq	lr, r0, r3, lsl #6
    11f0:	01070c00 	tsteq	r7, r0, lsl #24
    11f4:	0000005b 	andeq	r0, r0, fp, asr r0
    11f8:	3b060a05 	blcc	183a14 <__bss_end__+0x178b0c>
    11fc:	0d000001 	stceq	0, cr0, [r0, #-4]
    1200:	00000277 	andeq	r0, r0, r7, ror r2
    1204:	026b0d80 	rsbeq	r0, fp, #128, 26	; 0x2000
    1208:	00fe0000 	rscseq	r0, lr, r0
    120c:	0000890e 	andeq	r8, r0, lr, lsl #18
    1210:	0d05a800 	stceq	8, cr10, [r5, #-0]
    1214:	0001be10 	andeq	fp, r1, r0, lsl lr
    1218:	02460b00 	subeq	r0, r6, #0, 22
    121c:	0e050000 	cdpeq	0, 0, cr0, cr5, cr0, {0}
    1220:	0001be14 	andeq	fp, r1, r4, lsl lr
    1224:	220b0000 	andcs	r0, fp, #0, 0
    1228:	05000002 	streq	r0, [r0, #-2]
    122c:	00750e0f 	rsbseq	r0, r5, pc, lsl #28
    1230:	0b040000 	bleq	101238 <__bss_end__+0xf6330>
    1234:	0000000f 	andeq	r0, r0, pc
    1238:	750e1005 	strvc	r1, [lr, #-5]
    123c:	08000000 	stmdaeq	r0, {}	; <UNPREDICTABLE>
    1240:	0000060b 	andeq	r0, r0, fp, lsl #12
    1244:	0e140500 	cfmul32eq	mvfx0, mvfx4, mvfx0
    1248:	00000075 	andeq	r0, r0, r5, ror r0
    124c:	009d0b0c 	addseq	r0, sp, ip, lsl #22
    1250:	16050000 	strne	r0, [r5], -r0
    1254:	0001140f 	andeq	r1, r1, pc, lsl #8
    1258:	cf0b1000 	svcgt	0x000b1000
    125c:	05000000 	streq	r0, [r0, #-0]
    1260:	00750e19 	rsbseq	r0, r5, r9, lsl lr
    1264:	0b1c0000 	bleq	70126c <__bss_end__+0x6f6364>
    1268:	00000015 	andeq	r0, r0, r5, lsl r0
    126c:	750e1a05 	strvc	r1, [lr, #-2565]	; 0xfffff5fb
    1270:	20000000 	andcs	r0, r0, r0
    1274:	0004a00b 	andeq	sl, r4, fp
    1278:	0e1c0500 	cfmul32eq	mvfx0, mvfx12, mvfx0
    127c:	00000062 	andeq	r0, r0, r2, rrx
    1280:	7a720f24 	bvc	1c84f18 <__bss_end__+0x1c7a010>
    1284:	1e050031 	mcrne	0, 0, r0, cr5, cr1, {1}
    1288:	0001c40d 	andeq	ip, r1, sp, lsl #8
    128c:	08002600 	stmdaeq	r0, {r9, sl, sp}
    1290:	00013b04 	andeq	r3, r1, r4, lsl #22
    1294:	004f1000 	subeq	r1, pc, r0
    1298:	01d40000 	bicseq	r0, r4, r0
    129c:	2c110000 	ldccs	0, cr0, [r1], {-0}
    12a0:	7f000000 	svcvc	0x00000000
    12a4:	00000400 	andeq	r0, r0, r0, lsl #8
    12a8:	1f050000 	svcne	0x00050000
    12ac:	00013b03 	andeq	r3, r1, r3, lsl #22
    12b0:	07041200 	streq	r1, [r4, -r0, lsl #4]
    12b4:	000000b4 	strheq	r0, [r0], -r4
    12b8:	2c11a505 	cfldr32cs	mvfx10, [r1], {5}
    12bc:	13000000 	movwne	r0, #0
    12c0:	00000a6f 	andeq	r0, r0, pc, ror #20
    12c4:	e00e1001 	and	r1, lr, r1
    12c8:	05000001 	streq	r0, [r0, #-1]
    12cc:	00aaf803 	adceq	pc, sl, r3, lsl #16
    12d0:	0ad01300 	beq	ff405ed8 <__bss_end__+0xff3fafd0>
    12d4:	11010000 	mrsne	r0, (UNDEF: 1)
    12d8:	0001e00e 	andeq	lr, r1, lr
    12dc:	fc030500 	stc2	5, cr0, [r3], {-0}
    12e0:	140000aa 	strne	r0, [r0], #-170	; 0xffffff56
    12e4:	00000463 	andeq	r0, r0, r3, ror #8
    12e8:	06011501 	streq	r1, [r1], -r1, lsl #10
    12ec:	00008bdc 	ldrdeq	r8, [r0], -ip
    12f0:	0000002c 	andeq	r0, r0, ip, lsr #32
    12f4:	02729c01 	rsbseq	r9, r2, #256	; 0x100
    12f8:	90150000 	andsls	r0, r5, r0
    12fc:	82000000 	andhi	r0, r0, #0, 0
    1300:	05000002 	streq	r0, [r0, #-2]
    1304:	00a75003 	adceq	r5, r7, r3
    1308:	8bf41600 	blhi	ffd06b10 <__bss_end__+0xffcfbc08>
    130c:	0cec0000 	stcleq	0, cr0, [ip]
    1310:	02680000 	rsbeq	r0, r8, #0, 0
    1314:	01170000 	tsteq	r7, r0
    1318:	e0030550 	and	r0, r3, r0, asr r5
    131c:	170000a6 	strne	r0, [r0, -r6, lsr #1]
    1320:	03055101 	movweq	r5, #20737	; 0x5101
    1324:	0000a3f8 	strdeq	sl, [r0], -r8
    1328:	05520117 	ldrbeq	r0, [r2, #-279]	; 0xfffffee9
    132c:	00a75003 	adceq	r5, r7, r3
    1330:	53011700 	movwpl	r1, #5888	; 0x1700
    1334:	01170a03 	tsteq	r7, r3, lsl #20
    1338:	8bf81800 	blhi	ffe07340 <__bss_end__+0xffdfc438>
    133c:	0cf80000 	ldcleq	0, cr0, [r8]
    1340:	10000000 	andne	r0, r0, r0
    1344:	000000cc 	andeq	r0, r0, ip, asr #1
    1348:	00000282 	andeq	r0, r0, r2, lsl #5
    134c:	00002c11 	andeq	r2, r0, r1, lsl ip
    1350:	09000e00 	stmdbeq	r0, {r9, sl, fp}
    1354:	00000272 	andeq	r0, r0, r2, ror r2
    1358:	0004c019 	andeq	ip, r4, r9, lsl r0
    135c:	010b0100 	mrseq	r0, (UNDEF: 27)
    1360:	00002c0a 	andeq	r2, r0, sl, lsl #24
    1364:	008adc00 	addeq	sp, sl, r0, lsl #24
    1368:	00010000 	andeq	r0, r1, r0
    136c:	159c0100 	ldrne	r0, [ip, #256]	; 0x100
    1370:	1a000004 	bne	1388 <__code_start__-0x6c78>
    1374:	000003e5 	andeq	r0, r0, r5, ror #7
    1378:	0e010e01 	cdpeq	14, 0, cr0, cr1, cr1, {0}
    137c:	0000002c 	andeq	r0, r0, ip, lsr #32
    1380:	00000727 	andeq	r0, r0, r7, lsr #14
    1384:	00000725 	andeq	r0, r0, r5, lsr #14
    1388:	0004151b 	andeq	r1, r4, fp, lsl r5
    138c:	008ae800 	addeq	lr, sl, r0, lsl #16
    1390:	01a80100 			; <UNDEFINED> instruction: 0x01a80100
    1394:	0e010000 	cdpeq	0, 0, cr0, cr1, cr0, {0}
    1398:	040b1701 	streq	r1, [fp], #-1793	; 0xfffff8ff
    139c:	a81c0000 	ldmdage	ip, {}	; <UNPREDICTABLE>
    13a0:	1d000001 	stcne	0, cr0, [r0, #-4]
    13a4:	00000426 	andeq	r0, r0, r6, lsr #8
    13a8:	00000742 	andeq	r0, r0, r2, asr #14
    13ac:	0000073a 	andeq	r0, r0, sl, lsr r7
    13b0:	0004321d 	andeq	r3, r4, sp, lsl r2
    13b4:	00078000 	andeq	r8, r7, r0
    13b8:	00077800 	andeq	r7, r7, r0, lsl #16
    13bc:	043e1d00 	ldrteq	r1, [lr], #-3328	; 0xfffff300
    13c0:	07c00000 	strbeq	r0, [r0, r0]
    13c4:	07b60000 	ldreq	r0, [r6, r0]!
    13c8:	591e0000 	ldmdbpl	lr, {}	; <UNPREDICTABLE>
    13cc:	c0000004 	andgt	r0, r0, r4
    13d0:	ad000001 	stcge	0, cr0, [r0, #-4]
    13d4:	1d000003 	stcne	0, cr0, [r0, #-12]
    13d8:	0000045a 	andeq	r0, r0, sl, asr r4
    13dc:	0000080d 	andeq	r0, r0, sp, lsl #16
    13e0:	00000801 	andeq	r0, r0, r1, lsl #16
    13e4:	000adc1b 	andeq	sp, sl, fp, lsl ip
    13e8:	008ba800 	addeq	sl, fp, r0, lsl #16
    13ec:	01e00200 	mvneq	r0, r0, lsl #4
    13f0:	01010000 	mrseq	r0, (UNDEF: 1)
    13f4:	03510d01 	cmpeq	r1, #64	; 0x40
    13f8:	051f0000 	ldreq	r0, [pc, #-0]	; 1400 <__code_start__-0x6c00>
    13fc:	5c00000b 	stcpl	0, cr0, [r0], {11}
    1400:	5a000008 	bpl	1428 <__code_start__-0x6bd8>
    1404:	1f000008 	svcne	0x00000008
    1408:	00000af9 	strdeq	r0, [r0], -r9
    140c:	00000874 	andeq	r0, r0, r4, ror r8
    1410:	00000872 	andeq	r0, r0, r2, ror r8
    1414:	000aed1f 	andeq	lr, sl, pc, lsl sp
    1418:	00088e00 	andeq	r8, r8, r0, lsl #28
    141c:	00088c00 	andeq	r8, r8, r0, lsl #24
    1420:	00180000 	andseq	r0, r8, r0
    1424:	1300008b 	movwne	r0, #139	; 0x8b
    1428:	1600000d 	strne	r0, [r0], -sp
    142c:	00008b38 	andeq	r8, r0, r8, lsr fp
    1430:	00000d1f 	andeq	r0, r0, pc, lsl sp
    1434:	0000036e 	andeq	r0, r0, lr, ror #6
    1438:	02500117 	subseq	r0, r0, #-1073741819	; 0xc0000005
    143c:	16000074 			; <UNDEFINED> instruction: 0x16000074
    1440:	00008b8c 	andeq	r8, r0, ip, lsl #23
    1444:	00000d2b 	andeq	r0, r0, fp, lsr #26
    1448:	00000382 	andeq	r0, r0, r2, lsl #7
    144c:	02500117 	subseq	r0, r0, #-1073741819	; 0xc0000005
    1450:	1600007b 			; <UNDEFINED> instruction: 0x1600007b
    1454:	00008b98 	muleq	r0, r8, fp
    1458:	00000cec 	andeq	r0, r0, ip, ror #25
    145c:	0000039c 	muleq	r0, ip, r3
    1460:	02500117 	subseq	r0, r0, #-1073741819	; 0xc0000005
    1464:	01170078 	tsteq	r7, r8, ror r0
    1468:	007b0251 	rsbseq	r0, fp, r1, asr r2
    146c:	8ba02000 	blhi	fe809474 <__bss_end__+0xfe7fe56c>
    1470:	0d1f0000 	ldceq	0, cr0, [pc, #-0]	; 1478 <__code_start__-0x6b88>
    1474:	01170000 	tsteq	r7, r0
    1478:	00740250 	rsbseq	r0, r4, r0, asr r2
    147c:	f0160000 			; <UNDEFINED> instruction: 0xf0160000
    1480:	ec00008a 	stc	0, cr0, [r0], {138}	; 0x8a
    1484:	c400000c 	strgt	r0, [r0], #-12
    1488:	17000003 	strne	r0, [r0, -r3]
    148c:	03055001 	movweq	r5, #20481	; 0x5001
    1490:	0000a490 	muleq	r0, r0, r4
    1494:	8af81600 	bhi	ffe06c9c <__bss_end__+0xffdfbd94>
    1498:	0cec0000 	stcleq	0, cr0, [ip]
    149c:	03db0000 	bicseq	r0, fp, #0, 0
    14a0:	01170000 	tsteq	r7, r0
    14a4:	8c030550 	cfstr32hi	mvfx0, [r3], {80}	; 0x50
    14a8:	000000a6 	andeq	r0, r0, r6, lsr #1
    14ac:	008afc18 	addeq	pc, sl, r8, lsl ip	; <UNPREDICTABLE>
    14b0:	0007ef00 	andeq	lr, r7, r0, lsl #30
    14b4:	8b542000 	blhi	15094bc <__bss_end__+0x14fe5b4>
    14b8:	0cec0000 	stcleq	0, cr0, [ip]
    14bc:	01170000 	tsteq	r7, r0
    14c0:	ac030550 	cfstr32ge	mvfx0, [r3], {80}	; 0x50
    14c4:	170000a6 	strne	r0, [r0, -r6, lsr #1]
    14c8:	76025101 	strvc	r5, [r2], -r1, lsl #2
    14cc:	52011700 	andpl	r1, r1, #0, 14
    14d0:	17007702 	strne	r7, [r0, -r2, lsl #14]
    14d4:	75025301 	strvc	r5, [r2, #-769]	; 0xfffffcff
    14d8:	00000000 	andeq	r0, r0, r0
    14dc:	008ae818 	addeq	lr, sl, r8, lsl r8
    14e0:	0007ef00 	andeq	lr, r7, r0, lsl #30
    14e4:	69210000 	stmdbvs	r1!, {}	; <UNPREDICTABLE>
    14e8:	01000005 	tsteq	r0, r5
    14ec:	002c11f3 	strdeq	r1, [ip], -r3	; <UNPREDICTABLE>
    14f0:	66010000 	strvs	r0, [r1], -r0
    14f4:	22000004 	andcs	r0, r0, #4, 0
    14f8:	00000480 	andeq	r0, r0, r0, lsl #9
    14fc:	2c0ef501 	cfstr32cs	mvfx15, [lr], {1}
    1500:	22000000 	andcs	r0, r0, #0, 0
    1504:	000004f5 	strdeq	r0, [r0], -r5
    1508:	2c1bf501 	cfldr32cs	mvfx15, [fp], {1}
    150c:	22000000 	andcs	r0, r0, #0, 0
    1510:	0000048f 	andeq	r0, r0, pc, lsl #9
    1514:	2c27f501 	cfstr32cs	mvfx15, [r7], #-4
    1518:	15000000 	strne	r0, [r0, #-0]
    151c:	00000090 	muleq	r0, r0, r0
    1520:	00000476 	andeq	r0, r0, r6, ror r4
    1524:	a7440305 	strbge	r0, [r4, -r5, lsl #6]
    1528:	24230000 	strtcs	r0, [r3], #-0
    152c:	fa010068 	blx	416d4 <__bss_end__+0x367cc>
    1530:	00047b11 	andeq	r7, r4, r1, lsl fp
    1534:	10000000 	andne	r0, r0, r0
    1538:	000000cc 	andeq	r0, r0, ip, asr #1
    153c:	00000476 	andeq	r0, r0, r6, ror r4
    1540:	00002c11 	andeq	r2, r0, r1, lsl ip
    1544:	09000a00 	stmdbeq	r0, {r9, fp}
    1548:	00000466 	andeq	r0, r0, r6, ror #8
    154c:	01d40408 	bicseq	r0, r4, r8, lsl #8
    1550:	12250000 	eorne	r0, r5, #0, 0
    1554:	01000005 	tsteq	r0, r5
    1558:	002c0ae3 	eoreq	r0, ip, r3, ror #21
    155c:	8a8c0000 	bhi	fe301564 <__bss_end__+0xfe2f665c>
    1560:	00500000 	subseq	r0, r0, r0
    1564:	9c010000 	stcls	0, cr0, [r1], {-0}
    1568:	0000054a 	andeq	r0, r0, sl, asr #10
    156c:	0004d026 	andeq	sp, r4, r6, lsr #32
    1570:	0ee90100 	cdpeq	1, 14, cr0, cr9, cr0, {0}
    1574:	0000002c 	andeq	r0, r0, ip, lsr #32
    1578:	000008ac 	andeq	r0, r0, ip, lsr #17
    157c:	000008a6 	andeq	r0, r0, r6, lsr #17
    1580:	00009015 	andeq	r9, r0, r5, lsl r0
    1584:	00055a00 	andeq	r5, r5, r0, lsl #20
    1588:	30030500 	andcc	r0, r3, r0, lsl #10
    158c:	270000a7 	strcs	r0, [r0, -r7, lsr #1]
    1590:	0000061f 	andeq	r0, r0, pc, lsl r6
    1594:	00008a90 	muleq	r0, r0, sl
    1598:	008a9002 	addeq	r9, sl, r2
    159c:	00000800 	andeq	r0, r0, r0, lsl #16
    15a0:	17e90100 	strbne	r0, [r9, r0, lsl #2]!
    15a4:	000004f4 	strdeq	r0, [r0], -r4
    15a8:	0006301f 	andeq	r3, r6, pc, lsl r0
    15ac:	0008d700 	andeq	sp, r8, r0, lsl #14
    15b0:	0008d500 	andeq	sp, r8, r0, lsl #10
    15b4:	8a982000 	bhi	fe6095bc <__bss_end__+0xfe5fe6b4>
    15b8:	063d0000 	ldrteq	r0, [sp], -r0
    15bc:	01170000 	tsteq	r7, r0
    15c0:	00310150 	eorseq	r0, r1, r0, asr r1
    15c4:	8aac1600 	bhi	feb06dcc <__bss_end__+0xfeafbec4>
    15c8:	0cec0000 	stcleq	0, cr0, [ip]
    15cc:	05110000 	ldreq	r0, [r1, #-0]
    15d0:	01170000 	tsteq	r7, r0
    15d4:	68030550 	stmdavs	r3, {r4, r6, r8, sl}
    15d8:	170000a6 	strne	r0, [r0, -r6, lsr #1]
    15dc:	74025101 	strvc	r5, [r2], #-257	; 0xfffffeff
    15e0:	c8160000 	ldmdagt	r6, {}	; <UNPREDICTABLE>
    15e4:	ec00008a 	stc	0, cr0, [r0], {138}	; 0x8a
    15e8:	4000000c 	andmi	r0, r0, ip
    15ec:	17000005 	strne	r0, [r0, -r5]
    15f0:	03055001 	movweq	r5, #20481	; 0x5001
    15f4:	0000a640 	andeq	sl, r0, r0, asr #12
    15f8:	05510117 	ldrbeq	r0, [r1, #-279]	; 0xfffffee9
    15fc:	00a3f803 	adceq	pc, r3, r3, lsl #16
    1600:	52011700 	andpl	r1, r1, #0, 14
    1604:	a7300305 	ldrge	r0, [r0, -r5, lsl #6]!
    1608:	01170000 	tsteq	r7, r0
    160c:	eb080253 	bl	201f60 <__bss_end__+0x1f7058>
    1610:	8acc1800 	bhi	ff307618 <__bss_end__+0xff2fc710>
    1614:	0cf80000 	ldcleq	0, cr0, [r8]
    1618:	10000000 	andne	r0, r0, r0
    161c:	000000cc 	andeq	r0, r0, ip, asr #1
    1620:	0000055a 	andeq	r0, r0, sl, asr r5
    1624:	00002c11 	andeq	r2, r0, r1, lsl ip
    1628:	09001100 	stmdbeq	r0, {r8, ip}
    162c:	0000054a 	andeq	r0, r0, sl, asr #10
    1630:	00010c28 	andeq	r0, r1, r8, lsr #24
    1634:	06d50100 	ldrbeq	r0, [r5], r0, lsl #2
    1638:	00008a44 	andeq	r8, r0, r4, asr #20
    163c:	00000048 	andeq	r0, r0, r8, asr #32
    1640:	060a9c01 	streq	r9, [sl], -r1, lsl #24
    1644:	90150000 	andsls	r0, r5, r0
    1648:	1a000000 	bne	1650 <__code_start__-0x69b0>
    164c:	05000006 	streq	r0, [r0, #-6]
    1650:	00a72003 	adceq	r2, r7, r3
    1654:	061f2700 	ldreq	r2, [pc], -r0, lsl #14
    1658:	8a480000 	bhi	1201660 <__bss_end__+0x11f6758>
    165c:	48020000 	stmdami	r2, {}	; <UNPREDICTABLE>
    1660:	0800008a 	stmdaeq	r0, {r1, r3, r7}
    1664:	01000000 	mrseq	r0, (UNDEF: 0)
    1668:	05ba09db 	ldreq	r0, [sl, #2523]!	; 0x9db
    166c:	301f0000 	andscc	r0, pc, r0
    1670:	ed000006 	stc	0, cr0, [r0, #-24]	; 0xffffffe8
    1674:	eb000008 	bl	169c <__code_start__-0x6964>
    1678:	20000008 	andcs	r0, r0, r8
    167c:	00008a50 	andeq	r8, r0, r0, asr sl
    1680:	0000063d 	andeq	r0, r0, sp, lsr r6
    1684:	01500117 	cmpeq	r0, r7, lsl r1
    1688:	16000031 			; <UNDEFINED> instruction: 0x16000031
    168c:	00008a60 	andeq	r8, r0, r0, ror #20
    1690:	00000cec 	andeq	r0, r0, ip, ror #25
    1694:	000005d1 	ldrdeq	r0, [r0], -r1
    1698:	05500117 	ldrbeq	r0, [r0, #-279]	; 0xfffffee9
    169c:	00a62003 	adceq	r2, r6, r3
    16a0:	78160000 	ldmdavc	r6, {}	; <UNPREDICTABLE>
    16a4:	ec00008a 	stc	0, cr0, [r0], {138}	; 0x8a
    16a8:	0000000c 	andeq	r0, r0, ip
    16ac:	17000006 	strne	r0, [r0, -r6]
    16b0:	03055001 	movweq	r5, #20481	; 0x5001
    16b4:	0000a5f4 	strdeq	sl, [r0], -r4
    16b8:	05510117 	ldrbeq	r0, [r1, #-279]	; 0xfffffee9
    16bc:	00a3f803 	adceq	pc, r3, r3, lsl #16
    16c0:	52011700 	andpl	r1, r1, #0, 14
    16c4:	a7200305 	strge	r0, [r0, -r5, lsl #6]!
    16c8:	01170000 	tsteq	r7, r0
    16cc:	dc080253 	sfmle	f0, 4, [r8], {83}	; 0x53
    16d0:	8a7c1800 	bhi	1f076d8 <__bss_end__+0x1efc7d0>
    16d4:	0cf80000 	ldcleq	0, cr0, [r8]
    16d8:	10000000 	andne	r0, r0, r0
    16dc:	000000cc 	andeq	r0, r0, ip, asr #1
    16e0:	0000061a 	andeq	r0, r0, sl, lsl r6
    16e4:	00002c11 	andeq	r2, r0, r1, lsl ip
    16e8:	09000d00 	stmdbeq	r0, {r8, sl, fp}
    16ec:	0000060a 	andeq	r0, r0, sl, lsl #12
    16f0:	0004a529 	andeq	sl, r4, r9, lsr #10
    16f4:	0ace0100 	beq	ff381afc <__bss_end__+0xff376bf4>
    16f8:	0000002c 	andeq	r0, r0, ip, lsr #32
    16fc:	00063d01 	andeq	r3, r6, r1, lsl #26
    1700:	05742a00 	ldrbeq	r2, [r4, #-2560]!	; 0xfffff600
    1704:	ce010000 	cdpgt	0, 0, cr0, cr1, cr0, {0}
    1708:	0000251c 	andeq	r2, r0, ip, lsl r5
    170c:	4f2b0000 	svcmi	0x002b0000
    1710:	01000005 	tsteq	r0, r5
    1714:	002c11a5 	eoreq	r1, ip, r5, lsr #3
    1718:	88840000 	stmhi	r4, {}	; <UNPREDICTABLE>
    171c:	01200000 			; <UNDEFINED> instruction: 0x01200000
    1720:	9c010000 	stcls	0, cr0, [r1], {-0}
    1724:	000007ef 	andeq	r0, r0, pc, ror #15
    1728:	0005742c 	andeq	r7, r5, ip, lsr #8
    172c:	20a50100 	adccs	r0, r5, r0, lsl #2
    1730:	00000025 	andeq	r0, r0, r5, lsr #32
    1734:	00000905 	andeq	r0, r0, r5, lsl #18
    1738:	00000901 	andeq	r0, r0, r1, lsl #18
    173c:	00048026 	andeq	r8, r4, r6, lsr #32
    1740:	0ea70100 	fdveqs	f0, f7, f0
    1744:	0000002c 	andeq	r0, r0, ip, lsr #32
    1748:	0000092b 	andeq	r0, r0, fp, lsr #18
    174c:	00000923 	andeq	r0, r0, r3, lsr #18
    1750:	0004b926 	andeq	fp, r4, r6, lsr #18
    1754:	1ba70100 	blne	fe9c1b5c <__bss_end__+0xfe9b6c54>
    1758:	0000002c 	andeq	r0, r0, ip, lsr #32
    175c:	00000969 	andeq	r0, r0, r9, ror #18
    1760:	00000961 	andeq	r0, r0, r1, ror #18
    1764:	0004b326 	andeq	fp, r4, r6, lsr #6
    1768:	27a70100 	strcs	r0, [r7, r0, lsl #2]!
    176c:	0000002c 	andeq	r0, r0, ip, lsr #32
    1770:	000009a7 	andeq	r0, r0, r7, lsr #19
    1774:	0000099f 	muleq	r0, pc, r9	; <UNPREDICTABLE>
    1778:	0001682d 	andeq	r6, r1, sp, lsr #16
    177c:	00073000 	andeq	r3, r7, r0
    1780:	00682e00 	rsbeq	r2, r8, r0, lsl #28
    1784:	7b11ac01 	blvc	46c790 <__bss_end__+0x461888>
    1788:	f3000004 	vhadd.u8	d0, d0, d4
    178c:	dd000009 	stcle	0, cr0, [r0, #-36]	; 0xffffffdc
    1790:	18000009 	stmdane	r0, {r0, r3}
    1794:	000088a4 	andeq	r8, r0, r4, lsr #17
    1798:	00000d13 	andeq	r0, r0, r3, lsl sp
    179c:	0088d416 	addeq	sp, r8, r6, lsl r4
    17a0:	000d1f00 	andeq	r1, sp, r0, lsl #30
    17a4:	0006df00 	andeq	sp, r6, r0, lsl #30
    17a8:	50011700 	andpl	r1, r1, r0, lsl #14
    17ac:	00007402 	andeq	r7, r0, r2, lsl #8
    17b0:	0088fc16 	addeq	pc, r8, r6, lsl ip	; <UNPREDICTABLE>
    17b4:	000cec00 	andeq	lr, ip, r0, lsl #24
    17b8:	0006ff00 	andeq	pc, r6, r0, lsl #30
    17bc:	50011700 	andpl	r1, r1, r0, lsl #14
    17c0:	17007902 	strne	r7, [r0, -r2, lsl #18]
    17c4:	75025101 	strvc	r5, [r2, #-257]	; 0xfffffeff
    17c8:	52011700 	andpl	r1, r1, #0, 14
    17cc:	00007402 	andeq	r7, r0, r2, lsl #8
    17d0:	00890416 	addeq	r0, r9, r6, lsl r4
    17d4:	000d1f00 	andeq	r1, sp, r0, lsl #30
    17d8:	00071300 	andeq	r1, r7, r0, lsl #6
    17dc:	50011700 	andpl	r1, r1, r0, lsl #14
    17e0:	00007402 	andeq	r7, r0, r2, lsl #8
    17e4:	00896020 	addeq	r6, r9, r0, lsr #32
    17e8:	000cec00 	andeq	lr, ip, r0, lsl #24
    17ec:	50011700 	andpl	r1, r1, r0, lsl #14
    17f0:	17007a02 	strne	r7, [r0, -r2, lsl #20]
    17f4:	75025101 	strvc	r5, [r2, #-257]	; 0xfffffeff
    17f8:	52011700 	andpl	r1, r1, #0, 14
    17fc:	00007402 	andeq	r7, r0, r2, lsl #8
    1800:	88941600 	ldmhi	r4, {r9, sl, ip}
    1804:	0cec0000 	stcleq	0, cr0, [ip]
    1808:	07470000 	strbeq	r0, [r7, -r0]
    180c:	01170000 	tsteq	r7, r0
    1810:	90030550 	andls	r0, r3, r0, asr r5
    1814:	000000a4 	andeq	r0, r0, r4, lsr #1
    1818:	00889c16 	addeq	r9, r8, r6, lsl ip
    181c:	000cec00 	andeq	lr, ip, r0, lsl #24
    1820:	00075e00 	andeq	r5, r7, r0, lsl #28
    1824:	50011700 	andpl	r1, r1, r0, lsl #14
    1828:	a4cc0305 	strbge	r0, [ip], #773	; 0x305
    182c:	18000000 	stmdane	r0, {}	; <UNPREDICTABLE>
    1830:	000088a0 	andeq	r8, r0, r0, lsr #17
    1834:	000007ef 	andeq	r0, r0, pc, ror #15
    1838:	00891c16 	addeq	r1, r9, r6, lsl ip
    183c:	000cec00 	andeq	lr, ip, r0, lsl #24
    1840:	00078400 	andeq	r8, r7, r0, lsl #8
    1844:	50011700 	andpl	r1, r1, r0, lsl #14
    1848:	a5100305 	ldrge	r0, [r0, #-773]	; 0xfffffcfb
    184c:	01170000 	tsteq	r7, r0
    1850:	00750251 	rsbseq	r0, r5, r1, asr r2
    1854:	89341600 	ldmdbhi	r4!, {r9, sl, ip}
    1858:	0cec0000 	stcleq	0, cr0, [ip]
    185c:	07a70000 	streq	r0, [r7, r0]!
    1860:	01170000 	tsteq	r7, r0
    1864:	58030550 	stmdapl	r3, {r4, r6, r8, sl}
    1868:	170000a5 	strne	r0, [r0, -r5, lsr #1]
    186c:	76025101 	strvc	r5, [r2], -r1, lsl #2
    1870:	52011700 	andpl	r1, r1, #0, 14
    1874:	00007702 	andeq	r7, r0, r2, lsl #14
    1878:	00893c16 	addeq	r3, r9, r6, lsl ip
    187c:	000cec00 	andeq	lr, ip, r0, lsl #24
    1880:	0007be00 	andeq	fp, r7, r0, lsl #28
    1884:	50011700 	andpl	r1, r1, r0, lsl #14
    1888:	a5880305 	strge	r0, [r8, #773]	; 0x305
    188c:	16000000 	strne	r0, [r0], -r0
    1890:	00008970 	andeq	r8, r0, r0, ror r9
    1894:	00000cec 	andeq	r0, r0, ip, ror #25
    1898:	000007db 	ldrdeq	r0, [r0], -fp
    189c:	05500117 	ldrbeq	r0, [r0, #-279]	; 0xfffffee9
    18a0:	00a51003 	adceq	r1, r5, r3
    18a4:	51011700 	tstpl	r1, r0, lsl #14
    18a8:	00007402 	andeq	r7, r0, r2, lsl #8
    18ac:	00898020 	addeq	r8, r9, r0, lsr #32
    18b0:	000cec00 	andeq	lr, ip, r0, lsl #24
    18b4:	50011700 	andpl	r1, r1, r0, lsl #14
    18b8:	a5300305 	ldrge	r0, [r0, #-773]!	; 0xfffffcfb
    18bc:	00000000 	andeq	r0, r0, r0
    18c0:	00045a2f 	andeq	r5, r4, pc, lsr #20
    18c4:	0d790100 	ldfeqe	f0, [r9, #-0]
    18c8:	000087e0 	andeq	r8, r0, r0, ror #15
    18cc:	000000a4 	andeq	r0, r0, r4, lsr #1
    18d0:	08f79c01 	ldmeq	r7!, {r0, sl, fp, ip, pc}^
    18d4:	cb130000 	blgt	4c18dc <__bss_end__+0x4b69d4>
    18d8:	01000004 	tsteq	r0, r4
    18dc:	08f70e85 	ldmeq	r7!, {r0, r2, r7, r9, sl, fp}^
    18e0:	91030000 	mrsls	r0, (UNDEF: 3)
    18e4:	50307fb8 	ldrhtpl	r7, [r0], -r8
    18e8:	01000004 	tsteq	r0, r4
    18ec:	09070f96 	stmdbeq	r7, {r1, r2, r4, r7, r8, r9, sl, fp}
    18f0:	00000000 	andeq	r0, r0, r0
    18f4:	72070800 	andvc	r0, r7, #0, 16
    18f8:	01000004 	tsteq	r0, r4
    18fc:	0075159b 			; <UNDEFINED> instruction: 0x0075159b
    1900:	24070000 	strcs	r0, [r7], #-0
    1904:	01000005 	tsteq	r0, r5
    1908:	0075249b 			; <UNDEFINED> instruction: 0x0075249b
    190c:	5a070000 	bpl	1c1914 <__bss_end__+0x1b6a0c>
    1910:	01000005 	tsteq	r0, r5
    1914:	0075159e 			; <UNDEFINED> instruction: 0x0075159e
    1918:	e1070000 	mrs	r0, (UNDEF: 7)
    191c:	01000004 	tsteq	r0, r4
    1920:	0075259e 			; <UNDEFINED> instruction: 0x0075259e
    1924:	502d0000 	eorpl	r0, sp, r0
    1928:	83000001 	movwhi	r0, #1
    192c:	2e000008 	cdpcs	0, 0, cr0, cr0, cr8, {0}
    1930:	7e010068 	cdpvc	0, 0, cr0, cr1, cr8, {3}
    1934:	00047b11 	andeq	r7, r4, r1, lsl fp
    1938:	000a7800 	andeq	r7, sl, r0, lsl #16
    193c:	000a7400 	andeq	r7, sl, r0, lsl #8
    1940:	87ec1800 	strbhi	r1, [ip, r0, lsl #16]!
    1944:	0d130000 	ldceq	0, cr0, [r3, #-0]
    1948:	08180000 	ldmdaeq	r8, {}	; <UNPREDICTABLE>
    194c:	1f000088 	svcne	0x00000088
    1950:	0000000d 	andeq	r0, r0, sp
    1954:	00881816 	addeq	r1, r8, r6, lsl r8
    1958:	000d3700 	andeq	r3, sp, r0, lsl #14
    195c:	00089700 	andeq	r9, r8, r0, lsl #14
    1960:	50011700 	andpl	r1, r1, r0, lsl #14
    1964:	00007d02 	andeq	r7, r0, r2, lsl #26
    1968:	00883416 	addeq	r3, r8, r6, lsl r4
    196c:	00090d00 	andeq	r0, r9, r0, lsl #26
    1970:	0008b100 	andeq	fp, r8, r0, lsl #2
    1974:	50011700 	andpl	r1, r1, r0, lsl #14
    1978:	17007d02 	strne	r7, [r0, -r2, lsl #26]
    197c:	91025101 	tstls	r2, r1, lsl #2
    1980:	44160068 	ldrmi	r0, [r6], #-104	; 0xffffff98
    1984:	ec000088 	stc	0, cr0, [r0], {136}	; 0x88
    1988:	cf00000c 	svcgt	0x0000000c
    198c:	17000008 	strne	r0, [r0, -r8]
    1990:	03055001 	movweq	r5, #20481	; 0x5001
    1994:	0000a474 	andeq	sl, r0, r4, ror r4
    1998:	03520117 	cmpeq	r2, #-1073741819	; 0xc0000005
    199c:	00244740 	eoreq	r4, r4, r0, asr #14
    19a0:	00885016 	addeq	r5, r8, r6, lsl r0
    19a4:	00090d00 	andeq	r0, r9, r0, lsl #26
    19a8:	0008e400 	andeq	lr, r8, r0, lsl #8
    19ac:	51011700 	tstpl	r1, r0, lsl #14
    19b0:	24474003 	strbcs	r4, [r7], #-3
    19b4:	885c1800 	ldmdahi	ip, {fp, ip}^
    19b8:	090d0000 	stmdbeq	sp, {}	; <UNPREDICTABLE>
    19bc:	68180000 	ldmdavs	r8, {}	; <UNPREDICTABLE>
    19c0:	0d000088 	stceq	0, cr0, [r0, #-544]	; 0xfffffde0
    19c4:	00000009 	andeq	r0, r0, r9
    19c8:	00007510 	andeq	r7, r0, r0, lsl r5
    19cc:	00090700 	andeq	r0, r9, r0, lsl #14
    19d0:	002c1100 	eoreq	r1, ip, r0, lsl #2
    19d4:	000f0000 	andeq	r0, pc, r0
    19d8:	00750408 	rsbseq	r0, r5, r8, lsl #8
    19dc:	a0310000 	eorsge	r0, r1, r0
    19e0:	01000004 	tsteq	r0, r4
    19e4:	70010d50 	andvc	r0, r1, r0, asr sp
    19e8:	32000009 	andcc	r0, r0, #9, 0
    19ec:	50010070 	andpl	r0, r1, r0, ror r0
    19f0:	0009071c 	andeq	r0, r9, ip, lsl r7
    19f4:	00653200 	rsbeq	r3, r5, r0, lsl #4
    19f8:	07295001 	streq	r5, [r9, -r1]!
    19fc:	15000009 	strne	r0, [r0, #-9]
    1a00:	00000090 	muleq	r0, r0, r0
    1a04:	00000980 	andeq	r0, r0, r0, lsl #19
    1a08:	a7100305 	ldrge	r0, [r0, -r5, lsl #6]
    1a0c:	24230000 	strtcs	r0, [r3], #-0
    1a10:	58010069 	stmdapl	r1, {r0, r3, r5, r6}
    1a14:	00090714 	andeq	r0, r9, r4, lsl r7
    1a18:	62242300 	eorvs	r2, r4, #0, 6
    1a1c:	105a0100 	subsne	r0, sl, r0, lsl #2
    1a20:	0000047b 	andeq	r0, r0, fp, ror r4
    1a24:	78652423 	stmdavc	r5!, {r0, r1, r5, sl, sp}^
    1a28:	5d010070 	stcpl	0, cr0, [r1, #-448]	; 0xfffffe40
    1a2c:	00007516 	andeq	r7, r0, r6, lsl r5
    1a30:	049c2200 	ldreq	r2, [ip], #512	; 0x200
    1a34:	5e010000 	cdppl	0, 0, cr0, cr1, cr0, {0}
    1a38:	00006216 	andeq	r6, r0, r6, lsl r2
    1a3c:	00000000 	andeq	r0, r0, r0
    1a40:	00cc1000 	sbceq	r1, ip, r0
    1a44:	09800000 	stmibeq	r0, {}	; <UNPREDICTABLE>
    1a48:	2c110000 	ldccs	0, cr0, [r1], {-0}
    1a4c:	04000000 	streq	r0, [r0], #-0
    1a50:	09700900 	ldmdbeq	r0!, {r8, fp}^
    1a54:	ee210000 	cdp	0, 2, cr0, cr1, cr0, {0}
    1a58:	01000004 	tsteq	r0, r4
    1a5c:	047b0f3c 	ldrbteq	r0, [fp], #-3900	; 0xfffff0c4
    1a60:	ad010000 	stcge	0, cr0, [r1, #-0]
    1a64:	2a000009 	bcs	1a90 <__code_start__-0x6570>
    1a68:	00000a86 	andeq	r0, r0, r6, lsl #21
    1a6c:	751f3c01 	ldrvc	r3, [pc, #-3073]	; e73 <__code_start__-0x718d>
    1a70:	24000000 	strcs	r0, [r0], #-0
    1a74:	3e010070 	mcrcc	0, 0, r0, cr1, cr0, {3}
    1a78:	0001e00b 	andeq	lr, r1, fp
    1a7c:	fc210000 	stc2	0, cr0, [r1], #-0
    1a80:	01000004 	tsteq	r0, r4
    1a84:	00250c2b 	eoreq	r0, r5, fp, lsr #24
    1a88:	c9010000 	stmdbgt	r1, {}	; <UNPREDICTABLE>
    1a8c:	32000009 	andcc	r0, r0, #9, 0
    1a90:	2b010070 	blcs	41c58 <__bss_end__+0x36d50>
    1a94:	0001e01a 	andeq	lr, r1, sl, lsl r0
    1a98:	36250000 	strtcc	r0, [r5], -r0
    1a9c:	01000004 	tsteq	r0, r4
    1aa0:	01e00713 	mvneq	r0, r3, lsl r7
    1aa4:	89a40000 	stmibhi	r4!, {}	; <UNPREDICTABLE>
    1aa8:	009c0000 	addseq	r0, ip, r0
    1aac:	9c010000 	stcls	0, cr0, [r1], {-0}
    1ab0:	00000adc 	ldrdeq	r0, [r0], -ip
    1ab4:	0004d72c 	andeq	sp, r4, ip, lsr #14
    1ab8:	11130100 	tstne	r3, r0, lsl #2
    1abc:	00000041 	andeq	r0, r0, r1, asr #32
    1ac0:	00000aa6 	andeq	r0, r0, r6, lsr #21
    1ac4:	00000a96 	muleq	r0, r6, sl
    1ac8:	00048813 	andeq	r8, r4, r3, lsl r8
    1acc:	10150100 	andsne	r0, r5, r0, lsl #2
    1ad0:	00000025 	andeq	r0, r0, r5, lsr #32
    1ad4:	ab000305 	blge	26f0 <__code_start__-0x5910>
    1ad8:	90150000 	andsls	r0, r5, r0
    1adc:	80000000 	andhi	r0, r0, r0
    1ae0:	05000009 	streq	r0, [r0, #-9]
    1ae4:	00a71803 	adceq	r1, r7, r3, lsl #16
    1ae8:	01902d00 	orrseq	r2, r0, r0, lsl #26
    1aec:	0a4e0000 	beq	1381af4 <__bss_end__+0x1376bec>
    1af0:	04260000 	strteq	r0, [r6], #-0
    1af4:	01000005 	tsteq	r0, r5
    1af8:	002c121c 	eoreq	r1, ip, ip, lsl r2
    1afc:	0b0b0000 	bleq	2c1b04 <__bss_end__+0x2b6bfc>
    1b00:	0b090000 	bleq	241b08 <__bss_end__+0x236c00>
    1b04:	d8200000 	stmdale	r0!, {}	; <UNPREDICTABLE>
    1b08:	43000089 	movwmi	r0, #137	; 0x89
    1b0c:	1700000d 	strne	r0, [r0, -sp]
    1b10:	40035001 	andmi	r5, r3, r1
    1b14:	01172440 	tsteq	r7, r0, asr #8
    1b18:	40400351 	submi	r0, r0, r1, asr r3
    1b1c:	33000024 	movwcc	r0, #36	; 0x24
    1b20:	000089f0 	strdeq	r8, [r0], -r0
    1b24:	00000d4f 	andeq	r0, r0, pc, asr #26
    1b28:	00000a63 	andeq	r0, r0, r3, ror #20
    1b2c:	03500117 	cmpeq	r0, #-1073741819	; 0xc0000005
    1b30:	005001f3 	ldrsheq	r0, [r0], #-19	; 0xffffffed
    1b34:	008a0c16 	addeq	r0, sl, r6, lsl ip
    1b38:	000cec00 	andeq	lr, ip, r0, lsl #24
    1b3c:	000a9b00 	andeq	r9, sl, r0, lsl #22
    1b40:	50011700 	andpl	r1, r1, r0, lsl #14
    1b44:	a2080305 	andge	r0, r8, #335544320	; 0x14000000
    1b48:	01170000 	tsteq	r7, r0
    1b4c:	f8030551 			; <UNDEFINED> instruction: 0xf8030551
    1b50:	170000a3 	strne	r0, [r0, -r3, lsr #1]
    1b54:	03055201 	movweq	r5, #20993	; 0x5201
    1b58:	0000a718 	andeq	sl, r0, r8, lsl r7
    1b5c:	01530117 	cmpeq	r3, r7, lsl r1
    1b60:	7d021747 	stcvc	7, cr1, [r2, #-284]	; 0xfffffee4
    1b64:	c4030500 	strgt	r0, [r3], #-1280	; 0xfffffb00
    1b68:	000000a5 	andeq	r0, r0, r5, lsr #1
    1b6c:	008a1018 	addeq	r1, sl, r8, lsl r0
    1b70:	000cf800 	andeq	pc, ip, r0, lsl #16
    1b74:	8a241600 	bhi	90737c <__bss_end__+0x8fc474>
    1b78:	0cec0000 	stcleq	0, cr0, [ip]
    1b7c:	0ad20000 	beq	ff481b84 <__bss_end__+0xff476c7c>
    1b80:	01170000 	tsteq	r7, r0
    1b84:	d4030550 	strle	r0, [r3], #-1360	; 0xfffffab0
    1b88:	170000a5 	strne	r0, [r0, -r5, lsr #1]
    1b8c:	03055101 	movweq	r5, #20737	; 0x5101
    1b90:	0000a3f8 	strdeq	sl, [r0], -r8
    1b94:	05520117 	ldrbeq	r0, [r2, #-279]	; 0xfffffee9
    1b98:	00a71803 	adceq	r1, r7, r3, lsl #16
    1b9c:	53011700 	movwpl	r1, #5888	; 0x1700
    1ba0:	18004901 	stmdane	r0, {r0, r8, fp, lr}
    1ba4:	00008a28 	andeq	r8, r0, r8, lsr #20
    1ba8:	00000cf8 	strdeq	r0, [r0], -r8
    1bac:	023b2100 	eorseq	r2, fp, #0
    1bb0:	0c020000 	stceq	0, cr0, [r2], {-0}
    1bb4:	0001140b 	andeq	r1, r1, fp, lsl #8
    1bb8:	0b120300 	bleq	4827c0 <__bss_end__+0x4778b8>
    1bbc:	3f2a0000 	svccc	0x002a0000
    1bc0:	02000000 	andeq	r0, r0, #0, 0
    1bc4:	00bf220c 	adcseq	r2, pc, ip, lsl #4
    1bc8:	4c2a0000 	stcmi	0, cr0, [sl], #-0
    1bcc:	02000000 	andeq	r0, r0, #0, 0
    1bd0:	00bf340c 	adcseq	r3, pc, ip, lsl #8
    1bd4:	1a2a0000 	bne	a81bdc <__bss_end__+0xa76cd4>
    1bd8:	02000001 	andeq	r0, r0, #1, 0
    1bdc:	002c430c 	eoreq	r4, ip, ip, lsl #6
    1be0:	34000000 	strcc	r0, [r0], #-0
    1be4:	0000090d 	andeq	r0, r0, sp, lsl #18
    1be8:	00008684 	andeq	r8, r0, r4, lsl #13
    1bec:	0000015c 	andeq	r0, r0, ip, asr r1
    1bf0:	0cba9c01 	ldceq	12, cr9, [sl], #4
    1bf4:	1a1f0000 	bne	7c1bfc <__bss_end__+0x7b6cf4>
    1bf8:	29000009 	stmdbcs	r0, {r0, r3}
    1bfc:	2100000b 	tstcs	r0, fp
    1c00:	1f00000b 	svcne	0x0000000b
    1c04:	00000924 	andeq	r0, r0, r4, lsr #18
    1c08:	00000b6b 	andeq	r0, r0, fp, ror #22
    1c0c:	00000b63 	andeq	r0, r0, r3, ror #22
    1c10:	00090d35 	andeq	r0, r9, r5, lsr sp
    1c14:	00009800 	andeq	r9, r0, r0, lsl #16
    1c18:	0d500100 	ldfeqe	f0, [r0, #-0]
    1c1c:	00000c87 	andeq	r0, r0, r7, lsl #25
    1c20:	00092436 	andeq	r2, r9, r6, lsr r4
    1c24:	091a3600 	ldmdbeq	sl, {r9, sl, ip, sp}
    1c28:	981c0000 	ldmdals	ip, {}	; <UNPREDICTABLE>
    1c2c:	37000000 	strcc	r0, [r0, -r0]
    1c30:	0000093d 	andeq	r0, r0, sp, lsr r9
    1c34:	00000098 	muleq	r0, r8, r0
    1c38:	00093e1d 	andeq	r3, r9, sp, lsl lr
    1c3c:	000bb300 	andeq	fp, fp, r0, lsl #6
    1c40:	000ba500 	andeq	sl, fp, r0, lsl #10
    1c44:	09483700 	stmdbeq	r8, {r8, r9, sl, ip, sp}^
    1c48:	00b00000 	adcseq	r0, r0, r0
    1c4c:	491d0000 	ldmdbmi	sp, {}	; <UNPREDICTABLE>
    1c50:	10000009 	andne	r0, r0, r9
    1c54:	0800000c 	stmdaeq	r0, {r2, r3}
    1c58:	1e00000c 	cdpne	0, 0, cr0, cr0, cr12, {0}
    1c5c:	00000953 	andeq	r0, r0, r3, asr r9
    1c60:	000000d0 	ldrdeq	r0, [r0], -r0	; <UNPREDICTABLE>
    1c64:	00000c25 	andeq	r0, r0, r5, lsr #24
    1c68:	0009541d 	andeq	r5, r9, sp, lsl r4
    1c6c:	000c4800 	andeq	r4, ip, r0, lsl #16
    1c70:	000c4400 	andeq	r4, ip, r0, lsl #8
    1c74:	09601d00 	stmdbeq	r0!, {r8, sl, fp, ip}^
    1c78:	0c6a0000 	stcleq	0, cr0, [sl], #-0
    1c7c:	0c660000 	stcleq	0, cr0, [r6], #-0
    1c80:	08160000 	ldmdaeq	r6, {}	; <UNPREDICTABLE>
    1c84:	5b000087 	blpl	1ea8 <__code_start__-0x6158>
    1c88:	c500000d 	strgt	r0, [r0, #-13]
    1c8c:	1700000b 	strne	r0, [r0, -fp]
    1c90:	76025001 	strvc	r5, [r2], -r1
    1c94:	24160000 	ldrcs	r0, [r6], #-0
    1c98:	ec000087 	stc	0, cr0, [r0], {135}	; 0x87
    1c9c:	e600000c 	str	r0, [r0], -ip
    1ca0:	1700000b 	strne	r0, [r0, -fp]
    1ca4:	7a025001 	bvc	95cb0 <__bss_end__+0x8ada8>
    1ca8:	52011700 	andpl	r1, r1, #0, 14
    1cac:	17007802 	strne	r7, [r0, -r2, lsl #16]
    1cb0:	02007d02 	andeq	r7, r0, #128	; 0x80
    1cb4:	1600007b 			; <UNDEFINED> instruction: 0x1600007b
    1cb8:	0000874c 	andeq	r8, r0, ip, asr #14
    1cbc:	00000cec 	andeq	r0, r0, ip, ror #25
    1cc0:	00000bfd 	strdeq	r0, [r0], -sp
    1cc4:	05500117 	ldrbeq	r0, [r0, #-279]	; 0xfffffee9
    1cc8:	00a45403 	adceq	r5, r4, r3, lsl #8
    1ccc:	6c160000 	ldcvs	0, cr0, [r6], {-0}
    1cd0:	ec000087 	stc	0, cr0, [r0], {135}	; 0x87
    1cd4:	1400000c 	strne	r0, [r0], #-12
    1cd8:	1700000c 	strne	r0, [r0, -ip]
    1cdc:	03055001 	movweq	r5, #20481	; 0x5001
    1ce0:	0000a464 	andeq	sl, r0, r4, ror #8
    1ce4:	878c2000 	strhi	r2, [ip, r0]
    1ce8:	090d0000 	stmdbeq	sp, {}	; <UNPREDICTABLE>
    1cec:	01170000 	tsteq	r7, r0
    1cf0:	04760250 	ldrbteq	r0, [r6], #-592	; 0xfffffdb0
    1cf4:	85380000 	ldrhi	r0, [r8, #-0]!
    1cf8:	e4000009 	str	r0, [r0], #-9
    1cfc:	01000086 	smlabbeq	r0, r6, r0, r0
    1d00:	000000f8 	strdeq	r0, [r0], -r8
    1d04:	1f145a01 	svcne	0x00145a01
    1d08:	00000996 	muleq	r0, r6, r9
    1d0c:	00000c8a 	andeq	r0, r0, sl, lsl #25
    1d10:	00000c88 	andeq	r0, r0, r8, lsl #25
    1d14:	0001101c 	andeq	r1, r1, ip, lsl r0
    1d18:	09a21d00 	stmibeq	r2!, {r8, sl, fp, ip}
    1d1c:	0c9f0000 	ldceq	0, cr0, [pc], {0}
    1d20:	0c9d0000 	ldceq	0, cr0, [sp], {0}
    1d24:	ad390000 	ldcge	0, cr0, [r9, #-0]
    1d28:	e4000009 	str	r0, [r0], #-9
    1d2c:	04000086 	streq	r0, [r0], #-134	; 0xffffff7a
    1d30:	00000130 	andeq	r0, r0, r0, lsr r1
    1d34:	780a4001 	stmdavc	sl, {r0, lr}
    1d38:	1f00000c 	svcne	0x0000000c
    1d3c:	000009be 			; <UNDEFINED> instruction: 0x000009be
    1d40:	00000cb4 			; <UNDEFINED> instruction: 0x00000cb4
    1d44:	00000cb2 			; <UNDEFINED> instruction: 0x00000cb2
    1d48:	86f81800 	ldrbthi	r1, [r8], r0, lsl #16
    1d4c:	0d670000 	stcleq	0, cr0, [r7, #-0]
	...
    1d58:	0087b416 	addeq	fp, r7, r6, lsl r4
    1d5c:	000cec00 	andeq	lr, ip, r0, lsl #24
    1d60:	000cb000 	andeq	fp, ip, r0
    1d64:	50011700 	andpl	r1, r1, r0, lsl #14
    1d68:	a2080305 	andge	r0, r8, #335544320	; 0x14000000
    1d6c:	01170000 	tsteq	r7, r0
    1d70:	f8030551 			; <UNDEFINED> instruction: 0xf8030551
    1d74:	170000a3 	strne	r0, [r0, -r3, lsr #1]
    1d78:	03055201 	movweq	r5, #20993	; 0x5201
    1d7c:	0000a710 	andeq	sl, r0, r0, lsl r7
    1d80:	87b81800 	ldrhi	r1, [r8, r0, lsl #16]!
    1d84:	0cf80000 	ldcleq	0, cr0, [r8]
    1d88:	34000000 	strcc	r0, [r0], #-0
    1d8c:	0000061f 	andeq	r0, r0, pc, lsl r6
    1d90:	00008a40 	andeq	r8, r0, r0, asr #20
    1d94:	00000004 	andeq	r0, r0, r4
    1d98:	0cec9c01 	stcleq	12, cr9, [ip], #4
    1d9c:	301f0000 	andscc	r0, pc, r0
    1da0:	cb000006 	blgt	1dc0 <__code_start__-0x6240>
    1da4:	c700000c 	strgt	r0, [r0, -ip]
    1da8:	3a00000c 	bcc	1de0 <__code_start__-0x6220>
    1dac:	00008a44 	andeq	r8, r0, r4, asr #20
    1db0:	0000063d 	andeq	r0, r0, sp, lsr r6
    1db4:	03500117 	cmpeq	r0, #-1073741819	; 0xc0000005
    1db8:	005001f3 	ldrsheq	r0, [r0], #-19	; 0xffffffed
    1dbc:	05c93b00 	strbeq	r3, [r9, #2816]	; 0xb00
    1dc0:	05c90000 	strbeq	r0, [r9]
    1dc4:	28040000 	stmdacs	r4, {}	; <UNPREDICTABLE>
    1dc8:	00a73b06 	adceq	r3, r7, r6, lsl #22
    1dcc:	00a70000 	adceq	r0, r7, r0
    1dd0:	6e040000 	cdpvs	0, 0, cr0, cr4, cr0, {0}
    1dd4:	9e0d3c06 	cdpls	12, 0, cr3, cr13, cr6, {0}
    1dd8:	6577730b 	ldrbvs	r7, [r7, #-779]!	; 0xfffffcf5
    1ddc:	665f7065 	ldrbvs	r7, [pc], -r5, rrx
    1de0:	00656572 	rsbeq	r6, r5, r2, ror r5
    1de4:	0002863b 	andeq	r8, r2, fp, lsr r6
    1de8:	00028600 	andeq	r8, r2, r0, lsl #12
    1dec:	08280500 	stmdaeq	r8!, {r8, sl}
    1df0:	0002c33b 	andeq	ip, r2, fp, lsr r3
    1df4:	0002c300 	andeq	ip, r2, r0, lsl #6
    1df8:	082b0500 	stmdaeq	fp!, {r8, sl}
    1dfc:	0002933b 	andeq	r9, r2, fp, lsr r3
    1e00:	00029300 	andeq	r9, r2, r0, lsl #6
    1e04:	074a0500 	strbeq	r0, [sl, -r0, lsl #10]
    1e08:	0004c63b 	andeq	ip, r4, fp, lsr r6
    1e0c:	0004c600 	andeq	ip, r4, r0, lsl #12
    1e10:	06760100 	ldrbteq	r0, [r6], -r0, lsl #2
    1e14:	0005383b 	andeq	r3, r5, fp, lsr r8
    1e18:	00053800 	andeq	r3, r5, r0, lsl #16
    1e1c:	06820400 	streq	r0, [r2], r0, lsl #8
    1e20:	0005303b 	andeq	r3, r5, fp, lsr r0
    1e24:	00053000 	andeq	r3, r5, r0
    1e28:	077b0400 	ldrbeq	r0, [fp, -r0, lsl #8]!
    1e2c:	0003ca3b 	andeq	ip, r3, fp, lsr sl
    1e30:	0003ca00 	andeq	ip, r3, r0, lsl #20
    1e34:	07320500 	ldreq	r0, [r2, -r0, lsl #10]!
    1e38:	0002b13b 	andeq	fp, r2, fp, lsr r1
    1e3c:	0002b100 	andeq	fp, r2, r0, lsl #2
    1e40:	08450500 	stmdaeq	r5, {r8, sl}^
    1e44:	00014000 	andeq	r4, r1, r0
    1e48:	6a000400 	bvs	2e50 <__code_start__-0x51b0>
    1e4c:	0400000a 	streq	r0, [r0], #-10
    1e50:	00016a01 	andeq	r6, r1, r1, lsl #20
    1e54:	058f0c00 	streq	r0, [pc, #3072]	; 2a5c <__code_start__-0x55a4>
    1e58:	059f0000 	ldreq	r0, [pc]	; 1e60 <__code_start__-0x61a0>
    1e5c:	8c100000 	ldchi	0, cr0, [r0], {-0}
    1e60:	00780000 	rsbseq	r0, r8, r0
    1e64:	0dd10000 	ldcleq	0, cr0, [r1]
    1e68:	04020000 	streq	r0, [r2], #-0
    1e6c:	746e6905 	strbtvc	r6, [lr], #-2309	; 0xfffff6fb
    1e70:	05880300 	streq	r0, [r8, #768]	; 0x300
    1e74:	d1030000 	mrsle	r0, (UNDEF: 3)
    1e78:	00003817 	andeq	r3, r0, r7, lsl r8
    1e7c:	07040400 	streq	r0, [r4, -r0, lsl #8]
    1e80:	0000012b 	andeq	r0, r0, fp, lsr #2
    1e84:	c3060104 	movwgt	r0, #24836	; 0x6104
    1e88:	04000000 	streq	r0, [r0], #-0
    1e8c:	00210502 	eoreq	r0, r1, r2, lsl #10
    1e90:	04040000 	streq	r0, [r4], #-0
    1e94:	00005605 	andeq	r5, r0, r5, lsl #12
    1e98:	05080400 	streq	r0, [r8, #-1024]	; 0xfffffc00
    1e9c:	00000051 	andeq	r0, r0, r1, asr r0
    1ea0:	c1080104 	tstgt	r8, r4, lsl #2
    1ea4:	04000000 	streq	r0, [r0], #-0
    1ea8:	01520702 	cmpeq	r2, r2, lsl #14
    1eac:	04040000 	streq	r0, [r4], #-0
    1eb0:	00012607 	andeq	r2, r1, r7, lsl #12
    1eb4:	07080400 	streq	r0, [r8, -r0, lsl #8]
    1eb8:	00000121 	andeq	r0, r0, r1, lsr #2
    1ebc:	00002505 	andeq	r2, r0, r5, lsl #10
    1ec0:	00008600 	andeq	r8, r0, r0, lsl #12
    1ec4:	00250600 	eoreq	r0, r5, r0, lsl #12
    1ec8:	07000000 	streq	r0, [r0, -r0]
    1ecc:	0000002b 	andeq	r0, r0, fp, lsr #32
    1ed0:	920e1c02 	andls	r1, lr, #512	; 0x200
    1ed4:	08000000 	stmdaeq	r0, {}	; <UNPREDICTABLE>
    1ed8:	00007704 	andeq	r7, r0, r4, lsl #14
    1edc:	00250500 	eoreq	r0, r5, r0, lsl #10
    1ee0:	00a70000 	adceq	r0, r7, r0
    1ee4:	a7060000 	strge	r0, [r6, -r0]
    1ee8:	00000000 	andeq	r0, r0, r0
    1eec:	00b40408 	adcseq	r0, r4, r8, lsl #8
    1ef0:	01040000 	mrseq	r0, (UNDEF: 4)
    1ef4:	0000ca08 	andeq	ip, r0, r8, lsl #20
    1ef8:	00ad0900 	adceq	r0, sp, r0, lsl #18
    1efc:	07070000 	streq	r0, [r7, -r0]
    1f00:	02000006 	andeq	r0, r0, #6, 0
    1f04:	00c50e21 	sbceq	r0, r5, r1, lsr #28
    1f08:	04080000 	streq	r0, [r8], #-0
    1f0c:	00000098 	muleq	r0, r8, r0
    1f10:	00022f0a 	andeq	r2, r2, sl, lsl #30
    1f14:	07040100 	streq	r0, [r4, -r0, lsl #2]
    1f18:	0000013b 	andeq	r0, r0, fp, lsr r1
    1f1c:	00008c10 	andeq	r8, r0, r0, lsl ip
    1f20:	00000078 	andeq	r0, r0, r8, ror r0
    1f24:	013b9c01 	teqeq	fp, r1, lsl #24
    1f28:	5f0b0000 	svcpl	0x000b0000
    1f2c:	04010070 	streq	r0, [r1], #-112	; 0xffffff90
    1f30:	00013b14 	andeq	r3, r1, r4, lsl fp
    1f34:	0c500100 	ldfeqe	f0, [r0], {-0}
    1f38:	04010063 	streq	r0, [r1], #-99	; 0xffffff9d
    1f3c:	0000251c 	andeq	r2, r0, ip, lsl r5
    1f40:	000cf000 	andeq	pc, ip, r0
    1f44:	000cec00 	andeq	lr, ip, r0, lsl #24
    1f48:	006e0c00 	rsbeq	r0, lr, r0, lsl #24
    1f4c:	2c260401 	cfstrscs	mvf0, [r6], #-4
    1f50:	15000000 	strne	r0, [r0, #-0]
    1f54:	1100000d 	tstne	r0, sp
    1f58:	0d00000d 	stceq	0, cr0, [r0, #-52]	; 0xffffffcc
    1f5c:	05010070 	streq	r0, [r1, #-112]	; 0xffffff90
    1f60:	00013d0b 	andeq	r3, r1, fp, lsl #26
    1f64:	000d4400 	andeq	r4, sp, r0, lsl #8
    1f68:	000d3600 	andeq	r3, sp, r0, lsl #12
    1f6c:	00650d00 	rsbeq	r0, r5, r0, lsl #26
    1f70:	3d140501 	cfldr32cc	mvfx0, [r4, #-4]
    1f74:	a1000001 	tstge	r0, r1
    1f78:	9f00000d 	svcls	0x0000000d
    1f7c:	0000000d 	andeq	r0, r0, sp
    1f80:	0408040e 	streq	r0, [r8], #-1038	; 0xfffffbf2
    1f84:	000000ad 	andeq	r0, r0, sp, lsr #1
    1f88:	00019d00 	andeq	r9, r1, r0, lsl #26
    1f8c:	36000400 	strcc	r0, [r0], -r0, lsl #8
    1f90:	0400000b 	streq	r0, [r0], #-11
    1f94:	00016a01 	andeq	r6, r1, r1, lsl #20
    1f98:	05e40c00 	strbeq	r0, [r4, #3072]!	; 0xc00
    1f9c:	059f0000 	ldreq	r0, [pc]	; 1fa4 <__code_start__-0x605c>
    1fa0:	8c880000 	stchi	0, cr0, [r8], {0}
    1fa4:	00580000 	subseq	r0, r8, r0
    1fa8:	0ef60000 	cdpeq	0, 15, cr0, cr6, cr0, {0}
    1fac:	d0020000 	andle	r0, r2, r0
    1fb0:	02000005 	andeq	r0, r0, #5, 0
    1fb4:	00311b28 	eorseq	r1, r1, r8, lsr #22
    1fb8:	f4030000 	vst4.8	{d0-d3}, [r3], r0
    1fbc:	04000005 	streq	r0, [r0], #-5
    1fc0:	00480004 	subeq	r0, r8, r4
    1fc4:	df040000 	svcle	0x00040000
    1fc8:	48000005 	stmdami	r0, {r0, r2}
    1fcc:	00000000 	andeq	r0, r0, r0
    1fd0:	02040500 	andeq	r0, r4, #0, 10
    1fd4:	000005f6 	strdeq	r0, [r0], -r6
    1fd8:	25186302 	ldrcs	r6, [r8, #-770]	; 0xfffffcfe
    1fdc:	06000000 	streq	r0, [r0], -r0
    1fe0:	6e690504 	cdpvs	5, 6, cr0, cr9, cr4, {0}
    1fe4:	04070074 	streq	r0, [r7], #-116	; 0xffffff8c
    1fe8:	00012b07 	andeq	r2, r1, r7, lsl #22
    1fec:	06010700 	streq	r0, [r1], -r0, lsl #14
    1ff0:	000000c3 	andeq	r0, r0, r3, asr #1
    1ff4:	21050207 	tstcs	r5, r7, lsl #4
    1ff8:	07000000 	streq	r0, [r0, -r0]
    1ffc:	00560504 	subseq	r0, r6, r4, lsl #10
    2000:	08070000 	stmdaeq	r7, {}	; <UNPREDICTABLE>
    2004:	00005105 	andeq	r5, r0, r5, lsl #2
    2008:	08010700 	stmdaeq	r1, {r8, r9, sl}
    200c:	000000c1 	andeq	r0, r0, r1, asr #1
    2010:	52070207 	andpl	r0, r7, #1879048192	; 0x70000000
    2014:	07000001 	streq	r0, [r0, -r1]
    2018:	01260704 			; <UNDEFINED> instruction: 0x01260704
    201c:	08070000 	stmdaeq	r7, {}	; <UNPREDICTABLE>
    2020:	00012107 	andeq	r2, r1, r7, lsl #2
    2024:	00560800 	subseq	r0, r6, r0, lsl #16
    2028:	00ab0000 	adceq	r0, fp, r0
    202c:	56090000 	strpl	r0, [r9], -r0
    2030:	00000000 	andeq	r0, r0, r0
    2034:	00002b0a 	andeq	r2, r0, sl, lsl #22
    2038:	0e1c0300 	cdpeq	3, 1, cr0, cr12, cr0, {0}
    203c:	000000b7 	strheq	r0, [r0], -r7
    2040:	009c040b 	addseq	r0, ip, fp, lsl #8
    2044:	56080000 	strpl	r0, [r8], -r0
    2048:	cc000000 	stcgt	0, cr0, [r0], {-0}
    204c:	09000000 	stmdbeq	r0, {}	; <UNPREDICTABLE>
    2050:	000000cc 	andeq	r0, r0, ip, asr #1
    2054:	d9040b00 	stmdble	r4, {r8, r9, fp}
    2058:	07000000 	streq	r0, [r0, -r0]
    205c:	00ca0801 	sbceq	r0, sl, r1, lsl #16
    2060:	d20c0000 	andle	r0, ip, #0, 0
    2064:	0a000000 	beq	206c <__code_start__-0x5f94>
    2068:	00000607 	andeq	r0, r0, r7, lsl #12
    206c:	ea0e2103 	b	38a480 <__bss_end__+0x37f578>
    2070:	0b000000 	bleq	2078 <__code_start__-0x5f88>
    2074:	0000bd04 	andeq	fp, r0, r4, lsl #26
    2078:	05c90d00 	strbeq	r0, [r9, #3328]	; 0xd00
    207c:	06010000 	streq	r0, [r1], -r0
    2080:	00005605 	andeq	r5, r0, r5, lsl #12
    2084:	008c8800 	addeq	r8, ip, r0, lsl #16
    2088:	00005800 	andeq	r5, r0, r0, lsl #16
    208c:	839c0100 	orrshi	r0, ip, #0
    2090:	0e000001 	cdpeq	0, 0, cr0, cr0, cr1, {0}
    2094:	00746d66 	rsbseq	r6, r4, r6, ror #26
    2098:	cc180601 	ldcgt	6, cr0, [r8], {1}
    209c:	02000000 	andeq	r0, r0, #0, 0
    20a0:	100f7091 	mulne	pc, r1, r0	; <UNPREDICTABLE>
    20a4:	00667562 	rsbeq	r7, r6, r2, ror #10
    20a8:	83110801 	tsthi	r1, #65536	; 0x10000
    20ac:	05000001 	streq	r0, [r0, #-1]
    20b0:	00ab0403 	adceq	r0, fp, r3, lsl #8
    20b4:	05c11100 	strbeq	r1, [r1, #256]	; 0x100
    20b8:	09010000 	stmdbeq	r1, {}	; <UNPREDICTABLE>
    20bc:	00004a0d 	andeq	r4, r0, sp, lsl #20
    20c0:	5c910200 	lfmpl	f0, 4, [r1], {0}
    20c4:	007a7312 	rsbseq	r7, sl, r2, lsl r3
    20c8:	560d0c01 	strpl	r0, [sp], -r1, lsl #24
    20cc:	ba000000 	blt	20d4 <__code_start__-0x5f2c>
    20d0:	b400000d 	strlt	r0, [r0], #-13
    20d4:	1300000d 	movwne	r0, #13
    20d8:	00008cb0 			; <UNDEFINED> instruction: 0x00008cb0
    20dc:	00000194 	muleq	r0, r4, r1
    20e0:	00000176 	andeq	r0, r0, r6, ror r1
    20e4:	02500114 	subseq	r0, r0, #5
    20e8:	01140075 	tsteq	r4, r5, ror r0
    20ec:	000a0351 	andeq	r0, sl, r1, asr r3
    20f0:	52011404 	andpl	r1, r1, #4, 8	; 0x4000000
    20f4:	06489103 	strbeq	r9, [r8], -r3, lsl #2
    20f8:	02530114 	subseq	r0, r3, #5
    20fc:	15004c91 	strne	r4, [r0, #-3217]	; 0xfffff36f
    2100:	00008cc4 	andeq	r8, r0, r4, asr #25
    2104:	02500114 	subseq	r0, r0, #5
    2108:	00000075 	andeq	r0, r0, r5, ror r0
    210c:	0000d216 	andeq	sp, r0, r6, lsl r2
    2110:	00019400 	andeq	r9, r1, r0, lsl #8
    2114:	005d1700 	subseq	r1, sp, r0, lsl #14
    2118:	03ff0000 	mvnseq	r0, #0, 0
    211c:	05c61800 	strbeq	r1, [r6, #2048]	; 0x800
    2120:	05c60000 	strbeq	r0, [r6]
    2124:	02050000 	andeq	r0, r5, #0, 0
    2128:	00f30005 	rscseq	r0, r3, r5
    212c:	00040000 	andeq	r0, r4, r0
    2130:	00000c78 	andeq	r0, r0, r8, ror ip
    2134:	016a0104 	cmneq	sl, r4, lsl #2
    2138:	0c0c0000 	stceq	0, cr0, [ip], {-0}
    213c:	9f000006 	svcls	0x00000006
    2140:	e0000005 	and	r0, r0, r5
    2144:	3800008c 	stmdacc	r0, {r2, r3, r7}
    2148:	1a000000 	bne	2150 <__code_start__-0x5eb0>
    214c:	02000010 	andeq	r0, r0, #16, 0
    2150:	6e690504 	cdpvs	5, 6, cr0, cr9, cr4, {0}
    2154:	04030074 	streq	r0, [r3], #-116	; 0xffffff8c
    2158:	00012b07 	andeq	r2, r1, r7, lsl #22
    215c:	06010300 	streq	r0, [r1], -r0, lsl #6
    2160:	000000c3 	andeq	r0, r0, r3, asr #1
    2164:	21050203 	tstcs	r5, r3, lsl #4
    2168:	03000000 	movweq	r0, #0
    216c:	00560504 	subseq	r0, r6, r4, lsl #10
    2170:	08030000 	stmdaeq	r3, {}	; <UNPREDICTABLE>
    2174:	00005105 	andeq	r5, r0, r5, lsl #2
    2178:	08010300 	stmdaeq	r1, {r8, r9}
    217c:	000000c1 	andeq	r0, r0, r1, asr #1
    2180:	52070203 	andpl	r0, r7, #805306368	; 0x30000000
    2184:	03000001 	movweq	r0, #1
    2188:	01260704 			; <UNDEFINED> instruction: 0x01260704
    218c:	08030000 	stmdaeq	r3, {}	; <UNPREDICTABLE>
    2190:	00012107 	andeq	r2, r1, r7, lsl #2
    2194:	00250400 	eoreq	r0, r5, r0, lsl #8
    2198:	007a0000 	rsbseq	r0, sl, r0
    219c:	25050000 	strcs	r0, [r5, #-0]
    21a0:	00000000 	andeq	r0, r0, r0
    21a4:	00002b06 	andeq	r2, r0, r6, lsl #22
    21a8:	0e1c0200 	cdpeq	2, 1, cr0, cr12, cr0, {0}
    21ac:	00000086 	andeq	r0, r0, r6, lsl #1
    21b0:	006b0407 	rsbeq	r0, fp, r7, lsl #8
    21b4:	25040000 	strcs	r0, [r4, #-0]
    21b8:	9b000000 	blls	21c0 <__code_start__-0x5e40>
    21bc:	05000000 	streq	r0, [r0, #-0]
    21c0:	0000009b 	muleq	r0, fp, r0
    21c4:	a8040700 	stmdage	r4, {r8, r9, sl}
    21c8:	03000000 	movweq	r0, #0
    21cc:	00ca0801 	sbceq	r0, sl, r1, lsl #16
    21d0:	a1080000 	mrsge	r0, (UNDEF: 8)
    21d4:	06000000 	streq	r0, [r0], -r0
    21d8:	00000607 	andeq	r0, r0, r7, lsl #12
    21dc:	b90e2102 	stmdblt	lr, {r1, r8, sp}
    21e0:	07000000 	streq	r0, [r0, -r0]
    21e4:	00008c04 	andeq	r8, r0, r4, lsl #24
    21e8:	00ad0900 	adceq	r0, sp, r0, lsl #18
    21ec:	0c010000 	stceq	0, cr0, [r1], {-0}
    21f0:	cc030507 	cfstr32gt	mvfx0, [r3], {7}
    21f4:	0a0000aa 	beq	24a4 <__code_start__-0x5b5c>
    21f8:	000005fe 	strdeq	r0, [r0], -lr
    21fc:	25050401 	strcs	r0, [r5, #-1025]	; 0xfffffbff
    2200:	e0000000 	and	r0, r0, r0
    2204:	3800008c 	stmdacc	r0, {r2, r3, r7}
    2208:	01000000 	mrseq	r0, (UNDEF: 0)
    220c:	00700b9c 			; <UNDEFINED> instruction: 0x00700b9c
    2210:	9b1f0401 	blls	7c321c <__bss_end__+0x7b8314>
    2214:	eb000000 	bl	221c <__code_start__-0x5de4>
    2218:	e300000d 	movw	r0, #13
    221c:	0000000d 	andeq	r0, r0, sp
    2220:	000c7f00 	andeq	r7, ip, r0, lsl #30
    2224:	16000400 	strne	r0, [r0], -r0, lsl #8
    2228:	0400000d 	streq	r0, [r0], #-13
    222c:	00016a01 	andeq	r6, r1, r1, lsl #20
    2230:	062b0c00 	strteq	r0, [fp], -r0, lsl #24
    2234:	059f0000 	ldreq	r0, [pc]	; 223c <__code_start__-0x5dc4>
    2238:	8d180000 	ldchi	0, cr0, [r8, #-0]
    223c:	09b40000 	ldmibeq	r4!, {}	; <UNPREDICTABLE>
    2240:	10be0000 	adcsne	r0, lr, r0
    2244:	08020000 	stmdaeq	r2, {}	; <UNPREDICTABLE>
    2248:	00012107 	andeq	r2, r1, r7, lsl #2
    224c:	07040200 	streq	r0, [r4, -r0, lsl #4]
    2250:	0000012b 	andeq	r0, r0, fp, lsr #2
    2254:	69050403 	stmdbvs	r5, {r0, r1, sl}
    2258:	0200746e 	andeq	r7, r0, #1845493760	; 0x6e000000
    225c:	00c30601 	sbceq	r0, r3, r1, lsl #12
    2260:	02020000 	andeq	r0, r2, #0, 0
    2264:	00002105 	andeq	r2, r0, r5, lsl #2
    2268:	05040200 	streq	r0, [r4, #-512]	; 0xfffffe00
    226c:	00000056 	andeq	r0, r0, r6, asr r0
    2270:	51050802 	tstpl	r5, r2, lsl #16
    2274:	02000000 	andeq	r0, r0, #0, 0
    2278:	00c10801 	sbceq	r0, r1, r1, lsl #16
    227c:	02020000 	andeq	r0, r2, #0, 0
    2280:	00015207 	andeq	r5, r1, r7, lsl #4
    2284:	01380400 	teqeq	r8, r0, lsl #8
    2288:	34020000 	strcc	r0, [r2], #-0
    228c:	00007019 	andeq	r7, r0, r9, lsl r0
    2290:	07040200 	streq	r0, [r4, -r0, lsl #4]
    2294:	00000126 	andeq	r0, r0, r6, lsr #2
    2298:	00062204 	andeq	r2, r6, r4, lsl #4
    229c:	19370200 	ldmdbne	r7!, {r9}
    22a0:	00000025 	andeq	r0, r0, r5, lsr #32
    22a4:	00003305 	andeq	r3, r0, r5, lsl #6
    22a8:	00009200 	andeq	r9, r0, r0, lsl #4
    22ac:	00330600 	eorseq	r0, r3, r0, lsl #12
    22b0:	07000000 	streq	r0, [r0, -r0]
    22b4:	0000002b 	andeq	r0, r0, fp, lsr #32
    22b8:	9e0e1c03 	cdpls	12, 0, cr1, cr14, cr3, {0}
    22bc:	08000000 	stmdaeq	r0, {}	; <UNPREDICTABLE>
    22c0:	00008304 	andeq	r8, r0, r4, lsl #6
    22c4:	00330500 	eorseq	r0, r3, r0, lsl #10
    22c8:	00b30000 	adcseq	r0, r3, r0
    22cc:	b3060000 	movwlt	r0, #24576	; 0x6000
    22d0:	00000000 	andeq	r0, r0, r0
    22d4:	00c00408 	sbceq	r0, r0, r8, lsl #8
    22d8:	01020000 	mrseq	r0, (UNDEF: 2)
    22dc:	0000ca08 	andeq	ip, r0, r8, lsl #20
    22e0:	00b90900 	adcseq	r0, r9, r0, lsl #18
    22e4:	07070000 	streq	r0, [r7, -r0]
    22e8:	03000006 	movweq	r0, #6
    22ec:	00d10e21 	sbcseq	r0, r1, r1, lsr #28
    22f0:	04080000 	streq	r0, [r8], #-0
    22f4:	000000a4 	andeq	r0, r0, r4, lsr #1
    22f8:	00063e07 	andeq	r3, r6, r7, lsl #28
    22fc:	0d0b0400 	cfstrseq	mvf0, [fp, #-0]
    2300:	000000b9 	strheq	r0, [r0], -r9
    2304:	00069707 	andeq	r9, r6, r7, lsl #14
    2308:	0d0c0400 	cfstrseq	mvf0, [ip, #-0]
    230c:	000000b9 	strheq	r0, [r0], -r9
    2310:	00047207 	andeq	r7, r4, r7, lsl #4
    2314:	0d0d0400 	cfstrseq	mvf0, [sp, #-0]
    2318:	000000b9 	strheq	r0, [r0], -r9
    231c:	00052407 	andeq	r2, r5, r7, lsl #8
    2320:	0d0e0400 	cfstrseq	mvf0, [lr, #-0]
    2324:	000000b9 	strheq	r0, [r0], -r9
    2328:	00055a07 	andeq	r5, r5, r7, lsl #20
    232c:	0d0f0400 	cfstrseq	mvf0, [pc, #-0]	; 2334 <__code_start__-0x5ccc>
    2330:	000000b9 	strheq	r0, [r0], -r9
    2334:	0004e107 	andeq	lr, r4, r7, lsl #2
    2338:	0d100400 	cfldrseq	mvf0, [r0, #-0]
    233c:	000000b9 	strheq	r0, [r0], -r9
    2340:	0006c007 	andeq	ip, r6, r7
    2344:	0d110400 	cfldrseq	mvf0, [r1, #-0]
    2348:	000000b9 	strheq	r0, [r0], -r9
    234c:	00065b07 	andeq	r5, r6, r7, lsl #22
    2350:	0d120400 	cfldrseq	mvf0, [r2, #-0]
    2354:	000000b9 	strheq	r0, [r0], -r9
    2358:	0005d004 	andeq	sp, r5, r4
    235c:	1b280500 	blne	a03764 <__bss_end__+0x9f885c>
    2360:	00000143 	andeq	r0, r0, r3, asr #2
    2364:	0005f40a 	andeq	pc, r5, sl, lsl #8
    2368:	00060400 	andeq	r0, r6, r0, lsl #8
    236c:	0000015a 	andeq	r0, r0, sl, asr r1
    2370:	0005df0b 	andeq	sp, r5, fp, lsl #30
    2374:	00015a00 	andeq	r5, r1, r0, lsl #20
    2378:	0c000000 	stceq	0, cr0, [r0], {-0}
    237c:	05f60404 	ldrbeq	r0, [r6, #1028]!	; 0x404
    2380:	63050000 	movwvs	r0, #20480	; 0x5000
    2384:	00013718 	andeq	r3, r1, r8, lsl r7
    2388:	05c60d00 	strbeq	r0, [r6, #3328]	; 0xd00
    238c:	81010000 	mrshi	r0, (UNDEF: 1)
    2390:	00003305 	andeq	r3, r0, r5, lsl #6
    2394:	0090a000 	addseq	sl, r0, r0
    2398:	00062c00 	andeq	r2, r6, r0, lsl #24
    239c:	6a9c0100 	bvs	fe7027a4 <__bss_end__+0xfe6f789c>
    23a0:	0e000008 	cdpeq	0, 0, cr0, cr0, cr8, {0}
    23a4:	00667562 	rsbeq	r7, r6, r2, ror #10
    23a8:	6a158101 	bvs	5627b4 <__bss_end__+0x5578ac>
    23ac:	2b000008 	blcs	23d4 <__code_start__-0x5c2c>
    23b0:	2100000e 	tstcs	r0, lr
    23b4:	0e00000e 	cdpeq	0, 0, cr0, cr0, cr14, {0}
    23b8:	8101006e 	tsthi	r1, lr, rrx
    23bc:	0000331e 	andeq	r3, r0, lr, lsl r3
    23c0:	000e7800 	andeq	r7, lr, r0, lsl #16
    23c4:	000e7000 	andeq	r7, lr, r0
    23c8:	6d660e00 	stclvs	14, cr0, [r6, #-0]
    23cc:	81010074 	tsthi	r1, r4, ror r0
    23d0:	0000b32d 	andeq	fp, r0, sp, lsr #6
    23d4:	000eca00 	andeq	ip, lr, r0, lsl #20
    23d8:	000eb200 	andeq	fp, lr, r0, lsl #4
    23dc:	05c10f00 	strbeq	r0, [r1, #3840]	; 0xf00
    23e0:	81010000 	mrshi	r0, (UNDEF: 1)
    23e4:	00015c3a 	andeq	r5, r1, sl, lsr ip
    23e8:	000f8c00 	andeq	r8, pc, r0, lsl #24
    23ec:	000f5e00 	andeq	r5, pc, r0, lsl #28
    23f0:	00701000 	rsbseq	r1, r0, r0
    23f4:	6a088201 	bvs	222c00 <__bss_end__+0x217cf8>
    23f8:	df000008 	svcle	0x00000008
    23fc:	c9000010 	stmdbgt	r0, {r4}
    2400:	10000010 	andne	r0, r0, r0, lsl r0
    2404:	82010065 	andhi	r0, r1, #101, 0	; 0x65
    2408:	00086a12 	andeq	r6, r8, r2, lsl sl
    240c:	00116800 	andseq	r6, r1, r0, lsl #16
    2410:	00116600 	andseq	r6, r1, r0, lsl #12
    2414:	30781000 	rsbscc	r1, r8, r0
    2418:	0e830100 	rmfeqs	f0, f3, f0
    241c:	00000064 	andeq	r0, r0, r4, rrx
    2420:	00001181 	andeq	r1, r0, r1, lsl #3
    2424:	0000117b 	andeq	r1, r0, fp, ror r1
    2428:	00317810 	eorseq	r7, r1, r0, lsl r8
    242c:	64118301 	ldrvs	r8, [r1], #-769	; 0xfffffcff
    2430:	b0000000 	andlt	r0, r0, r0
    2434:	aa000011 	bge	2480 <__code_start__-0x5b80>
    2438:	11000011 	tstne	r0, r1, lsl r0
    243c:	00000679 	andeq	r0, r0, r9, ror r6
    2440:	b3118601 	tstlt	r1, #1048576	; 0x100000
    2444:	e1000000 	mrs	r0, (UNDEF: 0)
    2448:	d9000011 	stmdble	r0, {r0, r4}
    244c:	12000011 	andne	r0, r0, #17, 0
    2450:	00000090 	muleq	r0, r0, r0
    2454:	00000880 	andeq	r0, r0, r0, lsl #17
    2458:	a8b80305 	ldmge	r8!, {r0, r2, r8, r9}
    245c:	78130000 	ldmdavc	r3, {}	; <UNPREDICTABLE>
    2460:	10000002 	andne	r0, r0, r2
    2464:	91010073 	tstls	r1, r3, ror r0
    2468:	00086a0a 	andeq	r6, r8, sl, lsl #20
    246c:	00122700 	andseq	r2, r2, r0, lsl #14
    2470:	00121b00 	andseq	r1, r2, r0, lsl #22
    2474:	756e1400 	strbvc	r1, [lr, #-1024]!	; 0xfffffc00
    2478:	9101006d 	tstls	r1, sp, rrx
    247c:	0008850d 	andeq	r8, r8, sp, lsl #10
    2480:	d8910300 	ldmle	r1, {r8, r9}
    2484:	06cd157d 			; <UNDEFINED> instruction: 0x06cd157d
    2488:	91010000 	mrsls	r0, (UNDEF: 1)
    248c:	00088517 	andeq	r8, r8, r7, lsl r5
    2490:	d8910300 	ldmle	r1, {r8, r9}
    2494:	064d117e 			; <UNDEFINED> instruction: 0x064d117e
    2498:	92010000 	andls	r0, r1, #0, 0
    249c:	00002c0d 	andeq	r2, r0, sp, lsl #24
    24a0:	00127900 	andseq	r7, r2, r0, lsl #18
    24a4:	00127100 	andseq	r7, r2, r0, lsl #2
    24a8:	02a01600 	adceq	r1, r0, #0, 12
    24ac:	04f10000 	ldrbteq	r0, [r1], #0
    24b0:	74100000 	ldrvc	r0, [r0], #-0
    24b4:	9e010079 	mcrls	0, 0, r0, cr1, cr9, {3}
    24b8:	0000b31d 	andeq	fp, r0, sp, lsl r3
    24bc:	0012ba00 	andseq	fp, r2, r0, lsl #20
    24c0:	0012ae00 	andseq	sl, r2, r0, lsl #28
    24c4:	78781400 	ldmdavc	r8!, {sl, ip}^
    24c8:	1aa20100 	bne	fe8828d0 <__bss_end__+0xfe8779c8>
    24cc:	00000077 	andeq	r0, r0, r7, ror r0
    24d0:	04935906 	ldreq	r5, [r3], #2310	; 0x906
    24d4:	1704935b 	smlsdne	r4, fp, r3, r9
    24d8:	0000922c 	andeq	r9, r0, ip, lsr #4
    24dc:	00000c3a 	andeq	r0, r0, sl, lsr ip
    24e0:	000002d8 	ldrdeq	r0, [r0], -r8
    24e4:	02500118 	subseq	r0, r0, #6
    24e8:	01180076 	tsteq	r8, r6, ror r0
    24ec:	ac030551 	cfstr32ge	mvfx0, [r3], {81}	; 0x51
    24f0:	180000a7 	stmdane	r0, {r0, r1, r2, r5, r7}
    24f4:	33015201 	movwcc	r5, #4609	; 0x1201
    24f8:	92441700 	subls	r1, r4, #0, 14
    24fc:	0c3a0000 	ldceq	0, cr0, [sl], #-0
    2500:	02fa0000 	rscseq	r0, sl, #0, 0
    2504:	01180000 	tsteq	r8, r0
    2508:	00760250 	rsbseq	r0, r6, r0, asr r2
    250c:	05510118 	ldrbeq	r0, [r1, #-280]	; 0xfffffee8
    2510:	00a7c003 	adceq	ip, r7, r3
    2514:	52011800 	andpl	r1, r1, #0, 16
    2518:	17003301 	strne	r3, [r0, -r1, lsl #6]
    251c:	00009268 	andeq	r9, r0, r8, ror #4
    2520:	00000c46 	andeq	r0, r0, r6, asr #24
    2524:	00000317 	andeq	r0, r0, r7, lsl r3
    2528:	05500118 	ldrbeq	r0, [r0, #-280]	; 0xfffffee8
    252c:	00a7b003 	adceq	fp, r7, r3
    2530:	51011800 	tstpl	r1, r0, lsl #16
    2534:	00007b02 	andeq	r7, r0, r2, lsl #22
    2538:	00927417 	addseq	r7, r2, r7, lsl r4
    253c:	000c4600 	andeq	r4, ip, r0, lsl #12
    2540:	00033400 	andeq	r3, r3, r0, lsl #8
    2544:	50011800 	andpl	r1, r1, r0, lsl #16
    2548:	a7b80305 	ldrge	r0, [r8, r5, lsl #6]!
    254c:	01180000 	tsteq	r8, r0
    2550:	00790251 	rsbseq	r0, r9, r1, asr r2
    2554:	92841700 	addls	r1, r4, #0, 14
    2558:	0c3a0000 	ldceq	0, cr0, [sl], #-0
    255c:	03560000 	cmpeq	r6, #0, 0
    2560:	01180000 	tsteq	r8, r0
    2564:	00760250 	rsbseq	r0, r6, r0, asr r2
    2568:	05510118 	ldrbeq	r0, [r1, #-280]	; 0xfffffee8
    256c:	00a7ac03 	adceq	sl, r7, r3, lsl #24
    2570:	52011800 	andpl	r1, r1, #0, 16
    2574:	17003301 	strne	r3, [r0, -r1, lsl #6]
    2578:	000092b4 			; <UNDEFINED> instruction: 0x000092b4
    257c:	00000aa4 	andeq	r0, r0, r4, lsr #21
    2580:	00000383 	andeq	r0, r0, r3, lsl #7
    2584:	01500118 	cmpeq	r0, r8, lsl r1
    2588:	51011840 	tstpl	r1, r0, asr #16
    258c:	7dd09103 	ldfvcp	f1, [r0, #12]
    2590:	02520118 	subseq	r0, r2, #6
    2594:	0118007b 	tsteq	r8, fp, ror r0
    2598:	00750253 	rsbseq	r0, r5, r3, asr r2
    259c:	007d0218 	rsbseq	r0, sp, r8, lsl r2
    25a0:	00007602 	andeq	r7, r0, r2, lsl #12
    25a4:	0092d417 	addseq	sp, r2, r7, lsl r4
    25a8:	000aa400 	andeq	sl, sl, r0, lsl #8
    25ac:	0003aa00 	andeq	sl, r3, r0, lsl #20
    25b0:	50011800 	andpl	r1, r1, r0, lsl #16
    25b4:	01184001 	tsteq	r8, r1
    25b8:	d0910351 	addsle	r0, r1, r1, asr r3
    25bc:	5201187e 	andpl	r1, r1, #8257536	; 0x7e0000
    25c0:	18007902 	stmdane	r0, {r1, r8, fp, ip, sp, lr}
    25c4:	02007d02 	andeq	r7, r0, #128	; 0x80
    25c8:	17000076 	smlsdxne	r0, r6, r0, r0
    25cc:	000092e4 	andeq	r9, r0, r4, ror #5
    25d0:	00000c52 	andeq	r0, r0, r2, asr ip
    25d4:	000003c6 	andeq	r0, r0, r6, asr #7
    25d8:	03500118 	cmpeq	r0, #6
    25dc:	187dd091 	ldmdane	sp!, {r0, r4, r7, ip, lr, pc}^
    25e0:	91035101 	tstls	r3, r1, lsl #2
    25e4:	17007ed2 			; <UNDEFINED> instruction: 0x17007ed2
    25e8:	00009528 	andeq	r9, r0, r8, lsr #10
    25ec:	00000c3a 	andeq	r0, r0, sl, lsr ip
    25f0:	000003e8 	andeq	r0, r0, r8, ror #7
    25f4:	02500118 	subseq	r0, r0, #6
    25f8:	01180076 	tsteq	r8, r6, ror r0
    25fc:	c0030551 	andgt	r0, r3, r1, asr r5
    2600:	180000a7 	stmdane	r0, {r0, r1, r2, r5, r7}
    2604:	33015201 	movwcc	r5, #4609	; 0x1201
    2608:	954c1700 	strbls	r1, [ip, #-1792]	; 0xfffff900
    260c:	0aa40000 	beq	fe902614 <__bss_end__+0xfe8f770c>
    2610:	04150000 	ldreq	r0, [r5], #-0
    2614:	01180000 	tsteq	r8, r0
    2618:	183a0150 	ldmdane	sl!, {r4, r6, r8}
    261c:	91035101 	tstls	r3, r1, lsl #2
    2620:	01187dd0 			; <UNDEFINED> instruction: 0x01187dd0
    2624:	007b0252 	rsbseq	r0, fp, r2, asr r2
    2628:	02530118 	subseq	r0, r3, #6
    262c:	02180075 	andseq	r0, r8, #117, 0	; 0x75
    2630:	7602007d 			; <UNDEFINED> instruction: 0x7602007d
    2634:	6c170000 	ldcvs	0, cr0, [r7], {-0}
    2638:	a4000095 	strge	r0, [r0], #-149	; 0xffffff6b
    263c:	3c00000a 	stccc	0, cr0, [r0], {10}
    2640:	18000004 	stmdane	r0, {r2}
    2644:	3a015001 	bcc	56650 <__bss_end__+0x4b748>
    2648:	03510118 	cmpeq	r1, #6
    264c:	187ed091 	ldmdane	lr!, {r0, r4, r7, ip, lr, pc}^
    2650:	79025201 	stmdbvc	r2, {r0, r9, ip, lr}
    2654:	7d021800 	stcvc	8, cr1, [r2, #-0]
    2658:	00760200 	rsbseq	r0, r6, r0, lsl #4
    265c:	95781700 	ldrbls	r1, [r8, #-1792]!	; 0xfffff900
    2660:	0c5e0000 	mraeq	r0, lr, acc0
    2664:	045a0000 	ldrbeq	r0, [sl], #-0
    2668:	01180000 	tsteq	r8, r0
    266c:	d0910350 	addsle	r0, r1, r0, asr r3
    2670:	5101187d 	tstpl	r1, sp, ror r8
    2674:	a5d00305 	ldrbge	r0, [r0, #773]	; 0x305
    2678:	17000000 	strne	r0, [r0, -r0]
    267c:	0000958c 	andeq	r9, r0, ip, lsl #11
    2680:	00000c6a 	andeq	r0, r0, sl, ror #24
    2684:	00000476 	andeq	r0, r0, r6, ror r4
    2688:	03500118 	cmpeq	r0, #6
    268c:	187dd091 	ldmdane	sp!, {r0, r4, r7, ip, lr, pc}^
    2690:	91035101 	tstls	r3, r1, lsl #2
    2694:	19007ed0 	stmdbne	r0, {r4, r6, r7, r9, sl, fp, ip, sp, lr}
    2698:	00009598 	muleq	r0, r8, r5
    269c:	00000c52 	andeq	r0, r0, r2, asr ip
    26a0:	00965c17 	addseq	r5, r6, r7, lsl ip
    26a4:	000c4600 	andeq	r4, ip, r0, lsl #12
    26a8:	0004a800 	andeq	sl, r4, r0, lsl #16
    26ac:	50011800 	andpl	r1, r1, r0, lsl #16
    26b0:	a2080305 	andge	r0, r8, #335544320	; 0x14000000
    26b4:	01180000 	tsteq	r8, r0
    26b8:	60030551 	andvs	r0, r3, r1, asr r5
    26bc:	180000a7 	stmdane	r0, {r0, r1, r2, r5, r7}
    26c0:	03055201 	movweq	r5, #20993	; 0x5201
    26c4:	0000a8b8 			; <UNDEFINED> instruction: 0x0000a8b8
    26c8:	96601900 	strbtls	r1, [r0], -r0, lsl #18
    26cc:	0c760000 	ldcleq	0, cr0, [r6], #-0
    26d0:	78170000 	ldmdavc	r7, {}	; <UNPREDICTABLE>
    26d4:	46000096 			; <UNDEFINED> instruction: 0x46000096
    26d8:	e700000c 	str	r0, [r0, -ip]
    26dc:	18000004 	stmdane	r0, {r2}
    26e0:	03055001 	movweq	r5, #20481	; 0x5001
    26e4:	0000a800 	andeq	sl, r0, r0, lsl #16
    26e8:	05510118 	ldrbeq	r0, [r1, #-280]	; 0xfffffee8
    26ec:	00a76003 	adceq	r6, r7, r3
    26f0:	52011800 	andpl	r1, r1, #0, 16
    26f4:	a8b80305 	ldmge	r8!, {r0, r2, r8, r9}
    26f8:	01180000 	tsteq	r8, r0
    26fc:	b6080253 			; <UNDEFINED> instruction: 0xb6080253
    2700:	007d0218 	rsbseq	r0, sp, r8, lsl r2
    2704:	00007602 	andeq	r7, r0, r2, lsl #12
    2708:	00967c19 	addseq	r7, r6, r9, lsl ip
    270c:	000c7600 	andeq	r7, ip, r0, lsl #12
    2710:	e31a0000 	tst	sl, #0, 0
    2714:	2c000009 	stccs	0, cr0, [r0], {9}
    2718:	04000091 	streq	r0, [r0], #-145	; 0xffffff6f
    271c:	0002c800 	andeq	ip, r2, r0, lsl #16
    2720:	0a940100 	beq	fe502b28 <__bss_end__+0xfe4f7c20>
    2724:	00000515 	andeq	r0, r0, r5, lsl r5
    2728:	0009f41b 	andeq	pc, r9, fp, lsl r4	; <UNPREDICTABLE>
    272c:	00131600 	andseq	r1, r3, r0, lsl #12
    2730:	00131200 	andseq	r1, r3, r0, lsl #4
    2734:	951a0000 	ldrls	r0, [sl, #-0]
    2738:	14000008 	strne	r0, [r0], #-8
    273c:	01000093 	swpeq	r0, r3, [r0]	; <UNPREDICTABLE>
    2740:	0002e800 	andeq	lr, r2, r0, lsl #16
    2744:	09dc0100 	ldmibeq	ip, {r8}^
    2748:	0000064b 	andeq	r0, r0, fp, asr #12
    274c:	0008be1b 	andeq	fp, r8, fp, lsl lr
    2750:	00134400 	andseq	r4, r3, r0, lsl #8
    2754:	00133e00 	andseq	r3, r3, r0, lsl #28
    2758:	08e01b00 	stmiaeq	r0!, {r8, r9, fp, ip}^
    275c:	13790000 	cmnne	r9, #0, 0
    2760:	13730000 	cmnne	r3, #0, 0
    2764:	d41b0000 	ldrle	r0, [fp], #-0
    2768:	ab000008 	blge	2790 <__code_start__-0x5870>
    276c:	a5000013 	strge	r0, [r0, #-19]	; 0xffffffed
    2770:	1c000013 	stcne	0, cr0, [r0], {19}
    2774:	000008c8 	andeq	r0, r0, r8, asr #17
    2778:	0008b21b 	andeq	fp, r8, fp, lsl r2
    277c:	0013dc00 	andseq	sp, r3, r0, lsl #24
    2780:	0013d400 	andseq	sp, r3, r0, lsl #8
    2784:	08a61b00 	stmiaeq	r6!, {r8, r9, fp, ip}
    2788:	141f0000 	ldrne	r0, [pc], #-0	; 2790 <__code_start__-0x5870>
    278c:	14190000 	ldrne	r0, [r9], #-0
    2790:	e8130000 	ldmda	r3, {}	; <UNPREDICTABLE>
    2794:	1d000002 	stcne	0, cr0, [r0, #-8]
    2798:	000008ec 	andeq	r0, r0, ip, ror #17
    279c:	7ed89103 	atnvce	f1, f3
    27a0:	0008f81e 	andeq	pc, r8, lr, lsl r8	; <UNPREDICTABLE>
    27a4:	00145900 	andseq	r5, r4, r0, lsl #18
    27a8:	00144b00 	andseq	r4, r4, r0, lsl #22
    27ac:	09021f00 	stmdbeq	r2, {r8, r9, sl, fp, ip}
    27b0:	a31a0000 	tstge	sl, #0, 0
    27b4:	20000009 	andcs	r0, r0, r9
    27b8:	04000093 	streq	r0, [r0], #-147	; 0xffffff6d
    27bc:	00031800 	andeq	r1, r3, r0, lsl #16
    27c0:	097c0100 	ldmdbeq	ip!, {r8}^
    27c4:	000005e2 	andeq	r0, r0, r2, ror #11
    27c8:	0009ca1b 	andeq	ip, r9, fp, lsl sl
    27cc:	0014c300 	andseq	ip, r4, r0, lsl #6
    27d0:	0014bd00 	andseq	fp, r4, r0, lsl #26
    27d4:	09be1b00 	ldmibeq	lr!, {r8, r9, fp, ip}
    27d8:	14f80000 	ldrbtne	r0, [r8], #0
    27dc:	14ec0000 	strbtne	r0, [ip], #0
    27e0:	b41b0000 	ldrlt	r0, [fp], #-0
    27e4:	5e000009 	cdppl	0, 0, cr0, cr0, cr9, {0}
    27e8:	4e000015 	mcrmi	0, 0, r0, cr0, cr5, {0}
    27ec:	13000015 	movwne	r0, #21
    27f0:	00000318 	andeq	r0, r0, r8, lsl r3
    27f4:	0009d61e 	andeq	sp, r9, lr, lsl r6
    27f8:	0015db00 	andseq	sp, r5, r0, lsl #22
    27fc:	0015cd00 	andseq	ip, r5, r0, lsl #26
    2800:	20000000 	andcs	r0, r0, r0
    2804:	0000094f 	andeq	r0, r0, pc, asr #18
    2808:	000093e8 	andeq	r9, r0, r8, ror #7
    280c:	03480002 	movteq	r0, #32770	; 0x8002
    2810:	7c010000 	stcvc	0, cr0, [r1], {-0}
    2814:	09801b09 	stmibeq	r0, {r0, r3, r8, r9, fp, ip}
    2818:	163b0000 	ldrtne	r0, [fp], -r0
    281c:	16350000 	ldrtne	r0, [r5], -r0
    2820:	761b0000 	ldrvc	r0, [fp], -r0
    2824:	71000009 	tstvc	r0, r9
    2828:	67000016 	smladvs	r0, r6, r0, r0
    282c:	1b000016 	blne	288c <__code_start__-0x5774>
    2830:	0000096c 	andeq	r0, r0, ip, ror #18
    2834:	000016c0 	andeq	r1, r0, r0, asr #13
    2838:	000016bc 			; <UNDEFINED> instruction: 0x000016bc
    283c:	0009601b 	andeq	r6, r9, fp, lsl r0
    2840:	0016f000 	andseq	pc, r6, r0
    2844:	0016e200 	andseq	lr, r6, r0, lsl #4
    2848:	03481300 	movteq	r1, #33536	; 0x8300
    284c:	8c1e0000 	ldchi	0, cr0, [lr], {-0}
    2850:	55000009 	strpl	r0, [r0, #-9]
    2854:	53000017 	movwpl	r0, #23
    2858:	1e000017 	mcrne	0, 0, r0, cr0, cr7, {0}
    285c:	00000998 	muleq	r0, r8, r9
    2860:	0000176f 	andeq	r1, r0, pc, ror #14
    2864:	00001769 	andeq	r1, r0, r9, ror #14
    2868:	00000000 	andeq	r0, r0, r0
    286c:	0008951a 	andeq	r9, r8, sl, lsl r5
    2870:	00942400 	addseq	r2, r4, r0, lsl #8
    2874:	78000000 	stmdavc	r0, {}	; <UNPREDICTABLE>
    2878:	01000003 	tsteq	r0, r3
    287c:	078909d6 			; <UNDEFINED> instruction: 0x078909d6
    2880:	be1b0000 	cdplt	0, 1, cr0, cr11, cr0, {0}
    2884:	a2000008 	andge	r0, r0, #8, 0
    2888:	9e000017 	mcrls	0, 0, r0, cr0, cr7, {0}
    288c:	1b000017 	blne	28f0 <__code_start__-0x5710>
    2890:	000008e0 	andeq	r0, r0, r0, ror #17
    2894:	000017c8 	andeq	r1, r0, r8, asr #15
    2898:	000017c4 	andeq	r1, r0, r4, asr #15
    289c:	0008d41b 	andeq	sp, r8, fp, lsl r4
    28a0:	0017ec00 	andseq	lr, r7, r0, lsl #24
    28a4:	0017e800 	andseq	lr, r7, r0, lsl #16
    28a8:	08c81c00 	stmiaeq	r8, {sl, fp, ip}^
    28ac:	b21b0000 	andslt	r0, fp, #0, 0
    28b0:	10000008 	andne	r0, r0, r8
    28b4:	0a000018 	beq	291c <__code_start__-0x56e4>
    28b8:	1b000018 	blne	2920 <__code_start__-0x56e0>
    28bc:	000008a6 	andeq	r0, r0, r6, lsr #17
    28c0:	00001843 	andeq	r1, r0, r3, asr #16
    28c4:	0000183f 	andeq	r1, r0, pc, lsr r8
    28c8:	00037813 	andeq	r7, r3, r3, lsl r8
    28cc:	08ec1d00 	stmiaeq	ip!, {r8, sl, fp, ip}^
    28d0:	91030000 	mrsls	r0, (UNDEF: 3)
    28d4:	f81e7ed8 			; <UNDEFINED> instruction: 0xf81e7ed8
    28d8:	6d000008 	stcvs	0, cr0, [r0, #-32]	; 0xffffffe0
    28dc:	63000018 	movwvs	r0, #24
    28e0:	1e000018 	mcrne	0, 0, r0, cr0, cr8, {0}
    28e4:	00000902 	andeq	r0, r0, r2, lsl #18
    28e8:	000018b2 			; <UNDEFINED> instruction: 0x000018b2
    28ec:	000018ae 	andeq	r1, r0, lr, lsr #17
    28f0:	0009a31a 	andeq	sl, r9, sl, lsl r3
    28f4:	00944000 	addseq	r4, r4, r0
    28f8:	98000300 	stmdals	r0, {r8, r9}
    28fc:	01000003 	tsteq	r0, r3
    2900:	0720097c 			; <UNDEFINED> instruction: 0x0720097c
    2904:	ca1b0000 	bgt	6c290c <__bss_end__+0x6b7a04>
    2908:	d4000009 	strle	r0, [r0], #-9
    290c:	d0000018 	andle	r0, r0, r8, lsl r0
    2910:	1b000018 	blne	2978 <__code_start__-0x5688>
    2914:	000009be 			; <UNDEFINED> instruction: 0x000009be
    2918:	000018f6 	strdeq	r1, [r0], -r6
    291c:	000018f2 	strdeq	r1, [r0], -r2
    2920:	0009b41b 	andeq	fp, r9, fp, lsl r4
    2924:	00192000 	andseq	r2, r9, r0
    2928:	00191400 	andseq	r1, r9, r0, lsl #8
    292c:	03981300 	orrseq	r1, r8, #0, 6
    2930:	d61e0000 	ldrle	r0, [lr], -r0
    2934:	7c000009 	stcvc	0, cr0, [r0], {9}
    2938:	70000019 	andvc	r0, r0, r9, lsl r0
    293c:	00000019 	andeq	r0, r0, r9, lsl r0
    2940:	094f2000 	stmdbeq	pc, {sp}^	; <UNPREDICTABLE>
    2944:	94c80000 	strbls	r0, [r8], #0
    2948:	00020000 	andeq	r0, r2, r0
    294c:	000003c0 	andeq	r0, r0, r0, asr #7
    2950:	1b097c01 	blne	26195c <__bss_end__+0x256a54>
    2954:	00000980 	andeq	r0, r0, r0, lsl #19
    2958:	000019cc 	andeq	r1, r0, ip, asr #19
    295c:	000019c8 	andeq	r1, r0, r8, asr #19
    2960:	0009761b 	andeq	r7, r9, fp, lsl r6
    2964:	0019f400 	andseq	pc, r9, r0, lsl #8
    2968:	0019ea00 	andseq	lr, r9, r0, lsl #20
    296c:	096c1b00 	stmdbeq	ip!, {r8, r9, fp, ip}^
    2970:	1a400000 	bne	1002978 <__bss_end__+0xff7a70>
    2974:	1a3c0000 	bne	f0297c <__bss_end__+0xef7a74>
    2978:	601b0000 	andsvs	r0, fp, r0
    297c:	6e000009 	cdpvs	0, 0, cr0, cr0, cr9, {0}
    2980:	6200001a 	andvs	r0, r0, #26, 0
    2984:	1300001a 	movwne	r0, #26
    2988:	000003c0 	andeq	r0, r0, r0, asr #7
    298c:	00098c1e 	andeq	r8, r9, lr, lsl ip
    2990:	001ac800 	andseq	ip, sl, r0, lsl #16
    2994:	001ac400 	andseq	ip, sl, r0, lsl #8
    2998:	09981e00 	ldmibeq	r8, {r9, sl, fp, ip}
    299c:	1aee0000 	bne	ffb829a4 <__bss_end__+0xffb77a9c>
    29a0:	1aea0000 	bne	ffa829a8 <__bss_end__+0xffa77aa0>
    29a4:	00000000 	andeq	r0, r0, r0
    29a8:	f4170000 			; <UNDEFINED> instruction: 0xf4170000
    29ac:	a4000091 	strge	r0, [r0], #-145	; 0xffffff6f
    29b0:	af00000a 	svcge	0x0000000a
    29b4:	18000007 	stmdane	r0, {r0, r1, r2}
    29b8:	40015001 	andmi	r5, r1, r1
    29bc:	03510118 	cmpeq	r1, #6
    29c0:	187dd091 	ldmdane	sp!, {r0, r4, r7, ip, lr, pc}^
    29c4:	75025301 	strvc	r5, [r2, #-769]	; 0xfffffcff
    29c8:	7d021800 	stcvc	8, cr1, [r2, #-0]
    29cc:	00300100 	eorseq	r0, r0, r0, lsl #2
    29d0:	00930417 	addseq	r0, r3, r7, lsl r4
    29d4:	000aa400 	andeq	sl, sl, r0, lsl #8
    29d8:	0007cf00 	andeq	ip, r7, r0, lsl #30
    29dc:	50011800 	andpl	r1, r1, r0, lsl #16
    29e0:	01183a01 	tsteq	r8, r1, lsl #20
    29e4:	d0910351 	addsle	r0, r1, r1, asr r3
    29e8:	5301187d 	movwpl	r1, #6269	; 0x187d
    29ec:	00007502 	andeq	r7, r0, r2, lsl #10
    29f0:	0095e817 	addseq	lr, r5, r7, lsl r8
    29f4:	000c4600 	andeq	r4, ip, r0, lsl #12
    29f8:	0007e600 	andeq	lr, r7, r0, lsl #12
    29fc:	50011800 	andpl	r1, r1, r0, lsl #16
    2a00:	a8500305 	ldmdage	r0, {r0, r2, r8, r9}^
    2a04:	21000000 	mrscs	r0, (UNDEF: 0)
    2a08:	000095f8 	strdeq	r9, [r0], -r8
    2a0c:	000007f8 	strdeq	r0, [r0], -r8
    2a10:	04500118 	ldrbeq	r0, [r0], #-280	; 0xfffffee8
    2a14:	067dc891 			; <UNDEFINED> instruction: 0x067dc891
    2a18:	960c1700 	strls	r1, [ip], -r0, lsl #14
    2a1c:	0c460000 	mareq	acc0, r0, r6
    2a20:	08270000 	stmdaeq	r7!, {}	; <UNPREDICTABLE>
    2a24:	01180000 	tsteq	r8, r0
    2a28:	80030550 	andhi	r0, r3, r0, asr r5
    2a2c:	180000a8 	stmdane	r0, {r3, r5, r7}
    2a30:	03055101 	movweq	r5, #20737	; 0x5101
    2a34:	0000a760 	andeq	sl, r0, r0, ror #14
    2a38:	05520118 	ldrbeq	r0, [r2, #-280]	; 0xfffffee8
    2a3c:	00a8b803 	adceq	fp, r8, r3, lsl #16
    2a40:	53011800 	movwpl	r1, #6144	; 0x1800
    2a44:	00e20802 	rsceq	r0, r2, r2, lsl #16
    2a48:	00961019 	addseq	r1, r6, r9, lsl r0
    2a4c:	000c7600 	andeq	r7, ip, r0, lsl #12
    2a50:	96241700 	strtls	r1, [r4], -r0, lsl #14
    2a54:	0c460000 	mareq	acc0, r0, r6
    2a58:	085f0000 	ldmdaeq	pc, {}^	; <UNPREDICTABLE>
    2a5c:	01180000 	tsteq	r8, r0
    2a60:	28030550 	stmdacs	r3, {r4, r6, r8, sl}
    2a64:	180000a8 	stmdane	r0, {r3, r5, r7}
    2a68:	03055101 	movweq	r5, #20737	; 0x5101
    2a6c:	0000a760 	andeq	sl, r0, r0, ror #14
    2a70:	05520118 	ldrbeq	r0, [r2, #-280]	; 0xfffffee8
    2a74:	00a8b803 	adceq	fp, r8, r3, lsl #16
    2a78:	53011800 	movwpl	r1, #6144	; 0x1800
    2a7c:	00be0802 	adcseq	r0, lr, r2, lsl #16
    2a80:	00962819 	addseq	r2, r6, r9, lsl r8
    2a84:	000c7600 	andeq	r7, ip, r0, lsl #12
    2a88:	08000000 	stmdaeq	r0, {}	; <UNPREDICTABLE>
    2a8c:	0000b904 	andeq	fp, r0, r4, lsl #18
    2a90:	00c02200 	sbceq	r2, r0, r0, lsl #4
    2a94:	08800000 	stmeq	r0, {}	; <UNPREDICTABLE>
    2a98:	2c230000 	stccs	0, cr0, [r3], #-0
    2a9c:	09000000 	stmdbeq	r0, {}	; <UNPREDICTABLE>
    2aa0:	08700900 	ldmdaeq	r0!, {r8, fp}^
    2aa4:	b9220000 	stmdblt	r2!, {}	; <UNPREDICTABLE>
    2aa8:	95000000 	strls	r0, [r0, #-0]
    2aac:	23000008 	movwcs	r0, #8
    2ab0:	0000002c 	andeq	r0, r0, ip, lsr #32
    2ab4:	a424007f 	strtge	r0, [r4], #-127	; 0xffffff81
    2ab8:	01000006 	tsteq	r0, r6
    2abc:	086a0149 	stmdaeq	sl!, {r0, r3, r6, r8}^
    2ac0:	2a010000 	bcs	42ac8 <__bss_end__+0x37bc0>
    2ac4:	25000009 	strcs	r0, [r0, #-9]
    2ac8:	00000431 	andeq	r0, r0, r1, lsr r4
    2acc:	2c0f4901 			; <UNDEFINED> instruction: 0x2c0f4901
    2ad0:	26000000 	strcs	r0, [r0], -r0
    2ad4:	00747364 	rsbseq	r7, r4, r4, ror #6
    2ad8:	6a1b4901 	bvs	6d4ee4 <__bss_end__+0x6c9fdc>
    2adc:	26000008 	strcs	r0, [r0], -r8
    2ae0:	4901006e 	stmdbmi	r1, {r1, r2, r3, r5, r6}
    2ae4:	00003324 	andeq	r3, r0, r4, lsr #6
    2ae8:	61762600 	cmnvs	r6, r0, lsl #12
    2aec:	4901006c 	stmdbmi	r1, {r2, r3, r5, r6}
    2af0:	0000332b 	andeq	r3, r0, fp, lsr #6
    2af4:	064d2500 	strbeq	r2, [sp], -r0, lsl #10
    2af8:	49010000 	stmdbmi	r1, {}	; <UNPREDICTABLE>
    2afc:	00003334 	andeq	r3, r0, r4, lsr r3
    2b00:	06da2500 	ldrbeq	r2, [sl], r0, lsl #10
    2b04:	49010000 	stmdbmi	r1, {}	; <UNPREDICTABLE>
    2b08:	0000333f 	andeq	r3, r0, pc, lsr r3
    2b0c:	75622700 	strbvc	r2, [r2, #-1792]!	; 0xfffff900
    2b10:	4e010066 	cdpmi	0, 0, cr0, cr1, cr6, {3}
    2b14:	00092a07 	andeq	r2, r9, r7, lsl #20
    2b18:	00702700 	rsbseq	r2, r0, r0, lsl #14
    2b1c:	6a114e01 	bvs	456328 <__bss_end__+0x44b420>
    2b20:	27000008 	strcs	r0, [r0, -r8]
    2b24:	4f010075 	svcmi	0x00010075
    2b28:	00002c0b 	andeq	r2, r0, fp, lsl #24
    2b2c:	00901200 	addseq	r1, r0, r0, lsl #4
    2b30:	094a0000 	stmdbeq	sl, {}^	; <UNPREDICTABLE>
    2b34:	03050000 	movweq	r0, #20480	; 0x5000
    2b38:	0000a8a0 	andeq	sl, r0, r0, lsr #17
    2b3c:	06912928 	ldreq	r2, [r1], r8, lsr #18
    2b40:	54010000 	strpl	r0, [r1], #-0
    2b44:	00002c0d 	andeq	r2, r0, sp, lsl #24
    2b48:	22000000 	andcs	r0, r0, #0, 0
    2b4c:	000000b9 	strheq	r0, [r0], -r9
    2b50:	0000093a 	andeq	r0, r0, sl, lsr r9
    2b54:	00002c23 	andeq	r2, r0, r3, lsr #24
    2b58:	22003f00 	andcs	r3, r0, #0, 30
    2b5c:	000000c0 	andeq	r0, r0, r0, asr #1
    2b60:	0000094a 	andeq	r0, r0, sl, asr #18
    2b64:	00002c23 	andeq	r2, r0, r3, lsr #24
    2b68:	09000400 	stmdbeq	r0, {sl}
    2b6c:	0000093a 	andeq	r0, r0, sl, lsr r9
    2b70:	0006a924 	andeq	sl, r6, r4, lsr #18
    2b74:	0e380100 	rsfeqe	f0, f0, f0
    2b78:	0000086a 	andeq	r0, r0, sl, ror #16
    2b7c:	0009a301 	andeq	sl, r9, r1, lsl #6
    2b80:	73642600 	cmnvc	r4, #0, 12
    2b84:	38010074 	stmdacc	r1, {r2, r4, r5, r6}
    2b88:	00086a1c 	andeq	r6, r8, ip, lsl sl
    2b8c:	006e2600 	rsbeq	r2, lr, r0, lsl #12
    2b90:	33253801 			; <UNDEFINED> instruction: 0x33253801
    2b94:	26000000 	strcs	r0, [r0], -r0
    2b98:	38010070 	stmdacc	r1, {r4, r5, r6}
    2b9c:	00086a2e 	andeq	r6, r8, lr, lsr #20
    2ba0:	0a742500 	beq	1d0bfa8 <__bss_end__+0x1d010a0>
    2ba4:	38010000 	stmdacc	r1, {}	; <UNPREDICTABLE>
    2ba8:	00086a37 	andeq	r6, r8, r7, lsr sl
    2bac:	656c2700 	strbvs	r2, [ip, #-1792]!	; 0xfffff900
    2bb0:	3a01006e 	bcc	42d70 <__bss_end__+0x37e68>
    2bb4:	00003306 	andeq	r3, r0, r6, lsl #6
    2bb8:	00732700 	rsbseq	r2, r3, r0, lsl #14
    2bbc:	6a083e01 	bvs	2123c8 <__bss_end__+0x2074c0>
    2bc0:	00000008 	andeq	r0, r0, r8
    2bc4:	6461702a 	strbtvs	r7, [r1], #-42	; 0xffffffd6
    2bc8:	0e2e0100 	sufeqe	f0, f6, f0
    2bcc:	0000086a 	andeq	r0, r0, sl, ror #16
    2bd0:	0009e301 	andeq	lr, r9, r1, lsl #6
    2bd4:	00702600 	rsbseq	r2, r0, r0, lsl #12
    2bd8:	6a182e01 	bvs	60e3e4 <__bss_end__+0x6034dc>
    2bdc:	25000008 	strcs	r0, [r0, #-8]
    2be0:	00000431 	andeq	r0, r0, r1, lsr r4
    2be4:	6a222e01 	bvs	88e3f0 <__bss_end__+0x8834e8>
    2be8:	25000008 	strcs	r0, [r0, #-8]
    2bec:	0000064d 	andeq	r0, r0, sp, asr #12
    2bf0:	332c2e01 			; <UNDEFINED> instruction: 0x332c2e01
    2bf4:	27000000 	strcs	r0, [r0, -r0]
    2bf8:	006e656c 	rsbeq	r6, lr, ip, ror #10
    2bfc:	33062f01 	movwcc	r2, #28417	; 0x6f01
    2c00:	00000000 	andeq	r0, r0, r0
    2c04:	00061a24 	andeq	r1, r6, r4, lsr #20
    2c08:	0c270100 	stfeqs	f0, [r7], #-0
    2c0c:	00000033 	andeq	r0, r0, r3, lsr r0
    2c10:	0009ff01 	andeq	pc, r9, r1, lsl #30
    2c14:	00632600 	rsbeq	r2, r3, r0, lsl #12
    2c18:	33182701 	tstcc	r8, #262144	; 0x40000
    2c1c:	00000000 	andeq	r0, r0, r0
    2c20:	00066a2b 	andeq	r6, r6, fp, lsr #20
    2c24:	061f0100 	ldreq	r0, [pc], -r0, lsl #2
    2c28:	00009040 	andeq	r9, r0, r0, asr #32
    2c2c:	00000060 	andeq	r0, r0, r0, rrx
    2c30:	0a8f9c01 	beq	fe3e9c3c <__bss_end__+0xfe3ded34>
    2c34:	530f0000 	movwpl	r0, #61440	; 0xf000
    2c38:	01000006 	tsteq	r0, r6
    2c3c:	009e1b1f 	addseq	r1, lr, pc, lsl fp
    2c40:	1b130000 	blne	4c2c48 <__bss_end__+0x4b7d40>
    2c44:	1b0f0000 	blne	3c2c4c <__bss_end__+0x3b7d44>
    2c48:	b80f0000 	stmdalt	pc, {}	; <UNPREDICTABLE>
    2c4c:	01000006 	tsteq	r0, r6
    2c50:	00d1301f 	sbcseq	r3, r1, pc, lsl r0
    2c54:	1b380000 	blne	e02c5c <__bss_end__+0xdf7d54>
    2c58:	1b340000 	blne	d02c60 <__bss_end__+0xcf7d58>
    2c5c:	90120000 	andsls	r0, r2, r0
    2c60:	9f000000 	svcls	0x00000000
    2c64:	0500000a 	streq	r0, [r0, #-10]
    2c68:	00a8a803 	adceq	sl, r8, r3, lsl #16
    2c6c:	90841700 	addls	r1, r4, r0, lsl #14
    2c70:	0c460000 	mareq	acc0, r0, r6
    2c74:	0a850000 	beq	fe142c7c <__bss_end__+0xfe137d74>
    2c78:	01180000 	tsteq	r8, r0
    2c7c:	08030550 	stmdaeq	r3, {r4, r6, r8, sl}
    2c80:	180000a2 	stmdane	r0, {r1, r5, r7}
    2c84:	03055101 	movweq	r5, #20737	; 0x5101
    2c88:	0000a760 	andeq	sl, r0, r0, ror #14
    2c8c:	05520118 	ldrbeq	r0, [r2, #-280]	; 0xfffffee8
    2c90:	00a8a803 	adceq	sl, r8, r3, lsl #16
    2c94:	53011800 	movwpl	r1, #6144	; 0x1800
    2c98:	18200802 	stmdane	r0!, {r1, fp}
    2c9c:	05007d02 	streq	r7, [r0, #-3330]	; 0xfffff2fe
    2ca0:	00a79803 	adceq	r9, r7, r3, lsl #16
    2ca4:	88190000 	ldmdahi	r9, {}	; <UNPREDICTABLE>
    2ca8:	76000090 			; <UNDEFINED> instruction: 0x76000090
    2cac:	0000000c 	andeq	r0, r0, ip
    2cb0:	0000c022 	andeq	ip, r0, r2, lsr #32
    2cb4:	000a9f00 	andeq	r9, sl, r0, lsl #30
    2cb8:	002c2300 	eoreq	r2, ip, r0, lsl #6
    2cbc:	000e0000 	andeq	r0, lr, r0
    2cc0:	000a8f09 	andeq	r8, sl, r9, lsl #30
    2cc4:	08952c00 	ldmeq	r5, {sl, fp, sp}
    2cc8:	8d180000 	ldchi	0, cr0, [r8, #-0]
    2ccc:	03280000 			; <UNDEFINED> instruction: 0x03280000
    2cd0:	9c010000 	stcls	0, cr0, [r1], {-0}
    2cd4:	00000c3a 	andeq	r0, r0, sl, lsr ip
    2cd8:	0008a61b 	andeq	sl, r8, fp, lsl r6
    2cdc:	001b7100 	andseq	r7, fp, r0, lsl #2
    2ce0:	001b5900 	andseq	r5, fp, r0, lsl #18
    2ce4:	08b21b00 	ldmeq	r2!, {r8, r9, fp, ip}
    2ce8:	1c1b0000 	ldcne	0, cr0, [fp], {-0}
    2cec:	1c130000 	ldcne	0, cr0, [r3], {-0}
    2cf0:	c81b0000 	ldmdagt	fp, {}	; <UNPREDICTABLE>
    2cf4:	72000008 	andvc	r0, r0, #8, 0
    2cf8:	5200001c 	andpl	r0, r0, #28, 0
    2cfc:	1b00001c 	blne	2d74 <__code_start__-0x528c>
    2d00:	000008d4 	ldrdeq	r0, [r0], -r4
    2d04:	00001d48 	andeq	r1, r0, r8, asr #26
    2d08:	00001d3a 	andeq	r1, r0, sl, lsr sp
    2d0c:	0008e02d 	andeq	lr, r8, sp, lsr #32
    2d10:	00910200 	addseq	r0, r1, r0, lsl #4
    2d14:	0008ec1d 	andeq	lr, r8, sp, lsl ip
    2d18:	a8910300 	ldmge	r1, {r8, r9}
    2d1c:	08f81e7f 	ldmeq	r8!, {r0, r1, r2, r3, r4, r5, r6, r9, sl, fp, ip}^
    2d20:	1ddc0000 	ldclne	0, cr0, [ip]
    2d24:	1da80000 	stcne	0, cr0, [r8]
    2d28:	021e0000 	andseq	r0, lr, #0, 0
    2d2c:	43000009 	movwmi	r0, #9
    2d30:	2100001f 	tstcs	r0, pc, lsl r0
    2d34:	2e00001f 	mcrcs	0, 0, r0, cr0, cr15, {0}
    2d38:	000008be 			; <UNDEFINED> instruction: 0x000008be
    2d3c:	09a31a80 	stmibeq	r3!, {r7, r9, fp, ip}
    2d40:	8dbc0000 	ldchi	0, cr0, [ip]
    2d44:	00040000 	andeq	r0, r4, r0
    2d48:	00000210 	andeq	r0, r0, r0, lsl r2
    2d4c:	6d097c01 	stcvs	12, cr7, [r9, #-4]
    2d50:	1b00000b 	blne	2d84 <__code_start__-0x527c>
    2d54:	000009ca 	andeq	r0, r0, sl, asr #19
    2d58:	0000202b 	andeq	r2, r0, fp, lsr #32
    2d5c:	00002021 	andeq	r2, r0, r1, lsr #32
    2d60:	0009be1b 	andeq	fp, r9, fp, lsl lr
    2d64:	00207f00 	eoreq	r7, r0, r0, lsl #30
    2d68:	00206f00 	eoreq	r6, r0, r0, lsl #30
    2d6c:	09b41b00 	ldmibeq	r4!, {r8, r9, fp, ip}
    2d70:	20ff0000 	rscscs	r0, pc, r0
    2d74:	20eb0000 	rsccs	r0, fp, r0
    2d78:	10130000 	andsne	r0, r3, r0
    2d7c:	1e000002 	cdpne	0, 0, cr0, cr0, cr2, {0}
    2d80:	000009d6 	ldrdeq	r0, [r0], -r6
    2d84:	00002191 	muleq	r0, r1, r1
    2d88:	00002181 	andeq	r2, r0, r1, lsl #3
    2d8c:	4f1a0000 	svcmi	0x001a0000
    2d90:	74000009 	strvc	r0, [r0], #-9
    2d94:	0200008e 	andeq	r0, r0, #142, 0	; 0x8e
    2d98:	00025800 	andeq	r5, r2, r0, lsl #16
    2d9c:	097c0100 	ldmdbeq	ip!, {r8}^
    2da0:	00000bd8 	ldrdeq	r0, [r0], -r8
    2da4:	0009801b 	andeq	r8, r9, fp, lsl r0
    2da8:	0021fd00 	eoreq	pc, r1, r0, lsl #26
    2dac:	0021f500 	eoreq	pc, r1, r0, lsl #10
    2db0:	09761b00 	ldmdbeq	r6!, {r8, r9, fp, ip}^
    2db4:	223c0000 	eorscs	r0, ip, #0, 0
    2db8:	22340000 	eorscs	r0, r4, #0, 0
    2dbc:	6c1b0000 	ldcvs	0, cr0, [fp], {-0}
    2dc0:	7b000009 	blvc	2dec <__code_start__-0x5214>
    2dc4:	77000022 	strvc	r0, [r0, -r2, lsr #32]
    2dc8:	1b000022 	blne	2e58 <__code_start__-0x51a8>
    2dcc:	00000960 	andeq	r0, r0, r0, ror #18
    2dd0:	000022ab 	andeq	r2, r0, fp, lsr #5
    2dd4:	0000229d 	muleq	r0, sp, r2
    2dd8:	00025813 	andeq	r5, r2, r3, lsl r8
    2ddc:	098c1e00 	stmibeq	ip, {r9, sl, fp, ip}
    2de0:	23100000 	tstcs	r0, #0, 0
    2de4:	230a0000 	movwcs	r0, #40960	; 0xa000
    2de8:	981e0000 	ldmdals	lr, {}	; <UNPREDICTABLE>
    2dec:	42000009 	andmi	r0, r0, #9, 0
    2df0:	3e000023 	cdpcc	0, 0, cr0, cr0, cr3, {1}
    2df4:	00000023 	andeq	r0, r0, r3, lsr #32
    2df8:	091b2f00 	ldmdbeq	fp, {r8, r9, sl, fp, sp}
    2dfc:	8f2c0000 	svchi	0x002c0000
    2e00:	00600000 	rsbeq	r0, r0, r0
    2e04:	0bf70000 	bleq	ffdc2e0c <__bss_end__+0xffdb7f04>
    2e08:	1c1e0000 	ldcne	0, cr0, [lr], {-0}
    2e0c:	64000009 	strvs	r0, [r0], #-9
    2e10:	60000023 	andvs	r0, r0, r3, lsr #32
    2e14:	00000023 	andeq	r0, r0, r3, lsr #32
    2e18:	00900017 	addseq	r0, r0, r7, lsl r0
    2e1c:	000c4600 	andeq	r4, ip, r0, lsl #12
    2e20:	000c3000 	andeq	r3, ip, r0
    2e24:	50011800 	andpl	r1, r1, r0, lsl #16
    2e28:	a2080305 	andge	r0, r8, #335544320	; 0x14000000
    2e2c:	01180000 	tsteq	r8, r0
    2e30:	60030551 	andvs	r0, r3, r1, asr r5
    2e34:	180000a7 	stmdane	r0, {r0, r1, r2, r5, r7}
    2e38:	03055201 	movweq	r5, #20993	; 0x5201
    2e3c:	0000a8a0 	andeq	sl, r0, r0, lsr #17
    2e40:	02530118 	subseq	r0, r3, #6
    2e44:	02187908 	andseq	r7, r8, #8, 18	; 0x20000
    2e48:	0305007d 	movweq	r0, #20605	; 0x507d
    2e4c:	0000a5d0 	ldrdeq	sl, [r0], -r0
    2e50:	90041900 	andls	r1, r4, r0, lsl #18
    2e54:	0c760000 	ldcleq	0, cr0, [r6], #-0
    2e58:	30000000 	andcc	r0, r0, r0
    2e5c:	000006d2 	ldrdeq	r0, [r0], -r2
    2e60:	000006d2 	ldrdeq	r0, [r0], -r2
    2e64:	3005eb03 	andcc	lr, r5, r3, lsl #22
    2e68:	000005c9 	andeq	r0, r0, r9, asr #11
    2e6c:	000005c9 	andeq	r0, r0, r9, asr #11
    2e70:	30062803 	andcc	r2, r6, r3, lsl #16
    2e74:	00000683 	andeq	r0, r0, r3, lsl #13
    2e78:	00000683 	andeq	r0, r0, r3, lsl #13
    2e7c:	3007ee03 	andcc	lr, r7, r3, lsl #28
    2e80:	000006b1 			; <UNDEFINED> instruction: 0x000006b1
    2e84:	000006b1 			; <UNDEFINED> instruction: 0x000006b1
    2e88:	3005ea03 	andcc	lr, r5, r3, lsl #20
    2e8c:	0000068a 	andeq	r0, r0, sl, lsl #13
    2e90:	0000068a 	andeq	r0, r0, sl, lsl #13
    2e94:	3007ed03 	andcc	lr, r7, r3, lsl #26
    2e98:	000000a7 	andeq	r0, r0, r7, lsr #1
    2e9c:	000000a7 	andeq	r0, r0, r7, lsr #1
    2ea0:	00066e03 	andeq	r6, r6, r3, lsl #28
    2ea4:	0000012f 	andeq	r0, r0, pc, lsr #2
    2ea8:	0fb90004 	svceq	0x00b90004
    2eac:	01040000 	mrseq	r0, (UNDEF: 4)
    2eb0:	0000016a 	andeq	r0, r0, sl, ror #2
    2eb4:	0006f70c 	andeq	pc, r6, ip, lsl #14
    2eb8:	00059f00 	andeq	r9, r5, r0, lsl #30
    2ebc:	0096cc00 	addseq	ip, r6, r0, lsl #24
    2ec0:	00002c00 	andeq	r2, r0, r0, lsl #24
    2ec4:	0019bc00 	andseq	fp, r9, r0, lsl #24
    2ec8:	05040200 	streq	r0, [r4, #-512]	; 0xfffffe00
    2ecc:	00746e69 	rsbseq	r6, r4, r9, ror #28
    2ed0:	2b070403 	blcs	1c3ee4 <__bss_end__+0x1b8fdc>
    2ed4:	03000001 	movweq	r0, #1
    2ed8:	00c30601 	sbceq	r0, r3, r1, lsl #12
    2edc:	02030000 	andeq	r0, r3, #0, 0
    2ee0:	00002105 	andeq	r2, r0, r5, lsl #2
    2ee4:	05040300 	streq	r0, [r4, #-768]	; 0xfffffd00
    2ee8:	00000056 	andeq	r0, r0, r6, asr r0
    2eec:	51050803 	tstpl	r5, r3, lsl #16
    2ef0:	03000000 	movweq	r0, #0
    2ef4:	00c10801 	sbceq	r0, r1, r1, lsl #16
    2ef8:	02030000 	andeq	r0, r3, #0, 0
    2efc:	00015207 	andeq	r5, r1, r7, lsl #4
    2f00:	07040300 	streq	r0, [r4, -r0, lsl #6]
    2f04:	00000126 	andeq	r0, r0, r6, lsr #2
    2f08:	21070803 	tstcs	r7, r3, lsl #16
    2f0c:	04000001 	streq	r0, [r0], #-1
    2f10:	00000025 	andeq	r0, r0, r5, lsr #32
    2f14:	0000007a 	andeq	r0, r0, sl, ror r0
    2f18:	00002505 	andeq	r2, r0, r5, lsl #10
    2f1c:	2b060000 	blcs	182f24 <__bss_end__+0x17801c>
    2f20:	02000000 	andeq	r0, r0, #0, 0
    2f24:	00860e1c 	addeq	r0, r6, ip, lsl lr
    2f28:	04070000 	streq	r0, [r7], #-0
    2f2c:	0000006b 	andeq	r0, r0, fp, rrx
    2f30:	00002504 	andeq	r2, r0, r4, lsl #10
    2f34:	00009b00 	andeq	r9, r0, r0, lsl #22
    2f38:	009b0500 	addseq	r0, fp, r0, lsl #10
    2f3c:	07000000 	streq	r0, [r0, -r0]
    2f40:	0000a804 	andeq	sl, r0, r4, lsl #16
    2f44:	08010300 	stmdaeq	r1, {r8, r9}
    2f48:	000000ca 	andeq	r0, r0, sl, asr #1
    2f4c:	0000a108 	andeq	sl, r0, r8, lsl #2
    2f50:	06070600 	streq	r0, [r7], -r0, lsl #12
    2f54:	21020000 	mrscs	r0, (UNDEF: 2)
    2f58:	0000b90e 	andeq	fp, r0, lr, lsl #18
    2f5c:	8c040700 	stchi	7, cr0, [r4], {-0}
    2f60:	09000000 	stmdbeq	r0, {}	; <UNPREDICTABLE>
    2f64:	000000a7 	andeq	r0, r0, r7, lsr #1
    2f68:	cc060401 	cfstrsgt	mvf0, [r6], {1}
    2f6c:	2c000096 	stccs	0, cr0, [r0], {150}	; 0x96
    2f70:	01000000 	mrseq	r0, (UNDEF: 0)
    2f74:	00010e9c 	muleq	r1, ip, lr
    2f78:	96e00a00 	strbtls	r0, [r0], r0, lsl #20
    2f7c:	00e80000 	rsceq	r0, r8, r0
    2f80:	010b0000 	mrseq	r0, (UNDEF: 11)
    2f84:	c4030550 	strgt	r0, [r3], #-1360	; 0xfffffab0
    2f88:	000000a8 	andeq	r0, r0, r8, lsr #1
    2f8c:	0096e40c 	addseq	lr, r6, ip, lsl #8
    2f90:	00010e00 	andeq	r0, r1, r0, lsl #28
    2f94:	96ec0d00 	strbtls	r0, [ip], r0, lsl #26
    2f98:	011a0000 	tsteq	sl, r0
    2f9c:	01040000 	mrseq	r0, (UNDEF: 4)
    2fa0:	010b0000 	mrseq	r0, (UNDEF: 11)
    2fa4:	003a0150 	eorseq	r0, sl, r0, asr r1
    2fa8:	0096f00c 	addseq	pc, r6, ip
    2fac:	00012600 	andeq	r2, r1, r0, lsl #12
    2fb0:	120e0000 	andne	r0, lr, #0, 0
    2fb4:	12000007 	andne	r0, r0, #7, 0
    2fb8:	02000007 	andeq	r0, r0, #7, 0
    2fbc:	ee0e064d 	cfmadd32	mvax2, mvfx0, mvfx14, mvfx13
    2fc0:	ee000006 	cdp	0, 0, cr0, cr0, cr6, {0}
    2fc4:	02000006 	andeq	r0, r0, #6, 0
    2fc8:	e30e0658 	movw	r0, #58968	; 0xe658
    2fcc:	e3000006 	movw	r0, #6
    2fd0:	02000006 	andeq	r0, r0, #6, 0
    2fd4:	9000066b 	andls	r0, r0, fp, ror #12
    2fd8:	04000001 	streq	r0, [r0], #-1
    2fdc:	00107900 	andseq	r7, r0, r0, lsl #18
    2fe0:	6a010400 	bvs	43fe8 <__bss_end__+0x390e0>
    2fe4:	0c000001 	stceq	0, cr0, [r0], {1}
    2fe8:	00000748 	andeq	r0, r0, r8, asr #14
    2fec:	0000059f 	muleq	r0, pc, r5	; <UNPREDICTABLE>
    2ff0:	000096f8 	strdeq	r9, [r0], -r8
    2ff4:	000000f8 	strdeq	r0, [r0], -r8
    2ff8:	00001a47 	andeq	r1, r0, r7, asr #20
    2ffc:	69050402 	stmdbvs	r5, {r1, sl}
    3000:	0300746e 	movweq	r7, #1134	; 0x46e
    3004:	012b0704 			; <UNDEFINED> instruction: 0x012b0704
    3008:	01030000 	mrseq	r0, (UNDEF: 3)
    300c:	0000c306 	andeq	ip, r0, r6, lsl #6
    3010:	05020300 	streq	r0, [r2, #-768]	; 0xfffffd00
    3014:	00000021 	andeq	r0, r0, r1, lsr #32
    3018:	56050403 	strpl	r0, [r5], -r3, lsl #8
    301c:	03000000 	movweq	r0, #0
    3020:	00510508 	subseq	r0, r1, r8, lsl #10
    3024:	01030000 	mrseq	r0, (UNDEF: 3)
    3028:	0000c108 	andeq	ip, r0, r8, lsl #2
    302c:	07020300 	streq	r0, [r2, -r0, lsl #6]
    3030:	00000152 	andeq	r0, r0, r2, asr r1
    3034:	26070403 	strcs	r0, [r7], -r3, lsl #8
    3038:	03000001 	movweq	r0, #1
    303c:	01210708 			; <UNDEFINED> instruction: 0x01210708
    3040:	25040000 	strcs	r0, [r4, #-0]
    3044:	7a000000 	bvc	304c <__code_start__-0x4fb4>
    3048:	05000000 	streq	r0, [r0, #-0]
    304c:	00000025 	andeq	r0, r0, r5, lsr #32
    3050:	002b0600 	eoreq	r0, fp, r0, lsl #12
    3054:	1c020000 	stcne	0, cr0, [r2], {-0}
    3058:	0000860e 	andeq	r8, r0, lr, lsl #12
    305c:	6b040700 	blvs	104c64 <__bss_end__+0xf9d5c>
    3060:	04000000 	streq	r0, [r0], #-0
    3064:	00000025 	andeq	r0, r0, r5, lsr #32
    3068:	0000009b 	muleq	r0, fp, r0
    306c:	00009b05 	andeq	r9, r0, r5, lsl #22
    3070:	04070000 	streq	r0, [r7], #-0
    3074:	000000a8 	andeq	r0, r0, r8, lsr #1
    3078:	ca080103 	bgt	20348c <__bss_end__+0x1f8584>
    307c:	08000000 	stmdaeq	r0, {}	; <UNPREDICTABLE>
    3080:	000000a1 	andeq	r0, r0, r1, lsr #1
    3084:	00060706 	andeq	r0, r6, r6, lsl #14
    3088:	0e210200 	cdpeq	2, 2, cr0, cr1, cr0, {0}
    308c:	000000b9 	strheq	r0, [r0], -r9
    3090:	008c0407 	addeq	r0, ip, r7, lsl #8
    3094:	20090000 	andcs	r0, r9, r0
    3098:	01000007 	tsteq	r0, r7
    309c:	96f80604 	ldrbtls	r0, [r8], r4, lsl #12
    30a0:	00f80000 	rscseq	r0, r8, r0
    30a4:	9c010000 	stcls	0, cr0, [r1], {-0}
    30a8:	0000015b 	andeq	r0, r0, fp, asr r1
    30ac:	00047206 	andeq	r7, r4, r6, lsl #4
    30b0:	10050100 	andne	r0, r5, r0, lsl #2
    30b4:	00000025 	andeq	r0, r0, r5, lsr #32
    30b8:	00052406 	andeq	r2, r5, r6, lsl #8
    30bc:	1f050100 	svcne	0x00050100
    30c0:	00000025 	andeq	r0, r0, r5, lsr #32
    30c4:	00014a0a 	andeq	r4, r1, sl, lsl #20
    30c8:	07060100 	streq	r0, [r6, -r0, lsl #2]
    30cc:	7373620b 	cmnvc	r3, #-1342177280	; 0xb0000000
    30d0:	0a0a0100 	beq	2834d8 <__bss_end__+0x2785d0>
    30d4:	0000015b 	andeq	r0, r0, fp, asr r1
    30d8:	0000239c 	muleq	r0, ip, r3
    30dc:	00002384 	andeq	r2, r0, r4, lsl #7
    30e0:	0007280c 	andeq	r2, r7, ip, lsl #16
    30e4:	0a0b0100 	beq	2c34ec <__bss_end__+0x2b85e4>
    30e8:	0000015b 	andeq	r0, r0, fp, asr r1
    30ec:	0097d00d 	addseq	sp, r7, sp
    30f0:	00000800 	andeq	r0, r0, r0, lsl #16
    30f4:	00013600 	andeq	r3, r1, r0, lsl #12
    30f8:	6e690b00 	vmulvs.f64	d16, d9, d0
    30fc:	05140100 	ldreq	r0, [r4, #-256]	; 0xffffff00
    3100:	0000002c 	andeq	r0, r0, ip, lsr #32
    3104:	00002436 	andeq	r2, r0, r6, lsr r4
    3108:	00002434 	andeq	r2, r0, r4, lsr r4
    310c:	97000e00 	strls	r0, [r0, -r0, lsl #28]
    3110:	01610000 	cmneq	r1, r0
    3114:	d00e0000 	andle	r0, lr, r0
    3118:	6e000097 	mcrvs	0, 0, r0, cr0, cr7, {4}
    311c:	0e000001 	cdpeq	0, 0, cr0, cr0, cr1, {0}
    3120:	000097dc 	ldrdeq	r9, [r0], -ip
    3124:	0000017a 	andeq	r0, r0, sl, ror r1
    3128:	0097e00e 	addseq	lr, r7, lr
    312c:	00018700 	andeq	r8, r1, r0, lsl #14
    3130:	04070000 	streq	r0, [r7], #-0
    3134:	00000025 	andeq	r0, r0, r5, lsr #32
    3138:	00073a0f 	andeq	r3, r7, pc, lsl #20
    313c:	00073a00 	andeq	r3, r7, r0, lsl #20
    3140:	01310200 	teqeq	r1, r0, lsl #4
    3144:	07301006 	ldreq	r1, [r0, -r6]!
    3148:	07300000 	ldreq	r0, [r0, -r0]!
    314c:	3b020000 	blcc	83154 <__bss_end__+0x7824c>
    3150:	014a0f06 	cmpeq	sl, r6, lsl #30
    3154:	014a0000 	mrseq	r0, (UNDEF: 74)
    3158:	05020000 	streq	r0, [r2, #-0]
    315c:	a7100601 	ldrge	r0, [r0, -r1, lsl #12]
    3160:	a7000000 	strge	r0, [r0, -r0]
    3164:	02000000 	andeq	r0, r0, #0, 0
    3168:	ce00066e 	cfmadd32gt	mvax3, mvfx0, mvfx0, mvfx14
    316c:	04000000 	streq	r0, [r0], #-0
    3170:	00116400 	andseq	r6, r1, r0, lsl #8
    3174:	6a010400 	bvs	4417c <__bss_end__+0x39274>
    3178:	0c000001 	stceq	0, cr0, [r0], {1}
    317c:	0000075d 	andeq	r0, r0, sp, asr r7
    3180:	0000059f 	muleq	r0, pc, r5	; <UNPREDICTABLE>
    3184:	000097f0 	strdeq	r9, [r0], -r0
    3188:	00000004 	andeq	r0, r0, r4
    318c:	00001b5d 	andeq	r1, r0, sp, asr fp
    3190:	69050402 	stmdbvs	r5, {r1, sl}
    3194:	0300746e 	movweq	r7, #1134	; 0x46e
    3198:	012b0704 			; <UNDEFINED> instruction: 0x012b0704
    319c:	01030000 	mrseq	r0, (UNDEF: 3)
    31a0:	0000c306 	andeq	ip, r0, r6, lsl #6
    31a4:	05020300 	streq	r0, [r2, #-768]	; 0xfffffd00
    31a8:	00000021 	andeq	r0, r0, r1, lsr #32
    31ac:	56050403 	strpl	r0, [r5], -r3, lsl #8
    31b0:	03000000 	movweq	r0, #0
    31b4:	00510508 	subseq	r0, r1, r8, lsl #10
    31b8:	01030000 	mrseq	r0, (UNDEF: 3)
    31bc:	0000c108 	andeq	ip, r0, r8, lsl #2
    31c0:	07020300 	streq	r0, [r2, -r0, lsl #6]
    31c4:	00000152 	andeq	r0, r0, r2, asr r1
    31c8:	26070403 	strcs	r0, [r7], -r3, lsl #8
    31cc:	03000001 	movweq	r0, #1
    31d0:	01210708 			; <UNDEFINED> instruction: 0x01210708
    31d4:	25040000 	strcs	r0, [r4, #-0]
    31d8:	7a000000 	bvc	31e0 <__code_start__-0x4e20>
    31dc:	05000000 	streq	r0, [r0, #-0]
    31e0:	00000025 	andeq	r0, r0, r5, lsr #32
    31e4:	002b0600 	eoreq	r0, fp, r0, lsl #12
    31e8:	1c020000 	stcne	0, cr0, [r2], {-0}
    31ec:	0000860e 	andeq	r8, r0, lr, lsl #12
    31f0:	6b040700 	blvs	104df8 <__bss_end__+0xf9ef0>
    31f4:	04000000 	streq	r0, [r0], #-0
    31f8:	00000025 	andeq	r0, r0, r5, lsr #32
    31fc:	0000009b 	muleq	r0, fp, r0
    3200:	00009b05 	andeq	r9, r0, r5, lsl #22
    3204:	04070000 	streq	r0, [r7], #-0
    3208:	000000a8 	andeq	r0, r0, r8, lsr #1
    320c:	ca080103 	bgt	203620 <__bss_end__+0x1f8718>
    3210:	08000000 	stmdaeq	r0, {}	; <UNPREDICTABLE>
    3214:	000000a1 	andeq	r0, r0, r1, lsr #1
    3218:	00060706 	andeq	r0, r6, r6, lsl #14
    321c:	0e210200 	cdpeq	2, 2, cr0, cr1, cr0, {0}
    3220:	000000b9 	strheq	r0, [r0], -r9
    3224:	008c0407 	addeq	r0, ip, r7, lsl #8
    3228:	3a090000 	bcc	243230 <__bss_end__+0x238328>
    322c:	01000007 	tsteq	r0, r7
    3230:	97f00604 	ldrbls	r0, [r0, r4, lsl #12]!
    3234:	00040000 	andeq	r0, r4, r0
    3238:	9c010000 	stcls	0, cr0, [r1], {-0}
    323c:	00027d00 	andeq	r7, r2, r0, lsl #26
    3240:	dd000400 	cfstrsle	mvf0, [r0, #-0]
    3244:	04000011 	streq	r0, [r0], #-17	; 0xffffffef
    3248:	00016a01 	andeq	r6, r1, r1, lsl #20
    324c:	07a50c00 	streq	r0, [r5, r0, lsl #24]!
    3250:	059f0000 	ldreq	r0, [pc]	; 3258 <__code_start__-0x4da8>
    3254:	04000000 	streq	r0, [r0], #-0
    3258:	00000000 	andeq	r0, r0, r0
    325c:	1bde0000 	blne	ff783264 <__bss_end__+0xff77835c>
    3260:	04020000 	streq	r0, [r2], #-0
    3264:	746e6905 	strbtvc	r6, [lr], #-2309	; 0xfffff6fb
    3268:	00250300 	eoreq	r0, r5, r0, lsl #6
    326c:	04040000 	streq	r0, [r4], #-0
    3270:	00012b07 	andeq	r2, r1, r7, lsl #22
    3274:	06010400 	streq	r0, [r1], -r0, lsl #8
    3278:	000000c3 	andeq	r0, r0, r3, asr #1
    327c:	21050204 	tstcs	r5, r4, lsl #4
    3280:	04000000 	streq	r0, [r0], #-0
    3284:	00560504 	subseq	r0, r6, r4, lsl #10
    3288:	08040000 	stmdaeq	r4, {}	; <UNPREDICTABLE>
    328c:	00005105 	andeq	r5, r0, r5, lsl #2
    3290:	08010400 	stmdaeq	r1, {sl}
    3294:	000000c1 	andeq	r0, r0, r1, asr #1
    3298:	52070204 	andpl	r0, r7, #4, 4	; 0x40000000
    329c:	04000001 	streq	r0, [r0], #-1
    32a0:	01260704 			; <UNDEFINED> instruction: 0x01260704
    32a4:	08040000 	stmdaeq	r4, {}	; <UNPREDICTABLE>
    32a8:	00012107 	andeq	r2, r1, r7, lsl #2
    32ac:	00250500 	eoreq	r0, r5, r0, lsl #10
    32b0:	007f0000 	rsbseq	r0, pc, r0
    32b4:	25060000 	strcs	r0, [r6, #-0]
    32b8:	00000000 	andeq	r0, r0, r0
    32bc:	00002b07 	andeq	r2, r0, r7, lsl #22
    32c0:	0e1c0200 	cdpeq	2, 1, cr0, cr12, cr0, {0}
    32c4:	0000008b 	andeq	r0, r0, fp, lsl #1
    32c8:	00700408 	rsbseq	r0, r0, r8, lsl #8
    32cc:	25050000 	strcs	r0, [r5, #-0]
    32d0:	a0000000 	andge	r0, r0, r0
    32d4:	06000000 	streq	r0, [r0], -r0
    32d8:	000000a0 	andeq	r0, r0, r0, lsr #1
    32dc:	ad040800 	stcge	8, cr0, [r4, #-0]
    32e0:	04000000 	streq	r0, [r0], #-0
    32e4:	00ca0801 	sbceq	r0, sl, r1, lsl #16
    32e8:	a6030000 	strge	r0, [r3], -r0
    32ec:	07000000 	streq	r0, [r0, -r0]
    32f0:	00000607 	andeq	r0, r0, r7, lsl #12
    32f4:	be0e2102 	adflte	f2, f6, f2
    32f8:	08000000 	stmdaeq	r0, {}	; <UNPREDICTABLE>
    32fc:	00009104 	andeq	r9, r0, r4, lsl #2
    3300:	07c90900 	strbeq	r0, [r9, r0, lsl #18]
    3304:	0d010000 	stceq	0, cr0, [r1, #-0]
    3308:	00003111 	andeq	r3, r0, r1, lsl r1
    330c:	06e30a00 	strbteq	r0, [r3], r0, lsl #20
    3310:	1f010000 	svcne	0x00010000
    3314:	00982006 	addseq	r2, r8, r6
    3318:	00006000 	andeq	r6, r0, r0
    331c:	d59c0100 	ldrle	r0, [ip, #256]	; 0x100
    3320:	0b000001 	bleq	332c <__code_start__-0x4cd4>
    3324:	000007ed 	andeq	r0, r0, sp, ror #15
    3328:	2c0f2c01 	stccs	12, cr2, [pc], {1}
    332c:	1c000000 	stcne	0, cr0, [r0], {-0}
    3330:	0b201000 	bleq	807338 <__bss_end__+0x7fc430>
    3334:	00000788 	andeq	r0, r0, r8, lsl #15
    3338:	2c0f2d01 	stccs	13, cr2, [pc], {1}
    333c:	24000000 	strcs	r0, [r0], #-0
    3340:	0b201000 	bleq	807348 <__bss_end__+0x7fc440>
    3344:	000007ba 			; <UNDEFINED> instruction: 0x000007ba
    3348:	2c0f2e01 	stccs	14, cr2, [pc], {1}
    334c:	00000000 	andeq	r0, r0, r0
    3350:	0c5a0000 	mraeq	r0, sl, acc0
    3354:	000007d4 	ldrdeq	r0, [r0], -r4
    3358:	2c0f2f01 	stccs	15, cr2, [pc], {1}
    335c:	20000000 	andcs	r0, r0, r0
    3360:	0001ef0d 	andeq	lr, r1, sp, lsl #30
    3364:	00982000 	addseq	r2, r8, r0
    3368:	03e80200 	mvneq	r0, #0, 4
    336c:	20010000 	andcs	r0, r1, r0
    3370:	00014c08 	andeq	r4, r1, r8, lsl #24
    3374:	03e80e00 	mvneq	r0, #0, 28
    3378:	000f0000 	andeq	r0, pc, r0
    337c:	4e000002 	cdpmi	0, 0, cr0, cr0, cr2, {0}
    3380:	4a000024 	bmi	3418 <__code_start__-0x4be8>
    3384:	00000024 	andeq	r0, r0, r4, lsr #32
    3388:	01d51000 	bicseq	r1, r5, r0
    338c:	98340000 	ldmdals	r4!, {}	; <UNPREDICTABLE>
    3390:	34010000 	strcc	r0, [r1], #-0
    3394:	10000098 	mulne	r0, r8, r0
    3398:	01000000 	mrseq	r0, (UNDEF: 0)
    339c:	01730921 	cmneq	r3, r1, lsr #18
    33a0:	e20f0000 	and	r0, pc, #0, 0
    33a4:	75000001 	strvc	r0, [r0, #-1]
    33a8:	6d000024 	stcvs	0, cr0, [r0, #-144]	; 0xffffff70
    33ac:	00000024 	andeq	r0, r0, r4, lsr #32
    33b0:	00984811 	addseq	r4, r8, r1, lsl r8
    33b4:	00024f00 	andeq	r4, r2, r0, lsl #30
    33b8:	984c1100 	stmdals	ip, {r8, ip}^
    33bc:	025c0000 	subseq	r0, ip, #0, 0
    33c0:	54120000 	ldrpl	r0, [r2], #-0
    33c4:	68000098 	stmdavs	r0, {r3, r4, r7}
    33c8:	98000002 	stmdals	r0, {r1}
    33cc:	13000001 	movwne	r0, #1
    33d0:	3a015001 	bcc	573dc <__bss_end__+0x4c4d4>
    33d4:	98601200 	stmdals	r0!, {r9, ip}^
    33d8:	02740000 	rsbseq	r0, r4, #0, 0
    33dc:	01b80000 			; <UNDEFINED> instruction: 0x01b80000
    33e0:	01130000 	tsteq	r3, r0
    33e4:	240c0550 	strcs	r0, [ip], #-1360	; 0xfffffab0
    33e8:	13201000 	nopne	{0}	; <UNPREDICTABLE>
    33ec:	0c055101 	stfeqs	f5, [r5], {1}
    33f0:	5a000001 	bpl	33fc <__code_start__-0x4c04>
    33f4:	986c1400 	stmdals	ip!, {sl, ip}^
    33f8:	02740000 	rsbseq	r0, r4, #0, 0
    33fc:	01130000 	tsteq	r3, r0
    3400:	1c0c0550 	cfstr32ne	mvfx0, [ip], {80}	; 0x50
    3404:	13201000 	nopne	{0}	; <UNPREDICTABLE>
    3408:	0c055101 	stfeqs	f5, [r5], {1}
    340c:	5a000020 	bpl	3494 <__code_start__-0x4b6c>
    3410:	96150000 	ldrls	r0, [r5], -r0
    3414:	01000007 	tsteq	r0, r7
    3418:	ef010617 	svc	0x00010617
    341c:	09000001 	stmdbeq	r0, {r0}
    3420:	000007f5 	strdeq	r0, [r0], -r5
    3424:	310e1801 	tstcc	lr, r1, lsl #16
    3428:	00000000 	andeq	r0, r0, r0
    342c:	0007c616 	andeq	ip, r7, r6, lsl r6
    3430:	050e0100 	streq	r0, [lr, #-256]	; 0xffffff00
    3434:	00000025 	andeq	r0, r0, r5, lsr #32
    3438:	00020d01 	andeq	r0, r2, r1, lsl #26
    343c:	07f50900 	ldrbeq	r0, [r5, r0, lsl #18]!
    3440:	0f010000 	svceq	0x00010000
    3444:	0000310e 	andeq	r3, r0, lr, lsl #2
    3448:	ef170000 	svc	0x00170000
    344c:	f4000001 	vst4.8	{d0-d3}, [r0], r1
    3450:	18000097 	stmdane	r0, {r0, r1, r2, r4, r7}
    3454:	01000000 	mrseq	r0, (UNDEF: 0)
    3458:	00022e9c 	muleq	r2, ip, lr
    345c:	02000f00 	andeq	r0, r0, #0, 30
    3460:	24b20000 	ldrtcs	r0, [r2], #0
    3464:	24ae0000 	strtcs	r0, [lr], #0
    3468:	17000000 	strne	r0, [r0, -r0]
    346c:	000001d5 	ldrdeq	r0, [r0], -r5
    3470:	0000980c 	andeq	r9, r0, ip, lsl #16
    3474:	00000014 	andeq	r0, r0, r4, lsl r0
    3478:	024f9c01 	subeq	r9, pc, #256	; 0x100
    347c:	e20f0000 	and	r0, pc, #0, 0
    3480:	d9000001 	stmdble	r0, {r0}
    3484:	d1000024 	tstle	r0, r4, lsr #32
    3488:	00000024 	andeq	r0, r0, r4, lsr #32
    348c:	00077918 	andeq	r7, r7, r8, lsl r9
    3490:	00077900 	andeq	r7, r7, r0, lsl #18
    3494:	01360200 	teqeq	r6, r0, lsl #4
    3498:	07121906 	ldreq	r1, [r2, -r6, lsl #18]
    349c:	07120000 	ldreq	r0, [r2, -r0]
    34a0:	4d020000 	stcmi	0, cr0, [r2, #-0]
    34a4:	06ee1906 	strbteq	r1, [lr], r6, lsl #18
    34a8:	06ee0000 	strbteq	r0, [lr], r0
    34ac:	58020000 	stmdapl	r2, {}	; <UNPREDICTABLE>
    34b0:	07901906 	ldreq	r1, [r0, r6, lsl #18]
    34b4:	07900000 	ldreq	r0, [r0, r0]
    34b8:	ad020000 	stcge	0, cr0, [r2, #-0]
    34bc:	053f0006 	ldreq	r0, [pc, #-6]!	; 34be <__code_start__-0x4b42>
    34c0:	00040000 	andeq	r0, r4, r0
    34c4:	00001360 	andeq	r1, r0, r0, ror #6
    34c8:	016a0104 	cmneq	sl, r4, lsl #2
    34cc:	100c0000 	andne	r0, ip, r0
    34d0:	9f000008 	svcls	0x00000008
    34d4:	80000005 	andhi	r0, r0, r5
    34d8:	1c000098 	stcne	0, cr0, [r0], {152}	; 0x98
    34dc:	f6000001 			; <UNDEFINED> instruction: 0xf6000001
    34e0:	0200001c 	andeq	r0, r0, #28, 0
    34e4:	6e690504 	cdpvs	5, 6, cr0, cr9, cr4, {0}
    34e8:	04030074 	streq	r0, [r3], #-116	; 0xffffff8c
    34ec:	00012b07 	andeq	r2, r1, r7, lsl #22
    34f0:	06010300 	streq	r0, [r1], -r0, lsl #6
    34f4:	000000c3 	andeq	r0, r0, r3, asr #1
    34f8:	21050203 	tstcs	r5, r3, lsl #4
    34fc:	03000000 	movweq	r0, #0
    3500:	00560504 	subseq	r0, r6, r4, lsl #10
    3504:	08030000 	stmdaeq	r3, {}	; <UNPREDICTABLE>
    3508:	00005105 	andeq	r5, r0, r5, lsl #2
    350c:	08010300 	stmdaeq	r1, {r8, r9}
    3510:	000000c1 	andeq	r0, r0, r1, asr #1
    3514:	52070203 	andpl	r0, r7, #805306368	; 0x30000000
    3518:	03000001 	movweq	r0, #1
    351c:	01260704 			; <UNDEFINED> instruction: 0x01260704
    3520:	08030000 	stmdaeq	r3, {}	; <UNPREDICTABLE>
    3524:	00012107 	andeq	r2, r1, r7, lsl #2
    3528:	00250400 	eoreq	r0, r5, r0, lsl #8
    352c:	007a0000 	rsbseq	r0, sl, r0
    3530:	25050000 	strcs	r0, [r5, #-0]
    3534:	00000000 	andeq	r0, r0, r0
    3538:	00002b06 	andeq	r2, r0, r6, lsl #22
    353c:	0e1c0200 	cdpeq	2, 1, cr0, cr12, cr0, {0}
    3540:	00000086 	andeq	r0, r0, r6, lsl #1
    3544:	006b0407 	rsbeq	r0, fp, r7, lsl #8
    3548:	25040000 	strcs	r0, [r4, #-0]
    354c:	9b000000 	blls	3554 <__code_start__-0x4aac>
    3550:	05000000 	streq	r0, [r0, #-0]
    3554:	0000009b 	muleq	r0, fp, r0
    3558:	a8040700 	stmdage	r4, {r8, r9, sl}
    355c:	03000000 	movweq	r0, #0
    3560:	00ca0801 	sbceq	r0, sl, r1, lsl #16
    3564:	a1080000 	mrsge	r0, (UNDEF: 8)
    3568:	06000000 	streq	r0, [r0], -r0
    356c:	00000607 	andeq	r0, r0, r7, lsl #12
    3570:	b90e2102 	stmdblt	lr, {r1, r8, sp}
    3574:	07000000 	streq	r0, [r0, -r0]
    3578:	00008c04 	andeq	r8, r0, r4, lsl #24
    357c:	08060900 	stmdaeq	r6, {r8, fp}
    3580:	1e010000 	cdpne	0, 0, cr0, cr1, cr0, {0}
    3584:	00994806 	addseq	r4, r9, r6, lsl #16
    3588:	00005400 	andeq	r5, r0, r0, lsl #8
    358c:	0b9c0100 	bleq	fe703994 <__bss_end__+0xfe6f8a8c>
    3590:	0a000002 	beq	35a0 <__code_start__-0x4a60>
    3594:	00636573 	rsbeq	r6, r3, r3, ror r5
    3598:	2c191e01 	ldccs	14, cr1, [r9], {1}
    359c:	16000000 	strne	r0, [r0], -r0
    35a0:	12000025 	andne	r0, r0, #37, 0	; 0x25
    35a4:	0b000025 	bleq	3640 <__code_start__-0x49c0>
    35a8:	0000020b 	andeq	r0, r0, fp, lsl #4
    35ac:	00009948 	andeq	r9, r0, r8, asr #18
    35b0:	0004c802 	andeq	ip, r4, r2, lsl #16
    35b4:	051f0100 	ldreq	r0, [pc, #-256]	; 34bc <__code_start__-0x4b44>
    35b8:	0002180c 	andeq	r1, r2, ip, lsl #16
    35bc:	00253b00 	eoreq	r3, r5, r0, lsl #22
    35c0:	00253700 	eoreq	r3, r5, r0, lsl #14
    35c4:	02240d00 	eoreq	r0, r4, #0, 26
    35c8:	995c0000 	ldmdbls	ip, {}^	; <UNPREDICTABLE>
    35cc:	5c000000 	stcpl	0, cr0, [r0], {-0}
    35d0:	40000099 	mulmi	r0, r9, r0
    35d4:	01000000 	mrseq	r0, (UNDEF: 0)
    35d8:	310c051c 	tstcc	ip, ip, lsl r5
    35dc:	68000002 	stmdavs	r0, {r1}
    35e0:	66000025 	strvs	r0, [r0], -r5, lsr #32
    35e4:	0e000025 	cdpeq	0, 0, cr0, cr0, cr5, {1}
    35e8:	0000023c 	andeq	r0, r0, ip, lsr r2
    35ec:	0000257d 	andeq	r2, r0, sp, ror r5
    35f0:	0000257b 	andeq	r2, r0, fp, ror r5
    35f4:	0002550f 	andeq	r5, r2, pc, lsl #10
    35f8:	00995c00 	addseq	r5, r9, r0, lsl #24
    35fc:	995c0200 	ldmdbls	ip, {r9}^
    3600:	00140000 	andseq	r0, r4, r0
    3604:	13010000 	movwne	r0, #4096	; 0x1000
    3608:	00019c13 	andeq	r9, r1, r3, lsl ip
    360c:	02660e00 	rsbeq	r0, r6, #0, 28
    3610:	25940000 	ldrcs	r0, [r4]
    3614:	25900000 	ldrcs	r0, [r0]
    3618:	710f0000 	mrsvc	r0, CPSR
    361c:	60000002 	andvs	r0, r0, r2
    3620:	01000099 	swpeq	r0, r9, [r0]	; <UNPREDICTABLE>
    3624:	00009960 	andeq	r9, r0, r0, ror #18
    3628:	0000000c 	andeq	r0, r0, ip
    362c:	89120d01 	ldmdbhi	r2, {r0, r8, sl, fp}
    3630:	10000001 	andne	r0, r0, r1
    3634:	00009968 	andeq	r9, r0, r8, ror #18
    3638:	0000052a 	andeq	r0, r0, sl, lsr #10
    363c:	05500111 	ldrbeq	r0, [r0, #-273]	; 0xfffffeef
    3640:	0030040c 	eorseq	r0, r0, ip, lsl #8
    3644:	12000020 	andne	r0, r0, #32, 0
    3648:	00009960 	andeq	r9, r0, r0, ror #18
    364c:	00000536 	andeq	r0, r0, r6, lsr r5
    3650:	00997012 	addseq	r7, r9, r2, lsl r0
    3654:	00053600 	andeq	r3, r5, r0, lsl #12
    3658:	47130000 	ldrmi	r0, [r3, -r0]
    365c:	e0000002 	and	r0, r0, r2
    3660:	14000004 	strne	r0, [r0], #-4
    3664:	00000248 	andeq	r0, r0, r8, asr #4
    3668:	0002550b 	andeq	r5, r2, fp, lsl #10
    366c:	00997400 	addseq	r7, r9, r0, lsl #8
    3670:	04f80200 	ldrbteq	r0, [r8], #512	; 0x200
    3674:	15010000 	strne	r0, [r1, #-0]
    3678:	04f81517 	ldrbteq	r1, [r8], #1303	; 0x517
    367c:	660e0000 	strvs	r0, [lr], -r0
    3680:	b4000002 	strlt	r0, [r0], #-2
    3684:	b2000025 	andlt	r0, r0, #37, 0	; 0x25
    3688:	16000025 	strne	r0, [r0], -r5, lsr #32
    368c:	00000271 	andeq	r0, r0, r1, ror r2
    3690:	00009978 	andeq	r9, r0, r8, ror r9
    3694:	00051801 	andeq	r1, r5, r1, lsl #16
    3698:	120d0100 	andne	r0, sp, #0
    369c:	000001f3 	strdeq	r0, [r0], -r3
    36a0:	00998010 	addseq	r8, r9, r0, lsl r0
    36a4:	00052a00 	andeq	r2, r5, r0, lsl #20
    36a8:	50011100 	andpl	r1, r1, r0, lsl #2
    36ac:	00007702 	andeq	r7, r0, r2, lsl #14
    36b0:	99781200 	ldmdbls	r8!, {r9, ip}^
    36b4:	05360000 	ldreq	r0, [r6, #-0]!
    36b8:	8c120000 	ldchi	0, cr0, [r2], {-0}
    36bc:	36000099 			; <UNDEFINED> instruction: 0x36000099
    36c0:	00000005 	andeq	r0, r0, r5
    36c4:	00000000 	andeq	r0, r0, r0
    36c8:	06ee1700 	strbteq	r1, [lr], r0, lsl #14
    36cc:	1b010000 	blne	436d4 <__bss_end__+0x387cc>
    36d0:	02240106 	eoreq	r0, r4, #-2147483647	; 0x80000001
    36d4:	6d180000 	ldcvs	0, cr0, [r8, #-0]
    36d8:	1b010073 	blne	438ac <__bss_end__+0x389a4>
    36dc:	00002c18 	andeq	r2, r0, r8, lsl ip
    36e0:	39170000 	ldmdbcc	r7, {}	; <UNPREDICTABLE>
    36e4:	01000008 	tsteq	r0, r8
    36e8:	55010612 	strpl	r0, [r1, #-1554]	; 0xfffff9ee
    36ec:	18000002 	stmdane	r0, {r1}
    36f0:	01007375 	tsteq	r0, r5, ror r3
    36f4:	002c1812 	eoreq	r1, ip, r2, lsl r8
    36f8:	72190000 	andsvc	r0, r9, #0, 0
    36fc:	13010062 	movwne	r0, #4194	; 0x1062
    3700:	00002c0e 	andeq	r2, r0, lr, lsl #24
    3704:	72191a00 	andsvc	r1, r9, #0, 20
    3708:	15010061 	strne	r0, [r1, #-97]	; 0xffffff9f
    370c:	00002c12 	andeq	r2, r0, r2, lsl ip
    3710:	1b000000 	blne	3718 <__code_start__-0x48e8>
    3714:	0000082a 	andeq	r0, r0, sl, lsr #16
    3718:	2c0a0901 			; <UNDEFINED> instruction: 0x2c0a0901
    371c:	01000000 	mrseq	r0, (UNDEF: 0)
    3720:	00000271 	andeq	r0, r0, r1, ror r2
    3724:	01007519 	tsteq	r0, r9, lsl r5
    3728:	002c0e0d 	eoreq	r0, ip, sp, lsl #28
    372c:	1c000000 	stcne	0, cr0, [r0], {-0}
    3730:	00000842 	andeq	r0, r0, r2, asr #16
    3734:	2c0a0401 	cfstrscs	mvf0, [sl], {1}
    3738:	01000000 	mrseq	r0, (UNDEF: 0)
    373c:	0002711d 	andeq	r7, r2, sp, lsl r1
    3740:	00988000 	addseq	r8, r8, r0
    3744:	00000c00 	andeq	r0, r0, r0, lsl #24
    3748:	a59c0100 	ldrge	r0, [ip, #256]	; 0x100
    374c:	1e000002 	cdpne	0, 0, cr0, cr0, cr2, {0}
    3750:	00009888 	andeq	r9, r0, r8, lsl #17
    3754:	0000052a 	andeq	r0, r0, sl, lsr #10
    3758:	05500111 	ldrbeq	r0, [r0, #-273]	; 0xfffffeef
    375c:	0030040c 	eorseq	r0, r0, ip, lsl #8
    3760:	1d000020 	stcne	0, cr0, [r0, #-128]	; 0xffffff80
    3764:	00000255 	andeq	r0, r0, r5, asr r2
    3768:	0000988c 	andeq	r9, r0, ip, lsl #17
    376c:	00000024 	andeq	r0, r0, r4, lsr #32
    3770:	03059c01 	movweq	r9, #23553	; 0x5c01
    3774:	660e0000 	strvs	r0, [lr], -r0
    3778:	cb000002 	blgt	3788 <__code_start__-0x4878>
    377c:	c7000025 	strgt	r0, [r0, -r5, lsr #32]
    3780:	0f000025 	svceq	0x00000025
    3784:	00000271 	andeq	r0, r0, r1, ror r2
    3788:	00009894 	muleq	r0, r4, r8
    378c:	00989401 	addseq	r9, r8, r1, lsl #8
    3790:	00000c00 	andeq	r0, r0, r0, lsl #24
    3794:	120d0100 	andne	r0, sp, #0
    3798:	000002f2 	strdeq	r0, [r0], -r2
    379c:	00989c10 	addseq	r9, r8, r0, lsl ip
    37a0:	00052a00 	andeq	r2, r5, r0, lsl #20
    37a4:	50011100 	andpl	r1, r1, r0, lsl #2
    37a8:	30040c05 	andcc	r0, r4, r5, lsl #24
    37ac:	00002000 	andeq	r2, r0, r0
    37b0:	00989412 	addseq	r9, r8, r2, lsl r4
    37b4:	00053600 	andeq	r3, r5, r0, lsl #12
    37b8:	98a41200 	stmials	r4!, {r9, ip}
    37bc:	05360000 	ldreq	r0, [r6, #-0]!
    37c0:	1d000000 	stcne	0, cr0, [r0, #-0]
    37c4:	00000224 	andeq	r0, r0, r4, lsr #4
    37c8:	000098b0 			; <UNDEFINED> instruction: 0x000098b0
    37cc:	00000048 	andeq	r0, r0, r8, asr #32
    37d0:	04079c01 	streq	r9, [r7], #-3073	; 0xfffff3ff
    37d4:	310c0000 	mrscc	r0, (UNDEF: 12)
    37d8:	ed000002 	stc	0, cr0, [r0, #-8]
    37dc:	e9000025 	stmdb	r0, {r0, r2, r5}
    37e0:	0e000025 	cdpeq	0, 0, cr0, cr0, cr5, {1}
    37e4:	0000023c 	andeq	r0, r0, ip, lsr r2
    37e8:	0000260d 	andeq	r2, r0, sp, lsl #12
    37ec:	0000260b 	andeq	r2, r0, fp, lsl #12
    37f0:	00025516 	andeq	r5, r2, r6, lsl r5
    37f4:	0098b000 	addseq	fp, r8, r0
    37f8:	04100200 	ldreq	r0, [r0], #-512	; 0xfffffe00
    37fc:	13010000 	movwne	r0, #4096	; 0x1000
    3800:	00039a13 	andeq	r9, r3, r3, lsl sl
    3804:	04101500 	ldreq	r1, [r0], #-1280	; 0xfffffb00
    3808:	660e0000 	strvs	r0, [lr], -r0
    380c:	24000002 	strcs	r0, [r0], #-2
    3810:	20000026 	andcs	r0, r0, r6, lsr #32
    3814:	0f000026 	svceq	0x00000026
    3818:	00000271 	andeq	r0, r0, r1, ror r2
    381c:	000098bc 			; <UNDEFINED> instruction: 0x000098bc
    3820:	0098bc01 	addseq	fp, r8, r1, lsl #24
    3824:	00000c00 	andeq	r0, r0, r0, lsl #24
    3828:	120d0100 	andne	r0, sp, #0
    382c:	00000386 	andeq	r0, r0, r6, lsl #7
    3830:	0098c410 	addseq	ip, r8, r0, lsl r4
    3834:	00052a00 	andeq	r2, r5, r0, lsl #20
    3838:	50011100 	andpl	r1, r1, r0, lsl #2
    383c:	30040c05 	andcc	r0, r4, r5, lsl #24
    3840:	00002000 	andeq	r2, r0, r0
    3844:	0098bc12 	addseq	fp, r8, r2, lsl ip
    3848:	00053600 	andeq	r3, r5, r0, lsl #12
    384c:	98cc1200 	stmials	ip, {r9, ip}^
    3850:	05360000 	ldreq	r0, [r6, #-0]!
    3854:	00000000 	andeq	r0, r0, r0
    3858:	00024713 	andeq	r4, r2, r3, lsl r7
    385c:	00042800 	andeq	r2, r4, r0, lsl #16
    3860:	02481400 	subeq	r1, r8, #0, 8
    3864:	550b0000 	strpl	r0, [fp, #-0]
    3868:	d0000002 	andle	r0, r0, r2
    386c:	02000098 	andeq	r0, r0, #152, 0	; 0x98
    3870:	00000440 	andeq	r0, r0, r0, asr #8
    3874:	15171501 	ldrne	r1, [r7, #-1281]	; 0xfffffaff
    3878:	00000440 	andeq	r0, r0, r0, asr #8
    387c:	0002660e 	andeq	r6, r2, lr, lsl #12
    3880:	00264400 	eoreq	r4, r6, r0, lsl #8
    3884:	00264200 	eoreq	r4, r6, r0, lsl #4
    3888:	02711600 	rsbseq	r1, r1, #0, 12
    388c:	98d40000 	ldmls	r4, {}^	; <UNPREDICTABLE>
    3890:	60010000 	andvs	r0, r1, r0
    3894:	01000004 	tsteq	r0, r4
    3898:	03f1120d 	mvnseq	r1, #-805306368	; 0xd0000000
    389c:	dc100000 	ldcle	0, cr0, [r0], {-0}
    38a0:	2a000098 	bcs	3b08 <__code_start__-0x44f8>
    38a4:	11000005 	tstne	r0, r5
    38a8:	77025001 	strvc	r5, [r2, -r1]
    38ac:	12000000 	andne	r0, r0, #0, 0
    38b0:	000098d4 	ldrdeq	r9, [r0], -r4
    38b4:	00000536 	andeq	r0, r0, r6, lsr r5
    38b8:	0098e812 	addseq	lr, r8, r2, lsl r8
    38bc:	00053600 	andeq	r3, r5, r0, lsl #12
    38c0:	00000000 	andeq	r0, r0, r0
    38c4:	020b1d00 	andeq	r1, fp, #0, 26
    38c8:	98f80000 	ldmls	r8!, {}^	; <UNPREDICTABLE>
    38cc:	00500000 	subseq	r0, r0, r0
    38d0:	9c010000 	stcls	0, cr0, [r1], {-0}
    38d4:	0000052a 	andeq	r0, r0, sl, lsr #10
    38d8:	0002180c 	andeq	r1, r2, ip, lsl #16
    38dc:	00265b00 	eoreq	r5, r6, r0, lsl #22
    38e0:	00265700 	eoreq	r5, r6, r0, lsl #14
    38e4:	02240d00 	eoreq	r0, r4, #0, 26
    38e8:	99080000 	stmdbls	r8, {}	; <UNPREDICTABLE>
    38ec:	08000000 	stmdaeq	r0, {}	; <UNPREDICTABLE>
    38f0:	40000099 	mulmi	r0, r9, r0
    38f4:	01000000 	mrseq	r0, (UNDEF: 0)
    38f8:	310c051c 	tstcc	ip, ip, lsl r5
    38fc:	7e000002 	cdpvc	0, 0, cr0, cr0, cr2, {0}
    3900:	7c000026 	stcvc	0, cr0, [r0], {38}	; 0x26
    3904:	0e000026 	cdpeq	0, 0, cr0, cr0, cr6, {1}
    3908:	0000023c 	andeq	r0, r0, ip, lsr r2
    390c:	00002693 	muleq	r0, r3, r6
    3910:	00002691 	muleq	r0, r1, r6
    3914:	0002550f 	andeq	r5, r2, pc, lsl #10
    3918:	00990800 	addseq	r0, r9, r0, lsl #16
    391c:	99080200 	stmdbls	r8, {r9}
    3920:	00140000 	andseq	r0, r4, r0
    3924:	13010000 	movwne	r0, #4096	; 0x1000
    3928:	0004bc13 	andeq	fp, r4, r3, lsl ip
    392c:	02660e00 	rsbeq	r0, r6, #0, 28
    3930:	26aa0000 	strtcs	r0, [sl], r0
    3934:	26a60000 	strtcs	r0, [r6], r0
    3938:	710f0000 	mrsvc	r0, CPSR
    393c:	0c000002 	stceq	0, cr0, [r0], {2}
    3940:	01000099 	swpeq	r0, r9, [r0]	; <UNPREDICTABLE>
    3944:	0000990c 	andeq	r9, r0, ip, lsl #18
    3948:	0000000c 	andeq	r0, r0, ip
    394c:	a9120d01 	ldmdbge	r2, {r0, r8, sl, fp}
    3950:	10000004 	andne	r0, r0, r4
    3954:	00009914 	andeq	r9, r0, r4, lsl r9
    3958:	0000052a 	andeq	r0, r0, sl, lsr #10
    395c:	05500111 	ldrbeq	r0, [r0, #-273]	; 0xfffffeef
    3960:	0030040c 	eorseq	r0, r0, ip, lsl #8
    3964:	12000020 	andne	r0, r0, #32, 0
    3968:	0000990c 	andeq	r9, r0, ip, lsl #18
    396c:	00000536 	andeq	r0, r0, r6, lsr r5
    3970:	00991c12 	addseq	r1, r9, r2, lsl ip
    3974:	00053600 	andeq	r3, r5, r0, lsl #12
    3978:	47130000 	ldrmi	r0, [r3, -r0]
    397c:	78000002 	stmdavc	r0, {r1}
    3980:	14000004 	strne	r0, [r0], #-4
    3984:	00000248 	andeq	r0, r0, r8, asr #4
    3988:	0002550b 	andeq	r5, r2, fp, lsl #10
    398c:	00992000 	addseq	r2, r9, r0
    3990:	04900200 	ldreq	r0, [r0], #512	; 0x200
    3994:	15010000 	strne	r0, [r1, #-0]
    3998:	04901517 	ldreq	r1, [r0], #1303	; 0x517
    399c:	660e0000 	strvs	r0, [lr], -r0
    39a0:	ca000002 	bgt	39b0 <__code_start__-0x4650>
    39a4:	c8000026 	stmdagt	r0, {r1, r2, r5}
    39a8:	16000026 	strne	r0, [r0], -r6, lsr #32
    39ac:	00000271 	andeq	r0, r0, r1, ror r2
    39b0:	00009924 	andeq	r9, r0, r4, lsr #18
    39b4:	0004b001 	andeq	fp, r4, r1
    39b8:	120d0100 	andne	r0, sp, #0
    39bc:	00000513 	andeq	r0, r0, r3, lsl r5
    39c0:	00992c10 	addseq	r2, r9, r0, lsl ip
    39c4:	00052a00 	andeq	r2, r5, r0, lsl #20
    39c8:	50011100 	andpl	r1, r1, r0, lsl #2
    39cc:	00007702 	andeq	r7, r0, r2, lsl #14
    39d0:	99241200 	stmdbls	r4!, {r9, ip}
    39d4:	05360000 	ldreq	r0, [r6, #-0]!
    39d8:	38120000 	ldmdacc	r2, {}	; <UNPREDICTABLE>
    39dc:	36000099 			; <UNDEFINED> instruction: 0x36000099
    39e0:	00000005 	andeq	r0, r0, r5
    39e4:	00000000 	andeq	r0, r0, r0
    39e8:	0008241f 	andeq	r2, r8, pc, lsl r4
    39ec:	00082400 	andeq	r2, r8, r0, lsl #8
    39f0:	0ac20200 	beq	ff0841f8 <__bss_end__+0xff0792f0>
    39f4:	0007fa1f 	andeq	pc, r7, pc, lsl sl	; <UNPREDICTABLE>
    39f8:	0007fa00 	andeq	pc, r7, r0, lsl #20
    39fc:	069c0200 	ldreq	r0, [ip], r0, lsl #4
    3a00:	0005cd00 	andeq	ip, r5, r0, lsl #26
    3a04:	2f000400 	svccs	0x00000400
    3a08:	04000015 	streq	r0, [r0], #-21	; 0xffffffeb
    3a0c:	00095501 	andeq	r5, r9, r1, lsl #10
    3a10:	08940c00 	ldmeq	r4, {sl, fp}
    3a14:	09050000 	stmdbeq	r5, {}	; <UNPREDICTABLE>
    3a18:	999c0000 	ldmibls	ip, {}	; <UNPREDICTABLE>
    3a1c:	01f00000 	mvnseq	r0, r0
    3a20:	1ef40000 	cdpne	0, 15, cr0, cr4, cr0, {0}
    3a24:	04020000 	streq	r0, [r2], #-0
    3a28:	746e6905 	strbtvc	r6, [lr], #-2309	; 0xfffff6fb
    3a2c:	07040300 	streq	r0, [r4, -r0, lsl #6]
    3a30:	0000012b 	andeq	r0, r0, fp, lsr #2
    3a34:	00002c04 	andeq	r2, r0, r4, lsl #24
    3a38:	06010300 	streq	r0, [r1], -r0, lsl #6
    3a3c:	000000c3 	andeq	r0, r0, r3, asr #1
    3a40:	21050203 	tstcs	r5, r3, lsl #4
    3a44:	03000000 	movweq	r0, #0
    3a48:	00560504 	subseq	r0, r6, r4, lsl #10
    3a4c:	08030000 	stmdaeq	r3, {}	; <UNPREDICTABLE>
    3a50:	00005105 	andeq	r5, r0, r5, lsl #2
    3a54:	08010300 	stmdaeq	r1, {r8, r9}
    3a58:	000000c1 	andeq	r0, r0, r1, asr #1
    3a5c:	52070203 	andpl	r0, r7, #805306368	; 0x30000000
    3a60:	05000001 	streq	r0, [r0, #-1]
    3a64:	00000138 	andeq	r0, r0, r8, lsr r1
    3a68:	6e193405 	cfmulsvs	mvf3, mvf9, mvf5
    3a6c:	03000000 	movweq	r0, #0
    3a70:	01260704 			; <UNDEFINED> instruction: 0x01260704
    3a74:	08030000 	stmdaeq	r3, {}	; <UNPREDICTABLE>
    3a78:	00012107 	andeq	r2, r1, r7, lsl #2
    3a7c:	08010300 	stmdaeq	r1, {r8, r9}
    3a80:	000000ca 	andeq	r0, r0, sl, asr #1
    3a84:	54010706 	strpl	r0, [r1], #-1798	; 0xfffff8fa
    3a88:	04000000 	streq	r0, [r0], #-0
    3a8c:	00c20e0c 	sbceq	r0, r2, ip, lsl #28
    3a90:	3f070000 	svccc	0x00070000
    3a94:	0000000a 	andeq	r0, r0, sl
    3a98:	00087707 	andeq	r7, r8, r7, lsl #14
    3a9c:	ba070100 	blt	1c3ea4 <__bss_end__+0x1b8f9c>
    3aa0:	04000008 	streq	r0, [r0], #-8
    3aa4:	0008c907 	andeq	ip, r8, r7, lsl #18
    3aa8:	d8070500 	stmdale	r7, {r8, sl}
    3aac:	06000008 	streq	r0, [r0], -r8
    3ab0:	0008e707 	andeq	lr, r8, r7, lsl #14
    3ab4:	08070700 	stmdaeq	r7, {r8, r9, sl}
    3ab8:	0300000a 	movweq	r0, #10
    3abc:	0008f607 	andeq	pc, r8, r7, lsl #12
    3ac0:	08000200 	stmdaeq	r0, {r9}
    3ac4:	00000888 	andeq	r0, r0, r8, lsl #17
    3ac8:	0806022c 	stmdaeq	r6, {r2, r3, r5, r9}
    3acc:	0000015e 	andeq	r0, r0, lr, asr r1
    3ad0:	006f6909 	rsbeq	r6, pc, r9, lsl #18
    3ad4:	33090902 	movwcc	r0, #39170	; 0x9902
    3ad8:	00000000 	andeq	r0, r0, r0
    3adc:	72656909 	rsbvc	r6, r5, #147456	; 0x24000
    3ae0:	090a0200 	stmdbeq	sl, {r9}
    3ae4:	00000033 	andeq	r0, r0, r3, lsr r0
    3ae8:	69690904 	stmdbvs	r9!, {r2, r8, fp}^
    3aec:	11020072 	tstne	r2, r2, ror r0
    3af0:	00003309 	andeq	r3, r0, r9, lsl #6
    3af4:	6c090800 	stcvs	8, cr0, [r9], {-0}
    3af8:	02007263 	andeq	r7, r0, #805306374	; 0x30000006
    3afc:	00330913 	eorseq	r0, r3, r3, lsl r9
    3b00:	090c0000 	stmdbeq	ip, {}	; <UNPREDICTABLE>
    3b04:	0072636d 	rsbseq	r6, r2, sp, ror #6
    3b08:	33091402 	movwcc	r1, #37890	; 0x9402
    3b0c:	10000000 	andne	r0, r0, r0
    3b10:	72736c09 	rsbsvc	r6, r3, #2304	; 0x900
    3b14:	09150200 	ldmdbeq	r5, {r9}
    3b18:	00000033 	andeq	r0, r0, r3, lsr r0
    3b1c:	736d0914 	cmnvc	sp, #20, 18	; 0x50000
    3b20:	16020072 			; <UNDEFINED> instruction: 0x16020072
    3b24:	00003309 	andeq	r3, r0, r9, lsl #6
    3b28:	1f0a1800 	svcne	0x000a1800
    3b2c:	0200000a 	andeq	r0, r0, #10, 0
    3b30:	00330917 	eorseq	r0, r3, r7, lsl r9
    3b34:	0a1c0000 	beq	703b3c <__bss_end__+0x6f8c34>
    3b38:	000009e8 	andeq	r0, r0, r8, ror #19
    3b3c:	33091b02 	movwcc	r1, #39682	; 0x9b02
    3b40:	20000000 	andcs	r0, r0, r0
    3b44:	0008640a 	andeq	r6, r8, sl, lsl #8
    3b48:	091d0200 	ldmdbeq	sp, {r9}
    3b4c:	00000033 	andeq	r0, r0, r3, lsr r0
    3b50:	093a0a24 	ldmdbeq	sl!, {r2, r5, r9, fp}
    3b54:	1e020000 	cdpne	0, 0, cr0, cr2, cr0, {0}
    3b58:	00003309 	andeq	r3, r0, r9, lsl #6
    3b5c:	0b002800 	bleq	db64 <__bss_end__+0x2c5c>
    3b60:	0000093f 	andeq	r0, r0, pc, lsr r9
    3b64:	74090801 	strvc	r0, [r9], #-2049	; 0xfffff7ff
    3b68:	04000001 	streq	r0, [r0], #-1
    3b6c:	0c202150 	stfeqs	f2, [r0], #-320	; 0xfffffec0
    3b70:	00003304 	andeq	r3, r0, r4, lsl #6
    3b74:	016e0d00 	cmneq	lr, r0, lsl #26
    3b78:	270b0000 	strcs	r0, [fp, -r0]
    3b7c:	0100000a 	tsteq	r0, sl
    3b80:	018f2329 	orreq	r2, pc, r9, lsr #6
    3b84:	50400000 	subpl	r0, r0, r0
    3b88:	040c2021 	streq	r2, [ip], #-33	; 0xffffffdf
    3b8c:	000000c2 	andeq	r0, r0, r2, asr #1
    3b90:	0001890d 	andeq	r8, r1, sp, lsl #18
    3b94:	07120e00 	ldreq	r0, [r2, -r0, lsl #28]
    3b98:	cc010000 	stcgt	0, cr0, [r1], {-0}
    3b9c:	009b5406 	addseq	r5, fp, r6, lsl #8
    3ba0:	00001400 	andeq	r1, r0, r0, lsl #8
    3ba4:	b49c0100 	ldrlt	r0, [ip], #256	; 0x100
    3ba8:	0f000001 	svceq	0x00000001
    3bac:	00009b5c 	andeq	r9, r0, ip, asr fp
    3bb0:	000001b4 			; <UNDEFINED> instruction: 0x000001b4
    3bb4:	08a91000 	stmiaeq	r9!, {ip}
    3bb8:	b6010000 	strlt	r0, [r1], -r0
    3bbc:	00002505 	andeq	r2, r0, r5, lsl #10
    3bc0:	009b3400 	addseq	r3, fp, r0, lsl #8
    3bc4:	00002000 	andeq	r2, r0, r0
    3bc8:	eb9c0100 	bl	fe703fd0 <__bss_end__+0xfe6f90c8>
    3bcc:	0f000001 	svceq	0x00000001
    3bd0:	00009b3c 	andeq	r9, r0, ip, lsr fp
    3bd4:	000005a0 	andeq	r0, r0, r0, lsr #11
    3bd8:	009b4411 	addseq	r4, fp, r1, lsl r4
    3bdc:	0005ac00 	andeq	sl, r5, r0, lsl #24
    3be0:	50011200 	andpl	r1, r1, r0, lsl #4
    3be4:	50640c05 	rsbpl	r0, r4, r5, lsl #24
    3be8:	00002021 	andeq	r2, r0, r1, lsr #32
    3bec:	0009fa10 	andeq	pc, r9, r0, lsl sl	; <UNPREDICTABLE>
    3bf0:	05b30100 	ldreq	r0, [r3, #256]!	; 0x100
    3bf4:	00000025 	andeq	r0, r0, r5, lsr #32
    3bf8:	00009b24 	andeq	r9, r0, r4, lsr #22
    3bfc:	00000010 	andeq	r0, r0, r0, lsl r0
    3c00:	02189c01 	andseq	r9, r8, #256	; 0x100
    3c04:	2c0f0000 	stccs	0, cr0, [pc], {-0}
    3c08:	a000009b 	mulge	r0, fp, r0
    3c0c:	0f000005 	svceq	0x00000005
    3c10:	00009b30 	andeq	r9, r0, r0, lsr fp
    3c14:	00000309 	andeq	r0, r0, r9, lsl #6
    3c18:	0a350e00 	beq	d47420 <__bss_end__+0xd3c518>
    3c1c:	ab010000 	blge	43c24 <__bss_end__+0x38d1c>
    3c20:	009af406 	addseq	pc, sl, r6, lsl #8
    3c24:	00003000 	andeq	r3, r0, r0
    3c28:	7c9c0100 	ldfvcs	f0, [ip], {0}
    3c2c:	13000002 	movwne	r0, #2
    3c30:	ab010063 	blge	43dc4 <__bss_end__+0x38ebc>
    3c34:	00002c19 	andeq	r2, r0, r9, lsl ip
    3c38:	0026e100 	eoreq	lr, r6, r0, lsl #2
    3c3c:	0026dd00 	eoreq	sp, r6, r0, lsl #26
    3c40:	9b000f00 	blls	7848 <__code_start__-0x7b8>
    3c44:	05a00000 	streq	r0, [r0, #0]!
    3c48:	040f0000 	streq	r0, [pc], #-0	; 3c50 <__code_start__-0x43b0>
    3c4c:	db00009b 	blle	3ec0 <__code_start__-0x4140>
    3c50:	14000002 	strne	r0, [r0], #-2
    3c54:	00009b18 	andeq	r9, r0, r8, lsl fp
    3c58:	000005b8 			; <UNDEFINED> instruction: 0x000005b8
    3c5c:	00000272 	andeq	r0, r0, r2, ror r2
    3c60:	05500112 	ldrbeq	r0, [r0, #-274]	; 0xfffffeee
    3c64:	2150400c 	cmpcs	r0, ip
    3c68:	51011220 	tstpl	r1, r0, lsr #4
    3c6c:	08007405 	stmdaeq	r0, {r0, r2, sl, ip, sp, lr}
    3c70:	0f001aff 	svceq	0x00001aff
    3c74:	00009b1c 	andeq	r9, r0, ip, lsl fp
    3c78:	000005a0 	andeq	r0, r0, r0, lsr #11
    3c7c:	094b1000 	stmdbeq	fp, {ip}^
    3c80:	a3010000 	movwge	r0, #4096	; 0x1000
    3c84:	00002505 	andeq	r2, r0, r5, lsl #10
    3c88:	009ac400 	addseq	ip, sl, r0, lsl #8
    3c8c:	00003000 	andeq	r3, r0, r0
    3c90:	db9c0100 	blle	fe704098 <__bss_end__+0xfe6f9190>
    3c94:	15000002 	strne	r0, [r0, #-2]
    3c98:	a7010063 	strge	r0, [r1, -r3, rrx]
    3c9c:	00002509 	andeq	r2, r0, r9, lsl #10
    3ca0:	00270100 	eoreq	r0, r7, r0, lsl #2
    3ca4:	0026ff00 	eoreq	pc, r6, r0, lsl #30
    3ca8:	9acc0f00 	bls	ff3078b0 <__bss_end__+0xff2fc9a8>
    3cac:	05a00000 	streq	r0, [r0, #0]!
    3cb0:	d00f0000 	andle	r0, pc, r0
    3cb4:	0900009a 	stmdbeq	r0, {r1, r3, r4, r7}
    3cb8:	14000003 	strne	r0, [r0], #-3
    3cbc:	00009ae0 	andeq	r9, r0, r0, ror #21
    3cc0:	000005ac 	andeq	r0, r0, ip, lsr #11
    3cc4:	000002d1 	ldrdeq	r0, [r0], -r1
    3cc8:	05500112 	ldrbeq	r0, [r0, #-274]	; 0xfffffeee
    3ccc:	2150400c 	cmpcs	r0, ip
    3cd0:	e80f0020 	stmda	pc, {r5}	; <UNPREDICTABLE>
    3cd4:	a000009a 	mulge	r0, sl, r0
    3cd8:	00000005 	andeq	r0, r0, r5
    3cdc:	00089b10 	andeq	r9, r8, r0, lsl fp
    3ce0:	05940100 	ldreq	r0, [r4, #256]	; 0x100
    3ce4:	00000025 	andeq	r0, r0, r5, lsr #32
    3ce8:	00009aa4 	andeq	r9, r0, r4, lsr #21
    3cec:	00000020 	andeq	r0, r0, r0, lsr #32
    3cf0:	03099c01 	movweq	r9, #39937	; 0x9c01
    3cf4:	b0110000 	andslt	r0, r1, r0
    3cf8:	ac00009a 	stcge	0, cr0, [r0], {154}	; 0x9a
    3cfc:	12000005 	andne	r0, r0, #5, 0
    3d00:	0c055001 	stceq	0, cr5, [r5], {1}
    3d04:	20215064 	eorcs	r5, r1, r4, rrx
    3d08:	69100000 	ldmdbvs	r0, {}	; <UNPREDICTABLE>
    3d0c:	01000008 	tsteq	r0, r8
    3d10:	0025058b 	eoreq	r0, r5, fp, lsl #11
    3d14:	9a8c0000 	bls	fe303d1c <__bss_end__+0xfe2f8e14>
    3d18:	00180000 	andseq	r0, r8, r0
    3d1c:	9c010000 	stcls	0, cr0, [r1], {-0}
    3d20:	00000337 	andeq	r0, r0, r7, lsr r3
    3d24:	009a9811 	addseq	r9, sl, r1, lsl r8
    3d28:	0005ac00 	andeq	sl, r5, r0, lsl #24
    3d2c:	50011200 	andpl	r1, r1, r0, lsl #4
    3d30:	50640c05 	rsbpl	r0, r4, r5, lsl #24
    3d34:	00002021 	andeq	r2, r0, r1, lsr #32
    3d38:	0007300e 	andeq	r3, r7, lr
    3d3c:	06450100 	strbeq	r0, [r5], -r0, lsl #2
    3d40:	000099dc 	ldrdeq	r9, [r0], -ip
    3d44:	000000b0 	strheq	r0, [r0], -r0	; <UNPREDICTABLE>
    3d48:	04849c01 	streq	r9, [r4], #3073	; 0xc01
    3d4c:	5b160000 	blpl	583d54 <__bss_end__+0x578e4c>
    3d50:	01000008 	tsteq	r0, r8
    3d54:	00620e7e 	rsbeq	r0, r2, lr, ror lr
    3d58:	010e0000 	mrseq	r0, (UNDEF: 14)
    3d5c:	0099ec14 	addseq	lr, r9, r4, lsl ip
    3d60:	0005c400 	andeq	ip, r5, r0, lsl #8
    3d64:	00037300 	andeq	r7, r3, r0, lsl #6
    3d68:	50011200 	andpl	r1, r1, r0, lsl #4
    3d6c:	01123e01 	tsteq	r2, r1, lsl #28
    3d70:	00320151 	eorseq	r0, r2, r1, asr r1
    3d74:	0099f814 	addseq	pc, r9, r4, lsl r8	; <UNPREDICTABLE>
    3d78:	0005c400 	andeq	ip, r5, r0, lsl #8
    3d7c:	00038b00 	andeq	r8, r3, r0, lsl #22
    3d80:	50011200 	andpl	r1, r1, r0, lsl #4
    3d84:	01123f01 	tsteq	r2, r1, lsl #30
    3d88:	00320151 	eorseq	r0, r2, r1, asr r1
    3d8c:	0099fc0f 	addseq	pc, r9, pc, lsl #24
    3d90:	0005a000 	andeq	sl, r5, r0
    3d94:	9a081400 	bls	208d9c <__bss_end__+0x1fde94>
    3d98:	053d0000 	ldreq	r0, [sp, #-0]!
    3d9c:	03b00000 	movseq	r0, #0, 0
    3da0:	01120000 	tsteq	r2, r0
    3da4:	040c0550 	streq	r0, [ip], #-1360	; 0xfffffab0
    3da8:	12202150 	eorne	r2, r0, #20
    3dac:	31015101 	tstcc	r1, r1, lsl #2
    3db0:	9a0c0f00 	bls	3079b8 <__bss_end__+0x2fcab0>
    3db4:	05a00000 	streq	r0, [r0, #0]!
    3db8:	1c140000 	ldcne	0, cr0, [r4], {-0}
    3dbc:	b800009a 	stmdalt	r0, {r1, r3, r4, r7}
    3dc0:	d2000005 	andle	r0, r0, #5, 0
    3dc4:	12000003 	andne	r0, r0, #3, 0
    3dc8:	74025001 	strvc	r5, [r2], #-1
    3dcc:	51011200 	mrspl	r1, R9_usr
    3dd0:	14003001 	strne	r3, [r0], #-1
    3dd4:	00009a28 	andeq	r9, r0, r8, lsr #20
    3dd8:	000005b8 			; <UNDEFINED> instruction: 0x000005b8
    3ddc:	000003ee 	andeq	r0, r0, lr, ror #7
    3de0:	05500112 	ldrbeq	r0, [r0, #-274]	; 0xfffffeee
    3de4:	2150440c 	cmpcs	r0, ip, lsl #8
    3de8:	51011220 	tstpl	r1, r0, lsr #4
    3dec:	14003001 	strne	r3, [r0], #-1
    3df0:	00009a34 	andeq	r9, r0, r4, lsr sl
    3df4:	000005b8 			; <UNDEFINED> instruction: 0x000005b8
    3df8:	0000040a 	andeq	r0, r0, sl, lsl #8
    3dfc:	05500112 	ldrbeq	r0, [r0, #-274]	; 0xfffffeee
    3e00:	21504c0c 	cmpcs	r0, ip, lsl #24
    3e04:	51011220 	tstpl	r1, r0, lsr #4
    3e08:	14003301 	strne	r3, [r0], #-769	; 0xfffffcff
    3e0c:	00009a40 	andeq	r9, r0, r0, asr #20
    3e10:	000005b8 			; <UNDEFINED> instruction: 0x000005b8
    3e14:	00000426 	andeq	r0, r0, r6, lsr #8
    3e18:	05500112 	ldrbeq	r0, [r0, #-274]	; 0xfffffeee
    3e1c:	2150500c 	cmpcs	r0, ip
    3e20:	51011220 	tstpl	r1, r0, lsr #4
    3e24:	14003001 	strne	r3, [r0], #-1
    3e28:	00009a4c 	andeq	r9, r0, ip, asr #20
    3e2c:	000005b8 			; <UNDEFINED> instruction: 0x000005b8
    3e30:	00000443 	andeq	r0, r0, r3, asr #8
    3e34:	05500112 	ldrbeq	r0, [r0, #-274]	; 0xfffffeee
    3e38:	2150480c 	cmpcs	r0, ip, lsl #16
    3e3c:	51011220 	tstpl	r1, r0, lsr #4
    3e40:	00c70802 	sbceq	r0, r7, r2, lsl #16
    3e44:	009a5814 	addseq	r5, sl, r4, lsl r8
    3e48:	0005b800 	andeq	fp, r5, r0, lsl #16
    3e4c:	00046100 	andeq	r6, r4, r0, lsl #2
    3e50:	50011200 	andpl	r1, r1, r0, lsl #4
    3e54:	50680c05 	rsbpl	r0, r8, r5, lsl #24
    3e58:	01122021 	tsteq	r2, r1, lsr #32
    3e5c:	0e0a0351 	mcreq	3, 0, r0, cr10, cr1, {2}
    3e60:	64140001 	ldrvs	r0, [r4], #-1
    3e64:	b800009a 	stmdalt	r0, {r1, r3, r4, r7}
    3e68:	7a000005 	bvc	3e84 <__code_start__-0x417c>
    3e6c:	12000004 	andne	r0, r0, #4, 0
    3e70:	74025001 	strvc	r5, [r2], #-1
    3e74:	51011200 	mrspl	r1, R9_usr
    3e78:	0f003301 	svceq	0x00003301
    3e7c:	00009a68 	andeq	r9, r0, r8, ror #20
    3e80:	000005a0 	andeq	r0, r0, r0, lsr #11
    3e84:	09ed0e00 	stmibeq	sp!, {r9, sl, fp}^
    3e88:	35010000 	strcc	r0, [r1, #-0]
    3e8c:	009b6806 	addseq	r6, fp, r6, lsl #16
    3e90:	00002400 	andeq	r2, r0, r0, lsl #8
    3e94:	d39c0100 	orrsle	r0, ip, #0
    3e98:	0f000004 	svceq	0x00000004
    3e9c:	00009b70 	andeq	r9, r0, r0, ror fp
    3ea0:	00000194 	muleq	r0, r4, r1
    3ea4:	009b740f 	addseq	r7, fp, pc, lsl #8
    3ea8:	0005a000 	andeq	sl, r5, r0
    3eac:	9b801400 	blls	fe008eb4 <__bss_end__+0xfdffdfac>
    3eb0:	04d30000 	ldrbeq	r0, [r3], #0
    3eb4:	04c90000 	strbeq	r0, [r9], #0
    3eb8:	01120000 	tsteq	r2, r0
    3ebc:	040c0550 	streq	r0, [ip], #-1360	; 0xfffffab0
    3ec0:	12202150 	eorne	r2, r0, #20
    3ec4:	09025101 	stmdbeq	r2, {r0, r8, ip, lr}
    3ec8:	840f00fe 	strhi	r0, [pc], #-254	; 3ed0 <__code_start__-0x4130>
    3ecc:	a000009b 	mulge	r0, fp, r0
    3ed0:	00000005 	andeq	r0, r0, r5
    3ed4:	000a2c17 	andeq	r2, sl, r7, lsl ip
    3ed8:	0d310100 	ldfeqs	f0, [r1, #-0]
    3edc:	0000999c 	muleq	r0, ip, r9
    3ee0:	00000020 	andeq	r0, r0, r0, lsr #32
    3ee4:	05369c01 	ldreq	r9, [r6, #-3073]!	; 0xfffff3ff
    3ee8:	86180000 	ldrhi	r0, [r8], -r0
    3eec:	0100000a 	tsteq	r0, sl
    3ef0:	05362531 	ldreq	r2, [r6, #-1329]!	; 0xfffffacf
    3ef4:	27180000 	ldrcs	r0, [r8, -r0]
    3ef8:	27140000 	ldrcs	r0, [r4, -r0]
    3efc:	76130000 	ldrvc	r0, [r3], -r0
    3f00:	01006c61 	tsteq	r0, r1, ror #24
    3f04:	002c3431 	eoreq	r3, ip, r1, lsr r4
    3f08:	273a0000 	ldrcs	r0, [sl, -r0]!
    3f0c:	27360000 	ldrcs	r0, [r6, -r0]!
    3f10:	ac140000 	ldcge	0, cr0, [r4], {-0}
    3f14:	ac000099 	stcge	0, cr0, [r0], {153}	; 0x99
    3f18:	25000005 	strcs	r0, [r0, #-5]
    3f1c:	12000005 	andne	r0, r0, #5, 0
    3f20:	74025001 	strvc	r5, [r2], #-1
    3f24:	b8110000 	ldmdalt	r1, {}	; <UNPREDICTABLE>
    3f28:	b8000099 	stmdalt	r0, {r0, r3, r4, r7}
    3f2c:	12000005 	andne	r0, r0, #5, 0
    3f30:	74025001 	strvc	r5, [r2], #-1
    3f34:	0c000000 	stceq	0, cr0, [r0], {-0}
    3f38:	00053c04 	andeq	r3, r5, r4, lsl #24
    3f3c:	17171900 	ldrne	r1, [r7, -r0, lsl #18]
    3f40:	0100000a 	tsteq	r0, sl
    3f44:	99bc0d2e 	ldmibls	ip!, {r1, r2, r3, r5, r8, sl, fp}
    3f48:	00200000 	eoreq	r0, r0, r0
    3f4c:	9c010000 	stcls	0, cr0, [r1], {-0}
    3f50:	000005a0 	andeq	r0, r0, r0, lsr #11
    3f54:	000a8618 	andeq	r8, sl, r8, lsl r6
    3f58:	242e0100 	strtcs	r0, [lr], #-256	; 0xffffff00
    3f5c:	00000536 	andeq	r0, r0, r6, lsr r5
    3f60:	0000275c 	andeq	r2, r0, ip, asr r7
    3f64:	00002758 	andeq	r2, r0, r8, asr r7
    3f68:	6c617613 	stclvs	6, cr7, [r1], #-76	; 0xffffffb4
    3f6c:	332e0100 			; <UNDEFINED> instruction: 0x332e0100
    3f70:	0000002c 	andeq	r0, r0, ip, lsr #32
    3f74:	0000277e 	andeq	r2, r0, lr, ror r7
    3f78:	0000277a 	andeq	r2, r0, sl, ror r7
    3f7c:	0099cc14 	addseq	ip, r9, r4, lsl ip
    3f80:	0005ac00 	andeq	sl, r5, r0, lsl #24
    3f84:	00058f00 	andeq	r8, r5, r0, lsl #30
    3f88:	50011200 	andpl	r1, r1, r0, lsl #4
    3f8c:	00007402 	andeq	r7, r0, r2, lsl #8
    3f90:	0099d811 	addseq	sp, r9, r1, lsl r8
    3f94:	0005b800 	andeq	fp, r5, r0, lsl #16
    3f98:	50011200 	andpl	r1, r1, r0, lsl #4
    3f9c:	00007402 	andeq	r7, r0, r2, lsl #8
    3fa0:	07fa1a00 	ldrbeq	r1, [sl, r0, lsl #20]!
    3fa4:	07fa0000 	ldrbeq	r0, [sl, r0]!
    3fa8:	9c030000 	stcls	0, cr0, [r3], {-0}
    3fac:	0a611a06 	beq	184a7cc <__bss_end__+0x183f8c4>
    3fb0:	0a610000 	beq	1843fb8 <__bss_end__+0x18390b0>
    3fb4:	c3030000 	movwgt	r0, #12288	; 0x3000
    3fb8:	08551a0b 	ldmdaeq	r5, {r0, r1, r3, r9, fp, ip}^
    3fbc:	08550000 	ldmdaeq	r5, {}^	; <UNPREDICTABLE>
    3fc0:	ae030000 	cdpge	0, 0, cr0, cr3, cr0, {0}
    3fc4:	0a4f1a06 	beq	13ca7e4 <__bss_end__+0x13bf8dc>
    3fc8:	0a4f0000 	beq	13c3fd0 <__bss_end__+0x13b90c8>
    3fcc:	19040000 	stmdbne	r4, {}	; <UNPREDICTABLE>
    3fd0:	08e90006 	stmiaeq	r9!, {r1, r2}^
    3fd4:	00040000 	andeq	r0, r4, r0
    3fd8:	000016c7 	andeq	r1, r0, r7, asr #13
    3fdc:	09550104 	ldmdbeq	r5, {r2, r8}^
    3fe0:	f10c0000 	cpsid	
    3fe4:	0500000a 	streq	r0, [r0, #-10]
    3fe8:	8c000009 	stchi	0, cr0, [r0], {9}
    3fec:	b000009b 	mullt	r0, fp, r0
    3ff0:	fc000003 	stc2	0, cr0, [r0], {3}
    3ff4:	02000020 	andeq	r0, r0, #32, 0
    3ff8:	6e690504 	cdpvs	5, 6, cr0, cr9, cr4, {0}
    3ffc:	04030074 	streq	r0, [r3], #-116	; 0xffffff8c
    4000:	00012b07 	andeq	r2, r1, r7, lsl #22
    4004:	06010300 	streq	r0, [r1], -r0, lsl #6
    4008:	000000c3 	andeq	r0, r0, r3, asr #1
    400c:	21050203 	tstcs	r5, r3, lsl #4
    4010:	03000000 	movweq	r0, #0
    4014:	00560504 	subseq	r0, r6, r4, lsl #10
    4018:	08030000 	stmdaeq	r3, {}	; <UNPREDICTABLE>
    401c:	00005105 	andeq	r5, r0, r5, lsl #2
    4020:	08010300 	stmdaeq	r1, {r8, r9}
    4024:	000000c1 	andeq	r0, r0, r1, asr #1
    4028:	52070203 	andpl	r0, r7, #805306368	; 0x30000000
    402c:	04000001 	streq	r0, [r0], #-1
    4030:	00000138 	andeq	r0, r0, r8, lsr r1
    4034:	69193403 	ldmdbvs	r9, {r0, r1, sl, ip, sp}
    4038:	03000000 	movweq	r0, #0
    403c:	01260704 			; <UNDEFINED> instruction: 0x01260704
    4040:	08030000 	stmdaeq	r3, {}	; <UNPREDICTABLE>
    4044:	00012107 	andeq	r2, r1, r7, lsl #2
    4048:	08010300 	stmdaeq	r1, {r8, r9}
    404c:	000000ca 	andeq	r0, r0, sl, asr #1
    4050:	00007705 	andeq	r7, r0, r5, lsl #14
    4054:	04080300 	streq	r0, [r8], #-768	; 0xfffffd00
    4058:	0000042a 	andeq	r0, r0, sl, lsr #8
    405c:	07070406 	streq	r0, [r7, -r6, lsl #8]
    4060:	00002c04 	andeq	r2, r0, r4, lsl #24
    4064:	061f0100 	ldreq	r0, [pc], -r0, lsl #2
    4068:	000000a4 	andeq	r0, r0, r4, lsr #1
    406c:	000a8b08 	andeq	r8, sl, r8, lsl #22
    4070:	20000000 	andcs	r0, r0, r0
    4074:	5b090000 	blpl	24407c <__bss_end__+0x239174>
    4078:	01000006 	tsteq	r0, r6
    407c:	00770d22 	rsbseq	r0, r7, r2, lsr #26
    4080:	ff0a0000 			; <UNDEFINED> instruction: 0xff0a0000
    4084:	01000004 	tsteq	r0, r4
    4088:	00c20e23 	sbceq	r0, r2, r3, lsr #28
    408c:	03050000 	movweq	r0, #20480	; 0x5000
    4090:	0000aad0 	ldrdeq	sl, [r0], -r0
    4094:	0077040b 	rsbseq	r0, r7, fp, lsl #8
    4098:	6f0a0000 	svcvs	0x000a0000
    409c:	0100000a 	tsteq	r0, sl
    40a0:	00c20e24 	sbceq	r0, r2, r4, lsr #28
    40a4:	03050000 	movweq	r0, #20480	; 0x5000
    40a8:	0000aad4 	ldrdeq	sl, [r0], -r4
    40ac:	000ad00a 	andeq	sp, sl, sl
    40b0:	0e250100 	sufeqs	f0, f5, f0
    40b4:	000000c2 	andeq	r0, r0, r2, asr #1
    40b8:	aad80305 	bge	ff604cd4 <__bss_end__+0xff5f9dcc>
    40bc:	a60c0000 	strge	r0, [ip], -r0
    40c0:	0100000a 	tsteq	r0, sl
    40c4:	9edc0675 	mrcls	6, 6, r0, cr12, cr5, {3}
    40c8:	00600000 	rsbeq	r0, r0, r0
    40cc:	9c010000 	stcls	0, cr0, [r1], {-0}
    40d0:	00000164 	andeq	r0, r0, r4, ror #2
    40d4:	0100700d 	tsteq	r0, sp
    40d8:	008a1675 	addeq	r1, sl, r5, ror r6
    40dc:	27a20000 	strcs	r0, [r2, r0]!
    40e0:	279c0000 	ldrcs	r0, [ip, r0]
    40e4:	900e0000 	andls	r0, lr, r0
    40e8:	74000000 	strvc	r0, [r0], #-0
    40ec:	05000001 	streq	r0, [r0, #-1]
    40f0:	00aac003 	adceq	ip, sl, r3
    40f4:	9f280f00 	svcls	0x00280f00
    40f8:	08bc0000 	ldmeq	ip!, {}	; <UNPREDICTABLE>
    40fc:	015a0000 	cmpeq	sl, r0
    4100:	01100000 	tsteq	r0, r0
    4104:	38030550 	stmdacc	r3, {r4, r6, r8, sl}
    4108:	100000aa 	andne	r0, r0, sl, lsr #1
    410c:	03055101 	movweq	r5, #20737	; 0x5101
    4110:	0000a8d0 	ldrdeq	sl, [r0], -r0
    4114:	05520110 	ldrbeq	r0, [r2, #-272]	; 0xfffffef0
    4118:	00aac003 	adceq	ip, sl, r3
    411c:	53011000 	movwpl	r1, #4096	; 0x1000
    4120:	10770802 	rsbsne	r0, r7, r2, lsl #16
    4124:	03007d02 	movweq	r7, #3330	; 0xd02
    4128:	005001f3 	ldrsheq	r0, [r0], #-19	; 0xffffffed
    412c:	009f2c11 	addseq	r2, pc, r1, lsl ip	; <UNPREDICTABLE>
    4130:	0008c800 	andeq	ip, r8, r0, lsl #16
    4134:	7e120000 	cdpvc	0, 1, cr0, cr2, cr0, {0}
    4138:	74000000 	strvc	r0, [r0], #-0
    413c:	13000001 	movwne	r0, #1
    4140:	0000002c 	andeq	r0, r0, ip, lsr #32
    4144:	64050009 	strvs	r0, [r5], #-9
    4148:	14000001 	strne	r0, [r0], #-1
    414c:	00000a94 	muleq	r0, r4, sl
    4150:	c8067201 	stmdagt	r6, {r0, r9, ip, sp, lr}
    4154:	1400009e 	strne	r0, [r0], #-158	; 0xffffff62
    4158:	01000000 	mrseq	r0, (UNDEF: 0)
    415c:	02940c9c 	addseq	r0, r4, #156, 24	; 0x9c00
    4160:	6f010000 	svcvs	0x00010000
    4164:	009ec406 	addseq	ip, lr, r6, lsl #8
    4168:	00000400 	andeq	r0, r0, r0, lsl #8
    416c:	ae9c0100 	fmlgee	f0, f4, f0
    4170:	15000001 	strne	r0, [r0, #-1]
    4174:	6f010070 	svcvs	0x00010070
    4178:	00008a12 	andeq	r8, r0, r2, lsl sl
    417c:	00500100 	subseq	r0, r0, r0, lsl #2
    4180:	000b3316 	andeq	r3, fp, r6, lsl r3
    4184:	075e0100 	ldrbeq	r0, [lr, -r0, lsl #2]
    4188:	0000008a 	andeq	r0, r0, sl, lsl #1
    418c:	00009dac 	andeq	r9, r0, ip, lsr #27
    4190:	00000118 	andeq	r0, r0, r8, lsl r1
    4194:	042c9c01 	strteq	r9, [ip], #-3073	; 0xfffff3ff
    4198:	e5170000 	ldr	r0, [r7, #-0]
    419c:	01000003 	tsteq	r0, r3
    41a0:	002c205e 	eoreq	r2, ip, lr, asr r0
    41a4:	27e30000 	strbcs	r0, [r3, r0]!
    41a8:	27cf0000 	strbcs	r0, [pc, r0]
    41ac:	b0170000 	andslt	r0, r7, r0
    41b0:	0100000a 	tsteq	r0, sl
    41b4:	002c315e 	eoreq	r3, ip, lr, asr r1
    41b8:	287c0000 	ldmdacs	ip!, {}^	; <UNPREDICTABLE>
    41bc:	28680000 	stmdacs	r8!, {}^	; <UNPREDICTABLE>
    41c0:	900e0000 	andls	r0, lr, r0
    41c4:	3c000000 	stccc	0, cr0, [r0], {-0}
    41c8:	05000004 	streq	r0, [r0, #-4]
    41cc:	00aaa803 	adceq	sl, sl, r3, lsl #16
    41d0:	00681800 	rsbeq	r1, r8, r0, lsl #16
    41d4:	2c0e6601 	stccs	6, cr6, [lr], {1}
    41d8:	32000000 	andcc	r0, r0, #0, 0
    41dc:	26000029 	strcs	r0, [r0], -r9, lsr #32
    41e0:	19000029 	stmdbne	r0, {r0, r3, r5}
    41e4:	00000854 	andeq	r0, r0, r4, asr r8
    41e8:	00009dbc 			; <UNDEFINED> instruction: 0x00009dbc
    41ec:	009dbc04 	addseq	fp, sp, r4, lsl #24
    41f0:	00000400 	andeq	r0, r0, r0, lsl #8
    41f4:	05600100 	strbeq	r0, [r0, #-256]!	; 0xffffff00
    41f8:	00000238 	andeq	r0, r0, r8, lsr r2
    41fc:	0008651a 	andeq	r6, r8, sl, lsl r5
    4200:	00298600 	eoreq	r8, r9, r0, lsl #12
    4204:	00298400 	eoreq	r8, r9, r0, lsl #8
    4208:	96190000 	ldrls	r0, [r9], -r0
    420c:	c8000008 	stmdagt	r0, {r3}
    4210:	0200009d 	andeq	r0, r0, #157, 0	; 0x9d
    4214:	00009dc8 	andeq	r9, r0, r8, asr #27
    4218:	00000008 	andeq	r0, r0, r8
    421c:	6c116101 	ldfvss	f6, [r1], {1}
    4220:	1a000002 	bne	4230 <__code_start__-0x3dd0>
    4224:	000008b1 			; <UNDEFINED> instruction: 0x000008b1
    4228:	0000299b 	muleq	r0, fp, r9
    422c:	00002999 	muleq	r0, r9, r9
    4230:	0008a71a 	andeq	sl, r8, sl, lsl r7
    4234:	0029b100 	eoreq	fp, r9, r0, lsl #2
    4238:	0029af00 	eoreq	sl, r9, r0, lsl #30
    423c:	1f1b0000 	svcne	0x001b0000
    4240:	d8000008 	stmdale	r0, {r3}
    4244:	0100009d 	swpeq	r0, sp, [r0]	; <UNPREDICTABLE>
    4248:	00000548 	andeq	r0, r0, r8, asr #10
    424c:	0a096701 	beq	25de58 <__bss_end__+0x252f50>
    4250:	1a000003 	bne	4264 <__code_start__-0x3d9c>
    4254:	0000083a 	andeq	r0, r0, sl, lsr r8
    4258:	000029ca 	andeq	r2, r0, sl, asr #19
    425c:	000029c4 	andeq	r2, r0, r4, asr #19
    4260:	0008301a 	andeq	r3, r8, sl, lsl r0
    4264:	002a1100 	eoreq	r1, sl, r0, lsl #2
    4268:	002a0900 	eoreq	r0, sl, r0, lsl #18
    426c:	05481c00 	strbeq	r1, [r8, #-3072]	; 0xfffff400
    4270:	54190000 	ldrpl	r0, [r9], #-0
    4274:	d8000008 	stmdale	r0, {r3}
    4278:	0400009d 	streq	r0, [r0], #-157	; 0xffffff63
    427c:	00009dd8 	ldrdeq	r9, [r0], -r8
    4280:	00000004 	andeq	r0, r0, r4
    4284:	c7051101 	strgt	r1, [r5, -r1, lsl #2]
    4288:	1a000002 	bne	4298 <__code_start__-0x3d68>
    428c:	00000865 	andeq	r0, r0, r5, ror #16
    4290:	00002a4f 	andeq	r2, r0, pc, asr #20
    4294:	00002a4d 	andeq	r2, r0, sp, asr #20
    4298:	9e700f00 	cdpls	15, 7, cr0, cr0, cr0, {0}
    429c:	08bc0000 	ldmeq	ip!, {}	; <UNPREDICTABLE>
    42a0:	02ff0000 	rscseq	r0, pc, #0, 0
    42a4:	01100000 	tsteq	r0, r0
    42a8:	08030550 	stmdaeq	r3, {r4, r6, r8, sl}
    42ac:	100000a2 	andne	r0, r0, r2, lsr #1
    42b0:	03055101 	movweq	r5, #20737	; 0x5101
    42b4:	0000a8d0 	ldrdeq	sl, [r0], -r0
    42b8:	05520110 	ldrbeq	r0, [r2, #-272]	; 0xfffffef0
    42bc:	00aab803 	adceq	fp, sl, r3, lsl #16
    42c0:	53011000 	movwpl	r1, #4096	; 0x1000
    42c4:	02104101 	andseq	r4, r0, #1073741824	; 0x40000000
    42c8:	0305007d 	movweq	r0, #20605	; 0x507d
    42cc:	0000a9e4 	andeq	sl, r0, r4, ror #19
    42d0:	9e741100 	rpwlss	f1, f4, f0
    42d4:	08c80000 	stmiaeq	r8, {}^	; <UNPREDICTABLE>
    42d8:	00000000 	andeq	r0, r0, r0
    42dc:	00087019 	andeq	r7, r8, r9, lsl r0
    42e0:	009df000 	addseq	pc, sp, r0
    42e4:	9df00300 	ldclls	3, cr0, [r0]
    42e8:	00040000 	andeq	r0, r4, r0
    42ec:	68010000 	stmdavs	r1, {}	; <UNPREDICTABLE>
    42f0:	00033e05 	andeq	r3, r3, r5, lsl #28
    42f4:	088b1a00 	stmeq	fp, {r9, fp, ip}
    42f8:	2a640000 	bcs	1904300 <__bss_end__+0x18f93f8>
    42fc:	2a620000 	bcs	1884304 <__bss_end__+0x18793fc>
    4300:	811a0000 	tsthi	sl, r0
    4304:	79000008 	stmdbvc	r0, {r3}
    4308:	7700002a 	strvc	r0, [r0, -sl, lsr #32]
    430c:	0000002a 	andeq	r0, r0, sl, lsr #32
    4310:	009e080f 	addseq	r0, lr, pc, lsl #16
    4314:	00044100 	andeq	r4, r4, r0, lsl #2
    4318:	00035300 	andeq	r5, r3, r0, lsl #6
    431c:	50011000 	andpl	r1, r1, r0
    4320:	5001f303 	andpl	pc, r1, r3, lsl #6
    4324:	9e2c0f00 	cdpls	15, 2, cr0, cr12, cr0, {0}
    4328:	08bc0000 	ldmeq	ip!, {}	; <UNPREDICTABLE>
    432c:	038c0000 	orreq	r0, ip, #0, 0
    4330:	01100000 	tsteq	r0, r0
    4334:	08030550 	stmdaeq	r3, {r4, r6, r8, sl}
    4338:	100000a2 	andne	r0, r0, r2, lsr #1
    433c:	03055101 	movweq	r5, #20737	; 0x5101
    4340:	0000a8d0 	ldrdeq	sl, [r0], -r0
    4344:	05520110 	ldrbeq	r0, [r2, #-272]	; 0xfffffef0
    4348:	00aaa803 	adceq	sl, sl, r3, lsl #16
    434c:	53011000 	movwpl	r1, #4096	; 0x1000
    4350:	105f0802 	subsne	r0, pc, r2, lsl #16
    4354:	05007d02 	streq	r7, [r0, #-3330]	; 0xfffff2fe
    4358:	00a8e003 	adceq	lr, r8, r3
    435c:	30110000 	andscc	r0, r1, r0
    4360:	c800009e 	stmdagt	r0, {r1, r2, r3, r4, r7}
    4364:	11000008 	tstne	r0, r8
    4368:	00009e34 	andeq	r9, r0, r4, lsr lr
    436c:	000008d4 	ldrdeq	r0, [r0], -r4
    4370:	009e500f 	addseq	r5, lr, pc
    4374:	0008bc00 	andeq	fp, r8, r0, lsl #24
    4378:	0003d700 	andeq	sp, r3, r0, lsl #14
    437c:	50011000 	andpl	r1, r1, r0
    4380:	a99c0305 	ldmibge	ip, {r0, r2, r8, r9}
    4384:	01100000 	tsteq	r0, r0
    4388:	d0030551 	andle	r0, r3, r1, asr r5
    438c:	100000a8 	andne	r0, r0, r8, lsr #1
    4390:	03055201 	movweq	r5, #20993	; 0x5201
    4394:	0000aaa8 	andeq	sl, r0, r8, lsr #21
    4398:	02530110 	subseq	r0, r3, #4
    439c:	02106008 	andseq	r6, r0, #8, 0
    43a0:	0305007d 	movweq	r0, #20605	; 0x507d
    43a4:	0000a9d0 	ldrdeq	sl, [r0], -r0
    43a8:	9e541100 	rdflss	f1, f4, f0
    43ac:	08c80000 	stmiaeq	r8, {}^	; <UNPREDICTABLE>
    43b0:	78110000 	ldmdavc	r1, {}	; <UNPREDICTABLE>
    43b4:	d400009e 	strle	r0, [r0], #-158	; 0xffffff62
    43b8:	0f000008 	svceq	0x00000008
    43bc:	00009e94 	muleq	r0, r4, lr
    43c0:	000008bc 			; <UNDEFINED> instruction: 0x000008bc
    43c4:	00000422 	andeq	r0, r0, r2, lsr #8
    43c8:	05500110 	ldrbeq	r0, [r0, #-272]	; 0xfffffef0
    43cc:	00a9f003 	adceq	pc, r9, r3
    43d0:	51011000 	mrspl	r1, (UNDEF: 1)
    43d4:	a8d00305 	ldmge	r0, {r0, r2, r8, r9}^
    43d8:	01100000 	tsteq	r0, r0
    43dc:	a8030552 	stmdage	r3, {r1, r4, r6, r8, sl}
    43e0:	100000aa 	andne	r0, r0, sl, lsr #1
    43e4:	08025301 	stmdaeq	r2, {r0, r8, r9, ip, lr}
    43e8:	7d021068 	stcvc	0, cr1, [r2, #-416]	; 0xfffffe60
    43ec:	1c030500 	cfstr32ne	mvfx0, [r3], {-0}
    43f0:	000000aa 	andeq	r0, r0, sl, lsr #1
    43f4:	009e9811 	addseq	r9, lr, r1, lsl r8
    43f8:	0008c800 	andeq	ip, r8, r0, lsl #16
    43fc:	7e120000 	cdpvc	0, 1, cr0, cr2, cr0, {0}
    4400:	3c000000 	stccc	0, cr0, [r0], {-0}
    4404:	13000004 	movwne	r0, #4
    4408:	0000002c 	andeq	r0, r0, ip, lsr #32
    440c:	2c05000f 	stccs	0, cr0, [r5], {15}
    4410:	16000004 	strne	r0, [r0], -r4
    4414:	00000530 	andeq	r0, r0, r0, lsr r5
    4418:	8a075301 	bhi	1d9024 <__bss_end__+0x1ce11c>
    441c:	48000000 	stmdami	r0, {}	; <UNPREDICTABLE>
    4420:	6400009d 	strvs	r0, [r0], #-157	; 0xffffff63
    4424:	01000000 	mrseq	r0, (UNDEF: 0)
    4428:	0005089c 	muleq	r5, ip, r8
    442c:	03e51700 	mvneq	r1, #0, 14
    4430:	53010000 	movwpl	r0, #4096	; 0x1000
    4434:	00002c18 	andeq	r2, r0, r8, lsl ip
    4438:	002a9400 	eoreq	r9, sl, r0, lsl #8
    443c:	002a8c00 	eoreq	r8, sl, r0, lsl #24
    4440:	00900e00 	addseq	r0, r0, r0, lsl #28
    4444:	05180000 	ldreq	r0, [r8, #-0]
    4448:	03050000 	movweq	r0, #20480	; 0x5000
    444c:	0000aaa0 	andeq	sl, r0, r0, lsr #21
    4450:	000a861d 	andeq	r8, sl, sp, lsl r6
    4454:	0b550100 	bleq	154485c <__bss_end__+0x1539954>
    4458:	0000008a 	andeq	r0, r0, sl, lsl #1
    445c:	00002acc 	andeq	r2, r0, ip, asr #21
    4460:	00002ac8 	andeq	r2, r0, r8, asr #21
    4464:	009d600f 	addseq	r6, sp, pc
    4468:	00051d00 	andeq	r1, r5, r0, lsl #26
    446c:	0004a600 	andeq	sl, r4, r0, lsl #12
    4470:	50011000 	andpl	r1, r1, r0
    4474:	00007402 	andeq	r7, r0, r2, lsl #8
    4478:	009d700f 	addseq	r7, sp, pc
    447c:	0008e000 	andeq	lr, r8, r0
    4480:	0004c500 	andeq	ip, r4, r0, lsl #10
    4484:	50011000 	andpl	r1, r1, r0
    4488:	10007502 	andne	r7, r0, r2, lsl #10
    448c:	30015101 	andcc	r5, r1, r1, lsl #2
    4490:	02520110 	subseq	r0, r2, #4
    4494:	0f000074 	svceq	0x00000074
    4498:	00009d98 	muleq	r0, r8, sp
    449c:	000008bc 			; <UNDEFINED> instruction: 0x000008bc
    44a0:	000004fe 	strdeq	r0, [r0], -lr
    44a4:	05500110 	ldrbeq	r0, [r0, #-272]	; 0xfffffef0
    44a8:	00a20803 	adceq	r0, r2, r3, lsl #16
    44ac:	51011000 	mrspl	r1, (UNDEF: 1)
    44b0:	a8d00305 	ldmge	r0, {r0, r2, r8, r9}^
    44b4:	01100000 	tsteq	r0, r0
    44b8:	a0030552 	andge	r0, r3, r2, asr r5
    44bc:	100000aa 	andne	r0, r0, sl, lsr #1
    44c0:	08025301 	stmdaeq	r2, {r0, r8, r9, ip, lr}
    44c4:	7d021054 	stcvc	0, cr1, [r2, #-336]	; 0xfffffeb0
    44c8:	e0030500 	and	r0, r3, r0, lsl #10
    44cc:	000000a8 	andeq	r0, r0, r8, lsr #1
    44d0:	009d9c11 	addseq	r9, sp, r1, lsl ip
    44d4:	0008c800 	andeq	ip, r8, r0, lsl #16
    44d8:	7e120000 	cdpvc	0, 1, cr0, cr2, cr0, {0}
    44dc:	18000000 	stmdane	r0, {}	; <UNPREDICTABLE>
    44e0:	13000005 	movwne	r0, #5
    44e4:	0000002c 	andeq	r0, r0, ip, lsr #32
    44e8:	08050007 	stmdaeq	r5, {r0, r1, r2}
    44ec:	16000005 	strne	r0, [r0], -r5
    44f0:	00000ad9 	ldrdeq	r0, [r0], -r9
    44f4:	8a074701 	bhi	1d6100 <__bss_end__+0x1cb1f8>
    44f8:	b0000000 	andlt	r0, r0, r0
    44fc:	9800009c 	stmdals	r0, {r2, r3, r4, r7}
    4500:	01000000 	mrseq	r0, (UNDEF: 0)
    4504:	00062b9c 	muleq	r6, ip, fp
    4508:	03e51700 	mvneq	r1, #0, 14
    450c:	47010000 	strmi	r0, [r1, -r0]
    4510:	00002c20 	andeq	r2, r0, r0, lsr #24
    4514:	002afa00 	eoreq	pc, sl, r0, lsl #20
    4518:	002aea00 	eoreq	lr, sl, r0, lsl #20
    451c:	00900e00 	addseq	r0, r0, r0, lsl #28
    4520:	043c0000 	ldrteq	r0, [ip], #-0
    4524:	03050000 	movweq	r0, #20480	; 0x5000
    4528:	0000aa90 	muleq	r0, r0, sl
    452c:	000a861d 	andeq	r8, sl, sp, lsl r6
    4530:	0b4b0100 	bleq	12c4938 <__bss_end__+0x12b9a30>
    4534:	0000008a 	andeq	r0, r0, sl, lsl #1
    4538:	00002b6c 	andeq	r2, r0, ip, ror #22
    453c:	00002b68 	andeq	r2, r0, r8, ror #22
    4540:	00081f1b 	andeq	r1, r8, fp, lsl pc
    4544:	009cc000 	addseq	ip, ip, r0
    4548:	05300300 	ldreq	r0, [r0, #-768]!	; 0xfffffd00
    454c:	49010000 	stmdbmi	r1, {}	; <UNPREDICTABLE>
    4550:	0005a30e 	andeq	sl, r5, lr, lsl #6
    4554:	083a1a00 	ldmdaeq	sl!, {r9, fp, ip}
    4558:	2b8c0000 	blcs	fe304560 <__bss_end__+0xfe2f9658>
    455c:	2b8a0000 	blcs	fe284564 <__bss_end__+0xfe27965c>
    4560:	301a0000 	andscc	r0, sl, r0
    4564:	a4000008 	strge	r0, [r0], #-8
    4568:	a000002b 	andge	r0, r0, fp, lsr #32
    456c:	1e00002b 	cdpne	0, 0, cr0, cr0, cr11, {1}
    4570:	00000530 	andeq	r0, r0, r0, lsr r5
    4574:	9d080f00 	stcls	15, cr0, [r8, #-0]
    4578:	08bc0000 	ldmeq	ip!, {}	; <UNPREDICTABLE>
    457c:	05dc0000 	ldrbeq	r0, [ip]
    4580:	01100000 	tsteq	r0, r0
    4584:	08030550 	stmdaeq	r3, {r4, r6, r8, sl}
    4588:	100000a2 	andne	r0, r0, r2, lsr #1
    458c:	03055101 	movweq	r5, #20737	; 0x5101
    4590:	0000a8d0 	ldrdeq	sl, [r0], -r0
    4594:	05520110 	ldrbeq	r0, [r2, #-272]	; 0xfffffef0
    4598:	00aa9003 	adceq	r9, sl, r3
    459c:	53011000 	movwpl	r1, #4096	; 0x1000
    45a0:	10480802 	subne	r0, r8, r2, lsl #16
    45a4:	05007d02 	streq	r7, [r0, #-3330]	; 0xfffff2fe
    45a8:	00a8e003 	adceq	lr, r8, r3
    45ac:	0c110000 	ldceq	0, cr0, [r1], {-0}
    45b0:	c800009d 	stmdagt	r0, {r0, r2, r3, r4, r7}
    45b4:	0f000008 	svceq	0x00000008
    45b8:	00009d2c 	andeq	r9, r0, ip, lsr #26
    45bc:	000008bc 			; <UNDEFINED> instruction: 0x000008bc
    45c0:	00000621 	andeq	r0, r0, r1, lsr #12
    45c4:	05500110 	ldrbeq	r0, [r0, #-272]	; 0xfffffef0
    45c8:	00a95c03 	adceq	r5, r9, r3, lsl #24
    45cc:	51011000 	mrspl	r1, (UNDEF: 1)
    45d0:	a8d00305 	ldmge	r0, {r0, r2, r8, r9}^
    45d4:	01100000 	tsteq	r0, r0
    45d8:	90030552 	andls	r0, r3, r2, asr r5
    45dc:	100000aa 	andne	r0, r0, sl, lsr #1
    45e0:	08025301 	stmdaeq	r2, {r0, r8, r9, ip, lr}
    45e4:	7d02104e 	stcvc	0, cr1, [r2, #-312]	; 0xfffffec8
    45e8:	01f30800 	mvnseq	r0, r0, lsl #16
    45ec:	09072350 	stmdbeq	r7, {r4, r6, r8, r9, sp}
    45f0:	11001af8 	strdne	r1, [r0, -r8]
    45f4:	00009d30 	andeq	r9, r0, r0, lsr sp
    45f8:	000008c8 	andeq	r0, r0, r8, asr #17
    45fc:	0afb0c00 	beq	ffec7604 <__bss_end__+0xffebc6fc>
    4600:	3c010000 	stccc	0, cr0, [r1], {-0}
    4604:	009c5806 	addseq	r5, ip, r6, lsl #16
    4608:	00005800 	andeq	r5, r0, r0, lsl #16
    460c:	cf9c0100 	svcgt	0x009c0100
    4610:	0a000006 	beq	4630 <__code_start__-0x39d0>
    4614:	00000488 	andeq	r0, r0, r8, lsl #9
    4618:	25103d01 	ldrcs	r3, [r0, #-3329]	; 0xfffff2ff
    461c:	05000000 	streq	r0, [r0, #-0]
    4620:	00af0403 	adceq	r0, pc, r3, lsl #8
    4624:	00900e00 	addseq	r0, r0, r0, lsl #28
    4628:	06df0000 	ldrbeq	r0, [pc], r0
    462c:	03050000 	movweq	r0, #20480	; 0x5000
    4630:	0000aa80 	andeq	sl, r0, r0, lsl #21
    4634:	2c040707 	stccs	7, cr0, [r4], {7}
    4638:	01000000 	mrseq	r0, (UNDEF: 0)
    463c:	067a0a42 	ldrbteq	r0, [sl], -r2, asr #20
    4640:	c2080000 	andgt	r0, r8, #0, 0
    4644:	0000000a 	andeq	r0, r0, sl
    4648:	00001000 	andeq	r1, r0, r0
    464c:	009c840f 	addseq	r8, ip, pc, lsl #8
    4650:	0006e400 	andeq	lr, r6, r0, lsl #8
    4654:	00069600 	andeq	r9, r6, r0, lsl #12
    4658:	50011000 	andpl	r1, r1, r0
    465c:	24404003 	strbcs	r4, [r0], #-3
    4660:	03510110 	cmpeq	r1, #4
    4664:	00244840 	eoreq	r4, r4, r0, asr #16
    4668:	009c9c0f 	addseq	r9, ip, pc, lsl #24
    466c:	0008bc00 	andeq	fp, r8, r0, lsl #24
    4670:	0006c500 	andeq	ip, r6, r0, lsl #10
    4674:	50011000 	andpl	r1, r1, r0
    4678:	a92c0305 	stmdbge	ip!, {r0, r2, r8, r9}
    467c:	01100000 	tsteq	r0, r0
    4680:	d0030551 	andle	r0, r3, r1, asr r5
    4684:	100000a8 	andne	r0, r0, r8, lsr #1
    4688:	03055201 	movweq	r5, #20993	; 0x5201
    468c:	0000aa80 	andeq	sl, r0, r0, lsl #21
    4690:	02530110 	subseq	r0, r3, #4
    4694:	11004008 	tstne	r0, r8
    4698:	00009ca0 	andeq	r9, r0, r0, lsr #25
    469c:	000008c8 	andeq	r0, r0, r8, asr #17
    46a0:	007e1200 	rsbseq	r1, lr, r0, lsl #4
    46a4:	06df0000 	ldrbeq	r0, [pc], r0
    46a8:	2c130000 	ldccs	0, cr0, [r3], {-0}
    46ac:	0c000000 	stceq	0, cr0, [r0], {-0}
    46b0:	06cf0500 	strbeq	r0, [pc], r0, lsl #10
    46b4:	380c0000 	stmdacc	ip, {}	; <UNPREDICTABLE>
    46b8:	01000005 	tsteq	r0, r5
    46bc:	9bbc062d 	blls	fef05f78 <__bss_end__+0xfeefb070>
    46c0:	009c0000 	addseq	r0, ip, r0
    46c4:	9c010000 	stcls	0, cr0, [r1], {-0}
    46c8:	000007c8 	andeq	r0, r0, r8, asr #15
    46cc:	000a8517 	andeq	r8, sl, r7, lsl r5
    46d0:	262d0100 	strtcs	r0, [sp], -r0, lsl #2
    46d4:	0000002c 	andeq	r0, r0, ip, lsr #32
    46d8:	00002bd2 	ldrdeq	r2, [r0], -r2	; <UNPREDICTABLE>
    46dc:	00002bc4 	andeq	r2, r0, r4, asr #23
    46e0:	000a7a17 	andeq	r7, sl, r7, lsl sl
    46e4:	362d0100 	strtcc	r0, [sp], -r0, lsl #2
    46e8:	0000002c 	andeq	r0, r0, ip, lsr #32
    46ec:	00002c3a 	andeq	r2, r0, sl, lsr ip
    46f0:	00002c32 	andeq	r2, r0, r2, lsr ip
    46f4:	000a861d 	andeq	r8, sl, sp, lsl r6
    46f8:	0b2e0100 	bleq	b84b00 <__bss_end__+0xb79bf8>
    46fc:	000000c2 	andeq	r0, r0, r2, asr #1
    4700:	00002c82 	andeq	r2, r0, r2, lsl #25
    4704:	00002c74 	andeq	r2, r0, r4, ror ip
    4708:	0000900e 	andeq	r9, r0, lr
    470c:	0007d800 	andeq	sp, r7, r0, lsl #16
    4710:	68030500 	stmdavs	r3, {r8, sl}
    4714:	0f0000aa 	svceq	0x000000aa
    4718:	00009c14 	andeq	r9, r0, r4, lsl ip
    471c:	000008bc 			; <UNDEFINED> instruction: 0x000008bc
    4720:	0000077e 	andeq	r0, r0, lr, ror r7
    4724:	05500110 	ldrbeq	r0, [r0, #-272]	; 0xfffffef0
    4728:	00a20803 	adceq	r0, r2, r3, lsl #16
    472c:	51011000 	mrspl	r1, (UNDEF: 1)
    4730:	a8d00305 	ldmge	r0, {r0, r2, r8, r9}^
    4734:	01100000 	tsteq	r0, r0
    4738:	68030552 	stmdavs	r3, {r1, r4, r6, r8, sl}
    473c:	100000aa 	andne	r0, r0, sl, lsr #1
    4740:	08025301 	stmdaeq	r2, {r0, r8, r9, ip, lr}
    4744:	7d021030 	stcvc	0, cr1, [r2, #-192]	; 0xffffff40
    4748:	dc030500 	cfstr32le	mvfx0, [r3], {-0}
    474c:	000000a8 	andeq	r0, r0, r8, lsr #1
    4750:	009c1811 	addseq	r1, ip, r1, lsl r8
    4754:	0008c800 	andeq	ip, r8, r0, lsl #16
    4758:	9c3c0f00 	ldcls	15, cr0, [ip], #-0
    475c:	08bc0000 	ldmeq	ip!, {}	; <UNPREDICTABLE>
    4760:	07be0000 	ldreq	r0, [lr, r0]!
    4764:	01100000 	tsteq	r0, r0
    4768:	e8030550 	stmda	r3, {r4, r6, r8, sl}
    476c:	100000a8 	andne	r0, r0, r8, lsr #1
    4770:	03055101 	movweq	r5, #20737	; 0x5101
    4774:	0000a8d0 	ldrdeq	sl, [r0], -r0
    4778:	05520110 	ldrbeq	r0, [r2, #-272]	; 0xfffffef0
    477c:	00aa6803 	adceq	r6, sl, r3, lsl #16
    4780:	53011000 	movwpl	r1, #4096	; 0x1000
    4784:	10340802 	eorsne	r0, r4, r2, lsl #16
    4788:	03007d02 	movweq	r7, #3330	; 0xd02
    478c:	005001f3 	ldrsheq	r0, [r0], #-19	; 0xffffffed
    4790:	009c4011 	addseq	r4, ip, r1, lsl r0
    4794:	0008c800 	andeq	ip, r8, r0, lsl #16
    4798:	7e120000 	cdpvc	0, 1, cr0, cr2, cr0, {0}
    479c:	d8000000 	stmdale	r0, {}	; <UNPREDICTABLE>
    47a0:	13000007 	movwne	r0, #7
    47a4:	0000002c 	andeq	r0, r0, ip, lsr #32
    47a8:	c8050016 	stmdagt	r5, {r1, r2, r4}
    47ac:	1f000007 	svcne	0x00000007
    47b0:	00000b13 	andeq	r0, r0, r3, lsl fp
    47b4:	8a072a01 	bhi	1cefc0 <__bss_end__+0x1c40b8>
    47b8:	ac000000 	stcge	0, cr0, [r0], {-0}
    47bc:	1000009b 	mulne	r0, fp, r0
    47c0:	01000000 	mrseq	r0, (UNDEF: 0)
    47c4:	0a671f9c 	beq	19cc63c <__bss_end__+0x19c1734>
    47c8:	29010000 	stmdbcs	r1, {}	; <UNPREDICTABLE>
    47cc:	00008a07 	andeq	r8, r0, r7, lsl #20
    47d0:	009b9c00 	addseq	r9, fp, r0, lsl #24
    47d4:	00001000 	andeq	r1, r0, r0
    47d8:	1f9c0100 	svcne	0x009c0100
    47dc:	00000ac8 	andeq	r0, r0, r8, asr #21
    47e0:	8a072801 	bhi	1ce7ec <__bss_end__+0x1c38e4>
    47e4:	8c000000 	stchi	0, cr0, [r0], {-0}
    47e8:	1000009b 	mulne	r0, fp, r0
    47ec:	01000000 	mrseq	r0, (UNDEF: 0)
    47f0:	0a9e209c 	beq	fe78ca68 <__bss_end__+0xfe781b60>
    47f4:	10010000 	andne	r0, r1, r0
    47f8:	00002c18 	andeq	r2, r0, r8, lsl ip
    47fc:	08540300 	ldmdaeq	r4, {r8, r9}^
    4800:	78210000 	stmdavc	r1!, {}	; <UNPREDICTABLE>
    4804:	29100100 	ldmdbcs	r0, {r8}
    4808:	0000002c 	andeq	r0, r0, ip, lsr #32
    480c:	01006e21 	tsteq	r0, r1, lsr #28
    4810:	002c3510 	eoreq	r3, ip, r0, lsl r5
    4814:	900e0000 	andls	r0, lr, r0
    4818:	18000000 	stmdane	r0, {}	; <UNPREDICTABLE>
    481c:	05000005 	streq	r0, [r0, #-5]
    4820:	00aab803 	adceq	fp, sl, r3, lsl #16
    4824:	e9200000 	stmdb	r0!, {}	; <UNPREDICTABLE>
    4828:	0100000a 	tsteq	r0, sl
    482c:	002c180d 	eoreq	r1, ip, sp, lsl #16
    4830:	70030000 	andvc	r0, r3, r0
    4834:	21000008 	tstcs	r0, r8
    4838:	0d010078 	stceq	0, cr0, [r1, #-480]	; 0xfffffe20
    483c:	00002c29 	andeq	r2, r0, r9, lsr #24
    4840:	08200000 	stmdaeq	r0!, {}	; <UNPREDICTABLE>
    4844:	0100000b 	tsteq	r0, fp
    4848:	002c1807 	eoreq	r1, ip, r7, lsl #16
    484c:	96030000 	strls	r0, [r3], -r0
    4850:	21000008 	tstcs	r0, r8
    4854:	07010078 	smlsdxeq	r1, r8, r0, r0
    4858:	00002c2c 	andeq	r2, r0, ip, lsr #24
    485c:	006e2100 	rsbeq	r2, lr, r0, lsl #2
    4860:	2c380701 	ldccs	7, cr0, [r8], #-4
    4864:	00000000 	andeq	r0, r0, r0
    4868:	000aba20 	andeq	fp, sl, r0, lsr #20
    486c:	18040100 	stmdane	r4, {r8}
    4870:	0000005d 	andeq	r0, r0, sp, asr r0
    4874:	0008bc03 	andeq	fp, r8, r3, lsl #24
    4878:	00782100 	rsbseq	r2, r8, r0, lsl #2
    487c:	5d290401 	cfstrspl	mvf0, [r9, #-4]!
    4880:	21000000 	mrscs	r0, (UNDEF: 0)
    4884:	04010079 	streq	r0, [r1], #-121	; 0xffffff87
    4888:	00005d35 	andeq	r5, r0, r5, lsr sp
    488c:	c9220000 	stmdbgt	r2!, {}	; <UNPREDICTABLE>
    4890:	c9000005 	stmdbgt	r0, {r0, r2}
    4894:	02000005 	andeq	r0, r0, #5, 0
    4898:	a7220628 	strge	r0, [r2, -r8, lsr #12]!
    489c:	a7000000 	strge	r0, [r0, -r0]
    48a0:	02000000 	andeq	r0, r0, #0, 0
    48a4:	2422066e 	strtcs	r0, [r2], #-1646	; 0xfffff992
    48a8:	2400000b 	strcs	r0, [r0], #-11
    48ac:	0200000b 	andeq	r0, r0, #11, 0
    48b0:	2f22061d 	svccs	0x0022061d
    48b4:	2f000002 	svccs	0x00000002
    48b8:	02000002 	andeq	r0, r0, #2, 0
    48bc:	730007f2 	movwvc	r0, #2034	; 0x7f2
    48c0:	04000006 	streq	r0, [r0], #-6
    48c4:	0018ea00 	andseq	lr, r8, r0, lsl #20
    48c8:	6a010400 	bvs	458d0 <__bss_end__+0x3a9c8>
    48cc:	0c000001 	stceq	0, cr0, [r0], {1}
    48d0:	00000b76 	andeq	r0, r0, r6, ror fp
    48d4:	0000059f 	muleq	r0, pc, r5	; <UNPREDICTABLE>
    48d8:	00009f3c 	andeq	r9, r0, ip, lsr pc
    48dc:	00000198 	muleq	r0, r8, r1
    48e0:	00002492 	muleq	r0, r2, r4
    48e4:	21070802 	tstcs	r7, r2, lsl #16
    48e8:	02000001 	andeq	r0, r0, #1, 0
    48ec:	012b0704 			; <UNDEFINED> instruction: 0x012b0704
    48f0:	04030000 	streq	r0, [r3], #-0
    48f4:	746e6905 	strbtvc	r6, [lr], #-2309	; 0xfffff6fb
    48f8:	002c0400 	eoreq	r0, ip, r0, lsl #8
    48fc:	01020000 	mrseq	r0, (UNDEF: 2)
    4900:	0000c306 	andeq	ip, r0, r6, lsl #6
    4904:	05020200 	streq	r0, [r2, #-512]	; 0xfffffe00
    4908:	00000021 	andeq	r0, r0, r1, lsr #32
    490c:	56050402 	strpl	r0, [r5], -r2, lsl #8
    4910:	02000000 	andeq	r0, r0, #0, 0
    4914:	00510508 	subseq	r0, r1, r8, lsl #10
    4918:	01020000 	mrseq	r0, (UNDEF: 2)
    491c:	0000c108 	andeq	ip, r0, r8, lsl #2
    4920:	07020200 	streq	r0, [r2, -r0, lsl #4]
    4924:	00000152 	andeq	r0, r0, r2, asr r1
    4928:	00013805 	andeq	r3, r1, r5, lsl #16
    492c:	19340300 	ldmdbne	r4!, {r8, r9}
    4930:	00000075 	andeq	r0, r0, r5, ror r0
    4934:	26070402 	strcs	r0, [r7], -r2, lsl #8
    4938:	06000001 	streq	r0, [r0], -r1
    493c:	00000033 	andeq	r0, r0, r3, lsr r0
    4940:	0000008b 	andeq	r0, r0, fp, lsl #1
    4944:	00003307 	andeq	r3, r0, r7, lsl #6
    4948:	2b080000 	blcs	204950 <__bss_end__+0x1f9a48>
    494c:	02000000 	andeq	r0, r0, #0, 0
    4950:	00970e1c 	addseq	r0, r7, ip, lsl lr
    4954:	04090000 	streq	r0, [r9], #-0
    4958:	0000007c 	andeq	r0, r0, ip, ror r0
    495c:	00003306 	andeq	r3, r0, r6, lsl #6
    4960:	0000ac00 	andeq	sl, r0, r0, lsl #24
    4964:	00ac0700 	adceq	r0, ip, r0, lsl #14
    4968:	09000000 	stmdbeq	r0, {}	; <UNPREDICTABLE>
    496c:	0000b904 	andeq	fp, r0, r4, lsl #18
    4970:	08010200 	stmdaeq	r1, {r9}
    4974:	000000ca 	andeq	r0, r0, sl, asr #1
    4978:	0000b204 	andeq	fp, r0, r4, lsl #4
    497c:	06070800 	streq	r0, [r7], -r0, lsl #16
    4980:	21020000 	mrscs	r0, (UNDEF: 2)
    4984:	0000ca0e 	andeq	ip, r0, lr, lsl #20
    4988:	9d040900 	vstrls.16	s0, [r4, #-0]	; <UNPREDICTABLE>
    498c:	0a000000 	beq	4994 <__code_start__-0x366c>
    4990:	005b0107 	subseq	r0, fp, r7, lsl #2
    4994:	0c040000 	stceq	0, cr0, [r4], {-0}
    4998:	00010f0e 	andeq	r0, r1, lr, lsl #30
    499c:	0a3f0b00 	beq	fc75a4 <__bss_end__+0xfbc69c>
    49a0:	0b000000 	bleq	49a8 <__code_start__-0x3658>
    49a4:	00000877 	andeq	r0, r0, r7, ror r8
    49a8:	08ba0b01 	ldmeq	sl!, {r0, r8, r9, fp}
    49ac:	0b040000 	bleq	1049b4 <__bss_end__+0xf9aac>
    49b0:	000008c9 	andeq	r0, r0, r9, asr #17
    49b4:	08d80b05 	ldmeq	r8, {r0, r2, r8, r9, fp}^
    49b8:	0b060000 	bleq	1849c0 <__bss_end__+0x179ab8>
    49bc:	000008e7 	andeq	r0, r0, r7, ror #17
    49c0:	0a080b07 	beq	2075e4 <__bss_end__+0x1fc6dc>
    49c4:	0b030000 	bleq	c49cc <__bss_end__+0xb9ac4>
    49c8:	000008f6 	strdeq	r0, [r0], -r6
    49cc:	af050002 	svcge	0x00050002
    49d0:	0400000b 	streq	r0, [r0], #-11
    49d4:	00d00315 	sbcseq	r0, r0, r5, lsl r3
    49d8:	4d0c0000 	stcmi	0, cr0, [ip, #-0]
    49dc:	0100000b 	tsteq	r0, fp
    49e0:	003a171d 	eorseq	r1, sl, sp, lsl r7
    49e4:	001c0000 	andseq	r0, ip, r0
    49e8:	430c2020 	movwmi	r2, #49184	; 0xc020
    49ec:	0100000b 	tsteq	r0, fp
    49f0:	003a171e 	eorseq	r1, sl, lr, lsl r7
    49f4:	00280000 	eoreq	r0, r8, r0
    49f8:	bb0c2020 	bllt	30ca80 <__bss_end__+0x301b78>
    49fc:	0100000b 	tsteq	r0, fp
    4a00:	003a171f 	eorseq	r1, sl, pc, lsl r7
    4a04:	00340000 	eorseq	r0, r4, r0
    4a08:	6c0d2020 	stcvs	0, cr2, [sp], {32}
    4a0c:	0100000b 	tsteq	r0, fp
    4a10:	00330551 	eorseq	r0, r3, r1, asr r5
    4a14:	a0ac0000 	adcge	r0, ip, r0
    4a18:	00280000 	eoreq	r0, r8, r0
    4a1c:	9c010000 	stcls	0, cr0, [r1], {-0}
    4a20:	000001ba 			; <UNDEFINED> instruction: 0x000001ba
    4a24:	6e69700e 	cdpvs	0, 6, cr7, cr9, cr14, {0}
    4a28:	18510100 	ldmdane	r1, {r8}^
    4a2c:	0000002c 	andeq	r0, r0, ip, lsr #32
    4a30:	00002ce8 	andeq	r2, r0, r8, ror #25
    4a34:	00002ce2 	andeq	r2, r0, r2, ror #25
    4a38:	000bc50f 	andeq	ip, fp, pc, lsl #10
    4a3c:	0e520100 	rdfeqs	f0, f2, f0
    4a40:	0000002c 	andeq	r0, r0, ip, lsr #32
    4a44:	00002d1e 	andeq	r2, r0, lr, lsl sp
    4a48:	00002d14 	andeq	r2, r0, r4, lsl sp
    4a4c:	66666f10 	uqadd16vs	r6, r6, r0
    4a50:	0e530100 	rdfeqs	f0, f3, f0
    4a54:	0000002c 	andeq	r0, r0, ip, lsr #32
    4a58:	00002d8c 	andeq	r2, r0, ip, lsl #27
    4a5c:	00002d86 	andeq	r2, r0, r6, lsl #27
    4a60:	00a0c011 	adceq	ip, r0, r1, lsl r0
    4a64:	00065e00 	andeq	r5, r6, r0, lsl #28
    4a68:	50011200 	andpl	r1, r1, r0, lsl #4
    4a6c:	3500740a 	strcc	r7, [r0, #-1034]	; 0xfffffbf6
    4a70:	80b42325 	adcshi	r2, r4, r5, lsr #6
    4a74:	00028180 	andeq	r8, r2, r0, lsl #3
    4a78:	0b571300 	bleq	15c9680 <__bss_end__+0x15be778>
    4a7c:	4a010000 	bmi	44a84 <__bss_end__+0x39b7c>
    4a80:	00a07c06 	adceq	r7, r0, r6, lsl #24
    4a84:	00003000 	andeq	r3, r0, r0
    4a88:	759c0100 	ldrvc	r0, [ip, #256]	; 0x100
    4a8c:	0e000002 	cdpeq	0, 0, cr0, cr0, cr2, {0}
    4a90:	006e6970 	rsbeq	r6, lr, r0, ror r9
    4a94:	2c1a4a01 			; <UNDEFINED> instruction: 0x2c1a4a01
    4a98:	c9000000 	stmdbgt	r0, {}	; <UNPREDICTABLE>
    4a9c:	bd00002d 	stclt	0, cr0, [r0, #-180]	; 0xffffff4c
    4aa0:	0e00002d 	cdpeq	0, 0, cr0, cr0, cr13, {1}
    4aa4:	4a010076 	bmi	44c84 <__bss_end__+0x39d7c>
    4aa8:	00002c28 	andeq	r2, r0, r8, lsr #24
    4aac:	002e1d00 	eoreq	r1, lr, r0, lsl #26
    4ab0:	002e1900 	eoreq	r1, lr, r0, lsl #18
    4ab4:	038d1400 	orreq	r1, sp, #0, 8
    4ab8:	a08c0000 	addge	r0, ip, r0
    4abc:	00010000 	andeq	r0, r1, r0
    4ac0:	01000006 	tsteq	r0, r6
    4ac4:	0235094c 	eorseq	r0, r5, #76, 18	; 0x130000
    4ac8:	9a150000 	bls	544ad0 <__bss_end__+0x539bc8>
    4acc:	44000003 	strmi	r0, [r0], #-3
    4ad0:	3e00002e 	cdpcc	0, 0, cr0, cr0, cr14, {1}
    4ad4:	1600002e 	strne	r0, [r0], -lr, lsr #32
    4ad8:	0000a098 	muleq	r0, r8, r0
    4adc:	0000066a 	andeq	r0, r0, sl, ror #12
    4ae0:	05500112 	ldrbeq	r0, [r0, #-274]	; 0xfffffeee
    4ae4:	20001c0c 	andcs	r1, r0, ip, lsl #24
    4ae8:	51011220 	tstpl	r1, r0, lsr #4
    4aec:	01f33105 	mvnseq	r3, r5, lsl #2
    4af0:	00002450 	andeq	r2, r0, r0, asr r4
    4af4:	00037317 	andeq	r7, r3, r7, lsl r3
    4af8:	00a09800 	adceq	r9, r0, r0, lsl #16
    4afc:	a0980200 	addsge	r0, r8, r0, lsl #4
    4b00:	00140000 	andseq	r0, r4, r0
    4b04:	4e010000 	cdpmi	0, 0, cr0, cr1, cr0, {0}
    4b08:	03801509 	orreq	r1, r0, #37748736	; 0x2400000
    4b0c:	2e760000 	cdpcs	0, 7, cr0, cr6, cr0, {0}
    4b10:	2e700000 	cdpcs	0, 7, cr0, cr0, cr0, {0}
    4b14:	a4160000 	ldrge	r0, [r6], #-0
    4b18:	6a0000a0 	bvs	4da0 <__code_start__-0x3260>
    4b1c:	12000006 	andne	r0, r0, #6, 0
    4b20:	0c055001 	stceq	0, cr5, [r5], {1}
    4b24:	20200028 	eorcs	r0, r0, r8, lsr #32
    4b28:	05510112 	ldrbeq	r0, [r1, #-274]	; 0xfffffeee
    4b2c:	5001f331 	andpl	pc, r1, r1, lsr r3	; <UNPREDICTABLE>
    4b30:	00000024 	andeq	r0, r0, r4, lsr #32
    4b34:	000b8313 	andeq	r8, fp, r3, lsl r3
    4b38:	06450100 	strbeq	r0, [r5], -r0, lsl #2
    4b3c:	0000a024 	andeq	sl, r0, r4, lsr #32
    4b40:	00000058 	andeq	r0, r0, r8, asr r0
    4b44:	03739c01 	cmneq	r3, #256	; 0x100
    4b48:	700e0000 	andvc	r0, lr, r0
    4b4c:	01006e69 	tsteq	r0, r9, ror #28
    4b50:	002c1e45 	eoreq	r1, ip, r5, asr #28
    4b54:	2ea80000 	cdpcs	0, 10, cr0, cr8, cr0, {0}
    4b58:	2ea20000 	cdpcs	0, 10, cr0, cr2, cr0, {0}
    4b5c:	a5180000 	ldrge	r0, [r8, #-0]
    4b60:	24000004 	strcs	r0, [r0], #-4
    4b64:	020000a0 	andeq	r0, r0, #160, 0	; 0xa0
    4b68:	000005c0 	andeq	r0, r0, r0, asr #11
    4b6c:	19054601 	stmdbne	r5, {r0, r9, sl, lr}
    4b70:	000004be 			; <UNDEFINED> instruction: 0x000004be
    4b74:	04b21500 	ldrteq	r1, [r2], #1280	; 0x500
    4b78:	2eda0000 	cdpcs	0, 13, cr0, cr10, cr0, {0}
    4b7c:	2ed40000 	cdpcs	0, 13, cr0, cr4, cr0, {0}
    4b80:	c01a0000 	andsgt	r0, sl, r0
    4b84:	1b000005 	blne	4ba0 <__code_start__-0x3460>
    4b88:	000004ca 	andeq	r0, r0, sl, asr #9
    4b8c:	0004d61b 	andeq	sp, r4, fp, lsl r6
    4b90:	04e01b00 	strbteq	r1, [r0], #2816	; 0xb00
    4b94:	a5180000 	ldrge	r0, [r8, #-0]
    4b98:	2c000004 	stccs	0, cr0, [r0], {4}
    4b9c:	000000a0 	andeq	r0, r0, r0, lsr #1
    4ba0:	000005e0 	andeq	r0, r0, r0, ror #11
    4ba4:	19062801 	stmdbne	r6, {r0, fp, sp}
    4ba8:	000004be 			; <UNDEFINED> instruction: 0x000004be
    4bac:	04b21500 	ldrteq	r1, [r2], #1280	; 0x500
    4bb0:	2f0c0000 	svccs	0x000c0000
    4bb4:	2f060000 	svccs	0x00060000
    4bb8:	e01a0000 	ands	r0, sl, r0
    4bbc:	1c000005 	stcne	0, cr0, [r0], {5}
    4bc0:	000004ca 	andeq	r0, r0, sl, asr #9
    4bc4:	00002f3e 	andeq	r2, r0, lr, lsr pc
    4bc8:	00002f38 	andeq	r2, r0, r8, lsr pc
    4bcc:	0004d61c 	andeq	sp, r4, ip, lsl r6
    4bd0:	002f8000 	eoreq	r8, pc, r0
    4bd4:	002f7a00 	eoreq	r7, pc, r0, lsl #20
    4bd8:	04e01c00 	strbteq	r1, [r0], #3072	; 0xc00
    4bdc:	2fd60000 	svccs	0x00d60000
    4be0:	2fce0000 	svccs	0x00ce0000
    4be4:	541d0000 	ldrpl	r0, [sp], #-0
    4be8:	5e0000a0 	cdppl	0, 0, cr0, cr0, cr0, {5}
    4bec:	3b000006 	blcc	4c0c <__code_start__-0x33f4>
    4bf0:	12000003 	andne	r0, r0, #3, 0
    4bf4:	76025001 	strvc	r5, [r2], -r1
    4bf8:	78160000 	ldmdavc	r6, {}	; <UNPREDICTABLE>
    4bfc:	6a0000a0 	bvs	4e84 <__code_start__-0x317c>
    4c00:	12000006 	andne	r0, r0, #6, 0
    4c04:	f3255001 	vhadd.u32	d5, d5, d1
    4c08:	2cf75001 	ldclcs	0, cr5, [r7], #4
    4c0c:	25f425f7 	ldrbcs	r2, [r4, #1527]!	; 0x5f7
    4c10:	cccccd08 	stclgt	13, cr12, [ip], {8}
    4c14:	000000cc 	andeq	r0, r0, ip, asr #1
    4c18:	20081e00 	andcs	r1, r8, r0, lsl #28
    4c1c:	f72525f7 			; <UNDEFINED> instruction: 0xf72525f7
    4c20:	3300f72c 	movwcc	pc, #1836	; 0x72c	; <UNPREDICTABLE>
    4c24:	80802325 	addhi	r2, r0, r5, lsr #6
    4c28:	243240a0 	ldrtcs	r4, [r2], #-160	; 0xffffff60
    4c2c:	00000000 	andeq	r0, r0, r0
    4c30:	921e0000 	andsls	r0, lr, #0, 0
    4c34:	0100000b 	tsteq	r0, fp
    4c38:	8d030d40 	stchi	13, cr0, [r3, #-256]	; 0xffffff00
    4c3c:	1f000003 	svcne	0x00000003
    4c40:	006e6970 	rsbeq	r6, lr, r0, ror r9
    4c44:	2c234001 	stccs	0, cr4, [r3], #-4
    4c48:	00000000 	andeq	r0, r0, r0
    4c4c:	000bca1e 	andeq	ip, fp, lr, lsl sl
    4c50:	0d3b0100 	ldfeqs	f0, [fp, #-0]
    4c54:	0003a703 	andeq	sl, r3, r3, lsl #14
    4c58:	69701f00 	ldmdbvs	r0!, {r8, r9, sl, fp, ip}^
    4c5c:	3b01006e 	blcc	44e1c <__bss_end__+0x39f14>
    4c60:	00002c22 	andeq	r2, r0, r2, lsr #24
    4c64:	9f130000 	svcls	0x00130000
    4c68:	0100000b 	tsteq	r0, fp
    4c6c:	9f9c0636 	svcls	0x009c0636
    4c70:	00580000 	subseq	r0, r8, r0
    4c74:	9c010000 	stcls	0, cr0, [r1], {-0}
    4c78:	000004a5 	andeq	r0, r0, r5, lsr #9
    4c7c:	6e69700e 	cdpvs	0, 6, cr7, cr9, cr14, {0}
    4c80:	1f360100 	svcne	0x00360100
    4c84:	0000002c 	andeq	r0, r0, ip, lsr #32
    4c88:	00003034 	andeq	r3, r0, r4, lsr r0
    4c8c:	00003030 	andeq	r3, r0, r0, lsr r0
    4c90:	0004a518 	andeq	sl, r4, r8, lsl r5
    4c94:	009f9c00 	addseq	r9, pc, r0, lsl #24
    4c98:	05800200 	streq	r0, [r0, #512]	; 0x200
    4c9c:	37010000 	strcc	r0, [r1, -r0]
    4ca0:	04be1905 	ldrteq	r1, [lr], #2309	; 0x905
    4ca4:	15010000 	strne	r0, [r1, #-0]
    4ca8:	000004b2 			; <UNDEFINED> instruction: 0x000004b2
    4cac:	00003059 	andeq	r3, r0, r9, asr r0
    4cb0:	00003055 	andeq	r3, r0, r5, asr r0
    4cb4:	0005801a 	andeq	r8, r5, sl, lsl r0
    4cb8:	04ca1b00 	strbeq	r1, [sl], #2816	; 0xb00
    4cbc:	d61b0000 	ldrle	r0, [fp], -r0
    4cc0:	1b000004 	blne	4cd8 <__code_start__-0x3328>
    4cc4:	000004e0 	andeq	r0, r0, r0, ror #9
    4cc8:	0004a518 	andeq	sl, r4, r8, lsl r5
    4ccc:	009fa400 	addseq	sl, pc, r0, lsl #8
    4cd0:	05a00000 	streq	r0, [r0, #0]!
    4cd4:	28010000 	stmdacs	r1, {}	; <UNPREDICTABLE>
    4cd8:	04be1906 	ldrteq	r1, [lr], #2310	; 0x906
    4cdc:	15010000 	strne	r0, [r1, #-0]
    4ce0:	000004b2 			; <UNDEFINED> instruction: 0x000004b2
    4ce4:	0000307e 	andeq	r3, r0, lr, ror r0
    4ce8:	0000307a 	andeq	r3, r0, sl, ror r0
    4cec:	0005a01a 	andeq	sl, r5, sl, lsl r0
    4cf0:	04ca1c00 	strbeq	r1, [sl], #3072	; 0xc00
    4cf4:	30a30000 	adccc	r0, r3, r0
    4cf8:	309f0000 	addscc	r0, pc, r0
    4cfc:	d61c0000 	ldrle	r0, [ip], -r0
    4d00:	ef000004 	svc	0x00000004
    4d04:	e9000030 	stmdb	r0, {r4, r5}
    4d08:	1c000030 	stcne	0, cr0, [r0], {48}	; 0x30
    4d0c:	000004e0 	andeq	r0, r0, r0, ror #9
    4d10:	00003145 	andeq	r3, r0, r5, asr #2
    4d14:	0000313d 	andeq	r3, r0, sp, lsr r1
    4d18:	009fd01d 	addseq	sp, pc, sp, lsl r0	; <UNPREDICTABLE>
    4d1c:	00065e00 	andeq	r5, r6, r0, lsl #28
    4d20:	00046d00 	andeq	r6, r4, r0, lsl #26
    4d24:	50011200 	andpl	r1, r1, r0, lsl #4
    4d28:	00007502 	andeq	r7, r0, r2, lsl #10
    4d2c:	009ff016 	addseq	pc, pc, r6, lsl r0	; <UNPREDICTABLE>
    4d30:	00066a00 	andeq	r6, r6, r0, lsl #20
    4d34:	50011200 	andpl	r1, r1, r0, lsl #4
    4d38:	5001f325 	andpl	pc, r1, r5, lsr #6
    4d3c:	25f72cf7 	ldrbcs	r2, [r7, #3319]!	; 0xcf7
    4d40:	cd0825f4 	cfstr32gt	mvfx2, [r8, #-976]	; 0xfffffc30
    4d44:	00cccccc 	sbceq	ip, ip, ip, asr #25
    4d48:	1e000000 	cdpne	0, 0, cr0, cr0, cr0, {0}
    4d4c:	25f72008 	ldrbcs	r2, [r7, #8]!
    4d50:	f72cf725 			; <UNDEFINED> instruction: 0xf72cf725
    4d54:	23253300 			; <UNDEFINED> instruction: 0x23253300
    4d58:	40a08080 	adcmi	r8, r0, r0, lsl #1
    4d5c:	00002432 	andeq	r2, r0, r2, lsr r4
    4d60:	00000000 	andeq	r0, r0, r0
    4d64:	000a4f1e 	andeq	r4, sl, lr, lsl pc
    4d68:	06280100 	strteq	r0, [r8], -r0, lsl #2
    4d6c:	0004eb01 	andeq	lr, r4, r1, lsl #22
    4d70:	69701f00 	ldmdbvs	r0!, {r8, r9, sl, fp, ip}^
    4d74:	2801006e 	stmdacs	r1, {r1, r2, r3, r5, r6}
    4d78:	00002c21 	andeq	r2, r0, r1, lsr #24
    4d7c:	004c2000 	subeq	r2, ip, r0
    4d80:	28010000 	stmdacs	r1, {}	; <UNPREDICTABLE>
    4d84:	00010f32 	andeq	r0, r1, r2, lsr pc
    4d88:	666f2100 	strbtvs	r2, [pc], -r0, lsl #2
    4d8c:	2d010066 	stccs	0, cr0, [r1, #-408]	; 0xfffffe68
    4d90:	00002c0e 	andeq	r2, r0, lr, lsl #24
    4d94:	00672100 	rsbeq	r2, r7, r0, lsl #2
    4d98:	2c0e2e01 	stccs	14, cr2, [lr], {1}
    4d9c:	21000000 	mrscs	r0, (UNDEF: 0)
    4da0:	30010076 	andcc	r0, r1, r6, ror r0
    4da4:	00002c0e 	andeq	r2, r0, lr, lsl #24
    4da8:	62220000 	eorvs	r0, r2, #0, 0
    4dac:	0200000b 	andeq	r0, r0, #11, 0
    4db0:	006918b1 	strhteq	r1, [r9], #-129	; 0xffffff7f
    4db4:	07030000 	streq	r0, [r3, -r0]
    4db8:	1f000005 	svcne	0x00000005
    4dbc:	b1020078 	tstlt	r2, r8, ror r0
    4dc0:	0000692b 	andeq	r6, r0, fp, lsr #18
    4dc4:	a5230000 	strge	r0, [r3, #-0]!
    4dc8:	3c000004 	stccc	0, cr0, [r0], {4}
    4dcc:	6000009f 	mulvs	r0, pc, r0	; <UNPREDICTABLE>
    4dd0:	01000000 	mrseq	r0, (UNDEF: 0)
    4dd4:	0005e49c 	muleq	r5, ip, r4
    4dd8:	04b21500 	ldrteq	r1, [r2], #1280	; 0x500
    4ddc:	31840000 	orrcc	r0, r4, r0
    4de0:	31800000 	orrcc	r0, r0, r0
    4de4:	be150000 	cdplt	0, 1, cr0, cr5, cr0, {0}
    4de8:	a9000004 	stmdbge	r0, {r2}
    4dec:	a5000031 	strge	r0, [r0, #-49]	; 0xffffffcf
    4df0:	1b000031 	blne	4ebc <__code_start__-0x3144>
    4df4:	000004ca 	andeq	r0, r0, sl, asr #9
    4df8:	0004d61b 	andeq	sp, r4, fp, lsl r6
    4dfc:	04e01b00 	strbteq	r1, [r0], #2816	; 0xb00
    4e00:	a5180000 	ldrge	r0, [r8, #-0]
    4e04:	44000004 	strmi	r0, [r0], #-4
    4e08:	0000009f 	muleq	r0, pc, r0	; <UNPREDICTABLE>
    4e0c:	00000560 	andeq	r0, r0, r0, ror #10
    4e10:	15062801 	strne	r2, [r6, #-2049]	; 0xfffff7ff
    4e14:	000004be 			; <UNDEFINED> instruction: 0x000004be
    4e18:	000031ce 	andeq	r3, r0, lr, asr #3
    4e1c:	000031ca 	andeq	r3, r0, sl, asr #3
    4e20:	0004b215 	andeq	fp, r4, r5, lsl r2
    4e24:	0031f300 	eorseq	pc, r1, r0, lsl #6
    4e28:	0031ef00 	eorseq	lr, r1, r0, lsl #30
    4e2c:	05601a00 	strbeq	r1, [r0, #-2560]!	; 0xfffff600
    4e30:	ca1c0000 	bgt	704e38 <__bss_end__+0x6f9f30>
    4e34:	18000004 	stmdane	r0, {r2}
    4e38:	14000032 	strne	r0, [r0], #-50	; 0xffffffce
    4e3c:	1c000032 	stcne	0, cr0, [r0], {50}	; 0x32
    4e40:	000004d6 	ldrdeq	r0, [r0], -r6
    4e44:	00003264 	andeq	r3, r0, r4, ror #4
    4e48:	0000325e 	andeq	r3, r0, lr, asr r2
    4e4c:	0004e01c 	andeq	lr, r4, ip, lsl r0
    4e50:	0032ba00 	eorseq	fp, r2, r0, lsl #20
    4e54:	0032b200 	eorseq	fp, r2, r0, lsl #4
    4e58:	9f7c1d00 	svcls	0x007c1d00
    4e5c:	065e0000 	ldrbeq	r0, [lr], -r0
    4e60:	05ae0000 	streq	r0, [lr, #0]!
    4e64:	01120000 	tsteq	r2, r0
    4e68:	00760250 	rsbseq	r0, r6, r0, asr r2
    4e6c:	9f981600 	svcls	0x00981600
    4e70:	066a0000 	strbteq	r0, [sl], -r0
    4e74:	01120000 	tsteq	r2, r0
    4e78:	01f32550 	mvnseq	r2, r0, asr r5
    4e7c:	f72cf750 			; <UNDEFINED> instruction: 0xf72cf750
    4e80:	0825f425 	stmdaeq	r5!, {r0, r2, r5, sl, ip, sp, lr, pc}
    4e84:	cccccccd 	stclgt	12, cr12, [ip], {205}	; 0xcd
    4e88:	00000000 	andeq	r0, r0, r0
    4e8c:	f720081e 			; <UNDEFINED> instruction: 0xf720081e
    4e90:	2cf72525 	cfldr64cs	mvdx2, [r7], #148	; 0x94
    4e94:	253300f7 	ldrcs	r0, [r3, #-247]!	; 0xffffff09
    4e98:	a0808023 	addge	r8, r0, r3, lsr #32
    4e9c:	00243240 	eoreq	r3, r4, r0, asr #4
    4ea0:	23000000 	movwcs	r0, #0
    4ea4:	0000038d 	andeq	r0, r0, sp, lsl #7
    4ea8:	00009ff4 	strdeq	r9, [r0], -r4
    4eac:	00000018 	andeq	r0, r0, r8, lsl r0
    4eb0:	06219c01 	strteq	r9, [r1], -r1, lsl #24
    4eb4:	9a150000 	bls	544ebc <__bss_end__+0x539fb4>
    4eb8:	10000003 	andne	r0, r0, r3
    4ebc:	0a000033 	beq	4f90 <__code_start__-0x3070>
    4ec0:	16000033 			; <UNDEFINED> instruction: 0x16000033
    4ec4:	0000a008 	andeq	sl, r0, r8
    4ec8:	0000066a 	andeq	r0, r0, sl, ror #12
    4ecc:	05500112 	ldrbeq	r0, [r0, #-274]	; 0xfffffeee
    4ed0:	20001c0c 	andcs	r1, r0, ip, lsl #24
    4ed4:	51011220 	tstpl	r1, r0, lsr #4
    4ed8:	01f33105 	mvnseq	r3, r5, lsl #2
    4edc:	00002450 	andeq	r2, r0, r0, asr r4
    4ee0:	00037323 	andeq	r7, r3, r3, lsr #6
    4ee4:	00a00c00 	adceq	r0, r0, r0, lsl #24
    4ee8:	00001800 	andeq	r1, r0, r0, lsl #16
    4eec:	5e9c0100 	fmlple	f0, f4, f0
    4ef0:	15000006 	strne	r0, [r0, #-6]
    4ef4:	00000380 	andeq	r0, r0, r0, lsl #7
    4ef8:	00003342 	andeq	r3, r0, r2, asr #6
    4efc:	0000333c 	andeq	r3, r0, ip, lsr r3
    4f00:	00a02016 	adceq	r2, r0, r6, lsl r0
    4f04:	00066a00 	andeq	r6, r6, r0, lsl #20
    4f08:	50011200 	andpl	r1, r1, r0, lsl #4
    4f0c:	00280c05 	eoreq	r0, r8, r5, lsl #24
    4f10:	01122020 	tsteq	r2, r0, lsr #32
    4f14:	f3310551 	vqrshl.u64	q0, <illegal reg q0.5>, <illegal reg q0.5>
    4f18:	00245001 	eoreq	r5, r4, r1
    4f1c:	08242400 	stmdaeq	r4!, {sl, sp}
    4f20:	08240000 	stmdaeq	r4!, {}	; <UNPREDICTABLE>
    4f24:	c2020000 	andgt	r0, r2, #0, 0
    4f28:	0790240a 	ldreq	r2, [r0, sl, lsl #8]
    4f2c:	07900000 	ldreq	r0, [r0, r0]
    4f30:	ad020000 	stcge	0, cr0, [r2, #-0]
    4f34:	01490006 	cmpeq	r9, r6
    4f38:	00040000 	andeq	r0, r4, r0
    4f3c:	00001b18 	andeq	r1, r0, r8, lsl fp
    4f40:	016a0104 	cmneq	sl, r4, lsl #2
    4f44:	f40c0000 	vst4.8	{d0-d3}, [ip], r0
    4f48:	9f00000b 	svcls	0x0000000b
    4f4c:	d4000005 	strle	r0, [r0], #-5
    4f50:	3c0000a0 	stccc	0, cr0, [r0], {160}	; 0xa0
    4f54:	1f000000 	svcne	0x00000000
    4f58:	02000027 	andeq	r0, r0, #39, 0	; 0x27
    4f5c:	6e690504 	cdpvs	5, 6, cr0, cr9, cr4, {0}
    4f60:	04030074 	streq	r0, [r3], #-116	; 0xffffff8c
    4f64:	00012b07 	andeq	r2, r1, r7, lsl #22
    4f68:	06010300 	streq	r0, [r1], -r0, lsl #6
    4f6c:	000000c3 	andeq	r0, r0, r3, asr #1
    4f70:	21050203 	tstcs	r5, r3, lsl #4
    4f74:	03000000 	movweq	r0, #0
    4f78:	00560504 	subseq	r0, r6, r4, lsl #10
    4f7c:	08030000 	stmdaeq	r3, {}	; <UNPREDICTABLE>
    4f80:	00005105 	andeq	r5, r0, r5, lsl #2
    4f84:	08010300 	stmdaeq	r1, {r8, r9}
    4f88:	000000c1 	andeq	r0, r0, r1, asr #1
    4f8c:	52070203 	andpl	r0, r7, #805306368	; 0x30000000
    4f90:	03000001 	movweq	r0, #1
    4f94:	01260704 			; <UNDEFINED> instruction: 0x01260704
    4f98:	08030000 	stmdaeq	r3, {}	; <UNPREDICTABLE>
    4f9c:	00012107 	andeq	r2, r1, r7, lsl #2
    4fa0:	00250400 	eoreq	r0, r5, r0, lsl #8
    4fa4:	007a0000 	rsbseq	r0, sl, r0
    4fa8:	25050000 	strcs	r0, [r5, #-0]
    4fac:	00000000 	andeq	r0, r0, r0
    4fb0:	00002b06 	andeq	r2, r0, r6, lsl #22
    4fb4:	0e1c0200 	cdpeq	2, 1, cr0, cr12, cr0, {0}
    4fb8:	00000086 	andeq	r0, r0, r6, lsl #1
    4fbc:	006b0407 	rsbeq	r0, fp, r7, lsl #8
    4fc0:	25040000 	strcs	r0, [r4, #-0]
    4fc4:	9b000000 	blls	4fcc <__code_start__-0x3034>
    4fc8:	05000000 	streq	r0, [r0, #-0]
    4fcc:	0000009b 	muleq	r0, fp, r0
    4fd0:	a8040700 	stmdage	r4, {r8, r9, sl}
    4fd4:	03000000 	movweq	r0, #0
    4fd8:	00ca0801 	sbceq	r0, sl, r1, lsl #16
    4fdc:	a1080000 	mrsge	r0, (UNDEF: 8)
    4fe0:	06000000 	streq	r0, [r0], -r0
    4fe4:	00000607 	andeq	r0, r0, r7, lsl #12
    4fe8:	b90e2102 	stmdblt	lr, {r1, r8, sp}
    4fec:	07000000 	streq	r0, [r0, -r0]
    4ff0:	00008c04 	andeq	r8, r0, r4, lsl #24
    4ff4:	007a0900 	rsbseq	r0, sl, r0, lsl #18
    4ff8:	06010000 	streq	r0, [r1], -r0
    4ffc:	dc030507 	cfstr32le	mvfx0, [r3], {7}
    5000:	0a0000aa 	beq	52b0 <__code_start__-0x2d50>
    5004:	00000be7 	andeq	r0, r0, r7, ror #23
    5008:	00060b01 	andeq	r0, r6, r1, lsl #22
    500c:	100000a1 	andne	r0, r0, r1, lsr #1
    5010:	01000000 	mrseq	r0, (UNDEF: 0)
    5014:	0000f19c 	muleq	r0, ip, r1
    5018:	70660b00 	rsbvc	r0, r6, r0, lsl #22
    501c:	190b0100 	stmdbne	fp, {r8}
    5020:	00000086 	andeq	r0, r0, r6, lsl #1
    5024:	0c005001 	stceq	0, cr5, [r0], {1}
    5028:	00000b24 	andeq	r0, r0, r4, lsr #22
    502c:	e8060801 	stmda	r6, {r0, fp}
    5030:	180000a0 	stmdane	r0, {r5, r7}
    5034:	01000000 	mrseq	r0, (UNDEF: 0)
    5038:	0bd60d9c 	bleq	ff5886b0 <__bss_end__+0xff57d7a8>
    503c:	03010000 	movweq	r0, #4096	; 0x1000
    5040:	0000250c 	andeq	r2, r0, ip, lsl #10
    5044:	00a0d400 	adceq	sp, r0, r0, lsl #8
    5048:	00001400 	andeq	r1, r0, r0, lsl #8
    504c:	409c0100 	addsmi	r0, ip, r0, lsl #2
    5050:	0e000001 	cdpeq	0, 0, cr0, cr0, cr1, {0}
    5054:	03010063 	movweq	r0, #4195	; 0x1063
    5058:	00002521 	andeq	r2, r0, r1, lsr #10
    505c:	00337200 	eorseq	r7, r3, r0, lsl #4
    5060:	00336e00 	eorseq	r6, r3, r0, lsl #28
    5064:	a0e00f00 	rscge	r0, r0, r0, lsl #30
    5068:	01400000 	mrseq	r0, (UNDEF: 64)
    506c:	01100000 	tsteq	r0, r0
    5070:	00740250 	rsbseq	r0, r4, r0, asr r2
    5074:	35110000 	ldrcc	r0, [r1, #-0]
    5078:	3500000a 	strcc	r0, [r0, #-10]
    507c:	0200000a 	andeq	r0, r0, #10, 0
    5080:	37000642 	strcc	r0, [r0, -r2, asr #12]
    5084:	04000001 	streq	r0, [r0], #-1
    5088:	001c2700 	andseq	r2, ip, r0, lsl #14
    508c:	6a010400 	bvs	46094 <__bss_end__+0x3b18c>
    5090:	0c000001 	stceq	0, cr0, [r0], {1}
    5094:	00000c05 	andeq	r0, r0, r5, lsl #24
    5098:	0000059f 	muleq	r0, pc, r5	; <UNPREDICTABLE>
    509c:	0000a110 	andeq	sl, r0, r0, lsl r1
    50a0:	0000002c 	andeq	r0, r0, ip, lsr #32
    50a4:	000027c1 	andeq	r2, r0, r1, asr #15
    50a8:	69050402 	stmdbvs	r5, {r1, sl}
    50ac:	0300746e 	movweq	r7, #1134	; 0x46e
    50b0:	012b0704 			; <UNDEFINED> instruction: 0x012b0704
    50b4:	01030000 	mrseq	r0, (UNDEF: 3)
    50b8:	0000c306 	andeq	ip, r0, r6, lsl #6
    50bc:	05020300 	streq	r0, [r2, #-768]	; 0xfffffd00
    50c0:	00000021 	andeq	r0, r0, r1, lsr #32
    50c4:	56050403 	strpl	r0, [r5], -r3, lsl #8
    50c8:	03000000 	movweq	r0, #0
    50cc:	00510508 	subseq	r0, r1, r8, lsl #10
    50d0:	01030000 	mrseq	r0, (UNDEF: 3)
    50d4:	0000c108 	andeq	ip, r0, r8, lsl #2
    50d8:	07020300 	streq	r0, [r2, -r0, lsl #6]
    50dc:	00000152 	andeq	r0, r0, r2, asr r1
    50e0:	26070403 	strcs	r0, [r7], -r3, lsl #8
    50e4:	03000001 	movweq	r0, #1
    50e8:	01210708 			; <UNDEFINED> instruction: 0x01210708
    50ec:	25040000 	strcs	r0, [r4, #-0]
    50f0:	7a000000 	bvc	50f8 <__code_start__-0x2f08>
    50f4:	05000000 	streq	r0, [r0, #-0]
    50f8:	00000025 	andeq	r0, r0, r5, lsr #32
    50fc:	002b0600 	eoreq	r0, fp, r0, lsl #12
    5100:	1c020000 	stcne	0, cr0, [r2], {-0}
    5104:	0000860e 	andeq	r8, r0, lr, lsl #12
    5108:	6b040700 	blvs	106d10 <__bss_end__+0xfbe08>
    510c:	04000000 	streq	r0, [r0], #-0
    5110:	00000025 	andeq	r0, r0, r5, lsr #32
    5114:	0000009b 	muleq	r0, fp, r0
    5118:	00009b05 	andeq	r9, r0, r5, lsl #22
    511c:	04070000 	streq	r0, [r7], #-0
    5120:	000000a8 	andeq	r0, r0, r8, lsr #1
    5124:	ca080103 	bgt	205538 <__bss_end__+0x1fa630>
    5128:	08000000 	stmdaeq	r0, {}	; <UNPREDICTABLE>
    512c:	000000a1 	andeq	r0, r0, r1, lsr #1
    5130:	00060706 	andeq	r0, r6, r6, lsl #14
    5134:	0e210200 	cdpeq	2, 2, cr0, cr1, cr0, {0}
    5138:	000000b9 	strheq	r0, [r0], -r9
    513c:	008c0407 	addeq	r0, ip, r7, lsl #8
    5140:	83090000 	movwhi	r0, #36864	; 0x9000
    5144:	01000006 	tsteq	r0, r6
    5148:	01340704 	teqeq	r4, r4, lsl #14
    514c:	a1100000 	tstge	r0, r0
    5150:	002c0000 	eoreq	r0, ip, r0
    5154:	9c010000 	stcls	0, cr0, [r1], {-0}
    5158:	00000134 	andeq	r0, r0, r4, lsr r1
    515c:	000c150a 	andeq	r1, ip, sl, lsl #10
    5160:	15040100 	strne	r0, [r4, #-256]	; 0xffffff00
    5164:	00000134 	andeq	r0, r0, r4, lsr r1
    5168:	730b5001 	movwvc	r5, #45057	; 0xb001
    516c:	01006372 	tsteq	r0, r2, ror r3
    5170:	009b2704 	addseq	r2, fp, r4, lsl #14
    5174:	33940000 	orrscc	r0, r4, #0, 0
    5178:	33900000 	orrscc	r0, r0, #0, 0
    517c:	730c0000 	movwvc	r0, #49152	; 0xc000
    5180:	05010031 	streq	r0, [r1, #-49]	; 0xffffffcf
    5184:	0001340b 	andeq	r3, r1, fp, lsl #8
    5188:	0033c300 	eorseq	ip, r3, r0, lsl #6
    518c:	0033b500 	eorseq	fp, r3, r0, lsl #10
    5190:	32730c00 	rsbscc	r0, r3, #0, 24
    5194:	11060100 	mrsne	r0, (UNDEF: 22)
    5198:	0000009b 	muleq	r0, fp, r0
    519c:	00003422 	andeq	r3, r0, r2, lsr #8
    51a0:	0000341c 	andeq	r3, r0, ip, lsl r4
    51a4:	0100630c 	tsteq	r0, ip, lsl #6
    51a8:	00a10a07 	adceq	r0, r1, r7, lsl #20
    51ac:	34530000 	ldrbcc	r0, [r3], #-0
    51b0:	344d0000 	strbcc	r0, [sp], #-0
    51b4:	07000000 	streq	r0, [r0, -r0]
    51b8:	0000a104 	andeq	sl, r0, r4, lsl #2
    51bc:	00f70000 	rscseq	r0, r7, r0
    51c0:	00040000 	andeq	r0, r4, r0
    51c4:	00001cdd 	ldrdeq	r1, [r0], -sp
    51c8:	016a0104 	cmneq	sl, r4, lsl #2
    51cc:	1a0c0000 	bne	3051d4 <__bss_end__+0x2fa2cc>
    51d0:	9f00000c 	svcls	0x0000000c
    51d4:	3c000005 	stccc	0, cr0, [r0], {5}
    51d8:	440000a1 	strmi	r0, [r0], #-161	; 0xffffff5f
    51dc:	a7000000 	strge	r0, [r0, -r0]
    51e0:	02000028 	andeq	r0, r0, #40, 0	; 0x28
    51e4:	6e690504 	cdpvs	5, 6, cr0, cr9, cr4, {0}
    51e8:	04030074 	streq	r0, [r3], #-116	; 0xffffff8c
    51ec:	00012b07 	andeq	r2, r1, r7, lsl #22
    51f0:	06010300 	streq	r0, [r1], -r0, lsl #6
    51f4:	000000c3 	andeq	r0, r0, r3, asr #1
    51f8:	21050203 	tstcs	r5, r3, lsl #4
    51fc:	03000000 	movweq	r0, #0
    5200:	00560504 	subseq	r0, r6, r4, lsl #10
    5204:	08030000 	stmdaeq	r3, {}	; <UNPREDICTABLE>
    5208:	00005105 	andeq	r5, r0, r5, lsl #2
    520c:	08010300 	stmdaeq	r1, {r8, r9}
    5210:	000000c1 	andeq	r0, r0, r1, asr #1
    5214:	52070203 	andpl	r0, r7, #805306368	; 0x30000000
    5218:	03000001 	movweq	r0, #1
    521c:	01260704 			; <UNDEFINED> instruction: 0x01260704
    5220:	08030000 	stmdaeq	r3, {}	; <UNPREDICTABLE>
    5224:	00012107 	andeq	r2, r1, r7, lsl #2
    5228:	00250400 	eoreq	r0, r5, r0, lsl #8
    522c:	007a0000 	rsbseq	r0, sl, r0
    5230:	25050000 	strcs	r0, [r5, #-0]
    5234:	00000000 	andeq	r0, r0, r0
    5238:	00002b06 	andeq	r2, r0, r6, lsl #22
    523c:	0e1c0200 	cdpeq	2, 1, cr0, cr12, cr0, {0}
    5240:	00000086 	andeq	r0, r0, r6, lsl #1
    5244:	006b0407 	rsbeq	r0, fp, r7, lsl #8
    5248:	25040000 	strcs	r0, [r4, #-0]
    524c:	9b000000 	blls	5254 <__code_start__-0x2dac>
    5250:	05000000 	streq	r0, [r0, #-0]
    5254:	0000009b 	muleq	r0, fp, r0
    5258:	a8040700 	stmdage	r4, {r8, r9, sl}
    525c:	03000000 	movweq	r0, #0
    5260:	00ca0801 	sbceq	r0, sl, r1, lsl #16
    5264:	a1080000 	mrsge	r0, (UNDEF: 8)
    5268:	06000000 	streq	r0, [r0], -r0
    526c:	00000607 	andeq	r0, r0, r7, lsl #12
    5270:	b90e2102 	stmdblt	lr, {r1, r8, sp}
    5274:	07000000 	streq	r0, [r0, -r0]
    5278:	00008c04 	andeq	r8, r0, r4, lsl #24
    527c:	06b10900 	ldrteq	r0, [r1], r0, lsl #18
    5280:	03010000 	movweq	r0, #4096	; 0x1000
    5284:	00002505 	andeq	r2, r0, r5, lsl #10
    5288:	00a13c00 	adceq	r3, r1, r0, lsl #24
    528c:	00004400 	andeq	r4, r0, r0, lsl #8
    5290:	0a9c0100 	beq	fe705698 <__bss_end__+0xfe6fa790>
    5294:	03010061 	movweq	r0, #4193	; 0x1061
    5298:	00009b18 	andeq	r9, r0, r8, lsl fp
    529c:	00348a00 	eorseq	r8, r4, r0, lsl #20
    52a0:	00347e00 	eorseq	r7, r4, r0, lsl #28
    52a4:	00620a00 	rsbeq	r0, r2, r0, lsl #20
    52a8:	9b270301 	blls	9c5eb4 <__bss_end__+0x9bafac>
    52ac:	de000000 	cdple	0, 0, cr0, cr0, cr0, {0}
    52b0:	d8000034 	stmdale	r0, {r2, r4, r5}
    52b4:	00000034 	andeq	r0, r0, r4, lsr r0
    52b8:	00010f00 	andeq	r0, r1, r0, lsl #30
    52bc:	6c000400 	cfstrsvs	mvf0, [r0], {-0}
    52c0:	0400001d 	streq	r0, [r0], #-29	; 0xffffffe3
    52c4:	00016a01 	andeq	r6, r1, r1, lsl #20
    52c8:	0c2a0c00 	stceq	12, cr0, [sl], #-0
    52cc:	059f0000 	ldreq	r0, [pc]	; 52d4 <__code_start__-0x2d2c>
    52d0:	a1800000 	orrge	r0, r0, r0
    52d4:	00180000 	andseq	r0, r8, r0
    52d8:	295d0000 	ldmdbcs	sp, {}^	; <UNPREDICTABLE>
    52dc:	04020000 	streq	r0, [r2], #-0
    52e0:	746e6905 	strbtvc	r6, [lr], #-2309	; 0xfffff6fb
    52e4:	07040300 	streq	r0, [r4, -r0, lsl #6]
    52e8:	0000012b 	andeq	r0, r0, fp, lsr #2
    52ec:	c3060103 	movwgt	r0, #24835	; 0x6103
    52f0:	03000000 	movweq	r0, #0
    52f4:	00210502 	eoreq	r0, r1, r2, lsl #10
    52f8:	04030000 	streq	r0, [r3], #-0
    52fc:	00005605 	andeq	r5, r0, r5, lsl #12
    5300:	05080300 	streq	r0, [r8, #-768]	; 0xfffffd00
    5304:	00000051 	andeq	r0, r0, r1, asr r0
    5308:	c1080103 	tstgt	r8, r3, lsl #2
    530c:	03000000 	movweq	r0, #0
    5310:	01520702 	cmpeq	r2, r2, lsl #14
    5314:	04030000 	streq	r0, [r3], #-0
    5318:	00012607 	andeq	r2, r1, r7, lsl #12
    531c:	07080300 	streq	r0, [r8, -r0, lsl #6]
    5320:	00000121 	andeq	r0, r0, r1, lsr #2
    5324:	00002504 	andeq	r2, r0, r4, lsl #10
    5328:	00007a00 	andeq	r7, r0, r0, lsl #20
    532c:	00250500 	eoreq	r0, r5, r0, lsl #10
    5330:	06000000 	streq	r0, [r0], -r0
    5334:	0000002b 	andeq	r0, r0, fp, lsr #32
    5338:	860e1c02 	strhi	r1, [lr], -r2, lsl #24
    533c:	07000000 	streq	r0, [r0, -r0]
    5340:	00006b04 	andeq	r6, r0, r4, lsl #22
    5344:	00250400 	eoreq	r0, r5, r0, lsl #8
    5348:	009b0000 	addseq	r0, fp, r0
    534c:	9b050000 	blls	145354 <__bss_end__+0x13a44c>
    5350:	00000000 	andeq	r0, r0, r0
    5354:	00a80407 	adceq	r0, r8, r7, lsl #8
    5358:	01030000 	mrseq	r0, (UNDEF: 3)
    535c:	0000ca08 	andeq	ip, r0, r8, lsl #20
    5360:	00a10800 	adceq	r0, r1, r0, lsl #16
    5364:	07060000 	streq	r0, [r6, -r0]
    5368:	02000006 	andeq	r0, r0, #6, 0
    536c:	00b90e21 	adcseq	r0, r9, r1, lsr #28
    5370:	04070000 	streq	r0, [r7], #-0
    5374:	0000008c 	andeq	r0, r0, ip, lsl #1
    5378:	00068a09 	andeq	r8, r6, r9, lsl #20
    537c:	07030100 	streq	r0, [r3, -r0, lsl #2]
    5380:	0000010c 	andeq	r0, r0, ip, lsl #2
    5384:	0000a180 	andeq	sl, r0, r0, lsl #3
    5388:	00000018 	andeq	r0, r0, r8, lsl r0
    538c:	010c9c01 	tsteq	ip, r1, lsl #24
    5390:	730a0000 	movwvc	r0, #40960	; 0xa000
    5394:	03010031 	movweq	r0, #4145	; 0x1031
    5398:	00010c15 	andeq	r0, r1, r5, lsl ip
    539c:	0b500100 	bleq	14057a4 <__bss_end__+0x13fa89c>
    53a0:	01003273 	tsteq	r0, r3, ror r2
    53a4:	009b2603 	addseq	r2, fp, r3, lsl #12
    53a8:	350d0000 	strcc	r0, [sp, #-0]
    53ac:	35070000 	strcc	r0, [r7, #-0]
    53b0:	730c0000 	movwvc	r0, #49152	; 0xc000
    53b4:	14040100 	strne	r0, [r4], #-256	; 0xffffff00
    53b8:	0000010c 	andeq	r0, r0, ip, lsl #2
    53bc:	0000353a 	andeq	r3, r0, sl, lsr r5
    53c0:	00003538 	andeq	r3, r0, r8, lsr r5
    53c4:	a1040700 	tstge	r4, r0, lsl #14
    53c8:	00000000 	andeq	r0, r0, r0
    53cc:	0000014e 	andeq	r0, r0, lr, asr #2
    53d0:	1e220004 	cdpne	0, 2, cr0, cr2, cr4, {0}
    53d4:	01040000 	mrseq	r0, (UNDEF: 4)
    53d8:	0000016a 	andeq	r0, r0, sl, ror #2
    53dc:	000c3a0c 	andeq	r3, ip, ip, lsl #20
    53e0:	00059f00 	andeq	r9, r5, r0, lsl #30
    53e4:	00a19800 	adceq	r9, r1, r0, lsl #16
    53e8:	00003000 	andeq	r3, r0, r0
    53ec:	0029fe00 	eoreq	pc, r9, r0, lsl #28
    53f0:	05040200 	streq	r0, [r4, #-512]	; 0xfffffe00
    53f4:	00746e69 	rsbseq	r6, r4, r9, ror #28
    53f8:	00058803 	andeq	r8, r5, r3, lsl #16
    53fc:	17d10300 	ldrbne	r0, [r1, r0, lsl #6]
    5400:	00000038 	andeq	r0, r0, r8, lsr r0
    5404:	2b070404 	blcs	1c641c <__bss_end__+0x1bb514>
    5408:	04000001 	streq	r0, [r0], #-1
    540c:	00c30601 	sbceq	r0, r3, r1, lsl #12
    5410:	02040000 	andeq	r0, r4, #0, 0
    5414:	00002105 	andeq	r2, r0, r5, lsl #2
    5418:	05040400 	streq	r0, [r4, #-1024]	; 0xfffffc00
    541c:	00000056 	andeq	r0, r0, r6, asr r0
    5420:	51050804 	tstpl	r5, r4, lsl #16
    5424:	04000000 	streq	r0, [r0], #-0
    5428:	00c10801 	sbceq	r0, r1, r1, lsl #16
    542c:	5b050000 	blpl	145434 <__bss_end__+0x13a52c>
    5430:	04000000 	streq	r0, [r0], #-0
    5434:	01520702 	cmpeq	r2, r2, lsl #14
    5438:	04040000 	streq	r0, [r4], #-0
    543c:	00012607 	andeq	r2, r1, r7, lsl #12
    5440:	07080400 	streq	r0, [r8, -r0, lsl #8]
    5444:	00000121 	andeq	r0, r0, r1, lsr #2
    5448:	00002506 	andeq	r2, r0, r6, lsl #10
    544c:	00008b00 	andeq	r8, r0, r0, lsl #22
    5450:	00250700 	eoreq	r0, r5, r0, lsl #14
    5454:	08000000 	stmdaeq	r0, {}	; <UNPREDICTABLE>
    5458:	0000002b 	andeq	r0, r0, fp, lsr #32
    545c:	970e1c02 	strls	r1, [lr, -r2, lsl #24]
    5460:	09000000 	stmdbeq	r0, {}	; <UNPREDICTABLE>
    5464:	00007c04 	andeq	r7, r0, r4, lsl #24
    5468:	00250600 	eoreq	r0, r5, r0, lsl #12
    546c:	00ac0000 	adceq	r0, ip, r0
    5470:	ac070000 	stcge	0, cr0, [r7], {-0}
    5474:	00000000 	andeq	r0, r0, r0
    5478:	00b90409 	adcseq	r0, r9, r9, lsl #8
    547c:	01040000 	mrseq	r0, (UNDEF: 4)
    5480:	0000ca08 	andeq	ip, r0, r8, lsl #20
    5484:	00b20500 	adcseq	r0, r2, r0, lsl #10
    5488:	07080000 	streq	r0, [r8, -r0]
    548c:	02000006 	andeq	r0, r0, #6, 0
    5490:	00ca0e21 	sbceq	r0, sl, r1, lsr #28
    5494:	04090000 	streq	r0, [r9], #-0
    5498:	0000009d 	muleq	r0, sp, r0
    549c:	0006d20a 	andeq	sp, r6, sl, lsl #4
    54a0:	05040100 	streq	r0, [r4, #-256]	; 0xffffff00
    54a4:	00000025 	andeq	r0, r0, r5, lsr #32
    54a8:	0000a198 	muleq	r0, r8, r1
    54ac:	00000030 	andeq	r0, r0, r0, lsr r0
    54b0:	014b9c01 	cmpeq	fp, r1, lsl #24
    54b4:	5f0b0000 	svcpl	0x000b0000
    54b8:	01003173 	tsteq	r0, r3, ror r1
    54bc:	00ac1904 	adceq	r1, ip, r4, lsl #18
    54c0:	35510000 	ldrbcc	r0, [r1, #-0]
    54c4:	354d0000 	strbcc	r0, [sp, #-0]
    54c8:	5f0b0000 	svcpl	0x000b0000
    54cc:	01003273 	tsteq	r0, r3, ror r2
    54d0:	00ac2a04 	adceq	r2, ip, r4, lsl #20
    54d4:	35760000 	ldrbcc	r0, [r6, #-0]!
    54d8:	35720000 	ldrbcc	r0, [r2, #-0]!
    54dc:	6e0b0000 	cdpvs	0, 0, cr0, cr11, cr0, {0}
    54e0:	36040100 	strcc	r0, [r4], -r0, lsl #2
    54e4:	0000002c 	andeq	r0, r0, ip, lsr #32
    54e8:	000035a1 	andeq	r3, r0, r1, lsr #11
    54ec:	00003597 	muleq	r0, r7, r5
    54f0:	0031730c 	eorseq	r7, r1, ip, lsl #6
    54f4:	4b1a0501 	blmi	686900 <__bss_end__+0x67b9f8>
    54f8:	f8000001 			; <UNDEFINED> instruction: 0xf8000001
    54fc:	f0000035 			; <UNDEFINED> instruction: 0xf0000035
    5500:	0c000035 	stceq	0, cr0, [r0], {53}	; 0x35
    5504:	01003273 	tsteq	r0, r3, ror r2
    5508:	014b2c05 	cmpeq	fp, r5, lsl #24
    550c:	36360000 	ldrtcc	r0, [r6], -r0
    5510:	36300000 	ldrtcc	r0, [r0], -r0
    5514:	09000000 	stmdbeq	r0, {}	; <UNPREDICTABLE>
    5518:	00006204 	andeq	r6, r0, r4, lsl #4
    551c:	00ce0000 	sbceq	r0, lr, r0
    5520:	00040000 	andeq	r0, r4, r0
    5524:	00001ed6 	ldrdeq	r1, [r0], -r6
    5528:	016a0104 	cmneq	sl, r4, lsl #2
    552c:	4b0c0000 	blmi	305534 <__bss_end__+0x2fa62c>
    5530:	9f00000c 	svcls	0x0000000c
    5534:	c8000005 	stmdagt	r0, {r0, r2}
    5538:	040000a1 	streq	r0, [r0], #-161	; 0xffffff5f
    553c:	ff000000 			; <UNDEFINED> instruction: 0xff000000
    5540:	0200002a 	andeq	r0, r0, #42, 0	; 0x2a
    5544:	6e690504 	cdpvs	5, 6, cr0, cr9, cr4, {0}
    5548:	04030074 	streq	r0, [r3], #-116	; 0xffffff8c
    554c:	00012b07 	andeq	r2, r1, r7, lsl #22
    5550:	06010300 	streq	r0, [r1], -r0, lsl #6
    5554:	000000c3 	andeq	r0, r0, r3, asr #1
    5558:	21050203 	tstcs	r5, r3, lsl #4
    555c:	03000000 	movweq	r0, #0
    5560:	00560504 	subseq	r0, r6, r4, lsl #10
    5564:	08030000 	stmdaeq	r3, {}	; <UNPREDICTABLE>
    5568:	00005105 	andeq	r5, r0, r5, lsl #2
    556c:	08010300 	stmdaeq	r1, {r8, r9}
    5570:	000000c1 	andeq	r0, r0, r1, asr #1
    5574:	52070203 	andpl	r0, r7, #805306368	; 0x30000000
    5578:	03000001 	movweq	r0, #1
    557c:	01260704 			; <UNDEFINED> instruction: 0x01260704
    5580:	08030000 	stmdaeq	r3, {}	; <UNPREDICTABLE>
    5584:	00012107 	andeq	r2, r1, r7, lsl #2
    5588:	00250400 	eoreq	r0, r5, r0, lsl #8
    558c:	007a0000 	rsbseq	r0, sl, r0
    5590:	25050000 	strcs	r0, [r5, #-0]
    5594:	00000000 	andeq	r0, r0, r0
    5598:	00002b06 	andeq	r2, r0, r6, lsl #22
    559c:	0e1c0200 	cdpeq	2, 1, cr0, cr12, cr0, {0}
    55a0:	00000086 	andeq	r0, r0, r6, lsl #1
    55a4:	006b0407 	rsbeq	r0, fp, r7, lsl #8
    55a8:	25040000 	strcs	r0, [r4, #-0]
    55ac:	9b000000 	blls	55b4 <__code_start__-0x2a4c>
    55b0:	05000000 	streq	r0, [r0, #-0]
    55b4:	0000009b 	muleq	r0, fp, r0
    55b8:	a8040700 	stmdage	r4, {r8, r9, sl}
    55bc:	03000000 	movweq	r0, #0
    55c0:	00ca0801 	sbceq	r0, sl, r1, lsl #16
    55c4:	a1080000 	mrsge	r0, (UNDEF: 8)
    55c8:	06000000 	streq	r0, [r0], -r0
    55cc:	00000607 	andeq	r0, r0, r7, lsl #12
    55d0:	b90e2102 	stmdblt	lr, {r1, r8, sp}
    55d4:	07000000 	streq	r0, [r0, -r0]
    55d8:	00008c04 	andeq	r8, r0, r4, lsl #24
    55dc:	07790900 	ldrbeq	r0, [r9, -r0, lsl #18]!
    55e0:	03010000 	movweq	r0, #4096	; 0x1000
    55e4:	00a1c806 	adceq	ip, r1, r6, lsl #16
    55e8:	00000400 	andeq	r0, r0, r0, lsl #8
    55ec:	009c0100 	addseq	r0, ip, r0, lsl #2

Disassembly of section .debug_abbrev:

00000000 <.debug_abbrev>:
       0:	25011101 	strcs	r1, [r1, #-257]	; 0xfffffeff
       4:	030b130e 	movweq	r1, #45838	; 0xb30e
       8:	110e1b0e 	tstne	lr, lr, lsl #22
       c:	10061201 	andne	r1, r6, r1, lsl #4
      10:	02000017 	andeq	r0, r0, #23, 0
      14:	0b0b0024 	bleq	2c00ac <__bss_end__+0x2b51a4>
      18:	08030b3e 	stmdaeq	r3, {r1, r2, r3, r4, r5, r8, r9, fp}
      1c:	24030000 	strcs	r0, [r3], #-0
      20:	3e0b0b00 	vmlacc.f64	d0, d11, d0
      24:	000e030b 	andeq	r0, lr, fp, lsl #6
      28:	00160400 	andseq	r0, r6, r0, lsl #8
      2c:	0b3a0e03 	bleq	e83840 <__bss_end__+0xe78938>
      30:	0b390b3b 	bleq	e42d24 <__bss_end__+0xe37e1c>
      34:	00001349 	andeq	r1, r0, r9, asr #6
      38:	27011505 	strcs	r1, [r1, -r5, lsl #10]
      3c:	01134919 	tsteq	r3, r9, lsl r9
      40:	06000013 			; <UNDEFINED> instruction: 0x06000013
      44:	13490005 	movtne	r0, #36869	; 0x9005
      48:	34070000 	strcc	r0, [r7], #-0
      4c:	3a0e0300 	bcc	380c54 <__bss_end__+0x375d4c>
      50:	390b3b0b 	stmdbcc	fp, {r0, r1, r3, r8, r9, fp, ip, sp}
      54:	3f13490b 	svccc	0x0013490b
      58:	00193c19 	andseq	r3, r9, r9, lsl ip
      5c:	000f0800 	andeq	r0, pc, r0, lsl #16
      60:	13490b0b 	movtne	r0, #39691	; 0x9b0b
      64:	26090000 	strcs	r0, [r9], -r0
      68:	00134900 	andseq	r4, r3, r0, lsl #18
      6c:	01130a00 	tsteq	r3, r0, lsl #20
      70:	0b3a0b0b 	bleq	e82ca4 <__bss_end__+0xe77d9c>
      74:	0b390b3b 	bleq	e42d68 <__bss_end__+0xe37e60>
      78:	00001301 	andeq	r1, r0, r1, lsl #6
      7c:	03000d0b 	movweq	r0, #3339	; 0xd0b
      80:	3b0b3a0e 	blcc	2ce8c0 <__bss_end__+0x2c39b8>
      84:	490b390b 	stmdbmi	fp, {r0, r1, r3, r8, fp, ip, sp}
      88:	000b3813 	andeq	r3, fp, r3, lsl r8
      8c:	01130c00 	tsteq	r3, r0, lsl #24
      90:	0b0b0e03 	bleq	2c38a4 <__bss_end__+0x2b899c>
      94:	0b3b0b3a 	bleq	ec2d84 <__bss_end__+0xeb7e7c>
      98:	13010b39 	movwne	r0, #6969	; 0x1b39
      9c:	0d0d0000 	stceq	0, cr0, [sp, #-0]
      a0:	3a080300 	bcc	200ca8 <__bss_end__+0x1f5da0>
      a4:	390b3b0b 	stmdbcc	fp, {r0, r1, r3, r8, r9, fp, ip, sp}
      a8:	3813490b 	ldmdacc	r3, {r0, r1, r3, r8, fp, lr}
      ac:	0e00000b 	cdpeq	0, 0, cr0, cr0, cr11, {0}
      b0:	13490101 	movtne	r0, #37121	; 0x9101
      b4:	00001301 	andeq	r1, r0, r1, lsl #6
      b8:	4900210f 	stmdbmi	r0, {r0, r1, r2, r3, r8, sp}
      bc:	000b2f13 	andeq	r2, fp, r3, lsl pc
      c0:	000f1000 	andeq	r1, pc, r0
      c4:	00000b0b 	andeq	r0, r0, fp, lsl #22
      c8:	3f012e11 	svccc	0x00012e11
      cc:	3a0e0319 	bcc	380d38 <__bss_end__+0x375e30>
      d0:	390b3b0b 	stmdbcc	fp, {r0, r1, r3, r8, r9, fp, ip, sp}
      d4:	1119270b 	tstne	r9, fp, lsl #14
      d8:	40061201 	andmi	r1, r6, r1, lsl #4
      dc:	19429718 	stmdbne	r2, {r3, r4, r8, r9, sl, ip, pc}^
      e0:	00001301 	andeq	r1, r0, r1, lsl #6
      e4:	03003412 	movweq	r3, #1042	; 0x412
      e8:	3b0b3a08 	blcc	2ce910 <__bss_end__+0x2c3a08>
      ec:	490b390b 	stmdbmi	fp, {r0, r1, r3, r8, fp, ip, sp}
      f0:	b7170213 			; <UNDEFINED> instruction: 0xb7170213
      f4:	00001742 	andeq	r1, r0, r2, asr #14
      f8:	31011d13 	tstcc	r1, r3, lsl sp
      fc:	b8015213 	stmdalt	r1, {r0, r1, r4, r9, ip, lr}
     100:	01110b42 	tsteq	r1, r2, asr #22
     104:	0b580612 	bleq	1601954 <__bss_end__+0x15f6a4c>
     108:	0b570b59 	bleq	15c2e74 <__bss_end__+0x15b7f6c>
     10c:	00001301 	andeq	r1, r0, r1, lsl #6
     110:	31000514 	tstcc	r0, r4, lsl r5
     114:	b7170213 			; <UNDEFINED> instruction: 0xb7170213
     118:	00001742 	andeq	r1, r0, r2, asr #14
     11c:	31003415 	tstcc	r0, r5, lsl r4
     120:	b7170213 			; <UNDEFINED> instruction: 0xb7170213
     124:	00001742 	andeq	r1, r0, r2, asr #14
     128:	01828916 	orreq	r8, r2, r6, lsl r9
     12c:	31011101 	tstcc	r1, r1, lsl #2
     130:	00130113 	andseq	r0, r3, r3, lsl r1
     134:	828a1700 	addhi	r1, sl, #0, 14
     138:	18020001 	stmdane	r2, {r0}
     13c:	00184291 	mulseq	r8, r1, r2
     140:	82891800 	addhi	r1, r9, #0, 16
     144:	01110001 	tsteq	r1, r1
     148:	00001331 	andeq	r1, r0, r1, lsr r3
     14c:	01828919 	orreq	r8, r2, r9, lsl r9
     150:	95011101 	strls	r1, [r1, #-257]	; 0xfffffeff
     154:	13311942 	teqne	r1, #1081344	; 0x108000
     158:	2e1a0000 	cdpcs	0, 1, cr0, cr10, cr0, {0}
     15c:	03193f01 	tsteq	r9, #1, 30
     160:	3b0b3a0e 	blcc	2ce9a0 <__bss_end__+0x2c3a98>
     164:	270b390b 	strcs	r3, [fp, -fp, lsl #18]
     168:	20134919 	andscs	r4, r3, r9, lsl r9
     16c:	0013010b 	andseq	r0, r3, fp, lsl #2
     170:	00341b00 	eorseq	r1, r4, r0, lsl #22
     174:	0b3a0803 	bleq	e82188 <__bss_end__+0xe77280>
     178:	0b390b3b 	bleq	e42e6c <__bss_end__+0xe37f64>
     17c:	00001349 	andeq	r1, r0, r9, asr #6
     180:	0300341c 	movweq	r3, #1052	; 0x41c
     184:	3413490e 	ldrcc	r4, [r3], #-2318	; 0xfffff6f2
     188:	00180219 	andseq	r0, r8, r9, lsl r2
     18c:	010b1d00 	tsteq	fp, r0, lsl #26
     190:	891e0000 	ldmdbhi	lr, {}	; <UNPREDICTABLE>
     194:	11010182 	smlabbne	r1, r2, r1, r0
     198:	00133101 	andseq	r3, r3, r1, lsl #2
     19c:	012e1f00 			; <UNDEFINED> instruction: 0x012e1f00
     1a0:	0b3a0e03 	bleq	e839b4 <__bss_end__+0xe78aac>
     1a4:	0b390b3b 	bleq	e42e98 <__bss_end__+0xe37f90>
     1a8:	13491927 	movtne	r1, #39207	; 0x9927
     1ac:	13010b20 	movwne	r0, #6944	; 0x1b20
     1b0:	05200000 	streq	r0, [r0, #-0]!
     1b4:	3a080300 	bcc	200dbc <__bss_end__+0x1f5eb4>
     1b8:	390b3b0b 	stmdbcc	fp, {r0, r1, r3, r8, r9, fp, ip, sp}
     1bc:	0013490b 	andseq	r4, r3, fp, lsl #18
     1c0:	00052100 	andeq	r2, r5, r0, lsl #2
     1c4:	0b3a0e03 	bleq	e839d8 <__bss_end__+0xe78ad0>
     1c8:	0b390b3b 	bleq	e42ebc <__bss_end__+0xe37fb4>
     1cc:	00001349 	andeq	r1, r0, r9, asr #6
     1d0:	31012e22 	tstcc	r1, r2, lsr #28
     1d4:	12011113 	andne	r1, r1, #-1073741820	; 0xc0000004
     1d8:	97184006 	ldrls	r4, [r8, -r6]
     1dc:	13011942 	movwne	r1, #6466	; 0x1942
     1e0:	0b230000 	bleq	8c01e8 <__bss_end__+0x8b52e0>
     1e4:	55133101 	ldrpl	r3, [r3, #-257]	; 0xfffffeff
     1e8:	00130117 	andseq	r0, r3, r7, lsl r1
     1ec:	010b2400 	tsteq	fp, r0, lsl #8
     1f0:	17551331 	smmlarne	r5, r1, r3, r1
     1f4:	1d250000 	stcne	0, cr0, [r5, #-0]
     1f8:	52133101 	andspl	r3, r3, #1073741824	; 0x40000000
     1fc:	0b42b801 	bleq	10ae208 <__bss_end__+0x10a3300>
     200:	0b581755 	bleq	1605f5c <__bss_end__+0x15fb054>
     204:	0b570b59 	bleq	15c2f70 <__bss_end__+0x15b8068>
     208:	34260000 	strtcc	r0, [r6], #-0
     20c:	00133100 	andseq	r3, r3, r0, lsl #2
     210:	010b2700 	tsteq	fp, r0, lsl #14
     214:	01111331 	tsteq	r1, r1, lsr r3
     218:	00000612 	andeq	r0, r0, r2, lsl r6
     21c:	3f002e28 	svccc	0x00002e28
     220:	6e193c19 	mrcvs	12, 0, r3, cr9, cr9, {0}
     224:	3a0e030e 	bcc	380e64 <__bss_end__+0x375f5c>
     228:	390b3b0b 	stmdbcc	fp, {r0, r1, r3, r8, r9, fp, ip, sp}
     22c:	2900000b 	stmdbcs	r0, {r0, r1, r3}
     230:	18020036 	stmdane	r2, {r1, r2, r4, r5}
     234:	01000000 	mrseq	r0, (UNDEF: 0)
     238:	0e250111 	mcreq	1, 1, r0, cr5, cr1, {0}
     23c:	0e030b13 	vmoveq.32	d3[0], r0
     240:	01110e1b 	tsteq	r1, fp, lsl lr
     244:	17100612 			; <UNDEFINED> instruction: 0x17100612
     248:	24020000 	strcs	r0, [r2], #-0
     24c:	3e0b0b00 	vmlacc.f64	d0, d11, d0
     250:	0008030b 	andeq	r0, r8, fp, lsl #6
     254:	00240300 	eoreq	r0, r4, r0, lsl #6
     258:	0b3e0b0b 	bleq	f82e8c <__bss_end__+0xf77f84>
     25c:	00000e03 	andeq	r0, r0, r3, lsl #28
     260:	03001604 	movweq	r1, #1540	; 0x604
     264:	3b0b3a0e 	blcc	2ceaa4 <__bss_end__+0x2c3b9c>
     268:	490b390b 	stmdbmi	fp, {r0, r1, r3, r8, fp, ip, sp}
     26c:	05000013 	streq	r0, [r0, #-19]	; 0xffffffed
     270:	19270115 	stmdbne	r7!, {r0, r2, r4, r8}
     274:	13011349 	movwne	r1, #4937	; 0x1349
     278:	05060000 	streq	r0, [r6, #-0]
     27c:	00134900 	andseq	r4, r3, r0, lsl #18
     280:	00340700 	eorseq	r0, r4, r0, lsl #14
     284:	0b3a0e03 	bleq	e83a98 <__bss_end__+0xe78b90>
     288:	0b390b3b 	bleq	e42f7c <__bss_end__+0xe38074>
     28c:	193f1349 	ldmdbne	pc!, {r0, r3, r6, r8, r9, ip}	; <UNPREDICTABLE>
     290:	0000193c 	andeq	r1, r0, ip, lsr r9
     294:	0b000f08 	bleq	3ebc <__code_start__-0x4144>
     298:	0013490b 	andseq	r4, r3, fp, lsl #18
     29c:	00260900 	eoreq	r0, r6, r0, lsl #18
     2a0:	00001349 	andeq	r1, r0, r9, asr #6
     2a4:	0b01130a 	bleq	44ed4 <__bss_end__+0x39fcc>
     2a8:	3b0b3a0b 	blcc	2ceadc <__bss_end__+0x2c3bd4>
     2ac:	010b390b 	tsteq	fp, fp, lsl #18
     2b0:	0b000013 	bleq	304 <__code_start__-0x7cfc>
     2b4:	0e03000d 	cdpeq	0, 0, cr0, cr3, cr13, {0}
     2b8:	0b3b0b3a 	bleq	ec2fa8 <__bss_end__+0xeb80a0>
     2bc:	13490b39 	movtne	r0, #39737	; 0x9b39
     2c0:	00000b38 	andeq	r0, r0, r8, lsr fp
     2c4:	3e01040c 	cdpcc	4, 0, cr0, cr1, cr12, {0}
     2c8:	490b0b0b 	stmdbmi	fp, {r0, r1, r3, r8, r9, fp}
     2cc:	3b0b3a13 	blcc	2ceb20 <__bss_end__+0x2c3c18>
     2d0:	010b390b 	tsteq	fp, fp, lsl #18
     2d4:	0d000013 	stceq	0, cr0, [r0, #-76]	; 0xffffffb4
     2d8:	0e030028 	cdpeq	0, 0, cr0, cr3, cr8, {1}
     2dc:	00000b1c 	andeq	r0, r0, ip, lsl fp
     2e0:	0301130e 	movweq	r1, #4878	; 0x130e
     2e4:	3a0b0b0e 	bcc	2c2f24 <__bss_end__+0x2b801c>
     2e8:	390b3b0b 	stmdbcc	fp, {r0, r1, r3, r8, r9, fp, ip, sp}
     2ec:	0013010b 	andseq	r0, r3, fp, lsl #2
     2f0:	000d0f00 	andeq	r0, sp, r0, lsl #30
     2f4:	0b3a0803 	bleq	e82308 <__bss_end__+0xe77400>
     2f8:	0b390b3b 	bleq	e42fec <__bss_end__+0xe380e4>
     2fc:	0b381349 	bleq	e05028 <__bss_end__+0xdfa120>
     300:	01100000 	tsteq	r0, r0
     304:	01134901 	tsteq	r3, r1, lsl #18
     308:	11000013 	tstne	r0, r3, lsl r0
     30c:	13490021 	movtne	r0, #36897	; 0x9021
     310:	00000b2f 	andeq	r0, r0, pc, lsr #22
     314:	0b000f12 	bleq	3f64 <__code_start__-0x409c>
     318:	1300000b 	movwne	r0, #11
     31c:	0e030034 	mcreq	0, 0, r0, cr3, cr4, {1}
     320:	0b3b0b3a 	bleq	ec3010 <__bss_end__+0xeb8108>
     324:	13490b39 	movtne	r0, #39737	; 0x9b39
     328:	00001802 	andeq	r1, r0, r2, lsl #16
     32c:	3f012e14 	svccc	0x00012e14
     330:	3a0e0319 	bcc	380f9c <__bss_end__+0x376094>
     334:	390b3b0b 	stmdbcc	fp, {r0, r1, r3, r8, r9, fp, ip, sp}
     338:	4919270b 	ldmdbmi	r9, {r0, r1, r3, r8, r9, sl, sp}
     33c:	12011113 	andne	r1, r1, #-1073741820	; 0xc0000004
     340:	97184006 	ldrls	r4, [r8, -r6]
     344:	13011942 	movwne	r1, #6466	; 0x1942
     348:	05150000 	ldreq	r0, [r5, #-0]
     34c:	3a0e0300 	bcc	380f54 <__bss_end__+0x37604c>
     350:	390b3b0b 	stmdbcc	fp, {r0, r1, r3, r8, r9, fp, ip, sp}
     354:	0213490b 	andseq	r4, r3, #180224	; 0x2c000
     358:	1742b717 	smlaldne	fp, r2, r7, r7
     35c:	05160000 	ldreq	r0, [r6, #-0]
     360:	3a080300 	bcc	200f68 <__bss_end__+0x1f6060>
     364:	390b3b0b 	stmdbcc	fp, {r0, r1, r3, r8, r9, fp, ip, sp}
     368:	0213490b 	andseq	r4, r3, #180224	; 0x2c000
     36c:	17000018 	smladne	r0, r8, r0, r0
     370:	08030034 	stmdaeq	r3, {r2, r4, r5}
     374:	0b3b0b3a 	bleq	ec3064 <__bss_end__+0xeb815c>
     378:	13490b39 	movtne	r0, #39737	; 0x9b39
     37c:	42b71702 	adcsmi	r1, r7, #524288	; 0x80000
     380:	18000017 	stmdane	r0, {r0, r1, r2, r4}
     384:	0111010b 	tsteq	r1, fp, lsl #2
     388:	13010612 	movwne	r0, #5650	; 0x1612
     38c:	89190000 	ldmdbhi	r9, {}	; <UNPREDICTABLE>
     390:	11010182 	smlabbne	r1, r2, r1, r0
     394:	01133101 	tsteq	r3, r1, lsl #2
     398:	1a000013 	bne	3ec <__code_start__-0x7c14>
     39c:	0001828a 	andeq	r8, r1, sl, lsl #5
     3a0:	42911802 	addsmi	r1, r1, #131072	; 0x20000
     3a4:	1b000018 	blne	40c <__code_start__-0x7bf4>
     3a8:	01018289 	smlabbeq	r1, r9, r2, r8
     3ac:	13310111 	teqne	r1, #1073741828	; 0x40000004
     3b0:	2e1c0000 	cdpcs	0, 1, cr0, cr12, cr0, {0}
     3b4:	03193f01 	tsteq	r9, #1, 30
     3b8:	3b0b3a0e 	blcc	2cebf8 <__bss_end__+0x2c3cf0>
     3bc:	270b390b 	strcs	r3, [fp, -fp, lsl #18]
     3c0:	12011119 	andne	r1, r1, #1073741830	; 0x40000006
     3c4:	97184006 	ldrls	r4, [r8, -r6]
     3c8:	13011942 	movwne	r1, #6466	; 0x1942
     3cc:	341d0000 	ldrcc	r0, [sp], #-0
     3d0:	490e0300 	stmdbmi	lr, {r8, r9}
     3d4:	02193413 	andseq	r3, r9, #318767104	; 0x13000000
     3d8:	1e000018 	mcrne	0, 0, r0, cr0, cr8, {0}
     3dc:	1755010b 	ldrbne	r0, [r5, -fp, lsl #2]
     3e0:	00001301 	andeq	r1, r0, r1, lsl #6
     3e4:	0182891f 	orreq	r8, r2, pc, lsl r9
     3e8:	31011100 	mrscc	r1, (UNDEF: 17)
     3ec:	20000013 	andcs	r0, r0, r3, lsl r0
     3f0:	0e03012e 	adfeqsp	f0, f3, #0.5
     3f4:	0b3b0b3a 	bleq	ec30e4 <__bss_end__+0xeb81dc>
     3f8:	19270b39 	stmdbne	r7!, {r0, r3, r4, r5, r8, r9, fp}
     3fc:	06120111 			; <UNDEFINED> instruction: 0x06120111
     400:	42971840 	addsmi	r1, r7, #64, 16	; 0x400000
     404:	00130119 	andseq	r0, r3, r9, lsl r1
     408:	00052100 	andeq	r2, r5, r0, lsl #2
     40c:	0b3a0803 	bleq	e82420 <__bss_end__+0xe77518>
     410:	0b390b3b 	bleq	e43104 <__bss_end__+0xe381fc>
     414:	17021349 	strne	r1, [r2, -r9, asr #6]
     418:	001742b7 			; <UNDEFINED> instruction: 0x001742b7
     41c:	00342200 	eorseq	r2, r4, r0, lsl #4
     420:	0b3a0e03 	bleq	e83c34 <__bss_end__+0xe78d2c>
     424:	0b390b3b 	bleq	e43118 <__bss_end__+0xe38210>
     428:	17021349 	strne	r1, [r2, -r9, asr #6]
     42c:	001742b7 			; <UNDEFINED> instruction: 0x001742b7
     430:	010b2300 	mrseq	r2, (UNDEF: 59)
     434:	06120111 			; <UNDEFINED> instruction: 0x06120111
     438:	1d240000 	stcne	0, cr0, [r4, #-0]
     43c:	52133101 	andspl	r3, r3, #1073741824	; 0x40000000
     440:	0b42b801 	bleq	10ae44c <__bss_end__+0x10a3544>
     444:	06120111 			; <UNDEFINED> instruction: 0x06120111
     448:	0b590b58 	bleq	16431b0 <__bss_end__+0x16382a8>
     44c:	13010b57 	movwne	r0, #6999	; 0x1b57
     450:	05250000 	streq	r0, [r5, #-0]!
     454:	02133100 	andseq	r3, r3, #0
     458:	1742b717 	smlaldne	fp, r2, r7, r7
     45c:	2e260000 	cdpcs	0, 2, cr0, cr6, cr0, {0}
     460:	03193f00 	tsteq	r9, #0, 30
     464:	3b0b3a0e 	blcc	2ceca4 <__bss_end__+0x2c3d9c>
     468:	270b390b 	strcs	r3, [fp, -fp, lsl #18]
     46c:	11134919 	tstne	r3, r9, lsl r9
     470:	40061201 	andmi	r1, r6, r1, lsl #4
     474:	19429718 	stmdbne	r2, {r3, r4, r8, r9, sl, ip, pc}^
     478:	2e270000 	cdpcs	0, 2, cr0, cr7, cr0, {0}
     47c:	3a0e0301 	bcc	381088 <__bss_end__+0x376180>
     480:	390b3b0b 	stmdbcc	fp, {r0, r1, r3, r8, r9, fp, ip, sp}
     484:	4919270b 	ldmdbmi	r9, {r0, r1, r3, r8, r9, sl, sp}
     488:	010b2013 	tsteq	fp, r3, lsl r0
     48c:	28000013 	stmdacs	r0, {r0, r1, r4}
     490:	08030005 	stmdaeq	r3, {r0, r2}
     494:	0b3b0b3a 	bleq	ec3184 <__bss_end__+0xeb827c>
     498:	13490b39 	movtne	r0, #39737	; 0x9b39
     49c:	2e290000 	cdpcs	0, 2, cr0, cr9, cr0, {0}
     4a0:	3c193f00 	ldccc	15, cr3, [r9], {-0}
     4a4:	030e6e19 	movweq	r6, #60953	; 0xee19
     4a8:	3b0b3a0e 	blcc	2cece8 <__bss_end__+0x2c3de0>
     4ac:	000b390b 	andeq	r3, fp, fp, lsl #18
     4b0:	11010000 	mrsne	r0, (UNDEF: 1)
     4b4:	130e2501 	movwne	r2, #58625	; 0xe501
     4b8:	1b0e030b 	blne	3810ec <__bss_end__+0x3761e4>
     4bc:	1201110e 	andne	r1, r1, #-2147483645	; 0x80000003
     4c0:	00171006 	andseq	r1, r7, r6
     4c4:	00240200 	eoreq	r0, r4, r0, lsl #4
     4c8:	0b3e0b0b 	bleq	f830fc <__bss_end__+0xf781f4>
     4cc:	00000803 	andeq	r0, r0, r3, lsl #16
     4d0:	0b002403 	bleq	94e4 <va_printk+0x444>
     4d4:	030b3e0b 	movweq	r3, #48651	; 0xbe0b
     4d8:	0400000e 	streq	r0, [r0], #-14
     4dc:	19270115 	stmdbne	r7!, {r0, r2, r4, r8}
     4e0:	13011349 	movwne	r1, #4937	; 0x1349
     4e4:	05050000 	streq	r0, [r5, #-0]
     4e8:	00134900 	andseq	r4, r3, r0, lsl #18
     4ec:	00340600 	eorseq	r0, r4, r0, lsl #12
     4f0:	0b3a0e03 	bleq	e83d04 <__bss_end__+0xe78dfc>
     4f4:	0b390b3b 	bleq	e431e8 <__bss_end__+0xe382e0>
     4f8:	193f1349 	ldmdbne	pc!, {r0, r3, r6, r8, r9, ip}	; <UNPREDICTABLE>
     4fc:	0000193c 	andeq	r1, r0, ip, lsr r9
     500:	0b000f07 	bleq	4124 <__code_start__-0x3edc>
     504:	0013490b 	andseq	r4, r3, fp, lsl #18
     508:	00260800 	eoreq	r0, r6, r0, lsl #16
     50c:	00001349 	andeq	r1, r0, r9, asr #6
     510:	03011709 	movweq	r1, #5897	; 0x1709
     514:	3a0b0b0e 	bcc	2c3154 <__bss_end__+0x2b824c>
     518:	390b3b0b 	stmdbcc	fp, {r0, r1, r3, r8, r9, fp, ip, sp}
     51c:	0013010b 	andseq	r0, r3, fp, lsl #2
     520:	000d0a00 	andeq	r0, sp, r0, lsl #20
     524:	0b3a0803 	bleq	e82538 <__bss_end__+0xe77630>
     528:	0b390b3b 	bleq	e4321c <__bss_end__+0xe38314>
     52c:	00001349 	andeq	r1, r0, r9, asr #6
     530:	0b000f0b 	bleq	4164 <__code_start__-0x3e9c>
     534:	0c00000b 	stceq	0, cr0, [r0], {11}
     538:	19270015 	stmdbne	r7!, {r0, r2, r4}
     53c:	130d0000 	movwne	r0, #53248	; 0xd000
     540:	3a0b0b01 	bcc	2c314c <__bss_end__+0x2b8244>
     544:	390b3b0b 	stmdbcc	fp, {r0, r1, r3, r8, r9, fp, ip, sp}
     548:	0013010b 	andseq	r0, r3, fp, lsl #2
     54c:	000d0e00 	andeq	r0, sp, r0, lsl #28
     550:	0b3a0803 	bleq	e82564 <__bss_end__+0xe7765c>
     554:	0b390b3b 	bleq	e43248 <__bss_end__+0xe38340>
     558:	0b381349 	bleq	e05284 <__bss_end__+0xdfa37c>
     55c:	0d0f0000 	stceq	0, cr0, [pc, #-0]	; 564 <__code_start__-0x7a9c>
     560:	3a0e0300 	bcc	381168 <__bss_end__+0x376260>
     564:	390b3b0b 	stmdbcc	fp, {r0, r1, r3, r8, r9, fp, ip, sp}
     568:	3813490b 	ldmdacc	r3, {r0, r1, r3, r8, fp, lr}
     56c:	1000000b 	andne	r0, r0, fp
     570:	0e030016 	mcreq	0, 0, r0, cr3, cr6, {0}
     574:	0b3b0b3a 	bleq	ec3264 <__bss_end__+0xeb835c>
     578:	13490b39 	movtne	r0, #39737	; 0x9b39
     57c:	34110000 	ldrcc	r0, [r1], #-0
     580:	3a0e0300 	bcc	381188 <__bss_end__+0x376280>
     584:	390b3b0b 	stmdbcc	fp, {r0, r1, r3, r8, r9, fp, ip, sp}
     588:	0213490b 	andseq	r4, r3, #180224	; 0x2c000
     58c:	12000018 	andne	r0, r0, #24, 0
     590:	193f012e 	ldmdbne	pc!, {r1, r2, r3, r5, r8}	; <UNPREDICTABLE>
     594:	0b3a0e03 	bleq	e83da8 <__bss_end__+0xe78ea0>
     598:	0b390b3b 	bleq	e4328c <__bss_end__+0xe38384>
     59c:	01111927 	tsteq	r1, r7, lsr #18
     5a0:	18400612 	stmdane	r0, {r1, r4, r9, sl}^
     5a4:	01194297 			; <UNDEFINED> instruction: 0x01194297
     5a8:	13000013 	movwne	r0, #19
     5ac:	08030005 	stmdaeq	r3, {r0, r2}
     5b0:	0b3b0b3a 	bleq	ec32a0 <__bss_end__+0xeb8398>
     5b4:	13490b39 	movtne	r0, #39737	; 0x9b39
     5b8:	42b71702 	adcsmi	r1, r7, #524288	; 0x80000
     5bc:	14000017 	strne	r0, [r0], #-23	; 0xffffffe9
     5c0:	08030034 	stmdaeq	r3, {r2, r4, r5}
     5c4:	0b3b0b3a 	bleq	ec32b4 <__bss_end__+0xeb83ac>
     5c8:	13490b39 	movtne	r0, #39737	; 0x9b39
     5cc:	42b71702 	adcsmi	r1, r7, #524288	; 0x80000
     5d0:	15000017 	strne	r0, [r0, #-23]	; 0xffffffe9
     5d4:	193f012e 	ldmdbne	pc!, {r1, r2, r3, r5, r8}	; <UNPREDICTABLE>
     5d8:	0b3a0e03 	bleq	e83dec <__bss_end__+0xe78ee4>
     5dc:	0b390b3b 	bleq	e432d0 <__bss_end__+0xe383c8>
     5e0:	13491927 	movtne	r1, #39207	; 0x9927
     5e4:	06120111 			; <UNDEFINED> instruction: 0x06120111
     5e8:	42971840 	addsmi	r1, r7, #64, 16	; 0x400000
     5ec:	00130119 	andseq	r0, r3, r9, lsl r1
     5f0:	00051600 	andeq	r1, r5, r0, lsl #12
     5f4:	0b3a0e03 	bleq	e83e08 <__bss_end__+0xe78f00>
     5f8:	0b390b3b 	bleq	e432ec <__bss_end__+0xe383e4>
     5fc:	17021349 	strne	r1, [r2, -r9, asr #6]
     600:	001742b7 			; <UNDEFINED> instruction: 0x001742b7
     604:	00341700 	eorseq	r1, r4, r0, lsl #14
     608:	0b3a0e03 	bleq	e83e1c <__bss_end__+0xe78f14>
     60c:	0b390b3b 	bleq	e43300 <__bss_end__+0xe383f8>
     610:	17021349 	strne	r1, [r2, -r9, asr #6]
     614:	001742b7 			; <UNDEFINED> instruction: 0x001742b7
     618:	011d1800 	tsteq	sp, r0, lsl #16
     61c:	01521331 	cmpeq	r2, r1, lsr r3
     620:	550b42b8 	strpl	r4, [fp, #-696]	; 0xfffffd48
     624:	590b5817 	stmdbpl	fp, {r0, r1, r2, r4, fp, ip, lr}
     628:	000b570b 	andeq	r5, fp, fp, lsl #14
     62c:	00051900 	andeq	r1, r5, r0, lsl #18
     630:	17021331 	smladxne	r2, r1, r3, r1
     634:	001742b7 			; <UNDEFINED> instruction: 0x001742b7
     638:	010b1a00 	tsteq	fp, r0, lsl #20
     63c:	00001755 	andeq	r1, r0, r5, asr r7
     640:	3100341b 	tstcc	r0, fp, lsl r4
     644:	b7170213 			; <UNDEFINED> instruction: 0xb7170213
     648:	00001742 	andeq	r1, r0, r2, asr #14
     64c:	0182891c 	orreq	r8, r2, ip, lsl r9
     650:	31011101 	tstcc	r1, r1, lsl #2
     654:	00130113 	andseq	r0, r3, r3, lsl r1
     658:	828a1d00 	addhi	r1, sl, #0, 26
     65c:	18020001 	stmdane	r2, {r0}
     660:	00184291 	mulseq	r8, r1, r2
     664:	82891e00 	addhi	r1, r9, #0, 28
     668:	01110001 	tsteq	r1, r1
     66c:	00001331 	andeq	r1, r0, r1, lsr r3
     670:	03012e1f 	movweq	r2, #7711	; 0x1e1f
     674:	3b0b3a0e 	blcc	2ceeb4 <__bss_end__+0x2c3fac>
     678:	270b390b 	strcs	r3, [fp, -fp, lsl #18]
     67c:	20134919 	andscs	r4, r3, r9, lsl r9
     680:	0013010b 	andseq	r0, r3, fp, lsl #2
     684:	00052000 	andeq	r2, r5, r0
     688:	0b3a0803 	bleq	e8269c <__bss_end__+0xe77794>
     68c:	0b390b3b 	bleq	e43380 <__bss_end__+0xe38478>
     690:	00001349 	andeq	r1, r0, r9, asr #6
     694:	03003421 	movweq	r3, #1057	; 0x421
     698:	3b0b3a08 	blcc	2ceec0 <__bss_end__+0x2c3fb8>
     69c:	490b390b 	stmdbmi	fp, {r0, r1, r3, r8, fp, ip, sp}
     6a0:	22000013 	andcs	r0, r0, #19, 0
     6a4:	193f002e 	ldmdbne	pc!, {r1, r2, r3, r5}	; <UNPREDICTABLE>
     6a8:	0e6e193c 			; <UNDEFINED> instruction: 0x0e6e193c
     6ac:	0b3a0e03 	bleq	e83ec0 <__bss_end__+0xe78fb8>
     6b0:	0b390b3b 	bleq	e433a4 <__bss_end__+0xe3849c>
     6b4:	01000000 	mrseq	r0, (UNDEF: 0)
     6b8:	0e250111 	mcreq	1, 1, r0, cr5, cr1, {0}
     6bc:	0e030b13 	vmoveq.32	d3[0], r0
     6c0:	01110e1b 	tsteq	r1, fp, lsl lr
     6c4:	17100612 			; <UNDEFINED> instruction: 0x17100612
     6c8:	24020000 	strcs	r0, [r2], #-0
     6cc:	3e0b0b00 	vmlacc.f64	d0, d11, d0
     6d0:	0008030b 	andeq	r0, r8, fp, lsl #6
     6d4:	00240300 	eoreq	r0, r4, r0, lsl #6
     6d8:	0b3e0b0b 	bleq	f8330c <__bss_end__+0xf78404>
     6dc:	00000e03 	andeq	r0, r0, r3, lsl #28
     6e0:	03001604 	movweq	r1, #1540	; 0x604
     6e4:	3b0b3a0e 	blcc	2cef24 <__bss_end__+0x2c401c>
     6e8:	490b390b 	stmdbmi	fp, {r0, r1, r3, r8, fp, ip, sp}
     6ec:	05000013 	streq	r0, [r0, #-19]	; 0xffffffed
     6f0:	19270115 	stmdbne	r7!, {r0, r2, r4, r8}
     6f4:	13011349 	movwne	r1, #4937	; 0x1349
     6f8:	05060000 	streq	r0, [r6, #-0]
     6fc:	00134900 	andseq	r4, r3, r0, lsl #18
     700:	00340700 	eorseq	r0, r4, r0, lsl #14
     704:	0b3a0e03 	bleq	e83f18 <__bss_end__+0xe79010>
     708:	0b390b3b 	bleq	e433fc <__bss_end__+0xe384f4>
     70c:	193f1349 	ldmdbne	pc!, {r0, r3, r6, r8, r9, ip}	; <UNPREDICTABLE>
     710:	0000193c 	andeq	r1, r0, ip, lsr r9
     714:	0b000f08 	bleq	433c <__code_start__-0x3cc4>
     718:	0013490b 	andseq	r4, r3, fp, lsl #18
     71c:	00260900 	eoreq	r0, r6, r0, lsl #18
     720:	00001349 	andeq	r1, r0, r9, asr #6
     724:	0b01130a 	bleq	45354 <__bss_end__+0x3a44c>
     728:	3b0b3a0b 	blcc	2cef5c <__bss_end__+0x2c4054>
     72c:	010b390b 	tsteq	fp, fp, lsl #18
     730:	0b000013 	bleq	784 <__code_start__-0x787c>
     734:	0e03000d 	cdpeq	0, 0, cr0, cr3, cr13, {0}
     738:	0b3b0b3a 	bleq	ec3428 <__bss_end__+0xeb8520>
     73c:	13490b39 	movtne	r0, #39737	; 0x9b39
     740:	00000b38 	andeq	r0, r0, r8, lsr fp
     744:	3e01040c 	cdpcc	4, 0, cr0, cr1, cr12, {0}
     748:	490b0b0b 	stmdbmi	fp, {r0, r1, r3, r8, r9, fp}
     74c:	3b0b3a13 	blcc	2cefa0 <__bss_end__+0x2c4098>
     750:	010b390b 	tsteq	fp, fp, lsl #18
     754:	0d000013 	stceq	0, cr0, [r0, #-76]	; 0xffffffb4
     758:	0e030028 	cdpeq	0, 0, cr0, cr3, cr8, {1}
     75c:	00000b1c 	andeq	r0, r0, ip, lsl fp
     760:	0301130e 	movweq	r1, #4878	; 0x130e
     764:	3a0b0b0e 	bcc	2c33a4 <__bss_end__+0x2b849c>
     768:	390b3b0b 	stmdbcc	fp, {r0, r1, r3, r8, r9, fp, ip, sp}
     76c:	0013010b 	andseq	r0, r3, fp, lsl #2
     770:	000d0f00 	andeq	r0, sp, r0, lsl #30
     774:	0b3a0803 	bleq	e82788 <__bss_end__+0xe77880>
     778:	0b390b3b 	bleq	e4346c <__bss_end__+0xe38564>
     77c:	0b381349 	bleq	e054a8 <__bss_end__+0xdfa5a0>
     780:	01100000 	tsteq	r0, r0
     784:	01134901 	tsteq	r3, r1, lsl #18
     788:	11000013 	tstne	r0, r3, lsl r0
     78c:	13490021 	movtne	r0, #36897	; 0x9021
     790:	00000b2f 	andeq	r0, r0, pc, lsr #22
     794:	0b000f12 	bleq	43e4 <__code_start__-0x3c1c>
     798:	1300000b 	movwne	r0, #11
     79c:	0e030034 	mcreq	0, 0, r0, cr3, cr4, {1}
     7a0:	0b3b0b3a 	bleq	ec3490 <__bss_end__+0xeb8588>
     7a4:	13490b39 	movtne	r0, #39737	; 0x9b39
     7a8:	00001802 	andeq	r1, r0, r2, lsl #16
     7ac:	3f012e14 	svccc	0x00012e14
     7b0:	3a0e0319 	bcc	38141c <__bss_end__+0x376514>
     7b4:	39053b0b 	stmdbcc	r5, {r0, r1, r3, r8, r9, fp, ip, sp}
     7b8:	1119270b 	tstne	r9, fp, lsl #14
     7bc:	40061201 	andmi	r1, r6, r1, lsl #4
     7c0:	19429718 	stmdbne	r2, {r3, r4, r8, r9, sl, ip, pc}^
     7c4:	00001301 	andeq	r1, r0, r1, lsl #6
     7c8:	03003415 	movweq	r3, #1045	; 0x415
     7cc:	3413490e 	ldrcc	r4, [r3], #-2318	; 0xfffff6f2
     7d0:	00180219 	andseq	r0, r8, r9, lsl r2
     7d4:	82891600 	addhi	r1, r9, #0, 12
     7d8:	01110101 	tsteq	r1, r1, lsl #2
     7dc:	13011331 	movwne	r1, #4913	; 0x1331
     7e0:	8a170000 	bhi	5c07e8 <__bss_end__+0x5b58e0>
     7e4:	02000182 	andeq	r0, r0, #-2147483616	; 0x80000020
     7e8:	18429118 	stmdane	r2, {r3, r4, r8, ip, pc}^
     7ec:	89180000 	ldmdbhi	r8, {}	; <UNPREDICTABLE>
     7f0:	11000182 	smlabbne	r0, r2, r1, r0
     7f4:	00133101 	andseq	r3, r3, r1, lsl #2
     7f8:	012e1900 			; <UNDEFINED> instruction: 0x012e1900
     7fc:	0e03193f 			; <UNDEFINED> instruction: 0x0e03193f
     800:	053b0b3a 	ldreq	r0, [fp, #-2874]!	; 0xfffff4c6
     804:	19270b39 	stmdbne	r7!, {r0, r3, r4, r5, r8, r9, fp}
     808:	01111349 	tsteq	r1, r9, asr #6
     80c:	18400612 	stmdane	r0, {r1, r4, r9, sl}^
     810:	01194297 			; <UNDEFINED> instruction: 0x01194297
     814:	1a000013 	bne	868 <__code_start__-0x7798>
     818:	0e030034 	mcreq	0, 0, r0, cr3, cr4, {1}
     81c:	053b0b3a 	ldreq	r0, [fp, #-2874]!	; 0xfffff4c6
     820:	13490b39 	movtne	r0, #39737	; 0x9b39
     824:	42b71702 	adcsmi	r1, r7, #524288	; 0x80000
     828:	1b000017 	blne	88c <__code_start__-0x7774>
     82c:	1331011d 	teqne	r1, #1073741831	; 0x40000007
     830:	42b80152 	adcsmi	r0, r8, #-2147483628	; 0x80000014
     834:	5817550b 	ldmdapl	r7, {r0, r1, r3, r8, sl, ip, lr}
     838:	5705590b 	strpl	r5, [r5, -fp, lsl #18]
     83c:	0013010b 	andseq	r0, r3, fp, lsl #2
     840:	010b1c00 	tsteq	fp, r0, lsl #24
     844:	00001755 	andeq	r1, r0, r5, asr r7
     848:	3100341d 	tstcc	r0, sp, lsl r4
     84c:	b7170213 			; <UNDEFINED> instruction: 0xb7170213
     850:	00001742 	andeq	r1, r0, r2, asr #14
     854:	31010b1e 	tstcc	r1, lr, lsl fp
     858:	01175513 	tsteq	r7, r3, lsl r5
     85c:	1f000013 	svcne	0x00000013
     860:	13310005 	teqne	r1, #5, 0
     864:	42b71702 	adcsmi	r1, r7, #524288	; 0x80000
     868:	20000017 	andcs	r0, r0, r7, lsl r0
     86c:	01018289 	smlabbeq	r1, r9, r2, r8
     870:	13310111 	teqne	r1, #1073741828	; 0x40000004
     874:	2e210000 	cdpcs	0, 2, cr0, cr1, cr0, {0}
     878:	3a0e0301 	bcc	381484 <__bss_end__+0x37657c>
     87c:	390b3b0b 	stmdbcc	fp, {r0, r1, r3, r8, r9, fp, ip, sp}
     880:	4919270b 	ldmdbmi	r9, {r0, r1, r3, r8, r9, sl, sp}
     884:	010b2013 	tsteq	fp, r3, lsl r0
     888:	22000013 	andcs	r0, r0, #19, 0
     88c:	0e030034 	mcreq	0, 0, r0, cr3, cr4, {1}
     890:	0b3b0b3a 	bleq	ec3580 <__bss_end__+0xeb8678>
     894:	13490b39 	movtne	r0, #39737	; 0x9b39
     898:	0b230000 	bleq	8c08a0 <__bss_end__+0x8b5998>
     89c:	24000001 	strcs	r0, [r0], #-1
     8a0:	08030034 	stmdaeq	r3, {r2, r4, r5}
     8a4:	0b3b0b3a 	bleq	ec3594 <__bss_end__+0xeb868c>
     8a8:	13490b39 	movtne	r0, #39737	; 0x9b39
     8ac:	2e250000 	cdpcs	0, 2, cr0, cr5, cr0, {0}
     8b0:	03193f01 	tsteq	r9, #1, 30
     8b4:	3b0b3a0e 	blcc	2cf0f4 <__bss_end__+0x2c41ec>
     8b8:	270b390b 	strcs	r3, [fp, -fp, lsl #18]
     8bc:	11134919 	tstne	r3, r9, lsl r9
     8c0:	40061201 	andmi	r1, r6, r1, lsl #4
     8c4:	19429718 	stmdbne	r2, {r3, r4, r8, r9, sl, ip, pc}^
     8c8:	00001301 	andeq	r1, r0, r1, lsl #6
     8cc:	03003426 	movweq	r3, #1062	; 0x426
     8d0:	3b0b3a0e 	blcc	2cf110 <__bss_end__+0x2c4208>
     8d4:	490b390b 	stmdbmi	fp, {r0, r1, r3, r8, fp, ip, sp}
     8d8:	b7170213 			; <UNDEFINED> instruction: 0xb7170213
     8dc:	00001742 	andeq	r1, r0, r2, asr #14
     8e0:	31011d27 	tstcc	r1, r7, lsr #26
     8e4:	b8015213 	stmdalt	r1, {r0, r1, r4, r9, ip, lr}
     8e8:	01110b42 	tsteq	r1, r2, asr #22
     8ec:	0b580612 	bleq	160213c <__bss_end__+0x15f7234>
     8f0:	0b570b59 	bleq	15c365c <__bss_end__+0x15b8754>
     8f4:	00001301 	andeq	r1, r0, r1, lsl #6
     8f8:	3f012e28 	svccc	0x00012e28
     8fc:	3a0e0319 	bcc	381568 <__bss_end__+0x376660>
     900:	390b3b0b 	stmdbcc	fp, {r0, r1, r3, r8, r9, fp, ip, sp}
     904:	1119270b 	tstne	r9, fp, lsl #14
     908:	40061201 	andmi	r1, r6, r1, lsl #4
     90c:	19429718 	stmdbne	r2, {r3, r4, r8, r9, sl, ip, pc}^
     910:	00001301 	andeq	r1, r0, r1, lsl #6
     914:	3f012e29 	svccc	0x00012e29
     918:	3a0e0319 	bcc	381584 <__bss_end__+0x37667c>
     91c:	390b3b0b 	stmdbcc	fp, {r0, r1, r3, r8, r9, fp, ip, sp}
     920:	4919270b 	ldmdbmi	r9, {r0, r1, r3, r8, r9, sl, sp}
     924:	010b2013 	tsteq	fp, r3, lsl r0
     928:	2a000013 	bcs	97c <__code_start__-0x7684>
     92c:	0e030005 	cdpeq	0, 0, cr0, cr3, cr5, {0}
     930:	0b3b0b3a 	bleq	ec3620 <__bss_end__+0xeb8718>
     934:	13490b39 	movtne	r0, #39737	; 0x9b39
     938:	2e2b0000 	cdpcs	0, 2, cr0, cr11, cr0, {0}
     93c:	3a0e0301 	bcc	381548 <__bss_end__+0x376640>
     940:	390b3b0b 	stmdbcc	fp, {r0, r1, r3, r8, r9, fp, ip, sp}
     944:	4919270b 	ldmdbmi	r9, {r0, r1, r3, r8, r9, sl, sp}
     948:	12011113 	andne	r1, r1, #-1073741820	; 0xc0000004
     94c:	97184006 	ldrls	r4, [r8, -r6]
     950:	13011942 	movwne	r1, #6466	; 0x1942
     954:	052c0000 	streq	r0, [ip, #-0]!
     958:	3a0e0300 	bcc	381560 <__bss_end__+0x376658>
     95c:	390b3b0b 	stmdbcc	fp, {r0, r1, r3, r8, r9, fp, ip, sp}
     960:	0213490b 	andseq	r4, r3, #180224	; 0x2c000
     964:	1742b717 	smlaldne	fp, r2, r7, r7
     968:	0b2d0000 	bleq	b40970 <__bss_end__+0xb35a68>
     96c:	01175501 	tsteq	r7, r1, lsl #10
     970:	2e000013 	mcrcs	0, 0, r0, cr0, cr3, {0}
     974:	08030034 	stmdaeq	r3, {r2, r4, r5}
     978:	0b3b0b3a 	bleq	ec3668 <__bss_end__+0xeb8760>
     97c:	13490b39 	movtne	r0, #39737	; 0x9b39
     980:	42b71702 	adcsmi	r1, r7, #524288	; 0x80000
     984:	2f000017 	svccs	0x00000017
     988:	0e03012e 	adfeqsp	f0, f3, #0.5
     98c:	0b3b0b3a 	bleq	ec367c <__bss_end__+0xeb8774>
     990:	19270b39 	stmdbne	r7!, {r0, r3, r4, r5, r8, r9, fp}
     994:	06120111 			; <UNDEFINED> instruction: 0x06120111
     998:	42971840 	addsmi	r1, r7, #64, 16	; 0x400000
     99c:	00130119 	andseq	r0, r3, r9, lsl r1
     9a0:	00343000 	eorseq	r3, r4, r0
     9a4:	0b3a0e03 	bleq	e841b8 <__bss_end__+0xe792b0>
     9a8:	0b390b3b 	bleq	e4369c <__bss_end__+0xe38794>
     9ac:	061c1349 	ldreq	r1, [ip], -r9, asr #6
     9b0:	2e310000 	cdpcs	0, 3, cr0, cr1, cr0, {0}
     9b4:	3a0e0301 	bcc	3815c0 <__bss_end__+0x3766b8>
     9b8:	390b3b0b 	stmdbcc	fp, {r0, r1, r3, r8, r9, fp, ip, sp}
     9bc:	2019270b 	andscs	r2, r9, fp, lsl #14
     9c0:	0013010b 	andseq	r0, r3, fp, lsl #2
     9c4:	00053200 	andeq	r3, r5, r0, lsl #4
     9c8:	0b3a0803 	bleq	e829dc <__bss_end__+0xe77ad4>
     9cc:	0b390b3b 	bleq	e436c0 <__bss_end__+0xe387b8>
     9d0:	00001349 	andeq	r1, r0, r9, asr #6
     9d4:	01828933 	orreq	r8, r2, r3, lsr r9
     9d8:	95011101 	strls	r1, [r1, #-257]	; 0xfffffeff
     9dc:	13311942 	teqne	r1, #1081344	; 0x108000
     9e0:	00001301 	andeq	r1, r0, r1, lsl #6
     9e4:	31012e34 	tstcc	r1, r4, lsr lr
     9e8:	12011113 	andne	r1, r1, #-1073741820	; 0xc0000004
     9ec:	97184006 	ldrls	r4, [r8, -r6]
     9f0:	13011942 	movwne	r1, #6466	; 0x1942
     9f4:	1d350000 	ldcne	0, cr0, [r5, #-0]
     9f8:	55133101 	ldrpl	r3, [r3, #-257]	; 0xfffffeff
     9fc:	590b5817 	stmdbpl	fp, {r0, r1, r2, r4, fp, ip, lr}
     a00:	010b570b 	tsteq	fp, fp, lsl #14
     a04:	36000013 			; <UNDEFINED> instruction: 0x36000013
     a08:	13310005 	teqne	r1, #5, 0
     a0c:	0b370000 	bleq	dc0a14 <__bss_end__+0xdb5b0c>
     a10:	55133101 	ldrpl	r3, [r3, #-257]	; 0xfffffeff
     a14:	38000017 	stmdacc	r0, {r0, r1, r2, r4}
     a18:	1331011d 	teqne	r1, #1073741831	; 0x40000007
     a1c:	42b80152 	adcsmi	r0, r8, #-2147483628	; 0x80000014
     a20:	5817550b 	ldmdapl	r7, {r0, r1, r3, r8, sl, ip, lr}
     a24:	570b590b 	strpl	r5, [fp, -fp, lsl #18]
     a28:	3900000b 	stmdbcc	r0, {r0, r1, r3}
     a2c:	1331011d 	teqne	r1, #1073741831	; 0x40000007
     a30:	42b80152 	adcsmi	r0, r8, #-2147483628	; 0x80000014
     a34:	5817550b 	ldmdapl	r7, {r0, r1, r3, r8, sl, ip, lr}
     a38:	570b590b 	strpl	r5, [fp, -fp, lsl #18]
     a3c:	0013010b 	andseq	r0, r3, fp, lsl #2
     a40:	82893a00 	addhi	r3, r9, #0, 20
     a44:	01110101 	tsteq	r1, r1, lsl #2
     a48:	31194295 			; <UNDEFINED> instruction: 0x31194295
     a4c:	3b000013 	blcc	aa0 <__code_start__-0x7560>
     a50:	193f002e 	ldmdbne	pc!, {r1, r2, r3, r5}	; <UNPREDICTABLE>
     a54:	0e6e193c 			; <UNDEFINED> instruction: 0x0e6e193c
     a58:	0b3a0e03 	bleq	e8426c <__bss_end__+0xe79364>
     a5c:	0b390b3b 	bleq	e43750 <__bss_end__+0xe38848>
     a60:	363c0000 	ldrtcc	r0, [ip], -r0
     a64:	00180200 	andseq	r0, r8, r0, lsl #4
     a68:	11010000 	mrsne	r0, (UNDEF: 1)
     a6c:	130e2501 	movwne	r2, #58625	; 0xe501
     a70:	1b0e030b 	blne	3816a4 <__bss_end__+0x37679c>
     a74:	1201110e 	andne	r1, r1, #-2147483645	; 0x80000003
     a78:	00171006 	andseq	r1, r7, r6
     a7c:	00240200 	eoreq	r0, r4, r0, lsl #4
     a80:	0b3e0b0b 	bleq	f836b4 <__bss_end__+0xf787ac>
     a84:	00000803 	andeq	r0, r0, r3, lsl #16
     a88:	03001603 	movweq	r1, #1539	; 0x603
     a8c:	3b0b3a0e 	blcc	2cf2cc <__bss_end__+0x2c43c4>
     a90:	490b390b 	stmdbmi	fp, {r0, r1, r3, r8, fp, ip, sp}
     a94:	04000013 	streq	r0, [r0], #-19	; 0xffffffed
     a98:	0b0b0024 	bleq	2c0b30 <__bss_end__+0x2b5c28>
     a9c:	0e030b3e 	vmoveq.16	d3[0], r0
     aa0:	15050000 	strne	r0, [r5, #-0]
     aa4:	49192701 	ldmdbmi	r9, {r0, r8, r9, sl, sp}
     aa8:	00130113 	andseq	r0, r3, r3, lsl r1
     aac:	00050600 	andeq	r0, r5, r0, lsl #12
     ab0:	00001349 	andeq	r1, r0, r9, asr #6
     ab4:	03003407 	movweq	r3, #1031	; 0x407
     ab8:	3b0b3a0e 	blcc	2cf2f8 <__bss_end__+0x2c43f0>
     abc:	490b390b 	stmdbmi	fp, {r0, r1, r3, r8, fp, ip, sp}
     ac0:	3c193f13 	ldccc	15, cr3, [r9], {19}
     ac4:	08000019 	stmdaeq	r0, {r0, r3, r4}
     ac8:	0b0b000f 	bleq	2c0b0c <__bss_end__+0x2b5c04>
     acc:	00001349 	andeq	r1, r0, r9, asr #6
     ad0:	49002609 	stmdbmi	r0, {r0, r3, r9, sl, sp}
     ad4:	0a000013 	beq	b28 <__code_start__-0x74d8>
     ad8:	193f012e 	ldmdbne	pc!, {r1, r2, r3, r5, r8}	; <UNPREDICTABLE>
     adc:	0b3a0e03 	bleq	e842f0 <__bss_end__+0xe793e8>
     ae0:	0b390b3b 	bleq	e437d4 <__bss_end__+0xe388cc>
     ae4:	13491927 	movtne	r1, #39207	; 0x9927
     ae8:	06120111 			; <UNDEFINED> instruction: 0x06120111
     aec:	42971840 	addsmi	r1, r7, #64, 16	; 0x400000
     af0:	00130119 	andseq	r0, r3, r9, lsl r1
     af4:	00050b00 	andeq	r0, r5, r0, lsl #22
     af8:	0b3a0803 	bleq	e82b0c <__bss_end__+0xe77c04>
     afc:	0b390b3b 	bleq	e437f0 <__bss_end__+0xe388e8>
     b00:	18021349 	stmdane	r2, {r0, r3, r6, r8, r9, ip}
     b04:	050c0000 	streq	r0, [ip, #-0]
     b08:	3a080300 	bcc	201710 <__bss_end__+0x1f6808>
     b0c:	390b3b0b 	stmdbcc	fp, {r0, r1, r3, r8, r9, fp, ip, sp}
     b10:	0213490b 	andseq	r4, r3, #180224	; 0x2c000
     b14:	1742b717 	smlaldne	fp, r2, r7, r7
     b18:	340d0000 	strcc	r0, [sp], #-0
     b1c:	3a080300 	bcc	201724 <__bss_end__+0x1f681c>
     b20:	390b3b0b 	stmdbcc	fp, {r0, r1, r3, r8, r9, fp, ip, sp}
     b24:	0213490b 	andseq	r4, r3, #180224	; 0x2c000
     b28:	1742b717 	smlaldne	fp, r2, r7, r7
     b2c:	0f0e0000 	svceq	0x000e0000
     b30:	000b0b00 	andeq	r0, fp, r0, lsl #22
     b34:	11010000 	mrsne	r0, (UNDEF: 1)
     b38:	130e2501 	movwne	r2, #58625	; 0xe501
     b3c:	1b0e030b 	blne	381770 <__bss_end__+0x376868>
     b40:	1201110e 	andne	r1, r1, #-2147483645	; 0x80000003
     b44:	00171006 	andseq	r1, r7, r6
     b48:	00160200 	andseq	r0, r6, r0, lsl #4
     b4c:	0b3a0e03 	bleq	e84360 <__bss_end__+0xe79458>
     b50:	0b390b3b 	bleq	e43844 <__bss_end__+0xe3893c>
     b54:	00001349 	andeq	r1, r0, r9, asr #6
     b58:	03011303 	movweq	r1, #4867	; 0x1303
     b5c:	3a0b0b0e 	bcc	2c379c <__bss_end__+0x2b8894>
     b60:	010b3b0b 	tsteq	fp, fp, lsl #22
     b64:	04000013 	streq	r0, [r0], #-19	; 0xffffffed
     b68:	0e03000d 	cdpeq	0, 0, cr0, cr3, cr13, {0}
     b6c:	0b381349 	bleq	e05898 <__bss_end__+0xdfa990>
     b70:	00001934 	andeq	r1, r0, r4, lsr r9
     b74:	0b000f05 	bleq	4790 <__code_start__-0x3870>
     b78:	0600000b 	streq	r0, [r0], -fp
     b7c:	0b0b0024 	bleq	2c0c14 <__bss_end__+0x2b5d0c>
     b80:	08030b3e 	stmdaeq	r3, {r1, r2, r3, r4, r5, r8, r9, fp}
     b84:	24070000 	strcs	r0, [r7], #-0
     b88:	3e0b0b00 	vmlacc.f64	d0, d11, d0
     b8c:	000e030b 	andeq	r0, lr, fp, lsl #6
     b90:	01150800 	tsteq	r5, r0, lsl #16
     b94:	13491927 	movtne	r1, #39207	; 0x9927
     b98:	00001301 	andeq	r1, r0, r1, lsl #6
     b9c:	49000509 	stmdbmi	r0, {r0, r3, r8, sl}
     ba0:	0a000013 	beq	bf4 <__code_start__-0x740c>
     ba4:	0e030034 	mcreq	0, 0, r0, cr3, cr4, {1}
     ba8:	0b3b0b3a 	bleq	ec3898 <__bss_end__+0xeb8990>
     bac:	13490b39 	movtne	r0, #39737	; 0x9b39
     bb0:	193c193f 	ldmdbne	ip!, {r0, r1, r2, r3, r4, r5, r8, fp, ip}
     bb4:	0f0b0000 	svceq	0x000b0000
     bb8:	490b0b00 	stmdbmi	fp, {r8, r9, fp}
     bbc:	0c000013 	stceq	0, cr0, [r0], {19}
     bc0:	13490026 	movtne	r0, #36902	; 0x9026
     bc4:	2e0d0000 	cdpcs	0, 0, cr0, cr13, cr0, {0}
     bc8:	03193f01 	tsteq	r9, #1, 30
     bcc:	3b0b3a0e 	blcc	2cf40c <__bss_end__+0x2c4504>
     bd0:	270b390b 	strcs	r3, [fp, -fp, lsl #18]
     bd4:	11134919 	tstne	r3, r9, lsl r9
     bd8:	40061201 	andmi	r1, r6, r1, lsl #4
     bdc:	19429718 	stmdbne	r2, {r3, r4, r8, r9, sl, ip, pc}^
     be0:	00001301 	andeq	r1, r0, r1, lsl #6
     be4:	0300050e 	movweq	r0, #1294	; 0x50e
     be8:	3b0b3a08 	blcc	2cf410 <__bss_end__+0x2c4508>
     bec:	490b390b 	stmdbmi	fp, {r0, r1, r3, r8, fp, ip, sp}
     bf0:	00180213 	andseq	r0, r8, r3, lsl r2
     bf4:	00180f00 	andseq	r0, r8, r0, lsl #30
     bf8:	34100000 	ldrcc	r0, [r0], #-0
     bfc:	3a080300 	bcc	201804 <__bss_end__+0x1f68fc>
     c00:	390b3b0b 	stmdbcc	fp, {r0, r1, r3, r8, r9, fp, ip, sp}
     c04:	0213490b 	andseq	r4, r3, #180224	; 0x2c000
     c08:	11000018 	tstne	r0, r8, lsl r0
     c0c:	0e030034 	mcreq	0, 0, r0, cr3, cr4, {1}
     c10:	0b3b0b3a 	bleq	ec3900 <__bss_end__+0xeb89f8>
     c14:	13490b39 	movtne	r0, #39737	; 0x9b39
     c18:	00001802 	andeq	r1, r0, r2, lsl #16
     c1c:	03003412 	movweq	r3, #1042	; 0x412
     c20:	3b0b3a08 	blcc	2cf448 <__bss_end__+0x2c4540>
     c24:	490b390b 	stmdbmi	fp, {r0, r1, r3, r8, fp, ip, sp}
     c28:	b7170213 			; <UNDEFINED> instruction: 0xb7170213
     c2c:	00001742 	andeq	r1, r0, r2, asr #14
     c30:	01828913 	orreq	r8, r2, r3, lsl r9
     c34:	31011101 	tstcc	r1, r1, lsl #2
     c38:	00130113 	andseq	r0, r3, r3, lsl r1
     c3c:	828a1400 	addhi	r1, sl, #0, 8
     c40:	18020001 	stmdane	r2, {r0}
     c44:	00184291 	mulseq	r8, r1, r2
     c48:	82891500 	addhi	r1, r9, #0, 10
     c4c:	01110101 	tsteq	r1, r1, lsl #2
     c50:	01160000 	tsteq	r6, r0
     c54:	01134901 	tsteq	r3, r1, lsl #18
     c58:	17000013 	smladne	r0, r3, r0, r0
     c5c:	13490021 	movtne	r0, #36897	; 0x9021
     c60:	0000052f 	andeq	r0, r0, pc, lsr #10
     c64:	3f002e18 	svccc	0x00002e18
     c68:	6e193c19 	mrcvs	12, 0, r3, cr9, cr9, {0}
     c6c:	3a0e030e 	bcc	3818ac <__bss_end__+0x3769a4>
     c70:	390b3b0b 	stmdbcc	fp, {r0, r1, r3, r8, r9, fp, ip, sp}
     c74:	0000000b 	andeq	r0, r0, fp
     c78:	25011101 	strcs	r1, [r1, #-257]	; 0xfffffeff
     c7c:	030b130e 	movweq	r1, #45838	; 0xb30e
     c80:	110e1b0e 	tstne	lr, lr, lsl #22
     c84:	10061201 	andne	r1, r6, r1, lsl #4
     c88:	02000017 	andeq	r0, r0, #23, 0
     c8c:	0b0b0024 	bleq	2c0d24 <__bss_end__+0x2b5e1c>
     c90:	08030b3e 	stmdaeq	r3, {r1, r2, r3, r4, r5, r8, r9, fp}
     c94:	24030000 	strcs	r0, [r3], #-0
     c98:	3e0b0b00 	vmlacc.f64	d0, d11, d0
     c9c:	000e030b 	andeq	r0, lr, fp, lsl #6
     ca0:	01150400 	tsteq	r5, r0, lsl #8
     ca4:	13491927 	movtne	r1, #39207	; 0x9927
     ca8:	00001301 	andeq	r1, r0, r1, lsl #6
     cac:	49000505 	stmdbmi	r0, {r0, r2, r8, sl}
     cb0:	06000013 			; <UNDEFINED> instruction: 0x06000013
     cb4:	0e030034 	mcreq	0, 0, r0, cr3, cr4, {1}
     cb8:	0b3b0b3a 	bleq	ec39a8 <__bss_end__+0xeb8aa0>
     cbc:	13490b39 	movtne	r0, #39737	; 0x9b39
     cc0:	193c193f 	ldmdbne	ip!, {r0, r1, r2, r3, r4, r5, r8, fp, ip}
     cc4:	0f070000 	svceq	0x00070000
     cc8:	490b0b00 	stmdbmi	fp, {r8, r9, fp}
     ccc:	08000013 	stmdaeq	r0, {r0, r1, r4}
     cd0:	13490026 	movtne	r0, #36902	; 0x9026
     cd4:	34090000 	strcc	r0, [r9], #-0
     cd8:	3a134700 	bcc	4d28e0 <__bss_end__+0x4c79d8>
     cdc:	390b3b0b 	stmdbcc	fp, {r0, r1, r3, r8, r9, fp, ip, sp}
     ce0:	0018020b 	andseq	r0, r8, fp, lsl #4
     ce4:	012e0a00 			; <UNDEFINED> instruction: 0x012e0a00
     ce8:	0e03193f 			; <UNDEFINED> instruction: 0x0e03193f
     cec:	0b3b0b3a 	bleq	ec39dc <__bss_end__+0xeb8ad4>
     cf0:	19270b39 	stmdbne	r7!, {r0, r3, r4, r5, r8, r9, fp}
     cf4:	01111349 	tsteq	r1, r9, asr #6
     cf8:	18400612 	stmdane	r0, {r1, r4, r9, sl}^
     cfc:	00194296 	mulseq	r9, r6, r2
     d00:	00050b00 	andeq	r0, r5, r0, lsl #22
     d04:	0b3a0803 	bleq	e82d18 <__bss_end__+0xe77e10>
     d08:	0b390b3b 	bleq	e439fc <__bss_end__+0xe38af4>
     d0c:	17021349 	strne	r1, [r2, -r9, asr #6]
     d10:	001742b7 			; <UNDEFINED> instruction: 0x001742b7
     d14:	11010000 	mrsne	r0, (UNDEF: 1)
     d18:	130e2501 	movwne	r2, #58625	; 0xe501
     d1c:	1b0e030b 	blne	381950 <__bss_end__+0x376a48>
     d20:	1201110e 	andne	r1, r1, #-2147483645	; 0x80000003
     d24:	00171006 	andseq	r1, r7, r6
     d28:	00240200 	eoreq	r0, r4, r0, lsl #4
     d2c:	0b3e0b0b 	bleq	f83960 <__bss_end__+0xf78a58>
     d30:	00000e03 	andeq	r0, r0, r3, lsl #28
     d34:	0b002403 	bleq	9d48 <kmalloc>
     d38:	030b3e0b 	movweq	r3, #48651	; 0xbe0b
     d3c:	04000008 	streq	r0, [r0], #-8
     d40:	0e030016 	mcreq	0, 0, r0, cr3, cr6, {0}
     d44:	0b3b0b3a 	bleq	ec3a34 <__bss_end__+0xeb8b2c>
     d48:	13490b39 	movtne	r0, #39737	; 0x9b39
     d4c:	15050000 	strne	r0, [r5, #-0]
     d50:	49192701 	ldmdbmi	r9, {r0, r8, r9, sl, sp}
     d54:	00130113 	andseq	r0, r3, r3, lsl r1
     d58:	00050600 	andeq	r0, r5, r0, lsl #12
     d5c:	00001349 	andeq	r1, r0, r9, asr #6
     d60:	03003407 	movweq	r3, #1031	; 0x407
     d64:	3b0b3a0e 	blcc	2cf5a4 <__bss_end__+0x2c469c>
     d68:	490b390b 	stmdbmi	fp, {r0, r1, r3, r8, fp, ip, sp}
     d6c:	3c193f13 	ldccc	15, cr3, [r9], {19}
     d70:	08000019 	stmdaeq	r0, {r0, r3, r4}
     d74:	0b0b000f 	bleq	2c0db8 <__bss_end__+0x2b5eb0>
     d78:	00001349 	andeq	r1, r0, r9, asr #6
     d7c:	49002609 	stmdbmi	r0, {r0, r3, r9, sl, sp}
     d80:	0a000013 	beq	dd4 <__code_start__-0x722c>
     d84:	0e030113 	mcreq	1, 0, r0, cr3, cr3, {0}
     d88:	0b3a0b0b 	bleq	e839bc <__bss_end__+0xe78ab4>
     d8c:	13010b3b 	movwne	r0, #6971	; 0x1b3b
     d90:	0d0b0000 	stceq	0, cr0, [fp, #-0]
     d94:	490e0300 	stmdbmi	lr, {r8, r9}
     d98:	340b3813 	strcc	r3, [fp], #-2067	; 0xfffff7ed
     d9c:	0c000019 	stceq	0, cr0, [r0], {25}
     da0:	0b0b000f 	bleq	2c0de4 <__bss_end__+0x2b5edc>
     da4:	2e0d0000 	cdpcs	0, 0, cr0, cr13, cr0, {0}
     da8:	03193f01 	tsteq	r9, #1, 30
     dac:	3b0b3a0e 	blcc	2cf5ec <__bss_end__+0x2c46e4>
     db0:	270b390b 	strcs	r3, [fp, -fp, lsl #18]
     db4:	11134919 	tstne	r3, r9, lsl r9
     db8:	40061201 	andmi	r1, r6, r1, lsl #4
     dbc:	19429718 	stmdbne	r2, {r3, r4, r8, r9, sl, ip, pc}^
     dc0:	00001301 	andeq	r1, r0, r1, lsl #6
     dc4:	0300050e 	movweq	r0, #1294	; 0x50e
     dc8:	3b0b3a08 	blcc	2cf5f0 <__bss_end__+0x2c46e8>
     dcc:	490b390b 	stmdbmi	fp, {r0, r1, r3, r8, fp, ip, sp}
     dd0:	b7170213 			; <UNDEFINED> instruction: 0xb7170213
     dd4:	00001742 	andeq	r1, r0, r2, asr #14
     dd8:	0300050f 	movweq	r0, #1295	; 0x50f
     ddc:	3b0b3a0e 	blcc	2cf61c <__bss_end__+0x2c4714>
     de0:	490b390b 	stmdbmi	fp, {r0, r1, r3, r8, fp, ip, sp}
     de4:	b7170213 			; <UNDEFINED> instruction: 0xb7170213
     de8:	00001742 	andeq	r1, r0, r2, asr #14
     dec:	03003410 	movweq	r3, #1040	; 0x410
     df0:	3b0b3a08 	blcc	2cf618 <__bss_end__+0x2c4710>
     df4:	490b390b 	stmdbmi	fp, {r0, r1, r3, r8, fp, ip, sp}
     df8:	b7170213 			; <UNDEFINED> instruction: 0xb7170213
     dfc:	00001742 	andeq	r1, r0, r2, asr #14
     e00:	03003411 	movweq	r3, #1041	; 0x411
     e04:	3b0b3a0e 	blcc	2cf644 <__bss_end__+0x2c473c>
     e08:	490b390b 	stmdbmi	fp, {r0, r1, r3, r8, fp, ip, sp}
     e0c:	b7170213 			; <UNDEFINED> instruction: 0xb7170213
     e10:	00001742 	andeq	r1, r0, r2, asr #14
     e14:	03003412 	movweq	r3, #1042	; 0x412
     e18:	3413490e 	ldrcc	r4, [r3], #-2318	; 0xfffff6f2
     e1c:	00180219 	andseq	r0, r8, r9, lsl r2
     e20:	010b1300 	mrseq	r1, (UNDEF: 59)
     e24:	00001755 	andeq	r1, r0, r5, asr r7
     e28:	03003414 	movweq	r3, #1044	; 0x414
     e2c:	3b0b3a08 	blcc	2cf654 <__bss_end__+0x2c474c>
     e30:	490b390b 	stmdbmi	fp, {r0, r1, r3, r8, fp, ip, sp}
     e34:	00180213 	andseq	r0, r8, r3, lsl r2
     e38:	00341500 	eorseq	r1, r4, r0, lsl #10
     e3c:	0b3a0e03 	bleq	e84650 <__bss_end__+0xe79748>
     e40:	0b390b3b 	bleq	e43b34 <__bss_end__+0xe38c2c>
     e44:	18021349 	stmdane	r2, {r0, r3, r6, r8, r9, ip}
     e48:	0b160000 	bleq	580e50 <__bss_end__+0x575f48>
     e4c:	01175501 	tsteq	r7, r1, lsl #10
     e50:	17000013 	smladne	r0, r3, r0, r0
     e54:	01018289 	smlabbeq	r1, r9, r2, r8
     e58:	13310111 	teqne	r1, #1073741828	; 0x40000004
     e5c:	00001301 	andeq	r1, r0, r1, lsl #6
     e60:	01828a18 	orreq	r8, r2, r8, lsl sl
     e64:	91180200 	tstls	r8, r0, lsl #4
     e68:	00001842 	andeq	r1, r0, r2, asr #16
     e6c:	01828919 	orreq	r8, r2, r9, lsl r9
     e70:	31011100 	mrscc	r1, (UNDEF: 17)
     e74:	1a000013 	bne	ec8 <__code_start__-0x7138>
     e78:	1331011d 	teqne	r1, #1073741831	; 0x40000007
     e7c:	42b80152 	adcsmi	r0, r8, #-2147483628	; 0x80000014
     e80:	58175505 	ldmdapl	r7, {r0, r2, r8, sl, ip, lr}
     e84:	570b590b 	strpl	r5, [fp, -fp, lsl #18]
     e88:	0013010b 	andseq	r0, r3, fp, lsl #2
     e8c:	00051b00 	andeq	r1, r5, r0, lsl #22
     e90:	17021331 	smladxne	r2, r1, r3, r1
     e94:	001742b7 			; <UNDEFINED> instruction: 0x001742b7
     e98:	00051c00 	andeq	r1, r5, r0, lsl #24
     e9c:	00001331 	andeq	r1, r0, r1, lsr r3
     ea0:	3100341d 	tstcc	r0, sp, lsl r4
     ea4:	00180213 	andseq	r0, r8, r3, lsl r2
     ea8:	00341e00 	eorseq	r1, r4, r0, lsl #28
     eac:	17021331 	smladxne	r2, r1, r3, r1
     eb0:	001742b7 			; <UNDEFINED> instruction: 0x001742b7
     eb4:	00341f00 	eorseq	r1, r4, r0, lsl #30
     eb8:	00001331 	andeq	r1, r0, r1, lsr r3
     ebc:	31011d20 	tstcc	r1, r0, lsr #26
     ec0:	b8015213 	stmdalt	r1, {r0, r1, r4, r9, ip, lr}
     ec4:	17550542 	ldrbne	r0, [r5, -r2, asr #10]
     ec8:	0b590b58 	bleq	1643c30 <__bss_end__+0x1638d28>
     ecc:	00000b57 	andeq	r0, r0, r7, asr fp
     ed0:	01828921 	orreq	r8, r2, r1, lsr #18
     ed4:	01011101 	tsteq	r1, r1, lsl #2
     ed8:	22000013 	andcs	r0, r0, #19, 0
     edc:	13490101 	movtne	r0, #37121	; 0x9101
     ee0:	00001301 	andeq	r1, r0, r1, lsl #6
     ee4:	49002123 	stmdbmi	r0, {r0, r1, r5, r8, sp}
     ee8:	000b2f13 	andeq	r2, fp, r3, lsl pc
     eec:	012e2400 			; <UNDEFINED> instruction: 0x012e2400
     ef0:	0b3a0e03 	bleq	e84704 <__bss_end__+0xe797fc>
     ef4:	0b390b3b 	bleq	e43be8 <__bss_end__+0xe38ce0>
     ef8:	13491927 	movtne	r1, #39207	; 0x9927
     efc:	13010b20 	movwne	r0, #6944	; 0x1b20
     f00:	05250000 	streq	r0, [r5, #-0]!
     f04:	3a0e0300 	bcc	381b0c <__bss_end__+0x376c04>
     f08:	390b3b0b 	stmdbcc	fp, {r0, r1, r3, r8, r9, fp, ip, sp}
     f0c:	0013490b 	andseq	r4, r3, fp, lsl #18
     f10:	00052600 	andeq	r2, r5, r0, lsl #12
     f14:	0b3a0803 	bleq	e82f28 <__bss_end__+0xe78020>
     f18:	0b390b3b 	bleq	e43c0c <__bss_end__+0xe38d04>
     f1c:	00001349 	andeq	r1, r0, r9, asr #6
     f20:	03003427 	movweq	r3, #1063	; 0x427
     f24:	3b0b3a08 	blcc	2cf74c <__bss_end__+0x2c4844>
     f28:	490b390b 	stmdbmi	fp, {r0, r1, r3, r8, fp, ip, sp}
     f2c:	28000013 	stmdacs	r0, {r0, r1, r4}
     f30:	0000010b 	andeq	r0, r0, fp, lsl #2
     f34:	03003429 	movweq	r3, #1065	; 0x429
     f38:	3b0b3a0e 	blcc	2cf778 <__bss_end__+0x2c4870>
     f3c:	490b390b 	stmdbmi	fp, {r0, r1, r3, r8, fp, ip, sp}
     f40:	2a000013 	bcs	f94 <__code_start__-0x706c>
     f44:	0803012e 	stmdaeq	r3, {r1, r2, r3, r5, r8}
     f48:	0b3b0b3a 	bleq	ec3c38 <__bss_end__+0xeb8d30>
     f4c:	19270b39 	stmdbne	r7!, {r0, r3, r4, r5, r8, r9, fp}
     f50:	0b201349 	bleq	805c7c <__bss_end__+0x7fad74>
     f54:	00001301 	andeq	r1, r0, r1, lsl #6
     f58:	3f012e2b 	svccc	0x00012e2b
     f5c:	3a0e0319 	bcc	381bc8 <__bss_end__+0x376cc0>
     f60:	390b3b0b 	stmdbcc	fp, {r0, r1, r3, r8, r9, fp, ip, sp}
     f64:	1119270b 	tstne	r9, fp, lsl #14
     f68:	40061201 	andmi	r1, r6, r1, lsl #4
     f6c:	19429718 	stmdbne	r2, {r3, r4, r8, r9, sl, ip, pc}^
     f70:	00001301 	andeq	r1, r0, r1, lsl #6
     f74:	31012e2c 	tstcc	r1, ip, lsr #28
     f78:	12011113 	andne	r1, r1, #-1073741820	; 0xc0000004
     f7c:	97184006 	ldrls	r4, [r8, -r6]
     f80:	13011942 	movwne	r1, #6466	; 0x1942
     f84:	052d0000 	streq	r0, [sp, #-0]!
     f88:	02133100 	andseq	r3, r3, #0
     f8c:	2e000018 	mcrcs	0, 0, r0, cr0, cr8, {0}
     f90:	13310005 	teqne	r1, #5, 0
     f94:	00000b1c 	andeq	r0, r0, ip, lsl fp
     f98:	31010b2f 	tstcc	r1, pc, lsr #22
     f9c:	12011113 	andne	r1, r1, #-1073741820	; 0xc0000004
     fa0:	00130106 	andseq	r0, r3, r6, lsl #2
     fa4:	002e3000 	eoreq	r3, lr, r0
     fa8:	193c193f 	ldmdbne	ip!, {r0, r1, r2, r3, r4, r5, r8, fp, ip}
     fac:	0e030e6e 	cdpeq	14, 0, cr0, cr3, cr14, {3}
     fb0:	0b3b0b3a 	bleq	ec3ca0 <__bss_end__+0xeb8d98>
     fb4:	00000b39 	andeq	r0, r0, r9, lsr fp
     fb8:	01110100 	tsteq	r1, r0, lsl #2
     fbc:	0b130e25 	bleq	4c4858 <__bss_end__+0x4b9950>
     fc0:	0e1b0e03 	cdpeq	14, 1, cr0, cr11, cr3, {0}
     fc4:	06120111 			; <UNDEFINED> instruction: 0x06120111
     fc8:	00001710 	andeq	r1, r0, r0, lsl r7
     fcc:	0b002402 	bleq	9fdc <gpio_set_output+0x40>
     fd0:	030b3e0b 	movweq	r3, #48651	; 0xbe0b
     fd4:	03000008 	movweq	r0, #8
     fd8:	0b0b0024 	bleq	2c1070 <__bss_end__+0x2b6168>
     fdc:	0e030b3e 	vmoveq.16	d3[0], r0
     fe0:	15040000 	strne	r0, [r4, #-0]
     fe4:	49192701 	ldmdbmi	r9, {r0, r8, r9, sl, sp}
     fe8:	00130113 	andseq	r0, r3, r3, lsl r1
     fec:	00050500 	andeq	r0, r5, r0, lsl #10
     ff0:	00001349 	andeq	r1, r0, r9, asr #6
     ff4:	03003406 	movweq	r3, #1030	; 0x406
     ff8:	3b0b3a0e 	blcc	2cf838 <__bss_end__+0x2c4930>
     ffc:	490b390b 	stmdbmi	fp, {r0, r1, r3, r8, fp, ip, sp}
    1000:	3c193f13 	ldccc	15, cr3, [r9], {19}
    1004:	07000019 	smladeq	r0, r9, r0, r0
    1008:	0b0b000f 	bleq	2c104c <__bss_end__+0x2b6144>
    100c:	00001349 	andeq	r1, r0, r9, asr #6
    1010:	49002608 	stmdbmi	r0, {r3, r9, sl, sp}
    1014:	09000013 	stmdbeq	r0, {r0, r1, r4}
    1018:	193f012e 	ldmdbne	pc!, {r1, r2, r3, r5, r8}	; <UNPREDICTABLE>
    101c:	0b3a0e03 	bleq	e84830 <__bss_end__+0xe79928>
    1020:	0b390b3b 	bleq	e43d14 <__bss_end__+0xe38e0c>
    1024:	01871927 	orreq	r1, r7, r7, lsr #18
    1028:	12011119 	andne	r1, r1, #1073741830	; 0x40000006
    102c:	97184006 	ldrls	r4, [r8, -r6]
    1030:	13011942 	movwne	r1, #6466	; 0x1942
    1034:	890a0000 	stmdbhi	sl, {}	; <UNPREDICTABLE>
    1038:	11010182 	smlabbne	r1, r2, r1, r0
    103c:	00130101 	andseq	r0, r3, r1, lsl #2
    1040:	828a0b00 	addhi	r0, sl, #0, 22
    1044:	18020001 	stmdane	r2, {r0}
    1048:	00184291 	mulseq	r8, r1, r2
    104c:	82890c00 	addhi	r0, r9, #0, 24
    1050:	01110001 	tsteq	r1, r1
    1054:	00001331 	andeq	r1, r0, r1, lsr r3
    1058:	0182890d 	orreq	r8, r2, sp, lsl #18
    105c:	31011101 	tstcc	r1, r1, lsl #2
    1060:	00130113 	andseq	r0, r3, r3, lsl r1
    1064:	002e0e00 	eoreq	r0, lr, r0, lsl #28
    1068:	193c193f 	ldmdbne	ip!, {r0, r1, r2, r3, r4, r5, r8, fp, ip}
    106c:	0e030e6e 	cdpeq	14, 0, cr0, cr3, cr14, {3}
    1070:	0b3b0b3a 	bleq	ec3d60 <__bss_end__+0xeb8e58>
    1074:	00000b39 	andeq	r0, r0, r9, lsr fp
    1078:	01110100 	tsteq	r1, r0, lsl #2
    107c:	0b130e25 	bleq	4c4918 <__bss_end__+0x4b9a10>
    1080:	0e1b0e03 	cdpeq	14, 1, cr0, cr11, cr3, {0}
    1084:	06120111 			; <UNDEFINED> instruction: 0x06120111
    1088:	00001710 	andeq	r1, r0, r0, lsl r7
    108c:	0b002402 	bleq	a09c <gpio_write+0x20>
    1090:	030b3e0b 	movweq	r3, #48651	; 0xbe0b
    1094:	03000008 	movweq	r0, #8
    1098:	0b0b0024 	bleq	2c1130 <__bss_end__+0x2b6228>
    109c:	0e030b3e 	vmoveq.16	d3[0], r0
    10a0:	15040000 	strne	r0, [r4, #-0]
    10a4:	49192701 	ldmdbmi	r9, {r0, r8, r9, sl, sp}
    10a8:	00130113 	andseq	r0, r3, r3, lsl r1
    10ac:	00050500 	andeq	r0, r5, r0, lsl #10
    10b0:	00001349 	andeq	r1, r0, r9, asr #6
    10b4:	03003406 	movweq	r3, #1030	; 0x406
    10b8:	3b0b3a0e 	blcc	2cf8f8 <__bss_end__+0x2c49f0>
    10bc:	490b390b 	stmdbmi	fp, {r0, r1, r3, r8, fp, ip, sp}
    10c0:	3c193f13 	ldccc	15, cr3, [r9], {19}
    10c4:	07000019 	smladeq	r0, r9, r0, r0
    10c8:	0b0b000f 	bleq	2c110c <__bss_end__+0x2b6204>
    10cc:	00001349 	andeq	r1, r0, r9, asr #6
    10d0:	49002608 	stmdbmi	r0, {r3, r9, sl, sp}
    10d4:	09000013 	stmdbeq	r0, {r0, r1, r4}
    10d8:	193f012e 	ldmdbne	pc!, {r1, r2, r3, r5, r8}	; <UNPREDICTABLE>
    10dc:	0b3a0e03 	bleq	e848f0 <__bss_end__+0xe799e8>
    10e0:	0b390b3b 	bleq	e43dd4 <__bss_end__+0xe38ecc>
    10e4:	06120111 			; <UNDEFINED> instruction: 0x06120111
    10e8:	42971840 	addsmi	r1, r7, #64, 16	; 0x400000
    10ec:	00130119 	andseq	r0, r3, r9, lsl r1
    10f0:	002e0a00 	eoreq	r0, lr, r0, lsl #20
    10f4:	0e03193f 			; <UNDEFINED> instruction: 0x0e03193f
    10f8:	0b3b0b3a 	bleq	ec3de8 <__bss_end__+0xeb8ee0>
    10fc:	19270b39 	stmdbne	r7!, {r0, r3, r4, r5, r8, r9, fp}
    1100:	0000193c 	andeq	r1, r0, ip, lsr r9
    1104:	0300340b 	movweq	r3, #1035	; 0x40b
    1108:	3b0b3a08 	blcc	2cf930 <__bss_end__+0x2c4a28>
    110c:	490b390b 	stmdbmi	fp, {r0, r1, r3, r8, fp, ip, sp}
    1110:	b7170213 			; <UNDEFINED> instruction: 0xb7170213
    1114:	00001742 	andeq	r1, r0, r2, asr #14
    1118:	0300340c 	movweq	r3, #1036	; 0x40c
    111c:	3b0b3a0e 	blcc	2cf95c <__bss_end__+0x2c4a54>
    1120:	490b390b 	stmdbmi	fp, {r0, r1, r3, r8, fp, ip, sp}
    1124:	0d000013 	stceq	0, cr0, [r0, #-76]	; 0xffffffb4
    1128:	0111010b 	tsteq	r1, fp, lsl #2
    112c:	13010612 	movwne	r0, #5650	; 0x1612
    1130:	890e0000 	stmdbhi	lr, {}	; <UNPREDICTABLE>
    1134:	11000182 	smlabbne	r0, r2, r1, r0
    1138:	00133101 	andseq	r3, r3, r1, lsl #2
    113c:	002e0f00 	eoreq	r0, lr, r0, lsl #30
    1140:	193c193f 	ldmdbne	ip!, {r0, r1, r2, r3, r4, r5, r8, fp, ip}
    1144:	0e030e6e 	cdpeq	14, 0, cr0, cr3, cr14, {3}
    1148:	053b0b3a 	ldreq	r0, [fp, #-2874]!	; 0xfffff4c6
    114c:	00000b39 	andeq	r0, r0, r9, lsr fp
    1150:	3f002e10 	svccc	0x00002e10
    1154:	6e193c19 	mrcvs	12, 0, r3, cr9, cr9, {0}
    1158:	3a0e030e 	bcc	381d98 <__bss_end__+0x376e90>
    115c:	390b3b0b 	stmdbcc	fp, {r0, r1, r3, r8, r9, fp, ip, sp}
    1160:	0000000b 	andeq	r0, r0, fp
    1164:	25011101 	strcs	r1, [r1, #-257]	; 0xfffffeff
    1168:	030b130e 	movweq	r1, #45838	; 0xb30e
    116c:	110e1b0e 	tstne	lr, lr, lsl #22
    1170:	10061201 	andne	r1, r6, r1, lsl #4
    1174:	02000017 	andeq	r0, r0, #23, 0
    1178:	0b0b0024 	bleq	2c1210 <__bss_end__+0x2b6308>
    117c:	08030b3e 	stmdaeq	r3, {r1, r2, r3, r4, r5, r8, r9, fp}
    1180:	24030000 	strcs	r0, [r3], #-0
    1184:	3e0b0b00 	vmlacc.f64	d0, d11, d0
    1188:	000e030b 	andeq	r0, lr, fp, lsl #6
    118c:	01150400 	tsteq	r5, r0, lsl #8
    1190:	13491927 	movtne	r1, #39207	; 0x9927
    1194:	00001301 	andeq	r1, r0, r1, lsl #6
    1198:	49000505 	stmdbmi	r0, {r0, r2, r8, sl}
    119c:	06000013 			; <UNDEFINED> instruction: 0x06000013
    11a0:	0e030034 	mcreq	0, 0, r0, cr3, cr4, {1}
    11a4:	0b3b0b3a 	bleq	ec3e94 <__bss_end__+0xeb8f8c>
    11a8:	13490b39 	movtne	r0, #39737	; 0x9b39
    11ac:	193c193f 	ldmdbne	ip!, {r0, r1, r2, r3, r4, r5, r8, fp, ip}
    11b0:	0f070000 	svceq	0x00070000
    11b4:	490b0b00 	stmdbmi	fp, {r8, r9, fp}
    11b8:	08000013 	stmdaeq	r0, {r0, r1, r4}
    11bc:	13490026 	movtne	r0, #36902	; 0x9026
    11c0:	2e090000 	cdpcs	0, 0, cr0, cr9, cr0, {0}
    11c4:	03193f00 	tsteq	r9, #0, 30
    11c8:	3b0b3a0e 	blcc	2cfa08 <__bss_end__+0x2c4b00>
    11cc:	270b390b 	strcs	r3, [fp, -fp, lsl #18]
    11d0:	12011119 	andne	r1, r1, #1073741830	; 0x40000006
    11d4:	97184006 	ldrls	r4, [r8, -r6]
    11d8:	00001942 	andeq	r1, r0, r2, asr #18
    11dc:	01110100 	tsteq	r1, r0, lsl #2
    11e0:	0b130e25 	bleq	4c4a7c <__bss_end__+0x4b9b74>
    11e4:	0e1b0e03 	cdpeq	14, 1, cr0, cr11, cr3, {0}
    11e8:	01111755 	tsteq	r1, r5, asr r7
    11ec:	00001710 	andeq	r1, r0, r0, lsl r7
    11f0:	0b002402 	bleq	a200 <__code_end__+0x1c>
    11f4:	030b3e0b 	movweq	r3, #48651	; 0xbe0b
    11f8:	03000008 	movweq	r0, #8
    11fc:	13490026 	movtne	r0, #36902	; 0x9026
    1200:	24040000 	strcs	r0, [r4], #-0
    1204:	3e0b0b00 	vmlacc.f64	d0, d11, d0
    1208:	000e030b 	andeq	r0, lr, fp, lsl #6
    120c:	01150500 	tsteq	r5, r0, lsl #10
    1210:	13491927 	movtne	r1, #39207	; 0x9927
    1214:	00001301 	andeq	r1, r0, r1, lsl #6
    1218:	49000506 	stmdbmi	r0, {r1, r2, r8, sl}
    121c:	07000013 	smladeq	r0, r3, r0, r0
    1220:	0e030034 	mcreq	0, 0, r0, cr3, cr4, {1}
    1224:	0b3b0b3a 	bleq	ec3f14 <__bss_end__+0xeb900c>
    1228:	13490b39 	movtne	r0, #39737	; 0x9b39
    122c:	193c193f 	ldmdbne	ip!, {r0, r1, r2, r3, r4, r5, r8, fp, ip}
    1230:	0f080000 	svceq	0x00080000
    1234:	490b0b00 	stmdbmi	fp, {r8, r9, fp}
    1238:	09000013 	stmdbeq	r0, {r0, r1, r4}
    123c:	0e030034 	mcreq	0, 0, r0, cr3, cr4, {1}
    1240:	0b3b0b3a 	bleq	ec3f30 <__bss_end__+0xeb9028>
    1244:	13490b39 	movtne	r0, #39737	; 0x9b39
    1248:	2e0a0000 	cdpcs	0, 0, cr0, cr10, cr0, {0}
    124c:	03193f01 	tsteq	r9, #1, 30
    1250:	3b0b3a0e 	blcc	2cfa90 <__bss_end__+0x2c4b88>
    1254:	270b390b 	strcs	r3, [fp, -fp, lsl #18]
    1258:	19018719 	stmdbne	r1, {r0, r3, r4, r8, r9, sl, pc}
    125c:	06120111 			; <UNDEFINED> instruction: 0x06120111
    1260:	42971840 	addsmi	r1, r7, #64, 16	; 0x400000
    1264:	00130119 	andseq	r0, r3, r9, lsl r1
    1268:	00340b00 	eorseq	r0, r4, r0, lsl #22
    126c:	0b3a0e03 	bleq	e84a80 <__bss_end__+0xe79b78>
    1270:	0b390b3b 	bleq	e43f64 <__bss_end__+0xe3905c>
    1274:	061c1349 	ldreq	r1, [ip], -r9, asr #6
    1278:	340c0000 	strcc	r0, [ip], #-0
    127c:	3a0e0300 	bcc	381e84 <__bss_end__+0x376f7c>
    1280:	390b3b0b 	stmdbcc	fp, {r0, r1, r3, r8, r9, fp, ip, sp}
    1284:	1c13490b 			; <UNDEFINED> instruction: 0x1c13490b
    1288:	0d00000b 	stceq	0, cr0, [r0, #-44]	; 0xffffffd4
    128c:	1331011d 	teqne	r1, #1073741831	; 0x40000007
    1290:	42b80152 	adcsmi	r0, r8, #-2147483628	; 0x80000014
    1294:	5817550b 	ldmdapl	r7, {r0, r1, r3, r8, sl, ip, lr}
    1298:	570b590b 	strpl	r5, [fp, -fp, lsl #18]
    129c:	0013010b 	andseq	r0, r3, fp, lsl #2
    12a0:	010b0e00 	tsteq	fp, r0, lsl #28
    12a4:	00001755 	andeq	r1, r0, r5, asr r7
    12a8:	3100340f 	tstcc	r0, pc, lsl #8
    12ac:	b7170213 			; <UNDEFINED> instruction: 0xb7170213
    12b0:	00001742 	andeq	r1, r0, r2, asr #14
    12b4:	31011d10 	tstcc	r1, r0, lsl sp
    12b8:	b8015213 	stmdalt	r1, {r0, r1, r4, r9, ip, lr}
    12bc:	01110b42 	tsteq	r1, r2, asr #22
    12c0:	0b580612 	bleq	1602b10 <__bss_end__+0x15f7c08>
    12c4:	0b570b59 	bleq	15c4030 <__bss_end__+0x15b9128>
    12c8:	00001301 	andeq	r1, r0, r1, lsl #6
    12cc:	01828911 	orreq	r8, r2, r1, lsl r9
    12d0:	31011100 	mrscc	r1, (UNDEF: 17)
    12d4:	12000013 	andne	r0, r0, #19, 0
    12d8:	01018289 	smlabbeq	r1, r9, r2, r8
    12dc:	13310111 	teqne	r1, #1073741828	; 0x40000004
    12e0:	00001301 	andeq	r1, r0, r1, lsl #6
    12e4:	01828a13 	orreq	r8, r2, r3, lsl sl
    12e8:	91180200 	tstls	r8, r0, lsl #4
    12ec:	00001842 	andeq	r1, r0, r2, asr #16
    12f0:	01828914 	orreq	r8, r2, r4, lsl r9
    12f4:	31011101 	tstcc	r1, r1, lsl #2
    12f8:	15000013 	strne	r0, [r0, #-19]	; 0xffffffed
    12fc:	193f012e 	ldmdbne	pc!, {r1, r2, r3, r5, r8}	; <UNPREDICTABLE>
    1300:	0b3a0e03 	bleq	e84b14 <__bss_end__+0xe79c0c>
    1304:	0b390b3b 	bleq	e43ff8 <__bss_end__+0xe390f0>
    1308:	0b201927 	bleq	8077ac <__bss_end__+0x7fc8a4>
    130c:	00001301 	andeq	r1, r0, r1, lsl #6
    1310:	3f012e16 	svccc	0x00012e16
    1314:	3a0e0319 	bcc	381f80 <__bss_end__+0x377078>
    1318:	390b3b0b 	stmdbcc	fp, {r0, r1, r3, r8, r9, fp, ip, sp}
    131c:	4919270b 	ldmdbmi	r9, {r0, r1, r3, r8, r9, sl, sp}
    1320:	010b2013 	tsteq	fp, r3, lsl r0
    1324:	17000013 	smladne	r0, r3, r0, r0
    1328:	1331012e 	teqne	r1, #-2147483637	; 0x8000000b
    132c:	06120111 			; <UNDEFINED> instruction: 0x06120111
    1330:	42971840 	addsmi	r1, r7, #64, 16	; 0x400000
    1334:	00130119 	andseq	r0, r3, r9, lsl r1
    1338:	002e1800 	eoreq	r1, lr, r0, lsl #16
    133c:	193c193f 	ldmdbne	ip!, {r0, r1, r2, r3, r4, r5, r8, fp, ip}
    1340:	0e030e6e 	cdpeq	14, 0, cr0, cr3, cr14, {3}
    1344:	053b0b3a 	ldreq	r0, [fp, #-2874]!	; 0xfffff4c6
    1348:	00000b39 	andeq	r0, r0, r9, lsr fp
    134c:	3f002e19 	svccc	0x00002e19
    1350:	6e193c19 	mrcvs	12, 0, r3, cr9, cr9, {0}
    1354:	3a0e030e 	bcc	381f94 <__bss_end__+0x37708c>
    1358:	390b3b0b 	stmdbcc	fp, {r0, r1, r3, r8, r9, fp, ip, sp}
    135c:	0000000b 	andeq	r0, r0, fp
    1360:	25011101 	strcs	r1, [r1, #-257]	; 0xfffffeff
    1364:	030b130e 	movweq	r1, #45838	; 0xb30e
    1368:	110e1b0e 	tstne	lr, lr, lsl #22
    136c:	10061201 	andne	r1, r6, r1, lsl #4
    1370:	02000017 	andeq	r0, r0, #23, 0
    1374:	0b0b0024 	bleq	2c140c <__bss_end__+0x2b6504>
    1378:	08030b3e 	stmdaeq	r3, {r1, r2, r3, r4, r5, r8, r9, fp}
    137c:	24030000 	strcs	r0, [r3], #-0
    1380:	3e0b0b00 	vmlacc.f64	d0, d11, d0
    1384:	000e030b 	andeq	r0, lr, fp, lsl #6
    1388:	01150400 	tsteq	r5, r0, lsl #8
    138c:	13491927 	movtne	r1, #39207	; 0x9927
    1390:	00001301 	andeq	r1, r0, r1, lsl #6
    1394:	49000505 	stmdbmi	r0, {r0, r2, r8, sl}
    1398:	06000013 			; <UNDEFINED> instruction: 0x06000013
    139c:	0e030034 	mcreq	0, 0, r0, cr3, cr4, {1}
    13a0:	0b3b0b3a 	bleq	ec4090 <__bss_end__+0xeb9188>
    13a4:	13490b39 	movtne	r0, #39737	; 0x9b39
    13a8:	193c193f 	ldmdbne	ip!, {r0, r1, r2, r3, r4, r5, r8, fp, ip}
    13ac:	0f070000 	svceq	0x00070000
    13b0:	490b0b00 	stmdbmi	fp, {r8, r9, fp}
    13b4:	08000013 	stmdaeq	r0, {r0, r1, r4}
    13b8:	13490026 	movtne	r0, #36902	; 0x9026
    13bc:	2e090000 	cdpcs	0, 0, cr0, cr9, cr0, {0}
    13c0:	03193f01 	tsteq	r9, #1, 30
    13c4:	3b0b3a0e 	blcc	2cfc04 <__bss_end__+0x2c4cfc>
    13c8:	270b390b 	strcs	r3, [fp, -fp, lsl #18]
    13cc:	12011119 	andne	r1, r1, #1073741830	; 0x40000006
    13d0:	97184006 	ldrls	r4, [r8, -r6]
    13d4:	13011942 	movwne	r1, #6466	; 0x1942
    13d8:	050a0000 	streq	r0, [sl, #-0]
    13dc:	3a080300 	bcc	201fe4 <__bss_end__+0x1f70dc>
    13e0:	390b3b0b 	stmdbcc	fp, {r0, r1, r3, r8, r9, fp, ip, sp}
    13e4:	0213490b 	andseq	r4, r3, #180224	; 0x2c000
    13e8:	1742b717 	smlaldne	fp, r2, r7, r7
    13ec:	1d0b0000 	stcne	0, cr0, [fp, #-0]
    13f0:	52133101 	andspl	r3, r3, #1073741824	; 0x40000000
    13f4:	0b42b801 	bleq	10af400 <__bss_end__+0x10a44f8>
    13f8:	0b581755 	bleq	1607154 <__bss_end__+0x15fc24c>
    13fc:	0b570b59 	bleq	15c4168 <__bss_end__+0x15b9260>
    1400:	050c0000 	streq	r0, [ip, #-0]
    1404:	02133100 	andseq	r3, r3, #0
    1408:	1742b717 	smlaldne	fp, r2, r7, r7
    140c:	1d0d0000 	stcne	0, cr0, [sp, #-0]
    1410:	52133101 	andspl	r3, r3, #1073741824	; 0x40000000
    1414:	0b42b801 	bleq	10af420 <__bss_end__+0x10a4518>
    1418:	06120111 			; <UNDEFINED> instruction: 0x06120111
    141c:	0b590b58 	bleq	1644184 <__bss_end__+0x163927c>
    1420:	00000b57 	andeq	r0, r0, r7, asr fp
    1424:	3100340e 	tstcc	r0, lr, lsl #8
    1428:	b7170213 			; <UNDEFINED> instruction: 0xb7170213
    142c:	00001742 	andeq	r1, r0, r2, asr #14
    1430:	31011d0f 	tstcc	r1, pc, lsl #26
    1434:	b8015213 	stmdalt	r1, {r0, r1, r4, r9, ip, lr}
    1438:	01110b42 	tsteq	r1, r2, asr #22
    143c:	0b580612 	bleq	1602c8c <__bss_end__+0x15f7d84>
    1440:	0b570b59 	bleq	15c41ac <__bss_end__+0x15b92a4>
    1444:	00001301 	andeq	r1, r0, r1, lsl #6
    1448:	01828910 	orreq	r8, r2, r0, lsl r9
    144c:	31011101 	tstcc	r1, r1, lsl #2
    1450:	11000013 	tstne	r0, r3, lsl r0
    1454:	0001828a 	andeq	r8, r1, sl, lsl #5
    1458:	42911802 	addsmi	r1, r1, #131072	; 0x20000
    145c:	12000018 	andne	r0, r0, #24, 0
    1460:	00018289 	andeq	r8, r1, r9, lsl #5
    1464:	13310111 	teqne	r1, #1073741828	; 0x40000004
    1468:	0b130000 	bleq	4c1470 <__bss_end__+0x4b6568>
    146c:	55133101 	ldrpl	r3, [r3, #-257]	; 0xfffffeff
    1470:	14000017 	strne	r0, [r0], #-23	; 0xffffffe9
    1474:	13310034 	teqne	r1, #52, 0	; 0x34
    1478:	0b150000 	bleq	541480 <__bss_end__+0x536578>
    147c:	00175501 	andseq	r5, r7, r1, lsl #10
    1480:	011d1600 	tsteq	sp, r0, lsl #12
    1484:	01521331 	cmpeq	r2, r1, lsr r3
    1488:	550b42b8 	strpl	r4, [fp, #-696]	; 0xfffffd48
    148c:	590b5817 	stmdbpl	fp, {r0, r1, r2, r4, fp, ip, lr}
    1490:	010b570b 	tsteq	fp, fp, lsl #14
    1494:	17000013 	smladne	r0, r3, r0, r0
    1498:	193f012e 	ldmdbne	pc!, {r1, r2, r3, r5, r8}	; <UNPREDICTABLE>
    149c:	0b3a0e03 	bleq	e84cb0 <__bss_end__+0xe79da8>
    14a0:	0b390b3b 	bleq	e44194 <__bss_end__+0xe3928c>
    14a4:	0b201927 	bleq	807948 <__bss_end__+0x7fca40>
    14a8:	00001301 	andeq	r1, r0, r1, lsl #6
    14ac:	03000518 	movweq	r0, #1304	; 0x518
    14b0:	3b0b3a08 	blcc	2cfcd8 <__bss_end__+0x2c4dd0>
    14b4:	490b390b 	stmdbmi	fp, {r0, r1, r3, r8, fp, ip, sp}
    14b8:	19000013 	stmdbne	r0, {r0, r1, r4}
    14bc:	08030034 	stmdaeq	r3, {r2, r4, r5}
    14c0:	0b3b0b3a 	bleq	ec41b0 <__bss_end__+0xeb92a8>
    14c4:	13490b39 	movtne	r0, #39737	; 0x9b39
    14c8:	0b1a0000 	bleq	6814d0 <__bss_end__+0x6765c8>
    14cc:	1b000001 	blne	14d8 <__code_start__-0x6b28>
    14d0:	193f012e 	ldmdbne	pc!, {r1, r2, r3, r5, r8}	; <UNPREDICTABLE>
    14d4:	0b3a0e03 	bleq	e84ce8 <__bss_end__+0xe79de0>
    14d8:	0b390b3b 	bleq	e441cc <__bss_end__+0xe392c4>
    14dc:	13491927 	movtne	r1, #39207	; 0x9927
    14e0:	13010b20 	movwne	r0, #6944	; 0x1b20
    14e4:	2e1c0000 	cdpcs	0, 1, cr0, cr12, cr0, {0}
    14e8:	03193f00 	tsteq	r9, #0, 30
    14ec:	3b0b3a0e 	blcc	2cfd2c <__bss_end__+0x2c4e24>
    14f0:	270b390b 	strcs	r3, [fp, -fp, lsl #18]
    14f4:	20134919 	andscs	r4, r3, r9, lsl r9
    14f8:	1d00000b 	stcne	0, cr0, [r0, #-44]	; 0xffffffd4
    14fc:	1331012e 	teqne	r1, #-2147483637	; 0x8000000b
    1500:	06120111 			; <UNDEFINED> instruction: 0x06120111
    1504:	42971840 	addsmi	r1, r7, #64, 16	; 0x400000
    1508:	00130119 	andseq	r0, r3, r9, lsl r1
    150c:	82891e00 	addhi	r1, r9, #0, 28
    1510:	01110101 	tsteq	r1, r1, lsl #2
    1514:	31194295 			; <UNDEFINED> instruction: 0x31194295
    1518:	1f000013 	svcne	0x00000013
    151c:	193f002e 	ldmdbne	pc!, {r1, r2, r3, r5}	; <UNPREDICTABLE>
    1520:	0e6e193c 			; <UNDEFINED> instruction: 0x0e6e193c
    1524:	0b3a0e03 	bleq	e84d38 <__bss_end__+0xe79e30>
    1528:	0b390b3b 	bleq	e4421c <__bss_end__+0xe39314>
    152c:	01000000 	mrseq	r0, (UNDEF: 0)
    1530:	0e250111 	mcreq	1, 1, r0, cr5, cr1, {0}
    1534:	0e030b13 	vmoveq.32	d3[0], r0
    1538:	01110e1b 	tsteq	r1, fp, lsl lr
    153c:	17100612 			; <UNDEFINED> instruction: 0x17100612
    1540:	24020000 	strcs	r0, [r2], #-0
    1544:	3e0b0b00 	vmlacc.f64	d0, d11, d0
    1548:	0008030b 	andeq	r0, r8, fp, lsl #6
    154c:	00240300 	eoreq	r0, r4, r0, lsl #6
    1550:	0b3e0b0b 	bleq	f84184 <__bss_end__+0xf7927c>
    1554:	00000e03 	andeq	r0, r0, r3, lsl #28
    1558:	49003504 	stmdbmi	r0, {r2, r8, sl, ip, sp}
    155c:	05000013 	streq	r0, [r0, #-19]	; 0xffffffed
    1560:	0e030016 	mcreq	0, 0, r0, cr3, cr6, {0}
    1564:	0b3b0b3a 	bleq	ec4254 <__bss_end__+0xeb934c>
    1568:	13490b39 	movtne	r0, #39737	; 0x9b39
    156c:	04060000 	streq	r0, [r6], #-0
    1570:	0b0b3e01 	bleq	2d0d7c <__bss_end__+0x2c5e74>
    1574:	3a13490b 	bcc	4d39a8 <__bss_end__+0x4c8aa0>
    1578:	390b3b0b 	stmdbcc	fp, {r0, r1, r3, r8, r9, fp, ip, sp}
    157c:	0013010b 	andseq	r0, r3, fp, lsl #2
    1580:	00280700 	eoreq	r0, r8, r0, lsl #14
    1584:	0b1c0e03 	bleq	704d98 <__bss_end__+0x6f9e90>
    1588:	13080000 	movwne	r0, #32768	; 0x8000
    158c:	0b0e0301 	bleq	382198 <__bss_end__+0x377290>
    1590:	3b0b3a0b 	blcc	2cfdc4 <__bss_end__+0x2c4ebc>
    1594:	010b390b 	tsteq	fp, fp, lsl #18
    1598:	09000013 	stmdbeq	r0, {r0, r1, r4}
    159c:	0803000d 	stmdaeq	r3, {r0, r2, r3}
    15a0:	0b3b0b3a 	bleq	ec4290 <__bss_end__+0xeb9388>
    15a4:	13490b39 	movtne	r0, #39737	; 0x9b39
    15a8:	00000b38 	andeq	r0, r0, r8, lsr fp
    15ac:	03000d0a 	movweq	r0, #3338	; 0xd0a
    15b0:	3b0b3a0e 	blcc	2cfdf0 <__bss_end__+0x2c4ee8>
    15b4:	490b390b 	stmdbmi	fp, {r0, r1, r3, r8, fp, ip, sp}
    15b8:	000b3813 	andeq	r3, fp, r3, lsl r8
    15bc:	00340b00 	eorseq	r0, r4, r0, lsl #22
    15c0:	0b3a0e03 	bleq	e84dd4 <__bss_end__+0xe79ecc>
    15c4:	0b390b3b 	bleq	e442b8 <__bss_end__+0xe393b0>
    15c8:	061c1349 	ldreq	r1, [ip], -r9, asr #6
    15cc:	0f0c0000 	svceq	0x000c0000
    15d0:	490b0b00 	stmdbmi	fp, {r8, r9, fp}
    15d4:	0d000013 	stceq	0, cr0, [r0, #-76]	; 0xffffffb4
    15d8:	13490026 	movtne	r0, #36902	; 0x9026
    15dc:	2e0e0000 	cdpcs	0, 0, cr0, cr14, cr0, {0}
    15e0:	03193f01 	tsteq	r9, #1, 30
    15e4:	3b0b3a0e 	blcc	2cfe24 <__bss_end__+0x2c4f1c>
    15e8:	270b390b 	strcs	r3, [fp, -fp, lsl #18]
    15ec:	12011119 	andne	r1, r1, #1073741830	; 0x40000006
    15f0:	97184006 	ldrls	r4, [r8, -r6]
    15f4:	13011942 	movwne	r1, #6466	; 0x1942
    15f8:	890f0000 	stmdbhi	pc, {}	; <UNPREDICTABLE>
    15fc:	11000182 	smlabbne	r0, r2, r1, r0
    1600:	00133101 	andseq	r3, r3, r1, lsl #2
    1604:	012e1000 			; <UNDEFINED> instruction: 0x012e1000
    1608:	0e03193f 			; <UNDEFINED> instruction: 0x0e03193f
    160c:	0b3b0b3a 	bleq	ec42fc <__bss_end__+0xeb93f4>
    1610:	19270b39 	stmdbne	r7!, {r0, r3, r4, r5, r8, r9, fp}
    1614:	01111349 	tsteq	r1, r9, asr #6
    1618:	18400612 	stmdane	r0, {r1, r4, r9, sl}^
    161c:	01194297 			; <UNDEFINED> instruction: 0x01194297
    1620:	11000013 	tstne	r0, r3, lsl r0
    1624:	01018289 	smlabbeq	r1, r9, r2, r8
    1628:	13310111 	teqne	r1, #1073741828	; 0x40000004
    162c:	8a120000 	bhi	481634 <__bss_end__+0x47672c>
    1630:	02000182 	andeq	r0, r0, #-2147483616	; 0x80000020
    1634:	18429118 	stmdane	r2, {r3, r4, r8, ip, pc}^
    1638:	05130000 	ldreq	r0, [r3, #-0]
    163c:	3a080300 	bcc	202244 <__bss_end__+0x1f733c>
    1640:	390b3b0b 	stmdbcc	fp, {r0, r1, r3, r8, r9, fp, ip, sp}
    1644:	0213490b 	andseq	r4, r3, #180224	; 0x2c000
    1648:	1742b717 	smlaldne	fp, r2, r7, r7
    164c:	89140000 	ldmdbhi	r4, {}	; <UNPREDICTABLE>
    1650:	11010182 	smlabbne	r1, r2, r1, r0
    1654:	01133101 	tsteq	r3, r1, lsl #2
    1658:	15000013 	strne	r0, [r0, #-19]	; 0xffffffed
    165c:	08030034 	stmdaeq	r3, {r2, r4, r5}
    1660:	0b3b0b3a 	bleq	ec4350 <__bss_end__+0xeb9448>
    1664:	13490b39 	movtne	r0, #39737	; 0x9b39
    1668:	42b71702 	adcsmi	r1, r7, #524288	; 0x80000
    166c:	16000017 			; <UNDEFINED> instruction: 0x16000017
    1670:	0e030034 	mcreq	0, 0, r0, cr3, cr4, {1}
    1674:	0b3b0b3a 	bleq	ec4364 <__bss_end__+0xeb945c>
    1678:	13490b39 	movtne	r0, #39737	; 0x9b39
    167c:	0000051c 	andeq	r0, r0, ip, lsl r5
    1680:	03012e17 	movweq	r2, #7703	; 0x1e17
    1684:	3b0b3a0e 	blcc	2cfec4 <__bss_end__+0x2c4fbc>
    1688:	270b390b 	strcs	r3, [fp, -fp, lsl #18]
    168c:	12011119 	andne	r1, r1, #1073741830	; 0x40000006
    1690:	97184006 	ldrls	r4, [r8, -r6]
    1694:	13011942 	movwne	r1, #6466	; 0x1942
    1698:	05180000 	ldreq	r0, [r8, #-0]
    169c:	3a0e0300 	bcc	3822a4 <__bss_end__+0x37739c>
    16a0:	390b3b0b 	stmdbcc	fp, {r0, r1, r3, r8, r9, fp, ip, sp}
    16a4:	0213490b 	andseq	r4, r3, #180224	; 0x2c000
    16a8:	1742b717 	smlaldne	fp, r2, r7, r7
    16ac:	35190000 	ldrcc	r0, [r9, #-0]
    16b0:	1a000000 	bne	16b8 <__code_start__-0x6948>
    16b4:	193f002e 	ldmdbne	pc!, {r1, r2, r3, r5}	; <UNPREDICTABLE>
    16b8:	0e6e193c 			; <UNDEFINED> instruction: 0x0e6e193c
    16bc:	0b3a0e03 	bleq	e84ed0 <__bss_end__+0xe79fc8>
    16c0:	0b390b3b 	bleq	e443b4 <__bss_end__+0xe394ac>
    16c4:	01000000 	mrseq	r0, (UNDEF: 0)
    16c8:	0e250111 	mcreq	1, 1, r0, cr5, cr1, {0}
    16cc:	0e030b13 	vmoveq.32	d3[0], r0
    16d0:	01110e1b 	tsteq	r1, fp, lsl lr
    16d4:	17100612 			; <UNDEFINED> instruction: 0x17100612
    16d8:	24020000 	strcs	r0, [r2], #-0
    16dc:	3e0b0b00 	vmlacc.f64	d0, d11, d0
    16e0:	0008030b 	andeq	r0, r8, fp, lsl #6
    16e4:	00240300 	eoreq	r0, r4, r0, lsl #6
    16e8:	0b3e0b0b 	bleq	f8431c <__bss_end__+0xf79414>
    16ec:	00000e03 	andeq	r0, r0, r3, lsl #28
    16f0:	03001604 	movweq	r1, #1540	; 0x604
    16f4:	3b0b3a0e 	blcc	2cff34 <__bss_end__+0x2c502c>
    16f8:	490b390b 	stmdbmi	fp, {r0, r1, r3, r8, fp, ip, sp}
    16fc:	05000013 	streq	r0, [r0, #-19]	; 0xffffffed
    1700:	13490026 	movtne	r0, #36902	; 0x9026
    1704:	0f060000 	svceq	0x00060000
    1708:	000b0b00 	andeq	r0, fp, r0, lsl #22
    170c:	01040700 	tsteq	r4, r0, lsl #14
    1710:	0b0b0b3e 	bleq	2c4410 <__bss_end__+0x2b9508>
    1714:	0b3a1349 	bleq	e86440 <__bss_end__+0xe7b538>
    1718:	0b390b3b 	bleq	e4440c <__bss_end__+0xe39504>
    171c:	00001301 	andeq	r1, r0, r1, lsl #6
    1720:	03002808 	movweq	r2, #2056	; 0x808
    1724:	00061c0e 	andeq	r1, r6, lr, lsl #24
    1728:	00340900 	eorseq	r0, r4, r0, lsl #18
    172c:	0b3a0e03 	bleq	e84f40 <__bss_end__+0xe7a038>
    1730:	0b390b3b 	bleq	e44424 <__bss_end__+0xe3951c>
    1734:	193f1349 	ldmdbne	pc!, {r0, r3, r6, r8, r9, ip}	; <UNPREDICTABLE>
    1738:	0000193c 	andeq	r1, r0, ip, lsr r9
    173c:	0300340a 	movweq	r3, #1034	; 0x40a
    1740:	3b0b3a0e 	blcc	2cff80 <__bss_end__+0x2c5078>
    1744:	490b390b 	stmdbmi	fp, {r0, r1, r3, r8, fp, ip, sp}
    1748:	00180213 	andseq	r0, r8, r3, lsl r2
    174c:	000f0b00 	andeq	r0, pc, r0, lsl #22
    1750:	13490b0b 	movtne	r0, #39691	; 0x9b0b
    1754:	2e0c0000 	cdpcs	0, 0, cr0, cr12, cr0, {0}
    1758:	03193f01 	tsteq	r9, #1, 30
    175c:	3b0b3a0e 	blcc	2cff9c <__bss_end__+0x2c5094>
    1760:	270b390b 	strcs	r3, [fp, -fp, lsl #18]
    1764:	12011119 	andne	r1, r1, #1073741830	; 0x40000006
    1768:	97184006 	ldrls	r4, [r8, -r6]
    176c:	13011942 	movwne	r1, #6466	; 0x1942
    1770:	050d0000 	streq	r0, [sp, #-0]
    1774:	3a080300 	bcc	20237c <__bss_end__+0x1f7474>
    1778:	390b3b0b 	stmdbcc	fp, {r0, r1, r3, r8, r9, fp, ip, sp}
    177c:	0213490b 	andseq	r4, r3, #180224	; 0x2c000
    1780:	1742b717 	smlaldne	fp, r2, r7, r7
    1784:	340e0000 	strcc	r0, [lr], #-0
    1788:	490e0300 	stmdbmi	lr, {r8, r9}
    178c:	02193413 	andseq	r3, r9, #318767104	; 0x13000000
    1790:	0f000018 	svceq	0x00000018
    1794:	01018289 	smlabbeq	r1, r9, r2, r8
    1798:	13310111 	teqne	r1, #1073741828	; 0x40000004
    179c:	00001301 	andeq	r1, r0, r1, lsl #6
    17a0:	01828a10 	orreq	r8, r2, r0, lsl sl
    17a4:	91180200 	tstls	r8, r0, lsl #4
    17a8:	00001842 	andeq	r1, r0, r2, asr #16
    17ac:	01828911 	orreq	r8, r2, r1, lsl r9
    17b0:	31011100 	mrscc	r1, (UNDEF: 17)
    17b4:	12000013 	andne	r0, r0, #19, 0
    17b8:	13490101 	movtne	r0, #37121	; 0x9101
    17bc:	00001301 	andeq	r1, r0, r1, lsl #6
    17c0:	49002113 	stmdbmi	r0, {r0, r1, r4, r8, sp}
    17c4:	000b2f13 	andeq	r2, fp, r3, lsl pc
    17c8:	002e1400 	eoreq	r1, lr, r0, lsl #8
    17cc:	0e03193f 			; <UNDEFINED> instruction: 0x0e03193f
    17d0:	0b3b0b3a 	bleq	ec44c0 <__bss_end__+0xeb95b8>
    17d4:	19270b39 	stmdbne	r7!, {r0, r3, r4, r5, r8, r9, fp}
    17d8:	06120111 			; <UNDEFINED> instruction: 0x06120111
    17dc:	42971840 	addsmi	r1, r7, #64, 16	; 0x400000
    17e0:	15000019 	strne	r0, [r0, #-25]	; 0xffffffe7
    17e4:	08030005 	stmdaeq	r3, {r0, r2}
    17e8:	0b3b0b3a 	bleq	ec44d8 <__bss_end__+0xeb95d0>
    17ec:	13490b39 	movtne	r0, #39737	; 0x9b39
    17f0:	00001802 	andeq	r1, r0, r2, lsl #16
    17f4:	3f012e16 	svccc	0x00012e16
    17f8:	3a0e0319 	bcc	382464 <__bss_end__+0x37755c>
    17fc:	390b3b0b 	stmdbcc	fp, {r0, r1, r3, r8, r9, fp, ip, sp}
    1800:	4919270b 	ldmdbmi	r9, {r0, r1, r3, r8, r9, sl, sp}
    1804:	12011113 	andne	r1, r1, #-1073741820	; 0xc0000004
    1808:	97184006 	ldrls	r4, [r8, -r6]
    180c:	13011942 	movwne	r1, #6466	; 0x1942
    1810:	05170000 	ldreq	r0, [r7, #-0]
    1814:	3a0e0300 	bcc	38241c <__bss_end__+0x377514>
    1818:	390b3b0b 	stmdbcc	fp, {r0, r1, r3, r8, r9, fp, ip, sp}
    181c:	0213490b 	andseq	r4, r3, #180224	; 0x2c000
    1820:	1742b717 	smlaldne	fp, r2, r7, r7
    1824:	34180000 	ldrcc	r0, [r8], #-0
    1828:	3a080300 	bcc	202430 <__bss_end__+0x1f7528>
    182c:	390b3b0b 	stmdbcc	fp, {r0, r1, r3, r8, r9, fp, ip, sp}
    1830:	0213490b 	andseq	r4, r3, #180224	; 0x2c000
    1834:	1742b717 	smlaldne	fp, r2, r7, r7
    1838:	1d190000 	ldcne	0, cr0, [r9, #-0]
    183c:	52133101 	andspl	r3, r3, #1073741824	; 0x40000000
    1840:	0b42b801 	bleq	10af84c <__bss_end__+0x10a4944>
    1844:	06120111 			; <UNDEFINED> instruction: 0x06120111
    1848:	0b590b58 	bleq	16445b0 <__bss_end__+0x16396a8>
    184c:	13010b57 	movwne	r0, #6999	; 0x1b57
    1850:	051a0000 	ldreq	r0, [sl, #-0]
    1854:	02133100 	andseq	r3, r3, #0
    1858:	1742b717 	smlaldne	fp, r2, r7, r7
    185c:	1d1b0000 	ldcne	0, cr0, [fp, #-0]
    1860:	52133101 	andspl	r3, r3, #1073741824	; 0x40000000
    1864:	0b42b801 	bleq	10af870 <__bss_end__+0x10a4968>
    1868:	0b581755 	bleq	16075c4 <__bss_end__+0x15fc6bc>
    186c:	0b570b59 	bleq	15c45d8 <__bss_end__+0x15b96d0>
    1870:	00001301 	andeq	r1, r0, r1, lsl #6
    1874:	55010b1c 	strpl	r0, [r1, #-2844]	; 0xfffff4e4
    1878:	1d000017 	stcne	0, cr0, [r0, #-92]	; 0xffffffa4
    187c:	0e030034 	mcreq	0, 0, r0, cr3, cr4, {1}
    1880:	0b3b0b3a 	bleq	ec4570 <__bss_end__+0xeb9668>
    1884:	13490b39 	movtne	r0, #39737	; 0x9b39
    1888:	42b71702 	adcsmi	r1, r7, #524288	; 0x80000
    188c:	1e000017 	mcrne	0, 0, r0, cr0, cr7, {0}
    1890:	1755000b 	ldrbne	r0, [r5, -fp]
    1894:	2e1f0000 	cdpcs	0, 1, cr0, cr15, cr0, {0}
    1898:	03193f00 	tsteq	r9, #0, 30
    189c:	3b0b3a0e 	blcc	2d00dc <__bss_end__+0x2c51d4>
    18a0:	270b390b 	strcs	r3, [fp, -fp, lsl #18]
    18a4:	11134919 	tstne	r3, r9, lsl r9
    18a8:	40061201 	andmi	r1, r6, r1, lsl #4
    18ac:	19429718 	stmdbne	r2, {r3, r4, r8, r9, sl, ip, pc}^
    18b0:	2e200000 	cdpcs	0, 2, cr0, cr0, cr0, {0}
    18b4:	3a0e0301 	bcc	3824c0 <__bss_end__+0x3775b8>
    18b8:	390b3b0b 	stmdbcc	fp, {r0, r1, r3, r8, r9, fp, ip, sp}
    18bc:	4919270b 	ldmdbmi	r9, {r0, r1, r3, r8, r9, sl, sp}
    18c0:	010b2013 	tsteq	fp, r3, lsl r0
    18c4:	21000013 	tstcs	r0, r3, lsl r0
    18c8:	08030005 	stmdaeq	r3, {r0, r2}
    18cc:	0b3b0b3a 	bleq	ec45bc <__bss_end__+0xeb96b4>
    18d0:	13490b39 	movtne	r0, #39737	; 0x9b39
    18d4:	2e220000 	cdpcs	0, 2, cr0, cr2, cr0, {0}
    18d8:	3c193f00 	ldccc	15, cr3, [r9], {-0}
    18dc:	030e6e19 	movweq	r6, #60953	; 0xee19
    18e0:	3b0b3a0e 	blcc	2d0120 <__bss_end__+0x2c5218>
    18e4:	000b390b 	andeq	r3, fp, fp, lsl #18
    18e8:	11010000 	mrsne	r0, (UNDEF: 1)
    18ec:	130e2501 	movwne	r2, #58625	; 0xe501
    18f0:	1b0e030b 	blne	382524 <__bss_end__+0x37761c>
    18f4:	1201110e 	andne	r1, r1, #-2147483645	; 0x80000003
    18f8:	00171006 	andseq	r1, r7, r6
    18fc:	00240200 	eoreq	r0, r4, r0, lsl #4
    1900:	0b3e0b0b 	bleq	f84534 <__bss_end__+0xf7962c>
    1904:	00000e03 	andeq	r0, r0, r3, lsl #28
    1908:	0b002403 	bleq	a91c <__FUNCTION__.4030+0x64>
    190c:	030b3e0b 	movweq	r3, #48651	; 0xbe0b
    1910:	04000008 	streq	r0, [r0], #-8
    1914:	13490026 	movtne	r0, #36902	; 0x9026
    1918:	16050000 	strne	r0, [r5], -r0
    191c:	3a0e0300 	bcc	382524 <__bss_end__+0x37761c>
    1920:	390b3b0b 	stmdbcc	fp, {r0, r1, r3, r8, r9, fp, ip, sp}
    1924:	0013490b 	andseq	r4, r3, fp, lsl #18
    1928:	01150600 	tsteq	r5, r0, lsl #12
    192c:	13491927 	movtne	r1, #39207	; 0x9927
    1930:	00001301 	andeq	r1, r0, r1, lsl #6
    1934:	49000507 	stmdbmi	r0, {r0, r1, r2, r8, sl}
    1938:	08000013 	stmdaeq	r0, {r0, r1, r4}
    193c:	0e030034 	mcreq	0, 0, r0, cr3, cr4, {1}
    1940:	0b3b0b3a 	bleq	ec4630 <__bss_end__+0xeb9728>
    1944:	13490b39 	movtne	r0, #39737	; 0x9b39
    1948:	193c193f 	ldmdbne	ip!, {r0, r1, r2, r3, r4, r5, r8, fp, ip}
    194c:	0f090000 	svceq	0x00090000
    1950:	490b0b00 	stmdbmi	fp, {r8, r9, fp}
    1954:	0a000013 	beq	19a8 <__code_start__-0x6658>
    1958:	0b3e0104 	bleq	f81d70 <__bss_end__+0xf76e68>
    195c:	13490b0b 	movtne	r0, #39691	; 0x9b0b
    1960:	0b3b0b3a 	bleq	ec4650 <__bss_end__+0xeb9748>
    1964:	13010b39 	movwne	r0, #6969	; 0x1b39
    1968:	280b0000 	stmdacs	fp, {}	; <UNPREDICTABLE>
    196c:	1c0e0300 	stcne	3, cr0, [lr], {-0}
    1970:	0c00000b 	stceq	0, cr0, [r0], {11}
    1974:	0e030034 	mcreq	0, 0, r0, cr3, cr4, {1}
    1978:	0b3b0b3a 	bleq	ec4668 <__bss_end__+0xeb9760>
    197c:	13490b39 	movtne	r0, #39737	; 0x9b39
    1980:	0000061c 	andeq	r0, r0, ip, lsl r6
    1984:	3f012e0d 	svccc	0x00012e0d
    1988:	3a0e0319 	bcc	3825f4 <__bss_end__+0x3776ec>
    198c:	390b3b0b 	stmdbcc	fp, {r0, r1, r3, r8, r9, fp, ip, sp}
    1990:	4919270b 	ldmdbmi	r9, {r0, r1, r3, r8, r9, sl, sp}
    1994:	12011113 	andne	r1, r1, #-1073741820	; 0xc0000004
    1998:	97184006 	ldrls	r4, [r8, -r6]
    199c:	13011942 	movwne	r1, #6466	; 0x1942
    19a0:	050e0000 	streq	r0, [lr, #-0]
    19a4:	3a080300 	bcc	2025ac <__bss_end__+0x1f76a4>
    19a8:	390b3b0b 	stmdbcc	fp, {r0, r1, r3, r8, r9, fp, ip, sp}
    19ac:	0213490b 	andseq	r4, r3, #180224	; 0x2c000
    19b0:	1742b717 	smlaldne	fp, r2, r7, r7
    19b4:	340f0000 	strcc	r0, [pc], #-0	; 19bc <__code_start__-0x6644>
    19b8:	3a0e0300 	bcc	3825c0 <__bss_end__+0x3776b8>
    19bc:	390b3b0b 	stmdbcc	fp, {r0, r1, r3, r8, r9, fp, ip, sp}
    19c0:	0213490b 	andseq	r4, r3, #180224	; 0x2c000
    19c4:	1742b717 	smlaldne	fp, r2, r7, r7
    19c8:	34100000 	ldrcc	r0, [r0], #-0
    19cc:	3a080300 	bcc	2025d4 <__bss_end__+0x1f76cc>
    19d0:	390b3b0b 	stmdbcc	fp, {r0, r1, r3, r8, r9, fp, ip, sp}
    19d4:	0213490b 	andseq	r4, r3, #180224	; 0x2c000
    19d8:	1742b717 	smlaldne	fp, r2, r7, r7
    19dc:	89110000 	ldmdbhi	r1, {}	; <UNPREDICTABLE>
    19e0:	11010182 	smlabbne	r1, r2, r1, r0
    19e4:	00133101 	andseq	r3, r3, r1, lsl #2
    19e8:	828a1200 	addhi	r1, sl, #0, 4
    19ec:	18020001 	stmdane	r2, {r0}
    19f0:	00184291 	mulseq	r8, r1, r2
    19f4:	012e1300 			; <UNDEFINED> instruction: 0x012e1300
    19f8:	0e03193f 			; <UNDEFINED> instruction: 0x0e03193f
    19fc:	0b3b0b3a 	bleq	ec46ec <__bss_end__+0xeb97e4>
    1a00:	19270b39 	stmdbne	r7!, {r0, r3, r4, r5, r8, r9, fp}
    1a04:	06120111 			; <UNDEFINED> instruction: 0x06120111
    1a08:	42971840 	addsmi	r1, r7, #64, 16	; 0x400000
    1a0c:	00130119 	andseq	r0, r3, r9, lsl r1
    1a10:	011d1400 	tsteq	sp, r0, lsl #8
    1a14:	01521331 	cmpeq	r2, r1, lsr r3
    1a18:	550b42b8 	strpl	r4, [fp, #-696]	; 0xfffffd48
    1a1c:	590b5817 	stmdbpl	fp, {r0, r1, r2, r4, fp, ip, lr}
    1a20:	010b570b 	tsteq	fp, fp, lsl #14
    1a24:	15000013 	strne	r0, [r0, #-19]	; 0xffffffed
    1a28:	13310005 	teqne	r1, #5, 0
    1a2c:	42b71702 	adcsmi	r1, r7, #524288	; 0x80000
    1a30:	16000017 			; <UNDEFINED> instruction: 0x16000017
    1a34:	01018289 	smlabbeq	r1, r9, r2, r8
    1a38:	42950111 	addsmi	r0, r5, #1073741828	; 0x40000004
    1a3c:	00133119 	andseq	r3, r3, r9, lsl r1
    1a40:	011d1700 	tsteq	sp, r0, lsl #14
    1a44:	01521331 	cmpeq	r2, r1, lsr r3
    1a48:	110b42b8 			; <UNDEFINED> instruction: 0x110b42b8
    1a4c:	58061201 	stmdapl	r6, {r0, r9, ip}
    1a50:	570b590b 	strpl	r5, [fp, -fp, lsl #18]
    1a54:	1800000b 	stmdane	r0, {r0, r1, r3}
    1a58:	1331011d 	teqne	r1, #1073741831	; 0x40000007
    1a5c:	42b80152 	adcsmi	r0, r8, #-2147483628	; 0x80000014
    1a60:	5817550b 	ldmdapl	r7, {r0, r1, r3, r8, sl, ip, lr}
    1a64:	570b590b 	strpl	r5, [fp, -fp, lsl #18]
    1a68:	1900000b 	stmdbne	r0, {r0, r1, r3}
    1a6c:	13310005 	teqne	r1, #5, 0
    1a70:	00000b1c 	andeq	r0, r0, ip, lsl fp
    1a74:	55010b1a 	strpl	r0, [r1, #-2842]	; 0xfffff4e6
    1a78:	1b000017 	blne	1adc <__code_start__-0x6524>
    1a7c:	13310034 	teqne	r1, #52, 0	; 0x34
    1a80:	341c0000 	ldrcc	r0, [ip], #-0
    1a84:	02133100 	andseq	r3, r3, #0
    1a88:	1742b717 	smlaldne	fp, r2, r7, r7
    1a8c:	891d0000 	ldmdbhi	sp, {}	; <UNPREDICTABLE>
    1a90:	11010182 	smlabbne	r1, r2, r1, r0
    1a94:	01133101 	tsteq	r3, r1, lsl #2
    1a98:	1e000013 	mcrne	0, 0, r0, cr0, cr3, {0}
    1a9c:	193f012e 	ldmdbne	pc!, {r1, r2, r3, r5, r8}	; <UNPREDICTABLE>
    1aa0:	0b3a0e03 	bleq	e852b4 <__bss_end__+0xe7a3ac>
    1aa4:	0b390b3b 	bleq	e44798 <__bss_end__+0xe39890>
    1aa8:	0b201927 	bleq	807f4c <__bss_end__+0x7fd044>
    1aac:	00001301 	andeq	r1, r0, r1, lsl #6
    1ab0:	0300051f 	movweq	r0, #1311	; 0x51f
    1ab4:	3b0b3a08 	blcc	2d02dc <__bss_end__+0x2c53d4>
    1ab8:	490b390b 	stmdbmi	fp, {r0, r1, r3, r8, fp, ip, sp}
    1abc:	20000013 	andcs	r0, r0, r3, lsl r0
    1ac0:	0e030005 	cdpeq	0, 0, cr0, cr3, cr5, {0}
    1ac4:	0b3b0b3a 	bleq	ec47b4 <__bss_end__+0xeb98ac>
    1ac8:	13490b39 	movtne	r0, #39737	; 0x9b39
    1acc:	34210000 	strtcc	r0, [r1], #-0
    1ad0:	3a080300 	bcc	2026d8 <__bss_end__+0x1f77d0>
    1ad4:	390b3b0b 	stmdbcc	fp, {r0, r1, r3, r8, r9, fp, ip, sp}
    1ad8:	0013490b 	andseq	r4, r3, fp, lsl #18
    1adc:	012e2200 			; <UNDEFINED> instruction: 0x012e2200
    1ae0:	0b3a0e03 	bleq	e852f4 <__bss_end__+0xe7a3ec>
    1ae4:	0b390b3b 	bleq	e447d8 <__bss_end__+0xe398d0>
    1ae8:	13491927 	movtne	r1, #39207	; 0x9927
    1aec:	13010b20 	movwne	r0, #6944	; 0x1b20
    1af0:	2e230000 	cdpcs	0, 2, cr0, cr3, cr0, {0}
    1af4:	11133101 	tstne	r3, r1, lsl #2
    1af8:	40061201 	andmi	r1, r6, r1, lsl #4
    1afc:	19429718 	stmdbne	r2, {r3, r4, r8, r9, sl, ip, pc}^
    1b00:	00001301 	andeq	r1, r0, r1, lsl #6
    1b04:	3f002e24 	svccc	0x00002e24
    1b08:	6e193c19 	mrcvs	12, 0, r3, cr9, cr9, {0}
    1b0c:	3a0e030e 	bcc	38274c <__bss_end__+0x377844>
    1b10:	390b3b0b 	stmdbcc	fp, {r0, r1, r3, r8, r9, fp, ip, sp}
    1b14:	0000000b 	andeq	r0, r0, fp
    1b18:	25011101 	strcs	r1, [r1, #-257]	; 0xfffffeff
    1b1c:	030b130e 	movweq	r1, #45838	; 0xb30e
    1b20:	110e1b0e 	tstne	lr, lr, lsl #22
    1b24:	10061201 	andne	r1, r6, r1, lsl #4
    1b28:	02000017 	andeq	r0, r0, #23, 0
    1b2c:	0b0b0024 	bleq	2c1bc4 <__bss_end__+0x2b6cbc>
    1b30:	08030b3e 	stmdaeq	r3, {r1, r2, r3, r4, r5, r8, r9, fp}
    1b34:	24030000 	strcs	r0, [r3], #-0
    1b38:	3e0b0b00 	vmlacc.f64	d0, d11, d0
    1b3c:	000e030b 	andeq	r0, lr, fp, lsl #6
    1b40:	01150400 	tsteq	r5, r0, lsl #8
    1b44:	13491927 	movtne	r1, #39207	; 0x9927
    1b48:	00001301 	andeq	r1, r0, r1, lsl #6
    1b4c:	49000505 	stmdbmi	r0, {r0, r2, r8, sl}
    1b50:	06000013 			; <UNDEFINED> instruction: 0x06000013
    1b54:	0e030034 	mcreq	0, 0, r0, cr3, cr4, {1}
    1b58:	0b3b0b3a 	bleq	ec4848 <__bss_end__+0xeb9940>
    1b5c:	13490b39 	movtne	r0, #39737	; 0x9b39
    1b60:	193c193f 	ldmdbne	ip!, {r0, r1, r2, r3, r4, r5, r8, fp, ip}
    1b64:	0f070000 	svceq	0x00070000
    1b68:	490b0b00 	stmdbmi	fp, {r8, r9, fp}
    1b6c:	08000013 	stmdaeq	r0, {r0, r1, r4}
    1b70:	13490026 	movtne	r0, #36902	; 0x9026
    1b74:	34090000 	strcc	r0, [r9], #-0
    1b78:	3a134700 	bcc	4d3780 <__bss_end__+0x4c8878>
    1b7c:	390b3b0b 	stmdbcc	fp, {r0, r1, r3, r8, r9, fp, ip, sp}
    1b80:	0018020b 	andseq	r0, r8, fp, lsl #4
    1b84:	012e0a00 			; <UNDEFINED> instruction: 0x012e0a00
    1b88:	0e03193f 			; <UNDEFINED> instruction: 0x0e03193f
    1b8c:	0b3b0b3a 	bleq	ec487c <__bss_end__+0xeb9974>
    1b90:	19270b39 	stmdbne	r7!, {r0, r3, r4, r5, r8, r9, fp}
    1b94:	06120111 			; <UNDEFINED> instruction: 0x06120111
    1b98:	42971840 	addsmi	r1, r7, #64, 16	; 0x400000
    1b9c:	00130119 	andseq	r0, r3, r9, lsl r1
    1ba0:	00050b00 	andeq	r0, r5, r0, lsl #22
    1ba4:	0b3a0803 	bleq	e83bb8 <__bss_end__+0xe78cb0>
    1ba8:	0b390b3b 	bleq	e4489c <__bss_end__+0xe39994>
    1bac:	18021349 	stmdane	r2, {r0, r3, r6, r8, r9, ip}
    1bb0:	2e0c0000 	cdpcs	0, 0, cr0, cr12, cr0, {0}
    1bb4:	03193f00 	tsteq	r9, #0, 30
    1bb8:	3b0b3a0e 	blcc	2d03f8 <__bss_end__+0x2c54f0>
    1bbc:	270b390b 	strcs	r3, [fp, -fp, lsl #18]
    1bc0:	12011119 	andne	r1, r1, #1073741830	; 0x40000006
    1bc4:	97184006 	ldrls	r4, [r8, -r6]
    1bc8:	00001942 	andeq	r1, r0, r2, asr #18
    1bcc:	03012e0d 	movweq	r2, #7693	; 0x1e0d
    1bd0:	3b0b3a0e 	blcc	2d0410 <__bss_end__+0x2c5508>
    1bd4:	270b390b 	strcs	r3, [fp, -fp, lsl #18]
    1bd8:	11134919 	tstne	r3, r9, lsl r9
    1bdc:	40061201 	andmi	r1, r6, r1, lsl #4
    1be0:	19429718 	stmdbne	r2, {r3, r4, r8, r9, sl, ip, pc}^
    1be4:	00001301 	andeq	r1, r0, r1, lsl #6
    1be8:	0300050e 	movweq	r0, #1294	; 0x50e
    1bec:	3b0b3a08 	blcc	2d0414 <__bss_end__+0x2c550c>
    1bf0:	490b390b 	stmdbmi	fp, {r0, r1, r3, r8, fp, ip, sp}
    1bf4:	b7170213 			; <UNDEFINED> instruction: 0xb7170213
    1bf8:	00001742 	andeq	r1, r0, r2, asr #14
    1bfc:	0182890f 	orreq	r8, r2, pc, lsl #18
    1c00:	31011101 	tstcc	r1, r1, lsl #2
    1c04:	10000013 	andne	r0, r0, r3, lsl r0
    1c08:	0001828a 	andeq	r8, r1, sl, lsl #5
    1c0c:	42911802 	addsmi	r1, r1, #131072	; 0x20000
    1c10:	11000018 	tstne	r0, r8, lsl r0
    1c14:	193f002e 	ldmdbne	pc!, {r1, r2, r3, r5}	; <UNPREDICTABLE>
    1c18:	0e6e193c 			; <UNDEFINED> instruction: 0x0e6e193c
    1c1c:	0b3a0e03 	bleq	e85430 <__bss_end__+0xe7a528>
    1c20:	0b390b3b 	bleq	e44914 <__bss_end__+0xe39a0c>
    1c24:	01000000 	mrseq	r0, (UNDEF: 0)
    1c28:	0e250111 	mcreq	1, 1, r0, cr5, cr1, {0}
    1c2c:	0e030b13 	vmoveq.32	d3[0], r0
    1c30:	01110e1b 	tsteq	r1, fp, lsl lr
    1c34:	17100612 			; <UNDEFINED> instruction: 0x17100612
    1c38:	24020000 	strcs	r0, [r2], #-0
    1c3c:	3e0b0b00 	vmlacc.f64	d0, d11, d0
    1c40:	0008030b 	andeq	r0, r8, fp, lsl #6
    1c44:	00240300 	eoreq	r0, r4, r0, lsl #6
    1c48:	0b3e0b0b 	bleq	f8487c <__bss_end__+0xf79974>
    1c4c:	00000e03 	andeq	r0, r0, r3, lsl #28
    1c50:	27011504 	strcs	r1, [r1, -r4, lsl #10]
    1c54:	01134919 	tsteq	r3, r9, lsl r9
    1c58:	05000013 	streq	r0, [r0, #-19]	; 0xffffffed
    1c5c:	13490005 	movtne	r0, #36869	; 0x9005
    1c60:	34060000 	strcc	r0, [r6], #-0
    1c64:	3a0e0300 	bcc	38286c <__bss_end__+0x377964>
    1c68:	390b3b0b 	stmdbcc	fp, {r0, r1, r3, r8, r9, fp, ip, sp}
    1c6c:	3f13490b 	svccc	0x0013490b
    1c70:	00193c19 	andseq	r3, r9, r9, lsl ip
    1c74:	000f0700 	andeq	r0, pc, r0, lsl #14
    1c78:	13490b0b 	movtne	r0, #39691	; 0x9b0b
    1c7c:	26080000 	strcs	r0, [r8], -r0
    1c80:	00134900 	andseq	r4, r3, r0, lsl #18
    1c84:	012e0900 			; <UNDEFINED> instruction: 0x012e0900
    1c88:	0e03193f 			; <UNDEFINED> instruction: 0x0e03193f
    1c8c:	0b3b0b3a 	bleq	ec497c <__bss_end__+0xeb9a74>
    1c90:	19270b39 	stmdbne	r7!, {r0, r3, r4, r5, r8, r9, fp}
    1c94:	01111349 	tsteq	r1, r9, asr #6
    1c98:	18400612 	stmdane	r0, {r1, r4, r9, sl}^
    1c9c:	01194297 			; <UNDEFINED> instruction: 0x01194297
    1ca0:	0a000013 	beq	1cf4 <__code_start__-0x630c>
    1ca4:	0e030005 	cdpeq	0, 0, cr0, cr3, cr5, {0}
    1ca8:	0b3b0b3a 	bleq	ec4998 <__bss_end__+0xeb9a90>
    1cac:	13490b39 	movtne	r0, #39737	; 0x9b39
    1cb0:	00001802 	andeq	r1, r0, r2, lsl #16
    1cb4:	0300050b 	movweq	r0, #1291	; 0x50b
    1cb8:	3b0b3a08 	blcc	2d04e0 <__bss_end__+0x2c55d8>
    1cbc:	490b390b 	stmdbmi	fp, {r0, r1, r3, r8, fp, ip, sp}
    1cc0:	b7170213 			; <UNDEFINED> instruction: 0xb7170213
    1cc4:	00001742 	andeq	r1, r0, r2, asr #14
    1cc8:	0300340c 	movweq	r3, #1036	; 0x40c
    1ccc:	3b0b3a08 	blcc	2d04f4 <__bss_end__+0x2c55ec>
    1cd0:	490b390b 	stmdbmi	fp, {r0, r1, r3, r8, fp, ip, sp}
    1cd4:	b7170213 			; <UNDEFINED> instruction: 0xb7170213
    1cd8:	00001742 	andeq	r1, r0, r2, asr #14
    1cdc:	01110100 	tsteq	r1, r0, lsl #2
    1ce0:	0b130e25 	bleq	4c557c <__bss_end__+0x4ba674>
    1ce4:	0e1b0e03 	cdpeq	14, 1, cr0, cr11, cr3, {0}
    1ce8:	06120111 			; <UNDEFINED> instruction: 0x06120111
    1cec:	00001710 	andeq	r1, r0, r0, lsl r7
    1cf0:	0b002402 	bleq	ad00 <buf.3944+0x1fc>
    1cf4:	030b3e0b 	movweq	r3, #48651	; 0xbe0b
    1cf8:	03000008 	movweq	r0, #8
    1cfc:	0b0b0024 	bleq	2c1d94 <__bss_end__+0x2b6e8c>
    1d00:	0e030b3e 	vmoveq.16	d3[0], r0
    1d04:	15040000 	strne	r0, [r4, #-0]
    1d08:	49192701 	ldmdbmi	r9, {r0, r8, r9, sl, sp}
    1d0c:	00130113 	andseq	r0, r3, r3, lsl r1
    1d10:	00050500 	andeq	r0, r5, r0, lsl #10
    1d14:	00001349 	andeq	r1, r0, r9, asr #6
    1d18:	03003406 	movweq	r3, #1030	; 0x406
    1d1c:	3b0b3a0e 	blcc	2d055c <__bss_end__+0x2c5654>
    1d20:	490b390b 	stmdbmi	fp, {r0, r1, r3, r8, fp, ip, sp}
    1d24:	3c193f13 	ldccc	15, cr3, [r9], {19}
    1d28:	07000019 	smladeq	r0, r9, r0, r0
    1d2c:	0b0b000f 	bleq	2c1d70 <__bss_end__+0x2b6e68>
    1d30:	00001349 	andeq	r1, r0, r9, asr #6
    1d34:	49002608 	stmdbmi	r0, {r3, r9, sl, sp}
    1d38:	09000013 	stmdbeq	r0, {r0, r1, r4}
    1d3c:	193f012e 	ldmdbne	pc!, {r1, r2, r3, r5, r8}	; <UNPREDICTABLE>
    1d40:	0b3a0e03 	bleq	e85554 <__bss_end__+0xe7a64c>
    1d44:	0b390b3b 	bleq	e44a38 <__bss_end__+0xe39b30>
    1d48:	13491927 	movtne	r1, #39207	; 0x9927
    1d4c:	06120111 			; <UNDEFINED> instruction: 0x06120111
    1d50:	42971840 	addsmi	r1, r7, #64, 16	; 0x400000
    1d54:	0a000019 	beq	1dc0 <__code_start__-0x6240>
    1d58:	08030005 	stmdaeq	r3, {r0, r2}
    1d5c:	0b3b0b3a 	bleq	ec4a4c <__bss_end__+0xeb9b44>
    1d60:	13490b39 	movtne	r0, #39737	; 0x9b39
    1d64:	42b71702 	adcsmi	r1, r7, #524288	; 0x80000
    1d68:	00000017 	andeq	r0, r0, r7, lsl r0
    1d6c:	25011101 	strcs	r1, [r1, #-257]	; 0xfffffeff
    1d70:	030b130e 	movweq	r1, #45838	; 0xb30e
    1d74:	110e1b0e 	tstne	lr, lr, lsl #22
    1d78:	10061201 	andne	r1, r6, r1, lsl #4
    1d7c:	02000017 	andeq	r0, r0, #23, 0
    1d80:	0b0b0024 	bleq	2c1e18 <__bss_end__+0x2b6f10>
    1d84:	08030b3e 	stmdaeq	r3, {r1, r2, r3, r4, r5, r8, r9, fp}
    1d88:	24030000 	strcs	r0, [r3], #-0
    1d8c:	3e0b0b00 	vmlacc.f64	d0, d11, d0
    1d90:	000e030b 	andeq	r0, lr, fp, lsl #6
    1d94:	01150400 	tsteq	r5, r0, lsl #8
    1d98:	13491927 	movtne	r1, #39207	; 0x9927
    1d9c:	00001301 	andeq	r1, r0, r1, lsl #6
    1da0:	49000505 	stmdbmi	r0, {r0, r2, r8, sl}
    1da4:	06000013 			; <UNDEFINED> instruction: 0x06000013
    1da8:	0e030034 	mcreq	0, 0, r0, cr3, cr4, {1}
    1dac:	0b3b0b3a 	bleq	ec4a9c <__bss_end__+0xeb9b94>
    1db0:	13490b39 	movtne	r0, #39737	; 0x9b39
    1db4:	193c193f 	ldmdbne	ip!, {r0, r1, r2, r3, r4, r5, r8, fp, ip}
    1db8:	0f070000 	svceq	0x00070000
    1dbc:	490b0b00 	stmdbmi	fp, {r8, r9, fp}
    1dc0:	08000013 	stmdaeq	r0, {r0, r1, r4}
    1dc4:	13490026 	movtne	r0, #36902	; 0x9026
    1dc8:	2e090000 	cdpcs	0, 0, cr0, cr9, cr0, {0}
    1dcc:	03193f01 	tsteq	r9, #1, 30
    1dd0:	3b0b3a0e 	blcc	2d0610 <__bss_end__+0x2c5708>
    1dd4:	270b390b 	strcs	r3, [fp, -fp, lsl #18]
    1dd8:	11134919 	tstne	r3, r9, lsl r9
    1ddc:	40061201 	andmi	r1, r6, r1, lsl #4
    1de0:	19429718 	stmdbne	r2, {r3, r4, r8, r9, sl, ip, pc}^
    1de4:	00001301 	andeq	r1, r0, r1, lsl #6
    1de8:	0300050a 	movweq	r0, #1290	; 0x50a
    1dec:	3b0b3a08 	blcc	2d0614 <__bss_end__+0x2c570c>
    1df0:	490b390b 	stmdbmi	fp, {r0, r1, r3, r8, fp, ip, sp}
    1df4:	00180213 	andseq	r0, r8, r3, lsl r2
    1df8:	00050b00 	andeq	r0, r5, r0, lsl #22
    1dfc:	0b3a0803 	bleq	e83e10 <__bss_end__+0xe78f08>
    1e00:	0b390b3b 	bleq	e44af4 <__bss_end__+0xe39bec>
    1e04:	17021349 	strne	r1, [r2, -r9, asr #6]
    1e08:	001742b7 			; <UNDEFINED> instruction: 0x001742b7
    1e0c:	00340c00 	eorseq	r0, r4, r0, lsl #24
    1e10:	0b3a0803 	bleq	e83e24 <__bss_end__+0xe78f1c>
    1e14:	0b390b3b 	bleq	e44b08 <__bss_end__+0xe39c00>
    1e18:	17021349 	strne	r1, [r2, -r9, asr #6]
    1e1c:	001742b7 			; <UNDEFINED> instruction: 0x001742b7
    1e20:	11010000 	mrsne	r0, (UNDEF: 1)
    1e24:	130e2501 	movwne	r2, #58625	; 0xe501
    1e28:	1b0e030b 	blne	382a5c <__bss_end__+0x377b54>
    1e2c:	1201110e 	andne	r1, r1, #-2147483645	; 0x80000003
    1e30:	00171006 	andseq	r1, r7, r6
    1e34:	00240200 	eoreq	r0, r4, r0, lsl #4
    1e38:	0b3e0b0b 	bleq	f84a6c <__bss_end__+0xf79b64>
    1e3c:	00000803 	andeq	r0, r0, r3, lsl #16
    1e40:	03001603 	movweq	r1, #1539	; 0x603
    1e44:	3b0b3a0e 	blcc	2d0684 <__bss_end__+0x2c577c>
    1e48:	490b390b 	stmdbmi	fp, {r0, r1, r3, r8, fp, ip, sp}
    1e4c:	04000013 	streq	r0, [r0], #-19	; 0xffffffed
    1e50:	0b0b0024 	bleq	2c1ee8 <__bss_end__+0x2b6fe0>
    1e54:	0e030b3e 	vmoveq.16	d3[0], r0
    1e58:	26050000 	strcs	r0, [r5], -r0
    1e5c:	00134900 	andseq	r4, r3, r0, lsl #18
    1e60:	01150600 	tsteq	r5, r0, lsl #12
    1e64:	13491927 	movtne	r1, #39207	; 0x9927
    1e68:	00001301 	andeq	r1, r0, r1, lsl #6
    1e6c:	49000507 	stmdbmi	r0, {r0, r1, r2, r8, sl}
    1e70:	08000013 	stmdaeq	r0, {r0, r1, r4}
    1e74:	0e030034 	mcreq	0, 0, r0, cr3, cr4, {1}
    1e78:	0b3b0b3a 	bleq	ec4b68 <__bss_end__+0xeb9c60>
    1e7c:	13490b39 	movtne	r0, #39737	; 0x9b39
    1e80:	193c193f 	ldmdbne	ip!, {r0, r1, r2, r3, r4, r5, r8, fp, ip}
    1e84:	0f090000 	svceq	0x00090000
    1e88:	490b0b00 	stmdbmi	fp, {r8, r9, fp}
    1e8c:	0a000013 	beq	1ee0 <__code_start__-0x6120>
    1e90:	193f012e 	ldmdbne	pc!, {r1, r2, r3, r5, r8}	; <UNPREDICTABLE>
    1e94:	0b3a0e03 	bleq	e856a8 <__bss_end__+0xe7a7a0>
    1e98:	0b390b3b 	bleq	e44b8c <__bss_end__+0xe39c84>
    1e9c:	13491927 	movtne	r1, #39207	; 0x9927
    1ea0:	06120111 			; <UNDEFINED> instruction: 0x06120111
    1ea4:	42971840 	addsmi	r1, r7, #64, 16	; 0x400000
    1ea8:	00130119 	andseq	r0, r3, r9, lsl r1
    1eac:	00050b00 	andeq	r0, r5, r0, lsl #22
    1eb0:	0b3a0803 	bleq	e83ec4 <__bss_end__+0xe78fbc>
    1eb4:	0b390b3b 	bleq	e44ba8 <__bss_end__+0xe39ca0>
    1eb8:	17021349 	strne	r1, [r2, -r9, asr #6]
    1ebc:	001742b7 			; <UNDEFINED> instruction: 0x001742b7
    1ec0:	00340c00 	eorseq	r0, r4, r0, lsl #24
    1ec4:	0b3a0803 	bleq	e83ed8 <__bss_end__+0xe78fd0>
    1ec8:	0b390b3b 	bleq	e44bbc <__bss_end__+0xe39cb4>
    1ecc:	17021349 	strne	r1, [r2, -r9, asr #6]
    1ed0:	001742b7 			; <UNDEFINED> instruction: 0x001742b7
    1ed4:	11010000 	mrsne	r0, (UNDEF: 1)
    1ed8:	130e2501 	movwne	r2, #58625	; 0xe501
    1edc:	1b0e030b 	blne	382b10 <__bss_end__+0x377c08>
    1ee0:	1201110e 	andne	r1, r1, #-2147483645	; 0x80000003
    1ee4:	00171006 	andseq	r1, r7, r6
    1ee8:	00240200 	eoreq	r0, r4, r0, lsl #4
    1eec:	0b3e0b0b 	bleq	f84b20 <__bss_end__+0xf79c18>
    1ef0:	00000803 	andeq	r0, r0, r3, lsl #16
    1ef4:	0b002403 	bleq	af08 <__bss_end__>
    1ef8:	030b3e0b 	movweq	r3, #48651	; 0xbe0b
    1efc:	0400000e 	streq	r0, [r0], #-14
    1f00:	19270115 	stmdbne	r7!, {r0, r2, r4, r8}
    1f04:	13011349 	movwne	r1, #4937	; 0x1349
    1f08:	05050000 	streq	r0, [r5, #-0]
    1f0c:	00134900 	andseq	r4, r3, r0, lsl #18
    1f10:	00340600 	eorseq	r0, r4, r0, lsl #12
    1f14:	0b3a0e03 	bleq	e85728 <__bss_end__+0xe7a820>
    1f18:	0b390b3b 	bleq	e44c0c <__bss_end__+0xe39d04>
    1f1c:	193f1349 	ldmdbne	pc!, {r0, r3, r6, r8, r9, ip}	; <UNPREDICTABLE>
    1f20:	0000193c 	andeq	r1, r0, ip, lsr r9
    1f24:	0b000f07 	bleq	5b48 <__code_start__-0x24b8>
    1f28:	0013490b 	andseq	r4, r3, fp, lsl #18
    1f2c:	00260800 	eoreq	r0, r6, r0, lsl #16
    1f30:	00001349 	andeq	r1, r0, r9, asr #6
    1f34:	3f002e09 	svccc	0x00002e09
    1f38:	3a0e0319 	bcc	382ba4 <__bss_end__+0x377c9c>
    1f3c:	390b3b0b 	stmdbcc	fp, {r0, r1, r3, r8, r9, fp, ip, sp}
    1f40:	1119270b 	tstne	r9, fp, lsl #14
    1f44:	40061201 	andmi	r1, r6, r1, lsl #4
    1f48:	19429718 	stmdbne	r2, {r3, r4, r8, r9, sl, ip, pc}^
    1f4c:	Address 0x0000000000001f4c is out of bounds.


Disassembly of section .debug_loc:

00000000 <.debug_loc>:
       0:	00000000 	andeq	r0, r0, r0
       4:	000000f4 	strdeq	r0, [r0], -r4
       8:	000000f8 	strdeq	r0, [r0], -r8
       c:	f8500001 			; <UNDEFINED> instruction: 0xf8500001
      10:	ff000000 			; <UNDEFINED> instruction: 0xff000000
      14:	01000000 	mrseq	r0, (UNDEF: 0)
      18:	00005200 	andeq	r5, r0, r0, lsl #4
      1c:	00000000 	andeq	r0, r0, r0
      20:	05020000 	streq	r0, [r2, #-0]
      24:	000000f4 	strdeq	r0, [r0], -r4
      28:	000000f4 	strdeq	r0, [r0], -r4
      2c:	00500001 	subseq	r0, r0, r1
      30:	00000000 	andeq	r0, r0, r0
      34:	04000000 	streq	r0, [r0], #-0
      38:	f4000000 	vst4.8	{d0-d3}, [r0], r0
      3c:	f8000000 			; <UNDEFINED> instruction: 0xf8000000
      40:	01000000 	mrseq	r0, (UNDEF: 0)
      44:	00f85000 	rscseq	r5, r8, r0
      48:	00ff0000 	rscseq	r0, pc, r0
      4c:	00010000 	andeq	r0, r1, r0
      50:	00000052 	andeq	r0, r0, r2, asr r0
      54:	00000000 	andeq	r0, r0, r0
      58:	00000200 	andeq	r0, r0, r0, lsl #4
      5c:	00000100 	andeq	r0, r0, r0, lsl #2
      60:	50000000 	andpl	r0, r0, r0
      64:	02000000 	andeq	r0, r0, #0, 0
      68:	509f3000 	addspl	r3, pc, r0
      6c:	94000000 	strls	r0, [r0], #-0
      70:	01000000 	mrseq	r0, (UNDEF: 0)
      74:	00945500 	addseq	r5, r4, r0, lsl #10
      78:	00dc0000 	sbcseq	r0, ip, r0
      7c:	00010000 	andeq	r0, r1, r0
      80:	00000055 	andeq	r0, r0, r5, asr r0
      84:	00000000 	andeq	r0, r0, r0
      88:	00000400 	andeq	r0, r0, r0, lsl #8
      8c:	50000000 	andpl	r0, r0, r0
      90:	02000000 	andeq	r0, r0, #0, 0
      94:	009f3000 	addseq	r3, pc, r0
	...
      a8:	38000000 	stmdacc	r0, {}	; <UNPREDICTABLE>
      ac:	43000000 	movwmi	r0, #0
      b0:	01000000 	mrseq	r0, (UNDEF: 0)
      b4:	00435000 	subeq	r5, r3, r0
      b8:	006c0000 	rsbeq	r0, ip, r0
      bc:	00010000 	andeq	r0, r1, r0
      c0:	00006c55 	andeq	r6, r0, r5, asr ip
      c4:	00007700 	andeq	r7, r0, r0, lsl #14
      c8:	50000100 	andpl	r0, r0, r0, lsl #2
      cc:	00000077 	andeq	r0, r0, r7, ror r0
      d0:	00000094 	muleq	r0, r4, r0
      d4:	94540001 	ldrbls	r0, [r4], #-1
      d8:	ac000000 	stcge	0, cr0, [r0], {-0}
      dc:	01000000 	mrseq	r0, (UNDEF: 0)
      e0:	00ac5500 	adceq	r5, ip, r0, lsl #10
      e4:	00dc0000 	sbcseq	r0, ip, r0
      e8:	00010000 	andeq	r0, r1, r0
      ec:	00000054 	andeq	r0, r0, r4, asr r0
      f0:	00000000 	andeq	r0, r0, r0
      f4:	01000600 	tsteq	r0, r0, lsl #12
      f8:	00000000 	andeq	r0, r0, r0
      fc:	00001800 	andeq	r1, r0, r0, lsl #16
     100:	40000200 	andmi	r0, r0, r0, lsl #4
     104:	0000509f 	muleq	r0, pc, r0	; <UNPREDICTABLE>
     108:	00005c00 	andeq	r5, r0, r0, lsl #24
     10c:	40000200 	andmi	r0, r0, r0, lsl #4
     110:	0000009f 	muleq	r0, pc, r0	; <UNPREDICTABLE>
     114:	00000000 	andeq	r0, r0, r0
     118:	01000600 	tsteq	r0, r0, lsl #12
     11c:	00000000 	andeq	r0, r0, r0
     120:	00001800 	andeq	r1, r0, r0, lsl #16
     124:	f2000600 	vmax.s8	d0, d0, d0
     128:	000004ef 	andeq	r0, r0, pc, ror #9
     12c:	00005000 	andeq	r5, r0, r0
     130:	00005c00 	andeq	r5, r0, r0, lsl #24
     134:	f2000600 	vmax.s8	d0, d0, d0
     138:	000004ef 	andeq	r0, r0, pc, ror #9
	...
     144:	01000600 	tsteq	r0, r0, lsl #12
     148:	00000000 	andeq	r0, r0, r0
     14c:	00001800 	andeq	r1, r0, r0, lsl #16
     150:	03000600 	movweq	r0, #1536	; 0x600
     154:	0000a1e8 	andeq	sl, r0, r8, ror #3
     158:	0000509f 	muleq	r0, pc, r0	; <UNPREDICTABLE>
     15c:	00005c00 	andeq	r5, r0, r0, lsl #24
     160:	03000600 	movweq	r0, #1536	; 0x600
     164:	0000a1e8 	andeq	sl, r0, r8, ror #3
     168:	0000009f 	muleq	r0, pc, r0	; <UNPREDICTABLE>
	...
     174:	f8000000 			; <UNDEFINED> instruction: 0xf8000000
     178:	08000002 	stmdaeq	r0, {r1}
     17c:	01000003 	tsteq	r0, r3
     180:	03085000 	movweq	r5, #32768	; 0x8000
     184:	03b00000 	movseq	r0, #0, 0
     188:	00010000 	andeq	r0, r1, r0
     18c:	0003b055 	andeq	fp, r3, r5, asr r0
     190:	0003bc00 	andeq	fp, r3, r0, lsl #24
     194:	f3000400 	vshl.u8	d0, d0, d0
     198:	009f5001 	addseq	r5, pc, r1
	...
     1a8:	00031800 	andeq	r1, r3, r0, lsl #16
     1ac:	00032300 	andeq	r2, r3, r0, lsl #6
     1b0:	50000100 	andpl	r0, r0, r0, lsl #2
     1b4:	00000323 	andeq	r0, r0, r3, lsr #6
     1b8:	000003b0 			; <UNDEFINED> instruction: 0x000003b0
     1bc:	b0540001 	subslt	r0, r4, r1
     1c0:	bc000003 	stclt	0, cr0, [r0], {3}
     1c4:	05000003 	streq	r0, [r0, #-3]
     1c8:	aae00300 	bge	ff800dd0 <__bss_end__+0xff7f5ec8>
	...
     1d4:	00020000 	andeq	r0, r2, r0
     1d8:	03240000 			; <UNDEFINED> instruction: 0x03240000
     1dc:	03280000 			; <UNDEFINED> instruction: 0x03280000
     1e0:	00020000 	andeq	r0, r2, r0
     1e4:	03289f30 			; <UNDEFINED> instruction: 0x03289f30
     1e8:	03580000 	cmpeq	r8, #0, 0
     1ec:	00010000 	andeq	r0, r1, r0
     1f0:	00000053 	andeq	r0, r0, r3, asr r0
	...
     1fc:	00016c00 	andeq	r6, r1, r0, lsl #24
     200:	00017c00 	andeq	r7, r1, r0, lsl #24
     204:	50000100 	andpl	r0, r0, r0, lsl #2
     208:	0000017c 	andeq	r0, r0, ip, ror r1
     20c:	000002f8 	strdeq	r0, [r0], -r8
     210:	00550001 	subseq	r0, r5, r1
     214:	00000000 	andeq	r0, r0, r0
     218:	01000000 	mrseq	r0, (UNDEF: 0)
     21c:	00000202 	andeq	r0, r0, r2, lsl #4
     220:	00000000 	andeq	r0, r0, r0
     224:	00018000 	andeq	r8, r1, r0
     228:	00018000 	andeq	r8, r1, r0
     22c:	55000100 	strpl	r0, [r0, #-256]	; 0xffffff00
     230:	00000180 	andeq	r0, r0, r0, lsl #3
     234:	000001bc 			; <UNDEFINED> instruction: 0x000001bc
     238:	d8750004 	ldmdale	r5!, {r2}^
     23c:	01bc9f7e 			; <UNDEFINED> instruction: 0x01bc9f7e
     240:	01f40000 	mvnseq	r0, r0
     244:	00010000 	andeq	r0, r1, r0
     248:	0001f459 	andeq	pc, r1, r9, asr r4	; <UNPREDICTABLE>
     24c:	00021800 	andeq	r1, r2, r0, lsl #16
     250:	75000400 	strvc	r0, [r0, #-1024]	; 0xfffffc00
     254:	189f7ed8 	ldmne	pc, {r3, r4, r6, r7, r9, sl, fp, ip, sp, lr}	; <UNPREDICTABLE>
     258:	f8000002 			; <UNDEFINED> instruction: 0xf8000002
     25c:	01000002 	tsteq	r0, r2
     260:	00005900 	andeq	r5, r0, r0, lsl #18
	...
     270:	000001c0 	andeq	r0, r0, r0, asr #3
     274:	000001f4 	strdeq	r0, [r0], -r4
     278:	18540001 	ldmdane	r4, {r0}^
     27c:	30000002 	andcc	r0, r0, r2
     280:	01000002 	tsteq	r0, r2
     284:	02445400 	subeq	r5, r4, #0, 8
     288:	02f80000 	rscseq	r0, r8, #0, 0
     28c:	00010000 	andeq	r0, r1, r0
     290:	00000054 	andeq	r0, r0, r4, asr r0
     294:	00000000 	andeq	r0, r0, r0
     298:	68000000 	stmdavs	r0, {}	; <UNPREDICTABLE>
     29c:	84000002 	strhi	r0, [r0], #-2
     2a0:	01000002 	tsteq	r0, r2
     2a4:	00005300 	andeq	r5, r0, r0, lsl #6
	...
     2bc:	00000020 	andeq	r0, r0, r0, lsr #32
     2c0:	00000038 	andeq	r0, r0, r8, lsr r0
     2c4:	38500001 	ldmdacc	r0, {r0}^
     2c8:	40000000 	andmi	r0, r0, r0
     2cc:	01000000 	mrseq	r0, (UNDEF: 0)
     2d0:	00405300 	subeq	r5, r0, r0, lsl #6
     2d4:	00680000 	rsbeq	r0, r8, r0
     2d8:	00040000 	andeq	r0, r4, r0
     2dc:	9f5001f3 	svcls	0x005001f3
     2e0:	00000068 	andeq	r0, r0, r8, rrx
     2e4:	00000080 	andeq	r0, r0, r0, lsl #1
     2e8:	80500001 	subshi	r0, r0, r1
     2ec:	88000000 	stmdahi	r0, {}	; <UNPREDICTABLE>
     2f0:	04000000 	streq	r0, [r0], #-0
     2f4:	5001f300 	andpl	pc, r1, r0, lsl #6
     2f8:	0000889f 	muleq	r0, pc, r8	; <UNPREDICTABLE>
     2fc:	00009400 	andeq	r9, r0, r0, lsl #8
     300:	53000100 	movwpl	r0, #256	; 0x100
     304:	00000094 	muleq	r0, r4, r0
     308:	000000c4 	andeq	r0, r0, r4, asr #1
     30c:	01f30004 	mvnseq	r0, r4
     310:	00009f50 	andeq	r9, r0, r0, asr pc
	...
     324:	00200000 	eoreq	r0, r0, r0
     328:	00400000 	subeq	r0, r0, r0
     32c:	00010000 	andeq	r0, r1, r0
     330:	00004051 	andeq	r4, r0, r1, asr r0
     334:	00006800 	andeq	r6, r0, r0, lsl #16
     338:	54000100 	strpl	r0, [r0], #-256	; 0xffffff00
     33c:	00000068 	andeq	r0, r0, r8, rrx
     340:	0000007c 	andeq	r0, r0, ip, ror r0
     344:	7c510001 	mrrcvc	0, 0, r0, r1, cr1
     348:	88000000 	stmdahi	r0, {}	; <UNPREDICTABLE>
     34c:	04000000 	streq	r0, [r0], #-0
     350:	5101f300 	mrspl	pc, SP_irq	; <UNPREDICTABLE>
     354:	0000889f 	muleq	r0, pc, r8	; <UNPREDICTABLE>
     358:	00009400 	andeq	r9, r0, r0, lsl #8
     35c:	51000100 	mrspl	r0, (UNDEF: 16)
     360:	00000094 	muleq	r0, r4, r0
     364:	000000c4 	andeq	r0, r0, r4, asr #1
     368:	00540001 	subseq	r0, r4, r1
	...
     374:	00010000 	andeq	r0, r1, r0
     378:	38000000 	stmdacc	r0, {}	; <UNPREDICTABLE>
     37c:	47000000 	strmi	r0, [r0, -r0]
     380:	01000000 	mrseq	r0, (UNDEF: 0)
     384:	00475000 	subeq	r5, r7, r0
     388:	00600000 	rsbeq	r0, r0, r0
     38c:	00010000 	andeq	r0, r1, r0
     390:	00008855 	andeq	r8, r0, r5, asr r8
     394:	00009400 	andeq	r9, r0, r0, lsl #8
     398:	50000100 	andpl	r0, r0, r0, lsl #2
     39c:	00000094 	muleq	r0, r4, r0
     3a0:	000000c4 	andeq	r0, r0, r4, asr #1
     3a4:	00550001 	subseq	r0, r5, r1
	...
     3b0:	48000001 	stmdami	r0, {r0}
     3b4:	60000000 	andvs	r0, r0, r0
     3b8:	01000000 	mrseq	r0, (UNDEF: 0)
     3bc:	00945000 	addseq	r5, r4, r0
     3c0:	00a80000 	adceq	r0, r8, r0
     3c4:	00010000 	andeq	r0, r1, r0
     3c8:	00000050 	andeq	r0, r0, r0, asr r0
	...
     3d4:	00011400 	andeq	r1, r1, r0, lsl #8
     3d8:	00011f00 	andeq	r1, r1, r0, lsl #30
     3dc:	50000100 	andpl	r0, r0, r0, lsl #2
     3e0:	0000011f 	andeq	r0, r0, pc, lsl r1
     3e4:	0000016c 	andeq	r0, r0, ip, ror #2
     3e8:	00550001 	subseq	r0, r5, r1
	...
     3f8:	24000000 	strcs	r0, [r0], #-0
     3fc:	37000001 	strcc	r0, [r0, -r1]
     400:	01000001 	tsteq	r0, r1
     404:	01375000 	teqeq	r7, r0
     408:	014c0000 	mrseq	r0, (UNDEF: 76)
     40c:	00010000 	andeq	r0, r1, r0
     410:	00014c54 	andeq	r4, r1, r4, asr ip
     414:	00015000 	andeq	r5, r1, r0
     418:	50000100 	andpl	r0, r0, r0, lsl #2
     41c:	00000150 	andeq	r0, r0, r0, asr r1
     420:	0000016c 	andeq	r0, r0, ip, ror #2
     424:	00540001 	subseq	r0, r4, r1
	...
     430:	e4000000 	str	r0, [r0], #-0
     434:	f3000000 	vhadd.u8	d0, d0, d0
     438:	01000000 	mrseq	r0, (UNDEF: 0)
     43c:	00f35000 	rscseq	r5, r3, r0
     440:	01140000 	tsteq	r4, r0
     444:	00010000 	andeq	r0, r1, r0
     448:	00000056 	andeq	r0, r0, r6, asr r0
	...
     454:	0000e400 	andeq	lr, r0, r0, lsl #8
     458:	0000f300 	andeq	pc, r0, r0, lsl #6
     45c:	51000100 	mrspl	r0, (UNDEF: 16)
     460:	000000f3 	strdeq	r0, [r0], -r3
     464:	00000114 	andeq	r0, r0, r4, lsl r1
     468:	00540001 	subseq	r0, r4, r1
	...
     474:	f8000000 			; <UNDEFINED> instruction: 0xf8000000
     478:	fc000000 	stc2	0, cr0, [r0], {-0}
     47c:	01000000 	mrseq	r0, (UNDEF: 0)
     480:	00fc5000 	rscseq	r5, ip, r0
     484:	01140000 	tsteq	r4, r0
     488:	00010000 	andeq	r0, r1, r0
     48c:	00000055 	andeq	r0, r0, r5, asr r0
	...
     498:	0c000001 	stceq	0, cr0, [r0], {1}
     49c:	01000001 	tsteq	r0, r1
     4a0:	00005000 	andeq	r5, r0, r0
	...
     4ac:	00cc0000 	sbceq	r0, ip, r0
     4b0:	00d70000 	sbcseq	r0, r7, r0
     4b4:	00010000 	andeq	r0, r1, r0
     4b8:	0000d750 	andeq	sp, r0, r0, asr r7
     4bc:	0000e400 	andeq	lr, r0, r0, lsl #8
     4c0:	54000100 	strpl	r0, [r0], #-256	; 0xffffff00
	...
     4cc:	00d80000 	sbcseq	r0, r8, r0
     4d0:	00dc0000 	sbcseq	r0, ip, r0
     4d4:	00010000 	andeq	r0, r1, r0
     4d8:	00000054 	andeq	r0, r0, r4, asr r0
	...
     4e4:	0000c400 	andeq	ip, r0, r0, lsl #8
     4e8:	0000c800 	andeq	ip, r0, r0, lsl #16
     4ec:	50000100 	andpl	r0, r0, r0, lsl #2
     4f0:	000000c8 	andeq	r0, r0, r8, asr #1
     4f4:	000000cc 	andeq	r0, r0, ip, asr #1
     4f8:	d8700004 	ldmdale	r0!, {r2}^
     4fc:	00009f7e 	andeq	r9, r0, lr, ror pc
	...
     508:	00100000 	andseq	r0, r0, r0
     50c:	001c0000 	andseq	r0, ip, r0
     510:	00010000 	andeq	r0, r1, r0
     514:	00001c50 	andeq	r1, r0, r0, asr ip
     518:	00002000 	andeq	r2, r0, r0
     51c:	f3000400 	vshl.u8	d0, d0, d0
     520:	009f5001 	addseq	r5, pc, r1
	...
     534:	00006c00 	andeq	r6, r0, r0, lsl #24
     538:	50000100 	andpl	r0, r0, r0, lsl #2
     53c:	0000006c 	andeq	r0, r0, ip, rrx
     540:	00000074 	andeq	r0, r0, r4, ror r0
     544:	08710003 	ldmdaeq	r1!, {r0, r1}^
     548:	0000749f 	muleq	r0, pc, r4	; <UNPREDICTABLE>
     54c:	00008800 	andeq	r8, r0, r0, lsl #16
     550:	f3000400 	vshl.u8	d0, d0, d0
     554:	009f5001 	addseq	r5, pc, r1
	...
     560:	0c000000 	stceq	0, cr0, [r0], {-0}
     564:	74000000 	strvc	r0, [r0], #-0
     568:	01000000 	mrseq	r0, (UNDEF: 0)
     56c:	00745100 	rsbseq	r5, r4, r0, lsl #2
     570:	00880000 	addeq	r0, r8, r0
     574:	00060000 	andeq	r0, r6, r0
     578:	385001f3 	ldmdacc	r0, {r0, r1, r4, r5, r6, r7, r8}^
     57c:	00009f1c 	andeq	r9, r0, ip, lsl pc
	...
     588:	00000010 	andeq	r0, r0, r0, lsl r0
     58c:	00000088 	andeq	r0, r0, r8, lsl #1
     590:	00530001 	subseq	r0, r3, r1
	...
     5a0:	88000000 	stmdahi	r0, {}	; <UNPREDICTABLE>
     5a4:	ac000000 	stcge	0, cr0, [r0], {-0}
     5a8:	01000000 	mrseq	r0, (UNDEF: 0)
     5ac:	00ac5000 	adceq	r5, ip, r0
     5b0:	015c0000 	cmpeq	ip, r0
     5b4:	00040000 	andeq	r0, r4, r0
     5b8:	9f5001f3 	svcls	0x005001f3
     5bc:	0000015c 	andeq	r0, r0, ip, asr r1
     5c0:	00000168 	andeq	r0, r0, r8, ror #2
     5c4:	68500001 	ldmdavs	r0, {r0}^
     5c8:	88000001 	stmdahi	r0, {r0}
     5cc:	04000001 	streq	r0, [r0], #-1
     5d0:	5001f300 	andpl	pc, r1, r0, lsl #6
     5d4:	0000009f 	muleq	r0, pc, r0	; <UNPREDICTABLE>
	...
     5e4:	01010101 	tsteq	r1, r1, lsl #2
     5e8:	00000200 	andeq	r0, r0, r0, lsl #4
     5ec:	0000ac00 	andeq	sl, r0, r0, lsl #24
     5f0:	0000b800 	andeq	fp, r0, r0, lsl #16
     5f4:	50000100 	andpl	r0, r0, r0, lsl #2
     5f8:	000000c4 	andeq	r0, r0, r4, asr #1
     5fc:	000000c8 	andeq	r0, r0, r8, asr #1
     600:	c8530001 	ldmdagt	r3, {r0}^
     604:	d4000000 	strle	r0, [r0], #-0
     608:	01000000 	mrseq	r0, (UNDEF: 0)
     60c:	01105000 	tsteq	r0, r0
     610:	01200000 			; <UNDEFINED> instruction: 0x01200000
     614:	00010000 	andeq	r0, r1, r0
     618:	00012053 	andeq	r2, r1, r3, asr r0
     61c:	00013c00 	andeq	r3, r1, r0, lsl #24
     620:	50000100 	andpl	r0, r0, r0, lsl #2
     624:	0000013c 	andeq	r0, r0, ip, lsr r1
     628:	00000140 	andeq	r0, r0, r0, asr #2
     62c:	00720008 	rsbseq	r0, r2, r8
     630:	00702433 	rsbseq	r2, r0, r3, lsr r4
     634:	01749f22 	cmneq	r4, r2, lsr #30
     638:	01780000 	cmneq	r8, r0
     63c:	00060000 	andeq	r0, r6, r0
     640:	00aaf003 	adceq	pc, sl, r3
     644:	01789f00 	cmneq	r8, r0, lsl #30
     648:	01880000 	orreq	r0, r8, r0
     64c:	00010000 	andeq	r0, r1, r0
     650:	00000050 	andeq	r0, r0, r0, asr r0
     654:	00000000 	andeq	r0, r0, r0
     658:	02000100 	andeq	r0, r0, #0
     65c:	00000100 	andeq	r0, r0, r0, lsl #2
     660:	00000101 	andeq	r0, r0, r1, lsl #2
     664:	0000a400 	andeq	sl, r0, r0, lsl #8
     668:	0000b800 	andeq	fp, r0, r0, lsl #16
     66c:	51000100 	mrspl	r0, (UNDEF: 16)
     670:	000000c4 	andeq	r0, r0, r4, asr #1
     674:	000000d4 	ldrdeq	r0, [r0], -r4
     678:	20530001 	subscs	r0, r3, r1
     67c:	2c000001 	stccs	0, cr0, [r0], {1}
     680:	01000001 	tsteq	r0, r1
     684:	015c5300 	cmpeq	ip, r0, lsl #6
     688:	015c0000 	cmpeq	ip, r0
     68c:	00010000 	andeq	r0, r1, r0
     690:	00015c51 	andeq	r5, r1, r1, asr ip
     694:	00017800 	andeq	r7, r1, r0, lsl #16
     698:	03000600 	movweq	r0, #1536	; 0x600
     69c:	0000aaf0 	strdeq	sl, [r0], -r0
     6a0:	0001789f 	muleq	r1, pc, r8	; <UNPREDICTABLE>
     6a4:	00018800 	andeq	r8, r1, r0, lsl #16
     6a8:	51000100 	mrspl	r0, (UNDEF: 16)
	...
     6b4:	00a40000 	adceq	r0, r4, r0
     6b8:	01880000 	orreq	r0, r8, r0
     6bc:	00010000 	andeq	r0, r1, r0
     6c0:	00000054 	andeq	r0, r0, r4, asr r0
     6c4:	00000000 	andeq	r0, r0, r0
     6c8:	e0000200 	and	r0, r0, r0, lsl #4
     6cc:	10000000 	andne	r0, r0, r0
     6d0:	04000001 	streq	r0, [r0], #-1
     6d4:	80000a00 	andhi	r0, r0, r0, lsl #20
     6d8:	0000009f 	muleq	r0, pc, r0	; <UNPREDICTABLE>
	...
     6e4:	0000f800 	andeq	pc, r0, r0, lsl #16
     6e8:	00010000 	andeq	r0, r1, r0
     6ec:	50000100 	andpl	r0, r0, r0, lsl #2
     6f0:	00000100 	andeq	r0, r0, r0, lsl #2
     6f4:	0000010b 	andeq	r0, r0, fp, lsl #2
     6f8:	00530001 	subseq	r0, r3, r1
     6fc:	00000000 	andeq	r0, r0, r0
     700:	01000000 	mrseq	r0, (UNDEF: 0)
     704:	f8000000 			; <UNDEFINED> instruction: 0xf8000000
     708:	00000000 	andeq	r0, r0, r0
     70c:	01000001 	tsteq	r0, r1
     710:	01005000 	mrseq	r5, (UNDEF: 0)
     714:	010b0000 	mrseq	r0, (UNDEF: 11)
     718:	00010000 	andeq	r0, r1, r0
     71c:	00000053 	andeq	r0, r0, r3, asr r0
     720:	00000000 	andeq	r0, r0, r0
     724:	d0000200 	andle	r0, r0, r0, lsl #4
     728:	dc000004 	stcle	0, cr0, [r0], {4}
     72c:	01000004 	tsteq	r0, r4
     730:	00005500 	andeq	r5, r0, r0, lsl #10
     734:	00000000 	andeq	r0, r0, r0
     738:	00030000 	andeq	r0, r3, r0
     73c:	00000000 	andeq	r0, r0, r0
     740:	04640000 	strbteq	r0, [r4], #-0
     744:	049c0000 	ldreq	r0, [ip], #0
     748:	00020000 	andeq	r0, r2, r0
     74c:	049c9f30 	ldreq	r9, [ip], #3888	; 0xf30
     750:	04bc0000 	ldrteq	r0, [ip], #0
     754:	00010000 	andeq	r0, r1, r0
     758:	0004dc56 	andeq	sp, r4, r6, asr ip
     75c:	00052c00 	andeq	r2, r5, r0, lsl #24
     760:	56000100 	strpl	r0, [r0], -r0, lsl #2
     764:	0000052c 	andeq	r0, r0, ip, lsr #10
     768:	00000558 	andeq	r0, r0, r8, asr r5
     76c:	9f300002 	svcls	0x00300002
	...
     778:	00000003 	andeq	r0, r0, r3
     77c:	00000000 	andeq	r0, r0, r0
     780:	00000464 	andeq	r0, r0, r4, ror #8
     784:	0000049c 	muleq	r0, ip, r4
     788:	9f300002 	svcls	0x00300002
     78c:	0000049c 	muleq	r0, ip, r4
     790:	000004bc 			; <UNDEFINED> instruction: 0x000004bc
     794:	dc570001 	mrrcle	0, 0, r0, r7, cr1
     798:	2c000004 	stccs	0, cr0, [r0], {4}
     79c:	01000005 	tsteq	r0, r5
     7a0:	052c5700 	streq	r5, [ip, #-1792]!	; 0xfffff900
     7a4:	05580000 	ldrbeq	r0, [r8, #-0]
     7a8:	00020000 	andeq	r0, r2, r0
     7ac:	00009f30 	andeq	r9, r0, r0, lsr pc
     7b0:	00000000 	andeq	r0, r0, r0
     7b4:	00030000 	andeq	r0, r3, r0
     7b8:	00000000 	andeq	r0, r0, r0
     7bc:	00000001 	andeq	r0, r0, r1
     7c0:	00000464 	andeq	r0, r0, r4, ror #8
     7c4:	0000049c 	muleq	r0, ip, r4
     7c8:	9f300002 	svcls	0x00300002
     7cc:	0000049c 	muleq	r0, ip, r4
     7d0:	000004bc 			; <UNDEFINED> instruction: 0x000004bc
     7d4:	dc550001 	mrrcle	0, 0, r0, r5, cr1
     7d8:	04000004 	streq	r0, [r0], #-4
     7dc:	01000005 	tsteq	r0, r5
     7e0:	05245500 	streq	r5, [r4, #-1280]!	; 0xfffffb00
     7e4:	052c0000 	streq	r0, [ip, #-0]!
     7e8:	00010000 	andeq	r0, r1, r0
     7ec:	00052c55 	andeq	r2, r5, r5, asr ip
     7f0:	00055800 	andeq	r5, r5, r0, lsl #16
     7f4:	30000200 	andcc	r0, r0, r0, lsl #4
     7f8:	0000009f 	muleq	r0, pc, r0	; <UNPREDICTABLE>
	...
     808:	07070000 	streq	r0, [r7, -r0]
     80c:	00047c00 	andeq	r7, r4, r0, lsl #24
     810:	00049c00 	andeq	r9, r4, r0, lsl #24
     814:	50000100 	andpl	r0, r0, r0, lsl #2
     818:	0000049c 	muleq	r0, ip, r4
     81c:	000004b4 			; <UNDEFINED> instruction: 0x000004b4
     820:	b4540001 	ldrblt	r0, [r4], #-1
     824:	bc000004 	stclt	0, cr0, [r0], {4}
     828:	01000004 	tsteq	r0, r4
     82c:	04dc5000 	ldrbeq	r5, [ip], #0
     830:	05200000 	streq	r0, [r0, #-0]!
     834:	00010000 	andeq	r0, r1, r0
     838:	00052054 	andeq	r2, r5, r4, asr r0
     83c:	00052400 	andeq	r2, r5, r0, lsl #8
     840:	7b000400 	blvc	1848 <__code_start__-0x67b8>
     844:	249f7ed8 	ldrcs	r7, [pc], #3800	; 84c <__code_start__-0x77b4>
     848:	58000005 	stmdapl	r0, {r0, r2}
     84c:	01000005 	tsteq	r0, r5
     850:	00005000 	andeq	r5, r0, r0
     854:	00000000 	andeq	r0, r0, r0
     858:	04020000 	streq	r0, [r2], #-0
     85c:	00000524 	andeq	r0, r0, r4, lsr #10
     860:	00000524 	andeq	r0, r0, r4, lsr #10
     864:	010a0004 	tsteq	sl, r4
     868:	00009f01 	andeq	r9, r0, r1, lsl #30
     86c:	00000000 	andeq	r0, r0, r0
     870:	04020000 	streq	r0, [r2], #-0
     874:	00000524 	andeq	r0, r0, r4, lsr #10
     878:	00000524 	andeq	r0, r0, r4, lsr #10
     87c:	d5f20006 	ldrble	r0, [r2, #6]!
     880:	0000001d 	andeq	r0, r0, sp, lsl r0
	...
     88c:	05240402 	streq	r0, [r4, #-1026]!	; 0xfffffbfe
     890:	05240000 	streq	r0, [r4, #-0]!
     894:	00060000 	andeq	r0, r6, r0
     898:	00a3f803 	adceq	pc, r3, r3, lsl #16
     89c:	00009f00 	andeq	r9, r0, r0, lsl #30
	...
     8ac:	00000414 	andeq	r0, r0, r4, lsl r4
     8b0:	00000424 	andeq	r0, r0, r4, lsr #8
     8b4:	24500001 	ldrbcs	r0, [r0], #-1
     8b8:	27000004 	strcs	r0, [r0, -r4]
     8bc:	01000004 	tsteq	r0, r4
     8c0:	04275100 	strteq	r5, [r7], #-256	; 0xffffff00
     8c4:	04580000 	ldrbeq	r0, [r8], #-0
     8c8:	00010000 	andeq	r0, r1, r0
     8cc:	00000054 	andeq	r0, r0, r4, asr r0
     8d0:	00000000 	andeq	r0, r0, r0
     8d4:	0c000200 	sfmeq	f0, 4, [r0], {-0}
     8d8:	14000004 	strne	r0, [r0], #-4
     8dc:	02000004 	andeq	r0, r0, #4, 0
     8e0:	009f3100 	addseq	r3, pc, r0, lsl #2
     8e4:	00000000 	andeq	r0, r0, r0
     8e8:	02000000 	andeq	r0, r0, #0, 0
     8ec:	0003c400 	andeq	ip, r3, r0, lsl #8
     8f0:	0003cc00 	andeq	ip, r3, r0, lsl #24
     8f4:	31000200 	mrscc	r0, R8_usr
     8f8:	0000009f 	muleq	r0, pc, r0	; <UNPREDICTABLE>
	...
     904:	00020000 	andeq	r0, r2, r0
     908:	00020c00 	andeq	r0, r2, r0, lsl #24
     90c:	50000100 	andpl	r0, r0, r0, lsl #2
     910:	0000020c 	andeq	r0, r0, ip, lsl #4
     914:	00000320 	andeq	r0, r0, r0, lsr #6
     918:	00580001 	subseq	r0, r8, r1
     91c:	00000000 	andeq	r0, r0, r0
     920:	02000000 	andeq	r0, r0, #0, 0
     924:	00000000 	andeq	r0, r0, r0
     928:	00020000 	andeq	r0, r2, r0
     92c:	40000002 	andmi	r0, r0, r2
     930:	02000002 	andeq	r0, r0, #2, 0
     934:	409f3000 	addsmi	r3, pc, r0
     938:	b0000002 	andlt	r0, r0, r2
     93c:	01000002 	tsteq	r0, r2
     940:	02c85500 	sbceq	r5, r8, #0, 10
     944:	02e00000 	rsceq	r0, r0, #0, 0
     948:	00010000 	andeq	r0, r1, r0
     94c:	0002e055 	andeq	lr, r2, r5, asr r0
     950:	0002ec00 	andeq	lr, r2, r0, lsl #24
     954:	30000200 	andcc	r0, r0, r0, lsl #4
     958:	0000009f 	muleq	r0, pc, r0	; <UNPREDICTABLE>
     95c:	00000000 	andeq	r0, r0, r0
     960:	00000200 	andeq	r0, r0, r0, lsl #4
     964:	00000000 	andeq	r0, r0, r0
     968:	00020002 	andeq	r0, r2, r2
     96c:	00024000 	andeq	r4, r2, r0
     970:	30000200 	andcc	r0, r0, r0, lsl #4
     974:	0002409f 	muleq	r2, pc, r0	; <UNPREDICTABLE>
     978:	0002b000 	andeq	fp, r2, r0
     97c:	56000100 	strpl	r0, [r0], -r0, lsl #2
     980:	000002c8 	andeq	r0, r0, r8, asr #5
     984:	000002e0 	andeq	r0, r0, r0, ror #5
     988:	e0560001 	subs	r0, r6, r1
     98c:	ec000002 	stc	0, cr0, [r0], {2}
     990:	02000002 	andeq	r0, r0, #2, 0
     994:	009f3000 	addseq	r3, pc, r0
     998:	00000000 	andeq	r0, r0, r0
     99c:	02000000 	andeq	r0, r0, #0, 0
     9a0:	00000000 	andeq	r0, r0, r0
     9a4:	00020000 	andeq	r0, r2, r0
     9a8:	40000002 	andmi	r0, r0, r2
     9ac:	02000002 	andeq	r0, r0, #2, 0
     9b0:	409f3000 	addsmi	r3, pc, r0
     9b4:	b0000002 	andlt	r0, r0, r2
     9b8:	01000002 	tsteq	r0, r2
     9bc:	02c85700 	sbceq	r5, r8, #0, 14
     9c0:	02e00000 	rsceq	r0, r0, #0, 0
     9c4:	00010000 	andeq	r0, r1, r0
     9c8:	0002e057 	andeq	lr, r2, r7, asr r0
     9cc:	0002ec00 	andeq	lr, r2, r0, lsl #24
     9d0:	30000200 	andcc	r0, r0, r0, lsl #4
     9d4:	0000009f 	muleq	r0, pc, r0	; <UNPREDICTABLE>
	...
     9e4:	02000000 	andeq	r0, r0, #0, 0
	...
     9f0:	20000000 	andcs	r0, r0, r0
     9f4:	48000002 	stmdami	r0, {r1}
     9f8:	01000002 	tsteq	r0, r2
     9fc:	02485000 	subeq	r5, r8, #0, 0
     a00:	02500000 	subseq	r0, r0, #0, 0
     a04:	00010000 	andeq	r0, r1, r0
     a08:	00025054 	andeq	r5, r2, r4, asr r0
     a0c:	00027400 	andeq	r7, r2, r0, lsl #8
     a10:	50000100 	andpl	r0, r0, r0, lsl #2
     a14:	00000274 	andeq	r0, r0, r4, ror r2
     a18:	00000277 	andeq	r0, r0, r7, ror r2
     a1c:	77520001 	ldrbvc	r0, [r2, -r1]
     a20:	84000002 	strhi	r0, [r0], #-2
     a24:	01000002 	tsteq	r0, r2
     a28:	02885400 	addeq	r5, r8, #0, 8
     a2c:	02940000 	addseq	r0, r4, #0, 0
     a30:	00010000 	andeq	r0, r1, r0
     a34:	00029450 	andeq	r9, r2, r0, asr r4
     a38:	0002c800 	andeq	ip, r2, r0, lsl #16
     a3c:	54000100 	strpl	r0, [r0], #-256	; 0xffffff00
     a40:	000002c8 	andeq	r0, r0, r8, asr #5
     a44:	000002d4 	ldrdeq	r0, [r0], -r4
     a48:	d4500001 	ldrble	r0, [r0], #-1
     a4c:	e0000002 	and	r0, r0, r2
     a50:	01000002 	tsteq	r0, r2
     a54:	02e05400 	rsceq	r5, r0, #0, 8
     a58:	02e80000 	rsceq	r0, r8, #0, 0
     a5c:	00010000 	andeq	r0, r1, r0
     a60:	0002e850 	andeq	lr, r2, r0, asr r8
     a64:	00032000 	andeq	r2, r3, r0
     a68:	54000100 	strpl	r0, [r0], #-256	; 0xffffff00
	...
     a78:	00000168 	andeq	r0, r0, r8, ror #2
     a7c:	00000183 	andeq	r0, r0, r3, lsl #3
     a80:	84500001 	ldrbhi	r0, [r0], #-1
     a84:	90000001 	andls	r0, r0, r1
     a88:	01000001 	tsteq	r0, r1
     a8c:	00005000 	andeq	r5, r0, r0
	...
     aa4:	03200000 	nopeq	{0}	; <UNPREDICTABLE>
     aa8:	034c0000 	movteq	r0, #49152	; 0xc000
     aac:	00010000 	andeq	r0, r1, r0
     ab0:	00034c50 	andeq	r4, r3, r0, asr ip
     ab4:	00036800 	andeq	r6, r3, r0, lsl #16
     ab8:	54000100 	strpl	r0, [r0], #-256	; 0xffffff00
     abc:	00000368 	andeq	r0, r0, r8, ror #6
     ac0:	0000036b 	andeq	r0, r0, fp, ror #6
     ac4:	6b500001 	blvs	1400ad0 <__bss_end__+0x13f5bc8>
     ac8:	6c000003 	stcvs	0, cr0, [r0], {3}
     acc:	04000003 	streq	r0, [r0], #-3
     ad0:	5001f300 	andpl	pc, r1, r0, lsl #6
     ad4:	00036c9f 	muleq	r3, pc, ip	; <UNPREDICTABLE>
     ad8:	00038000 	andeq	r8, r3, r0
     adc:	50000100 	andpl	r0, r0, r0, lsl #2
     ae0:	00000380 	andeq	r0, r0, r0, lsl #7
     ae4:	0000038c 	andeq	r0, r0, ip, lsl #7
     ae8:	8c540001 	mrrchi	0, 0, r0, r4, cr1
     aec:	9c000003 	stcls	0, cr0, [r0], {3}
     af0:	01000003 	tsteq	r0, r3
     af4:	039c5000 	orrseq	r5, ip, #0, 0
     af8:	03bc0000 			; <UNDEFINED> instruction: 0x03bc0000
     afc:	00010000 	andeq	r0, r1, r0
     b00:	00000054 	andeq	r0, r0, r4, asr r0
     b04:	00000000 	andeq	r0, r0, r0
     b08:	40000200 	andmi	r0, r0, r0, lsl #4
     b0c:	6c000003 	stcvs	0, cr0, [r0], {3}
     b10:	04000003 	streq	r0, [r0], #-3
     b14:	24404000 	strbcs	r4, [r0], #-0
     b18:	0000009f 	muleq	r0, pc, r0	; <UNPREDICTABLE>
	...
     b2c:	00004c00 	andeq	r4, r0, r0, lsl #24
     b30:	50000100 	andpl	r0, r0, r0, lsl #2
     b34:	0000004c 	andeq	r0, r0, ip, asr #32
     b38:	00000114 	andeq	r0, r0, r4, lsl r1
     b3c:	01f30004 	mvnseq	r0, r4
     b40:	01149f50 	tsteq	r4, r0, asr pc
     b44:	01280000 			; <UNDEFINED> instruction: 0x01280000
     b48:	00010000 	andeq	r0, r1, r0
     b4c:	00012850 	andeq	r2, r1, r0, asr r8
     b50:	00015c00 	andeq	r5, r1, r0, lsl #24
     b54:	f3000400 	vshl.u8	d0, d0, d0
     b58:	009f5001 	addseq	r5, pc, r1
	...
     b6c:	38000000 	stmdacc	r0, {}	; <UNPREDICTABLE>
     b70:	01000000 	mrseq	r0, (UNDEF: 0)
     b74:	00385100 	eorseq	r5, r8, r0, lsl #2
     b78:	01140000 	tsteq	r4, r0
     b7c:	00040000 	andeq	r0, r4, r0
     b80:	9f5101f3 	svcls	0x005101f3
     b84:	00000114 	andeq	r0, r0, r4, lsl r1
     b88:	00000120 	andeq	r0, r0, r0, lsr #2
     b8c:	20510001 	subscs	r0, r1, r1
     b90:	5c000001 	stcpl	0, cr0, [r0], {1}
     b94:	04000001 	streq	r0, [r0], #-1
     b98:	5101f300 	mrspl	pc, SP_irq	; <UNPREDICTABLE>
     b9c:	0000009f 	muleq	r0, pc, r0	; <UNPREDICTABLE>
	...
     ba8:	00000202 	andeq	r0, r0, r2, lsl #4
     bac:	00000202 	andeq	r0, r0, r2, lsl #4
     bb0:	58000202 	stmdapl	r0, {r1, r9}
     bb4:	60000000 	andvs	r0, r0, r0
     bb8:	01000000 	mrseq	r0, (UNDEF: 0)
     bbc:	00605400 	rsbeq	r5, r0, r0, lsl #8
     bc0:	00d00000 	sbcseq	r0, r0, r0
     bc4:	00010000 	andeq	r0, r1, r0
     bc8:	0000d058 	andeq	sp, r0, r8, asr r0
     bcc:	0000e000 	andeq	lr, r0, r0
     bd0:	54000100 	strpl	r0, [r0], #-256	; 0xffffff00
     bd4:	000000e0 	andeq	r0, r0, r0, ror #1
     bd8:	000000e8 	andeq	r0, r0, r8, ror #1
     bdc:	e8580001 	ldmda	r8, {r0}^
     be0:	f4000000 	vst4.8	{d0-d3}, [r0], r0
     be4:	01000000 	mrseq	r0, (UNDEF: 0)
     be8:	00f45400 	rscseq	r5, r4, r0, lsl #8
     bec:	01080000 	mrseq	r0, (UNDEF: 8)
     bf0:	00010000 	andeq	r0, r1, r0
     bf4:	00010858 	andeq	r0, r1, r8, asr r8
     bf8:	00011400 	andeq	r1, r1, r0, lsl #8
     bfc:	54000100 	strpl	r0, [r0], #-256	; 0xffffff00
	...
     c10:	00000074 	andeq	r0, r0, r4, ror r0
     c14:	00000083 	andeq	r0, r0, r3, lsl #1
     c18:	83500001 	cmphi	r0, #1, 0
     c1c:	d0000000 	andle	r0, r0, r0
     c20:	01000000 	mrseq	r0, (UNDEF: 0)
     c24:	00e05600 	rsceq	r5, r0, r0, lsl #12
     c28:	00e80000 	rsceq	r0, r8, r0
     c2c:	00010000 	andeq	r0, r1, r0
     c30:	0000f456 	andeq	pc, r0, r6, asr r4	; <UNPREDICTABLE>
     c34:	00010800 	andeq	r0, r1, r0, lsl #16
     c38:	56000100 	strpl	r0, [r0], -r0, lsl #2
	...
     c48:	00000088 	andeq	r0, r0, r8, lsl #1
     c4c:	000000d0 	ldrdeq	r0, [r0], -r0	; <UNPREDICTABLE>
     c50:	e05b0001 	subs	r0, fp, r1
     c54:	14000000 	strne	r0, [r0], #-0
     c58:	01000001 	tsteq	r0, r1
     c5c:	00005b00 	andeq	r5, r0, r0, lsl #22
     c60:	00000000 	andeq	r0, r0, r0
     c64:	00010000 	andeq	r0, r1, r0
     c68:	00880000 	addeq	r0, r8, r0
     c6c:	00d00000 	sbcseq	r0, r0, r0
     c70:	00010000 	andeq	r0, r1, r0
     c74:	0000e059 	andeq	lr, r0, r9, asr r0
     c78:	00011400 	andeq	r1, r1, r0, lsl #8
     c7c:	59000100 	stmdbpl	r0, {r8}
	...
     c88:	00600000 	rsbeq	r0, r0, r0
     c8c:	00730000 	rsbseq	r0, r3, r0
     c90:	00010000 	andeq	r0, r1, r0
     c94:	00000050 	andeq	r0, r0, r0, asr r0
     c98:	00000000 	andeq	r0, r0, r0
     c9c:	60000300 	andvs	r0, r0, r0, lsl #6
     ca0:	73000000 	movwvc	r0, #0
     ca4:	01000000 	mrseq	r0, (UNDEF: 0)
     ca8:	00005000 	andeq	r5, r0, r0
     cac:	00000000 	andeq	r0, r0, r0
     cb0:	00040000 	andeq	r0, r4, r0
     cb4:	00000060 	andeq	r0, r0, r0, rrx
     cb8:	00000070 	andeq	r0, r0, r0, ror r0
     cbc:	00500001 	subseq	r0, r0, r1
	...
     cc8:	bc000000 	stclt	0, cr0, [r0], {-0}
     ccc:	bf000003 	svclt	0x00000003
     cd0:	01000003 	tsteq	r0, r3
     cd4:	03bf5000 			; <UNDEFINED> instruction: 0x03bf5000
     cd8:	03c00000 	biceq	r0, r0, #0, 0
     cdc:	00040000 	andeq	r0, r4, r0
     ce0:	9f5001f3 	svcls	0x005001f3
	...
     cf4:	0000001c 	andeq	r0, r0, ip, lsl r0
     cf8:	1c510001 	mrrcne	0, 0, r0, r1, cr1
     cfc:	78000000 	stmdavc	r0, {}	; <UNPREDICTABLE>
     d00:	04000000 	streq	r0, [r0], #-0
     d04:	5101f300 	mrspl	pc, SP_irq	; <UNPREDICTABLE>
     d08:	0000009f 	muleq	r0, pc, r0	; <UNPREDICTABLE>
	...
     d18:	00005800 	andeq	r5, r0, r0, lsl #16
     d1c:	52000100 	andpl	r0, r0, #0
     d20:	00000058 	andeq	r0, r0, r8, asr r0
     d24:	00000078 	andeq	r0, r0, r8, ror r0
     d28:	01f30004 	mvnseq	r0, r4
     d2c:	00009f52 	andeq	r9, r0, r2, asr pc
     d30:	00000000 	andeq	r0, r0, r0
     d34:	00020000 	andeq	r0, r2, r0
     d38:	00010100 	andeq	r0, r1, r0, lsl #2
     d3c:	00010100 	andeq	r0, r1, r0, lsl #2
     d40:	00010100 	andeq	r0, r1, r0, lsl #2
     d44:	00000000 	andeq	r0, r0, r0
     d48:	00000038 	andeq	r0, r0, r8, lsr r0
     d4c:	54500001 	ldrbpl	r0, [r0], #-1
     d50:	54000000 	strpl	r0, [r0], #-0
     d54:	01000000 	mrseq	r0, (UNDEF: 0)
     d58:	00545300 	subseq	r5, r4, r0, lsl #6
     d5c:	005c0000 	subseq	r0, ip, r0
     d60:	00030000 	andeq	r0, r3, r0
     d64:	5c9f0173 	ldfpls	f0, [pc], {115}	; 0x73
     d68:	64000000 	strvs	r0, [r0], #-0
     d6c:	01000000 	mrseq	r0, (UNDEF: 0)
     d70:	00645200 	rsbeq	r5, r4, r0, lsl #4
     d74:	00680000 	rsbeq	r0, r8, r0
     d78:	00030000 	andeq	r0, r3, r0
     d7c:	689f0273 	ldmvs	pc, {r0, r1, r4, r5, r6, r9}	; <UNPREDICTABLE>
     d80:	74000000 	strvc	r0, [r0], #-0
     d84:	01000000 	mrseq	r0, (UNDEF: 0)
     d88:	00745200 	rsbseq	r5, r4, r0, lsl #4
     d8c:	00780000 	rsbseq	r0, r8, r0
     d90:	00030000 	andeq	r0, r3, r0
     d94:	009f0172 	addseq	r0, pc, r2, ror r1	; <UNPREDICTABLE>
	...
     da0:	00000800 	andeq	r0, r0, r0, lsl #16
     da4:	00007800 	andeq	r7, r0, r0, lsl #16
     da8:	54000100 	strpl	r0, [r0], #-256	; 0xffffff00
	...
     db8:	002c0000 	eoreq	r0, ip, r0
     dbc:	00340000 	eorseq	r0, r4, r0
     dc0:	00010000 	andeq	r0, r1, r0
     dc4:	00003450 	andeq	r3, r0, r0, asr r4
     dc8:	00004800 	andeq	r4, r0, r0, lsl #16
     dcc:	54000100 	strpl	r0, [r0], #-256	; 0xffffff00
     dd0:	00000048 	andeq	r0, r0, r8, asr #32
     dd4:	00000058 	andeq	r0, r0, r8, asr r0
     dd8:	00500001 	subseq	r0, r0, r1
	...
     de4:	01010000 	mrseq	r0, (UNDEF: 1)
     de8:	00000000 	andeq	r0, r0, r0
     dec:	0c000000 	stceq	0, cr0, [r0], {-0}
     df0:	01000000 	mrseq	r0, (UNDEF: 0)
     df4:	000c5000 	andeq	r5, ip, r0
     df8:	00200000 	eoreq	r0, r0, r0
     dfc:	00010000 	andeq	r0, r1, r0
     e00:	00002054 	andeq	r2, r0, r4, asr r0
     e04:	00002400 	andeq	r2, r0, r0, lsl #8
     e08:	74000300 	strvc	r0, [r0], #-768	; 0xfffffd00
     e0c:	00249f01 	eoreq	r9, r4, r1, lsl #30
     e10:	00380000 	eorseq	r0, r8, r0
     e14:	00010000 	andeq	r0, r1, r0
     e18:	00000054 	andeq	r0, r0, r4, asr r0
	...
     e28:	88000000 	stmdahi	r0, {}	; <UNPREDICTABLE>
     e2c:	94000003 	strls	r0, [r0], #-3
     e30:	01000003 	tsteq	r0, r3
     e34:	03945000 	orrseq	r5, r4, #0, 0
     e38:	03d00000 	bicseq	r0, r0, #0, 0
     e3c:	00010000 	andeq	r0, r1, r0
     e40:	0003d05b 	andeq	sp, r3, fp, asr r0
     e44:	00092000 	andeq	r2, r9, r0
     e48:	f3000400 	vshl.u8	d0, d0, d0
     e4c:	209f5001 	addscs	r5, pc, r1
     e50:	28000009 	stmdacs	r0, {r0, r3}
     e54:	01000009 	tsteq	r0, r9
     e58:	09285b00 	stmdbeq	r8!, {r8, r9, fp, ip, lr}
     e5c:	09b40000 	ldmibeq	r4!, {}	; <UNPREDICTABLE>
     e60:	00040000 	andeq	r0, r4, r0
     e64:	9f5001f3 	svcls	0x005001f3
	...
     e78:	00000388 	andeq	r0, r0, r8, lsl #7
     e7c:	000003d0 	ldrdeq	r0, [r0], -r0	; <UNPREDICTABLE>
     e80:	d0510001 	subsle	r0, r1, r1
     e84:	20000003 	andcs	r0, r0, r3
     e88:	04000009 	streq	r0, [r0], #-9
     e8c:	5101f300 	mrspl	pc, SP_irq	; <UNPREDICTABLE>
     e90:	0009209f 	muleq	r9, pc, r0	; <UNPREDICTABLE>
     e94:	00092800 	andeq	r2, r9, r0, lsl #16
     e98:	51000100 	mrspl	r0, (UNDEF: 16)
     e9c:	00000928 	andeq	r0, r0, r8, lsr #18
     ea0:	000009b4 			; <UNDEFINED> instruction: 0x000009b4
     ea4:	01f30004 	mvnseq	r0, r4
     ea8:	00009f51 	andeq	r9, r0, r1, asr pc
	...
     eb8:	00000100 	andeq	r0, r0, r0, lsl #2
     ebc:	00000001 	andeq	r0, r0, r1
	...
     ec8:	03880000 	orreq	r0, r8, #0, 0
     ecc:	03d00000 	bicseq	r0, r0, #0, 0
     ed0:	00010000 	andeq	r0, r1, r0
     ed4:	0003d052 	andeq	sp, r3, r2, asr r0
     ed8:	00040000 	andeq	r0, r4, r0
     edc:	56000100 	strpl	r0, [r0], -r0, lsl #2
     ee0:	00000414 	andeq	r0, r0, r4, lsl r4
     ee4:	00000424 	andeq	r0, r0, r4, lsr #8
     ee8:	24560001 	ldrbcs	r0, [r6], #-1
     eec:	28000004 	stmdacs	r0, {r2}
     ef0:	03000004 	movweq	r0, #4
     ef4:	9f7f7600 	svcls	0x007f7600
     ef8:	000004a8 	andeq	r0, r0, r8, lsr #9
     efc:	000004ac 	andeq	r0, r0, ip, lsr #9
     f00:	e0560001 	subs	r0, r6, r1
     f04:	04000004 	streq	r0, [r0], #-4
     f08:	01000005 	tsteq	r0, r5
     f0c:	057c5600 	ldrbeq	r5, [ip, #-1536]!	; 0xfffffa00
     f10:	05880000 	streq	r0, [r8]
     f14:	00010000 	andeq	r0, r1, r0
     f18:	00058853 	andeq	r8, r5, r3, asr r8
     f1c:	0005d000 	andeq	sp, r5, r0
     f20:	91000300 	mrsls	r0, LR_irq
     f24:	08007dcc 	stmdaeq	r0, {r2, r3, r6, r7, r8, sl, fp, ip, sp, lr}
     f28:	080f0000 	stmdaeq	pc, {}	; <UNPREDICTABLE>
     f2c:	00010000 	andeq	r0, r1, r0
     f30:	00080f53 	andeq	r0, r8, r3, asr pc
     f34:	00088800 	andeq	r8, r8, r0, lsl #16
     f38:	91000300 	mrsls	r0, LR_irq
     f3c:	09207dcc 	stmdbeq	r0!, {r2, r3, r6, r7, r8, sl, fp, ip, sp, lr}
     f40:	09280000 	stmdbeq	r8!, {}	; <UNPREDICTABLE>
     f44:	00010000 	andeq	r0, r1, r0
     f48:	00094852 	andeq	r4, r9, r2, asr r8
     f4c:	00096400 	andeq	r6, r9, r0, lsl #8
     f50:	91000300 	mrsls	r0, LR_irq
     f54:	00007dcc 	andeq	r7, r0, ip, asr #27
	...
     f64:	01000000 	mrseq	r0, (UNDEF: 0)
     f68:	01000001 	tsteq	r0, r1
     f6c:	00000001 	andeq	r0, r0, r1
     f70:	00020200 	andeq	r0, r2, r0, lsl #4
     f74:	00020200 	andeq	r0, r2, r0, lsl #4
     f78:	00010100 	andeq	r0, r1, r0, lsl #2
     f7c:	00020200 	andeq	r0, r2, r0, lsl #4
     f80:	00010100 	andeq	r0, r1, r0, lsl #2
	...
     f8c:	00000388 	andeq	r0, r0, r8, lsl #7
     f90:	000003ac 	andeq	r0, r0, ip, lsr #7
     f94:	ac530001 	mrrcge	0, 0, r0, r3, cr1
     f98:	c0000003 	andgt	r0, r0, r3
     f9c:	03000003 	movweq	r0, #3
     fa0:	04935300 	ldreq	r5, [r3], #768	; 0x300
     fa4:	000003d0 	ldrdeq	r0, [r0], -r0	; <UNPREDICTABLE>
     fa8:	000003e8 	andeq	r0, r0, r8, ror #7
     fac:	93580003 	cmpls	r8, #3, 0
     fb0:	0003e804 	andeq	lr, r3, r4, lsl #16
     fb4:	0004ac00 	andeq	sl, r4, r0, lsl #24
     fb8:	58000300 	stmdapl	r0, {r8, r9}
     fbc:	04c00493 	strbeq	r0, [r0], #1171	; 0x493
     fc0:	04c00000 	strbeq	r0, [r0], #0
     fc4:	00030000 	andeq	r0, r3, r0
     fc8:	c0049358 	andgt	r9, r4, r8, asr r3
     fcc:	cc000004 	stcgt	0, cr0, [r0], {4}
     fd0:	05000004 	streq	r0, [r0, #-4]
     fd4:	9f047800 	svcls	0x00047800
     fd8:	04cc0493 	strbeq	r0, [ip], #1171	; 0x493
     fdc:	04e00000 	strbteq	r0, [r0], #0
     fe0:	00030000 	andeq	r0, r3, r0
     fe4:	e0049358 	and	r9, r4, r8, asr r3
     fe8:	38000004 	stmdacc	r0, {r2}
     fec:	03000005 	movweq	r0, #5
     ff0:	04935800 	ldreq	r5, [r3], #2048	; 0x800
     ff4:	00000538 	andeq	r0, r0, r8, lsr r5
     ff8:	0000053c 	andeq	r0, r0, ip, lsr r5
     ffc:	79780005 	ldmdbvc	r8!, {r0, r2}^
    1000:	d004939f 	mulle	r4, pc, r3	; <UNPREDICTABLE>
    1004:	d0000005 	andle	r0, r0, r5
    1008:	03000005 	movweq	r0, #5
    100c:	04935800 	ldreq	r5, [r3], #2048	; 0x800
    1010:	000005d0 	ldrdeq	r0, [r0], -r0	; <UNPREDICTABLE>
    1014:	000005d4 	ldrdeq	r0, [r0], -r4
    1018:	04780005 	ldrbteq	r0, [r8], #-5
    101c:	f404939f 	vst2.32	{d9-d12}, [r4 :64]
    1020:	f4000005 	vst4.8	{d0-d3}, [r0], r5
    1024:	03000005 	movweq	r0, #5
    1028:	04935800 	ldreq	r5, [r3], #2048	; 0x800
    102c:	000005f4 	strdeq	r0, [r0], -r4
    1030:	000005fc 	strdeq	r0, [r0], -ip
    1034:	04780005 	ldrbteq	r0, [r8], #-5
    1038:	fc04939f 	stc2	3, cr9, [r4], {159}	; 0x9f
    103c:	fc000005 	stc2	0, cr0, [r0], {5}
    1040:	03000005 	movweq	r0, #5
    1044:	04935800 	ldreq	r5, [r3], #2048	; 0x800
    1048:	000005fc 	strdeq	r0, [r0], -ip
    104c:	00000600 	andeq	r0, r0, r0, lsl #12
    1050:	04780005 	ldrbteq	r0, [r8], #-5
    1054:	0004939f 	muleq	r4, pc, r3	; <UNPREDICTABLE>
    1058:	00000006 	andeq	r0, r0, r6
    105c:	03000007 	movweq	r0, #7
    1060:	04935800 	ldreq	r5, [r3], #2048	; 0x800
    1064:	00000700 	andeq	r0, r0, r0, lsl #14
    1068:	0000070c 	andeq	r0, r0, ip, lsl #14
    106c:	04780005 	ldrbteq	r0, [r8], #-5
    1070:	0c04939f 	stceq	3, cr9, [r4], {159}	; 0x9f
    1074:	f8000007 			; <UNDEFINED> instruction: 0xf8000007
    1078:	03000007 	movweq	r0, #7
    107c:	04935800 	ldreq	r5, [r3], #2048	; 0x800
    1080:	000007f8 	strdeq	r0, [r0], -r8
    1084:	000007fc 	strdeq	r0, [r0], -ip
    1088:	04780005 	ldrbteq	r0, [r8], #-5
    108c:	fc04939f 	stc2	3, cr9, [r4], {159}	; 0x9f
    1090:	00000007 	andeq	r0, r0, r7
    1094:	03000008 	movweq	r0, #8
    1098:	04935800 	ldreq	r5, [r3], #2048	; 0x800
    109c:	00000888 	andeq	r0, r0, r8, lsl #17
    10a0:	00000920 	andeq	r0, r0, r0, lsr #18
    10a4:	93580003 	cmpls	r8, #3, 0
    10a8:	00092004 	andeq	r2, r9, r4
    10ac:	00092800 	andeq	r2, r9, r0, lsl #16
    10b0:	53000100 	movwpl	r0, #256	; 0x100
    10b4:	00000964 	andeq	r0, r0, r4, ror #18
    10b8:	000009b4 			; <UNDEFINED> instruction: 0x000009b4
    10bc:	93580003 	cmpls	r8, #3, 0
    10c0:	00000004 	andeq	r0, r0, r4
    10c4:	00000000 	andeq	r0, r0, r0
    10c8:	00000100 	andeq	r0, r0, r0, lsl #2
    10cc:	00000000 	andeq	r0, r0, r0
    10d0:	02020000 	andeq	r0, r2, #0, 0
    10d4:	01000000 	mrseq	r0, (UNDEF: 0)
    10d8:	00000101 	andeq	r0, r0, r1, lsl #2
    10dc:	ac000000 	stcge	0, cr0, [r0], {-0}
    10e0:	d0000003 	andle	r0, r0, r3
    10e4:	01000003 	tsteq	r0, r3
    10e8:	03d05b00 	bicseq	r5, r0, #0, 22
    10ec:	03d40000 	bicseq	r0, r4, #0, 0
    10f0:	00010000 	andeq	r0, r1, r0
    10f4:	0003d454 	andeq	sp, r3, r4, asr r4
    10f8:	0003d800 	andeq	sp, r3, r0, lsl #16
    10fc:	74000300 	strvc	r0, [r0], #-768	; 0xfffffd00
    1100:	03d89f7f 	bicseq	r9, r8, #508	; 0x1fc
    1104:	03fc0000 	mvnseq	r0, #0, 0
    1108:	00010000 	andeq	r0, r1, r0
    110c:	0004a854 	andeq	sl, r4, r4, asr r8
    1110:	0004ac00 	andeq	sl, r4, r0, lsl #24
    1114:	54000100 	strpl	r0, [r0], #-256	; 0xffffff00
    1118:	000004ac 	andeq	r0, r0, ip, lsr #9
    111c:	000004b4 			; <UNDEFINED> instruction: 0x000004b4
    1120:	01740003 	cmneq	r4, r3
    1124:	0004b49f 	muleq	r4, pc, r4	; <UNPREDICTABLE>
    1128:	0004c000 	andeq	ip, r4, r0
    112c:	54000100 	strpl	r0, [r0], #-256	; 0xffffff00
    1130:	000004e4 	andeq	r0, r0, r4, ror #9
    1134:	000004f4 	strdeq	r0, [r0], -r4
    1138:	f4540001 			; <UNDEFINED> instruction: 0xf4540001
    113c:	f8000004 			; <UNDEFINED> instruction: 0xf8000004
    1140:	03000004 	movweq	r0, #4
    1144:	9f017400 	svcls	0x00017400
    1148:	000004f8 	strdeq	r0, [r0], -r8
    114c:	00000504 	andeq	r0, r0, r4, lsl #10
    1150:	20540001 	subscs	r0, r4, r1
    1154:	28000009 	stmdacs	r0, {r0, r3}
    1158:	01000009 	tsteq	r0, r9
    115c:	00005b00 	andeq	r5, r0, r0, lsl #22
    1160:	00000000 	andeq	r0, r0, r0
    1164:	00010000 	andeq	r0, r1, r0
    1168:	000003ac 	andeq	r0, r0, ip, lsr #7
    116c:	000009b4 			; <UNDEFINED> instruction: 0x000009b4
    1170:	00570001 	subseq	r0, r7, r1
    1174:	00000000 	andeq	r0, r0, r0
    1178:	02000000 	andeq	r0, r0, #0, 0
    117c:	00000000 	andeq	r0, r0, r0
    1180:	00057c00 	andeq	r7, r5, r0, lsl #24
    1184:	0005d000 	andeq	sp, r5, r0
    1188:	5b000100 	blpl	1590 <__code_start__-0x6a70>
    118c:	00000800 	andeq	r0, r0, r0, lsl #16
    1190:	00000888 	andeq	r0, r0, r8, lsl #17
    1194:	485b0001 	ldmdami	fp, {r0}^
    1198:	64000009 	strvs	r0, [r0], #-9
    119c:	01000009 	tsteq	r0, r9
    11a0:	00005b00 	andeq	r5, r0, r0, lsl #22
    11a4:	00000000 	andeq	r0, r0, r0
    11a8:	00030000 	andeq	r0, r3, r0
    11ac:	00000000 	andeq	r0, r0, r0
    11b0:	0000057c 	andeq	r0, r0, ip, ror r5
    11b4:	000005d0 	ldrdeq	r0, [r0], -r0	; <UNPREDICTABLE>
    11b8:	00590001 	subseq	r0, r9, r1
    11bc:	88000008 	stmdahi	r0, {r3}
    11c0:	01000008 	tsteq	r0, r8
    11c4:	09485900 	stmdbeq	r8, {r8, fp, ip, lr}^
    11c8:	09640000 	stmdbeq	r4!, {}^	; <UNPREDICTABLE>
    11cc:	00010000 	andeq	r0, r1, r0
    11d0:	00000059 	andeq	r0, r0, r9, asr r0
    11d4:	00000000 	andeq	r0, r0, r0
    11d8:	00000400 	andeq	r0, r0, r0, lsl #8
    11dc:	00000000 	andeq	r0, r0, r0
    11e0:	0003ac00 	andeq	sl, r3, r0, lsl #24
    11e4:	0003d000 	andeq	sp, r3, r0
    11e8:	52000100 	andpl	r0, r0, #0
    11ec:	000003d0 	ldrdeq	r0, [r0], -r0	; <UNPREDICTABLE>
    11f0:	00000920 	andeq	r0, r0, r0, lsr #18
    11f4:	01f30004 	mvnseq	r0, r4
    11f8:	09209f52 	stmdbeq	r0!, {r1, r4, r6, r8, r9, sl, fp, ip, pc}
    11fc:	09280000 	stmdbeq	r8!, {}	; <UNPREDICTABLE>
    1200:	00010000 	andeq	r0, r1, r0
    1204:	00092852 	andeq	r2, r9, r2, asr r8
    1208:	0009b400 	andeq	fp, r9, r0, lsl #8
    120c:	f3000400 	vshl.u8	d0, d0, d0
    1210:	009f5201 	addseq	r5, pc, r1, lsl #4
	...
    121c:	00000101 	andeq	r0, r0, r1, lsl #2
    1220:	01000000 	mrseq	r0, (UNDEF: 0)
    1224:	e0000000 	and	r0, r0, r0
    1228:	e0000004 	and	r0, r0, r4
    122c:	01000004 	tsteq	r0, r4
    1230:	04e05000 	strbteq	r5, [r0], #0
    1234:	04e80000 	strbteq	r0, [r8], #0
    1238:	00010000 	andeq	r0, r1, r0
    123c:	0005b855 	andeq	fp, r5, r5, asr r8
    1240:	0005d000 	andeq	sp, r5, r0
    1244:	55000100 	strpl	r0, [r0, #-256]	; 0xffffff00
    1248:	000005f0 	strdeq	r0, [r0], -r0	; <UNPREDICTABLE>
    124c:	000005f4 	strdeq	r0, [r0], -r4
    1250:	f4500001 			; <UNDEFINED> instruction: 0xf4500001
    1254:	f8000007 			; <UNDEFINED> instruction: 0xf8000007
    1258:	01000007 	tsteq	r0, r7
    125c:	08505500 	ldmdaeq	r0, {r8, sl, ip, lr}^
    1260:	08880000 	stmeq	r8, {}	; <UNPREDICTABLE>
    1264:	00010000 	andeq	r0, r1, r0
    1268:	00000055 	andeq	r0, r0, r5, asr r0
    126c:	00000000 	andeq	r0, r0, r0
    1270:	00000200 	andeq	r0, r0, r0, lsl #4
    1274:	00000000 	andeq	r0, r0, r0
    1278:	00041400 	andeq	r1, r4, r0, lsl #8
    127c:	00041800 	andeq	r1, r4, r0, lsl #16
    1280:	30000200 	andcc	r0, r0, r0, lsl #4
    1284:	0004189f 	muleq	r4, pc, r8	; <UNPREDICTABLE>
    1288:	00041c00 	andeq	r1, r4, r0, lsl #24
    128c:	55000100 	strpl	r0, [r0, #-256]	; 0xffffff00
    1290:	00000428 	andeq	r0, r0, r8, lsr #8
    1294:	0000043c 	andeq	r0, r0, ip, lsr r4
    1298:	28550001 	ldmdacs	r5, {r0}^
    129c:	30000009 	andcc	r0, r0, r9
    12a0:	01000009 	tsteq	r0, r9
    12a4:	00005500 	andeq	r5, r0, r0, lsl #10
    12a8:	00000000 	andeq	r0, r0, r0
    12ac:	00010000 	andeq	r0, r1, r0
	...
    12b8:	05040000 	streq	r0, [r4, #-0]
    12bc:	05840000 	streq	r0, [r4]
    12c0:	00010000 	andeq	r0, r1, r0
    12c4:	00058456 	andeq	r8, r5, r6, asr r4
    12c8:	00058800 	andeq	r8, r5, r0, lsl #16
    12cc:	73000300 	movwvc	r0, #768	; 0x300
    12d0:	05889f7e 	streq	r9, [r8, #3966]	; 0xf7e
    12d4:	05d00000 	ldrbeq	r0, [r0]
    12d8:	00070000 	andeq	r0, r7, r0
    12dc:	067dcc91 			; <UNDEFINED> instruction: 0x067dcc91
    12e0:	009f1c32 	addseq	r1, pc, r2, lsr ip	; <UNPREDICTABLE>
    12e4:	1c000008 	stcne	0, cr0, [r0], {8}
    12e8:	01000008 	tsteq	r0, r8
    12ec:	081c5600 	ldmdaeq	ip, {r9, sl, ip, lr}
    12f0:	08880000 	stmeq	r8, {}	; <UNPREDICTABLE>
    12f4:	00070000 	andeq	r0, r7, r0
    12f8:	067dcc91 			; <UNDEFINED> instruction: 0x067dcc91
    12fc:	489f1c32 	ldmmi	pc, {r1, r4, r5, sl, fp, ip}	; <UNPREDICTABLE>
    1300:	b4000009 	strlt	r0, [r0], #-9
    1304:	01000009 	tsteq	r0, r9
    1308:	00005600 	andeq	r5, r0, r0, lsl #12
    130c:	00000000 	andeq	r0, r0, r0
    1310:	06040000 	streq	r0, [r4], -r0
    1314:	04140402 	ldreq	r0, [r4], #-1026	; 0xfffffbfe
    1318:	04140000 	ldreq	r0, [r4], #-0
    131c:	00060000 	andeq	r0, r6, r0
    1320:	ff080072 			; <UNDEFINED> instruction: 0xff080072
    1324:	04289f1a 	strteq	r9, [r8], #-3866	; 0xfffff0e6
    1328:	04280000 	strteq	r0, [r8], #-0
    132c:	00060000 	andeq	r0, r6, r0
    1330:	ff080072 			; <UNDEFINED> instruction: 0xff080072
    1334:	00009f1a 	andeq	r9, r0, sl, lsl pc
    1338:	00000000 	andeq	r0, r0, r0
    133c:	00020000 	andeq	r0, r2, r0
    1340:	00000000 	andeq	r0, r0, r0
    1344:	000005fc 	strdeq	r0, [r0], -ip
    1348:	00000700 	andeq	r0, r0, r0, lsl #14
    134c:	80080003 	andhi	r0, r8, r3
    1350:	0008a89f 	muleq	r8, pc, r8	; <UNPREDICTABLE>
    1354:	0008bc00 	andeq	fp, r8, r0, lsl #24
    1358:	08000300 	stmdaeq	r0, {r8, r9}
    135c:	09109f80 	ldmdbeq	r0, {r7, r8, r9, sl, fp, ip, pc}
    1360:	09200000 	stmdbeq	r0!, {}	; <UNPREDICTABLE>
    1364:	00030000 	andeq	r0, r3, r0
    1368:	009f8008 	addseq	r8, pc, r8
    136c:	00000000 	andeq	r0, r0, r0
    1370:	01000000 	mrseq	r0, (UNDEF: 0)
    1374:	00000000 	andeq	r0, r0, r0
    1378:	0005fc00 	andeq	pc, r5, r0, lsl #24
    137c:	00070000 	andeq	r0, r7, r0
    1380:	30000200 	andcc	r0, r0, r0, lsl #4
    1384:	0008a89f 	muleq	r8, pc, r8	; <UNPREDICTABLE>
    1388:	0008bc00 	andeq	fp, r8, r0, lsl #24
    138c:	30000200 	andcc	r0, r0, r0, lsl #4
    1390:	0009109f 	muleq	r9, pc, r0	; <UNPREDICTABLE>
    1394:	00092000 	andeq	r2, r9, r0
    1398:	30000200 	andcc	r0, r0, r0, lsl #4
    139c:	0000009f 	muleq	r0, pc, r0	; <UNPREDICTABLE>
    13a0:	00000000 	andeq	r0, r0, r0
    13a4:	00000100 	andeq	r0, r0, r0, lsl #2
    13a8:	fc000000 	stc2	0, cr0, [r0], {-0}
    13ac:	e0000005 	and	r0, r0, r5
    13b0:	01000006 	tsteq	r0, r6
    13b4:	08a85500 	stmiaeq	r8!, {r8, sl, ip, lr}
    13b8:	08bc0000 	ldmeq	ip!, {}	; <UNPREDICTABLE>
    13bc:	00010000 	andeq	r0, r1, r0
    13c0:	00091055 	andeq	r1, r9, r5, asr r0
    13c4:	00092000 	andeq	r2, r9, r0
    13c8:	55000100 	strpl	r0, [r0, #-256]	; 0xffffff00
	...
    13d4:	00000001 	andeq	r0, r0, r1
    13d8:	00000000 	andeq	r0, r0, r0
    13dc:	000005fc 	strdeq	r0, [r0], -ip
    13e0:	000006e0 	andeq	r0, r0, r0, ror #13
    13e4:	d0910004 	addsle	r0, r1, r4
    13e8:	06e09f7d 			; <UNDEFINED> instruction: 0x06e09f7d
    13ec:	07000000 	streq	r0, [r0, -r0]
    13f0:	00010000 	andeq	r0, r1, r0
    13f4:	0008a855 	andeq	sl, r8, r5, asr r8
    13f8:	0008bc00 	andeq	fp, r8, r0, lsl #24
    13fc:	91000400 	tstls	r0, r0, lsl #8
    1400:	109f7dd0 			; <UNDEFINED> instruction: 0x109f7dd0
    1404:	20000009 	andcs	r0, r0, r9
    1408:	04000009 	streq	r0, [r0], #-9
    140c:	7dd09100 	ldfvcp	f1, [r0]
    1410:	0000009f 	muleq	r0, pc, r0	; <UNPREDICTABLE>
    1414:	00000000 	andeq	r0, r0, r0
    1418:	00000100 	andeq	r0, r0, r0, lsl #2
    141c:	fc000000 	stc2	0, cr0, [r0], {-0}
    1420:	00000005 	andeq	r0, r0, r5
    1424:	02000007 	andeq	r0, r0, #7, 0
    1428:	a89f3800 	ldmge	pc, {fp, ip, sp}	; <UNPREDICTABLE>
    142c:	bc000008 	stclt	0, cr0, [r0], {8}
    1430:	02000008 	andeq	r0, r0, #8, 0
    1434:	109f3800 	addsne	r3, pc, r0, lsl #16
    1438:	20000009 	andcs	r0, r0, r9
    143c:	02000009 	andeq	r0, r0, #9, 0
    1440:	009f3800 	addseq	r3, pc, r0, lsl #16
    1444:	00000000 	andeq	r0, r0, r0
    1448:	04000000 	streq	r0, [r0], #-0
    144c:	00000707 	andeq	r0, r0, r7, lsl #14
	...
    1458:	0005fc00 	andeq	pc, r5, r0, lsl #24
    145c:	0005fc00 	andeq	pc, r5, r0, lsl #24
    1460:	91000400 	tstls	r0, r0, lsl #8
    1464:	fc9f7ed0 	ldc2	14, cr7, [pc], {208}	; 0xd0
    1468:	78000005 	stmdavc	r0, {r0, r2}
    146c:	04000006 	streq	r0, [r0], #-6
    1470:	7ed19100 	atnvcs	f1, f0
    1474:	0006789f 	muleq	r6, pc, r8	; <UNPREDICTABLE>
    1478:	0006d400 	andeq	sp, r6, r0, lsl #8
    147c:	5c000100 	stfpls	f0, [r0], {-0}
    1480:	000006d4 	ldrdeq	r0, [r0], -r4
    1484:	00000700 	andeq	r0, r0, r0, lsl #14
    1488:	d1910004 	orrsle	r0, r1, r4
    148c:	08a89f7e 	stmiaeq	r8!, {r1, r2, r3, r4, r5, r6, r8, r9, sl, fp, ip, pc}
    1490:	08bc0000 	ldmeq	ip!, {}	; <UNPREDICTABLE>
    1494:	00040000 	andeq	r0, r4, r0
    1498:	9f7ed191 	svcls	0x007ed191
    149c:	00000910 	andeq	r0, r0, r0, lsl r9
    14a0:	00000914 	andeq	r0, r0, r4, lsl r9
    14a4:	d1910004 	orrsle	r0, r1, r4
    14a8:	09149f7e 	ldmdbeq	r4, {r1, r2, r3, r4, r5, r6, r8, r9, sl, fp, ip, pc}
    14ac:	09200000 	stmdbeq	r0!, {}	; <UNPREDICTABLE>
    14b0:	00010000 	andeq	r0, r1, r0
    14b4:	0000005c 	andeq	r0, r0, ip, asr r0
    14b8:	00000000 	andeq	r0, r0, r0
    14bc:	00010400 	andeq	r0, r1, r0, lsl #8
    14c0:	08000001 	stmdaeq	r0, {r0}
    14c4:	d0000006 	andle	r0, r0, r6
    14c8:	01000006 	tsteq	r0, r6
    14cc:	08a85500 	stmiaeq	r8!, {r8, sl, ip, lr}
    14d0:	08b80000 	ldmeq	r8!, {}	; <UNPREDICTABLE>
    14d4:	00010000 	andeq	r0, r1, r0
    14d8:	00091055 	andeq	r1, r9, r5, asr r0
    14dc:	00092000 	andeq	r2, r9, r0
    14e0:	55000100 	strpl	r0, [r0, #-256]	; 0xffffff00
	...
    14ec:	00000004 	andeq	r0, r0, r4
    14f0:	00000100 	andeq	r0, r0, r0, lsl #2
    14f4:	00000100 	andeq	r0, r0, r0, lsl #2
    14f8:	00000608 	andeq	r0, r0, r8, lsl #12
    14fc:	000006b0 			; <UNDEFINED> instruction: 0x000006b0
    1500:	d0910004 	addsle	r0, r1, r4
    1504:	06b09f7e 			; <UNDEFINED> instruction: 0x06b09f7e
    1508:	06c80000 	strbeq	r0, [r8], r0
    150c:	00010000 	andeq	r0, r1, r0
    1510:	0006c850 	andeq	ip, r6, r0, asr r8
    1514:	0006d000 	andeq	sp, r6, r0
    1518:	91000400 	tstls	r0, r0, lsl #8
    151c:	a89f7ed0 	ldmge	pc, {r4, r6, r7, r9, sl, fp, ip, sp, lr}	; <UNPREDICTABLE>
    1520:	b0000008 	andlt	r0, r0, r8
    1524:	04000008 	streq	r0, [r0], #-8
    1528:	7ed09100 	atnvcs	f1, f0
    152c:	0008b09f 	muleq	r8, pc, r0	; <UNPREDICTABLE>
    1530:	0008b800 	andeq	fp, r8, r0, lsl #16
    1534:	53000100 	movwpl	r0, #256	; 0x100
    1538:	00000910 	andeq	r0, r0, r0, lsl r9
    153c:	00000920 	andeq	r0, r0, r0, lsr #18
    1540:	d0910004 	addsle	r0, r1, r4
    1544:	00009f7e 	andeq	r9, r0, lr, ror pc
    1548:	00000000 	andeq	r0, r0, r0
    154c:	00040000 	andeq	r0, r4, r0
    1550:	01010100 	mrseq	r0, (UNDEF: 17)
    1554:	02030301 	andeq	r0, r3, #67108864	; 0x4000000
    1558:	00000100 	andeq	r0, r0, r0, lsl #2
    155c:	06080000 	streq	r0, [r8], -r0
    1560:	06240000 	strteq	r0, [r4], -r0
    1564:	00040000 	andeq	r0, r4, r0
    1568:	9f7ed191 	svcls	0x007ed191
    156c:	00000684 	andeq	r0, r0, r4, lsl #13
    1570:	00000684 	andeq	r0, r0, r4, lsl #13
    1574:	84500001 	ldrbhi	r0, [r0], #-1
    1578:	98000006 	stmdals	r0, {r1, r2}
    157c:	03000006 	movweq	r0, #6
    1580:	9f017000 	svcls	0x00017000
    1584:	00000698 	muleq	r0, r8, r6
    1588:	000006a4 	andeq	r0, r0, r4, lsr #13
    158c:	02700003 	rsbseq	r0, r0, #3, 0
    1590:	0006a49f 	muleq	r6, pc, r4	; <UNPREDICTABLE>
    1594:	0006a800 	andeq	sl, r6, r0, lsl #16
    1598:	70000300 	andvc	r0, r0, r0, lsl #6
    159c:	08a89f03 	stmiaeq	r8!, {r0, r1, r8, r9, sl, fp, ip, pc}
    15a0:	08b80000 	ldmeq	r8!, {}	; <UNPREDICTABLE>
    15a4:	00040000 	andeq	r0, r4, r0
    15a8:	9f7ed191 	svcls	0x007ed191
    15ac:	00000910 	andeq	r0, r0, r0, lsl r9
    15b0:	00000914 	andeq	r0, r0, r4, lsl r9
    15b4:	d1910004 	orrsle	r0, r1, r4
    15b8:	09149f7e 	ldmdbeq	r4, {r1, r2, r3, r4, r5, r6, r8, r9, sl, fp, ip, pc}
    15bc:	09200000 	stmdbeq	r0!, {}	; <UNPREDICTABLE>
    15c0:	00010000 	andeq	r0, r1, r0
    15c4:	0000005c 	andeq	r0, r0, ip, asr r0
    15c8:	00000000 	andeq	r0, r0, r0
    15cc:	00000600 	andeq	r0, r0, r0, lsl #12
    15d0:	01010101 	tsteq	r1, r1, lsl #2
    15d4:	00020101 	andeq	r0, r2, r1, lsl #2
    15d8:	08000001 	stmdaeq	r0, {r0}
    15dc:	24000006 	strcs	r0, [r0], #-6
    15e0:	02000006 	andeq	r0, r0, #6, 0
    15e4:	849f3100 	ldrhi	r3, [pc], #256	; 15ec <__code_start__-0x6a14>
    15e8:	94000006 	strls	r0, [r0], #-6
    15ec:	01000006 	tsteq	r0, r6
    15f0:	06945200 	ldreq	r5, [r4], r0, lsl #4
    15f4:	06a40000 	strteq	r0, [r4], r0
    15f8:	00010000 	andeq	r0, r1, r0
    15fc:	0006a459 	andeq	sl, r6, r9, asr r4
    1600:	0006a800 	andeq	sl, r6, r0, lsl #16
    1604:	52000100 	andpl	r0, r0, #0
    1608:	000006a8 	andeq	r0, r0, r8, lsr #13
    160c:	000006a8 	andeq	r0, r0, r8, lsr #13
    1610:	01720003 	cmneq	r2, r3
    1614:	0008a89f 	muleq	r8, pc, r8	; <UNPREDICTABLE>
    1618:	0008b800 	andeq	fp, r8, r0, lsl #16
    161c:	31000200 	mrscc	r0, R8_usr
    1620:	0009109f 	muleq	r9, pc, r0	; <UNPREDICTABLE>
    1624:	00092000 	andeq	r2, r9, r0
    1628:	31000200 	mrscc	r0, R8_usr
    162c:	0000009f 	muleq	r0, pc, r0	; <UNPREDICTABLE>
    1630:	00000000 	andeq	r0, r0, r0
    1634:	06060100 	streq	r0, [r6], -r0, lsl #2
    1638:	d0000100 	andle	r0, r0, r0, lsl #2
    163c:	d0000006 	andle	r0, r0, r6
    1640:	04000006 	streq	r0, [r0], #-6
    1644:	7ed09100 	atnvcs	f1, f0
    1648:	0006d09f 	muleq	r6, pc, r0	; <UNPREDICTABLE>
    164c:	00070000 	andeq	r0, r7, r0
    1650:	50000100 	andpl	r0, r0, r0, lsl #2
    1654:	000008b8 			; <UNDEFINED> instruction: 0x000008b8
    1658:	000008bc 			; <UNDEFINED> instruction: 0x000008bc
    165c:	00530001 	subseq	r0, r3, r1
    1660:	00000000 	andeq	r0, r0, r0
    1664:	01000000 	mrseq	r0, (UNDEF: 0)
    1668:	00000008 	andeq	r0, r0, r8
    166c:	01000101 	tsteq	r0, r1, lsl #2
    1670:	0006d007 	andeq	sp, r6, r7
    1674:	0006d000 	andeq	sp, r6, r0
    1678:	7c000600 	stcvc	6, cr0, [r0], {-0}
    167c:	22007100 	andcs	r7, r0, #0
    1680:	0006e49f 	muleq	r6, pc, r4	; <UNPREDICTABLE>
    1684:	0006e800 	andeq	lr, r6, r0, lsl #16
    1688:	73000300 	movwvc	r0, #768	; 0x300
    168c:	06e89f7f 			; <UNDEFINED> instruction: 0x06e89f7f
    1690:	06f00000 	ldrbteq	r0, [r0], r0
    1694:	00010000 	andeq	r0, r1, r0
    1698:	0006f053 	andeq	pc, r6, r3, asr r0	; <UNPREDICTABLE>
    169c:	0006f800 	andeq	pc, r6, r0, lsl #16
    16a0:	73000300 	movwvc	r0, #768	; 0x300
    16a4:	08b89f7f 	ldmeq	r8!, {r0, r1, r2, r3, r4, r5, r6, r8, r9, sl, fp, ip, pc}
    16a8:	08b80000 	ldmeq	r8!, {}	; <UNPREDICTABLE>
    16ac:	00040000 	andeq	r0, r4, r0
    16b0:	9f7ed191 	svcls	0x007ed191
	...
    16bc:	00010001 	andeq	r0, r1, r1
    16c0:	000006d0 	ldrdeq	r0, [r0], -r0	; <UNPREDICTABLE>
    16c4:	00000700 	andeq	r0, r0, r0, lsl #14
    16c8:	80080003 	andhi	r0, r8, r3
    16cc:	0008b89f 	muleq	r8, pc, r8	; <UNPREDICTABLE>
    16d0:	0008bc00 	andeq	fp, r8, r0, lsl #24
    16d4:	08000300 	stmdaeq	r0, {r8, r9}
    16d8:	00009f80 	andeq	r9, r0, r0, lsl #31
    16dc:	00000000 	andeq	r0, r0, r0
    16e0:	00010000 	andeq	r0, r1, r0
    16e4:	01000000 	mrseq	r0, (UNDEF: 0)
    16e8:	00000001 	andeq	r0, r0, r1
    16ec:	00010102 	andeq	r0, r1, r2, lsl #2
    16f0:	000006d0 	ldrdeq	r0, [r0], -r0	; <UNPREDICTABLE>
    16f4:	000006e0 	andeq	r0, r0, r0, ror #13
    16f8:	d0910004 	addsle	r0, r1, r4
    16fc:	06e09f7d 			; <UNDEFINED> instruction: 0x06e09f7d
    1700:	06e40000 	strbteq	r0, [r4], r0
    1704:	00010000 	andeq	r0, r1, r0
    1708:	0006e455 	andeq	lr, r6, r5, asr r4
    170c:	0006e400 	andeq	lr, r6, r0, lsl #8
    1710:	72000300 	andvc	r0, r0, #0, 6
    1714:	06e49f01 	strbteq	r9, [r4], r1, lsl #30
    1718:	06f00000 	ldrbteq	r0, [r0], r0
    171c:	00030000 	andeq	r0, r3, r0
    1720:	f09f0272 			; <UNDEFINED> instruction: 0xf09f0272
    1724:	00000006 	andeq	r0, r0, r6
    1728:	03000007 	movweq	r0, #7
    172c:	9f017200 	svcls	0x00017200
    1730:	000007ec 	andeq	r0, r0, ip, ror #15
    1734:	000007f4 	strdeq	r0, [r0], -r4
    1738:	01730003 	cmneq	r3, r3
    173c:	0008b89f 	muleq	r8, pc, r8	; <UNPREDICTABLE>
    1740:	0008bc00 	andeq	fp, r8, r0, lsl #24
    1744:	91000400 	tstls	r0, r0, lsl #8
    1748:	009f7dd0 			; <UNDEFINED> instruction: 0x009f7dd0
    174c:	00000000 	andeq	r0, r0, r0
    1750:	04000000 	streq	r0, [r0], #-0
    1754:	0008b800 	andeq	fp, r8, r0, lsl #16
    1758:	0008bc00 	andeq	fp, r8, r0, lsl #24
    175c:	32000200 	andcc	r0, r0, #0, 4
    1760:	0000009f 	muleq	r0, pc, r0	; <UNPREDICTABLE>
    1764:	00000000 	andeq	r0, r0, r0
    1768:	00000700 	andeq	r0, r0, r0, lsl #14
    176c:	d0000600 	andle	r0, r0, r0, lsl #12
    1770:	e0000006 	and	r0, r0, r6
    1774:	04000006 	streq	r0, [r0], #-6
    1778:	7dd09100 	ldfvcp	f1, [r0]
    177c:	0006e09f 	muleq	r6, pc, r0	; <UNPREDICTABLE>
    1780:	00070000 	andeq	r0, r7, r0
    1784:	55000100 	strpl	r0, [r0, #-256]	; 0xffffff00
    1788:	000008b8 			; <UNDEFINED> instruction: 0x000008b8
    178c:	000008bc 			; <UNDEFINED> instruction: 0x000008bc
    1790:	d0910004 	addsle	r0, r1, r4
    1794:	00009f7d 	andeq	r9, r0, sp, ror pc
    1798:	00000000 	andeq	r0, r0, r0
    179c:	00010000 	andeq	r0, r1, r0
    17a0:	070c0000 	streq	r0, [ip, -r0]
    17a4:	07ec0000 	strbeq	r0, [ip, r0]!
    17a8:	00030000 	andeq	r0, r3, r0
    17ac:	949f8008 	ldrls	r8, [pc], #8	; 17b4 <__code_start__-0x684c>
    17b0:	a8000008 	stmdage	r0, {r3}
    17b4:	03000008 	movweq	r0, #8
    17b8:	9f800800 	svcls	0x00800800
	...
    17c8:	0000070c 	andeq	r0, r0, ip, lsl #14
    17cc:	000007ec 	andeq	r0, r0, ip, ror #15
    17d0:	9f300002 	svcls	0x00300002
    17d4:	00000894 	muleq	r0, r4, r8
    17d8:	000008a8 	andeq	r0, r0, r8, lsr #17
    17dc:	9f300002 	svcls	0x00300002
	...
    17ec:	0000070c 	andeq	r0, r0, ip, lsl #14
    17f0:	000007d0 	ldrdeq	r0, [r0], -r0	; <UNPREDICTABLE>
    17f4:	94550001 	ldrbls	r0, [r5], #-1
    17f8:	a8000008 	stmdage	r0, {r3}
    17fc:	01000008 	tsteq	r0, r8
    1800:	00005500 	andeq	r5, r0, r0, lsl #10
	...
    1810:	0000070c 	andeq	r0, r0, ip, lsl #14
    1814:	000007d0 	ldrdeq	r0, [r0], -r0	; <UNPREDICTABLE>
    1818:	d0910004 	addsle	r0, r1, r4
    181c:	07d09f7d 			; <UNDEFINED> instruction: 0x07d09f7d
    1820:	07ec0000 	strbeq	r0, [ip, r0]!
    1824:	00010000 	andeq	r0, r1, r0
    1828:	00089455 	andeq	r9, r8, r5, asr r4
    182c:	0008a800 	andeq	sl, r8, r0, lsl #16
    1830:	91000400 	tstls	r0, r0, lsl #8
    1834:	009f7dd0 			; <UNDEFINED> instruction: 0x009f7dd0
	...
    1840:	0c000000 	stceq	0, cr0, [r0], {-0}
    1844:	ec000007 	stc	0, cr0, [r0], {7}
    1848:	02000007 	andeq	r0, r0, #7, 0
    184c:	949f3200 	ldrls	r3, [pc], #512	; 1854 <__code_start__-0x67ac>
    1850:	a8000008 	stmdage	r0, {r3}
    1854:	02000008 	andeq	r0, r0, #8, 0
    1858:	009f3200 	addseq	r3, pc, r0, lsl #4
    185c:	00000000 	andeq	r0, r0, r0
    1860:	03000000 	movweq	r0, #0
    1864:	00000505 	andeq	r0, r0, r5, lsl #10
    1868:	00000000 	andeq	r0, r0, r0
    186c:	00070c00 	andeq	r0, r7, r0, lsl #24
    1870:	00070c00 	andeq	r0, r7, r0, lsl #24
    1874:	51000100 	mrspl	r0, (UNDEF: 16)
    1878:	0000070c 	andeq	r0, r0, ip, lsl #14
    187c:	0000071c 	andeq	r0, r0, ip, lsl r7
    1880:	1c530001 	mrrcne	0, 0, r0, r3, cr1
    1884:	24000007 	strcs	r0, [r0], #-7
    1888:	03000007 	movweq	r0, #7
    188c:	9f017200 	svcls	0x00017200
    1890:	00000724 	andeq	r0, r0, r4, lsr #14
    1894:	000007cc 	andeq	r0, r0, ip, asr #15
    1898:	94530001 	ldrbls	r0, [r3], #-1
    189c:	a8000008 	stmdage	r0, {r3}
    18a0:	01000008 	tsteq	r0, r8
    18a4:	00005300 	andeq	r5, r0, r0, lsl #6
    18a8:	00000000 	andeq	r0, r0, r0
    18ac:	00050000 	andeq	r0, r5, r0
    18b0:	070c0001 	streq	r0, [ip, -r1]
    18b4:	07200000 	streq	r0, [r0, -r0]!
    18b8:	00010000 	andeq	r0, r1, r0
    18bc:	00072450 	andeq	r2, r7, r0, asr r4
    18c0:	00072c00 	andeq	r2, r7, r0, lsl #24
    18c4:	50000100 	andpl	r0, r0, r0, lsl #2
	...
    18d0:	01000103 	tsteq	r0, r3, lsl #2
    18d4:	00000728 	andeq	r0, r0, r8, lsr #14
    18d8:	000007b0 			; <UNDEFINED> instruction: 0x000007b0
    18dc:	94550001 	ldrbls	r0, [r5], #-1
    18e0:	a0000008 	andge	r0, r0, r8
    18e4:	01000008 	tsteq	r0, r8
    18e8:	00005500 	andeq	r5, r0, r0, lsl #10
    18ec:	00000000 	andeq	r0, r0, r0
    18f0:	01030000 	mrseq	r0, (UNDEF: 3)
    18f4:	07280100 	streq	r0, [r8, -r0, lsl #2]!
    18f8:	07b00000 	ldreq	r0, [r0, r0]!
    18fc:	00010000 	andeq	r0, r1, r0
    1900:	00089451 	andeq	r9, r8, r1, asr r4
    1904:	0008a000 	andeq	sl, r8, r0
    1908:	51000100 	mrspl	r0, (UNDEF: 16)
	...
    1914:	01000003 	tsteq	r0, r3
    1918:	03010101 	movweq	r0, #4353	; 0x1101
    191c:	01000203 	tsteq	r0, r3, lsl #4
    1920:	00000728 	andeq	r0, r0, r8, lsr #14
    1924:	00000750 	andeq	r0, r0, r0, asr r7
    1928:	74530001 	ldrbvc	r0, [r3], #-1
    192c:	74000007 	strvc	r0, [r0], #-7
    1930:	01000007 	tsteq	r0, r7
    1934:	07745e00 	ldrbeq	r5, [r4, -r0, lsl #28]!
    1938:	07880000 	streq	r0, [r8, r0]
    193c:	00030000 	andeq	r0, r3, r0
    1940:	889f017e 	ldmhi	pc, {r1, r2, r3, r4, r5, r6, r8}	; <UNPREDICTABLE>
    1944:	94000007 	strls	r0, [r0], #-7
    1948:	03000007 	movweq	r0, #7
    194c:	9f027e00 	svcls	0x00027e00
    1950:	00000794 	muleq	r0, r4, r7
    1954:	00000798 	muleq	r0, r8, r7
    1958:	037e0003 	cmneq	lr, #3, 0
    195c:	0008949f 	muleq	r8, pc, r4	; <UNPREDICTABLE>
    1960:	0008a000 	andeq	sl, r8, r0
    1964:	53000100 	movwpl	r0, #256	; 0x100
	...
    1970:	01000000 	mrseq	r0, (UNDEF: 0)
    1974:	01010101 	tsteq	r1, r1, lsl #2
    1978:	01000201 	tsteq	r0, r1, lsl #4
    197c:	0000072c 	andeq	r0, r0, ip, lsr #14
    1980:	00000750 	andeq	r0, r0, r0, asr r7
    1984:	74500001 	ldrbvc	r0, [r0], #-1
    1988:	84000007 	strhi	r0, [r0], #-7
    198c:	01000007 	tsteq	r0, r7
    1990:	07845000 	streq	r5, [r4, r0]
    1994:	07940000 	ldreq	r0, [r4, r0]
    1998:	00010000 	andeq	r0, r1, r0
    199c:	0007945b 	andeq	r9, r7, fp, asr r4
    19a0:	00079800 	andeq	r9, r7, r0, lsl #16
    19a4:	50000100 	andpl	r0, r0, r0, lsl #2
    19a8:	00000798 	muleq	r0, r8, r7
    19ac:	00000798 	muleq	r0, r8, r7
    19b0:	01700003 	cmneq	r0, r3
    19b4:	0008949f 	muleq	r8, pc, r4	; <UNPREDICTABLE>
    19b8:	0008a000 	andeq	sl, r8, r0
    19bc:	50000100 	andpl	r0, r0, r0, lsl #2
	...
    19c8:	00010001 	andeq	r0, r1, r1
    19cc:	000007b0 			; <UNDEFINED> instruction: 0x000007b0
    19d0:	000007ec 	andeq	r0, r0, ip, ror #15
    19d4:	a0510001 	subsge	r0, r1, r1
    19d8:	a8000008 	stmdage	r0, {r3}
    19dc:	01000008 	tsteq	r0, r8
    19e0:	00005100 	andeq	r5, r0, r0, lsl #2
    19e4:	00000000 	andeq	r0, r0, r0
    19e8:	00010000 	andeq	r0, r1, r0
    19ec:	01000000 	mrseq	r0, (UNDEF: 0)
    19f0:	00010001 	andeq	r0, r1, r1
    19f4:	000007b0 			; <UNDEFINED> instruction: 0x000007b0
    19f8:	000007b4 			; <UNDEFINED> instruction: 0x000007b4
    19fc:	00730006 	rsbseq	r0, r3, r6
    1a00:	9f22007c 	svcls	0x0022007c
    1a04:	000007d4 	ldrdeq	r0, [r0], -r4
    1a08:	000007d8 	ldrdeq	r0, [r0], -r8
    1a0c:	7f730003 	svcvc	0x00730003
    1a10:	0007d89f 	muleq	r7, pc, r8	; <UNPREDICTABLE>
    1a14:	0007e000 	andeq	lr, r7, r0
    1a18:	53000100 	movwpl	r0, #256	; 0x100
    1a1c:	000007e0 	andeq	r0, r0, r0, ror #15
    1a20:	000007e8 	andeq	r0, r0, r8, ror #15
    1a24:	7f730003 	svcvc	0x00730003
    1a28:	0008a09f 	muleq	r8, pc, r0	; <UNPREDICTABLE>
    1a2c:	0008a800 	andeq	sl, r8, r0, lsl #16
    1a30:	53000100 	movwpl	r0, #256	; 0x100
	...
    1a3c:	00010001 	andeq	r0, r1, r1
    1a40:	000007b0 			; <UNDEFINED> instruction: 0x000007b0
    1a44:	000007ec 	andeq	r0, r0, ip, ror #15
    1a48:	80080003 	andhi	r0, r8, r3
    1a4c:	0008a09f 	muleq	r8, pc, r0	; <UNPREDICTABLE>
    1a50:	0008a800 	andeq	sl, r8, r0, lsl #16
    1a54:	08000300 	stmdaeq	r0, {r8, r9}
    1a58:	00009f80 	andeq	r9, r0, r0, lsl #31
    1a5c:	00000000 	andeq	r0, r0, r0
    1a60:	00010000 	andeq	r0, r1, r0
    1a64:	01000000 	mrseq	r0, (UNDEF: 0)
    1a68:	00000001 	andeq	r0, r0, r1
    1a6c:	07b00001 	ldreq	r0, [r0, r1]!
    1a70:	07d00000 	ldrbeq	r0, [r0, r0]
    1a74:	00040000 	andeq	r0, r4, r0
    1a78:	9f7dd091 	svcls	0x007dd091
    1a7c:	000007d0 	ldrdeq	r0, [r0], -r0	; <UNPREDICTABLE>
    1a80:	000007d4 	ldrdeq	r0, [r0], -r4
    1a84:	d4550001 	ldrble	r0, [r5], #-1
    1a88:	d4000007 	strle	r0, [r0], #-7
    1a8c:	03000007 	movweq	r0, #7
    1a90:	9f017c00 	svcls	0x00017c00
    1a94:	000007d4 	ldrdeq	r0, [r0], -r4
    1a98:	000007e0 	andeq	r0, r0, r0, ror #15
    1a9c:	027c0003 	rsbseq	r0, ip, #3, 0
    1aa0:	0007e09f 	muleq	r7, pc, r0	; <UNPREDICTABLE>
    1aa4:	0007ec00 	andeq	lr, r7, r0, lsl #24
    1aa8:	7c000300 	stcvc	3, cr0, [r0], {-0}
    1aac:	08a09f01 	stmiaeq	r0!, {r0, r8, r9, sl, fp, ip, pc}
    1ab0:	08a80000 	stmiaeq	r8!, {}	; <UNPREDICTABLE>
    1ab4:	00040000 	andeq	r0, r4, r0
    1ab8:	9f7dd091 	svcls	0x007dd091
	...
    1ac4:	00040004 	andeq	r0, r4, r4
    1ac8:	000007b0 			; <UNDEFINED> instruction: 0x000007b0
    1acc:	000007b4 			; <UNDEFINED> instruction: 0x000007b4
    1ad0:	01700003 	cmneq	r0, r3
    1ad4:	0008a09f 	muleq	r8, pc, r0	; <UNPREDICTABLE>
    1ad8:	0008a800 	andeq	sl, r8, r0, lsl #16
    1adc:	70000300 	andvc	r0, r0, r0, lsl #6
    1ae0:	00009f01 	andeq	r9, r0, r1, lsl #30
    1ae4:	00000000 	andeq	r0, r0, r0
    1ae8:	00010000 	andeq	r0, r1, r0
    1aec:	07bc0000 	ldreq	r0, [ip, r0]!
    1af0:	07d00000 	ldrbeq	r0, [r0, r0]
    1af4:	00040000 	andeq	r0, r4, r0
    1af8:	9f7dd091 	svcls	0x007dd091
    1afc:	000007d0 	ldrdeq	r0, [r0], -r0	; <UNPREDICTABLE>
    1b00:	000007ec 	andeq	r0, r0, ip, ror #15
    1b04:	00550001 	subseq	r0, r5, r1
	...
    1b10:	28000000 	stmdacs	r0, {}	; <UNPREDICTABLE>
    1b14:	64000003 	strvs	r0, [r0], #-3
    1b18:	01000003 	tsteq	r0, r3
    1b1c:	03645000 	cmneq	r4, #0, 0
    1b20:	03880000 	orreq	r0, r8, #0, 0
    1b24:	00040000 	andeq	r0, r4, r0
    1b28:	9f5001f3 	svcls	0x005001f3
	...
    1b38:	00000328 	andeq	r0, r0, r8, lsr #6
    1b3c:	0000035c 	andeq	r0, r0, ip, asr r3
    1b40:	5c510001 	mrrcpl	0, 0, r0, r1, cr1
    1b44:	88000003 	stmdahi	r0, {r0, r1}
    1b48:	04000003 	streq	r0, [r0], #-3
    1b4c:	5101f300 	mrspl	pc, SP_irq	; <UNPREDICTABLE>
    1b50:	0000009f 	muleq	r0, pc, r0	; <UNPREDICTABLE>
	...
    1b74:	00001400 	andeq	r1, r0, r0, lsl #8
    1b78:	50000100 	andpl	r0, r0, r0, lsl #2
    1b7c:	00000014 	andeq	r0, r0, r4, lsl r0
    1b80:	00000020 	andeq	r0, r0, r0, lsr #32
    1b84:	205c0001 	subscs	r0, ip, r1
    1b88:	68000000 	stmdavs	r0, {}	; <UNPREDICTABLE>
    1b8c:	03000000 	movweq	r0, #0
    1b90:	9f027100 	svcls	0x00027100
    1b94:	00000068 	andeq	r0, r0, r8, rrx
    1b98:	0000006c 	andeq	r0, r0, ip, rrx
    1b9c:	02730003 	rsbseq	r0, r3, #3, 0
    1ba0:	00006c9f 	muleq	r0, pc, ip	; <UNPREDICTABLE>
    1ba4:	00019400 	andeq	r9, r1, r0, lsl #8
    1ba8:	f3000400 	vshl.u8	d0, d0, d0
    1bac:	949f5001 	ldrls	r5, [pc], #1	; 1bb4 <__code_start__-0x644c>
    1bb0:	98000001 	stmdals	r0, {r0}
    1bb4:	03000001 	movweq	r0, #1
    1bb8:	9f027300 	svcls	0x00027300
    1bbc:	00000198 	muleq	r0, r8, r1
    1bc0:	000001c0 	andeq	r0, r0, r0, asr #3
    1bc4:	01f30004 	mvnseq	r0, r4
    1bc8:	01c09f50 	biceq	r9, r0, r0, asr pc
    1bcc:	01c80000 	biceq	r0, r8, r0
    1bd0:	00010000 	andeq	r0, r1, r0
    1bd4:	0001c85c 	andeq	ip, r1, ip, asr r8
    1bd8:	00021400 	andeq	r1, r2, r0, lsl #8
    1bdc:	73000300 	movwvc	r0, #768	; 0x300
    1be0:	02149f02 	andseq	r9, r4, #2, 30
    1be4:	02ec0000 	rsceq	r0, ip, #0, 0
    1be8:	00040000 	andeq	r0, r4, r0
    1bec:	9f5001f3 	svcls	0x005001f3
    1bf0:	000002ec 	andeq	r0, r0, ip, ror #5
    1bf4:	000002f4 	strdeq	r0, [r0], -r4
    1bf8:	02730003 	rsbseq	r0, r3, #3, 0
    1bfc:	0002f49f 	muleq	r2, pc, r4	; <UNPREDICTABLE>
    1c00:	00032800 	andeq	r2, r3, r0, lsl #16
    1c04:	f3000400 	vshl.u8	d0, d0, d0
    1c08:	009f5001 	addseq	r5, pc, r1
	...
    1c1c:	1c000000 	stcne	0, cr0, [r0], {-0}
    1c20:	01000000 	mrseq	r0, (UNDEF: 0)
    1c24:	001c5100 	andseq	r5, ip, r0, lsl #2
    1c28:	02e00000 	rsceq	r0, r0, #0, 0
    1c2c:	00010000 	andeq	r0, r1, r0
    1c30:	0002e050 	andeq	lr, r2, r0, asr r0
    1c34:	0002ec00 	andeq	lr, r2, r0, lsl #24
    1c38:	f3000400 	vshl.u8	d0, d0, d0
    1c3c:	ec9f5101 	ldfs	f5, [pc], {1}
    1c40:	28000002 	stmdacs	r0, {r1}
    1c44:	01000003 	tsteq	r0, r3
    1c48:	00005000 	andeq	r5, r0, r0
	...
    1c54:	01000000 	mrseq	r0, (UNDEF: 0)
    1c58:	00000000 	andeq	r0, r0, r0
    1c5c:	02000000 	andeq	r0, r0, #0, 0
    1c60:	00000002 	andeq	r0, r0, r2
	...
    1c74:	00700000 	rsbseq	r0, r0, r0
    1c78:	00010000 	andeq	r0, r1, r0
    1c7c:	00007052 	andeq	r7, r0, r2, asr r0
    1c80:	00007800 	andeq	r7, r0, r0, lsl #16
    1c84:	5c000100 	stfpls	f0, [r0], {-0}
    1c88:	00000078 	andeq	r0, r0, r8, ror r0
    1c8c:	000000a4 	andeq	r0, r0, r4, lsr #1
    1c90:	01f30004 	mvnseq	r0, r4
    1c94:	01949f52 	orrseq	r9, r4, r2, asr pc
    1c98:	019c0000 	orrseq	r0, ip, r0
    1c9c:	00010000 	andeq	r0, r1, r0
    1ca0:	00019c52 	andeq	r9, r1, r2, asr ip
    1ca4:	0001a400 	andeq	sl, r1, r0, lsl #8
    1ca8:	5c000100 	stfpls	f0, [r0], {-0}
    1cac:	000001a4 	andeq	r0, r0, r4, lsr #3
    1cb0:	000001c0 	andeq	r0, r0, r0, asr #3
    1cb4:	01f30004 	mvnseq	r0, r4
    1cb8:	01c09f52 	biceq	r9, r0, r2, asr pc
    1cbc:	02200000 	eoreq	r0, r0, #0, 0
    1cc0:	00010000 	andeq	r0, r1, r0
    1cc4:	00022052 	andeq	r2, r2, r2, asr r0
    1cc8:	00022800 	andeq	r2, r2, r0, lsl #16
    1ccc:	72000400 	andvc	r0, r0, #0, 8
    1cd0:	289f1f00 	ldmcs	pc, {r8, r9, sl, fp, ip}	; <UNPREDICTABLE>
    1cd4:	74000002 	strvc	r0, [r0], #-2
    1cd8:	05000002 	streq	r0, [r0, #-2]
    1cdc:	5201f300 	andpl	pc, r1, #0, 6
    1ce0:	02749f1f 	rsbseq	r9, r4, #124	; 0x7c
    1ce4:	02880000 	addeq	r0, r8, #0, 0
    1ce8:	00010000 	andeq	r0, r1, r0
    1cec:	00028852 	andeq	r8, r2, r2, asr r8
    1cf0:	0002a000 	andeq	sl, r2, r0
    1cf4:	5c000100 	stfpls	f0, [r0], {-0}
    1cf8:	000002cc 	andeq	r0, r0, ip, asr #5
    1cfc:	000002d0 	ldrdeq	r0, [r0], -r0	; <UNPREDICTABLE>
    1d00:	d0520001 	subsle	r0, r2, r1
    1d04:	e7000002 	str	r0, [r0, -r2]
    1d08:	01000002 	tsteq	r0, r2
    1d0c:	02e75c00 	rsceq	r5, r7, #0, 24
    1d10:	02ec0000 	rsceq	r0, ip, #0, 0
    1d14:	00040000 	andeq	r0, r4, r0
    1d18:	9f5201f3 	svcls	0x005201f3
    1d1c:	000002ec 	andeq	r0, r0, ip, ror #5
    1d20:	00000300 	andeq	r0, r0, r0, lsl #6
    1d24:	00520001 	subseq	r0, r2, r1
    1d28:	28000003 	stmdacs	r0, {r0, r1}
    1d2c:	01000003 	tsteq	r0, r3
    1d30:	00005c00 	andeq	r5, r0, r0, lsl #24
	...
    1d4c:	00000068 	andeq	r0, r0, r8, rrx
    1d50:	68530001 	ldmdavs	r3, {r0}^
    1d54:	6c000000 	stcvs	0, cr0, [r0], {-0}
    1d58:	03000000 	movweq	r0, #0
    1d5c:	9f7f0800 	svcls	0x007f0800
    1d60:	00000194 	muleq	r0, r4, r1
    1d64:	00000198 	muleq	r0, r8, r1
    1d68:	7f080003 	svcvc	0x00080003
    1d6c:	0001c09f 	muleq	r1, pc, r0	; <UNPREDICTABLE>
    1d70:	00021400 	andeq	r1, r2, r0, lsl #8
    1d74:	08000300 	stmdaeq	r0, {r8, r9}
    1d78:	02749f7f 	rsbseq	r9, r4, #508	; 0x1fc
    1d7c:	02900000 	addseq	r0, r0, #0, 0
    1d80:	00010000 	andeq	r0, r1, r0
    1d84:	00029053 	andeq	r9, r2, r3, asr r0
    1d88:	0002a000 	andeq	sl, r2, r0
    1d8c:	f3000400 	vshl.u8	d0, d0, d0
    1d90:	ec9f5301 	ldc	3, cr5, [pc], {1}
    1d94:	28000002 	stmdacs	r0, {r1}
    1d98:	03000003 	movweq	r0, #3
    1d9c:	9f7f0800 	svcls	0x007f0800
	...
    1da8:	00000001 	andeq	r0, r0, r1
    1dac:	00020200 	andeq	r0, r2, r0, lsl #4
    1db0:	00010100 	andeq	r0, r1, r0, lsl #2
    1db4:	00000000 	andeq	r0, r0, r0
    1db8:	02000000 	andeq	r0, r0, #0, 0
    1dbc:	00000002 	andeq	r0, r0, r2
    1dc0:	00000001 	andeq	r0, r0, r1
    1dc4:	00000000 	andeq	r0, r0, r0
    1dc8:	00010100 	andeq	r0, r1, r0, lsl #2
    1dcc:	02000000 	andeq	r0, r0, #0, 0
    1dd0:	00000002 	andeq	r0, r0, r2
    1dd4:	01000000 	mrseq	r0, (UNDEF: 0)
    1dd8:	00000001 	andeq	r0, r0, r1
    1ddc:	00000018 	andeq	r0, r0, r8, lsl r0
    1de0:	00000070 	andeq	r0, r0, r0, ror r0
    1de4:	a0910004 	addsge	r0, r1, r4
    1de8:	00709f7f 	rsbseq	r9, r0, pc, ror pc
    1dec:	00780000 	rsbseq	r0, r8, r0
    1df0:	00010000 	andeq	r0, r1, r0
    1df4:	00007852 	andeq	r7, r0, r2, asr r8
    1df8:	00007800 	andeq	r7, r0, r0, lsl #16
    1dfc:	54000100 	strpl	r0, [r0], #-256	; 0xffffff00
    1e00:	00000078 	andeq	r0, r0, r8, ror r0
    1e04:	00000088 	andeq	r0, r0, r8, lsl #1
    1e08:	01740003 	cmneq	r4, r3
    1e0c:	0000889f 	muleq	r0, pc, r8	; <UNPREDICTABLE>
    1e10:	00009000 	andeq	r9, r0, r0
    1e14:	54000100 	strpl	r0, [r0], #-256	; 0xffffff00
    1e18:	00000090 	muleq	r0, r0, r0
    1e1c:	000000a0 	andeq	r0, r0, r0, lsr #1
    1e20:	02740003 	rsbseq	r0, r4, #3, 0
    1e24:	0000a09f 	muleq	r0, pc, r0	; <UNPREDICTABLE>
    1e28:	0000b000 	andeq	fp, r0, r0
    1e2c:	5e000100 	adfpls	f0, f0, f0
    1e30:	00000194 	muleq	r0, r4, r1
    1e34:	0000019c 	muleq	r0, ip, r1
    1e38:	a0910004 	addsge	r0, r1, r4
    1e3c:	019c9f7f 	orrseq	r9, ip, pc, ror pc
    1e40:	01a40000 			; <UNDEFINED> instruction: 0x01a40000
    1e44:	00010000 	andeq	r0, r1, r0
    1e48:	0001a452 	andeq	sl, r1, r2, asr r4
    1e4c:	0001a400 	andeq	sl, r1, r0, lsl #8
    1e50:	5e000100 	adfpls	f0, f0, f0
    1e54:	000001a4 	andeq	r0, r0, r4, lsr #3
    1e58:	000001b4 			; <UNDEFINED> instruction: 0x000001b4
    1e5c:	017e0003 	cmneq	lr, r3
    1e60:	0001b49f 	muleq	r1, pc, r4	; <UNPREDICTABLE>
    1e64:	0001c000 	andeq	ip, r1, r0
    1e68:	5e000100 	adfpls	f0, f0, f0
    1e6c:	000001c0 	andeq	r0, r0, r0, asr #3
    1e70:	00000228 	andeq	r0, r0, r8, lsr #4
    1e74:	a0910004 	addsge	r0, r1, r4
    1e78:	02289f7f 	eoreq	r9, r8, #508	; 0x1fc
    1e7c:	02340000 	eorseq	r0, r4, #0, 0
    1e80:	00010000 	andeq	r0, r1, r0
    1e84:	00023452 	andeq	r3, r2, r2, asr r4
    1e88:	00025800 	andeq	r5, r2, r0, lsl #16
    1e8c:	5e000100 	adfpls	f0, f0, f0
    1e90:	00000258 	andeq	r0, r0, r8, asr r2
    1e94:	0000025c 	andeq	r0, r0, ip, asr r2
    1e98:	017e0003 	cmneq	lr, r3
    1e9c:	00025c9f 	muleq	r2, pc, ip	; <UNPREDICTABLE>
    1ea0:	00026400 	andeq	r6, r2, r0, lsl #8
    1ea4:	5e000100 	adfpls	f0, f0, f0
    1ea8:	00000264 	andeq	r0, r0, r4, ror #4
    1eac:	00000270 	andeq	r0, r0, r0, ror r2
    1eb0:	02710003 	rsbseq	r0, r1, #3, 0
    1eb4:	0002709f 	muleq	r2, pc, r0	; <UNPREDICTABLE>
    1eb8:	00027400 	andeq	r7, r2, r0, lsl #8
    1ebc:	5e000100 	adfpls	f0, f0, f0
    1ec0:	00000274 	andeq	r0, r0, r4, ror r2
    1ec4:	00000274 	andeq	r0, r0, r4, ror r2
    1ec8:	a0910004 	addsge	r0, r1, r4
    1ecc:	02749f7f 	rsbseq	r9, r4, #508	; 0x1fc
    1ed0:	02a00000 	adceq	r0, r0, #0, 0
    1ed4:	00040000 	andeq	r0, r4, r0
    1ed8:	9f7fa191 	svcls	0x007fa191
    1edc:	000002c0 	andeq	r0, r0, r0, asr #5
    1ee0:	000002c8 	andeq	r0, r0, r8, asr #5
    1ee4:	c85e0001 	ldmdagt	lr, {r0}^
    1ee8:	cc000002 	stcgt	0, cr0, [r0], {2}
    1eec:	01000002 	tsteq	r0, r2
    1ef0:	02cc5600 	sbceq	r5, ip, #0, 12
    1ef4:	02ec0000 	rsceq	r0, ip, #0, 0
    1ef8:	00040000 	andeq	r0, r4, r0
    1efc:	9f7fa091 	svcls	0x007fa091
    1f00:	000002ec 	andeq	r0, r0, ip, ror #5
    1f04:	000002fc 	strdeq	r0, [r0], -ip
    1f08:	a1910004 	orrsge	r0, r1, r4
    1f0c:	02fc9f7f 	rscseq	r9, ip, #508	; 0x1fc
    1f10:	03280000 			; <UNDEFINED> instruction: 0x03280000
    1f14:	00010000 	andeq	r0, r1, r0
    1f18:	0000005e 	andeq	r0, r0, lr, asr r0
	...
    1f30:	00000101 	andeq	r0, r0, r1, lsl #2
	...
    1f40:	20000000 	andcs	r0, r0, r0
    1f44:	70000000 	andvc	r0, r0, r0
    1f48:	01000000 	mrseq	r0, (UNDEF: 0)
    1f4c:	00705200 	rsbseq	r5, r0, r0, lsl #4
    1f50:	00940000 	addseq	r0, r4, r0
    1f54:	00010000 	andeq	r0, r1, r0
    1f58:	0001945c 	andeq	r9, r1, ip, asr r4
    1f5c:	00019c00 	andeq	r9, r1, r0, lsl #24
    1f60:	52000100 	andpl	r0, r0, #0
    1f64:	0000019c 	muleq	r0, ip, r1
    1f68:	000001c0 	andeq	r0, r0, r0, asr #3
    1f6c:	c85c0001 	ldmdagt	ip, {r0}^
    1f70:	10000001 	andne	r0, r0, r1
    1f74:	01000002 	tsteq	r0, r2
    1f78:	02105c00 	andseq	r5, r0, #0, 24
    1f7c:	02240000 	eoreq	r0, r4, #0, 0
    1f80:	00010000 	andeq	r0, r1, r0
    1f84:	00022452 	andeq	r2, r2, r2, asr r4
    1f88:	00024800 	andeq	r4, r2, r0, lsl #16
    1f8c:	5c000100 	stfpls	f0, [r0], {-0}
    1f90:	00000248 	andeq	r0, r0, r8, asr #4
    1f94:	0000025c 	andeq	r0, r0, ip, asr r2
    1f98:	5c550001 	mrrcpl	0, 0, r0, r5, cr1
    1f9c:	68000002 	stmdavs	r0, {r1}
    1fa0:	01000002 	tsteq	r0, r2
    1fa4:	02685c00 	rsbeq	r5, r8, #0, 24
    1fa8:	02740000 	rsbseq	r0, r4, #0, 0
    1fac:	00190000 	andseq	r0, r9, r0
    1fb0:	2cf70075 	ldclcs	0, cr0, [r7], #468	; 0x1d4
    1fb4:	007625f7 	ldrshteq	r2, [r6], #-87	; 0xffffffa9
    1fb8:	25f72cf7 	ldrbcs	r2, [r7, #3319]!	; 0xcf7
    1fbc:	f720081e 			; <UNDEFINED> instruction: 0xf720081e
    1fc0:	2cf72525 	cfldr64cs	mvdx2, [r7], #148	; 0x94
    1fc4:	253300f7 	ldrcs	r0, [r3, #-247]!	; 0xffffff09
    1fc8:	0002749f 	muleq	r2, pc, r4	; <UNPREDICTABLE>
    1fcc:	00028800 	andeq	r8, r2, r0, lsl #16
    1fd0:	52000100 	andpl	r0, r0, #0
    1fd4:	00000288 	andeq	r0, r0, r8, lsl #5
    1fd8:	000002a0 	andeq	r0, r0, r0, lsr #5
    1fdc:	cc5c0001 	mrrcgt	0, 0, r0, ip, cr1
    1fe0:	d0000002 	andle	r0, r0, r2
    1fe4:	01000002 	tsteq	r0, r2
    1fe8:	02d05200 	sbcseq	r5, r0, #0, 4
    1fec:	02e70000 	rsceq	r0, r7, #0, 0
    1ff0:	00010000 	andeq	r0, r1, r0
    1ff4:	0002e75c 	andeq	lr, r2, ip, asr r7
    1ff8:	0002ec00 	andeq	lr, r2, r0, lsl #24
    1ffc:	f3000400 	vshl.u8	d0, d0, d0
    2000:	ec9f5201 	lfm	f5, 4, [pc], {1}
    2004:	00000002 	andeq	r0, r0, r2
    2008:	01000003 	tsteq	r0, r3
    200c:	03005200 	movweq	r5, #512	; 0x200
    2010:	03280000 			; <UNDEFINED> instruction: 0x03280000
    2014:	00010000 	andeq	r0, r1, r0
    2018:	0000005c 	andeq	r0, r0, ip, asr r0
    201c:	00000000 	andeq	r0, r0, r0
    2020:	04000400 	streq	r0, [r0], #-1024	; 0xfffffc00
    2024:	00010000 	andeq	r0, r1, r0
    2028:	a4000400 	strge	r0, [r0], #-1024	; 0xfffffc00
    202c:	b0000000 	andlt	r0, r0, r0
    2030:	01000000 	mrseq	r0, (UNDEF: 0)
    2034:	027c5300 	rsbseq	r5, ip, #0, 6
    2038:	02900000 	addseq	r0, r0, #0, 0
    203c:	00010000 	andeq	r0, r1, r0
    2040:	00029053 	andeq	r9, r2, r3, asr r0
    2044:	00029c00 	andeq	r9, r2, r0, lsl #24
    2048:	f3000400 	vshl.u8	d0, d0, d0
    204c:	c09f5301 	addsgt	r5, pc, r1, lsl #6
    2050:	cc000002 	stcgt	0, cr0, [r0], {2}
    2054:	01000002 	tsteq	r0, r2
    2058:	02f05300 	rscseq	r5, r0, #0, 6
    205c:	03280000 			; <UNDEFINED> instruction: 0x03280000
    2060:	00030000 	andeq	r0, r3, r0
    2064:	009f7f08 	addseq	r7, pc, r8, lsl #30
    2068:	00000000 	andeq	r0, r0, r0
    206c:	04000000 	streq	r0, [r0], #-0
    2070:	04010000 	streq	r0, [r1], #-0
    2074:	00010000 	andeq	r0, r1, r0
    2078:	04000000 	streq	r0, [r0], #-0
    207c:	a4000000 	strge	r0, [r0], #-0
    2080:	b0000000 	andlt	r0, r0, r0
    2084:	01000000 	mrseq	r0, (UNDEF: 0)
    2088:	00b05200 	adcseq	r5, r0, r0, lsl #4
    208c:	015c0000 	cmpeq	ip, r0
    2090:	00040000 	andeq	r0, r4, r0
    2094:	9f7fa091 	svcls	0x007fa091
    2098:	0000027c 	andeq	r0, r0, ip, ror r2
    209c:	00000294 	muleq	r0, r4, r2
    20a0:	a0910004 	addsge	r0, r1, r4
    20a4:	02949f7f 	addseq	r9, r4, #508	; 0x1fc
    20a8:	029c0000 	addseq	r0, ip, #0, 0
    20ac:	00010000 	andeq	r0, r1, r0
    20b0:	0002b45e 	andeq	fp, r2, lr, asr r4
    20b4:	0002c000 	andeq	ip, r2, r0
    20b8:	91000400 	tstls	r0, r0, lsl #8
    20bc:	c09f7fa0 	addsgt	r7, pc, r0, lsr #31
    20c0:	cc000002 	stcgt	0, cr0, [r0], {2}
    20c4:	01000002 	tsteq	r0, r2
    20c8:	02f05200 	rscseq	r5, r0, #0, 4
    20cc:	03000000 	movweq	r0, #0
    20d0:	00040000 	andeq	r0, r4, r0
    20d4:	9f7fa091 	svcls	0x007fa091
    20d8:	00000300 	andeq	r0, r0, r0, lsl #6
    20dc:	00000328 	andeq	r0, r0, r8, lsr #6
    20e0:	00520001 	subseq	r0, r2, r1
    20e4:	00000000 	andeq	r0, r0, r0
    20e8:	04000000 	streq	r0, [r0], #-0
    20ec:	01010000 	mrseq	r0, (UNDEF: 1)
    20f0:	03030101 	movweq	r0, #12545	; 0x3101
    20f4:	00010402 	andeq	r0, r1, r2, lsl #8
    20f8:	04000000 	streq	r0, [r0], #-0
    20fc:	a4000000 	strge	r0, [r0], #-0
    2100:	b0000000 	andlt	r0, r0, r0
    2104:	01000000 	mrseq	r0, (UNDEF: 0)
    2108:	010c5e00 	tsteq	ip, r0, lsl #28
    210c:	010c0000 	mrseq	r0, (UNDEF: 12)
    2110:	00010000 	andeq	r0, r1, r0
    2114:	00010c55 	andeq	r0, r1, r5, asr ip
    2118:	00012000 	andeq	r2, r1, r0
    211c:	75000300 	strvc	r0, [r0, #-768]	; 0xfffffd00
    2120:	01209f01 			; <UNDEFINED> instruction: 0x01209f01
    2124:	012c0000 			; <UNDEFINED> instruction: 0x012c0000
    2128:	00030000 	andeq	r0, r3, r0
    212c:	2c9f0275 	lfmcs	f0, 4, [pc], {117}	; 0x75
    2130:	30000001 	andcc	r0, r0, r1
    2134:	03000001 	movweq	r0, #1
    2138:	9f037500 	svcls	0x00037500
    213c:	0000027c 	andeq	r0, r0, ip, ror r2
    2140:	0000029c 	muleq	r0, ip, r2
    2144:	a1910004 	orrsge	r0, r1, r4
    2148:	02c09f7f 	sbceq	r9, r0, #508	; 0x1fc
    214c:	02c80000 	sbceq	r0, r8, #0, 0
    2150:	00010000 	andeq	r0, r1, r0
    2154:	0002c85e 	andeq	ip, r2, lr, asr r8
    2158:	0002cc00 	andeq	ip, r2, r0, lsl #24
    215c:	56000100 	strpl	r0, [r0], -r0, lsl #2
    2160:	000002f0 	strdeq	r0, [r0], -r0	; <UNPREDICTABLE>
    2164:	000002fc 	strdeq	r0, [r0], -ip
    2168:	a1910004 	orrsge	r0, r1, r4
    216c:	02fc9f7f 	rscseq	r9, ip, #508	; 0x1fc
    2170:	03280000 			; <UNDEFINED> instruction: 0x03280000
    2174:	00010000 	andeq	r0, r1, r0
    2178:	0000005e 	andeq	r0, r0, lr, asr r0
	...
    2184:	01010101 	tsteq	r1, r1, lsl #2
    2188:	06020101 	streq	r0, [r2], -r1, lsl #2
    218c:	06000001 	streq	r0, [r0], -r1
    2190:	0000a800 	andeq	sl, r0, r0, lsl #16
    2194:	0000b000 	andeq	fp, r0, r0
    2198:	51000100 	mrspl	r0, (UNDEF: 16)
    219c:	0000010c 	andeq	r0, r0, ip, lsl #2
    21a0:	0000011c 	andeq	r0, r0, ip, lsl r1
    21a4:	1c5c0001 	mrrcne	0, 0, r0, ip, cr1
    21a8:	2c000001 	stccs	0, cr0, [r0], {1}
    21ac:	01000001 	tsteq	r0, r1
    21b0:	012c5800 			; <UNDEFINED> instruction: 0x012c5800
    21b4:	01300000 	teqeq	r0, r0
    21b8:	00010000 	andeq	r0, r1, r0
    21bc:	0001305c 	andeq	r3, r1, ip, asr r0
    21c0:	00013000 	andeq	r3, r1, r0
    21c4:	7c000300 	stcvc	3, cr0, [r0], {-0}
    21c8:	027c9f01 	rsbseq	r9, ip, #1, 30
    21cc:	029c0000 	addseq	r0, ip, #0, 0
    21d0:	00020000 	andeq	r0, r2, r0
    21d4:	02c09f31 	sbceq	r9, r0, #196	; 0xc4
    21d8:	02cc0000 	sbceq	r0, ip, #0, 0
    21dc:	00010000 	andeq	r0, r1, r0
    21e0:	0002f051 	andeq	pc, r2, r1, asr r0	; <UNPREDICTABLE>
    21e4:	00032800 	andeq	r2, r3, r0, lsl #16
    21e8:	31000200 	mrscc	r0, R8_usr
    21ec:	0000009f 	muleq	r0, pc, r0	; <UNPREDICTABLE>
    21f0:	00000000 	andeq	r0, r0, r0
    21f4:	06060100 	streq	r0, [r6], -r0, lsl #2
    21f8:	00000101 	andeq	r0, r0, r1, lsl #2
    21fc:	00015c01 	andeq	r5, r1, r1, lsl #24
    2200:	00015c00 	andeq	r5, r1, r0, lsl #24
    2204:	91000400 	tstls	r0, r0, lsl #8
    2208:	5c9f7fa0 	ldcpl	15, cr7, [pc], {160}	; 0xa0
    220c:	8c000001 	stchi	0, cr0, [r0], {1}
    2210:	01000001 	tsteq	r0, r1
    2214:	029c5200 	addseq	r5, ip, #0, 4
    2218:	02a00000 	adceq	r0, r0, #0, 0
    221c:	00010000 	andeq	r0, r1, r0
    2220:	0002a05e 	andeq	sl, r2, lr, asr r0
    2224:	0002ac00 	andeq	sl, r2, r0, lsl #24
    2228:	52000100 	andpl	r0, r0, #0
	...
    2234:	01000000 	mrseq	r0, (UNDEF: 0)
    2238:	07010001 	streq	r0, [r1, -r1]
    223c:	0000016c 	andeq	r0, r0, ip, ror #2
    2240:	00000170 	andeq	r0, r0, r0, ror r1
    2244:	7f730003 	svcvc	0x00730003
    2248:	0001709f 	muleq	r1, pc, r0	; <UNPREDICTABLE>
    224c:	00017800 	andeq	r7, r1, r0, lsl #16
    2250:	53000100 	movwpl	r0, #256	; 0x100
    2254:	00000178 	andeq	r0, r0, r8, ror r1
    2258:	00000184 	andeq	r0, r0, r4, lsl #3
    225c:	7f730003 	svcvc	0x00730003
    2260:	00029c9f 	muleq	r2, pc, ip	; <UNPREDICTABLE>
    2264:	00029c00 	andeq	r9, r2, r0, lsl #24
    2268:	91000400 	tstls	r0, r0, lsl #8
    226c:	009f7fa1 	addseq	r7, pc, r1, lsr #31
    2270:	00000000 	andeq	r0, r0, r0
    2274:	01000000 	mrseq	r0, (UNDEF: 0)
    2278:	5c010101 	stfpls	f0, [r1], {1}
    227c:	8c000001 	stchi	0, cr0, [r0], {1}
    2280:	03000001 	movweq	r0, #1
    2284:	9f800800 	svcls	0x00800800
    2288:	0000029c 	muleq	r0, ip, r2
    228c:	000002ac 	andeq	r0, r0, ip, lsr #5
    2290:	80080003 	andhi	r0, r8, r3
    2294:	0000009f 	muleq	r0, pc, r0	; <UNPREDICTABLE>
    2298:	00000000 	andeq	r0, r0, r0
    229c:	00000100 	andeq	r0, r0, r0, lsl #2
    22a0:	00000101 	andeq	r0, r0, r1, lsl #2
    22a4:	01010101 	tsteq	r1, r1, lsl #2
    22a8:	5c010101 	stfpls	f0, [r1], {1}
    22ac:	6c000001 	stcvs	0, cr0, [r0], {1}
    22b0:	01000001 	tsteq	r0, r1
    22b4:	016c5000 	cmneq	ip, r0
    22b8:	016c0000 	cmneq	ip, r0
    22bc:	00030000 	andeq	r0, r3, r0
    22c0:	6c9f017c 	ldfvss	f0, [pc], {124}	; 0x7c
    22c4:	78000001 	stmdavc	r0, {r0}
    22c8:	03000001 	movweq	r0, #1
    22cc:	9f027c00 	svcls	0x00027c00
    22d0:	00000178 	andeq	r0, r0, r8, ror r1
    22d4:	00000188 	andeq	r0, r0, r8, lsl #3
    22d8:	017c0003 	cmneq	ip, r3
    22dc:	0001889f 	muleq	r1, pc, r8	; <UNPREDICTABLE>
    22e0:	00018c00 	andeq	r8, r1, r0, lsl #24
    22e4:	7e000300 	cdpvc	3, 0, cr0, cr0, cr0, {0}
    22e8:	029c9f01 	addseq	r9, ip, #1, 30
    22ec:	02a40000 	adceq	r0, r4, #0, 0
    22f0:	00010000 	andeq	r0, r1, r0
    22f4:	0002a450 	andeq	sl, r2, r0, asr r4
    22f8:	0002ac00 	andeq	sl, r2, r0, lsl #24
    22fc:	7e000300 	cdpvc	3, 0, cr0, cr0, cr0, {0}
    2300:	00009f01 	andeq	r9, r0, r1, lsl #30
    2304:	00000000 	andeq	r0, r0, r0
    2308:	00040000 	andeq	r0, r4, r0
    230c:	01000004 	tsteq	r0, r4
    2310:	0000015c 	andeq	r0, r0, ip, asr r1
    2314:	00000160 	andeq	r0, r0, r0, ror #2
    2318:	01710003 	cmneq	r1, r3
    231c:	00029c9f 	muleq	r2, pc, ip	; <UNPREDICTABLE>
    2320:	0002a000 	andeq	sl, r2, r0
    2324:	32000200 	andcc	r0, r0, #0, 4
    2328:	0002a09f 	muleq	r2, pc, r0	; <UNPREDICTABLE>
    232c:	0002ac00 	andeq	sl, r2, r0, lsl #24
    2330:	71000300 	mrsvc	r0, LR_irq
    2334:	00009f01 	andeq	r9, r0, r1, lsl #30
    2338:	00000000 	andeq	r0, r0, r0
    233c:	00070000 	andeq	r0, r7, r0
    2340:	015c0006 	cmpeq	ip, r6
    2344:	01940000 	orrseq	r0, r4, r0
    2348:	00010000 	andeq	r0, r1, r0
    234c:	00029c50 	andeq	r9, r2, r0, asr ip
    2350:	0002b400 	andeq	fp, r2, r0, lsl #8
    2354:	50000100 	andpl	r0, r0, r0, lsl #2
	...
    2360:	00010101 	andeq	r0, r1, r1, lsl #2
    2364:	00000214 	andeq	r0, r0, r4, lsl r2
    2368:	00000220 	andeq	r0, r0, r0, lsr #4
    236c:	9f300002 	svcls	0x00300002
    2370:	00000220 	andeq	r0, r0, r0, lsr #4
    2374:	00000234 	andeq	r0, r0, r4, lsr r2
    2378:	9f310002 	svcls	0x00310002
	...
    2384:	00010100 	andeq	r0, r1, r0, lsl #2
    2388:	00010100 	andeq	r0, r1, r0, lsl #2
    238c:	00010100 	andeq	r0, r1, r0, lsl #2
    2390:	00010100 	andeq	r0, r1, r0, lsl #2
    2394:	00010100 	andeq	r0, r1, r0, lsl #2
    2398:	01020200 	mrseq	r0, R10_usr
    239c:	00000080 	andeq	r0, r0, r0, lsl #1
    23a0:	00000080 	andeq	r0, r0, r0, lsl #1
    23a4:	80530001 	subshi	r0, r3, r1
    23a8:	8c000000 	stchi	0, cr0, [r0], {-0}
    23ac:	03000000 	movweq	r0, #0
    23b0:	9f047300 	svcls	0x00047300
    23b4:	0000008c 	andeq	r0, r0, ip, lsl #1
    23b8:	00000094 	muleq	r0, r4, r0
    23bc:	94510001 	ldrbls	r0, [r1], #-1
    23c0:	98000000 	stmdals	r0, {}	; <UNPREDICTABLE>
    23c4:	03000000 	movweq	r0, #0
    23c8:	9f087300 	svcls	0x00087300
    23cc:	00000098 	muleq	r0, r8, r0
    23d0:	000000a4 	andeq	r0, r0, r4, lsr #1
    23d4:	a4510001 	ldrbge	r0, [r1], #-1
    23d8:	a8000000 	stmdage	r0, {}	; <UNPREDICTABLE>
    23dc:	03000000 	movweq	r0, #0
    23e0:	9f0c7300 	svcls	0x000c7300
    23e4:	000000a8 	andeq	r0, r0, r8, lsr #1
    23e8:	000000b4 	strheq	r0, [r0], -r4
    23ec:	b4510001 	ldrblt	r0, [r1], #-1
    23f0:	b8000000 	stmdalt	r0, {}	; <UNPREDICTABLE>
    23f4:	03000000 	movweq	r0, #0
    23f8:	9f107300 	svcls	0x00107300
    23fc:	000000b8 	strheq	r0, [r0], -r8
    2400:	000000c4 	andeq	r0, r0, r4, asr #1
    2404:	c4510001 	ldrbgt	r0, [r1], #-1
    2408:	c8000000 	stmdagt	r0, {}	; <UNPREDICTABLE>
    240c:	03000000 	movweq	r0, #0
    2410:	9f147300 	svcls	0x00147300
    2414:	000000c8 	andeq	r0, r0, r8, asr #1
    2418:	000000d0 	ldrdeq	r0, [r0], -r0	; <UNPREDICTABLE>
    241c:	d0510001 	subsle	r0, r1, r1
    2420:	d4000000 	strle	r0, [r0], #-0
    2424:	03000000 	movweq	r0, #0
    2428:	9f047100 	svcls	0x00047100
	...
    2434:	00d80002 	sbcseq	r0, r8, r2
    2438:	00e80000 	rsceq	r0, r8, r0
    243c:	00020000 	andeq	r0, r2, r0
    2440:	00009f31 	andeq	r9, r0, r1, lsr pc
    2444:	00000000 	andeq	r0, r0, r0
    2448:	00040000 	andeq	r0, r4, r0
    244c:	98200100 	stmdals	r0!, {r8}
    2450:	98280000 	stmdals	r8!, {}	; <UNPREDICTABLE>
    2454:	00020000 	andeq	r0, r2, r0
    2458:	98289f30 	stmdals	r8!, {r4, r5, r8, r9, sl, fp, ip, pc}
    245c:	98280000 	stmdals	r8!, {}	; <UNPREDICTABLE>
    2460:	00010000 	andeq	r0, r1, r0
    2464:	00000053 	andeq	r0, r0, r3, asr r0
    2468:	00000000 	andeq	r0, r0, r0
    246c:	00000300 	andeq	r0, r0, r0, lsl #6
    2470:	00000000 	andeq	r0, r0, r0
    2474:	00983400 	addseq	r3, r8, r0, lsl #8
    2478:	00983800 	addseq	r3, r8, r0, lsl #16
    247c:	30000200 	andcc	r0, r0, r0, lsl #4
    2480:	0098389f 	umullseq	r3, r8, pc, r8	; <UNPREDICTABLE>
    2484:	00983c00 	addseq	r3, r8, r0, lsl #24
    2488:	53000100 	movwpl	r0, #256	; 0x100
    248c:	0000983c 	andeq	r9, r0, ip, lsr r8
    2490:	00009840 	andeq	r9, r0, r0, asr #16
    2494:	00730005 	rsbseq	r0, r3, r5
    2498:	409f2140 	addsmi	r2, pc, r0, asr #2
    249c:	44000098 	strmi	r0, [r0], #-152	; 0xffffff68
    24a0:	01000098 	swpeq	r0, r8, [r0]	; <UNPREDICTABLE>
    24a4:	00005300 	andeq	r5, r0, r0, lsl #6
    24a8:	00000000 	andeq	r0, r0, r0
    24ac:	00020000 	andeq	r0, r2, r0
    24b0:	97f40000 	ldrbls	r0, [r4, r0]!
    24b4:	97f80000 	ldrbls	r0, [r8, r0]!
    24b8:	00020000 	andeq	r0, r2, r0
    24bc:	97f89f30 			; <UNDEFINED> instruction: 0x97f89f30
    24c0:	97fc0000 	ldrbls	r0, [ip, r0]!
    24c4:	00010000 	andeq	r0, r1, r0
    24c8:	00000050 	andeq	r0, r0, r0, asr r0
    24cc:	00000000 	andeq	r0, r0, r0
    24d0:	00000200 	andeq	r0, r0, r0, lsl #4
    24d4:	00000000 	andeq	r0, r0, r0
    24d8:	00980c00 	addseq	r0, r8, r0, lsl #24
    24dc:	00981000 	addseq	r1, r8, r0
    24e0:	30000200 	andcc	r0, r0, r0, lsl #4
    24e4:	0098109f 	umullseq	r1, r8, pc, r0	; <UNPREDICTABLE>
    24e8:	00981400 	addseq	r1, r8, r0, lsl #8
    24ec:	53000100 	movwpl	r0, #256	; 0x100
    24f0:	00009814 	andeq	r9, r0, r4, lsl r8
    24f4:	00009818 	andeq	r9, r0, r8, lsl r8
    24f8:	00730005 	rsbseq	r0, r3, r5
    24fc:	189f2140 	ldmne	pc, {r6, r8, sp}	; <UNPREDICTABLE>
    2500:	20000098 	mulcs	r0, r8, r0
    2504:	01000098 	swpeq	r0, r8, [r0]	; <UNPREDICTABLE>
    2508:	00005300 	andeq	r5, r0, r0, lsl #6
	...
    2514:	00c80000 	sbceq	r0, r8, r0
    2518:	00d80000 	sbcseq	r0, r8, r0
    251c:	00010000 	andeq	r0, r1, r0
    2520:	0000d850 	andeq	sp, r0, r0, asr r8
    2524:	00011c00 	andeq	r1, r1, r0, lsl #24
    2528:	f3000400 	vshl.u8	d0, d0, d0
    252c:	009f5001 	addseq	r5, pc, r1
    2530:	00000000 	andeq	r0, r0, r0
    2534:	02000000 	andeq	r0, r0, #0, 0
    2538:	c8000000 	stmdagt	r0, {}	; <UNPREDICTABLE>
    253c:	d8000000 	stmdale	r0, {}	; <UNPREDICTABLE>
    2540:	07000000 	streq	r0, [r0, -r0]
    2544:	0a007000 	beq	1e54c <__bss_end__+0x13644>
    2548:	9f1e03e8 	svcls	0x001e03e8
    254c:	000000d8 	ldrdeq	r0, [r0], -r8
    2550:	0000011c 	andeq	r0, r0, ip, lsl r1
    2554:	01f30008 	mvnseq	r0, r8
    2558:	03e80a50 	mvneq	r0, #80, 20	; 0x50000
    255c:	00009f1e 	andeq	r9, r0, lr, lsl pc
	...
    2568:	000000dc 	ldrdeq	r0, [r0], -ip
    256c:	0000011c 	andeq	r0, r0, ip, lsl r1
    2570:	00540001 	subseq	r0, r4, r1
    2574:	00000000 	andeq	r0, r0, r0
    2578:	01000000 	mrseq	r0, (UNDEF: 0)
    257c:	0000f000 	andeq	pc, r0, r0
    2580:	00011c00 	andeq	r1, r1, r0, lsl #24
    2584:	56000100 	strpl	r0, [r0], -r0, lsl #2
	...
    2594:	000000ec 	andeq	r0, r0, ip, ror #1
    2598:	000000ef 	andeq	r0, r0, pc, ror #1
    259c:	ef500001 	svc	0x00500001
    25a0:	1c000000 	stcne	0, cr0, [r0], {-0}
    25a4:	01000001 	tsteq	r0, r1
    25a8:	00005600 	andeq	r5, r0, r0, lsl #12
	...
    25b4:	00000104 	andeq	r0, r0, r4, lsl #2
    25b8:	0000010b 	andeq	r0, r0, fp, lsl #2
    25bc:	00500001 	subseq	r0, r0, r1
	...
    25c8:	20000000 	andcs	r0, r0, r0
    25cc:	23000000 	movwcs	r0, #0
    25d0:	01000000 	mrseq	r0, (UNDEF: 0)
    25d4:	00235000 	eoreq	r5, r3, r0
    25d8:	00300000 	eorseq	r0, r0, r0
    25dc:	00010000 	andeq	r0, r1, r0
    25e0:	00000054 	andeq	r0, r0, r4, asr r0
	...
    25ec:	00003000 	andeq	r3, r0, r0
    25f0:	00003b00 	andeq	r3, r0, r0, lsl #22
    25f4:	50000100 	andpl	r0, r0, r0, lsl #2
    25f8:	0000003b 	andeq	r0, r0, fp, lsr r0
    25fc:	00000078 	andeq	r0, r0, r8, ror r0
    2600:	00560001 	subseq	r0, r6, r1
    2604:	00000000 	andeq	r0, r0, r0
    2608:	01000000 	mrseq	r0, (UNDEF: 0)
    260c:	00004c00 	andeq	r4, r0, r0, lsl #24
    2610:	00007800 	andeq	r7, r0, r0, lsl #16
    2614:	55000100 	strpl	r0, [r0, #-256]	; 0xffffff00
	...
    2624:	00000048 	andeq	r0, r0, r8, asr #32
    2628:	0000004b 	andeq	r0, r0, fp, asr #32
    262c:	4b500001 	blmi	1402638 <__bss_end__+0x13f7730>
    2630:	78000000 	stmdavc	r0, {}	; <UNPREDICTABLE>
    2634:	01000000 	mrseq	r0, (UNDEF: 0)
    2638:	00005500 	andeq	r5, r0, r0, lsl #10
	...
    2644:	00000060 	andeq	r0, r0, r0, rrx
    2648:	00000067 	andeq	r0, r0, r7, rrx
    264c:	00500001 	subseq	r0, r0, r1
	...
    2658:	78000000 	stmdavc	r0, {}	; <UNPREDICTABLE>
    265c:	84000000 	strhi	r0, [r0], #-0
    2660:	01000000 	mrseq	r0, (UNDEF: 0)
    2664:	00845000 	addeq	r5, r4, r0
    2668:	00c80000 	sbceq	r0, r8, r0
    266c:	00040000 	andeq	r0, r4, r0
    2670:	9f5001f3 	svcls	0x005001f3
	...
    267c:	00880000 	addeq	r0, r8, r0
    2680:	00c80000 	sbceq	r0, r8, r0
    2684:	00010000 	andeq	r0, r1, r0
    2688:	00000054 	andeq	r0, r0, r4, asr r0
    268c:	00000000 	andeq	r0, r0, r0
    2690:	9c000100 	stflss	f0, [r0], {-0}
    2694:	c8000000 	stmdagt	r0, {}	; <UNPREDICTABLE>
    2698:	01000000 	mrseq	r0, (UNDEF: 0)
    269c:	00005600 	andeq	r5, r0, r0, lsl #12
	...
    26a8:	00980000 	addseq	r0, r8, r0
    26ac:	009b0000 	addseq	r0, fp, r0
    26b0:	00010000 	andeq	r0, r1, r0
    26b4:	00009b50 	andeq	r9, r0, r0, asr fp
    26b8:	0000c800 	andeq	ip, r0, r0, lsl #16
    26bc:	56000100 	strpl	r0, [r0], -r0, lsl #2
	...
    26c8:	00b00000 	adcseq	r0, r0, r0
    26cc:	00b70000 	adcseq	r0, r7, r0
    26d0:	00010000 	andeq	r0, r1, r0
    26d4:	00000050 	andeq	r0, r0, r0, asr r0
	...
    26e0:	00015800 	andeq	r5, r1, r0, lsl #16
    26e4:	00016300 	andeq	r6, r1, r0, lsl #6
    26e8:	50000100 	andpl	r0, r0, r0, lsl #2
    26ec:	00000163 	andeq	r0, r0, r3, ror #2
    26f0:	00000188 	andeq	r0, r0, r8, lsl #3
    26f4:	00540001 	subseq	r0, r4, r1
	...
    2700:	00014800 	andeq	r4, r1, r0, lsl #16
    2704:	00015800 	andeq	r5, r1, r0, lsl #16
    2708:	54000100 	strpl	r0, [r0], #-256	; 0xffffff00
	...
    271c:	0000000f 	andeq	r0, r0, pc
    2720:	0f500001 	svceq	0x00500001
    2724:	20000000 	andcs	r0, r0, r0
    2728:	01000000 	mrseq	r0, (UNDEF: 0)
    272c:	00005400 	andeq	r5, r0, r0, lsl #8
	...
    273c:	000f0000 	andeq	r0, pc, r0
    2740:	00010000 	andeq	r0, r1, r0
    2744:	00000f51 	andeq	r0, r0, r1, asr pc
    2748:	00002000 	andeq	r2, r0, r0
    274c:	55000100 	strpl	r0, [r0, #-256]	; 0xffffff00
	...
    275c:	00000020 	andeq	r0, r0, r0, lsr #32
    2760:	0000002f 	andeq	r0, r0, pc, lsr #32
    2764:	2f500001 	svccs	0x00500001
    2768:	40000000 	andmi	r0, r0, r0
    276c:	01000000 	mrseq	r0, (UNDEF: 0)
    2770:	00005400 	andeq	r5, r0, r0, lsl #8
	...
    277c:	00200000 	eoreq	r0, r0, r0
    2780:	002f0000 	eoreq	r0, pc, r0
    2784:	00010000 	andeq	r0, r1, r0
    2788:	00002f51 	andeq	r2, r0, r1, asr pc
    278c:	00004000 	andeq	r4, r0, r0
    2790:	55000100 	strpl	r0, [r0, #-256]	; 0xffffff00
	...
    27a0:	03500000 	cmpeq	r0, #0, 0
    27a4:	03980000 	orrseq	r0, r8, #0, 0
    27a8:	00010000 	andeq	r0, r1, r0
    27ac:	00039850 	andeq	r9, r3, r0, asr r8
    27b0:	00039b00 	andeq	r9, r3, r0, lsl #22
    27b4:	91000200 	mrsls	r0, R8_usr
    27b8:	00039b68 	andeq	r9, r3, r8, ror #22
    27bc:	0003b000 	andeq	fp, r3, r0
    27c0:	f3000400 	vshl.u8	d0, d0, d0
    27c4:	009f5001 	addseq	r5, pc, r1
	...
    27e0:	20000000 	andcs	r0, r0, r0
    27e4:	7b000002 	blvc	27f4 <__code_start__-0x580c>
    27e8:	01000002 	tsteq	r0, r2
    27ec:	027b5000 	rsbseq	r5, fp, #0, 0
    27f0:	02840000 	addeq	r0, r4, #0, 0
    27f4:	00040000 	andeq	r0, r4, r0
    27f8:	9f5001f3 	svcls	0x005001f3
    27fc:	00000284 	andeq	r0, r0, r4, lsl #5
    2800:	0000029c 	muleq	r0, ip, r2
    2804:	9c500001 	mrrcls	0, 0, r0, r0, cr1	; <UNPREDICTABLE>
    2808:	a4000002 	strge	r0, [r0], #-2
    280c:	04000002 	streq	r0, [r0], #-2
    2810:	5001f300 	andpl	pc, r1, r0, lsl #6
    2814:	0002a49f 	muleq	r2, pc, r4	; <UNPREDICTABLE>
    2818:	0002a700 	andeq	sl, r2, r0, lsl #14
    281c:	50000100 	andpl	r0, r0, r0, lsl #2
    2820:	000002a7 	andeq	r0, r0, r7, lsr #5
    2824:	000002c8 	andeq	r0, r0, r8, asr #5
    2828:	01f30004 	mvnseq	r0, r4
    282c:	02c89f50 	sbceq	r9, r8, #80, 30	; 0x140
    2830:	02e00000 	rsceq	r0, r0, #0, 0
    2834:	00010000 	andeq	r0, r1, r0
    2838:	0002e050 	andeq	lr, r2, r0, asr r0
    283c:	0002e800 	andeq	lr, r2, r0, lsl #16
    2840:	f3000400 	vshl.u8	d0, d0, d0
    2844:	e89f5001 	ldm	pc, {r0, ip, lr}	; <UNPREDICTABLE>
    2848:	eb000002 	bl	2858 <__code_start__-0x57a8>
    284c:	01000002 	tsteq	r0, r2
    2850:	02eb5000 	rsceq	r5, fp, #0, 0
    2854:	03380000 	teqeq	r8, #0, 0
    2858:	00040000 	andeq	r0, r4, r0
    285c:	9f5001f3 	svcls	0x005001f3
	...
    287c:	00000220 	andeq	r0, r0, r0, lsr #4
    2880:	00000244 	andeq	r0, r0, r4, asr #4
    2884:	44510001 	ldrbmi	r0, [r1], #-1
    2888:	68000002 	stmdavs	r0, {r1}
    288c:	01000002 	tsteq	r0, r2
    2890:	02685100 	rsbeq	r5, r8, #0
    2894:	027b0000 	rsbseq	r0, fp, #0, 0
    2898:	00030000 	andeq	r0, r3, r0
    289c:	7b9f0171 	blvc	fe7c2e68 <__bss_end__+0xfe7b7f60>
    28a0:	84000002 	strhi	r0, [r0], #-2
    28a4:	17000002 	strne	r0, [r0, -r2]
    28a8:	01f33800 	mvnseq	r3, r0, lsl #16
    28ac:	5101f351 	tstpl	r1, r1, asr r3	; <UNPREDICTABLE>
    28b0:	22244b40 	eorcs	r4, r4, #64, 22	; 0x10000
    28b4:	0000080c 	andeq	r0, r0, ip, lsl #16
    28b8:	01282d80 	smlawbeq	r8, r0, sp, r2
    28bc:	9f131600 	svcls	0x00131600
    28c0:	00000284 	andeq	r0, r0, r4, lsl #5
    28c4:	00000298 	muleq	r0, r8, r2
    28c8:	98510001 	ldmdals	r1, {r0}^
    28cc:	a4000002 	strge	r0, [r0], #-2
    28d0:	04000002 	streq	r0, [r0], #-2
    28d4:	5101f300 	mrspl	pc, SP_irq	; <UNPREDICTABLE>
    28d8:	0002a49f 	muleq	r2, pc, r4	; <UNPREDICTABLE>
    28dc:	0002a700 	andeq	sl, r2, r0, lsl #14
    28e0:	51000100 	mrspl	r0, (UNDEF: 16)
    28e4:	000002a7 	andeq	r0, r0, r7, lsr #5
    28e8:	000002c8 	andeq	r0, r0, r8, asr #5
    28ec:	01f30004 	mvnseq	r0, r4
    28f0:	02c89f51 	sbceq	r9, r8, #324	; 0x144
    28f4:	02dc0000 	sbcseq	r0, ip, #0, 0
    28f8:	00010000 	andeq	r0, r1, r0
    28fc:	0002dc51 	andeq	sp, r2, r1, asr ip
    2900:	00033800 	andeq	r3, r3, r0, lsl #16
    2904:	38001700 	stmdacc	r0, {r8, r9, sl, ip}
    2908:	f35101f3 	vbsl	q8, <illegal reg q8.5>, <illegal reg q9.5>
    290c:	4b405101 	blmi	1016d18 <__bss_end__+0x100be10>
    2910:	080c2224 	stmdaeq	ip, {r2, r5, r9, sp}
    2914:	2d800000 	stccs	0, cr0, [r0]
    2918:	16000128 	strne	r0, [r0], -r8, lsr #2
    291c:	00009f13 	andeq	r9, r0, r3, lsl pc
	...
    2930:	024c0000 	subeq	r0, ip, #0, 0
    2934:	025c0000 	subseq	r0, ip, #0, 0
    2938:	00010000 	andeq	r0, r1, r0
    293c:	00025c52 	andeq	r5, r2, r2, asr ip
    2940:	00026400 	andeq	r6, r2, r0, lsl #8
    2944:	03000500 	movweq	r0, #1280	; 0x500
    2948:	0000aad0 	ldrdeq	sl, [r0], -r0
    294c:	00000264 	andeq	r0, r0, r4, ror #4
    2950:	0000027b 	andeq	r0, r0, fp, ror r2
    2954:	c8530001 	ldmdagt	r3, {r0}^
    2958:	d8000002 	stmdale	r0, {r1}
    295c:	01000002 	tsteq	r0, r2
    2960:	02d85200 	sbcseq	r5, r8, #0, 4
    2964:	02e30000 	rsceq	r0, r3, #0, 0
    2968:	00050000 	andeq	r0, r5, r0
    296c:	00aad003 	adceq	sp, sl, r3
    2970:	0002e800 	andeq	lr, r2, r0, lsl #16
    2974:	0002eb00 	andeq	lr, r2, r0, lsl #22
    2978:	53000100 	movwpl	r0, #256	; 0x100
	...
    2984:	02300004 	eorseq	r0, r0, #4, 0
    2988:	02340000 	eorseq	r0, r4, #0, 0
    298c:	00010000 	andeq	r0, r1, r0
    2990:	00000051 	andeq	r0, r0, r1, asr r0
    2994:	00000000 	andeq	r0, r0, r0
    2998:	3c000200 	sfmcc	f0, 4, [r0], {-0}
    299c:	44000002 	strmi	r0, [r0], #-2
    29a0:	02000002 	andeq	r0, r0, #2, 0
    29a4:	009f3800 	addseq	r3, pc, r0, lsl #16
    29a8:	00000000 	andeq	r0, r0, r0
    29ac:	02000000 	andeq	r0, r0, #0, 0
    29b0:	00023c00 	andeq	r3, r2, r0, lsl #24
    29b4:	00024400 	andeq	r4, r2, r0, lsl #8
    29b8:	51000100 	mrspl	r0, (UNDEF: 16)
	...
    29c4:	00000001 	andeq	r0, r0, r1
    29c8:	024c0000 	subeq	r0, ip, #0, 0
    29cc:	02640000 	rsbeq	r0, r4, #0, 0
    29d0:	00010000 	andeq	r0, r1, r0
    29d4:	0002c851 	andeq	ip, r2, r1, asr r8
    29d8:	0002dc00 	andeq	sp, r2, r0, lsl #24
    29dc:	51000100 	mrspl	r0, (UNDEF: 16)
    29e0:	000002dc 	ldrdeq	r0, [r0], -ip
    29e4:	000002e8 	andeq	r0, r0, r8, ror #5
    29e8:	f3380017 	vqadd.u64	d0, d8, d7
    29ec:	01f35101 	mvnseq	r5, r1, lsl #2
    29f0:	244b4051 	strbcs	r4, [fp], #-81	; 0xffffffaf
    29f4:	00080c22 	andeq	r0, r8, r2, lsr #24
    29f8:	282d8000 	stmdacs	sp!, {pc}
    29fc:	13160001 	tstne	r6, #1, 0
    2a00:	0000009f 	muleq	r0, pc, r0	; <UNPREDICTABLE>
    2a04:	00000000 	andeq	r0, r0, r0
    2a08:	00000100 	andeq	r0, r0, r0, lsl #2
    2a0c:	00000000 	andeq	r0, r0, r0
    2a10:	00024c00 	andeq	r4, r2, r0, lsl #24
    2a14:	00025c00 	andeq	r5, r2, r0, lsl #24
    2a18:	52000100 	andpl	r0, r0, #0
    2a1c:	0000025c 	andeq	r0, r0, ip, asr r2
    2a20:	00000264 	andeq	r0, r0, r4, ror #4
    2a24:	d0030005 	andle	r0, r3, r5
    2a28:	c80000aa 	stmdagt	r0, {r1, r3, r5, r7}
    2a2c:	d8000002 	stmdale	r0, {r1}
    2a30:	01000002 	tsteq	r0, r2
    2a34:	02d85200 	sbcseq	r5, r8, #0, 4
    2a38:	02e30000 	rsceq	r0, r3, #0, 0
    2a3c:	00050000 	andeq	r0, r5, r0
    2a40:	00aad003 	adceq	sp, sl, r3
	...
    2a4c:	4c000400 	cfstrsmi	mvf0, [r0], {-0}
    2a50:	50000002 	andpl	r0, r0, r2
    2a54:	01000002 	tsteq	r0, r2
    2a58:	00005100 	andeq	r5, r0, r0, lsl #2
    2a5c:	00000000 	andeq	r0, r0, r0
    2a60:	00030000 	andeq	r0, r3, r0
    2a64:	00000264 	andeq	r0, r0, r4, ror #4
    2a68:	00000268 	andeq	r0, r0, r8, ror #4
    2a6c:	00510001 	subseq	r0, r1, r1
    2a70:	00000000 	andeq	r0, r0, r0
    2a74:	03000000 	movweq	r0, #0
    2a78:	00026400 	andeq	r6, r2, r0, lsl #8
    2a7c:	00026800 	andeq	r6, r2, r0, lsl #16
    2a80:	53000100 	movwpl	r0, #256	; 0x100
	...
    2a94:	000001bc 			; <UNDEFINED> instruction: 0x000001bc
    2a98:	000001d3 	ldrdeq	r0, [r0], -r3
    2a9c:	d3500001 	cmple	r0, #1, 0
    2aa0:	f0000001 			; <UNDEFINED> instruction: 0xf0000001
    2aa4:	01000001 	tsteq	r0, r1
    2aa8:	01f05400 	mvnseq	r5, r0, lsl #8
    2aac:	02080000 	andeq	r0, r8, #0, 0
    2ab0:	00010000 	andeq	r0, r1, r0
    2ab4:	00020850 	andeq	r0, r2, r0, asr r8
    2ab8:	00022000 	andeq	r2, r2, r0
    2abc:	54000100 	strpl	r0, [r0], #-256	; 0xffffff00
	...
    2acc:	000001d8 	ldrdeq	r0, [r0], -r8
    2ad0:	000001e3 	andeq	r0, r0, r3, ror #3
    2ad4:	e3500001 	cmp	r0, #1, 0
    2ad8:	f0000001 			; <UNDEFINED> instruction: 0xf0000001
    2adc:	01000001 	tsteq	r0, r1
    2ae0:	00005500 	andeq	r5, r0, r0, lsl #10
	...
    2af8:	01240000 			; <UNDEFINED> instruction: 0x01240000
    2afc:	01380000 	teqeq	r8, r0
    2b00:	00010000 	andeq	r0, r1, r0
    2b04:	00013850 	andeq	r3, r1, r0, asr r8
    2b08:	00013c00 	andeq	r3, r1, r0, lsl #24
    2b0c:	70000300 	andvc	r0, r0, r0, lsl #6
    2b10:	013c9f79 	teqeq	ip, r9, ror pc
    2b14:	01600000 	cmneq	r0, r0
    2b18:	00010000 	andeq	r0, r1, r0
    2b1c:	00016053 	andeq	r6, r1, r3, asr r0
    2b20:	00017800 	andeq	r7, r1, r0, lsl #16
    2b24:	50000100 	andpl	r0, r0, r0, lsl #2
    2b28:	00000178 	andeq	r0, r0, r8, ror r1
    2b2c:	00000180 	andeq	r0, r0, r0, lsl #3
    2b30:	01f30004 	mvnseq	r0, r4
    2b34:	01809f50 	orreq	r9, r0, r0, asr pc
    2b38:	01900000 	orrseq	r0, r0, r0
    2b3c:	00010000 	andeq	r0, r1, r0
    2b40:	00019053 	andeq	r9, r1, r3, asr r0
    2b44:	00019f00 	andeq	r9, r1, r0, lsl #30
    2b48:	91000200 	mrsls	r0, R8_usr
    2b4c:	00019f68 	andeq	r9, r1, r8, ror #30
    2b50:	0001bc00 	andeq	fp, r1, r0, lsl #24
    2b54:	f3000900 	vmls.i8	d0, d0, d0
    2b58:	07235001 	streq	r5, [r3, -r1]!
    2b5c:	9f1af809 	svcls	0x001af809
	...
    2b6c:	00000144 	andeq	r0, r0, r4, asr #2
    2b70:	00000160 	andeq	r0, r0, r0, ror #2
    2b74:	80500001 	subshi	r0, r0, r1
    2b78:	9c000001 	stcls	0, cr0, [r0], {1}
    2b7c:	01000001 	tsteq	r0, r1
    2b80:	00005000 	andeq	r5, r0, r0
    2b84:	00000000 	andeq	r0, r0, r0
    2b88:	00030000 	andeq	r0, r3, r0
    2b8c:	00000134 	andeq	r0, r0, r4, lsr r1
    2b90:	0000013c 	andeq	r0, r0, ip, lsr r1
    2b94:	9f380002 	svcls	0x00380002
	...
    2ba0:	00000003 	andeq	r0, r0, r3
    2ba4:	00000134 	andeq	r0, r0, r4, lsr r1
    2ba8:	00000138 	andeq	r0, r0, r8, lsr r1
    2bac:	38500001 	ldmdacc	r0, {r0}^
    2bb0:	3c000001 	stccc	0, cr0, [r0], {1}
    2bb4:	03000001 	movweq	r0, #1
    2bb8:	9f797000 	svcls	0x00797000
	...
    2bd0:	00300000 	eorseq	r0, r0, r0
    2bd4:	00600000 	rsbeq	r0, r0, r0
    2bd8:	00010000 	andeq	r0, r1, r0
    2bdc:	00006050 	andeq	r6, r0, r0, asr r0
    2be0:	00006c00 	andeq	r6, r0, r0, lsl #24
    2be4:	03000500 	movweq	r0, #1280	; 0x500
    2be8:	0000aad0 	ldrdeq	sl, [r0], -r0
    2bec:	0000006c 	andeq	r0, r0, ip, rrx
    2bf0:	00000084 	andeq	r0, r0, r4, lsl #1
    2bf4:	84500001 	ldrbhi	r0, [r0], #-1
    2bf8:	8c000000 	stchi	0, cr0, [r0], {-0}
    2bfc:	04000000 	streq	r0, [r0], #-0
    2c00:	5001f300 	andpl	pc, r1, r0, lsl #6
    2c04:	00008c9f 	muleq	r0, pc, ip	; <UNPREDICTABLE>
    2c08:	0000ac00 	andeq	sl, r0, r0, lsl #24
    2c0c:	50000100 	andpl	r0, r0, r0, lsl #2
    2c10:	000000ac 	andeq	r0, r0, ip, lsr #1
    2c14:	000000af 	andeq	r0, r0, pc, lsr #1
    2c18:	68910002 	ldmvs	r1, {r1}
    2c1c:	000000af 	andeq	r0, r0, pc, lsr #1
    2c20:	000000cc 	andeq	r0, r0, ip, asr #1
    2c24:	01f30004 	mvnseq	r0, r4
    2c28:	00009f50 	andeq	r9, r0, r0, asr pc
	...
    2c38:	00300000 	eorseq	r0, r0, r0
    2c3c:	00800000 	addeq	r0, r0, r0
    2c40:	00010000 	andeq	r0, r1, r0
    2c44:	00008051 	andeq	r8, r0, r1, asr r0
    2c48:	00008c00 	andeq	r8, r0, r0, lsl #24
    2c4c:	f3000400 	vshl.u8	d0, d0, d0
    2c50:	8c9f5101 	ldfhis	f5, [pc], {1}
    2c54:	a8000000 	stmdage	r0, {}	; <UNPREDICTABLE>
    2c58:	01000000 	mrseq	r0, (UNDEF: 0)
    2c5c:	00a85100 	adceq	r5, r8, r0, lsl #2
    2c60:	00cc0000 	sbceq	r0, ip, r0
    2c64:	00040000 	andeq	r0, r4, r0
    2c68:	9f5101f3 	svcls	0x005101f3
	...
    2c74:	00000001 	andeq	r0, r0, r1
	...
    2c80:	00380000 	eorseq	r0, r8, r0
    2c84:	00600000 	rsbeq	r0, r0, r0
    2c88:	00010000 	andeq	r0, r1, r0
    2c8c:	00006050 	andeq	r6, r0, r0, asr r0
    2c90:	00006c00 	andeq	r6, r0, r0, lsl #24
    2c94:	03000500 	movweq	r0, #1280	; 0x500
    2c98:	0000aad0 	ldrdeq	sl, [r0], -r0
    2c9c:	0000006c 	andeq	r0, r0, ip, rrx
    2ca0:	00000084 	andeq	r0, r0, r4, lsl #1
    2ca4:	84500001 	ldrbhi	r0, [r0], #-1
    2ca8:	8c000000 	stchi	0, cr0, [r0], {-0}
    2cac:	04000000 	streq	r0, [r0], #-0
    2cb0:	5001f300 	andpl	pc, r1, r0, lsl #6
    2cb4:	00008c9f 	muleq	r0, pc, ip	; <UNPREDICTABLE>
    2cb8:	0000ac00 	andeq	sl, r0, r0, lsl #24
    2cbc:	50000100 	andpl	r0, r0, r0, lsl #2
    2cc0:	000000ac 	andeq	r0, r0, ip, lsr #1
    2cc4:	000000af 	andeq	r0, r0, pc, lsr #1
    2cc8:	68910002 	ldmvs	r1, {r1}
    2ccc:	000000af 	andeq	r0, r0, pc, lsr #1
    2cd0:	000000cc 	andeq	r0, r0, ip, asr #1
    2cd4:	01f30004 	mvnseq	r0, r4
    2cd8:	00009f50 	andeq	r9, r0, r0, asr pc
	...
    2ce8:	00000170 	andeq	r0, r0, r0, ror r1
    2cec:	0000017c 	andeq	r0, r0, ip, ror r1
    2cf0:	7c500001 	mrrcvc	0, 0, r0, r0, cr1	; <UNPREDICTABLE>
    2cf4:	88000001 	stmdahi	r0, {r0}
    2cf8:	01000001 	tsteq	r0, r1
    2cfc:	01885400 	orreq	r5, r8, r0, lsl #8
    2d00:	01980000 	orrseq	r0, r8, r0
    2d04:	00040000 	andeq	r0, r4, r0
    2d08:	9f5001f3 	svcls	0x005001f3
	...
    2d1c:	01780000 	cmneq	r8, r0
    2d20:	017c0000 	cmneq	ip, r0
    2d24:	000b0000 	andeq	r0, fp, r0
    2d28:	25350070 	ldrcs	r0, [r5, #-112]!	; 0xffffff90
    2d2c:	8080b423 	addhi	fp, r0, r3, lsr #8
    2d30:	7c9f0281 	lfmvc	f0, 4, [pc], {129}	; 0x81
    2d34:	80000001 	andhi	r0, r0, r1
    2d38:	0b000001 	bleq	2d44 <__code_start__-0x52bc>
    2d3c:	35007400 	strcc	r7, [r0, #-1024]	; 0xfffffc00
    2d40:	80b42325 	adcshi	r2, r4, r5, lsr #6
    2d44:	9f028180 	svcls	0x00028180
    2d48:	00000180 	andeq	r0, r0, r0, lsl #3
    2d4c:	00000183 	andeq	r0, r0, r3, lsl #3
    2d50:	83500001 	cmphi	r0, #1, 0
    2d54:	88000001 	stmdahi	r0, {r0}
    2d58:	0b000001 	bleq	2d64 <__code_start__-0x529c>
    2d5c:	35007400 	strcc	r7, [r0, #-1024]	; 0xfffffc00
    2d60:	80b42325 	adcshi	r2, r4, r5, lsr #6
    2d64:	9f028180 	svcls	0x00028180
    2d68:	00000188 	andeq	r0, r0, r8, lsl #3
    2d6c:	00000198 	muleq	r0, r8, r1
    2d70:	01f3000c 	mvnseq	r0, ip
    2d74:	23253550 			; <UNDEFINED> instruction: 0x23253550
    2d78:	818080b4 	strhhi	r8, [r0, r4]
    2d7c:	00009f02 	andeq	r9, r0, r2, lsl #30
    2d80:	00000000 	andeq	r0, r0, r0
    2d84:	00010000 	andeq	r0, r1, r0
    2d88:	00000000 	andeq	r0, r0, r0
    2d8c:	00000178 	andeq	r0, r0, r8, ror r1
    2d90:	0000017c 	andeq	r0, r0, ip, ror r1
    2d94:	00700005 	rsbseq	r0, r0, r5
    2d98:	7c9f1a4f 	vldmiavc	pc, {s2-s80}
    2d9c:	88000001 	stmdahi	r0, {r0}
    2da0:	05000001 	streq	r0, [r0, #-1]
    2da4:	4f007400 	svcmi	0x00007400
    2da8:	01889f1a 	orreq	r9, r8, sl, lsl pc
    2dac:	01980000 	orrseq	r0, r8, r0
    2db0:	00010000 	andeq	r0, r1, r0
    2db4:	00000054 	andeq	r0, r0, r4, asr r0
	...
    2dc8:	00014000 	andeq	r4, r1, r0
    2dcc:	00015400 	andeq	r5, r1, r0, lsl #8
    2dd0:	50000100 	andpl	r0, r0, r0, lsl #2
    2dd4:	00000154 	andeq	r0, r0, r4, asr r1
    2dd8:	00000158 	andeq	r0, r0, r8, asr r1
    2ddc:	58510001 	ldmdapl	r1, {r0}^
    2de0:	5c000001 	stcpl	0, cr0, [r0], {1}
    2de4:	04000001 	streq	r0, [r0], #-1
    2de8:	5001f300 	andpl	pc, r1, r0, lsl #6
    2dec:	00015c9f 	muleq	r1, pc, ip	; <UNPREDICTABLE>
    2df0:	00016000 	andeq	r6, r1, r0
    2df4:	50000100 	andpl	r0, r0, r0, lsl #2
    2df8:	00000160 	andeq	r0, r0, r0, ror #2
    2dfc:	00000164 	andeq	r0, r0, r4, ror #2
    2e00:	64510001 	ldrbvs	r0, [r1], #-1
    2e04:	70000001 	andvc	r0, r0, r1
    2e08:	04000001 	streq	r0, [r0], #-1
    2e0c:	5001f300 	andpl	pc, r1, r0, lsl #6
    2e10:	0000009f 	muleq	r0, pc, r0	; <UNPREDICTABLE>
	...
    2e1c:	00014000 	andeq	r4, r1, r0
    2e20:	00014c00 	andeq	r4, r1, r0, lsl #24
    2e24:	51000100 	mrspl	r0, (UNDEF: 16)
    2e28:	0000014c 	andeq	r0, r0, ip, asr #2
    2e2c:	00000170 	andeq	r0, r0, r0, ror r1
    2e30:	01f30004 	mvnseq	r0, r4
    2e34:	00009f51 	andeq	r9, r0, r1, asr pc
    2e38:	00000000 	andeq	r0, r0, r0
    2e3c:	00010000 	andeq	r0, r1, r0
    2e40:	00000000 	andeq	r0, r0, r0
    2e44:	00000150 	andeq	r0, r0, r0, asr r1
    2e48:	00000154 	andeq	r0, r0, r4, asr r1
    2e4c:	54500001 	ldrbpl	r0, [r0], #-1
    2e50:	58000001 	stmdapl	r0, {r0}
    2e54:	01000001 	tsteq	r0, r1
    2e58:	01585100 	cmpeq	r8, r0, lsl #2
    2e5c:	015c0000 	cmpeq	ip, r0
    2e60:	00040000 	andeq	r0, r4, r0
    2e64:	9f5001f3 	svcls	0x005001f3
	...
    2e70:	00000002 	andeq	r0, r0, r2
    2e74:	015c0000 	cmpeq	ip, r0
    2e78:	01600000 	cmneq	r0, r0
    2e7c:	00010000 	andeq	r0, r1, r0
    2e80:	00016050 	andeq	r6, r1, r0, asr r0
    2e84:	00016400 	andeq	r6, r1, r0, lsl #8
    2e88:	51000100 	mrspl	r0, (UNDEF: 16)
    2e8c:	00000164 	andeq	r0, r0, r4, ror #2
    2e90:	00000170 	andeq	r0, r0, r0, ror r1
    2e94:	01f30004 	mvnseq	r0, r4
    2e98:	00009f50 	andeq	r9, r0, r0, asr pc
	...
    2ea8:	000000e8 	andeq	r0, r0, r8, ror #1
    2eac:	00000108 	andeq	r0, r0, r8, lsl #2
    2eb0:	08500001 	ldmdaeq	r0, {r0}^
    2eb4:	28000001 	stmdacs	r0, {r0}
    2eb8:	01000001 	tsteq	r0, r1
    2ebc:	01285400 			; <UNDEFINED> instruction: 0x01285400
    2ec0:	01400000 	mrseq	r0, (UNDEF: 64)
    2ec4:	00040000 	andeq	r0, r4, r0
    2ec8:	9f5001f3 	svcls	0x005001f3
	...
    2ed4:	00000002 	andeq	r0, r0, r2
    2ed8:	00e80000 	rsceq	r0, r8, r0
    2edc:	01080000 	mrseq	r0, (UNDEF: 8)
    2ee0:	00010000 	andeq	r0, r1, r0
    2ee4:	00010850 	andeq	r0, r1, r0, asr r8
    2ee8:	00012800 	andeq	r2, r1, r0, lsl #16
    2eec:	54000100 	strpl	r0, [r0], #-256	; 0xffffff00
    2ef0:	00000128 	andeq	r0, r0, r8, lsr #2
    2ef4:	00000140 	andeq	r0, r0, r0, asr #2
    2ef8:	01f30004 	mvnseq	r0, r4
    2efc:	00009f50 	andeq	r9, r0, r0, asr pc
	...
    2f0c:	000000f0 	strdeq	r0, [r0], -r0	; <UNPREDICTABLE>
    2f10:	00000108 	andeq	r0, r0, r8, lsl #2
    2f14:	08500001 	ldmdaeq	r0, {r0}^
    2f18:	28000001 	stmdacs	r0, {r0}
    2f1c:	01000001 	tsteq	r0, r1
    2f20:	01285400 			; <UNDEFINED> instruction: 0x01285400
    2f24:	01400000 	mrseq	r0, (UNDEF: 64)
    2f28:	00040000 	andeq	r0, r4, r0
    2f2c:	9f5001f3 	svcls	0x005001f3
	...
    2f38:	00000003 	andeq	r0, r0, r3
    2f3c:	00f00000 	rscseq	r0, r0, r0
    2f40:	01080000 	mrseq	r0, (UNDEF: 8)
    2f44:	00070000 	andeq	r0, r7, r0
    2f48:	1d3a0070 	ldcne	0, cr0, [sl, #-448]!	; 0xfffffe40
    2f4c:	089f1e33 	ldmeq	pc, {r0, r1, r4, r5, r9, sl, fp, ip}	; <UNPREDICTABLE>
    2f50:	28000001 	stmdacs	r0, {r0}
    2f54:	07000001 	streq	r0, [r0, -r1]
    2f58:	3a007400 	bcc	1ff60 <__bss_end__+0x15058>
    2f5c:	9f1e331d 	svcls	0x001e331d
    2f60:	00000128 	andeq	r0, r0, r8, lsr #2
    2f64:	00000140 	andeq	r0, r0, r0, asr #2
    2f68:	01f30008 	mvnseq	r0, r8
    2f6c:	331d3a50 	tstcc	sp, #80, 20	; 0x50000
    2f70:	00009f1e 	andeq	r9, r0, lr, lsl pc
	...
    2f80:	00000110 	andeq	r0, r0, r0, lsl r1
    2f84:	00000138 	andeq	r0, r0, r8, lsr r1
    2f88:	38560001 	ldmdacc	r6, {r0}^
    2f8c:	3b000001 	blcc	2f98 <__code_start__-0x5068>
    2f90:	01000001 	tsteq	r0, r1
    2f94:	013b5000 	teqeq	fp, r0
    2f98:	01400000 	mrseq	r0, (UNDEF: 64)
    2f9c:	00260000 	eoreq	r0, r6, r0
    2fa0:	f75001f3 			; <UNDEFINED> instruction: 0xf75001f3
    2fa4:	f425f72c 	vld1.8	{d15}, [r5 :128], ip
    2fa8:	cccd0825 	stclgt	8, cr0, [sp], {37}	; 0x25
    2fac:	0000cccc 	andeq	ip, r0, ip, asr #25
    2fb0:	081e0000 	ldmdaeq	lr, {}	; <UNPREDICTABLE>
    2fb4:	2525f720 	strcs	pc, [r5, #-1824]!	; 0xfffff8e0
    2fb8:	00f72cf7 	ldrshteq	r2, [r7], #199	; 0xc7
    2fbc:	80232533 	eorhi	r2, r3, r3, lsr r5
    2fc0:	3240a080 	subcc	sl, r0, #128, 0	; 0x80
    2fc4:	00009f24 	andeq	r9, r0, r4, lsr #30
    2fc8:	00000000 	andeq	r0, r0, r0
    2fcc:	01000000 	mrseq	r0, (UNDEF: 0)
    2fd0:	00000001 	andeq	r0, r0, r1
    2fd4:	01200000 			; <UNDEFINED> instruction: 0x01200000
    2fd8:	01200000 			; <UNDEFINED> instruction: 0x01200000
    2fdc:	00010000 	andeq	r0, r1, r0
    2fe0:	00012050 	andeq	r2, r1, r0, asr r0
    2fe4:	00012800 	andeq	r2, r1, r0, lsl #16
    2fe8:	37000d00 	strcc	r0, [r0, -r0, lsl #26]
    2fec:	1d3a0074 	ldcne	0, cr0, [sl, #-464]!	; 0xfffffe30
    2ff0:	20241e33 	eorcs	r1, r4, r3, lsr lr
    2ff4:	9f1a0070 	svcls	0x001a0070
    2ff8:	00000128 	andeq	r0, r0, r8, lsr #2
    2ffc:	00000130 	andeq	r0, r0, r0, lsr r1
    3000:	f337000e 	vhadd.u<illegal width 64>	d0, d7, d14
    3004:	1d3a5001 	ldcne	0, cr5, [sl, #-4]!
    3008:	20241e33 	eorcs	r1, r4, r3, lsr lr
    300c:	9f1a0070 	svcls	0x001a0070
    3010:	00000130 	andeq	r0, r0, r0, lsr r1
    3014:	0000013b 	andeq	r0, r0, fp, lsr r1
    3018:	f337000e 	vhadd.u<illegal width 64>	d0, d7, d14
    301c:	1d3a5001 	ldcne	0, cr5, [sl, #-4]!
    3020:	20241e33 	eorcs	r1, r4, r3, lsr lr
    3024:	9f1a0073 	svcls	0x001a0073
	...
    3034:	00000060 	andeq	r0, r0, r0, rrx
    3038:	00000090 	muleq	r0, r0, r0
    303c:	90500001 	subsls	r0, r0, r1
    3040:	b8000000 	stmdalt	r0, {}	; <UNPREDICTABLE>
    3044:	04000000 	streq	r0, [r0], #-0
    3048:	5001f300 	andpl	pc, r1, r0, lsl #6
    304c:	0000009f 	muleq	r0, pc, r0	; <UNPREDICTABLE>
    3050:	00000000 	andeq	r0, r0, r0
    3054:	00000200 	andeq	r0, r0, r0, lsl #4
    3058:	00006000 	andeq	r6, r0, r0
    305c:	00009000 	andeq	r9, r0, r0
    3060:	50000100 	andpl	r0, r0, r0, lsl #2
    3064:	00000090 	muleq	r0, r0, r0
    3068:	000000b8 	strheq	r0, [r0], -r8
    306c:	01f30004 	mvnseq	r0, r4
    3070:	00009f50 	andeq	r9, r0, r0, asr pc
	...
    307c:	00680000 	rsbeq	r0, r8, r0
    3080:	00900000 	addseq	r0, r0, r0
    3084:	00010000 	andeq	r0, r1, r0
    3088:	00009050 	andeq	r9, r0, r0, asr r0
    308c:	0000b800 	andeq	fp, r0, r0, lsl #16
    3090:	f3000400 	vshl.u8	d0, d0, d0
    3094:	009f5001 	addseq	r5, pc, r1
	...
    30a0:	a0000000 	andge	r0, r0, r0
    30a4:	b0000000 	andlt	r0, r0, r0
    30a8:	01000000 	mrseq	r0, (UNDEF: 0)
    30ac:	00b05400 	adcseq	r5, r0, r0, lsl #8
    30b0:	00b80000 	adcseq	r0, r8, r0
    30b4:	00290000 	eoreq	r0, r9, r0
    30b8:	f35001f3 	vbsl	q8, q8, <illegal reg q9.5>
    30bc:	2cf75001 	ldclcs	0, cr5, [r7], #4
    30c0:	25f425f7 	ldrbcs	r2, [r4, #1527]!	; 0x5f7
    30c4:	cccccd08 	stclgt	13, cr12, [ip], {8}
    30c8:	000000cc 	andeq	r0, r0, ip, asr #1
    30cc:	20081e00 	andcs	r1, r8, r0, lsl #28
    30d0:	f72525f7 			; <UNDEFINED> instruction: 0xf72525f7
    30d4:	3300f72c 	movwcc	pc, #1836	; 0x72c	; <UNPREDICTABLE>
    30d8:	311e3525 	tstcc	lr, r5, lsr #10
    30dc:	1e331c24 	cdpne	12, 3, cr1, cr3, cr4, {1}
    30e0:	0000009f 	muleq	r0, pc, r0	; <UNPREDICTABLE>
    30e4:	00000000 	andeq	r0, r0, r0
    30e8:	00000100 	andeq	r0, r0, r0, lsl #2
    30ec:	a0000000 	andge	r0, r0, r0
    30f0:	b0000000 	andlt	r0, r0, r0
    30f4:	01000000 	mrseq	r0, (UNDEF: 0)
    30f8:	00b05500 	adcseq	r5, r0, r0, lsl #10
    30fc:	00b30000 	adcseq	r0, r3, r0
    3100:	00010000 	andeq	r0, r1, r0
    3104:	0000b350 	andeq	fp, r0, r0, asr r3
    3108:	0000b800 	andeq	fp, r0, r0, lsl #16
    310c:	f3002600 	vmax.u8	d2, d0, d0
    3110:	2cf75001 	ldclcs	0, cr5, [r7], #4
    3114:	25f425f7 	ldrbcs	r2, [r4, #1527]!	; 0x5f7
    3118:	cccccd08 	stclgt	13, cr12, [ip], {8}
    311c:	000000cc 	andeq	r0, r0, ip, asr #1
    3120:	20081e00 	andcs	r1, r8, r0, lsl #28
    3124:	f72525f7 			; <UNDEFINED> instruction: 0xf72525f7
    3128:	3300f72c 	movwcc	pc, #1836	; 0x72c	; <UNPREDICTABLE>
    312c:	80802325 	addhi	r2, r0, r5, lsr #6
    3130:	243240a0 	ldrtcs	r4, [r2], #-160	; 0xffffff60
    3134:	0000009f 	muleq	r0, pc, r0	; <UNPREDICTABLE>
    3138:	00000000 	andeq	r0, r0, r0
    313c:	00000200 	andeq	r0, r0, r0, lsl #4
    3140:	00000101 	andeq	r0, r0, r1, lsl #2
    3144:	0000a000 	andeq	sl, r0, r0
    3148:	0000a400 	andeq	sl, r0, r0, lsl #8
    314c:	50000100 	andpl	r0, r0, r0, lsl #2
    3150:	000000a4 	andeq	r0, r0, r4, lsr #1
    3154:	000000a4 	andeq	r0, r0, r4, lsr #1
    3158:	a4530001 	ldrbge	r0, [r3], #-1
    315c:	a8000000 	stmdage	r0, {}	; <UNPREDICTABLE>
    3160:	08000000 	stmdaeq	r0, {}	; <UNPREDICTABLE>
    3164:	00743100 	rsbseq	r3, r4, r0, lsl #2
    3168:	21007324 	tstcs	r0, r4, lsr #6
    316c:	0000a89f 	muleq	r0, pc, r8	; <UNPREDICTABLE>
    3170:	0000b300 	andeq	fp, r0, r0, lsl #6
    3174:	51000100 	mrspl	r0, (UNDEF: 16)
	...
    3188:	0000003c 	andeq	r0, r0, ip, lsr r0
    318c:	3c500001 	mrrccc	0, 0, r0, r0, cr1	; <UNPREDICTABLE>
    3190:	60000000 	andvs	r0, r0, r0
    3194:	04000000 	streq	r0, [r0], #-0
    3198:	5001f300 	andpl	pc, r1, r0, lsl #6
    319c:	0000009f 	muleq	r0, pc, r0	; <UNPREDICTABLE>
	...
    31ac:	00003f00 	andeq	r3, r0, r0, lsl #30
    31b0:	51000100 	mrspl	r0, (UNDEF: 16)
    31b4:	0000003f 	andeq	r0, r0, pc, lsr r0
    31b8:	00000060 	andeq	r0, r0, r0, rrx
    31bc:	01f30004 	mvnseq	r0, r4
    31c0:	00009f51 	andeq	r9, r0, r1, asr pc
	...
    31cc:	00080000 	andeq	r0, r8, r0
    31d0:	003f0000 	eorseq	r0, pc, r0
    31d4:	00010000 	andeq	r0, r1, r0
    31d8:	00003f51 	andeq	r3, r0, r1, asr pc
    31dc:	00006000 	andeq	r6, r0, r0
    31e0:	f3000400 	vshl.u8	d0, d0, d0
    31e4:	009f5101 	addseq	r5, pc, r1, lsl #2
	...
    31f0:	08000000 	stmdaeq	r0, {}	; <UNPREDICTABLE>
    31f4:	3c000000 	stccc	0, cr0, [r0], {-0}
    31f8:	01000000 	mrseq	r0, (UNDEF: 0)
    31fc:	003c5000 	eorseq	r5, ip, r0
    3200:	00600000 	rsbeq	r0, r0, r0
    3204:	00040000 	andeq	r0, r4, r0
    3208:	9f5001f3 	svcls	0x005001f3
	...
    3218:	00000048 	andeq	r0, r0, r8, asr #32
    321c:	00000058 	andeq	r0, r0, r8, asr r0
    3220:	58540001 	ldmdapl	r4, {r0}^
    3224:	60000000 	andvs	r0, r0, r0
    3228:	29000000 	stmdbcs	r0, {}	; <UNPREDICTABLE>
    322c:	5001f300 	andpl	pc, r1, r0, lsl #6
    3230:	f75001f3 			; <UNDEFINED> instruction: 0xf75001f3
    3234:	f425f72c 	vld1.8	{d15}, [r5 :128], ip
    3238:	cccd0825 	stclgt	8, cr0, [sp], {37}	; 0x25
    323c:	0000cccc 	andeq	ip, r0, ip, asr #25
    3240:	081e0000 	ldmdaeq	lr, {}	; <UNPREDICTABLE>
    3244:	2525f720 	strcs	pc, [r5, #-1824]!	; 0xfffff8e0
    3248:	00f72cf7 	ldrshteq	r2, [r7], #199	; 0xc7
    324c:	1e352533 	mrcne	5, 1, r2, cr5, cr3, {1}
    3250:	331c2431 	tstcc	ip, #822083584	; 0x31000000
    3254:	00009f1e 	andeq	r9, r0, lr, lsl pc
    3258:	00000000 	andeq	r0, r0, r0
    325c:	00010000 	andeq	r0, r1, r0
    3260:	00000000 	andeq	r0, r0, r0
    3264:	00000048 	andeq	r0, r0, r8, asr #32
    3268:	00000058 	andeq	r0, r0, r8, asr r0
    326c:	58560001 	ldmdapl	r6, {r0}^
    3270:	5b000000 	blpl	3278 <__code_start__-0x4d88>
    3274:	01000000 	mrseq	r0, (UNDEF: 0)
    3278:	005b5000 	subseq	r5, fp, r0
    327c:	00600000 	rsbeq	r0, r0, r0
    3280:	00260000 	eoreq	r0, r6, r0
    3284:	f75001f3 			; <UNDEFINED> instruction: 0xf75001f3
    3288:	f425f72c 	vld1.8	{d15}, [r5 :128], ip
    328c:	cccd0825 	stclgt	8, cr0, [sp], {37}	; 0x25
    3290:	0000cccc 	andeq	ip, r0, ip, asr #25
    3294:	081e0000 	ldmdaeq	lr, {}	; <UNPREDICTABLE>
    3298:	2525f720 	strcs	pc, [r5, #-1824]!	; 0xfffff8e0
    329c:	00f72cf7 	ldrshteq	r2, [r7], #199	; 0xc7
    32a0:	80232533 	eorhi	r2, r3, r3, lsr r5
    32a4:	3240a080 	subcc	sl, r0, #128, 0	; 0x80
    32a8:	00009f24 	andeq	r9, r0, r4, lsr #30
    32ac:	00000000 	andeq	r0, r0, r0
    32b0:	00020000 	andeq	r0, r2, r0
    32b4:	00010100 	andeq	r0, r1, r0, lsl #2
    32b8:	00480000 	subeq	r0, r8, r0
    32bc:	004c0000 	subeq	r0, ip, r0
    32c0:	00010000 	andeq	r0, r1, r0
    32c4:	00004c50 	andeq	r4, r0, r0, asr ip
    32c8:	00004c00 	andeq	r4, r0, r0, lsl #24
    32cc:	51000100 	mrspl	r0, (UNDEF: 16)
    32d0:	0000004c 	andeq	r0, r0, ip, asr #32
    32d4:	00000050 	andeq	r0, r0, r0, asr r0
    32d8:	0075000c 	rsbseq	r0, r5, ip
    32dc:	741aff08 	ldrvc	pc, [sl], #-3848	; 0xfffff0f8
    32e0:	00712400 	rsbseq	r2, r1, r0, lsl #8
    32e4:	00509f21 	subseq	r9, r0, r1, lsr #30
    32e8:	00540000 	subseq	r0, r4, r0
    32ec:	00120000 	andseq	r0, r2, r0
    32f0:	24007437 	strcs	r7, [r0], #-1079	; 0xfffffbc9
    32f4:	1a007020 	bne	1f37c <__bss_end__+0x14474>
    32f8:	ff080075 			; <UNDEFINED> instruction: 0xff080075
    32fc:	2400741a 	strcs	r7, [r0], #-1050	; 0xfffffbe6
    3300:	00009f21 	andeq	r9, r0, r1, lsr #30
	...
    3310:	000000b8 	strheq	r0, [r0], -r8
    3314:	000000c4 	andeq	r0, r0, r4, asr #1
    3318:	c4500001 	ldrbgt	r0, [r0], #-1
    331c:	cb000000 	blgt	3324 <__code_start__-0x4cdc>
    3320:	01000000 	mrseq	r0, (UNDEF: 0)
    3324:	00cb5300 	sbceq	r5, fp, r0, lsl #6
    3328:	00d00000 	sbcseq	r0, r0, r0
    332c:	00040000 	andeq	r0, r4, r0
    3330:	9f5001f3 	svcls	0x005001f3
	...
    3340:	00d00000 	sbcseq	r0, r0, r0
    3344:	00dc0000 	sbcseq	r0, ip, r0
    3348:	00010000 	andeq	r0, r1, r0
    334c:	0000dc50 	andeq	sp, r0, r0, asr ip
    3350:	0000e300 	andeq	lr, r0, r0, lsl #6
    3354:	53000100 	movwpl	r0, #256	; 0x100
    3358:	000000e3 	andeq	r0, r0, r3, ror #1
    335c:	000000e8 	andeq	r0, r0, r8, ror #1
    3360:	01f30004 	mvnseq	r0, r4
    3364:	00009f50 	andeq	r9, r0, r0, asr pc
	...
    3374:	000b0000 	andeq	r0, fp, r0
    3378:	00010000 	andeq	r0, r1, r0
    337c:	00000b50 	andeq	r0, r0, r0, asr fp
    3380:	00001400 	andeq	r1, r0, r0, lsl #8
    3384:	54000100 	strpl	r0, [r0], #-256	; 0xffffff00
	...
    3398:	00000018 	andeq	r0, r0, r8, lsl r0
    339c:	18510001 	ldmdane	r1, {r0}^
    33a0:	2c000000 	stccs	0, cr0, [r0], {-0}
    33a4:	04000000 	streq	r0, [r0], #-0
    33a8:	5101f300 	mrspl	pc, SP_irq	; <UNPREDICTABLE>
    33ac:	0000009f 	muleq	r0, pc, r0	; <UNPREDICTABLE>
    33b0:	00000000 	andeq	r0, r0, r0
    33b4:	00000200 	andeq	r0, r0, r0, lsl #4
    33b8:	00000000 	andeq	r0, r0, r0
    33bc:	01010000 	mrseq	r0, (UNDEF: 1)
    33c0:	00000000 	andeq	r0, r0, r0
    33c4:	04000000 	streq	r0, [r0], #-0
    33c8:	01000000 	mrseq	r0, (UNDEF: 0)
    33cc:	00045000 	andeq	r5, r4, r0
    33d0:	00080000 	andeq	r0, r8, r0
    33d4:	00010000 	andeq	r0, r1, r0
    33d8:	00000852 	andeq	r0, r0, r2, asr r8
    33dc:	00000c00 	andeq	r0, r0, r0, lsl #24
    33e0:	72000300 	andvc	r0, r0, #0, 6
    33e4:	000c9f01 	andeq	r9, ip, r1, lsl #30
    33e8:	00180000 	andseq	r0, r8, r0
    33ec:	00010000 	andeq	r0, r1, r0
    33f0:	00001852 	andeq	r1, r0, r2, asr r8
    33f4:	00001c00 	andeq	r1, r0, r0, lsl #24
    33f8:	53000100 	movwpl	r0, #256	; 0x100
    33fc:	0000001c 	andeq	r0, r0, ip, lsl r0
    3400:	00000024 	andeq	r0, r0, r4, lsr #32
    3404:	01730003 	cmneq	r3, r3
    3408:	0000249f 	muleq	r0, pc, r4	; <UNPREDICTABLE>
    340c:	00002c00 	andeq	r2, r0, r0, lsl #24
    3410:	53000100 	movwpl	r0, #256	; 0x100
	...
    341c:	00020203 	andeq	r0, r2, r3, lsl #4
    3420:	00000000 	andeq	r0, r0, r0
    3424:	00180000 	andseq	r0, r8, r0
    3428:	00010000 	andeq	r0, r1, r0
    342c:	00001851 	andeq	r1, r0, r1, asr r8
    3430:	00001c00 	andeq	r1, r0, r0, lsl #24
    3434:	71000300 	mrsvc	r0, LR_irq
    3438:	001c9f01 	andseq	r9, ip, r1, lsl #30
    343c:	002c0000 	eoreq	r0, ip, r0
    3440:	00010000 	andeq	r0, r1, r0
    3444:	00000051 	andeq	r0, r0, r1, asr r0
	...
    3450:	08000000 	stmdaeq	r0, {}	; <UNPREDICTABLE>
    3454:	0c000000 	stceq	0, cr0, [r0], {-0}
    3458:	02000000 	andeq	r0, r0, #0, 0
    345c:	0c007200 	sfmeq	f7, 4, [r0], {-0}
    3460:	18000000 	stmdane	r0, {}	; <UNPREDICTABLE>
    3464:	02000000 	andeq	r0, r0, #0, 0
    3468:	1c007300 	stcne	3, cr7, [r0], {-0}
    346c:	2c000000 	stccs	0, cr0, [r0], {-0}
    3470:	01000000 	mrseq	r0, (UNDEF: 0)
    3474:	00005200 	andeq	r5, r0, r0, lsl #4
	...
    348c:	00140000 	andseq	r0, r4, r0
    3490:	00010000 	andeq	r0, r1, r0
    3494:	00001450 	andeq	r1, r0, r0, asr r4
    3498:	00001800 	andeq	r1, r0, r0, lsl #16
    349c:	70000300 	andvc	r0, r0, r0, lsl #6
    34a0:	00189f01 	andseq	r9, r8, r1, lsl #30
    34a4:	00200000 	eoreq	r0, r0, r0
    34a8:	00010000 	andeq	r0, r1, r0
    34ac:	00002450 	andeq	r2, r0, r0, asr r4
    34b0:	00002800 	andeq	r2, r0, r0, lsl #16
    34b4:	50000100 	andpl	r0, r0, r0, lsl #2
    34b8:	00000028 	andeq	r0, r0, r8, lsr #32
    34bc:	00000030 	andeq	r0, r0, r0, lsr r0
    34c0:	01700003 	cmneq	r0, r3
    34c4:	0000389f 	muleq	r0, pc, r8	; <UNPREDICTABLE>
    34c8:	00004000 	andeq	r4, r0, r0
    34cc:	50000100 	andpl	r0, r0, r0, lsl #2
	...
    34e0:	00240000 	eoreq	r0, r4, r0
    34e4:	00010000 	andeq	r0, r1, r0
    34e8:	00002451 	andeq	r2, r0, r1, asr r4
    34ec:	00002800 	andeq	r2, r0, r0, lsl #16
    34f0:	5c000100 	stfpls	f0, [r0], {-0}
    34f4:	00000028 	andeq	r0, r0, r8, lsr #32
    34f8:	00000044 	andeq	r0, r0, r4, asr #32
    34fc:	00510001 	subseq	r0, r1, r1
	...
    3508:	00000202 	andeq	r0, r0, r2, lsl #4
    350c:	00000000 	andeq	r0, r0, r0
    3510:	00000400 	andeq	r0, r0, r0, lsl #8
    3514:	51000100 	mrspl	r0, (UNDEF: 16)
    3518:	00000004 	andeq	r0, r0, r4
    351c:	00000008 	andeq	r0, r0, r8
    3520:	01710003 	cmneq	r1, r3
    3524:	0000089f 	muleq	r0, pc, r8	; <UNPREDICTABLE>
    3528:	00001800 	andeq	r1, r0, r0, lsl #16
    352c:	51000100 	mrspl	r0, (UNDEF: 16)
	...
    3538:	00000002 	andeq	r0, r0, r2
    353c:	00040000 	andeq	r0, r4, r0
    3540:	00010000 	andeq	r0, r1, r0
    3544:	00000050 	andeq	r0, r0, r0, asr r0
	...
    3554:	00000800 	andeq	r0, r0, r0, lsl #16
    3558:	50000100 	andpl	r0, r0, r0, lsl #2
    355c:	00000008 	andeq	r0, r0, r8
    3560:	00000030 	andeq	r0, r0, r0, lsr r0
    3564:	01f30004 	mvnseq	r0, r4
    3568:	00009f50 	andeq	r9, r0, r0, asr pc
	...
    3578:	00080000 	andeq	r0, r8, r0
    357c:	00010000 	andeq	r0, r1, r0
    3580:	00000851 	andeq	r0, r0, r1, asr r8
    3584:	00003000 	andeq	r3, r0, r0
    3588:	f3000400 	vshl.u8	d0, d0, d0
    358c:	009f5101 	addseq	r5, pc, r1, lsl #2
	...
    359c:	02020100 	andeq	r0, r2, #0
    35a0:	00000000 	andeq	r0, r0, r0
    35a4:	00000400 	andeq	r0, r0, r0, lsl #8
    35a8:	52000100 	andpl	r0, r0, #0
    35ac:	00000004 	andeq	r0, r0, r4
    35b0:	00000008 	andeq	r0, r0, r8
    35b4:	01f30004 	mvnseq	r0, r4
    35b8:	00089f52 	andeq	r9, r8, r2, asr pc
    35bc:	00180000 	andseq	r0, r8, r0
    35c0:	00060000 	andeq	r0, r6, r0
    35c4:	315201f3 	ldrshcc	r0, [r2, #-19]	; 0xffffffed
    35c8:	00189f1c 	andseq	r9, r8, ip, lsl pc
    35cc:	00180000 	andseq	r0, r8, r0
    35d0:	00040000 	andeq	r0, r4, r0
    35d4:	9f5201f3 	svcls	0x005201f3
    35d8:	00000018 	andeq	r0, r0, r8, lsl r0
    35dc:	00000030 	andeq	r0, r0, r0, lsr r0
    35e0:	01f30006 	mvnseq	r0, r6
    35e4:	9f1c3152 	svcls	0x001c3152
	...
    35f0:	00000002 	andeq	r0, r0, r2
    35f4:	00000001 	andeq	r0, r0, r1
    35f8:	00000000 	andeq	r0, r0, r0
    35fc:	0000000c 	andeq	r0, r0, ip
    3600:	0c500001 	mrrceq	0, 0, r0, r0, cr1	; <UNPREDICTABLE>
    3604:	18000000 	stmdane	r0, {}	; <UNPREDICTABLE>
    3608:	03000000 	movweq	r0, #0
    360c:	9f7f7000 	svcls	0x007f7000
    3610:	00000018 	andeq	r0, r0, r8, lsl r0
    3614:	00000024 	andeq	r0, r0, r4, lsr #32
    3618:	28500001 	ldmdacs	r0, {r0}^
    361c:	2c000000 	stccs	0, cr0, [r0], {-0}
    3620:	03000000 	movweq	r0, #0
    3624:	9f7f7000 	svcls	0x007f7000
	...
    3630:	00000002 	andeq	r0, r0, r2
    3634:	00000000 	andeq	r0, r0, r0
    3638:	000c0000 	andeq	r0, ip, r0
    363c:	00010000 	andeq	r0, r1, r0
    3640:	00000c51 	andeq	r0, r0, r1, asr ip
    3644:	00001000 	andeq	r1, r0, r0
    3648:	71000300 	mrsvc	r0, LR_irq
    364c:	00109f01 	andseq	r9, r0, r1, lsl #30
    3650:	00300000 	eorseq	r0, r0, r0
    3654:	00010000 	andeq	r0, r1, r0
    3658:	00000051 	andeq	r0, r0, r1, asr r0
    365c:	00000000 	andeq	r0, r0, r0
	...

Disassembly of section .debug_aranges:

00000000 <.debug_aranges>:
   0:	0000001c 	andeq	r0, r0, ip, lsl r0
   4:	00000002 	andeq	r0, r0, r2
   8:	00040000 	andeq	r0, r4, r0
   c:	00000000 	andeq	r0, r0, r0
  10:	00008038 	andeq	r8, r0, r8, lsr r0
  14:	00000108 	andeq	r0, r0, r8, lsl #2
	...
  20:	0000001c 	andeq	r0, r0, ip, lsl r0
  24:	05110002 	ldreq	r0, [r1, #-2]
  28:	00040000 	andeq	r0, r4, r0
  2c:	00000000 	andeq	r0, r0, r0
  30:	00008140 	andeq	r8, r0, r0, asr #2
  34:	000003bc 			; <UNDEFINED> instruction: 0x000003bc
	...
  40:	0000001c 	andeq	r0, r0, ip, lsl r0
  44:	0dd20002 	ldcleq	0, cr0, [r2, #8]
  48:	00040000 	andeq	r0, r4, r0
  4c:	00000000 	andeq	r0, r0, r0
  50:	000084fc 	strdeq	r8, [r0], -ip
  54:	00000188 	andeq	r0, r0, r8, lsl #3
	...
  60:	0000001c 	andeq	r0, r0, ip, lsl r0
  64:	10d10002 	sbcsne	r0, r1, r2
  68:	00040000 	andeq	r0, r4, r0
  6c:	00000000 	andeq	r0, r0, r0
  70:	00008684 	andeq	r8, r0, r4, lsl #13
  74:	00000584 	andeq	r0, r0, r4, lsl #11
	...
  80:	0000001c 	andeq	r0, r0, ip, lsl r0
  84:	1e450002 	cdpne	0, 4, cr0, cr5, cr2, {0}
  88:	00040000 	andeq	r0, r4, r0
  8c:	00000000 	andeq	r0, r0, r0
  90:	00008c10 	andeq	r8, r0, r0, lsl ip
  94:	00000078 	andeq	r0, r0, r8, ror r0
	...
  a0:	0000001c 	andeq	r0, r0, ip, lsl r0
  a4:	1f890002 	svcne	0x00890002
  a8:	00040000 	andeq	r0, r4, r0
  ac:	00000000 	andeq	r0, r0, r0
  b0:	00008c88 	andeq	r8, r0, r8, lsl #25
  b4:	00000058 	andeq	r0, r0, r8, asr r0
	...
  c0:	0000001c 	andeq	r0, r0, ip, lsl r0
  c4:	212a0002 			; <UNDEFINED> instruction: 0x212a0002
  c8:	00040000 	andeq	r0, r4, r0
  cc:	00000000 	andeq	r0, r0, r0
  d0:	00008ce0 	andeq	r8, r0, r0, ror #25
  d4:	00000038 	andeq	r0, r0, r8, lsr r0
	...
  e0:	0000001c 	andeq	r0, r0, ip, lsl r0
  e4:	22210002 	eorcs	r0, r1, #2, 0
  e8:	00040000 	andeq	r0, r4, r0
  ec:	00000000 	andeq	r0, r0, r0
  f0:	00008d18 	andeq	r8, r0, r8, lsl sp
  f4:	000009b4 			; <UNDEFINED> instruction: 0x000009b4
	...
 100:	0000001c 	andeq	r0, r0, ip, lsl r0
 104:	2ea40002 	cdpcs	0, 10, cr0, cr4, cr2, {0}
 108:	00040000 	andeq	r0, r4, r0
 10c:	00000000 	andeq	r0, r0, r0
 110:	000096cc 	andeq	r9, r0, ip, asr #13
 114:	0000002c 	andeq	r0, r0, ip, lsr #32
	...
 120:	0000001c 	andeq	r0, r0, ip, lsl r0
 124:	2fd70002 	svccs	0x00d70002
 128:	00040000 	andeq	r0, r4, r0
 12c:	00000000 	andeq	r0, r0, r0
 130:	000096f8 	strdeq	r9, [r0], -r8
 134:	000000f8 	strdeq	r0, [r0], -r8
	...
 140:	0000001c 	andeq	r0, r0, ip, lsl r0
 144:	316b0002 	cmncc	fp, r2
 148:	00040000 	andeq	r0, r4, r0
 14c:	00000000 	andeq	r0, r0, r0
 150:	000097f0 	strdeq	r9, [r0], -r0
 154:	00000004 	andeq	r0, r0, r4
	...
 160:	0000001c 	andeq	r0, r0, ip, lsl r0
 164:	323d0002 	eorscc	r0, sp, #2, 0
 168:	00040000 	andeq	r0, r4, r0
 16c:	00000000 	andeq	r0, r0, r0
 170:	000097f4 	strdeq	r9, [r0], -r4
 174:	0000008c 	andeq	r0, r0, ip, lsl #1
	...
 180:	0000001c 	andeq	r0, r0, ip, lsl r0
 184:	34be0002 	ldrtcc	r0, [lr], #2
 188:	00040000 	andeq	r0, r4, r0
 18c:	00000000 	andeq	r0, r0, r0
 190:	00009880 	andeq	r9, r0, r0, lsl #17
 194:	0000011c 	andeq	r0, r0, ip, lsl r1
	...
 1a0:	0000001c 	andeq	r0, r0, ip, lsl r0
 1a4:	3a010002 	bcc	401b4 <__bss_end__+0x352ac>
 1a8:	00040000 	andeq	r0, r4, r0
 1ac:	00000000 	andeq	r0, r0, r0
 1b0:	0000999c 	muleq	r0, ip, r9
 1b4:	000001f0 	strdeq	r0, [r0], -r0	; <UNPREDICTABLE>
	...
 1c0:	0000001c 	andeq	r0, r0, ip, lsl r0
 1c4:	3fd20002 	svccc	0x00d20002
 1c8:	00040000 	andeq	r0, r4, r0
 1cc:	00000000 	andeq	r0, r0, r0
 1d0:	00009b8c 	andeq	r9, r0, ip, lsl #23
 1d4:	000003b0 			; <UNDEFINED> instruction: 0x000003b0
	...
 1e0:	0000001c 	andeq	r0, r0, ip, lsl r0
 1e4:	48bf0002 	ldmmi	pc!, {r1}	; <UNPREDICTABLE>
 1e8:	00040000 	andeq	r0, r4, r0
 1ec:	00000000 	andeq	r0, r0, r0
 1f0:	00009f3c 	andeq	r9, r0, ip, lsr pc
 1f4:	00000198 	muleq	r0, r8, r1
	...
 200:	0000001c 	andeq	r0, r0, ip, lsl r0
 204:	4f360002 	svcmi	0x00360002
 208:	00040000 	andeq	r0, r4, r0
 20c:	00000000 	andeq	r0, r0, r0
 210:	0000a0d4 	ldrdeq	sl, [r0], -r4
 214:	0000003c 	andeq	r0, r0, ip, lsr r0
	...
 220:	0000001c 	andeq	r0, r0, ip, lsl r0
 224:	50830002 	addpl	r0, r3, r2
 228:	00040000 	andeq	r0, r4, r0
 22c:	00000000 	andeq	r0, r0, r0
 230:	0000a110 	andeq	sl, r0, r0, lsl r1
 234:	0000002c 	andeq	r0, r0, ip, lsr #32
	...
 240:	0000001c 	andeq	r0, r0, ip, lsl r0
 244:	51be0002 			; <UNDEFINED> instruction: 0x51be0002
 248:	00040000 	andeq	r0, r4, r0
 24c:	00000000 	andeq	r0, r0, r0
 250:	0000a13c 	andeq	sl, r0, ip, lsr r1
 254:	00000044 	andeq	r0, r0, r4, asr #32
	...
 260:	0000001c 	andeq	r0, r0, ip, lsl r0
 264:	52b90002 	adcspl	r0, r9, #2, 0
 268:	00040000 	andeq	r0, r4, r0
 26c:	00000000 	andeq	r0, r0, r0
 270:	0000a180 	andeq	sl, r0, r0, lsl #3
 274:	00000018 	andeq	r0, r0, r8, lsl r0
	...
 280:	0000001c 	andeq	r0, r0, ip, lsl r0
 284:	53cc0002 	bicpl	r0, ip, #2, 0
 288:	00040000 	andeq	r0, r4, r0
 28c:	00000000 	andeq	r0, r0, r0
 290:	0000a198 	muleq	r0, r8, r1
 294:	00000030 	andeq	r0, r0, r0, lsr r0
	...
 2a0:	0000001c 	andeq	r0, r0, ip, lsl r0
 2a4:	551e0002 	ldrpl	r0, [lr, #-2]
 2a8:	00040000 	andeq	r0, r4, r0
 2ac:	00000000 	andeq	r0, r0, r0
 2b0:	0000a1c8 	andeq	sl, r0, r8, asr #3
 2b4:	00000004 	andeq	r0, r0, r4
	...

Disassembly of section .debug_ranges:

00000000 <.debug_ranges>:
	...
   8:	00000004 	andeq	r0, r0, r4
   c:	00000010 	andeq	r0, r0, r0, lsl r0
  10:	00000014 	andeq	r0, r0, r4, lsl r0
  14:	0000009c 	muleq	r0, ip, r0
	...
  28:	00000004 	andeq	r0, r0, r4
  2c:	00000010 	andeq	r0, r0, r0, lsl r0
  30:	00000014 	andeq	r0, r0, r4, lsl r0
  34:	00000094 	muleq	r0, r4, r0
	...
  48:	00000004 	andeq	r0, r0, r4
  4c:	00000010 	andeq	r0, r0, r0, lsl r0
  50:	00000014 	andeq	r0, r0, r4, lsl r0
  54:	00000020 	andeq	r0, r0, r0, lsr #32
  58:	00000050 	andeq	r0, r0, r0, asr r0
  5c:	0000005c 	andeq	r0, r0, ip, asr r0
	...
  68:	000001bc 			; <UNDEFINED> instruction: 0x000001bc
  6c:	000001f4 	strdeq	r0, [r0], -r4
  70:	00000218 	andeq	r0, r0, r8, lsl r2
  74:	00000264 	andeq	r0, r0, r4, ror #4
	...
  80:	000000b8 	strheq	r0, [r0], -r8
  84:	000000c4 	andeq	r0, r0, r4, asr #1
  88:	000000e0 	andeq	r0, r0, r0, ror #1
  8c:	00000110 	andeq	r0, r0, r0, lsl r1
	...
  98:	00000044 	andeq	r0, r0, r4, asr #32
  9c:	000000d8 	ldrdeq	r0, [r0], -r8
  a0:	000000e0 	andeq	r0, r0, r0, ror #1
  a4:	00000114 	andeq	r0, r0, r4, lsl r1
	...
  b0:	00000044 	andeq	r0, r0, r4, asr #32
  b4:	000000d0 	ldrdeq	r0, [r0], -r0	; <UNPREDICTABLE>
  b8:	000000e0 	andeq	r0, r0, r0, ror #1
  bc:	000000e8 	andeq	r0, r0, r8, ror #1
  c0:	000000f4 	strdeq	r0, [r0], -r4
  c4:	00000108 	andeq	r0, r0, r8, lsl #2
	...
  d0:	00000044 	andeq	r0, r0, r4, asr #32
  d4:	0000004c 	andeq	r0, r0, ip, asr #32
  d8:	0000007c 	andeq	r0, r0, ip, ror r0
  dc:	000000d0 	ldrdeq	r0, [r0], -r0	; <UNPREDICTABLE>
  e0:	000000e0 	andeq	r0, r0, r0, ror #1
  e4:	000000e8 	andeq	r0, r0, r8, ror #1
  e8:	000000f4 	strdeq	r0, [r0], -r4
  ec:	00000108 	andeq	r0, r0, r8, lsl #2
	...
  f8:	0000004c 	andeq	r0, r0, ip, asr #32
  fc:	00000058 	andeq	r0, r0, r8, asr r0
 100:	00000058 	andeq	r0, r0, r8, asr r0
 104:	00000074 	andeq	r0, r0, r4, ror r0
	...
 110:	0000004c 	andeq	r0, r0, ip, asr #32
 114:	00000058 	andeq	r0, r0, r8, asr r0
 118:	00000058 	andeq	r0, r0, r8, asr r0
 11c:	00000060 	andeq	r0, r0, r0, rrx
 120:	00000060 	andeq	r0, r0, r0, rrx
 124:	00000074 	andeq	r0, r0, r4, ror r0
	...
 130:	00000050 	andeq	r0, r0, r0, asr r0
 134:	00000058 	andeq	r0, r0, r8, asr r0
 138:	00000058 	andeq	r0, r0, r8, asr r0
 13c:	00000060 	andeq	r0, r0, r0, rrx
 140:	00000060 	andeq	r0, r0, r0, rrx
 144:	00000070 	andeq	r0, r0, r0, ror r0
	...
 150:	0000015c 	andeq	r0, r0, ip, asr r1
 154:	0000015c 	andeq	r0, r0, ip, asr r1
 158:	00000164 	andeq	r0, r0, r4, ror #2
 15c:	0000018c 	andeq	r0, r0, ip, lsl #3
	...
 168:	0000021c 	andeq	r0, r0, ip, lsl r2
 16c:	00000228 	andeq	r0, r0, r8, lsr #4
 170:	0000022c 	andeq	r0, r0, ip, lsr #4
 174:	00000230 	andeq	r0, r0, r0, lsr r2
 178:	00000238 	andeq	r0, r0, r8, lsr r2
 17c:	0000028c 	andeq	r0, r0, ip, lsl #5
 180:	000002c8 	andeq	r0, r0, r8, asr #5
 184:	000002e0 	andeq	r0, r0, r0, ror #5
	...
 190:	00000340 	andeq	r0, r0, r0, asr #6
 194:	00000358 	andeq	r0, r0, r8, asr r3
 198:	0000035c 	andeq	r0, r0, ip, asr r3
 19c:	00000360 	andeq	r0, r0, r0, ror #6
	...
 1a8:	00000464 	andeq	r0, r0, r4, ror #8
 1ac:	000004d0 	ldrdeq	r0, [r0], -r0	; <UNPREDICTABLE>
 1b0:	000004dc 	ldrdeq	r0, [r0], -ip
 1b4:	00000558 	andeq	r0, r0, r8, asr r5
	...
 1c0:	00000478 	andeq	r0, r0, r8, ror r4
 1c4:	00000484 	andeq	r0, r0, r4, lsl #9
 1c8:	00000490 	muleq	r0, r0, r4
 1cc:	000004bc 			; <UNDEFINED> instruction: 0x000004bc
 1d0:	000004dc 	ldrdeq	r0, [r0], -ip
 1d4:	0000052c 	andeq	r0, r0, ip, lsr #10
	...
 1e0:	00000490 	muleq	r0, r0, r4
 1e4:	00000498 	muleq	r0, r8, r4
 1e8:	000004dc 	ldrdeq	r0, [r0], -ip
 1ec:	000004e0 	andeq	r0, r0, r0, ror #9
 1f0:	000004e4 	andeq	r0, r0, r4, ror #9
 1f4:	000004e8 	andeq	r0, r0, r8, ror #9
 1f8:	000004ec 	andeq	r0, r0, ip, ror #9
 1fc:	000004f4 	strdeq	r0, [r0], -r4
 200:	00000524 	andeq	r0, r0, r4, lsr #10
 204:	00000524 	andeq	r0, r0, r4, lsr #10
	...
 210:	000000a4 	andeq	r0, r0, r4, lsr #1
 214:	00000148 	andeq	r0, r0, r8, asr #2
 218:	00000158 	andeq	r0, r0, r8, asr r1
 21c:	0000015c 	andeq	r0, r0, ip, asr r1
 220:	00000274 	andeq	r0, r0, r4, ror r2
 224:	00000278 	andeq	r0, r0, r8, ror r2
 228:	0000027c 	andeq	r0, r0, ip, ror r2
 22c:	00000280 	andeq	r0, r0, r0, lsl #5
 230:	00000288 	andeq	r0, r0, r8, lsl #5
 234:	0000029c 	muleq	r0, ip, r2
 238:	000002c0 	andeq	r0, r0, r0, asr #5
 23c:	000002cc 	andeq	r0, r0, ip, asr #5
 240:	000002f0 	strdeq	r0, [r0], -r0	; <UNPREDICTABLE>
 244:	000002f0 	strdeq	r0, [r0], -r0	; <UNPREDICTABLE>
 248:	000002f4 	strdeq	r0, [r0], -r4
 24c:	000002f8 	strdeq	r0, [r0], -r8
	...
 258:	00000148 	andeq	r0, r0, r8, asr #2
 25c:	00000158 	andeq	r0, r0, r8, asr r1
 260:	0000015c 	andeq	r0, r0, ip, asr r1
 264:	0000018c 	andeq	r0, r0, ip, lsl #3
 268:	0000029c 	muleq	r0, ip, r2
 26c:	000002ac 	andeq	r0, r0, ip, lsr #5
	...
 278:	000003c8 	andeq	r0, r0, r8, asr #7
 27c:	000003d0 	ldrdeq	r0, [r0], -r0	; <UNPREDICTABLE>
 280:	00000404 	andeq	r0, r0, r4, lsl #8
 284:	000004ac 	andeq	r0, r0, ip, lsr #9
 288:	000004c0 	andeq	r0, r0, r0, asr #9
 28c:	00000920 	andeq	r0, r0, r0, lsr #18
 290:	00000928 	andeq	r0, r0, r8, lsr #18
 294:	000009b4 			; <UNDEFINED> instruction: 0x000009b4
	...
 2a0:	000003c8 	andeq	r0, r0, r8, asr #7
 2a4:	000003d0 	ldrdeq	r0, [r0], -r0	; <UNPREDICTABLE>
 2a8:	00000504 	andeq	r0, r0, r4, lsl #10
 2ac:	000005d0 	ldrdeq	r0, [r0], -r0	; <UNPREDICTABLE>
 2b0:	00000800 	andeq	r0, r0, r0, lsl #16
 2b4:	00000888 	andeq	r0, r0, r8, lsl #17
 2b8:	00000930 	andeq	r0, r0, r0, lsr r9
 2bc:	000009b4 			; <UNDEFINED> instruction: 0x000009b4
	...
 2c8:	00000404 	andeq	r0, r0, r4, lsl #8
 2cc:	00000408 	andeq	r0, r0, r8, lsl #8
 2d0:	00000414 	andeq	r0, r0, r4, lsl r4
 2d4:	00000414 	andeq	r0, r0, r4, lsl r4
 2d8:	00000428 	andeq	r0, r0, r8, lsr #8
 2dc:	0000042c 	andeq	r0, r0, ip, lsr #8
	...
 2e8:	000005fc 	strdeq	r0, [r0], -ip
 2ec:	00000700 	andeq	r0, r0, r0, lsl #14
 2f0:	000007ec 	andeq	r0, r0, ip, ror #15
 2f4:	000007f4 	strdeq	r0, [r0], -r4
 2f8:	00000888 	andeq	r0, r0, r8, lsl #17
 2fc:	00000894 	muleq	r0, r4, r8
 300:	000008a8 	andeq	r0, r0, r8, lsr #17
 304:	000008bc 			; <UNDEFINED> instruction: 0x000008bc
 308:	00000910 	andeq	r0, r0, r0, lsl r9
 30c:	00000920 	andeq	r0, r0, r0, lsr #18
	...
 318:	00000600 	andeq	r0, r0, r0, lsl #12
 31c:	00000604 	andeq	r0, r0, r4, lsl #12
 320:	00000608 	andeq	r0, r0, r8, lsl #12
 324:	000006b4 			; <UNDEFINED> instruction: 0x000006b4
 328:	000006cc 	andeq	r0, r0, ip, asr #13
 32c:	000006d0 	ldrdeq	r0, [r0], -r0	; <UNPREDICTABLE>
 330:	000008a8 	andeq	r0, r0, r8, lsr #17
 334:	000008b8 			; <UNDEFINED> instruction: 0x000008b8
 338:	00000910 	andeq	r0, r0, r0, lsl r9
 33c:	00000920 	andeq	r0, r0, r0, lsr #18
	...
 348:	000006b4 			; <UNDEFINED> instruction: 0x000006b4
 34c:	000006cc 	andeq	r0, r0, ip, asr #13
 350:	000006d0 	ldrdeq	r0, [r0], -r0	; <UNPREDICTABLE>
 354:	00000700 	andeq	r0, r0, r0, lsl #14
 358:	000007ec 	andeq	r0, r0, ip, ror #15
 35c:	000007f4 	strdeq	r0, [r0], -r4
 360:	00000888 	andeq	r0, r0, r8, lsl #17
 364:	00000894 	muleq	r0, r4, r8
 368:	000008b8 			; <UNDEFINED> instruction: 0x000008b8
 36c:	000008bc 			; <UNDEFINED> instruction: 0x000008bc
	...
 378:	00000700 	andeq	r0, r0, r0, lsl #14
 37c:	00000708 	andeq	r0, r0, r8, lsl #14
 380:	0000070c 	andeq	r0, r0, ip, lsl #14
 384:	000007ec 	andeq	r0, r0, ip, ror #15
 388:	00000894 	muleq	r0, r4, r8
 38c:	000008a8 	andeq	r0, r0, r8, lsr #17
	...
 398:	00000728 	andeq	r0, r0, r8, lsr #14
 39c:	000007a4 	andeq	r0, r0, r4, lsr #15
 3a0:	000007ac 	andeq	r0, r0, ip, lsr #15
 3a4:	000007b0 			; <UNDEFINED> instruction: 0x000007b0
 3a8:	00000894 	muleq	r0, r4, r8
 3ac:	00000898 	muleq	r0, r8, r8
 3b0:	0000089c 	muleq	r0, ip, r8
 3b4:	000008a0 	andeq	r0, r0, r0, lsr #17
	...
 3c0:	000007a4 	andeq	r0, r0, r4, lsr #15
 3c4:	000007ac 	andeq	r0, r0, ip, lsr #15
 3c8:	000007b0 			; <UNDEFINED> instruction: 0x000007b0
 3cc:	000007ec 	andeq	r0, r0, ip, ror #15
 3d0:	00000898 	muleq	r0, r8, r8
 3d4:	0000089c 	muleq	r0, ip, r8
 3d8:	000008a0 	andeq	r0, r0, r0, lsr #17
 3dc:	000008a8 	andeq	r0, r0, r8, lsr #17
	...
 3e8:	00009820 	andeq	r9, r0, r0, lsr #16
 3ec:	00009820 	andeq	r9, r0, r0, lsr #16
 3f0:	00009824 	andeq	r9, r0, r4, lsr #16
 3f4:	0000982c 	andeq	r9, r0, ip, lsr #16
	...
 400:	000097f4 	strdeq	r9, [r0], -r4
 404:	00009880 	andeq	r9, r0, r0, lsl #17
	...
 410:	00000030 	andeq	r0, r0, r0, lsr r0
 414:	00000030 	andeq	r0, r0, r0, lsr r0
 418:	00000038 	andeq	r0, r0, r8, lsr r0
 41c:	0000004c 	andeq	r0, r0, ip, asr #32
	...
 428:	0000004c 	andeq	r0, r0, ip, asr #32
 42c:	00000050 	andeq	r0, r0, r0, asr r0
 430:	00000050 	andeq	r0, r0, r0, asr r0
 434:	00000078 	andeq	r0, r0, r8, ror r0
	...
 440:	0000004c 	andeq	r0, r0, ip, asr #32
 444:	00000050 	andeq	r0, r0, r0, asr r0
 448:	00000050 	andeq	r0, r0, r0, asr r0
 44c:	00000060 	andeq	r0, r0, r0, rrx
 450:	00000064 	andeq	r0, r0, r4, rrx
 454:	00000068 	andeq	r0, r0, r8, rrx
	...
 460:	0000004c 	andeq	r0, r0, ip, asr #32
 464:	00000050 	andeq	r0, r0, r0, asr r0
 468:	00000054 	andeq	r0, r0, r4, asr r0
 46c:	00000060 	andeq	r0, r0, r0, rrx
	...
 478:	0000009c 	muleq	r0, ip, r0
 47c:	000000a0 	andeq	r0, r0, r0, lsr #1
 480:	000000a0 	andeq	r0, r0, r0, lsr #1
 484:	000000c8 	andeq	r0, r0, r8, asr #1
	...
 490:	0000009c 	muleq	r0, ip, r0
 494:	000000a0 	andeq	r0, r0, r0, lsr #1
 498:	000000a0 	andeq	r0, r0, r0, lsr #1
 49c:	000000b0 	strheq	r0, [r0], -r0	; <UNPREDICTABLE>
 4a0:	000000b4 	strheq	r0, [r0], -r4
 4a4:	000000b8 	strheq	r0, [r0], -r8
	...
 4b0:	0000009c 	muleq	r0, ip, r0
 4b4:	000000a0 	andeq	r0, r0, r0, lsr #1
 4b8:	000000a4 	andeq	r0, r0, r4, lsr #1
 4bc:	000000b0 	strheq	r0, [r0], -r0	; <UNPREDICTABLE>
	...
 4c8:	000000c8 	andeq	r0, r0, r8, asr #1
 4cc:	000000c8 	andeq	r0, r0, r8, asr #1
 4d0:	000000cc 	andeq	r0, r0, ip, asr #1
 4d4:	0000011c 	andeq	r0, r0, ip, lsl r1
	...
 4e0:	000000f0 	strdeq	r0, [r0], -r0	; <UNPREDICTABLE>
 4e4:	000000f4 	strdeq	r0, [r0], -r4
 4e8:	000000f4 	strdeq	r0, [r0], -r4
 4ec:	0000011c 	andeq	r0, r0, ip, lsl r1
	...
 4f8:	000000f0 	strdeq	r0, [r0], -r0	; <UNPREDICTABLE>
 4fc:	000000f4 	strdeq	r0, [r0], -r4
 500:	000000f4 	strdeq	r0, [r0], -r4
 504:	00000104 	andeq	r0, r0, r4, lsl #2
 508:	00000108 	andeq	r0, r0, r8, lsl #2
 50c:	0000010c 	andeq	r0, r0, ip, lsl #2
	...
 518:	000000f0 	strdeq	r0, [r0], -r0	; <UNPREDICTABLE>
 51c:	000000f4 	strdeq	r0, [r0], -r4
 520:	000000f8 	strdeq	r0, [r0], -r8
 524:	00000104 	andeq	r0, r0, r4, lsl #2
	...
 530:	00000134 	andeq	r0, r0, r4, lsr r1
 534:	00000134 	andeq	r0, r0, r4, lsr r1
 538:	00000134 	andeq	r0, r0, r4, lsr r1
 53c:	0000013c 	andeq	r0, r0, ip, lsr r1
	...
 548:	0000024c 	andeq	r0, r0, ip, asr #4
 54c:	00000264 	andeq	r0, r0, r4, ror #4
 550:	000002c8 	andeq	r0, r0, r8, asr #5
 554:	000002e8 	andeq	r0, r0, r8, ror #5
	...
 560:	00000008 	andeq	r0, r0, r8
 564:	0000000c 	andeq	r0, r0, ip
 568:	00000014 	andeq	r0, r0, r4, lsl r0
 56c:	00000054 	andeq	r0, r0, r4, asr r0
 570:	00000058 	andeq	r0, r0, r8, asr r0
 574:	00000060 	andeq	r0, r0, r0, rrx
	...
 580:	00000060 	andeq	r0, r0, r0, rrx
 584:	00000068 	andeq	r0, r0, r8, rrx
 588:	0000006c 	andeq	r0, r0, ip, rrx
 58c:	000000ac 	andeq	r0, r0, ip, lsr #1
 590:	000000b0 	strheq	r0, [r0], -r0	; <UNPREDICTABLE>
 594:	000000b8 	strheq	r0, [r0], -r8
	...
 5a0:	00000068 	andeq	r0, r0, r8, rrx
 5a4:	00000068 	andeq	r0, r0, r8, rrx
 5a8:	0000006c 	andeq	r0, r0, ip, rrx
 5ac:	000000ac 	andeq	r0, r0, ip, lsr #1
 5b0:	000000b0 	strheq	r0, [r0], -r0	; <UNPREDICTABLE>
 5b4:	000000b8 	strheq	r0, [r0], -r8
	...
 5c0:	000000e8 	andeq	r0, r0, r8, ror #1
 5c4:	000000f0 	strdeq	r0, [r0], -r0	; <UNPREDICTABLE>
 5c8:	000000f4 	strdeq	r0, [r0], -r4
 5cc:	00000134 	andeq	r0, r0, r4, lsr r1
 5d0:	00000138 	andeq	r0, r0, r8, lsr r1
 5d4:	00000140 	andeq	r0, r0, r0, asr #2
	...
 5e0:	000000f0 	strdeq	r0, [r0], -r0	; <UNPREDICTABLE>
 5e4:	000000f0 	strdeq	r0, [r0], -r0	; <UNPREDICTABLE>
 5e8:	000000f4 	strdeq	r0, [r0], -r4
 5ec:	00000134 	andeq	r0, r0, r4, lsr r1
 5f0:	00000138 	andeq	r0, r0, r8, lsr r1
 5f4:	00000140 	andeq	r0, r0, r0, asr #2
	...
 600:	00000144 	andeq	r0, r0, r4, asr #2
 604:	00000148 	andeq	r0, r0, r8, asr #2
 608:	00000150 	andeq	r0, r0, r0, asr r1
 60c:	0000015c 	andeq	r0, r0, ip, asr r1
	...

Disassembly of section .debug_line:

00000000 <.debug_line>:
       0:	00000208 	andeq	r0, r0, r8, lsl #4
       4:	00ee0003 	rsceq	r0, lr, r3
       8:	01020000 	mrseq	r0, (UNDEF: 2)
       c:	000d0efb 	strdeq	r0, [sp], -fp
      10:	01010101 	tsteq	r1, r1, lsl #2
      14:	01000000 	mrseq	r0, (UNDEF: 0)
      18:	74010000 	strvc	r0, [r1], #-0
      1c:	73747365 	cmnvc	r4, #-1811939327	; 0x94000001
      20:	302e322d 	eorcc	r3, lr, sp, lsr #4
      24:	2f002e00 	svccs	0x00002e00
      28:	2f74706f 	svccs	0x0074706f
      2c:	656d6f68 	strbvs	r6, [sp, #-3944]!	; 0xfffff098
      30:	77657262 	strbvc	r7, [r5, -r2, ror #4]!
      34:	6c65432f 	stclvs	3, cr4, [r5], #-188	; 0xffffff44
      38:	2f72616c 	svccs	0x0072616c
      3c:	2d6d7261 	sfmcs	f7, 2, [sp, #-388]!	; 0xfffffe7c
      40:	656e6f6e 	strbvs	r6, [lr, #-3950]!	; 0xfffff092
      44:	6261652d 	rsbvs	r6, r1, #188743680	; 0xb400000
      48:	2f392d69 	svccs	0x00392d69
      4c:	30322d39 	eorscc	r2, r2, r9, lsr sp
      50:	34713931 	ldrbtcc	r3, [r1], #-2353	; 0xfffff6cf
      54:	3173632d 	cmncc	r3, sp, lsr #6
      58:	2f653730 	svccs	0x00653730
      5c:	2f62696c 	svccs	0x0062696c
      60:	2f636367 	svccs	0x00636367
      64:	2d6d7261 	sfmcs	f7, 2, [sp, #-388]!	; 0xfffffe7c
      68:	656e6f6e 	strbvs	r6, [lr, #-3950]!	; 0xfffff092
      6c:	6261652d 	rsbvs	r6, r1, #188743680	; 0xb400000
      70:	2e392f69 	cdpcs	15, 3, cr2, cr9, cr9, {3}
      74:	2f312e32 	svccs	0x00312e32
      78:	6c636e69 	stclvs	14, cr6, [r3], #-420	; 0xfffffe5c
      7c:	00656475 	rsbeq	r6, r5, r5, ror r4
      80:	6573552f 	ldrbvs	r5, [r3, #-1327]!	; 0xfffffad1
      84:	6d2f7372 	stcvs	3, cr7, [pc, #-456]!	; fffffec4 <__bss_end__+0xffff4fbc>
      88:	73656c69 	cmnvc	r5, #26880	; 0x6900
      8c:	756f532f 	strbvc	r5, [pc, #-815]!	; fffffd65 <__bss_end__+0xffff4e5d>
      90:	2f656372 	svccs	0x00656372
      94:	34327363 	ldrtcc	r7, [r2], #-867	; 0xfffffc9d
      98:	2f786c30 	svccs	0x00786c30
      9c:	7062696c 	rsbvc	r6, r2, ip, ror #18
      a0:	6e692f69 	cdpvs	15, 6, cr2, cr9, cr9, {3}
      a4:	64756c63 	ldrbtvs	r6, [r5], #-3171	; 0xfffff39d
      a8:	70000065 	andvc	r0, r0, r5, rrx
      ac:	32747261 	rsbscc	r7, r4, #268435462	; 0x10000006
      b0:	7365742d 	cmnvc	r5, #754974720	; 0x2d000000
      b4:	6e2d3474 	mcrvs	4, 1, r3, cr13, cr4, {3}
      b8:	656c2d6f 	strbvs	r2, [ip, #-3439]!	; 0xfffff291
      bc:	632e6b61 			; <UNDEFINED> instruction: 0x632e6b61
      c0:	00000100 	andeq	r0, r0, r0, lsl #2
      c4:	2d637273 	sfmcs	f7, 2, [r3, #-460]!	; 0xfffffe34
      c8:	2e636f6c 	cdpcs	15, 6, cr6, cr3, cr12, {3}
      cc:	00020068 	andeq	r0, r2, r8, rrx
      d0:	616b6300 	cmnvs	fp, r0, lsl #6
      d4:	636f6c6c 	cmnvs	pc, #108, 24	; 0x6c00
      d8:	0200682e 	andeq	r6, r0, #3014656	; 0x2e0000
      dc:	74730000 	ldrbtvc	r0, [r3], #-0
      e0:	746e6964 	strbtvc	r6, [lr], #-2404	; 0xfffff69c
      e4:	6363672d 	cmnvs	r3, #11796480	; 0xb40000
      e8:	0300682e 	movweq	r6, #2094	; 0x82e
      ec:	70720000 	rsbsvc	r0, r2, r0
      f0:	00682e69 	rsbeq	r2, r8, r9, ror #28
      f4:	00000004 	andeq	r0, r0, r4
      f8:	05001205 	streq	r1, [r0, #-517]	; 0xfffffdfb
      fc:	00803802 	addeq	r3, r0, r2, lsl #16
     100:	05051900 	streq	r1, [r5, #-2304]	; 0xfffff700
     104:	09051813 	stmdbeq	r5, {r0, r1, r4, fp, ip}
     108:	01140501 	tsteq	r4, r1, lsl #10
     10c:	04130905 	ldreq	r0, [r3], #-2309	; 0xfffff6fb
     110:	0e0b0502 	cfsh32eq	mvfx0, mvfx11, #2
     114:	04130505 	ldreq	r0, [r3], #-1285	; 0xfffffafb
     118:	06120501 	ldreq	r0, [r2], -r1, lsl #10
     11c:	0502040d 	streq	r0, [r2, #-1037]	; 0xfffffbf3
     120:	0104330c 	tsteq	r4, ip, lsl #6
     124:	04611205 	strbteq	r1, [r1], #-517	; 0xfffffdfb
     128:	330c0502 	movwcc	r0, #50434	; 0xc502
     12c:	0501042e 	streq	r0, [r1, #-1070]	; 0xfffffbd2
     130:	0e054d1a 	mcreq	13, 0, r4, cr5, cr10, {0}
     134:	2c1a0584 	cfldr32cs	mvfx0, [sl], {132}	; 0x84
     138:	2f060905 	svccs	0x00060905
     13c:	060e0567 	streq	r0, [lr], -r7, ror #10
     140:	06090501 	streq	r0, [r9], -r1, lsl #10
     144:	02042b4b 	andeq	r2, r4, #76800	; 0x12c00
     148:	050e0b05 	streq	r0, [lr, #-2821]	; 0xfffff4fb
     14c:	0c051305 	stceq	3, cr1, [r5], {5}
     150:	04660106 	strbteq	r0, [r6], #-262	; 0xfffffefa
     154:	151a0501 	ldrne	r0, [sl, #-1281]	; 0xfffffaff
     158:	83060905 	movwhi	r0, #26885	; 0x6905
     15c:	060d0567 	streq	r0, [sp], -r7, ror #10
     160:	2c0e0514 	cfstr32cs	mvfx0, [lr], {20}
     164:	2f060905 	svccs	0x00060905
     168:	01130d05 	tsteq	r3, r5, lsl #26
     16c:	02040200 	andeq	r0, r4, #0, 4
     170:	0402004a 	streq	r0, [r2], #-74	; 0xffffffb6
     174:	02000102 	andeq	r0, r0, #-2147483648	; 0x80000000
     178:	05130204 	ldreq	r0, [r3, #-516]	; 0xfffffdfc
     17c:	04020015 	streq	r0, [r2], #-21	; 0xffffffeb
     180:	05010602 	streq	r0, [r1, #-1538]	; 0xfffff9fe
     184:	0402000d 	streq	r0, [r2], #-13
     188:	052f0602 	streq	r0, [pc, #-1538]!	; fffffb8e <__bss_end__+0xffff4c86>
     18c:	04020015 	streq	r0, [r2], #-21	; 0xffffffeb
     190:	05010602 	streq	r0, [r1, #-1538]	; 0xfffff9fe
     194:	04020009 	streq	r0, [r2], #-9
     198:	004c0602 	subeq	r0, ip, r2, lsl #12
     19c:	06020402 	streq	r0, [r2], -r2, lsl #8
     1a0:	001d0501 	andseq	r0, sp, r1, lsl #10
     1a4:	06020402 	streq	r0, [r2], -r2, lsl #8
     1a8:	05017703 	streq	r7, [r1, #-1795]	; 0xfffff8fd
     1ac:	04020014 	streq	r0, [r2], #-20	; 0xffffffec
     1b0:	05050102 	streq	r0, [r5, #-258]	; 0xfffffefe
     1b4:	02040200 	andeq	r0, r4, #0, 4
     1b8:	02000106 	andeq	r0, r0, #-2147483647	; 0x80000001
     1bc:	064a0204 	strbeq	r0, [sl], -r4, lsl #4
     1c0:	30011003 	andcc	r1, r1, r3
     1c4:	13060105 	movwne	r0, #24837	; 0x6105
     1c8:	03060705 	movweq	r0, #26373	; 0x6705
     1cc:	0d056666 	stceq	6, cr6, [r5, #-408]	; 0xfffffe68
     1d0:	01010c03 	tsteq	r1, r3, lsl #24
     1d4:	031405d6 	tsteq	r4, #897581056	; 0x35800000
     1d8:	05059e10 	streq	r9, [r5, #-3600]	; 0xfffff1f0
     1dc:	06140513 			; <UNDEFINED> instruction: 0x06140513
     1e0:	2f050511 	svccs	0x00050511
     1e4:	0f054d06 	svceq	0x00054d06
     1e8:	01050106 	tsteq	r5, r6, lsl #2
     1ec:	2c0f0530 	cfstr32cs	mvfx0, [pc], {48}	; 0x30
     1f0:	2f060505 	svccs	0x00060505
     1f4:	05030401 	streq	r0, [r3, #-1025]	; 0xfffffbff
     1f8:	01790311 	cmneq	r9, r1, lsl r3
     1fc:	13130505 	tstne	r3, #20971520	; 0x1400000
     200:	01040106 	tsteq	r4, r6, lsl #2
     204:	024a2e17 	subeq	r2, sl, #368	; 0x170
     208:	01010004 	tsteq	r1, r4
     20c:	000003e1 	andeq	r0, r0, r1, ror #7
     210:	00e50003 	rsceq	r0, r5, r3
     214:	01020000 	mrseq	r0, (UNDEF: 2)
     218:	000d0efb 	strdeq	r0, [sp], -fp
     21c:	01010101 	tsteq	r1, r1, lsl #2
     220:	01000000 	mrseq	r0, (UNDEF: 0)
     224:	2f010000 	svccs	0x00010000
     228:	2f74706f 	svccs	0x0074706f
     22c:	656d6f68 	strbvs	r6, [sp, #-3944]!	; 0xfffff098
     230:	77657262 	strbvc	r7, [r5, -r2, ror #4]!
     234:	6c65432f 	stclvs	3, cr4, [r5], #-188	; 0xffffff44
     238:	2f72616c 	svccs	0x0072616c
     23c:	2d6d7261 	sfmcs	f7, 2, [sp, #-388]!	; 0xfffffe7c
     240:	656e6f6e 	strbvs	r6, [lr, #-3950]!	; 0xfffff092
     244:	6261652d 	rsbvs	r6, r1, #188743680	; 0xb400000
     248:	2f392d69 	svccs	0x00392d69
     24c:	30322d39 	eorscc	r2, r2, r9, lsr sp
     250:	34713931 	ldrbtcc	r3, [r1], #-2353	; 0xfffff6cf
     254:	3173632d 	cmncc	r3, sp, lsr #6
     258:	2f653730 	svccs	0x00653730
     25c:	2f62696c 	svccs	0x0062696c
     260:	2f636367 	svccs	0x00636367
     264:	2d6d7261 	sfmcs	f7, 2, [sp, #-388]!	; 0xfffffe7c
     268:	656e6f6e 	strbvs	r6, [lr, #-3950]!	; 0xfffff092
     26c:	6261652d 	rsbvs	r6, r1, #188743680	; 0xb400000
     270:	2e392f69 	cdpcs	15, 3, cr2, cr9, cr9, {3}
     274:	2f312e32 	svccs	0x00312e32
     278:	6c636e69 	stclvs	14, cr6, [r3], #-420	; 0xfffffe5c
     27c:	00656475 	rsbeq	r6, r5, r5, ror r4
     280:	6573552f 	ldrbvs	r5, [r3, #-1327]!	; 0xfffffad1
     284:	6d2f7372 	stcvs	3, cr7, [pc, #-456]!	; c4 <__code_start__-0x7f3c>
     288:	73656c69 	cmnvc	r5, #26880	; 0x6900
     28c:	756f532f 	strbvc	r5, [pc, #-815]!	; ffffff65 <__bss_end__+0xffff505d>
     290:	2f656372 	svccs	0x00656372
     294:	34327363 	ldrtcc	r7, [r2], #-867	; 0xfffffc9d
     298:	2f786c30 	svccs	0x00786c30
     29c:	7062696c 	rsbvc	r6, r2, ip, ror #18
     2a0:	6e692f69 	cdpvs	15, 6, cr2, cr9, cr9, {3}
     2a4:	64756c63 	ldrbtvs	r6, [r5], #-3171	; 0xfffff39d
     2a8:	63000065 	movwvs	r0, #101	; 0x65
     2ac:	6c6c616b 	stfvse	f6, [ip], #-428	; 0xfffffe54
     2b0:	632e636f 			; <UNDEFINED> instruction: 0x632e636f
     2b4:	00000000 	andeq	r0, r0, r0
     2b8:	6c616b63 			; <UNDEFINED> instruction: 0x6c616b63
     2bc:	2e636f6c 	cdpcs	15, 6, cr6, cr3, cr12, {3}
     2c0:	00000068 	andeq	r0, r0, r8, rrx
     2c4:	64747300 	ldrbtvs	r7, [r4], #-768	; 0xfffffd00
     2c8:	2d746e69 	ldclcs	14, cr6, [r4, #-420]!	; 0xfffffe5c
     2cc:	2e636367 	cdpcs	3, 6, cr6, cr3, cr7, {3}
     2d0:	00010068 	andeq	r0, r1, r8, rrx
     2d4:	69707200 	ldmdbvs	r0!, {r9, ip, sp, lr}^
     2d8:	0200682e 	andeq	r6, r0, #3014656	; 0x2e0000
     2dc:	72730000 	rsbsvc	r0, r3, #0, 0
     2e0:	6f6c2d63 	svcvs	0x006c2d63
     2e4:	00682e63 	rsbeq	r2, r8, r3, ror #28
     2e8:	6b000000 	blvs	2f0 <__code_start__-0x7d10>
     2ec:	616d2d72 	smcvs	53970	; 0xd2d2
     2f0:	636f6c6c 	cmnvs	pc, #108, 24	; 0x6c00
     2f4:	0000682e 	andeq	r6, r0, lr, lsr #16
     2f8:	05000000 	streq	r0, [r0, #-0]
     2fc:	02050001 	andeq	r0, r5, #1, 0
     300:	00008140 	andeq	r8, r0, r0, asr #2
     304:	05010b03 	streq	r0, [r1, #-2819]	; 0xfffff4fd
     308:	01051305 	tsteq	r5, r5, lsl #6
     30c:	86061306 	strhi	r1, [r6], -r6, lsl #6
     310:	05130505 	ldreq	r0, [r3, #-1285]	; 0xfffffafb
     314:	2e010608 	cfmadd32cs	mvax0, mvfx0, mvfx1, mvfx8
     318:	2f060905 	svccs	0x00060905
     31c:	01061105 	tsteq	r6, r5, lsl #2
     320:	06300105 	ldrteq	r0, [r0], -r5, lsl #2
     324:	062e2503 	strteq	r2, [lr], -r3, lsl #10
     328:	06050501 	streq	r0, [r5], -r1, lsl #10
     32c:	0200014b 	andeq	r0, r0, #-1073741806	; 0xc0000012
     330:	00660204 	rsbeq	r0, r6, r4, lsl #4
     334:	01020402 	tsteq	r2, r2, lsl #8
     338:	02040200 	andeq	r0, r4, #0, 4
     33c:	000c0513 	andeq	r0, ip, r3, lsl r5
     340:	06020402 	streq	r0, [r2], -r2, lsl #8
     344:	00050501 	andeq	r0, r5, r1, lsl #10
     348:	06020402 	streq	r0, [r2], -r2, lsl #8
     34c:	00080530 	andeq	r0, r8, r0, lsr r5
     350:	06020402 	streq	r0, [r2], -r2, lsl #8
     354:	060b0501 	streq	r0, [fp], -r1, lsl #10
     358:	06110551 			; <UNDEFINED> instruction: 0x06110551
     35c:	2e0b052e 	cfsh32cs	mvfx0, mvfx11, #30
     360:	0609052e 	streq	r0, [r9], -lr, lsr #10
     364:	060c0530 			; <UNDEFINED> instruction: 0x060c0530
     368:	060d0501 	streq	r0, [sp], -r1, lsl #10
     36c:	061b054c 	ldreq	r0, [fp], -ip, asr #10
     370:	2e180501 	cfmul32cs	mvfx0, mvfx8, mvfx1
     374:	2f060d05 	svccs	0x00060d05
     378:	17060105 	strne	r0, [r6, -r5, lsl #2]
     37c:	02000505 	andeq	r0, r0, #20971520	; 0x1400000
     380:	03060104 	movweq	r0, #24836	; 0x6104
     384:	02004a6c 	andeq	r4, r0, #108, 20	; 0x6c000
     388:	00010104 	andeq	r0, r1, r4, lsl #2
     38c:	06010402 	streq	r0, [r1], -r2, lsl #8
     390:	0402009e 	streq	r0, [r2], #-158	; 0xffffff62
     394:	02002e01 	andeq	r2, r0, #1, 28
     398:	2e060104 	adfcss	f0, f6, f4
     39c:	05330905 	ldreq	r0, [r3, #-2309]!	; 0xfffff6fb
     3a0:	0501060f 	streq	r0, [r1, #-1551]	; 0xfffff9f1
     3a4:	09052e0c 	stmdbeq	r5, {r2, r3, r9, sl, fp, sp}
     3a8:	05052f06 	streq	r2, [r5, #-3846]	; 0xfffff0fa
     3ac:	012e0d03 			; <UNDEFINED> instruction: 0x012e0d03
     3b0:	2e069e06 	cdpcs	14, 0, cr9, cr6, cr6, {0}
     3b4:	4a030105 	bmi	c07d0 <__bss_end__+0xb58c8>
     3b8:	130505ba 	movwne	r0, #21946	; 0x55ba
     3bc:	13060105 	movwne	r0, #24837	; 0x6105
     3c0:	0632062e 	ldrteq	r0, [r2], -lr, lsr #12
     3c4:	06050501 	streq	r0, [r5], -r1, lsl #10
     3c8:	0614054b 	ldreq	r0, [r4], -fp, asr #10
     3cc:	05020401 	streq	r0, [r2, #-1025]	; 0xfffffbff
     3d0:	0e030618 	mcreq	6, 0, r0, cr3, cr8, {0}
     3d4:	1305052e 	movwne	r0, #21806	; 0x552e
     3d8:	01060d05 	tsteq	r6, r5, lsl #26
     3dc:	0501042e 	streq	r0, [r1, #-1070]	; 0xfffffbd2
     3e0:	01720301 	cmneq	r2, r1, lsl #6
     3e4:	01064e06 	tsteq	r6, r6, lsl #28
     3e8:	67060505 	strvs	r0, [r6, -r5, lsl #10]
     3ec:	01061105 	tsteq	r6, r5, lsl #2
     3f0:	0605052e 	streq	r0, [r5], -lr, lsr #10
     3f4:	0611052f 	ldreq	r0, [r1], -pc, lsr #10
     3f8:	05052e01 	streq	r2, [r5, #-3585]	; 0xfffff1ff
     3fc:	01052f06 	tsteq	r5, r6, lsl #30
     400:	06661306 	strbteq	r1, [r6], -r6, lsl #6
     404:	0501064d 	streq	r0, [r1, #-1613]	; 0xfffff9b3
     408:	054c0605 	strbeq	r0, [ip, #-1541]	; 0xfffff9fb
     40c:	1505010a 	strne	r0, [r5, #-266]	; 0xfffffef6
     410:	052e0106 	streq	r0, [lr, #-262]!	; 0xfffffefa
     414:	04020025 	streq	r0, [r2], #-37	; 0xffffffdb
     418:	052e0601 	streq	r0, [lr, #-1537]!	; 0xfffff9ff
     41c:	04020005 	streq	r0, [r2], #-5
     420:	05010601 	streq	r0, [r1, #-1537]	; 0xfffff9ff
     424:	054d0609 	strbeq	r0, [sp, #-1545]	; 0xfffff9f7
     428:	4a01060d 	bmi	41c64 <__bss_end__+0x36d5c>
     42c:	052e0c05 	streq	r0, [lr, #-3077]!	; 0xfffff3fb
     430:	04020028 	streq	r0, [r2], #-40	; 0xffffffd8
     434:	05470602 	strbeq	r0, [r7, #-1538]	; 0xfffff9fe
     438:	0402002c 	streq	r0, [r2], #-44	; 0xffffffd4
     43c:	00010602 	andeq	r0, r1, r2, lsl #12
     440:	66020402 	strvs	r0, [r2], -r2, lsl #8
     444:	33060d05 	movwcc	r0, #27909	; 0x6d05
     448:	05010683 	streq	r0, [r1, #-1667]	; 0xfffff97d
     44c:	03061601 	movweq	r1, #26113	; 0x6601
     450:	0106661c 	tsteq	r6, ip, lsl r6
     454:	06050582 	streq	r0, [r5], -r2, lsl #11
     458:	0114132f 	tsteq	r4, pc, lsr #6
     45c:	051366f2 	ldreq	r6, [r3, #-1778]	; 0xfffff90e
     460:	0501060a 	streq	r0, [r1, #-1546]	; 0xfffff9f6
     464:	0d052e08 	stceq	14, cr2, [r5, #-32]	; 0xffffffe0
     468:	00140569 	andseq	r0, r4, r9, ror #10
     46c:	06010402 	streq	r0, [r1], -r2, lsl #8
     470:	0005052e 	andeq	r0, r5, lr, lsr #10
     474:	06010402 	streq	r0, [r1], -r2, lsl #8
     478:	06090501 	streq	r0, [r9], -r1, lsl #10
     47c:	0613054b 	ldreq	r0, [r3], -fp, asr #10
     480:	4a0c0501 	bmi	30188c <__bss_end__+0x2f6984>
     484:	4b060d05 	blmi	1838a0 <__bss_end__+0x178998>
     488:	05140905 	ldreq	r0, [r4, #-2309]	; 0xfffff6fb
     48c:	05010622 	streq	r0, [r1, #-1570]	; 0xfffff9de
     490:	0d052e31 	stceq	14, cr2, [r5, #-196]	; 0xffffff3c
     494:	2e0c052e 	cfsh32cs	mvfx0, mvfx12, #30
     498:	02000d05 	andeq	r0, r0, #320	; 0x140
     49c:	4b060204 	blmi	180cb4 <__bss_end__+0x175dac>
     4a0:	02002805 	andeq	r2, r0, #327680	; 0x50000
     4a4:	050d0204 	streq	r0, [sp, #-516]	; 0xfffffdfc
     4a8:	04020029 	streq	r0, [r2], #-41	; 0xffffffd7
     4ac:	00010602 	andeq	r0, r1, r2, lsl #12
     4b0:	2e020402 	cdpcs	4, 0, cr0, cr2, cr2, {0}
     4b4:	02040200 	andeq	r0, r4, #0, 4
     4b8:	0609052e 	streq	r0, [r9], -lr, lsr #10
     4bc:	669e0110 			; <UNDEFINED> instruction: 0x669e0110
     4c0:	01320d05 	teqeq	r2, r5, lsl #26
     4c4:	062e069e 			; <UNDEFINED> instruction: 0x062e069e
     4c8:	9e013182 	adflsd	f3, f1, f2
     4cc:	152e064a 	strne	r0, [lr, #-1610]!	; 0xfffff9b6
     4d0:	02001405 	andeq	r1, r0, #83886080	; 0x5000000
     4d4:	2e060104 	adfcss	f0, f6, f4
     4d8:	02001905 	andeq	r1, r0, #81920	; 0x14000
     4dc:	01060104 	tsteq	r6, r4, lsl #2
     4e0:	02000505 	andeq	r0, r0, #20971520	; 0x1400000
     4e4:	052e0104 	streq	r0, [lr, #-260]!	; 0xfffffefc
     4e8:	04020009 	streq	r0, [r2], #-9
     4ec:	052f0603 	streq	r0, [pc, #-1539]!	; fffffef1 <__bss_end__+0xffff4fe9>
     4f0:	0402001c 	streq	r0, [r2], #-28	; 0xffffffe4
     4f4:	05010603 	streq	r0, [r1, #-1539]	; 0xfffff9fd
     4f8:	04020029 	streq	r0, [r2], #-41	; 0xffffffd7
     4fc:	05490603 	strbeq	r0, [r9, #-1539]	; 0xfffff9fd
     500:	0402002a 	streq	r0, [r2], #-42	; 0xffffffd6
     504:	00010603 	andeq	r0, r1, r3, lsl #12
     508:	2e030402 	cdpcs	4, 0, cr0, cr3, cr2, {0}
     50c:	03040200 	movweq	r0, #16896	; 0x4200
     510:	0605052e 	streq	r0, [r5], -lr, lsr #10
     514:	060e0516 			; <UNDEFINED> instruction: 0x060e0516
     518:	05052e01 	streq	r2, [r5, #-3585]	; 0xfffff1ff
     51c:	00012f06 	andeq	r2, r1, r6, lsl #30
     520:	82020402 	andhi	r0, r2, #33554432	; 0x2000000
     524:	02040200 	andeq	r0, r4, #0, 4
     528:	04020001 	streq	r0, [r2], #-1
     52c:	01051402 	tsteq	r5, r2, lsl #8
     530:	02040200 	andeq	r0, r4, #0, 4
     534:	05056806 	streq	r6, [r5, #-2054]	; 0xfffff7fa
     538:	01040200 	mrseq	r0, R12_usr
     53c:	02004606 	andeq	r4, r0, #6291456	; 0x600000
     540:	00010104 	andeq	r0, r1, r4, lsl #2
     544:	d6010402 	strle	r0, [r1], -r2, lsl #8
     548:	0a030105 	beq	c0964 <__bss_end__+0xb5a5c>
     54c:	01067408 	tsteq	r6, r8, lsl #8
     550:	06050582 	streq	r0, [r5], -r2, lsl #11
     554:	0610052f 	ldreq	r0, [r0], -pc, lsr #10
     558:	06050501 	streq	r0, [r5], -r1, lsl #10
     55c:	09056969 	stmdbeq	r5, {r0, r3, r5, r6, r8, fp, sp, lr}
     560:	060d0501 	streq	r0, [sp], -r1, lsl #10
     564:	00140501 	andseq	r0, r4, r1, lsl #10
     568:	06010402 	streq	r0, [r1], -r2, lsl #8
     56c:	0005052e 	andeq	r0, r5, lr, lsr #10
     570:	06010402 	streq	r0, [r1], -r2, lsl #8
     574:	00090501 	andeq	r0, r9, r1, lsl #10
     578:	06030402 	streq	r0, [r3], -r2, lsl #8
     57c:	0013054b 	andseq	r0, r3, fp, asr #10
     580:	06030402 	streq	r0, [r3], -r2, lsl #8
     584:	00090501 	andeq	r0, r9, r1, lsl #10
     588:	06030402 	streq	r0, [r3], -r2, lsl #8
     58c:	00260567 	eoreq	r0, r6, r7, ror #10
     590:	06030402 	streq	r0, [r3], -r2, lsl #8
     594:	002b0501 	eoreq	r0, fp, r1, lsl #10
     598:	4a030402 	bmi	c15a8 <__bss_end__+0xb66a0>
     59c:	02002805 	andeq	r2, r0, #327680	; 0x50000
     5a0:	2c060304 	stccs	3, cr0, [r6], {4}
     5a4:	02002905 	andeq	r2, r0, #81920	; 0x14000
     5a8:	01060304 	tsteq	r6, r4, lsl #6
     5ac:	03040200 	movweq	r0, #16896	; 0x4200
     5b0:	0402002e 	streq	r0, [r2], #-46	; 0xffffffd2
     5b4:	05052e03 	streq	r2, [r5, #-3587]	; 0xfffff1fd
     5b8:	15051706 	strne	r1, [r5, #-1798]	; 0xfffff8fa
     5bc:	05050106 	streq	r0, [r5, #-262]	; 0xfffffefa
     5c0:	0e052f06 	cdpeq	15, 0, cr2, cr5, cr6, {0}
     5c4:	052e0106 	streq	r0, [lr, #-262]!	; 0xfffffefa
     5c8:	052f0605 	streq	r0, [pc, #-1541]!	; ffffffcb <__bss_end__+0xffff50c3>
     5cc:	05010612 	streq	r0, [r1, #-1554]	; 0xfffff9ee
     5d0:	01840605 	orreq	r0, r4, r5, lsl #12
     5d4:	05149e9e 	ldreq	r9, [r4, #-3742]	; 0xfffff162
     5d8:	0501060d 	streq	r0, [r1, #-1549]	; 0xfffff9f3
     5dc:	05670605 	strbeq	r0, [r7, #-1541]!	; 0xfffff9fb
     5e0:	05010610 	streq	r0, [r1, #-1552]	; 0xfffff9f0
     5e4:	05300605 	ldreq	r0, [r0, #-1541]!	; 0xfffff9fb
     5e8:	66140601 	ldrvs	r0, [r4], -r1, lsl #12
     5ec:	01000602 	tsteq	r0, r2, lsl #12
     5f0:	00023c01 	andeq	r3, r2, r1, lsl #24
     5f4:	64000300 	strvs	r0, [r0], #-768	; 0xfffffd00
     5f8:	02000000 	andeq	r0, r0, #0, 0
     5fc:	0d0efb01 	vstreq	d15, [lr, #-4]
     600:	01010100 	mrseq	r0, (UNDEF: 17)
     604:	00000001 	andeq	r0, r0, r1
     608:	01000001 	tsteq	r0, r1
     60c:	6573552f 	ldrbvs	r5, [r3, #-1327]!	; 0xfffffad1
     610:	6d2f7372 	stcvs	3, cr7, [pc, #-456]!	; 450 <__code_start__-0x7bb0>
     614:	73656c69 	cmnvc	r5, #26880	; 0x6900
     618:	756f532f 	strbvc	r5, [pc, #-815]!	; 2f1 <__code_start__-0x7d0f>
     61c:	2f656372 	svccs	0x00656372
     620:	34327363 	ldrtcc	r7, [r2], #-867	; 0xfffffc9d
     624:	2f786c30 	svccs	0x00786c30
     628:	7062696c 	rsbvc	r6, r2, ip, ror #18
     62c:	6e692f69 	cdpvs	15, 6, cr2, cr9, cr9, {3}
     630:	64756c63 	ldrbtvs	r6, [r5], #-3171	; 0xfffff39d
     634:	6b000065 	blvs	7d0 <__code_start__-0x7830>
     638:	616d2d72 	smcvs	53970	; 0xd2d2
     63c:	636f6c6c 	cmnvs	pc, #108, 24	; 0x6c00
     640:	0000632e 	andeq	r6, r0, lr, lsr #6
     644:	70720000 	rsbsvc	r0, r2, r0
     648:	00682e69 	rsbeq	r2, r8, r9, ror #28
     64c:	6b000001 	blvs	658 <__code_start__-0x79a8>
     650:	616d2d72 	smcvs	53970	; 0xd2d2
     654:	636f6c6c 	cmnvs	pc, #108, 24	; 0x6c00
     658:	0000682e 	andeq	r6, r0, lr, lsr #16
     65c:	05000000 	streq	r0, [r0, #-0]
     660:	02050001 	andeq	r0, r5, #1, 0
     664:	000084fc 	strdeq	r8, [r0], -ip
     668:	0100d303 	tsteq	r0, r3, lsl #6
     66c:	13130205 	tstne	r3, #1342177280	; 0x50000000
     670:	10060105 	andne	r0, r6, r5, lsl #2
     674:	05310905 	ldreq	r0, [r1, #-2309]!	; 0xfffff6fb
     678:	02052d05 	andeq	r2, r5, #320	; 0x140
     67c:	09052f06 	stmdbeq	r5, {r1, r2, r8, r9, sl, fp, sp}
     680:	02050106 	andeq	r0, r5, #-2147483647	; 0x80000001
     684:	0012052e 	andseq	r0, r2, lr, lsr #10
     688:	2e030402 	cdpcs	4, 0, cr0, cr3, cr2, {0}
     68c:	054b0605 	strbeq	r0, [fp, #-1541]	; 0xfffff9fb
     690:	04020001 	streq	r0, [r2], #-1
     694:	12054601 	andne	r4, r5, #1048576	; 0x100000
     698:	01040200 	mrseq	r0, R12_usr
     69c:	03053106 	movweq	r3, #20742	; 0x5106
     6a0:	01040200 	mrseq	r0, R12_usr
     6a4:	04020013 	streq	r0, [r2], #-19	; 0xffffffed
     6a8:	02050101 	andeq	r0, r5, #1073741824	; 0x40000000
     6ac:	01040200 	mrseq	r0, R12_usr
     6b0:	10051106 	andne	r1, r5, r6, lsl #2
     6b4:	01040200 	mrseq	r0, R12_usr
     6b8:	0002052f 	andeq	r0, r2, pc, lsr #10
     6bc:	2d010402 	cfstrscs	mvf0, [r1, #-8]
     6c0:	052f0605 	streq	r0, [pc, #-1541]!	; c3 <__code_start__-0x7f3d>
     6c4:	04020020 	streq	r0, [r2], #-32	; 0xffffffe0
     6c8:	02054a02 	andeq	r4, r5, #8192	; 0x2000
     6cc:	10054c06 	andne	r4, r5, r6, lsl #24
     6d0:	08050106 	stmdaeq	r5, {r1, r2, r8}
     6d4:	052e0e03 	streq	r0, [lr, #-3587]!	; 0xfffff1fd
     6d8:	2e720309 	cdpcs	3, 7, cr0, cr2, cr9, {0}
     6dc:	052e0505 	streq	r0, [lr, #-1285]!	; 0xfffffafb
     6e0:	05300603 	ldreq	r0, [r0, #-1539]!	; 0xfffff9fd
     6e4:	0513061a 	ldreq	r0, [r3, #-1562]	; 0xfffff9e6
     6e8:	03052d0e 	movweq	r2, #23822	; 0x5d0e
     6ec:	0e054b06 	vmlaeq.f64	d4, d5, d6
     6f0:	02051606 	andeq	r1, r5, #6291456	; 0x600000
     6f4:	08054a06 	stmdaeq	r5, {r1, r2, r9, fp, lr}
     6f8:	05050106 	streq	r0, [r5, #-262]	; 0xfffffefa
     6fc:	0603052e 	streq	r0, [r3], -lr, lsr #10
     700:	060c0530 			; <UNDEFINED> instruction: 0x060c0530
     704:	2d0d0513 	cfstr32cs	mvfx0, [sp, #-76]	; 0xffffffb4
     708:	4b060305 	blmi	181324 <__bss_end__+0x17641c>
     70c:	05320205 	ldreq	r0, [r2, #-517]!	; 0xfffffdfb
     710:	06130601 	ldreq	r0, [r3], -r1, lsl #12
     714:	054a4303 	strbeq	r4, [sl, #-771]	; 0xfffffcfd
     718:	14131302 	ldrne	r1, [r3], #-770	; 0xfffffcfe
     71c:	0e060105 	adfeqs	f0, f6, f5
     720:	05330d05 	ldreq	r0, [r3, #-3333]!	; 0xfffff2fb
     724:	0d052d24 	stceq	13, cr2, [r5, #-144]	; 0xffffff70
     728:	2d29052f 	cfstr32cs	mvfx0, [r9, #-188]!	; 0xffffff44
     72c:	052f0505 	streq	r0, [pc, #-1285]!	; 22f <__code_start__-0x7dd1>
     730:	02052d09 	andeq	r2, r5, #576	; 0x240
     734:	05052f06 	streq	r2, [r5, #-3846]	; 0xfffff0fa
     738:	02050106 	andeq	r0, r5, #-2147483647	; 0x80000001
     73c:	09053406 	stmdbeq	r5, {r1, r2, sl, ip, sp}
     740:	03050106 	movweq	r0, #20742	; 0x5106
     744:	0b053006 	bleq	14c764 <__bss_end__+0x14185c>
     748:	06050106 	streq	r0, [r5], -r6, lsl #2
     74c:	0302052e 	movweq	r0, #9518	; 0x252e
     750:	05664a67 	strbeq	r4, [r6, #-2663]!	; 0xfffff599
     754:	1703061a 	smladne	r3, sl, r6, r0
     758:	06270501 	strteq	r0, [r7], -r1, lsl #10
     75c:	06180501 	ldreq	r0, [r8], -r1, lsl #10
     760:	1403052e 	strne	r0, [r3], #-1326	; 0xfffffad2
     764:	01060b05 	tsteq	r6, r5, lsl #22
     768:	052e0605 	streq	r0, [lr, #-1541]!	; 0xfffff9fb
     76c:	0f030603 	svceq	0x00030603
     770:	0606054a 	streq	r0, [r6], -sl, asr #10
     774:	06040501 	streq	r0, [r4], -r1, lsl #10
     778:	03100568 	tsteq	r0, #104, 10	; 0x1a000000
     77c:	02050152 	andeq	r0, r5, #-2147483628	; 0x80000014
     780:	05671414 	strbeq	r1, [r7, #-1044]!	; 0xfffffbec
     784:	0501060d 	streq	r0, [r1, #-1549]	; 0xfffff9f3
     788:	054d0602 	strbeq	r0, [sp, #-1538]	; 0xfffff9fe
     78c:	050f060d 	streq	r0, [pc, #-1549]	; 187 <__code_start__-0x7e79>
     790:	152f0602 	strne	r0, [pc, #-1538]!	; 196 <__code_start__-0x7e6a>
     794:	0f060505 	svceq	0x00060505
     798:	05320205 	ldreq	r0, [r2, #-517]!	; 0xfffffdfb
     79c:	0d052a05 	vstreq	s4, [r5, #-20]	; 0xffffffec
     7a0:	06020531 			; <UNDEFINED> instruction: 0x06020531
     7a4:	09052f2f 	stmdbeq	r5, {r0, r1, r2, r3, r5, r8, r9, sl, fp, sp}
     7a8:	052e0106 	streq	r0, [lr, #-262]!	; 0xfffffefa
     7ac:	01230307 			; <UNDEFINED> instruction: 0x01230307
     7b0:	6d032705 	stcvs	7, cr2, [r3, #-20]	; 0xffffffec
     7b4:	061a054a 	ldreq	r0, [sl], -sl, asr #10
     7b8:	0118054a 	tsteq	r8, sl, asr #10
     7bc:	05140305 	ldreq	r0, [r4, #-773]	; 0xfffffcfb
     7c0:	0501060b 	streq	r0, [r1, #-1547]	; 0xfffff9f5
     7c4:	04052e06 	streq	r2, [r5], #-3590	; 0xfffff1fa
     7c8:	07054c06 	streq	r4, [r5, -r6, lsl #24]
     7cc:	05050106 	streq	r0, [r5, #-262]	; 0xfffffefa
     7d0:	05163006 	ldreq	r3, [r6, #-6]
     7d4:	050e0618 	streq	r0, [lr, #-1560]	; 0xfffff9e8
     7d8:	0505320f 	streq	r3, [r5, #-527]	; 0xfffffdf1
     7dc:	07054b06 	streq	r4, [r5, -r6, lsl #22]
     7e0:	05050106 	streq	r0, [r5, #-262]	; 0xfffffefa
     7e4:	0f052f06 	svceq	0x00052f06
     7e8:	04050106 	streq	r0, [r5], #-262	; 0xfffffefa
     7ec:	12053006 	andne	r3, r5, #6, 0
     7f0:	01780306 	cmneq	r8, r6, lsl #6
     7f4:	05360a05 	ldreq	r0, [r6, #-2565]!	; 0xfffff5fb
     7f8:	052f0604 	streq	r0, [pc, #-1540]!	; 1fc <__code_start__-0x7e04>
     7fc:	0501060b 	streq	r0, [r1, #-1547]	; 0xfffff9f5
     800:	0105500c 	tsteq	r5, ip
     804:	06030532 			; <UNDEFINED> instruction: 0x06030532
     808:	052e6303 	streq	r6, [lr, #-771]!	; 0xfffffcfd
     80c:	05010616 	streq	r0, [r1, #-1558]	; 0xfffff9ea
     810:	09052f0f 	stmdbeq	r5, {r0, r1, r2, r3, r8, r9, sl, fp, sp}
     814:	2b0f0531 	blcs	3c1ce0 <__bss_end__+0x3b6dd8>
     818:	052d1605 	streq	r1, [sp, #-1541]!	; 0xfffff9fb
     81c:	03052e0e 	movweq	r2, #24078	; 0x5e0e
     820:	02052f06 	andeq	r2, r5, #6, 30
     824:	14030515 	strne	r0, [r3], #-1301	; 0xfffffaeb
     828:	2e060605 	cfmadd32cs	mvax0, mvfx0, mvfx6, mvfx5
     82c:	01000802 	tsteq	r0, r2, lsl #16
     830:	00059c01 	andeq	r9, r5, r1, lsl #24
     834:	d4000300 	strle	r0, [r0], #-768	; 0xfffffd00
     838:	02000000 	andeq	r0, r0, #0, 0
     83c:	0d0efb01 	vstreq	d15, [lr, #-4]
     840:	01010100 	mrseq	r0, (UNDEF: 17)
     844:	00000001 	andeq	r0, r0, r1
     848:	01000001 	tsteq	r0, r1
     84c:	74706f2f 	ldrbtvc	r6, [r0], #-3887	; 0xfffff0d1
     850:	6d6f682f 	stclvs	8, cr6, [pc, #-188]!	; 79c <__code_start__-0x7864>
     854:	65726265 	ldrbvs	r6, [r2, #-613]!	; 0xfffffd9b
     858:	65432f77 	strbvs	r2, [r3, #-3959]	; 0xfffff089
     85c:	72616c6c 	rsbvc	r6, r1, #108, 24	; 0x6c00
     860:	6d72612f 	ldfvse	f6, [r2, #-188]!	; 0xffffff44
     864:	6e6f6e2d 	cdpvs	14, 6, cr6, cr15, cr13, {1}
     868:	61652d65 	cmnvs	r5, r5, ror #26
     86c:	392d6962 	pushcc	{r1, r5, r6, r8, fp, sp, lr}
     870:	322d392f 	eorcc	r3, sp, #770048	; 0xbc000
     874:	71393130 	teqvc	r9, r0, lsr r1
     878:	73632d34 	cmnvc	r3, #52, 26	; 0xd00
     87c:	65373031 	ldrvs	r3, [r7, #-49]!	; 0xffffffcf
     880:	62696c2f 	rsbvs	r6, r9, #12032	; 0x2f00
     884:	6363672f 	cmnvs	r3, #12320768	; 0xbc0000
     888:	6d72612f 	ldfvse	f6, [r2, #-188]!	; 0xffffff44
     88c:	6e6f6e2d 	cdpvs	14, 6, cr6, cr15, cr13, {1}
     890:	61652d65 	cmnvs	r5, r5, ror #26
     894:	392f6962 	stmdbcc	pc!, {r1, r5, r6, r8, fp, sp, lr}	; <UNPREDICTABLE>
     898:	312e322e 			; <UNDEFINED> instruction: 0x312e322e
     89c:	636e692f 	cmnvs	lr, #770048	; 0xbc000
     8a0:	6564756c 	strbvs	r7, [r4, #-1388]!	; 0xfffffa94
     8a4:	73552f00 	cmpvc	r5, #0, 30
     8a8:	2f737265 	svccs	0x00737265
     8ac:	656c696d 	strbvs	r6, [ip, #-2413]!	; 0xfffff693
     8b0:	6f532f73 	svcvs	0x00532f73
     8b4:	65637275 	strbvs	r7, [r3, #-629]!	; 0xfffffd8b
     8b8:	3273632f 	rsbscc	r6, r3, #-1140850688	; 0xbc000000
     8bc:	786c3034 	stmdavc	ip!, {r2, r4, r5, ip, sp}^
     8c0:	62696c2f 	rsbvs	r6, r9, #12032	; 0x2f00
     8c4:	692f6970 	stmdbvs	pc!, {r4, r5, r6, r8, fp, sp, lr}	; <UNPREDICTABLE>
     8c8:	756c636e 	strbvc	r6, [ip, #-878]!	; 0xfffffc92
     8cc:	00006564 	andeq	r6, r0, r4, ror #10
     8d0:	672d6b63 	strvs	r6, [sp, -r3, ror #22]!
     8d4:	00632e63 	rsbeq	r2, r3, r3, ror #28
     8d8:	73000000 	movwvc	r0, #0
     8dc:	6c2d6372 	stcvs	3, cr6, [sp], #-456	; 0xfffffe38
     8e0:	682e636f 	stmdavs	lr!, {r0, r1, r2, r3, r5, r6, r8, r9, sp, lr}
     8e4:	00000000 	andeq	r0, r0, r0
     8e8:	69647473 	stmdbvs	r4!, {r0, r1, r4, r5, r6, sl, ip, sp, lr}^
     8ec:	672d746e 	strvs	r7, [sp, -lr, ror #8]!
     8f0:	682e6363 	stmdavs	lr!, {r0, r1, r5, r6, r8, r9, sp, lr}
     8f4:	00000100 	andeq	r0, r0, r0, lsl #2
     8f8:	2e697072 	mcrcs	0, 3, r7, cr9, cr2, {3}
     8fc:	00020068 	andeq	r0, r2, r8, rrx
     900:	616b6300 	cmnvs	fp, r0, lsl #6
     904:	636f6c6c 	cmnvs	pc, #108, 24	; 0x6c00
     908:	0000682e 	andeq	r6, r0, lr, lsr #16
     90c:	05000000 	streq	r0, [r0, #-0]
     910:	02050001 	andeq	r0, r5, #1, 0
     914:	00008684 	andeq	r8, r0, r4, lsl #13
     918:	0100d003 	tsteq	r0, r3
     91c:	01130505 	tsteq	r3, r5, lsl #10
     920:	11060105 	tstne	r6, r5, lsl #2
     924:	052f0505 	streq	r0, [pc, #-1285]!	; 427 <__code_start__-0x7bd9>
     928:	05056501 	streq	r6, [r5, #-1281]	; 0xfffffaff
     92c:	0402002f 	streq	r0, [r2], #-47	; 0xffffffd1
     930:	002e0602 	eoreq	r0, lr, r2, lsl #12
     934:	01020402 	tsteq	r2, r2, lsl #8
     938:	02040200 	andeq	r0, r4, #0, 4
     93c:	04020015 	streq	r0, [r2], #-21	; 0xffffffeb
     940:	02000102 	andeq	r0, r0, #-2147483648	; 0x80000000
     944:	00660204 	rsbeq	r0, r6, r4, lsl #4
     948:	01020402 	tsteq	r2, r2, lsl #8
     94c:	02040200 	andeq	r0, r4, #0, 4
     950:	04020013 	streq	r0, [r2], #-19	; 0xffffffed
     954:	02000102 	andeq	r0, r0, #-2147483648	; 0x80000000
     958:	9e060204 	cdpls	2, 0, cr0, cr6, cr4, {0}
     95c:	09030d05 	stmdbeq	r3, {r0, r2, r8, sl, fp}
     960:	0b054a66 	bleq	153300 <__bss_end__+0x1483f8>
     964:	05015f03 	streq	r5, [r1, #-3843]	; 0xfffff0fd
     968:	2e700308 	cdpcs	3, 7, cr0, cr0, cr8, {0}
     96c:	0609054a 	streq	r0, [r9], -sl, asr #10
     970:	05012c03 	streq	r2, [r1, #-3075]	; 0xfffff3fd
     974:	54030608 	strpl	r0, [r3], #-1544	; 0xfffff9f8
     978:	0f054a01 	svceq	0x00054a01
     97c:	010e0306 	tsteq	lr, r6, lsl #6
     980:	14140505 	ldrne	r0, [r4], #-1285	; 0xfffffafb
     984:	6b030c05 	blvs	c39a0 <__bss_end__+0xb8a98>
     988:	15050501 	strne	r0, [r5, #-1281]	; 0xfffffaff
     98c:	01060805 	tsteq	r6, r5, lsl #16
     990:	662e1805 	strtvs	r1, [lr], -r5, lsl #16
     994:	03060505 	movweq	r0, #25861	; 0x6505
     998:	0c050114 	stfeqs	f0, [r5], {20}
     99c:	052e0106 	streq	r0, [lr, #-262]!	; 0xfffffefa
     9a0:	19030609 	stmdbne	r3, {r0, r3, r9, sl}
     9a4:	060c0501 	streq	r0, [ip], -r1, lsl #10
     9a8:	060d0501 	streq	r0, [sp], -r1, lsl #10
     9ac:	0616054c 	ldreq	r0, [r6], -ip, asr #10
     9b0:	2f0d0513 	svccs	0x000d0513
     9b4:	052c2905 	streq	r2, [ip, #-2309]!	; 0xfffff6fb
     9b8:	132f060d 			; <UNDEFINED> instruction: 0x132f060d
     9bc:	061005bb 			; <UNDEFINED> instruction: 0x061005bb
     9c0:	06110501 	ldreq	r0, [r1], -r1, lsl #10
     9c4:	0619054c 	ldreq	r0, [r9], -ip, asr #10
     9c8:	2f110501 	svccs	0x00110501
     9cc:	052d1905 	streq	r1, [sp, #-2309]!	; 0xfffff6fb
     9d0:	69066711 	stmdbvs	r6, {r0, r4, r8, r9, sl, sp, lr}
     9d4:	01061405 	tsteq	r6, r5, lsl #8
     9d8:	0623054a 	strteq	r0, [r3], -sl, asr #10
     9dc:	05017203 	streq	r7, [r1, #-515]	; 0xfffffdfd
     9e0:	0505011b 	streq	r0, [r5, #-283]	; 0xfffffee5
     9e4:	054a0106 	strbeq	r0, [sl, #-262]	; 0xfffffefa
     9e8:	01190301 	tsteq	r9, r1, lsl #6
     9ec:	46061105 	strmi	r1, [r6], -r5, lsl #2
     9f0:	23054a06 	movwcs	r4, #23046	; 0x5a06
     9f4:	016b0306 	cmneq	fp, r6, lsl #6
     9f8:	05011b05 	streq	r1, [r1, #-2821]	; 0xfffff4fb
     9fc:	05010605 	streq	r0, [r1, #-1541]	; 0xfffff9fb
     a00:	10030615 	andne	r0, r3, r5, lsl r6
     a04:	059e0666 	ldreq	r0, [lr, #1638]	; 0x666
     a08:	70030623 	andvc	r0, r3, r3, lsr #12
     a0c:	011b0501 	tsteq	fp, r1, lsl #10
     a10:	01060505 	tsteq	r6, r5, lsl #10
     a14:	04020066 	streq	r0, [r2], #-102	; 0xffffff9a
     a18:	000f0601 	andeq	r0, pc, r1, lsl #12
     a1c:	01010402 	tsteq	r1, r2, lsl #8
     a20:	01040200 	mrseq	r0, R12_usr
     a24:	02004a06 	andeq	r4, r0, #24576	; 0x6000
     a28:	002e0104 	eoreq	r0, lr, r4, lsl #2
     a2c:	4a010402 	bmi	41a3c <__bss_end__+0x36b34>
     a30:	01040200 	mrseq	r0, R12_usr
     a34:	01054a06 	tsteq	r5, r6, lsl #20
     a38:	58082503 	stmdapl	r8, {r0, r1, r8, sl, sp}
     a3c:	05160505 	ldreq	r0, [r6, #-1285]	; 0xfffffafb
     a40:	0105010a 	tsteq	r5, sl, lsl #2
     a44:	15050e06 	strne	r0, [r5, #-3590]	; 0xfffff1fa
     a48:	0625054e 	strteq	r0, [r5], -lr, asr #10
     a4c:	0605052e 	streq	r0, [r5], -lr, lsr #10
     a50:	32052e01 	andcc	r2, r5, #1, 28
     a54:	00090530 	andeq	r0, r9, r0, lsr r5
     a58:	06030402 	streq	r0, [r3], -r2, lsl #8
     a5c:	0032052e 	eorseq	r0, r2, lr, lsr #10
     a60:	06030402 	streq	r0, [r3], -r2, lsl #8
     a64:	00210501 	eoreq	r0, r1, r1, lsl #10
     a68:	2e030402 	cdpcs	4, 0, cr0, cr3, cr2, {0}
     a6c:	02001105 	andeq	r1, r0, #1073741825	; 0x40000001
     a70:	052e0304 	streq	r0, [lr, #-772]!	; 0xfffffcfc
     a74:	04020028 	streq	r0, [r2], #-40	; 0xffffffd8
     a78:	052c0603 	streq	r0, [ip, #-1539]!	; 0xfffff9fd
     a7c:	0402002c 	streq	r0, [r2], #-44	; 0xffffffd4
     a80:	05010603 	streq	r0, [r1, #-1539]	; 0xfffff9fd
     a84:	04020025 	streq	r0, [r2], #-37	; 0xffffffdb
     a88:	052e0603 	streq	r0, [lr, #-1539]!	; 0xfffff9fd
     a8c:	04020005 	streq	r0, [r2], #-5
     a90:	00010603 	andeq	r0, r1, r3, lsl #12
     a94:	2e030402 	cdpcs	4, 0, cr0, cr3, cr2, {0}
     a98:	03040200 	movweq	r0, #16896	; 0x4200
     a9c:	1319062e 	tstne	r9, #48234496	; 0x2e00000
     aa0:	30062e06 	andcc	r2, r6, r6, lsl #28
     aa4:	05131313 	ldreq	r1, [r3, #-787]	; 0xfffffced
     aa8:	050f060d 	streq	r0, [pc, #-1549]	; 4a3 <__code_start__-0x7b5d>
     aac:	4a0a0305 	bmi	2816c8 <__bss_end__+0x2767c0>
     ab0:	76030d05 	strvc	r0, [r3], -r5, lsl #26
     ab4:	0605054a 	streq	r0, [r5], -sl, asr #10
     ab8:	324a0a03 	subcc	r0, sl, #12288	; 0x3000
     abc:	13698313 	cmnne	r9, #1275068416	; 0x4c000000
     ac0:	01051368 	tsteq	r5, r8, ror #6
     ac4:	dc066706 	stcle	7, cr6, [r6], {6}
     ac8:	13130505 	tstne	r3, #20971520	; 0x1400000
     acc:	10060105 	andne	r0, r6, r5, lsl #2
     ad0:	3005052e 	andcc	r0, r5, lr, lsr #10
     ad4:	4c2f062e 	stcmi	6, cr0, [pc], #-184	; a24 <__code_start__-0x75dc>
     ad8:	010a052f 	tsteq	sl, pc, lsr #10
     adc:	01061505 	tsteq	r6, r5, lsl #10
     ae0:	2e062505 	cfsh32cs	mvfx2, mvfx6, #5
     ae4:	01060505 	tsteq	r6, r5, lsl #10
     ae8:	05452705 	strbeq	r2, [r5, #-1797]	; 0xfffff8fb
     aec:	2e10030d 	cdpcs	3, 1, cr0, cr0, cr13, {0}
     af0:	70031b05 	andvc	r1, r3, r5, lsl #22
     af4:	2e0e052e 	cfsh32cs	mvfx0, mvfx14, #30
     af8:	0b030d05 	bleq	c3f14 <__bss_end__+0xb900c>
     afc:	4c11052e 	cfldr32mi	mvfx0, [r1], {46}	; 0x2e
     b00:	02002805 	andeq	r2, r0, #327680	; 0x50000
     b04:	03060204 	movweq	r0, #25092	; 0x6204
     b08:	2c054a78 			; <UNDEFINED> instruction: 0x2c054a78
     b0c:	02040200 	andeq	r0, r4, #0, 4
     b10:	25050106 	strcs	r0, [r5, #-262]	; 0xfffffefa
     b14:	02040200 	andeq	r0, r4, #0, 4
     b18:	05054a06 	streq	r4, [r5, #-2566]	; 0xfffff5fa
     b1c:	02040200 	andeq	r0, r4, #0, 4
     b20:	09050106 	stmdbeq	r5, {r1, r2, r8}
     b24:	0e054c06 	cdpeq	12, 0, cr4, cr5, cr6, {0}
     b28:	050d0618 	streq	r0, [sp, #-1560]	; 0xfffff9e8
     b2c:	09052d10 	stmdbeq	r5, {r4, r8, sl, fp, sp}
     b30:	0c052f06 	stceq	15, cr2, [r5], {6}
     b34:	0d050106 	stfeqs	f0, [r5, #-24]	; 0xffffffe8
     b38:	13064c06 	movwne	r4, #27654	; 0x6c06
     b3c:	032c0566 			; <UNDEFINED> instruction: 0x032c0566
     b40:	05052e7a 	streq	r2, [r5, #-3706]	; 0xfffff186
     b44:	3313054a 	tstcc	r3, #310378496	; 0x12800000
     b48:	2f060d05 	svccs	0x00060d05
     b4c:	7a032805 	bvc	cab68 <__bss_end__+0xbfc60>
     b50:	01250501 			; <UNDEFINED> instruction: 0x01250501
     b54:	01060505 	tsteq	r6, r5, lsl #10
     b58:	0f03062e 	svceq	0x0003062e
     b5c:	4a060101 	bmi	180f68 <__bss_end__+0x176060>
     b60:	05132e06 	ldreq	r2, [r3, #-3590]	; 0xfffff1fa
     b64:	05010608 	streq	r0, [r1, #-1544]	; 0xfffff9f8
     b68:	014d0609 	cmpeq	sp, r9, lsl #12
     b6c:	01040200 	mrseq	r0, R12_usr
     b70:	00050582 	andeq	r0, r5, r2, lsl #11
     b74:	14010402 	strne	r0, [r1], #-1026	; 0xfffffbfe
     b78:	01040200 	mrseq	r0, R12_usr
     b7c:	0008054b 	andeq	r0, r8, fp, asr #10
     b80:	06010402 	streq	r0, [r1], -r2, lsl #8
     b84:	00170501 	andseq	r0, r7, r1, lsl #10
     b88:	30010402 	andcc	r0, r1, r2, lsl #8
     b8c:	02000105 	andeq	r0, r0, #1073741825	; 0x40000001
     b90:	05340104 	ldreq	r0, [r4, #-260]!	; 0xfffffefc
     b94:	6c03060d 	stcvs	6, cr0, [r3], {13}
     b98:	0513064a 	ldreq	r0, [r3, #-1610]	; 0xfffff9b6
     b9c:	0d056519 	cfstr32eq	mvfx6, [r5, #-100]	; 0xffffff9c
     ba0:	4a062f06 	bmi	18c7c0 <__bss_end__+0x1818b8>
     ba4:	16060505 	strne	r0, [r6], -r5, lsl #10
     ba8:	064a0601 	strbeq	r0, [sl], -r1, lsl #12
     bac:	0905132e 	stmdbeq	r5, {r1, r2, r3, r5, r8, r9, ip}
     bb0:	05820113 	streq	r0, [r2, #275]	; 0x113
     bb4:	7ed70301 	cdpvc	3, 13, cr0, cr7, cr1, {0}
     bb8:	05052008 	streq	r2, [r5, #-8]
     bbc:	05011413 	streq	r1, [r1, #-1043]	; 0xfffffbed
     bc0:	050f0601 	streq	r0, [pc, #-1537]	; 5c7 <__code_start__-0x7a39>
     bc4:	01053105 	tsteq	r5, r5, lsl #2
     bc8:	3105052b 	tstcc	r5, fp, lsr #10
     bcc:	02040200 	andeq	r0, r4, #0, 4
     bd0:	02002e06 	andeq	r2, r0, #96	; 0x60
     bd4:	00010204 	andeq	r0, r1, r4, lsl #4
     bd8:	13020402 	movwne	r0, #9218	; 0x2402
     bdc:	02000905 	andeq	r0, r0, #81920	; 0x14000
     be0:	01060204 	tsteq	r6, r4, lsl #4
     be4:	02000805 	andeq	r0, r0, #327680	; 0x50000
     be8:	052e0204 	streq	r0, [lr, #-516]!	; 0xfffffdfc
     bec:	15670609 	strbne	r0, [r7, #-1545]!	; 0xfffff9f7
     bf0:	06140513 			; <UNDEFINED> instruction: 0x06140513
     bf4:	2f120501 	svccs	0x00120501
     bf8:	052f0905 	streq	r0, [pc, #-2309]!	; 2fb <__code_start__-0x7d05>
     bfc:	09052d12 	stmdbeq	r5, {r1, r4, r8, sl, fp, sp}
     c00:	052f2f06 	streq	r2, [pc, #-3846]!	; fffffd02 <__bss_end__+0xffff4dfa>
     c04:	05010610 	streq	r0, [r1, #-1552]	; 0xfffff9f0
     c08:	1005300c 	andne	r3, r5, ip
     c0c:	0605052c 	streq	r0, [r5], -ip, lsr #10
     c10:	06010530 			; <UNDEFINED> instruction: 0x06010530
     c14:	490c0513 	stmdbmi	ip, {r0, r1, r4, r8, sl}
     c18:	02000505 	andeq	r0, r0, #20971520	; 0x1400000
     c1c:	03060104 	movweq	r0, #24836	; 0x6104
     c20:	02002e75 	andeq	r2, r0, #1872	; 0x750
     c24:	00010104 	andeq	r0, r1, r4, lsl #2
     c28:	06010402 	streq	r0, [r1], -r2, lsl #8
     c2c:	0402009e 	streq	r0, [r2], #-158	; 0xffffff62
     c30:	054a0601 	strbeq	r0, [sl, #-1537]	; 0xfffff9ff
     c34:	06013009 	streq	r3, [r1], -r9
     c38:	052e0682 	streq	r0, [lr, #-1666]!	; 0xfffff97e
     c3c:	01b60301 			; <UNDEFINED> instruction: 0x01b60301
     c40:	140505d6 	strne	r0, [r5], #-1494	; 0xfffffa2a
     c44:	01060c05 	tsteq	r6, r5, lsl #24
     c48:	0601052e 	streq	r0, [r1], -lr, lsr #10
     c4c:	44020500 	strmi	r0, [r2], #-1280	; 0xfffffb00
     c50:	1700008a 	strne	r0, [r0, -sl, lsl #1]
     c54:	05160505 	ldreq	r0, [r6, #-1285]	; 0xfffffafb
     c58:	050e0601 	streq	r0, [lr, #-1537]	; 0xfffff9ff
     c5c:	13063205 	movwne	r3, #25093	; 0x6205
     c60:	73030a05 	movwvc	r0, #14853	; 0x3a05
     c64:	15050501 	strne	r0, [r5, #-1281]	; 0xfffffaff
     c68:	01060c05 	tsteq	r6, r5, lsl #24
     c6c:	0308054a 	movweq	r0, #34122	; 0x854a
     c70:	0905010a 	stmdbeq	r5, {r1, r3, r8}
     c74:	01144b06 	tsteq	r4, r6, lsl #22
     c78:	1305054a 	movwne	r0, #21834	; 0x554a
     c7c:	13060105 	movwne	r0, #24837	; 0x6105
     c80:	2a060905 	bcs	18309c <__bss_end__+0x178194>
     c84:	01059e01 	tsteq	r5, r1, lsl #28
     c88:	160505a6 	strne	r0, [r5], -r6, lsr #11
     c8c:	0e060105 	adfeqs	f0, f6, f5
     c90:	06320505 	ldrteq	r0, [r2], -r5, lsl #10
     c94:	030a0513 	movweq	r0, #42259	; 0xa513
     c98:	05050165 	streq	r0, [r5, #-357]	; 0xfffffe9b
     c9c:	060c0515 			; <UNDEFINED> instruction: 0x060c0515
     ca0:	05054a01 	streq	r4, [r5, #-2561]	; 0xfffff5ff
     ca4:	01190306 	tsteq	r9, r6, lsl #6
     ca8:	01060805 	tsteq	r6, r5, lsl #16
     cac:	4b060905 	blmi	1830c8 <__bss_end__+0x1781c0>
     cb0:	4a060114 	bmi	181108 <__bss_end__+0x176200>
     cb4:	05052e06 	streq	r2, [r5, #-3590]	; 0xfffff1fa
     cb8:	01051313 	tsteq	r5, r3, lsl r3
     cbc:	09051306 	stmdbeq	r5, {r1, r2, r8, r9, ip}
     cc0:	9e014506 	cfsh32ls	mvfx4, mvfx1, #6
     cc4:	21030105 	tstcs	r3, r5, lsl #2
     cc8:	1305059e 	movwne	r0, #21918	; 0x559e
     ccc:	11060105 	tstne	r6, r5, lsl #2
     cd0:	064b0505 	strbeq	r0, [fp], -r5, lsl #10
     cd4:	0311052f 	tsteq	r1, #197132288	; 0xbc00000
     cd8:	05050165 	streq	r0, [r5, #-357]	; 0xfffffe9b
     cdc:	4c4b1314 	mcrrmi	3, 1, r1, fp, cr4
     ce0:	010a052f 	tsteq	sl, pc, lsr #10
     ce4:	01061505 	tsteq	r6, r5, lsl #10
     ce8:	2e062505 	cfsh32cs	mvfx2, mvfx6, #5
     cec:	01060505 	tsteq	r6, r5, lsl #10
     cf0:	05452705 	strbeq	r2, [r5, #-1797]	; 0xfffff8fb
     cf4:	0e052e1b 	mcreq	14, 0, r2, cr5, cr11, {0}
     cf8:	0502042e 	streq	r0, [r2, #-1070]	; 0xfffffbd2
     cfc:	7e98030c 	cdpvc	3, 9, cr0, cr8, cr12, {0}
     d00:	0501042e 	streq	r0, [r1, #-1070]	; 0xfffffbd2
     d04:	01f5030d 	mvnseq	r0, sp, lsl #6
     d08:	0609054a 	streq	r0, [r9], -sl, asr #10
     d0c:	052e7a03 	streq	r7, [lr, #-2563]!	; 0xfffff5fd
     d10:	0c051028 	stceq	0, cr1, [r5], {40}	; 0x28
     d14:	10051506 	andne	r1, r5, r6, lsl #10
     d18:	0609052d 	streq	r0, [r9], -sp, lsr #10
     d1c:	060c052f 	streq	r0, [ip], -pc, lsr #10
     d20:	472c0501 	strmi	r0, [ip, -r1, lsl #10]!
     d24:	4a062505 	bmi	18a140 <__bss_end__+0x17f238>
     d28:	01060505 	tsteq	r6, r5, lsl #10
     d2c:	0c03064a 	stceq	6, cr0, [r3], {74}	; 0x4a
     d30:	149e0101 	ldrne	r0, [lr], #257	; 0x101
     d34:	03060106 	movweq	r0, #24838	; 0x6106
     d38:	0105010a 	tsteq	r5, sl, lsl #2
     d3c:	0d051306 	stceq	3, cr1, [r5, #-24]	; 0xffffffe8
     d40:	666c0306 	strbtvs	r0, [ip], -r6, lsl #6
     d44:	0c050204 	sfmeq	f0, 4, [r5], {4}
     d48:	7e8e0306 	cdpvc	3, 8, cr0, cr14, cr6, {0}
     d4c:	05010401 	streq	r0, [r1, #-1025]	; 0xfffffbff
     d50:	01f3031a 	mvnseq	r0, sl, lsl r3
     d54:	0502042e 	streq	r0, [r2, #-1070]	; 0xfffffbd2
     d58:	7e8d030c 	cdpvc	3, 8, cr0, cr13, cr12, {0}
     d5c:	0501042e 	streq	r0, [r1, #-1070]	; 0xfffffbd2
     d60:	01f4030d 	mvnseq	r0, sp, lsl #6
     d64:	0502042e 	streq	r0, [r2, #-1070]	; 0xfffffbd2
     d68:	7e8c030c 	cdpvc	3, 8, cr0, cr12, cr12, {0}
     d6c:	0501042e 	streq	r0, [r1, #-1070]	; 0xfffffbd2
     d70:	01f4030d 	mvnseq	r0, sp, lsl #6
     d74:	651a054a 	ldrvs	r0, [sl, #-1354]	; 0xfffffab6
     d78:	2f2f0d05 	svccs	0x002f0d05
     d7c:	78032c05 	stmdavc	r3, {r0, r2, sl, fp, sp}
     d80:	4a050566 	bmi	142320 <__bss_end__+0x137418>
     d84:	05331305 	ldreq	r1, [r3, #-773]!	; 0xfffffcfb
     d88:	132f060d 			; <UNDEFINED> instruction: 0x132f060d
     d8c:	0b050204 	bleq	1415a4 <__bss_end__+0x13669c>
     d90:	017e8b03 	cmneq	lr, r3, lsl #22
     d94:	06130505 	ldreq	r0, [r3], -r5, lsl #10
     d98:	05010401 	streq	r0, [r1, #-1025]	; 0xfffffbff
     d9c:	f503060d 			; <UNDEFINED> instruction: 0xf503060d
     da0:	28050101 	stmdacs	r5, {r0, r8}
     da4:	05017803 	streq	r7, [r1, #-2051]	; 0xfffff7fd
     da8:	05050125 	streq	r0, [r5, #-293]	; 0xfffffedb
     dac:	054a0106 	strbeq	r0, [sl, #-262]	; 0xfffffefa
     db0:	1b050d27 	blne	144254 <__bss_end__+0x13934c>
     db4:	2e0e052e 	cfsh32cs	mvfx0, mvfx14, #30
     db8:	03060105 	movweq	r0, #24837	; 0x6105
     dbc:	05200821 	streq	r0, [r0, #-2081]!	; 0xfffff7df
     dc0:	05011305 	streq	r1, [r1, #-773]	; 0xfffffcfb
     dc4:	05110601 	ldreq	r0, [r1, #-1537]	; 0xfffff9ff
     dc8:	9e062f05 	cdpls	15, 0, cr2, cr6, cr5, {0}
     dcc:	01000a02 	tsteq	r0, r2, lsl #20
     dd0:	00012101 	andeq	r2, r1, r1, lsl #2
     dd4:	be000300 	cdplt	3, 0, cr0, cr0, cr0, {0}
     dd8:	02000000 	andeq	r0, r0, #0, 0
     ddc:	0d0efb01 	vstreq	d15, [lr, #-4]
     de0:	01010100 	mrseq	r0, (UNDEF: 17)
     de4:	00000001 	andeq	r0, r0, r1
     de8:	01000001 	tsteq	r0, r1
     dec:	696c2f2e 	stmdbvs	ip!, {r1, r2, r3, r5, r8, r9, sl, fp, sp}^
     df0:	2f006362 	svccs	0x00006362
     df4:	72657355 	rsbvc	r7, r5, #1409286145	; 0x54000001
     df8:	696d2f73 	stmdbvs	sp!, {r0, r1, r4, r5, r6, r8, r9, sl, fp, sp}^
     dfc:	2f73656c 	svccs	0x0073656c
     e00:	72756f53 	rsbsvc	r6, r5, #332	; 0x14c
     e04:	632f6563 			; <UNDEFINED> instruction: 0x632f6563
     e08:	30343273 	eorscc	r3, r4, r3, ror r2
     e0c:	6c2f786c 	stcvs	8, cr7, [pc], #-432	; c64 <__code_start__-0x739c>
     e10:	69706269 	ldmdbvs	r0!, {r0, r3, r5, r6, r9, sp, lr}^
     e14:	636e692f 	cmnvs	lr, #770048	; 0xbc000
     e18:	6564756c 	strbvs	r7, [r4, #-1388]!	; 0xfffffa94
     e1c:	706f2f00 	rsbvc	r2, pc, r0, lsl #30
     e20:	6f682f74 	svcvs	0x00682f74
     e24:	7262656d 	rsbvc	r6, r2, #457179136	; 0x1b400000
     e28:	432f7765 			; <UNDEFINED> instruction: 0x432f7765
     e2c:	616c6c65 	cmnvs	ip, r5, ror #24
     e30:	72612f72 	rsbvc	r2, r1, #456	; 0x1c8
     e34:	6f6e2d6d 	svcvs	0x006e2d6d
     e38:	652d656e 	strvs	r6, [sp, #-1390]!	; 0xfffffa92
     e3c:	2d696261 	sfmcs	f6, 2, [r9, #-388]!	; 0xfffffe7c
     e40:	2d392f39 	ldccs	15, cr2, [r9, #-228]!	; 0xffffff1c
     e44:	39313032 	ldmdbcc	r1!, {r1, r4, r5, ip, sp}
     e48:	632d3471 			; <UNDEFINED> instruction: 0x632d3471
     e4c:	37303173 			; <UNDEFINED> instruction: 0x37303173
     e50:	696c2f65 	stmdbvs	ip!, {r0, r2, r5, r6, r8, r9, sl, fp, sp}^
     e54:	63672f62 	cmnvs	r7, #392	; 0x188
     e58:	72612f63 	rsbvc	r2, r1, #396	; 0x18c
     e5c:	6f6e2d6d 	svcvs	0x006e2d6d
     e60:	652d656e 	strvs	r6, [sp, #-1390]!	; 0xfffffa92
     e64:	2f696261 	svccs	0x00696261
     e68:	2e322e39 	mrccs	14, 1, r2, cr2, cr9, {1}
     e6c:	6e692f31 	mcrvs	15, 3, r2, cr9, cr1, {1}
     e70:	64756c63 	ldrbtvs	r6, [r5], #-3171	; 0xfffff39d
     e74:	6d000065 	stcvs	0, cr0, [r0, #-404]	; 0xfffffe6c
     e78:	65736d65 	ldrbvs	r6, [r3, #-3429]!	; 0xfffff29b
     e7c:	00632e74 	rsbeq	r2, r3, r4, ror lr
     e80:	72000001 	andvc	r0, r0, #1, 0
     e84:	682e6970 	stmdavs	lr!, {r4, r5, r6, r8, fp, sp, lr}
     e88:	00000200 	andeq	r0, r0, r0, lsl #4
     e8c:	64647473 	strbtvs	r7, [r4], #-1139	; 0xfffffb8d
     e90:	682e6665 	stmdavs	lr!, {r0, r2, r5, r6, r9, sl, sp, lr}
     e94:	00000300 	andeq	r0, r0, r0, lsl #6
     e98:	00290500 	eoreq	r0, r9, r0, lsl #10
     e9c:	8c100205 	lfmhi	f0, 4, [r0], {5}
     ea0:	05150000 	ldreq	r0, [r5, #-0]
     ea4:	29051305 	stmdbcs	r5, {r0, r2, r8, r9, ip}
     ea8:	14051106 	strne	r1, [r5], #-262	; 0xfffffefa
     eac:	0605052f 	streq	r0, [r5], -pc, lsr #10
     eb0:	010a0530 	tsteq	sl, r0, lsr r5
     eb4:	09059e06 	stmdbeq	r5, {r1, r2, r9, sl, fp, ip, pc}
     eb8:	0e05d706 	cdpeq	7, 0, cr13, cr5, cr6, {0}
     ebc:	0a050106 	beq	1412dc <__bss_end__+0x1363d4>
     ec0:	09052d06 	stmdbeq	r5, {r1, r2, r8, sl, fp, sp}
     ec4:	060e05bb 			; <UNDEFINED> instruction: 0x060e05bb
     ec8:	0a052e01 	beq	14c6d4 <__bss_end__+0x1417cc>
     ecc:	09052d06 	stmdbeq	r5, {r1, r2, r8, sl, fp, sp}
     ed0:	060b054b 	streq	r0, [fp], -fp, asr #10
     ed4:	2d0a0501 	cfstr32cs	mvfx0, [sl, #-4]
     ed8:	052f0e05 	streq	r0, [pc, #-3589]!	; db <__code_start__-0x7f25>
     edc:	052d060a 	streq	r0, [sp, #-1546]!	; 0xfffff9f6
     ee0:	0513060e 	ldreq	r0, [r3, #-1550]	; 0xfffff9f2
     ee4:	052e0609 	streq	r0, [lr, #-1545]!	; 0xfffff9f7
     ee8:	0505110a 	streq	r1, [r5, #-266]	; 0xfffffef6
     eec:	06010514 			; <UNDEFINED> instruction: 0x06010514
     ef0:	00020213 	andeq	r0, r2, r3, lsl r2
     ef4:	01200101 			; <UNDEFINED> instruction: 0x01200101
     ef8:	00030000 	andeq	r0, r3, r0
     efc:	000000db 	ldrdeq	r0, [r0], -fp
     f00:	0efb0102 	cdpeq	1, 15, cr0, cr11, cr2, {0}
     f04:	0101000d 	tsteq	r1, sp
     f08:	00000101 	andeq	r0, r0, r1, lsl #2
     f0c:	00000100 	andeq	r0, r0, r0, lsl #2
     f10:	6c2f2e01 	stcvs	14, cr2, [pc], #-4	; f14 <__code_start__-0x70ec>
     f14:	00636269 	rsbeq	r6, r3, r9, ror #4
     f18:	74706f2f 	ldrbtvc	r6, [r0], #-3887	; 0xfffff0d1
     f1c:	6d6f682f 	stclvs	8, cr6, [pc, #-188]!	; e68 <__code_start__-0x7198>
     f20:	65726265 	ldrbvs	r6, [r2, #-613]!	; 0xfffffd9b
     f24:	65432f77 	strbvs	r2, [r3, #-3959]	; 0xfffff089
     f28:	72616c6c 	rsbvc	r6, r1, #108, 24	; 0x6c00
     f2c:	6d72612f 	ldfvse	f6, [r2, #-188]!	; 0xffffff44
     f30:	6e6f6e2d 	cdpvs	14, 6, cr6, cr15, cr13, {1}
     f34:	61652d65 	cmnvs	r5, r5, ror #26
     f38:	392d6962 	pushcc	{r1, r5, r6, r8, fp, sp, lr}
     f3c:	322d392f 	eorcc	r3, sp, #770048	; 0xbc000
     f40:	71393130 	teqvc	r9, r0, lsr r1
     f44:	73632d34 	cmnvc	r3, #52, 26	; 0xd00
     f48:	65373031 	ldrvs	r3, [r7, #-49]!	; 0xffffffcf
     f4c:	62696c2f 	rsbvs	r6, r9, #12032	; 0x2f00
     f50:	6363672f 	cmnvs	r3, #12320768	; 0xbc0000
     f54:	6d72612f 	ldfvse	f6, [r2, #-188]!	; 0xffffff44
     f58:	6e6f6e2d 	cdpvs	14, 6, cr6, cr15, cr13, {1}
     f5c:	61652d65 	cmnvs	r5, r5, ror #26
     f60:	392f6962 	stmdbcc	pc!, {r1, r5, r6, r8, fp, sp, lr}	; <UNPREDICTABLE>
     f64:	312e322e 			; <UNDEFINED> instruction: 0x312e322e
     f68:	636e692f 	cmnvs	lr, #770048	; 0xbc000
     f6c:	6564756c 	strbvs	r7, [r4, #-1388]!	; 0xfffffa94
     f70:	73552f00 	cmpvc	r5, #0, 30
     f74:	2f737265 	svccs	0x00737265
     f78:	656c696d 	strbvs	r6, [ip, #-2413]!	; 0xfffff693
     f7c:	6f532f73 	svcvs	0x00532f73
     f80:	65637275 	strbvs	r7, [r3, #-629]!	; 0xfffffd8b
     f84:	3273632f 	rsbscc	r6, r3, #-1140850688	; 0xbc000000
     f88:	786c3034 	stmdavc	ip!, {r2, r4, r5, ip, sp}^
     f8c:	62696c2f 	rsbvs	r6, r9, #12032	; 0x2f00
     f90:	692f6970 	stmdbvs	pc!, {r4, r5, r6, r8, fp, sp, lr}	; <UNPREDICTABLE>
     f94:	756c636e 	strbvc	r6, [ip, #-878]!	; 0xfffffc92
     f98:	00006564 	andeq	r6, r0, r4, ror #10
     f9c:	6e697270 	mcrvs	2, 3, r7, cr9, cr0, {3}
     fa0:	632e6b74 			; <UNDEFINED> instruction: 0x632e6b74
     fa4:	00000100 	andeq	r0, r0, r0, lsl #2
     fa8:	61647473 	smcvs	18243	; 0x4743
     fac:	682e6772 	stmdavs	lr!, {r1, r4, r5, r6, r8, r9, sl, sp, lr}
     fb0:	00000200 	andeq	r0, r0, r0, lsl #4
     fb4:	2e697072 	mcrcs	0, 3, r7, cr9, cr2, {3}
     fb8:	00030068 	andeq	r0, r3, r8, rrx
     fbc:	75623c00 	strbvc	r3, [r2, #-3072]!	; 0xfffff400
     fc0:	2d746c69 	ldclcs	12, cr6, [r4, #-420]!	; 0xfffffe5c
     fc4:	003e6e69 	eorseq	r6, lr, r9, ror #28
     fc8:	76000000 	strvc	r0, [r0], -r0
     fcc:	72702d61 	rsbsvc	r2, r0, #6208	; 0x1840
     fd0:	6b746e69 	blvs	1d1c97c <__bss_end__+0x1d11a74>
     fd4:	0100682e 	tsteq	r0, lr, lsr #16
     fd8:	05000000 	streq	r0, [r0, #-0]
     fdc:	02050022 	andeq	r0, r5, #34, 0	; 0x22
     fe0:	00008c88 	andeq	r8, r0, r8, lsl #25
     fe4:	14050517 	strne	r0, [r5], #-1303	; 0xfffffae9
     fe8:	22051413 	andcs	r1, r5, #318767104	; 0x13000000
     fec:	12050d06 	andne	r0, r5, #384	; 0x180
     ff0:	03220550 			; <UNDEFINED> instruction: 0x03220550
     ff4:	05052e7a 	streq	r2, [r5, #-3706]	; 0xfffff186
     ff8:	2f120533 	svccs	0x00120533
     ffc:	05650505 	strbeq	r0, [r5, #-1285]!	; 0xfffffafb
    1000:	052f0609 	streq	r0, [pc, #-1545]!	; 9ff <__code_start__-0x7601>
    1004:	05010612 	streq	r0, [r1, #-1554]	; 0xfffff9ee
    1008:	164b0605 	strbne	r0, [fp], -r5, lsl #12
    100c:	50064a06 	andpl	r4, r6, r6, lsl #20
    1010:	13060105 	movwne	r0, #24837	; 0x6105
    1014:	00080266 	andeq	r0, r8, r6, ror #4
    1018:	00a00101 	adceq	r0, r0, r1, lsl #2
    101c:	00030000 	andeq	r0, r3, r0
    1020:	00000057 	andeq	r0, r0, r7, asr r0
    1024:	0efb0102 	cdpeq	1, 15, cr0, cr11, cr2, {0}
    1028:	0101000d 	tsteq	r1, sp
    102c:	00000101 	andeq	r0, r0, r1, lsl #2
    1030:	00000100 	andeq	r0, r0, r0, lsl #2
    1034:	6c2f2e01 	stcvs	14, cr2, [pc], #-4	; 1038 <__code_start__-0x6fc8>
    1038:	00636269 	rsbeq	r6, r3, r9, ror #4
    103c:	6573552f 	ldrbvs	r5, [r3, #-1327]!	; 0xfffffad1
    1040:	6d2f7372 	stcvs	3, cr7, [pc, #-456]!	; e80 <__code_start__-0x7180>
    1044:	73656c69 	cmnvc	r5, #26880	; 0x6900
    1048:	756f532f 	strbvc	r5, [pc, #-815]!	; d21 <__code_start__-0x72df>
    104c:	2f656372 	svccs	0x00656372
    1050:	34327363 	ldrtcc	r7, [r2], #-867	; 0xfffffc9d
    1054:	2f786c30 	svccs	0x00786c30
    1058:	7062696c 	rsbvc	r6, r2, ip, ror #18
    105c:	6e692f69 	cdpvs	15, 6, cr2, cr9, cr9, {3}
    1060:	64756c63 	ldrbtvs	r6, [r5], #-3171	; 0xfffff39d
    1064:	70000065 	andvc	r0, r0, r5, rrx
    1068:	2e6b7475 	mcrcs	4, 3, r7, cr11, cr5, {3}
    106c:	00010063 	andeq	r0, r1, r3, rrx
    1070:	69707200 	ldmdbvs	r0!, {r9, ip, sp, lr}^
    1074:	0200682e 	andeq	r6, r0, #3014656	; 0x2e0000
    1078:	05000000 	streq	r0, [r0, #-0]
    107c:	02050022 	andeq	r0, r5, #34, 0	; 0x22
    1080:	00008ce0 	andeq	r8, r0, r0, ror #25
    1084:	13050515 	movwne	r0, #21781	; 0x5515
    1088:	11062205 	tstne	r6, r5, lsl #4
    108c:	060b052e 	streq	r0, [fp], -lr, lsr #10
    1090:	0605052f 	streq	r0, [r5], -pc, lsr #10
    1094:	0009052e 	andeq	r0, r9, lr, lsr #10
    1098:	06020402 	streq	r0, [r2], -r2, lsl #8
    109c:	000f0567 	andeq	r0, pc, r7, ror #10
    10a0:	49020402 	stmdbmi	r2, {r1, sl}
    10a4:	02000b05 	andeq	r0, r0, #5120	; 0x1400
    10a8:	05010204 	streq	r0, [r1, #-516]	; 0xfffffdfc
    10ac:	04020005 	streq	r0, [r2], #-5
    10b0:	062e0602 	strteq	r0, [lr], -r2, lsl #12
    10b4:	0601054e 	streq	r0, [r1], -lr, asr #10
    10b8:	00060213 	andeq	r0, r6, r3, lsl r2
    10bc:	08fa0101 	ldmeq	sl!, {r0, r8}^
    10c0:	00030000 	andeq	r0, r3, r0
    10c4:	000000f1 	strdeq	r0, [r0], -r1
    10c8:	0efb0102 	cdpeq	1, 15, cr0, cr11, cr2, {0}
    10cc:	0101000d 	tsteq	r1, sp
    10d0:	00000101 	andeq	r0, r0, r1, lsl #2
    10d4:	00000100 	andeq	r0, r0, r0, lsl #2
    10d8:	6c2f2e01 	stcvs	14, cr2, [pc], #-4	; 10dc <__code_start__-0x6f24>
    10dc:	00636269 	rsbeq	r6, r3, r9, ror #4
    10e0:	74706f2f 	ldrbtvc	r6, [r0], #-3887	; 0xfffff0d1
    10e4:	6d6f682f 	stclvs	8, cr6, [pc, #-188]!	; 1030 <__code_start__-0x6fd0>
    10e8:	65726265 	ldrbvs	r6, [r2, #-613]!	; 0xfffffd9b
    10ec:	65432f77 	strbvs	r2, [r3, #-3959]	; 0xfffff089
    10f0:	72616c6c 	rsbvc	r6, r1, #108, 24	; 0x6c00
    10f4:	6d72612f 	ldfvse	f6, [r2, #-188]!	; 0xffffff44
    10f8:	6e6f6e2d 	cdpvs	14, 6, cr6, cr15, cr13, {1}
    10fc:	61652d65 	cmnvs	r5, r5, ror #26
    1100:	392d6962 	pushcc	{r1, r5, r6, r8, fp, sp, lr}
    1104:	322d392f 	eorcc	r3, sp, #770048	; 0xbc000
    1108:	71393130 	teqvc	r9, r0, lsr r1
    110c:	73632d34 	cmnvc	r3, #52, 26	; 0xd00
    1110:	65373031 	ldrvs	r3, [r7, #-49]!	; 0xffffffcf
    1114:	62696c2f 	rsbvs	r6, r9, #12032	; 0x2f00
    1118:	6363672f 	cmnvs	r3, #12320768	; 0xbc0000
    111c:	6d72612f 	ldfvse	f6, [r2, #-188]!	; 0xffffff44
    1120:	6e6f6e2d 	cdpvs	14, 6, cr6, cr15, cr13, {1}
    1124:	61652d65 	cmnvs	r5, r5, ror #26
    1128:	392f6962 	stmdbcc	pc!, {r1, r5, r6, r8, fp, sp, lr}	; <UNPREDICTABLE>
    112c:	312e322e 			; <UNDEFINED> instruction: 0x312e322e
    1130:	636e692f 	cmnvs	lr, #770048	; 0xbc000
    1134:	6564756c 	strbvs	r7, [r4, #-1388]!	; 0xfffffa94
    1138:	73552f00 	cmpvc	r5, #0, 30
    113c:	2f737265 	svccs	0x00737265
    1140:	656c696d 	strbvs	r6, [ip, #-2413]!	; 0xfffff693
    1144:	6f532f73 	svcvs	0x00532f73
    1148:	65637275 	strbvs	r7, [r3, #-629]!	; 0xfffffd8b
    114c:	3273632f 	rsbscc	r6, r3, #-1140850688	; 0xbc000000
    1150:	786c3034 	stmdavc	ip!, {r2, r4, r5, ip, sp}^
    1154:	62696c2f 	rsbvs	r6, r9, #12032	; 0x2f00
    1158:	692f6970 	stmdbvs	pc!, {r4, r5, r6, r8, fp, sp, lr}	; <UNPREDICTABLE>
    115c:	756c636e 	strbvc	r6, [ip, #-878]!	; 0xfffffc92
    1160:	00006564 	andeq	r6, r0, r4, ror #10
    1164:	702d6176 	eorvc	r6, sp, r6, ror r1
    1168:	746e6972 	strbtvc	r6, [lr], #-2418	; 0xfffff68e
    116c:	00632e6b 	rsbeq	r2, r3, fp, ror #28
    1170:	73000001 	movwvc	r0, #1
    1174:	6e696474 	mcrvs	4, 3, r6, cr9, cr4, {3}
    1178:	63672d74 	cmnvs	r7, #116, 26	; 0x1d00
    117c:	00682e63 	rsbeq	r2, r8, r3, ror #28
    1180:	72000002 	andvc	r0, r0, #2, 0
    1184:	682e6970 	stmdavs	lr!, {r4, r5, r6, r8, fp, sp, lr}
    1188:	00000300 	andeq	r0, r0, r0, lsl #6
    118c:	2d697072 	stclcs	0, cr7, [r9, #-456]!	; 0xfffffe38
    1190:	65746e69 	ldrbvs	r6, [r4, #-3689]!	; 0xfffff197
    1194:	6c616e72 	stclvs	14, cr6, [r1], #-456	; 0xfffffe38
    1198:	0300682e 	movweq	r6, #2094	; 0x82e
    119c:	74730000 	ldrbtvc	r0, [r3], #-0
    11a0:	67726164 	ldrbvs	r6, [r2, -r4, ror #2]!
    11a4:	0200682e 	andeq	r6, r0, #3014656	; 0x2e0000
    11a8:	623c0000 	eorsvs	r0, ip, #0, 0
    11ac:	746c6975 	strbtvc	r6, [ip], #-2421	; 0xfffff68b
    11b0:	3e6e692d 	vmulcc.f16	s13, s28, s27	; <UNPREDICTABLE>
    11b4:	00000000 	andeq	r0, r0, r0
    11b8:	00010500 	andeq	r0, r1, r0, lsl #10
    11bc:	8d180205 	lfmhi	f0, 4, [r8, #-20]	; 0xffffffec
    11c0:	c8030000 	stmdagt	r3, {}	; <UNPREDICTABLE>
    11c4:	02050100 	andeq	r0, r5, #0
    11c8:	06010514 			; <UNDEFINED> instruction: 0x06010514
    11cc:	30040510 	andcc	r0, r4, r0, lsl r5
    11d0:	4a2c0105 	bmi	b015ec <__bss_end__+0xaf66e4>
    11d4:	05300405 	ldreq	r0, [r0, #-1029]!	; 0xfffffbfb
    11d8:	13310602 	teqne	r1, #2097152	; 0x200000
    11dc:	2e060b05 	vmlacs.f64	d0, d6, d5
    11e0:	30060205 	andcc	r0, r6, r5, lsl #4
    11e4:	02060905 	andeq	r0, r6, #81920	; 0x14000
    11e8:	2e2e0d24 	cdpcs	13, 2, cr0, cr14, cr4, {1}
    11ec:	03060d05 	movweq	r0, #27909	; 0x6d05
    11f0:	11054a17 	tstne	r5, r7, lsl sl
    11f4:	062d0513 			; <UNDEFINED> instruction: 0x062d0513
    11f8:	2e160501 	cfmul32cs	mvfx0, mvfx6, mvfx1
    11fc:	052f0d05 	streq	r0, [pc, #-3333]!	; 4ff <__code_start__-0x7b01>
    1200:	14052d16 	strne	r2, [r5], #-3350	; 0xfffff2ea
    1204:	17052f06 	strne	r2, [r5, -r6, lsl #30]
    1208:	0d050106 	stfeqs	f0, [r5, #-24]	; 0xffffffe8
    120c:	052f062e 	streq	r0, [pc, #-1582]!	; be6 <__code_start__-0x741a>
    1210:	2e010612 	mcrcs	6, 0, r0, cr1, cr2, {0}
    1214:	0d052d2f 	stceq	13, cr2, [r5, #-188]	; 0xffffff44
    1218:	12052f06 	andne	r2, r5, #6, 30
    121c:	19050106 	stmdbne	r5, {r1, r2, r8}
    1220:	04052f06 	streq	r2, [r5], #-3846	; 0xfffff0fa
    1224:	01011103 	tsteq	r1, r3, lsl #2
    1228:	05150205 	ldreq	r0, [r5, #-517]	; 0xfffffdfb
    122c:	7fb2030e 	svcvc	0x00b2030e
    1230:	13020501 	movwne	r0, #9473	; 0x2501
    1234:	01060605 	tsteq	r6, r5, lsl #12
    1238:	30060205 	andcc	r0, r6, r5, lsl #4
    123c:	05010805 	streq	r0, [r1, #-2053]	; 0xfffff7fb
    1240:	4a010602 	bmi	42a50 <__bss_end__+0x37b48>
    1244:	91080805 	tstls	r8, r5, lsl #16
    1248:	4a060305 	bmi	181e64 <__bss_end__+0x176f5c>
    124c:	01060805 	tsteq	r6, r5, lsl #16
    1250:	2d061505 	cfstr32cs	mvfx1, [r6, #-20]	; 0xffffffec
    1254:	05010805 	streq	r0, [r1, #-2053]	; 0xfffff7fb
    1258:	0805d703 	stmdaeq	r5, {r0, r1, r8, r9, sl, ip, lr, pc}
    125c:	18050106 	stmdane	r5, {r1, r2, r8}
    1260:	2e02052d 	cfsh32cs	mvfx0, mvfx2, #29
    1264:	052f0805 	streq	r0, [pc, #-2053]!	; a67 <__code_start__-0x7599>
    1268:	052d0615 	streq	r0, [sp, #-1557]!	; 0xfffff9eb
    126c:	02050108 	andeq	r0, r5, #2
    1270:	03050106 	movweq	r0, #20742	; 0x5106
    1274:	18052f06 	stmdane	r5, {r1, r2, r8, r9, sl, fp, sp}
    1278:	02051106 	andeq	r1, r5, #-2147483647	; 0x80000001
    127c:	2f08052e 	svccs	0x0008052e
    1280:	2d061505 	cfstr32cs	mvfx1, [r6, #-20]	; 0xffffffec
    1284:	05010805 	streq	r0, [r1, #-2053]	; 0xfffff7fb
    1288:	08051303 	stmdaeq	r5, {r0, r1, r8, r9, ip}
    128c:	15050106 	strne	r0, [r5, #-262]	; 0xfffffefa
    1290:	08052d06 	stmdaeq	r5, {r1, r2, r8, sl, fp, sp}
    1294:	05010601 	streq	r0, [r1, #-1537]	; 0xfffff9ff
    1298:	05a00602 	streq	r0, [r0, #1538]!	; 0x602
    129c:	05010605 	streq	r0, [r1, #-1541]	; 0xfffff9fb
    12a0:	11053604 	tstne	r5, r4, lsl #12
    12a4:	2e09052f 	cfsh32cs	mvfx0, mvfx9, #31
    12a8:	05330205 	ldreq	r0, [r3, #-517]!	; 0xfffffdfb
    12ac:	2e720305 	cdpcs	3, 7, cr0, cr2, cr5, {0}
    12b0:	2f060205 	svccs	0x00060205
    12b4:	0e050106 	adfeqs	f0, f5, f6
    12b8:	02051606 	andeq	r1, r5, #6291456	; 0x600000
    12bc:	03051314 	movweq	r1, #21268	; 0x5314
    12c0:	14020513 	strne	r0, [r2], #-1299	; 0xfffffaed
    12c4:	010b0515 	tsteq	fp, r5, lsl r5
    12c8:	01060205 	tsteq	r6, r5, lsl #4
    12cc:	0603052e 	streq	r0, [r3], -lr, lsr #10
    12d0:	060a0567 	streq	r0, [sl], -r7, ror #10
    12d4:	2d020501 	cfstr32cs	mvfx0, [r2, #-4]
    12d8:	052f0a05 	streq	r0, [pc, #-2565]!	; 8db <__code_start__-0x7725>
    12dc:	052d0617 	streq	r0, [sp, #-1559]!	; 0xfffff9e9
    12e0:	0205010b 	andeq	r0, r5, #-1073741822	; 0xc0000002
    12e4:	09050106 	stmdbeq	r5, {r1, r2, r8}
    12e8:	02052e4c 	andeq	r2, r5, #76, 28	; 0x4c0
    12ec:	09052e06 	stmdbeq	r5, {r1, r2, r9, sl, fp, sp}
    12f0:	02050106 	andeq	r0, r5, #-2147483647	; 0x80000001
    12f4:	01063006 	tsteq	r6, r6
    12f8:	38030105 	stmdacc	r3, {r0, r2, r8}
    12fc:	03090501 	movweq	r0, #38145	; 0x9501
    1300:	2e2e4a4f 	vnmulcs.f32	s8, s28, s30
    1304:	03061905 	movweq	r1, #26885	; 0x6905
    1308:	1a054a27 	bne	153bac <__bss_end__+0x148ca4>
    130c:	06280513 			; <UNDEFINED> instruction: 0x06280513
    1310:	2e1f0501 	cfmul32cs	mvfx0, mvfx15, mvfx1
    1314:	052f0405 	streq	r0, [pc, #-1029]!	; f17 <__code_start__-0x70e9>
    1318:	0b052d1f 	bleq	14c79c <__bss_end__+0x141894>
    131c:	0e052f06 	cdpeq	15, 0, cr2, cr5, cr6, {0}
    1320:	04050106 	streq	r0, [r5], #-262	; 0xfffffefa
    1324:	0602052e 	streq	r0, [r2], -lr, lsr #10
    1328:	134a5903 	movtne	r5, #43267	; 0xa903
    132c:	2e060b05 	vmlacs.f64	d0, d6, d5
    1330:	30060205 	andcc	r0, r6, r5, lsl #4
    1334:	02060905 	andeq	r0, r6, #81920	; 0x14000
    1338:	04050d24 	streq	r0, [r5], #-3364	; 0xfffff2dc
    133c:	05133606 	ldreq	r3, [r3, #-1542]	; 0xfffff9fa
    1340:	05010606 	streq	r0, [r1, #-1542]	; 0xfffff9fa
    1344:	13670605 	cmnne	r7, #5242880	; 0x500000
    1348:	06090513 			; <UNDEFINED> instruction: 0x06090513
    134c:	2b0d0511 	blcs	342798 <__bss_end__+0x337890>
    1350:	05300b05 	ldreq	r0, [r0, #-2821]!	; 0xfffff4fb
    1354:	1b052c0d 	blne	14c390 <__bss_end__+0x141488>
    1358:	06040535 			; <UNDEFINED> instruction: 0x06040535
    135c:	1305052d 	movwne	r0, #21805	; 0x552d
    1360:	2e061b05 	vmlacs.f64	d1, d6, d5
    1364:	05820a05 	streq	r0, [r2, #2565]	; 0xa05
    1368:	0e052f04 	cdpeq	15, 0, cr2, cr5, cr4, {0}
    136c:	490a052e 	stmdbmi	sl, {r1, r2, r3, r5, r8, sl}
    1370:	2f060b05 	svccs	0x00060b05
    1374:	01060405 	tsteq	r6, r5, lsl #8
    1378:	06052f06 	streq	r2, [r5], -r6, lsl #30
    137c:	05050106 	streq	r0, [r5, #-262]	; 0xfffffefa
    1380:	0a052f06 	beq	14cfa0 <__bss_end__+0x142098>
    1384:	052e0106 	streq	r0, [lr, #-262]!	; 0xfffffefa
    1388:	2e2e2e07 	cdpcs	14, 2, cr2, cr14, cr7, {0}
    138c:	03060405 	movweq	r0, #25605	; 0x6405
    1390:	0205010d 	andeq	r0, r5, #1073741827	; 0x40000003
    1394:	01460306 	cmpeq	r6, r6, lsl #6
    1398:	3a030905 	bcc	c37b4 <__bss_end__+0xb88ac>
    139c:	0604052e 	streq	r0, [r4], -lr, lsr #10
    13a0:	010d032f 	tsteq	sp, pc, lsr #6
    13a4:	15020501 	strne	r0, [r2, #-1281]	; 0xfffffaff
    13a8:	b2030e05 	andlt	r0, r3, #80	; 0x50
    13ac:	0205017f 	andeq	r0, r5, #-1073741793	; 0xc000001f
    13b0:	08051413 	stmdaeq	r5, {r0, r1, r4, sl, ip}
    13b4:	06060501 	streq	r0, [r6], -r1, lsl #10
    13b8:	2e3c0310 	mrccs	3, 1, r0, cr12, cr0, {0}
    13bc:	46030205 	strmi	r0, [r3], -r5, lsl #4
    13c0:	0530064a 	ldreq	r0, [r0, #-1610]!	; 0xfffff9b6
    13c4:	2e010605 	cfmadd32cs	mvax0, mvfx0, mvfx1, mvfx5
    13c8:	0602052e 	streq	r0, [r2], -lr, lsr #10
    13cc:	0501064b 	streq	r0, [r1, #-1611]	; 0xfffff9b5
    13d0:	0516060e 	ldreq	r0, [r6, #-1550]	; 0xfffff9f2
    13d4:	15131402 	ldrne	r1, [r3, #-1026]	; 0xfffffbfe
    13d8:	010b0515 	tsteq	fp, r5, lsl r5
    13dc:	2e060205 	cdpcs	2, 0, cr0, cr6, cr5, {0}
    13e0:	09053006 	stmdbeq	r5, {r1, r2, ip, sp}
    13e4:	02050106 	andeq	r0, r5, #-2147483647	; 0x80000001
    13e8:	01064c06 	tsteq	r6, r6, lsl #24
    13ec:	38030105 	stmdacc	r3, {r0, r2, r8}
    13f0:	03060501 	movweq	r0, #25857	; 0x6501
    13f4:	02054a6e 	andeq	r4, r5, #450560	; 0x6e000
    13f8:	4a664603 	bmi	1992c0c <__bss_end__+0x1987d04>
    13fc:	0604052e 	streq	r0, [r4], -lr, lsr #10
    1400:	0100c803 	tsteq	r0, r3, lsl #16
    1404:	06010101 	streq	r0, [r1], -r1, lsl #2
    1408:	4a06822e 	bmi	1a1cc8 <__bss_end__+0x196dc0>
    140c:	052e7203 	streq	r7, [lr, #-515]!	; 0xfffffdfd
    1410:	05010609 	streq	r0, [r1, #-1545]	; 0xfffff9f7
    1414:	032f0604 			; <UNDEFINED> instruction: 0x032f0604
    1418:	0501010d 	streq	r0, [r1, #-269]	; 0xfffffef3
    141c:	0e051502 	cfsh32eq	mvfx1, mvfx5, #2
    1420:	017fb203 	cmneq	pc, r3, lsl #4
    1424:	14130205 	ldrne	r0, [r3], #-517	; 0xfffffdfb
    1428:	05010805 	streq	r0, [r1, #-2053]	; 0xfffff7fb
    142c:	1b030609 	blne	c2c58 <__bss_end__+0xb7d50>
    1430:	03060501 	movweq	r0, #25857	; 0x6501
    1434:	3c032e63 	stccc	14, cr2, [r3], {99}	; 0x63
    1438:	052e2e2e 	streq	r2, [lr, #-3630]!	; 0xfffff1d2
    143c:	b4030648 	strlt	r0, [r3], #-1608	; 0xfffff9b8
    1440:	053c087f 	ldreq	r0, [ip, #-2175]!	; 0xfffff781
    1444:	06011305 	streq	r1, [r1], -r5, lsl #6
    1448:	0402002e 	streq	r0, [r2], #-46	; 0xffffffd2
    144c:	002e0602 	eoreq	r0, lr, r2, lsl #12
    1450:	01020402 	tsteq	r2, r2, lsl #8
    1454:	02040200 	andeq	r0, r4, #0, 4
    1458:	00110513 	andseq	r0, r1, r3, lsl r5
    145c:	06020402 	streq	r0, [r2], -r2, lsl #8
    1460:	00070501 	andeq	r0, r7, r1, lsl #10
    1464:	2f020402 	svccs	0x00020402
    1468:	02001105 	andeq	r1, r0, #1073741825	; 0x40000001
    146c:	052d0204 	streq	r0, [sp, #-516]!	; 0xfffffdfc
    1470:	04020005 	streq	r0, [r2], #-5
    1474:	052f0602 	streq	r0, [pc, #-1538]!	; e7a <__code_start__-0x7186>
    1478:	04020009 	streq	r0, [r2], #-9
    147c:	0e051302 	cdpeq	3, 0, cr1, cr5, cr2, {0}
    1480:	02040200 	andeq	r0, r4, #0, 4
    1484:	05050106 	streq	r0, [r5, #-262]	; 0xfffffefa
    1488:	01040200 	mrseq	r0, R12_usr
    148c:	02006306 	andeq	r6, r0, #402653184	; 0x18000000
    1490:	05010104 	streq	r0, [r1, #-260]	; 0xfffffefc
    1494:	04020048 	streq	r0, [r2], #-72	; 0xffffffb8
    1498:	05110601 	ldreq	r0, [r1, #-1537]	; 0xfffff9ff
    149c:	04020005 	streq	r0, [r2], #-5
    14a0:	48052f01 	stmdami	r5, {r0, r8, r9, sl, fp, sp}
    14a4:	01040200 	mrseq	r0, R12_usr
    14a8:	0005052d 	andeq	r0, r5, sp, lsr #10
    14ac:	2f010402 	svccs	0x00010402
    14b0:	01040200 	mrseq	r0, R12_usr
    14b4:	0402004a 	streq	r0, [r2], #-74	; 0xffffffb6
    14b8:	02004a01 	andeq	r4, r0, #4096	; 0x1000
    14bc:	4a060104 	bmi	1818d4 <__bss_end__+0x1769cc>
    14c0:	e1034005 	tst	r3, r5
    14c4:	0106d600 	tsteq	r6, r0, lsl #12
    14c8:	2e4e0905 	vmlacs.f16	s1, s28, s10	; <UNPREDICTABLE>
    14cc:	05300805 	ldreq	r0, [r0, #-2053]!	; 0xfffff7fb
    14d0:	1205291e 	andne	r2, r5, #491520	; 0x78000
    14d4:	330d052e 	movwcc	r0, #54574	; 0xd52e
    14d8:	45060205 	strmi	r0, [r6, #-517]	; 0xfffffdfb
    14dc:	05130505 	ldreq	r0, [r3, #-1285]	; 0xfffffafb
    14e0:	05051402 	streq	r1, [r5, #-1026]	; 0xfffffbfe
    14e4:	13020513 	movwne	r0, #9491	; 0x2513
    14e8:	05010805 	streq	r0, [r1, #-2053]	; 0xfffff7fb
    14ec:	7a030640 	bvc	c2df4 <__bss_end__+0xb7eec>
    14f0:	0d052e01 	stceq	14, cr2, [r5, #-4]
    14f4:	11056634 	tstne	r5, r4, lsr r6
    14f8:	4a4a2003 	bmi	128950c <__bss_end__+0x127e604>
    14fc:	03060405 	movweq	r0, #25605	; 0x6405
    1500:	09050162 	stmdbeq	r5, {r1, r5, r6, r8}
    1504:	0f050106 	svceq	0x00050106
    1508:	0608052e 	streq	r0, [r8], -lr, lsr #10
    150c:	060d052c 	streq	r0, [sp], -ip, lsr #10
    1510:	0603052e 	streq	r0, [r3], -lr, lsr #10
    1514:	06050567 	streq	r0, [r5], -r7, ror #10
    1518:	06080501 	streq	r0, [r8], -r1, lsl #10
    151c:	060e054d 	streq	r0, [lr], -sp, asr #10
    1520:	2e0a0501 	cfsh32cs	mvfx0, mvfx10, #1
    1524:	052f0905 	streq	r0, [pc, #-2309]!	; c27 <__code_start__-0x73d9>
    1528:	052f0604 	streq	r0, [pc, #-1540]!	; f2c <__code_start__-0x70d4>
    152c:	05010607 	streq	r0, [r1, #-1543]	; 0xfffff9f9
    1530:	04052c0a 	streq	r2, [r5], #-3082	; 0xfffff3f6
    1534:	2d053206 	sfmcs	f3, 4, [r5, #-24]	; 0xffffffe8
    1538:	7f980306 	svcvc	0x00980306
    153c:	03090501 	movweq	r0, #38145	; 0x9501
    1540:	052e00ed 	streq	r0, [lr, #-237]!	; 0xffffff13
    1544:	07052c0d 	streq	r2, [r5, -sp, lsl #24]
    1548:	0604052b 	streq	r0, [r4], -fp, lsr #10
    154c:	05141330 	ldreq	r1, [r4, #-816]	; 0xfffffcd0
    1550:	0c050109 	stfeqs	f0, [r5], {9}
    1554:	017f9303 	cmneq	pc, r3, lsl #6
    1558:	06011d05 	streq	r1, [r1], -r5, lsl #26
    155c:	03090501 	movweq	r0, #38145	; 0x9501
    1560:	050100ed 	streq	r0, [r1, #-237]	; 0xffffff13
    1564:	052f0605 	streq	r0, [pc, #-1541]!	; f67 <__code_start__-0x7099>
    1568:	2e010612 	mcrcs	6, 0, r0, cr1, cr2, {0}
    156c:	2f0b052d 	svccs	0x000b052d
    1570:	2f060505 	svccs	0x00060505
    1574:	05100905 	ldreq	r0, [r0, #-2309]	; 0xfffff6fb
    1578:	7f93030c 	svcvc	0x0093030c
    157c:	011d0501 	tsteq	sp, r1, lsl #10
    1580:	01062d05 	tsteq	r6, r5, lsl #26
    1584:	ed030905 	vstr.16	s0, [r3, #-10]
    1588:	04052e00 	streq	r2, [r5], #-3584	; 0xfffff200
    158c:	00014e06 	andeq	r4, r1, r6, lsl #28
    1590:	4a020402 	bmi	825a0 <__bss_end__+0x77698>
    1594:	02040200 	andeq	r0, r4, #0, 4
    1598:	04020001 	streq	r0, [r2], #-1
    159c:	02001502 	andeq	r1, r0, #8388608	; 0x800000
    15a0:	02060204 	andeq	r0, r6, #4, 4	; 0x40000000
    15a4:	02001236 	andeq	r1, r0, #1610612739	; 0x60000003
    15a8:	052e0204 	streq	r0, [lr, #-516]!	; 0xfffffdfc
    15ac:	d1030602 	tstle	r3, r2, lsl #12
    15b0:	07050100 	streq	r0, [r5, -r0, lsl #2]
    15b4:	052e0106 	streq	r0, [lr, #-262]!	; 0xfffffefa
    15b8:	052f0602 	streq	r0, [pc, #-1538]!	; fbe <__code_start__-0x7042>
    15bc:	0501060b 	streq	r0, [r1, #-1547]	; 0xfffff9f5
    15c0:	05052f01 	streq	r2, [r5, #-3841]	; 0xfffff0ff
    15c4:	4a650306 	bmi	19421e4 <__bss_end__+0x19372dc>
    15c8:	01060905 	tsteq	r6, r5, lsl #18
    15cc:	06050566 	streq	r0, [r5], -r6, ror #10
    15d0:	0304059f 	movweq	r0, #17823	; 0x459f
    15d4:	07050111 	smladeq	r5, r1, r1, r0
    15d8:	04050106 	streq	r0, [r5], #-262	; 0xfffffefa
    15dc:	0a053106 	beq	14d9fc <__bss_end__+0x142af4>
    15e0:	00130501 	andseq	r0, r3, r1, lsl #10
    15e4:	06010402 	streq	r0, [r1], -r2, lsl #8
    15e8:	0010052e 	andseq	r0, r0, lr, lsr #10
    15ec:	2e010402 	cdpcs	4, 0, cr0, cr1, cr2, {0}
    15f0:	4b060505 	blmi	182a0c <__bss_end__+0x177b04>
    15f4:	01060a05 	tsteq	r6, r5, lsl #20
    15f8:	04052d06 	streq	r2, [r5], #-3334	; 0xfffff2fa
    15fc:	11050106 	tstne	r5, r6, lsl #2
    1600:	7fb60306 	svcvc	0x00b60306
    1604:	00011366 	andeq	r1, r1, r6, ror #6
    1608:	06020402 	streq	r0, [r2], -r2, lsl #8
    160c:	01ba06ba 			; <UNDEFINED> instruction: 0x01ba06ba
    1610:	061a0514 			; <UNDEFINED> instruction: 0x061a0514
    1614:	052e2e13 	streq	r2, [lr, #-3603]!	; 0xfffff1ed
    1618:	05674e11 	strbeq	r4, [r7, #-3601]!	; 0xfffff1ef
    161c:	13056814 	movwne	r6, #22548	; 0x5814
    1620:	03150582 	tsteq	r5, #545259520	; 0x20800000
    1624:	11054a78 	tstne	r5, r8, ror sl
    1628:	13134b06 	tstne	r3, #6144	; 0x1800
    162c:	05141314 	ldreq	r1, [r4, #-788]	; 0xfffffcec
    1630:	05010613 	streq	r0, [r1, #-1555]	; 0xfffff9ed
    1634:	052f0609 	streq	r0, [pc, #-1545]!	; 1033 <__code_start__-0x6fcd>
    1638:	2e01060d 	cfmadd32cs	mvax0, mvfx0, mvfx1, mvfx13
    163c:	bb09052e 	bllt	242afc <__bss_end__+0x237bf4>
    1640:	059d0d05 	ldreq	r0, [sp, #3333]	; 0xd05
    1644:	052f0609 	streq	r0, [pc, #-1545]!	; 1043 <__code_start__-0x6fbd>
    1648:	03062f15 	movweq	r2, #28437	; 0x6f15
    164c:	0b034a75 	bleq	d4028 <__bss_end__+0xc9120>
    1650:	05054a2e 	streq	r4, [r5, #-2606]	; 0xfffff5d2
    1654:	01230306 			; <UNDEFINED> instruction: 0x01230306
    1658:	01060905 	tsteq	r6, r5, lsl #18
    165c:	0605052e 	streq	r0, [r5], -lr, lsr #10
    1660:	2e6e03d7 	mcrcs	3, 3, r0, cr14, cr7, {6}
    1664:	05010e03 	streq	r0, [r1, #-3587]	; 0xfffff1fd
    1668:	05010609 	streq	r0, [r1, #-1545]	; 0xfffff9f7
    166c:	10030605 	andne	r0, r3, r5, lsl #12
    1670:	0301054a 	movweq	r0, #5450	; 0x154a
    1674:	05017eed 	streq	r7, [r1, #-3821]	; 0xfffff113
    1678:	13151402 	tstne	r5, #33554432	; 0x2000000
    167c:	03040514 	movweq	r0, #17684	; 0x4514
    1680:	0905011a 	stmdbeq	r5, {r1, r3, r4, r8}
    1684:	02050106 	andeq	r0, r5, #-2147483647	; 0x80000001
    1688:	052e4603 	streq	r4, [lr, #-1539]!	; 0xfffff9fd
    168c:	2e3a0309 	cdpcs	3, 3, cr0, cr10, cr9, {0}
    1690:	2f060405 	svccs	0x00060405
    1694:	01010d03 	tsteq	r1, r3, lsl #26
    1698:	05150205 	ldreq	r0, [r5, #-517]	; 0xfffffdfb
    169c:	7fb2030e 	svcvc	0x00b2030e
    16a0:	13020501 	movwne	r0, #9473	; 0x2501
    16a4:	01080514 	tsteq	r8, r4, lsl r5
    16a8:	01060205 	tsteq	r6, r5, lsl #4
    16ac:	059f0805 	ldreq	r0, [pc, #2053]	; 1eb9 <__code_start__-0x6147>
    16b0:	064a0603 	strbeq	r0, [sl], -r3, lsl #12
    16b4:	2e080501 	cfsh32cs	mvfx0, mvfx8, #1
    16b8:	2d061505 	cfstr32cs	mvfx1, [r6, #-20]	; 0xffffffec
    16bc:	05010805 	streq	r0, [r1, #-2053]	; 0xfffff7fb
    16c0:	01062f03 	tsteq	r6, r3, lsl #30
    16c4:	052e0805 	streq	r0, [lr, #-2053]!	; 0xfffff7fb
    16c8:	052d0615 	streq	r0, [sp, #-1557]!	; 0xfffff9eb
    16cc:	03050108 	movweq	r0, #20744	; 0x5108
    16d0:	0501062f 	streq	r0, [r1, #-1583]	; 0xfffff9d1
    16d4:	15052e08 	strne	r2, [r5, #-3592]	; 0xfffff1f8
    16d8:	08052d06 	stmdaeq	r5, {r1, r2, r8, sl, fp, sp}
    16dc:	2f030501 	svccs	0x00030501
    16e0:	08050106 	stmdaeq	r5, {r1, r2, r8}
    16e4:	0615052e 	ldreq	r0, [r5], -lr, lsr #10
    16e8:	0108052d 	tsteq	r8, sp, lsr #10
    16ec:	062f0305 	strteq	r0, [pc], -r5, lsl #6
    16f0:	2e080501 	cfsh32cs	mvfx0, mvfx8, #1
    16f4:	2d061505 	cfstr32cs	mvfx1, [r6, #-20]	; 0xffffffec
    16f8:	05010805 	streq	r0, [r1, #-2053]	; 0xfffff7fb
    16fc:	01062f03 	tsteq	r6, r3, lsl #30
    1700:	052e0805 	streq	r0, [lr, #-2053]!	; 0xfffff7fb
    1704:	052d0615 	streq	r0, [sp, #-1557]!	; 0xfffff9eb
    1708:	03050108 	movweq	r0, #20744	; 0x5108
    170c:	06080513 			; <UNDEFINED> instruction: 0x06080513
    1710:	06150501 	ldreq	r0, [r5], -r1, lsl #10
    1714:	0108052d 	tsteq	r8, sp, lsr #10
    1718:	03056606 	movweq	r6, #22022	; 0x5606
    171c:	08056706 	stmdaeq	r5, {r1, r2, r8, r9, sl, sp, lr}
    1720:	18050106 	stmdane	r5, {r1, r2, r8}
    1724:	2e02052d 	cfsh32cs	mvfx0, mvfx2, #29
    1728:	052f0805 	streq	r0, [pc, #-2053]!	; f2b <__code_start__-0x70d5>
    172c:	052d0615 	streq	r0, [sp, #-1557]!	; 0xfffff9eb
    1730:	02050108 	andeq	r0, r5, #2
    1734:	03050106 	movweq	r0, #20742	; 0x5106
    1738:	18052f06 	stmdane	r5, {r1, r2, r8, r9, sl, fp, sp}
    173c:	02051106 	andeq	r1, r5, #-2147483647	; 0x80000001
    1740:	2f08052e 	svccs	0x0008052e
    1744:	2d061505 	cfstr32cs	mvfx1, [r6, #-20]	; 0xffffffec
    1748:	05010805 	streq	r0, [r1, #-2053]	; 0xfffff7fb
    174c:	08051303 	stmdaeq	r5, {r0, r1, r8, r9, ip}
    1750:	15050106 	strne	r0, [r5, #-262]	; 0xfffffefa
    1754:	08052d06 	stmdaeq	r5, {r1, r2, r8, sl, fp, sp}
    1758:	06050501 	streq	r0, [r5], -r1, lsl #10
    175c:	02054a14 	andeq	r4, r5, #20, 20	; 0x14000
    1760:	0e052e06 	cdpeq	14, 0, cr2, cr5, cr6, {0}
    1764:	04051906 	streq	r1, [r5], #-2310	; 0xfffff6fa
    1768:	2f11052f 	svccs	0x0011052f
    176c:	054a0905 	strbeq	r0, [sl, #-2309]	; 0xfffff6fb
    1770:	05053302 	streq	r3, [r5, #-770]	; 0xfffffcfe
    1774:	052e7203 	streq	r7, [lr, #-515]!	; 0xfffffdfd
    1778:	062f0602 	strteq	r0, [pc], -r2, lsl #12
    177c:	060e0501 	streq	r0, [lr], -r1, lsl #10
    1780:	14020516 	strne	r0, [r2], #-1302	; 0xfffffaea
    1784:	13030513 	movwne	r0, #13587	; 0x3513
    1788:	15140205 	ldrne	r0, [r4, #-517]	; 0xfffffdfb
    178c:	05010b05 	streq	r0, [r1, #-2821]	; 0xfffff4fb
    1790:	2e010602 	cfmadd32cs	mvax0, mvfx0, mvfx1, mvfx2
    1794:	06030566 	streq	r0, [r3], -r6, ror #10
    1798:	060a052f 	streq	r0, [sl], -pc, lsr #10
    179c:	2d020501 	cfstr32cs	mvfx0, [r2, #-4]
    17a0:	052f0a05 	streq	r0, [pc, #-2565]!	; da3 <__code_start__-0x725d>
    17a4:	052d0617 	streq	r0, [sp, #-1559]!	; 0xfffff9e9
    17a8:	0205010b 	andeq	r0, r5, #-1073741822	; 0xc0000002
    17ac:	4a4a0106 	bmi	1281bcc <__bss_end__+0x1276cc4>
    17b0:	03060505 	movweq	r0, #25861	; 0x6505
    17b4:	05010195 	streq	r0, [r1, #-405]	; 0xfffffe6b
    17b8:	f8030611 			; <UNDEFINED> instruction: 0xf8030611
    17bc:	1b05017e 	blne	141dbc <__bss_end__+0x136eb4>
    17c0:	4a018803 	bmi	637d4 <__bss_end__+0x588cc>
    17c4:	03060105 	movweq	r0, #24837	; 0x6105
    17c8:	052e7ef3 	streq	r7, [lr, #-3827]!	; 0xfffff10d
    17cc:	13151402 	tstne	r5, #33554432	; 0x2000000
    17d0:	03190514 	tsteq	r9, #20, 10	; 0x5000000
    17d4:	1a050122 	bne	141c64 <__bss_end__+0x136d5c>
    17d8:	06280513 			; <UNDEFINED> instruction: 0x06280513
    17dc:	2e1f0501 	cfmul32cs	mvfx0, mvfx15, mvfx1
    17e0:	052f0405 	streq	r0, [pc, #-1029]!	; 13e3 <__code_start__-0x6c1d>
    17e4:	1f054a0e 	svcne	0x00054a0e
    17e8:	060b052d 	streq	r0, [fp], -sp, lsr #10
    17ec:	0604052f 	streq	r0, [r4], -pc, lsr #10
    17f0:	01320601 	teqeq	r2, r1, lsl #12
    17f4:	05150205 	ldreq	r0, [r5, #-517]	; 0xfffffdfb
    17f8:	7fb2030e 	svcvc	0x00b2030e
    17fc:	13020501 	movwne	r0, #9473	; 0x2501
    1800:	01060605 	tsteq	r6, r5, lsl #12
    1804:	30060205 	andcc	r0, r6, r5, lsl #4
    1808:	05010805 	streq	r0, [r1, #-2053]	; 0xfffff7fb
    180c:	05010602 	streq	r0, [r1, #-1538]	; 0xfffff9fe
    1810:	21080603 	tstcs	r8, r3, lsl #12
    1814:	01060805 	tsteq	r6, r5, lsl #16
    1818:	49061505 	stmdbmi	r6, {r0, r2, r8, sl, ip}
    181c:	05010805 	streq	r0, [r1, #-2053]	; 0xfffff7fb
    1820:	0805d703 	stmdaeq	r5, {r0, r1, r8, r9, sl, ip, lr, pc}
    1824:	18050106 	stmdane	r5, {r1, r2, r8}
    1828:	2e02052d 	cfsh32cs	mvfx0, mvfx2, #29
    182c:	052f0805 	streq	r0, [pc, #-2053]!	; 102f <__code_start__-0x6fd1>
    1830:	052d0615 	streq	r0, [sp, #-1557]!	; 0xfffff9eb
    1834:	02050108 	andeq	r0, r5, #2
    1838:	03050106 	movweq	r0, #20742	; 0x5106
    183c:	18052f06 	stmdane	r5, {r1, r2, r8, r9, sl, fp, sp}
    1840:	02051106 	andeq	r1, r5, #-2147483647	; 0x80000001
    1844:	2f08052e 	svccs	0x0008052e
    1848:	2d061505 	cfstr32cs	mvfx1, [r6, #-20]	; 0xffffffec
    184c:	05010805 	streq	r0, [r1, #-2053]	; 0xfffff7fb
    1850:	08051303 	stmdaeq	r5, {r0, r1, r8, r9, ip}
    1854:	15050106 	strne	r0, [r5, #-262]	; 0xfffffefa
    1858:	08052d06 	stmdaeq	r5, {r1, r2, r8, sl, fp, sp}
    185c:	06050501 	streq	r0, [r5], -r1, lsl #10
    1860:	06020514 			; <UNDEFINED> instruction: 0x06020514
    1864:	06040566 	streq	r0, [r4], -r6, ror #10
    1868:	0305051a 	movweq	r0, #21786	; 0x551a
    186c:	02054a78 	andeq	r4, r5, #120, 20	; 0x78000
    1870:	01062f06 	tsteq	r6, r6, lsl #30
    1874:	16060e05 	strne	r0, [r6], -r5, lsl #28
    1878:	13140205 	tstne	r4, #1342177280	; 0x50000000
    187c:	01060405 	tsteq	r6, r5, lsl #8
    1880:	2f060305 	svccs	0x00060305
    1884:	01061105 	tsteq	r6, r5, lsl #2
    1888:	052e0905 	streq	r0, [lr, #-2309]!	; 0xfffff6fb
    188c:	15300602 	ldrne	r0, [r0, #-1538]!	; 0xfffff9fe
    1890:	05010b05 	streq	r0, [r1, #-2821]	; 0xfffff4fb
    1894:	4a010602 	bmi	430a4 <__bss_end__+0x3819c>
    1898:	03052e4a 	movweq	r2, #24138	; 0x5e4a
    189c:	0a052f06 	beq	14d4bc <__bss_end__+0x1425b4>
    18a0:	02050106 	andeq	r0, r5, #-2147483647	; 0x80000001
    18a4:	2f0a052d 	svccs	0x000a052d
    18a8:	2d061705 	stccs	7, cr1, [r6, #-20]	; 0xffffffec
    18ac:	05010b05 	streq	r0, [r1, #-2821]	; 0xfffff4fb
    18b0:	4a010602 	bmi	430c0 <__bss_end__+0x381b8>
    18b4:	0514062e 	ldreq	r0, [r4, #-1582]	; 0xfffff9d2
    18b8:	05010609 	streq	r0, [r1, #-1545]	; 0xfffff9f7
    18bc:	064c0602 	strbeq	r0, [ip], -r2, lsl #12
    18c0:	06050501 	streq	r0, [r5], -r1, lsl #10
    18c4:	01019803 	tsteq	r1, r3, lsl #16
    18c8:	0607052a 	streq	r0, [r7], -sl, lsr #10
    18cc:	06050501 	streq	r0, [r5], -r1, lsl #10
    18d0:	0318052f 	tsteq	r8, #197132288	; 0xbc00000
    18d4:	1b052e53 	blne	14d228 <__bss_end__+0x142320>
    18d8:	1a050106 	bne	141cf8 <__bss_end__+0x136df0>
    18dc:	06090582 	streq	r0, [r9], -r2, lsl #11
    18e0:	060d054b 	streq	r0, [sp], -fp, asr #10
    18e4:	09052e01 	stmdbeq	r5, {r0, r9, sl, fp, sp}
    18e8:	9d0d05d7 	cfstr32ls	mvfx0, [sp, #-860]	; 0xfffffca4
    18ec:	2f060905 	svccs	0x00060905
    18f0:	05301505 	ldreq	r1, [r0, #-1285]!	; 0xfffffafb
    18f4:	05010618 	streq	r0, [r1, #-1560]	; 0xfffff9e8
    18f8:	19056617 	stmdbne	r5, {r0, r1, r2, r4, r9, sl, sp, lr}
    18fc:	4917052f 	ldmdbmi	r7, {r0, r1, r2, r3, r5, r8, sl}
    1900:	2f061905 	svccs	0x00061905
    1904:	03061505 	movweq	r1, #25861	; 0x6505
    1908:	19052e6f 	stmdbne	r5, {r0, r1, r2, r3, r5, r6, r9, sl, fp, sp}
    190c:	4a130306 	bmi	4c252c <__bss_end__+0x4b7624>
    1910:	03061505 	movweq	r1, #25861	; 0x6505
    1914:	054a2e6d 	strbeq	r2, [sl, #-3693]	; 0xfffff193
    1918:	7fa00302 	svcvc	0x00a00302
    191c:	03066601 	movweq	r6, #26113	; 0x6601
    1920:	05050172 	streq	r0, [r5, #-370]	; 0xfffffe8e
    1924:	04050106 	streq	r0, [r5], #-262	; 0xfffffefa
    1928:	03050536 	movweq	r0, #21814	; 0x5536
    192c:	02052e78 	andeq	r2, r5, #120, 28	; 0x780
    1930:	01062f06 	tsteq	r6, r6, lsl #30
    1934:	16060e05 	strne	r0, [r6], -r5, lsl #28
    1938:	13140205 	tstne	r4, #1342177280	; 0x50000000
    193c:	01060405 	tsteq	r6, r5, lsl #8
    1940:	0602054a 	streq	r0, [r2], -sl, asr #10
    1944:	05017803 	streq	r7, [r1, #-2051]	; 0xfffff7fd
    1948:	4a010605 	bmi	43164 <__bss_end__+0x3825c>
    194c:	4b060205 	blmi	182168 <__bss_end__+0x177260>
    1950:	0e050106 	adfeqs	f0, f5, f6
    1954:	02051606 	andeq	r1, r5, #6291456	; 0x600000
    1958:	15151314 	ldrne	r1, [r5, #-788]	; 0xfffffcec
    195c:	06010b05 	streq	r0, [r1], -r5, lsl #22
    1960:	0611052e 	ldreq	r0, [r1], -lr, lsr #10
    1964:	01019e03 	tsteq	r1, r3, lsl #28
    1968:	01062205 	tsteq	r6, r5, lsl #4
    196c:	052f0505 	streq	r0, [pc, #-1285]!	; 146f <__code_start__-0x6b91>
    1970:	05052d22 	streq	r2, [r5, #-3362]	; 0xfffff2de
    1974:	11052f06 	tstne	r5, r6, lsl #30
    1978:	8305054b 	movwhi	r0, #21835	; 0x554b
    197c:	5c039e01 	stcpl	14, cr9, [r3], {1}
    1980:	059e012e 	ldreq	r0, [lr, #302]	; 0x12e
    1984:	f3030602 	vmax.u8	d0, d3, d2
    1988:	052e2e7e 	streq	r2, [lr, #-3710]!	; 0xfffff182
    198c:	054a2c06 	strbeq	r2, [sl, #-3078]	; 0xfffff3fa
    1990:	00d8030d 	sbcseq	r0, r8, sp, lsl #6
    1994:	00040501 	andeq	r0, r4, r1, lsl #10
    1998:	06010402 	streq	r0, [r1], -r2, lsl #8
    199c:	004a1103 	subeq	r1, sl, r3, lsl #2
    19a0:	01010402 	tsteq	r1, r2, lsl #8
    19a4:	51061105 	tstpl	r6, r5, lsl #2
    19a8:	15059e06 	strne	r9, [r5, #-3590]	; 0xfffff1fa
    19ac:	012e1703 			; <UNDEFINED> instruction: 0x012e1703
    19b0:	031105ba 	tsteq	r1, #780140544	; 0x2e800000
    19b4:	02012e69 	andeq	r2, r1, #1680	; 0x690
    19b8:	01010028 	tsteq	r1, r8, lsr #32
    19bc:	00000087 	andeq	r0, r0, r7, lsl #1
    19c0:	00640003 	rsbeq	r0, r4, r3
    19c4:	01020000 	mrseq	r0, (UNDEF: 2)
    19c8:	000d0efb 	strdeq	r0, [sp], -fp
    19cc:	01010101 	tsteq	r1, r1, lsl #2
    19d0:	01000000 	mrseq	r0, (UNDEF: 0)
    19d4:	2e010000 	cdpcs	0, 0, cr0, cr1, cr0, {0}
    19d8:	6174732f 	cmnvs	r4, pc, lsr #6
    19dc:	732d6666 			; <UNDEFINED> instruction: 0x732d6666
    19e0:	2f006372 	svccs	0x00006372
    19e4:	72657355 	rsbvc	r7, r5, #1409286145	; 0x54000001
    19e8:	696d2f73 	stmdbvs	sp!, {r0, r1, r4, r5, r6, r8, r9, sl, fp, sp}^
    19ec:	2f73656c 	svccs	0x0073656c
    19f0:	72756f53 	rsbsvc	r6, r5, #332	; 0x14c
    19f4:	632f6563 			; <UNDEFINED> instruction: 0x632f6563
    19f8:	30343273 	eorscc	r3, r4, r3, ror r2
    19fc:	6c2f786c 	stcvs	8, cr7, [pc], #-432	; 1854 <__code_start__-0x67ac>
    1a00:	69706269 	ldmdbvs	r0!, {r0, r3, r5, r6, r9, sp, lr}^
    1a04:	636e692f 	cmnvs	lr, #770048	; 0xbc000
    1a08:	6564756c 	strbvs	r7, [r4, #-1388]!	; 0xfffffa94
    1a0c:	6c630000 	stclvs	0, cr0, [r3], #-0
    1a10:	2d6e6165 	stfcse	f6, [lr, #-404]!	; 0xfffffe6c
    1a14:	6f626572 	svcvs	0x00626572
    1a18:	632e746f 			; <UNDEFINED> instruction: 0x632e746f
    1a1c:	00000100 	andeq	r0, r0, r0, lsl #2
    1a20:	2e697072 	mcrcs	0, 3, r7, cr9, cr2, {3}
    1a24:	00020068 	andeq	r0, r2, r8, rrx
    1a28:	19050000 	stmdbne	r5, {}	; <UNPREDICTABLE>
    1a2c:	cc020500 	cfstr32gt	mvfx0, [r2], {-0}
    1a30:	15000096 	strne	r0, [r0, #-150]	; 0xffffff6a
    1a34:	05130505 	ldreq	r0, [r3, #-1285]	; 0xfffffafb
    1a38:	052d0619 	streq	r0, [sp, #-1561]!	; 0xfffff9e7
    1a3c:	67062f05 	strvs	r2, [r6, -r5, lsl #30]
    1a40:	06024b2f 	streq	r4, [r2], -pc, lsr #22
    1a44:	12010100 	andne	r0, r1, #0
    1a48:	03000001 	movweq	r0, #1
    1a4c:	00005e00 	andeq	r5, r0, r0, lsl #28
    1a50:	fb010200 	blx	4225a <__bss_end__+0x37352>
    1a54:	01000d0e 	tsteq	r0, lr, lsl #26
    1a58:	00010101 	andeq	r0, r1, r1, lsl #2
    1a5c:	00010000 	andeq	r0, r1, r0
    1a60:	2f2e0100 	svccs	0x002e0100
    1a64:	66617473 			; <UNDEFINED> instruction: 0x66617473
    1a68:	72732d66 	rsbsvc	r2, r3, #6528	; 0x1980
    1a6c:	552f0063 	strpl	r0, [pc, #-99]!	; 1a11 <__code_start__-0x65ef>
    1a70:	73726573 	cmnvc	r2, #482344960	; 0x1cc00000
    1a74:	6c696d2f 	stclvs	13, cr6, [r9], #-188	; 0xffffff44
    1a78:	532f7365 			; <UNDEFINED> instruction: 0x532f7365
    1a7c:	6372756f 	cmnvs	r2, #465567744	; 0x1bc00000
    1a80:	73632f65 	cmnvc	r3, #404	; 0x194
    1a84:	6c303432 	cfldrsvs	mvf3, [r0], #-200	; 0xffffff38
    1a88:	696c2f78 	stmdbvs	ip!, {r3, r4, r5, r6, r8, r9, sl, fp, sp}^
    1a8c:	2f697062 	svccs	0x00697062
    1a90:	6c636e69 	stclvs	14, cr6, [r3], #-420	; 0xfffffe5c
    1a94:	00656475 	rsbeq	r6, r5, r5, ror r4
    1a98:	74736300 	ldrbtvc	r6, [r3], #-768	; 0xfffffd00
    1a9c:	2e747261 	cdpcs	2, 7, cr7, cr4, cr1, {3}
    1aa0:	00010063 	andeq	r0, r1, r3, rrx
    1aa4:	69707200 	ldmdbvs	r0!, {r9, ip, sp, lr}^
    1aa8:	0200682e 	andeq	r6, r0, #3014656	; 0x2e0000
    1aac:	05000000 	streq	r0, [r0, #-0]
    1ab0:	02050010 	andeq	r0, r5, #16, 0
    1ab4:	000096f8 	strdeq	r9, [r0], -r8
    1ab8:	13050515 	movwne	r0, #21781	; 0x5515
    1abc:	05130205 	ldreq	r0, [r3, #-517]	; 0xfffffdfb
    1ac0:	10051405 	andne	r1, r5, r5, lsl #8
    1ac4:	05050e06 	streq	r0, [r5, #-3590]	; 0xfffff1fa
    1ac8:	13300632 	teqne	r0, #52428800	; 0x3200000
    1acc:	010a0514 	tsteq	sl, r4, lsl r5
    1ad0:	91080905 	tstls	r8, r5, lsl #18
    1ad4:	01061005 	tsteq	r6, r5
    1ad8:	059a0a05 	ldreq	r0, [sl, #2565]	; 0xa05
    1adc:	0a056a10 	beq	15c324 <__bss_end__+0x15141c>
    1ae0:	09052d06 	stmdbeq	r5, {r1, r2, r8, sl, fp, sp}
    1ae4:	0610052f 	ldreq	r0, [r0], -pc, lsr #10
    1ae8:	060a0501 	streq	r0, [sl], -r1, lsl #10
    1aec:	bb09052d 	bllt	242fa8 <__bss_end__+0x2380a0>
    1af0:	01061005 	tsteq	r6, r5
    1af4:	65060a05 	strvs	r0, [r6, #-2565]	; 0xfffff5fb
    1af8:	054b0905 	strbeq	r0, [fp, #-2309]	; 0xfffff6fb
    1afc:	0501060d 	streq	r0, [r1, #-1549]	; 0xfffff9f3
    1b00:	10052d0a 	andne	r2, r5, sl, lsl #26
    1b04:	060a052f 	streq	r0, [sl], -pc, lsr #10
    1b08:	2f09052d 	svccs	0x0009052d
    1b0c:	01060d05 	tsteq	r6, r5, lsl #26
    1b10:	052d0a05 	streq	r0, [sp, #-2565]!	; 0xfffff5fb
    1b14:	0a052f10 	beq	14d75c <__bss_end__+0x142854>
    1b18:	09052d06 	stmdbeq	r5, {r1, r2, r8, sl, fp, sp}
    1b1c:	060d052f 	streq	r0, [sp], -pc, lsr #10
    1b20:	2d0a0501 	cfstr32cs	mvfx0, [sl, #-4]
    1b24:	052f1005 	streq	r1, [pc, #-5]!	; 1b27 <__code_start__-0x64d9>
    1b28:	052d060a 	streq	r0, [sp, #-1546]!	; 0xfffff9f6
    1b2c:	0d052f09 	stceq	15, cr2, [r5, #-36]	; 0xffffffdc
    1b30:	0a050106 	beq	141f50 <__bss_end__+0x137048>
    1b34:	2f10052d 	svccs	0x0010052d
    1b38:	2d060a05 	vstrcs	s0, [r6, #-20]	; 0xffffffec
    1b3c:	05130905 	ldreq	r0, [r3, #-2309]	; 0xfffff6fb
    1b40:	05010610 	streq	r0, [r1, #-1552]	; 0xfffff9f0
    1b44:	052d060a 	streq	r0, [sp, #-1546]!	; 0xfffff9f6
    1b48:	01321505 	teqeq	r2, r5, lsl #10
    1b4c:	05144a01 	ldreq	r4, [r4, #-2561]	; 0xfffff5ff
    1b50:	0a052f02 	beq	14d760 <__bss_end__+0x142858>
    1b54:	2e730306 	cdpcs	3, 7, cr0, cr3, cr6, {0}
    1b58:	01000802 	tsteq	r0, r2, lsl #16
    1b5c:	00007d01 	andeq	r7, r0, r1, lsl #26
    1b60:	65000300 	strvs	r0, [r0, #-768]	; 0xfffffd00
    1b64:	02000000 	andeq	r0, r0, #0, 0
    1b68:	0d0efb01 	vstreq	d15, [lr, #-4]
    1b6c:	01010100 	mrseq	r0, (UNDEF: 17)
    1b70:	00000001 	andeq	r0, r0, r1
    1b74:	01000001 	tsteq	r0, r1
    1b78:	74732f2e 	ldrbtvc	r2, [r3], #-3886	; 0xfffff0d2
    1b7c:	2d666661 	stclcs	6, cr6, [r6, #-388]!	; 0xfffffe7c
    1b80:	00637273 	rsbeq	r7, r3, r3, ror r2
    1b84:	6573552f 	ldrbvs	r5, [r3, #-1327]!	; 0xfffffad1
    1b88:	6d2f7372 	stcvs	3, cr7, [pc, #-456]!	; 19c8 <__code_start__-0x6638>
    1b8c:	73656c69 	cmnvc	r5, #26880	; 0x6900
    1b90:	756f532f 	strbvc	r5, [pc, #-815]!	; 1869 <__code_start__-0x6797>
    1b94:	2f656372 	svccs	0x00656372
    1b98:	34327363 	ldrtcc	r7, [r2], #-867	; 0xfffffc9d
    1b9c:	2f786c30 	svccs	0x00786c30
    1ba0:	7062696c 	rsbvc	r6, r2, ip, ror #18
    1ba4:	6e692f69 	cdpvs	15, 6, cr2, cr9, cr9, {3}
    1ba8:	64756c63 	ldrbtvs	r6, [r5], #-3171	; 0xfffff39d
    1bac:	63000065 	movwvs	r0, #101	; 0x65
    1bb0:	6f747375 	svcvs	0x00747375
    1bb4:	6f6c2d6d 	svcvs	0x006c2d6d
    1bb8:	72656461 	rsbvc	r6, r5, #1627389952	; 0x61000000
    1bbc:	0100632e 	tsteq	r0, lr, lsr #6
    1bc0:	70720000 	rsbsvc	r0, r2, r0
    1bc4:	00682e69 	rsbeq	r2, r8, r9, ror #28
    1bc8:	00000002 	andeq	r0, r0, r2
    1bcc:	05001a05 	streq	r1, [r0, #-2565]	; 0xfffff5fb
    1bd0:	0097f002 	addseq	pc, r7, r2
    1bd4:	01051500 	tsteq	r5, r0, lsl #10
    1bd8:	00020214 	andeq	r0, r2, r4, lsl r2
    1bdc:	01140101 	tsteq	r4, r1, lsl #2
    1be0:	00030000 	andeq	r0, r3, r0
    1be4:	0000005e 	andeq	r0, r0, lr, asr r0
    1be8:	0efb0102 	cdpeq	1, 15, cr0, cr11, cr2, {0}
    1bec:	0101000d 	tsteq	r1, sp
    1bf0:	00000101 	andeq	r0, r0, r1, lsl #2
    1bf4:	00000100 	andeq	r0, r0, r0, lsl #2
    1bf8:	732f2e01 			; <UNDEFINED> instruction: 0x732f2e01
    1bfc:	66666174 			; <UNDEFINED> instruction: 0x66666174
    1c00:	6372732d 	cmnvs	r2, #-1275068416	; 0xb4000000
    1c04:	73552f00 	cmpvc	r5, #0, 30
    1c08:	2f737265 	svccs	0x00737265
    1c0c:	656c696d 	strbvs	r6, [ip, #-2413]!	; 0xfffff693
    1c10:	6f532f73 	svcvs	0x00532f73
    1c14:	65637275 	strbvs	r7, [r3, #-629]!	; 0xfffffd8b
    1c18:	3273632f 	rsbscc	r6, r3, #-1140850688	; 0xbc000000
    1c1c:	786c3034 	stmdavc	ip!, {r2, r4, r5, ip, sp}^
    1c20:	62696c2f 	rsbvs	r6, r9, #12032	; 0x2f00
    1c24:	692f6970 	stmdbvs	pc!, {r4, r5, r6, r8, fp, sp, lr}	; <UNPREDICTABLE>
    1c28:	756c636e 	strbvc	r6, [ip, #-878]!	; 0xfffffc92
    1c2c:	00006564 	andeq	r6, r0, r4, ror #10
    1c30:	6f626572 	svcvs	0x00626572
    1c34:	632e746f 			; <UNDEFINED> instruction: 0x632e746f
    1c38:	00000100 	andeq	r0, r0, r0, lsl #2
    1c3c:	2e697072 	mcrcs	0, 3, r7, cr9, cr2, {3}
    1c40:	00020068 	andeq	r0, r2, r8, rrx
    1c44:	19050000 	stmdbne	r5, {}	; <UNPREDICTABLE>
    1c48:	f4020500 	vst3.8	{d0,d2,d4}, [r2], r0
    1c4c:	03000097 	movweq	r0, #151	; 0x97
    1c50:	0505010d 	streq	r0, [r5, #-269]	; 0xfffffef3
    1c54:	05311313 	ldreq	r1, [r1, #-787]!	; 0xfffffced
    1c58:	05010613 	streq	r0, [r1, #-1555]	; 0xfffff9ed
    1c5c:	1b052f01 	blne	14d868 <__bss_end__+0x142960>
    1c60:	05058506 	streq	r8, [r5, #-1286]	; 0xfffffafa
    1c64:	09051413 	stmdbeq	r5, {r0, r1, r4, sl, ip}
    1c68:	0616052f 	ldreq	r0, [r6], -pc, lsr #10
    1c6c:	06050501 	streq	r0, [r5], -r1, lsl #10
    1c70:	060e052f 	streq	r0, [lr], -pc, lsr #10
    1c74:	2f050511 	svccs	0x00050511
    1c78:	052f0105 	streq	r0, [pc, #-261]!	; 1b7b <__code_start__-0x6485>
    1c7c:	05300617 	ldreq	r0, [r0, #-1559]!	; 0xfffff9e9
    1c80:	6e031305 	cdpvs	3, 0, cr1, cr3, cr5, {0}
    1c84:	05131301 	ldreq	r1, [r3, #-769]	; 0xfffffcff
    1c88:	0f030617 	svceq	0x00030617
    1c8c:	03050501 	movweq	r0, #21761	; 0x5501
    1c90:	31062e71 	tstcc	r6, r1, ror lr
    1c94:	01061305 	tsteq	r6, r5, lsl #6
    1c98:	0d030705 	stceq	7, cr0, [r3, #-20]	; 0xffffffec
    1c9c:	0609052e 	streq	r0, [r9], -lr, lsr #10
    1ca0:	0306054b 	movweq	r0, #25931	; 0x654b
    1ca4:	05050176 	streq	r0, [r5, #-374]	; 0xfffffe8a
    1ca8:	09051413 	stmdbeq	r5, {r0, r1, r4, sl, ip}
    1cac:	0616052f 	ldreq	r0, [r6], -pc, lsr #10
    1cb0:	06050501 	streq	r0, [r5], -r1, lsl #10
    1cb4:	060e052f 	streq	r0, [lr], -pc, lsr #10
    1cb8:	2f050511 	svccs	0x00050511
    1cbc:	0a03062e 	beq	c357c <__bss_end__+0xb8674>
    1cc0:	4d2f3001 	stcmi	0, cr3, [pc, #-4]!	; 1cc4 <__code_start__-0x633c>
    1cc4:	15131313 	ldrne	r1, [r3, #-787]	; 0xfffffced
    1cc8:	04020067 	streq	r0, [r2], #-103	; 0xffffff99
    1ccc:	0d056701 	stceq	7, cr6, [r5, #-4]
    1cd0:	01040200 	mrseq	r0, R12_usr
    1cd4:	000a0501 	andeq	r0, sl, r1, lsl #10
    1cd8:	01010402 	tsteq	r1, r2, lsl #8
    1cdc:	02000505 	andeq	r0, r0, #20971520	; 0x1400000
    1ce0:	05010104 	streq	r0, [r1, #-260]	; 0xfffffefc
    1ce4:	0402000d 	streq	r0, [r2], #-13
    1ce8:	0a050101 	beq	1420f4 <__bss_end__+0x1371ec>
    1cec:	01040200 	mrseq	r0, R12_usr
    1cf0:	000a0201 	andeq	r0, sl, r1, lsl #4
    1cf4:	01fa0101 	mvnseq	r0, r1, lsl #2
    1cf8:	00030000 	andeq	r0, r3, r0
    1cfc:	0000005d 	andeq	r0, r0, sp, asr r0
    1d00:	0efb0102 	cdpeq	1, 15, cr0, cr11, cr2, {0}
    1d04:	0101000d 	tsteq	r1, sp
    1d08:	00000101 	andeq	r0, r0, r1, lsl #2
    1d0c:	00000100 	andeq	r0, r0, r0, lsl #2
    1d10:	732f2e01 			; <UNDEFINED> instruction: 0x732f2e01
    1d14:	66666174 			; <UNDEFINED> instruction: 0x66666174
    1d18:	6372732d 	cmnvs	r2, #-1275068416	; 0xb4000000
    1d1c:	73552f00 	cmpvc	r5, #0, 30
    1d20:	2f737265 	svccs	0x00737265
    1d24:	656c696d 	strbvs	r6, [ip, #-2413]!	; 0xfffff693
    1d28:	6f532f73 	svcvs	0x00532f73
    1d2c:	65637275 	strbvs	r7, [r3, #-629]!	; 0xfffffd8b
    1d30:	3273632f 	rsbscc	r6, r3, #-1140850688	; 0xbc000000
    1d34:	786c3034 	stmdavc	ip!, {r2, r4, r5, ip, sp}^
    1d38:	62696c2f 	rsbvs	r6, r9, #12032	; 0x2f00
    1d3c:	692f6970 	stmdbvs	pc!, {r4, r5, r6, r8, fp, sp, lr}	; <UNPREDICTABLE>
    1d40:	756c636e 	strbvc	r6, [ip, #-878]!	; 0xfffffc92
    1d44:	00006564 	andeq	r6, r0, r4, ror #10
    1d48:	656d6974 	strbvs	r6, [sp, #-2420]!	; 0xfffff68c
    1d4c:	00632e72 	rsbeq	r2, r3, r2, ror lr
    1d50:	72000001 	andvc	r0, r0, #1, 0
    1d54:	682e6970 	stmdavs	lr!, {r4, r5, r6, r8, fp, sp, lr}
    1d58:	00000200 	andeq	r0, r0, r0, lsl #4
    1d5c:	00230500 	eoreq	r0, r3, r0, lsl #10
    1d60:	98800205 	stmls	r0, {r0, r2, r9}
    1d64:	05150000 	ldreq	r0, [r5, #-0]
    1d68:	0c051305 	stceq	3, cr1, [r5], {5}
    1d6c:	1f050106 	svcne	0x00050106
    1d70:	05056a06 	streq	r6, [r5, #-2566]	; 0xfffff5fa
    1d74:	061f0515 			; <UNDEFINED> instruction: 0x061f0515
    1d78:	3105050f 	tstcc	r5, pc, lsl #10
    1d7c:	0a052f06 	beq	14d99c <__bss_end__+0x142a94>
    1d80:	05017703 	streq	r7, [r1, #-1795]	; 0xfffff8fd
    1d84:	0c051305 	stceq	3, cr1, [r5], {5}
    1d88:	05660106 	strbeq	r0, [r6, #-262]!	; 0xfffffefa
    1d8c:	09030605 	stmdbeq	r3, {r0, r2, r9, sl}
    1d90:	01052f01 	tsteq	r5, r1, lsl #30
    1d94:	1c051306 	stcne	3, cr1, [r5], {6}
    1d98:	05056806 	streq	r6, [r5, #-2054]	; 0xfffff7fa
    1d9c:	030a0513 	movweq	r0, #42259	; 0xa513
    1da0:	05050176 	streq	r0, [r5, #-374]	; 0xfffffe8a
    1da4:	061c0515 			; <UNDEFINED> instruction: 0x061c0515
    1da8:	05052e18 	streq	r2, [r5, #-3608]	; 0xfffff1e8
    1dac:	062e7a03 	strteq	r7, [lr], -r3, lsl #20
    1db0:	030a052f 	movweq	r0, #42287	; 0xa52f
    1db4:	05050177 	streq	r0, [r5, #-375]	; 0xfffffe89
    1db8:	060c0513 			; <UNDEFINED> instruction: 0x060c0513
    1dbc:	05056601 	streq	r6, [r5, #-1537]	; 0xfffff9ff
    1dc0:	01090306 	tsteq	r9, r6, lsl #6
    1dc4:	0501062f 	streq	r0, [r1, #-1583]	; 0xfffff9d1
    1dc8:	0176030c 	cmneq	r6, ip, lsl #6
    1dcc:	03060505 	movweq	r0, #25861	; 0x6505
    1dd0:	09052e0f 	stmdbeq	r5, {r0, r1, r2, r3, r9, sl, fp, sp}
    1dd4:	030a0513 	movweq	r0, #42259	; 0xa513
    1dd8:	05050174 	streq	r0, [r5, #-372]	; 0xfffffe8c
    1ddc:	0a052f15 	beq	14da38 <__bss_end__+0x142b30>
    1de0:	05017703 	streq	r7, [r1, #-1795]	; 0xfffff8fd
    1de4:	0c051305 	stceq	3, cr1, [r5], {5}
    1de8:	05660106 	strbeq	r0, [r6, #-262]!	; 0xfffffefa
    1dec:	09030605 	stmdbeq	r3, {r0, r2, r9, sl}
    1df0:	06110501 	ldreq	r0, [r1], -r1, lsl #10
    1df4:	0305051a 	movweq	r0, #21786	; 0x551a
    1df8:	2f062e78 	svccs	0x00062e78
    1dfc:	05190905 	ldreq	r0, [r9, #-2309]	; 0xfffff6fb
    1e00:	0501060c 	streq	r0, [r1, #-1548]	; 0xfffff9f4
    1e04:	0587061c 	streq	r0, [r7, #1564]	; 0x61c
    1e08:	1c051305 	stcne	3, cr1, [r5], {5}
    1e0c:	05051106 	streq	r1, [r5, #-262]	; 0xfffffefa
    1e10:	06054a2f 	streq	r4, [r5], -pc, lsr #20
    1e14:	2e760306 	cdpcs	3, 7, cr0, cr6, cr6, {0}
    1e18:	05130505 	ldreq	r0, [r3, #-1285]	; 0xfffffafb
    1e1c:	0176030a 	cmneq	r6, sl, lsl #6
    1e20:	2f150505 	svccs	0x00150505
    1e24:	77030a05 	strvc	r0, [r3, -r5, lsl #20]
    1e28:	13050501 	movwne	r0, #21761	; 0x5501
    1e2c:	01060c05 	tsteq	r6, r5, lsl #24
    1e30:	06050566 	streq	r0, [r5], -r6, ror #10
    1e34:	2f010903 	svccs	0x00010903
    1e38:	0c050106 	stfeqs	f0, [r5], {6}
    1e3c:	05017603 	streq	r7, [r1, #-1539]	; 0xfffff9fd
    1e40:	0f030605 	svceq	0x00030605
    1e44:	1309052e 	movwne	r0, #38190	; 0x952e
    1e48:	74030a05 	strvc	r0, [r3], #-2565	; 0xfffff5fb
    1e4c:	15050501 	strne	r0, [r5, #-1281]	; 0xfffffaff
    1e50:	030a052f 	movweq	r0, #42287	; 0xa52f
    1e54:	05050177 	streq	r0, [r5, #-375]	; 0xfffffe89
    1e58:	060c0513 			; <UNDEFINED> instruction: 0x060c0513
    1e5c:	05056601 	streq	r6, [r5, #-1537]	; 0xfffff9ff
    1e60:	01090306 	tsteq	r9, r6, lsl #6
    1e64:	1a061105 	bne	186280 <__bss_end__+0x17b378>
    1e68:	78030505 	stmdavc	r3, {r0, r2, r8, sl}
    1e6c:	052f062e 	streq	r0, [pc, #-1582]!	; 1846 <__code_start__-0x67ba>
    1e70:	0c051909 			; <UNDEFINED> instruction: 0x0c051909
    1e74:	1e050106 	adfnes	f0, f5, f6
    1e78:	05058a06 	streq	r8, [r5, #-2566]	; 0xfffff5fa
    1e7c:	0e060513 	mcreq	5, 0, r0, cr6, cr3, {0}
    1e80:	05130505 	ldreq	r0, [r3, #-1285]	; 0xfffffafb
    1e84:	0514061e 	ldreq	r0, [r4, #-1566]	; 0xfffff9e2
    1e88:	05662c05 	strbeq	r2, [r6, #-3077]!	; 0xfffff3fb
    1e8c:	76030606 	strvc	r0, [r3], -r6, lsl #12
    1e90:	1305052e 	movwne	r0, #21806	; 0x552e
    1e94:	76030a05 	strvc	r0, [r3], -r5, lsl #20
    1e98:	15050501 	strne	r0, [r5, #-1281]	; 0xfffffaff
    1e9c:	030a052f 	movweq	r0, #42287	; 0xa52f
    1ea0:	05050177 	streq	r0, [r5, #-375]	; 0xfffffe89
    1ea4:	060c0513 			; <UNDEFINED> instruction: 0x060c0513
    1ea8:	05056601 	streq	r6, [r5, #-1537]	; 0xfffff9ff
    1eac:	01090306 	tsteq	r9, r6, lsl #6
    1eb0:	0501062f 	streq	r0, [r1, #-1583]	; 0xfffff9d1
    1eb4:	0176030c 	cmneq	r6, ip, lsl #6
    1eb8:	03060505 	movweq	r0, #25861	; 0x6505
    1ebc:	09052e0f 	stmdbeq	r5, {r0, r1, r2, r3, r9, sl, fp, sp}
    1ec0:	030a0513 	movweq	r0, #42259	; 0xa513
    1ec4:	05050174 	streq	r0, [r5, #-372]	; 0xfffffe8c
    1ec8:	0a052f15 	beq	14db24 <__bss_end__+0x142c1c>
    1ecc:	05017703 	streq	r7, [r1, #-1795]	; 0xfffff8fd
    1ed0:	0c051305 	stceq	3, cr1, [r5], {5}
    1ed4:	05660106 	strbeq	r0, [r6, #-262]!	; 0xfffffefa
    1ed8:	09030605 	stmdbeq	r3, {r0, r2, r9, sl}
    1edc:	06110501 	ldreq	r0, [r1], -r1, lsl #10
    1ee0:	0305051a 	movweq	r0, #21786	; 0x551a
    1ee4:	2f062e78 	svccs	0x00062e78
    1ee8:	05190905 	ldreq	r0, [r9, #-2309]	; 0xfffff6fb
    1eec:	0201060c 	andeq	r0, r1, #12, 12	; 0xc00000
    1ef0:	01010008 	tsteq	r1, r8
    1ef4:	00000204 	andeq	r0, r0, r4, lsl #4
    1ef8:	00c80003 	sbceq	r0, r8, r3
    1efc:	01020000 	mrseq	r0, (UNDEF: 2)
    1f00:	000d0efb 	strdeq	r0, [sp], -fp
    1f04:	01010101 	tsteq	r1, r1, lsl #2
    1f08:	01000000 	mrseq	r0, (UNDEF: 0)
    1f0c:	2f010000 	svccs	0x00010000
    1f10:	656d6f68 	strbvs	r6, [sp, #-3944]!	; 0xfffff098
    1f14:	676e652f 	strbvs	r6, [lr, -pc, lsr #10]!
    1f18:	2f72656c 	svccs	0x0072656c
    1f1c:	73616c63 	cmnvc	r1, #25344	; 0x6300
    1f20:	73632f73 	cmnvc	r3, #460	; 0x1cc
    1f24:	65303431 	ldrvs	r3, [r0, #-1073]!	; 0xfffffbcf
    1f28:	7732322d 	ldrvc	r3, [r2, -sp, lsr #4]!
    1f2c:	2f2f6e69 	svccs	0x002f6e69
    1f30:	7062696c 	rsbvc	r6, r2, ip, ror #18
    1f34:	6e692f69 	cdpvs	15, 6, cr2, cr9, cr9, {3}
    1f38:	64756c63 	ldrbtvs	r6, [r5], #-3171	; 0xfffff39d
    1f3c:	752f0065 	strvc	r0, [pc, #-101]!	; 1edf <__code_start__-0x6121>
    1f40:	732f7273 			; <UNDEFINED> instruction: 0x732f7273
    1f44:	65726168 	ldrbvs	r6, [r2, #-360]!	; 0xfffffe98
    1f48:	6363672f 	cmnvs	r3, #12320768	; 0xbc0000
    1f4c:	6d72612d 	ldfvse	f6, [r2, #-180]!	; 0xffffff4c
    1f50:	6e6f6e2d 	cdpvs	14, 6, cr6, cr15, cr13, {1}
    1f54:	61652d65 	cmnvs	r5, r5, ror #26
    1f58:	312d6962 			; <UNDEFINED> instruction: 0x312d6962
    1f5c:	2d332e30 	ldccs	14, cr2, [r3, #-192]!	; 0xffffff40
    1f60:	31323032 	teqcc	r2, r2, lsr r0
    1f64:	2f30312e 	svccs	0x0030312e
    1f68:	2f62696c 	svccs	0x0062696c
    1f6c:	2f636367 	svccs	0x00636367
    1f70:	2d6d7261 	sfmcs	f7, 2, [sp, #-388]!	; 0xfffffe7c
    1f74:	656e6f6e 	strbvs	r6, [lr, #-3950]!	; 0xfffff092
    1f78:	6261652d 	rsbvs	r6, r1, #188743680	; 0xb400000
    1f7c:	30312f69 	eorscc	r2, r1, r9, ror #30
    1f80:	312e332e 			; <UNDEFINED> instruction: 0x312e332e
    1f84:	636e692f 	cmnvs	lr, #770048	; 0xbc000
    1f88:	6564756c 	strbvs	r7, [r4, #-1388]!	; 0xfffffa94
    1f8c:	61750000 	cmnvs	r5, r0
    1f90:	632e7472 			; <UNDEFINED> instruction: 0x632e7472
    1f94:	00000000 	andeq	r0, r0, r0
    1f98:	74726175 	ldrbtvc	r6, [r2], #-373	; 0xfffffe8b
    1f9c:	0100682e 	tsteq	r0, lr, lsr #16
    1fa0:	70720000 	rsbsvc	r0, r2, r0
    1fa4:	00682e69 	rsbeq	r2, r8, r9, ror #28
    1fa8:	67000001 	strvs	r0, [r0, -r1]
    1fac:	2e6f6970 			; <UNDEFINED> instruction: 0x2e6f6970
    1fb0:	00010068 	andeq	r0, r1, r8, rrx
    1fb4:	64747300 	ldrbtvs	r7, [r4], #-768	; 0xfffffd00
    1fb8:	2d746e69 	ldclcs	14, cr6, [r4, #-420]!	; 0xfffffe5c
    1fbc:	2e636367 	cdpcs	3, 6, cr6, cr3, cr7, {3}
    1fc0:	00020068 	andeq	r0, r2, r8, rrx
    1fc4:	39050000 	stmdbcc	r5, {}	; <UNPREDICTABLE>
    1fc8:	9c020500 	cfstr32ls	mvfx0, [r2], {-0}
    1fcc:	03000099 	movweq	r0, #153	; 0x99
    1fd0:	01060130 	tsteq	r6, r0, lsr r1
    1fd4:	67060505 	strvs	r0, [r6, -r5, lsl #10]
    1fd8:	01061105 	tsteq	r6, r5, lsl #2
    1fdc:	052e0505 	streq	r0, [lr, #-1285]!	; 0xfffffafb
    1fe0:	38056701 	stmdacc	r5, {r0, r8, r9, sl, sp, lr}
    1fe4:	01062906 	tsteq	r6, r6, lsl #18
    1fe8:	67060505 	strvs	r0, [r6, -r5, lsl #10]
    1fec:	01061105 	tsteq	r6, r5, lsl #2
    1ff0:	052e0505 	streq	r0, [lr, #-1285]!	; 0xfffffafb
    1ff4:	16056701 	strne	r6, [r5], -r1, lsl #14
    1ff8:	2e150306 	cdpcs	3, 1, cr0, cr5, cr6, {0}
    1ffc:	67350505 	ldrvs	r0, [r5, -r5, lsl #10]!
    2000:	03683568 	cmneq	r8, #104, 10	; 0x1a000000
    2004:	6b852e0c 	blvs	fe14d83c <__bss_end__+0xfe142934>
    2008:	0c036969 			; <UNDEFINED> instruction: 0x0c036969
    200c:	676b1366 	strbvs	r1, [fp, -r6, ror #6]!
    2010:	2f060105 	svccs	0x00060105
    2014:	08061905 	stmdaeq	r6, {r0, r2, r8, fp, ip}
    2018:	34050525 	strcc	r0, [r5], #-1317	; 0xfffffadb
    201c:	01060d05 	tsteq	r6, r5, lsl #26
    2020:	054c0105 	strbeq	r0, [ip, #-261]	; 0xfffffefb
    2024:	05670619 	strbeq	r0, [r7, #-1561]!	; 0xfffff9e7
    2028:	0d053605 	stceq	6, cr3, [r5, #-20]	; 0xffffffec
    202c:	28050106 	stmdacs	r5, {r1, r2, r8}
    2030:	3001054a 	andcc	r0, r1, sl, asr #10
    2034:	87061505 	strhi	r1, [r6, -r5, lsl #10]
    2038:	2f2f0505 	svccs	0x002f0505
    203c:	02000905 	andeq	r0, r0, #81920	; 0x14000
    2040:	05130104 	ldreq	r0, [r3, #-260]	; 0xfffffefc
    2044:	0402000a 	streq	r0, [r2], #-10
    2048:	0c051101 	stfeqs	f1, [r5], {1}
    204c:	01040200 	mrseq	r0, R12_usr
    2050:	0a050106 	beq	142470 <__bss_end__+0x137568>
    2054:	01040200 	mrseq	r0, R12_usr
    2058:	0605052e 	streq	r0, [r5], -lr, lsr #10
    205c:	060e054c 	streq	r0, [lr], -ip, asr #10
    2060:	4a090501 	bmi	24346c <__bss_end__+0x238564>
    2064:	2f060505 	svccs	0x00060505
    2068:	0601052f 	streq	r0, [r1], -pc, lsr #10
    206c:	061c0513 			; <UNDEFINED> instruction: 0x061c0513
    2070:	05010667 	streq	r0, [r1, #-1639]	; 0xfffff999
    2074:	2f4b0605 	svccs	0x004b0605
    2078:	02000905 	andeq	r0, r0, #81920	; 0x14000
    207c:	05130104 	ldreq	r0, [r3, #-260]	; 0xfffffefc
    2080:	0402000a 	streq	r0, [r2], #-10
    2084:	0c051101 	stfeqs	f1, [r5], {1}
    2088:	01040200 	mrseq	r0, R12_usr
    208c:	0a050106 	beq	1424ac <__bss_end__+0x1375a4>
    2090:	01040200 	mrseq	r0, R12_usr
    2094:	0605052e 	streq	r0, [r5], -lr, lsr #10
    2098:	0105674c 	tsteq	r5, ip, asr #14
    209c:	19052f06 	stmdbne	r5, {r1, r2, r8, r9, sl, fp, sp}
    20a0:	1b054c06 	blne	1550c0 <__bss_end__+0x14a1b8>
    20a4:	2e2a052e 	cfsh64cs	mvdx0, mvdx10, #30
    20a8:	01063105 	tsteq	r6, r5, lsl #2
    20ac:	052e4205 	streq	r4, [lr, #-517]!	; 0xfffffdfb
    20b0:	0531061c 	ldreq	r0, [r1, #-1564]!	; 0xfffff9e4
    20b4:	09032f05 	stmdbeq	r3, {r0, r2, r8, r9, sl, fp, sp}
    20b8:	060e052e 	streq	r0, [lr], -lr, lsr #10
    20bc:	4a210501 	bmi	8434c8 <__bss_end__+0x8385c0>
    20c0:	0a030105 	beq	c24dc <__bss_end__+0xb75d4>
    20c4:	061a052e 	ldreq	r0, [sl], -lr, lsr #10
    20c8:	00090568 	andeq	r0, r9, r8, ror #10
    20cc:	30010402 	andcc	r0, r1, r2, lsl #8
    20d0:	02000a05 	andeq	r0, r0, #20480	; 0x5000
    20d4:	05110104 	ldreq	r0, [r1, #-260]	; 0xfffffefc
    20d8:	0402000c 	streq	r0, [r2], #-12
    20dc:	05010601 	streq	r0, [r1, #-1537]	; 0xfffff9ff
    20e0:	0402000a 	streq	r0, [r2], #-10
    20e4:	19052e01 	stmdbne	r5, {r0, r9, sl, fp, sp}
    20e8:	7ee80306 	cdpvc	3, 14, cr0, cr8, cr6, {0}
    20ec:	2f050566 	svccs	0x00050566
    20f0:	05672f2f 	strbeq	r2, [r7, #-3887]!	; 0xfffff0d1
    20f4:	022f0601 	eoreq	r0, pc, #1048576	; 0x100000
    20f8:	01010004 	tsteq	r1, r4
    20fc:	00000392 	muleq	r0, r2, r3
    2100:	00b70003 	adcseq	r0, r7, r3
    2104:	01020000 	mrseq	r0, (UNDEF: 2)
    2108:	000d0efb 	strdeq	r0, [sp], -fp
    210c:	01010101 	tsteq	r1, r1, lsl #2
    2110:	01000000 	mrseq	r0, (UNDEF: 0)
    2114:	2f010000 	svccs	0x00010000
    2118:	656d6f68 	strbvs	r6, [sp, #-3944]!	; 0xfffff098
    211c:	676e652f 	strbvs	r6, [lr, -pc, lsr #10]!
    2120:	2f72656c 	svccs	0x0072656c
    2124:	73616c63 	cmnvc	r1, #25344	; 0x6300
    2128:	73632f73 	cmnvc	r3, #460	; 0x1cc
    212c:	65303431 	ldrvs	r3, [r0, #-1073]!	; 0xfffffbcf
    2130:	7732322d 	ldrvc	r3, [r2, -sp, lsr #4]!
    2134:	2f2f6e69 	svccs	0x002f6e69
    2138:	7062696c 	rsbvc	r6, r2, ip, ror #18
    213c:	6e692f69 	cdpvs	15, 6, cr2, cr9, cr9, {3}
    2140:	64756c63 	ldrbtvs	r6, [r5], #-3171	; 0xfffff39d
    2144:	752f0065 	strvc	r0, [pc, #-101]!	; 20e7 <__code_start__-0x5f19>
    2148:	732f7273 			; <UNDEFINED> instruction: 0x732f7273
    214c:	65726168 	ldrbvs	r6, [r2, #-360]!	; 0xfffffe98
    2150:	6363672f 	cmnvs	r3, #12320768	; 0xbc0000
    2154:	6d72612d 	ldfvse	f6, [r2, #-180]!	; 0xffffff4c
    2158:	6e6f6e2d 	cdpvs	14, 6, cr6, cr15, cr13, {1}
    215c:	61652d65 	cmnvs	r5, r5, ror #26
    2160:	312d6962 			; <UNDEFINED> instruction: 0x312d6962
    2164:	2d332e30 	ldccs	14, cr2, [r3, #-192]!	; 0xffffff40
    2168:	31323032 	teqcc	r2, r2, lsr r0
    216c:	2f30312e 	svccs	0x0030312e
    2170:	2f62696c 	svccs	0x0062696c
    2174:	2f636367 	svccs	0x00636367
    2178:	2d6d7261 	sfmcs	f7, 2, [sp, #-388]!	; 0xfffffe7c
    217c:	656e6f6e 	strbvs	r6, [lr, #-3950]!	; 0xfffff092
    2180:	6261652d 	rsbvs	r6, r1, #188743680	; 0xb400000
    2184:	30312f69 	eorscc	r2, r1, r9, ror #30
    2188:	312e332e 			; <UNDEFINED> instruction: 0x312e332e
    218c:	636e692f 	cmnvs	lr, #770048	; 0xbc000
    2190:	6564756c 	strbvs	r7, [r4, #-1388]!	; 0xfffffa94
    2194:	6d6b0000 	stclvs	0, cr0, [fp, #-0]
    2198:	6f6c6c61 	svcvs	0x006c6c61
    219c:	00632e63 	rsbeq	r2, r3, r3, ror #28
    21a0:	72000000 	andvc	r0, r0, #0, 0
    21a4:	682e6970 	stmdavs	lr!, {r4, r5, r6, r8, fp, sp, lr}
    21a8:	00000100 	andeq	r0, r0, r0, lsl #2
    21ac:	69647473 	stmdbvs	r4!, {r0, r1, r4, r5, r6, sl, ip, sp, lr}^
    21b0:	672d746e 	strvs	r7, [sp, -lr, ror #8]!
    21b4:	682e6363 	stmdavs	lr!, {r0, r1, r5, r6, r8, r9, sp, lr}
    21b8:	00000200 	andeq	r0, r0, r0, lsl #4
    21bc:	001e0500 	andseq	r0, lr, r0, lsl #10
    21c0:	9b8c0205 	blls	fe3029dc <__bss_end__+0xfe2f7ad4>
    21c4:	27030000 	strcs	r0, [r3, -r0]
    21c8:	01200501 			; <UNDEFINED> instruction: 0x01200501
    21cc:	01062d05 	tsteq	r6, r5, lsl #26
    21d0:	83062005 	movwhi	r2, #24581	; 0x6005
    21d4:	05012205 	streq	r2, [r1, #-517]	; 0xfffffdfb
    21d8:	05010635 	streq	r0, [r1, #-1589]	; 0xfffff9cb
    21dc:	0583061e 	streq	r0, [r3, #1566]	; 0x61e
    21e0:	2d050120 	stfcss	f0, [r5, #-128]	; 0xffffff80
    21e4:	42050106 	andmi	r0, r5, #-2147483647	; 0x80000001
    21e8:	01068506 	tsteq	r6, r6, lsl #10
    21ec:	4b060505 	blmi	183608 <__bss_end__+0x178700>
    21f0:	2e060114 	mcrcs	1, 0, r0, cr6, cr4, {0}
    21f4:	02040200 	andeq	r0, r4, #0, 4
    21f8:	02002e06 	andeq	r2, r0, #96	; 0x60
    21fc:	00010204 	andeq	r0, r1, r4, lsl #4
    2200:	15020402 	strne	r0, [r2, #-1026]	; 0xfffffbfe
    2204:	02000d05 	andeq	r0, r0, #320	; 0x140
    2208:	01060204 	tsteq	r6, r4, lsl #4
    220c:	02000705 	andeq	r0, r0, #1310720	; 0x140000
    2210:	054a0204 	strbeq	r0, [sl, #-516]	; 0xfffffdfc
    2214:	054b0609 	strbeq	r0, [fp, #-1545]	; 0xfffff9f7
    2218:	17051505 	strne	r1, [r5, -r5, lsl #10]
    221c:	10050106 	andne	r0, r5, r6, lsl #2
    2220:	0605054a 	streq	r0, [r5], -sl, asr #10
    2224:	061b052f 	ldreq	r0, [fp], -pc, lsr #10
    2228:	2e0e0501 	cfsh32cs	mvfx0, mvfx14, #1
    222c:	052f0105 	streq	r0, [pc, #-261]!	; 212f <__code_start__-0x5ed1>
    2230:	04020005 	streq	r0, [r2], #-5
    2234:	77030601 	strvc	r0, [r3, -r1, lsl #12]
    2238:	0402004a 	streq	r0, [r2], #-74	; 0xffffffb6
    223c:	02000101 	andeq	r0, r0, #1073741824	; 0x40000000
    2240:	9e060104 	adflss	f0, f6, f4
    2244:	01040200 	mrseq	r0, R12_usr
    2248:	0402002e 	streq	r0, [r2], #-46	; 0xffffffd2
    224c:	052e0601 	streq	r0, [lr, #-1537]!	; 0xfffff9ff
    2250:	06013209 	streq	r3, [r1], -r9, lsl #4
    2254:	2e062ed6 	mcrcs	14, 0, r2, cr6, cr6, {6}
    2258:	05de1905 	ldrbeq	r1, [lr, #2309]	; 0x905
    225c:	05142f05 	ldreq	r2, [r4, #-3845]	; 0xfffff0fb
    2260:	05010608 	streq	r0, [r1, #-1544]	; 0xfffff9f8
    2264:	09054a07 	stmdbeq	r5, {r0, r1, r2, r9, fp, lr}
    2268:	05054b06 	streq	r4, [r5, #-2822]	; 0xfffff4fa
    226c:	060c0513 			; <UNDEFINED> instruction: 0x060c0513
    2270:	06050501 	streq	r0, [r5], -r1, lsl #10
    2274:	01051367 	tsteq	r5, r7, ror #6
    2278:	09056706 	stmdbeq	r5, {r1, r2, r8, r9, sl, sp, lr}
    227c:	9e012a06 	vmlals.f32	s4, s2, s12
    2280:	06a52805 	strteq	r2, [r5], r5, lsl #16
    2284:	06050501 	streq	r0, [r5], -r1, lsl #10
    2288:	2e06014b 	adfcssm	f0, f6, #3.0
    228c:	13012e06 	movwne	r2, #7686	; 0x1e06
    2290:	47031805 	strmi	r1, [r3, -r5, lsl #16]
    2294:	13050501 	movwne	r0, #21761	; 0x5501
    2298:	06010601 	streq	r0, [r1], -r1, lsl #12
    229c:	1301150f 	movwne	r1, #5391	; 0x150f
    22a0:	01060e05 	tsteq	r6, r5, lsl #28
    22a4:	2e2e1605 	cfmadda32cs	mvax0, mvax1, mvfx14, mvfx5
    22a8:	03060505 	movweq	r0, #25861	; 0x6505
    22ac:	0b050139 	bleq	142798 <__bss_end__+0x137890>
    22b0:	05050106 	streq	r0, [r5, #-262]	; 0xfffffefa
    22b4:	0a054b06 	beq	154ed4 <__bss_end__+0x149fcc>
    22b8:	05050106 	streq	r0, [r5, #-262]	; 0xfffffefa
    22bc:	0d054b06 	vstreq	d4, [r5, #-24]	; 0xffffffe8
    22c0:	07050106 	streq	r0, [r5, -r6, lsl #2]
    22c4:	4d01052e 	cfstr32mi	mvfx0, [r1, #-184]	; 0xffffff48
    22c8:	02000505 	andeq	r0, r0, #20971520	; 0x1400000
    22cc:	03060104 	movweq	r0, #24836	; 0x6104
    22d0:	02004a78 	andeq	r4, r0, #120, 20	; 0x78000
    22d4:	00010104 	andeq	r0, r1, r4, lsl #2
    22d8:	06010402 	streq	r0, [r1], -r2, lsl #8
    22dc:	040200ba 	streq	r0, [r2], #-186	; 0xffffff46
    22e0:	052e0601 	streq	r0, [lr, #-1537]!	; 0xfffff9ff
    22e4:	06013409 	streq	r3, [r1], -r9, lsl #8
    22e8:	2e066682 	cfmadd32cs	mvax4, mvfx6, mvfx6, mvfx2
    22ec:	06db2005 	ldrbeq	r2, [fp], r5
    22f0:	06050501 	streq	r0, [r5], -r1, lsl #10
    22f4:	0200014b 	andeq	r0, r0, #-1073741806	; 0xc0000012
    22f8:	004a0204 	subeq	r0, sl, r4, lsl #4
    22fc:	01020402 	tsteq	r2, r2, lsl #8
    2300:	02040200 	andeq	r0, r4, #0, 4
    2304:	00120513 	andseq	r0, r2, r3, lsl r5
    2308:	06020402 	streq	r0, [r2], -r2, lsl #8
    230c:	04020001 	streq	r0, [r2], #-1
    2310:	02002e02 	andeq	r2, r0, #2, 28
    2314:	052e0204 	streq	r0, [lr, #-516]!	; 0xfffffdfc
    2318:	04020005 	streq	r0, [r2], #-5
    231c:	002f0602 	eoreq	r0, pc, r2, lsl #12
    2320:	67020402 	strvs	r0, [r2, -r2, lsl #8]
    2324:	02000105 	andeq	r0, r0, #1073741825	; 0x40000001
    2328:	13060204 	movwne	r0, #25092	; 0x6204
    232c:	02000505 	andeq	r0, r0, #20971520	; 0x1400000
    2330:	62060104 	andvs	r0, r6, #1
    2334:	01040200 	mrseq	r0, R12_usr
    2338:	04020001 	streq	r0, [r2], #-1
    233c:	00ba0601 	adcseq	r0, sl, r1, lsl #12
    2340:	06010402 	streq	r0, [r1], -r2, lsl #8
    2344:	033c052e 	teqeq	ip, #192937984	; 0xb800000
    2348:	01069e0a 	tsteq	r6, sl, lsl #28
    234c:	4b060505 	blmi	183768 <__bss_end__+0x178860>
    2350:	062e0601 	strteq	r0, [lr], -r1, lsl #12
    2354:	0113012e 	tsteq	r3, lr, lsr #2
    2358:	ad031805 	stcge	8, cr1, [r3, #-20]	; 0xffffffec
    235c:	0505017f 	streq	r0, [r5, #-383]	; 0xfffffe81
    2360:	06110513 			; <UNDEFINED> instruction: 0x06110513
    2364:	05052e01 	streq	r2, [r5, #-3585]	; 0xfffff1ff
    2368:	0100d203 	tsteq	r0, r3, lsl #4
    236c:	05134a06 	ldreq	r4, [r3, #-2566]	; 0xfffff5fa
    2370:	7fa30318 	svcvc	0x00a30318
    2374:	13050501 	movwne	r0, #21761	; 0x5501
    2378:	01061605 	tsteq	r6, r5, lsl #12
    237c:	0605054a 	streq	r0, [r5], -sl, asr #10
    2380:	0100e103 	tsteq	r0, r3, lsl #2
    2384:	01061205 	tsteq	r6, r5, lsl #4
    2388:	4b060505 	blmi	1837a4 <__bss_end__+0x17889c>
    238c:	a9031805 	stmdbge	r3, {r0, r2, fp, ip}
    2390:	0505017f 	streq	r0, [r5, #-383]	; 0xfffffe81
    2394:	18050113 	stmdane	r5, {r0, r1, r4, r8}
    2398:	1305050e 	movwne	r0, #21774	; 0x550e
    239c:	01061105 	tsteq	r6, r5, lsl #2
    23a0:	1505052e 	strne	r0, [r5, #-1326]	; 0xfffffad2
    23a4:	13014a06 	movwne	r4, #6662	; 0x1a06
    23a8:	01060e05 	tsteq	r6, r5, lsl #28
    23ac:	2e16052e 	cfmul64cs	mvdx0, mvdx6, mvdx14
    23b0:	0605052e 	streq	r0, [r5], -lr, lsr #10
    23b4:	0100d603 	tsteq	r0, r3, lsl #12
    23b8:	03180501 	tsteq	r8, #4194304	; 0x400000
    23bc:	05017f9f 	streq	r7, [r1, #-3999]	; 0xfffff061
    23c0:	19051305 	stmdbne	r5, {r0, r2, r8, r9, ip}
    23c4:	052e0106 	streq	r0, [lr, #-262]!	; 0xfffffefa
    23c8:	00e00305 	rsceq	r0, r0, r5, lsl #6
    23cc:	04020001 	streq	r0, [r2], #-1
    23d0:	004a0602 	subeq	r0, sl, r2, lsl #12
    23d4:	14020402 	strne	r0, [r2], #-1026	; 0xfffffbfe
    23d8:	02000a05 	andeq	r0, r0, #20480	; 0x5000
    23dc:	01060204 	tsteq	r6, r4, lsl #4
    23e0:	02000505 	andeq	r0, r0, #20971520	; 0x1400000
    23e4:	4b060204 	blmi	182bfc <__bss_end__+0x177cf4>
    23e8:	02000c05 	andeq	r0, r0, #1280	; 0x500
    23ec:	01060204 	tsteq	r6, r4, lsl #4
    23f0:	02000105 	andeq	r0, r0, #1073741825	; 0x40000001
    23f4:	052f0204 	streq	r0, [pc, #-516]!	; 21f8 <__code_start__-0x5e08>
    23f8:	04020005 	streq	r0, [r2], #-5
    23fc:	73030601 	movwvc	r0, #13825	; 0x3601
    2400:	0402004a 	streq	r0, [r2], #-74	; 0xffffffb6
    2404:	02000101 	andeq	r0, r0, #1073741824	; 0x40000000
    2408:	9e060104 	adflss	f0, f6, f4
    240c:	01040200 	mrseq	r0, R12_usr
    2410:	0402002e 	streq	r0, [r2], #-46	; 0xffffffd2
    2414:	002e0601 	eoreq	r0, lr, r1, lsl #12
    2418:	2f010402 	svccs	0x00010402
    241c:	01040200 	mrseq	r0, R12_usr
    2420:	0402002e 	streq	r0, [r2], #-46	; 0xffffffd2
    2424:	b103d601 	tstlt	r3, r1, lsl #12
    2428:	06012e7f 			; <UNDEFINED> instruction: 0x06012e7f
    242c:	062e2e82 	strteq	r2, [lr], -r2, lsl #29
    2430:	002e062e 	eoreq	r0, lr, lr, lsr #12
    2434:	06010402 	streq	r0, [r1], -r2, lsl #8
    2438:	0100d703 	tsteq	r0, r3, lsl #14
    243c:	01040200 	mrseq	r0, R12_usr
    2440:	0402002e 	streq	r0, [r2], #-46	; 0xffffffd2
    2444:	1505d601 	strne	sp, [r5, #-1537]	; 0xfffff9ff
    2448:	17057b08 	strne	r7, [r5, -r8, lsl #22]
    244c:	31160501 	tstcc	r6, r1, lsl #10
    2450:	05011805 	streq	r1, [r1, #-2053]	; 0xfffff7fb
    2454:	0501061d 	streq	r0, [r1, #-1565]	; 0xfffff9e3
    2458:	1905662b 	stmdbne	r5, {r0, r1, r3, r5, r9, sl, sp, lr}
    245c:	05054d06 	streq	r4, [r5, #-3334]	; 0xfffff2fa
    2460:	060c0513 			; <UNDEFINED> instruction: 0x060c0513
    2464:	4a070501 	bmi	1c3870 <__bss_end__+0x1b8968>
    2468:	02002505 	andeq	r2, r0, #20971520	; 0x1400000
    246c:	054a0104 	strbeq	r0, [sl, #-260]	; 0xfffffefc
    2470:	0402001e 	streq	r0, [r2], #-30	; 0xffffffe2
    2474:	09054a01 	stmdbeq	r5, {r0, r9, fp, lr}
    2478:	05054b06 	streq	r4, [r5, #-2822]	; 0xfffff4fa
    247c:	060a0513 			; <UNDEFINED> instruction: 0x060a0513
    2480:	63190501 	tstvs	r9, #4194304	; 0x400000
    2484:	4c060905 			; <UNDEFINED> instruction: 0x4c060905
    2488:	069e0601 	ldreq	r0, [lr], r1, lsl #12
    248c:	000a022e 	andeq	r0, sl, lr, lsr #4
    2490:	02890101 	addeq	r0, r9, #1073741824	; 0x40000000
    2494:	00030000 	andeq	r0, r3, r0
    2498:	000000c9 	andeq	r0, r0, r9, asr #1
    249c:	0efb0102 	cdpeq	1, 15, cr0, cr11, cr2, {0}
    24a0:	0101000d 	tsteq	r1, sp
    24a4:	00000101 	andeq	r0, r0, r1, lsl #2
    24a8:	00000100 	andeq	r0, r0, r0, lsl #2
    24ac:	732f2e01 			; <UNDEFINED> instruction: 0x732f2e01
    24b0:	2f006372 	svccs	0x00006372
    24b4:	72657355 	rsbvc	r7, r5, #1409286145	; 0x54000001
    24b8:	696d2f73 	stmdbvs	sp!, {r0, r1, r4, r5, r6, r8, r9, sl, fp, sp}^
    24bc:	2f73656c 	svccs	0x0073656c
    24c0:	72756f53 	rsbsvc	r6, r5, #332	; 0x14c
    24c4:	632f6563 			; <UNDEFINED> instruction: 0x632f6563
    24c8:	30343273 	eorscc	r3, r4, r3, ror r2
    24cc:	6c2f786c 	stcvs	8, cr7, [pc], #-432	; 2324 <__code_start__-0x5cdc>
    24d0:	69706269 	ldmdbvs	r0!, {r0, r3, r5, r6, r9, sp, lr}^
    24d4:	636e692f 	cmnvs	lr, #770048	; 0xbc000
    24d8:	6564756c 	strbvs	r7, [r4, #-1388]!	; 0xfffffa94
    24dc:	706f2f00 	rsbvc	r2, pc, r0, lsl #30
    24e0:	6f682f74 	svcvs	0x00682f74
    24e4:	7262656d 	rsbvc	r6, r2, #457179136	; 0x1b400000
    24e8:	432f7765 			; <UNDEFINED> instruction: 0x432f7765
    24ec:	616c6c65 	cmnvs	ip, r5, ror #24
    24f0:	72612f72 	rsbvc	r2, r1, #456	; 0x1c8
    24f4:	6f6e2d6d 	svcvs	0x006e2d6d
    24f8:	652d656e 	strvs	r6, [sp, #-1390]!	; 0xfffffa92
    24fc:	2d696261 	sfmcs	f6, 2, [r9, #-388]!	; 0xfffffe7c
    2500:	2d392f39 	ldccs	15, cr2, [r9, #-228]!	; 0xffffff1c
    2504:	39313032 	ldmdbcc	r1!, {r1, r4, r5, ip, sp}
    2508:	632d3471 			; <UNDEFINED> instruction: 0x632d3471
    250c:	37303173 			; <UNDEFINED> instruction: 0x37303173
    2510:	696c2f65 	stmdbvs	ip!, {r0, r2, r5, r6, r8, r9, sl, fp, sp}^
    2514:	63672f62 	cmnvs	r7, #392	; 0x188
    2518:	72612f63 	rsbvc	r2, r1, #396	; 0x18c
    251c:	6f6e2d6d 	svcvs	0x006e2d6d
    2520:	652d656e 	strvs	r6, [sp, #-1390]!	; 0xfffffa92
    2524:	2f696261 	svccs	0x00696261
    2528:	2e322e39 	mrccs	14, 1, r2, cr2, cr9, {1}
    252c:	6e692f31 	mcrvs	15, 3, r2, cr9, cr1, {1}
    2530:	64756c63 	ldrbtvs	r6, [r5], #-3171	; 0xfffff39d
    2534:	67000065 	strvs	r0, [r0, -r5, rrx]
    2538:	2e6f6970 			; <UNDEFINED> instruction: 0x2e6f6970
    253c:	00010063 	andeq	r0, r1, r3, rrx
    2540:	69707200 	ldmdbvs	r0!, {r9, ip, sp, lr}^
    2544:	0200682e 	andeq	r6, r0, #3014656	; 0x2e0000
    2548:	74730000 	ldrbtvc	r0, [r3], #-0
    254c:	746e6964 	strbtvc	r6, [lr], #-2404	; 0xfffff69c
    2550:	6363672d 	cmnvs	r3, #11796480	; 0xb40000
    2554:	0300682e 	movweq	r6, #2094	; 0x82e
    2558:	70670000 	rsbvc	r0, r7, r0
    255c:	682e6f69 	stmdavs	lr!, {r0, r3, r5, r6, r8, r9, sl, fp, sp, lr}
    2560:	00000200 	andeq	r0, r0, r0, lsl #4
    2564:	00380500 	eorseq	r0, r8, r0, lsl #10
    2568:	9f3c0205 	svcls	0x003c0205
    256c:	27030000 	strcs	r0, [r3, -r0]
    2570:	13050501 	movwne	r0, #21761	; 0x5501
    2574:	01060705 	tsteq	r6, r5, lsl #14
    2578:	49060605 	stmdbmi	r6, {r0, r2, r9, sl}
    257c:	05150505 	ldreq	r0, [r5, #-1285]	; 0xfffffafb
    2580:	05010607 	streq	r0, [r1, #-1543]	; 0xfffff9f9
    2584:	07052b38 	smladxeq	r5, r8, fp, r2
    2588:	0605054d 	streq	r0, [r5], -sp, asr #10
    258c:	06180530 			; <UNDEFINED> instruction: 0x06180530
    2590:	671c0501 	ldrvs	r0, [ip, -r1, lsl #10]
    2594:	054a0e05 	strbeq	r0, [sl, #-3589]	; 0xfffff1fb
    2598:	12052d18 	andne	r2, r5, #24, 26	; 0x600
    259c:	052f2e4d 	streq	r2, [pc, #-3661]!	; 1757 <__code_start__-0x68a9>
    25a0:	05052a0e 	streq	r2, [r5, #-2574]	; 0xfffff5f2
    25a4:	13142f06 	tstne	r4, #6, 30
    25a8:	01060705 	tsteq	r6, r5, lsl #14
    25ac:	2f060505 	svccs	0x00060505
    25b0:	2e2e0613 	mcrcs	6, 1, r0, cr14, cr3, {0}
    25b4:	05130105 	ldreq	r0, [r3, #-261]	; 0xfffffefb
    25b8:	052e2d05 	streq	r2, [lr, #-3333]!	; 0xfffff2fb
    25bc:	05000624 	streq	r0, [r0, #-1572]	; 0xfffff9dc
    25c0:	009f9c02 	addseq	r9, pc, r2, lsl #24
    25c4:	05051500 	streq	r1, [r5, #-1280]	; 0xfffffb00
    25c8:	03060513 	movweq	r0, #25875	; 0x6513
    25cc:	05050171 	streq	r0, [r5, #-369]	; 0xfffffe8f
    25d0:	06070513 			; <UNDEFINED> instruction: 0x06070513
    25d4:	06060501 	streq	r0, [r6], -r1, lsl #10
    25d8:	15050549 	strne	r0, [r5, #-1353]	; 0xfffffab7
    25dc:	06240514 			; <UNDEFINED> instruction: 0x06240514
    25e0:	05010903 	streq	r0, [r1, #-2307]	; 0xfffff6fd
    25e4:	2e770318 	mrccs	3, 3, r0, cr7, cr8, {0}
    25e8:	05671c05 	strbeq	r1, [r7, #-3077]!	; 0xfffff3fb
    25ec:	18054a0e 	stmdane	r5, {r1, r2, r3, r9, fp, lr}
    25f0:	4d12052d 	cfldr32mi	mvfx0, [r2, #-180]	; 0xffffff4c
    25f4:	0f052f2e 	svceq	0x00052f2e
    25f8:	290e052f 	stmdbcs	lr, {r0, r1, r2, r3, r5, r8, sl}
    25fc:	2f060505 	svccs	0x00060505
    2600:	07051314 	smladeq	r5, r4, r3, r1
    2604:	05050106 	streq	r0, [r5, #-262]	; 0xfffffefa
    2608:	06132f06 	ldreq	r2, [r3], -r6, lsl #30
    260c:	3301052e 	movwcc	r0, #5422	; 0x152e
    2610:	2e290505 	cfsh64cs	mvdx0, mvdx9, #5
    2614:	00062705 	andeq	r2, r6, r5, lsl #14
    2618:	9ff40205 	svcls	0x00f40205
    261c:	051a0000 	ldreq	r0, [sl, #-0]
    2620:	27051305 	strcs	r1, [r5, -r5, lsl #6]
    2624:	18051106 	stmdane	r5, {r1, r2, r8, ip}
    2628:	2e05052f 	cfsh32cs	mvfx0, mvfx5, #31
    262c:	28054a2e 	stmdacs	r5, {r1, r2, r3, r5, r9, fp, lr}
    2630:	02050006 	andeq	r0, r5, #6, 0
    2634:	0000a00c 	andeq	sl, r0, ip
    2638:	13050516 	movwne	r0, #21782	; 0x5516
    263c:	11062805 	tstne	r6, r5, lsl #16
    2640:	052f1805 	streq	r1, [pc, #-2053]!	; 1e43 <__code_start__-0x61bd>
    2644:	4a2e2e05 	bmi	b8de60 <__bss_end__+0xb82f58>
    2648:	00062305 	andeq	r2, r6, r5, lsl #6
    264c:	a0240205 	eorge	r0, r4, r5, lsl #4
    2650:	05160000 	ldreq	r0, [r6, #-0]
    2654:	06051305 	streq	r1, [r5], -r5, lsl #6
    2658:	05016203 	streq	r6, [r1, #-515]	; 0xfffffdfd
    265c:	07051305 	streq	r1, [r5, -r5, lsl #6]
    2660:	06050106 	streq	r0, [r5], -r6, lsl #2
    2664:	05054906 	streq	r4, [r5, #-2310]	; 0xfffff6fa
    2668:	05131415 	ldreq	r1, [r3, #-1045]	; 0xfffffbeb
    266c:	17030623 	strne	r0, [r3, -r3, lsr #12]
    2670:	03220501 			; <UNDEFINED> instruction: 0x03220501
    2674:	1c052e69 	stcne	14, cr2, [r5], {105}	; 0x69
    2678:	0e052e82 	cdpeq	14, 0, cr2, cr5, cr2, {4}
    267c:	0605052e 	streq	r0, [r5], -lr, lsr #10
    2680:	06120530 			; <UNDEFINED> instruction: 0x06120530
    2684:	052d4b01 	streq	r4, [sp, #-2817]!	; 0xfffff4ff
    2688:	132f0605 			; <UNDEFINED> instruction: 0x132f0605
    268c:	06180513 			; <UNDEFINED> instruction: 0x06180513
    2690:	05017a03 	streq	r7, [r1, #-2563]	; 0xfffff5fd
    2694:	05054a0e 	streq	r4, [r5, #-2574]	; 0xfffff5f2
    2698:	01052e34 	tsteq	r5, r4, lsr lr
    269c:	052e1403 	streq	r1, [lr, #-1027]!	; 0xfffffbfd
    26a0:	2e6c0305 	cdpcs	3, 6, cr0, cr12, cr5, {0}
    26a4:	062b052e 	strteq	r0, [fp], -lr, lsr #10
    26a8:	7c020500 	cfstr32vc	mvfx0, [r2], {-0}
    26ac:	030000a0 	movweq	r0, #160	; 0xa0
    26b0:	05050117 	streq	r0, [r5, #-279]	; 0xfffffee9
    26b4:	06070513 			; <UNDEFINED> instruction: 0x06070513
    26b8:	03180501 	tsteq	r8, #4194304	; 0x400000
    26bc:	2b052e71 	blcs	14e088 <__bss_end__+0x143180>
    26c0:	052e0e03 	streq	r0, [lr, #-3587]!	; 0xfffff1fd
    26c4:	09052f07 	stmdbeq	r5, {r0, r1, r2, r8, r9, sl, fp, sp}
    26c8:	0d052f06 	stceq	15, cr2, [r5, #-24]	; 0xffffffe8
    26cc:	05016f03 	streq	r6, [r1, #-3843]	; 0xfffff0fd
    26d0:	2e061305 	cdpcs	3, 0, cr1, cr6, cr5, {0}
    26d4:	09052e2e 	stmdbeq	r5, {r1, r2, r3, r5, r9, sl, fp, sp}
    26d8:	01120306 	tsteq	r2, r6, lsl #6
    26dc:	72030d05 	andvc	r0, r3, #320	; 0x140
    26e0:	13050501 	movwne	r0, #21761	; 0x5501
    26e4:	052e2e06 	streq	r2, [lr, #-3590]!	; 0xfffff1fa
    26e8:	1003061d 	andne	r0, r3, sp, lsl r6
    26ec:	13050566 	movwne	r0, #21862	; 0x5566
    26f0:	11061d05 	tstne	r6, r5, lsl #26
    26f4:	0605052e 	streq	r0, [r5], -lr, lsr #10
    26f8:	0e051330 	mcreq	3, 0, r1, cr5, cr0, {1}
    26fc:	17051006 	strne	r1, [r5, -r6]
    2700:	02042e30 	andeq	r2, r4, #48, 28	; 0x300
    2704:	03063005 	movweq	r3, #24581	; 0x6005
    2708:	042e00dd 	strteq	r0, [lr], #-221	; 0xffffff23
    270c:	060e0501 	streq	r0, [lr], -r1, lsl #10
    2710:	017fa203 	cmneq	pc, r3, lsl #4
    2714:	052f2305 	streq	r2, [pc, #-773]!	; 2417 <__code_start__-0x5be9>
    2718:	06022f01 	streq	r2, [r2], -r1, lsl #30
    271c:	9e010100 	adflss	f0, f1, f0
    2720:	03000000 	movweq	r0, #0
    2724:	00005a00 	andeq	r5, r0, r0, lsl #20
    2728:	fb010200 	blx	42f32 <__bss_end__+0x3802a>
    272c:	01000d0e 	tsteq	r0, lr, lsl #26
    2730:	00010101 	andeq	r0, r1, r1, lsl #2
    2734:	00010000 	andeq	r0, r1, r0
    2738:	2f2e0100 	svccs	0x002e0100
    273c:	6362696c 	cmnvs	r2, #108, 18	; 0x1b0000
    2740:	73552f00 	cmpvc	r5, #0, 30
    2744:	2f737265 	svccs	0x00737265
    2748:	656c696d 	strbvs	r6, [ip, #-2413]!	; 0xfffff693
    274c:	6f532f73 	svcvs	0x00532f73
    2750:	65637275 	strbvs	r7, [r3, #-629]!	; 0xfffffd8b
    2754:	3273632f 	rsbscc	r6, r3, #-1140850688	; 0xbc000000
    2758:	786c3034 	stmdavc	ip!, {r2, r4, r5, ip, sp}^
    275c:	62696c2f 	rsbvs	r6, r9, #12032	; 0x2f00
    2760:	692f6970 	stmdbvs	pc!, {r4, r5, r6, r8, fp, sp, lr}	; <UNPREDICTABLE>
    2764:	756c636e 	strbvc	r6, [ip, #-878]!	; 0xfffffc92
    2768:	00006564 	andeq	r6, r0, r4, ror #10
    276c:	63747570 	cmnvs	r4, #112, 10	; 0x1c000000
    2770:	2e726168 	rpwcssz	f6, f2, #0.0
    2774:	00010063 	andeq	r0, r1, r3, rrx
    2778:	69707200 	ldmdbvs	r0!, {r9, ip, sp, lr}^
    277c:	0200682e 	andeq	r6, r0, #3014656	; 0x2e0000
    2780:	05000000 	streq	r0, [r0, #-0]
    2784:	02050024 	andeq	r0, r5, #36, 0	; 0x24
    2788:	0000a0d4 	ldrdeq	sl, [r0], -r4
    278c:	01260514 			; <UNDEFINED> instruction: 0x01260514
    2790:	01062405 	tsteq	r6, r5, lsl #8
    2794:	2e26052e 	cfsh64cs	mvdx0, mvdx6, #30
    2798:	2e063405 	cdpcs	4, 0, cr3, cr6, cr5, {0}
    279c:	01060105 	tsteq	r6, r5, lsl #2
    27a0:	4f061b05 	svcmi	0x00061b05
    27a4:	05130505 	ldreq	r0, [r3, #-1285]	; 0xfffffafb
    27a8:	05010611 	streq	r0, [r1, #-1553]	; 0xfffff9ef
    27ac:	23056701 	movwcs	r6, #22273	; 0x5701
    27b0:	05056706 	streq	r6, [r5, #-1798]	; 0xfffff8fa
    27b4:	06110513 			; <UNDEFINED> instruction: 0x06110513
    27b8:	4b010501 	blmi	43bc4 <__bss_end__+0x38cbc>
    27bc:	01000402 	tsteq	r0, r2, lsl #8
    27c0:	0000e201 	andeq	lr, r0, r1, lsl #4
    27c4:	59000300 	stmdbpl	r0, {r8, r9}
    27c8:	02000000 	andeq	r0, r0, #0, 0
    27cc:	0d0efb01 	vstreq	d15, [lr, #-4]
    27d0:	01010100 	mrseq	r0, (UNDEF: 17)
    27d4:	00000001 	andeq	r0, r0, r1
    27d8:	01000001 	tsteq	r0, r1
    27dc:	696c2f2e 	stmdbvs	ip!, {r1, r2, r3, r5, r8, r9, sl, fp, sp}^
    27e0:	2f006362 	svccs	0x00006362
    27e4:	72657355 	rsbvc	r7, r5, #1409286145	; 0x54000001
    27e8:	696d2f73 	stmdbvs	sp!, {r0, r1, r4, r5, r6, r8, r9, sl, fp, sp}^
    27ec:	2f73656c 	svccs	0x0073656c
    27f0:	72756f53 	rsbsvc	r6, r5, #332	; 0x14c
    27f4:	632f6563 			; <UNDEFINED> instruction: 0x632f6563
    27f8:	30343273 	eorscc	r3, r4, r3, ror r2
    27fc:	6c2f786c 	stcvs	8, cr7, [pc], #-432	; 2654 <__code_start__-0x59ac>
    2800:	69706269 	ldmdbvs	r0!, {r0, r3, r5, r6, r9, sp, lr}^
    2804:	636e692f 	cmnvs	lr, #770048	; 0xbc000
    2808:	6564756c 	strbvs	r7, [r4, #-1388]!	; 0xfffffa94
    280c:	74730000 	ldrbtvc	r0, [r3], #-0
    2810:	74616372 	strbtvc	r6, [r1], #-882	; 0xfffffc8e
    2814:	0100632e 	tsteq	r0, lr, lsr #6
    2818:	70720000 	rsbsvc	r0, r2, r0
    281c:	00682e69 	rsbeq	r2, r8, r9, ror #28
    2820:	00000002 	andeq	r0, r0, r2
    2824:	05002c05 	streq	r2, [r0, #-3077]	; 0xfffff3fb
    2828:	00a11002 	adceq	r1, r1, r2
    282c:	05051500 	streq	r1, [r5, #-1280]	; 0xfffffb00
    2830:	0b051313 	bleq	147484 <__bss_end__+0x13c57c>
    2834:	05051106 	streq	r1, [r5, #-262]	; 0xfffffefa
    2838:	01040200 	mrseq	r0, R12_usr
    283c:	02003006 	andeq	r3, r0, #6, 0
    2840:	05150104 	ldreq	r0, [r5, #-260]	; 0xfffffefc
    2844:	04020009 	streq	r0, [r2], #-9
    2848:	0b051301 	bleq	147454 <__bss_end__+0x13c54c>
    284c:	01040200 	mrseq	r0, R12_usr
    2850:	0005052f 	andeq	r0, r5, pc, lsr #10
    2854:	06010402 	streq	r0, [r1], -r2, lsl #8
    2858:	04020001 	streq	r0, [r2], #-1
    285c:	4e062e01 	cdpmi	14, 0, cr2, cr6, cr1, {0}
    2860:	01060805 	tsteq	r6, r5, lsl #16
    2864:	02000505 	andeq	r0, r0, #20971520	; 0x1400000
    2868:	2f060104 	svccs	0x00060104
    286c:	02000905 	andeq	r0, r0, #81920	; 0x14000
    2870:	05130104 	ldreq	r0, [r3, #-260]	; 0xfffffefc
    2874:	0402000b 	streq	r0, [r2], #-11
    2878:	05010601 	streq	r0, [r1, #-1537]	; 0xfffff9ff
    287c:	04020009 	streq	r0, [r2], #-9
    2880:	052f0601 	streq	r0, [pc, #-1537]!	; 2287 <__code_start__-0x5d79>
    2884:	04020005 	streq	r0, [r2], #-5
    2888:	05130601 	ldreq	r0, [r3, #-1537]	; 0xfffff9ff
    288c:	0402000f 	streq	r0, [r2], #-15
    2890:	0d052d01 	stceq	13, cr2, [r5, #-4]
    2894:	01040200 	mrseq	r0, R12_usr
    2898:	05052f06 	streq	r2, [r5, #-3846]	; 0xfffff0fa
    289c:	01040200 	mrseq	r0, R12_usr
    28a0:	04020106 	streq	r0, [r2], #-262	; 0xfffffefa
    28a4:	b2010100 	andlt	r0, r1, #0
    28a8:	03000000 	movweq	r0, #0
    28ac:	00005900 	andeq	r5, r0, r0, lsl #18
    28b0:	fb010200 	blx	430ba <__bss_end__+0x381b2>
    28b4:	01000d0e 	tsteq	r0, lr, lsl #26
    28b8:	00010101 	andeq	r0, r1, r1, lsl #2
    28bc:	00010000 	andeq	r0, r1, r0
    28c0:	2f2e0100 	svccs	0x002e0100
    28c4:	6362696c 	cmnvs	r2, #108, 18	; 0x1b0000
    28c8:	73552f00 	cmpvc	r5, #0, 30
    28cc:	2f737265 	svccs	0x00737265
    28d0:	656c696d 	strbvs	r6, [ip, #-2413]!	; 0xfffff693
    28d4:	6f532f73 	svcvs	0x00532f73
    28d8:	65637275 	strbvs	r7, [r3, #-629]!	; 0xfffffd8b
    28dc:	3273632f 	rsbscc	r6, r3, #-1140850688	; 0xbc000000
    28e0:	786c3034 	stmdavc	ip!, {r2, r4, r5, ip, sp}^
    28e4:	62696c2f 	rsbvs	r6, r9, #12032	; 0x2f00
    28e8:	692f6970 	stmdbvs	pc!, {r4, r5, r6, r8, fp, sp, lr}	; <UNPREDICTABLE>
    28ec:	756c636e 	strbvc	r6, [ip, #-878]!	; 0xfffffc92
    28f0:	00006564 	andeq	r6, r0, r4, ror #10
    28f4:	63727473 	cmnvs	r2, #1929379840	; 0x73000000
    28f8:	632e706d 			; <UNDEFINED> instruction: 0x632e706d
    28fc:	00000100 	andeq	r0, r0, r0, lsl #2
    2900:	2e697072 	mcrcs	0, 3, r7, cr9, cr2, {3}
    2904:	00020068 	andeq	r0, r2, r8, rrx
    2908:	2a050000 	bcs	142910 <__bss_end__+0x137a08>
    290c:	3c020500 	cfstr32cc	mvfx0, [r2], {-0}
    2910:	140000a1 	strne	r0, [r0], #-161	; 0xffffff5f
    2914:	05130905 	ldreq	r0, [r3, #-2309]	; 0xfffff6fb
    2918:	05010610 	streq	r0, [r1, #-1552]	; 0xfffff9f0
    291c:	052e060f 	streq	r0, [lr, #-1551]!	; 0xfffff9f1
    2920:	05820610 	streq	r0, [r2, #1552]	; 0x610
    2924:	11052e0f 	tstne	r5, pc, lsl #28
    2928:	01040200 	mrseq	r0, R12_usr
    292c:	1c054b06 			; <UNDEFINED> instruction: 0x1c054b06
    2930:	01040200 	mrseq	r0, R12_usr
    2934:	0f052d06 	svceq	0x00052d06
    2938:	01040200 	mrseq	r0, R12_usr
    293c:	13052e06 	movwne	r2, #24070	; 0x5e06
    2940:	01040200 	mrseq	r0, R12_usr
    2944:	09050106 	stmdbeq	r5, {r1, r2, r8}
    2948:	01054c06 	tsteq	r5, r6, lsl #24
    294c:	054a1306 	strbeq	r1, [sl, #-774]	; 0xfffffcfa
    2950:	052d0609 	streq	r0, [sp, #-1545]!	; 0xfffff9f7
    2954:	2e130601 	cfmsub32cs	mvax0, mvfx0, mvfx3, mvfx1
    2958:	01000202 	tsteq	r0, r2, lsl #4
    295c:	00009d01 	andeq	r9, r0, r1, lsl #26
    2960:	59000300 	stmdbpl	r0, {r8, r9}
    2964:	02000000 	andeq	r0, r0, #0, 0
    2968:	0d0efb01 	vstreq	d15, [lr, #-4]
    296c:	01010100 	mrseq	r0, (UNDEF: 17)
    2970:	00000001 	andeq	r0, r0, r1
    2974:	01000001 	tsteq	r0, r1
    2978:	696c2f2e 	stmdbvs	ip!, {r1, r2, r3, r5, r8, r9, sl, fp, sp}^
    297c:	2f006362 	svccs	0x00006362
    2980:	72657355 	rsbvc	r7, r5, #1409286145	; 0x54000001
    2984:	696d2f73 	stmdbvs	sp!, {r0, r1, r4, r5, r6, r8, r9, sl, fp, sp}^
    2988:	2f73656c 	svccs	0x0073656c
    298c:	72756f53 	rsbsvc	r6, r5, #332	; 0x14c
    2990:	632f6563 			; <UNDEFINED> instruction: 0x632f6563
    2994:	30343273 	eorscc	r3, r4, r3, ror r2
    2998:	6c2f786c 	stcvs	8, cr7, [pc], #-432	; 27f0 <__code_start__-0x5810>
    299c:	69706269 	ldmdbvs	r0!, {r0, r3, r5, r6, r9, sp, lr}^
    29a0:	636e692f 	cmnvs	lr, #770048	; 0xbc000
    29a4:	6564756c 	strbvs	r7, [r4, #-1388]!	; 0xfffffa94
    29a8:	74730000 	ldrbtvc	r0, [r3], #-0
    29ac:	79706372 	ldmdbvc	r0!, {r1, r4, r5, r6, r8, r9, sp, lr}^
    29b0:	0100632e 	tsteq	r0, lr, lsr #6
    29b4:	70720000 	rsbsvc	r0, r2, r0
    29b8:	00682e69 	rsbeq	r2, r8, r9, ror #28
    29bc:	00000002 	andeq	r0, r0, r2
    29c0:	05002a05 	streq	r2, [r0, #-2565]	; 0xfffff5fb
    29c4:	00a18002 	adceq	r8, r1, r2
    29c8:	05051400 	streq	r1, [r5, #-1024]	; 0xfffffc00
    29cc:	22051313 	andcs	r1, r5, #1275068416	; 0x4c000000
    29d0:	01040200 	mrseq	r0, R12_usr
    29d4:	000b052e 	andeq	r0, fp, lr, lsr #10
    29d8:	01010402 	tsteq	r1, r2, lsl #8
    29dc:	02001505 	andeq	r1, r0, #20971520	; 0x1400000
    29e0:	01060104 	tsteq	r6, r4, lsl #2
    29e4:	02000b05 	andeq	r0, r0, #5120	; 0x1400
    29e8:	052e0104 	streq	r0, [lr, #-260]!	; 0xfffffefc
    29ec:	04020013 	streq	r0, [r2], #-19	; 0xffffffed
    29f0:	0b052e01 	bleq	14e1fc <__bss_end__+0x1432f4>
    29f4:	01040200 	mrseq	r0, R12_usr
    29f8:	0004022e 	andeq	r0, r4, lr, lsr #4
    29fc:	00fd0101 	rscseq	r0, sp, r1, lsl #2
    2a00:	00030000 	andeq	r0, r3, r0
    2a04:	000000bf 	strheq	r0, [r0], -pc	; <UNPREDICTABLE>
    2a08:	0efb0102 	cdpeq	1, 15, cr0, cr11, cr2, {0}
    2a0c:	0101000d 	tsteq	r1, sp
    2a10:	00000101 	andeq	r0, r0, r1, lsl #2
    2a14:	00000100 	andeq	r0, r0, r0, lsl #2
    2a18:	6c2f2e01 	stcvs	14, cr2, [pc], #-4	; 2a1c <__code_start__-0x55e4>
    2a1c:	00636269 	rsbeq	r6, r3, r9, ror #4
    2a20:	6573552f 	ldrbvs	r5, [r3, #-1327]!	; 0xfffffad1
    2a24:	6d2f7372 	stcvs	3, cr7, [pc, #-456]!	; 2864 <__code_start__-0x579c>
    2a28:	73656c69 	cmnvc	r5, #26880	; 0x6900
    2a2c:	756f532f 	strbvc	r5, [pc, #-815]!	; 2705 <__code_start__-0x58fb>
    2a30:	2f656372 	svccs	0x00656372
    2a34:	34327363 	ldrtcc	r7, [r2], #-867	; 0xfffffc9d
    2a38:	2f786c30 	svccs	0x00786c30
    2a3c:	7062696c 	rsbvc	r6, r2, ip, ror #18
    2a40:	6e692f69 	cdpvs	15, 6, cr2, cr9, cr9, {3}
    2a44:	64756c63 	ldrbtvs	r6, [r5], #-3171	; 0xfffff39d
    2a48:	6f2f0065 	svcvs	0x002f0065
    2a4c:	682f7470 	stmdavs	pc!, {r4, r5, r6, sl, ip, sp, lr}	; <UNPREDICTABLE>
    2a50:	62656d6f 	rsbvs	r6, r5, #7104	; 0x1bc0
    2a54:	2f776572 	svccs	0x00776572
    2a58:	6c6c6543 	cfstr64vs	mvdx6, [ip], #-268	; 0xfffffef4
    2a5c:	612f7261 			; <UNDEFINED> instruction: 0x612f7261
    2a60:	6e2d6d72 	mcrvs	13, 1, r6, cr13, cr2, {3}
    2a64:	2d656e6f 	stclcs	14, cr6, [r5, #-444]!	; 0xfffffe44
    2a68:	69626165 	stmdbvs	r2!, {r0, r2, r5, r6, r8, sp, lr}^
    2a6c:	392f392d 	stmdbcc	pc!, {r0, r2, r3, r5, r8, fp, ip, sp}	; <UNPREDICTABLE>
    2a70:	3130322d 	teqcc	r0, sp, lsr #4
    2a74:	2d347139 	ldfcss	f7, [r4, #-228]!	; 0xffffff1c
    2a78:	30317363 	eorscc	r7, r1, r3, ror #6
    2a7c:	6c2f6537 	cfstr32vs	mvfx6, [pc], #-220	; 29a8 <__code_start__-0x5658>
    2a80:	672f6269 	strvs	r6, [pc, -r9, ror #4]!
    2a84:	612f6363 			; <UNDEFINED> instruction: 0x612f6363
    2a88:	6e2d6d72 	mcrvs	13, 1, r6, cr13, cr2, {3}
    2a8c:	2d656e6f 	stclcs	14, cr6, [r5, #-444]!	; 0xfffffe44
    2a90:	69626165 	stmdbvs	r2!, {r0, r2, r5, r6, r8, sp, lr}^
    2a94:	322e392f 	eorcc	r3, lr, #770048	; 0xbc000
    2a98:	692f312e 	stmdbvs	pc!, {r1, r2, r3, r5, r8, ip, sp}	; <UNPREDICTABLE>
    2a9c:	756c636e 	strbvc	r6, [ip, #-878]!	; 0xfffffc92
    2aa0:	00006564 	andeq	r6, r0, r4, ror #10
    2aa4:	6e727473 	mrcvs	4, 3, r7, cr2, cr3, {3}
    2aa8:	2e706d63 	cdpcs	13, 7, cr6, cr0, cr3, {3}
    2aac:	00010063 	andeq	r0, r1, r3, rrx
    2ab0:	69707200 	ldmdbvs	r0!, {r9, ip, sp, lr}^
    2ab4:	0200682e 	andeq	r6, r0, #3014656	; 0x2e0000
    2ab8:	74730000 	ldrbtvc	r0, [r3], #-0
    2abc:	66656464 	strbtvs	r6, [r5], -r4, ror #8
    2ac0:	0300682e 	movweq	r6, #2094	; 0x82e
    2ac4:	05000000 	streq	r0, [r0, #-0]
    2ac8:	02050039 	andeq	r0, r5, #57, 0	; 0x39
    2acc:	0000a198 	muleq	r0, r8, r1
    2ad0:	13050515 	movwne	r0, #21781	; 0x5515
    2ad4:	060a0513 			; <UNDEFINED> instruction: 0x060a0513
    2ad8:	2f0c052e 	svccs	0x000c052e
    2adc:	052e1305 	streq	r1, [lr, #-773]!	; 0xfffffcfb
    2ae0:	09052e0b 	stmdbeq	r5, {r0, r1, r3, r9, sl, fp, sp}
    2ae4:	0a054a06 	beq	155304 <__bss_end__+0x14a3fc>
    2ae8:	05010611 	streq	r0, [r1, #-1553]	; 0xfffff9ef
    2aec:	01054e0c 	tsteq	r5, ip, lsl #28
    2af0:	060d052f 	streq	r0, [sp], -pc, lsr #10
    2af4:	061b052b 	ldreq	r0, [fp], -fp, lsr #10
    2af8:	02022e01 	andeq	r2, r2, #1, 28
    2afc:	8a010100 	bhi	42f04 <__bss_end__+0x37ffc>
    2b00:	03000000 	movweq	r0, #0
    2b04:	00006e00 	andeq	r6, r0, r0, lsl #28
    2b08:	fb010200 	blx	43312 <__bss_end__+0x3840a>
    2b0c:	01000d0e 	tsteq	r0, lr, lsl #26
    2b10:	00010101 	andeq	r0, r1, r1, lsl #2
    2b14:	00010000 	andeq	r0, r1, r0
    2b18:	2f2e0100 	svccs	0x002e0100
    2b1c:	66617473 			; <UNDEFINED> instruction: 0x66617473
    2b20:	72732d66 	rsbsvc	r2, r3, #6528	; 0x1980
    2b24:	552f0063 	strpl	r0, [pc, #-99]!	; 2ac9 <__code_start__-0x5537>
    2b28:	73726573 	cmnvc	r2, #482344960	; 0x1cc00000
    2b2c:	6c696d2f 	stclvs	13, cr6, [r9], #-188	; 0xffffff44
    2b30:	532f7365 			; <UNDEFINED> instruction: 0x532f7365
    2b34:	6372756f 	cmnvs	r2, #465567744	; 0x1bc00000
    2b38:	73632f65 	cmnvc	r3, #404	; 0x194
    2b3c:	6c303432 	cfldrsvs	mvf3, [r0], #-200	; 0xffffff38
    2b40:	696c2f78 	stmdbvs	ip!, {r3, r4, r5, r6, r8, r9, sl, fp, sp}^
    2b44:	2f697062 	svccs	0x00697062
    2b48:	6c636e69 	stclvs	14, cr6, [r3], #-420	; 0xfffffe5c
    2b4c:	00656475 	rsbeq	r6, r5, r5, ror r4
    2b50:	66656400 	strbtvs	r6, [r5], -r0, lsl #8
    2b54:	746c7561 	strbtvc	r7, [ip], #-1377	; 0xfffffa9f
    2b58:	6265722d 	rsbvs	r7, r5, #-805306366	; 0xd0000002
    2b5c:	2d746f6f 	ldclcs	15, cr6, [r4, #-444]!	; 0xfffffe44
    2b60:	6c6c6163 	stfvse	f6, [ip], #-396	; 0xfffffe74
    2b64:	2e74756f 	cdpcs	5, 7, cr7, cr4, cr15, {3}
    2b68:	00010063 	andeq	r0, r1, r3, rrx
    2b6c:	69707200 	ldmdbvs	r0!, {r9, ip, sp, lr}^
    2b70:	0200682e 	andeq	r6, r0, #3014656	; 0x2e0000
    2b74:	05000000 	streq	r0, [r0, #-0]
    2b78:	0205001b 	andeq	r0, r5, #27, 0
    2b7c:	0000a1c8 	andeq	sl, r0, r8, asr #3
    2b80:	011c0514 	tsteq	ip, r4, lsl r5
    2b84:	01060105 	tsteq	r6, r5, lsl #2
    2b88:	01000202 	tsteq	r0, r2, lsl #4
    2b8c:	Address 0x0000000000002b8c is out of bounds.


Disassembly of section .debug_str:

00000000 <.debug_str>:
   0:	5f726468 	svcpl	0x00726468
   4:	6c620074 	stclvs	0, cr0, [r2], #-464	; 0xfffffe30
   8:	5f6b636f 	svcpl	0x006b636f
   c:	73006469 	movwvc	r6, #1129	; 0x469
  10:	65746174 	ldrbvs	r6, [r4, #-372]!	; 0xfffffe8c
  14:	66657200 	strbtvs	r7, [r5], -r0, lsl #4
  18:	696d5f73 	stmdbvs	sp!, {r0, r1, r4, r5, r6, r8, r9, sl, fp, ip, lr}^
  1c:	656c6464 	strbvs	r6, [ip, #-1124]!	; 0xfffffb9c
  20:	6f687300 	svcvs	0x00687300
  24:	69207472 	stmdbvs	r0!, {r1, r4, r5, r6, sl, ip, sp, lr}
  28:	7200746e 	andvc	r7, r0, #1845493760	; 0x6e000000
  2c:	705f6970 	subsvc	r6, pc, r0, ror r9	; <UNPREDICTABLE>
  30:	68637475 	stmdavs	r3!, {r0, r2, r4, r5, r6, sl, ip, sp, lr}^
  34:	63007261 	movwvs	r7, #609	; 0x261
  38:	6c6c616b 	stfvse	f6, [ip], #-428	; 0xfffffe54
  3c:	6600636f 	strvs	r6, [r0], -pc, ror #6
  40:	00656c69 	rsbeq	r6, r5, r9, ror #24
  44:	746e6975 	strbtvc	r6, [lr], #-2421	; 0xfffff68b
  48:	00745f38 	rsbseq	r5, r4, r8, lsr pc
  4c:	636e7566 	cmnvs	lr, #427819008	; 0x19800000
  50:	6e6f6c00 	cdpvs	12, 6, cr6, cr15, cr0, {0}
  54:	6f6c2067 	svcvs	0x006c2067
  58:	6920676e 	stmdbvs	r0!, {r1, r2, r3, r5, r6, r8, r9, sl, sp, lr}
  5c:	6300746e 	movwvs	r7, #1134	; 0x46e
  60:	6c625f6b 	stclvs	15, cr5, [r2], #-428	; 0xfffffe54
  64:	64695f6b 	strbtvs	r5, [r9], #-3947	; 0xfffff095
  68:	73657400 	cmnvc	r5, #0, 8
  6c:	322d7374 	eorcc	r7, sp, #116, 6	; 0xd0000001
  70:	702f302e 	eorvc	r3, pc, lr, lsr #32
  74:	32747261 	rsbscc	r7, r4, #268435462	; 0x10000006
  78:	7365742d 	cmnvc	r5, #754974720	; 0x2d000000
  7c:	6e2d3474 	mcrvs	4, 1, r3, cr13, cr4, {3}
  80:	656c2d6f 	strbvs	r2, [ip, #-3439]!	; 0xfffff291
  84:	632e6b61 			; <UNDEFINED> instruction: 0x632e6b61
  88:	5f6b6300 	svcpl	0x006b6300
  8c:	00726468 	rsbseq	r6, r2, r8, ror #8
  90:	55465f5f 	strbpl	r5, [r6, #-3935]	; 0xfffff0a1
  94:	4954434e 	ldmdbmi	r4, {r1, r2, r3, r6, r8, r9, lr}^
  98:	5f5f4e4f 	svcpl	0x005f4e4f
  9c:	6c6c6100 	stfvse	f6, [ip], #-0
  a0:	6c5f636f 	mrrcvs	3, 6, r6, pc, cr15	; <UNPREDICTABLE>
  a4:	6300636f 	movwvs	r6, #879	; 0x36f
  a8:	6e61656c 	cdpvs	5, 6, cr6, cr1, cr12, {3}
  ac:	6265725f 	rsbvs	r7, r5, #-268435451	; 0xf0000005
  b0:	00746f6f 	rsbseq	r6, r4, pc, ror #30
  b4:	765f6b63 	ldrbvc	r6, [pc], -r3, ror #22
  b8:	6f627265 	svcvs	0x00627265
  bc:	705f6573 	subsvc	r6, pc, r3, ror r5	; <UNPREDICTABLE>
  c0:	736e7500 	cmnvc	lr, #0, 10
  c4:	656e6769 	strbvs	r6, [lr, #-1897]!	; 0xfffff897
  c8:	68632064 	stmdavs	r3!, {r2, r5, r6, sp}^
  cc:	72007261 	andvc	r7, r0, #268435462	; 0x10000006
  d0:	5f736665 	svcpl	0x00736665
  d4:	72617473 	rsbvc	r7, r1, #1929379840	; 0x73000000
  d8:	552f0074 	strpl	r0, [pc, #-116]!	; 6c <__code_start__-0x7f94>
  dc:	73726573 	cmnvc	r2, #482344960	; 0x1cc00000
  e0:	6c696d2f 	stclvs	13, cr6, [r9], #-188	; 0xffffff44
  e4:	532f7365 			; <UNDEFINED> instruction: 0x532f7365
  e8:	6372756f 	cmnvs	r2, #465567744	; 0x1bc00000
  ec:	73632f65 	cmnvc	r3, #404	; 0x194
  f0:	6c303432 	cfldrsvs	mvf3, [r0], #-200	; 0xffffff38
  f4:	616c2f78 	smcvs	49912	; 0xc2f8
  f8:	352f7362 	strcc	r7, [pc, #-866]!	; fffffd9e <__bss_end__+0xffff4e96>
  fc:	6c616d2d 	stclvs	13, cr6, [r1], #-180	; 0xffffff4c
 100:	2b636f6c 	blcs	18dbeb8 <__bss_end__+0x18d0fb0>
 104:	632f6367 			; <UNDEFINED> instruction: 0x632f6367
 108:	0065646f 	rsbeq	r6, r5, pc, ror #8
 10c:	63656863 	cmnvs	r5, #6488064	; 0x630000
 110:	6f6e5f6b 	svcvs	0x006e5f6b
 114:	61656c5f 	cmnvs	r5, pc, asr ip
 118:	696c006b 	stmdbvs	ip!, {r0, r1, r3, r5, r6}^
 11c:	6f6e656e 	svcvs	0x006e656e
 120:	6e6f6c00 	cdpvs	12, 6, cr6, cr15, cr0, {0}
 124:	6f6c2067 	svcvs	0x006c2067
 128:	7520676e 	strvc	r6, [r0, #-1902]!	; 0xfffff892
 12c:	6769736e 	strbvs	r7, [r9, -lr, ror #6]!
 130:	2064656e 	rsbcs	r6, r4, lr, ror #10
 134:	00746e69 	rsbseq	r6, r4, r9, ror #28
 138:	746e6975 	strbtvc	r6, [lr], #-2421	; 0xfffff68b
 13c:	745f3233 	ldrbvc	r3, [pc], #-563	; 144 <__code_start__-0x7ebc>
 140:	6e697500 	cdpvs	5, 6, cr7, cr9, cr0, {0}
 144:	5f363174 	svcpl	0x00363174
 148:	6f6e0074 	svcvs	0x006e0074
 14c:	69616d74 	stmdbvs	r1!, {r2, r4, r5, r6, r8, sl, fp, sp, lr}^
 150:	6873006e 	ldmdavs	r3!, {r1, r2, r3, r5, r6}^
 154:	2074726f 	rsbscs	r7, r4, pc, ror #4
 158:	69736e75 	ldmdbvs	r3!, {r0, r2, r4, r5, r6, r9, sl, fp, sp, lr}^
 15c:	64656e67 	strbtvs	r6, [r5], #-3687	; 0xfffff199
 160:	746e6920 	strbtvc	r6, [lr], #-2336	; 0xfffff6e0
 164:	73657400 	cmnvc	r5, #0, 8
 168:	4e470074 	mcrmi	0, 2, r0, cr7, cr4, {3}
 16c:	39432055 	stmdbcc	r3, {r0, r2, r4, r6, sp}^
 170:	2e392039 	mrccs	0, 1, r2, cr9, cr9, {1}
 174:	20312e32 	eorscs	r2, r1, r2, lsr lr
 178:	39313032 	ldmdbcc	r1!, {r1, r4, r5, ip, sp}
 17c:	35323031 	ldrcc	r3, [r2, #-49]!	; 0xffffffcf
 180:	65722820 	ldrbvs	r2, [r2, #-2080]!	; 0xfffff7e0
 184:	7361656c 	cmnvc	r1, #108, 10	; 0x1b000000
 188:	5b202965 	blpl	80a724 <__bss_end__+0x7ff81c>
 18c:	2f4d5241 	svccs	0x004d5241
 190:	2d6d7261 	sfmcs	f7, 2, [sp, #-388]!	; 0xfffffe7c
 194:	72622d39 	rsbvc	r2, r2, #3648	; 0xe40
 198:	68636e61 	stmdavs	r3!, {r0, r5, r6, r9, sl, fp, sp, lr}^
 19c:	76657220 	strbtvc	r7, [r5], -r0, lsr #4
 1a0:	6f697369 	svcvs	0x00697369
 1a4:	3732206e 	ldrcc	r2, [r2, -lr, rrx]!
 1a8:	39393537 	ldmdbcc	r9!, {r0, r1, r2, r4, r5, r8, sl, ip, sp}
 1ac:	6d2d205d 	stcvs	0, cr2, [sp, #-372]!	; 0xfffffe8c
 1b0:	3d757063 	ldclcc	0, cr7, [r5, #-396]!	; 0xfffffe74
 1b4:	316d7261 	cmncc	sp, r1, ror #4
 1b8:	6a363731 	bvs	d8de84 <__bss_end__+0xd82f7c>
 1bc:	732d667a 			; <UNDEFINED> instruction: 0x732d667a
 1c0:	746d2d20 	strbtvc	r2, [sp], #-3360	; 0xfffff2e0
 1c4:	3d656e75 	stclcc	14, cr6, [r5, #-468]!	; 0xfffffe2c
 1c8:	316d7261 	cmncc	sp, r1, ror #4
 1cc:	6a363731 	bvs	d8de98 <__bss_end__+0xd82f90>
 1d0:	732d667a 			; <UNDEFINED> instruction: 0x732d667a
 1d4:	666d2d20 	strbtvs	r2, [sp], -r0, lsr #26
 1d8:	74616f6c 	strbtvc	r6, [r1], #-3948	; 0xfffff094
 1dc:	6962612d 	stmdbvs	r2!, {r0, r2, r3, r5, r8, sp, lr}^
 1e0:	666f733d 			; <UNDEFINED> instruction: 0x666f733d
 1e4:	6d2d2074 	stcvs	0, cr2, [sp, #-464]!	; 0xfffffe30
 1e8:	206d7261 	rsbcs	r7, sp, r1, ror #4
 1ec:	72616d2d 	rsbvc	r6, r1, #2880	; 0xb40
 1f0:	613d6863 	teqvs	sp, r3, ror #16
 1f4:	36766d72 			; <UNDEFINED> instruction: 0x36766d72
 1f8:	2d207a6b 	vstmdbcs	r0!, {s14-s120}
 1fc:	62646767 	rsbvs	r6, r4, #27000832	; 0x19c0000
 200:	664f2d20 	strbvs	r2, [pc], -r0, lsr #26
 204:	20747361 	rsbscs	r7, r4, r1, ror #6
 208:	6474732d 	ldrbtvs	r7, [r4], #-813	; 0xfffffcd3
 20c:	756e673d 	strbvc	r6, [lr, #-1853]!	; 0xfffff8c3
 210:	2d203939 			; <UNDEFINED> instruction: 0x2d203939
 214:	65726666 	ldrbvs	r6, [r2, #-1638]!	; 0xfffff99a
 218:	61747365 	cmnvs	r4, r5, ror #6
 21c:	6e69646e 	cdpvs	4, 6, cr6, cr9, cr14, {3}
 220:	626e0067 	rsbvs	r0, lr, #103, 0	; 0x67
 224:	73657479 	cmnvc	r5, #2030043136	; 0x79000000
 228:	6c6c615f 	stfvse	f6, [ip], #-380	; 0xfffffe84
 22c:	6d00636f 	stcvs	3, cr6, [r0, #-444]	; 0xfffffe44
 230:	65736d65 	ldrbvs	r6, [r3, #-3429]!	; 0xfffff29b
 234:	72700074 	rsbsvc	r0, r0, #116, 0	; 0x74
 238:	73007665 	movwvc	r7, #1637	; 0x665
 23c:	6c5f6372 	mrrcvs	3, 7, r6, pc, cr2	; <UNPREDICTABLE>
 240:	6d5f636f 	ldclvs	3, cr6, [pc, #-444]	; 8c <__code_start__-0x7f74>
 244:	656e006b 	strbvs	r0, [lr, #-107]!	; 0xffffff95
 248:	73007478 	movwvc	r7, #1144	; 0x478
 24c:	6c5f6372 	mrrcvs	3, 7, r6, pc, cr2	; <UNPREDICTABLE>
 250:	745f636f 	ldrbvc	r6, [pc], #-879	; 258 <__code_start__-0x7da8>
 254:	5f6b6300 	svcpl	0x006b6300
 258:	5f727470 	svcpl	0x00727470
 25c:	625f6e69 	subsvs	r6, pc, #1680	; 0x690
 260:	6b636f6c 	blvs	18dc018 <__bss_end__+0x18d1110>
 264:	45524600 	ldrbmi	r4, [r2, #-1536]	; 0xfffffa00
 268:	52004445 	andpl	r4, r0, #1157627904	; 0x45000000
 26c:	4f5a4445 	svcmi	0x005a4445
 270:	565f454e 	ldrbpl	r4, [pc], -lr, asr #10
 274:	52004c41 	andpl	r4, r0, #16640	; 0x4100
 278:	4f5a4445 	svcmi	0x005a4445
 27c:	4e5f454e 	cdpmi	5, 5, cr4, cr15, cr14, {2}
 280:	45545942 	ldrbmi	r5, [r4, #-2370]	; 0xfffff6be
 284:	6b630053 	blvs	18c03d8 <__bss_end__+0x18b54d0>
 288:	7269665f 	rsbvc	r6, r9, #99614720	; 0x5f00000
 28c:	685f7473 	ldmdavs	pc, {r0, r1, r4, r5, r6, sl, ip, sp, lr}^	; <UNPREDICTABLE>
 290:	63007264 	movwvs	r7, #612	; 0x264
 294:	6572666b 	ldrbvs	r6, [r2, #-1643]!	; 0xfffff995
 298:	6c610065 	stclvs	0, cr0, [r1], #-404	; 0xfffffe6c
 29c:	5f636f6c 	svcpl	0x00636f6c
 2a0:	7473696c 	ldrbtvc	r6, [r3], #-2412	; 0xfffff694
 2a4:	73696c00 	cmnvc	r9, #0, 24
 2a8:	65725f74 	ldrbvs	r5, [r2, #-3956]!	; 0xfffff08c
 2ac:	65766f6d 	ldrbvs	r6, [r6, #-3949]!	; 0xfffff093
 2b0:	5f6b6300 	svcpl	0x006b6300
 2b4:	5f727470 	svcpl	0x00727470
 2b8:	615f7369 	cmpvs	pc, r9, ror #6
 2bc:	636f6c6c 	cmnvs	pc, #108, 24	; 0x6c00
 2c0:	63006465 	movwvs	r6, #1125	; 0x465
 2c4:	656e5f6b 	strbvs	r5, [lr, #-3947]!	; 0xfffff095
 2c8:	685f7478 	ldmdavs	pc, {r3, r4, r5, r6, sl, ip, sp, lr}^	; <UNPREDICTABLE>
 2cc:	63007264 	movwvs	r7, #612	; 0x264
 2d0:	6c6c616b 	stfvse	f6, [ip], #-428	; 0xfffffe54
 2d4:	632e636f 			; <UNDEFINED> instruction: 0x632e636f
 2d8:	554e4700 	strbpl	r4, [lr, #-1792]	; 0xfffff900
 2dc:	39394320 	ldmdbcc	r9!, {r5, r8, r9, lr}
 2e0:	322e3920 	eorcc	r3, lr, #32, 18	; 0x80000
 2e4:	3220312e 	eorcc	r3, r0, #-2147483637	; 0x8000000b
 2e8:	31393130 	teqcc	r9, r0, lsr r1
 2ec:	20353230 	eorscs	r3, r5, r0, lsr r2
 2f0:	6c657228 	sfmvs	f7, 2, [r5], #-160	; 0xffffff60
 2f4:	65736165 	ldrbvs	r6, [r3, #-357]!	; 0xfffffe9b
 2f8:	415b2029 	cmpmi	fp, r9, lsr #32
 2fc:	612f4d52 			; <UNDEFINED> instruction: 0x612f4d52
 300:	392d6d72 	pushcc	{r1, r4, r5, r6, r8, sl, fp, sp, lr}
 304:	6172622d 	cmnvs	r2, sp, lsr #4
 308:	2068636e 	rsbcs	r6, r8, lr, ror #6
 30c:	69766572 	ldmdbvs	r6!, {r1, r4, r5, r6, r8, sl, sp, lr}^
 310:	6e6f6973 			; <UNDEFINED> instruction: 0x6e6f6973
 314:	37373220 	ldrcc	r3, [r7, -r0, lsr #4]!
 318:	5d393935 			; <UNDEFINED> instruction: 0x5d393935
 31c:	636d2d20 	cmnvs	sp, #32, 26	; 0x800
 320:	613d7570 	teqvs	sp, r0, ror r5
 324:	31316d72 	teqcc	r1, r2, ror sp
 328:	7a6a3637 	bvc	1a8dc0c <__bss_end__+0x1a82d04>
 32c:	20732d66 	rsbscs	r2, r3, r6, ror #26
 330:	75746d2d 	ldrbvc	r6, [r4, #-3373]!	; 0xfffff2d3
 334:	613d656e 	teqvs	sp, lr, ror #10
 338:	31316d72 	teqcc	r1, r2, ror sp
 33c:	7a6a3637 	bvc	1a8dc20 <__bss_end__+0x1a82d18>
 340:	20732d66 	rsbscs	r2, r3, r6, ror #26
 344:	6c666d2d 	stclvs	13, cr6, [r6], #-180	; 0xffffff4c
 348:	2d74616f 	ldfcse	f6, [r4, #-444]!	; 0xfffffe44
 34c:	3d696261 	sfmcc	f6, 2, [r9, #-388]!	; 0xfffffe7c
 350:	74666f73 	strbtvc	r6, [r6], #-3955	; 0xfffff08d
 354:	616d2d20 	cmnvs	sp, r0, lsr #26
 358:	2d206d72 	stccs	13, cr6, [r0, #-456]!	; 0xfffffe38
 35c:	6372616d 	cmnvs	r2, #1073741851	; 0x4000001b
 360:	72613d68 	rsbvc	r3, r1, #104, 26	; 0x1a00
 364:	6b36766d 	blvs	d9dd20 <__bss_end__+0xd92e18>
 368:	672d207a 			; <UNDEFINED> instruction: 0x672d207a
 36c:	20626467 	rsbcs	r6, r2, r7, ror #8
 370:	20674f2d 	rsbcs	r4, r7, sp, lsr #30
 374:	6474732d 	ldrbtvs	r7, [r4], #-813	; 0xfffffcd3
 378:	756e673d 	strbvc	r6, [lr, #-1853]!	; 0xfffff8c3
 37c:	2d203939 			; <UNDEFINED> instruction: 0x2d203939
 380:	65726666 	ldrbvs	r6, [r2, #-1638]!	; 0xfffff99a
 384:	61747365 	cmnvs	r4, r5, ror #6
 388:	6e69646e 	cdpvs	4, 6, cr6, cr9, cr14, {3}
 38c:	4c410067 	mcrrmi	0, 6, r0, r1, cr7
 390:	45434f4c 	strbmi	r4, [r3, #-3916]	; 0xfffff0b4
 394:	552f0044 	strpl	r0, [pc, #-68]!	; 358 <__code_start__-0x7ca8>
 398:	73726573 	cmnvc	r2, #482344960	; 0x1cc00000
 39c:	6c696d2f 	stclvs	13, cr6, [r9], #-188	; 0xffffff44
 3a0:	532f7365 			; <UNDEFINED> instruction: 0x532f7365
 3a4:	6372756f 	cmnvs	r2, #465567744	; 0x1bc00000
 3a8:	73632f65 	cmnvc	r3, #404	; 0x194
 3ac:	6c303432 	cfldrsvs	mvf3, [r0], #-200	; 0xffffff38
 3b0:	616c2f78 	smcvs	49912	; 0xc2f8
 3b4:	362f7362 	strtcc	r7, [pc], -r2, ror #6
 3b8:	6265642d 	rsbvs	r6, r5, #754974720	; 0x2d000000
 3bc:	612d6775 			; <UNDEFINED> instruction: 0x612d6775
 3c0:	636f6c6c 	cmnvs	pc, #108, 24	; 0x6c00
 3c4:	646f632f 	strbtvs	r6, [pc], #-815	; 3cc <__code_start__-0x7c34>
 3c8:	6b630065 	blvs	18c0564 <__bss_end__+0x18b565c>
 3cc:	7264685f 	rsbvc	r6, r4, #6225920	; 0x5f0000
 3d0:	6174735f 	cmnvs	r4, pc, asr r3
 3d4:	63007472 	movwvs	r7, #1138	; 0x472
 3d8:	64685f6b 	strbtvs	r5, [r8], #-3947	; 0xfffff095
 3dc:	6e655f72 	mcrvs	15, 3, r5, cr5, cr2, {3}
 3e0:	6b630064 	blvs	18c0578 <__bss_end__+0x18b5670>
 3e4:	79626e5f 	stmdbvc	r2!, {r0, r1, r2, r3, r4, r6, r9, sl, fp, sp, lr}^
 3e8:	00736574 	rsbseq	r6, r3, r4, ror r5
 3ec:	6d5f726b 	lfmvs	f7, 2, [pc, #-428]	; 248 <__code_start__-0x7db8>
 3f0:	6f6c6c61 	svcvs	0x006c6c61
 3f4:	65680063 	strbvs	r0, [r8, #-99]!	; 0xffffff9d
 3f8:	72656461 	rsbvc	r6, r5, #1627389952	; 0x61000000
 3fc:	65727000 	ldrbvs	r7, [r2, #-0]!
 400:	61007076 	tstvs	r0, r6, ror r0
 404:	6e67696c 	vnmulvs.f16	s13, s14, s25	; <UNPREDICTABLE>
 408:	5f726b00 	svcpl	0x00726b00
 40c:	65657266 	strbvs	r7, [r5, #-614]!	; 0xfffffd9a
 410:	65726600 	ldrbvs	r6, [r2, #-1536]!	; 0xfffffa00
 414:	6e007065 	cdpvs	0, 0, cr7, cr0, cr5, {3}
 418:	74696e75 	strbtvc	r6, [r9], #-3701	; 0xfffff18b
 41c:	726b0073 	rsbvc	r0, fp, #115, 0	; 0x73
 420:	6c616d2d 	stclvs	13, cr6, [r1], #-180	; 0xffffff4c
 424:	2e636f6c 	cdpcs	15, 6, cr6, cr3, cr12, {3}
 428:	6f640063 	svcvs	0x00640063
 42c:	656c6275 	strbvs	r6, [ip, #-629]!	; 0xfffffd8b
 430:	73616200 	cmnvc	r1, #0, 4
 434:	62730065 	rsbsvs	r0, r3, #101, 0	; 0x65
 438:	6d006b72 	vstrvs	d6, [r0, #-456]	; 0xfffffe38
 43c:	6365726f 	cmnvs	r5, #-268435450	; 0xf0000006
 440:	0065726f 	rsbeq	r7, r5, pc, ror #4
 444:	657a6973 	ldrbvs	r6, [sl, #-2419]!	; 0xfffff68d
 448:	61654800 	cmnvs	r5, r0, lsl #16
 44c:	00726564 	rsbseq	r6, r2, r4, ror #10
 450:	63617473 	cmnvs	r1, #1929379840	; 0x73000000
 454:	6f745f6b 	svcvs	0x00745f6b
 458:	616d0070 	smcvs	53248	; 0xd000
 45c:	615f6b72 	cmpvs	pc, r2, ror fp	; <UNPREDICTABLE>
 460:	69006c6c 	stmdbvs	r0, {r2, r3, r5, r6, sl, fp, sp, lr}
 464:	656c706d 	strbvs	r7, [ip, #-109]!	; 0xffffff93
 468:	746e656d 	strbtvc	r6, [lr], #-1389	; 0xfffffa93
 46c:	6968745f 	stmdbvs	r8!, {r0, r1, r2, r3, r4, r6, sl, ip, sp, lr}^
 470:	5f5f0073 	svcpl	0x005f0073
 474:	5f737362 	svcpl	0x00737362
 478:	72617473 	rsbvc	r7, r1, #1929379840	; 0x73000000
 47c:	005f5f74 	subseq	r5, pc, r4, ror pc	; <UNPREDICTABLE>
 480:	6f6c626e 	svcvs	0x006c626e
 484:	00736b63 	rsbseq	r6, r3, r3, ror #22
 488:	74696e69 	strbtvc	r6, [r9], #-3689	; 0xfffff197
 48c:	6e00705f 	mcrvs	0, 0, r7, cr0, cr15, {2}
 490:	65747962 	ldrbvs	r7, [r4, #-2402]!	; 0xfffff69e
 494:	72665f73 	rsbvc	r5, r6, #460	; 0x1cc
 498:	00646565 	rsbeq	r6, r4, r5, ror #10
 49c:	5f646c6f 	svcpl	0x00646c6f
 4a0:	6b72616d 	blvs	1c98a5c <__bss_end__+0x1c8db54>
 4a4:	5f6b6300 	svcpl	0x006b6300
 4a8:	646e6966 	strbtvs	r6, [lr], #-2406	; 0xfffff69a
 4ac:	61656c5f 	cmnvs	r5, pc, asr ip
 4b0:	6d00736b 	stcvs	3, cr7, [r0, #-428]	; 0xfffffe54
 4b4:	65627961 	strbvs	r7, [r2, #-2401]!	; 0xfffff69f
 4b8:	7272655f 	rsbsvc	r6, r2, #398458880	; 0x17c00000
 4bc:	0073726f 	rsbseq	r7, r3, pc, ror #4
 4c0:	675f6b63 	ldrbvs	r6, [pc, -r3, ror #22]
 4c4:	75640063 	strbvc	r0, [r4, #-99]!	; 0xffffff9d
 4c8:	725f706d 	subsvc	r7, pc, #109, 0	; 0x6d
 4cc:	00736765 	rsbseq	r6, r3, r5, ror #14
 4d0:	61656c6e 	cmnvs	r5, lr, ror #24
 4d4:	6900736b 	stmdbvs	r0, {r0, r1, r3, r5, r6, r8, r9, ip, sp, lr}
 4d8:	6572636e 	ldrbvs	r6, [r2, #-878]!	; 0xfffffc92
 4dc:	746e656d 	strbtvc	r6, [lr], #-1389	; 0xfffffa93
 4e0:	645f5f00 	ldrbvs	r5, [pc], #-3840	; 4e8 <__code_start__-0x7b18>
 4e4:	5f617461 	svcpl	0x00617461
 4e8:	5f646e65 	svcpl	0x00646e65
 4ec:	7369005f 	cmnvc	r9, #95, 0	; 0x5f
 4f0:	7274705f 	rsbsvc	r7, r4, #95, 0	; 0x5f
 4f4:	72666e00 	rsbvc	r6, r6, #0, 28
 4f8:	00646565 	rsbeq	r6, r4, r5, ror #10
 4fc:	685f6e69 	ldmdavs	pc, {r0, r3, r5, r6, r9, sl, fp, sp, lr}^	; <UNPREDICTABLE>
 500:	00706165 	rsbseq	r6, r0, r5, ror #2
 504:	6d656e6f 	stclvs	14, cr6, [r5, #-444]!	; 0xfffffe44
 508:	6b630062 	blvs	18c0698 <__bss_end__+0x18b5790>
 50c:	2e63672d 	cdpcs	7, 6, cr6, cr3, cr13, {1}
 510:	68630063 	stmdavs	r3!, {r0, r1, r5, r6}^
 514:	5f6b6365 	svcpl	0x006b6365
 518:	756f6873 	strbvc	r6, [pc, #-2163]!	; fffffcad <__bss_end__+0xffff4da5>
 51c:	6c5f646c 	cfldrdvs	mvd6, [pc], {108}	; 0x6c
 520:	006b6165 	rsbeq	r6, fp, r5, ror #2
 524:	73625f5f 	cmnvc	r2, #380	; 0x17c
 528:	6e655f73 	mcrvs	15, 3, r5, cr5, cr3, {3}
 52c:	005f5f64 	subseq	r5, pc, r4, ror #30
 530:	6c616d6b 	stclvs	13, cr6, [r1], #-428	; 0xfffffe54
 534:	00636f6c 	rsbeq	r6, r3, ip, ror #30
 538:	6c616d6b 	stclvs	13, cr6, [r1], #-428	; 0xfffffe54
 53c:	5f636f6c 	svcpl	0x00636f6c
 540:	74696e69 	strbtvc	r6, [r9], #-3689	; 0xfffff197
 544:	7465735f 	strbtvc	r7, [r5], #-863	; 0xfffffca1
 548:	6174735f 	cmnvs	r4, pc, asr r3
 54c:	73007472 	movwvc	r7, #1138	; 0x472
 550:	70656577 	rsbvc	r6, r5, r7, ror r5
 554:	61656c5f 	cmnvs	r5, pc, asr ip
 558:	5f5f006b 	svcpl	0x005f006b
 55c:	61746164 	cmnvs	r4, r4, ror #2
 560:	6174735f 	cmnvs	r4, pc, asr r3
 564:	5f5f7472 	svcpl	0x005f7472
 568:	65777300 	ldrbvs	r7, [r7, #-768]!	; 0xfffffd00
 56c:	665f7065 	ldrbvs	r7, [pc], -r5, rrx
 570:	00656572 	rsbeq	r6, r5, r2, ror r5
 574:	6e726177 	mrcvs	1, 3, r6, cr2, cr7, {3}
 578:	5f6f6e5f 	svcpl	0x006f6e5f
 57c:	72617473 	rsbvc	r7, r1, #1929379840	; 0x73000000
 580:	65725f74 	ldrbvs	r5, [r2, #-3956]!	; 0xfffff08c
 584:	00705f66 	rsbseq	r5, r0, r6, ror #30
 588:	657a6973 	ldrbvs	r6, [sl, #-2419]!	; 0xfffff68d
 58c:	2e00745f 	cfmvsrcs	mvf0, r7
 590:	62696c2f 	rsbvs	r6, r9, #12032	; 0x2f00
 594:	656d2f63 	strbvs	r2, [sp, #-3939]!	; 0xfffff09d
 598:	7465736d 	strbtvc	r7, [r5], #-877	; 0xfffffc93
 59c:	2f00632e 	svccs	0x0000632e
 5a0:	72657355 	rsbvc	r7, r5, #1409286145	; 0x54000001
 5a4:	696d2f73 	stmdbvs	sp!, {r0, r1, r4, r5, r6, r8, r9, sl, fp, sp}^
 5a8:	2f73656c 	svccs	0x0073656c
 5ac:	72756f53 	rsbsvc	r6, r5, #332	; 0x14c
 5b0:	632f6563 			; <UNDEFINED> instruction: 0x632f6563
 5b4:	30343273 	eorscc	r3, r4, r3, ror r2
 5b8:	6c2f786c 	stcvs	8, cr7, [pc], #-432	; 410 <__code_start__-0x7bf0>
 5bc:	69706269 	ldmdbvs	r0!, {r0, r3, r5, r6, r9, sp, lr}^
 5c0:	67726100 	ldrbvs	r6, [r2, -r0, lsl #2]!
 5c4:	61760073 	cmnvs	r6, r3, ror r0
 5c8:	6972705f 	ldmdbvs	r2!, {r0, r1, r2, r3, r4, r6, ip, sp, lr}^
 5cc:	006b746e 	rsbeq	r7, fp, lr, ror #8
 5d0:	6e675f5f 	mcrvs	15, 3, r5, cr7, cr15, {2}
 5d4:	765f6375 			; <UNDEFINED> instruction: 0x765f6375
 5d8:	696c5f61 	stmdbvs	ip!, {r0, r5, r6, r8, r9, sl, fp, ip, lr}^
 5dc:	5f007473 	svcpl	0x00007473
 5e0:	0070615f 	rsbseq	r6, r0, pc, asr r1
 5e4:	696c2f2e 	stmdbvs	ip!, {r1, r2, r3, r5, r8, r9, sl, fp, sp}^
 5e8:	702f6362 	eorvc	r6, pc, r2, ror #6
 5ec:	746e6972 	strbtvc	r6, [lr], #-2418	; 0xfffff68e
 5f0:	00632e6b 	rsbeq	r2, r3, fp, ror #28
 5f4:	61765f5f 	cmnvs	r6, pc, asr pc
 5f8:	73696c5f 	cmnvc	r9, #24320	; 0x5f00
 5fc:	6e690074 	mcrvs	0, 3, r0, cr9, cr4, {3}
 600:	6e726574 	mrcvs	5, 3, r6, cr2, cr4, {3}
 604:	705f6c61 	subsvc	r6, pc, r1, ror #24
 608:	006b7475 	rsbeq	r7, fp, r5, ror r4
 60c:	696c2f2e 	stmdbvs	ip!, {r1, r2, r3, r5, r8, r9, sl, fp, sp}^
 610:	702f6362 	eorvc	r6, pc, r2, ror #6
 614:	2e6b7475 	mcrcs	4, 3, r7, cr11, cr5, {3}
 618:	73690063 	cmnvc	r9, #99, 0	; 0x63
 61c:	69676964 	stmdbvs	r7!, {r2, r5, r6, r8, fp, sp, lr}^
 620:	69750074 	ldmdbvs	r5!, {r2, r4, r5, r6}^
 624:	3436746e 	ldrtcc	r7, [r6], #-1134	; 0xfffffb92
 628:	2e00745f 	cfmvsrcs	mvf0, r7
 62c:	62696c2f 	rsbvs	r6, r9, #12032	; 0x2f00
 630:	61762f63 	cmnvs	r6, r3, ror #30
 634:	6972702d 	ldmdbvs	r2!, {r0, r2, r3, r5, ip, sp, lr}^
 638:	2e6b746e 	cdpcs	4, 6, cr7, cr11, cr14, {3}
 63c:	5f5f0063 	svcpl	0x005f0063
 640:	65646f63 	strbvs	r6, [r4, #-3939]!	; 0xfffff09d
 644:	6174735f 	cmnvs	r4, pc, asr r3
 648:	5f5f7472 	svcpl	0x005f7472
 64c:	64697700 	strbtvs	r7, [r9], #-1792	; 0xfffff900
 650:	70006874 	andvc	r6, r0, r4, ror r8
 654:	5f637475 	svcpl	0x00637475
 658:	5f007066 	svcpl	0x00007066
 65c:	6165685f 	cmnvs	r5, pc, asr r8
 660:	74735f70 	ldrbtvc	r5, [r3], #-3952	; 0xfffff090
 664:	5f747261 	svcpl	0x00747261
 668:	7072005f 	rsbsvc	r0, r2, pc, asr r0
 66c:	65735f69 	ldrbvs	r5, [r3, #-3945]!	; 0xfffff097
 670:	756f5f74 	strbvc	r5, [pc, #-3956]!	; fffff704 <__bss_end__+0xffff47fc>
 674:	74757074 	ldrbtvc	r7, [r5], #-116	; 0xffffff8c
 678:	746d6600 	strbtvc	r6, [sp], #-1536	; 0xfffffa00
 67c:	6174735f 	cmnvs	r4, pc, asr r3
 680:	73007472 	movwvc	r7, #1138	; 0x472
 684:	61637274 	smcvs	14116	; 0x3724
 688:	74730074 	ldrbtvc	r0, [r3], #-116	; 0xffffff8c
 68c:	79706372 	ldmdbvc	r0!, {r1, r4, r5, r6, r8, r9, sp, lr}^
 690:	67656e00 	strbvs	r6, [r5, -r0, lsl #28]!
 694:	5f00705f 	svcpl	0x0000705f
 698:	646f635f 	strbtvs	r6, [pc], #-863	; 6a0 <__code_start__-0x7960>
 69c:	6e655f65 	cdpvs	15, 6, cr5, cr5, cr5, {3}
 6a0:	005f5f64 	subseq	r5, pc, r4, ror #30
 6a4:	74696d65 	strbtvc	r6, [r9], #-3429	; 0xfffff29b
 6a8:	76657200 	strbtvc	r7, [r5], -r0, lsl #4
 6ac:	65737265 	ldrbvs	r7, [r3, #-613]!	; 0xfffffd9b
 6b0:	72747300 	rsbsvc	r7, r4, #0, 6
 6b4:	00706d63 	rsbseq	r6, r0, r3, ror #26
 6b8:	73747570 	cmnvc	r4, #112, 10	; 0x1c000000
 6bc:	0070665f 	rsbseq	r6, r0, pc, asr r6
 6c0:	72705f5f 	rsbsvc	r5, r0, #380	; 0x17c
 6c4:	655f676f 	ldrbvs	r6, [pc, #-1903]	; ffffff5d <__bss_end__+0xffff5055>
 6c8:	5f5f646e 	svcpl	0x005f646e
 6cc:	6d756e00 	ldclvs	14, cr6, [r5, #-0]
 6d0:	74730031 	ldrbtvc	r0, [r3], #-49	; 0xffffffcf
 6d4:	6d636e72 	stclvs	14, cr6, [r3, #-456]!	; 0xfffffe38
 6d8:	69730070 	ldmdbvs	r3!, {r4, r5, r6}^
 6dc:	64656e67 	strbtvs	r6, [r5], #-3687	; 0xfffff199
 6e0:	7200705f 	andvc	r7, r0, #95, 0	; 0x5f
 6e4:	725f6970 	subsvc	r6, pc, #112, 18	; 0x1c0000
 6e8:	6f6f6265 	svcvs	0x006f6265
 6ec:	65640074 	strbvs	r0, [r4, #-116]!	; 0xffffff8c
 6f0:	5f79616c 	svcpl	0x0079616c
 6f4:	2e00736d 	cdpcs	3, 0, cr7, cr0, cr13, {3}
 6f8:	6174732f 	cmnvs	r4, pc, lsr #6
 6fc:	732d6666 			; <UNDEFINED> instruction: 0x732d6666
 700:	632f6372 			; <UNDEFINED> instruction: 0x632f6372
 704:	6e61656c 	cdpvs	5, 6, cr6, cr1, cr12, {3}
 708:	6265722d 	rsbvs	r7, r5, #-805306366	; 0xd0000002
 70c:	2e746f6f 	cdpcs	15, 7, cr6, cr4, cr15, {3}
 710:	61750063 	cmnvs	r5, r3, rrx
 714:	665f7472 			; <UNDEFINED> instruction: 0x665f7472
 718:	6873756c 	ldmdavs	r3!, {r2, r3, r5, r6, r8, sl, ip, sp, lr}^
 71c:	0078745f 	rsbseq	r7, r8, pc, asr r4
 720:	7473635f 	ldrbtvc	r6, [r3], #-863	; 0xfffffca1
 724:	00747261 	rsbseq	r7, r4, r1, ror #4
 728:	5f737362 	svcpl	0x00737362
 72c:	00646e65 	rsbeq	r6, r4, r5, ror #28
 730:	74726175 	ldrbtvc	r6, [r2], #-373	; 0xfffffe8b
 734:	696e695f 	stmdbvs	lr!, {r0, r1, r2, r3, r4, r6, r8, fp, sp, lr}^
 738:	75630074 	strbvc	r0, [r3, #-116]!	; 0xffffff8c
 73c:	6d6f7473 	cfstrdvs	mvd7, [pc, #-460]!	; 578 <__code_start__-0x7a88>
 740:	616f6c5f 	cmnvs	pc, pc, asr ip	; <UNPREDICTABLE>
 744:	00726564 	rsbseq	r6, r2, r4, ror #10
 748:	74732f2e 	ldrbtvc	r2, [r3], #-3886	; 0xfffff0d2
 74c:	2d666661 	stclcs	6, cr6, [r6, #-388]!	; 0xfffffe7c
 750:	2f637273 	svccs	0x00637273
 754:	61747363 	cmnvs	r4, r3, ror #6
 758:	632e7472 			; <UNDEFINED> instruction: 0x632e7472
 75c:	732f2e00 			; <UNDEFINED> instruction: 0x732f2e00
 760:	66666174 			; <UNDEFINED> instruction: 0x66666174
 764:	6372732d 	cmnvs	r2, #-1275068416	; 0xb4000000
 768:	7375632f 	cmnvc	r5, #-1140850688	; 0xbc000000
 76c:	2d6d6f74 	stclcs	15, cr6, [sp, #-464]!	; 0xfffffe30
 770:	64616f6c 	strbtvs	r6, [r1], #-3948	; 0xfffff094
 774:	632e7265 			; <UNDEFINED> instruction: 0x632e7265
 778:	62657200 	rsbvs	r7, r5, #0, 4
 77c:	5f746f6f 	svcpl	0x00746f6f
 780:	6c6c6163 	stfvse	f6, [ip], #-396	; 0xfffffe74
 784:	0074756f 	rsbseq	r7, r4, pc, ror #10
 788:	575f4d50 			; <UNDEFINED> instruction: 0x575f4d50
 78c:	00474f44 	subeq	r4, r7, r4, asr #30
 790:	33545550 	cmpcc	r4, #80, 10	; 0x14000000
 794:	65730032 	ldrbvs	r0, [r3, #-50]!	; 0xffffffce
 798:	73755f74 	cmnvc	r5, #116, 30	; 0x1d0
 79c:	6c5f7265 	lfmvs	f7, 2, [pc], {101}	; 0x65
 7a0:	6c657665 	stclvs	6, cr7, [r5], #-404	; 0xfffffe6c
 7a4:	732f2e00 			; <UNDEFINED> instruction: 0x732f2e00
 7a8:	66666174 			; <UNDEFINED> instruction: 0x66666174
 7ac:	6372732d 	cmnvs	r2, #-1275068416	; 0xb4000000
 7b0:	6265722f 	rsbvs	r7, r5, #-268435454	; 0xf0000002
 7b4:	2e746f6f 	cdpcs	15, 7, cr6, cr4, cr15, {3}
 7b8:	4d500063 	ldclmi	0, cr0, [r0, #-396]	; 0xfffffe74
 7bc:	5341505f 	movtpl	r5, #4191	; 0x105f
 7c0:	524f5753 	subpl	r5, pc, #21757952	; 0x14c0000
 7c4:	74610044 	strbtvc	r0, [r1], #-68	; 0xffffffbc
 7c8:	6573755f 	ldrbvs	r7, [r3, #-1375]!	; 0xfffffaa1
 7cc:	656c5f72 	strbvs	r5, [ip, #-3954]!	; 0xfffff08e
 7d0:	006c6576 	rsbeq	r6, ip, r6, ror r5
 7d4:	525f4d50 	subspl	r4, pc, #80, 26	; 0x1400
 7d8:	5f435453 	svcpl	0x00435453
 7dc:	46435257 			; <UNDEFINED> instruction: 0x46435257
 7e0:	55465f47 	strbpl	r5, [r6, #-3911]	; 0xfffff0b9
 7e4:	525f4c4c 	subspl	r4, pc, #76, 24	; 0x4c00
 7e8:	54455345 	strbpl	r5, [r5], #-837	; 0xfffffcbb
 7ec:	5f4d5000 	svcpl	0x004d5000
 7f0:	43545352 	cmpmi	r4, #1207959553	; 0x48000001
 7f4:	73706300 	cmnvc	r0, #0, 6
 7f8:	65640072 	strbvs	r0, [r4, #-114]!	; 0xffffff8e
 7fc:	61625f76 	smcvs	9718	; 0x25f6
 800:	65697272 	strbvs	r7, [r9, #-626]!	; 0xfffffd8e
 804:	65640072 	strbvs	r0, [r4, #-114]!	; 0xffffff8e
 808:	5f79616c 	svcpl	0x0079616c
 80c:	00636573 	rsbeq	r6, r3, r3, ror r5
 810:	74732f2e 	ldrbtvc	r2, [r3], #-3886	; 0xfffff0d2
 814:	2d666661 	stclcs	6, cr6, [r6, #-388]!	; 0xfffffe7c
 818:	2f637273 	svccs	0x00637273
 81c:	656d6974 	strbvs	r6, [sp, #-2420]!	; 0xfffff68c
 820:	00632e72 	rsbeq	r2, r3, r2, ror lr
 824:	33544547 	cmpcc	r4, #297795584	; 0x11c00000
 828:	69740032 	ldmdbvs	r4!, {r1, r4, r5}^
 82c:	5f72656d 	svcpl	0x0072656d
 830:	5f746567 	svcpl	0x00746567
 834:	63657375 	cmnvs	r5, #-738197503	; 0xd4000001
 838:	6c656400 	cfstrdvs	mvd6, [r5], #-0
 83c:	755f7961 	ldrbvc	r7, [pc, #-2401]	; fffffee3 <__bss_end__+0xffff4fdb>
 840:	69740073 	ldmdbvs	r4!, {r0, r1, r4, r5, r6}^
 844:	5f72656d 	svcpl	0x0072656d
 848:	5f746567 	svcpl	0x00746567
 84c:	63657375 	cmnvs	r5, #-738197503	; 0xd4000001
 850:	7761725f 			; <UNDEFINED> instruction: 0x7761725f
 854:	74757000 	ldrbtvc	r7, [r5], #-0
 858:	62003233 	andvs	r3, r0, #805306371	; 0x30000003
 85c:	5f647561 	svcpl	0x00647561
 860:	006c6176 	rsbeq	r6, ip, r6, ror r1
 864:	74617473 	strbtvc	r7, [r1], #-1139	; 0xfffffb8d
 868:	72617500 	rsbvc	r7, r1, #0, 10
 86c:	61635f74 	smcvs	13812	; 0x35f4
 870:	65675f6e 	strbvs	r5, [r7, #-3950]!	; 0xfffff092
 874:	47006374 	smlsdxmi	r0, r4, r3, r6
 878:	5f4f4950 	svcpl	0x004f4950
 87c:	434e5546 	movtmi	r5, #58694	; 0xe546
 880:	54554f5f 	ldrbpl	r4, [r5], #-3935	; 0xfffff0a1
 884:	00545550 	subseq	r5, r4, r0, asr r5
 888:	5f787561 	svcpl	0x00787561
 88c:	69726570 	ldmdbvs	r2!, {r4, r5, r6, r8, sl, sp, lr}^
 890:	00736870 	rsbseq	r6, r3, r0, ror r8
 894:	74726175 	ldrbtvc	r6, [r2], #-373	; 0xfffffe8b
 898:	7500632e 	strvc	r6, [r0, #-814]	; 0xfffffcd2
 89c:	5f747261 	svcpl	0x00747261
 8a0:	5f6e6163 	svcpl	0x006e6163
 8a4:	63747570 	cmnvs	r4, #112, 10	; 0x1c000000
 8a8:	72617500 	rsbvc	r7, r1, #0, 10
 8ac:	78745f74 	ldmdavc	r4!, {r2, r4, r5, r6, r8, r9, sl, fp, ip, lr}^
 8b0:	5f73695f 	svcpl	0x0073695f
 8b4:	74706d65 	ldrbtvc	r6, [r0], #-3429	; 0xfffff29b
 8b8:	50470079 	subpl	r0, r7, r9, ror r0
 8bc:	465f4f49 	ldrbmi	r4, [pc], -r9, asr #30
 8c0:	5f434e55 	svcpl	0x00434e55
 8c4:	30544c41 	subscc	r4, r4, r1, asr #24
 8c8:	49504700 	ldmdbmi	r0, {r8, r9, sl, lr}^
 8cc:	55465f4f 	strbpl	r5, [r6, #-3919]	; 0xfffff0b1
 8d0:	415f434e 	cmpmi	pc, lr, asr #6
 8d4:	0031544c 	eorseq	r5, r1, ip, asr #8
 8d8:	4f495047 	svcmi	0x00495047
 8dc:	4e55465f 	mrcmi	6, 2, r4, cr5, cr15, {2}
 8e0:	4c415f43 	mcrrmi	15, 4, r5, r1, cr3
 8e4:	47003254 	smlsdmi	r0, r4, r2, r3
 8e8:	5f4f4950 	svcpl	0x004f4950
 8ec:	434e5546 	movtmi	r5, #58694	; 0xe546
 8f0:	544c415f 	strbpl	r4, [ip], #-351	; 0xfffffea1
 8f4:	50470033 	subpl	r0, r7, r3, lsr r0
 8f8:	465f4f49 	ldrbmi	r4, [pc], -r9, asr #30
 8fc:	5f434e55 	svcpl	0x00434e55
 900:	35544c41 	ldrbcc	r4, [r4, #-3137]	; 0xfffff3bf
 904:	6f682f00 	svcvs	0x00682f00
 908:	652f656d 	strvs	r6, [pc, #-1389]!	; 3a3 <__code_start__-0x7c5d>
 90c:	656c676e 	strbvs	r6, [ip, #-1902]!	; 0xfffff892
 910:	6c632f72 	stclvs	15, cr2, [r3], #-456	; 0xfffffe38
 914:	2f737361 	svccs	0x00737361
 918:	34327363 	ldrtcc	r7, [r2], #-867	; 0xfffffc9d
 91c:	2d786c30 	ldclcs	12, cr6, [r8, #-192]!	; 0xffffff40
 920:	70733232 	rsbsvc	r3, r3, r2, lsr r2
 924:	696c2f72 	stmdbvs	ip!, {r1, r4, r5, r6, r8, r9, sl, fp, sp}^
 928:	2f697062 	svccs	0x00697062
 92c:	66617473 			; <UNDEFINED> instruction: 0x66617473
 930:	72702d66 	rsbsvc	r2, r0, #6528	; 0x1980
 934:	74617669 	strbtvc	r7, [r1], #-1641	; 0xfffff997
 938:	61620065 	cmnvs	r2, r5, rrx
 93c:	61006475 	tstvs	r0, r5, ror r4
 940:	655f7875 	ldrbvs	r7, [pc, #-2165]	; d3 <__code_start__-0x7f2d>
 944:	6c62616e 	stfvse	f6, [r2], #-440	; 0xfffffe48
 948:	75007365 	strvc	r7, [r0, #-869]	; 0xfffffc9b
 94c:	5f747261 	svcpl	0x00747261
 950:	63746567 	cmnvs	r4, #432013312	; 0x19c00000
 954:	554e4700 	strbpl	r4, [lr, #-1792]	; 0xfffff900
 958:	39394320 	ldmdbcc	r9!, {r5, r8, r9, lr}
 95c:	2e303120 	rsfcssp	f3, f0, f0
 960:	20312e33 	eorscs	r2, r1, r3, lsr lr
 964:	31323032 	teqcc	r2, r2, lsr r0
 968:	34323830 	ldrtcc	r3, [r2], #-2096	; 0xfffff7d0
 96c:	65722820 	ldrbvs	r2, [r2, #-2080]!	; 0xfffff7e0
 970:	7361656c 	cmnvc	r1, #108, 10	; 0x1b000000
 974:	2d202965 			; <UNDEFINED> instruction: 0x2d202965
 978:	7570636d 	ldrbvc	r6, [r0, #-877]!	; 0xfffffc93
 97c:	6d72613d 	ldfvse	f6, [r2, #-244]!	; 0xffffff0c
 980:	36373131 			; <UNDEFINED> instruction: 0x36373131
 984:	2d667a6a 	vstmdbcs	r6!, {s15-s120}
 988:	6d2d2073 	stcvs	0, cr2, [sp, #-460]!	; 0xfffffe34
 98c:	656e7574 	strbvs	r7, [lr, #-1396]!	; 0xfffffa8c
 990:	6d72613d 	ldfvse	f6, [r2, #-244]!	; 0xffffff0c
 994:	36373131 			; <UNDEFINED> instruction: 0x36373131
 998:	2d667a6a 	vstmdbcs	r6!, {s15-s120}
 99c:	6d2d2073 	stcvs	0, cr2, [sp, #-460]!	; 0xfffffe34
 9a0:	616f6c66 	cmnvs	pc, r6, ror #24
 9a4:	62612d74 	rsbvs	r2, r1, #116, 26	; 0x1d00
 9a8:	6f733d69 	svcvs	0x00733d69
 9ac:	2d207466 	cfstrscs	mvf7, [r0, #-408]!	; 0xfffffe68
 9b0:	6d72616d 	ldfvse	f6, [r2, #-436]!	; 0xfffffe4c
 9b4:	616d2d20 	cmnvs	sp, r0, lsr #26
 9b8:	3d686372 	stclcc	3, cr6, [r8, #-456]!	; 0xfffffe38
 9bc:	766d7261 	strbtvc	r7, [sp], -r1, ror #4
 9c0:	207a6b36 	rsbscs	r6, sl, r6, lsr fp
 9c4:	6467672d 	strbtvs	r6, [r7], #-1837	; 0xfffff8d3
 9c8:	4f2d2062 	svcmi	0x002d2062
 9cc:	732d2067 			; <UNDEFINED> instruction: 0x732d2067
 9d0:	673d6474 			; <UNDEFINED> instruction: 0x673d6474
 9d4:	3939756e 	ldmdbcc	r9!, {r1, r2, r3, r5, r6, r8, sl, ip, sp, lr}
 9d8:	66662d20 	strbtvs	r2, [r6], -r0, lsr #26
 9dc:	73656572 	cmnvc	r5, #478150656	; 0x1c800000
 9e0:	646e6174 	strbtvs	r6, [lr], #-372	; 0xfffffe8c
 9e4:	00676e69 	rsbeq	r6, r7, r9, ror #28
 9e8:	6c746e63 	ldclvs	14, cr6, [r4], #-396	; 0xfffffe74
 9ec:	72617500 	rsbvc	r7, r1, #0, 10
 9f0:	69645f74 	stmdbvs	r4!, {r2, r4, r5, r6, r8, r9, sl, fp, ip, lr}^
 9f4:	6c626173 	stfvse	f6, [r2], #-460	; 0xfffffe34
 9f8:	61750065 	cmnvs	r5, r5, rrx
 9fc:	685f7472 	ldmdavs	pc, {r1, r4, r5, r6, sl, ip, sp, lr}^	; <UNPREDICTABLE>
 a00:	645f7361 	ldrbvs	r7, [pc], #-865	; a08 <__code_start__-0x75f8>
 a04:	00617461 	rsbeq	r7, r1, r1, ror #8
 a08:	4f495047 	svcmi	0x00495047
 a0c:	4e55465f 	mrcmi	6, 2, r4, cr5, cr15, {2}
 a10:	4c415f43 	mcrrmi	15, 4, r5, r1, cr3
 a14:	6f003454 	svcvs	0x00003454
 a18:	6e695f72 	mcrvs	15, 3, r5, cr9, cr2, {3}
 a1c:	73003233 	movwvc	r3, #563	; 0x233
 a20:	74617263 	strbtvc	r7, [r1], #-611	; 0xfffffd9d
 a24:	75006863 	strvc	r6, [r0, #-2147]	; 0xfffff79d
 a28:	00747261 	rsbseq	r7, r4, r1, ror #4
 a2c:	5f646e61 	svcpl	0x00646e61
 a30:	32336e69 	eorscc	r6, r3, #1680	; 0x690
 a34:	72617500 	rsbvc	r7, r1, #0, 10
 a38:	75705f74 	ldrbvc	r5, [r0, #-3956]!	; 0xfffff08c
 a3c:	47006374 	smlsdxmi	r0, r4, r3, r6
 a40:	5f4f4950 	svcpl	0x004f4950
 a44:	434e5546 	movtmi	r5, #58694	; 0xe546
 a48:	504e495f 	subpl	r4, lr, pc, asr r9
 a4c:	67005455 	smlsdvs	r0, r5, r4, r5
 a50:	5f6f6970 	svcpl	0x006f6970
 a54:	5f746573 	svcpl	0x00746573
 a58:	636e7566 	cmnvs	lr, #427819008	; 0x19800000
 a5c:	6e6f6974 			; <UNDEFINED> instruction: 0x6e6f6974
 a60:	74656700 	strbtvc	r6, [r5], #-1792	; 0xfffff900
 a64:	6b003233 	blvs	d338 <__bss_end__+0x2430>
 a68:	6c6c616d 	stfvse	f6, [ip], #-436	; 0xfffffe4c
 a6c:	685f636f 	ldmdavs	pc, {r0, r1, r2, r3, r5, r6, r8, r9, sp, lr}^	; <UNPREDICTABLE>
 a70:	5f706165 	svcpl	0x00706165
 a74:	72617473 	rsbvc	r7, r1, #1929379840	; 0x73000000
 a78:	616d0074 	smcvs	53252	; 0xd004
 a7c:	626e5f78 	rsbvs	r5, lr, #120, 30	; 0x1e0
 a80:	73657479 	cmnvc	r5, #2030043136	; 0x79000000
 a84:	64615f00 	strbtvs	r5, [r1], #-3840	; 0xfffff100
 a88:	68007264 	stmdavs	r0, {r2, r5, r6, r9, ip, sp, lr}
 a8c:	5f706165 	svcpl	0x00706165
 a90:	0078616d 	rsbseq	r6, r8, sp, ror #2
 a94:	6572666b 	ldrbvs	r6, [r2, #-1643]!	; 0xfffff995
 a98:	6c615f65 	stclvs	15, cr5, [r1], #-404	; 0xfffffe6c
 a9c:	6f72006c 	svcvs	0x0072006c
 aa0:	75646e75 	strbvc	r6, [r4, #-3701]!	; 0xfffff18b
 aa4:	666b0070 			; <UNDEFINED> instruction: 0x666b0070
 aa8:	5f656572 	svcpl	0x00656572
 aac:	00706f70 	rsbseq	r6, r0, r0, ror pc
 ab0:	67696c61 	strbvs	r6, [r9, -r1, ror #24]!
 ab4:	6e656d6e 	cdpvs	13, 6, cr6, cr5, cr14, {3}
 ab8:	616d0074 	smcvs	53252	; 0xd004
 abc:	33755f78 	cmncc	r5, #120, 30	; 0x1e0
 ac0:	6e4f0032 	mcrvs	0, 2, r0, cr15, cr2, {1}
 ac4:	00424d65 	subeq	r4, r2, r5, ror #26
 ac8:	6c616d6b 	stclvs	13, cr6, [r1], #-428	; 0xfffffe54
 acc:	5f636f6c 	svcpl	0x00636f6c
 ad0:	70616568 	rsbvc	r6, r1, r8, ror #10
 ad4:	646e655f 	strbtvs	r6, [lr], #-1375	; 0xfffffaa1
 ad8:	616d6b00 	cmnvs	sp, r0, lsl #22
 adc:	636f6c6c 	cmnvs	pc, #108, 24	; 0x6c00
 ae0:	746f6e5f 	strbtvc	r6, [pc], #-3679	; ae8 <__code_start__-0x7518>
 ae4:	6f72657a 	svcvs	0x0072657a
 ae8:	5f736900 	svcpl	0x00736900
 aec:	32776f70 	rsbscc	r6, r7, #112, 30	; 0x1c0
 af0:	616d6b00 	cmnvs	sp, r0, lsl #22
 af4:	636f6c6c 	cmnvs	pc, #108, 24	; 0x6c00
 af8:	6b00632e 	blvs	197b8 <__bss_end__+0xe8b0>
 afc:	6c6c616d 	stfvse	f6, [ip], #-436	; 0xfffffe4c
 b00:	695f636f 	ldmdbvs	pc, {r0, r1, r2, r3, r5, r6, r8, r9, sp, lr}^	; <UNPREDICTABLE>
 b04:	0074696e 	rsbseq	r6, r4, lr, ror #18
 b08:	615f7369 	cmpvs	pc, r9, ror #6
 b0c:	6e67696c 	vnmulvs.f16	s13, s14, s25	; <UNPREDICTABLE>
 b10:	6b006465 	blvs	19cac <__bss_end__+0xeda4>
 b14:	6c6c616d 	stfvse	f6, [ip], #-436	; 0xfffffe4c
 b18:	685f636f 	ldmdavs	pc, {r0, r1, r2, r3, r5, r6, r8, r9, sp, lr}^	; <UNPREDICTABLE>
 b1c:	5f706165 	svcpl	0x00706165
 b20:	00727470 	rsbseq	r7, r2, r0, ror r4
 b24:	5f697072 	svcpl	0x00697072
 b28:	65736572 	ldrbvs	r6, [r3, #-1394]!	; 0xfffffa8e
 b2c:	75705f74 	ldrbvc	r5, [r0, #-3956]!	; 0xfffff08c
 b30:	6b006374 	blvs	19908 <__bss_end__+0xea00>
 b34:	6c6c616d 	stfvse	f6, [ip], #-436	; 0xfffffe4c
 b38:	615f636f 	cmpvs	pc, pc, ror #6
 b3c:	6e67696c 	vnmulvs.f16	s13, s14, s25	; <UNPREDICTABLE>
 b40:	67006465 	strvs	r6, [r0, -r5, ror #8]
 b44:	5f6f6970 	svcpl	0x006f6970
 b48:	30726c63 	rsbscc	r6, r2, r3, ror #24
 b4c:	69706700 	ldmdbvs	r0!, {r8, r9, sl, sp, lr}^
 b50:	65735f6f 	ldrbvs	r5, [r3, #-3951]!	; 0xfffff091
 b54:	67003074 	smlsdxvs	r0, r4, r0, r3
 b58:	5f6f6970 	svcpl	0x006f6970
 b5c:	74697277 	strbtvc	r7, [r9], #-631	; 0xfffffd89
 b60:	45440065 	strbmi	r0, [r4, #-101]	; 0xffffff9b
 b64:	41565f56 	cmpmi	r6, r6, asr pc
 b68:	0032334c 	eorseq	r3, r2, ip, asr #6
 b6c:	6f697067 	svcvs	0x00697067
 b70:	6165725f 	cmnvs	r5, pc, asr r2
 b74:	2f2e0064 	svccs	0x002e0064
 b78:	2f637273 	svccs	0x00637273
 b7c:	6f697067 	svcvs	0x00697067
 b80:	6700632e 	strvs	r6, [r0, -lr, lsr #6]
 b84:	5f6f6970 	svcpl	0x006f6970
 b88:	5f746573 	svcpl	0x00746573
 b8c:	75706e69 	ldrbvc	r6, [r0, #-3689]!	; 0xfffff197
 b90:	70670074 	rsbvc	r0, r7, r4, ror r0
 b94:	735f6f69 	cmpvc	pc, #420	; 0x1a4
 b98:	6f5f7465 	svcvs	0x005f7465
 b9c:	67006666 	strvs	r6, [r0, -r6, ror #12]
 ba0:	5f6f6970 	svcpl	0x006f6970
 ba4:	5f746573 	svcpl	0x00746573
 ba8:	7074756f 	rsbsvc	r7, r4, pc, ror #10
 bac:	67007475 	smlsdxvs	r0, r5, r4, r7
 bb0:	5f6f6970 	svcpl	0x006f6970
 bb4:	636e7566 	cmnvs	lr, #427819008	; 0x19800000
 bb8:	6700745f 	smlsdvs	r0, pc, r4, r7	; <UNPREDICTABLE>
 bbc:	5f6f6970 	svcpl	0x006f6970
 bc0:	3076656c 	rsbscc	r6, r6, ip, ror #10
 bc4:	6e616200 	cdpvs	2, 6, cr6, cr1, cr0, {0}
 bc8:	7067006b 	rsbvc	r0, r7, fp, rrx
 bcc:	735f6f69 	cmpvc	pc, #420	; 0x1a4
 bd0:	6f5f7465 	svcvs	0x005f7465
 bd4:	6e69006e 	cdpvs	0, 6, cr0, cr9, cr14, {3}
 bd8:	6e726574 	mrcvs	5, 3, r6, cr2, cr4, {3}
 bdc:	705f6c61 	subsvc	r6, pc, r1, ror #24
 be0:	68637475 	stmdavs	r3!, {r0, r2, r4, r5, r6, sl, ip, sp, lr}^
 be4:	72007261 	andvc	r7, r0, #268435462	; 0x10000006
 be8:	735f6970 	cmpvc	pc, #112, 18	; 0x1c0000
 bec:	705f7465 	subsvc	r7, pc, r5, ror #8
 bf0:	00637475 	rsbeq	r7, r3, r5, ror r4
 bf4:	696c2f2e 	stmdbvs	ip!, {r1, r2, r3, r5, r8, r9, sl, fp, sp}^
 bf8:	702f6362 	eorvc	r6, pc, r2, ror #6
 bfc:	68637475 	stmdavs	r3!, {r0, r2, r4, r5, r6, sl, ip, sp, lr}^
 c00:	632e7261 			; <UNDEFINED> instruction: 0x632e7261
 c04:	6c2f2e00 	stcvs	14, cr2, [pc], #-0	; c0c <__code_start__-0x73f4>
 c08:	2f636269 	svccs	0x00636269
 c0c:	63727473 	cmnvs	r2, #1929379840	; 0x73000000
 c10:	632e7461 			; <UNDEFINED> instruction: 0x632e7461
 c14:	73656400 	cmnvc	r5, #0, 8
 c18:	2f2e0074 	svccs	0x002e0074
 c1c:	6362696c 	cmnvs	r2, #108, 18	; 0x1b0000
 c20:	7274732f 	rsbsvc	r7, r4, #-1140850688	; 0xbc000000
 c24:	2e706d63 	cdpcs	13, 7, cr6, cr0, cr3, {3}
 c28:	2f2e0063 	svccs	0x002e0063
 c2c:	6362696c 	cmnvs	r2, #108, 18	; 0x1b0000
 c30:	7274732f 	rsbsvc	r7, r4, #-1140850688	; 0xbc000000
 c34:	2e797063 	cdpcs	0, 7, cr7, cr9, cr3, {3}
 c38:	2f2e0063 	svccs	0x002e0063
 c3c:	6362696c 	cmnvs	r2, #108, 18	; 0x1b0000
 c40:	7274732f 	rsbsvc	r7, r4, #-1140850688	; 0xbc000000
 c44:	706d636e 	rsbvc	r6, sp, lr, ror #6
 c48:	2e00632e 	cdpcs	3, 0, cr6, cr0, cr14, {1}
 c4c:	6174732f 	cmnvs	r4, pc, lsr #6
 c50:	732d6666 			; <UNDEFINED> instruction: 0x732d6666
 c54:	642f6372 	strtvs	r6, [pc], #-882	; c5c <__code_start__-0x73a4>
 c58:	75616665 	strbvc	r6, [r1, #-1637]!	; 0xfffff99b
 c5c:	722d746c 	eorvc	r7, sp, #108, 8	; 0x6c000000
 c60:	6f6f6265 	svcvs	0x006f6265
 c64:	61632d74 	smcvs	13012	; 0x32d4
 c68:	756f6c6c 	strbvc	r6, [pc, #-3180]!	; 4 <__code_start__-0x7ffc>
 c6c:	00632e74 	rsbeq	r2, r3, r4, ror lr

Disassembly of section .debug_frame:

00000000 <.debug_frame>:
   0:	0000000c 	andeq	r0, r0, ip
   4:	ffffffff 			; <UNDEFINED> instruction: 0xffffffff
   8:	7c020001 	stcvc	0, cr0, [r2], {1}
   c:	000d0c0e 	andeq	r0, sp, lr, lsl #24
  10:	0000002c 	andeq	r0, r0, ip, lsr #32
  14:	00000000 	andeq	r0, r0, r0
  18:	00008038 	andeq	r8, r0, r8, lsr r0
  1c:	000000dc 	ldrdeq	r0, [r0], -ip
  20:	84240e42 	strthi	r0, [r4], #-3650	; 0xfffff1be
  24:	86088509 	strhi	r8, [r8], -r9, lsl #10
  28:	88068707 	stmdahi	r6, {r0, r1, r2, r8, r9, sl, pc}
  2c:	8a048905 	bhi	122448 <__bss_end__+0x117540>
  30:	8e028b03 	vmlahi.f64	d8, d2, d3
  34:	400e4801 	andmi	r4, lr, r1, lsl #16
  38:	0e0a4a02 	vmlaeq.f32	s8, s20, s4
  3c:	000b4224 	andeq	r4, fp, r4, lsr #4
  40:	00000018 	andeq	r0, r0, r8, lsl r0
  44:	00000000 	andeq	r0, r0, r0
  48:	00008114 	andeq	r8, r0, r4, lsl r1
  4c:	0000002c 	andeq	r0, r0, ip, lsr #32
  50:	84080e42 	strhi	r0, [r8], #-3650	; 0xfffff1be
  54:	48018e02 	stmdami	r1, {r1, r9, sl, fp, pc}
  58:	000ec4ce 	andeq	ip, lr, lr, asr #9
  5c:	0000000c 	andeq	r0, r0, ip
  60:	ffffffff 			; <UNDEFINED> instruction: 0xffffffff
  64:	7c020001 	stcvc	0, cr0, [r2], {1}
  68:	000d0c0e 	andeq	r0, sp, lr, lsl #24
  6c:	0000000c 	andeq	r0, r0, ip
  70:	0000005c 	andeq	r0, r0, ip, asr r0
  74:	00008140 	andeq	r8, r0, r0, asr #2
  78:	00000010 	andeq	r0, r0, r0, lsl r0
  7c:	0000000c 	andeq	r0, r0, ip
  80:	0000005c 	andeq	r0, r0, ip, asr r0
  84:	00008150 	andeq	r8, r0, r0, asr r1
  88:	00000010 	andeq	r0, r0, r0, lsl r0
  8c:	00000020 	andeq	r0, r0, r0, lsr #32
  90:	0000005c 	andeq	r0, r0, ip, asr r0
  94:	00008160 	andeq	r8, r0, r0, ror #2
  98:	000000a4 	andeq	r0, r0, r4, lsr #1
  9c:	840c0e42 	strhi	r0, [ip], #-3650	; 0xfffff1be
  a0:	8e028503 	cfsh32hi	mvfx8, mvfx2, #3
  a4:	180e4201 	stmdane	lr, {r0, r9, lr}
  a8:	0c0e0a5e 			; <UNDEFINED> instruction: 0x0c0e0a5e
  ac:	00000b42 	andeq	r0, r0, r2, asr #22
  b0:	0000000c 	andeq	r0, r0, ip
  b4:	0000005c 	andeq	r0, r0, ip, asr r0
  b8:	00008204 	andeq	r8, r0, r4, lsl #4
  bc:	00000008 	andeq	r0, r0, r8
  c0:	00000014 	andeq	r0, r0, r4, lsl r0
  c4:	0000005c 	andeq	r0, r0, ip, asr r0
  c8:	0000820c 	andeq	r8, r0, ip, lsl #4
  cc:	00000018 	andeq	r0, r0, r8, lsl r0
  d0:	84080e42 	strhi	r0, [r8], #-3650	; 0xfffff1be
  d4:	00018e02 	andeq	r8, r1, r2, lsl #28
  d8:	00000018 	andeq	r0, r0, r8, lsl r0
  dc:	0000005c 	andeq	r0, r0, ip, asr r0
  e0:	00008224 	andeq	r8, r0, r4, lsr #4
  e4:	00000030 	andeq	r0, r0, r0, lsr r0
  e8:	84100e42 	ldrhi	r0, [r0], #-3650	; 0xfffff1be
  ec:	86038504 	strhi	r8, [r3], -r4, lsl #10
  f0:	00018e02 	andeq	r8, r1, r2, lsl #28
  f4:	00000018 	andeq	r0, r0, r8, lsl r0
  f8:	0000005c 	andeq	r0, r0, ip, asr r0
  fc:	00008254 	andeq	r8, r0, r4, asr r2
 100:	00000058 	andeq	r0, r0, r8, asr r0
 104:	84100e42 	ldrhi	r0, [r0], #-3650	; 0xfffff1be
 108:	86038504 	strhi	r8, [r3], -r4, lsl #10
 10c:	00018e02 	andeq	r8, r1, r2, lsl #28
 110:	00000028 	andeq	r0, r0, r8, lsr #32
 114:	0000005c 	andeq	r0, r0, ip, asr r0
 118:	000082ac 	andeq	r8, r0, ip, lsr #5
 11c:	0000018c 	andeq	r0, r0, ip, lsl #3
 120:	841c0e42 	ldrhi	r0, [ip], #-3650	; 0xfffff1be
 124:	86068507 	strhi	r8, [r6], -r7, lsl #10
 128:	88048705 	stmdahi	r4, {r0, r2, r8, r9, sl, pc}
 12c:	8e028903 	vmlahi.f16	s16, s4, s6	; <UNPREDICTABLE>
 130:	380e4201 	stmdacc	lr, {r0, r9, lr}
 134:	0e0a9a02 	vmlaeq.f32	s18, s20, s4
 138:	000b421c 	andeq	r4, fp, ip, lsl r2
 13c:	00000020 	andeq	r0, r0, r0, lsr #32
 140:	0000005c 	andeq	r0, r0, ip, asr r0
 144:	00008438 	andeq	r8, r0, r8, lsr r4
 148:	000000c4 	andeq	r0, r0, r4, asr #1
 14c:	84100e42 	ldrhi	r0, [r0], #-3650	; 0xfffff1be
 150:	86038504 	strhi	r8, [r3], -r4, lsl #10
 154:	42018e02 	andmi	r8, r1, #2, 28
 158:	5602200e 	strpl	r2, [r2], -lr
 15c:	0000100e 	andeq	r1, r0, lr
 160:	0000000c 	andeq	r0, r0, ip
 164:	ffffffff 			; <UNDEFINED> instruction: 0xffffffff
 168:	7c020001 	stcvc	0, cr0, [r2], {1}
 16c:	000d0c0e 	andeq	r0, sp, lr, lsl #24
 170:	00000014 	andeq	r0, r0, r4, lsl r0
 174:	00000160 	andeq	r0, r0, r0, ror #2
 178:	000084fc 	strdeq	r8, [r0], -ip
 17c:	00000088 	andeq	r0, r0, r8, lsl #1
 180:	84080e42 	strhi	r0, [r8], #-3650	; 0xfffff1be
 184:	00018e02 	andeq	r8, r1, r2, lsl #28
 188:	0000001c 	andeq	r0, r0, ip, lsl r0
 18c:	00000160 	andeq	r0, r0, r0, ror #2
 190:	00008584 	andeq	r8, r0, r4, lsl #11
 194:	00000100 	andeq	r0, r0, r0, lsl #2
 198:	84180e42 	ldrhi	r0, [r8], #-3650	; 0xfffff1be
 19c:	86058506 	strhi	r8, [r5], -r6, lsl #10
 1a0:	88038704 	stmdahi	r3, {r2, r8, r9, sl, pc}
 1a4:	00018e02 	andeq	r8, r1, r2, lsl #28
 1a8:	0000000c 	andeq	r0, r0, ip
 1ac:	ffffffff 			; <UNDEFINED> instruction: 0xffffffff
 1b0:	7c020001 	stcvc	0, cr0, [r2], {1}
 1b4:	000d0c0e 	andeq	r0, sp, lr, lsl #24
 1b8:	0000002c 	andeq	r0, r0, ip, lsr #32
 1bc:	000001a8 	andeq	r0, r0, r8, lsr #3
 1c0:	00008684 	andeq	r8, r0, r4, lsl #13
 1c4:	0000015c 	andeq	r0, r0, ip, asr r1
 1c8:	84240e42 	strthi	r0, [r4], #-3650	; 0xfffff1be
 1cc:	86088509 	strhi	r8, [r8], -r9, lsl #10
 1d0:	88068707 	stmdahi	r6, {r0, r1, r2, r8, r9, sl, pc}
 1d4:	8a048905 	bhi	1225f0 <__bss_end__+0x1176e8>
 1d8:	8e028b03 	vmlahi.f64	d8, d2, d3
 1dc:	300e4801 	andcc	r4, lr, r1, lsl #16
 1e0:	0e0a6402 	cdpeq	4, 0, cr6, cr10, cr2, {0}
 1e4:	000b4224 	andeq	r4, fp, r4, lsr #4
 1e8:	0000001c 	andeq	r0, r0, ip, lsl r0
 1ec:	000001a8 	andeq	r0, r0, r8, lsr #3
 1f0:	000087e0 	andeq	r8, r0, r0, ror #15
 1f4:	000000a4 	andeq	r0, r0, r4, lsr #1
 1f8:	84080e42 	strhi	r0, [r8], #-3650	; 0xfffff1be
 1fc:	42018e02 	andmi	r8, r1, #2, 28
 200:	4202480e 	andmi	r4, r2, #917504	; 0xe0000
 204:	0000080e 	andeq	r0, r0, lr, lsl #16
 208:	00000020 	andeq	r0, r0, r0, lsr #32
 20c:	000001a8 	andeq	r0, r0, r8, lsr #3
 210:	00008884 	andeq	r8, r0, r4, lsl #17
 214:	00000120 	andeq	r0, r0, r0, lsr #2
 218:	84200e42 	strthi	r0, [r0], #-3650	; 0xfffff1be
 21c:	86078508 	strhi	r8, [r7], -r8, lsl #10
 220:	88058706 	stmdahi	r5, {r1, r2, r8, r9, sl, pc}
 224:	8a038904 	bhi	e263c <__bss_end__+0xd7734>
 228:	00018e02 	andeq	r8, r1, r2, lsl #28
 22c:	00000024 	andeq	r0, r0, r4, lsr #32
 230:	000001a8 	andeq	r0, r0, r8, lsr #3
 234:	000089a4 	andeq	r8, r0, r4, lsr #19
 238:	0000009c 	muleq	r0, ip, r0
 23c:	840c0e42 	strhi	r0, [ip], #-3650	; 0xfffff1be
 240:	8e028503 	cfsh32hi	mvfx8, mvfx2, #3
 244:	180e4401 	stmdane	lr, {r0, sl, lr}
 248:	0c0e0a5c 			; <UNDEFINED> instruction: 0x0c0e0a5c
 24c:	c4c5ce42 	strbgt	ip, [r5], #3650	; 0xe42
 250:	0b42000e 	bleq	1080290 <__bss_end__+0x1075388>
 254:	0000000c 	andeq	r0, r0, ip
 258:	000001a8 	andeq	r0, r0, r8, lsr #3
 25c:	00008a40 	andeq	r8, r0, r0, asr #20
 260:	00000004 	andeq	r0, r0, r4
 264:	00000014 	andeq	r0, r0, r4, lsl r0
 268:	000001a8 	andeq	r0, r0, r8, lsr #3
 26c:	00008a44 	andeq	r8, r0, r4, asr #20
 270:	00000048 	andeq	r0, r0, r8, asr #32
 274:	84080e42 	strhi	r0, [r8], #-3650	; 0xfffff1be
 278:	00018e02 	andeq	r8, r1, r2, lsl #28
 27c:	00000014 	andeq	r0, r0, r4, lsl r0
 280:	000001a8 	andeq	r0, r0, r8, lsr #3
 284:	00008a8c 	andeq	r8, r0, ip, lsl #21
 288:	00000050 	andeq	r0, r0, r0, asr r0
 28c:	84080e42 	strhi	r0, [r8], #-3650	; 0xfffff1be
 290:	00018e02 	andeq	r8, r1, r2, lsl #28
 294:	0000002c 	andeq	r0, r0, ip, lsr #32
 298:	000001a8 	andeq	r0, r0, r8, lsr #3
 29c:	00008adc 	ldrdeq	r8, [r0], -ip
 2a0:	00000100 	andeq	r0, r0, r0, lsl #2
 2a4:	84240e42 	strthi	r0, [r4], #-3650	; 0xfffff1be
 2a8:	86088509 	strhi	r8, [r8], -r9, lsl #10
 2ac:	88068707 	stmdahi	r6, {r0, r1, r2, r8, r9, sl, pc}
 2b0:	8a048905 	bhi	1226cc <__bss_end__+0x1177c4>
 2b4:	8e028b03 	vmlahi.f64	d8, d2, d3
 2b8:	380e4201 	stmdacc	lr, {r0, r9, lr}
 2bc:	240e0a7c 	strcs	r0, [lr], #-2684	; 0xfffff584
 2c0:	00000b42 	andeq	r0, r0, r2, asr #22
 2c4:	00000014 	andeq	r0, r0, r4, lsl r0
 2c8:	000001a8 	andeq	r0, r0, r8, lsr #3
 2cc:	00008bdc 	ldrdeq	r8, [r0], -ip
 2d0:	0000002c 	andeq	r0, r0, ip, lsr #32
 2d4:	84080e42 	strhi	r0, [r8], #-3650	; 0xfffff1be
 2d8:	00018e02 	andeq	r8, r1, r2, lsl #28
 2dc:	0000000c 	andeq	r0, r0, ip
 2e0:	ffffffff 			; <UNDEFINED> instruction: 0xffffffff
 2e4:	7c020001 	stcvc	0, cr0, [r2], {1}
 2e8:	000d0c0e 	andeq	r0, sp, lr, lsl #24
 2ec:	00000014 	andeq	r0, r0, r4, lsl r0
 2f0:	000002dc 	ldrdeq	r0, [r0], -ip
 2f4:	00008c10 	andeq	r8, r0, r0, lsl ip
 2f8:	00000078 	andeq	r0, r0, r8, ror r0
 2fc:	84080e42 	strhi	r0, [r8], #-3650	; 0xfffff1be
 300:	00018e02 	andeq	r8, r1, r2, lsl #28
 304:	0000000c 	andeq	r0, r0, ip
 308:	ffffffff 			; <UNDEFINED> instruction: 0xffffffff
 30c:	7c020001 	stcvc	0, cr0, [r2], {1}
 310:	000d0c0e 	andeq	r0, sp, lr, lsl #24
 314:	00000034 	andeq	r0, r0, r4, lsr r0
 318:	00000304 	andeq	r0, r0, r4, lsl #6
 31c:	00008c88 	andeq	r8, r0, r8, lsl #25
 320:	00000058 	andeq	r0, r0, r8, asr r0
 324:	80100e42 	andshi	r0, r0, r2, asr #28
 328:	82038104 	andhi	r8, r3, #1
 32c:	42018302 	andmi	r8, r1, #134217728	; 0x8000000
 330:	07841c0e 	streq	r1, [r4, lr, lsl #24]
 334:	058e0685 	streq	r0, [lr, #1669]	; 0x685
 338:	5a280e44 	bpl	a03c50 <__bss_end__+0x9f8d48>
 33c:	ce421c0e 	cdpgt	12, 4, cr1, cr2, cr14, {0}
 340:	100ec4c5 	andne	ip, lr, r5, asr #9
 344:	c1c2c342 	bicgt	ip, r2, r2, asr #6
 348:	00000ec0 	andeq	r0, r0, r0, asr #29
 34c:	0000000c 	andeq	r0, r0, ip
 350:	ffffffff 			; <UNDEFINED> instruction: 0xffffffff
 354:	7c020001 	stcvc	0, cr0, [r2], {1}
 358:	000d0c0e 	andeq	r0, sp, lr, lsl #24
 35c:	00000018 	andeq	r0, r0, r8, lsl r0
 360:	0000034c 	andeq	r0, r0, ip, asr #6
 364:	00008ce0 	andeq	r8, r0, r0, ror #25
 368:	00000038 	andeq	r0, r0, r8, lsr r0
 36c:	84100e42 	ldrhi	r0, [r0], #-3650	; 0xfffff1be
 370:	86038504 	strhi	r8, [r3], -r4, lsl #10
 374:	00018e02 	andeq	r8, r1, r2, lsl #28
 378:	0000000c 	andeq	r0, r0, ip
 37c:	ffffffff 			; <UNDEFINED> instruction: 0xffffffff
 380:	7c020001 	stcvc	0, cr0, [r2], {1}
 384:	000d0c0e 	andeq	r0, sp, lr, lsl #24
 388:	0000002c 	andeq	r0, r0, ip, lsr #32
 38c:	00000378 	andeq	r0, r0, r8, ror r3
 390:	00008d18 	andeq	r8, r0, r8, lsl sp
 394:	00000328 	andeq	r0, r0, r8, lsr #6
 398:	84180e42 	ldrhi	r0, [r8], #-3650	; 0xfffff1be
 39c:	86058506 	strhi	r8, [r5], -r6, lsl #10
 3a0:	88038704 	stmdahi	r3, {r2, r8, r9, sl, pc}
 3a4:	46018e02 	strmi	r8, [r1], -r2, lsl #28
 3a8:	c002600e 	andgt	r6, r2, lr
 3ac:	42180e0a 	andsmi	r0, r8, #160	; 0xa0
 3b0:	0a8e020b 	beq	fe380be4 <__bss_end__+0xfe375cdc>
 3b4:	0b42180e 	bleq	10863f4 <__bss_end__+0x107b4ec>
 3b8:	00000014 	andeq	r0, r0, r4, lsl r0
 3bc:	00000378 	andeq	r0, r0, r8, ror r3
 3c0:	00009040 	andeq	r9, r0, r0, asr #32
 3c4:	00000060 	andeq	r0, r0, r0, rrx
 3c8:	8e040e52 	mcrhi	14, 0, r0, cr4, cr2, {2}
 3cc:	100e4401 	andne	r4, lr, r1, lsl #8
 3d0:	0000002c 	andeq	r0, r0, ip, lsr #32
 3d4:	00000378 	andeq	r0, r0, r8, ror r3
 3d8:	000090a0 	andeq	r9, r0, r0, lsr #1
 3dc:	0000062c 	andeq	r0, r0, ip, lsr #12
 3e0:	84240e42 	strthi	r0, [r4], #-3650	; 0xfffff1be
 3e4:	86088509 	strhi	r8, [r8], -r9, lsl #10
 3e8:	88068707 	stmdahi	r6, {r0, r1, r2, r8, r9, sl, pc}
 3ec:	8a048905 	bhi	122808 <__bss_end__+0x117900>
 3f0:	8e028b03 	vmlahi.f64	d8, d2, d3
 3f4:	c00e5201 	andgt	r5, lr, r1, lsl #4
 3f8:	0a860202 	beq	fe180c08 <__bss_end__+0xfe175d00>
 3fc:	0b42240e 	bleq	108943c <__bss_end__+0x107e534>
 400:	0000000c 	andeq	r0, r0, ip
 404:	ffffffff 			; <UNDEFINED> instruction: 0xffffffff
 408:	7c020001 	stcvc	0, cr0, [r2], {1}
 40c:	000d0c0e 	andeq	r0, sp, lr, lsl #24
 410:	00000014 	andeq	r0, r0, r4, lsl r0
 414:	00000400 	andeq	r0, r0, r0, lsl #8
 418:	000096cc 	andeq	r9, r0, ip, asr #13
 41c:	0000002c 	andeq	r0, r0, ip, lsr #32
 420:	84080e44 	strhi	r0, [r8], #-3652	; 0xfffff1bc
 424:	00018e02 	andeq	r8, r1, r2, lsl #28
 428:	0000000c 	andeq	r0, r0, ip
 42c:	ffffffff 			; <UNDEFINED> instruction: 0xffffffff
 430:	7c020001 	stcvc	0, cr0, [r2], {1}
 434:	000d0c0e 	andeq	r0, sp, lr, lsl #24
 438:	00000018 	andeq	r0, r0, r8, lsl r0
 43c:	00000428 	andeq	r0, r0, r8, lsr #8
 440:	000096f8 	strdeq	r9, [r0], -r8
 444:	000000f8 	strdeq	r0, [r0], -r8
 448:	84100e42 	ldrhi	r0, [r0], #-3650	; 0xfffff1be
 44c:	86038504 	strhi	r8, [r3], -r4, lsl #10
 450:	00018e02 	andeq	r8, r1, r2, lsl #28
 454:	0000000c 	andeq	r0, r0, ip
 458:	ffffffff 			; <UNDEFINED> instruction: 0xffffffff
 45c:	7c020001 	stcvc	0, cr0, [r2], {1}
 460:	000d0c0e 	andeq	r0, sp, lr, lsl #24
 464:	0000000c 	andeq	r0, r0, ip
 468:	00000454 	andeq	r0, r0, r4, asr r4
 46c:	000097f0 	strdeq	r9, [r0], -r0
 470:	00000004 	andeq	r0, r0, r4
 474:	0000000c 	andeq	r0, r0, ip
 478:	ffffffff 			; <UNDEFINED> instruction: 0xffffffff
 47c:	7c020001 	stcvc	0, cr0, [r2], {1}
 480:	000d0c0e 	andeq	r0, sp, lr, lsl #24
 484:	0000000c 	andeq	r0, r0, ip
 488:	00000474 	andeq	r0, r0, r4, ror r4
 48c:	000097f4 	strdeq	r9, [r0], -r4
 490:	00000018 	andeq	r0, r0, r8, lsl r0
 494:	0000000c 	andeq	r0, r0, ip
 498:	00000474 	andeq	r0, r0, r4, ror r4
 49c:	0000980c 	andeq	r9, r0, ip, lsl #16
 4a0:	00000014 	andeq	r0, r0, r4, lsl r0
 4a4:	00000014 	andeq	r0, r0, r4, lsl r0
 4a8:	00000474 	andeq	r0, r0, r4, ror r4
 4ac:	00009820 	andeq	r9, r0, r0, lsr #16
 4b0:	00000060 	andeq	r0, r0, r0, rrx
 4b4:	84080e42 	strhi	r0, [r8], #-3650	; 0xfffff1be
 4b8:	00018e02 	andeq	r8, r1, r2, lsl #28
 4bc:	0000000c 	andeq	r0, r0, ip
 4c0:	ffffffff 			; <UNDEFINED> instruction: 0xffffffff
 4c4:	7c020001 	stcvc	0, cr0, [r2], {1}
 4c8:	000d0c0e 	andeq	r0, sp, lr, lsl #24
 4cc:	0000000c 	andeq	r0, r0, ip
 4d0:	000004bc 			; <UNDEFINED> instruction: 0x000004bc
 4d4:	00009880 	andeq	r9, r0, r0, lsl #17
 4d8:	0000000c 	andeq	r0, r0, ip
 4dc:	00000014 	andeq	r0, r0, r4, lsl r0
 4e0:	000004bc 			; <UNDEFINED> instruction: 0x000004bc
 4e4:	0000988c 	andeq	r9, r0, ip, lsl #17
 4e8:	00000024 	andeq	r0, r0, r4, lsr #32
 4ec:	84080e42 	strhi	r0, [r8], #-3650	; 0xfffff1be
 4f0:	00018e02 	andeq	r8, r1, r2, lsl #28
 4f4:	0000001c 	andeq	r0, r0, ip, lsl r0
 4f8:	000004bc 			; <UNDEFINED> instruction: 0x000004bc
 4fc:	000098b0 			; <UNDEFINED> instruction: 0x000098b0
 500:	00000048 	andeq	r0, r0, r8, asr #32
 504:	84180e42 	ldrhi	r0, [r8], #-3650	; 0xfffff1be
 508:	86058506 	strhi	r8, [r5], -r6, lsl #10
 50c:	88038704 	stmdahi	r3, {r2, r8, r9, sl, pc}
 510:	00018e02 	andeq	r8, r1, r2, lsl #28
 514:	0000001c 	andeq	r0, r0, ip, lsl r0
 518:	000004bc 			; <UNDEFINED> instruction: 0x000004bc
 51c:	000098f8 	strdeq	r9, [r0], -r8
 520:	00000050 	andeq	r0, r0, r0, asr r0
 524:	84180e42 	ldrhi	r0, [r8], #-3650	; 0xfffff1be
 528:	86058506 	strhi	r8, [r5], -r6, lsl #10
 52c:	88038704 	stmdahi	r3, {r2, r8, r9, sl, pc}
 530:	00018e02 	andeq	r8, r1, r2, lsl #28
 534:	0000001c 	andeq	r0, r0, ip, lsl r0
 538:	000004bc 			; <UNDEFINED> instruction: 0x000004bc
 53c:	00009948 	andeq	r9, r0, r8, asr #18
 540:	00000054 	andeq	r0, r0, r4, asr r0
 544:	84180e42 	ldrhi	r0, [r8], #-3650	; 0xfffff1be
 548:	86058506 	strhi	r8, [r5], -r6, lsl #10
 54c:	88038704 	stmdahi	r3, {r2, r8, r9, sl, pc}
 550:	00018e02 	andeq	r8, r1, r2, lsl #28
 554:	0000000c 	andeq	r0, r0, ip
 558:	ffffffff 			; <UNDEFINED> instruction: 0xffffffff
 55c:	7c020001 	stcvc	0, cr0, [r2], {1}
 560:	000d0c0e 	andeq	r0, sp, lr, lsl #24
 564:	00000018 	andeq	r0, r0, r8, lsl r0
 568:	00000554 	andeq	r0, r0, r4, asr r5
 56c:	0000999c 	muleq	r0, ip, r9
 570:	00000020 	andeq	r0, r0, r0, lsr #32
 574:	84100e42 	ldrhi	r0, [r0], #-3650	; 0xfffff1be
 578:	86038504 	strhi	r8, [r3], -r4, lsl #10
 57c:	00018e02 	andeq	r8, r1, r2, lsl #28
 580:	00000018 	andeq	r0, r0, r8, lsl r0
 584:	00000554 	andeq	r0, r0, r4, asr r5
 588:	000099bc 			; <UNDEFINED> instruction: 0x000099bc
 58c:	00000020 	andeq	r0, r0, r0, lsr #32
 590:	84100e42 	ldrhi	r0, [r0], #-3650	; 0xfffff1be
 594:	86038504 	strhi	r8, [r3], -r4, lsl #10
 598:	00018e02 	andeq	r8, r1, r2, lsl #28
 59c:	00000014 	andeq	r0, r0, r4, lsl r0
 5a0:	00000554 	andeq	r0, r0, r4, asr r5
 5a4:	000099dc 	ldrdeq	r9, [r0], -ip
 5a8:	000000b0 	strheq	r0, [r0], -r0	; <UNPREDICTABLE>
 5ac:	84080e42 	strhi	r0, [r8], #-3650	; 0xfffff1be
 5b0:	00018e02 	andeq	r8, r1, r2, lsl #28
 5b4:	00000014 	andeq	r0, r0, r4, lsl r0
 5b8:	00000554 	andeq	r0, r0, r4, asr r5
 5bc:	00009a8c 	andeq	r9, r0, ip, lsl #21
 5c0:	00000018 	andeq	r0, r0, r8, lsl r0
 5c4:	84080e42 	strhi	r0, [r8], #-3650	; 0xfffff1be
 5c8:	00018e02 	andeq	r8, r1, r2, lsl #28
 5cc:	00000014 	andeq	r0, r0, r4, lsl r0
 5d0:	00000554 	andeq	r0, r0, r4, asr r5
 5d4:	00009aa4 	andeq	r9, r0, r4, lsr #21
 5d8:	00000020 	andeq	r0, r0, r0, lsr #32
 5dc:	84080e42 	strhi	r0, [r8], #-3650	; 0xfffff1be
 5e0:	00018e02 	andeq	r8, r1, r2, lsl #28
 5e4:	00000014 	andeq	r0, r0, r4, lsl r0
 5e8:	00000554 	andeq	r0, r0, r4, asr r5
 5ec:	00009ac4 	andeq	r9, r0, r4, asr #21
 5f0:	00000030 	andeq	r0, r0, r0, lsr r0
 5f4:	84080e42 	strhi	r0, [r8], #-3650	; 0xfffff1be
 5f8:	00018e02 	andeq	r8, r1, r2, lsl #28
 5fc:	00000014 	andeq	r0, r0, r4, lsl r0
 600:	00000554 	andeq	r0, r0, r4, asr r5
 604:	00009af4 	strdeq	r9, [r0], -r4
 608:	00000030 	andeq	r0, r0, r0, lsr r0
 60c:	84080e42 	strhi	r0, [r8], #-3650	; 0xfffff1be
 610:	00018e02 	andeq	r8, r1, r2, lsl #28
 614:	00000014 	andeq	r0, r0, r4, lsl r0
 618:	00000554 	andeq	r0, r0, r4, asr r5
 61c:	00009b24 	andeq	r9, r0, r4, lsr #22
 620:	00000010 	andeq	r0, r0, r0, lsl r0
 624:	84080e42 	strhi	r0, [r8], #-3650	; 0xfffff1be
 628:	00018e02 	andeq	r8, r1, r2, lsl #28
 62c:	00000014 	andeq	r0, r0, r4, lsl r0
 630:	00000554 	andeq	r0, r0, r4, asr r5
 634:	00009b34 	andeq	r9, r0, r4, lsr fp
 638:	00000020 	andeq	r0, r0, r0, lsr #32
 63c:	84080e42 	strhi	r0, [r8], #-3650	; 0xfffff1be
 640:	00018e02 	andeq	r8, r1, r2, lsl #28
 644:	00000014 	andeq	r0, r0, r4, lsl r0
 648:	00000554 	andeq	r0, r0, r4, asr r5
 64c:	00009b54 	andeq	r9, r0, r4, asr fp
 650:	00000014 	andeq	r0, r0, r4, lsl r0
 654:	84080e42 	strhi	r0, [r8], #-3650	; 0xfffff1be
 658:	00018e02 	andeq	r8, r1, r2, lsl #28
 65c:	00000014 	andeq	r0, r0, r4, lsl r0
 660:	00000554 	andeq	r0, r0, r4, asr r5
 664:	00009b68 	andeq	r9, r0, r8, ror #22
 668:	00000024 	andeq	r0, r0, r4, lsr #32
 66c:	84080e42 	strhi	r0, [r8], #-3650	; 0xfffff1be
 670:	00018e02 	andeq	r8, r1, r2, lsl #28
 674:	0000000c 	andeq	r0, r0, ip
 678:	ffffffff 			; <UNDEFINED> instruction: 0xffffffff
 67c:	7c020001 	stcvc	0, cr0, [r2], {1}
 680:	000d0c0e 	andeq	r0, sp, lr, lsl #24
 684:	0000000c 	andeq	r0, r0, ip
 688:	00000674 	andeq	r0, r0, r4, ror r6
 68c:	00009b8c 	andeq	r9, r0, ip, lsl #23
 690:	00000010 	andeq	r0, r0, r0, lsl r0
 694:	0000000c 	andeq	r0, r0, ip
 698:	00000674 	andeq	r0, r0, r4, ror r6
 69c:	00009b9c 	muleq	r0, ip, fp
 6a0:	00000010 	andeq	r0, r0, r0, lsl r0
 6a4:	0000000c 	andeq	r0, r0, ip
 6a8:	00000674 	andeq	r0, r0, r4, ror r6
 6ac:	00009bac 	andeq	r9, r0, ip, lsr #23
 6b0:	00000010 	andeq	r0, r0, r0, lsl r0
 6b4:	0000001c 	andeq	r0, r0, ip, lsl r0
 6b8:	00000674 	andeq	r0, r0, r4, ror r6
 6bc:	00009bbc 			; <UNDEFINED> instruction: 0x00009bbc
 6c0:	0000009c 	muleq	r0, ip, r0
 6c4:	8e040e42 	cdphi	14, 0, cr0, cr4, cr2, {2}
 6c8:	100e4201 	andne	r4, lr, r1, lsl #4
 6cc:	040e0a58 	streq	r0, [lr], #-2648	; 0xfffff5a8
 6d0:	00000b42 	andeq	r0, r0, r2, asr #22
 6d4:	00000014 	andeq	r0, r0, r4, lsl r0
 6d8:	00000674 	andeq	r0, r0, r4, ror r6
 6dc:	00009c58 	andeq	r9, r0, r8, asr ip
 6e0:	00000058 	andeq	r0, r0, r8, asr r0
 6e4:	84080e42 	strhi	r0, [r8], #-3650	; 0xfffff1be
 6e8:	00018e02 	andeq	r8, r1, r2, lsl #28
 6ec:	0000001c 	andeq	r0, r0, ip, lsl r0
 6f0:	00000674 	andeq	r0, r0, r4, ror r6
 6f4:	00009cb0 			; <UNDEFINED> instruction: 0x00009cb0
 6f8:	00000098 	muleq	r0, r8, r0
 6fc:	8e040e42 	cdphi	14, 0, cr0, cr4, cr2, {2}
 700:	100e4201 	andne	r4, lr, r1, lsl #4
 704:	040e0a58 	streq	r0, [lr], #-2648	; 0xfffff5a8
 708:	00000b42 	andeq	r0, r0, r2, asr #22
 70c:	00000020 	andeq	r0, r0, r0, lsr #32
 710:	00000674 	andeq	r0, r0, r4, ror r6
 714:	00009d48 	andeq	r9, r0, r8, asr #26
 718:	00000064 	andeq	r0, r0, r4, rrx
 71c:	840c0e42 	strhi	r0, [ip], #-3650	; 0xfffff1be
 720:	8e028503 	cfsh32hi	mvfx8, mvfx2, #3
 724:	180e4201 	stmdane	lr, {r0, r9, lr}
 728:	0c0e0a54 			; <UNDEFINED> instruction: 0x0c0e0a54
 72c:	00000b42 	andeq	r0, r0, r2, asr #22
 730:	0000001c 	andeq	r0, r0, ip, lsl r0
 734:	00000674 	andeq	r0, r0, r4, ror r6
 738:	00009dac 	andeq	r9, r0, ip, lsr #27
 73c:	00000118 	andeq	r0, r0, r8, lsl r1
 740:	8e040e42 	cdphi	14, 0, cr0, cr4, cr2, {2}
 744:	100e4201 	andne	r4, lr, r1, lsl #4
 748:	040e0a6c 	streq	r0, [lr], #-2668	; 0xfffff594
 74c:	00000b42 	andeq	r0, r0, r2, asr #22
 750:	0000000c 	andeq	r0, r0, ip
 754:	00000674 	andeq	r0, r0, r4, ror r6
 758:	00009ec4 	andeq	r9, r0, r4, asr #29
 75c:	00000004 	andeq	r0, r0, r4
 760:	0000000c 	andeq	r0, r0, ip
 764:	00000674 	andeq	r0, r0, r4, ror r6
 768:	00009ec8 	andeq	r9, r0, r8, asr #29
 76c:	00000014 	andeq	r0, r0, r4, lsl r0
 770:	00000014 	andeq	r0, r0, r4, lsl r0
 774:	00000674 	andeq	r0, r0, r4, ror r6
 778:	00009edc 	ldrdeq	r9, [r0], -ip
 77c:	00000060 	andeq	r0, r0, r0, rrx
 780:	8e040e58 	mcrhi	14, 0, r0, cr4, cr8, {2}
 784:	100e4201 	andne	r4, lr, r1, lsl #4
 788:	0000000c 	andeq	r0, r0, ip
 78c:	ffffffff 			; <UNDEFINED> instruction: 0xffffffff
 790:	7c020001 	stcvc	0, cr0, [r2], {1}
 794:	000d0c0e 	andeq	r0, sp, lr, lsl #24
 798:	00000020 	andeq	r0, r0, r0, lsr #32
 79c:	00000788 	andeq	r0, r0, r8, lsl #15
 7a0:	00009f3c 	andeq	r9, r0, ip, lsr pc
 7a4:	00000060 	andeq	r0, r0, r0, rrx
 7a8:	84100e48 	ldrhi	r0, [r0], #-3656	; 0xfffff1b8
 7ac:	86038504 	strhi	r8, [r3], -r4, lsl #10
 7b0:	64018e02 	strvs	r8, [r1], #-3586	; 0xfffff1fe
 7b4:	c4c5c6ce 	strbgt	ip, [r5], #1742	; 0x6ce
 7b8:	0000000e 	andeq	r0, r0, lr
 7bc:	00000020 	andeq	r0, r0, r0, lsr #32
 7c0:	00000788 	andeq	r0, r0, r8, lsl #15
 7c4:	00009f9c 	muleq	r0, ip, pc	; <UNPREDICTABLE>
 7c8:	00000058 	andeq	r0, r0, r8, asr r0
 7cc:	84100e46 	ldrhi	r0, [r0], #-3654	; 0xfffff1ba
 7d0:	86038504 	strhi	r8, [r3], -r4, lsl #10
 7d4:	62018e02 	andvs	r8, r1, #2, 28
 7d8:	c4c5c6ce 	strbgt	ip, [r5], #1742	; 0x6ce
 7dc:	0000000e 	andeq	r0, r0, lr
 7e0:	0000000c 	andeq	r0, r0, ip
 7e4:	00000788 	andeq	r0, r0, r8, lsl #15
 7e8:	00009ff4 	strdeq	r9, [r0], -r4
 7ec:	00000018 	andeq	r0, r0, r8, lsl r0
 7f0:	0000000c 	andeq	r0, r0, ip
 7f4:	00000788 	andeq	r0, r0, r8, lsl #15
 7f8:	0000a00c 	andeq	sl, r0, ip
 7fc:	00000018 	andeq	r0, r0, r8, lsl r0
 800:	00000020 	andeq	r0, r0, r0, lsr #32
 804:	00000788 	andeq	r0, r0, r8, lsl #15
 808:	0000a024 	andeq	sl, r0, r4, lsr #32
 80c:	00000058 	andeq	r0, r0, r8, asr r0
 810:	84100e46 	ldrhi	r0, [r0], #-3654	; 0xfffff1ba
 814:	86038504 	strhi	r8, [r3], -r4, lsl #10
 818:	62018e02 	andvs	r8, r1, #2, 28
 81c:	c4c5c6ce 	strbgt	ip, [r5], #1742	; 0x6ce
 820:	0000000e 	andeq	r0, r0, lr
 824:	0000000c 	andeq	r0, r0, ip
 828:	00000788 	andeq	r0, r0, r8, lsl #15
 82c:	0000a07c 	andeq	sl, r0, ip, ror r0
 830:	00000030 	andeq	r0, r0, r0, lsr r0
 834:	00000014 	andeq	r0, r0, r4, lsl r0
 838:	00000788 	andeq	r0, r0, r8, lsl #15
 83c:	0000a0ac 	andeq	sl, r0, ip, lsr #1
 840:	00000028 	andeq	r0, r0, r8, lsr #32
 844:	84080e42 	strhi	r0, [r8], #-3650	; 0xfffff1be
 848:	00018e02 	andeq	r8, r1, r2, lsl #28
 84c:	0000000c 	andeq	r0, r0, ip
 850:	ffffffff 			; <UNDEFINED> instruction: 0xffffffff
 854:	7c020001 	stcvc	0, cr0, [r2], {1}
 858:	000d0c0e 	andeq	r0, sp, lr, lsl #24
 85c:	00000014 	andeq	r0, r0, r4, lsl r0
 860:	0000084c 	andeq	r0, r0, ip, asr #16
 864:	0000a0d4 	ldrdeq	sl, [r0], -r4
 868:	00000014 	andeq	r0, r0, r4, lsl r0
 86c:	84080e42 	strhi	r0, [r8], #-3650	; 0xfffff1be
 870:	00018e02 	andeq	r8, r1, r2, lsl #28
 874:	0000000c 	andeq	r0, r0, ip
 878:	0000084c 	andeq	r0, r0, ip, asr #16
 87c:	0000a0e8 	andeq	sl, r0, r8, ror #1
 880:	00000018 	andeq	r0, r0, r8, lsl r0
 884:	0000000c 	andeq	r0, r0, ip
 888:	0000084c 	andeq	r0, r0, ip, asr #16
 88c:	0000a100 	andeq	sl, r0, r0, lsl #2
 890:	00000010 	andeq	r0, r0, r0, lsl r0
 894:	0000000c 	andeq	r0, r0, ip
 898:	ffffffff 			; <UNDEFINED> instruction: 0xffffffff
 89c:	7c020001 	stcvc	0, cr0, [r2], {1}
 8a0:	000d0c0e 	andeq	r0, sp, lr, lsl #24
 8a4:	0000000c 	andeq	r0, r0, ip
 8a8:	00000894 	muleq	r0, r4, r8
 8ac:	0000a110 	andeq	sl, r0, r0, lsl r1
 8b0:	0000002c 	andeq	r0, r0, ip, lsr #32
 8b4:	0000000c 	andeq	r0, r0, ip
 8b8:	ffffffff 			; <UNDEFINED> instruction: 0xffffffff
 8bc:	7c020001 	stcvc	0, cr0, [r2], {1}
 8c0:	000d0c0e 	andeq	r0, sp, lr, lsl #24
 8c4:	0000000c 	andeq	r0, r0, ip
 8c8:	000008b4 			; <UNDEFINED> instruction: 0x000008b4
 8cc:	0000a13c 	andeq	sl, r0, ip, lsr r1
 8d0:	00000044 	andeq	r0, r0, r4, asr #32
 8d4:	0000000c 	andeq	r0, r0, ip
 8d8:	ffffffff 			; <UNDEFINED> instruction: 0xffffffff
 8dc:	7c020001 	stcvc	0, cr0, [r2], {1}
 8e0:	000d0c0e 	andeq	r0, sp, lr, lsl #24
 8e4:	0000000c 	andeq	r0, r0, ip
 8e8:	000008d4 	ldrdeq	r0, [r0], -r4
 8ec:	0000a180 	andeq	sl, r0, r0, lsl #3
 8f0:	00000018 	andeq	r0, r0, r8, lsl r0
 8f4:	0000000c 	andeq	r0, r0, ip
 8f8:	ffffffff 			; <UNDEFINED> instruction: 0xffffffff
 8fc:	7c020001 	stcvc	0, cr0, [r2], {1}
 900:	000d0c0e 	andeq	r0, sp, lr, lsl #24
 904:	0000000c 	andeq	r0, r0, ip
 908:	000008f4 	strdeq	r0, [r0], -r4
 90c:	0000a198 	muleq	r0, r8, r1
 910:	00000030 	andeq	r0, r0, r0, lsr r0
 914:	0000000c 	andeq	r0, r0, ip
 918:	ffffffff 			; <UNDEFINED> instruction: 0xffffffff
 91c:	7c020001 	stcvc	0, cr0, [r2], {1}
 920:	000d0c0e 	andeq	r0, sp, lr, lsl #24
 924:	0000000c 	andeq	r0, r0, ip
 928:	00000914 	andeq	r0, r0, r4, lsl r9
 92c:	0000a1c8 	andeq	sl, r0, r8, asr #3
 930:	00000004 	andeq	r0, r0, r4
