
tests-2.0/part1-test5-no-bug.elf:     file format elf32-littlearm


Disassembly of section .text:

00008000 <__code_start__>:
    8000:	e3a00013 	mov	r0, #19, 0
    8004:	e3800080 	orr	r0, r0, #128, 0	; 0x80
    8008:	e129f000 	msr	CPSR_fc, r0
    800c:	e3a01000 	mov	r1, #0, 0
    8010:	ee071f95 	mcr	15, 0, r1, cr7, cr5, {4}
    8014:	e3a0d302 	mov	sp, #134217728	; 0x8000000
    8018:	e3a0b000 	mov	fp, #0, 0
    801c:	eb0005fb 	bl	9810 <_cstart>
    8020:	eb000644 	bl	9938 <rpi_reboot>

00008024 <PUT32>:
    8024:	e5801000 	str	r1, [r0]
    8028:	e12fff1e 	bx	lr

0000802c <GET32>:
    802c:	e5900000 	ldr	r0, [r0]
    8030:	e12fff1e 	bx	lr

00008034 <BRANCHTO>:
    8034:	e12fff10 	bx	r0

00008038 <notmain>:
    8038:	e92d40f0 	push	{r4, r5, r6, r7, lr}
    803c:	e24dd034 	sub	sp, sp, #52, 0	; 0x34
    8040:	e59f00d4 	ldr	r0, [pc, #212]	; 811c <notmain+0xe4>
    8044:	eb00032f 	bl	8d08 <printk>
    8048:	eb00035e 	bl	8dc8 <rpi_rand32>
    804c:	e59f50cc 	ldr	r5, [pc, #204]	; 8120 <notmain+0xe8>
    8050:	e58d5000 	str	r5, [sp]
    8054:	e59f40c8 	ldr	r4, [pc, #200]	; 8124 <notmain+0xec>
    8058:	e58d4004 	str	r4, [sp, #4]
    805c:	e3a03008 	mov	r3, #8, 0
    8060:	e58d3008 	str	r3, [sp, #8]
    8064:	e1a0300d 	mov	r3, sp
    8068:	e893000e 	ldm	r3, {r1, r2, r3}
    806c:	e1a00b00 	lsl	r0, r0, #22
    8070:	e1a00b20 	lsr	r0, r0, #22
    8074:	eb0000c1 	bl	8380 <ckalloc>
    8078:	e1a07000 	mov	r7, r0
    807c:	eb000351 	bl	8dc8 <rpi_rand32>
    8080:	e58d500c 	str	r5, [sp, #12]
    8084:	e58d4010 	str	r4, [sp, #16]
    8088:	e3a03009 	mov	r3, #9, 0
    808c:	e58d3014 	str	r3, [sp, #20]
    8090:	e28d300c 	add	r3, sp, #12, 0
    8094:	e893000e 	ldm	r3, {r1, r2, r3}
    8098:	e1a00b00 	lsl	r0, r0, #22
    809c:	e1a00b20 	lsr	r0, r0, #22
    80a0:	eb0000b6 	bl	8380 <ckalloc>
    80a4:	e1a06000 	mov	r6, r0
    80a8:	e58d5018 	str	r5, [sp, #24]
    80ac:	e58d401c 	str	r4, [sp, #28]
    80b0:	e3a0300a 	mov	r3, #10, 0
    80b4:	e58d3020 	str	r3, [sp, #32]
    80b8:	e28d3018 	add	r3, sp, #24, 0
    80bc:	e893000e 	ldm	r3, {r1, r2, r3}
    80c0:	e1a00007 	mov	r0, r7
    80c4:	eb000046 	bl	81e4 <ckfree>
    80c8:	e58d5024 	str	r5, [sp, #36]	; 0x24
    80cc:	e58d4028 	str	r4, [sp, #40]	; 0x28
    80d0:	e3a0300b 	mov	r3, #11, 0
    80d4:	e58d302c 	str	r3, [sp, #44]	; 0x2c
    80d8:	e28d3030 	add	r3, sp, #48, 0	; 0x30
    80dc:	e913000e 	ldmdb	r3, {r1, r2, r3}
    80e0:	e1a00006 	mov	r0, r6
    80e4:	eb00003e 	bl	81e4 <ckfree>
    80e8:	eb00027c 	bl	8ae0 <ck_heap_errors>
    80ec:	e3500000 	cmp	r0, #0, 0
    80f0:	1a000003 	bne	8104 <notmain+0xcc>
    80f4:	e59f002c 	ldr	r0, [pc, #44]	; 8128 <notmain+0xf0>
    80f8:	eb000302 	bl	8d08 <printk>
    80fc:	e28dd034 	add	sp, sp, #52, 0	; 0x34
    8100:	e8bd80f0 	pop	{r4, r5, r6, r7, pc}
    8104:	e3a0300e 	mov	r3, #14, 0
    8108:	e1a02004 	mov	r2, r4
    810c:	e1a01005 	mov	r1, r5
    8110:	e59f0014 	ldr	r0, [pc, #20]	; 812c <notmain+0xf4>
    8114:	eb0002fb 	bl	8d08 <printk>
    8118:	eb0005b1 	bl	97e4 <clean_reboot>
    811c:	0000a300 	andeq	sl, r0, r0, lsl #6
    8120:	0000a320 	andeq	sl, r0, r0, lsr #6
    8124:	0000a384 	andeq	sl, r0, r4, lsl #7
    8128:	0000a364 	andeq	sl, r0, r4, ror #6
    812c:	0000a340 	andeq	sl, r0, r0, asr #6

00008130 <ck_first_hdr>:
    8130:	e59f3004 	ldr	r3, [pc, #4]	; 813c <ck_first_hdr+0xc>
    8134:	e5930000 	ldr	r0, [r3]
    8138:	e12fff1e 	bx	lr
    813c:	0000abe8 	andeq	sl, r0, r8, ror #23

00008140 <ck_next_hdr>:
    8140:	e3500000 	cmp	r0, #0, 0
    8144:	15900000 	ldrne	r0, [r0]
    8148:	e12fff1e 	bx	lr

0000814c <ck_hdr_start>:
    814c:	e28000b4 	add	r0, r0, #180, 0	; 0xb4
    8150:	e12fff1e 	bx	lr

00008154 <ck_hdr_end>:
    8154:	e5903004 	ldr	r3, [r0, #4]
    8158:	e28330b4 	add	r3, r3, #180, 0	; 0xb4
    815c:	e0800003 	add	r0, r0, r3
    8160:	e12fff1e 	bx	lr

00008164 <ck_ptr_in_block>:
    8164:	e5902004 	ldr	r2, [r0, #4]
    8168:	e28220b4 	add	r2, r2, #180, 0	; 0xb4
    816c:	e0802002 	add	r2, r0, r2
    8170:	e28000b4 	add	r0, r0, #180, 0	; 0xb4
    8174:	e1500001 	cmp	r0, r1
    8178:	91510002 	cmpls	r1, r2
    817c:	33a00001 	movcc	r0, #1, 0
    8180:	23a00000 	movcs	r0, #0, 0
    8184:	e12fff1e 	bx	lr

00008188 <ck_ptr_is_alloced>:
    8188:	e92d4070 	push	{r4, r5, r6, lr}
    818c:	e1a05000 	mov	r5, r0
    8190:	e59f3044 	ldr	r3, [pc, #68]	; 81dc <ck_ptr_is_alloced+0x54>
    8194:	e5934000 	ldr	r4, [r3]
    8198:	e3540000 	cmp	r4, #0, 0
    819c:	0a00000c 	beq	81d4 <ck_ptr_is_alloced+0x4c>
    81a0:	e1a01005 	mov	r1, r5
    81a4:	e1a00004 	mov	r0, r4
    81a8:	ebffffed 	bl	8164 <ck_ptr_in_block>
    81ac:	e3500000 	cmp	r0, #0, 0
    81b0:	1a000003 	bne	81c4 <ck_ptr_is_alloced+0x3c>
    81b4:	e5944000 	ldr	r4, [r4]
    81b8:	e3540000 	cmp	r4, #0, 0
    81bc:	1afffff7 	bne	81a0 <ck_ptr_is_alloced+0x18>
    81c0:	ea000003 	b	81d4 <ck_ptr_is_alloced+0x4c>
    81c4:	e1a02004 	mov	r2, r4
    81c8:	e1a01005 	mov	r1, r5
    81cc:	e59f000c 	ldr	r0, [pc, #12]	; 81e0 <ck_ptr_is_alloced+0x58>
    81d0:	eb0002cc 	bl	8d08 <printk>
    81d4:	e1a00004 	mov	r0, r4
    81d8:	e8bd8070 	pop	{r4, r5, r6, pc}
    81dc:	0000abe8 	andeq	sl, r0, r8, ror #23
    81e0:	0000a38c 	andeq	sl, r0, ip, lsl #7

000081e4 <ckfree>:
    81e4:	e92d40f0 	push	{r4, r5, r6, r7, lr}
    81e8:	e24dd01c 	sub	sp, sp, #28, 0
    81ec:	e1a04000 	mov	r4, r0
    81f0:	e28d0018 	add	r0, sp, #24, 0
    81f4:	e900000e 	stmdb	r0, {r1, r2, r3}
    81f8:	e59d700c 	ldr	r7, [sp, #12]
    81fc:	e59d6010 	ldr	r6, [sp, #16]
    8200:	e59d5014 	ldr	r5, [sp, #20]
    8204:	e5047098 	str	r7, [r4, #-152]	; 0xffffff68
    8208:	e5046094 	str	r6, [r4, #-148]	; 0xffffff6c
    820c:	e5045090 	str	r5, [r4, #-144]	; 0xffffff70
    8210:	e1a03005 	mov	r3, r5
    8214:	e1a02006 	mov	r2, r6
    8218:	e1a01007 	mov	r1, r7
    821c:	e59f0134 	ldr	r0, [pc, #308]	; 8358 <ckfree+0x174>
    8220:	eb0002b8 	bl	8d08 <printk>
    8224:	e1a01004 	mov	r1, r4
    8228:	e59f012c 	ldr	r0, [pc, #300]	; 835c <ckfree+0x178>
    822c:	eb0002b5 	bl	8d08 <printk>
    8230:	e51430ac 	ldr	r3, [r4, #-172]	; 0xffffff54
    8234:	e353000b 	cmp	r3, #11, 0
    8238:	02442083 	subeq	r2, r4, #131, 0	; 0x83
    823c:	01a0c004 	moveq	ip, r4
    8240:	0244e003 	subeq	lr, r4, #3, 0
    8244:	1a000022 	bne	82d4 <ckfree+0xf0>
    8248:	e1a03002 	mov	r3, r2
    824c:	e5f21001 	ldrb	r1, [r2, #1]!
    8250:	e35100fe 	cmp	r1, #254, 0	; 0xfe
    8254:	1a000027 	bne	82f8 <ckfree+0x114>
    8258:	e51410b0 	ldr	r1, [r4, #-176]	; 0xffffff50
    825c:	e2833083 	add	r3, r3, #131, 0	; 0x83
    8260:	e043300c 	sub	r3, r3, ip
    8264:	e0840001 	add	r0, r4, r1
    8268:	e7d03003 	ldrb	r3, [r0, r3]
    826c:	e35300fe 	cmp	r3, #254, 0	; 0xfe
    8270:	1a000028 	bne	8318 <ckfree+0x134>
    8274:	e152000e 	cmp	r2, lr
    8278:	1afffff2 	bne	8248 <ckfree+0x64>
    827c:	e3510000 	cmp	r1, #0, 0
    8280:	0a000008 	beq	82a8 <ckfree+0xc4>
    8284:	e2442001 	sub	r2, r4, #1, 0
    8288:	e3e00001 	mvn	r0, #1, 0
    828c:	e1a03002 	mov	r3, r2
    8290:	e5e20001 	strb	r0, [r2, #1]!
    8294:	e2833002 	add	r3, r3, #2, 0
    8298:	e043300c 	sub	r3, r3, ip
    829c:	e51410b0 	ldr	r1, [r4, #-176]	; 0xffffff50
    82a0:	e1510003 	cmp	r1, r3
    82a4:	8afffff8 	bhi	828c <ckfree+0xa8>
    82a8:	e3a0300c 	mov	r3, #12, 0
    82ac:	e50430ac 	str	r3, [r4, #-172]	; 0xffffff54
    82b0:	e5047098 	str	r7, [r4, #-152]	; 0xffffff68
    82b4:	e5046094 	str	r6, [r4, #-148]	; 0xffffff6c
    82b8:	e5045090 	str	r5, [r4, #-144]	; 0xffffff70
    82bc:	e1a00004 	mov	r0, r4
    82c0:	ebffffb0 	bl	8188 <ck_ptr_is_alloced>
    82c4:	e3500000 	cmp	r0, #0, 0
    82c8:	0a00001a 	beq	8338 <ckfree+0x154>
    82cc:	e28dd01c 	add	sp, sp, #28, 0
    82d0:	e8bd80f0 	pop	{r4, r5, r6, r7, pc}
    82d4:	e1a03005 	mov	r3, r5
    82d8:	e1a02006 	mov	r2, r6
    82dc:	e1a01007 	mov	r1, r7
    82e0:	e59f0078 	ldr	r0, [pc, #120]	; 8360 <ckfree+0x17c>
    82e4:	eb000287 	bl	8d08 <printk>
    82e8:	e51410ac 	ldr	r1, [r4, #-172]	; 0xffffff54
    82ec:	e59f0070 	ldr	r0, [pc, #112]	; 8364 <ckfree+0x180>
    82f0:	eb000284 	bl	8d08 <printk>
    82f4:	eb00053a 	bl	97e4 <clean_reboot>
    82f8:	e1a03005 	mov	r3, r5
    82fc:	e1a02006 	mov	r2, r6
    8300:	e1a01007 	mov	r1, r7
    8304:	e59f0054 	ldr	r0, [pc, #84]	; 8360 <ckfree+0x17c>
    8308:	eb00027e 	bl	8d08 <printk>
    830c:	e59f0054 	ldr	r0, [pc, #84]	; 8368 <ckfree+0x184>
    8310:	eb00027c 	bl	8d08 <printk>
    8314:	eb000532 	bl	97e4 <clean_reboot>
    8318:	e1a03005 	mov	r3, r5
    831c:	e1a02006 	mov	r2, r6
    8320:	e1a01007 	mov	r1, r7
    8324:	e59f0034 	ldr	r0, [pc, #52]	; 8360 <ckfree+0x17c>
    8328:	eb000276 	bl	8d08 <printk>
    832c:	e59f0038 	ldr	r0, [pc, #56]	; 836c <ckfree+0x188>
    8330:	eb000274 	bl	8d08 <printk>
    8334:	eb00052a 	bl	97e4 <clean_reboot>
    8338:	e59f3030 	ldr	r3, [pc, #48]	; 8370 <ckfree+0x18c>
    833c:	e58d3000 	str	r3, [sp]
    8340:	e3a0306d 	mov	r3, #109, 0	; 0x6d
    8344:	e59f2028 	ldr	r2, [pc, #40]	; 8374 <ckfree+0x190>
    8348:	e59f1028 	ldr	r1, [pc, #40]	; 8378 <ckfree+0x194>
    834c:	e59f0028 	ldr	r0, [pc, #40]	; 837c <ckfree+0x198>
    8350:	eb00026c 	bl	8d08 <printk>
    8354:	eb000522 	bl	97e4 <clean_reboot>
    8358:	0000a39c 	muleq	r0, ip, r3
    835c:	0000a3a8 	andeq	sl, r0, r8, lsr #7
    8360:	0000a3b8 			; <UNDEFINED> instruction: 0x0000a3b8
    8364:	0000a3d0 	ldrdeq	sl, [r0], -r0
    8368:	0000a3f8 	strdeq	sl, [r0], -r8
    836c:	0000a414 	andeq	sl, r0, r4, lsl r4
    8370:	0000a450 	andeq	sl, r0, r0, asr r4
    8374:	0000a484 	andeq	sl, r0, r4, lsl #9
    8378:	0000a430 	andeq	sl, r0, r0, lsr r4
    837c:	0000a43c 	andeq	sl, r0, ip, lsr r4

00008380 <ckalloc>:
    8380:	e92d4070 	push	{r4, r5, r6, lr}
    8384:	e24dd010 	sub	sp, sp, #16, 0
    8388:	e1a05000 	mov	r5, r0
    838c:	e28d0010 	add	r0, sp, #16, 0
    8390:	e900000e 	stmdb	r0, {r1, r2, r3}
    8394:	e2850f4d 	add	r0, r5, #308	; 0x134
    8398:	eb000050 	bl	84e0 <kr_malloc>
    839c:	e1a04000 	mov	r4, r0
    83a0:	e3a020b4 	mov	r2, #180, 0	; 0xb4
    83a4:	e3a01000 	mov	r1, #0, 0
    83a8:	eb000238 	bl	8c90 <memset>
    83ac:	e2843031 	add	r3, r4, #49, 0	; 0x31
    83b0:	e28520b3 	add	r2, r5, #179, 0	; 0xb3
    83b4:	e0842002 	add	r2, r4, r2
    83b8:	e284c0b1 	add	ip, r4, #177, 0	; 0xb1
    83bc:	e3e01001 	mvn	r1, #1, 0
    83c0:	e5e31001 	strb	r1, [r3, #1]!
    83c4:	e5e21001 	strb	r1, [r2, #1]!
    83c8:	e153000c 	cmp	r3, ip
    83cc:	1afffffb 	bne	83c0 <ckalloc+0x40>
    83d0:	e5845004 	str	r5, [r4, #4]
    83d4:	e3a0300b 	mov	r3, #11, 0
    83d8:	e5843008 	str	r3, [r4, #8]
    83dc:	e2843010 	add	r3, r4, #16, 0
    83e0:	e28d2010 	add	r2, sp, #16, 0
    83e4:	e9120007 	ldmdb	r2, {r0, r1, r2}
    83e8:	e8830007 	stm	r3, {r0, r1, r2}
    83ec:	e59d300c 	ldr	r3, [sp, #12]
    83f0:	e59d2008 	ldr	r2, [sp, #8]
    83f4:	e59d1004 	ldr	r1, [sp, #4]
    83f8:	e59f0030 	ldr	r0, [pc, #48]	; 8430 <ckalloc+0xb0>
    83fc:	eb000241 	bl	8d08 <printk>
    8400:	e28460b4 	add	r6, r4, #180, 0	; 0xb4
    8404:	e1a02005 	mov	r2, r5
    8408:	e1a01006 	mov	r1, r6
    840c:	e59f0020 	ldr	r0, [pc, #32]	; 8434 <ckalloc+0xb4>
    8410:	eb00023c 	bl	8d08 <printk>
    8414:	e59f301c 	ldr	r3, [pc, #28]	; 8438 <ckalloc+0xb8>
    8418:	e5932000 	ldr	r2, [r3]
    841c:	e5842000 	str	r2, [r4]
    8420:	e5834000 	str	r4, [r3]
    8424:	e1a00006 	mov	r0, r6
    8428:	e28dd010 	add	sp, sp, #16, 0
    842c:	e8bd8070 	pop	{r4, r5, r6, pc}
    8430:	0000a39c 	muleq	r0, ip, r3
    8434:	0000a468 	andeq	sl, r0, r8, ror #8
    8438:	0000abe8 	andeq	sl, r0, r8, ror #23

0000843c <kr_free>:
    843c:	e52de004 	push	{lr}		; (str lr, [sp, #-4]!)
    8440:	e2401008 	sub	r1, r0, #8, 0
    8444:	e59f3090 	ldr	r3, [pc, #144]	; 84dc <kr_free+0xa0>
    8448:	e5933000 	ldr	r3, [r3]
    844c:	ea000005 	b	8468 <kr_free+0x2c>
    8450:	e5932000 	ldr	r2, [r3]
    8454:	e1520003 	cmp	r2, r3
    8458:	8a000001 	bhi	8464 <kr_free+0x28>
    845c:	e1520001 	cmp	r2, r1
    8460:	8a000007 	bhi	8484 <kr_free+0x48>
    8464:	e1a03002 	mov	r3, r2
    8468:	e1530001 	cmp	r3, r1
    846c:	2afffff7 	bcs	8450 <kr_free+0x14>
    8470:	e5932000 	ldr	r2, [r3]
    8474:	e1520001 	cmp	r2, r1
    8478:	8a000001 	bhi	8484 <kr_free+0x48>
    847c:	e1520003 	cmp	r2, r3
    8480:	8afffff7 	bhi	8464 <kr_free+0x28>
    8484:	e510c004 	ldr	ip, [r0, #-4]
    8488:	e5932000 	ldr	r2, [r3]
    848c:	e081e18c 	add	lr, r1, ip, lsl #3
    8490:	e152000e 	cmp	r2, lr
    8494:	05922004 	ldreq	r2, [r2, #4]
    8498:	0082c00c 	addeq	ip, r2, ip
    849c:	0500c004 	streq	ip, [r0, #-4]
    84a0:	05932000 	ldreq	r2, [r3]
    84a4:	05922000 	ldreq	r2, [r2]
    84a8:	e5002008 	str	r2, [r0, #-8]
    84ac:	e5932004 	ldr	r2, [r3, #4]
    84b0:	e083c182 	add	ip, r3, r2, lsl #3
    84b4:	e151000c 	cmp	r1, ip
    84b8:	05101004 	ldreq	r1, [r0, #-4]
    84bc:	00812002 	addeq	r2, r1, r2
    84c0:	05832004 	streq	r2, [r3, #4]
    84c4:	05102008 	ldreq	r2, [r0, #-8]
    84c8:	05832000 	streq	r2, [r3]
    84cc:	15831000 	strne	r1, [r3]
    84d0:	e59f2004 	ldr	r2, [pc, #4]	; 84dc <kr_free+0xa0>
    84d4:	e5823000 	str	r3, [r2]
    84d8:	e49df004 	pop	{pc}		; (ldr pc, [sp], #4)
    84dc:	0000abf0 	strdeq	sl, [r0], -r0

000084e0 <kr_malloc>:
    84e0:	e92d41f0 	push	{r4, r5, r6, r7, r8, lr}
    84e4:	e2804007 	add	r4, r0, #7, 0
    84e8:	e1a041a4 	lsr	r4, r4, #3
    84ec:	e2844001 	add	r4, r4, #1, 0
    84f0:	e59f30cc 	ldr	r3, [pc, #204]	; 85c4 <kr_malloc+0xe4>
    84f4:	e5930000 	ldr	r0, [r3]
    84f8:	e3500000 	cmp	r0, #0, 0
    84fc:	0a000007 	beq	8520 <kr_malloc+0x40>
    8500:	e5903000 	ldr	r3, [r0]
    8504:	e5932004 	ldr	r2, [r3, #4]
    8508:	e1540002 	cmp	r4, r2
    850c:	9a00000a 	bls	853c <kr_malloc+0x5c>
    8510:	e59f50ac 	ldr	r5, [pc, #172]	; 85c4 <kr_malloc+0xe4>
    8514:	e59f70ac 	ldr	r7, [pc, #172]	; 85c8 <kr_malloc+0xe8>
    8518:	e3a06902 	mov	r6, #32768	; 0x8000
    851c:	ea00001b 	b	8590 <kr_malloc+0xb0>
    8520:	e1a02003 	mov	r2, r3
    8524:	e2833008 	add	r3, r3, #8, 0
    8528:	e5823000 	str	r3, [r2]
    852c:	e5823008 	str	r3, [r2, #8]
    8530:	e3a01000 	mov	r1, #0, 0
    8534:	e582100c 	str	r1, [r2, #12]
    8538:	eafffff4 	b	8510 <kr_malloc+0x30>
    853c:	e1540002 	cmp	r4, r2
    8540:	05932000 	ldreq	r2, [r3]
    8544:	05802000 	streq	r2, [r0]
    8548:	10422004 	subne	r2, r2, r4
    854c:	15832004 	strne	r2, [r3, #4]
    8550:	10833182 	addne	r3, r3, r2, lsl #3
    8554:	15834004 	strne	r4, [r3, #4]
    8558:	e59f2064 	ldr	r2, [pc, #100]	; 85c4 <kr_malloc+0xe4>
    855c:	e5820000 	str	r0, [r2]
    8560:	e2830008 	add	r0, r3, #8, 0
    8564:	e8bd81f0 	pop	{r4, r5, r6, r7, r8, pc}
    8568:	e5806004 	str	r6, [r0, #4]
    856c:	e2800008 	add	r0, r0, #8, 0
    8570:	ebffffb1 	bl	843c <kr_free>
    8574:	e5950000 	ldr	r0, [r5]
    8578:	e3500000 	cmp	r0, #0, 0
    857c:	08bd81f0 	popeq	{r4, r5, r6, r7, r8, pc}
    8580:	e5903000 	ldr	r3, [r0]
    8584:	e5932004 	ldr	r2, [r3, #4]
    8588:	e1520004 	cmp	r2, r4
    858c:	2affffea 	bcs	853c <kr_malloc+0x5c>
    8590:	e5952000 	ldr	r2, [r5]
    8594:	e1520003 	cmp	r2, r3
    8598:	11a00003 	movne	r0, r3
    859c:	1afffff7 	bne	8580 <kr_malloc+0xa0>
    85a0:	e1a01006 	mov	r1, r6
    85a4:	e1a00007 	mov	r0, r7
    85a8:	eb0001d6 	bl	8d08 <printk>
    85ac:	e3a00701 	mov	r0, #262144	; 0x40000
    85b0:	eb000115 	bl	8a0c <sbrk>
    85b4:	e3700001 	cmn	r0, #1, 0
    85b8:	1affffea 	bne	8568 <kr_malloc+0x88>
    85bc:	e3a00000 	mov	r0, #0, 0
    85c0:	e8bd81f0 	pop	{r4, r5, r6, r7, r8, pc}
    85c4:	0000abf0 	strdeq	sl, [r0], -r0
    85c8:	0000a48c 	andeq	sl, r0, ip, lsl #9

000085cc <in_heap>:
    85cc:	e59f3030 	ldr	r3, [pc, #48]	; 8604 <in_heap+0x38>
    85d0:	e5933000 	ldr	r3, [r3]
    85d4:	e1530000 	cmp	r3, r0
    85d8:	8a000005 	bhi	85f4 <in_heap+0x28>
    85dc:	e59f3020 	ldr	r3, [pc, #32]	; 8604 <in_heap+0x38>
    85e0:	e5933004 	ldr	r3, [r3, #4]
    85e4:	e1530000 	cmp	r3, r0
    85e8:	9a000003 	bls	85fc <in_heap+0x30>
    85ec:	e3a00001 	mov	r0, #1, 0
    85f0:	e12fff1e 	bx	lr
    85f4:	e3a00000 	mov	r0, #0, 0
    85f8:	e12fff1e 	bx	lr
    85fc:	e3a00000 	mov	r0, #0, 0
    8600:	e12fff1e 	bx	lr
    8604:	0000ac00 	andeq	sl, r0, r0, lsl #24

00008608 <is_ptr>:
    8608:	e92d4010 	push	{r4, lr}
    860c:	e1a04000 	mov	r4, r0
    8610:	ebffffed 	bl	85cc <in_heap>
    8614:	e3500000 	cmp	r0, #0, 0
    8618:	0a000002 	beq	8628 <is_ptr+0x20>
    861c:	e1a00004 	mov	r0, r4
    8620:	ebfffed8 	bl	8188 <ck_ptr_is_alloced>
    8624:	e8bd8010 	pop	{r4, pc}
    8628:	e3a00000 	mov	r0, #0, 0
    862c:	e8bd8010 	pop	{r4, pc}

00008630 <mark>:
    8630:	e92d41f0 	push	{r4, r5, r6, r7, r8, lr}
    8634:	e24dd008 	sub	sp, sp, #8, 0
    8638:	e1500001 	cmp	r0, r1
    863c:	2a00000d 	bcs	8678 <mark+0x48>
    8640:	e1a04000 	mov	r4, r0
    8644:	e1a06001 	mov	r6, r1
    8648:	e3100003 	tst	r0, #3, 0
    864c:	1a000011 	bne	8698 <mark+0x68>
    8650:	e3110003 	tst	r1, #3, 0
    8654:	0a00001f 	beq	86d8 <mark+0xa8>
    8658:	e59f3114 	ldr	r3, [pc, #276]	; 8774 <mark+0x144>
    865c:	e58d3000 	str	r3, [sp]
    8660:	e3a03056 	mov	r3, #86, 0	; 0x56
    8664:	e59f210c 	ldr	r2, [pc, #268]	; 8778 <mark+0x148>
    8668:	e59f110c 	ldr	r1, [pc, #268]	; 877c <mark+0x14c>
    866c:	e59f010c 	ldr	r0, [pc, #268]	; 8780 <mark+0x150>
    8670:	eb0001a4 	bl	8d08 <printk>
    8674:	eb00045a 	bl	97e4 <clean_reboot>
    8678:	e59f3104 	ldr	r3, [pc, #260]	; 8784 <mark+0x154>
    867c:	e58d3000 	str	r3, [sp]
    8680:	e3a03052 	mov	r3, #82, 0	; 0x52
    8684:	e59f20ec 	ldr	r2, [pc, #236]	; 8778 <mark+0x148>
    8688:	e59f10ec 	ldr	r1, [pc, #236]	; 877c <mark+0x14c>
    868c:	e59f00ec 	ldr	r0, [pc, #236]	; 8780 <mark+0x150>
    8690:	eb00019c 	bl	8d08 <printk>
    8694:	eb000452 	bl	97e4 <clean_reboot>
    8698:	e59f30e8 	ldr	r3, [pc, #232]	; 8788 <mark+0x158>
    869c:	e58d3000 	str	r3, [sp]
    86a0:	e3a03055 	mov	r3, #85, 0	; 0x55
    86a4:	e59f20cc 	ldr	r2, [pc, #204]	; 8778 <mark+0x148>
    86a8:	e59f10cc 	ldr	r1, [pc, #204]	; 877c <mark+0x14c>
    86ac:	e59f00cc 	ldr	r0, [pc, #204]	; 8780 <mark+0x150>
    86b0:	eb000194 	bl	8d08 <printk>
    86b4:	eb00044a 	bl	97e4 <clean_reboot>
    86b8:	e3a03002 	mov	r3, #2, 0
    86bc:	ea00001b 	b	8730 <mark+0x100>
    86c0:	e3a01002 	mov	r1, #2, 0
    86c4:	e59f00c0 	ldr	r0, [pc, #192]	; 878c <mark+0x15c>
    86c8:	eb00018e 	bl	8d08 <printk>
    86cc:	e3580000 	cmp	r8, #0, 0
    86d0:	0a00001c 	beq	8748 <mark+0x118>
    86d4:	e2844004 	add	r4, r4, #4, 0
    86d8:	e1540006 	cmp	r4, r6
    86dc:	8a000022 	bhi	876c <mark+0x13c>
    86e0:	e5940000 	ldr	r0, [r4]
    86e4:	ebffffc7 	bl	8608 <is_ptr>
    86e8:	e2505000 	subs	r5, r0, #0, 0
    86ec:	0afffff8 	beq	86d4 <mark+0xa4>
    86f0:	e28570b4 	add	r7, r5, #180, 0	; 0xb4
    86f4:	e1d583b0 	ldrh	r8, [r5, #48]	; 0x30
    86f8:	e1a00005 	mov	r0, r5
    86fc:	ebfffe92 	bl	814c <ck_hdr_start>
    8700:	e1a01000 	mov	r1, r0
    8704:	e58d7000 	str	r7, [sp]
    8708:	e5943000 	ldr	r3, [r4]
    870c:	e1a02004 	mov	r2, r4
    8710:	e59f0078 	ldr	r0, [pc, #120]	; 8790 <mark+0x160>
    8714:	eb00017b 	bl	8d08 <printk>
    8718:	e3580001 	cmp	r8, #1, 0
    871c:	8a00000f 	bhi	8760 <mark+0x130>
    8720:	e5943000 	ldr	r3, [r4]
    8724:	e1530007 	cmp	r3, r7
    8728:	0affffe2 	beq	86b8 <mark+0x88>
    872c:	e3a03001 	mov	r3, #1, 0
    8730:	e1c533b0 	strh	r3, [r5, #48]	; 0x30
    8734:	e5943000 	ldr	r3, [r4]
    8738:	e1530007 	cmp	r3, r7
    873c:	0affffdf 	beq	86c0 <mark+0x90>
    8740:	e3a01001 	mov	r1, #1, 0
    8744:	eaffffde 	b	86c4 <mark+0x94>
    8748:	e5951004 	ldr	r1, [r5, #4]
    874c:	e28110b4 	add	r1, r1, #180, 0	; 0xb4
    8750:	e0851001 	add	r1, r5, r1
    8754:	e2850004 	add	r0, r5, #4, 0
    8758:	ebffffb4 	bl	8630 <mark>
    875c:	eaffffdc 	b	86d4 <mark+0xa4>
    8760:	e59f002c 	ldr	r0, [pc, #44]	; 8794 <mark+0x164>
    8764:	eb000167 	bl	8d08 <printk>
    8768:	eaffffd9 	b	86d4 <mark+0xa4>
    876c:	e28dd008 	add	sp, sp, #8, 0
    8770:	e8bd81f0 	pop	{r4, r5, r6, r7, r8, pc}
    8774:	0000a4d0 	ldrdeq	sl, [r0], -r0
    8778:	0000a810 	andeq	sl, r0, r0, lsl r8
    877c:	0000a4b0 			; <UNDEFINED> instruction: 0x0000a4b0
    8780:	0000a43c 	andeq	sl, r0, ip, lsr r4
    8784:	0000a4b8 			; <UNDEFINED> instruction: 0x0000a4b8
    8788:	0000a4c0 	andeq	sl, r0, r0, asr #9
    878c:	0000a50c 	andeq	sl, r0, ip, lsl #10
    8790:	0000a4e0 	andeq	sl, r0, r0, ror #9
    8794:	0000a51c 	andeq	sl, r0, ip, lsl r5

00008798 <mark_all>:
    8798:	e52de004 	push	{lr}		; (str lr, [sp, #-4]!)
    879c:	e24dd044 	sub	sp, sp, #68, 0	; 0x44
    87a0:	ebfffe62 	bl	8130 <ck_first_hdr>
    87a4:	e3500000 	cmp	r0, #0, 0
    87a8:	0a000005 	beq	87c4 <mark_all+0x2c>
    87ac:	e3a03000 	mov	r3, #0, 0
    87b0:	e580302c 	str	r3, [r0, #44]	; 0x2c
    87b4:	e5803028 	str	r3, [r0, #40]	; 0x28
    87b8:	e1c033b0 	strh	r3, [r0, #48]	; 0x30
    87bc:	ebfffe5f 	bl	8140 <ck_next_hdr>
    87c0:	eafffff7 	b	87a4 <mark_all+0xc>
    87c4:	e1a0000d 	mov	r0, sp
    87c8:	eb00012e 	bl	8c88 <dump_regs>
    87cc:	e3a03000 	mov	r3, #0, 0
    87d0:	e58d3000 	str	r3, [sp]
    87d4:	e58d3004 	str	r3, [sp, #4]
    87d8:	e58d3008 	str	r3, [sp, #8]
    87dc:	e58d300c 	str	r3, [sp, #12]
    87e0:	e28d1038 	add	r1, sp, #56, 0	; 0x38
    87e4:	e1a0000d 	mov	r0, sp
    87e8:	ebffff90 	bl	8630 <mark>
    87ec:	e3a02302 	mov	r2, #134217728	; 0x8000000
    87f0:	e59d1034 	ldr	r1, [sp, #52]	; 0x34
    87f4:	e59f002c 	ldr	r0, [pc, #44]	; 8828 <mark_all+0x90>
    87f8:	eb000142 	bl	8d08 <printk>
    87fc:	e3a01302 	mov	r1, #134217728	; 0x8000000
    8800:	e59d0034 	ldr	r0, [sp, #52]	; 0x34
    8804:	ebffff89 	bl	8630 <mark>
    8808:	e59f101c 	ldr	r1, [pc, #28]	; 882c <mark_all+0x94>
    880c:	e59f001c 	ldr	r0, [pc, #28]	; 8830 <mark_all+0x98>
    8810:	ebffff86 	bl	8630 <mark>
    8814:	e59f1018 	ldr	r1, [pc, #24]	; 8834 <mark_all+0x9c>
    8818:	e59f0018 	ldr	r0, [pc, #24]	; 8838 <mark_all+0xa0>
    881c:	ebffff83 	bl	8630 <mark>
    8820:	e28dd044 	add	sp, sp, #68, 0	; 0x44
    8824:	e49df004 	pop	{pc}		; (ldr pc, [sp], #4)
    8828:	0000a52c 	andeq	sl, r0, ip, lsr #10
    882c:	0000b010 	andeq	fp, r0, r0, lsl r0
    8830:	0000abe8 	andeq	sl, r0, r8, ror #23
    8834:	0000abe4 	andeq	sl, r0, r4, ror #23
    8838:	0000abcc 	andeq	sl, r0, ip, asr #23

0000883c <sweep_leak>:
    883c:	e92d41f0 	push	{r4, r5, r6, r7, r8, lr}
    8840:	e1a08000 	mov	r8, r0
    8844:	e59f00c4 	ldr	r0, [pc, #196]	; 8910 <sweep_leak+0xd4>
    8848:	eb00012e 	bl	8d08 <printk>
    884c:	e59f00c0 	ldr	r0, [pc, #192]	; 8914 <sweep_leak+0xd8>
    8850:	eb00012c 	bl	8d08 <printk>
    8854:	ebffffcf 	bl	8798 <mark_all>
    8858:	ebfffe34 	bl	8130 <ck_first_hdr>
    885c:	e1a04000 	mov	r4, r0
    8860:	e3a07000 	mov	r7, #0, 0
    8864:	e1a06007 	mov	r6, r7
    8868:	e1a05007 	mov	r5, r7
    886c:	ea000007 	b	8890 <sweep_leak+0x54>
    8870:	e2866001 	add	r6, r6, #1, 0
    8874:	e1a02004 	mov	r2, r4
    8878:	e1a01005 	mov	r1, r5
    887c:	e59f0094 	ldr	r0, [pc, #148]	; 8918 <sweep_leak+0xdc>
    8880:	eb000120 	bl	8d08 <printk>
    8884:	e1a00004 	mov	r0, r4
    8888:	ebfffe2c 	bl	8140 <ck_next_hdr>
    888c:	e1a04000 	mov	r4, r0
    8890:	e3540000 	cmp	r4, #0, 0
    8894:	0a00000b 	beq	88c8 <sweep_leak+0x8c>
    8898:	e2855001 	add	r5, r5, #1, 0
    889c:	e1d433b0 	ldrh	r3, [r4, #48]	; 0x30
    88a0:	e3530000 	cmp	r3, #0, 0
    88a4:	0afffff1 	beq	8870 <sweep_leak+0x34>
    88a8:	e3530001 	cmp	r3, #1, 0
    88ac:	1afffff4 	bne	8884 <sweep_leak+0x48>
    88b0:	e2877001 	add	r7, r7, #1, 0
    88b4:	e1a02004 	mov	r2, r4
    88b8:	e1a01005 	mov	r1, r5
    88bc:	e59f0058 	ldr	r0, [pc, #88]	; 891c <sweep_leak+0xe0>
    88c0:	eb000110 	bl	8d08 <printk>
    88c4:	eaffffee 	b	8884 <sweep_leak+0x48>
    88c8:	e1a01005 	mov	r1, r5
    88cc:	e59f004c 	ldr	r0, [pc, #76]	; 8920 <sweep_leak+0xe4>
    88d0:	eb00010c 	bl	8d08 <printk>
    88d4:	e1963007 	orrs	r3, r6, r7
    88d8:	1a000007 	bne	88fc <sweep_leak+0xc0>
    88dc:	e59f0040 	ldr	r0, [pc, #64]	; 8924 <sweep_leak+0xe8>
    88e0:	eb000108 	bl	8d08 <printk>
    88e4:	e59f003c 	ldr	r0, [pc, #60]	; 8928 <sweep_leak+0xec>
    88e8:	eb000106 	bl	8d08 <printk>
    88ec:	e3580000 	cmp	r8, #0, 0
    88f0:	10866007 	addne	r6, r6, r7
    88f4:	e1a00006 	mov	r0, r6
    88f8:	e8bd81f0 	pop	{r4, r5, r6, r7, r8, pc}
    88fc:	e1a02007 	mov	r2, r7
    8900:	e1a01006 	mov	r1, r6
    8904:	e59f0020 	ldr	r0, [pc, #32]	; 892c <sweep_leak+0xf0>
    8908:	eb0000fe 	bl	8d08 <printk>
    890c:	eafffff4 	b	88e4 <sweep_leak+0xa8>
    8910:	0000a548 	andeq	sl, r0, r8, asr #10
    8914:	0000a584 	andeq	sl, r0, r4, lsl #11
    8918:	0000a59c 	muleq	r0, ip, r5
    891c:	0000a5b0 			; <UNDEFINED> instruction: 0x0000a5b0
    8920:	0000a5c8 	andeq	sl, r0, r8, asr #11
    8924:	0000a5e8 	andeq	sl, r0, r8, ror #11
    8928:	0000a640 	andeq	sl, r0, r0, asr #12
    892c:	0000a610 	andeq	sl, r0, r0, lsl r6

00008930 <sweep_free>:
    8930:	e92d41f0 	push	{r4, r5, r6, r7, r8, lr}
    8934:	e24dd010 	sub	sp, sp, #16, 0
    8938:	e59f00b0 	ldr	r0, [pc, #176]	; 89f0 <sweep_free+0xc0>
    893c:	eb0000f1 	bl	8d08 <printk>
    8940:	e59f00ac 	ldr	r0, [pc, #172]	; 89f4 <sweep_free+0xc4>
    8944:	eb0000ef 	bl	8d08 <printk>
    8948:	ebffff92 	bl	8798 <mark_all>
    894c:	ebfffdf7 	bl	8130 <ck_first_hdr>
    8950:	e1a04000 	mov	r4, r0
    8954:	e3a07000 	mov	r7, #0, 0
    8958:	e1a08007 	mov	r8, r7
    895c:	e1a05007 	mov	r5, r7
    8960:	ea000013 	b	89b4 <sweep_free+0x84>
    8964:	e2888001 	add	r8, r8, #1, 0
    8968:	e5943004 	ldr	r3, [r4, #4]
    896c:	e0877003 	add	r7, r7, r3
    8970:	e28460b4 	add	r6, r4, #180, 0	; 0xb4
    8974:	e59f307c 	ldr	r3, [pc, #124]	; 89f8 <sweep_free+0xc8>
    8978:	e58d3004 	str	r3, [sp, #4]
    897c:	e59f3078 	ldr	r3, [pc, #120]	; 89fc <sweep_free+0xcc>
    8980:	e58d3008 	str	r3, [sp, #8]
    8984:	e59f3074 	ldr	r3, [pc, #116]	; 8a00 <sweep_free+0xd0>
    8988:	e58d300c 	str	r3, [sp, #12]
    898c:	e28d3010 	add	r3, sp, #16, 0
    8990:	e913000e 	ldmdb	r3, {r1, r2, r3}
    8994:	e1a00006 	mov	r0, r6
    8998:	ebfffe11 	bl	81e4 <ckfree>
    899c:	e1a01006 	mov	r1, r6
    89a0:	e59f005c 	ldr	r0, [pc, #92]	; 8a04 <sweep_free+0xd4>
    89a4:	eb0000d7 	bl	8d08 <printk>
    89a8:	e1a00004 	mov	r0, r4
    89ac:	ebfffde3 	bl	8140 <ck_next_hdr>
    89b0:	e1a04000 	mov	r4, r0
    89b4:	e3540000 	cmp	r4, #0, 0
    89b8:	0a000004 	beq	89d0 <sweep_free+0xa0>
    89bc:	e2855001 	add	r5, r5, #1, 0
    89c0:	e1d433b0 	ldrh	r3, [r4, #48]	; 0x30
    89c4:	e3530000 	cmp	r3, #0, 0
    89c8:	1afffff6 	bne	89a8 <sweep_free+0x78>
    89cc:	eaffffe4 	b	8964 <sweep_free+0x34>
    89d0:	e1a03007 	mov	r3, r7
    89d4:	e1a02008 	mov	r2, r8
    89d8:	e1a01005 	mov	r1, r5
    89dc:	e59f0024 	ldr	r0, [pc, #36]	; 8a08 <sweep_free+0xd8>
    89e0:	eb0000c8 	bl	8d08 <printk>
    89e4:	e1a00007 	mov	r0, r7
    89e8:	e28dd010 	add	sp, sp, #16, 0
    89ec:	e8bd81f0 	pop	{r4, r5, r6, r7, r8, pc}
    89f0:	0000a548 	andeq	sl, r0, r8, asr #10
    89f4:	0000a67c 	andeq	sl, r0, ip, ror r6
    89f8:	0000a4b0 			; <UNDEFINED> instruction: 0x0000a4b0
    89fc:	0000a818 	andeq	sl, r0, r8, lsl r8
    8a00:	0000011e 	andeq	r0, r0, lr, lsl r1
    8a04:	0000a68c 	andeq	sl, r0, ip, lsl #13
    8a08:	0000a69c 	muleq	r0, ip, r6

00008a0c <sbrk>:
    8a0c:	e92d4030 	push	{r4, r5, lr}
    8a10:	e24dd00c 	sub	sp, sp, #12, 0
    8a14:	e2504000 	subs	r4, r0, #0, 0
    8a18:	da000010 	ble	8a60 <sbrk+0x54>
    8a1c:	e59f3074 	ldr	r3, [pc, #116]	; 8a98 <sbrk+0x8c>
    8a20:	e5933008 	ldr	r3, [r3, #8]
    8a24:	e3530000 	cmp	r3, #0, 0
    8a28:	1a000014 	bne	8a80 <sbrk+0x74>
    8a2c:	e59f5064 	ldr	r5, [pc, #100]	; 8a98 <sbrk+0x8c>
    8a30:	e3a00601 	mov	r0, #1048576	; 0x100000
    8a34:	e5850000 	str	r0, [r5]
    8a38:	e3a03602 	mov	r3, #2097152	; 0x200000
    8a3c:	e5853004 	str	r3, [r5, #4]
    8a40:	e1a01000 	mov	r1, r0
    8a44:	eb0004a2 	bl	9cd4 <kmalloc_init_set_start>
    8a48:	e3a03001 	mov	r3, #1, 0
    8a4c:	e5853008 	str	r3, [r5, #8]
    8a50:	e1a00004 	mov	r0, r4
    8a54:	eb000501 	bl	9e60 <kmalloc>
    8a58:	e28dd00c 	add	sp, sp, #12, 0
    8a5c:	e8bd8030 	pop	{r4, r5, pc}
    8a60:	e59f3034 	ldr	r3, [pc, #52]	; 8a9c <sbrk+0x90>
    8a64:	e58d3000 	str	r3, [sp]
    8a68:	e3a03017 	mov	r3, #23, 0
    8a6c:	e59f202c 	ldr	r2, [pc, #44]	; 8aa0 <sbrk+0x94>
    8a70:	e59f102c 	ldr	r1, [pc, #44]	; 8aa4 <sbrk+0x98>
    8a74:	e59f002c 	ldr	r0, [pc, #44]	; 8aa8 <sbrk+0x9c>
    8a78:	eb0000a2 	bl	8d08 <printk>
    8a7c:	eb000358 	bl	97e4 <clean_reboot>
    8a80:	e3a03019 	mov	r3, #25, 0
    8a84:	e59f2014 	ldr	r2, [pc, #20]	; 8aa0 <sbrk+0x94>
    8a88:	e59f1014 	ldr	r1, [pc, #20]	; 8aa4 <sbrk+0x98>
    8a8c:	e59f0018 	ldr	r0, [pc, #24]	; 8aac <sbrk+0xa0>
    8a90:	eb00009c 	bl	8d08 <printk>
    8a94:	eb000352 	bl	97e4 <clean_reboot>
    8a98:	0000ac00 	andeq	sl, r0, r0, lsl #24
    8a9c:	0000a6d0 	ldrdeq	sl, [r0], -r0
    8aa0:	0000a824 	andeq	sl, r0, r4, lsr #16
    8aa4:	0000a4b0 			; <UNDEFINED> instruction: 0x0000a4b0
    8aa8:	0000a43c 	andeq	sl, r0, ip, lsr r4
    8aac:	0000a6e0 	andeq	sl, r0, r0, ror #13

00008ab0 <redzone_errors>:
    8ab0:	e1a0c000 	mov	ip, r0
    8ab4:	e3a03000 	mov	r3, #0, 0
    8ab8:	e1a00003 	mov	r0, r3
    8abc:	ea000001 	b	8ac8 <redzone_errors+0x18>
    8ac0:	e2800001 	add	r0, r0, #1, 0
    8ac4:	e2833001 	add	r3, r3, #1, 0
    8ac8:	e1530001 	cmp	r3, r1
    8acc:	a12fff1e 	bxge	lr
    8ad0:	e7dc2003 	ldrb	r2, [ip, r3]
    8ad4:	e35200fe 	cmp	r2, #254, 0	; 0xfe
    8ad8:	1afffff8 	bne	8ac0 <redzone_errors+0x10>
    8adc:	eafffff8 	b	8ac4 <redzone_errors+0x14>

00008ae0 <ck_heap_errors>:
    8ae0:	e92d41f0 	push	{r4, r5, r6, r7, r8, lr}
    8ae4:	ebfffd91 	bl	8130 <ck_first_hdr>
    8ae8:	e1a04000 	mov	r4, r0
    8aec:	e3a06000 	mov	r6, #0, 0
    8af0:	ea00000a 	b	8b20 <ck_heap_errors+0x40>
    8af4:	e5943024 	ldr	r3, [r4, #36]	; 0x24
    8af8:	e5942020 	ldr	r2, [r4, #32]
    8afc:	e594101c 	ldr	r1, [r4, #28]
    8b00:	e59f0098 	ldr	r0, [pc, #152]	; 8ba0 <ck_heap_errors+0xc0>
    8b04:	eb00007f 	bl	8d08 <printk>
    8b08:	e59f0094 	ldr	r0, [pc, #148]	; 8ba4 <ck_heap_errors+0xc4>
    8b0c:	eb00007d 	bl	8d08 <printk>
    8b10:	e0866005 	add	r6, r6, r5
    8b14:	e1a00004 	mov	r0, r4
    8b18:	ebfffd88 	bl	8140 <ck_next_hdr>
    8b1c:	e1a04000 	mov	r4, r0
    8b20:	e3540000 	cmp	r4, #0, 0
    8b24:	0a00001b 	beq	8b98 <ck_heap_errors+0xb8>
    8b28:	e3a01080 	mov	r1, #128, 0	; 0x80
    8b2c:	e2840032 	add	r0, r4, #50, 0	; 0x32
    8b30:	ebffffde 	bl	8ab0 <redzone_errors>
    8b34:	e1a05000 	mov	r5, r0
    8b38:	e28470b4 	add	r7, r4, #180, 0	; 0xb4
    8b3c:	e5940004 	ldr	r0, [r4, #4]
    8b40:	e28000b4 	add	r0, r0, #180, 0	; 0xb4
    8b44:	e3a01080 	mov	r1, #128, 0	; 0x80
    8b48:	e0840000 	add	r0, r4, r0
    8b4c:	ebffffd7 	bl	8ab0 <redzone_errors>
    8b50:	e0855000 	add	r5, r5, r0
    8b54:	e5943018 	ldr	r3, [r4, #24]
    8b58:	e5942014 	ldr	r2, [r4, #20]
    8b5c:	e5941010 	ldr	r1, [r4, #16]
    8b60:	e59f0038 	ldr	r0, [pc, #56]	; 8ba0 <ck_heap_errors+0xc0>
    8b64:	eb000067 	bl	8d08 <printk>
    8b68:	e59f0038 	ldr	r0, [pc, #56]	; 8ba8 <ck_heap_errors+0xc8>
    8b6c:	eb000065 	bl	8d08 <printk>
    8b70:	e5943008 	ldr	r3, [r4, #8]
    8b74:	e353000c 	cmp	r3, #12, 0
    8b78:	1affffe4 	bne	8b10 <ck_heap_errors+0x30>
    8b7c:	e5941004 	ldr	r1, [r4, #4]
    8b80:	e1a00007 	mov	r0, r7
    8b84:	ebffffc9 	bl	8ab0 <redzone_errors>
    8b88:	e0855000 	add	r5, r5, r0
    8b8c:	e3500000 	cmp	r0, #0, 0
    8b90:	0affffde 	beq	8b10 <ck_heap_errors+0x30>
    8b94:	eaffffd6 	b	8af4 <ck_heap_errors+0x14>
    8b98:	e1a00006 	mov	r0, r6
    8b9c:	e8bd81f0 	pop	{r4, r5, r6, r7, r8, pc}
    8ba0:	0000a39c 	muleq	r0, ip, r3
    8ba4:	0000a730 	andeq	sl, r0, r0, lsr r7
    8ba8:	0000a700 	andeq	sl, r0, r0, lsl #14

00008bac <ck_find_leaks>:
    8bac:	e92d4010 	push	{r4, lr}
    8bb0:	ebffff21 	bl	883c <sweep_leak>
    8bb4:	e8bd8010 	pop	{r4, pc}

00008bb8 <check_no_leak>:
    8bb8:	e92d4010 	push	{r4, lr}
    8bbc:	e3a00001 	mov	r0, #1, 0
    8bc0:	ebfffff9 	bl	8bac <ck_find_leaks>
    8bc4:	e3500000 	cmp	r0, #0, 0
    8bc8:	1a000002 	bne	8bd8 <check_no_leak+0x20>
    8bcc:	e59f001c 	ldr	r0, [pc, #28]	; 8bf0 <check_no_leak+0x38>
    8bd0:	eb00004c 	bl	8d08 <printk>
    8bd4:	e8bd8010 	pop	{r4, pc}
    8bd8:	e3a030f9 	mov	r3, #249, 0	; 0xf9
    8bdc:	e59f2010 	ldr	r2, [pc, #16]	; 8bf4 <check_no_leak+0x3c>
    8be0:	e59f1010 	ldr	r1, [pc, #16]	; 8bf8 <check_no_leak+0x40>
    8be4:	e59f0010 	ldr	r0, [pc, #16]	; 8bfc <check_no_leak+0x44>
    8be8:	eb000046 	bl	8d08 <printk>
    8bec:	eb0002fc 	bl	97e4 <clean_reboot>
    8bf0:	0000a774 	andeq	sl, r0, r4, ror r7
    8bf4:	0000a82c 	andeq	sl, r0, ip, lsr #16
    8bf8:	0000a4b0 			; <UNDEFINED> instruction: 0x0000a4b0
    8bfc:	0000a748 	andeq	sl, r0, r8, asr #14

00008c00 <check_should_leak>:
    8c00:	e92d4010 	push	{r4, lr}
    8c04:	e3a00001 	mov	r0, #1, 0
    8c08:	ebffffe7 	bl	8bac <ck_find_leaks>
    8c0c:	e2504000 	subs	r4, r0, #0, 0
    8c10:	0a000004 	beq	8c28 <check_should_leak+0x28>
    8c14:	e1a01004 	mov	r1, r4
    8c18:	e59f0020 	ldr	r0, [pc, #32]	; 8c40 <check_should_leak+0x40>
    8c1c:	eb000039 	bl	8d08 <printk>
    8c20:	e1a00004 	mov	r0, r4
    8c24:	e8bd8010 	pop	{r4, pc}
    8c28:	e3a03f42 	mov	r3, #264	; 0x108
    8c2c:	e59f2010 	ldr	r2, [pc, #16]	; 8c44 <check_should_leak+0x44>
    8c30:	e59f1010 	ldr	r1, [pc, #16]	; 8c48 <check_should_leak+0x48>
    8c34:	e59f0010 	ldr	r0, [pc, #16]	; 8c4c <check_should_leak+0x4c>
    8c38:	eb000032 	bl	8d08 <printk>
    8c3c:	eb0002e8 	bl	97e4 <clean_reboot>
    8c40:	0000a7bc 			; <UNDEFINED> instruction: 0x0000a7bc
    8c44:	0000a83c 	andeq	sl, r0, ip, lsr r8
    8c48:	0000a4b0 			; <UNDEFINED> instruction: 0x0000a4b0
    8c4c:	0000a794 	muleq	r0, r4, r7

00008c50 <ck_gc>:
    8c50:	e92d4010 	push	{r4, lr}
    8c54:	ebfffecf 	bl	8798 <mark_all>
    8c58:	ebffff34 	bl	8930 <sweep_free>
    8c5c:	e8bd8010 	pop	{r4, pc}

00008c60 <implement_this>:
    8c60:	e92d4010 	push	{r4, lr}
    8c64:	e3a03f4d 	mov	r3, #308	; 0x134
    8c68:	e59f200c 	ldr	r2, [pc, #12]	; 8c7c <implement_this+0x1c>
    8c6c:	e59f100c 	ldr	r1, [pc, #12]	; 8c80 <implement_this+0x20>
    8c70:	e59f000c 	ldr	r0, [pc, #12]	; 8c84 <implement_this+0x24>
    8c74:	eb000023 	bl	8d08 <printk>
    8c78:	eb0002d9 	bl	97e4 <clean_reboot>
    8c7c:	0000a850 	andeq	sl, r0, r0, asr r8
    8c80:	0000a4b0 			; <UNDEFINED> instruction: 0x0000a4b0
    8c84:	0000a7e0 	andeq	sl, r0, r0, ror #15

00008c88 <dump_regs>:
    8c88:	e8a0ffff 	stmia	r0!, {r0, r1, r2, r3, r4, r5, r6, r7, r8, r9, sl, fp, ip, sp, lr, pc}
    8c8c:	e12fff1e 	bx	lr

00008c90 <memset>:
    8c90:	e92d4010 	push	{r4, lr}
    8c94:	e0804002 	add	r4, r0, r2
    8c98:	e1500004 	cmp	r0, r4
    8c9c:	28bd8010 	popcs	{r4, pc}
    8ca0:	e2423001 	sub	r3, r2, #1, 0
    8ca4:	e3530002 	cmp	r3, #2, 0
    8ca8:	e6ef1071 	uxtb	r1, r1
    8cac:	e1a03000 	mov	r3, r0
    8cb0:	9a00000b 	bls	8ce4 <memset+0x54>
    8cb4:	e181e401 	orr	lr, r1, r1, lsl #8
    8cb8:	e18ee801 	orr	lr, lr, r1, lsl #16
    8cbc:	e3c2c003 	bic	ip, r2, #3, 0
    8cc0:	e18eec01 	orr	lr, lr, r1, lsl #24
    8cc4:	e08cc000 	add	ip, ip, r0
    8cc8:	e483e004 	str	lr, [r3], #4
    8ccc:	e153000c 	cmp	r3, ip
    8cd0:	1afffffc 	bne	8cc8 <memset+0x38>
    8cd4:	e3c23003 	bic	r3, r2, #3, 0
    8cd8:	e1520003 	cmp	r2, r3
    8cdc:	e0803003 	add	r3, r0, r3
    8ce0:	08bd8010 	popeq	{r4, pc}
    8ce4:	e1a02003 	mov	r2, r3
    8ce8:	e4c21001 	strb	r1, [r2], #1
    8cec:	e1540002 	cmp	r4, r2
    8cf0:	98bd8010 	popls	{r4, pc}
    8cf4:	e2832002 	add	r2, r3, #2, 0
    8cf8:	e1540002 	cmp	r4, r2
    8cfc:	e5c31001 	strb	r1, [r3, #1]
    8d00:	85c31002 	strbhi	r1, [r3, #2]
    8d04:	e8bd8010 	pop	{r4, pc}

00008d08 <printk>:
    8d08:	e92d000f 	push	{r0, r1, r2, r3}
    8d0c:	e92d4030 	push	{r4, r5, lr}
    8d10:	e59f5040 	ldr	r5, [pc, #64]	; 8d58 <printk+0x50>
    8d14:	e24dd00c 	sub	sp, sp, #12, 0
    8d18:	e28d301c 	add	r3, sp, #28, 0
    8d1c:	e3a01b01 	mov	r1, #1024	; 0x400
    8d20:	e59d2018 	ldr	r2, [sp, #24]
    8d24:	e1a00005 	mov	r0, r5
    8d28:	e58d3004 	str	r3, [sp, #4]
    8d2c:	eb000121 	bl	91b8 <va_printk>
    8d30:	e1a04000 	mov	r4, r0
    8d34:	e59f3020 	ldr	r3, [pc, #32]	; 8d5c <printk+0x54>
    8d38:	e1a00005 	mov	r0, r5
    8d3c:	e5933000 	ldr	r3, [r3]
    8d40:	e12fff33 	blx	r3
    8d44:	e1a00004 	mov	r0, r4
    8d48:	e28dd00c 	add	sp, sp, #12, 0
    8d4c:	e8bd4030 	pop	{r4, r5, lr}
    8d50:	e28dd010 	add	sp, sp, #16, 0
    8d54:	e12fff1e 	bx	lr
    8d58:	0000ac0c 	andeq	sl, r0, ip, lsl #24
    8d5c:	0000abcc 	andeq	sl, r0, ip, asr #23

00008d60 <internal_putk>:
    8d60:	e92d4070 	push	{r4, r5, r6, lr}
    8d64:	e1a04000 	mov	r4, r0
    8d68:	e5d00000 	ldrb	r0, [r0]
    8d6c:	e3500000 	cmp	r0, #0, 0
    8d70:	0a000005 	beq	8d8c <internal_putk+0x2c>
    8d74:	e59f5018 	ldr	r5, [pc, #24]	; 8d94 <internal_putk+0x34>
    8d78:	e5953000 	ldr	r3, [r5]
    8d7c:	e12fff33 	blx	r3
    8d80:	e5f40001 	ldrb	r0, [r4, #1]!
    8d84:	e3500000 	cmp	r0, #0, 0
    8d88:	1afffffa 	bne	8d78 <internal_putk+0x18>
    8d8c:	e3a00001 	mov	r0, #1, 0
    8d90:	e8bd8070 	pop	{r4, r5, r6, pc}
    8d94:	0000abe0 	andeq	sl, r0, r0, ror #23

00008d98 <rpi_rand16>:
    8d98:	e59f1024 	ldr	r1, [pc, #36]	; 8dc4 <rpi_rand16+0x2c>
    8d9c:	e1d130b0 	ldrh	r3, [r1]
    8da0:	e1a001a3 	lsr	r0, r3, #3
    8da4:	e0200123 	eor	r0, r0, r3, lsr #2
    8da8:	e0200003 	eor	r0, r0, r3
    8dac:	e02022a3 	eor	r2, r0, r3, lsr #5
    8db0:	e1a000a3 	lsr	r0, r3, #1
    8db4:	e1800782 	orr	r0, r0, r2, lsl #15
    8db8:	e6ff0070 	uxth	r0, r0
    8dbc:	e1c100b0 	strh	r0, [r1]
    8dc0:	e12fff1e 	bx	lr
    8dc4:	0000abd0 	ldrdeq	sl, [r0], -r0

00008dc8 <rpi_rand32>:
    8dc8:	e59f1044 	ldr	r1, [pc, #68]	; 8e14 <rpi_rand32+0x4c>
    8dcc:	e1d120b0 	ldrh	r2, [r1]
    8dd0:	e1a031a2 	lsr	r3, r2, #3
    8dd4:	e0233122 	eor	r3, r3, r2, lsr #2
    8dd8:	e0233002 	eor	r3, r3, r2
    8ddc:	e02302a2 	eor	r0, r3, r2, lsr #5
    8de0:	e1a030a2 	lsr	r3, r2, #1
    8de4:	e1833780 	orr	r3, r3, r0, lsl #15
    8de8:	e6ff3073 	uxth	r3, r3
    8dec:	e1a001a3 	lsr	r0, r3, #3
    8df0:	e0200123 	eor	r0, r0, r3, lsr #2
    8df4:	e0200003 	eor	r0, r0, r3
    8df8:	e02002a3 	eor	r0, r0, r3, lsr #5
    8dfc:	e1a020a3 	lsr	r2, r3, #1
    8e00:	e1820780 	orr	r0, r2, r0, lsl #15
    8e04:	e6ff0070 	uxth	r0, r0
    8e08:	e1c100b0 	strh	r0, [r1]
    8e0c:	e1800803 	orr	r0, r0, r3, lsl #16
    8e10:	e12fff1e 	bx	lr
    8e14:	0000abd0 	ldrdeq	sl, [r0], -r0

00008e18 <rpi_reset>:
    8e18:	e59f3008 	ldr	r3, [pc, #8]	; 8e28 <rpi_reset+0x10>
    8e1c:	e59f2008 	ldr	r2, [pc, #8]	; 8e2c <rpi_reset+0x14>
    8e20:	e1c320b0 	strh	r2, [r3]
    8e24:	e12fff1e 	bx	lr
    8e28:	0000abd0 	ldrdeq	sl, [r0], -r0
    8e2c:	fffface1 			; <UNDEFINED> instruction: 0xfffface1

00008e30 <emit.constprop.0>:
    8e30:	e92d41f0 	push	{r4, r5, r6, r7, r8, lr}
    8e34:	e3530080 	cmp	r3, #128, 0	; 0x80
    8e38:	e1a0c000 	mov	ip, r0
    8e3c:	e24dd048 	sub	sp, sp, #72, 0	; 0x48
    8e40:	e1a00001 	mov	r0, r1
    8e44:	ca000069 	bgt	8ff0 <emit.constprop.0+0x1c0>
    8e48:	e24c1002 	sub	r1, ip, #2, 0
    8e4c:	e1a0c002 	mov	ip, r2
    8e50:	e351000e 	cmp	r1, #14, 0
    8e54:	979ff101 	ldrls	pc, [pc, r1, lsl #2]
    8e58:	ea0000a7 	b	90fc <emit.constprop.0+0x2cc>
    8e5c:	00008fc8 	andeq	r8, r0, r8, asr #31
    8e60:	000090fc 	strdeq	r9, [r0], -ip
    8e64:	000090fc 	strdeq	r9, [r0], -ip
    8e68:	000090fc 	strdeq	r9, [r0], -ip
    8e6c:	000090fc 	strdeq	r9, [r0], -ip
    8e70:	000090fc 	strdeq	r9, [r0], -ip
    8e74:	000090a4 	andeq	r9, r0, r4, lsr #1
    8e78:	000090fc 	strdeq	r9, [r0], -ip
    8e7c:	00009044 	andeq	r9, r0, r4, asr #32
    8e80:	000090fc 	strdeq	r9, [r0], -ip
    8e84:	000090fc 	strdeq	r9, [r0], -ip
    8e88:	000090fc 	strdeq	r9, [r0], -ip
    8e8c:	000090fc 	strdeq	r9, [r0], -ip
    8e90:	000090fc 	strdeq	r9, [r0], -ip
    8e94:	00008e9c 	muleq	r0, ip, lr
    8e98:	e3a0307f 	mov	r3, #127, 0	; 0x7f
    8e9c:	e28d2008 	add	r2, sp, #8, 0
    8ea0:	e1a04002 	mov	r4, r2
    8ea4:	e59f1288 	ldr	r1, [pc, #648]	; 9134 <emit.constprop.0+0x304>
    8ea8:	e20ce00f 	and	lr, ip, #15, 0
    8eac:	e7d1e00e 	ldrb	lr, [r1, lr]
    8eb0:	e35c000f 	cmp	ip, #15, 0
    8eb4:	e4c4e001 	strb	lr, [r4], #1
    8eb8:	e1a0c22c 	lsr	ip, ip, #4
    8ebc:	8afffff9 	bhi	8ea8 <emit.constprop.0+0x78>
    8ec0:	e3a0c078 	mov	ip, #120, 0	; 0x78
    8ec4:	e1a0e004 	mov	lr, r4
    8ec8:	e3a01030 	mov	r1, #48, 0	; 0x30
    8ecc:	e4cec002 	strb	ip, [lr], #2
    8ed0:	e5c41001 	strb	r1, [r4, #1]
    8ed4:	e04e1002 	sub	r1, lr, r2
    8ed8:	e1510003 	cmp	r1, r3
    8edc:	aa000083 	bge	90f0 <emit.constprop.0+0x2c0>
    8ee0:	e1510003 	cmp	r1, r3
    8ee4:	a3a0c001 	movge	ip, #1, 0
    8ee8:	b3a0c000 	movlt	ip, #0, 0
    8eec:	e2434001 	sub	r4, r3, #1, 0
    8ef0:	e0444001 	sub	r4, r4, r1
    8ef4:	b0436001 	sublt	r6, r3, r1
    8ef8:	a3a06001 	movge	r6, #1, 0
    8efc:	e3540002 	cmp	r4, #2, 0
    8f00:	938cc001 	orrls	ip, ip, #1, 0
    8f04:	e35c0000 	cmp	ip, #0, 0
    8f08:	1a000075 	bne	90e4 <emit.constprop.0+0x2b4>
    8f0c:	e1a0c00e 	mov	ip, lr
    8f10:	e3c65003 	bic	r5, r6, #3, 0
    8f14:	e59f721c 	ldr	r7, [pc, #540]	; 9138 <emit.constprop.0+0x308>
    8f18:	e085500e 	add	r5, r5, lr
    8f1c:	e48c7004 	str	r7, [ip], #4
    8f20:	e15c0005 	cmp	ip, r5
    8f24:	1afffffc 	bne	8f1c <emit.constprop.0+0xec>
    8f28:	e3c6c003 	bic	ip, r6, #3, 0
    8f2c:	e156000c 	cmp	r6, ip
    8f30:	e08e500c 	add	r5, lr, ip
    8f34:	e08cc001 	add	ip, ip, r1
    8f38:	0a000008 	beq	8f60 <emit.constprop.0+0x130>
    8f3c:	e3a07020 	mov	r7, #32, 0
    8f40:	e28c8001 	add	r8, ip, #1, 0
    8f44:	e1580003 	cmp	r8, r3
    8f48:	e5c57000 	strb	r7, [r5]
    8f4c:	aa000003 	bge	8f60 <emit.constprop.0+0x130>
    8f50:	e28cc002 	add	ip, ip, #2, 0
    8f54:	e15c0003 	cmp	ip, r3
    8f58:	e5c57001 	strb	r7, [r5, #1]
    8f5c:	b5c57002 	strblt	r7, [r5, #2]
    8f60:	e1510003 	cmp	r1, r3
    8f64:	a3a04000 	movge	r4, #0, 0
    8f68:	e08e6006 	add	r6, lr, r6
    8f6c:	e0461002 	sub	r1, r6, r2
    8f70:	e08ee004 	add	lr, lr, r4
    8f74:	e3a03000 	mov	r3, #0, 0
    8f78:	e351007f 	cmp	r1, #127, 0	; 0x7f
    8f7c:	c241407f 	subgt	r4, r1, #127, 0	; 0x7f
    8f80:	c0822004 	addgt	r2, r2, r4
    8f84:	e152000e 	cmp	r2, lr
    8f88:	e5c63000 	strb	r3, [r6]
    8f8c:	8a00004f 	bhi	90d0 <emit.constprop.0+0x2a0>
    8f90:	e28ee001 	add	lr, lr, #1, 0
    8f94:	e1a0300e 	mov	r3, lr
    8f98:	e240c001 	sub	ip, r0, #1, 0
    8f9c:	e5734001 	ldrb	r4, [r3, #-1]!
    8fa0:	e1530002 	cmp	r3, r2
    8fa4:	e5ec4001 	strb	r4, [ip, #1]!
    8fa8:	1afffffb 	bne	8f9c <emit.constprop.0+0x16c>
    8fac:	e04ee003 	sub	lr, lr, r3
    8fb0:	e3a03000 	mov	r3, #0, 0
    8fb4:	e080e00e 	add	lr, r0, lr
    8fb8:	e5ce3000 	strb	r3, [lr]
    8fbc:	e28dd048 	add	sp, sp, #72, 0	; 0x48
    8fc0:	e8bd81f0 	pop	{r4, r5, r6, r7, r8, pc}
    8fc4:	e3a0307f 	mov	r3, #127, 0	; 0x7f
    8fc8:	e28d2008 	add	r2, sp, #8, 0
    8fcc:	e1a0e002 	mov	lr, r2
    8fd0:	e59f1164 	ldr	r1, [pc, #356]	; 913c <emit.constprop.0+0x30c>
    8fd4:	e20c4001 	and	r4, ip, #1, 0
    8fd8:	e7d14004 	ldrb	r4, [r1, r4]
    8fdc:	e35c0001 	cmp	ip, #1, 0
    8fe0:	e4ce4001 	strb	r4, [lr], #1
    8fe4:	e1a0c0ac 	lsr	ip, ip, #1
    8fe8:	8afffff9 	bhi	8fd4 <emit.constprop.0+0x1a4>
    8fec:	eaffffb8 	b	8ed4 <emit.constprop.0+0xa4>
    8ff0:	e24c3002 	sub	r3, ip, #2, 0
    8ff4:	e1a0c002 	mov	ip, r2
    8ff8:	e353000e 	cmp	r3, #14, 0
    8ffc:	979ff103 	ldrls	pc, [pc, r3, lsl #2]
    9000:	ea00003d 	b	90fc <emit.constprop.0+0x2cc>
    9004:	00008fc4 	andeq	r8, r0, r4, asr #31
    9008:	000090fc 	strdeq	r9, [r0], -ip
    900c:	000090fc 	strdeq	r9, [r0], -ip
    9010:	000090fc 	strdeq	r9, [r0], -ip
    9014:	000090fc 	strdeq	r9, [r0], -ip
    9018:	000090fc 	strdeq	r9, [r0], -ip
    901c:	0000911c 	andeq	r9, r0, ip, lsl r1
    9020:	000090fc 	strdeq	r9, [r0], -ip
    9024:	00009040 	andeq	r9, r0, r0, asr #32
    9028:	000090fc 	strdeq	r9, [r0], -ip
    902c:	000090fc 	strdeq	r9, [r0], -ip
    9030:	000090fc 	strdeq	r9, [r0], -ip
    9034:	000090fc 	strdeq	r9, [r0], -ip
    9038:	000090fc 	strdeq	r9, [r0], -ip
    903c:	00008e98 	muleq	r0, r8, lr
    9040:	e3a0307f 	mov	r3, #127, 0	; 0x7f
    9044:	e59d1060 	ldr	r1, [sp, #96]	; 0x60
    9048:	e59f70f0 	ldr	r7, [pc, #240]	; 9140 <emit.constprop.0+0x310>
    904c:	e0118fa2 	ands	r8, r1, r2, lsr #31
    9050:	1262c000 	rsbne	ip, r2, #0, 0
    9054:	e28d2008 	add	r2, sp, #8, 0
    9058:	13a08001 	movne	r8, #1, 0
    905c:	e1a0e002 	mov	lr, r2
    9060:	e59f60dc 	ldr	r6, [pc, #220]	; 9144 <emit.constprop.0+0x314>
    9064:	e1a0500c 	mov	r5, ip
    9068:	e0814c96 	umull	r4, r1, r6, ip
    906c:	e1a011a1 	lsr	r1, r1, #3
    9070:	e0814101 	add	r4, r1, r1, lsl #2
    9074:	e04cc084 	sub	ip, ip, r4, lsl #1
    9078:	e7d7400c 	ldrb	r4, [r7, ip]
    907c:	e3550009 	cmp	r5, #9, 0
    9080:	e1a0c001 	mov	ip, r1
    9084:	e1a0100e 	mov	r1, lr
    9088:	e4ce4001 	strb	r4, [lr], #1
    908c:	8afffff4 	bhi	9064 <emit.constprop.0+0x234>
    9090:	e3580000 	cmp	r8, #0, 0
    9094:	13a0c02d 	movne	ip, #45, 0	; 0x2d
    9098:	15cec000 	strbne	ip, [lr]
    909c:	1281e002 	addne	lr, r1, #2, 0
    90a0:	eaffff8b 	b	8ed4 <emit.constprop.0+0xa4>
    90a4:	e3530001 	cmp	r3, #1, 0
    90a8:	e5cd2008 	strb	r2, [sp, #8]
    90ac:	c3a01001 	movgt	r1, #1, 0
    90b0:	c28de009 	addgt	lr, sp, #9, 0
    90b4:	c28d2008 	addgt	r2, sp, #8, 0
    90b8:	caffff88 	bgt	8ee0 <emit.constprop.0+0xb0>
    90bc:	e3a03000 	mov	r3, #0, 0
    90c0:	e28de008 	add	lr, sp, #8, 0
    90c4:	e1a0200e 	mov	r2, lr
    90c8:	e5cd3009 	strb	r3, [sp, #9]
    90cc:	eaffffaf 	b	8f90 <emit.constprop.0+0x160>
    90d0:	e1a0e000 	mov	lr, r0
    90d4:	e3a03000 	mov	r3, #0, 0
    90d8:	e5ce3000 	strb	r3, [lr]
    90dc:	e28dd048 	add	sp, sp, #72, 0	; 0x48
    90e0:	e8bd81f0 	pop	{r4, r5, r6, r7, r8, pc}
    90e4:	e1a0c001 	mov	ip, r1
    90e8:	e1a0500e 	mov	r5, lr
    90ec:	eaffff92 	b	8f3c <emit.constprop.0+0x10c>
    90f0:	e1a0600e 	mov	r6, lr
    90f4:	e24ee001 	sub	lr, lr, #1, 0
    90f8:	eaffff9d 	b	8f74 <emit.constprop.0+0x144>
    90fc:	e59f2044 	ldr	r2, [pc, #68]	; 9148 <emit.constprop.0+0x318>
    9100:	e3a03079 	mov	r3, #121, 0	; 0x79
    9104:	e59f1040 	ldr	r1, [pc, #64]	; 914c <emit.constprop.0+0x31c>
    9108:	e58d2000 	str	r2, [sp]
    910c:	e59f003c 	ldr	r0, [pc, #60]	; 9150 <emit.constprop.0+0x320>
    9110:	e59f203c 	ldr	r2, [pc, #60]	; 9154 <emit.constprop.0+0x324>
    9114:	ebfffefb 	bl	8d08 <printk>
    9118:	eb0001b1 	bl	97e4 <clean_reboot>
    911c:	e5cd2008 	strb	r2, [sp, #8]
    9120:	e3a0307f 	mov	r3, #127, 0	; 0x7f
    9124:	e3a01001 	mov	r1, #1, 0
    9128:	e28de009 	add	lr, sp, #9, 0
    912c:	e28d2008 	add	r2, sp, #8, 0
    9130:	eaffff6a 	b	8ee0 <emit.constprop.0+0xb0>
    9134:	0000a874 	andeq	sl, r0, r4, ror r8
    9138:	20202020 	eorcs	r2, r0, r0, lsr #32
    913c:	0000a888 	andeq	sl, r0, r8, lsl #17
    9140:	0000a88c 	andeq	sl, r0, ip, lsl #17
    9144:	cccccccd 	stclgt	12, cr12, [ip], {205}	; 0xcd
    9148:	0000a6dc 	ldrdeq	sl, [r0], -ip
    914c:	0000a860 	andeq	sl, r0, r0, ror #16
    9150:	0000a43c 	andeq	sl, r0, ip, lsr r4
    9154:	0000a9a0 	andeq	sl, r0, r0, lsr #19

00009158 <rpi_set_output>:
    9158:	e3500000 	cmp	r0, #0, 0
    915c:	0a000005 	beq	9178 <rpi_set_output+0x20>
    9160:	e59f3038 	ldr	r3, [pc, #56]	; 91a0 <rpi_set_output+0x48>
    9164:	e3510000 	cmp	r1, #0, 0
    9168:	e5830000 	str	r0, [r3]
    916c:	159f3030 	ldrne	r3, [pc, #48]	; 91a4 <rpi_set_output+0x4c>
    9170:	15831000 	strne	r1, [r3]
    9174:	e12fff1e 	bx	lr
    9178:	e52de004 	push	{lr}		; (str lr, [sp, #-4]!)
    917c:	e59f2024 	ldr	r2, [pc, #36]	; 91a8 <rpi_set_output+0x50>
    9180:	e24dd00c 	sub	sp, sp, #12, 0
    9184:	e3a03020 	mov	r3, #32, 0
    9188:	e59f101c 	ldr	r1, [pc, #28]	; 91ac <rpi_set_output+0x54>
    918c:	e58d2000 	str	r2, [sp]
    9190:	e59f0018 	ldr	r0, [pc, #24]	; 91b0 <rpi_set_output+0x58>
    9194:	e59f2018 	ldr	r2, [pc, #24]	; 91b4 <rpi_set_output+0x5c>
    9198:	ebfffeda 	bl	8d08 <printk>
    919c:	eb000190 	bl	97e4 <clean_reboot>
    91a0:	0000abe0 	andeq	sl, r0, r0, ror #23
    91a4:	0000abcc 	andeq	sl, r0, ip, asr #23
    91a8:	0000a898 	muleq	r0, r8, r8
    91ac:	0000a860 	andeq	sl, r0, r0, ror #16
    91b0:	0000a43c 	andeq	sl, r0, ip, lsr r4
    91b4:	0000a9a8 	andeq	sl, r0, r8, lsr #19

000091b8 <va_printk>:
    91b8:	e92d4ff0 	push	{r4, r5, r6, r7, r8, r9, sl, fp, lr}
    91bc:	e1a0b000 	mov	fp, r0
    91c0:	e3a00000 	mov	r0, #0, 0
    91c4:	e5cb0000 	strb	r0, [fp]
    91c8:	e5d2c000 	ldrb	ip, [r2]
    91cc:	e2417001 	sub	r7, r1, #1, 0
    91d0:	e08b7007 	add	r7, fp, r7
    91d4:	e15c0000 	cmp	ip, r0
    91d8:	115b0007 	cmpne	fp, r7
    91dc:	e24ddf47 	sub	sp, sp, #284	; 0x11c
    91e0:	e58d2010 	str	r2, [sp, #16]
    91e4:	2a000159 	bcs	9750 <va_printk+0x598>
    91e8:	e1a06002 	mov	r6, r2
    91ec:	e1a08003 	mov	r8, r3
    91f0:	e1a0400b 	mov	r4, fp
    91f4:	e59fa5a4 	ldr	sl, [pc, #1444]	; 97a0 <va_printk+0x5e8>
    91f8:	e58db00c 	str	fp, [sp, #12]
    91fc:	ea000005 	b	9218 <va_printk+0x60>
    9200:	e4c4c001 	strb	ip, [r4], #1
    9204:	e2866001 	add	r6, r6, #1, 0
    9208:	e5d6c000 	ldrb	ip, [r6]
    920c:	e35c0000 	cmp	ip, #0, 0
    9210:	11570004 	cmpne	r7, r4
    9214:	9a00002f 	bls	92d8 <va_printk+0x120>
    9218:	e35c0025 	cmp	ip, #37, 0	; 0x25
    921c:	1afffff7 	bne	9200 <va_printk+0x48>
    9220:	e5d62001 	ldrb	r2, [r6, #1]
    9224:	e3520025 	cmp	r2, #37, 0	; 0x25
    9228:	04c4c001 	strbeq	ip, [r4], #1
    922c:	02866002 	addeq	r6, r6, #2, 0
    9230:	0afffff4 	beq	9208 <va_printk+0x50>
    9234:	e2423030 	sub	r3, r2, #48, 0	; 0x30
    9238:	e3530009 	cmp	r3, #9, 0
    923c:	e3a05000 	mov	r5, #0, 0
    9240:	e2866001 	add	r6, r6, #1, 0
    9244:	8a000008 	bhi	926c <va_printk+0xb4>
    9248:	e0855105 	add	r5, r5, r5, lsl #2
    924c:	e0825085 	add	r5, r2, r5, lsl #1
    9250:	e5f62001 	ldrb	r2, [r6, #1]!
    9254:	e2455030 	sub	r5, r5, #48, 0	; 0x30
    9258:	e2423030 	sub	r3, r2, #48, 0	; 0x30
    925c:	e3530009 	cmp	r3, #9, 0
    9260:	9afffff8 	bls	9248 <va_printk+0x90>
    9264:	e355001f 	cmp	r5, #31, 0
    9268:	8a00013a 	bhi	9758 <va_printk+0x5a0>
    926c:	e2423062 	sub	r3, r2, #98, 0	; 0x62
    9270:	e3530016 	cmp	r3, #22, 0
    9274:	979ff103 	ldrls	pc, [pc, r3, lsl #2]
    9278:	ea00011b 	b	96ec <va_printk+0x534>
    927c:	00009530 	andeq	r9, r0, r0, lsr r5
    9280:	0000942c 	andeq	r9, r0, ip, lsr #8
    9284:	00009424 	andeq	r9, r0, r4, lsr #8
    9288:	000096ec 	andeq	r9, r0, ip, ror #13
    928c:	00009728 	andeq	r9, r0, r8, lsr #14
    9290:	000096ec 	andeq	r9, r0, ip, ror #13
    9294:	000096ec 	andeq	r9, r0, ip, ror #13
    9298:	000096ec 	andeq	r9, r0, ip, ror #13
    929c:	000096ec 	andeq	r9, r0, ip, ror #13
    92a0:	000096ec 	andeq	r9, r0, ip, ror #13
    92a4:	00009334 	andeq	r9, r0, r4, lsr r3
    92a8:	000096ec 	andeq	r9, r0, ip, ror #13
    92ac:	000096ec 	andeq	r9, r0, ip, ror #13
    92b0:	000096ec 	andeq	r9, r0, ip, ror #13
    92b4:	000092f0 	strdeq	r9, [r0], -r0
    92b8:	000096ec 	andeq	r9, r0, ip, ror #13
    92bc:	000096ec 	andeq	r9, r0, ip, ror #13
    92c0:	00009628 	andeq	r9, r0, r8, lsr #12
    92c4:	000096ec 	andeq	r9, r0, ip, ror #13
    92c8:	00009400 	andeq	r9, r0, r0, lsl #8
    92cc:	000096ec 	andeq	r9, r0, ip, ror #13
    92d0:	000096ec 	andeq	r9, r0, ip, ror #13
    92d4:	000092f0 	strdeq	r9, [r0], -r0
    92d8:	e59db00c 	ldr	fp, [sp, #12]
    92dc:	e3a03000 	mov	r3, #0, 0
    92e0:	e4c43001 	strb	r3, [r4], #1
    92e4:	e044000b 	sub	r0, r4, fp
    92e8:	e28ddf47 	add	sp, sp, #284	; 0x11c
    92ec:	e8bd8ff0 	pop	{r4, r5, r6, r7, r8, r9, sl, fp, pc}
    92f0:	e3a01000 	mov	r1, #0, 0
    92f4:	e1a03005 	mov	r3, r5
    92f8:	e4982004 	ldr	r2, [r8], #4
    92fc:	e3a00010 	mov	r0, #16, 0
    9300:	e58d1000 	str	r1, [sp]
    9304:	e28d1018 	add	r1, sp, #24, 0
    9308:	ebfffec8 	bl	8e30 <emit.constprop.0>
    930c:	e1a05000 	mov	r5, r0
    9310:	e2866001 	add	r6, r6, #1, 0
    9314:	e2455001 	sub	r5, r5, #1, 0
    9318:	e5f53001 	ldrb	r3, [r5, #1]!
    931c:	e3530000 	cmp	r3, #0, 0
    9320:	0affffb8 	beq	9208 <va_printk+0x50>
    9324:	e4c43001 	strb	r3, [r4], #1
    9328:	e1570004 	cmp	r7, r4
    932c:	8afffff9 	bhi	9318 <va_printk+0x160>
    9330:	eaffffb4 	b	9208 <va_printk+0x50>
    9334:	e3a02003 	mov	r2, #3, 0
    9338:	e1a00006 	mov	r0, r6
    933c:	e59f1460 	ldr	r1, [pc, #1120]	; 97a4 <va_printk+0x5ec>
    9340:	eb0003da 	bl	a2b0 <strncmp>
    9344:	e3500000 	cmp	r0, #0, 0
    9348:	0a000005 	beq	9364 <va_printk+0x1ac>
    934c:	e3a02003 	mov	r2, #3, 0
    9350:	e1a00006 	mov	r0, r6
    9354:	e59f144c 	ldr	r1, [pc, #1100]	; 97a8 <va_printk+0x5f0>
    9358:	eb0003d4 	bl	a2b0 <strncmp>
    935c:	e3500000 	cmp	r0, #0, 0
    9360:	1a00010b 	bne	9794 <va_printk+0x5dc>
    9364:	e2888007 	add	r8, r8, #7, 0
    9368:	e3c88007 	bic	r8, r8, #7, 0
    936c:	e598b004 	ldr	fp, [r8, #4]
    9370:	e4989008 	ldr	r9, [r8], #8
    9374:	e1a0100b 	mov	r1, fp
    9378:	e59f042c 	ldr	r0, [pc, #1068]	; 97ac <va_printk+0x5f4>
    937c:	ebfffe61 	bl	8d08 <printk>
    9380:	e1a01009 	mov	r1, r9
    9384:	e59f0424 	ldr	r0, [pc, #1060]	; 97b0 <va_printk+0x5f8>
    9388:	ebfffe5e 	bl	8d08 <printk>
    938c:	e3a02003 	mov	r2, #3, 0
    9390:	e1a00006 	mov	r0, r6
    9394:	e59f1408 	ldr	r1, [pc, #1032]	; 97a4 <va_printk+0x5ec>
    9398:	eb0003c4 	bl	a2b0 <strncmp>
    939c:	e2503000 	subs	r3, r0, #0, 0
    93a0:	e1a02003 	mov	r2, r3
    93a4:	e2863002 	add	r3, r6, #2, 0
    93a8:	e58d3014 	str	r3, [sp, #20]
    93ac:	1a00009f 	bne	9630 <va_printk+0x478>
    93b0:	e1a06002 	mov	r6, r2
    93b4:	e1a03005 	mov	r3, r5
    93b8:	e58d2000 	str	r2, [sp]
    93bc:	e28d1018 	add	r1, sp, #24, 0
    93c0:	e1a0200b 	mov	r2, fp
    93c4:	e3a00010 	mov	r0, #16, 0
    93c8:	ebfffe98 	bl	8e30 <emit.constprop.0>
    93cc:	e1a0c000 	mov	ip, r0
    93d0:	e1a03005 	mov	r3, r5
    93d4:	e58d6000 	str	r6, [sp]
    93d8:	e28d1098 	add	r1, sp, #152, 0	; 0x98
    93dc:	e1a02009 	mov	r2, r9
    93e0:	e3a00010 	mov	r0, #16, 0
    93e4:	e1a0500c 	mov	r5, ip
    93e8:	ebfffe90 	bl	8e30 <emit.constprop.0>
    93ec:	e28d0018 	add	r0, sp, #24, 0
    93f0:	e28d109a 	add	r1, sp, #154, 0	; 0x9a
    93f4:	e59d6014 	ldr	r6, [sp, #20]
    93f8:	eb00038a 	bl	a228 <strcat>
    93fc:	eaffffc3 	b	9310 <va_printk+0x158>
    9400:	e3a01000 	mov	r1, #0, 0
    9404:	e1a03005 	mov	r3, r5
    9408:	e4982004 	ldr	r2, [r8], #4
    940c:	e3a0000a 	mov	r0, #10, 0
    9410:	e58d1000 	str	r1, [sp]
    9414:	e28d1018 	add	r1, sp, #24, 0
    9418:	ebfffe84 	bl	8e30 <emit.constprop.0>
    941c:	e1a05000 	mov	r5, r0
    9420:	eaffffba 	b	9310 <va_printk+0x158>
    9424:	e3a01001 	mov	r1, #1, 0
    9428:	eafffff5 	b	9404 <va_printk+0x24c>
    942c:	e4983004 	ldr	r3, [r8], #4
    9430:	e3550001 	cmp	r5, #1, 0
    9434:	e5cd3098 	strb	r3, [sp, #152]	; 0x98
    9438:	9a0000a6 	bls	96d8 <va_printk+0x520>
    943c:	e2453002 	sub	r3, r5, #2, 0
    9440:	e3530002 	cmp	r3, #2, 0
    9444:	e2451001 	sub	r1, r5, #1, 0
    9448:	9a0000bc 	bls	9740 <va_printk+0x588>
    944c:	e59f0360 	ldr	r0, [pc, #864]	; 97b4 <va_printk+0x5fc>
    9450:	e1a02121 	lsr	r2, r1, #2
    9454:	e3520001 	cmp	r2, #1, 0
    9458:	e58d0099 	str	r0, [sp, #153]	; 0x99
    945c:	0a00000e 	beq	949c <va_printk+0x2e4>
    9460:	e3520002 	cmp	r2, #2, 0
    9464:	e58d009d 	str	r0, [sp, #157]	; 0x9d
    9468:	0a00000b 	beq	949c <va_printk+0x2e4>
    946c:	e3520003 	cmp	r2, #3, 0
    9470:	e58d00a1 	str	r0, [sp, #161]	; 0xa1
    9474:	0a000008 	beq	949c <va_printk+0x2e4>
    9478:	e3520004 	cmp	r2, #4, 0
    947c:	e58d00a5 	str	r0, [sp, #165]	; 0xa5
    9480:	0a000005 	beq	949c <va_printk+0x2e4>
    9484:	e3520005 	cmp	r2, #5, 0
    9488:	e58d00a9 	str	r0, [sp, #169]	; 0xa9
    948c:	0a000002 	beq	949c <va_printk+0x2e4>
    9490:	e3520007 	cmp	r2, #7, 0
    9494:	e58d00ad 	str	r0, [sp, #173]	; 0xad
    9498:	058d00b1 	streq	r0, [sp, #177]	; 0xb1
    949c:	e3c12003 	bic	r2, r1, #3, 0
    94a0:	e1510002 	cmp	r1, r2
    94a4:	e28dc099 	add	ip, sp, #153, 0	; 0x99
    94a8:	e08c0002 	add	r0, ip, r2
    94ac:	e2822001 	add	r2, r2, #1, 0
    94b0:	0a000008 	beq	94d8 <va_printk+0x320>
    94b4:	e3a0e020 	mov	lr, #32, 0
    94b8:	e2829001 	add	r9, r2, #1, 0
    94bc:	e1550009 	cmp	r5, r9
    94c0:	e5c0e000 	strb	lr, [r0]
    94c4:	da000003 	ble	94d8 <va_printk+0x320>
    94c8:	e2822002 	add	r2, r2, #2, 0
    94cc:	e1550002 	cmp	r5, r2
    94d0:	e5c0e001 	strb	lr, [r0, #1]
    94d4:	c5c0e002 	strbgt	lr, [r0, #2]
    94d8:	e3a0e000 	mov	lr, #0, 0
    94dc:	e28d0098 	add	r0, sp, #152, 0	; 0x98
    94e0:	e08c2001 	add	r2, ip, r1
    94e4:	e0422000 	sub	r2, r2, r0
    94e8:	e352007f 	cmp	r2, #127, 0	; 0x7f
    94ec:	c242207f 	subgt	r2, r2, #127, 0	; 0x7f
    94f0:	e08c3003 	add	r3, ip, r3
    94f4:	c0800002 	addgt	r0, r0, r2
    94f8:	e1530000 	cmp	r3, r0
    94fc:	e7cce001 	strb	lr, [ip, r1]
    9500:	3a00006c 	bcc	96b8 <va_printk+0x500>
    9504:	e283c001 	add	ip, r3, #1, 0
    9508:	e1a0300c 	mov	r3, ip
    950c:	e28d5018 	add	r5, sp, #24, 0
    9510:	e2452001 	sub	r2, r5, #1, 0
    9514:	e5731001 	ldrb	r1, [r3, #-1]!
    9518:	e1500003 	cmp	r0, r3
    951c:	e5e21001 	strb	r1, [r2, #1]!
    9520:	1afffffb 	bne	9514 <va_printk+0x35c>
    9524:	e04c3000 	sub	r3, ip, r0
    9528:	e0853003 	add	r3, r5, r3
    952c:	ea00003a 	b	961c <va_printk+0x464>
    9530:	e28d1098 	add	r1, sp, #152, 0	; 0x98
    9534:	e1a03001 	mov	r3, r1
    9538:	e4980004 	ldr	r0, [r8], #4
    953c:	e200c001 	and	ip, r0, #1, 0
    9540:	e7dac00c 	ldrb	ip, [sl, ip]
    9544:	e3500001 	cmp	r0, #1, 0
    9548:	e1a02003 	mov	r2, r3
    954c:	e1a000a0 	lsr	r0, r0, #1
    9550:	e4c3c001 	strb	ip, [r3], #1
    9554:	8afffff8 	bhi	953c <va_printk+0x384>
    9558:	e0430001 	sub	r0, r3, r1
    955c:	e1550000 	cmp	r5, r0
    9560:	da000057 	ble	96c4 <va_printk+0x50c>
    9564:	e045c000 	sub	ip, r5, r0
    9568:	e24ce001 	sub	lr, ip, #1, 0
    956c:	e35e0002 	cmp	lr, #2, 0
    9570:	e1a0e003 	mov	lr, r3
    9574:	9a00000a 	bls	95a4 <va_printk+0x3ec>
    9578:	e3cc9003 	bic	r9, ip, #3, 0
    957c:	e0899003 	add	r9, r9, r3
    9580:	e59fb22c 	ldr	fp, [pc, #556]	; 97b4 <va_printk+0x5fc>
    9584:	e48eb004 	str	fp, [lr], #4
    9588:	e15e0009 	cmp	lr, r9
    958c:	1afffffb 	bne	9580 <va_printk+0x3c8>
    9590:	e3cce003 	bic	lr, ip, #3, 0
    9594:	e15e000c 	cmp	lr, ip
    9598:	e080000e 	add	r0, r0, lr
    959c:	e083e00e 	add	lr, r3, lr
    95a0:	0a000008 	beq	95c8 <va_printk+0x410>
    95a4:	e3a09020 	mov	r9, #32, 0
    95a8:	e280b001 	add	fp, r0, #1, 0
    95ac:	e155000b 	cmp	r5, fp
    95b0:	e5ce9000 	strb	r9, [lr]
    95b4:	da000003 	ble	95c8 <va_printk+0x410>
    95b8:	e2800002 	add	r0, r0, #2, 0
    95bc:	e1550000 	cmp	r5, r0
    95c0:	e5ce9001 	strb	r9, [lr, #1]
    95c4:	c5ce9002 	strbgt	r9, [lr, #2]
    95c8:	e3a0e000 	mov	lr, #0, 0
    95cc:	e083000c 	add	r0, r3, ip
    95d0:	e0400001 	sub	r0, r0, r1
    95d4:	e350007f 	cmp	r0, #127, 0	; 0x7f
    95d8:	e082200c 	add	r2, r2, ip
    95dc:	e7c3e00c 	strb	lr, [r3, ip]
    95e0:	da000001 	ble	95ec <va_printk+0x434>
    95e4:	e240007f 	sub	r0, r0, #127, 0	; 0x7f
    95e8:	e0811000 	add	r1, r1, r0
    95ec:	e1510002 	cmp	r1, r2
    95f0:	8a000030 	bhi	96b8 <va_printk+0x500>
    95f4:	e2822001 	add	r2, r2, #1, 0
    95f8:	e1a03002 	mov	r3, r2
    95fc:	e28d5018 	add	r5, sp, #24, 0
    9600:	e245c001 	sub	ip, r5, #1, 0
    9604:	e5730001 	ldrb	r0, [r3, #-1]!
    9608:	e1530001 	cmp	r3, r1
    960c:	e5ec0001 	strb	r0, [ip, #1]!
    9610:	1afffffb 	bne	9604 <va_printk+0x44c>
    9614:	e0423003 	sub	r3, r2, r3
    9618:	e0853003 	add	r3, r5, r3
    961c:	e3a02000 	mov	r2, #0, 0
    9620:	e5c32000 	strb	r2, [r3]
    9624:	eaffff39 	b	9310 <va_printk+0x158>
    9628:	e4985004 	ldr	r5, [r8], #4
    962c:	eaffff37 	b	9310 <va_printk+0x158>
    9630:	e3a02003 	mov	r2, #3, 0
    9634:	e1a00006 	mov	r0, r6
    9638:	e59f1168 	ldr	r1, [pc, #360]	; 97a8 <va_printk+0x5f0>
    963c:	eb00031b 	bl	a2b0 <strncmp>
    9640:	e2503000 	subs	r3, r0, #0, 0
    9644:	1a00004b 	bne	9778 <va_printk+0x5c0>
    9648:	e1a06003 	mov	r6, r3
    964c:	e1a0200b 	mov	r2, fp
    9650:	e58d3000 	str	r3, [sp]
    9654:	e28d1018 	add	r1, sp, #24, 0
    9658:	e1a03005 	mov	r3, r5
    965c:	e3a0000a 	mov	r0, #10, 0
    9660:	ebfffdf2 	bl	8e30 <emit.constprop.0>
    9664:	e1a0c000 	mov	ip, r0
    9668:	e1a03005 	mov	r3, r5
    966c:	e1a02009 	mov	r2, r9
    9670:	e28d1098 	add	r1, sp, #152, 0	; 0x98
    9674:	e3a0000a 	mov	r0, #10, 0
    9678:	e58d6000 	str	r6, [sp]
    967c:	e1a0500c 	mov	r5, ip
    9680:	ebfffdea 	bl	8e30 <emit.constprop.0>
    9684:	e59f112c 	ldr	r1, [pc, #300]	; 97b8 <va_printk+0x600>
    9688:	e28d0018 	add	r0, sp, #24, 0
    968c:	eb0002f0 	bl	a254 <strcmp>
    9690:	e3500000 	cmp	r0, #0, 0
    9694:	e28d1098 	add	r1, sp, #152, 0	; 0x98
    9698:	e28d0018 	add	r0, sp, #24, 0
    969c:	1a000002 	bne	96ac <va_printk+0x4f4>
    96a0:	eb0002fc 	bl	a298 <strcpy>
    96a4:	e59d6014 	ldr	r6, [sp, #20]
    96a8:	eaffff18 	b	9310 <va_printk+0x158>
    96ac:	eb0002dd 	bl	a228 <strcat>
    96b0:	e59d6014 	ldr	r6, [sp, #20]
    96b4:	eaffff15 	b	9310 <va_printk+0x158>
    96b8:	e28d5018 	add	r5, sp, #24, 0
    96bc:	e1a03005 	mov	r3, r5
    96c0:	eaffffd5 	b	961c <va_printk+0x464>
    96c4:	e3a0c000 	mov	ip, #0, 0
    96c8:	e350007f 	cmp	r0, #127, 0	; 0x7f
    96cc:	e5c3c000 	strb	ip, [r3]
    96d0:	caffffc3 	bgt	95e4 <va_printk+0x42c>
    96d4:	eaffffc6 	b	95f4 <va_printk+0x43c>
    96d8:	e3a02000 	mov	r2, #0, 0
    96dc:	e28d3098 	add	r3, sp, #152, 0	; 0x98
    96e0:	e1a00003 	mov	r0, r3
    96e4:	e5cd2099 	strb	r2, [sp, #153]	; 0x99
    96e8:	eaffff85 	b	9504 <va_printk+0x34c>
    96ec:	e3a03000 	mov	r3, #0, 0
    96f0:	e1a01002 	mov	r1, r2
    96f4:	e5c63001 	strb	r3, [r6, #1]
    96f8:	e59f00bc 	ldr	r0, [pc, #188]	; 97bc <va_printk+0x604>
    96fc:	ebfffd81 	bl	8d08 <printk>
    9700:	e59f30b8 	ldr	r3, [pc, #184]	; 97c0 <va_printk+0x608>
    9704:	e59d0010 	ldr	r0, [sp, #16]
    9708:	e5933000 	ldr	r3, [r3]
    970c:	e12fff33 	blx	r3
    9710:	e3a030e2 	mov	r3, #226, 0	; 0xe2
    9714:	e59f20a8 	ldr	r2, [pc, #168]	; 97c4 <va_printk+0x60c>
    9718:	e59f10a8 	ldr	r1, [pc, #168]	; 97c8 <va_printk+0x610>
    971c:	e59f00a8 	ldr	r0, [pc, #168]	; 97cc <va_printk+0x614>
    9720:	ebfffd78 	bl	8d08 <printk>
    9724:	eb00002e 	bl	97e4 <clean_reboot>
    9728:	e3a030be 	mov	r3, #190, 0	; 0xbe
    972c:	e59f2090 	ldr	r2, [pc, #144]	; 97c4 <va_printk+0x60c>
    9730:	e59f1090 	ldr	r1, [pc, #144]	; 97c8 <va_printk+0x610>
    9734:	e59f0094 	ldr	r0, [pc, #148]	; 97d0 <va_printk+0x618>
    9738:	ebfffd72 	bl	8d08 <printk>
    973c:	eb000028 	bl	97e4 <clean_reboot>
    9740:	e28dc099 	add	ip, sp, #153, 0	; 0x99
    9744:	e1a0000c 	mov	r0, ip
    9748:	e3a02001 	mov	r2, #1, 0
    974c:	eaffff58 	b	94b4 <va_printk+0x2fc>
    9750:	e1a0400b 	mov	r4, fp
    9754:	eafffee0 	b	92dc <va_printk+0x124>
    9758:	e3a03098 	mov	r3, #152, 0	; 0x98
    975c:	e59f2070 	ldr	r2, [pc, #112]	; 97d4 <va_printk+0x61c>
    9760:	e59f1060 	ldr	r1, [pc, #96]	; 97c8 <va_printk+0x610>
    9764:	e58d2000 	str	r2, [sp]
    9768:	e59f0068 	ldr	r0, [pc, #104]	; 97d8 <va_printk+0x620>
    976c:	e59f2050 	ldr	r2, [pc, #80]	; 97c4 <va_printk+0x60c>
    9770:	ebfffd64 	bl	8d08 <printk>
    9774:	eb00001a 	bl	97e4 <clean_reboot>
    9778:	e3a030b6 	mov	r3, #182, 0	; 0xb6
    977c:	e59f2040 	ldr	r2, [pc, #64]	; 97c4 <va_printk+0x60c>
    9780:	e59f1040 	ldr	r1, [pc, #64]	; 97c8 <va_printk+0x610>
    9784:	e59f0050 	ldr	r0, [pc, #80]	; 97dc <va_printk+0x624>
    9788:	e58d6000 	str	r6, [sp]
    978c:	ebfffd5d 	bl	8d08 <printk>
    9790:	eb000013 	bl	97e4 <clean_reboot>
    9794:	e3a0309f 	mov	r3, #159, 0	; 0x9f
    9798:	e59f2040 	ldr	r2, [pc, #64]	; 97e0 <va_printk+0x628>
    979c:	eaffffef 	b	9760 <va_printk+0x5a8>
    97a0:	0000a888 	andeq	sl, r0, r8, lsl #17
    97a4:	0000a8ac 	andeq	sl, r0, ip, lsr #17
    97a8:	0000a8c0 	andeq	sl, r0, r0, asr #17
    97ac:	0000a8b0 			; <UNDEFINED> instruction: 0x0000a8b0
    97b0:	0000a8b8 			; <UNDEFINED> instruction: 0x0000a8b8
    97b4:	20202020 	eorcs	r2, r0, r0, lsr #32
    97b8:	0000a6dc 	ldrdeq	sl, [r0], -ip
    97bc:	0000a950 	andeq	sl, r0, r0, asr r9
    97c0:	0000abcc 	andeq	sl, r0, ip, asr #23
    97c4:	0000a9b8 			; <UNDEFINED> instruction: 0x0000a9b8
    97c8:	0000a860 	andeq	sl, r0, r0, ror #16
    97cc:	0000a980 	andeq	sl, r0, r0, lsl #19
    97d0:	0000a928 	andeq	sl, r0, r8, lsr #18
    97d4:	0000a8a0 	andeq	sl, r0, r0, lsr #17
    97d8:	0000a43c 	andeq	sl, r0, ip, lsr r4
    97dc:	0000a900 	andeq	sl, r0, r0, lsl #18
    97e0:	0000a8c4 	andeq	sl, r0, r4, asr #17

000097e4 <clean_reboot>:
    97e4:	e59f301c 	ldr	r3, [pc, #28]	; 9808 <clean_reboot+0x24>
    97e8:	e92d4010 	push	{r4, lr}
    97ec:	e5933000 	ldr	r3, [r3]
    97f0:	e59f0014 	ldr	r0, [pc, #20]	; 980c <clean_reboot+0x28>
    97f4:	e12fff33 	blx	r3
    97f8:	eb00011b 	bl	9c6c <uart_flush_tx>
    97fc:	e3a0000a 	mov	r0, #10, 0
    9800:	eb000082 	bl	9a10 <delay_ms>
    9804:	eb00004b 	bl	9938 <rpi_reboot>
    9808:	0000abcc 	andeq	sl, r0, ip, asr #23
    980c:	0000a9c4 	andeq	sl, r0, r4, asr #19

00009810 <_cstart>:
    9810:	e92d4070 	push	{r4, r5, r6, lr}
    9814:	eb00003b 	bl	9908 <custom_loader>
    9818:	e59f20e0 	ldr	r2, [pc, #224]	; 9900 <_cstart+0xf0>
    981c:	e59fc0e0 	ldr	ip, [pc, #224]	; 9904 <_cstart+0xf4>
    9820:	e152000c 	cmp	r2, ip
    9824:	2a00002e 	bcs	98e4 <_cstart+0xd4>
    9828:	e24c1001 	sub	r1, ip, #1, 0
    982c:	e0411002 	sub	r1, r1, r2
    9830:	e3510017 	cmp	r1, #23, 0
    9834:	e1a03122 	lsr	r3, r2, #2
    9838:	e1a01121 	lsr	r1, r1, #2
    983c:	e2811001 	add	r1, r1, #1, 0
    9840:	e2033001 	and	r3, r3, #1, 0
    9844:	9a00002b 	bls	98f8 <_cstart+0xe8>
    9848:	e3530000 	cmp	r3, #0, 0
    984c:	11a00002 	movne	r0, r2
    9850:	13a0e000 	movne	lr, #0, 0
    9854:	e3a04000 	mov	r4, #0, 0
    9858:	e3a05000 	mov	r5, #0, 0
    985c:	e0411003 	sub	r1, r1, r3
    9860:	01a00002 	moveq	r0, r2
    9864:	e0823103 	add	r3, r2, r3, lsl #2
    9868:	e1a020a1 	lsr	r2, r1, #1
    986c:	1480e004 	strne	lr, [r0], #4
    9870:	e0832182 	add	r2, r3, r2, lsl #3
    9874:	e0c340f8 	strd	r4, [r3], #8
    9878:	e1520003 	cmp	r2, r3
    987c:	1afffffc 	bne	9874 <_cstart+0x64>
    9880:	e3c13001 	bic	r3, r1, #1, 0
    9884:	e1510003 	cmp	r1, r3
    9888:	e0803103 	add	r3, r0, r3, lsl #2
    988c:	0a000014 	beq	98e4 <_cstart+0xd4>
    9890:	e1a01003 	mov	r1, r3
    9894:	e3a02000 	mov	r2, #0, 0
    9898:	e4812004 	str	r2, [r1], #4
    989c:	e151000c 	cmp	r1, ip
    98a0:	2a00000f 	bcs	98e4 <_cstart+0xd4>
    98a4:	e2831008 	add	r1, r3, #8, 0
    98a8:	e151000c 	cmp	r1, ip
    98ac:	e5832004 	str	r2, [r3, #4]
    98b0:	2a00000b 	bcs	98e4 <_cstart+0xd4>
    98b4:	e283100c 	add	r1, r3, #12, 0
    98b8:	e151000c 	cmp	r1, ip
    98bc:	e5832008 	str	r2, [r3, #8]
    98c0:	2a000007 	bcs	98e4 <_cstart+0xd4>
    98c4:	e2831010 	add	r1, r3, #16, 0
    98c8:	e151000c 	cmp	r1, ip
    98cc:	e583200c 	str	r2, [r3, #12]
    98d0:	2a000003 	bcs	98e4 <_cstart+0xd4>
    98d4:	e2831014 	add	r1, r3, #20, 0
    98d8:	e151000c 	cmp	r1, ip
    98dc:	e5832010 	str	r2, [r3, #16]
    98e0:	35832014 	strcc	r2, [r3, #20]
    98e4:	eb000082 	bl	9af4 <uart_init>
    98e8:	e3a03001 	mov	r3, #1, 0
    98ec:	ee0f3f1c 	mcr	15, 0, r3, cr15, cr12, {0}
    98f0:	ebfff9d0 	bl	8038 <notmain>
    98f4:	ebffffba 	bl	97e4 <clean_reboot>
    98f8:	e1a03002 	mov	r3, r2
    98fc:	eaffffe3 	b	9890 <_cstart+0x80>
    9900:	0000abe8 	andeq	sl, r0, r8, ror #23
    9904:	0000b010 	andeq	fp, r0, r0, lsl r0

00009908 <custom_loader>:
    9908:	e12fff1e 	bx	lr

0000990c <at_user_level>:
    990c:	e10f0000 	mrs	r0, CPSR
    9910:	e200001f 	and	r0, r0, #31, 0
    9914:	e2400010 	sub	r0, r0, #16, 0
    9918:	e16f0f10 	clz	r0, r0
    991c:	e1a002a0 	lsr	r0, r0, #5
    9920:	e12fff1e 	bx	lr

00009924 <set_user_level>:
    9924:	e10f3000 	mrs	r3, CPSR
    9928:	e3c3301f 	bic	r3, r3, #31, 0
    992c:	e3833010 	orr	r3, r3, #16, 0
    9930:	e129f003 	msr	CPSR_fc, r3
    9934:	e12fff1e 	bx	lr

00009938 <rpi_reboot>:
    9938:	e92d4010 	push	{r4, lr}
    993c:	e10f3000 	mrs	r3, CPSR
    9940:	e203301f 	and	r3, r3, #31, 0
    9944:	e3530010 	cmp	r3, #16, 0
    9948:	1a000003 	bne	995c <rpi_reboot+0x24>
    994c:	e10f3000 	mrs	r3, CPSR
    9950:	e3c3301f 	bic	r3, r3, #31, 0
    9954:	e3833010 	orr	r3, r3, #16, 0
    9958:	e129f003 	msr	CPSR_fc, r3
    995c:	eb00025f 	bl	a2e0 <reboot_callout>
    9960:	eb0000c1 	bl	9c6c <uart_flush_tx>
    9964:	e3a0000a 	mov	r0, #10, 0
    9968:	eb000028 	bl	9a10 <delay_ms>
    996c:	e59f1014 	ldr	r1, [pc, #20]	; 9988 <rpi_reboot+0x50>
    9970:	e59f0014 	ldr	r0, [pc, #20]	; 998c <rpi_reboot+0x54>
    9974:	ebfff9aa 	bl	8024 <PUT32>
    9978:	e59f1010 	ldr	r1, [pc, #16]	; 9990 <rpi_reboot+0x58>
    997c:	e59f0010 	ldr	r0, [pc, #16]	; 9994 <rpi_reboot+0x5c>
    9980:	ebfff9a7 	bl	8024 <PUT32>
    9984:	eafffffe 	b	9984 <rpi_reboot+0x4c>
    9988:	5a000001 	bpl	9994 <rpi_reboot+0x5c>
    998c:	20100024 	andscs	r0, r0, r4, lsr #32
    9990:	5a000020 	bpl	9a18 <delay_ms+0x8>
    9994:	2010001c 	andscs	r0, r0, ip, lsl r0

00009998 <timer_get_usec_raw>:
    9998:	e59f0000 	ldr	r0, [pc]	; 99a0 <timer_get_usec_raw+0x8>
    999c:	eafff9a2 	b	802c <GET32>
    99a0:	20003004 	andcs	r3, r0, r4

000099a4 <timer_get_usec>:
    99a4:	e92d4010 	push	{r4, lr}
    99a8:	eb00024d 	bl	a2e4 <dev_barrier>
    99ac:	e59f0010 	ldr	r0, [pc, #16]	; 99c4 <timer_get_usec+0x20>
    99b0:	ebfff99d 	bl	802c <GET32>
    99b4:	e1a04000 	mov	r4, r0
    99b8:	eb000249 	bl	a2e4 <dev_barrier>
    99bc:	e1a00004 	mov	r0, r4
    99c0:	e8bd8010 	pop	{r4, pc}
    99c4:	20003004 	andcs	r3, r0, r4

000099c8 <delay_us>:
    99c8:	e92d41f0 	push	{r4, r5, r6, r7, r8, lr}
    99cc:	e1a06000 	mov	r6, r0
    99d0:	eb000243 	bl	a2e4 <dev_barrier>
    99d4:	e59f0030 	ldr	r0, [pc, #48]	; 9a0c <delay_us+0x44>
    99d8:	ebfff993 	bl	802c <GET32>
    99dc:	e1a05000 	mov	r5, r0
    99e0:	eb00023f 	bl	a2e4 <dev_barrier>
    99e4:	e59f7020 	ldr	r7, [pc, #32]	; 9a0c <delay_us+0x44>
    99e8:	eb00023d 	bl	a2e4 <dev_barrier>
    99ec:	e1a00007 	mov	r0, r7
    99f0:	ebfff98d 	bl	802c <GET32>
    99f4:	e1a04000 	mov	r4, r0
    99f8:	e0444005 	sub	r4, r4, r5
    99fc:	eb000238 	bl	a2e4 <dev_barrier>
    9a00:	e1540006 	cmp	r4, r6
    9a04:	3afffff7 	bcc	99e8 <delay_us+0x20>
    9a08:	e8bd81f0 	pop	{r4, r5, r6, r7, r8, pc}
    9a0c:	20003004 	andcs	r3, r0, r4

00009a10 <delay_ms>:
    9a10:	e92d41f0 	push	{r4, r5, r6, r7, r8, lr}
    9a14:	e0604280 	rsb	r4, r0, r0, lsl #5
    9a18:	e0800104 	add	r0, r0, r4, lsl #2
    9a1c:	e1a04180 	lsl	r4, r0, #3
    9a20:	eb00022f 	bl	a2e4 <dev_barrier>
    9a24:	e59f0030 	ldr	r0, [pc, #48]	; 9a5c <delay_ms+0x4c>
    9a28:	ebfff97f 	bl	802c <GET32>
    9a2c:	e1a06000 	mov	r6, r0
    9a30:	eb00022b 	bl	a2e4 <dev_barrier>
    9a34:	e59f7020 	ldr	r7, [pc, #32]	; 9a5c <delay_ms+0x4c>
    9a38:	eb000229 	bl	a2e4 <dev_barrier>
    9a3c:	e1a00007 	mov	r0, r7
    9a40:	ebfff979 	bl	802c <GET32>
    9a44:	e1a05000 	mov	r5, r0
    9a48:	e0455006 	sub	r5, r5, r6
    9a4c:	eb000224 	bl	a2e4 <dev_barrier>
    9a50:	e1540005 	cmp	r4, r5
    9a54:	8afffff7 	bhi	9a38 <delay_ms+0x28>
    9a58:	e8bd81f0 	pop	{r4, r5, r6, r7, r8, pc}
    9a5c:	20003004 	andcs	r3, r0, r4

00009a60 <delay_sec>:
    9a60:	e92d41f0 	push	{r4, r5, r6, r7, r8, lr}
    9a64:	e0604280 	rsb	r4, r0, r0, lsl #5
    9a68:	e0644304 	rsb	r4, r4, r4, lsl #6
    9a6c:	e0800184 	add	r0, r0, r4, lsl #3
    9a70:	e1a04300 	lsl	r4, r0, #6
    9a74:	eb00021a 	bl	a2e4 <dev_barrier>
    9a78:	e59f0030 	ldr	r0, [pc, #48]	; 9ab0 <delay_sec+0x50>
    9a7c:	ebfff96a 	bl	802c <GET32>
    9a80:	e1a06000 	mov	r6, r0
    9a84:	eb000216 	bl	a2e4 <dev_barrier>
    9a88:	e59f7020 	ldr	r7, [pc, #32]	; 9ab0 <delay_sec+0x50>
    9a8c:	eb000214 	bl	a2e4 <dev_barrier>
    9a90:	e1a00007 	mov	r0, r7
    9a94:	ebfff964 	bl	802c <GET32>
    9a98:	e1a05000 	mov	r5, r0
    9a9c:	e0455006 	sub	r5, r5, r6
    9aa0:	eb00020f 	bl	a2e4 <dev_barrier>
    9aa4:	e1540005 	cmp	r4, r5
    9aa8:	8afffff7 	bhi	9a8c <delay_sec+0x2c>
    9aac:	e8bd81f0 	pop	{r4, r5, r6, r7, r8, pc}
    9ab0:	20003004 	andcs	r3, r0, r4

00009ab4 <and_in32>:
    9ab4:	e92d4070 	push	{r4, r5, r6, lr}
    9ab8:	e1a04000 	mov	r4, r0
    9abc:	e1a05001 	mov	r5, r1
    9ac0:	ebfff959 	bl	802c <GET32>
    9ac4:	e0001005 	and	r1, r0, r5
    9ac8:	e1a00004 	mov	r0, r4
    9acc:	ebfff954 	bl	8024 <PUT32>
    9ad0:	e8bd8070 	pop	{r4, r5, r6, pc}

00009ad4 <or_in32>:
    9ad4:	e92d4070 	push	{r4, r5, r6, lr}
    9ad8:	e1a04000 	mov	r4, r0
    9adc:	e1a05001 	mov	r5, r1
    9ae0:	ebfff951 	bl	802c <GET32>
    9ae4:	e1801005 	orr	r1, r0, r5
    9ae8:	e1a00004 	mov	r0, r4
    9aec:	ebfff94c 	bl	8024 <PUT32>
    9af0:	e8bd8070 	pop	{r4, r5, r6, pc}

00009af4 <uart_init>:
    9af4:	e92d4010 	push	{r4, lr}
    9af8:	e3a01002 	mov	r1, #2, 0
    9afc:	e3a0000e 	mov	r0, #14, 0
    9b00:	eb000153 	bl	a054 <gpio_set_function>
    9b04:	e3a01002 	mov	r1, #2, 0
    9b08:	e3a0000f 	mov	r0, #15, 0
    9b0c:	eb000150 	bl	a054 <gpio_set_function>
    9b10:	eb0001f3 	bl	a2e4 <dev_barrier>
    9b14:	e3a01001 	mov	r1, #1, 0
    9b18:	e59f0064 	ldr	r0, [pc, #100]	; 9b84 <uart_init+0x90>
    9b1c:	ebffffec 	bl	9ad4 <or_in32>
    9b20:	eb0001ef 	bl	a2e4 <dev_barrier>
    9b24:	e59f405c 	ldr	r4, [pc, #92]	; 9b88 <uart_init+0x94>
    9b28:	e3a01000 	mov	r1, #0, 0
    9b2c:	e1a00004 	mov	r0, r4
    9b30:	ebfff93b 	bl	8024 <PUT32>
    9b34:	e3a01000 	mov	r1, #0, 0
    9b38:	e59f004c 	ldr	r0, [pc, #76]	; 9b8c <uart_init+0x98>
    9b3c:	ebfff938 	bl	8024 <PUT32>
    9b40:	e3a01003 	mov	r1, #3, 0
    9b44:	e59f0044 	ldr	r0, [pc, #68]	; 9b90 <uart_init+0x9c>
    9b48:	ebfff935 	bl	8024 <PUT32>
    9b4c:	e3a01000 	mov	r1, #0, 0
    9b50:	e59f003c 	ldr	r0, [pc, #60]	; 9b94 <uart_init+0xa0>
    9b54:	ebfff932 	bl	8024 <PUT32>
    9b58:	e3a010c7 	mov	r1, #199, 0	; 0xc7
    9b5c:	e59f0034 	ldr	r0, [pc, #52]	; 9b98 <uart_init+0xa4>
    9b60:	ebfff92f 	bl	8024 <PUT32>
    9b64:	e59f1030 	ldr	r1, [pc, #48]	; 9b9c <uart_init+0xa8>
    9b68:	e59f0030 	ldr	r0, [pc, #48]	; 9ba0 <uart_init+0xac>
    9b6c:	ebfff92c 	bl	8024 <PUT32>
    9b70:	e3a01003 	mov	r1, #3, 0
    9b74:	e1a00004 	mov	r0, r4
    9b78:	ebfff929 	bl	8024 <PUT32>
    9b7c:	eb0001d8 	bl	a2e4 <dev_barrier>
    9b80:	e8bd8010 	pop	{r4, pc}
    9b84:	20215004 	eorcs	r5, r1, r4
    9b88:	20215060 	eorcs	r5, r1, r0, rrx
    9b8c:	20215044 	eorcs	r5, r1, r4, asr #32
    9b90:	2021504c 	eorcs	r5, r1, ip, asr #32
    9b94:	20215050 	eorcs	r5, r1, r0, asr r0
    9b98:	20215048 	eorcs	r5, r1, r8, asr #32
    9b9c:	0000010e 	andeq	r0, r0, lr, lsl #2
    9ba0:	20215068 	eorcs	r5, r1, r8, rrx

00009ba4 <uart_can_getc>:
    9ba4:	e92d4010 	push	{r4, lr}
    9ba8:	e59f0008 	ldr	r0, [pc, #8]	; 9bb8 <uart_can_getc+0x14>
    9bac:	ebfff91e 	bl	802c <GET32>
    9bb0:	e2000001 	and	r0, r0, #1, 0
    9bb4:	e8bd8010 	pop	{r4, pc}
    9bb8:	20215064 	eorcs	r5, r1, r4, rrx

00009bbc <uart_can_putc>:
    9bbc:	e92d4010 	push	{r4, lr}
    9bc0:	e59f0010 	ldr	r0, [pc, #16]	; 9bd8 <uart_can_putc+0x1c>
    9bc4:	ebfff918 	bl	802c <GET32>
    9bc8:	e3100002 	tst	r0, #2, 0
    9bcc:	13a00001 	movne	r0, #1, 0
    9bd0:	03a00000 	moveq	r0, #0, 0
    9bd4:	e8bd8010 	pop	{r4, pc}
    9bd8:	20215064 	eorcs	r5, r1, r4, rrx

00009bdc <uart_getc>:
    9bdc:	e92d4010 	push	{r4, lr}
    9be0:	eb0001bf 	bl	a2e4 <dev_barrier>
    9be4:	ebffffee 	bl	9ba4 <uart_can_getc>
    9be8:	e3500000 	cmp	r0, #0, 0
    9bec:	0afffffc 	beq	9be4 <uart_getc+0x8>
    9bf0:	e59f0010 	ldr	r0, [pc, #16]	; 9c08 <uart_getc+0x2c>
    9bf4:	ebfff90c 	bl	802c <GET32>
    9bf8:	e6ef4070 	uxtb	r4, r0
    9bfc:	eb0001b8 	bl	a2e4 <dev_barrier>
    9c00:	e1a00004 	mov	r0, r4
    9c04:	e8bd8010 	pop	{r4, pc}
    9c08:	20215040 	eorcs	r5, r1, r0, asr #32

00009c0c <uart_putc>:
    9c0c:	e92d4010 	push	{r4, lr}
    9c10:	e1a04000 	mov	r4, r0
    9c14:	eb0001b2 	bl	a2e4 <dev_barrier>
    9c18:	ebffffe7 	bl	9bbc <uart_can_putc>
    9c1c:	e3500000 	cmp	r0, #0, 0
    9c20:	0afffffc 	beq	9c18 <uart_putc+0xc>
    9c24:	e6ef1074 	uxtb	r1, r4
    9c28:	e59f0008 	ldr	r0, [pc, #8]	; 9c38 <uart_putc+0x2c>
    9c2c:	ebfff8fc 	bl	8024 <PUT32>
    9c30:	eb0001ab 	bl	a2e4 <dev_barrier>
    9c34:	e8bd8010 	pop	{r4, pc}
    9c38:	20215040 	eorcs	r5, r1, r0, asr #32

00009c3c <uart_has_data>:
    9c3c:	e92d4010 	push	{r4, lr}
    9c40:	eb0001a7 	bl	a2e4 <dev_barrier>
    9c44:	ebffffd6 	bl	9ba4 <uart_can_getc>
    9c48:	e8bd8010 	pop	{r4, pc}

00009c4c <uart_tx_is_empty>:
    9c4c:	e92d4010 	push	{r4, lr}
    9c50:	eb0001a3 	bl	a2e4 <dev_barrier>
    9c54:	e59f000c 	ldr	r0, [pc, #12]	; 9c68 <uart_tx_is_empty+0x1c>
    9c58:	ebfff8f3 	bl	802c <GET32>
    9c5c:	e1a004a0 	lsr	r0, r0, #9
    9c60:	e2000001 	and	r0, r0, #1, 0
    9c64:	e8bd8010 	pop	{r4, pc}
    9c68:	20215064 	eorcs	r5, r1, r4, rrx

00009c6c <uart_flush_tx>:
    9c6c:	e92d4010 	push	{r4, lr}
    9c70:	ebfffff5 	bl	9c4c <uart_tx_is_empty>
    9c74:	e3500000 	cmp	r0, #0, 0
    9c78:	0afffffc 	beq	9c70 <uart_flush_tx+0x4>
    9c7c:	e8bd8010 	pop	{r4, pc}

00009c80 <uart_disable>:
    9c80:	e92d4010 	push	{r4, lr}
    9c84:	ebfffff8 	bl	9c6c <uart_flush_tx>
    9c88:	eb000195 	bl	a2e4 <dev_barrier>
    9c8c:	e3e01001 	mvn	r1, #1, 0
    9c90:	e59f0008 	ldr	r0, [pc, #8]	; 9ca0 <uart_disable+0x20>
    9c94:	ebffff86 	bl	9ab4 <and_in32>
    9c98:	eb000191 	bl	a2e4 <dev_barrier>
    9c9c:	e8bd8010 	pop	{r4, pc}
    9ca0:	20215004 	eorcs	r5, r1, r4

00009ca4 <kmalloc_heap_end>:
    9ca4:	e59f3004 	ldr	r3, [pc, #4]	; 9cb0 <kmalloc_heap_end+0xc>
    9ca8:	e5930000 	ldr	r0, [r3]
    9cac:	e12fff1e 	bx	lr
    9cb0:	0000abd4 	ldrdeq	sl, [r0], -r4

00009cb4 <kmalloc_heap_start>:
    9cb4:	e59f3004 	ldr	r3, [pc, #4]	; 9cc0 <kmalloc_heap_start+0xc>
    9cb8:	e5930004 	ldr	r0, [r3, #4]
    9cbc:	e12fff1e 	bx	lr
    9cc0:	0000abd4 	ldrdeq	sl, [r0], -r4

00009cc4 <kmalloc_heap_ptr>:
    9cc4:	e59f3004 	ldr	r3, [pc, #4]	; 9cd0 <kmalloc_heap_ptr+0xc>
    9cc8:	e5930000 	ldr	r0, [r3]
    9ccc:	e12fff1e 	bx	lr
    9cd0:	0000abd4 	ldrdeq	sl, [r0], -r4

00009cd4 <kmalloc_init_set_start>:
    9cd4:	e52de004 	push	{lr}		; (str lr, [sp, #-4]!)
    9cd8:	e24dd00c 	sub	sp, sp, #12, 0
    9cdc:	e3510000 	cmp	r1, #0, 0
    9ce0:	0a00000a 	beq	9d10 <kmalloc_init_set_start+0x3c>
    9ce4:	e59f306c 	ldr	r3, [pc, #108]	; 9d58 <kmalloc_init_set_start+0x84>
    9ce8:	e5933000 	ldr	r3, [r3]
    9cec:	e1530000 	cmp	r3, r0
    9cf0:	8a00000e 	bhi	9d30 <kmalloc_init_set_start+0x5c>
    9cf4:	e59f305c 	ldr	r3, [pc, #92]	; 9d58 <kmalloc_init_set_start+0x84>
    9cf8:	e5830000 	str	r0, [r3]
    9cfc:	e5830004 	str	r0, [r3, #4]
    9d00:	e0800001 	add	r0, r0, r1
    9d04:	e5830008 	str	r0, [r3, #8]
    9d08:	e28dd00c 	add	sp, sp, #12, 0
    9d0c:	e49df004 	pop	{pc}		; (ldr pc, [sp], #4)
    9d10:	e59f3044 	ldr	r3, [pc, #68]	; 9d5c <kmalloc_init_set_start+0x88>
    9d14:	e58d3000 	str	r3, [sp]
    9d18:	e3a03030 	mov	r3, #48, 0	; 0x30
    9d1c:	e59f203c 	ldr	r2, [pc, #60]	; 9d60 <kmalloc_init_set_start+0x8c>
    9d20:	e59f103c 	ldr	r1, [pc, #60]	; 9d64 <kmalloc_init_set_start+0x90>
    9d24:	e59f003c 	ldr	r0, [pc, #60]	; 9d68 <kmalloc_init_set_start+0x94>
    9d28:	ebfffbf6 	bl	8d08 <printk>
    9d2c:	ebfffeac 	bl	97e4 <clean_reboot>
    9d30:	e59f3020 	ldr	r3, [pc, #32]	; 9d58 <kmalloc_init_set_start+0x84>
    9d34:	e5933008 	ldr	r3, [r3, #8]
    9d38:	e58d3004 	str	r3, [sp, #4]
    9d3c:	e58d0000 	str	r0, [sp]
    9d40:	e3a03034 	mov	r3, #52, 0	; 0x34
    9d44:	e59f2014 	ldr	r2, [pc, #20]	; 9d60 <kmalloc_init_set_start+0x8c>
    9d48:	e59f1014 	ldr	r1, [pc, #20]	; 9d64 <kmalloc_init_set_start+0x90>
    9d4c:	e59f0018 	ldr	r0, [pc, #24]	; 9d6c <kmalloc_init_set_start+0x98>
    9d50:	ebfffbec 	bl	8d08 <printk>
    9d54:	ebfffea2 	bl	97e4 <clean_reboot>
    9d58:	0000abd4 	ldrdeq	sl, [r0], -r4
    9d5c:	0000a9dc 	ldrdeq	sl, [r0], -ip
    9d60:	0000ab68 	andeq	sl, r0, r8, ror #22
    9d64:	0000a9d0 	ldrdeq	sl, [r0], -r0
    9d68:	0000a43c 	andeq	sl, r0, ip, lsr r4
    9d6c:	0000a9e8 	andeq	sl, r0, r8, ror #19

00009d70 <kmalloc_init>:
    9d70:	e92d4010 	push	{r4, lr}
    9d74:	e59f303c 	ldr	r3, [pc, #60]	; 9db8 <kmalloc_init+0x48>
    9d78:	e5933000 	ldr	r3, [r3]
    9d7c:	e3530000 	cmp	r3, #0, 0
    9d80:	1a000006 	bne	9da0 <kmalloc_init+0x30>
    9d84:	e59f302c 	ldr	r3, [pc, #44]	; 9db8 <kmalloc_init+0x48>
    9d88:	e3a02001 	mov	r2, #1, 0
    9d8c:	e5832000 	str	r2, [r3]
    9d90:	e3a01201 	mov	r1, #268435456	; 0x10000000
    9d94:	e3a00601 	mov	r0, #1048576	; 0x100000
    9d98:	ebffffcd 	bl	9cd4 <kmalloc_init_set_start>
    9d9c:	e8bd8010 	pop	{r4, pc}
    9da0:	e3a03040 	mov	r3, #64, 0	; 0x40
    9da4:	e59f2010 	ldr	r2, [pc, #16]	; 9dbc <kmalloc_init+0x4c>
    9da8:	e59f1010 	ldr	r1, [pc, #16]	; 9dc0 <kmalloc_init+0x50>
    9dac:	e59f0010 	ldr	r0, [pc, #16]	; 9dc4 <kmalloc_init+0x54>
    9db0:	ebfffbd4 	bl	8d08 <printk>
    9db4:	ebfffe8a 	bl	97e4 <clean_reboot>
    9db8:	0000b00c 	andeq	fp, r0, ip
    9dbc:	0000ab80 	andeq	sl, r0, r0, lsl #23
    9dc0:	0000a9d0 	ldrdeq	sl, [r0], -r0
    9dc4:	0000aa2c 	andeq	sl, r0, ip, lsr #20

00009dc8 <kmalloc_notzero>:
    9dc8:	e52de004 	push	{lr}		; (str lr, [sp, #-4]!)
    9dcc:	e24dd00c 	sub	sp, sp, #12, 0
    9dd0:	e3500000 	cmp	r0, #0, 0
    9dd4:	0a00000a 	beq	9e04 <kmalloc_notzero+0x3c>
    9dd8:	e2800007 	add	r0, r0, #7, 0
    9ddc:	e3c03007 	bic	r3, r0, #7, 0
    9de0:	e59f2060 	ldr	r2, [pc, #96]	; 9e48 <kmalloc_notzero+0x80>
    9de4:	e5920000 	ldr	r0, [r2]
    9de8:	e0801003 	add	r1, r0, r3
    9dec:	e5821000 	str	r1, [r2]
    9df0:	e5922008 	ldr	r2, [r2, #8]
    9df4:	e1510002 	cmp	r1, r2
    9df8:	8a000009 	bhi	9e24 <kmalloc_notzero+0x5c>
    9dfc:	e28dd00c 	add	sp, sp, #12, 0
    9e00:	e49df004 	pop	{pc}		; (ldr pc, [sp], #4)
    9e04:	e59f3040 	ldr	r3, [pc, #64]	; 9e4c <kmalloc_notzero+0x84>
    9e08:	e58d3000 	str	r3, [sp]
    9e0c:	e3a03048 	mov	r3, #72, 0	; 0x48
    9e10:	e59f2038 	ldr	r2, [pc, #56]	; 9e50 <kmalloc_notzero+0x88>
    9e14:	e59f1038 	ldr	r1, [pc, #56]	; 9e54 <kmalloc_notzero+0x8c>
    9e18:	e59f0038 	ldr	r0, [pc, #56]	; 9e58 <kmalloc_notzero+0x90>
    9e1c:	ebfffbb9 	bl	8d08 <printk>
    9e20:	ebfffe6f 	bl	97e4 <clean_reboot>
    9e24:	e0422000 	sub	r2, r2, r0
    9e28:	e58d2004 	str	r2, [sp, #4]
    9e2c:	e58d3000 	str	r3, [sp]
    9e30:	e3a0304e 	mov	r3, #78, 0	; 0x4e
    9e34:	e59f2014 	ldr	r2, [pc, #20]	; 9e50 <kmalloc_notzero+0x88>
    9e38:	e59f1014 	ldr	r1, [pc, #20]	; 9e54 <kmalloc_notzero+0x8c>
    9e3c:	e59f0018 	ldr	r0, [pc, #24]	; 9e5c <kmalloc_notzero+0x94>
    9e40:	ebfffbb0 	bl	8d08 <printk>
    9e44:	ebfffe66 	bl	97e4 <clean_reboot>
    9e48:	0000abd4 	ldrdeq	sl, [r0], -r4
    9e4c:	0000a9e0 	andeq	sl, r0, r0, ror #19
    9e50:	0000ab90 	muleq	r0, r0, fp
    9e54:	0000a9d0 	ldrdeq	sl, [r0], -r0
    9e58:	0000a43c 	andeq	sl, r0, ip, lsr r4
    9e5c:	0000aa5c 	andeq	sl, r0, ip, asr sl

00009e60 <kmalloc>:
    9e60:	e92d4030 	push	{r4, r5, lr}
    9e64:	e24dd00c 	sub	sp, sp, #12, 0
    9e68:	e2504000 	subs	r4, r0, #0, 0
    9e6c:	0a000008 	beq	9e94 <kmalloc+0x34>
    9e70:	e1a00004 	mov	r0, r4
    9e74:	ebffffd3 	bl	9dc8 <kmalloc_notzero>
    9e78:	e1a05000 	mov	r5, r0
    9e7c:	e1a02004 	mov	r2, r4
    9e80:	e3a01000 	mov	r1, #0, 0
    9e84:	ebfffb81 	bl	8c90 <memset>
    9e88:	e1a00005 	mov	r0, r5
    9e8c:	e28dd00c 	add	sp, sp, #12, 0
    9e90:	e8bd8030 	pop	{r4, r5, pc}
    9e94:	e59f3018 	ldr	r3, [pc, #24]	; 9eb4 <kmalloc+0x54>
    9e98:	e58d3000 	str	r3, [sp]
    9e9c:	e3a03054 	mov	r3, #84, 0	; 0x54
    9ea0:	e59f2010 	ldr	r2, [pc, #16]	; 9eb8 <kmalloc+0x58>
    9ea4:	e59f1010 	ldr	r1, [pc, #16]	; 9ebc <kmalloc+0x5c>
    9ea8:	e59f0010 	ldr	r0, [pc, #16]	; 9ec0 <kmalloc+0x60>
    9eac:	ebfffb95 	bl	8d08 <printk>
    9eb0:	ebfffe4b 	bl	97e4 <clean_reboot>
    9eb4:	0000a9e0 	andeq	sl, r0, r0, ror #19
    9eb8:	0000aba0 	andeq	sl, r0, r0, lsr #23
    9ebc:	0000a9d0 	ldrdeq	sl, [r0], -r0
    9ec0:	0000a43c 	andeq	sl, r0, ip, lsr r4

00009ec4 <kmalloc_aligned>:
    9ec4:	e52de004 	push	{lr}		; (str lr, [sp, #-4]!)
    9ec8:	e24dd00c 	sub	sp, sp, #12, 0
    9ecc:	e3500000 	cmp	r0, #0, 0
    9ed0:	0a000014 	beq	9f28 <kmalloc_aligned+0x64>
    9ed4:	e2613000 	rsb	r3, r1, #0, 0
    9ed8:	e1d13003 	bics	r3, r1, r3
    9edc:	1a000019 	bne	9f48 <kmalloc_aligned+0x84>
    9ee0:	e3510008 	cmp	r1, #8, 0
    9ee4:	33a01008 	movcc	r1, #8, 0
    9ee8:	e59f30c0 	ldr	r3, [pc, #192]	; 9fb0 <kmalloc_aligned+0xec>
    9eec:	e5932000 	ldr	r2, [r3]
    9ef0:	e2613000 	rsb	r3, r1, #0, 0
    9ef4:	e1d1c003 	bics	ip, r1, r3
    9ef8:	1a00001b 	bne	9f6c <kmalloc_aligned+0xa8>
    9efc:	e0822001 	add	r2, r2, r1
    9f00:	e2422001 	sub	r2, r2, #1, 0
    9f04:	e0033002 	and	r3, r3, r2
    9f08:	e2411001 	sub	r1, r1, #1, 0
    9f0c:	e1110003 	tst	r1, r3
    9f10:	1a00001d 	bne	9f8c <kmalloc_aligned+0xc8>
    9f14:	e59f2094 	ldr	r2, [pc, #148]	; 9fb0 <kmalloc_aligned+0xec>
    9f18:	e5823000 	str	r3, [r2]
    9f1c:	ebffffcf 	bl	9e60 <kmalloc>
    9f20:	e28dd00c 	add	sp, sp, #12, 0
    9f24:	e49df004 	pop	{pc}		; (ldr pc, [sp], #4)
    9f28:	e59f3084 	ldr	r3, [pc, #132]	; 9fb4 <kmalloc_aligned+0xf0>
    9f2c:	e58d3000 	str	r3, [sp]
    9f30:	e3a0305f 	mov	r3, #95, 0	; 0x5f
    9f34:	e59f207c 	ldr	r2, [pc, #124]	; 9fb8 <kmalloc_aligned+0xf4>
    9f38:	e59f107c 	ldr	r1, [pc, #124]	; 9fbc <kmalloc_aligned+0xf8>
    9f3c:	e59f007c 	ldr	r0, [pc, #124]	; 9fc0 <kmalloc_aligned+0xfc>
    9f40:	ebfffb70 	bl	8d08 <printk>
    9f44:	ebfffe26 	bl	97e4 <clean_reboot>
    9f48:	eb0000ac 	bl	a200 <rpi_reset_putc>
    9f4c:	e59f3070 	ldr	r3, [pc, #112]	; 9fc4 <kmalloc_aligned+0x100>
    9f50:	e58d3000 	str	r3, [sp]
    9f54:	e3a03060 	mov	r3, #96, 0	; 0x60
    9f58:	e59f2058 	ldr	r2, [pc, #88]	; 9fb8 <kmalloc_aligned+0xf4>
    9f5c:	e59f1058 	ldr	r1, [pc, #88]	; 9fbc <kmalloc_aligned+0xf8>
    9f60:	e59f0060 	ldr	r0, [pc, #96]	; 9fc8 <kmalloc_aligned+0x104>
    9f64:	ebfffb67 	bl	8d08 <printk>
    9f68:	ebfffe1d 	bl	97e4 <clean_reboot>
    9f6c:	e59f3058 	ldr	r3, [pc, #88]	; 9fcc <kmalloc_aligned+0x108>
    9f70:	e58d3000 	str	r3, [sp]
    9f74:	e3a03011 	mov	r3, #17, 0
    9f78:	e59f2050 	ldr	r2, [pc, #80]	; 9fd0 <kmalloc_aligned+0x10c>
    9f7c:	e59f1038 	ldr	r1, [pc, #56]	; 9fbc <kmalloc_aligned+0xf8>
    9f80:	e59f0038 	ldr	r0, [pc, #56]	; 9fc0 <kmalloc_aligned+0xfc>
    9f84:	ebfffb5f 	bl	8d08 <printk>
    9f88:	ebfffe15 	bl	97e4 <clean_reboot>
    9f8c:	eb00009b 	bl	a200 <rpi_reset_putc>
    9f90:	e59f303c 	ldr	r3, [pc, #60]	; 9fd4 <kmalloc_aligned+0x110>
    9f94:	e58d3000 	str	r3, [sp]
    9f98:	e3a03068 	mov	r3, #104, 0	; 0x68
    9f9c:	e59f2014 	ldr	r2, [pc, #20]	; 9fb8 <kmalloc_aligned+0xf4>
    9fa0:	e59f1014 	ldr	r1, [pc, #20]	; 9fbc <kmalloc_aligned+0xf8>
    9fa4:	e59f002c 	ldr	r0, [pc, #44]	; 9fd8 <kmalloc_aligned+0x114>
    9fa8:	ebfffb56 	bl	8d08 <printk>
    9fac:	ebfffe0c 	bl	97e4 <clean_reboot>
    9fb0:	0000abd4 	ldrdeq	sl, [r0], -r4
    9fb4:	0000a9e0 	andeq	sl, r0, r0, ror #19
    9fb8:	0000aba8 	andeq	sl, r0, r8, lsr #23
    9fbc:	0000a9d0 	ldrdeq	sl, [r0], -r0
    9fc0:	0000a43c 	andeq	sl, r0, ip, lsr r4
    9fc4:	0000aad0 	ldrdeq	sl, [r0], -r0
    9fc8:	0000aa9c 	muleq	r0, ip, sl
    9fcc:	0000aae4 	andeq	sl, r0, r4, ror #21
    9fd0:	0000abb8 			; <UNDEFINED> instruction: 0x0000abb8
    9fd4:	0000ab1c 	andeq	sl, r0, ip, lsl fp
    9fd8:	0000aaf0 	strdeq	sl, [r0], -r0

00009fdc <kfree>:
    9fdc:	e12fff1e 	bx	lr

00009fe0 <kfree_all>:
    9fe0:	e59f3008 	ldr	r3, [pc, #8]	; 9ff0 <kfree_all+0x10>
    9fe4:	e5932004 	ldr	r2, [r3, #4]
    9fe8:	e5832000 	str	r2, [r3]
    9fec:	e12fff1e 	bx	lr
    9ff0:	0000abd4 	ldrdeq	sl, [r0], -r4

00009ff4 <kfree_pop>:
    9ff4:	e59f3048 	ldr	r3, [pc, #72]	; a044 <kfree_pop+0x50>
    9ff8:	e5933004 	ldr	r3, [r3, #4]
    9ffc:	e1530000 	cmp	r3, r0
    a000:	8a000006 	bhi	a020 <kfree_pop+0x2c>
    a004:	e59f3038 	ldr	r3, [pc, #56]	; a044 <kfree_pop+0x50>
    a008:	e5933008 	ldr	r3, [r3, #8]
    a00c:	e1530000 	cmp	r3, r0
    a010:	3a000002 	bcc	a020 <kfree_pop+0x2c>
    a014:	e59f3028 	ldr	r3, [pc, #40]	; a044 <kfree_pop+0x50>
    a018:	e5830000 	str	r0, [r3]
    a01c:	e12fff1e 	bx	lr
    a020:	e52de004 	push	{lr}		; (str lr, [sp, #-4]!)
    a024:	e24dd00c 	sub	sp, sp, #12, 0
    a028:	e58d0000 	str	r0, [sp]
    a02c:	e3a03077 	mov	r3, #119, 0	; 0x77
    a030:	e59f2010 	ldr	r2, [pc, #16]	; a048 <kfree_pop+0x54>
    a034:	e59f1010 	ldr	r1, [pc, #16]	; a04c <kfree_pop+0x58>
    a038:	e59f0010 	ldr	r0, [pc, #16]	; a050 <kfree_pop+0x5c>
    a03c:	ebfffb31 	bl	8d08 <printk>
    a040:	ebfffde7 	bl	97e4 <clean_reboot>
    a044:	0000abd4 	ldrdeq	sl, [r0], -r4
    a048:	0000abc0 	andeq	sl, r0, r0, asr #23
    a04c:	0000a9d0 	ldrdeq	sl, [r0], -r0
    a050:	0000ab38 	andeq	sl, r0, r8, lsr fp

0000a054 <gpio_set_function>:
    a054:	e350001f 	cmp	r0, #31, 0
    a058:	812fff1e 	bxhi	lr
    a05c:	e3d13007 	bics	r3, r1, #7, 0
    a060:	e92d4070 	push	{r4, r5, r6, lr}
    a064:	e1a05001 	mov	r5, r1
    a068:	18bd8070 	popne	{r4, r5, r6, pc}
    a06c:	e59f403c 	ldr	r4, [pc, #60]	; a0b0 <gpio_set_function+0x5c>
    a070:	e0843094 	umull	r3, r4, r4, r0
    a074:	e1a041a4 	lsr	r4, r4, #3
    a078:	e2843302 	add	r3, r4, #134217728	; 0x8000000
    a07c:	e2833702 	add	r3, r3, #524288	; 0x80000
    a080:	e1a06103 	lsl	r6, r3, #2
    a084:	e0844104 	add	r4, r4, r4, lsl #2
    a088:	e0404084 	sub	r4, r0, r4, lsl #1
    a08c:	e1a00006 	mov	r0, r6
    a090:	ebfff7e5 	bl	802c <GET32>
    a094:	e3a01007 	mov	r1, #7, 0
    a098:	e0844084 	add	r4, r4, r4, lsl #1
    a09c:	e1c01411 	bic	r1, r0, r1, lsl r4
    a0a0:	e1811415 	orr	r1, r1, r5, lsl r4
    a0a4:	e1a00006 	mov	r0, r6
    a0a8:	e8bd4070 	pop	{r4, r5, r6, lr}
    a0ac:	eafff7dc 	b	8024 <PUT32>
    a0b0:	cccccccd 	stclgt	12, cr12, [ip], {205}	; 0xcd

0000a0b4 <gpio_set_output>:
    a0b4:	e350001f 	cmp	r0, #31, 0
    a0b8:	812fff1e 	bxhi	lr
    a0bc:	e92d4070 	push	{r4, r5, r6, lr}
    a0c0:	e59f4040 	ldr	r4, [pc, #64]	; a108 <gpio_set_output+0x54>
    a0c4:	e0843094 	umull	r3, r4, r4, r0
    a0c8:	e1a041a4 	lsr	r4, r4, #3
    a0cc:	e2843302 	add	r3, r4, #134217728	; 0x8000000
    a0d0:	e2833702 	add	r3, r3, #524288	; 0x80000
    a0d4:	e1a05103 	lsl	r5, r3, #2
    a0d8:	e0844104 	add	r4, r4, r4, lsl #2
    a0dc:	e0404084 	sub	r4, r0, r4, lsl #1
    a0e0:	e1a00005 	mov	r0, r5
    a0e4:	ebfff7d0 	bl	802c <GET32>
    a0e8:	e3a03007 	mov	r3, #7, 0
    a0ec:	e3a01001 	mov	r1, #1, 0
    a0f0:	e0844084 	add	r4, r4, r4, lsl #1
    a0f4:	e1c03413 	bic	r3, r0, r3, lsl r4
    a0f8:	e1831411 	orr	r1, r3, r1, lsl r4
    a0fc:	e1a00005 	mov	r0, r5
    a100:	e8bd4070 	pop	{r4, r5, r6, lr}
    a104:	eafff7c6 	b	8024 <PUT32>
    a108:	cccccccd 	stclgt	12, cr12, [ip], {205}	; 0xcd

0000a10c <gpio_set_on>:
    a10c:	e1a03000 	mov	r3, r0
    a110:	e3a01001 	mov	r1, #1, 0
    a114:	e59f0004 	ldr	r0, [pc, #4]	; a120 <gpio_set_on+0x14>
    a118:	e1a01311 	lsl	r1, r1, r3
    a11c:	eafff7c0 	b	8024 <PUT32>
    a120:	2020001c 	eorcs	r0, r0, ip, lsl r0

0000a124 <gpio_set_off>:
    a124:	e1a03000 	mov	r3, r0
    a128:	e3a01001 	mov	r1, #1, 0
    a12c:	e59f0004 	ldr	r0, [pc, #4]	; a138 <gpio_set_off+0x14>
    a130:	e1a01311 	lsl	r1, r1, r3
    a134:	eafff7ba 	b	8024 <PUT32>
    a138:	20200028 	eorcs	r0, r0, r8, lsr #32

0000a13c <gpio_set_input>:
    a13c:	e350001f 	cmp	r0, #31, 0
    a140:	812fff1e 	bxhi	lr
    a144:	e92d4070 	push	{r4, r5, r6, lr}
    a148:	e59f5040 	ldr	r5, [pc, #64]	; a190 <gpio_set_input+0x54>
    a14c:	e1a04000 	mov	r4, r0
    a150:	e0853095 	umull	r3, r5, r5, r0
    a154:	e1a051a5 	lsr	r5, r5, #3
    a158:	e2850302 	add	r0, r5, #134217728	; 0x8000000
    a15c:	e2800702 	add	r0, r0, #524288	; 0x80000
    a160:	e1a06100 	lsl	r6, r0, #2
    a164:	e1a00006 	mov	r0, r6
    a168:	ebfff7af 	bl	802c <GET32>
    a16c:	e3a01007 	mov	r1, #7, 0
    a170:	e1a03000 	mov	r3, r0
    a174:	e0855105 	add	r5, r5, r5, lsl #2
    a178:	e0444085 	sub	r4, r4, r5, lsl #1
    a17c:	e0844084 	add	r4, r4, r4, lsl #1
    a180:	e1a00006 	mov	r0, r6
    a184:	e1c31411 	bic	r1, r3, r1, lsl r4
    a188:	e8bd4070 	pop	{r4, r5, r6, lr}
    a18c:	eafff7a4 	b	8024 <PUT32>
    a190:	cccccccd 	stclgt	12, cr12, [ip], {205}	; 0xcd

0000a194 <gpio_write>:
    a194:	e3510000 	cmp	r1, #0, 0
    a198:	e3a03001 	mov	r3, #1, 0
    a19c:	e1a01000 	mov	r1, r0
    a1a0:	0a000002 	beq	a1b0 <gpio_write+0x1c>
    a1a4:	e59f0010 	ldr	r0, [pc, #16]	; a1bc <gpio_write+0x28>
    a1a8:	e1a01113 	lsl	r1, r3, r1
    a1ac:	eafff79c 	b	8024 <PUT32>
    a1b0:	e59f0008 	ldr	r0, [pc, #8]	; a1c0 <gpio_write+0x2c>
    a1b4:	e1a01113 	lsl	r1, r3, r1
    a1b8:	eafff799 	b	8024 <PUT32>
    a1bc:	2020001c 	eorcs	r0, r0, ip, lsl r0
    a1c0:	20200028 	eorcs	r0, r0, r8, lsr #32

0000a1c4 <gpio_read>:
    a1c4:	e92d4010 	push	{r4, lr}
    a1c8:	e1a04000 	mov	r4, r0
    a1cc:	e59f0014 	ldr	r0, [pc, #20]	; a1e8 <gpio_read+0x24>
    a1d0:	e08002a4 	add	r0, r0, r4, lsr #5
    a1d4:	ebfff794 	bl	802c <GET32>
    a1d8:	e204401f 	and	r4, r4, #31, 0
    a1dc:	e1a00430 	lsr	r0, r0, r4
    a1e0:	e2000001 	and	r0, r0, #1, 0
    a1e4:	e8bd8010 	pop	{r4, pc}
    a1e8:	20200034 	eorcs	r0, r0, r4, lsr r0

0000a1ec <internal_putchar>:
    a1ec:	e92d4010 	push	{r4, lr}
    a1f0:	e1a04000 	mov	r4, r0
    a1f4:	ebfffe84 	bl	9c0c <uart_putc>
    a1f8:	e1a00004 	mov	r0, r4
    a1fc:	e8bd8010 	pop	{r4, pc}

0000a200 <rpi_reset_putc>:
    a200:	e59f3008 	ldr	r3, [pc, #8]	; a210 <rpi_reset_putc+0x10>
    a204:	e59f2008 	ldr	r2, [pc, #8]	; a214 <rpi_reset_putc+0x14>
    a208:	e5832000 	str	r2, [r3]
    a20c:	e12fff1e 	bx	lr
    a210:	0000abe0 	andeq	sl, r0, r0, ror #23
    a214:	0000a1ec 	andeq	sl, r0, ip, ror #3

0000a218 <rpi_set_putc>:
    a218:	e59f3004 	ldr	r3, [pc, #4]	; a224 <rpi_set_putc+0xc>
    a21c:	e5830000 	str	r0, [r3]
    a220:	e12fff1e 	bx	lr
    a224:	0000abe0 	andeq	sl, r0, r0, ror #23

0000a228 <strcat>:
    a228:	e1a02000 	mov	r2, r0
    a22c:	e1a03002 	mov	r3, r2
    a230:	e4d2c001 	ldrb	ip, [r2], #1
    a234:	e35c0000 	cmp	ip, #0, 0
    a238:	1afffffb 	bne	a22c <strcat+0x4>
    a23c:	e2433001 	sub	r3, r3, #1, 0
    a240:	e4d12001 	ldrb	r2, [r1], #1
    a244:	e3520000 	cmp	r2, #0, 0
    a248:	e5e32001 	strb	r2, [r3, #1]!
    a24c:	1afffffb 	bne	a240 <strcat+0x18>
    a250:	e12fff1e 	bx	lr

0000a254 <strcmp>:
    a254:	e5d03000 	ldrb	r3, [r0]
    a258:	e3530000 	cmp	r3, #0, 0
    a25c:	05d12000 	ldrbeq	r2, [r1]
    a260:	1a000003 	bne	a274 <strcmp+0x20>
    a264:	ea000006 	b	a284 <strcmp+0x30>
    a268:	e5f03001 	ldrb	r3, [r0, #1]!
    a26c:	e3530000 	cmp	r3, #0, 0
    a270:	0a000005 	beq	a28c <strcmp+0x38>
    a274:	e1a0c001 	mov	ip, r1
    a278:	e4d12001 	ldrb	r2, [r1], #1
    a27c:	e1520003 	cmp	r2, r3
    a280:	0afffff8 	beq	a268 <strcmp+0x14>
    a284:	e0430002 	sub	r0, r3, r2
    a288:	e12fff1e 	bx	lr
    a28c:	e5dc2001 	ldrb	r2, [ip, #1]
    a290:	e0430002 	sub	r0, r3, r2
    a294:	e12fff1e 	bx	lr

0000a298 <strcpy>:
    a298:	e2402001 	sub	r2, r0, #1, 0
    a29c:	e4d13001 	ldrb	r3, [r1], #1
    a2a0:	e3530000 	cmp	r3, #0, 0
    a2a4:	e5e23001 	strb	r3, [r2, #1]!
    a2a8:	1afffffb 	bne	a29c <strcpy+0x4>
    a2ac:	e12fff1e 	bx	lr

0000a2b0 <strncmp>:
    a2b0:	e0802002 	add	r2, r0, r2
    a2b4:	ea000003 	b	a2c8 <strncmp+0x18>
    a2b8:	e4d03001 	ldrb	r3, [r0], #1
    a2bc:	e4d1c001 	ldrb	ip, [r1], #1
    a2c0:	e153000c 	cmp	r3, ip
    a2c4:	1a000003 	bne	a2d8 <strncmp+0x28>
    a2c8:	e1500002 	cmp	r0, r2
    a2cc:	1afffff9 	bne	a2b8 <strncmp+0x8>
    a2d0:	e3a00000 	mov	r0, #0, 0
    a2d4:	e12fff1e 	bx	lr
    a2d8:	e043000c 	sub	r0, r3, ip
    a2dc:	e12fff1e 	bx	lr

0000a2e0 <reboot_callout>:
    a2e0:	e12fff1e 	bx	lr

0000a2e4 <dev_barrier>:
    a2e4:	ea000002 	b	a2f4 <dsb>

0000a2e8 <dmb>:
    a2e8:	e3a00000 	mov	r0, #0, 0
    a2ec:	ee070fba 	mcr	15, 0, r0, cr7, cr10, {5}
    a2f0:	e12fff1e 	bx	lr

0000a2f4 <dsb>:
    a2f4:	ee070f9a 	mcr	15, 0, r0, cr7, cr10, {4}
    a2f8:	e12fff1e 	bx	lr

0000a2fc <__code_end__>:
    a2fc:	00000000 	andeq	r0, r0, r0

Disassembly of section .rodata:

0000a300 <__FUNCTION__.4025-0x84>:
    a300:	74736574 	ldrbtvc	r6, [r3], #-1396	; 0xfffffa8c
    a304:	6c203a34 			; <UNDEFINED> instruction: 0x6c203a34
    a308:	65677261 	strbvs	r7, [r7, #-609]!	; 0xfffffd9f
    a30c:	6c612072 	stclvs	0, cr2, [r1], #-456	; 0xfffffe38
    a310:	2c636f6c 	stclcs	15, cr6, [r3], #-432	; 0xfffffe50
    a314:	206f6e20 	rsbcs	r6, pc, r0, lsr #28
    a318:	6f727265 	svcvs	0x00727265
    a31c:	00000a72 	andeq	r0, r0, r2, ror sl
    a320:	74736574 	ldrbtvc	r6, [r3], #-1396	; 0xfffffa8c
    a324:	2e322d73 	mrccs	13, 1, r2, cr2, cr3, {3}
    a328:	61702f30 	cmnvs	r0, r0, lsr pc
    a32c:	2d317472 	cfldrscs	mvf7, [r1, #-456]!	; 0xfffffe38
    a330:	74736574 	ldrbtvc	r6, [r3], #-1396	; 0xfffffa8c
    a334:	6f6e2d35 	svcvs	0x006e2d35
    a338:	6775622d 	ldrbvs	r6, [r5, -sp, lsr #4]!
    a33c:	0000632e 	andeq	r6, r0, lr, lsr #6
    a340:	494e4150 	stmdbmi	lr, {r4, r6, r8, lr}^
    a344:	73253a43 			; <UNDEFINED> instruction: 0x73253a43
    a348:	3a73253a 	bcc	1cd3838 <__bss_end__+0x1cc8828>
    a34c:	693a6425 	ldmdbvs	sl!, {r0, r2, r5, sl, sp, lr}
    a350:	6c61766e 	stclvs	6, cr7, [r1], #-440	; 0xfffffe48
    a354:	65206469 	strvs	r6, [r0, #-1129]!	; 0xfffffb97
    a358:	726f7272 	rsbvc	r7, pc, #536870919	; 0x20000007
    a35c:	0a0a2121 	beq	2927e8 <__bss_end__+0x2877d8>
    a360:	00000000 	andeq	r0, r0, r0
    a364:	43415254 	movtmi	r5, #4692	; 0x1254
    a368:	55533a45 	ldrbpl	r3, [r3, #-2629]	; 0xfffff5bb
    a36c:	53454343 	movtpl	r4, #21315	; 0x5343
    a370:	65682053 	strbvs	r2, [r8, #-83]!	; 0xffffffad
    a374:	63207061 			; <UNDEFINED> instruction: 0x63207061
    a378:	6b636568 	blvs	18e3920 <__bss_end__+0x18d8910>
    a37c:	6f206465 	svcvs	0x00206465
    a380:	000a7475 	andeq	r7, sl, r5, ror r4

0000a384 <__FUNCTION__.4025>:
    a384:	6d746f6e 	ldclvs	15, cr6, [r4, #-440]!	; 0xfffffe48
    a388:	006e6961 	rsbeq	r6, lr, r1, ror #18
    a38c:	6e756f66 	cdpvs	15, 7, cr6, cr5, cr6, {3}
    a390:	70252064 	eorvc	r2, r5, r4, rrx
    a394:	206e6920 	rsbcs	r6, lr, r0, lsr #18
    a398:	000a7025 	andeq	r7, sl, r5, lsr #32
    a39c:	253a7325 	ldrcs	r7, [sl, #-805]!	; 0xfffffcdb
    a3a0:	64253a73 	strtvs	r3, [r5], #-2675	; 0xfffff58d
    a3a4:	0000003a 	andeq	r0, r0, sl, lsr r0
    a3a8:	65657266 	strbvs	r7, [r5, #-614]!	; 0xfffffd9a
    a3ac:	20676e69 	rsbcs	r6, r7, r9, ror #28
    a3b0:	0a702509 	beq	1c137dc <__bss_end__+0x1c087cc>
    a3b4:	00000000 	andeq	r0, r0, r0
    a3b8:	5f434f4c 	svcpl	0x00434f4c
    a3bc:	494e4150 	stmdbmi	lr, {r4, r6, r8, lr}^
    a3c0:	25203a43 	strcs	r3, [r0, #-2627]!	; 0xfffff5bd
    a3c4:	73253a73 			; <UNDEFINED> instruction: 0x73253a73
    a3c8:	3a64253a 	bcc	19138b8 <__bss_end__+0x19088a8>
    a3cc:	00000000 	andeq	r0, r0, r0
    a3d0:	65657266 	strbvs	r7, [r5, #-614]!	; 0xfffffd9a
    a3d4:	20676e69 	rsbcs	r6, r7, r9, ror #28
    a3d8:	6c616e75 	stclvs	14, cr6, [r1], #-468	; 0xfffffe2c
    a3dc:	61636f6c 	cmnvs	r3, ip, ror #30
    a3e0:	20646574 	rsbcs	r6, r4, r4, ror r5
    a3e4:	6f6d656d 	svcvs	0x006d656d
    a3e8:	203a7972 	eorscs	r7, sl, r2, ror r9
    a3ec:	74617473 	strbtvc	r7, [r1], #-1139	; 0xfffffb8d
    a3f0:	64253d65 	strtvs	r3, [r5], #-3429	; 0xfffff29b
    a3f4:	0000000a 	andeq	r0, r0, sl
    a3f8:	7a646572 	bvc	19239c8 <__bss_end__+0x19189b8>
    a3fc:	20656e6f 	rsbcs	r6, r5, pc, ror #28
    a400:	77203123 	strvc	r3, [r0, -r3, lsr #2]!
    a404:	63207361 			; <UNDEFINED> instruction: 0x63207361
    a408:	7572726f 	ldrbvc	r7, [r2, #-623]!	; 0xfffffd91
    a40c:	64657470 	strbtvs	r7, [r5], #-1136	; 0xfffffb90
    a410:	00000a21 	andeq	r0, r0, r1, lsr #20
    a414:	7a646572 	bvc	19239e4 <__bss_end__+0x19189d4>
    a418:	20656e6f 	rsbcs	r6, r5, pc, ror #28
    a41c:	77203223 	strvc	r3, [r0, -r3, lsr #4]!
    a420:	63207361 			; <UNDEFINED> instruction: 0x63207361
    a424:	7572726f 	ldrbvc	r7, [r2, #-623]!	; 0xfffffd91
    a428:	64657470 	strbtvs	r7, [r5], #-1136	; 0xfffffb90
    a42c:	00000a21 	andeq	r0, r0, r1, lsr #20
    a430:	6c616b63 			; <UNDEFINED> instruction: 0x6c616b63
    a434:	2e636f6c 	cdpcs	15, 6, cr6, cr3, cr12, {3}
    a438:	00000063 	andeq	r0, r0, r3, rrx
    a43c:	494e4150 	stmdbmi	lr, {r4, r6, r8, lr}^
    a440:	73253a43 			; <UNDEFINED> instruction: 0x73253a43
    a444:	3a73253a 	bcc	1cd3934 <__bss_end__+0x1cc8924>
    a448:	253a6425 	ldrcs	r6, [sl, #-1061]!	; 0xfffffbdb
    a44c:	00000a73 	andeq	r0, r0, r3, ror sl
    a450:	705f6b63 	subsvc	r6, pc, r3, ror #22
    a454:	695f7274 	ldmdbvs	pc, {r2, r4, r5, r6, r9, ip, sp, lr}^	; <UNPREDICTABLE>
    a458:	6c615f73 	stclvs	15, cr5, [r1], #-460	; 0xfffffe34
    a45c:	65636f6c 	strbvs	r6, [r3, #-3948]!	; 0xfffff094
    a460:	64612864 	strbtvs	r2, [r1], #-2148	; 0xfffff79c
    a464:	00297264 	eoreq	r7, r9, r4, ror #4
    a468:	6f6c6c61 	svcvs	0x006c6c61
    a46c:	69746163 	ldmdbvs	r4!, {r0, r1, r5, r6, r8, sp, lr}^
    a470:	2520676e 	strcs	r6, [r0, #-1902]!	; 0xfffff892
    a474:	25282070 	strcs	r2, [r8, #-112]!	; 0xffffff90
    a478:	79622064 	stmdbvc	r2!, {r2, r5, r6, sp}^
    a47c:	29736574 	ldmdbcs	r3!, {r2, r4, r5, r6, r8, sl, sp, lr}^
    a480:	0000000a 	andeq	r0, r0, sl

0000a484 <__FUNCTION__.4078>:
    a484:	72666b63 	rsbvc	r6, r6, #101376	; 0x18c00
    a488:	00006565 	andeq	r6, r0, r5, ror #10
    a48c:	75716552 	ldrbvc	r6, [r1, #-1362]!	; 0xfffffaae
    a490:	74737265 	ldrbtvc	r7, [r3], #-613	; 0xfffffd9b
    a494:	20676e69 	rsbcs	r6, r7, r9, ror #28
    a498:	65726f6d 	ldrbvs	r6, [r2, #-3949]!	; 0xfffff093
    a49c:	6d656d20 	stclvs	13, cr6, [r5, #-128]!	; 0xffffff80
    a4a0:	2079726f 	rsbscs	r7, r9, pc, ror #4
    a4a4:	29642528 	stmdbcs	r4!, {r3, r5, r8, sl, sp}^
    a4a8:	0a2e2e2e 	beq	b95d68 <__bss_end__+0xb8ad58>
    a4ac:	00000000 	andeq	r0, r0, r0
    a4b0:	672d6b63 	strvs	r6, [sp, -r3, ror #22]!
    a4b4:	00632e63 	rsbeq	r2, r3, r3, ror #28
    a4b8:	203c2070 	eorscs	r2, ip, r0, ror r0
    a4bc:	00000065 	andeq	r0, r0, r5, rrx
    a4c0:	67696c61 	strbvs	r6, [r9, -r1, ror #24]!
    a4c4:	2864656e 	stmdacs	r4!, {r1, r2, r3, r5, r6, r8, sl, sp, lr}^
    a4c8:	34202c70 	strtcc	r2, [r0], #-3184	; 0xfffff390
    a4cc:	00000029 	andeq	r0, r0, r9, lsr #32
    a4d0:	67696c61 	strbvs	r6, [r9, -r1, ror #24]!
    a4d4:	2864656e 	stmdacs	r4!, {r1, r2, r3, r5, r6, r8, sl, sp, lr}^
    a4d8:	34202c65 	strtcc	r2, [r0], #-3173	; 0xfffff39b
    a4dc:	00000029 	andeq	r0, r0, r9, lsr #32
    a4e0:	6e696f67 	cdpvs	15, 6, cr6, cr9, cr7, {3}
    a4e4:	6f742067 	svcvs	0x00742067
    a4e8:	72616d20 	rsbvc	r6, r1, #32, 26	; 0x800
    a4ec:	7025206b 	eorvc	r2, r5, fp, rrx
    a4f0:	20692820 	rsbcs	r2, r9, r0, lsr #16
    a4f4:	70252040 	eorvc	r2, r5, r0, asr #32
    a4f8:	25203d20 	strcs	r3, [r0, #-3360]!	; 0xfffff2e0
    a4fc:	202c2970 	eorcs	r2, ip, r0, ror r9
    a500:	20707865 	rsbscs	r7, r0, r5, ror #16
    a504:	7025203d 	eorvc	r2, r5, sp, lsr r0
    a508:	0000000a 	andeq	r0, r0, sl
    a50c:	6b72616d 	blvs	1ca2ac8 <__bss_end__+0x1c97ab8>
    a510:	20676e69 	rsbcs	r6, r7, r9, ror #28
    a514:	25207361 	strcs	r7, [r0, #-865]!	; 0xfffffc9f
    a518:	00000a64 	andeq	r0, r0, r4, ror #20
    a51c:	20746f6e 	rsbscs	r6, r4, lr, ror #30
    a520:	6b72616d 	blvs	1ca2adc <__bss_end__+0x1c97acc>
    a524:	21676e69 	cmncs	r7, r9, ror #28
    a528:	0000000a 	andeq	r0, r0, sl
    a52c:	63656863 	cmnvs	r5, #6488064	; 0x630000
    a530:	676e696b 	strbvs	r6, [lr, -fp, ror #18]!
    a534:	61747320 	cmnvs	r4, r0, lsr #6
    a538:	203a6b63 	eorscs	r6, sl, r3, ror #22
    a53c:	74207025 	strtvc	r7, [r0], #-37	; 0xffffffdb
    a540:	7025206f 	eorvc	r2, r5, pc, rrx
    a544:	0000000a 	andeq	r0, r0, sl
    a548:	2d2d2d2d 	stccs	13, cr2, [sp, #-180]!	; 0xffffff4c
    a54c:	2d2d2d2d 	stccs	13, cr2, [sp, #-180]!	; 0xffffff4c
    a550:	2d2d2d2d 	stccs	13, cr2, [sp, #-180]!	; 0xffffff4c
    a554:	2d2d2d2d 	stccs	13, cr2, [sp, #-180]!	; 0xffffff4c
    a558:	2d2d2d2d 	stccs	13, cr2, [sp, #-180]!	; 0xffffff4c
    a55c:	2d2d2d2d 	stccs	13, cr2, [sp, #-180]!	; 0xffffff4c
    a560:	2d2d2d2d 	stccs	13, cr2, [sp, #-180]!	; 0xffffff4c
    a564:	2d2d2d2d 	stccs	13, cr2, [sp, #-180]!	; 0xffffff4c
    a568:	2d2d2d2d 	stccs	13, cr2, [sp, #-180]!	; 0xffffff4c
    a56c:	2d2d2d2d 	stccs	13, cr2, [sp, #-180]!	; 0xffffff4c
    a570:	2d2d2d2d 	stccs	13, cr2, [sp, #-180]!	; 0xffffff4c
    a574:	2d2d2d2d 	stccs	13, cr2, [sp, #-180]!	; 0xffffff4c
    a578:	2d2d2d2d 	stccs	13, cr2, [sp, #-180]!	; 0xffffff4c
    a57c:	2d2d2d2d 	stccs	13, cr2, [sp, #-180]!	; 0xffffff4c
    a580:	00000a2d 	andeq	r0, r0, sp, lsr #20
    a584:	63656863 	cmnvs	r5, #6488064	; 0x630000
    a588:	676e696b 	strbvs	r6, [lr, -fp, ror #18]!
    a58c:	726f6620 	rsbvc	r6, pc, #32, 12	; 0x2000000
    a590:	61656c20 	cmnvs	r5, r0, lsr #24
    a594:	0a3a736b 	beq	ea7348 <__bss_end__+0xe9c338>
    a598:	00000000 	andeq	r0, r0, r0
    a59c:	4c3a4347 	ldcmi	3, cr4, [sl], #-284	; 0xfffffee4
    a5a0:	2054534f 	subscs	r5, r4, pc, asr #6
    a5a4:	2d206425 	cfstrscs	mvf6, [r0, #-148]!	; 0xffffff6c
    a5a8:	7025203e 	eorvc	r2, r5, lr, lsr r0
    a5ac:	0000000a 	andeq	r0, r0, sl
    a5b0:	4d3a4347 	ldcmi	3, cr4, [sl, #-284]!	; 0xfffffee4
    a5b4:	45425941 	strbmi	r5, [r2, #-2369]	; 0xfffff6bf
    a5b8:	534f4c20 	movtpl	r4, #64544	; 0xfc20
    a5bc:	64252054 	strtvs	r2, [r5], #-84	; 0xffffffac
    a5c0:	203e2d20 	eorscs	r2, lr, r0, lsr #26
    a5c4:	000a7025 	andeq	r7, sl, r5, lsr #32
    a5c8:	43415254 	movtmi	r5, #4692	; 0x1254
    a5cc:	47093a45 	strmi	r3, [r9, -r5, asr #20]
    a5d0:	68433a43 	stmdavs	r3, {r0, r1, r6, r9, fp, ip, sp}^
    a5d4:	656b6365 	strbvs	r6, [fp, #-869]!	; 0xfffffc9b
    a5d8:	64252064 	strtvs	r2, [r5], #-100	; 0xffffff9c
    a5dc:	6f6c6220 	svcvs	0x006c6220
    a5e0:	2e736b63 	vsubcs.f64	d22, d3, d19
    a5e4:	0000000a 	andeq	r0, r0, sl
    a5e8:	43415254 	movtmi	r5, #4692	; 0x1254
    a5ec:	09093a45 	stmdbeq	r9, {r0, r2, r6, r9, fp, ip, sp}
    a5f0:	533a4347 	teqpl	sl, #469762049	; 0x1c000001
    a5f4:	45434355 	strbmi	r4, [r3, #-853]	; 0xfffffcab
    a5f8:	203a5353 	eorscs	r5, sl, r3, asr r3
    a5fc:	6c206f4e 	stcvs	15, cr6, [r0], #-312	; 0xfffffec8
    a600:	736b6165 	cmnvc	fp, #1073741849	; 0x40000019
    a604:	756f6620 	strbvc	r6, [pc, #-1568]!	; 9fec <kfree_all+0xc>
    a608:	0a21646e 	beq	8637c8 <__bss_end__+0x8587b8>
    a60c:	00000000 	andeq	r0, r0, r0
    a610:	43415254 	movtmi	r5, #4692	; 0x1254
    a614:	09093a45 	stmdbeq	r9, {r0, r2, r6, r9, fp, ip, sp}
    a618:	453a4347 	ldrmi	r4, [sl, #-839]!	; 0xfffffcb9
    a61c:	524f5252 	subpl	r5, pc, #536870917	; 0x20000005
    a620:	25203a53 	strcs	r3, [r0, #-2643]!	; 0xfffff5ad
    a624:	72652064 	rsbvc	r2, r5, #100, 0	; 0x64
    a628:	73726f72 	cmnvc	r2, #456	; 0x1c8
    a62c:	6425202c 	strtvs	r2, [r5], #-44	; 0xffffffd4
    a630:	79616d20 	stmdbvc	r1!, {r5, r8, sl, fp, sp, lr}^
    a634:	655f6562 	ldrbvs	r6, [pc, #-1378]	; a0da <gpio_set_output+0x26>
    a638:	726f7272 	rsbvc	r7, pc, #536870919	; 0x20000007
    a63c:	00000a73 	andeq	r0, r0, r3, ror sl
    a640:	2d2d2d2d 	stccs	13, cr2, [sp, #-180]!	; 0xffffff4c
    a644:	2d2d2d2d 	stccs	13, cr2, [sp, #-180]!	; 0xffffff4c
    a648:	2d2d2d2d 	stccs	13, cr2, [sp, #-180]!	; 0xffffff4c
    a64c:	2d2d2d2d 	stccs	13, cr2, [sp, #-180]!	; 0xffffff4c
    a650:	2d2d2d2d 	stccs	13, cr2, [sp, #-180]!	; 0xffffff4c
    a654:	2d2d2d2d 	stccs	13, cr2, [sp, #-180]!	; 0xffffff4c
    a658:	2d2d2d2d 	stccs	13, cr2, [sp, #-180]!	; 0xffffff4c
    a65c:	2d2d2d2d 	stccs	13, cr2, [sp, #-180]!	; 0xffffff4c
    a660:	2d2d2d2d 	stccs	13, cr2, [sp, #-180]!	; 0xffffff4c
    a664:	2d2d2d2d 	stccs	13, cr2, [sp, #-180]!	; 0xffffff4c
    a668:	2d2d2d2d 	stccs	13, cr2, [sp, #-180]!	; 0xffffff4c
    a66c:	2d2d2d2d 	stccs	13, cr2, [sp, #-180]!	; 0xffffff4c
    a670:	2d2d2d2d 	stccs	13, cr2, [sp, #-180]!	; 0xffffff4c
    a674:	2d2d2d2d 	stccs	13, cr2, [sp, #-180]!	; 0xffffff4c
    a678:	000a2d2d 	andeq	r2, sl, sp, lsr #26
    a67c:	706d6f63 	rsbvc	r6, sp, r3, ror #30
    a680:	69746361 	ldmdbvs	r4!, {r0, r5, r6, r8, r9, sp, lr}^
    a684:	0a3a676e 	beq	ea4444 <__bss_end__+0xe99434>
    a688:	00000000 	andeq	r0, r0, r0
    a68c:	463a4347 	ldrtmi	r4, [sl], -r7, asr #6
    a690:	44454552 	strbmi	r4, [r5], #-1362	; 0xfffffaae
    a694:	0a702520 	beq	1c13b1c <__bss_end__+0x1c08b0c>
    a698:	00000000 	andeq	r0, r0, r0
    a69c:	43415254 	movtmi	r5, #4692	; 0x1254
    a6a0:	47093a45 	strmi	r3, [r9, -r5, asr #20]
    a6a4:	68433a43 	stmdavs	r3, {r0, r1, r6, r9, fp, ip, sp}^
    a6a8:	656b6365 	strbvs	r6, [fp, #-869]!	; 0xfffffc9b
    a6ac:	64252064 	strtvs	r2, [r5], #-100	; 0xffffff9c
    a6b0:	6f6c6220 	svcvs	0x006c6220
    a6b4:	2c736b63 			; <UNDEFINED> instruction: 0x2c736b63
    a6b8:	65726620 	ldrbvs	r6, [r2, #-1568]!	; 0xfffff9e0
    a6bc:	25206465 	strcs	r6, [r0, #-1125]!	; 0xfffffb9b
    a6c0:	25202c64 	strcs	r2, [r0, #-3172]!	; 0xfffff39c
    a6c4:	79622064 	stmdbvc	r2!, {r2, r5, r6, sp}^
    a6c8:	0a736574 	beq	1ce3ca0 <__bss_end__+0x1cd8c90>
    a6cc:	00000000 	andeq	r0, r0, r0
    a6d0:	72636e69 	rsbvc	r6, r3, #1680	; 0x690
    a6d4:	6e656d65 	cdpvs	13, 6, cr6, cr5, cr5, {3}
    a6d8:	203e2074 	eorscs	r2, lr, r4, ror r0
    a6dc:	00000030 	andeq	r0, r0, r0, lsr r0
    a6e0:	494e4150 	stmdbmi	lr, {r4, r6, r8, lr}^
    a6e4:	73253a43 			; <UNDEFINED> instruction: 0x73253a43
    a6e8:	3a73253a 	bcc	1cd3bd8 <__bss_end__+0x1cc8bc8>
    a6ec:	6e3a6425 	cdpvs	4, 3, cr6, cr10, cr5, {1}
    a6f0:	6820746f 	stmdavs	r0!, {r0, r1, r2, r3, r5, r6, sl, ip, sp, lr}
    a6f4:	6c646e61 	stclvs	14, cr6, [r4], #-388	; 0xfffffe7c
    a6f8:	0a676e69 	beq	19e60a4 <__bss_end__+0x19db094>
    a6fc:	0000000a 	andeq	r0, r0, sl
    a700:	73696874 	cmnvc	r9, #116, 16	; 0x740000
    a704:	6c6c6120 	stfvse	f6, [ip], #-128	; 0xffffff80
    a708:	7461636f 	strbtvc	r6, [r1], #-879	; 0xfffffc91
    a70c:	276e6f69 	strbcs	r6, [lr, -r9, ror #30]!
    a710:	65722073 	ldrbvs	r2, [r2, #-115]!	; 0xffffff8d
    a714:	6e6f7a64 	vnmulvs.f32	s15, s30, s9
    a718:	77207365 	strvc	r7, [r0, -r5, ror #6]!
    a71c:	20657265 	rsbcs	r7, r5, r5, ror #4
    a720:	74697277 	strbtvc	r7, [r9], #-631	; 0xfffffd89
    a724:	206e6574 	rsbcs	r6, lr, r4, ror r5
    a728:	0a216f74 	beq	866500 <__bss_end__+0x85b4f0>
    a72c:	00000000 	andeq	r0, r0, r0
    a730:	20736177 	rsbscs	r6, r3, r7, ror r1
    a734:	64657375 	strbtvs	r7, [r5], #-885	; 0xfffffc8b
    a738:	74666120 	strbtvc	r6, [r6], #-288	; 0xfffffee0
    a73c:	66207265 	strtvs	r7, [r0], -r5, ror #4
    a740:	21656572 	smccs	22098	; 0x5652
    a744:	0000000a 	andeq	r0, r0, sl
    a748:	494e4150 	stmdbmi	lr, {r4, r6, r8, lr}^
    a74c:	73253a43 			; <UNDEFINED> instruction: 0x73253a43
    a750:	3a73253a 	bcc	1cd3c40 <__bss_end__+0x1cc8c30>
    a754:	473a6425 	ldrmi	r6, [sl, -r5, lsr #8]!
    a758:	73203a43 			; <UNDEFINED> instruction: 0x73203a43
    a75c:	6c756f68 	ldclvs	15, cr6, [r5], #-416	; 0xfffffe60
    a760:	61682064 	cmnvs	r8, r4, rrx
    a764:	6e206576 	mcrvs	5, 1, r6, cr0, cr6, {3}
    a768:	656c206f 	strbvs	r2, [ip, #-111]!	; 0xffffff91
    a76c:	21736b61 	cmncs	r3, r1, ror #22
    a770:	00000a0a 	andeq	r0, r0, sl, lsl #20
    a774:	43415254 	movtmi	r5, #4692	; 0x1254
    a778:	43473a45 	movtmi	r3, #31301	; 0x7a45
    a77c:	5553203a 	ldrbpl	r2, [r3, #-58]	; 0xffffffc6
    a780:	53454343 	movtpl	r4, #21315	; 0x5343
    a784:	6e203a53 			; <UNDEFINED> instruction: 0x6e203a53
    a788:	656c206f 	strbvs	r2, [ip, #-111]!	; 0xffffff91
    a78c:	21736b61 	cmncs	r3, r1, ror #22
    a790:	0000000a 	andeq	r0, r0, sl
    a794:	494e4150 	stmdbmi	lr, {r4, r6, r8, lr}^
    a798:	73253a43 			; <UNDEFINED> instruction: 0x73253a43
    a79c:	3a73253a 	bcc	1cd3c8c <__bss_end__+0x1cc8c7c>
    a7a0:	473a6425 	ldrmi	r6, [sl, -r5, lsr #8]!
    a7a4:	73203a43 			; <UNDEFINED> instruction: 0x73203a43
    a7a8:	6c756f68 	ldclvs	15, cr6, [r5], #-416	; 0xfffffe60
    a7ac:	61682064 	cmnvs	r8, r4, rrx
    a7b0:	6c206576 	cfstr32vs	mvfx6, [r0], #-472	; 0xfffffe28
    a7b4:	736b6165 	cmnvc	fp, #1073741849	; 0x40000019
    a7b8:	000a0a21 	andeq	r0, sl, r1, lsr #20
    a7bc:	43415254 	movtmi	r5, #4692	; 0x1254
    a7c0:	43473a45 	movtmi	r3, #31301	; 0x7a45
    a7c4:	5553203a 	ldrbpl	r2, [r3, #-58]	; 0xffffffc6
    a7c8:	53454343 	movtpl	r4, #21315	; 0x5343
    a7cc:	66203a53 			; <UNDEFINED> instruction: 0x66203a53
    a7d0:	646e756f 	strbtvs	r7, [lr], #-1391	; 0xfffffa91
    a7d4:	20642520 	rsbcs	r2, r4, r0, lsr #10
    a7d8:	6b61656c 	blvs	1863d90 <__bss_end__+0x1858d80>
    a7dc:	000a2173 	andeq	r2, sl, r3, ror r1
    a7e0:	494e4150 	stmdbmi	lr, {r4, r6, r8, lr}^
    a7e4:	73253a43 			; <UNDEFINED> instruction: 0x73253a43
    a7e8:	3a73253a 	bcc	1cd3cd8 <__bss_end__+0x1cc8cc8>
    a7ec:	643a6425 	ldrtvs	r6, [sl], #-1061	; 0xfffffbdb
    a7f0:	6e206469 	cdpvs	4, 2, cr6, cr0, cr9, {3}
    a7f4:	6920746f 	stmdbvs	r0!, {r0, r1, r2, r3, r5, r6, sl, ip, sp, lr}
    a7f8:	656c706d 	strbvs	r7, [ip, #-109]!	; 0xffffff93
    a7fc:	746e656d 	strbtvc	r6, [lr], #-1389	; 0xfffffa93
    a800:	6d756420 	cfldrdvs	mvd6, [r5, #-128]!	; 0xffffff80
    a804:	65725f70 	ldrbvs	r5, [r2, #-3952]!	; 0xfffff090
    a808:	0a217367 	beq	8675ac <__bss_end__+0x85c59c>
    a80c:	0000000a 	andeq	r0, r0, sl

0000a810 <__FUNCTION__.4046>:
    a810:	6b72616d 	blvs	1ca2dcc <__bss_end__+0x1c97dbc>
    a814:	00000000 	andeq	r0, r0, r0

0000a818 <__FUNCTION__.4120>:
    a818:	65657773 	strbvs	r7, [r5, #-1907]!	; 0xfffff88d
    a81c:	72665f70 	rsbvc	r5, r6, #112, 30	; 0x1c0
    a820:	00006565 	andeq	r6, r0, r5, ror #10

0000a824 <__FUNCTION__.4033>:
    a824:	6b726273 	blvs	1ca31f8 <__bss_end__+0x1c981e8>
    a828:	00000000 	andeq	r0, r0, r0

0000a82c <__FUNCTION__.4107>:
    a82c:	63656863 	cmnvs	r5, #6488064	; 0x630000
    a830:	6f6e5f6b 	svcvs	0x006e5f6b
    a834:	61656c5f 	cmnvs	r5, pc, asr ip
    a838:	0000006b 	andeq	r0, r0, fp, rrx

0000a83c <__FUNCTION__.4112>:
    a83c:	63656863 	cmnvs	r5, #6488064	; 0x630000
    a840:	68735f6b 	ldmdavs	r3!, {r0, r1, r3, r5, r6, r8, r9, sl, fp, ip, lr}^
    a844:	646c756f 	strbtvs	r7, [ip], #-1391	; 0xfffffa91
    a848:	61656c5f 	cmnvs	r5, pc, asr ip
    a84c:	0000006b 	andeq	r0, r0, fp, rrx

0000a850 <__FUNCTION__.4131>:
    a850:	6c706d69 	ldclvs	13, cr6, [r0], #-420	; 0xfffffe5c
    a854:	6e656d65 	cdpvs	13, 6, cr6, cr5, cr5, {3}
    a858:	68745f74 	ldmdavs	r4!, {r2, r4, r5, r6, r8, r9, sl, fp, ip, lr}^
    a85c:	00007369 	andeq	r7, r0, r9, ror #6
    a860:	696c2f2e 	stmdbvs	ip!, {r1, r2, r3, r5, r8, r9, sl, fp, sp}^
    a864:	762f6362 	strtvc	r6, [pc], -r2, ror #6
    a868:	72702d61 	rsbsvc	r2, r0, #6208	; 0x1840
    a86c:	6b746e69 	blvs	1d26218 <__bss_end__+0x1d1b208>
    a870:	0000632e 	andeq	r6, r0, lr, lsr #6
    a874:	33323130 	teqcc	r2, #12
    a878:	37363534 			; <UNDEFINED> instruction: 0x37363534
    a87c:	62613938 	rsbvs	r3, r1, #56, 18	; 0xe0000
    a880:	66656463 	strbtvs	r6, [r5], -r3, ror #8
    a884:	00000000 	andeq	r0, r0, r0
    a888:	00003130 	andeq	r3, r0, r0, lsr r1
    a88c:	33323130 	teqcc	r2, #12
    a890:	37363534 			; <UNDEFINED> instruction: 0x37363534
    a894:	00003938 	andeq	r3, r0, r8, lsr r9
    a898:	63747570 	cmnvs	r4, #112, 10	; 0x1c000000
    a89c:	0070665f 	rsbseq	r6, r0, pc, asr r6
    a8a0:	74646977 	strbtvc	r6, [r4], #-2423	; 0xfffff689
    a8a4:	203c2068 	eorscs	r2, ip, r8, rrx
    a8a8:	00003233 	andeq	r3, r0, r3, lsr r2
    a8ac:	00786c6c 	rsbseq	r6, r8, ip, ror #24
    a8b0:	253d3078 	ldrcs	r3, [sp, #-120]!	; 0xffffff88
    a8b4:	00000a78 	andeq	r0, r0, r8, ror sl
    a8b8:	253d3178 	ldrcs	r3, [sp, #-376]!	; 0xfffffe88
    a8bc:	00000a78 	andeq	r0, r0, r8, ror sl
    a8c0:	00646c6c 	rsbeq	r6, r4, ip, ror #24
    a8c4:	6e727473 	mrcvs	4, 3, r7, cr2, cr3, {3}
    a8c8:	28706d63 	ldmdacs	r0!, {r0, r1, r5, r6, r8, sl, fp, sp, lr}^
    a8cc:	202c7974 	eorcs	r7, ip, r4, ror r9
    a8d0:	786c6c22 	stmdavc	ip!, {r1, r5, sl, fp, sp, lr}^
    a8d4:	33202c22 			; <UNDEFINED> instruction: 0x33202c22
    a8d8:	3d3d2029 	ldccc	0, cr2, [sp, #-164]!	; 0xffffff5c
    a8dc:	7c203020 	stcvc	0, cr3, [r0], #-128	; 0xffffff80
    a8e0:	7473207c 	ldrbtvc	r2, [r3], #-124	; 0xffffff84
    a8e4:	6d636e72 	stclvs	14, cr6, [r3, #-456]!	; 0xfffffe38
    a8e8:	79742870 	ldmdbvc	r4!, {r4, r5, r6, fp, sp}^
    a8ec:	6c22202c 	stcvs	0, cr2, [r2], #-176	; 0xffffff50
    a8f0:	2c22646c 	cfstrscs	mvf6, [r2], #-432	; 0xfffffe50
    a8f4:	20293320 	eorcs	r3, r9, r0, lsr #6
    a8f8:	30203d3d 	eorcc	r3, r0, sp, lsr sp
    a8fc:	00000000 	andeq	r0, r0, r0
    a900:	494e4150 	stmdbmi	lr, {r4, r6, r8, lr}^
    a904:	73253a43 			; <UNDEFINED> instruction: 0x73253a43
    a908:	3a73253a 	bcc	1cd3df8 <__bss_end__+0x1cc8de8>
    a90c:	693a6425 	ldmdbvs	sl!, {r0, r2, r5, sl, sp, lr}
    a910:	736f706d 	cmnvc	pc, #109, 0	; 0x6d
    a914:	6c626973 			; <UNDEFINED> instruction: 0x6c626973
    a918:	66203a65 	strtvs	r3, [r0], -r5, ror #20
    a91c:	3c3d746d 	cfldrscc	mvf7, [sp], #-436	; 0xfffffe4c
    a920:	0a3e7325 	beq	fa75bc <__bss_end__+0xf9c5ac>
    a924:	0000000a 	andeq	r0, r0, sl
    a928:	494e4150 	stmdbmi	lr, {r4, r6, r8, lr}^
    a92c:	73253a43 			; <UNDEFINED> instruction: 0x73253a43
    a930:	3a73253a 	bcc	1cd3e20 <__bss_end__+0x1cc8e10>
    a934:	663a6425 	ldrtvs	r6, [sl], -r5, lsr #8
    a938:	74616f6c 	strbtvc	r6, [r1], #-3948	; 0xfffff094
    a93c:	746f6e20 	strbtvc	r6, [pc], #-3616	; a944 <__FUNCTION__.4131+0xf4>
    a940:	616e6520 	cmnvs	lr, r0, lsr #10
    a944:	64656c62 	strbtvs	r6, [r5], #-3170	; 0xfffff39e
    a948:	0a212121 	beq	852dd4 <__bss_end__+0x847dc4>
    a94c:	00000000 	andeq	r0, r0, r0
    a950:	6e697270 	mcrvs	2, 3, r7, cr9, cr0, {3}
    a954:	203a6b74 	eorscs	r6, sl, r4, ror fp
    a958:	20746f6e 	rsbscs	r6, r4, lr, ror #30
    a95c:	646e6168 	strbtvs	r6, [lr], #-360	; 0xfffffe98
    a960:	676e696c 	strbvs	r6, [lr, -ip, ror #18]!
    a964:	65707320 	ldrbvs	r7, [r0, #-800]!	; 0xfffffce0
    a968:	69666963 	stmdbvs	r6!, {r0, r1, r5, r6, r8, fp, sp, lr}^
    a96c:	27207265 	strcs	r7, [r0, -r5, ror #4]!
    a970:	20276325 	eorcs	r6, r7, r5, lsr #6
    a974:	63736128 	cmnvs	r3, #10
    a978:	253d6969 	ldrcs	r6, [sp, #-2409]!	; 0xfffff697
    a97c:	000a2964 	andeq	r2, sl, r4, ror #18
    a980:	494e4150 	stmdbmi	lr, {r4, r6, r8, lr}^
    a984:	73253a43 			; <UNDEFINED> instruction: 0x73253a43
    a988:	3a73253a 	bcc	1cd3e78 <__bss_end__+0x1cc8e68>
    a98c:	703a6425 	eorsvc	r6, sl, r5, lsr #8
    a990:	746e6972 	strbtvc	r6, [lr], #-2418	; 0xfffff68e
    a994:	7265206b 	rsbvc	r2, r5, #107, 0	; 0x6b
    a998:	0a726f72 	beq	1ca6768 <__bss_end__+0x1c9b758>
    a99c:	0000000a 	andeq	r0, r0, sl

0000a9a0 <__FUNCTION__.4004>:
    a9a0:	74696d65 	strbtvc	r6, [r9], #-3429	; 0xfffff29b
    a9a4:	00000000 	andeq	r0, r0, r0

0000a9a8 <__FUNCTION__.3952>:
    a9a8:	5f697072 	svcpl	0x00697072
    a9ac:	5f746573 	svcpl	0x00746573
    a9b0:	7074756f 	rsbsvc	r7, r4, pc, ror #10
    a9b4:	00007475 	andeq	r7, r0, r5, ror r4

0000a9b8 <__FUNCTION__.4030>:
    a9b8:	705f6176 	subsvc	r6, pc, r6, ror r1	; <UNPREDICTABLE>
    a9bc:	746e6972 	strbtvc	r6, [lr], #-2418	; 0xfffff68e
    a9c0:	0000006b 	andeq	r0, r0, fp, rrx
    a9c4:	454e4f44 	strbmi	r4, [lr, #-3908]	; 0xfffff0bc
    a9c8:	0a212121 	beq	852e54 <__bss_end__+0x847e44>
    a9cc:	00000000 	andeq	r0, r0, r0
    a9d0:	6c616d6b 	stclvs	13, cr6, [r1], #-428	; 0xfffffe54
    a9d4:	2e636f6c 	cdpcs	15, 6, cr6, cr3, cr12, {3}
    a9d8:	00000063 	andeq	r0, r0, r3, rrx
    a9dc:	5f78616d 	svcpl	0x0078616d
    a9e0:	7479626e 	ldrbtvc	r6, [r9], #-622	; 0xfffffd92
    a9e4:	00007365 	andeq	r7, r0, r5, ror #6
    a9e8:	494e4150 	stmdbmi	lr, {r4, r6, r8, lr}^
    a9ec:	73253a43 			; <UNDEFINED> instruction: 0x73253a43
    a9f0:	3a73253a 	bcc	1cd3ee0 <__bss_end__+0x1cc8ed0>
    a9f4:	733a6425 	teqvc	sl, #620756992	; 0x25000000
    a9f8:	69747465 	ldmdbvs	r4!, {r0, r2, r5, r6, sl, ip, sp, lr}^
    a9fc:	6820676e 	stmdavs	r0!, {r1, r2, r3, r5, r6, r8, r9, sl, sp, lr}
    aa00:	20706165 	rsbscs	r6, r0, r5, ror #2
    aa04:	25206f74 	strcs	r6, [r0, #-3956]!	; 0xfffff08c
    aa08:	77203a70 			; <UNDEFINED> instruction: 0x77203a70
    aa0c:	206c6c69 	rsbcs	r6, ip, r9, ror #24
    aa10:	20746968 	rsbscs	r6, r4, r8, ror #18
    aa14:	20656874 	rsbcs	r6, r5, r4, ror r8
    aa18:	20646c6f 	rsbcs	r6, r4, pc, ror #24
    aa1c:	70616568 	rsbvc	r6, r1, r8, ror #10
    aa20:	20746120 	rsbscs	r6, r4, r0, lsr #2
    aa24:	0a0a7025 	beq	2a6ac0 <__bss_end__+0x29bab0>
    aa28:	00000000 	andeq	r0, r0, r0
    aa2c:	494e4150 	stmdbmi	lr, {r4, r6, r8, lr}^
    aa30:	73253a43 			; <UNDEFINED> instruction: 0x73253a43
    aa34:	3a73253a 	bcc	1cd3f24 <__bss_end__+0x1cc8f14>
    aa38:	613a6425 	teqvs	sl, r5, lsr #8
    aa3c:	6165726c 	cmnvs	r5, ip, ror #4
    aa40:	63207964 			; <UNDEFINED> instruction: 0x63207964
    aa44:	656c6c61 	strbvs	r6, [ip, #-3169]!	; 0xfffff39f
    aa48:	6d6b2064 	stclvs	0, cr2, [fp, #-400]!	; 0xfffffe70
    aa4c:	6f6c6c61 	svcvs	0x006c6c61
    aa50:	6e695f63 	cdpvs	15, 6, cr5, cr9, cr3, {3}
    aa54:	0a0a7469 	beq	2a7c00 <__bss_end__+0x29cbf0>
    aa58:	00000000 	andeq	r0, r0, r0
    aa5c:	494e4150 	stmdbmi	lr, {r4, r6, r8, lr}^
    aa60:	73253a43 			; <UNDEFINED> instruction: 0x73253a43
    aa64:	3a73253a 	bcc	1cd3f54 <__bss_end__+0x1cc8f44>
    aa68:	253a6425 	ldrcs	r6, [sl, #-1061]!	; 0xfffffbdb
    aa6c:	626e2064 	rsbvs	r2, lr, #100, 0	; 0x64
    aa70:	73657479 	cmnvc	r5, #2030043136	; 0x79000000
    aa74:	63786520 	cmnvs	r8, #32, 10	; 0x8000000
    aa78:	65646565 	strbvs	r6, [r4, #-1381]!	; 0xfffffa9b
    aa7c:	69732064 	ldmdbvs	r3!, {r2, r5, r6, sp}^
    aa80:	6f20657a 	svcvs	0x0020657a
    aa84:	65682066 	strbvs	r2, [r8, #-102]!	; 0xffffff9a
    aa88:	62207061 	eorvs	r7, r0, #97, 0	; 0x61
    aa8c:	75252079 	strvc	r2, [r5, #-121]!	; 0xffffff87
    aa90:	79626e20 	stmdbvc	r2!, {r5, r9, sl, fp, sp, lr}^
    aa94:	0a736574 	beq	1ce406c <__bss_end__+0x1cd905c>
    aa98:	0000000a 	andeq	r0, r0, sl
    aa9c:	4f525245 	svcmi	0x00525245
    aaa0:	73253a52 			; <UNDEFINED> instruction: 0x73253a52
    aaa4:	3a73253a 	bcc	1cd3f94 <__bss_end__+0x1cc8f84>
    aaa8:	203a6425 	eorscs	r6, sl, r5, lsr #8
    aaac:	534c4146 	movtpl	r4, #49478	; 0xc146
    aab0:	253c2845 	ldrcs	r2, [ip, #-2117]!	; 0xfffff7bb
    aab4:	3a293e73 	bcc	a5a488 <__bss_end__+0xa4f478>
    aab8:	73736120 	cmnvc	r3, #8
    aabc:	6e696d75 	mcrvs	13, 3, r6, cr9, cr5, {3}
    aac0:	6f702067 	svcvs	0x00702067
    aac4:	20726577 	rsbscs	r6, r2, r7, ror r5
    aac8:	7420666f 	strtvc	r6, [r0], #-1647	; 0xfffff991
    aacc:	000a6f77 	andeq	r6, sl, r7, ror pc
    aad0:	705f7369 	subsvc	r7, pc, r9, ror #6
    aad4:	2832776f 	ldmdacs	r2!, {r0, r1, r2, r3, r5, r6, r8, r9, sl, ip, sp, lr}
    aad8:	67696c61 	strbvs	r6, [r9, -r1, ror #24]!
    aadc:	6e656d6e 	cdpvs	13, 6, cr6, cr5, cr14, {3}
    aae0:	00002974 	andeq	r2, r0, r4, ror r9
    aae4:	705f7369 	subsvc	r7, pc, r9, ror #6
    aae8:	2832776f 	ldmdacs	r2!, {r0, r1, r2, r3, r5, r6, r8, r9, sl, ip, sp, lr}
    aaec:	0000296e 	andeq	r2, r0, lr, ror #18
    aaf0:	4f525245 	svcmi	0x00525245
    aaf4:	73253a52 			; <UNDEFINED> instruction: 0x73253a52
    aaf8:	3a73253a 	bcc	1cd3fe8 <__bss_end__+0x1cc8fd8>
    aafc:	203a6425 	eorscs	r6, sl, r5, lsr #8
    ab00:	534c4146 	movtpl	r4, #49478	; 0xc146
    ab04:	253c2845 	ldrcs	r2, [ip, #-2117]!	; 0xfffff7bb
    ab08:	3a293e73 	bcc	a5a4dc <__bss_end__+0xa4f4cc>
    ab0c:	706d6920 	rsbvc	r6, sp, r0, lsr #18
    ab10:	6973736f 	ldmdbvs	r3!, {r0, r1, r2, r3, r5, r6, r8, r9, ip, sp, lr}^
    ab14:	0a656c62 	beq	1965ca4 <__bss_end__+0x195ac94>
    ab18:	00000000 	andeq	r0, r0, r0
    ab1c:	615f7369 	cmpvs	pc, r9, ror #6
    ab20:	6e67696c 	vnmulvs.f16	s13, s14, s25	; <UNPREDICTABLE>
    ab24:	68286465 	stmdavs	r8!, {r0, r2, r5, r6, sl, sp, lr}
    ab28:	6c61202c 	stclvs	0, cr2, [r1], #-176	; 0xffffff50
    ab2c:	6d6e6769 	stclvs	7, cr6, [lr, #-420]!	; 0xfffffe5c
    ab30:	29746e65 	ldmdbcs	r4!, {r0, r2, r5, r6, r9, sl, fp, sp, lr}^
    ab34:	00000000 	andeq	r0, r0, r0
    ab38:	494e4150 	stmdbmi	lr, {r4, r6, r8, lr}^
    ab3c:	73253a43 			; <UNDEFINED> instruction: 0x73253a43
    ab40:	3a73253a 	bcc	1cd4030 <__bss_end__+0x1cc9020>
    ab44:	703a6425 	eorsvc	r6, sl, r5, lsr #8
    ab48:	746e696f 	strbtvc	r6, [lr], #-2415	; 0xfffff691
    ab4c:	25207265 	strcs	r7, [r0, #-613]!	; 0xfffffd9b
    ab50:	61772070 	cmnvs	r7, r0, ror r0
    ab54:	656e2073 	strbvs	r2, [lr, #-115]!	; 0xffffff8d
    ab58:	20726576 	rsbscs	r6, r2, r6, ror r5
    ab5c:	6f6c6c61 	svcvs	0x006c6c61
    ab60:	65746163 	ldrbvs	r6, [r4, #-355]!	; 0xfffffe9d
    ab64:	000a0a64 	andeq	r0, sl, r4, ror #20

0000ab68 <__FUNCTION__.7>:
    ab68:	6c616d6b 	stclvs	13, cr6, [r1], #-428	; 0xfffffe54
    ab6c:	5f636f6c 	svcpl	0x00636f6c
    ab70:	74696e69 	strbtvc	r6, [r9], #-3689	; 0xfffff197
    ab74:	7465735f 	strbtvc	r7, [r5], #-863	; 0xfffffca1
    ab78:	6174735f 	cmnvs	r4, pc, asr r3
    ab7c:	00007472 	andeq	r7, r0, r2, ror r4

0000ab80 <__FUNCTION__.5>:
    ab80:	6c616d6b 	stclvs	13, cr6, [r1], #-428	; 0xfffffe54
    ab84:	5f636f6c 	svcpl	0x00636f6c
    ab88:	74696e69 	strbtvc	r6, [r9], #-3689	; 0xfffff197
    ab8c:	00000000 	andeq	r0, r0, r0

0000ab90 <__FUNCTION__.4>:
    ab90:	6c616d6b 	stclvs	13, cr6, [r1], #-428	; 0xfffffe54
    ab94:	5f636f6c 	svcpl	0x00636f6c
    ab98:	7a746f6e 	bvc	1d26958 <__bss_end__+0x1d1b948>
    ab9c:	006f7265 	rsbeq	r7, pc, r5, ror #4

0000aba0 <__FUNCTION__.2>:
    aba0:	6c616d6b 	stclvs	13, cr6, [r1], #-428	; 0xfffffe54
    aba4:	00636f6c 	rsbeq	r6, r3, ip, ror #30

0000aba8 <__FUNCTION__.1>:
    aba8:	6c616d6b 	stclvs	13, cr6, [r1], #-428	; 0xfffffe54
    abac:	5f636f6c 	svcpl	0x00636f6c
    abb0:	67696c61 	strbvs	r6, [r9, -r1, ror #24]!
    abb4:	0064656e 	rsbeq	r6, r4, lr, ror #10

0000abb8 <__FUNCTION__.3>:
    abb8:	6e756f72 	mrcvs	15, 3, r6, cr5, cr2, {3}
    abbc:	00707564 	rsbseq	r7, r0, r4, ror #10

0000abc0 <__FUNCTION__.0>:
    abc0:	6572666b 	ldrbvs	r6, [r2, #-1643]!	; 0xfffff995
    abc4:	6f705f65 	svcvs	0x00705f65
    abc8:	Address 0x000000000000abc8 is out of bounds.


Disassembly of section .data:

0000abcc <putk>:
    abcc:	00008d60 	andeq	r8, r0, r0, ror #26

0000abd0 <lfsr>:
    abd0:	0000ace1 	andeq	sl, r0, r1, ror #25

0000abd4 <heap>:
    abd4:	0000b010 	andeq	fp, r0, r0, lsl r0

0000abd8 <heap_start>:
    abd8:	0000b010 	andeq	fp, r0, r0, lsl r0

0000abdc <heap_end>:
    abdc:	0020b010 	eoreq	fp, r0, r0, lsl r0

0000abe0 <rpi_putchar>:
    abe0:	0000a1ec 	andeq	sl, r0, ip, ror #3

Disassembly of section .bss:

0000abe8 <__bss_start__>:
	...

0000abf0 <freep>:
	...

0000abf8 <base>:
	...

0000ac00 <heap_start>:
    ac00:	00000000 	andeq	r0, r0, r0

0000ac04 <heap_end>:
    ac04:	00000000 	andeq	r0, r0, r0

0000ac08 <init_p.4032>:
    ac08:	00000000 	andeq	r0, r0, r0

0000ac0c <buf.3944>:
	...

0000b00c <init_p.6>:
    b00c:	00000000 	andeq	r0, r0, r0

Disassembly of section .ARM.attributes:

00000000 <.ARM.attributes>:
   0:	00002a41 	andeq	r2, r0, r1, asr #20
   4:	61656100 	cmnvs	r5, r0, lsl #2
   8:	01006962 	tsteq	r0, r2, ror #18
   c:	00000020 	andeq	r0, r0, r0, lsr #32
  10:	4b5a3605 	blmi	168d82c <__bss_end__+0x168281c>
  14:	08070600 	stmdaeq	r7, {r9, sl}
  18:	12010901 	andne	r0, r1, #16384	; 0x4000
  1c:	15011404 	strne	r1, [r1, #-1028]	; 0xfffffbfc
  20:	18031701 	stmdane	r3, {r0, r8, r9, sl, ip}
  24:	22011a01 	andcs	r1, r1, #4096	; 0x1000
  28:	Address 0x0000000000000028 is out of bounds.


Disassembly of section .comment:

00000000 <.comment>:
   0:	3a434347 	bcc	10d0d24 <__bss_end__+0x10c5d14>
   4:	4e472820 	cdpmi	8, 4, cr2, cr7, cr0, {1}
   8:	6f542055 	svcvs	0x00542055
   c:	20736c6f 	rsbscs	r6, r3, pc, ror #24
  10:	20726f66 	rsbscs	r6, r2, r6, ror #30
  14:	206d7241 	rsbcs	r7, sp, r1, asr #4
  18:	65626d45 	strbvs	r6, [r2, #-3397]!	; 0xfffff2bb
  1c:	64656464 	strbtvs	r6, [r5], #-1124	; 0xfffffb9c
  20:	6f725020 	svcvs	0x00725020
  24:	73736563 	cmnvc	r3, #415236096	; 0x18c00000
  28:	2073726f 	rsbscs	r7, r3, pc, ror #4
  2c:	30322d39 	eorscc	r2, r2, r9, lsr sp
  30:	712d3931 			; <UNDEFINED> instruction: 0x712d3931
  34:	616d2d34 	cmnvs	sp, r4, lsr sp
  38:	29726f6a 	ldmdbcs	r2!, {r1, r3, r5, r6, r8, r9, sl, fp, sp, lr}^
  3c:	322e3920 	eorcc	r3, lr, #32, 18	; 0x80000
  40:	3220312e 	eorcc	r3, r0, #-2147483637	; 0x8000000b
  44:	31393130 	teqcc	r9, r0, lsr r1
  48:	20353230 	eorscs	r3, r5, r0, lsr r2
  4c:	6c657228 	sfmvs	f7, 2, [r5], #-160	; 0xffffff60
  50:	65736165 	ldrbvs	r6, [r3, #-357]!	; 0xfffffe9b
  54:	415b2029 	cmpmi	fp, r9, lsr #32
  58:	612f4d52 			; <UNDEFINED> instruction: 0x612f4d52
  5c:	392d6d72 	pushcc	{r1, r4, r5, r6, r8, sl, fp, sp, lr}
  60:	6172622d 	cmnvs	r2, sp, lsr #4
  64:	2068636e 	rsbcs	r6, r8, lr, ror #6
  68:	69766572 	ldmdbvs	r6!, {r1, r4, r5, r6, r8, sl, sp, lr}^
  6c:	6e6f6973 			; <UNDEFINED> instruction: 0x6e6f6973
  70:	37373220 	ldrcc	r3, [r7, -r0, lsr #4]!
  74:	5d393935 			; <UNDEFINED> instruction: 0x5d393935
  78:	43434700 	movtmi	r4, #14080	; 0x3700
  7c:	4728203a 			; <UNDEFINED> instruction: 0x4728203a
  80:	4120554e 			; <UNDEFINED> instruction: 0x4120554e
  84:	45206d72 	strmi	r6, [r0, #-3442]!	; 0xfffff28e
  88:	6465626d 	strbtvs	r6, [r5], #-621	; 0xfffffd93
  8c:	20646564 	rsbcs	r6, r4, r4, ror #10
  90:	6c6f6f54 	stclvs	15, cr6, [pc], #-336	; ffffff48 <__bss_end__+0xffff4f38>
  94:	69616863 	stmdbvs	r1!, {r0, r1, r5, r6, fp, sp, lr}^
  98:	3031206e 	eorscc	r2, r1, lr, rrx
  9c:	322d332e 	eorcc	r3, sp, #-1207959552	; 0xb8000000
  a0:	2e313230 	mrccs	2, 1, r3, cr1, cr0, {1}
  a4:	20293031 	eorcs	r3, r9, r1, lsr r0
  a8:	332e3031 			; <UNDEFINED> instruction: 0x332e3031
  ac:	3220312e 	eorcc	r3, r0, #-2147483637	; 0x8000000b
  b0:	30313230 	eorscc	r3, r1, r0, lsr r2
  b4:	20343238 	eorscs	r3, r4, r8, lsr r2
  b8:	6c657228 	sfmvs	f7, 2, [r5], #-160	; 0xffffff60
  bc:	65736165 	ldrbvs	r6, [r3, #-357]!	; 0xfffffe9b
  c0:	Address 0x00000000000000c0 is out of bounds.


Disassembly of section .debug_info:

00000000 <.debug_info>:
       0:	000003aa 	andeq	r0, r0, sl, lsr #7
       4:	00000004 	andeq	r0, r0, r4
       8:	01040000 	mrseq	r0, (UNDEF: 4)
       c:	00000112 	andeq	r0, r0, r2, lsl r1
      10:	00005e0c 	andeq	r5, r0, ip, lsl #28
      14:	00009000 	andeq	r9, r0, r0
      18:	00803800 	addeq	r3, r0, r0, lsl #16
      1c:	0000f800 	andeq	pc, r0, r0, lsl #16
      20:	00000000 	andeq	r0, r0, r0
      24:	05040200 	streq	r0, [r4, #-512]	; 0xfffffe00
      28:	00746e69 	rsbseq	r6, r4, r9, ror #28
      2c:	eb070403 	bl	1c1040 <__bss_end__+0x1b6030>
      30:	03000000 	movweq	r0, #0
      34:	00450601 	subeq	r0, r5, r1, lsl #12
      38:	02030000 	andeq	r0, r3, #0, 0
      3c:	0001cd05 	andeq	ip, r1, r5, lsl #26
      40:	05040300 	streq	r0, [r4, #-768]	; 0xfffffd00
      44:	000000fd 	strdeq	r0, [r0], -sp
      48:	f8050803 			; <UNDEFINED> instruction: 0xf8050803
      4c:	03000000 	movweq	r0, #0
      50:	00430801 	subeq	r0, r3, r1, lsl #16
      54:	02030000 	andeq	r0, r3, #0, 0
      58:	00007d07 	andeq	r7, r0, r7, lsl #26
      5c:	07040300 	streq	r0, [r4, -r0, lsl #6]
      60:	000000e6 	andeq	r0, r0, r6, ror #1
      64:	e1070803 	tst	r7, r3, lsl #16
      68:	04000000 	streq	r0, [r0], #-0
      6c:	00000025 	andeq	r0, r0, r5, lsr #32
      70:	0000007a 	andeq	r0, r0, sl, ror r0
      74:	00002505 	andeq	r2, r0, r5, lsl #10
      78:	06060000 	streq	r0, [r6], -r0
      7c:	03000001 	movweq	r0, #1
      80:	00860e1c 	addeq	r0, r6, ip, lsl lr
      84:	04070000 	streq	r0, [r7], #-0
      88:	0000006b 	andeq	r0, r0, fp, rrx
      8c:	00002504 	andeq	r2, r0, r4, lsl #10
      90:	00009b00 	andeq	r9, r0, r0, lsl #22
      94:	009b0500 	addseq	r0, fp, r0, lsl #10
      98:	07000000 	streq	r0, [r0, -r0]
      9c:	0000a804 	andeq	sl, r0, r4, lsl #16
      a0:	08010300 	stmdaeq	r1, {r8, r9}
      a4:	0000004c 	andeq	r0, r0, ip, asr #32
      a8:	0000a108 	andeq	sl, r0, r8, lsl #2
      ac:	06ba0600 	ldrteq	r0, [sl], r0, lsl #12
      b0:	21030000 	mrscs	r0, (UNDEF: 3)
      b4:	0000b90e 	andeq	fp, r0, lr, lsl #18
      b8:	8c040700 	stchi	7, cr0, [r4], {-0}
      bc:	09000000 	stmdbeq	r0, {}	; <UNPREDICTABLE>
      c0:	0904020c 	stmdbeq	r4, {r2, r3, r9}
      c4:	000000f0 	strdeq	r0, [r0], -r0	; <UNPREDICTABLE>
      c8:	00003e0a 	andeq	r3, r0, sl, lsl #28
      cc:	11060200 	mrsne	r0, LR_usr
      d0:	0000009b 	muleq	r0, fp, r0
      d4:	00c40a00 	sbceq	r0, r4, r0, lsl #20
      d8:	07020000 	streq	r0, [r2, -r0]
      dc:	00009b11 	andeq	r9, r0, r1, lsl fp
      e0:	200a0400 	andcs	r0, sl, r0, lsl #8
      e4:	02000000 	andeq	r0, r0, #0, 0
      e8:	002c0e08 	eoreq	r0, ip, r8, lsl #28
      ec:	00080000 	andeq	r0, r8, r0
      f0:	0001d70b 	andeq	sp, r1, fp, lsl #14
      f4:	03090200 	movweq	r0, #37376	; 0x9200
      f8:	000000bf 	strheq	r0, [r0], -pc	; <UNPREDICTABLE>
      fc:	0006040c 	andeq	r0, r6, ip, lsl #8
     100:	04000000 	streq	r0, [r0], #-0
     104:	002c11a6 	eoreq	r1, ip, r6, lsr #3
     108:	270d0000 	strcs	r0, [sp, -r0]
     10c:	01000000 	mrseq	r0, (UNDEF: 0)
     110:	80380605 	eorshi	r0, r8, r5, lsl #12
     114:	00f80000 	rscseq	r0, r8, r0
     118:	9c010000 	stcls	0, cr0, [r1], {-0}
     11c:	0000030e 	andeq	r0, r0, lr, lsl #6
     120:	0030700e 	eorseq	r7, r0, lr
     124:	fc0b0801 	stc2	8, cr0, [fp], {1}
     128:	04000000 	streq	r0, [r0], #-0
     12c:	00000000 	andeq	r0, r0, r0
     130:	0f000000 	svceq	0x00000000
     134:	000000d4 	ldrdeq	r0, [r0], -r4
     138:	0000031e 	andeq	r0, r0, lr, lsl r3
     13c:	a3840305 	orrge	r0, r4, #335544320	; 0x14000000
     140:	700e0000 	andvc	r0, lr, r0
     144:	09010031 	stmdbeq	r1, {r0, r4, r5}
     148:	0000fc0b 	andeq	pc, r0, fp, lsl #24
     14c:	00002600 	andeq	r2, r0, r0, lsl #12
     150:	00002200 	andeq	r2, r0, r0, lsl #4
     154:	03231000 			; <UNDEFINED> instruction: 0x03231000
     158:	804c0000 	subhi	r0, ip, r0
     15c:	4c000000 	stcmi	0, cr0, [r0], {-0}
     160:	18000080 	stmdane	r0, {r7}
     164:	01000000 	mrseq	r0, (UNDEF: 0)
     168:	01961008 	orrseq	r1, r6, r8
     16c:	4c110000 	ldcmi	0, cr0, [r1], {-0}
     170:	46000003 	strmi	r0, [r0], -r3
     174:	44000000 	strmi	r0, [r0], #-0
     178:	11000000 	mrsne	r0, (UNDEF: 0)
     17c:	00000340 	andeq	r0, r0, r0, asr #6
     180:	0000005c 	andeq	r0, r0, ip, asr r0
     184:	0000005a 	andeq	r0, r0, sl, asr r0
     188:	00033411 	andeq	r3, r3, r1, lsl r4
     18c:	00007600 	andeq	r7, r0, r0, lsl #12
     190:	00007400 	andeq	r7, r0, r0, lsl #8
     194:	23100000 	tstcs	r0, #0, 0
     198:	80000003 	andhi	r0, r0, r3
     19c:	00000080 	andeq	r0, r0, r0, lsl #1
     1a0:	00008080 	andeq	r8, r0, r0, lsl #1
     1a4:	00000010 	andeq	r0, r0, r0, lsl r0
     1a8:	d7100901 	ldrle	r0, [r0, -r1, lsl #18]
     1ac:	11000001 	tstne	r0, r1
     1b0:	0000034c 	andeq	r0, r0, ip, asr #6
     1b4:	00000090 	muleq	r0, r0, r0
     1b8:	0000008e 	andeq	r0, r0, lr, lsl #1
     1bc:	00034011 	andeq	r4, r3, r1, lsl r0
     1c0:	0000a600 	andeq	sl, r0, r0, lsl #12
     1c4:	0000a400 	andeq	sl, r0, r0, lsl #8
     1c8:	03341100 	teqeq	r4, #0
     1cc:	00c00000 	sbceq	r0, r0, r0
     1d0:	00be0000 	adcseq	r0, lr, r0
     1d4:	10000000 	andne	r0, r0, r0
     1d8:	00000323 	andeq	r0, r0, r3, lsr #6
     1dc:	000080a8 	andeq	r8, r0, r8, lsr #1
     1e0:	0080a801 	addeq	sl, r0, r1, lsl #16
     1e4:	00001000 	andeq	r1, r0, r0
     1e8:	050a0100 	streq	r0, [sl, #-256]	; 0xffffff00
     1ec:	00000218 	andeq	r0, r0, r8, lsl r2
     1f0:	00034c11 	andeq	r4, r3, r1, lsl ip
     1f4:	0000da00 	andeq	sp, r0, r0, lsl #20
     1f8:	0000d800 	andeq	sp, r0, r0, lsl #16
     1fc:	03401100 	movteq	r1, #256	; 0x100
     200:	00f00000 	rscseq	r0, r0, r0
     204:	00ee0000 	rsceq	r0, lr, r0
     208:	34110000 	ldrcc	r0, [r1], #-0
     20c:	0a000003 	beq	220 <__code_start__-0x7de0>
     210:	08000001 	stmdaeq	r0, {r0}
     214:	00000001 	andeq	r0, r0, r1
     218:	00032310 	andeq	r2, r3, r0, lsl r3
     21c:	0080c800 	addeq	ip, r0, r0, lsl #16
     220:	80c80100 	sbchi	r0, r8, r0, lsl #2
     224:	00100000 	andseq	r0, r0, r0
     228:	0b010000 	bleq	40230 <__bss_end__+0x35220>
     22c:	00025905 	andeq	r5, r2, r5, lsl #18
     230:	034c1100 	movteq	r1, #49408	; 0xc100
     234:	01240000 			; <UNDEFINED> instruction: 0x01240000
     238:	01220000 			; <UNDEFINED> instruction: 0x01220000
     23c:	40110000 	andsmi	r0, r1, r0
     240:	3a000003 	bcc	254 <__code_start__-0x7dac>
     244:	38000001 	stmdacc	r0, {r0}
     248:	11000001 	tstne	r0, r1
     24c:	00000334 	andeq	r0, r0, r4, lsr r3
     250:	00000154 	andeq	r0, r0, r4, asr r1
     254:	00000152 	andeq	r0, r0, r2, asr r1
     258:	80481200 	subhi	r1, r8, r0, lsl #4
     25c:	03650000 	cmneq	r5, #0, 0
     260:	02700000 	rsbseq	r0, r0, #0, 0
     264:	01130000 	tsteq	r3, r0
     268:	00030550 	andeq	r0, r3, r0, asr r5
     26c:	000000a3 	andeq	r0, r0, r3, lsr #1
     270:	00804c14 	addeq	r4, r0, r4, lsl ip
     274:	00037100 	andeq	r7, r3, r0, lsl #2
     278:	80781400 	rsbshi	r1, r8, r0, lsl #8
     27c:	037d0000 	cmneq	sp, #0, 0
     280:	80140000 	andshi	r0, r4, r0
     284:	71000080 	smlabbvc	r0, r0, r0, r0
     288:	14000003 	strne	r0, [r0], #-3
     28c:	000080a4 	andeq	r8, r0, r4, lsr #1
     290:	0000037d 	andeq	r0, r0, sp, ror r3
     294:	0080c812 	addeq	ip, r0, r2, lsl r8
     298:	00038900 	andeq	r8, r3, r0, lsl #18
     29c:	0002a800 	andeq	sl, r2, r0, lsl #16
     2a0:	50011300 	andpl	r1, r1, r0, lsl #6
     2a4:	00007702 	andeq	r7, r0, r2, lsl #14
     2a8:	0080e812 	addeq	lr, r0, r2, lsl r8
     2ac:	00038900 	andeq	r8, r3, r0, lsl #18
     2b0:	0002bc00 	andeq	fp, r2, r0, lsl #24
     2b4:	50011300 	andpl	r1, r1, r0, lsl #6
     2b8:	00007602 	andeq	r7, r0, r2, lsl #12
     2bc:	0080ec14 	addeq	lr, r0, r4, lsl ip
     2c0:	00039500 	andeq	r9, r3, r0, lsl #10
     2c4:	80fc1200 	rscshi	r1, ip, r0, lsl #4
     2c8:	03650000 	cmneq	r5, #0, 0
     2cc:	02dc0000 	sbcseq	r0, ip, #0, 0
     2d0:	01130000 	tsteq	r3, r0
     2d4:	64030550 	strvs	r0, [r3], #-1360	; 0xfffffab0
     2d8:	000000a3 	andeq	r0, r0, r3, lsr #1
     2dc:	00811812 	addeq	r1, r1, r2, lsl r8
     2e0:	00036500 	andeq	r6, r3, r0, lsl #10
     2e4:	00030400 	andeq	r0, r3, r0, lsl #8
     2e8:	50011300 	andpl	r1, r1, r0, lsl #6
     2ec:	a3400305 	movtge	r0, #773	; 0x305
     2f0:	01130000 	tsteq	r3, r0
     2f4:	00750251 	rsbseq	r0, r5, r1, asr r2
     2f8:	02520113 	subseq	r0, r2, #-1073741820	; 0xc0000004
     2fc:	01130074 	tsteq	r3, r4, ror r0
     300:	003e0153 	eorseq	r0, lr, r3, asr r1
     304:	00811c14 	addeq	r1, r1, r4, lsl ip
     308:	0003a100 	andeq	sl, r3, r0, lsl #2
     30c:	a8150000 	ldmdage	r5, {}	; <UNPREDICTABLE>
     310:	1e000000 	cdpne	0, 0, cr0, cr0, cr0, {0}
     314:	16000003 	strne	r0, [r0], -r3
     318:	0000002c 	andeq	r0, r0, ip, lsr #32
     31c:	0e080007 	cdpeq	0, 0, cr0, cr8, cr7, {0}
     320:	17000003 	strne	r0, [r0, -r3]
     324:	00000015 	andeq	r0, r0, r5, lsl r0
     328:	f00b0c02 			; <UNDEFINED> instruction: 0xf00b0c02
     32c:	03000000 	movweq	r0, #0
     330:	00000359 	andeq	r0, r0, r9, asr r3
     334:	00003e18 	andeq	r3, r0, r8, lsl lr
     338:	220c0200 	andcs	r0, ip, #0, 4
     33c:	0000009b 	muleq	r0, fp, r0
     340:	0000c418 	andeq	ip, r0, r8, lsl r4
     344:	340c0200 	strcc	r0, [ip], #-512	; 0xfffffe00
     348:	0000009b 	muleq	r0, fp, r0
     34c:	00002018 	andeq	r2, r0, r8, lsl r0
     350:	430c0200 	movwmi	r0, #49664	; 0xc200
     354:	0000002c 	andeq	r0, r0, ip, lsr #32
     358:	9e0a1900 	vmlals.f16	s2, s20, s0	; <UNPREDICTABLE>
     35c:	746f6e08 	strbtvc	r6, [pc], #-3592	; 364 <__code_start__-0x7c9c>
     360:	6e69616d 	powvsez	f6, f1, #5.0
     364:	067c1a00 	ldrbteq	r1, [ip], -r0, lsl #20
     368:	067c0000 	ldrbteq	r0, [ip], -r0
     36c:	28030000 	stmdacs	r3, {}	; <UNPREDICTABLE>
     370:	00c91a06 	sbceq	r1, r9, r6, lsl #20
     374:	00c90000 	sbceq	r0, r9, r0
     378:	31030000 	mrscc	r0, (UNDEF: 3)
     37c:	000d1a0f 	andeq	r1, sp, pc, lsl #20
     380:	000d0000 	andeq	r0, sp, r0
     384:	4a040000 	bmi	10038c <__bss_end__+0xf537c>
     388:	01c61a08 	biceq	r1, r6, r8, lsl #20
     38c:	01c60000 	biceq	r0, r6, r0
     390:	4b040000 	blmi	100398 <__bss_end__+0xf5388>
     394:	002f1a07 	eoreq	r1, pc, r7, lsl #20
     398:	002f0000 	eoreq	r0, pc, r0
     39c:	56040000 	strpl	r0, [r4], -r0
     3a0:	00511a05 	subseq	r1, r1, r5, lsl #20
     3a4:	00510000 	subseq	r0, r1, r0
     3a8:	6e030000 	cdpvs	0, 0, cr0, cr3, cr0, {0}
     3ac:	08000006 	stmdaeq	r0, {r1, r2}
     3b0:	00040000 	andeq	r0, r4, r0
     3b4:	0000016a 	andeq	r0, r0, sl, ror #2
     3b8:	01120104 	tsteq	r2, r4, lsl #2
     3bc:	a70c0000 	strge	r0, [ip, -r0]
     3c0:	90000002 	andls	r0, r0, r2
     3c4:	30000000 	andcc	r0, r0, r0
     3c8:	0c000081 	stceq	0, cr0, [r0], {129}	; 0x81
     3cc:	18000003 	stmdane	r0, {r0, r1}
     3d0:	02000001 	andeq	r0, r0, #1, 0
     3d4:	6e690504 	cdpvs	5, 6, cr0, cr9, cr4, {0}
     3d8:	04030074 	streq	r0, [r3], #-116	; 0xffffff8c
     3dc:	0000eb07 	andeq	lr, r0, r7, lsl #22
     3e0:	06010300 	streq	r0, [r1], -r0, lsl #6
     3e4:	00000045 	andeq	r0, r0, r5, asr #32
     3e8:	cd050203 	sfmgt	f0, 4, [r5, #-12]
     3ec:	03000001 	movweq	r0, #1
     3f0:	00fd0504 	rscseq	r0, sp, r4, lsl #10
     3f4:	08030000 	stmdaeq	r3, {}	; <UNPREDICTABLE>
     3f8:	0000f805 	andeq	pc, r0, r5, lsl #16
     3fc:	023b0400 	eorseq	r0, fp, #0, 8
     400:	2e030000 	cdpcs	0, 0, cr0, cr3, cr0, {0}
     404:	00005b18 	andeq	r5, r0, r8, lsl fp
     408:	08010300 	stmdaeq	r1, {r8, r9}
     40c:	00000043 	andeq	r0, r0, r3, asr #32
     410:	00028004 	andeq	r8, r2, r4
     414:	19310300 	ldmdbne	r1!, {r8, r9}
     418:	0000006e 	andeq	r0, r0, lr, rrx
     41c:	7d070203 	sfmvc	f0, 4, [r7, #-12]
     420:	04000000 	streq	r0, [r0], #-0
     424:	00000277 	andeq	r0, r0, r7, ror r2
     428:	81193403 	tsthi	r9, r3, lsl #8
     42c:	03000000 	movweq	r0, #0
     430:	00e60704 	rsceq	r0, r6, r4, lsl #14
     434:	08030000 	stmdaeq	r3, {}	; <UNPREDICTABLE>
     438:	0000e107 	andeq	lr, r0, r7, lsl #2
     43c:	00250500 	eoreq	r0, r5, r0, lsl #10
     440:	009e0000 	addseq	r0, lr, r0
     444:	25060000 	strcs	r0, [r6, #-0]
     448:	00000000 	andeq	r0, r0, r0
     44c:	00010607 	andeq	r0, r1, r7, lsl #12
     450:	0e1c0400 	cfmulseq	mvf0, mvf12, mvf0
     454:	000000aa 	andeq	r0, r0, sl, lsr #1
     458:	008f0408 	addeq	r0, pc, r8, lsl #8
     45c:	25050000 	strcs	r0, [r5, #-0]
     460:	bf000000 	svclt	0x00000000
     464:	06000000 	streq	r0, [r0], -r0
     468:	000000bf 	strheq	r0, [r0], -pc	; <UNPREDICTABLE>
     46c:	cc040800 	stcgt	8, cr0, [r4], {-0}
     470:	03000000 	movweq	r0, #0
     474:	004c0801 	subeq	r0, ip, r1, lsl #16
     478:	c5090000 	strgt	r0, [r9, #-0]
     47c:	07000000 	streq	r0, [r0, -r0]
     480:	000006ba 			; <UNDEFINED> instruction: 0x000006ba
     484:	dd0e2104 	stfles	f2, [lr, #-16]
     488:	08000000 	stmdaeq	r0, {}	; <UNPREDICTABLE>
     48c:	0000b004 	andeq	fp, r0, r4
     490:	050c0a00 	streq	r0, [ip, #-2560]	; 0xfffff600
     494:	01140904 	tsteq	r4, r4, lsl #18
     498:	3e0b0000 	cdpcc	0, 0, cr0, cr11, cr0, {0}
     49c:	05000000 	streq	r0, [r0, #-0]
     4a0:	00bf1106 	adcseq	r1, pc, r6, lsl #2
     4a4:	0b000000 	bleq	4ac <__code_start__-0x7b54>
     4a8:	000000c4 	andeq	r0, r0, r4, asr #1
     4ac:	bf110705 	svclt	0x00110705
     4b0:	04000000 	streq	r0, [r0], #-0
     4b4:	0000200b 	andeq	r2, r0, fp
     4b8:	0e080500 	cfsh32eq	mvfx0, mvfx8, #0
     4bc:	0000002c 	andeq	r0, r0, ip, lsr #32
     4c0:	d7040008 	strle	r0, [r4, -r8]
     4c4:	05000001 	streq	r0, [r0, #-1]
     4c8:	00e30309 	rsceq	r0, r3, r9, lsl #6
     4cc:	070c0000 	streq	r0, [ip, -r0]
     4d0:	00005b01 	andeq	r5, r0, r1, lsl #22
     4d4:	0e090200 	cdpeq	2, 0, cr0, cr9, cr0, {0}
     4d8:	0000013b 	andeq	r0, r0, fp, lsr r1
     4dc:	0002bd0d 	andeq	fp, r2, sp, lsl #26
     4e0:	000d0b00 	andeq	r0, sp, r0, lsl #22
     4e4:	0c000002 	stceq	0, cr0, [r0], {2}
     4e8:	01070c00 	tsteq	r7, r0, lsl #24
     4ec:	0000005b 	andeq	r0, r0, fp, asr r0
     4f0:	56060a02 	strpl	r0, [r6], -r2, lsl #20
     4f4:	0d000001 	stceq	0, cr0, [r0, #-4]
     4f8:	0000021f 	andeq	r0, r0, pc, lsl r2
     4fc:	02130d80 	andseq	r0, r3, #128, 26	; 0x2000
     500:	00fe0000 	rscseq	r0, lr, r0
     504:	0002550e 	andeq	r5, r2, lr, lsl #10
     508:	0d02b400 	cfstrseq	mvf11, [r2, #-0]
     50c:	0001e610 	andeq	lr, r1, r0, lsl r6
     510:	02fa0b00 	rscseq	r0, sl, #0, 22
     514:	0e020000 	cdpeq	0, 0, cr0, cr2, cr0, {0}
     518:	0001e614 	andeq	lr, r1, r4, lsl r6
     51c:	060b0000 	streq	r0, [fp], -r0
     520:	02000002 	andeq	r0, r0, #2, 0
     524:	00750e0f 	rsbseq	r0, r5, pc, lsl #28
     528:	0b040000 	bleq	100530 <__bss_end__+0xf5520>
     52c:	00000266 	andeq	r0, r0, r6, ror #4
     530:	750e1002 	strvc	r1, [lr, #-2]
     534:	08000000 	stmdaeq	r0, {}	; <UNPREDICTABLE>
     538:	0001f70b 	andeq	pc, r1, fp, lsl #14
     53c:	0e140200 	cdpeq	2, 1, cr0, cr4, cr0, {0}
     540:	00000075 	andeq	r0, r0, r5, ror r0
     544:	025c0b0c 	subseq	r0, ip, #12, 22	; 0x3000
     548:	16020000 	strne	r0, [r2], -r0
     54c:	0001140f 	andeq	r1, r1, pc, lsl #8
     550:	dd0b1000 	stcle	0, cr1, [fp, #-0]
     554:	02000002 	andeq	r0, r0, #2, 0
     558:	01140f17 	tsteq	r4, r7, lsl pc
     55c:	0b1c0000 	bleq	700564 <__bss_end__+0x6f5554>
     560:	0000026c 	andeq	r0, r0, ip, ror #4
     564:	750e1a02 	strvc	r1, [lr, #-2562]	; 0xfffff5fe
     568:	28000000 	stmdacs	r0, {}	; <UNPREDICTABLE>
     56c:	0002b10b 	andeq	fp, r2, fp, lsl #2
     570:	0e1b0200 	cdpeq	2, 1, cr0, cr11, cr0, {0}
     574:	00000075 	andeq	r0, r0, r5, ror r0
     578:	03a90b2c 			; <UNDEFINED> instruction: 0x03a90b2c
     57c:	1d020000 	stcne	0, cr0, [r2, #-0]
     580:	0000620e 	andeq	r6, r0, lr, lsl #4
     584:	720f3000 	andvc	r3, pc, #0, 0
     588:	0200317a 	andeq	r3, r0, #-2147483618	; 0x8000001e
     58c:	01ec0d1f 	mvneq	r0, pc, lsl sp
     590:	00320000 	eorseq	r0, r2, r0
     594:	01560408 	cmpeq	r6, r8, lsl #8
     598:	4f100000 	svcmi	0x00100000
     59c:	fc000000 	stc2	0, cr0, [r0], {-0}
     5a0:	11000001 	tstne	r0, r1
     5a4:	0000002c 	andeq	r0, r0, ip, lsr #32
     5a8:	f104007f 			; <UNDEFINED> instruction: 0xf104007f
     5ac:	02000001 	andeq	r0, r0, #1, 0
     5b0:	01560320 	cmpeq	r6, r0, lsr #6
     5b4:	04120000 	ldreq	r0, [r2], #-0
     5b8:	00000007 	andeq	r0, r0, r7
     5bc:	11a60200 			; <UNDEFINED> instruction: 0x11a60200
     5c0:	0000002c 	andeq	r0, r0, ip, lsr #32
     5c4:	00024313 	andeq	r4, r2, r3, lsl r3
     5c8:	0f080100 	svceq	0x00080100
     5cc:	00000228 	andeq	r0, r0, r8, lsr #4
     5d0:	abe80305 	blge	ffa011ec <__bss_end__+0xff9f61dc>
     5d4:	04080000 	streq	r0, [r8], #-0
     5d8:	000001fc 	strdeq	r0, [r0], -ip
     5dc:	00000d14 	andeq	r0, r0, r4, lsl sp
     5e0:	08760100 	ldmdaeq	r6!, {r8}^
     5e4:	00000208 	andeq	r0, r0, r8, lsl #4
     5e8:	00008380 	andeq	r8, r0, r0, lsl #7
     5ec:	000000bc 	strheq	r0, [r0], -ip
     5f0:	031b9c01 	tsteq	fp, #256	; 0x100
     5f4:	e9150000 	ldmdb	r5, {}	; <UNPREDICTABLE>
     5f8:	01000002 	tsteq	r0, r2
     5fc:	00751a76 	rsbseq	r1, r5, r6, ror sl
     600:	01720000 	cmneq	r2, r0
     604:	016c0000 	cmneq	ip, r0
     608:	6c160000 	ldcvs	0, cr0, [r6], {-0}
     60c:	2c760100 	ldfcse	f0, [r6], #-0
     610:	00000114 	andeq	r0, r0, r4, lsl r1
     614:	17649102 	strbne	r9, [r4, -r2, lsl #2]!
     618:	78010068 	stmdavc	r1, {r3, r5, r6}
     61c:	0002280c 	andeq	r2, r2, ip, lsl #16
     620:	0001a400 	andeq	sl, r1, r0, lsl #8
     624:	00019e00 	andeq	r9, r1, r0, lsl #28
     628:	83ac1800 			; <UNDEFINED> instruction: 0x83ac1800
     62c:	00240000 	eoreq	r0, r4, r0
     630:	029b0000 	addseq	r0, fp, #0, 0
     634:	69170000 	ldmdbvs	r7, {}	; <UNPREDICTABLE>
     638:	0d7e0100 	ldfeqe	f0, [lr, #-0]
     63c:	00000025 	andeq	r0, r0, r5, lsr #32
     640:	000001d3 	ldrdeq	r0, [r0], -r3
     644:	000001d1 	ldrdeq	r0, [r0], -r1
     648:	839c1900 	orrshi	r1, ip, #0, 18
     64c:	07d30000 	ldrbeq	r0, [r3, r0]
     650:	02b00000 	adcseq	r0, r0, #0, 0
     654:	011a0000 	tsteq	sl, r0
     658:	b4750350 	ldrbtlt	r0, [r5], #-848	; 0xfffffcb0
     65c:	ac190002 	ldcge	0, cr0, [r9], {2}
     660:	df000083 	svcle	0x00000083
     664:	cf000007 	svcgt	0x00000007
     668:	1a000002 	bne	678 <__code_start__-0x7988>
     66c:	74025001 	strvc	r5, [r2], #-1
     670:	51011a00 	tstpl	r1, r0, lsl #20
     674:	011a3001 	tsteq	sl, r1
     678:	b4080252 	strlt	r0, [r8], #-594	; 0xfffffdae
     67c:	84001900 	strhi	r1, [r0], #-2304	; 0xfffff700
     680:	07eb0000 	strbeq	r0, [fp, r0]!
     684:	02fb0000 	rscseq	r0, fp, #0, 0
     688:	011a0000 	tsteq	sl, r0
     68c:	9c030550 	cfstr32ls	mvfx0, [r3], {80}	; 0x50
     690:	1a0000a3 	bne	924 <__code_start__-0x76dc>
     694:	91035101 	tstls	r3, r1, lsl #2
     698:	011a065c 	tsteq	sl, ip, asr r6
     69c:	60910352 	addsvs	r0, r1, r2, asr r3
     6a0:	53011a06 	movwpl	r1, #6662	; 0x1a06
     6a4:	06649103 	strbteq	r9, [r4], -r3, lsl #2
     6a8:	84141b00 	ldrhi	r1, [r4], #-2816	; 0xfffff500
     6ac:	07eb0000 	strbeq	r0, [fp, r0]!
     6b0:	011a0000 	tsteq	sl, r0
     6b4:	68030550 	stmdavs	r3, {r4, r6, r8, sl}
     6b8:	1a0000a4 	bne	950 <__code_start__-0x76b0>
     6bc:	76025101 	strvc	r5, [r2], -r1, lsl #2
     6c0:	52011a00 	andpl	r1, r1, #0, 20
     6c4:	00007502 	andeq	r7, r0, r2, lsl #10
     6c8:	01c61c00 	biceq	r1, r6, r0, lsl #24
     6cc:	53010000 	movwpl	r0, #4096	; 0x1000
     6d0:	0081e406 	addeq	lr, r1, r6, lsl #8
     6d4:	00019c00 	andeq	r9, r1, r0, lsl #24
     6d8:	249c0100 	ldrcs	r0, [ip], #256	; 0x100
     6dc:	15000005 	strne	r0, [r0, #-5]
     6e0:	00000b6a 	andeq	r0, r0, sl, ror #22
     6e4:	08145301 	ldmdaeq	r4, {r0, r8, r9, ip, lr}
     6e8:	eb000002 	bl	6f8 <__code_start__-0x7908>
     6ec:	e7000001 	str	r0, [r0, -r1]
     6f0:	1d000001 	stcne	0, cr0, [r0, #-4]
     6f4:	5301006c 	movwpl	r0, #4204	; 0x106c
     6f8:	00011424 	andeq	r1, r1, r4, lsr #8
     6fc:	00021100 	andeq	r1, r2, r0, lsl #2
     700:	00020900 	andeq	r0, r2, r0, lsl #18
     704:	00681700 	rsbeq	r1, r8, r0, lsl #14
     708:	280c5501 	stmdacs	ip, {r0, r8, sl, ip, lr}
     70c:	64000002 	strvs	r0, [r0], #-2
     710:	60000002 	andvs	r0, r0, r2
     714:	1e000002 	cdpne	0, 0, cr0, cr0, cr2, {0}
     718:	000000d4 	ldrdeq	r0, [r0], -r4
     71c:	00000534 	andeq	r0, r0, r4, lsr r5
     720:	a4840305 	strge	r0, [r4], #773	; 0x305
     724:	381f0000 	ldmdacc	pc, {}	; <UNPREDICTABLE>
     728:	1e000000 	cdpne	0, 0, cr0, cr0, cr0, {0}
     72c:	20000004 	andcs	r0, r0, r4
     730:	5d010069 	stcpl	0, cr0, [r1, #-420]	; 0xfffffe5c
     734:	0000250d 	andeq	r2, r0, sp, lsl #10
     738:	830c1900 	movwhi	r1, #51456	; 0xc900
     73c:	07eb0000 	strbeq	r0, [fp, r0]!
     740:	03b40000 			; <UNDEFINED> instruction: 0x03b40000
     744:	011a0000 	tsteq	sl, r0
     748:	b8030550 	stmdalt	r3, {r4, r6, r8, sl}
     74c:	1a0000a3 	bne	9e0 <__code_start__-0x7620>
     750:	77025101 	strvc	r5, [r2, -r1, lsl #2]
     754:	52011a00 	andpl	r1, r1, #0, 20
     758:	1a007602 	bne	1df68 <__bss_end__+0x12f58>
     75c:	75025301 	strvc	r5, [r2, #-769]	; 0xfffffcff
     760:	14190000 	ldrne	r0, [r9], #-0
     764:	eb000083 	bl	978 <__code_start__-0x7688>
     768:	cb000007 	blgt	78c <__code_start__-0x7874>
     76c:	1a000003 	bne	780 <__code_start__-0x7880>
     770:	03055001 	movweq	r5, #20481	; 0x5001
     774:	0000a3f8 	strdeq	sl, [r0], -r8
     778:	83182100 	tsthi	r8, #0
     77c:	07f70000 	ldrbeq	r0, [r7, r0]!
     780:	2c190000 	ldccs	0, cr0, [r9], {-0}
     784:	eb000083 	bl	998 <__code_start__-0x7668>
     788:	fd000007 	stc2	0, cr0, [r0, #-28]	; 0xffffffe4
     78c:	1a000003 	bne	7a0 <__code_start__-0x7860>
     790:	03055001 	movweq	r5, #20481	; 0x5001
     794:	0000a3b8 			; <UNDEFINED> instruction: 0x0000a3b8
     798:	0251011a 	subseq	r0, r1, #-2147483642	; 0x80000006
     79c:	011a0077 	tsteq	sl, r7, ror r0
     7a0:	00760252 	rsbseq	r0, r6, r2, asr r2
     7a4:	0253011a 	subseq	r0, r3, #-2147483642	; 0x80000006
     7a8:	19000075 	stmdbne	r0, {r0, r2, r4, r5, r6}
     7ac:	00008334 	andeq	r8, r0, r4, lsr r3
     7b0:	000007eb 	andeq	r0, r0, fp, ror #15
     7b4:	00000414 	andeq	r0, r0, r4, lsl r4
     7b8:	0550011a 	ldrbeq	r0, [r0, #-282]	; 0xfffffee6
     7bc:	00a41403 	adceq	r1, r4, r3, lsl #8
     7c0:	38210000 	stmdacc	r1!, {}	; <UNPREDICTABLE>
     7c4:	f7000083 			; <UNDEFINED> instruction: 0xf7000083
     7c8:	00000007 	andeq	r0, r0, r7
     7cc:	00827c18 	addeq	r7, r2, r8, lsl ip
     7d0:	00002c00 	andeq	r2, r0, r0, lsl #24
     7d4:	00043e00 	andeq	r3, r4, r0, lsl #28
     7d8:	00691700 	rsbeq	r1, r9, r0, lsl #14
     7dc:	250d6701 	strcs	r6, [sp, #-1793]	; 0xfffff8ff
     7e0:	8d000000 	stchi	0, cr0, [r0, #-0]
     7e4:	85000002 	strhi	r0, [r0, #-2]
     7e8:	00000002 	andeq	r0, r0, r2
     7ec:	00822419 	addeq	r2, r2, r9, lsl r4
     7f0:	0007eb00 	andeq	lr, r7, r0, lsl #22
     7f4:	00046700 	andeq	r6, r4, r0, lsl #14
     7f8:	50011a00 	andpl	r1, r1, r0, lsl #20
     7fc:	a39c0305 	orrsge	r0, ip, #335544320	; 0x14000000
     800:	011a0000 	tsteq	sl, r0
     804:	00770251 	rsbseq	r0, r7, r1, asr r2
     808:	0252011a 	subseq	r0, r2, #-2147483642	; 0x80000006
     80c:	011a0076 	tsteq	sl, r6, ror r0
     810:	00750253 	rsbseq	r0, r5, r3, asr r2
     814:	82301900 	eorshi	r1, r0, #0, 18
     818:	07eb0000 	strbeq	r0, [fp, r0]!
     81c:	04840000 	streq	r0, [r4], #0
     820:	011a0000 	tsteq	sl, r0
     824:	a8030550 	stmdage	r3, {r4, r6, r8, sl}
     828:	1a0000a3 	bne	abc <__code_start__-0x7544>
     82c:	74025101 	strvc	r5, [r2], #-257	; 0xfffffeff
     830:	c4190000 	ldrgt	r0, [r9], #-0
     834:	39000082 	stmdbcc	r0, {r1, r7}
     838:	98000005 	stmdals	r0, {r0, r2}
     83c:	1a000004 	bne	854 <__code_start__-0x77ac>
     840:	74025001 	strvc	r5, [r2], #-1
     844:	e8190000 	ldmda	r9, {}	; <UNPREDICTABLE>
     848:	eb000082 	bl	a58 <__code_start__-0x75a8>
     84c:	c1000007 	tstgt	r0, r7
     850:	1a000004 	bne	868 <__code_start__-0x7798>
     854:	03055001 	movweq	r5, #20481	; 0x5001
     858:	0000a3b8 			; <UNDEFINED> instruction: 0x0000a3b8
     85c:	0251011a 	subseq	r0, r1, #-2147483642	; 0x80000006
     860:	011a0077 	tsteq	sl, r7, ror r0
     864:	00760252 	rsbseq	r0, r6, r2, asr r2
     868:	0253011a 	subseq	r0, r3, #-2147483642	; 0x80000006
     86c:	19000075 	stmdbne	r0, {r0, r2, r4, r5, r6}
     870:	000082f4 	strdeq	r8, [r0], -r4
     874:	000007eb 	andeq	r0, r0, fp, ror #15
     878:	000004d8 	ldrdeq	r0, [r0], -r8
     87c:	0550011a 	ldrbeq	r0, [r0, #-282]	; 0xfffffee6
     880:	00a3d003 	adceq	sp, r3, r3
     884:	f8210000 			; <UNDEFINED> instruction: 0xf8210000
     888:	f7000082 			; <UNDEFINED> instruction: 0xf7000082
     88c:	19000007 	stmdbne	r0, {r0, r1, r2}
     890:	00008354 	andeq	r8, r0, r4, asr r3
     894:	000007eb 	andeq	r0, r0, fp, ror #15
     898:	0000051a 	andeq	r0, r0, sl, lsl r5
     89c:	0550011a 	ldrbeq	r0, [r0, #-282]	; 0xfffffee6
     8a0:	00a43c03 	adceq	r3, r4, r3, lsl #24
     8a4:	51011a00 	tstpl	r1, r0, lsl #20
     8a8:	a4300305 	ldrtge	r0, [r0], #-773	; 0xfffffcfb
     8ac:	011a0000 	tsteq	sl, r0
     8b0:	84030552 	strhi	r0, [r3], #-1362	; 0xfffffaae
     8b4:	1a0000a4 	bne	b4c <__code_start__-0x74b4>
     8b8:	08025301 	stmdaeq	r2, {r0, r8, r9, ip, lr}
     8bc:	7d021a6d 	vstrvc	s2, [r2, #-436]	; 0xfffffe4c
     8c0:	50030500 	andpl	r0, r3, r0, lsl #10
     8c4:	000000a4 	andeq	r0, r0, r4, lsr #1
     8c8:	00835821 	addeq	r5, r3, r1, lsr #16
     8cc:	0007f700 	andeq	pc, r7, r0, lsl #14
     8d0:	cc100000 	ldcgt	0, cr0, [r0], {-0}
     8d4:	34000000 	strcc	r0, [r0], #-0
     8d8:	11000005 	tstne	r0, r5
     8dc:	0000002c 	andeq	r0, r0, ip, lsr #32
     8e0:	24090006 	strcs	r0, [r9], #-6
     8e4:	14000005 	strne	r0, [r0], #-5
     8e8:	00000289 	andeq	r0, r0, r9, lsl #5
     8ec:	28082b01 	stmdacs	r8, {r0, r8, r9, fp, sp}
     8f0:	88000002 	stmdahi	r0, {r1}
     8f4:	5c000081 	stcpl	0, cr0, [r0], {129}	; 0x81
     8f8:	01000000 	mrseq	r0, (UNDEF: 0)
     8fc:	0005f99c 	muleq	r5, ip, r9
     900:	74701d00 	ldrbtvc	r1, [r0], #-3328	; 0xfffff300
     904:	2b010072 	blcs	40ad4 <__bss_end__+0x35ac4>
     908:	00020820 	andeq	r0, r2, r0, lsr #16
     90c:	0002db00 	andeq	sp, r2, r0, lsl #22
     910:	0002d700 	andeq	sp, r2, r0, lsl #14
     914:	81902200 	orrshi	r2, r0, r0, lsl #4
     918:	00440000 	subeq	r0, r4, r0
     91c:	68170000 	ldmdavs	r7, {}	; <UNPREDICTABLE>
     920:	112e0100 			; <UNDEFINED> instruction: 0x112e0100
     924:	00000228 	andeq	r0, r0, r8, lsr #4
     928:	000002fb 	strdeq	r0, [r0], -fp
     92c:	000002f9 	strdeq	r0, [r0], -r9
     930:	00071523 	andeq	r1, r7, r3, lsr #10
     934:	00819000 	addeq	r9, r1, r0
     938:	81900200 	orrshi	r0, r0, r0, lsl #4
     93c:	00080000 	andeq	r0, r8, r0
     940:	2e010000 	cdpcs	0, 0, cr0, cr1, cr0, {0}
     944:	06f92415 	usateq	r2, #25, r5, lsl #8
     948:	81b40000 			; <UNDEFINED> instruction: 0x81b40000
     94c:	b4010000 	strlt	r0, [r1], #-0
     950:	04000081 	streq	r0, [r0], #-129	; 0xffffff7f
     954:	01000000 	mrseq	r0, (UNDEF: 0)
     958:	05be2c2e 	ldreq	r2, [lr, #3118]!	; 0xc2e
     95c:	0a250000 	beq	940964 <__bss_end__+0x935954>
     960:	10000007 	andne	r0, r0, r7
     964:	0e000003 	cdpeq	0, 0, cr0, cr0, cr3, {0}
     968:	00000003 	andeq	r0, r0, r3
     96c:	0081ac19 	addeq	sl, r1, r9, lsl ip
     970:	0005f900 	andeq	pc, r5, r0, lsl #18
     974:	0005d800 	andeq	sp, r5, r0, lsl #16
     978:	50011a00 	andpl	r1, r1, r0, lsl #20
     97c:	1a007402 	bne	1d98c <__bss_end__+0x1297c>
     980:	75025101 	strvc	r5, [r2, #-257]	; 0xfffffeff
     984:	d41b0000 	ldrle	r0, [fp], #-0
     988:	eb000081 	bl	b94 <__code_start__-0x746c>
     98c:	1a000007 	bne	9b0 <__code_start__-0x7650>
     990:	03055001 	movweq	r5, #20481	; 0x5001
     994:	0000a38c 	andeq	sl, r0, ip, lsl #7
     998:	0251011a 	subseq	r0, r1, #-2147483642	; 0x80000006
     99c:	011a0075 	tsteq	sl, r5, ror r0
     9a0:	00740252 	rsbseq	r0, r4, r2, asr r2
     9a4:	14000000 	strne	r0, [r0], #-0
     9a8:	000001e1 	andeq	r0, r0, r1, ror #3
     9ac:	2c0a2401 	cfstrscs	mvf2, [sl], {1}
     9b0:	64000000 	strvs	r0, [r0], #-0
     9b4:	24000081 	strcs	r0, [r0], #-129	; 0xffffff7f
     9b8:	01000000 	mrseq	r0, (UNDEF: 0)
     9bc:	0006c19c 	muleq	r6, ip, r1
     9c0:	00681d00 	rsbeq	r1, r8, r0, lsl #26
     9c4:	28212401 	stmdacs	r1!, {r0, sl, sp}
     9c8:	29000002 	stmdbcs	r0, {r1}
     9cc:	23000003 	movwcs	r0, #3
     9d0:	16000003 	strne	r0, [r0], -r3
     9d4:	00727470 	rsbseq	r7, r2, r0, ror r4
     9d8:	082a2401 	stmdaeq	sl!, {r0, sl, sp}
     9dc:	01000002 	tsteq	r0, r2
     9e0:	696d1751 	stmdbvs	sp!, {r0, r4, r6, r8, r9, sl, ip}^
     9e4:	2601006e 	strcs	r0, [r1], -lr, rrx
     9e8:	0002080b 	andeq	r0, r2, fp, lsl #16
     9ec:	00035e00 	andeq	r5, r3, r0, lsl #28
     9f0:	00035800 	andeq	r5, r3, r0, lsl #16
     9f4:	616d1700 	cmnvs	sp, r0, lsl #14
     9f8:	27010078 	smlsdxcs	r1, r8, r0, r0
     9fc:	0002080b 	andeq	r0, r2, fp, lsl #16
     a00:	00039600 	andeq	r9, r3, r0, lsl #12
     a04:	00039000 	andeq	r9, r3, r0
     a08:	06dd2600 	ldrbeq	r2, [sp], r0, lsl #12
     a0c:	81640000 	cmnhi	r4, r0
     a10:	00020000 	andeq	r0, r2, r0
     a14:	01000000 	mrseq	r0, (UNDEF: 0)
     a18:	067e1126 	ldrbteq	r1, [lr], -r6, lsr #2
     a1c:	ee250000 	cdp	0, 2, cr0, cr5, cr0, {0}
     a20:	de000006 	cdple	0, 0, cr0, cr0, cr6, {0}
     a24:	dc000003 	stcle	0, cr0, [r0], {3}
     a28:	00000003 	andeq	r0, r0, r3
     a2c:	0006c127 	andeq	ip, r6, r7, lsr #2
     a30:	00816400 	addeq	r6, r1, r0, lsl #8
     a34:	00180600 	andseq	r0, r8, r0, lsl #12
     a38:	27010000 	strcs	r0, [r1, -r0]
     a3c:	06d22511 			; <UNDEFINED> instruction: 0x06d22511
     a40:	03f30000 	mvnseq	r0, #0, 0
     a44:	03f10000 	mvnseq	r0, #0, 0
     a48:	22280000 	eorcs	r0, r8, #0, 0
     a4c:	64000007 	strvs	r0, [r0], #-7
     a50:	0a000081 	beq	c5c <__code_start__-0x73a4>
     a54:	00008164 	andeq	r8, r0, r4, ror #2
     a58:	00000000 	andeq	r0, r0, r0
     a5c:	25262001 	strcs	r2, [r6, #-1]!
     a60:	00000733 	andeq	r0, r0, r3, lsr r7
     a64:	00000408 	andeq	r0, r0, r8, lsl #8
     a68:	00000406 	andeq	r0, r0, r6, lsl #8
     a6c:	29000000 	stmdbcs	r0, {}	; <UNPREDICTABLE>
     a70:	000002d2 	ldrdeq	r0, [r0], -r2
     a74:	08071e01 	stmdaeq	r7, {r0, r9, sl, fp, ip}
     a78:	01000002 	tsteq	r0, r2
     a7c:	000006dd 	ldrdeq	r0, [r0], -sp
     a80:	0100682a 	tsteq	r0, sl, lsr #16
     a84:	0228191e 	eoreq	r1, r8, #491520	; 0x78000
     a88:	29000000 	stmdbcs	r0, {}	; <UNPREDICTABLE>
     a8c:	000002c5 	andeq	r0, r0, r5, asr #5
     a90:	08071801 	stmdaeq	r7, {r0, fp, ip}
     a94:	01000002 	tsteq	r0, r2
     a98:	000006f9 	strdeq	r0, [r0], -r9
     a9c:	0100682a 	tsteq	r0, sl, lsr #16
     aa0:	02281b18 	eoreq	r1, r8, #24, 22	; 0x6000
     aa4:	29000000 	stmdbcs	r0, {}	; <UNPREDICTABLE>
     aa8:	0000029b 	muleq	r0, fp, r2
     aac:	28081101 	stmdacs	r8, {r0, r8, ip}
     ab0:	01000002 	tsteq	r0, r2
     ab4:	00000715 	andeq	r0, r0, r5, lsl r7
     ab8:	0100702a 	tsteq	r0, sl, lsr #32
     abc:	02281b11 	eoreq	r1, r8, #17408	; 0x4400
     ac0:	2b000000 	blcs	ac8 <__code_start__-0x7538>
     ac4:	0000022e 	andeq	r0, r0, lr, lsr #4
     ac8:	28080b01 	stmdacs	r8, {r0, r8, r9, fp}
     acc:	01000002 	tsteq	r0, r2
     ad0:	0002e62c 	andeq	lr, r2, ip, lsr #12
     ad4:	182f0200 	stmdane	pc!, {r9}	; <UNPREDICTABLE>
     ad8:	0000002c 	andeq	r0, r0, ip, lsr #32
     adc:	00073e03 	andeq	r3, r7, r3, lsl #28
     ae0:	00682a00 	rsbeq	r2, r8, r0, lsl #20
     ae4:	28292f02 	stmdacs	r9!, {r1, r8, r9, sl, fp, sp}
     ae8:	00000002 	andeq	r0, r0, r2
     aec:	0007152d 	andeq	r1, r7, sp, lsr #10
     af0:	00813000 	addeq	r3, r1, r0
     af4:	00001000 	andeq	r1, r0, r0
     af8:	2e9c0100 	fmlcse	f0, f4, f0
     afc:	000006f9 	strdeq	r0, [r0], -r9
     b00:	00008140 	andeq	r8, r0, r0, asr #2
     b04:	0000000c 	andeq	r0, r0, ip
     b08:	076e9c01 	strbeq	r9, [lr, -r1, lsl #24]!
     b0c:	0a250000 	beq	940b14 <__bss_end__+0x935b04>
     b10:	1f000007 	svcne	0x00000007
     b14:	1b000004 	blne	b2c <__code_start__-0x74d4>
     b18:	00000004 	andeq	r0, r0, r4
     b1c:	0006dd2e 	andeq	sp, r6, lr, lsr #26
     b20:	00814c00 	addeq	r4, r1, r0, lsl #24
     b24:	00000800 	andeq	r0, r0, r0, lsl #16
     b28:	8f9c0100 	svchi	0x009c0100
     b2c:	25000007 	strcs	r0, [r0, #-7]
     b30:	000006ee 	andeq	r0, r0, lr, ror #13
     b34:	00000444 	andeq	r0, r0, r4, asr #8
     b38:	00000440 	andeq	r0, r0, r0, asr #8
     b3c:	06c12e00 	strbeq	r2, [r1], r0, lsl #28
     b40:	81540000 	cmphi	r4, r0
     b44:	00100000 	andseq	r0, r0, r0
     b48:	9c010000 	stcls	0, cr0, [r1], {-0}
     b4c:	000007d3 	ldrdeq	r0, [r0], -r3
     b50:	0006d225 	andeq	sp, r6, r5, lsr #4
     b54:	00046900 	andeq	r6, r4, r0, lsl #18
     b58:	00046500 	andeq	r6, r4, r0, lsl #10
     b5c:	07222800 	streq	r2, [r2, -r0, lsl #16]!
     b60:	81540000 	cmphi	r4, r0
     b64:	54030000 	strpl	r0, [r3], #-0
     b68:	00000081 	andeq	r0, r0, r1, lsl #1
     b6c:	01000000 	mrseq	r0, (UNDEF: 0)
     b70:	33252620 			; <UNDEFINED> instruction: 0x33252620
     b74:	8c000007 	stchi	0, cr0, [r0], {7}
     b78:	8a000004 	bhi	b90 <__code_start__-0x7470>
     b7c:	00000004 	andeq	r0, r0, r4
     b80:	02f02f00 	rscseq	r2, r0, #0, 30
     b84:	02f00000 	rscseq	r0, r0, #0, 0
     b88:	1e060000 	cdpne	0, 0, cr0, cr6, cr0, {0}
     b8c:	024e2f07 	subeq	r2, lr, #7, 30
     b90:	024e0000 	subeq	r0, lr, #0, 0
     b94:	f2040000 	vhadd.s8	d0, d4, d0
     b98:	067c2f07 	ldrbteq	r2, [ip], -r7, lsl #30
     b9c:	067c0000 	ldrbteq	r0, [ip], -r0
     ba0:	28040000 	stmdacs	r4, {}	; <UNPREDICTABLE>
     ba4:	00512f06 	subseq	r2, r1, r6, lsl #30
     ba8:	00510000 	subseq	r0, r1, r0
     bac:	6e040000 	cdpvs	0, 0, cr0, cr4, cr0, {0}
     bb0:	02f10006 	rscseq	r0, r1, #6, 0
     bb4:	00040000 	andeq	r0, r4, r0
     bb8:	0000044e 	andeq	r0, r0, lr, asr #8
     bbc:	01120104 	tsteq	r2, r4, lsl #2
     bc0:	270c0000 	strcs	r0, [ip, -r0]
     bc4:	90000003 	andls	r0, r0, r3
     bc8:	3c000000 	stccc	0, cr0, [r0], {-0}
     bcc:	90000084 	andls	r0, r0, r4, lsl #1
     bd0:	57000001 	strpl	r0, [r0, -r1]
     bd4:	02000004 	andeq	r0, r0, #4, 0
     bd8:	6e690504 	cdpvs	5, 6, cr0, cr9, cr4, {0}
     bdc:	04030074 	streq	r0, [r3], #-116	; 0xffffff8c
     be0:	0000eb07 	andeq	lr, r0, r7, lsl #22
     be4:	06010300 	streq	r0, [r1], -r0, lsl #6
     be8:	00000045 	andeq	r0, r0, r5, asr #32
     bec:	cd050203 	sfmgt	f0, 4, [r5, #-12]
     bf0:	03000001 	movweq	r0, #1
     bf4:	00fd0504 	rscseq	r0, sp, r4, lsl #10
     bf8:	08030000 	stmdaeq	r3, {}	; <UNPREDICTABLE>
     bfc:	0000f805 	andeq	pc, r0, r5, lsl #16
     c00:	08010300 	stmdaeq	r1, {r8, r9}
     c04:	00000043 	andeq	r0, r0, r3, asr #32
     c08:	7d070203 	sfmvc	f0, 4, [r7, #-12]
     c0c:	03000000 	movweq	r0, #0
     c10:	00e60704 	rsceq	r0, r6, r4, lsl #14
     c14:	08030000 	stmdaeq	r3, {}	; <UNPREDICTABLE>
     c18:	0000e107 	andeq	lr, r0, r7, lsl #2
     c1c:	00250400 	eoreq	r0, r5, r0, lsl #8
     c20:	007a0000 	rsbseq	r0, sl, r0
     c24:	25050000 	strcs	r0, [r5, #-0]
     c28:	00000000 	andeq	r0, r0, r0
     c2c:	00010606 	andeq	r0, r1, r6, lsl #12
     c30:	0e1c0200 	cdpeq	2, 1, cr0, cr12, cr0, {0}
     c34:	00000086 	andeq	r0, r0, r6, lsl #1
     c38:	006b0407 	rsbeq	r0, fp, r7, lsl #8
     c3c:	25040000 	strcs	r0, [r4, #-0]
     c40:	9b000000 	blls	c48 <__code_start__-0x73b8>
     c44:	05000000 	streq	r0, [r0, #-0]
     c48:	0000009b 	muleq	r0, fp, r0
     c4c:	a8040700 	stmdage	r4, {r8, r9, sl}
     c50:	03000000 	movweq	r0, #0
     c54:	004c0801 	subeq	r0, ip, r1, lsl #16
     c58:	a1080000 	mrsge	r0, (UNDEF: 8)
     c5c:	06000000 	streq	r0, [r0], -r0
     c60:	000006ba 			; <UNDEFINED> instruction: 0x000006ba
     c64:	b90e2102 	stmdblt	lr, {r1, r8, sp}
     c68:	07000000 	streq	r0, [r0, -r0]
     c6c:	00008c04 	andeq	r8, r0, r4, lsl #24
     c70:	030c0900 	movweq	r0, #51456	; 0xc900
     c74:	01080000 	mrseq	r0, (UNDEF: 8)
     c78:	00ec0705 	rsceq	r0, ip, r5, lsl #14
     c7c:	640a0000 	strvs	r0, [sl], #-0
     c80:	09070100 	stmdbeq	r7, {r8}
     c84:	000000ec 	andeq	r0, r0, ip, ror #1
     c88:	0100700a 	tsteq	r0, sl
     c8c:	00f30808 	rscseq	r0, r3, r8, lsl #16
     c90:	660a0000 	strvs	r0, [sl], -r0
     c94:	09010070 	stmdbeq	r1, {r4, r5, r6}
     c98:	0000f609 	andeq	pc, r0, r9, lsl #12
     c9c:	08030000 	stmdaeq	r3, {}	; <UNPREDICTABLE>
     ca0:	00033304 	andeq	r3, r3, r4, lsl #6
     ca4:	0c040b00 			; <UNDEFINED> instruction: 0x0c040b00
     ca8:	00f50407 	rscseq	r0, r5, r7, lsl #8
     cac:	080d0000 	stmdaeq	sp, {}	; <UNPREDICTABLE>
     cb0:	20020e01 	andcs	r0, r2, r1, lsl #28
     cb4:	0e000001 	cdpeq	0, 0, cr0, cr0, cr1, {0}
     cb8:	00727470 	rsbseq	r7, r2, r0, ror r4
     cbc:	42111001 	andsmi	r1, r1, #1, 0
     cc0:	00000001 	andeq	r0, r0, r1
     cc4:	00034d0f 	andeq	r4, r3, pc, lsl #26
     cc8:	0c110100 	ldfeqs	f0, [r1], {-0}
     ccc:	0000002c 	andeq	r0, r0, ip, lsr #32
     cd0:	ff090004 			; <UNDEFINED> instruction: 0xff090004
     cd4:	08000002 	stmdaeq	r0, {r1}
     cd8:	420f0c01 	andmi	r0, pc, #256	; 0x100
     cdc:	0a000001 	beq	ce8 <__code_start__-0x7318>
     ce0:	12010073 	andne	r0, r1, #115, 0	; 0x73
     ce4:	0000fc04 	andeq	pc, r0, r4, lsl #24
     ce8:	00780a00 	rsbseq	r0, r8, r0, lsl #20
     cec:	bf0e1301 	svclt	0x000e1301
     cf0:	00000000 	andeq	r0, r0, r0
     cf4:	01200407 			; <UNDEFINED> instruction: 0x01200407
     cf8:	52100000 	andspl	r0, r0, #0, 0
     cfc:	01000003 	tsteq	r0, r3
     d00:	01200314 			; <UNDEFINED> instruction: 0x01200314
     d04:	3a110000 	bcc	440d0c <__bss_end__+0x435cfc>
     d08:	01000003 	tsteq	r0, r3
     d0c:	01480f18 	cmpeq	r8, r8, lsl pc
     d10:	03050000 	movweq	r0, #20480	; 0x5000
     d14:	0000abf8 	strdeq	sl, [r0], -r8
     d18:	00031a11 	andeq	r1, r3, r1, lsl sl
     d1c:	10190100 	andsne	r0, r9, r0, lsl #2
     d20:	00000178 	andeq	r0, r0, r8, ror r1
     d24:	abf00305 	blge	ffc01940 <__bss_end__+0xffbf6930>
     d28:	04070000 	streq	r0, [r7], #-0
     d2c:	00000148 	andeq	r0, r0, r8, asr #2
     d30:	00031212 	andeq	r1, r3, r2, lsl r2
     d34:	06530100 	ldrbeq	r0, [r3], -r0, lsl #2
     d38:	0000843c 	andeq	r8, r0, ip, lsr r4
     d3c:	000000a4 	andeq	r0, r0, r4, lsr #1
     d40:	01c79c01 	biceq	r9, r7, r1, lsl #24
     d44:	61130000 	tstvs	r3, r0
     d48:	53010070 	movwpl	r0, #4208	; 0x1070
     d4c:	0000f314 	andeq	pc, r0, r4, lsl r3	; <UNPREDICTABLE>
     d50:	14500100 	ldrbne	r0, [r0], #-256	; 0xffffff00
     d54:	01007062 	tsteq	r0, r2, rrx
     d58:	01780a55 	cmneq	r8, r5, asr sl
     d5c:	04a30000 	strteq	r0, [r3], #0
     d60:	049f0000 	ldreq	r0, [pc], #0	; d68 <__code_start__-0x7298>
     d64:	70140000 	andsvc	r0, r4, r0
     d68:	0f550100 	svceq	0x00550100
     d6c:	00000178 	andeq	r0, r0, r8, ror r1
     d70:	000004c5 	andeq	r0, r0, r5, asr #9
     d74:	000004c3 	andeq	r0, r0, r3, asr #9
     d78:	02f01500 	rscseq	r1, r0, #0, 10
     d7c:	2b010000 	blcs	40d84 <__bss_end__+0x35d74>
     d80:	0000f307 	andeq	pc, r0, r7, lsl #6
     d84:	0084e000 	addeq	lr, r4, r0
     d88:	0000ec00 	andeq	lr, r0, r0, lsl #24
     d8c:	a39c0100 	orrsge	r0, ip, #0
     d90:	16000002 	strne	r0, [r0], -r2
     d94:	000002e9 	andeq	r0, r0, r9, ror #5
     d98:	2c1a2b01 			; <UNDEFINED> instruction: 0x2c1a2b01
     d9c:	dc000000 	stcle	0, cr0, [r0], {-0}
     da0:	d8000004 	stmdale	r0, {r2}
     da4:	14000004 	strne	r0, [r0], #-4
     da8:	2d010070 	stccs	0, cr0, [r1, #-448]	; 0xfffffe40
     dac:	0001780a 	andeq	r7, r1, sl, lsl #16
     db0:	00050900 	andeq	r0, r5, r0, lsl #18
     db4:	0004fd00 	andeq	pc, r4, r0, lsl #26
     db8:	03061700 	movweq	r1, #26368	; 0x6700
     dbc:	2d010000 	stccs	0, cr0, [r1, #-0]
     dc0:	0001780e 	andeq	r7, r1, lr, lsl #16
     dc4:	00056700 	andeq	r6, r5, r0, lsl #14
     dc8:	00055f00 	andeq	r5, r5, r0, lsl #30
     dcc:	03201700 	nopeq	{0}	; <UNPREDICTABLE>
     dd0:	2e010000 	cdpcs	0, 0, cr0, cr1, cr0, {0}
     dd4:	00002c0b 	andeq	r2, r0, fp, lsl #24
     dd8:	0005a200 	andeq	sl, r5, r0, lsl #4
     ddc:	0005a000 	andeq	sl, r5, r0
     de0:	02a31800 	adceq	r1, r3, #0, 16
     de4:	85a00000 	strhi	r0, [r0, #0]!
     de8:	50010000 	andpl	r0, r1, r0
     dec:	01000000 	mrseq	r0, (UNDEF: 0)
     df0:	b4190d4a 	ldrlt	r0, [r9], #-3402	; 0xfffff2b6
     df4:	b9000002 	stmdblt	r0, {r1}
     df8:	b5000005 	strlt	r0, [r0, #-5]
     dfc:	1a000005 	bne	e18 <__code_start__-0x71e8>
     e00:	00000050 	andeq	r0, r0, r0, asr r0
     e04:	0002bf1b 	andeq	fp, r2, fp, lsl pc
     e08:	0005e300 	andeq	lr, r5, r0, lsl #6
     e0c:	0005dd00 	andeq	sp, r5, r0, lsl #26
     e10:	02ca1b00 	sbceq	r1, sl, #0, 22
     e14:	06120000 	ldreq	r0, [r2], -r0
     e18:	060e0000 	streq	r0, [lr], -r0
     e1c:	741c0000 	ldrvc	r0, [ip], #-0
     e20:	7e000085 	cdpvc	0, 0, cr0, cr0, cr5, {4}
     e24:	1d000001 	stcne	0, cr0, [r0, #-4]
     e28:	000085ac 	andeq	r8, r0, ip, lsr #11
     e2c:	000002dc 	ldrdeq	r0, [r0], -ip
     e30:	0000028f 	andeq	r0, r0, pc, lsl #5
     e34:	0250011e 	subseq	r0, r0, #-2147483641	; 0x80000007
     e38:	011e0077 	tsteq	lr, r7, ror r0
     e3c:	00760251 	rsbseq	r0, r6, r1, asr r2
     e40:	85b41f00 	ldrhi	r1, [r4, #3840]!	; 0xf00
     e44:	02e80000 	rsceq	r0, r8, #0, 0
     e48:	011e0000 	tsteq	lr, r0
     e4c:	3e400350 	mcrcc	3, 2, r0, cr0, cr0, {2}
     e50:	00000024 	andeq	r0, r0, r4, lsr #32
     e54:	03442000 	movteq	r2, #16384	; 0x4000
     e58:	1c010000 	stcne	0, cr0, [r1], {-0}
     e5c:	00017810 	andeq	r7, r1, r0, lsl r8
     e60:	02d60100 	sbcseq	r0, r6, #0
     e64:	6e210000 	cdpvs	0, 2, cr0, cr1, cr0, {0}
     e68:	1c010075 	stcne	0, cr0, [r1], {117}	; 0x75
     e6c:	00002c22 	andeq	r2, r0, r2, lsr #24
     e70:	70632200 	rsbvc	r2, r3, r0, lsl #4
     e74:	08210100 	stmdaeq	r1!, {r8}
     e78:	000002d6 	ldrdeq	r0, [r0], -r6
     e7c:	00707522 	rsbseq	r7, r0, r2, lsr #10
     e80:	780a2401 	stmdavc	sl, {r0, sl, sp}
     e84:	00000001 	andeq	r0, r0, r1
     e88:	00a10407 	adceq	r0, r1, r7, lsl #8
     e8c:	7c230000 	stcvc	0, cr0, [r3], #-0
     e90:	7c000006 	stcvc	0, cr0, [r0], {6}
     e94:	02000006 	andeq	r0, r0, #6, 0
     e98:	3f230628 	svccc	0x00230628
     e9c:	3f000003 	svccc	0x00000003
     ea0:	03000003 	movweq	r0, #3
     ea4:	cf000b1a 	svcgt	0x00000b1a
     ea8:	0400000e 	streq	r0, [r0], #-14
     eac:	00065b00 	andeq	r5, r6, r0, lsl #22
     eb0:	4d010400 	cfstrsmi	mvf0, [r1, #-0]
     eb4:	0c000004 	stceq	0, cr0, [r0], {4}
     eb8:	00000433 	andeq	r0, r0, r3, lsr r4
     ebc:	00000090 	muleq	r0, r0, r0
     ec0:	000085cc 	andeq	r8, r0, ip, asr #11
     ec4:	000006bc 			; <UNDEFINED> instruction: 0x000006bc
     ec8:	00000681 	andeq	r0, r0, r1, lsl #13
     ecc:	69050402 	stmdbvs	r5, {r1, sl}
     ed0:	0300746e 	movweq	r7, #1134	; 0x46e
     ed4:	00eb0704 	rsceq	r0, fp, r4, lsl #14
     ed8:	01030000 	mrseq	r0, (UNDEF: 3)
     edc:	00004506 	andeq	r4, r0, r6, lsl #10
     ee0:	05020300 	streq	r0, [r2, #-768]	; 0xfffffd00
     ee4:	000001cd 	andeq	r0, r0, sp, asr #3
     ee8:	fd050403 	stc2	4, cr0, [r5, #-12]
     eec:	03000000 	movweq	r0, #0
     ef0:	00f80508 	rscseq	r0, r8, r8, lsl #10
     ef4:	3b040000 	blcc	100efc <__bss_end__+0xf5eec>
     ef8:	03000002 	movweq	r0, #2
     efc:	005b182e 	subseq	r1, fp, lr, lsr #16
     f00:	01030000 	mrseq	r0, (UNDEF: 3)
     f04:	00004308 	andeq	r4, r0, r8, lsl #6
     f08:	02800400 	addeq	r0, r0, #0, 8
     f0c:	31030000 	mrscc	r0, (UNDEF: 3)
     f10:	00006e19 	andeq	r6, r0, r9, lsl lr
     f14:	07020300 	streq	r0, [r2, -r0, lsl #6]
     f18:	0000007d 	andeq	r0, r0, sp, ror r0
     f1c:	00027704 	andeq	r7, r2, r4, lsl #14
     f20:	19340300 	ldmdbne	r4!, {r8, r9}
     f24:	00000081 	andeq	r0, r0, r1, lsl #1
     f28:	e6070403 	str	r0, [r7], -r3, lsl #8
     f2c:	03000000 	movweq	r0, #0
     f30:	00e10708 	rsceq	r0, r1, r8, lsl #14
     f34:	25050000 	strcs	r0, [r5, #-0]
     f38:	9e000000 	cdpls	0, 0, cr0, cr0, cr0, {0}
     f3c:	06000000 	streq	r0, [r0], -r0
     f40:	00000025 	andeq	r0, r0, r5, lsr #32
     f44:	01060700 	tsteq	r6, r0, lsl #14
     f48:	1c040000 	stcne	0, cr0, [r4], {-0}
     f4c:	0000aa0e 	andeq	sl, r0, lr, lsl #20
     f50:	8f040800 	svchi	0x00040800
     f54:	05000000 	streq	r0, [r0, #-0]
     f58:	00000025 	andeq	r0, r0, r5, lsr #32
     f5c:	000000bf 	strheq	r0, [r0], -pc	; <UNPREDICTABLE>
     f60:	0000bf06 	andeq	fp, r0, r6, lsl #30
     f64:	04080000 	streq	r0, [r8], #-0
     f68:	000000cc 	andeq	r0, r0, ip, asr #1
     f6c:	4c080103 	stfmis	f0, [r8], {3}
     f70:	09000000 	stmdbeq	r0, {}	; <UNPREDICTABLE>
     f74:	000000c5 	andeq	r0, r0, r5, asr #1
     f78:	0006ba07 	andeq	fp, r6, r7, lsl #20
     f7c:	0e210400 	cdpeq	4, 2, cr0, cr1, cr0, {0}
     f80:	000000dd 	ldrdeq	r0, [r0], -sp
     f84:	00b00408 	adcseq	r0, r0, r8, lsl #8
     f88:	0c0a0000 	stceq	0, cr0, [sl], {-0}
     f8c:	14090402 	strne	r0, [r9], #-1026	; 0xfffffbfe
     f90:	0b000001 	bleq	f9c <__code_start__-0x7064>
     f94:	0000003e 	andeq	r0, r0, lr, lsr r0
     f98:	bf110602 	svclt	0x00110602
     f9c:	00000000 	andeq	r0, r0, r0
     fa0:	0000c40b 	andeq	ip, r0, fp, lsl #8
     fa4:	11070200 	mrsne	r0, (UNDEF: 39)
     fa8:	000000bf 	strheq	r0, [r0], -pc	; <UNPREDICTABLE>
     fac:	00200b04 	eoreq	r0, r0, r4, lsl #22
     fb0:	08020000 	stmdaeq	r2, {}	; <UNPREDICTABLE>
     fb4:	00002c0e 	andeq	r2, r0, lr, lsl #24
     fb8:	04000800 	streq	r0, [r0], #-2048	; 0xfffff800
     fbc:	000001d7 	ldrdeq	r0, [r0], -r7
     fc0:	e3030902 	movw	r0, #14594	; 0x3902
     fc4:	0c000000 	stceq	0, cr0, [r0], {-0}
     fc8:	005b0107 	subseq	r0, fp, r7, lsl #2
     fcc:	09050000 	stmdbeq	r5, {}	; <UNPREDICTABLE>
     fd0:	00013b0e 	andeq	r3, r1, lr, lsl #22
     fd4:	02bd0d00 	adcseq	r0, sp, #0, 26
     fd8:	0d0b0000 	stceq	0, cr0, [fp, #-0]
     fdc:	00000200 	andeq	r0, r0, r0, lsl #4
     fe0:	070c000c 	streq	r0, [ip, -ip]
     fe4:	00005b01 	andeq	r5, r0, r1, lsl #22
     fe8:	060a0500 	streq	r0, [sl], -r0, lsl #10
     fec:	00000156 	andeq	r0, r0, r6, asr r1
     ff0:	00021f0d 	andeq	r1, r2, sp, lsl #30
     ff4:	130d8000 	movwne	r8, #53248	; 0xd000
     ff8:	fe000002 	cdp2	0, 0, cr0, cr0, cr2, {0}
     ffc:	02550e00 	subseq	r0, r5, #0, 28
    1000:	05b40000 	ldreq	r0, [r4, #0]!
    1004:	01e6100d 	mvneq	r1, sp
    1008:	fa0b0000 	blx	2c1010 <__bss_end__+0x2b6000>
    100c:	05000002 	streq	r0, [r0, #-2]
    1010:	01e6140e 	mvneq	r1, lr, lsl #8
    1014:	0b000000 	bleq	101c <__code_start__-0x6fe4>
    1018:	00000206 	andeq	r0, r0, r6, lsl #4
    101c:	750e0f05 	strvc	r0, [lr, #-3845]	; 0xfffff0fb
    1020:	04000000 	streq	r0, [r0], #-0
    1024:	0002660b 	andeq	r6, r2, fp, lsl #12
    1028:	0e100500 	cfmul32eq	mvfx0, mvfx0, mvfx0
    102c:	00000075 	andeq	r0, r0, r5, ror r0
    1030:	01f70b08 	mvnseq	r0, r8, lsl #22
    1034:	14050000 	strne	r0, [r5], #-0
    1038:	0000750e 	andeq	r7, r0, lr, lsl #10
    103c:	5c0b0c00 	stcpl	12, cr0, [fp], {-0}
    1040:	05000002 	streq	r0, [r0, #-2]
    1044:	01140f16 	tsteq	r4, r6, lsl pc
    1048:	0b100000 	bleq	401050 <__bss_end__+0x3f6040>
    104c:	000002dd 	ldrdeq	r0, [r0], -sp
    1050:	140f1705 	strne	r1, [pc], #-1797	; 1058 <__code_start__-0x6fa8>
    1054:	1c000001 	stcne	0, cr0, [r0], {1}
    1058:	00026c0b 	andeq	r6, r2, fp, lsl #24
    105c:	0e1a0500 	cfmul32eq	mvfx0, mvfx10, mvfx0
    1060:	00000075 	andeq	r0, r0, r5, ror r0
    1064:	02b10b28 	adcseq	r0, r1, #40, 22	; 0xa000
    1068:	1b050000 	blne	141070 <__bss_end__+0x136060>
    106c:	0000750e 	andeq	r7, r0, lr, lsl #10
    1070:	a90b2c00 	stmdbge	fp, {sl, fp, sp}
    1074:	05000003 	streq	r0, [r0, #-3]
    1078:	00620e1d 	rsbeq	r0, r2, sp, lsl lr
    107c:	0f300000 	svceq	0x00300000
    1080:	00317a72 	eorseq	r7, r1, r2, ror sl
    1084:	ec0d1f05 	stc	15, cr1, [sp], {5}
    1088:	32000001 	andcc	r0, r0, #1, 0
    108c:	56040800 	strpl	r0, [r4], -r0, lsl #16
    1090:	10000001 	andne	r0, r0, r1
    1094:	0000004f 	andeq	r0, r0, pc, asr #32
    1098:	000001fc 	strdeq	r0, [r0], -ip
    109c:	00002c11 	andeq	r2, r0, r1, lsl ip
    10a0:	04007f00 	streq	r7, [r0], #-3840	; 0xfffff100
    10a4:	000001f1 	strdeq	r0, [r0], -r1
    10a8:	56032005 	strpl	r2, [r3], -r5
    10ac:	12000001 	andne	r0, r0, #1, 0
    10b0:	00000704 	andeq	r0, r0, r4, lsl #14
    10b4:	a6050000 	strge	r0, [r5], -r0
    10b8:	00002c11 	andeq	r2, r0, r1, lsl ip
    10bc:	0b531300 	bleq	14c5cc4 <__bss_end__+0x14bacb4>
    10c0:	10010000 	andne	r0, r1, r0
    10c4:	0002080e 	andeq	r0, r2, lr, lsl #16
    10c8:	00030500 	andeq	r0, r3, r0, lsl #10
    10cc:	130000ac 	movwne	r0, #172	; 0xac
    10d0:	00000bb4 			; <UNDEFINED> instruction: 0x00000bb4
    10d4:	080e1101 	stmdaeq	lr, {r0, r8, ip}
    10d8:	05000002 	streq	r0, [r0, #-2]
    10dc:	00ac0403 	adceq	r0, ip, r3, lsl #8
    10e0:	036c1400 	cmneq	ip, #0, 8
    10e4:	32010000 	andcc	r0, r1, #0, 0
    10e8:	8c600601 	stclhi	6, cr0, [r0], #-4
    10ec:	00280000 	eoreq	r0, r8, r0
    10f0:	9c010000 	stcls	0, cr0, [r1], {-0}
    10f4:	0000029a 	muleq	r0, sl, r2
    10f8:	0000d415 	andeq	sp, r0, r5, lsl r4
    10fc:	0002aa00 	andeq	sl, r2, r0, lsl #20
    1100:	50030500 	andpl	r0, r3, r0, lsl #10
    1104:	160000a8 	strne	r0, [r0], -r8, lsr #1
    1108:	00008c78 	andeq	r8, r0, r8, ror ip
    110c:	00000e4b 	andeq	r0, r0, fp, asr #28
    1110:	00000290 	muleq	r0, r0, r2
    1114:	05500117 	ldrbeq	r0, [r0, #-279]	; 0xfffffee9
    1118:	00a7e003 	adceq	lr, r7, r3
    111c:	51011700 	tstpl	r1, r0, lsl #14
    1120:	a4b00305 	ldrtge	r0, [r0], #773	; 0x305
    1124:	01170000 	tsteq	r7, r0
    1128:	50030552 	andpl	r0, r3, r2, asr r5
    112c:	170000a8 	strne	r0, [r0, -r8, lsr #1]
    1130:	0a035301 	beq	d5d3c <__bss_end__+0xcad2c>
    1134:	18000134 	stmdane	r0, {r2, r4, r5, r8}
    1138:	00008c7c 	andeq	r8, r0, ip, ror ip
    113c:	00000e57 	andeq	r0, r0, r7, asr lr
    1140:	00cc1000 	sbceq	r1, ip, r0
    1144:	02aa0000 	adceq	r0, sl, #0, 0
    1148:	2c110000 	ldccs	0, cr0, [r1], {-0}
    114c:	0e000000 	cdpeq	0, 0, cr0, cr0, cr0, {0}
    1150:	029a0900 	addseq	r0, sl, #0, 18
    1154:	d3190000 	tstle	r9, #0, 0
    1158:	01000003 	tsteq	r0, r3
    115c:	2c0a0128 	stfcss	f0, [sl], {40}	; 0x28
    1160:	50000000 	andpl	r0, r0, r0
    1164:	1000008c 	andne	r0, r0, ip, lsl #1
    1168:	01000000 	mrseq	r0, (UNDEF: 0)
    116c:	0002f29c 	muleq	r2, ip, r2
    1170:	02e91a00 	rsceq	r1, r9, #0, 20
    1174:	2b010000 	blcs	4117c <__bss_end__+0x3616c>
    1178:	002c0e01 	eoreq	r0, ip, r1, lsl #28
    117c:	06340000 	ldrteq	r0, [r4], -r0
    1180:	06320000 	ldrteq	r0, [r2], -r0
    1184:	58180000 	ldmdapl	r8, {}	; <UNPREDICTABLE>
    1188:	3d00008c 	stccc	0, cr0, [r0, #-560]	; 0xfffffdd0
    118c:	18000009 	stmdane	r0, {r0, r3}
    1190:	00008c5c 	andeq	r8, r0, ip, asr ip
    1194:	000002f2 	strdeq	r0, [r0], -r2
    1198:	055e1b00 	ldrbeq	r1, [lr, #-2816]	; 0xfffff500
    119c:	10010000 	andne	r0, r1, r0
    11a0:	002c1101 	eoreq	r1, ip, r1, lsl #2
    11a4:	89300000 	ldmdbhi	r0!, {}	; <UNPREDICTABLE>
    11a8:	00dc0000 	sbcseq	r0, ip, r0
    11ac:	9c010000 	stcls	0, cr0, [r1], {-0}
    11b0:	00000461 	andeq	r0, r0, r1, ror #8
    11b4:	0003891a 	andeq	r8, r3, sl, lsl r9
    11b8:	01120100 	tsteq	r2, r0, lsl #2
    11bc:	00002c0e 	andeq	r2, r0, lr, lsl #24
    11c0:	00064b00 	andeq	r4, r6, r0, lsl #22
    11c4:	00064700 	andeq	r4, r6, r0, lsl #14
    11c8:	041e1a00 	ldreq	r1, [lr], #-2560	; 0xfffff600
    11cc:	12010000 	andne	r0, r1, #0, 0
    11d0:	002c1b01 	eoreq	r1, ip, r1, lsl #22
    11d4:	066e0000 	strbteq	r0, [lr], -r0
    11d8:	066a0000 	strbteq	r0, [sl], -r0
    11dc:	981a0000 	ldmdals	sl, {}	; <UNPREDICTABLE>
    11e0:	01000003 	tsteq	r0, r3
    11e4:	2c270112 	stfcss	f0, [r7], #-72	; 0xffffffb8
    11e8:	93000000 	movwls	r0, #0
    11ec:	8d000006 	stchi	0, cr0, [r0, #-24]	; 0xffffffe8
    11f0:	15000006 	strne	r0, [r0, #-6]
    11f4:	000000d4 	ldrdeq	r0, [r0], -r4
    11f8:	00000471 	andeq	r0, r0, r1, ror r4
    11fc:	a8180305 	ldmdage	r8, {r0, r2, r8, r9}
    1200:	b81c0000 	ldmdalt	ip, {}	; <UNPREDICTABLE>
    1204:	04000000 	streq	r0, [r0], #-0
    1208:	1d000004 	stcne	0, cr0, [r0, #-16]
    120c:	17010068 	strne	r0, [r1, -r8, rrx]
    1210:	04761101 	ldrbteq	r1, [r6], #-257	; 0xfffffeff
    1214:	06c50000 	strbeq	r0, [r5], r0
    1218:	06bd0000 	ldrteq	r0, [sp], r0
    121c:	151e0000 	ldrne	r0, [lr, #-0]
    1220:	7400000e 	strvc	r0, [r0], #-14
    1224:	00000089 	andeq	r0, r0, r9, lsl #1
    1228:	00008974 	andeq	r8, r0, r4, ror r9
    122c:	00000018 	andeq	r0, r0, r8, lsl r0
    1230:	0d011e01 	stceq	14, cr1, [r1, #-4]
    1234:	000003b9 			; <UNDEFINED> instruction: 0x000003b9
    1238:	000e3e1f 	andeq	r3, lr, pc, lsl lr
    123c:	0006fb00 	andeq	pc, r6, r0, lsl #22
    1240:	0006f900 	andeq	pc, r6, r0, lsl #18
    1244:	0e321f00 	cdpeq	15, 3, cr1, cr2, cr0, {0}
    1248:	07130000 	ldreq	r0, [r3, -r0]
    124c:	07110000 	ldreq	r0, [r1, -r0]
    1250:	261f0000 	ldrcs	r0, [pc], -r0
    1254:	2d00000e 	stccs	0, cr0, [r0, #-56]	; 0xffffffc8
    1258:	2b000007 	blcs	127c <__code_start__-0x6d84>
    125c:	00000007 	andeq	r0, r0, r7
    1260:	00895018 	addeq	r5, r9, r8, lsl r0
    1264:	000e7200 	andeq	r7, lr, r0, lsl #4
    1268:	899c1600 	ldmibhi	ip, {r9, sl, ip}
    126c:	0e7e0000 	cdpeq	0, 7, cr0, cr14, cr0, {0}
    1270:	03d60000 	bicseq	r0, r6, #0, 0
    1274:	01170000 	tsteq	r7, r0
    1278:	00760250 	rsbseq	r0, r6, r0, asr r2
    127c:	89a81600 	stmibhi	r8!, {r9, sl, ip}
    1280:	0e4b0000 	cdpeq	0, 4, cr0, cr11, cr0, {0}
    1284:	03f30000 	mvnseq	r0, #0, 0
    1288:	01170000 	tsteq	r7, r0
    128c:	8c030550 	cfstr32hi	mvfx0, [r3], {80}	; 0x50
    1290:	170000a6 	strne	r0, [r0, -r6, lsr #1]
    1294:	76025101 	strvc	r5, [r2], -r1, lsl #2
    1298:	b0200000 	eorlt	r0, r0, r0
    129c:	8a000089 	bhi	14c8 <__code_start__-0x6b38>
    12a0:	1700000e 	strne	r0, [r0, -lr]
    12a4:	74025001 	strvc	r5, [r2], #-1
    12a8:	16000000 	strne	r0, [r0], -r0
    12ac:	00008940 	andeq	r8, r0, r0, asr #18
    12b0:	00000e4b 	andeq	r0, r0, fp, asr #28
    12b4:	0000041b 	andeq	r0, r0, fp, lsl r4
    12b8:	05500117 	ldrbeq	r0, [r0, #-279]	; 0xfffffee9
    12bc:	00a54803 	adceq	r4, r5, r3, lsl #16
    12c0:	48160000 	ldmdami	r6, {}	; <UNPREDICTABLE>
    12c4:	4b000089 	blmi	14f0 <__code_start__-0x6b10>
    12c8:	3200000e 	andcc	r0, r0, #14, 0
    12cc:	17000004 	strne	r0, [r0, -r4]
    12d0:	03055001 	movweq	r5, #20481	; 0x5001
    12d4:	0000a67c 	andeq	sl, r0, ip, ror r6
    12d8:	894c1800 	stmdbhi	ip, {fp, ip}^
    12dc:	093d0000 	ldmdbeq	sp!, {}	; <UNPREDICTABLE>
    12e0:	e4200000 	strt	r0, [r0], #-0
    12e4:	4b000089 	blmi	1510 <__code_start__-0x6af0>
    12e8:	1700000e 	strne	r0, [r0, -lr]
    12ec:	03055001 	movweq	r5, #20481	; 0x5001
    12f0:	0000a69c 	muleq	r0, ip, r6
    12f4:	02510117 	subseq	r0, r1, #-1073741819	; 0xc0000005
    12f8:	01170075 	tsteq	r7, r5, ror r0
    12fc:	00780252 	rsbseq	r0, r8, r2, asr r2
    1300:	02530117 	subseq	r0, r3, #-1073741819	; 0xc0000005
    1304:	00000077 	andeq	r0, r0, r7, ror r0
    1308:	0000cc10 	andeq	ip, r0, r0, lsl ip
    130c:	00047100 	andeq	r7, r4, r0, lsl #2
    1310:	002c1100 	eoreq	r1, ip, r0, lsl #2
    1314:	000a0000 	andeq	r0, sl, r0
    1318:	00046109 	andeq	r6, r4, r9, lsl #2
    131c:	fc040800 	stc2	8, cr0, [r4], {-0}
    1320:	19000001 	stmdbne	r0, {r0}
    1324:	0000043b 	andeq	r0, r0, fp, lsr r4
    1328:	0a010001 	beq	41334 <__bss_end__+0x36324>
    132c:	0000002c 	andeq	r0, r0, ip, lsr #32
    1330:	00008c00 	andeq	r8, r0, r0, lsl #24
    1334:	00000050 	andeq	r0, r0, r0, asr r0
    1338:	05259c01 	streq	r9, [r5, #-3073]!	; 0xfffff3ff
    133c:	f01a0000 			; <UNDEFINED> instruction: 0xf01a0000
    1340:	01000003 	tsteq	r0, r3
    1344:	2c0e0106 	stfcss	f0, [lr], {6}
    1348:	4b000000 	blmi	1350 <__code_start__-0x6cb0>
    134c:	45000007 	strmi	r0, [r0, #-7]
    1350:	15000007 	strne	r0, [r0, #-7]
    1354:	000000d4 	ldrdeq	r0, [r0], -r4
    1358:	00000535 	andeq	r0, r0, r5, lsr r5
    135c:	a83c0305 	ldmdage	ip!, {r0, r2, r8, r9}
    1360:	0c160000 	ldceq	0, cr0, [r6], {-0}
    1364:	d700008c 	strle	r0, [r0, -ip, lsl #1]
    1368:	ce000005 	cdpgt	0, 0, cr0, cr0, cr5, {0}
    136c:	17000004 	strne	r0, [r0, -r4]
    1370:	31015001 	tstcc	r1, r1
    1374:	8c201600 	stchi	6, cr1, [r0], #-0
    1378:	0e4b0000 	cdpeq	0, 4, cr0, cr11, cr0, {0}
    137c:	04eb0000 	strbteq	r0, [fp], #0
    1380:	01170000 	tsteq	r7, r0
    1384:	bc030550 	cfstr32lt	mvfx0, [r3], {80}	; 0x50
    1388:	170000a7 	strne	r0, [r0, -r7, lsr #1]
    138c:	74025101 	strvc	r5, [r2], #-257	; 0xfffffeff
    1390:	3c160000 	ldccc	0, cr0, [r6], {-0}
    1394:	4b00008c 	blmi	15cc <__code_start__-0x6a34>
    1398:	1b00000e 	blne	13d8 <__code_start__-0x6c28>
    139c:	17000005 	strne	r0, [r0, -r5]
    13a0:	03055001 	movweq	r5, #20481	; 0x5001
    13a4:	0000a794 	muleq	r0, r4, r7
    13a8:	05510117 	ldrbeq	r0, [r1, #-279]	; 0xfffffee9
    13ac:	00a4b003 	adceq	fp, r4, r3
    13b0:	52011700 	andpl	r1, r1, #0, 14
    13b4:	a83c0305 	ldmdage	ip!, {r0, r2, r8, r9}
    13b8:	01170000 	tsteq	r7, r0
    13bc:	080a0353 	stmdaeq	sl, {r0, r1, r4, r6, r8, r9}
    13c0:	40180001 	andsmi	r0, r8, r1
    13c4:	5700008c 	strpl	r0, [r0, -ip, lsl #1]
    13c8:	0000000e 	andeq	r0, r0, lr
    13cc:	0000cc10 	andeq	ip, r0, r0, lsl ip
    13d0:	00053500 	andeq	r3, r5, r0, lsl #10
    13d4:	002c1100 	eoreq	r1, ip, r0, lsl #2
    13d8:	00110000 	andseq	r0, r1, r0
    13dc:	00052509 	andeq	r2, r5, r9, lsl #10
    13e0:	04102100 	ldreq	r2, [r0], #-256	; 0xffffff00
    13e4:	f2010000 	vhadd.s8	d0, d1, d0
    13e8:	008bb806 	addeq	fp, fp, r6, lsl #16
    13ec:	00004800 	andeq	r4, r0, r0, lsl #16
    13f0:	c29c0100 	addsgt	r0, ip, #0
    13f4:	15000005 	strne	r0, [r0, #-5]
    13f8:	000000d4 	ldrdeq	r0, [r0], -r4
    13fc:	000005d2 	ldrdeq	r0, [r0], -r2
    1400:	a82c0305 	stmdage	ip!, {r0, r2, r8, r9}
    1404:	c4160000 	ldrgt	r0, [r6], #-0
    1408:	d700008b 	strle	r0, [r0, -fp, lsl #1]
    140c:	72000005 	andvc	r0, r0, #5, 0
    1410:	17000005 	strne	r0, [r0, -r5]
    1414:	31015001 	tstcc	r1, r1
    1418:	8bd41600 	blhi	ff506c20 <__bss_end__+0xff4fbc10>
    141c:	0e4b0000 	cdpeq	0, 4, cr0, cr11, cr0, {0}
    1420:	05890000 	streq	r0, [r9]
    1424:	01170000 	tsteq	r7, r0
    1428:	74030550 	strvc	r0, [r3], #-1360	; 0xfffffab0
    142c:	000000a7 	andeq	r0, r0, r7, lsr #1
    1430:	008bec16 	addeq	lr, fp, r6, lsl ip
    1434:	000e4b00 	andeq	r4, lr, r0, lsl #22
    1438:	0005b800 	andeq	fp, r5, r0, lsl #16
    143c:	50011700 	andpl	r1, r1, r0, lsl #14
    1440:	a7480305 	strbge	r0, [r8, -r5, lsl #6]
    1444:	01170000 	tsteq	r7, r0
    1448:	b0030551 	andlt	r0, r3, r1, asr r5
    144c:	170000a4 	strne	r0, [r0, -r4, lsr #1]
    1450:	03055201 	movweq	r5, #20993	; 0x5201
    1454:	0000a82c 	andeq	sl, r0, ip, lsr #16
    1458:	02530117 	subseq	r0, r3, #-1073741819	; 0xc0000005
    145c:	1800f908 	stmdane	r0, {r3, r8, fp, ip, sp, lr, pc}
    1460:	00008bf0 	strdeq	r8, [r0], -r0
    1464:	00000e57 	andeq	r0, r0, r7, asr lr
    1468:	00cc1000 	sbceq	r1, ip, r0
    146c:	05d20000 	ldrbeq	r0, [r2]
    1470:	2c110000 	ldccs	0, cr0, [r1], {-0}
    1474:	0d000000 	stceq	0, cr0, [r0, #-0]
    1478:	05c20900 	strbeq	r0, [r2, #2304]	; 0x900
    147c:	b8220000 	stmdalt	r2!, {}	; <UNPREDICTABLE>
    1480:	01000003 	tsteq	r0, r3
    1484:	002c0aeb 	eoreq	r0, ip, fp, ror #21
    1488:	8bac0000 	blhi	feb01490 <__bss_end__+0xfeaf6480>
    148c:	000c0000 	andeq	r0, ip, r0
    1490:	9c010000 	stcls	0, cr0, [r1], {-0}
    1494:	00000617 	andeq	r0, r0, r7, lsl r6
    1498:	00056923 	andeq	r6, r5, r3, lsr #18
    149c:	1ceb0100 	stfnee	f0, [fp]
    14a0:	00000025 	andeq	r0, r0, r5, lsr #32
    14a4:	00000778 	andeq	r0, r0, r8, ror r7
    14a8:	00000774 	andeq	r0, r0, r4, ror r7
    14ac:	008bb420 	addeq	fp, fp, r0, lsr #8
    14b0:	00061700 	andeq	r1, r6, r0, lsl #14
    14b4:	50011700 	andpl	r1, r1, r0, lsl #14
    14b8:	5001f303 	andpl	pc, r1, r3, lsl #6
    14bc:	44240000 	strtmi	r0, [r4], #-0
    14c0:	01000005 	tsteq	r0, r5
    14c4:	002c11c2 	eoreq	r1, ip, r2, asr #3
    14c8:	883c0000 	ldmdahi	ip!, {}	; <UNPREDICTABLE>
    14cc:	00f40000 	rscseq	r0, r4, r0
    14d0:	9c010000 	stcls	0, cr0, [r1], {-0}
    14d4:	0000079e 	muleq	r0, lr, r7
    14d8:	00056923 	andeq	r6, r5, r3, lsr #18
    14dc:	20c20100 	sbccs	r0, r2, r0, lsl #2
    14e0:	00000025 	andeq	r0, r0, r5, lsr #32
    14e4:	0000079d 	muleq	r0, sp, r7
    14e8:	00000799 	muleq	r0, r9, r7
    14ec:	00038925 	andeq	r8, r3, r5, lsr #18
    14f0:	0ec40100 	poleqs	f0, f4, f0
    14f4:	0000002c 	andeq	r0, r0, ip, lsr #32
    14f8:	000007bf 			; <UNDEFINED> instruction: 0x000007bf
    14fc:	000007bb 			; <UNDEFINED> instruction: 0x000007bb
    1500:	0003cc25 	andeq	ip, r3, r5, lsr #24
    1504:	1bc40100 	blne	ff10190c <__bss_end__+0xff0f68fc>
    1508:	0000002c 	andeq	r0, r0, ip, lsr #32
    150c:	000007e4 	andeq	r0, r0, r4, ror #15
    1510:	000007de 	ldrdeq	r0, [r0], -lr
    1514:	0003c625 	andeq	ip, r3, r5, lsr #12
    1518:	27c40100 	strbcs	r0, [r4, r0, lsl #2]
    151c:	0000002c 	andeq	r0, r0, ip, lsr #32
    1520:	00000812 	andeq	r0, r0, r2, lsl r8
    1524:	0000080e 	andeq	r0, r0, lr, lsl #16
    1528:	0000a01c 	andeq	sl, r0, ip, lsl r0
    152c:	0006fc00 	andeq	pc, r6, r0, lsl #24
    1530:	00682600 	rsbeq	r2, r8, r0, lsl #12
    1534:	7611c901 	ldrvc	ip, [r1], -r1, lsl #18
    1538:	3f000004 	svccc	0x00000004
    153c:	31000008 	tstcc	r0, r8
    1540:	18000008 	stmdane	r0, {r3}
    1544:	0000885c 	andeq	r8, r0, ip, asr r8
    1548:	00000e72 	andeq	r0, r0, r2, ror lr
    154c:	00888416 	addeq	r8, r8, r6, lsl r4
    1550:	000e4b00 	andeq	r4, lr, r0, lsl #22
    1554:	0006c800 	andeq	ip, r6, r0, lsl #16
    1558:	50011700 	andpl	r1, r1, r0, lsl #14
    155c:	a59c0305 	ldrge	r0, [ip, #773]	; 0x305
    1560:	01170000 	tsteq	r7, r0
    1564:	00750251 	rsbseq	r0, r5, r1, asr r2
    1568:	02520117 	subseq	r0, r2, #-1073741819	; 0xc0000005
    156c:	16000074 			; <UNDEFINED> instruction: 0x16000074
    1570:	0000888c 	andeq	r8, r0, ip, lsl #17
    1574:	00000e8a 	andeq	r0, r0, sl, lsl #29
    1578:	000006dc 	ldrdeq	r0, [r0], -ip
    157c:	02500117 	subseq	r0, r0, #-1073741819	; 0xc0000005
    1580:	20000074 	andcs	r0, r0, r4, ror r0
    1584:	000088c4 	andeq	r8, r0, r4, asr #17
    1588:	00000e4b 	andeq	r0, r0, fp, asr #28
    158c:	05500117 	ldrbeq	r0, [r0, #-279]	; 0xfffffee9
    1590:	00a5b003 	adceq	fp, r5, r3
    1594:	51011700 	tstpl	r1, r0, lsl #14
    1598:	17007502 	strne	r7, [r0, -r2, lsl #10]
    159c:	74025201 	strvc	r5, [r2], #-513	; 0xfffffdff
    15a0:	16000000 	strne	r0, [r0], -r0
    15a4:	0000884c 	andeq	r8, r0, ip, asr #16
    15a8:	00000e4b 	andeq	r0, r0, fp, asr #28
    15ac:	00000713 	andeq	r0, r0, r3, lsl r7
    15b0:	05500117 	ldrbeq	r0, [r0, #-279]	; 0xfffffee9
    15b4:	00a54803 	adceq	r4, r5, r3, lsl #16
    15b8:	54160000 	ldrpl	r0, [r6], #-0
    15bc:	4b000088 	blmi	17e4 <__code_start__-0x681c>
    15c0:	2a00000e 	bcs	1600 <__code_start__-0x6a00>
    15c4:	17000007 	strne	r0, [r0, -r7]
    15c8:	03055001 	movweq	r5, #20481	; 0x5001
    15cc:	0000a584 	andeq	sl, r0, r4, lsl #11
    15d0:	88581800 	ldmdahi	r8, {fp, ip}^
    15d4:	093d0000 	ldmdbeq	sp!, {}	; <UNPREDICTABLE>
    15d8:	d4160000 	ldrle	r0, [r6], #-0
    15dc:	4b000088 	blmi	1804 <__code_start__-0x67fc>
    15e0:	5000000e 	andpl	r0, r0, lr
    15e4:	17000007 	strne	r0, [r0, -r7]
    15e8:	03055001 	movweq	r5, #20481	; 0x5001
    15ec:	0000a5c8 	andeq	sl, r0, r8, asr #11
    15f0:	02510117 	subseq	r0, r1, #-1073741819	; 0xc0000005
    15f4:	16000075 			; <UNDEFINED> instruction: 0x16000075
    15f8:	000088e4 	andeq	r8, r0, r4, ror #17
    15fc:	00000e4b 	andeq	r0, r0, fp, asr #28
    1600:	00000767 	andeq	r0, r0, r7, ror #14
    1604:	05500117 	ldrbeq	r0, [r0, #-279]	; 0xfffffee9
    1608:	00a5e803 	adceq	lr, r5, r3, lsl #16
    160c:	ec160000 	ldc	0, cr0, [r6], {-0}
    1610:	4b000088 	blmi	1838 <__code_start__-0x67c8>
    1614:	7e00000e 	cdpvc	0, 0, cr0, cr0, cr14, {0}
    1618:	17000007 	strne	r0, [r0, -r7]
    161c:	03055001 	movweq	r5, #20481	; 0x5001
    1620:	0000a640 	andeq	sl, r0, r0, asr #12
    1624:	890c2000 	stmdbhi	ip, {sp}
    1628:	0e4b0000 	cdpeq	0, 4, cr0, cr11, cr0, {0}
    162c:	01170000 	tsteq	r7, r0
    1630:	10030550 	andne	r0, r3, r0, asr r5
    1634:	170000a6 	strne	r0, [r0, -r6, lsr #1]
    1638:	76025101 	strvc	r5, [r2], -r1, lsl #2
    163c:	52011700 	andpl	r1, r1, #0, 14
    1640:	00007702 	andeq	r7, r0, r2, lsl #14
    1644:	002f2200 	eoreq	r2, pc, r0, lsl #4
    1648:	ac010000 	stcge	0, cr0, [r1], {-0}
    164c:	00002505 	andeq	r2, r0, r5, lsl #10
    1650:	008ae000 	addeq	lr, sl, r0
    1654:	0000cc00 	andeq	ip, r0, r0, lsl #24
    1658:	ce9c0100 	fmlgte	f0, f4, f0
    165c:	25000008 	strcs	r0, [r0, #-8]
    1660:	000003cc 	andeq	r0, r0, ip, asr #7
    1664:	2509ad01 	strcs	sl, [r9, #-3329]	; 0xfffff2ff
    1668:	98000000 	stmdals	r0, {}	; <UNPREDICTABLE>
    166c:	94000008 	strls	r0, [r0], #-8
    1670:	27000008 	strcs	r0, [r0, -r8]
    1674:	000000e8 	andeq	r0, r0, r8, ror #1
    1678:	01006826 	tsteq	r0, r6, lsr #16
    167c:	047611ae 	ldrbteq	r1, [r6], #-430	; 0xfffffe52
    1680:	08c30000 	stmiaeq	r3, {}^	; <UNPREDICTABLE>
    1684:	08b70000 	ldmeq	r7!, {}	; <UNPREDICTABLE>
    1688:	001c0000 	andseq	r0, ip, r0
    168c:	b3000001 	movwlt	r0, #1
    1690:	25000008 	strcs	r0, [r0, #-8]
    1694:	000003f7 	strdeq	r0, [r0], -r7
    1698:	250daf01 	strcs	sl, [sp, #-3841]	; 0xfffff0ff
    169c:	15000000 	strne	r0, [r0, #-0]
    16a0:	0d000009 	stceq	0, cr0, [r0, #-36]	; 0xffffffdc
    16a4:	1c000009 	stcne	0, cr0, [r0], {9}
    16a8:	00000118 	andeq	r0, r0, r8, lsl r1
    16ac:	0000085a 	andeq	r0, r0, sl, asr r8
    16b0:	01006526 	tsteq	r0, r6, lsr #10
    16b4:	002511b4 	strhteq	r1, [r5], -r4
    16b8:	094e0000 	stmdbeq	lr, {}^	; <UNPREDICTABLE>
    16bc:	094a0000 	stmdbeq	sl, {}^	; <UNPREDICTABLE>
    16c0:	08160000 	ldmdaeq	r6, {}	; <UNPREDICTABLE>
    16c4:	4b00008b 	blmi	18f8 <__code_start__-0x6708>
    16c8:	3200000e 	andcc	r0, r0, #14, 0
    16cc:	17000008 	strne	r0, [r0, -r8]
    16d0:	03055001 	movweq	r5, #20481	; 0x5001
    16d4:	0000a39c 	muleq	r0, ip, r3
    16d8:	8b101600 	blhi	406ee0 <__bss_end__+0x3fbed0>
    16dc:	0e4b0000 	cdpeq	0, 4, cr0, cr11, cr0, {0}
    16e0:	08490000 	stmdaeq	r9, {}^	; <UNPREDICTABLE>
    16e4:	01170000 	tsteq	r7, r0
    16e8:	30030550 	andcc	r0, r3, r0, asr r5
    16ec:	000000a7 	andeq	r0, r0, r7, lsr #1
    16f0:	008b8820 	addeq	r8, fp, r0, lsr #16
    16f4:	0008ce00 	andeq	ip, r8, r0, lsl #28
    16f8:	50011700 	andpl	r1, r1, r0, lsl #14
    16fc:	00007702 	andeq	r7, r0, r2, lsl #14
    1700:	8b341600 	blhi	d06f08 <__bss_end__+0xcfbef8>
    1704:	08ce0000 	stmiaeq	lr, {}^	; <UNPREDICTABLE>
    1708:	08740000 	ldmdaeq	r4!, {}^	; <UNPREDICTABLE>
    170c:	01170000 	tsteq	r7, r0
    1710:	32740250 	rsbscc	r0, r4, #80, 4
    1714:	02510117 	subseq	r0, r1, #-1073741819	; 0xc0000005
    1718:	16008008 	strne	r8, [r0], -r8
    171c:	00008b50 	andeq	r8, r0, r0, asr fp
    1720:	000008ce 	andeq	r0, r0, lr, asr #17
    1724:	00000888 	andeq	r0, r0, r8, lsl #17
    1728:	02510117 	subseq	r0, r1, #-1073741819	; 0xc0000005
    172c:	16008008 	strne	r8, [r0], -r8
    1730:	00008b68 	andeq	r8, r0, r8, ror #22
    1734:	00000e4b 	andeq	r0, r0, fp, asr #28
    1738:	0000089f 	muleq	r0, pc, r8	; <UNPREDICTABLE>
    173c:	05500117 	ldrbeq	r0, [r0, #-279]	; 0xfffffee9
    1740:	00a39c03 	adceq	r9, r3, r3, lsl #24
    1744:	70200000 	eorvc	r0, r0, r0
    1748:	4b00008b 	blmi	197c <__code_start__-0x6684>
    174c:	1700000e 	strne	r0, [r0, -lr]
    1750:	03055001 	movweq	r5, #20481	; 0x5001
    1754:	0000a700 	andeq	sl, r0, r0, lsl #14
    1758:	e8180000 	ldmda	r8, {}	; <UNPREDICTABLE>
    175c:	7200008a 	andvc	r0, r0, #138, 0	; 0x8a
    1760:	2000000e 	andcs	r0, r0, lr
    1764:	00008b1c 	andeq	r8, r0, ip, lsl fp
    1768:	00000e8a 	andeq	r0, r0, sl, lsl #29
    176c:	02500117 	subseq	r0, r0, #-1073741819	; 0xc0000005
    1770:	00000074 	andeq	r0, r0, r4, ror r0
    1774:	050e2200 	streq	r2, [lr, #-512]	; 0xfffffe00
    1778:	a2010000 	andge	r0, r1, #0, 0
    177c:	00002c0e 	andeq	r2, r0, lr, lsl #24
    1780:	008ab000 	addeq	fp, sl, r0
    1784:	00003000 	andeq	r3, r0, r0
    1788:	379c0100 	ldrcc	r0, [ip, r0, lsl #2]
    178c:	23000009 	movwcs	r0, #9
    1790:	0000051d 	andeq	r0, r0, sp, lsl r5
    1794:	3723a201 	strcc	sl, [r3, -r1, lsl #4]!
    1798:	70000009 	andvc	r0, r0, r9
    179c:	6c000009 	stcvs	0, cr0, [r0], {9}
    17a0:	28000009 	stmdacs	r0, {r0, r3}
    17a4:	000002e9 	andeq	r0, r0, r9, ror #5
    17a8:	2530a201 	ldrcs	sl, [r0, #-513]!	; 0xfffffdff
    17ac:	01000000 	mrseq	r0, (UNDEF: 0)
    17b0:	057d2551 	ldrbeq	r2, [sp, #-1361]!	; 0xfffffaaf
    17b4:	a3010000 	movwge	r0, #4096	; 0x1000
    17b8:	00002509 	andeq	r2, r0, r9, lsl #10
    17bc:	00099200 	andeq	r9, r9, r0, lsl #4
    17c0:	00098e00 	andeq	r8, r9, r0, lsl #28
    17c4:	00d02700 	sbcseq	r2, r0, r0, lsl #14
    17c8:	69260000 	stmdbvs	r6!, {}	; <UNPREDICTABLE>
    17cc:	0ea40100 	fdveqs	f0, f4, f0
    17d0:	00000025 	andeq	r0, r0, r5, lsr #32
    17d4:	000009b5 			; <UNDEFINED> instruction: 0x000009b5
    17d8:	000009b1 			; <UNDEFINED> instruction: 0x000009b1
    17dc:	04080000 	streq	r0, [r8], #-0
    17e0:	000000c5 	andeq	r0, r0, r5, asr #1
    17e4:	00036329 	andeq	r6, r3, r9, lsr #6
    17e8:	0d790100 	ldfeqe	f0, [r9, #-0]
    17ec:	00008798 	muleq	r0, r8, r7
    17f0:	000000a4 	andeq	r0, r0, r4, lsr #1
    17f4:	0a499c01 	beq	1268800 <__bss_end__+0x125d7f0>
    17f8:	eb130000 	bl	4c1800 <__bss_end__+0x4b67f0>
    17fc:	01000003 	tsteq	r0, r3
    1800:	0a490e85 	beq	124521c <__bss_end__+0x123a20c>
    1804:	91030000 	mrsls	r0, (UNDEF: 3)
    1808:	592a7fb8 	stmdbpl	sl!, {r3, r4, r5, r7, r8, r9, sl, fp, ip, sp, lr}
    180c:	01000003 	tsteq	r0, r3
    1810:	0a590f96 	beq	1645670 <__bss_end__+0x163a660>
    1814:	00000000 	andeq	r0, r0, r0
    1818:	7b070800 	blvc	1c3820 <__bss_end__+0x1b8810>
    181c:	01000003 	tsteq	r0, r3
    1820:	0075159b 			; <UNDEFINED> instruction: 0x0075159b
    1824:	02070000 	andeq	r0, r7, #0, 0
    1828:	01000005 	tsteq	r0, r5
    182c:	0075249b 			; <UNDEFINED> instruction: 0x0075249b
    1830:	4f070000 	svcmi	0x00070000
    1834:	01000005 	tsteq	r0, r5
    1838:	0075159e 			; <UNDEFINED> instruction: 0x0075159e
    183c:	d9070000 	stmdble	r7, {}	; <UNPREDICTABLE>
    1840:	01000003 	tsteq	r0, r3
    1844:	0075259e 			; <UNDEFINED> instruction: 0x0075259e
    1848:	a02b0000 	eorge	r0, fp, r0
    184c:	24000087 	strcs	r0, [r0], #-135	; 0xffffff79
    1850:	d5000000 	strle	r0, [r0, #-0]
    1854:	26000009 	strcs	r0, [r0], -r9
    1858:	7e010068 	cdpvc	0, 0, cr0, cr1, cr8, {3}
    185c:	00047611 	andeq	r7, r4, r1, lsl r6
    1860:	0009d800 	andeq	sp, r9, r0, lsl #16
    1864:	0009d400 	andeq	sp, r9, r0, lsl #8
    1868:	87a41800 	strhi	r1, [r4, r0, lsl #16]!
    186c:	0e720000 	cdpeq	0, 7, cr0, cr2, cr0, {0}
    1870:	c0180000 	andsgt	r0, r8, r0
    1874:	8a000087 	bhi	1a98 <__code_start__-0x6568>
    1878:	0000000e 	andeq	r0, r0, lr
    187c:	0087cc16 	addeq	ip, r7, r6, lsl ip
    1880:	000e9600 	andeq	r9, lr, r0, lsl #12
    1884:	0009e900 	andeq	lr, r9, r0, lsl #18
    1888:	50011700 	andpl	r1, r1, r0, lsl #14
    188c:	00007d02 	andeq	r7, r0, r2, lsl #26
    1890:	0087ec16 	addeq	lr, r7, r6, lsl ip
    1894:	000a5f00 	andeq	r5, sl, r0, lsl #30
    1898:	000a0300 	andeq	r0, sl, r0, lsl #6
    189c:	50011700 	andpl	r1, r1, r0, lsl #14
    18a0:	17007d02 	strne	r7, [r0, -r2, lsl #26]
    18a4:	91025101 	tstls	r2, r1, lsl #2
    18a8:	fc160068 	ldc2	0, cr0, [r6], {104}	; 0x68
    18ac:	4b000087 	blmi	1ad0 <__code_start__-0x6530>
    18b0:	2100000e 	tstcs	r0, lr
    18b4:	1700000a 	strne	r0, [r0, -sl]
    18b8:	03055001 	movweq	r5, #20481	; 0x5001
    18bc:	0000a52c 	andeq	sl, r0, ip, lsr #10
    18c0:	03520117 	cmpeq	r2, #-1073741819	; 0xc0000005
    18c4:	00244740 	eoreq	r4, r4, r0, asr #14
    18c8:	00880816 	addeq	r0, r8, r6, lsl r8
    18cc:	000a5f00 	andeq	r5, sl, r0, lsl #30
    18d0:	000a3600 	andeq	r3, sl, r0, lsl #12
    18d4:	51011700 	tstpl	r1, r0, lsl #14
    18d8:	24474003 	strbcs	r4, [r7], #-3
    18dc:	88141800 	ldmdahi	r4, {fp, ip}
    18e0:	0a5f0000 	beq	17c18e8 <__bss_end__+0x17b68d8>
    18e4:	20180000 	andscs	r0, r8, r0
    18e8:	5f000088 	svcpl	0x00000088
    18ec:	0000000a 	andeq	r0, r0, sl
    18f0:	00007510 	andeq	r7, r0, r0, lsl r5
    18f4:	000a5900 	andeq	r5, sl, r0, lsl #18
    18f8:	002c1100 	eoreq	r1, ip, r0, lsl #2
    18fc:	000f0000 	andeq	r0, pc, r0
    1900:	00750408 	rsbseq	r0, r5, r8, lsl #8
    1904:	a9290000 	stmdbge	r9!, {}	; <UNPREDICTABLE>
    1908:	01000003 	tsteq	r0, r3
    190c:	86300d50 			; <UNDEFINED> instruction: 0x86300d50
    1910:	01680000 	cmneq	r8, r0
    1914:	9c010000 	stcls	0, cr0, [r1], {-0}
    1918:	00000c58 	andeq	r0, r0, r8, asr ip
    191c:	0100702c 	tsteq	r0, ip, lsr #32
    1920:	0a591c50 	beq	1648a68 <__bss_end__+0x163da58>
    1924:	0a040000 	beq	10192c <__bss_end__+0xf691c>
    1928:	09f60000 	ldmibeq	r6!, {}^	; <UNPREDICTABLE>
    192c:	652c0000 	strvs	r0, [ip, #-0]!
    1930:	29500100 	ldmdbcs	r0, {r8}^
    1934:	00000a59 	andeq	r0, r0, r9, asr sl
    1938:	00000a6d 	andeq	r0, r0, sp, ror #20
    193c:	00000a5f 	andeq	r0, r0, pc, asr sl
    1940:	0000d415 	andeq	sp, r0, r5, lsl r4
    1944:	000c6800 	andeq	r6, ip, r0, lsl #16
    1948:	10030500 	andne	r0, r3, r0, lsl #10
    194c:	2b0000a8 	blcs	1bf4 <__code_start__-0x640c>
    1950:	000086b8 			; <UNDEFINED> instruction: 0x000086b8
    1954:	000000b4 	strheq	r0, [r0], -r4
    1958:	00000b91 	muleq	r0, r1, fp
    195c:	01006926 	tsteq	r0, r6, lsr #18
    1960:	0a591458 	beq	1646ac8 <__bss_end__+0x163bab8>
    1964:	0aca0000 	beq	ff28196c <__bss_end__+0xff27695c>
    1968:	0ac80000 	beq	ff201970 <__bss_end__+0xff1f6960>
    196c:	70270000 	eorvc	r0, r7, r0
    1970:	26000000 	strcs	r0, [r0], -r0
    1974:	5a010062 	bpl	41b04 <__bss_end__+0x36af4>
    1978:	00047610 	andeq	r7, r4, r0, lsl r6
    197c:	000ae300 	andeq	lr, sl, r0, lsl #6
    1980:	000add00 	andeq	sp, sl, r0, lsl #26
    1984:	00881c00 	addeq	r1, r8, r0, lsl #24
    1988:	0b860000 	bleq	fe181990 <__bss_end__+0xfe176980>
    198c:	65260000 	strvs	r0, [r6, #-0]!
    1990:	01007078 	tsteq	r0, r8, ror r0
    1994:	0075165d 	rsbseq	r1, r5, sp, asr r6
    1998:	0b100000 	bleq	4019a0 <__bss_end__+0x3f6990>
    199c:	0b0c0000 	bleq	3019a4 <__bss_end__+0x2f6994>
    19a0:	a5250000 	strge	r0, [r5, #-0]!
    19a4:	01000003 	tsteq	r0, r3
    19a8:	0062165e 	rsbeq	r1, r2, lr, asr r6
    19ac:	0b320000 	bleq	c819b4 <__bss_end__+0xc769a4>
    19b0:	0b2e0000 	bleq	b819b8 <__bss_end__+0xb769a8>
    19b4:	cc160000 	ldcgt	0, cr0, [r6], {-0}
    19b8:	4b000086 	blmi	1bd8 <__code_start__-0x6428>
    19bc:	2600000e 	strcs	r0, [r0], -lr
    19c0:	1700000b 	strne	r0, [r0, -fp]
    19c4:	03055001 	movweq	r5, #20481	; 0x5001
    19c8:	0000a50c 	andeq	sl, r0, ip, lsl #10
    19cc:	87001600 	strhi	r1, [r0, -r0, lsl #12]
    19d0:	0ea20000 	cdpeq	0, 10, cr0, cr2, cr0, {0}
    19d4:	0b3a0000 	bleq	e819dc <__bss_end__+0xe769cc>
    19d8:	01170000 	tsteq	r7, r0
    19dc:	00750250 	rsbseq	r0, r5, r0, asr r2
    19e0:	87181600 	ldrhi	r1, [r8, -r0, lsl #12]
    19e4:	0e4b0000 	cdpeq	0, 4, cr0, cr11, cr0, {0}
    19e8:	0b5e0000 	bleq	17819f0 <__bss_end__+0x17769e0>
    19ec:	01170000 	tsteq	r7, r0
    19f0:	e0030550 	and	r0, r3, r0, asr r5
    19f4:	170000a4 	strne	r0, [r0, -r4, lsr #1]
    19f8:	74025201 	strvc	r5, [r2], #-513	; 0xfffffdff
    19fc:	7d021700 	stcvc	7, cr1, [r2, #-0]
    1a00:	00770200 	rsbseq	r0, r7, r0, lsl #4
    1a04:	875c1600 	ldrbhi	r1, [ip, -r0, lsl #12]
    1a08:	0a5f0000 	beq	17c1a10 <__bss_end__+0x17b6a00>
    1a0c:	0b720000 	bleq	1c81a14 <__bss_end__+0x1c76a04>
    1a10:	01170000 	tsteq	r7, r0
    1a14:	04750250 	ldrbteq	r0, [r5], #-592	; 0xfffffdb0
    1a18:	87682000 	strbhi	r2, [r8, -r0]!
    1a1c:	0e4b0000 	cdpeq	0, 4, cr0, cr11, cr0, {0}
    1a20:	01170000 	tsteq	r7, r0
    1a24:	1c030550 	cfstr32ne	mvfx0, [r3], {80}	; 0x50
    1a28:	000000a5 	andeq	r0, r0, r5, lsr #1
    1a2c:	86e81800 	strbthi	r1, [r8], r0, lsl #16
    1a30:	0c6d0000 	stcleq	0, cr0, [sp], #-0
    1a34:	00000000 	andeq	r0, r0, r0
    1a38:	00867416 	addeq	r7, r6, r6, lsl r4
    1a3c:	000e4b00 	andeq	r4, lr, r0, lsl #22
    1a40:	000bca00 	andeq	ip, fp, r0, lsl #20
    1a44:	50011700 	andpl	r1, r1, r0, lsl #14
    1a48:	a43c0305 	ldrtge	r0, [ip], #-773	; 0xfffffcfb
    1a4c:	01170000 	tsteq	r7, r0
    1a50:	b0030551 	andlt	r0, r3, r1, asr r5
    1a54:	170000a4 	strne	r0, [r0, -r4, lsr #1]
    1a58:	03055201 	movweq	r5, #20993	; 0x5201
    1a5c:	0000a810 	andeq	sl, r0, r0, lsl r8
    1a60:	02530117 	subseq	r0, r3, #-1073741819	; 0xc0000005
    1a64:	02175608 	andseq	r5, r7, #8, 12	; 0x800000
    1a68:	0305007d 	movweq	r0, #20605	; 0x507d
    1a6c:	0000a4d0 	ldrdeq	sl, [r0], -r0
    1a70:	86781800 	ldrbthi	r1, [r8], -r0, lsl #16
    1a74:	0e570000 	cdpeq	0, 5, cr0, cr7, cr0, {0}
    1a78:	94160000 	ldrls	r0, [r6], #-0
    1a7c:	4b000086 	blmi	1c9c <__code_start__-0x6364>
    1a80:	0c00000e 	stceq	0, cr0, [r0], {14}
    1a84:	1700000c 	strne	r0, [r0, -ip]
    1a88:	03055001 	movweq	r5, #20481	; 0x5001
    1a8c:	0000a43c 	andeq	sl, r0, ip, lsr r4
    1a90:	05510117 	ldrbeq	r0, [r1, #-279]	; 0xfffffee9
    1a94:	00a4b003 	adceq	fp, r4, r3
    1a98:	52011700 	andpl	r1, r1, #0, 14
    1a9c:	a8100305 	ldmdage	r0, {r0, r2, r8, r9}
    1aa0:	01170000 	tsteq	r7, r0
    1aa4:	52080253 	andpl	r0, r8, #805306373	; 0x30000005
    1aa8:	007d0217 	rsbseq	r0, sp, r7, lsl r2
    1aac:	a4b80305 	ldrtge	r0, [r8], #773	; 0x305
    1ab0:	18000000 	stmdane	r0, {}	; <UNPREDICTABLE>
    1ab4:	00008698 	muleq	r0, r8, r6
    1ab8:	00000e57 	andeq	r0, r0, r7, asr lr
    1abc:	0086b416 	addeq	fp, r6, r6, lsl r4
    1ac0:	000e4b00 	andeq	r4, lr, r0, lsl #22
    1ac4:	000c4e00 	andeq	r4, ip, r0, lsl #28
    1ac8:	50011700 	andpl	r1, r1, r0, lsl #14
    1acc:	a43c0305 	ldrtge	r0, [ip], #-773	; 0xfffffcfb
    1ad0:	01170000 	tsteq	r7, r0
    1ad4:	b0030551 	andlt	r0, r3, r1, asr r5
    1ad8:	170000a4 	strne	r0, [r0, -r4, lsr #1]
    1adc:	03055201 	movweq	r5, #20993	; 0x5201
    1ae0:	0000a810 	andeq	sl, r0, r0, lsl r8
    1ae4:	02530117 	subseq	r0, r3, #-1073741819	; 0xc0000005
    1ae8:	02175508 	andseq	r5, r7, #8, 10	; 0x2000000
    1aec:	0305007d 	movweq	r0, #20605	; 0x507d
    1af0:	0000a4c0 	andeq	sl, r0, r0, asr #9
    1af4:	86b81800 	ldrthi	r1, [r8], r0, lsl #16
    1af8:	0e570000 	cdpeq	0, 5, cr0, cr7, cr0, {0}
    1afc:	10000000 	andne	r0, r0, r0
    1b00:	000000cc 	andeq	r0, r0, ip, asr #1
    1b04:	00000c68 	andeq	r0, r0, r8, ror #24
    1b08:	00002c11 	andeq	r2, r0, r1, lsl ip
    1b0c:	09000400 	stmdbeq	r0, {sl}
    1b10:	00000c58 	andeq	r0, r0, r8, asr ip
    1b14:	00040924 	andeq	r0, r4, r4, lsr #18
    1b18:	0f3c0100 	svceq	0x003c0100
    1b1c:	00000476 	andeq	r0, r0, r6, ror r4
    1b20:	00008608 	andeq	r8, r0, r8, lsl #12
    1b24:	00000028 	andeq	r0, r0, r8, lsr #32
    1b28:	0cd29c01 	ldcleq	12, cr9, [r2], {1}
    1b2c:	6a230000 	bvs	8c1b34 <__bss_end__+0x8b6b24>
    1b30:	0100000b 	tsteq	r0, fp
    1b34:	00751f3c 	rsbseq	r1, r5, ip, lsr pc
    1b38:	0b540000 	bleq	1501b40 <__bss_end__+0x14f6b30>
    1b3c:	0b500000 	bleq	1401b44 <__bss_end__+0x13f6b34>
    1b40:	70260000 	eorvc	r0, r6, r0
    1b44:	0b3e0100 	bleq	f81f4c <__bss_end__+0xf76f3c>
    1b48:	00000208 	andeq	r0, r0, r8, lsl #4
    1b4c:	00000b76 	andeq	r0, r0, r6, ror fp
    1b50:	00000b72 	andeq	r0, r0, r2, ror fp
    1b54:	00861416 	addeq	r1, r6, r6, lsl r4
    1b58:	000cd200 	andeq	sp, ip, r0, lsl #4
    1b5c:	000cc100 	andeq	ip, ip, r0, lsl #2
    1b60:	50011700 	andpl	r1, r1, r0, lsl #14
    1b64:	00007402 	andeq	r7, r0, r2, lsl #8
    1b68:	00862420 	addeq	r2, r6, r0, lsr #8
    1b6c:	000eae00 	andeq	sl, lr, r0, lsl #28
    1b70:	50011700 	andpl	r1, r1, r0, lsl #14
    1b74:	00007402 	andeq	r7, r0, r2, lsl #8
    1b78:	04252400 	strteq	r2, [r5], #-1024	; 0xfffffc00
    1b7c:	2b010000 	blcs	41b84 <__bss_end__+0x36b74>
    1b80:	0000250c 	andeq	r2, r0, ip, lsl #10
    1b84:	0085cc00 	addeq	ip, r5, r0, lsl #24
    1b88:	00003c00 	andeq	r3, r0, r0, lsl #24
    1b8c:	ff9c0100 			; <UNDEFINED> instruction: 0xff9c0100
    1b90:	2c00000c 	stccs	0, cr0, [r0], {12}
    1b94:	2b010070 	blcs	41d5c <__bss_end__+0x36d4c>
    1b98:	0002081a 	andeq	r0, r2, sl, lsl r8
    1b9c:	000ba000 	andeq	sl, fp, r0
    1ba0:	000b9400 	andeq	r9, fp, r0, lsl #8
    1ba4:	3f220000 	svccc	0x00220000
    1ba8:	01000003 	tsteq	r0, r3
    1bac:	02080713 	andeq	r0, r8, #4980736	; 0x4c0000
    1bb0:	8a0c0000 	bhi	301bb8 <__bss_end__+0x2f6ba8>
    1bb4:	00a40000 	adceq	r0, r4, r0
    1bb8:	9c010000 	stcls	0, cr0, [r1], {-0}
    1bbc:	00000e15 	andeq	r0, r0, r5, lsl lr
    1bc0:	0003ae23 	andeq	sl, r3, r3, lsr #28
    1bc4:	11130100 	tstne	r3, r0, lsl #2
    1bc8:	00000041 	andeq	r0, r0, r1, asr #32
    1bcc:	00000bff 	strdeq	r0, [r0], -pc	; <UNPREDICTABLE>
    1bd0:	00000bf3 	strdeq	r0, [r0], -r3
    1bd4:	00039113 	andeq	r9, r3, r3, lsl r1
    1bd8:	10150100 	andsne	r0, r5, r0, lsl #2
    1bdc:	00000025 	andeq	r0, r0, r5, lsr #32
    1be0:	ac080305 	stcge	3, cr0, [r8], {5}
    1be4:	d4150000 	ldrle	r0, [r5], #-0
    1be8:	68000000 	stmdavs	r0, {}	; <UNPREDICTABLE>
    1bec:	0500000c 	streq	r0, [r0, #-12]
    1bf0:	00a82403 	adceq	r2, r8, r3, lsl #8
    1bf4:	8a2c2b00 	bhi	b0c7fc <__bss_end__+0xb017ec>
    1bf8:	00240000 	eoreq	r0, r4, r0
    1bfc:	0d880000 	stceq	0, cr0, [r8]
    1c00:	2d250000 	stccs	0, cr0, [r5, #-0]
    1c04:	01000004 	tsteq	r0, r4
    1c08:	002c121c 	eoreq	r1, ip, ip, lsl r2
    1c0c:	0c4b0000 	mareq	acc0, r0, fp
    1c10:	0c490000 	mareq	acc0, r0, r9
    1c14:	48200000 	stmdami	r0!, {}	; <UNPREDICTABLE>
    1c18:	ba00008a 	blt	1e48 <__code_start__-0x61b8>
    1c1c:	1700000e 	strne	r0, [r0, -lr]
    1c20:	40035001 	andmi	r5, r3, r1
    1c24:	01172440 	tsteq	r7, r0, asr #8
    1c28:	40400351 	submi	r0, r0, r1, asr r3
    1c2c:	16000024 	strne	r0, [r0], -r4, lsr #32
    1c30:	00008a58 	andeq	r8, r0, r8, asr sl
    1c34:	00000ec6 	andeq	r0, r0, r6, asr #29
    1c38:	00000d9c 	muleq	r0, ip, sp
    1c3c:	02500117 	subseq	r0, r0, #-1073741819	; 0xc0000005
    1c40:	16000074 			; <UNDEFINED> instruction: 0x16000074
    1c44:	00008a7c 	andeq	r8, r0, ip, ror sl
    1c48:	00000e4b 	andeq	r0, r0, fp, asr #28
    1c4c:	00000dd4 	ldrdeq	r0, [r0], -r4
    1c50:	05500117 	ldrbeq	r0, [r0, #-279]	; 0xfffffee9
    1c54:	00a43c03 	adceq	r3, r4, r3, lsl #24
    1c58:	51011700 	tstpl	r1, r0, lsl #14
    1c5c:	a4b00305 	ldrtge	r0, [r0], #773	; 0x305
    1c60:	01170000 	tsteq	r7, r0
    1c64:	24030552 	strcs	r0, [r3], #-1362	; 0xfffffaae
    1c68:	170000a8 	strne	r0, [r0, -r8, lsr #1]
    1c6c:	47015301 	strmi	r5, [r1, -r1, lsl #6]
    1c70:	007d0217 	rsbseq	r0, sp, r7, lsl r2
    1c74:	a6d00305 	ldrbge	r0, [r0], r5, lsl #6
    1c78:	18000000 	stmdane	r0, {}	; <UNPREDICTABLE>
    1c7c:	00008a80 	andeq	r8, r0, r0, lsl #21
    1c80:	00000e57 	andeq	r0, r0, r7, asr lr
    1c84:	008a9416 	addeq	r9, sl, r6, lsl r4
    1c88:	000e4b00 	andeq	r4, lr, r0, lsl #22
    1c8c:	000e0b00 	andeq	r0, lr, r0, lsl #22
    1c90:	50011700 	andpl	r1, r1, r0, lsl #14
    1c94:	a6e00305 	strbtge	r0, [r0], r5, lsl #6
    1c98:	01170000 	tsteq	r7, r0
    1c9c:	b0030551 	andlt	r0, r3, r1, asr r5
    1ca0:	170000a4 	strne	r0, [r0, -r4, lsr #1]
    1ca4:	03055201 	movweq	r5, #20993	; 0x5201
    1ca8:	0000a824 	andeq	sl, r0, r4, lsr #16
    1cac:	01530117 	cmpeq	r3, r7, lsl r1
    1cb0:	98180049 	ldmdals	r8, {r0, r3, r6}
    1cb4:	5700008a 	strpl	r0, [r0, -sl, lsl #1]
    1cb8:	0000000e 	andeq	r0, r0, lr
    1cbc:	0000152d 	andeq	r1, r0, sp, lsr #10
    1cc0:	0b0c0200 	bleq	3024c8 <__bss_end__+0x2f74b8>
    1cc4:	00000114 	andeq	r0, r0, r4, lsl r1
    1cc8:	000e4b03 	andeq	r4, lr, r3, lsl #22
    1ccc:	003e2e00 	eorseq	r2, lr, r0, lsl #28
    1cd0:	0c020000 	stceq	0, cr0, [r2], {-0}
    1cd4:	0000bf22 	andeq	fp, r0, r2, lsr #30
    1cd8:	00c42e00 	sbceq	r2, r4, r0, lsl #28
    1cdc:	0c020000 	stceq	0, cr0, [r2], {-0}
    1ce0:	0000bf34 	andeq	fp, r0, r4, lsr pc
    1ce4:	00202e00 	eoreq	r2, r0, r0, lsl #28
    1ce8:	0c020000 	stceq	0, cr0, [r2], {-0}
    1cec:	00002c43 	andeq	r2, r0, r3, asr #24
    1cf0:	7c2f0000 	stcvc	0, cr0, [pc], #-0	; 1cf8 <__code_start__-0x6308>
    1cf4:	7c000006 	stcvc	0, cr0, [r0], {6}
    1cf8:	04000006 	streq	r0, [r0], #-6
    1cfc:	512f0628 			; <UNDEFINED> instruction: 0x512f0628
    1d00:	51000000 	mrspl	r0, (UNDEF: 0)
    1d04:	04000000 	streq	r0, [r0], #-0
    1d08:	0d30066e 	ldceq	6, cr0, [r0, #-440]!	; 0xfffffe48
    1d0c:	77730b9e 			; <UNDEFINED> instruction: 0x77730b9e
    1d10:	5f706565 	svcpl	0x00706565
    1d14:	65657266 	strbvs	r7, [r5, #-614]!	; 0xfffffd9a
    1d18:	022e2f00 	eoreq	r2, lr, #0, 30
    1d1c:	022e0000 	eoreq	r0, lr, #0, 0
    1d20:	29050000 	stmdbcs	r5, {}	; <UNPREDICTABLE>
    1d24:	01c62f08 	biceq	r2, r6, r8, lsl #30
    1d28:	01c60000 	biceq	r0, r6, r0
    1d2c:	4b050000 	blmi	141d34 <__bss_end__+0x136d24>
    1d30:	029b2f07 	addseq	r2, fp, #7, 30
    1d34:	029b0000 	addseq	r0, fp, #0, 0
    1d38:	2c050000 	stccs	0, cr0, [r5], {-0}
    1d3c:	03e62f08 	mvneq	r2, #8, 30
    1d40:	03e60000 	mvneq	r0, #0, 0
    1d44:	76010000 	strvc	r0, [r1], -r0
    1d48:	02c52f06 	sbceq	r2, r5, #6, 30
    1d4c:	02c50000 	sbceq	r0, r5, #0, 0
    1d50:	33050000 	movwcc	r0, #20480	; 0x5000
    1d54:	02892f07 	addeq	r2, r9, #7, 30
    1d58:	02890000 	addeq	r0, r9, #0, 0
    1d5c:	46050000 	strmi	r0, [r5], -r0
    1d60:	052d2f08 	streq	r2, [sp, #-3848]!	; 0xfffff0f8
    1d64:	052d0000 	streq	r0, [sp, #-0]!
    1d68:	82040000 	andhi	r0, r4, #0, 0
    1d6c:	05252f06 	streq	r2, [r5, #-3846]!	; 0xfffff0fa
    1d70:	05250000 	streq	r0, [r5, #-0]!
    1d74:	7b040000 	blvc	101d7c <__bss_end__+0xf6d6c>
    1d78:	01400007 	cmpeq	r0, r7
    1d7c:	00040000 	andeq	r0, r4, r0
    1d80:	0000096a 	andeq	r0, r0, sl, ror #18
    1d84:	059a0104 	ldreq	r0, [sl, #260]	; 0x104
    1d88:	8a0c0000 	bhi	301d90 <__bss_end__+0x2f6d80>
    1d8c:	52000005 	andpl	r0, r0, #5, 0
    1d90:	90000006 	andls	r0, r0, r6
    1d94:	7800008c 	stmdavc	r0, {r2, r3, r7}
    1d98:	b8000000 	stmdalt	r0, {}	; <UNPREDICTABLE>
    1d9c:	0200000c 	andeq	r0, r0, #12, 0
    1da0:	6e690504 	cdpvs	5, 6, cr0, cr9, cr4, {0}
    1da4:	83030074 	movwhi	r0, #12404	; 0x3074
    1da8:	03000005 	movweq	r0, #5
    1dac:	003817d1 	ldrsbteq	r1, [r8], -r1
    1db0:	04040000 	streq	r0, [r4], #-0
    1db4:	0000eb07 	andeq	lr, r0, r7, lsl #22
    1db8:	06010400 	streq	r0, [r1], -r0, lsl #8
    1dbc:	00000045 	andeq	r0, r0, r5, asr #32
    1dc0:	cd050204 	sfmgt	f0, 4, [r5, #-16]
    1dc4:	04000001 	streq	r0, [r0], #-1
    1dc8:	00fd0504 	rscseq	r0, sp, r4, lsl #10
    1dcc:	08040000 	stmdaeq	r4, {}	; <UNPREDICTABLE>
    1dd0:	0000f805 	andeq	pc, r0, r5, lsl #16
    1dd4:	08010400 	stmdaeq	r1, {sl}
    1dd8:	00000043 	andeq	r0, r0, r3, asr #32
    1ddc:	7d070204 	sfmvc	f0, 4, [r7, #-16]
    1de0:	04000000 	streq	r0, [r0], #-0
    1de4:	00e60704 	rsceq	r0, r6, r4, lsl #14
    1de8:	08040000 	stmdaeq	r4, {}	; <UNPREDICTABLE>
    1dec:	0000e107 	andeq	lr, r0, r7, lsl #2
    1df0:	00250500 	eoreq	r0, r5, r0, lsl #10
    1df4:	00860000 	addeq	r0, r6, r0
    1df8:	25060000 	strcs	r0, [r6, #-0]
    1dfc:	00000000 	andeq	r0, r0, r0
    1e00:	00010607 	andeq	r0, r1, r7, lsl #12
    1e04:	0e1c0200 	cdpeq	2, 1, cr0, cr12, cr0, {0}
    1e08:	00000092 	muleq	r0, r2, r0
    1e0c:	00770408 	rsbseq	r0, r7, r8, lsl #8
    1e10:	25050000 	strcs	r0, [r5, #-0]
    1e14:	a7000000 	strge	r0, [r0, -r0]
    1e18:	06000000 	streq	r0, [r0], -r0
    1e1c:	000000a7 	andeq	r0, r0, r7, lsr #1
    1e20:	b4040800 	strlt	r0, [r4], #-2048	; 0xfffff800
    1e24:	04000000 	streq	r0, [r0], #-0
    1e28:	004c0801 	subeq	r0, ip, r1, lsl #16
    1e2c:	ad090000 	stcge	0, cr0, [r9, #-0]
    1e30:	07000000 	streq	r0, [r0, -r0]
    1e34:	000006ba 			; <UNDEFINED> instruction: 0x000006ba
    1e38:	c50e2102 	strgt	r2, [lr, #-258]	; 0xfffffefe
    1e3c:	08000000 	stmdaeq	r0, {}	; <UNPREDICTABLE>
    1e40:	00009804 	andeq	r9, r0, r4, lsl #16
    1e44:	024e0a00 	subeq	r0, lr, #0, 20
    1e48:	04010000 	streq	r0, [r1], #-0
    1e4c:	00013b07 	andeq	r3, r1, r7, lsl #22
    1e50:	008c9000 	addeq	r9, ip, r0
    1e54:	00007800 	andeq	r7, r0, r0, lsl #16
    1e58:	3b9c0100 	blcc	fe702260 <__bss_end__+0xfe6f7250>
    1e5c:	0b000001 	bleq	1e68 <__code_start__-0x6198>
    1e60:	0100705f 	qaddeq	r7, pc, r0	; <UNPREDICTABLE>
    1e64:	013b1404 	teqeq	fp, r4, lsl #8
    1e68:	50010000 	andpl	r0, r1, r0
    1e6c:	0100630c 	tsteq	r0, ip, lsl #6
    1e70:	00251c04 	eoreq	r1, r5, r4, lsl #24
    1e74:	0c650000 	stcleq	0, cr0, [r5], #-0
    1e78:	0c610000 	stcleq	0, cr0, [r1], #-0
    1e7c:	6e0c0000 	cdpvs	0, 0, cr0, cr12, cr0, {0}
    1e80:	26040100 	strcs	r0, [r4], -r0, lsl #2
    1e84:	0000002c 	andeq	r0, r0, ip, lsr #32
    1e88:	00000c8a 	andeq	r0, r0, sl, lsl #25
    1e8c:	00000c86 	andeq	r0, r0, r6, lsl #25
    1e90:	0100700d 	tsteq	r0, sp
    1e94:	013d0b05 	teqeq	sp, r5, lsl #22
    1e98:	0cb90000 	ldceq	0, cr0, [r9]
    1e9c:	0cab0000 	stceq	0, cr0, [fp]
    1ea0:	650d0000 	strvs	r0, [sp, #-0]
    1ea4:	14050100 	strne	r0, [r5], #-256	; 0xffffff00
    1ea8:	0000013d 	andeq	r0, r0, sp, lsr r1
    1eac:	00000d16 	andeq	r0, r0, r6, lsl sp
    1eb0:	00000d14 	andeq	r0, r0, r4, lsl sp
    1eb4:	08040e00 	stmdaeq	r4, {r9, sl, fp}
    1eb8:	0000ad04 	andeq	sl, r0, r4, lsl #26
    1ebc:	019d0000 	orrseq	r0, sp, r0
    1ec0:	00040000 	andeq	r0, r4, r0
    1ec4:	00000a36 	andeq	r0, r0, r6, lsr sl
    1ec8:	059a0104 	ldreq	r0, [sl, #260]	; 0x104
    1ecc:	970c0000 	strls	r0, [ip, -r0]
    1ed0:	52000006 	andpl	r0, r0, #6, 0
    1ed4:	08000006 	stmdaeq	r0, {r1, r2}
    1ed8:	5800008d 	stmdapl	r0, {r0, r2, r3, r7}
    1edc:	dd000000 	stcle	0, cr0, [r0, #-0]
    1ee0:	0200000d 	andeq	r0, r0, #13, 0
    1ee4:	00000683 	andeq	r0, r0, r3, lsl #13
    1ee8:	311b2802 	tstcc	fp, r2, lsl #16
    1eec:	03000000 	movweq	r0, #0
    1ef0:	000006a7 	andeq	r0, r0, r7, lsr #13
    1ef4:	48000404 	stmdami	r0, {r2, sl}
    1ef8:	04000000 	streq	r0, [r0], #-0
    1efc:	00000692 	muleq	r0, r2, r6
    1f00:	00000048 	andeq	r0, r0, r8, asr #32
    1f04:	04050000 	streq	r0, [r5], #-0
    1f08:	0006a902 	andeq	sl, r6, r2, lsl #18
    1f0c:	18630200 	stmdane	r3!, {r9}^
    1f10:	00000025 	andeq	r0, r0, r5, lsr #32
    1f14:	69050406 	stmdbvs	r5, {r1, r2, sl}
    1f18:	0700746e 	streq	r7, [r0, -lr, ror #8]
    1f1c:	00eb0704 	rsceq	r0, fp, r4, lsl #14
    1f20:	01070000 	mrseq	r0, (UNDEF: 7)
    1f24:	00004506 	andeq	r4, r0, r6, lsl #10
    1f28:	05020700 	streq	r0, [r2, #-1792]	; 0xfffff900
    1f2c:	000001cd 	andeq	r0, r0, sp, asr #3
    1f30:	fd050407 	stc2	4, cr0, [r5, #-28]	; 0xffffffe4
    1f34:	07000000 	streq	r0, [r0, -r0]
    1f38:	00f80508 	rscseq	r0, r8, r8, lsl #10
    1f3c:	01070000 	mrseq	r0, (UNDEF: 7)
    1f40:	00004308 	andeq	r4, r0, r8, lsl #6
    1f44:	07020700 	streq	r0, [r2, -r0, lsl #14]
    1f48:	0000007d 	andeq	r0, r0, sp, ror r0
    1f4c:	e6070407 	str	r0, [r7], -r7, lsl #8
    1f50:	07000000 	streq	r0, [r0, -r0]
    1f54:	00e10708 	rsceq	r0, r1, r8, lsl #14
    1f58:	56080000 	strpl	r0, [r8], -r0
    1f5c:	ab000000 	blge	1f64 <__code_start__-0x609c>
    1f60:	09000000 	stmdbeq	r0, {}	; <UNPREDICTABLE>
    1f64:	00000056 	andeq	r0, r0, r6, asr r0
    1f68:	01060a00 	tsteq	r6, r0, lsl #20
    1f6c:	1c030000 	stcne	0, cr0, [r3], {-0}
    1f70:	0000b70e 	andeq	fp, r0, lr, lsl #14
    1f74:	9c040b00 			; <UNDEFINED> instruction: 0x9c040b00
    1f78:	08000000 	stmdaeq	r0, {}	; <UNPREDICTABLE>
    1f7c:	00000056 	andeq	r0, r0, r6, asr r0
    1f80:	000000cc 	andeq	r0, r0, ip, asr #1
    1f84:	0000cc09 	andeq	ip, r0, r9, lsl #24
    1f88:	040b0000 	streq	r0, [fp], #-0
    1f8c:	000000d9 	ldrdeq	r0, [r0], -r9
    1f90:	4c080107 	stfmis	f0, [r8], {7}
    1f94:	0c000000 	stceq	0, cr0, [r0], {-0}
    1f98:	000000d2 	ldrdeq	r0, [r0], -r2
    1f9c:	0006ba0a 	andeq	fp, r6, sl, lsl #20
    1fa0:	0e210300 	cdpeq	3, 2, cr0, cr1, cr0, {0}
    1fa4:	000000ea 	andeq	r0, r0, sl, ror #1
    1fa8:	00bd040b 	adcseq	r0, sp, fp, lsl #8
    1fac:	7c0d0000 	stcvc	0, cr0, [sp], {-0}
    1fb0:	01000006 	tsteq	r0, r6
    1fb4:	00560506 	subseq	r0, r6, r6, lsl #10
    1fb8:	8d080000 	stchi	0, cr0, [r8, #-0]
    1fbc:	00580000 	subseq	r0, r8, r0
    1fc0:	9c010000 	stcls	0, cr0, [r1], {-0}
    1fc4:	00000183 	andeq	r0, r0, r3, lsl #3
    1fc8:	746d660e 	strbtvc	r6, [sp], #-1550	; 0xfffff9f2
    1fcc:	18060100 	stmdane	r6, {r8}
    1fd0:	000000cc 	andeq	r0, r0, ip, asr #1
    1fd4:	0f709102 	svceq	0x00709102
    1fd8:	66756210 			; <UNDEFINED> instruction: 0x66756210
    1fdc:	11080100 	mrsne	r0, (UNDEF: 24)
    1fe0:	00000183 	andeq	r0, r0, r3, lsl #3
    1fe4:	ac0c0305 	stcge	3, cr0, [ip], {5}
    1fe8:	74110000 	ldrvc	r0, [r1], #-0
    1fec:	01000006 	tsteq	r0, r6
    1ff0:	004a0d09 	subeq	r0, sl, r9, lsl #26
    1ff4:	91020000 	mrsls	r0, (UNDEF: 2)
    1ff8:	7a73125c 	bvc	1cc6970 <__bss_end__+0x1cbb960>
    1ffc:	0d0c0100 	stfeqs	f0, [ip, #-0]
    2000:	00000056 	andeq	r0, r0, r6, asr r0
    2004:	00000d2f 	andeq	r0, r0, pc, lsr #26
    2008:	00000d29 	andeq	r0, r0, r9, lsr #26
    200c:	008d3013 	addeq	r3, sp, r3, lsl r0
    2010:	00019400 	andeq	r9, r1, r0, lsl #8
    2014:	00017600 	andeq	r7, r1, r0, lsl #12
    2018:	50011400 	andpl	r1, r1, r0, lsl #8
    201c:	14007502 	strne	r7, [r0], #-1282	; 0xfffffafe
    2020:	0a035101 	beq	d642c <__bss_end__+0xcb41c>
    2024:	01140400 	tsteq	r4, r0, lsl #8
    2028:	48910352 	ldmmi	r1, {r1, r4, r6, r8, r9}
    202c:	53011406 	movwpl	r1, #5126	; 0x1406
    2030:	004c9102 	subeq	r9, ip, r2, lsl #2
    2034:	008d4415 	addeq	r4, sp, r5, lsl r4
    2038:	50011400 	andpl	r1, r1, r0, lsl #8
    203c:	00007502 	andeq	r7, r0, r2, lsl #10
    2040:	00d21600 	sbcseq	r1, r2, r0, lsl #12
    2044:	01940000 	orrseq	r0, r4, r0
    2048:	5d170000 	ldcpl	0, cr0, [r7, #-0]
    204c:	ff000000 			; <UNDEFINED> instruction: 0xff000000
    2050:	79180003 	ldmdbvc	r8, {r0, r1}
    2054:	79000006 	stmdbvc	r0, {r1, r2}
    2058:	05000006 	streq	r0, [r0, #-6]
    205c:	f3000502 	vrshl.u8	d0, d2, d0
    2060:	04000000 	streq	r0, [r0], #-0
    2064:	000b7800 	andeq	r7, fp, r0, lsl #16
    2068:	9a010400 	bls	43070 <__bss_end__+0x38060>
    206c:	0c000005 	stceq	0, cr0, [r0], {5}
    2070:	000006bf 			; <UNDEFINED> instruction: 0x000006bf
    2074:	00000652 	andeq	r0, r0, r2, asr r6
    2078:	00008d60 	andeq	r8, r0, r0, ror #26
    207c:	00000038 	andeq	r0, r0, r8, lsr r0
    2080:	00000f01 	andeq	r0, r0, r1, lsl #30
    2084:	69050402 	stmdbvs	r5, {r1, sl}
    2088:	0300746e 	movweq	r7, #1134	; 0x46e
    208c:	00eb0704 	rsceq	r0, fp, r4, lsl #14
    2090:	01030000 	mrseq	r0, (UNDEF: 3)
    2094:	00004506 	andeq	r4, r0, r6, lsl #10
    2098:	05020300 	streq	r0, [r2, #-768]	; 0xfffffd00
    209c:	000001cd 	andeq	r0, r0, sp, asr #3
    20a0:	fd050403 	stc2	4, cr0, [r5, #-12]
    20a4:	03000000 	movweq	r0, #0
    20a8:	00f80508 	rscseq	r0, r8, r8, lsl #10
    20ac:	01030000 	mrseq	r0, (UNDEF: 3)
    20b0:	00004308 	andeq	r4, r0, r8, lsl #6
    20b4:	07020300 	streq	r0, [r2, -r0, lsl #6]
    20b8:	0000007d 	andeq	r0, r0, sp, ror r0
    20bc:	e6070403 	str	r0, [r7], -r3, lsl #8
    20c0:	03000000 	movweq	r0, #0
    20c4:	00e10708 	rsceq	r0, r1, r8, lsl #14
    20c8:	25040000 	strcs	r0, [r4, #-0]
    20cc:	7a000000 	bvc	20d4 <__code_start__-0x5f2c>
    20d0:	05000000 	streq	r0, [r0, #-0]
    20d4:	00000025 	andeq	r0, r0, r5, lsr #32
    20d8:	01060600 	tsteq	r6, r0, lsl #12
    20dc:	1c020000 	stcne	0, cr0, [r2], {-0}
    20e0:	0000860e 	andeq	r8, r0, lr, lsl #12
    20e4:	6b040700 	blvs	103cec <__bss_end__+0xf8cdc>
    20e8:	04000000 	streq	r0, [r0], #-0
    20ec:	00000025 	andeq	r0, r0, r5, lsr #32
    20f0:	0000009b 	muleq	r0, fp, r0
    20f4:	00009b05 	andeq	r9, r0, r5, lsl #22
    20f8:	04070000 	streq	r0, [r7], #-0
    20fc:	000000a8 	andeq	r0, r0, r8, lsr #1
    2100:	4c080103 	stfmis	f0, [r8], {3}
    2104:	08000000 	stmdaeq	r0, {}	; <UNPREDICTABLE>
    2108:	000000a1 	andeq	r0, r0, r1, lsr #1
    210c:	0006ba06 	andeq	fp, r6, r6, lsl #20
    2110:	0e210200 	cdpeq	2, 2, cr0, cr1, cr0, {0}
    2114:	000000b9 	strheq	r0, [r0], -r9
    2118:	008c0407 	addeq	r0, ip, r7, lsl #8
    211c:	ad090000 	stcge	0, cr0, [r9, #-0]
    2120:	01000000 	mrseq	r0, (UNDEF: 0)
    2124:	0305070c 	movweq	r0, #22284	; 0x570c
    2128:	0000abcc 	andeq	sl, r0, ip, asr #23
    212c:	0006b10a 	andeq	fp, r6, sl, lsl #2
    2130:	05040100 	streq	r0, [r4, #-256]	; 0xffffff00
    2134:	00000025 	andeq	r0, r0, r5, lsr #32
    2138:	00008d60 	andeq	r8, r0, r0, ror #26
    213c:	00000038 	andeq	r0, r0, r8, lsr r0
    2140:	700b9c01 	andvc	r9, fp, r1, lsl #24
    2144:	1f040100 	svcne	0x00040100
    2148:	0000009b 	muleq	r0, fp, r0
    214c:	00000d60 	andeq	r0, r0, r0, ror #26
    2150:	00000d58 	andeq	r0, r0, r8, asr sp
    2154:	01600000 	cmneq	r0, r0
    2158:	00040000 	andeq	r0, r4, r0
    215c:	00000c16 	andeq	r0, r0, r6, lsl ip
    2160:	059a0104 	ldreq	r0, [sl, #260]	; 0x104
    2164:	ec0c0000 	stc	0, cr0, [ip], {-0}
    2168:	52000006 	andpl	r0, r0, #6, 0
    216c:	98000006 	stmdals	r0, {r1, r2}
    2170:	9800008d 	stmdals	r0, {r0, r2, r3, r7}
    2174:	a5000000 	strge	r0, [r0, #-0]
    2178:	0200000f 	andeq	r0, r0, #15, 0
    217c:	6e690504 	cdpvs	5, 6, cr0, cr9, cr4, {0}
    2180:	04030074 	streq	r0, [r3], #-116	; 0xffffff8c
    2184:	0000eb07 	andeq	lr, r0, r7, lsl #22
    2188:	06010300 	streq	r0, [r1], -r0, lsl #6
    218c:	00000045 	andeq	r0, r0, r5, asr #32
    2190:	cd050203 	sfmgt	f0, 4, [r5, #-12]
    2194:	03000001 	movweq	r0, #1
    2198:	00fd0504 	rscseq	r0, sp, r4, lsl #10
    219c:	08030000 	stmdaeq	r3, {}	; <UNPREDICTABLE>
    21a0:	0000f805 	andeq	pc, r0, r5, lsl #16
    21a4:	08010300 	stmdaeq	r1, {r8, r9}
    21a8:	00000043 	andeq	r0, r0, r3, asr #32
    21ac:	7d070203 	sfmvc	f0, 4, [r7, #-12]
    21b0:	03000000 	movweq	r0, #0
    21b4:	00e60704 	rsceq	r0, r6, r4, lsl #14
    21b8:	08030000 	stmdaeq	r3, {}	; <UNPREDICTABLE>
    21bc:	0000e107 	andeq	lr, r0, r7, lsl #2
    21c0:	00250400 	eoreq	r0, r5, r0, lsl #8
    21c4:	007a0000 	rsbseq	r0, sl, r0
    21c8:	25050000 	strcs	r0, [r5, #-0]
    21cc:	00000000 	andeq	r0, r0, r0
    21d0:	00010606 	andeq	r0, r1, r6, lsl #12
    21d4:	0e1c0200 	cdpeq	2, 1, cr0, cr12, cr0, {0}
    21d8:	00000086 	andeq	r0, r0, r6, lsl #1
    21dc:	006b0407 	rsbeq	r0, fp, r7, lsl #8
    21e0:	25040000 	strcs	r0, [r4, #-0]
    21e4:	9b000000 	blls	21ec <__code_start__-0x5e14>
    21e8:	05000000 	streq	r0, [r0, #-0]
    21ec:	0000009b 	muleq	r0, fp, r0
    21f0:	a8040700 	stmdage	r4, {r8, r9, sl}
    21f4:	03000000 	movweq	r0, #0
    21f8:	004c0801 	subeq	r0, ip, r1, lsl #16
    21fc:	a1080000 	mrsge	r0, (UNDEF: 8)
    2200:	06000000 	streq	r0, [r0], -r0
    2204:	000006ba 			; <UNDEFINED> instruction: 0x000006ba
    2208:	b90e2102 	stmdblt	lr, {r1, r8, sp}
    220c:	07000000 	streq	r0, [r0, -r0]
    2210:	00008c04 	andeq	r8, r0, r4, lsl #24
    2214:	06cd0900 	strbeq	r0, [sp], r0, lsl #18
    2218:	08010000 	stmdaeq	r1, {}	; <UNPREDICTABLE>
    221c:	00005617 	andeq	r5, r0, r7, lsl r6
    2220:	d0030500 	andle	r0, r3, r0, lsl #10
    2224:	0a0000ab 	beq	24d8 <__code_start__-0x5b28>
    2228:	00746962 	rsbseq	r6, r4, r2, ror #18
    222c:	2c110901 			; <UNDEFINED> instruction: 0x2c110901
    2230:	0b000000 	bleq	2238 <__code_start__-0x5dc8>
    2234:	000006d2 	ldrdeq	r0, [r0], -r2
    2238:	18061601 	stmdane	r6, {r0, r9, sl, ip}
    223c:	1800008e 	stmdane	r0, {r1, r2, r3, r7}
    2240:	01000000 	mrseq	r0, (UNDEF: 0)
    2244:	0001029c 	muleq	r1, ip, r2
    2248:	06e70c00 	strbteq	r0, [r7], r0, lsl #24
    224c:	16010000 	strne	r0, [r1], -r0
    2250:	00002c19 	andeq	r2, r0, r9, lsl ip
    2254:	00500100 	subseq	r0, r0, r0, lsl #2
    2258:	0000c90d 	andeq	ip, r0, sp, lsl #18
    225c:	0f110100 	svceq	0x00110100
    2260:	0000005d 	andeq	r0, r0, sp, asr r0
    2264:	00008dc8 	andeq	r8, r0, r8, asr #27
    2268:	00000050 	andeq	r0, r0, r0, asr r0
    226c:	01479c01 	cmpeq	r7, r1, lsl #24
    2270:	470e0000 	strmi	r0, [lr, -r0]
    2274:	c8000001 	stmdagt	r0, {r0}
    2278:	0200008d 	andeq	r0, r0, #141, 0	; 0x8d
    227c:	00008dc8 	andeq	r8, r0, r8, asr #27
    2280:	00000024 	andeq	r0, r0, r4, lsr #32
    2284:	0e0d1201 	cdpeq	2, 0, cr1, cr13, cr1, {0}
    2288:	00000147 	andeq	r0, r0, r7, asr #2
    228c:	00008dec 	andeq	r8, r0, ip, ror #27
    2290:	008dec01 	addeq	lr, sp, r1, lsl #24
    2294:	00002000 	andeq	r2, r0, r0
    2298:	23120100 	tstcs	r2, #0
    229c:	06dc0f00 	ldrbeq	r0, [ip], r0, lsl #30
    22a0:	0b010000 	bleq	422a8 <__bss_end__+0x37298>
    22a4:	00005610 	andeq	r5, r0, r0, lsl r6
    22a8:	47100100 	ldrmi	r0, [r0, -r0, lsl #2]
    22ac:	98000001 	stmdals	r0, {r0}
    22b0:	3000008d 	andcc	r0, r0, sp, lsl #1
    22b4:	01000000 	mrseq	r0, (UNDEF: 0)
    22b8:	0c7f009c 	ldcleq	0, cr0, [pc], #-624	; 2050 <__code_start__-0x5fb0>
    22bc:	00040000 	andeq	r0, r4, r0
    22c0:	00000d1b 	andeq	r0, r0, fp, lsl sp
    22c4:	059a0104 	ldreq	r0, [sl, #260]	; 0x104
    22c8:	0f0c0000 	svceq	0x000c0000
    22cc:	52000007 	andpl	r0, r0, #7, 0
    22d0:	30000006 	andcc	r0, r0, r6
    22d4:	b400008e 	strlt	r0, [r0], #-142	; 0xffffff72
    22d8:	8a000009 	bhi	2304 <__code_start__-0x5cfc>
    22dc:	02000010 	andeq	r0, r0, #16, 0
    22e0:	00e10708 	rsceq	r0, r1, r8, lsl #14
    22e4:	04020000 	streq	r0, [r2], #-0
    22e8:	0000eb07 	andeq	lr, r0, r7, lsl #22
    22ec:	05040300 	streq	r0, [r4, #-768]	; 0xfffffd00
    22f0:	00746e69 	rsbseq	r6, r4, r9, ror #28
    22f4:	45060102 	strmi	r0, [r6, #-258]	; 0xfffffefe
    22f8:	02000000 	andeq	r0, r0, #0, 0
    22fc:	01cd0502 	biceq	r0, sp, r2, lsl #10
    2300:	04020000 	streq	r0, [r2], #-0
    2304:	0000fd05 	andeq	pc, r0, r5, lsl #26
    2308:	05080200 	streq	r0, [r8, #-512]	; 0xfffffe00
    230c:	000000f8 	strdeq	r0, [r0], -r8
    2310:	43080102 	movwmi	r0, #33026	; 0x8102
    2314:	02000000 	andeq	r0, r0, #0, 0
    2318:	007d0702 	rsbseq	r0, sp, r2, lsl #14
    231c:	77040000 	strvc	r0, [r4, -r0]
    2320:	02000002 	andeq	r0, r0, #2, 0
    2324:	00701934 	rsbseq	r1, r0, r4, lsr r9
    2328:	04020000 	streq	r0, [r2], #-0
    232c:	0000e607 	andeq	lr, r0, r7, lsl #12
    2330:	07060400 	streq	r0, [r6, -r0, lsl #8]
    2334:	37020000 	strcc	r0, [r2, -r0]
    2338:	00002519 	andeq	r2, r0, r9, lsl r5
    233c:	00330500 	eorseq	r0, r3, r0, lsl #10
    2340:	00920000 	addseq	r0, r2, r0
    2344:	33060000 	movwcc	r0, #24576	; 0x6000
    2348:	00000000 	andeq	r0, r0, r0
    234c:	00010607 	andeq	r0, r1, r7, lsl #12
    2350:	0e1c0300 	cdpeq	3, 1, cr0, cr12, cr0, {0}
    2354:	0000009e 	muleq	r0, lr, r0
    2358:	00830408 	addeq	r0, r3, r8, lsl #8
    235c:	33050000 	movwcc	r0, #20480	; 0x5000
    2360:	b3000000 	movwlt	r0, #0
    2364:	06000000 	streq	r0, [r0], -r0
    2368:	000000b3 	strheq	r0, [r0], -r3
    236c:	c0040800 	andgt	r0, r4, r0, lsl #16
    2370:	02000000 	andeq	r0, r0, #0, 0
    2374:	004c0801 	subeq	r0, ip, r1, lsl #16
    2378:	b9090000 	stmdblt	r9, {}	; <UNPREDICTABLE>
    237c:	07000000 	streq	r0, [r0, -r0]
    2380:	000006ba 			; <UNDEFINED> instruction: 0x000006ba
    2384:	d10e2103 	tstle	lr, r3, lsl #2
    2388:	08000000 	stmdaeq	r0, {}	; <UNPREDICTABLE>
    238c:	0000a404 	andeq	sl, r0, r4, lsl #8
    2390:	07220700 	streq	r0, [r2, -r0, lsl #14]!
    2394:	0b040000 	bleq	10239c <__bss_end__+0xf738c>
    2398:	0000b90d 	andeq	fp, r0, sp, lsl #18
    239c:	077b0700 	ldrbeq	r0, [fp, -r0, lsl #14]!
    23a0:	0c040000 	stceq	0, cr0, [r4], {-0}
    23a4:	0000b90d 	andeq	fp, r0, sp, lsl #18
    23a8:	037b0700 	cmneq	fp, #0, 14
    23ac:	0d040000 	stceq	0, cr0, [r4, #-0]
    23b0:	0000b90d 	andeq	fp, r0, sp, lsl #18
    23b4:	05020700 	streq	r0, [r2, #-1792]	; 0xfffff900
    23b8:	0e040000 	cdpeq	0, 0, cr0, cr4, cr0, {0}
    23bc:	0000b90d 	andeq	fp, r0, sp, lsl #18
    23c0:	054f0700 	strbeq	r0, [pc, #-1792]	; 1cc8 <__code_start__-0x6338>
    23c4:	0f040000 	svceq	0x00040000
    23c8:	0000b90d 	andeq	fp, r0, sp, lsl #18
    23cc:	03d90700 	bicseq	r0, r9, #0, 14
    23d0:	10040000 	andne	r0, r4, r0
    23d4:	0000b90d 	andeq	fp, r0, sp, lsl #18
    23d8:	07a40700 	streq	r0, [r4, r0, lsl #14]!
    23dc:	11040000 	mrsne	r0, (UNDEF: 4)
    23e0:	0000b90d 	andeq	fp, r0, sp, lsl #18
    23e4:	073f0700 	ldreq	r0, [pc, -r0, lsl #14]!
    23e8:	12040000 	andne	r0, r4, #0, 0
    23ec:	0000b90d 	andeq	fp, r0, sp, lsl #18
    23f0:	06830400 	streq	r0, [r3], r0, lsl #8
    23f4:	28050000 	stmdacs	r5, {}	; <UNPREDICTABLE>
    23f8:	0001431b 	andeq	r4, r1, fp, lsl r3
    23fc:	06a70a00 	strteq	r0, [r7], r0, lsl #20
    2400:	06040000 	streq	r0, [r4], -r0
    2404:	00015a00 	andeq	r5, r1, r0, lsl #20
    2408:	06920b00 	ldreq	r0, [r2], r0, lsl #22
    240c:	015a0000 	cmpeq	sl, r0
    2410:	00000000 	andeq	r0, r0, r0
    2414:	a904040c 	stmdbge	r4, {r2, r3, sl}
    2418:	05000006 	streq	r0, [r0, #-6]
    241c:	01371863 	teqeq	r7, r3, ror #16
    2420:	790d0000 	stmdbvc	sp, {}	; <UNPREDICTABLE>
    2424:	01000006 	tsteq	r0, r6
    2428:	00330581 	eorseq	r0, r3, r1, lsl #11
    242c:	91b80000 			; <UNDEFINED> instruction: 0x91b80000
    2430:	062c0000 	strteq	r0, [ip], -r0
    2434:	9c010000 	stcls	0, cr0, [r1], {-0}
    2438:	0000086a 	andeq	r0, r0, sl, ror #16
    243c:	6675620e 	ldrbtvs	r6, [r5], -lr, lsl #4
    2440:	15810100 	strne	r0, [r1, #256]	; 0x100
    2444:	0000086a 	andeq	r0, r0, sl, ror #16
    2448:	00000da0 	andeq	r0, r0, r0, lsr #27
    244c:	00000d96 	muleq	r0, r6, sp
    2450:	01006e0e 	tsteq	r0, lr, lsl #28
    2454:	00331e81 	eorseq	r1, r3, r1, lsl #29
    2458:	0ded0000 	stcleq	0, cr0, [sp]
    245c:	0de50000 	stcleq	0, cr0, [r5]
    2460:	660e0000 	strvs	r0, [lr], -r0
    2464:	0100746d 	tsteq	r0, sp, ror #8
    2468:	00b32d81 	adcseq	r2, r3, r1, lsl #27
    246c:	0e3f0000 	cdpeq	0, 3, cr0, cr15, cr0, {0}
    2470:	0e270000 	cdpeq	0, 2, cr0, cr7, cr0, {0}
    2474:	740f0000 	strvc	r0, [pc], #-0	; 247c <__code_start__-0x5b84>
    2478:	01000006 	tsteq	r0, r6
    247c:	015c3a81 	cmpeq	ip, r1, lsl #21
    2480:	0f010000 	svceq	0x00010000
    2484:	0ed30000 	cdpeq	0, 13, cr0, cr3, cr0, {0}
    2488:	70100000 	andsvc	r0, r0, r0
    248c:	08820100 	stmeq	r2, {r8}
    2490:	0000086a 	andeq	r0, r0, sl, ror #16
    2494:	00001054 	andeq	r1, r0, r4, asr r0
    2498:	0000103e 	andeq	r1, r0, lr, lsr r0
    249c:	01006510 	tsteq	r0, r0, lsl r5
    24a0:	086a1282 	stmdaeq	sl!, {r1, r7, r9, ip}^
    24a4:	10dd0000 	sbcsne	r0, sp, r0
    24a8:	10db0000 	sbcsne	r0, fp, r0
    24ac:	78100000 	ldmdavc	r0, {}	; <UNPREDICTABLE>
    24b0:	83010030 	movwhi	r0, #4144	; 0x1030
    24b4:	0000640e 	andeq	r6, r0, lr, lsl #8
    24b8:	0010f600 	andseq	pc, r0, r0, lsl #12
    24bc:	0010f000 	andseq	pc, r0, r0
    24c0:	31781000 	cmncc	r8, r0
    24c4:	11830100 	orrne	r0, r3, r0, lsl #2
    24c8:	00000064 	andeq	r0, r0, r4, rrx
    24cc:	00001125 	andeq	r1, r0, r5, lsr #2
    24d0:	0000111f 	andeq	r1, r0, pc, lsl r1
    24d4:	00075d11 	andeq	r5, r7, r1, lsl sp
    24d8:	11860100 	orrne	r0, r6, r0, lsl #2
    24dc:	000000b3 	strheq	r0, [r0], -r3
    24e0:	00001156 	andeq	r1, r0, r6, asr r1
    24e4:	0000114e 	andeq	r1, r0, lr, asr #2
    24e8:	0000d412 	andeq	sp, r0, r2, lsl r4
    24ec:	00088000 	andeq	r8, r8, r0
    24f0:	b8030500 	stmdalt	r3, {r8, sl}
    24f4:	130000a9 	movwne	r0, #169	; 0xa9
    24f8:	00000198 	muleq	r0, r8, r1
    24fc:	01007310 	tsteq	r0, r0, lsl r3
    2500:	086a0a91 	stmdaeq	sl!, {r0, r4, r7, r9, fp}^
    2504:	119c0000 	orrsne	r0, ip, r0
    2508:	11900000 	orrsne	r0, r0, r0
    250c:	6e140000 	cdpvs	0, 1, cr0, cr4, cr0, {0}
    2510:	01006d75 	tsteq	r0, r5, ror sp
    2514:	08850d91 	stmeq	r5, {r0, r4, r7, r8, sl, fp}
    2518:	91030000 	mrsls	r0, (UNDEF: 3)
    251c:	b1157dd8 			; <UNDEFINED> instruction: 0xb1157dd8
    2520:	01000007 	tsteq	r0, r7
    2524:	08851791 	stmeq	r5, {r0, r4, r7, r8, r9, sl, ip}
    2528:	91030000 	mrsls	r0, (UNDEF: 3)
    252c:	31117ed8 			; <UNDEFINED> instruction: 0x31117ed8
    2530:	01000007 	tsteq	r0, r7
    2534:	002c0d92 	mlaeq	ip, r2, sp, r0
    2538:	11ee0000 	mvnne	r0, r0
    253c:	11e60000 	mvnne	r0, r0
    2540:	c0160000 	andsgt	r0, r6, r0
    2544:	f1000001 	cps	#1
    2548:	10000004 	andne	r0, r0, r4
    254c:	01007974 	tsteq	r0, r4, ror r9
    2550:	00b31d9e 	umlalseq	r1, r3, lr, sp
    2554:	122f0000 	eorne	r0, pc, #0, 0
    2558:	12230000 	eorne	r0, r3, #0, 0
    255c:	78140000 	ldmdavc	r4, {}	; <UNPREDICTABLE>
    2560:	a2010078 	andge	r0, r1, #120, 0	; 0x78
    2564:	0000771a 	andeq	r7, r0, sl, lsl r7
    2568:	93590600 	cmpls	r9, #0, 12
    256c:	04935b04 	ldreq	r5, [r3], #2820	; 0xb04
    2570:	00934417 	addseq	r4, r3, r7, lsl r4
    2574:	000c3a00 	andeq	r3, ip, r0, lsl #20
    2578:	0002d800 	andeq	sp, r2, r0, lsl #16
    257c:	50011800 	andpl	r1, r1, r0, lsl #16
    2580:	18007602 	stmdane	r0, {r1, r9, sl, ip, sp, lr}
    2584:	03055101 	movweq	r5, #20737	; 0x5101
    2588:	0000a8ac 	andeq	sl, r0, ip, lsr #17
    258c:	01520118 	cmpeq	r2, r8, lsl r1
    2590:	5c170033 	ldcpl	0, cr0, [r7], {51}	; 0x33
    2594:	3a000093 	bcc	27e8 <__code_start__-0x5818>
    2598:	fa00000c 	blx	25d0 <__code_start__-0x5a30>
    259c:	18000002 	stmdane	r0, {r1}
    25a0:	76025001 	strvc	r5, [r2], -r1
    25a4:	51011800 	tstpl	r1, r0, lsl #16
    25a8:	a8c00305 	stmiage	r0, {r0, r2, r8, r9}^
    25ac:	01180000 	tsteq	r8, r0
    25b0:	00330152 	eorseq	r0, r3, r2, asr r1
    25b4:	00938017 	addseq	r8, r3, r7, lsl r0
    25b8:	000c4600 	andeq	r4, ip, r0, lsl #12
    25bc:	00031700 	andeq	r1, r3, r0, lsl #14
    25c0:	50011800 	andpl	r1, r1, r0, lsl #16
    25c4:	a8b00305 	ldmge	r0!, {r0, r2, r8, r9}
    25c8:	01180000 	tsteq	r8, r0
    25cc:	007b0251 	rsbseq	r0, fp, r1, asr r2
    25d0:	938c1700 	orrls	r1, ip, #0, 14
    25d4:	0c460000 	mareq	acc0, r0, r6
    25d8:	03340000 	teqeq	r4, #0, 0
    25dc:	01180000 	tsteq	r8, r0
    25e0:	b8030550 	stmdalt	r3, {r4, r6, r8, sl}
    25e4:	180000a8 	stmdane	r0, {r3, r5, r7}
    25e8:	79025101 	stmdbvc	r2, {r0, r8, ip, lr}
    25ec:	9c170000 	ldcls	0, cr0, [r7], {-0}
    25f0:	3a000093 	bcc	2844 <__code_start__-0x57bc>
    25f4:	5600000c 	strpl	r0, [r0], -ip
    25f8:	18000003 	stmdane	r0, {r0, r1}
    25fc:	76025001 	strvc	r5, [r2], -r1
    2600:	51011800 	tstpl	r1, r0, lsl #16
    2604:	a8ac0305 	stmiage	ip!, {r0, r2, r8, r9}
    2608:	01180000 	tsteq	r8, r0
    260c:	00330152 	eorseq	r0, r3, r2, asr r1
    2610:	0093cc17 	addseq	ip, r3, r7, lsl ip
    2614:	000aa400 	andeq	sl, sl, r0, lsl #8
    2618:	00038300 	andeq	r8, r3, r0, lsl #6
    261c:	50011800 	andpl	r1, r1, r0, lsl #16
    2620:	01184001 	tsteq	r8, r1
    2624:	d0910351 	addsle	r0, r1, r1, asr r3
    2628:	5201187d 	andpl	r1, r1, #8192000	; 0x7d0000
    262c:	18007b02 	stmdane	r0, {r1, r8, r9, fp, ip, sp, lr}
    2630:	75025301 	strvc	r5, [r2, #-769]	; 0xfffffcff
    2634:	7d021800 	stcvc	8, cr1, [r2, #-0]
    2638:	00760200 	rsbseq	r0, r6, r0, lsl #4
    263c:	93ec1700 	mvnls	r1, #0, 14
    2640:	0aa40000 	beq	fe902648 <__bss_end__+0xfe8f7638>
    2644:	03aa0000 			; <UNDEFINED> instruction: 0x03aa0000
    2648:	01180000 	tsteq	r8, r0
    264c:	18400150 	stmdane	r0, {r4, r6, r8}^
    2650:	91035101 	tstls	r3, r1, lsl #2
    2654:	01187ed0 			; <UNDEFINED> instruction: 0x01187ed0
    2658:	00790252 	rsbseq	r0, r9, r2, asr r2
    265c:	007d0218 	rsbseq	r0, sp, r8, lsl r2
    2660:	00007602 	andeq	r7, r0, r2, lsl #12
    2664:	0093fc17 	addseq	pc, r3, r7, lsl ip	; <UNPREDICTABLE>
    2668:	000c5200 	andeq	r5, ip, r0, lsl #4
    266c:	0003c600 	andeq	ip, r3, r0, lsl #12
    2670:	50011800 	andpl	r1, r1, r0, lsl #16
    2674:	7dd09103 	ldfvcp	f1, [r0, #12]
    2678:	03510118 	cmpeq	r1, #6
    267c:	007ed291 			; <UNDEFINED> instruction: 0x007ed291
    2680:	00964017 	addseq	r4, r6, r7, lsl r0
    2684:	000c3a00 	andeq	r3, ip, r0, lsl #20
    2688:	0003e800 	andeq	lr, r3, r0, lsl #16
    268c:	50011800 	andpl	r1, r1, r0, lsl #16
    2690:	18007602 	stmdane	r0, {r1, r9, sl, ip, sp, lr}
    2694:	03055101 	movweq	r5, #20737	; 0x5101
    2698:	0000a8c0 	andeq	sl, r0, r0, asr #17
    269c:	01520118 	cmpeq	r2, r8, lsl r1
    26a0:	64170033 	ldrvs	r0, [r7], #-51	; 0xffffffcd
    26a4:	a4000096 	strge	r0, [r0], #-150	; 0xffffff6a
    26a8:	1500000a 	strne	r0, [r0, #-10]
    26ac:	18000004 	stmdane	r0, {r2}
    26b0:	3a015001 	bcc	566bc <__bss_end__+0x4b6ac>
    26b4:	03510118 	cmpeq	r1, #6
    26b8:	187dd091 	ldmdane	sp!, {r0, r4, r7, ip, lr, pc}^
    26bc:	7b025201 	blvc	96ec8 <__bss_end__+0x8beb8>
    26c0:	53011800 	movwpl	r1, #6144	; 0x1800
    26c4:	18007502 	stmdane	r0, {r1, r8, sl, ip, sp, lr}
    26c8:	02007d02 	andeq	r7, r0, #128	; 0x80
    26cc:	17000076 	smlsdxne	r0, r6, r0, r0
    26d0:	00009684 	andeq	r9, r0, r4, lsl #13
    26d4:	00000aa4 	andeq	r0, r0, r4, lsr #21
    26d8:	0000043c 	andeq	r0, r0, ip, lsr r4
    26dc:	01500118 	cmpeq	r0, r8, lsl r1
    26e0:	5101183a 	tstpl	r1, sl, lsr r8
    26e4:	7ed09103 	atnvcs	f1, f3
    26e8:	02520118 	subseq	r0, r2, #6
    26ec:	02180079 	andseq	r0, r8, #121, 0	; 0x79
    26f0:	7602007d 			; <UNDEFINED> instruction: 0x7602007d
    26f4:	90170000 	andsls	r0, r7, r0
    26f8:	5e000096 	mcrpl	0, 0, r0, cr0, cr6, {4}
    26fc:	5a00000c 	bpl	2734 <__code_start__-0x58cc>
    2700:	18000004 	stmdane	r0, {r2}
    2704:	91035001 	tstls	r3, r1
    2708:	01187dd0 			; <UNDEFINED> instruction: 0x01187dd0
    270c:	dc030551 	cfstr32le	mvfx0, [r3], {81}	; 0x51
    2710:	000000a6 	andeq	r0, r0, r6, lsr #1
    2714:	0096a417 	addseq	sl, r6, r7, lsl r4
    2718:	000c6a00 	andeq	r6, ip, r0, lsl #20
    271c:	00047600 	andeq	r7, r4, r0, lsl #12
    2720:	50011800 	andpl	r1, r1, r0, lsl #16
    2724:	7dd09103 	ldfvcp	f1, [r0, #12]
    2728:	03510118 	cmpeq	r1, #6
    272c:	007ed091 			; <UNDEFINED> instruction: 0x007ed091
    2730:	0096b019 	addseq	fp, r6, r9, lsl r0
    2734:	000c5200 	andeq	r5, ip, r0, lsl #4
    2738:	97741700 	ldrbls	r1, [r4, -r0, lsl #14]!
    273c:	0c460000 	mareq	acc0, r0, r6
    2740:	04a80000 	strteq	r0, [r8], #0
    2744:	01180000 	tsteq	r8, r0
    2748:	3c030550 	cfstr32cc	mvfx0, [r3], {80}	; 0x50
    274c:	180000a4 	stmdane	r0, {r2, r5, r7}
    2750:	03055101 	movweq	r5, #20737	; 0x5101
    2754:	0000a860 	andeq	sl, r0, r0, ror #16
    2758:	05520118 	ldrbeq	r0, [r2, #-280]	; 0xfffffee8
    275c:	00a9b803 	adceq	fp, r9, r3, lsl #16
    2760:	78190000 	ldmdavc	r9, {}	; <UNPREDICTABLE>
    2764:	76000097 			; <UNDEFINED> instruction: 0x76000097
    2768:	1700000c 	strne	r0, [r0, -ip]
    276c:	00009790 	muleq	r0, r0, r7
    2770:	00000c46 	andeq	r0, r0, r6, asr #24
    2774:	000004e7 	andeq	r0, r0, r7, ror #9
    2778:	05500118 	ldrbeq	r0, [r0, #-280]	; 0xfffffee8
    277c:	00a90003 	adceq	r0, r9, r3
    2780:	51011800 	tstpl	r1, r0, lsl #16
    2784:	a8600305 	stmdage	r0!, {r0, r2, r8, r9}^
    2788:	01180000 	tsteq	r8, r0
    278c:	b8030552 	stmdalt	r3, {r1, r4, r6, r8, sl}
    2790:	180000a9 	stmdane	r0, {r0, r3, r5, r7}
    2794:	08025301 	stmdaeq	r2, {r0, r8, r9, ip, lr}
    2798:	7d0218b6 	stcvc	8, cr1, [r2, #-728]	; 0xfffffd28
    279c:	00760200 	rsbseq	r0, r6, r0, lsl #4
    27a0:	97941900 	ldrls	r1, [r4, r0, lsl #18]
    27a4:	0c760000 	ldcleq	0, cr0, [r6], #-0
    27a8:	1a000000 	bne	27b0 <__code_start__-0x5850>
    27ac:	000009e3 	andeq	r0, r0, r3, ror #19
    27b0:	00009244 	andeq	r9, r0, r4, asr #4
    27b4:	01e80004 	mvneq	r0, r4
    27b8:	94010000 	strls	r0, [r1], #-0
    27bc:	0005150a 	andeq	r1, r5, sl, lsl #10
    27c0:	09f41b00 	ldmibeq	r4!, {r8, r9, fp, ip}^
    27c4:	128b0000 	addne	r0, fp, #0, 0
    27c8:	12870000 	addne	r0, r7, #0, 0
    27cc:	1a000000 	bne	27d4 <__code_start__-0x582c>
    27d0:	00000895 	muleq	r0, r5, r8
    27d4:	0000942c 	andeq	r9, r0, ip, lsr #8
    27d8:	02080001 	andeq	r0, r8, #1, 0
    27dc:	dc010000 	stcle	0, cr0, [r1], {-0}
    27e0:	00064b09 	andeq	r4, r6, r9, lsl #22
    27e4:	08be1b00 	ldmeq	lr!, {r8, r9, fp, ip}
    27e8:	12b90000 	adcsne	r0, r9, #0, 0
    27ec:	12b30000 	adcsne	r0, r3, #0, 0
    27f0:	e01b0000 	ands	r0, fp, r0
    27f4:	ee000008 	cdp	0, 0, cr0, cr0, cr8, {0}
    27f8:	e8000012 	stmda	r0, {r1, r4}
    27fc:	1b000012 	blne	284c <__code_start__-0x57b4>
    2800:	000008d4 	ldrdeq	r0, [r0], -r4
    2804:	00001320 	andeq	r1, r0, r0, lsr #6
    2808:	0000131a 	andeq	r1, r0, sl, lsl r3
    280c:	0008c81c 	andeq	ip, r8, ip, lsl r8
    2810:	08b21b00 	ldmeq	r2!, {r8, r9, fp, ip}
    2814:	13510000 	cmpne	r1, #0, 0
    2818:	13490000 	movtne	r0, #36864	; 0x9000
    281c:	a61b0000 	ldrge	r0, [fp], -r0
    2820:	94000008 	strls	r0, [r0], #-8
    2824:	8e000013 	mcrhi	0, 0, r0, cr0, cr3, {0}
    2828:	13000013 	movwne	r0, #19
    282c:	00000208 	andeq	r0, r0, r8, lsl #4
    2830:	0008ec1d 	andeq	lr, r8, sp, lsl ip
    2834:	d8910300 	ldmle	r1, {r8, r9}
    2838:	08f81e7e 	ldmeq	r8!, {r1, r2, r3, r4, r5, r6, r9, sl, fp, ip}^
    283c:	13ce0000 	bicne	r0, lr, #0, 0
    2840:	13c00000 	bicne	r0, r0, #0, 0
    2844:	021f0000 	andseq	r0, pc, #0, 0
    2848:	1a000009 	bne	2874 <__code_start__-0x578c>
    284c:	000009a3 	andeq	r0, r0, r3, lsr #19
    2850:	00009438 	andeq	r9, r0, r8, lsr r4
    2854:	02380004 	eorseq	r0, r8, #4, 0
    2858:	7c010000 	stcvc	0, cr0, [r1], {-0}
    285c:	0005e209 	andeq	lr, r5, r9, lsl #4
    2860:	09ca1b00 	stmibeq	sl, {r8, r9, fp, ip}^
    2864:	14380000 	ldrtne	r0, [r8], #-0
    2868:	14320000 	ldrtne	r0, [r2], #-0
    286c:	be1b0000 	cdplt	0, 1, cr0, cr11, cr0, {0}
    2870:	6d000009 	stcvs	0, cr0, [r0, #-36]	; 0xffffffdc
    2874:	61000014 	tstvs	r0, r4, lsl r0
    2878:	1b000014 	blne	28d0 <__code_start__-0x5730>
    287c:	000009b4 			; <UNDEFINED> instruction: 0x000009b4
    2880:	000014d3 	ldrdeq	r1, [r0], -r3
    2884:	000014c3 	andeq	r1, r0, r3, asr #9
    2888:	00023813 	andeq	r3, r2, r3, lsl r8
    288c:	09d61e00 	ldmibeq	r6, {r9, sl, fp, ip}^
    2890:	15500000 	ldrbne	r0, [r0, #-0]
    2894:	15420000 	strbne	r0, [r2, #-0]
    2898:	00000000 	andeq	r0, r0, r0
    289c:	00094f20 	andeq	r4, r9, r0, lsr #30
    28a0:	00950000 	addseq	r0, r5, r0
    28a4:	68000200 	stmdavs	r0, {r9}
    28a8:	01000002 	tsteq	r0, r2
    28ac:	801b097c 	andshi	r0, fp, ip, ror r9
    28b0:	b0000009 	andlt	r0, r0, r9
    28b4:	aa000015 	bge	2910 <__code_start__-0x56f0>
    28b8:	1b000015 	blne	2914 <__code_start__-0x56ec>
    28bc:	00000976 	andeq	r0, r0, r6, ror r9
    28c0:	000015e6 	andeq	r1, r0, r6, ror #11
    28c4:	000015dc 	ldrdeq	r1, [r0], -ip
    28c8:	00096c1b 	andeq	r6, r9, fp, lsl ip
    28cc:	00163500 	andseq	r3, r6, r0, lsl #10
    28d0:	00163100 	andseq	r3, r6, r0, lsl #2
    28d4:	09601b00 	stmdbeq	r0!, {r8, r9, fp, ip}^
    28d8:	16650000 	strbtne	r0, [r5], -r0
    28dc:	16570000 	ldrbne	r0, [r7], -r0
    28e0:	68130000 	ldmdavs	r3, {}	; <UNPREDICTABLE>
    28e4:	1e000002 	cdpne	0, 0, cr0, cr0, cr2, {0}
    28e8:	0000098c 	andeq	r0, r0, ip, lsl #19
    28ec:	000016ca 	andeq	r1, r0, sl, asr #13
    28f0:	000016c8 	andeq	r1, r0, r8, asr #13
    28f4:	0009981e 	andeq	r9, r9, lr, lsl r8
    28f8:	0016e400 	andseq	lr, r6, r0, lsl #8
    28fc:	0016de00 	andseq	sp, r6, r0, lsl #28
    2900:	00000000 	andeq	r0, r0, r0
    2904:	08951a00 	ldmeq	r5, {r9, fp, ip}
    2908:	953c0000 	ldrls	r0, [ip, #-0]!
    290c:	00000000 	andeq	r0, r0, r0
    2910:	00000298 	muleq	r0, r8, r2
    2914:	8909d601 	stmdbhi	r9, {r0, r9, sl, ip, lr, pc}
    2918:	1b000007 	blne	293c <__code_start__-0x56c4>
    291c:	000008be 			; <UNDEFINED> instruction: 0x000008be
    2920:	00001717 	andeq	r1, r0, r7, lsl r7
    2924:	00001713 	andeq	r1, r0, r3, lsl r7
    2928:	0008e01b 	andeq	lr, r8, fp, lsl r0
    292c:	00173d00 	andseq	r3, r7, r0, lsl #26
    2930:	00173900 	andseq	r3, r7, r0, lsl #18
    2934:	08d41b00 	ldmeq	r4, {r8, r9, fp, ip}^
    2938:	17610000 	strbne	r0, [r1, -r0]!
    293c:	175d0000 	ldrbne	r0, [sp, -r0]
    2940:	c81c0000 	ldmdagt	ip, {}	; <UNPREDICTABLE>
    2944:	1b000008 	blne	296c <__code_start__-0x5694>
    2948:	000008b2 			; <UNDEFINED> instruction: 0x000008b2
    294c:	00001785 	andeq	r1, r0, r5, lsl #15
    2950:	0000177f 	andeq	r1, r0, pc, ror r7
    2954:	0008a61b 	andeq	sl, r8, fp, lsl r6
    2958:	0017b800 	andseq	fp, r7, r0, lsl #16
    295c:	0017b400 	andseq	fp, r7, r0, lsl #8
    2960:	02981300 	addseq	r1, r8, #0, 6
    2964:	ec1d0000 	ldc	0, cr0, [sp], {-0}
    2968:	03000008 	movweq	r0, #8
    296c:	1e7ed891 	mrcne	8, 3, sp, cr14, cr1, {4}
    2970:	000008f8 	strdeq	r0, [r0], -r8
    2974:	000017e2 	andeq	r1, r0, r2, ror #15
    2978:	000017d8 	ldrdeq	r1, [r0], -r8
    297c:	0009021e 	andeq	r0, r9, lr, lsl r2
    2980:	00182700 	andseq	r2, r8, r0, lsl #14
    2984:	00182300 	andseq	r2, r8, r0, lsl #6
    2988:	09a31a00 	stmibeq	r3!, {r9, fp, ip}
    298c:	95580000 	ldrbls	r0, [r8, #-0]
    2990:	00030000 	andeq	r0, r3, r0
    2994:	000002b8 			; <UNDEFINED> instruction: 0x000002b8
    2998:	20097c01 	andcs	r7, r9, r1, lsl #24
    299c:	1b000007 	blne	29c0 <__code_start__-0x5640>
    29a0:	000009ca 	andeq	r0, r0, sl, asr #19
    29a4:	00001849 	andeq	r1, r0, r9, asr #16
    29a8:	00001845 	andeq	r1, r0, r5, asr #16
    29ac:	0009be1b 	andeq	fp, r9, fp, lsl lr
    29b0:	00186b00 	andseq	r6, r8, r0, lsl #22
    29b4:	00186700 	andseq	r6, r8, r0, lsl #14
    29b8:	09b41b00 	ldmibeq	r4!, {r8, r9, fp, ip}
    29bc:	18950000 	ldmne	r5, {}	; <UNPREDICTABLE>
    29c0:	18890000 	stmne	r9, {}	; <UNPREDICTABLE>
    29c4:	b8130000 	ldmdalt	r3, {}	; <UNPREDICTABLE>
    29c8:	1e000002 	cdpne	0, 0, cr0, cr0, cr2, {0}
    29cc:	000009d6 	ldrdeq	r0, [r0], -r6
    29d0:	000018f1 	strdeq	r1, [r0], -r1	; <UNPREDICTABLE>
    29d4:	000018e5 	andeq	r1, r0, r5, ror #17
    29d8:	4f200000 	svcmi	0x00200000
    29dc:	e0000009 	and	r0, r0, r9
    29e0:	02000095 	andeq	r0, r0, #149, 0	; 0x95
    29e4:	0002e000 	andeq	lr, r2, r0
    29e8:	097c0100 	ldmdbeq	ip!, {r8}^
    29ec:	0009801b 	andeq	r8, r9, fp, lsl r0
    29f0:	00194100 	andseq	r4, r9, r0, lsl #2
    29f4:	00193d00 	andseq	r3, r9, r0, lsl #26
    29f8:	09761b00 	ldmdbeq	r6!, {r8, r9, fp, ip}^
    29fc:	19690000 	stmdbne	r9!, {}^	; <UNPREDICTABLE>
    2a00:	195f0000 	ldmdbne	pc, {}^	; <UNPREDICTABLE>
    2a04:	6c1b0000 	ldcvs	0, cr0, [fp], {-0}
    2a08:	b5000009 	strlt	r0, [r0, #-9]
    2a0c:	b1000019 	tstlt	r0, r9, lsl r0
    2a10:	1b000019 	blne	2a7c <__code_start__-0x5584>
    2a14:	00000960 	andeq	r0, r0, r0, ror #18
    2a18:	000019e3 	andeq	r1, r0, r3, ror #19
    2a1c:	000019d7 	ldrdeq	r1, [r0], -r7
    2a20:	0002e013 	andeq	lr, r2, r3, lsl r0
    2a24:	098c1e00 	stmibeq	ip, {r9, sl, fp, ip}
    2a28:	1a3d0000 	bne	f42a30 <__bss_end__+0xf37a20>
    2a2c:	1a390000 	bne	e42a34 <__bss_end__+0xe37a24>
    2a30:	981e0000 	ldmdals	lr, {}	; <UNPREDICTABLE>
    2a34:	63000009 	movwvs	r0, #9
    2a38:	5f00001a 	svcpl	0x0000001a
    2a3c:	0000001a 	andeq	r0, r0, sl, lsl r0
    2a40:	17000000 	strne	r0, [r0, -r0]
    2a44:	0000930c 	andeq	r9, r0, ip, lsl #6
    2a48:	00000aa4 	andeq	r0, r0, r4, lsr #21
    2a4c:	000007af 	andeq	r0, r0, pc, lsr #15
    2a50:	01500118 	cmpeq	r0, r8, lsl r1
    2a54:	51011840 	tstpl	r1, r0, asr #16
    2a58:	7dd09103 	ldfvcp	f1, [r0, #12]
    2a5c:	02530118 	subseq	r0, r3, #6
    2a60:	02180075 	andseq	r0, r8, #117, 0	; 0x75
    2a64:	3001007d 	andcc	r0, r1, sp, ror r0
    2a68:	941c1700 	ldrls	r1, [ip], #-1792	; 0xfffff900
    2a6c:	0aa40000 	beq	fe902a74 <__bss_end__+0xfe8f7a64>
    2a70:	07cf0000 	strbeq	r0, [pc, r0]
    2a74:	01180000 	tsteq	r8, r0
    2a78:	183a0150 	ldmdane	sl!, {r4, r6, r8}
    2a7c:	91035101 	tstls	r3, r1, lsl #2
    2a80:	01187dd0 			; <UNDEFINED> instruction: 0x01187dd0
    2a84:	00750253 	rsbseq	r0, r5, r3, asr r2
    2a88:	97001700 	strls	r1, [r0, -r0, lsl #14]
    2a8c:	0c460000 	mareq	acc0, r0, r6
    2a90:	07e60000 	strbeq	r0, [r6, r0]!
    2a94:	01180000 	tsteq	r8, r0
    2a98:	50030550 	andpl	r0, r3, r0, asr r5
    2a9c:	000000a9 	andeq	r0, r0, r9, lsr #1
    2aa0:	00971021 	addseq	r1, r7, r1, lsr #32
    2aa4:	0007f800 	andeq	pc, r7, r0, lsl #16
    2aa8:	50011800 	andpl	r1, r1, r0, lsl #16
    2aac:	7dc89104 	stfvcp	f1, [r8, #16]
    2ab0:	24170006 	ldrcs	r0, [r7], #-6
    2ab4:	46000097 			; <UNDEFINED> instruction: 0x46000097
    2ab8:	2700000c 	strcs	r0, [r0, -ip]
    2abc:	18000008 	stmdane	r0, {r3}
    2ac0:	03055001 	movweq	r5, #20481	; 0x5001
    2ac4:	0000a980 	andeq	sl, r0, r0, lsl #19
    2ac8:	05510118 	ldrbeq	r0, [r1, #-280]	; 0xfffffee8
    2acc:	00a86003 	adceq	r6, r8, r3
    2ad0:	52011800 	andpl	r1, r1, #0, 16
    2ad4:	a9b80305 	ldmibge	r8!, {r0, r2, r8, r9}
    2ad8:	01180000 	tsteq	r8, r0
    2adc:	e2080253 	and	r0, r8, #805306373	; 0x30000005
    2ae0:	97281900 	strls	r1, [r8, -r0, lsl #18]!
    2ae4:	0c760000 	ldcleq	0, cr0, [r6], #-0
    2ae8:	3c170000 	ldccc	0, cr0, [r7], {-0}
    2aec:	46000097 			; <UNDEFINED> instruction: 0x46000097
    2af0:	5f00000c 	svcpl	0x0000000c
    2af4:	18000008 	stmdane	r0, {r3}
    2af8:	03055001 	movweq	r5, #20481	; 0x5001
    2afc:	0000a928 	andeq	sl, r0, r8, lsr #18
    2b00:	05510118 	ldrbeq	r0, [r1, #-280]	; 0xfffffee8
    2b04:	00a86003 	adceq	r6, r8, r3
    2b08:	52011800 	andpl	r1, r1, #0, 16
    2b0c:	a9b80305 	ldmibge	r8!, {r0, r2, r8, r9}
    2b10:	01180000 	tsteq	r8, r0
    2b14:	be080253 	mcrlt	2, 0, r0, cr8, cr3, {2}
    2b18:	97401900 	strbls	r1, [r0, -r0, lsl #18]
    2b1c:	0c760000 	ldcleq	0, cr0, [r6], #-0
    2b20:	00000000 	andeq	r0, r0, r0
    2b24:	00b90408 	adcseq	r0, r9, r8, lsl #8
    2b28:	c0220000 	eorgt	r0, r2, r0
    2b2c:	80000000 	andhi	r0, r0, r0
    2b30:	23000008 	movwcs	r0, #8
    2b34:	0000002c 	andeq	r0, r0, ip, lsr #32
    2b38:	70090009 	andvc	r0, r9, r9
    2b3c:	22000008 	andcs	r0, r0, #8, 0
    2b40:	000000b9 	strheq	r0, [r0], -r9
    2b44:	00000895 	muleq	r0, r5, r8
    2b48:	00002c23 	andeq	r2, r0, r3, lsr #24
    2b4c:	24007f00 	strcs	r7, [r0], #-3840	; 0xfffff100
    2b50:	00000788 	andeq	r0, r0, r8, lsl #15
    2b54:	6a014901 	bvs	54f60 <__bss_end__+0x49f50>
    2b58:	01000008 	tsteq	r0, r8
    2b5c:	0000092a 	andeq	r0, r0, sl, lsr #18
    2b60:	00033a25 	andeq	r3, r3, r5, lsr #20
    2b64:	0f490100 	svceq	0x00490100
    2b68:	0000002c 	andeq	r0, r0, ip, lsr #32
    2b6c:	74736426 	ldrbtvc	r6, [r3], #-1062	; 0xfffffbda
    2b70:	1b490100 	blne	1242f78 <__bss_end__+0x1237f68>
    2b74:	0000086a 	andeq	r0, r0, sl, ror #16
    2b78:	01006e26 	tsteq	r0, r6, lsr #28
    2b7c:	00332449 	eorseq	r2, r3, r9, asr #8
    2b80:	76260000 	strtvc	r0, [r6], -r0
    2b84:	01006c61 	tsteq	r0, r1, ror #24
    2b88:	00332b49 	eorseq	r2, r3, r9, asr #22
    2b8c:	31250000 			; <UNDEFINED> instruction: 0x31250000
    2b90:	01000007 	tsteq	r0, r7
    2b94:	00333449 	eorseq	r3, r3, r9, asr #8
    2b98:	be250000 	cdplt	0, 2, cr0, cr5, cr0, {0}
    2b9c:	01000007 	tsteq	r0, r7
    2ba0:	00333f49 	eorseq	r3, r3, r9, asr #30
    2ba4:	62270000 	eorvs	r0, r7, #0, 0
    2ba8:	01006675 	tsteq	r0, r5, ror r6
    2bac:	092a074e 	stmdbeq	sl!, {r1, r2, r3, r6, r8, r9, sl}
    2bb0:	70270000 	eorvc	r0, r7, r0
    2bb4:	114e0100 	mrsne	r0, (UNDEF: 94)
    2bb8:	0000086a 	andeq	r0, r0, sl, ror #16
    2bbc:	01007527 	tsteq	r0, r7, lsr #10
    2bc0:	002c0b4f 	eoreq	r0, ip, pc, asr #22
    2bc4:	d4120000 	ldrle	r0, [r2], #-0
    2bc8:	4a000000 	bmi	2bd0 <__code_start__-0x5430>
    2bcc:	05000009 	streq	r0, [r0, #-9]
    2bd0:	00a9a003 	adceq	sl, r9, r3
    2bd4:	75292800 	strvc	r2, [r9, #-2048]!	; 0xfffff800
    2bd8:	01000007 	tsteq	r0, r7
    2bdc:	002c0d54 	eoreq	r0, ip, r4, asr sp
    2be0:	00000000 	andeq	r0, r0, r0
    2be4:	0000b922 	andeq	fp, r0, r2, lsr #18
    2be8:	00093a00 	andeq	r3, r9, r0, lsl #20
    2bec:	002c2300 	eoreq	r2, ip, r0, lsl #6
    2bf0:	003f0000 	eorseq	r0, pc, r0
    2bf4:	0000c022 	andeq	ip, r0, r2, lsr #32
    2bf8:	00094a00 	andeq	r4, r9, r0, lsl #20
    2bfc:	002c2300 	eoreq	r2, ip, r0, lsl #6
    2c00:	00040000 	andeq	r0, r4, r0
    2c04:	00093a09 	andeq	r3, r9, r9, lsl #20
    2c08:	078d2400 	streq	r2, [sp, r0, lsl #8]
    2c0c:	38010000 	stmdacc	r1, {}	; <UNPREDICTABLE>
    2c10:	00086a0e 	andeq	r6, r8, lr, lsl #20
    2c14:	09a30100 	stmibeq	r3!, {r8}
    2c18:	64260000 	strtvs	r0, [r6], #-0
    2c1c:	01007473 	tsteq	r0, r3, ror r4
    2c20:	086a1c38 	stmdaeq	sl!, {r3, r4, r5, sl, fp, ip}^
    2c24:	6e260000 	cdpvs	0, 2, cr0, cr6, cr0, {0}
    2c28:	25380100 	ldrcs	r0, [r8, #-256]!	; 0xffffff00
    2c2c:	00000033 	andeq	r0, r0, r3, lsr r0
    2c30:	01007026 	tsteq	r0, r6, lsr #32
    2c34:	086a2e38 	stmdaeq	sl!, {r3, r4, r5, r9, sl, fp, sp}^
    2c38:	58250000 	stmdapl	r5!, {}	; <UNPREDICTABLE>
    2c3c:	0100000b 	tsteq	r0, fp
    2c40:	086a3738 	stmdaeq	sl!, {r3, r4, r5, r8, r9, sl, ip, sp}^
    2c44:	6c270000 	stcvs	0, cr0, [r7], #-0
    2c48:	01006e65 	tsteq	r0, r5, ror #28
    2c4c:	0033063a 	eorseq	r0, r3, sl, lsr r6
    2c50:	73270000 			; <UNDEFINED> instruction: 0x73270000
    2c54:	083e0100 	ldmdaeq	lr!, {r8}
    2c58:	0000086a 	andeq	r0, r0, sl, ror #16
    2c5c:	61702a00 	cmnvs	r0, r0, lsl #20
    2c60:	2e010064 	cdpcs	0, 0, cr0, cr1, cr4, {3}
    2c64:	00086a0e 	andeq	r6, r8, lr, lsl #20
    2c68:	09e30100 	stmibeq	r3!, {r8}^
    2c6c:	70260000 	eorvc	r0, r6, r0
    2c70:	182e0100 	stmdane	lr!, {r8}
    2c74:	0000086a 	andeq	r0, r0, sl, ror #16
    2c78:	00033a25 	andeq	r3, r3, r5, lsr #20
    2c7c:	222e0100 	eorcs	r0, lr, #0
    2c80:	0000086a 	andeq	r0, r0, sl, ror #16
    2c84:	00073125 	andeq	r3, r7, r5, lsr #2
    2c88:	2c2e0100 	stfcss	f0, [lr], #-0
    2c8c:	00000033 	andeq	r0, r0, r3, lsr r0
    2c90:	6e656c27 	cdpvs	12, 6, cr6, cr5, cr7, {1}
    2c94:	062f0100 	strteq	r0, [pc], -r0, lsl #2
    2c98:	00000033 	andeq	r0, r0, r3, lsr r0
    2c9c:	06fe2400 	ldrbteq	r2, [lr], r0, lsl #8
    2ca0:	27010000 	strcs	r0, [r1, -r0]
    2ca4:	0000330c 	andeq	r3, r0, ip, lsl #6
    2ca8:	09ff0100 	ldmibeq	pc!, {r8}^	; <UNPREDICTABLE>
    2cac:	63260000 			; <UNDEFINED> instruction: 0x63260000
    2cb0:	18270100 	stmdane	r7!, {r8}
    2cb4:	00000033 	andeq	r0, r0, r3, lsr r0
    2cb8:	074e2b00 	strbeq	r2, [lr, -r0, lsl #22]
    2cbc:	1f010000 	svcne	0x00010000
    2cc0:	00915806 	addseq	r5, r1, r6, lsl #16
    2cc4:	00006000 	andeq	r6, r0, r0
    2cc8:	8f9c0100 	svchi	0x009c0100
    2ccc:	0f00000a 	svceq	0x0000000a
    2cd0:	00000737 	andeq	r0, r0, r7, lsr r7
    2cd4:	9e1b1f01 	cdpls	15, 1, cr1, cr11, cr1, {0}
    2cd8:	88000000 	stmdahi	r0, {}	; <UNPREDICTABLE>
    2cdc:	8400001a 	strhi	r0, [r0], #-26	; 0xffffffe6
    2ce0:	0f00001a 	svceq	0x0000001a
    2ce4:	0000079c 	muleq	r0, ip, r7
    2ce8:	d1301f01 	teqle	r0, r1, lsl #30
    2cec:	ad000000 	stcge	0, cr0, [r0, #-0]
    2cf0:	a900001a 	stmdbge	r0, {r1, r3, r4}
    2cf4:	1200001a 	andne	r0, r0, #26, 0
    2cf8:	000000d4 	ldrdeq	r0, [r0], -r4
    2cfc:	00000a9f 	muleq	r0, pc, sl	; <UNPREDICTABLE>
    2d00:	a9a80305 	stmibge	r8!, {r0, r2, r8, r9}
    2d04:	9c170000 	ldcls	0, cr0, [r7], {-0}
    2d08:	46000091 			; <UNDEFINED> instruction: 0x46000091
    2d0c:	8500000c 	strhi	r0, [r0, #-12]
    2d10:	1800000a 	stmdane	r0, {r1, r3}
    2d14:	03055001 	movweq	r5, #20481	; 0x5001
    2d18:	0000a43c 	andeq	sl, r0, ip, lsr r4
    2d1c:	05510118 	ldrbeq	r0, [r1, #-280]	; 0xfffffee8
    2d20:	00a86003 	adceq	r6, r8, r3
    2d24:	52011800 	andpl	r1, r1, #0, 16
    2d28:	a9a80305 	stmibge	r8!, {r0, r2, r8, r9}
    2d2c:	01180000 	tsteq	r8, r0
    2d30:	20080253 	andcs	r0, r8, r3, asr r2
    2d34:	007d0218 	rsbseq	r0, sp, r8, lsl r2
    2d38:	a8980305 	ldmge	r8, {r0, r2, r8, r9}
    2d3c:	19000000 	stmdbne	r0, {}	; <UNPREDICTABLE>
    2d40:	000091a0 	andeq	r9, r0, r0, lsr #3
    2d44:	00000c76 	andeq	r0, r0, r6, ror ip
    2d48:	00c02200 	sbceq	r2, r0, r0, lsl #4
    2d4c:	0a9f0000 	beq	fe7c2d54 <__bss_end__+0xfe7b7d44>
    2d50:	2c230000 	stccs	0, cr0, [r3], #-0
    2d54:	0e000000 	cdpeq	0, 0, cr0, cr0, cr0, {0}
    2d58:	0a8f0900 	beq	fe3c5160 <__bss_end__+0xfe3ba150>
    2d5c:	952c0000 	strls	r0, [ip, #-0]!
    2d60:	30000008 	andcc	r0, r0, r8
    2d64:	2800008e 	stmdacs	r0, {r1, r2, r3, r7}
    2d68:	01000003 	tsteq	r0, r3
    2d6c:	000c3a9c 	muleq	ip, ip, sl
    2d70:	08a61b00 	stmiaeq	r6!, {r8, r9, fp, ip}
    2d74:	1ae60000 	bne	ff982d7c <__bss_end__+0xff977d6c>
    2d78:	1ace0000 	bne	ff382d80 <__bss_end__+0xff377d70>
    2d7c:	b21b0000 	andslt	r0, fp, #0, 0
    2d80:	90000008 	andls	r0, r0, r8
    2d84:	8800001b 	stmdahi	r0, {r0, r1, r3, r4}
    2d88:	1b00001b 	blne	2dfc <__code_start__-0x5204>
    2d8c:	000008c8 	andeq	r0, r0, r8, asr #17
    2d90:	00001be7 	andeq	r1, r0, r7, ror #23
    2d94:	00001bc7 	andeq	r1, r0, r7, asr #23
    2d98:	0008d41b 	andeq	sp, r8, fp, lsl r4
    2d9c:	001cbd00 	andseq	fp, ip, r0, lsl #26
    2da0:	001caf00 	andseq	sl, ip, r0, lsl #30
    2da4:	08e02d00 	stmiaeq	r0!, {r8, sl, fp, sp}^
    2da8:	91020000 	mrsls	r0, (UNDEF: 2)
    2dac:	08ec1d00 	stmiaeq	ip!, {r8, sl, fp, ip}^
    2db0:	91030000 	mrsls	r0, (UNDEF: 3)
    2db4:	f81e7fa8 			; <UNDEFINED> instruction: 0xf81e7fa8
    2db8:	51000008 	tstpl	r0, r8
    2dbc:	1d00001d 	stcne	0, cr0, [r0, #-116]	; 0xffffff8c
    2dc0:	1e00001d 	mcrne	0, 0, r0, cr0, cr13, {0}
    2dc4:	00000902 	andeq	r0, r0, r2, lsl #18
    2dc8:	00001eb8 			; <UNDEFINED> instruction: 0x00001eb8
    2dcc:	00001e96 	muleq	r0, r6, lr
    2dd0:	0008be2e 	andeq	fp, r8, lr, lsr #28
    2dd4:	a31a8000 	tstge	sl, #0, 0
    2dd8:	d4000009 	strle	r0, [r0], #-9
    2ddc:	0400008e 	streq	r0, [r0], #-142	; 0xffffff72
    2de0:	00013000 	andeq	r3, r1, r0
    2de4:	097c0100 	ldmdbeq	ip!, {r8}^
    2de8:	00000b6d 	andeq	r0, r0, sp, ror #22
    2dec:	0009ca1b 	andeq	ip, r9, fp, lsl sl
    2df0:	001fa000 	andseq	sl, pc, r0
    2df4:	001f9600 	andseq	r9, pc, r0, lsl #12
    2df8:	09be1b00 	ldmibeq	lr!, {r8, r9, fp, ip}
    2dfc:	1ff40000 	svcne	0x00f40000
    2e00:	1fe40000 	svcne	0x00e40000
    2e04:	b41b0000 	ldrlt	r0, [fp], #-0
    2e08:	74000009 	strvc	r0, [r0], #-9
    2e0c:	60000020 	andvs	r0, r0, r0, lsr #32
    2e10:	13000020 	movwne	r0, #32
    2e14:	00000130 	andeq	r0, r0, r0, lsr r1
    2e18:	0009d61e 	andeq	sp, r9, lr, lsl r6
    2e1c:	00210600 	eoreq	r0, r1, r0, lsl #12
    2e20:	0020f600 	eoreq	pc, r0, r0, lsl #12
    2e24:	1a000000 	bne	2e2c <__code_start__-0x51d4>
    2e28:	0000094f 	andeq	r0, r0, pc, asr #18
    2e2c:	00008f8c 	andeq	r8, r0, ip, lsl #31
    2e30:	01780002 	cmneq	r8, r2
    2e34:	7c010000 	stcvc	0, cr0, [r1], {-0}
    2e38:	000bd809 	andeq	sp, fp, r9, lsl #16
    2e3c:	09801b00 	stmibeq	r0, {r8, r9, fp, ip}
    2e40:	21720000 	cmncs	r2, r0
    2e44:	216a0000 	cmncs	sl, r0
    2e48:	761b0000 	ldrvc	r0, [fp], -r0
    2e4c:	b1000009 	tstlt	r0, r9
    2e50:	a9000021 	stmdbge	r0, {r0, r5}
    2e54:	1b000021 	blne	2ee0 <__code_start__-0x5120>
    2e58:	0000096c 	andeq	r0, r0, ip, ror #18
    2e5c:	000021f0 	strdeq	r2, [r0], -r0
    2e60:	000021ec 	andeq	r2, r0, ip, ror #3
    2e64:	0009601b 	andeq	r6, r9, fp, lsl r0
    2e68:	00222000 	eoreq	r2, r2, r0
    2e6c:	00221200 	eoreq	r1, r2, r0, lsl #4
    2e70:	01781300 	cmneq	r8, r0, lsl #6
    2e74:	8c1e0000 	ldchi	0, cr0, [lr], {-0}
    2e78:	85000009 	strhi	r0, [r0, #-9]
    2e7c:	7f000022 	svcvc	0x00000022
    2e80:	1e000022 	cdpne	0, 0, cr0, cr0, cr2, {1}
    2e84:	00000998 	muleq	r0, r8, r9
    2e88:	000022b7 			; <UNDEFINED> instruction: 0x000022b7
    2e8c:	000022b3 			; <UNDEFINED> instruction: 0x000022b3
    2e90:	1b2f0000 	blne	bc2e98 <__bss_end__+0xbb7e88>
    2e94:	44000009 	strmi	r0, [r0], #-9
    2e98:	60000090 	mulvs	r0, r0, r0
    2e9c:	f7000000 			; <UNDEFINED> instruction: 0xf7000000
    2ea0:	1e00000b 	cdpne	0, 0, cr0, cr0, cr11, {0}
    2ea4:	0000091c 	andeq	r0, r0, ip, lsl r9
    2ea8:	000022d9 	ldrdeq	r2, [r0], -r9
    2eac:	000022d5 	ldrdeq	r2, [r0], -r5
    2eb0:	91181700 	tstls	r8, r0, lsl #14
    2eb4:	0c460000 	mareq	acc0, r0, r6
    2eb8:	0c300000 	ldceq	0, cr0, [r0], #-0
    2ebc:	01180000 	tsteq	r8, r0
    2ec0:	3c030550 	cfstr32cc	mvfx0, [r3], {80}	; 0x50
    2ec4:	180000a4 	stmdane	r0, {r2, r5, r7}
    2ec8:	03055101 	movweq	r5, #20737	; 0x5101
    2ecc:	0000a860 	andeq	sl, r0, r0, ror #16
    2ed0:	05520118 	ldrbeq	r0, [r2, #-280]	; 0xfffffee8
    2ed4:	00a9a003 	adceq	sl, r9, r3
    2ed8:	53011800 	movwpl	r1, #6144	; 0x1800
    2edc:	18790802 	ldmdane	r9!, {r1, fp}^
    2ee0:	05007d02 	streq	r7, [r0, #-3330]	; 0xfffff2fe
    2ee4:	00a6dc03 	adceq	sp, r6, r3, lsl #24
    2ee8:	1c190000 	ldcne	0, cr0, [r9], {-0}
    2eec:	76000091 			; <UNDEFINED> instruction: 0x76000091
    2ef0:	0000000c 	andeq	r0, r0, ip
    2ef4:	0007b630 	andeq	fp, r7, r0, lsr r6
    2ef8:	0007b600 	andeq	fp, r7, r0, lsl #12
    2efc:	05eb0300 	strbeq	r0, [fp, #768]!	; 0x300
    2f00:	00067c30 	andeq	r7, r6, r0, lsr ip
    2f04:	00067c00 	andeq	r7, r6, r0, lsl #24
    2f08:	06280300 	strteq	r0, [r8], -r0, lsl #6
    2f0c:	00076730 	andeq	r6, r7, r0, lsr r7
    2f10:	00076700 	andeq	r6, r7, r0, lsl #14
    2f14:	07ee0300 	strbeq	r0, [lr, r0, lsl #6]!
    2f18:	00079530 	andeq	r9, r7, r0, lsr r5
    2f1c:	00079500 	andeq	r9, r7, r0, lsl #10
    2f20:	05ea0300 	strbeq	r0, [sl, #768]!	; 0x300
    2f24:	00076e30 	andeq	r6, r7, r0, lsr lr
    2f28:	00076e00 	andeq	r6, r7, r0, lsl #28
    2f2c:	07ed0300 	strbeq	r0, [sp, r0, lsl #6]!
    2f30:	00005130 	andeq	r5, r0, r0, lsr r1
    2f34:	00005100 	andeq	r5, r0, r0, lsl #2
    2f38:	066e0300 	strbteq	r0, [lr], -r0, lsl #6
    2f3c:	00012f00 	andeq	r2, r1, r0, lsl #30
    2f40:	be000400 	cfcpyslt	mvf0, mvf0
    2f44:	0400000f 	streq	r0, [r0], #-15
    2f48:	00059a01 	andeq	r9, r5, r1, lsl #20
    2f4c:	07db0c00 	ldrbeq	r0, [fp, r0, lsl #24]
    2f50:	06520000 	ldrbeq	r0, [r2], -r0
    2f54:	97e40000 	strbls	r0, [r4, r0]!
    2f58:	002c0000 	eoreq	r0, ip, r0
    2f5c:	19880000 	stmibne	r8, {}	; <UNPREDICTABLE>
    2f60:	04020000 	streq	r0, [r2], #-0
    2f64:	746e6905 	strbtvc	r6, [lr], #-2309	; 0xfffff6fb
    2f68:	07040300 	streq	r0, [r4, -r0, lsl #6]
    2f6c:	000000eb 	andeq	r0, r0, fp, ror #1
    2f70:	45060103 	strmi	r0, [r6, #-259]	; 0xfffffefd
    2f74:	03000000 	movweq	r0, #0
    2f78:	01cd0502 	biceq	r0, sp, r2, lsl #10
    2f7c:	04030000 	streq	r0, [r3], #-0
    2f80:	0000fd05 	andeq	pc, r0, r5, lsl #26
    2f84:	05080300 	streq	r0, [r8, #-768]	; 0xfffffd00
    2f88:	000000f8 	strdeq	r0, [r0], -r8
    2f8c:	43080103 	movwmi	r0, #33027	; 0x8103
    2f90:	03000000 	movweq	r0, #0
    2f94:	007d0702 	rsbseq	r0, sp, r2, lsl #14
    2f98:	04030000 	streq	r0, [r3], #-0
    2f9c:	0000e607 	andeq	lr, r0, r7, lsl #12
    2fa0:	07080300 	streq	r0, [r8, -r0, lsl #6]
    2fa4:	000000e1 	andeq	r0, r0, r1, ror #1
    2fa8:	00002504 	andeq	r2, r0, r4, lsl #10
    2fac:	00007a00 	andeq	r7, r0, r0, lsl #20
    2fb0:	00250500 	eoreq	r0, r5, r0, lsl #10
    2fb4:	06000000 	streq	r0, [r0], -r0
    2fb8:	00000106 	andeq	r0, r0, r6, lsl #2
    2fbc:	860e1c02 	strhi	r1, [lr], -r2, lsl #24
    2fc0:	07000000 	streq	r0, [r0, -r0]
    2fc4:	00006b04 	andeq	r6, r0, r4, lsl #22
    2fc8:	00250400 	eoreq	r0, r5, r0, lsl #8
    2fcc:	009b0000 	addseq	r0, fp, r0
    2fd0:	9b050000 	blls	142fd8 <__bss_end__+0x137fc8>
    2fd4:	00000000 	andeq	r0, r0, r0
    2fd8:	00a80407 	adceq	r0, r8, r7, lsl #8
    2fdc:	01030000 	mrseq	r0, (UNDEF: 3)
    2fe0:	00004c08 	andeq	r4, r0, r8, lsl #24
    2fe4:	00a10800 	adceq	r0, r1, r0, lsl #16
    2fe8:	ba060000 	blt	182ff0 <__bss_end__+0x177fe0>
    2fec:	02000006 	andeq	r0, r0, #6, 0
    2ff0:	00b90e21 	adcseq	r0, r9, r1, lsr #28
    2ff4:	04070000 	streq	r0, [r7], #-0
    2ff8:	0000008c 	andeq	r0, r0, ip, lsl #1
    2ffc:	00005109 	andeq	r5, r0, r9, lsl #2
    3000:	06040100 	streq	r0, [r4], -r0, lsl #2
    3004:	000097e4 	andeq	r9, r0, r4, ror #15
    3008:	0000002c 	andeq	r0, r0, ip, lsr #32
    300c:	010e9c01 	tsteq	lr, r1, lsl #24
    3010:	f80a0000 			; <UNDEFINED> instruction: 0xf80a0000
    3014:	e8000097 	stmda	r0, {r0, r1, r2, r4, r7}
    3018:	0b000000 	bleq	3020 <__code_start__-0x4fe0>
    301c:	03055001 	movweq	r5, #20481	; 0x5001
    3020:	0000a9c4 	andeq	sl, r0, r4, asr #19
    3024:	97fc0c00 	ldrbls	r0, [ip, r0, lsl #24]!
    3028:	010e0000 	mrseq	r0, (UNDEF: 14)
    302c:	040d0000 	streq	r0, [sp], #-0
    3030:	1a000098 	bne	3298 <__code_start__-0x4d68>
    3034:	04000001 	streq	r0, [r0], #-1
    3038:	0b000001 	bleq	3044 <__code_start__-0x4fbc>
    303c:	3a015001 	bcc	57048 <__bss_end__+0x4c038>
    3040:	98080c00 	stmdals	r8, {sl, fp}
    3044:	01260000 			; <UNDEFINED> instruction: 0x01260000
    3048:	0e000000 	cdpeq	0, 0, cr0, cr0, cr0, {0}
    304c:	000007f6 	strdeq	r0, [r0], -r6
    3050:	000007f6 	strdeq	r0, [r0], -r6
    3054:	0e064d02 	cdpeq	13, 0, cr4, cr6, cr2, {0}
    3058:	000007d2 	ldrdeq	r0, [r0], -r2
    305c:	000007d2 	ldrdeq	r0, [r0], -r2
    3060:	0e065802 	cdpeq	8, 0, cr5, cr6, cr2, {0}
    3064:	000007c7 	andeq	r0, r0, r7, asr #15
    3068:	000007c7 	andeq	r0, r0, r7, asr #15
    306c:	00066b02 	andeq	r6, r6, r2, lsl #22
    3070:	00000190 	muleq	r0, r0, r1
    3074:	107e0004 	rsbsne	r0, lr, r4
    3078:	01040000 	mrseq	r0, (UNDEF: 4)
    307c:	0000059a 	muleq	r0, sl, r5
    3080:	00082c0c 	andeq	r2, r8, ip, lsl #24
    3084:	00065200 	andeq	r5, r6, r0, lsl #4
    3088:	00981000 	addseq	r1, r8, r0
    308c:	0000f800 	andeq	pc, r0, r0, lsl #16
    3090:	001a1300 	andseq	r1, sl, r0, lsl #6
    3094:	05040200 	streq	r0, [r4, #-512]	; 0xfffffe00
    3098:	00746e69 	rsbseq	r6, r4, r9, ror #28
    309c:	eb070403 	bl	1c40b0 <__bss_end__+0x1b90a0>
    30a0:	03000000 	movweq	r0, #0
    30a4:	00450601 	subeq	r0, r5, r1, lsl #12
    30a8:	02030000 	andeq	r0, r3, #0, 0
    30ac:	0001cd05 	andeq	ip, r1, r5, lsl #26
    30b0:	05040300 	streq	r0, [r4, #-768]	; 0xfffffd00
    30b4:	000000fd 	strdeq	r0, [r0], -sp
    30b8:	f8050803 			; <UNDEFINED> instruction: 0xf8050803
    30bc:	03000000 	movweq	r0, #0
    30c0:	00430801 	subeq	r0, r3, r1, lsl #16
    30c4:	02030000 	andeq	r0, r3, #0, 0
    30c8:	00007d07 	andeq	r7, r0, r7, lsl #26
    30cc:	07040300 	streq	r0, [r4, -r0, lsl #6]
    30d0:	000000e6 	andeq	r0, r0, r6, ror #1
    30d4:	e1070803 	tst	r7, r3, lsl #16
    30d8:	04000000 	streq	r0, [r0], #-0
    30dc:	00000025 	andeq	r0, r0, r5, lsr #32
    30e0:	0000007a 	andeq	r0, r0, sl, ror r0
    30e4:	00002505 	andeq	r2, r0, r5, lsl #10
    30e8:	06060000 	streq	r0, [r6], -r0
    30ec:	02000001 	andeq	r0, r0, #1, 0
    30f0:	00860e1c 	addeq	r0, r6, ip, lsl lr
    30f4:	04070000 	streq	r0, [r7], #-0
    30f8:	0000006b 	andeq	r0, r0, fp, rrx
    30fc:	00002504 	andeq	r2, r0, r4, lsl #10
    3100:	00009b00 	andeq	r9, r0, r0, lsl #22
    3104:	009b0500 	addseq	r0, fp, r0, lsl #10
    3108:	07000000 	streq	r0, [r0, -r0]
    310c:	0000a804 	andeq	sl, r0, r4, lsl #16
    3110:	08010300 	stmdaeq	r1, {r8, r9}
    3114:	0000004c 	andeq	r0, r0, ip, asr #32
    3118:	0000a108 	andeq	sl, r0, r8, lsl #2
    311c:	06ba0600 	ldrteq	r0, [sl], r0, lsl #12
    3120:	21020000 	mrscs	r0, (UNDEF: 2)
    3124:	0000b90e 	andeq	fp, r0, lr, lsl #18
    3128:	8c040700 	stchi	7, cr0, [r4], {-0}
    312c:	09000000 	stmdbeq	r0, {}	; <UNPREDICTABLE>
    3130:	00000804 	andeq	r0, r0, r4, lsl #16
    3134:	10060401 	andne	r0, r6, r1, lsl #8
    3138:	f8000098 			; <UNDEFINED> instruction: 0xf8000098
    313c:	01000000 	mrseq	r0, (UNDEF: 0)
    3140:	00015b9c 	muleq	r1, ip, fp
    3144:	037b0600 	cmneq	fp, #0, 12
    3148:	05010000 	streq	r0, [r1, #-0]
    314c:	00002510 	andeq	r2, r0, r0, lsl r5
    3150:	05020600 	streq	r0, [r2, #-1536]	; 0xfffffa00
    3154:	05010000 	streq	r0, [r1, #-0]
    3158:	0000251f 	andeq	r2, r0, pc, lsl r5
    315c:	00270a00 	eoreq	r0, r7, r0, lsl #20
    3160:	06010000 	streq	r0, [r1], -r0
    3164:	73620b07 	cmnvc	r2, #7168	; 0x1c00
    3168:	0a010073 	beq	4333c <__bss_end__+0x3832c>
    316c:	00015b0a 	andeq	r5, r1, sl, lsl #22
    3170:	00231100 	eoreq	r1, r3, r0, lsl #2
    3174:	0022f900 	eoreq	pc, r2, r0, lsl #18
    3178:	080c0c00 	stmdaeq	ip, {sl, fp}
    317c:	0b010000 	bleq	43184 <__bss_end__+0x38174>
    3180:	00015b0a 	andeq	r5, r1, sl, lsl #22
    3184:	98e80d00 	stmials	r8!, {r8, sl, fp}^
    3188:	00080000 	andeq	r0, r8, r0
    318c:	01360000 	teqeq	r6, r0
    3190:	690b0000 	stmdbvs	fp, {}	; <UNPREDICTABLE>
    3194:	1401006e 	strne	r0, [r1], #-110	; 0xffffff92
    3198:	00002c05 	andeq	r2, r0, r5, lsl #24
    319c:	0023ab00 	eoreq	sl, r3, r0, lsl #22
    31a0:	0023a900 	eoreq	sl, r3, r0, lsl #18
    31a4:	180e0000 	stmdane	lr, {}	; <UNPREDICTABLE>
    31a8:	61000098 	swpvs	r0, r8, [r0]	; <UNPREDICTABLE>
    31ac:	0e000001 	cdpeq	0, 0, cr0, cr0, cr1, {0}
    31b0:	000098e8 	andeq	r9, r0, r8, ror #17
    31b4:	0000016e 	andeq	r0, r0, lr, ror #2
    31b8:	0098f40e 	addseq	pc, r8, lr, lsl #8
    31bc:	00017a00 	andeq	r7, r1, r0, lsl #20
    31c0:	98f80e00 	ldmls	r8!, {r9, sl, fp}^
    31c4:	01870000 	orreq	r0, r7, r0
    31c8:	07000000 	streq	r0, [r0, -r0]
    31cc:	00002504 	andeq	r2, r0, r4, lsl #10
    31d0:	081e0f00 	ldmdaeq	lr, {r8, r9, sl, fp}
    31d4:	081e0000 	ldmdaeq	lr, {}	; <UNPREDICTABLE>
    31d8:	31020000 	mrscc	r0, (UNDEF: 2)
    31dc:	14100601 	ldrne	r0, [r0], #-1537	; 0xfffff9ff
    31e0:	14000008 	strne	r0, [r0], #-8
    31e4:	02000008 	andeq	r0, r0, #8, 0
    31e8:	270f063b 	smladxcs	pc, fp, r6, r0	; <UNPREDICTABLE>
    31ec:	27000000 	strcs	r0, [r0, -r0]
    31f0:	02000000 	andeq	r0, r0, #0, 0
    31f4:	10060105 	andne	r0, r6, r5, lsl #2
    31f8:	00000051 	andeq	r0, r0, r1, asr r0
    31fc:	00000051 	andeq	r0, r0, r1, asr r0
    3200:	00066e02 	andeq	r6, r6, r2, lsl #28
    3204:	000000ce 	andeq	r0, r0, lr, asr #1
    3208:	11690004 	cmnne	r9, r4
    320c:	01040000 	mrseq	r0, (UNDEF: 4)
    3210:	0000059a 	muleq	r0, sl, r5
    3214:	0008410c 	andeq	r4, r8, ip, lsl #2
    3218:	00065200 	andeq	r5, r6, r0, lsl #4
    321c:	00990800 	addseq	r0, r9, r0, lsl #16
    3220:	00000400 	andeq	r0, r0, r0, lsl #8
    3224:	001b2900 	andseq	r2, fp, r0, lsl #18
    3228:	05040200 	streq	r0, [r4, #-512]	; 0xfffffe00
    322c:	00746e69 	rsbseq	r6, r4, r9, ror #28
    3230:	eb070403 	bl	1c4244 <__bss_end__+0x1b9234>
    3234:	03000000 	movweq	r0, #0
    3238:	00450601 	subeq	r0, r5, r1, lsl #12
    323c:	02030000 	andeq	r0, r3, #0, 0
    3240:	0001cd05 	andeq	ip, r1, r5, lsl #26
    3244:	05040300 	streq	r0, [r4, #-768]	; 0xfffffd00
    3248:	000000fd 	strdeq	r0, [r0], -sp
    324c:	f8050803 			; <UNDEFINED> instruction: 0xf8050803
    3250:	03000000 	movweq	r0, #0
    3254:	00430801 	subeq	r0, r3, r1, lsl #16
    3258:	02030000 	andeq	r0, r3, #0, 0
    325c:	00007d07 	andeq	r7, r0, r7, lsl #26
    3260:	07040300 	streq	r0, [r4, -r0, lsl #6]
    3264:	000000e6 	andeq	r0, r0, r6, ror #1
    3268:	e1070803 	tst	r7, r3, lsl #16
    326c:	04000000 	streq	r0, [r0], #-0
    3270:	00000025 	andeq	r0, r0, r5, lsr #32
    3274:	0000007a 	andeq	r0, r0, sl, ror r0
    3278:	00002505 	andeq	r2, r0, r5, lsl #10
    327c:	06060000 	streq	r0, [r6], -r0
    3280:	02000001 	andeq	r0, r0, #1, 0
    3284:	00860e1c 	addeq	r0, r6, ip, lsl lr
    3288:	04070000 	streq	r0, [r7], #-0
    328c:	0000006b 	andeq	r0, r0, fp, rrx
    3290:	00002504 	andeq	r2, r0, r4, lsl #10
    3294:	00009b00 	andeq	r9, r0, r0, lsl #22
    3298:	009b0500 	addseq	r0, fp, r0, lsl #10
    329c:	07000000 	streq	r0, [r0, -r0]
    32a0:	0000a804 	andeq	sl, r0, r4, lsl #16
    32a4:	08010300 	stmdaeq	r1, {r8, r9}
    32a8:	0000004c 	andeq	r0, r0, ip, asr #32
    32ac:	0000a108 	andeq	sl, r0, r8, lsl #2
    32b0:	06ba0600 	ldrteq	r0, [sl], r0, lsl #12
    32b4:	21020000 	mrscs	r0, (UNDEF: 2)
    32b8:	0000b90e 	andeq	fp, r0, lr, lsl #18
    32bc:	8c040700 	stchi	7, cr0, [r4], {-0}
    32c0:	09000000 	stmdbeq	r0, {}	; <UNPREDICTABLE>
    32c4:	0000081e 	andeq	r0, r0, lr, lsl r8
    32c8:	08060401 	stmdaeq	r6, {r0, sl}
    32cc:	04000099 	streq	r0, [r0], #-153	; 0xffffff67
    32d0:	01000000 	mrseq	r0, (UNDEF: 0)
    32d4:	027d009c 	rsbseq	r0, sp, #156, 0	; 0x9c
    32d8:	00040000 	andeq	r0, r4, r0
    32dc:	000011e2 	andeq	r1, r0, r2, ror #3
    32e0:	059a0104 	ldreq	r0, [sl, #260]	; 0x104
    32e4:	890c0000 	stmdbhi	ip, {}	; <UNPREDICTABLE>
    32e8:	52000008 	andpl	r0, r0, #8, 0
    32ec:	20000006 	andcs	r0, r0, r6
    32f0:	00000003 	andeq	r0, r0, r3
    32f4:	aa000000 	bge	32fc <__code_start__-0x4d04>
    32f8:	0200001b 	andeq	r0, r0, #27, 0
    32fc:	6e690504 	cdpvs	5, 6, cr0, cr9, cr4, {0}
    3300:	25030074 	strcs	r0, [r3, #-116]	; 0xffffff8c
    3304:	04000000 	streq	r0, [r0], #-0
    3308:	00eb0704 	rsceq	r0, fp, r4, lsl #14
    330c:	01040000 	mrseq	r0, (UNDEF: 4)
    3310:	00004506 	andeq	r4, r0, r6, lsl #10
    3314:	05020400 	streq	r0, [r2, #-1024]	; 0xfffffc00
    3318:	000001cd 	andeq	r0, r0, sp, asr #3
    331c:	fd050404 	stc2	4, cr0, [r5, #-16]
    3320:	04000000 	streq	r0, [r0], #-0
    3324:	00f80508 	rscseq	r0, r8, r8, lsl #10
    3328:	01040000 	mrseq	r0, (UNDEF: 4)
    332c:	00004308 	andeq	r4, r0, r8, lsl #6
    3330:	07020400 	streq	r0, [r2, -r0, lsl #8]
    3334:	0000007d 	andeq	r0, r0, sp, ror r0
    3338:	e6070404 	str	r0, [r7], -r4, lsl #8
    333c:	04000000 	streq	r0, [r0], #-0
    3340:	00e10708 	rsceq	r0, r1, r8, lsl #14
    3344:	25050000 	strcs	r0, [r5, #-0]
    3348:	7f000000 	svcvc	0x00000000
    334c:	06000000 	streq	r0, [r0], -r0
    3350:	00000025 	andeq	r0, r0, r5, lsr #32
    3354:	01060700 	tsteq	r6, r0, lsl #14
    3358:	1c020000 	stcne	0, cr0, [r2], {-0}
    335c:	00008b0e 	andeq	r8, r0, lr, lsl #22
    3360:	70040800 	andvc	r0, r4, r0, lsl #16
    3364:	05000000 	streq	r0, [r0, #-0]
    3368:	00000025 	andeq	r0, r0, r5, lsr #32
    336c:	000000a0 	andeq	r0, r0, r0, lsr #1
    3370:	0000a006 	andeq	sl, r0, r6
    3374:	04080000 	streq	r0, [r8], #-0
    3378:	000000ad 	andeq	r0, r0, sp, lsr #1
    337c:	4c080104 	stfmis	f0, [r8], {4}
    3380:	03000000 	movweq	r0, #0
    3384:	000000a6 	andeq	r0, r0, r6, lsr #1
    3388:	0006ba07 	andeq	fp, r6, r7, lsl #20
    338c:	0e210200 	cdpeq	2, 2, cr0, cr1, cr0, {0}
    3390:	000000be 	strheq	r0, [r0], -lr
    3394:	00910408 	addseq	r0, r1, r8, lsl #8
    3398:	ad090000 	stcge	0, cr0, [r9, #-0]
    339c:	01000008 	tsteq	r0, r8
    33a0:	0031110d 	eorseq	r1, r1, sp, lsl #2
    33a4:	c70a0000 	strgt	r0, [sl, -r0]
    33a8:	01000007 	tsteq	r0, r7
    33ac:	9938061f 	ldmdbls	r8!, {r0, r1, r2, r3, r4, r9, sl}
    33b0:	00600000 	rsbeq	r0, r0, r0
    33b4:	9c010000 	stcls	0, cr0, [r1], {-0}
    33b8:	000001d5 	ldrdeq	r0, [r0], -r5
    33bc:	0008d10b 	andeq	sp, r8, fp, lsl #2
    33c0:	0f2c0100 	svceq	0x002c0100
    33c4:	0000002c 	andeq	r0, r0, ip, lsr #32
    33c8:	2010001c 	andscs	r0, r0, ip, lsl r0
    33cc:	00086c0b 	andeq	r6, r8, fp, lsl #24
    33d0:	0f2d0100 	svceq	0x002d0100
    33d4:	0000002c 	andeq	r0, r0, ip, lsr #32
    33d8:	20100024 	andscs	r0, r0, r4, lsr #32
    33dc:	00089e0b 	andeq	r9, r8, fp, lsl #28
    33e0:	0f2e0100 	svceq	0x002e0100
    33e4:	0000002c 	andeq	r0, r0, ip, lsr #32
    33e8:	5a000000 	bpl	33f0 <__code_start__-0x4c10>
    33ec:	0008b80c 	andeq	fp, r8, ip, lsl #16
    33f0:	0f2f0100 	svceq	0x002f0100
    33f4:	0000002c 	andeq	r0, r0, ip, lsr #32
    33f8:	01ef0d20 	mvneq	r0, r0, lsr #26
    33fc:	99380000 	ldmdbls	r8!, {}	; <UNPREDICTABLE>
    3400:	08020000 	stmdaeq	r2, {}	; <UNPREDICTABLE>
    3404:	01000003 	tsteq	r0, r3
    3408:	014c0820 	cmpeq	ip, r0, lsr #16
    340c:	080e0000 	stmdaeq	lr, {}	; <UNPREDICTABLE>
    3410:	0f000003 	svceq	0x00000003
    3414:	00000200 	andeq	r0, r0, r0, lsl #4
    3418:	000023c3 	andeq	r2, r0, r3, asr #7
    341c:	000023bf 			; <UNDEFINED> instruction: 0x000023bf
    3420:	d5100000 	ldrle	r0, [r0, #-0]
    3424:	4c000001 	stcmi	0, cr0, [r0], {1}
    3428:	01000099 	swpeq	r0, r9, [r0]	; <UNPREDICTABLE>
    342c:	0000994c 	andeq	r9, r0, ip, asr #18
    3430:	00000010 	andeq	r0, r0, r0, lsl r0
    3434:	73092101 	movwvc	r2, #37121	; 0x9101
    3438:	0f000001 	svceq	0x00000001
    343c:	000001e2 	andeq	r0, r0, r2, ror #3
    3440:	000023ea 	andeq	r2, r0, sl, ror #7
    3444:	000023e2 	andeq	r2, r0, r2, ror #7
    3448:	99601100 	stmdbls	r0!, {r8, ip}^
    344c:	024f0000 	subeq	r0, pc, #0, 0
    3450:	64110000 	ldrvs	r0, [r1], #-0
    3454:	5c000099 	stcpl	0, cr0, [r0], {153}	; 0x99
    3458:	12000002 	andne	r0, r0, #2, 0
    345c:	0000996c 	andeq	r9, r0, ip, ror #18
    3460:	00000268 	andeq	r0, r0, r8, ror #4
    3464:	00000198 	muleq	r0, r8, r1
    3468:	01500113 	cmpeq	r0, r3, lsl r1
    346c:	7812003a 	ldmdavc	r2, {r1, r3, r4, r5}
    3470:	74000099 	strvc	r0, [r0], #-153	; 0xffffff67
    3474:	b8000002 	stmdalt	r0, {r1}
    3478:	13000001 	movwne	r0, #1
    347c:	0c055001 	stceq	0, cr5, [r5], {1}
    3480:	20100024 	andscs	r0, r0, r4, lsr #32
    3484:	05510113 	ldrbeq	r0, [r1, #-275]	; 0xfffffeed
    3488:	0000010c 	andeq	r0, r0, ip, lsl #2
    348c:	8414005a 	ldrhi	r0, [r4], #-90	; 0xffffffa6
    3490:	74000099 	strvc	r0, [r0], #-153	; 0xffffff67
    3494:	13000002 	movwne	r0, #2
    3498:	0c055001 	stceq	0, cr5, [r5], {1}
    349c:	2010001c 	andscs	r0, r0, ip, lsl r0
    34a0:	05510113 	ldrbeq	r0, [r1, #-275]	; 0xfffffeed
    34a4:	0000200c 	andeq	r2, r0, ip
    34a8:	1500005a 	strne	r0, [r0, #-90]	; 0xffffffa6
    34ac:	0000087a 	andeq	r0, r0, sl, ror r8
    34b0:	01061701 	tsteq	r6, r1, lsl #14
    34b4:	000001ef 	andeq	r0, r0, pc, ror #3
    34b8:	0008d909 	andeq	sp, r8, r9, lsl #18
    34bc:	0e180100 	mufeqe	f0, f0, f0
    34c0:	00000031 	andeq	r0, r0, r1, lsr r0
    34c4:	08aa1600 	stmiaeq	sl!, {r9, sl, ip}
    34c8:	0e010000 	cdpeq	0, 0, cr0, cr1, cr0, {0}
    34cc:	00002505 	andeq	r2, r0, r5, lsl #10
    34d0:	020d0100 	andeq	r0, sp, #0
    34d4:	d9090000 	stmdble	r9, {}	; <UNPREDICTABLE>
    34d8:	01000008 	tsteq	r0, r8
    34dc:	00310e0f 	eorseq	r0, r1, pc, lsl #28
    34e0:	17000000 	strne	r0, [r0, -r0]
    34e4:	000001ef 	andeq	r0, r0, pc, ror #3
    34e8:	0000990c 	andeq	r9, r0, ip, lsl #18
    34ec:	00000018 	andeq	r0, r0, r8, lsl r0
    34f0:	022e9c01 	eoreq	r9, lr, #256	; 0x100
    34f4:	000f0000 	andeq	r0, pc, r0
    34f8:	27000002 	strcs	r0, [r0, -r2]
    34fc:	23000024 	movwcs	r0, #36	; 0x24
    3500:	00000024 	andeq	r0, r0, r4, lsr #32
    3504:	0001d517 	andeq	sp, r1, r7, lsl r5
    3508:	00992400 	addseq	r2, r9, r0, lsl #8
    350c:	00001400 	andeq	r1, r0, r0, lsl #8
    3510:	4f9c0100 	svcmi	0x009c0100
    3514:	0f000002 	svceq	0x00000002
    3518:	000001e2 	andeq	r0, r0, r2, ror #3
    351c:	0000244e 	andeq	r2, r0, lr, asr #8
    3520:	00002446 	andeq	r2, r0, r6, asr #8
    3524:	085d1800 	ldmdaeq	sp, {fp, ip}^
    3528:	085d0000 	ldmdaeq	sp, {}^	; <UNPREDICTABLE>
    352c:	36020000 	strcc	r0, [r2], -r0
    3530:	f6190601 			; <UNDEFINED> instruction: 0xf6190601
    3534:	f6000007 			; <UNDEFINED> instruction: 0xf6000007
    3538:	02000007 	andeq	r0, r0, #7, 0
    353c:	d219064d 	andsle	r0, r9, #80740352	; 0x4d00000
    3540:	d2000007 	andle	r0, r0, #7, 0
    3544:	02000007 	andeq	r0, r0, #7, 0
    3548:	74190658 	ldrvc	r0, [r9], #-1624	; 0xfffff9a8
    354c:	74000008 	strvc	r0, [r0], #-8
    3550:	02000008 	andeq	r0, r0, #8, 0
    3554:	3f0006ad 	svccc	0x000006ad
    3558:	04000005 	streq	r0, [r0], #-5
    355c:	00136500 	andseq	r6, r3, r0, lsl #10
    3560:	9a010400 	bls	44568 <__bss_end__+0x39558>
    3564:	0c000005 	stceq	0, cr0, [r0], {5}
    3568:	000008f4 	strdeq	r0, [r0], -r4
    356c:	00000652 	andeq	r0, r0, r2, asr r6
    3570:	00009998 	muleq	r0, r8, r9
    3574:	0000011c 	andeq	r0, r0, ip, lsl r1
    3578:	00001cc2 	andeq	r1, r0, r2, asr #25
    357c:	69050402 	stmdbvs	r5, {r1, sl}
    3580:	0300746e 	movweq	r7, #1134	; 0x46e
    3584:	00eb0704 	rsceq	r0, fp, r4, lsl #14
    3588:	01030000 	mrseq	r0, (UNDEF: 3)
    358c:	00004506 	andeq	r4, r0, r6, lsl #10
    3590:	05020300 	streq	r0, [r2, #-768]	; 0xfffffd00
    3594:	000001cd 	andeq	r0, r0, sp, asr #3
    3598:	fd050403 	stc2	4, cr0, [r5, #-12]
    359c:	03000000 	movweq	r0, #0
    35a0:	00f80508 	rscseq	r0, r8, r8, lsl #10
    35a4:	01030000 	mrseq	r0, (UNDEF: 3)
    35a8:	00004308 	andeq	r4, r0, r8, lsl #6
    35ac:	07020300 	streq	r0, [r2, -r0, lsl #6]
    35b0:	0000007d 	andeq	r0, r0, sp, ror r0
    35b4:	e6070403 	str	r0, [r7], -r3, lsl #8
    35b8:	03000000 	movweq	r0, #0
    35bc:	00e10708 	rsceq	r0, r1, r8, lsl #14
    35c0:	25040000 	strcs	r0, [r4, #-0]
    35c4:	7a000000 	bvc	35cc <__code_start__-0x4a34>
    35c8:	05000000 	streq	r0, [r0, #-0]
    35cc:	00000025 	andeq	r0, r0, r5, lsr #32
    35d0:	01060600 	tsteq	r6, r0, lsl #12
    35d4:	1c020000 	stcne	0, cr0, [r2], {-0}
    35d8:	0000860e 	andeq	r8, r0, lr, lsl #12
    35dc:	6b040700 	blvs	1051e4 <__bss_end__+0xfa1d4>
    35e0:	04000000 	streq	r0, [r0], #-0
    35e4:	00000025 	andeq	r0, r0, r5, lsr #32
    35e8:	0000009b 	muleq	r0, fp, r0
    35ec:	00009b05 	andeq	r9, r0, r5, lsl #22
    35f0:	04070000 	streq	r0, [r7], #-0
    35f4:	000000a8 	andeq	r0, r0, r8, lsr #1
    35f8:	4c080103 	stfmis	f0, [r8], {3}
    35fc:	08000000 	stmdaeq	r0, {}	; <UNPREDICTABLE>
    3600:	000000a1 	andeq	r0, r0, r1, lsr #1
    3604:	0006ba06 	andeq	fp, r6, r6, lsl #20
    3608:	0e210200 	cdpeq	2, 2, cr0, cr1, cr0, {0}
    360c:	000000b9 	strheq	r0, [r0], -r9
    3610:	008c0407 	addeq	r0, ip, r7, lsl #8
    3614:	ea090000 	b	24361c <__bss_end__+0x23860c>
    3618:	01000008 	tsteq	r0, r8
    361c:	9a60061e 	bls	1804e9c <__bss_end__+0x17f9e8c>
    3620:	00540000 	subseq	r0, r4, r0
    3624:	9c010000 	stcls	0, cr0, [r1], {-0}
    3628:	0000020b 	andeq	r0, r0, fp, lsl #4
    362c:	6365730a 	cmnvs	r5, #671088640	; 0x28000000
    3630:	191e0100 	ldmdbne	lr, {r8}
    3634:	0000002c 	andeq	r0, r0, ip, lsr #32
    3638:	0000248b 	andeq	r2, r0, fp, lsl #9
    363c:	00002487 	andeq	r2, r0, r7, lsl #9
    3640:	00020b0b 	andeq	r0, r2, fp, lsl #22
    3644:	009a6000 	addseq	r6, sl, r0
    3648:	03e80200 	mvneq	r0, #0, 4
    364c:	1f010000 	svcne	0x00010000
    3650:	02180c05 	andseq	r0, r8, #1280	; 0x500
    3654:	24b00000 	ldrtcs	r0, [r0], #0
    3658:	24ac0000 	strtcs	r0, [ip], #0
    365c:	240d0000 	strcs	r0, [sp], #-0
    3660:	74000002 	strvc	r0, [r0], #-2
    3664:	0000009a 	muleq	r0, sl, r0
    3668:	00009a74 	andeq	r9, r0, r4, ror sl
    366c:	00000040 	andeq	r0, r0, r0, asr #32
    3670:	0c051c01 	stceq	12, cr1, [r5], {1}
    3674:	00000231 	andeq	r0, r0, r1, lsr r2
    3678:	000024dd 	ldrdeq	r2, [r0], -sp
    367c:	000024db 	ldrdeq	r2, [r0], -fp
    3680:	00023c0e 	andeq	r3, r2, lr, lsl #24
    3684:	0024f200 	eoreq	pc, r4, r0, lsl #4
    3688:	0024f000 	eoreq	pc, r4, r0
    368c:	02550f00 	subseq	r0, r5, #0, 30
    3690:	9a740000 	bls	1d03698 <__bss_end__+0x1cf8688>
    3694:	74020000 	strvc	r0, [r2], #-0
    3698:	1400009a 	strne	r0, [r0], #-154	; 0xffffff66
    369c:	01000000 	mrseq	r0, (UNDEF: 0)
    36a0:	019c1313 	orrseq	r1, ip, r3, lsl r3
    36a4:	660e0000 	strvs	r0, [lr], -r0
    36a8:	09000002 	stmdbeq	r0, {r1}
    36ac:	05000025 	streq	r0, [r0, #-37]	; 0xffffffdb
    36b0:	0f000025 	svceq	0x00000025
    36b4:	00000271 	andeq	r0, r0, r1, ror r2
    36b8:	00009a78 	andeq	r9, r0, r8, ror sl
    36bc:	009a7801 	addseq	r7, sl, r1, lsl #16
    36c0:	00000c00 	andeq	r0, r0, r0, lsl #24
    36c4:	120d0100 	andne	r0, sp, #0
    36c8:	00000189 	andeq	r0, r0, r9, lsl #3
    36cc:	009a8010 	addseq	r8, sl, r0, lsl r0
    36d0:	00052a00 	andeq	r2, r5, r0, lsl #20
    36d4:	50011100 	andpl	r1, r1, r0, lsl #2
    36d8:	30040c05 	andcc	r0, r4, r5, lsl #24
    36dc:	00002000 	andeq	r2, r0, r0
    36e0:	009a7812 	addseq	r7, sl, r2, lsl r8
    36e4:	00053600 	andeq	r3, r5, r0, lsl #12
    36e8:	9a881200 	bls	fe207ef0 <__bss_end__+0xfe1fcee0>
    36ec:	05360000 	ldreq	r0, [r6, #-0]!
    36f0:	13000000 	movwne	r0, #0
    36f4:	00000247 	andeq	r0, r0, r7, asr #4
    36f8:	00000400 	andeq	r0, r0, r0, lsl #8
    36fc:	00024814 	andeq	r4, r2, r4, lsl r8
    3700:	02550b00 	subseq	r0, r5, #0, 22
    3704:	9a8c0000 	bls	fe30370c <__bss_end__+0xfe2f86fc>
    3708:	18020000 	stmdane	r2, {}	; <UNPREDICTABLE>
    370c:	01000004 	tsteq	r0, r4
    3710:	18151715 	ldmdane	r5, {r0, r2, r4, r8, r9, sl, ip}
    3714:	0e000004 	cdpeq	0, 0, cr0, cr0, cr4, {0}
    3718:	00000266 	andeq	r0, r0, r6, ror #4
    371c:	00002529 	andeq	r2, r0, r9, lsr #10
    3720:	00002527 	andeq	r2, r0, r7, lsr #10
    3724:	00027116 	andeq	r7, r2, r6, lsl r1
    3728:	009a9000 	addseq	r9, sl, r0
    372c:	04380100 	ldrteq	r0, [r8], #-256	; 0xffffff00
    3730:	0d010000 	stceq	0, cr0, [r1, #-0]
    3734:	0001f312 	andeq	pc, r1, r2, lsl r3	; <UNPREDICTABLE>
    3738:	9a981000 	bls	fe607740 <__bss_end__+0xfe5fc730>
    373c:	052a0000 	streq	r0, [sl, #-0]!
    3740:	01110000 	tsteq	r1, r0
    3744:	00770250 	rsbseq	r0, r7, r0, asr r2
    3748:	90120000 	andsls	r0, r2, r0
    374c:	3600009a 			; <UNDEFINED> instruction: 0x3600009a
    3750:	12000005 	andne	r0, r0, #5, 0
    3754:	00009aa4 	andeq	r9, r0, r4, lsr #21
    3758:	00000536 	andeq	r0, r0, r6, lsr r5
    375c:	00000000 	andeq	r0, r0, r0
    3760:	d2170000 	andsle	r0, r7, #0, 0
    3764:	01000007 	tsteq	r0, r7
    3768:	2401061b 	strcs	r0, [r1], #-1563	; 0xfffff9e5
    376c:	18000002 	stmdane	r0, {r1}
    3770:	0100736d 	tsteq	r0, sp, ror #6
    3774:	002c181b 	eoreq	r1, ip, fp, lsl r8
    3778:	17000000 	strne	r0, [r0, -r0]
    377c:	0000091d 	andeq	r0, r0, sp, lsl r9
    3780:	01061201 	tsteq	r6, r1, lsl #4
    3784:	00000255 	andeq	r0, r0, r5, asr r2
    3788:	00737518 	rsbseq	r7, r3, r8, lsl r5
    378c:	2c181201 	lfmcs	f1, 4, [r8], {1}
    3790:	19000000 	stmdbne	r0, {}	; <UNPREDICTABLE>
    3794:	01006272 	tsteq	r0, r2, ror r2
    3798:	002c0e13 	eoreq	r0, ip, r3, lsl lr
    379c:	191a0000 	ldmdbne	sl, {}	; <UNPREDICTABLE>
    37a0:	01006172 	tsteq	r0, r2, ror r1
    37a4:	002c1215 	eoreq	r1, ip, r5, lsl r2
    37a8:	00000000 	andeq	r0, r0, r0
    37ac:	00090e1b 	andeq	r0, r9, fp, lsl lr
    37b0:	0a090100 	beq	243bb8 <__bss_end__+0x238ba8>
    37b4:	0000002c 	andeq	r0, r0, ip, lsr #32
    37b8:	00027101 	andeq	r7, r2, r1, lsl #2
    37bc:	00751900 	rsbseq	r1, r5, r0, lsl #18
    37c0:	2c0e0d01 	stccs	13, cr0, [lr], {1}
    37c4:	00000000 	andeq	r0, r0, r0
    37c8:	0009261c 	andeq	r2, r9, ip, lsl r6
    37cc:	0a040100 	beq	103bd4 <__bss_end__+0xf8bc4>
    37d0:	0000002c 	andeq	r0, r0, ip, lsr #32
    37d4:	02711d01 	rsbseq	r1, r1, #64	; 0x40
    37d8:	99980000 	ldmibls	r8, {}	; <UNPREDICTABLE>
    37dc:	000c0000 	andeq	r0, ip, r0
    37e0:	9c010000 	stcls	0, cr0, [r1], {-0}
    37e4:	000002a5 	andeq	r0, r0, r5, lsr #5
    37e8:	0099a01e 	addseq	sl, r9, lr, lsl r0
    37ec:	00052a00 	andeq	r2, r5, r0, lsl #20
    37f0:	50011100 	andpl	r1, r1, r0, lsl #2
    37f4:	30040c05 	andcc	r0, r4, r5, lsl #24
    37f8:	00002000 	andeq	r2, r0, r0
    37fc:	0002551d 	andeq	r5, r2, sp, lsl r5
    3800:	0099a400 	addseq	sl, r9, r0, lsl #8
    3804:	00002400 	andeq	r2, r0, r0, lsl #8
    3808:	059c0100 	ldreq	r0, [ip, #256]	; 0x100
    380c:	0e000003 	cdpeq	0, 0, cr0, cr0, cr3, {0}
    3810:	00000266 	andeq	r0, r0, r6, ror #4
    3814:	00002540 	andeq	r2, r0, r0, asr #10
    3818:	0000253c 	andeq	r2, r0, ip, lsr r5
    381c:	0002710f 	andeq	r7, r2, pc, lsl #2
    3820:	0099ac00 	addseq	sl, r9, r0, lsl #24
    3824:	99ac0100 	stmibls	ip!, {r8}
    3828:	000c0000 	andeq	r0, ip, r0
    382c:	0d010000 	stceq	0, cr0, [r1, #-0]
    3830:	0002f212 	andeq	pc, r2, r2, lsl r2	; <UNPREDICTABLE>
    3834:	99b41000 	ldmibls	r4!, {ip}
    3838:	052a0000 	streq	r0, [sl, #-0]!
    383c:	01110000 	tsteq	r1, r0
    3840:	040c0550 	streq	r0, [ip], #-1360	; 0xfffffab0
    3844:	00200030 	eoreq	r0, r0, r0, lsr r0
    3848:	99ac1200 	stmibls	ip!, {r9, ip}
    384c:	05360000 	ldreq	r0, [r6, #-0]!
    3850:	bc120000 	ldclt	0, cr0, [r2], {-0}
    3854:	36000099 			; <UNDEFINED> instruction: 0x36000099
    3858:	00000005 	andeq	r0, r0, r5
    385c:	0002241d 	andeq	r2, r2, sp, lsl r4
    3860:	0099c800 	addseq	ip, r9, r0, lsl #16
    3864:	00004800 	andeq	r4, r0, r0, lsl #16
    3868:	079c0100 	ldreq	r0, [ip, r0, lsl #2]
    386c:	0c000004 	stceq	0, cr0, [r0], {4}
    3870:	00000231 	andeq	r0, r0, r1, lsr r2
    3874:	00002562 	andeq	r2, r0, r2, ror #10
    3878:	0000255e 	andeq	r2, r0, lr, asr r5
    387c:	00023c0e 	andeq	r3, r2, lr, lsl #24
    3880:	00258200 	eoreq	r8, r5, r0, lsl #4
    3884:	00258000 	eoreq	r8, r5, r0
    3888:	02551600 	subseq	r1, r5, #0, 12
    388c:	99c80000 	stmibls	r8, {}^	; <UNPREDICTABLE>
    3890:	30020000 	andcc	r0, r2, r0
    3894:	01000003 	tsteq	r0, r3
    3898:	039a1313 	orrseq	r1, sl, #1275068416	; 0x4c000000
    389c:	30150000 	andscc	r0, r5, r0
    38a0:	0e000003 	cdpeq	0, 0, cr0, cr0, cr3, {0}
    38a4:	00000266 	andeq	r0, r0, r6, ror #4
    38a8:	00002599 	muleq	r0, r9, r5
    38ac:	00002595 	muleq	r0, r5, r5
    38b0:	0002710f 	andeq	r7, r2, pc, lsl #2
    38b4:	0099d400 	addseq	sp, r9, r0, lsl #8
    38b8:	99d40100 	ldmibls	r4, {r8}^
    38bc:	000c0000 	andeq	r0, ip, r0
    38c0:	0d010000 	stceq	0, cr0, [r1, #-0]
    38c4:	00038612 	andeq	r8, r3, r2, lsl r6
    38c8:	99dc1000 	ldmibls	ip, {ip}^
    38cc:	052a0000 	streq	r0, [sl, #-0]!
    38d0:	01110000 	tsteq	r1, r0
    38d4:	040c0550 	streq	r0, [ip], #-1360	; 0xfffffab0
    38d8:	00200030 	eoreq	r0, r0, r0, lsr r0
    38dc:	99d41200 	ldmibls	r4, {r9, ip}^
    38e0:	05360000 	ldreq	r0, [r6, #-0]!
    38e4:	e4120000 	ldr	r0, [r2], #-0
    38e8:	36000099 			; <UNDEFINED> instruction: 0x36000099
    38ec:	00000005 	andeq	r0, r0, r5
    38f0:	02471300 	subeq	r1, r7, #0, 6
    38f4:	03480000 	movteq	r0, #32768	; 0x8000
    38f8:	48140000 	ldmdami	r4, {}	; <UNPREDICTABLE>
    38fc:	0b000002 	bleq	390c <__code_start__-0x46f4>
    3900:	00000255 	andeq	r0, r0, r5, asr r2
    3904:	000099e8 	andeq	r9, r0, r8, ror #19
    3908:	00036002 	andeq	r6, r3, r2
    390c:	17150100 	ldrne	r0, [r5, -r0, lsl #2]
    3910:	00036015 	andeq	r6, r3, r5, lsl r0
    3914:	02660e00 	rsbeq	r0, r6, #0, 28
    3918:	25b90000 	ldrcs	r0, [r9, #0]!
    391c:	25b70000 	ldrcs	r0, [r7, #0]!
    3920:	71160000 	tstvc	r6, r0
    3924:	ec000002 	stc	0, cr0, [r0], {2}
    3928:	01000099 	swpeq	r0, r9, [r0]	; <UNPREDICTABLE>
    392c:	00000380 	andeq	r0, r0, r0, lsl #7
    3930:	f1120d01 			; <UNDEFINED> instruction: 0xf1120d01
    3934:	10000003 	andne	r0, r0, r3
    3938:	000099f4 	strdeq	r9, [r0], -r4
    393c:	0000052a 	andeq	r0, r0, sl, lsr #10
    3940:	02500111 	subseq	r0, r0, #1073741828	; 0x40000004
    3944:	00000077 	andeq	r0, r0, r7, ror r0
    3948:	0099ec12 	addseq	lr, r9, r2, lsl ip
    394c:	00053600 	andeq	r3, r5, r0, lsl #12
    3950:	9a001200 	bls	8158 <ck_hdr_end+0x4>
    3954:	05360000 	ldreq	r0, [r6, #-0]!
    3958:	00000000 	andeq	r0, r0, r0
    395c:	0b1d0000 	bleq	743964 <__bss_end__+0x738954>
    3960:	10000002 	andne	r0, r0, r2
    3964:	5000009a 	mulpl	r0, sl, r0
    3968:	01000000 	mrseq	r0, (UNDEF: 0)
    396c:	00052a9c 	muleq	r5, ip, sl
    3970:	02180c00 	andseq	r0, r8, #0, 24
    3974:	25d00000 	ldrbcs	r0, [r0]
    3978:	25cc0000 	strbcs	r0, [ip]
    397c:	240d0000 	strcs	r0, [sp], #-0
    3980:	20000002 	andcs	r0, r0, r2
    3984:	0000009a 	muleq	r0, sl, r0
    3988:	00009a20 	andeq	r9, r0, r0, lsr #20
    398c:	00000040 	andeq	r0, r0, r0, asr #32
    3990:	0c051c01 	stceq	12, cr1, [r5], {1}
    3994:	00000231 	andeq	r0, r0, r1, lsr r2
    3998:	000025f3 	strdeq	r2, [r0], -r3
    399c:	000025f1 	strdeq	r2, [r0], -r1
    39a0:	00023c0e 	andeq	r3, r2, lr, lsl #24
    39a4:	00260800 	eoreq	r0, r6, r0, lsl #16
    39a8:	00260600 	eoreq	r0, r6, r0, lsl #12
    39ac:	02550f00 	subseq	r0, r5, #0, 30
    39b0:	9a200000 	bls	8039b8 <__bss_end__+0x7f89a8>
    39b4:	20020000 	andcs	r0, r2, r0
    39b8:	1400009a 	strne	r0, [r0], #-154	; 0xffffff66
    39bc:	01000000 	mrseq	r0, (UNDEF: 0)
    39c0:	04bc1313 	ldrteq	r1, [ip], #787	; 0x313
    39c4:	660e0000 	strvs	r0, [lr], -r0
    39c8:	1f000002 	svcne	0x00000002
    39cc:	1b000026 	blne	3a6c <__code_start__-0x4594>
    39d0:	0f000026 	svceq	0x00000026
    39d4:	00000271 	andeq	r0, r0, r1, ror r2
    39d8:	00009a24 	andeq	r9, r0, r4, lsr #20
    39dc:	009a2401 	addseq	r2, sl, r1, lsl #8
    39e0:	00000c00 	andeq	r0, r0, r0, lsl #24
    39e4:	120d0100 	andne	r0, sp, #0
    39e8:	000004a9 	andeq	r0, r0, r9, lsr #9
    39ec:	009a2c10 	addseq	r2, sl, r0, lsl ip
    39f0:	00052a00 	andeq	r2, r5, r0, lsl #20
    39f4:	50011100 	andpl	r1, r1, r0, lsl #2
    39f8:	30040c05 	andcc	r0, r4, r5, lsl #24
    39fc:	00002000 	andeq	r2, r0, r0
    3a00:	009a2412 	addseq	r2, sl, r2, lsl r4
    3a04:	00053600 	andeq	r3, r5, r0, lsl #12
    3a08:	9a341200 	bls	d08210 <__bss_end__+0xcfd200>
    3a0c:	05360000 	ldreq	r0, [r6, #-0]!
    3a10:	13000000 	movwne	r0, #0
    3a14:	00000247 	andeq	r0, r0, r7, asr #4
    3a18:	00000398 	muleq	r0, r8, r3
    3a1c:	00024814 	andeq	r4, r2, r4, lsl r8
    3a20:	02550b00 	subseq	r0, r5, #0, 22
    3a24:	9a380000 	bls	e03a2c <__bss_end__+0xdf8a1c>
    3a28:	b0020000 	andlt	r0, r2, r0
    3a2c:	01000003 	tsteq	r0, r3
    3a30:	b0151715 	andslt	r1, r5, r5, lsl r7
    3a34:	0e000003 	cdpeq	0, 0, cr0, cr0, cr3, {0}
    3a38:	00000266 	andeq	r0, r0, r6, ror #4
    3a3c:	0000263f 	andeq	r2, r0, pc, lsr r6
    3a40:	0000263d 	andeq	r2, r0, sp, lsr r6
    3a44:	00027116 	andeq	r7, r2, r6, lsl r1
    3a48:	009a3c00 	addseq	r3, sl, r0, lsl #24
    3a4c:	03d00100 	bicseq	r0, r0, #0
    3a50:	0d010000 	stceq	0, cr0, [r1, #-0]
    3a54:	00051312 	andeq	r1, r5, r2, lsl r3
    3a58:	9a441000 	bls	1107a60 <__bss_end__+0x10fca50>
    3a5c:	052a0000 	streq	r0, [sl, #-0]!
    3a60:	01110000 	tsteq	r1, r0
    3a64:	00770250 	rsbseq	r0, r7, r0, asr r2
    3a68:	3c120000 	ldccc	0, cr0, [r2], {-0}
    3a6c:	3600009a 			; <UNDEFINED> instruction: 0x3600009a
    3a70:	12000005 	andne	r0, r0, #5, 0
    3a74:	00009a50 	andeq	r9, r0, r0, asr sl
    3a78:	00000536 	andeq	r0, r0, r6, lsr r5
    3a7c:	00000000 	andeq	r0, r0, r0
    3a80:	09081f00 	stmdbeq	r8, {r8, r9, sl, fp, ip}
    3a84:	09080000 	stmdbeq	r8, {}	; <UNPREDICTABLE>
    3a88:	c2020000 	andgt	r0, r2, #0, 0
    3a8c:	08de1f0a 	ldmeq	lr, {r1, r3, r8, r9, sl, fp, ip}^
    3a90:	08de0000 	ldmeq	lr, {}^	; <UNPREDICTABLE>
    3a94:	9c020000 	stcls	0, cr0, [r2], {-0}
    3a98:	05cd0006 	strbeq	r0, [sp, #6]
    3a9c:	00040000 	andeq	r0, r4, r0
    3aa0:	00001534 	andeq	r1, r0, r4, lsr r5
    3aa4:	0a390104 	beq	e43ebc <__bss_end__+0xe38eac>
    3aa8:	780c0000 	stmdavc	ip, {}	; <UNPREDICTABLE>
    3aac:	e9000009 	stmdb	r0, {r0, r3}
    3ab0:	b4000009 	strlt	r0, [r0], #-9
    3ab4:	f000009a 			; <UNDEFINED> instruction: 0xf000009a
    3ab8:	c0000001 	andgt	r0, r0, r1
    3abc:	0200001e 	andeq	r0, r0, #30, 0
    3ac0:	6e690504 	cdpvs	5, 6, cr0, cr9, cr4, {0}
    3ac4:	04030074 	streq	r0, [r3], #-116	; 0xffffff8c
    3ac8:	0000eb07 	andeq	lr, r0, r7, lsl #22
    3acc:	002c0400 	eoreq	r0, ip, r0, lsl #8
    3ad0:	01030000 	mrseq	r0, (UNDEF: 3)
    3ad4:	00004506 	andeq	r4, r0, r6, lsl #10
    3ad8:	05020300 	streq	r0, [r2, #-768]	; 0xfffffd00
    3adc:	000001cd 	andeq	r0, r0, sp, asr #3
    3ae0:	fd050403 	stc2	4, cr0, [r5, #-12]
    3ae4:	03000000 	movweq	r0, #0
    3ae8:	00f80508 	rscseq	r0, r8, r8, lsl #10
    3aec:	01030000 	mrseq	r0, (UNDEF: 3)
    3af0:	00004308 	andeq	r4, r0, r8, lsl #6
    3af4:	07020300 	streq	r0, [r2, -r0, lsl #6]
    3af8:	0000007d 	andeq	r0, r0, sp, ror r0
    3afc:	00027705 	andeq	r7, r2, r5, lsl #14
    3b00:	19340500 	ldmdbne	r4!, {r8, sl}
    3b04:	0000006e 	andeq	r0, r0, lr, rrx
    3b08:	e6070403 	str	r0, [r7], -r3, lsl #8
    3b0c:	03000000 	movweq	r0, #0
    3b10:	00e10708 	rsceq	r0, r1, r8, lsl #14
    3b14:	01030000 	mrseq	r0, (UNDEF: 3)
    3b18:	00004c08 	andeq	r4, r0, r8, lsl #24
    3b1c:	01070600 	tsteq	r7, r0, lsl #12
    3b20:	00000054 	andeq	r0, r0, r4, asr r0
    3b24:	c20e0c04 	andgt	r0, lr, #4, 24	; 0x400
    3b28:	07000000 	streq	r0, [r0, -r0]
    3b2c:	00000b23 	andeq	r0, r0, r3, lsr #22
    3b30:	095b0700 	ldmdbeq	fp, {r8, r9, sl}^
    3b34:	07010000 	streq	r0, [r1, -r0]
    3b38:	0000099e 	muleq	r0, lr, r9
    3b3c:	09ad0704 	stmibeq	sp!, {r2, r8, r9, sl}
    3b40:	07050000 	streq	r0, [r5, -r0]
    3b44:	000009bc 			; <UNDEFINED> instruction: 0x000009bc
    3b48:	09cb0706 	stmibeq	fp, {r1, r2, r8, r9, sl}^
    3b4c:	07070000 	streq	r0, [r7, -r0]
    3b50:	00000aec 	andeq	r0, r0, ip, ror #21
    3b54:	09da0703 	ldmibeq	sl, {r0, r1, r8, r9, sl}^
    3b58:	00020000 	andeq	r0, r2, r0
    3b5c:	00096c08 	andeq	r6, r9, r8, lsl #24
    3b60:	06022c00 	streq	r2, [r2], -r0, lsl #24
    3b64:	00015e08 	andeq	r5, r1, r8, lsl #28
    3b68:	6f690900 	svcvs	0x00690900
    3b6c:	09090200 	stmdbeq	r9, {r9}
    3b70:	00000033 	andeq	r0, r0, r3, lsr r0
    3b74:	65690900 	strbvs	r0, [r9, #-2304]!	; 0xfffff700
    3b78:	0a020072 	beq	83d48 <__bss_end__+0x78d38>
    3b7c:	00003309 	andeq	r3, r0, r9, lsl #6
    3b80:	69090400 	stmdbvs	r9, {sl}
    3b84:	02007269 	andeq	r7, r0, #-1879048186	; 0x90000006
    3b88:	00330911 	eorseq	r0, r3, r1, lsl r9
    3b8c:	09080000 	stmdbeq	r8, {}	; <UNPREDICTABLE>
    3b90:	0072636c 	rsbseq	r6, r2, ip, ror #6
    3b94:	33091302 	movwcc	r1, #37634	; 0x9302
    3b98:	0c000000 	stceq	0, cr0, [r0], {-0}
    3b9c:	72636d09 	rsbvc	r6, r3, #576	; 0x240
    3ba0:	09140200 	ldmdbeq	r4, {r9}
    3ba4:	00000033 	andeq	r0, r0, r3, lsr r0
    3ba8:	736c0910 	cmnvc	ip, #16, 18	; 0x40000
    3bac:	15020072 	strne	r0, [r2, #-114]	; 0xffffff8e
    3bb0:	00003309 	andeq	r3, r0, r9, lsl #6
    3bb4:	6d091400 	cfstrsvs	mvf1, [r9, #-0]
    3bb8:	02007273 	andeq	r7, r0, #805306375	; 0x30000007
    3bbc:	00330916 	eorseq	r0, r3, r6, lsl r9
    3bc0:	0a180000 	beq	603bc8 <__bss_end__+0x5f8bb8>
    3bc4:	00000b03 	andeq	r0, r0, r3, lsl #22
    3bc8:	33091702 	movwcc	r1, #38658	; 0x9702
    3bcc:	1c000000 	stcne	0, cr0, [r0], {-0}
    3bd0:	000acc0a 	andeq	ip, sl, sl, lsl #24
    3bd4:	091b0200 	ldmdbeq	fp, {r9}
    3bd8:	00000033 	andeq	r0, r0, r3, lsr r0
    3bdc:	09480a20 	stmdbeq	r8, {r5, r9, fp}^
    3be0:	1d020000 	stcne	0, cr0, [r2, #-0]
    3be4:	00003309 	andeq	r3, r0, r9, lsl #6
    3be8:	1e0a2400 	cfcpysne	mvf2, mvf10
    3bec:	0200000a 	andeq	r0, r0, #10, 0
    3bf0:	0033091e 	eorseq	r0, r3, lr, lsl r9
    3bf4:	00280000 	eoreq	r0, r8, r0
    3bf8:	000a230b 	andeq	r2, sl, fp, lsl #6
    3bfc:	09080100 	stmdbeq	r8, {r8}
    3c00:	00000174 	andeq	r0, r0, r4, ror r1
    3c04:	20215004 	eorcs	r5, r1, r4
    3c08:	0033040c 	eorseq	r0, r3, ip, lsl #8
    3c0c:	6e0d0000 	cdpvs	0, 0, cr0, cr13, cr0, {0}
    3c10:	0b000001 	bleq	3c1c <__code_start__-0x43e4>
    3c14:	00000b0b 	andeq	r0, r0, fp, lsl #22
    3c18:	8f232901 	svchi	0x00232901
    3c1c:	40000001 	andmi	r0, r0, r1
    3c20:	0c202150 	stfeqs	f2, [r0], #-320	; 0xfffffec0
    3c24:	0000c204 	andeq	ip, r0, r4, lsl #4
    3c28:	01890d00 	orreq	r0, r9, r0, lsl #26
    3c2c:	f60e0000 			; <UNDEFINED> instruction: 0xf60e0000
    3c30:	01000007 	tsteq	r0, r7
    3c34:	9c6c06cc 	stclls	6, cr0, [ip], #-816	; 0xfffffcd0
    3c38:	00140000 	andseq	r0, r4, r0
    3c3c:	9c010000 	stcls	0, cr0, [r1], {-0}
    3c40:	000001b4 			; <UNDEFINED> instruction: 0x000001b4
    3c44:	009c740f 	addseq	r7, ip, pc, lsl #8
    3c48:	0001b400 	andeq	fp, r1, r0, lsl #8
    3c4c:	8d100000 	ldchi	0, cr0, [r0, #-0]
    3c50:	01000009 	tsteq	r0, r9
    3c54:	002505b6 	strhteq	r0, [r5], -r6
    3c58:	9c4c0000 	marls	acc0, r0, ip
    3c5c:	00200000 	eoreq	r0, r0, r0
    3c60:	9c010000 	stcls	0, cr0, [r1], {-0}
    3c64:	000001eb 	andeq	r0, r0, fp, ror #3
    3c68:	009c540f 	addseq	r5, ip, pc, lsl #8
    3c6c:	0005a000 	andeq	sl, r5, r0
    3c70:	9c5c1100 	ldflse	f1, [ip], {-0}
    3c74:	05ac0000 	streq	r0, [ip, #0]!
    3c78:	01120000 	tsteq	r2, r0
    3c7c:	640c0550 	strvs	r0, [ip], #-1360	; 0xfffffab0
    3c80:	00202150 	eoreq	r2, r0, r0, asr r1
    3c84:	0ade1000 	beq	ff787c8c <__bss_end__+0xff77cc7c>
    3c88:	b3010000 	movwlt	r0, #4096	; 0x1000
    3c8c:	00002505 	andeq	r2, r0, r5, lsl #10
    3c90:	009c3c00 	addseq	r3, ip, r0, lsl #24
    3c94:	00001000 	andeq	r1, r0, r0
    3c98:	189c0100 	ldmne	ip, {r8}
    3c9c:	0f000002 	svceq	0x00000002
    3ca0:	00009c44 	andeq	r9, r0, r4, asr #24
    3ca4:	000005a0 	andeq	r0, r0, r0, lsr #11
    3ca8:	009c480f 	addseq	r4, ip, pc, lsl #16
    3cac:	00030900 	andeq	r0, r3, r0, lsl #18
    3cb0:	190e0000 	stmdbne	lr, {}	; <UNPREDICTABLE>
    3cb4:	0100000b 	tsteq	r0, fp
    3cb8:	9c0c06ab 	stcls	6, cr0, [ip], {171}	; 0xab
    3cbc:	00300000 	eorseq	r0, r0, r0
    3cc0:	9c010000 	stcls	0, cr0, [r1], {-0}
    3cc4:	0000027c 	andeq	r0, r0, ip, ror r2
    3cc8:	01006313 	tsteq	r0, r3, lsl r3
    3ccc:	002c19ab 	eoreq	r1, ip, fp, lsr #19
    3cd0:	26560000 	ldrbcs	r0, [r6], -r0
    3cd4:	26520000 	ldrbcs	r0, [r2], -r0
    3cd8:	180f0000 	stmdane	pc, {}	; <UNPREDICTABLE>
    3cdc:	a000009c 	mulge	r0, ip, r0
    3ce0:	0f000005 	svceq	0x00000005
    3ce4:	00009c1c 	andeq	r9, r0, ip, lsl ip
    3ce8:	000002db 	ldrdeq	r0, [r0], -fp
    3cec:	009c3014 	addseq	r3, ip, r4, lsl r0
    3cf0:	0005b800 	andeq	fp, r5, r0, lsl #16
    3cf4:	00027200 	andeq	r7, r2, r0, lsl #4
    3cf8:	50011200 	andpl	r1, r1, r0, lsl #4
    3cfc:	50400c05 	subpl	r0, r0, r5, lsl #24
    3d00:	01122021 	tsteq	r2, r1, lsr #32
    3d04:	00740551 	rsbseq	r0, r4, r1, asr r5
    3d08:	001aff08 	andseq	pc, sl, r8, lsl #30
    3d0c:	009c340f 	addseq	r3, ip, pc, lsl #8
    3d10:	0005a000 	andeq	sl, r5, r0
    3d14:	2f100000 	svccs	0x00100000
    3d18:	0100000a 	tsteq	r0, sl
    3d1c:	002505a3 	eoreq	r0, r5, r3, lsr #11
    3d20:	9bdc0000 	blls	ff703d28 <__bss_end__+0xff6f8d18>
    3d24:	00300000 	eorseq	r0, r0, r0
    3d28:	9c010000 	stcls	0, cr0, [r1], {-0}
    3d2c:	000002db 	ldrdeq	r0, [r0], -fp
    3d30:	01006315 	tsteq	r0, r5, lsl r3
    3d34:	002509a7 	eoreq	r0, r5, r7, lsr #19
    3d38:	26760000 	ldrbtcs	r0, [r6], -r0
    3d3c:	26740000 	ldrbtcs	r0, [r4], -r0
    3d40:	e40f0000 	str	r0, [pc], #-0	; 3d48 <__code_start__-0x42b8>
    3d44:	a000009b 	mulge	r0, fp, r0
    3d48:	0f000005 	svceq	0x00000005
    3d4c:	00009be8 	andeq	r9, r0, r8, ror #23
    3d50:	00000309 	andeq	r0, r0, r9, lsl #6
    3d54:	009bf814 	addseq	pc, fp, r4, lsl r8	; <UNPREDICTABLE>
    3d58:	0005ac00 	andeq	sl, r5, r0, lsl #24
    3d5c:	0002d100 	andeq	sp, r2, r0, lsl #2
    3d60:	50011200 	andpl	r1, r1, r0, lsl #4
    3d64:	50400c05 	subpl	r0, r0, r5, lsl #24
    3d68:	0f002021 	svceq	0x00002021
    3d6c:	00009c00 	andeq	r9, r0, r0, lsl #24
    3d70:	000005a0 	andeq	r0, r0, r0, lsr #11
    3d74:	097f1000 	ldmdbeq	pc!, {ip}^	; <UNPREDICTABLE>
    3d78:	94010000 	strls	r0, [r1], #-0
    3d7c:	00002505 	andeq	r2, r0, r5, lsl #10
    3d80:	009bbc00 	addseq	fp, fp, r0, lsl #24
    3d84:	00002000 	andeq	r2, r0, r0
    3d88:	099c0100 	ldmibeq	ip, {r8}
    3d8c:	11000003 	tstne	r0, r3
    3d90:	00009bc8 	andeq	r9, r0, r8, asr #23
    3d94:	000005ac 	andeq	r0, r0, ip, lsr #11
    3d98:	05500112 	ldrbeq	r0, [r0, #-274]	; 0xfffffeee
    3d9c:	2150640c 	cmpcs	r0, ip, lsl #8
    3da0:	10000020 	andne	r0, r0, r0, lsr #32
    3da4:	0000094d 	andeq	r0, r0, sp, asr #18
    3da8:	25058b01 	strcs	r8, [r5, #-2817]	; 0xfffff4ff
    3dac:	a4000000 	strge	r0, [r0], #-0
    3db0:	1800009b 	stmdane	r0, {r0, r1, r3, r4, r7}
    3db4:	01000000 	mrseq	r0, (UNDEF: 0)
    3db8:	0003379c 	muleq	r3, ip, r7
    3dbc:	9bb01100 	blls	fec081c4 <__bss_end__+0xfebfd1b4>
    3dc0:	05ac0000 	streq	r0, [ip, #0]!
    3dc4:	01120000 	tsteq	r2, r0
    3dc8:	640c0550 	strvs	r0, [ip], #-1360	; 0xfffffab0
    3dcc:	00202150 	eoreq	r2, r0, r0, asr r1
    3dd0:	08140e00 	ldmdaeq	r4, {r9, sl, fp}
    3dd4:	45010000 	strmi	r0, [r1, #-0]
    3dd8:	009af406 	addseq	pc, sl, r6, lsl #8
    3ddc:	0000b000 	andeq	fp, r0, r0
    3de0:	849c0100 	ldrhi	r0, [ip], #256	; 0x100
    3de4:	16000004 	strne	r0, [r0], -r4
    3de8:	0000093f 	andeq	r0, r0, pc, lsr r9
    3dec:	620e7e01 	andvs	r7, lr, #1, 28
    3df0:	0e000000 	cdpeq	0, 0, cr0, cr0, cr0, {0}
    3df4:	9b041401 	blls	108e00 <__bss_end__+0xfddf0>
    3df8:	05c40000 	strbeq	r0, [r4]
    3dfc:	03730000 	cmneq	r3, #0, 0
    3e00:	01120000 	tsteq	r2, r0
    3e04:	123e0150 	eorsne	r0, lr, #20
    3e08:	32015101 	andcc	r5, r1, #1073741824	; 0x40000000
    3e0c:	9b101400 	blls	408e14 <__bss_end__+0x3fde04>
    3e10:	05c40000 	strbeq	r0, [r4]
    3e14:	038b0000 	orreq	r0, fp, #0, 0
    3e18:	01120000 	tsteq	r2, r0
    3e1c:	123f0150 	eorsne	r0, pc, #20
    3e20:	32015101 	andcc	r5, r1, #1073741824	; 0x40000000
    3e24:	9b140f00 	blls	507a2c <__bss_end__+0x4fca1c>
    3e28:	05a00000 	streq	r0, [r0, #0]!
    3e2c:	20140000 	andscs	r0, r4, r0
    3e30:	3d00009b 	stccc	0, cr0, [r0, #-620]	; 0xfffffd94
    3e34:	b0000005 	andlt	r0, r0, r5
    3e38:	12000003 	andne	r0, r0, #3, 0
    3e3c:	0c055001 	stceq	0, cr5, [r5], {1}
    3e40:	20215004 	eorcs	r5, r1, r4
    3e44:	01510112 	cmpeq	r1, r2, lsl r1
    3e48:	240f0031 	strcs	r0, [pc], #-49	; 3e50 <__code_start__-0x41b0>
    3e4c:	a000009b 	mulge	r0, fp, r0
    3e50:	14000005 	strne	r0, [r0], #-5
    3e54:	00009b34 	andeq	r9, r0, r4, lsr fp
    3e58:	000005b8 			; <UNDEFINED> instruction: 0x000005b8
    3e5c:	000003d2 	ldrdeq	r0, [r0], -r2
    3e60:	02500112 	subseq	r0, r0, #-2147483644	; 0x80000004
    3e64:	01120074 	tsteq	r2, r4, ror r0
    3e68:	00300151 	eorseq	r0, r0, r1, asr r1
    3e6c:	009b4014 	addseq	r4, fp, r4, lsl r0
    3e70:	0005b800 	andeq	fp, r5, r0, lsl #16
    3e74:	0003ee00 	andeq	lr, r3, r0, lsl #28
    3e78:	50011200 	andpl	r1, r1, r0, lsl #4
    3e7c:	50440c05 	subpl	r0, r4, r5, lsl #24
    3e80:	01122021 	tsteq	r2, r1, lsr #32
    3e84:	00300151 	eorseq	r0, r0, r1, asr r1
    3e88:	009b4c14 	addseq	r4, fp, r4, lsl ip
    3e8c:	0005b800 	andeq	fp, r5, r0, lsl #16
    3e90:	00040a00 	andeq	r0, r4, r0, lsl #20
    3e94:	50011200 	andpl	r1, r1, r0, lsl #4
    3e98:	504c0c05 	subpl	r0, ip, r5, lsl #24
    3e9c:	01122021 	tsteq	r2, r1, lsr #32
    3ea0:	00330151 	eorseq	r0, r3, r1, asr r1
    3ea4:	009b5814 	addseq	r5, fp, r4, lsl r8
    3ea8:	0005b800 	andeq	fp, r5, r0, lsl #16
    3eac:	00042600 	andeq	r2, r4, r0, lsl #12
    3eb0:	50011200 	andpl	r1, r1, r0, lsl #4
    3eb4:	50500c05 	subspl	r0, r0, r5, lsl #24
    3eb8:	01122021 	tsteq	r2, r1, lsr #32
    3ebc:	00300151 	eorseq	r0, r0, r1, asr r1
    3ec0:	009b6414 	addseq	r6, fp, r4, lsl r4
    3ec4:	0005b800 	andeq	fp, r5, r0, lsl #16
    3ec8:	00044300 	andeq	r4, r4, r0, lsl #6
    3ecc:	50011200 	andpl	r1, r1, r0, lsl #4
    3ed0:	50480c05 	subpl	r0, r8, r5, lsl #24
    3ed4:	01122021 	tsteq	r2, r1, lsr #32
    3ed8:	c7080251 	smlsdgt	r8, r1, r2, r0
    3edc:	9b701400 	blls	1c08ee4 <__bss_end__+0x1bfded4>
    3ee0:	05b80000 	ldreq	r0, [r8, #0]!
    3ee4:	04610000 	strbteq	r0, [r1], #-0
    3ee8:	01120000 	tsteq	r2, r0
    3eec:	680c0550 	stmdavs	ip, {r4, r6, r8, sl}
    3ef0:	12202150 	eorne	r2, r0, #20
    3ef4:	0a035101 	beq	d8300 <__bss_end__+0xcd2f0>
    3ef8:	1400010e 	strne	r0, [r0], #-270	; 0xfffffef2
    3efc:	00009b7c 	andeq	r9, r0, ip, ror fp
    3f00:	000005b8 			; <UNDEFINED> instruction: 0x000005b8
    3f04:	0000047a 	andeq	r0, r0, sl, ror r4
    3f08:	02500112 	subseq	r0, r0, #-2147483644	; 0x80000004
    3f0c:	01120074 	tsteq	r2, r4, ror r0
    3f10:	00330151 	eorseq	r0, r3, r1, asr r1
    3f14:	009b800f 	addseq	r8, fp, pc
    3f18:	0005a000 	andeq	sl, r5, r0
    3f1c:	d10e0000 	mrsle	r0, (UNDEF: 14)
    3f20:	0100000a 	tsteq	r0, sl
    3f24:	9c800635 	stcls	6, cr0, [r0], {53}	; 0x35
    3f28:	00240000 	eoreq	r0, r4, r0
    3f2c:	9c010000 	stcls	0, cr0, [r1], {-0}
    3f30:	000004d3 	ldrdeq	r0, [r0], -r3
    3f34:	009c880f 	addseq	r8, ip, pc, lsl #16
    3f38:	00019400 	andeq	r9, r1, r0, lsl #8
    3f3c:	9c8c0f00 	stcls	15, cr0, [ip], {0}
    3f40:	05a00000 	streq	r0, [r0, #0]!
    3f44:	98140000 	ldmdals	r4, {}	; <UNPREDICTABLE>
    3f48:	d300009c 	movwle	r0, #156	; 0x9c
    3f4c:	c9000004 	stmdbgt	r0, {r2}
    3f50:	12000004 	andne	r0, r0, #4, 0
    3f54:	0c055001 	stceq	0, cr5, [r5], {1}
    3f58:	20215004 	eorcs	r5, r1, r4
    3f5c:	02510112 	subseq	r0, r1, #-2147483644	; 0x80000004
    3f60:	0f00fe09 	svceq	0x0000fe09
    3f64:	00009c9c 	muleq	r0, ip, ip
    3f68:	000005a0 	andeq	r0, r0, r0, lsr #11
    3f6c:	0b101700 	bleq	409b74 <__bss_end__+0x3feb64>
    3f70:	31010000 	mrscc	r0, (UNDEF: 1)
    3f74:	009ab40d 	addseq	fp, sl, sp, lsl #8
    3f78:	00002000 	andeq	r2, r0, r0
    3f7c:	369c0100 	ldrcc	r0, [ip], r0, lsl #2
    3f80:	18000005 	stmdane	r0, {r0, r2}
    3f84:	00000b6a 	andeq	r0, r0, sl, ror #22
    3f88:	36253101 	strtcc	r3, [r5], -r1, lsl #2
    3f8c:	8d000005 	stchi	0, cr0, [r0, #-20]	; 0xffffffec
    3f90:	89000026 	stmdbhi	r0, {r1, r2, r5}
    3f94:	13000026 	movwne	r0, #38	; 0x26
    3f98:	006c6176 	rsbeq	r6, ip, r6, ror r1
    3f9c:	2c343101 	ldfcss	f3, [r4], #-4
    3fa0:	af000000 	svcge	0x00000000
    3fa4:	ab000026 	blge	4044 <__code_start__-0x3fbc>
    3fa8:	14000026 	strne	r0, [r0], #-38	; 0xffffffda
    3fac:	00009ac4 	andeq	r9, r0, r4, asr #21
    3fb0:	000005ac 	andeq	r0, r0, ip, lsr #11
    3fb4:	00000525 	andeq	r0, r0, r5, lsr #10
    3fb8:	02500112 	subseq	r0, r0, #-2147483644	; 0x80000004
    3fbc:	11000074 	tstne	r0, r4, ror r0
    3fc0:	00009ad0 	ldrdeq	r9, [r0], -r0
    3fc4:	000005b8 			; <UNDEFINED> instruction: 0x000005b8
    3fc8:	02500112 	subseq	r0, r0, #-2147483644	; 0x80000004
    3fcc:	00000074 	andeq	r0, r0, r4, ror r0
    3fd0:	053c040c 	ldreq	r0, [ip, #-1036]!	; 0xfffffbf4
    3fd4:	17190000 	ldrne	r0, [r9, -r0]
    3fd8:	00000afb 	strdeq	r0, [r0], -fp
    3fdc:	d40d2e01 	strle	r2, [sp], #-3585	; 0xfffff1ff
    3fe0:	2000009a 	mulcs	r0, sl, r0
    3fe4:	01000000 	mrseq	r0, (UNDEF: 0)
    3fe8:	0005a09c 	muleq	r5, ip, r0
    3fec:	0b6a1800 	bleq	1a89ff4 <__bss_end__+0x1a7efe4>
    3ff0:	2e010000 	cdpcs	0, 0, cr0, cr1, cr0, {0}
    3ff4:	00053624 	andeq	r3, r5, r4, lsr #12
    3ff8:	0026d100 	eoreq	sp, r6, r0, lsl #2
    3ffc:	0026cd00 	eoreq	ip, r6, r0, lsl #26
    4000:	61761300 	cmnvs	r6, r0, lsl #6
    4004:	2e01006c 	cdpcs	0, 0, cr0, cr1, cr12, {3}
    4008:	00002c33 	andeq	r2, r0, r3, lsr ip
    400c:	0026f300 	eoreq	pc, r6, r0, lsl #6
    4010:	0026ef00 	eoreq	lr, r6, r0, lsl #30
    4014:	9ae41400 	bls	ff90901c <__bss_end__+0xff8fe00c>
    4018:	05ac0000 	streq	r0, [ip, #0]!
    401c:	058f0000 	streq	r0, [pc]	; 4024 <__code_start__-0x3fdc>
    4020:	01120000 	tsteq	r2, r0
    4024:	00740250 	rsbseq	r0, r4, r0, asr r2
    4028:	9af01100 	bls	ffc08430 <__bss_end__+0xffbfd420>
    402c:	05b80000 	ldreq	r0, [r8, #0]!
    4030:	01120000 	tsteq	r2, r0
    4034:	00740250 	rsbseq	r0, r4, r0, asr r2
    4038:	de1a0000 	cdple	0, 1, cr0, cr10, cr0, {0}
    403c:	de000008 	cdple	0, 0, cr0, cr0, cr8, {0}
    4040:	03000008 	movweq	r0, #8
    4044:	451a069c 	ldrmi	r0, [sl, #-1692]	; 0xfffff964
    4048:	4500000b 	strmi	r0, [r0, #-11]
    404c:	0300000b 	movweq	r0, #11
    4050:	391a0bc3 	ldmdbcc	sl, {r0, r1, r6, r7, r8, r9, fp}
    4054:	39000009 	stmdbcc	r0, {r0, r3}
    4058:	03000009 	movweq	r0, #9
    405c:	331a06ae 	tstcc	sl, #182452224	; 0xae00000
    4060:	3300000b 	movwcc	r0, #11
    4064:	0400000b 	streq	r0, [r0], #-11
    4068:	e9000619 	stmdb	r0, {r0, r3, r4, r9, sl}
    406c:	04000008 	streq	r0, [r0], #-8
    4070:	0016cc00 	andseq	ip, r6, r0, lsl #24
    4074:	39010400 	stmdbcc	r1, {sl}
    4078:	0c00000a 	stceq	0, cr0, [r0], {10}
    407c:	00000bd5 	ldrdeq	r0, [r0], -r5
    4080:	000009e9 	andeq	r0, r0, r9, ror #19
    4084:	00009ca4 	andeq	r9, r0, r4, lsr #25
    4088:	000003b0 			; <UNDEFINED> instruction: 0x000003b0
    408c:	000020c8 	andeq	r2, r0, r8, asr #1
    4090:	69050402 	stmdbvs	r5, {r1, sl}
    4094:	0300746e 	movweq	r7, #1134	; 0x46e
    4098:	00eb0704 	rsceq	r0, fp, r4, lsl #14
    409c:	01030000 	mrseq	r0, (UNDEF: 3)
    40a0:	00004506 	andeq	r4, r0, r6, lsl #10
    40a4:	05020300 	streq	r0, [r2, #-768]	; 0xfffffd00
    40a8:	000001cd 	andeq	r0, r0, sp, asr #3
    40ac:	fd050403 	stc2	4, cr0, [r5, #-12]
    40b0:	03000000 	movweq	r0, #0
    40b4:	00f80508 	rscseq	r0, r8, r8, lsl #10
    40b8:	01030000 	mrseq	r0, (UNDEF: 3)
    40bc:	00004308 	andeq	r4, r0, r8, lsl #6
    40c0:	07020300 	streq	r0, [r2, -r0, lsl #6]
    40c4:	0000007d 	andeq	r0, r0, sp, ror r0
    40c8:	00027704 	andeq	r7, r2, r4, lsl #14
    40cc:	19340300 	ldmdbne	r4!, {r8, r9}
    40d0:	00000069 	andeq	r0, r0, r9, rrx
    40d4:	e6070403 	str	r0, [r7], -r3, lsl #8
    40d8:	03000000 	movweq	r0, #0
    40dc:	00e10708 	rsceq	r0, r1, r8, lsl #14
    40e0:	01030000 	mrseq	r0, (UNDEF: 3)
    40e4:	00004c08 	andeq	r4, r0, r8, lsl #24
    40e8:	00770500 	rsbseq	r0, r7, r0, lsl #10
    40ec:	08030000 	stmdaeq	r3, {}	; <UNPREDICTABLE>
    40f0:	00033304 	andeq	r3, r3, r4, lsl #6
    40f4:	07040600 	streq	r0, [r4, -r0, lsl #12]
    40f8:	002c0407 	eoreq	r0, ip, r7, lsl #8
    40fc:	1f010000 	svcne	0x00010000
    4100:	0000a406 	andeq	sl, r0, r6, lsl #8
    4104:	0b6f0800 	bleq	1bc610c <__bss_end__+0x1bbb0fc>
    4108:	00000000 	andeq	r0, r0, r0
    410c:	09000020 	stmdbeq	r0, {r5}
    4110:	0000073f 	andeq	r0, r0, pc, lsr r7
    4114:	770d2201 	strvc	r2, [sp, -r1, lsl #4]
    4118:	0a000000 	beq	4120 <__code_start__-0x3ee0>
    411c:	00000428 	andeq	r0, r0, r8, lsr #8
    4120:	c20e2301 	andgt	r2, lr, #67108864	; 0x4000000
    4124:	05000000 	streq	r0, [r0, #-0]
    4128:	00abd403 	adceq	sp, fp, r3, lsl #8
    412c:	77040b00 	strvc	r0, [r4, -r0, lsl #22]
    4130:	0a000000 	beq	4138 <__code_start__-0x3ec8>
    4134:	00000b53 	andeq	r0, r0, r3, asr fp
    4138:	c20e2401 	andgt	r2, lr, #16777216	; 0x1000000
    413c:	05000000 	streq	r0, [r0, #-0]
    4140:	00abd803 	adceq	sp, fp, r3, lsl #16
    4144:	0bb40a00 	bleq	fed0694c <__bss_end__+0xfecfb93c>
    4148:	25010000 	strcs	r0, [r1, #-0]
    414c:	0000c20e 	andeq	ip, r0, lr, lsl #4
    4150:	dc030500 	cfstr32le	mvfx0, [r3], {-0}
    4154:	0c0000ab 	stceq	0, cr0, [r0], {171}	; 0xab
    4158:	00000b8a 	andeq	r0, r0, sl, lsl #23
    415c:	f4067501 	vst3.8	{d7,d9,d11}, [r6], r1
    4160:	6000009f 	mulvs	r0, pc, r0	; <UNPREDICTABLE>
    4164:	01000000 	mrseq	r0, (UNDEF: 0)
    4168:	0001649c 	muleq	r1, ip, r4
    416c:	00700d00 	rsbseq	r0, r0, r0, lsl #26
    4170:	8a167501 	bhi	5a157c <__bss_end__+0x59656c>
    4174:	17000000 	strne	r0, [r0, -r0]
    4178:	11000027 	tstne	r0, r7, lsr #32
    417c:	0e000027 	cdpeq	0, 0, cr0, cr0, cr7, {1}
    4180:	000000d4 	ldrdeq	r0, [r0], -r4
    4184:	00000174 	andeq	r0, r0, r4, ror r1
    4188:	abc00305 	blge	ff004da4 <__bss_end__+0xfeff9d94>
    418c:	400f0000 	andmi	r0, pc, r0
    4190:	bc0000a0 	stclt	0, cr0, [r0], {160}	; 0xa0
    4194:	5a000008 	bpl	41bc <__code_start__-0x3e44>
    4198:	10000001 	andne	r0, r0, r1
    419c:	03055001 	movweq	r5, #20481	; 0x5001
    41a0:	0000ab38 	andeq	sl, r0, r8, lsr fp
    41a4:	05510110 	ldrbeq	r0, [r1, #-272]	; 0xfffffef0
    41a8:	00a9d003 	adceq	sp, r9, r3
    41ac:	52011000 	andpl	r1, r1, #0, 0
    41b0:	abc00305 	blge	ff004dcc <__bss_end__+0xfeff9dbc>
    41b4:	01100000 	tsteq	r0, r0
    41b8:	77080253 	smlsdvc	r8, r3, r2, r0
    41bc:	007d0210 	rsbseq	r0, sp, r0, lsl r2
    41c0:	5001f303 	andpl	pc, r1, r3, lsl #6
    41c4:	a0441100 	subge	r1, r4, r0, lsl #2
    41c8:	08c80000 	stmiaeq	r8, {}^	; <UNPREDICTABLE>
    41cc:	12000000 	andne	r0, r0, #0, 0
    41d0:	0000007e 	andeq	r0, r0, lr, ror r0
    41d4:	00000174 	andeq	r0, r0, r4, ror r1
    41d8:	00002c13 	andeq	r2, r0, r3, lsl ip
    41dc:	05000900 	streq	r0, [r0, #-2304]	; 0xfffff700
    41e0:	00000164 	andeq	r0, r0, r4, ror #2
    41e4:	000b7814 	andeq	r7, fp, r4, lsl r8
    41e8:	06720100 	ldrbteq	r0, [r2], -r0, lsl #2
    41ec:	00009fe0 	andeq	r9, r0, r0, ror #31
    41f0:	00000014 	andeq	r0, r0, r4, lsl r0
    41f4:	c70c9c01 	strgt	r9, [ip, -r1, lsl #24]
    41f8:	01000001 	tsteq	r0, r1
    41fc:	9fdc066f 	svcls	0x00dc066f
    4200:	00040000 	andeq	r0, r4, r0
    4204:	9c010000 	stcls	0, cr0, [r1], {-0}
    4208:	000001ae 	andeq	r0, r0, lr, lsr #3
    420c:	01007015 	tsteq	r0, r5, lsl r0
    4210:	008a126f 	addeq	r1, sl, pc, ror #4
    4214:	50010000 	andpl	r0, r1, r0
    4218:	0c171600 	ldceq	6, cr1, [r7], {-0}
    421c:	5e010000 	cdppl	0, 0, cr0, cr1, cr0, {0}
    4220:	00008a07 	andeq	r8, r0, r7, lsl #20
    4224:	009ec400 	addseq	ip, lr, r0, lsl #8
    4228:	00011800 	andeq	r1, r1, r0, lsl #16
    422c:	2c9c0100 	ldfcss	f0, [ip], {0}
    4230:	17000004 	strne	r0, [r0, -r4]
    4234:	000002e9 	andeq	r0, r0, r9, ror #5
    4238:	2c205e01 	stccs	14, cr5, [r0], #-4
    423c:	58000000 	stmdapl	r0, {}	; <UNPREDICTABLE>
    4240:	44000027 	strmi	r0, [r0], #-39	; 0xffffffd9
    4244:	17000027 	strne	r0, [r0, -r7, lsr #32]
    4248:	00000b94 	muleq	r0, r4, fp
    424c:	2c315e01 	ldccs	14, cr5, [r1], #-4
    4250:	f1000000 	cps	#0
    4254:	dd000027 	stcle	0, cr0, [r0, #-156]	; 0xffffff64
    4258:	0e000027 	cdpeq	0, 0, cr0, cr0, cr7, {1}
    425c:	000000d4 	ldrdeq	r0, [r0], -r4
    4260:	0000043c 	andeq	r0, r0, ip, lsr r4
    4264:	aba80305 	blge	fea04e80 <__bss_end__+0xfe9f9e70>
    4268:	68180000 	ldmdavs	r8, {}	; <UNPREDICTABLE>
    426c:	0e660100 	poweqs	f0, f6, f0
    4270:	0000002c 	andeq	r0, r0, ip, lsr #32
    4274:	000028a7 	andeq	r2, r0, r7, lsr #17
    4278:	0000289b 	muleq	r0, fp, r8
    427c:	00085419 	andeq	r5, r8, r9, lsl r4
    4280:	009ed400 	addseq	sp, lr, r0, lsl #8
    4284:	9ed40400 	cdpls	4, 13, cr0, cr4, cr0, {0}
    4288:	00040000 	andeq	r0, r4, r0
    428c:	60010000 	andvs	r0, r1, r0
    4290:	00023805 	andeq	r3, r2, r5, lsl #16
    4294:	08651a00 	stmdaeq	r5!, {r9, fp, ip}^
    4298:	28fb0000 	ldmcs	fp!, {}^	; <UNPREDICTABLE>
    429c:	28f90000 	ldmcs	r9!, {}^	; <UNPREDICTABLE>
    42a0:	19000000 	stmdbne	r0, {}	; <UNPREDICTABLE>
    42a4:	00000896 	muleq	r0, r6, r8
    42a8:	00009ee0 	andeq	r9, r0, r0, ror #29
    42ac:	009ee002 	addseq	lr, lr, r2
    42b0:	00000800 	andeq	r0, r0, r0, lsl #16
    42b4:	11610100 	cmnne	r1, r0, lsl #2
    42b8:	0000026c 	andeq	r0, r0, ip, ror #4
    42bc:	0008b11a 	andeq	fp, r8, sl, lsl r1
    42c0:	00291000 	eoreq	r1, r9, r0
    42c4:	00290e00 	eoreq	r0, r9, r0, lsl #28
    42c8:	08a71a00 	stmiaeq	r7!, {r9, fp, ip}
    42cc:	29260000 	stmdbcs	r6!, {}	; <UNPREDICTABLE>
    42d0:	29240000 	stmdbcs	r4!, {}	; <UNPREDICTABLE>
    42d4:	1b000000 	blne	42dc <__code_start__-0x3d24>
    42d8:	0000081f 	andeq	r0, r0, pc, lsl r8
    42dc:	00009ef0 	strdeq	r9, [r0], -r0
    42e0:	00046801 	andeq	r6, r4, r1, lsl #16
    42e4:	09670100 	stmdbeq	r7!, {r8}^
    42e8:	0000030a 	andeq	r0, r0, sl, lsl #6
    42ec:	00083a1a 	andeq	r3, r8, sl, lsl sl
    42f0:	00293f00 	eoreq	r3, r9, r0, lsl #30
    42f4:	00293900 	eoreq	r3, r9, r0, lsl #18
    42f8:	08301a00 	ldmdaeq	r0!, {r9, fp, ip}
    42fc:	29860000 	stmibcs	r6, {}	; <UNPREDICTABLE>
    4300:	297e0000 	ldmdbcs	lr!, {}^	; <UNPREDICTABLE>
    4304:	681c0000 	ldmdavs	ip, {}	; <UNPREDICTABLE>
    4308:	19000004 	stmdbne	r0, {r2}
    430c:	00000854 	andeq	r0, r0, r4, asr r8
    4310:	00009ef0 	strdeq	r9, [r0], -r0
    4314:	009ef004 	addseq	pc, lr, r4
    4318:	00000400 	andeq	r0, r0, r0, lsl #8
    431c:	05110100 	ldreq	r0, [r1, #-256]	; 0xffffff00
    4320:	000002c7 	andeq	r0, r0, r7, asr #5
    4324:	0008651a 	andeq	r6, r8, sl, lsl r5
    4328:	0029c400 	eoreq	ip, r9, r0, lsl #8
    432c:	0029c200 	eoreq	ip, r9, r0, lsl #4
    4330:	880f0000 	stmdahi	pc, {}	; <UNPREDICTABLE>
    4334:	bc00009f 	stclt	0, cr0, [r0], {159}	; 0x9f
    4338:	ff000008 			; <UNDEFINED> instruction: 0xff000008
    433c:	10000002 	andne	r0, r0, r2
    4340:	03055001 	movweq	r5, #20481	; 0x5001
    4344:	0000a43c 	andeq	sl, r0, ip, lsr r4
    4348:	05510110 	ldrbeq	r0, [r1, #-272]	; 0xfffffef0
    434c:	00a9d003 	adceq	sp, r9, r3
    4350:	52011000 	andpl	r1, r1, #0, 0
    4354:	abb80305 	blge	fee04f70 <__bss_end__+0xfedf9f60>
    4358:	01100000 	tsteq	r0, r0
    435c:	10410153 	subne	r0, r1, r3, asr r1
    4360:	05007d02 	streq	r7, [r0, #-3330]	; 0xfffff2fe
    4364:	00aae403 	adceq	lr, sl, r3, lsl #8
    4368:	8c110000 	ldchi	0, cr0, [r1], {-0}
    436c:	c800009f 	stmdagt	r0, {r0, r1, r2, r3, r4, r7}
    4370:	00000008 	andeq	r0, r0, r8
    4374:	08701900 	ldmdaeq	r0!, {r8, fp, ip}^
    4378:	9f080000 	svcls	0x00080000
    437c:	08030000 	stmdaeq	r3, {}	; <UNPREDICTABLE>
    4380:	0400009f 	streq	r0, [r0], #-159	; 0xffffff61
    4384:	01000000 	mrseq	r0, (UNDEF: 0)
    4388:	033e0568 	teqeq	lr, #104, 10	; 0x1a000000
    438c:	8b1a0000 	blhi	684394 <__bss_end__+0x679384>
    4390:	d9000008 	stmdble	r0, {r3}
    4394:	d7000029 	strle	r0, [r0, -r9, lsr #32]
    4398:	1a000029 	bne	4444 <__code_start__-0x3bbc>
    439c:	00000881 	andeq	r0, r0, r1, lsl #17
    43a0:	000029ee 	andeq	r2, r0, lr, ror #19
    43a4:	000029ec 	andeq	r2, r0, ip, ror #19
    43a8:	9f200f00 	svcls	0x00200f00
    43ac:	04410000 	strbeq	r0, [r1], #-0
    43b0:	03530000 	cmpeq	r3, #0, 0
    43b4:	01100000 	tsteq	r0, r0
    43b8:	01f30350 	mvnseq	r0, r0, asr r3
    43bc:	440f0050 	strmi	r0, [pc], #-80	; 43c4 <__code_start__-0x3c3c>
    43c0:	bc00009f 	stclt	0, cr0, [r0], {159}	; 0x9f
    43c4:	8c000008 	stchi	0, cr0, [r0], {8}
    43c8:	10000003 	andne	r0, r0, r3
    43cc:	03055001 	movweq	r5, #20481	; 0x5001
    43d0:	0000a43c 	andeq	sl, r0, ip, lsr r4
    43d4:	05510110 	ldrbeq	r0, [r1, #-272]	; 0xfffffef0
    43d8:	00a9d003 	adceq	sp, r9, r3
    43dc:	52011000 	andpl	r1, r1, #0, 0
    43e0:	aba80305 	blge	fea04ffc <__bss_end__+0xfe9f9fec>
    43e4:	01100000 	tsteq	r0, r0
    43e8:	5f080253 	svcpl	0x00080253
    43ec:	007d0210 	rsbseq	r0, sp, r0, lsl r2
    43f0:	a9e00305 	stmibge	r0!, {r0, r2, r8, r9}^
    43f4:	11000000 	mrsne	r0, (UNDEF: 0)
    43f8:	00009f48 	andeq	r9, r0, r8, asr #30
    43fc:	000008c8 	andeq	r0, r0, r8, asr #17
    4400:	009f4c11 	addseq	r4, pc, r1, lsl ip	; <UNPREDICTABLE>
    4404:	0008d400 	andeq	sp, r8, r0, lsl #8
    4408:	9f680f00 	svcls	0x00680f00
    440c:	08bc0000 	ldmeq	ip!, {}	; <UNPREDICTABLE>
    4410:	03d70000 	bicseq	r0, r7, #0, 0
    4414:	01100000 	tsteq	r0, r0
    4418:	9c030550 	cfstr32ls	mvfx0, [r3], {80}	; 0x50
    441c:	100000aa 	andne	r0, r0, sl, lsr #1
    4420:	03055101 	movweq	r5, #20737	; 0x5101
    4424:	0000a9d0 	ldrdeq	sl, [r0], -r0
    4428:	05520110 	ldrbeq	r0, [r2, #-272]	; 0xfffffef0
    442c:	00aba803 	adceq	sl, fp, r3, lsl #16
    4430:	53011000 	movwpl	r1, #4096	; 0x1000
    4434:	10600802 	rsbne	r0, r0, r2, lsl #16
    4438:	05007d02 	streq	r7, [r0, #-3330]	; 0xfffff2fe
    443c:	00aad003 	adceq	sp, sl, r3
    4440:	6c110000 	ldcvs	0, cr0, [r1], {-0}
    4444:	c800009f 	stmdagt	r0, {r0, r1, r2, r3, r4, r7}
    4448:	11000008 	tstne	r0, r8
    444c:	00009f90 	muleq	r0, r0, pc	; <UNPREDICTABLE>
    4450:	000008d4 	ldrdeq	r0, [r0], -r4
    4454:	009fac0f 	addseq	sl, pc, pc, lsl #24
    4458:	0008bc00 	andeq	fp, r8, r0, lsl #24
    445c:	00042200 	andeq	r2, r4, r0, lsl #4
    4460:	50011000 	andpl	r1, r1, r0
    4464:	aaf00305 	bge	ffc05080 <__bss_end__+0xffbfa070>
    4468:	01100000 	tsteq	r0, r0
    446c:	d0030551 	andle	r0, r3, r1, asr r5
    4470:	100000a9 	andne	r0, r0, r9, lsr #1
    4474:	03055201 	movweq	r5, #20993	; 0x5201
    4478:	0000aba8 	andeq	sl, r0, r8, lsr #23
    447c:	02530110 	subseq	r0, r3, #4
    4480:	02106808 	andseq	r6, r0, #8, 16	; 0x80000
    4484:	0305007d 	movweq	r0, #20605	; 0x507d
    4488:	0000ab1c 	andeq	sl, r0, ip, lsl fp
    448c:	9fb01100 	svcls	0x00b01100
    4490:	08c80000 	stmiaeq	r8, {}^	; <UNPREDICTABLE>
    4494:	12000000 	andne	r0, r0, #0, 0
    4498:	0000007e 	andeq	r0, r0, lr, ror r0
    449c:	0000043c 	andeq	r0, r0, ip, lsr r4
    44a0:	00002c13 	andeq	r2, r0, r3, lsl ip
    44a4:	05000f00 	streq	r0, [r0, #-3840]	; 0xfffff100
    44a8:	0000042c 	andeq	r0, r0, ip, lsr #8
    44ac:	00052516 	andeq	r2, r5, r6, lsl r5
    44b0:	07530100 	ldrbeq	r0, [r3, -r0, lsl #2]
    44b4:	0000008a 	andeq	r0, r0, sl, lsl #1
    44b8:	00009e60 	andeq	r9, r0, r0, ror #28
    44bc:	00000064 	andeq	r0, r0, r4, rrx
    44c0:	05089c01 	streq	r9, [r8, #-3073]	; 0xfffff3ff
    44c4:	e9170000 	ldmdb	r7, {}	; <UNPREDICTABLE>
    44c8:	01000002 	tsteq	r0, r2
    44cc:	002c1853 	eoreq	r1, ip, r3, asr r8
    44d0:	2a090000 	bcs	2444d8 <__bss_end__+0x2394c8>
    44d4:	2a010000 	bcs	444dc <__bss_end__+0x394cc>
    44d8:	d40e0000 	strle	r0, [lr], #-0
    44dc:	18000000 	stmdane	r0, {}	; <UNPREDICTABLE>
    44e0:	05000005 	streq	r0, [r0, #-5]
    44e4:	00aba003 	adceq	sl, fp, r3
    44e8:	0b6a1d00 	bleq	1a8b8f0 <__bss_end__+0x1a808e0>
    44ec:	55010000 	strpl	r0, [r1, #-0]
    44f0:	00008a0b 	andeq	r8, r0, fp, lsl #20
    44f4:	002a4100 	eoreq	r4, sl, r0, lsl #2
    44f8:	002a3d00 	eoreq	r3, sl, r0, lsl #26
    44fc:	9e780f00 	cdpls	15, 7, cr0, cr8, cr0, {0}
    4500:	051d0000 	ldreq	r0, [sp, #-0]
    4504:	04a60000 	strteq	r0, [r6], #0
    4508:	01100000 	tsteq	r0, r0
    450c:	00740250 	rsbseq	r0, r4, r0, asr r2
    4510:	9e880f00 	cdpls	15, 8, cr0, cr8, cr0, {0}
    4514:	08e00000 	stmiaeq	r0!, {}^	; <UNPREDICTABLE>
    4518:	04c50000 	strbeq	r0, [r5], #0
    451c:	01100000 	tsteq	r0, r0
    4520:	00750250 	rsbseq	r0, r5, r0, asr r2
    4524:	01510110 	cmpeq	r1, r0, lsl r1
    4528:	52011030 	andpl	r1, r1, #48, 0	; 0x30
    452c:	00007402 	andeq	r7, r0, r2, lsl #8
    4530:	009eb00f 	addseq	fp, lr, pc
    4534:	0008bc00 	andeq	fp, r8, r0, lsl #24
    4538:	0004fe00 	andeq	pc, r4, r0, lsl #28
    453c:	50011000 	andpl	r1, r1, r0
    4540:	a43c0305 	ldrtge	r0, [ip], #-773	; 0xfffffcfb
    4544:	01100000 	tsteq	r0, r0
    4548:	d0030551 	andle	r0, r3, r1, asr r5
    454c:	100000a9 	andne	r0, r0, r9, lsr #1
    4550:	03055201 	movweq	r5, #20993	; 0x5201
    4554:	0000aba0 	andeq	sl, r0, r0, lsr #23
    4558:	02530110 	subseq	r0, r3, #4
    455c:	02105408 	andseq	r5, r0, #8, 8	; 0x8000000
    4560:	0305007d 	movweq	r0, #20605	; 0x507d
    4564:	0000a9e0 	andeq	sl, r0, r0, ror #19
    4568:	9eb41100 	frdlss	f1, f4, f0
    456c:	08c80000 	stmiaeq	r8, {}^	; <UNPREDICTABLE>
    4570:	12000000 	andne	r0, r0, #0, 0
    4574:	0000007e 	andeq	r0, r0, lr, ror r0
    4578:	00000518 	andeq	r0, r0, r8, lsl r5
    457c:	00002c13 	andeq	r2, r0, r3, lsl ip
    4580:	05000700 	streq	r0, [r0, #-1792]	; 0xfffff900
    4584:	00000508 	andeq	r0, r0, r8, lsl #10
    4588:	000bbd16 	andeq	fp, fp, r6, lsl sp
    458c:	07470100 	strbeq	r0, [r7, -r0, lsl #2]
    4590:	0000008a 	andeq	r0, r0, sl, lsl #1
    4594:	00009dc8 	andeq	r9, r0, r8, asr #27
    4598:	00000098 	muleq	r0, r8, r0
    459c:	062b9c01 	strteq	r9, [fp], -r1, lsl #24
    45a0:	e9170000 	ldmdb	r7, {}	; <UNPREDICTABLE>
    45a4:	01000002 	tsteq	r0, r2
    45a8:	002c2047 	eoreq	r2, ip, r7, asr #32
    45ac:	2a6f0000 	bcs	1bc45b4 <__bss_end__+0x1bb95a4>
    45b0:	2a5f0000 	bcs	17c45b8 <__bss_end__+0x17b95a8>
    45b4:	d40e0000 	strle	r0, [lr], #-0
    45b8:	3c000000 	stccc	0, cr0, [r0], {-0}
    45bc:	05000004 	streq	r0, [r0, #-4]
    45c0:	00ab9003 	adceq	r9, fp, r3
    45c4:	0b6a1d00 	bleq	1a8b9cc <__bss_end__+0x1a809bc>
    45c8:	4b010000 	blmi	445d0 <__bss_end__+0x395c0>
    45cc:	00008a0b 	andeq	r8, r0, fp, lsl #20
    45d0:	002ae100 	eoreq	lr, sl, r0, lsl #2
    45d4:	002add00 	eoreq	sp, sl, r0, lsl #26
    45d8:	081f1b00 	ldmdaeq	pc, {r8, r9, fp, ip}	; <UNPREDICTABLE>
    45dc:	9dd80000 	ldclls	0, cr0, [r8]
    45e0:	50030000 	andpl	r0, r3, r0
    45e4:	01000004 	tsteq	r0, r4
    45e8:	05a30e49 	streq	r0, [r3, #3657]!	; 0xe49
    45ec:	3a1a0000 	bcc	6845f4 <__bss_end__+0x6795e4>
    45f0:	01000008 	tsteq	r0, r8
    45f4:	ff00002b 			; <UNDEFINED> instruction: 0xff00002b
    45f8:	1a00002a 	bne	46a8 <__code_start__-0x3958>
    45fc:	00000830 	andeq	r0, r0, r0, lsr r8
    4600:	00002b19 	andeq	r2, r0, r9, lsl fp
    4604:	00002b15 	andeq	r2, r0, r5, lsl fp
    4608:	0004501e 	andeq	r5, r4, lr, lsl r0
    460c:	200f0000 	andcs	r0, pc, r0
    4610:	bc00009e 	stclt	0, cr0, [r0], {158}	; 0x9e
    4614:	dc000008 	stcle	0, cr0, [r0], {8}
    4618:	10000005 	andne	r0, r0, r5
    461c:	03055001 	movweq	r5, #20481	; 0x5001
    4620:	0000a43c 	andeq	sl, r0, ip, lsr r4
    4624:	05510110 	ldrbeq	r0, [r1, #-272]	; 0xfffffef0
    4628:	00a9d003 	adceq	sp, r9, r3
    462c:	52011000 	andpl	r1, r1, #0, 0
    4630:	ab900305 	blge	fe40524c <__bss_end__+0xfe3fa23c>
    4634:	01100000 	tsteq	r0, r0
    4638:	48080253 	stmdami	r8, {r0, r1, r4, r6, r9}
    463c:	007d0210 	rsbseq	r0, sp, r0, lsl r2
    4640:	a9e00305 	stmibge	r0!, {r0, r2, r8, r9}^
    4644:	11000000 	mrsne	r0, (UNDEF: 0)
    4648:	00009e24 	andeq	r9, r0, r4, lsr #28
    464c:	000008c8 	andeq	r0, r0, r8, asr #17
    4650:	009e440f 	addseq	r4, lr, pc, lsl #8
    4654:	0008bc00 	andeq	fp, r8, r0, lsl #24
    4658:	00062100 	andeq	r2, r6, r0, lsl #2
    465c:	50011000 	andpl	r1, r1, r0
    4660:	aa5c0305 	bge	170527c <__bss_end__+0x16fa26c>
    4664:	01100000 	tsteq	r0, r0
    4668:	d0030551 	andle	r0, r3, r1, asr r5
    466c:	100000a9 	andne	r0, r0, r9, lsr #1
    4670:	03055201 	movweq	r5, #20993	; 0x5201
    4674:	0000ab90 	muleq	r0, r0, fp
    4678:	02530110 	subseq	r0, r3, #4
    467c:	02104e08 	andseq	r4, r0, #8, 28	; 0x80
    4680:	f308007d 	vqadd.u8	q0, q4, <illegal reg q14.5>
    4684:	07235001 	streq	r5, [r3, -r1]!
    4688:	001af809 	andseq	pc, sl, r9, lsl #16
    468c:	009e4811 	addseq	r4, lr, r1, lsl r8
    4690:	0008c800 	andeq	ip, r8, r0, lsl #16
    4694:	df0c0000 	svcle	0x000c0000
    4698:	0100000b 	tsteq	r0, fp
    469c:	9d70063c 	ldclls	6, cr0, [r0, #-240]!	; 0xffffff10
    46a0:	00580000 	subseq	r0, r8, r0
    46a4:	9c010000 	stcls	0, cr0, [r1], {-0}
    46a8:	000006cf 	andeq	r0, r0, pc, asr #13
    46ac:	0003910a 	andeq	r9, r3, sl, lsl #2
    46b0:	103d0100 	eorsne	r0, sp, r0, lsl #2
    46b4:	00000025 	andeq	r0, r0, r5, lsr #32
    46b8:	b00c0305 	andlt	r0, ip, r5, lsl #6
    46bc:	d40e0000 	strle	r0, [lr], #-0
    46c0:	df000000 	svcle	0x00000000
    46c4:	05000006 	streq	r0, [r0, #-6]
    46c8:	00ab8003 	adceq	r8, fp, r3
    46cc:	04070700 	streq	r0, [r7], #-1792	; 0xfffff900
    46d0:	0000002c 	andeq	r0, r0, ip, lsr #32
    46d4:	7a0a4201 	bvc	294ee0 <__bss_end__+0x289ed0>
    46d8:	08000006 	stmdaeq	r0, {r1, r2}
    46dc:	00000ba6 	andeq	r0, r0, r6, lsr #23
    46e0:	00100000 	andseq	r0, r0, r0
    46e4:	9d9c0f00 	ldcls	15, cr0, [ip]
    46e8:	06e40000 	strbteq	r0, [r4], r0
    46ec:	06960000 	ldreq	r0, [r6], r0
    46f0:	01100000 	tsteq	r0, r0
    46f4:	40400350 	submi	r0, r0, r0, asr r3
    46f8:	51011024 	tstpl	r1, r4, lsr #32
    46fc:	24484003 	strbcs	r4, [r8], #-3
    4700:	9db40f00 	ldcls	15, cr0, [r4]
    4704:	08bc0000 	ldmeq	ip!, {}	; <UNPREDICTABLE>
    4708:	06c50000 	strbeq	r0, [r5], r0
    470c:	01100000 	tsteq	r0, r0
    4710:	2c030550 	cfstr32cs	mvfx0, [r3], {80}	; 0x50
    4714:	100000aa 	andne	r0, r0, sl, lsr #1
    4718:	03055101 	movweq	r5, #20737	; 0x5101
    471c:	0000a9d0 	ldrdeq	sl, [r0], -r0
    4720:	05520110 	ldrbeq	r0, [r2, #-272]	; 0xfffffef0
    4724:	00ab8003 	adceq	r8, fp, r3
    4728:	53011000 	movwpl	r1, #4096	; 0x1000
    472c:	00400802 	subeq	r0, r0, r2, lsl #16
    4730:	009db811 	addseq	fp, sp, r1, lsl r8
    4734:	0008c800 	andeq	ip, r8, r0, lsl #16
    4738:	7e120000 	cdpvc	0, 1, cr0, cr2, cr0, {0}
    473c:	df000000 	svcle	0x00000000
    4740:	13000006 	movwne	r0, #6
    4744:	0000002c 	andeq	r0, r0, ip, lsr #32
    4748:	cf05000c 	svcgt	0x0005000c
    474c:	0c000006 	stceq	0, cr0, [r0], {6}
    4750:	0000052d 	andeq	r0, r0, sp, lsr #10
    4754:	d4062d01 	strle	r2, [r6], #-3329	; 0xfffff2ff
    4758:	9c00009c 	stcls	0, cr0, [r0], {156}	; 0x9c
    475c:	01000000 	mrseq	r0, (UNDEF: 0)
    4760:	0007c89c 	muleq	r7, ip, r8
    4764:	0b691700 	bleq	1a4a36c <__bss_end__+0x1a3f35c>
    4768:	2d010000 	stccs	0, cr0, [r1, #-0]
    476c:	00002c26 	andeq	r2, r0, r6, lsr #24
    4770:	002b4700 	eoreq	r4, fp, r0, lsl #14
    4774:	002b3900 	eoreq	r3, fp, r0, lsl #18
    4778:	0b5e1700 	bleq	178a380 <__bss_end__+0x177f370>
    477c:	2d010000 	stccs	0, cr0, [r1, #-0]
    4780:	00002c36 	andeq	r2, r0, r6, lsr ip
    4784:	002baf00 	eoreq	sl, fp, r0, lsl #30
    4788:	002ba700 	eoreq	sl, fp, r0, lsl #14
    478c:	0b6a1d00 	bleq	1a8bb94 <__bss_end__+0x1a80b84>
    4790:	2e010000 	cdpcs	0, 0, cr0, cr1, cr0, {0}
    4794:	0000c20b 	andeq	ip, r0, fp, lsl #4
    4798:	002bf700 	eoreq	pc, fp, r0, lsl #14
    479c:	002be900 	eoreq	lr, fp, r0, lsl #18
    47a0:	00d40e00 	sbcseq	r0, r4, r0, lsl #28
    47a4:	07d80000 	ldrbeq	r0, [r8, r0]
    47a8:	03050000 	movweq	r0, #20480	; 0x5000
    47ac:	0000ab68 	andeq	sl, r0, r8, ror #22
    47b0:	009d2c0f 	addseq	r2, sp, pc, lsl #24
    47b4:	0008bc00 	andeq	fp, r8, r0, lsl #24
    47b8:	00077e00 	andeq	r7, r7, r0, lsl #28
    47bc:	50011000 	andpl	r1, r1, r0
    47c0:	a43c0305 	ldrtge	r0, [ip], #-773	; 0xfffffcfb
    47c4:	01100000 	tsteq	r0, r0
    47c8:	d0030551 	andle	r0, r3, r1, asr r5
    47cc:	100000a9 	andne	r0, r0, r9, lsr #1
    47d0:	03055201 	movweq	r5, #20993	; 0x5201
    47d4:	0000ab68 	andeq	sl, r0, r8, ror #22
    47d8:	02530110 	subseq	r0, r3, #4
    47dc:	02103008 	andseq	r3, r0, #8, 0
    47e0:	0305007d 	movweq	r0, #20605	; 0x507d
    47e4:	0000a9dc 	ldrdeq	sl, [r0], -ip
    47e8:	9d301100 	ldflss	f1, [r0, #-0]
    47ec:	08c80000 	stmiaeq	r8, {}^	; <UNPREDICTABLE>
    47f0:	540f0000 	strpl	r0, [pc], #-0	; 47f8 <__code_start__-0x3808>
    47f4:	bc00009d 	stclt	0, cr0, [r0], {157}	; 0x9d
    47f8:	be000008 	cdplt	0, 0, cr0, cr0, cr8, {0}
    47fc:	10000007 	andne	r0, r0, r7
    4800:	03055001 	movweq	r5, #20481	; 0x5001
    4804:	0000a9e8 	andeq	sl, r0, r8, ror #19
    4808:	05510110 	ldrbeq	r0, [r1, #-272]	; 0xfffffef0
    480c:	00a9d003 	adceq	sp, r9, r3
    4810:	52011000 	andpl	r1, r1, #0, 0
    4814:	ab680305 	blge	1a05430 <__bss_end__+0x19fa420>
    4818:	01100000 	tsteq	r0, r0
    481c:	34080253 	strcc	r0, [r8], #-595	; 0xfffffdad
    4820:	007d0210 	rsbseq	r0, sp, r0, lsl r2
    4824:	5001f303 	andpl	pc, r1, r3, lsl #6
    4828:	9d581100 	ldflse	f1, [r8, #-0]
    482c:	08c80000 	stmiaeq	r8, {}^	; <UNPREDICTABLE>
    4830:	12000000 	andne	r0, r0, #0, 0
    4834:	0000007e 	andeq	r0, r0, lr, ror r0
    4838:	000007d8 	ldrdeq	r0, [r0], -r8
    483c:	00002c13 	andeq	r2, r0, r3, lsl ip
    4840:	05001600 	streq	r1, [r0, #-1536]	; 0xfffffa00
    4844:	000007c8 	andeq	r0, r0, r8, asr #15
    4848:	000bf71f 	andeq	pc, fp, pc, lsl r7	; <UNPREDICTABLE>
    484c:	072a0100 	streq	r0, [sl, -r0, lsl #2]!
    4850:	0000008a 	andeq	r0, r0, sl, lsl #1
    4854:	00009cc4 	andeq	r9, r0, r4, asr #25
    4858:	00000010 	andeq	r0, r0, r0, lsl r0
    485c:	4b1f9c01 	blmi	7eb868 <__bss_end__+0x7e0858>
    4860:	0100000b 	tsteq	r0, fp
    4864:	008a0729 	addeq	r0, sl, r9, lsr #14
    4868:	9cb40000 	ldcls	0, cr0, [r4]
    486c:	00100000 	andseq	r0, r0, r0
    4870:	9c010000 	stcls	0, cr0, [r1], {-0}
    4874:	000bac1f 	andeq	sl, fp, pc, lsl ip
    4878:	07280100 	streq	r0, [r8, -r0, lsl #2]!
    487c:	0000008a 	andeq	r0, r0, sl, lsl #1
    4880:	00009ca4 	andeq	r9, r0, r4, lsr #25
    4884:	00000010 	andeq	r0, r0, r0, lsl r0
    4888:	82209c01 	eorhi	r9, r0, #256	; 0x100
    488c:	0100000b 	tsteq	r0, fp
    4890:	002c1810 	eoreq	r1, ip, r0, lsl r8
    4894:	54030000 	strpl	r0, [r3], #-0
    4898:	21000008 	tstcs	r0, r8
    489c:	10010078 	andne	r0, r1, r8, ror r0
    48a0:	00002c29 	andeq	r2, r0, r9, lsr #24
    48a4:	006e2100 	rsbeq	r2, lr, r0, lsl #2
    48a8:	2c351001 	ldccs	0, cr1, [r5], #-4
    48ac:	0e000000 	cdpeq	0, 0, cr0, cr0, cr0, {0}
    48b0:	000000d4 	ldrdeq	r0, [r0], -r4
    48b4:	00000518 	andeq	r0, r0, r8, lsl r5
    48b8:	abb80305 	blge	fee054d4 <__bss_end__+0xfedfa4c4>
    48bc:	20000000 	andcs	r0, r0, r0
    48c0:	00000bcd 	andeq	r0, r0, sp, asr #23
    48c4:	2c180d01 	ldccs	13, cr0, [r8], {1}
    48c8:	03000000 	movweq	r0, #0
    48cc:	00000870 	andeq	r0, r0, r0, ror r8
    48d0:	01007821 	tsteq	r0, r1, lsr #16
    48d4:	002c290d 	eoreq	r2, ip, sp, lsl #18
    48d8:	20000000 	andcs	r0, r0, r0
    48dc:	00000bec 	andeq	r0, r0, ip, ror #23
    48e0:	2c180701 	ldccs	7, cr0, [r8], {1}
    48e4:	03000000 	movweq	r0, #0
    48e8:	00000896 	muleq	r0, r6, r8
    48ec:	01007821 	tsteq	r0, r1, lsr #16
    48f0:	002c2c07 	eoreq	r2, ip, r7, lsl #24
    48f4:	6e210000 	cdpvs	0, 2, cr0, cr1, cr0, {0}
    48f8:	38070100 	stmdacc	r7, {r8}
    48fc:	0000002c 	andeq	r0, r0, ip, lsr #32
    4900:	0b9e2000 	bleq	fe78c908 <__bss_end__+0xfe7818f8>
    4904:	04010000 	streq	r0, [r1], #-0
    4908:	00005d18 	andeq	r5, r0, r8, lsl sp
    490c:	08bc0300 	ldmeq	ip!, {r8, r9}
    4910:	78210000 	stmdavc	r1!, {}	; <UNPREDICTABLE>
    4914:	29040100 	stmdbcs	r4, {r8}
    4918:	0000005d 	andeq	r0, r0, sp, asr r0
    491c:	01007921 	tsteq	r0, r1, lsr #18
    4920:	005d3504 	subseq	r3, sp, r4, lsl #10
    4924:	22000000 	andcs	r0, r0, #0, 0
    4928:	0000067c 	andeq	r0, r0, ip, ror r6
    492c:	0000067c 	andeq	r0, r0, ip, ror r6
    4930:	22062802 	andcs	r2, r6, #131072	; 0x20000
    4934:	00000051 	andeq	r0, r0, r1, asr r0
    4938:	00000051 	andeq	r0, r0, r1, asr r0
    493c:	22066e02 	andcs	r6, r6, #2, 28
    4940:	00000c08 	andeq	r0, r0, r8, lsl #24
    4944:	00000c08 	andeq	r0, r0, r8, lsl #24
    4948:	22061d02 	andcs	r1, r6, #128	; 0x80
    494c:	0000024e 	andeq	r0, r0, lr, asr #4
    4950:	0000024e 	andeq	r0, r0, lr, asr #4
    4954:	0007f202 	andeq	pc, r7, r2, lsl #4
    4958:	00000673 	andeq	r0, r0, r3, ror r6
    495c:	18ef0004 	stmiane	pc!, {r2}^	; <UNPREDICTABLE>
    4960:	01040000 	mrseq	r0, (UNDEF: 4)
    4964:	0000059a 	muleq	r0, sl, r5
    4968:	000c5a0c 	andeq	r5, ip, ip, lsl #20
    496c:	00065200 	andeq	r5, r6, r0, lsl #4
    4970:	00a05400 	adceq	r5, r0, r0, lsl #8
    4974:	00019800 	andeq	r9, r1, r0, lsl #16
    4978:	00245e00 	eoreq	r5, r4, r0, lsl #28
    497c:	07080200 	streq	r0, [r8, -r0, lsl #4]
    4980:	000000e1 	andeq	r0, r0, r1, ror #1
    4984:	eb070402 	bl	1c5994 <__bss_end__+0x1ba984>
    4988:	03000000 	movweq	r0, #0
    498c:	6e690504 	cdpvs	5, 6, cr0, cr9, cr4, {0}
    4990:	2c040074 	stccs	0, cr0, [r4], {116}	; 0x74
    4994:	02000000 	andeq	r0, r0, #0, 0
    4998:	00450601 	subeq	r0, r5, r1, lsl #12
    499c:	02020000 	andeq	r0, r2, #0, 0
    49a0:	0001cd05 	andeq	ip, r1, r5, lsl #26
    49a4:	05040200 	streq	r0, [r4, #-512]	; 0xfffffe00
    49a8:	000000fd 	strdeq	r0, [r0], -sp
    49ac:	f8050802 			; <UNDEFINED> instruction: 0xf8050802
    49b0:	02000000 	andeq	r0, r0, #0, 0
    49b4:	00430801 	subeq	r0, r3, r1, lsl #16
    49b8:	02020000 	andeq	r0, r2, #0, 0
    49bc:	00007d07 	andeq	r7, r0, r7, lsl #26
    49c0:	02770500 	rsbseq	r0, r7, #0, 10
    49c4:	34030000 	strcc	r0, [r3], #-0
    49c8:	00007519 	andeq	r7, r0, r9, lsl r5
    49cc:	07040200 	streq	r0, [r4, -r0, lsl #4]
    49d0:	000000e6 	andeq	r0, r0, r6, ror #1
    49d4:	00003306 	andeq	r3, r0, r6, lsl #6
    49d8:	00008b00 	andeq	r8, r0, r0, lsl #22
    49dc:	00330700 	eorseq	r0, r3, r0, lsl #14
    49e0:	08000000 	stmdaeq	r0, {}	; <UNPREDICTABLE>
    49e4:	00000106 	andeq	r0, r0, r6, lsl #2
    49e8:	970e1c02 	strls	r1, [lr, -r2, lsl #24]
    49ec:	09000000 	stmdbeq	r0, {}	; <UNPREDICTABLE>
    49f0:	00007c04 	andeq	r7, r0, r4, lsl #24
    49f4:	00330600 	eorseq	r0, r3, r0, lsl #12
    49f8:	00ac0000 	adceq	r0, ip, r0
    49fc:	ac070000 	stcge	0, cr0, [r7], {-0}
    4a00:	00000000 	andeq	r0, r0, r0
    4a04:	00b90409 	adcseq	r0, r9, r9, lsl #8
    4a08:	01020000 	mrseq	r0, (UNDEF: 2)
    4a0c:	00004c08 	andeq	r4, r0, r8, lsl #24
    4a10:	00b20400 	adcseq	r0, r2, r0, lsl #8
    4a14:	ba080000 	blt	204a1c <__bss_end__+0x1f9a0c>
    4a18:	02000006 	andeq	r0, r0, #6, 0
    4a1c:	00ca0e21 	sbceq	r0, sl, r1, lsr #28
    4a20:	04090000 	streq	r0, [r9], #-0
    4a24:	0000009d 	muleq	r0, sp, r0
    4a28:	5b01070a 	blpl	46658 <__bss_end__+0x3b648>
    4a2c:	04000000 	streq	r0, [r0], #-0
    4a30:	010f0e0c 	tsteq	pc, ip, lsl #28
    4a34:	230b0000 	movwcs	r0, #45056	; 0xb000
    4a38:	0000000b 	andeq	r0, r0, fp
    4a3c:	00095b0b 	andeq	r5, r9, fp, lsl #22
    4a40:	9e0b0100 	adflse	f0, f3, f0
    4a44:	04000009 	streq	r0, [r0], #-9
    4a48:	0009ad0b 	andeq	sl, r9, fp, lsl #26
    4a4c:	bc0b0500 	cfstr32lt	mvfx0, [fp], {-0}
    4a50:	06000009 	streq	r0, [r0], -r9
    4a54:	0009cb0b 	andeq	ip, r9, fp, lsl #22
    4a58:	ec0b0700 	stc	7, cr0, [fp], {-0}
    4a5c:	0300000a 	movweq	r0, #10
    4a60:	0009da0b 	andeq	sp, r9, fp, lsl #20
    4a64:	05000200 	streq	r0, [r0, #-512]	; 0xfffffe00
    4a68:	00000c93 	muleq	r0, r3, ip
    4a6c:	d0031504 	andle	r1, r3, r4, lsl #10
    4a70:	0c000000 	stceq	0, cr0, [r0], {-0}
    4a74:	00000c31 	andeq	r0, r0, r1, lsr ip
    4a78:	3a171d01 	bcc	5cbe84 <__bss_end__+0x5c0e74>
    4a7c:	1c000000 	stcne	0, cr0, [r0], {-0}
    4a80:	0c202000 	stceq	0, cr2, [r0], #-0
    4a84:	00000c27 	andeq	r0, r0, r7, lsr #24
    4a88:	3a171e01 	bcc	5cc294 <__bss_end__+0x5c1284>
    4a8c:	28000000 	stmdacs	r0, {}	; <UNPREDICTABLE>
    4a90:	0c202000 	stceq	0, cr2, [r0], #-0
    4a94:	00000c9f 	muleq	r0, pc, ip	; <UNPREDICTABLE>
    4a98:	3a171f01 	bcc	5cc6a4 <__bss_end__+0x5c1694>
    4a9c:	34000000 	strcc	r0, [r0], #-0
    4aa0:	0d202000 	stceq	0, cr2, [r0, #-0]
    4aa4:	00000c50 	andeq	r0, r0, r0, asr ip
    4aa8:	33055101 	movwcc	r5, #20737	; 0x5101
    4aac:	c4000000 	strgt	r0, [r0], #-0
    4ab0:	280000a1 	stmdacs	r0, {r0, r5, r7}
    4ab4:	01000000 	mrseq	r0, (UNDEF: 0)
    4ab8:	0001ba9c 	muleq	r1, ip, sl
    4abc:	69700e00 	ldmdbvs	r0!, {r9, sl, fp}^
    4ac0:	5101006e 	tstpl	r1, lr, rrx
    4ac4:	00002c18 	andeq	r2, r0, r8, lsl ip
    4ac8:	002c5d00 	eoreq	r5, ip, r0, lsl #26
    4acc:	002c5700 	eoreq	r5, ip, r0, lsl #14
    4ad0:	0ca90f00 	stceq	15, cr0, [r9]
    4ad4:	52010000 	andpl	r0, r1, #0, 0
    4ad8:	00002c0e 	andeq	r2, r0, lr, lsl #24
    4adc:	002c9300 	eoreq	r9, ip, r0, lsl #6
    4ae0:	002c8900 	eoreq	r8, ip, r0, lsl #18
    4ae4:	666f1000 	strbtvs	r1, [pc], -r0
    4ae8:	53010066 	movwpl	r0, #4198	; 0x1066
    4aec:	00002c0e 	andeq	r2, r0, lr, lsl #24
    4af0:	002d0100 	eoreq	r0, sp, r0, lsl #2
    4af4:	002cfb00 	eoreq	pc, ip, r0, lsl #22
    4af8:	a1d81100 	bicsge	r1, r8, r0, lsl #2
    4afc:	065e0000 	ldrbeq	r0, [lr], -r0
    4b00:	01120000 	tsteq	r2, r0
    4b04:	00740a50 	rsbseq	r0, r4, r0, asr sl
    4b08:	b4232535 	strtlt	r2, [r3], #-1333	; 0xfffffacb
    4b0c:	02818080 	addeq	r8, r1, #128, 0	; 0x80
    4b10:	3b130000 	blcc	4c4b18 <__bss_end__+0x4b9b08>
    4b14:	0100000c 	tsteq	r0, ip
    4b18:	a194064a 	orrsge	r0, r4, sl, asr #12
    4b1c:	00300000 	eorseq	r0, r0, r0
    4b20:	9c010000 	stcls	0, cr0, [r1], {-0}
    4b24:	00000275 	andeq	r0, r0, r5, ror r2
    4b28:	6e69700e 	cdpvs	0, 6, cr7, cr9, cr14, {0}
    4b2c:	1a4a0100 	bne	1284f34 <__bss_end__+0x1279f24>
    4b30:	0000002c 	andeq	r0, r0, ip, lsr #32
    4b34:	00002d3e 	andeq	r2, r0, lr, lsr sp
    4b38:	00002d32 	andeq	r2, r0, r2, lsr sp
    4b3c:	0100760e 	tsteq	r0, lr, lsl #12
    4b40:	002c284a 	eoreq	r2, ip, sl, asr #16
    4b44:	2d920000 	ldccs	0, cr0, [r2]
    4b48:	2d8e0000 	stccs	0, cr0, [lr]
    4b4c:	8d140000 	ldchi	0, cr0, [r4, #-0]
    4b50:	a4000003 	strge	r0, [r0], #-3
    4b54:	010000a1 	smlatbeq	r0, r1, r0, r0
    4b58:	00000520 	andeq	r0, r0, r0, lsr #10
    4b5c:	35094c01 	strcc	r4, [r9, #-3073]	; 0xfffff3ff
    4b60:	15000002 	strne	r0, [r0, #-2]
    4b64:	0000039a 	muleq	r0, sl, r3
    4b68:	00002db9 			; <UNDEFINED> instruction: 0x00002db9
    4b6c:	00002db3 			; <UNDEFINED> instruction: 0x00002db3
    4b70:	00a1b016 	adceq	fp, r1, r6, lsl r0
    4b74:	00066a00 	andeq	r6, r6, r0, lsl #20
    4b78:	50011200 	andpl	r1, r1, r0, lsl #4
    4b7c:	001c0c05 	andseq	r0, ip, r5, lsl #24
    4b80:	01122020 	tsteq	r2, r0, lsr #32
    4b84:	f3310551 	vqrshl.u64	q0, <illegal reg q0.5>, <illegal reg q0.5>
    4b88:	00245001 	eoreq	r5, r4, r1
    4b8c:	03731700 	cmneq	r3, #0, 14
    4b90:	a1b00000 	movsge	r0, r0
    4b94:	b0020000 	andlt	r0, r2, r0
    4b98:	140000a1 	strne	r0, [r0], #-161	; 0xffffff5f
    4b9c:	01000000 	mrseq	r0, (UNDEF: 0)
    4ba0:	8015094e 	andshi	r0, r5, lr, asr #18
    4ba4:	eb000003 	bl	4bb8 <__code_start__-0x3448>
    4ba8:	e500002d 	str	r0, [r0, #-45]	; 0xffffffd3
    4bac:	1600002d 	strne	r0, [r0], -sp, lsr #32
    4bb0:	0000a1bc 			; <UNDEFINED> instruction: 0x0000a1bc
    4bb4:	0000066a 	andeq	r0, r0, sl, ror #12
    4bb8:	05500112 	ldrbeq	r0, [r0, #-274]	; 0xfffffeee
    4bbc:	2000280c 	andcs	r2, r0, ip, lsl #16
    4bc0:	51011220 	tstpl	r1, r0, lsr #4
    4bc4:	01f33105 	mvnseq	r3, r5, lsl #2
    4bc8:	00002450 	andeq	r2, r0, r0, asr r4
    4bcc:	0c671300 	stcleq	3, cr1, [r7], #-0
    4bd0:	45010000 	strmi	r0, [r1, #-0]
    4bd4:	00a13c06 	adceq	r3, r1, r6, lsl #24
    4bd8:	00005800 	andeq	r5, r0, r0, lsl #16
    4bdc:	739c0100 	orrsvc	r0, ip, #0
    4be0:	0e000003 	cdpeq	0, 0, cr0, cr0, cr3, {0}
    4be4:	006e6970 	rsbeq	r6, lr, r0, ror r9
    4be8:	2c1e4501 	cfldr32cs	mvfx4, [lr], {1}
    4bec:	1d000000 	stcne	0, cr0, [r0, #-0]
    4bf0:	1700002e 	strne	r0, [r0, -lr, lsr #32]
    4bf4:	1800002e 	stmdane	r0, {r1, r2, r3, r5}
    4bf8:	000004a5 	andeq	r0, r0, r5, lsr #9
    4bfc:	0000a13c 	andeq	sl, r0, ip, lsr r1
    4c00:	0004e002 	andeq	lr, r4, r2
    4c04:	05460100 	strbeq	r0, [r6, #-256]	; 0xffffff00
    4c08:	0004be19 	andeq	fp, r4, r9, lsl lr
    4c0c:	b2150000 	andslt	r0, r5, #0, 0
    4c10:	4f000004 	svcmi	0x00000004
    4c14:	4900002e 	stmdbmi	r0, {r1, r2, r3, r5}
    4c18:	1a00002e 	bne	4cd8 <__code_start__-0x3328>
    4c1c:	000004e0 	andeq	r0, r0, r0, ror #9
    4c20:	0004ca1b 	andeq	ip, r4, fp, lsl sl
    4c24:	04d61b00 	ldrbeq	r1, [r6], #2816	; 0xb00
    4c28:	e01b0000 	ands	r0, fp, r0
    4c2c:	18000004 	stmdane	r0, {r2}
    4c30:	000004a5 	andeq	r0, r0, r5, lsr #9
    4c34:	0000a144 	andeq	sl, r0, r4, asr #2
    4c38:	00050000 	andeq	r0, r5, r0
    4c3c:	06280100 	strteq	r0, [r8], -r0, lsl #2
    4c40:	0004be19 	andeq	fp, r4, r9, lsl lr
    4c44:	b2150000 	andslt	r0, r5, #0, 0
    4c48:	81000004 	tsthi	r0, r4
    4c4c:	7b00002e 	blvc	4d0c <__code_start__-0x32f4>
    4c50:	1a00002e 	bne	4d10 <__code_start__-0x32f0>
    4c54:	00000500 	andeq	r0, r0, r0, lsl #10
    4c58:	0004ca1c 	andeq	ip, r4, ip, lsl sl
    4c5c:	002eb300 	eoreq	fp, lr, r0, lsl #6
    4c60:	002ead00 	eoreq	sl, lr, r0, lsl #26
    4c64:	04d61c00 	ldrbeq	r1, [r6], #3072	; 0xc00
    4c68:	2ef50000 	cdpcs	0, 15, cr0, cr5, cr0, {0}
    4c6c:	2eef0000 	cdpcs	0, 14, cr0, cr15, cr0, {0}
    4c70:	e01c0000 	ands	r0, ip, r0
    4c74:	4b000004 	blmi	4c8c <__code_start__-0x3374>
    4c78:	4300002f 	movwmi	r0, #47	; 0x2f
    4c7c:	1d00002f 	stcne	0, cr0, [r0, #-188]	; 0xffffff44
    4c80:	0000a16c 	andeq	sl, r0, ip, ror #2
    4c84:	0000065e 	andeq	r0, r0, lr, asr r6
    4c88:	0000033b 	andeq	r0, r0, fp, lsr r3
    4c8c:	02500112 	subseq	r0, r0, #-2147483644	; 0x80000004
    4c90:	16000076 			; <UNDEFINED> instruction: 0x16000076
    4c94:	0000a190 	muleq	r0, r0, r1
    4c98:	0000066a 	andeq	r0, r0, sl, ror #12
    4c9c:	25500112 	ldrbcs	r0, [r0, #-274]	; 0xfffffeee
    4ca0:	f75001f3 			; <UNDEFINED> instruction: 0xf75001f3
    4ca4:	f425f72c 	vld1.8	{d15}, [r5 :128], ip
    4ca8:	cccd0825 	stclgt	8, cr0, [sp], {37}	; 0x25
    4cac:	0000cccc 	andeq	ip, r0, ip, asr #25
    4cb0:	081e0000 	ldmdaeq	lr, {}	; <UNPREDICTABLE>
    4cb4:	2525f720 	strcs	pc, [r5, #-1824]!	; 0xfffff8e0
    4cb8:	00f72cf7 	ldrshteq	r2, [r7], #199	; 0xc7
    4cbc:	80232533 	eorhi	r2, r3, r3, lsr r5
    4cc0:	3240a080 	subcc	sl, r0, #128, 0	; 0x80
    4cc4:	00000024 	andeq	r0, r0, r4, lsr #32
    4cc8:	1e000000 	cdpne	0, 0, cr0, cr0, cr0, {0}
    4ccc:	00000c76 	andeq	r0, r0, r6, ror ip
    4cd0:	030d4001 	movweq	r4, #53249	; 0xd001
    4cd4:	0000038d 	andeq	r0, r0, sp, lsl #7
    4cd8:	6e69701f 	mcrvs	0, 3, r7, cr9, cr15, {0}
    4cdc:	23400100 	movtcs	r0, #256	; 0x100
    4ce0:	0000002c 	andeq	r0, r0, ip, lsr #32
    4ce4:	0cae1e00 	stceq	14, cr1, [lr]
    4ce8:	3b010000 	blcc	44cf0 <__bss_end__+0x39ce0>
    4cec:	03a7030d 			; <UNDEFINED> instruction: 0x03a7030d
    4cf0:	701f0000 	andsvc	r0, pc, r0
    4cf4:	01006e69 	tsteq	r0, r9, ror #28
    4cf8:	002c223b 	eoreq	r2, ip, fp, lsr r2
    4cfc:	13000000 	movwne	r0, #0
    4d00:	00000c83 	andeq	r0, r0, r3, lsl #25
    4d04:	b4063601 	strlt	r3, [r6], #-1537	; 0xfffff9ff
    4d08:	580000a0 	stmdapl	r0, {r5, r7}
    4d0c:	01000000 	mrseq	r0, (UNDEF: 0)
    4d10:	0004a59c 	muleq	r4, ip, r5
    4d14:	69700e00 	ldmdbvs	r0!, {r9, sl, fp}^
    4d18:	3601006e 	strcc	r0, [r1], -lr, rrx
    4d1c:	00002c1f 	andeq	r2, r0, pc, lsl ip
    4d20:	002fa900 	eoreq	sl, pc, r0, lsl #18
    4d24:	002fa500 	eoreq	sl, pc, r0, lsl #10
    4d28:	04a51800 	strteq	r1, [r5], #2048	; 0x800
    4d2c:	a0b40000 	adcsge	r0, r4, r0
    4d30:	a0020000 	andge	r0, r2, r0
    4d34:	01000004 	tsteq	r0, r4
    4d38:	be190537 	mrclt	5, 0, r0, cr9, cr7, {1}
    4d3c:	01000004 	tsteq	r0, r4
    4d40:	0004b215 	andeq	fp, r4, r5, lsl r2
    4d44:	002fce00 	eoreq	ip, pc, r0, lsl #28
    4d48:	002fca00 	eoreq	ip, pc, r0, lsl #20
    4d4c:	04a01a00 	strteq	r1, [r0], #2560	; 0xa00
    4d50:	ca1b0000 	bgt	6c4d58 <__bss_end__+0x6b9d48>
    4d54:	1b000004 	blne	4d6c <__code_start__-0x3294>
    4d58:	000004d6 	ldrdeq	r0, [r0], -r6
    4d5c:	0004e01b 	andeq	lr, r4, fp, lsl r0
    4d60:	04a51800 	strteq	r1, [r5], #2048	; 0x800
    4d64:	a0bc0000 	adcsge	r0, ip, r0
    4d68:	c0000000 	andgt	r0, r0, r0
    4d6c:	01000004 	tsteq	r0, r4
    4d70:	be190628 	cfmsub32lt	mvax1, mvfx0, mvfx9, mvfx8
    4d74:	01000004 	tsteq	r0, r4
    4d78:	0004b215 	andeq	fp, r4, r5, lsl r2
    4d7c:	002ff300 	eoreq	pc, pc, r0, lsl #6
    4d80:	002fef00 	eoreq	lr, pc, r0, lsl #30
    4d84:	04c01a00 	strbeq	r1, [r0], #2560	; 0xa00
    4d88:	ca1c0000 	bgt	704d90 <__bss_end__+0x6f9d80>
    4d8c:	18000004 	stmdane	r0, {r2}
    4d90:	14000030 	strne	r0, [r0], #-48	; 0xffffffd0
    4d94:	1c000030 	stcne	0, cr0, [r0], {48}	; 0x30
    4d98:	000004d6 	ldrdeq	r0, [r0], -r6
    4d9c:	00003064 	andeq	r3, r0, r4, rrx
    4da0:	0000305e 	andeq	r3, r0, lr, asr r0
    4da4:	0004e01c 	andeq	lr, r4, ip, lsl r0
    4da8:	0030ba00 	eorseq	fp, r0, r0, lsl #20
    4dac:	0030b200 	eorseq	fp, r0, r0, lsl #4
    4db0:	a0e81d00 	rscge	r1, r8, r0, lsl #26
    4db4:	065e0000 	ldrbeq	r0, [lr], -r0
    4db8:	046d0000 	strbteq	r0, [sp], #-0
    4dbc:	01120000 	tsteq	r2, r0
    4dc0:	00750250 	rsbseq	r0, r5, r0, asr r2
    4dc4:	a1081600 	tstge	r8, r0, lsl #12
    4dc8:	066a0000 	strbteq	r0, [sl], -r0
    4dcc:	01120000 	tsteq	r2, r0
    4dd0:	01f32550 	mvnseq	r2, r0, asr r5
    4dd4:	f72cf750 			; <UNDEFINED> instruction: 0xf72cf750
    4dd8:	0825f425 	stmdaeq	r5!, {r0, r2, r5, sl, ip, sp, lr, pc}
    4ddc:	cccccccd 	stclgt	12, cr12, [ip], {205}	; 0xcd
    4de0:	00000000 	andeq	r0, r0, r0
    4de4:	f720081e 			; <UNDEFINED> instruction: 0xf720081e
    4de8:	2cf72525 	cfldr64cs	mvdx2, [r7], #148	; 0x94
    4dec:	253300f7 	ldrcs	r0, [r3, #-247]!	; 0xffffff09
    4df0:	a0808023 	addge	r8, r0, r3, lsr #32
    4df4:	00243240 	eoreq	r3, r4, r0, asr #4
    4df8:	00000000 	andeq	r0, r0, r0
    4dfc:	0b331e00 	bleq	ccc604 <__bss_end__+0xcc15f4>
    4e00:	28010000 	stmdacs	r1, {}	; <UNPREDICTABLE>
    4e04:	04eb0106 	strbteq	r0, [fp], #262	; 0x106
    4e08:	701f0000 	andsvc	r0, pc, r0
    4e0c:	01006e69 	tsteq	r0, r9, ror #28
    4e10:	002c2128 	eoreq	r2, ip, r8, lsr #2
    4e14:	c4200000 	strtgt	r0, [r0], #-0
    4e18:	01000000 	mrseq	r0, (UNDEF: 0)
    4e1c:	010f3228 	tsteq	pc, r8, lsr #4
    4e20:	6f210000 	svcvs	0x00210000
    4e24:	01006666 	tsteq	r0, r6, ror #12
    4e28:	002c0e2d 	eoreq	r0, ip, sp, lsr #28
    4e2c:	67210000 	strvs	r0, [r1, -r0]!
    4e30:	0e2e0100 	sufeqe	f0, f6, f0
    4e34:	0000002c 	andeq	r0, r0, ip, lsr #32
    4e38:	01007621 	tsteq	r0, r1, lsr #12
    4e3c:	002c0e30 	eoreq	r0, ip, r0, lsr lr
    4e40:	22000000 	andcs	r0, r0, #0, 0
    4e44:	00000c46 	andeq	r0, r0, r6, asr #24
    4e48:	6918b102 	ldmdbvs	r8, {r1, r8, ip, sp, pc}
    4e4c:	03000000 	movweq	r0, #0
    4e50:	00000507 	andeq	r0, r0, r7, lsl #10
    4e54:	0200781f 	andeq	r7, r0, #2031616	; 0x1f0000
    4e58:	00692bb1 	strhteq	r2, [r9], #-177	; 0xffffff4f
    4e5c:	23000000 	movwcs	r0, #0
    4e60:	000004a5 	andeq	r0, r0, r5, lsr #9
    4e64:	0000a054 	andeq	sl, r0, r4, asr r0
    4e68:	00000060 	andeq	r0, r0, r0, rrx
    4e6c:	05e49c01 	strbeq	r9, [r4, #3073]!	; 0xc01
    4e70:	b2150000 	andslt	r0, r5, #0, 0
    4e74:	f9000004 			; <UNDEFINED> instruction: 0xf9000004
    4e78:	f5000030 			; <UNDEFINED> instruction: 0xf5000030
    4e7c:	15000030 	strne	r0, [r0, #-48]	; 0xffffffd0
    4e80:	000004be 			; <UNDEFINED> instruction: 0x000004be
    4e84:	0000311e 	andeq	r3, r0, lr, lsl r1
    4e88:	0000311a 	andeq	r3, r0, sl, lsl r1
    4e8c:	0004ca1b 	andeq	ip, r4, fp, lsl sl
    4e90:	04d61b00 	ldrbeq	r1, [r6], #2816	; 0xb00
    4e94:	e01b0000 	ands	r0, fp, r0
    4e98:	18000004 	stmdane	r0, {r2}
    4e9c:	000004a5 	andeq	r0, r0, r5, lsr #9
    4ea0:	0000a05c 	andeq	sl, r0, ip, asr r0
    4ea4:	00048000 	andeq	r8, r4, r0
    4ea8:	06280100 	strteq	r0, [r8], -r0, lsl #2
    4eac:	0004be15 	andeq	fp, r4, r5, lsl lr
    4eb0:	00314300 	eorseq	r4, r1, r0, lsl #6
    4eb4:	00313f00 	eorseq	r3, r1, r0, lsl #30
    4eb8:	04b21500 	ldrteq	r1, [r2], #1280	; 0x500
    4ebc:	31680000 	cmncc	r8, r0
    4ec0:	31640000 	cmncc	r4, r0
    4ec4:	801a0000 	andshi	r0, sl, r0
    4ec8:	1c000004 	stcne	0, cr0, [r0], {4}
    4ecc:	000004ca 	andeq	r0, r0, sl, asr #9
    4ed0:	0000318d 	andeq	r3, r0, sp, lsl #3
    4ed4:	00003189 	andeq	r3, r0, r9, lsl #3
    4ed8:	0004d61c 	andeq	sp, r4, ip, lsl r6
    4edc:	0031d900 	eorseq	sp, r1, r0, lsl #18
    4ee0:	0031d300 	eorseq	sp, r1, r0, lsl #6
    4ee4:	04e01c00 	strbteq	r1, [r0], #3072	; 0xc00
    4ee8:	322f0000 	eorcc	r0, pc, #0, 0
    4eec:	32270000 	eorcc	r0, r7, #0, 0
    4ef0:	941d0000 	ldrls	r0, [sp], #-0
    4ef4:	5e0000a0 	cdppl	0, 0, cr0, cr0, cr0, {5}
    4ef8:	ae000006 	cdpge	0, 0, cr0, cr0, cr6, {0}
    4efc:	12000005 	andne	r0, r0, #5, 0
    4f00:	76025001 	strvc	r5, [r2], -r1
    4f04:	b0160000 	andslt	r0, r6, r0
    4f08:	6a0000a0 	bvs	5190 <__code_start__-0x2e70>
    4f0c:	12000006 	andne	r0, r0, #6, 0
    4f10:	f3255001 	vhadd.u32	d5, d5, d1
    4f14:	2cf75001 	ldclcs	0, cr5, [r7], #4
    4f18:	25f425f7 	ldrbcs	r2, [r4, #1527]!	; 0x5f7
    4f1c:	cccccd08 	stclgt	13, cr12, [ip], {8}
    4f20:	000000cc 	andeq	r0, r0, ip, asr #1
    4f24:	20081e00 	andcs	r1, r8, r0, lsl #28
    4f28:	f72525f7 			; <UNDEFINED> instruction: 0xf72525f7
    4f2c:	3300f72c 	movwcc	pc, #1836	; 0x72c	; <UNPREDICTABLE>
    4f30:	80802325 	addhi	r2, r0, r5, lsr #6
    4f34:	243240a0 	ldrtcs	r4, [r2], #-160	; 0xffffff60
    4f38:	00000000 	andeq	r0, r0, r0
    4f3c:	00038d23 	andeq	r8, r3, r3, lsr #26
    4f40:	00a10c00 	adceq	r0, r1, r0, lsl #24
    4f44:	00001800 	andeq	r1, r0, r0, lsl #16
    4f48:	219c0100 	orrscs	r0, ip, r0, lsl #2
    4f4c:	15000006 	strne	r0, [r0, #-6]
    4f50:	0000039a 	muleq	r0, sl, r3
    4f54:	00003285 	andeq	r3, r0, r5, lsl #5
    4f58:	0000327f 	andeq	r3, r0, pc, ror r2
    4f5c:	00a12016 	adceq	r2, r1, r6, lsl r0
    4f60:	00066a00 	andeq	r6, r6, r0, lsl #20
    4f64:	50011200 	andpl	r1, r1, r0, lsl #4
    4f68:	001c0c05 	andseq	r0, ip, r5, lsl #24
    4f6c:	01122020 	tsteq	r2, r0, lsr #32
    4f70:	f3310551 	vqrshl.u64	q0, <illegal reg q0.5>, <illegal reg q0.5>
    4f74:	00245001 	eoreq	r5, r4, r1
    4f78:	03732300 	cmneq	r3, #0, 6
    4f7c:	a1240000 			; <UNDEFINED> instruction: 0xa1240000
    4f80:	00180000 	andseq	r0, r8, r0
    4f84:	9c010000 	stcls	0, cr0, [r1], {-0}
    4f88:	0000065e 	andeq	r0, r0, lr, asr r6
    4f8c:	00038015 	andeq	r8, r3, r5, lsl r0
    4f90:	0032b700 	eorseq	fp, r2, r0, lsl #14
    4f94:	0032b100 	eorseq	fp, r2, r0, lsl #2
    4f98:	a1381600 	teqge	r8, r0, lsl #12
    4f9c:	066a0000 	strbteq	r0, [sl], -r0
    4fa0:	01120000 	tsteq	r2, r0
    4fa4:	280c0550 	stmdacs	ip, {r4, r6, r8, sl}
    4fa8:	12202000 	eorne	r2, r0, #0, 0
    4fac:	31055101 	tstcc	r5, r1, lsl #2
    4fb0:	245001f3 	ldrbcs	r0, [r0], #-499	; 0xfffffe0d
    4fb4:	08240000 	stmdaeq	r4!, {}	; <UNPREDICTABLE>
    4fb8:	08000009 	stmdaeq	r0, {r0, r3}
    4fbc:	02000009 	andeq	r0, r0, #9, 0
    4fc0:	74240ac2 	strtvc	r0, [r4], #-2754	; 0xfffff53e
    4fc4:	74000008 	strvc	r0, [r0], #-8
    4fc8:	02000008 	andeq	r0, r0, #8, 0
    4fcc:	490006ad 	stmdbmi	r0, {r0, r2, r3, r5, r7, r9, sl}
    4fd0:	04000001 	streq	r0, [r0], #-1
    4fd4:	001b1d00 	andseq	r1, fp, r0, lsl #26
    4fd8:	9a010400 	bls	45fe0 <__bss_end__+0x3afd0>
    4fdc:	0c000005 	stceq	0, cr0, [r0], {5}
    4fe0:	00000cd8 	ldrdeq	r0, [r0], -r8
    4fe4:	00000652 	andeq	r0, r0, r2, asr r6
    4fe8:	0000a1ec 	andeq	sl, r0, ip, ror #3
    4fec:	0000003c 	andeq	r0, r0, ip, lsr r0
    4ff0:	000026eb 	andeq	r2, r0, fp, ror #13
    4ff4:	69050402 	stmdbvs	r5, {r1, sl}
    4ff8:	0300746e 	movweq	r7, #1134	; 0x46e
    4ffc:	00eb0704 	rsceq	r0, fp, r4, lsl #14
    5000:	01030000 	mrseq	r0, (UNDEF: 3)
    5004:	00004506 	andeq	r4, r0, r6, lsl #10
    5008:	05020300 	streq	r0, [r2, #-768]	; 0xfffffd00
    500c:	000001cd 	andeq	r0, r0, sp, asr #3
    5010:	fd050403 	stc2	4, cr0, [r5, #-12]
    5014:	03000000 	movweq	r0, #0
    5018:	00f80508 	rscseq	r0, r8, r8, lsl #10
    501c:	01030000 	mrseq	r0, (UNDEF: 3)
    5020:	00004308 	andeq	r4, r0, r8, lsl #6
    5024:	07020300 	streq	r0, [r2, -r0, lsl #6]
    5028:	0000007d 	andeq	r0, r0, sp, ror r0
    502c:	e6070403 	str	r0, [r7], -r3, lsl #8
    5030:	03000000 	movweq	r0, #0
    5034:	00e10708 	rsceq	r0, r1, r8, lsl #14
    5038:	25040000 	strcs	r0, [r4, #-0]
    503c:	7a000000 	bvc	5044 <__code_start__-0x2fbc>
    5040:	05000000 	streq	r0, [r0, #-0]
    5044:	00000025 	andeq	r0, r0, r5, lsr #32
    5048:	01060600 	tsteq	r6, r0, lsl #12
    504c:	1c020000 	stcne	0, cr0, [r2], {-0}
    5050:	0000860e 	andeq	r8, r0, lr, lsl #12
    5054:	6b040700 	blvs	106c5c <__bss_end__+0xfbc4c>
    5058:	04000000 	streq	r0, [r0], #-0
    505c:	00000025 	andeq	r0, r0, r5, lsr #32
    5060:	0000009b 	muleq	r0, fp, r0
    5064:	00009b05 	andeq	r9, r0, r5, lsl #22
    5068:	04070000 	streq	r0, [r7], #-0
    506c:	000000a8 	andeq	r0, r0, r8, lsr #1
    5070:	4c080103 	stfmis	f0, [r8], {3}
    5074:	08000000 	stmdaeq	r0, {}	; <UNPREDICTABLE>
    5078:	000000a1 	andeq	r0, r0, r1, lsr #1
    507c:	0006ba06 	andeq	fp, r6, r6, lsl #20
    5080:	0e210200 	cdpeq	2, 2, cr0, cr1, cr0, {0}
    5084:	000000b9 	strheq	r0, [r0], -r9
    5088:	008c0407 	addeq	r0, ip, r7, lsl #8
    508c:	7a090000 	bvc	245094 <__bss_end__+0x23a084>
    5090:	01000000 	mrseq	r0, (UNDEF: 0)
    5094:	03050706 	movweq	r0, #22278	; 0x5706
    5098:	0000abe0 	andeq	sl, r0, r0, ror #23
    509c:	000ccb0a 	andeq	ip, ip, sl, lsl #22
    50a0:	060b0100 	streq	r0, [fp], -r0, lsl #2
    50a4:	0000a218 	andeq	sl, r0, r8, lsl r2
    50a8:	00000010 	andeq	r0, r0, r0, lsl r0
    50ac:	00f19c01 	rscseq	r9, r1, r1, lsl #24
    50b0:	660b0000 	strvs	r0, [fp], -r0
    50b4:	0b010070 	bleq	4527c <__bss_end__+0x3a26c>
    50b8:	00008619 	andeq	r8, r0, r9, lsl r6
    50bc:	00500100 	subseq	r0, r0, r0, lsl #2
    50c0:	000c080c 	andeq	r0, ip, ip, lsl #16
    50c4:	06080100 	streq	r0, [r8], -r0, lsl #2
    50c8:	0000a200 	andeq	sl, r0, r0, lsl #4
    50cc:	00000018 	andeq	r0, r0, r8, lsl r0
    50d0:	ba0d9c01 	blt	36c0dc <__bss_end__+0x3610cc>
    50d4:	0100000c 	tsteq	r0, ip
    50d8:	00250c03 	eoreq	r0, r5, r3, lsl #24
    50dc:	a1ec0000 	mvnge	r0, r0
    50e0:	00140000 	andseq	r0, r4, r0
    50e4:	9c010000 	stcls	0, cr0, [r1], {-0}
    50e8:	00000140 	andeq	r0, r0, r0, asr #2
    50ec:	0100630e 	tsteq	r0, lr, lsl #6
    50f0:	00252103 	eoreq	r2, r5, r3, lsl #2
    50f4:	32e70000 	rsccc	r0, r7, #0, 0
    50f8:	32e30000 	rsccc	r0, r3, #0, 0
    50fc:	f80f0000 			; <UNDEFINED> instruction: 0xf80f0000
    5100:	400000a1 	andmi	r0, r0, r1, lsr #1
    5104:	10000001 	andne	r0, r0, r1
    5108:	74025001 	strvc	r5, [r2], #-1
    510c:	11000000 	mrsne	r0, (UNDEF: 0)
    5110:	00000b19 	andeq	r0, r0, r9, lsl fp
    5114:	00000b19 	andeq	r0, r0, r9, lsl fp
    5118:	00064202 	andeq	r4, r6, r2, lsl #4
    511c:	00000137 	andeq	r0, r0, r7, lsr r1
    5120:	1c2c0004 	stcne	0, cr0, [ip], #-16
    5124:	01040000 	mrseq	r0, (UNDEF: 4)
    5128:	0000059a 	muleq	r0, sl, r5
    512c:	000ce90c 	andeq	lr, ip, ip, lsl #18
    5130:	00065200 	andeq	r5, r6, r0, lsl #4
    5134:	00a22800 	adceq	r2, r2, r0, lsl #16
    5138:	00002c00 	andeq	r2, r0, r0, lsl #24
    513c:	00278d00 	eoreq	r8, r7, r0, lsl #26
    5140:	05040200 	streq	r0, [r4, #-512]	; 0xfffffe00
    5144:	00746e69 	rsbseq	r6, r4, r9, ror #28
    5148:	eb070403 	bl	1c615c <__bss_end__+0x1bb14c>
    514c:	03000000 	movweq	r0, #0
    5150:	00450601 	subeq	r0, r5, r1, lsl #12
    5154:	02030000 	andeq	r0, r3, #0, 0
    5158:	0001cd05 	andeq	ip, r1, r5, lsl #26
    515c:	05040300 	streq	r0, [r4, #-768]	; 0xfffffd00
    5160:	000000fd 	strdeq	r0, [r0], -sp
    5164:	f8050803 			; <UNDEFINED> instruction: 0xf8050803
    5168:	03000000 	movweq	r0, #0
    516c:	00430801 	subeq	r0, r3, r1, lsl #16
    5170:	02030000 	andeq	r0, r3, #0, 0
    5174:	00007d07 	andeq	r7, r0, r7, lsl #26
    5178:	07040300 	streq	r0, [r4, -r0, lsl #6]
    517c:	000000e6 	andeq	r0, r0, r6, ror #1
    5180:	e1070803 	tst	r7, r3, lsl #16
    5184:	04000000 	streq	r0, [r0], #-0
    5188:	00000025 	andeq	r0, r0, r5, lsr #32
    518c:	0000007a 	andeq	r0, r0, sl, ror r0
    5190:	00002505 	andeq	r2, r0, r5, lsl #10
    5194:	06060000 	streq	r0, [r6], -r0
    5198:	02000001 	andeq	r0, r0, #1, 0
    519c:	00860e1c 	addeq	r0, r6, ip, lsl lr
    51a0:	04070000 	streq	r0, [r7], #-0
    51a4:	0000006b 	andeq	r0, r0, fp, rrx
    51a8:	00002504 	andeq	r2, r0, r4, lsl #10
    51ac:	00009b00 	andeq	r9, r0, r0, lsl #22
    51b0:	009b0500 	addseq	r0, fp, r0, lsl #10
    51b4:	07000000 	streq	r0, [r0, -r0]
    51b8:	0000a804 	andeq	sl, r0, r4, lsl #16
    51bc:	08010300 	stmdaeq	r1, {r8, r9}
    51c0:	0000004c 	andeq	r0, r0, ip, asr #32
    51c4:	0000a108 	andeq	sl, r0, r8, lsl #2
    51c8:	06ba0600 	ldrteq	r0, [sl], r0, lsl #12
    51cc:	21020000 	mrscs	r0, (UNDEF: 2)
    51d0:	0000b90e 	andeq	fp, r0, lr, lsl #18
    51d4:	8c040700 	stchi	7, cr0, [r4], {-0}
    51d8:	09000000 	stmdbeq	r0, {}	; <UNPREDICTABLE>
    51dc:	00000767 	andeq	r0, r0, r7, ror #14
    51e0:	34070401 	strcc	r0, [r7], #-1025	; 0xfffffbff
    51e4:	28000001 	stmdacs	r0, {r0}
    51e8:	2c0000a2 	stccs	0, cr0, [r0], {162}	; 0xa2
    51ec:	01000000 	mrseq	r0, (UNDEF: 0)
    51f0:	0001349c 	muleq	r1, ip, r4
    51f4:	0cf90a00 	vldmiaeq	r9!, {s1-s0}
    51f8:	04010000 	streq	r0, [r1], #-0
    51fc:	00013415 	andeq	r3, r1, r5, lsl r4
    5200:	0b500100 	bleq	1405608 <__bss_end__+0x13fa5f8>
    5204:	00637273 	rsbeq	r7, r3, r3, ror r2
    5208:	9b270401 	blls	9c6214 <__bss_end__+0x9bb204>
    520c:	09000000 	stmdbeq	r0, {}	; <UNPREDICTABLE>
    5210:	05000033 	streq	r0, [r0, #-51]	; 0xffffffcd
    5214:	0c000033 	stceq	0, cr0, [r0], {51}	; 0x33
    5218:	01003173 	tsteq	r0, r3, ror r1
    521c:	01340b05 	teqeq	r4, r5, lsl #22
    5220:	33380000 	teqcc	r8, #0, 0
    5224:	332a0000 			; <UNDEFINED> instruction: 0x332a0000
    5228:	730c0000 	movwvc	r0, #49152	; 0xc000
    522c:	06010032 			; <UNDEFINED> instruction: 0x06010032
    5230:	00009b11 	andeq	r9, r0, r1, lsl fp
    5234:	00339700 	eorseq	r9, r3, r0, lsl #14
    5238:	00339100 	eorseq	r9, r3, r0, lsl #2
    523c:	00630c00 	rsbeq	r0, r3, r0, lsl #24
    5240:	a10a0701 	tstge	sl, r1, lsl #14
    5244:	c8000000 	stmdagt	r0, {}	; <UNPREDICTABLE>
    5248:	c2000033 	andgt	r0, r0, #51, 0	; 0x33
    524c:	00000033 	andeq	r0, r0, r3, lsr r0
    5250:	00a10407 	adceq	r0, r1, r7, lsl #8
    5254:	f7000000 			; <UNDEFINED> instruction: 0xf7000000
    5258:	04000000 	streq	r0, [r0], #-0
    525c:	001ce200 	andseq	lr, ip, r0, lsl #4
    5260:	9a010400 	bls	46268 <__bss_end__+0x3b258>
    5264:	0c000005 	stceq	0, cr0, [r0], {5}
    5268:	00000cfe 	strdeq	r0, [r0], -lr
    526c:	00000652 	andeq	r0, r0, r2, asr r6
    5270:	0000a254 	andeq	sl, r0, r4, asr r2
    5274:	00000044 	andeq	r0, r0, r4, asr #32
    5278:	00002873 	andeq	r2, r0, r3, ror r8
    527c:	69050402 	stmdbvs	r5, {r1, sl}
    5280:	0300746e 	movweq	r7, #1134	; 0x46e
    5284:	00eb0704 	rsceq	r0, fp, r4, lsl #14
    5288:	01030000 	mrseq	r0, (UNDEF: 3)
    528c:	00004506 	andeq	r4, r0, r6, lsl #10
    5290:	05020300 	streq	r0, [r2, #-768]	; 0xfffffd00
    5294:	000001cd 	andeq	r0, r0, sp, asr #3
    5298:	fd050403 	stc2	4, cr0, [r5, #-12]
    529c:	03000000 	movweq	r0, #0
    52a0:	00f80508 	rscseq	r0, r8, r8, lsl #10
    52a4:	01030000 	mrseq	r0, (UNDEF: 3)
    52a8:	00004308 	andeq	r4, r0, r8, lsl #6
    52ac:	07020300 	streq	r0, [r2, -r0, lsl #6]
    52b0:	0000007d 	andeq	r0, r0, sp, ror r0
    52b4:	e6070403 	str	r0, [r7], -r3, lsl #8
    52b8:	03000000 	movweq	r0, #0
    52bc:	00e10708 	rsceq	r0, r1, r8, lsl #14
    52c0:	25040000 	strcs	r0, [r4, #-0]
    52c4:	7a000000 	bvc	52cc <__code_start__-0x2d34>
    52c8:	05000000 	streq	r0, [r0, #-0]
    52cc:	00000025 	andeq	r0, r0, r5, lsr #32
    52d0:	01060600 	tsteq	r6, r0, lsl #12
    52d4:	1c020000 	stcne	0, cr0, [r2], {-0}
    52d8:	0000860e 	andeq	r8, r0, lr, lsl #12
    52dc:	6b040700 	blvs	106ee4 <__bss_end__+0xfbed4>
    52e0:	04000000 	streq	r0, [r0], #-0
    52e4:	00000025 	andeq	r0, r0, r5, lsr #32
    52e8:	0000009b 	muleq	r0, fp, r0
    52ec:	00009b05 	andeq	r9, r0, r5, lsl #22
    52f0:	04070000 	streq	r0, [r7], #-0
    52f4:	000000a8 	andeq	r0, r0, r8, lsr #1
    52f8:	4c080103 	stfmis	f0, [r8], {3}
    52fc:	08000000 	stmdaeq	r0, {}	; <UNPREDICTABLE>
    5300:	000000a1 	andeq	r0, r0, r1, lsr #1
    5304:	0006ba06 	andeq	fp, r6, r6, lsl #20
    5308:	0e210200 	cdpeq	2, 2, cr0, cr1, cr0, {0}
    530c:	000000b9 	strheq	r0, [r0], -r9
    5310:	008c0407 	addeq	r0, ip, r7, lsl #8
    5314:	95090000 	strls	r0, [r9, #-0]
    5318:	01000007 	tsteq	r0, r7
    531c:	00250503 	eoreq	r0, r5, r3, lsl #10
    5320:	a2540000 	subsge	r0, r4, #0, 0
    5324:	00440000 	subeq	r0, r4, r0
    5328:	9c010000 	stcls	0, cr0, [r1], {-0}
    532c:	0100610a 	tsteq	r0, sl, lsl #2
    5330:	009b1803 	addseq	r1, fp, r3, lsl #16
    5334:	33ff0000 	mvnscc	r0, #0, 0
    5338:	33f30000 	mvnscc	r0, #0, 0
    533c:	620a0000 	andvs	r0, sl, #0, 0
    5340:	27030100 	strcs	r0, [r3, -r0, lsl #2]
    5344:	0000009b 	muleq	r0, fp, r0
    5348:	00003453 	andeq	r3, r0, r3, asr r4
    534c:	0000344d 	andeq	r3, r0, sp, asr #8
    5350:	010f0000 	mrseq	r0, CPSR
    5354:	00040000 	andeq	r0, r4, r0
    5358:	00001d71 	andeq	r1, r0, r1, ror sp
    535c:	059a0104 	ldreq	r0, [sl, #260]	; 0x104
    5360:	0e0c0000 	cdpeq	0, 0, cr0, cr12, cr0, {0}
    5364:	5200000d 	andpl	r0, r0, #13, 0
    5368:	98000006 	stmdals	r0, {r1, r2}
    536c:	180000a2 	stmdane	r0, {r1, r5, r7}
    5370:	29000000 	stmdbcs	r0, {}	; <UNPREDICTABLE>
    5374:	02000029 	andeq	r0, r0, #41, 0	; 0x29
    5378:	6e690504 	cdpvs	5, 6, cr0, cr9, cr4, {0}
    537c:	04030074 	streq	r0, [r3], #-116	; 0xffffff8c
    5380:	0000eb07 	andeq	lr, r0, r7, lsl #22
    5384:	06010300 	streq	r0, [r1], -r0, lsl #6
    5388:	00000045 	andeq	r0, r0, r5, asr #32
    538c:	cd050203 	sfmgt	f0, 4, [r5, #-12]
    5390:	03000001 	movweq	r0, #1
    5394:	00fd0504 	rscseq	r0, sp, r4, lsl #10
    5398:	08030000 	stmdaeq	r3, {}	; <UNPREDICTABLE>
    539c:	0000f805 	andeq	pc, r0, r5, lsl #16
    53a0:	08010300 	stmdaeq	r1, {r8, r9}
    53a4:	00000043 	andeq	r0, r0, r3, asr #32
    53a8:	7d070203 	sfmvc	f0, 4, [r7, #-12]
    53ac:	03000000 	movweq	r0, #0
    53b0:	00e60704 	rsceq	r0, r6, r4, lsl #14
    53b4:	08030000 	stmdaeq	r3, {}	; <UNPREDICTABLE>
    53b8:	0000e107 	andeq	lr, r0, r7, lsl #2
    53bc:	00250400 	eoreq	r0, r5, r0, lsl #8
    53c0:	007a0000 	rsbseq	r0, sl, r0
    53c4:	25050000 	strcs	r0, [r5, #-0]
    53c8:	00000000 	andeq	r0, r0, r0
    53cc:	00010606 	andeq	r0, r1, r6, lsl #12
    53d0:	0e1c0200 	cdpeq	2, 1, cr0, cr12, cr0, {0}
    53d4:	00000086 	andeq	r0, r0, r6, lsl #1
    53d8:	006b0407 	rsbeq	r0, fp, r7, lsl #8
    53dc:	25040000 	strcs	r0, [r4, #-0]
    53e0:	9b000000 	blls	53e8 <__code_start__-0x2c18>
    53e4:	05000000 	streq	r0, [r0, #-0]
    53e8:	0000009b 	muleq	r0, fp, r0
    53ec:	a8040700 	stmdage	r4, {r8, r9, sl}
    53f0:	03000000 	movweq	r0, #0
    53f4:	004c0801 	subeq	r0, ip, r1, lsl #16
    53f8:	a1080000 	mrsge	r0, (UNDEF: 8)
    53fc:	06000000 	streq	r0, [r0], -r0
    5400:	000006ba 			; <UNDEFINED> instruction: 0x000006ba
    5404:	b90e2102 	stmdblt	lr, {r1, r8, sp}
    5408:	07000000 	streq	r0, [r0, -r0]
    540c:	00008c04 	andeq	r8, r0, r4, lsl #24
    5410:	076e0900 	strbeq	r0, [lr, -r0, lsl #18]!
    5414:	03010000 	movweq	r0, #4096	; 0x1000
    5418:	00010c07 	andeq	r0, r1, r7, lsl #24
    541c:	00a29800 	adceq	r9, r2, r0, lsl #16
    5420:	00001800 	andeq	r1, r0, r0, lsl #16
    5424:	0c9c0100 	ldfeqs	f0, [ip], {0}
    5428:	0a000001 	beq	5434 <__code_start__-0x2bcc>
    542c:	01003173 	tsteq	r0, r3, ror r1
    5430:	010c1503 	tsteq	ip, r3, lsl #10
    5434:	50010000 	andpl	r0, r1, r0
    5438:	0032730b 	eorseq	r7, r2, fp, lsl #6
    543c:	9b260301 	blls	986048 <__bss_end__+0x97b038>
    5440:	82000000 	andhi	r0, r0, #0, 0
    5444:	7c000034 	stcvc	0, cr0, [r0], {52}	; 0x34
    5448:	0c000034 	stceq	0, cr0, [r0], {52}	; 0x34
    544c:	04010073 	streq	r0, [r1], #-115	; 0xffffff8d
    5450:	00010c14 	andeq	r0, r1, r4, lsl ip
    5454:	0034af00 	eorseq	sl, r4, r0, lsl #30
    5458:	0034ad00 	eorseq	sl, r4, r0, lsl #26
    545c:	04070000 	streq	r0, [r7], #-0
    5460:	000000a1 	andeq	r0, r0, r1, lsr #1
    5464:	00014e00 	andeq	r4, r1, r0, lsl #28
    5468:	27000400 	strcs	r0, [r0, -r0, lsl #8]
    546c:	0400001e 	streq	r0, [r0], #-30	; 0xffffffe2
    5470:	00059a01 	andeq	r9, r5, r1, lsl #20
    5474:	0d1e0c00 	ldceq	12, cr0, [lr, #-0]
    5478:	06520000 	ldrbeq	r0, [r2], -r0
    547c:	a2b00000 	adcsge	r0, r0, #0, 0
    5480:	00300000 	eorseq	r0, r0, r0
    5484:	29ca0000 	stmibcs	sl, {}^	; <UNPREDICTABLE>
    5488:	04020000 	streq	r0, [r2], #-0
    548c:	746e6905 	strbtvc	r6, [lr], #-2309	; 0xfffff6fb
    5490:	05830300 	streq	r0, [r3, #768]	; 0x300
    5494:	d1030000 	mrsle	r0, (UNDEF: 3)
    5498:	00003817 	andeq	r3, r0, r7, lsl r8
    549c:	07040400 	streq	r0, [r4, -r0, lsl #8]
    54a0:	000000eb 	andeq	r0, r0, fp, ror #1
    54a4:	45060104 	strmi	r0, [r6, #-260]	; 0xfffffefc
    54a8:	04000000 	streq	r0, [r0], #-0
    54ac:	01cd0502 	biceq	r0, sp, r2, lsl #10
    54b0:	04040000 	streq	r0, [r4], #-0
    54b4:	0000fd05 	andeq	pc, r0, r5, lsl #26
    54b8:	05080400 	streq	r0, [r8, #-1024]	; 0xfffffc00
    54bc:	000000f8 	strdeq	r0, [r0], -r8
    54c0:	43080104 	movwmi	r0, #33028	; 0x8104
    54c4:	05000000 	streq	r0, [r0, #-0]
    54c8:	0000005b 	andeq	r0, r0, fp, asr r0
    54cc:	7d070204 	sfmvc	f0, 4, [r7, #-16]
    54d0:	04000000 	streq	r0, [r0], #-0
    54d4:	00e60704 	rsceq	r0, r6, r4, lsl #14
    54d8:	08040000 	stmdaeq	r4, {}	; <UNPREDICTABLE>
    54dc:	0000e107 	andeq	lr, r0, r7, lsl #2
    54e0:	00250600 	eoreq	r0, r5, r0, lsl #12
    54e4:	008b0000 	addeq	r0, fp, r0
    54e8:	25070000 	strcs	r0, [r7, #-0]
    54ec:	00000000 	andeq	r0, r0, r0
    54f0:	00010608 	andeq	r0, r1, r8, lsl #12
    54f4:	0e1c0200 	cdpeq	2, 1, cr0, cr12, cr0, {0}
    54f8:	00000097 	muleq	r0, r7, r0
    54fc:	007c0409 	rsbseq	r0, ip, r9, lsl #8
    5500:	25060000 	strcs	r0, [r6, #-0]
    5504:	ac000000 	stcge	0, cr0, [r0], {-0}
    5508:	07000000 	streq	r0, [r0, -r0]
    550c:	000000ac 	andeq	r0, r0, ip, lsr #1
    5510:	b9040900 	stmdblt	r4, {r8, fp}
    5514:	04000000 	streq	r0, [r0], #-0
    5518:	004c0801 	subeq	r0, ip, r1, lsl #16
    551c:	b2050000 	andlt	r0, r5, #0, 0
    5520:	08000000 	stmdaeq	r0, {}	; <UNPREDICTABLE>
    5524:	000006ba 			; <UNDEFINED> instruction: 0x000006ba
    5528:	ca0e2102 	bgt	38d938 <__bss_end__+0x382928>
    552c:	09000000 	stmdbeq	r0, {}	; <UNPREDICTABLE>
    5530:	00009d04 	andeq	r9, r0, r4, lsl #26
    5534:	07b60a00 	ldreq	r0, [r6, r0, lsl #20]!
    5538:	04010000 	streq	r0, [r1], #-0
    553c:	00002505 	andeq	r2, r0, r5, lsl #10
    5540:	00a2b000 	adceq	fp, r2, r0
    5544:	00003000 	andeq	r3, r0, r0
    5548:	4b9c0100 	blmi	fe705950 <__bss_end__+0xfe6fa940>
    554c:	0b000001 	bleq	5558 <__code_start__-0x2aa8>
    5550:	0031735f 	eorseq	r7, r1, pc, asr r3
    5554:	ac190401 	cfldrsge	mvf0, [r9], {1}
    5558:	c6000000 	strgt	r0, [r0], -r0
    555c:	c2000034 	andgt	r0, r0, #52, 0	; 0x34
    5560:	0b000034 	bleq	5638 <__code_start__-0x29c8>
    5564:	0032735f 	eorseq	r7, r2, pc, asr r3
    5568:	ac2a0401 	cfstrsge	mvf0, [sl], #-4
    556c:	eb000000 	bl	5574 <__code_start__-0x2a8c>
    5570:	e7000034 	smladx	r0, r4, r0, r0
    5574:	0b000034 	bleq	564c <__code_start__-0x29b4>
    5578:	0401006e 	streq	r0, [r1], #-110	; 0xffffff92
    557c:	00002c36 	andeq	r2, r0, r6, lsr ip
    5580:	00351600 	eorseq	r1, r5, r0, lsl #12
    5584:	00350c00 	eorseq	r0, r5, r0, lsl #24
    5588:	31730c00 	cmncc	r3, r0, lsl #24
    558c:	1a050100 	bne	145994 <__bss_end__+0x13a984>
    5590:	0000014b 	andeq	r0, r0, fp, asr #2
    5594:	0000356d 	andeq	r3, r0, sp, ror #10
    5598:	00003565 	andeq	r3, r0, r5, ror #10
    559c:	0032730c 	eorseq	r7, r2, ip, lsl #6
    55a0:	4b2c0501 	blmi	b069ac <__bss_end__+0xafb99c>
    55a4:	ab000001 	blge	55b0 <__code_start__-0x2a50>
    55a8:	a5000035 	strge	r0, [r0, #-53]	; 0xffffffcb
    55ac:	00000035 	andeq	r0, r0, r5, lsr r0
    55b0:	00620409 	rsbeq	r0, r2, r9, lsl #8
    55b4:	ce000000 	cdpgt	0, 0, cr0, cr0, cr0, {0}
    55b8:	04000000 	streq	r0, [r0], #-0
    55bc:	001edb00 	andseq	sp, lr, r0, lsl #22
    55c0:	9a010400 	bls	465c8 <__bss_end__+0x3b5b8>
    55c4:	0c000005 	stceq	0, cr0, [r0], {5}
    55c8:	00000d2f 	andeq	r0, r0, pc, lsr #26
    55cc:	00000652 	andeq	r0, r0, r2, asr r6
    55d0:	0000a2e0 	andeq	sl, r0, r0, ror #5
    55d4:	00000004 	andeq	r0, r0, r4
    55d8:	00002acb 	andeq	r2, r0, fp, asr #21
    55dc:	69050402 	stmdbvs	r5, {r1, sl}
    55e0:	0300746e 	movweq	r7, #1134	; 0x46e
    55e4:	00eb0704 	rsceq	r0, fp, r4, lsl #14
    55e8:	01030000 	mrseq	r0, (UNDEF: 3)
    55ec:	00004506 	andeq	r4, r0, r6, lsl #10
    55f0:	05020300 	streq	r0, [r2, #-768]	; 0xfffffd00
    55f4:	000001cd 	andeq	r0, r0, sp, asr #3
    55f8:	fd050403 	stc2	4, cr0, [r5, #-12]
    55fc:	03000000 	movweq	r0, #0
    5600:	00f80508 	rscseq	r0, r8, r8, lsl #10
    5604:	01030000 	mrseq	r0, (UNDEF: 3)
    5608:	00004308 	andeq	r4, r0, r8, lsl #6
    560c:	07020300 	streq	r0, [r2, -r0, lsl #6]
    5610:	0000007d 	andeq	r0, r0, sp, ror r0
    5614:	e6070403 	str	r0, [r7], -r3, lsl #8
    5618:	03000000 	movweq	r0, #0
    561c:	00e10708 	rsceq	r0, r1, r8, lsl #14
    5620:	25040000 	strcs	r0, [r4, #-0]
    5624:	7a000000 	bvc	562c <__code_start__-0x29d4>
    5628:	05000000 	streq	r0, [r0, #-0]
    562c:	00000025 	andeq	r0, r0, r5, lsr #32
    5630:	01060600 	tsteq	r6, r0, lsl #12
    5634:	1c020000 	stcne	0, cr0, [r2], {-0}
    5638:	0000860e 	andeq	r8, r0, lr, lsl #12
    563c:	6b040700 	blvs	107244 <__bss_end__+0xfc234>
    5640:	04000000 	streq	r0, [r0], #-0
    5644:	00000025 	andeq	r0, r0, r5, lsr #32
    5648:	0000009b 	muleq	r0, fp, r0
    564c:	00009b05 	andeq	r9, r0, r5, lsl #22
    5650:	04070000 	streq	r0, [r7], #-0
    5654:	000000a8 	andeq	r0, r0, r8, lsr #1
    5658:	4c080103 	stfmis	f0, [r8], {3}
    565c:	08000000 	stmdaeq	r0, {}	; <UNPREDICTABLE>
    5660:	000000a1 	andeq	r0, r0, r1, lsr #1
    5664:	0006ba06 	andeq	fp, r6, r6, lsl #20
    5668:	0e210200 	cdpeq	2, 2, cr0, cr1, cr0, {0}
    566c:	000000b9 	strheq	r0, [r0], -r9
    5670:	008c0407 	addeq	r0, ip, r7, lsl #8
    5674:	5d090000 	stcpl	0, cr0, [r9, #-0]
    5678:	01000008 	tsteq	r0, r8
    567c:	a2e00603 	rscge	r0, r0, #3145728	; 0x300000
    5680:	00040000 	andeq	r0, r4, r0
    5684:	9c010000 	stcls	0, cr0, [r1], {-0}
	...

Disassembly of section .debug_abbrev:

00000000 <.debug_abbrev>:
       0:	25011101 	strcs	r1, [r1, #-257]	; 0xfffffeff
       4:	030b130e 	movweq	r1, #45838	; 0xb30e
       8:	110e1b0e 	tstne	lr, lr, lsl #22
       c:	10061201 	andne	r1, r6, r1, lsl #4
      10:	02000017 	andeq	r0, r0, #23, 0
      14:	0b0b0024 	bleq	2c00ac <__bss_end__+0x2b509c>
      18:	08030b3e 	stmdaeq	r3, {r1, r2, r3, r4, r5, r8, r9, fp}
      1c:	24030000 	strcs	r0, [r3], #-0
      20:	3e0b0b00 	vmlacc.f64	d0, d11, d0
      24:	000e030b 	andeq	r0, lr, fp, lsl #6
      28:	01150400 	tsteq	r5, r0, lsl #8
      2c:	13491927 	movtne	r1, #39207	; 0x9927
      30:	00001301 	andeq	r1, r0, r1, lsl #6
      34:	49000505 	stmdbmi	r0, {r0, r2, r8, sl}
      38:	06000013 			; <UNDEFINED> instruction: 0x06000013
      3c:	0e030034 	mcreq	0, 0, r0, cr3, cr4, {1}
      40:	0b3b0b3a 	bleq	ec2d30 <__bss_end__+0xeb7d20>
      44:	13490b39 	movtne	r0, #39737	; 0x9b39
      48:	193c193f 	ldmdbne	ip!, {r0, r1, r2, r3, r4, r5, r8, fp, ip}
      4c:	0f070000 	svceq	0x00070000
      50:	490b0b00 	stmdbmi	fp, {r8, r9, fp}
      54:	08000013 	stmdaeq	r0, {r0, r1, r4}
      58:	13490026 	movtne	r0, #36902	; 0x9026
      5c:	13090000 	movwne	r0, #36864	; 0x9000
      60:	3a0b0b01 	bcc	2c2c6c <__bss_end__+0x2b7c5c>
      64:	390b3b0b 	stmdbcc	fp, {r0, r1, r3, r8, r9, fp, ip, sp}
      68:	0013010b 	andseq	r0, r3, fp, lsl #2
      6c:	000d0a00 	andeq	r0, sp, r0, lsl #20
      70:	0b3a0e03 	bleq	e83884 <__bss_end__+0xe78874>
      74:	0b390b3b 	bleq	e42d68 <__bss_end__+0xe37d58>
      78:	0b381349 	bleq	e04da4 <__bss_end__+0xdf9d94>
      7c:	160b0000 	strne	r0, [fp], -r0
      80:	3a0e0300 	bcc	380c88 <__bss_end__+0x375c78>
      84:	390b3b0b 	stmdbcc	fp, {r0, r1, r3, r8, r9, fp, ip, sp}
      88:	0013490b 	andseq	r4, r3, fp, lsl #18
      8c:	000f0c00 	andeq	r0, pc, r0, lsl #24
      90:	00000b0b 	andeq	r0, r0, fp, lsl #22
      94:	3f012e0d 	svccc	0x00012e0d
      98:	3a0e0319 	bcc	380d04 <__bss_end__+0x375cf4>
      9c:	390b3b0b 	stmdbcc	fp, {r0, r1, r3, r8, r9, fp, ip, sp}
      a0:	1119270b 	tstne	r9, fp, lsl #14
      a4:	40061201 	andmi	r1, r6, r1, lsl #4
      a8:	19429718 	stmdbne	r2, {r3, r4, r8, r9, sl, ip, pc}^
      ac:	00001301 	andeq	r1, r0, r1, lsl #6
      b0:	0300340e 	movweq	r3, #1038	; 0x40e
      b4:	3b0b3a08 	blcc	2ce8dc <__bss_end__+0x2c38cc>
      b8:	490b390b 	stmdbmi	fp, {r0, r1, r3, r8, fp, ip, sp}
      bc:	b7170213 			; <UNDEFINED> instruction: 0xb7170213
      c0:	00001742 	andeq	r1, r0, r2, asr #14
      c4:	0300340f 	movweq	r3, #1039	; 0x40f
      c8:	3413490e 	ldrcc	r4, [r3], #-2318	; 0xfffff6f2
      cc:	00180219 	andseq	r0, r8, r9, lsl r2
      d0:	011d1000 	tsteq	sp, r0
      d4:	01521331 	cmpeq	r2, r1, lsr r3
      d8:	110b42b8 			; <UNDEFINED> instruction: 0x110b42b8
      dc:	58061201 	stmdapl	r6, {r0, r9, ip}
      e0:	570b590b 	strpl	r5, [fp, -fp, lsl #18]
      e4:	0013010b 	andseq	r0, r3, fp, lsl #2
      e8:	00051100 	andeq	r1, r5, r0, lsl #2
      ec:	17021331 	smladxne	r2, r1, r3, r1
      f0:	001742b7 			; <UNDEFINED> instruction: 0x001742b7
      f4:	82891200 	addhi	r1, r9, #0, 4
      f8:	01110101 	tsteq	r1, r1, lsl #2
      fc:	13011331 	movwne	r1, #4913	; 0x1331
     100:	8a130000 	bhi	4c0108 <__bss_end__+0x4b50f8>
     104:	02000182 	andeq	r0, r0, #-2147483616	; 0x80000020
     108:	18429118 	stmdane	r2, {r3, r4, r8, ip, pc}^
     10c:	89140000 	ldmdbhi	r4, {}	; <UNPREDICTABLE>
     110:	11000182 	smlabbne	r0, r2, r1, r0
     114:	00133101 	andseq	r3, r3, r1, lsl #2
     118:	01011500 	tsteq	r1, r0, lsl #10
     11c:	13011349 	movwne	r1, #4937	; 0x1349
     120:	21160000 	tstcs	r6, r0
     124:	2f134900 	svccs	0x00134900
     128:	1700000b 	strne	r0, [r0, -fp]
     12c:	0e03012e 	adfeqsp	f0, f3, #0.5
     130:	0b3b0b3a 	bleq	ec2e20 <__bss_end__+0xeb7e10>
     134:	19270b39 	stmdbne	r7!, {r0, r3, r4, r5, r8, r9, fp}
     138:	0b201349 	bleq	804e64 <__bss_end__+0x7f9e54>
     13c:	00001301 	andeq	r1, r0, r1, lsl #6
     140:	03000518 	movweq	r0, #1304	; 0x518
     144:	3b0b3a0e 	blcc	2ce984 <__bss_end__+0x2c3974>
     148:	490b390b 	stmdbmi	fp, {r0, r1, r3, r8, fp, ip, sp}
     14c:	19000013 	stmdbne	r0, {r0, r1, r4}
     150:	18020036 	stmdane	r2, {r1, r2, r4, r5}
     154:	2e1a0000 	cdpcs	0, 1, cr0, cr10, cr0, {0}
     158:	3c193f00 	ldccc	15, cr3, [r9], {-0}
     15c:	030e6e19 	movweq	r6, #60953	; 0xee19
     160:	3b0b3a0e 	blcc	2ce9a0 <__bss_end__+0x2c3990>
     164:	000b390b 	andeq	r3, fp, fp, lsl #18
     168:	11010000 	mrsne	r0, (UNDEF: 1)
     16c:	130e2501 	movwne	r2, #58625	; 0xe501
     170:	1b0e030b 	blne	380da4 <__bss_end__+0x375d94>
     174:	1201110e 	andne	r1, r1, #-2147483645	; 0x80000003
     178:	00171006 	andseq	r1, r7, r6
     17c:	00240200 	eoreq	r0, r4, r0, lsl #4
     180:	0b3e0b0b 	bleq	f82db4 <__bss_end__+0xf77da4>
     184:	00000803 	andeq	r0, r0, r3, lsl #16
     188:	0b002403 	bleq	919c <rpi_set_output+0x44>
     18c:	030b3e0b 	movweq	r3, #48651	; 0xbe0b
     190:	0400000e 	streq	r0, [r0], #-14
     194:	0e030016 	mcreq	0, 0, r0, cr3, cr6, {0}
     198:	0b3b0b3a 	bleq	ec2e88 <__bss_end__+0xeb7e78>
     19c:	13490b39 	movtne	r0, #39737	; 0x9b39
     1a0:	15050000 	strne	r0, [r5, #-0]
     1a4:	49192701 	ldmdbmi	r9, {r0, r8, r9, sl, sp}
     1a8:	00130113 	andseq	r0, r3, r3, lsl r1
     1ac:	00050600 	andeq	r0, r5, r0, lsl #12
     1b0:	00001349 	andeq	r1, r0, r9, asr #6
     1b4:	03003407 	movweq	r3, #1031	; 0x407
     1b8:	3b0b3a0e 	blcc	2ce9f8 <__bss_end__+0x2c39e8>
     1bc:	490b390b 	stmdbmi	fp, {r0, r1, r3, r8, fp, ip, sp}
     1c0:	3c193f13 	ldccc	15, cr3, [r9], {19}
     1c4:	08000019 	stmdaeq	r0, {r0, r3, r4}
     1c8:	0b0b000f 	bleq	2c020c <__bss_end__+0x2b51fc>
     1cc:	00001349 	andeq	r1, r0, r9, asr #6
     1d0:	49002609 	stmdbmi	r0, {r0, r3, r9, sl, sp}
     1d4:	0a000013 	beq	228 <__code_start__-0x7dd8>
     1d8:	0b0b0113 	bleq	2c062c <__bss_end__+0x2b561c>
     1dc:	0b3b0b3a 	bleq	ec2ecc <__bss_end__+0xeb7ebc>
     1e0:	13010b39 	movwne	r0, #6969	; 0x1b39
     1e4:	0d0b0000 	stceq	0, cr0, [fp, #-0]
     1e8:	3a0e0300 	bcc	380df0 <__bss_end__+0x375de0>
     1ec:	390b3b0b 	stmdbcc	fp, {r0, r1, r3, r8, r9, fp, ip, sp}
     1f0:	3813490b 	ldmdacc	r3, {r0, r1, r3, r8, fp, lr}
     1f4:	0c00000b 	stceq	0, cr0, [r0], {11}
     1f8:	0b3e0104 	bleq	f80610 <__bss_end__+0xf75600>
     1fc:	13490b0b 	movtne	r0, #39691	; 0x9b0b
     200:	0b3b0b3a 	bleq	ec2ef0 <__bss_end__+0xeb7ee0>
     204:	13010b39 	movwne	r0, #6969	; 0x1b39
     208:	280d0000 	stmdacs	sp, {}	; <UNPREDICTABLE>
     20c:	1c0e0300 	stcne	3, cr0, [lr], {-0}
     210:	0e00000b 	cdpeq	0, 0, cr0, cr0, cr11, {0}
     214:	0e030113 	mcreq	1, 0, r0, cr3, cr3, {0}
     218:	0b3a0b0b 	bleq	e82e4c <__bss_end__+0xe77e3c>
     21c:	0b390b3b 	bleq	e42f10 <__bss_end__+0xe37f00>
     220:	00001301 	andeq	r1, r0, r1, lsl #6
     224:	03000d0f 	movweq	r0, #3343	; 0xd0f
     228:	3b0b3a08 	blcc	2cea50 <__bss_end__+0x2c3a40>
     22c:	490b390b 	stmdbmi	fp, {r0, r1, r3, r8, fp, ip, sp}
     230:	000b3813 	andeq	r3, fp, r3, lsl r8
     234:	01011000 	mrseq	r1, (UNDEF: 1)
     238:	13011349 	movwne	r1, #4937	; 0x1349
     23c:	21110000 	tstcs	r1, r0
     240:	2f134900 	svccs	0x00134900
     244:	1200000b 	andne	r0, r0, #11, 0
     248:	0b0b000f 	bleq	2c028c <__bss_end__+0x2b527c>
     24c:	34130000 	ldrcc	r0, [r3], #-0
     250:	3a0e0300 	bcc	380e58 <__bss_end__+0x375e48>
     254:	390b3b0b 	stmdbcc	fp, {r0, r1, r3, r8, r9, fp, ip, sp}
     258:	0213490b 	andseq	r4, r3, #180224	; 0x2c000
     25c:	14000018 	strne	r0, [r0], #-24	; 0xffffffe8
     260:	193f012e 	ldmdbne	pc!, {r1, r2, r3, r5, r8}	; <UNPREDICTABLE>
     264:	0b3a0e03 	bleq	e83a78 <__bss_end__+0xe78a68>
     268:	0b390b3b 	bleq	e42f5c <__bss_end__+0xe37f4c>
     26c:	13491927 	movtne	r1, #39207	; 0x9927
     270:	06120111 			; <UNDEFINED> instruction: 0x06120111
     274:	42971840 	addsmi	r1, r7, #64, 16	; 0x400000
     278:	00130119 	andseq	r0, r3, r9, lsl r1
     27c:	00051500 	andeq	r1, r5, r0, lsl #10
     280:	0b3a0e03 	bleq	e83a94 <__bss_end__+0xe78a84>
     284:	0b390b3b 	bleq	e42f78 <__bss_end__+0xe37f68>
     288:	17021349 	strne	r1, [r2, -r9, asr #6]
     28c:	001742b7 			; <UNDEFINED> instruction: 0x001742b7
     290:	00051600 	andeq	r1, r5, r0, lsl #12
     294:	0b3a0803 	bleq	e822a8 <__bss_end__+0xe77298>
     298:	0b390b3b 	bleq	e42f8c <__bss_end__+0xe37f7c>
     29c:	18021349 	stmdane	r2, {r0, r3, r6, r8, r9, ip}
     2a0:	34170000 	ldrcc	r0, [r7], #-0
     2a4:	3a080300 	bcc	200eac <__bss_end__+0x1f5e9c>
     2a8:	390b3b0b 	stmdbcc	fp, {r0, r1, r3, r8, r9, fp, ip, sp}
     2ac:	0213490b 	andseq	r4, r3, #180224	; 0x2c000
     2b0:	1742b717 	smlaldne	fp, r2, r7, r7
     2b4:	0b180000 	bleq	6002bc <__bss_end__+0x5f52ac>
     2b8:	12011101 	andne	r1, r1, #1073741824	; 0x40000000
     2bc:	00130106 	andseq	r0, r3, r6, lsl #2
     2c0:	82891900 	addhi	r1, r9, #0, 18
     2c4:	01110101 	tsteq	r1, r1, lsl #2
     2c8:	13011331 	movwne	r1, #4913	; 0x1331
     2cc:	8a1a0000 	bhi	6802d4 <__bss_end__+0x6752c4>
     2d0:	02000182 	andeq	r0, r0, #-2147483616	; 0x80000020
     2d4:	18429118 	stmdane	r2, {r3, r4, r8, ip, pc}^
     2d8:	891b0000 	ldmdbhi	fp, {}	; <UNPREDICTABLE>
     2dc:	11010182 	smlabbne	r1, r2, r1, r0
     2e0:	00133101 	andseq	r3, r3, r1, lsl #2
     2e4:	012e1c00 			; <UNDEFINED> instruction: 0x012e1c00
     2e8:	0e03193f 			; <UNDEFINED> instruction: 0x0e03193f
     2ec:	0b3b0b3a 	bleq	ec2fdc <__bss_end__+0xeb7fcc>
     2f0:	19270b39 	stmdbne	r7!, {r0, r3, r4, r5, r8, r9, fp}
     2f4:	06120111 			; <UNDEFINED> instruction: 0x06120111
     2f8:	42971840 	addsmi	r1, r7, #64, 16	; 0x400000
     2fc:	00130119 	andseq	r0, r3, r9, lsl r1
     300:	00051d00 	andeq	r1, r5, r0, lsl #26
     304:	0b3a0803 	bleq	e82318 <__bss_end__+0xe77308>
     308:	0b390b3b 	bleq	e42ffc <__bss_end__+0xe37fec>
     30c:	17021349 	strne	r1, [r2, -r9, asr #6]
     310:	001742b7 			; <UNDEFINED> instruction: 0x001742b7
     314:	00341e00 	eorseq	r1, r4, r0, lsl #28
     318:	13490e03 	movtne	r0, #40451	; 0x9e03
     31c:	18021934 	stmdane	r2, {r2, r4, r5, r8, fp, ip}
     320:	0b1f0000 	bleq	7c0328 <__bss_end__+0x7b5318>
     324:	01175501 	tsteq	r7, r1, lsl #10
     328:	20000013 	andcs	r0, r0, r3, lsl r0
     32c:	08030034 	stmdaeq	r3, {r2, r4, r5}
     330:	0b3b0b3a 	bleq	ec3020 <__bss_end__+0xeb8010>
     334:	13490b39 	movtne	r0, #39737	; 0x9b39
     338:	89210000 	stmdbhi	r1!, {}	; <UNPREDICTABLE>
     33c:	11000182 	smlabbne	r0, r2, r1, r0
     340:	00133101 	andseq	r3, r3, r1, lsl #2
     344:	010b2200 	mrseq	r2, R11_fiq
     348:	06120111 			; <UNDEFINED> instruction: 0x06120111
     34c:	1d230000 	stcne	0, cr0, [r3, #-0]
     350:	52133100 	andspl	r3, r3, #0
     354:	0b42b801 	bleq	10ae360 <__bss_end__+0x10a3350>
     358:	06120111 			; <UNDEFINED> instruction: 0x06120111
     35c:	0b590b58 	bleq	16430c4 <__bss_end__+0x16380b4>
     360:	00000b57 	andeq	r0, r0, r7, asr fp
     364:	31011d24 	tstcc	r1, r4, lsr #26
     368:	b8015213 	stmdalt	r1, {r0, r1, r4, r9, ip, lr}
     36c:	01110b42 	tsteq	r1, r2, asr #22
     370:	0b580612 	bleq	1601bc0 <__bss_end__+0x15f6bb0>
     374:	0b570b59 	bleq	15c30e0 <__bss_end__+0x15b80d0>
     378:	00001301 	andeq	r1, r0, r1, lsl #6
     37c:	31000525 	tstcc	r0, r5, lsr #10
     380:	b7170213 			; <UNDEFINED> instruction: 0xb7170213
     384:	00001742 	andeq	r1, r0, r2, asr #14
     388:	31011d26 	tstcc	r1, r6, lsr #26
     38c:	b8015213 	stmdalt	r1, {r0, r1, r4, r9, ip, lr}
     390:	17550b42 	ldrbne	r0, [r5, -r2, asr #22]
     394:	0b590b58 	bleq	16430fc <__bss_end__+0x16380ec>
     398:	13010b57 	movwne	r0, #6999	; 0x1b57
     39c:	1d270000 	stcne	0, cr0, [r7, #-0]
     3a0:	52133101 	andspl	r3, r3, #1073741824	; 0x40000000
     3a4:	0b42b801 	bleq	10ae3b0 <__bss_end__+0x10a33a0>
     3a8:	0b581755 	bleq	1606104 <__bss_end__+0x15fb0f4>
     3ac:	0b570b59 	bleq	15c3118 <__bss_end__+0x15b8108>
     3b0:	1d280000 	stcne	0, cr0, [r8, #-0]
     3b4:	52133101 	andspl	r3, r3, #1073741824	; 0x40000000
     3b8:	0b42b801 	bleq	10ae3c4 <__bss_end__+0x10a33b4>
     3bc:	06120111 			; <UNDEFINED> instruction: 0x06120111
     3c0:	0b590b58 	bleq	1643128 <__bss_end__+0x1638118>
     3c4:	00000b57 	andeq	r0, r0, r7, asr fp
     3c8:	3f012e29 	svccc	0x00012e29
     3cc:	3a0e0319 	bcc	381038 <__bss_end__+0x376028>
     3d0:	390b3b0b 	stmdbcc	fp, {r0, r1, r3, r8, r9, fp, ip, sp}
     3d4:	4919270b 	ldmdbmi	r9, {r0, r1, r3, r8, r9, sl, sp}
     3d8:	010b2013 	tsteq	fp, r3, lsl r0
     3dc:	2a000013 	bcs	430 <__code_start__-0x7bd0>
     3e0:	08030005 	stmdaeq	r3, {r0, r2}
     3e4:	0b3b0b3a 	bleq	ec30d4 <__bss_end__+0xeb80c4>
     3e8:	13490b39 	movtne	r0, #39737	; 0x9b39
     3ec:	2e2b0000 	cdpcs	0, 2, cr0, cr11, cr0, {0}
     3f0:	03193f00 	tsteq	r9, #0, 30
     3f4:	3b0b3a0e 	blcc	2cec34 <__bss_end__+0x2c3c24>
     3f8:	270b390b 	strcs	r3, [fp, -fp, lsl #18]
     3fc:	20134919 	andscs	r4, r3, r9, lsl r9
     400:	2c00000b 	stccs	0, cr0, [r0], {11}
     404:	0e03012e 	adfeqsp	f0, f3, #0.5
     408:	0b3b0b3a 	bleq	ec30f8 <__bss_end__+0xeb80e8>
     40c:	19270b39 	stmdbne	r7!, {r0, r3, r4, r5, r8, r9, fp}
     410:	0b201349 	bleq	80513c <__bss_end__+0x7fa12c>
     414:	00001301 	andeq	r1, r0, r1, lsl #6
     418:	31002e2d 	tstcc	r0, sp, lsr #28
     41c:	12011113 	andne	r1, r1, #-1073741820	; 0xc0000004
     420:	97184006 	ldrls	r4, [r8, -r6]
     424:	00001942 	andeq	r1, r0, r2, asr #18
     428:	31012e2e 	tstcc	r1, lr, lsr #28
     42c:	12011113 	andne	r1, r1, #-1073741820	; 0xc0000004
     430:	97184006 	ldrls	r4, [r8, -r6]
     434:	13011942 	movwne	r1, #6466	; 0x1942
     438:	2e2f0000 	cdpcs	0, 2, cr0, cr15, cr0, {0}
     43c:	3c193f00 	ldccc	15, cr3, [r9], {-0}
     440:	030e6e19 	movweq	r6, #60953	; 0xee19
     444:	3b0b3a0e 	blcc	2cec84 <__bss_end__+0x2c3c74>
     448:	000b390b 	andeq	r3, fp, fp, lsl #18
     44c:	11010000 	mrsne	r0, (UNDEF: 1)
     450:	130e2501 	movwne	r2, #58625	; 0xe501
     454:	1b0e030b 	blne	381088 <__bss_end__+0x376078>
     458:	1201110e 	andne	r1, r1, #-2147483645	; 0x80000003
     45c:	00171006 	andseq	r1, r7, r6
     460:	00240200 	eoreq	r0, r4, r0, lsl #4
     464:	0b3e0b0b 	bleq	f83098 <__bss_end__+0xf78088>
     468:	00000803 	andeq	r0, r0, r3, lsl #16
     46c:	0b002403 	bleq	9480 <va_printk+0x2c8>
     470:	030b3e0b 	movweq	r3, #48651	; 0xbe0b
     474:	0400000e 	streq	r0, [r0], #-14
     478:	19270115 	stmdbne	r7!, {r0, r2, r4, r8}
     47c:	13011349 	movwne	r1, #4937	; 0x1349
     480:	05050000 	streq	r0, [r5, #-0]
     484:	00134900 	andseq	r4, r3, r0, lsl #18
     488:	00340600 	eorseq	r0, r4, r0, lsl #12
     48c:	0b3a0e03 	bleq	e83ca0 <__bss_end__+0xe78c90>
     490:	0b390b3b 	bleq	e43184 <__bss_end__+0xe38174>
     494:	193f1349 	ldmdbne	pc!, {r0, r3, r6, r8, r9, ip}	; <UNPREDICTABLE>
     498:	0000193c 	andeq	r1, r0, ip, lsr r9
     49c:	0b000f07 	bleq	40c0 <__code_start__-0x3f40>
     4a0:	0013490b 	andseq	r4, r3, fp, lsl #18
     4a4:	00260800 	eoreq	r0, r6, r0, lsl #16
     4a8:	00001349 	andeq	r1, r0, r9, asr #6
     4ac:	03011709 	movweq	r1, #5897	; 0x1709
     4b0:	3a0b0b0e 	bcc	2c30f0 <__bss_end__+0x2b80e0>
     4b4:	390b3b0b 	stmdbcc	fp, {r0, r1, r3, r8, r9, fp, ip, sp}
     4b8:	0013010b 	andseq	r0, r3, fp, lsl #2
     4bc:	000d0a00 	andeq	r0, sp, r0, lsl #20
     4c0:	0b3a0803 	bleq	e824d4 <__bss_end__+0xe774c4>
     4c4:	0b390b3b 	bleq	e431b8 <__bss_end__+0xe381a8>
     4c8:	00001349 	andeq	r1, r0, r9, asr #6
     4cc:	0b000f0b 	bleq	4100 <__code_start__-0x3f00>
     4d0:	0c00000b 	stceq	0, cr0, [r0], {11}
     4d4:	19270015 	stmdbne	r7!, {r0, r2, r4}
     4d8:	130d0000 	movwne	r0, #53248	; 0xd000
     4dc:	3a0b0b01 	bcc	2c30e8 <__bss_end__+0x2b80d8>
     4e0:	390b3b0b 	stmdbcc	fp, {r0, r1, r3, r8, r9, fp, ip, sp}
     4e4:	0013010b 	andseq	r0, r3, fp, lsl #2
     4e8:	000d0e00 	andeq	r0, sp, r0, lsl #28
     4ec:	0b3a0803 	bleq	e82500 <__bss_end__+0xe774f0>
     4f0:	0b390b3b 	bleq	e431e4 <__bss_end__+0xe381d4>
     4f4:	0b381349 	bleq	e05220 <__bss_end__+0xdfa210>
     4f8:	0d0f0000 	stceq	0, cr0, [pc, #-0]	; 500 <__code_start__-0x7b00>
     4fc:	3a0e0300 	bcc	381104 <__bss_end__+0x3760f4>
     500:	390b3b0b 	stmdbcc	fp, {r0, r1, r3, r8, r9, fp, ip, sp}
     504:	3813490b 	ldmdacc	r3, {r0, r1, r3, r8, fp, lr}
     508:	1000000b 	andne	r0, r0, fp
     50c:	0e030016 	mcreq	0, 0, r0, cr3, cr6, {0}
     510:	0b3b0b3a 	bleq	ec3200 <__bss_end__+0xeb81f0>
     514:	13490b39 	movtne	r0, #39737	; 0x9b39
     518:	34110000 	ldrcc	r0, [r1], #-0
     51c:	3a0e0300 	bcc	381124 <__bss_end__+0x376114>
     520:	390b3b0b 	stmdbcc	fp, {r0, r1, r3, r8, r9, fp, ip, sp}
     524:	0213490b 	andseq	r4, r3, #180224	; 0x2c000
     528:	12000018 	andne	r0, r0, #24, 0
     52c:	193f012e 	ldmdbne	pc!, {r1, r2, r3, r5, r8}	; <UNPREDICTABLE>
     530:	0b3a0e03 	bleq	e83d44 <__bss_end__+0xe78d34>
     534:	0b390b3b 	bleq	e43228 <__bss_end__+0xe38218>
     538:	01111927 	tsteq	r1, r7, lsr #18
     53c:	18400612 	stmdane	r0, {r1, r4, r9, sl}^
     540:	01194297 			; <UNDEFINED> instruction: 0x01194297
     544:	13000013 	movwne	r0, #19
     548:	08030005 	stmdaeq	r3, {r0, r2}
     54c:	0b3b0b3a 	bleq	ec323c <__bss_end__+0xeb822c>
     550:	13490b39 	movtne	r0, #39737	; 0x9b39
     554:	00001802 	andeq	r1, r0, r2, lsl #16
     558:	03003414 	movweq	r3, #1044	; 0x414
     55c:	3b0b3a08 	blcc	2ced84 <__bss_end__+0x2c3d74>
     560:	490b390b 	stmdbmi	fp, {r0, r1, r3, r8, fp, ip, sp}
     564:	b7170213 			; <UNDEFINED> instruction: 0xb7170213
     568:	00001742 	andeq	r1, r0, r2, asr #14
     56c:	3f012e15 	svccc	0x00012e15
     570:	3a0e0319 	bcc	3811dc <__bss_end__+0x3761cc>
     574:	390b3b0b 	stmdbcc	fp, {r0, r1, r3, r8, r9, fp, ip, sp}
     578:	4919270b 	ldmdbmi	r9, {r0, r1, r3, r8, r9, sl, sp}
     57c:	12011113 	andne	r1, r1, #-1073741820	; 0xc0000004
     580:	97184006 	ldrls	r4, [r8, -r6]
     584:	13011942 	movwne	r1, #6466	; 0x1942
     588:	05160000 	ldreq	r0, [r6, #-0]
     58c:	3a0e0300 	bcc	381194 <__bss_end__+0x376184>
     590:	390b3b0b 	stmdbcc	fp, {r0, r1, r3, r8, r9, fp, ip, sp}
     594:	0213490b 	andseq	r4, r3, #180224	; 0x2c000
     598:	1742b717 	smlaldne	fp, r2, r7, r7
     59c:	34170000 	ldrcc	r0, [r7], #-0
     5a0:	3a0e0300 	bcc	3811a8 <__bss_end__+0x376198>
     5a4:	390b3b0b 	stmdbcc	fp, {r0, r1, r3, r8, r9, fp, ip, sp}
     5a8:	0213490b 	andseq	r4, r3, #180224	; 0x2c000
     5ac:	1742b717 	smlaldne	fp, r2, r7, r7
     5b0:	1d180000 	ldcne	0, cr0, [r8, #-0]
     5b4:	52133101 	andspl	r3, r3, #1073741824	; 0x40000000
     5b8:	0b42b801 	bleq	10ae5c4 <__bss_end__+0x10a35b4>
     5bc:	0b581755 	bleq	1606318 <__bss_end__+0x15fb308>
     5c0:	0b570b59 	bleq	15c332c <__bss_end__+0x15b831c>
     5c4:	05190000 	ldreq	r0, [r9, #-0]
     5c8:	02133100 	andseq	r3, r3, #0
     5cc:	1742b717 	smlaldne	fp, r2, r7, r7
     5d0:	0b1a0000 	bleq	6805d8 <__bss_end__+0x6755c8>
     5d4:	00175501 	andseq	r5, r7, r1, lsl #10
     5d8:	00341b00 	eorseq	r1, r4, r0, lsl #22
     5dc:	17021331 	smladxne	r2, r1, r3, r1
     5e0:	001742b7 			; <UNDEFINED> instruction: 0x001742b7
     5e4:	82891c00 	addhi	r1, r9, #0, 24
     5e8:	01110001 	tsteq	r1, r1
     5ec:	00001331 	andeq	r1, r0, r1, lsr r3
     5f0:	0182891d 	orreq	r8, r2, sp, lsl r9
     5f4:	31011101 	tstcc	r1, r1, lsl #2
     5f8:	00130113 	andseq	r0, r3, r3, lsl r1
     5fc:	828a1e00 	addhi	r1, sl, #0, 28
     600:	18020001 	stmdane	r2, {r0}
     604:	00184291 	mulseq	r8, r1, r2
     608:	82891f00 	addhi	r1, r9, #0, 30
     60c:	01110101 	tsteq	r1, r1, lsl #2
     610:	00001331 	andeq	r1, r0, r1, lsr r3
     614:	03012e20 	movweq	r2, #7712	; 0x1e20
     618:	3b0b3a0e 	blcc	2cee58 <__bss_end__+0x2c3e48>
     61c:	270b390b 	strcs	r3, [fp, -fp, lsl #18]
     620:	20134919 	andscs	r4, r3, r9, lsl r9
     624:	0013010b 	andseq	r0, r3, fp, lsl #2
     628:	00052100 	andeq	r2, r5, r0, lsl #2
     62c:	0b3a0803 	bleq	e82640 <__bss_end__+0xe77630>
     630:	0b390b3b 	bleq	e43324 <__bss_end__+0xe38314>
     634:	00001349 	andeq	r1, r0, r9, asr #6
     638:	03003422 	movweq	r3, #1058	; 0x422
     63c:	3b0b3a08 	blcc	2cee64 <__bss_end__+0x2c3e54>
     640:	490b390b 	stmdbmi	fp, {r0, r1, r3, r8, fp, ip, sp}
     644:	23000013 	movwcs	r0, #19
     648:	193f002e 	ldmdbne	pc!, {r1, r2, r3, r5}	; <UNPREDICTABLE>
     64c:	0e6e193c 			; <UNDEFINED> instruction: 0x0e6e193c
     650:	0b3a0e03 	bleq	e83e64 <__bss_end__+0xe78e54>
     654:	0b390b3b 	bleq	e43348 <__bss_end__+0xe38338>
     658:	01000000 	mrseq	r0, (UNDEF: 0)
     65c:	0e250111 	mcreq	1, 1, r0, cr5, cr1, {0}
     660:	0e030b13 	vmoveq.32	d3[0], r0
     664:	01110e1b 	tsteq	r1, fp, lsl lr
     668:	17100612 			; <UNDEFINED> instruction: 0x17100612
     66c:	24020000 	strcs	r0, [r2], #-0
     670:	3e0b0b00 	vmlacc.f64	d0, d11, d0
     674:	0008030b 	andeq	r0, r8, fp, lsl #6
     678:	00240300 	eoreq	r0, r4, r0, lsl #6
     67c:	0b3e0b0b 	bleq	f832b0 <__bss_end__+0xf782a0>
     680:	00000e03 	andeq	r0, r0, r3, lsl #28
     684:	03001604 	movweq	r1, #1540	; 0x604
     688:	3b0b3a0e 	blcc	2ceec8 <__bss_end__+0x2c3eb8>
     68c:	490b390b 	stmdbmi	fp, {r0, r1, r3, r8, fp, ip, sp}
     690:	05000013 	streq	r0, [r0, #-19]	; 0xffffffed
     694:	19270115 	stmdbne	r7!, {r0, r2, r4, r8}
     698:	13011349 	movwne	r1, #4937	; 0x1349
     69c:	05060000 	streq	r0, [r6, #-0]
     6a0:	00134900 	andseq	r4, r3, r0, lsl #18
     6a4:	00340700 	eorseq	r0, r4, r0, lsl #14
     6a8:	0b3a0e03 	bleq	e83ebc <__bss_end__+0xe78eac>
     6ac:	0b390b3b 	bleq	e433a0 <__bss_end__+0xe38390>
     6b0:	193f1349 	ldmdbne	pc!, {r0, r3, r6, r8, r9, ip}	; <UNPREDICTABLE>
     6b4:	0000193c 	andeq	r1, r0, ip, lsr r9
     6b8:	0b000f08 	bleq	42e0 <__code_start__-0x3d20>
     6bc:	0013490b 	andseq	r4, r3, fp, lsl #18
     6c0:	00260900 	eoreq	r0, r6, r0, lsl #18
     6c4:	00001349 	andeq	r1, r0, r9, asr #6
     6c8:	0b01130a 	bleq	452f8 <__bss_end__+0x3a2e8>
     6cc:	3b0b3a0b 	blcc	2cef00 <__bss_end__+0x2c3ef0>
     6d0:	010b390b 	tsteq	fp, fp, lsl #18
     6d4:	0b000013 	bleq	728 <__code_start__-0x78d8>
     6d8:	0e03000d 	cdpeq	0, 0, cr0, cr3, cr13, {0}
     6dc:	0b3b0b3a 	bleq	ec33cc <__bss_end__+0xeb83bc>
     6e0:	13490b39 	movtne	r0, #39737	; 0x9b39
     6e4:	00000b38 	andeq	r0, r0, r8, lsr fp
     6e8:	3e01040c 	cdpcc	4, 0, cr0, cr1, cr12, {0}
     6ec:	490b0b0b 	stmdbmi	fp, {r0, r1, r3, r8, r9, fp}
     6f0:	3b0b3a13 	blcc	2cef44 <__bss_end__+0x2c3f34>
     6f4:	010b390b 	tsteq	fp, fp, lsl #18
     6f8:	0d000013 	stceq	0, cr0, [r0, #-76]	; 0xffffffb4
     6fc:	0e030028 	cdpeq	0, 0, cr0, cr3, cr8, {1}
     700:	00000b1c 	andeq	r0, r0, ip, lsl fp
     704:	0301130e 	movweq	r1, #4878	; 0x130e
     708:	3a0b0b0e 	bcc	2c3348 <__bss_end__+0x2b8338>
     70c:	390b3b0b 	stmdbcc	fp, {r0, r1, r3, r8, r9, fp, ip, sp}
     710:	0013010b 	andseq	r0, r3, fp, lsl #2
     714:	000d0f00 	andeq	r0, sp, r0, lsl #30
     718:	0b3a0803 	bleq	e8272c <__bss_end__+0xe7771c>
     71c:	0b390b3b 	bleq	e43410 <__bss_end__+0xe38400>
     720:	0b381349 	bleq	e0544c <__bss_end__+0xdfa43c>
     724:	01100000 	tsteq	r0, r0
     728:	01134901 	tsteq	r3, r1, lsl #18
     72c:	11000013 	tstne	r0, r3, lsl r0
     730:	13490021 	movtne	r0, #36897	; 0x9021
     734:	00000b2f 	andeq	r0, r0, pc, lsr #22
     738:	0b000f12 	bleq	4388 <__code_start__-0x3c78>
     73c:	1300000b 	movwne	r0, #11
     740:	0e030034 	mcreq	0, 0, r0, cr3, cr4, {1}
     744:	0b3b0b3a 	bleq	ec3434 <__bss_end__+0xeb8424>
     748:	13490b39 	movtne	r0, #39737	; 0x9b39
     74c:	00001802 	andeq	r1, r0, r2, lsl #16
     750:	3f012e14 	svccc	0x00012e14
     754:	3a0e0319 	bcc	3813c0 <__bss_end__+0x3763b0>
     758:	39053b0b 	stmdbcc	r5, {r0, r1, r3, r8, r9, fp, ip, sp}
     75c:	1119270b 	tstne	r9, fp, lsl #14
     760:	40061201 	andmi	r1, r6, r1, lsl #4
     764:	19429718 	stmdbne	r2, {r3, r4, r8, r9, sl, ip, pc}^
     768:	00001301 	andeq	r1, r0, r1, lsl #6
     76c:	03003415 	movweq	r3, #1045	; 0x415
     770:	3413490e 	ldrcc	r4, [r3], #-2318	; 0xfffff6f2
     774:	00180219 	andseq	r0, r8, r9, lsl r2
     778:	82891600 	addhi	r1, r9, #0, 12
     77c:	01110101 	tsteq	r1, r1, lsl #2
     780:	13011331 	movwne	r1, #4913	; 0x1331
     784:	8a170000 	bhi	5c078c <__bss_end__+0x5b577c>
     788:	02000182 	andeq	r0, r0, #-2147483616	; 0x80000020
     78c:	18429118 	stmdane	r2, {r3, r4, r8, ip, pc}^
     790:	89180000 	ldmdbhi	r8, {}	; <UNPREDICTABLE>
     794:	11000182 	smlabbne	r0, r2, r1, r0
     798:	00133101 	andseq	r3, r3, r1, lsl #2
     79c:	012e1900 			; <UNDEFINED> instruction: 0x012e1900
     7a0:	0e03193f 			; <UNDEFINED> instruction: 0x0e03193f
     7a4:	053b0b3a 	ldreq	r0, [fp, #-2874]!	; 0xfffff4c6
     7a8:	19270b39 	stmdbne	r7!, {r0, r3, r4, r5, r8, r9, fp}
     7ac:	01111349 	tsteq	r1, r9, asr #6
     7b0:	18400612 	stmdane	r0, {r1, r4, r9, sl}^
     7b4:	01194297 			; <UNDEFINED> instruction: 0x01194297
     7b8:	1a000013 	bne	80c <__code_start__-0x77f4>
     7bc:	0e030034 	mcreq	0, 0, r0, cr3, cr4, {1}
     7c0:	053b0b3a 	ldreq	r0, [fp, #-2874]!	; 0xfffff4c6
     7c4:	13490b39 	movtne	r0, #39737	; 0x9b39
     7c8:	42b71702 	adcsmi	r1, r7, #524288	; 0x80000
     7cc:	1b000017 	blne	830 <__code_start__-0x77d0>
     7d0:	0e03012e 	adfeqsp	f0, f3, #0.5
     7d4:	053b0b3a 	ldreq	r0, [fp, #-2874]!	; 0xfffff4c6
     7d8:	19270b39 	stmdbne	r7!, {r0, r3, r4, r5, r8, r9, fp}
     7dc:	01111349 	tsteq	r1, r9, asr #6
     7e0:	18400612 	stmdane	r0, {r1, r4, r9, sl}^
     7e4:	01194297 			; <UNDEFINED> instruction: 0x01194297
     7e8:	1c000013 	stcne	0, cr0, [r0], {19}
     7ec:	1755010b 	ldrbne	r0, [r5, -fp, lsl #2]
     7f0:	00001301 	andeq	r1, r0, r1, lsl #6
     7f4:	0300341d 	movweq	r3, #1053	; 0x41d
     7f8:	3b0b3a08 	blcc	2cf020 <__bss_end__+0x2c4010>
     7fc:	490b3905 	stmdbmi	fp, {r0, r2, r8, fp, ip, sp}
     800:	b7170213 			; <UNDEFINED> instruction: 0xb7170213
     804:	00001742 	andeq	r1, r0, r2, asr #14
     808:	31011d1e 	tstcc	r1, lr, lsl sp
     80c:	b8015213 	stmdalt	r1, {r0, r1, r4, r9, ip, lr}
     810:	01110b42 	tsteq	r1, r2, asr #22
     814:	0b580612 	bleq	1602064 <__bss_end__+0x15f7054>
     818:	0b570559 	bleq	15c1d84 <__bss_end__+0x15b6d74>
     81c:	00001301 	andeq	r1, r0, r1, lsl #6
     820:	3100051f 	tstcc	r0, pc, lsl r5
     824:	b7170213 			; <UNDEFINED> instruction: 0xb7170213
     828:	00001742 	andeq	r1, r0, r2, asr #14
     82c:	01828920 	orreq	r8, r2, r0, lsr #18
     830:	31011101 	tstcc	r1, r1, lsl #2
     834:	21000013 	tstcs	r0, r3, lsl r0
     838:	193f012e 	ldmdbne	pc!, {r1, r2, r3, r5, r8}	; <UNPREDICTABLE>
     83c:	0b3a0e03 	bleq	e84050 <__bss_end__+0xe79040>
     840:	0b390b3b 	bleq	e43534 <__bss_end__+0xe38524>
     844:	01111927 	tsteq	r1, r7, lsr #18
     848:	18400612 	stmdane	r0, {r1, r4, r9, sl}^
     84c:	01194297 			; <UNDEFINED> instruction: 0x01194297
     850:	22000013 	andcs	r0, r0, #19, 0
     854:	193f012e 	ldmdbne	pc!, {r1, r2, r3, r5, r8}	; <UNPREDICTABLE>
     858:	0b3a0e03 	bleq	e8406c <__bss_end__+0xe7905c>
     85c:	0b390b3b 	bleq	e43550 <__bss_end__+0xe38540>
     860:	13491927 	movtne	r1, #39207	; 0x9927
     864:	06120111 			; <UNDEFINED> instruction: 0x06120111
     868:	42971840 	addsmi	r1, r7, #64, 16	; 0x400000
     86c:	00130119 	andseq	r0, r3, r9, lsl r1
     870:	00052300 	andeq	r2, r5, r0, lsl #6
     874:	0b3a0e03 	bleq	e84088 <__bss_end__+0xe79078>
     878:	0b390b3b 	bleq	e4356c <__bss_end__+0xe3855c>
     87c:	17021349 	strne	r1, [r2, -r9, asr #6]
     880:	001742b7 			; <UNDEFINED> instruction: 0x001742b7
     884:	012e2400 			; <UNDEFINED> instruction: 0x012e2400
     888:	0b3a0e03 	bleq	e8409c <__bss_end__+0xe7908c>
     88c:	0b390b3b 	bleq	e43580 <__bss_end__+0xe38570>
     890:	13491927 	movtne	r1, #39207	; 0x9927
     894:	06120111 			; <UNDEFINED> instruction: 0x06120111
     898:	42971840 	addsmi	r1, r7, #64, 16	; 0x400000
     89c:	00130119 	andseq	r0, r3, r9, lsl r1
     8a0:	00342500 	eorseq	r2, r4, r0, lsl #10
     8a4:	0b3a0e03 	bleq	e840b8 <__bss_end__+0xe790a8>
     8a8:	0b390b3b 	bleq	e4359c <__bss_end__+0xe3858c>
     8ac:	17021349 	strne	r1, [r2, -r9, asr #6]
     8b0:	001742b7 			; <UNDEFINED> instruction: 0x001742b7
     8b4:	00342600 	eorseq	r2, r4, r0, lsl #12
     8b8:	0b3a0803 	bleq	e828cc <__bss_end__+0xe778bc>
     8bc:	0b390b3b 	bleq	e435b0 <__bss_end__+0xe385a0>
     8c0:	17021349 	strne	r1, [r2, -r9, asr #6]
     8c4:	001742b7 			; <UNDEFINED> instruction: 0x001742b7
     8c8:	010b2700 	tsteq	fp, r0, lsl #14
     8cc:	00001755 	andeq	r1, r0, r5, asr r7
     8d0:	03000528 	movweq	r0, #1320	; 0x528
     8d4:	3b0b3a0e 	blcc	2cf114 <__bss_end__+0x2c4104>
     8d8:	490b390b 	stmdbmi	fp, {r0, r1, r3, r8, fp, ip, sp}
     8dc:	00180213 	andseq	r0, r8, r3, lsl r2
     8e0:	012e2900 			; <UNDEFINED> instruction: 0x012e2900
     8e4:	0b3a0e03 	bleq	e840f8 <__bss_end__+0xe790e8>
     8e8:	0b390b3b 	bleq	e435dc <__bss_end__+0xe385cc>
     8ec:	01111927 	tsteq	r1, r7, lsr #18
     8f0:	18400612 	stmdane	r0, {r1, r4, r9, sl}^
     8f4:	01194297 			; <UNDEFINED> instruction: 0x01194297
     8f8:	2a000013 	bcs	94c <__code_start__-0x76b4>
     8fc:	0e030034 	mcreq	0, 0, r0, cr3, cr4, {1}
     900:	0b3b0b3a 	bleq	ec35f0 <__bss_end__+0xeb85e0>
     904:	13490b39 	movtne	r0, #39737	; 0x9b39
     908:	0000061c 	andeq	r0, r0, ip, lsl r6
     90c:	11010b2b 	tstne	r1, fp, lsr #22
     910:	01061201 	tsteq	r6, r1, lsl #4
     914:	2c000013 	stccs	0, cr0, [r0], {19}
     918:	08030005 	stmdaeq	r3, {r0, r2}
     91c:	0b3b0b3a 	bleq	ec360c <__bss_end__+0xeb85fc>
     920:	13490b39 	movtne	r0, #39737	; 0x9b39
     924:	42b71702 	adcsmi	r1, r7, #524288	; 0x80000
     928:	2d000017 	stccs	0, cr0, [r0, #-92]	; 0xffffffa4
     92c:	0e03012e 	adfeqsp	f0, f3, #0.5
     930:	0b3b0b3a 	bleq	ec3620 <__bss_end__+0xeb8610>
     934:	19270b39 	stmdbne	r7!, {r0, r3, r4, r5, r8, r9, fp}
     938:	0b201349 	bleq	805664 <__bss_end__+0x7fa654>
     93c:	00001301 	andeq	r1, r0, r1, lsl #6
     940:	0300052e 	movweq	r0, #1326	; 0x52e
     944:	3b0b3a0e 	blcc	2cf184 <__bss_end__+0x2c4174>
     948:	490b390b 	stmdbmi	fp, {r0, r1, r3, r8, fp, ip, sp}
     94c:	2f000013 	svccs	0x00000013
     950:	193f002e 	ldmdbne	pc!, {r1, r2, r3, r5}	; <UNPREDICTABLE>
     954:	0e6e193c 			; <UNDEFINED> instruction: 0x0e6e193c
     958:	0b3a0e03 	bleq	e8416c <__bss_end__+0xe7915c>
     95c:	0b390b3b 	bleq	e43650 <__bss_end__+0xe38640>
     960:	36300000 	ldrtcc	r0, [r0], -r0
     964:	00180200 	andseq	r0, r8, r0, lsl #4
     968:	11010000 	mrsne	r0, (UNDEF: 1)
     96c:	130e2501 	movwne	r2, #58625	; 0xe501
     970:	1b0e030b 	blne	3815a4 <__bss_end__+0x376594>
     974:	1201110e 	andne	r1, r1, #-2147483645	; 0x80000003
     978:	00171006 	andseq	r1, r7, r6
     97c:	00240200 	eoreq	r0, r4, r0, lsl #4
     980:	0b3e0b0b 	bleq	f835b4 <__bss_end__+0xf785a4>
     984:	00000803 	andeq	r0, r0, r3, lsl #16
     988:	03001603 	movweq	r1, #1539	; 0x603
     98c:	3b0b3a0e 	blcc	2cf1cc <__bss_end__+0x2c41bc>
     990:	490b390b 	stmdbmi	fp, {r0, r1, r3, r8, fp, ip, sp}
     994:	04000013 	streq	r0, [r0], #-19	; 0xffffffed
     998:	0b0b0024 	bleq	2c0a30 <__bss_end__+0x2b5a20>
     99c:	0e030b3e 	vmoveq.16	d3[0], r0
     9a0:	15050000 	strne	r0, [r5, #-0]
     9a4:	49192701 	ldmdbmi	r9, {r0, r8, r9, sl, sp}
     9a8:	00130113 	andseq	r0, r3, r3, lsl r1
     9ac:	00050600 	andeq	r0, r5, r0, lsl #12
     9b0:	00001349 	andeq	r1, r0, r9, asr #6
     9b4:	03003407 	movweq	r3, #1031	; 0x407
     9b8:	3b0b3a0e 	blcc	2cf1f8 <__bss_end__+0x2c41e8>
     9bc:	490b390b 	stmdbmi	fp, {r0, r1, r3, r8, fp, ip, sp}
     9c0:	3c193f13 	ldccc	15, cr3, [r9], {19}
     9c4:	08000019 	stmdaeq	r0, {r0, r3, r4}
     9c8:	0b0b000f 	bleq	2c0a0c <__bss_end__+0x2b59fc>
     9cc:	00001349 	andeq	r1, r0, r9, asr #6
     9d0:	49002609 	stmdbmi	r0, {r0, r3, r9, sl, sp}
     9d4:	0a000013 	beq	a28 <__code_start__-0x75d8>
     9d8:	193f012e 	ldmdbne	pc!, {r1, r2, r3, r5, r8}	; <UNPREDICTABLE>
     9dc:	0b3a0e03 	bleq	e841f0 <__bss_end__+0xe791e0>
     9e0:	0b390b3b 	bleq	e436d4 <__bss_end__+0xe386c4>
     9e4:	13491927 	movtne	r1, #39207	; 0x9927
     9e8:	06120111 			; <UNDEFINED> instruction: 0x06120111
     9ec:	42971840 	addsmi	r1, r7, #64, 16	; 0x400000
     9f0:	00130119 	andseq	r0, r3, r9, lsl r1
     9f4:	00050b00 	andeq	r0, r5, r0, lsl #22
     9f8:	0b3a0803 	bleq	e82a0c <__bss_end__+0xe779fc>
     9fc:	0b390b3b 	bleq	e436f0 <__bss_end__+0xe386e0>
     a00:	18021349 	stmdane	r2, {r0, r3, r6, r8, r9, ip}
     a04:	050c0000 	streq	r0, [ip, #-0]
     a08:	3a080300 	bcc	201610 <__bss_end__+0x1f6600>
     a0c:	390b3b0b 	stmdbcc	fp, {r0, r1, r3, r8, r9, fp, ip, sp}
     a10:	0213490b 	andseq	r4, r3, #180224	; 0x2c000
     a14:	1742b717 	smlaldne	fp, r2, r7, r7
     a18:	340d0000 	strcc	r0, [sp], #-0
     a1c:	3a080300 	bcc	201624 <__bss_end__+0x1f6614>
     a20:	390b3b0b 	stmdbcc	fp, {r0, r1, r3, r8, r9, fp, ip, sp}
     a24:	0213490b 	andseq	r4, r3, #180224	; 0x2c000
     a28:	1742b717 	smlaldne	fp, r2, r7, r7
     a2c:	0f0e0000 	svceq	0x000e0000
     a30:	000b0b00 	andeq	r0, fp, r0, lsl #22
     a34:	11010000 	mrsne	r0, (UNDEF: 1)
     a38:	130e2501 	movwne	r2, #58625	; 0xe501
     a3c:	1b0e030b 	blne	381670 <__bss_end__+0x376660>
     a40:	1201110e 	andne	r1, r1, #-2147483645	; 0x80000003
     a44:	00171006 	andseq	r1, r7, r6
     a48:	00160200 	andseq	r0, r6, r0, lsl #4
     a4c:	0b3a0e03 	bleq	e84260 <__bss_end__+0xe79250>
     a50:	0b390b3b 	bleq	e43744 <__bss_end__+0xe38734>
     a54:	00001349 	andeq	r1, r0, r9, asr #6
     a58:	03011303 	movweq	r1, #4867	; 0x1303
     a5c:	3a0b0b0e 	bcc	2c369c <__bss_end__+0x2b868c>
     a60:	010b3b0b 	tsteq	fp, fp, lsl #22
     a64:	04000013 	streq	r0, [r0], #-19	; 0xffffffed
     a68:	0e03000d 	cdpeq	0, 0, cr0, cr3, cr13, {0}
     a6c:	0b381349 	bleq	e05798 <__bss_end__+0xdfa788>
     a70:	00001934 	andeq	r1, r0, r4, lsr r9
     a74:	0b000f05 	bleq	4690 <__code_start__-0x3970>
     a78:	0600000b 	streq	r0, [r0], -fp
     a7c:	0b0b0024 	bleq	2c0b14 <__bss_end__+0x2b5b04>
     a80:	08030b3e 	stmdaeq	r3, {r1, r2, r3, r4, r5, r8, r9, fp}
     a84:	24070000 	strcs	r0, [r7], #-0
     a88:	3e0b0b00 	vmlacc.f64	d0, d11, d0
     a8c:	000e030b 	andeq	r0, lr, fp, lsl #6
     a90:	01150800 	tsteq	r5, r0, lsl #16
     a94:	13491927 	movtne	r1, #39207	; 0x9927
     a98:	00001301 	andeq	r1, r0, r1, lsl #6
     a9c:	49000509 	stmdbmi	r0, {r0, r3, r8, sl}
     aa0:	0a000013 	beq	af4 <__code_start__-0x750c>
     aa4:	0e030034 	mcreq	0, 0, r0, cr3, cr4, {1}
     aa8:	0b3b0b3a 	bleq	ec3798 <__bss_end__+0xeb8788>
     aac:	13490b39 	movtne	r0, #39737	; 0x9b39
     ab0:	193c193f 	ldmdbne	ip!, {r0, r1, r2, r3, r4, r5, r8, fp, ip}
     ab4:	0f0b0000 	svceq	0x000b0000
     ab8:	490b0b00 	stmdbmi	fp, {r8, r9, fp}
     abc:	0c000013 	stceq	0, cr0, [r0], {19}
     ac0:	13490026 	movtne	r0, #36902	; 0x9026
     ac4:	2e0d0000 	cdpcs	0, 0, cr0, cr13, cr0, {0}
     ac8:	03193f01 	tsteq	r9, #1, 30
     acc:	3b0b3a0e 	blcc	2cf30c <__bss_end__+0x2c42fc>
     ad0:	270b390b 	strcs	r3, [fp, -fp, lsl #18]
     ad4:	11134919 	tstne	r3, r9, lsl r9
     ad8:	40061201 	andmi	r1, r6, r1, lsl #4
     adc:	19429718 	stmdbne	r2, {r3, r4, r8, r9, sl, ip, pc}^
     ae0:	00001301 	andeq	r1, r0, r1, lsl #6
     ae4:	0300050e 	movweq	r0, #1294	; 0x50e
     ae8:	3b0b3a08 	blcc	2cf310 <__bss_end__+0x2c4300>
     aec:	490b390b 	stmdbmi	fp, {r0, r1, r3, r8, fp, ip, sp}
     af0:	00180213 	andseq	r0, r8, r3, lsl r2
     af4:	00180f00 	andseq	r0, r8, r0, lsl #30
     af8:	34100000 	ldrcc	r0, [r0], #-0
     afc:	3a080300 	bcc	201704 <__bss_end__+0x1f66f4>
     b00:	390b3b0b 	stmdbcc	fp, {r0, r1, r3, r8, r9, fp, ip, sp}
     b04:	0213490b 	andseq	r4, r3, #180224	; 0x2c000
     b08:	11000018 	tstne	r0, r8, lsl r0
     b0c:	0e030034 	mcreq	0, 0, r0, cr3, cr4, {1}
     b10:	0b3b0b3a 	bleq	ec3800 <__bss_end__+0xeb87f0>
     b14:	13490b39 	movtne	r0, #39737	; 0x9b39
     b18:	00001802 	andeq	r1, r0, r2, lsl #16
     b1c:	03003412 	movweq	r3, #1042	; 0x412
     b20:	3b0b3a08 	blcc	2cf348 <__bss_end__+0x2c4338>
     b24:	490b390b 	stmdbmi	fp, {r0, r1, r3, r8, fp, ip, sp}
     b28:	b7170213 			; <UNDEFINED> instruction: 0xb7170213
     b2c:	00001742 	andeq	r1, r0, r2, asr #14
     b30:	01828913 	orreq	r8, r2, r3, lsl r9
     b34:	31011101 	tstcc	r1, r1, lsl #2
     b38:	00130113 	andseq	r0, r3, r3, lsl r1
     b3c:	828a1400 	addhi	r1, sl, #0, 8
     b40:	18020001 	stmdane	r2, {r0}
     b44:	00184291 	mulseq	r8, r1, r2
     b48:	82891500 	addhi	r1, r9, #0, 10
     b4c:	01110101 	tsteq	r1, r1, lsl #2
     b50:	01160000 	tsteq	r6, r0
     b54:	01134901 	tsteq	r3, r1, lsl #18
     b58:	17000013 	smladne	r0, r3, r0, r0
     b5c:	13490021 	movtne	r0, #36897	; 0x9021
     b60:	0000052f 	andeq	r0, r0, pc, lsr #10
     b64:	3f002e18 	svccc	0x00002e18
     b68:	6e193c19 	mrcvs	12, 0, r3, cr9, cr9, {0}
     b6c:	3a0e030e 	bcc	3817ac <__bss_end__+0x37679c>
     b70:	390b3b0b 	stmdbcc	fp, {r0, r1, r3, r8, r9, fp, ip, sp}
     b74:	0000000b 	andeq	r0, r0, fp
     b78:	25011101 	strcs	r1, [r1, #-257]	; 0xfffffeff
     b7c:	030b130e 	movweq	r1, #45838	; 0xb30e
     b80:	110e1b0e 	tstne	lr, lr, lsl #22
     b84:	10061201 	andne	r1, r6, r1, lsl #4
     b88:	02000017 	andeq	r0, r0, #23, 0
     b8c:	0b0b0024 	bleq	2c0c24 <__bss_end__+0x2b5c14>
     b90:	08030b3e 	stmdaeq	r3, {r1, r2, r3, r4, r5, r8, r9, fp}
     b94:	24030000 	strcs	r0, [r3], #-0
     b98:	3e0b0b00 	vmlacc.f64	d0, d11, d0
     b9c:	000e030b 	andeq	r0, lr, fp, lsl #6
     ba0:	01150400 	tsteq	r5, r0, lsl #8
     ba4:	13491927 	movtne	r1, #39207	; 0x9927
     ba8:	00001301 	andeq	r1, r0, r1, lsl #6
     bac:	49000505 	stmdbmi	r0, {r0, r2, r8, sl}
     bb0:	06000013 			; <UNDEFINED> instruction: 0x06000013
     bb4:	0e030034 	mcreq	0, 0, r0, cr3, cr4, {1}
     bb8:	0b3b0b3a 	bleq	ec38a8 <__bss_end__+0xeb8898>
     bbc:	13490b39 	movtne	r0, #39737	; 0x9b39
     bc0:	193c193f 	ldmdbne	ip!, {r0, r1, r2, r3, r4, r5, r8, fp, ip}
     bc4:	0f070000 	svceq	0x00070000
     bc8:	490b0b00 	stmdbmi	fp, {r8, r9, fp}
     bcc:	08000013 	stmdaeq	r0, {r0, r1, r4}
     bd0:	13490026 	movtne	r0, #36902	; 0x9026
     bd4:	34090000 	strcc	r0, [r9], #-0
     bd8:	3a134700 	bcc	4d27e0 <__bss_end__+0x4c77d0>
     bdc:	390b3b0b 	stmdbcc	fp, {r0, r1, r3, r8, r9, fp, ip, sp}
     be0:	0018020b 	andseq	r0, r8, fp, lsl #4
     be4:	012e0a00 			; <UNDEFINED> instruction: 0x012e0a00
     be8:	0e03193f 			; <UNDEFINED> instruction: 0x0e03193f
     bec:	0b3b0b3a 	bleq	ec38dc <__bss_end__+0xeb88cc>
     bf0:	19270b39 	stmdbne	r7!, {r0, r3, r4, r5, r8, r9, fp}
     bf4:	01111349 	tsteq	r1, r9, asr #6
     bf8:	18400612 	stmdane	r0, {r1, r4, r9, sl}^
     bfc:	00194296 	mulseq	r9, r6, r2
     c00:	00050b00 	andeq	r0, r5, r0, lsl #22
     c04:	0b3a0803 	bleq	e82c18 <__bss_end__+0xe77c08>
     c08:	0b390b3b 	bleq	e438fc <__bss_end__+0xe388ec>
     c0c:	17021349 	strne	r1, [r2, -r9, asr #6]
     c10:	001742b7 			; <UNDEFINED> instruction: 0x001742b7
     c14:	11010000 	mrsne	r0, (UNDEF: 1)
     c18:	130e2501 	movwne	r2, #58625	; 0xe501
     c1c:	1b0e030b 	blne	381850 <__bss_end__+0x376840>
     c20:	1201110e 	andne	r1, r1, #-2147483645	; 0x80000003
     c24:	00171006 	andseq	r1, r7, r6
     c28:	00240200 	eoreq	r0, r4, r0, lsl #4
     c2c:	0b3e0b0b 	bleq	f83860 <__bss_end__+0xf78850>
     c30:	00000803 	andeq	r0, r0, r3, lsl #16
     c34:	0b002403 	bleq	9c48 <uart_has_data+0xc>
     c38:	030b3e0b 	movweq	r3, #48651	; 0xbe0b
     c3c:	0400000e 	streq	r0, [r0], #-14
     c40:	19270115 	stmdbne	r7!, {r0, r2, r4, r8}
     c44:	13011349 	movwne	r1, #4937	; 0x1349
     c48:	05050000 	streq	r0, [r5, #-0]
     c4c:	00134900 	andseq	r4, r3, r0, lsl #18
     c50:	00340600 	eorseq	r0, r4, r0, lsl #12
     c54:	0b3a0e03 	bleq	e84468 <__bss_end__+0xe79458>
     c58:	0b390b3b 	bleq	e4394c <__bss_end__+0xe3893c>
     c5c:	193f1349 	ldmdbne	pc!, {r0, r3, r6, r8, r9, ip}	; <UNPREDICTABLE>
     c60:	0000193c 	andeq	r1, r0, ip, lsr r9
     c64:	0b000f07 	bleq	4888 <__code_start__-0x3778>
     c68:	0013490b 	andseq	r4, r3, fp, lsl #18
     c6c:	00260800 	eoreq	r0, r6, r0, lsl #16
     c70:	00001349 	andeq	r1, r0, r9, asr #6
     c74:	03003409 	movweq	r3, #1033	; 0x409
     c78:	3b0b3a0e 	blcc	2cf4b8 <__bss_end__+0x2c44a8>
     c7c:	490b390b 	stmdbmi	fp, {r0, r1, r3, r8, fp, ip, sp}
     c80:	00180213 	andseq	r0, r8, r3, lsl r2
     c84:	00340a00 	eorseq	r0, r4, r0, lsl #20
     c88:	0b3a0803 	bleq	e82c9c <__bss_end__+0xe77c8c>
     c8c:	0b390b3b 	bleq	e43980 <__bss_end__+0xe38970>
     c90:	00001349 	andeq	r1, r0, r9, asr #6
     c94:	3f012e0b 	svccc	0x00012e0b
     c98:	3a0e0319 	bcc	381904 <__bss_end__+0x3768f4>
     c9c:	390b3b0b 	stmdbcc	fp, {r0, r1, r3, r8, r9, fp, ip, sp}
     ca0:	1119270b 	tstne	r9, fp, lsl #14
     ca4:	40061201 	andmi	r1, r6, r1, lsl #4
     ca8:	19429718 	stmdbne	r2, {r3, r4, r8, r9, sl, ip, pc}^
     cac:	00001301 	andeq	r1, r0, r1, lsl #6
     cb0:	0300050c 	movweq	r0, #1292	; 0x50c
     cb4:	3b0b3a0e 	blcc	2cf4f4 <__bss_end__+0x2c44e4>
     cb8:	490b390b 	stmdbmi	fp, {r0, r1, r3, r8, fp, ip, sp}
     cbc:	00180213 	andseq	r0, r8, r3, lsl r2
     cc0:	012e0d00 			; <UNDEFINED> instruction: 0x012e0d00
     cc4:	0e03193f 			; <UNDEFINED> instruction: 0x0e03193f
     cc8:	0b3b0b3a 	bleq	ec39b8 <__bss_end__+0xeb89a8>
     ccc:	19270b39 	stmdbne	r7!, {r0, r3, r4, r5, r8, r9, fp}
     cd0:	01111349 	tsteq	r1, r9, asr #6
     cd4:	18400612 	stmdane	r0, {r1, r4, r9, sl}^
     cd8:	01194297 			; <UNDEFINED> instruction: 0x01194297
     cdc:	0e000013 	mcreq	0, 0, r0, cr0, cr3, {0}
     ce0:	1331001d 	teqne	r1, #29, 0
     ce4:	42b80152 	adcsmi	r0, r8, #-2147483628	; 0x80000014
     ce8:	1201110b 	andne	r1, r1, #-1073741822	; 0xc0000002
     cec:	590b5806 	stmdbpl	fp, {r1, r2, fp, ip, lr}
     cf0:	000b570b 	andeq	r5, fp, fp, lsl #14
     cf4:	002e0f00 	eoreq	r0, lr, r0, lsl #30
     cf8:	0e03193f 			; <UNDEFINED> instruction: 0x0e03193f
     cfc:	0b3b0b3a 	bleq	ec39ec <__bss_end__+0xeb89dc>
     d00:	19270b39 	stmdbne	r7!, {r0, r3, r4, r5, r8, r9, fp}
     d04:	0b201349 	bleq	805a30 <__bss_end__+0x7faa20>
     d08:	2e100000 	cdpcs	0, 1, cr0, cr0, cr0, {0}
     d0c:	11133100 	tstne	r3, r0, lsl #2
     d10:	40061201 	andmi	r1, r6, r1, lsl #4
     d14:	19429718 	stmdbne	r2, {r3, r4, r8, r9, sl, ip, pc}^
     d18:	01000000 	mrseq	r0, (UNDEF: 0)
     d1c:	0e250111 	mcreq	1, 1, r0, cr5, cr1, {0}
     d20:	0e030b13 	vmoveq.32	d3[0], r0
     d24:	01110e1b 	tsteq	r1, fp, lsl lr
     d28:	17100612 			; <UNDEFINED> instruction: 0x17100612
     d2c:	24020000 	strcs	r0, [r2], #-0
     d30:	3e0b0b00 	vmlacc.f64	d0, d11, d0
     d34:	000e030b 	andeq	r0, lr, fp, lsl #6
     d38:	00240300 	eoreq	r0, r4, r0, lsl #6
     d3c:	0b3e0b0b 	bleq	f83970 <__bss_end__+0xf78960>
     d40:	00000803 	andeq	r0, r0, r3, lsl #16
     d44:	03001604 	movweq	r1, #1540	; 0x604
     d48:	3b0b3a0e 	blcc	2cf588 <__bss_end__+0x2c4578>
     d4c:	490b390b 	stmdbmi	fp, {r0, r1, r3, r8, fp, ip, sp}
     d50:	05000013 	streq	r0, [r0, #-19]	; 0xffffffed
     d54:	19270115 	stmdbne	r7!, {r0, r2, r4, r8}
     d58:	13011349 	movwne	r1, #4937	; 0x1349
     d5c:	05060000 	streq	r0, [r6, #-0]
     d60:	00134900 	andseq	r4, r3, r0, lsl #18
     d64:	00340700 	eorseq	r0, r4, r0, lsl #14
     d68:	0b3a0e03 	bleq	e8457c <__bss_end__+0xe7956c>
     d6c:	0b390b3b 	bleq	e43a60 <__bss_end__+0xe38a50>
     d70:	193f1349 	ldmdbne	pc!, {r0, r3, r6, r8, r9, ip}	; <UNPREDICTABLE>
     d74:	0000193c 	andeq	r1, r0, ip, lsr r9
     d78:	0b000f08 	bleq	49a0 <__code_start__-0x3660>
     d7c:	0013490b 	andseq	r4, r3, fp, lsl #18
     d80:	00260900 	eoreq	r0, r6, r0, lsl #18
     d84:	00001349 	andeq	r1, r0, r9, asr #6
     d88:	0301130a 	movweq	r1, #4874	; 0x130a
     d8c:	3a0b0b0e 	bcc	2c39cc <__bss_end__+0x2b89bc>
     d90:	010b3b0b 	tsteq	fp, fp, lsl #22
     d94:	0b000013 	bleq	de8 <__code_start__-0x7218>
     d98:	0e03000d 	cdpeq	0, 0, cr0, cr3, cr13, {0}
     d9c:	0b381349 	bleq	e05ac8 <__bss_end__+0xdfaab8>
     da0:	00001934 	andeq	r1, r0, r4, lsr r9
     da4:	0b000f0c 	bleq	49dc <__code_start__-0x3624>
     da8:	0d00000b 	stceq	0, cr0, [r0, #-44]	; 0xffffffd4
     dac:	193f012e 	ldmdbne	pc!, {r1, r2, r3, r5, r8}	; <UNPREDICTABLE>
     db0:	0b3a0e03 	bleq	e845c4 <__bss_end__+0xe795b4>
     db4:	0b390b3b 	bleq	e43aa8 <__bss_end__+0xe38a98>
     db8:	13491927 	movtne	r1, #39207	; 0x9927
     dbc:	06120111 			; <UNDEFINED> instruction: 0x06120111
     dc0:	42971840 	addsmi	r1, r7, #64, 16	; 0x400000
     dc4:	00130119 	andseq	r0, r3, r9, lsl r1
     dc8:	00050e00 	andeq	r0, r5, r0, lsl #28
     dcc:	0b3a0803 	bleq	e82de0 <__bss_end__+0xe77dd0>
     dd0:	0b390b3b 	bleq	e43ac4 <__bss_end__+0xe38ab4>
     dd4:	17021349 	strne	r1, [r2, -r9, asr #6]
     dd8:	001742b7 			; <UNDEFINED> instruction: 0x001742b7
     ddc:	00050f00 	andeq	r0, r5, r0, lsl #30
     de0:	0b3a0e03 	bleq	e845f4 <__bss_end__+0xe795e4>
     de4:	0b390b3b 	bleq	e43ad8 <__bss_end__+0xe38ac8>
     de8:	17021349 	strne	r1, [r2, -r9, asr #6]
     dec:	001742b7 			; <UNDEFINED> instruction: 0x001742b7
     df0:	00341000 	eorseq	r1, r4, r0
     df4:	0b3a0803 	bleq	e82e08 <__bss_end__+0xe77df8>
     df8:	0b390b3b 	bleq	e43aec <__bss_end__+0xe38adc>
     dfc:	17021349 	strne	r1, [r2, -r9, asr #6]
     e00:	001742b7 			; <UNDEFINED> instruction: 0x001742b7
     e04:	00341100 	eorseq	r1, r4, r0, lsl #2
     e08:	0b3a0e03 	bleq	e8461c <__bss_end__+0xe7960c>
     e0c:	0b390b3b 	bleq	e43b00 <__bss_end__+0xe38af0>
     e10:	17021349 	strne	r1, [r2, -r9, asr #6]
     e14:	001742b7 			; <UNDEFINED> instruction: 0x001742b7
     e18:	00341200 	eorseq	r1, r4, r0, lsl #4
     e1c:	13490e03 	movtne	r0, #40451	; 0x9e03
     e20:	18021934 	stmdane	r2, {r2, r4, r5, r8, fp, ip}
     e24:	0b130000 	bleq	4c0e2c <__bss_end__+0x4b5e1c>
     e28:	00175501 	andseq	r5, r7, r1, lsl #10
     e2c:	00341400 	eorseq	r1, r4, r0, lsl #8
     e30:	0b3a0803 	bleq	e82e44 <__bss_end__+0xe77e34>
     e34:	0b390b3b 	bleq	e43b28 <__bss_end__+0xe38b18>
     e38:	18021349 	stmdane	r2, {r0, r3, r6, r8, r9, ip}
     e3c:	34150000 	ldrcc	r0, [r5], #-0
     e40:	3a0e0300 	bcc	381a48 <__bss_end__+0x376a38>
     e44:	390b3b0b 	stmdbcc	fp, {r0, r1, r3, r8, r9, fp, ip, sp}
     e48:	0213490b 	andseq	r4, r3, #180224	; 0x2c000
     e4c:	16000018 			; <UNDEFINED> instruction: 0x16000018
     e50:	1755010b 	ldrbne	r0, [r5, -fp, lsl #2]
     e54:	00001301 	andeq	r1, r0, r1, lsl #6
     e58:	01828917 	orreq	r8, r2, r7, lsl r9
     e5c:	31011101 	tstcc	r1, r1, lsl #2
     e60:	00130113 	andseq	r0, r3, r3, lsl r1
     e64:	828a1800 	addhi	r1, sl, #0, 16
     e68:	18020001 	stmdane	r2, {r0}
     e6c:	00184291 	mulseq	r8, r1, r2
     e70:	82891900 	addhi	r1, r9, #0, 18
     e74:	01110001 	tsteq	r1, r1
     e78:	00001331 	andeq	r1, r0, r1, lsr r3
     e7c:	31011d1a 	tstcc	r1, sl, lsl sp
     e80:	b8015213 	stmdalt	r1, {r0, r1, r4, r9, ip, lr}
     e84:	17550542 	ldrbne	r0, [r5, -r2, asr #10]
     e88:	0b590b58 	bleq	1643bf0 <__bss_end__+0x1638be0>
     e8c:	13010b57 	movwne	r0, #6999	; 0x1b57
     e90:	051b0000 	ldreq	r0, [fp, #-0]
     e94:	02133100 	andseq	r3, r3, #0
     e98:	1742b717 	smlaldne	fp, r2, r7, r7
     e9c:	051c0000 	ldreq	r0, [ip, #-0]
     ea0:	00133100 	andseq	r3, r3, r0, lsl #2
     ea4:	00341d00 	eorseq	r1, r4, r0, lsl #26
     ea8:	18021331 	stmdane	r2, {r0, r4, r5, r8, r9, ip}
     eac:	341e0000 	ldrcc	r0, [lr], #-0
     eb0:	02133100 	andseq	r3, r3, #0
     eb4:	1742b717 	smlaldne	fp, r2, r7, r7
     eb8:	341f0000 	ldrcc	r0, [pc], #-0	; ec0 <__code_start__-0x7140>
     ebc:	00133100 	andseq	r3, r3, r0, lsl #2
     ec0:	011d2000 	tsteq	sp, r0
     ec4:	01521331 	cmpeq	r2, r1, lsr r3
     ec8:	550542b8 	strpl	r4, [r5, #-696]	; 0xfffffd48
     ecc:	590b5817 	stmdbpl	fp, {r0, r1, r2, r4, fp, ip, lr}
     ed0:	000b570b 	andeq	r5, fp, fp, lsl #14
     ed4:	82892100 	addhi	r2, r9, #0
     ed8:	01110101 	tsteq	r1, r1, lsl #2
     edc:	00001301 	andeq	r1, r0, r1, lsl #6
     ee0:	49010122 	stmdbmi	r1, {r1, r5, r8}
     ee4:	00130113 	andseq	r0, r3, r3, lsl r1
     ee8:	00212300 	eoreq	r2, r1, r0, lsl #6
     eec:	0b2f1349 	bleq	bc5c18 <__bss_end__+0xbbac08>
     ef0:	2e240000 	cdpcs	0, 2, cr0, cr4, cr0, {0}
     ef4:	3a0e0301 	bcc	381b00 <__bss_end__+0x376af0>
     ef8:	390b3b0b 	stmdbcc	fp, {r0, r1, r3, r8, r9, fp, ip, sp}
     efc:	4919270b 	ldmdbmi	r9, {r0, r1, r3, r8, r9, sl, sp}
     f00:	010b2013 	tsteq	fp, r3, lsl r0
     f04:	25000013 	strcs	r0, [r0, #-19]	; 0xffffffed
     f08:	0e030005 	cdpeq	0, 0, cr0, cr3, cr5, {0}
     f0c:	0b3b0b3a 	bleq	ec3bfc <__bss_end__+0xeb8bec>
     f10:	13490b39 	movtne	r0, #39737	; 0x9b39
     f14:	05260000 	streq	r0, [r6, #-0]!
     f18:	3a080300 	bcc	201b20 <__bss_end__+0x1f6b10>
     f1c:	390b3b0b 	stmdbcc	fp, {r0, r1, r3, r8, r9, fp, ip, sp}
     f20:	0013490b 	andseq	r4, r3, fp, lsl #18
     f24:	00342700 	eorseq	r2, r4, r0, lsl #14
     f28:	0b3a0803 	bleq	e82f3c <__bss_end__+0xe77f2c>
     f2c:	0b390b3b 	bleq	e43c20 <__bss_end__+0xe38c10>
     f30:	00001349 	andeq	r1, r0, r9, asr #6
     f34:	00010b28 	andeq	r0, r1, r8, lsr #22
     f38:	00342900 	eorseq	r2, r4, r0, lsl #18
     f3c:	0b3a0e03 	bleq	e84750 <__bss_end__+0xe79740>
     f40:	0b390b3b 	bleq	e43c34 <__bss_end__+0xe38c24>
     f44:	00001349 	andeq	r1, r0, r9, asr #6
     f48:	03012e2a 	movweq	r2, #7722	; 0x1e2a
     f4c:	3b0b3a08 	blcc	2cf774 <__bss_end__+0x2c4764>
     f50:	270b390b 	strcs	r3, [fp, -fp, lsl #18]
     f54:	20134919 	andscs	r4, r3, r9, lsl r9
     f58:	0013010b 	andseq	r0, r3, fp, lsl #2
     f5c:	012e2b00 			; <UNDEFINED> instruction: 0x012e2b00
     f60:	0e03193f 			; <UNDEFINED> instruction: 0x0e03193f
     f64:	0b3b0b3a 	bleq	ec3c54 <__bss_end__+0xeb8c44>
     f68:	19270b39 	stmdbne	r7!, {r0, r3, r4, r5, r8, r9, fp}
     f6c:	06120111 			; <UNDEFINED> instruction: 0x06120111
     f70:	42971840 	addsmi	r1, r7, #64, 16	; 0x400000
     f74:	00130119 	andseq	r0, r3, r9, lsl r1
     f78:	012e2c00 			; <UNDEFINED> instruction: 0x012e2c00
     f7c:	01111331 	tsteq	r1, r1, lsr r3
     f80:	18400612 	stmdane	r0, {r1, r4, r9, sl}^
     f84:	01194297 			; <UNDEFINED> instruction: 0x01194297
     f88:	2d000013 	stccs	0, cr0, [r0, #-76]	; 0xffffffb4
     f8c:	13310005 	teqne	r1, #5, 0
     f90:	00001802 	andeq	r1, r0, r2, lsl #16
     f94:	3100052e 	tstcc	r0, lr, lsr #10
     f98:	000b1c13 	andeq	r1, fp, r3, lsl ip
     f9c:	010b2f00 	tsteq	fp, r0, lsl #30
     fa0:	01111331 	tsteq	r1, r1, lsr r3
     fa4:	13010612 	movwne	r0, #5650	; 0x1612
     fa8:	2e300000 	cdpcs	0, 3, cr0, cr0, cr0, {0}
     fac:	3c193f00 	ldccc	15, cr3, [r9], {-0}
     fb0:	030e6e19 	movweq	r6, #60953	; 0xee19
     fb4:	3b0b3a0e 	blcc	2cf7f4 <__bss_end__+0x2c47e4>
     fb8:	000b390b 	andeq	r3, fp, fp, lsl #18
     fbc:	11010000 	mrsne	r0, (UNDEF: 1)
     fc0:	130e2501 	movwne	r2, #58625	; 0xe501
     fc4:	1b0e030b 	blne	381bf8 <__bss_end__+0x376be8>
     fc8:	1201110e 	andne	r1, r1, #-2147483645	; 0x80000003
     fcc:	00171006 	andseq	r1, r7, r6
     fd0:	00240200 	eoreq	r0, r4, r0, lsl #4
     fd4:	0b3e0b0b 	bleq	f83c08 <__bss_end__+0xf78bf8>
     fd8:	00000803 	andeq	r0, r0, r3, lsl #16
     fdc:	0b002403 	bleq	9ff0 <kfree_all+0x10>
     fe0:	030b3e0b 	movweq	r3, #48651	; 0xbe0b
     fe4:	0400000e 	streq	r0, [r0], #-14
     fe8:	19270115 	stmdbne	r7!, {r0, r2, r4, r8}
     fec:	13011349 	movwne	r1, #4937	; 0x1349
     ff0:	05050000 	streq	r0, [r5, #-0]
     ff4:	00134900 	andseq	r4, r3, r0, lsl #18
     ff8:	00340600 	eorseq	r0, r4, r0, lsl #12
     ffc:	0b3a0e03 	bleq	e84810 <__bss_end__+0xe79800>
    1000:	0b390b3b 	bleq	e43cf4 <__bss_end__+0xe38ce4>
    1004:	193f1349 	ldmdbne	pc!, {r0, r3, r6, r8, r9, ip}	; <UNPREDICTABLE>
    1008:	0000193c 	andeq	r1, r0, ip, lsr r9
    100c:	0b000f07 	bleq	4c30 <__code_start__-0x33d0>
    1010:	0013490b 	andseq	r4, r3, fp, lsl #18
    1014:	00260800 	eoreq	r0, r6, r0, lsl #16
    1018:	00001349 	andeq	r1, r0, r9, asr #6
    101c:	3f012e09 	svccc	0x00012e09
    1020:	3a0e0319 	bcc	381c8c <__bss_end__+0x376c7c>
    1024:	390b3b0b 	stmdbcc	fp, {r0, r1, r3, r8, r9, fp, ip, sp}
    1028:	8719270b 	ldrhi	r2, [r9, -fp, lsl #14]
    102c:	01111901 	tsteq	r1, r1, lsl #18
    1030:	18400612 	stmdane	r0, {r1, r4, r9, sl}^
    1034:	01194297 			; <UNDEFINED> instruction: 0x01194297
    1038:	0a000013 	beq	108c <__code_start__-0x6f74>
    103c:	01018289 	smlabbeq	r1, r9, r2, r8
    1040:	13010111 	movwne	r0, #4369	; 0x1111
    1044:	8a0b0000 	bhi	2c104c <__bss_end__+0x2b603c>
    1048:	02000182 	andeq	r0, r0, #-2147483616	; 0x80000020
    104c:	18429118 	stmdane	r2, {r3, r4, r8, ip, pc}^
    1050:	890c0000 	stmdbhi	ip, {}	; <UNPREDICTABLE>
    1054:	11000182 	smlabbne	r0, r2, r1, r0
    1058:	00133101 	andseq	r3, r3, r1, lsl #2
    105c:	82890d00 	addhi	r0, r9, #0, 26
    1060:	01110101 	tsteq	r1, r1, lsl #2
    1064:	13011331 	movwne	r1, #4913	; 0x1331
    1068:	2e0e0000 	cdpcs	0, 0, cr0, cr14, cr0, {0}
    106c:	3c193f00 	ldccc	15, cr3, [r9], {-0}
    1070:	030e6e19 	movweq	r6, #60953	; 0xee19
    1074:	3b0b3a0e 	blcc	2cf8b4 <__bss_end__+0x2c48a4>
    1078:	000b390b 	andeq	r3, fp, fp, lsl #18
    107c:	11010000 	mrsne	r0, (UNDEF: 1)
    1080:	130e2501 	movwne	r2, #58625	; 0xe501
    1084:	1b0e030b 	blne	381cb8 <__bss_end__+0x376ca8>
    1088:	1201110e 	andne	r1, r1, #-2147483645	; 0x80000003
    108c:	00171006 	andseq	r1, r7, r6
    1090:	00240200 	eoreq	r0, r4, r0, lsl #4
    1094:	0b3e0b0b 	bleq	f83cc8 <__bss_end__+0xf78cb8>
    1098:	00000803 	andeq	r0, r0, r3, lsl #16
    109c:	0b002403 	bleq	a0b0 <gpio_set_function+0x5c>
    10a0:	030b3e0b 	movweq	r3, #48651	; 0xbe0b
    10a4:	0400000e 	streq	r0, [r0], #-14
    10a8:	19270115 	stmdbne	r7!, {r0, r2, r4, r8}
    10ac:	13011349 	movwne	r1, #4937	; 0x1349
    10b0:	05050000 	streq	r0, [r5, #-0]
    10b4:	00134900 	andseq	r4, r3, r0, lsl #18
    10b8:	00340600 	eorseq	r0, r4, r0, lsl #12
    10bc:	0b3a0e03 	bleq	e848d0 <__bss_end__+0xe798c0>
    10c0:	0b390b3b 	bleq	e43db4 <__bss_end__+0xe38da4>
    10c4:	193f1349 	ldmdbne	pc!, {r0, r3, r6, r8, r9, ip}	; <UNPREDICTABLE>
    10c8:	0000193c 	andeq	r1, r0, ip, lsr r9
    10cc:	0b000f07 	bleq	4cf0 <__code_start__-0x3310>
    10d0:	0013490b 	andseq	r4, r3, fp, lsl #18
    10d4:	00260800 	eoreq	r0, r6, r0, lsl #16
    10d8:	00001349 	andeq	r1, r0, r9, asr #6
    10dc:	3f012e09 	svccc	0x00012e09
    10e0:	3a0e0319 	bcc	381d4c <__bss_end__+0x376d3c>
    10e4:	390b3b0b 	stmdbcc	fp, {r0, r1, r3, r8, r9, fp, ip, sp}
    10e8:	1201110b 	andne	r1, r1, #-1073741822	; 0xc0000002
    10ec:	97184006 	ldrls	r4, [r8, -r6]
    10f0:	13011942 	movwne	r1, #6466	; 0x1942
    10f4:	2e0a0000 	cdpcs	0, 0, cr0, cr10, cr0, {0}
    10f8:	03193f00 	tsteq	r9, #0, 30
    10fc:	3b0b3a0e 	blcc	2cf93c <__bss_end__+0x2c492c>
    1100:	270b390b 	strcs	r3, [fp, -fp, lsl #18]
    1104:	00193c19 	andseq	r3, r9, r9, lsl ip
    1108:	00340b00 	eorseq	r0, r4, r0, lsl #22
    110c:	0b3a0803 	bleq	e83120 <__bss_end__+0xe78110>
    1110:	0b390b3b 	bleq	e43e04 <__bss_end__+0xe38df4>
    1114:	17021349 	strne	r1, [r2, -r9, asr #6]
    1118:	001742b7 			; <UNDEFINED> instruction: 0x001742b7
    111c:	00340c00 	eorseq	r0, r4, r0, lsl #24
    1120:	0b3a0e03 	bleq	e84934 <__bss_end__+0xe79924>
    1124:	0b390b3b 	bleq	e43e18 <__bss_end__+0xe38e08>
    1128:	00001349 	andeq	r1, r0, r9, asr #6
    112c:	11010b0d 	tstne	r1, sp, lsl #22
    1130:	01061201 	tsteq	r6, r1, lsl #4
    1134:	0e000013 	mcreq	0, 0, r0, cr0, cr3, {0}
    1138:	00018289 	andeq	r8, r1, r9, lsl #5
    113c:	13310111 	teqne	r1, #1073741828	; 0x40000004
    1140:	2e0f0000 	cdpcs	0, 0, cr0, cr15, cr0, {0}
    1144:	3c193f00 	ldccc	15, cr3, [r9], {-0}
    1148:	030e6e19 	movweq	r6, #60953	; 0xee19
    114c:	3b0b3a0e 	blcc	2cf98c <__bss_end__+0x2c497c>
    1150:	000b3905 	andeq	r3, fp, r5, lsl #18
    1154:	002e1000 	eoreq	r1, lr, r0
    1158:	193c193f 	ldmdbne	ip!, {r0, r1, r2, r3, r4, r5, r8, fp, ip}
    115c:	0e030e6e 	cdpeq	14, 0, cr0, cr3, cr14, {3}
    1160:	0b3b0b3a 	bleq	ec3e50 <__bss_end__+0xeb8e40>
    1164:	00000b39 	andeq	r0, r0, r9, lsr fp
    1168:	01110100 	tsteq	r1, r0, lsl #2
    116c:	0b130e25 	bleq	4c4a08 <__bss_end__+0x4b99f8>
    1170:	0e1b0e03 	cdpeq	14, 1, cr0, cr11, cr3, {0}
    1174:	06120111 			; <UNDEFINED> instruction: 0x06120111
    1178:	00001710 	andeq	r1, r0, r0, lsl r7
    117c:	0b002402 	bleq	a18c <gpio_set_input+0x50>
    1180:	030b3e0b 	movweq	r3, #48651	; 0xbe0b
    1184:	03000008 	movweq	r0, #8
    1188:	0b0b0024 	bleq	2c1220 <__bss_end__+0x2b6210>
    118c:	0e030b3e 	vmoveq.16	d3[0], r0
    1190:	15040000 	strne	r0, [r4, #-0]
    1194:	49192701 	ldmdbmi	r9, {r0, r8, r9, sl, sp}
    1198:	00130113 	andseq	r0, r3, r3, lsl r1
    119c:	00050500 	andeq	r0, r5, r0, lsl #10
    11a0:	00001349 	andeq	r1, r0, r9, asr #6
    11a4:	03003406 	movweq	r3, #1030	; 0x406
    11a8:	3b0b3a0e 	blcc	2cf9e8 <__bss_end__+0x2c49d8>
    11ac:	490b390b 	stmdbmi	fp, {r0, r1, r3, r8, fp, ip, sp}
    11b0:	3c193f13 	ldccc	15, cr3, [r9], {19}
    11b4:	07000019 	smladeq	r0, r9, r0, r0
    11b8:	0b0b000f 	bleq	2c11fc <__bss_end__+0x2b61ec>
    11bc:	00001349 	andeq	r1, r0, r9, asr #6
    11c0:	49002608 	stmdbmi	r0, {r3, r9, sl, sp}
    11c4:	09000013 	stmdbeq	r0, {r0, r1, r4}
    11c8:	193f002e 	ldmdbne	pc!, {r1, r2, r3, r5}	; <UNPREDICTABLE>
    11cc:	0b3a0e03 	bleq	e849e0 <__bss_end__+0xe799d0>
    11d0:	0b390b3b 	bleq	e43ec4 <__bss_end__+0xe38eb4>
    11d4:	01111927 	tsteq	r1, r7, lsr #18
    11d8:	18400612 	stmdane	r0, {r1, r4, r9, sl}^
    11dc:	00194297 	mulseq	r9, r7, r2
    11e0:	11010000 	mrsne	r0, (UNDEF: 1)
    11e4:	130e2501 	movwne	r2, #58625	; 0xe501
    11e8:	1b0e030b 	blne	381e1c <__bss_end__+0x376e0c>
    11ec:	1117550e 	tstne	r7, lr, lsl #10
    11f0:	00171001 	andseq	r1, r7, r1
    11f4:	00240200 	eoreq	r0, r4, r0, lsl #4
    11f8:	0b3e0b0b 	bleq	f83e2c <__bss_end__+0xf78e1c>
    11fc:	00000803 	andeq	r0, r0, r3, lsl #16
    1200:	49002603 	stmdbmi	r0, {r0, r1, r9, sl, sp}
    1204:	04000013 	streq	r0, [r0], #-19	; 0xffffffed
    1208:	0b0b0024 	bleq	2c12a0 <__bss_end__+0x2b6290>
    120c:	0e030b3e 	vmoveq.16	d3[0], r0
    1210:	15050000 	strne	r0, [r5, #-0]
    1214:	49192701 	ldmdbmi	r9, {r0, r8, r9, sl, sp}
    1218:	00130113 	andseq	r0, r3, r3, lsl r1
    121c:	00050600 	andeq	r0, r5, r0, lsl #12
    1220:	00001349 	andeq	r1, r0, r9, asr #6
    1224:	03003407 	movweq	r3, #1031	; 0x407
    1228:	3b0b3a0e 	blcc	2cfa68 <__bss_end__+0x2c4a58>
    122c:	490b390b 	stmdbmi	fp, {r0, r1, r3, r8, fp, ip, sp}
    1230:	3c193f13 	ldccc	15, cr3, [r9], {19}
    1234:	08000019 	stmdaeq	r0, {r0, r3, r4}
    1238:	0b0b000f 	bleq	2c127c <__bss_end__+0x2b626c>
    123c:	00001349 	andeq	r1, r0, r9, asr #6
    1240:	03003409 	movweq	r3, #1033	; 0x409
    1244:	3b0b3a0e 	blcc	2cfa84 <__bss_end__+0x2c4a74>
    1248:	490b390b 	stmdbmi	fp, {r0, r1, r3, r8, fp, ip, sp}
    124c:	0a000013 	beq	12a0 <__code_start__-0x6d60>
    1250:	193f012e 	ldmdbne	pc!, {r1, r2, r3, r5, r8}	; <UNPREDICTABLE>
    1254:	0b3a0e03 	bleq	e84a68 <__bss_end__+0xe79a58>
    1258:	0b390b3b 	bleq	e43f4c <__bss_end__+0xe38f3c>
    125c:	01871927 	orreq	r1, r7, r7, lsr #18
    1260:	12011119 	andne	r1, r1, #1073741830	; 0x40000006
    1264:	97184006 	ldrls	r4, [r8, -r6]
    1268:	13011942 	movwne	r1, #6466	; 0x1942
    126c:	340b0000 	strcc	r0, [fp], #-0
    1270:	3a0e0300 	bcc	381e78 <__bss_end__+0x376e68>
    1274:	390b3b0b 	stmdbcc	fp, {r0, r1, r3, r8, r9, fp, ip, sp}
    1278:	1c13490b 			; <UNDEFINED> instruction: 0x1c13490b
    127c:	0c000006 	stceq	0, cr0, [r0], {6}
    1280:	0e030034 	mcreq	0, 0, r0, cr3, cr4, {1}
    1284:	0b3b0b3a 	bleq	ec3f74 <__bss_end__+0xeb8f64>
    1288:	13490b39 	movtne	r0, #39737	; 0x9b39
    128c:	00000b1c 	andeq	r0, r0, ip, lsl fp
    1290:	31011d0d 	tstcc	r1, sp, lsl #26
    1294:	b8015213 	stmdalt	r1, {r0, r1, r4, r9, ip, lr}
    1298:	17550b42 	ldrbne	r0, [r5, -r2, asr #22]
    129c:	0b590b58 	bleq	1644004 <__bss_end__+0x1638ff4>
    12a0:	13010b57 	movwne	r0, #6999	; 0x1b57
    12a4:	0b0e0000 	bleq	3812ac <__bss_end__+0x37629c>
    12a8:	00175501 	andseq	r5, r7, r1, lsl #10
    12ac:	00340f00 	eorseq	r0, r4, r0, lsl #30
    12b0:	17021331 	smladxne	r2, r1, r3, r1
    12b4:	001742b7 			; <UNDEFINED> instruction: 0x001742b7
    12b8:	011d1000 	tsteq	sp, r0
    12bc:	01521331 	cmpeq	r2, r1, lsr r3
    12c0:	110b42b8 			; <UNDEFINED> instruction: 0x110b42b8
    12c4:	58061201 	stmdapl	r6, {r0, r9, ip}
    12c8:	570b590b 	strpl	r5, [fp, -fp, lsl #18]
    12cc:	0013010b 	andseq	r0, r3, fp, lsl #2
    12d0:	82891100 	addhi	r1, r9, #0
    12d4:	01110001 	tsteq	r1, r1
    12d8:	00001331 	andeq	r1, r0, r1, lsr r3
    12dc:	01828912 	orreq	r8, r2, r2, lsl r9
    12e0:	31011101 	tstcc	r1, r1, lsl #2
    12e4:	00130113 	andseq	r0, r3, r3, lsl r1
    12e8:	828a1300 	addhi	r1, sl, #0, 6
    12ec:	18020001 	stmdane	r2, {r0}
    12f0:	00184291 	mulseq	r8, r1, r2
    12f4:	82891400 	addhi	r1, r9, #0, 8
    12f8:	01110101 	tsteq	r1, r1, lsl #2
    12fc:	00001331 	andeq	r1, r0, r1, lsr r3
    1300:	3f012e15 	svccc	0x00012e15
    1304:	3a0e0319 	bcc	381f70 <__bss_end__+0x376f60>
    1308:	390b3b0b 	stmdbcc	fp, {r0, r1, r3, r8, r9, fp, ip, sp}
    130c:	2019270b 	andscs	r2, r9, fp, lsl #14
    1310:	0013010b 	andseq	r0, r3, fp, lsl #2
    1314:	012e1600 			; <UNDEFINED> instruction: 0x012e1600
    1318:	0e03193f 			; <UNDEFINED> instruction: 0x0e03193f
    131c:	0b3b0b3a 	bleq	ec400c <__bss_end__+0xeb8ffc>
    1320:	19270b39 	stmdbne	r7!, {r0, r3, r4, r5, r8, r9, fp}
    1324:	0b201349 	bleq	806050 <__bss_end__+0x7fb040>
    1328:	00001301 	andeq	r1, r0, r1, lsl #6
    132c:	31012e17 	tstcc	r1, r7, lsl lr
    1330:	12011113 	andne	r1, r1, #-1073741820	; 0xc0000004
    1334:	97184006 	ldrls	r4, [r8, -r6]
    1338:	13011942 	movwne	r1, #6466	; 0x1942
    133c:	2e180000 	cdpcs	0, 1, cr0, cr8, cr0, {0}
    1340:	3c193f00 	ldccc	15, cr3, [r9], {-0}
    1344:	030e6e19 	movweq	r6, #60953	; 0xee19
    1348:	3b0b3a0e 	blcc	2cfb88 <__bss_end__+0x2c4b78>
    134c:	000b3905 	andeq	r3, fp, r5, lsl #18
    1350:	002e1900 	eoreq	r1, lr, r0, lsl #18
    1354:	193c193f 	ldmdbne	ip!, {r0, r1, r2, r3, r4, r5, r8, fp, ip}
    1358:	0e030e6e 	cdpeq	14, 0, cr0, cr3, cr14, {3}
    135c:	0b3b0b3a 	bleq	ec404c <__bss_end__+0xeb903c>
    1360:	00000b39 	andeq	r0, r0, r9, lsr fp
    1364:	01110100 	tsteq	r1, r0, lsl #2
    1368:	0b130e25 	bleq	4c4c04 <__bss_end__+0x4b9bf4>
    136c:	0e1b0e03 	cdpeq	14, 1, cr0, cr11, cr3, {0}
    1370:	06120111 			; <UNDEFINED> instruction: 0x06120111
    1374:	00001710 	andeq	r1, r0, r0, lsl r7
    1378:	0b002402 	bleq	a388 <__FUNCTION__.4025+0x4>
    137c:	030b3e0b 	movweq	r3, #48651	; 0xbe0b
    1380:	03000008 	movweq	r0, #8
    1384:	0b0b0024 	bleq	2c141c <__bss_end__+0x2b640c>
    1388:	0e030b3e 	vmoveq.16	d3[0], r0
    138c:	15040000 	strne	r0, [r4, #-0]
    1390:	49192701 	ldmdbmi	r9, {r0, r8, r9, sl, sp}
    1394:	00130113 	andseq	r0, r3, r3, lsl r1
    1398:	00050500 	andeq	r0, r5, r0, lsl #10
    139c:	00001349 	andeq	r1, r0, r9, asr #6
    13a0:	03003406 	movweq	r3, #1030	; 0x406
    13a4:	3b0b3a0e 	blcc	2cfbe4 <__bss_end__+0x2c4bd4>
    13a8:	490b390b 	stmdbmi	fp, {r0, r1, r3, r8, fp, ip, sp}
    13ac:	3c193f13 	ldccc	15, cr3, [r9], {19}
    13b0:	07000019 	smladeq	r0, r9, r0, r0
    13b4:	0b0b000f 	bleq	2c13f8 <__bss_end__+0x2b63e8>
    13b8:	00001349 	andeq	r1, r0, r9, asr #6
    13bc:	49002608 	stmdbmi	r0, {r3, r9, sl, sp}
    13c0:	09000013 	stmdbeq	r0, {r0, r1, r4}
    13c4:	193f012e 	ldmdbne	pc!, {r1, r2, r3, r5, r8}	; <UNPREDICTABLE>
    13c8:	0b3a0e03 	bleq	e84bdc <__bss_end__+0xe79bcc>
    13cc:	0b390b3b 	bleq	e440c0 <__bss_end__+0xe390b0>
    13d0:	01111927 	tsteq	r1, r7, lsr #18
    13d4:	18400612 	stmdane	r0, {r1, r4, r9, sl}^
    13d8:	01194297 			; <UNDEFINED> instruction: 0x01194297
    13dc:	0a000013 	beq	1430 <__code_start__-0x6bd0>
    13e0:	08030005 	stmdaeq	r3, {r0, r2}
    13e4:	0b3b0b3a 	bleq	ec40d4 <__bss_end__+0xeb90c4>
    13e8:	13490b39 	movtne	r0, #39737	; 0x9b39
    13ec:	42b71702 	adcsmi	r1, r7, #524288	; 0x80000
    13f0:	0b000017 	bleq	1454 <__code_start__-0x6bac>
    13f4:	1331011d 	teqne	r1, #1073741831	; 0x40000007
    13f8:	42b80152 	adcsmi	r0, r8, #-2147483628	; 0x80000014
    13fc:	5817550b 	ldmdapl	r7, {r0, r1, r3, r8, sl, ip, lr}
    1400:	570b590b 	strpl	r5, [fp, -fp, lsl #18]
    1404:	0c00000b 	stceq	0, cr0, [r0], {11}
    1408:	13310005 	teqne	r1, #5, 0
    140c:	42b71702 	adcsmi	r1, r7, #524288	; 0x80000
    1410:	0d000017 	stceq	0, cr0, [r0, #-92]	; 0xffffffa4
    1414:	1331011d 	teqne	r1, #1073741831	; 0x40000007
    1418:	42b80152 	adcsmi	r0, r8, #-2147483628	; 0x80000014
    141c:	1201110b 	andne	r1, r1, #-1073741822	; 0xc0000002
    1420:	590b5806 	stmdbpl	fp, {r1, r2, fp, ip, lr}
    1424:	000b570b 	andeq	r5, fp, fp, lsl #14
    1428:	00340e00 	eorseq	r0, r4, r0, lsl #28
    142c:	17021331 	smladxne	r2, r1, r3, r1
    1430:	001742b7 			; <UNDEFINED> instruction: 0x001742b7
    1434:	011d0f00 	tsteq	sp, r0, lsl #30
    1438:	01521331 	cmpeq	r2, r1, lsr r3
    143c:	110b42b8 			; <UNDEFINED> instruction: 0x110b42b8
    1440:	58061201 	stmdapl	r6, {r0, r9, ip}
    1444:	570b590b 	strpl	r5, [fp, -fp, lsl #18]
    1448:	0013010b 	andseq	r0, r3, fp, lsl #2
    144c:	82891000 	addhi	r1, r9, #0, 0
    1450:	01110101 	tsteq	r1, r1, lsl #2
    1454:	00001331 	andeq	r1, r0, r1, lsr r3
    1458:	01828a11 	orreq	r8, r2, r1, lsl sl
    145c:	91180200 	tstls	r8, r0, lsl #4
    1460:	00001842 	andeq	r1, r0, r2, asr #16
    1464:	01828912 	orreq	r8, r2, r2, lsl r9
    1468:	31011100 	mrscc	r1, (UNDEF: 17)
    146c:	13000013 	movwne	r0, #19
    1470:	1331010b 	teqne	r1, #-1073741822	; 0xc0000002
    1474:	00001755 	andeq	r1, r0, r5, asr r7
    1478:	31003414 	tstcc	r0, r4, lsl r4
    147c:	15000013 	strne	r0, [r0, #-19]	; 0xffffffed
    1480:	1755010b 	ldrbne	r0, [r5, -fp, lsl #2]
    1484:	1d160000 	ldcne	0, cr0, [r6, #-0]
    1488:	52133101 	andspl	r3, r3, #1073741824	; 0x40000000
    148c:	0b42b801 	bleq	10af498 <__bss_end__+0x10a4488>
    1490:	0b581755 	bleq	16071ec <__bss_end__+0x15fc1dc>
    1494:	0b570b59 	bleq	15c4200 <__bss_end__+0x15b91f0>
    1498:	00001301 	andeq	r1, r0, r1, lsl #6
    149c:	3f012e17 	svccc	0x00012e17
    14a0:	3a0e0319 	bcc	38210c <__bss_end__+0x3770fc>
    14a4:	390b3b0b 	stmdbcc	fp, {r0, r1, r3, r8, r9, fp, ip, sp}
    14a8:	2019270b 	andscs	r2, r9, fp, lsl #14
    14ac:	0013010b 	andseq	r0, r3, fp, lsl #2
    14b0:	00051800 	andeq	r1, r5, r0, lsl #16
    14b4:	0b3a0803 	bleq	e834c8 <__bss_end__+0xe784b8>
    14b8:	0b390b3b 	bleq	e441ac <__bss_end__+0xe3919c>
    14bc:	00001349 	andeq	r1, r0, r9, asr #6
    14c0:	03003419 	movweq	r3, #1049	; 0x419
    14c4:	3b0b3a08 	blcc	2cfcec <__bss_end__+0x2c4cdc>
    14c8:	490b390b 	stmdbmi	fp, {r0, r1, r3, r8, fp, ip, sp}
    14cc:	1a000013 	bne	1520 <__code_start__-0x6ae0>
    14d0:	0000010b 	andeq	r0, r0, fp, lsl #2
    14d4:	3f012e1b 	svccc	0x00012e1b
    14d8:	3a0e0319 	bcc	382144 <__bss_end__+0x377134>
    14dc:	390b3b0b 	stmdbcc	fp, {r0, r1, r3, r8, r9, fp, ip, sp}
    14e0:	4919270b 	ldmdbmi	r9, {r0, r1, r3, r8, r9, sl, sp}
    14e4:	010b2013 	tsteq	fp, r3, lsl r0
    14e8:	1c000013 	stcne	0, cr0, [r0], {19}
    14ec:	193f002e 	ldmdbne	pc!, {r1, r2, r3, r5}	; <UNPREDICTABLE>
    14f0:	0b3a0e03 	bleq	e84d04 <__bss_end__+0xe79cf4>
    14f4:	0b390b3b 	bleq	e441e8 <__bss_end__+0xe391d8>
    14f8:	13491927 	movtne	r1, #39207	; 0x9927
    14fc:	00000b20 	andeq	r0, r0, r0, lsr #22
    1500:	31012e1d 	tstcc	r1, sp, lsl lr
    1504:	12011113 	andne	r1, r1, #-1073741820	; 0xc0000004
    1508:	97184006 	ldrls	r4, [r8, -r6]
    150c:	13011942 	movwne	r1, #6466	; 0x1942
    1510:	891e0000 	ldmdbhi	lr, {}	; <UNPREDICTABLE>
    1514:	11010182 	smlabbne	r1, r2, r1, r0
    1518:	19429501 	stmdbne	r2, {r0, r8, sl, ip, pc}^
    151c:	00001331 	andeq	r1, r0, r1, lsr r3
    1520:	3f002e1f 	svccc	0x00002e1f
    1524:	6e193c19 	mrcvs	12, 0, r3, cr9, cr9, {0}
    1528:	3a0e030e 	bcc	382168 <__bss_end__+0x377158>
    152c:	390b3b0b 	stmdbcc	fp, {r0, r1, r3, r8, r9, fp, ip, sp}
    1530:	0000000b 	andeq	r0, r0, fp
    1534:	25011101 	strcs	r1, [r1, #-257]	; 0xfffffeff
    1538:	030b130e 	movweq	r1, #45838	; 0xb30e
    153c:	110e1b0e 	tstne	lr, lr, lsl #22
    1540:	10061201 	andne	r1, r6, r1, lsl #4
    1544:	02000017 	andeq	r0, r0, #23, 0
    1548:	0b0b0024 	bleq	2c15e0 <__bss_end__+0x2b65d0>
    154c:	08030b3e 	stmdaeq	r3, {r1, r2, r3, r4, r5, r8, r9, fp}
    1550:	24030000 	strcs	r0, [r3], #-0
    1554:	3e0b0b00 	vmlacc.f64	d0, d11, d0
    1558:	000e030b 	andeq	r0, lr, fp, lsl #6
    155c:	00350400 	eorseq	r0, r5, r0, lsl #8
    1560:	00001349 	andeq	r1, r0, r9, asr #6
    1564:	03001605 	movweq	r1, #1541	; 0x605
    1568:	3b0b3a0e 	blcc	2cfda8 <__bss_end__+0x2c4d98>
    156c:	490b390b 	stmdbmi	fp, {r0, r1, r3, r8, fp, ip, sp}
    1570:	06000013 			; <UNDEFINED> instruction: 0x06000013
    1574:	0b3e0104 	bleq	f8198c <__bss_end__+0xf7697c>
    1578:	13490b0b 	movtne	r0, #39691	; 0x9b0b
    157c:	0b3b0b3a 	bleq	ec426c <__bss_end__+0xeb925c>
    1580:	13010b39 	movwne	r0, #6969	; 0x1b39
    1584:	28070000 	stmdacs	r7, {}	; <UNPREDICTABLE>
    1588:	1c0e0300 	stcne	3, cr0, [lr], {-0}
    158c:	0800000b 	stmdaeq	r0, {r0, r1, r3}
    1590:	0e030113 	mcreq	1, 0, r0, cr3, cr3, {0}
    1594:	0b3a0b0b 	bleq	e841c8 <__bss_end__+0xe791b8>
    1598:	0b390b3b 	bleq	e4428c <__bss_end__+0xe3927c>
    159c:	00001301 	andeq	r1, r0, r1, lsl #6
    15a0:	03000d09 	movweq	r0, #3337	; 0xd09
    15a4:	3b0b3a08 	blcc	2cfdcc <__bss_end__+0x2c4dbc>
    15a8:	490b390b 	stmdbmi	fp, {r0, r1, r3, r8, fp, ip, sp}
    15ac:	000b3813 	andeq	r3, fp, r3, lsl r8
    15b0:	000d0a00 	andeq	r0, sp, r0, lsl #20
    15b4:	0b3a0e03 	bleq	e84dc8 <__bss_end__+0xe79db8>
    15b8:	0b390b3b 	bleq	e442ac <__bss_end__+0xe3929c>
    15bc:	0b381349 	bleq	e062e8 <__bss_end__+0xdfb2d8>
    15c0:	340b0000 	strcc	r0, [fp], #-0
    15c4:	3a0e0300 	bcc	3821cc <__bss_end__+0x3771bc>
    15c8:	390b3b0b 	stmdbcc	fp, {r0, r1, r3, r8, r9, fp, ip, sp}
    15cc:	1c13490b 			; <UNDEFINED> instruction: 0x1c13490b
    15d0:	0c000006 	stceq	0, cr0, [r0], {6}
    15d4:	0b0b000f 	bleq	2c1618 <__bss_end__+0x2b6608>
    15d8:	00001349 	andeq	r1, r0, r9, asr #6
    15dc:	4900260d 	stmdbmi	r0, {r0, r2, r3, r9, sl, sp}
    15e0:	0e000013 	mcreq	0, 0, r0, cr0, cr3, {0}
    15e4:	193f012e 	ldmdbne	pc!, {r1, r2, r3, r5, r8}	; <UNPREDICTABLE>
    15e8:	0b3a0e03 	bleq	e84dfc <__bss_end__+0xe79dec>
    15ec:	0b390b3b 	bleq	e442e0 <__bss_end__+0xe392d0>
    15f0:	01111927 	tsteq	r1, r7, lsr #18
    15f4:	18400612 	stmdane	r0, {r1, r4, r9, sl}^
    15f8:	01194297 			; <UNDEFINED> instruction: 0x01194297
    15fc:	0f000013 	svceq	0x00000013
    1600:	00018289 	andeq	r8, r1, r9, lsl #5
    1604:	13310111 	teqne	r1, #1073741828	; 0x40000004
    1608:	2e100000 	cdpcs	0, 1, cr0, cr0, cr0, {0}
    160c:	03193f01 	tsteq	r9, #1, 30
    1610:	3b0b3a0e 	blcc	2cfe50 <__bss_end__+0x2c4e40>
    1614:	270b390b 	strcs	r3, [fp, -fp, lsl #18]
    1618:	11134919 	tstne	r3, r9, lsl r9
    161c:	40061201 	andmi	r1, r6, r1, lsl #4
    1620:	19429718 	stmdbne	r2, {r3, r4, r8, r9, sl, ip, pc}^
    1624:	00001301 	andeq	r1, r0, r1, lsl #6
    1628:	01828911 	orreq	r8, r2, r1, lsl r9
    162c:	31011101 	tstcc	r1, r1, lsl #2
    1630:	12000013 	andne	r0, r0, #19, 0
    1634:	0001828a 	andeq	r8, r1, sl, lsl #5
    1638:	42911802 	addsmi	r1, r1, #131072	; 0x20000
    163c:	13000018 	movwne	r0, #24
    1640:	08030005 	stmdaeq	r3, {r0, r2}
    1644:	0b3b0b3a 	bleq	ec4334 <__bss_end__+0xeb9324>
    1648:	13490b39 	movtne	r0, #39737	; 0x9b39
    164c:	42b71702 	adcsmi	r1, r7, #524288	; 0x80000
    1650:	14000017 	strne	r0, [r0], #-23	; 0xffffffe9
    1654:	01018289 	smlabbeq	r1, r9, r2, r8
    1658:	13310111 	teqne	r1, #1073741828	; 0x40000004
    165c:	00001301 	andeq	r1, r0, r1, lsl #6
    1660:	03003415 	movweq	r3, #1045	; 0x415
    1664:	3b0b3a08 	blcc	2cfe8c <__bss_end__+0x2c4e7c>
    1668:	490b390b 	stmdbmi	fp, {r0, r1, r3, r8, fp, ip, sp}
    166c:	b7170213 			; <UNDEFINED> instruction: 0xb7170213
    1670:	00001742 	andeq	r1, r0, r2, asr #14
    1674:	03003416 	movweq	r3, #1046	; 0x416
    1678:	3b0b3a0e 	blcc	2cfeb8 <__bss_end__+0x2c4ea8>
    167c:	490b390b 	stmdbmi	fp, {r0, r1, r3, r8, fp, ip, sp}
    1680:	00051c13 	andeq	r1, r5, r3, lsl ip
    1684:	012e1700 			; <UNDEFINED> instruction: 0x012e1700
    1688:	0b3a0e03 	bleq	e84e9c <__bss_end__+0xe79e8c>
    168c:	0b390b3b 	bleq	e44380 <__bss_end__+0xe39370>
    1690:	01111927 	tsteq	r1, r7, lsr #18
    1694:	18400612 	stmdane	r0, {r1, r4, r9, sl}^
    1698:	01194297 			; <UNDEFINED> instruction: 0x01194297
    169c:	18000013 	stmdane	r0, {r0, r1, r4}
    16a0:	0e030005 	cdpeq	0, 0, cr0, cr3, cr5, {0}
    16a4:	0b3b0b3a 	bleq	ec4394 <__bss_end__+0xeb9384>
    16a8:	13490b39 	movtne	r0, #39737	; 0x9b39
    16ac:	42b71702 	adcsmi	r1, r7, #524288	; 0x80000
    16b0:	19000017 	stmdbne	r0, {r0, r1, r2, r4}
    16b4:	00000035 	andeq	r0, r0, r5, lsr r0
    16b8:	3f002e1a 	svccc	0x00002e1a
    16bc:	6e193c19 	mrcvs	12, 0, r3, cr9, cr9, {0}
    16c0:	3a0e030e 	bcc	382300 <__bss_end__+0x3772f0>
    16c4:	390b3b0b 	stmdbcc	fp, {r0, r1, r3, r8, r9, fp, ip, sp}
    16c8:	0000000b 	andeq	r0, r0, fp
    16cc:	25011101 	strcs	r1, [r1, #-257]	; 0xfffffeff
    16d0:	030b130e 	movweq	r1, #45838	; 0xb30e
    16d4:	110e1b0e 	tstne	lr, lr, lsl #22
    16d8:	10061201 	andne	r1, r6, r1, lsl #4
    16dc:	02000017 	andeq	r0, r0, #23, 0
    16e0:	0b0b0024 	bleq	2c1778 <__bss_end__+0x2b6768>
    16e4:	08030b3e 	stmdaeq	r3, {r1, r2, r3, r4, r5, r8, r9, fp}
    16e8:	24030000 	strcs	r0, [r3], #-0
    16ec:	3e0b0b00 	vmlacc.f64	d0, d11, d0
    16f0:	000e030b 	andeq	r0, lr, fp, lsl #6
    16f4:	00160400 	andseq	r0, r6, r0, lsl #8
    16f8:	0b3a0e03 	bleq	e84f0c <__bss_end__+0xe79efc>
    16fc:	0b390b3b 	bleq	e443f0 <__bss_end__+0xe393e0>
    1700:	00001349 	andeq	r1, r0, r9, asr #6
    1704:	49002605 	stmdbmi	r0, {r0, r2, r9, sl, sp}
    1708:	06000013 			; <UNDEFINED> instruction: 0x06000013
    170c:	0b0b000f 	bleq	2c1750 <__bss_end__+0x2b6740>
    1710:	04070000 	streq	r0, [r7], #-0
    1714:	0b0b3e01 	bleq	2d0f20 <__bss_end__+0x2c5f10>
    1718:	3a13490b 	bcc	4d3b4c <__bss_end__+0x4c8b3c>
    171c:	390b3b0b 	stmdbcc	fp, {r0, r1, r3, r8, r9, fp, ip, sp}
    1720:	0013010b 	andseq	r0, r3, fp, lsl #2
    1724:	00280800 	eoreq	r0, r8, r0, lsl #16
    1728:	061c0e03 	ldreq	r0, [ip], -r3, lsl #28
    172c:	34090000 	strcc	r0, [r9], #-0
    1730:	3a0e0300 	bcc	382338 <__bss_end__+0x377328>
    1734:	390b3b0b 	stmdbcc	fp, {r0, r1, r3, r8, r9, fp, ip, sp}
    1738:	3f13490b 	svccc	0x0013490b
    173c:	00193c19 	andseq	r3, r9, r9, lsl ip
    1740:	00340a00 	eorseq	r0, r4, r0, lsl #20
    1744:	0b3a0e03 	bleq	e84f58 <__bss_end__+0xe79f48>
    1748:	0b390b3b 	bleq	e4443c <__bss_end__+0xe3942c>
    174c:	18021349 	stmdane	r2, {r0, r3, r6, r8, r9, ip}
    1750:	0f0b0000 	svceq	0x000b0000
    1754:	490b0b00 	stmdbmi	fp, {r8, r9, fp}
    1758:	0c000013 	stceq	0, cr0, [r0], {19}
    175c:	193f012e 	ldmdbne	pc!, {r1, r2, r3, r5, r8}	; <UNPREDICTABLE>
    1760:	0b3a0e03 	bleq	e84f74 <__bss_end__+0xe79f64>
    1764:	0b390b3b 	bleq	e44458 <__bss_end__+0xe39448>
    1768:	01111927 	tsteq	r1, r7, lsr #18
    176c:	18400612 	stmdane	r0, {r1, r4, r9, sl}^
    1770:	01194297 			; <UNDEFINED> instruction: 0x01194297
    1774:	0d000013 	stceq	0, cr0, [r0, #-76]	; 0xffffffb4
    1778:	08030005 	stmdaeq	r3, {r0, r2}
    177c:	0b3b0b3a 	bleq	ec446c <__bss_end__+0xeb945c>
    1780:	13490b39 	movtne	r0, #39737	; 0x9b39
    1784:	42b71702 	adcsmi	r1, r7, #524288	; 0x80000
    1788:	0e000017 	mcreq	0, 0, r0, cr0, cr7, {0}
    178c:	0e030034 	mcreq	0, 0, r0, cr3, cr4, {1}
    1790:	19341349 	ldmdbne	r4!, {r0, r3, r6, r8, r9, ip}
    1794:	00001802 	andeq	r1, r0, r2, lsl #16
    1798:	0182890f 	orreq	r8, r2, pc, lsl #18
    179c:	31011101 	tstcc	r1, r1, lsl #2
    17a0:	00130113 	andseq	r0, r3, r3, lsl r1
    17a4:	828a1000 	addhi	r1, sl, #0, 0
    17a8:	18020001 	stmdane	r2, {r0}
    17ac:	00184291 	mulseq	r8, r1, r2
    17b0:	82891100 	addhi	r1, r9, #0
    17b4:	01110001 	tsteq	r1, r1
    17b8:	00001331 	andeq	r1, r0, r1, lsr r3
    17bc:	49010112 	stmdbmi	r1, {r1, r4, r8}
    17c0:	00130113 	andseq	r0, r3, r3, lsl r1
    17c4:	00211300 	eoreq	r1, r1, r0, lsl #6
    17c8:	0b2f1349 	bleq	bc64f4 <__bss_end__+0xbbb4e4>
    17cc:	2e140000 	cdpcs	0, 1, cr0, cr4, cr0, {0}
    17d0:	03193f00 	tsteq	r9, #0, 30
    17d4:	3b0b3a0e 	blcc	2d0014 <__bss_end__+0x2c5004>
    17d8:	270b390b 	strcs	r3, [fp, -fp, lsl #18]
    17dc:	12011119 	andne	r1, r1, #1073741830	; 0x40000006
    17e0:	97184006 	ldrls	r4, [r8, -r6]
    17e4:	00001942 	andeq	r1, r0, r2, asr #18
    17e8:	03000515 	movweq	r0, #1301	; 0x515
    17ec:	3b0b3a08 	blcc	2d0014 <__bss_end__+0x2c5004>
    17f0:	490b390b 	stmdbmi	fp, {r0, r1, r3, r8, fp, ip, sp}
    17f4:	00180213 	andseq	r0, r8, r3, lsl r2
    17f8:	012e1600 			; <UNDEFINED> instruction: 0x012e1600
    17fc:	0e03193f 			; <UNDEFINED> instruction: 0x0e03193f
    1800:	0b3b0b3a 	bleq	ec44f0 <__bss_end__+0xeb94e0>
    1804:	19270b39 	stmdbne	r7!, {r0, r3, r4, r5, r8, r9, fp}
    1808:	01111349 	tsteq	r1, r9, asr #6
    180c:	18400612 	stmdane	r0, {r1, r4, r9, sl}^
    1810:	01194297 			; <UNDEFINED> instruction: 0x01194297
    1814:	17000013 	smladne	r0, r3, r0, r0
    1818:	0e030005 	cdpeq	0, 0, cr0, cr3, cr5, {0}
    181c:	0b3b0b3a 	bleq	ec450c <__bss_end__+0xeb94fc>
    1820:	13490b39 	movtne	r0, #39737	; 0x9b39
    1824:	42b71702 	adcsmi	r1, r7, #524288	; 0x80000
    1828:	18000017 	stmdane	r0, {r0, r1, r2, r4}
    182c:	08030034 	stmdaeq	r3, {r2, r4, r5}
    1830:	0b3b0b3a 	bleq	ec4520 <__bss_end__+0xeb9510>
    1834:	13490b39 	movtne	r0, #39737	; 0x9b39
    1838:	42b71702 	adcsmi	r1, r7, #524288	; 0x80000
    183c:	19000017 	stmdbne	r0, {r0, r1, r2, r4}
    1840:	1331011d 	teqne	r1, #1073741831	; 0x40000007
    1844:	42b80152 	adcsmi	r0, r8, #-2147483628	; 0x80000014
    1848:	1201110b 	andne	r1, r1, #-1073741822	; 0xc0000002
    184c:	590b5806 	stmdbpl	fp, {r1, r2, fp, ip, lr}
    1850:	010b570b 	tsteq	fp, fp, lsl #14
    1854:	1a000013 	bne	18a8 <__code_start__-0x6758>
    1858:	13310005 	teqne	r1, #5, 0
    185c:	42b71702 	adcsmi	r1, r7, #524288	; 0x80000
    1860:	1b000017 	blne	18c4 <__code_start__-0x673c>
    1864:	1331011d 	teqne	r1, #1073741831	; 0x40000007
    1868:	42b80152 	adcsmi	r0, r8, #-2147483628	; 0x80000014
    186c:	5817550b 	ldmdapl	r7, {r0, r1, r3, r8, sl, ip, lr}
    1870:	570b590b 	strpl	r5, [fp, -fp, lsl #18]
    1874:	0013010b 	andseq	r0, r3, fp, lsl #2
    1878:	010b1c00 	tsteq	fp, r0, lsl #24
    187c:	00001755 	andeq	r1, r0, r5, asr r7
    1880:	0300341d 	movweq	r3, #1053	; 0x41d
    1884:	3b0b3a0e 	blcc	2d00c4 <__bss_end__+0x2c50b4>
    1888:	490b390b 	stmdbmi	fp, {r0, r1, r3, r8, fp, ip, sp}
    188c:	b7170213 			; <UNDEFINED> instruction: 0xb7170213
    1890:	00001742 	andeq	r1, r0, r2, asr #14
    1894:	55000b1e 	strpl	r0, [r0, #-2846]	; 0xfffff4e2
    1898:	1f000017 	svcne	0x00000017
    189c:	193f002e 	ldmdbne	pc!, {r1, r2, r3, r5}	; <UNPREDICTABLE>
    18a0:	0b3a0e03 	bleq	e850b4 <__bss_end__+0xe7a0a4>
    18a4:	0b390b3b 	bleq	e44598 <__bss_end__+0xe39588>
    18a8:	13491927 	movtne	r1, #39207	; 0x9927
    18ac:	06120111 			; <UNDEFINED> instruction: 0x06120111
    18b0:	42971840 	addsmi	r1, r7, #64, 16	; 0x400000
    18b4:	20000019 	andcs	r0, r0, r9, lsl r0
    18b8:	0e03012e 	adfeqsp	f0, f3, #0.5
    18bc:	0b3b0b3a 	bleq	ec45ac <__bss_end__+0xeb959c>
    18c0:	19270b39 	stmdbne	r7!, {r0, r3, r4, r5, r8, r9, fp}
    18c4:	0b201349 	bleq	8065f0 <__bss_end__+0x7fb5e0>
    18c8:	00001301 	andeq	r1, r0, r1, lsl #6
    18cc:	03000521 	movweq	r0, #1313	; 0x521
    18d0:	3b0b3a08 	blcc	2d00f8 <__bss_end__+0x2c50e8>
    18d4:	490b390b 	stmdbmi	fp, {r0, r1, r3, r8, fp, ip, sp}
    18d8:	22000013 	andcs	r0, r0, #19, 0
    18dc:	193f002e 	ldmdbne	pc!, {r1, r2, r3, r5}	; <UNPREDICTABLE>
    18e0:	0e6e193c 			; <UNDEFINED> instruction: 0x0e6e193c
    18e4:	0b3a0e03 	bleq	e850f8 <__bss_end__+0xe7a0e8>
    18e8:	0b390b3b 	bleq	e445dc <__bss_end__+0xe395cc>
    18ec:	01000000 	mrseq	r0, (UNDEF: 0)
    18f0:	0e250111 	mcreq	1, 1, r0, cr5, cr1, {0}
    18f4:	0e030b13 	vmoveq.32	d3[0], r0
    18f8:	01110e1b 	tsteq	r1, fp, lsl lr
    18fc:	17100612 			; <UNDEFINED> instruction: 0x17100612
    1900:	24020000 	strcs	r0, [r2], #-0
    1904:	3e0b0b00 	vmlacc.f64	d0, d11, d0
    1908:	000e030b 	andeq	r0, lr, fp, lsl #6
    190c:	00240300 	eoreq	r0, r4, r0, lsl #6
    1910:	0b3e0b0b 	bleq	f84544 <__bss_end__+0xf79534>
    1914:	00000803 	andeq	r0, r0, r3, lsl #16
    1918:	49002604 	stmdbmi	r0, {r2, r9, sl, sp}
    191c:	05000013 	streq	r0, [r0, #-19]	; 0xffffffed
    1920:	0e030016 	mcreq	0, 0, r0, cr3, cr6, {0}
    1924:	0b3b0b3a 	bleq	ec4614 <__bss_end__+0xeb9604>
    1928:	13490b39 	movtne	r0, #39737	; 0x9b39
    192c:	15060000 	strne	r0, [r6, #-0]
    1930:	49192701 	ldmdbmi	r9, {r0, r8, r9, sl, sp}
    1934:	00130113 	andseq	r0, r3, r3, lsl r1
    1938:	00050700 	andeq	r0, r5, r0, lsl #14
    193c:	00001349 	andeq	r1, r0, r9, asr #6
    1940:	03003408 	movweq	r3, #1032	; 0x408
    1944:	3b0b3a0e 	blcc	2d0184 <__bss_end__+0x2c5174>
    1948:	490b390b 	stmdbmi	fp, {r0, r1, r3, r8, fp, ip, sp}
    194c:	3c193f13 	ldccc	15, cr3, [r9], {19}
    1950:	09000019 	stmdbeq	r0, {r0, r3, r4}
    1954:	0b0b000f 	bleq	2c1998 <__bss_end__+0x2b6988>
    1958:	00001349 	andeq	r1, r0, r9, asr #6
    195c:	3e01040a 	cdpcc	4, 0, cr0, cr1, cr10, {0}
    1960:	490b0b0b 	stmdbmi	fp, {r0, r1, r3, r8, r9, fp}
    1964:	3b0b3a13 	blcc	2d01b8 <__bss_end__+0x2c51a8>
    1968:	010b390b 	tsteq	fp, fp, lsl #18
    196c:	0b000013 	bleq	19c0 <__code_start__-0x6640>
    1970:	0e030028 	cdpeq	0, 0, cr0, cr3, cr8, {1}
    1974:	00000b1c 	andeq	r0, r0, ip, lsl fp
    1978:	0300340c 	movweq	r3, #1036	; 0x40c
    197c:	3b0b3a0e 	blcc	2d01bc <__bss_end__+0x2c51ac>
    1980:	490b390b 	stmdbmi	fp, {r0, r1, r3, r8, fp, ip, sp}
    1984:	00061c13 	andeq	r1, r6, r3, lsl ip
    1988:	012e0d00 			; <UNDEFINED> instruction: 0x012e0d00
    198c:	0e03193f 			; <UNDEFINED> instruction: 0x0e03193f
    1990:	0b3b0b3a 	bleq	ec4680 <__bss_end__+0xeb9670>
    1994:	19270b39 	stmdbne	r7!, {r0, r3, r4, r5, r8, r9, fp}
    1998:	01111349 	tsteq	r1, r9, asr #6
    199c:	18400612 	stmdane	r0, {r1, r4, r9, sl}^
    19a0:	01194297 			; <UNDEFINED> instruction: 0x01194297
    19a4:	0e000013 	mcreq	0, 0, r0, cr0, cr3, {0}
    19a8:	08030005 	stmdaeq	r3, {r0, r2}
    19ac:	0b3b0b3a 	bleq	ec469c <__bss_end__+0xeb968c>
    19b0:	13490b39 	movtne	r0, #39737	; 0x9b39
    19b4:	42b71702 	adcsmi	r1, r7, #524288	; 0x80000
    19b8:	0f000017 	svceq	0x00000017
    19bc:	0e030034 	mcreq	0, 0, r0, cr3, cr4, {1}
    19c0:	0b3b0b3a 	bleq	ec46b0 <__bss_end__+0xeb96a0>
    19c4:	13490b39 	movtne	r0, #39737	; 0x9b39
    19c8:	42b71702 	adcsmi	r1, r7, #524288	; 0x80000
    19cc:	10000017 	andne	r0, r0, r7, lsl r0
    19d0:	08030034 	stmdaeq	r3, {r2, r4, r5}
    19d4:	0b3b0b3a 	bleq	ec46c4 <__bss_end__+0xeb96b4>
    19d8:	13490b39 	movtne	r0, #39737	; 0x9b39
    19dc:	42b71702 	adcsmi	r1, r7, #524288	; 0x80000
    19e0:	11000017 	tstne	r0, r7, lsl r0
    19e4:	01018289 	smlabbeq	r1, r9, r2, r8
    19e8:	13310111 	teqne	r1, #1073741828	; 0x40000004
    19ec:	8a120000 	bhi	4819f4 <__bss_end__+0x4769e4>
    19f0:	02000182 	andeq	r0, r0, #-2147483616	; 0x80000020
    19f4:	18429118 	stmdane	r2, {r3, r4, r8, ip, pc}^
    19f8:	2e130000 	cdpcs	0, 1, cr0, cr3, cr0, {0}
    19fc:	03193f01 	tsteq	r9, #1, 30
    1a00:	3b0b3a0e 	blcc	2d0240 <__bss_end__+0x2c5230>
    1a04:	270b390b 	strcs	r3, [fp, -fp, lsl #18]
    1a08:	12011119 	andne	r1, r1, #1073741830	; 0x40000006
    1a0c:	97184006 	ldrls	r4, [r8, -r6]
    1a10:	13011942 	movwne	r1, #6466	; 0x1942
    1a14:	1d140000 	ldcne	0, cr0, [r4, #-0]
    1a18:	52133101 	andspl	r3, r3, #1073741824	; 0x40000000
    1a1c:	0b42b801 	bleq	10afa28 <__bss_end__+0x10a4a18>
    1a20:	0b581755 	bleq	160777c <__bss_end__+0x15fc76c>
    1a24:	0b570b59 	bleq	15c4790 <__bss_end__+0x15b9780>
    1a28:	00001301 	andeq	r1, r0, r1, lsl #6
    1a2c:	31000515 	tstcc	r0, r5, lsl r5
    1a30:	b7170213 			; <UNDEFINED> instruction: 0xb7170213
    1a34:	00001742 	andeq	r1, r0, r2, asr #14
    1a38:	01828916 	orreq	r8, r2, r6, lsl r9
    1a3c:	95011101 	strls	r1, [r1, #-257]	; 0xfffffeff
    1a40:	13311942 	teqne	r1, #1081344	; 0x108000
    1a44:	1d170000 	ldcne	0, cr0, [r7, #-0]
    1a48:	52133101 	andspl	r3, r3, #1073741824	; 0x40000000
    1a4c:	0b42b801 	bleq	10afa58 <__bss_end__+0x10a4a48>
    1a50:	06120111 			; <UNDEFINED> instruction: 0x06120111
    1a54:	0b590b58 	bleq	16447bc <__bss_end__+0x16397ac>
    1a58:	00000b57 	andeq	r0, r0, r7, asr fp
    1a5c:	31011d18 	tstcc	r1, r8, lsl sp
    1a60:	b8015213 	stmdalt	r1, {r0, r1, r4, r9, ip, lr}
    1a64:	17550b42 	ldrbne	r0, [r5, -r2, asr #22]
    1a68:	0b590b58 	bleq	16447d0 <__bss_end__+0x16397c0>
    1a6c:	00000b57 	andeq	r0, r0, r7, asr fp
    1a70:	31000519 	tstcc	r0, r9, lsl r5
    1a74:	000b1c13 	andeq	r1, fp, r3, lsl ip
    1a78:	010b1a00 	tsteq	fp, r0, lsl #20
    1a7c:	00001755 	andeq	r1, r0, r5, asr r7
    1a80:	3100341b 	tstcc	r0, fp, lsl r4
    1a84:	1c000013 	stcne	0, cr0, [r0], {19}
    1a88:	13310034 	teqne	r1, #52, 0	; 0x34
    1a8c:	42b71702 	adcsmi	r1, r7, #524288	; 0x80000
    1a90:	1d000017 	stcne	0, cr0, [r0, #-92]	; 0xffffffa4
    1a94:	01018289 	smlabbeq	r1, r9, r2, r8
    1a98:	13310111 	teqne	r1, #1073741828	; 0x40000004
    1a9c:	00001301 	andeq	r1, r0, r1, lsl #6
    1aa0:	3f012e1e 	svccc	0x00012e1e
    1aa4:	3a0e0319 	bcc	382710 <__bss_end__+0x377700>
    1aa8:	390b3b0b 	stmdbcc	fp, {r0, r1, r3, r8, r9, fp, ip, sp}
    1aac:	2019270b 	andscs	r2, r9, fp, lsl #14
    1ab0:	0013010b 	andseq	r0, r3, fp, lsl #2
    1ab4:	00051f00 	andeq	r1, r5, r0, lsl #30
    1ab8:	0b3a0803 	bleq	e83acc <__bss_end__+0xe78abc>
    1abc:	0b390b3b 	bleq	e447b0 <__bss_end__+0xe397a0>
    1ac0:	00001349 	andeq	r1, r0, r9, asr #6
    1ac4:	03000520 	movweq	r0, #1312	; 0x520
    1ac8:	3b0b3a0e 	blcc	2d0308 <__bss_end__+0x2c52f8>
    1acc:	490b390b 	stmdbmi	fp, {r0, r1, r3, r8, fp, ip, sp}
    1ad0:	21000013 	tstcs	r0, r3, lsl r0
    1ad4:	08030034 	stmdaeq	r3, {r2, r4, r5}
    1ad8:	0b3b0b3a 	bleq	ec47c8 <__bss_end__+0xeb97b8>
    1adc:	13490b39 	movtne	r0, #39737	; 0x9b39
    1ae0:	2e220000 	cdpcs	0, 2, cr0, cr2, cr0, {0}
    1ae4:	3a0e0301 	bcc	3826f0 <__bss_end__+0x3776e0>
    1ae8:	390b3b0b 	stmdbcc	fp, {r0, r1, r3, r8, r9, fp, ip, sp}
    1aec:	4919270b 	ldmdbmi	r9, {r0, r1, r3, r8, r9, sl, sp}
    1af0:	010b2013 	tsteq	fp, r3, lsl r0
    1af4:	23000013 	movwcs	r0, #19
    1af8:	1331012e 	teqne	r1, #-2147483637	; 0x8000000b
    1afc:	06120111 			; <UNDEFINED> instruction: 0x06120111
    1b00:	42971840 	addsmi	r1, r7, #64, 16	; 0x400000
    1b04:	00130119 	andseq	r0, r3, r9, lsl r1
    1b08:	002e2400 	eoreq	r2, lr, r0, lsl #8
    1b0c:	193c193f 	ldmdbne	ip!, {r0, r1, r2, r3, r4, r5, r8, fp, ip}
    1b10:	0e030e6e 	cdpeq	14, 0, cr0, cr3, cr14, {3}
    1b14:	0b3b0b3a 	bleq	ec4804 <__bss_end__+0xeb97f4>
    1b18:	00000b39 	andeq	r0, r0, r9, lsr fp
    1b1c:	01110100 	tsteq	r1, r0, lsl #2
    1b20:	0b130e25 	bleq	4c53bc <__bss_end__+0x4ba3ac>
    1b24:	0e1b0e03 	cdpeq	14, 1, cr0, cr11, cr3, {0}
    1b28:	06120111 			; <UNDEFINED> instruction: 0x06120111
    1b2c:	00001710 	andeq	r1, r0, r0, lsl r7
    1b30:	0b002402 	bleq	ab40 <__FUNCTION__.4030+0x188>
    1b34:	030b3e0b 	movweq	r3, #48651	; 0xbe0b
    1b38:	03000008 	movweq	r0, #8
    1b3c:	0b0b0024 	bleq	2c1bd4 <__bss_end__+0x2b6bc4>
    1b40:	0e030b3e 	vmoveq.16	d3[0], r0
    1b44:	15040000 	strne	r0, [r4, #-0]
    1b48:	49192701 	ldmdbmi	r9, {r0, r8, r9, sl, sp}
    1b4c:	00130113 	andseq	r0, r3, r3, lsl r1
    1b50:	00050500 	andeq	r0, r5, r0, lsl #10
    1b54:	00001349 	andeq	r1, r0, r9, asr #6
    1b58:	03003406 	movweq	r3, #1030	; 0x406
    1b5c:	3b0b3a0e 	blcc	2d039c <__bss_end__+0x2c538c>
    1b60:	490b390b 	stmdbmi	fp, {r0, r1, r3, r8, fp, ip, sp}
    1b64:	3c193f13 	ldccc	15, cr3, [r9], {19}
    1b68:	07000019 	smladeq	r0, r9, r0, r0
    1b6c:	0b0b000f 	bleq	2c1bb0 <__bss_end__+0x2b6ba0>
    1b70:	00001349 	andeq	r1, r0, r9, asr #6
    1b74:	49002608 	stmdbmi	r0, {r3, r9, sl, sp}
    1b78:	09000013 	stmdbeq	r0, {r0, r1, r4}
    1b7c:	13470034 	movtne	r0, #28724	; 0x7034
    1b80:	0b3b0b3a 	bleq	ec4870 <__bss_end__+0xeb9860>
    1b84:	18020b39 	stmdane	r2, {r0, r3, r4, r5, r8, r9, fp}
    1b88:	2e0a0000 	cdpcs	0, 0, cr0, cr10, cr0, {0}
    1b8c:	03193f01 	tsteq	r9, #1, 30
    1b90:	3b0b3a0e 	blcc	2d03d0 <__bss_end__+0x2c53c0>
    1b94:	270b390b 	strcs	r3, [fp, -fp, lsl #18]
    1b98:	12011119 	andne	r1, r1, #1073741830	; 0x40000006
    1b9c:	97184006 	ldrls	r4, [r8, -r6]
    1ba0:	13011942 	movwne	r1, #6466	; 0x1942
    1ba4:	050b0000 	streq	r0, [fp, #-0]
    1ba8:	3a080300 	bcc	2027b0 <__bss_end__+0x1f77a0>
    1bac:	390b3b0b 	stmdbcc	fp, {r0, r1, r3, r8, r9, fp, ip, sp}
    1bb0:	0213490b 	andseq	r4, r3, #180224	; 0x2c000
    1bb4:	0c000018 	stceq	0, cr0, [r0], {24}
    1bb8:	193f002e 	ldmdbne	pc!, {r1, r2, r3, r5}	; <UNPREDICTABLE>
    1bbc:	0b3a0e03 	bleq	e853d0 <__bss_end__+0xe7a3c0>
    1bc0:	0b390b3b 	bleq	e448b4 <__bss_end__+0xe398a4>
    1bc4:	01111927 	tsteq	r1, r7, lsr #18
    1bc8:	18400612 	stmdane	r0, {r1, r4, r9, sl}^
    1bcc:	00194297 	mulseq	r9, r7, r2
    1bd0:	012e0d00 			; <UNDEFINED> instruction: 0x012e0d00
    1bd4:	0b3a0e03 	bleq	e853e8 <__bss_end__+0xe7a3d8>
    1bd8:	0b390b3b 	bleq	e448cc <__bss_end__+0xe398bc>
    1bdc:	13491927 	movtne	r1, #39207	; 0x9927
    1be0:	06120111 			; <UNDEFINED> instruction: 0x06120111
    1be4:	42971840 	addsmi	r1, r7, #64, 16	; 0x400000
    1be8:	00130119 	andseq	r0, r3, r9, lsl r1
    1bec:	00050e00 	andeq	r0, r5, r0, lsl #28
    1bf0:	0b3a0803 	bleq	e83c04 <__bss_end__+0xe78bf4>
    1bf4:	0b390b3b 	bleq	e448e8 <__bss_end__+0xe398d8>
    1bf8:	17021349 	strne	r1, [r2, -r9, asr #6]
    1bfc:	001742b7 			; <UNDEFINED> instruction: 0x001742b7
    1c00:	82890f00 	addhi	r0, r9, #0, 30
    1c04:	01110101 	tsteq	r1, r1, lsl #2
    1c08:	00001331 	andeq	r1, r0, r1, lsr r3
    1c0c:	01828a10 	orreq	r8, r2, r0, lsl sl
    1c10:	91180200 	tstls	r8, r0, lsl #4
    1c14:	00001842 	andeq	r1, r0, r2, asr #16
    1c18:	3f002e11 	svccc	0x00002e11
    1c1c:	6e193c19 	mrcvs	12, 0, r3, cr9, cr9, {0}
    1c20:	3a0e030e 	bcc	382860 <__bss_end__+0x377850>
    1c24:	390b3b0b 	stmdbcc	fp, {r0, r1, r3, r8, r9, fp, ip, sp}
    1c28:	0000000b 	andeq	r0, r0, fp
    1c2c:	25011101 	strcs	r1, [r1, #-257]	; 0xfffffeff
    1c30:	030b130e 	movweq	r1, #45838	; 0xb30e
    1c34:	110e1b0e 	tstne	lr, lr, lsl #22
    1c38:	10061201 	andne	r1, r6, r1, lsl #4
    1c3c:	02000017 	andeq	r0, r0, #23, 0
    1c40:	0b0b0024 	bleq	2c1cd8 <__bss_end__+0x2b6cc8>
    1c44:	08030b3e 	stmdaeq	r3, {r1, r2, r3, r4, r5, r8, r9, fp}
    1c48:	24030000 	strcs	r0, [r3], #-0
    1c4c:	3e0b0b00 	vmlacc.f64	d0, d11, d0
    1c50:	000e030b 	andeq	r0, lr, fp, lsl #6
    1c54:	01150400 	tsteq	r5, r0, lsl #8
    1c58:	13491927 	movtne	r1, #39207	; 0x9927
    1c5c:	00001301 	andeq	r1, r0, r1, lsl #6
    1c60:	49000505 	stmdbmi	r0, {r0, r2, r8, sl}
    1c64:	06000013 			; <UNDEFINED> instruction: 0x06000013
    1c68:	0e030034 	mcreq	0, 0, r0, cr3, cr4, {1}
    1c6c:	0b3b0b3a 	bleq	ec495c <__bss_end__+0xeb994c>
    1c70:	13490b39 	movtne	r0, #39737	; 0x9b39
    1c74:	193c193f 	ldmdbne	ip!, {r0, r1, r2, r3, r4, r5, r8, fp, ip}
    1c78:	0f070000 	svceq	0x00070000
    1c7c:	490b0b00 	stmdbmi	fp, {r8, r9, fp}
    1c80:	08000013 	stmdaeq	r0, {r0, r1, r4}
    1c84:	13490026 	movtne	r0, #36902	; 0x9026
    1c88:	2e090000 	cdpcs	0, 0, cr0, cr9, cr0, {0}
    1c8c:	03193f01 	tsteq	r9, #1, 30
    1c90:	3b0b3a0e 	blcc	2d04d0 <__bss_end__+0x2c54c0>
    1c94:	270b390b 	strcs	r3, [fp, -fp, lsl #18]
    1c98:	11134919 	tstne	r3, r9, lsl r9
    1c9c:	40061201 	andmi	r1, r6, r1, lsl #4
    1ca0:	19429718 	stmdbne	r2, {r3, r4, r8, r9, sl, ip, pc}^
    1ca4:	00001301 	andeq	r1, r0, r1, lsl #6
    1ca8:	0300050a 	movweq	r0, #1290	; 0x50a
    1cac:	3b0b3a0e 	blcc	2d04ec <__bss_end__+0x2c54dc>
    1cb0:	490b390b 	stmdbmi	fp, {r0, r1, r3, r8, fp, ip, sp}
    1cb4:	00180213 	andseq	r0, r8, r3, lsl r2
    1cb8:	00050b00 	andeq	r0, r5, r0, lsl #22
    1cbc:	0b3a0803 	bleq	e83cd0 <__bss_end__+0xe78cc0>
    1cc0:	0b390b3b 	bleq	e449b4 <__bss_end__+0xe399a4>
    1cc4:	17021349 	strne	r1, [r2, -r9, asr #6]
    1cc8:	001742b7 			; <UNDEFINED> instruction: 0x001742b7
    1ccc:	00340c00 	eorseq	r0, r4, r0, lsl #24
    1cd0:	0b3a0803 	bleq	e83ce4 <__bss_end__+0xe78cd4>
    1cd4:	0b390b3b 	bleq	e449c8 <__bss_end__+0xe399b8>
    1cd8:	17021349 	strne	r1, [r2, -r9, asr #6]
    1cdc:	001742b7 			; <UNDEFINED> instruction: 0x001742b7
    1ce0:	11010000 	mrsne	r0, (UNDEF: 1)
    1ce4:	130e2501 	movwne	r2, #58625	; 0xe501
    1ce8:	1b0e030b 	blne	38291c <__bss_end__+0x37790c>
    1cec:	1201110e 	andne	r1, r1, #-2147483645	; 0x80000003
    1cf0:	00171006 	andseq	r1, r7, r6
    1cf4:	00240200 	eoreq	r0, r4, r0, lsl #4
    1cf8:	0b3e0b0b 	bleq	f8492c <__bss_end__+0xf7991c>
    1cfc:	00000803 	andeq	r0, r0, r3, lsl #16
    1d00:	0b002403 	bleq	ad14 <buf.3944+0x108>
    1d04:	030b3e0b 	movweq	r3, #48651	; 0xbe0b
    1d08:	0400000e 	streq	r0, [r0], #-14
    1d0c:	19270115 	stmdbne	r7!, {r0, r2, r4, r8}
    1d10:	13011349 	movwne	r1, #4937	; 0x1349
    1d14:	05050000 	streq	r0, [r5, #-0]
    1d18:	00134900 	andseq	r4, r3, r0, lsl #18
    1d1c:	00340600 	eorseq	r0, r4, r0, lsl #12
    1d20:	0b3a0e03 	bleq	e85534 <__bss_end__+0xe7a524>
    1d24:	0b390b3b 	bleq	e44a18 <__bss_end__+0xe39a08>
    1d28:	193f1349 	ldmdbne	pc!, {r0, r3, r6, r8, r9, ip}	; <UNPREDICTABLE>
    1d2c:	0000193c 	andeq	r1, r0, ip, lsr r9
    1d30:	0b000f07 	bleq	5954 <__code_start__-0x26ac>
    1d34:	0013490b 	andseq	r4, r3, fp, lsl #18
    1d38:	00260800 	eoreq	r0, r6, r0, lsl #16
    1d3c:	00001349 	andeq	r1, r0, r9, asr #6
    1d40:	3f012e09 	svccc	0x00012e09
    1d44:	3a0e0319 	bcc	3829b0 <__bss_end__+0x3779a0>
    1d48:	390b3b0b 	stmdbcc	fp, {r0, r1, r3, r8, r9, fp, ip, sp}
    1d4c:	4919270b 	ldmdbmi	r9, {r0, r1, r3, r8, r9, sl, sp}
    1d50:	12011113 	andne	r1, r1, #-1073741820	; 0xc0000004
    1d54:	97184006 	ldrls	r4, [r8, -r6]
    1d58:	00001942 	andeq	r1, r0, r2, asr #18
    1d5c:	0300050a 	movweq	r0, #1290	; 0x50a
    1d60:	3b0b3a08 	blcc	2d0588 <__bss_end__+0x2c5578>
    1d64:	490b390b 	stmdbmi	fp, {r0, r1, r3, r8, fp, ip, sp}
    1d68:	b7170213 			; <UNDEFINED> instruction: 0xb7170213
    1d6c:	00001742 	andeq	r1, r0, r2, asr #14
    1d70:	01110100 	tsteq	r1, r0, lsl #2
    1d74:	0b130e25 	bleq	4c5610 <__bss_end__+0x4ba600>
    1d78:	0e1b0e03 	cdpeq	14, 1, cr0, cr11, cr3, {0}
    1d7c:	06120111 			; <UNDEFINED> instruction: 0x06120111
    1d80:	00001710 	andeq	r1, r0, r0, lsl r7
    1d84:	0b002402 	bleq	ad94 <buf.3944+0x188>
    1d88:	030b3e0b 	movweq	r3, #48651	; 0xbe0b
    1d8c:	03000008 	movweq	r0, #8
    1d90:	0b0b0024 	bleq	2c1e28 <__bss_end__+0x2b6e18>
    1d94:	0e030b3e 	vmoveq.16	d3[0], r0
    1d98:	15040000 	strne	r0, [r4, #-0]
    1d9c:	49192701 	ldmdbmi	r9, {r0, r8, r9, sl, sp}
    1da0:	00130113 	andseq	r0, r3, r3, lsl r1
    1da4:	00050500 	andeq	r0, r5, r0, lsl #10
    1da8:	00001349 	andeq	r1, r0, r9, asr #6
    1dac:	03003406 	movweq	r3, #1030	; 0x406
    1db0:	3b0b3a0e 	blcc	2d05f0 <__bss_end__+0x2c55e0>
    1db4:	490b390b 	stmdbmi	fp, {r0, r1, r3, r8, fp, ip, sp}
    1db8:	3c193f13 	ldccc	15, cr3, [r9], {19}
    1dbc:	07000019 	smladeq	r0, r9, r0, r0
    1dc0:	0b0b000f 	bleq	2c1e04 <__bss_end__+0x2b6df4>
    1dc4:	00001349 	andeq	r1, r0, r9, asr #6
    1dc8:	49002608 	stmdbmi	r0, {r3, r9, sl, sp}
    1dcc:	09000013 	stmdbeq	r0, {r0, r1, r4}
    1dd0:	193f012e 	ldmdbne	pc!, {r1, r2, r3, r5, r8}	; <UNPREDICTABLE>
    1dd4:	0b3a0e03 	bleq	e855e8 <__bss_end__+0xe7a5d8>
    1dd8:	0b390b3b 	bleq	e44acc <__bss_end__+0xe39abc>
    1ddc:	13491927 	movtne	r1, #39207	; 0x9927
    1de0:	06120111 			; <UNDEFINED> instruction: 0x06120111
    1de4:	42971840 	addsmi	r1, r7, #64, 16	; 0x400000
    1de8:	00130119 	andseq	r0, r3, r9, lsl r1
    1dec:	00050a00 	andeq	r0, r5, r0, lsl #20
    1df0:	0b3a0803 	bleq	e83e04 <__bss_end__+0xe78df4>
    1df4:	0b390b3b 	bleq	e44ae8 <__bss_end__+0xe39ad8>
    1df8:	18021349 	stmdane	r2, {r0, r3, r6, r8, r9, ip}
    1dfc:	050b0000 	streq	r0, [fp, #-0]
    1e00:	3a080300 	bcc	202a08 <__bss_end__+0x1f79f8>
    1e04:	390b3b0b 	stmdbcc	fp, {r0, r1, r3, r8, r9, fp, ip, sp}
    1e08:	0213490b 	andseq	r4, r3, #180224	; 0x2c000
    1e0c:	1742b717 	smlaldne	fp, r2, r7, r7
    1e10:	340c0000 	strcc	r0, [ip], #-0
    1e14:	3a080300 	bcc	202a1c <__bss_end__+0x1f7a0c>
    1e18:	390b3b0b 	stmdbcc	fp, {r0, r1, r3, r8, r9, fp, ip, sp}
    1e1c:	0213490b 	andseq	r4, r3, #180224	; 0x2c000
    1e20:	1742b717 	smlaldne	fp, r2, r7, r7
    1e24:	01000000 	mrseq	r0, (UNDEF: 0)
    1e28:	0e250111 	mcreq	1, 1, r0, cr5, cr1, {0}
    1e2c:	0e030b13 	vmoveq.32	d3[0], r0
    1e30:	01110e1b 	tsteq	r1, fp, lsl lr
    1e34:	17100612 			; <UNDEFINED> instruction: 0x17100612
    1e38:	24020000 	strcs	r0, [r2], #-0
    1e3c:	3e0b0b00 	vmlacc.f64	d0, d11, d0
    1e40:	0008030b 	andeq	r0, r8, fp, lsl #6
    1e44:	00160300 	andseq	r0, r6, r0, lsl #6
    1e48:	0b3a0e03 	bleq	e8565c <__bss_end__+0xe7a64c>
    1e4c:	0b390b3b 	bleq	e44b40 <__bss_end__+0xe39b30>
    1e50:	00001349 	andeq	r1, r0, r9, asr #6
    1e54:	0b002404 	bleq	ae6c <buf.3944+0x260>
    1e58:	030b3e0b 	movweq	r3, #48651	; 0xbe0b
    1e5c:	0500000e 	streq	r0, [r0, #-14]
    1e60:	13490026 	movtne	r0, #36902	; 0x9026
    1e64:	15060000 	strne	r0, [r6, #-0]
    1e68:	49192701 	ldmdbmi	r9, {r0, r8, r9, sl, sp}
    1e6c:	00130113 	andseq	r0, r3, r3, lsl r1
    1e70:	00050700 	andeq	r0, r5, r0, lsl #14
    1e74:	00001349 	andeq	r1, r0, r9, asr #6
    1e78:	03003408 	movweq	r3, #1032	; 0x408
    1e7c:	3b0b3a0e 	blcc	2d06bc <__bss_end__+0x2c56ac>
    1e80:	490b390b 	stmdbmi	fp, {r0, r1, r3, r8, fp, ip, sp}
    1e84:	3c193f13 	ldccc	15, cr3, [r9], {19}
    1e88:	09000019 	stmdbeq	r0, {r0, r3, r4}
    1e8c:	0b0b000f 	bleq	2c1ed0 <__bss_end__+0x2b6ec0>
    1e90:	00001349 	andeq	r1, r0, r9, asr #6
    1e94:	3f012e0a 	svccc	0x00012e0a
    1e98:	3a0e0319 	bcc	382b04 <__bss_end__+0x377af4>
    1e9c:	390b3b0b 	stmdbcc	fp, {r0, r1, r3, r8, r9, fp, ip, sp}
    1ea0:	4919270b 	ldmdbmi	r9, {r0, r1, r3, r8, r9, sl, sp}
    1ea4:	12011113 	andne	r1, r1, #-1073741820	; 0xc0000004
    1ea8:	97184006 	ldrls	r4, [r8, -r6]
    1eac:	13011942 	movwne	r1, #6466	; 0x1942
    1eb0:	050b0000 	streq	r0, [fp, #-0]
    1eb4:	3a080300 	bcc	202abc <__bss_end__+0x1f7aac>
    1eb8:	390b3b0b 	stmdbcc	fp, {r0, r1, r3, r8, r9, fp, ip, sp}
    1ebc:	0213490b 	andseq	r4, r3, #180224	; 0x2c000
    1ec0:	1742b717 	smlaldne	fp, r2, r7, r7
    1ec4:	340c0000 	strcc	r0, [ip], #-0
    1ec8:	3a080300 	bcc	202ad0 <__bss_end__+0x1f7ac0>
    1ecc:	390b3b0b 	stmdbcc	fp, {r0, r1, r3, r8, r9, fp, ip, sp}
    1ed0:	0213490b 	andseq	r4, r3, #180224	; 0x2c000
    1ed4:	1742b717 	smlaldne	fp, r2, r7, r7
    1ed8:	01000000 	mrseq	r0, (UNDEF: 0)
    1edc:	0e250111 	mcreq	1, 1, r0, cr5, cr1, {0}
    1ee0:	0e030b13 	vmoveq.32	d3[0], r0
    1ee4:	01110e1b 	tsteq	r1, fp, lsl lr
    1ee8:	17100612 			; <UNDEFINED> instruction: 0x17100612
    1eec:	24020000 	strcs	r0, [r2], #-0
    1ef0:	3e0b0b00 	vmlacc.f64	d0, d11, d0
    1ef4:	0008030b 	andeq	r0, r8, fp, lsl #6
    1ef8:	00240300 	eoreq	r0, r4, r0, lsl #6
    1efc:	0b3e0b0b 	bleq	f84b30 <__bss_end__+0xf79b20>
    1f00:	00000e03 	andeq	r0, r0, r3, lsl #28
    1f04:	27011504 	strcs	r1, [r1, -r4, lsl #10]
    1f08:	01134919 	tsteq	r3, r9, lsl r9
    1f0c:	05000013 	streq	r0, [r0, #-19]	; 0xffffffed
    1f10:	13490005 	movtne	r0, #36869	; 0x9005
    1f14:	34060000 	strcc	r0, [r6], #-0
    1f18:	3a0e0300 	bcc	382b20 <__bss_end__+0x377b10>
    1f1c:	390b3b0b 	stmdbcc	fp, {r0, r1, r3, r8, r9, fp, ip, sp}
    1f20:	3f13490b 	svccc	0x0013490b
    1f24:	00193c19 	andseq	r3, r9, r9, lsl ip
    1f28:	000f0700 	andeq	r0, pc, r0, lsl #14
    1f2c:	13490b0b 	movtne	r0, #39691	; 0x9b0b
    1f30:	26080000 	strcs	r0, [r8], -r0
    1f34:	00134900 	andseq	r4, r3, r0, lsl #18
    1f38:	002e0900 	eoreq	r0, lr, r0, lsl #18
    1f3c:	0e03193f 			; <UNDEFINED> instruction: 0x0e03193f
    1f40:	0b3b0b3a 	bleq	ec4c30 <__bss_end__+0xeb9c20>
    1f44:	19270b39 	stmdbne	r7!, {r0, r3, r4, r5, r8, r9, fp}
    1f48:	06120111 			; <UNDEFINED> instruction: 0x06120111
    1f4c:	42971840 	addsmi	r1, r7, #64, 16	; 0x400000
    1f50:	00000019 	andeq	r0, r0, r9, lsl r0

Disassembly of section .debug_loc:

00000000 <.debug_loc>:
       0:	00000000 	andeq	r0, r0, r0
       4:	00000044 	andeq	r0, r0, r4, asr #32
       8:	00000047 	andeq	r0, r0, r7, asr #32
       c:	47500001 	ldrbmi	r0, [r0, -r1]
      10:	f8000000 			; <UNDEFINED> instruction: 0xf8000000
      14:	01000000 	mrseq	r0, (UNDEF: 0)
      18:	00005700 	andeq	r5, r0, r0, lsl #14
	...
      24:	00700000 	rsbseq	r0, r0, r0
      28:	008c0000 	addeq	r0, ip, r0
      2c:	00010000 	andeq	r0, r1, r0
      30:	00008c50 	andeq	r8, r0, r0, asr ip
      34:	0000f800 	andeq	pc, r0, r0, lsl #16
      38:	56000100 	strpl	r0, [r0], -r0, lsl #2
	...
      44:	00140000 	andseq	r0, r4, r0
      48:	002c0000 	eoreq	r0, ip, r0
      4c:	00020000 	andeq	r0, r2, r0
      50:	00009f38 	andeq	r9, r0, r8, lsr pc
	...
      5c:	00000014 	andeq	r0, r0, r4, lsl r0
      60:	0000002c 	andeq	r0, r0, ip, lsr #32
      64:	59f20006 	ldmibpl	r2!, {r1, r2}^
      68:	00000003 	andeq	r0, r0, r3
	...
      74:	00140000 	andseq	r0, r4, r0
      78:	002c0000 	eoreq	r0, ip, r0
      7c:	00060000 	andeq	r0, r6, r0
      80:	00a32003 	adceq	r2, r3, r3
      84:	00009f00 	andeq	r9, r0, r0, lsl #30
	...
      90:	00000048 	andeq	r0, r0, r8, asr #32
      94:	00000058 	andeq	r0, r0, r8, asr r0
      98:	9f390002 	svcls	0x00390002
	...
      a4:	00480000 	subeq	r0, r8, r0
      a8:	00580000 	subseq	r0, r8, r0
      ac:	00060000 	andeq	r0, r6, r0
      b0:	000359f2 	strdeq	r5, [r3], -r2
	...
      c0:	00000048 	andeq	r0, r0, r8, asr #32
      c4:	00000058 	andeq	r0, r0, r8, asr r0
      c8:	20030006 	andcs	r0, r3, r6
      cc:	9f0000a3 	svcls	0x000000a3
	...
      d8:	00700001 	rsbseq	r0, r0, r1
      dc:	00800000 	addeq	r0, r0, r0
      e0:	00020000 	andeq	r0, r2, r0
      e4:	00009f3a 	andeq	r9, r0, sl, lsr pc
      e8:	00000000 	andeq	r0, r0, r0
      ec:	00010000 	andeq	r0, r1, r0
      f0:	00000070 	andeq	r0, r0, r0, ror r0
      f4:	00000080 	andeq	r0, r0, r0, lsl #1
      f8:	59f20006 	ldmibpl	r2!, {r1, r2}^
      fc:	00000003 	andeq	r0, r0, r3
	...
     108:	00700001 	rsbseq	r0, r0, r1
     10c:	00800000 	addeq	r0, r0, r0
     110:	00060000 	andeq	r0, r6, r0
     114:	00a32003 	adceq	r2, r3, r3
     118:	00009f00 	andeq	r9, r0, r0, lsl #30
     11c:	00000000 	andeq	r0, r0, r0
     120:	00010000 	andeq	r0, r1, r0
     124:	00000090 	muleq	r0, r0, r0
     128:	000000a0 	andeq	r0, r0, r0, lsr #1
     12c:	9f3b0002 	svcls	0x003b0002
	...
     138:	00900001 	addseq	r0, r0, r1
     13c:	00a00000 	adceq	r0, r0, r0
     140:	00060000 	andeq	r0, r6, r0
     144:	000359f2 	strdeq	r5, [r3], -r2
	...
     150:	00010000 	andeq	r0, r1, r0
     154:	00000090 	muleq	r0, r0, r0
     158:	000000a0 	andeq	r0, r0, r0, lsr #1
     15c:	20030006 	andcs	r0, r3, r6
     160:	9f0000a3 	svcls	0x000000a3
	...
     170:	02500000 	subseq	r0, r0, #0, 0
     174:	02600000 	rsbeq	r0, r0, #0, 0
     178:	00010000 	andeq	r0, r1, r0
     17c:	00026050 	andeq	r6, r2, r0, asr r0
     180:	00030000 	andeq	r0, r3, r0
     184:	55000100 	strpl	r0, [r0, #-256]	; 0xffffff00
     188:	00000300 	andeq	r0, r0, r0, lsl #6
     18c:	0000030c 	andeq	r0, r0, ip, lsl #6
     190:	01f30004 	mvnseq	r0, r4
     194:	00009f50 	andeq	r9, r0, r0, asr pc
	...
     1a4:	00000270 	andeq	r0, r0, r0, ror r2
     1a8:	0000027b 	andeq	r0, r0, fp, ror r2
     1ac:	7b500001 	blvc	14001b8 <__bss_end__+0x13f51a8>
     1b0:	00000002 	andeq	r0, r0, r2
     1b4:	01000003 	tsteq	r0, r3
     1b8:	03005400 	movweq	r5, #1024	; 0x400
     1bc:	030c0000 	movweq	r0, #49152	; 0xc000
     1c0:	00050000 	andeq	r0, r5, r0
     1c4:	00abe803 	adceq	lr, fp, r3, lsl #16
	...
     1d0:	7c000200 	sfmvc	f0, 4, [r0], {-0}
     1d4:	90000002 	andls	r0, r0, r2
     1d8:	02000002 	andeq	r0, r0, #2, 0
     1dc:	009f3000 	addseq	r3, pc, r0
	...
     1e8:	b4000000 	strlt	r0, [r0], #-0
     1ec:	c4000000 	strgt	r0, [r0], #-0
     1f0:	01000000 	mrseq	r0, (UNDEF: 0)
     1f4:	00c45000 	sbceq	r5, r4, r0
     1f8:	02500000 	subseq	r0, r0, #0, 0
     1fc:	00010000 	andeq	r0, r1, r0
     200:	00000054 	andeq	r0, r0, r4, asr r0
	...
     210:	0000cc00 	andeq	ip, r0, r0, lsl #24
     214:	0000d000 	andeq	sp, r0, r0
     218:	57000500 	strpl	r0, [r0, -r0, lsl #10]
     21c:	08930493 	ldmeq	r3, {r0, r1, r4, r7, sl}
     220:	000000d0 	ldrdeq	r0, [r0], -r0	; <UNPREDICTABLE>
     224:	000000d4 	ldrdeq	r0, [r0], -r4
     228:	93570008 	cmpls	r7, #8, 0
     22c:	04935604 	ldreq	r5, [r3], #1540	; 0x604
     230:	00d40493 	smullseq	r0, r4, r3, r4
     234:	01a40000 			; <UNDEFINED> instruction: 0x01a40000
     238:	00090000 	andeq	r0, r9, r0
     23c:	56049357 			; <UNDEFINED> instruction: 0x56049357
     240:	93550493 	cmpls	r5, #-1828716544	; 0x93000000
     244:	0001a404 	andeq	sl, r1, r4, lsl #8
     248:	00025000 	andeq	r5, r2, r0
     24c:	57000900 	strpl	r0, [r0, -r0, lsl #18]
     250:	93560493 	cmpls	r6, #-1828716544	; 0x93000000
     254:	04935504 	ldreq	r5, [r3], #1284	; 0x504
	...
     260:	00020201 	andeq	r0, r2, r1, lsl #4
     264:	000000d4 	ldrdeq	r0, [r0], -r4
     268:	000000d4 	ldrdeq	r0, [r0], -r4
     26c:	d4540001 	ldrble	r0, [r4], #-1
     270:	50000000 	andpl	r0, r0, r0
     274:	04000002 	streq	r0, [r0], #-2
     278:	7ecc7400 	cdpvc	4, 12, cr7, cr12, cr0, {0}
     27c:	0000009f 	muleq	r0, pc, r0	; <UNPREDICTABLE>
	...
     288:	01010000 	mrseq	r0, (UNDEF: 1)
     28c:	00014c00 	andeq	r4, r1, r0, lsl #24
     290:	00015c00 	andeq	r5, r1, r0, lsl #24
     294:	30000200 	andcc	r0, r0, r0, lsl #4
     298:	00015c9f 	muleq	r1, pc, ip	; <UNPREDICTABLE>
     29c:	00016400 	andeq	r6, r1, r0, lsl #8
     2a0:	72000800 	andvc	r0, r0, #0, 16
     2a4:	1c007400 	cfstrsne	mvf7, [r0], {-0}
     2a8:	649f0123 	ldrvs	r0, [pc], #291	; 2b0 <__code_start__-0x7d50>
     2ac:	64000001 	strvs	r0, [r0], #-1
     2b0:	08000001 	stmdaeq	r0, {r0}
     2b4:	74007300 	strvc	r7, [r0], #-768	; 0xfffffd00
     2b8:	01231c00 			; <UNDEFINED> instruction: 0x01231c00
     2bc:	0001649f 	muleq	r1, pc, r4	; <UNPREDICTABLE>
     2c0:	00017800 	andeq	r7, r1, r0, lsl #16
     2c4:	72000800 	andvc	r0, r0, #0, 16
     2c8:	1c007400 	cfstrsne	mvf7, [r0], {-0}
     2cc:	009f0123 	addseq	r0, pc, r3, lsr #2
	...
     2d8:	58000000 	stmdapl	r0, {}	; <UNPREDICTABLE>
     2dc:	70000000 	andvc	r0, r0, r0
     2e0:	01000000 	mrseq	r0, (UNDEF: 0)
     2e4:	00705000 	rsbseq	r5, r0, r0
     2e8:	00b40000 	adcseq	r0, r4, r0
     2ec:	00010000 	andeq	r0, r1, r0
     2f0:	00000055 	andeq	r0, r0, r5, asr r0
     2f4:	00000000 	andeq	r0, r0, r0
     2f8:	68000000 	stmdavs	r0, {}	; <UNPREDICTABLE>
     2fc:	b4000000 	strlt	r0, [r0], #-0
     300:	01000000 	mrseq	r0, (UNDEF: 0)
     304:	00005400 	andeq	r5, r0, r0, lsl #8
     308:	00000000 	andeq	r0, r0, r0
     30c:	00010000 	andeq	r0, r1, r0
     310:	00000084 	andeq	r0, r0, r4, lsl #1
     314:	00000088 	andeq	r0, r0, r8, lsl #1
     318:	00540001 	subseq	r0, r4, r1
	...
     328:	00003400 	andeq	r3, r0, r0, lsl #8
     32c:	00004400 	andeq	r4, r0, r0, lsl #8
     330:	50000100 	andpl	r0, r0, r0, lsl #2
     334:	00000044 	andeq	r0, r0, r4, asr #32
     338:	00000050 	andeq	r0, r0, r0, asr r0
     33c:	cc700004 	ldclgt	0, cr0, [r0], #-16
     340:	00509f7e 	subseq	r9, r0, lr, ror pc
     344:	00580000 	subseq	r0, r8, r0
     348:	00040000 	andeq	r0, r4, r0
     34c:	9f5001f3 	svcls	0x005001f3
	...
     358:	00000004 	andeq	r0, r0, r4
     35c:	00340000 	eorseq	r0, r4, r0
     360:	00440000 	subeq	r0, r4, r0
     364:	00040000 	andeq	r0, r4, r0
     368:	9f01b470 	svcls	0x0001b470
     36c:	00000044 	andeq	r0, r0, r4, asr #32
     370:	00000050 	andeq	r0, r0, r0, asr r0
     374:	50500001 	subspl	r0, r0, r1
     378:	58000000 	stmdapl	r0, {}	; <UNPREDICTABLE>
     37c:	07000000 	streq	r0, [r0, -r0]
     380:	5001f300 	andpl	pc, r1, r0, lsl #6
     384:	9f01b423 	svcls	0x0001b423
	...
     390:	0000000c 	andeq	r0, r0, ip
     394:	00340000 	eorseq	r0, r4, r0
     398:	00440000 	subeq	r0, r4, r0
     39c:	000a0000 	andeq	r0, sl, r0
     3a0:	04700070 	ldrbteq	r0, [r0], #-112	; 0xffffff90
     3a4:	b4232206 	strtlt	r2, [r3], #-518	; 0xfffffdfa
     3a8:	00449f01 	subeq	r9, r4, r1, lsl #30
     3ac:	00500000 	subseq	r0, r0, r0
     3b0:	00080000 	andeq	r0, r8, r0
     3b4:	d0700070 	rsbsle	r0, r0, r0, ror r0
     3b8:	9f22067e 	svcls	0x0022067e
     3bc:	00000050 	andeq	r0, r0, r0, asr r0
     3c0:	00000058 	andeq	r0, r0, r8, asr r0
     3c4:	01f3000e 	mvnseq	r0, lr
     3c8:	5001f350 	andpl	pc, r1, r0, asr r3	; <UNPREDICTABLE>
     3cc:	22060423 	andcs	r0, r6, #587202560	; 0x23000000
     3d0:	9f01b423 	svcls	0x0001b423
	...
     3dc:	00340402 	eorseq	r0, r4, r2, lsl #8
     3e0:	00340000 	eorseq	r0, r4, r0
     3e4:	00010000 	andeq	r0, r1, r0
     3e8:	00000050 	andeq	r0, r0, r0, asr r0
     3ec:	00000000 	andeq	r0, r0, r0
     3f0:	340c0600 	strcc	r0, [ip], #-1536	; 0xfffffa00
     3f4:	34000000 	strcc	r0, [r0], #-0
     3f8:	01000000 	mrseq	r0, (UNDEF: 0)
     3fc:	00005000 	andeq	r5, r0, r0
     400:	00000000 	andeq	r0, r0, r0
     404:	0c0a0000 	stceq	0, cr0, [sl], {-0}
     408:	00000034 	andeq	r0, r0, r4, lsr r0
     40c:	00000034 	andeq	r0, r0, r4, lsr r0
     410:	00500001 	subseq	r0, r0, r1
	...
     41c:	10000000 	andne	r0, r0, r0
     420:	18000000 	stmdane	r0, {}	; <UNPREDICTABLE>
     424:	01000000 	mrseq	r0, (UNDEF: 0)
     428:	00185000 	andseq	r5, r8, r0
     42c:	001c0000 	andseq	r0, ip, r0
     430:	00040000 	andeq	r0, r4, r0
     434:	9f5001f3 	svcls	0x005001f3
	...
     444:	0000001c 	andeq	r0, r0, ip, lsl r0
     448:	00000020 	andeq	r0, r0, r0, lsr #32
     44c:	20500001 	subscs	r0, r0, r1
     450:	24000000 	strcs	r0, [r0], #-0
     454:	04000000 	streq	r0, [r0], #-0
     458:	7ecc7000 	cdpvc	0, 12, cr7, cr12, cr0, {0}
     45c:	0000009f 	muleq	r0, pc, r0	; <UNPREDICTABLE>
	...
     468:	00002400 	andeq	r2, r0, r0, lsl #8
     46c:	00003000 	andeq	r3, r0, r0
     470:	50000100 	andpl	r0, r0, r0, lsl #2
     474:	00000030 	andeq	r0, r0, r0, lsr r0
     478:	00000034 	andeq	r0, r0, r4, lsr r0
     47c:	01f30004 	mvnseq	r0, r4
     480:	00009f50 	andeq	r9, r0, r0, asr pc
     484:	00000000 	andeq	r0, r0, r0
     488:	05030000 	streq	r0, [r3, #-0]
     48c:	00000024 	andeq	r0, r0, r4, lsr #32
     490:	00000024 	andeq	r0, r0, r4, lsr #32
     494:	00500001 	subseq	r0, r0, r1
	...
     4a0:	08000000 	stmdaeq	r0, {}	; <UNPREDICTABLE>
     4a4:	80000000 	andhi	r0, r0, r0
     4a8:	01000000 	mrseq	r0, (UNDEF: 0)
     4ac:	00805100 	addeq	r5, r0, r0, lsl #2
     4b0:	00a40000 	adceq	r0, r4, r0
     4b4:	00030000 	andeq	r0, r3, r0
     4b8:	009f7870 	addseq	r7, pc, r0, ror r8	; <UNPREDICTABLE>
	...
     4c4:	00001000 	andeq	r1, r0, r0
     4c8:	0000a400 	andeq	sl, r0, r0, lsl #8
     4cc:	53000100 	movwpl	r0, #256	; 0x100
	...
     4dc:	000000a4 	andeq	r0, r0, r4, lsr #1
     4e0:	000000bc 	strheq	r0, [r0], -ip
     4e4:	bc500001 	mrrclt	0, 0, r0, r0, cr1	; <UNPREDICTABLE>
     4e8:	90000000 	andls	r0, r0, r0
     4ec:	04000001 	streq	r0, [r0], #-1
     4f0:	5001f300 	andpl	pc, r1, r0, lsl #6
     4f4:	0000009f 	muleq	r0, pc, r0	; <UNPREDICTABLE>
     4f8:	00000000 	andeq	r0, r0, r0
     4fc:	01000000 	mrseq	r0, (UNDEF: 0)
     500:	01010000 	mrseq	r0, (UNDEF: 1)
     504:	00000000 	andeq	r0, r0, r0
     508:	0000c800 	andeq	ip, r0, r0, lsl #16
     50c:	0000d400 	andeq	sp, r0, r0, lsl #8
     510:	53000100 	movwpl	r0, #256	; 0x100
     514:	000000fc 	strdeq	r0, [r0], -ip
     518:	00000100 	andeq	r0, r0, r0, lsl #2
     51c:	f8030006 			; <UNDEFINED> instruction: 0xf8030006
     520:	9f0000ab 	svcls	0x000000ab
     524:	00000100 	andeq	r0, r0, r0, lsl #2
     528:	00000114 	andeq	r0, r0, r4, lsl r1
     52c:	14530001 	ldrbne	r0, [r3], #-1
     530:	18000001 	stmdane	r0, {r0}
     534:	08000001 	stmdaeq	r0, {r0}
     538:	33007200 	movwcc	r7, #512	; 0x200
     53c:	22007324 	andcs	r7, r0, #36, 6	; 0x90000000
     540:	00013c9f 	muleq	r1, pc, ip	; <UNPREDICTABLE>
     544:	00014800 	andeq	r4, r1, r0, lsl #16
     548:	50000100 	andpl	r0, r0, r0, lsl #2
     54c:	00000148 	andeq	r0, r0, r8, asr #2
     550:	00000154 	andeq	r0, r0, r4, asr r1
     554:	00530001 	subseq	r0, r3, r1
	...
     560:	02020000 	andeq	r0, r2, #0, 0
     564:	bc000100 	stflts	f0, [r0], {-0}
     568:	d4000000 	strle	r0, [r0], #-0
     56c:	01000000 	mrseq	r0, (UNDEF: 0)
     570:	00e45000 	rsceq	r5, r4, r0
     574:	00e40000 	rsceq	r0, r4, r0
     578:	00010000 	andeq	r0, r1, r0
     57c:	0000e450 	andeq	lr, r0, r0, asr r4
     580:	00010000 	andeq	r0, r1, r0
     584:	03000600 	movweq	r0, #1536	; 0x600
     588:	0000abf8 	strdeq	sl, [r0], -r8
     58c:	0001449f 	muleq	r1, pc, r4	; <UNPREDICTABLE>
     590:	00015400 	andeq	r5, r1, r0, lsl #8
     594:	50000100 	andpl	r0, r0, r0, lsl #2
	...
     5a0:	00b40000 	adcseq	r0, r4, r0
     5a4:	01900000 	orrseq	r0, r0, r0
     5a8:	00010000 	andeq	r0, r1, r0
     5ac:	00000054 	andeq	r0, r0, r4, asr r0
     5b0:	00000000 	andeq	r0, r0, r0
     5b4:	01000000 	mrseq	r0, (UNDEF: 0)
     5b8:	00012c00 	andeq	r2, r1, r0, lsl #24
     5bc:	00013c00 	andeq	r3, r1, r0, lsl #24
     5c0:	0a000400 	beq	15c8 <__code_start__-0x6a38>
     5c4:	649f8000 	ldrvs	r8, [pc], #0	; 5cc <__code_start__-0x7a34>
     5c8:	84000001 	strhi	r0, [r0], #-1
     5cc:	04000001 	streq	r0, [r0], #-1
     5d0:	80000a00 	andhi	r0, r0, r0, lsl #20
     5d4:	0000009f 	muleq	r0, pc, r0	; <UNPREDICTABLE>
	...
     5e0:	2c000000 	stccs	0, cr0, [r0], {-0}
     5e4:	34000001 	strcc	r0, [r0], #-1
     5e8:	01000001 	tsteq	r0, r1
     5ec:	01345000 	teqeq	r4, r0
     5f0:	01370000 	teqeq	r7, r0
     5f4:	00030000 	andeq	r0, r3, r0
     5f8:	789f7870 	ldmvc	pc, {r4, r5, r6, fp, ip, sp, lr}	; <UNPREDICTABLE>
     5fc:	84000001 	strhi	r0, [r0], #-1
     600:	01000001 	tsteq	r0, r1
     604:	00005000 	andeq	r5, r0, r0
     608:	00000000 	andeq	r0, r0, r0
     60c:	00010000 	andeq	r0, r1, r0
     610:	012c0000 			; <UNDEFINED> instruction: 0x012c0000
     614:	01340000 	teqeq	r4, r0
     618:	00010000 	andeq	r0, r1, r0
     61c:	00013450 	andeq	r3, r1, r0, asr r4
     620:	00013700 	andeq	r3, r1, r0, lsl #14
     624:	70000300 	andvc	r0, r0, r0, lsl #6
     628:	00009f78 	andeq	r9, r0, r8, ror pc
	...
     634:	00000690 	muleq	r0, r0, r6
     638:	00000694 	muleq	r0, r4, r6
     63c:	00500001 	subseq	r0, r0, r1
     640:	00000000 	andeq	r0, r0, r0
     644:	01000000 	mrseq	r0, (UNDEF: 0)
     648:	6c000000 	stcvs	0, cr0, [r0], {-0}
     64c:	98000003 	stmdals	r0, {r0, r1}
     650:	02000003 	andeq	r0, r0, #3, 0
     654:	989f3000 	ldmls	pc, {ip, sp}	; <UNPREDICTABLE>
     658:	24000003 	strcs	r0, [r0], #-3
     65c:	01000004 	tsteq	r0, r4
     660:	00005500 	andeq	r5, r0, r0, lsl #10
     664:	00000000 	andeq	r0, r0, r0
     668:	00010000 	andeq	r0, r1, r0
     66c:	036c0000 	cmneq	ip, #0, 0
     670:	03980000 	orrseq	r0, r8, #0, 0
     674:	00020000 	andeq	r0, r2, r0
     678:	03989f30 	orrseq	r9, r8, #48, 30	; 0xc0
     67c:	04240000 	strteq	r0, [r4], #-0
     680:	00010000 	andeq	r0, r1, r0
     684:	00000058 	andeq	r0, r0, r8, asr r0
     688:	00000000 	andeq	r0, r0, r0
     68c:	00000100 	andeq	r0, r0, r0, lsl #2
     690:	6c000000 	stcvs	0, cr0, [r0], {-0}
     694:	98000003 	stmdals	r0, {r0, r1}
     698:	02000003 	andeq	r0, r0, #3, 0
     69c:	989f3000 	ldmls	pc, {ip, sp}	; <UNPREDICTABLE>
     6a0:	24000003 	strcs	r0, [r0], #-3
     6a4:	01000004 	tsteq	r0, r4
     6a8:	04245700 	strteq	r5, [r4], #-1792	; 0xfffff900
     6ac:	04400000 	strbeq	r0, [r0], #-0
     6b0:	00010000 	andeq	r0, r1, r0
     6b4:	00000050 	andeq	r0, r0, r0, asr r0
	...
     6c4:	00038800 	andeq	r8, r3, r0, lsl #16
     6c8:	0003cc00 	andeq	ip, r3, r0, lsl #24
     6cc:	50000100 	andpl	r0, r0, r0, lsl #2
     6d0:	000003cc 	andeq	r0, r0, ip, asr #7
     6d4:	000003e8 	andeq	r0, r0, r8, ror #7
     6d8:	e8540001 	ldmda	r4, {r0}^
     6dc:	14000003 	strne	r0, [r0], #-3
     6e0:	01000004 	tsteq	r0, r4
     6e4:	04145000 	ldreq	r5, [r4], #-0
     6e8:	04240000 	strteq	r0, [r4], #-0
     6ec:	00010000 	andeq	r0, r1, r0
     6f0:	00000054 	andeq	r0, r0, r4, asr r0
     6f4:	00000000 	andeq	r0, r0, r0
     6f8:	a8000000 	stmdage	r0, {}	; <UNPREDICTABLE>
     6fc:	c0000003 	andgt	r0, r0, r3
     700:	04000003 	streq	r0, [r0], #-3
     704:	011e0a00 	tsteq	lr, r0, lsl #20
     708:	0000009f 	muleq	r0, pc, r0	; <UNPREDICTABLE>
     70c:	00000000 	andeq	r0, r0, r0
     710:	a8000000 	stmdage	r0, {}	; <UNPREDICTABLE>
     714:	c0000003 	andgt	r0, r0, r3
     718:	06000003 	streq	r0, [r0], -r3
     71c:	1d0af200 	sfmne	f7, 1, [sl, #-0]
	...
     72c:	0003a800 	andeq	sl, r3, r0, lsl #16
     730:	0003c000 	andeq	ip, r3, r0
     734:	03000600 	movweq	r0, #1536	; 0x600
     738:	0000a4b0 			; <UNDEFINED> instruction: 0x0000a4b0
     73c:	0000009f 	muleq	r0, pc, r0	; <UNPREDICTABLE>
	...
     748:	40000000 	andmi	r0, r0, r0
     74c:	50000006 	andpl	r0, r0, r6
     750:	01000006 	tsteq	r0, r6
     754:	06505000 	ldrbeq	r5, [r0], -r0
     758:	06530000 	ldrbeq	r0, [r3], -r0
     75c:	00010000 	andeq	r0, r1, r0
     760:	00065351 	andeq	r5, r6, r1, asr r3
     764:	00068400 	andeq	r8, r6, r0, lsl #8
     768:	54000100 	strpl	r0, [r0], #-256	; 0xffffff00
	...
     778:	000005e0 	andeq	r0, r0, r0, ror #11
     77c:	000005e7 	andeq	r0, r0, r7, ror #11
     780:	e7500001 	ldrb	r0, [r0, -r1]
     784:	ec000005 	stc	0, cr0, [r0], {5}
     788:	04000005 	streq	r0, [r0], #-5
     78c:	5001f300 	andpl	pc, r1, r0, lsl #6
     790:	0000009f 	muleq	r0, pc, r0	; <UNPREDICTABLE>
	...
     79c:	00027000 	andeq	r7, r2, r0
     7a0:	00027c00 	andeq	r7, r2, r0, lsl #24
     7a4:	50000100 	andpl	r0, r0, r0, lsl #2
     7a8:	0000027c 	andeq	r0, r0, ip, ror r2
     7ac:	00000364 	andeq	r0, r0, r4, ror #6
     7b0:	00580001 	subseq	r0, r8, r1
     7b4:	00000000 	andeq	r0, r0, r0
     7b8:	01000000 	mrseq	r0, (UNDEF: 0)
     7bc:	78000000 	stmdavc	r0, {}	; <UNPREDICTABLE>
     7c0:	a4000002 	strge	r0, [r0], #-2
     7c4:	02000002 	andeq	r0, r0, #2, 0
     7c8:	a49f3000 	ldrge	r3, [pc], #0	; 7d0 <__code_start__-0x7830>
     7cc:	64000002 	strvs	r0, [r0], #-2
     7d0:	01000003 	tsteq	r0, r3
     7d4:	00005500 	andeq	r5, r0, r0, lsl #10
     7d8:	00000000 	andeq	r0, r0, r0
     7dc:	00010000 	andeq	r0, r1, r0
     7e0:	00000000 	andeq	r0, r0, r0
     7e4:	00000278 	andeq	r0, r0, r8, ror r2
     7e8:	000002a4 	andeq	r0, r0, r4, lsr #5
     7ec:	9f300002 	svcls	0x00300002
     7f0:	000002a4 	andeq	r0, r0, r4, lsr #5
     7f4:	00000328 	andeq	r0, r0, r8, lsr #6
     7f8:	30560001 	subscc	r0, r6, r1
     7fc:	64000003 	strvs	r0, [r0], #-3
     800:	01000003 	tsteq	r0, r3
     804:	00005600 	andeq	r5, r0, r0, lsl #12
     808:	00000000 	andeq	r0, r0, r0
     80c:	00010000 	andeq	r0, r1, r0
     810:	02780000 	rsbseq	r0, r8, #0, 0
     814:	02a40000 	adceq	r0, r4, #0, 0
     818:	00020000 	andeq	r0, r2, r0
     81c:	02a49f30 	adceq	r9, r4, #48, 30	; 0xc0
     820:	03640000 	cmneq	r4, #0, 0
     824:	00010000 	andeq	r0, r1, r0
     828:	00000057 	andeq	r0, r0, r7, asr r0
	...
     83c:	94000000 	strls	r0, [r0], #-0
     840:	b4000002 	strlt	r0, [r0], #-2
     844:	01000002 	tsteq	r0, r2
     848:	02b45000 	adcseq	r5, r4, #0, 0
     84c:	02c40000 	sbceq	r0, r4, #0, 0
     850:	00010000 	andeq	r0, r1, r0
     854:	0002c454 	andeq	ip, r2, r4, asr r4
     858:	0002f400 	andeq	pc, r2, r0, lsl #8
     85c:	50000100 	andpl	r0, r0, r0, lsl #2
     860:	000002f4 	strdeq	r0, [r0], -r4
     864:	000002f7 	strdeq	r0, [r0], -r7
     868:	f7520001 			; <UNDEFINED> instruction: 0xf7520001
     86c:	fc000002 	stc2	0, cr0, [r0], {2}
     870:	01000002 	tsteq	r0, r2
     874:	02fc5400 	rscseq	r5, ip, #0, 8
     878:	03040000 	movweq	r0, #16384	; 0x4000
     87c:	00010000 	andeq	r0, r1, r0
     880:	00030450 	andeq	r0, r3, r0, asr r4
     884:	00036400 	andeq	r6, r3, r0, lsl #8
     888:	54000100 	strpl	r0, [r0], #-256	; 0xffffff00
	...
     894:	00000001 	andeq	r0, r0, r1
     898:	00000518 	andeq	r0, r0, r8, lsl r5
     89c:	00000528 	andeq	r0, r0, r8, lsr #10
     8a0:	9f300002 	svcls	0x00300002
     8a4:	00000528 	andeq	r0, r0, r8, lsr #10
     8a8:	000005e0 	andeq	r0, r0, r0, ror #11
     8ac:	00560001 	subseq	r0, r6, r1
	...
     8c0:	20000000 	andcs	r0, r0, r0
     8c4:	28000005 	stmdacs	r0, {r0, r2}
     8c8:	01000005 	tsteq	r0, r5
     8cc:	05285000 	streq	r5, [r8, #-0]!
     8d0:	05540000 	ldrbeq	r0, [r4, #-0]
     8d4:	00010000 	andeq	r0, r1, r0
     8d8:	00055454 	andeq	r5, r5, r4, asr r4
     8dc:	00056400 	andeq	r6, r5, r0, lsl #8
     8e0:	50000100 	andpl	r0, r0, r0, lsl #2
     8e4:	00000564 	andeq	r0, r0, r4, ror #10
     8e8:	000005cc 	andeq	r0, r0, ip, asr #11
     8ec:	cc540001 	mrrcgt	0, 0, r0, r4, cr1
     8f0:	d0000005 	andle	r0, r0, r5
     8f4:	01000005 	tsteq	r0, r5
     8f8:	05d05000 	ldrbeq	r5, [r0]
     8fc:	05e00000 	strbeq	r0, [r0, #0]!
     900:	00010000 	andeq	r0, r1, r0
     904:	00000054 	andeq	r0, r0, r4, asr r0
     908:	00000000 	andeq	r0, r0, r0
     90c:	01000000 	mrseq	r0, (UNDEF: 0)
     910:	00000000 	andeq	r0, r0, r0
     914:	00052800 	andeq	r2, r5, r0, lsl #16
     918:	00055400 	andeq	r5, r5, r0, lsl #8
     91c:	55000100 	strpl	r0, [r0, #-256]	; 0xffffff00
     920:	0000055c 	andeq	r0, r0, ip, asr r5
     924:	0000056c 	andeq	r0, r0, ip, ror #10
     928:	9f300002 	svcls	0x00300002
     92c:	0000056c 	andeq	r0, r0, ip, ror #10
     930:	00000574 	andeq	r0, r0, r4, ror r5
     934:	74500001 	ldrbvc	r0, [r0], #-1
     938:	cc000005 	stcgt	0, cr0, [r0], {5}
     93c:	01000005 	tsteq	r0, r5
     940:	00005500 	andeq	r5, r0, r0, lsl #10
	...
     94c:	05280000 	streq	r0, [r8, #-0]!
     950:	05380000 	ldreq	r0, [r8, #-0]!
     954:	00010000 	andeq	r0, r1, r0
     958:	0005bc50 	andeq	fp, r5, r0, asr ip
     95c:	0005cc00 	andeq	ip, r5, r0, lsl #24
     960:	50000100 	andpl	r0, r0, r0, lsl #2
	...
     970:	000004e4 	andeq	r0, r0, r4, ror #9
     974:	000004f0 	strdeq	r0, [r0], -r0	; <UNPREDICTABLE>
     978:	f0500001 			; <UNDEFINED> instruction: 0xf0500001
     97c:	14000004 	strne	r0, [r0], #-4
     980:	01000005 	tsteq	r0, r5
     984:	00005c00 	andeq	r5, r0, r0, lsl #24
     988:	00000000 	andeq	r0, r0, r0
     98c:	00010000 	andeq	r0, r1, r0
     990:	04e80000 	strbteq	r0, [r8], #0
     994:	04f40000 	ldrbteq	r0, [r4], #0
     998:	00020000 	andeq	r0, r2, r0
     99c:	04f49f30 	ldrbteq	r9, [r4], #3888	; 0xf30
     9a0:	05140000 	ldreq	r0, [r4, #-0]
     9a4:	00010000 	andeq	r0, r1, r0
     9a8:	00000050 	andeq	r0, r0, r0, asr r0
     9ac:	00000000 	andeq	r0, r0, r0
     9b0:	00000300 	andeq	r0, r0, r0, lsl #6
     9b4:	0004e800 	andeq	lr, r4, r0, lsl #16
     9b8:	0004f400 	andeq	pc, r4, r0, lsl #8
     9bc:	30000200 	andcc	r0, r0, r0, lsl #4
     9c0:	0004f49f 	muleq	r4, pc, r4	; <UNPREDICTABLE>
     9c4:	00051400 	andeq	r1, r5, r0, lsl #8
     9c8:	53000100 	movwpl	r0, #256	; 0x100
	...
     9d8:	000001d8 	ldrdeq	r0, [r0], -r8
     9dc:	000001f3 	strdeq	r0, [r0], -r3
     9e0:	f4500001 			; <UNDEFINED> instruction: 0xf4500001
     9e4:	fc000001 	stc2	0, cr0, [r0], {1}
     9e8:	01000001 	tsteq	r0, r1
     9ec:	00005000 	andeq	r5, r0, r0
	...
     a04:	00000064 	andeq	r0, r0, r4, rrx
     a08:	000000a4 	andeq	r0, r0, r4, lsr #1
     a0c:	a4500001 	ldrbge	r0, [r0], #-1
     a10:	ac000000 	stcge	0, cr0, [r0], {-0}
     a14:	01000000 	mrseq	r0, (UNDEF: 0)
     a18:	00ac5400 	adceq	r5, ip, r0, lsl #8
     a1c:	00c40000 	sbceq	r0, r4, r0
     a20:	00010000 	andeq	r0, r1, r0
     a24:	0000c450 	andeq	ip, r0, r0, asr r4
     a28:	0000cc00 	andeq	ip, r0, r0, lsl #24
     a2c:	f3000400 	vshl.u8	d0, d0, d0
     a30:	cc9f5001 	ldcgt	0, cr5, [pc], {1}
     a34:	e4000000 	str	r0, [r0], #-0
     a38:	01000000 	mrseq	r0, (UNDEF: 0)
     a3c:	00e45000 	rsceq	r5, r4, r0
     a40:	00ec0000 	rsceq	r0, ip, r0
     a44:	00010000 	andeq	r0, r1, r0
     a48:	0000ec54 	andeq	lr, r0, r4, asr ip
     a4c:	0001cc00 	andeq	ip, r1, r0, lsl #24
     a50:	f3000400 	vshl.u8	d0, d0, d0
     a54:	009f5001 	addseq	r5, pc, r1
	...
     a6c:	00006400 	andeq	r6, r0, r0, lsl #8
     a70:	0000a000 	andeq	sl, r0, r0
     a74:	51000100 	mrspl	r0, (UNDEF: 16)
     a78:	000000a0 	andeq	r0, r0, r0, lsr #1
     a7c:	000000ac 	andeq	r0, r0, ip, lsr #1
     a80:	ac560001 	mrrcge	0, 0, r0, r6, cr1
     a84:	c0000000 	andgt	r0, r0, r0
     a88:	01000000 	mrseq	r0, (UNDEF: 0)
     a8c:	00c05100 	sbceq	r5, r0, r0, lsl #2
     a90:	00cc0000 	sbceq	r0, ip, r0
     a94:	00040000 	andeq	r0, r4, r0
     a98:	9f5101f3 	svcls	0x005101f3
     a9c:	000000cc 	andeq	r0, r0, ip, asr #1
     aa0:	000000e0 	andeq	r0, r0, r0, ror #1
     aa4:	e0510001 	subs	r0, r1, r1
     aa8:	a8000000 	stmdage	r0, {}	; <UNPREDICTABLE>
     aac:	01000001 	tsteq	r0, r1
     ab0:	01a85600 			; <UNDEFINED> instruction: 0x01a85600
     ab4:	01cc0000 	biceq	r0, ip, r0
     ab8:	00040000 	andeq	r0, r4, r0
     abc:	9f5101f3 	svcls	0x005101f3
	...
     ac8:	00ec0000 	rsceq	r0, ip, r0
     acc:	01a80000 			; <UNDEFINED> instruction: 0x01a80000
     ad0:	00010000 	andeq	r0, r1, r0
     ad4:	00000054 	andeq	r0, r0, r4, asr r0
	...
     ae0:	ec000000 	stc	0, cr0, [r0], {-0}
     ae4:	0c000000 	stceq	0, cr0, [r0], {-0}
     ae8:	01000001 	tsteq	r0, r1
     aec:	011c5500 	tsteq	ip, r0, lsl #10
     af0:	01330000 	teqeq	r3, r0
     af4:	00010000 	andeq	r0, r1, r0
     af8:	00013350 	andeq	r3, r1, r0, asr r3
     afc:	0001a000 	andeq	sl, r1, r0
     b00:	55000100 	strpl	r0, [r0, #-256]	; 0xffffff00
	...
     b10:	000000ec 	andeq	r0, r0, ip, ror #1
     b14:	00000108 	andeq	r0, r0, r8, lsl #2
     b18:	28570001 	ldmdacs	r7, {r0}^
     b1c:	a0000001 	andge	r0, r0, r1
     b20:	01000001 	tsteq	r0, r1
     b24:	00005700 	andeq	r5, r0, r0, lsl #14
	...
     b30:	00ec0000 	rsceq	r0, ip, r0
     b34:	01080000 	mrseq	r0, (UNDEF: 8)
     b38:	00010000 	andeq	r0, r1, r0
     b3c:	00012c58 	andeq	r2, r1, r8, asr ip
     b40:	0001a000 	andeq	sl, r1, r0
     b44:	58000100 	stmdapl	r0, {r8}
	...
     b54:	0000003c 	andeq	r0, r0, ip, lsr r0
     b58:	00000047 	andeq	r0, r0, r7, asr #32
     b5c:	47500001 	ldrbmi	r0, [r0, -r1]
     b60:	64000000 	strvs	r0, [r0], #-0
     b64:	01000000 	mrseq	r0, (UNDEF: 0)
     b68:	00005400 	andeq	r5, r0, r0, lsl #8
     b6c:	00000000 	andeq	r0, r0, r0
     b70:	00010000 	andeq	r0, r1, r0
     b74:	00440000 	subeq	r0, r4, r0
     b78:	00470000 	subeq	r0, r7, r0
     b7c:	00010000 	andeq	r0, r1, r0
     b80:	00004750 	andeq	r4, r0, r0, asr r7
     b84:	00006400 	andeq	r6, r0, r0, lsl #8
     b88:	54000100 	strpl	r0, [r0], #-256	; 0xffffff00
	...
     ba4:	00000024 	andeq	r0, r0, r4, lsr #32
     ba8:	24500001 	ldrbcs	r0, [r0], #-1
     bac:	28000000 	stmdacs	r0, {}	; <UNPREDICTABLE>
     bb0:	04000000 	streq	r0, [r0], #-0
     bb4:	5001f300 	andpl	pc, r1, r0, lsl #6
     bb8:	0000289f 	muleq	r0, pc, r8	; <UNPREDICTABLE>
     bbc:	00002c00 	andeq	r2, r0, r0, lsl #24
     bc0:	50000100 	andpl	r0, r0, r0, lsl #2
     bc4:	0000002c 	andeq	r0, r0, ip, lsr #32
     bc8:	00000030 	andeq	r0, r0, r0, lsr r0
     bcc:	01f30004 	mvnseq	r0, r4
     bd0:	00309f50 	eorseq	r9, r0, r0, asr pc
     bd4:	00340000 	eorseq	r0, r4, r0
     bd8:	00010000 	andeq	r0, r1, r0
     bdc:	00003450 	andeq	r3, r0, r0, asr r4
     be0:	00003c00 	andeq	r3, r0, r0, lsl #24
     be4:	f3000400 	vshl.u8	d0, d0, d0
     be8:	009f5001 	addseq	r5, pc, r1
	...
     bfc:	40000000 	andmi	r0, r0, r0
     c00:	68000004 	stmdavs	r0, {r2}
     c04:	01000004 	tsteq	r0, r4
     c08:	04685000 	strbteq	r5, [r8], #-0
     c0c:	04940000 	ldreq	r0, [r4], #0
     c10:	00010000 	andeq	r0, r1, r0
     c14:	00049454 	andeq	r9, r4, r4, asr r4
     c18:	0004ac00 	andeq	sl, r4, r0, lsl #24
     c1c:	50000100 	andpl	r0, r0, r0, lsl #2
     c20:	000004ac 	andeq	r0, r0, ip, lsr #9
     c24:	000004b4 			; <UNDEFINED> instruction: 0x000004b4
     c28:	b4540001 	ldrblt	r0, [r4], #-1
     c2c:	c4000004 	strgt	r0, [r0], #-4
     c30:	01000004 	tsteq	r0, r4
     c34:	04c45000 	strbeq	r5, [r4], #0
     c38:	04e40000 	strbteq	r0, [r4], #0
     c3c:	00010000 	andeq	r0, r1, r0
     c40:	00000054 	andeq	r0, r0, r4, asr r0
     c44:	00000000 	andeq	r0, r0, r0
     c48:	60000200 	andvs	r0, r0, r0, lsl #4
     c4c:	94000004 	strls	r0, [r0], #-4
     c50:	04000004 	streq	r0, [r0], #-4
     c54:	24404000 	strbcs	r4, [r0], #-0
     c58:	0000009f 	muleq	r0, pc, r0	; <UNPREDICTABLE>
	...
     c68:	00001c00 	andeq	r1, r0, r0, lsl #24
     c6c:	51000100 	mrspl	r0, (UNDEF: 16)
     c70:	0000001c 	andeq	r0, r0, ip, lsl r0
     c74:	00000078 	andeq	r0, r0, r8, ror r0
     c78:	01f30004 	mvnseq	r0, r4
     c7c:	00009f51 	andeq	r9, r0, r1, asr pc
	...
     c8c:	00580000 	subseq	r0, r8, r0
     c90:	00010000 	andeq	r0, r1, r0
     c94:	00005852 	andeq	r5, r0, r2, asr r8
     c98:	00007800 	andeq	r7, r0, r0, lsl #16
     c9c:	f3000400 	vshl.u8	d0, d0, d0
     ca0:	009f5201 	addseq	r5, pc, r1, lsl #4
     ca4:	00000000 	andeq	r0, r0, r0
     ca8:	02000000 	andeq	r0, r0, #0, 0
     cac:	01010000 	mrseq	r0, (UNDEF: 1)
     cb0:	01010000 	mrseq	r0, (UNDEF: 1)
     cb4:	01010000 	mrseq	r0, (UNDEF: 1)
     cb8:	00000000 	andeq	r0, r0, r0
     cbc:	00003800 	andeq	r3, r0, r0, lsl #16
     cc0:	50000100 	andpl	r0, r0, r0, lsl #2
     cc4:	00000054 	andeq	r0, r0, r4, asr r0
     cc8:	00000054 	andeq	r0, r0, r4, asr r0
     ccc:	54530001 	ldrbpl	r0, [r3], #-1
     cd0:	5c000000 	stcpl	0, cr0, [r0], {-0}
     cd4:	03000000 	movweq	r0, #0
     cd8:	9f017300 	svcls	0x00017300
     cdc:	0000005c 	andeq	r0, r0, ip, asr r0
     ce0:	00000064 	andeq	r0, r0, r4, rrx
     ce4:	64520001 	ldrbvs	r0, [r2], #-1
     ce8:	68000000 	stmdavs	r0, {}	; <UNPREDICTABLE>
     cec:	03000000 	movweq	r0, #0
     cf0:	9f027300 	svcls	0x00027300
     cf4:	00000068 	andeq	r0, r0, r8, rrx
     cf8:	00000074 	andeq	r0, r0, r4, ror r0
     cfc:	74520001 	ldrbvc	r0, [r2], #-1
     d00:	78000000 	stmdavc	r0, {}	; <UNPREDICTABLE>
     d04:	03000000 	movweq	r0, #0
     d08:	9f017200 	svcls	0x00017200
	...
     d14:	00080000 	andeq	r0, r8, r0
     d18:	00780000 	rsbseq	r0, r8, r0
     d1c:	00010000 	andeq	r0, r1, r0
     d20:	00000054 	andeq	r0, r0, r4, asr r0
	...
     d2c:	2c000000 	stccs	0, cr0, [r0], {-0}
     d30:	34000000 	strcc	r0, [r0], #-0
     d34:	01000000 	mrseq	r0, (UNDEF: 0)
     d38:	00345000 	eorseq	r5, r4, r0
     d3c:	00480000 	subeq	r0, r8, r0
     d40:	00010000 	andeq	r0, r1, r0
     d44:	00004854 	andeq	r4, r0, r4, asr r8
     d48:	00005800 	andeq	r5, r0, r0, lsl #16
     d4c:	50000100 	andpl	r0, r0, r0, lsl #2
	...
     d58:	01000000 	mrseq	r0, (UNDEF: 0)
     d5c:	00000001 	andeq	r0, r0, r1
     d60:	00000000 	andeq	r0, r0, r0
     d64:	0000000c 	andeq	r0, r0, ip
     d68:	0c500001 	mrrceq	0, 0, r0, r0, cr1	; <UNPREDICTABLE>
     d6c:	20000000 	andcs	r0, r0, r0
     d70:	01000000 	mrseq	r0, (UNDEF: 0)
     d74:	00205400 	eoreq	r5, r0, r0, lsl #8
     d78:	00240000 	eoreq	r0, r4, r0
     d7c:	00030000 	andeq	r0, r3, r0
     d80:	249f0174 	ldrcs	r0, [pc], #372	; d88 <__code_start__-0x7278>
     d84:	38000000 	stmdacc	r0, {}	; <UNPREDICTABLE>
     d88:	01000000 	mrseq	r0, (UNDEF: 0)
     d8c:	00005400 	andeq	r5, r0, r0, lsl #8
	...
     da0:	00000388 	andeq	r0, r0, r8, lsl #7
     da4:	00000394 	muleq	r0, r4, r3
     da8:	94500001 	ldrbls	r0, [r0], #-1
     dac:	d0000003 	andle	r0, r0, r3
     db0:	01000003 	tsteq	r0, r3
     db4:	03d05b00 	bicseq	r5, r0, #0, 22
     db8:	09200000 	stmdbeq	r0!, {}	; <UNPREDICTABLE>
     dbc:	00040000 	andeq	r0, r4, r0
     dc0:	9f5001f3 	svcls	0x005001f3
     dc4:	00000920 	andeq	r0, r0, r0, lsr #18
     dc8:	00000928 	andeq	r0, r0, r8, lsr #18
     dcc:	285b0001 	ldmdacs	fp, {r0}^
     dd0:	b4000009 	strlt	r0, [r0], #-9
     dd4:	04000009 	streq	r0, [r0], #-9
     dd8:	5001f300 	andpl	pc, r1, r0, lsl #6
     ddc:	0000009f 	muleq	r0, pc, r0	; <UNPREDICTABLE>
	...
     dec:	00038800 	andeq	r8, r3, r0, lsl #16
     df0:	0003d000 	andeq	sp, r3, r0
     df4:	51000100 	mrspl	r0, (UNDEF: 16)
     df8:	000003d0 	ldrdeq	r0, [r0], -r0	; <UNPREDICTABLE>
     dfc:	00000920 	andeq	r0, r0, r0, lsr #18
     e00:	01f30004 	mvnseq	r0, r4
     e04:	09209f51 	stmdbeq	r0!, {r0, r4, r6, r8, r9, sl, fp, ip, pc}
     e08:	09280000 	stmdbeq	r8!, {}	; <UNPREDICTABLE>
     e0c:	00010000 	andeq	r0, r1, r0
     e10:	00092851 	andeq	r2, r9, r1, asr r8
     e14:	0009b400 	andeq	fp, r9, r0, lsl #8
     e18:	f3000400 	vshl.u8	d0, d0, d0
     e1c:	009f5101 	addseq	r5, pc, r1, lsl #2
	...
     e2c:	00010000 	andeq	r0, r1, r0
     e30:	00000100 	andeq	r0, r0, r0, lsl #2
	...
     e3c:	88000000 	stmdahi	r0, {}	; <UNPREDICTABLE>
     e40:	d0000003 	andle	r0, r0, r3
     e44:	01000003 	tsteq	r0, r3
     e48:	03d05200 	bicseq	r5, r0, #0, 4
     e4c:	04000000 	streq	r0, [r0], #-0
     e50:	00010000 	andeq	r0, r1, r0
     e54:	00041456 	andeq	r1, r4, r6, asr r4
     e58:	00042400 	andeq	r2, r4, r0, lsl #8
     e5c:	56000100 	strpl	r0, [r0], -r0, lsl #2
     e60:	00000424 	andeq	r0, r0, r4, lsr #8
     e64:	00000428 	andeq	r0, r0, r8, lsr #8
     e68:	7f760003 	svcvc	0x00760003
     e6c:	0004a89f 	muleq	r4, pc, r8	; <UNPREDICTABLE>
     e70:	0004ac00 	andeq	sl, r4, r0, lsl #24
     e74:	56000100 	strpl	r0, [r0], -r0, lsl #2
     e78:	000004e0 	andeq	r0, r0, r0, ror #9
     e7c:	00000504 	andeq	r0, r0, r4, lsl #10
     e80:	7c560001 	mrrcvc	0, 0, r0, r6, cr1
     e84:	88000005 	stmdahi	r0, {r0, r2}
     e88:	01000005 	tsteq	r0, r5
     e8c:	05885300 	streq	r5, [r8, #768]	; 0x300
     e90:	05d00000 	ldrbeq	r0, [r0]
     e94:	00030000 	andeq	r0, r3, r0
     e98:	007dcc91 			; <UNDEFINED> instruction: 0x007dcc91
     e9c:	0f000008 	svceq	0x00000008
     ea0:	01000008 	tsteq	r0, r8
     ea4:	080f5300 	stmdaeq	pc, {r8, r9, ip, lr}	; <UNPREDICTABLE>
     ea8:	08880000 	stmeq	r8, {}	; <UNPREDICTABLE>
     eac:	00030000 	andeq	r0, r3, r0
     eb0:	207dcc91 			; <UNDEFINED> instruction: 0x207dcc91
     eb4:	28000009 	stmdacs	r0, {r0, r3}
     eb8:	01000009 	tsteq	r0, r9
     ebc:	09485200 	stmdbeq	r8, {r9, ip, lr}^
     ec0:	09640000 	stmdbeq	r4!, {}^	; <UNPREDICTABLE>
     ec4:	00030000 	andeq	r0, r3, r0
     ec8:	007dcc91 			; <UNDEFINED> instruction: 0x007dcc91
	...
     edc:	00000101 	andeq	r0, r0, r1, lsl #2
     ee0:	00000101 	andeq	r0, r0, r1, lsl #2
     ee4:	02020000 	andeq	r0, r2, #0, 0
     ee8:	02020000 	andeq	r0, r2, #0, 0
     eec:	01010000 	mrseq	r0, (UNDEF: 1)
     ef0:	02020000 	andeq	r0, r2, #0, 0
     ef4:	01010000 	mrseq	r0, (UNDEF: 1)
	...
     f00:	00038800 	andeq	r8, r3, r0, lsl #16
     f04:	0003ac00 	andeq	sl, r3, r0, lsl #24
     f08:	53000100 	movwpl	r0, #256	; 0x100
     f0c:	000003ac 	andeq	r0, r0, ip, lsr #7
     f10:	000003c0 	andeq	r0, r0, r0, asr #7
     f14:	93530003 	cmpls	r3, #3, 0
     f18:	0003d004 	andeq	sp, r3, r4
     f1c:	0003e800 	andeq	lr, r3, r0, lsl #16
     f20:	58000300 	stmdapl	r0, {r8, r9}
     f24:	03e80493 	mvneq	r0, #-1828716544	; 0x93000000
     f28:	04ac0000 	strteq	r0, [ip], #0
     f2c:	00030000 	andeq	r0, r3, r0
     f30:	c0049358 	andgt	r9, r4, r8, asr r3
     f34:	c0000004 	andgt	r0, r0, r4
     f38:	03000004 	movweq	r0, #4
     f3c:	04935800 	ldreq	r5, [r3], #2048	; 0x800
     f40:	000004c0 	andeq	r0, r0, r0, asr #9
     f44:	000004cc 	andeq	r0, r0, ip, asr #9
     f48:	04780005 	ldrbteq	r0, [r8], #-5
     f4c:	cc04939f 	stcgt	3, cr9, [r4], {159}	; 0x9f
     f50:	e0000004 	and	r0, r0, r4
     f54:	03000004 	movweq	r0, #4
     f58:	04935800 	ldreq	r5, [r3], #2048	; 0x800
     f5c:	000004e0 	andeq	r0, r0, r0, ror #9
     f60:	00000538 	andeq	r0, r0, r8, lsr r5
     f64:	93580003 	cmpls	r8, #3, 0
     f68:	00053804 	andeq	r3, r5, r4, lsl #16
     f6c:	00053c00 	andeq	r3, r5, r0, lsl #24
     f70:	78000500 	stmdavc	r0, {r8, sl}
     f74:	04939f79 	ldreq	r9, [r3], #3961	; 0xf79
     f78:	000005d0 	ldrdeq	r0, [r0], -r0	; <UNPREDICTABLE>
     f7c:	000005d0 	ldrdeq	r0, [r0], -r0	; <UNPREDICTABLE>
     f80:	93580003 	cmpls	r8, #3, 0
     f84:	0005d004 	andeq	sp, r5, r4
     f88:	0005d400 	andeq	sp, r5, r0, lsl #8
     f8c:	78000500 	stmdavc	r0, {r8, sl}
     f90:	04939f04 	ldreq	r9, [r3], #3844	; 0xf04
     f94:	000005f4 	strdeq	r0, [r0], -r4
     f98:	000005f4 	strdeq	r0, [r0], -r4
     f9c:	93580003 	cmpls	r8, #3, 0
     fa0:	0005f404 	andeq	pc, r5, r4, lsl #8
     fa4:	0005fc00 	andeq	pc, r5, r0, lsl #24
     fa8:	78000500 	stmdavc	r0, {r8, sl}
     fac:	04939f04 	ldreq	r9, [r3], #3844	; 0xf04
     fb0:	000005fc 	strdeq	r0, [r0], -ip
     fb4:	000005fc 	strdeq	r0, [r0], -ip
     fb8:	93580003 	cmpls	r8, #3, 0
     fbc:	0005fc04 	andeq	pc, r5, r4, lsl #24
     fc0:	00060000 	andeq	r0, r6, r0
     fc4:	78000500 	stmdavc	r0, {r8, sl}
     fc8:	04939f04 	ldreq	r9, [r3], #3844	; 0xf04
     fcc:	00000600 	andeq	r0, r0, r0, lsl #12
     fd0:	00000700 	andeq	r0, r0, r0, lsl #14
     fd4:	93580003 	cmpls	r8, #3, 0
     fd8:	00070004 	andeq	r0, r7, r4
     fdc:	00070c00 	andeq	r0, r7, r0, lsl #24
     fe0:	78000500 	stmdavc	r0, {r8, sl}
     fe4:	04939f04 	ldreq	r9, [r3], #3844	; 0xf04
     fe8:	0000070c 	andeq	r0, r0, ip, lsl #14
     fec:	000007f8 	strdeq	r0, [r0], -r8
     ff0:	93580003 	cmpls	r8, #3, 0
     ff4:	0007f804 	andeq	pc, r7, r4, lsl #16
     ff8:	0007fc00 	andeq	pc, r7, r0, lsl #24
     ffc:	78000500 	stmdavc	r0, {r8, sl}
    1000:	04939f04 	ldreq	r9, [r3], #3844	; 0xf04
    1004:	000007fc 	strdeq	r0, [r0], -ip
    1008:	00000800 	andeq	r0, r0, r0, lsl #16
    100c:	93580003 	cmpls	r8, #3, 0
    1010:	00088804 	andeq	r8, r8, r4, lsl #16
    1014:	00092000 	andeq	r2, r9, r0
    1018:	58000300 	stmdapl	r0, {r8, r9}
    101c:	09200493 	stmdbeq	r0!, {r0, r1, r4, r7, sl}
    1020:	09280000 	stmdbeq	r8!, {}	; <UNPREDICTABLE>
    1024:	00010000 	andeq	r0, r1, r0
    1028:	00096453 	andeq	r6, r9, r3, asr r4
    102c:	0009b400 	andeq	fp, r9, r0, lsl #8
    1030:	58000300 	stmdapl	r0, {r8, r9}
    1034:	00000493 	muleq	r0, r3, r4
    1038:	00000000 	andeq	r0, r0, r0
    103c:	00010000 	andeq	r0, r1, r0
    1040:	00000000 	andeq	r0, r0, r0
    1044:	02000000 	andeq	r0, r0, #0, 0
    1048:	00000002 	andeq	r0, r0, r2
    104c:	00010101 	andeq	r0, r1, r1, lsl #2
    1050:	00000000 	andeq	r0, r0, r0
    1054:	000003ac 	andeq	r0, r0, ip, lsr #7
    1058:	000003d0 	ldrdeq	r0, [r0], -r0	; <UNPREDICTABLE>
    105c:	d05b0001 	subsle	r0, fp, r1
    1060:	d4000003 	strle	r0, [r0], #-3
    1064:	01000003 	tsteq	r0, r3
    1068:	03d45400 	bicseq	r5, r4, #0, 8
    106c:	03d80000 	bicseq	r0, r8, #0, 0
    1070:	00030000 	andeq	r0, r3, r0
    1074:	d89f7f74 	ldmle	pc, {r2, r4, r5, r6, r8, r9, sl, fp, ip, sp, lr}	; <UNPREDICTABLE>
    1078:	fc000003 	stc2	0, cr0, [r0], {3}
    107c:	01000003 	tsteq	r0, r3
    1080:	04a85400 	strteq	r5, [r8], #1024	; 0x400
    1084:	04ac0000 	strteq	r0, [ip], #0
    1088:	00010000 	andeq	r0, r1, r0
    108c:	0004ac54 	andeq	sl, r4, r4, asr ip
    1090:	0004b400 	andeq	fp, r4, r0, lsl #8
    1094:	74000300 	strvc	r0, [r0], #-768	; 0xfffffd00
    1098:	04b49f01 	ldrteq	r9, [r4], #3841	; 0xf01
    109c:	04c00000 	strbeq	r0, [r0], #0
    10a0:	00010000 	andeq	r0, r1, r0
    10a4:	0004e454 	andeq	lr, r4, r4, asr r4
    10a8:	0004f400 	andeq	pc, r4, r0, lsl #8
    10ac:	54000100 	strpl	r0, [r0], #-256	; 0xffffff00
    10b0:	000004f4 	strdeq	r0, [r0], -r4
    10b4:	000004f8 	strdeq	r0, [r0], -r8
    10b8:	01740003 	cmneq	r4, r3
    10bc:	0004f89f 	muleq	r4, pc, r8	; <UNPREDICTABLE>
    10c0:	00050400 	andeq	r0, r5, r0, lsl #8
    10c4:	54000100 	strpl	r0, [r0], #-256	; 0xffffff00
    10c8:	00000920 	andeq	r0, r0, r0, lsr #18
    10cc:	00000928 	andeq	r0, r0, r8, lsr #18
    10d0:	005b0001 	subseq	r0, fp, r1
    10d4:	00000000 	andeq	r0, r0, r0
    10d8:	01000000 	mrseq	r0, (UNDEF: 0)
    10dc:	0003ac00 	andeq	sl, r3, r0, lsl #24
    10e0:	0009b400 	andeq	fp, r9, r0, lsl #8
    10e4:	57000100 	strpl	r0, [r0, -r0, lsl #2]
	...
    10f0:	00000002 	andeq	r0, r0, r2
    10f4:	057c0000 	ldrbeq	r0, [ip, #-0]!
    10f8:	05d00000 	ldrbeq	r0, [r0]
    10fc:	00010000 	andeq	r0, r1, r0
    1100:	0008005b 	andeq	r0, r8, fp, asr r0
    1104:	00088800 	andeq	r8, r8, r0, lsl #16
    1108:	5b000100 	blpl	1510 <__code_start__-0x6af0>
    110c:	00000948 	andeq	r0, r0, r8, asr #18
    1110:	00000964 	andeq	r0, r0, r4, ror #18
    1114:	005b0001 	subseq	r0, fp, r1
    1118:	00000000 	andeq	r0, r0, r0
    111c:	03000000 	movweq	r0, #0
    1120:	00000000 	andeq	r0, r0, r0
    1124:	00057c00 	andeq	r7, r5, r0, lsl #24
    1128:	0005d000 	andeq	sp, r5, r0
    112c:	59000100 	stmdbpl	r0, {r8}
    1130:	00000800 	andeq	r0, r0, r0, lsl #16
    1134:	00000888 	andeq	r0, r0, r8, lsl #17
    1138:	48590001 	ldmdami	r9, {r0}^
    113c:	64000009 	strvs	r0, [r0], #-9
    1140:	01000009 	tsteq	r0, r9
    1144:	00005900 	andeq	r5, r0, r0, lsl #18
    1148:	00000000 	andeq	r0, r0, r0
    114c:	00040000 	andeq	r0, r4, r0
    1150:	00000000 	andeq	r0, r0, r0
    1154:	03ac0000 			; <UNDEFINED> instruction: 0x03ac0000
    1158:	03d00000 	bicseq	r0, r0, #0, 0
    115c:	00010000 	andeq	r0, r1, r0
    1160:	0003d052 	andeq	sp, r3, r2, asr r0
    1164:	00092000 	andeq	r2, r9, r0
    1168:	f3000400 	vshl.u8	d0, d0, d0
    116c:	209f5201 	addscs	r5, pc, r1, lsl #4
    1170:	28000009 	stmdacs	r0, {r0, r3}
    1174:	01000009 	tsteq	r0, r9
    1178:	09285200 	stmdbeq	r8!, {r9, ip, lr}
    117c:	09b40000 	ldmibeq	r4!, {}	; <UNPREDICTABLE>
    1180:	00040000 	andeq	r0, r4, r0
    1184:	9f5201f3 	svcls	0x005201f3
	...
    1190:	00010100 	andeq	r0, r1, r0, lsl #2
    1194:	00000000 	andeq	r0, r0, r0
    1198:	00000001 	andeq	r0, r0, r1
    119c:	000004e0 	andeq	r0, r0, r0, ror #9
    11a0:	000004e0 	andeq	r0, r0, r0, ror #9
    11a4:	e0500001 	subs	r0, r0, r1
    11a8:	e8000004 	stmda	r0, {r2}
    11ac:	01000004 	tsteq	r0, r4
    11b0:	05b85500 	ldreq	r5, [r8, #1280]!	; 0x500
    11b4:	05d00000 	ldrbeq	r0, [r0]
    11b8:	00010000 	andeq	r0, r1, r0
    11bc:	0005f055 	andeq	pc, r5, r5, asr r0	; <UNPREDICTABLE>
    11c0:	0005f400 	andeq	pc, r5, r0, lsl #8
    11c4:	50000100 	andpl	r0, r0, r0, lsl #2
    11c8:	000007f4 	strdeq	r0, [r0], -r4
    11cc:	000007f8 	strdeq	r0, [r0], -r8
    11d0:	50550001 	subspl	r0, r5, r1
    11d4:	88000008 	stmdahi	r0, {r3}
    11d8:	01000008 	tsteq	r0, r8
    11dc:	00005500 	andeq	r5, r0, r0, lsl #10
    11e0:	00000000 	andeq	r0, r0, r0
    11e4:	00020000 	andeq	r0, r2, r0
    11e8:	00000000 	andeq	r0, r0, r0
    11ec:	04140000 	ldreq	r0, [r4], #-0
    11f0:	04180000 	ldreq	r0, [r8], #-0
    11f4:	00020000 	andeq	r0, r2, r0
    11f8:	04189f30 	ldreq	r9, [r8], #-3888	; 0xfffff0d0
    11fc:	041c0000 	ldreq	r0, [ip], #-0
    1200:	00010000 	andeq	r0, r1, r0
    1204:	00042855 	andeq	r2, r4, r5, asr r8
    1208:	00043c00 	andeq	r3, r4, r0, lsl #24
    120c:	55000100 	strpl	r0, [r0, #-256]	; 0xffffff00
    1210:	00000928 	andeq	r0, r0, r8, lsr #18
    1214:	00000930 	andeq	r0, r0, r0, lsr r9
    1218:	00550001 	subseq	r0, r5, r1
    121c:	00000000 	andeq	r0, r0, r0
    1220:	01000000 	mrseq	r0, (UNDEF: 0)
	...
    122c:	04000000 	streq	r0, [r0], #-0
    1230:	84000005 	strhi	r0, [r0], #-5
    1234:	01000005 	tsteq	r0, r5
    1238:	05845600 	streq	r5, [r4, #1536]	; 0x600
    123c:	05880000 	streq	r0, [r8]
    1240:	00030000 	andeq	r0, r3, r0
    1244:	889f7e73 	ldmhi	pc, {r0, r1, r4, r5, r6, r9, sl, fp, ip, sp, lr}	; <UNPREDICTABLE>
    1248:	d0000005 	andle	r0, r0, r5
    124c:	07000005 	streq	r0, [r0, -r5]
    1250:	7dcc9100 	stfvcp	f1, [ip]
    1254:	9f1c3206 	svcls	0x001c3206
    1258:	00000800 	andeq	r0, r0, r0, lsl #16
    125c:	0000081c 	andeq	r0, r0, ip, lsl r8
    1260:	1c560001 	mrrcne	0, 0, r0, r6, cr1
    1264:	88000008 	stmdahi	r0, {r3}
    1268:	07000008 	streq	r0, [r0, -r8]
    126c:	7dcc9100 	stfvcp	f1, [ip]
    1270:	9f1c3206 	svcls	0x001c3206
    1274:	00000948 	andeq	r0, r0, r8, asr #18
    1278:	000009b4 			; <UNDEFINED> instruction: 0x000009b4
    127c:	00560001 	subseq	r0, r6, r1
    1280:	00000000 	andeq	r0, r0, r0
    1284:	04000000 	streq	r0, [r0], #-0
    1288:	14040206 	strne	r0, [r4], #-518	; 0xfffffdfa
    128c:	14000004 	strne	r0, [r0], #-4
    1290:	06000004 	streq	r0, [r0], -r4
    1294:	08007200 	stmdaeq	r0, {r9, ip, sp, lr}
    1298:	289f1aff 	ldmcs	pc, {r0, r1, r2, r3, r4, r5, r6, r7, r9, fp, ip}	; <UNPREDICTABLE>
    129c:	28000004 	stmdacs	r0, {r2}
    12a0:	06000004 	streq	r0, [r0], -r4
    12a4:	08007200 	stmdaeq	r0, {r9, ip, sp, lr}
    12a8:	009f1aff 			; <UNDEFINED> instruction: 0x009f1aff
    12ac:	00000000 	andeq	r0, r0, r0
    12b0:	02000000 	andeq	r0, r0, #0, 0
    12b4:	00000000 	andeq	r0, r0, r0
    12b8:	0005fc00 	andeq	pc, r5, r0, lsl #24
    12bc:	00070000 	andeq	r0, r7, r0
    12c0:	08000300 	stmdaeq	r0, {r8, r9}
    12c4:	08a89f80 	stmiaeq	r8!, {r7, r8, r9, sl, fp, ip, pc}
    12c8:	08bc0000 	ldmeq	ip!, {}	; <UNPREDICTABLE>
    12cc:	00030000 	andeq	r0, r3, r0
    12d0:	109f8008 	addsne	r8, pc, r8
    12d4:	20000009 	andcs	r0, r0, r9
    12d8:	03000009 	movweq	r0, #9
    12dc:	9f800800 	svcls	0x00800800
	...
    12e8:	00000001 	andeq	r0, r0, r1
    12ec:	05fc0000 	ldrbeq	r0, [ip, #0]!
    12f0:	07000000 	streq	r0, [r0, -r0]
    12f4:	00020000 	andeq	r0, r2, r0
    12f8:	08a89f30 	stmiaeq	r8!, {r4, r5, r8, r9, sl, fp, ip, pc}
    12fc:	08bc0000 	ldmeq	ip!, {}	; <UNPREDICTABLE>
    1300:	00020000 	andeq	r0, r2, r0
    1304:	09109f30 	ldmdbeq	r0, {r4, r5, r8, r9, sl, fp, ip, pc}
    1308:	09200000 	stmdbeq	r0!, {}	; <UNPREDICTABLE>
    130c:	00020000 	andeq	r0, r2, r0
    1310:	00009f30 	andeq	r9, r0, r0, lsr pc
    1314:	00000000 	andeq	r0, r0, r0
    1318:	00010000 	andeq	r0, r1, r0
    131c:	00000000 	andeq	r0, r0, r0
    1320:	000005fc 	strdeq	r0, [r0], -ip
    1324:	000006e0 	andeq	r0, r0, r0, ror #13
    1328:	a8550001 	ldmdage	r5, {r0}^
    132c:	bc000008 	stclt	0, cr0, [r0], {8}
    1330:	01000008 	tsteq	r0, r8
    1334:	09105500 	ldmdbeq	r0, {r8, sl, ip, lr}
    1338:	09200000 	stmdbeq	r0!, {}	; <UNPREDICTABLE>
    133c:	00010000 	andeq	r0, r1, r0
    1340:	00000055 	andeq	r0, r0, r5, asr r0
    1344:	00000000 	andeq	r0, r0, r0
    1348:	00000100 	andeq	r0, r0, r0, lsl #2
    134c:	00000000 	andeq	r0, r0, r0
    1350:	0005fc00 	andeq	pc, r5, r0, lsl #24
    1354:	0006e000 	andeq	lr, r6, r0
    1358:	91000400 	tstls	r0, r0, lsl #8
    135c:	e09f7dd0 			; <UNDEFINED> instruction: 0xe09f7dd0
    1360:	00000006 	andeq	r0, r0, r6
    1364:	01000007 	tsteq	r0, r7
    1368:	08a85500 	stmiaeq	r8!, {r8, sl, ip, lr}
    136c:	08bc0000 	ldmeq	ip!, {}	; <UNPREDICTABLE>
    1370:	00040000 	andeq	r0, r4, r0
    1374:	9f7dd091 	svcls	0x007dd091
    1378:	00000910 	andeq	r0, r0, r0, lsl r9
    137c:	00000920 	andeq	r0, r0, r0, lsr #18
    1380:	d0910004 	addsle	r0, r1, r4
    1384:	00009f7d 	andeq	r9, r0, sp, ror pc
    1388:	00000000 	andeq	r0, r0, r0
    138c:	00010000 	andeq	r0, r1, r0
    1390:	00000000 	andeq	r0, r0, r0
    1394:	000005fc 	strdeq	r0, [r0], -ip
    1398:	00000700 	andeq	r0, r0, r0, lsl #14
    139c:	9f380002 	svcls	0x00380002
    13a0:	000008a8 	andeq	r0, r0, r8, lsr #17
    13a4:	000008bc 			; <UNDEFINED> instruction: 0x000008bc
    13a8:	9f380002 	svcls	0x00380002
    13ac:	00000910 	andeq	r0, r0, r0, lsl r9
    13b0:	00000920 	andeq	r0, r0, r0, lsr #18
    13b4:	9f380002 	svcls	0x00380002
	...
    13c0:	00070704 	andeq	r0, r7, r4, lsl #14
	...
    13cc:	05fc0000 	ldrbeq	r0, [ip, #0]!
    13d0:	05fc0000 	ldrbeq	r0, [ip, #0]!
    13d4:	00040000 	andeq	r0, r4, r0
    13d8:	9f7ed091 	svcls	0x007ed091
    13dc:	000005fc 	strdeq	r0, [r0], -ip
    13e0:	00000678 	andeq	r0, r0, r8, ror r6
    13e4:	d1910004 	orrsle	r0, r1, r4
    13e8:	06789f7e 	uhsub16eq	r9, r8, lr
    13ec:	06d40000 	ldrbeq	r0, [r4], r0
    13f0:	00010000 	andeq	r0, r1, r0
    13f4:	0006d45c 	andeq	sp, r6, ip, asr r4
    13f8:	00070000 	andeq	r0, r7, r0
    13fc:	91000400 	tstls	r0, r0, lsl #8
    1400:	a89f7ed1 	ldmge	pc, {r0, r4, r6, r7, r9, sl, fp, ip, sp, lr}	; <UNPREDICTABLE>
    1404:	bc000008 	stclt	0, cr0, [r0], {8}
    1408:	04000008 	streq	r0, [r0], #-8
    140c:	7ed19100 	atnvcs	f1, f0
    1410:	0009109f 	muleq	r9, pc, r0	; <UNPREDICTABLE>
    1414:	00091400 	andeq	r1, r9, r0, lsl #8
    1418:	91000400 	tstls	r0, r0, lsl #8
    141c:	149f7ed1 	ldrne	r7, [pc], #3793	; 1424 <__code_start__-0x6bdc>
    1420:	20000009 	andcs	r0, r0, r9
    1424:	01000009 	tsteq	r0, r9
    1428:	00005c00 	andeq	r5, r0, r0, lsl #24
    142c:	00000000 	andeq	r0, r0, r0
    1430:	01040000 	mrseq	r0, (UNDEF: 4)
    1434:	00000100 	andeq	r0, r0, r0, lsl #2
    1438:	00000608 	andeq	r0, r0, r8, lsl #12
    143c:	000006d0 	ldrdeq	r0, [r0], -r0	; <UNPREDICTABLE>
    1440:	a8550001 	ldmdage	r5, {r0}^
    1444:	b8000008 	stmdalt	r0, {r3}
    1448:	01000008 	tsteq	r0, r8
    144c:	09105500 	ldmdbeq	r0, {r8, sl, ip, lr}
    1450:	09200000 	stmdbeq	r0!, {}	; <UNPREDICTABLE>
    1454:	00010000 	andeq	r0, r1, r0
    1458:	00000055 	andeq	r0, r0, r5, asr r0
    145c:	00000000 	andeq	r0, r0, r0
    1460:	00000400 	andeq	r0, r0, r0, lsl #8
    1464:	00010000 	andeq	r0, r1, r0
    1468:	00010000 	andeq	r0, r1, r0
    146c:	00060800 	andeq	r0, r6, r0, lsl #16
    1470:	0006b000 	andeq	fp, r6, r0
    1474:	91000400 	tstls	r0, r0, lsl #8
    1478:	b09f7ed0 			; <UNDEFINED> instruction: 0xb09f7ed0
    147c:	c8000006 	stmdagt	r0, {r1, r2}
    1480:	01000006 	tsteq	r0, r6
    1484:	06c85000 	strbeq	r5, [r8], r0
    1488:	06d00000 	ldrbeq	r0, [r0], r0
    148c:	00040000 	andeq	r0, r4, r0
    1490:	9f7ed091 	svcls	0x007ed091
    1494:	000008a8 	andeq	r0, r0, r8, lsr #17
    1498:	000008b0 			; <UNDEFINED> instruction: 0x000008b0
    149c:	d0910004 	addsle	r0, r1, r4
    14a0:	08b09f7e 	ldmeq	r0!, {r1, r2, r3, r4, r5, r6, r8, r9, sl, fp, ip, pc}
    14a4:	08b80000 	ldmeq	r8!, {}	; <UNPREDICTABLE>
    14a8:	00010000 	andeq	r0, r1, r0
    14ac:	00091053 	andeq	r1, r9, r3, asr r0
    14b0:	00092000 	andeq	r2, r9, r0
    14b4:	91000400 	tstls	r0, r0, lsl #8
    14b8:	009f7ed0 			; <UNDEFINED> instruction: 0x009f7ed0
    14bc:	00000000 	andeq	r0, r0, r0
    14c0:	04000000 	streq	r0, [r0], #-0
    14c4:	01010000 	mrseq	r0, (UNDEF: 1)
    14c8:	03030101 	movweq	r0, #12545	; 0x3101
    14cc:	00010002 	andeq	r0, r1, r2
    14d0:	08000000 	stmdaeq	r0, {}	; <UNPREDICTABLE>
    14d4:	24000006 	strcs	r0, [r0], #-6
    14d8:	04000006 	streq	r0, [r0], #-6
    14dc:	7ed19100 	atnvcs	f1, f0
    14e0:	0006849f 	muleq	r6, pc, r4	; <UNPREDICTABLE>
    14e4:	00068400 	andeq	r8, r6, r0, lsl #8
    14e8:	50000100 	andpl	r0, r0, r0, lsl #2
    14ec:	00000684 	andeq	r0, r0, r4, lsl #13
    14f0:	00000698 	muleq	r0, r8, r6
    14f4:	01700003 	cmneq	r0, r3
    14f8:	0006989f 	muleq	r6, pc, r8	; <UNPREDICTABLE>
    14fc:	0006a400 	andeq	sl, r6, r0, lsl #8
    1500:	70000300 	andvc	r0, r0, r0, lsl #6
    1504:	06a49f02 	strteq	r9, [r4], r2, lsl #30
    1508:	06a80000 	strteq	r0, [r8], r0
    150c:	00030000 	andeq	r0, r3, r0
    1510:	a89f0370 	ldmge	pc, {r4, r5, r6, r8, r9}	; <UNPREDICTABLE>
    1514:	b8000008 	stmdalt	r0, {r3}
    1518:	04000008 	streq	r0, [r0], #-8
    151c:	7ed19100 	atnvcs	f1, f0
    1520:	0009109f 	muleq	r9, pc, r0	; <UNPREDICTABLE>
    1524:	00091400 	andeq	r1, r9, r0, lsl #8
    1528:	91000400 	tstls	r0, r0, lsl #8
    152c:	149f7ed1 	ldrne	r7, [pc], #3793	; 1534 <__code_start__-0x6acc>
    1530:	20000009 	andcs	r0, r0, r9
    1534:	01000009 	tsteq	r0, r9
    1538:	00005c00 	andeq	r5, r0, r0, lsl #24
    153c:	00000000 	andeq	r0, r0, r0
    1540:	00060000 	andeq	r0, r6, r0
    1544:	01010100 	mrseq	r0, (UNDEF: 17)
    1548:	02010101 	andeq	r0, r1, #1073741824	; 0x40000000
    154c:	00000100 	andeq	r0, r0, r0, lsl #2
    1550:	00000608 	andeq	r0, r0, r8, lsl #12
    1554:	00000624 	andeq	r0, r0, r4, lsr #12
    1558:	9f310002 	svcls	0x00310002
    155c:	00000684 	andeq	r0, r0, r4, lsl #13
    1560:	00000694 	muleq	r0, r4, r6
    1564:	94520001 	ldrbls	r0, [r2], #-1
    1568:	a4000006 	strge	r0, [r0], #-6
    156c:	01000006 	tsteq	r0, r6
    1570:	06a45900 	strteq	r5, [r4], r0, lsl #18
    1574:	06a80000 	strteq	r0, [r8], r0
    1578:	00010000 	andeq	r0, r1, r0
    157c:	0006a852 	andeq	sl, r6, r2, asr r8
    1580:	0006a800 	andeq	sl, r6, r0, lsl #16
    1584:	72000300 	andvc	r0, r0, #0, 6
    1588:	08a89f01 	stmiaeq	r8!, {r0, r8, r9, sl, fp, ip, pc}
    158c:	08b80000 	ldmeq	r8!, {}	; <UNPREDICTABLE>
    1590:	00020000 	andeq	r0, r2, r0
    1594:	09109f31 	ldmdbeq	r0, {r0, r4, r5, r8, r9, sl, fp, ip, pc}
    1598:	09200000 	stmdbeq	r0!, {}	; <UNPREDICTABLE>
    159c:	00020000 	andeq	r0, r2, r0
    15a0:	00009f31 	andeq	r9, r0, r1, lsr pc
    15a4:	00000000 	andeq	r0, r0, r0
    15a8:	06010000 	streq	r0, [r1], -r0
    15ac:	00010006 	andeq	r0, r1, r6
    15b0:	000006d0 	ldrdeq	r0, [r0], -r0	; <UNPREDICTABLE>
    15b4:	000006d0 	ldrdeq	r0, [r0], -r0	; <UNPREDICTABLE>
    15b8:	d0910004 	addsle	r0, r1, r4
    15bc:	06d09f7e 			; <UNDEFINED> instruction: 0x06d09f7e
    15c0:	07000000 	streq	r0, [r0, -r0]
    15c4:	00010000 	andeq	r0, r1, r0
    15c8:	0008b850 	andeq	fp, r8, r0, asr r8
    15cc:	0008bc00 	andeq	fp, r8, r0, lsl #24
    15d0:	53000100 	movwpl	r0, #256	; 0x100
	...
    15dc:	00000801 	andeq	r0, r0, r1, lsl #16
    15e0:	00010100 	andeq	r0, r1, r0, lsl #2
    15e4:	06d00701 	ldrbeq	r0, [r0], r1, lsl #14
    15e8:	06d00000 	ldrbeq	r0, [r0], r0
    15ec:	00060000 	andeq	r0, r6, r0
    15f0:	0071007c 	rsbseq	r0, r1, ip, ror r0
    15f4:	06e49f22 	strbteq	r9, [r4], r2, lsr #30
    15f8:	06e80000 	strbteq	r0, [r8], r0
    15fc:	00030000 	andeq	r0, r3, r0
    1600:	e89f7f73 	ldm	pc, {r0, r1, r4, r5, r6, r8, r9, sl, fp, ip, sp, lr}	; <UNPREDICTABLE>
    1604:	f0000006 			; <UNDEFINED> instruction: 0xf0000006
    1608:	01000006 	tsteq	r0, r6
    160c:	06f05300 	ldrbteq	r5, [r0], r0, lsl #6
    1610:	06f80000 	ldrbteq	r0, [r8], r0
    1614:	00030000 	andeq	r0, r3, r0
    1618:	b89f7f73 	ldmlt	pc, {r0, r1, r4, r5, r6, r8, r9, sl, fp, ip, sp, lr}	; <UNPREDICTABLE>
    161c:	b8000008 	stmdalt	r0, {r3}
    1620:	04000008 	streq	r0, [r0], #-8
    1624:	7ed19100 	atnvcs	f1, f0
    1628:	0000009f 	muleq	r0, pc, r0	; <UNPREDICTABLE>
    162c:	00000000 	andeq	r0, r0, r0
    1630:	01000100 	mrseq	r0, (UNDEF: 16)
    1634:	0006d000 	andeq	sp, r6, r0
    1638:	00070000 	andeq	r0, r7, r0
    163c:	08000300 	stmdaeq	r0, {r8, r9}
    1640:	08b89f80 	ldmeq	r8!, {r7, r8, r9, sl, fp, ip, pc}
    1644:	08bc0000 	ldmeq	ip!, {}	; <UNPREDICTABLE>
    1648:	00030000 	andeq	r0, r3, r0
    164c:	009f8008 	addseq	r8, pc, r8
    1650:	00000000 	andeq	r0, r0, r0
    1654:	01000000 	mrseq	r0, (UNDEF: 0)
    1658:	00000000 	andeq	r0, r0, r0
    165c:	00000101 	andeq	r0, r0, r1, lsl #2
    1660:	01010200 	mrseq	r0, R9_usr
    1664:	0006d000 	andeq	sp, r6, r0
    1668:	0006e000 	andeq	lr, r6, r0
    166c:	91000400 	tstls	r0, r0, lsl #8
    1670:	e09f7dd0 			; <UNDEFINED> instruction: 0xe09f7dd0
    1674:	e4000006 	str	r0, [r0], #-6
    1678:	01000006 	tsteq	r0, r6
    167c:	06e45500 	strbteq	r5, [r4], r0, lsl #10
    1680:	06e40000 	strbteq	r0, [r4], r0
    1684:	00030000 	andeq	r0, r3, r0
    1688:	e49f0172 	ldr	r0, [pc], #370	; 1690 <__code_start__-0x6970>
    168c:	f0000006 			; <UNDEFINED> instruction: 0xf0000006
    1690:	03000006 	movweq	r0, #6
    1694:	9f027200 	svcls	0x00027200
    1698:	000006f0 	strdeq	r0, [r0], -r0	; <UNPREDICTABLE>
    169c:	00000700 	andeq	r0, r0, r0, lsl #14
    16a0:	01720003 	cmneq	r2, r3
    16a4:	0007ec9f 	muleq	r7, pc, ip	; <UNPREDICTABLE>
    16a8:	0007f400 	andeq	pc, r7, r0, lsl #8
    16ac:	73000300 	movwvc	r0, #768	; 0x300
    16b0:	08b89f01 	ldmeq	r8!, {r0, r8, r9, sl, fp, ip, pc}
    16b4:	08bc0000 	ldmeq	ip!, {}	; <UNPREDICTABLE>
    16b8:	00040000 	andeq	r0, r4, r0
    16bc:	9f7dd091 	svcls	0x007dd091
	...
    16c8:	08b80004 	ldmeq	r8!, {r2}
    16cc:	08bc0000 	ldmeq	ip!, {}	; <UNPREDICTABLE>
    16d0:	00020000 	andeq	r0, r2, r0
    16d4:	00009f32 	andeq	r9, r0, r2, lsr pc
    16d8:	00000000 	andeq	r0, r0, r0
    16dc:	00070000 	andeq	r0, r7, r0
    16e0:	00060000 	andeq	r0, r6, r0
    16e4:	000006d0 	ldrdeq	r0, [r0], -r0	; <UNPREDICTABLE>
    16e8:	000006e0 	andeq	r0, r0, r0, ror #13
    16ec:	d0910004 	addsle	r0, r1, r4
    16f0:	06e09f7d 			; <UNDEFINED> instruction: 0x06e09f7d
    16f4:	07000000 	streq	r0, [r0, -r0]
    16f8:	00010000 	andeq	r0, r1, r0
    16fc:	0008b855 	andeq	fp, r8, r5, asr r8
    1700:	0008bc00 	andeq	fp, r8, r0, lsl #24
    1704:	91000400 	tstls	r0, r0, lsl #8
    1708:	009f7dd0 			; <UNDEFINED> instruction: 0x009f7dd0
    170c:	00000000 	andeq	r0, r0, r0
    1710:	01000000 	mrseq	r0, (UNDEF: 0)
    1714:	0c000000 	stceq	0, cr0, [r0], {-0}
    1718:	ec000007 	stc	0, cr0, [r0], {7}
    171c:	03000007 	movweq	r0, #7
    1720:	9f800800 	svcls	0x00800800
    1724:	00000894 	muleq	r0, r4, r8
    1728:	000008a8 	andeq	r0, r0, r8, lsr #17
    172c:	80080003 	andhi	r0, r8, r3
    1730:	0000009f 	muleq	r0, pc, r0	; <UNPREDICTABLE>
	...
    173c:	00070c00 	andeq	r0, r7, r0, lsl #24
    1740:	0007ec00 	andeq	lr, r7, r0, lsl #24
    1744:	30000200 	andcc	r0, r0, r0, lsl #4
    1748:	0008949f 	muleq	r8, pc, r4	; <UNPREDICTABLE>
    174c:	0008a800 	andeq	sl, r8, r0, lsl #16
    1750:	30000200 	andcc	r0, r0, r0, lsl #4
    1754:	0000009f 	muleq	r0, pc, r0	; <UNPREDICTABLE>
	...
    1760:	00070c00 	andeq	r0, r7, r0, lsl #24
    1764:	0007d000 	andeq	sp, r7, r0
    1768:	55000100 	strpl	r0, [r0, #-256]	; 0xffffff00
    176c:	00000894 	muleq	r0, r4, r8
    1770:	000008a8 	andeq	r0, r0, r8, lsr #17
    1774:	00550001 	subseq	r0, r5, r1
	...
    1784:	00070c00 	andeq	r0, r7, r0, lsl #24
    1788:	0007d000 	andeq	sp, r7, r0
    178c:	91000400 	tstls	r0, r0, lsl #8
    1790:	d09f7dd0 			; <UNDEFINED> instruction: 0xd09f7dd0
    1794:	ec000007 	stc	0, cr0, [r0], {7}
    1798:	01000007 	tsteq	r0, r7
    179c:	08945500 	ldmeq	r4, {r8, sl, ip, lr}
    17a0:	08a80000 	stmiaeq	r8!, {}	; <UNPREDICTABLE>
    17a4:	00040000 	andeq	r0, r4, r0
    17a8:	9f7dd091 	svcls	0x007dd091
	...
    17b8:	0000070c 	andeq	r0, r0, ip, lsl #14
    17bc:	000007ec 	andeq	r0, r0, ip, ror #15
    17c0:	9f320002 	svcls	0x00320002
    17c4:	00000894 	muleq	r0, r4, r8
    17c8:	000008a8 	andeq	r0, r0, r8, lsr #17
    17cc:	9f320002 	svcls	0x00320002
	...
    17d8:	00050503 	andeq	r0, r5, r3, lsl #10
    17dc:	00000000 	andeq	r0, r0, r0
    17e0:	070c0000 	streq	r0, [ip, -r0]
    17e4:	070c0000 	streq	r0, [ip, -r0]
    17e8:	00010000 	andeq	r0, r1, r0
    17ec:	00070c51 	andeq	r0, r7, r1, asr ip
    17f0:	00071c00 	andeq	r1, r7, r0, lsl #24
    17f4:	53000100 	movwpl	r0, #256	; 0x100
    17f8:	0000071c 	andeq	r0, r0, ip, lsl r7
    17fc:	00000724 	andeq	r0, r0, r4, lsr #14
    1800:	01720003 	cmneq	r2, r3
    1804:	0007249f 	muleq	r7, pc, r4	; <UNPREDICTABLE>
    1808:	0007cc00 	andeq	ip, r7, r0, lsl #24
    180c:	53000100 	movwpl	r0, #256	; 0x100
    1810:	00000894 	muleq	r0, r4, r8
    1814:	000008a8 	andeq	r0, r0, r8, lsr #17
    1818:	00530001 	subseq	r0, r3, r1
    181c:	00000000 	andeq	r0, r0, r0
    1820:	05000000 	streq	r0, [r0, #-0]
    1824:	0c000100 	stfeqs	f0, [r0], {-0}
    1828:	20000007 	andcs	r0, r0, r7
    182c:	01000007 	tsteq	r0, r7
    1830:	07245000 	streq	r5, [r4, -r0]!
    1834:	072c0000 	streq	r0, [ip, -r0]!
    1838:	00010000 	andeq	r0, r1, r0
    183c:	00000050 	andeq	r0, r0, r0, asr r0
    1840:	00000000 	andeq	r0, r0, r0
    1844:	00010300 	andeq	r0, r1, r0, lsl #6
    1848:	00072801 	andeq	r2, r7, r1, lsl #16
    184c:	0007b000 	andeq	fp, r7, r0
    1850:	55000100 	strpl	r0, [r0, #-256]	; 0xffffff00
    1854:	00000894 	muleq	r0, r4, r8
    1858:	000008a0 	andeq	r0, r0, r0, lsr #17
    185c:	00550001 	subseq	r0, r5, r1
    1860:	00000000 	andeq	r0, r0, r0
    1864:	03000000 	movweq	r0, #0
    1868:	28010001 	stmdacs	r1, {r0}
    186c:	b0000007 	andlt	r0, r0, r7
    1870:	01000007 	tsteq	r0, r7
    1874:	08945100 	ldmeq	r4, {r8, ip, lr}
    1878:	08a00000 	stmiaeq	r0!, {}	; <UNPREDICTABLE>
    187c:	00010000 	andeq	r0, r1, r0
    1880:	00000051 	andeq	r0, r0, r1, asr r0
    1884:	00000000 	andeq	r0, r0, r0
    1888:	00000300 	andeq	r0, r0, r0, lsl #6
    188c:	01010101 	tsteq	r1, r1, lsl #2
    1890:	00020303 	andeq	r0, r2, r3, lsl #6
    1894:	00072801 	andeq	r2, r7, r1, lsl #16
    1898:	00075000 	andeq	r5, r7, r0
    189c:	53000100 	movwpl	r0, #256	; 0x100
    18a0:	00000774 	andeq	r0, r0, r4, ror r7
    18a4:	00000774 	andeq	r0, r0, r4, ror r7
    18a8:	745e0001 	ldrbvc	r0, [lr], #-1
    18ac:	88000007 	stmdahi	r0, {r0, r1, r2}
    18b0:	03000007 	movweq	r0, #7
    18b4:	9f017e00 	svcls	0x00017e00
    18b8:	00000788 	andeq	r0, r0, r8, lsl #15
    18bc:	00000794 	muleq	r0, r4, r7
    18c0:	027e0003 	rsbseq	r0, lr, #3, 0
    18c4:	0007949f 	muleq	r7, pc, r4	; <UNPREDICTABLE>
    18c8:	00079800 	andeq	r9, r7, r0, lsl #16
    18cc:	7e000300 	cdpvc	3, 0, cr0, cr0, cr0, {0}
    18d0:	08949f03 	ldmeq	r4, {r0, r1, r8, r9, sl, fp, ip, pc}
    18d4:	08a00000 	stmiaeq	r0!, {}	; <UNPREDICTABLE>
    18d8:	00010000 	andeq	r0, r1, r0
    18dc:	00000053 	andeq	r0, r0, r3, asr r0
	...
    18e8:	01010101 	tsteq	r1, r1, lsl #2
    18ec:	00020101 	andeq	r0, r2, r1, lsl #2
    18f0:	00072c01 	andeq	r2, r7, r1, lsl #24
    18f4:	00075000 	andeq	r5, r7, r0
    18f8:	50000100 	andpl	r0, r0, r0, lsl #2
    18fc:	00000774 	andeq	r0, r0, r4, ror r7
    1900:	00000784 	andeq	r0, r0, r4, lsl #15
    1904:	84500001 	ldrbhi	r0, [r0], #-1
    1908:	94000007 	strls	r0, [r0], #-7
    190c:	01000007 	tsteq	r0, r7
    1910:	07945b00 	ldreq	r5, [r4, r0, lsl #22]
    1914:	07980000 	ldreq	r0, [r8, r0]
    1918:	00010000 	andeq	r0, r1, r0
    191c:	00079850 	andeq	r9, r7, r0, asr r8
    1920:	00079800 	andeq	r9, r7, r0, lsl #16
    1924:	70000300 	andvc	r0, r0, r0, lsl #6
    1928:	08949f01 	ldmeq	r4, {r0, r8, r9, sl, fp, ip, pc}
    192c:	08a00000 	stmiaeq	r0!, {}	; <UNPREDICTABLE>
    1930:	00010000 	andeq	r0, r1, r0
    1934:	00000050 	andeq	r0, r0, r0, asr r0
    1938:	00000000 	andeq	r0, r0, r0
    193c:	01000100 	mrseq	r0, (UNDEF: 16)
    1940:	0007b000 	andeq	fp, r7, r0
    1944:	0007ec00 	andeq	lr, r7, r0, lsl #24
    1948:	51000100 	mrspl	r0, (UNDEF: 16)
    194c:	000008a0 	andeq	r0, r0, r0, lsr #17
    1950:	000008a8 	andeq	r0, r0, r8, lsr #17
    1954:	00510001 	subseq	r0, r1, r1
    1958:	00000000 	andeq	r0, r0, r0
    195c:	01000000 	mrseq	r0, (UNDEF: 0)
    1960:	00000000 	andeq	r0, r0, r0
    1964:	01000101 	tsteq	r0, r1, lsl #2
    1968:	0007b000 	andeq	fp, r7, r0
    196c:	0007b400 	andeq	fp, r7, r0, lsl #8
    1970:	73000600 	movwvc	r0, #1536	; 0x600
    1974:	22007c00 	andcs	r7, r0, #0, 24
    1978:	0007d49f 	muleq	r7, pc, r4	; <UNPREDICTABLE>
    197c:	0007d800 	andeq	sp, r7, r0, lsl #16
    1980:	73000300 	movwvc	r0, #768	; 0x300
    1984:	07d89f7f 			; <UNDEFINED> instruction: 0x07d89f7f
    1988:	07e00000 	strbeq	r0, [r0, r0]!
    198c:	00010000 	andeq	r0, r1, r0
    1990:	0007e053 	andeq	lr, r7, r3, asr r0
    1994:	0007e800 	andeq	lr, r7, r0, lsl #16
    1998:	73000300 	movwvc	r0, #768	; 0x300
    199c:	08a09f7f 	stmiaeq	r0!, {r0, r1, r2, r3, r4, r5, r6, r8, r9, sl, fp, ip, pc}
    19a0:	08a80000 	stmiaeq	r8!, {}	; <UNPREDICTABLE>
    19a4:	00010000 	andeq	r0, r1, r0
    19a8:	00000053 	andeq	r0, r0, r3, asr r0
    19ac:	00000000 	andeq	r0, r0, r0
    19b0:	01000100 	mrseq	r0, (UNDEF: 16)
    19b4:	0007b000 	andeq	fp, r7, r0
    19b8:	0007ec00 	andeq	lr, r7, r0, lsl #24
    19bc:	08000300 	stmdaeq	r0, {r8, r9}
    19c0:	08a09f80 	stmiaeq	r0!, {r7, r8, r9, sl, fp, ip, pc}
    19c4:	08a80000 	stmiaeq	r8!, {}	; <UNPREDICTABLE>
    19c8:	00030000 	andeq	r0, r3, r0
    19cc:	009f8008 	addseq	r8, pc, r8
    19d0:	00000000 	andeq	r0, r0, r0
    19d4:	01000000 	mrseq	r0, (UNDEF: 0)
    19d8:	00000000 	andeq	r0, r0, r0
    19dc:	00000101 	andeq	r0, r0, r1, lsl #2
    19e0:	b0000100 	andlt	r0, r0, r0, lsl #2
    19e4:	d0000007 	andle	r0, r0, r7
    19e8:	04000007 	streq	r0, [r0], #-7
    19ec:	7dd09100 	ldfvcp	f1, [r0]
    19f0:	0007d09f 	muleq	r7, pc, r0	; <UNPREDICTABLE>
    19f4:	0007d400 	andeq	sp, r7, r0, lsl #8
    19f8:	55000100 	strpl	r0, [r0, #-256]	; 0xffffff00
    19fc:	000007d4 	ldrdeq	r0, [r0], -r4
    1a00:	000007d4 	ldrdeq	r0, [r0], -r4
    1a04:	017c0003 	cmneq	ip, r3
    1a08:	0007d49f 	muleq	r7, pc, r4	; <UNPREDICTABLE>
    1a0c:	0007e000 	andeq	lr, r7, r0
    1a10:	7c000300 	stcvc	3, cr0, [r0], {-0}
    1a14:	07e09f02 	strbeq	r9, [r0, r2, lsl #30]!
    1a18:	07ec0000 	strbeq	r0, [ip, r0]!
    1a1c:	00030000 	andeq	r0, r3, r0
    1a20:	a09f017c 	addsge	r0, pc, ip, ror r1	; <UNPREDICTABLE>
    1a24:	a8000008 	stmdage	r0, {r3}
    1a28:	04000008 	streq	r0, [r0], #-8
    1a2c:	7dd09100 	ldfvcp	f1, [r0]
    1a30:	0000009f 	muleq	r0, pc, r0	; <UNPREDICTABLE>
    1a34:	00000000 	andeq	r0, r0, r0
    1a38:	04000400 	streq	r0, [r0], #-1024	; 0xfffffc00
    1a3c:	0007b000 	andeq	fp, r7, r0
    1a40:	0007b400 	andeq	fp, r7, r0, lsl #8
    1a44:	70000300 	andvc	r0, r0, r0, lsl #6
    1a48:	08a09f01 	stmiaeq	r0!, {r0, r8, r9, sl, fp, ip, pc}
    1a4c:	08a80000 	stmiaeq	r8!, {}	; <UNPREDICTABLE>
    1a50:	00030000 	andeq	r0, r3, r0
    1a54:	009f0170 	addseq	r0, pc, r0, ror r1	; <UNPREDICTABLE>
    1a58:	00000000 	andeq	r0, r0, r0
    1a5c:	01000000 	mrseq	r0, (UNDEF: 0)
    1a60:	bc000000 	stclt	0, cr0, [r0], {-0}
    1a64:	d0000007 	andle	r0, r0, r7
    1a68:	04000007 	streq	r0, [r0], #-7
    1a6c:	7dd09100 	ldfvcp	f1, [r0]
    1a70:	0007d09f 	muleq	r7, pc, r0	; <UNPREDICTABLE>
    1a74:	0007ec00 	andeq	lr, r7, r0, lsl #24
    1a78:	55000100 	strpl	r0, [r0, #-256]	; 0xffffff00
	...
    1a88:	00000328 	andeq	r0, r0, r8, lsr #6
    1a8c:	00000364 	andeq	r0, r0, r4, ror #6
    1a90:	64500001 	ldrbvs	r0, [r0], #-1
    1a94:	88000003 	stmdahi	r0, {r0, r1}
    1a98:	04000003 	streq	r0, [r0], #-3
    1a9c:	5001f300 	andpl	pc, r1, r0, lsl #6
    1aa0:	0000009f 	muleq	r0, pc, r0	; <UNPREDICTABLE>
	...
    1aac:	00032800 	andeq	r2, r3, r0, lsl #16
    1ab0:	00035c00 	andeq	r5, r3, r0, lsl #24
    1ab4:	51000100 	mrspl	r0, (UNDEF: 16)
    1ab8:	0000035c 	andeq	r0, r0, ip, asr r3
    1abc:	00000388 	andeq	r0, r0, r8, lsl #7
    1ac0:	01f30004 	mvnseq	r0, r4
    1ac4:	00009f51 	andeq	r9, r0, r1, asr pc
	...
    1ae8:	00140000 	andseq	r0, r4, r0
    1aec:	00010000 	andeq	r0, r1, r0
    1af0:	00001450 	andeq	r1, r0, r0, asr r4
    1af4:	00002000 	andeq	r2, r0, r0
    1af8:	5c000100 	stfpls	f0, [r0], {-0}
    1afc:	00000020 	andeq	r0, r0, r0, lsr #32
    1b00:	00000068 	andeq	r0, r0, r8, rrx
    1b04:	02710003 	rsbseq	r0, r1, #3, 0
    1b08:	0000689f 	muleq	r0, pc, r8	; <UNPREDICTABLE>
    1b0c:	00006c00 	andeq	r6, r0, r0, lsl #24
    1b10:	73000300 	movwvc	r0, #768	; 0x300
    1b14:	006c9f02 	rsbeq	r9, ip, r2, lsl #30
    1b18:	01940000 	orrseq	r0, r4, r0
    1b1c:	00040000 	andeq	r0, r4, r0
    1b20:	9f5001f3 	svcls	0x005001f3
    1b24:	00000194 	muleq	r0, r4, r1
    1b28:	00000198 	muleq	r0, r8, r1
    1b2c:	02730003 	rsbseq	r0, r3, #3, 0
    1b30:	0001989f 	muleq	r1, pc, r8	; <UNPREDICTABLE>
    1b34:	0001c000 	andeq	ip, r1, r0
    1b38:	f3000400 	vshl.u8	d0, d0, d0
    1b3c:	c09f5001 	addsgt	r5, pc, r1
    1b40:	c8000001 	stmdagt	r0, {r0}
    1b44:	01000001 	tsteq	r0, r1
    1b48:	01c85c00 	biceq	r5, r8, r0, lsl #24
    1b4c:	02140000 	andseq	r0, r4, #0, 0
    1b50:	00030000 	andeq	r0, r3, r0
    1b54:	149f0273 	ldrne	r0, [pc], #627	; 1b5c <__code_start__-0x64a4>
    1b58:	ec000002 	stc	0, cr0, [r0], {2}
    1b5c:	04000002 	streq	r0, [r0], #-2
    1b60:	5001f300 	andpl	pc, r1, r0, lsl #6
    1b64:	0002ec9f 	muleq	r2, pc, ip	; <UNPREDICTABLE>
    1b68:	0002f400 	andeq	pc, r2, r0, lsl #8
    1b6c:	73000300 	movwvc	r0, #768	; 0x300
    1b70:	02f49f02 	rscseq	r9, r4, #2, 30
    1b74:	03280000 			; <UNDEFINED> instruction: 0x03280000
    1b78:	00040000 	andeq	r0, r4, r0
    1b7c:	9f5001f3 	svcls	0x005001f3
	...
    1b94:	0000001c 	andeq	r0, r0, ip, lsl r0
    1b98:	1c510001 	mrrcne	0, 0, r0, r1, cr1
    1b9c:	e0000000 	and	r0, r0, r0
    1ba0:	01000002 	tsteq	r0, r2
    1ba4:	02e05000 	rsceq	r5, r0, #0, 0
    1ba8:	02ec0000 	rsceq	r0, ip, #0, 0
    1bac:	00040000 	andeq	r0, r4, r0
    1bb0:	9f5101f3 	svcls	0x005101f3
    1bb4:	000002ec 	andeq	r0, r0, ip, ror #5
    1bb8:	00000328 	andeq	r0, r0, r8, lsr #6
    1bbc:	00500001 	subseq	r0, r0, r1
	...
    1bcc:	00000001 	andeq	r0, r0, r1
    1bd0:	00000000 	andeq	r0, r0, r0
    1bd4:	00000202 	andeq	r0, r0, r2, lsl #4
	...
    1be8:	70000000 	andvc	r0, r0, r0
    1bec:	01000000 	mrseq	r0, (UNDEF: 0)
    1bf0:	00705200 	rsbseq	r5, r0, r0, lsl #4
    1bf4:	00780000 	rsbseq	r0, r8, r0
    1bf8:	00010000 	andeq	r0, r1, r0
    1bfc:	0000785c 	andeq	r7, r0, ip, asr r8
    1c00:	0000a400 	andeq	sl, r0, r0, lsl #8
    1c04:	f3000400 	vshl.u8	d0, d0, d0
    1c08:	949f5201 	ldrls	r5, [pc], #513	; 1c10 <__code_start__-0x63f0>
    1c0c:	9c000001 	stcls	0, cr0, [r0], {1}
    1c10:	01000001 	tsteq	r0, r1
    1c14:	019c5200 	orrseq	r5, ip, r0, lsl #4
    1c18:	01a40000 			; <UNDEFINED> instruction: 0x01a40000
    1c1c:	00010000 	andeq	r0, r1, r0
    1c20:	0001a45c 	andeq	sl, r1, ip, asr r4
    1c24:	0001c000 	andeq	ip, r1, r0
    1c28:	f3000400 	vshl.u8	d0, d0, d0
    1c2c:	c09f5201 	addsgt	r5, pc, r1, lsl #4
    1c30:	20000001 	andcs	r0, r0, r1
    1c34:	01000002 	tsteq	r0, r2
    1c38:	02205200 	eoreq	r5, r0, #0, 4
    1c3c:	02280000 	eoreq	r0, r8, #0, 0
    1c40:	00040000 	andeq	r0, r4, r0
    1c44:	9f1f0072 	svcls	0x001f0072
    1c48:	00000228 	andeq	r0, r0, r8, lsr #4
    1c4c:	00000274 	andeq	r0, r0, r4, ror r2
    1c50:	01f30005 	mvnseq	r0, r5
    1c54:	749f1f52 	ldrvc	r1, [pc], #3922	; 1c5c <__code_start__-0x63a4>
    1c58:	88000002 	stmdahi	r0, {r1}
    1c5c:	01000002 	tsteq	r0, r2
    1c60:	02885200 	addeq	r5, r8, #0, 4
    1c64:	02a00000 	adceq	r0, r0, #0, 0
    1c68:	00010000 	andeq	r0, r1, r0
    1c6c:	0002cc5c 	andeq	ip, r2, ip, asr ip
    1c70:	0002d000 	andeq	sp, r2, r0
    1c74:	52000100 	andpl	r0, r0, #0
    1c78:	000002d0 	ldrdeq	r0, [r0], -r0	; <UNPREDICTABLE>
    1c7c:	000002e7 	andeq	r0, r0, r7, ror #5
    1c80:	e75c0001 	ldrb	r0, [ip, -r1]
    1c84:	ec000002 	stc	0, cr0, [r0], {2}
    1c88:	04000002 	streq	r0, [r0], #-2
    1c8c:	5201f300 	andpl	pc, r1, #0, 6
    1c90:	0002ec9f 	muleq	r2, pc, ip	; <UNPREDICTABLE>
    1c94:	00030000 	andeq	r0, r3, r0
    1c98:	52000100 	andpl	r0, r0, #0
    1c9c:	00000300 	andeq	r0, r0, r0, lsl #6
    1ca0:	00000328 	andeq	r0, r0, r8, lsr #6
    1ca4:	005c0001 	subseq	r0, ip, r1
	...
    1cc0:	00006800 	andeq	r6, r0, r0, lsl #16
    1cc4:	53000100 	movwpl	r0, #256	; 0x100
    1cc8:	00000068 	andeq	r0, r0, r8, rrx
    1ccc:	0000006c 	andeq	r0, r0, ip, rrx
    1cd0:	7f080003 	svcvc	0x00080003
    1cd4:	0001949f 	muleq	r1, pc, r4	; <UNPREDICTABLE>
    1cd8:	00019800 	andeq	r9, r1, r0, lsl #16
    1cdc:	08000300 	stmdaeq	r0, {r8, r9}
    1ce0:	01c09f7f 	biceq	r9, r0, pc, ror pc
    1ce4:	02140000 	andseq	r0, r4, #0, 0
    1ce8:	00030000 	andeq	r0, r3, r0
    1cec:	749f7f08 	ldrvc	r7, [pc], #3848	; 1cf4 <__code_start__-0x630c>
    1cf0:	90000002 	andls	r0, r0, r2
    1cf4:	01000002 	tsteq	r0, r2
    1cf8:	02905300 	addseq	r5, r0, #0, 6
    1cfc:	02a00000 	adceq	r0, r0, #0, 0
    1d00:	00040000 	andeq	r0, r4, r0
    1d04:	9f5301f3 	svcls	0x005301f3
    1d08:	000002ec 	andeq	r0, r0, ip, ror #5
    1d0c:	00000328 	andeq	r0, r0, r8, lsr #6
    1d10:	7f080003 	svcvc	0x00080003
    1d14:	0000009f 	muleq	r0, pc, r0	; <UNPREDICTABLE>
    1d18:	00000000 	andeq	r0, r0, r0
    1d1c:	00000100 	andeq	r0, r0, r0, lsl #2
    1d20:	02020000 	andeq	r0, r2, #0, 0
    1d24:	01010000 	mrseq	r0, (UNDEF: 1)
	...
    1d30:	00000202 	andeq	r0, r0, r2, lsl #4
    1d34:	00000100 	andeq	r0, r0, r0, lsl #2
    1d38:	00000000 	andeq	r0, r0, r0
    1d3c:	01010000 	mrseq	r0, (UNDEF: 1)
    1d40:	00000000 	andeq	r0, r0, r0
    1d44:	00000202 	andeq	r0, r0, r2, lsl #4
    1d48:	00000000 	andeq	r0, r0, r0
    1d4c:	00000101 	andeq	r0, r0, r1, lsl #2
    1d50:	00001800 	andeq	r1, r0, r0, lsl #16
    1d54:	00007000 	andeq	r7, r0, r0
    1d58:	91000400 	tstls	r0, r0, lsl #8
    1d5c:	709f7fa0 	addsvc	r7, pc, r0, lsr #31
    1d60:	78000000 	stmdavc	r0, {}	; <UNPREDICTABLE>
    1d64:	01000000 	mrseq	r0, (UNDEF: 0)
    1d68:	00785200 	rsbseq	r5, r8, r0, lsl #4
    1d6c:	00780000 	rsbseq	r0, r8, r0
    1d70:	00010000 	andeq	r0, r1, r0
    1d74:	00007854 	andeq	r7, r0, r4, asr r8
    1d78:	00008800 	andeq	r8, r0, r0, lsl #16
    1d7c:	74000300 	strvc	r0, [r0], #-768	; 0xfffffd00
    1d80:	00889f01 	addeq	r9, r8, r1, lsl #30
    1d84:	00900000 	addseq	r0, r0, r0
    1d88:	00010000 	andeq	r0, r1, r0
    1d8c:	00009054 	andeq	r9, r0, r4, asr r0
    1d90:	0000a000 	andeq	sl, r0, r0
    1d94:	74000300 	strvc	r0, [r0], #-768	; 0xfffffd00
    1d98:	00a09f02 	adceq	r9, r0, r2, lsl #30
    1d9c:	00b00000 	adcseq	r0, r0, r0
    1da0:	00010000 	andeq	r0, r1, r0
    1da4:	0001945e 	andeq	r9, r1, lr, asr r4
    1da8:	00019c00 	andeq	r9, r1, r0, lsl #24
    1dac:	91000400 	tstls	r0, r0, lsl #8
    1db0:	9c9f7fa0 	ldcls	15, cr7, [pc], {160}	; 0xa0
    1db4:	a4000001 	strge	r0, [r0], #-1
    1db8:	01000001 	tsteq	r0, r1
    1dbc:	01a45200 			; <UNDEFINED> instruction: 0x01a45200
    1dc0:	01a40000 			; <UNDEFINED> instruction: 0x01a40000
    1dc4:	00010000 	andeq	r0, r1, r0
    1dc8:	0001a45e 	andeq	sl, r1, lr, asr r4
    1dcc:	0001b400 	andeq	fp, r1, r0, lsl #8
    1dd0:	7e000300 	cdpvc	3, 0, cr0, cr0, cr0, {0}
    1dd4:	01b49f01 			; <UNDEFINED> instruction: 0x01b49f01
    1dd8:	01c00000 	biceq	r0, r0, r0
    1ddc:	00010000 	andeq	r0, r1, r0
    1de0:	0001c05e 	andeq	ip, r1, lr, asr r0
    1de4:	00022800 	andeq	r2, r2, r0, lsl #16
    1de8:	91000400 	tstls	r0, r0, lsl #8
    1dec:	289f7fa0 	ldmcs	pc, {r5, r7, r8, r9, sl, fp, ip, sp, lr}	; <UNPREDICTABLE>
    1df0:	34000002 	strcc	r0, [r0], #-2
    1df4:	01000002 	tsteq	r0, r2
    1df8:	02345200 	eorseq	r5, r4, #0, 4
    1dfc:	02580000 	subseq	r0, r8, #0, 0
    1e00:	00010000 	andeq	r0, r1, r0
    1e04:	0002585e 	andeq	r5, r2, lr, asr r8
    1e08:	00025c00 	andeq	r5, r2, r0, lsl #24
    1e0c:	7e000300 	cdpvc	3, 0, cr0, cr0, cr0, {0}
    1e10:	025c9f01 	subseq	r9, ip, #1, 30
    1e14:	02640000 	rsbeq	r0, r4, #0, 0
    1e18:	00010000 	andeq	r0, r1, r0
    1e1c:	0002645e 	andeq	r6, r2, lr, asr r4
    1e20:	00027000 	andeq	r7, r2, r0
    1e24:	71000300 	mrsvc	r0, LR_irq
    1e28:	02709f02 	rsbseq	r9, r0, #2, 30
    1e2c:	02740000 	rsbseq	r0, r4, #0, 0
    1e30:	00010000 	andeq	r0, r1, r0
    1e34:	0002745e 	andeq	r7, r2, lr, asr r4
    1e38:	00027400 	andeq	r7, r2, r0, lsl #8
    1e3c:	91000400 	tstls	r0, r0, lsl #8
    1e40:	749f7fa0 	ldrvc	r7, [pc], #4000	; 1e48 <__code_start__-0x61b8>
    1e44:	a0000002 	andge	r0, r0, r2
    1e48:	04000002 	streq	r0, [r0], #-2
    1e4c:	7fa19100 	svcvc	0x00a19100
    1e50:	0002c09f 	muleq	r2, pc, r0	; <UNPREDICTABLE>
    1e54:	0002c800 	andeq	ip, r2, r0, lsl #16
    1e58:	5e000100 	adfpls	f0, f0, f0
    1e5c:	000002c8 	andeq	r0, r0, r8, asr #5
    1e60:	000002cc 	andeq	r0, r0, ip, asr #5
    1e64:	cc560001 	mrrcgt	0, 0, r0, r6, cr1
    1e68:	ec000002 	stc	0, cr0, [r0], {2}
    1e6c:	04000002 	streq	r0, [r0], #-2
    1e70:	7fa09100 	svcvc	0x00a09100
    1e74:	0002ec9f 	muleq	r2, pc, ip	; <UNPREDICTABLE>
    1e78:	0002fc00 	andeq	pc, r2, r0, lsl #24
    1e7c:	91000400 	tstls	r0, r0, lsl #8
    1e80:	fc9f7fa1 	ldc2	15, cr7, [pc], {161}	; 0xa1
    1e84:	28000002 	stmdacs	r0, {r1}
    1e88:	01000003 	tsteq	r0, r3
    1e8c:	00005e00 	andeq	r5, r0, r0, lsl #28
	...
    1ea4:	00010100 	andeq	r0, r1, r0, lsl #2
	...
    1eb8:	00000020 	andeq	r0, r0, r0, lsr #32
    1ebc:	00000070 	andeq	r0, r0, r0, ror r0
    1ec0:	70520001 	subsvc	r0, r2, r1
    1ec4:	94000000 	strls	r0, [r0], #-0
    1ec8:	01000000 	mrseq	r0, (UNDEF: 0)
    1ecc:	01945c00 	orrseq	r5, r4, r0, lsl #24
    1ed0:	019c0000 	orrseq	r0, ip, r0
    1ed4:	00010000 	andeq	r0, r1, r0
    1ed8:	00019c52 	andeq	r9, r1, r2, asr ip
    1edc:	0001c000 	andeq	ip, r1, r0
    1ee0:	5c000100 	stfpls	f0, [r0], {-0}
    1ee4:	000001c8 	andeq	r0, r0, r8, asr #3
    1ee8:	00000210 	andeq	r0, r0, r0, lsl r2
    1eec:	105c0001 	subsne	r0, ip, r1
    1ef0:	24000002 	strcs	r0, [r0], #-2
    1ef4:	01000002 	tsteq	r0, r2
    1ef8:	02245200 	eoreq	r5, r4, #0, 4
    1efc:	02480000 	subeq	r0, r8, #0, 0
    1f00:	00010000 	andeq	r0, r1, r0
    1f04:	0002485c 	andeq	r4, r2, ip, asr r8
    1f08:	00025c00 	andeq	r5, r2, r0, lsl #24
    1f0c:	55000100 	strpl	r0, [r0, #-256]	; 0xffffff00
    1f10:	0000025c 	andeq	r0, r0, ip, asr r2
    1f14:	00000268 	andeq	r0, r0, r8, ror #4
    1f18:	685c0001 	ldmdavs	ip, {r0}^
    1f1c:	74000002 	strvc	r0, [r0], #-2
    1f20:	19000002 	stmdbne	r0, {r1}
    1f24:	f7007500 			; <UNDEFINED> instruction: 0xf7007500
    1f28:	7625f72c 	strtvc	pc, [r5], -ip, lsr #14
    1f2c:	f72cf700 			; <UNDEFINED> instruction: 0xf72cf700
    1f30:	20081e25 	andcs	r1, r8, r5, lsr #28
    1f34:	f72525f7 			; <UNDEFINED> instruction: 0xf72525f7
    1f38:	3300f72c 	movwcc	pc, #1836	; 0x72c	; <UNPREDICTABLE>
    1f3c:	02749f25 	rsbseq	r9, r4, #148	; 0x94
    1f40:	02880000 	addeq	r0, r8, #0, 0
    1f44:	00010000 	andeq	r0, r1, r0
    1f48:	00028852 	andeq	r8, r2, r2, asr r8
    1f4c:	0002a000 	andeq	sl, r2, r0
    1f50:	5c000100 	stfpls	f0, [r0], {-0}
    1f54:	000002cc 	andeq	r0, r0, ip, asr #5
    1f58:	000002d0 	ldrdeq	r0, [r0], -r0	; <UNPREDICTABLE>
    1f5c:	d0520001 	subsle	r0, r2, r1
    1f60:	e7000002 	str	r0, [r0, -r2]
    1f64:	01000002 	tsteq	r0, r2
    1f68:	02e75c00 	rsceq	r5, r7, #0, 24
    1f6c:	02ec0000 	rsceq	r0, ip, #0, 0
    1f70:	00040000 	andeq	r0, r4, r0
    1f74:	9f5201f3 	svcls	0x005201f3
    1f78:	000002ec 	andeq	r0, r0, ip, ror #5
    1f7c:	00000300 	andeq	r0, r0, r0, lsl #6
    1f80:	00520001 	subseq	r0, r2, r1
    1f84:	28000003 	stmdacs	r0, {r0, r1}
    1f88:	01000003 	tsteq	r0, r3
    1f8c:	00005c00 	andeq	r5, r0, r0, lsl #24
    1f90:	00000000 	andeq	r0, r0, r0
    1f94:	00040000 	andeq	r0, r4, r0
    1f98:	01000004 	tsteq	r0, r4
    1f9c:	00040000 	andeq	r0, r4, r0
    1fa0:	000000a4 	andeq	r0, r0, r4, lsr #1
    1fa4:	000000b0 	strheq	r0, [r0], -r0	; <UNPREDICTABLE>
    1fa8:	7c530001 	mrrcvc	0, 0, r0, r3, cr1
    1fac:	90000002 	andls	r0, r0, r2
    1fb0:	01000002 	tsteq	r0, r2
    1fb4:	02905300 	addseq	r5, r0, #0, 6
    1fb8:	029c0000 	addseq	r0, ip, #0, 0
    1fbc:	00040000 	andeq	r0, r4, r0
    1fc0:	9f5301f3 	svcls	0x005301f3
    1fc4:	000002c0 	andeq	r0, r0, r0, asr #5
    1fc8:	000002cc 	andeq	r0, r0, ip, asr #5
    1fcc:	f0530001 			; <UNDEFINED> instruction: 0xf0530001
    1fd0:	28000002 	stmdacs	r0, {r1}
    1fd4:	03000003 	movweq	r0, #3
    1fd8:	9f7f0800 	svcls	0x007f0800
	...
    1fe4:	01000004 	tsteq	r0, r4
    1fe8:	01000004 	tsteq	r0, r4
    1fec:	00000000 	andeq	r0, r0, r0
    1ff0:	00000004 	andeq	r0, r0, r4
    1ff4:	000000a4 	andeq	r0, r0, r4, lsr #1
    1ff8:	000000b0 	strheq	r0, [r0], -r0	; <UNPREDICTABLE>
    1ffc:	b0520001 	subslt	r0, r2, r1
    2000:	5c000000 	stcpl	0, cr0, [r0], {-0}
    2004:	04000001 	streq	r0, [r0], #-1
    2008:	7fa09100 	svcvc	0x00a09100
    200c:	00027c9f 	muleq	r2, pc, ip	; <UNPREDICTABLE>
    2010:	00029400 	andeq	r9, r2, r0, lsl #8
    2014:	91000400 	tstls	r0, r0, lsl #8
    2018:	949f7fa0 	ldrls	r7, [pc], #4000	; 2020 <__code_start__-0x5fe0>
    201c:	9c000002 	stcls	0, cr0, [r0], {2}
    2020:	01000002 	tsteq	r0, r2
    2024:	02b45e00 	adcseq	r5, r4, #0, 28
    2028:	02c00000 	sbceq	r0, r0, #0, 0
    202c:	00040000 	andeq	r0, r4, r0
    2030:	9f7fa091 	svcls	0x007fa091
    2034:	000002c0 	andeq	r0, r0, r0, asr #5
    2038:	000002cc 	andeq	r0, r0, ip, asr #5
    203c:	f0520001 			; <UNDEFINED> instruction: 0xf0520001
    2040:	00000002 	andeq	r0, r0, r2
    2044:	04000003 	streq	r0, [r0], #-3
    2048:	7fa09100 	svcvc	0x00a09100
    204c:	0003009f 	muleq	r3, pc, r0	; <UNPREDICTABLE>
    2050:	00032800 	andeq	r2, r3, r0, lsl #16
    2054:	52000100 	andpl	r0, r0, #0
	...
    2060:	01000004 	tsteq	r0, r4
    2064:	03010101 	movweq	r0, #4353	; 0x1101
    2068:	01040203 	tsteq	r4, r3, lsl #4
    206c:	00000000 	andeq	r0, r0, r0
    2070:	00000004 	andeq	r0, r0, r4
    2074:	000000a4 	andeq	r0, r0, r4, lsr #1
    2078:	000000b0 	strheq	r0, [r0], -r0	; <UNPREDICTABLE>
    207c:	0c5e0001 	mrrceq	0, 0, r0, lr, cr1
    2080:	0c000001 	stceq	0, cr0, [r0], {1}
    2084:	01000001 	tsteq	r0, r1
    2088:	010c5500 	tsteq	ip, r0, lsl #10
    208c:	01200000 			; <UNDEFINED> instruction: 0x01200000
    2090:	00030000 	andeq	r0, r3, r0
    2094:	209f0175 	addscs	r0, pc, r5, ror r1	; <UNPREDICTABLE>
    2098:	2c000001 	stccs	0, cr0, [r0], {1}
    209c:	03000001 	movweq	r0, #1
    20a0:	9f027500 	svcls	0x00027500
    20a4:	0000012c 	andeq	r0, r0, ip, lsr #2
    20a8:	00000130 	andeq	r0, r0, r0, lsr r1
    20ac:	03750003 	cmneq	r5, #3, 0
    20b0:	00027c9f 	muleq	r2, pc, ip	; <UNPREDICTABLE>
    20b4:	00029c00 	andeq	r9, r2, r0, lsl #24
    20b8:	91000400 	tstls	r0, r0, lsl #8
    20bc:	c09f7fa1 	addsgt	r7, pc, r1, lsr #31
    20c0:	c8000002 	stmdagt	r0, {r1}
    20c4:	01000002 	tsteq	r0, r2
    20c8:	02c85e00 	sbceq	r5, r8, #0, 28
    20cc:	02cc0000 	sbceq	r0, ip, #0, 0
    20d0:	00010000 	andeq	r0, r1, r0
    20d4:	0002f056 	andeq	pc, r2, r6, asr r0	; <UNPREDICTABLE>
    20d8:	0002fc00 	andeq	pc, r2, r0, lsl #24
    20dc:	91000400 	tstls	r0, r0, lsl #8
    20e0:	fc9f7fa1 	ldc2	15, cr7, [pc], {161}	; 0xa1
    20e4:	28000002 	stmdacs	r0, {r1}
    20e8:	01000003 	tsteq	r0, r3
    20ec:	00005e00 	andeq	r5, r0, r0, lsl #28
	...
    20f8:	01010100 	mrseq	r0, (UNDEF: 17)
    20fc:	02010101 	andeq	r0, r1, #1073741824	; 0x40000000
    2100:	00000106 	andeq	r0, r0, r6, lsl #2
    2104:	00a80006 	adceq	r0, r8, r6
    2108:	00b00000 	adcseq	r0, r0, r0
    210c:	00010000 	andeq	r0, r1, r0
    2110:	00010c51 	andeq	r0, r1, r1, asr ip
    2114:	00011c00 	andeq	r1, r1, r0, lsl #24
    2118:	5c000100 	stfpls	f0, [r0], {-0}
    211c:	0000011c 	andeq	r0, r0, ip, lsl r1
    2120:	0000012c 	andeq	r0, r0, ip, lsr #2
    2124:	2c580001 	mrrccs	0, 0, r0, r8, cr1
    2128:	30000001 	andcc	r0, r0, r1
    212c:	01000001 	tsteq	r0, r1
    2130:	01305c00 	teqeq	r0, r0, lsl #24
    2134:	01300000 	teqeq	r0, r0
    2138:	00030000 	andeq	r0, r3, r0
    213c:	7c9f017c 	ldfvcs	f0, [pc], {124}	; 0x7c
    2140:	9c000002 	stcls	0, cr0, [r0], {2}
    2144:	02000002 	andeq	r0, r0, #2, 0
    2148:	c09f3100 	addsgt	r3, pc, r0, lsl #2
    214c:	cc000002 	stcgt	0, cr0, [r0], {2}
    2150:	01000002 	tsteq	r0, r2
    2154:	02f05100 	rscseq	r5, r0, #0
    2158:	03280000 			; <UNDEFINED> instruction: 0x03280000
    215c:	00020000 	andeq	r0, r2, r0
    2160:	00009f31 	andeq	r9, r0, r1, lsr pc
    2164:	00000000 	andeq	r0, r0, r0
    2168:	06010000 	streq	r0, [r1], -r0
    216c:	00010106 	andeq	r0, r1, r6, lsl #2
    2170:	015c0100 	cmpeq	ip, r0, lsl #2
    2174:	015c0000 	cmpeq	ip, r0
    2178:	00040000 	andeq	r0, r4, r0
    217c:	9f7fa091 	svcls	0x007fa091
    2180:	0000015c 	andeq	r0, r0, ip, asr r1
    2184:	0000018c 	andeq	r0, r0, ip, lsl #3
    2188:	9c520001 	mrrcls	0, 0, r0, r2, cr1
    218c:	a0000002 	andge	r0, r0, r2
    2190:	01000002 	tsteq	r0, r2
    2194:	02a05e00 	adceq	r5, r0, #0, 28
    2198:	02ac0000 	adceq	r0, ip, #0, 0
    219c:	00010000 	andeq	r0, r1, r0
    21a0:	00000052 	andeq	r0, r0, r2, asr r0
	...
    21ac:	01000101 	tsteq	r0, r1, lsl #2
    21b0:	00016c07 	andeq	r6, r1, r7, lsl #24
    21b4:	00017000 	andeq	r7, r1, r0
    21b8:	73000300 	movwvc	r0, #768	; 0x300
    21bc:	01709f7f 	cmneq	r0, pc, ror pc
    21c0:	01780000 	cmneq	r8, r0
    21c4:	00010000 	andeq	r0, r1, r0
    21c8:	00017853 	andeq	r7, r1, r3, asr r8
    21cc:	00018400 	andeq	r8, r1, r0, lsl #8
    21d0:	73000300 	movwvc	r0, #768	; 0x300
    21d4:	029c9f7f 	addseq	r9, ip, #508	; 0x1fc
    21d8:	029c0000 	addseq	r0, ip, #0, 0
    21dc:	00040000 	andeq	r0, r4, r0
    21e0:	9f7fa191 	svcls	0x007fa191
	...
    21ec:	01010101 	tsteq	r1, r1, lsl #2
    21f0:	0000015c 	andeq	r0, r0, ip, asr r1
    21f4:	0000018c 	andeq	r0, r0, ip, lsl #3
    21f8:	80080003 	andhi	r0, r8, r3
    21fc:	00029c9f 	muleq	r2, pc, ip	; <UNPREDICTABLE>
    2200:	0002ac00 	andeq	sl, r2, r0, lsl #24
    2204:	08000300 	stmdaeq	r0, {r8, r9}
    2208:	00009f80 	andeq	r9, r0, r0, lsl #31
    220c:	00000000 	andeq	r0, r0, r0
    2210:	00010000 	andeq	r0, r1, r0
    2214:	00010100 	andeq	r0, r1, r0, lsl #2
    2218:	01010100 	mrseq	r0, (UNDEF: 17)
    221c:	01010101 	tsteq	r1, r1, lsl #2
    2220:	0000015c 	andeq	r0, r0, ip, asr r1
    2224:	0000016c 	andeq	r0, r0, ip, ror #2
    2228:	6c500001 	mrrcvs	0, 0, r0, r0, cr1	; <UNPREDICTABLE>
    222c:	6c000001 	stcvs	0, cr0, [r0], {1}
    2230:	03000001 	movweq	r0, #1
    2234:	9f017c00 	svcls	0x00017c00
    2238:	0000016c 	andeq	r0, r0, ip, ror #2
    223c:	00000178 	andeq	r0, r0, r8, ror r1
    2240:	027c0003 	rsbseq	r0, ip, #3, 0
    2244:	0001789f 	muleq	r1, pc, r8	; <UNPREDICTABLE>
    2248:	00018800 	andeq	r8, r1, r0, lsl #16
    224c:	7c000300 	stcvc	3, cr0, [r0], {-0}
    2250:	01889f01 	orreq	r9, r8, r1, lsl #30
    2254:	018c0000 	orreq	r0, ip, r0
    2258:	00030000 	andeq	r0, r3, r0
    225c:	9c9f017e 	ldflss	f0, [pc], {126}	; 0x7e
    2260:	a4000002 	strge	r0, [r0], #-2
    2264:	01000002 	tsteq	r0, r2
    2268:	02a45000 	adceq	r5, r4, #0, 0
    226c:	02ac0000 	adceq	r0, ip, #0, 0
    2270:	00030000 	andeq	r0, r3, r0
    2274:	009f017e 	addseq	r0, pc, lr, ror r1	; <UNPREDICTABLE>
    2278:	00000000 	andeq	r0, r0, r0
    227c:	04000000 	streq	r0, [r0], #-0
    2280:	00000400 	andeq	r0, r0, r0, lsl #8
    2284:	00015c01 	andeq	r5, r1, r1, lsl #24
    2288:	00016000 	andeq	r6, r1, r0
    228c:	71000300 	mrsvc	r0, LR_irq
    2290:	029c9f01 	addseq	r9, ip, #1, 30
    2294:	02a00000 	adceq	r0, r0, #0, 0
    2298:	00020000 	andeq	r0, r2, r0
    229c:	02a09f32 	adceq	r9, r0, #200	; 0xc8
    22a0:	02ac0000 	adceq	r0, ip, #0, 0
    22a4:	00030000 	andeq	r0, r3, r0
    22a8:	009f0171 	addseq	r0, pc, r1, ror r1	; <UNPREDICTABLE>
    22ac:	00000000 	andeq	r0, r0, r0
    22b0:	07000000 	streq	r0, [r0, -r0]
    22b4:	5c000600 	stcpl	6, cr0, [r0], {-0}
    22b8:	94000001 	strls	r0, [r0], #-1
    22bc:	01000001 	tsteq	r0, r1
    22c0:	029c5000 	addseq	r5, ip, #0, 0
    22c4:	02b40000 	adcseq	r0, r4, #0, 0
    22c8:	00010000 	andeq	r0, r1, r0
    22cc:	00000050 	andeq	r0, r0, r0, asr r0
    22d0:	00000000 	andeq	r0, r0, r0
    22d4:	01010100 	mrseq	r0, (UNDEF: 17)
    22d8:	00021400 	andeq	r1, r2, r0, lsl #8
    22dc:	00022000 	andeq	r2, r2, r0
    22e0:	30000200 	andcc	r0, r0, r0, lsl #4
    22e4:	0002209f 	muleq	r2, pc, r0	; <UNPREDICTABLE>
    22e8:	00023400 	andeq	r3, r2, r0, lsl #8
    22ec:	31000200 	mrscc	r0, R8_usr
    22f0:	0000009f 	muleq	r0, pc, r0	; <UNPREDICTABLE>
    22f4:	00000000 	andeq	r0, r0, r0
    22f8:	01010000 	mrseq	r0, (UNDEF: 1)
    22fc:	01010000 	mrseq	r0, (UNDEF: 1)
    2300:	01010000 	mrseq	r0, (UNDEF: 1)
    2304:	01010000 	mrseq	r0, (UNDEF: 1)
    2308:	01010000 	mrseq	r0, (UNDEF: 1)
    230c:	02020000 	andeq	r0, r2, #0, 0
    2310:	00008001 	andeq	r8, r0, r1
    2314:	00008000 	andeq	r8, r0, r0
    2318:	53000100 	movwpl	r0, #256	; 0x100
    231c:	00000080 	andeq	r0, r0, r0, lsl #1
    2320:	0000008c 	andeq	r0, r0, ip, lsl #1
    2324:	04730003 	ldrbteq	r0, [r3], #-3
    2328:	00008c9f 	muleq	r0, pc, ip	; <UNPREDICTABLE>
    232c:	00009400 	andeq	r9, r0, r0, lsl #8
    2330:	51000100 	mrspl	r0, (UNDEF: 16)
    2334:	00000094 	muleq	r0, r4, r0
    2338:	00000098 	muleq	r0, r8, r0
    233c:	08730003 	ldmdaeq	r3!, {r0, r1}^
    2340:	0000989f 	muleq	r0, pc, r8	; <UNPREDICTABLE>
    2344:	0000a400 	andeq	sl, r0, r0, lsl #8
    2348:	51000100 	mrspl	r0, (UNDEF: 16)
    234c:	000000a4 	andeq	r0, r0, r4, lsr #1
    2350:	000000a8 	andeq	r0, r0, r8, lsr #1
    2354:	0c730003 	ldcleq	0, cr0, [r3], #-12
    2358:	0000a89f 	muleq	r0, pc, r8	; <UNPREDICTABLE>
    235c:	0000b400 	andeq	fp, r0, r0, lsl #8
    2360:	51000100 	mrspl	r0, (UNDEF: 16)
    2364:	000000b4 	strheq	r0, [r0], -r4
    2368:	000000b8 	strheq	r0, [r0], -r8
    236c:	10730003 	rsbsne	r0, r3, r3
    2370:	0000b89f 	muleq	r0, pc, r8	; <UNPREDICTABLE>
    2374:	0000c400 	andeq	ip, r0, r0, lsl #8
    2378:	51000100 	mrspl	r0, (UNDEF: 16)
    237c:	000000c4 	andeq	r0, r0, r4, asr #1
    2380:	000000c8 	andeq	r0, r0, r8, asr #1
    2384:	14730003 	ldrbtne	r0, [r3], #-3
    2388:	0000c89f 	muleq	r0, pc, r8	; <UNPREDICTABLE>
    238c:	0000d000 	andeq	sp, r0, r0
    2390:	51000100 	mrspl	r0, (UNDEF: 16)
    2394:	000000d0 	ldrdeq	r0, [r0], -r0	; <UNPREDICTABLE>
    2398:	000000d4 	ldrdeq	r0, [r0], -r4
    239c:	04710003 	ldrbteq	r0, [r1], #-3
    23a0:	0000009f 	muleq	r0, pc, r0	; <UNPREDICTABLE>
    23a4:	00000000 	andeq	r0, r0, r0
    23a8:	d8000200 	stmdale	r0, {r9}
    23ac:	e8000000 	stmda	r0, {}	; <UNPREDICTABLE>
    23b0:	02000000 	andeq	r0, r0, #0, 0
    23b4:	009f3100 	addseq	r3, pc, r0, lsl #2
    23b8:	00000000 	andeq	r0, r0, r0
    23bc:	04000000 	streq	r0, [r0], #-0
    23c0:	38010000 	stmdacc	r1, {}	; <UNPREDICTABLE>
    23c4:	40000099 	mulmi	r0, r9, r0
    23c8:	02000099 	andeq	r0, r0, #153, 0	; 0x99
    23cc:	409f3000 	addsmi	r3, pc, r0
    23d0:	40000099 	mulmi	r0, r9, r0
    23d4:	01000099 	swpeq	r0, r9, [r0]	; <UNPREDICTABLE>
    23d8:	00005300 	andeq	r5, r0, r0, lsl #6
    23dc:	00000000 	andeq	r0, r0, r0
    23e0:	00030000 	andeq	r0, r3, r0
    23e4:	00000000 	andeq	r0, r0, r0
    23e8:	994c0000 	stmdbls	ip, {}^	; <UNPREDICTABLE>
    23ec:	99500000 	ldmdbls	r0, {}^	; <UNPREDICTABLE>
    23f0:	00020000 	andeq	r0, r2, r0
    23f4:	99509f30 	ldmdbls	r0, {r4, r5, r8, r9, sl, fp, ip, pc}^
    23f8:	99540000 	ldmdbls	r4, {}^	; <UNPREDICTABLE>
    23fc:	00010000 	andeq	r0, r1, r0
    2400:	00995453 	addseq	r5, r9, r3, asr r4
    2404:	00995800 	addseq	r5, r9, r0, lsl #16
    2408:	73000500 	movwvc	r0, #1280	; 0x500
    240c:	9f214000 	svcls	0x00214000
    2410:	00009958 	andeq	r9, r0, r8, asr r9
    2414:	0000995c 	andeq	r9, r0, ip, asr r9
    2418:	00530001 	subseq	r0, r3, r1
    241c:	00000000 	andeq	r0, r0, r0
    2420:	02000000 	andeq	r0, r0, #0, 0
    2424:	0c000000 	stceq	0, cr0, [r0], {-0}
    2428:	10000099 	mulne	r0, r9, r0
    242c:	02000099 	andeq	r0, r0, #153, 0	; 0x99
    2430:	109f3000 	addsne	r3, pc, r0
    2434:	14000099 	strne	r0, [r0], #-153	; 0xffffff67
    2438:	01000099 	swpeq	r0, r9, [r0]	; <UNPREDICTABLE>
    243c:	00005000 	andeq	r5, r0, r0
    2440:	00000000 	andeq	r0, r0, r0
    2444:	00020000 	andeq	r0, r2, r0
    2448:	00000000 	andeq	r0, r0, r0
    244c:	99240000 	stmdbls	r4!, {}	; <UNPREDICTABLE>
    2450:	99280000 	stmdbls	r8!, {}	; <UNPREDICTABLE>
    2454:	00020000 	andeq	r0, r2, r0
    2458:	99289f30 	stmdbls	r8!, {r4, r5, r8, r9, sl, fp, ip, pc}
    245c:	992c0000 	stmdbls	ip!, {}	; <UNPREDICTABLE>
    2460:	00010000 	andeq	r0, r1, r0
    2464:	00992c53 	addseq	r2, r9, r3, asr ip
    2468:	00993000 	addseq	r3, r9, r0
    246c:	73000500 	movwvc	r0, #1280	; 0x500
    2470:	9f214000 	svcls	0x00214000
    2474:	00009930 	andeq	r9, r0, r0, lsr r9
    2478:	00009938 	andeq	r9, r0, r8, lsr r9
    247c:	00530001 	subseq	r0, r3, r1
	...
    2488:	c8000000 	stmdagt	r0, {}	; <UNPREDICTABLE>
    248c:	d8000000 	stmdale	r0, {}	; <UNPREDICTABLE>
    2490:	01000000 	mrseq	r0, (UNDEF: 0)
    2494:	00d85000 	sbcseq	r5, r8, r0
    2498:	011c0000 	tsteq	ip, r0
    249c:	00040000 	andeq	r0, r4, r0
    24a0:	9f5001f3 	svcls	0x005001f3
	...
    24ac:	00000002 	andeq	r0, r0, r2
    24b0:	000000c8 	andeq	r0, r0, r8, asr #1
    24b4:	000000d8 	ldrdeq	r0, [r0], -r8
    24b8:	00700007 	rsbseq	r0, r0, r7
    24bc:	1e03e80a 	cdpne	8, 0, cr14, cr3, cr10, {0}
    24c0:	0000d89f 	muleq	r0, pc, r8	; <UNPREDICTABLE>
    24c4:	00011c00 	andeq	r1, r1, r0, lsl #24
    24c8:	f3000800 	vsub.i8	d0, d0, d0
    24cc:	e80a5001 	stmda	sl, {r0, ip, lr}
    24d0:	009f1e03 	addseq	r1, pc, r3, lsl #28
	...
    24dc:	0000dc00 	andeq	sp, r0, r0, lsl #24
    24e0:	00011c00 	andeq	r1, r1, r0, lsl #24
    24e4:	54000100 	strpl	r0, [r0], #-256	; 0xffffff00
	...
    24f0:	00f00001 	rscseq	r0, r0, r1
    24f4:	011c0000 	tsteq	ip, r0
    24f8:	00010000 	andeq	r0, r1, r0
    24fc:	00000056 	andeq	r0, r0, r6, asr r0
	...
    2508:	0000ec00 	andeq	lr, r0, r0, lsl #24
    250c:	0000ef00 	andeq	lr, r0, r0, lsl #30
    2510:	50000100 	andpl	r0, r0, r0, lsl #2
    2514:	000000ef 	andeq	r0, r0, pc, ror #1
    2518:	0000011c 	andeq	r0, r0, ip, lsl r1
    251c:	00560001 	subseq	r0, r6, r1
	...
    2528:	00010400 	andeq	r0, r1, r0, lsl #8
    252c:	00010b00 	andeq	r0, r1, r0, lsl #22
    2530:	50000100 	andpl	r0, r0, r0, lsl #2
	...
    2540:	00000020 	andeq	r0, r0, r0, lsr #32
    2544:	00000023 	andeq	r0, r0, r3, lsr #32
    2548:	23500001 	cmpcs	r0, #1, 0
    254c:	30000000 	andcc	r0, r0, r0
    2550:	01000000 	mrseq	r0, (UNDEF: 0)
    2554:	00005400 	andeq	r5, r0, r0, lsl #8
	...
    2560:	00300000 	eorseq	r0, r0, r0
    2564:	003b0000 	eorseq	r0, fp, r0
    2568:	00010000 	andeq	r0, r1, r0
    256c:	00003b50 	andeq	r3, r0, r0, asr fp
    2570:	00007800 	andeq	r7, r0, r0, lsl #16
    2574:	56000100 	strpl	r0, [r0], -r0, lsl #2
	...
    2580:	004c0001 	subeq	r0, ip, r1
    2584:	00780000 	rsbseq	r0, r8, r0
    2588:	00010000 	andeq	r0, r1, r0
    258c:	00000055 	andeq	r0, r0, r5, asr r0
	...
    2598:	00004800 	andeq	r4, r0, r0, lsl #16
    259c:	00004b00 	andeq	r4, r0, r0, lsl #22
    25a0:	50000100 	andpl	r0, r0, r0, lsl #2
    25a4:	0000004b 	andeq	r0, r0, fp, asr #32
    25a8:	00000078 	andeq	r0, r0, r8, ror r0
    25ac:	00550001 	subseq	r0, r5, r1
	...
    25b8:	00006000 	andeq	r6, r0, r0
    25bc:	00006700 	andeq	r6, r0, r0, lsl #14
    25c0:	50000100 	andpl	r0, r0, r0, lsl #2
	...
    25d0:	00000078 	andeq	r0, r0, r8, ror r0
    25d4:	00000084 	andeq	r0, r0, r4, lsl #1
    25d8:	84500001 	ldrbhi	r0, [r0], #-1
    25dc:	c8000000 	stmdagt	r0, {}	; <UNPREDICTABLE>
    25e0:	04000000 	streq	r0, [r0], #-0
    25e4:	5001f300 	andpl	pc, r1, r0, lsl #6
    25e8:	0000009f 	muleq	r0, pc, r0	; <UNPREDICTABLE>
    25ec:	00000000 	andeq	r0, r0, r0
    25f0:	88000000 	stmdahi	r0, {}	; <UNPREDICTABLE>
    25f4:	c8000000 	stmdagt	r0, {}	; <UNPREDICTABLE>
    25f8:	01000000 	mrseq	r0, (UNDEF: 0)
    25fc:	00005400 	andeq	r5, r0, r0, lsl #8
    2600:	00000000 	andeq	r0, r0, r0
    2604:	00010000 	andeq	r0, r1, r0
    2608:	0000009c 	muleq	r0, ip, r0
    260c:	000000c8 	andeq	r0, r0, r8, asr #1
    2610:	00560001 	subseq	r0, r6, r1
	...
    261c:	98000000 	stmdals	r0, {}	; <UNPREDICTABLE>
    2620:	9b000000 	blls	2628 <__code_start__-0x59d8>
    2624:	01000000 	mrseq	r0, (UNDEF: 0)
    2628:	009b5000 	addseq	r5, fp, r0
    262c:	00c80000 	sbceq	r0, r8, r0
    2630:	00010000 	andeq	r0, r1, r0
    2634:	00000056 	andeq	r0, r0, r6, asr r0
    2638:	00000000 	andeq	r0, r0, r0
    263c:	b0000000 	andlt	r0, r0, r0
    2640:	b7000000 	strlt	r0, [r0, -r0]
    2644:	01000000 	mrseq	r0, (UNDEF: 0)
    2648:	00005000 	andeq	r5, r0, r0
	...
    2654:	01580000 	cmpeq	r8, r0
    2658:	01630000 	cmneq	r3, r0
    265c:	00010000 	andeq	r0, r1, r0
    2660:	00016350 	andeq	r6, r1, r0, asr r3
    2664:	00018800 	andeq	r8, r1, r0, lsl #16
    2668:	54000100 	strpl	r0, [r0], #-256	; 0xffffff00
	...
    2674:	01480000 	mrseq	r0, (UNDEF: 72)
    2678:	01580000 	cmpeq	r8, r0
    267c:	00010000 	andeq	r0, r1, r0
    2680:	00000054 	andeq	r0, r0, r4, asr r0
	...
    2690:	00000f00 	andeq	r0, r0, r0, lsl #30
    2694:	50000100 	andpl	r0, r0, r0, lsl #2
    2698:	0000000f 	andeq	r0, r0, pc
    269c:	00000020 	andeq	r0, r0, r0, lsr #32
    26a0:	00540001 	subseq	r0, r4, r1
	...
    26b0:	0f000000 	svceq	0x00000000
    26b4:	01000000 	mrseq	r0, (UNDEF: 0)
    26b8:	000f5100 	andeq	r5, pc, r0, lsl #2
    26bc:	00200000 	eoreq	r0, r0, r0
    26c0:	00010000 	andeq	r0, r1, r0
    26c4:	00000055 	andeq	r0, r0, r5, asr r0
	...
    26d0:	00002000 	andeq	r2, r0, r0
    26d4:	00002f00 	andeq	r2, r0, r0, lsl #30
    26d8:	50000100 	andpl	r0, r0, r0, lsl #2
    26dc:	0000002f 	andeq	r0, r0, pc, lsr #32
    26e0:	00000040 	andeq	r0, r0, r0, asr #32
    26e4:	00540001 	subseq	r0, r4, r1
	...
    26f0:	20000000 	andcs	r0, r0, r0
    26f4:	2f000000 	svccs	0x00000000
    26f8:	01000000 	mrseq	r0, (UNDEF: 0)
    26fc:	002f5100 	eoreq	r5, pc, r0, lsl #2
    2700:	00400000 	subeq	r0, r0, r0
    2704:	00010000 	andeq	r0, r1, r0
    2708:	00000055 	andeq	r0, r0, r5, asr r0
	...
    2714:	50000000 	andpl	r0, r0, r0
    2718:	98000003 	stmdals	r0, {r0, r1}
    271c:	01000003 	tsteq	r0, r3
    2720:	03985000 	orrseq	r5, r8, #0, 0
    2724:	039b0000 	orrseq	r0, fp, #0, 0
    2728:	00020000 	andeq	r0, r2, r0
    272c:	039b6891 	orrseq	r6, fp, #9502720	; 0x910000
    2730:	03b00000 	movseq	r0, #0, 0
    2734:	00040000 	andeq	r0, r4, r0
    2738:	9f5001f3 	svcls	0x005001f3
	...
    2758:	00000220 	andeq	r0, r0, r0, lsr #4
    275c:	0000027b 	andeq	r0, r0, fp, ror r2
    2760:	7b500001 	blvc	140276c <__bss_end__+0x13f775c>
    2764:	84000002 	strhi	r0, [r0], #-2
    2768:	04000002 	streq	r0, [r0], #-2
    276c:	5001f300 	andpl	pc, r1, r0, lsl #6
    2770:	0002849f 	muleq	r2, pc, r4	; <UNPREDICTABLE>
    2774:	00029c00 	andeq	r9, r2, r0, lsl #24
    2778:	50000100 	andpl	r0, r0, r0, lsl #2
    277c:	0000029c 	muleq	r0, ip, r2
    2780:	000002a4 	andeq	r0, r0, r4, lsr #5
    2784:	01f30004 	mvnseq	r0, r4
    2788:	02a49f50 	adceq	r9, r4, #80, 30	; 0x140
    278c:	02a70000 	adceq	r0, r7, #0, 0
    2790:	00010000 	andeq	r0, r1, r0
    2794:	0002a750 	andeq	sl, r2, r0, asr r7
    2798:	0002c800 	andeq	ip, r2, r0, lsl #16
    279c:	f3000400 	vshl.u8	d0, d0, d0
    27a0:	c89f5001 	ldmgt	pc, {r0, ip, lr}	; <UNPREDICTABLE>
    27a4:	e0000002 	and	r0, r0, r2
    27a8:	01000002 	tsteq	r0, r2
    27ac:	02e05000 	rsceq	r5, r0, #0, 0
    27b0:	02e80000 	rsceq	r0, r8, #0, 0
    27b4:	00040000 	andeq	r0, r4, r0
    27b8:	9f5001f3 	svcls	0x005001f3
    27bc:	000002e8 	andeq	r0, r0, r8, ror #5
    27c0:	000002eb 	andeq	r0, r0, fp, ror #5
    27c4:	eb500001 	bl	14027d0 <__bss_end__+0x13f77c0>
    27c8:	38000002 	stmdacc	r0, {r1}
    27cc:	04000003 	streq	r0, [r0], #-3
    27d0:	5001f300 	andpl	pc, r1, r0, lsl #6
    27d4:	0000009f 	muleq	r0, pc, r0	; <UNPREDICTABLE>
	...
    27f0:	00022000 	andeq	r2, r2, r0
    27f4:	00024400 	andeq	r4, r2, r0, lsl #8
    27f8:	51000100 	mrspl	r0, (UNDEF: 16)
    27fc:	00000244 	andeq	r0, r0, r4, asr #4
    2800:	00000268 	andeq	r0, r0, r8, ror #4
    2804:	68510001 	ldmdavs	r1, {r0}^
    2808:	7b000002 	blvc	2818 <__code_start__-0x57e8>
    280c:	03000002 	movweq	r0, #2
    2810:	9f017100 	svcls	0x00017100
    2814:	0000027b 	andeq	r0, r0, fp, ror r2
    2818:	00000284 	andeq	r0, r0, r4, lsl #5
    281c:	f3380017 	vqadd.u64	d0, d8, d7
    2820:	01f35101 	mvnseq	r5, r1, lsl #2
    2824:	244b4051 	strbcs	r4, [fp], #-81	; 0xffffffaf
    2828:	00080c22 	andeq	r0, r8, r2, lsr #24
    282c:	282d8000 	stmdacs	sp!, {pc}
    2830:	13160001 	tstne	r6, #1, 0
    2834:	0002849f 	muleq	r2, pc, r4	; <UNPREDICTABLE>
    2838:	00029800 	andeq	r9, r2, r0, lsl #16
    283c:	51000100 	mrspl	r0, (UNDEF: 16)
    2840:	00000298 	muleq	r0, r8, r2
    2844:	000002a4 	andeq	r0, r0, r4, lsr #5
    2848:	01f30004 	mvnseq	r0, r4
    284c:	02a49f51 	adceq	r9, r4, #324	; 0x144
    2850:	02a70000 	adceq	r0, r7, #0, 0
    2854:	00010000 	andeq	r0, r1, r0
    2858:	0002a751 	andeq	sl, r2, r1, asr r7
    285c:	0002c800 	andeq	ip, r2, r0, lsl #16
    2860:	f3000400 	vshl.u8	d0, d0, d0
    2864:	c89f5101 	ldmgt	pc, {r0, r8, ip, lr}	; <UNPREDICTABLE>
    2868:	dc000002 	stcle	0, cr0, [r0], {2}
    286c:	01000002 	tsteq	r0, r2
    2870:	02dc5100 	sbcseq	r5, ip, #0
    2874:	03380000 	teqeq	r8, #0, 0
    2878:	00170000 	andseq	r0, r7, r0
    287c:	5101f338 	tstpl	r1, r8, lsr r3	; <UNPREDICTABLE>
    2880:	405101f3 	ldrshmi	r0, [r1], #-19	; 0xffffffed
    2884:	0c22244b 	cfstrseq	mvf2, [r2], #-300	; 0xfffffed4
    2888:	80000008 	andhi	r0, r0, r8
    288c:	0001282d 	andeq	r2, r1, sp, lsr #16
    2890:	009f1316 	addseq	r1, pc, r6, lsl r3	; <UNPREDICTABLE>
	...
    28a4:	4c000000 	stcmi	0, cr0, [r0], {-0}
    28a8:	5c000002 	stcpl	0, cr0, [r0], {2}
    28ac:	01000002 	tsteq	r0, r2
    28b0:	025c5200 	subseq	r5, ip, #0, 4
    28b4:	02640000 	rsbeq	r0, r4, #0, 0
    28b8:	00050000 	andeq	r0, r5, r0
    28bc:	00abd403 	adceq	sp, fp, r3, lsl #8
    28c0:	00026400 	andeq	r6, r2, r0, lsl #8
    28c4:	00027b00 	andeq	r7, r2, r0, lsl #22
    28c8:	53000100 	movwpl	r0, #256	; 0x100
    28cc:	000002c8 	andeq	r0, r0, r8, asr #5
    28d0:	000002d8 	ldrdeq	r0, [r0], -r8
    28d4:	d8520001 	ldmdale	r2, {r0}^
    28d8:	e3000002 	movw	r0, #2
    28dc:	05000002 	streq	r0, [r0, #-2]
    28e0:	abd40300 	blge	ff5034e8 <__bss_end__+0xff4f84d8>
    28e4:	02e80000 	rsceq	r0, r8, #0, 0
    28e8:	02eb0000 	rsceq	r0, fp, #0, 0
    28ec:	00010000 	andeq	r0, r1, r0
    28f0:	00000053 	andeq	r0, r0, r3, asr r0
    28f4:	00000000 	andeq	r0, r0, r0
    28f8:	30000400 	andcc	r0, r0, r0, lsl #8
    28fc:	34000002 	strcc	r0, [r0], #-2
    2900:	01000002 	tsteq	r0, r2
    2904:	00005100 	andeq	r5, r0, r0, lsl #2
    2908:	00000000 	andeq	r0, r0, r0
    290c:	00020000 	andeq	r0, r2, r0
    2910:	0000023c 	andeq	r0, r0, ip, lsr r2
    2914:	00000244 	andeq	r0, r0, r4, asr #4
    2918:	9f380002 	svcls	0x00380002
	...
    2924:	023c0002 	eorseq	r0, ip, #2, 0
    2928:	02440000 	subeq	r0, r4, #0, 0
    292c:	00010000 	andeq	r0, r1, r0
    2930:	00000051 	andeq	r0, r0, r1, asr r0
    2934:	00000000 	andeq	r0, r0, r0
    2938:	00000100 	andeq	r0, r0, r0, lsl #2
    293c:	4c000000 	stcmi	0, cr0, [r0], {-0}
    2940:	64000002 	strvs	r0, [r0], #-2
    2944:	01000002 	tsteq	r0, r2
    2948:	02c85100 	sbceq	r5, r8, #0
    294c:	02dc0000 	sbcseq	r0, ip, #0, 0
    2950:	00010000 	andeq	r0, r1, r0
    2954:	0002dc51 	andeq	sp, r2, r1, asr ip
    2958:	0002e800 	andeq	lr, r2, r0, lsl #16
    295c:	38001700 	stmdacc	r0, {r8, r9, sl, ip}
    2960:	f35101f3 	vbsl	q8, <illegal reg q8.5>, <illegal reg q9.5>
    2964:	4b405101 	blmi	1016d70 <__bss_end__+0x100bd60>
    2968:	080c2224 	stmdaeq	ip, {r2, r5, r9, sp}
    296c:	2d800000 	stccs	0, cr0, [r0]
    2970:	16000128 	strne	r0, [r0], -r8, lsr #2
    2974:	00009f13 	andeq	r9, r0, r3, lsl pc
    2978:	00000000 	andeq	r0, r0, r0
    297c:	00010000 	andeq	r0, r1, r0
    2980:	00000000 	andeq	r0, r0, r0
    2984:	024c0000 	subeq	r0, ip, #0, 0
    2988:	025c0000 	subseq	r0, ip, #0, 0
    298c:	00010000 	andeq	r0, r1, r0
    2990:	00025c52 	andeq	r5, r2, r2, asr ip
    2994:	00026400 	andeq	r6, r2, r0, lsl #8
    2998:	03000500 	movweq	r0, #1280	; 0x500
    299c:	0000abd4 	ldrdeq	sl, [r0], -r4
    29a0:	000002c8 	andeq	r0, r0, r8, asr #5
    29a4:	000002d8 	ldrdeq	r0, [r0], -r8
    29a8:	d8520001 	ldmdale	r2, {r0}^
    29ac:	e3000002 	movw	r0, #2
    29b0:	05000002 	streq	r0, [r0, #-2]
    29b4:	abd40300 	blge	ff5035bc <__bss_end__+0xff4f85ac>
	...
    29c0:	00040000 	andeq	r0, r4, r0
    29c4:	0000024c 	andeq	r0, r0, ip, asr #4
    29c8:	00000250 	andeq	r0, r0, r0, asr r2
    29cc:	00510001 	subseq	r0, r1, r1
    29d0:	00000000 	andeq	r0, r0, r0
    29d4:	03000000 	movweq	r0, #0
    29d8:	00026400 	andeq	r6, r2, r0, lsl #8
    29dc:	00026800 	andeq	r6, r2, r0, lsl #16
    29e0:	51000100 	mrspl	r0, (UNDEF: 16)
	...
    29ec:	02640003 	rsbeq	r0, r4, #3, 0
    29f0:	02680000 	rsbeq	r0, r8, #0, 0
    29f4:	00010000 	andeq	r0, r1, r0
    29f8:	00000053 	andeq	r0, r0, r3, asr r0
	...
    2a08:	0001bc00 	andeq	fp, r1, r0, lsl #24
    2a0c:	0001d300 	andeq	sp, r1, r0, lsl #6
    2a10:	50000100 	andpl	r0, r0, r0, lsl #2
    2a14:	000001d3 	ldrdeq	r0, [r0], -r3
    2a18:	000001f0 	strdeq	r0, [r0], -r0	; <UNPREDICTABLE>
    2a1c:	f0540001 			; <UNDEFINED> instruction: 0xf0540001
    2a20:	08000001 	stmdaeq	r0, {r0}
    2a24:	01000002 	tsteq	r0, r2
    2a28:	02085000 	andeq	r5, r8, #0, 0
    2a2c:	02200000 	eoreq	r0, r0, #0, 0
    2a30:	00010000 	andeq	r0, r1, r0
    2a34:	00000054 	andeq	r0, r0, r4, asr r0
	...
    2a40:	0001d800 	andeq	sp, r1, r0, lsl #16
    2a44:	0001e300 	andeq	lr, r1, r0, lsl #6
    2a48:	50000100 	andpl	r0, r0, r0, lsl #2
    2a4c:	000001e3 	andeq	r0, r0, r3, ror #3
    2a50:	000001f0 	strdeq	r0, [r0], -r0	; <UNPREDICTABLE>
    2a54:	00550001 	subseq	r0, r5, r1
	...
    2a6c:	24000000 	strcs	r0, [r0], #-0
    2a70:	38000001 	stmdacc	r0, {r0}
    2a74:	01000001 	tsteq	r0, r1
    2a78:	01385000 	teqeq	r8, r0
    2a7c:	013c0000 	teqeq	ip, r0
    2a80:	00030000 	andeq	r0, r3, r0
    2a84:	3c9f7970 			; <UNDEFINED> instruction: 0x3c9f7970
    2a88:	60000001 	andvs	r0, r0, r1
    2a8c:	01000001 	tsteq	r0, r1
    2a90:	01605300 	cmneq	r0, r0, lsl #6
    2a94:	01780000 	cmneq	r8, r0
    2a98:	00010000 	andeq	r0, r1, r0
    2a9c:	00017850 	andeq	r7, r1, r0, asr r8
    2aa0:	00018000 	andeq	r8, r1, r0
    2aa4:	f3000400 	vshl.u8	d0, d0, d0
    2aa8:	809f5001 	addshi	r5, pc, r1
    2aac:	90000001 	andls	r0, r0, r1
    2ab0:	01000001 	tsteq	r0, r1
    2ab4:	01905300 	orrseq	r5, r0, r0, lsl #6
    2ab8:	019f0000 	orrseq	r0, pc, r0
    2abc:	00020000 	andeq	r0, r2, r0
    2ac0:	019f6891 			; <UNDEFINED> instruction: 0x019f6891
    2ac4:	01bc0000 			; <UNDEFINED> instruction: 0x01bc0000
    2ac8:	00090000 	andeq	r0, r9, r0
    2acc:	235001f3 	cmpcs	r0, #-1073741764	; 0xc000003c
    2ad0:	1af80907 	bne	ffe04ef4 <__bss_end__+0xffdf9ee4>
    2ad4:	0000009f 	muleq	r0, pc, r0	; <UNPREDICTABLE>
	...
    2ae0:	00014400 	andeq	r4, r1, r0, lsl #8
    2ae4:	00016000 	andeq	r6, r1, r0
    2ae8:	50000100 	andpl	r0, r0, r0, lsl #2
    2aec:	00000180 	andeq	r0, r0, r0, lsl #3
    2af0:	0000019c 	muleq	r0, ip, r1
    2af4:	00500001 	subseq	r0, r0, r1
    2af8:	00000000 	andeq	r0, r0, r0
    2afc:	03000000 	movweq	r0, #0
    2b00:	00013400 	andeq	r3, r1, r0, lsl #8
    2b04:	00013c00 	andeq	r3, r1, r0, lsl #24
    2b08:	38000200 	stmdacc	r0, {r9}
    2b0c:	0000009f 	muleq	r0, pc, r0	; <UNPREDICTABLE>
    2b10:	00000000 	andeq	r0, r0, r0
    2b14:	00000300 	andeq	r0, r0, r0, lsl #6
    2b18:	00013400 	andeq	r3, r1, r0, lsl #8
    2b1c:	00013800 	andeq	r3, r1, r0, lsl #16
    2b20:	50000100 	andpl	r0, r0, r0, lsl #2
    2b24:	00000138 	andeq	r0, r0, r8, lsr r1
    2b28:	0000013c 	andeq	r0, r0, ip, lsr r1
    2b2c:	79700003 	ldmdbvc	r0!, {r0, r1}^
    2b30:	0000009f 	muleq	r0, pc, r0	; <UNPREDICTABLE>
	...
    2b44:	30000000 	andcc	r0, r0, r0
    2b48:	60000000 	andvs	r0, r0, r0
    2b4c:	01000000 	mrseq	r0, (UNDEF: 0)
    2b50:	00605000 	rsbeq	r5, r0, r0
    2b54:	006c0000 	rsbeq	r0, ip, r0
    2b58:	00050000 	andeq	r0, r5, r0
    2b5c:	00abd403 	adceq	sp, fp, r3, lsl #8
    2b60:	00006c00 	andeq	r6, r0, r0, lsl #24
    2b64:	00008400 	andeq	r8, r0, r0, lsl #8
    2b68:	50000100 	andpl	r0, r0, r0, lsl #2
    2b6c:	00000084 	andeq	r0, r0, r4, lsl #1
    2b70:	0000008c 	andeq	r0, r0, ip, lsl #1
    2b74:	01f30004 	mvnseq	r0, r4
    2b78:	008c9f50 	addeq	r9, ip, r0, asr pc
    2b7c:	00ac0000 	adceq	r0, ip, r0
    2b80:	00010000 	andeq	r0, r1, r0
    2b84:	0000ac50 	andeq	sl, r0, r0, asr ip
    2b88:	0000af00 	andeq	sl, r0, r0, lsl #30
    2b8c:	91000200 	mrsls	r0, R8_usr
    2b90:	0000af68 	andeq	sl, r0, r8, ror #30
    2b94:	0000cc00 	andeq	ip, r0, r0, lsl #24
    2b98:	f3000400 	vshl.u8	d0, d0, d0
    2b9c:	009f5001 	addseq	r5, pc, r1
	...
    2bac:	30000000 	andcc	r0, r0, r0
    2bb0:	80000000 	andhi	r0, r0, r0
    2bb4:	01000000 	mrseq	r0, (UNDEF: 0)
    2bb8:	00805100 	addeq	r5, r0, r0, lsl #2
    2bbc:	008c0000 	addeq	r0, ip, r0
    2bc0:	00040000 	andeq	r0, r4, r0
    2bc4:	9f5101f3 	svcls	0x005101f3
    2bc8:	0000008c 	andeq	r0, r0, ip, lsl #1
    2bcc:	000000a8 	andeq	r0, r0, r8, lsr #1
    2bd0:	a8510001 	ldmdage	r1, {r0}^
    2bd4:	cc000000 	stcgt	0, cr0, [r0], {-0}
    2bd8:	04000000 	streq	r0, [r0], #-0
    2bdc:	5101f300 	mrspl	pc, SP_irq	; <UNPREDICTABLE>
    2be0:	0000009f 	muleq	r0, pc, r0	; <UNPREDICTABLE>
    2be4:	00000000 	andeq	r0, r0, r0
    2be8:	00000100 	andeq	r0, r0, r0, lsl #2
	...
    2bf4:	38000000 	stmdacc	r0, {}	; <UNPREDICTABLE>
    2bf8:	60000000 	andvs	r0, r0, r0
    2bfc:	01000000 	mrseq	r0, (UNDEF: 0)
    2c00:	00605000 	rsbeq	r5, r0, r0
    2c04:	006c0000 	rsbeq	r0, ip, r0
    2c08:	00050000 	andeq	r0, r5, r0
    2c0c:	00abd403 	adceq	sp, fp, r3, lsl #8
    2c10:	00006c00 	andeq	r6, r0, r0, lsl #24
    2c14:	00008400 	andeq	r8, r0, r0, lsl #8
    2c18:	50000100 	andpl	r0, r0, r0, lsl #2
    2c1c:	00000084 	andeq	r0, r0, r4, lsl #1
    2c20:	0000008c 	andeq	r0, r0, ip, lsl #1
    2c24:	01f30004 	mvnseq	r0, r4
    2c28:	008c9f50 	addeq	r9, ip, r0, asr pc
    2c2c:	00ac0000 	adceq	r0, ip, r0
    2c30:	00010000 	andeq	r0, r1, r0
    2c34:	0000ac50 	andeq	sl, r0, r0, asr ip
    2c38:	0000af00 	andeq	sl, r0, r0, lsl #30
    2c3c:	91000200 	mrsls	r0, R8_usr
    2c40:	0000af68 	andeq	sl, r0, r8, ror #30
    2c44:	0000cc00 	andeq	ip, r0, r0, lsl #24
    2c48:	f3000400 	vshl.u8	d0, d0, d0
    2c4c:	009f5001 	addseq	r5, pc, r1
	...
    2c5c:	00017000 	andeq	r7, r1, r0
    2c60:	00017c00 	andeq	r7, r1, r0, lsl #24
    2c64:	50000100 	andpl	r0, r0, r0, lsl #2
    2c68:	0000017c 	andeq	r0, r0, ip, ror r1
    2c6c:	00000188 	andeq	r0, r0, r8, lsl #3
    2c70:	88540001 	ldmdahi	r4, {r0}^
    2c74:	98000001 	stmdals	r0, {r0}
    2c78:	04000001 	streq	r0, [r0], #-1
    2c7c:	5001f300 	andpl	pc, r1, r0, lsl #6
    2c80:	0000009f 	muleq	r0, pc, r0	; <UNPREDICTABLE>
	...
    2c90:	78000000 	stmdavc	r0, {}	; <UNPREDICTABLE>
    2c94:	7c000001 	stcvc	0, cr0, [r0], {1}
    2c98:	0b000001 	bleq	2ca4 <__code_start__-0x535c>
    2c9c:	35007000 	strcc	r7, [r0, #-0]
    2ca0:	80b42325 	adcshi	r2, r4, r5, lsr #6
    2ca4:	9f028180 	svcls	0x00028180
    2ca8:	0000017c 	andeq	r0, r0, ip, ror r1
    2cac:	00000180 	andeq	r0, r0, r0, lsl #3
    2cb0:	0074000b 	rsbseq	r0, r4, fp
    2cb4:	b4232535 	strtlt	r2, [r3], #-1333	; 0xfffffacb
    2cb8:	02818080 	addeq	r8, r1, #128, 0	; 0x80
    2cbc:	0001809f 	muleq	r1, pc, r0	; <UNPREDICTABLE>
    2cc0:	00018300 	andeq	r8, r1, r0, lsl #6
    2cc4:	50000100 	andpl	r0, r0, r0, lsl #2
    2cc8:	00000183 	andeq	r0, r0, r3, lsl #3
    2ccc:	00000188 	andeq	r0, r0, r8, lsl #3
    2cd0:	0074000b 	rsbseq	r0, r4, fp
    2cd4:	b4232535 	strtlt	r2, [r3], #-1333	; 0xfffffacb
    2cd8:	02818080 	addeq	r8, r1, #128, 0	; 0x80
    2cdc:	0001889f 	muleq	r1, pc, r8	; <UNPREDICTABLE>
    2ce0:	00019800 	andeq	r9, r1, r0, lsl #16
    2ce4:	f3000c00 			; <UNDEFINED> instruction: 0xf3000c00
    2ce8:	25355001 	ldrcs	r5, [r5, #-1]!
    2cec:	8080b423 	addhi	fp, r0, r3, lsr #8
    2cf0:	009f0281 	addseq	r0, pc, r1, lsl #5
    2cf4:	00000000 	andeq	r0, r0, r0
    2cf8:	01000000 	mrseq	r0, (UNDEF: 0)
    2cfc:	00000000 	andeq	r0, r0, r0
    2d00:	00017800 	andeq	r7, r1, r0, lsl #16
    2d04:	00017c00 	andeq	r7, r1, r0, lsl #24
    2d08:	70000500 	andvc	r0, r0, r0, lsl #10
    2d0c:	9f1a4f00 	svcls	0x001a4f00
    2d10:	0000017c 	andeq	r0, r0, ip, ror r1
    2d14:	00000188 	andeq	r0, r0, r8, lsl #3
    2d18:	00740005 	rsbseq	r0, r4, r5
    2d1c:	889f1a4f 	ldmhi	pc, {r0, r1, r2, r3, r6, r9, fp, ip}	; <UNPREDICTABLE>
    2d20:	98000001 	stmdals	r0, {r0}
    2d24:	01000001 	tsteq	r0, r1
    2d28:	00005400 	andeq	r5, r0, r0, lsl #8
	...
    2d3c:	01400000 	mrseq	r0, (UNDEF: 64)
    2d40:	01540000 	cmpeq	r4, r0
    2d44:	00010000 	andeq	r0, r1, r0
    2d48:	00015450 	andeq	r5, r1, r0, asr r4
    2d4c:	00015800 	andeq	r5, r1, r0, lsl #16
    2d50:	51000100 	mrspl	r0, (UNDEF: 16)
    2d54:	00000158 	andeq	r0, r0, r8, asr r1
    2d58:	0000015c 	andeq	r0, r0, ip, asr r1
    2d5c:	01f30004 	mvnseq	r0, r4
    2d60:	015c9f50 	cmpeq	ip, r0, asr pc
    2d64:	01600000 	cmneq	r0, r0
    2d68:	00010000 	andeq	r0, r1, r0
    2d6c:	00016050 	andeq	r6, r1, r0, asr r0
    2d70:	00016400 	andeq	r6, r1, r0, lsl #8
    2d74:	51000100 	mrspl	r0, (UNDEF: 16)
    2d78:	00000164 	andeq	r0, r0, r4, ror #2
    2d7c:	00000170 	andeq	r0, r0, r0, ror r1
    2d80:	01f30004 	mvnseq	r0, r4
    2d84:	00009f50 	andeq	r9, r0, r0, asr pc
	...
    2d90:	01400000 	mrseq	r0, (UNDEF: 64)
    2d94:	014c0000 	mrseq	r0, (UNDEF: 76)
    2d98:	00010000 	andeq	r0, r1, r0
    2d9c:	00014c51 	andeq	r4, r1, r1, asr ip
    2da0:	00017000 	andeq	r7, r1, r0
    2da4:	f3000400 	vshl.u8	d0, d0, d0
    2da8:	009f5101 	addseq	r5, pc, r1, lsl #2
    2dac:	00000000 	andeq	r0, r0, r0
    2db0:	01000000 	mrseq	r0, (UNDEF: 0)
    2db4:	00000000 	andeq	r0, r0, r0
    2db8:	00015000 	andeq	r5, r1, r0
    2dbc:	00015400 	andeq	r5, r1, r0, lsl #8
    2dc0:	50000100 	andpl	r0, r0, r0, lsl #2
    2dc4:	00000154 	andeq	r0, r0, r4, asr r1
    2dc8:	00000158 	andeq	r0, r0, r8, asr r1
    2dcc:	58510001 	ldmdapl	r1, {r0}^
    2dd0:	5c000001 	stcpl	0, cr0, [r0], {1}
    2dd4:	04000001 	streq	r0, [r0], #-1
    2dd8:	5001f300 	andpl	pc, r1, r0, lsl #6
    2ddc:	0000009f 	muleq	r0, pc, r0	; <UNPREDICTABLE>
    2de0:	00000000 	andeq	r0, r0, r0
    2de4:	00000200 	andeq	r0, r0, r0, lsl #4
    2de8:	5c000000 	stcpl	0, cr0, [r0], {-0}
    2dec:	60000001 	andvs	r0, r0, r1
    2df0:	01000001 	tsteq	r0, r1
    2df4:	01605000 	cmneq	r0, r0
    2df8:	01640000 	cmneq	r4, r0
    2dfc:	00010000 	andeq	r0, r1, r0
    2e00:	00016451 	andeq	r6, r1, r1, asr r4
    2e04:	00017000 	andeq	r7, r1, r0
    2e08:	f3000400 	vshl.u8	d0, d0, d0
    2e0c:	009f5001 	addseq	r5, pc, r1
	...
    2e1c:	0000e800 	andeq	lr, r0, r0, lsl #16
    2e20:	00010800 	andeq	r0, r1, r0, lsl #16
    2e24:	50000100 	andpl	r0, r0, r0, lsl #2
    2e28:	00000108 	andeq	r0, r0, r8, lsl #2
    2e2c:	00000128 	andeq	r0, r0, r8, lsr #2
    2e30:	28540001 	ldmdacs	r4, {r0}^
    2e34:	40000001 	andmi	r0, r0, r1
    2e38:	04000001 	streq	r0, [r0], #-1
    2e3c:	5001f300 	andpl	pc, r1, r0, lsl #6
    2e40:	0000009f 	muleq	r0, pc, r0	; <UNPREDICTABLE>
    2e44:	00000000 	andeq	r0, r0, r0
    2e48:	00000200 	andeq	r0, r0, r0, lsl #4
    2e4c:	e8000000 	stmda	r0, {}	; <UNPREDICTABLE>
    2e50:	08000000 	stmdaeq	r0, {}	; <UNPREDICTABLE>
    2e54:	01000001 	tsteq	r0, r1
    2e58:	01085000 	mrseq	r5, (UNDEF: 8)
    2e5c:	01280000 			; <UNDEFINED> instruction: 0x01280000
    2e60:	00010000 	andeq	r0, r1, r0
    2e64:	00012854 	andeq	r2, r1, r4, asr r8
    2e68:	00014000 	andeq	r4, r1, r0
    2e6c:	f3000400 	vshl.u8	d0, d0, d0
    2e70:	009f5001 	addseq	r5, pc, r1
	...
    2e80:	0000f000 	andeq	pc, r0, r0
    2e84:	00010800 	andeq	r0, r1, r0, lsl #16
    2e88:	50000100 	andpl	r0, r0, r0, lsl #2
    2e8c:	00000108 	andeq	r0, r0, r8, lsl #2
    2e90:	00000128 	andeq	r0, r0, r8, lsr #2
    2e94:	28540001 	ldmdacs	r4, {r0}^
    2e98:	40000001 	andmi	r0, r0, r1
    2e9c:	04000001 	streq	r0, [r0], #-1
    2ea0:	5001f300 	andpl	pc, r1, r0, lsl #6
    2ea4:	0000009f 	muleq	r0, pc, r0	; <UNPREDICTABLE>
    2ea8:	00000000 	andeq	r0, r0, r0
    2eac:	00000300 	andeq	r0, r0, r0, lsl #6
    2eb0:	f0000000 			; <UNDEFINED> instruction: 0xf0000000
    2eb4:	08000000 	stmdaeq	r0, {}	; <UNPREDICTABLE>
    2eb8:	07000001 	streq	r0, [r0, -r1]
    2ebc:	3a007000 	bcc	1eec4 <__bss_end__+0x13eb4>
    2ec0:	9f1e331d 	svcls	0x001e331d
    2ec4:	00000108 	andeq	r0, r0, r8, lsl #2
    2ec8:	00000128 	andeq	r0, r0, r8, lsr #2
    2ecc:	00740007 	rsbseq	r0, r4, r7
    2ed0:	1e331d3a 	mrcne	13, 1, r1, cr3, cr10, {1}
    2ed4:	0001289f 	muleq	r1, pc, r8	; <UNPREDICTABLE>
    2ed8:	00014000 	andeq	r4, r1, r0
    2edc:	f3000800 	vsub.i8	d0, d0, d0
    2ee0:	1d3a5001 	ldcne	0, cr5, [sl, #-4]!
    2ee4:	009f1e33 	addseq	r1, pc, r3, lsr lr	; <UNPREDICTABLE>
	...
    2ef4:	00011000 	andeq	r1, r1, r0
    2ef8:	00013800 	andeq	r3, r1, r0, lsl #16
    2efc:	56000100 	strpl	r0, [r0], -r0, lsl #2
    2f00:	00000138 	andeq	r0, r0, r8, lsr r1
    2f04:	0000013b 	andeq	r0, r0, fp, lsr r1
    2f08:	3b500001 	blcc	1402f14 <__bss_end__+0x13f7f04>
    2f0c:	40000001 	andmi	r0, r0, r1
    2f10:	26000001 	strcs	r0, [r0], -r1
    2f14:	5001f300 	andpl	pc, r1, r0, lsl #6
    2f18:	25f72cf7 	ldrbcs	r2, [r7, #3319]!	; 0xcf7
    2f1c:	cd0825f4 	cfstr32gt	mvfx2, [r8, #-976]	; 0xfffffc30
    2f20:	00cccccc 	sbceq	ip, ip, ip, asr #25
    2f24:	1e000000 	cdpne	0, 0, cr0, cr0, cr0, {0}
    2f28:	25f72008 	ldrbcs	r2, [r7, #8]!
    2f2c:	f72cf725 			; <UNDEFINED> instruction: 0xf72cf725
    2f30:	23253300 			; <UNDEFINED> instruction: 0x23253300
    2f34:	40a08080 	adcmi	r8, r0, r0, lsl #1
    2f38:	009f2432 	addseq	r2, pc, r2, lsr r4	; <UNPREDICTABLE>
	...
    2f44:	00000101 	andeq	r0, r0, r1, lsl #2
    2f48:	20000000 	andcs	r0, r0, r0
    2f4c:	20000001 	andcs	r0, r0, r1
    2f50:	01000001 	tsteq	r0, r1
    2f54:	01205000 			; <UNDEFINED> instruction: 0x01205000
    2f58:	01280000 			; <UNDEFINED> instruction: 0x01280000
    2f5c:	000d0000 	andeq	r0, sp, r0
    2f60:	3a007437 	bcc	20044 <__bss_end__+0x15034>
    2f64:	241e331d 	ldrcs	r3, [lr], #-797	; 0xfffffce3
    2f68:	1a007020 	bne	1eff0 <__bss_end__+0x13fe0>
    2f6c:	0001289f 	muleq	r1, pc, r8	; <UNPREDICTABLE>
    2f70:	00013000 	andeq	r3, r1, r0
    2f74:	37000e00 	strcc	r0, [r0, -r0, lsl #28]
    2f78:	3a5001f3 	bcc	140374c <__bss_end__+0x13f873c>
    2f7c:	241e331d 	ldrcs	r3, [lr], #-797	; 0xfffffce3
    2f80:	1a007020 	bne	1f008 <__bss_end__+0x13ff8>
    2f84:	0001309f 	muleq	r1, pc, r0	; <UNPREDICTABLE>
    2f88:	00013b00 	andeq	r3, r1, r0, lsl #22
    2f8c:	37000e00 	strcc	r0, [r0, -r0, lsl #28]
    2f90:	3a5001f3 	bcc	1403764 <__bss_end__+0x13f8754>
    2f94:	241e331d 	ldrcs	r3, [lr], #-797	; 0xfffffce3
    2f98:	1a007320 	bne	1fc20 <__bss_end__+0x14c10>
    2f9c:	0000009f 	muleq	r0, pc, r0	; <UNPREDICTABLE>
	...
    2fa8:	00006000 	andeq	r6, r0, r0
    2fac:	00009000 	andeq	r9, r0, r0
    2fb0:	50000100 	andpl	r0, r0, r0, lsl #2
    2fb4:	00000090 	muleq	r0, r0, r0
    2fb8:	000000b8 	strheq	r0, [r0], -r8
    2fbc:	01f30004 	mvnseq	r0, r4
    2fc0:	00009f50 	andeq	r9, r0, r0, asr pc
    2fc4:	00000000 	andeq	r0, r0, r0
    2fc8:	00020000 	andeq	r0, r2, r0
    2fcc:	00600000 	rsbeq	r0, r0, r0
    2fd0:	00900000 	addseq	r0, r0, r0
    2fd4:	00010000 	andeq	r0, r1, r0
    2fd8:	00009050 	andeq	r9, r0, r0, asr r0
    2fdc:	0000b800 	andeq	fp, r0, r0, lsl #16
    2fe0:	f3000400 	vshl.u8	d0, d0, d0
    2fe4:	009f5001 	addseq	r5, pc, r1
	...
    2ff0:	68000000 	stmdavs	r0, {}	; <UNPREDICTABLE>
    2ff4:	90000000 	andls	r0, r0, r0
    2ff8:	01000000 	mrseq	r0, (UNDEF: 0)
    2ffc:	00905000 	addseq	r5, r0, r0
    3000:	00b80000 	adcseq	r0, r8, r0
    3004:	00040000 	andeq	r0, r4, r0
    3008:	9f5001f3 	svcls	0x005001f3
	...
    3018:	000000a0 	andeq	r0, r0, r0, lsr #1
    301c:	000000b0 	strheq	r0, [r0], -r0	; <UNPREDICTABLE>
    3020:	b0540001 	subslt	r0, r4, r1
    3024:	b8000000 	stmdalt	r0, {}	; <UNPREDICTABLE>
    3028:	29000000 	stmdbcs	r0, {}	; <UNPREDICTABLE>
    302c:	5001f300 	andpl	pc, r1, r0, lsl #6
    3030:	f75001f3 			; <UNDEFINED> instruction: 0xf75001f3
    3034:	f425f72c 	vld1.8	{d15}, [r5 :128], ip
    3038:	cccd0825 	stclgt	8, cr0, [sp], {37}	; 0x25
    303c:	0000cccc 	andeq	ip, r0, ip, asr #25
    3040:	081e0000 	ldmdaeq	lr, {}	; <UNPREDICTABLE>
    3044:	2525f720 	strcs	pc, [r5, #-1824]!	; 0xfffff8e0
    3048:	00f72cf7 	ldrshteq	r2, [r7], #199	; 0xc7
    304c:	1e352533 	mrcne	5, 1, r2, cr5, cr3, {1}
    3050:	331c2431 	tstcc	ip, #822083584	; 0x31000000
    3054:	00009f1e 	andeq	r9, r0, lr, lsl pc
    3058:	00000000 	andeq	r0, r0, r0
    305c:	00010000 	andeq	r0, r1, r0
    3060:	00000000 	andeq	r0, r0, r0
    3064:	000000a0 	andeq	r0, r0, r0, lsr #1
    3068:	000000b0 	strheq	r0, [r0], -r0	; <UNPREDICTABLE>
    306c:	b0550001 	subslt	r0, r5, r1
    3070:	b3000000 	movwlt	r0, #0
    3074:	01000000 	mrseq	r0, (UNDEF: 0)
    3078:	00b35000 	adcseq	r5, r3, r0
    307c:	00b80000 	adcseq	r0, r8, r0
    3080:	00260000 	eoreq	r0, r6, r0
    3084:	f75001f3 			; <UNDEFINED> instruction: 0xf75001f3
    3088:	f425f72c 	vld1.8	{d15}, [r5 :128], ip
    308c:	cccd0825 	stclgt	8, cr0, [sp], {37}	; 0x25
    3090:	0000cccc 	andeq	ip, r0, ip, asr #25
    3094:	081e0000 	ldmdaeq	lr, {}	; <UNPREDICTABLE>
    3098:	2525f720 	strcs	pc, [r5, #-1824]!	; 0xfffff8e0
    309c:	00f72cf7 	ldrshteq	r2, [r7], #199	; 0xc7
    30a0:	80232533 	eorhi	r2, r3, r3, lsr r5
    30a4:	3240a080 	subcc	sl, r0, #128, 0	; 0x80
    30a8:	00009f24 	andeq	r9, r0, r4, lsr #30
    30ac:	00000000 	andeq	r0, r0, r0
    30b0:	00020000 	andeq	r0, r2, r0
    30b4:	00010100 	andeq	r0, r1, r0, lsl #2
    30b8:	00a00000 	adceq	r0, r0, r0
    30bc:	00a40000 	adceq	r0, r4, r0
    30c0:	00010000 	andeq	r0, r1, r0
    30c4:	0000a450 	andeq	sl, r0, r0, asr r4
    30c8:	0000a400 	andeq	sl, r0, r0, lsl #8
    30cc:	53000100 	movwpl	r0, #256	; 0x100
    30d0:	000000a4 	andeq	r0, r0, r4, lsr #1
    30d4:	000000a8 	andeq	r0, r0, r8, lsr #1
    30d8:	74310008 	ldrtvc	r0, [r1], #-8
    30dc:	00732400 	rsbseq	r2, r3, r0, lsl #8
    30e0:	00a89f21 	adceq	r9, r8, r1, lsr #30
    30e4:	00b30000 	adcseq	r0, r3, r0
    30e8:	00010000 	andeq	r0, r1, r0
    30ec:	00000051 	andeq	r0, r0, r1, asr r0
	...
    30fc:	00003c00 	andeq	r3, r0, r0, lsl #24
    3100:	50000100 	andpl	r0, r0, r0, lsl #2
    3104:	0000003c 	andeq	r0, r0, ip, lsr r0
    3108:	00000060 	andeq	r0, r0, r0, rrx
    310c:	01f30004 	mvnseq	r0, r4
    3110:	00009f50 	andeq	r9, r0, r0, asr pc
	...
    3120:	003f0000 	eorseq	r0, pc, r0
    3124:	00010000 	andeq	r0, r1, r0
    3128:	00003f51 	andeq	r3, r0, r1, asr pc
    312c:	00006000 	andeq	r6, r0, r0
    3130:	f3000400 	vshl.u8	d0, d0, d0
    3134:	009f5101 	addseq	r5, pc, r1, lsl #2
	...
    3140:	08000000 	stmdaeq	r0, {}	; <UNPREDICTABLE>
    3144:	3f000000 	svccc	0x00000000
    3148:	01000000 	mrseq	r0, (UNDEF: 0)
    314c:	003f5100 	eorseq	r5, pc, r0, lsl #2
    3150:	00600000 	rsbeq	r0, r0, r0
    3154:	00040000 	andeq	r0, r4, r0
    3158:	9f5101f3 	svcls	0x005101f3
	...
    3168:	00000008 	andeq	r0, r0, r8
    316c:	0000003c 	andeq	r0, r0, ip, lsr r0
    3170:	3c500001 	mrrccc	0, 0, r0, r0, cr1	; <UNPREDICTABLE>
    3174:	60000000 	andvs	r0, r0, r0
    3178:	04000000 	streq	r0, [r0], #-0
    317c:	5001f300 	andpl	pc, r1, r0, lsl #6
    3180:	0000009f 	muleq	r0, pc, r0	; <UNPREDICTABLE>
	...
    318c:	00004800 	andeq	r4, r0, r0, lsl #16
    3190:	00005800 	andeq	r5, r0, r0, lsl #16
    3194:	54000100 	strpl	r0, [r0], #-256	; 0xffffff00
    3198:	00000058 	andeq	r0, r0, r8, asr r0
    319c:	00000060 	andeq	r0, r0, r0, rrx
    31a0:	01f30029 	mvnseq	r0, r9, lsr #32
    31a4:	5001f350 	andpl	pc, r1, r0, asr r3	; <UNPREDICTABLE>
    31a8:	25f72cf7 	ldrbcs	r2, [r7, #3319]!	; 0xcf7
    31ac:	cd0825f4 	cfstr32gt	mvfx2, [r8, #-976]	; 0xfffffc30
    31b0:	00cccccc 	sbceq	ip, ip, ip, asr #25
    31b4:	1e000000 	cdpne	0, 0, cr0, cr0, cr0, {0}
    31b8:	25f72008 	ldrbcs	r2, [r7, #8]!
    31bc:	f72cf725 			; <UNDEFINED> instruction: 0xf72cf725
    31c0:	35253300 	strcc	r3, [r5, #-768]!	; 0xfffffd00
    31c4:	1c24311e 	stfnes	f3, [r4], #-120	; 0xffffff88
    31c8:	009f1e33 	addseq	r1, pc, r3, lsr lr	; <UNPREDICTABLE>
    31cc:	00000000 	andeq	r0, r0, r0
    31d0:	01000000 	mrseq	r0, (UNDEF: 0)
    31d4:	00000000 	andeq	r0, r0, r0
    31d8:	00004800 	andeq	r4, r0, r0, lsl #16
    31dc:	00005800 	andeq	r5, r0, r0, lsl #16
    31e0:	56000100 	strpl	r0, [r0], -r0, lsl #2
    31e4:	00000058 	andeq	r0, r0, r8, asr r0
    31e8:	0000005b 	andeq	r0, r0, fp, asr r0
    31ec:	5b500001 	blpl	14031f8 <__bss_end__+0x13f81e8>
    31f0:	60000000 	andvs	r0, r0, r0
    31f4:	26000000 	strcs	r0, [r0], -r0
    31f8:	5001f300 	andpl	pc, r1, r0, lsl #6
    31fc:	25f72cf7 	ldrbcs	r2, [r7, #3319]!	; 0xcf7
    3200:	cd0825f4 	cfstr32gt	mvfx2, [r8, #-976]	; 0xfffffc30
    3204:	00cccccc 	sbceq	ip, ip, ip, asr #25
    3208:	1e000000 	cdpne	0, 0, cr0, cr0, cr0, {0}
    320c:	25f72008 	ldrbcs	r2, [r7, #8]!
    3210:	f72cf725 			; <UNDEFINED> instruction: 0xf72cf725
    3214:	23253300 			; <UNDEFINED> instruction: 0x23253300
    3218:	40a08080 	adcmi	r8, r0, r0, lsl #1
    321c:	009f2432 	addseq	r2, pc, r2, lsr r4	; <UNPREDICTABLE>
    3220:	00000000 	andeq	r0, r0, r0
    3224:	02000000 	andeq	r0, r0, #0, 0
    3228:	01010000 	mrseq	r0, (UNDEF: 1)
    322c:	48000000 	stmdami	r0, {}	; <UNPREDICTABLE>
    3230:	4c000000 	stcmi	0, cr0, [r0], {-0}
    3234:	01000000 	mrseq	r0, (UNDEF: 0)
    3238:	004c5000 	subeq	r5, ip, r0
    323c:	004c0000 	subeq	r0, ip, r0
    3240:	00010000 	andeq	r0, r1, r0
    3244:	00004c51 	andeq	r4, r0, r1, asr ip
    3248:	00005000 	andeq	r5, r0, r0
    324c:	75000c00 	strvc	r0, [r0, #-3072]	; 0xfffff400
    3250:	1aff0800 	bne	fffc5258 <__bss_end__+0xfffba248>
    3254:	71240074 			; <UNDEFINED> instruction: 0x71240074
    3258:	509f2100 	addspl	r2, pc, r0, lsl #2
    325c:	54000000 	strpl	r0, [r0], #-0
    3260:	12000000 	andne	r0, r0, #0, 0
    3264:	00743700 	rsbseq	r3, r4, r0, lsl #14
    3268:	00702024 	rsbseq	r2, r0, r4, lsr #32
    326c:	0800751a 	stmdaeq	r0, {r1, r3, r4, r8, sl, ip, sp, lr}
    3270:	00741aff 	ldrshteq	r1, [r4], #-175	; 0xffffff51
    3274:	009f2124 	addseq	r2, pc, r4, lsr #2
	...
    3284:	0000b800 	andeq	fp, r0, r0, lsl #16
    3288:	0000c400 	andeq	ip, r0, r0, lsl #8
    328c:	50000100 	andpl	r0, r0, r0, lsl #2
    3290:	000000c4 	andeq	r0, r0, r4, asr #1
    3294:	000000cb 	andeq	r0, r0, fp, asr #1
    3298:	cb530001 	blgt	14c32a4 <__bss_end__+0x14b8294>
    329c:	d0000000 	andle	r0, r0, r0
    32a0:	04000000 	streq	r0, [r0], #-0
    32a4:	5001f300 	andpl	pc, r1, r0, lsl #6
    32a8:	0000009f 	muleq	r0, pc, r0	; <UNPREDICTABLE>
	...
    32b4:	d0000000 	andle	r0, r0, r0
    32b8:	dc000000 	stcle	0, cr0, [r0], {-0}
    32bc:	01000000 	mrseq	r0, (UNDEF: 0)
    32c0:	00dc5000 	sbcseq	r5, ip, r0
    32c4:	00e30000 	rsceq	r0, r3, r0
    32c8:	00010000 	andeq	r0, r1, r0
    32cc:	0000e353 	andeq	lr, r0, r3, asr r3
    32d0:	0000e800 	andeq	lr, r0, r0, lsl #16
    32d4:	f3000400 	vshl.u8	d0, d0, d0
    32d8:	009f5001 	addseq	r5, pc, r1
	...
    32e8:	0b000000 	bleq	32f0 <__code_start__-0x4d10>
    32ec:	01000000 	mrseq	r0, (UNDEF: 0)
    32f0:	000b5000 	andeq	r5, fp, r0
    32f4:	00140000 	andseq	r0, r4, r0
    32f8:	00010000 	andeq	r0, r1, r0
    32fc:	00000054 	andeq	r0, r0, r4, asr r0
	...
    330c:	00001800 	andeq	r1, r0, r0, lsl #16
    3310:	51000100 	mrspl	r0, (UNDEF: 16)
    3314:	00000018 	andeq	r0, r0, r8, lsl r0
    3318:	0000002c 	andeq	r0, r0, ip, lsr #32
    331c:	01f30004 	mvnseq	r0, r4
    3320:	00009f51 	andeq	r9, r0, r1, asr pc
    3324:	00000000 	andeq	r0, r0, r0
    3328:	00020000 	andeq	r0, r2, r0
    332c:	00000000 	andeq	r0, r0, r0
    3330:	01000000 	mrseq	r0, (UNDEF: 0)
    3334:	00000001 	andeq	r0, r0, r1
    3338:	00000000 	andeq	r0, r0, r0
    333c:	00000004 	andeq	r0, r0, r4
    3340:	04500001 	ldrbeq	r0, [r0], #-1
    3344:	08000000 	stmdaeq	r0, {}	; <UNPREDICTABLE>
    3348:	01000000 	mrseq	r0, (UNDEF: 0)
    334c:	00085200 	andeq	r5, r8, r0, lsl #4
    3350:	000c0000 	andeq	r0, ip, r0
    3354:	00030000 	andeq	r0, r3, r0
    3358:	0c9f0172 	ldfeqs	f0, [pc], {114}	; 0x72
    335c:	18000000 	stmdane	r0, {}	; <UNPREDICTABLE>
    3360:	01000000 	mrseq	r0, (UNDEF: 0)
    3364:	00185200 	andseq	r5, r8, r0, lsl #4
    3368:	001c0000 	andseq	r0, ip, r0
    336c:	00010000 	andeq	r0, r1, r0
    3370:	00001c53 	andeq	r1, r0, r3, asr ip
    3374:	00002400 	andeq	r2, r0, r0, lsl #8
    3378:	73000300 	movwvc	r0, #768	; 0x300
    337c:	00249f01 	eoreq	r9, r4, r1, lsl #30
    3380:	002c0000 	eoreq	r0, ip, r0
    3384:	00010000 	andeq	r0, r1, r0
    3388:	00000053 	andeq	r0, r0, r3, asr r0
    338c:	00000000 	andeq	r0, r0, r0
    3390:	02020300 	andeq	r0, r2, #0, 6
    3394:	00000000 	andeq	r0, r0, r0
    3398:	18000000 	stmdane	r0, {}	; <UNPREDICTABLE>
    339c:	01000000 	mrseq	r0, (UNDEF: 0)
    33a0:	00185100 	andseq	r5, r8, r0, lsl #2
    33a4:	001c0000 	andseq	r0, ip, r0
    33a8:	00030000 	andeq	r0, r3, r0
    33ac:	1c9f0171 	ldfnes	f0, [pc], {113}	; 0x71
    33b0:	2c000000 	stccs	0, cr0, [r0], {-0}
    33b4:	01000000 	mrseq	r0, (UNDEF: 0)
    33b8:	00005100 	andeq	r5, r0, r0, lsl #2
	...
    33c8:	00000008 	andeq	r0, r0, r8
    33cc:	0000000c 	andeq	r0, r0, ip
    33d0:	00720002 	rsbseq	r0, r2, r2
    33d4:	0000000c 	andeq	r0, r0, ip
    33d8:	00000018 	andeq	r0, r0, r8, lsl r0
    33dc:	00730002 	rsbseq	r0, r3, r2
    33e0:	0000001c 	andeq	r0, r0, ip, lsl r0
    33e4:	0000002c 	andeq	r0, r0, ip, lsr #32
    33e8:	00520001 	subseq	r0, r2, r1
	...
    3400:	14000000 	strne	r0, [r0], #-0
    3404:	01000000 	mrseq	r0, (UNDEF: 0)
    3408:	00145000 	andseq	r5, r4, r0
    340c:	00180000 	andseq	r0, r8, r0
    3410:	00030000 	andeq	r0, r3, r0
    3414:	189f0170 	ldmne	pc, {r4, r5, r6, r8}	; <UNPREDICTABLE>
    3418:	20000000 	andcs	r0, r0, r0
    341c:	01000000 	mrseq	r0, (UNDEF: 0)
    3420:	00245000 	eoreq	r5, r4, r0
    3424:	00280000 	eoreq	r0, r8, r0
    3428:	00010000 	andeq	r0, r1, r0
    342c:	00002850 	andeq	r2, r0, r0, asr r8
    3430:	00003000 	andeq	r3, r0, r0
    3434:	70000300 	andvc	r0, r0, r0, lsl #6
    3438:	00389f01 	eorseq	r9, r8, r1, lsl #30
    343c:	00400000 	subeq	r0, r0, r0
    3440:	00010000 	andeq	r0, r1, r0
    3444:	00000050 	andeq	r0, r0, r0, asr r0
	...
    3454:	24000000 	strcs	r0, [r0], #-0
    3458:	01000000 	mrseq	r0, (UNDEF: 0)
    345c:	00245100 	eoreq	r5, r4, r0, lsl #2
    3460:	00280000 	eoreq	r0, r8, r0
    3464:	00010000 	andeq	r0, r1, r0
    3468:	0000285c 	andeq	r2, r0, ip, asr r8
    346c:	00004400 	andeq	r4, r0, r0, lsl #8
    3470:	51000100 	mrspl	r0, (UNDEF: 16)
	...
    347c:	00020200 	andeq	r0, r2, r0, lsl #4
    3480:	00000000 	andeq	r0, r0, r0
    3484:	00040000 	andeq	r0, r4, r0
    3488:	00010000 	andeq	r0, r1, r0
    348c:	00000451 	andeq	r0, r0, r1, asr r4
    3490:	00000800 	andeq	r0, r0, r0, lsl #16
    3494:	71000300 	mrsvc	r0, LR_irq
    3498:	00089f01 	andeq	r9, r8, r1, lsl #30
    349c:	00180000 	andseq	r0, r8, r0
    34a0:	00010000 	andeq	r0, r1, r0
    34a4:	00000051 	andeq	r0, r0, r1, asr r0
    34a8:	00000000 	andeq	r0, r0, r0
    34ac:	00000200 	andeq	r0, r0, r0, lsl #4
    34b0:	04000000 	streq	r0, [r0], #-0
    34b4:	01000000 	mrseq	r0, (UNDEF: 0)
    34b8:	00005000 	andeq	r5, r0, r0
	...
    34c8:	00080000 	andeq	r0, r8, r0
    34cc:	00010000 	andeq	r0, r1, r0
    34d0:	00000850 	andeq	r0, r0, r0, asr r8
    34d4:	00003000 	andeq	r3, r0, r0
    34d8:	f3000400 	vshl.u8	d0, d0, d0
    34dc:	009f5001 	addseq	r5, pc, r1
	...
    34ec:	08000000 	stmdaeq	r0, {}	; <UNPREDICTABLE>
    34f0:	01000000 	mrseq	r0, (UNDEF: 0)
    34f4:	00085100 	andeq	r5, r8, r0, lsl #2
    34f8:	00300000 	eorseq	r0, r0, r0
    34fc:	00040000 	andeq	r0, r4, r0
    3500:	9f5101f3 	svcls	0x005101f3
	...
    3510:	02010000 	andeq	r0, r1, #0, 0
    3514:	00000002 	andeq	r0, r0, r2
    3518:	00040000 	andeq	r0, r4, r0
    351c:	00010000 	andeq	r0, r1, r0
    3520:	00000452 	andeq	r0, r0, r2, asr r4
    3524:	00000800 	andeq	r0, r0, r0, lsl #16
    3528:	f3000400 	vshl.u8	d0, d0, d0
    352c:	089f5201 	ldmeq	pc, {r0, r9, ip, lr}	; <UNPREDICTABLE>
    3530:	18000000 	stmdane	r0, {}	; <UNPREDICTABLE>
    3534:	06000000 	streq	r0, [r0], -r0
    3538:	5201f300 	andpl	pc, r1, #0, 6
    353c:	189f1c31 	ldmne	pc, {r0, r4, r5, sl, fp, ip}	; <UNPREDICTABLE>
    3540:	18000000 	stmdane	r0, {}	; <UNPREDICTABLE>
    3544:	04000000 	streq	r0, [r0], #-0
    3548:	5201f300 	andpl	pc, r1, #0, 6
    354c:	0000189f 	muleq	r0, pc, r8	; <UNPREDICTABLE>
    3550:	00003000 	andeq	r3, r0, r0
    3554:	f3000600 	vmax.u8	d0, d0, d0
    3558:	1c315201 	lfmne	f5, 4, [r1], #-4
    355c:	0000009f 	muleq	r0, pc, r0	; <UNPREDICTABLE>
    3560:	00000000 	andeq	r0, r0, r0
    3564:	00000200 	andeq	r0, r0, r0, lsl #4
    3568:	00000100 	andeq	r0, r0, r0, lsl #2
    356c:	00000000 	andeq	r0, r0, r0
    3570:	00000c00 	andeq	r0, r0, r0, lsl #24
    3574:	50000100 	andpl	r0, r0, r0, lsl #2
    3578:	0000000c 	andeq	r0, r0, ip
    357c:	00000018 	andeq	r0, r0, r8, lsl r0
    3580:	7f700003 	svcvc	0x00700003
    3584:	0000189f 	muleq	r0, pc, r8	; <UNPREDICTABLE>
    3588:	00002400 	andeq	r2, r0, r0, lsl #8
    358c:	50000100 	andpl	r0, r0, r0, lsl #2
    3590:	00000028 	andeq	r0, r0, r8, lsr #32
    3594:	0000002c 	andeq	r0, r0, ip, lsr #32
    3598:	7f700003 	svcvc	0x00700003
    359c:	0000009f 	muleq	r0, pc, r0	; <UNPREDICTABLE>
    35a0:	00000000 	andeq	r0, r0, r0
    35a4:	00000200 	andeq	r0, r0, r0, lsl #4
    35a8:	00000000 	andeq	r0, r0, r0
    35ac:	0c000000 	stceq	0, cr0, [r0], {-0}
    35b0:	01000000 	mrseq	r0, (UNDEF: 0)
    35b4:	000c5100 	andeq	r5, ip, r0, lsl #2
    35b8:	00100000 	andseq	r0, r0, r0
    35bc:	00030000 	andeq	r0, r3, r0
    35c0:	109f0171 	addsne	r0, pc, r1, ror r1	; <UNPREDICTABLE>
    35c4:	30000000 	andcc	r0, r0, r0
    35c8:	01000000 	mrseq	r0, (UNDEF: 0)
    35cc:	00005100 	andeq	r5, r0, r0, lsl #2
    35d0:	00000000 	andeq	r0, r0, r0
	...

Disassembly of section .debug_aranges:

00000000 <.debug_aranges>:
   0:	0000001c 	andeq	r0, r0, ip, lsl r0
   4:	00000002 	andeq	r0, r0, r2
   8:	00040000 	andeq	r0, r4, r0
   c:	00000000 	andeq	r0, r0, r0
  10:	00008038 	andeq	r8, r0, r8, lsr r0
  14:	000000f8 	strdeq	r0, [r0], -r8
	...
  20:	0000001c 	andeq	r0, r0, ip, lsl r0
  24:	03ae0002 			; <UNDEFINED> instruction: 0x03ae0002
  28:	00040000 	andeq	r0, r4, r0
  2c:	00000000 	andeq	r0, r0, r0
  30:	00008130 	andeq	r8, r0, r0, lsr r1
  34:	0000030c 	andeq	r0, r0, ip, lsl #6
	...
  40:	0000001c 	andeq	r0, r0, ip, lsl r0
  44:	0bb20002 	bleq	fec80054 <__bss_end__+0xfec75044>
  48:	00040000 	andeq	r0, r4, r0
  4c:	00000000 	andeq	r0, r0, r0
  50:	0000843c 	andeq	r8, r0, ip, lsr r4
  54:	00000190 	muleq	r0, r0, r1
	...
  60:	0000001c 	andeq	r0, r0, ip, lsl r0
  64:	0ea70002 	cdpeq	0, 10, cr0, cr7, cr2, {0}
  68:	00040000 	andeq	r0, r4, r0
  6c:	00000000 	andeq	r0, r0, r0
  70:	000085cc 	andeq	r8, r0, ip, asr #11
  74:	000006bc 			; <UNDEFINED> instruction: 0x000006bc
	...
  80:	0000001c 	andeq	r0, r0, ip, lsl r0
  84:	1d7a0002 	ldclne	0, cr0, [sl, #-8]!
  88:	00040000 	andeq	r0, r4, r0
  8c:	00000000 	andeq	r0, r0, r0
  90:	00008c90 	muleq	r0, r0, ip
  94:	00000078 	andeq	r0, r0, r8, ror r0
	...
  a0:	0000001c 	andeq	r0, r0, ip, lsl r0
  a4:	1ebe0002 	cdpne	0, 11, cr0, cr14, cr2, {0}
  a8:	00040000 	andeq	r0, r4, r0
  ac:	00000000 	andeq	r0, r0, r0
  b0:	00008d08 	andeq	r8, r0, r8, lsl #26
  b4:	00000058 	andeq	r0, r0, r8, asr r0
	...
  c0:	0000001c 	andeq	r0, r0, ip, lsl r0
  c4:	205f0002 	subscs	r0, pc, r2
  c8:	00040000 	andeq	r0, r4, r0
  cc:	00000000 	andeq	r0, r0, r0
  d0:	00008d60 	andeq	r8, r0, r0, ror #26
  d4:	00000038 	andeq	r0, r0, r8, lsr r0
	...
  e0:	0000001c 	andeq	r0, r0, ip, lsl r0
  e4:	21560002 	cmpcs	r6, r2
  e8:	00040000 	andeq	r0, r4, r0
  ec:	00000000 	andeq	r0, r0, r0
  f0:	00008d98 	muleq	r0, r8, sp
  f4:	00000098 	muleq	r0, r8, r0
	...
 100:	0000001c 	andeq	r0, r0, ip, lsl r0
 104:	22ba0002 	adcscs	r0, sl, #2, 0
 108:	00040000 	andeq	r0, r4, r0
 10c:	00000000 	andeq	r0, r0, r0
 110:	00008e30 	andeq	r8, r0, r0, lsr lr
 114:	000009b4 			; <UNDEFINED> instruction: 0x000009b4
	...
 120:	0000001c 	andeq	r0, r0, ip, lsl r0
 124:	2f3d0002 	svccs	0x003d0002
 128:	00040000 	andeq	r0, r4, r0
 12c:	00000000 	andeq	r0, r0, r0
 130:	000097e4 	andeq	r9, r0, r4, ror #15
 134:	0000002c 	andeq	r0, r0, ip, lsr #32
	...
 140:	0000001c 	andeq	r0, r0, ip, lsl r0
 144:	30700002 	rsbscc	r0, r0, r2
 148:	00040000 	andeq	r0, r4, r0
 14c:	00000000 	andeq	r0, r0, r0
 150:	00009810 	andeq	r9, r0, r0, lsl r8
 154:	000000f8 	strdeq	r0, [r0], -r8
	...
 160:	0000001c 	andeq	r0, r0, ip, lsl r0
 164:	32040002 	andcc	r0, r4, #2, 0
 168:	00040000 	andeq	r0, r4, r0
 16c:	00000000 	andeq	r0, r0, r0
 170:	00009908 	andeq	r9, r0, r8, lsl #18
 174:	00000004 	andeq	r0, r0, r4
	...
 180:	0000001c 	andeq	r0, r0, ip, lsl r0
 184:	32d60002 	sbcscc	r0, r6, #2, 0
 188:	00040000 	andeq	r0, r4, r0
 18c:	00000000 	andeq	r0, r0, r0
 190:	0000990c 	andeq	r9, r0, ip, lsl #18
 194:	0000008c 	andeq	r0, r0, ip, lsl #1
	...
 1a0:	0000001c 	andeq	r0, r0, ip, lsl r0
 1a4:	35570002 	ldrbcc	r0, [r7, #-2]
 1a8:	00040000 	andeq	r0, r4, r0
 1ac:	00000000 	andeq	r0, r0, r0
 1b0:	00009998 	muleq	r0, r8, r9
 1b4:	0000011c 	andeq	r0, r0, ip, lsl r1
	...
 1c0:	0000001c 	andeq	r0, r0, ip, lsl r0
 1c4:	3a9a0002 	bcc	fe6801d4 <__bss_end__+0xfe6751c4>
 1c8:	00040000 	andeq	r0, r4, r0
 1cc:	00000000 	andeq	r0, r0, r0
 1d0:	00009ab4 			; <UNDEFINED> instruction: 0x00009ab4
 1d4:	000001f0 	strdeq	r0, [r0], -r0	; <UNPREDICTABLE>
	...
 1e0:	0000001c 	andeq	r0, r0, ip, lsl r0
 1e4:	406b0002 	rsbmi	r0, fp, r2
 1e8:	00040000 	andeq	r0, r4, r0
 1ec:	00000000 	andeq	r0, r0, r0
 1f0:	00009ca4 	andeq	r9, r0, r4, lsr #25
 1f4:	000003b0 			; <UNDEFINED> instruction: 0x000003b0
	...
 200:	0000001c 	andeq	r0, r0, ip, lsl r0
 204:	49580002 	ldmdbmi	r8, {r1}^
 208:	00040000 	andeq	r0, r4, r0
 20c:	00000000 	andeq	r0, r0, r0
 210:	0000a054 	andeq	sl, r0, r4, asr r0
 214:	00000198 	muleq	r0, r8, r1
	...
 220:	0000001c 	andeq	r0, r0, ip, lsl r0
 224:	4fcf0002 	svcmi	0x00cf0002
 228:	00040000 	andeq	r0, r4, r0
 22c:	00000000 	andeq	r0, r0, r0
 230:	0000a1ec 	andeq	sl, r0, ip, ror #3
 234:	0000003c 	andeq	r0, r0, ip, lsr r0
	...
 240:	0000001c 	andeq	r0, r0, ip, lsl r0
 244:	511c0002 	tstpl	ip, r2
 248:	00040000 	andeq	r0, r4, r0
 24c:	00000000 	andeq	r0, r0, r0
 250:	0000a228 	andeq	sl, r0, r8, lsr #4
 254:	0000002c 	andeq	r0, r0, ip, lsr #32
	...
 260:	0000001c 	andeq	r0, r0, ip, lsl r0
 264:	52570002 	subspl	r0, r7, #2, 0
 268:	00040000 	andeq	r0, r4, r0
 26c:	00000000 	andeq	r0, r0, r0
 270:	0000a254 	andeq	sl, r0, r4, asr r2
 274:	00000044 	andeq	r0, r0, r4, asr #32
	...
 280:	0000001c 	andeq	r0, r0, ip, lsl r0
 284:	53520002 	cmppl	r2, #2, 0
 288:	00040000 	andeq	r0, r4, r0
 28c:	00000000 	andeq	r0, r0, r0
 290:	0000a298 	muleq	r0, r8, r2
 294:	00000018 	andeq	r0, r0, r8, lsl r0
	...
 2a0:	0000001c 	andeq	r0, r0, ip, lsl r0
 2a4:	54650002 	strbtpl	r0, [r5], #-2
 2a8:	00040000 	andeq	r0, r4, r0
 2ac:	00000000 	andeq	r0, r0, r0
 2b0:	0000a2b0 			; <UNDEFINED> instruction: 0x0000a2b0
 2b4:	00000030 	andeq	r0, r0, r0, lsr r0
	...
 2c0:	0000001c 	andeq	r0, r0, ip, lsl r0
 2c4:	55b70002 	ldrpl	r0, [r7, #2]!
 2c8:	00040000 	andeq	r0, r4, r0
 2cc:	00000000 	andeq	r0, r0, r0
 2d0:	0000a2e0 	andeq	sl, r0, r0, ror #5
 2d4:	00000004 	andeq	r0, r0, r4
	...

Disassembly of section .debug_line:

00000000 <.debug_line>:
       0:	00000114 	andeq	r0, r0, r4, lsl r1
       4:	00840003 	addeq	r0, r4, r3
       8:	01020000 	mrseq	r0, (UNDEF: 2)
       c:	000d0efb 	strdeq	r0, [sp], -fp
      10:	01010101 	tsteq	r1, r1, lsl #2
      14:	01000000 	mrseq	r0, (UNDEF: 0)
      18:	74010000 	strvc	r0, [r1], #-0
      1c:	73747365 	cmnvc	r4, #-1811939327	; 0x94000001
      20:	302e322d 	eorcc	r3, lr, sp, lsr #4
      24:	2f002e00 	svccs	0x00002e00
      28:	72657355 	rsbvc	r7, r5, #1409286145	; 0x54000001
      2c:	696d2f73 	stmdbvs	sp!, {r0, r1, r4, r5, r6, r8, r9, sl, fp, sp}^
      30:	2f73656c 	svccs	0x0073656c
      34:	72756f53 	rsbsvc	r6, r5, #332	; 0x14c
      38:	632f6563 			; <UNDEFINED> instruction: 0x632f6563
      3c:	30343273 	eorscc	r3, r4, r3, ror r2
      40:	6c2f786c 	stcvs	8, cr7, [pc], #-432	; fffffe98 <__bss_end__+0xffff4e88>
      44:	69706269 	ldmdbvs	r0!, {r0, r3, r5, r6, r9, sp, lr}^
      48:	636e692f 	cmnvs	lr, #770048	; 0xbc000
      4c:	6564756c 	strbvs	r7, [r4, #-1388]!	; 0xfffffa94
      50:	61700000 	cmnvs	r0, r0
      54:	2d317472 	cfldrscs	mvf7, [r1, #-456]!	; 0xfffffe38
      58:	74736574 	ldrbtvc	r6, [r3], #-1396	; 0xfffffa8c
      5c:	6f6e2d35 	svcvs	0x006e2d35
      60:	6775622d 	ldrbvs	r6, [r5, -sp, lsr #4]!
      64:	0100632e 	tsteq	r0, lr, lsr #6
      68:	72730000 	rsbsvc	r0, r3, #0, 0
      6c:	6f6c2d63 	svcvs	0x006c2d63
      70:	00682e63 	rsbeq	r2, r8, r3, ror #28
      74:	72000002 	andvc	r0, r0, #2, 0
      78:	682e6970 	stmdavs	lr!, {r4, r5, r6, r8, fp, sp, lr}
      7c:	00000300 	andeq	r0, r0, r0, lsl #6
      80:	6c616b63 			; <UNDEFINED> instruction: 0x6c616b63
      84:	2e636f6c 	cdpcs	15, 6, cr6, cr3, cr12, {3}
      88:	00020068 	andeq	r0, r2, r8, rrx
      8c:	14050000 	strne	r0, [r5], #-0
      90:	38020500 	stmdacc	r2, {r8, sl}
      94:	16000080 	strne	r0, [r0], -r0, lsl #1
      98:	4c4b0505 	cfstr64mi	mvdx0, [fp], {5}
      9c:	01061005 	tsteq	r6, r5
      a0:	0b050204 	bleq	1408b8 <__bss_end__+0x1358a8>
      a4:	05053206 	streq	r3, [r5, #-518]	; 0xfffffdfa
      a8:	060c0513 			; <UNDEFINED> instruction: 0x060c0513
      ac:	0104ba01 	tsteq	r4, r1, lsl #20
      b0:	050d1005 	streq	r1, [sp, #-5]
      b4:	05bb0605 	ldreq	r0, [fp, #1541]!	; 0x605
      b8:	04010610 	streq	r0, [r1], #-1552	; 0xfffff9f0
      bc:	060b0502 	streq	r0, [fp], -r2, lsl #10
      c0:	13050531 	movwne	r0, #21809	; 0x5531
      c4:	01060c05 	tsteq	r6, r5, lsl #24
      c8:	05010482 	streq	r0, [r1, #-1154]	; 0xfffffb7e
      cc:	05050e10 	streq	r0, [r5, #-3600]	; 0xfffff1f0
      d0:	0204bb06 	andeq	fp, r4, #6144	; 0x1800
      d4:	05140b05 	ldreq	r0, [r4, #-2821]	; 0xfffff4fb
      d8:	0c051305 	stceq	3, cr1, [r5], {5}
      dc:	04820106 	streq	r0, [r2], #262	; 0x106
      e0:	0f050501 	svceq	0x00050501
      e4:	042f0666 	strteq	r0, [pc], #-1638	; ec <__code_start__-0x7f14>
      e8:	130b0502 	movwne	r0, #46338	; 0xb502
      ec:	05130505 	ldreq	r0, [r3, #-1285]	; 0xfffffafb
      f0:	8201060c 	andhi	r0, r1, #12, 12	; 0xc00000
      f4:	05050104 	streq	r0, [r5, #-260]	; 0xfffffefc
      f8:	05840610 	streq	r0, [r4, #1552]	; 0x610
      fc:	05010608 	streq	r0, [r1, #-1544]	; 0xfffff9f8
     100:	09052e07 	stmdbeq	r5, {r0, r1, r2, r9, sl, fp, sp}
     104:	01144b06 	tsteq	r4, r6, lsl #22
     108:	0601054a 	streq	r0, [r1], -sl, asr #10
     10c:	06090513 			; <UNDEFINED> instruction: 0x06090513
     110:	029e0147 	addseq	r0, lr, #-1073741807	; 0xc0000011
     114:	0101000c 	tsteq	r1, ip
     118:	0000033b 	andeq	r0, r0, fp, lsr r3
     11c:	00e50003 	rsceq	r0, r5, r3
     120:	01020000 	mrseq	r0, (UNDEF: 2)
     124:	000d0efb 	strdeq	r0, [sp], -fp
     128:	01010101 	tsteq	r1, r1, lsl #2
     12c:	01000000 	mrseq	r0, (UNDEF: 0)
     130:	2f010000 	svccs	0x00010000
     134:	2f74706f 	svccs	0x0074706f
     138:	656d6f68 	strbvs	r6, [sp, #-3944]!	; 0xfffff098
     13c:	77657262 	strbvc	r7, [r5, -r2, ror #4]!
     140:	6c65432f 	stclvs	3, cr4, [r5], #-188	; 0xffffff44
     144:	2f72616c 	svccs	0x0072616c
     148:	2d6d7261 	sfmcs	f7, 2, [sp, #-388]!	; 0xfffffe7c
     14c:	656e6f6e 	strbvs	r6, [lr, #-3950]!	; 0xfffff092
     150:	6261652d 	rsbvs	r6, r1, #188743680	; 0xb400000
     154:	2f392d69 	svccs	0x00392d69
     158:	30322d39 	eorscc	r2, r2, r9, lsr sp
     15c:	34713931 	ldrbtcc	r3, [r1], #-2353	; 0xfffff6cf
     160:	3173632d 	cmncc	r3, sp, lsr #6
     164:	2f653730 	svccs	0x00653730
     168:	2f62696c 	svccs	0x0062696c
     16c:	2f636367 	svccs	0x00636367
     170:	2d6d7261 	sfmcs	f7, 2, [sp, #-388]!	; 0xfffffe7c
     174:	656e6f6e 	strbvs	r6, [lr, #-3950]!	; 0xfffff092
     178:	6261652d 	rsbvs	r6, r1, #188743680	; 0xb400000
     17c:	2e392f69 	cdpcs	15, 3, cr2, cr9, cr9, {3}
     180:	2f312e32 	svccs	0x00312e32
     184:	6c636e69 	stclvs	14, cr6, [r3], #-420	; 0xfffffe5c
     188:	00656475 	rsbeq	r6, r5, r5, ror r4
     18c:	6573552f 	ldrbvs	r5, [r3, #-1327]!	; 0xfffffad1
     190:	6d2f7372 	stcvs	3, cr7, [pc, #-456]!	; ffffffd0 <__bss_end__+0xffff4fc0>
     194:	73656c69 	cmnvc	r5, #26880	; 0x6900
     198:	756f532f 	strbvc	r5, [pc, #-815]!	; fffffe71 <__bss_end__+0xffff4e61>
     19c:	2f656372 	svccs	0x00656372
     1a0:	34327363 	ldrtcc	r7, [r2], #-867	; 0xfffffc9d
     1a4:	2f786c30 	svccs	0x00786c30
     1a8:	7062696c 	rsbvc	r6, r2, ip, ror #18
     1ac:	6e692f69 	cdpvs	15, 6, cr2, cr9, cr9, {3}
     1b0:	64756c63 	ldrbtvs	r6, [r5], #-3171	; 0xfffff39d
     1b4:	63000065 	movwvs	r0, #101	; 0x65
     1b8:	6c6c616b 	stfvse	f6, [ip], #-428	; 0xfffffe54
     1bc:	632e636f 			; <UNDEFINED> instruction: 0x632e636f
     1c0:	00000000 	andeq	r0, r0, r0
     1c4:	6c616b63 			; <UNDEFINED> instruction: 0x6c616b63
     1c8:	2e636f6c 	cdpcs	15, 6, cr6, cr3, cr12, {3}
     1cc:	00000068 	andeq	r0, r0, r8, rrx
     1d0:	64747300 	ldrbtvs	r7, [r4], #-768	; 0xfffffd00
     1d4:	2d746e69 	ldclcs	14, cr6, [r4, #-420]!	; 0xfffffe5c
     1d8:	2e636367 	cdpcs	3, 6, cr6, cr3, cr7, {3}
     1dc:	00010068 	andeq	r0, r1, r8, rrx
     1e0:	69707200 	ldmdbvs	r0!, {r9, ip, sp, lr}^
     1e4:	0200682e 	andeq	r6, r0, #3014656	; 0x2e0000
     1e8:	72730000 	rsbsvc	r0, r3, #0, 0
     1ec:	6f6c2d63 	svcvs	0x006c2d63
     1f0:	00682e63 	rsbeq	r2, r8, r3, ror #28
     1f4:	6b000000 	blvs	1fc <__code_start__-0x7e04>
     1f8:	616d2d72 	smcvs	53970	; 0xd2d2
     1fc:	636f6c6c 	cmnvs	pc, #108, 24	; 0x6c00
     200:	0000682e 	andeq	r6, r0, lr, lsr #16
     204:	05000000 	streq	r0, [r0, #-0]
     208:	02050001 	andeq	r0, r5, #1, 0
     20c:	00008130 	andeq	r8, r0, r0, lsr r1
     210:	05010b03 	streq	r0, [r1, #-2819]	; 0xfffff4fd
     214:	01051305 	tsteq	r5, r5, lsl #6
     218:	86061306 	strhi	r1, [r6], -r6, lsl #6
     21c:	05130505 	ldreq	r0, [r3, #-1285]	; 0xfffffafb
     220:	05010608 	streq	r0, [r1, #-1544]	; 0xfffff9f8
     224:	052f0609 	streq	r0, [pc, #-1545]!	; fffffc23 <__bss_end__+0xffff4c13>
     228:	05010611 	streq	r0, [r1, #-1553]	; 0xfffff9ef
     22c:	31063001 	tstcc	r6, r1
     230:	05130505 	ldreq	r0, [r3, #-1285]	; 0xfffffafb
     234:	2e130601 	cfmsub32cs	mvax0, mvfx0, mvfx3, mvfx1
     238:	05053206 	streq	r3, [r5, #-518]	; 0xfffffdfa
     23c:	017a0313 	cmneq	sl, r3, lsl r3
     240:	18050204 	stmdane	r5, {r2, r9}
     244:	05011503 	streq	r1, [r1, #-1283]	; 0xfffffafd
     248:	01061305 	tsteq	r6, r5, lsl #6
     24c:	24050104 	strcs	r0, [r5], #-260	; 0xfffffefc
     250:	05017003 	streq	r7, [r1, #-3]
     254:	062e4b01 	strteq	r4, [lr], -r1, lsl #22
     258:	13050532 	movwne	r0, #21810	; 0x5532
     25c:	72030705 	andvc	r0, r3, #1310720	; 0x140000
     260:	14050501 	strne	r0, [r5], #-1281	; 0xfffffaff
     264:	03060106 	movweq	r0, #24838	; 0x6106
     268:	0705010d 	streq	r0, [r5, -sp, lsl #2]
     26c:	05017703 	streq	r7, [r1, #-1795]	; 0xfffff8fd
     270:	01061405 	tsteq	r6, r5, lsl #8
     274:	017a0306 	cmneq	sl, r6, lsl #6
     278:	18050204 	stmdane	r5, {r2, r9}
     27c:	05011503 	streq	r1, [r1, #-1283]	; 0xfffffafd
     280:	01061305 	tsteq	r6, r5, lsl #6
     284:	03060104 	movweq	r0, #24836	; 0x6104
     288:	24050178 	strcs	r0, [r5], #-376	; 0xfffffe88
     28c:	01780306 	cmneq	r8, r6, lsl #6
     290:	7a030d05 	bvc	c36ac <__bss_end__+0xb869c>
     294:	01052e66 	tsteq	r5, r6, ror #28
     298:	66010f03 	strvs	r0, [r1], -r3, lsl #30
     29c:	01064d06 	tsteq	r6, r6, lsl #26
     2a0:	4c060505 	cfstr32mi	mvfx0, [r6], {5}
     2a4:	05010a05 	streq	r0, [r1, #-2565]	; 0xfffff5fb
     2a8:	015d0308 	cmpeq	sp, r8, lsl #6
     2ac:	05140505 	ldreq	r0, [r4, #-1285]	; 0xfffffafb
     2b0:	4a01060c 	bmi	41ae8 <__bss_end__+0x36ad8>
     2b4:	03062505 	movweq	r2, #25861	; 0x6505
     2b8:	05050121 	streq	r0, [r5, #-289]	; 0xfffffedf
     2bc:	09050106 	stmdbeq	r5, {r1, r2, r8}
     2c0:	0d054d06 	stceq	13, cr4, [r5, #-24]	; 0xffffffe8
     2c4:	0c050106 	stfeqs	f0, [r5], {6}
     2c8:	06280566 	strteq	r0, [r8], -r6, ror #10
     2cc:	03080547 	movweq	r0, #34119	; 0x8547
     2d0:	05050163 	streq	r0, [r5, #-355]	; 0xfffffe9d
     2d4:	13090514 	movwne	r0, #38164	; 0x9514
     2d8:	01061105 	tsteq	r6, r5, lsl #2
     2dc:	0625052e 	strteq	r0, [r5], -lr, lsr #10
     2e0:	05011a03 	streq	r1, [r1, #-2563]	; 0xfffff5fd
     2e4:	05010605 	streq	r0, [r1, #-1541]	; 0xfffff9fb
     2e8:	836b060d 	cmnhi	fp, #13631488	; 0xd00000
     2ec:	01050106 	tsteq	r5, r6, lsl #2
     2f0:	1c030616 	stcne	6, cr0, [r3], {22}
     2f4:	82010682 	andhi	r0, r1, #136314880	; 0x8200000
     2f8:	05052e4a 	streq	r2, [r5, #-3658]	; 0xfffff1b6
     2fc:	13132f06 	tstne	r3, #6, 30
     300:	01061105 	tsteq	r6, r5, lsl #2
     304:	68060505 	stmdavs	r6, {r0, r2, r8, sl}
     308:	13669e01 	cmnne	r6, #1, 28
     30c:	01060805 	tsteq	r6, r5, lsl #16
     310:	be060905 	vmlalt.f16	s0, s12, s10	; <UNPREDICTABLE>
     314:	2e060c05 	cdpcs	12, 0, cr0, cr6, cr5, {0}
     318:	67060d05 	strvs	r0, [r6, -r5, lsl #26]
     31c:	05140905 	ldreq	r0, [r4, #-2309]	; 0xfffff6fb
     320:	05010622 	streq	r0, [r1, #-1570]	; 0xfffff9de
     324:	0d052e31 	stceq	14, cr2, [r5, #-196]	; 0xffffff3c
     328:	2e0c054a 	cfsh32cs	mvfx0, mvfx12, #42
     32c:	02000d05 	andeq	r0, r0, #320	; 0x140
     330:	67060204 	strvs	r0, [r6, -r4, lsl #4]
     334:	02002805 	andeq	r2, r0, #327680	; 0x50000
     338:	050d0204 	streq	r0, [sp, #-516]	; 0xfffffdfc
     33c:	04020014 	streq	r0, [r2], #-20	; 0xffffffec
     340:	05050102 	streq	r0, [r5, #-258]	; 0xfffffefe
     344:	02040200 	andeq	r0, r4, #0, 4
     348:	02000106 	andeq	r0, r0, #-2147483647	; 0x80000001
     34c:	054a0204 	strbeq	r0, [sl, #-516]	; 0xfffffdfc
     350:	0a030614 	beq	c1ba8 <__bss_end__+0xb6b98>
     354:	06050501 	streq	r0, [r5], -r1, lsl #10
     358:	671c0501 	ldrvs	r0, [ip, -r1, lsl #10]
     35c:	02000905 	andeq	r0, r0, #81920	; 0x14000
     360:	2e060304 	cdpcs	3, 0, cr0, cr6, cr4, {0}
     364:	02001c05 	andeq	r1, r0, #1280	; 0x500
     368:	2e060304 	cdpcs	3, 0, cr0, cr6, cr4, {0}
     36c:	02002905 	andeq	r2, r0, #81920	; 0x14000
     370:	2d060304 	stccs	3, cr0, [r6, #-16]
     374:	02001405 	andeq	r1, r0, #83886080	; 0x5000000
     378:	05010304 	streq	r0, [r1, #-772]	; 0xfffffcfc
     37c:	04020005 	streq	r0, [r2], #-5
     380:	00010603 	andeq	r0, r1, r3, lsl #12
     384:	9e030402 	cdpls	4, 0, cr0, cr3, cr2, {0}
     388:	0e051606 	cfmadd32eq	mvax0, mvfx1, mvfx5, mvfx6
     38c:	05050106 	streq	r0, [r5, #-262]	; 0xfffffefa
     390:	11054b06 	tstne	r5, r6, lsl #22
     394:	05050106 	streq	r0, [r5, #-262]	; 0xfffffefa
     398:	05016706 	streq	r6, [r1, #-1798]	; 0xfffff8fa
     39c:	05860601 	streq	r0, [r6, #1537]	; 0x601
     3a0:	6a030609 	bvs	c1bcc <__bss_end__+0xb6bbc>
     3a4:	669e014a 	ldrvs	r0, [lr], sl, asr #2
     3a8:	01320d05 	teqeq	r2, r5, lsl #26
     3ac:	01314a9e 	teqeq	r1, lr	; <illegal shifter operand>
     3b0:	2e064a9e 			; <UNDEFINED> instruction: 0x2e064a9e
     3b4:	02000505 	andeq	r0, r0, #20971520	; 0x1400000
     3b8:	03060104 	movweq	r0, #24836	; 0x6104
     3bc:	0200010b 	andeq	r0, r0, #-1073741822	; 0xc0000002
     3c0:	00010104 	andeq	r0, r1, r4, lsl #2
     3c4:	d6010402 	strle	r0, [r1], -r2, lsl #8
     3c8:	0a030105 	beq	c07e4 <__bss_end__+0xb57d4>
     3cc:	01065808 	tsteq	r6, r8, lsl #16
     3d0:	06050582 	streq	r0, [r5], -r2, lsl #11
     3d4:	0610052f 	ldreq	r0, [r0], -pc, lsr #10
     3d8:	06050501 	streq	r0, [r5], -r1, lsl #10
     3dc:	09056969 	stmdbeq	r5, {r0, r3, r5, r6, r8, fp, sp, lr}
     3e0:	01140501 	tsteq	r4, r1, lsl #10
     3e4:	83061305 	movwhi	r1, #25349	; 0x6305
     3e8:	02000905 	andeq	r0, r0, #81920	; 0x14000
     3ec:	2e060304 	cdpcs	3, 0, cr0, cr6, cr4, {0}
     3f0:	02001305 	andeq	r1, r0, #335544320	; 0x14000000
     3f4:	01060304 	tsteq	r6, r4, lsl #6
     3f8:	02000905 	andeq	r0, r0, #81920	; 0x14000
     3fc:	2f060304 	svccs	0x00060304
     400:	02002b05 	andeq	r2, r0, #5120	; 0x1400
     404:	01060304 	tsteq	r6, r4, lsl #6
     408:	02002805 	andeq	r2, r0, #327680	; 0x50000
     40c:	2c060304 	stccs	3, cr0, [r6], {4}
     410:	02001405 	andeq	r1, r0, #83886080	; 0x5000000
     414:	05010304 	streq	r0, [r1, #-772]	; 0xfffffcfc
     418:	04020005 	streq	r0, [r2], #-5
     41c:	06010603 	streq	r0, [r1], -r3, lsl #12
     420:	0615054f 	ldreq	r0, [r5], -pc, asr #10
     424:	06050501 	streq	r0, [r5], -r1, lsl #10
     428:	060e052f 	streq	r0, [lr], -pc, lsr #10
     42c:	06050501 	streq	r0, [r5], -r1, lsl #10
     430:	0612054b 	ldreq	r0, [r2], -fp, asr #10
     434:	06050501 	streq	r0, [r5], -r1, lsl #10
     438:	9e9e0184 	fmlls<illegal precision>	f0, f6, f4
     43c:	060d0514 			; <UNDEFINED> instruction: 0x060d0514
     440:	06050501 	streq	r0, [r5], -r1, lsl #10
     444:	06100567 	ldreq	r0, [r0], -r7, ror #10
     448:	06050501 	streq	r0, [r5], -r1, lsl #10
     44c:	06010530 			; <UNDEFINED> instruction: 0x06010530
     450:	06026614 			; <UNDEFINED> instruction: 0x06026614
     454:	26010100 	strcs	r0, [r1], -r0, lsl #2
     458:	03000002 	movweq	r0, #2
     45c:	00006400 	andeq	r6, r0, r0, lsl #8
     460:	fb010200 	blx	40c6a <__bss_end__+0x35c5a>
     464:	01000d0e 	tsteq	r0, lr, lsl #26
     468:	00010101 	andeq	r0, r1, r1, lsl #2
     46c:	00010000 	andeq	r0, r1, r0
     470:	552f0100 	strpl	r0, [pc, #-256]!	; 378 <__code_start__-0x7c88>
     474:	73726573 	cmnvc	r2, #482344960	; 0x1cc00000
     478:	6c696d2f 	stclvs	13, cr6, [r9], #-188	; 0xffffff44
     47c:	532f7365 			; <UNDEFINED> instruction: 0x532f7365
     480:	6372756f 	cmnvs	r2, #465567744	; 0x1bc00000
     484:	73632f65 	cmnvc	r3, #404	; 0x194
     488:	6c303432 	cfldrsvs	mvf3, [r0], #-200	; 0xffffff38
     48c:	696c2f78 	stmdbvs	ip!, {r3, r4, r5, r6, r8, r9, sl, fp, sp}^
     490:	2f697062 	svccs	0x00697062
     494:	6c636e69 	stclvs	14, cr6, [r3], #-420	; 0xfffffe5c
     498:	00656475 	rsbeq	r6, r5, r5, ror r4
     49c:	2d726b00 	vldmdbcs	r2!, {d22-d21}
     4a0:	6c6c616d 	stfvse	f6, [ip], #-436	; 0xfffffe4c
     4a4:	632e636f 			; <UNDEFINED> instruction: 0x632e636f
     4a8:	00000000 	andeq	r0, r0, r0
     4ac:	2e697072 	mcrcs	0, 3, r7, cr9, cr2, {3}
     4b0:	00010068 	andeq	r0, r1, r8, rrx
     4b4:	2d726b00 	vldmdbcs	r2!, {d22-d21}
     4b8:	6c6c616d 	stfvse	f6, [ip], #-436	; 0xfffffe4c
     4bc:	682e636f 	stmdavs	lr!, {r0, r1, r2, r3, r5, r6, r8, r9, sp, lr}
     4c0:	00000000 	andeq	r0, r0, r0
     4c4:	00010500 	andeq	r0, r1, r0, lsl #10
     4c8:	843c0205 	ldrthi	r0, [ip], #-517	; 0xfffffdfb
     4cc:	d3030000 	movwle	r0, #12288	; 0x3000
     4d0:	01060100 	mrseq	r0, (UNDEF: 22)
     4d4:	2f060205 	svccs	0x00060205
     4d8:	06050513 			; <UNDEFINED> instruction: 0x06050513
     4dc:	06020501 	streq	r0, [r2], -r1, lsl #10
     4e0:	0609052f 	streq	r0, [r9], -pc, lsr #10
     4e4:	4a020501 	bmi	818f0 <__bss_end__+0x768e0>
     4e8:	2f060305 	svccs	0x00060305
     4ec:	01061005 	tsteq	r6, r5
     4f0:	052e0605 	streq	r0, [lr, #-1541]!	; 0xfffff9fb
     4f4:	04020020 	streq	r0, [r2], #-32	; 0xffffffe0
     4f8:	01054a02 	tsteq	r5, r2, lsl #20
     4fc:	01040200 	mrseq	r0, R12_usr
     500:	00120546 	andseq	r0, r2, r6, asr #10
     504:	06010402 	streq	r0, [r1], -r2, lsl #8
     508:	00020531 	andeq	r0, r2, r1, lsr r5
     50c:	06010402 	streq	r0, [r1], -r2, lsl #8
     510:	00270501 	eoreq	r0, r7, r1, lsl #10
     514:	4a030402 	bmi	c1524 <__bss_end__+0xb6514>
     518:	02001205 	andeq	r1, r0, #1342177280	; 0x50000000
     51c:	052e0304 	streq	r0, [lr, #-772]!	; 0xfffffcfc
     520:	054b0603 	strbeq	r0, [fp, #-1539]	; 0xfffff9fd
     524:	05010606 	streq	r0, [r1, #-1542]	; 0xfffff9fa
     528:	054c0602 	strbeq	r0, [ip, #-1538]	; 0xfffff9fe
     52c:	05010610 	streq	r0, [r1, #-1552]	; 0xfffff9f0
     530:	09052e1d 	stmdbeq	r5, {r0, r2, r3, r4, r9, sl, fp, sp}
     534:	2e05052e 	cfsh32cs	mvfx0, mvfx5, #30
     538:	30060305 	andcc	r0, r6, r5, lsl #6
     53c:	01060e05 	tsteq	r6, r5, lsl #28
     540:	67060305 	strvs	r0, [r6, -r5, lsl #6]
     544:	01061a05 	tsteq	r6, r5, lsl #20
     548:	4d060305 	stcmi	3, cr0, [r6, #-20]	; 0xffffffec
     54c:	01060d05 	tsteq	r6, r5, lsl #26
     550:	2f060205 	svccs	0x00060205
     554:	01060e05 	tsteq	r6, r5, lsl #28
     558:	052e0805 	streq	r0, [lr, #-2053]!	; 0xfffff7fb
     55c:	03052e05 	movweq	r2, #24069	; 0x5e05
     560:	0d053006 	stceq	0, cr3, [r5, #-24]	; 0xffffffe8
     564:	052e0106 	streq	r0, [lr, #-262]!	; 0xfffffefa
     568:	054b0603 	strbeq	r0, [fp, #-1539]	; 0xfffff9fd
     56c:	05010613 	streq	r0, [r1, #-1555]	; 0xfffff9ed
     570:	03052e0c 	movweq	r2, #24076	; 0x5e0c
     574:	0c053106 	stfeqs	f3, [r5], {6}
     578:	02050106 	andeq	r0, r5, #-2147483647	; 0x80000001
     57c:	08052f06 	stmdaeq	r5, {r1, r2, r8, r9, sl, fp, sp}
     580:	01050106 	tsteq	r5, r6, lsl #2
     584:	4303064b 	movwmi	r0, #13899	; 0x364b
     588:	0501064a 	streq	r0, [r1, #-1610]	; 0xfffff9b6
     58c:	132f0602 			; <UNDEFINED> instruction: 0x132f0602
     590:	06240514 			; <UNDEFINED> instruction: 0x06240514
     594:	2e290501 	cfsh64cs	mvdx0, mvdx9, #1
     598:	052e0905 	streq	r0, [lr, #-2309]!	; 0xfffff6fb
     59c:	052f0602 	streq	r0, [pc, #-1538]!	; ffffffa2 <__bss_end__+0xffff4f92>
     5a0:	0501060d 	streq	r0, [r1, #-1549]	; 0xfffff9f3
     5a4:	02054a05 	andeq	r4, r5, #20480	; 0x5000
     5a8:	09055006 	stmdbeq	r5, {r1, r2, ip, lr}
     5ac:	03050106 	movweq	r0, #20742	; 0x5106
     5b0:	0b053006 	bleq	14c5d0 <__bss_end__+0x1415c0>
     5b4:	06050106 	streq	r0, [r5], -r6, lsl #2
     5b8:	0309052e 	movweq	r0, #38190	; 0x952e
     5bc:	02054a0f 	andeq	r4, r5, #61440	; 0xf000
     5c0:	662e5803 	strtvs	r5, [lr], -r3, lsl #16
     5c4:	03060305 	movweq	r0, #25349	; 0x6305
     5c8:	16050113 			; <UNDEFINED> instruction: 0x16050113
     5cc:	0e050106 	adfeqs	f0, f5, f6
     5d0:	06030566 	streq	r0, [r3], -r6, ror #10
     5d4:	060f052f 	streq	r0, [pc], -pc, lsr #10
     5d8:	06020501 	streq	r0, [r2], -r1, lsl #10
     5dc:	1403054d 	strne	r0, [r3], #-1357	; 0xfffffab3
     5e0:	05300405 	ldreq	r0, [r0, #-1029]!	; 0xfffffbfb
     5e4:	05010607 	streq	r0, [r1, #-1543]	; 0xfffff9f9
     5e8:	05300605 	ldreq	r0, [r0, #-1541]!	; 0xfffff9fb
     5ec:	05010618 	streq	r0, [r1, #-1560]	; 0xfffff9e8
     5f0:	05052e12 	streq	r2, [r5, #-3602]	; 0xfffff1ee
     5f4:	0f053206 	svceq	0x00053206
     5f8:	05050106 	streq	r0, [r5, #-262]	; 0xfffffefa
     5fc:	07054b06 	streq	r4, [r5, -r6, lsl #22]
     600:	05050106 	streq	r0, [r5, #-262]	; 0xfffffefa
     604:	0f052f06 	svceq	0x00052f06
     608:	04050106 	streq	r0, [r5], #-262	; 0xfffffefa
     60c:	0a053006 	beq	14c62c <__bss_end__+0x14161c>
     610:	052e0106 	streq	r0, [lr, #-262]!	; 0xfffffefa
     614:	052f0604 	streq	r0, [pc, #-1540]!	; 18 <__code_start__-0x7fe8>
     618:	0501060b 	streq	r0, [r1, #-1547]	; 0xfffff9f5
     61c:	5e030602 	cfmadd32pl	mvax0, mvfx0, mvfx3, mvfx2
     620:	0d05134a 	stceq	3, cr1, [r5, #-296]	; 0xfffffed8
     624:	02050106 	andeq	r0, r5, #-2147483647	; 0x80000001
     628:	2e062f06 	cdpcs	15, 0, cr2, cr6, cr6, {0}
     62c:	09052f06 	stmdbeq	r5, {r1, r2, r8, r9, sl, fp, sp}
     630:	052e0106 	streq	r0, [lr, #-262]!	; 0xfffffefa
     634:	01230307 			; <UNDEFINED> instruction: 0x01230307
     638:	03061a05 	movweq	r1, #27141	; 0x6a05
     63c:	27054a6d 	strcs	r4, [r5, -sp, ror #20]
     640:	18050106 	stmdane	r5, {r1, r2, r8}
     644:	03052e06 	movweq	r2, #24070	; 0x5e06
     648:	060b0514 			; <UNDEFINED> instruction: 0x060b0514
     64c:	2e060501 	cfsh32cs	mvfx0, mvfx6, #1
     650:	03060305 	movweq	r0, #25349	; 0x6305
     654:	06054a0f 	streq	r4, [r5], -pc, lsl #20
     658:	04050106 	streq	r0, [r5], #-262	; 0xfffffefa
     65c:	10058406 	andne	r8, r5, r6, lsl #8
     660:	05015203 	streq	r5, [r1, #-515]	; 0xfffffdfd
     664:	67141402 	ldrvs	r1, [r4, -r2, lsl #8]
     668:	01060d05 	tsteq	r6, r5, lsl #26
     66c:	4b060205 	blmi	180e88 <__bss_end__+0x175e78>
     670:	01060505 	tsteq	r6, r5, lsl #10
     674:	2a030c05 	bcs	c3690 <__bss_end__+0xb8680>
     678:	3201054a 	andcc	r0, r1, #310378496	; 0x12800000
     67c:	01000602 	tsteq	r0, r2, lsl #12
     680:	00063301 	andeq	r3, r6, r1, lsl #6
     684:	d4000300 	strle	r0, [r0], #-768	; 0xfffffd00
     688:	02000000 	andeq	r0, r0, #0, 0
     68c:	0d0efb01 	vstreq	d15, [lr, #-4]
     690:	01010100 	mrseq	r0, (UNDEF: 17)
     694:	00000001 	andeq	r0, r0, r1
     698:	01000001 	tsteq	r0, r1
     69c:	74706f2f 	ldrbtvc	r6, [r0], #-3887	; 0xfffff0d1
     6a0:	6d6f682f 	stclvs	8, cr6, [pc, #-188]!	; 5ec <__code_start__-0x7a14>
     6a4:	65726265 	ldrbvs	r6, [r2, #-613]!	; 0xfffffd9b
     6a8:	65432f77 	strbvs	r2, [r3, #-3959]	; 0xfffff089
     6ac:	72616c6c 	rsbvc	r6, r1, #108, 24	; 0x6c00
     6b0:	6d72612f 	ldfvse	f6, [r2, #-188]!	; 0xffffff44
     6b4:	6e6f6e2d 	cdpvs	14, 6, cr6, cr15, cr13, {1}
     6b8:	61652d65 	cmnvs	r5, r5, ror #26
     6bc:	392d6962 	pushcc	{r1, r5, r6, r8, fp, sp, lr}
     6c0:	322d392f 	eorcc	r3, sp, #770048	; 0xbc000
     6c4:	71393130 	teqvc	r9, r0, lsr r1
     6c8:	73632d34 	cmnvc	r3, #52, 26	; 0xd00
     6cc:	65373031 	ldrvs	r3, [r7, #-49]!	; 0xffffffcf
     6d0:	62696c2f 	rsbvs	r6, r9, #12032	; 0x2f00
     6d4:	6363672f 	cmnvs	r3, #12320768	; 0xbc0000
     6d8:	6d72612f 	ldfvse	f6, [r2, #-188]!	; 0xffffff44
     6dc:	6e6f6e2d 	cdpvs	14, 6, cr6, cr15, cr13, {1}
     6e0:	61652d65 	cmnvs	r5, r5, ror #26
     6e4:	392f6962 	stmdbcc	pc!, {r1, r5, r6, r8, fp, sp, lr}	; <UNPREDICTABLE>
     6e8:	312e322e 			; <UNDEFINED> instruction: 0x312e322e
     6ec:	636e692f 	cmnvs	lr, #770048	; 0xbc000
     6f0:	6564756c 	strbvs	r7, [r4, #-1388]!	; 0xfffffa94
     6f4:	73552f00 	cmpvc	r5, #0, 30
     6f8:	2f737265 	svccs	0x00737265
     6fc:	656c696d 	strbvs	r6, [ip, #-2413]!	; 0xfffff693
     700:	6f532f73 	svcvs	0x00532f73
     704:	65637275 	strbvs	r7, [r3, #-629]!	; 0xfffffd8b
     708:	3273632f 	rsbscc	r6, r3, #-1140850688	; 0xbc000000
     70c:	786c3034 	stmdavc	ip!, {r2, r4, r5, ip, sp}^
     710:	62696c2f 	rsbvs	r6, r9, #12032	; 0x2f00
     714:	692f6970 	stmdbvs	pc!, {r4, r5, r6, r8, fp, sp, lr}	; <UNPREDICTABLE>
     718:	756c636e 	strbvc	r6, [ip, #-878]!	; 0xfffffc92
     71c:	00006564 	andeq	r6, r0, r4, ror #10
     720:	672d6b63 	strvs	r6, [sp, -r3, ror #22]!
     724:	00632e63 	rsbeq	r2, r3, r3, ror #28
     728:	73000000 	movwvc	r0, #0
     72c:	6c2d6372 	stcvs	3, cr6, [sp], #-456	; 0xfffffe38
     730:	682e636f 	stmdavs	lr!, {r0, r1, r2, r3, r5, r6, r8, r9, sp, lr}
     734:	00000000 	andeq	r0, r0, r0
     738:	69647473 	stmdbvs	r4!, {r0, r1, r4, r5, r6, sl, ip, sp, lr}^
     73c:	672d746e 	strvs	r7, [sp, -lr, ror #8]!
     740:	682e6363 	stmdavs	lr!, {r0, r1, r5, r6, r8, r9, sp, lr}
     744:	00000100 	andeq	r0, r0, r0, lsl #2
     748:	2e697072 	mcrcs	0, 3, r7, cr9, cr2, {3}
     74c:	00020068 	andeq	r0, r2, r8, rrx
     750:	616b6300 	cmnvs	fp, r0, lsl #6
     754:	636f6c6c 	cmnvs	pc, #108, 24	; 0x6c00
     758:	0000682e 	andeq	r6, r0, lr, lsr #16
     75c:	05000000 	streq	r0, [r0, #-0]
     760:	02050001 	andeq	r0, r5, #1, 0
     764:	000085cc 	andeq	r8, r0, ip, asr #11
     768:	05012b03 	streq	r2, [r1, #-2819]	; 0xfffff4fd
     76c:	0b051405 	bleq	145788 <__bss_end__+0x13a778>
     770:	08050106 	stmdaeq	r5, {r1, r2, r8}
     774:	001d054a 	andseq	r0, sp, sl, asr #10
     778:	4a010402 	bmi	41788 <__bss_end__+0x36778>
     77c:	02001805 	andeq	r1, r0, #327680	; 0x50000
     780:	054a0104 	strbeq	r0, [sl, #-260]	; 0xfffffefc
     784:	052e4d0c 	streq	r4, [lr, #-3340]!	; 0xfffff2f4
     788:	2e2e2c10 	mcrcs	12, 1, r2, cr14, cr0, {0}
     78c:	06310105 	ldrteq	r0, [r1], -r5, lsl #2
     790:	064a0b03 	strbeq	r0, [sl], -r3, lsl #22
     794:	06050501 	streq	r0, [r5], -r1, lsl #10
     798:	0a05144b 	beq	1458cc <__bss_end__+0x13a8bc>
     79c:	08050106 	stmdaeq	r5, {r1, r2, r8}
     7a0:	0605052e 	streq	r0, [r5], -lr, lsr #10
     7a4:	060c054c 	streq	r0, [ip], -ip, asr #10
     7a8:	65100501 	ldrvs	r0, [r0, #-1281]	; 0xfffffaff
     7ac:	06300105 	ldrteq	r0, [r0], -r5, lsl #2
     7b0:	062e0e03 	strteq	r0, [lr], -r3, lsl #28
     7b4:	06050501 	streq	r0, [r5], -r1, lsl #10
     7b8:	0200014b 	andeq	r0, r0, #-1073741806	; 0xc0000012
     7bc:	00820204 	addeq	r0, r2, r4, lsl #4
     7c0:	01020402 	tsteq	r2, r2, lsl #8
     7c4:	02040200 	andeq	r0, r4, #0, 4
     7c8:	04020015 	streq	r0, [r2], #-21	; 0xffffffeb
     7cc:	02000102 	andeq	r0, r0, #-2147483648	; 0x80000000
     7d0:	004a0204 	subeq	r0, sl, r4, lsl #4
     7d4:	01020402 	tsteq	r2, r2, lsl #8
     7d8:	02040200 	andeq	r0, r4, #0, 4
     7dc:	04020013 	streq	r0, [r2], #-19	; 0xffffffed
     7e0:	02000102 	andeq	r0, r0, #-2147483648	; 0x80000000
     7e4:	004a0104 	subeq	r0, sl, r4, lsl #2
     7e8:	01010402 	tsteq	r1, r2, lsl #8
     7ec:	01040200 	mrseq	r0, R12_usr
     7f0:	02009e06 	andeq	r9, r0, #96	; 0x60
     7f4:	002e0104 	eoreq	r0, lr, r4, lsl #2
     7f8:	06010402 	streq	r0, [r1], -r2, lsl #8
     7fc:	0402002e 	streq	r0, [r2], #-46	; 0xffffffd2
     800:	02002a01 	andeq	r2, r0, #4096	; 0x1000
     804:	00010104 	andeq	r0, r1, r4, lsl #2
     808:	06010402 	streq	r0, [r1], -r2, lsl #8
     80c:	0402009e 	streq	r0, [r2], #-158	; 0xffffff62
     810:	02002e01 	andeq	r2, r0, #1, 28
     814:	2e060104 	adfcss	f0, f6, f4
     818:	01040200 	mrseq	r0, R12_usr
     81c:	04020031 	streq	r0, [r2], #-49	; 0xffffffcf
     820:	02000101 	andeq	r0, r0, #1073741824	; 0x40000000
     824:	9e060104 	adflss	f0, f6, f4
     828:	01040200 	mrseq	r0, R12_usr
     82c:	0402002e 	streq	r0, [r2], #-46	; 0xffffffd2
     830:	052e0601 	streq	r0, [lr, #-1537]!	; 0xfffff9ff
     834:	0d030619 	stceq	6, cr0, [r3, #-100]	; 0xffffff9c
     838:	4b11052e 	blmi	441cf8 <__bss_end__+0x436ce8>
     83c:	04040200 	streq	r0, [r4], #-512	; 0xfffffe00
     840:	0402002e 	streq	r0, [r2], #-46	; 0xffffffd2
     844:	054d0604 	strbeq	r0, [sp, #-1540]	; 0xfffff9fc
     848:	04020014 	streq	r0, [r2], #-20	; 0xffffffec
     84c:	00010604 	andeq	r0, r1, r4, lsl #12
     850:	4a040402 	bmi	101860 <__bss_end__+0xf6850>
     854:	02002305 	andeq	r2, r0, #335544320	; 0x14000000
     858:	03060204 	movweq	r0, #25092	; 0x6204
     85c:	24050172 	strcs	r0, [r5], #-370	; 0xfffffe8e
     860:	02040200 	andeq	r0, r4, #0, 4
     864:	1b050106 	blne	140c84 <__bss_end__+0x135c74>
     868:	01040200 	mrseq	r0, R12_usr
     86c:	05052e06 	streq	r2, [r5, #-3590]	; 0xfffff1fa
     870:	01040200 	mrseq	r0, R12_usr
     874:	09050106 	stmdbeq	r5, {r1, r2, r8}
     878:	14054c06 	strne	r4, [r5], #-3078	; 0xfffff3fa
     87c:	09050106 	stmdbeq	r5, {r1, r2, r8}
     880:	0c054b06 			; <UNDEFINED> instruction: 0x0c054b06
     884:	0d050106 	stfeqs	f0, [r5, #-24]	; 0xffffffe8
     888:	29054c06 	stmdbcs	r5, {r1, r2, sl, fp, lr}
     88c:	0d050106 	stfeqs	f0, [r5, #-24]	; 0xffffffe8
     890:	16052f06 	strne	r2, [r5], -r6, lsl #30
     894:	0d050106 	stfeqs	f0, [r5, #-24]	; 0xffffffe8
     898:	2e062f06 	cdpcs	15, 0, cr2, cr6, cr6, {0}
     89c:	05bb062e 	ldreq	r0, [fp, #1582]!	; 0x62e
     8a0:	05010610 	streq	r0, [r1, #-1552]	; 0xfffff9f0
     8a4:	054c0611 	strbeq	r0, [ip, #-1553]	; 0xfffff9ef
     8a8:	0501061c 	streq	r0, [r1, #-1564]	; 0xfffff9e4
     8ac:	02002e19 	andeq	r2, r0, #400	; 0x190
     8b0:	05660404 	strbeq	r0, [r6, #-1028]!	; 0xfffffbfc
     8b4:	04020011 	streq	r0, [r2], #-17	; 0xffffffef
     8b8:	052f0604 	streq	r0, [pc, #-1540]!	; 2bc <__code_start__-0x7d44>
     8bc:	0402002c 	streq	r0, [r2], #-44	; 0xffffffd4
     8c0:	05010604 	streq	r0, [r1, #-1540]	; 0xfffff9fc
     8c4:	04020011 	streq	r0, [r2], #-17	; 0xffffffef
     8c8:	054a2e04 	strbeq	r2, [sl, #-3588]	; 0xfffff1fc
     8cc:	054f0615 	strbeq	r0, [pc, #-1557]	; 2bf <__code_start__-0x7d41>
     8d0:	0501064d 	streq	r0, [r1, #-1613]	; 0xfffff9b3
     8d4:	11052e15 	tstne	r5, r5, lsl lr
     8d8:	6606a306 	strvs	sl, [r6], -r6, lsl #6
     8dc:	4a160105 	bmi	580cf8 <__bss_end__+0x575ce8>
     8e0:	02050006 	andeq	r0, r5, #6, 0
     8e4:	00008798 	muleq	r0, r8, r7
     8e8:	05010903 	streq	r0, [r1, #-2307]	; 0xfffff6fd
     8ec:	0a054e05 	beq	154108 <__bss_end__+0x1490f8>
     8f0:	06150501 	ldreq	r0, [r5], -r1, lsl #10
     8f4:	00250501 	eoreq	r0, r5, r1, lsl #10
     8f8:	06010402 	streq	r0, [r1], -r2, lsl #8
     8fc:	0005052e 	andeq	r0, r5, lr, lsr #10
     900:	06010402 	streq	r0, [r1], -r2, lsl #8
     904:	00090501 	andeq	r0, r9, r1, lsl #10
     908:	06030402 	streq	r0, [r3], -r2, lsl #8
     90c:	0032054c 	eorseq	r0, r2, ip, asr #10
     910:	06030402 	streq	r0, [r3], -r2, lsl #8
     914:	00210501 	eoreq	r0, r1, r1, lsl #10
     918:	4a030402 	bmi	c1928 <__bss_end__+0xb6918>
     91c:	02001105 	andeq	r1, r0, #1073741825	; 0x40000001
     920:	052e0304 	streq	r0, [lr, #-772]!	; 0xfffffcfc
     924:	04020028 	streq	r0, [r2], #-40	; 0xffffffd8
     928:	052c0603 	streq	r0, [ip, #-1539]!	; 0xfffff9fd
     92c:	0402002c 	streq	r0, [r2], #-44	; 0xffffffd4
     930:	00010603 	andeq	r0, r1, r3, lsl #12
     934:	2e030402 	cdpcs	4, 0, cr0, cr3, cr2, {0}
     938:	03040200 	movweq	r0, #16896	; 0x4200
     93c:	0605052e 	streq	r0, [r5], -lr, lsr #10
     940:	2e061319 	mcrcs	3, 0, r1, cr6, cr9, {0}
     944:	0d053006 	stceq	0, cr3, [r5, #-24]	; 0xffffffe8
     948:	05050106 	streq	r0, [r5, #-262]	; 0xfffffefa
     94c:	0d054b06 	vstreq	d4, [r5, #-24]	; 0xffffffe8
     950:	05050106 	streq	r0, [r5, #-262]	; 0xfffffefa
     954:	0d052f06 	stceq	15, cr2, [r5, #-24]	; 0xffffffe8
     958:	05050106 	streq	r0, [r5, #-262]	; 0xfffffefa
     95c:	0d052f06 	stceq	15, cr2, [r5, #-24]	; 0xffffffe8
     960:	05050106 	streq	r0, [r5, #-262]	; 0xfffffefa
     964:	136a3506 	cmnne	sl, #25165824	; 0x1800000
     968:	68136983 	ldmdavs	r3, {r0, r1, r7, r8, fp, sp, lr}
     96c:	06010513 			; <UNDEFINED> instruction: 0x06010513
     970:	23030667 	movwcs	r0, #13927	; 0x3667
     974:	050106d6 	streq	r0, [r1, #-1750]	; 0xfffff92a
     978:	134b0605 	movtne	r0, #46597	; 0xb605
     97c:	2f062e06 	svccs	0x00062e06
     980:	0a052f4c 	beq	14c6b8 <__bss_end__+0x1416a8>
     984:	06150501 	ldreq	r0, [r5], -r1, lsl #10
     988:	27054a01 	strcs	r4, [r5, -r1, lsl #20]
     98c:	2e1b050d 	cfmul32cs	mvfx0, mvfx11, mvfx13
     990:	052e0e05 	streq	r0, [lr, #-3589]!	; 0xfffff1fb
     994:	0d053305 	stceq	3, cr3, [r5, #-20]	; 0xffffffec
     998:	13053306 	movwne	r3, #21254	; 0x5306
     99c:	0d050106 	stfeqs	f0, [r5, #-24]	; 0xffffffe8
     9a0:	66062f06 	strvs	r2, [r6], -r6, lsl #30
     9a4:	02002805 	andeq	r2, r0, #327680	; 0x50000
     9a8:	03060204 	movweq	r0, #25092	; 0x6204
     9ac:	2c052e7a 	stccs	14, cr2, [r5], {122}	; 0x7a
     9b0:	02040200 	andeq	r0, r4, #0, 4
     9b4:	25050106 	strcs	r0, [r5, #-262]	; 0xfffffefa
     9b8:	01040200 	mrseq	r0, R12_usr
     9bc:	05056606 	streq	r6, [r5, #-1542]	; 0xfffff9fa
     9c0:	01040200 	mrseq	r0, R12_usr
     9c4:	09050106 	stmdbeq	r5, {r1, r2, r8}
     9c8:	10054c06 	andne	r4, r5, r6, lsl #24
     9cc:	09050106 	stmdbeq	r5, {r1, r2, r8}
     9d0:	0e052f06 	cdpeq	15, 0, cr2, cr5, cr6, {0}
     9d4:	0c050106 	stfeqs	f0, [r5], {6}
     9d8:	060e052e 	streq	r0, [lr], -lr, lsr #10
     9dc:	0611054f 	ldreq	r0, [r1], -pc, asr #10
     9e0:	060d0501 	streq	r0, [sp], -r1, lsl #10
     9e4:	0619054c 	ldreq	r0, [r9], -ip, asr #10
     9e8:	060d0501 	streq	r0, [sp], -r1, lsl #10
     9ec:	2e66062f 	cdpcs	6, 6, cr0, cr6, cr15, {1}
     9f0:	0605052e 	streq	r0, [r5], -lr, lsr #10
     9f4:	4a060116 	bmi	180e54 <__bss_end__+0x175e44>
     9f8:	05132e06 	ldreq	r2, [r3, #-3590]	; 0xfffff1fa
     9fc:	05010608 	streq	r0, [r1, #-1544]	; 0xfffff9f8
     a00:	014b0609 	cmpeq	fp, r9, lsl #12
     a04:	0402004a 	streq	r0, [r2], #-74	; 0xffffffb6
     a08:	05051401 	streq	r1, [r5, #-1025]	; 0xfffffbff
     a0c:	01040200 	mrseq	r0, R12_usr
     a10:	04020014 	streq	r0, [r2], #-20	; 0xffffffec
     a14:	08054b01 	stmdaeq	r5, {r0, r8, r9, fp, lr}
     a18:	01040200 	mrseq	r0, R12_usr
     a1c:	09050106 	stmdbeq	r5, {r1, r2, r8}
     a20:	17053006 	strne	r3, [r5, -r6]
     a24:	01050106 	tsteq	r5, r6, lsl #2
     a28:	06090534 			; <UNDEFINED> instruction: 0x06090534
     a2c:	014a7503 	cmpeq	sl, r3, lsl #10
     a30:	35030105 	strcc	r0, [r3, #-261]	; 0xfffffefb
     a34:	05059008 	streq	r9, [r5, #-8]
     a38:	4c4b134b 	mcrrmi	3, 4, r1, fp, cr11
     a3c:	010a052f 	tsteq	sl, pc, lsr #10
     a40:	01061505 	tsteq	r6, r5, lsl #10
     a44:	0d27054a 	cfstr32eq	mvfx0, [r7, #-296]!	; 0xfffffed8
     a48:	052e1b05 	streq	r1, [lr, #-2821]!	; 0xfffff4fb
     a4c:	05052e0e 	streq	r2, [r5, #-3598]	; 0xfffff1f2
     a50:	060d0533 			; <UNDEFINED> instruction: 0x060d0533
     a54:	06130533 			; <UNDEFINED> instruction: 0x06130533
     a58:	060d0501 	streq	r0, [sp], -r1, lsl #10
     a5c:	061e052f 	ldreq	r0, [lr], -pc, lsr #10
     a60:	2e1a0501 	cfmul32cs	mvfx0, mvfx10, mvfx1
     a64:	2f060d05 	svccs	0x00060d05
     a68:	0b050204 	bleq	141280 <__bss_end__+0x136270>
     a6c:	2e7dee03 	cdpcs	14, 7, cr14, cr13, cr3, {0}
     a70:	05130505 	ldreq	r0, [r3, #-1285]	; 0xfffffafb
     a74:	ba01060c 	blt	422ac <__bss_end__+0x3729c>
     a78:	0d050104 	stfeqs	f0, [r5, #-16]
     a7c:	01029103 	tsteq	r2, r3, lsl #2
     a80:	052f0666 	streq	r0, [pc, #-1638]!	; 422 <__code_start__-0x7bde>
     a84:	04020028 	streq	r0, [r2], #-40	; 0xffffffd8
     a88:	66780302 	ldrbtvs	r0, [r8], -r2, lsl #6
     a8c:	02002c05 	andeq	r2, r0, #1280	; 0x500
     a90:	01060204 	tsteq	r6, r4, lsl #4
     a94:	02002505 	andeq	r2, r0, #20971520	; 0x1400000
     a98:	66060104 	strvs	r0, [r6], -r4, lsl #2
     a9c:	02000505 	andeq	r0, r0, #20971520	; 0x1400000
     aa0:	01060104 	tsteq	r6, r4, lsl #2
     aa4:	4c060905 			; <UNDEFINED> instruction: 0x4c060905
     aa8:	01061005 	tsteq	r6, r5
     aac:	2f060905 	svccs	0x00060905
     ab0:	01060e05 	tsteq	r6, r5, lsl #28
     ab4:	662e0c05 	strtvs	r0, [lr], -r5, lsl #24
     ab8:	03060505 	movweq	r0, #25861	; 0x6505
     abc:	06010109 	streq	r0, [r1], -r9, lsl #2
     ac0:	142e0682 	strtne	r0, [lr], #-1666	; 0xfffff97e
     ac4:	13060105 	movwne	r0, #24837	; 0x6105
     ac8:	05000666 	streq	r0, [r0, #-1638]	; 0xfffff99a
     acc:	008a0c02 	addeq	r0, sl, r2, lsl #24
     ad0:	7dee0300 	stclvc	3, cr0, [lr]
     ad4:	05010601 	streq	r0, [r1, #-1537]	; 0xfffff9ff
     ad8:	144b0605 	strbne	r0, [fp], #-1541	; 0xfffff9fb
     adc:	04020001 	streq	r0, [r2], #-1
     ae0:	02004a02 	andeq	r4, r0, #8192	; 0x2000
     ae4:	00010204 	andeq	r0, r1, r4, lsl #4
     ae8:	13020402 	movwne	r0, #9218	; 0x2402
     aec:	02000905 	andeq	r0, r0, #81920	; 0x14000
     af0:	01060204 	tsteq	r6, r4, lsl #4
     af4:	02000805 	andeq	r0, r0, #327680	; 0x50000
     af8:	054a0204 	strbeq	r0, [sl, #-516]	; 0xfffffdfc
     afc:	154b0609 	strbne	r0, [fp, #-1545]	; 0xfffff9f7
     b00:	06140513 			; <UNDEFINED> instruction: 0x06140513
     b04:	09054a01 	stmdbeq	r5, {r0, r9, fp, lr}
     b08:	12052f06 	andne	r2, r5, #6, 30
     b0c:	09050106 	stmdbeq	r5, {r1, r2, r8}
     b10:	054b4b06 	strbeq	r4, [fp, #-2822]	; 0xfffff4fa
     b14:	05010610 	streq	r0, [r1, #-1552]	; 0xfffff9f0
     b18:	054c0605 	strbeq	r0, [ip, #-1541]	; 0xfffff9fb
     b1c:	0501060c 	streq	r0, [r1, #-1548]	; 0xfffff9f4
     b20:	05054b01 	streq	r4, [r5, #-2817]	; 0xfffff4ff
     b24:	01040200 	mrseq	r0, R12_usr
     b28:	4a740306 	bmi	1d01748 <__bss_end__+0x1cf6738>
     b2c:	01040200 	mrseq	r0, R12_usr
     b30:	04020001 	streq	r0, [r2], #-1
     b34:	00ba0601 	adcseq	r0, sl, r1, lsl #12
     b38:	06010402 	streq	r0, [r1], -r2, lsl #8
     b3c:	3009052e 	andcc	r0, r9, lr, lsr #10
     b40:	06820601 	streq	r0, [r2], r1, lsl #12
     b44:	0338052e 	teqeq	r8, #192937984	; 0xb800000
     b48:	06d60189 	ldrbeq	r0, [r6], r9, lsl #3
     b4c:	06050501 	streq	r0, [r5], -r1, lsl #10
     b50:	0a05132f 	beq	145814 <__bss_end__+0x13a804>
     b54:	060e0501 	streq	r0, [lr], -r1, lsl #10
     b58:	2d090501 	cfstr32cs	mvfx0, [r9, #-4]
     b5c:	052f0505 	streq	r0, [pc, #-1285]!	; 65f <__code_start__-0x79a1>
     b60:	0530060d 	ldreq	r0, [r0, #-1549]!	; 0xfffff9f3
     b64:	05010612 	streq	r0, [r1, #-1554]	; 0xfffff9ee
     b68:	04020021 	streq	r0, [r2], #-33	; 0xffffffdf
     b6c:	052c0602 	streq	r0, [ip, #-1538]!	; 0xfffff9fe
     b70:	04020022 	streq	r0, [r2], #-34	; 0xffffffde
     b74:	05010602 	streq	r0, [r1, #-1538]	; 0xfffff9fe
     b78:	04020015 	streq	r0, [r2], #-21	; 0xffffffeb
     b7c:	052e0601 	streq	r0, [lr, #-1537]!	; 0xfffff9ff
     b80:	04020005 	streq	r0, [r2], #-5
     b84:	05010601 	streq	r0, [r1, #-1537]	; 0xfffff9ff
     b88:	054b0609 	strbeq	r0, [fp, #-1545]	; 0xfffff9f7
     b8c:	05010614 	streq	r0, [r1, #-1556]	; 0xfffff9ec
     b90:	16052e0c 	strne	r2, [r5], -ip, lsl #28
     b94:	05056d06 	streq	r6, [r5, #-3334]	; 0xfffff2fa
     b98:	0a05132f 	beq	14585c <__bss_end__+0x13a84c>
     b9c:	06150501 	ldreq	r0, [r5], -r1, lsl #10
     ba0:	09054a01 	stmdbeq	r5, {r0, r9, fp, lr}
     ba4:	2f050511 	svccs	0x00050511
     ba8:	03061105 	movweq	r1, #24837	; 0x6105
     bac:	06012e09 	streq	r2, [r1], -r9, lsl #28
     bb0:	002e0682 	eoreq	r0, lr, r2, lsl #13
     bb4:	4a010402 	bmi	41bc4 <__bss_end__+0x36bb4>
     bb8:	02000905 	andeq	r0, r0, #81920	; 0x14000
     bbc:	05150104 	ldreq	r0, [r5, #-260]	; 0xfffffefc
     bc0:	04020010 	streq	r0, [r2], #-16
     bc4:	00010601 	andeq	r0, r1, r1, lsl #12
     bc8:	2e010402 	cdpcs	4, 0, cr0, cr1, cr2, {0}
     bcc:	02002805 	andeq	r2, r0, #327680	; 0x50000
     bd0:	03060104 	movweq	r0, #24836	; 0x6104
     bd4:	2c050174 	stfcss	f0, [r5], {116}	; 0x74
     bd8:	01040200 	mrseq	r0, R12_usr
     bdc:	25050106 	strcs	r0, [r5, #-262]	; 0xfffffefa
     be0:	02040200 	andeq	r0, r4, #0, 4
     be4:	05056606 	streq	r6, [r5, #-1542]	; 0xfffff9fa
     be8:	02040200 	andeq	r0, r4, #0, 4
     bec:	09050106 	stmdbeq	r5, {r1, r2, r8}
     bf0:	05134b06 	ldreq	r4, [r3, #-2822]	; 0xfffff4fa
     bf4:	4a01061e 	bmi	42474 <__bss_end__+0x37464>
     bf8:	4b060905 	blmi	183014 <__bss_end__+0x178004>
     bfc:	01063705 	tsteq	r6, r5, lsl #14
     c00:	052e3f05 	streq	r3, [lr, #-3845]!	; 0xfffff0fb
     c04:	1b052e1e 	blne	14c484 <__bss_end__+0x141474>
     c08:	06090582 	streq	r0, [r9], -r2, lsl #11
     c0c:	4a9e012f 	bmi	fe7810d0 <__bss_end__+0xfe7760c0>
     c10:	060e0513 			; <UNDEFINED> instruction: 0x060e0513
     c14:	2e0c0501 	cfsh32cs	mvfx0, mvfx12, #1
     c18:	4b060d05 	blmi	184034 <__bss_end__+0x179024>
     c1c:	01061505 	tsteq	r6, r5, lsl #10
     c20:	67060d05 	strvs	r0, [r6, -r5, lsl #26]
     c24:	01061f05 	tsteq	r6, r5, lsl #30
     c28:	2f060d05 	svccs	0x00060d05
     c2c:	01061005 	tsteq	r6, r5
     c30:	06050566 	streq	r0, [r5], -r6, ror #10
     c34:	06010518 			; <UNDEFINED> instruction: 0x06010518
     c38:	03062e13 	movweq	r2, #28179	; 0x6e13
     c3c:	0106822f 	tsteq	r6, pc, lsr #4
     c40:	30060505 	andcc	r0, r6, r5, lsl #10
     c44:	01060c05 	tsteq	r6, r5, lsl #24
     c48:	062f0105 	strteq	r0, [pc], -r5, lsl #2
     c4c:	32050532 	andcc	r0, r5, #209715200	; 0xc800000
     c50:	06090513 			; <UNDEFINED> instruction: 0x06090513
     c54:	4a080501 	bmi	202060 <__bss_end__+0x1f7050>
     c58:	4b060905 	blmi	183074 <__bss_end__+0x178064>
     c5c:	054a0114 	strbeq	r0, [sl, #-276]	; 0xfffffeec
     c60:	01051305 	tsteq	r5, r5, lsl #6
     c64:	09051306 	stmdbeq	r5, {r1, r2, r8, r9, ip}
     c68:	9e012a06 	vmlals.f32	s4, s2, s12
     c6c:	05a60105 	streq	r0, [r6, #261]!	; 0x105
     c70:	05133205 	ldreq	r3, [r3, #-517]	; 0xfffffdfb
     c74:	05010617 	streq	r0, [r1, #-1559]	; 0xfffff9e9
     c78:	054b0605 	strbeq	r0, [fp, #-1541]	; 0xfffff9fb
     c7c:	05010608 	streq	r0, [r1, #-1544]	; 0xfffff9f8
     c80:	144b0609 	strbne	r0, [fp], #-1545	; 0xfffff9f7
     c84:	064a0601 	strbeq	r0, [sl], -r1, lsl #12
     c88:	1305052e 	movwne	r0, #21806	; 0x552e
     c8c:	06010513 			; <UNDEFINED> instruction: 0x06010513
     c90:	06090513 			; <UNDEFINED> instruction: 0x06090513
     c94:	059e0145 	ldreq	r0, [lr, #325]	; 0x145
     c98:	9e210301 	cdpls	3, 2, cr0, cr1, cr1, {0}
     c9c:	2f2f0505 	svccs	0x002f0505
     ca0:	01061705 	tsteq	r6, r5, lsl #14
     ca4:	32060505 	andcc	r0, r6, #20971520	; 0x1400000
     ca8:	13060105 	movwne	r0, #24837	; 0x6105
     cac:	05053106 	streq	r3, [r5, #-262]	; 0xfffffefa
     cb0:	029e012f 	addseq	r0, lr, #-1073741813	; 0xc000000b
     cb4:	01010008 	tsteq	r1, r8
     cb8:	00000121 	andeq	r0, r0, r1, lsr #2
     cbc:	00be0003 	adcseq	r0, lr, r3
     cc0:	01020000 	mrseq	r0, (UNDEF: 2)
     cc4:	000d0efb 	strdeq	r0, [sp], -fp
     cc8:	01010101 	tsteq	r1, r1, lsl #2
     ccc:	01000000 	mrseq	r0, (UNDEF: 0)
     cd0:	2e010000 	cdpcs	0, 0, cr0, cr1, cr0, {0}
     cd4:	62696c2f 	rsbvs	r6, r9, #12032	; 0x2f00
     cd8:	552f0063 	strpl	r0, [pc, #-99]!	; c7d <__code_start__-0x7383>
     cdc:	73726573 	cmnvc	r2, #482344960	; 0x1cc00000
     ce0:	6c696d2f 	stclvs	13, cr6, [r9], #-188	; 0xffffff44
     ce4:	532f7365 			; <UNDEFINED> instruction: 0x532f7365
     ce8:	6372756f 	cmnvs	r2, #465567744	; 0x1bc00000
     cec:	73632f65 	cmnvc	r3, #404	; 0x194
     cf0:	6c303432 	cfldrsvs	mvf3, [r0], #-200	; 0xffffff38
     cf4:	696c2f78 	stmdbvs	ip!, {r3, r4, r5, r6, r8, r9, sl, fp, sp}^
     cf8:	2f697062 	svccs	0x00697062
     cfc:	6c636e69 	stclvs	14, cr6, [r3], #-420	; 0xfffffe5c
     d00:	00656475 	rsbeq	r6, r5, r5, ror r4
     d04:	74706f2f 	ldrbtvc	r6, [r0], #-3887	; 0xfffff0d1
     d08:	6d6f682f 	stclvs	8, cr6, [pc, #-188]!	; c54 <__code_start__-0x73ac>
     d0c:	65726265 	ldrbvs	r6, [r2, #-613]!	; 0xfffffd9b
     d10:	65432f77 	strbvs	r2, [r3, #-3959]	; 0xfffff089
     d14:	72616c6c 	rsbvc	r6, r1, #108, 24	; 0x6c00
     d18:	6d72612f 	ldfvse	f6, [r2, #-188]!	; 0xffffff44
     d1c:	6e6f6e2d 	cdpvs	14, 6, cr6, cr15, cr13, {1}
     d20:	61652d65 	cmnvs	r5, r5, ror #26
     d24:	392d6962 	pushcc	{r1, r5, r6, r8, fp, sp, lr}
     d28:	322d392f 	eorcc	r3, sp, #770048	; 0xbc000
     d2c:	71393130 	teqvc	r9, r0, lsr r1
     d30:	73632d34 	cmnvc	r3, #52, 26	; 0xd00
     d34:	65373031 	ldrvs	r3, [r7, #-49]!	; 0xffffffcf
     d38:	62696c2f 	rsbvs	r6, r9, #12032	; 0x2f00
     d3c:	6363672f 	cmnvs	r3, #12320768	; 0xbc0000
     d40:	6d72612f 	ldfvse	f6, [r2, #-188]!	; 0xffffff44
     d44:	6e6f6e2d 	cdpvs	14, 6, cr6, cr15, cr13, {1}
     d48:	61652d65 	cmnvs	r5, r5, ror #26
     d4c:	392f6962 	stmdbcc	pc!, {r1, r5, r6, r8, fp, sp, lr}	; <UNPREDICTABLE>
     d50:	312e322e 			; <UNDEFINED> instruction: 0x312e322e
     d54:	636e692f 	cmnvs	lr, #770048	; 0xbc000
     d58:	6564756c 	strbvs	r7, [r4, #-1388]!	; 0xfffffa94
     d5c:	656d0000 	strbvs	r0, [sp, #-0]!
     d60:	7465736d 	strbtvc	r7, [r5], #-877	; 0xfffffc93
     d64:	0100632e 	tsteq	r0, lr, lsr #6
     d68:	70720000 	rsbsvc	r0, r2, r0
     d6c:	00682e69 	rsbeq	r2, r8, r9, ror #28
     d70:	73000002 	movwvc	r0, #2
     d74:	65646474 	strbvs	r6, [r4, #-1140]!	; 0xfffffb8c
     d78:	00682e66 	rsbeq	r2, r8, r6, ror #28
     d7c:	00000003 	andeq	r0, r0, r3
     d80:	05002905 	streq	r2, [r0, #-2309]	; 0xfffff6fb
     d84:	008c9002 	addeq	r9, ip, r2
     d88:	05051500 	streq	r1, [r5, #-1280]	; 0xfffffb00
     d8c:	06290513 			; <UNDEFINED> instruction: 0x06290513
     d90:	2f140511 	svccs	0x00140511
     d94:	30060505 	andcc	r0, r6, r5, lsl #10
     d98:	06010a05 	streq	r0, [r1], -r5, lsl #20
     d9c:	0609059e 			; <UNDEFINED> instruction: 0x0609059e
     da0:	060e05d7 			; <UNDEFINED> instruction: 0x060e05d7
     da4:	060a0501 	streq	r0, [sl], -r1, lsl #10
     da8:	bb09052d 	bllt	242264 <__bss_end__+0x237254>
     dac:	01060e05 	tsteq	r6, r5, lsl #28
     db0:	060a052e 	streq	r0, [sl], -lr, lsr #10
     db4:	4b09052d 	blmi	242270 <__bss_end__+0x237260>
     db8:	01060b05 	tsteq	r6, r5, lsl #22
     dbc:	052d0a05 	streq	r0, [sp, #-2565]!	; 0xfffff5fb
     dc0:	0a052f0e 	beq	14ca00 <__bss_end__+0x1419f0>
     dc4:	0e052d06 	cdpeq	13, 0, cr2, cr5, cr6, {0}
     dc8:	09051306 	stmdbeq	r5, {r1, r2, r8, r9, ip}
     dcc:	0a052e06 	beq	14c5ec <__bss_end__+0x1415dc>
     dd0:	14050511 	strne	r0, [r5], #-1297	; 0xfffffaef
     dd4:	13060105 	movwne	r0, #24837	; 0x6105
     dd8:	01000202 	tsteq	r0, r2, lsl #4
     ddc:	00012001 	andeq	r2, r1, r1
     de0:	db000300 	blle	19e8 <__code_start__-0x6618>
     de4:	02000000 	andeq	r0, r0, #0, 0
     de8:	0d0efb01 	vstreq	d15, [lr, #-4]
     dec:	01010100 	mrseq	r0, (UNDEF: 17)
     df0:	00000001 	andeq	r0, r0, r1
     df4:	01000001 	tsteq	r0, r1
     df8:	696c2f2e 	stmdbvs	ip!, {r1, r2, r3, r5, r8, r9, sl, fp, sp}^
     dfc:	2f006362 	svccs	0x00006362
     e00:	2f74706f 	svccs	0x0074706f
     e04:	656d6f68 	strbvs	r6, [sp, #-3944]!	; 0xfffff098
     e08:	77657262 	strbvc	r7, [r5, -r2, ror #4]!
     e0c:	6c65432f 	stclvs	3, cr4, [r5], #-188	; 0xffffff44
     e10:	2f72616c 	svccs	0x0072616c
     e14:	2d6d7261 	sfmcs	f7, 2, [sp, #-388]!	; 0xfffffe7c
     e18:	656e6f6e 	strbvs	r6, [lr, #-3950]!	; 0xfffff092
     e1c:	6261652d 	rsbvs	r6, r1, #188743680	; 0xb400000
     e20:	2f392d69 	svccs	0x00392d69
     e24:	30322d39 	eorscc	r2, r2, r9, lsr sp
     e28:	34713931 	ldrbtcc	r3, [r1], #-2353	; 0xfffff6cf
     e2c:	3173632d 	cmncc	r3, sp, lsr #6
     e30:	2f653730 	svccs	0x00653730
     e34:	2f62696c 	svccs	0x0062696c
     e38:	2f636367 	svccs	0x00636367
     e3c:	2d6d7261 	sfmcs	f7, 2, [sp, #-388]!	; 0xfffffe7c
     e40:	656e6f6e 	strbvs	r6, [lr, #-3950]!	; 0xfffff092
     e44:	6261652d 	rsbvs	r6, r1, #188743680	; 0xb400000
     e48:	2e392f69 	cdpcs	15, 3, cr2, cr9, cr9, {3}
     e4c:	2f312e32 	svccs	0x00312e32
     e50:	6c636e69 	stclvs	14, cr6, [r3], #-420	; 0xfffffe5c
     e54:	00656475 	rsbeq	r6, r5, r5, ror r4
     e58:	6573552f 	ldrbvs	r5, [r3, #-1327]!	; 0xfffffad1
     e5c:	6d2f7372 	stcvs	3, cr7, [pc, #-456]!	; c9c <__code_start__-0x7364>
     e60:	73656c69 	cmnvc	r5, #26880	; 0x6900
     e64:	756f532f 	strbvc	r5, [pc, #-815]!	; b3d <__code_start__-0x74c3>
     e68:	2f656372 	svccs	0x00656372
     e6c:	34327363 	ldrtcc	r7, [r2], #-867	; 0xfffffc9d
     e70:	2f786c30 	svccs	0x00786c30
     e74:	7062696c 	rsbvc	r6, r2, ip, ror #18
     e78:	6e692f69 	cdpvs	15, 6, cr2, cr9, cr9, {3}
     e7c:	64756c63 	ldrbtvs	r6, [r5], #-3171	; 0xfffff39d
     e80:	70000065 	andvc	r0, r0, r5, rrx
     e84:	746e6972 	strbtvc	r6, [lr], #-2418	; 0xfffff68e
     e88:	00632e6b 	rsbeq	r2, r3, fp, ror #28
     e8c:	73000001 	movwvc	r0, #1
     e90:	72616474 	rsbvc	r6, r1, #116, 8	; 0x74000000
     e94:	00682e67 	rsbeq	r2, r8, r7, ror #28
     e98:	72000002 	andvc	r0, r0, #2, 0
     e9c:	682e6970 	stmdavs	lr!, {r4, r5, r6, r8, fp, sp, lr}
     ea0:	00000300 	andeq	r0, r0, r0, lsl #6
     ea4:	6975623c 	ldmdbvs	r5!, {r2, r3, r4, r5, r9, sp, lr}^
     ea8:	692d746c 	pushvs	{r2, r3, r5, r6, sl, ip, sp, lr}
     eac:	00003e6e 	andeq	r3, r0, lr, ror #28
     eb0:	61760000 	cmnvs	r6, r0
     eb4:	6972702d 	ldmdbvs	r2!, {r0, r2, r3, r5, ip, sp, lr}^
     eb8:	2e6b746e 	cdpcs	4, 6, cr7, cr11, cr14, {3}
     ebc:	00010068 	andeq	r0, r1, r8, rrx
     ec0:	22050000 	andcs	r0, r5, #0, 0
     ec4:	08020500 	stmdaeq	r2, {r8, sl}
     ec8:	1700008d 	strne	r0, [r0, -sp, lsl #1]
     ecc:	13140505 	tstne	r4, #20971520	; 0x1400000
     ed0:	06220514 			; <UNDEFINED> instruction: 0x06220514
     ed4:	5012050d 	andspl	r0, r2, sp, lsl #10
     ed8:	7a032205 	bvc	c96f4 <__bss_end__+0xbe6e4>
     edc:	3305052e 	movwcc	r0, #21806	; 0x552e
     ee0:	052f1205 	streq	r1, [pc, #-517]!	; ce3 <__code_start__-0x731d>
     ee4:	09056505 	stmdbeq	r5, {r0, r2, r8, sl, sp, lr}
     ee8:	12052f06 	andne	r2, r5, #6, 30
     eec:	05050106 	streq	r0, [r5, #-262]	; 0xfffffefa
     ef0:	06164b06 	ldreq	r4, [r6], -r6, lsl #22
     ef4:	0550064a 	ldrbeq	r0, [r0, #-1610]	; 0xfffff9b6
     ef8:	66130601 	ldrvs	r0, [r3], -r1, lsl #12
     efc:	01000802 	tsteq	r0, r2, lsl #16
     f00:	0000a001 	andeq	sl, r0, r1
     f04:	57000300 	strpl	r0, [r0, -r0, lsl #6]
     f08:	02000000 	andeq	r0, r0, #0, 0
     f0c:	0d0efb01 	vstreq	d15, [lr, #-4]
     f10:	01010100 	mrseq	r0, (UNDEF: 17)
     f14:	00000001 	andeq	r0, r0, r1
     f18:	01000001 	tsteq	r0, r1
     f1c:	696c2f2e 	stmdbvs	ip!, {r1, r2, r3, r5, r8, r9, sl, fp, sp}^
     f20:	2f006362 	svccs	0x00006362
     f24:	72657355 	rsbvc	r7, r5, #1409286145	; 0x54000001
     f28:	696d2f73 	stmdbvs	sp!, {r0, r1, r4, r5, r6, r8, r9, sl, fp, sp}^
     f2c:	2f73656c 	svccs	0x0073656c
     f30:	72756f53 	rsbsvc	r6, r5, #332	; 0x14c
     f34:	632f6563 			; <UNDEFINED> instruction: 0x632f6563
     f38:	30343273 	eorscc	r3, r4, r3, ror r2
     f3c:	6c2f786c 	stcvs	8, cr7, [pc], #-432	; d94 <__code_start__-0x726c>
     f40:	69706269 	ldmdbvs	r0!, {r0, r3, r5, r6, r9, sp, lr}^
     f44:	636e692f 	cmnvs	lr, #770048	; 0xbc000
     f48:	6564756c 	strbvs	r7, [r4, #-1388]!	; 0xfffffa94
     f4c:	75700000 	ldrbvc	r0, [r0, #-0]!
     f50:	632e6b74 			; <UNDEFINED> instruction: 0x632e6b74
     f54:	00000100 	andeq	r0, r0, r0, lsl #2
     f58:	2e697072 	mcrcs	0, 3, r7, cr9, cr2, {3}
     f5c:	00020068 	andeq	r0, r2, r8, rrx
     f60:	22050000 	andcs	r0, r5, #0, 0
     f64:	60020500 	andvs	r0, r2, r0, lsl #10
     f68:	1500008d 	strne	r0, [r0, #-141]	; 0xffffff73
     f6c:	05130505 	ldreq	r0, [r3, #-1285]	; 0xfffffafb
     f70:	2e110622 	cfmsub32cs	mvax1, mvfx0, mvfx1, mvfx2
     f74:	2f060b05 	svccs	0x00060b05
     f78:	2e060505 	cfsh32cs	mvfx0, mvfx6, #5
     f7c:	02000905 	andeq	r0, r0, #81920	; 0x14000
     f80:	67060204 	strvs	r0, [r6, -r4, lsl #4]
     f84:	02000f05 	andeq	r0, r0, #5, 30
     f88:	05490204 	strbeq	r0, [r9, #-516]	; 0xfffffdfc
     f8c:	0402000b 	streq	r0, [r2], #-11
     f90:	05050102 	streq	r0, [r5, #-258]	; 0xfffffefe
     f94:	02040200 	andeq	r0, r4, #0, 4
     f98:	4e062e06 	cdpmi	14, 0, cr2, cr6, cr6, {0}
     f9c:	13060105 	movwne	r0, #24837	; 0x6105
     fa0:	01000602 	tsteq	r0, r2, lsl #12
     fa4:	0000e101 	andeq	lr, r0, r1, lsl #2
     fa8:	5b000300 	blpl	1bb0 <__code_start__-0x6450>
     fac:	02000000 	andeq	r0, r0, #0, 0
     fb0:	0d0efb01 	vstreq	d15, [lr, #-4]
     fb4:	01010100 	mrseq	r0, (UNDEF: 17)
     fb8:	00000001 	andeq	r0, r0, r1
     fbc:	01000001 	tsteq	r0, r1
     fc0:	696c2f2e 	stmdbvs	ip!, {r1, r2, r3, r5, r8, r9, sl, fp, sp}^
     fc4:	2f006362 	svccs	0x00006362
     fc8:	72657355 	rsbvc	r7, r5, #1409286145	; 0x54000001
     fcc:	696d2f73 	stmdbvs	sp!, {r0, r1, r4, r5, r6, r8, r9, sl, fp, sp}^
     fd0:	2f73656c 	svccs	0x0073656c
     fd4:	72756f53 	rsbsvc	r6, r5, #332	; 0x14c
     fd8:	632f6563 			; <UNDEFINED> instruction: 0x632f6563
     fdc:	30343273 	eorscc	r3, r4, r3, ror r2
     fe0:	6c2f786c 	stcvs	8, cr7, [pc], #-432	; e38 <__code_start__-0x71c8>
     fe4:	69706269 	ldmdbvs	r0!, {r0, r3, r5, r6, r9, sp, lr}^
     fe8:	636e692f 	cmnvs	lr, #770048	; 0xbc000
     fec:	6564756c 	strbvs	r7, [r4, #-1388]!	; 0xfffffa94
     ff0:	70720000 	rsbsvc	r0, r2, r0
     ff4:	61722d69 	cmnvs	r2, r9, ror #26
     ff8:	632e646e 			; <UNDEFINED> instruction: 0x632e646e
     ffc:	00000100 	andeq	r0, r0, r0, lsl #2
    1000:	2e697072 	mcrcs	0, 3, r7, cr9, cr2, {3}
    1004:	00020068 	andeq	r0, r2, r8, rrx
    1008:	21050000 	mrscs	r0, (UNDEF: 5)
    100c:	98020500 	stmdals	r2, {r8, sl}
    1010:	0300008d 	movweq	r0, #141	; 0x8d
    1014:	0505010a 	streq	r0, [r5, #-266]	; 0xfffffef6
    1018:	06190513 			; <UNDEFINED> instruction: 0x06190513
    101c:	06050501 	streq	r0, [r5], -r1, lsl #10
    1020:	0627054b 	strteq	r0, [r7], -fp, asr #10
    1024:	66350511 			; <UNDEFINED> instruction: 0x66350511
    1028:	052f1905 	streq	r1, [pc, #-2309]!	; 72b <__code_start__-0x78d5>
    102c:	0505660a 	streq	r6, [r5, #-1546]	; 0xfffff9f6
    1030:	01052f06 	tsteq	r5, r6, lsl #30
    1034:	20051306 	andcs	r1, r5, r6, lsl #6
    1038:	05054c06 	streq	r4, [r5, #-3078]	; 0xfffff3fa
    103c:	03100513 	tsteq	r0, #79691776	; 0x4c00000
    1040:	05050179 	streq	r0, [r5, #-377]	; 0xfffffe87
    1044:	06190513 			; <UNDEFINED> instruction: 0x06190513
    1048:	06050501 	streq	r0, [r5], -r1, lsl #10
    104c:	0627054b 	strteq	r0, [r7], -fp, asr #10
    1050:	66350511 			; <UNDEFINED> instruction: 0x66350511
    1054:	052f1905 	streq	r1, [pc, #-2309]!	; 757 <__code_start__-0x78a9>
    1058:	05670605 	strbeq	r0, [r7, #-1541]!	; 0xfffff9fb
    105c:	05050f10 	streq	r0, [r5, #-3856]	; 0xfffff0f0
    1060:	27051313 	smladcs	r5, r3, r3, r1
    1064:	35051106 	strcc	r1, [r5, #-262]	; 0xfffffefa
    1068:	2f190566 	svccs	0x00190566
    106c:	05660a05 	strbeq	r0, [r6, #-2565]!	; 0xfffff5fb
    1070:	052f0605 	streq	r0, [pc, #-1541]!	; a73 <__code_start__-0x758d>
    1074:	05170601 	ldreq	r0, [r7, #-1537]	; 0xfffff9ff
    1078:	0569061f 	strbeq	r0, [r9, #-1567]!	; 0xfffff9e1
    107c:	0a051305 	beq	145c98 <__bss_end__+0x13ac88>
    1080:	01050106 	tsteq	r5, r6, lsl #2
    1084:	00060267 	andeq	r0, r6, r7, ror #4
    1088:	08fa0101 	ldmeq	sl!, {r0, r8}^
    108c:	00030000 	andeq	r0, r3, r0
    1090:	000000f1 	strdeq	r0, [r0], -r1
    1094:	0efb0102 	cdpeq	1, 15, cr0, cr11, cr2, {0}
    1098:	0101000d 	tsteq	r1, sp
    109c:	00000101 	andeq	r0, r0, r1, lsl #2
    10a0:	00000100 	andeq	r0, r0, r0, lsl #2
    10a4:	6c2f2e01 	stcvs	14, cr2, [pc], #-4	; 10a8 <__code_start__-0x6f58>
    10a8:	00636269 	rsbeq	r6, r3, r9, ror #4
    10ac:	74706f2f 	ldrbtvc	r6, [r0], #-3887	; 0xfffff0d1
    10b0:	6d6f682f 	stclvs	8, cr6, [pc, #-188]!	; ffc <__code_start__-0x7004>
    10b4:	65726265 	ldrbvs	r6, [r2, #-613]!	; 0xfffffd9b
    10b8:	65432f77 	strbvs	r2, [r3, #-3959]	; 0xfffff089
    10bc:	72616c6c 	rsbvc	r6, r1, #108, 24	; 0x6c00
    10c0:	6d72612f 	ldfvse	f6, [r2, #-188]!	; 0xffffff44
    10c4:	6e6f6e2d 	cdpvs	14, 6, cr6, cr15, cr13, {1}
    10c8:	61652d65 	cmnvs	r5, r5, ror #26
    10cc:	392d6962 	pushcc	{r1, r5, r6, r8, fp, sp, lr}
    10d0:	322d392f 	eorcc	r3, sp, #770048	; 0xbc000
    10d4:	71393130 	teqvc	r9, r0, lsr r1
    10d8:	73632d34 	cmnvc	r3, #52, 26	; 0xd00
    10dc:	65373031 	ldrvs	r3, [r7, #-49]!	; 0xffffffcf
    10e0:	62696c2f 	rsbvs	r6, r9, #12032	; 0x2f00
    10e4:	6363672f 	cmnvs	r3, #12320768	; 0xbc0000
    10e8:	6d72612f 	ldfvse	f6, [r2, #-188]!	; 0xffffff44
    10ec:	6e6f6e2d 	cdpvs	14, 6, cr6, cr15, cr13, {1}
    10f0:	61652d65 	cmnvs	r5, r5, ror #26
    10f4:	392f6962 	stmdbcc	pc!, {r1, r5, r6, r8, fp, sp, lr}	; <UNPREDICTABLE>
    10f8:	312e322e 			; <UNDEFINED> instruction: 0x312e322e
    10fc:	636e692f 	cmnvs	lr, #770048	; 0xbc000
    1100:	6564756c 	strbvs	r7, [r4, #-1388]!	; 0xfffffa94
    1104:	73552f00 	cmpvc	r5, #0, 30
    1108:	2f737265 	svccs	0x00737265
    110c:	656c696d 	strbvs	r6, [ip, #-2413]!	; 0xfffff693
    1110:	6f532f73 	svcvs	0x00532f73
    1114:	65637275 	strbvs	r7, [r3, #-629]!	; 0xfffffd8b
    1118:	3273632f 	rsbscc	r6, r3, #-1140850688	; 0xbc000000
    111c:	786c3034 	stmdavc	ip!, {r2, r4, r5, ip, sp}^
    1120:	62696c2f 	rsbvs	r6, r9, #12032	; 0x2f00
    1124:	692f6970 	stmdbvs	pc!, {r4, r5, r6, r8, fp, sp, lr}	; <UNPREDICTABLE>
    1128:	756c636e 	strbvc	r6, [ip, #-878]!	; 0xfffffc92
    112c:	00006564 	andeq	r6, r0, r4, ror #10
    1130:	702d6176 	eorvc	r6, sp, r6, ror r1
    1134:	746e6972 	strbtvc	r6, [lr], #-2418	; 0xfffff68e
    1138:	00632e6b 	rsbeq	r2, r3, fp, ror #28
    113c:	73000001 	movwvc	r0, #1
    1140:	6e696474 	mcrvs	4, 3, r6, cr9, cr4, {3}
    1144:	63672d74 	cmnvs	r7, #116, 26	; 0x1d00
    1148:	00682e63 	rsbeq	r2, r8, r3, ror #28
    114c:	72000002 	andvc	r0, r0, #2, 0
    1150:	682e6970 	stmdavs	lr!, {r4, r5, r6, r8, fp, sp, lr}
    1154:	00000300 	andeq	r0, r0, r0, lsl #6
    1158:	2d697072 	stclcs	0, cr7, [r9, #-456]!	; 0xfffffe38
    115c:	65746e69 	ldrbvs	r6, [r4, #-3689]!	; 0xfffff197
    1160:	6c616e72 	stclvs	14, cr6, [r1], #-456	; 0xfffffe38
    1164:	0300682e 	movweq	r6, #2094	; 0x82e
    1168:	74730000 	ldrbtvc	r0, [r3], #-0
    116c:	67726164 	ldrbvs	r6, [r2, -r4, ror #2]!
    1170:	0200682e 	andeq	r6, r0, #3014656	; 0x2e0000
    1174:	623c0000 	eorsvs	r0, ip, #0, 0
    1178:	746c6975 	strbtvc	r6, [ip], #-2421	; 0xfffff68b
    117c:	3e6e692d 	vmulcc.f16	s13, s28, s27	; <UNPREDICTABLE>
    1180:	00000000 	andeq	r0, r0, r0
    1184:	00010500 	andeq	r0, r1, r0, lsl #10
    1188:	8e300205 	cdphi	2, 3, cr0, cr0, cr5, {0}
    118c:	c8030000 	stmdagt	r3, {}	; <UNPREDICTABLE>
    1190:	02050100 	andeq	r0, r5, #0
    1194:	06010514 			; <UNDEFINED> instruction: 0x06010514
    1198:	30040510 	andcc	r0, r4, r0, lsl r5
    119c:	4a2c0105 	bmi	b015b8 <__bss_end__+0xaf65a8>
    11a0:	05300405 	ldreq	r0, [r0, #-1029]!	; 0xfffffbfb
    11a4:	13310602 	teqne	r1, #2097152	; 0x200000
    11a8:	2e060b05 	vmlacs.f64	d0, d6, d5
    11ac:	30060205 	andcc	r0, r6, r5, lsl #4
    11b0:	02060905 	andeq	r0, r6, #81920	; 0x14000
    11b4:	2e2e0d24 	cdpcs	13, 2, cr0, cr14, cr4, {1}
    11b8:	03060d05 	movweq	r0, #27909	; 0x6d05
    11bc:	11054a17 	tstne	r5, r7, lsl sl
    11c0:	062d0513 			; <UNDEFINED> instruction: 0x062d0513
    11c4:	2e160501 	cfmul32cs	mvfx0, mvfx6, mvfx1
    11c8:	052f0d05 	streq	r0, [pc, #-3333]!	; 4cb <__code_start__-0x7b35>
    11cc:	14052d16 	strne	r2, [r5], #-3350	; 0xfffff2ea
    11d0:	17052f06 	strne	r2, [r5, -r6, lsl #30]
    11d4:	0d050106 	stfeqs	f0, [r5, #-24]	; 0xffffffe8
    11d8:	052f062e 	streq	r0, [pc, #-1582]!	; bb2 <__code_start__-0x744e>
    11dc:	2e010612 	mcrcs	6, 0, r0, cr1, cr2, {0}
    11e0:	0d052d2f 	stceq	13, cr2, [r5, #-188]	; 0xffffff44
    11e4:	12052f06 	andne	r2, r5, #6, 30
    11e8:	19050106 	stmdbne	r5, {r1, r2, r8}
    11ec:	04052f06 	streq	r2, [r5], #-3846	; 0xfffff0fa
    11f0:	01011103 	tsteq	r1, r3, lsl #2
    11f4:	05150205 	ldreq	r0, [r5, #-517]	; 0xfffffdfb
    11f8:	7fb2030e 	svcvc	0x00b2030e
    11fc:	13020501 	movwne	r0, #9473	; 0x2501
    1200:	01060605 	tsteq	r6, r5, lsl #12
    1204:	30060205 	andcc	r0, r6, r5, lsl #4
    1208:	05010805 	streq	r0, [r1, #-2053]	; 0xfffff7fb
    120c:	4a010602 	bmi	42a1c <__bss_end__+0x37a0c>
    1210:	91080805 	tstls	r8, r5, lsl #16
    1214:	4a060305 	bmi	181e30 <__bss_end__+0x176e20>
    1218:	01060805 	tsteq	r6, r5, lsl #16
    121c:	2d061505 	cfstr32cs	mvfx1, [r6, #-20]	; 0xffffffec
    1220:	05010805 	streq	r0, [r1, #-2053]	; 0xfffff7fb
    1224:	0805d703 	stmdaeq	r5, {r0, r1, r8, r9, sl, ip, lr, pc}
    1228:	18050106 	stmdane	r5, {r1, r2, r8}
    122c:	2e02052d 	cfsh32cs	mvfx0, mvfx2, #29
    1230:	052f0805 	streq	r0, [pc, #-2053]!	; a33 <__code_start__-0x75cd>
    1234:	052d0615 	streq	r0, [sp, #-1557]!	; 0xfffff9eb
    1238:	02050108 	andeq	r0, r5, #2
    123c:	03050106 	movweq	r0, #20742	; 0x5106
    1240:	18052f06 	stmdane	r5, {r1, r2, r8, r9, sl, fp, sp}
    1244:	02051106 	andeq	r1, r5, #-2147483647	; 0x80000001
    1248:	2f08052e 	svccs	0x0008052e
    124c:	2d061505 	cfstr32cs	mvfx1, [r6, #-20]	; 0xffffffec
    1250:	05010805 	streq	r0, [r1, #-2053]	; 0xfffff7fb
    1254:	08051303 	stmdaeq	r5, {r0, r1, r8, r9, ip}
    1258:	15050106 	strne	r0, [r5, #-262]	; 0xfffffefa
    125c:	08052d06 	stmdaeq	r5, {r1, r2, r8, sl, fp, sp}
    1260:	05010601 	streq	r0, [r1, #-1537]	; 0xfffff9ff
    1264:	05a00602 	streq	r0, [r0, #1538]!	; 0x602
    1268:	05010605 	streq	r0, [r1, #-1541]	; 0xfffff9fb
    126c:	11053604 	tstne	r5, r4, lsl #12
    1270:	2e09052f 	cfsh32cs	mvfx0, mvfx9, #31
    1274:	05330205 	ldreq	r0, [r3, #-517]!	; 0xfffffdfb
    1278:	2e720305 	cdpcs	3, 7, cr0, cr2, cr5, {0}
    127c:	2f060205 	svccs	0x00060205
    1280:	0e050106 	adfeqs	f0, f5, f6
    1284:	02051606 	andeq	r1, r5, #6291456	; 0x600000
    1288:	03051314 	movweq	r1, #21268	; 0x5314
    128c:	14020513 	strne	r0, [r2], #-1299	; 0xfffffaed
    1290:	010b0515 	tsteq	fp, r5, lsl r5
    1294:	01060205 	tsteq	r6, r5, lsl #4
    1298:	0603052e 	streq	r0, [r3], -lr, lsr #10
    129c:	060a0567 	streq	r0, [sl], -r7, ror #10
    12a0:	2d020501 	cfstr32cs	mvfx0, [r2, #-4]
    12a4:	052f0a05 	streq	r0, [pc, #-2565]!	; 8a7 <__code_start__-0x7759>
    12a8:	052d0617 	streq	r0, [sp, #-1559]!	; 0xfffff9e9
    12ac:	0205010b 	andeq	r0, r5, #-1073741822	; 0xc0000002
    12b0:	09050106 	stmdbeq	r5, {r1, r2, r8}
    12b4:	02052e4c 	andeq	r2, r5, #76, 28	; 0x4c0
    12b8:	09052e06 	stmdbeq	r5, {r1, r2, r9, sl, fp, sp}
    12bc:	02050106 	andeq	r0, r5, #-2147483647	; 0x80000001
    12c0:	01063006 	tsteq	r6, r6
    12c4:	38030105 	stmdacc	r3, {r0, r2, r8}
    12c8:	03090501 	movweq	r0, #38145	; 0x9501
    12cc:	2e2e4a4f 	vnmulcs.f32	s8, s28, s30
    12d0:	03061905 	movweq	r1, #26885	; 0x6905
    12d4:	1a054a27 	bne	153b78 <__bss_end__+0x148b68>
    12d8:	06280513 			; <UNDEFINED> instruction: 0x06280513
    12dc:	2e1f0501 	cfmul32cs	mvfx0, mvfx15, mvfx1
    12e0:	052f0405 	streq	r0, [pc, #-1029]!	; ee3 <__code_start__-0x711d>
    12e4:	0b052d1f 	bleq	14c768 <__bss_end__+0x141758>
    12e8:	0e052f06 	cdpeq	15, 0, cr2, cr5, cr6, {0}
    12ec:	04050106 	streq	r0, [r5], #-262	; 0xfffffefa
    12f0:	0602052e 	streq	r0, [r2], -lr, lsr #10
    12f4:	134a5903 	movtne	r5, #43267	; 0xa903
    12f8:	2e060b05 	vmlacs.f64	d0, d6, d5
    12fc:	30060205 	andcc	r0, r6, r5, lsl #4
    1300:	02060905 	andeq	r0, r6, #81920	; 0x14000
    1304:	04050d24 	streq	r0, [r5], #-3364	; 0xfffff2dc
    1308:	05133606 	ldreq	r3, [r3, #-1542]	; 0xfffff9fa
    130c:	05010606 	streq	r0, [r1, #-1542]	; 0xfffff9fa
    1310:	13670605 	cmnne	r7, #5242880	; 0x500000
    1314:	06090513 			; <UNDEFINED> instruction: 0x06090513
    1318:	2b0d0511 	blcs	342764 <__bss_end__+0x337754>
    131c:	05300b05 	ldreq	r0, [r0, #-2821]!	; 0xfffff4fb
    1320:	1b052c0d 	blne	14c35c <__bss_end__+0x14134c>
    1324:	06040535 			; <UNDEFINED> instruction: 0x06040535
    1328:	1305052d 	movwne	r0, #21805	; 0x552d
    132c:	2e061b05 	vmlacs.f64	d1, d6, d5
    1330:	05820a05 	streq	r0, [r2, #2565]	; 0xa05
    1334:	0e052f04 	cdpeq	15, 0, cr2, cr5, cr4, {0}
    1338:	490a052e 	stmdbmi	sl, {r1, r2, r3, r5, r8, sl}
    133c:	2f060b05 	svccs	0x00060b05
    1340:	01060405 	tsteq	r6, r5, lsl #8
    1344:	06052f06 	streq	r2, [r5], -r6, lsl #30
    1348:	05050106 	streq	r0, [r5, #-262]	; 0xfffffefa
    134c:	0a052f06 	beq	14cf6c <__bss_end__+0x141f5c>
    1350:	052e0106 	streq	r0, [lr, #-262]!	; 0xfffffefa
    1354:	2e2e2e07 	cdpcs	14, 2, cr2, cr14, cr7, {0}
    1358:	03060405 	movweq	r0, #25605	; 0x6405
    135c:	0205010d 	andeq	r0, r5, #1073741827	; 0x40000003
    1360:	01460306 	cmpeq	r6, r6, lsl #6
    1364:	3a030905 	bcc	c3780 <__bss_end__+0xb8770>
    1368:	0604052e 	streq	r0, [r4], -lr, lsr #10
    136c:	010d032f 	tsteq	sp, pc, lsr #6
    1370:	15020501 	strne	r0, [r2, #-1281]	; 0xfffffaff
    1374:	b2030e05 	andlt	r0, r3, #80	; 0x50
    1378:	0205017f 	andeq	r0, r5, #-1073741793	; 0xc000001f
    137c:	08051413 	stmdaeq	r5, {r0, r1, r4, sl, ip}
    1380:	06060501 	streq	r0, [r6], -r1, lsl #10
    1384:	2e3c0310 	mrccs	3, 1, r0, cr12, cr0, {0}
    1388:	46030205 	strmi	r0, [r3], -r5, lsl #4
    138c:	0530064a 	ldreq	r0, [r0, #-1610]!	; 0xfffff9b6
    1390:	2e010605 	cfmadd32cs	mvax0, mvfx0, mvfx1, mvfx5
    1394:	0602052e 	streq	r0, [r2], -lr, lsr #10
    1398:	0501064b 	streq	r0, [r1, #-1611]	; 0xfffff9b5
    139c:	0516060e 	ldreq	r0, [r6, #-1550]	; 0xfffff9f2
    13a0:	15131402 	ldrne	r1, [r3, #-1026]	; 0xfffffbfe
    13a4:	010b0515 	tsteq	fp, r5, lsl r5
    13a8:	2e060205 	cdpcs	2, 0, cr0, cr6, cr5, {0}
    13ac:	09053006 	stmdbeq	r5, {r1, r2, ip, sp}
    13b0:	02050106 	andeq	r0, r5, #-2147483647	; 0x80000001
    13b4:	01064c06 	tsteq	r6, r6, lsl #24
    13b8:	38030105 	stmdacc	r3, {r0, r2, r8}
    13bc:	03060501 	movweq	r0, #25857	; 0x6501
    13c0:	02054a6e 	andeq	r4, r5, #450560	; 0x6e000
    13c4:	4a664603 	bmi	1992bd8 <__bss_end__+0x1987bc8>
    13c8:	0604052e 	streq	r0, [r4], -lr, lsr #10
    13cc:	0100c803 	tsteq	r0, r3, lsl #16
    13d0:	06010101 	streq	r0, [r1], -r1, lsl #2
    13d4:	4a06822e 	bmi	1a1c94 <__bss_end__+0x196c84>
    13d8:	052e7203 	streq	r7, [lr, #-515]!	; 0xfffffdfd
    13dc:	05010609 	streq	r0, [r1, #-1545]	; 0xfffff9f7
    13e0:	032f0604 			; <UNDEFINED> instruction: 0x032f0604
    13e4:	0501010d 	streq	r0, [r1, #-269]	; 0xfffffef3
    13e8:	0e051502 	cfsh32eq	mvfx1, mvfx5, #2
    13ec:	017fb203 	cmneq	pc, r3, lsl #4
    13f0:	14130205 	ldrne	r0, [r3], #-517	; 0xfffffdfb
    13f4:	05010805 	streq	r0, [r1, #-2053]	; 0xfffff7fb
    13f8:	1b030609 	blne	c2c24 <__bss_end__+0xb7c14>
    13fc:	03060501 	movweq	r0, #25857	; 0x6501
    1400:	3c032e63 	stccc	14, cr2, [r3], {99}	; 0x63
    1404:	052e2e2e 	streq	r2, [lr, #-3630]!	; 0xfffff1d2
    1408:	b4030648 	strlt	r0, [r3], #-1608	; 0xfffff9b8
    140c:	053c087f 	ldreq	r0, [ip, #-2175]!	; 0xfffff781
    1410:	06011305 	streq	r1, [r1], -r5, lsl #6
    1414:	0402002e 	streq	r0, [r2], #-46	; 0xffffffd2
    1418:	002e0602 	eoreq	r0, lr, r2, lsl #12
    141c:	01020402 	tsteq	r2, r2, lsl #8
    1420:	02040200 	andeq	r0, r4, #0, 4
    1424:	00110513 	andseq	r0, r1, r3, lsl r5
    1428:	06020402 	streq	r0, [r2], -r2, lsl #8
    142c:	00070501 	andeq	r0, r7, r1, lsl #10
    1430:	2f020402 	svccs	0x00020402
    1434:	02001105 	andeq	r1, r0, #1073741825	; 0x40000001
    1438:	052d0204 	streq	r0, [sp, #-516]!	; 0xfffffdfc
    143c:	04020005 	streq	r0, [r2], #-5
    1440:	052f0602 	streq	r0, [pc, #-1538]!	; e46 <__code_start__-0x71ba>
    1444:	04020009 	streq	r0, [r2], #-9
    1448:	0e051302 	cdpeq	3, 0, cr1, cr5, cr2, {0}
    144c:	02040200 	andeq	r0, r4, #0, 4
    1450:	05050106 	streq	r0, [r5, #-262]	; 0xfffffefa
    1454:	01040200 	mrseq	r0, R12_usr
    1458:	02006306 	andeq	r6, r0, #402653184	; 0x18000000
    145c:	05010104 	streq	r0, [r1, #-260]	; 0xfffffefc
    1460:	04020048 	streq	r0, [r2], #-72	; 0xffffffb8
    1464:	05110601 	ldreq	r0, [r1, #-1537]	; 0xfffff9ff
    1468:	04020005 	streq	r0, [r2], #-5
    146c:	48052f01 	stmdami	r5, {r0, r8, r9, sl, fp, sp}
    1470:	01040200 	mrseq	r0, R12_usr
    1474:	0005052d 	andeq	r0, r5, sp, lsr #10
    1478:	2f010402 	svccs	0x00010402
    147c:	01040200 	mrseq	r0, R12_usr
    1480:	0402004a 	streq	r0, [r2], #-74	; 0xffffffb6
    1484:	02004a01 	andeq	r4, r0, #4096	; 0x1000
    1488:	4a060104 	bmi	1818a0 <__bss_end__+0x176890>
    148c:	e1034005 	tst	r3, r5
    1490:	0106d600 	tsteq	r6, r0, lsl #12
    1494:	2e4e0905 	vmlacs.f16	s1, s28, s10	; <UNPREDICTABLE>
    1498:	05300805 	ldreq	r0, [r0, #-2053]!	; 0xfffff7fb
    149c:	1205291e 	andne	r2, r5, #491520	; 0x78000
    14a0:	330d052e 	movwcc	r0, #54574	; 0xd52e
    14a4:	45060205 	strmi	r0, [r6, #-517]	; 0xfffffdfb
    14a8:	05130505 	ldreq	r0, [r3, #-1285]	; 0xfffffafb
    14ac:	05051402 	streq	r1, [r5, #-1026]	; 0xfffffbfe
    14b0:	13020513 	movwne	r0, #9491	; 0x2513
    14b4:	05010805 	streq	r0, [r1, #-2053]	; 0xfffff7fb
    14b8:	7a030640 	bvc	c2dc0 <__bss_end__+0xb7db0>
    14bc:	0d052e01 	stceq	14, cr2, [r5, #-4]
    14c0:	11056634 	tstne	r5, r4, lsr r6
    14c4:	4a4a2003 	bmi	12894d8 <__bss_end__+0x127e4c8>
    14c8:	03060405 	movweq	r0, #25605	; 0x6405
    14cc:	09050162 	stmdbeq	r5, {r1, r5, r6, r8}
    14d0:	0f050106 	svceq	0x00050106
    14d4:	0608052e 	streq	r0, [r8], -lr, lsr #10
    14d8:	060d052c 	streq	r0, [sp], -ip, lsr #10
    14dc:	0603052e 	streq	r0, [r3], -lr, lsr #10
    14e0:	06050567 	streq	r0, [r5], -r7, ror #10
    14e4:	06080501 	streq	r0, [r8], -r1, lsl #10
    14e8:	060e054d 	streq	r0, [lr], -sp, asr #10
    14ec:	2e0a0501 	cfsh32cs	mvfx0, mvfx10, #1
    14f0:	052f0905 	streq	r0, [pc, #-2309]!	; bf3 <__code_start__-0x740d>
    14f4:	052f0604 	streq	r0, [pc, #-1540]!	; ef8 <__code_start__-0x7108>
    14f8:	05010607 	streq	r0, [r1, #-1543]	; 0xfffff9f9
    14fc:	04052c0a 	streq	r2, [r5], #-3082	; 0xfffff3f6
    1500:	2d053206 	sfmcs	f3, 4, [r5, #-24]	; 0xffffffe8
    1504:	7f980306 	svcvc	0x00980306
    1508:	03090501 	movweq	r0, #38145	; 0x9501
    150c:	052e00ed 	streq	r0, [lr, #-237]!	; 0xffffff13
    1510:	07052c0d 	streq	r2, [r5, -sp, lsl #24]
    1514:	0604052b 	streq	r0, [r4], -fp, lsr #10
    1518:	05141330 	ldreq	r1, [r4, #-816]	; 0xfffffcd0
    151c:	0c050109 	stfeqs	f0, [r5], {9}
    1520:	017f9303 	cmneq	pc, r3, lsl #6
    1524:	06011d05 	streq	r1, [r1], -r5, lsl #26
    1528:	03090501 	movweq	r0, #38145	; 0x9501
    152c:	050100ed 	streq	r0, [r1, #-237]	; 0xffffff13
    1530:	052f0605 	streq	r0, [pc, #-1541]!	; f33 <__code_start__-0x70cd>
    1534:	2e010612 	mcrcs	6, 0, r0, cr1, cr2, {0}
    1538:	2f0b052d 	svccs	0x000b052d
    153c:	2f060505 	svccs	0x00060505
    1540:	05100905 	ldreq	r0, [r0, #-2309]	; 0xfffff6fb
    1544:	7f93030c 	svcvc	0x0093030c
    1548:	011d0501 	tsteq	sp, r1, lsl #10
    154c:	01062d05 	tsteq	r6, r5, lsl #26
    1550:	ed030905 	vstr.16	s0, [r3, #-10]
    1554:	04052e00 	streq	r2, [r5], #-3584	; 0xfffff200
    1558:	00014e06 	andeq	r4, r1, r6, lsl #28
    155c:	4a020402 	bmi	8256c <__bss_end__+0x7755c>
    1560:	02040200 	andeq	r0, r4, #0, 4
    1564:	04020001 	streq	r0, [r2], #-1
    1568:	02001502 	andeq	r1, r0, #8388608	; 0x800000
    156c:	02060204 	andeq	r0, r6, #4, 4	; 0x40000000
    1570:	02001236 	andeq	r1, r0, #1610612739	; 0x60000003
    1574:	052e0204 	streq	r0, [lr, #-516]!	; 0xfffffdfc
    1578:	d1030602 	tstle	r3, r2, lsl #12
    157c:	07050100 	streq	r0, [r5, -r0, lsl #2]
    1580:	052e0106 	streq	r0, [lr, #-262]!	; 0xfffffefa
    1584:	052f0602 	streq	r0, [pc, #-1538]!	; f8a <__code_start__-0x7076>
    1588:	0501060b 	streq	r0, [r1, #-1547]	; 0xfffff9f5
    158c:	05052f01 	streq	r2, [r5, #-3841]	; 0xfffff0ff
    1590:	4a650306 	bmi	19421b0 <__bss_end__+0x19371a0>
    1594:	01060905 	tsteq	r6, r5, lsl #18
    1598:	06050566 	streq	r0, [r5], -r6, ror #10
    159c:	0304059f 	movweq	r0, #17823	; 0x459f
    15a0:	07050111 	smladeq	r5, r1, r1, r0
    15a4:	04050106 	streq	r0, [r5], #-262	; 0xfffffefa
    15a8:	0a053106 	beq	14d9c8 <__bss_end__+0x1429b8>
    15ac:	00130501 	andseq	r0, r3, r1, lsl #10
    15b0:	06010402 	streq	r0, [r1], -r2, lsl #8
    15b4:	0010052e 	andseq	r0, r0, lr, lsr #10
    15b8:	2e010402 	cdpcs	4, 0, cr0, cr1, cr2, {0}
    15bc:	4b060505 	blmi	1829d8 <__bss_end__+0x1779c8>
    15c0:	01060a05 	tsteq	r6, r5, lsl #20
    15c4:	04052d06 	streq	r2, [r5], #-3334	; 0xfffff2fa
    15c8:	11050106 	tstne	r5, r6, lsl #2
    15cc:	7fb60306 	svcvc	0x00b60306
    15d0:	00011366 	andeq	r1, r1, r6, ror #6
    15d4:	06020402 	streq	r0, [r2], -r2, lsl #8
    15d8:	01ba06ba 			; <UNDEFINED> instruction: 0x01ba06ba
    15dc:	061a0514 			; <UNDEFINED> instruction: 0x061a0514
    15e0:	052e2e13 	streq	r2, [lr, #-3603]!	; 0xfffff1ed
    15e4:	05674e11 	strbeq	r4, [r7, #-3601]!	; 0xfffff1ef
    15e8:	13056814 	movwne	r6, #22548	; 0x5814
    15ec:	03150582 	tsteq	r5, #545259520	; 0x20800000
    15f0:	11054a78 	tstne	r5, r8, ror sl
    15f4:	13134b06 	tstne	r3, #6144	; 0x1800
    15f8:	05141314 	ldreq	r1, [r4, #-788]	; 0xfffffcec
    15fc:	05010613 	streq	r0, [r1, #-1555]	; 0xfffff9ed
    1600:	052f0609 	streq	r0, [pc, #-1545]!	; fff <__code_start__-0x7001>
    1604:	2e01060d 	cfmadd32cs	mvax0, mvfx0, mvfx1, mvfx13
    1608:	bb09052e 	bllt	242ac8 <__bss_end__+0x237ab8>
    160c:	059d0d05 	ldreq	r0, [sp, #3333]	; 0xd05
    1610:	052f0609 	streq	r0, [pc, #-1545]!	; 100f <__code_start__-0x6ff1>
    1614:	03062f15 	movweq	r2, #28437	; 0x6f15
    1618:	0b034a75 	bleq	d3ff4 <__bss_end__+0xc8fe4>
    161c:	05054a2e 	streq	r4, [r5, #-2606]	; 0xfffff5d2
    1620:	01230306 			; <UNDEFINED> instruction: 0x01230306
    1624:	01060905 	tsteq	r6, r5, lsl #18
    1628:	0605052e 	streq	r0, [r5], -lr, lsr #10
    162c:	2e6e03d7 	mcrcs	3, 3, r0, cr14, cr7, {6}
    1630:	05010e03 	streq	r0, [r1, #-3587]	; 0xfffff1fd
    1634:	05010609 	streq	r0, [r1, #-1545]	; 0xfffff9f7
    1638:	10030605 	andne	r0, r3, r5, lsl #12
    163c:	0301054a 	movweq	r0, #5450	; 0x154a
    1640:	05017eed 	streq	r7, [r1, #-3821]	; 0xfffff113
    1644:	13151402 	tstne	r5, #33554432	; 0x2000000
    1648:	03040514 	movweq	r0, #17684	; 0x4514
    164c:	0905011a 	stmdbeq	r5, {r1, r3, r4, r8}
    1650:	02050106 	andeq	r0, r5, #-2147483647	; 0x80000001
    1654:	052e4603 	streq	r4, [lr, #-1539]!	; 0xfffff9fd
    1658:	2e3a0309 	cdpcs	3, 3, cr0, cr10, cr9, {0}
    165c:	2f060405 	svccs	0x00060405
    1660:	01010d03 	tsteq	r1, r3, lsl #26
    1664:	05150205 	ldreq	r0, [r5, #-517]	; 0xfffffdfb
    1668:	7fb2030e 	svcvc	0x00b2030e
    166c:	13020501 	movwne	r0, #9473	; 0x2501
    1670:	01080514 	tsteq	r8, r4, lsl r5
    1674:	01060205 	tsteq	r6, r5, lsl #4
    1678:	059f0805 	ldreq	r0, [pc, #2053]	; 1e85 <__code_start__-0x617b>
    167c:	064a0603 	strbeq	r0, [sl], -r3, lsl #12
    1680:	2e080501 	cfsh32cs	mvfx0, mvfx8, #1
    1684:	2d061505 	cfstr32cs	mvfx1, [r6, #-20]	; 0xffffffec
    1688:	05010805 	streq	r0, [r1, #-2053]	; 0xfffff7fb
    168c:	01062f03 	tsteq	r6, r3, lsl #30
    1690:	052e0805 	streq	r0, [lr, #-2053]!	; 0xfffff7fb
    1694:	052d0615 	streq	r0, [sp, #-1557]!	; 0xfffff9eb
    1698:	03050108 	movweq	r0, #20744	; 0x5108
    169c:	0501062f 	streq	r0, [r1, #-1583]	; 0xfffff9d1
    16a0:	15052e08 	strne	r2, [r5, #-3592]	; 0xfffff1f8
    16a4:	08052d06 	stmdaeq	r5, {r1, r2, r8, sl, fp, sp}
    16a8:	2f030501 	svccs	0x00030501
    16ac:	08050106 	stmdaeq	r5, {r1, r2, r8}
    16b0:	0615052e 	ldreq	r0, [r5], -lr, lsr #10
    16b4:	0108052d 	tsteq	r8, sp, lsr #10
    16b8:	062f0305 	strteq	r0, [pc], -r5, lsl #6
    16bc:	2e080501 	cfsh32cs	mvfx0, mvfx8, #1
    16c0:	2d061505 	cfstr32cs	mvfx1, [r6, #-20]	; 0xffffffec
    16c4:	05010805 	streq	r0, [r1, #-2053]	; 0xfffff7fb
    16c8:	01062f03 	tsteq	r6, r3, lsl #30
    16cc:	052e0805 	streq	r0, [lr, #-2053]!	; 0xfffff7fb
    16d0:	052d0615 	streq	r0, [sp, #-1557]!	; 0xfffff9eb
    16d4:	03050108 	movweq	r0, #20744	; 0x5108
    16d8:	06080513 			; <UNDEFINED> instruction: 0x06080513
    16dc:	06150501 	ldreq	r0, [r5], -r1, lsl #10
    16e0:	0108052d 	tsteq	r8, sp, lsr #10
    16e4:	03056606 	movweq	r6, #22022	; 0x5606
    16e8:	08056706 	stmdaeq	r5, {r1, r2, r8, r9, sl, sp, lr}
    16ec:	18050106 	stmdane	r5, {r1, r2, r8}
    16f0:	2e02052d 	cfsh32cs	mvfx0, mvfx2, #29
    16f4:	052f0805 	streq	r0, [pc, #-2053]!	; ef7 <__code_start__-0x7109>
    16f8:	052d0615 	streq	r0, [sp, #-1557]!	; 0xfffff9eb
    16fc:	02050108 	andeq	r0, r5, #2
    1700:	03050106 	movweq	r0, #20742	; 0x5106
    1704:	18052f06 	stmdane	r5, {r1, r2, r8, r9, sl, fp, sp}
    1708:	02051106 	andeq	r1, r5, #-2147483647	; 0x80000001
    170c:	2f08052e 	svccs	0x0008052e
    1710:	2d061505 	cfstr32cs	mvfx1, [r6, #-20]	; 0xffffffec
    1714:	05010805 	streq	r0, [r1, #-2053]	; 0xfffff7fb
    1718:	08051303 	stmdaeq	r5, {r0, r1, r8, r9, ip}
    171c:	15050106 	strne	r0, [r5, #-262]	; 0xfffffefa
    1720:	08052d06 	stmdaeq	r5, {r1, r2, r8, sl, fp, sp}
    1724:	06050501 	streq	r0, [r5], -r1, lsl #10
    1728:	02054a14 	andeq	r4, r5, #20, 20	; 0x14000
    172c:	0e052e06 	cdpeq	14, 0, cr2, cr5, cr6, {0}
    1730:	04051906 	streq	r1, [r5], #-2310	; 0xfffff6fa
    1734:	2f11052f 	svccs	0x0011052f
    1738:	054a0905 	strbeq	r0, [sl, #-2309]	; 0xfffff6fb
    173c:	05053302 	streq	r3, [r5, #-770]	; 0xfffffcfe
    1740:	052e7203 	streq	r7, [lr, #-515]!	; 0xfffffdfd
    1744:	062f0602 	strteq	r0, [pc], -r2, lsl #12
    1748:	060e0501 	streq	r0, [lr], -r1, lsl #10
    174c:	14020516 	strne	r0, [r2], #-1302	; 0xfffffaea
    1750:	13030513 	movwne	r0, #13587	; 0x3513
    1754:	15140205 	ldrne	r0, [r4, #-517]	; 0xfffffdfb
    1758:	05010b05 	streq	r0, [r1, #-2821]	; 0xfffff4fb
    175c:	2e010602 	cfmadd32cs	mvax0, mvfx0, mvfx1, mvfx2
    1760:	06030566 	streq	r0, [r3], -r6, ror #10
    1764:	060a052f 	streq	r0, [sl], -pc, lsr #10
    1768:	2d020501 	cfstr32cs	mvfx0, [r2, #-4]
    176c:	052f0a05 	streq	r0, [pc, #-2565]!	; d6f <__code_start__-0x7291>
    1770:	052d0617 	streq	r0, [sp, #-1559]!	; 0xfffff9e9
    1774:	0205010b 	andeq	r0, r5, #-1073741822	; 0xc0000002
    1778:	4a4a0106 	bmi	1281b98 <__bss_end__+0x1276b88>
    177c:	03060505 	movweq	r0, #25861	; 0x6505
    1780:	05010195 	streq	r0, [r1, #-405]	; 0xfffffe6b
    1784:	f8030611 			; <UNDEFINED> instruction: 0xf8030611
    1788:	1b05017e 	blne	141d88 <__bss_end__+0x136d78>
    178c:	4a018803 	bmi	637a0 <__bss_end__+0x58790>
    1790:	03060105 	movweq	r0, #24837	; 0x6105
    1794:	052e7ef3 	streq	r7, [lr, #-3827]!	; 0xfffff10d
    1798:	13151402 	tstne	r5, #33554432	; 0x2000000
    179c:	03190514 	tsteq	r9, #20, 10	; 0x5000000
    17a0:	1a050122 	bne	141c30 <__bss_end__+0x136c20>
    17a4:	06280513 			; <UNDEFINED> instruction: 0x06280513
    17a8:	2e1f0501 	cfmul32cs	mvfx0, mvfx15, mvfx1
    17ac:	052f0405 	streq	r0, [pc, #-1029]!	; 13af <__code_start__-0x6c51>
    17b0:	1f054a0e 	svcne	0x00054a0e
    17b4:	060b052d 	streq	r0, [fp], -sp, lsr #10
    17b8:	0604052f 	streq	r0, [r4], -pc, lsr #10
    17bc:	01320601 	teqeq	r2, r1, lsl #12
    17c0:	05150205 	ldreq	r0, [r5, #-517]	; 0xfffffdfb
    17c4:	7fb2030e 	svcvc	0x00b2030e
    17c8:	13020501 	movwne	r0, #9473	; 0x2501
    17cc:	01060605 	tsteq	r6, r5, lsl #12
    17d0:	30060205 	andcc	r0, r6, r5, lsl #4
    17d4:	05010805 	streq	r0, [r1, #-2053]	; 0xfffff7fb
    17d8:	05010602 	streq	r0, [r1, #-1538]	; 0xfffff9fe
    17dc:	21080603 	tstcs	r8, r3, lsl #12
    17e0:	01060805 	tsteq	r6, r5, lsl #16
    17e4:	49061505 	stmdbmi	r6, {r0, r2, r8, sl, ip}
    17e8:	05010805 	streq	r0, [r1, #-2053]	; 0xfffff7fb
    17ec:	0805d703 	stmdaeq	r5, {r0, r1, r8, r9, sl, ip, lr, pc}
    17f0:	18050106 	stmdane	r5, {r1, r2, r8}
    17f4:	2e02052d 	cfsh32cs	mvfx0, mvfx2, #29
    17f8:	052f0805 	streq	r0, [pc, #-2053]!	; ffb <__code_start__-0x7005>
    17fc:	052d0615 	streq	r0, [sp, #-1557]!	; 0xfffff9eb
    1800:	02050108 	andeq	r0, r5, #2
    1804:	03050106 	movweq	r0, #20742	; 0x5106
    1808:	18052f06 	stmdane	r5, {r1, r2, r8, r9, sl, fp, sp}
    180c:	02051106 	andeq	r1, r5, #-2147483647	; 0x80000001
    1810:	2f08052e 	svccs	0x0008052e
    1814:	2d061505 	cfstr32cs	mvfx1, [r6, #-20]	; 0xffffffec
    1818:	05010805 	streq	r0, [r1, #-2053]	; 0xfffff7fb
    181c:	08051303 	stmdaeq	r5, {r0, r1, r8, r9, ip}
    1820:	15050106 	strne	r0, [r5, #-262]	; 0xfffffefa
    1824:	08052d06 	stmdaeq	r5, {r1, r2, r8, sl, fp, sp}
    1828:	06050501 	streq	r0, [r5], -r1, lsl #10
    182c:	06020514 			; <UNDEFINED> instruction: 0x06020514
    1830:	06040566 	streq	r0, [r4], -r6, ror #10
    1834:	0305051a 	movweq	r0, #21786	; 0x551a
    1838:	02054a78 	andeq	r4, r5, #120, 20	; 0x78000
    183c:	01062f06 	tsteq	r6, r6, lsl #30
    1840:	16060e05 	strne	r0, [r6], -r5, lsl #28
    1844:	13140205 	tstne	r4, #1342177280	; 0x50000000
    1848:	01060405 	tsteq	r6, r5, lsl #8
    184c:	2f060305 	svccs	0x00060305
    1850:	01061105 	tsteq	r6, r5, lsl #2
    1854:	052e0905 	streq	r0, [lr, #-2309]!	; 0xfffff6fb
    1858:	15300602 	ldrne	r0, [r0, #-1538]!	; 0xfffff9fe
    185c:	05010b05 	streq	r0, [r1, #-2821]	; 0xfffff4fb
    1860:	4a010602 	bmi	43070 <__bss_end__+0x38060>
    1864:	03052e4a 	movweq	r2, #24138	; 0x5e4a
    1868:	0a052f06 	beq	14d488 <__bss_end__+0x142478>
    186c:	02050106 	andeq	r0, r5, #-2147483647	; 0x80000001
    1870:	2f0a052d 	svccs	0x000a052d
    1874:	2d061705 	stccs	7, cr1, [r6, #-20]	; 0xffffffec
    1878:	05010b05 	streq	r0, [r1, #-2821]	; 0xfffff4fb
    187c:	4a010602 	bmi	4308c <__bss_end__+0x3807c>
    1880:	0514062e 	ldreq	r0, [r4, #-1582]	; 0xfffff9d2
    1884:	05010609 	streq	r0, [r1, #-1545]	; 0xfffff9f7
    1888:	064c0602 	strbeq	r0, [ip], -r2, lsl #12
    188c:	06050501 	streq	r0, [r5], -r1, lsl #10
    1890:	01019803 	tsteq	r1, r3, lsl #16
    1894:	0607052a 	streq	r0, [r7], -sl, lsr #10
    1898:	06050501 	streq	r0, [r5], -r1, lsl #10
    189c:	0318052f 	tsteq	r8, #197132288	; 0xbc00000
    18a0:	1b052e53 	blne	14d1f4 <__bss_end__+0x1421e4>
    18a4:	1a050106 	bne	141cc4 <__bss_end__+0x136cb4>
    18a8:	06090582 	streq	r0, [r9], -r2, lsl #11
    18ac:	060d054b 	streq	r0, [sp], -fp, asr #10
    18b0:	09052e01 	stmdbeq	r5, {r0, r9, sl, fp, sp}
    18b4:	9d0d05d7 	cfstr32ls	mvfx0, [sp, #-860]	; 0xfffffca4
    18b8:	2f060905 	svccs	0x00060905
    18bc:	05301505 	ldreq	r1, [r0, #-1285]!	; 0xfffffafb
    18c0:	05010618 	streq	r0, [r1, #-1560]	; 0xfffff9e8
    18c4:	19056617 	stmdbne	r5, {r0, r1, r2, r4, r9, sl, sp, lr}
    18c8:	4917052f 	ldmdbmi	r7, {r0, r1, r2, r3, r5, r8, sl}
    18cc:	2f061905 	svccs	0x00061905
    18d0:	03061505 	movweq	r1, #25861	; 0x6505
    18d4:	19052e6f 	stmdbne	r5, {r0, r1, r2, r3, r5, r6, r9, sl, fp, sp}
    18d8:	4a130306 	bmi	4c24f8 <__bss_end__+0x4b74e8>
    18dc:	03061505 	movweq	r1, #25861	; 0x6505
    18e0:	054a2e6d 	strbeq	r2, [sl, #-3693]	; 0xfffff193
    18e4:	7fa00302 	svcvc	0x00a00302
    18e8:	03066601 	movweq	r6, #26113	; 0x6601
    18ec:	05050172 	streq	r0, [r5, #-370]	; 0xfffffe8e
    18f0:	04050106 	streq	r0, [r5], #-262	; 0xfffffefa
    18f4:	03050536 	movweq	r0, #21814	; 0x5536
    18f8:	02052e78 	andeq	r2, r5, #120, 28	; 0x780
    18fc:	01062f06 	tsteq	r6, r6, lsl #30
    1900:	16060e05 	strne	r0, [r6], -r5, lsl #28
    1904:	13140205 	tstne	r4, #1342177280	; 0x50000000
    1908:	01060405 	tsteq	r6, r5, lsl #8
    190c:	0602054a 	streq	r0, [r2], -sl, asr #10
    1910:	05017803 	streq	r7, [r1, #-2051]	; 0xfffff7fd
    1914:	4a010605 	bmi	43130 <__bss_end__+0x38120>
    1918:	4b060205 	blmi	182134 <__bss_end__+0x177124>
    191c:	0e050106 	adfeqs	f0, f5, f6
    1920:	02051606 	andeq	r1, r5, #6291456	; 0x600000
    1924:	15151314 	ldrne	r1, [r5, #-788]	; 0xfffffcec
    1928:	06010b05 	streq	r0, [r1], -r5, lsl #22
    192c:	0611052e 	ldreq	r0, [r1], -lr, lsr #10
    1930:	01019e03 	tsteq	r1, r3, lsl #28
    1934:	01062205 	tsteq	r6, r5, lsl #4
    1938:	052f0505 	streq	r0, [pc, #-1285]!	; 143b <__code_start__-0x6bc5>
    193c:	05052d22 	streq	r2, [r5, #-3362]	; 0xfffff2de
    1940:	11052f06 	tstne	r5, r6, lsl #30
    1944:	8305054b 	movwhi	r0, #21835	; 0x554b
    1948:	5c039e01 	stcpl	14, cr9, [r3], {1}
    194c:	059e012e 	ldreq	r0, [lr, #302]	; 0x12e
    1950:	f3030602 	vmax.u8	d0, d3, d2
    1954:	052e2e7e 	streq	r2, [lr, #-3710]!	; 0xfffff182
    1958:	054a2c06 	strbeq	r2, [sl, #-3078]	; 0xfffff3fa
    195c:	00d8030d 	sbcseq	r0, r8, sp, lsl #6
    1960:	00040501 	andeq	r0, r4, r1, lsl #10
    1964:	06010402 	streq	r0, [r1], -r2, lsl #8
    1968:	004a1103 	subeq	r1, sl, r3, lsl #2
    196c:	01010402 	tsteq	r1, r2, lsl #8
    1970:	51061105 	tstpl	r6, r5, lsl #2
    1974:	15059e06 	strne	r9, [r5, #-3590]	; 0xfffff1fa
    1978:	012e1703 			; <UNDEFINED> instruction: 0x012e1703
    197c:	031105ba 	tsteq	r1, #780140544	; 0x2e800000
    1980:	02012e69 	andeq	r2, r1, #1680	; 0x690
    1984:	01010028 	tsteq	r1, r8, lsr #32
    1988:	00000087 	andeq	r0, r0, r7, lsl #1
    198c:	00640003 	rsbeq	r0, r4, r3
    1990:	01020000 	mrseq	r0, (UNDEF: 2)
    1994:	000d0efb 	strdeq	r0, [sp], -fp
    1998:	01010101 	tsteq	r1, r1, lsl #2
    199c:	01000000 	mrseq	r0, (UNDEF: 0)
    19a0:	2e010000 	cdpcs	0, 0, cr0, cr1, cr0, {0}
    19a4:	6174732f 	cmnvs	r4, pc, lsr #6
    19a8:	732d6666 			; <UNDEFINED> instruction: 0x732d6666
    19ac:	2f006372 	svccs	0x00006372
    19b0:	72657355 	rsbvc	r7, r5, #1409286145	; 0x54000001
    19b4:	696d2f73 	stmdbvs	sp!, {r0, r1, r4, r5, r6, r8, r9, sl, fp, sp}^
    19b8:	2f73656c 	svccs	0x0073656c
    19bc:	72756f53 	rsbsvc	r6, r5, #332	; 0x14c
    19c0:	632f6563 			; <UNDEFINED> instruction: 0x632f6563
    19c4:	30343273 	eorscc	r3, r4, r3, ror r2
    19c8:	6c2f786c 	stcvs	8, cr7, [pc], #-432	; 1820 <__code_start__-0x67e0>
    19cc:	69706269 	ldmdbvs	r0!, {r0, r3, r5, r6, r9, sp, lr}^
    19d0:	636e692f 	cmnvs	lr, #770048	; 0xbc000
    19d4:	6564756c 	strbvs	r7, [r4, #-1388]!	; 0xfffffa94
    19d8:	6c630000 	stclvs	0, cr0, [r3], #-0
    19dc:	2d6e6165 	stfcse	f6, [lr, #-404]!	; 0xfffffe6c
    19e0:	6f626572 	svcvs	0x00626572
    19e4:	632e746f 			; <UNDEFINED> instruction: 0x632e746f
    19e8:	00000100 	andeq	r0, r0, r0, lsl #2
    19ec:	2e697072 	mcrcs	0, 3, r7, cr9, cr2, {3}
    19f0:	00020068 	andeq	r0, r2, r8, rrx
    19f4:	19050000 	stmdbne	r5, {}	; <UNPREDICTABLE>
    19f8:	e4020500 	str	r0, [r2], #-1280	; 0xfffffb00
    19fc:	15000097 	strne	r0, [r0, #-151]	; 0xffffff69
    1a00:	05130505 	ldreq	r0, [r3, #-1285]	; 0xfffffafb
    1a04:	052d0619 	streq	r0, [sp, #-1561]!	; 0xfffff9e7
    1a08:	67062f05 	strvs	r2, [r6, -r5, lsl #30]
    1a0c:	06024b2f 	streq	r4, [r2], -pc, lsr #22
    1a10:	12010100 	andne	r0, r1, #0
    1a14:	03000001 	movweq	r0, #1
    1a18:	00005e00 	andeq	r5, r0, r0, lsl #28
    1a1c:	fb010200 	blx	42226 <__bss_end__+0x37216>
    1a20:	01000d0e 	tsteq	r0, lr, lsl #26
    1a24:	00010101 	andeq	r0, r1, r1, lsl #2
    1a28:	00010000 	andeq	r0, r1, r0
    1a2c:	2f2e0100 	svccs	0x002e0100
    1a30:	66617473 			; <UNDEFINED> instruction: 0x66617473
    1a34:	72732d66 	rsbsvc	r2, r3, #6528	; 0x1980
    1a38:	552f0063 	strpl	r0, [pc, #-99]!	; 19dd <__code_start__-0x6623>
    1a3c:	73726573 	cmnvc	r2, #482344960	; 0x1cc00000
    1a40:	6c696d2f 	stclvs	13, cr6, [r9], #-188	; 0xffffff44
    1a44:	532f7365 			; <UNDEFINED> instruction: 0x532f7365
    1a48:	6372756f 	cmnvs	r2, #465567744	; 0x1bc00000
    1a4c:	73632f65 	cmnvc	r3, #404	; 0x194
    1a50:	6c303432 	cfldrsvs	mvf3, [r0], #-200	; 0xffffff38
    1a54:	696c2f78 	stmdbvs	ip!, {r3, r4, r5, r6, r8, r9, sl, fp, sp}^
    1a58:	2f697062 	svccs	0x00697062
    1a5c:	6c636e69 	stclvs	14, cr6, [r3], #-420	; 0xfffffe5c
    1a60:	00656475 	rsbeq	r6, r5, r5, ror r4
    1a64:	74736300 	ldrbtvc	r6, [r3], #-768	; 0xfffffd00
    1a68:	2e747261 	cdpcs	2, 7, cr7, cr4, cr1, {3}
    1a6c:	00010063 	andeq	r0, r1, r3, rrx
    1a70:	69707200 	ldmdbvs	r0!, {r9, ip, sp, lr}^
    1a74:	0200682e 	andeq	r6, r0, #3014656	; 0x2e0000
    1a78:	05000000 	streq	r0, [r0, #-0]
    1a7c:	02050010 	andeq	r0, r5, #16, 0
    1a80:	00009810 	andeq	r9, r0, r0, lsl r8
    1a84:	13050515 	movwne	r0, #21781	; 0x5515
    1a88:	05130205 	ldreq	r0, [r3, #-517]	; 0xfffffdfb
    1a8c:	10051405 	andne	r1, r5, r5, lsl #8
    1a90:	05050e06 	streq	r0, [r5, #-3590]	; 0xfffff1fa
    1a94:	13300632 	teqne	r0, #52428800	; 0x3200000
    1a98:	010a0514 	tsteq	sl, r4, lsl r5
    1a9c:	91080905 	tstls	r8, r5, lsl #18
    1aa0:	01061005 	tsteq	r6, r5
    1aa4:	059a0a05 	ldreq	r0, [sl, #2565]	; 0xa05
    1aa8:	0a056a10 	beq	15c2f0 <__bss_end__+0x1512e0>
    1aac:	09052d06 	stmdbeq	r5, {r1, r2, r8, sl, fp, sp}
    1ab0:	0610052f 	ldreq	r0, [r0], -pc, lsr #10
    1ab4:	060a0501 	streq	r0, [sl], -r1, lsl #10
    1ab8:	bb09052d 	bllt	242f74 <__bss_end__+0x237f64>
    1abc:	01061005 	tsteq	r6, r5
    1ac0:	65060a05 	strvs	r0, [r6, #-2565]	; 0xfffff5fb
    1ac4:	054b0905 	strbeq	r0, [fp, #-2309]	; 0xfffff6fb
    1ac8:	0501060d 	streq	r0, [r1, #-1549]	; 0xfffff9f3
    1acc:	10052d0a 	andne	r2, r5, sl, lsl #26
    1ad0:	060a052f 	streq	r0, [sl], -pc, lsr #10
    1ad4:	2f09052d 	svccs	0x0009052d
    1ad8:	01060d05 	tsteq	r6, r5, lsl #26
    1adc:	052d0a05 	streq	r0, [sp, #-2565]!	; 0xfffff5fb
    1ae0:	0a052f10 	beq	14d728 <__bss_end__+0x142718>
    1ae4:	09052d06 	stmdbeq	r5, {r1, r2, r8, sl, fp, sp}
    1ae8:	060d052f 	streq	r0, [sp], -pc, lsr #10
    1aec:	2d0a0501 	cfstr32cs	mvfx0, [sl, #-4]
    1af0:	052f1005 	streq	r1, [pc, #-5]!	; 1af3 <__code_start__-0x650d>
    1af4:	052d060a 	streq	r0, [sp, #-1546]!	; 0xfffff9f6
    1af8:	0d052f09 	stceq	15, cr2, [r5, #-36]	; 0xffffffdc
    1afc:	0a050106 	beq	141f1c <__bss_end__+0x136f0c>
    1b00:	2f10052d 	svccs	0x0010052d
    1b04:	2d060a05 	vstrcs	s0, [r6, #-20]	; 0xffffffec
    1b08:	05130905 	ldreq	r0, [r3, #-2309]	; 0xfffff6fb
    1b0c:	05010610 	streq	r0, [r1, #-1552]	; 0xfffff9f0
    1b10:	052d060a 	streq	r0, [sp, #-1546]!	; 0xfffff9f6
    1b14:	01321505 	teqeq	r2, r5, lsl #10
    1b18:	05144a01 	ldreq	r4, [r4, #-2561]	; 0xfffff5ff
    1b1c:	0a052f02 	beq	14d72c <__bss_end__+0x14271c>
    1b20:	2e730306 	cdpcs	3, 7, cr0, cr3, cr6, {0}
    1b24:	01000802 	tsteq	r0, r2, lsl #16
    1b28:	00007d01 	andeq	r7, r0, r1, lsl #26
    1b2c:	65000300 	strvs	r0, [r0, #-768]	; 0xfffffd00
    1b30:	02000000 	andeq	r0, r0, #0, 0
    1b34:	0d0efb01 	vstreq	d15, [lr, #-4]
    1b38:	01010100 	mrseq	r0, (UNDEF: 17)
    1b3c:	00000001 	andeq	r0, r0, r1
    1b40:	01000001 	tsteq	r0, r1
    1b44:	74732f2e 	ldrbtvc	r2, [r3], #-3886	; 0xfffff0d2
    1b48:	2d666661 	stclcs	6, cr6, [r6, #-388]!	; 0xfffffe7c
    1b4c:	00637273 	rsbeq	r7, r3, r3, ror r2
    1b50:	6573552f 	ldrbvs	r5, [r3, #-1327]!	; 0xfffffad1
    1b54:	6d2f7372 	stcvs	3, cr7, [pc, #-456]!	; 1994 <__code_start__-0x666c>
    1b58:	73656c69 	cmnvc	r5, #26880	; 0x6900
    1b5c:	756f532f 	strbvc	r5, [pc, #-815]!	; 1835 <__code_start__-0x67cb>
    1b60:	2f656372 	svccs	0x00656372
    1b64:	34327363 	ldrtcc	r7, [r2], #-867	; 0xfffffc9d
    1b68:	2f786c30 	svccs	0x00786c30
    1b6c:	7062696c 	rsbvc	r6, r2, ip, ror #18
    1b70:	6e692f69 	cdpvs	15, 6, cr2, cr9, cr9, {3}
    1b74:	64756c63 	ldrbtvs	r6, [r5], #-3171	; 0xfffff39d
    1b78:	63000065 	movwvs	r0, #101	; 0x65
    1b7c:	6f747375 	svcvs	0x00747375
    1b80:	6f6c2d6d 	svcvs	0x006c2d6d
    1b84:	72656461 	rsbvc	r6, r5, #1627389952	; 0x61000000
    1b88:	0100632e 	tsteq	r0, lr, lsr #6
    1b8c:	70720000 	rsbsvc	r0, r2, r0
    1b90:	00682e69 	rsbeq	r2, r8, r9, ror #28
    1b94:	00000002 	andeq	r0, r0, r2
    1b98:	05001a05 	streq	r1, [r0, #-2565]	; 0xfffff5fb
    1b9c:	00990802 	addseq	r0, r9, r2, lsl #16
    1ba0:	01051500 	tsteq	r5, r0, lsl #10
    1ba4:	00020214 	andeq	r0, r2, r4, lsl r2
    1ba8:	01140101 	tsteq	r4, r1, lsl #2
    1bac:	00030000 	andeq	r0, r3, r0
    1bb0:	0000005e 	andeq	r0, r0, lr, asr r0
    1bb4:	0efb0102 	cdpeq	1, 15, cr0, cr11, cr2, {0}
    1bb8:	0101000d 	tsteq	r1, sp
    1bbc:	00000101 	andeq	r0, r0, r1, lsl #2
    1bc0:	00000100 	andeq	r0, r0, r0, lsl #2
    1bc4:	732f2e01 			; <UNDEFINED> instruction: 0x732f2e01
    1bc8:	66666174 			; <UNDEFINED> instruction: 0x66666174
    1bcc:	6372732d 	cmnvs	r2, #-1275068416	; 0xb4000000
    1bd0:	73552f00 	cmpvc	r5, #0, 30
    1bd4:	2f737265 	svccs	0x00737265
    1bd8:	656c696d 	strbvs	r6, [ip, #-2413]!	; 0xfffff693
    1bdc:	6f532f73 	svcvs	0x00532f73
    1be0:	65637275 	strbvs	r7, [r3, #-629]!	; 0xfffffd8b
    1be4:	3273632f 	rsbscc	r6, r3, #-1140850688	; 0xbc000000
    1be8:	786c3034 	stmdavc	ip!, {r2, r4, r5, ip, sp}^
    1bec:	62696c2f 	rsbvs	r6, r9, #12032	; 0x2f00
    1bf0:	692f6970 	stmdbvs	pc!, {r4, r5, r6, r8, fp, sp, lr}	; <UNPREDICTABLE>
    1bf4:	756c636e 	strbvc	r6, [ip, #-878]!	; 0xfffffc92
    1bf8:	00006564 	andeq	r6, r0, r4, ror #10
    1bfc:	6f626572 	svcvs	0x00626572
    1c00:	632e746f 			; <UNDEFINED> instruction: 0x632e746f
    1c04:	00000100 	andeq	r0, r0, r0, lsl #2
    1c08:	2e697072 	mcrcs	0, 3, r7, cr9, cr2, {3}
    1c0c:	00020068 	andeq	r0, r2, r8, rrx
    1c10:	19050000 	stmdbne	r5, {}	; <UNPREDICTABLE>
    1c14:	0c020500 	cfstr32eq	mvfx0, [r2], {-0}
    1c18:	03000099 	movweq	r0, #153	; 0x99
    1c1c:	0505010d 	streq	r0, [r5, #-269]	; 0xfffffef3
    1c20:	05311313 	ldreq	r1, [r1, #-787]!	; 0xfffffced
    1c24:	05010613 	streq	r0, [r1, #-1555]	; 0xfffff9ed
    1c28:	1b052f01 	blne	14d834 <__bss_end__+0x142824>
    1c2c:	05058506 	streq	r8, [r5, #-1286]	; 0xfffffafa
    1c30:	09051413 	stmdbeq	r5, {r0, r1, r4, sl, ip}
    1c34:	0616052f 	ldreq	r0, [r6], -pc, lsr #10
    1c38:	06050501 	streq	r0, [r5], -r1, lsl #10
    1c3c:	060e052f 	streq	r0, [lr], -pc, lsr #10
    1c40:	2f050511 	svccs	0x00050511
    1c44:	052f0105 	streq	r0, [pc, #-261]!	; 1b47 <__code_start__-0x64b9>
    1c48:	05300617 	ldreq	r0, [r0, #-1559]!	; 0xfffff9e9
    1c4c:	6e031305 	cdpvs	3, 0, cr1, cr3, cr5, {0}
    1c50:	05131301 	ldreq	r1, [r3, #-769]	; 0xfffffcff
    1c54:	0f030617 	svceq	0x00030617
    1c58:	03050501 	movweq	r0, #21761	; 0x5501
    1c5c:	31062e71 	tstcc	r6, r1, ror lr
    1c60:	01061305 	tsteq	r6, r5, lsl #6
    1c64:	0d030705 	stceq	7, cr0, [r3, #-20]	; 0xffffffec
    1c68:	0609052e 	streq	r0, [r9], -lr, lsr #10
    1c6c:	0306054b 	movweq	r0, #25931	; 0x654b
    1c70:	05050176 	streq	r0, [r5, #-374]	; 0xfffffe8a
    1c74:	09051413 	stmdbeq	r5, {r0, r1, r4, sl, ip}
    1c78:	0616052f 	ldreq	r0, [r6], -pc, lsr #10
    1c7c:	06050501 	streq	r0, [r5], -r1, lsl #10
    1c80:	060e052f 	streq	r0, [lr], -pc, lsr #10
    1c84:	2f050511 	svccs	0x00050511
    1c88:	0a03062e 	beq	c3548 <__bss_end__+0xb8538>
    1c8c:	4d2f3001 	stcmi	0, cr3, [pc, #-4]!	; 1c90 <__code_start__-0x6370>
    1c90:	15131313 	ldrne	r1, [r3, #-787]	; 0xfffffced
    1c94:	04020067 	streq	r0, [r2], #-103	; 0xffffff99
    1c98:	0d056701 	stceq	7, cr6, [r5, #-4]
    1c9c:	01040200 	mrseq	r0, R12_usr
    1ca0:	000a0501 	andeq	r0, sl, r1, lsl #10
    1ca4:	01010402 	tsteq	r1, r2, lsl #8
    1ca8:	02000505 	andeq	r0, r0, #20971520	; 0x1400000
    1cac:	05010104 	streq	r0, [r1, #-260]	; 0xfffffefc
    1cb0:	0402000d 	streq	r0, [r2], #-13
    1cb4:	0a050101 	beq	1420c0 <__bss_end__+0x1370b0>
    1cb8:	01040200 	mrseq	r0, R12_usr
    1cbc:	000a0201 	andeq	r0, sl, r1, lsl #4
    1cc0:	01fa0101 	mvnseq	r0, r1, lsl #2
    1cc4:	00030000 	andeq	r0, r3, r0
    1cc8:	0000005d 	andeq	r0, r0, sp, asr r0
    1ccc:	0efb0102 	cdpeq	1, 15, cr0, cr11, cr2, {0}
    1cd0:	0101000d 	tsteq	r1, sp
    1cd4:	00000101 	andeq	r0, r0, r1, lsl #2
    1cd8:	00000100 	andeq	r0, r0, r0, lsl #2
    1cdc:	732f2e01 			; <UNDEFINED> instruction: 0x732f2e01
    1ce0:	66666174 			; <UNDEFINED> instruction: 0x66666174
    1ce4:	6372732d 	cmnvs	r2, #-1275068416	; 0xb4000000
    1ce8:	73552f00 	cmpvc	r5, #0, 30
    1cec:	2f737265 	svccs	0x00737265
    1cf0:	656c696d 	strbvs	r6, [ip, #-2413]!	; 0xfffff693
    1cf4:	6f532f73 	svcvs	0x00532f73
    1cf8:	65637275 	strbvs	r7, [r3, #-629]!	; 0xfffffd8b
    1cfc:	3273632f 	rsbscc	r6, r3, #-1140850688	; 0xbc000000
    1d00:	786c3034 	stmdavc	ip!, {r2, r4, r5, ip, sp}^
    1d04:	62696c2f 	rsbvs	r6, r9, #12032	; 0x2f00
    1d08:	692f6970 	stmdbvs	pc!, {r4, r5, r6, r8, fp, sp, lr}	; <UNPREDICTABLE>
    1d0c:	756c636e 	strbvc	r6, [ip, #-878]!	; 0xfffffc92
    1d10:	00006564 	andeq	r6, r0, r4, ror #10
    1d14:	656d6974 	strbvs	r6, [sp, #-2420]!	; 0xfffff68c
    1d18:	00632e72 	rsbeq	r2, r3, r2, ror lr
    1d1c:	72000001 	andvc	r0, r0, #1, 0
    1d20:	682e6970 	stmdavs	lr!, {r4, r5, r6, r8, fp, sp, lr}
    1d24:	00000200 	andeq	r0, r0, r0, lsl #4
    1d28:	00230500 	eoreq	r0, r3, r0, lsl #10
    1d2c:	99980205 	ldmibls	r8, {r0, r2, r9}
    1d30:	05150000 	ldreq	r0, [r5, #-0]
    1d34:	0c051305 	stceq	3, cr1, [r5], {5}
    1d38:	1f050106 	svcne	0x00050106
    1d3c:	05056a06 	streq	r6, [r5, #-2566]	; 0xfffff5fa
    1d40:	061f0515 			; <UNDEFINED> instruction: 0x061f0515
    1d44:	3105050f 	tstcc	r5, pc, lsl #10
    1d48:	0a052f06 	beq	14d968 <__bss_end__+0x142958>
    1d4c:	05017703 	streq	r7, [r1, #-1795]	; 0xfffff8fd
    1d50:	0c051305 	stceq	3, cr1, [r5], {5}
    1d54:	05660106 	strbeq	r0, [r6, #-262]!	; 0xfffffefa
    1d58:	09030605 	stmdbeq	r3, {r0, r2, r9, sl}
    1d5c:	01052f01 	tsteq	r5, r1, lsl #30
    1d60:	1c051306 	stcne	3, cr1, [r5], {6}
    1d64:	05056806 	streq	r6, [r5, #-2054]	; 0xfffff7fa
    1d68:	030a0513 	movweq	r0, #42259	; 0xa513
    1d6c:	05050176 	streq	r0, [r5, #-374]	; 0xfffffe8a
    1d70:	061c0515 			; <UNDEFINED> instruction: 0x061c0515
    1d74:	05052e18 	streq	r2, [r5, #-3608]	; 0xfffff1e8
    1d78:	062e7a03 	strteq	r7, [lr], -r3, lsl #20
    1d7c:	030a052f 	movweq	r0, #42287	; 0xa52f
    1d80:	05050177 	streq	r0, [r5, #-375]	; 0xfffffe89
    1d84:	060c0513 			; <UNDEFINED> instruction: 0x060c0513
    1d88:	05056601 	streq	r6, [r5, #-1537]	; 0xfffff9ff
    1d8c:	01090306 	tsteq	r9, r6, lsl #6
    1d90:	0501062f 	streq	r0, [r1, #-1583]	; 0xfffff9d1
    1d94:	0176030c 	cmneq	r6, ip, lsl #6
    1d98:	03060505 	movweq	r0, #25861	; 0x6505
    1d9c:	09052e0f 	stmdbeq	r5, {r0, r1, r2, r3, r9, sl, fp, sp}
    1da0:	030a0513 	movweq	r0, #42259	; 0xa513
    1da4:	05050174 	streq	r0, [r5, #-372]	; 0xfffffe8c
    1da8:	0a052f15 	beq	14da04 <__bss_end__+0x1429f4>
    1dac:	05017703 	streq	r7, [r1, #-1795]	; 0xfffff8fd
    1db0:	0c051305 	stceq	3, cr1, [r5], {5}
    1db4:	05660106 	strbeq	r0, [r6, #-262]!	; 0xfffffefa
    1db8:	09030605 	stmdbeq	r3, {r0, r2, r9, sl}
    1dbc:	06110501 	ldreq	r0, [r1], -r1, lsl #10
    1dc0:	0305051a 	movweq	r0, #21786	; 0x551a
    1dc4:	2f062e78 	svccs	0x00062e78
    1dc8:	05190905 	ldreq	r0, [r9, #-2309]	; 0xfffff6fb
    1dcc:	0501060c 	streq	r0, [r1, #-1548]	; 0xfffff9f4
    1dd0:	0587061c 	streq	r0, [r7, #1564]	; 0x61c
    1dd4:	1c051305 	stcne	3, cr1, [r5], {5}
    1dd8:	05051106 	streq	r1, [r5, #-262]	; 0xfffffefa
    1ddc:	06054a2f 	streq	r4, [r5], -pc, lsr #20
    1de0:	2e760306 	cdpcs	3, 7, cr0, cr6, cr6, {0}
    1de4:	05130505 	ldreq	r0, [r3, #-1285]	; 0xfffffafb
    1de8:	0176030a 	cmneq	r6, sl, lsl #6
    1dec:	2f150505 	svccs	0x00150505
    1df0:	77030a05 	strvc	r0, [r3, -r5, lsl #20]
    1df4:	13050501 	movwne	r0, #21761	; 0x5501
    1df8:	01060c05 	tsteq	r6, r5, lsl #24
    1dfc:	06050566 	streq	r0, [r5], -r6, ror #10
    1e00:	2f010903 	svccs	0x00010903
    1e04:	0c050106 	stfeqs	f0, [r5], {6}
    1e08:	05017603 	streq	r7, [r1, #-1539]	; 0xfffff9fd
    1e0c:	0f030605 	svceq	0x00030605
    1e10:	1309052e 	movwne	r0, #38190	; 0x952e
    1e14:	74030a05 	strvc	r0, [r3], #-2565	; 0xfffff5fb
    1e18:	15050501 	strne	r0, [r5, #-1281]	; 0xfffffaff
    1e1c:	030a052f 	movweq	r0, #42287	; 0xa52f
    1e20:	05050177 	streq	r0, [r5, #-375]	; 0xfffffe89
    1e24:	060c0513 			; <UNDEFINED> instruction: 0x060c0513
    1e28:	05056601 	streq	r6, [r5, #-1537]	; 0xfffff9ff
    1e2c:	01090306 	tsteq	r9, r6, lsl #6
    1e30:	1a061105 	bne	18624c <__bss_end__+0x17b23c>
    1e34:	78030505 	stmdavc	r3, {r0, r2, r8, sl}
    1e38:	052f062e 	streq	r0, [pc, #-1582]!	; 1812 <__code_start__-0x67ee>
    1e3c:	0c051909 			; <UNDEFINED> instruction: 0x0c051909
    1e40:	1e050106 	adfnes	f0, f5, f6
    1e44:	05058a06 	streq	r8, [r5, #-2566]	; 0xfffff5fa
    1e48:	0e060513 	mcreq	5, 0, r0, cr6, cr3, {0}
    1e4c:	05130505 	ldreq	r0, [r3, #-1285]	; 0xfffffafb
    1e50:	0514061e 	ldreq	r0, [r4, #-1566]	; 0xfffff9e2
    1e54:	05662c05 	strbeq	r2, [r6, #-3077]!	; 0xfffff3fb
    1e58:	76030606 	strvc	r0, [r3], -r6, lsl #12
    1e5c:	1305052e 	movwne	r0, #21806	; 0x552e
    1e60:	76030a05 	strvc	r0, [r3], -r5, lsl #20
    1e64:	15050501 	strne	r0, [r5, #-1281]	; 0xfffffaff
    1e68:	030a052f 	movweq	r0, #42287	; 0xa52f
    1e6c:	05050177 	streq	r0, [r5, #-375]	; 0xfffffe89
    1e70:	060c0513 			; <UNDEFINED> instruction: 0x060c0513
    1e74:	05056601 	streq	r6, [r5, #-1537]	; 0xfffff9ff
    1e78:	01090306 	tsteq	r9, r6, lsl #6
    1e7c:	0501062f 	streq	r0, [r1, #-1583]	; 0xfffff9d1
    1e80:	0176030c 	cmneq	r6, ip, lsl #6
    1e84:	03060505 	movweq	r0, #25861	; 0x6505
    1e88:	09052e0f 	stmdbeq	r5, {r0, r1, r2, r3, r9, sl, fp, sp}
    1e8c:	030a0513 	movweq	r0, #42259	; 0xa513
    1e90:	05050174 	streq	r0, [r5, #-372]	; 0xfffffe8c
    1e94:	0a052f15 	beq	14daf0 <__bss_end__+0x142ae0>
    1e98:	05017703 	streq	r7, [r1, #-1795]	; 0xfffff8fd
    1e9c:	0c051305 	stceq	3, cr1, [r5], {5}
    1ea0:	05660106 	strbeq	r0, [r6, #-262]!	; 0xfffffefa
    1ea4:	09030605 	stmdbeq	r3, {r0, r2, r9, sl}
    1ea8:	06110501 	ldreq	r0, [r1], -r1, lsl #10
    1eac:	0305051a 	movweq	r0, #21786	; 0x551a
    1eb0:	2f062e78 	svccs	0x00062e78
    1eb4:	05190905 	ldreq	r0, [r9, #-2309]	; 0xfffff6fb
    1eb8:	0201060c 	andeq	r0, r1, #12, 12	; 0xc00000
    1ebc:	01010008 	tsteq	r1, r8
    1ec0:	00000204 	andeq	r0, r0, r4, lsl #4
    1ec4:	00c80003 	sbceq	r0, r8, r3
    1ec8:	01020000 	mrseq	r0, (UNDEF: 2)
    1ecc:	000d0efb 	strdeq	r0, [sp], -fp
    1ed0:	01010101 	tsteq	r1, r1, lsl #2
    1ed4:	01000000 	mrseq	r0, (UNDEF: 0)
    1ed8:	2f010000 	svccs	0x00010000
    1edc:	656d6f68 	strbvs	r6, [sp, #-3944]!	; 0xfffff098
    1ee0:	676e652f 	strbvs	r6, [lr, -pc, lsr #10]!
    1ee4:	2f72656c 	svccs	0x0072656c
    1ee8:	73616c63 	cmnvc	r1, #25344	; 0x6300
    1eec:	73632f73 	cmnvc	r3, #460	; 0x1cc
    1ef0:	65303431 	ldrvs	r3, [r0, #-1073]!	; 0xfffffbcf
    1ef4:	7732322d 	ldrvc	r3, [r2, -sp, lsr #4]!
    1ef8:	2f2f6e69 	svccs	0x002f6e69
    1efc:	7062696c 	rsbvc	r6, r2, ip, ror #18
    1f00:	6e692f69 	cdpvs	15, 6, cr2, cr9, cr9, {3}
    1f04:	64756c63 	ldrbtvs	r6, [r5], #-3171	; 0xfffff39d
    1f08:	752f0065 	strvc	r0, [pc, #-101]!	; 1eab <__code_start__-0x6155>
    1f0c:	732f7273 			; <UNDEFINED> instruction: 0x732f7273
    1f10:	65726168 	ldrbvs	r6, [r2, #-360]!	; 0xfffffe98
    1f14:	6363672f 	cmnvs	r3, #12320768	; 0xbc0000
    1f18:	6d72612d 	ldfvse	f6, [r2, #-180]!	; 0xffffff4c
    1f1c:	6e6f6e2d 	cdpvs	14, 6, cr6, cr15, cr13, {1}
    1f20:	61652d65 	cmnvs	r5, r5, ror #26
    1f24:	312d6962 			; <UNDEFINED> instruction: 0x312d6962
    1f28:	2d332e30 	ldccs	14, cr2, [r3, #-192]!	; 0xffffff40
    1f2c:	31323032 	teqcc	r2, r2, lsr r0
    1f30:	2f30312e 	svccs	0x0030312e
    1f34:	2f62696c 	svccs	0x0062696c
    1f38:	2f636367 	svccs	0x00636367
    1f3c:	2d6d7261 	sfmcs	f7, 2, [sp, #-388]!	; 0xfffffe7c
    1f40:	656e6f6e 	strbvs	r6, [lr, #-3950]!	; 0xfffff092
    1f44:	6261652d 	rsbvs	r6, r1, #188743680	; 0xb400000
    1f48:	30312f69 	eorscc	r2, r1, r9, ror #30
    1f4c:	312e332e 			; <UNDEFINED> instruction: 0x312e332e
    1f50:	636e692f 	cmnvs	lr, #770048	; 0xbc000
    1f54:	6564756c 	strbvs	r7, [r4, #-1388]!	; 0xfffffa94
    1f58:	61750000 	cmnvs	r5, r0
    1f5c:	632e7472 			; <UNDEFINED> instruction: 0x632e7472
    1f60:	00000000 	andeq	r0, r0, r0
    1f64:	74726175 	ldrbtvc	r6, [r2], #-373	; 0xfffffe8b
    1f68:	0100682e 	tsteq	r0, lr, lsr #16
    1f6c:	70720000 	rsbsvc	r0, r2, r0
    1f70:	00682e69 	rsbeq	r2, r8, r9, ror #28
    1f74:	67000001 	strvs	r0, [r0, -r1]
    1f78:	2e6f6970 			; <UNDEFINED> instruction: 0x2e6f6970
    1f7c:	00010068 	andeq	r0, r1, r8, rrx
    1f80:	64747300 	ldrbtvs	r7, [r4], #-768	; 0xfffffd00
    1f84:	2d746e69 	ldclcs	14, cr6, [r4, #-420]!	; 0xfffffe5c
    1f88:	2e636367 	cdpcs	3, 6, cr6, cr3, cr7, {3}
    1f8c:	00020068 	andeq	r0, r2, r8, rrx
    1f90:	39050000 	stmdbcc	r5, {}	; <UNPREDICTABLE>
    1f94:	b4020500 	strlt	r0, [r2], #-1280	; 0xfffffb00
    1f98:	0300009a 	movweq	r0, #154	; 0x9a
    1f9c:	01060130 	tsteq	r6, r0, lsr r1
    1fa0:	67060505 	strvs	r0, [r6, -r5, lsl #10]
    1fa4:	01061105 	tsteq	r6, r5, lsl #2
    1fa8:	052e0505 	streq	r0, [lr, #-1285]!	; 0xfffffafb
    1fac:	38056701 	stmdacc	r5, {r0, r8, r9, sl, sp, lr}
    1fb0:	01062906 	tsteq	r6, r6, lsl #18
    1fb4:	67060505 	strvs	r0, [r6, -r5, lsl #10]
    1fb8:	01061105 	tsteq	r6, r5, lsl #2
    1fbc:	052e0505 	streq	r0, [lr, #-1285]!	; 0xfffffafb
    1fc0:	16056701 	strne	r6, [r5], -r1, lsl #14
    1fc4:	2e150306 	cdpcs	3, 1, cr0, cr5, cr6, {0}
    1fc8:	67350505 	ldrvs	r0, [r5, -r5, lsl #10]!
    1fcc:	03683568 	cmneq	r8, #104, 10	; 0x1a000000
    1fd0:	6b852e0c 	blvs	fe14d808 <__bss_end__+0xfe1427f8>
    1fd4:	0c036969 			; <UNDEFINED> instruction: 0x0c036969
    1fd8:	676b1366 	strbvs	r1, [fp, -r6, ror #6]!
    1fdc:	2f060105 	svccs	0x00060105
    1fe0:	08061905 	stmdaeq	r6, {r0, r2, r8, fp, ip}
    1fe4:	34050525 	strcc	r0, [r5], #-1317	; 0xfffffadb
    1fe8:	01060d05 	tsteq	r6, r5, lsl #26
    1fec:	054c0105 	strbeq	r0, [ip, #-261]	; 0xfffffefb
    1ff0:	05670619 	strbeq	r0, [r7, #-1561]!	; 0xfffff9e7
    1ff4:	0d053605 	stceq	6, cr3, [r5, #-20]	; 0xffffffec
    1ff8:	28050106 	stmdacs	r5, {r1, r2, r8}
    1ffc:	3001054a 	andcc	r0, r1, sl, asr #10
    2000:	87061505 	strhi	r1, [r6, -r5, lsl #10]
    2004:	2f2f0505 	svccs	0x002f0505
    2008:	02000905 	andeq	r0, r0, #81920	; 0x14000
    200c:	05130104 	ldreq	r0, [r3, #-260]	; 0xfffffefc
    2010:	0402000a 	streq	r0, [r2], #-10
    2014:	0c051101 	stfeqs	f1, [r5], {1}
    2018:	01040200 	mrseq	r0, R12_usr
    201c:	0a050106 	beq	14243c <__bss_end__+0x13742c>
    2020:	01040200 	mrseq	r0, R12_usr
    2024:	0605052e 	streq	r0, [r5], -lr, lsr #10
    2028:	060e054c 	streq	r0, [lr], -ip, asr #10
    202c:	4a090501 	bmi	243438 <__bss_end__+0x238428>
    2030:	2f060505 	svccs	0x00060505
    2034:	0601052f 	streq	r0, [r1], -pc, lsr #10
    2038:	061c0513 			; <UNDEFINED> instruction: 0x061c0513
    203c:	05010667 	streq	r0, [r1, #-1639]	; 0xfffff999
    2040:	2f4b0605 	svccs	0x004b0605
    2044:	02000905 	andeq	r0, r0, #81920	; 0x14000
    2048:	05130104 	ldreq	r0, [r3, #-260]	; 0xfffffefc
    204c:	0402000a 	streq	r0, [r2], #-10
    2050:	0c051101 	stfeqs	f1, [r5], {1}
    2054:	01040200 	mrseq	r0, R12_usr
    2058:	0a050106 	beq	142478 <__bss_end__+0x137468>
    205c:	01040200 	mrseq	r0, R12_usr
    2060:	0605052e 	streq	r0, [r5], -lr, lsr #10
    2064:	0105674c 	tsteq	r5, ip, asr #14
    2068:	19052f06 	stmdbne	r5, {r1, r2, r8, r9, sl, fp, sp}
    206c:	1b054c06 	blne	15508c <__bss_end__+0x14a07c>
    2070:	2e2a052e 	cfsh64cs	mvdx0, mvdx10, #30
    2074:	01063105 	tsteq	r6, r5, lsl #2
    2078:	052e4205 	streq	r4, [lr, #-517]!	; 0xfffffdfb
    207c:	0531061c 	ldreq	r0, [r1, #-1564]!	; 0xfffff9e4
    2080:	09032f05 	stmdbeq	r3, {r0, r2, r8, r9, sl, fp, sp}
    2084:	060e052e 	streq	r0, [lr], -lr, lsr #10
    2088:	4a210501 	bmi	843494 <__bss_end__+0x838484>
    208c:	0a030105 	beq	c24a8 <__bss_end__+0xb7498>
    2090:	061a052e 	ldreq	r0, [sl], -lr, lsr #10
    2094:	00090568 	andeq	r0, r9, r8, ror #10
    2098:	30010402 	andcc	r0, r1, r2, lsl #8
    209c:	02000a05 	andeq	r0, r0, #20480	; 0x5000
    20a0:	05110104 	ldreq	r0, [r1, #-260]	; 0xfffffefc
    20a4:	0402000c 	streq	r0, [r2], #-12
    20a8:	05010601 	streq	r0, [r1, #-1537]	; 0xfffff9ff
    20ac:	0402000a 	streq	r0, [r2], #-10
    20b0:	19052e01 	stmdbne	r5, {r0, r9, sl, fp, sp}
    20b4:	7ee80306 	cdpvc	3, 14, cr0, cr8, cr6, {0}
    20b8:	2f050566 	svccs	0x00050566
    20bc:	05672f2f 	strbeq	r2, [r7, #-3887]!	; 0xfffff0d1
    20c0:	022f0601 	eoreq	r0, pc, #1048576	; 0x100000
    20c4:	01010004 	tsteq	r1, r4
    20c8:	00000392 	muleq	r0, r2, r3
    20cc:	00b70003 	adcseq	r0, r7, r3
    20d0:	01020000 	mrseq	r0, (UNDEF: 2)
    20d4:	000d0efb 	strdeq	r0, [sp], -fp
    20d8:	01010101 	tsteq	r1, r1, lsl #2
    20dc:	01000000 	mrseq	r0, (UNDEF: 0)
    20e0:	2f010000 	svccs	0x00010000
    20e4:	656d6f68 	strbvs	r6, [sp, #-3944]!	; 0xfffff098
    20e8:	676e652f 	strbvs	r6, [lr, -pc, lsr #10]!
    20ec:	2f72656c 	svccs	0x0072656c
    20f0:	73616c63 	cmnvc	r1, #25344	; 0x6300
    20f4:	73632f73 	cmnvc	r3, #460	; 0x1cc
    20f8:	65303431 	ldrvs	r3, [r0, #-1073]!	; 0xfffffbcf
    20fc:	7732322d 	ldrvc	r3, [r2, -sp, lsr #4]!
    2100:	2f2f6e69 	svccs	0x002f6e69
    2104:	7062696c 	rsbvc	r6, r2, ip, ror #18
    2108:	6e692f69 	cdpvs	15, 6, cr2, cr9, cr9, {3}
    210c:	64756c63 	ldrbtvs	r6, [r5], #-3171	; 0xfffff39d
    2110:	752f0065 	strvc	r0, [pc, #-101]!	; 20b3 <__code_start__-0x5f4d>
    2114:	732f7273 			; <UNDEFINED> instruction: 0x732f7273
    2118:	65726168 	ldrbvs	r6, [r2, #-360]!	; 0xfffffe98
    211c:	6363672f 	cmnvs	r3, #12320768	; 0xbc0000
    2120:	6d72612d 	ldfvse	f6, [r2, #-180]!	; 0xffffff4c
    2124:	6e6f6e2d 	cdpvs	14, 6, cr6, cr15, cr13, {1}
    2128:	61652d65 	cmnvs	r5, r5, ror #26
    212c:	312d6962 			; <UNDEFINED> instruction: 0x312d6962
    2130:	2d332e30 	ldccs	14, cr2, [r3, #-192]!	; 0xffffff40
    2134:	31323032 	teqcc	r2, r2, lsr r0
    2138:	2f30312e 	svccs	0x0030312e
    213c:	2f62696c 	svccs	0x0062696c
    2140:	2f636367 	svccs	0x00636367
    2144:	2d6d7261 	sfmcs	f7, 2, [sp, #-388]!	; 0xfffffe7c
    2148:	656e6f6e 	strbvs	r6, [lr, #-3950]!	; 0xfffff092
    214c:	6261652d 	rsbvs	r6, r1, #188743680	; 0xb400000
    2150:	30312f69 	eorscc	r2, r1, r9, ror #30
    2154:	312e332e 			; <UNDEFINED> instruction: 0x312e332e
    2158:	636e692f 	cmnvs	lr, #770048	; 0xbc000
    215c:	6564756c 	strbvs	r7, [r4, #-1388]!	; 0xfffffa94
    2160:	6d6b0000 	stclvs	0, cr0, [fp, #-0]
    2164:	6f6c6c61 	svcvs	0x006c6c61
    2168:	00632e63 	rsbeq	r2, r3, r3, ror #28
    216c:	72000000 	andvc	r0, r0, #0, 0
    2170:	682e6970 	stmdavs	lr!, {r4, r5, r6, r8, fp, sp, lr}
    2174:	00000100 	andeq	r0, r0, r0, lsl #2
    2178:	69647473 	stmdbvs	r4!, {r0, r1, r4, r5, r6, sl, ip, sp, lr}^
    217c:	672d746e 	strvs	r7, [sp, -lr, ror #8]!
    2180:	682e6363 	stmdavs	lr!, {r0, r1, r5, r6, r8, r9, sp, lr}
    2184:	00000200 	andeq	r0, r0, r0, lsl #4
    2188:	001e0500 	andseq	r0, lr, r0, lsl #10
    218c:	9ca40205 	sfmls	f0, 4, [r4], #20
    2190:	27030000 	strcs	r0, [r3, -r0]
    2194:	01200501 			; <UNDEFINED> instruction: 0x01200501
    2198:	01062d05 	tsteq	r6, r5, lsl #26
    219c:	83062005 	movwhi	r2, #24581	; 0x6005
    21a0:	05012205 	streq	r2, [r1, #-517]	; 0xfffffdfb
    21a4:	05010635 	streq	r0, [r1, #-1589]	; 0xfffff9cb
    21a8:	0583061e 	streq	r0, [r3, #1566]	; 0x61e
    21ac:	2d050120 	stfcss	f0, [r5, #-128]	; 0xffffff80
    21b0:	42050106 	andmi	r0, r5, #-2147483647	; 0x80000001
    21b4:	01068506 	tsteq	r6, r6, lsl #10
    21b8:	4b060505 	blmi	1835d4 <__bss_end__+0x1785c4>
    21bc:	2e060114 	mcrcs	1, 0, r0, cr6, cr4, {0}
    21c0:	02040200 	andeq	r0, r4, #0, 4
    21c4:	02002e06 	andeq	r2, r0, #96	; 0x60
    21c8:	00010204 	andeq	r0, r1, r4, lsl #4
    21cc:	15020402 	strne	r0, [r2, #-1026]	; 0xfffffbfe
    21d0:	02000d05 	andeq	r0, r0, #320	; 0x140
    21d4:	01060204 	tsteq	r6, r4, lsl #4
    21d8:	02000705 	andeq	r0, r0, #1310720	; 0x140000
    21dc:	054a0204 	strbeq	r0, [sl, #-516]	; 0xfffffdfc
    21e0:	054b0609 	strbeq	r0, [fp, #-1545]	; 0xfffff9f7
    21e4:	17051505 	strne	r1, [r5, -r5, lsl #10]
    21e8:	10050106 	andne	r0, r5, r6, lsl #2
    21ec:	0605054a 	streq	r0, [r5], -sl, asr #10
    21f0:	061b052f 	ldreq	r0, [fp], -pc, lsr #10
    21f4:	2e0e0501 	cfsh32cs	mvfx0, mvfx14, #1
    21f8:	052f0105 	streq	r0, [pc, #-261]!	; 20fb <__code_start__-0x5f05>
    21fc:	04020005 	streq	r0, [r2], #-5
    2200:	77030601 	strvc	r0, [r3, -r1, lsl #12]
    2204:	0402004a 	streq	r0, [r2], #-74	; 0xffffffb6
    2208:	02000101 	andeq	r0, r0, #1073741824	; 0x40000000
    220c:	9e060104 	adflss	f0, f6, f4
    2210:	01040200 	mrseq	r0, R12_usr
    2214:	0402002e 	streq	r0, [r2], #-46	; 0xffffffd2
    2218:	052e0601 	streq	r0, [lr, #-1537]!	; 0xfffff9ff
    221c:	06013209 	streq	r3, [r1], -r9, lsl #4
    2220:	2e062ed6 	mcrcs	14, 0, r2, cr6, cr6, {6}
    2224:	05de1905 	ldrbeq	r1, [lr, #2309]	; 0x905
    2228:	05142f05 	ldreq	r2, [r4, #-3845]	; 0xfffff0fb
    222c:	05010608 	streq	r0, [r1, #-1544]	; 0xfffff9f8
    2230:	09054a07 	stmdbeq	r5, {r0, r1, r2, r9, fp, lr}
    2234:	05054b06 	streq	r4, [r5, #-2822]	; 0xfffff4fa
    2238:	060c0513 			; <UNDEFINED> instruction: 0x060c0513
    223c:	06050501 	streq	r0, [r5], -r1, lsl #10
    2240:	01051367 	tsteq	r5, r7, ror #6
    2244:	09056706 	stmdbeq	r5, {r1, r2, r8, r9, sl, sp, lr}
    2248:	9e012a06 	vmlals.f32	s4, s2, s12
    224c:	06a52805 	strteq	r2, [r5], r5, lsl #16
    2250:	06050501 	streq	r0, [r5], -r1, lsl #10
    2254:	2e06014b 	adfcssm	f0, f6, #3.0
    2258:	13012e06 	movwne	r2, #7686	; 0x1e06
    225c:	47031805 	strmi	r1, [r3, -r5, lsl #16]
    2260:	13050501 	movwne	r0, #21761	; 0x5501
    2264:	06010601 	streq	r0, [r1], -r1, lsl #12
    2268:	1301150f 	movwne	r1, #5391	; 0x150f
    226c:	01060e05 	tsteq	r6, r5, lsl #28
    2270:	2e2e1605 	cfmadda32cs	mvax0, mvax1, mvfx14, mvfx5
    2274:	03060505 	movweq	r0, #25861	; 0x6505
    2278:	0b050139 	bleq	142764 <__bss_end__+0x137754>
    227c:	05050106 	streq	r0, [r5, #-262]	; 0xfffffefa
    2280:	0a054b06 	beq	154ea0 <__bss_end__+0x149e90>
    2284:	05050106 	streq	r0, [r5, #-262]	; 0xfffffefa
    2288:	0d054b06 	vstreq	d4, [r5, #-24]	; 0xffffffe8
    228c:	07050106 	streq	r0, [r5, -r6, lsl #2]
    2290:	4d01052e 	cfstr32mi	mvfx0, [r1, #-184]	; 0xffffff48
    2294:	02000505 	andeq	r0, r0, #20971520	; 0x1400000
    2298:	03060104 	movweq	r0, #24836	; 0x6104
    229c:	02004a78 	andeq	r4, r0, #120, 20	; 0x78000
    22a0:	00010104 	andeq	r0, r1, r4, lsl #2
    22a4:	06010402 	streq	r0, [r1], -r2, lsl #8
    22a8:	040200ba 	streq	r0, [r2], #-186	; 0xffffff46
    22ac:	052e0601 	streq	r0, [lr, #-1537]!	; 0xfffff9ff
    22b0:	06013409 	streq	r3, [r1], -r9, lsl #8
    22b4:	2e066682 	cfmadd32cs	mvax4, mvfx6, mvfx6, mvfx2
    22b8:	06db2005 	ldrbeq	r2, [fp], r5
    22bc:	06050501 	streq	r0, [r5], -r1, lsl #10
    22c0:	0200014b 	andeq	r0, r0, #-1073741806	; 0xc0000012
    22c4:	004a0204 	subeq	r0, sl, r4, lsl #4
    22c8:	01020402 	tsteq	r2, r2, lsl #8
    22cc:	02040200 	andeq	r0, r4, #0, 4
    22d0:	00120513 	andseq	r0, r2, r3, lsl r5
    22d4:	06020402 	streq	r0, [r2], -r2, lsl #8
    22d8:	04020001 	streq	r0, [r2], #-1
    22dc:	02002e02 	andeq	r2, r0, #2, 28
    22e0:	052e0204 	streq	r0, [lr, #-516]!	; 0xfffffdfc
    22e4:	04020005 	streq	r0, [r2], #-5
    22e8:	002f0602 	eoreq	r0, pc, r2, lsl #12
    22ec:	67020402 	strvs	r0, [r2, -r2, lsl #8]
    22f0:	02000105 	andeq	r0, r0, #1073741825	; 0x40000001
    22f4:	13060204 	movwne	r0, #25092	; 0x6204
    22f8:	02000505 	andeq	r0, r0, #20971520	; 0x1400000
    22fc:	62060104 	andvs	r0, r6, #1
    2300:	01040200 	mrseq	r0, R12_usr
    2304:	04020001 	streq	r0, [r2], #-1
    2308:	00ba0601 	adcseq	r0, sl, r1, lsl #12
    230c:	06010402 	streq	r0, [r1], -r2, lsl #8
    2310:	033c052e 	teqeq	ip, #192937984	; 0xb800000
    2314:	01069e0a 	tsteq	r6, sl, lsl #28
    2318:	4b060505 	blmi	183734 <__bss_end__+0x178724>
    231c:	062e0601 	strteq	r0, [lr], -r1, lsl #12
    2320:	0113012e 	tsteq	r3, lr, lsr #2
    2324:	ad031805 	stcge	8, cr1, [r3, #-20]	; 0xffffffec
    2328:	0505017f 	streq	r0, [r5, #-383]	; 0xfffffe81
    232c:	06110513 			; <UNDEFINED> instruction: 0x06110513
    2330:	05052e01 	streq	r2, [r5, #-3585]	; 0xfffff1ff
    2334:	0100d203 	tsteq	r0, r3, lsl #4
    2338:	05134a06 	ldreq	r4, [r3, #-2566]	; 0xfffff5fa
    233c:	7fa30318 	svcvc	0x00a30318
    2340:	13050501 	movwne	r0, #21761	; 0x5501
    2344:	01061605 	tsteq	r6, r5, lsl #12
    2348:	0605054a 	streq	r0, [r5], -sl, asr #10
    234c:	0100e103 	tsteq	r0, r3, lsl #2
    2350:	01061205 	tsteq	r6, r5, lsl #4
    2354:	4b060505 	blmi	183770 <__bss_end__+0x178760>
    2358:	a9031805 	stmdbge	r3, {r0, r2, fp, ip}
    235c:	0505017f 	streq	r0, [r5, #-383]	; 0xfffffe81
    2360:	18050113 	stmdane	r5, {r0, r1, r4, r8}
    2364:	1305050e 	movwne	r0, #21774	; 0x550e
    2368:	01061105 	tsteq	r6, r5, lsl #2
    236c:	1505052e 	strne	r0, [r5, #-1326]	; 0xfffffad2
    2370:	13014a06 	movwne	r4, #6662	; 0x1a06
    2374:	01060e05 	tsteq	r6, r5, lsl #28
    2378:	2e16052e 	cfmul64cs	mvdx0, mvdx6, mvdx14
    237c:	0605052e 	streq	r0, [r5], -lr, lsr #10
    2380:	0100d603 	tsteq	r0, r3, lsl #12
    2384:	03180501 	tsteq	r8, #4194304	; 0x400000
    2388:	05017f9f 	streq	r7, [r1, #-3999]	; 0xfffff061
    238c:	19051305 	stmdbne	r5, {r0, r2, r8, r9, ip}
    2390:	052e0106 	streq	r0, [lr, #-262]!	; 0xfffffefa
    2394:	00e00305 	rsceq	r0, r0, r5, lsl #6
    2398:	04020001 	streq	r0, [r2], #-1
    239c:	004a0602 	subeq	r0, sl, r2, lsl #12
    23a0:	14020402 	strne	r0, [r2], #-1026	; 0xfffffbfe
    23a4:	02000a05 	andeq	r0, r0, #20480	; 0x5000
    23a8:	01060204 	tsteq	r6, r4, lsl #4
    23ac:	02000505 	andeq	r0, r0, #20971520	; 0x1400000
    23b0:	4b060204 	blmi	182bc8 <__bss_end__+0x177bb8>
    23b4:	02000c05 	andeq	r0, r0, #1280	; 0x500
    23b8:	01060204 	tsteq	r6, r4, lsl #4
    23bc:	02000105 	andeq	r0, r0, #1073741825	; 0x40000001
    23c0:	052f0204 	streq	r0, [pc, #-516]!	; 21c4 <__code_start__-0x5e3c>
    23c4:	04020005 	streq	r0, [r2], #-5
    23c8:	73030601 	movwvc	r0, #13825	; 0x3601
    23cc:	0402004a 	streq	r0, [r2], #-74	; 0xffffffb6
    23d0:	02000101 	andeq	r0, r0, #1073741824	; 0x40000000
    23d4:	9e060104 	adflss	f0, f6, f4
    23d8:	01040200 	mrseq	r0, R12_usr
    23dc:	0402002e 	streq	r0, [r2], #-46	; 0xffffffd2
    23e0:	002e0601 	eoreq	r0, lr, r1, lsl #12
    23e4:	2f010402 	svccs	0x00010402
    23e8:	01040200 	mrseq	r0, R12_usr
    23ec:	0402002e 	streq	r0, [r2], #-46	; 0xffffffd2
    23f0:	b103d601 	tstlt	r3, r1, lsl #12
    23f4:	06012e7f 			; <UNDEFINED> instruction: 0x06012e7f
    23f8:	062e2e82 	strteq	r2, [lr], -r2, lsl #29
    23fc:	002e062e 	eoreq	r0, lr, lr, lsr #12
    2400:	06010402 	streq	r0, [r1], -r2, lsl #8
    2404:	0100d703 	tsteq	r0, r3, lsl #14
    2408:	01040200 	mrseq	r0, R12_usr
    240c:	0402002e 	streq	r0, [r2], #-46	; 0xffffffd2
    2410:	1505d601 	strne	sp, [r5, #-1537]	; 0xfffff9ff
    2414:	17057b08 	strne	r7, [r5, -r8, lsl #22]
    2418:	31160501 	tstcc	r6, r1, lsl #10
    241c:	05011805 	streq	r1, [r1, #-2053]	; 0xfffff7fb
    2420:	0501061d 	streq	r0, [r1, #-1565]	; 0xfffff9e3
    2424:	1905662b 	stmdbne	r5, {r0, r1, r3, r5, r9, sl, sp, lr}
    2428:	05054d06 	streq	r4, [r5, #-3334]	; 0xfffff2fa
    242c:	060c0513 			; <UNDEFINED> instruction: 0x060c0513
    2430:	4a070501 	bmi	1c383c <__bss_end__+0x1b882c>
    2434:	02002505 	andeq	r2, r0, #20971520	; 0x1400000
    2438:	054a0104 	strbeq	r0, [sl, #-260]	; 0xfffffefc
    243c:	0402001e 	streq	r0, [r2], #-30	; 0xffffffe2
    2440:	09054a01 	stmdbeq	r5, {r0, r9, fp, lr}
    2444:	05054b06 	streq	r4, [r5, #-2822]	; 0xfffff4fa
    2448:	060a0513 			; <UNDEFINED> instruction: 0x060a0513
    244c:	63190501 	tstvs	r9, #4194304	; 0x400000
    2450:	4c060905 			; <UNDEFINED> instruction: 0x4c060905
    2454:	069e0601 	ldreq	r0, [lr], r1, lsl #12
    2458:	000a022e 	andeq	r0, sl, lr, lsr #4
    245c:	02890101 	addeq	r0, r9, #1073741824	; 0x40000000
    2460:	00030000 	andeq	r0, r3, r0
    2464:	000000c9 	andeq	r0, r0, r9, asr #1
    2468:	0efb0102 	cdpeq	1, 15, cr0, cr11, cr2, {0}
    246c:	0101000d 	tsteq	r1, sp
    2470:	00000101 	andeq	r0, r0, r1, lsl #2
    2474:	00000100 	andeq	r0, r0, r0, lsl #2
    2478:	732f2e01 			; <UNDEFINED> instruction: 0x732f2e01
    247c:	2f006372 	svccs	0x00006372
    2480:	72657355 	rsbvc	r7, r5, #1409286145	; 0x54000001
    2484:	696d2f73 	stmdbvs	sp!, {r0, r1, r4, r5, r6, r8, r9, sl, fp, sp}^
    2488:	2f73656c 	svccs	0x0073656c
    248c:	72756f53 	rsbsvc	r6, r5, #332	; 0x14c
    2490:	632f6563 			; <UNDEFINED> instruction: 0x632f6563
    2494:	30343273 	eorscc	r3, r4, r3, ror r2
    2498:	6c2f786c 	stcvs	8, cr7, [pc], #-432	; 22f0 <__code_start__-0x5d10>
    249c:	69706269 	ldmdbvs	r0!, {r0, r3, r5, r6, r9, sp, lr}^
    24a0:	636e692f 	cmnvs	lr, #770048	; 0xbc000
    24a4:	6564756c 	strbvs	r7, [r4, #-1388]!	; 0xfffffa94
    24a8:	706f2f00 	rsbvc	r2, pc, r0, lsl #30
    24ac:	6f682f74 	svcvs	0x00682f74
    24b0:	7262656d 	rsbvc	r6, r2, #457179136	; 0x1b400000
    24b4:	432f7765 			; <UNDEFINED> instruction: 0x432f7765
    24b8:	616c6c65 	cmnvs	ip, r5, ror #24
    24bc:	72612f72 	rsbvc	r2, r1, #456	; 0x1c8
    24c0:	6f6e2d6d 	svcvs	0x006e2d6d
    24c4:	652d656e 	strvs	r6, [sp, #-1390]!	; 0xfffffa92
    24c8:	2d696261 	sfmcs	f6, 2, [r9, #-388]!	; 0xfffffe7c
    24cc:	2d392f39 	ldccs	15, cr2, [r9, #-228]!	; 0xffffff1c
    24d0:	39313032 	ldmdbcc	r1!, {r1, r4, r5, ip, sp}
    24d4:	632d3471 			; <UNDEFINED> instruction: 0x632d3471
    24d8:	37303173 			; <UNDEFINED> instruction: 0x37303173
    24dc:	696c2f65 	stmdbvs	ip!, {r0, r2, r5, r6, r8, r9, sl, fp, sp}^
    24e0:	63672f62 	cmnvs	r7, #392	; 0x188
    24e4:	72612f63 	rsbvc	r2, r1, #396	; 0x18c
    24e8:	6f6e2d6d 	svcvs	0x006e2d6d
    24ec:	652d656e 	strvs	r6, [sp, #-1390]!	; 0xfffffa92
    24f0:	2f696261 	svccs	0x00696261
    24f4:	2e322e39 	mrccs	14, 1, r2, cr2, cr9, {1}
    24f8:	6e692f31 	mcrvs	15, 3, r2, cr9, cr1, {1}
    24fc:	64756c63 	ldrbtvs	r6, [r5], #-3171	; 0xfffff39d
    2500:	67000065 	strvs	r0, [r0, -r5, rrx]
    2504:	2e6f6970 			; <UNDEFINED> instruction: 0x2e6f6970
    2508:	00010063 	andeq	r0, r1, r3, rrx
    250c:	69707200 	ldmdbvs	r0!, {r9, ip, sp, lr}^
    2510:	0200682e 	andeq	r6, r0, #3014656	; 0x2e0000
    2514:	74730000 	ldrbtvc	r0, [r3], #-0
    2518:	746e6964 	strbtvc	r6, [lr], #-2404	; 0xfffff69c
    251c:	6363672d 	cmnvs	r3, #11796480	; 0xb40000
    2520:	0300682e 	movweq	r6, #2094	; 0x82e
    2524:	70670000 	rsbvc	r0, r7, r0
    2528:	682e6f69 	stmdavs	lr!, {r0, r3, r5, r6, r8, r9, sl, fp, sp, lr}
    252c:	00000200 	andeq	r0, r0, r0, lsl #4
    2530:	00380500 	eorseq	r0, r8, r0, lsl #10
    2534:	a0540205 	subsge	r0, r4, r5, lsl #4
    2538:	27030000 	strcs	r0, [r3, -r0]
    253c:	13050501 	movwne	r0, #21761	; 0x5501
    2540:	01060705 	tsteq	r6, r5, lsl #14
    2544:	49060605 	stmdbmi	r6, {r0, r2, r9, sl}
    2548:	05150505 	ldreq	r0, [r5, #-1285]	; 0xfffffafb
    254c:	05010607 	streq	r0, [r1, #-1543]	; 0xfffff9f9
    2550:	07052b38 	smladxeq	r5, r8, fp, r2
    2554:	0605054d 	streq	r0, [r5], -sp, asr #10
    2558:	06180530 			; <UNDEFINED> instruction: 0x06180530
    255c:	671c0501 	ldrvs	r0, [ip, -r1, lsl #10]
    2560:	054a0e05 	strbeq	r0, [sl, #-3589]	; 0xfffff1fb
    2564:	12052d18 	andne	r2, r5, #24, 26	; 0x600
    2568:	052f2e4d 	streq	r2, [pc, #-3661]!	; 1723 <__code_start__-0x68dd>
    256c:	05052a0e 	streq	r2, [r5, #-2574]	; 0xfffff5f2
    2570:	13142f06 	tstne	r4, #6, 30
    2574:	01060705 	tsteq	r6, r5, lsl #14
    2578:	2f060505 	svccs	0x00060505
    257c:	2e2e0613 	mcrcs	6, 1, r0, cr14, cr3, {0}
    2580:	05130105 	ldreq	r0, [r3, #-261]	; 0xfffffefb
    2584:	052e2d05 	streq	r2, [lr, #-3333]!	; 0xfffff2fb
    2588:	05000624 	streq	r0, [r0, #-1572]	; 0xfffff9dc
    258c:	00a0b402 	adceq	fp, r0, r2, lsl #8
    2590:	05051500 	streq	r1, [r5, #-1280]	; 0xfffffb00
    2594:	03060513 	movweq	r0, #25875	; 0x6513
    2598:	05050171 	streq	r0, [r5, #-369]	; 0xfffffe8f
    259c:	06070513 			; <UNDEFINED> instruction: 0x06070513
    25a0:	06060501 	streq	r0, [r6], -r1, lsl #10
    25a4:	15050549 	strne	r0, [r5, #-1353]	; 0xfffffab7
    25a8:	06240514 			; <UNDEFINED> instruction: 0x06240514
    25ac:	05010903 	streq	r0, [r1, #-2307]	; 0xfffff6fd
    25b0:	2e770318 	mrccs	3, 3, r0, cr7, cr8, {0}
    25b4:	05671c05 	strbeq	r1, [r7, #-3077]!	; 0xfffff3fb
    25b8:	18054a0e 	stmdane	r5, {r1, r2, r3, r9, fp, lr}
    25bc:	4d12052d 	cfldr32mi	mvfx0, [r2, #-180]	; 0xffffff4c
    25c0:	0f052f2e 	svceq	0x00052f2e
    25c4:	290e052f 	stmdbcs	lr, {r0, r1, r2, r3, r5, r8, sl}
    25c8:	2f060505 	svccs	0x00060505
    25cc:	07051314 	smladeq	r5, r4, r3, r1
    25d0:	05050106 	streq	r0, [r5, #-262]	; 0xfffffefa
    25d4:	06132f06 	ldreq	r2, [r3], -r6, lsl #30
    25d8:	3301052e 	movwcc	r0, #5422	; 0x152e
    25dc:	2e290505 	cfsh64cs	mvdx0, mvdx9, #5
    25e0:	00062705 	andeq	r2, r6, r5, lsl #14
    25e4:	a10c0205 	tstge	ip, r5, lsl #4
    25e8:	051a0000 	ldreq	r0, [sl, #-0]
    25ec:	27051305 	strcs	r1, [r5, -r5, lsl #6]
    25f0:	18051106 	stmdane	r5, {r1, r2, r8, ip}
    25f4:	2e05052f 	cfsh32cs	mvfx0, mvfx5, #31
    25f8:	28054a2e 	stmdacs	r5, {r1, r2, r3, r5, r9, fp, lr}
    25fc:	02050006 	andeq	r0, r5, #6, 0
    2600:	0000a124 	andeq	sl, r0, r4, lsr #2
    2604:	13050516 	movwne	r0, #21782	; 0x5516
    2608:	11062805 	tstne	r6, r5, lsl #16
    260c:	052f1805 	streq	r1, [pc, #-2053]!	; 1e0f <__code_start__-0x61f1>
    2610:	4a2e2e05 	bmi	b8de2c <__bss_end__+0xb82e1c>
    2614:	00062305 	andeq	r2, r6, r5, lsl #6
    2618:	a13c0205 	teqge	ip, r5, lsl #4
    261c:	05160000 	ldreq	r0, [r6, #-0]
    2620:	06051305 	streq	r1, [r5], -r5, lsl #6
    2624:	05016203 	streq	r6, [r1, #-515]	; 0xfffffdfd
    2628:	07051305 	streq	r1, [r5, -r5, lsl #6]
    262c:	06050106 	streq	r0, [r5], -r6, lsl #2
    2630:	05054906 	streq	r4, [r5, #-2310]	; 0xfffff6fa
    2634:	05131415 	ldreq	r1, [r3, #-1045]	; 0xfffffbeb
    2638:	17030623 	strne	r0, [r3, -r3, lsr #12]
    263c:	03220501 			; <UNDEFINED> instruction: 0x03220501
    2640:	1c052e69 	stcne	14, cr2, [r5], {105}	; 0x69
    2644:	0e052e82 	cdpeq	14, 0, cr2, cr5, cr2, {4}
    2648:	0605052e 	streq	r0, [r5], -lr, lsr #10
    264c:	06120530 			; <UNDEFINED> instruction: 0x06120530
    2650:	052d4b01 	streq	r4, [sp, #-2817]!	; 0xfffff4ff
    2654:	132f0605 			; <UNDEFINED> instruction: 0x132f0605
    2658:	06180513 			; <UNDEFINED> instruction: 0x06180513
    265c:	05017a03 	streq	r7, [r1, #-2563]	; 0xfffff5fd
    2660:	05054a0e 	streq	r4, [r5, #-2574]	; 0xfffff5f2
    2664:	01052e34 	tsteq	r5, r4, lsr lr
    2668:	052e1403 	streq	r1, [lr, #-1027]!	; 0xfffffbfd
    266c:	2e6c0305 	cdpcs	3, 6, cr0, cr12, cr5, {0}
    2670:	062b052e 	strteq	r0, [fp], -lr, lsr #10
    2674:	94020500 	strls	r0, [r2], #-1280	; 0xfffffb00
    2678:	030000a1 	movweq	r0, #161	; 0xa1
    267c:	05050117 	streq	r0, [r5, #-279]	; 0xfffffee9
    2680:	06070513 			; <UNDEFINED> instruction: 0x06070513
    2684:	03180501 	tsteq	r8, #4194304	; 0x400000
    2688:	2b052e71 	blcs	14e054 <__bss_end__+0x143044>
    268c:	052e0e03 	streq	r0, [lr, #-3587]!	; 0xfffff1fd
    2690:	09052f07 	stmdbeq	r5, {r0, r1, r2, r8, r9, sl, fp, sp}
    2694:	0d052f06 	stceq	15, cr2, [r5, #-24]	; 0xffffffe8
    2698:	05016f03 	streq	r6, [r1, #-3843]	; 0xfffff0fd
    269c:	2e061305 	cdpcs	3, 0, cr1, cr6, cr5, {0}
    26a0:	09052e2e 	stmdbeq	r5, {r1, r2, r3, r5, r9, sl, fp, sp}
    26a4:	01120306 	tsteq	r2, r6, lsl #6
    26a8:	72030d05 	andvc	r0, r3, #320	; 0x140
    26ac:	13050501 	movwne	r0, #21761	; 0x5501
    26b0:	052e2e06 	streq	r2, [lr, #-3590]!	; 0xfffff1fa
    26b4:	1003061d 	andne	r0, r3, sp, lsl r6
    26b8:	13050566 	movwne	r0, #21862	; 0x5566
    26bc:	11061d05 	tstne	r6, r5, lsl #26
    26c0:	0605052e 	streq	r0, [r5], -lr, lsr #10
    26c4:	0e051330 	mcreq	3, 0, r1, cr5, cr0, {1}
    26c8:	17051006 	strne	r1, [r5, -r6]
    26cc:	02042e30 	andeq	r2, r4, #48, 28	; 0x300
    26d0:	03063005 	movweq	r3, #24581	; 0x6005
    26d4:	042e00dd 	strteq	r0, [lr], #-221	; 0xffffff23
    26d8:	060e0501 	streq	r0, [lr], -r1, lsl #10
    26dc:	017fa203 	cmneq	pc, r3, lsl #4
    26e0:	052f2305 	streq	r2, [pc, #-773]!	; 23e3 <__code_start__-0x5c1d>
    26e4:	06022f01 	streq	r2, [r2], -r1, lsl #30
    26e8:	9e010100 	adflss	f0, f1, f0
    26ec:	03000000 	movweq	r0, #0
    26f0:	00005a00 	andeq	r5, r0, r0, lsl #20
    26f4:	fb010200 	blx	42efe <__bss_end__+0x37eee>
    26f8:	01000d0e 	tsteq	r0, lr, lsl #26
    26fc:	00010101 	andeq	r0, r1, r1, lsl #2
    2700:	00010000 	andeq	r0, r1, r0
    2704:	2f2e0100 	svccs	0x002e0100
    2708:	6362696c 	cmnvs	r2, #108, 18	; 0x1b0000
    270c:	73552f00 	cmpvc	r5, #0, 30
    2710:	2f737265 	svccs	0x00737265
    2714:	656c696d 	strbvs	r6, [ip, #-2413]!	; 0xfffff693
    2718:	6f532f73 	svcvs	0x00532f73
    271c:	65637275 	strbvs	r7, [r3, #-629]!	; 0xfffffd8b
    2720:	3273632f 	rsbscc	r6, r3, #-1140850688	; 0xbc000000
    2724:	786c3034 	stmdavc	ip!, {r2, r4, r5, ip, sp}^
    2728:	62696c2f 	rsbvs	r6, r9, #12032	; 0x2f00
    272c:	692f6970 	stmdbvs	pc!, {r4, r5, r6, r8, fp, sp, lr}	; <UNPREDICTABLE>
    2730:	756c636e 	strbvc	r6, [ip, #-878]!	; 0xfffffc92
    2734:	00006564 	andeq	r6, r0, r4, ror #10
    2738:	63747570 	cmnvs	r4, #112, 10	; 0x1c000000
    273c:	2e726168 	rpwcssz	f6, f2, #0.0
    2740:	00010063 	andeq	r0, r1, r3, rrx
    2744:	69707200 	ldmdbvs	r0!, {r9, ip, sp, lr}^
    2748:	0200682e 	andeq	r6, r0, #3014656	; 0x2e0000
    274c:	05000000 	streq	r0, [r0, #-0]
    2750:	02050024 	andeq	r0, r5, #36, 0	; 0x24
    2754:	0000a1ec 	andeq	sl, r0, ip, ror #3
    2758:	01260514 			; <UNDEFINED> instruction: 0x01260514
    275c:	01062405 	tsteq	r6, r5, lsl #8
    2760:	2e26052e 	cfsh64cs	mvdx0, mvdx6, #30
    2764:	2e063405 	cdpcs	4, 0, cr3, cr6, cr5, {0}
    2768:	01060105 	tsteq	r6, r5, lsl #2
    276c:	4f061b05 	svcmi	0x00061b05
    2770:	05130505 	ldreq	r0, [r3, #-1285]	; 0xfffffafb
    2774:	05010611 	streq	r0, [r1, #-1553]	; 0xfffff9ef
    2778:	23056701 	movwcs	r6, #22273	; 0x5701
    277c:	05056706 	streq	r6, [r5, #-1798]	; 0xfffff8fa
    2780:	06110513 			; <UNDEFINED> instruction: 0x06110513
    2784:	4b010501 	blmi	43b90 <__bss_end__+0x38b80>
    2788:	01000402 	tsteq	r0, r2, lsl #8
    278c:	0000e201 	andeq	lr, r0, r1, lsl #4
    2790:	59000300 	stmdbpl	r0, {r8, r9}
    2794:	02000000 	andeq	r0, r0, #0, 0
    2798:	0d0efb01 	vstreq	d15, [lr, #-4]
    279c:	01010100 	mrseq	r0, (UNDEF: 17)
    27a0:	00000001 	andeq	r0, r0, r1
    27a4:	01000001 	tsteq	r0, r1
    27a8:	696c2f2e 	stmdbvs	ip!, {r1, r2, r3, r5, r8, r9, sl, fp, sp}^
    27ac:	2f006362 	svccs	0x00006362
    27b0:	72657355 	rsbvc	r7, r5, #1409286145	; 0x54000001
    27b4:	696d2f73 	stmdbvs	sp!, {r0, r1, r4, r5, r6, r8, r9, sl, fp, sp}^
    27b8:	2f73656c 	svccs	0x0073656c
    27bc:	72756f53 	rsbsvc	r6, r5, #332	; 0x14c
    27c0:	632f6563 			; <UNDEFINED> instruction: 0x632f6563
    27c4:	30343273 	eorscc	r3, r4, r3, ror r2
    27c8:	6c2f786c 	stcvs	8, cr7, [pc], #-432	; 2620 <__code_start__-0x59e0>
    27cc:	69706269 	ldmdbvs	r0!, {r0, r3, r5, r6, r9, sp, lr}^
    27d0:	636e692f 	cmnvs	lr, #770048	; 0xbc000
    27d4:	6564756c 	strbvs	r7, [r4, #-1388]!	; 0xfffffa94
    27d8:	74730000 	ldrbtvc	r0, [r3], #-0
    27dc:	74616372 	strbtvc	r6, [r1], #-882	; 0xfffffc8e
    27e0:	0100632e 	tsteq	r0, lr, lsr #6
    27e4:	70720000 	rsbsvc	r0, r2, r0
    27e8:	00682e69 	rsbeq	r2, r8, r9, ror #28
    27ec:	00000002 	andeq	r0, r0, r2
    27f0:	05002c05 	streq	r2, [r0, #-3077]	; 0xfffff3fb
    27f4:	00a22802 	adceq	r2, r2, r2, lsl #16
    27f8:	05051500 	streq	r1, [r5, #-1280]	; 0xfffffb00
    27fc:	0b051313 	bleq	147450 <__bss_end__+0x13c440>
    2800:	05051106 	streq	r1, [r5, #-262]	; 0xfffffefa
    2804:	01040200 	mrseq	r0, R12_usr
    2808:	02003006 	andeq	r3, r0, #6, 0
    280c:	05150104 	ldreq	r0, [r5, #-260]	; 0xfffffefc
    2810:	04020009 	streq	r0, [r2], #-9
    2814:	0b051301 	bleq	147420 <__bss_end__+0x13c410>
    2818:	01040200 	mrseq	r0, R12_usr
    281c:	0005052f 	andeq	r0, r5, pc, lsr #10
    2820:	06010402 	streq	r0, [r1], -r2, lsl #8
    2824:	04020001 	streq	r0, [r2], #-1
    2828:	4e062e01 	cdpmi	14, 0, cr2, cr6, cr1, {0}
    282c:	01060805 	tsteq	r6, r5, lsl #16
    2830:	02000505 	andeq	r0, r0, #20971520	; 0x1400000
    2834:	2f060104 	svccs	0x00060104
    2838:	02000905 	andeq	r0, r0, #81920	; 0x14000
    283c:	05130104 	ldreq	r0, [r3, #-260]	; 0xfffffefc
    2840:	0402000b 	streq	r0, [r2], #-11
    2844:	05010601 	streq	r0, [r1, #-1537]	; 0xfffff9ff
    2848:	04020009 	streq	r0, [r2], #-9
    284c:	052f0601 	streq	r0, [pc, #-1537]!	; 2253 <__code_start__-0x5dad>
    2850:	04020005 	streq	r0, [r2], #-5
    2854:	05130601 	ldreq	r0, [r3, #-1537]	; 0xfffff9ff
    2858:	0402000f 	streq	r0, [r2], #-15
    285c:	0d052d01 	stceq	13, cr2, [r5, #-4]
    2860:	01040200 	mrseq	r0, R12_usr
    2864:	05052f06 	streq	r2, [r5, #-3846]	; 0xfffff0fa
    2868:	01040200 	mrseq	r0, R12_usr
    286c:	04020106 	streq	r0, [r2], #-262	; 0xfffffefa
    2870:	b2010100 	andlt	r0, r1, #0
    2874:	03000000 	movweq	r0, #0
    2878:	00005900 	andeq	r5, r0, r0, lsl #18
    287c:	fb010200 	blx	43086 <__bss_end__+0x38076>
    2880:	01000d0e 	tsteq	r0, lr, lsl #26
    2884:	00010101 	andeq	r0, r1, r1, lsl #2
    2888:	00010000 	andeq	r0, r1, r0
    288c:	2f2e0100 	svccs	0x002e0100
    2890:	6362696c 	cmnvs	r2, #108, 18	; 0x1b0000
    2894:	73552f00 	cmpvc	r5, #0, 30
    2898:	2f737265 	svccs	0x00737265
    289c:	656c696d 	strbvs	r6, [ip, #-2413]!	; 0xfffff693
    28a0:	6f532f73 	svcvs	0x00532f73
    28a4:	65637275 	strbvs	r7, [r3, #-629]!	; 0xfffffd8b
    28a8:	3273632f 	rsbscc	r6, r3, #-1140850688	; 0xbc000000
    28ac:	786c3034 	stmdavc	ip!, {r2, r4, r5, ip, sp}^
    28b0:	62696c2f 	rsbvs	r6, r9, #12032	; 0x2f00
    28b4:	692f6970 	stmdbvs	pc!, {r4, r5, r6, r8, fp, sp, lr}	; <UNPREDICTABLE>
    28b8:	756c636e 	strbvc	r6, [ip, #-878]!	; 0xfffffc92
    28bc:	00006564 	andeq	r6, r0, r4, ror #10
    28c0:	63727473 	cmnvs	r2, #1929379840	; 0x73000000
    28c4:	632e706d 			; <UNDEFINED> instruction: 0x632e706d
    28c8:	00000100 	andeq	r0, r0, r0, lsl #2
    28cc:	2e697072 	mcrcs	0, 3, r7, cr9, cr2, {3}
    28d0:	00020068 	andeq	r0, r2, r8, rrx
    28d4:	2a050000 	bcs	1428dc <__bss_end__+0x1378cc>
    28d8:	54020500 	strpl	r0, [r2], #-1280	; 0xfffffb00
    28dc:	140000a2 	strne	r0, [r0], #-162	; 0xffffff5e
    28e0:	05130905 	ldreq	r0, [r3, #-2309]	; 0xfffff6fb
    28e4:	05010610 	streq	r0, [r1, #-1552]	; 0xfffff9f0
    28e8:	052e060f 	streq	r0, [lr, #-1551]!	; 0xfffff9f1
    28ec:	05820610 	streq	r0, [r2, #1552]	; 0x610
    28f0:	11052e0f 	tstne	r5, pc, lsl #28
    28f4:	01040200 	mrseq	r0, R12_usr
    28f8:	1c054b06 			; <UNDEFINED> instruction: 0x1c054b06
    28fc:	01040200 	mrseq	r0, R12_usr
    2900:	0f052d06 	svceq	0x00052d06
    2904:	01040200 	mrseq	r0, R12_usr
    2908:	13052e06 	movwne	r2, #24070	; 0x5e06
    290c:	01040200 	mrseq	r0, R12_usr
    2910:	09050106 	stmdbeq	r5, {r1, r2, r8}
    2914:	01054c06 	tsteq	r5, r6, lsl #24
    2918:	054a1306 	strbeq	r1, [sl, #-774]	; 0xfffffcfa
    291c:	052d0609 	streq	r0, [sp, #-1545]!	; 0xfffff9f7
    2920:	2e130601 	cfmsub32cs	mvax0, mvfx0, mvfx3, mvfx1
    2924:	01000202 	tsteq	r0, r2, lsl #4
    2928:	00009d01 	andeq	r9, r0, r1, lsl #26
    292c:	59000300 	stmdbpl	r0, {r8, r9}
    2930:	02000000 	andeq	r0, r0, #0, 0
    2934:	0d0efb01 	vstreq	d15, [lr, #-4]
    2938:	01010100 	mrseq	r0, (UNDEF: 17)
    293c:	00000001 	andeq	r0, r0, r1
    2940:	01000001 	tsteq	r0, r1
    2944:	696c2f2e 	stmdbvs	ip!, {r1, r2, r3, r5, r8, r9, sl, fp, sp}^
    2948:	2f006362 	svccs	0x00006362
    294c:	72657355 	rsbvc	r7, r5, #1409286145	; 0x54000001
    2950:	696d2f73 	stmdbvs	sp!, {r0, r1, r4, r5, r6, r8, r9, sl, fp, sp}^
    2954:	2f73656c 	svccs	0x0073656c
    2958:	72756f53 	rsbsvc	r6, r5, #332	; 0x14c
    295c:	632f6563 			; <UNDEFINED> instruction: 0x632f6563
    2960:	30343273 	eorscc	r3, r4, r3, ror r2
    2964:	6c2f786c 	stcvs	8, cr7, [pc], #-432	; 27bc <__code_start__-0x5844>
    2968:	69706269 	ldmdbvs	r0!, {r0, r3, r5, r6, r9, sp, lr}^
    296c:	636e692f 	cmnvs	lr, #770048	; 0xbc000
    2970:	6564756c 	strbvs	r7, [r4, #-1388]!	; 0xfffffa94
    2974:	74730000 	ldrbtvc	r0, [r3], #-0
    2978:	79706372 	ldmdbvc	r0!, {r1, r4, r5, r6, r8, r9, sp, lr}^
    297c:	0100632e 	tsteq	r0, lr, lsr #6
    2980:	70720000 	rsbsvc	r0, r2, r0
    2984:	00682e69 	rsbeq	r2, r8, r9, ror #28
    2988:	00000002 	andeq	r0, r0, r2
    298c:	05002a05 	streq	r2, [r0, #-2565]	; 0xfffff5fb
    2990:	00a29802 	adceq	r9, r2, r2, lsl #16
    2994:	05051400 	streq	r1, [r5, #-1024]	; 0xfffffc00
    2998:	22051313 	andcs	r1, r5, #1275068416	; 0x4c000000
    299c:	01040200 	mrseq	r0, R12_usr
    29a0:	000b052e 	andeq	r0, fp, lr, lsr #10
    29a4:	01010402 	tsteq	r1, r2, lsl #8
    29a8:	02001505 	andeq	r1, r0, #20971520	; 0x1400000
    29ac:	01060104 	tsteq	r6, r4, lsl #2
    29b0:	02000b05 	andeq	r0, r0, #5120	; 0x1400
    29b4:	052e0104 	streq	r0, [lr, #-260]!	; 0xfffffefc
    29b8:	04020013 	streq	r0, [r2], #-19	; 0xffffffed
    29bc:	0b052e01 	bleq	14e1c8 <__bss_end__+0x1431b8>
    29c0:	01040200 	mrseq	r0, R12_usr
    29c4:	0004022e 	andeq	r0, r4, lr, lsr #4
    29c8:	00fd0101 	rscseq	r0, sp, r1, lsl #2
    29cc:	00030000 	andeq	r0, r3, r0
    29d0:	000000bf 	strheq	r0, [r0], -pc	; <UNPREDICTABLE>
    29d4:	0efb0102 	cdpeq	1, 15, cr0, cr11, cr2, {0}
    29d8:	0101000d 	tsteq	r1, sp
    29dc:	00000101 	andeq	r0, r0, r1, lsl #2
    29e0:	00000100 	andeq	r0, r0, r0, lsl #2
    29e4:	6c2f2e01 	stcvs	14, cr2, [pc], #-4	; 29e8 <__code_start__-0x5618>
    29e8:	00636269 	rsbeq	r6, r3, r9, ror #4
    29ec:	6573552f 	ldrbvs	r5, [r3, #-1327]!	; 0xfffffad1
    29f0:	6d2f7372 	stcvs	3, cr7, [pc, #-456]!	; 2830 <__code_start__-0x57d0>
    29f4:	73656c69 	cmnvc	r5, #26880	; 0x6900
    29f8:	756f532f 	strbvc	r5, [pc, #-815]!	; 26d1 <__code_start__-0x592f>
    29fc:	2f656372 	svccs	0x00656372
    2a00:	34327363 	ldrtcc	r7, [r2], #-867	; 0xfffffc9d
    2a04:	2f786c30 	svccs	0x00786c30
    2a08:	7062696c 	rsbvc	r6, r2, ip, ror #18
    2a0c:	6e692f69 	cdpvs	15, 6, cr2, cr9, cr9, {3}
    2a10:	64756c63 	ldrbtvs	r6, [r5], #-3171	; 0xfffff39d
    2a14:	6f2f0065 	svcvs	0x002f0065
    2a18:	682f7470 	stmdavs	pc!, {r4, r5, r6, sl, ip, sp, lr}	; <UNPREDICTABLE>
    2a1c:	62656d6f 	rsbvs	r6, r5, #7104	; 0x1bc0
    2a20:	2f776572 	svccs	0x00776572
    2a24:	6c6c6543 	cfstr64vs	mvdx6, [ip], #-268	; 0xfffffef4
    2a28:	612f7261 			; <UNDEFINED> instruction: 0x612f7261
    2a2c:	6e2d6d72 	mcrvs	13, 1, r6, cr13, cr2, {3}
    2a30:	2d656e6f 	stclcs	14, cr6, [r5, #-444]!	; 0xfffffe44
    2a34:	69626165 	stmdbvs	r2!, {r0, r2, r5, r6, r8, sp, lr}^
    2a38:	392f392d 	stmdbcc	pc!, {r0, r2, r3, r5, r8, fp, ip, sp}	; <UNPREDICTABLE>
    2a3c:	3130322d 	teqcc	r0, sp, lsr #4
    2a40:	2d347139 	ldfcss	f7, [r4, #-228]!	; 0xffffff1c
    2a44:	30317363 	eorscc	r7, r1, r3, ror #6
    2a48:	6c2f6537 	cfstr32vs	mvfx6, [pc], #-220	; 2974 <__code_start__-0x568c>
    2a4c:	672f6269 	strvs	r6, [pc, -r9, ror #4]!
    2a50:	612f6363 			; <UNDEFINED> instruction: 0x612f6363
    2a54:	6e2d6d72 	mcrvs	13, 1, r6, cr13, cr2, {3}
    2a58:	2d656e6f 	stclcs	14, cr6, [r5, #-444]!	; 0xfffffe44
    2a5c:	69626165 	stmdbvs	r2!, {r0, r2, r5, r6, r8, sp, lr}^
    2a60:	322e392f 	eorcc	r3, lr, #770048	; 0xbc000
    2a64:	692f312e 	stmdbvs	pc!, {r1, r2, r3, r5, r8, ip, sp}	; <UNPREDICTABLE>
    2a68:	756c636e 	strbvc	r6, [ip, #-878]!	; 0xfffffc92
    2a6c:	00006564 	andeq	r6, r0, r4, ror #10
    2a70:	6e727473 	mrcvs	4, 3, r7, cr2, cr3, {3}
    2a74:	2e706d63 	cdpcs	13, 7, cr6, cr0, cr3, {3}
    2a78:	00010063 	andeq	r0, r1, r3, rrx
    2a7c:	69707200 	ldmdbvs	r0!, {r9, ip, sp, lr}^
    2a80:	0200682e 	andeq	r6, r0, #3014656	; 0x2e0000
    2a84:	74730000 	ldrbtvc	r0, [r3], #-0
    2a88:	66656464 	strbtvs	r6, [r5], -r4, ror #8
    2a8c:	0300682e 	movweq	r6, #2094	; 0x82e
    2a90:	05000000 	streq	r0, [r0, #-0]
    2a94:	02050039 	andeq	r0, r5, #57, 0	; 0x39
    2a98:	0000a2b0 			; <UNDEFINED> instruction: 0x0000a2b0
    2a9c:	13050515 	movwne	r0, #21781	; 0x5515
    2aa0:	060a0513 			; <UNDEFINED> instruction: 0x060a0513
    2aa4:	2f0c052e 	svccs	0x000c052e
    2aa8:	052e1305 	streq	r1, [lr, #-773]!	; 0xfffffcfb
    2aac:	09052e0b 	stmdbeq	r5, {r0, r1, r3, r9, sl, fp, sp}
    2ab0:	0a054a06 	beq	1552d0 <__bss_end__+0x14a2c0>
    2ab4:	05010611 	streq	r0, [r1, #-1553]	; 0xfffff9ef
    2ab8:	01054e0c 	tsteq	r5, ip, lsl #28
    2abc:	060d052f 	streq	r0, [sp], -pc, lsr #10
    2ac0:	061b052b 	ldreq	r0, [fp], -fp, lsr #10
    2ac4:	02022e01 	andeq	r2, r2, #1, 28
    2ac8:	8a010100 	bhi	42ed0 <__bss_end__+0x37ec0>
    2acc:	03000000 	movweq	r0, #0
    2ad0:	00006e00 	andeq	r6, r0, r0, lsl #28
    2ad4:	fb010200 	blx	432de <__bss_end__+0x382ce>
    2ad8:	01000d0e 	tsteq	r0, lr, lsl #26
    2adc:	00010101 	andeq	r0, r1, r1, lsl #2
    2ae0:	00010000 	andeq	r0, r1, r0
    2ae4:	2f2e0100 	svccs	0x002e0100
    2ae8:	66617473 			; <UNDEFINED> instruction: 0x66617473
    2aec:	72732d66 	rsbsvc	r2, r3, #6528	; 0x1980
    2af0:	552f0063 	strpl	r0, [pc, #-99]!	; 2a95 <__code_start__-0x556b>
    2af4:	73726573 	cmnvc	r2, #482344960	; 0x1cc00000
    2af8:	6c696d2f 	stclvs	13, cr6, [r9], #-188	; 0xffffff44
    2afc:	532f7365 			; <UNDEFINED> instruction: 0x532f7365
    2b00:	6372756f 	cmnvs	r2, #465567744	; 0x1bc00000
    2b04:	73632f65 	cmnvc	r3, #404	; 0x194
    2b08:	6c303432 	cfldrsvs	mvf3, [r0], #-200	; 0xffffff38
    2b0c:	696c2f78 	stmdbvs	ip!, {r3, r4, r5, r6, r8, r9, sl, fp, sp}^
    2b10:	2f697062 	svccs	0x00697062
    2b14:	6c636e69 	stclvs	14, cr6, [r3], #-420	; 0xfffffe5c
    2b18:	00656475 	rsbeq	r6, r5, r5, ror r4
    2b1c:	66656400 	strbtvs	r6, [r5], -r0, lsl #8
    2b20:	746c7561 	strbtvc	r7, [ip], #-1377	; 0xfffffa9f
    2b24:	6265722d 	rsbvs	r7, r5, #-805306366	; 0xd0000002
    2b28:	2d746f6f 	ldclcs	15, cr6, [r4, #-444]!	; 0xfffffe44
    2b2c:	6c6c6163 	stfvse	f6, [ip], #-396	; 0xfffffe74
    2b30:	2e74756f 	cdpcs	5, 7, cr7, cr4, cr15, {3}
    2b34:	00010063 	andeq	r0, r1, r3, rrx
    2b38:	69707200 	ldmdbvs	r0!, {r9, ip, sp, lr}^
    2b3c:	0200682e 	andeq	r6, r0, #3014656	; 0x2e0000
    2b40:	05000000 	streq	r0, [r0, #-0]
    2b44:	0205001b 	andeq	r0, r5, #27, 0
    2b48:	0000a2e0 	andeq	sl, r0, r0, ror #5
    2b4c:	011c0514 	tsteq	ip, r4, lsl r5
    2b50:	01060105 	tsteq	r6, r5, lsl #2
    2b54:	01000202 	tsteq	r0, r2, lsl #4
    2b58:	Address 0x0000000000002b58 is out of bounds.


Disassembly of section .debug_str:

00000000 <.debug_str>:
   0:	765f6b63 	ldrbvc	r6, [pc], -r3, ror #22
   4:	6f627265 	svcvs	0x00627265
   8:	705f6573 	subsvc	r6, pc, r3, ror r5	; <UNPREDICTABLE>
   c:	616b6300 	cmnvs	fp, r0, lsl #6
  10:	636f6c6c 	cmnvs	pc, #108, 24	; 0x6c00
  14:	63727300 	cmnvs	r2, #0, 6
  18:	636f6c5f 	cmnvs	pc, #24320	; 0x5f00
  1c:	006b6d5f 	rsbeq	r6, fp, pc, asr sp
  20:	656e696c 	strbvs	r6, [lr, #-2412]!	; 0xfffff694
  24:	6e006f6e 	cdpvs	15, 0, cr6, cr0, cr14, {3}
  28:	616d746f 	cmnvs	sp, pc, ror #8
  2c:	63006e69 	movwvs	r6, #3689	; 0xe69
  30:	65685f6b 	strbvs	r5, [r8, #-3947]!	; 0xfffff095
  34:	655f7061 	ldrbvs	r7, [pc, #-97]	; ffffffdb <__bss_end__+0xffff4fcb>
  38:	726f7272 	rsbvc	r7, pc, #536870919	; 0x20000007
  3c:	69660073 	stmdbvs	r6!, {r0, r1, r4, r5, r6}^
  40:	7500656c 	strvc	r6, [r0, #-1388]	; 0xfffffa94
  44:	6769736e 	strbvs	r7, [r9, -lr, ror #6]!
  48:	2064656e 	rsbcs	r6, r4, lr, ror #10
  4c:	72616863 	rsbvc	r6, r1, #6488064	; 0x630000
  50:	656c6300 	strbvs	r6, [ip, #-768]!	; 0xfffffd00
  54:	725f6e61 	subsvc	r6, pc, #1552	; 0x610
  58:	6f6f6265 	svcvs	0x006f6265
  5c:	65740074 	ldrbvs	r0, [r4, #-116]!	; 0xffffff8c
  60:	2d737473 	cfldrdcs	mvd7, [r3, #-460]!	; 0xfffffe34
  64:	2f302e32 	svccs	0x00302e32
  68:	74726170 	ldrbtvc	r6, [r2], #-368	; 0xfffffe90
  6c:	65742d31 	ldrbvs	r2, [r4, #-3377]!	; 0xfffff2cf
  70:	2d357473 	cfldrscs	mvf7, [r5, #-460]!	; 0xfffffe34
  74:	622d6f6e 	eorvs	r6, sp, #440	; 0x1b8
  78:	632e6775 			; <UNDEFINED> instruction: 0x632e6775
  7c:	6f687300 	svcvs	0x00687300
  80:	75207472 	strvc	r7, [r0, #-1138]!	; 0xfffffb8e
  84:	6769736e 	strbvs	r7, [r9, -lr, ror #6]!
  88:	2064656e 	rsbcs	r6, r4, lr, ror #10
  8c:	00746e69 	rsbseq	r6, r4, r9, ror #28
  90:	6573552f 	ldrbvs	r5, [r3, #-1327]!	; 0xfffffad1
  94:	6d2f7372 	stcvs	3, cr7, [pc, #-456]!	; fffffed4 <__bss_end__+0xffff4ec4>
  98:	73656c69 	cmnvc	r5, #26880	; 0x6900
  9c:	756f532f 	strbvc	r5, [pc, #-815]!	; fffffd75 <__bss_end__+0xffff4d65>
  a0:	2f656372 	svccs	0x00656372
  a4:	34327363 	ldrtcc	r7, [r2], #-867	; 0xfffffc9d
  a8:	2f786c30 	svccs	0x00786c30
  ac:	7362616c 	cmnvc	r2, #27
  b0:	642d362f 	strtvs	r3, [sp], #-1583	; 0xfffff9d1
  b4:	67756265 	ldrbvs	r6, [r5, -r5, ror #4]!
  b8:	6c6c612d 	stfvse	f6, [ip], #-180	; 0xffffff4c
  bc:	632f636f 			; <UNDEFINED> instruction: 0x632f636f
  c0:	0065646f 	rsbeq	r6, r5, pc, ror #8
  c4:	636e7566 	cmnvs	lr, #427819008	; 0x19800000
  c8:	69707200 	ldmdbvs	r0!, {r9, ip, sp, lr}^
  cc:	6e61725f 	mcrvs	2, 3, r7, cr1, cr15, {2}
  d0:	00323364 	eorseq	r3, r2, r4, ror #6
  d4:	55465f5f 	strbpl	r5, [r6, #-3935]	; 0xfffff0a1
  d8:	4954434e 	ldmdbmi	r4, {r1, r2, r3, r6, r8, r9, lr}^
  dc:	5f5f4e4f 	svcpl	0x005f4e4f
  e0:	6e6f6c00 	cdpvs	12, 6, cr6, cr15, cr0, {0}
  e4:	6f6c2067 	svcvs	0x006c2067
  e8:	7520676e 	strvc	r6, [r0, #-1902]!	; 0xfffff892
  ec:	6769736e 	strbvs	r7, [r9, -lr, ror #6]!
  f0:	2064656e 	rsbcs	r6, r4, lr, ror #10
  f4:	00746e69 	rsbseq	r6, r4, r9, ror #28
  f8:	676e6f6c 	strbvs	r6, [lr, -ip, ror #30]!
  fc:	6e6f6c20 	cdpvs	12, 6, cr6, cr15, cr0, {1}
 100:	6e692067 	cdpvs	0, 6, cr2, cr9, cr7, {3}
 104:	70720074 	rsbsvc	r0, r2, r4, ror r0
 108:	75705f69 	ldrbvc	r5, [r0, #-3945]!	; 0xfffff097
 10c:	61686374 	smcvs	34356	; 0x8634
 110:	4e470072 	mcrmi	0, 2, r0, cr7, cr2, {3}
 114:	39432055 	stmdbcc	r3, {r0, r2, r4, r6, sp}^
 118:	2e392039 	mrccs	0, 1, r2, cr9, cr9, {1}
 11c:	20312e32 	eorscs	r2, r1, r2, lsr lr
 120:	39313032 	ldmdbcc	r1!, {r1, r4, r5, ip, sp}
 124:	35323031 	ldrcc	r3, [r2, #-49]!	; 0xffffffcf
 128:	65722820 	ldrbvs	r2, [r2, #-2080]!	; 0xfffff7e0
 12c:	7361656c 	cmnvc	r1, #108, 10	; 0x1b000000
 130:	5b202965 	blpl	80a6cc <__bss_end__+0x7ff6bc>
 134:	2f4d5241 	svccs	0x004d5241
 138:	2d6d7261 	sfmcs	f7, 2, [sp, #-388]!	; 0xfffffe7c
 13c:	72622d39 	rsbvc	r2, r2, #3648	; 0xe40
 140:	68636e61 	stmdavs	r3!, {r0, r5, r6, r9, sl, fp, sp, lr}^
 144:	76657220 	strbtvc	r7, [r5], -r0, lsr #4
 148:	6f697369 	svcvs	0x00697369
 14c:	3732206e 	ldrcc	r2, [r2, -lr, rrx]!
 150:	39393537 	ldmdbcc	r9!, {r0, r1, r2, r4, r5, r8, sl, ip, sp}
 154:	6d2d205d 	stcvs	0, cr2, [sp, #-372]!	; 0xfffffe8c
 158:	3d757063 	ldclcc	0, cr7, [r5, #-396]!	; 0xfffffe74
 15c:	316d7261 	cmncc	sp, r1, ror #4
 160:	6a363731 	bvs	d8de2c <__bss_end__+0xd82e1c>
 164:	732d667a 			; <UNDEFINED> instruction: 0x732d667a
 168:	746d2d20 	strbtvc	r2, [sp], #-3360	; 0xfffff2e0
 16c:	3d656e75 	stclcc	14, cr6, [r5, #-468]!	; 0xfffffe2c
 170:	316d7261 	cmncc	sp, r1, ror #4
 174:	6a363731 	bvs	d8de40 <__bss_end__+0xd82e30>
 178:	732d667a 			; <UNDEFINED> instruction: 0x732d667a
 17c:	666d2d20 	strbtvs	r2, [sp], -r0, lsr #26
 180:	74616f6c 	strbtvc	r6, [r1], #-3948	; 0xfffff094
 184:	6962612d 	stmdbvs	r2!, {r0, r2, r3, r5, r8, sp, lr}^
 188:	666f733d 			; <UNDEFINED> instruction: 0x666f733d
 18c:	6d2d2074 	stcvs	0, cr2, [sp, #-464]!	; 0xfffffe30
 190:	206d7261 	rsbcs	r7, sp, r1, ror #4
 194:	72616d2d 	rsbvc	r6, r1, #2880	; 0xb40
 198:	613d6863 	teqvs	sp, r3, ror #16
 19c:	36766d72 			; <UNDEFINED> instruction: 0x36766d72
 1a0:	2d207a6b 	vstmdbcs	r0!, {s14-s120}
 1a4:	62646767 	rsbvs	r6, r4, #27000832	; 0x19c0000
 1a8:	204f2d20 	subcs	r2, pc, r0, lsr #26
 1ac:	6474732d 	ldrbtvs	r7, [r4], #-813	; 0xfffffcd3
 1b0:	756e673d 	strbvc	r6, [lr, #-1853]!	; 0xfffff8c3
 1b4:	2d203939 			; <UNDEFINED> instruction: 0x2d203939
 1b8:	65726666 	ldrbvs	r6, [r2, #-1638]!	; 0xfffff99a
 1bc:	61747365 	cmnvs	r4, r5, ror #6
 1c0:	6e69646e 	cdpvs	4, 6, cr6, cr9, cr14, {3}
 1c4:	6b630067 	blvs	18c0368 <__bss_end__+0x18b5358>
 1c8:	65657266 	strbvs	r7, [r5, #-614]!	; 0xfffffd9a
 1cc:	6f687300 	svcvs	0x00687300
 1d0:	69207472 	stmdbvs	r0!, {r1, r4, r5, r6, sl, ip, sp, lr}
 1d4:	7300746e 	movwvc	r7, #1134	; 0x46e
 1d8:	6c5f6372 	mrrcvs	3, 7, r6, pc, cr2	; <UNPREDICTABLE>
 1dc:	745f636f 	ldrbvc	r6, [pc], #-879	; 1e4 <__code_start__-0x7e1c>
 1e0:	5f6b6300 	svcpl	0x006b6300
 1e4:	5f727470 	svcpl	0x00727470
 1e8:	625f6e69 	subsvs	r6, pc, #1680	; 0x690
 1ec:	6b636f6c 	blvs	18dbfa4 <__bss_end__+0x18d0f94>
 1f0:	72646800 	rsbvc	r6, r4, #0, 16
 1f4:	6200745f 	andvs	r7, r0, #1593835520	; 0x5f000000
 1f8:	6b636f6c 	blvs	18dbfb0 <__bss_end__+0x18d0fa0>
 1fc:	0064695f 	rsbeq	r6, r4, pc, asr r9
 200:	45455246 	strbmi	r5, [r5, #-582]	; 0xfffffdba
 204:	626e0044 	rsbvs	r0, lr, #68, 0	; 0x44
 208:	73657479 	cmnvc	r5, #2030043136	; 0x79000000
 20c:	6c6c615f 	stfvse	f6, [ip], #-380	; 0xfffffe84
 210:	5200636f 	andpl	r6, r0, #-1140850687	; 0xbc000001
 214:	4f5a4445 	svcmi	0x005a4445
 218:	565f454e 	ldrbpl	r4, [pc], -lr, asr #10
 21c:	52004c41 	andpl	r4, r0, #16640	; 0x4100
 220:	4f5a4445 	svcmi	0x005a4445
 224:	4e5f454e 	cdpmi	5, 5, cr4, cr15, cr14, {2}
 228:	45545942 	ldrbmi	r5, [r4, #-2370]	; 0xfffff6be
 22c:	6b630053 	blvs	18c0380 <__bss_end__+0x18b5370>
 230:	7269665f 	rsbvc	r6, r9, #99614720	; 0x5f00000
 234:	685f7473 	ldmdavs	pc, {r0, r1, r4, r5, r6, sl, ip, sp, lr}^	; <UNPREDICTABLE>
 238:	75007264 	strvc	r7, [r0, #-612]	; 0xfffffd9c
 23c:	38746e69 	ldmdacc	r4!, {r0, r3, r5, r6, r9, sl, fp, sp, lr}^
 240:	6100745f 	tstvs	r0, pc, asr r4
 244:	636f6c6c 	cmnvs	pc, #108, 24	; 0x6c00
 248:	73696c5f 	cmnvc	r9, #24320	; 0x5f00
 24c:	656d0074 	strbvs	r0, [sp, #-116]!	; 0xffffff8c
 250:	7465736d 	strbtvc	r7, [r5], #-877	; 0xfffffc93
 254:	5f6b6300 	svcpl	0x006b6300
 258:	00726468 	rsbseq	r6, r2, r8, ror #8
 25c:	6f6c6c61 	svcvs	0x006c6c61
 260:	6f6c5f63 	svcvs	0x006c5f63
 264:	74730063 	ldrbtvc	r0, [r3], #-99	; 0xffffff9d
 268:	00657461 	rsbeq	r7, r5, r1, ror #8
 26c:	73666572 	cmnvc	r6, #478150656	; 0x1c800000
 270:	6174735f 	cmnvs	r4, pc, asr r3
 274:	75007472 	strvc	r7, [r0, #-1138]	; 0xfffffb8e
 278:	33746e69 	cmncc	r4, #1680	; 0x690
 27c:	00745f32 	rsbseq	r5, r4, r2, lsr pc
 280:	746e6975 	strbtvc	r6, [lr], #-2421	; 0xfffff68b
 284:	745f3631 	ldrbvc	r3, [pc], #-1585	; 28c <__code_start__-0x7d74>
 288:	5f6b6300 	svcpl	0x006b6300
 28c:	5f727470 	svcpl	0x00727470
 290:	615f7369 	cmpvs	pc, r9, ror #6
 294:	636f6c6c 	cmnvs	pc, #108, 24	; 0x6c00
 298:	63006465 	movwvs	r6, #1125	; 0x465
 29c:	656e5f6b 	strbvs	r5, [lr, #-3947]!	; 0xfffff095
 2a0:	685f7478 	ldmdavs	pc, {r3, r4, r5, r6, sl, ip, sp, lr}^	; <UNPREDICTABLE>
 2a4:	63007264 	movwvs	r7, #612	; 0x264
 2a8:	6c6c616b 	stfvse	f6, [ip], #-428	; 0xfffffe54
 2ac:	632e636f 			; <UNDEFINED> instruction: 0x632e636f
 2b0:	66657200 	strbtvs	r7, [r5], -r0, lsl #4
 2b4:	696d5f73 	stmdbvs	sp!, {r0, r1, r4, r5, r6, r8, r9, sl, fp, ip, lr}^
 2b8:	656c6464 	strbvs	r6, [ip, #-1124]!	; 0xfffffb9c
 2bc:	4c4c4100 	stfmie	f4, [ip], {-0}
 2c0:	4445434f 	strbmi	r4, [r5], #-847	; 0xfffffcb1
 2c4:	5f6b6300 	svcpl	0x006b6300
 2c8:	5f726468 	svcpl	0x00726468
 2cc:	72617473 	rsbvc	r7, r1, #1929379840	; 0x73000000
 2d0:	6b630074 	blvs	18c04a8 <__bss_end__+0x18b5498>
 2d4:	7264685f 	rsbvc	r6, r4, #6225920	; 0x5f0000
 2d8:	646e655f 	strbtvs	r6, [lr], #-1375	; 0xfffffaa1
 2dc:	65726600 	ldrbvs	r6, [r2, #-1536]!	; 0xfffffa00
 2e0:	6f6c5f65 	svcvs	0x006c5f65
 2e4:	6b630063 	blvs	18c0478 <__bss_end__+0x18b5468>
 2e8:	79626e5f 	stmdbvc	r2!, {r0, r1, r2, r3, r4, r6, r9, sl, fp, sp, lr}^
 2ec:	00736574 	rsbseq	r6, r3, r4, ror r5
 2f0:	6d5f726b 	lfmvs	f7, 2, [pc, #-428]	; 14c <__code_start__-0x7eb4>
 2f4:	6f6c6c61 	svcvs	0x006c6c61
 2f8:	656e0063 	strbvs	r0, [lr, #-99]!	; 0xffffff9d
 2fc:	68007478 	stmdavs	r0, {r3, r4, r5, r6, sl, ip, sp, lr}
 300:	65646165 	strbvs	r6, [r4, #-357]!	; 0xfffffe9b
 304:	72700072 	rsbsvc	r0, r0, #114, 0	; 0x72
 308:	00707665 	rsbseq	r7, r0, r5, ror #12
 30c:	67696c61 	strbvs	r6, [r9, -r1, ror #24]!
 310:	726b006e 	rsbvc	r0, fp, #110, 0	; 0x6e
 314:	6572665f 	ldrbvs	r6, [r2, #-1631]!	; 0xfffff9a1
 318:	72660065 	rsbvc	r0, r6, #101, 0	; 0x65
 31c:	00706565 	rsbseq	r6, r0, r5, ror #10
 320:	696e756e 	stmdbvs	lr!, {r1, r2, r3, r5, r6, r8, sl, ip, sp, lr}^
 324:	6b007374 	blvs	1d0fc <__bss_end__+0x120ec>
 328:	616d2d72 	smcvs	53970	; 0xd2d2
 32c:	636f6c6c 	cmnvs	pc, #108, 24	; 0x6c00
 330:	6400632e 	strvs	r6, [r0], #-814	; 0xfffffcd2
 334:	6c62756f 	cfstr64vs	mvdx7, [r2], #-444	; 0xfffffe44
 338:	61620065 	cmnvs	r2, r5, rrx
 33c:	73006573 	movwvc	r6, #1395	; 0x573
 340:	006b7262 	rsbeq	r7, fp, r2, ror #4
 344:	65726f6d 	ldrbvs	r6, [r2, #-3949]!	; 0xfffff093
 348:	65726f63 	ldrbvs	r6, [r2, #-3939]!	; 0xfffff09d
 34c:	7a697300 	bvc	1a5cf54 <__bss_end__+0x1a51f44>
 350:	65480065 	strbvs	r0, [r8, #-101]	; 0xffffff9b
 354:	72656461 	rsbvc	r6, r5, #1627389952	; 0x61000000
 358:	61747300 	cmnvs	r4, r0, lsl #6
 35c:	745f6b63 	ldrbvc	r6, [pc], #-2915	; 364 <__code_start__-0x7c9c>
 360:	6d00706f 	stcvs	0, cr7, [r0, #-444]	; 0xfffffe44
 364:	5f6b7261 	svcpl	0x006b7261
 368:	006c6c61 	rsbeq	r6, ip, r1, ror #24
 36c:	6c706d69 	ldclvs	13, cr6, [r0], #-420	; 0xfffffe5c
 370:	6e656d65 	cdpvs	13, 6, cr6, cr5, cr5, {3}
 374:	68745f74 	ldmdavs	r4!, {r2, r4, r5, r6, r8, r9, sl, fp, ip, lr}^
 378:	5f007369 	svcpl	0x00007369
 37c:	7373625f 	cmnvc	r3, #-268435451	; 0xf0000005
 380:	6174735f 	cmnvs	r4, pc, asr r3
 384:	5f5f7472 	svcpl	0x005f7472
 388:	6c626e00 	stclvs	14, cr6, [r2], #-0
 38c:	736b636f 	cmnvc	fp, #-1140850687	; 0xbc000001
 390:	696e6900 	stmdbvs	lr!, {r8, fp, sp, lr}^
 394:	00705f74 	rsbseq	r5, r0, r4, ror pc
 398:	7479626e 	ldrbtvc	r6, [r9], #-622	; 0xfffffd92
 39c:	665f7365 	ldrbvs	r7, [pc], -r5, ror #6
 3a0:	64656572 	strbtvs	r6, [r5], #-1394	; 0xfffffa8e
 3a4:	646c6f00 	strbtvs	r6, [ip], #-3840	; 0xfffff100
 3a8:	72616d5f 	rsbvc	r6, r1, #6080	; 0x17c0
 3ac:	6e69006b 	cdpvs	0, 6, cr0, cr9, cr11, {3}
 3b0:	6d657263 	sfmvs	f7, 2, [r5, #-396]!	; 0xfffffe74
 3b4:	00746e65 	rsbseq	r6, r4, r5, ror #28
 3b8:	665f6b63 	ldrbvs	r6, [pc], -r3, ror #22
 3bc:	5f646e69 	svcpl	0x00646e69
 3c0:	6b61656c 	blvs	1859978 <__bss_end__+0x184e968>
 3c4:	616d0073 	smcvs	53251	; 0xd003
 3c8:	5f656279 	svcpl	0x00656279
 3cc:	6f727265 	svcvs	0x00727265
 3d0:	63007372 	movwvs	r7, #882	; 0x372
 3d4:	63675f6b 	cmnvs	r7, #428	; 0x1ac
 3d8:	645f5f00 	ldrbvs	r5, [pc], #-3840	; 3e0 <__code_start__-0x7c20>
 3dc:	5f617461 	svcpl	0x00617461
 3e0:	5f646e65 	svcpl	0x00646e65
 3e4:	7564005f 	strbvc	r0, [r4, #-95]!	; 0xffffffa1
 3e8:	725f706d 	subsvc	r7, pc, #109, 0	; 0x6d
 3ec:	00736765 	rsbseq	r6, r3, r5, ror #14
 3f0:	61656c6e 	cmnvs	r5, lr, ror #24
 3f4:	6500736b 	strvs	r7, [r0, #-875]	; 0xfffffc95
 3f8:	726f7272 	rsbvc	r7, pc, #536870919	; 0x20000007
 3fc:	68745f73 	ldmdavs	r4!, {r0, r1, r4, r5, r6, r8, r9, sl, fp, ip, lr}^
 400:	625f7369 	subsvs	r7, pc, #-1543503871	; 0xa4000001
 404:	6b636f6c 	blvs	18dc1bc <__bss_end__+0x18d11ac>
 408:	5f736900 	svcpl	0x00736900
 40c:	00727470 	rsbseq	r7, r2, r0, ror r4
 410:	63656863 	cmnvs	r5, #6488064	; 0x630000
 414:	6f6e5f6b 	svcvs	0x006e5f6b
 418:	61656c5f 	cmnvs	r5, pc, asr ip
 41c:	666e006b 	strbtvs	r0, [lr], -fp, rrx
 420:	64656572 	strbtvs	r6, [r5], #-1394	; 0xfffffa8e
 424:	5f6e6900 	svcpl	0x006e6900
 428:	70616568 	rsbvc	r6, r1, r8, ror #10
 42c:	656e6f00 	strbvs	r6, [lr, #-3840]!	; 0xfffff100
 430:	6300626d 	movwvs	r6, #621	; 0x26d
 434:	63672d6b 	cmnvs	r7, #6848	; 0x1ac0
 438:	6300632e 	movwvs	r6, #814	; 0x32e
 43c:	6b636568 	blvs	18d99e4 <__bss_end__+0x18ce9d4>
 440:	6f68735f 	svcvs	0x0068735f
 444:	5f646c75 	svcpl	0x00646c75
 448:	6b61656c 	blvs	1859a00 <__bss_end__+0x184e9f0>
 44c:	554e4700 	strbpl	r4, [lr, #-1792]	; 0xfffff900
 450:	39394320 	ldmdbcc	r9!, {r5, r8, r9, lr}
 454:	322e3920 	eorcc	r3, lr, #32, 18	; 0x80000
 458:	3220312e 	eorcc	r3, r0, #-2147483637	; 0x8000000b
 45c:	31393130 	teqcc	r9, r0, lsr r1
 460:	20353230 	eorscs	r3, r5, r0, lsr r2
 464:	6c657228 	sfmvs	f7, 2, [r5], #-160	; 0xffffff60
 468:	65736165 	ldrbvs	r6, [r3, #-357]!	; 0xfffffe9b
 46c:	415b2029 	cmpmi	fp, r9, lsr #32
 470:	612f4d52 			; <UNDEFINED> instruction: 0x612f4d52
 474:	392d6d72 	pushcc	{r1, r4, r5, r6, r8, sl, fp, sp, lr}
 478:	6172622d 	cmnvs	r2, sp, lsr #4
 47c:	2068636e 	rsbcs	r6, r8, lr, ror #6
 480:	69766572 	ldmdbvs	r6!, {r1, r4, r5, r6, r8, sl, sp, lr}^
 484:	6e6f6973 			; <UNDEFINED> instruction: 0x6e6f6973
 488:	37373220 	ldrcc	r3, [r7, -r0, lsr #4]!
 48c:	5d393935 			; <UNDEFINED> instruction: 0x5d393935
 490:	636d2d20 	cmnvs	sp, #32, 26	; 0x800
 494:	613d7570 	teqvs	sp, r0, ror r5
 498:	31316d72 	teqcc	r1, r2, ror sp
 49c:	7a6a3637 	bvc	1a8dd80 <__bss_end__+0x1a82d70>
 4a0:	20732d66 	rsbscs	r2, r3, r6, ror #26
 4a4:	75746d2d 	ldrbvc	r6, [r4, #-3373]!	; 0xfffff2d3
 4a8:	613d656e 	teqvs	sp, lr, ror #10
 4ac:	31316d72 	teqcc	r1, r2, ror sp
 4b0:	7a6a3637 	bvc	1a8dd94 <__bss_end__+0x1a82d84>
 4b4:	20732d66 	rsbscs	r2, r3, r6, ror #26
 4b8:	6c666d2d 	stclvs	13, cr6, [r6], #-180	; 0xffffff4c
 4bc:	2d74616f 	ldfcse	f6, [r4, #-444]!	; 0xfffffe44
 4c0:	3d696261 	sfmcc	f6, 2, [r9, #-388]!	; 0xfffffe7c
 4c4:	74666f73 	strbtvc	r6, [r6], #-3955	; 0xfffff08d
 4c8:	616d2d20 	cmnvs	sp, r0, lsr #26
 4cc:	2d206d72 	stccs	13, cr6, [r0, #-456]!	; 0xfffffe38
 4d0:	6372616d 	cmnvs	r2, #1073741851	; 0x4000001b
 4d4:	72613d68 	rsbvc	r3, r1, #104, 26	; 0x1a00
 4d8:	6b36766d 	blvs	d9de94 <__bss_end__+0xd92e84>
 4dc:	672d207a 			; <UNDEFINED> instruction: 0x672d207a
 4e0:	20626467 	rsbcs	r6, r2, r7, ror #8
 4e4:	20674f2d 	rsbcs	r4, r7, sp, lsr #30
 4e8:	6474732d 	ldrbtvs	r7, [r4], #-813	; 0xfffffcd3
 4ec:	756e673d 	strbvc	r6, [lr, #-1853]!	; 0xfffff8c3
 4f0:	2d203939 			; <UNDEFINED> instruction: 0x2d203939
 4f4:	65726666 	ldrbvs	r6, [r2, #-1638]!	; 0xfffff99a
 4f8:	61747365 	cmnvs	r4, r5, ror #6
 4fc:	6e69646e 	cdpvs	4, 6, cr6, cr9, cr14, {3}
 500:	5f5f0067 	svcpl	0x005f0067
 504:	5f737362 	svcpl	0x00737362
 508:	5f646e65 	svcpl	0x00646e65
 50c:	6572005f 	ldrbvs	r0, [r2, #-95]!	; 0xffffffa1
 510:	6e6f7a64 	vnmulvs.f32	s15, s30, s9
 514:	72655f65 	rsbvc	r5, r5, #404	; 0x194
 518:	73726f72 	cmnvc	r2, #456	; 0x1c8
 51c:	64657200 	strbtvs	r7, [r5], #-512	; 0xfffffe00
 520:	656e6f7a 	strbvs	r6, [lr, #-3962]!	; 0xfffff086
 524:	616d6b00 	cmnvs	sp, r0, lsl #22
 528:	636f6c6c 	cmnvs	pc, #108, 24	; 0x6c00
 52c:	616d6b00 	cmnvs	sp, r0, lsl #22
 530:	636f6c6c 	cmnvs	pc, #108, 24	; 0x6c00
 534:	696e695f 	stmdbvs	lr!, {r0, r1, r2, r3, r4, r6, r8, fp, sp, lr}^
 538:	65735f74 	ldrbvs	r5, [r3, #-3956]!	; 0xfffff08c
 53c:	74735f74 	ldrbtvc	r5, [r3], #-3956	; 0xfffff08c
 540:	00747261 	rsbseq	r7, r4, r1, ror #4
 544:	65657773 	strbvs	r7, [r5, #-1907]!	; 0xfffff88d
 548:	656c5f70 	strbvs	r5, [ip, #-3952]!	; 0xfffff090
 54c:	5f006b61 	svcpl	0x00006b61
 550:	7461645f 	strbtvc	r6, [r1], #-1119	; 0xfffffba1
 554:	74735f61 	ldrbtvc	r5, [r3], #-3937	; 0xfffff09f
 558:	5f747261 	svcpl	0x00747261
 55c:	7773005f 			; <UNDEFINED> instruction: 0x7773005f
 560:	5f706565 	svcpl	0x00706565
 564:	65657266 	strbvs	r7, [r5, #-614]!	; 0xfffffd9a
 568:	72617700 	rsbvc	r7, r1, #0, 14
 56c:	6f6e5f6e 	svcvs	0x006e5f6e
 570:	6174735f 	cmnvs	r4, pc, asr r3
 574:	725f7472 	subsvc	r7, pc, #1912602624	; 0x72000000
 578:	705f6665 	subsvc	r6, pc, r5, ror #12
 57c:	746f7400 	strbtvc	r7, [pc], #-1024	; 584 <__code_start__-0x7a7c>
 580:	73006c61 	movwvc	r6, #3169	; 0xc61
 584:	5f657a69 	svcpl	0x00657a69
 588:	2f2e0074 	svccs	0x002e0074
 58c:	6362696c 	cmnvs	r2, #108, 18	; 0x1b0000
 590:	6d656d2f 	stclvs	13, cr6, [r5, #-188]!	; 0xffffff44
 594:	2e746573 	mrccs	5, 3, r6, cr4, cr3, {3}
 598:	4e470063 	cdpmi	0, 4, cr0, cr7, cr3, {3}
 59c:	39432055 	stmdbcc	r3, {r0, r2, r4, r6, sp}^
 5a0:	2e392039 	mrccs	0, 1, r2, cr9, cr9, {1}
 5a4:	20312e32 	eorscs	r2, r1, r2, lsr lr
 5a8:	39313032 	ldmdbcc	r1!, {r1, r4, r5, ip, sp}
 5ac:	35323031 	ldrcc	r3, [r2, #-49]!	; 0xffffffcf
 5b0:	65722820 	ldrbvs	r2, [r2, #-2080]!	; 0xfffff7e0
 5b4:	7361656c 	cmnvc	r1, #108, 10	; 0x1b000000
 5b8:	5b202965 	blpl	80ab54 <__bss_end__+0x7ffb44>
 5bc:	2f4d5241 	svccs	0x004d5241
 5c0:	2d6d7261 	sfmcs	f7, 2, [sp, #-388]!	; 0xfffffe7c
 5c4:	72622d39 	rsbvc	r2, r2, #3648	; 0xe40
 5c8:	68636e61 	stmdavs	r3!, {r0, r5, r6, r9, sl, fp, sp, lr}^
 5cc:	76657220 	strbtvc	r7, [r5], -r0, lsr #4
 5d0:	6f697369 	svcvs	0x00697369
 5d4:	3732206e 	ldrcc	r2, [r2, -lr, rrx]!
 5d8:	39393537 	ldmdbcc	r9!, {r0, r1, r2, r4, r5, r8, sl, ip, sp}
 5dc:	6d2d205d 	stcvs	0, cr2, [sp, #-372]!	; 0xfffffe8c
 5e0:	3d757063 	ldclcc	0, cr7, [r5, #-396]!	; 0xfffffe74
 5e4:	316d7261 	cmncc	sp, r1, ror #4
 5e8:	6a363731 	bvs	d8e2b4 <__bss_end__+0xd832a4>
 5ec:	732d667a 			; <UNDEFINED> instruction: 0x732d667a
 5f0:	746d2d20 	strbtvc	r2, [sp], #-3360	; 0xfffff2e0
 5f4:	3d656e75 	stclcc	14, cr6, [r5, #-468]!	; 0xfffffe2c
 5f8:	316d7261 	cmncc	sp, r1, ror #4
 5fc:	6a363731 	bvs	d8e2c8 <__bss_end__+0xd832b8>
 600:	732d667a 			; <UNDEFINED> instruction: 0x732d667a
 604:	666d2d20 	strbtvs	r2, [sp], -r0, lsr #26
 608:	74616f6c 	strbtvc	r6, [r1], #-3948	; 0xfffff094
 60c:	6962612d 	stmdbvs	r2!, {r0, r2, r3, r5, r8, sp, lr}^
 610:	666f733d 			; <UNDEFINED> instruction: 0x666f733d
 614:	6d2d2074 	stcvs	0, cr2, [sp, #-464]!	; 0xfffffe30
 618:	206d7261 	rsbcs	r7, sp, r1, ror #4
 61c:	72616d2d 	rsbvc	r6, r1, #2880	; 0xb40
 620:	613d6863 	teqvs	sp, r3, ror #16
 624:	36766d72 			; <UNDEFINED> instruction: 0x36766d72
 628:	2d207a6b 	vstmdbcs	r0!, {s14-s120}
 62c:	62646767 	rsbvs	r6, r4, #27000832	; 0x19c0000
 630:	664f2d20 	strbvs	r2, [pc], -r0, lsr #26
 634:	20747361 	rsbscs	r7, r4, r1, ror #6
 638:	6474732d 	ldrbtvs	r7, [r4], #-813	; 0xfffffcd3
 63c:	756e673d 	strbvc	r6, [lr, #-1853]!	; 0xfffff8c3
 640:	2d203939 			; <UNDEFINED> instruction: 0x2d203939
 644:	65726666 	ldrbvs	r6, [r2, #-1638]!	; 0xfffff99a
 648:	61747365 	cmnvs	r4, r5, ror #6
 64c:	6e69646e 	cdpvs	4, 6, cr6, cr9, cr14, {3}
 650:	552f0067 	strpl	r0, [pc, #-103]!	; 5f1 <__code_start__-0x7a0f>
 654:	73726573 	cmnvc	r2, #482344960	; 0x1cc00000
 658:	6c696d2f 	stclvs	13, cr6, [r9], #-188	; 0xffffff44
 65c:	532f7365 			; <UNDEFINED> instruction: 0x532f7365
 660:	6372756f 	cmnvs	r2, #465567744	; 0x1bc00000
 664:	73632f65 	cmnvc	r3, #404	; 0x194
 668:	6c303432 	cfldrsvs	mvf3, [r0], #-200	; 0xffffff38
 66c:	696c2f78 	stmdbvs	ip!, {r3, r4, r5, r6, r8, r9, sl, fp, sp}^
 670:	00697062 	rsbeq	r7, r9, r2, rrx
 674:	73677261 	cmnvc	r7, #268435462	; 0x10000006
 678:	5f617600 	svcpl	0x00617600
 67c:	6e697270 	mcrvs	2, 3, r7, cr9, cr0, {3}
 680:	5f006b74 	svcpl	0x00006b74
 684:	756e675f 	strbvc	r6, [lr, #-1887]!	; 0xfffff8a1
 688:	61765f63 	cmnvs	r6, r3, ror #30
 68c:	73696c5f 	cmnvc	r9, #24320	; 0x5f00
 690:	5f5f0074 	svcpl	0x005f0074
 694:	2e007061 	cdpcs	0, 0, cr7, cr0, cr1, {3}
 698:	62696c2f 	rsbvs	r6, r9, #12032	; 0x2f00
 69c:	72702f63 	rsbsvc	r2, r0, #396	; 0x18c
 6a0:	6b746e69 	blvs	1d1c04c <__bss_end__+0x1d1103c>
 6a4:	5f00632e 	svcpl	0x0000632e
 6a8:	5f61765f 	svcpl	0x0061765f
 6ac:	7473696c 	ldrbtvc	r6, [r3], #-2412	; 0xfffff694
 6b0:	746e6900 	strbtvc	r6, [lr], #-2304	; 0xfffff700
 6b4:	616e7265 	cmnvs	lr, r5, ror #4
 6b8:	75705f6c 	ldrbvc	r5, [r0, #-3948]!	; 0xfffff094
 6bc:	2e006b74 	vmovcs.16	d0[1], r6
 6c0:	62696c2f 	rsbvs	r6, r9, #12032	; 0x2f00
 6c4:	75702f63 	ldrbvc	r2, [r0, #-3939]!	; 0xfffff09d
 6c8:	632e6b74 			; <UNDEFINED> instruction: 0x632e6b74
 6cc:	73666c00 	cmnvc	r6, #0, 24
 6d0:	70720072 	rsbsvc	r0, r2, r2, ror r0
 6d4:	65725f69 	ldrbvs	r5, [r2, #-3945]!	; 0xfffff097
 6d8:	00746573 	rsbseq	r6, r4, r3, ror r5
 6dc:	5f697072 	svcpl	0x00697072
 6e0:	646e6172 	strbtvs	r6, [lr], #-370	; 0xfffffe8e
 6e4:	73003631 	movwvc	r3, #1585	; 0x631
 6e8:	00646565 	rsbeq	r6, r4, r5, ror #10
 6ec:	696c2f2e 	stmdbvs	ip!, {r1, r2, r3, r5, r8, r9, sl, fp, sp}^
 6f0:	722f6362 	eorvc	r6, pc, #-2013265919	; 0x88000001
 6f4:	722d6970 	eorvc	r6, sp, #112, 18	; 0x1c0000
 6f8:	2e646e61 	cdpcs	14, 6, cr6, cr4, cr1, {3}
 6fc:	73690063 	cmnvc	r9, #99, 0	; 0x63
 700:	69676964 	stmdbvs	r7!, {r2, r5, r6, r8, fp, sp, lr}^
 704:	69750074 	ldmdbvs	r5!, {r2, r4, r5, r6}^
 708:	3436746e 	ldrtcc	r7, [r6], #-1134	; 0xfffffb92
 70c:	2e00745f 	cfmvsrcs	mvf0, r7
 710:	62696c2f 	rsbvs	r6, r9, #12032	; 0x2f00
 714:	61762f63 	cmnvs	r6, r3, ror #30
 718:	6972702d 	ldmdbvs	r2!, {r0, r2, r3, r5, ip, sp, lr}^
 71c:	2e6b746e 	cdpcs	4, 6, cr7, cr11, cr14, {3}
 720:	5f5f0063 	svcpl	0x005f0063
 724:	65646f63 	strbvs	r6, [r4, #-3939]!	; 0xfffff09d
 728:	6174735f 	cmnvs	r4, pc, asr r3
 72c:	5f5f7472 	svcpl	0x005f7472
 730:	64697700 	strbtvs	r7, [r9], #-1792	; 0xfffff900
 734:	70006874 	andvc	r6, r0, r4, ror r8
 738:	5f637475 	svcpl	0x00637475
 73c:	5f007066 	svcpl	0x00007066
 740:	6165685f 	cmnvs	r5, pc, asr r8
 744:	74735f70 	ldrbtvc	r5, [r3], #-3952	; 0xfffff090
 748:	5f747261 	svcpl	0x00747261
 74c:	7072005f 	rsbsvc	r0, r2, pc, asr r0
 750:	65735f69 	ldrbvs	r5, [r3, #-3945]!	; 0xfffff097
 754:	756f5f74 	strbvc	r5, [pc, #-3956]!	; fffff7e8 <__bss_end__+0xffff47d8>
 758:	74757074 	ldrbtvc	r7, [r5], #-116	; 0xffffff8c
 75c:	746d6600 	strbtvc	r6, [sp], #-1536	; 0xfffffa00
 760:	6174735f 	cmnvs	r4, pc, asr r3
 764:	73007472 	movwvc	r7, #1138	; 0x472
 768:	61637274 	smcvs	14116	; 0x3724
 76c:	74730074 	ldrbtvc	r0, [r3], #-116	; 0xffffff8c
 770:	79706372 	ldmdbvc	r0!, {r1, r4, r5, r6, r8, r9, sp, lr}^
 774:	67656e00 	strbvs	r6, [r5, -r0, lsl #28]!
 778:	5f00705f 	svcpl	0x0000705f
 77c:	646f635f 	strbtvs	r6, [pc], #-863	; 784 <__code_start__-0x787c>
 780:	6e655f65 	cdpvs	15, 6, cr5, cr5, cr5, {3}
 784:	005f5f64 	subseq	r5, pc, r4, ror #30
 788:	74696d65 	strbtvc	r6, [r9], #-3429	; 0xfffff29b
 78c:	76657200 	strbtvc	r7, [r5], -r0, lsl #4
 790:	65737265 	ldrbvs	r7, [r3, #-613]!	; 0xfffffd9b
 794:	72747300 	rsbsvc	r7, r4, #0, 6
 798:	00706d63 	rsbseq	r6, r0, r3, ror #26
 79c:	73747570 	cmnvc	r4, #112, 10	; 0x1c000000
 7a0:	0070665f 	rsbseq	r6, r0, pc, asr r6
 7a4:	72705f5f 	rsbsvc	r5, r0, #380	; 0x17c
 7a8:	655f676f 	ldrbvs	r6, [pc, #-1903]	; 41 <__code_start__-0x7fbf>
 7ac:	5f5f646e 	svcpl	0x005f646e
 7b0:	6d756e00 	ldclvs	14, cr6, [r5, #-0]
 7b4:	74730031 	ldrbtvc	r0, [r3], #-49	; 0xffffffcf
 7b8:	6d636e72 	stclvs	14, cr6, [r3, #-456]!	; 0xfffffe38
 7bc:	69730070 	ldmdbvs	r3!, {r4, r5, r6}^
 7c0:	64656e67 	strbtvs	r6, [r5], #-3687	; 0xfffff199
 7c4:	7200705f 	andvc	r7, r0, #95, 0	; 0x5f
 7c8:	725f6970 	subsvc	r6, pc, #112, 18	; 0x1c0000
 7cc:	6f6f6265 	svcvs	0x006f6265
 7d0:	65640074 	strbvs	r0, [r4, #-116]!	; 0xffffff8c
 7d4:	5f79616c 	svcpl	0x0079616c
 7d8:	2e00736d 	cdpcs	3, 0, cr7, cr0, cr13, {3}
 7dc:	6174732f 	cmnvs	r4, pc, lsr #6
 7e0:	732d6666 			; <UNDEFINED> instruction: 0x732d6666
 7e4:	632f6372 			; <UNDEFINED> instruction: 0x632f6372
 7e8:	6e61656c 	cdpvs	5, 6, cr6, cr1, cr12, {3}
 7ec:	6265722d 	rsbvs	r7, r5, #-805306366	; 0xd0000002
 7f0:	2e746f6f 	cdpcs	15, 7, cr6, cr4, cr15, {3}
 7f4:	61750063 	cmnvs	r5, r3, rrx
 7f8:	665f7472 			; <UNDEFINED> instruction: 0x665f7472
 7fc:	6873756c 	ldmdavs	r3!, {r2, r3, r5, r6, r8, sl, ip, sp, lr}^
 800:	0078745f 	rsbseq	r7, r8, pc, asr r4
 804:	7473635f 	ldrbtvc	r6, [r3], #-863	; 0xfffffca1
 808:	00747261 	rsbseq	r7, r4, r1, ror #4
 80c:	5f737362 	svcpl	0x00737362
 810:	00646e65 	rsbeq	r6, r4, r5, ror #28
 814:	74726175 	ldrbtvc	r6, [r2], #-373	; 0xfffffe8b
 818:	696e695f 	stmdbvs	lr!, {r0, r1, r2, r3, r4, r6, r8, fp, sp, lr}^
 81c:	75630074 	strbvc	r0, [r3, #-116]!	; 0xffffff8c
 820:	6d6f7473 	cfstrdvs	mvd7, [pc, #-460]!	; 65c <__code_start__-0x79a4>
 824:	616f6c5f 	cmnvs	pc, pc, asr ip	; <UNPREDICTABLE>
 828:	00726564 	rsbseq	r6, r2, r4, ror #10
 82c:	74732f2e 	ldrbtvc	r2, [r3], #-3886	; 0xfffff0d2
 830:	2d666661 	stclcs	6, cr6, [r6, #-388]!	; 0xfffffe7c
 834:	2f637273 	svccs	0x00637273
 838:	61747363 	cmnvs	r4, r3, ror #6
 83c:	632e7472 			; <UNDEFINED> instruction: 0x632e7472
 840:	732f2e00 			; <UNDEFINED> instruction: 0x732f2e00
 844:	66666174 			; <UNDEFINED> instruction: 0x66666174
 848:	6372732d 	cmnvs	r2, #-1275068416	; 0xb4000000
 84c:	7375632f 	cmnvc	r5, #-1140850688	; 0xbc000000
 850:	2d6d6f74 	stclcs	15, cr6, [sp, #-464]!	; 0xfffffe30
 854:	64616f6c 	strbtvs	r6, [r1], #-3948	; 0xfffff094
 858:	632e7265 			; <UNDEFINED> instruction: 0x632e7265
 85c:	62657200 	rsbvs	r7, r5, #0, 4
 860:	5f746f6f 	svcpl	0x00746f6f
 864:	6c6c6163 	stfvse	f6, [ip], #-396	; 0xfffffe74
 868:	0074756f 	rsbseq	r7, r4, pc, ror #10
 86c:	575f4d50 			; <UNDEFINED> instruction: 0x575f4d50
 870:	00474f44 	subeq	r4, r7, r4, asr #30
 874:	33545550 	cmpcc	r4, #80, 10	; 0x14000000
 878:	65730032 	ldrbvs	r0, [r3, #-50]!	; 0xffffffce
 87c:	73755f74 	cmnvc	r5, #116, 30	; 0x1d0
 880:	6c5f7265 	lfmvs	f7, 2, [pc], {101}	; 0x65
 884:	6c657665 	stclvs	6, cr7, [r5], #-404	; 0xfffffe6c
 888:	732f2e00 			; <UNDEFINED> instruction: 0x732f2e00
 88c:	66666174 			; <UNDEFINED> instruction: 0x66666174
 890:	6372732d 	cmnvs	r2, #-1275068416	; 0xb4000000
 894:	6265722f 	rsbvs	r7, r5, #-268435454	; 0xf0000002
 898:	2e746f6f 	cdpcs	15, 7, cr6, cr4, cr15, {3}
 89c:	4d500063 	ldclmi	0, cr0, [r0, #-396]	; 0xfffffe74
 8a0:	5341505f 	movtpl	r5, #4191	; 0x105f
 8a4:	524f5753 	subpl	r5, pc, #21757952	; 0x14c0000
 8a8:	74610044 	strbtvc	r0, [r1], #-68	; 0xffffffbc
 8ac:	6573755f 	ldrbvs	r7, [r3, #-1375]!	; 0xfffffaa1
 8b0:	656c5f72 	strbvs	r5, [ip, #-3954]!	; 0xfffff08e
 8b4:	006c6576 	rsbeq	r6, ip, r6, ror r5
 8b8:	525f4d50 	subspl	r4, pc, #80, 26	; 0x1400
 8bc:	5f435453 	svcpl	0x00435453
 8c0:	46435257 			; <UNDEFINED> instruction: 0x46435257
 8c4:	55465f47 	strbpl	r5, [r6, #-3911]	; 0xfffff0b9
 8c8:	525f4c4c 	subspl	r4, pc, #76, 24	; 0x4c00
 8cc:	54455345 	strbpl	r5, [r5], #-837	; 0xfffffcbb
 8d0:	5f4d5000 	svcpl	0x004d5000
 8d4:	43545352 	cmpmi	r4, #1207959553	; 0x48000001
 8d8:	73706300 	cmnvc	r0, #0, 6
 8dc:	65640072 	strbvs	r0, [r4, #-114]!	; 0xffffff8e
 8e0:	61625f76 	smcvs	9718	; 0x25f6
 8e4:	65697272 	strbvs	r7, [r9, #-626]!	; 0xfffffd8e
 8e8:	65640072 	strbvs	r0, [r4, #-114]!	; 0xffffff8e
 8ec:	5f79616c 	svcpl	0x0079616c
 8f0:	00636573 	rsbeq	r6, r3, r3, ror r5
 8f4:	74732f2e 	ldrbtvc	r2, [r3], #-3886	; 0xfffff0d2
 8f8:	2d666661 	stclcs	6, cr6, [r6, #-388]!	; 0xfffffe7c
 8fc:	2f637273 	svccs	0x00637273
 900:	656d6974 	strbvs	r6, [sp, #-2420]!	; 0xfffff68c
 904:	00632e72 	rsbeq	r2, r3, r2, ror lr
 908:	33544547 	cmpcc	r4, #297795584	; 0x11c00000
 90c:	69740032 	ldmdbvs	r4!, {r1, r4, r5}^
 910:	5f72656d 	svcpl	0x0072656d
 914:	5f746567 	svcpl	0x00746567
 918:	63657375 	cmnvs	r5, #-738197503	; 0xd4000001
 91c:	6c656400 	cfstrdvs	mvd6, [r5], #-0
 920:	755f7961 	ldrbvc	r7, [pc, #-2401]	; ffffffc7 <__bss_end__+0xffff4fb7>
 924:	69740073 	ldmdbvs	r4!, {r0, r1, r4, r5, r6}^
 928:	5f72656d 	svcpl	0x0072656d
 92c:	5f746567 	svcpl	0x00746567
 930:	63657375 	cmnvs	r5, #-738197503	; 0xd4000001
 934:	7761725f 			; <UNDEFINED> instruction: 0x7761725f
 938:	74757000 	ldrbtvc	r7, [r5], #-0
 93c:	62003233 	andvs	r3, r0, #805306371	; 0x30000003
 940:	5f647561 	svcpl	0x00647561
 944:	006c6176 	rsbeq	r6, ip, r6, ror r1
 948:	74617473 	strbtvc	r7, [r1], #-1139	; 0xfffffb8d
 94c:	72617500 	rsbvc	r7, r1, #0, 10
 950:	61635f74 	smcvs	13812	; 0x35f4
 954:	65675f6e 	strbvs	r5, [r7, #-3950]!	; 0xfffff092
 958:	47006374 	smlsdxmi	r0, r4, r3, r6
 95c:	5f4f4950 	svcpl	0x004f4950
 960:	434e5546 	movtmi	r5, #58694	; 0xe546
 964:	54554f5f 	ldrbpl	r4, [r5], #-3935	; 0xfffff0a1
 968:	00545550 	subseq	r5, r4, r0, asr r5
 96c:	5f787561 	svcpl	0x00787561
 970:	69726570 	ldmdbvs	r2!, {r4, r5, r6, r8, sl, sp, lr}^
 974:	00736870 	rsbseq	r6, r3, r0, ror r8
 978:	74726175 	ldrbtvc	r6, [r2], #-373	; 0xfffffe8b
 97c:	7500632e 	strvc	r6, [r0, #-814]	; 0xfffffcd2
 980:	5f747261 	svcpl	0x00747261
 984:	5f6e6163 	svcpl	0x006e6163
 988:	63747570 	cmnvs	r4, #112, 10	; 0x1c000000
 98c:	72617500 	rsbvc	r7, r1, #0, 10
 990:	78745f74 	ldmdavc	r4!, {r2, r4, r5, r6, r8, r9, sl, fp, ip, lr}^
 994:	5f73695f 	svcpl	0x0073695f
 998:	74706d65 	ldrbtvc	r6, [r0], #-3429	; 0xfffff29b
 99c:	50470079 	subpl	r0, r7, r9, ror r0
 9a0:	465f4f49 	ldrbmi	r4, [pc], -r9, asr #30
 9a4:	5f434e55 	svcpl	0x00434e55
 9a8:	30544c41 	subscc	r4, r4, r1, asr #24
 9ac:	49504700 	ldmdbmi	r0, {r8, r9, sl, lr}^
 9b0:	55465f4f 	strbpl	r5, [r6, #-3919]	; 0xfffff0b1
 9b4:	415f434e 	cmpmi	pc, lr, asr #6
 9b8:	0031544c 	eorseq	r5, r1, ip, asr #8
 9bc:	4f495047 	svcmi	0x00495047
 9c0:	4e55465f 	mrcmi	6, 2, r4, cr5, cr15, {2}
 9c4:	4c415f43 	mcrrmi	15, 4, r5, r1, cr3
 9c8:	47003254 	smlsdmi	r0, r4, r2, r3
 9cc:	5f4f4950 	svcpl	0x004f4950
 9d0:	434e5546 	movtmi	r5, #58694	; 0xe546
 9d4:	544c415f 	strbpl	r4, [ip], #-351	; 0xfffffea1
 9d8:	50470033 	subpl	r0, r7, r3, lsr r0
 9dc:	465f4f49 	ldrbmi	r4, [pc], -r9, asr #30
 9e0:	5f434e55 	svcpl	0x00434e55
 9e4:	35544c41 	ldrbcc	r4, [r4, #-3137]	; 0xfffff3bf
 9e8:	6f682f00 	svcvs	0x00682f00
 9ec:	652f656d 	strvs	r6, [pc, #-1389]!	; 487 <__code_start__-0x7b79>
 9f0:	656c676e 	strbvs	r6, [ip, #-1902]!	; 0xfffff892
 9f4:	6c632f72 	stclvs	15, cr2, [r3], #-456	; 0xfffffe38
 9f8:	2f737361 	svccs	0x00737361
 9fc:	34327363 	ldrtcc	r7, [r2], #-867	; 0xfffffc9d
 a00:	2d786c30 	ldclcs	12, cr6, [r8, #-192]!	; 0xffffff40
 a04:	70733232 	rsbsvc	r3, r3, r2, lsr r2
 a08:	696c2f72 	stmdbvs	ip!, {r1, r4, r5, r6, r8, r9, sl, fp, sp}^
 a0c:	2f697062 	svccs	0x00697062
 a10:	66617473 			; <UNDEFINED> instruction: 0x66617473
 a14:	72702d66 	rsbsvc	r2, r0, #6528	; 0x1980
 a18:	74617669 	strbtvc	r7, [r1], #-1641	; 0xfffff997
 a1c:	61620065 	cmnvs	r2, r5, rrx
 a20:	61006475 	tstvs	r0, r5, ror r4
 a24:	655f7875 	ldrbvs	r7, [pc, #-2165]	; 1b7 <__code_start__-0x7e49>
 a28:	6c62616e 	stfvse	f6, [r2], #-440	; 0xfffffe48
 a2c:	75007365 	strvc	r7, [r0, #-869]	; 0xfffffc9b
 a30:	5f747261 	svcpl	0x00747261
 a34:	63746567 	cmnvs	r4, #432013312	; 0x19c00000
 a38:	554e4700 	strbpl	r4, [lr, #-1792]	; 0xfffff900
 a3c:	39394320 	ldmdbcc	r9!, {r5, r8, r9, lr}
 a40:	2e303120 	rsfcssp	f3, f0, f0
 a44:	20312e33 	eorscs	r2, r1, r3, lsr lr
 a48:	31323032 	teqcc	r2, r2, lsr r0
 a4c:	34323830 	ldrtcc	r3, [r2], #-2096	; 0xfffff7d0
 a50:	65722820 	ldrbvs	r2, [r2, #-2080]!	; 0xfffff7e0
 a54:	7361656c 	cmnvc	r1, #108, 10	; 0x1b000000
 a58:	2d202965 			; <UNDEFINED> instruction: 0x2d202965
 a5c:	7570636d 	ldrbvc	r6, [r0, #-877]!	; 0xfffffc93
 a60:	6d72613d 	ldfvse	f6, [r2, #-244]!	; 0xffffff0c
 a64:	36373131 			; <UNDEFINED> instruction: 0x36373131
 a68:	2d667a6a 	vstmdbcs	r6!, {s15-s120}
 a6c:	6d2d2073 	stcvs	0, cr2, [sp, #-460]!	; 0xfffffe34
 a70:	656e7574 	strbvs	r7, [lr, #-1396]!	; 0xfffffa8c
 a74:	6d72613d 	ldfvse	f6, [r2, #-244]!	; 0xffffff0c
 a78:	36373131 			; <UNDEFINED> instruction: 0x36373131
 a7c:	2d667a6a 	vstmdbcs	r6!, {s15-s120}
 a80:	6d2d2073 	stcvs	0, cr2, [sp, #-460]!	; 0xfffffe34
 a84:	616f6c66 	cmnvs	pc, r6, ror #24
 a88:	62612d74 	rsbvs	r2, r1, #116, 26	; 0x1d00
 a8c:	6f733d69 	svcvs	0x00733d69
 a90:	2d207466 	cfstrscs	mvf7, [r0, #-408]!	; 0xfffffe68
 a94:	6d72616d 	ldfvse	f6, [r2, #-436]!	; 0xfffffe4c
 a98:	616d2d20 	cmnvs	sp, r0, lsr #26
 a9c:	3d686372 	stclcc	3, cr6, [r8, #-456]!	; 0xfffffe38
 aa0:	766d7261 	strbtvc	r7, [sp], -r1, ror #4
 aa4:	207a6b36 	rsbscs	r6, sl, r6, lsr fp
 aa8:	6467672d 	strbtvs	r6, [r7], #-1837	; 0xfffff8d3
 aac:	4f2d2062 	svcmi	0x002d2062
 ab0:	732d2067 			; <UNDEFINED> instruction: 0x732d2067
 ab4:	673d6474 			; <UNDEFINED> instruction: 0x673d6474
 ab8:	3939756e 	ldmdbcc	r9!, {r1, r2, r3, r5, r6, r8, sl, ip, sp, lr}
 abc:	66662d20 	strbtvs	r2, [r6], -r0, lsr #26
 ac0:	73656572 	cmnvc	r5, #478150656	; 0x1c800000
 ac4:	646e6174 	strbtvs	r6, [lr], #-372	; 0xfffffe8c
 ac8:	00676e69 	rsbeq	r6, r7, r9, ror #28
 acc:	6c746e63 	ldclvs	14, cr6, [r4], #-396	; 0xfffffe74
 ad0:	72617500 	rsbvc	r7, r1, #0, 10
 ad4:	69645f74 	stmdbvs	r4!, {r2, r4, r5, r6, r8, r9, sl, fp, ip, lr}^
 ad8:	6c626173 	stfvse	f6, [r2], #-460	; 0xfffffe34
 adc:	61750065 	cmnvs	r5, r5, rrx
 ae0:	685f7472 	ldmdavs	pc, {r1, r4, r5, r6, sl, ip, sp, lr}^	; <UNPREDICTABLE>
 ae4:	645f7361 	ldrbvs	r7, [pc], #-865	; aec <__code_start__-0x7514>
 ae8:	00617461 	rsbeq	r7, r1, r1, ror #8
 aec:	4f495047 	svcmi	0x00495047
 af0:	4e55465f 	mrcmi	6, 2, r4, cr5, cr15, {2}
 af4:	4c415f43 	mcrrmi	15, 4, r5, r1, cr3
 af8:	6f003454 	svcvs	0x00003454
 afc:	6e695f72 	mcrvs	15, 3, r5, cr9, cr2, {3}
 b00:	73003233 	movwvc	r3, #563	; 0x233
 b04:	74617263 	strbtvc	r7, [r1], #-611	; 0xfffffd9d
 b08:	75006863 	strvc	r6, [r0, #-2147]	; 0xfffff79d
 b0c:	00747261 	rsbseq	r7, r4, r1, ror #4
 b10:	5f646e61 	svcpl	0x00646e61
 b14:	32336e69 	eorscc	r6, r3, #1680	; 0x690
 b18:	72617500 	rsbvc	r7, r1, #0, 10
 b1c:	75705f74 	ldrbvc	r5, [r0, #-3956]!	; 0xfffff08c
 b20:	47006374 	smlsdxmi	r0, r4, r3, r6
 b24:	5f4f4950 	svcpl	0x004f4950
 b28:	434e5546 	movtmi	r5, #58694	; 0xe546
 b2c:	504e495f 	subpl	r4, lr, pc, asr r9
 b30:	67005455 	smlsdvs	r0, r5, r4, r5
 b34:	5f6f6970 	svcpl	0x006f6970
 b38:	5f746573 	svcpl	0x00746573
 b3c:	636e7566 	cmnvs	lr, #427819008	; 0x19800000
 b40:	6e6f6974 			; <UNDEFINED> instruction: 0x6e6f6974
 b44:	74656700 	strbtvc	r6, [r5], #-1792	; 0xfffff900
 b48:	6b003233 	blvs	d41c <__bss_end__+0x240c>
 b4c:	6c6c616d 	stfvse	f6, [ip], #-436	; 0xfffffe4c
 b50:	685f636f 	ldmdavs	pc, {r0, r1, r2, r3, r5, r6, r8, r9, sp, lr}^	; <UNPREDICTABLE>
 b54:	5f706165 	svcpl	0x00706165
 b58:	72617473 	rsbvc	r7, r1, #1929379840	; 0x73000000
 b5c:	616d0074 	smcvs	53252	; 0xd004
 b60:	626e5f78 	rsbvs	r5, lr, #120, 30	; 0x1e0
 b64:	73657479 	cmnvc	r5, #2030043136	; 0x79000000
 b68:	64615f00 	strbtvs	r5, [r1], #-3840	; 0xfffff100
 b6c:	68007264 	stmdavs	r0, {r2, r5, r6, r9, ip, sp, lr}
 b70:	5f706165 	svcpl	0x00706165
 b74:	0078616d 	rsbseq	r6, r8, sp, ror #2
 b78:	6572666b 	ldrbvs	r6, [r2, #-1643]!	; 0xfffff995
 b7c:	6c615f65 	stclvs	15, cr5, [r1], #-404	; 0xfffffe6c
 b80:	6f72006c 	svcvs	0x0072006c
 b84:	75646e75 	strbvc	r6, [r4, #-3701]!	; 0xfffff18b
 b88:	666b0070 			; <UNDEFINED> instruction: 0x666b0070
 b8c:	5f656572 	svcpl	0x00656572
 b90:	00706f70 	rsbseq	r6, r0, r0, ror pc
 b94:	67696c61 	strbvs	r6, [r9, -r1, ror #24]!
 b98:	6e656d6e 	cdpvs	13, 6, cr6, cr5, cr14, {3}
 b9c:	616d0074 	smcvs	53252	; 0xd004
 ba0:	33755f78 	cmncc	r5, #120, 30	; 0x1e0
 ba4:	6e4f0032 	mcrvs	0, 2, r0, cr15, cr2, {1}
 ba8:	00424d65 	subeq	r4, r2, r5, ror #26
 bac:	6c616d6b 	stclvs	13, cr6, [r1], #-428	; 0xfffffe54
 bb0:	5f636f6c 	svcpl	0x00636f6c
 bb4:	70616568 	rsbvc	r6, r1, r8, ror #10
 bb8:	646e655f 	strbtvs	r6, [lr], #-1375	; 0xfffffaa1
 bbc:	616d6b00 	cmnvs	sp, r0, lsl #22
 bc0:	636f6c6c 	cmnvs	pc, #108, 24	; 0x6c00
 bc4:	746f6e5f 	strbtvc	r6, [pc], #-3679	; bcc <__code_start__-0x7434>
 bc8:	6f72657a 	svcvs	0x0072657a
 bcc:	5f736900 	svcpl	0x00736900
 bd0:	32776f70 	rsbscc	r6, r7, #112, 30	; 0x1c0
 bd4:	616d6b00 	cmnvs	sp, r0, lsl #22
 bd8:	636f6c6c 	cmnvs	pc, #108, 24	; 0x6c00
 bdc:	6b00632e 	blvs	1989c <__bss_end__+0xe88c>
 be0:	6c6c616d 	stfvse	f6, [ip], #-436	; 0xfffffe4c
 be4:	695f636f 	ldmdbvs	pc, {r0, r1, r2, r3, r5, r6, r8, r9, sp, lr}^	; <UNPREDICTABLE>
 be8:	0074696e 	rsbseq	r6, r4, lr, ror #18
 bec:	615f7369 	cmpvs	pc, r9, ror #6
 bf0:	6e67696c 	vnmulvs.f16	s13, s14, s25	; <UNPREDICTABLE>
 bf4:	6b006465 	blvs	19d90 <__bss_end__+0xed80>
 bf8:	6c6c616d 	stfvse	f6, [ip], #-436	; 0xfffffe4c
 bfc:	685f636f 	ldmdavs	pc, {r0, r1, r2, r3, r5, r6, r8, r9, sp, lr}^	; <UNPREDICTABLE>
 c00:	5f706165 	svcpl	0x00706165
 c04:	00727470 	rsbseq	r7, r2, r0, ror r4
 c08:	5f697072 	svcpl	0x00697072
 c0c:	65736572 	ldrbvs	r6, [r3, #-1394]!	; 0xfffffa8e
 c10:	75705f74 	ldrbvc	r5, [r0, #-3956]!	; 0xfffff08c
 c14:	6b006374 	blvs	199ec <__bss_end__+0xe9dc>
 c18:	6c6c616d 	stfvse	f6, [ip], #-436	; 0xfffffe4c
 c1c:	615f636f 	cmpvs	pc, pc, ror #6
 c20:	6e67696c 	vnmulvs.f16	s13, s14, s25	; <UNPREDICTABLE>
 c24:	67006465 	strvs	r6, [r0, -r5, ror #8]
 c28:	5f6f6970 	svcpl	0x006f6970
 c2c:	30726c63 	rsbscc	r6, r2, r3, ror #24
 c30:	69706700 	ldmdbvs	r0!, {r8, r9, sl, sp, lr}^
 c34:	65735f6f 	ldrbvs	r5, [r3, #-3951]!	; 0xfffff091
 c38:	67003074 	smlsdxvs	r0, r4, r0, r3
 c3c:	5f6f6970 	svcpl	0x006f6970
 c40:	74697277 	strbtvc	r7, [r9], #-631	; 0xfffffd89
 c44:	45440065 	strbmi	r0, [r4, #-101]	; 0xffffff9b
 c48:	41565f56 	cmpmi	r6, r6, asr pc
 c4c:	0032334c 	eorseq	r3, r2, ip, asr #6
 c50:	6f697067 	svcvs	0x00697067
 c54:	6165725f 	cmnvs	r5, pc, asr r2
 c58:	2f2e0064 	svccs	0x002e0064
 c5c:	2f637273 	svccs	0x00637273
 c60:	6f697067 	svcvs	0x00697067
 c64:	6700632e 	strvs	r6, [r0, -lr, lsr #6]
 c68:	5f6f6970 	svcpl	0x006f6970
 c6c:	5f746573 	svcpl	0x00746573
 c70:	75706e69 	ldrbvc	r6, [r0, #-3689]!	; 0xfffff197
 c74:	70670074 	rsbvc	r0, r7, r4, ror r0
 c78:	735f6f69 	cmpvc	pc, #420	; 0x1a4
 c7c:	6f5f7465 	svcvs	0x005f7465
 c80:	67006666 	strvs	r6, [r0, -r6, ror #12]
 c84:	5f6f6970 	svcpl	0x006f6970
 c88:	5f746573 	svcpl	0x00746573
 c8c:	7074756f 	rsbsvc	r7, r4, pc, ror #10
 c90:	67007475 	smlsdxvs	r0, r5, r4, r7
 c94:	5f6f6970 	svcpl	0x006f6970
 c98:	636e7566 	cmnvs	lr, #427819008	; 0x19800000
 c9c:	6700745f 	smlsdvs	r0, pc, r4, r7	; <UNPREDICTABLE>
 ca0:	5f6f6970 	svcpl	0x006f6970
 ca4:	3076656c 	rsbscc	r6, r6, ip, ror #10
 ca8:	6e616200 	cdpvs	2, 6, cr6, cr1, cr0, {0}
 cac:	7067006b 	rsbvc	r0, r7, fp, rrx
 cb0:	735f6f69 	cmpvc	pc, #420	; 0x1a4
 cb4:	6f5f7465 	svcvs	0x005f7465
 cb8:	6e69006e 	cdpvs	0, 6, cr0, cr9, cr14, {3}
 cbc:	6e726574 	mrcvs	5, 3, r6, cr2, cr4, {3}
 cc0:	705f6c61 	subsvc	r6, pc, r1, ror #24
 cc4:	68637475 	stmdavs	r3!, {r0, r2, r4, r5, r6, sl, ip, sp, lr}^
 cc8:	72007261 	andvc	r7, r0, #268435462	; 0x10000006
 ccc:	735f6970 	cmpvc	pc, #112, 18	; 0x1c0000
 cd0:	705f7465 	subsvc	r7, pc, r5, ror #8
 cd4:	00637475 	rsbeq	r7, r3, r5, ror r4
 cd8:	696c2f2e 	stmdbvs	ip!, {r1, r2, r3, r5, r8, r9, sl, fp, sp}^
 cdc:	702f6362 	eorvc	r6, pc, r2, ror #6
 ce0:	68637475 	stmdavs	r3!, {r0, r2, r4, r5, r6, sl, ip, sp, lr}^
 ce4:	632e7261 			; <UNDEFINED> instruction: 0x632e7261
 ce8:	6c2f2e00 	stcvs	14, cr2, [pc], #-0	; cf0 <__code_start__-0x7310>
 cec:	2f636269 	svccs	0x00636269
 cf0:	63727473 	cmnvs	r2, #1929379840	; 0x73000000
 cf4:	632e7461 			; <UNDEFINED> instruction: 0x632e7461
 cf8:	73656400 	cmnvc	r5, #0, 8
 cfc:	2f2e0074 	svccs	0x002e0074
 d00:	6362696c 	cmnvs	r2, #108, 18	; 0x1b0000
 d04:	7274732f 	rsbsvc	r7, r4, #-1140850688	; 0xbc000000
 d08:	2e706d63 	cdpcs	13, 7, cr6, cr0, cr3, {3}
 d0c:	2f2e0063 	svccs	0x002e0063
 d10:	6362696c 	cmnvs	r2, #108, 18	; 0x1b0000
 d14:	7274732f 	rsbsvc	r7, r4, #-1140850688	; 0xbc000000
 d18:	2e797063 	cdpcs	0, 7, cr7, cr9, cr3, {3}
 d1c:	2f2e0063 	svccs	0x002e0063
 d20:	6362696c 	cmnvs	r2, #108, 18	; 0x1b0000
 d24:	7274732f 	rsbsvc	r7, r4, #-1140850688	; 0xbc000000
 d28:	706d636e 	rsbvc	r6, sp, lr, ror #6
 d2c:	2e00632e 	cdpcs	3, 0, cr6, cr0, cr14, {1}
 d30:	6174732f 	cmnvs	r4, pc, lsr #6
 d34:	732d6666 			; <UNDEFINED> instruction: 0x732d6666
 d38:	642f6372 	strtvs	r6, [pc], #-882	; d40 <__code_start__-0x72c0>
 d3c:	75616665 	strbvc	r6, [r1, #-1637]!	; 0xfffff99b
 d40:	722d746c 	eorvc	r7, sp, #108, 8	; 0x6c000000
 d44:	6f6f6265 	svcvs	0x006f6265
 d48:	61632d74 	smcvs	13012	; 0x32d4
 d4c:	756f6c6c 	strbvc	r6, [pc, #-3180]!	; e8 <__code_start__-0x7f18>
 d50:	00632e74 	rsbeq	r2, r3, r4, ror lr

Disassembly of section .debug_frame:

00000000 <.debug_frame>:
   0:	0000000c 	andeq	r0, r0, ip
   4:	ffffffff 			; <UNDEFINED> instruction: 0xffffffff
   8:	7c020001 	stcvc	0, cr0, [r2], {1}
   c:	000d0c0e 	andeq	r0, sp, lr, lsl #24
  10:	00000024 	andeq	r0, r0, r4, lsr #32
  14:	00000000 	andeq	r0, r0, r0
  18:	00008038 	andeq	r8, r0, r8, lsr r0
  1c:	000000f8 	strdeq	r0, [r0], -r8
  20:	84140e42 	ldrhi	r0, [r4], #-3650	; 0xfffff1be
  24:	86048505 	strhi	r8, [r4], -r5, lsl #10
  28:	8e028703 	cdphi	7, 0, cr8, cr2, cr3, {0}
  2c:	480e4201 	stmdami	lr, {r0, r9, lr}
  30:	0e0a6002 	cdpeq	0, 0, cr6, cr10, cr2, {0}
  34:	000b4214 	andeq	r4, fp, r4, lsl r2
  38:	0000000c 	andeq	r0, r0, ip
  3c:	ffffffff 			; <UNDEFINED> instruction: 0xffffffff
  40:	7c020001 	stcvc	0, cr0, [r2], {1}
  44:	000d0c0e 	andeq	r0, sp, lr, lsl #24
  48:	0000000c 	andeq	r0, r0, ip
  4c:	00000038 	andeq	r0, r0, r8, lsr r0
  50:	00008130 	andeq	r8, r0, r0, lsr r1
  54:	00000010 	andeq	r0, r0, r0, lsl r0
  58:	0000000c 	andeq	r0, r0, ip
  5c:	00000038 	andeq	r0, r0, r8, lsr r0
  60:	00008140 	andeq	r8, r0, r0, asr #2
  64:	0000000c 	andeq	r0, r0, ip
  68:	0000000c 	andeq	r0, r0, ip
  6c:	00000038 	andeq	r0, r0, r8, lsr r0
  70:	0000814c 	andeq	r8, r0, ip, asr #2
  74:	00000008 	andeq	r0, r0, r8
  78:	0000000c 	andeq	r0, r0, ip
  7c:	00000038 	andeq	r0, r0, r8, lsr r0
  80:	00008154 	andeq	r8, r0, r4, asr r1
  84:	00000010 	andeq	r0, r0, r0, lsl r0
  88:	0000000c 	andeq	r0, r0, ip
  8c:	00000038 	andeq	r0, r0, r8, lsr r0
  90:	00008164 	andeq	r8, r0, r4, ror #2
  94:	00000024 	andeq	r0, r0, r4, lsr #32
  98:	00000018 	andeq	r0, r0, r8, lsl r0
  9c:	00000038 	andeq	r0, r0, r8, lsr r0
  a0:	00008188 	andeq	r8, r0, r8, lsl #3
  a4:	0000005c 	andeq	r0, r0, ip, asr r0
  a8:	84100e42 	ldrhi	r0, [r0], #-3650	; 0xfffff1be
  ac:	86038504 	strhi	r8, [r3], -r4, lsl #10
  b0:	00018e02 	andeq	r8, r1, r2, lsl #28
  b4:	00000024 	andeq	r0, r0, r4, lsr #32
  b8:	00000038 	andeq	r0, r0, r8, lsr r0
  bc:	000081e4 	andeq	r8, r0, r4, ror #3
  c0:	0000019c 	muleq	r0, ip, r1
  c4:	84140e42 	ldrhi	r0, [r4], #-3650	; 0xfffff1be
  c8:	86048505 	strhi	r8, [r4], -r5, lsl #10
  cc:	8e028703 	cdphi	7, 0, cr8, cr2, cr3, {0}
  d0:	300e4201 	andcc	r4, lr, r1, lsl #4
  d4:	0e0a7202 	cdpeq	2, 0, cr7, cr10, cr2, {0}
  d8:	000b4214 	andeq	r4, fp, r4, lsl r2
  dc:	00000020 	andeq	r0, r0, r0, lsr #32
  e0:	00000038 	andeq	r0, r0, r8, lsr r0
  e4:	00008380 	andeq	r8, r0, r0, lsl #7
  e8:	000000bc 	strheq	r0, [r0], -ip
  ec:	84100e42 	ldrhi	r0, [r0], #-3650	; 0xfffff1be
  f0:	86038504 	strhi	r8, [r3], -r4, lsl #10
  f4:	42018e02 	andmi	r8, r1, #2, 28
  f8:	5202200e 	andpl	r2, r2, #14, 0
  fc:	0000100e 	andeq	r1, r0, lr
 100:	0000000c 	andeq	r0, r0, ip
 104:	ffffffff 			; <UNDEFINED> instruction: 0xffffffff
 108:	7c020001 	stcvc	0, cr0, [r2], {1}
 10c:	000d0c0e 	andeq	r0, sp, lr, lsl #24
 110:	00000014 	andeq	r0, r0, r4, lsl r0
 114:	00000100 	andeq	r0, r0, r0, lsl #2
 118:	0000843c 	andeq	r8, r0, ip, lsr r4
 11c:	000000a4 	andeq	r0, r0, r4, lsr #1
 120:	8e040e42 	cdphi	14, 0, cr0, cr4, cr2, {2}
 124:	00000001 	andeq	r0, r0, r1
 128:	0000001c 	andeq	r0, r0, ip, lsl r0
 12c:	00000100 	andeq	r0, r0, r0, lsl #2
 130:	000084e0 	andeq	r8, r0, r0, ror #9
 134:	000000ec 	andeq	r0, r0, ip, ror #1
 138:	84180e42 	ldrhi	r0, [r8], #-3650	; 0xfffff1be
 13c:	86058506 	strhi	r8, [r5], -r6, lsl #10
 140:	88038704 	stmdahi	r3, {r2, r8, r9, sl, pc}
 144:	00018e02 	andeq	r8, r1, r2, lsl #28
 148:	0000000c 	andeq	r0, r0, ip
 14c:	ffffffff 			; <UNDEFINED> instruction: 0xffffffff
 150:	7c020001 	stcvc	0, cr0, [r2], {1}
 154:	000d0c0e 	andeq	r0, sp, lr, lsl #24
 158:	0000000c 	andeq	r0, r0, ip
 15c:	00000148 	andeq	r0, r0, r8, asr #2
 160:	000085cc 	andeq	r8, r0, ip, asr #11
 164:	0000003c 	andeq	r0, r0, ip, lsr r0
 168:	00000014 	andeq	r0, r0, r4, lsl r0
 16c:	00000148 	andeq	r0, r0, r8, asr #2
 170:	00008608 	andeq	r8, r0, r8, lsl #12
 174:	00000028 	andeq	r0, r0, r8, lsr #32
 178:	84080e42 	strhi	r0, [r8], #-3650	; 0xfffff1be
 17c:	00018e02 	andeq	r8, r1, r2, lsl #28
 180:	00000024 	andeq	r0, r0, r4, lsr #32
 184:	00000148 	andeq	r0, r0, r8, asr #2
 188:	00008630 	andeq	r8, r0, r0, lsr r6
 18c:	00000168 	andeq	r0, r0, r8, ror #2
 190:	84180e42 	ldrhi	r0, [r8], #-3650	; 0xfffff1be
 194:	86058506 	strhi	r8, [r5], -r6, lsl #10
 198:	88038704 	stmdahi	r3, {r2, r8, r9, sl, pc}
 19c:	42018e02 	andmi	r8, r1, #2, 28
 1a0:	9c02200e 	stcls	0, cr2, [r2], {14}
 1a4:	0000180e 	andeq	r1, r0, lr, lsl #16
 1a8:	00000018 	andeq	r0, r0, r8, lsl r0
 1ac:	00000148 	andeq	r0, r0, r8, asr #2
 1b0:	00008798 	muleq	r0, r8, r7
 1b4:	000000a4 	andeq	r0, r0, r4, lsr #1
 1b8:	8e040e42 	cdphi	14, 0, cr0, cr4, cr2, {2}
 1bc:	480e4201 	stmdami	lr, {r0, r9, lr}
 1c0:	040e4202 	streq	r4, [lr], #-514	; 0xfffffdfe
 1c4:	0000001c 	andeq	r0, r0, ip, lsl r0
 1c8:	00000148 	andeq	r0, r0, r8, asr #2
 1cc:	0000883c 	andeq	r8, r0, ip, lsr r8
 1d0:	000000f4 	strdeq	r0, [r0], -r4
 1d4:	84180e42 	ldrhi	r0, [r8], #-3650	; 0xfffff1be
 1d8:	86058506 	strhi	r8, [r5], -r6, lsl #10
 1dc:	88038704 	stmdahi	r3, {r2, r8, r9, sl, pc}
 1e0:	00018e02 	andeq	r8, r1, r2, lsl #28
 1e4:	00000024 	andeq	r0, r0, r4, lsr #32
 1e8:	00000148 	andeq	r0, r0, r8, asr #2
 1ec:	00008930 	andeq	r8, r0, r0, lsr r9
 1f0:	000000dc 	ldrdeq	r0, [r0], -ip
 1f4:	84180e42 	ldrhi	r0, [r8], #-3650	; 0xfffff1be
 1f8:	86058506 	strhi	r8, [r5], -r6, lsl #10
 1fc:	88038704 	stmdahi	r3, {r2, r8, r9, sl, pc}
 200:	42018e02 	andmi	r8, r1, #2, 28
 204:	5a02280e 	bpl	8a244 <__bss_end__+0x7f234>
 208:	0000180e 	andeq	r1, r0, lr, lsl #16
 20c:	00000020 	andeq	r0, r0, r0, lsr #32
 210:	00000148 	andeq	r0, r0, r8, asr #2
 214:	00008a0c 	andeq	r8, r0, ip, lsl #20
 218:	000000a4 	andeq	r0, r0, r4, lsr #1
 21c:	840c0e42 	strhi	r0, [ip], #-3650	; 0xfffff1be
 220:	8e028503 	cfsh32hi	mvfx8, mvfx2, #3
 224:	180e4201 	stmdane	lr, {r0, r9, lr}
 228:	0c0e0a64 			; <UNDEFINED> instruction: 0x0c0e0a64
 22c:	00000b42 	andeq	r0, r0, r2, asr #22
 230:	0000000c 	andeq	r0, r0, ip
 234:	00000148 	andeq	r0, r0, r8, asr #2
 238:	00008ab0 			; <UNDEFINED> instruction: 0x00008ab0
 23c:	00000030 	andeq	r0, r0, r0, lsr r0
 240:	0000001c 	andeq	r0, r0, ip, lsl r0
 244:	00000148 	andeq	r0, r0, r8, asr #2
 248:	00008ae0 	andeq	r8, r0, r0, ror #21
 24c:	000000cc 	andeq	r0, r0, ip, asr #1
 250:	84180e42 	ldrhi	r0, [r8], #-3650	; 0xfffff1be
 254:	86058506 	strhi	r8, [r5], -r6, lsl #10
 258:	88038704 	stmdahi	r3, {r2, r8, r9, sl, pc}
 25c:	00018e02 	andeq	r8, r1, r2, lsl #28
 260:	00000014 	andeq	r0, r0, r4, lsl r0
 264:	00000148 	andeq	r0, r0, r8, asr #2
 268:	00008bac 	andeq	r8, r0, ip, lsr #23
 26c:	0000000c 	andeq	r0, r0, ip
 270:	84080e42 	strhi	r0, [r8], #-3650	; 0xfffff1be
 274:	00018e02 	andeq	r8, r1, r2, lsl #28
 278:	00000014 	andeq	r0, r0, r4, lsl r0
 27c:	00000148 	andeq	r0, r0, r8, asr #2
 280:	00008bb8 			; <UNDEFINED> instruction: 0x00008bb8
 284:	00000048 	andeq	r0, r0, r8, asr #32
 288:	84080e42 	strhi	r0, [r8], #-3650	; 0xfffff1be
 28c:	00018e02 	andeq	r8, r1, r2, lsl #28
 290:	00000014 	andeq	r0, r0, r4, lsl r0
 294:	00000148 	andeq	r0, r0, r8, asr #2
 298:	00008c00 	andeq	r8, r0, r0, lsl #24
 29c:	00000050 	andeq	r0, r0, r0, asr r0
 2a0:	84080e42 	strhi	r0, [r8], #-3650	; 0xfffff1be
 2a4:	00018e02 	andeq	r8, r1, r2, lsl #28
 2a8:	00000014 	andeq	r0, r0, r4, lsl r0
 2ac:	00000148 	andeq	r0, r0, r8, asr #2
 2b0:	00008c50 	andeq	r8, r0, r0, asr ip
 2b4:	00000010 	andeq	r0, r0, r0, lsl r0
 2b8:	84080e42 	strhi	r0, [r8], #-3650	; 0xfffff1be
 2bc:	00018e02 	andeq	r8, r1, r2, lsl #28
 2c0:	00000014 	andeq	r0, r0, r4, lsl r0
 2c4:	00000148 	andeq	r0, r0, r8, asr #2
 2c8:	00008c60 	andeq	r8, r0, r0, ror #24
 2cc:	00000028 	andeq	r0, r0, r8, lsr #32
 2d0:	84080e42 	strhi	r0, [r8], #-3650	; 0xfffff1be
 2d4:	00018e02 	andeq	r8, r1, r2, lsl #28
 2d8:	0000000c 	andeq	r0, r0, ip
 2dc:	ffffffff 			; <UNDEFINED> instruction: 0xffffffff
 2e0:	7c020001 	stcvc	0, cr0, [r2], {1}
 2e4:	000d0c0e 	andeq	r0, sp, lr, lsl #24
 2e8:	00000014 	andeq	r0, r0, r4, lsl r0
 2ec:	000002d8 	ldrdeq	r0, [r0], -r8
 2f0:	00008c90 	muleq	r0, r0, ip
 2f4:	00000078 	andeq	r0, r0, r8, ror r0
 2f8:	84080e42 	strhi	r0, [r8], #-3650	; 0xfffff1be
 2fc:	00018e02 	andeq	r8, r1, r2, lsl #28
 300:	0000000c 	andeq	r0, r0, ip
 304:	ffffffff 			; <UNDEFINED> instruction: 0xffffffff
 308:	7c020001 	stcvc	0, cr0, [r2], {1}
 30c:	000d0c0e 	andeq	r0, sp, lr, lsl #24
 310:	00000034 	andeq	r0, r0, r4, lsr r0
 314:	00000300 	andeq	r0, r0, r0, lsl #6
 318:	00008d08 	andeq	r8, r0, r8, lsl #26
 31c:	00000058 	andeq	r0, r0, r8, asr r0
 320:	80100e42 	andshi	r0, r0, r2, asr #28
 324:	82038104 	andhi	r8, r3, #1
 328:	42018302 	andmi	r8, r1, #134217728	; 0x8000000
 32c:	07841c0e 	streq	r1, [r4, lr, lsl #24]
 330:	058e0685 	streq	r0, [lr, #1669]	; 0x685
 334:	5a280e44 	bpl	a03c4c <__bss_end__+0x9f8c3c>
 338:	ce421c0e 	cdpgt	12, 4, cr1, cr2, cr14, {0}
 33c:	100ec4c5 	andne	ip, lr, r5, asr #9
 340:	c1c2c342 	bicgt	ip, r2, r2, asr #6
 344:	00000ec0 	andeq	r0, r0, r0, asr #29
 348:	0000000c 	andeq	r0, r0, ip
 34c:	ffffffff 			; <UNDEFINED> instruction: 0xffffffff
 350:	7c020001 	stcvc	0, cr0, [r2], {1}
 354:	000d0c0e 	andeq	r0, sp, lr, lsl #24
 358:	00000018 	andeq	r0, r0, r8, lsl r0
 35c:	00000348 	andeq	r0, r0, r8, asr #6
 360:	00008d60 	andeq	r8, r0, r0, ror #26
 364:	00000038 	andeq	r0, r0, r8, lsr r0
 368:	84100e42 	ldrhi	r0, [r0], #-3650	; 0xfffff1be
 36c:	86038504 	strhi	r8, [r3], -r4, lsl #10
 370:	00018e02 	andeq	r8, r1, r2, lsl #28
 374:	0000000c 	andeq	r0, r0, ip
 378:	ffffffff 			; <UNDEFINED> instruction: 0xffffffff
 37c:	7c020001 	stcvc	0, cr0, [r2], {1}
 380:	000d0c0e 	andeq	r0, sp, lr, lsl #24
 384:	0000000c 	andeq	r0, r0, ip
 388:	00000374 	andeq	r0, r0, r4, ror r3
 38c:	00008d98 	muleq	r0, r8, sp
 390:	00000030 	andeq	r0, r0, r0, lsr r0
 394:	0000000c 	andeq	r0, r0, ip
 398:	00000374 	andeq	r0, r0, r4, ror r3
 39c:	00008dc8 	andeq	r8, r0, r8, asr #27
 3a0:	00000050 	andeq	r0, r0, r0, asr r0
 3a4:	0000000c 	andeq	r0, r0, ip
 3a8:	00000374 	andeq	r0, r0, r4, ror r3
 3ac:	00008e18 	andeq	r8, r0, r8, lsl lr
 3b0:	00000018 	andeq	r0, r0, r8, lsl r0
 3b4:	0000000c 	andeq	r0, r0, ip
 3b8:	ffffffff 			; <UNDEFINED> instruction: 0xffffffff
 3bc:	7c020001 	stcvc	0, cr0, [r2], {1}
 3c0:	000d0c0e 	andeq	r0, sp, lr, lsl #24
 3c4:	0000002c 	andeq	r0, r0, ip, lsr #32
 3c8:	000003b4 			; <UNDEFINED> instruction: 0x000003b4
 3cc:	00008e30 	andeq	r8, r0, r0, lsr lr
 3d0:	00000328 	andeq	r0, r0, r8, lsr #6
 3d4:	84180e42 	ldrhi	r0, [r8], #-3650	; 0xfffff1be
 3d8:	86058506 	strhi	r8, [r5], -r6, lsl #10
 3dc:	88038704 	stmdahi	r3, {r2, r8, r9, sl, pc}
 3e0:	46018e02 	strmi	r8, [r1], -r2, lsl #28
 3e4:	c002600e 	andgt	r6, r2, lr
 3e8:	42180e0a 	andsmi	r0, r8, #160	; 0xa0
 3ec:	0a8e020b 	beq	fe380c20 <__bss_end__+0xfe375c10>
 3f0:	0b42180e 	bleq	1086430 <__bss_end__+0x107b420>
 3f4:	00000014 	andeq	r0, r0, r4, lsl r0
 3f8:	000003b4 			; <UNDEFINED> instruction: 0x000003b4
 3fc:	00009158 	andeq	r9, r0, r8, asr r1
 400:	00000060 	andeq	r0, r0, r0, rrx
 404:	8e040e52 	mcrhi	14, 0, r0, cr4, cr2, {2}
 408:	100e4401 	andne	r4, lr, r1, lsl #8
 40c:	0000002c 	andeq	r0, r0, ip, lsr #32
 410:	000003b4 			; <UNDEFINED> instruction: 0x000003b4
 414:	000091b8 			; <UNDEFINED> instruction: 0x000091b8
 418:	0000062c 	andeq	r0, r0, ip, lsr #12
 41c:	84240e42 	strthi	r0, [r4], #-3650	; 0xfffff1be
 420:	86088509 	strhi	r8, [r8], -r9, lsl #10
 424:	88068707 	stmdahi	r6, {r0, r1, r2, r8, r9, sl, pc}
 428:	8a048905 	bhi	122844 <__bss_end__+0x117834>
 42c:	8e028b03 	vmlahi.f64	d8, d2, d3
 430:	c00e5201 	andgt	r5, lr, r1, lsl #4
 434:	0a860202 	beq	fe180c44 <__bss_end__+0xfe175c34>
 438:	0b42240e 	bleq	1089478 <__bss_end__+0x107e468>
 43c:	0000000c 	andeq	r0, r0, ip
 440:	ffffffff 			; <UNDEFINED> instruction: 0xffffffff
 444:	7c020001 	stcvc	0, cr0, [r2], {1}
 448:	000d0c0e 	andeq	r0, sp, lr, lsl #24
 44c:	00000014 	andeq	r0, r0, r4, lsl r0
 450:	0000043c 	andeq	r0, r0, ip, lsr r4
 454:	000097e4 	andeq	r9, r0, r4, ror #15
 458:	0000002c 	andeq	r0, r0, ip, lsr #32
 45c:	84080e44 	strhi	r0, [r8], #-3652	; 0xfffff1bc
 460:	00018e02 	andeq	r8, r1, r2, lsl #28
 464:	0000000c 	andeq	r0, r0, ip
 468:	ffffffff 			; <UNDEFINED> instruction: 0xffffffff
 46c:	7c020001 	stcvc	0, cr0, [r2], {1}
 470:	000d0c0e 	andeq	r0, sp, lr, lsl #24
 474:	00000018 	andeq	r0, r0, r8, lsl r0
 478:	00000464 	andeq	r0, r0, r4, ror #8
 47c:	00009810 	andeq	r9, r0, r0, lsl r8
 480:	000000f8 	strdeq	r0, [r0], -r8
 484:	84100e42 	ldrhi	r0, [r0], #-3650	; 0xfffff1be
 488:	86038504 	strhi	r8, [r3], -r4, lsl #10
 48c:	00018e02 	andeq	r8, r1, r2, lsl #28
 490:	0000000c 	andeq	r0, r0, ip
 494:	ffffffff 			; <UNDEFINED> instruction: 0xffffffff
 498:	7c020001 	stcvc	0, cr0, [r2], {1}
 49c:	000d0c0e 	andeq	r0, sp, lr, lsl #24
 4a0:	0000000c 	andeq	r0, r0, ip
 4a4:	00000490 	muleq	r0, r0, r4
 4a8:	00009908 	andeq	r9, r0, r8, lsl #18
 4ac:	00000004 	andeq	r0, r0, r4
 4b0:	0000000c 	andeq	r0, r0, ip
 4b4:	ffffffff 			; <UNDEFINED> instruction: 0xffffffff
 4b8:	7c020001 	stcvc	0, cr0, [r2], {1}
 4bc:	000d0c0e 	andeq	r0, sp, lr, lsl #24
 4c0:	0000000c 	andeq	r0, r0, ip
 4c4:	000004b0 			; <UNDEFINED> instruction: 0x000004b0
 4c8:	0000990c 	andeq	r9, r0, ip, lsl #18
 4cc:	00000018 	andeq	r0, r0, r8, lsl r0
 4d0:	0000000c 	andeq	r0, r0, ip
 4d4:	000004b0 			; <UNDEFINED> instruction: 0x000004b0
 4d8:	00009924 	andeq	r9, r0, r4, lsr #18
 4dc:	00000014 	andeq	r0, r0, r4, lsl r0
 4e0:	00000014 	andeq	r0, r0, r4, lsl r0
 4e4:	000004b0 			; <UNDEFINED> instruction: 0x000004b0
 4e8:	00009938 	andeq	r9, r0, r8, lsr r9
 4ec:	00000060 	andeq	r0, r0, r0, rrx
 4f0:	84080e42 	strhi	r0, [r8], #-3650	; 0xfffff1be
 4f4:	00018e02 	andeq	r8, r1, r2, lsl #28
 4f8:	0000000c 	andeq	r0, r0, ip
 4fc:	ffffffff 			; <UNDEFINED> instruction: 0xffffffff
 500:	7c020001 	stcvc	0, cr0, [r2], {1}
 504:	000d0c0e 	andeq	r0, sp, lr, lsl #24
 508:	0000000c 	andeq	r0, r0, ip
 50c:	000004f8 	strdeq	r0, [r0], -r8
 510:	00009998 	muleq	r0, r8, r9
 514:	0000000c 	andeq	r0, r0, ip
 518:	00000014 	andeq	r0, r0, r4, lsl r0
 51c:	000004f8 	strdeq	r0, [r0], -r8
 520:	000099a4 	andeq	r9, r0, r4, lsr #19
 524:	00000024 	andeq	r0, r0, r4, lsr #32
 528:	84080e42 	strhi	r0, [r8], #-3650	; 0xfffff1be
 52c:	00018e02 	andeq	r8, r1, r2, lsl #28
 530:	0000001c 	andeq	r0, r0, ip, lsl r0
 534:	000004f8 	strdeq	r0, [r0], -r8
 538:	000099c8 	andeq	r9, r0, r8, asr #19
 53c:	00000048 	andeq	r0, r0, r8, asr #32
 540:	84180e42 	ldrhi	r0, [r8], #-3650	; 0xfffff1be
 544:	86058506 	strhi	r8, [r5], -r6, lsl #10
 548:	88038704 	stmdahi	r3, {r2, r8, r9, sl, pc}
 54c:	00018e02 	andeq	r8, r1, r2, lsl #28
 550:	0000001c 	andeq	r0, r0, ip, lsl r0
 554:	000004f8 	strdeq	r0, [r0], -r8
 558:	00009a10 	andeq	r9, r0, r0, lsl sl
 55c:	00000050 	andeq	r0, r0, r0, asr r0
 560:	84180e42 	ldrhi	r0, [r8], #-3650	; 0xfffff1be
 564:	86058506 	strhi	r8, [r5], -r6, lsl #10
 568:	88038704 	stmdahi	r3, {r2, r8, r9, sl, pc}
 56c:	00018e02 	andeq	r8, r1, r2, lsl #28
 570:	0000001c 	andeq	r0, r0, ip, lsl r0
 574:	000004f8 	strdeq	r0, [r0], -r8
 578:	00009a60 	andeq	r9, r0, r0, ror #20
 57c:	00000054 	andeq	r0, r0, r4, asr r0
 580:	84180e42 	ldrhi	r0, [r8], #-3650	; 0xfffff1be
 584:	86058506 	strhi	r8, [r5], -r6, lsl #10
 588:	88038704 	stmdahi	r3, {r2, r8, r9, sl, pc}
 58c:	00018e02 	andeq	r8, r1, r2, lsl #28
 590:	0000000c 	andeq	r0, r0, ip
 594:	ffffffff 			; <UNDEFINED> instruction: 0xffffffff
 598:	7c020001 	stcvc	0, cr0, [r2], {1}
 59c:	000d0c0e 	andeq	r0, sp, lr, lsl #24
 5a0:	00000018 	andeq	r0, r0, r8, lsl r0
 5a4:	00000590 	muleq	r0, r0, r5
 5a8:	00009ab4 			; <UNDEFINED> instruction: 0x00009ab4
 5ac:	00000020 	andeq	r0, r0, r0, lsr #32
 5b0:	84100e42 	ldrhi	r0, [r0], #-3650	; 0xfffff1be
 5b4:	86038504 	strhi	r8, [r3], -r4, lsl #10
 5b8:	00018e02 	andeq	r8, r1, r2, lsl #28
 5bc:	00000018 	andeq	r0, r0, r8, lsl r0
 5c0:	00000590 	muleq	r0, r0, r5
 5c4:	00009ad4 	ldrdeq	r9, [r0], -r4
 5c8:	00000020 	andeq	r0, r0, r0, lsr #32
 5cc:	84100e42 	ldrhi	r0, [r0], #-3650	; 0xfffff1be
 5d0:	86038504 	strhi	r8, [r3], -r4, lsl #10
 5d4:	00018e02 	andeq	r8, r1, r2, lsl #28
 5d8:	00000014 	andeq	r0, r0, r4, lsl r0
 5dc:	00000590 	muleq	r0, r0, r5
 5e0:	00009af4 	strdeq	r9, [r0], -r4
 5e4:	000000b0 	strheq	r0, [r0], -r0	; <UNPREDICTABLE>
 5e8:	84080e42 	strhi	r0, [r8], #-3650	; 0xfffff1be
 5ec:	00018e02 	andeq	r8, r1, r2, lsl #28
 5f0:	00000014 	andeq	r0, r0, r4, lsl r0
 5f4:	00000590 	muleq	r0, r0, r5
 5f8:	00009ba4 	andeq	r9, r0, r4, lsr #23
 5fc:	00000018 	andeq	r0, r0, r8, lsl r0
 600:	84080e42 	strhi	r0, [r8], #-3650	; 0xfffff1be
 604:	00018e02 	andeq	r8, r1, r2, lsl #28
 608:	00000014 	andeq	r0, r0, r4, lsl r0
 60c:	00000590 	muleq	r0, r0, r5
 610:	00009bbc 			; <UNDEFINED> instruction: 0x00009bbc
 614:	00000020 	andeq	r0, r0, r0, lsr #32
 618:	84080e42 	strhi	r0, [r8], #-3650	; 0xfffff1be
 61c:	00018e02 	andeq	r8, r1, r2, lsl #28
 620:	00000014 	andeq	r0, r0, r4, lsl r0
 624:	00000590 	muleq	r0, r0, r5
 628:	00009bdc 	ldrdeq	r9, [r0], -ip
 62c:	00000030 	andeq	r0, r0, r0, lsr r0
 630:	84080e42 	strhi	r0, [r8], #-3650	; 0xfffff1be
 634:	00018e02 	andeq	r8, r1, r2, lsl #28
 638:	00000014 	andeq	r0, r0, r4, lsl r0
 63c:	00000590 	muleq	r0, r0, r5
 640:	00009c0c 	andeq	r9, r0, ip, lsl #24
 644:	00000030 	andeq	r0, r0, r0, lsr r0
 648:	84080e42 	strhi	r0, [r8], #-3650	; 0xfffff1be
 64c:	00018e02 	andeq	r8, r1, r2, lsl #28
 650:	00000014 	andeq	r0, r0, r4, lsl r0
 654:	00000590 	muleq	r0, r0, r5
 658:	00009c3c 	andeq	r9, r0, ip, lsr ip
 65c:	00000010 	andeq	r0, r0, r0, lsl r0
 660:	84080e42 	strhi	r0, [r8], #-3650	; 0xfffff1be
 664:	00018e02 	andeq	r8, r1, r2, lsl #28
 668:	00000014 	andeq	r0, r0, r4, lsl r0
 66c:	00000590 	muleq	r0, r0, r5
 670:	00009c4c 	andeq	r9, r0, ip, asr #24
 674:	00000020 	andeq	r0, r0, r0, lsr #32
 678:	84080e42 	strhi	r0, [r8], #-3650	; 0xfffff1be
 67c:	00018e02 	andeq	r8, r1, r2, lsl #28
 680:	00000014 	andeq	r0, r0, r4, lsl r0
 684:	00000590 	muleq	r0, r0, r5
 688:	00009c6c 	andeq	r9, r0, ip, ror #24
 68c:	00000014 	andeq	r0, r0, r4, lsl r0
 690:	84080e42 	strhi	r0, [r8], #-3650	; 0xfffff1be
 694:	00018e02 	andeq	r8, r1, r2, lsl #28
 698:	00000014 	andeq	r0, r0, r4, lsl r0
 69c:	00000590 	muleq	r0, r0, r5
 6a0:	00009c80 	andeq	r9, r0, r0, lsl #25
 6a4:	00000024 	andeq	r0, r0, r4, lsr #32
 6a8:	84080e42 	strhi	r0, [r8], #-3650	; 0xfffff1be
 6ac:	00018e02 	andeq	r8, r1, r2, lsl #28
 6b0:	0000000c 	andeq	r0, r0, ip
 6b4:	ffffffff 			; <UNDEFINED> instruction: 0xffffffff
 6b8:	7c020001 	stcvc	0, cr0, [r2], {1}
 6bc:	000d0c0e 	andeq	r0, sp, lr, lsl #24
 6c0:	0000000c 	andeq	r0, r0, ip
 6c4:	000006b0 			; <UNDEFINED> instruction: 0x000006b0
 6c8:	00009ca4 	andeq	r9, r0, r4, lsr #25
 6cc:	00000010 	andeq	r0, r0, r0, lsl r0
 6d0:	0000000c 	andeq	r0, r0, ip
 6d4:	000006b0 			; <UNDEFINED> instruction: 0x000006b0
 6d8:	00009cb4 			; <UNDEFINED> instruction: 0x00009cb4
 6dc:	00000010 	andeq	r0, r0, r0, lsl r0
 6e0:	0000000c 	andeq	r0, r0, ip
 6e4:	000006b0 			; <UNDEFINED> instruction: 0x000006b0
 6e8:	00009cc4 	andeq	r9, r0, r4, asr #25
 6ec:	00000010 	andeq	r0, r0, r0, lsl r0
 6f0:	0000001c 	andeq	r0, r0, ip, lsl r0
 6f4:	000006b0 			; <UNDEFINED> instruction: 0x000006b0
 6f8:	00009cd4 	ldrdeq	r9, [r0], -r4
 6fc:	0000009c 	muleq	r0, ip, r0
 700:	8e040e42 	cdphi	14, 0, cr0, cr4, cr2, {2}
 704:	100e4201 	andne	r4, lr, r1, lsl #4
 708:	040e0a58 	streq	r0, [lr], #-2648	; 0xfffff5a8
 70c:	00000b42 	andeq	r0, r0, r2, asr #22
 710:	00000014 	andeq	r0, r0, r4, lsl r0
 714:	000006b0 			; <UNDEFINED> instruction: 0x000006b0
 718:	00009d70 	andeq	r9, r0, r0, ror sp
 71c:	00000058 	andeq	r0, r0, r8, asr r0
 720:	84080e42 	strhi	r0, [r8], #-3650	; 0xfffff1be
 724:	00018e02 	andeq	r8, r1, r2, lsl #28
 728:	0000001c 	andeq	r0, r0, ip, lsl r0
 72c:	000006b0 			; <UNDEFINED> instruction: 0x000006b0
 730:	00009dc8 	andeq	r9, r0, r8, asr #27
 734:	00000098 	muleq	r0, r8, r0
 738:	8e040e42 	cdphi	14, 0, cr0, cr4, cr2, {2}
 73c:	100e4201 	andne	r4, lr, r1, lsl #4
 740:	040e0a58 	streq	r0, [lr], #-2648	; 0xfffff5a8
 744:	00000b42 	andeq	r0, r0, r2, asr #22
 748:	00000020 	andeq	r0, r0, r0, lsr #32
 74c:	000006b0 			; <UNDEFINED> instruction: 0x000006b0
 750:	00009e60 	andeq	r9, r0, r0, ror #28
 754:	00000064 	andeq	r0, r0, r4, rrx
 758:	840c0e42 	strhi	r0, [ip], #-3650	; 0xfffff1be
 75c:	8e028503 	cfsh32hi	mvfx8, mvfx2, #3
 760:	180e4201 	stmdane	lr, {r0, r9, lr}
 764:	0c0e0a54 			; <UNDEFINED> instruction: 0x0c0e0a54
 768:	00000b42 	andeq	r0, r0, r2, asr #22
 76c:	0000001c 	andeq	r0, r0, ip, lsl r0
 770:	000006b0 			; <UNDEFINED> instruction: 0x000006b0
 774:	00009ec4 	andeq	r9, r0, r4, asr #29
 778:	00000118 	andeq	r0, r0, r8, lsl r1
 77c:	8e040e42 	cdphi	14, 0, cr0, cr4, cr2, {2}
 780:	100e4201 	andne	r4, lr, r1, lsl #4
 784:	040e0a6c 	streq	r0, [lr], #-2668	; 0xfffff594
 788:	00000b42 	andeq	r0, r0, r2, asr #22
 78c:	0000000c 	andeq	r0, r0, ip
 790:	000006b0 			; <UNDEFINED> instruction: 0x000006b0
 794:	00009fdc 	ldrdeq	r9, [r0], -ip
 798:	00000004 	andeq	r0, r0, r4
 79c:	0000000c 	andeq	r0, r0, ip
 7a0:	000006b0 			; <UNDEFINED> instruction: 0x000006b0
 7a4:	00009fe0 	andeq	r9, r0, r0, ror #31
 7a8:	00000014 	andeq	r0, r0, r4, lsl r0
 7ac:	00000014 	andeq	r0, r0, r4, lsl r0
 7b0:	000006b0 			; <UNDEFINED> instruction: 0x000006b0
 7b4:	00009ff4 	strdeq	r9, [r0], -r4
 7b8:	00000060 	andeq	r0, r0, r0, rrx
 7bc:	8e040e58 	mcrhi	14, 0, r0, cr4, cr8, {2}
 7c0:	100e4201 	andne	r4, lr, r1, lsl #4
 7c4:	0000000c 	andeq	r0, r0, ip
 7c8:	ffffffff 			; <UNDEFINED> instruction: 0xffffffff
 7cc:	7c020001 	stcvc	0, cr0, [r2], {1}
 7d0:	000d0c0e 	andeq	r0, sp, lr, lsl #24
 7d4:	00000020 	andeq	r0, r0, r0, lsr #32
 7d8:	000007c4 	andeq	r0, r0, r4, asr #15
 7dc:	0000a054 	andeq	sl, r0, r4, asr r0
 7e0:	00000060 	andeq	r0, r0, r0, rrx
 7e4:	84100e48 	ldrhi	r0, [r0], #-3656	; 0xfffff1b8
 7e8:	86038504 	strhi	r8, [r3], -r4, lsl #10
 7ec:	64018e02 	strvs	r8, [r1], #-3586	; 0xfffff1fe
 7f0:	c4c5c6ce 	strbgt	ip, [r5], #1742	; 0x6ce
 7f4:	0000000e 	andeq	r0, r0, lr
 7f8:	00000020 	andeq	r0, r0, r0, lsr #32
 7fc:	000007c4 	andeq	r0, r0, r4, asr #15
 800:	0000a0b4 	strheq	sl, [r0], -r4
 804:	00000058 	andeq	r0, r0, r8, asr r0
 808:	84100e46 	ldrhi	r0, [r0], #-3654	; 0xfffff1ba
 80c:	86038504 	strhi	r8, [r3], -r4, lsl #10
 810:	62018e02 	andvs	r8, r1, #2, 28
 814:	c4c5c6ce 	strbgt	ip, [r5], #1742	; 0x6ce
 818:	0000000e 	andeq	r0, r0, lr
 81c:	0000000c 	andeq	r0, r0, ip
 820:	000007c4 	andeq	r0, r0, r4, asr #15
 824:	0000a10c 	andeq	sl, r0, ip, lsl #2
 828:	00000018 	andeq	r0, r0, r8, lsl r0
 82c:	0000000c 	andeq	r0, r0, ip
 830:	000007c4 	andeq	r0, r0, r4, asr #15
 834:	0000a124 	andeq	sl, r0, r4, lsr #2
 838:	00000018 	andeq	r0, r0, r8, lsl r0
 83c:	00000020 	andeq	r0, r0, r0, lsr #32
 840:	000007c4 	andeq	r0, r0, r4, asr #15
 844:	0000a13c 	andeq	sl, r0, ip, lsr r1
 848:	00000058 	andeq	r0, r0, r8, asr r0
 84c:	84100e46 	ldrhi	r0, [r0], #-3654	; 0xfffff1ba
 850:	86038504 	strhi	r8, [r3], -r4, lsl #10
 854:	62018e02 	andvs	r8, r1, #2, 28
 858:	c4c5c6ce 	strbgt	ip, [r5], #1742	; 0x6ce
 85c:	0000000e 	andeq	r0, r0, lr
 860:	0000000c 	andeq	r0, r0, ip
 864:	000007c4 	andeq	r0, r0, r4, asr #15
 868:	0000a194 	muleq	r0, r4, r1
 86c:	00000030 	andeq	r0, r0, r0, lsr r0
 870:	00000014 	andeq	r0, r0, r4, lsl r0
 874:	000007c4 	andeq	r0, r0, r4, asr #15
 878:	0000a1c4 	andeq	sl, r0, r4, asr #3
 87c:	00000028 	andeq	r0, r0, r8, lsr #32
 880:	84080e42 	strhi	r0, [r8], #-3650	; 0xfffff1be
 884:	00018e02 	andeq	r8, r1, r2, lsl #28
 888:	0000000c 	andeq	r0, r0, ip
 88c:	ffffffff 			; <UNDEFINED> instruction: 0xffffffff
 890:	7c020001 	stcvc	0, cr0, [r2], {1}
 894:	000d0c0e 	andeq	r0, sp, lr, lsl #24
 898:	00000014 	andeq	r0, r0, r4, lsl r0
 89c:	00000888 	andeq	r0, r0, r8, lsl #17
 8a0:	0000a1ec 	andeq	sl, r0, ip, ror #3
 8a4:	00000014 	andeq	r0, r0, r4, lsl r0
 8a8:	84080e42 	strhi	r0, [r8], #-3650	; 0xfffff1be
 8ac:	00018e02 	andeq	r8, r1, r2, lsl #28
 8b0:	0000000c 	andeq	r0, r0, ip
 8b4:	00000888 	andeq	r0, r0, r8, lsl #17
 8b8:	0000a200 	andeq	sl, r0, r0, lsl #4
 8bc:	00000018 	andeq	r0, r0, r8, lsl r0
 8c0:	0000000c 	andeq	r0, r0, ip
 8c4:	00000888 	andeq	r0, r0, r8, lsl #17
 8c8:	0000a218 	andeq	sl, r0, r8, lsl r2
 8cc:	00000010 	andeq	r0, r0, r0, lsl r0
 8d0:	0000000c 	andeq	r0, r0, ip
 8d4:	ffffffff 			; <UNDEFINED> instruction: 0xffffffff
 8d8:	7c020001 	stcvc	0, cr0, [r2], {1}
 8dc:	000d0c0e 	andeq	r0, sp, lr, lsl #24
 8e0:	0000000c 	andeq	r0, r0, ip
 8e4:	000008d0 	ldrdeq	r0, [r0], -r0	; <UNPREDICTABLE>
 8e8:	0000a228 	andeq	sl, r0, r8, lsr #4
 8ec:	0000002c 	andeq	r0, r0, ip, lsr #32
 8f0:	0000000c 	andeq	r0, r0, ip
 8f4:	ffffffff 			; <UNDEFINED> instruction: 0xffffffff
 8f8:	7c020001 	stcvc	0, cr0, [r2], {1}
 8fc:	000d0c0e 	andeq	r0, sp, lr, lsl #24
 900:	0000000c 	andeq	r0, r0, ip
 904:	000008f0 	strdeq	r0, [r0], -r0	; <UNPREDICTABLE>
 908:	0000a254 	andeq	sl, r0, r4, asr r2
 90c:	00000044 	andeq	r0, r0, r4, asr #32
 910:	0000000c 	andeq	r0, r0, ip
 914:	ffffffff 			; <UNDEFINED> instruction: 0xffffffff
 918:	7c020001 	stcvc	0, cr0, [r2], {1}
 91c:	000d0c0e 	andeq	r0, sp, lr, lsl #24
 920:	0000000c 	andeq	r0, r0, ip
 924:	00000910 	andeq	r0, r0, r0, lsl r9
 928:	0000a298 	muleq	r0, r8, r2
 92c:	00000018 	andeq	r0, r0, r8, lsl r0
 930:	0000000c 	andeq	r0, r0, ip
 934:	ffffffff 			; <UNDEFINED> instruction: 0xffffffff
 938:	7c020001 	stcvc	0, cr0, [r2], {1}
 93c:	000d0c0e 	andeq	r0, sp, lr, lsl #24
 940:	0000000c 	andeq	r0, r0, ip
 944:	00000930 	andeq	r0, r0, r0, lsr r9
 948:	0000a2b0 			; <UNDEFINED> instruction: 0x0000a2b0
 94c:	00000030 	andeq	r0, r0, r0, lsr r0
 950:	0000000c 	andeq	r0, r0, ip
 954:	ffffffff 			; <UNDEFINED> instruction: 0xffffffff
 958:	7c020001 	stcvc	0, cr0, [r2], {1}
 95c:	000d0c0e 	andeq	r0, sp, lr, lsl #24
 960:	0000000c 	andeq	r0, r0, ip
 964:	00000950 	andeq	r0, r0, r0, asr r9
 968:	0000a2e0 	andeq	sl, r0, r0, ror #5
 96c:	00000004 	andeq	r0, r0, r4

Disassembly of section .debug_ranges:

00000000 <.debug_ranges>:
   0:	00000034 	andeq	r0, r0, r4, lsr r0
   4:	00000034 	andeq	r0, r0, r4, lsr r0
   8:	00000040 	andeq	r0, r0, r0, asr #32
   c:	00000044 	andeq	r0, r0, r4, asr #32
	...
  18:	00000034 	andeq	r0, r0, r4, lsr r0
  1c:	00000034 	andeq	r0, r0, r4, lsr r0
  20:	00000034 	andeq	r0, r0, r4, lsr r0
  24:	00000034 	andeq	r0, r0, r4, lsr r0
  28:	00000034 	andeq	r0, r0, r4, lsr r0
  2c:	00000040 	andeq	r0, r0, r0, asr #32
	...
  38:	00000118 	andeq	r0, r0, r8, lsl r1
  3c:	0000014c 	andeq	r0, r0, ip, asr #2
  40:	000001c8 	andeq	r0, r0, r8, asr #3
  44:	00000208 	andeq	r0, r0, r8, lsl #4
	...
  50:	000000d8 	ldrdeq	r0, [r0], -r8
  54:	000000e4 	andeq	r0, r0, r4, ror #1
  58:	0000012c 	andeq	r0, r0, ip, lsr #2
  5c:	0000013c 	andeq	r0, r0, ip, lsr r1
  60:	00000164 	andeq	r0, r0, r4, ror #2
  64:	00000180 	andeq	r0, r0, r0, lsl #3
	...
  70:	000000ec 	andeq	r0, r0, ip, ror #1
  74:	00000108 	andeq	r0, r0, r8, lsl #2
  78:	00000114 	andeq	r0, r0, r4, lsl r1
  7c:	000001a0 	andeq	r0, r0, r0, lsr #3
	...
  88:	000000ec 	andeq	r0, r0, ip, ror #1
  8c:	00000108 	andeq	r0, r0, r8, lsl #2
  90:	00000124 	andeq	r0, r0, r4, lsr #2
  94:	000001a0 	andeq	r0, r0, r0, lsr #3
	...
  a0:	0000028c 	andeq	r0, r0, ip, lsl #5
  a4:	00000294 	muleq	r0, r4, r2
  a8:	000002a0 	andeq	r0, r0, r0, lsr #5
  ac:	000002fc 	strdeq	r0, [r0], -ip
	...
  b8:	00000380 	andeq	r0, r0, r0, lsl #7
  bc:	00000388 	andeq	r0, r0, r8, lsl #7
  c0:	00000394 	muleq	r0, r4, r3
  c4:	00000404 	andeq	r0, r0, r4, lsl #8
	...
  d0:	000004e8 	andeq	r0, r0, r8, ror #9
  d4:	000004ec 	andeq	r0, r0, ip, ror #9
  d8:	000004f0 	strdeq	r0, [r0], -r0	; <UNPREDICTABLE>
  dc:	00000514 	andeq	r0, r0, r4, lsl r5
	...
  e8:	00000518 	andeq	r0, r0, r8, lsl r5
  ec:	00000520 	andeq	r0, r0, r0, lsr #10
  f0:	00000524 	andeq	r0, r0, r4, lsr #10
  f4:	000005cc 	andeq	r0, r0, ip, asr #11
	...
 100:	00000528 	andeq	r0, r0, r8, lsr #10
 104:	00000548 	andeq	r0, r0, r8, asr #10
 108:	0000055c 	andeq	r0, r0, ip, asr r5
 10c:	000005cc 	andeq	r0, r0, ip, asr #11
	...
 118:	00000528 	andeq	r0, r0, r8, lsr #10
 11c:	00000544 	andeq	r0, r0, r4, asr #10
 120:	000005b0 			; <UNDEFINED> instruction: 0x000005b0
 124:	000005cc 	andeq	r0, r0, ip, asr #11
	...
 130:	000000a4 	andeq	r0, r0, r4, lsr #1
 134:	00000148 	andeq	r0, r0, r8, asr #2
 138:	00000158 	andeq	r0, r0, r8, asr r1
 13c:	0000015c 	andeq	r0, r0, ip, asr r1
 140:	00000274 	andeq	r0, r0, r4, ror r2
 144:	00000278 	andeq	r0, r0, r8, ror r2
 148:	0000027c 	andeq	r0, r0, ip, ror r2
 14c:	00000280 	andeq	r0, r0, r0, lsl #5
 150:	00000288 	andeq	r0, r0, r8, lsl #5
 154:	0000029c 	muleq	r0, ip, r2
 158:	000002c0 	andeq	r0, r0, r0, asr #5
 15c:	000002cc 	andeq	r0, r0, ip, asr #5
 160:	000002f0 	strdeq	r0, [r0], -r0	; <UNPREDICTABLE>
 164:	000002f0 	strdeq	r0, [r0], -r0	; <UNPREDICTABLE>
 168:	000002f4 	strdeq	r0, [r0], -r4
 16c:	000002f8 	strdeq	r0, [r0], -r8
	...
 178:	00000148 	andeq	r0, r0, r8, asr #2
 17c:	00000158 	andeq	r0, r0, r8, asr r1
 180:	0000015c 	andeq	r0, r0, ip, asr r1
 184:	0000018c 	andeq	r0, r0, ip, lsl #3
 188:	0000029c 	muleq	r0, ip, r2
 18c:	000002ac 	andeq	r0, r0, ip, lsr #5
	...
 198:	000003c8 	andeq	r0, r0, r8, asr #7
 19c:	000003d0 	ldrdeq	r0, [r0], -r0	; <UNPREDICTABLE>
 1a0:	00000404 	andeq	r0, r0, r4, lsl #8
 1a4:	000004ac 	andeq	r0, r0, ip, lsr #9
 1a8:	000004c0 	andeq	r0, r0, r0, asr #9
 1ac:	00000920 	andeq	r0, r0, r0, lsr #18
 1b0:	00000928 	andeq	r0, r0, r8, lsr #18
 1b4:	000009b4 			; <UNDEFINED> instruction: 0x000009b4
	...
 1c0:	000003c8 	andeq	r0, r0, r8, asr #7
 1c4:	000003d0 	ldrdeq	r0, [r0], -r0	; <UNPREDICTABLE>
 1c8:	00000504 	andeq	r0, r0, r4, lsl #10
 1cc:	000005d0 	ldrdeq	r0, [r0], -r0	; <UNPREDICTABLE>
 1d0:	00000800 	andeq	r0, r0, r0, lsl #16
 1d4:	00000888 	andeq	r0, r0, r8, lsl #17
 1d8:	00000930 	andeq	r0, r0, r0, lsr r9
 1dc:	000009b4 			; <UNDEFINED> instruction: 0x000009b4
	...
 1e8:	00000404 	andeq	r0, r0, r4, lsl #8
 1ec:	00000408 	andeq	r0, r0, r8, lsl #8
 1f0:	00000414 	andeq	r0, r0, r4, lsl r4
 1f4:	00000414 	andeq	r0, r0, r4, lsl r4
 1f8:	00000428 	andeq	r0, r0, r8, lsr #8
 1fc:	0000042c 	andeq	r0, r0, ip, lsr #8
	...
 208:	000005fc 	strdeq	r0, [r0], -ip
 20c:	00000700 	andeq	r0, r0, r0, lsl #14
 210:	000007ec 	andeq	r0, r0, ip, ror #15
 214:	000007f4 	strdeq	r0, [r0], -r4
 218:	00000888 	andeq	r0, r0, r8, lsl #17
 21c:	00000894 	muleq	r0, r4, r8
 220:	000008a8 	andeq	r0, r0, r8, lsr #17
 224:	000008bc 			; <UNDEFINED> instruction: 0x000008bc
 228:	00000910 	andeq	r0, r0, r0, lsl r9
 22c:	00000920 	andeq	r0, r0, r0, lsr #18
	...
 238:	00000600 	andeq	r0, r0, r0, lsl #12
 23c:	00000604 	andeq	r0, r0, r4, lsl #12
 240:	00000608 	andeq	r0, r0, r8, lsl #12
 244:	000006b4 			; <UNDEFINED> instruction: 0x000006b4
 248:	000006cc 	andeq	r0, r0, ip, asr #13
 24c:	000006d0 	ldrdeq	r0, [r0], -r0	; <UNPREDICTABLE>
 250:	000008a8 	andeq	r0, r0, r8, lsr #17
 254:	000008b8 			; <UNDEFINED> instruction: 0x000008b8
 258:	00000910 	andeq	r0, r0, r0, lsl r9
 25c:	00000920 	andeq	r0, r0, r0, lsr #18
	...
 268:	000006b4 			; <UNDEFINED> instruction: 0x000006b4
 26c:	000006cc 	andeq	r0, r0, ip, asr #13
 270:	000006d0 	ldrdeq	r0, [r0], -r0	; <UNPREDICTABLE>
 274:	00000700 	andeq	r0, r0, r0, lsl #14
 278:	000007ec 	andeq	r0, r0, ip, ror #15
 27c:	000007f4 	strdeq	r0, [r0], -r4
 280:	00000888 	andeq	r0, r0, r8, lsl #17
 284:	00000894 	muleq	r0, r4, r8
 288:	000008b8 			; <UNDEFINED> instruction: 0x000008b8
 28c:	000008bc 			; <UNDEFINED> instruction: 0x000008bc
	...
 298:	00000700 	andeq	r0, r0, r0, lsl #14
 29c:	00000708 	andeq	r0, r0, r8, lsl #14
 2a0:	0000070c 	andeq	r0, r0, ip, lsl #14
 2a4:	000007ec 	andeq	r0, r0, ip, ror #15
 2a8:	00000894 	muleq	r0, r4, r8
 2ac:	000008a8 	andeq	r0, r0, r8, lsr #17
	...
 2b8:	00000728 	andeq	r0, r0, r8, lsr #14
 2bc:	000007a4 	andeq	r0, r0, r4, lsr #15
 2c0:	000007ac 	andeq	r0, r0, ip, lsr #15
 2c4:	000007b0 			; <UNDEFINED> instruction: 0x000007b0
 2c8:	00000894 	muleq	r0, r4, r8
 2cc:	00000898 	muleq	r0, r8, r8
 2d0:	0000089c 	muleq	r0, ip, r8
 2d4:	000008a0 	andeq	r0, r0, r0, lsr #17
	...
 2e0:	000007a4 	andeq	r0, r0, r4, lsr #15
 2e4:	000007ac 	andeq	r0, r0, ip, lsr #15
 2e8:	000007b0 			; <UNDEFINED> instruction: 0x000007b0
 2ec:	000007ec 	andeq	r0, r0, ip, ror #15
 2f0:	00000898 	muleq	r0, r8, r8
 2f4:	0000089c 	muleq	r0, ip, r8
 2f8:	000008a0 	andeq	r0, r0, r0, lsr #17
 2fc:	000008a8 	andeq	r0, r0, r8, lsr #17
	...
 308:	00009938 	andeq	r9, r0, r8, lsr r9
 30c:	00009938 	andeq	r9, r0, r8, lsr r9
 310:	0000993c 	andeq	r9, r0, ip, lsr r9
 314:	00009944 	andeq	r9, r0, r4, asr #18
	...
 320:	0000990c 	andeq	r9, r0, ip, lsl #18
 324:	00009998 	muleq	r0, r8, r9
	...
 330:	00000030 	andeq	r0, r0, r0, lsr r0
 334:	00000030 	andeq	r0, r0, r0, lsr r0
 338:	00000038 	andeq	r0, r0, r8, lsr r0
 33c:	0000004c 	andeq	r0, r0, ip, asr #32
	...
 348:	0000004c 	andeq	r0, r0, ip, asr #32
 34c:	00000050 	andeq	r0, r0, r0, asr r0
 350:	00000050 	andeq	r0, r0, r0, asr r0
 354:	00000078 	andeq	r0, r0, r8, ror r0
	...
 360:	0000004c 	andeq	r0, r0, ip, asr #32
 364:	00000050 	andeq	r0, r0, r0, asr r0
 368:	00000050 	andeq	r0, r0, r0, asr r0
 36c:	00000060 	andeq	r0, r0, r0, rrx
 370:	00000064 	andeq	r0, r0, r4, rrx
 374:	00000068 	andeq	r0, r0, r8, rrx
	...
 380:	0000004c 	andeq	r0, r0, ip, asr #32
 384:	00000050 	andeq	r0, r0, r0, asr r0
 388:	00000054 	andeq	r0, r0, r4, asr r0
 38c:	00000060 	andeq	r0, r0, r0, rrx
	...
 398:	0000009c 	muleq	r0, ip, r0
 39c:	000000a0 	andeq	r0, r0, r0, lsr #1
 3a0:	000000a0 	andeq	r0, r0, r0, lsr #1
 3a4:	000000c8 	andeq	r0, r0, r8, asr #1
	...
 3b0:	0000009c 	muleq	r0, ip, r0
 3b4:	000000a0 	andeq	r0, r0, r0, lsr #1
 3b8:	000000a0 	andeq	r0, r0, r0, lsr #1
 3bc:	000000b0 	strheq	r0, [r0], -r0	; <UNPREDICTABLE>
 3c0:	000000b4 	strheq	r0, [r0], -r4
 3c4:	000000b8 	strheq	r0, [r0], -r8
	...
 3d0:	0000009c 	muleq	r0, ip, r0
 3d4:	000000a0 	andeq	r0, r0, r0, lsr #1
 3d8:	000000a4 	andeq	r0, r0, r4, lsr #1
 3dc:	000000b0 	strheq	r0, [r0], -r0	; <UNPREDICTABLE>
	...
 3e8:	000000c8 	andeq	r0, r0, r8, asr #1
 3ec:	000000c8 	andeq	r0, r0, r8, asr #1
 3f0:	000000cc 	andeq	r0, r0, ip, asr #1
 3f4:	0000011c 	andeq	r0, r0, ip, lsl r1
	...
 400:	000000f0 	strdeq	r0, [r0], -r0	; <UNPREDICTABLE>
 404:	000000f4 	strdeq	r0, [r0], -r4
 408:	000000f4 	strdeq	r0, [r0], -r4
 40c:	0000011c 	andeq	r0, r0, ip, lsl r1
	...
 418:	000000f0 	strdeq	r0, [r0], -r0	; <UNPREDICTABLE>
 41c:	000000f4 	strdeq	r0, [r0], -r4
 420:	000000f4 	strdeq	r0, [r0], -r4
 424:	00000104 	andeq	r0, r0, r4, lsl #2
 428:	00000108 	andeq	r0, r0, r8, lsl #2
 42c:	0000010c 	andeq	r0, r0, ip, lsl #2
	...
 438:	000000f0 	strdeq	r0, [r0], -r0	; <UNPREDICTABLE>
 43c:	000000f4 	strdeq	r0, [r0], -r4
 440:	000000f8 	strdeq	r0, [r0], -r8
 444:	00000104 	andeq	r0, r0, r4, lsl #2
	...
 450:	00000134 	andeq	r0, r0, r4, lsr r1
 454:	00000134 	andeq	r0, r0, r4, lsr r1
 458:	00000134 	andeq	r0, r0, r4, lsr r1
 45c:	0000013c 	andeq	r0, r0, ip, lsr r1
	...
 468:	0000024c 	andeq	r0, r0, ip, asr #4
 46c:	00000264 	andeq	r0, r0, r4, ror #4
 470:	000002c8 	andeq	r0, r0, r8, asr #5
 474:	000002e8 	andeq	r0, r0, r8, ror #5
	...
 480:	00000008 	andeq	r0, r0, r8
 484:	0000000c 	andeq	r0, r0, ip
 488:	00000014 	andeq	r0, r0, r4, lsl r0
 48c:	00000054 	andeq	r0, r0, r4, asr r0
 490:	00000058 	andeq	r0, r0, r8, asr r0
 494:	00000060 	andeq	r0, r0, r0, rrx
	...
 4a0:	00000060 	andeq	r0, r0, r0, rrx
 4a4:	00000068 	andeq	r0, r0, r8, rrx
 4a8:	0000006c 	andeq	r0, r0, ip, rrx
 4ac:	000000ac 	andeq	r0, r0, ip, lsr #1
 4b0:	000000b0 	strheq	r0, [r0], -r0	; <UNPREDICTABLE>
 4b4:	000000b8 	strheq	r0, [r0], -r8
	...
 4c0:	00000068 	andeq	r0, r0, r8, rrx
 4c4:	00000068 	andeq	r0, r0, r8, rrx
 4c8:	0000006c 	andeq	r0, r0, ip, rrx
 4cc:	000000ac 	andeq	r0, r0, ip, lsr #1
 4d0:	000000b0 	strheq	r0, [r0], -r0	; <UNPREDICTABLE>
 4d4:	000000b8 	strheq	r0, [r0], -r8
	...
 4e0:	000000e8 	andeq	r0, r0, r8, ror #1
 4e4:	000000f0 	strdeq	r0, [r0], -r0	; <UNPREDICTABLE>
 4e8:	000000f4 	strdeq	r0, [r0], -r4
 4ec:	00000134 	andeq	r0, r0, r4, lsr r1
 4f0:	00000138 	andeq	r0, r0, r8, lsr r1
 4f4:	00000140 	andeq	r0, r0, r0, asr #2
	...
 500:	000000f0 	strdeq	r0, [r0], -r0	; <UNPREDICTABLE>
 504:	000000f0 	strdeq	r0, [r0], -r0	; <UNPREDICTABLE>
 508:	000000f4 	strdeq	r0, [r0], -r4
 50c:	00000134 	andeq	r0, r0, r4, lsr r1
 510:	00000138 	andeq	r0, r0, r8, lsr r1
 514:	00000140 	andeq	r0, r0, r0, asr #2
	...
 520:	00000144 	andeq	r0, r0, r4, asr #2
 524:	00000148 	andeq	r0, r0, r8, asr #2
 528:	00000150 	andeq	r0, r0, r0, asr r1
 52c:	0000015c 	andeq	r0, r0, ip, asr r1
	...
