
tests-2.0/part1-test2-bug.elf:     file format elf32-littlearm


Disassembly of section .text:

00008000 <__code_start__>:
    8000:	e3a00013 	mov	r0, #19, 0
    8004:	e3800080 	orr	r0, r0, #128, 0	; 0x80
    8008:	e129f000 	msr	CPSR_fc, r0
    800c:	e3a01000 	mov	r1, #0, 0
    8010:	ee071f95 	mcr	15, 0, r1, cr7, cr5, {4}
    8014:	e3a0d302 	mov	sp, #134217728	; 0x8000000
    8018:	e3a0b000 	mov	fp, #0, 0
    801c:	eb000699 	bl	9a88 <_cstart>
    8020:	eb0006e2 	bl	9bb0 <rpi_reboot>

00008024 <PUT32>:
    8024:	e5801000 	str	r1, [r0]
    8028:	e12fff1e 	bx	lr

0000802c <GET32>:
    802c:	e5900000 	ldr	r0, [r0]
    8030:	e12fff1e 	bx	lr

00008034 <BRANCHTO>:
    8034:	e12fff10 	bx	r0
    8038:	6d746f6e 	ldclvs	15, cr6, [r4, #-440]!	; 0xfffffe48
    803c:	006e6961 	rsbeq	r6, lr, r1, ror #18
    8040:	ff000008 			; <UNDEFINED> instruction: 0xff000008

00008044 <notmain>:
    8044:	e1a0c00d 	mov	ip, sp
    8048:	e92dd870 	push	{r4, r5, r6, fp, ip, lr, pc}
    804c:	e24cb004 	sub	fp, ip, #4, 0
    8050:	e24dd01c 	sub	sp, sp, #28, 0
    8054:	e59f0078 	ldr	r0, [pc, #120]	; 80d4 <notmain+0x90>
    8058:	eb0003ee 	bl	9018 <printk>
    805c:	e59f5074 	ldr	r5, [pc, #116]	; 80d8 <notmain+0x94>
    8060:	e50b5034 	str	r5, [fp, #-52]	; 0xffffffcc
    8064:	e59f6070 	ldr	r6, [pc, #112]	; 80dc <notmain+0x98>
    8068:	e50b6030 	str	r6, [fp, #-48]	; 0xffffffd0
    806c:	e3a03007 	mov	r3, #7, 0
    8070:	e50b302c 	str	r3, [fp, #-44]	; 0xffffffd4
    8074:	e24b3034 	sub	r3, fp, #52, 0	; 0x34
    8078:	e893000e 	ldm	r3, {r1, r2, r3}
    807c:	e3a00004 	mov	r0, #4, 0
    8080:	eb0000e2 	bl	8410 <ckalloc>
    8084:	e1a04000 	mov	r4, r0
    8088:	e3a02004 	mov	r2, #4, 0
    808c:	e3a01000 	mov	r1, #0, 0
    8090:	eb0003c2 	bl	8fa0 <memset>
    8094:	e3a03001 	mov	r3, #1, 0
    8098:	e5c43004 	strb	r3, [r4, #4]
    809c:	e50b5028 	str	r5, [fp, #-40]	; 0xffffffd8
    80a0:	e50b6024 	str	r6, [fp, #-36]	; 0xffffffdc
    80a4:	e3a0300a 	mov	r3, #10, 0
    80a8:	e50b3020 	str	r3, [fp, #-32]	; 0xffffffe0
    80ac:	e24b301c 	sub	r3, fp, #28, 0
    80b0:	e913000e 	ldmdb	r3, {r1, r2, r3}
    80b4:	e1a00004 	mov	r0, r4
    80b8:	eb00006a 	bl	8268 <ckfree>
    80bc:	e3a0300c 	mov	r3, #12, 0
    80c0:	e1a02006 	mov	r2, r6
    80c4:	e1a01005 	mov	r1, r5
    80c8:	e59f0010 	ldr	r0, [pc, #16]	; 80e0 <notmain+0x9c>
    80cc:	eb0003d1 	bl	9018 <printk>
    80d0:	eb000661 	bl	9a5c <clean_reboot>
    80d4:	0000a578 	andeq	sl, r0, r8, ror r5
    80d8:	0000a59c 	muleq	r0, ip, r5
    80dc:	0000a600 	andeq	sl, r0, r0, lsl #12
    80e0:	0000a5b8 			; <UNDEFINED> instruction: 0x0000a5b8
    80e4:	665f6b63 	ldrbvs	r6, [pc], -r3, ror #22
    80e8:	74737269 	ldrbtvc	r7, [r3], #-617	; 0xfffffd97
    80ec:	7264685f 	rsbvc	r6, r4, #6225920	; 0x5f0000
    80f0:	00000000 	andeq	r0, r0, r0
    80f4:	ff000010 			; <UNDEFINED> instruction: 0xff000010

000080f8 <ck_first_hdr>:
    80f8:	e1a0c00d 	mov	ip, sp
    80fc:	e92dd800 	push	{fp, ip, lr, pc}
    8100:	e24cb004 	sub	fp, ip, #4, 0
    8104:	e59f3004 	ldr	r3, [pc, #4]	; 8110 <ck_first_hdr+0x18>
    8108:	e5930000 	ldr	r0, [r3]
    810c:	e89da800 	ldm	sp, {fp, sp, pc}
    8110:	0000ae70 	andeq	sl, r0, r0, ror lr
    8114:	6e5f6b63 	vnmlavs.f64	d22, d15, d19
    8118:	5f747865 	svcpl	0x00747865
    811c:	00726468 	rsbseq	r6, r2, r8, ror #8
    8120:	ff00000c 			; <UNDEFINED> instruction: 0xff00000c

00008124 <ck_next_hdr>:
    8124:	e1a0c00d 	mov	ip, sp
    8128:	e92dd800 	push	{fp, ip, lr, pc}
    812c:	e24cb004 	sub	fp, ip, #4, 0
    8130:	e3500000 	cmp	r0, #0, 0
    8134:	089da800 	ldmeq	sp, {fp, sp, pc}
    8138:	e5900000 	ldr	r0, [r0]
    813c:	e89da800 	ldm	sp, {fp, sp, pc}
    8140:	685f6b63 	ldmdavs	pc, {r0, r1, r5, r6, r8, r9, fp, sp, lr}^	; <UNPREDICTABLE>
    8144:	735f7264 	cmpvc	pc, #100, 4	; 0x40000006
    8148:	74726174 	ldrbtvc	r6, [r2], #-372	; 0xfffffe8c
    814c:	00000000 	andeq	r0, r0, r0
    8150:	ff000010 			; <UNDEFINED> instruction: 0xff000010

00008154 <ck_hdr_start>:
    8154:	e1a0c00d 	mov	ip, sp
    8158:	e92dd800 	push	{fp, ip, lr, pc}
    815c:	e24cb004 	sub	fp, ip, #4, 0
    8160:	e28000b4 	add	r0, r0, #180, 0	; 0xb4
    8164:	e89da800 	ldm	sp, {fp, sp, pc}
    8168:	685f6b63 	ldmdavs	pc, {r0, r1, r5, r6, r8, r9, fp, sp, lr}^	; <UNPREDICTABLE>
    816c:	655f7264 	ldrbvs	r7, [pc, #-612]	; 7f10 <__code_start__-0xf0>
    8170:	0000646e 	andeq	r6, r0, lr, ror #8
    8174:	ff00000c 			; <UNDEFINED> instruction: 0xff00000c

00008178 <ck_hdr_end>:
    8178:	e1a0c00d 	mov	ip, sp
    817c:	e92dd830 	push	{r4, r5, fp, ip, lr, pc}
    8180:	e24cb004 	sub	fp, ip, #4, 0
    8184:	e1a04000 	mov	r4, r0
    8188:	ebfffff1 	bl	8154 <ck_hdr_start>
    818c:	e5943004 	ldr	r3, [r4, #4]
    8190:	e0800003 	add	r0, r0, r3
    8194:	e89da830 	ldm	sp, {r4, r5, fp, sp, pc}
    8198:	705f6b63 	subsvc	r6, pc, r3, ror #22
    819c:	695f7274 	ldmdbvs	pc, {r2, r4, r5, r6, r9, ip, sp, lr}^	; <UNPREDICTABLE>
    81a0:	6c625f6e 	stclvs	15, cr5, [r2], #-440	; 0xfffffe48
    81a4:	006b636f 	rsbeq	r6, fp, pc, ror #6
    81a8:	ff000010 			; <UNDEFINED> instruction: 0xff000010

000081ac <ck_ptr_in_block>:
    81ac:	e1a0c00d 	mov	ip, sp
    81b0:	e92dd8f0 	push	{r4, r5, r6, r7, fp, ip, lr, pc}
    81b4:	e24cb004 	sub	fp, ip, #4, 0
    81b8:	e1a06000 	mov	r6, r0
    81bc:	e1a04001 	mov	r4, r1
    81c0:	ebffffe3 	bl	8154 <ck_hdr_start>
    81c4:	e1a05000 	mov	r5, r0
    81c8:	e1a00006 	mov	r0, r6
    81cc:	ebffffe9 	bl	8178 <ck_hdr_end>
    81d0:	e1550004 	cmp	r5, r4
    81d4:	91540000 	cmpls	r4, r0
    81d8:	33a00001 	movcc	r0, #1, 0
    81dc:	23a00000 	movcs	r0, #0, 0
    81e0:	e89da8f0 	ldm	sp, {r4, r5, r6, r7, fp, sp, pc}
    81e4:	705f6b63 	subsvc	r6, pc, r3, ror #22
    81e8:	695f7274 	ldmdbvs	pc, {r2, r4, r5, r6, r9, ip, sp, lr}^	; <UNPREDICTABLE>
    81ec:	6c615f73 	stclvs	15, cr5, [r1], #-460	; 0xfffffe34
    81f0:	65636f6c 	strbvs	r6, [r3, #-3948]!	; 0xfffff094
    81f4:	00000064 	andeq	r0, r0, r4, rrx
    81f8:	ff000014 			; <UNDEFINED> instruction: 0xff000014

000081fc <ck_ptr_is_alloced>:
    81fc:	e1a0c00d 	mov	ip, sp
    8200:	e92dd830 	push	{r4, r5, fp, ip, lr, pc}
    8204:	e24cb004 	sub	fp, ip, #4, 0
    8208:	e1a05000 	mov	r5, r0
    820c:	ebffffb9 	bl	80f8 <ck_first_hdr>
    8210:	e1a04000 	mov	r4, r0
    8214:	e3540000 	cmp	r4, #0, 0
    8218:	0a00000c 	beq	8250 <ck_ptr_is_alloced+0x54>
    821c:	e1a01005 	mov	r1, r5
    8220:	e1a00004 	mov	r0, r4
    8224:	ebffffe0 	bl	81ac <ck_ptr_in_block>
    8228:	e3500000 	cmp	r0, #0, 0
    822c:	1a000003 	bne	8240 <ck_ptr_is_alloced+0x44>
    8230:	e1a00004 	mov	r0, r4
    8234:	ebffffba 	bl	8124 <ck_next_hdr>
    8238:	e1a04000 	mov	r4, r0
    823c:	eafffff4 	b	8214 <ck_ptr_is_alloced+0x18>
    8240:	e1a02004 	mov	r2, r4
    8244:	e1a01005 	mov	r1, r5
    8248:	e59f0008 	ldr	r0, [pc, #8]	; 8258 <ck_ptr_is_alloced+0x5c>
    824c:	eb000371 	bl	9018 <printk>
    8250:	e1a00004 	mov	r0, r4
    8254:	e89da830 	ldm	sp, {r4, r5, fp, sp, pc}
    8258:	0000a608 	andeq	sl, r0, r8, lsl #12
    825c:	72666b63 	rsbvc	r6, r6, #101376	; 0x18c00
    8260:	00006565 	andeq	r6, r0, r5, ror #10
    8264:	ff000008 			; <UNDEFINED> instruction: 0xff000008

00008268 <ckfree>:
    8268:	e1a0c00d 	mov	ip, sp
    826c:	e92dd8f0 	push	{r4, r5, r6, r7, fp, ip, lr, pc}
    8270:	e24cb004 	sub	fp, ip, #4, 0
    8274:	e24dd018 	sub	sp, sp, #24, 0
    8278:	e1a04000 	mov	r4, r0
    827c:	e24b0028 	sub	r0, fp, #40, 0	; 0x28
    8280:	e880000e 	stm	r0, {r1, r2, r3}
    8284:	e244c098 	sub	ip, r4, #152, 0	; 0x98
    8288:	e8900007 	ldm	r0, {r0, r1, r2}
    828c:	e88c000b 	stm	ip, {r0, r1, r3}
    8290:	e1a05000 	mov	r5, r0
    8294:	e51b6024 	ldr	r6, [fp, #-36]	; 0xffffffdc
    8298:	e51b7020 	ldr	r7, [fp, #-32]	; 0xffffffe0
    829c:	e1a03007 	mov	r3, r7
    82a0:	e1a02006 	mov	r2, r6
    82a4:	e1a01000 	mov	r1, r0
    82a8:	e59f012c 	ldr	r0, [pc, #300]	; 83dc <ckfree+0x174>
    82ac:	eb000359 	bl	9018 <printk>
    82b0:	e1a01004 	mov	r1, r4
    82b4:	e59f0124 	ldr	r0, [pc, #292]	; 83e0 <ckfree+0x178>
    82b8:	eb000356 	bl	9018 <printk>
    82bc:	e51430ac 	ldr	r3, [r4, #-172]	; 0xffffff54
    82c0:	e353000b 	cmp	r3, #11, 0
    82c4:	1a00000d 	bne	8300 <ckfree+0x98>
    82c8:	e3a03000 	mov	r3, #0, 0
    82cc:	e353007f 	cmp	r3, #127, 0	; 0x7f
    82d0:	ca000026 	bgt	8370 <ckfree+0x108>
    82d4:	e0842003 	add	r2, r4, r3
    82d8:	e5522082 	ldrb	r2, [r2, #-130]	; 0xffffff7e
    82dc:	e35200fe 	cmp	r2, #254, 0	; 0xfe
    82e0:	1a000010 	bne	8328 <ckfree+0xc0>
    82e4:	e51420b0 	ldr	r2, [r4, #-176]	; 0xffffff50
    82e8:	e0832002 	add	r2, r3, r2
    82ec:	e7d42002 	ldrb	r2, [r4, r2]
    82f0:	e35200fe 	cmp	r2, #254, 0	; 0xfe
    82f4:	1a000014 	bne	834c <ckfree+0xe4>
    82f8:	e2833001 	add	r3, r3, #1, 0
    82fc:	eafffff2 	b	82cc <ckfree+0x64>
    8300:	eb0002fe 	bl	8f00 <backtrace>
    8304:	e1a03007 	mov	r3, r7
    8308:	e1a02006 	mov	r2, r6
    830c:	e1a01005 	mov	r1, r5
    8310:	e59f00cc 	ldr	r0, [pc, #204]	; 83e4 <ckfree+0x17c>
    8314:	eb00033f 	bl	9018 <printk>
    8318:	e51410ac 	ldr	r1, [r4, #-172]	; 0xffffff54
    831c:	e59f00c4 	ldr	r0, [pc, #196]	; 83e8 <ckfree+0x180>
    8320:	eb00033c 	bl	9018 <printk>
    8324:	eb0005cc 	bl	9a5c <clean_reboot>
    8328:	eb0002f4 	bl	8f00 <backtrace>
    832c:	e1a03007 	mov	r3, r7
    8330:	e1a02006 	mov	r2, r6
    8334:	e1a01005 	mov	r1, r5
    8338:	e59f00a4 	ldr	r0, [pc, #164]	; 83e4 <ckfree+0x17c>
    833c:	eb000335 	bl	9018 <printk>
    8340:	e59f00a4 	ldr	r0, [pc, #164]	; 83ec <ckfree+0x184>
    8344:	eb000333 	bl	9018 <printk>
    8348:	eb0005c3 	bl	9a5c <clean_reboot>
    834c:	eb0002eb 	bl	8f00 <backtrace>
    8350:	e1a03007 	mov	r3, r7
    8354:	e1a02006 	mov	r2, r6
    8358:	e1a01005 	mov	r1, r5
    835c:	e59f0080 	ldr	r0, [pc, #128]	; 83e4 <ckfree+0x17c>
    8360:	eb00032c 	bl	9018 <printk>
    8364:	e59f0084 	ldr	r0, [pc, #132]	; 83f0 <ckfree+0x188>
    8368:	eb00032a 	bl	9018 <printk>
    836c:	eb0005ba 	bl	9a5c <clean_reboot>
    8370:	e3a03000 	mov	r3, #0, 0
    8374:	e51420b0 	ldr	r2, [r4, #-176]	; 0xffffff50
    8378:	e1520003 	cmp	r2, r3
    837c:	83e02001 	mvnhi	r2, #1, 0
    8380:	87c42003 	strbhi	r2, [r4, r3]
    8384:	82833001 	addhi	r3, r3, #1, 0
    8388:	8afffff9 	bhi	8374 <ckfree+0x10c>
    838c:	e3a0300c 	mov	r3, #12, 0
    8390:	e50430ac 	str	r3, [r4, #-172]	; 0xffffff54
    8394:	e2443098 	sub	r3, r4, #152, 0	; 0x98
    8398:	e24b201c 	sub	r2, fp, #28, 0
    839c:	e9120007 	ldmdb	r2, {r0, r1, r2}
    83a0:	e8830007 	stm	r3, {r0, r1, r2}
    83a4:	e1a00004 	mov	r0, r4
    83a8:	ebffff93 	bl	81fc <ck_ptr_is_alloced>
    83ac:	e3500000 	cmp	r0, #0, 0
    83b0:	0a000001 	beq	83bc <ckfree+0x154>
    83b4:	e24bd01c 	sub	sp, fp, #28, 0
    83b8:	e89da8f0 	ldm	sp, {r4, r5, r6, r7, fp, sp, pc}
    83bc:	e59f3030 	ldr	r3, [pc, #48]	; 83f4 <ckfree+0x18c>
    83c0:	e58d3000 	str	r3, [sp]
    83c4:	e3a0306d 	mov	r3, #109, 0	; 0x6d
    83c8:	e59f2028 	ldr	r2, [pc, #40]	; 83f8 <ckfree+0x190>
    83cc:	e59f1028 	ldr	r1, [pc, #40]	; 83fc <ckfree+0x194>
    83d0:	e59f0028 	ldr	r0, [pc, #40]	; 8400 <ckfree+0x198>
    83d4:	eb00030f 	bl	9018 <printk>
    83d8:	eb00059f 	bl	9a5c <clean_reboot>
    83dc:	0000a618 	andeq	sl, r0, r8, lsl r6
    83e0:	0000a624 	andeq	sl, r0, r4, lsr #12
    83e4:	0000a634 	andeq	sl, r0, r4, lsr r6
    83e8:	0000a64c 	andeq	sl, r0, ip, asr #12
    83ec:	0000a674 	andeq	sl, r0, r4, ror r6
    83f0:	0000a690 	muleq	r0, r0, r6
    83f4:	0000a6cc 	andeq	sl, r0, ip, asr #13
    83f8:	0000a700 	andeq	sl, r0, r0, lsl #14
    83fc:	0000a6ac 	andeq	sl, r0, ip, lsr #13
    8400:	0000a6b8 			; <UNDEFINED> instruction: 0x0000a6b8
    8404:	6c616b63 			; <UNDEFINED> instruction: 0x6c616b63
    8408:	00636f6c 	rsbeq	r6, r3, ip, ror #30
    840c:	ff000008 			; <UNDEFINED> instruction: 0xff000008

00008410 <ckalloc>:
    8410:	e1a0c00d 	mov	ip, sp
    8414:	e92dd870 	push	{r4, r5, r6, fp, ip, lr, pc}
    8418:	e24cb004 	sub	fp, ip, #4, 0
    841c:	e24dd014 	sub	sp, sp, #20, 0
    8420:	e1a05000 	mov	r5, r0
    8424:	e24b001c 	sub	r0, fp, #28, 0
    8428:	e900000e 	stmdb	r0, {r1, r2, r3}
    842c:	e2850f4d 	add	r0, r5, #308	; 0x134
    8430:	eb00007c 	bl	8628 <kr_malloc>
    8434:	e1a04000 	mov	r4, r0
    8438:	e3a020b4 	mov	r2, #180, 0	; 0xb4
    843c:	e3a01000 	mov	r1, #0, 0
    8440:	eb0002d6 	bl	8fa0 <memset>
    8444:	e3a03000 	mov	r3, #0, 0
    8448:	e353007f 	cmp	r3, #127, 0	; 0x7f
    844c:	ca000007 	bgt	8470 <ckalloc+0x60>
    8450:	e0842003 	add	r2, r4, r3
    8454:	e3e01001 	mvn	r1, #1, 0
    8458:	e5c21032 	strb	r1, [r2, #50]	; 0x32
    845c:	e0832005 	add	r2, r3, r5
    8460:	e28220b4 	add	r2, r2, #180, 0	; 0xb4
    8464:	e7c41002 	strb	r1, [r4, r2]
    8468:	e2833001 	add	r3, r3, #1, 0
    846c:	eafffff5 	b	8448 <ckalloc+0x38>
    8470:	e5845004 	str	r5, [r4, #4]
    8474:	e3a0300b 	mov	r3, #11, 0
    8478:	e5843008 	str	r3, [r4, #8]
    847c:	e2843010 	add	r3, r4, #16, 0
    8480:	e24b201c 	sub	r2, fp, #28, 0
    8484:	e9120007 	ldmdb	r2, {r0, r1, r2}
    8488:	e8830007 	stm	r3, {r0, r1, r2}
    848c:	e51b3020 	ldr	r3, [fp, #-32]	; 0xffffffe0
    8490:	e51b2024 	ldr	r2, [fp, #-36]	; 0xffffffdc
    8494:	e51b1028 	ldr	r1, [fp, #-40]	; 0xffffffd8
    8498:	e59f0030 	ldr	r0, [pc, #48]	; 84d0 <ckalloc+0xc0>
    849c:	eb0002dd 	bl	9018 <printk>
    84a0:	e28460b4 	add	r6, r4, #180, 0	; 0xb4
    84a4:	e1a02005 	mov	r2, r5
    84a8:	e1a01006 	mov	r1, r6
    84ac:	e59f0020 	ldr	r0, [pc, #32]	; 84d4 <ckalloc+0xc4>
    84b0:	eb0002d8 	bl	9018 <printk>
    84b4:	e59f301c 	ldr	r3, [pc, #28]	; 84d8 <ckalloc+0xc8>
    84b8:	e5932000 	ldr	r2, [r3]
    84bc:	e5842000 	str	r2, [r4]
    84c0:	e5834000 	str	r4, [r3]
    84c4:	e1a00006 	mov	r0, r6
    84c8:	e24bd018 	sub	sp, fp, #24, 0
    84cc:	e89da870 	ldm	sp, {r4, r5, r6, fp, sp, pc}
    84d0:	0000a618 	andeq	sl, r0, r8, lsl r6
    84d4:	0000a6e4 	andeq	sl, r0, r4, ror #13
    84d8:	0000ae70 	andeq	sl, r0, r0, ror lr
    84dc:	665f726b 	ldrbvs	r7, [pc], -fp, ror #4
    84e0:	00656572 	rsbeq	r6, r5, r2, ror r5
    84e4:	ff000008 			; <UNDEFINED> instruction: 0xff000008

000084e8 <kr_free>:
    84e8:	e1a0c00d 	mov	ip, sp
    84ec:	e92dd800 	push	{fp, ip, lr, pc}
    84f0:	e24cb004 	sub	fp, ip, #4, 0
    84f4:	e2401008 	sub	r1, r0, #8, 0
    84f8:	e59f30a8 	ldr	r3, [pc, #168]	; 85a8 <kr_free+0xc0>
    84fc:	e5933000 	ldr	r3, [r3]
    8500:	ea000000 	b	8508 <kr_free+0x20>
    8504:	e1a03002 	mov	r3, r2
    8508:	e1530001 	cmp	r3, r1
    850c:	2a000002 	bcs	851c <kr_free+0x34>
    8510:	e5932000 	ldr	r2, [r3]
    8514:	e1520001 	cmp	r2, r1
    8518:	8a000007 	bhi	853c <kr_free+0x54>
    851c:	e5932000 	ldr	r2, [r3]
    8520:	e1520003 	cmp	r2, r3
    8524:	8afffff6 	bhi	8504 <kr_free+0x1c>
    8528:	e1530001 	cmp	r3, r1
    852c:	3a000002 	bcc	853c <kr_free+0x54>
    8530:	e1520001 	cmp	r2, r1
    8534:	91a03002 	movls	r3, r2
    8538:	9afffff2 	bls	8508 <kr_free+0x20>
    853c:	e510c004 	ldr	ip, [r0, #-4]
    8540:	e081e18c 	add	lr, r1, ip, lsl #3
    8544:	e5932000 	ldr	r2, [r3]
    8548:	e15e0002 	cmp	lr, r2
    854c:	0a000008 	beq	8574 <kr_free+0x8c>
    8550:	e5002008 	str	r2, [r0, #-8]
    8554:	e5932004 	ldr	r2, [r3, #4]
    8558:	e083c182 	add	ip, r3, r2, lsl #3
    855c:	e15c0001 	cmp	ip, r1
    8560:	0a00000a 	beq	8590 <kr_free+0xa8>
    8564:	e5831000 	str	r1, [r3]
    8568:	e59f2038 	ldr	r2, [pc, #56]	; 85a8 <kr_free+0xc0>
    856c:	e5823000 	str	r3, [r2]
    8570:	e89da800 	ldm	sp, {fp, sp, pc}
    8574:	e5922004 	ldr	r2, [r2, #4]
    8578:	e08cc002 	add	ip, ip, r2
    857c:	e500c004 	str	ip, [r0, #-4]
    8580:	e5932000 	ldr	r2, [r3]
    8584:	e5922000 	ldr	r2, [r2]
    8588:	e5002008 	str	r2, [r0, #-8]
    858c:	eafffff0 	b	8554 <kr_free+0x6c>
    8590:	e5101004 	ldr	r1, [r0, #-4]
    8594:	e0822001 	add	r2, r2, r1
    8598:	e5832004 	str	r2, [r3, #4]
    859c:	e5102008 	ldr	r2, [r0, #-8]
    85a0:	e5832000 	str	r2, [r3]
    85a4:	eaffffef 	b	8568 <kr_free+0x80>
    85a8:	0000ae78 	andeq	sl, r0, r8, ror lr
    85ac:	65726f6d 	ldrbvs	r6, [r2, #-3949]!	; 0xfffff093
    85b0:	65726f63 	ldrbvs	r6, [r2, #-3939]!	; 0xfffff09d
    85b4:	00000000 	andeq	r0, r0, r0
    85b8:	ff00000c 			; <UNDEFINED> instruction: 0xff00000c

000085bc <morecore>:
    85bc:	e1a0c00d 	mov	ip, sp
    85c0:	e92dd830 	push	{r4, r5, fp, ip, lr, pc}
    85c4:	e24cb004 	sub	fp, ip, #4, 0
    85c8:	e1a04000 	mov	r4, r0
    85cc:	e3500b01 	cmp	r0, #1024	; 0x400
    85d0:	33a04b01 	movcc	r4, #1024	; 0x400
    85d4:	e1a01004 	mov	r1, r4
    85d8:	e59f0030 	ldr	r0, [pc, #48]	; 8610 <morecore+0x54>
    85dc:	eb00028d 	bl	9018 <printk>
    85e0:	e1a00184 	lsl	r0, r4, #3
    85e4:	eb000171 	bl	8bb0 <sbrk>
    85e8:	e3700001 	cmn	r0, #1, 0
    85ec:	0a000005 	beq	8608 <morecore+0x4c>
    85f0:	e5804004 	str	r4, [r0, #4]
    85f4:	e2800008 	add	r0, r0, #8, 0
    85f8:	ebffffba 	bl	84e8 <kr_free>
    85fc:	e59f3010 	ldr	r3, [pc, #16]	; 8614 <morecore+0x58>
    8600:	e5930000 	ldr	r0, [r3]
    8604:	e89da830 	ldm	sp, {r4, r5, fp, sp, pc}
    8608:	e3a00000 	mov	r0, #0, 0
    860c:	e89da830 	ldm	sp, {r4, r5, fp, sp, pc}
    8610:	0000a708 	andeq	sl, r0, r8, lsl #14
    8614:	0000ae78 	andeq	sl, r0, r8, ror lr
    8618:	6d5f726b 	lfmvs	f7, 2, [pc, #-428]	; 8474 <ckalloc+0x64>
    861c:	6f6c6c61 	svcvs	0x006c6c61
    8620:	00000063 	andeq	r0, r0, r3, rrx
    8624:	ff00000c 			; <UNDEFINED> instruction: 0xff00000c

00008628 <kr_malloc>:
    8628:	e1a0c00d 	mov	ip, sp
    862c:	e92dd830 	push	{r4, r5, fp, ip, lr, pc}
    8630:	e24cb004 	sub	fp, ip, #4, 0
    8634:	e2804007 	add	r4, r0, #7, 0
    8638:	e1a041a4 	lsr	r4, r4, #3
    863c:	e2844001 	add	r4, r4, #1, 0
    8640:	e59f3090 	ldr	r3, [pc, #144]	; 86d8 <kr_malloc+0xb0>
    8644:	e5932000 	ldr	r2, [r3]
    8648:	e3520000 	cmp	r2, #0, 0
    864c:	0a000001 	beq	8658 <kr_malloc+0x30>
    8650:	e5920000 	ldr	r0, [r2]
    8654:	ea000013 	b	86a8 <kr_malloc+0x80>
    8658:	e2832008 	add	r2, r3, #8, 0
    865c:	e5832000 	str	r2, [r3]
    8660:	e5832008 	str	r2, [r3, #8]
    8664:	e3a01000 	mov	r1, #0, 0
    8668:	e583100c 	str	r1, [r3, #12]
    866c:	eafffff7 	b	8650 <kr_malloc+0x28>
    8670:	0a000007 	beq	8694 <kr_malloc+0x6c>
    8674:	e0433004 	sub	r3, r3, r4
    8678:	e5803004 	str	r3, [r0, #4]
    867c:	e0800183 	add	r0, r0, r3, lsl #3
    8680:	e5804004 	str	r4, [r0, #4]
    8684:	e59f304c 	ldr	r3, [pc, #76]	; 86d8 <kr_malloc+0xb0>
    8688:	e5832000 	str	r2, [r3]
    868c:	e2800008 	add	r0, r0, #8, 0
    8690:	e89da830 	ldm	sp, {r4, r5, fp, sp, pc}
    8694:	e5903000 	ldr	r3, [r0]
    8698:	e5823000 	str	r3, [r2]
    869c:	eafffff8 	b	8684 <kr_malloc+0x5c>
    86a0:	e1a02000 	mov	r2, r0
    86a4:	e5900000 	ldr	r0, [r0]
    86a8:	e5903004 	ldr	r3, [r0, #4]
    86ac:	e1530004 	cmp	r3, r4
    86b0:	2affffee 	bcs	8670 <kr_malloc+0x48>
    86b4:	e59f301c 	ldr	r3, [pc, #28]	; 86d8 <kr_malloc+0xb0>
    86b8:	e5933000 	ldr	r3, [r3]
    86bc:	e1530000 	cmp	r3, r0
    86c0:	1afffff6 	bne	86a0 <kr_malloc+0x78>
    86c4:	e3a00902 	mov	r0, #32768	; 0x8000
    86c8:	ebffffbb 	bl	85bc <morecore>
    86cc:	e3500000 	cmp	r0, #0, 0
    86d0:	1afffff2 	bne	86a0 <kr_malloc+0x78>
    86d4:	e89da830 	ldm	sp, {r4, r5, fp, sp, pc}
    86d8:	0000ae78 	andeq	sl, r0, r8, ror lr
    86dc:	685f6e69 	ldmdavs	pc, {r0, r3, r5, r6, r9, sl, fp, sp, lr}^	; <UNPREDICTABLE>
    86e0:	00706165 	rsbseq	r6, r0, r5, ror #2
    86e4:	ff000008 			; <UNDEFINED> instruction: 0xff000008

000086e8 <in_heap>:
    86e8:	e1a0c00d 	mov	ip, sp
    86ec:	e92dd800 	push	{fp, ip, lr, pc}
    86f0:	e24cb004 	sub	fp, ip, #4, 0
    86f4:	e59f3030 	ldr	r3, [pc, #48]	; 872c <in_heap+0x44>
    86f8:	e5933000 	ldr	r3, [r3]
    86fc:	e1530000 	cmp	r3, r0
    8700:	8a000005 	bhi	871c <in_heap+0x34>
    8704:	e59f3020 	ldr	r3, [pc, #32]	; 872c <in_heap+0x44>
    8708:	e5933004 	ldr	r3, [r3, #4]
    870c:	e1530000 	cmp	r3, r0
    8710:	9a000003 	bls	8724 <in_heap+0x3c>
    8714:	e3a00001 	mov	r0, #1, 0
    8718:	e89da800 	ldm	sp, {fp, sp, pc}
    871c:	e3a00000 	mov	r0, #0, 0
    8720:	e89da800 	ldm	sp, {fp, sp, pc}
    8724:	e3a00000 	mov	r0, #0, 0
    8728:	e89da800 	ldm	sp, {fp, sp, pc}
    872c:	0000ae88 	andeq	sl, r0, r8, lsl #29
    8730:	705f7369 	subsvc	r7, pc, r9, ror #6
    8734:	00007274 	andeq	r7, r0, r4, ror r2
    8738:	ff000008 			; <UNDEFINED> instruction: 0xff000008

0000873c <is_ptr>:
    873c:	e1a0c00d 	mov	ip, sp
    8740:	e92dd830 	push	{r4, r5, fp, ip, lr, pc}
    8744:	e24cb004 	sub	fp, ip, #4, 0
    8748:	e1a04000 	mov	r4, r0
    874c:	ebffffe5 	bl	86e8 <in_heap>
    8750:	e3500000 	cmp	r0, #0, 0
    8754:	0a000002 	beq	8764 <is_ptr+0x28>
    8758:	e1a00004 	mov	r0, r4
    875c:	ebfffea6 	bl	81fc <ck_ptr_is_alloced>
    8760:	e89da830 	ldm	sp, {r4, r5, fp, sp, pc}
    8764:	e3a00000 	mov	r0, #0, 0
    8768:	e89da830 	ldm	sp, {r4, r5, fp, sp, pc}
    876c:	6b72616d 	blvs	1ca0d28 <__bss_end__+0x1c95a90>
    8770:	00000000 	andeq	r0, r0, r0
    8774:	ff000008 			; <UNDEFINED> instruction: 0xff000008

00008778 <mark>:
    8778:	e1a0c00d 	mov	ip, sp
    877c:	e92dd9f0 	push	{r4, r5, r6, r7, r8, fp, ip, lr, pc}
    8780:	e24cb004 	sub	fp, ip, #4, 0
    8784:	e24dd00c 	sub	sp, sp, #12, 0
    8788:	e1500001 	cmp	r0, r1
    878c:	2a00000d 	bcs	87c8 <mark+0x50>
    8790:	e1a04000 	mov	r4, r0
    8794:	e1a06001 	mov	r6, r1
    8798:	e3100003 	tst	r0, #3, 0
    879c:	1a000011 	bne	87e8 <mark+0x70>
    87a0:	e3110003 	tst	r1, #3, 0
    87a4:	0a00001f 	beq	8828 <mark+0xb0>
    87a8:	e59f3114 	ldr	r3, [pc, #276]	; 88c4 <mark+0x14c>
    87ac:	e58d3000 	str	r3, [sp]
    87b0:	e3a03056 	mov	r3, #86, 0	; 0x56
    87b4:	e59f210c 	ldr	r2, [pc, #268]	; 88c8 <mark+0x150>
    87b8:	e59f110c 	ldr	r1, [pc, #268]	; 88cc <mark+0x154>
    87bc:	e59f010c 	ldr	r0, [pc, #268]	; 88d0 <mark+0x158>
    87c0:	eb000214 	bl	9018 <printk>
    87c4:	eb0004a4 	bl	9a5c <clean_reboot>
    87c8:	e59f3104 	ldr	r3, [pc, #260]	; 88d4 <mark+0x15c>
    87cc:	e58d3000 	str	r3, [sp]
    87d0:	e3a03052 	mov	r3, #82, 0	; 0x52
    87d4:	e59f20ec 	ldr	r2, [pc, #236]	; 88c8 <mark+0x150>
    87d8:	e59f10ec 	ldr	r1, [pc, #236]	; 88cc <mark+0x154>
    87dc:	e59f00ec 	ldr	r0, [pc, #236]	; 88d0 <mark+0x158>
    87e0:	eb00020c 	bl	9018 <printk>
    87e4:	eb00049c 	bl	9a5c <clean_reboot>
    87e8:	e59f30e8 	ldr	r3, [pc, #232]	; 88d8 <mark+0x160>
    87ec:	e58d3000 	str	r3, [sp]
    87f0:	e3a03055 	mov	r3, #85, 0	; 0x55
    87f4:	e59f20cc 	ldr	r2, [pc, #204]	; 88c8 <mark+0x150>
    87f8:	e59f10cc 	ldr	r1, [pc, #204]	; 88cc <mark+0x154>
    87fc:	e59f00cc 	ldr	r0, [pc, #204]	; 88d0 <mark+0x158>
    8800:	eb000204 	bl	9018 <printk>
    8804:	eb000494 	bl	9a5c <clean_reboot>
    8808:	e3a03002 	mov	r3, #2, 0
    880c:	ea00001b 	b	8880 <mark+0x108>
    8810:	e3a01002 	mov	r1, #2, 0
    8814:	e59f00c0 	ldr	r0, [pc, #192]	; 88dc <mark+0x164>
    8818:	eb0001fe 	bl	9018 <printk>
    881c:	e3580000 	cmp	r8, #0, 0
    8820:	0a00001c 	beq	8898 <mark+0x120>
    8824:	e2844004 	add	r4, r4, #4, 0
    8828:	e1540006 	cmp	r4, r6
    882c:	8a000022 	bhi	88bc <mark+0x144>
    8830:	e5940000 	ldr	r0, [r4]
    8834:	ebffffc0 	bl	873c <is_ptr>
    8838:	e2505000 	subs	r5, r0, #0, 0
    883c:	0afffff8 	beq	8824 <mark+0xac>
    8840:	e28570b4 	add	r7, r5, #180, 0	; 0xb4
    8844:	e1d583b0 	ldrh	r8, [r5, #48]	; 0x30
    8848:	e1a00005 	mov	r0, r5
    884c:	ebfffe40 	bl	8154 <ck_hdr_start>
    8850:	e1a01000 	mov	r1, r0
    8854:	e58d7000 	str	r7, [sp]
    8858:	e5943000 	ldr	r3, [r4]
    885c:	e1a02004 	mov	r2, r4
    8860:	e59f0078 	ldr	r0, [pc, #120]	; 88e0 <mark+0x168>
    8864:	eb0001eb 	bl	9018 <printk>
    8868:	e3580001 	cmp	r8, #1, 0
    886c:	8a00000f 	bhi	88b0 <mark+0x138>
    8870:	e5943000 	ldr	r3, [r4]
    8874:	e1530007 	cmp	r3, r7
    8878:	0affffe2 	beq	8808 <mark+0x90>
    887c:	e3a03001 	mov	r3, #1, 0
    8880:	e1c533b0 	strh	r3, [r5, #48]	; 0x30
    8884:	e5943000 	ldr	r3, [r4]
    8888:	e1530007 	cmp	r3, r7
    888c:	0affffdf 	beq	8810 <mark+0x98>
    8890:	e3a01001 	mov	r1, #1, 0
    8894:	eaffffde 	b	8814 <mark+0x9c>
    8898:	e5951004 	ldr	r1, [r5, #4]
    889c:	e28110b4 	add	r1, r1, #180, 0	; 0xb4
    88a0:	e0851001 	add	r1, r5, r1
    88a4:	e2850004 	add	r0, r5, #4, 0
    88a8:	ebffffb2 	bl	8778 <mark>
    88ac:	eaffffdc 	b	8824 <mark+0xac>
    88b0:	e59f002c 	ldr	r0, [pc, #44]	; 88e4 <mark+0x16c>
    88b4:	eb0001d7 	bl	9018 <printk>
    88b8:	eaffffd9 	b	8824 <mark+0xac>
    88bc:	e24bd020 	sub	sp, fp, #32, 0
    88c0:	e89da9f0 	ldm	sp, {r4, r5, r6, r7, r8, fp, sp, pc}
    88c4:	0000a74c 	andeq	sl, r0, ip, asr #14
    88c8:	0000aa8c 	andeq	sl, r0, ip, lsl #21
    88cc:	0000a72c 	andeq	sl, r0, ip, lsr #14
    88d0:	0000a6b8 			; <UNDEFINED> instruction: 0x0000a6b8
    88d4:	0000a734 	andeq	sl, r0, r4, lsr r7
    88d8:	0000a73c 	andeq	sl, r0, ip, lsr r7
    88dc:	0000a788 	andeq	sl, r0, r8, lsl #15
    88e0:	0000a75c 	andeq	sl, r0, ip, asr r7
    88e4:	0000a798 	muleq	r0, r8, r7
    88e8:	6b72616d 	blvs	1ca0ea4 <__bss_end__+0x1c95c0c>
    88ec:	6c6c615f 	stfvse	f6, [ip], #-380	; 0xfffffe84
    88f0:	00000000 	andeq	r0, r0, r0
    88f4:	ff00000c 			; <UNDEFINED> instruction: 0xff00000c

000088f8 <mark_all>:
    88f8:	e1a0c00d 	mov	ip, sp
    88fc:	e92dd800 	push	{fp, ip, lr, pc}
    8900:	e24cb004 	sub	fp, ip, #4, 0
    8904:	e24dd040 	sub	sp, sp, #64, 0	; 0x40
    8908:	ebfffdfa 	bl	80f8 <ck_first_hdr>
    890c:	e3500000 	cmp	r0, #0, 0
    8910:	0a000005 	beq	892c <mark_all+0x34>
    8914:	e3a03000 	mov	r3, #0, 0
    8918:	e580302c 	str	r3, [r0, #44]	; 0x2c
    891c:	e5803028 	str	r3, [r0, #40]	; 0x28
    8920:	e1c033b0 	strh	r3, [r0, #48]	; 0x30
    8924:	ebfffdfe 	bl	8124 <ck_next_hdr>
    8928:	eafffff7 	b	890c <mark_all+0x14>
    892c:	e24b004c 	sub	r0, fp, #76, 0	; 0x4c
    8930:	eb000170 	bl	8ef8 <dump_regs>
    8934:	e3a03000 	mov	r3, #0, 0
    8938:	e50b304c 	str	r3, [fp, #-76]	; 0xffffffb4
    893c:	e50b3048 	str	r3, [fp, #-72]	; 0xffffffb8
    8940:	e50b3044 	str	r3, [fp, #-68]	; 0xffffffbc
    8944:	e50b3040 	str	r3, [fp, #-64]	; 0xffffffc0
    8948:	e24b1014 	sub	r1, fp, #20, 0
    894c:	e24b004c 	sub	r0, fp, #76, 0	; 0x4c
    8950:	ebffff88 	bl	8778 <mark>
    8954:	e3a02302 	mov	r2, #134217728	; 0x8000000
    8958:	e51b1018 	ldr	r1, [fp, #-24]	; 0xffffffe8
    895c:	e59f002c 	ldr	r0, [pc, #44]	; 8990 <mark_all+0x98>
    8960:	eb0001ac 	bl	9018 <printk>
    8964:	e3a01302 	mov	r1, #134217728	; 0x8000000
    8968:	e51b0018 	ldr	r0, [fp, #-24]	; 0xffffffe8
    896c:	ebffff81 	bl	8778 <mark>
    8970:	e59f101c 	ldr	r1, [pc, #28]	; 8994 <mark_all+0x9c>
    8974:	e59f001c 	ldr	r0, [pc, #28]	; 8998 <mark_all+0xa0>
    8978:	ebffff7e 	bl	8778 <mark>
    897c:	e59f1018 	ldr	r1, [pc, #24]	; 899c <mark_all+0xa4>
    8980:	e59f0018 	ldr	r0, [pc, #24]	; 89a0 <mark_all+0xa8>
    8984:	ebffff7b 	bl	8778 <mark>
    8988:	e24bd00c 	sub	sp, fp, #12, 0
    898c:	e89da800 	ldm	sp, {fp, sp, pc}
    8990:	0000a7a8 	andeq	sl, r0, r8, lsr #15
    8994:	0000b298 	muleq	r0, r8, r2
    8998:	0000ae70 	andeq	sl, r0, r0, ror lr
    899c:	0000ae70 	andeq	sl, r0, r0, ror lr
    89a0:	0000ae5c 	andeq	sl, r0, ip, asr lr
    89a4:	65657773 	strbvs	r7, [r5, #-1907]!	; 0xfffff88d
    89a8:	656c5f70 	strbvs	r5, [ip, #-3952]!	; 0xfffff090
    89ac:	00006b61 	andeq	r6, r0, r1, ror #22
    89b0:	ff00000c 			; <UNDEFINED> instruction: 0xff00000c

000089b4 <sweep_leak>:
    89b4:	e1a0c00d 	mov	ip, sp
    89b8:	e92ddbf0 	push	{r4, r5, r6, r7, r8, r9, fp, ip, lr, pc}
    89bc:	e24cb004 	sub	fp, ip, #4, 0
    89c0:	e1a07000 	mov	r7, r0
    89c4:	e59f00c4 	ldr	r0, [pc, #196]	; 8a90 <sweep_leak+0xdc>
    89c8:	eb000192 	bl	9018 <printk>
    89cc:	e59f00c0 	ldr	r0, [pc, #192]	; 8a94 <sweep_leak+0xe0>
    89d0:	eb000190 	bl	9018 <printk>
    89d4:	ebffffc7 	bl	88f8 <mark_all>
    89d8:	ebfffdc6 	bl	80f8 <ck_first_hdr>
    89dc:	e1a04000 	mov	r4, r0
    89e0:	e3a08000 	mov	r8, #0, 0
    89e4:	e1a06008 	mov	r6, r8
    89e8:	e1a05008 	mov	r5, r8
    89ec:	ea000007 	b	8a10 <sweep_leak+0x5c>
    89f0:	e2866001 	add	r6, r6, #1, 0
    89f4:	e1a02004 	mov	r2, r4
    89f8:	e1a01005 	mov	r1, r5
    89fc:	e59f0094 	ldr	r0, [pc, #148]	; 8a98 <sweep_leak+0xe4>
    8a00:	eb000184 	bl	9018 <printk>
    8a04:	e1a00004 	mov	r0, r4
    8a08:	ebfffdc5 	bl	8124 <ck_next_hdr>
    8a0c:	e1a04000 	mov	r4, r0
    8a10:	e3540000 	cmp	r4, #0, 0
    8a14:	0a00000b 	beq	8a48 <sweep_leak+0x94>
    8a18:	e2855001 	add	r5, r5, #1, 0
    8a1c:	e1d433b0 	ldrh	r3, [r4, #48]	; 0x30
    8a20:	e3530000 	cmp	r3, #0, 0
    8a24:	0afffff1 	beq	89f0 <sweep_leak+0x3c>
    8a28:	e3530001 	cmp	r3, #1, 0
    8a2c:	1afffff4 	bne	8a04 <sweep_leak+0x50>
    8a30:	e2888001 	add	r8, r8, #1, 0
    8a34:	e1a02004 	mov	r2, r4
    8a38:	e1a01005 	mov	r1, r5
    8a3c:	e59f0058 	ldr	r0, [pc, #88]	; 8a9c <sweep_leak+0xe8>
    8a40:	eb000174 	bl	9018 <printk>
    8a44:	eaffffee 	b	8a04 <sweep_leak+0x50>
    8a48:	e1a01005 	mov	r1, r5
    8a4c:	e59f004c 	ldr	r0, [pc, #76]	; 8aa0 <sweep_leak+0xec>
    8a50:	eb000170 	bl	9018 <printk>
    8a54:	e1963008 	orrs	r3, r6, r8
    8a58:	1a000007 	bne	8a7c <sweep_leak+0xc8>
    8a5c:	e59f0040 	ldr	r0, [pc, #64]	; 8aa4 <sweep_leak+0xf0>
    8a60:	eb00016c 	bl	9018 <printk>
    8a64:	e59f003c 	ldr	r0, [pc, #60]	; 8aa8 <sweep_leak+0xf4>
    8a68:	eb00016a 	bl	9018 <printk>
    8a6c:	e3570000 	cmp	r7, #0, 0
    8a70:	10866008 	addne	r6, r6, r8
    8a74:	e1a00006 	mov	r0, r6
    8a78:	e89dabf0 	ldm	sp, {r4, r5, r6, r7, r8, r9, fp, sp, pc}
    8a7c:	e1a02008 	mov	r2, r8
    8a80:	e1a01006 	mov	r1, r6
    8a84:	e59f0020 	ldr	r0, [pc, #32]	; 8aac <sweep_leak+0xf8>
    8a88:	eb000162 	bl	9018 <printk>
    8a8c:	eafffff4 	b	8a64 <sweep_leak+0xb0>
    8a90:	0000a7c4 	andeq	sl, r0, r4, asr #15
    8a94:	0000a800 	andeq	sl, r0, r0, lsl #16
    8a98:	0000a818 	andeq	sl, r0, r8, lsl r8
    8a9c:	0000a82c 	andeq	sl, r0, ip, lsr #16
    8aa0:	0000a844 	andeq	sl, r0, r4, asr #16
    8aa4:	0000a864 	andeq	sl, r0, r4, ror #16
    8aa8:	0000a8bc 			; <UNDEFINED> instruction: 0x0000a8bc
    8aac:	0000a88c 	andeq	sl, r0, ip, lsl #17
    8ab0:	65657773 	strbvs	r7, [r5, #-1907]!	; 0xfffff88d
    8ab4:	72665f70 	rsbvc	r5, r6, #112, 30	; 0x1c0
    8ab8:	00006565 	andeq	r6, r0, r5, ror #10
    8abc:	ff00000c 			; <UNDEFINED> instruction: 0xff00000c

00008ac0 <sweep_free>:
    8ac0:	e1a0c00d 	mov	ip, sp
    8ac4:	e92dd9f0 	push	{r4, r5, r6, r7, r8, fp, ip, lr, pc}
    8ac8:	e24cb004 	sub	fp, ip, #4, 0
    8acc:	e24dd014 	sub	sp, sp, #20, 0
    8ad0:	e59f00b0 	ldr	r0, [pc, #176]	; 8b88 <sweep_free+0xc8>
    8ad4:	eb00014f 	bl	9018 <printk>
    8ad8:	e59f00ac 	ldr	r0, [pc, #172]	; 8b8c <sweep_free+0xcc>
    8adc:	eb00014d 	bl	9018 <printk>
    8ae0:	ebffff84 	bl	88f8 <mark_all>
    8ae4:	ebfffd83 	bl	80f8 <ck_first_hdr>
    8ae8:	e1a04000 	mov	r4, r0
    8aec:	e3a07000 	mov	r7, #0, 0
    8af0:	e1a08007 	mov	r8, r7
    8af4:	e1a05007 	mov	r5, r7
    8af8:	ea000013 	b	8b4c <sweep_free+0x8c>
    8afc:	e2888001 	add	r8, r8, #1, 0
    8b00:	e5943004 	ldr	r3, [r4, #4]
    8b04:	e0877003 	add	r7, r7, r3
    8b08:	e28460b4 	add	r6, r4, #180, 0	; 0xb4
    8b0c:	e59f307c 	ldr	r3, [pc, #124]	; 8b90 <sweep_free+0xd0>
    8b10:	e50b3030 	str	r3, [fp, #-48]	; 0xffffffd0
    8b14:	e59f3078 	ldr	r3, [pc, #120]	; 8b94 <sweep_free+0xd4>
    8b18:	e50b302c 	str	r3, [fp, #-44]	; 0xffffffd4
    8b1c:	e59f3074 	ldr	r3, [pc, #116]	; 8b98 <sweep_free+0xd8>
    8b20:	e50b3028 	str	r3, [fp, #-40]	; 0xffffffd8
    8b24:	e24b3024 	sub	r3, fp, #36, 0	; 0x24
    8b28:	e913000e 	ldmdb	r3, {r1, r2, r3}
    8b2c:	e1a00006 	mov	r0, r6
    8b30:	ebfffdcc 	bl	8268 <ckfree>
    8b34:	e1a01006 	mov	r1, r6
    8b38:	e59f005c 	ldr	r0, [pc, #92]	; 8b9c <sweep_free+0xdc>
    8b3c:	eb000135 	bl	9018 <printk>
    8b40:	e1a00004 	mov	r0, r4
    8b44:	ebfffd76 	bl	8124 <ck_next_hdr>
    8b48:	e1a04000 	mov	r4, r0
    8b4c:	e3540000 	cmp	r4, #0, 0
    8b50:	0a000004 	beq	8b68 <sweep_free+0xa8>
    8b54:	e2855001 	add	r5, r5, #1, 0
    8b58:	e1d433b0 	ldrh	r3, [r4, #48]	; 0x30
    8b5c:	e3530000 	cmp	r3, #0, 0
    8b60:	1afffff6 	bne	8b40 <sweep_free+0x80>
    8b64:	eaffffe4 	b	8afc <sweep_free+0x3c>
    8b68:	e1a03007 	mov	r3, r7
    8b6c:	e1a02008 	mov	r2, r8
    8b70:	e1a01005 	mov	r1, r5
    8b74:	e59f0024 	ldr	r0, [pc, #36]	; 8ba0 <sweep_free+0xe0>
    8b78:	eb000126 	bl	9018 <printk>
    8b7c:	e1a00007 	mov	r0, r7
    8b80:	e24bd020 	sub	sp, fp, #32, 0
    8b84:	e89da9f0 	ldm	sp, {r4, r5, r6, r7, r8, fp, sp, pc}
    8b88:	0000a7c4 	andeq	sl, r0, r4, asr #15
    8b8c:	0000a8f8 	strdeq	sl, [r0], -r8
    8b90:	0000a72c 	andeq	sl, r0, ip, lsr #14
    8b94:	0000aa94 	muleq	r0, r4, sl
    8b98:	0000011e 	andeq	r0, r0, lr, lsl r1
    8b9c:	0000a908 	andeq	sl, r0, r8, lsl #18
    8ba0:	0000a918 	andeq	sl, r0, r8, lsl r9
    8ba4:	6b726273 	blvs	1ca1578 <__bss_end__+0x1c962e0>
    8ba8:	00000000 	andeq	r0, r0, r0
    8bac:	ff000008 			; <UNDEFINED> instruction: 0xff000008

00008bb0 <sbrk>:
    8bb0:	e1a0c00d 	mov	ip, sp
    8bb4:	e92dd830 	push	{r4, r5, fp, ip, lr, pc}
    8bb8:	e24cb004 	sub	fp, ip, #4, 0
    8bbc:	e24dd008 	sub	sp, sp, #8, 0
    8bc0:	e2504000 	subs	r4, r0, #0, 0
    8bc4:	da000010 	ble	8c0c <sbrk+0x5c>
    8bc8:	e59f3074 	ldr	r3, [pc, #116]	; 8c44 <sbrk+0x94>
    8bcc:	e5933008 	ldr	r3, [r3, #8]
    8bd0:	e3530000 	cmp	r3, #0, 0
    8bd4:	1a000014 	bne	8c2c <sbrk+0x7c>
    8bd8:	e59f5064 	ldr	r5, [pc, #100]	; 8c44 <sbrk+0x94>
    8bdc:	e3a00601 	mov	r0, #1048576	; 0x100000
    8be0:	e5850000 	str	r0, [r5]
    8be4:	e3a03602 	mov	r3, #2097152	; 0x200000
    8be8:	e5853004 	str	r3, [r5, #4]
    8bec:	e1a01000 	mov	r1, r0
    8bf0:	eb0004d5 	bl	9f4c <kmalloc_init_set_start>
    8bf4:	e3a03001 	mov	r3, #1, 0
    8bf8:	e5853008 	str	r3, [r5, #8]
    8bfc:	e1a00004 	mov	r0, r4
    8c00:	eb000534 	bl	a0d8 <kmalloc>
    8c04:	e24bd014 	sub	sp, fp, #20, 0
    8c08:	e89da830 	ldm	sp, {r4, r5, fp, sp, pc}
    8c0c:	e59f3034 	ldr	r3, [pc, #52]	; 8c48 <sbrk+0x98>
    8c10:	e58d3000 	str	r3, [sp]
    8c14:	e3a03017 	mov	r3, #23, 0
    8c18:	e59f202c 	ldr	r2, [pc, #44]	; 8c4c <sbrk+0x9c>
    8c1c:	e59f102c 	ldr	r1, [pc, #44]	; 8c50 <sbrk+0xa0>
    8c20:	e59f002c 	ldr	r0, [pc, #44]	; 8c54 <sbrk+0xa4>
    8c24:	eb0000fb 	bl	9018 <printk>
    8c28:	eb00038b 	bl	9a5c <clean_reboot>
    8c2c:	e3a03019 	mov	r3, #25, 0
    8c30:	e59f2014 	ldr	r2, [pc, #20]	; 8c4c <sbrk+0x9c>
    8c34:	e59f1014 	ldr	r1, [pc, #20]	; 8c50 <sbrk+0xa0>
    8c38:	e59f0018 	ldr	r0, [pc, #24]	; 8c58 <sbrk+0xa8>
    8c3c:	eb0000f5 	bl	9018 <printk>
    8c40:	eb000385 	bl	9a5c <clean_reboot>
    8c44:	0000ae88 	andeq	sl, r0, r8, lsl #29
    8c48:	0000a94c 	andeq	sl, r0, ip, asr #18
    8c4c:	0000aaa0 	andeq	sl, r0, r0, lsr #21
    8c50:	0000a72c 	andeq	sl, r0, ip, lsr #14
    8c54:	0000a6b8 			; <UNDEFINED> instruction: 0x0000a6b8
    8c58:	0000a95c 	andeq	sl, r0, ip, asr r9
    8c5c:	7a646572 	bvc	192222c <__bss_end__+0x1916f94>
    8c60:	5f656e6f 	svcpl	0x00656e6f
    8c64:	6f727265 	svcvs	0x00727265
    8c68:	00007372 	andeq	r7, r0, r2, ror r3
    8c6c:	ff000010 			; <UNDEFINED> instruction: 0xff000010

00008c70 <redzone_errors>:
    8c70:	e1a0c00d 	mov	ip, sp
    8c74:	e92dd800 	push	{fp, ip, lr, pc}
    8c78:	e24cb004 	sub	fp, ip, #4, 0
    8c7c:	e1a0c000 	mov	ip, r0
    8c80:	e3a03000 	mov	r3, #0, 0
    8c84:	e1a00003 	mov	r0, r3
    8c88:	ea000001 	b	8c94 <redzone_errors+0x24>
    8c8c:	e2800001 	add	r0, r0, #1, 0
    8c90:	e2833001 	add	r3, r3, #1, 0
    8c94:	e1530001 	cmp	r3, r1
    8c98:	a89da800 	ldmge	sp, {fp, sp, pc}
    8c9c:	e7dc2003 	ldrb	r2, [ip, r3]
    8ca0:	e35200fe 	cmp	r2, #254, 0	; 0xfe
    8ca4:	1afffff8 	bne	8c8c <redzone_errors+0x1c>
    8ca8:	eafffff8 	b	8c90 <redzone_errors+0x20>
    8cac:	685f6b63 	ldmdavs	pc, {r0, r1, r5, r6, r8, r9, fp, sp, lr}^	; <UNPREDICTABLE>
    8cb0:	5f706165 	svcpl	0x00706165
    8cb4:	6f727265 	svcvs	0x00727265
    8cb8:	00007372 	andeq	r7, r0, r2, ror r3
    8cbc:	ff000010 			; <UNDEFINED> instruction: 0xff000010

00008cc0 <ck_heap_errors>:
    8cc0:	e1a0c00d 	mov	ip, sp
    8cc4:	e92dd8f0 	push	{r4, r5, r6, r7, fp, ip, lr, pc}
    8cc8:	e24cb004 	sub	fp, ip, #4, 0
    8ccc:	ebfffd09 	bl	80f8 <ck_first_hdr>
    8cd0:	e1a04000 	mov	r4, r0
    8cd4:	e3a06000 	mov	r6, #0, 0
    8cd8:	ea00000a 	b	8d08 <ck_heap_errors+0x48>
    8cdc:	e5943024 	ldr	r3, [r4, #36]	; 0x24
    8ce0:	e5942020 	ldr	r2, [r4, #32]
    8ce4:	e594101c 	ldr	r1, [r4, #28]
    8ce8:	e59f0098 	ldr	r0, [pc, #152]	; 8d88 <ck_heap_errors+0xc8>
    8cec:	eb0000c9 	bl	9018 <printk>
    8cf0:	e59f0094 	ldr	r0, [pc, #148]	; 8d8c <ck_heap_errors+0xcc>
    8cf4:	eb0000c7 	bl	9018 <printk>
    8cf8:	e0866005 	add	r6, r6, r5
    8cfc:	e1a00004 	mov	r0, r4
    8d00:	ebfffd07 	bl	8124 <ck_next_hdr>
    8d04:	e1a04000 	mov	r4, r0
    8d08:	e3540000 	cmp	r4, #0, 0
    8d0c:	0a00001b 	beq	8d80 <ck_heap_errors+0xc0>
    8d10:	e3a01080 	mov	r1, #128, 0	; 0x80
    8d14:	e2840032 	add	r0, r4, #50, 0	; 0x32
    8d18:	ebffffd4 	bl	8c70 <redzone_errors>
    8d1c:	e1a05000 	mov	r5, r0
    8d20:	e28470b4 	add	r7, r4, #180, 0	; 0xb4
    8d24:	e5940004 	ldr	r0, [r4, #4]
    8d28:	e28000b4 	add	r0, r0, #180, 0	; 0xb4
    8d2c:	e3a01080 	mov	r1, #128, 0	; 0x80
    8d30:	e0840000 	add	r0, r4, r0
    8d34:	ebffffcd 	bl	8c70 <redzone_errors>
    8d38:	e0855000 	add	r5, r5, r0
    8d3c:	e5943018 	ldr	r3, [r4, #24]
    8d40:	e5942014 	ldr	r2, [r4, #20]
    8d44:	e5941010 	ldr	r1, [r4, #16]
    8d48:	e59f0038 	ldr	r0, [pc, #56]	; 8d88 <ck_heap_errors+0xc8>
    8d4c:	eb0000b1 	bl	9018 <printk>
    8d50:	e59f0038 	ldr	r0, [pc, #56]	; 8d90 <ck_heap_errors+0xd0>
    8d54:	eb0000af 	bl	9018 <printk>
    8d58:	e5943008 	ldr	r3, [r4, #8]
    8d5c:	e353000c 	cmp	r3, #12, 0
    8d60:	1affffe4 	bne	8cf8 <ck_heap_errors+0x38>
    8d64:	e5941004 	ldr	r1, [r4, #4]
    8d68:	e1a00007 	mov	r0, r7
    8d6c:	ebffffbf 	bl	8c70 <redzone_errors>
    8d70:	e0855000 	add	r5, r5, r0
    8d74:	e3500000 	cmp	r0, #0, 0
    8d78:	0affffde 	beq	8cf8 <ck_heap_errors+0x38>
    8d7c:	eaffffd6 	b	8cdc <ck_heap_errors+0x1c>
    8d80:	e1a00006 	mov	r0, r6
    8d84:	e89da8f0 	ldm	sp, {r4, r5, r6, r7, fp, sp, pc}
    8d88:	0000a618 	andeq	sl, r0, r8, lsl r6
    8d8c:	0000a9ac 	andeq	sl, r0, ip, lsr #19
    8d90:	0000a97c 	andeq	sl, r0, ip, ror r9
    8d94:	665f6b63 	ldrbvs	r6, [pc], -r3, ror #22
    8d98:	5f646e69 	svcpl	0x00646e69
    8d9c:	6b61656c 	blvs	1862354 <__bss_end__+0x18570bc>
    8da0:	00000073 	andeq	r0, r0, r3, ror r0
    8da4:	ff000010 			; <UNDEFINED> instruction: 0xff000010

00008da8 <ck_find_leaks>:
    8da8:	e1a0c00d 	mov	ip, sp
    8dac:	e92dd800 	push	{fp, ip, lr, pc}
    8db0:	e24cb004 	sub	fp, ip, #4, 0
    8db4:	ebfffefe 	bl	89b4 <sweep_leak>
    8db8:	e89da800 	ldm	sp, {fp, sp, pc}
    8dbc:	63656863 	cmnvs	r5, #6488064	; 0x630000
    8dc0:	6f6e5f6b 	svcvs	0x006e5f6b
    8dc4:	61656c5f 	cmnvs	r5, pc, asr ip
    8dc8:	0000006b 	andeq	r0, r0, fp, rrx
    8dcc:	ff000010 			; <UNDEFINED> instruction: 0xff000010

00008dd0 <check_no_leak>:
    8dd0:	e1a0c00d 	mov	ip, sp
    8dd4:	e92dd800 	push	{fp, ip, lr, pc}
    8dd8:	e24cb004 	sub	fp, ip, #4, 0
    8ddc:	e3a00001 	mov	r0, #1, 0
    8de0:	ebfffff0 	bl	8da8 <ck_find_leaks>
    8de4:	e3500000 	cmp	r0, #0, 0
    8de8:	1a000002 	bne	8df8 <check_no_leak+0x28>
    8dec:	e59f001c 	ldr	r0, [pc, #28]	; 8e10 <check_no_leak+0x40>
    8df0:	eb000088 	bl	9018 <printk>
    8df4:	e89da800 	ldm	sp, {fp, sp, pc}
    8df8:	e3a030f9 	mov	r3, #249, 0	; 0xf9
    8dfc:	e59f2010 	ldr	r2, [pc, #16]	; 8e14 <check_no_leak+0x44>
    8e00:	e59f1010 	ldr	r1, [pc, #16]	; 8e18 <check_no_leak+0x48>
    8e04:	e59f0010 	ldr	r0, [pc, #16]	; 8e1c <check_no_leak+0x4c>
    8e08:	eb000082 	bl	9018 <printk>
    8e0c:	eb000312 	bl	9a5c <clean_reboot>
    8e10:	0000a9f0 	strdeq	sl, [r0], -r0
    8e14:	0000aaa8 	andeq	sl, r0, r8, lsr #21
    8e18:	0000a72c 	andeq	sl, r0, ip, lsr #14
    8e1c:	0000a9c4 	andeq	sl, r0, r4, asr #19
    8e20:	63656863 	cmnvs	r5, #6488064	; 0x630000
    8e24:	68735f6b 	ldmdavs	r3!, {r0, r1, r3, r5, r6, r8, r9, sl, fp, ip, lr}^
    8e28:	646c756f 	strbtvs	r7, [ip], #-1391	; 0xfffffa91
    8e2c:	61656c5f 	cmnvs	r5, pc, asr ip
    8e30:	0000006b 	andeq	r0, r0, fp, rrx
    8e34:	ff000014 			; <UNDEFINED> instruction: 0xff000014

00008e38 <check_should_leak>:
    8e38:	e1a0c00d 	mov	ip, sp
    8e3c:	e92dd830 	push	{r4, r5, fp, ip, lr, pc}
    8e40:	e24cb004 	sub	fp, ip, #4, 0
    8e44:	e3a00001 	mov	r0, #1, 0
    8e48:	ebffffd6 	bl	8da8 <ck_find_leaks>
    8e4c:	e2504000 	subs	r4, r0, #0, 0
    8e50:	0a000004 	beq	8e68 <check_should_leak+0x30>
    8e54:	e1a01004 	mov	r1, r4
    8e58:	e59f0020 	ldr	r0, [pc, #32]	; 8e80 <check_should_leak+0x48>
    8e5c:	eb00006d 	bl	9018 <printk>
    8e60:	e1a00004 	mov	r0, r4
    8e64:	e89da830 	ldm	sp, {r4, r5, fp, sp, pc}
    8e68:	e3a03f42 	mov	r3, #264	; 0x108
    8e6c:	e59f2010 	ldr	r2, [pc, #16]	; 8e84 <check_should_leak+0x4c>
    8e70:	e59f1010 	ldr	r1, [pc, #16]	; 8e88 <check_should_leak+0x50>
    8e74:	e59f0010 	ldr	r0, [pc, #16]	; 8e8c <check_should_leak+0x54>
    8e78:	eb000066 	bl	9018 <printk>
    8e7c:	eb0002f6 	bl	9a5c <clean_reboot>
    8e80:	0000aa38 	andeq	sl, r0, r8, lsr sl
    8e84:	0000aab8 			; <UNDEFINED> instruction: 0x0000aab8
    8e88:	0000a72c 	andeq	sl, r0, ip, lsr #14
    8e8c:	0000aa10 	andeq	sl, r0, r0, lsl sl
    8e90:	675f6b63 	ldrbvs	r6, [pc, -r3, ror #22]
    8e94:	00000063 	andeq	r0, r0, r3, rrx
    8e98:	ff000008 			; <UNDEFINED> instruction: 0xff000008

00008e9c <ck_gc>:
    8e9c:	e1a0c00d 	mov	ip, sp
    8ea0:	e92dd800 	push	{fp, ip, lr, pc}
    8ea4:	e24cb004 	sub	fp, ip, #4, 0
    8ea8:	ebfffe92 	bl	88f8 <mark_all>
    8eac:	ebffff03 	bl	8ac0 <sweep_free>
    8eb0:	e89da800 	ldm	sp, {fp, sp, pc}
    8eb4:	6c706d69 	ldclvs	13, cr6, [r0], #-420	; 0xfffffe5c
    8eb8:	6e656d65 	cdpvs	13, 6, cr6, cr5, cr5, {3}
    8ebc:	68745f74 	ldmdavs	r4!, {r2, r4, r5, r6, r8, r9, sl, fp, ip, lr}^
    8ec0:	00007369 	andeq	r7, r0, r9, ror #6
    8ec4:	ff000010 			; <UNDEFINED> instruction: 0xff000010

00008ec8 <implement_this>:
    8ec8:	e1a0c00d 	mov	ip, sp
    8ecc:	e92dd800 	push	{fp, ip, lr, pc}
    8ed0:	e24cb004 	sub	fp, ip, #4, 0
    8ed4:	e3a03f4d 	mov	r3, #308	; 0x134
    8ed8:	e59f200c 	ldr	r2, [pc, #12]	; 8eec <implement_this+0x24>
    8edc:	e59f100c 	ldr	r1, [pc, #12]	; 8ef0 <implement_this+0x28>
    8ee0:	e59f000c 	ldr	r0, [pc, #12]	; 8ef4 <implement_this+0x2c>
    8ee4:	eb00004b 	bl	9018 <printk>
    8ee8:	eb0002db 	bl	9a5c <clean_reboot>
    8eec:	0000aacc 	andeq	sl, r0, ip, asr #21
    8ef0:	0000a72c 	andeq	sl, r0, ip, lsr #14
    8ef4:	0000aa5c 	andeq	sl, r0, ip, asr sl

00008ef8 <dump_regs>:
    8ef8:	e8a0ffff 	stmia	r0!, {r0, r1, r2, r3, r4, r5, r6, r7, r8, r9, sl, fp, ip, sp, lr, pc}
    8efc:	e12fff1e 	bx	lr

00008f00 <backtrace>:
    8f00:	e92d41f0 	push	{r4, r5, r6, r7, r8, lr}
    8f04:	e1a0400b 	mov	r4, fp
    8f08:	e3540000 	cmp	r4, #0, 0
    8f0c:	0a000016 	beq	8f6c <backtrace+0x6c>
    8f10:	e3a07000 	mov	r7, #0, 0
    8f14:	e59f605c 	ldr	r6, [pc, #92]	; 8f78 <backtrace+0x78>
    8f18:	e59f505c 	ldr	r5, [pc, #92]	; 8f7c <backtrace+0x7c>
    8f1c:	ea000002 	b	8f2c <backtrace+0x2c>
    8f20:	e2877001 	add	r7, r7, #1, 0
    8f24:	e3570020 	cmp	r7, #32, 0
    8f28:	0a00000f 	beq	8f6c <backtrace+0x6c>
    8f2c:	e5940000 	ldr	r0, [r4]
    8f30:	e1a01007 	mov	r1, r7
    8f34:	e5103010 	ldr	r3, [r0, #-16]
    8f38:	e240200c 	sub	r2, r0, #12, 0
    8f3c:	e31304ff 	tst	r3, #-16777216	; 0xff000000
    8f40:	e2400010 	sub	r0, r0, #16, 0
    8f44:	e3c334ff 	bic	r3, r3, #-16777216	; 0xff000000
    8f48:	10403003 	subne	r3, r0, r3
    8f4c:	01a03006 	moveq	r3, r6
    8f50:	e1a00005 	mov	r0, r5
    8f54:	eb00002f 	bl	9018 <printk>
    8f58:	e514400c 	ldr	r4, [r4, #-12]
    8f5c:	e3540000 	cmp	r4, #0, 0
    8f60:	1affffee 	bne	8f20 <backtrace+0x20>
    8f64:	e1a00007 	mov	r0, r7
    8f68:	e8bd81f0 	pop	{r4, r5, r6, r7, r8, pc}
    8f6c:	e3e07000 	mvn	r7, #0, 0
    8f70:	e1a00007 	mov	r0, r7
    8f74:	e8bd81f0 	pop	{r4, r5, r6, r7, r8, pc}
    8f78:	0000aadc 	ldrdeq	sl, [r0], -ip
    8f7c:	0000aae0 	andeq	sl, r0, r0, ror #21

00008f80 <name_of>:
    8f80:	e5103004 	ldr	r3, [r0, #-4]
    8f84:	e2400004 	sub	r0, r0, #4, 0
    8f88:	e31304ff 	tst	r3, #-16777216	; 0xff000000
    8f8c:	13c334ff 	bicne	r3, r3, #-16777216	; 0xff000000
    8f90:	10400003 	subne	r0, r0, r3
    8f94:	059f0000 	ldreq	r0, [pc]	; 8f9c <name_of+0x1c>
    8f98:	e12fff1e 	bx	lr
    8f9c:	0000aadc 	ldrdeq	sl, [r0], -ip

00008fa0 <memset>:
    8fa0:	e92d4010 	push	{r4, lr}
    8fa4:	e0804002 	add	r4, r0, r2
    8fa8:	e1500004 	cmp	r0, r4
    8fac:	28bd8010 	popcs	{r4, pc}
    8fb0:	e2423001 	sub	r3, r2, #1, 0
    8fb4:	e3530002 	cmp	r3, #2, 0
    8fb8:	e6ef1071 	uxtb	r1, r1
    8fbc:	e1a03000 	mov	r3, r0
    8fc0:	9a00000b 	bls	8ff4 <memset+0x54>
    8fc4:	e181e401 	orr	lr, r1, r1, lsl #8
    8fc8:	e18ee801 	orr	lr, lr, r1, lsl #16
    8fcc:	e3c2c003 	bic	ip, r2, #3, 0
    8fd0:	e18eec01 	orr	lr, lr, r1, lsl #24
    8fd4:	e08cc000 	add	ip, ip, r0
    8fd8:	e483e004 	str	lr, [r3], #4
    8fdc:	e153000c 	cmp	r3, ip
    8fe0:	1afffffc 	bne	8fd8 <memset+0x38>
    8fe4:	e3c23003 	bic	r3, r2, #3, 0
    8fe8:	e1520003 	cmp	r2, r3
    8fec:	e0803003 	add	r3, r0, r3
    8ff0:	08bd8010 	popeq	{r4, pc}
    8ff4:	e1a02003 	mov	r2, r3
    8ff8:	e4c21001 	strb	r1, [r2], #1
    8ffc:	e1540002 	cmp	r4, r2
    9000:	98bd8010 	popls	{r4, pc}
    9004:	e2832002 	add	r2, r3, #2, 0
    9008:	e1540002 	cmp	r4, r2
    900c:	e5c31001 	strb	r1, [r3, #1]
    9010:	85c31002 	strbhi	r1, [r3, #2]
    9014:	e8bd8010 	pop	{r4, pc}

00009018 <printk>:
    9018:	e92d000f 	push	{r0, r1, r2, r3}
    901c:	e92d4030 	push	{r4, r5, lr}
    9020:	e59f5040 	ldr	r5, [pc, #64]	; 9068 <printk+0x50>
    9024:	e24dd00c 	sub	sp, sp, #12, 0
    9028:	e28d301c 	add	r3, sp, #28, 0
    902c:	e3a01b01 	mov	r1, #1024	; 0x400
    9030:	e59d2018 	ldr	r2, [sp, #24]
    9034:	e1a00005 	mov	r0, r5
    9038:	e58d3004 	str	r3, [sp, #4]
    903c:	eb0000fb 	bl	9430 <va_printk>
    9040:	e1a04000 	mov	r4, r0
    9044:	e59f3020 	ldr	r3, [pc, #32]	; 906c <printk+0x54>
    9048:	e1a00005 	mov	r0, r5
    904c:	e5933000 	ldr	r3, [r3]
    9050:	e12fff33 	blx	r3
    9054:	e1a00004 	mov	r0, r4
    9058:	e28dd00c 	add	sp, sp, #12, 0
    905c:	e8bd4030 	pop	{r4, r5, lr}
    9060:	e28dd010 	add	sp, sp, #16, 0
    9064:	e12fff1e 	bx	lr
    9068:	0000ae94 	muleq	r0, r4, lr
    906c:	0000ae5c 	andeq	sl, r0, ip, asr lr

00009070 <internal_putk>:
    9070:	e92d4070 	push	{r4, r5, r6, lr}
    9074:	e1a04000 	mov	r4, r0
    9078:	e5d00000 	ldrb	r0, [r0]
    907c:	e3500000 	cmp	r0, #0, 0
    9080:	0a000005 	beq	909c <internal_putk+0x2c>
    9084:	e59f5018 	ldr	r5, [pc, #24]	; 90a4 <internal_putk+0x34>
    9088:	e5953000 	ldr	r3, [r5]
    908c:	e12fff33 	blx	r3
    9090:	e5f40001 	ldrb	r0, [r4, #1]!
    9094:	e3500000 	cmp	r0, #0, 0
    9098:	1afffffa 	bne	9088 <internal_putk+0x18>
    909c:	e3a00001 	mov	r0, #1, 0
    90a0:	e8bd8070 	pop	{r4, r5, r6, pc}
    90a4:	0000ae6c 	andeq	sl, r0, ip, ror #28

000090a8 <emit.constprop.0>:
    90a8:	e92d41f0 	push	{r4, r5, r6, r7, r8, lr}
    90ac:	e3530080 	cmp	r3, #128, 0	; 0x80
    90b0:	e1a0c000 	mov	ip, r0
    90b4:	e24dd048 	sub	sp, sp, #72, 0	; 0x48
    90b8:	e1a00001 	mov	r0, r1
    90bc:	ca000069 	bgt	9268 <emit.constprop.0+0x1c0>
    90c0:	e24c1002 	sub	r1, ip, #2, 0
    90c4:	e1a0c002 	mov	ip, r2
    90c8:	e351000e 	cmp	r1, #14, 0
    90cc:	979ff101 	ldrls	pc, [pc, r1, lsl #2]
    90d0:	ea0000a7 	b	9374 <emit.constprop.0+0x2cc>
    90d4:	00009240 	andeq	r9, r0, r0, asr #4
    90d8:	00009374 	andeq	r9, r0, r4, ror r3
    90dc:	00009374 	andeq	r9, r0, r4, ror r3
    90e0:	00009374 	andeq	r9, r0, r4, ror r3
    90e4:	00009374 	andeq	r9, r0, r4, ror r3
    90e8:	00009374 	andeq	r9, r0, r4, ror r3
    90ec:	0000931c 	andeq	r9, r0, ip, lsl r3
    90f0:	00009374 	andeq	r9, r0, r4, ror r3
    90f4:	000092bc 			; <UNDEFINED> instruction: 0x000092bc
    90f8:	00009374 	andeq	r9, r0, r4, ror r3
    90fc:	00009374 	andeq	r9, r0, r4, ror r3
    9100:	00009374 	andeq	r9, r0, r4, ror r3
    9104:	00009374 	andeq	r9, r0, r4, ror r3
    9108:	00009374 	andeq	r9, r0, r4, ror r3
    910c:	00009114 	andeq	r9, r0, r4, lsl r1
    9110:	e3a0307f 	mov	r3, #127, 0	; 0x7f
    9114:	e28d2008 	add	r2, sp, #8, 0
    9118:	e1a04002 	mov	r4, r2
    911c:	e59f1288 	ldr	r1, [pc, #648]	; 93ac <emit.constprop.0+0x304>
    9120:	e20ce00f 	and	lr, ip, #15, 0
    9124:	e7d1e00e 	ldrb	lr, [r1, lr]
    9128:	e35c000f 	cmp	ip, #15, 0
    912c:	e4c4e001 	strb	lr, [r4], #1
    9130:	e1a0c22c 	lsr	ip, ip, #4
    9134:	8afffff9 	bhi	9120 <emit.constprop.0+0x78>
    9138:	e3a0c078 	mov	ip, #120, 0	; 0x78
    913c:	e1a0e004 	mov	lr, r4
    9140:	e3a01030 	mov	r1, #48, 0	; 0x30
    9144:	e4cec002 	strb	ip, [lr], #2
    9148:	e5c41001 	strb	r1, [r4, #1]
    914c:	e04e1002 	sub	r1, lr, r2
    9150:	e1510003 	cmp	r1, r3
    9154:	aa000083 	bge	9368 <emit.constprop.0+0x2c0>
    9158:	e1510003 	cmp	r1, r3
    915c:	a3a0c001 	movge	ip, #1, 0
    9160:	b3a0c000 	movlt	ip, #0, 0
    9164:	e2434001 	sub	r4, r3, #1, 0
    9168:	e0444001 	sub	r4, r4, r1
    916c:	b0436001 	sublt	r6, r3, r1
    9170:	a3a06001 	movge	r6, #1, 0
    9174:	e3540002 	cmp	r4, #2, 0
    9178:	938cc001 	orrls	ip, ip, #1, 0
    917c:	e35c0000 	cmp	ip, #0, 0
    9180:	1a000075 	bne	935c <emit.constprop.0+0x2b4>
    9184:	e1a0c00e 	mov	ip, lr
    9188:	e3c65003 	bic	r5, r6, #3, 0
    918c:	e59f721c 	ldr	r7, [pc, #540]	; 93b0 <emit.constprop.0+0x308>
    9190:	e085500e 	add	r5, r5, lr
    9194:	e48c7004 	str	r7, [ip], #4
    9198:	e15c0005 	cmp	ip, r5
    919c:	1afffffc 	bne	9194 <emit.constprop.0+0xec>
    91a0:	e3c6c003 	bic	ip, r6, #3, 0
    91a4:	e156000c 	cmp	r6, ip
    91a8:	e08e500c 	add	r5, lr, ip
    91ac:	e08cc001 	add	ip, ip, r1
    91b0:	0a000008 	beq	91d8 <emit.constprop.0+0x130>
    91b4:	e3a07020 	mov	r7, #32, 0
    91b8:	e28c8001 	add	r8, ip, #1, 0
    91bc:	e1580003 	cmp	r8, r3
    91c0:	e5c57000 	strb	r7, [r5]
    91c4:	aa000003 	bge	91d8 <emit.constprop.0+0x130>
    91c8:	e28cc002 	add	ip, ip, #2, 0
    91cc:	e15c0003 	cmp	ip, r3
    91d0:	e5c57001 	strb	r7, [r5, #1]
    91d4:	b5c57002 	strblt	r7, [r5, #2]
    91d8:	e1510003 	cmp	r1, r3
    91dc:	a3a04000 	movge	r4, #0, 0
    91e0:	e08e6006 	add	r6, lr, r6
    91e4:	e0461002 	sub	r1, r6, r2
    91e8:	e08ee004 	add	lr, lr, r4
    91ec:	e3a03000 	mov	r3, #0, 0
    91f0:	e351007f 	cmp	r1, #127, 0	; 0x7f
    91f4:	c241407f 	subgt	r4, r1, #127, 0	; 0x7f
    91f8:	c0822004 	addgt	r2, r2, r4
    91fc:	e152000e 	cmp	r2, lr
    9200:	e5c63000 	strb	r3, [r6]
    9204:	8a00004f 	bhi	9348 <emit.constprop.0+0x2a0>
    9208:	e28ee001 	add	lr, lr, #1, 0
    920c:	e1a0300e 	mov	r3, lr
    9210:	e240c001 	sub	ip, r0, #1, 0
    9214:	e5734001 	ldrb	r4, [r3, #-1]!
    9218:	e1530002 	cmp	r3, r2
    921c:	e5ec4001 	strb	r4, [ip, #1]!
    9220:	1afffffb 	bne	9214 <emit.constprop.0+0x16c>
    9224:	e04ee003 	sub	lr, lr, r3
    9228:	e3a03000 	mov	r3, #0, 0
    922c:	e080e00e 	add	lr, r0, lr
    9230:	e5ce3000 	strb	r3, [lr]
    9234:	e28dd048 	add	sp, sp, #72, 0	; 0x48
    9238:	e8bd81f0 	pop	{r4, r5, r6, r7, r8, pc}
    923c:	e3a0307f 	mov	r3, #127, 0	; 0x7f
    9240:	e28d2008 	add	r2, sp, #8, 0
    9244:	e1a0e002 	mov	lr, r2
    9248:	e59f1164 	ldr	r1, [pc, #356]	; 93b4 <emit.constprop.0+0x30c>
    924c:	e20c4001 	and	r4, ip, #1, 0
    9250:	e7d14004 	ldrb	r4, [r1, r4]
    9254:	e35c0001 	cmp	ip, #1, 0
    9258:	e4ce4001 	strb	r4, [lr], #1
    925c:	e1a0c0ac 	lsr	ip, ip, #1
    9260:	8afffff9 	bhi	924c <emit.constprop.0+0x1a4>
    9264:	eaffffb8 	b	914c <emit.constprop.0+0xa4>
    9268:	e24c3002 	sub	r3, ip, #2, 0
    926c:	e1a0c002 	mov	ip, r2
    9270:	e353000e 	cmp	r3, #14, 0
    9274:	979ff103 	ldrls	pc, [pc, r3, lsl #2]
    9278:	ea00003d 	b	9374 <emit.constprop.0+0x2cc>
    927c:	0000923c 	andeq	r9, r0, ip, lsr r2
    9280:	00009374 	andeq	r9, r0, r4, ror r3
    9284:	00009374 	andeq	r9, r0, r4, ror r3
    9288:	00009374 	andeq	r9, r0, r4, ror r3
    928c:	00009374 	andeq	r9, r0, r4, ror r3
    9290:	00009374 	andeq	r9, r0, r4, ror r3
    9294:	00009394 	muleq	r0, r4, r3
    9298:	00009374 	andeq	r9, r0, r4, ror r3
    929c:	000092b8 			; <UNDEFINED> instruction: 0x000092b8
    92a0:	00009374 	andeq	r9, r0, r4, ror r3
    92a4:	00009374 	andeq	r9, r0, r4, ror r3
    92a8:	00009374 	andeq	r9, r0, r4, ror r3
    92ac:	00009374 	andeq	r9, r0, r4, ror r3
    92b0:	00009374 	andeq	r9, r0, r4, ror r3
    92b4:	00009110 	andeq	r9, r0, r0, lsl r1
    92b8:	e3a0307f 	mov	r3, #127, 0	; 0x7f
    92bc:	e59d1060 	ldr	r1, [sp, #96]	; 0x60
    92c0:	e59f70f0 	ldr	r7, [pc, #240]	; 93b8 <emit.constprop.0+0x310>
    92c4:	e0118fa2 	ands	r8, r1, r2, lsr #31
    92c8:	1262c000 	rsbne	ip, r2, #0, 0
    92cc:	e28d2008 	add	r2, sp, #8, 0
    92d0:	13a08001 	movne	r8, #1, 0
    92d4:	e1a0e002 	mov	lr, r2
    92d8:	e59f60dc 	ldr	r6, [pc, #220]	; 93bc <emit.constprop.0+0x314>
    92dc:	e1a0500c 	mov	r5, ip
    92e0:	e0814c96 	umull	r4, r1, r6, ip
    92e4:	e1a011a1 	lsr	r1, r1, #3
    92e8:	e0814101 	add	r4, r1, r1, lsl #2
    92ec:	e04cc084 	sub	ip, ip, r4, lsl #1
    92f0:	e7d7400c 	ldrb	r4, [r7, ip]
    92f4:	e3550009 	cmp	r5, #9, 0
    92f8:	e1a0c001 	mov	ip, r1
    92fc:	e1a0100e 	mov	r1, lr
    9300:	e4ce4001 	strb	r4, [lr], #1
    9304:	8afffff4 	bhi	92dc <emit.constprop.0+0x234>
    9308:	e3580000 	cmp	r8, #0, 0
    930c:	13a0c02d 	movne	ip, #45, 0	; 0x2d
    9310:	15cec000 	strbne	ip, [lr]
    9314:	1281e002 	addne	lr, r1, #2, 0
    9318:	eaffff8b 	b	914c <emit.constprop.0+0xa4>
    931c:	e3530001 	cmp	r3, #1, 0
    9320:	e5cd2008 	strb	r2, [sp, #8]
    9324:	c3a01001 	movgt	r1, #1, 0
    9328:	c28de009 	addgt	lr, sp, #9, 0
    932c:	c28d2008 	addgt	r2, sp, #8, 0
    9330:	caffff88 	bgt	9158 <emit.constprop.0+0xb0>
    9334:	e3a03000 	mov	r3, #0, 0
    9338:	e28de008 	add	lr, sp, #8, 0
    933c:	e1a0200e 	mov	r2, lr
    9340:	e5cd3009 	strb	r3, [sp, #9]
    9344:	eaffffaf 	b	9208 <emit.constprop.0+0x160>
    9348:	e1a0e000 	mov	lr, r0
    934c:	e3a03000 	mov	r3, #0, 0
    9350:	e5ce3000 	strb	r3, [lr]
    9354:	e28dd048 	add	sp, sp, #72, 0	; 0x48
    9358:	e8bd81f0 	pop	{r4, r5, r6, r7, r8, pc}
    935c:	e1a0c001 	mov	ip, r1
    9360:	e1a0500e 	mov	r5, lr
    9364:	eaffff92 	b	91b4 <emit.constprop.0+0x10c>
    9368:	e1a0600e 	mov	r6, lr
    936c:	e24ee001 	sub	lr, lr, #1, 0
    9370:	eaffff9d 	b	91ec <emit.constprop.0+0x144>
    9374:	e59f2044 	ldr	r2, [pc, #68]	; 93c0 <emit.constprop.0+0x318>
    9378:	e3a03079 	mov	r3, #121, 0	; 0x79
    937c:	e59f1040 	ldr	r1, [pc, #64]	; 93c4 <emit.constprop.0+0x31c>
    9380:	e58d2000 	str	r2, [sp]
    9384:	e59f003c 	ldr	r0, [pc, #60]	; 93c8 <emit.constprop.0+0x320>
    9388:	e59f203c 	ldr	r2, [pc, #60]	; 93cc <emit.constprop.0+0x324>
    938c:	ebffff21 	bl	9018 <printk>
    9390:	eb0001b1 	bl	9a5c <clean_reboot>
    9394:	e5cd2008 	strb	r2, [sp, #8]
    9398:	e3a0307f 	mov	r3, #127, 0	; 0x7f
    939c:	e3a01001 	mov	r1, #1, 0
    93a0:	e28de009 	add	lr, sp, #9, 0
    93a4:	e28d2008 	add	r2, sp, #8, 0
    93a8:	eaffff6a 	b	9158 <emit.constprop.0+0xb0>
    93ac:	0000ab04 	andeq	sl, r0, r4, lsl #22
    93b0:	20202020 	eorcs	r2, r0, r0, lsr #32
    93b4:	0000ab18 	andeq	sl, r0, r8, lsl fp
    93b8:	0000ab1c 	andeq	sl, r0, ip, lsl fp
    93bc:	cccccccd 	stclgt	12, cr12, [ip], {205}	; 0xcd
    93c0:	0000a958 	andeq	sl, r0, r8, asr r9
    93c4:	0000aaf0 	strdeq	sl, [r0], -r0
    93c8:	0000a6b8 			; <UNDEFINED> instruction: 0x0000a6b8
    93cc:	0000ac30 	andeq	sl, r0, r0, lsr ip

000093d0 <rpi_set_output>:
    93d0:	e3500000 	cmp	r0, #0, 0
    93d4:	0a000005 	beq	93f0 <rpi_set_output+0x20>
    93d8:	e59f3038 	ldr	r3, [pc, #56]	; 9418 <rpi_set_output+0x48>
    93dc:	e3510000 	cmp	r1, #0, 0
    93e0:	e5830000 	str	r0, [r3]
    93e4:	159f3030 	ldrne	r3, [pc, #48]	; 941c <rpi_set_output+0x4c>
    93e8:	15831000 	strne	r1, [r3]
    93ec:	e12fff1e 	bx	lr
    93f0:	e52de004 	push	{lr}		; (str lr, [sp, #-4]!)
    93f4:	e59f2024 	ldr	r2, [pc, #36]	; 9420 <rpi_set_output+0x50>
    93f8:	e24dd00c 	sub	sp, sp, #12, 0
    93fc:	e3a03020 	mov	r3, #32, 0
    9400:	e59f101c 	ldr	r1, [pc, #28]	; 9424 <rpi_set_output+0x54>
    9404:	e58d2000 	str	r2, [sp]
    9408:	e59f0018 	ldr	r0, [pc, #24]	; 9428 <rpi_set_output+0x58>
    940c:	e59f2018 	ldr	r2, [pc, #24]	; 942c <rpi_set_output+0x5c>
    9410:	ebffff00 	bl	9018 <printk>
    9414:	eb000190 	bl	9a5c <clean_reboot>
    9418:	0000ae6c 	andeq	sl, r0, ip, ror #28
    941c:	0000ae5c 	andeq	sl, r0, ip, asr lr
    9420:	0000ab28 	andeq	sl, r0, r8, lsr #22
    9424:	0000aaf0 	strdeq	sl, [r0], -r0
    9428:	0000a6b8 			; <UNDEFINED> instruction: 0x0000a6b8
    942c:	0000ac38 	andeq	sl, r0, r8, lsr ip

00009430 <va_printk>:
    9430:	e92d4ff0 	push	{r4, r5, r6, r7, r8, r9, sl, fp, lr}
    9434:	e1a0b000 	mov	fp, r0
    9438:	e3a00000 	mov	r0, #0, 0
    943c:	e5cb0000 	strb	r0, [fp]
    9440:	e5d2c000 	ldrb	ip, [r2]
    9444:	e2417001 	sub	r7, r1, #1, 0
    9448:	e08b7007 	add	r7, fp, r7
    944c:	e15c0000 	cmp	ip, r0
    9450:	115b0007 	cmpne	fp, r7
    9454:	e24ddf47 	sub	sp, sp, #284	; 0x11c
    9458:	e58d2010 	str	r2, [sp, #16]
    945c:	2a000159 	bcs	99c8 <va_printk+0x598>
    9460:	e1a06002 	mov	r6, r2
    9464:	e1a08003 	mov	r8, r3
    9468:	e1a0400b 	mov	r4, fp
    946c:	e59fa5a4 	ldr	sl, [pc, #1444]	; 9a18 <va_printk+0x5e8>
    9470:	e58db00c 	str	fp, [sp, #12]
    9474:	ea000005 	b	9490 <va_printk+0x60>
    9478:	e4c4c001 	strb	ip, [r4], #1
    947c:	e2866001 	add	r6, r6, #1, 0
    9480:	e5d6c000 	ldrb	ip, [r6]
    9484:	e35c0000 	cmp	ip, #0, 0
    9488:	11570004 	cmpne	r7, r4
    948c:	9a00002f 	bls	9550 <va_printk+0x120>
    9490:	e35c0025 	cmp	ip, #37, 0	; 0x25
    9494:	1afffff7 	bne	9478 <va_printk+0x48>
    9498:	e5d62001 	ldrb	r2, [r6, #1]
    949c:	e3520025 	cmp	r2, #37, 0	; 0x25
    94a0:	04c4c001 	strbeq	ip, [r4], #1
    94a4:	02866002 	addeq	r6, r6, #2, 0
    94a8:	0afffff4 	beq	9480 <va_printk+0x50>
    94ac:	e2423030 	sub	r3, r2, #48, 0	; 0x30
    94b0:	e3530009 	cmp	r3, #9, 0
    94b4:	e3a05000 	mov	r5, #0, 0
    94b8:	e2866001 	add	r6, r6, #1, 0
    94bc:	8a000008 	bhi	94e4 <va_printk+0xb4>
    94c0:	e0855105 	add	r5, r5, r5, lsl #2
    94c4:	e0825085 	add	r5, r2, r5, lsl #1
    94c8:	e5f62001 	ldrb	r2, [r6, #1]!
    94cc:	e2455030 	sub	r5, r5, #48, 0	; 0x30
    94d0:	e2423030 	sub	r3, r2, #48, 0	; 0x30
    94d4:	e3530009 	cmp	r3, #9, 0
    94d8:	9afffff8 	bls	94c0 <va_printk+0x90>
    94dc:	e355001f 	cmp	r5, #31, 0
    94e0:	8a00013a 	bhi	99d0 <va_printk+0x5a0>
    94e4:	e2423062 	sub	r3, r2, #98, 0	; 0x62
    94e8:	e3530016 	cmp	r3, #22, 0
    94ec:	979ff103 	ldrls	pc, [pc, r3, lsl #2]
    94f0:	ea00011b 	b	9964 <va_printk+0x534>
    94f4:	000097a8 	andeq	r9, r0, r8, lsr #15
    94f8:	000096a4 	andeq	r9, r0, r4, lsr #13
    94fc:	0000969c 	muleq	r0, ip, r6
    9500:	00009964 	andeq	r9, r0, r4, ror #18
    9504:	000099a0 	andeq	r9, r0, r0, lsr #19
    9508:	00009964 	andeq	r9, r0, r4, ror #18
    950c:	00009964 	andeq	r9, r0, r4, ror #18
    9510:	00009964 	andeq	r9, r0, r4, ror #18
    9514:	00009964 	andeq	r9, r0, r4, ror #18
    9518:	00009964 	andeq	r9, r0, r4, ror #18
    951c:	000095ac 	andeq	r9, r0, ip, lsr #11
    9520:	00009964 	andeq	r9, r0, r4, ror #18
    9524:	00009964 	andeq	r9, r0, r4, ror #18
    9528:	00009964 	andeq	r9, r0, r4, ror #18
    952c:	00009568 	andeq	r9, r0, r8, ror #10
    9530:	00009964 	andeq	r9, r0, r4, ror #18
    9534:	00009964 	andeq	r9, r0, r4, ror #18
    9538:	000098a0 	andeq	r9, r0, r0, lsr #17
    953c:	00009964 	andeq	r9, r0, r4, ror #18
    9540:	00009678 	andeq	r9, r0, r8, ror r6
    9544:	00009964 	andeq	r9, r0, r4, ror #18
    9548:	00009964 	andeq	r9, r0, r4, ror #18
    954c:	00009568 	andeq	r9, r0, r8, ror #10
    9550:	e59db00c 	ldr	fp, [sp, #12]
    9554:	e3a03000 	mov	r3, #0, 0
    9558:	e4c43001 	strb	r3, [r4], #1
    955c:	e044000b 	sub	r0, r4, fp
    9560:	e28ddf47 	add	sp, sp, #284	; 0x11c
    9564:	e8bd8ff0 	pop	{r4, r5, r6, r7, r8, r9, sl, fp, pc}
    9568:	e3a01000 	mov	r1, #0, 0
    956c:	e1a03005 	mov	r3, r5
    9570:	e4982004 	ldr	r2, [r8], #4
    9574:	e3a00010 	mov	r0, #16, 0
    9578:	e58d1000 	str	r1, [sp]
    957c:	e28d1018 	add	r1, sp, #24, 0
    9580:	ebfffec8 	bl	90a8 <emit.constprop.0>
    9584:	e1a05000 	mov	r5, r0
    9588:	e2866001 	add	r6, r6, #1, 0
    958c:	e2455001 	sub	r5, r5, #1, 0
    9590:	e5f53001 	ldrb	r3, [r5, #1]!
    9594:	e3530000 	cmp	r3, #0, 0
    9598:	0affffb8 	beq	9480 <va_printk+0x50>
    959c:	e4c43001 	strb	r3, [r4], #1
    95a0:	e1570004 	cmp	r7, r4
    95a4:	8afffff9 	bhi	9590 <va_printk+0x160>
    95a8:	eaffffb4 	b	9480 <va_printk+0x50>
    95ac:	e3a02003 	mov	r2, #3, 0
    95b0:	e1a00006 	mov	r0, r6
    95b4:	e59f1460 	ldr	r1, [pc, #1120]	; 9a1c <va_printk+0x5ec>
    95b8:	eb0003da 	bl	a528 <strncmp>
    95bc:	e3500000 	cmp	r0, #0, 0
    95c0:	0a000005 	beq	95dc <va_printk+0x1ac>
    95c4:	e3a02003 	mov	r2, #3, 0
    95c8:	e1a00006 	mov	r0, r6
    95cc:	e59f144c 	ldr	r1, [pc, #1100]	; 9a20 <va_printk+0x5f0>
    95d0:	eb0003d4 	bl	a528 <strncmp>
    95d4:	e3500000 	cmp	r0, #0, 0
    95d8:	1a00010b 	bne	9a0c <va_printk+0x5dc>
    95dc:	e2888007 	add	r8, r8, #7, 0
    95e0:	e3c88007 	bic	r8, r8, #7, 0
    95e4:	e598b004 	ldr	fp, [r8, #4]
    95e8:	e4989008 	ldr	r9, [r8], #8
    95ec:	e1a0100b 	mov	r1, fp
    95f0:	e59f042c 	ldr	r0, [pc, #1068]	; 9a24 <va_printk+0x5f4>
    95f4:	ebfffe87 	bl	9018 <printk>
    95f8:	e1a01009 	mov	r1, r9
    95fc:	e59f0424 	ldr	r0, [pc, #1060]	; 9a28 <va_printk+0x5f8>
    9600:	ebfffe84 	bl	9018 <printk>
    9604:	e3a02003 	mov	r2, #3, 0
    9608:	e1a00006 	mov	r0, r6
    960c:	e59f1408 	ldr	r1, [pc, #1032]	; 9a1c <va_printk+0x5ec>
    9610:	eb0003c4 	bl	a528 <strncmp>
    9614:	e2503000 	subs	r3, r0, #0, 0
    9618:	e1a02003 	mov	r2, r3
    961c:	e2863002 	add	r3, r6, #2, 0
    9620:	e58d3014 	str	r3, [sp, #20]
    9624:	1a00009f 	bne	98a8 <va_printk+0x478>
    9628:	e1a06002 	mov	r6, r2
    962c:	e1a03005 	mov	r3, r5
    9630:	e58d2000 	str	r2, [sp]
    9634:	e28d1018 	add	r1, sp, #24, 0
    9638:	e1a0200b 	mov	r2, fp
    963c:	e3a00010 	mov	r0, #16, 0
    9640:	ebfffe98 	bl	90a8 <emit.constprop.0>
    9644:	e1a0c000 	mov	ip, r0
    9648:	e1a03005 	mov	r3, r5
    964c:	e58d6000 	str	r6, [sp]
    9650:	e28d1098 	add	r1, sp, #152, 0	; 0x98
    9654:	e1a02009 	mov	r2, r9
    9658:	e3a00010 	mov	r0, #16, 0
    965c:	e1a0500c 	mov	r5, ip
    9660:	ebfffe90 	bl	90a8 <emit.constprop.0>
    9664:	e28d0018 	add	r0, sp, #24, 0
    9668:	e28d109a 	add	r1, sp, #154, 0	; 0x9a
    966c:	e59d6014 	ldr	r6, [sp, #20]
    9670:	eb00038a 	bl	a4a0 <strcat>
    9674:	eaffffc3 	b	9588 <va_printk+0x158>
    9678:	e3a01000 	mov	r1, #0, 0
    967c:	e1a03005 	mov	r3, r5
    9680:	e4982004 	ldr	r2, [r8], #4
    9684:	e3a0000a 	mov	r0, #10, 0
    9688:	e58d1000 	str	r1, [sp]
    968c:	e28d1018 	add	r1, sp, #24, 0
    9690:	ebfffe84 	bl	90a8 <emit.constprop.0>
    9694:	e1a05000 	mov	r5, r0
    9698:	eaffffba 	b	9588 <va_printk+0x158>
    969c:	e3a01001 	mov	r1, #1, 0
    96a0:	eafffff5 	b	967c <va_printk+0x24c>
    96a4:	e4983004 	ldr	r3, [r8], #4
    96a8:	e3550001 	cmp	r5, #1, 0
    96ac:	e5cd3098 	strb	r3, [sp, #152]	; 0x98
    96b0:	9a0000a6 	bls	9950 <va_printk+0x520>
    96b4:	e2453002 	sub	r3, r5, #2, 0
    96b8:	e3530002 	cmp	r3, #2, 0
    96bc:	e2451001 	sub	r1, r5, #1, 0
    96c0:	9a0000bc 	bls	99b8 <va_printk+0x588>
    96c4:	e59f0360 	ldr	r0, [pc, #864]	; 9a2c <va_printk+0x5fc>
    96c8:	e1a02121 	lsr	r2, r1, #2
    96cc:	e3520001 	cmp	r2, #1, 0
    96d0:	e58d0099 	str	r0, [sp, #153]	; 0x99
    96d4:	0a00000e 	beq	9714 <va_printk+0x2e4>
    96d8:	e3520002 	cmp	r2, #2, 0
    96dc:	e58d009d 	str	r0, [sp, #157]	; 0x9d
    96e0:	0a00000b 	beq	9714 <va_printk+0x2e4>
    96e4:	e3520003 	cmp	r2, #3, 0
    96e8:	e58d00a1 	str	r0, [sp, #161]	; 0xa1
    96ec:	0a000008 	beq	9714 <va_printk+0x2e4>
    96f0:	e3520004 	cmp	r2, #4, 0
    96f4:	e58d00a5 	str	r0, [sp, #165]	; 0xa5
    96f8:	0a000005 	beq	9714 <va_printk+0x2e4>
    96fc:	e3520005 	cmp	r2, #5, 0
    9700:	e58d00a9 	str	r0, [sp, #169]	; 0xa9
    9704:	0a000002 	beq	9714 <va_printk+0x2e4>
    9708:	e3520007 	cmp	r2, #7, 0
    970c:	e58d00ad 	str	r0, [sp, #173]	; 0xad
    9710:	058d00b1 	streq	r0, [sp, #177]	; 0xb1
    9714:	e3c12003 	bic	r2, r1, #3, 0
    9718:	e1510002 	cmp	r1, r2
    971c:	e28dc099 	add	ip, sp, #153, 0	; 0x99
    9720:	e08c0002 	add	r0, ip, r2
    9724:	e2822001 	add	r2, r2, #1, 0
    9728:	0a000008 	beq	9750 <va_printk+0x320>
    972c:	e3a0e020 	mov	lr, #32, 0
    9730:	e2829001 	add	r9, r2, #1, 0
    9734:	e1550009 	cmp	r5, r9
    9738:	e5c0e000 	strb	lr, [r0]
    973c:	da000003 	ble	9750 <va_printk+0x320>
    9740:	e2822002 	add	r2, r2, #2, 0
    9744:	e1550002 	cmp	r5, r2
    9748:	e5c0e001 	strb	lr, [r0, #1]
    974c:	c5c0e002 	strbgt	lr, [r0, #2]
    9750:	e3a0e000 	mov	lr, #0, 0
    9754:	e28d0098 	add	r0, sp, #152, 0	; 0x98
    9758:	e08c2001 	add	r2, ip, r1
    975c:	e0422000 	sub	r2, r2, r0
    9760:	e352007f 	cmp	r2, #127, 0	; 0x7f
    9764:	c242207f 	subgt	r2, r2, #127, 0	; 0x7f
    9768:	e08c3003 	add	r3, ip, r3
    976c:	c0800002 	addgt	r0, r0, r2
    9770:	e1530000 	cmp	r3, r0
    9774:	e7cce001 	strb	lr, [ip, r1]
    9778:	3a00006c 	bcc	9930 <va_printk+0x500>
    977c:	e283c001 	add	ip, r3, #1, 0
    9780:	e1a0300c 	mov	r3, ip
    9784:	e28d5018 	add	r5, sp, #24, 0
    9788:	e2452001 	sub	r2, r5, #1, 0
    978c:	e5731001 	ldrb	r1, [r3, #-1]!
    9790:	e1500003 	cmp	r0, r3
    9794:	e5e21001 	strb	r1, [r2, #1]!
    9798:	1afffffb 	bne	978c <va_printk+0x35c>
    979c:	e04c3000 	sub	r3, ip, r0
    97a0:	e0853003 	add	r3, r5, r3
    97a4:	ea00003a 	b	9894 <va_printk+0x464>
    97a8:	e28d1098 	add	r1, sp, #152, 0	; 0x98
    97ac:	e1a03001 	mov	r3, r1
    97b0:	e4980004 	ldr	r0, [r8], #4
    97b4:	e200c001 	and	ip, r0, #1, 0
    97b8:	e7dac00c 	ldrb	ip, [sl, ip]
    97bc:	e3500001 	cmp	r0, #1, 0
    97c0:	e1a02003 	mov	r2, r3
    97c4:	e1a000a0 	lsr	r0, r0, #1
    97c8:	e4c3c001 	strb	ip, [r3], #1
    97cc:	8afffff8 	bhi	97b4 <va_printk+0x384>
    97d0:	e0430001 	sub	r0, r3, r1
    97d4:	e1550000 	cmp	r5, r0
    97d8:	da000057 	ble	993c <va_printk+0x50c>
    97dc:	e045c000 	sub	ip, r5, r0
    97e0:	e24ce001 	sub	lr, ip, #1, 0
    97e4:	e35e0002 	cmp	lr, #2, 0
    97e8:	e1a0e003 	mov	lr, r3
    97ec:	9a00000a 	bls	981c <va_printk+0x3ec>
    97f0:	e3cc9003 	bic	r9, ip, #3, 0
    97f4:	e0899003 	add	r9, r9, r3
    97f8:	e59fb22c 	ldr	fp, [pc, #556]	; 9a2c <va_printk+0x5fc>
    97fc:	e48eb004 	str	fp, [lr], #4
    9800:	e15e0009 	cmp	lr, r9
    9804:	1afffffb 	bne	97f8 <va_printk+0x3c8>
    9808:	e3cce003 	bic	lr, ip, #3, 0
    980c:	e15e000c 	cmp	lr, ip
    9810:	e080000e 	add	r0, r0, lr
    9814:	e083e00e 	add	lr, r3, lr
    9818:	0a000008 	beq	9840 <va_printk+0x410>
    981c:	e3a09020 	mov	r9, #32, 0
    9820:	e280b001 	add	fp, r0, #1, 0
    9824:	e155000b 	cmp	r5, fp
    9828:	e5ce9000 	strb	r9, [lr]
    982c:	da000003 	ble	9840 <va_printk+0x410>
    9830:	e2800002 	add	r0, r0, #2, 0
    9834:	e1550000 	cmp	r5, r0
    9838:	e5ce9001 	strb	r9, [lr, #1]
    983c:	c5ce9002 	strbgt	r9, [lr, #2]
    9840:	e3a0e000 	mov	lr, #0, 0
    9844:	e083000c 	add	r0, r3, ip
    9848:	e0400001 	sub	r0, r0, r1
    984c:	e350007f 	cmp	r0, #127, 0	; 0x7f
    9850:	e082200c 	add	r2, r2, ip
    9854:	e7c3e00c 	strb	lr, [r3, ip]
    9858:	da000001 	ble	9864 <va_printk+0x434>
    985c:	e240007f 	sub	r0, r0, #127, 0	; 0x7f
    9860:	e0811000 	add	r1, r1, r0
    9864:	e1510002 	cmp	r1, r2
    9868:	8a000030 	bhi	9930 <va_printk+0x500>
    986c:	e2822001 	add	r2, r2, #1, 0
    9870:	e1a03002 	mov	r3, r2
    9874:	e28d5018 	add	r5, sp, #24, 0
    9878:	e245c001 	sub	ip, r5, #1, 0
    987c:	e5730001 	ldrb	r0, [r3, #-1]!
    9880:	e1530001 	cmp	r3, r1
    9884:	e5ec0001 	strb	r0, [ip, #1]!
    9888:	1afffffb 	bne	987c <va_printk+0x44c>
    988c:	e0423003 	sub	r3, r2, r3
    9890:	e0853003 	add	r3, r5, r3
    9894:	e3a02000 	mov	r2, #0, 0
    9898:	e5c32000 	strb	r2, [r3]
    989c:	eaffff39 	b	9588 <va_printk+0x158>
    98a0:	e4985004 	ldr	r5, [r8], #4
    98a4:	eaffff37 	b	9588 <va_printk+0x158>
    98a8:	e3a02003 	mov	r2, #3, 0
    98ac:	e1a00006 	mov	r0, r6
    98b0:	e59f1168 	ldr	r1, [pc, #360]	; 9a20 <va_printk+0x5f0>
    98b4:	eb00031b 	bl	a528 <strncmp>
    98b8:	e2503000 	subs	r3, r0, #0, 0
    98bc:	1a00004b 	bne	99f0 <va_printk+0x5c0>
    98c0:	e1a06003 	mov	r6, r3
    98c4:	e1a0200b 	mov	r2, fp
    98c8:	e58d3000 	str	r3, [sp]
    98cc:	e28d1018 	add	r1, sp, #24, 0
    98d0:	e1a03005 	mov	r3, r5
    98d4:	e3a0000a 	mov	r0, #10, 0
    98d8:	ebfffdf2 	bl	90a8 <emit.constprop.0>
    98dc:	e1a0c000 	mov	ip, r0
    98e0:	e1a03005 	mov	r3, r5
    98e4:	e1a02009 	mov	r2, r9
    98e8:	e28d1098 	add	r1, sp, #152, 0	; 0x98
    98ec:	e3a0000a 	mov	r0, #10, 0
    98f0:	e58d6000 	str	r6, [sp]
    98f4:	e1a0500c 	mov	r5, ip
    98f8:	ebfffdea 	bl	90a8 <emit.constprop.0>
    98fc:	e59f112c 	ldr	r1, [pc, #300]	; 9a30 <va_printk+0x600>
    9900:	e28d0018 	add	r0, sp, #24, 0
    9904:	eb0002f0 	bl	a4cc <strcmp>
    9908:	e3500000 	cmp	r0, #0, 0
    990c:	e28d1098 	add	r1, sp, #152, 0	; 0x98
    9910:	e28d0018 	add	r0, sp, #24, 0
    9914:	1a000002 	bne	9924 <va_printk+0x4f4>
    9918:	eb0002fc 	bl	a510 <strcpy>
    991c:	e59d6014 	ldr	r6, [sp, #20]
    9920:	eaffff18 	b	9588 <va_printk+0x158>
    9924:	eb0002dd 	bl	a4a0 <strcat>
    9928:	e59d6014 	ldr	r6, [sp, #20]
    992c:	eaffff15 	b	9588 <va_printk+0x158>
    9930:	e28d5018 	add	r5, sp, #24, 0
    9934:	e1a03005 	mov	r3, r5
    9938:	eaffffd5 	b	9894 <va_printk+0x464>
    993c:	e3a0c000 	mov	ip, #0, 0
    9940:	e350007f 	cmp	r0, #127, 0	; 0x7f
    9944:	e5c3c000 	strb	ip, [r3]
    9948:	caffffc3 	bgt	985c <va_printk+0x42c>
    994c:	eaffffc6 	b	986c <va_printk+0x43c>
    9950:	e3a02000 	mov	r2, #0, 0
    9954:	e28d3098 	add	r3, sp, #152, 0	; 0x98
    9958:	e1a00003 	mov	r0, r3
    995c:	e5cd2099 	strb	r2, [sp, #153]	; 0x99
    9960:	eaffff85 	b	977c <va_printk+0x34c>
    9964:	e3a03000 	mov	r3, #0, 0
    9968:	e1a01002 	mov	r1, r2
    996c:	e5c63001 	strb	r3, [r6, #1]
    9970:	e59f00bc 	ldr	r0, [pc, #188]	; 9a34 <va_printk+0x604>
    9974:	ebfffda7 	bl	9018 <printk>
    9978:	e59f30b8 	ldr	r3, [pc, #184]	; 9a38 <va_printk+0x608>
    997c:	e59d0010 	ldr	r0, [sp, #16]
    9980:	e5933000 	ldr	r3, [r3]
    9984:	e12fff33 	blx	r3
    9988:	e3a030e2 	mov	r3, #226, 0	; 0xe2
    998c:	e59f20a8 	ldr	r2, [pc, #168]	; 9a3c <va_printk+0x60c>
    9990:	e59f10a8 	ldr	r1, [pc, #168]	; 9a40 <va_printk+0x610>
    9994:	e59f00a8 	ldr	r0, [pc, #168]	; 9a44 <va_printk+0x614>
    9998:	ebfffd9e 	bl	9018 <printk>
    999c:	eb00002e 	bl	9a5c <clean_reboot>
    99a0:	e3a030be 	mov	r3, #190, 0	; 0xbe
    99a4:	e59f2090 	ldr	r2, [pc, #144]	; 9a3c <va_printk+0x60c>
    99a8:	e59f1090 	ldr	r1, [pc, #144]	; 9a40 <va_printk+0x610>
    99ac:	e59f0094 	ldr	r0, [pc, #148]	; 9a48 <va_printk+0x618>
    99b0:	ebfffd98 	bl	9018 <printk>
    99b4:	eb000028 	bl	9a5c <clean_reboot>
    99b8:	e28dc099 	add	ip, sp, #153, 0	; 0x99
    99bc:	e1a0000c 	mov	r0, ip
    99c0:	e3a02001 	mov	r2, #1, 0
    99c4:	eaffff58 	b	972c <va_printk+0x2fc>
    99c8:	e1a0400b 	mov	r4, fp
    99cc:	eafffee0 	b	9554 <va_printk+0x124>
    99d0:	e3a03098 	mov	r3, #152, 0	; 0x98
    99d4:	e59f2070 	ldr	r2, [pc, #112]	; 9a4c <va_printk+0x61c>
    99d8:	e59f1060 	ldr	r1, [pc, #96]	; 9a40 <va_printk+0x610>
    99dc:	e58d2000 	str	r2, [sp]
    99e0:	e59f0068 	ldr	r0, [pc, #104]	; 9a50 <va_printk+0x620>
    99e4:	e59f2050 	ldr	r2, [pc, #80]	; 9a3c <va_printk+0x60c>
    99e8:	ebfffd8a 	bl	9018 <printk>
    99ec:	eb00001a 	bl	9a5c <clean_reboot>
    99f0:	e3a030b6 	mov	r3, #182, 0	; 0xb6
    99f4:	e59f2040 	ldr	r2, [pc, #64]	; 9a3c <va_printk+0x60c>
    99f8:	e59f1040 	ldr	r1, [pc, #64]	; 9a40 <va_printk+0x610>
    99fc:	e59f0050 	ldr	r0, [pc, #80]	; 9a54 <va_printk+0x624>
    9a00:	e58d6000 	str	r6, [sp]
    9a04:	ebfffd83 	bl	9018 <printk>
    9a08:	eb000013 	bl	9a5c <clean_reboot>
    9a0c:	e3a0309f 	mov	r3, #159, 0	; 0x9f
    9a10:	e59f2040 	ldr	r2, [pc, #64]	; 9a58 <va_printk+0x628>
    9a14:	eaffffef 	b	99d8 <va_printk+0x5a8>
    9a18:	0000ab18 	andeq	sl, r0, r8, lsl fp
    9a1c:	0000ab3c 	andeq	sl, r0, ip, lsr fp
    9a20:	0000ab50 	andeq	sl, r0, r0, asr fp
    9a24:	0000ab40 	andeq	sl, r0, r0, asr #22
    9a28:	0000ab48 	andeq	sl, r0, r8, asr #22
    9a2c:	20202020 	eorcs	r2, r0, r0, lsr #32
    9a30:	0000a958 	andeq	sl, r0, r8, asr r9
    9a34:	0000abe0 	andeq	sl, r0, r0, ror #23
    9a38:	0000ae5c 	andeq	sl, r0, ip, asr lr
    9a3c:	0000ac48 	andeq	sl, r0, r8, asr #24
    9a40:	0000aaf0 	strdeq	sl, [r0], -r0
    9a44:	0000ac10 	andeq	sl, r0, r0, lsl ip
    9a48:	0000abb8 			; <UNDEFINED> instruction: 0x0000abb8
    9a4c:	0000ab30 	andeq	sl, r0, r0, lsr fp
    9a50:	0000a6b8 			; <UNDEFINED> instruction: 0x0000a6b8
    9a54:	0000ab90 	muleq	r0, r0, fp
    9a58:	0000ab54 	andeq	sl, r0, r4, asr fp

00009a5c <clean_reboot>:
    9a5c:	e59f301c 	ldr	r3, [pc, #28]	; 9a80 <clean_reboot+0x24>
    9a60:	e92d4010 	push	{r4, lr}
    9a64:	e5933000 	ldr	r3, [r3]
    9a68:	e59f0014 	ldr	r0, [pc, #20]	; 9a84 <clean_reboot+0x28>
    9a6c:	e12fff33 	blx	r3
    9a70:	eb00011b 	bl	9ee4 <uart_flush_tx>
    9a74:	e3a0000a 	mov	r0, #10, 0
    9a78:	eb000082 	bl	9c88 <delay_ms>
    9a7c:	eb00004b 	bl	9bb0 <rpi_reboot>
    9a80:	0000ae5c 	andeq	sl, r0, ip, asr lr
    9a84:	0000ac54 	andeq	sl, r0, r4, asr ip

00009a88 <_cstart>:
    9a88:	e92d4070 	push	{r4, r5, r6, lr}
    9a8c:	eb00003b 	bl	9b80 <custom_loader>
    9a90:	e59f20e0 	ldr	r2, [pc, #224]	; 9b78 <_cstart+0xf0>
    9a94:	e59fc0e0 	ldr	ip, [pc, #224]	; 9b7c <_cstart+0xf4>
    9a98:	e152000c 	cmp	r2, ip
    9a9c:	2a00002e 	bcs	9b5c <_cstart+0xd4>
    9aa0:	e24c1001 	sub	r1, ip, #1, 0
    9aa4:	e0411002 	sub	r1, r1, r2
    9aa8:	e3510017 	cmp	r1, #23, 0
    9aac:	e1a03122 	lsr	r3, r2, #2
    9ab0:	e1a01121 	lsr	r1, r1, #2
    9ab4:	e2811001 	add	r1, r1, #1, 0
    9ab8:	e2033001 	and	r3, r3, #1, 0
    9abc:	9a00002b 	bls	9b70 <_cstart+0xe8>
    9ac0:	e3530000 	cmp	r3, #0, 0
    9ac4:	11a00002 	movne	r0, r2
    9ac8:	13a0e000 	movne	lr, #0, 0
    9acc:	e3a04000 	mov	r4, #0, 0
    9ad0:	e3a05000 	mov	r5, #0, 0
    9ad4:	e0411003 	sub	r1, r1, r3
    9ad8:	01a00002 	moveq	r0, r2
    9adc:	e0823103 	add	r3, r2, r3, lsl #2
    9ae0:	e1a020a1 	lsr	r2, r1, #1
    9ae4:	1480e004 	strne	lr, [r0], #4
    9ae8:	e0832182 	add	r2, r3, r2, lsl #3
    9aec:	e0c340f8 	strd	r4, [r3], #8
    9af0:	e1520003 	cmp	r2, r3
    9af4:	1afffffc 	bne	9aec <_cstart+0x64>
    9af8:	e3c13001 	bic	r3, r1, #1, 0
    9afc:	e1510003 	cmp	r1, r3
    9b00:	e0803103 	add	r3, r0, r3, lsl #2
    9b04:	0a000014 	beq	9b5c <_cstart+0xd4>
    9b08:	e1a01003 	mov	r1, r3
    9b0c:	e3a02000 	mov	r2, #0, 0
    9b10:	e4812004 	str	r2, [r1], #4
    9b14:	e151000c 	cmp	r1, ip
    9b18:	2a00000f 	bcs	9b5c <_cstart+0xd4>
    9b1c:	e2831008 	add	r1, r3, #8, 0
    9b20:	e151000c 	cmp	r1, ip
    9b24:	e5832004 	str	r2, [r3, #4]
    9b28:	2a00000b 	bcs	9b5c <_cstart+0xd4>
    9b2c:	e283100c 	add	r1, r3, #12, 0
    9b30:	e151000c 	cmp	r1, ip
    9b34:	e5832008 	str	r2, [r3, #8]
    9b38:	2a000007 	bcs	9b5c <_cstart+0xd4>
    9b3c:	e2831010 	add	r1, r3, #16, 0
    9b40:	e151000c 	cmp	r1, ip
    9b44:	e583200c 	str	r2, [r3, #12]
    9b48:	2a000003 	bcs	9b5c <_cstart+0xd4>
    9b4c:	e2831014 	add	r1, r3, #20, 0
    9b50:	e151000c 	cmp	r1, ip
    9b54:	e5832010 	str	r2, [r3, #16]
    9b58:	35832014 	strcc	r2, [r3, #20]
    9b5c:	eb000082 	bl	9d6c <uart_init>
    9b60:	e3a03001 	mov	r3, #1, 0
    9b64:	ee0f3f1c 	mcr	15, 0, r3, cr15, cr12, {0}
    9b68:	ebfff935 	bl	8044 <notmain>
    9b6c:	ebffffba 	bl	9a5c <clean_reboot>
    9b70:	e1a03002 	mov	r3, r2
    9b74:	eaffffe3 	b	9b08 <_cstart+0x80>
    9b78:	0000ae70 	andeq	sl, r0, r0, ror lr
    9b7c:	0000b298 	muleq	r0, r8, r2

00009b80 <custom_loader>:
    9b80:	e12fff1e 	bx	lr

00009b84 <at_user_level>:
    9b84:	e10f0000 	mrs	r0, CPSR
    9b88:	e200001f 	and	r0, r0, #31, 0
    9b8c:	e2400010 	sub	r0, r0, #16, 0
    9b90:	e16f0f10 	clz	r0, r0
    9b94:	e1a002a0 	lsr	r0, r0, #5
    9b98:	e12fff1e 	bx	lr

00009b9c <set_user_level>:
    9b9c:	e10f3000 	mrs	r3, CPSR
    9ba0:	e3c3301f 	bic	r3, r3, #31, 0
    9ba4:	e3833010 	orr	r3, r3, #16, 0
    9ba8:	e129f003 	msr	CPSR_fc, r3
    9bac:	e12fff1e 	bx	lr

00009bb0 <rpi_reboot>:
    9bb0:	e92d4010 	push	{r4, lr}
    9bb4:	e10f3000 	mrs	r3, CPSR
    9bb8:	e203301f 	and	r3, r3, #31, 0
    9bbc:	e3530010 	cmp	r3, #16, 0
    9bc0:	1a000003 	bne	9bd4 <rpi_reboot+0x24>
    9bc4:	e10f3000 	mrs	r3, CPSR
    9bc8:	e3c3301f 	bic	r3, r3, #31, 0
    9bcc:	e3833010 	orr	r3, r3, #16, 0
    9bd0:	e129f003 	msr	CPSR_fc, r3
    9bd4:	eb00025f 	bl	a558 <reboot_callout>
    9bd8:	eb0000c1 	bl	9ee4 <uart_flush_tx>
    9bdc:	e3a0000a 	mov	r0, #10, 0
    9be0:	eb000028 	bl	9c88 <delay_ms>
    9be4:	e59f1014 	ldr	r1, [pc, #20]	; 9c00 <rpi_reboot+0x50>
    9be8:	e59f0014 	ldr	r0, [pc, #20]	; 9c04 <rpi_reboot+0x54>
    9bec:	ebfff90c 	bl	8024 <PUT32>
    9bf0:	e59f1010 	ldr	r1, [pc, #16]	; 9c08 <rpi_reboot+0x58>
    9bf4:	e59f0010 	ldr	r0, [pc, #16]	; 9c0c <rpi_reboot+0x5c>
    9bf8:	ebfff909 	bl	8024 <PUT32>
    9bfc:	eafffffe 	b	9bfc <rpi_reboot+0x4c>
    9c00:	5a000001 	bpl	9c0c <rpi_reboot+0x5c>
    9c04:	20100024 	andscs	r0, r0, r4, lsr #32
    9c08:	5a000020 	bpl	9c90 <delay_ms+0x8>
    9c0c:	2010001c 	andscs	r0, r0, ip, lsl r0

00009c10 <timer_get_usec_raw>:
    9c10:	e59f0000 	ldr	r0, [pc]	; 9c18 <timer_get_usec_raw+0x8>
    9c14:	eafff904 	b	802c <GET32>
    9c18:	20003004 	andcs	r3, r0, r4

00009c1c <timer_get_usec>:
    9c1c:	e92d4010 	push	{r4, lr}
    9c20:	eb00024d 	bl	a55c <dev_barrier>
    9c24:	e59f0010 	ldr	r0, [pc, #16]	; 9c3c <timer_get_usec+0x20>
    9c28:	ebfff8ff 	bl	802c <GET32>
    9c2c:	e1a04000 	mov	r4, r0
    9c30:	eb000249 	bl	a55c <dev_barrier>
    9c34:	e1a00004 	mov	r0, r4
    9c38:	e8bd8010 	pop	{r4, pc}
    9c3c:	20003004 	andcs	r3, r0, r4

00009c40 <delay_us>:
    9c40:	e92d41f0 	push	{r4, r5, r6, r7, r8, lr}
    9c44:	e1a06000 	mov	r6, r0
    9c48:	eb000243 	bl	a55c <dev_barrier>
    9c4c:	e59f0030 	ldr	r0, [pc, #48]	; 9c84 <delay_us+0x44>
    9c50:	ebfff8f5 	bl	802c <GET32>
    9c54:	e1a05000 	mov	r5, r0
    9c58:	eb00023f 	bl	a55c <dev_barrier>
    9c5c:	e59f7020 	ldr	r7, [pc, #32]	; 9c84 <delay_us+0x44>
    9c60:	eb00023d 	bl	a55c <dev_barrier>
    9c64:	e1a00007 	mov	r0, r7
    9c68:	ebfff8ef 	bl	802c <GET32>
    9c6c:	e1a04000 	mov	r4, r0
    9c70:	e0444005 	sub	r4, r4, r5
    9c74:	eb000238 	bl	a55c <dev_barrier>
    9c78:	e1540006 	cmp	r4, r6
    9c7c:	3afffff7 	bcc	9c60 <delay_us+0x20>
    9c80:	e8bd81f0 	pop	{r4, r5, r6, r7, r8, pc}
    9c84:	20003004 	andcs	r3, r0, r4

00009c88 <delay_ms>:
    9c88:	e92d41f0 	push	{r4, r5, r6, r7, r8, lr}
    9c8c:	e0604280 	rsb	r4, r0, r0, lsl #5
    9c90:	e0800104 	add	r0, r0, r4, lsl #2
    9c94:	e1a04180 	lsl	r4, r0, #3
    9c98:	eb00022f 	bl	a55c <dev_barrier>
    9c9c:	e59f0030 	ldr	r0, [pc, #48]	; 9cd4 <delay_ms+0x4c>
    9ca0:	ebfff8e1 	bl	802c <GET32>
    9ca4:	e1a06000 	mov	r6, r0
    9ca8:	eb00022b 	bl	a55c <dev_barrier>
    9cac:	e59f7020 	ldr	r7, [pc, #32]	; 9cd4 <delay_ms+0x4c>
    9cb0:	eb000229 	bl	a55c <dev_barrier>
    9cb4:	e1a00007 	mov	r0, r7
    9cb8:	ebfff8db 	bl	802c <GET32>
    9cbc:	e1a05000 	mov	r5, r0
    9cc0:	e0455006 	sub	r5, r5, r6
    9cc4:	eb000224 	bl	a55c <dev_barrier>
    9cc8:	e1540005 	cmp	r4, r5
    9ccc:	8afffff7 	bhi	9cb0 <delay_ms+0x28>
    9cd0:	e8bd81f0 	pop	{r4, r5, r6, r7, r8, pc}
    9cd4:	20003004 	andcs	r3, r0, r4

00009cd8 <delay_sec>:
    9cd8:	e92d41f0 	push	{r4, r5, r6, r7, r8, lr}
    9cdc:	e0604280 	rsb	r4, r0, r0, lsl #5
    9ce0:	e0644304 	rsb	r4, r4, r4, lsl #6
    9ce4:	e0800184 	add	r0, r0, r4, lsl #3
    9ce8:	e1a04300 	lsl	r4, r0, #6
    9cec:	eb00021a 	bl	a55c <dev_barrier>
    9cf0:	e59f0030 	ldr	r0, [pc, #48]	; 9d28 <delay_sec+0x50>
    9cf4:	ebfff8cc 	bl	802c <GET32>
    9cf8:	e1a06000 	mov	r6, r0
    9cfc:	eb000216 	bl	a55c <dev_barrier>
    9d00:	e59f7020 	ldr	r7, [pc, #32]	; 9d28 <delay_sec+0x50>
    9d04:	eb000214 	bl	a55c <dev_barrier>
    9d08:	e1a00007 	mov	r0, r7
    9d0c:	ebfff8c6 	bl	802c <GET32>
    9d10:	e1a05000 	mov	r5, r0
    9d14:	e0455006 	sub	r5, r5, r6
    9d18:	eb00020f 	bl	a55c <dev_barrier>
    9d1c:	e1540005 	cmp	r4, r5
    9d20:	8afffff7 	bhi	9d04 <delay_sec+0x2c>
    9d24:	e8bd81f0 	pop	{r4, r5, r6, r7, r8, pc}
    9d28:	20003004 	andcs	r3, r0, r4

00009d2c <and_in32>:
    9d2c:	e92d4070 	push	{r4, r5, r6, lr}
    9d30:	e1a04000 	mov	r4, r0
    9d34:	e1a05001 	mov	r5, r1
    9d38:	ebfff8bb 	bl	802c <GET32>
    9d3c:	e0001005 	and	r1, r0, r5
    9d40:	e1a00004 	mov	r0, r4
    9d44:	ebfff8b6 	bl	8024 <PUT32>
    9d48:	e8bd8070 	pop	{r4, r5, r6, pc}

00009d4c <or_in32>:
    9d4c:	e92d4070 	push	{r4, r5, r6, lr}
    9d50:	e1a04000 	mov	r4, r0
    9d54:	e1a05001 	mov	r5, r1
    9d58:	ebfff8b3 	bl	802c <GET32>
    9d5c:	e1801005 	orr	r1, r0, r5
    9d60:	e1a00004 	mov	r0, r4
    9d64:	ebfff8ae 	bl	8024 <PUT32>
    9d68:	e8bd8070 	pop	{r4, r5, r6, pc}

00009d6c <uart_init>:
    9d6c:	e92d4010 	push	{r4, lr}
    9d70:	e3a01002 	mov	r1, #2, 0
    9d74:	e3a0000e 	mov	r0, #14, 0
    9d78:	eb000153 	bl	a2cc <gpio_set_function>
    9d7c:	e3a01002 	mov	r1, #2, 0
    9d80:	e3a0000f 	mov	r0, #15, 0
    9d84:	eb000150 	bl	a2cc <gpio_set_function>
    9d88:	eb0001f3 	bl	a55c <dev_barrier>
    9d8c:	e3a01001 	mov	r1, #1, 0
    9d90:	e59f0064 	ldr	r0, [pc, #100]	; 9dfc <uart_init+0x90>
    9d94:	ebffffec 	bl	9d4c <or_in32>
    9d98:	eb0001ef 	bl	a55c <dev_barrier>
    9d9c:	e59f405c 	ldr	r4, [pc, #92]	; 9e00 <uart_init+0x94>
    9da0:	e3a01000 	mov	r1, #0, 0
    9da4:	e1a00004 	mov	r0, r4
    9da8:	ebfff89d 	bl	8024 <PUT32>
    9dac:	e3a01000 	mov	r1, #0, 0
    9db0:	e59f004c 	ldr	r0, [pc, #76]	; 9e04 <uart_init+0x98>
    9db4:	ebfff89a 	bl	8024 <PUT32>
    9db8:	e3a01003 	mov	r1, #3, 0
    9dbc:	e59f0044 	ldr	r0, [pc, #68]	; 9e08 <uart_init+0x9c>
    9dc0:	ebfff897 	bl	8024 <PUT32>
    9dc4:	e3a01000 	mov	r1, #0, 0
    9dc8:	e59f003c 	ldr	r0, [pc, #60]	; 9e0c <uart_init+0xa0>
    9dcc:	ebfff894 	bl	8024 <PUT32>
    9dd0:	e3a010c7 	mov	r1, #199, 0	; 0xc7
    9dd4:	e59f0034 	ldr	r0, [pc, #52]	; 9e10 <uart_init+0xa4>
    9dd8:	ebfff891 	bl	8024 <PUT32>
    9ddc:	e59f1030 	ldr	r1, [pc, #48]	; 9e14 <uart_init+0xa8>
    9de0:	e59f0030 	ldr	r0, [pc, #48]	; 9e18 <uart_init+0xac>
    9de4:	ebfff88e 	bl	8024 <PUT32>
    9de8:	e3a01003 	mov	r1, #3, 0
    9dec:	e1a00004 	mov	r0, r4
    9df0:	ebfff88b 	bl	8024 <PUT32>
    9df4:	eb0001d8 	bl	a55c <dev_barrier>
    9df8:	e8bd8010 	pop	{r4, pc}
    9dfc:	20215004 	eorcs	r5, r1, r4
    9e00:	20215060 	eorcs	r5, r1, r0, rrx
    9e04:	20215044 	eorcs	r5, r1, r4, asr #32
    9e08:	2021504c 	eorcs	r5, r1, ip, asr #32
    9e0c:	20215050 	eorcs	r5, r1, r0, asr r0
    9e10:	20215048 	eorcs	r5, r1, r8, asr #32
    9e14:	0000010e 	andeq	r0, r0, lr, lsl #2
    9e18:	20215068 	eorcs	r5, r1, r8, rrx

00009e1c <uart_can_getc>:
    9e1c:	e92d4010 	push	{r4, lr}
    9e20:	e59f0008 	ldr	r0, [pc, #8]	; 9e30 <uart_can_getc+0x14>
    9e24:	ebfff880 	bl	802c <GET32>
    9e28:	e2000001 	and	r0, r0, #1, 0
    9e2c:	e8bd8010 	pop	{r4, pc}
    9e30:	20215064 	eorcs	r5, r1, r4, rrx

00009e34 <uart_can_putc>:
    9e34:	e92d4010 	push	{r4, lr}
    9e38:	e59f0010 	ldr	r0, [pc, #16]	; 9e50 <uart_can_putc+0x1c>
    9e3c:	ebfff87a 	bl	802c <GET32>
    9e40:	e3100002 	tst	r0, #2, 0
    9e44:	13a00001 	movne	r0, #1, 0
    9e48:	03a00000 	moveq	r0, #0, 0
    9e4c:	e8bd8010 	pop	{r4, pc}
    9e50:	20215064 	eorcs	r5, r1, r4, rrx

00009e54 <uart_getc>:
    9e54:	e92d4010 	push	{r4, lr}
    9e58:	eb0001bf 	bl	a55c <dev_barrier>
    9e5c:	ebffffee 	bl	9e1c <uart_can_getc>
    9e60:	e3500000 	cmp	r0, #0, 0
    9e64:	0afffffc 	beq	9e5c <uart_getc+0x8>
    9e68:	e59f0010 	ldr	r0, [pc, #16]	; 9e80 <uart_getc+0x2c>
    9e6c:	ebfff86e 	bl	802c <GET32>
    9e70:	e6ef4070 	uxtb	r4, r0
    9e74:	eb0001b8 	bl	a55c <dev_barrier>
    9e78:	e1a00004 	mov	r0, r4
    9e7c:	e8bd8010 	pop	{r4, pc}
    9e80:	20215040 	eorcs	r5, r1, r0, asr #32

00009e84 <uart_putc>:
    9e84:	e92d4010 	push	{r4, lr}
    9e88:	e1a04000 	mov	r4, r0
    9e8c:	eb0001b2 	bl	a55c <dev_barrier>
    9e90:	ebffffe7 	bl	9e34 <uart_can_putc>
    9e94:	e3500000 	cmp	r0, #0, 0
    9e98:	0afffffc 	beq	9e90 <uart_putc+0xc>
    9e9c:	e6ef1074 	uxtb	r1, r4
    9ea0:	e59f0008 	ldr	r0, [pc, #8]	; 9eb0 <uart_putc+0x2c>
    9ea4:	ebfff85e 	bl	8024 <PUT32>
    9ea8:	eb0001ab 	bl	a55c <dev_barrier>
    9eac:	e8bd8010 	pop	{r4, pc}
    9eb0:	20215040 	eorcs	r5, r1, r0, asr #32

00009eb4 <uart_has_data>:
    9eb4:	e92d4010 	push	{r4, lr}
    9eb8:	eb0001a7 	bl	a55c <dev_barrier>
    9ebc:	ebffffd6 	bl	9e1c <uart_can_getc>
    9ec0:	e8bd8010 	pop	{r4, pc}

00009ec4 <uart_tx_is_empty>:
    9ec4:	e92d4010 	push	{r4, lr}
    9ec8:	eb0001a3 	bl	a55c <dev_barrier>
    9ecc:	e59f000c 	ldr	r0, [pc, #12]	; 9ee0 <uart_tx_is_empty+0x1c>
    9ed0:	ebfff855 	bl	802c <GET32>
    9ed4:	e1a004a0 	lsr	r0, r0, #9
    9ed8:	e2000001 	and	r0, r0, #1, 0
    9edc:	e8bd8010 	pop	{r4, pc}
    9ee0:	20215064 	eorcs	r5, r1, r4, rrx

00009ee4 <uart_flush_tx>:
    9ee4:	e92d4010 	push	{r4, lr}
    9ee8:	ebfffff5 	bl	9ec4 <uart_tx_is_empty>
    9eec:	e3500000 	cmp	r0, #0, 0
    9ef0:	0afffffc 	beq	9ee8 <uart_flush_tx+0x4>
    9ef4:	e8bd8010 	pop	{r4, pc}

00009ef8 <uart_disable>:
    9ef8:	e92d4010 	push	{r4, lr}
    9efc:	ebfffff8 	bl	9ee4 <uart_flush_tx>
    9f00:	eb000195 	bl	a55c <dev_barrier>
    9f04:	e3e01001 	mvn	r1, #1, 0
    9f08:	e59f0008 	ldr	r0, [pc, #8]	; 9f18 <uart_disable+0x20>
    9f0c:	ebffff86 	bl	9d2c <and_in32>
    9f10:	eb000191 	bl	a55c <dev_barrier>
    9f14:	e8bd8010 	pop	{r4, pc}
    9f18:	20215004 	eorcs	r5, r1, r4

00009f1c <kmalloc_heap_end>:
    9f1c:	e59f3004 	ldr	r3, [pc, #4]	; 9f28 <kmalloc_heap_end+0xc>
    9f20:	e5930000 	ldr	r0, [r3]
    9f24:	e12fff1e 	bx	lr
    9f28:	0000ae60 	andeq	sl, r0, r0, ror #28

00009f2c <kmalloc_heap_start>:
    9f2c:	e59f3004 	ldr	r3, [pc, #4]	; 9f38 <kmalloc_heap_start+0xc>
    9f30:	e5930004 	ldr	r0, [r3, #4]
    9f34:	e12fff1e 	bx	lr
    9f38:	0000ae60 	andeq	sl, r0, r0, ror #28

00009f3c <kmalloc_heap_ptr>:
    9f3c:	e59f3004 	ldr	r3, [pc, #4]	; 9f48 <kmalloc_heap_ptr+0xc>
    9f40:	e5930000 	ldr	r0, [r3]
    9f44:	e12fff1e 	bx	lr
    9f48:	0000ae60 	andeq	sl, r0, r0, ror #28

00009f4c <kmalloc_init_set_start>:
    9f4c:	e52de004 	push	{lr}		; (str lr, [sp, #-4]!)
    9f50:	e24dd00c 	sub	sp, sp, #12, 0
    9f54:	e3510000 	cmp	r1, #0, 0
    9f58:	0a00000a 	beq	9f88 <kmalloc_init_set_start+0x3c>
    9f5c:	e59f306c 	ldr	r3, [pc, #108]	; 9fd0 <kmalloc_init_set_start+0x84>
    9f60:	e5933000 	ldr	r3, [r3]
    9f64:	e1530000 	cmp	r3, r0
    9f68:	8a00000e 	bhi	9fa8 <kmalloc_init_set_start+0x5c>
    9f6c:	e59f305c 	ldr	r3, [pc, #92]	; 9fd0 <kmalloc_init_set_start+0x84>
    9f70:	e5830000 	str	r0, [r3]
    9f74:	e5830004 	str	r0, [r3, #4]
    9f78:	e0800001 	add	r0, r0, r1
    9f7c:	e5830008 	str	r0, [r3, #8]
    9f80:	e28dd00c 	add	sp, sp, #12, 0
    9f84:	e49df004 	pop	{pc}		; (ldr pc, [sp], #4)
    9f88:	e59f3044 	ldr	r3, [pc, #68]	; 9fd4 <kmalloc_init_set_start+0x88>
    9f8c:	e58d3000 	str	r3, [sp]
    9f90:	e3a03030 	mov	r3, #48, 0	; 0x30
    9f94:	e59f203c 	ldr	r2, [pc, #60]	; 9fd8 <kmalloc_init_set_start+0x8c>
    9f98:	e59f103c 	ldr	r1, [pc, #60]	; 9fdc <kmalloc_init_set_start+0x90>
    9f9c:	e59f003c 	ldr	r0, [pc, #60]	; 9fe0 <kmalloc_init_set_start+0x94>
    9fa0:	ebfffc1c 	bl	9018 <printk>
    9fa4:	ebfffeac 	bl	9a5c <clean_reboot>
    9fa8:	e59f3020 	ldr	r3, [pc, #32]	; 9fd0 <kmalloc_init_set_start+0x84>
    9fac:	e5933008 	ldr	r3, [r3, #8]
    9fb0:	e58d3004 	str	r3, [sp, #4]
    9fb4:	e58d0000 	str	r0, [sp]
    9fb8:	e3a03034 	mov	r3, #52, 0	; 0x34
    9fbc:	e59f2014 	ldr	r2, [pc, #20]	; 9fd8 <kmalloc_init_set_start+0x8c>
    9fc0:	e59f1014 	ldr	r1, [pc, #20]	; 9fdc <kmalloc_init_set_start+0x90>
    9fc4:	e59f0018 	ldr	r0, [pc, #24]	; 9fe4 <kmalloc_init_set_start+0x98>
    9fc8:	ebfffc12 	bl	9018 <printk>
    9fcc:	ebfffea2 	bl	9a5c <clean_reboot>
    9fd0:	0000ae60 	andeq	sl, r0, r0, ror #28
    9fd4:	0000ac6c 	andeq	sl, r0, ip, ror #24
    9fd8:	0000adf8 	strdeq	sl, [r0], -r8
    9fdc:	0000ac60 	andeq	sl, r0, r0, ror #24
    9fe0:	0000a6b8 			; <UNDEFINED> instruction: 0x0000a6b8
    9fe4:	0000ac78 	andeq	sl, r0, r8, ror ip

00009fe8 <kmalloc_init>:
    9fe8:	e92d4010 	push	{r4, lr}
    9fec:	e59f303c 	ldr	r3, [pc, #60]	; a030 <kmalloc_init+0x48>
    9ff0:	e5933000 	ldr	r3, [r3]
    9ff4:	e3530000 	cmp	r3, #0, 0
    9ff8:	1a000006 	bne	a018 <kmalloc_init+0x30>
    9ffc:	e59f302c 	ldr	r3, [pc, #44]	; a030 <kmalloc_init+0x48>
    a000:	e3a02001 	mov	r2, #1, 0
    a004:	e5832000 	str	r2, [r3]
    a008:	e3a01201 	mov	r1, #268435456	; 0x10000000
    a00c:	e3a00601 	mov	r0, #1048576	; 0x100000
    a010:	ebffffcd 	bl	9f4c <kmalloc_init_set_start>
    a014:	e8bd8010 	pop	{r4, pc}
    a018:	e3a03040 	mov	r3, #64, 0	; 0x40
    a01c:	e59f2010 	ldr	r2, [pc, #16]	; a034 <kmalloc_init+0x4c>
    a020:	e59f1010 	ldr	r1, [pc, #16]	; a038 <kmalloc_init+0x50>
    a024:	e59f0010 	ldr	r0, [pc, #16]	; a03c <kmalloc_init+0x54>
    a028:	ebfffbfa 	bl	9018 <printk>
    a02c:	ebfffe8a 	bl	9a5c <clean_reboot>
    a030:	0000b294 	muleq	r0, r4, r2
    a034:	0000ae10 	andeq	sl, r0, r0, lsl lr
    a038:	0000ac60 	andeq	sl, r0, r0, ror #24
    a03c:	0000acbc 			; <UNDEFINED> instruction: 0x0000acbc

0000a040 <kmalloc_notzero>:
    a040:	e52de004 	push	{lr}		; (str lr, [sp, #-4]!)
    a044:	e24dd00c 	sub	sp, sp, #12, 0
    a048:	e3500000 	cmp	r0, #0, 0
    a04c:	0a00000a 	beq	a07c <kmalloc_notzero+0x3c>
    a050:	e2800007 	add	r0, r0, #7, 0
    a054:	e3c03007 	bic	r3, r0, #7, 0
    a058:	e59f2060 	ldr	r2, [pc, #96]	; a0c0 <kmalloc_notzero+0x80>
    a05c:	e5920000 	ldr	r0, [r2]
    a060:	e0801003 	add	r1, r0, r3
    a064:	e5821000 	str	r1, [r2]
    a068:	e5922008 	ldr	r2, [r2, #8]
    a06c:	e1510002 	cmp	r1, r2
    a070:	8a000009 	bhi	a09c <kmalloc_notzero+0x5c>
    a074:	e28dd00c 	add	sp, sp, #12, 0
    a078:	e49df004 	pop	{pc}		; (ldr pc, [sp], #4)
    a07c:	e59f3040 	ldr	r3, [pc, #64]	; a0c4 <kmalloc_notzero+0x84>
    a080:	e58d3000 	str	r3, [sp]
    a084:	e3a03048 	mov	r3, #72, 0	; 0x48
    a088:	e59f2038 	ldr	r2, [pc, #56]	; a0c8 <kmalloc_notzero+0x88>
    a08c:	e59f1038 	ldr	r1, [pc, #56]	; a0cc <kmalloc_notzero+0x8c>
    a090:	e59f0038 	ldr	r0, [pc, #56]	; a0d0 <kmalloc_notzero+0x90>
    a094:	ebfffbdf 	bl	9018 <printk>
    a098:	ebfffe6f 	bl	9a5c <clean_reboot>
    a09c:	e0422000 	sub	r2, r2, r0
    a0a0:	e58d2004 	str	r2, [sp, #4]
    a0a4:	e58d3000 	str	r3, [sp]
    a0a8:	e3a0304e 	mov	r3, #78, 0	; 0x4e
    a0ac:	e59f2014 	ldr	r2, [pc, #20]	; a0c8 <kmalloc_notzero+0x88>
    a0b0:	e59f1014 	ldr	r1, [pc, #20]	; a0cc <kmalloc_notzero+0x8c>
    a0b4:	e59f0018 	ldr	r0, [pc, #24]	; a0d4 <kmalloc_notzero+0x94>
    a0b8:	ebfffbd6 	bl	9018 <printk>
    a0bc:	ebfffe66 	bl	9a5c <clean_reboot>
    a0c0:	0000ae60 	andeq	sl, r0, r0, ror #28
    a0c4:	0000ac70 	andeq	sl, r0, r0, ror ip
    a0c8:	0000ae20 	andeq	sl, r0, r0, lsr #28
    a0cc:	0000ac60 	andeq	sl, r0, r0, ror #24
    a0d0:	0000a6b8 			; <UNDEFINED> instruction: 0x0000a6b8
    a0d4:	0000acec 	andeq	sl, r0, ip, ror #25

0000a0d8 <kmalloc>:
    a0d8:	e92d4030 	push	{r4, r5, lr}
    a0dc:	e24dd00c 	sub	sp, sp, #12, 0
    a0e0:	e2504000 	subs	r4, r0, #0, 0
    a0e4:	0a000008 	beq	a10c <kmalloc+0x34>
    a0e8:	e1a00004 	mov	r0, r4
    a0ec:	ebffffd3 	bl	a040 <kmalloc_notzero>
    a0f0:	e1a05000 	mov	r5, r0
    a0f4:	e1a02004 	mov	r2, r4
    a0f8:	e3a01000 	mov	r1, #0, 0
    a0fc:	ebfffba7 	bl	8fa0 <memset>
    a100:	e1a00005 	mov	r0, r5
    a104:	e28dd00c 	add	sp, sp, #12, 0
    a108:	e8bd8030 	pop	{r4, r5, pc}
    a10c:	e59f3018 	ldr	r3, [pc, #24]	; a12c <kmalloc+0x54>
    a110:	e58d3000 	str	r3, [sp]
    a114:	e3a03054 	mov	r3, #84, 0	; 0x54
    a118:	e59f2010 	ldr	r2, [pc, #16]	; a130 <kmalloc+0x58>
    a11c:	e59f1010 	ldr	r1, [pc, #16]	; a134 <kmalloc+0x5c>
    a120:	e59f0010 	ldr	r0, [pc, #16]	; a138 <kmalloc+0x60>
    a124:	ebfffbbb 	bl	9018 <printk>
    a128:	ebfffe4b 	bl	9a5c <clean_reboot>
    a12c:	0000ac70 	andeq	sl, r0, r0, ror ip
    a130:	0000ae30 	andeq	sl, r0, r0, lsr lr
    a134:	0000ac60 	andeq	sl, r0, r0, ror #24
    a138:	0000a6b8 			; <UNDEFINED> instruction: 0x0000a6b8

0000a13c <kmalloc_aligned>:
    a13c:	e52de004 	push	{lr}		; (str lr, [sp, #-4]!)
    a140:	e24dd00c 	sub	sp, sp, #12, 0
    a144:	e3500000 	cmp	r0, #0, 0
    a148:	0a000014 	beq	a1a0 <kmalloc_aligned+0x64>
    a14c:	e2613000 	rsb	r3, r1, #0, 0
    a150:	e1d13003 	bics	r3, r1, r3
    a154:	1a000019 	bne	a1c0 <kmalloc_aligned+0x84>
    a158:	e3510008 	cmp	r1, #8, 0
    a15c:	33a01008 	movcc	r1, #8, 0
    a160:	e59f30c0 	ldr	r3, [pc, #192]	; a228 <kmalloc_aligned+0xec>
    a164:	e5932000 	ldr	r2, [r3]
    a168:	e2613000 	rsb	r3, r1, #0, 0
    a16c:	e1d1c003 	bics	ip, r1, r3
    a170:	1a00001b 	bne	a1e4 <kmalloc_aligned+0xa8>
    a174:	e0822001 	add	r2, r2, r1
    a178:	e2422001 	sub	r2, r2, #1, 0
    a17c:	e0033002 	and	r3, r3, r2
    a180:	e2411001 	sub	r1, r1, #1, 0
    a184:	e1110003 	tst	r1, r3
    a188:	1a00001d 	bne	a204 <kmalloc_aligned+0xc8>
    a18c:	e59f2094 	ldr	r2, [pc, #148]	; a228 <kmalloc_aligned+0xec>
    a190:	e5823000 	str	r3, [r2]
    a194:	ebffffcf 	bl	a0d8 <kmalloc>
    a198:	e28dd00c 	add	sp, sp, #12, 0
    a19c:	e49df004 	pop	{pc}		; (ldr pc, [sp], #4)
    a1a0:	e59f3084 	ldr	r3, [pc, #132]	; a22c <kmalloc_aligned+0xf0>
    a1a4:	e58d3000 	str	r3, [sp]
    a1a8:	e3a0305f 	mov	r3, #95, 0	; 0x5f
    a1ac:	e59f207c 	ldr	r2, [pc, #124]	; a230 <kmalloc_aligned+0xf4>
    a1b0:	e59f107c 	ldr	r1, [pc, #124]	; a234 <kmalloc_aligned+0xf8>
    a1b4:	e59f007c 	ldr	r0, [pc, #124]	; a238 <kmalloc_aligned+0xfc>
    a1b8:	ebfffb96 	bl	9018 <printk>
    a1bc:	ebfffe26 	bl	9a5c <clean_reboot>
    a1c0:	eb0000ac 	bl	a478 <rpi_reset_putc>
    a1c4:	e59f3070 	ldr	r3, [pc, #112]	; a23c <kmalloc_aligned+0x100>
    a1c8:	e58d3000 	str	r3, [sp]
    a1cc:	e3a03060 	mov	r3, #96, 0	; 0x60
    a1d0:	e59f2058 	ldr	r2, [pc, #88]	; a230 <kmalloc_aligned+0xf4>
    a1d4:	e59f1058 	ldr	r1, [pc, #88]	; a234 <kmalloc_aligned+0xf8>
    a1d8:	e59f0060 	ldr	r0, [pc, #96]	; a240 <kmalloc_aligned+0x104>
    a1dc:	ebfffb8d 	bl	9018 <printk>
    a1e0:	ebfffe1d 	bl	9a5c <clean_reboot>
    a1e4:	e59f3058 	ldr	r3, [pc, #88]	; a244 <kmalloc_aligned+0x108>
    a1e8:	e58d3000 	str	r3, [sp]
    a1ec:	e3a03011 	mov	r3, #17, 0
    a1f0:	e59f2050 	ldr	r2, [pc, #80]	; a248 <kmalloc_aligned+0x10c>
    a1f4:	e59f1038 	ldr	r1, [pc, #56]	; a234 <kmalloc_aligned+0xf8>
    a1f8:	e59f0038 	ldr	r0, [pc, #56]	; a238 <kmalloc_aligned+0xfc>
    a1fc:	ebfffb85 	bl	9018 <printk>
    a200:	ebfffe15 	bl	9a5c <clean_reboot>
    a204:	eb00009b 	bl	a478 <rpi_reset_putc>
    a208:	e59f303c 	ldr	r3, [pc, #60]	; a24c <kmalloc_aligned+0x110>
    a20c:	e58d3000 	str	r3, [sp]
    a210:	e3a03068 	mov	r3, #104, 0	; 0x68
    a214:	e59f2014 	ldr	r2, [pc, #20]	; a230 <kmalloc_aligned+0xf4>
    a218:	e59f1014 	ldr	r1, [pc, #20]	; a234 <kmalloc_aligned+0xf8>
    a21c:	e59f002c 	ldr	r0, [pc, #44]	; a250 <kmalloc_aligned+0x114>
    a220:	ebfffb7c 	bl	9018 <printk>
    a224:	ebfffe0c 	bl	9a5c <clean_reboot>
    a228:	0000ae60 	andeq	sl, r0, r0, ror #28
    a22c:	0000ac70 	andeq	sl, r0, r0, ror ip
    a230:	0000ae38 	andeq	sl, r0, r8, lsr lr
    a234:	0000ac60 	andeq	sl, r0, r0, ror #24
    a238:	0000a6b8 			; <UNDEFINED> instruction: 0x0000a6b8
    a23c:	0000ad60 	andeq	sl, r0, r0, ror #26
    a240:	0000ad2c 	andeq	sl, r0, ip, lsr #26
    a244:	0000ad74 	andeq	sl, r0, r4, ror sp
    a248:	0000ae48 	andeq	sl, r0, r8, asr #28
    a24c:	0000adac 	andeq	sl, r0, ip, lsr #27
    a250:	0000ad80 	andeq	sl, r0, r0, lsl #27

0000a254 <kfree>:
    a254:	e12fff1e 	bx	lr

0000a258 <kfree_all>:
    a258:	e59f3008 	ldr	r3, [pc, #8]	; a268 <kfree_all+0x10>
    a25c:	e5932004 	ldr	r2, [r3, #4]
    a260:	e5832000 	str	r2, [r3]
    a264:	e12fff1e 	bx	lr
    a268:	0000ae60 	andeq	sl, r0, r0, ror #28

0000a26c <kfree_pop>:
    a26c:	e59f3048 	ldr	r3, [pc, #72]	; a2bc <kfree_pop+0x50>
    a270:	e5933004 	ldr	r3, [r3, #4]
    a274:	e1530000 	cmp	r3, r0
    a278:	8a000006 	bhi	a298 <kfree_pop+0x2c>
    a27c:	e59f3038 	ldr	r3, [pc, #56]	; a2bc <kfree_pop+0x50>
    a280:	e5933008 	ldr	r3, [r3, #8]
    a284:	e1530000 	cmp	r3, r0
    a288:	3a000002 	bcc	a298 <kfree_pop+0x2c>
    a28c:	e59f3028 	ldr	r3, [pc, #40]	; a2bc <kfree_pop+0x50>
    a290:	e5830000 	str	r0, [r3]
    a294:	e12fff1e 	bx	lr
    a298:	e52de004 	push	{lr}		; (str lr, [sp, #-4]!)
    a29c:	e24dd00c 	sub	sp, sp, #12, 0
    a2a0:	e58d0000 	str	r0, [sp]
    a2a4:	e3a03077 	mov	r3, #119, 0	; 0x77
    a2a8:	e59f2010 	ldr	r2, [pc, #16]	; a2c0 <kfree_pop+0x54>
    a2ac:	e59f1010 	ldr	r1, [pc, #16]	; a2c4 <kfree_pop+0x58>
    a2b0:	e59f0010 	ldr	r0, [pc, #16]	; a2c8 <kfree_pop+0x5c>
    a2b4:	ebfffb57 	bl	9018 <printk>
    a2b8:	ebfffde7 	bl	9a5c <clean_reboot>
    a2bc:	0000ae60 	andeq	sl, r0, r0, ror #28
    a2c0:	0000ae50 	andeq	sl, r0, r0, asr lr
    a2c4:	0000ac60 	andeq	sl, r0, r0, ror #24
    a2c8:	0000adc8 	andeq	sl, r0, r8, asr #27

0000a2cc <gpio_set_function>:
    a2cc:	e350001f 	cmp	r0, #31, 0
    a2d0:	812fff1e 	bxhi	lr
    a2d4:	e3d13007 	bics	r3, r1, #7, 0
    a2d8:	e92d4070 	push	{r4, r5, r6, lr}
    a2dc:	e1a05001 	mov	r5, r1
    a2e0:	18bd8070 	popne	{r4, r5, r6, pc}
    a2e4:	e59f403c 	ldr	r4, [pc, #60]	; a328 <gpio_set_function+0x5c>
    a2e8:	e0843094 	umull	r3, r4, r4, r0
    a2ec:	e1a041a4 	lsr	r4, r4, #3
    a2f0:	e2843302 	add	r3, r4, #134217728	; 0x8000000
    a2f4:	e2833702 	add	r3, r3, #524288	; 0x80000
    a2f8:	e1a06103 	lsl	r6, r3, #2
    a2fc:	e0844104 	add	r4, r4, r4, lsl #2
    a300:	e0404084 	sub	r4, r0, r4, lsl #1
    a304:	e1a00006 	mov	r0, r6
    a308:	ebfff747 	bl	802c <GET32>
    a30c:	e3a01007 	mov	r1, #7, 0
    a310:	e0844084 	add	r4, r4, r4, lsl #1
    a314:	e1c01411 	bic	r1, r0, r1, lsl r4
    a318:	e1811415 	orr	r1, r1, r5, lsl r4
    a31c:	e1a00006 	mov	r0, r6
    a320:	e8bd4070 	pop	{r4, r5, r6, lr}
    a324:	eafff73e 	b	8024 <PUT32>
    a328:	cccccccd 	stclgt	12, cr12, [ip], {205}	; 0xcd

0000a32c <gpio_set_output>:
    a32c:	e350001f 	cmp	r0, #31, 0
    a330:	812fff1e 	bxhi	lr
    a334:	e92d4070 	push	{r4, r5, r6, lr}
    a338:	e59f4040 	ldr	r4, [pc, #64]	; a380 <gpio_set_output+0x54>
    a33c:	e0843094 	umull	r3, r4, r4, r0
    a340:	e1a041a4 	lsr	r4, r4, #3
    a344:	e2843302 	add	r3, r4, #134217728	; 0x8000000
    a348:	e2833702 	add	r3, r3, #524288	; 0x80000
    a34c:	e1a05103 	lsl	r5, r3, #2
    a350:	e0844104 	add	r4, r4, r4, lsl #2
    a354:	e0404084 	sub	r4, r0, r4, lsl #1
    a358:	e1a00005 	mov	r0, r5
    a35c:	ebfff732 	bl	802c <GET32>
    a360:	e3a03007 	mov	r3, #7, 0
    a364:	e3a01001 	mov	r1, #1, 0
    a368:	e0844084 	add	r4, r4, r4, lsl #1
    a36c:	e1c03413 	bic	r3, r0, r3, lsl r4
    a370:	e1831411 	orr	r1, r3, r1, lsl r4
    a374:	e1a00005 	mov	r0, r5
    a378:	e8bd4070 	pop	{r4, r5, r6, lr}
    a37c:	eafff728 	b	8024 <PUT32>
    a380:	cccccccd 	stclgt	12, cr12, [ip], {205}	; 0xcd

0000a384 <gpio_set_on>:
    a384:	e1a03000 	mov	r3, r0
    a388:	e3a01001 	mov	r1, #1, 0
    a38c:	e59f0004 	ldr	r0, [pc, #4]	; a398 <gpio_set_on+0x14>
    a390:	e1a01311 	lsl	r1, r1, r3
    a394:	eafff722 	b	8024 <PUT32>
    a398:	2020001c 	eorcs	r0, r0, ip, lsl r0

0000a39c <gpio_set_off>:
    a39c:	e1a03000 	mov	r3, r0
    a3a0:	e3a01001 	mov	r1, #1, 0
    a3a4:	e59f0004 	ldr	r0, [pc, #4]	; a3b0 <gpio_set_off+0x14>
    a3a8:	e1a01311 	lsl	r1, r1, r3
    a3ac:	eafff71c 	b	8024 <PUT32>
    a3b0:	20200028 	eorcs	r0, r0, r8, lsr #32

0000a3b4 <gpio_set_input>:
    a3b4:	e350001f 	cmp	r0, #31, 0
    a3b8:	812fff1e 	bxhi	lr
    a3bc:	e92d4070 	push	{r4, r5, r6, lr}
    a3c0:	e59f5040 	ldr	r5, [pc, #64]	; a408 <gpio_set_input+0x54>
    a3c4:	e1a04000 	mov	r4, r0
    a3c8:	e0853095 	umull	r3, r5, r5, r0
    a3cc:	e1a051a5 	lsr	r5, r5, #3
    a3d0:	e2850302 	add	r0, r5, #134217728	; 0x8000000
    a3d4:	e2800702 	add	r0, r0, #524288	; 0x80000
    a3d8:	e1a06100 	lsl	r6, r0, #2
    a3dc:	e1a00006 	mov	r0, r6
    a3e0:	ebfff711 	bl	802c <GET32>
    a3e4:	e3a01007 	mov	r1, #7, 0
    a3e8:	e1a03000 	mov	r3, r0
    a3ec:	e0855105 	add	r5, r5, r5, lsl #2
    a3f0:	e0444085 	sub	r4, r4, r5, lsl #1
    a3f4:	e0844084 	add	r4, r4, r4, lsl #1
    a3f8:	e1a00006 	mov	r0, r6
    a3fc:	e1c31411 	bic	r1, r3, r1, lsl r4
    a400:	e8bd4070 	pop	{r4, r5, r6, lr}
    a404:	eafff706 	b	8024 <PUT32>
    a408:	cccccccd 	stclgt	12, cr12, [ip], {205}	; 0xcd

0000a40c <gpio_write>:
    a40c:	e3510000 	cmp	r1, #0, 0
    a410:	e3a03001 	mov	r3, #1, 0
    a414:	e1a01000 	mov	r1, r0
    a418:	0a000002 	beq	a428 <gpio_write+0x1c>
    a41c:	e59f0010 	ldr	r0, [pc, #16]	; a434 <gpio_write+0x28>
    a420:	e1a01113 	lsl	r1, r3, r1
    a424:	eafff6fe 	b	8024 <PUT32>
    a428:	e59f0008 	ldr	r0, [pc, #8]	; a438 <gpio_write+0x2c>
    a42c:	e1a01113 	lsl	r1, r3, r1
    a430:	eafff6fb 	b	8024 <PUT32>
    a434:	2020001c 	eorcs	r0, r0, ip, lsl r0
    a438:	20200028 	eorcs	r0, r0, r8, lsr #32

0000a43c <gpio_read>:
    a43c:	e92d4010 	push	{r4, lr}
    a440:	e1a04000 	mov	r4, r0
    a444:	e59f0014 	ldr	r0, [pc, #20]	; a460 <gpio_read+0x24>
    a448:	e08002a4 	add	r0, r0, r4, lsr #5
    a44c:	ebfff6f6 	bl	802c <GET32>
    a450:	e204401f 	and	r4, r4, #31, 0
    a454:	e1a00430 	lsr	r0, r0, r4
    a458:	e2000001 	and	r0, r0, #1, 0
    a45c:	e8bd8010 	pop	{r4, pc}
    a460:	20200034 	eorcs	r0, r0, r4, lsr r0

0000a464 <internal_putchar>:
    a464:	e92d4010 	push	{r4, lr}
    a468:	e1a04000 	mov	r4, r0
    a46c:	ebfffe84 	bl	9e84 <uart_putc>
    a470:	e1a00004 	mov	r0, r4
    a474:	e8bd8010 	pop	{r4, pc}

0000a478 <rpi_reset_putc>:
    a478:	e59f3008 	ldr	r3, [pc, #8]	; a488 <rpi_reset_putc+0x10>
    a47c:	e59f2008 	ldr	r2, [pc, #8]	; a48c <rpi_reset_putc+0x14>
    a480:	e5832000 	str	r2, [r3]
    a484:	e12fff1e 	bx	lr
    a488:	0000ae6c 	andeq	sl, r0, ip, ror #28
    a48c:	0000a464 	andeq	sl, r0, r4, ror #8

0000a490 <rpi_set_putc>:
    a490:	e59f3004 	ldr	r3, [pc, #4]	; a49c <rpi_set_putc+0xc>
    a494:	e5830000 	str	r0, [r3]
    a498:	e12fff1e 	bx	lr
    a49c:	0000ae6c 	andeq	sl, r0, ip, ror #28

0000a4a0 <strcat>:
    a4a0:	e1a02000 	mov	r2, r0
    a4a4:	e1a03002 	mov	r3, r2
    a4a8:	e4d2c001 	ldrb	ip, [r2], #1
    a4ac:	e35c0000 	cmp	ip, #0, 0
    a4b0:	1afffffb 	bne	a4a4 <strcat+0x4>
    a4b4:	e2433001 	sub	r3, r3, #1, 0
    a4b8:	e4d12001 	ldrb	r2, [r1], #1
    a4bc:	e3520000 	cmp	r2, #0, 0
    a4c0:	e5e32001 	strb	r2, [r3, #1]!
    a4c4:	1afffffb 	bne	a4b8 <strcat+0x18>
    a4c8:	e12fff1e 	bx	lr

0000a4cc <strcmp>:
    a4cc:	e5d03000 	ldrb	r3, [r0]
    a4d0:	e3530000 	cmp	r3, #0, 0
    a4d4:	05d12000 	ldrbeq	r2, [r1]
    a4d8:	1a000003 	bne	a4ec <strcmp+0x20>
    a4dc:	ea000006 	b	a4fc <strcmp+0x30>
    a4e0:	e5f03001 	ldrb	r3, [r0, #1]!
    a4e4:	e3530000 	cmp	r3, #0, 0
    a4e8:	0a000005 	beq	a504 <strcmp+0x38>
    a4ec:	e1a0c001 	mov	ip, r1
    a4f0:	e4d12001 	ldrb	r2, [r1], #1
    a4f4:	e1520003 	cmp	r2, r3
    a4f8:	0afffff8 	beq	a4e0 <strcmp+0x14>
    a4fc:	e0430002 	sub	r0, r3, r2
    a500:	e12fff1e 	bx	lr
    a504:	e5dc2001 	ldrb	r2, [ip, #1]
    a508:	e0430002 	sub	r0, r3, r2
    a50c:	e12fff1e 	bx	lr

0000a510 <strcpy>:
    a510:	e2402001 	sub	r2, r0, #1, 0
    a514:	e4d13001 	ldrb	r3, [r1], #1
    a518:	e3530000 	cmp	r3, #0, 0
    a51c:	e5e23001 	strb	r3, [r2, #1]!
    a520:	1afffffb 	bne	a514 <strcpy+0x4>
    a524:	e12fff1e 	bx	lr

0000a528 <strncmp>:
    a528:	e0802002 	add	r2, r0, r2
    a52c:	ea000003 	b	a540 <strncmp+0x18>
    a530:	e4d03001 	ldrb	r3, [r0], #1
    a534:	e4d1c001 	ldrb	ip, [r1], #1
    a538:	e153000c 	cmp	r3, ip
    a53c:	1a000003 	bne	a550 <strncmp+0x28>
    a540:	e1500002 	cmp	r0, r2
    a544:	1afffff9 	bne	a530 <strncmp+0x8>
    a548:	e3a00000 	mov	r0, #0, 0
    a54c:	e12fff1e 	bx	lr
    a550:	e043000c 	sub	r0, r3, ip
    a554:	e12fff1e 	bx	lr

0000a558 <reboot_callout>:
    a558:	e12fff1e 	bx	lr

0000a55c <dev_barrier>:
    a55c:	ea000002 	b	a56c <dsb>

0000a560 <dmb>:
    a560:	e3a00000 	mov	r0, #0, 0
    a564:	ee070fba 	mcr	15, 0, r0, cr7, cr10, {5}
    a568:	e12fff1e 	bx	lr

0000a56c <dsb>:
    a56c:	ee070f9a 	mcr	15, 0, r0, cr7, cr10, {4}
    a570:	e12fff1e 	bx	lr

0000a574 <__code_end__>:
    a574:	00000000 	andeq	r0, r0, r0

Disassembly of section .rodata:

0000a578 <__FUNCTION__.4028-0x88>:
    a578:	74736574 	ldrbtvc	r6, [r3], #-1396	; 0xfffffa8c
    a57c:	6d203a32 	vstmdbvs	r0!, {s6-s55}
    a580:	726f6d65 	rsbvc	r6, pc, #6464	; 0x1940
    a584:	766f2079 			; <UNDEFINED> instruction: 0x766f2079
    a588:	6c667265 	sfmvs	f7, 2, [r6], #-404	; 0xfffffe6c
    a58c:	6120776f 			; <UNDEFINED> instruction: 0x6120776f
    a590:	666f2074 			; <UNDEFINED> instruction: 0x666f2074
    a594:	74657366 	strbtvc	r7, [r5], #-870	; 0xfffffc9a
    a598:	000a3420 	andeq	r3, sl, r0, lsr #8
    a59c:	74736574 	ldrbtvc	r6, [r3], #-1396	; 0xfffffa8c
    a5a0:	2e322d73 	mrccs	13, 1, r2, cr2, cr3, {3}
    a5a4:	61702f30 	cmnvs	r0, r0, lsr pc
    a5a8:	2d317472 	cfldrscs	mvf7, [r1, #-456]!	; 0xfffffe38
    a5ac:	74736574 	ldrbtvc	r6, [r3], #-1396	; 0xfffffa8c
    a5b0:	75622d32 	strbvc	r2, [r2, #-3378]!	; 0xfffff2ce
    a5b4:	00632e67 	rsbeq	r2, r3, r7, ror #28
    a5b8:	494e4150 	stmdbmi	lr, {r4, r6, r8, lr}^
    a5bc:	73253a43 			; <UNDEFINED> instruction: 0x73253a43
    a5c0:	3a73253a 	bcc	1cd3ab0 <__bss_end__+0x1cc8818>
    a5c4:	733a6425 	teqvc	sl, #620756992	; 0x25000000
    a5c8:	6c756f68 	ldclvs	15, cr6, [r5], #-416	; 0xfffffe60
    a5cc:	6f6e2064 	svcvs	0x006e2064
    a5d0:	65672074 	strbvs	r2, [r7, #-116]!	; 0xffffff8c
    a5d4:	65682074 	strbvs	r2, [r8, #-116]!	; 0xffffff8c
    a5d8:	203a6572 	eorscs	r6, sl, r2, ror r5
    a5dc:	756f6873 	strbvc	r6, [pc, #-2163]!	; 9d71 <uart_init+0x5>
    a5e0:	6420646c 	strtvs	r6, [r0], #-1132	; 0xfffffb94
    a5e4:	63657465 	cmnvs	r5, #1694498816	; 0x65000000
    a5e8:	6e612074 	mcrvs	0, 3, r2, cr1, cr4, {3}
    a5ec:	72726520 	rsbsvc	r6, r2, #32, 10	; 0x8000000
    a5f0:	6920726f 	stmdbvs	r0!, {r0, r1, r2, r3, r5, r6, r9, ip, sp, lr}
    a5f4:	6b63206e 	blvs	18d27b4 <__bss_end__+0x18c751c>
    a5f8:	65657266 	strbvs	r7, [r5, #-614]!	; 0xfffffd9a
    a5fc:	00000a0a 	andeq	r0, r0, sl, lsl #20

0000a600 <__FUNCTION__.4028>:
    a600:	6d746f6e 	ldclvs	15, cr6, [r4, #-440]!	; 0xfffffe48
    a604:	006e6961 	rsbeq	r6, lr, r1, ror #18
    a608:	6e756f66 	cdpvs	15, 7, cr6, cr5, cr6, {3}
    a60c:	70252064 	eorvc	r2, r5, r4, rrx
    a610:	206e6920 	rsbcs	r6, lr, r0, lsr #18
    a614:	000a7025 	andeq	r7, sl, r5, lsr #32
    a618:	253a7325 	ldrcs	r7, [sl, #-805]!	; 0xfffffcdb
    a61c:	64253a73 	strtvs	r3, [r5], #-2675	; 0xfffff58d
    a620:	0000003a 	andeq	r0, r0, sl, lsr r0
    a624:	65657266 	strbvs	r7, [r5, #-614]!	; 0xfffffd9a
    a628:	20676e69 	rsbcs	r6, r7, r9, ror #28
    a62c:	0a702509 	beq	1c13a58 <__bss_end__+0x1c087c0>
    a630:	00000000 	andeq	r0, r0, r0
    a634:	5f434f4c 	svcpl	0x00434f4c
    a638:	494e4150 	stmdbmi	lr, {r4, r6, r8, lr}^
    a63c:	25203a43 	strcs	r3, [r0, #-2627]!	; 0xfffff5bd
    a640:	73253a73 			; <UNDEFINED> instruction: 0x73253a73
    a644:	3a64253a 	bcc	1913b34 <__bss_end__+0x190889c>
    a648:	00000000 	andeq	r0, r0, r0
    a64c:	65657266 	strbvs	r7, [r5, #-614]!	; 0xfffffd9a
    a650:	20676e69 	rsbcs	r6, r7, r9, ror #28
    a654:	6c616e75 	stclvs	14, cr6, [r1], #-468	; 0xfffffe2c
    a658:	61636f6c 	cmnvs	r3, ip, ror #30
    a65c:	20646574 	rsbcs	r6, r4, r4, ror r5
    a660:	6f6d656d 	svcvs	0x006d656d
    a664:	203a7972 	eorscs	r7, sl, r2, ror r9
    a668:	74617473 	strbtvc	r7, [r1], #-1139	; 0xfffffb8d
    a66c:	64253d65 	strtvs	r3, [r5], #-3429	; 0xfffff29b
    a670:	0000000a 	andeq	r0, r0, sl
    a674:	7a646572 	bvc	1923c44 <__bss_end__+0x19189ac>
    a678:	20656e6f 	rsbcs	r6, r5, pc, ror #28
    a67c:	77203123 	strvc	r3, [r0, -r3, lsr #2]!
    a680:	63207361 			; <UNDEFINED> instruction: 0x63207361
    a684:	7572726f 	ldrbvc	r7, [r2, #-623]!	; 0xfffffd91
    a688:	64657470 	strbtvs	r7, [r5], #-1136	; 0xfffffb90
    a68c:	00000a21 	andeq	r0, r0, r1, lsr #20
    a690:	7a646572 	bvc	1923c60 <__bss_end__+0x19189c8>
    a694:	20656e6f 	rsbcs	r6, r5, pc, ror #28
    a698:	77203223 	strvc	r3, [r0, -r3, lsr #4]!
    a69c:	63207361 			; <UNDEFINED> instruction: 0x63207361
    a6a0:	7572726f 	ldrbvc	r7, [r2, #-623]!	; 0xfffffd91
    a6a4:	64657470 	strbtvs	r7, [r5], #-1136	; 0xfffffb90
    a6a8:	00000a21 	andeq	r0, r0, r1, lsr #20
    a6ac:	6c616b63 			; <UNDEFINED> instruction: 0x6c616b63
    a6b0:	2e636f6c 	cdpcs	15, 6, cr6, cr3, cr12, {3}
    a6b4:	00000063 	andeq	r0, r0, r3, rrx
    a6b8:	494e4150 	stmdbmi	lr, {r4, r6, r8, lr}^
    a6bc:	73253a43 			; <UNDEFINED> instruction: 0x73253a43
    a6c0:	3a73253a 	bcc	1cd3bb0 <__bss_end__+0x1cc8918>
    a6c4:	253a6425 	ldrcs	r6, [sl, #-1061]!	; 0xfffffbdb
    a6c8:	00000a73 	andeq	r0, r0, r3, ror sl
    a6cc:	705f6b63 	subsvc	r6, pc, r3, ror #22
    a6d0:	695f7274 	ldmdbvs	pc, {r2, r4, r5, r6, r9, ip, sp, lr}^	; <UNPREDICTABLE>
    a6d4:	6c615f73 	stclvs	15, cr5, [r1], #-460	; 0xfffffe34
    a6d8:	65636f6c 	strbvs	r6, [r3, #-3948]!	; 0xfffff094
    a6dc:	64612864 	strbtvs	r2, [r1], #-2148	; 0xfffff79c
    a6e0:	00297264 	eoreq	r7, r9, r4, ror #4
    a6e4:	6f6c6c61 	svcvs	0x006c6c61
    a6e8:	69746163 	ldmdbvs	r4!, {r0, r1, r5, r6, r8, sp, lr}^
    a6ec:	2520676e 	strcs	r6, [r0, #-1902]!	; 0xfffff892
    a6f0:	25282070 	strcs	r2, [r8, #-112]!	; 0xffffff90
    a6f4:	79622064 	stmdbvc	r2!, {r2, r5, r6, sp}^
    a6f8:	29736574 	ldmdbcs	r3!, {r2, r4, r5, r6, r8, sl, sp, lr}^
    a6fc:	0000000a 	andeq	r0, r0, sl

0000a700 <__FUNCTION__.4081>:
    a700:	72666b63 	rsbvc	r6, r6, #101376	; 0x18c00
    a704:	00006565 	andeq	r6, r0, r5, ror #10
    a708:	75716552 	ldrbvc	r6, [r1, #-1362]!	; 0xfffffaae
    a70c:	74737265 	ldrbtvc	r7, [r3], #-613	; 0xfffffd9b
    a710:	20676e69 	rsbcs	r6, r7, r9, ror #28
    a714:	65726f6d 	ldrbvs	r6, [r2, #-3949]!	; 0xfffff093
    a718:	6d656d20 	stclvs	13, cr6, [r5, #-128]!	; 0xffffff80
    a71c:	2079726f 	rsbscs	r7, r9, pc, ror #4
    a720:	29642528 	stmdbcs	r4!, {r3, r5, r8, sl, sp}^
    a724:	0a2e2e2e 	beq	b95fe4 <__bss_end__+0xb8ad4c>
    a728:	00000000 	andeq	r0, r0, r0
    a72c:	672d6b63 	strvs	r6, [sp, -r3, ror #22]!
    a730:	00632e63 	rsbeq	r2, r3, r3, ror #28
    a734:	203c2070 	eorscs	r2, ip, r0, ror r0
    a738:	00000065 	andeq	r0, r0, r5, rrx
    a73c:	67696c61 	strbvs	r6, [r9, -r1, ror #24]!
    a740:	2864656e 	stmdacs	r4!, {r1, r2, r3, r5, r6, r8, sl, sp, lr}^
    a744:	34202c70 	strtcc	r2, [r0], #-3184	; 0xfffff390
    a748:	00000029 	andeq	r0, r0, r9, lsr #32
    a74c:	67696c61 	strbvs	r6, [r9, -r1, ror #24]!
    a750:	2864656e 	stmdacs	r4!, {r1, r2, r3, r5, r6, r8, sl, sp, lr}^
    a754:	34202c65 	strtcc	r2, [r0], #-3173	; 0xfffff39b
    a758:	00000029 	andeq	r0, r0, r9, lsr #32
    a75c:	6e696f67 	cdpvs	15, 6, cr6, cr9, cr7, {3}
    a760:	6f742067 	svcvs	0x00742067
    a764:	72616d20 	rsbvc	r6, r1, #32, 26	; 0x800
    a768:	7025206b 	eorvc	r2, r5, fp, rrx
    a76c:	20692820 	rsbcs	r2, r9, r0, lsr #16
    a770:	70252040 	eorvc	r2, r5, r0, asr #32
    a774:	25203d20 	strcs	r3, [r0, #-3360]!	; 0xfffff2e0
    a778:	202c2970 	eorcs	r2, ip, r0, ror r9
    a77c:	20707865 	rsbscs	r7, r0, r5, ror #16
    a780:	7025203d 	eorvc	r2, r5, sp, lsr r0
    a784:	0000000a 	andeq	r0, r0, sl
    a788:	6b72616d 	blvs	1ca2d44 <__bss_end__+0x1c97aac>
    a78c:	20676e69 	rsbcs	r6, r7, r9, ror #28
    a790:	25207361 	strcs	r7, [r0, #-865]!	; 0xfffffc9f
    a794:	00000a64 	andeq	r0, r0, r4, ror #20
    a798:	20746f6e 	rsbscs	r6, r4, lr, ror #30
    a79c:	6b72616d 	blvs	1ca2d58 <__bss_end__+0x1c97ac0>
    a7a0:	21676e69 	cmncs	r7, r9, ror #28
    a7a4:	0000000a 	andeq	r0, r0, sl
    a7a8:	63656863 	cmnvs	r5, #6488064	; 0x630000
    a7ac:	676e696b 	strbvs	r6, [lr, -fp, ror #18]!
    a7b0:	61747320 	cmnvs	r4, r0, lsr #6
    a7b4:	203a6b63 	eorscs	r6, sl, r3, ror #22
    a7b8:	74207025 	strtvc	r7, [r0], #-37	; 0xffffffdb
    a7bc:	7025206f 	eorvc	r2, r5, pc, rrx
    a7c0:	0000000a 	andeq	r0, r0, sl
    a7c4:	2d2d2d2d 	stccs	13, cr2, [sp, #-180]!	; 0xffffff4c
    a7c8:	2d2d2d2d 	stccs	13, cr2, [sp, #-180]!	; 0xffffff4c
    a7cc:	2d2d2d2d 	stccs	13, cr2, [sp, #-180]!	; 0xffffff4c
    a7d0:	2d2d2d2d 	stccs	13, cr2, [sp, #-180]!	; 0xffffff4c
    a7d4:	2d2d2d2d 	stccs	13, cr2, [sp, #-180]!	; 0xffffff4c
    a7d8:	2d2d2d2d 	stccs	13, cr2, [sp, #-180]!	; 0xffffff4c
    a7dc:	2d2d2d2d 	stccs	13, cr2, [sp, #-180]!	; 0xffffff4c
    a7e0:	2d2d2d2d 	stccs	13, cr2, [sp, #-180]!	; 0xffffff4c
    a7e4:	2d2d2d2d 	stccs	13, cr2, [sp, #-180]!	; 0xffffff4c
    a7e8:	2d2d2d2d 	stccs	13, cr2, [sp, #-180]!	; 0xffffff4c
    a7ec:	2d2d2d2d 	stccs	13, cr2, [sp, #-180]!	; 0xffffff4c
    a7f0:	2d2d2d2d 	stccs	13, cr2, [sp, #-180]!	; 0xffffff4c
    a7f4:	2d2d2d2d 	stccs	13, cr2, [sp, #-180]!	; 0xffffff4c
    a7f8:	2d2d2d2d 	stccs	13, cr2, [sp, #-180]!	; 0xffffff4c
    a7fc:	00000a2d 	andeq	r0, r0, sp, lsr #20
    a800:	63656863 	cmnvs	r5, #6488064	; 0x630000
    a804:	676e696b 	strbvs	r6, [lr, -fp, ror #18]!
    a808:	726f6620 	rsbvc	r6, pc, #32, 12	; 0x2000000
    a80c:	61656c20 	cmnvs	r5, r0, lsr #24
    a810:	0a3a736b 	beq	ea75c4 <__bss_end__+0xe9c32c>
    a814:	00000000 	andeq	r0, r0, r0
    a818:	4c3a4347 	ldcmi	3, cr4, [sl], #-284	; 0xfffffee4
    a81c:	2054534f 	subscs	r5, r4, pc, asr #6
    a820:	2d206425 	cfstrscs	mvf6, [r0, #-148]!	; 0xffffff6c
    a824:	7025203e 	eorvc	r2, r5, lr, lsr r0
    a828:	0000000a 	andeq	r0, r0, sl
    a82c:	4d3a4347 	ldcmi	3, cr4, [sl, #-284]!	; 0xfffffee4
    a830:	45425941 	strbmi	r5, [r2, #-2369]	; 0xfffff6bf
    a834:	534f4c20 	movtpl	r4, #64544	; 0xfc20
    a838:	64252054 	strtvs	r2, [r5], #-84	; 0xffffffac
    a83c:	203e2d20 	eorscs	r2, lr, r0, lsr #26
    a840:	000a7025 	andeq	r7, sl, r5, lsr #32
    a844:	43415254 	movtmi	r5, #4692	; 0x1254
    a848:	47093a45 	strmi	r3, [r9, -r5, asr #20]
    a84c:	68433a43 	stmdavs	r3, {r0, r1, r6, r9, fp, ip, sp}^
    a850:	656b6365 	strbvs	r6, [fp, #-869]!	; 0xfffffc9b
    a854:	64252064 	strtvs	r2, [r5], #-100	; 0xffffff9c
    a858:	6f6c6220 	svcvs	0x006c6220
    a85c:	2e736b63 	vsubcs.f64	d22, d3, d19
    a860:	0000000a 	andeq	r0, r0, sl
    a864:	43415254 	movtmi	r5, #4692	; 0x1254
    a868:	09093a45 	stmdbeq	r9, {r0, r2, r6, r9, fp, ip, sp}
    a86c:	533a4347 	teqpl	sl, #469762049	; 0x1c000001
    a870:	45434355 	strbmi	r4, [r3, #-853]	; 0xfffffcab
    a874:	203a5353 	eorscs	r5, sl, r3, asr r3
    a878:	6c206f4e 	stcvs	15, cr6, [r0], #-312	; 0xfffffec8
    a87c:	736b6165 	cmnvc	fp, #1073741849	; 0x40000019
    a880:	756f6620 	strbvc	r6, [pc, #-1568]!	; a268 <kfree_all+0x10>
    a884:	0a21646e 	beq	863a44 <__bss_end__+0x8587ac>
    a888:	00000000 	andeq	r0, r0, r0
    a88c:	43415254 	movtmi	r5, #4692	; 0x1254
    a890:	09093a45 	stmdbeq	r9, {r0, r2, r6, r9, fp, ip, sp}
    a894:	453a4347 	ldrmi	r4, [sl, #-839]!	; 0xfffffcb9
    a898:	524f5252 	subpl	r5, pc, #536870917	; 0x20000005
    a89c:	25203a53 	strcs	r3, [r0, #-2643]!	; 0xfffff5ad
    a8a0:	72652064 	rsbvc	r2, r5, #100, 0	; 0x64
    a8a4:	73726f72 	cmnvc	r2, #456	; 0x1c8
    a8a8:	6425202c 	strtvs	r2, [r5], #-44	; 0xffffffd4
    a8ac:	79616d20 	stmdbvc	r1!, {r5, r8, sl, fp, sp, lr}^
    a8b0:	655f6562 	ldrbvs	r6, [pc, #-1378]	; a356 <gpio_set_output+0x2a>
    a8b4:	726f7272 	rsbvc	r7, pc, #536870919	; 0x20000007
    a8b8:	00000a73 	andeq	r0, r0, r3, ror sl
    a8bc:	2d2d2d2d 	stccs	13, cr2, [sp, #-180]!	; 0xffffff4c
    a8c0:	2d2d2d2d 	stccs	13, cr2, [sp, #-180]!	; 0xffffff4c
    a8c4:	2d2d2d2d 	stccs	13, cr2, [sp, #-180]!	; 0xffffff4c
    a8c8:	2d2d2d2d 	stccs	13, cr2, [sp, #-180]!	; 0xffffff4c
    a8cc:	2d2d2d2d 	stccs	13, cr2, [sp, #-180]!	; 0xffffff4c
    a8d0:	2d2d2d2d 	stccs	13, cr2, [sp, #-180]!	; 0xffffff4c
    a8d4:	2d2d2d2d 	stccs	13, cr2, [sp, #-180]!	; 0xffffff4c
    a8d8:	2d2d2d2d 	stccs	13, cr2, [sp, #-180]!	; 0xffffff4c
    a8dc:	2d2d2d2d 	stccs	13, cr2, [sp, #-180]!	; 0xffffff4c
    a8e0:	2d2d2d2d 	stccs	13, cr2, [sp, #-180]!	; 0xffffff4c
    a8e4:	2d2d2d2d 	stccs	13, cr2, [sp, #-180]!	; 0xffffff4c
    a8e8:	2d2d2d2d 	stccs	13, cr2, [sp, #-180]!	; 0xffffff4c
    a8ec:	2d2d2d2d 	stccs	13, cr2, [sp, #-180]!	; 0xffffff4c
    a8f0:	2d2d2d2d 	stccs	13, cr2, [sp, #-180]!	; 0xffffff4c
    a8f4:	000a2d2d 	andeq	r2, sl, sp, lsr #26
    a8f8:	706d6f63 	rsbvc	r6, sp, r3, ror #30
    a8fc:	69746361 	ldmdbvs	r4!, {r0, r5, r6, r8, r9, sp, lr}^
    a900:	0a3a676e 	beq	ea46c0 <__bss_end__+0xe99428>
    a904:	00000000 	andeq	r0, r0, r0
    a908:	463a4347 	ldrtmi	r4, [sl], -r7, asr #6
    a90c:	44454552 	strbmi	r4, [r5], #-1362	; 0xfffffaae
    a910:	0a702520 	beq	1c13d98 <__bss_end__+0x1c08b00>
    a914:	00000000 	andeq	r0, r0, r0
    a918:	43415254 	movtmi	r5, #4692	; 0x1254
    a91c:	47093a45 	strmi	r3, [r9, -r5, asr #20]
    a920:	68433a43 	stmdavs	r3, {r0, r1, r6, r9, fp, ip, sp}^
    a924:	656b6365 	strbvs	r6, [fp, #-869]!	; 0xfffffc9b
    a928:	64252064 	strtvs	r2, [r5], #-100	; 0xffffff9c
    a92c:	6f6c6220 	svcvs	0x006c6220
    a930:	2c736b63 			; <UNDEFINED> instruction: 0x2c736b63
    a934:	65726620 	ldrbvs	r6, [r2, #-1568]!	; 0xfffff9e0
    a938:	25206465 	strcs	r6, [r0, #-1125]!	; 0xfffffb9b
    a93c:	25202c64 	strcs	r2, [r0, #-3172]!	; 0xfffff39c
    a940:	79622064 	stmdbvc	r2!, {r2, r5, r6, sp}^
    a944:	0a736574 	beq	1ce3f1c <__bss_end__+0x1cd8c84>
    a948:	00000000 	andeq	r0, r0, r0
    a94c:	72636e69 	rsbvc	r6, r3, #1680	; 0x690
    a950:	6e656d65 	cdpvs	13, 6, cr6, cr5, cr5, {3}
    a954:	203e2074 	eorscs	r2, lr, r4, ror r0
    a958:	00000030 	andeq	r0, r0, r0, lsr r0
    a95c:	494e4150 	stmdbmi	lr, {r4, r6, r8, lr}^
    a960:	73253a43 			; <UNDEFINED> instruction: 0x73253a43
    a964:	3a73253a 	bcc	1cd3e54 <__bss_end__+0x1cc8bbc>
    a968:	6e3a6425 	cdpvs	4, 3, cr6, cr10, cr5, {1}
    a96c:	6820746f 	stmdavs	r0!, {r0, r1, r2, r3, r5, r6, sl, ip, sp, lr}
    a970:	6c646e61 	stclvs	14, cr6, [r4], #-388	; 0xfffffe7c
    a974:	0a676e69 	beq	19e6320 <__bss_end__+0x19db088>
    a978:	0000000a 	andeq	r0, r0, sl
    a97c:	73696874 	cmnvc	r9, #116, 16	; 0x740000
    a980:	6c6c6120 	stfvse	f6, [ip], #-128	; 0xffffff80
    a984:	7461636f 	strbtvc	r6, [r1], #-879	; 0xfffffc91
    a988:	276e6f69 	strbcs	r6, [lr, -r9, ror #30]!
    a98c:	65722073 	ldrbvs	r2, [r2, #-115]!	; 0xffffff8d
    a990:	6e6f7a64 	vnmulvs.f32	s15, s30, s9
    a994:	77207365 	strvc	r7, [r0, -r5, ror #6]!
    a998:	20657265 	rsbcs	r7, r5, r5, ror #4
    a99c:	74697277 	strbtvc	r7, [r9], #-631	; 0xfffffd89
    a9a0:	206e6574 	rsbcs	r6, lr, r4, ror r5
    a9a4:	0a216f74 	beq	86677c <__bss_end__+0x85b4e4>
    a9a8:	00000000 	andeq	r0, r0, r0
    a9ac:	20736177 	rsbscs	r6, r3, r7, ror r1
    a9b0:	64657375 	strbtvs	r7, [r5], #-885	; 0xfffffc8b
    a9b4:	74666120 	strbtvc	r6, [r6], #-288	; 0xfffffee0
    a9b8:	66207265 	strtvs	r7, [r0], -r5, ror #4
    a9bc:	21656572 	smccs	22098	; 0x5652
    a9c0:	0000000a 	andeq	r0, r0, sl
    a9c4:	494e4150 	stmdbmi	lr, {r4, r6, r8, lr}^
    a9c8:	73253a43 			; <UNDEFINED> instruction: 0x73253a43
    a9cc:	3a73253a 	bcc	1cd3ebc <__bss_end__+0x1cc8c24>
    a9d0:	473a6425 	ldrmi	r6, [sl, -r5, lsr #8]!
    a9d4:	73203a43 			; <UNDEFINED> instruction: 0x73203a43
    a9d8:	6c756f68 	ldclvs	15, cr6, [r5], #-416	; 0xfffffe60
    a9dc:	61682064 	cmnvs	r8, r4, rrx
    a9e0:	6e206576 	mcrvs	5, 1, r6, cr0, cr6, {3}
    a9e4:	656c206f 	strbvs	r2, [ip, #-111]!	; 0xffffff91
    a9e8:	21736b61 	cmncs	r3, r1, ror #22
    a9ec:	00000a0a 	andeq	r0, r0, sl, lsl #20
    a9f0:	43415254 	movtmi	r5, #4692	; 0x1254
    a9f4:	43473a45 	movtmi	r3, #31301	; 0x7a45
    a9f8:	5553203a 	ldrbpl	r2, [r3, #-58]	; 0xffffffc6
    a9fc:	53454343 	movtpl	r4, #21315	; 0x5343
    aa00:	6e203a53 			; <UNDEFINED> instruction: 0x6e203a53
    aa04:	656c206f 	strbvs	r2, [ip, #-111]!	; 0xffffff91
    aa08:	21736b61 	cmncs	r3, r1, ror #22
    aa0c:	0000000a 	andeq	r0, r0, sl
    aa10:	494e4150 	stmdbmi	lr, {r4, r6, r8, lr}^
    aa14:	73253a43 			; <UNDEFINED> instruction: 0x73253a43
    aa18:	3a73253a 	bcc	1cd3f08 <__bss_end__+0x1cc8c70>
    aa1c:	473a6425 	ldrmi	r6, [sl, -r5, lsr #8]!
    aa20:	73203a43 			; <UNDEFINED> instruction: 0x73203a43
    aa24:	6c756f68 	ldclvs	15, cr6, [r5], #-416	; 0xfffffe60
    aa28:	61682064 	cmnvs	r8, r4, rrx
    aa2c:	6c206576 	cfstr32vs	mvfx6, [r0], #-472	; 0xfffffe28
    aa30:	736b6165 	cmnvc	fp, #1073741849	; 0x40000019
    aa34:	000a0a21 	andeq	r0, sl, r1, lsr #20
    aa38:	43415254 	movtmi	r5, #4692	; 0x1254
    aa3c:	43473a45 	movtmi	r3, #31301	; 0x7a45
    aa40:	5553203a 	ldrbpl	r2, [r3, #-58]	; 0xffffffc6
    aa44:	53454343 	movtpl	r4, #21315	; 0x5343
    aa48:	66203a53 			; <UNDEFINED> instruction: 0x66203a53
    aa4c:	646e756f 	strbtvs	r7, [lr], #-1391	; 0xfffffa91
    aa50:	20642520 	rsbcs	r2, r4, r0, lsr #10
    aa54:	6b61656c 	blvs	186400c <__bss_end__+0x1858d74>
    aa58:	000a2173 	andeq	r2, sl, r3, ror r1
    aa5c:	494e4150 	stmdbmi	lr, {r4, r6, r8, lr}^
    aa60:	73253a43 			; <UNDEFINED> instruction: 0x73253a43
    aa64:	3a73253a 	bcc	1cd3f54 <__bss_end__+0x1cc8cbc>
    aa68:	643a6425 	ldrtvs	r6, [sl], #-1061	; 0xfffffbdb
    aa6c:	6e206469 	cdpvs	4, 2, cr6, cr0, cr9, {3}
    aa70:	6920746f 	stmdbvs	r0!, {r0, r1, r2, r3, r5, r6, sl, ip, sp, lr}
    aa74:	656c706d 	strbvs	r7, [ip, #-109]!	; 0xffffff93
    aa78:	746e656d 	strbtvc	r6, [lr], #-1389	; 0xfffffa93
    aa7c:	6d756420 	cfldrdvs	mvd6, [r5, #-128]!	; 0xffffff80
    aa80:	65725f70 	ldrbvs	r5, [r2, #-3952]!	; 0xfffff090
    aa84:	0a217367 	beq	867828 <__bss_end__+0x85c590>
    aa88:	0000000a 	andeq	r0, r0, sl

0000aa8c <__FUNCTION__.4049>:
    aa8c:	6b72616d 	blvs	1ca3048 <__bss_end__+0x1c97db0>
    aa90:	00000000 	andeq	r0, r0, r0

0000aa94 <__FUNCTION__.4123>:
    aa94:	65657773 	strbvs	r7, [r5, #-1907]!	; 0xfffff88d
    aa98:	72665f70 	rsbvc	r5, r6, #112, 30	; 0x1c0
    aa9c:	00006565 	andeq	r6, r0, r5, ror #10

0000aaa0 <__FUNCTION__.4036>:
    aaa0:	6b726273 	blvs	1ca3474 <__bss_end__+0x1c981dc>
    aaa4:	00000000 	andeq	r0, r0, r0

0000aaa8 <__FUNCTION__.4110>:
    aaa8:	63656863 	cmnvs	r5, #6488064	; 0x630000
    aaac:	6f6e5f6b 	svcvs	0x006e5f6b
    aab0:	61656c5f 	cmnvs	r5, pc, asr ip
    aab4:	0000006b 	andeq	r0, r0, fp, rrx

0000aab8 <__FUNCTION__.4115>:
    aab8:	63656863 	cmnvs	r5, #6488064	; 0x630000
    aabc:	68735f6b 	ldmdavs	r3!, {r0, r1, r3, r5, r6, r8, r9, sl, fp, ip, lr}^
    aac0:	646c756f 	strbtvs	r7, [ip], #-1391	; 0xfffffa91
    aac4:	61656c5f 	cmnvs	r5, pc, asr ip
    aac8:	0000006b 	andeq	r0, r0, fp, rrx

0000aacc <__FUNCTION__.4134>:
    aacc:	6c706d69 	ldclvs	13, cr6, [r0], #-420	; 0xfffffe5c
    aad0:	6e656d65 	cdpvs	13, 6, cr6, cr5, cr5, {3}
    aad4:	68745f74 	ldmdavs	r4!, {r2, r4, r5, r6, r8, r9, sl, fp, ip, lr}^
    aad8:	00007369 	andeq	r7, r0, r9, ror #6
    aadc:	003f3f3f 	eorseq	r3, pc, pc, lsr pc	; <UNPREDICTABLE>
    aae0:	20642523 	rsbcs	r2, r4, r3, lsr #10
    aae4:	28207825 	stmdacs	r0!, {r0, r2, r5, fp, ip, sp, lr}
    aae8:	0a297325 	beq	a67784 <__bss_end__+0xa5c4ec>
    aaec:	00000000 	andeq	r0, r0, r0
    aaf0:	696c2f2e 	stmdbvs	ip!, {r1, r2, r3, r5, r8, r9, sl, fp, sp}^
    aaf4:	762f6362 	strtvc	r6, [pc], -r2, ror #6
    aaf8:	72702d61 	rsbsvc	r2, r0, #6208	; 0x1840
    aafc:	6b746e69 	blvs	1d264a8 <__bss_end__+0x1d1b210>
    ab00:	0000632e 	andeq	r6, r0, lr, lsr #6
    ab04:	33323130 	teqcc	r2, #12
    ab08:	37363534 			; <UNDEFINED> instruction: 0x37363534
    ab0c:	62613938 	rsbvs	r3, r1, #56, 18	; 0xe0000
    ab10:	66656463 	strbtvs	r6, [r5], -r3, ror #8
    ab14:	00000000 	andeq	r0, r0, r0
    ab18:	00003130 	andeq	r3, r0, r0, lsr r1
    ab1c:	33323130 	teqcc	r2, #12
    ab20:	37363534 			; <UNDEFINED> instruction: 0x37363534
    ab24:	00003938 	andeq	r3, r0, r8, lsr r9
    ab28:	63747570 	cmnvs	r4, #112, 10	; 0x1c000000
    ab2c:	0070665f 	rsbseq	r6, r0, pc, asr r6
    ab30:	74646977 	strbtvc	r6, [r4], #-2423	; 0xfffff689
    ab34:	203c2068 	eorscs	r2, ip, r8, rrx
    ab38:	00003233 	andeq	r3, r0, r3, lsr r2
    ab3c:	00786c6c 	rsbseq	r6, r8, ip, ror #24
    ab40:	253d3078 	ldrcs	r3, [sp, #-120]!	; 0xffffff88
    ab44:	00000a78 	andeq	r0, r0, r8, ror sl
    ab48:	253d3178 	ldrcs	r3, [sp, #-376]!	; 0xfffffe88
    ab4c:	00000a78 	andeq	r0, r0, r8, ror sl
    ab50:	00646c6c 	rsbeq	r6, r4, ip, ror #24
    ab54:	6e727473 	mrcvs	4, 3, r7, cr2, cr3, {3}
    ab58:	28706d63 	ldmdacs	r0!, {r0, r1, r5, r6, r8, sl, fp, sp, lr}^
    ab5c:	202c7974 	eorcs	r7, ip, r4, ror r9
    ab60:	786c6c22 	stmdavc	ip!, {r1, r5, sl, fp, sp, lr}^
    ab64:	33202c22 			; <UNDEFINED> instruction: 0x33202c22
    ab68:	3d3d2029 	ldccc	0, cr2, [sp, #-164]!	; 0xffffff5c
    ab6c:	7c203020 	stcvc	0, cr3, [r0], #-128	; 0xffffff80
    ab70:	7473207c 	ldrbtvc	r2, [r3], #-124	; 0xffffff84
    ab74:	6d636e72 	stclvs	14, cr6, [r3, #-456]!	; 0xfffffe38
    ab78:	79742870 	ldmdbvc	r4!, {r4, r5, r6, fp, sp}^
    ab7c:	6c22202c 	stcvs	0, cr2, [r2], #-176	; 0xffffff50
    ab80:	2c22646c 	cfstrscs	mvf6, [r2], #-432	; 0xfffffe50
    ab84:	20293320 	eorcs	r3, r9, r0, lsr #6
    ab88:	30203d3d 	eorcc	r3, r0, sp, lsr sp
    ab8c:	00000000 	andeq	r0, r0, r0
    ab90:	494e4150 	stmdbmi	lr, {r4, r6, r8, lr}^
    ab94:	73253a43 			; <UNDEFINED> instruction: 0x73253a43
    ab98:	3a73253a 	bcc	1cd4088 <__bss_end__+0x1cc8df0>
    ab9c:	693a6425 	ldmdbvs	sl!, {r0, r2, r5, sl, sp, lr}
    aba0:	736f706d 	cmnvc	pc, #109, 0	; 0x6d
    aba4:	6c626973 			; <UNDEFINED> instruction: 0x6c626973
    aba8:	66203a65 	strtvs	r3, [r0], -r5, ror #20
    abac:	3c3d746d 	cfldrscc	mvf7, [sp], #-436	; 0xfffffe4c
    abb0:	0a3e7325 	beq	fa784c <__bss_end__+0xf9c5b4>
    abb4:	0000000a 	andeq	r0, r0, sl
    abb8:	494e4150 	stmdbmi	lr, {r4, r6, r8, lr}^
    abbc:	73253a43 			; <UNDEFINED> instruction: 0x73253a43
    abc0:	3a73253a 	bcc	1cd40b0 <__bss_end__+0x1cc8e18>
    abc4:	663a6425 	ldrtvs	r6, [sl], -r5, lsr #8
    abc8:	74616f6c 	strbtvc	r6, [r1], #-3948	; 0xfffff094
    abcc:	746f6e20 	strbtvc	r6, [pc], #-3616	; abd4 <__FUNCTION__.4134+0x108>
    abd0:	616e6520 	cmnvs	lr, r0, lsr #10
    abd4:	64656c62 	strbtvs	r6, [r5], #-3170	; 0xfffff39e
    abd8:	0a212121 	beq	853064 <__bss_end__+0x847dcc>
    abdc:	00000000 	andeq	r0, r0, r0
    abe0:	6e697270 	mcrvs	2, 3, r7, cr9, cr0, {3}
    abe4:	203a6b74 	eorscs	r6, sl, r4, ror fp
    abe8:	20746f6e 	rsbscs	r6, r4, lr, ror #30
    abec:	646e6168 	strbtvs	r6, [lr], #-360	; 0xfffffe98
    abf0:	676e696c 	strbvs	r6, [lr, -ip, ror #18]!
    abf4:	65707320 	ldrbvs	r7, [r0, #-800]!	; 0xfffffce0
    abf8:	69666963 	stmdbvs	r6!, {r0, r1, r5, r6, r8, fp, sp, lr}^
    abfc:	27207265 	strcs	r7, [r0, -r5, ror #4]!
    ac00:	20276325 	eorcs	r6, r7, r5, lsr #6
    ac04:	63736128 	cmnvs	r3, #10
    ac08:	253d6969 	ldrcs	r6, [sp, #-2409]!	; 0xfffff697
    ac0c:	000a2964 	andeq	r2, sl, r4, ror #18
    ac10:	494e4150 	stmdbmi	lr, {r4, r6, r8, lr}^
    ac14:	73253a43 			; <UNDEFINED> instruction: 0x73253a43
    ac18:	3a73253a 	bcc	1cd4108 <__bss_end__+0x1cc8e70>
    ac1c:	703a6425 	eorsvc	r6, sl, r5, lsr #8
    ac20:	746e6972 	strbtvc	r6, [lr], #-2418	; 0xfffff68e
    ac24:	7265206b 	rsbvc	r2, r5, #107, 0	; 0x6b
    ac28:	0a726f72 	beq	1ca69f8 <__bss_end__+0x1c9b760>
    ac2c:	0000000a 	andeq	r0, r0, sl

0000ac30 <__FUNCTION__.4004>:
    ac30:	74696d65 	strbtvc	r6, [r9], #-3429	; 0xfffff29b
    ac34:	00000000 	andeq	r0, r0, r0

0000ac38 <__FUNCTION__.3952>:
    ac38:	5f697072 	svcpl	0x00697072
    ac3c:	5f746573 	svcpl	0x00746573
    ac40:	7074756f 	rsbsvc	r7, r4, pc, ror #10
    ac44:	00007475 	andeq	r7, r0, r5, ror r4

0000ac48 <__FUNCTION__.4030>:
    ac48:	705f6176 	subsvc	r6, pc, r6, ror r1	; <UNPREDICTABLE>
    ac4c:	746e6972 	strbtvc	r6, [lr], #-2418	; 0xfffff68e
    ac50:	0000006b 	andeq	r0, r0, fp, rrx
    ac54:	454e4f44 	strbmi	r4, [lr, #-3908]	; 0xfffff0bc
    ac58:	0a212121 	beq	8530e4 <__bss_end__+0x847e4c>
    ac5c:	00000000 	andeq	r0, r0, r0
    ac60:	6c616d6b 	stclvs	13, cr6, [r1], #-428	; 0xfffffe54
    ac64:	2e636f6c 	cdpcs	15, 6, cr6, cr3, cr12, {3}
    ac68:	00000063 	andeq	r0, r0, r3, rrx
    ac6c:	5f78616d 	svcpl	0x0078616d
    ac70:	7479626e 	ldrbtvc	r6, [r9], #-622	; 0xfffffd92
    ac74:	00007365 	andeq	r7, r0, r5, ror #6
    ac78:	494e4150 	stmdbmi	lr, {r4, r6, r8, lr}^
    ac7c:	73253a43 			; <UNDEFINED> instruction: 0x73253a43
    ac80:	3a73253a 	bcc	1cd4170 <__bss_end__+0x1cc8ed8>
    ac84:	733a6425 	teqvc	sl, #620756992	; 0x25000000
    ac88:	69747465 	ldmdbvs	r4!, {r0, r2, r5, r6, sl, ip, sp, lr}^
    ac8c:	6820676e 	stmdavs	r0!, {r1, r2, r3, r5, r6, r8, r9, sl, sp, lr}
    ac90:	20706165 	rsbscs	r6, r0, r5, ror #2
    ac94:	25206f74 	strcs	r6, [r0, #-3956]!	; 0xfffff08c
    ac98:	77203a70 			; <UNDEFINED> instruction: 0x77203a70
    ac9c:	206c6c69 	rsbcs	r6, ip, r9, ror #24
    aca0:	20746968 	rsbscs	r6, r4, r8, ror #18
    aca4:	20656874 	rsbcs	r6, r5, r4, ror r8
    aca8:	20646c6f 	rsbcs	r6, r4, pc, ror #24
    acac:	70616568 	rsbvc	r6, r1, r8, ror #10
    acb0:	20746120 	rsbscs	r6, r4, r0, lsr #2
    acb4:	0a0a7025 	beq	2a6d50 <__bss_end__+0x29bab8>
    acb8:	00000000 	andeq	r0, r0, r0
    acbc:	494e4150 	stmdbmi	lr, {r4, r6, r8, lr}^
    acc0:	73253a43 			; <UNDEFINED> instruction: 0x73253a43
    acc4:	3a73253a 	bcc	1cd41b4 <__bss_end__+0x1cc8f1c>
    acc8:	613a6425 	teqvs	sl, r5, lsr #8
    accc:	6165726c 	cmnvs	r5, ip, ror #4
    acd0:	63207964 			; <UNDEFINED> instruction: 0x63207964
    acd4:	656c6c61 	strbvs	r6, [ip, #-3169]!	; 0xfffff39f
    acd8:	6d6b2064 	stclvs	0, cr2, [fp, #-400]!	; 0xfffffe70
    acdc:	6f6c6c61 	svcvs	0x006c6c61
    ace0:	6e695f63 	cdpvs	15, 6, cr5, cr9, cr3, {3}
    ace4:	0a0a7469 	beq	2a7e90 <__bss_end__+0x29cbf8>
    ace8:	00000000 	andeq	r0, r0, r0
    acec:	494e4150 	stmdbmi	lr, {r4, r6, r8, lr}^
    acf0:	73253a43 			; <UNDEFINED> instruction: 0x73253a43
    acf4:	3a73253a 	bcc	1cd41e4 <__bss_end__+0x1cc8f4c>
    acf8:	253a6425 	ldrcs	r6, [sl, #-1061]!	; 0xfffffbdb
    acfc:	626e2064 	rsbvs	r2, lr, #100, 0	; 0x64
    ad00:	73657479 	cmnvc	r5, #2030043136	; 0x79000000
    ad04:	63786520 	cmnvs	r8, #32, 10	; 0x8000000
    ad08:	65646565 	strbvs	r6, [r4, #-1381]!	; 0xfffffa9b
    ad0c:	69732064 	ldmdbvs	r3!, {r2, r5, r6, sp}^
    ad10:	6f20657a 	svcvs	0x0020657a
    ad14:	65682066 	strbvs	r2, [r8, #-102]!	; 0xffffff9a
    ad18:	62207061 	eorvs	r7, r0, #97, 0	; 0x61
    ad1c:	75252079 	strvc	r2, [r5, #-121]!	; 0xffffff87
    ad20:	79626e20 	stmdbvc	r2!, {r5, r9, sl, fp, sp, lr}^
    ad24:	0a736574 	beq	1ce42fc <__bss_end__+0x1cd9064>
    ad28:	0000000a 	andeq	r0, r0, sl
    ad2c:	4f525245 	svcmi	0x00525245
    ad30:	73253a52 			; <UNDEFINED> instruction: 0x73253a52
    ad34:	3a73253a 	bcc	1cd4224 <__bss_end__+0x1cc8f8c>
    ad38:	203a6425 	eorscs	r6, sl, r5, lsr #8
    ad3c:	534c4146 	movtpl	r4, #49478	; 0xc146
    ad40:	253c2845 	ldrcs	r2, [ip, #-2117]!	; 0xfffff7bb
    ad44:	3a293e73 	bcc	a5a718 <__bss_end__+0xa4f480>
    ad48:	73736120 	cmnvc	r3, #8
    ad4c:	6e696d75 	mcrvs	13, 3, r6, cr9, cr5, {3}
    ad50:	6f702067 	svcvs	0x00702067
    ad54:	20726577 	rsbscs	r6, r2, r7, ror r5
    ad58:	7420666f 	strtvc	r6, [r0], #-1647	; 0xfffff991
    ad5c:	000a6f77 	andeq	r6, sl, r7, ror pc
    ad60:	705f7369 	subsvc	r7, pc, r9, ror #6
    ad64:	2832776f 	ldmdacs	r2!, {r0, r1, r2, r3, r5, r6, r8, r9, sl, ip, sp, lr}
    ad68:	67696c61 	strbvs	r6, [r9, -r1, ror #24]!
    ad6c:	6e656d6e 	cdpvs	13, 6, cr6, cr5, cr14, {3}
    ad70:	00002974 	andeq	r2, r0, r4, ror r9
    ad74:	705f7369 	subsvc	r7, pc, r9, ror #6
    ad78:	2832776f 	ldmdacs	r2!, {r0, r1, r2, r3, r5, r6, r8, r9, sl, ip, sp, lr}
    ad7c:	0000296e 	andeq	r2, r0, lr, ror #18
    ad80:	4f525245 	svcmi	0x00525245
    ad84:	73253a52 			; <UNDEFINED> instruction: 0x73253a52
    ad88:	3a73253a 	bcc	1cd4278 <__bss_end__+0x1cc8fe0>
    ad8c:	203a6425 	eorscs	r6, sl, r5, lsr #8
    ad90:	534c4146 	movtpl	r4, #49478	; 0xc146
    ad94:	253c2845 	ldrcs	r2, [ip, #-2117]!	; 0xfffff7bb
    ad98:	3a293e73 	bcc	a5a76c <__bss_end__+0xa4f4d4>
    ad9c:	706d6920 	rsbvc	r6, sp, r0, lsr #18
    ada0:	6973736f 	ldmdbvs	r3!, {r0, r1, r2, r3, r5, r6, r8, r9, ip, sp, lr}^
    ada4:	0a656c62 	beq	1965f34 <__bss_end__+0x195ac9c>
    ada8:	00000000 	andeq	r0, r0, r0
    adac:	615f7369 	cmpvs	pc, r9, ror #6
    adb0:	6e67696c 	vnmulvs.f16	s13, s14, s25	; <UNPREDICTABLE>
    adb4:	68286465 	stmdavs	r8!, {r0, r2, r5, r6, sl, sp, lr}
    adb8:	6c61202c 	stclvs	0, cr2, [r1], #-176	; 0xffffff50
    adbc:	6d6e6769 	stclvs	7, cr6, [lr, #-420]!	; 0xfffffe5c
    adc0:	29746e65 	ldmdbcs	r4!, {r0, r2, r5, r6, r9, sl, fp, sp, lr}^
    adc4:	00000000 	andeq	r0, r0, r0
    adc8:	494e4150 	stmdbmi	lr, {r4, r6, r8, lr}^
    adcc:	73253a43 			; <UNDEFINED> instruction: 0x73253a43
    add0:	3a73253a 	bcc	1cd42c0 <__bss_end__+0x1cc9028>
    add4:	703a6425 	eorsvc	r6, sl, r5, lsr #8
    add8:	746e696f 	strbtvc	r6, [lr], #-2415	; 0xfffff691
    addc:	25207265 	strcs	r7, [r0, #-613]!	; 0xfffffd9b
    ade0:	61772070 	cmnvs	r7, r0, ror r0
    ade4:	656e2073 	strbvs	r2, [lr, #-115]!	; 0xffffff8d
    ade8:	20726576 	rsbscs	r6, r2, r6, ror r5
    adec:	6f6c6c61 	svcvs	0x006c6c61
    adf0:	65746163 	ldrbvs	r6, [r4, #-355]!	; 0xfffffe9d
    adf4:	000a0a64 	andeq	r0, sl, r4, ror #20

0000adf8 <__FUNCTION__.7>:
    adf8:	6c616d6b 	stclvs	13, cr6, [r1], #-428	; 0xfffffe54
    adfc:	5f636f6c 	svcpl	0x00636f6c
    ae00:	74696e69 	strbtvc	r6, [r9], #-3689	; 0xfffff197
    ae04:	7465735f 	strbtvc	r7, [r5], #-863	; 0xfffffca1
    ae08:	6174735f 	cmnvs	r4, pc, asr r3
    ae0c:	00007472 	andeq	r7, r0, r2, ror r4

0000ae10 <__FUNCTION__.5>:
    ae10:	6c616d6b 	stclvs	13, cr6, [r1], #-428	; 0xfffffe54
    ae14:	5f636f6c 	svcpl	0x00636f6c
    ae18:	74696e69 	strbtvc	r6, [r9], #-3689	; 0xfffff197
    ae1c:	00000000 	andeq	r0, r0, r0

0000ae20 <__FUNCTION__.4>:
    ae20:	6c616d6b 	stclvs	13, cr6, [r1], #-428	; 0xfffffe54
    ae24:	5f636f6c 	svcpl	0x00636f6c
    ae28:	7a746f6e 	bvc	1d26be8 <__bss_end__+0x1d1b950>
    ae2c:	006f7265 	rsbeq	r7, pc, r5, ror #4

0000ae30 <__FUNCTION__.2>:
    ae30:	6c616d6b 	stclvs	13, cr6, [r1], #-428	; 0xfffffe54
    ae34:	00636f6c 	rsbeq	r6, r3, ip, ror #30

0000ae38 <__FUNCTION__.1>:
    ae38:	6c616d6b 	stclvs	13, cr6, [r1], #-428	; 0xfffffe54
    ae3c:	5f636f6c 	svcpl	0x00636f6c
    ae40:	67696c61 	strbvs	r6, [r9, -r1, ror #24]!
    ae44:	0064656e 	rsbeq	r6, r4, lr, ror #10

0000ae48 <__FUNCTION__.3>:
    ae48:	6e756f72 	mrcvs	15, 3, r6, cr5, cr2, {3}
    ae4c:	00707564 	rsbseq	r7, r0, r4, ror #10

0000ae50 <__FUNCTION__.0>:
    ae50:	6572666b 	ldrbvs	r6, [r2, #-1643]!	; 0xfffff995
    ae54:	6f705f65 	svcvs	0x00705f65
    ae58:	Address 0x000000000000ae58 is out of bounds.


Disassembly of section .data:

0000ae5c <putk>:
    ae5c:	00009070 	andeq	r9, r0, r0, ror r0

0000ae60 <heap>:
    ae60:	0000b298 	muleq	r0, r8, r2

0000ae64 <heap_start>:
    ae64:	0000b298 	muleq	r0, r8, r2

0000ae68 <heap_end>:
    ae68:	0020b298 	mlaeq	r0, r8, r2, fp

0000ae6c <rpi_putchar>:
    ae6c:	0000a464 	andeq	sl, r0, r4, ror #8

Disassembly of section .bss:

0000ae70 <__bss_start__>:
	...

0000ae78 <freep>:
	...

0000ae80 <base>:
	...

0000ae88 <heap_start>:
    ae88:	00000000 	andeq	r0, r0, r0

0000ae8c <heap_end>:
    ae8c:	00000000 	andeq	r0, r0, r0

0000ae90 <init_p.4035>:
    ae90:	00000000 	andeq	r0, r0, r0

0000ae94 <buf.3944>:
	...

0000b294 <init_p.6>:
    b294:	00000000 	andeq	r0, r0, r0

Disassembly of section .ARM.attributes:

00000000 <.ARM.attributes>:
   0:	00002a41 	andeq	r2, r0, r1, asr #20
   4:	61656100 	cmnvs	r5, r0, lsl #2
   8:	01006962 	tsteq	r0, r2, ror #18
   c:	00000020 	andeq	r0, r0, r0, lsr #32
  10:	4b5a3605 	blmi	168d82c <__bss_end__+0x1682594>
  14:	08070600 	stmdaeq	r7, {r9, sl}
  18:	12010901 	andne	r0, r1, #16384	; 0x4000
  1c:	15011404 	strne	r1, [r1, #-1028]	; 0xfffffbfc
  20:	18031701 	stmdane	r3, {r0, r8, r9, sl, ip}
  24:	22011a01 	andcs	r1, r1, #4096	; 0x1000
  28:	Address 0x0000000000000028 is out of bounds.


Disassembly of section .comment:

00000000 <.comment>:
   0:	3a434347 	bcc	10d0d24 <__bss_end__+0x10c5a8c>
   4:	4e472820 	cdpmi	8, 4, cr2, cr7, cr0, {1}
   8:	6f542055 	svcvs	0x00542055
   c:	20736c6f 	rsbscs	r6, r3, pc, ror #24
  10:	20726f66 	rsbscs	r6, r2, r6, ror #30
  14:	206d7241 	rsbcs	r7, sp, r1, asr #4
  18:	65626d45 	strbvs	r6, [r2, #-3397]!	; 0xfffff2bb
  1c:	64656464 	strbtvs	r6, [r5], #-1124	; 0xfffffb9c
  20:	6f725020 	svcvs	0x00725020
  24:	73736563 	cmnvc	r3, #415236096	; 0x18c00000
  28:	2073726f 	rsbscs	r7, r3, pc, ror #4
  2c:	30322d39 	eorscc	r2, r2, r9, lsr sp
  30:	712d3931 			; <UNDEFINED> instruction: 0x712d3931
  34:	616d2d34 	cmnvs	sp, r4, lsr sp
  38:	29726f6a 	ldmdbcs	r2!, {r1, r3, r5, r6, r8, r9, sl, fp, sp, lr}^
  3c:	322e3920 	eorcc	r3, lr, #32, 18	; 0x80000
  40:	3220312e 	eorcc	r3, r0, #-2147483637	; 0x8000000b
  44:	31393130 	teqcc	r9, r0, lsr r1
  48:	20353230 	eorscs	r3, r5, r0, lsr r2
  4c:	6c657228 	sfmvs	f7, 2, [r5], #-160	; 0xffffff60
  50:	65736165 	ldrbvs	r6, [r3, #-357]!	; 0xfffffe9b
  54:	415b2029 	cmpmi	fp, r9, lsr #32
  58:	612f4d52 			; <UNDEFINED> instruction: 0x612f4d52
  5c:	392d6d72 	pushcc	{r1, r4, r5, r6, r8, sl, fp, sp, lr}
  60:	6172622d 	cmnvs	r2, sp, lsr #4
  64:	2068636e 	rsbcs	r6, r8, lr, ror #6
  68:	69766572 	ldmdbvs	r6!, {r1, r4, r5, r6, r8, sl, sp, lr}^
  6c:	6e6f6973 			; <UNDEFINED> instruction: 0x6e6f6973
  70:	37373220 	ldrcc	r3, [r7, -r0, lsr #4]!
  74:	5d393935 			; <UNDEFINED> instruction: 0x5d393935
  78:	43434700 	movtmi	r4, #14080	; 0x3700
  7c:	4728203a 			; <UNDEFINED> instruction: 0x4728203a
  80:	4120554e 			; <UNDEFINED> instruction: 0x4120554e
  84:	45206d72 	strmi	r6, [r0, #-3442]!	; 0xfffff28e
  88:	6465626d 	strbtvs	r6, [r5], #-621	; 0xfffffd93
  8c:	20646564 	rsbcs	r6, r4, r4, ror #10
  90:	6c6f6f54 	stclvs	15, cr6, [pc], #-336	; ffffff48 <__bss_end__+0xffff4cb0>
  94:	69616863 	stmdbvs	r1!, {r0, r1, r5, r6, fp, sp, lr}^
  98:	3031206e 	eorscc	r2, r1, lr, rrx
  9c:	322d332e 	eorcc	r3, sp, #-1207959552	; 0xb8000000
  a0:	2e313230 	mrccs	2, 1, r3, cr1, cr0, {1}
  a4:	20293031 	eorcs	r3, r9, r1, lsr r0
  a8:	332e3031 			; <UNDEFINED> instruction: 0x332e3031
  ac:	3220312e 	eorcc	r3, r0, #-2147483637	; 0x8000000b
  b0:	30313230 	eorscc	r3, r1, r0, lsr r2
  b4:	20343238 	eorscs	r3, r4, r8, lsr r2
  b8:	6c657228 	sfmvs	f7, 2, [r5], #-160	; 0xffffff60
  bc:	65736165 	ldrbvs	r6, [r3, #-357]!	; 0xfffffe9b
  c0:	Address 0x00000000000000c0 is out of bounds.


Disassembly of section .debug_info:

00000000 <.debug_info>:
       0:	000002e5 	andeq	r0, r0, r5, ror #5
       4:	00000004 	andeq	r0, r0, r4
       8:	01040000 	mrseq	r0, (UNDEF: 4)
       c:	00000065 	andeq	r0, r0, r5, rrx
      10:	0000290c 	andeq	r2, r0, ip, lsl #18
      14:	00016000 	andeq	r6, r1, r0
      18:	00803800 	addeq	r3, r0, r0, lsl #16
      1c:	0000ac00 	andeq	sl, r0, r0, lsl #24
      20:	00000000 	andeq	r0, r0, r0
      24:	05040200 	streq	r0, [r4, #-512]	; 0xfffffe00
      28:	00746e69 	rsbseq	r6, r4, r9, ror #28
      2c:	b0070403 	andlt	r0, r7, r3, lsl #8
      30:	03000001 	movweq	r0, #1
      34:	01540601 	cmpeq	r4, r1, lsl #12
      38:	02030000 	andeq	r0, r3, #0, 0
      3c:	0001de05 	andeq	sp, r1, r5, lsl #28
      40:	05040300 	streq	r0, [r4, #-768]	; 0xfffffd00
      44:	000001c2 	andeq	r0, r0, r2, asr #3
      48:	bd050803 	stclt	8, cr0, [r5, #-12]
      4c:	03000001 	movweq	r0, #1
      50:	01520801 	cmpeq	r2, r1, lsl #16
      54:	02030000 	andeq	r0, r3, #0, 0
      58:	00005207 	andeq	r5, r0, r7, lsl #4
      5c:	07040300 	streq	r0, [r4, -r0, lsl #6]
      60:	000001ab 	andeq	r0, r0, fp, lsr #3
      64:	a6070803 	strge	r0, [r7], -r3, lsl #16
      68:	04000001 	streq	r0, [r0], #-1
      6c:	00000025 	andeq	r0, r0, r5, lsr #32
      70:	0000007a 	andeq	r0, r0, sl, ror r0
      74:	00002505 	andeq	r2, r0, r5, lsl #10
      78:	cb060000 	blgt	180080 <__bss_end__+0x174de8>
      7c:	03000001 	movweq	r0, #1
      80:	00860e1c 	addeq	r0, r6, ip, lsl lr
      84:	04070000 	streq	r0, [r7], #-0
      88:	0000006b 	andeq	r0, r0, fp, rrx
      8c:	00002504 	andeq	r2, r0, r4, lsl #10
      90:	00009b00 	andeq	r9, r0, r0, lsl #22
      94:	009b0500 	addseq	r0, fp, r0, lsl #10
      98:	07000000 	streq	r0, [r0, -r0]
      9c:	0000a804 	andeq	sl, r0, r4, lsl #16
      a0:	08010300 	stmdaeq	r1, {r8, r9}
      a4:	0000015b 	andeq	r0, r0, fp, asr r1
      a8:	0000a108 	andeq	sl, r0, r8, lsl #2
      ac:	066c0600 	strbteq	r0, [ip], -r0, lsl #12
      b0:	21030000 	mrscs	r0, (UNDEF: 3)
      b4:	0000b90e 	andeq	fp, r0, lr, lsl #18
      b8:	8c040700 	stchi	7, cr0, [r4], {-0}
      bc:	09000000 	stmdbeq	r0, {}	; <UNPREDICTABLE>
      c0:	0905020c 	stmdbeq	r5, {r2, r3, r9}
      c4:	000000f0 	strdeq	r0, [r0], -r0	; <UNPREDICTABLE>
      c8:	0000240a 	andeq	r2, r0, sl, lsl #8
      cc:	11070200 	mrsne	r0, (UNDEF: 39)
      d0:	0000009b 	muleq	r0, fp, r0
      d4:	01940a00 	orrseq	r0, r4, r0, lsl #20
      d8:	08020000 	stmdaeq	r2, {}	; <UNPREDICTABLE>
      dc:	00009b11 	andeq	r9, r0, r1, lsl fp
      e0:	150a0400 	strne	r0, [sl, #-1024]	; 0xfffffc00
      e4:	02000000 	andeq	r0, r0, #0, 0
      e8:	002c0e09 	eoreq	r0, ip, r9, lsl #28
      ec:	00080000 	andeq	r0, r8, r0
      f0:	0001e80b 	andeq	lr, r1, fp, lsl #16
      f4:	030a0200 	movweq	r0, #41472	; 0xa200
      f8:	000000bf 	strheq	r0, [r0], -pc	; <UNPREDICTABLE>
      fc:	00000006 	andeq	r0, r0, r6
     100:	11a60400 			; <UNDEFINED> instruction: 0x11a60400
     104:	0000002c 	andeq	r0, r0, ip, lsr #32
     108:	00001c0c 	andeq	r1, r0, ip, lsl #24
     10c:	06050100 	streq	r0, [r5], -r0, lsl #2
     110:	00008044 	andeq	r8, r0, r4, asr #32
     114:	000000a0 	andeq	r0, r0, r0, lsr #1
     118:	024f9c01 	subeq	r9, pc, #256	; 0x100
     11c:	700d0000 	andvc	r0, sp, r0
     120:	0b070100 	bleq	1c0528 <__bss_end__+0x1b5290>
     124:	0000024f 	andeq	r0, r0, pc, asr #4
     128:	00000004 	andeq	r0, r0, r4
     12c:	00000000 	andeq	r0, r0, r0
     130:	0001990e 	andeq	r9, r1, lr, lsl #18
     134:	00026500 	andeq	r6, r2, r0, lsl #10
     138:	00030500 	andeq	r0, r3, r0, lsl #10
     13c:	0f0000a6 	svceq	0x000000a6
     140:	0000026a 	andeq	r0, r0, sl, ror #4
     144:	0000805c 	andeq	r8, r0, ip, asr r0
     148:	00805c01 	addeq	r5, r0, r1, lsl #24
     14c:	00001800 	andeq	r1, r0, r0, lsl #16
     150:	0f070100 	svceq	0x00070100
     154:	00000180 	andeq	r0, r0, r0, lsl #3
     158:	00029310 	andeq	r9, r2, r0, lsl r3
     15c:	00002400 	andeq	r2, r0, r0, lsl #8
     160:	00002200 	andeq	r2, r0, r0, lsl #4
     164:	02871000 	addeq	r1, r7, #0, 0
     168:	003a0000 	eorseq	r0, sl, r0
     16c:	00380000 	eorseq	r0, r8, r0
     170:	7b100000 	blvc	400178 <__bss_end__+0x3f4ee0>
     174:	54000002 	strpl	r0, [r0], #-2
     178:	52000000 	andpl	r0, r0, #0, 0
     17c:	00000000 	andeq	r0, r0, r0
     180:	00026a0f 	andeq	r6, r2, pc, lsl #20
     184:	00809c00 	addeq	r9, r0, r0, lsl #24
     188:	809c0100 	addshi	r0, ip, r0, lsl #2
     18c:	00100000 	andseq	r0, r0, r0
     190:	0a010000 	beq	40198 <__bss_end__+0x34f00>
     194:	0001c105 	andeq	ip, r1, r5, lsl #2
     198:	02931000 	addseq	r1, r3, #0, 0
     19c:	006e0000 	rsbeq	r0, lr, r0
     1a0:	006c0000 	rsbeq	r0, ip, r0
     1a4:	87100000 	ldrhi	r0, [r0, -r0]
     1a8:	84000002 	strhi	r0, [r0], #-2
     1ac:	82000000 	andhi	r0, r0, #0, 0
     1b0:	10000000 	andne	r0, r0, r0
     1b4:	0000027b 	andeq	r0, r0, fp, ror r2
     1b8:	0000009e 	muleq	r0, lr, r0
     1bc:	0000009c 	muleq	r0, ip, r0
     1c0:	805c1100 	subshi	r1, ip, r0, lsl #2
     1c4:	02ac0000 	adceq	r0, ip, #0, 0
     1c8:	01d80000 	bicseq	r0, r8, r0
     1cc:	01120000 	tsteq	r2, r0
     1d0:	78030550 	stmdavc	r3, {r4, r6, r8, sl}
     1d4:	000000a5 	andeq	r0, r0, r5, lsr #1
     1d8:	00808411 	addeq	r8, r0, r1, lsl r4
     1dc:	0002b800 	andeq	fp, r2, r0, lsl #16
     1e0:	0001eb00 	andeq	lr, r1, r0, lsl #22
     1e4:	50011200 	andpl	r1, r1, r0, lsl #4
     1e8:	11003401 	tstne	r0, r1, lsl #8
     1ec:	00008094 	muleq	r0, r4, r0
     1f0:	000002c4 	andeq	r0, r0, r4, asr #5
     1f4:	00000209 	andeq	r0, r0, r9, lsl #4
     1f8:	02500112 	subseq	r0, r0, #-2147483644	; 0x80000004
     1fc:	01120074 	tsteq	r2, r4, ror r0
     200:	12300151 	eorsne	r0, r0, #1073741844	; 0x40000014
     204:	34015201 	strcc	r5, [r1], #-513	; 0xfffffdff
     208:	80bc1100 	adcshi	r1, ip, r0, lsl #2
     20c:	02d00000 	sbcseq	r0, r0, #0, 0
     210:	021d0000 	andseq	r0, sp, #0, 0
     214:	01120000 	tsteq	r2, r0
     218:	00740250 	rsbseq	r0, r4, r0, asr r2
     21c:	80d01100 	sbcshi	r1, r0, r0, lsl #2
     220:	02ac0000 	adceq	r0, ip, #0, 0
     224:	02450000 	subeq	r0, r5, #0, 0
     228:	01120000 	tsteq	r2, r0
     22c:	b8030550 	stmdalt	r3, {r4, r6, r8, sl}
     230:	120000a5 	andne	r0, r0, #165, 0	; 0xa5
     234:	75025101 	strvc	r5, [r2, #-257]	; 0xfffffeff
     238:	52011200 	andpl	r1, r1, #0, 4
     23c:	12007602 	andne	r7, r0, #2097152	; 0x200000
     240:	3c015301 	stccc	3, cr5, [r1], {1}
     244:	80d41300 	sbcshi	r1, r4, r0, lsl #6
     248:	02dc0000 	sbcseq	r0, ip, #0, 0
     24c:	07000000 	streq	r0, [r0, -r0]
     250:	0000a104 	andeq	sl, r0, r4, lsl #2
     254:	00a81400 	adceq	r1, r8, r0, lsl #8
     258:	02650000 	rsbeq	r0, r5, #0, 0
     25c:	2c150000 	ldccs	0, cr0, [r5], {-0}
     260:	07000000 	streq	r0, [r0, -r0]
     264:	02550800 	subseq	r0, r5, #0, 16
     268:	47160000 	ldrmi	r0, [r6, -r0]
     26c:	02000001 	andeq	r0, r0, #1, 0
     270:	00f00b0d 	rscseq	r0, r0, sp, lsl #22
     274:	a0030000 	andge	r0, r3, r0
     278:	17000002 	strne	r0, [r0, -r2]
     27c:	00000024 	andeq	r0, r0, r4, lsr #32
     280:	9b220d02 	blls	883690 <__bss_end__+0x8783f8>
     284:	17000000 	strne	r0, [r0, -r0]
     288:	00000194 	muleq	r0, r4, r1
     28c:	9b340d02 	blls	d0369c <__bss_end__+0xcf8404>
     290:	17000000 	strne	r0, [r0, -r0]
     294:	00000015 	andeq	r0, r0, r5, lsl r0
     298:	2c430d02 	mcrrcs	13, 0, r0, r3, cr2
     29c:	00000000 	andeq	r0, r0, r0
     2a0:	089e0a18 	ldmeq	lr, {r3, r4, r9, fp}
     2a4:	6d746f6e 	ldclvs	15, cr6, [r4, #-440]!	; 0xfffffe48
     2a8:	006e6961 	rsbeq	r6, lr, r1, ror #18
     2ac:	00062e19 	andeq	r2, r6, r9, lsl lr
     2b0:	00062e00 	andeq	r2, r6, r0, lsl #28
     2b4:	06280300 	strteq	r0, [r8], -r0, lsl #6
     2b8:	00000d19 	andeq	r0, r0, r9, lsl sp
     2bc:	00000d00 	andeq	r0, r0, r0, lsl #26
     2c0:	084a0400 	stmdaeq	sl, {sl}^
     2c4:	0001f219 	andeq	pc, r1, r9, lsl r2	; <UNPREDICTABLE>
     2c8:	0001f200 	andeq	pc, r1, r0, lsl #4
     2cc:	07f20300 	ldrbeq	r0, [r2, r0, lsl #6]!
     2d0:	0001d719 	andeq	sp, r1, r9, lsl r7
     2d4:	0001d700 	andeq	sp, r1, r0, lsl #14
     2d8:	074b0400 	strbeq	r0, [fp, -r0, lsl #8]
     2dc:	00004519 	andeq	r4, r0, r9, lsl r5
     2e0:	00004500 	andeq	r4, r0, r0, lsl #10
     2e4:	066e0300 	strbteq	r0, [lr], -r0, lsl #6
     2e8:	0007ae00 	andeq	sl, r7, r0, lsl #28
     2ec:	63000400 	movwvs	r0, #1024	; 0x400
     2f0:	04000001 	streq	r0, [r0], #-1
     2f4:	00006501 	andeq	r6, r0, r1, lsl #10
     2f8:	02c20c00 	sbceq	r0, r2, #0, 24
     2fc:	01600000 	cmneq	r0, r0
     300:	80e40000 	rschi	r0, r4, r0
     304:	03f80000 	mvnseq	r0, #0, 0
     308:	00d50000 	sbcseq	r0, r5, r0
     30c:	04020000 	streq	r0, [r2], #-0
     310:	746e6905 	strbtvc	r6, [lr], #-2309	; 0xfffff6fb
     314:	07040300 	streq	r0, [r4, -r0, lsl #6]
     318:	000001b0 			; <UNDEFINED> instruction: 0x000001b0
     31c:	54060103 	strpl	r0, [r6], #-259	; 0xfffffefd
     320:	03000001 	movweq	r0, #1
     324:	01de0502 	bicseq	r0, lr, r2, lsl #10
     328:	04030000 	streq	r0, [r3], #-0
     32c:	0001c205 	andeq	ip, r1, r5, lsl #4
     330:	05080300 	streq	r0, [r8, #-768]	; 0xfffffd00
     334:	000001bd 			; <UNDEFINED> instruction: 0x000001bd
     338:	00025304 	andeq	r5, r2, r4, lsl #6
     33c:	182e0300 	stmdane	lr!, {r8, r9}
     340:	0000005b 	andeq	r0, r0, fp, asr r0
     344:	52080103 	andpl	r0, r8, #-1073741824	; 0xc0000000
     348:	04000001 	streq	r0, [r0], #-1
     34c:	0000029b 	muleq	r0, fp, r2
     350:	6e193103 	mufvse	f3, f1, f3
     354:	03000000 	movweq	r0, #0
     358:	00520702 	subseq	r0, r2, r2, lsl #14
     35c:	92040000 	andls	r0, r4, #0, 0
     360:	03000002 	movweq	r0, #2
     364:	00811934 	addeq	r1, r1, r4, lsr r9
     368:	04030000 	streq	r0, [r3], #-0
     36c:	0001ab07 	andeq	sl, r1, r7, lsl #22
     370:	07080300 	streq	r0, [r8, -r0, lsl #6]
     374:	000001a6 	andeq	r0, r0, r6, lsr #3
     378:	00002505 	andeq	r2, r0, r5, lsl #10
     37c:	00009e00 	andeq	r9, r0, r0, lsl #28
     380:	00250600 	eoreq	r0, r5, r0, lsl #12
     384:	07000000 	streq	r0, [r0, -r0]
     388:	000001cb 	andeq	r0, r0, fp, asr #3
     38c:	aa0e1c04 	bge	3873a4 <__bss_end__+0x37c10c>
     390:	08000000 	stmdaeq	r0, {}	; <UNPREDICTABLE>
     394:	00008f04 	andeq	r8, r0, r4, lsl #30
     398:	00250500 	eoreq	r0, r5, r0, lsl #10
     39c:	00bf0000 	adcseq	r0, pc, r0
     3a0:	bf060000 	svclt	0x00060000
     3a4:	00000000 	andeq	r0, r0, r0
     3a8:	00cc0408 	sbceq	r0, ip, r8, lsl #8
     3ac:	01030000 	mrseq	r0, (UNDEF: 3)
     3b0:	00015b08 	andeq	r5, r1, r8, lsl #22
     3b4:	00c50900 	sbceq	r0, r5, r0, lsl #18
     3b8:	6c070000 	stcvs	0, cr0, [r7], {-0}
     3bc:	04000006 	streq	r0, [r0], #-6
     3c0:	00dd0e21 	sbcseq	r0, sp, r1, lsr #28
     3c4:	04080000 	streq	r0, [r8], #-0
     3c8:	000000b0 	strheq	r0, [r0], -r0	; <UNPREDICTABLE>
     3cc:	05050c0a 	streq	r0, [r5, #-3082]	; 0xfffff3f6
     3d0:	00011409 	andeq	r1, r1, r9, lsl #8
     3d4:	00240b00 	eoreq	r0, r4, r0, lsl #22
     3d8:	07050000 	streq	r0, [r5, -r0]
     3dc:	0000bf11 	andeq	fp, r0, r1, lsl pc
     3e0:	940b0000 	strls	r0, [fp], #-0
     3e4:	05000001 	streq	r0, [r0, #-1]
     3e8:	00bf1108 	adcseq	r1, pc, r8, lsl #2
     3ec:	0b040000 	bleq	1003f4 <__bss_end__+0xf515c>
     3f0:	00000015 	andeq	r0, r0, r5, lsl r0
     3f4:	2c0e0905 			; <UNDEFINED> instruction: 0x2c0e0905
     3f8:	08000000 	stmdaeq	r0, {}	; <UNPREDICTABLE>
     3fc:	01e80400 	mvneq	r0, r0, lsl #8
     400:	0a050000 	beq	140408 <__bss_end__+0x135170>
     404:	0000e303 	andeq	lr, r0, r3, lsl #6
     408:	01070c00 	tsteq	r7, r0, lsl #24
     40c:	0000005b 	andeq	r0, r0, fp, asr r0
     410:	3b0e0902 	blcc	382820 <__bss_end__+0x377588>
     414:	0d000001 	stceq	0, cr0, [r0, #-4]
     418:	000002d8 	ldrdeq	r0, [r0], -r8
     41c:	02180d0b 	andseq	r0, r8, #704	; 0x2c0
     420:	000c0000 	andeq	r0, ip, r0
     424:	5b01070c 	blpl	4205c <__bss_end__+0x36dc4>
     428:	02000000 	andeq	r0, r0, #0, 0
     42c:	0156060a 	cmpeq	r6, sl, lsl #12
     430:	370d0000 	strcc	r0, [sp, -r0]
     434:	80000002 	andhi	r0, r0, r2
     438:	00022b0d 	andeq	r2, r2, sp, lsl #22
     43c:	0e00fe00 	cdpeq	14, 0, cr15, cr0, cr0, {0}
     440:	00000270 	andeq	r0, r0, r0, ror r2
     444:	100d02b4 			; <UNDEFINED> instruction: 0x100d02b4
     448:	000001e6 	andeq	r0, r0, r6, ror #3
     44c:	0003150b 	andeq	r1, r3, fp, lsl #10
     450:	140e0200 	strne	r0, [lr], #-512	; 0xfffffe00
     454:	000001e6 	andeq	r0, r0, r6, ror #3
     458:	021e0b00 	andseq	r0, lr, #0, 22
     45c:	0f020000 	svceq	0x00020000
     460:	0000750e 	andeq	r7, r0, lr, lsl #10
     464:	810b0400 	tsthi	fp, r0, lsl #8
     468:	02000002 	andeq	r0, r0, #2, 0
     46c:	00750e10 	rsbseq	r0, r5, r0, lsl lr
     470:	0b080000 	bleq	200478 <__bss_end__+0x1f51e0>
     474:	0000020f 	andeq	r0, r0, pc, lsl #4
     478:	750e1402 	strvc	r1, [lr, #-1026]	; 0xfffffbfe
     47c:	0c000000 	stceq	0, cr0, [r0], {-0}
     480:	0002770b 	andeq	r7, r2, fp, lsl #14
     484:	0f160200 	svceq	0x00160200
     488:	00000114 	andeq	r0, r0, r4, lsl r1
     48c:	02f80b10 	rscseq	r0, r8, #16, 22	; 0x4000
     490:	17020000 	strne	r0, [r2, -r0]
     494:	0001140f 	andeq	r1, r1, pc, lsl #8
     498:	870b1c00 	strhi	r1, [fp, -r0, lsl #24]
     49c:	02000002 	andeq	r0, r0, #2, 0
     4a0:	00750e1a 	rsbseq	r0, r5, sl, lsl lr
     4a4:	0b280000 	bleq	a004ac <__bss_end__+0x9f5214>
     4a8:	000002cc 	andeq	r0, r0, ip, asr #5
     4ac:	750e1b02 	strvc	r1, [lr, #-2818]	; 0xfffff4fe
     4b0:	2c000000 	stccs	0, cr0, [r0], {-0}
     4b4:	0003c40b 	andeq	ip, r3, fp, lsl #8
     4b8:	0e1d0200 	cdpeq	2, 1, cr0, cr13, cr0, {0}
     4bc:	00000062 	andeq	r0, r0, r2, rrx
     4c0:	7a720f30 	bvc	1c84188 <__bss_end__+0x1c78ef0>
     4c4:	1f020031 	svcne	0x00020031
     4c8:	0001ec0d 	andeq	lr, r1, sp, lsl #24
     4cc:	08003200 	stmdaeq	r0, {r9, ip, sp}
     4d0:	00015604 	andeq	r5, r1, r4, lsl #12
     4d4:	004f1000 	subeq	r1, pc, r0
     4d8:	01fc0000 	mvnseq	r0, r0
     4dc:	2c110000 	ldccs	0, cr0, [r1], {-0}
     4e0:	7f000000 	svcvc	0x00000000
     4e4:	02090400 	andeq	r0, r9, #0, 8
     4e8:	20020000 	andcs	r0, r2, r0
     4ec:	00015603 	andeq	r5, r1, r3, lsl #12
     4f0:	07041200 	streq	r1, [r4, -r0, lsl #4]
     4f4:	00000000 	andeq	r0, r0, r0
     4f8:	2c11a602 	ldccs	6, cr10, [r1], {2}
     4fc:	13000000 	movwne	r0, #0
     500:	00000265 	andeq	r0, r0, r5, ror #4
     504:	280f0801 	stmdacs	pc, {r0, fp}	; <UNPREDICTABLE>
     508:	05000002 	streq	r0, [r0, #-2]
     50c:	00ae7003 	adceq	r7, lr, r3
     510:	fc040800 	stc2	8, cr0, [r4], {-0}
     514:	14000001 	strne	r0, [r0], #-1
     518:	0000000d 	andeq	r0, r0, sp
     51c:	08087601 	stmdaeq	r8, {r0, r9, sl, ip, sp, lr}
     520:	10000002 	andne	r0, r0, r2
     524:	cc000084 	stcgt	0, cr0, [r0], {132}	; 0x84
     528:	01000000 	mrseq	r0, (UNDEF: 0)
     52c:	00031b9c 	muleq	r3, ip, fp
     530:	03041500 	movweq	r1, #17664	; 0x4500
     534:	76010000 	strvc	r0, [r1], -r0
     538:	0000751a 	andeq	r7, r0, sl, lsl r5
     53c:	0000bc00 	andeq	fp, r0, r0, lsl #24
     540:	0000b600 	andeq	fp, r0, r0, lsl #12
     544:	006c1600 	rsbeq	r1, ip, r0, lsl #12
     548:	142c7601 	strtne	r7, [ip], #-1537	; 0xfffff9ff
     54c:	02000001 	andeq	r0, r0, #1, 0
     550:	68175491 	ldmdavs	r7, {r0, r4, r7, sl, ip, lr}
     554:	0c780100 	ldfeqe	f0, [r8], #-0
     558:	00000228 	andeq	r0, r0, r8, lsr #4
     55c:	000000ee 	andeq	r0, r0, lr, ror #1
     560:	000000e8 	andeq	r0, r0, r8, ror #1
     564:	00844418 	addeq	r4, r4, r8, lsl r4
     568:	00002c00 	andeq	r2, r0, r0, lsl #24
     56c:	00029b00 	andeq	r9, r2, r0, lsl #22
     570:	00691700 	rsbeq	r1, r9, r0, lsl #14
     574:	250d7e01 	strcs	r7, [sp, #-3585]	; 0xfffff1ff
     578:	1f000000 	svcne	0x00000000
     57c:	1b000001 	blne	588 <__code_start__-0x7a78>
     580:	00000001 	andeq	r0, r0, r1
     584:	00843419 	addeq	r3, r4, r9, lsl r4
     588:	00077500 	andeq	r7, r7, r0, lsl #10
     58c:	0002b000 	andeq	fp, r2, r0
     590:	50011a00 	andpl	r1, r1, r0, lsl #20
     594:	02b47503 	adcseq	r7, r4, #12582912	; 0xc00000
     598:	84441900 	strbhi	r1, [r4], #-2304	; 0xfffff700
     59c:	07810000 	streq	r0, [r1, r0]
     5a0:	02cf0000 	sbceq	r0, pc, #0, 0
     5a4:	011a0000 	tsteq	sl, r0
     5a8:	00740250 	rsbseq	r0, r4, r0, asr r2
     5ac:	0151011a 	cmpeq	r1, sl, lsl r1
     5b0:	52011a30 	andpl	r1, r1, #48, 20	; 0x30000
     5b4:	00b40802 	adcseq	r0, r4, r2, lsl #16
     5b8:	0084a019 	addeq	sl, r4, r9, lsl r0
     5bc:	00078d00 	andeq	r8, r7, r0, lsl #26
     5c0:	0002fb00 	andeq	pc, r2, r0, lsl #22
     5c4:	50011a00 	andpl	r1, r1, r0, lsl #20
     5c8:	a6180305 	ldrge	r0, [r8], -r5, lsl #6
     5cc:	011a0000 	tsteq	sl, r0
     5d0:	587b0351 	ldmdapl	fp!, {r0, r4, r6, r8, r9}^
     5d4:	52011a06 	andpl	r1, r1, #24576	; 0x6000
     5d8:	065c7b03 	ldrbeq	r7, [ip], -r3, lsl #22
     5dc:	0353011a 	cmpeq	r3, #-2147483642	; 0x80000006
     5e0:	0006607b 	andeq	r6, r6, fp, ror r0
     5e4:	0084b41b 	addeq	fp, r4, fp, lsl r4
     5e8:	00078d00 	andeq	r8, r7, r0, lsl #26
     5ec:	50011a00 	andpl	r1, r1, r0, lsl #20
     5f0:	a6e40305 	strbtge	r0, [r4], r5, lsl #6
     5f4:	011a0000 	tsteq	sl, r0
     5f8:	00760251 	rsbseq	r0, r6, r1, asr r2
     5fc:	0252011a 	subseq	r0, r2, #-2147483642	; 0x80000006
     600:	00000075 	andeq	r0, r0, r5, ror r0
     604:	0001d71c 	andeq	sp, r1, ip, lsl r7
     608:	06530100 	ldrbeq	r0, [r3], -r0, lsl #2
     60c:	00008268 	andeq	r8, r0, r8, ror #4
     610:	0000019c 	muleq	r0, ip, r1
     614:	05429c01 	strbeq	r9, [r2, #-3073]	; 0xfffff3ff
     618:	c7150000 	ldrgt	r0, [r5, -r0]
     61c:	01000005 	tsteq	r0, r5
     620:	02081453 	andeq	r1, r8, #1392508928	; 0x53000000
     624:	01420000 	mrseq	r0, (UNDEF: 66)
     628:	013e0000 	teqeq	lr, r0
     62c:	6c160000 	ldcvs	0, cr0, [r6], {-0}
     630:	24530100 	ldrbcs	r0, [r3], #-256	; 0xffffff00
     634:	00000114 	andeq	r0, r0, r4, lsl r1
     638:	17549102 	ldrbne	r9, [r4, -r2, lsl #2]
     63c:	55010068 	strpl	r0, [r1, #-104]	; 0xffffff98
     640:	0002280c 	andeq	r2, r2, ip, lsl #16
     644:	00016400 	andeq	r6, r1, r0, lsl #8
     648:	00016000 	andeq	r6, r1, r0
     64c:	01991d00 	orrseq	r1, r9, r0, lsl #26
     650:	05520000 	ldrbeq	r0, [r2, #-0]
     654:	03050000 	movweq	r0, #20480	; 0x5000
     658:	0000a700 	andeq	sl, r0, r0, lsl #14
     65c:	0000001e 	andeq	r0, r0, lr, lsl r0
     660:	00043300 	andeq	r3, r4, r0, lsl #6
     664:	00691700 	rsbeq	r1, r9, r0, lsl #14
     668:	250d5d01 	strcs	r5, [sp, #-3329]	; 0xfffff2ff
     66c:	8d000000 	stchi	0, cr0, [r0, #-0]
     670:	85000001 	strhi	r0, [r0, #-1]
     674:	1f000001 	svcne	0x00000001
     678:	0000832c 	andeq	r8, r0, ip, lsr #6
     67c:	00000799 	muleq	r0, r9, r7
     680:	00834019 	addeq	r4, r3, r9, lsl r0
     684:	00078d00 	andeq	r8, r7, r0, lsl #26
     688:	0003c000 	andeq	ip, r3, r0
     68c:	50011a00 	andpl	r1, r1, r0, lsl #20
     690:	a6340305 	ldrtge	r0, [r4], -r5, lsl #6
     694:	011a0000 	tsteq	sl, r0
     698:	00750251 	rsbseq	r0, r5, r1, asr r2
     69c:	0252011a 	subseq	r0, r2, #-2147483642	; 0x80000006
     6a0:	011a0076 	tsteq	sl, r6, ror r0
     6a4:	00770253 	rsbseq	r0, r7, r3, asr r2
     6a8:	83481900 	movthi	r1, #35072	; 0x8900
     6ac:	078d0000 	streq	r0, [sp, r0]
     6b0:	03d70000 	bicseq	r0, r7, #0, 0
     6b4:	011a0000 	tsteq	sl, r0
     6b8:	74030550 	strvc	r0, [r3], #-1360	; 0xfffffab0
     6bc:	000000a6 	andeq	r0, r0, r6, lsr #1
     6c0:	00834c1f 	addeq	r4, r3, pc, lsl ip
     6c4:	0007a500 	andeq	sl, r7, r0, lsl #10
     6c8:	83501f00 	cmphi	r0, #0, 30
     6cc:	07990000 	ldreq	r0, [r9, r0]
     6d0:	64190000 	ldrvs	r0, [r9], #-0
     6d4:	8d000083 	stchi	0, cr0, [r0, #-524]	; 0xfffffdf4
     6d8:	12000007 	andne	r0, r0, #7, 0
     6dc:	1a000004 	bne	6f4 <__code_start__-0x790c>
     6e0:	03055001 	movweq	r5, #20481	; 0x5001
     6e4:	0000a634 	andeq	sl, r0, r4, lsr r6
     6e8:	0251011a 	subseq	r0, r1, #-2147483642	; 0x80000006
     6ec:	011a0075 	tsteq	sl, r5, ror r0
     6f0:	00760252 	rsbseq	r0, r6, r2, asr r2
     6f4:	0253011a 	subseq	r0, r3, #-2147483642	; 0x80000006
     6f8:	19000077 	stmdbne	r0, {r0, r1, r2, r4, r5, r6}
     6fc:	0000836c 	andeq	r8, r0, ip, ror #6
     700:	0000078d 	andeq	r0, r0, sp, lsl #15
     704:	00000429 	andeq	r0, r0, r9, lsr #8
     708:	0550011a 	ldrbeq	r0, [r0, #-282]	; 0xfffffee6
     70c:	00a69003 	adceq	r9, r6, r3
     710:	701f0000 	andsvc	r0, pc, r0
     714:	a5000083 	strge	r0, [r0, #-131]	; 0xffffff7d
     718:	00000007 	andeq	r0, r0, r7
     71c:	00837018 	addeq	r7, r3, r8, lsl r0
     720:	00001c00 	andeq	r1, r0, r0, lsl #24
     724:	00045300 	andeq	r5, r4, r0, lsl #6
     728:	00691700 	rsbeq	r1, r9, r0, lsl #14
     72c:	250d6701 	strcs	r6, [sp, #-1793]	; 0xfffff8ff
     730:	c3000000 	movwgt	r0, #0
     734:	c1000001 	tstgt	r0, r1
     738:	00000001 	andeq	r0, r0, r1
     73c:	0082b019 	addeq	fp, r2, r9, lsl r0
     740:	00078d00 	andeq	r8, r7, r0, lsl #26
     744:	00047c00 	andeq	r7, r4, r0, lsl #24
     748:	50011a00 	andpl	r1, r1, r0, lsl #20
     74c:	a6180305 	ldrge	r0, [r8], -r5, lsl #6
     750:	011a0000 	tsteq	sl, r0
     754:	00750251 	rsbseq	r0, r5, r1, asr r2
     758:	0252011a 	subseq	r0, r2, #-2147483642	; 0x80000006
     75c:	011a0076 	tsteq	sl, r6, ror r0
     760:	00770253 	rsbseq	r0, r7, r3, asr r2
     764:	82bc1900 	adcshi	r1, ip, #0, 18
     768:	078d0000 	streq	r0, [sp, r0]
     76c:	04990000 	ldreq	r0, [r9], #0
     770:	011a0000 	tsteq	sl, r0
     774:	24030550 	strcs	r0, [r3], #-1360	; 0xfffffab0
     778:	1a0000a6 	bne	a18 <__code_start__-0x75e8>
     77c:	74025101 	strvc	r5, [r2], #-257	; 0xfffffeff
     780:	041f0000 	ldreq	r0, [pc], #-0	; 788 <__code_start__-0x7878>
     784:	99000083 	stmdbls	r0, {r0, r1, r7}
     788:	19000007 	stmdbne	r0, {r0, r1, r2}
     78c:	00008318 	andeq	r8, r0, r8, lsl r3
     790:	0000078d 	andeq	r0, r0, sp, lsl #15
     794:	000004cb 	andeq	r0, r0, fp, asr #9
     798:	0550011a 	ldrbeq	r0, [r0, #-282]	; 0xfffffee6
     79c:	00a63403 	adceq	r3, r6, r3, lsl #8
     7a0:	51011a00 	tstpl	r1, r0, lsl #20
     7a4:	1a007502 	bne	1dbb4 <__bss_end__+0x1291c>
     7a8:	76025201 	strvc	r5, [r2], -r1, lsl #4
     7ac:	53011a00 	movwpl	r1, #6656	; 0x1a00
     7b0:	00007702 	andeq	r7, r0, r2, lsl #14
     7b4:	00832419 	addeq	r2, r3, r9, lsl r4
     7b8:	00078d00 	andeq	r8, r7, r0, lsl #26
     7bc:	0004e200 	andeq	lr, r4, r0, lsl #4
     7c0:	50011a00 	andpl	r1, r1, r0, lsl #20
     7c4:	a64c0305 	strbge	r0, [ip], -r5, lsl #6
     7c8:	1f000000 	svcne	0x00000000
     7cc:	00008328 	andeq	r8, r0, r8, lsr #6
     7d0:	000007a5 	andeq	r0, r0, r5, lsr #15
     7d4:	0083ac19 	addeq	sl, r3, r9, lsl ip
     7d8:	00055700 	andeq	r5, r5, r0, lsl #14
     7dc:	0004ff00 	andeq	pc, r4, r0, lsl #30
     7e0:	50011a00 	andpl	r1, r1, r0, lsl #20
     7e4:	00007402 	andeq	r7, r0, r2, lsl #8
     7e8:	0083d819 	addeq	sp, r3, r9, lsl r8
     7ec:	00078d00 	andeq	r8, r7, r0, lsl #26
     7f0:	00053800 	andeq	r3, r5, r0, lsl #16
     7f4:	50011a00 	andpl	r1, r1, r0, lsl #20
     7f8:	a6b80305 	ldrtge	r0, [r8], r5, lsl #6
     7fc:	011a0000 	tsteq	sl, r0
     800:	ac030551 	cfstr32ge	mvfx0, [r3], {81}	; 0x51
     804:	1a0000a6 	bne	aa4 <__code_start__-0x755c>
     808:	03055201 	movweq	r5, #20993	; 0x5201
     80c:	0000a700 	andeq	sl, r0, r0, lsl #14
     810:	0253011a 	subseq	r0, r3, #-2147483642	; 0x80000006
     814:	021a6d08 	andseq	r6, sl, #8, 26	; 0x200
     818:	0305007d 	movweq	r0, #20605	; 0x507d
     81c:	0000a6cc 	andeq	sl, r0, ip, asr #13
     820:	83dc1f00 	bicshi	r1, ip, #0, 30
     824:	07a50000 	streq	r0, [r5, r0]!
     828:	10000000 	andne	r0, r0, r0
     82c:	000000cc 	andeq	r0, r0, ip, asr #1
     830:	00000552 	andeq	r0, r0, r2, asr r5
     834:	00002c11 	andeq	r2, r0, r1, lsl ip
     838:	09000600 	stmdbeq	r0, {r9, sl}
     83c:	00000542 	andeq	r0, r0, r2, asr #10
     840:	0002a414 	andeq	sl, r2, r4, lsl r4
     844:	082b0100 	stmdaeq	fp!, {r8}
     848:	00000228 	andeq	r0, r0, r8, lsr #4
     84c:	000081fc 	strdeq	r8, [r0], -ip
     850:	00000060 	andeq	r0, r0, r0, rrx
     854:	05f89c01 	ldrbeq	r9, [r8, #3073]!	; 0xc01
     858:	70200000 	eorvc	r0, r0, r0
     85c:	01007274 	tsteq	r0, r4, ror r2
     860:	0208202b 	andeq	r2, r8, #43, 0	; 0x2b
     864:	01da0000 	bicseq	r0, sl, r0
     868:	01d60000 	bicseq	r0, r6, r0
     86c:	0c210000 	stceq	0, cr0, [r1], #-0
     870:	44000082 	strmi	r0, [r0], #-130	; 0xffffff7e
     874:	17000000 	strne	r0, [r0, -r0]
     878:	2e010068 	cdpcs	0, 0, cr0, cr1, cr8, {3}
     87c:	00022811 	andeq	r2, r2, r1, lsl r8
     880:	00020000 	andeq	r0, r2, r0
     884:	0001f800 	andeq	pc, r1, r0, lsl #16
     888:	82101f00 	andshi	r1, r0, #0, 30
     88c:	07430000 	strbeq	r0, [r3, -r0]
     890:	28190000 	ldmdacs	r9, {}	; <UNPREDICTABLE>
     894:	f8000082 			; <UNDEFINED> instruction: 0xf8000082
     898:	c3000005 	movwgt	r0, #5
     89c:	1a000005 	bne	8b8 <__code_start__-0x7748>
     8a0:	74025001 	strvc	r5, [r2], #-1
     8a4:	51011a00 	tstpl	r1, r0, lsl #20
     8a8:	00007502 	andeq	r7, r0, r2, lsl #10
     8ac:	00823819 	addeq	r3, r2, r9, lsl r8
     8b0:	00071600 	andeq	r1, r7, r0, lsl #12
     8b4:	0005d700 	andeq	sp, r5, r0, lsl #14
     8b8:	50011a00 	andpl	r1, r1, r0, lsl #20
     8bc:	00007402 	andeq	r7, r0, r2, lsl #8
     8c0:	0082501b 	addeq	r5, r2, fp, lsl r0
     8c4:	00078d00 	andeq	r8, r7, r0, lsl #26
     8c8:	50011a00 	andpl	r1, r1, r0, lsl #20
     8cc:	a6080305 	strge	r0, [r8], -r5, lsl #6
     8d0:	011a0000 	tsteq	sl, r0
     8d4:	00750251 	rsbseq	r0, r5, r1, asr r2
     8d8:	0252011a 	subseq	r0, r2, #-2147483642	; 0x80000006
     8dc:	00000074 	andeq	r0, r0, r4, ror r0
     8e0:	01f91400 	mvnseq	r1, r0, lsl #8
     8e4:	24010000 	strcs	r0, [r1], #-0
     8e8:	00002c0a 	andeq	r2, r0, sl, lsl #24
     8ec:	0081ac00 	addeq	sl, r1, r0, lsl #24
     8f0:	00003800 	andeq	r3, r0, r0, lsl #16
     8f4:	859c0100 	ldrhi	r0, [ip, #256]	; 0x100
     8f8:	20000006 	andcs	r0, r0, r6
     8fc:	24010068 	strcs	r0, [r1], #-104	; 0xffffff98
     900:	00022821 	andeq	r2, r2, r1, lsr #16
     904:	00023800 	andeq	r3, r2, r0, lsl #16
     908:	00023400 	andeq	r3, r2, r0, lsl #8
     90c:	74702000 	ldrbtvc	r2, [r0], #-0
     910:	24010072 	strcs	r0, [r1], #-114	; 0xffffff8e
     914:	0002082a 	andeq	r0, r2, sl, lsr #16
     918:	00025a00 	andeq	r5, r2, r0, lsl #20
     91c:	00025600 	andeq	r5, r2, r0, lsl #12
     920:	696d1700 	stmdbvs	sp!, {r8, r9, sl, ip}^
     924:	2601006e 	strcs	r0, [r1], -lr, rrx
     928:	0002080b 	andeq	r0, r2, fp, lsl #16
     92c:	00027c00 	andeq	r7, r2, r0, lsl #24
     930:	00027800 	andeq	r7, r2, r0, lsl #16
     934:	616d1700 	cmnvs	sp, r0, lsl #14
     938:	27010078 	smlsdxcs	r1, r8, r0, r0
     93c:	0002080b 	andeq	r0, r2, fp, lsl #16
     940:	00029c00 	andeq	r9, r2, r0, lsl #24
     944:	00029a00 	andeq	r9, r2, r0, lsl #20
     948:	81c41900 	bichi	r1, r4, r0, lsl #18
     94c:	06e90000 	strbteq	r0, [r9], r0
     950:	06740000 	ldrbteq	r0, [r4], -r0
     954:	011a0000 	tsteq	sl, r0
     958:	00760250 	rsbseq	r0, r6, r0, asr r2
     95c:	81d01b00 	bicshi	r1, r0, r0, lsl #22
     960:	06850000 	streq	r0, [r5], r0
     964:	011a0000 	tsteq	sl, r0
     968:	00760250 	rsbseq	r0, r6, r0, asr r2
     96c:	ed140000 	ldc	0, cr0, [r4, #-0]
     970:	01000002 	tsteq	r0, r2
     974:	0208071e 	andeq	r0, r8, #7864320	; 0x780000
     978:	81780000 	cmnhi	r8, r0
     97c:	00200000 	eoreq	r0, r0, r0
     980:	9c010000 	stcls	0, cr0, [r1], {-0}
     984:	000006e9 	andeq	r0, r0, r9, ror #13
     988:	01006820 	tsteq	r0, r0, lsr #16
     98c:	0228191e 	eoreq	r1, r8, #491520	; 0x78000
     990:	02b30000 	adcseq	r0, r3, #0, 0
     994:	02af0000 	adceq	r0, pc, #0, 0
     998:	59220000 	stmdbpl	r2!, {}	; <UNPREDICTABLE>
     99c:	8c000007 	stchi	0, cr0, [r0], {7}
     9a0:	00000081 	andeq	r0, r0, r1, lsl #1
     9a4:	0000818c 	andeq	r8, r0, ip, lsl #3
     9a8:	00000004 	andeq	r0, r0, r4
     9ac:	d8262001 	stmdale	r6!, {r0, sp}
     9b0:	23000006 	movwcs	r0, #6
     9b4:	0000076a 	andeq	r0, r0, sl, ror #14
     9b8:	000002d3 	ldrdeq	r0, [r0], -r3
     9bc:	000002d1 	ldrdeq	r0, [r0], -r1
     9c0:	818c1b00 	orrhi	r1, ip, r0, lsl #22
     9c4:	06e90000 	strbteq	r0, [r9], r0
     9c8:	011a0000 	tsteq	sl, r0
     9cc:	00740250 	rsbseq	r0, r4, r0, asr r2
     9d0:	e0140000 	ands	r0, r4, r0
     9d4:	01000002 	tsteq	r0, r2
     9d8:	02080718 	andeq	r0, r8, #24, 14	; 0x600000
     9dc:	81540000 	cmphi	r4, r0
     9e0:	00140000 	andseq	r0, r4, r0
     9e4:	9c010000 	stcls	0, cr0, [r1], {-0}
     9e8:	00000716 	andeq	r0, r0, r6, lsl r7
     9ec:	01006820 	tsteq	r0, r0, lsr #16
     9f0:	02281b18 	eoreq	r1, r8, #24, 22	; 0x6000
     9f4:	02ea0000 	rsceq	r0, sl, #0, 0
     9f8:	02e60000 	rsceq	r0, r6, #0, 0
     9fc:	14000000 	strne	r0, [r0], #-0
     a00:	000002b6 			; <UNDEFINED> instruction: 0x000002b6
     a04:	28081101 	stmdacs	r8, {r0, r8, ip}
     a08:	24000002 	strcs	r0, [r0], #-2
     a0c:	1c000081 	stcne	0, cr0, [r0], {129}	; 0x81
     a10:	01000000 	mrseq	r0, (UNDEF: 0)
     a14:	0007439c 	muleq	r7, ip, r3
     a18:	00702000 	rsbseq	r2, r0, r0
     a1c:	281b1101 	ldmdacs	fp, {r0, r8, ip}
     a20:	0f000002 	svceq	0x00000002
     a24:	0b000003 	bleq	a38 <__code_start__-0x75c8>
     a28:	00000003 	andeq	r0, r0, r3
     a2c:	00024624 	andeq	r4, r2, r4, lsr #12
     a30:	080b0100 	stmdaeq	fp, {r8}
     a34:	00000228 	andeq	r0, r0, r8, lsr #4
     a38:	000080f8 	strdeq	r8, [r0], -r8	; <UNPREDICTABLE>
     a3c:	0000001c 	andeq	r0, r0, ip, lsl r0
     a40:	01259c01 			; <UNDEFINED> instruction: 0x01259c01
     a44:	02000003 	andeq	r0, r0, #3, 0
     a48:	002c182f 	eoreq	r1, ip, pc, lsr #16
     a4c:	75030000 	strvc	r0, [r3, #-0]
     a50:	26000007 	strcs	r0, [r0], -r7
     a54:	2f020068 	svccs	0x00020068
     a58:	00022829 	andeq	r2, r2, r9, lsr #16
     a5c:	0b270000 	bleq	9c0a64 <__bss_end__+0x9b57cc>
     a60:	0b000003 	bleq	a74 <__code_start__-0x758c>
     a64:	06000003 	streq	r0, [r0], -r3
     a68:	f227071e 	vaba.s32	d0, d7, d14
     a6c:	f2000001 	vhadd.s8	d0, d0, d1
     a70:	04000001 	streq	r0, [r0], #-1
     a74:	2e2707f2 	mcrcs	7, 1, r0, cr7, cr2, {7}
     a78:	2e000006 	cdpcs	0, 0, cr0, cr0, cr6, {0}
     a7c:	04000006 	streq	r0, [r0], #-6
     a80:	5b270628 	blpl	9c2328 <__bss_end__+0x9b7090>
     a84:	5b000002 	blpl	a94 <__code_start__-0x756c>
     a88:	07000002 	streq	r0, [r0, -r2]
     a8c:	45270504 	strmi	r0, [r7, #-1284]!	; 0xfffffafc
     a90:	45000000 	strmi	r0, [r0, #-0]
     a94:	04000000 	streq	r0, [r0], #-0
     a98:	ec00066e 	stc	6, cr0, [r0], {110}	; 0x6e
     a9c:	04000002 	streq	r0, [r0], #-2
     aa0:	0003b000 	andeq	fp, r3, r0
     aa4:	65010400 	strvs	r0, [r1, #-1024]	; 0xfffffc00
     aa8:	0c000000 	stceq	0, cr0, [r0], {-0}
     aac:	00000342 	andeq	r0, r0, r2, asr #6
     ab0:	00000160 	andeq	r0, r0, r0, ror #2
     ab4:	000084dc 	ldrdeq	r8, [r0], -ip
     ab8:	00000200 	andeq	r0, r0, r0, lsl #4
     abc:	00000438 	andeq	r0, r0, r8, lsr r4
     ac0:	69050402 	stmdbvs	r5, {r1, sl}
     ac4:	0300746e 	movweq	r7, #1134	; 0x46e
     ac8:	01b00704 	lslseq	r0, r4, #14
     acc:	01030000 	mrseq	r0, (UNDEF: 3)
     ad0:	00015406 	andeq	r5, r1, r6, lsl #8
     ad4:	05020300 	streq	r0, [r2, #-768]	; 0xfffffd00
     ad8:	000001de 	ldrdeq	r0, [r0], -lr
     adc:	c2050403 	andgt	r0, r5, #50331648	; 0x3000000
     ae0:	03000001 	movweq	r0, #1
     ae4:	01bd0508 			; <UNDEFINED> instruction: 0x01bd0508
     ae8:	01030000 	mrseq	r0, (UNDEF: 3)
     aec:	00015208 	andeq	r5, r1, r8, lsl #4
     af0:	07020300 	streq	r0, [r2, -r0, lsl #6]
     af4:	00000052 	andeq	r0, r0, r2, asr r0
     af8:	ab070403 	blge	1c1b0c <__bss_end__+0x1b6874>
     afc:	03000001 	movweq	r0, #1
     b00:	01a60708 			; <UNDEFINED> instruction: 0x01a60708
     b04:	25040000 	strcs	r0, [r4, #-0]
     b08:	7a000000 	bvc	b10 <__code_start__-0x74f0>
     b0c:	05000000 	streq	r0, [r0, #-0]
     b10:	00000025 	andeq	r0, r0, r5, lsr #32
     b14:	01cb0600 	biceq	r0, fp, r0, lsl #12
     b18:	1c020000 	stcne	0, cr0, [r2], {-0}
     b1c:	0000860e 	andeq	r8, r0, lr, lsl #12
     b20:	6b040700 	blvs	102728 <__bss_end__+0xf7490>
     b24:	04000000 	streq	r0, [r0], #-0
     b28:	00000025 	andeq	r0, r0, r5, lsr #32
     b2c:	0000009b 	muleq	r0, fp, r0
     b30:	00009b05 	andeq	r9, r0, r5, lsl #22
     b34:	04070000 	streq	r0, [r7], #-0
     b38:	000000a8 	andeq	r0, r0, r8, lsr #1
     b3c:	5b080103 	blpl	200f50 <__bss_end__+0x1f5cb8>
     b40:	08000001 	stmdaeq	r0, {r0}
     b44:	000000a1 	andeq	r0, r0, r1, lsr #1
     b48:	00066c06 	andeq	r6, r6, r6, lsl #24
     b4c:	0e210200 	cdpeq	2, 2, cr0, cr1, cr0, {0}
     b50:	000000b9 	strheq	r0, [r0], -r9
     b54:	008c0407 	addeq	r0, ip, r7, lsl #8
     b58:	27090000 	strcs	r0, [r9, -r0]
     b5c:	08000003 	stmdaeq	r0, {r0, r1}
     b60:	ec070501 	cfstr32	mvfx0, [r7], {1}
     b64:	0a000000 	beq	b6c <__code_start__-0x7494>
     b68:	07010064 	streq	r0, [r1, -r4, rrx]
     b6c:	0000ec09 	andeq	lr, r0, r9, lsl #24
     b70:	00700a00 	rsbseq	r0, r0, r0, lsl #20
     b74:	f3080801 	vsub.i8	d0, d8, d1
     b78:	0a000000 	beq	b80 <__code_start__-0x7480>
     b7c:	01007066 	tsteq	r0, r6, rrx
     b80:	00f60909 	rscseq	r0, r6, r9, lsl #18
     b84:	03000000 	movweq	r0, #0
     b88:	034e0408 	movteq	r0, #58376	; 0xe408
     b8c:	040b0000 	streq	r0, [fp], #-0
     b90:	f504070c 			; <UNDEFINED> instruction: 0xf504070c
     b94:	0d000000 	stceq	0, cr0, [r0, #-0]
     b98:	020e0108 	andeq	r0, lr, #2
     b9c:	00000120 	andeq	r0, r0, r0, lsr #2
     ba0:	7274700e 	rsbsvc	r7, r4, #14, 0
     ba4:	11100100 	tstne	r0, r0, lsl #2
     ba8:	00000142 	andeq	r0, r0, r2, asr #2
     bac:	03680f00 	cmneq	r8, #0, 30
     bb0:	11010000 	mrsne	r0, (UNDEF: 1)
     bb4:	00002c0c 	andeq	r2, r0, ip, lsl #24
     bb8:	09000400 	stmdbeq	r0, {sl}
     bbc:	0000031a 	andeq	r0, r0, sl, lsl r3
     bc0:	0f0c0108 	svceq	0x000c0108
     bc4:	00000142 	andeq	r0, r0, r2, asr #2
     bc8:	0100730a 	tsteq	r0, sl, lsl #6
     bcc:	00fc0412 	rscseq	r0, ip, r2, lsl r4
     bd0:	780a0000 	stmdavc	sl, {}	; <UNPREDICTABLE>
     bd4:	0e130100 	mufeqs	f0, f3, f0
     bd8:	000000bf 	strheq	r0, [r0], -pc	; <UNPREDICTABLE>
     bdc:	20040700 	andcs	r0, r4, r0, lsl #14
     be0:	10000001 	andne	r0, r0, r1
     be4:	0000036d 	andeq	r0, r0, sp, ror #6
     be8:	20031401 	andcs	r1, r3, r1, lsl #8
     bec:	11000001 	tstne	r0, r1
     bf0:	00000355 	andeq	r0, r0, r5, asr r3
     bf4:	480f1801 	stmdami	pc, {r0, fp, ip}	; <UNPREDICTABLE>
     bf8:	05000001 	streq	r0, [r0, #-1]
     bfc:	00ae8003 	adceq	r8, lr, r3
     c00:	03351100 	teqeq	r5, #0
     c04:	19010000 	stmdbne	r1, {}	; <UNPREDICTABLE>
     c08:	00017810 	andeq	r7, r1, r0, lsl r8
     c0c:	78030500 	stmdavc	r3, {r8, sl}
     c10:	070000ae 	streq	r0, [r0, -lr, lsr #1]
     c14:	00014804 	andeq	r4, r1, r4, lsl #16
     c18:	032d1200 			; <UNDEFINED> instruction: 0x032d1200
     c1c:	53010000 	movwpl	r0, #4096	; 0x1000
     c20:	0084e806 	addeq	lr, r4, r6, lsl #16
     c24:	0000c400 	andeq	ip, r0, r0, lsl #8
     c28:	c79c0100 	ldrgt	r0, [ip, r0, lsl #2]
     c2c:	13000001 	movwne	r0, #1
     c30:	01007061 	tsteq	r0, r1, rrx
     c34:	00f31453 	rscseq	r1, r3, r3, asr r4
     c38:	50010000 	andpl	r0, r1, r0
     c3c:	00706214 	rsbseq	r6, r0, r4, lsl r2
     c40:	780a5501 	stmdavc	sl, {r0, r8, sl, ip, lr}
     c44:	38000001 	stmdacc	r0, {r0}
     c48:	30000003 	andcc	r0, r0, r3
     c4c:	14000003 	strne	r0, [r0], #-3
     c50:	55010070 	strpl	r0, [r1, #-112]	; 0xffffff90
     c54:	0001780f 	andeq	r7, r1, pc, lsl #16
     c58:	00037400 	andeq	r7, r3, r0, lsl #8
     c5c:	00037000 	andeq	r7, r3, r0
     c60:	0b150000 	bleq	540c68 <__bss_end__+0x5359d0>
     c64:	01000003 	tsteq	r0, r3
     c68:	00f3072b 	rscseq	r0, r3, fp, lsr #14
     c6c:	86280000 	strthi	r0, [r8], -r0
     c70:	00b40000 	adcseq	r0, r4, r0
     c74:	9c010000 	stcls	0, cr0, [r1], {-0}
     c78:	00000241 	andeq	r0, r0, r1, asr #4
     c7c:	00030416 	andeq	r0, r3, r6, lsl r4
     c80:	1a2b0100 	bne	ac1088 <__bss_end__+0xab5df0>
     c84:	0000002c 	andeq	r0, r0, ip, lsr #32
     c88:	0000039a 	muleq	r0, sl, r3
     c8c:	00000392 	muleq	r0, r2, r3
     c90:	01007014 	tsteq	r0, r4, lsl r0
     c94:	01780a2d 	cmneq	r8, sp, lsr #20
     c98:	03e20000 	mvneq	r0, #0, 0
     c9c:	03d40000 	bicseq	r0, r4, #0, 0
     ca0:	21170000 	tstcs	r7, r0
     ca4:	01000003 	tsteq	r0, r3
     ca8:	01780e2d 	cmneq	r8, sp, lsr #28
     cac:	04440000 	strbeq	r0, [r4], #-0
     cb0:	043a0000 	ldrteq	r0, [sl], #-0
     cb4:	3b170000 	blcc	5c0cbc <__bss_end__+0x5b5a24>
     cb8:	01000003 	tsteq	r0, r3
     cbc:	002c0b2e 	eoreq	r0, ip, lr, lsr #22
     cc0:	048a0000 	streq	r0, [sl], #0
     cc4:	04880000 	streq	r0, [r8], #0
     cc8:	cc180000 	ldcgt	0, cr0, [r8], {-0}
     ccc:	41000086 	smlabbmi	r0, r6, r0, r0
     cd0:	19000002 	stmdbne	r0, {r1}
     cd4:	0a035001 	beq	d4ce0 <__bss_end__+0xc9a48>
     cd8:	00008000 	andeq	r8, r0, r0
     cdc:	00035f1a 	andeq	r5, r3, sl, lsl pc
     ce0:	101c0100 	andsne	r0, ip, r0, lsl #2
     ce4:	00000178 	andeq	r0, r0, r8, ror r1
     ce8:	000085bc 			; <UNDEFINED> instruction: 0x000085bc
     cec:	0000005c 	andeq	r0, r0, ip, asr r0
     cf0:	02d19c01 	sbcseq	r9, r1, #256	; 0x100
     cf4:	6e1b0000 	cdpvs	0, 1, cr0, cr11, cr0, {0}
     cf8:	1c010075 	stcne	0, cr0, [r1], {117}	; 0x75
     cfc:	00002c22 	andeq	r2, r0, r2, lsr #24
     d00:	0004a100 	andeq	sl, r4, r0, lsl #2
     d04:	00049d00 	andeq	r9, r4, r0, lsl #26
     d08:	70631400 	rsbvc	r1, r3, r0, lsl #8
     d0c:	08210100 	stmdaeq	r1!, {r8}
     d10:	000002d1 	ldrdeq	r0, [r0], -r1
     d14:	000004c5 	andeq	r0, r0, r5, asr #9
     d18:	000004bf 			; <UNDEFINED> instruction: 0x000004bf
     d1c:	00707514 	rsbseq	r7, r0, r4, lsl r5
     d20:	780a2401 	stmdavc	sl, {r0, sl, sp}
     d24:	f4000001 	vst4.8	{d0-d3}, [r0], r1
     d28:	f0000004 			; <UNDEFINED> instruction: 0xf0000004
     d2c:	1c000004 	stcne	0, cr0, [r0], {4}
     d30:	000085e0 	andeq	r8, r0, r0, ror #11
     d34:	000002d7 	ldrdeq	r0, [r0], -r7
     d38:	000002b1 			; <UNDEFINED> instruction: 0x000002b1
     d3c:	05500119 	ldrbeq	r0, [r0, #-281]	; 0xfffffee7
     d40:	00a70803 	adceq	r0, r7, r3, lsl #16
     d44:	51011900 	tstpl	r1, r0, lsl #18
     d48:	00007402 	andeq	r7, r0, r2, lsl #8
     d4c:	0085e81c 	addeq	lr, r5, ip, lsl r8
     d50:	0002e300 	andeq	lr, r2, r0, lsl #6
     d54:	0002c700 	andeq	ip, r2, r0, lsl #14
     d58:	50011900 	andpl	r1, r1, r0, lsl #18
     d5c:	33007404 	movwcc	r7, #1028	; 0x404
     d60:	fc1d0024 	ldc2	0, cr0, [sp], {36}	; 0x24
     d64:	7e000085 	cdpvc	0, 0, cr0, cr0, cr5, {4}
     d68:	00000001 	andeq	r0, r0, r1
     d6c:	00a10407 	adceq	r0, r1, r7, lsl #8
     d70:	2e1e0000 	cdpcs	0, 1, cr0, cr14, cr0, {0}
     d74:	2e000006 	cdpcs	0, 0, cr0, cr0, cr6, {0}
     d78:	02000006 	andeq	r0, r0, #6, 0
     d7c:	5a1e0628 	bpl	782624 <__bss_end__+0x77738c>
     d80:	5a000003 	bpl	d94 <__code_start__-0x726c>
     d84:	03000003 	movweq	r0, #3
     d88:	d1000b1a 	tstle	r0, sl, lsl fp
     d8c:	0400000e 	streq	r0, [r0], #-14
     d90:	00058700 	andeq	r8, r5, r0, lsl #14
     d94:	65010400 	strvs	r0, [r1, #-1024]	; 0xfffffc00
     d98:	0c000000 	stceq	0, cr0, [r0], {-0}
     d9c:	0000044e 	andeq	r0, r0, lr, asr #8
     da0:	00000160 	andeq	r0, r0, r0, ror #2
     da4:	000086dc 	ldrdeq	r8, [r0], -ip
     da8:	0000081c 	andeq	r0, r0, ip, lsl r8
     dac:	00000664 	andeq	r0, r0, r4, ror #12
     db0:	69050402 	stmdbvs	r5, {r1, sl}
     db4:	0300746e 	movweq	r7, #1134	; 0x46e
     db8:	01b00704 	lslseq	r0, r4, #14
     dbc:	01030000 	mrseq	r0, (UNDEF: 3)
     dc0:	00015406 	andeq	r5, r1, r6, lsl #8
     dc4:	05020300 	streq	r0, [r2, #-768]	; 0xfffffd00
     dc8:	000001de 	ldrdeq	r0, [r0], -lr
     dcc:	c2050403 	andgt	r0, r5, #50331648	; 0x3000000
     dd0:	03000001 	movweq	r0, #1
     dd4:	01bd0508 			; <UNDEFINED> instruction: 0x01bd0508
     dd8:	53040000 	movwpl	r0, #16384	; 0x4000
     ddc:	03000002 	movweq	r0, #2
     de0:	005b182e 	subseq	r1, fp, lr, lsr #16
     de4:	01030000 	mrseq	r0, (UNDEF: 3)
     de8:	00015208 	andeq	r5, r1, r8, lsl #4
     dec:	029b0400 	addseq	r0, fp, #0, 8
     df0:	31030000 	mrscc	r0, (UNDEF: 3)
     df4:	00006e19 	andeq	r6, r0, r9, lsl lr
     df8:	07020300 	streq	r0, [r2, -r0, lsl #6]
     dfc:	00000052 	andeq	r0, r0, r2, asr r0
     e00:	00029204 	andeq	r9, r2, r4, lsl #4
     e04:	19340300 	ldmdbne	r4!, {r8, r9}
     e08:	00000081 	andeq	r0, r0, r1, lsl #1
     e0c:	ab070403 	blge	1c1e20 <__bss_end__+0x1b6b88>
     e10:	03000001 	movweq	r0, #1
     e14:	01a60708 			; <UNDEFINED> instruction: 0x01a60708
     e18:	25050000 	strcs	r0, [r5, #-0]
     e1c:	9e000000 	cdpls	0, 0, cr0, cr0, cr0, {0}
     e20:	06000000 	streq	r0, [r0], -r0
     e24:	00000025 	andeq	r0, r0, r5, lsr #32
     e28:	01cb0700 	biceq	r0, fp, r0, lsl #14
     e2c:	1c040000 	stcne	0, cr0, [r4], {-0}
     e30:	0000aa0e 	andeq	sl, r0, lr, lsl #20
     e34:	8f040800 	svchi	0x00040800
     e38:	05000000 	streq	r0, [r0, #-0]
     e3c:	00000025 	andeq	r0, r0, r5, lsr #32
     e40:	000000bf 	strheq	r0, [r0], -pc	; <UNPREDICTABLE>
     e44:	0000bf06 	andeq	fp, r0, r6, lsl #30
     e48:	04080000 	streq	r0, [r8], #-0
     e4c:	000000cc 	andeq	r0, r0, ip, asr #1
     e50:	5b080103 	blpl	201264 <__bss_end__+0x1f5fcc>
     e54:	09000001 	stmdbeq	r0, {r0}
     e58:	000000c5 	andeq	r0, r0, r5, asr #1
     e5c:	00066c07 	andeq	r6, r6, r7, lsl #24
     e60:	0e210400 	cdpeq	4, 2, cr0, cr1, cr0, {0}
     e64:	000000dd 	ldrdeq	r0, [r0], -sp
     e68:	00b00408 	adcseq	r0, r0, r8, lsl #8
     e6c:	0c0a0000 	stceq	0, cr0, [sl], {-0}
     e70:	14090502 	strne	r0, [r9], #-1282	; 0xfffffafe
     e74:	0b000001 	bleq	e80 <__code_start__-0x7180>
     e78:	00000024 	andeq	r0, r0, r4, lsr #32
     e7c:	bf110702 	svclt	0x00110702
     e80:	00000000 	andeq	r0, r0, r0
     e84:	0001940b 	andeq	r9, r1, fp, lsl #8
     e88:	11080200 	mrsne	r0, R8_fiq
     e8c:	000000bf 	strheq	r0, [r0], -pc	; <UNPREDICTABLE>
     e90:	00150b04 	andseq	r0, r5, r4, lsl #22
     e94:	09020000 	stmdbeq	r2, {}	; <UNPREDICTABLE>
     e98:	00002c0e 	andeq	r2, r0, lr, lsl #24
     e9c:	04000800 	streq	r0, [r0], #-2048	; 0xfffff800
     ea0:	000001e8 	andeq	r0, r0, r8, ror #3
     ea4:	e3030a02 	movw	r0, #14850	; 0x3a02
     ea8:	0c000000 	stceq	0, cr0, [r0], {-0}
     eac:	005b0107 	subseq	r0, fp, r7, lsl #2
     eb0:	09050000 	stmdbeq	r5, {}	; <UNPREDICTABLE>
     eb4:	00013b0e 	andeq	r3, r1, lr, lsl #22
     eb8:	02d80d00 	sbcseq	r0, r8, #0, 26
     ebc:	0d0b0000 	stceq	0, cr0, [fp, #-0]
     ec0:	00000218 	andeq	r0, r0, r8, lsl r2
     ec4:	070c000c 	streq	r0, [ip, -ip]
     ec8:	00005b01 	andeq	r5, r0, r1, lsl #22
     ecc:	060a0500 	streq	r0, [sl], -r0, lsl #10
     ed0:	00000156 	andeq	r0, r0, r6, asr r1
     ed4:	0002370d 	andeq	r3, r2, sp, lsl #14
     ed8:	2b0d8000 	blcs	360ee0 <__bss_end__+0x355c48>
     edc:	fe000002 	cdp2	0, 0, cr0, cr0, cr2, {0}
     ee0:	02700e00 	rsbseq	r0, r0, #0, 28
     ee4:	05b40000 	ldreq	r0, [r4, #0]!
     ee8:	01e6100d 	mvneq	r1, sp
     eec:	150b0000 	strne	r0, [fp, #-0]
     ef0:	05000003 	streq	r0, [r0, #-3]
     ef4:	01e6140e 	mvneq	r1, lr, lsl #8
     ef8:	0b000000 	bleq	f00 <__code_start__-0x7100>
     efc:	0000021e 	andeq	r0, r0, lr, lsl r2
     f00:	750e0f05 	strvc	r0, [lr, #-3845]	; 0xfffff0fb
     f04:	04000000 	streq	r0, [r0], #-0
     f08:	0002810b 	andeq	r8, r2, fp, lsl #2
     f0c:	0e100500 	cfmul32eq	mvfx0, mvfx0, mvfx0
     f10:	00000075 	andeq	r0, r0, r5, ror r0
     f14:	020f0b08 	andeq	r0, pc, #8, 22	; 0x2000
     f18:	14050000 	strne	r0, [r5], #-0
     f1c:	0000750e 	andeq	r7, r0, lr, lsl #10
     f20:	770b0c00 	strvc	r0, [fp, -r0, lsl #24]
     f24:	05000002 	streq	r0, [r0, #-2]
     f28:	01140f16 	tsteq	r4, r6, lsl pc
     f2c:	0b100000 	bleq	400f34 <__bss_end__+0x3f5c9c>
     f30:	000002f8 	strdeq	r0, [r0], -r8
     f34:	140f1705 	strne	r1, [pc], #-1797	; f3c <__code_start__-0x70c4>
     f38:	1c000001 	stcne	0, cr0, [r0], {1}
     f3c:	0002870b 	andeq	r8, r2, fp, lsl #14
     f40:	0e1a0500 	cfmul32eq	mvfx0, mvfx10, mvfx0
     f44:	00000075 	andeq	r0, r0, r5, ror r0
     f48:	02cc0b28 	sbceq	r0, ip, #40, 22	; 0xa000
     f4c:	1b050000 	blne	140f54 <__bss_end__+0x135cbc>
     f50:	0000750e 	andeq	r7, r0, lr, lsl #10
     f54:	c40b2c00 	strgt	r2, [fp], #-3072	; 0xfffff400
     f58:	05000003 	streq	r0, [r0, #-3]
     f5c:	00620e1d 	rsbeq	r0, r2, sp, lsl lr
     f60:	0f300000 	svceq	0x00300000
     f64:	00317a72 	eorseq	r7, r1, r2, ror sl
     f68:	ec0d1f05 	stc	15, cr1, [sp], {5}
     f6c:	32000001 	andcc	r0, r0, #1, 0
     f70:	56040800 	strpl	r0, [r4], -r0, lsl #16
     f74:	10000001 	andne	r0, r0, r1
     f78:	0000004f 	andeq	r0, r0, pc, asr #32
     f7c:	000001fc 	strdeq	r0, [r0], -ip
     f80:	00002c11 	andeq	r2, r0, r1, lsl ip
     f84:	04007f00 	streq	r7, [r0], #-3840	; 0xfffff100
     f88:	00000209 	andeq	r0, r0, r9, lsl #4
     f8c:	56032005 	strpl	r2, [r3], -r5
     f90:	12000001 	andne	r0, r0, #1, 0
     f94:	00000704 	andeq	r0, r0, r4, lsl #14
     f98:	a6050000 	strge	r0, [r5], -r0
     f9c:	00002c11 	andeq	r2, r0, r1, lsl ip
     fa0:	0ad41300 	beq	ff505ba8 <__bss_end__+0xff4fa910>
     fa4:	10010000 	andne	r0, r1, r0
     fa8:	0002080e 	andeq	r0, r2, lr, lsl #16
     fac:	88030500 	stmdahi	r3, {r8, sl}
     fb0:	130000ae 	movwne	r0, #174	; 0xae
     fb4:	00000b2f 	andeq	r0, r0, pc, lsr #22
     fb8:	080e1101 	stmdaeq	lr, {r0, r8, ip}
     fbc:	05000002 	streq	r0, [r0, #-2]
     fc0:	00ae8c03 	adceq	r8, lr, r3, lsl #24
     fc4:	03871400 	orreq	r1, r7, #0, 8
     fc8:	32010000 	andcc	r0, r1, #0, 0
     fcc:	8ec80601 	cdphi	6, 12, cr0, cr8, cr1, {0}
     fd0:	00300000 	eorseq	r0, r0, r0
     fd4:	9c010000 	stcls	0, cr0, [r1], {-0}
     fd8:	0000029a 	muleq	r0, sl, r2
     fdc:	00019915 	andeq	r9, r1, r5, lsl r9
     fe0:	0002aa00 	andeq	sl, r2, r0, lsl #20
     fe4:	cc030500 	cfstr32gt	mvfx0, [r3], {-0}
     fe8:	160000aa 	strne	r0, [r0], -sl, lsr #1
     fec:	00008ee8 	andeq	r8, r0, r8, ror #29
     ff0:	00000e4d 	andeq	r0, r0, sp, asr #28
     ff4:	00000290 	muleq	r0, r0, r2
     ff8:	05500117 	ldrbeq	r0, [r0, #-279]	; 0xfffffee9
     ffc:	00aa5c03 	adceq	r5, sl, r3, lsl #24
    1000:	51011700 	tstpl	r1, r0, lsl #14
    1004:	a72c0305 	strge	r0, [ip, -r5, lsl #6]!
    1008:	01170000 	tsteq	r7, r0
    100c:	cc030552 	cfstr32gt	mvfx0, [r3], {82}	; 0x52
    1010:	170000aa 	strne	r0, [r0, -sl, lsr #1]
    1014:	0a035301 	beq	d5c20 <__bss_end__+0xca988>
    1018:	18000134 	stmdane	r0, {r2, r4, r5, r8}
    101c:	00008eec 	andeq	r8, r0, ip, ror #29
    1020:	00000e59 	andeq	r0, r0, r9, asr lr
    1024:	00cc1000 	sbceq	r1, ip, r0
    1028:	02aa0000 	adceq	r0, sl, #0, 0
    102c:	2c110000 	ldccs	0, cr0, [r1], {-0}
    1030:	0e000000 	cdpeq	0, 0, cr0, cr0, cr0, {0}
    1034:	029a0900 	addseq	r0, sl, #0, 18
    1038:	ee190000 	cdp	0, 1, cr0, cr9, cr0, {0}
    103c:	01000003 	tsteq	r0, r3
    1040:	2c0a0128 	stfcss	f0, [sl], {40}	; 0x28
    1044:	9c000000 	stcls	0, cr0, [r0], {-0}
    1048:	1800008e 	stmdane	r0, {r1, r2, r3, r7}
    104c:	01000000 	mrseq	r0, (UNDEF: 0)
    1050:	0002f29c 	muleq	r2, ip, r2
    1054:	03041a00 	movweq	r1, #18944	; 0x4a00
    1058:	2b010000 	blcs	41060 <__bss_end__+0x35dc8>
    105c:	002c0e01 	eoreq	r0, ip, r1, lsl #28
    1060:	05160000 	ldreq	r0, [r6, #-0]
    1064:	05140000 	ldreq	r0, [r4, #-0]
    1068:	ac180000 	ldcge	0, cr0, [r8], {-0}
    106c:	3d00008e 	stccc	0, cr0, [r0, #-568]	; 0xfffffdc8
    1070:	18000009 	stmdane	r0, {r0, r3}
    1074:	00008eb0 			; <UNDEFINED> instruction: 0x00008eb0
    1078:	000002f2 	strdeq	r0, [r0], -r2
    107c:	04c41b00 	strbeq	r1, [r4], #2816	; 0xb00
    1080:	10010000 	andne	r0, r1, r0
    1084:	002c1101 	eoreq	r1, ip, r1, lsl #2
    1088:	8ac00000 	bhi	ff001090 <__bss_end__+0xfeff5df8>
    108c:	00e40000 	rsceq	r0, r4, r0
    1090:	9c010000 	stcls	0, cr0, [r1], {-0}
    1094:	00000461 	andeq	r0, r0, r1, ror #8
    1098:	0003a41a 	andeq	sl, r3, sl, lsl r4
    109c:	01120100 	tsteq	r2, r0, lsl #2
    10a0:	00002c0e 	andeq	r2, r0, lr, lsl #24
    10a4:	00052d00 	andeq	r2, r5, r0, lsl #26
    10a8:	00052900 	andeq	r2, r5, r0, lsl #18
    10ac:	042b1a00 	strteq	r1, [fp], #-2560	; 0xfffff600
    10b0:	12010000 	andne	r0, r1, #0, 0
    10b4:	002c1b01 	eoreq	r1, ip, r1, lsl #22
    10b8:	05500000 	ldrbeq	r0, [r0, #-0]
    10bc:	054c0000 	strbeq	r0, [ip, #-0]
    10c0:	b31a0000 	tstlt	sl, #0, 0
    10c4:	01000003 	tsteq	r0, r3
    10c8:	2c270112 	stfcss	f0, [r7], #-72	; 0xffffffb8
    10cc:	75000000 	strvc	r0, [r0, #-0]
    10d0:	6f000005 	svcvs	0x00000005
    10d4:	15000005 	strne	r0, [r0, #-5]
    10d8:	00000199 	muleq	r0, r9, r1
    10dc:	00000471 	andeq	r0, r0, r1, ror r4
    10e0:	aa940305 	bge	fe501cfc <__bss_end__+0xfe4f6a64>
    10e4:	601c0000 	andsvs	r0, ip, r0
    10e8:	04000000 	streq	r0, [r0], #-0
    10ec:	1d000004 	stcne	0, cr0, [r0, #-16]
    10f0:	17010068 	strne	r0, [r1, -r8, rrx]
    10f4:	04761101 	ldrbteq	r1, [r6], #-257	; 0xfffffeff
    10f8:	05a70000 	streq	r0, [r7, #0]!
    10fc:	059f0000 	ldreq	r0, [pc]	; 1104 <__code_start__-0x6efc>
    1100:	171e0000 	ldrne	r0, [lr, -r0]
    1104:	0c00000e 	stceq	0, cr0, [r0], {14}
    1108:	0000008b 	andeq	r0, r0, fp, lsl #1
    110c:	00008b0c 	andeq	r8, r0, ip, lsl #22
    1110:	00000018 	andeq	r0, r0, r8, lsl r0
    1114:	0d011e01 	stceq	14, cr1, [r1, #-4]
    1118:	000003b9 			; <UNDEFINED> instruction: 0x000003b9
    111c:	000e401f 	andeq	r4, lr, pc, lsl r0
    1120:	0005dd00 	andeq	sp, r5, r0, lsl #26
    1124:	0005db00 	andeq	sp, r5, r0, lsl #22
    1128:	0e341f00 	cdpeq	15, 3, cr1, cr4, cr0, {0}
    112c:	05f50000 	ldrbeq	r0, [r5, #0]!
    1130:	05f30000 	ldrbeq	r0, [r3, #0]!
    1134:	281f0000 	ldmdacs	pc, {}	; <UNPREDICTABLE>
    1138:	0f00000e 	svceq	0x0000000e
    113c:	0d000006 	stceq	0, cr0, [r0, #-24]	; 0xffffffe8
    1140:	00000006 	andeq	r0, r0, r6
    1144:	008ae818 	addeq	lr, sl, r8, lsl r8
    1148:	000e7400 	andeq	r7, lr, r0, lsl #8
    114c:	8b341600 	blhi	d06954 <__bss_end__+0xcfb6bc>
    1150:	0e800000 	cdpeq	0, 8, cr0, cr0, cr0, {0}
    1154:	03d60000 	bicseq	r0, r6, #0, 0
    1158:	01170000 	tsteq	r7, r0
    115c:	00760250 	rsbseq	r0, r6, r0, asr r2
    1160:	8b401600 	blhi	1006968 <__bss_end__+0xffb6d0>
    1164:	0e4d0000 	cdpeq	0, 4, cr0, cr13, cr0, {0}
    1168:	03f30000 	mvnseq	r0, #0, 0
    116c:	01170000 	tsteq	r7, r0
    1170:	08030550 	stmdaeq	r3, {r4, r6, r8, sl}
    1174:	170000a9 	strne	r0, [r0, -r9, lsr #1]
    1178:	76025101 	strvc	r5, [r2], -r1, lsl #2
    117c:	48200000 	stmdami	r0!, {}	; <UNPREDICTABLE>
    1180:	8c00008b 	stchi	0, cr0, [r0], {139}	; 0x8b
    1184:	1700000e 	strne	r0, [r0, -lr]
    1188:	74025001 	strvc	r5, [r2], #-1
    118c:	16000000 	strne	r0, [r0], -r0
    1190:	00008ad8 	ldrdeq	r8, [r0], -r8	; <UNPREDICTABLE>
    1194:	00000e4d 	andeq	r0, r0, sp, asr #28
    1198:	0000041b 	andeq	r0, r0, fp, lsl r4
    119c:	05500117 	ldrbeq	r0, [r0, #-279]	; 0xfffffee9
    11a0:	00a7c403 	adceq	ip, r7, r3, lsl #8
    11a4:	e0160000 	ands	r0, r6, r0
    11a8:	4d00008a 	stcmi	0, cr0, [r0, #-552]	; 0xfffffdd8
    11ac:	3200000e 	andcc	r0, r0, #14, 0
    11b0:	17000004 	strne	r0, [r0, -r4]
    11b4:	03055001 	movweq	r5, #20481	; 0x5001
    11b8:	0000a8f8 	strdeq	sl, [r0], -r8
    11bc:	8ae41800 	bhi	ff9071c4 <__bss_end__+0xff8fbf2c>
    11c0:	093d0000 	ldmdbeq	sp!, {}	; <UNPREDICTABLE>
    11c4:	7c200000 	stcvc	0, cr0, [r0], #-0
    11c8:	4d00008b 	stcmi	0, cr0, [r0, #-556]	; 0xfffffdd4
    11cc:	1700000e 	strne	r0, [r0, -lr]
    11d0:	03055001 	movweq	r5, #20481	; 0x5001
    11d4:	0000a918 	andeq	sl, r0, r8, lsl r9
    11d8:	02510117 	subseq	r0, r1, #-1073741819	; 0xc0000005
    11dc:	01170075 	tsteq	r7, r5, ror r0
    11e0:	00780252 	rsbseq	r0, r8, r2, asr r2
    11e4:	02530117 	subseq	r0, r3, #-1073741819	; 0xc0000005
    11e8:	00000077 	andeq	r0, r0, r7, ror r0
    11ec:	0000cc10 	andeq	ip, r0, r0, lsl ip
    11f0:	00047100 	andeq	r7, r4, r0, lsl #2
    11f4:	002c1100 	eoreq	r1, ip, r0, lsl #2
    11f8:	000a0000 	andeq	r0, sl, r0
    11fc:	00046109 	andeq	r6, r4, r9, lsl #2
    1200:	fc040800 	stc2	8, cr0, [r4], {-0}
    1204:	19000001 	stmdbne	r0, {r0}
    1208:	00000456 	andeq	r0, r0, r6, asr r4
    120c:	0a010001 	beq	41218 <__bss_end__+0x35f80>
    1210:	0000002c 	andeq	r0, r0, ip, lsr #32
    1214:	00008e38 	andeq	r8, r0, r8, lsr lr
    1218:	00000058 	andeq	r0, r0, r8, asr r0
    121c:	05259c01 	streq	r9, [r5, #-3073]!	; 0xfffff3ff
    1220:	0b1a0000 	bleq	681228 <__bss_end__+0x675f90>
    1224:	01000004 	tsteq	r0, r4
    1228:	2c0e0106 	stfcss	f0, [lr], {6}
    122c:	2d000000 	stccs	0, cr0, [r0, #-0]
    1230:	27000006 	strcs	r0, [r0, -r6]
    1234:	15000006 	strne	r0, [r0, #-6]
    1238:	00000199 	muleq	r0, r9, r1
    123c:	00000535 	andeq	r0, r0, r5, lsr r5
    1240:	aab80305 	bge	fee01e5c <__bss_end__+0xfedf6bc4>
    1244:	4c160000 	ldcmi	0, cr0, [r6], {-0}
    1248:	d700008e 	strle	r0, [r0, -lr, lsl #1]
    124c:	ce000005 	cdpgt	0, 0, cr0, cr0, cr5, {0}
    1250:	17000004 	strne	r0, [r0, -r4]
    1254:	31015001 	tstcc	r1, r1
    1258:	8e601600 	cdphi	6, 6, cr1, cr0, cr0, {0}
    125c:	0e4d0000 	cdpeq	0, 4, cr0, cr13, cr0, {0}
    1260:	04eb0000 	strbteq	r0, [fp], #0
    1264:	01170000 	tsteq	r7, r0
    1268:	38030550 	stmdacc	r3, {r4, r6, r8, sl}
    126c:	170000aa 	strne	r0, [r0, -sl, lsr #1]
    1270:	74025101 	strvc	r5, [r2], #-257	; 0xfffffeff
    1274:	7c160000 	ldcvc	0, cr0, [r6], {-0}
    1278:	4d00008e 	stcmi	0, cr0, [r0, #-568]	; 0xfffffdc8
    127c:	1b00000e 	blne	12bc <__code_start__-0x6d44>
    1280:	17000005 	strne	r0, [r0, -r5]
    1284:	03055001 	movweq	r5, #20481	; 0x5001
    1288:	0000aa10 	andeq	sl, r0, r0, lsl sl
    128c:	05510117 	ldrbeq	r0, [r1, #-279]	; 0xfffffee9
    1290:	00a72c03 	adceq	r2, r7, r3, lsl #24
    1294:	52011700 	andpl	r1, r1, #0, 14
    1298:	aab80305 	bge	fee01eb4 <__bss_end__+0xfedf6c1c>
    129c:	01170000 	tsteq	r7, r0
    12a0:	080a0353 	stmdaeq	sl, {r0, r1, r4, r6, r8, r9}
    12a4:	80180001 	andshi	r0, r8, r1
    12a8:	5900008e 	stmdbpl	r0, {r1, r2, r3, r7}
    12ac:	0000000e 	andeq	r0, r0, lr
    12b0:	0000cc10 	andeq	ip, r0, r0, lsl ip
    12b4:	00053500 	andeq	r3, r5, r0, lsl #10
    12b8:	002c1100 	eoreq	r1, ip, r0, lsl #2
    12bc:	00110000 	andseq	r0, r1, r0
    12c0:	00052509 	andeq	r2, r5, r9, lsl #10
    12c4:	04322100 	ldrteq	r2, [r2], #-256	; 0xffffff00
    12c8:	f2010000 	vhadd.s8	d0, d1, d0
    12cc:	008dd006 	addeq	sp, sp, r6
    12d0:	00005000 	andeq	r5, r0, r0
    12d4:	c29c0100 	addsgt	r0, ip, #0
    12d8:	15000005 	strne	r0, [r0, #-5]
    12dc:	00000199 	muleq	r0, r9, r1
    12e0:	000005d2 	ldrdeq	r0, [r0], -r2
    12e4:	aaa80305 	bge	fea01f00 <__bss_end__+0xfe9f6c68>
    12e8:	e4160000 	ldr	r0, [r6], #-0
    12ec:	d700008d 	strle	r0, [r0, -sp, lsl #1]
    12f0:	72000005 	andvc	r0, r0, #5, 0
    12f4:	17000005 	strne	r0, [r0, -r5]
    12f8:	31015001 	tstcc	r1, r1
    12fc:	8df41600 	ldclhi	6, cr1, [r4]
    1300:	0e4d0000 	cdpeq	0, 4, cr0, cr13, cr0, {0}
    1304:	05890000 	streq	r0, [r9]
    1308:	01170000 	tsteq	r7, r0
    130c:	f0030550 			; <UNDEFINED> instruction: 0xf0030550
    1310:	000000a9 	andeq	r0, r0, r9, lsr #1
    1314:	008e0c16 	addeq	r0, lr, r6, lsl ip
    1318:	000e4d00 	andeq	r4, lr, r0, lsl #26
    131c:	0005b800 	andeq	fp, r5, r0, lsl #16
    1320:	50011700 	andpl	r1, r1, r0, lsl #14
    1324:	a9c40305 	stmibge	r4, {r0, r2, r8, r9}^
    1328:	01170000 	tsteq	r7, r0
    132c:	2c030551 	cfstr32cs	mvfx0, [r3], {81}	; 0x51
    1330:	170000a7 	strne	r0, [r0, -r7, lsr #1]
    1334:	03055201 	movweq	r5, #20993	; 0x5201
    1338:	0000aaa8 	andeq	sl, r0, r8, lsr #21
    133c:	02530117 	subseq	r0, r3, #-1073741819	; 0xc0000005
    1340:	1800f908 	stmdane	r0, {r3, r8, fp, ip, sp, lr, pc}
    1344:	00008e10 	andeq	r8, r0, r0, lsl lr
    1348:	00000e59 	andeq	r0, r0, r9, asr lr
    134c:	00cc1000 	sbceq	r1, ip, r0
    1350:	05d20000 	ldrbeq	r0, [r2]
    1354:	2c110000 	ldccs	0, cr0, [r1], {-0}
    1358:	0d000000 	stceq	0, cr0, [r0, #-0]
    135c:	05c20900 	strbeq	r0, [r2, #2304]	; 0x900
    1360:	d3220000 			; <UNDEFINED> instruction: 0xd3220000
    1364:	01000003 	tsteq	r0, r3
    1368:	002c0aeb 	eoreq	r0, ip, fp, ror #21
    136c:	8da80000 	stchi	0, cr0, [r8]
    1370:	00140000 	andseq	r0, r4, r0
    1374:	9c010000 	stcls	0, cr0, [r1], {-0}
    1378:	00000617 	andeq	r0, r0, r7, lsl r6
    137c:	0004cf23 	andeq	ip, r4, r3, lsr #30
    1380:	1ceb0100 	stfnee	f0, [fp]
    1384:	00000025 	andeq	r0, r0, r5, lsr #32
    1388:	0000065a 	andeq	r0, r0, sl, asr r6
    138c:	00000656 	andeq	r0, r0, r6, asr r6
    1390:	008db820 	addeq	fp, sp, r0, lsr #16
    1394:	00061700 	andeq	r1, r6, r0, lsl #14
    1398:	50011700 	andpl	r1, r1, r0, lsl #14
    139c:	5001f303 	andpl	pc, r1, r3, lsl #6
    13a0:	aa240000 	bge	9013a8 <__bss_end__+0x8f6110>
    13a4:	01000004 	tsteq	r0, r4
    13a8:	002c11c2 	eoreq	r1, ip, r2, asr #3
    13ac:	89b40000 	ldmibhi	r4!, {}	; <UNPREDICTABLE>
    13b0:	00fc0000 	rscseq	r0, ip, r0
    13b4:	9c010000 	stcls	0, cr0, [r1], {-0}
    13b8:	0000079e 	muleq	r0, lr, r7
    13bc:	0004cf23 	andeq	ip, r4, r3, lsr #30
    13c0:	20c20100 	sbccs	r0, r2, r0, lsl #2
    13c4:	00000025 	andeq	r0, r0, r5, lsr #32
    13c8:	0000067f 	andeq	r0, r0, pc, ror r6
    13cc:	0000067b 	andeq	r0, r0, fp, ror r6
    13d0:	0003a425 	andeq	sl, r3, r5, lsr #8
    13d4:	0ec40100 	poleqs	f0, f4, f0
    13d8:	0000002c 	andeq	r0, r0, ip, lsr #32
    13dc:	000006a1 	andeq	r0, r0, r1, lsr #13
    13e0:	0000069d 	muleq	r0, sp, r6
    13e4:	0003e725 	andeq	lr, r3, r5, lsr #14
    13e8:	1bc40100 	blne	ff1017f0 <__bss_end__+0xff0f6558>
    13ec:	0000002c 	andeq	r0, r0, ip, lsr #32
    13f0:	000006c6 	andeq	r0, r0, r6, asr #13
    13f4:	000006c0 	andeq	r0, r0, r0, asr #13
    13f8:	0003e125 	andeq	lr, r3, r5, lsr #2
    13fc:	27c40100 	strbcs	r0, [r4, r0, lsl #2]
    1400:	0000002c 	andeq	r0, r0, ip, lsr #32
    1404:	000006f4 	strdeq	r0, [r0], -r4
    1408:	000006f0 	strdeq	r0, [r0], -r0	; <UNPREDICTABLE>
    140c:	0000481c 	andeq	r4, r0, ip, lsl r8
    1410:	0006fc00 	andeq	pc, r6, r0, lsl #24
    1414:	00682600 	rsbeq	r2, r8, r0, lsl #12
    1418:	7611c901 	ldrvc	ip, [r1], -r1, lsl #18
    141c:	21000004 	tstcs	r0, r4
    1420:	13000007 	movwne	r0, #7
    1424:	18000007 	stmdane	r0, {r0, r1, r2}
    1428:	000089dc 	ldrdeq	r8, [r0], -ip
    142c:	00000e74 	andeq	r0, r0, r4, ror lr
    1430:	008a0416 	addeq	r0, sl, r6, lsl r4
    1434:	000e4d00 	andeq	r4, lr, r0, lsl #26
    1438:	0006c800 	andeq	ip, r6, r0, lsl #16
    143c:	50011700 	andpl	r1, r1, r0, lsl #14
    1440:	a8180305 	ldmdage	r8, {r0, r2, r8, r9}
    1444:	01170000 	tsteq	r7, r0
    1448:	00750251 	rsbseq	r0, r5, r1, asr r2
    144c:	02520117 	subseq	r0, r2, #-1073741819	; 0xc0000005
    1450:	16000074 			; <UNDEFINED> instruction: 0x16000074
    1454:	00008a0c 	andeq	r8, r0, ip, lsl #20
    1458:	00000e8c 	andeq	r0, r0, ip, lsl #29
    145c:	000006dc 	ldrdeq	r0, [r0], -ip
    1460:	02500117 	subseq	r0, r0, #-1073741819	; 0xc0000005
    1464:	20000074 	andcs	r0, r0, r4, ror r0
    1468:	00008a44 	andeq	r8, r0, r4, asr #20
    146c:	00000e4d 	andeq	r0, r0, sp, asr #28
    1470:	05500117 	ldrbeq	r0, [r0, #-279]	; 0xfffffee9
    1474:	00a82c03 	adceq	r2, r8, r3, lsl #24
    1478:	51011700 	tstpl	r1, r0, lsl #14
    147c:	17007502 	strne	r7, [r0, -r2, lsl #10]
    1480:	74025201 	strvc	r5, [r2], #-513	; 0xfffffdff
    1484:	16000000 	strne	r0, [r0], -r0
    1488:	000089cc 	andeq	r8, r0, ip, asr #19
    148c:	00000e4d 	andeq	r0, r0, sp, asr #28
    1490:	00000713 	andeq	r0, r0, r3, lsl r7
    1494:	05500117 	ldrbeq	r0, [r0, #-279]	; 0xfffffee9
    1498:	00a7c403 	adceq	ip, r7, r3, lsl #8
    149c:	d4160000 	ldrle	r0, [r6], #-0
    14a0:	4d000089 	stcmi	0, cr0, [r0, #-548]	; 0xfffffddc
    14a4:	2a00000e 	bcs	14e4 <__code_start__-0x6b1c>
    14a8:	17000007 	strne	r0, [r0, -r7]
    14ac:	03055001 	movweq	r5, #20481	; 0x5001
    14b0:	0000a800 	andeq	sl, r0, r0, lsl #16
    14b4:	89d81800 	ldmibhi	r8, {fp, ip}^
    14b8:	093d0000 	ldmdbeq	sp!, {}	; <UNPREDICTABLE>
    14bc:	54160000 	ldrpl	r0, [r6], #-0
    14c0:	4d00008a 	stcmi	0, cr0, [r0, #-552]	; 0xfffffdd8
    14c4:	5000000e 	andpl	r0, r0, lr
    14c8:	17000007 	strne	r0, [r0, -r7]
    14cc:	03055001 	movweq	r5, #20481	; 0x5001
    14d0:	0000a844 	andeq	sl, r0, r4, asr #16
    14d4:	02510117 	subseq	r0, r1, #-1073741819	; 0xc0000005
    14d8:	16000075 			; <UNDEFINED> instruction: 0x16000075
    14dc:	00008a64 	andeq	r8, r0, r4, ror #20
    14e0:	00000e4d 	andeq	r0, r0, sp, asr #28
    14e4:	00000767 	andeq	r0, r0, r7, ror #14
    14e8:	05500117 	ldrbeq	r0, [r0, #-279]	; 0xfffffee9
    14ec:	00a86403 	adceq	r6, r8, r3, lsl #8
    14f0:	6c160000 	ldcvs	0, cr0, [r6], {-0}
    14f4:	4d00008a 	stcmi	0, cr0, [r0, #-552]	; 0xfffffdd8
    14f8:	7e00000e 	cdpvc	0, 0, cr0, cr0, cr14, {0}
    14fc:	17000007 	strne	r0, [r0, -r7]
    1500:	03055001 	movweq	r5, #20481	; 0x5001
    1504:	0000a8bc 			; <UNDEFINED> instruction: 0x0000a8bc
    1508:	8a8c2000 	bhi	fe309510 <__bss_end__+0xfe2fe278>
    150c:	0e4d0000 	cdpeq	0, 4, cr0, cr13, cr0, {0}
    1510:	01170000 	tsteq	r7, r0
    1514:	8c030550 	cfstr32hi	mvfx0, [r3], {80}	; 0x50
    1518:	170000a8 	strne	r0, [r0, -r8, lsr #1]
    151c:	76025101 	strvc	r5, [r2], -r1, lsl #2
    1520:	52011700 	andpl	r1, r1, #0, 14
    1524:	00007802 	andeq	r7, r0, r2, lsl #16
    1528:	04e32200 	strbteq	r2, [r3], #512	; 0x200
    152c:	ac010000 	stcge	0, cr0, [r1], {-0}
    1530:	00002505 	andeq	r2, r0, r5, lsl #10
    1534:	008cc000 	addeq	ip, ip, r0
    1538:	0000d400 	andeq	sp, r0, r0, lsl #8
    153c:	ce9c0100 	fmlgte	f0, f4, f0
    1540:	25000008 	strcs	r0, [r0, #-8]
    1544:	000003e7 	andeq	r0, r0, r7, ror #7
    1548:	2509ad01 	strcs	sl, [r9, #-3329]	; 0xfffff2ff
    154c:	7a000000 	bvc	1554 <__code_start__-0x6aac>
    1550:	76000007 	strvc	r0, [r0], -r7
    1554:	27000007 	strcs	r0, [r0, -r7]
    1558:	00000090 	muleq	r0, r0, r0
    155c:	01006826 	tsteq	r0, r6, lsr #16
    1560:	047611ae 	ldrbteq	r1, [r6], #-430	; 0xfffffe52
    1564:	07a50000 	streq	r0, [r5, r0]!
    1568:	07990000 	ldreq	r0, [r9, r0]
    156c:	a81c0000 	ldmdage	ip, {}	; <UNPREDICTABLE>
    1570:	b3000000 	movwlt	r0, #0
    1574:	25000008 	strcs	r0, [r0, #-8]
    1578:	00000412 	andeq	r0, r0, r2, lsl r4
    157c:	250daf01 	strcs	sl, [sp, #-3841]	; 0xfffff0ff
    1580:	f7000000 			; <UNDEFINED> instruction: 0xf7000000
    1584:	ef000007 	svc	0x00000007
    1588:	1c000007 	stcne	0, cr0, [r0], {7}
    158c:	000000c0 	andeq	r0, r0, r0, asr #1
    1590:	0000085a 	andeq	r0, r0, sl, asr r8
    1594:	01006526 	tsteq	r0, r6, lsr #10
    1598:	002511b4 	strhteq	r1, [r5], -r4
    159c:	08300000 	ldmdaeq	r0!, {}	; <UNPREDICTABLE>
    15a0:	082c0000 	stmdaeq	ip!, {}	; <UNPREDICTABLE>
    15a4:	f0160000 			; <UNDEFINED> instruction: 0xf0160000
    15a8:	4d00008c 	stcmi	0, cr0, [r0, #-560]	; 0xfffffdd0
    15ac:	3200000e 	andcc	r0, r0, #14, 0
    15b0:	17000008 	strne	r0, [r0, -r8]
    15b4:	03055001 	movweq	r5, #20481	; 0x5001
    15b8:	0000a618 	andeq	sl, r0, r8, lsl r6
    15bc:	8cf81600 	ldclhi	6, cr1, [r8]
    15c0:	0e4d0000 	cdpeq	0, 4, cr0, cr13, cr0, {0}
    15c4:	08490000 	stmdaeq	r9, {}^	; <UNPREDICTABLE>
    15c8:	01170000 	tsteq	r7, r0
    15cc:	ac030550 	cfstr32ge	mvfx0, [r3], {80}	; 0x50
    15d0:	000000a9 	andeq	r0, r0, r9, lsr #1
    15d4:	008d7020 	addeq	r7, sp, r0, lsr #32
    15d8:	0008ce00 	andeq	ip, r8, r0, lsl #28
    15dc:	50011700 	andpl	r1, r1, r0, lsl #14
    15e0:	00007702 	andeq	r7, r0, r2, lsl #14
    15e4:	8d1c1600 	ldchi	6, cr1, [ip, #-0]
    15e8:	08ce0000 	stmiaeq	lr, {}^	; <UNPREDICTABLE>
    15ec:	08740000 	ldmdaeq	r4!, {}^	; <UNPREDICTABLE>
    15f0:	01170000 	tsteq	r7, r0
    15f4:	32740250 	rsbscc	r0, r4, #80, 4
    15f8:	02510117 	subseq	r0, r1, #-1073741819	; 0xc0000005
    15fc:	16008008 	strne	r8, [r0], -r8
    1600:	00008d38 	andeq	r8, r0, r8, lsr sp
    1604:	000008ce 	andeq	r0, r0, lr, asr #17
    1608:	00000888 	andeq	r0, r0, r8, lsl #17
    160c:	02510117 	subseq	r0, r1, #-1073741819	; 0xc0000005
    1610:	16008008 	strne	r8, [r0], -r8
    1614:	00008d50 	andeq	r8, r0, r0, asr sp
    1618:	00000e4d 	andeq	r0, r0, sp, asr #28
    161c:	0000089f 	muleq	r0, pc, r8	; <UNPREDICTABLE>
    1620:	05500117 	ldrbeq	r0, [r0, #-279]	; 0xfffffee9
    1624:	00a61803 	adceq	r1, r6, r3, lsl #16
    1628:	58200000 	stmdapl	r0!, {}	; <UNPREDICTABLE>
    162c:	4d00008d 	stcmi	0, cr0, [r0, #-564]	; 0xfffffdcc
    1630:	1700000e 	strne	r0, [r0, -lr]
    1634:	03055001 	movweq	r5, #20481	; 0x5001
    1638:	0000a97c 	andeq	sl, r0, ip, ror r9
    163c:	d0180000 	andsle	r0, r8, r0
    1640:	7400008c 	strvc	r0, [r0], #-140	; 0xffffff74
    1644:	2000000e 	andcs	r0, r0, lr
    1648:	00008d04 	andeq	r8, r0, r4, lsl #26
    164c:	00000e8c 	andeq	r0, r0, ip, lsl #29
    1650:	02500117 	subseq	r0, r0, #-1073741819	; 0xc0000005
    1654:	00000074 	andeq	r0, r0, r4, ror r0
    1658:	04742200 	ldrbteq	r2, [r4], #-512	; 0xfffffe00
    165c:	a2010000 	andge	r0, r1, #0, 0
    1660:	00002c0e 	andeq	r2, r0, lr, lsl #24
    1664:	008c7000 	addeq	r7, ip, r0
    1668:	00003c00 	andeq	r3, r0, r0, lsl #24
    166c:	379c0100 	ldrcc	r0, [ip, r0, lsl #2]
    1670:	23000009 	movwcs	r0, #9
    1674:	00000483 	andeq	r0, r0, r3, lsl #9
    1678:	3723a201 	strcc	sl, [r3, -r1, lsl #4]!
    167c:	52000009 	andpl	r0, r0, #9, 0
    1680:	4e000008 	cdpmi	0, 0, cr0, cr0, cr8, {0}
    1684:	28000008 	stmdacs	r0, {r3}
    1688:	00000304 	andeq	r0, r0, r4, lsl #6
    168c:	2530a201 	ldrcs	sl, [r0, #-513]!	; 0xfffffdff
    1690:	01000000 	mrseq	r0, (UNDEF: 0)
    1694:	04f22551 	ldrbteq	r2, [r2], #1361	; 0x551
    1698:	a3010000 	movwge	r0, #4096	; 0x1000
    169c:	00002509 	andeq	r2, r0, r9, lsl #10
    16a0:	00087400 	andeq	r7, r8, r0, lsl #8
    16a4:	00087000 	andeq	r7, r8, r0
    16a8:	00782700 	rsbseq	r2, r8, r0, lsl #14
    16ac:	69260000 	stmdbvs	r6!, {}	; <UNPREDICTABLE>
    16b0:	0ea40100 	fdveqs	f0, f4, f0
    16b4:	00000025 	andeq	r0, r0, r5, lsr #32
    16b8:	00000897 	muleq	r0, r7, r8
    16bc:	00000893 	muleq	r0, r3, r8
    16c0:	04080000 	streq	r0, [r8], #-0
    16c4:	000000c5 	andeq	r0, r0, r5, asr #1
    16c8:	00037e29 	andeq	r7, r3, r9, lsr #28
    16cc:	0d790100 	ldfeqe	f0, [r9, #-0]
    16d0:	000088f8 	strdeq	r8, [r0], -r8	; <UNPREDICTABLE>
    16d4:	000000ac 	andeq	r0, r0, ip, lsr #1
    16d8:	0a4b9c01 	beq	12e86e4 <__bss_end__+0x12dd44c>
    16dc:	06130000 	ldreq	r0, [r3], -r0
    16e0:	01000004 	tsteq	r0, r4
    16e4:	0a4b0e85 	beq	12c5100 <__bss_end__+0x12b9e68>
    16e8:	91030000 	mrsls	r0, (UNDEF: 3)
    16ec:	742a7fb0 	strtvc	r7, [sl], #-4016	; 0xfffff050
    16f0:	01000003 	tsteq	r0, r3
    16f4:	0a5b0f96 	beq	16c5554 <__bss_end__+0x16ba2bc>
    16f8:	00000000 	andeq	r0, r0, r0
    16fc:	96070800 	strls	r0, [r7], -r0, lsl #16
    1700:	01000003 	tsteq	r0, r3
    1704:	0075159b 			; <UNDEFINED> instruction: 0x0075159b
    1708:	68070000 	stmdavs	r7, {}	; <UNPREDICTABLE>
    170c:	01000004 	tsteq	r0, r4
    1710:	0075249b 			; <UNDEFINED> instruction: 0x0075249b
    1714:	b5070000 	strlt	r0, [r7, #-0]
    1718:	01000004 	tsteq	r0, r4
    171c:	0075159e 			; <UNDEFINED> instruction: 0x0075159e
    1720:	f4070000 	vst4.8	{d0-d3}, [r7], r0
    1724:	01000003 	tsteq	r0, r3
    1728:	0075259e 			; <UNDEFINED> instruction: 0x0075259e
    172c:	082b0000 	stmdaeq	fp!, {}	; <UNPREDICTABLE>
    1730:	24000089 	strcs	r0, [r0], #-137	; 0xffffff77
    1734:	d5000000 	strle	r0, [r0, #-0]
    1738:	26000009 	strcs	r0, [r0], -r9
    173c:	7e010068 	cdpvc	0, 0, cr0, cr1, cr8, {3}
    1740:	00047611 	andeq	r7, r4, r1, lsl r6
    1744:	0008ba00 	andeq	fp, r8, r0, lsl #20
    1748:	0008b600 	andeq	fp, r8, r0, lsl #12
    174c:	890c1800 	stmdbhi	ip, {fp, ip}
    1750:	0e740000 	cdpeq	0, 7, cr0, cr4, cr0, {0}
    1754:	28180000 	ldmdacs	r8, {}	; <UNPREDICTABLE>
    1758:	8c000089 	stchi	0, cr0, [r0], {137}	; 0x89
    175c:	0000000e 	andeq	r0, r0, lr
    1760:	00893416 	addeq	r3, r9, r6, lsl r4
    1764:	000e9800 	andeq	r9, lr, r0, lsl #16
    1768:	0009ea00 	andeq	lr, r9, r0, lsl #20
    176c:	50011700 	andpl	r1, r1, r0, lsl #14
    1770:	7fb47b03 	svcvc	0x00b47b03
    1774:	89541600 	ldmdbhi	r4, {r9, sl, ip}^
    1778:	0a610000 	beq	1841780 <__bss_end__+0x18364e8>
    177c:	0a050000 	beq	141784 <__bss_end__+0x1364ec>
    1780:	01170000 	tsteq	r7, r0
    1784:	b47b0350 	ldrbtlt	r0, [fp], #-848	; 0xfffffcb0
    1788:	5101177f 	tstpl	r1, pc, ror r7
    178c:	006c7b02 	rsbeq	r7, ip, r2, lsl #22
    1790:	00896416 	addeq	r6, r9, r6, lsl r4
    1794:	000e4d00 	andeq	r4, lr, r0, lsl #26
    1798:	000a2300 	andeq	r2, sl, r0, lsl #6
    179c:	50011700 	andpl	r1, r1, r0, lsl #14
    17a0:	a7a80305 	strge	r0, [r8, r5, lsl #6]!
    17a4:	01170000 	tsteq	r7, r0
    17a8:	47400352 	smlsldmi	r0, r0, r2, r3	; <UNPREDICTABLE>
    17ac:	70160024 	andsvc	r0, r6, r4, lsr #32
    17b0:	61000089 	smlabbvs	r0, r9, r0, r0
    17b4:	3800000a 	stmdacc	r0, {r1, r3}
    17b8:	1700000a 	strne	r0, [r0, -sl]
    17bc:	40035101 	andmi	r5, r3, r1, lsl #2
    17c0:	18002447 	stmdane	r0, {r0, r1, r2, r6, sl, sp}
    17c4:	0000897c 	andeq	r8, r0, ip, ror r9
    17c8:	00000a61 	andeq	r0, r0, r1, ror #20
    17cc:	00898818 	addeq	r8, r9, r8, lsl r8
    17d0:	000a6100 	andeq	r6, sl, r0, lsl #2
    17d4:	75100000 	ldrvc	r0, [r0, #-0]
    17d8:	5b000000 	blpl	17e0 <__code_start__-0x6820>
    17dc:	1100000a 	tstne	r0, sl
    17e0:	0000002c 	andeq	r0, r0, ip, lsr #32
    17e4:	0408000f 	streq	r0, [r8], #-15
    17e8:	00000075 	andeq	r0, r0, r5, ror r0
    17ec:	0003c429 	andeq	ip, r3, r9, lsr #8
    17f0:	0d500100 	ldfeqe	f0, [r0, #-0]
    17f4:	00008778 	andeq	r8, r0, r8, ror r7
    17f8:	00000170 	andeq	r0, r0, r0, ror r1
    17fc:	0c5a9c01 	mrrceq	12, 0, r9, sl, cr1
    1800:	702c0000 	eorvc	r0, ip, r0
    1804:	1c500100 	ldfnee	f0, [r0], {-0}
    1808:	00000a5b 	andeq	r0, r0, fp, asr sl
    180c:	000008e6 	andeq	r0, r0, r6, ror #17
    1810:	000008d8 	ldrdeq	r0, [r0], -r8
    1814:	0100652c 	tsteq	r0, ip, lsr #10
    1818:	0a5b2950 	beq	16cbd60 <__bss_end__+0x16c0ac8>
    181c:	094f0000 	stmdbeq	pc, {}^	; <UNPREDICTABLE>
    1820:	09410000 	stmdbeq	r1, {}^	; <UNPREDICTABLE>
    1824:	99150000 	ldmdbls	r5, {}	; <UNPREDICTABLE>
    1828:	6a000001 	bvs	1834 <__code_start__-0x67cc>
    182c:	0500000c 	streq	r0, [r0, #-12]
    1830:	00aa8c03 	adceq	r8, sl, r3, lsl #24
    1834:	88082b00 	stmdahi	r8, {r8, r9, fp, sp}
    1838:	00b40000 	adcseq	r0, r4, r0
    183c:	0b930000 	bleq	fe4c1844 <__bss_end__+0xfe4b65ac>
    1840:	69260000 	stmdbvs	r6!, {}	; <UNPREDICTABLE>
    1844:	14580100 	ldrbne	r0, [r8], #-256	; 0xffffff00
    1848:	00000a5b 	andeq	r0, r0, fp, asr sl
    184c:	000009ac 	andeq	r0, r0, ip, lsr #19
    1850:	000009aa 	andeq	r0, r0, sl, lsr #19
    1854:	00001827 	andeq	r1, r0, r7, lsr #16
    1858:	00622600 	rsbeq	r2, r2, r0, lsl #12
    185c:	76105a01 	ldrvc	r5, [r0], -r1, lsl #20
    1860:	c5000004 	strgt	r0, [r0, #-4]
    1864:	bf000009 	svclt	0x00000009
    1868:	1c000009 	stcne	0, cr0, [r0], {9}
    186c:	00000030 	andeq	r0, r0, r0, lsr r0
    1870:	00000b88 	andeq	r0, r0, r8, lsl #23
    1874:	70786526 	rsbsvc	r6, r8, r6, lsr #10
    1878:	165d0100 	ldrbne	r0, [sp], -r0, lsl #2
    187c:	00000075 	andeq	r0, r0, r5, ror r0
    1880:	000009f2 	strdeq	r0, [r0], -r2
    1884:	000009ee 	andeq	r0, r0, lr, ror #19
    1888:	0003c025 	andeq	ip, r3, r5, lsr #32
    188c:	165e0100 	ldrbne	r0, [lr], -r0, lsl #2
    1890:	00000062 	andeq	r0, r0, r2, rrx
    1894:	00000a14 	andeq	r0, r0, r4, lsl sl
    1898:	00000a10 	andeq	r0, r0, r0, lsl sl
    189c:	00881c16 	addeq	r1, r8, r6, lsl ip
    18a0:	000e4d00 	andeq	r4, lr, r0, lsl #26
    18a4:	000b2800 	andeq	r2, fp, r0, lsl #16
    18a8:	50011700 	andpl	r1, r1, r0, lsl #14
    18ac:	a7880305 	strge	r0, [r8, r5, lsl #6]
    18b0:	16000000 	strne	r0, [r0], -r0
    18b4:	00008850 	andeq	r8, r0, r0, asr r8
    18b8:	00000ea4 	andeq	r0, r0, r4, lsr #29
    18bc:	00000b3c 	andeq	r0, r0, ip, lsr fp
    18c0:	02500117 	subseq	r0, r0, #-1073741819	; 0xc0000005
    18c4:	16000075 			; <UNDEFINED> instruction: 0x16000075
    18c8:	00008868 	andeq	r8, r0, r8, ror #16
    18cc:	00000e4d 	andeq	r0, r0, sp, asr #28
    18d0:	00000b60 	andeq	r0, r0, r0, ror #22
    18d4:	05500117 	ldrbeq	r0, [r0, #-279]	; 0xfffffee9
    18d8:	00a75c03 	adceq	r5, r7, r3, lsl #24
    18dc:	52011700 	andpl	r1, r1, #0, 14
    18e0:	17007402 	strne	r7, [r0, -r2, lsl #8]
    18e4:	02007d02 	andeq	r7, r0, #128	; 0x80
    18e8:	16000077 			; <UNDEFINED> instruction: 0x16000077
    18ec:	000088ac 	andeq	r8, r0, ip, lsr #17
    18f0:	00000a61 	andeq	r0, r0, r1, ror #20
    18f4:	00000b74 	andeq	r0, r0, r4, ror fp
    18f8:	02500117 	subseq	r0, r0, #-1073741819	; 0xc0000005
    18fc:	20000475 	andcs	r0, r0, r5, ror r4
    1900:	000088b8 			; <UNDEFINED> instruction: 0x000088b8
    1904:	00000e4d 	andeq	r0, r0, sp, asr #28
    1908:	05500117 	ldrbeq	r0, [r0, #-279]	; 0xfffffee9
    190c:	00a79803 	adceq	r9, r7, r3, lsl #16
    1910:	18000000 	stmdane	r0, {}	; <UNPREDICTABLE>
    1914:	00008838 	andeq	r8, r0, r8, lsr r8
    1918:	00000c6f 	andeq	r0, r0, pc, ror #24
    191c:	c4160000 	ldrgt	r0, [r6], #-0
    1920:	4d000087 	stcmi	0, cr0, [r0, #-540]	; 0xfffffde4
    1924:	cc00000e 	stcgt	0, cr0, [r0], {14}
    1928:	1700000b 	strne	r0, [r0, -fp]
    192c:	03055001 	movweq	r5, #20481	; 0x5001
    1930:	0000a6b8 			; <UNDEFINED> instruction: 0x0000a6b8
    1934:	05510117 	ldrbeq	r0, [r1, #-279]	; 0xfffffee9
    1938:	00a72c03 	adceq	r2, r7, r3, lsl #24
    193c:	52011700 	andpl	r1, r1, #0, 14
    1940:	aa8c0305 	bge	fe30255c <__bss_end__+0xfe2f72c4>
    1944:	01170000 	tsteq	r7, r0
    1948:	56080253 			; <UNDEFINED> instruction: 0x56080253
    194c:	007d0217 	rsbseq	r0, sp, r7, lsl r2
    1950:	a74c0305 	strbge	r0, [ip, -r5, lsl #6]
    1954:	18000000 	stmdane	r0, {}	; <UNPREDICTABLE>
    1958:	000087c8 	andeq	r8, r0, r8, asr #15
    195c:	00000e59 	andeq	r0, r0, r9, asr lr
    1960:	0087e416 	addeq	lr, r7, r6, lsl r4
    1964:	000e4d00 	andeq	r4, lr, r0, lsl #26
    1968:	000c0e00 	andeq	r0, ip, r0, lsl #28
    196c:	50011700 	andpl	r1, r1, r0, lsl #14
    1970:	a6b80305 	ldrtge	r0, [r8], r5, lsl #6
    1974:	01170000 	tsteq	r7, r0
    1978:	2c030551 	cfstr32cs	mvfx0, [r3], {81}	; 0x51
    197c:	170000a7 	strne	r0, [r0, -r7, lsr #1]
    1980:	03055201 	movweq	r5, #20993	; 0x5201
    1984:	0000aa8c 	andeq	sl, r0, ip, lsl #21
    1988:	02530117 	subseq	r0, r3, #-1073741819	; 0xc0000005
    198c:	02175208 	andseq	r5, r7, #8, 4	; 0x80000000
    1990:	0305007d 	movweq	r0, #20605	; 0x507d
    1994:	0000a734 	andeq	sl, r0, r4, lsr r7
    1998:	87e81800 	strbhi	r1, [r8, r0, lsl #16]!
    199c:	0e590000 	cdpeq	0, 5, cr0, cr9, cr0, {0}
    19a0:	04160000 	ldreq	r0, [r6], #-0
    19a4:	4d000088 	stcmi	0, cr0, [r0, #-544]	; 0xfffffde0
    19a8:	5000000e 	andpl	r0, r0, lr
    19ac:	1700000c 	strne	r0, [r0, -ip]
    19b0:	03055001 	movweq	r5, #20481	; 0x5001
    19b4:	0000a6b8 			; <UNDEFINED> instruction: 0x0000a6b8
    19b8:	05510117 	ldrbeq	r0, [r1, #-279]	; 0xfffffee9
    19bc:	00a72c03 	adceq	r2, r7, r3, lsl #24
    19c0:	52011700 	andpl	r1, r1, #0, 14
    19c4:	aa8c0305 	bge	fe3025e0 <__bss_end__+0xfe2f7348>
    19c8:	01170000 	tsteq	r7, r0
    19cc:	55080253 	strpl	r0, [r8, #-595]	; 0xfffffdad
    19d0:	007d0217 	rsbseq	r0, sp, r7, lsl r2
    19d4:	a73c0305 	ldrge	r0, [ip, -r5, lsl #6]!
    19d8:	18000000 	stmdane	r0, {}	; <UNPREDICTABLE>
    19dc:	00008808 	andeq	r8, r0, r8, lsl #16
    19e0:	00000e59 	andeq	r0, r0, r9, asr lr
    19e4:	00cc1000 	sbceq	r1, ip, r0
    19e8:	0c6a0000 	stcleq	0, cr0, [sl], #-0
    19ec:	2c110000 	ldccs	0, cr0, [r1], {-0}
    19f0:	04000000 	streq	r0, [r0], #-0
    19f4:	0c5a0900 	mrrceq	9, 0, r0, sl, cr0	; <UNPREDICTABLE>
    19f8:	24240000 	strtcs	r0, [r4], #-0
    19fc:	01000004 	tsteq	r0, r4
    1a00:	04760f3c 	ldrbteq	r0, [r6], #-3900	; 0xfffff0c4
    1a04:	873c0000 	ldrhi	r0, [ip, -r0]!
    1a08:	00300000 	eorseq	r0, r0, r0
    1a0c:	9c010000 	stcls	0, cr0, [r1], {-0}
    1a10:	00000cd4 	ldrdeq	r0, [r0], -r4
    1a14:	0005c723 	andeq	ip, r5, r3, lsr #14
    1a18:	1f3c0100 	svcne	0x003c0100
    1a1c:	00000075 	andeq	r0, r0, r5, ror r0
    1a20:	00000a36 	andeq	r0, r0, r6, lsr sl
    1a24:	00000a32 	andeq	r0, r0, r2, lsr sl
    1a28:	01007026 	tsteq	r0, r6, lsr #32
    1a2c:	02080b3e 	andeq	r0, r8, #63488	; 0xf800
    1a30:	0a580000 	beq	1601a38 <__bss_end__+0x15f67a0>
    1a34:	0a540000 	beq	1501a3c <__bss_end__+0x14f67a4>
    1a38:	50160000 	andspl	r0, r6, r0
    1a3c:	d4000087 	strle	r0, [r0], #-135	; 0xffffff79
    1a40:	c300000c 	movwgt	r0, #12
    1a44:	1700000c 	strne	r0, [r0, -ip]
    1a48:	74025001 	strvc	r5, [r2], #-1
    1a4c:	60200000 	eorvs	r0, r0, r0
    1a50:	b0000087 	andlt	r0, r0, r7, lsl #1
    1a54:	1700000e 	strne	r0, [r0, -lr]
    1a58:	74025001 	strvc	r5, [r2], #-1
    1a5c:	24000000 	strcs	r0, [r0], #-0
    1a60:	00000440 	andeq	r0, r0, r0, asr #8
    1a64:	250c2b01 	strcs	r2, [ip, #-2817]	; 0xfffff4ff
    1a68:	e8000000 	stmda	r0, {}	; <UNPREDICTABLE>
    1a6c:	48000086 	stmdami	r0, {r1, r2, r7}
    1a70:	01000000 	mrseq	r0, (UNDEF: 0)
    1a74:	000d019c 	muleq	sp, ip, r1
    1a78:	00702c00 	rsbseq	r2, r0, r0, lsl #24
    1a7c:	081a2b01 	ldmdaeq	sl, {r0, r8, r9, fp, sp}
    1a80:	82000002 	andhi	r0, r0, #2, 0
    1a84:	7600000a 	strvc	r0, [r0], -sl
    1a88:	0000000a 	andeq	r0, r0, sl
    1a8c:	00035a22 	andeq	r5, r3, r2, lsr #20
    1a90:	07130100 	ldreq	r0, [r3, -r0, lsl #2]
    1a94:	00000208 	andeq	r0, r0, r8, lsl #4
    1a98:	00008bb0 			; <UNDEFINED> instruction: 0x00008bb0
    1a9c:	000000ac 	andeq	r0, r0, ip, lsr #1
    1aa0:	0e179c01 	cdpeq	12, 1, cr9, cr7, cr1, {0}
    1aa4:	c9230000 	stmdbgt	r3!, {}	; <UNPREDICTABLE>
    1aa8:	01000003 	tsteq	r0, r3
    1aac:	00411113 	subeq	r1, r1, r3, lsl r1
    1ab0:	0ae10000 	beq	ff841ab8 <__bss_end__+0xff836820>
    1ab4:	0ad50000 	beq	ff541abc <__bss_end__+0xff536824>
    1ab8:	ac130000 	ldcge	0, cr0, [r3], {-0}
    1abc:	01000003 	tsteq	r0, r3
    1ac0:	00251015 	eoreq	r1, r5, r5, lsl r0
    1ac4:	03050000 	movweq	r0, #20480	; 0x5000
    1ac8:	0000ae90 	muleq	r0, r0, lr
    1acc:	00019915 	andeq	r9, r1, r5, lsl r9
    1ad0:	000c6a00 	andeq	r6, ip, r0, lsl #20
    1ad4:	a0030500 	andge	r0, r3, r0, lsl #10
    1ad8:	2b0000aa 	blcs	1d88 <__code_start__-0x6278>
    1adc:	00008bd8 	ldrdeq	r8, [r0], -r8	; <UNPREDICTABLE>
    1ae0:	00000024 	andeq	r0, r0, r4, lsr #32
    1ae4:	00000d8a 	andeq	r0, r0, sl, lsl #27
    1ae8:	00044825 	andeq	r4, r4, r5, lsr #16
    1aec:	121c0100 	andsne	r0, ip, #0
    1af0:	0000002c 	andeq	r0, r0, ip, lsr #32
    1af4:	00000b2d 	andeq	r0, r0, sp, lsr #22
    1af8:	00000b2b 	andeq	r0, r0, fp, lsr #22
    1afc:	008bf420 	addeq	pc, fp, r0, lsr #8
    1b00:	000ebc00 	andeq	fp, lr, r0, lsl #24
    1b04:	50011700 	andpl	r1, r1, r0, lsl #14
    1b08:	24404003 	strbcs	r4, [r0], #-3
    1b0c:	03510117 	cmpeq	r1, #-1073741819	; 0xc0000005
    1b10:	00244040 	eoreq	r4, r4, r0, asr #32
    1b14:	8c041600 	stchi	6, cr1, [r4], {-0}
    1b18:	0ec80000 	cdpeq	0, 12, cr0, cr8, cr0, {0}
    1b1c:	0d9e0000 	ldceq	0, cr0, [lr]
    1b20:	01170000 	tsteq	r7, r0
    1b24:	00740250 	rsbseq	r0, r4, r0, asr r2
    1b28:	8c281600 	stchi	6, cr1, [r8], #-0
    1b2c:	0e4d0000 	cdpeq	0, 4, cr0, cr13, cr0, {0}
    1b30:	0dd60000 	ldcleq	0, cr0, [r6]
    1b34:	01170000 	tsteq	r7, r0
    1b38:	b8030550 	stmdalt	r3, {r4, r6, r8, sl}
    1b3c:	170000a6 	strne	r0, [r0, -r6, lsr #1]
    1b40:	03055101 	movweq	r5, #20737	; 0x5101
    1b44:	0000a72c 	andeq	sl, r0, ip, lsr #14
    1b48:	05520117 	ldrbeq	r0, [r2, #-279]	; 0xfffffee9
    1b4c:	00aaa003 	adceq	sl, sl, r3
    1b50:	53011700 	movwpl	r1, #5888	; 0x1700
    1b54:	02174701 	andseq	r4, r7, #262144	; 0x40000
    1b58:	0305007d 	movweq	r0, #20605	; 0x507d
    1b5c:	0000a94c 	andeq	sl, r0, ip, asr #18
    1b60:	8c2c1800 	stchi	8, cr1, [ip], #-0
    1b64:	0e590000 	cdpeq	0, 5, cr0, cr9, cr0, {0}
    1b68:	40160000 	andsmi	r0, r6, r0
    1b6c:	4d00008c 	stcmi	0, cr0, [r0, #-560]	; 0xfffffdd0
    1b70:	0d00000e 	stceq	0, cr0, [r0, #-56]	; 0xffffffc8
    1b74:	1700000e 	strne	r0, [r0, -lr]
    1b78:	03055001 	movweq	r5, #20481	; 0x5001
    1b7c:	0000a95c 	andeq	sl, r0, ip, asr r9
    1b80:	05510117 	ldrbeq	r0, [r1, #-279]	; 0xfffffee9
    1b84:	00a72c03 	adceq	r2, r7, r3, lsl #24
    1b88:	52011700 	andpl	r1, r1, #0, 14
    1b8c:	aaa00305 	bge	fe8027a8 <__bss_end__+0xfe7f7510>
    1b90:	01170000 	tsteq	r7, r0
    1b94:	00490153 	subeq	r0, r9, r3, asr r1
    1b98:	008c4418 	addeq	r4, ip, r8, lsl r4
    1b9c:	000e5900 	andeq	r5, lr, r0, lsl #18
    1ba0:	472d0000 	strmi	r0, [sp, -r0]!
    1ba4:	02000001 	andeq	r0, r0, #1, 0
    1ba8:	01140b0d 	tsteq	r4, sp, lsl #22
    1bac:	4d030000 	stcmi	0, cr0, [r3, #-0]
    1bb0:	2e00000e 	cdpcs	0, 0, cr0, cr0, cr14, {0}
    1bb4:	00000024 	andeq	r0, r0, r4, lsr #32
    1bb8:	bf220d02 	svclt	0x00220d02
    1bbc:	2e000000 	cdpcs	0, 0, cr0, cr0, cr0, {0}
    1bc0:	00000194 	muleq	r0, r4, r1
    1bc4:	bf340d02 	svclt	0x00340d02
    1bc8:	2e000000 	cdpcs	0, 0, cr0, cr0, cr0, {0}
    1bcc:	00000015 	andeq	r0, r0, r5, lsl r0
    1bd0:	2c430d02 	mcrrcs	13, 0, r0, r3, cr2
    1bd4:	00000000 	andeq	r0, r0, r0
    1bd8:	00062e2f 	andeq	r2, r6, pc, lsr #28
    1bdc:	00062e00 	andeq	r2, r6, r0, lsl #28
    1be0:	06280400 	strteq	r0, [r8], -r0, lsl #8
    1be4:	0000452f 	andeq	r4, r0, pc, lsr #10
    1be8:	00004500 	andeq	r4, r0, r0, lsl #10
    1bec:	066e0400 	strbteq	r0, [lr], -r0, lsl #8
    1bf0:	0b9e0d30 	bleq	fe7850b8 <__bss_end__+0xfe779e20>
    1bf4:	65657773 	strbvs	r7, [r5, #-1907]!	; 0xfffff88d
    1bf8:	72665f70 	rsbvc	r5, r6, #112, 30	; 0x1c0
    1bfc:	2f006565 	svccs	0x00006565
    1c00:	00000246 	andeq	r0, r0, r6, asr #4
    1c04:	00000246 	andeq	r0, r0, r6, asr #4
    1c08:	2f082905 	svccs	0x00082905
    1c0c:	000001d7 	ldrdeq	r0, [r0], -r7
    1c10:	000001d7 	ldrdeq	r0, [r0], -r7
    1c14:	2f074b05 	svccs	0x00074b05
    1c18:	000002b6 			; <UNDEFINED> instruction: 0x000002b6
    1c1c:	000002b6 			; <UNDEFINED> instruction: 0x000002b6
    1c20:	2f082c05 	svccs	0x00082c05
    1c24:	00000401 	andeq	r0, r0, r1, lsl #8
    1c28:	00000401 	andeq	r0, r0, r1, lsl #8
    1c2c:	2f067601 	svccs	0x00067601
    1c30:	000002e0 	andeq	r0, r0, r0, ror #5
    1c34:	000002e0 	andeq	r0, r0, r0, ror #5
    1c38:	2f073305 	svccs	0x00073305
    1c3c:	000002a4 	andeq	r0, r0, r4, lsr #5
    1c40:	000002a4 	andeq	r0, r0, r4, lsr #5
    1c44:	2f084605 	svccs	0x00084605
    1c48:	00000493 	muleq	r0, r3, r4
    1c4c:	00000493 	muleq	r0, r3, r4
    1c50:	2f068204 	svccs	0x00068204
    1c54:	0000048b 	andeq	r0, r0, fp, lsl #9
    1c58:	0000048b 	andeq	r0, r0, fp, lsl #9
    1c5c:	00077b04 	andeq	r7, r7, r4, lsl #22
    1c60:	00000216 	andeq	r0, r0, r6, lsl r2
    1c64:	08960004 	ldmeq	r6, {r2}
    1c68:	01040000 	mrseq	r0, (UNDEF: 4)
    1c6c:	00000506 	andeq	r0, r0, r6, lsl #10
    1c70:	0005ee0c 	andeq	lr, r5, ip, lsl #28
    1c74:	0005cc00 	andeq	ip, r5, r0, lsl #24
    1c78:	008f0000 	addeq	r0, pc, r0
    1c7c:	0000a000 	andeq	sl, r0, r0
    1c80:	000c9700 	andeq	r9, ip, r0, lsl #14
    1c84:	05040200 	streq	r0, [r4, #-512]	; 0xfffffe00
    1c88:	00746e69 	rsbseq	r6, r4, r9, ror #28
    1c8c:	b0070403 	andlt	r0, r7, r3, lsl #8
    1c90:	03000001 	movweq	r0, #1
    1c94:	01540601 	cmpeq	r4, r1, lsl #12
    1c98:	02030000 	andeq	r0, r3, #0, 0
    1c9c:	0001de05 	andeq	sp, r1, r5, lsl #28
    1ca0:	05040300 	streq	r0, [r4, #-768]	; 0xfffffd00
    1ca4:	000001c2 	andeq	r0, r0, r2, asr #3
    1ca8:	bd050803 	stclt	8, cr0, [r5, #-12]
    1cac:	03000001 	movweq	r0, #1
    1cb0:	01520801 	cmpeq	r2, r1, lsl #16
    1cb4:	02030000 	andeq	r0, r3, #0, 0
    1cb8:	00005207 	andeq	r5, r0, r7, lsl #4
    1cbc:	07040300 	streq	r0, [r4, -r0, lsl #6]
    1cc0:	000001ab 	andeq	r0, r0, fp, lsr #3
    1cc4:	a6070803 	strge	r0, [r7], -r3, lsl #16
    1cc8:	04000001 	streq	r0, [r0], #-1
    1ccc:	00000025 	andeq	r0, r0, r5, lsr #32
    1cd0:	0000007a 	andeq	r0, r0, sl, ror r0
    1cd4:	00002505 	andeq	r2, r0, r5, lsl #10
    1cd8:	cb060000 	blgt	181ce0 <__bss_end__+0x176a48>
    1cdc:	02000001 	andeq	r0, r0, #1, 0
    1ce0:	00860e1c 	addeq	r0, r6, ip, lsl lr
    1ce4:	04070000 	streq	r0, [r7], #-0
    1ce8:	0000006b 	andeq	r0, r0, fp, rrx
    1cec:	00002504 	andeq	r2, r0, r4, lsl #10
    1cf0:	00009b00 	andeq	r9, r0, r0, lsl #22
    1cf4:	009b0500 	addseq	r0, fp, r0, lsl #10
    1cf8:	07000000 	streq	r0, [r0, -r0]
    1cfc:	0000a804 	andeq	sl, r0, r4, lsl #16
    1d00:	08010300 	stmdaeq	r1, {r8, r9}
    1d04:	0000015b 	andeq	r0, r0, fp, asr r1
    1d08:	0000a108 	andeq	sl, r0, r8, lsl #2
    1d0c:	066c0600 	strbteq	r0, [ip], -r0, lsl #12
    1d10:	21020000 	mrscs	r0, (UNDEF: 2)
    1d14:	0000b90e 	andeq	fp, r0, lr, lsl #18
    1d18:	8c040700 	stchi	7, cr0, [r4], {-0}
    1d1c:	09000000 	stmdbeq	r0, {}	; <UNPREDICTABLE>
    1d20:	00000607 	andeq	r0, r0, r7, lsl #12
    1d24:	9b0d4201 	blls	352530 <__bss_end__+0x347298>
    1d28:	01000000 	mrseq	r0, (UNDEF: 0)
    1d2c:	000000f7 	strdeq	r0, [r0], -r7
    1d30:	0005be0a 	andeq	fp, r5, sl, lsl #28
    1d34:	1e420100 	dvfnes	f0, f2, f0
    1d38:	0000002c 	andeq	r0, r0, ip, lsr #32
    1d3c:	0004f80b 	andeq	pc, r4, fp, lsl #16
    1d40:	0e430100 	dvfeqs	f0, f3, f0
    1d44:	0000002c 	andeq	r0, r0, ip, lsr #32
    1d48:	04fd0b0c 	ldrbteq	r0, [sp], #2828	; 0xb0c
    1d4c:	45010000 	strmi	r0, [r1, #-0]
    1d50:	00002c12 	andeq	r2, r0, r2, lsl ip
    1d54:	0d000000 	stceq	0, cr0, [r0, #-0]
    1d58:	0000025b 	andeq	r0, r0, fp, asr r2
    1d5c:	25051d01 	strcs	r1, [r5, #-3329]	; 0xfffff2ff
    1d60:	00000000 	andeq	r0, r0, r0
    1d64:	8000008f 	andhi	r0, r0, pc, lsl #1
    1d68:	01000000 	mrseq	r0, (UNDEF: 0)
    1d6c:	0001be9c 	muleq	r1, ip, lr
    1d70:	06000e00 	streq	r0, [r0], -r0, lsl #28
    1d74:	1e010000 	cdpne	0, 0, cr0, cr1, cr0, {0}
    1d78:	0001be0f 	andeq	fp, r1, pc, lsl #28
    1d7c:	000b4500 	andeq	r4, fp, r0, lsl #10
    1d80:	000b4300 	andeq	r4, fp, r0, lsl #6
    1d84:	8f080f00 	svchi	0x00080f00
    1d88:	005c0000 	subseq	r0, ip, r0
    1d8c:	69100000 	ldmdbvs	r0, {}	; <UNPREDICTABLE>
    1d90:	0e210100 	sufeqs	f0, f1, f0
    1d94:	00000025 	andeq	r0, r0, r5, lsr #32
    1d98:	00000b5c 	andeq	r0, r0, ip, asr fp
    1d9c:	00000b58 	andeq	r0, r0, r8, asr fp
    1da0:	0000d811 	andeq	sp, r0, r1, lsl r8
    1da4:	63701000 	cmnvs	r0, #0, 0
    1da8:	12220100 	eorne	r0, r2, #0
    1dac:	0000002c 	andeq	r0, r0, ip, lsr #32
    1db0:	00000b7d 	andeq	r0, r0, sp, ror fp
    1db4:	00000b7b 	andeq	r0, r0, fp, ror fp
    1db8:	0000bf12 	andeq	fp, r0, r2, lsl pc
    1dbc:	008f3c00 	addeq	r3, pc, r0, lsl #24
    1dc0:	00f80100 	rscseq	r0, r8, r0, lsl #2
    1dc4:	23010000 	movwcs	r0, #4096	; 0x1000
    1dc8:	0001a509 	andeq	sl, r1, r9, lsl #10
    1dcc:	00d01300 	sbcseq	r1, r0, r0, lsl #6
    1dd0:	0b920000 	bleq	fe481dd8 <__bss_end__+0xfe476b40>
    1dd4:	0b900000 	bleq	fe401ddc <__bss_end__+0xfe3f6b44>
    1dd8:	f8110000 			; <UNDEFINED> instruction: 0xf8110000
    1ddc:	14000000 	strne	r0, [r0], #-0
    1de0:	000000dc 	ldrdeq	r0, [r0], -ip
    1de4:	00000ba9 	andeq	r0, r0, r9, lsr #23
    1de8:	00000ba5 	andeq	r0, r0, r5, lsr #23
    1dec:	0000e815 	andeq	lr, r0, r5, lsl r8
    1df0:	00012000 	andeq	r2, r1, r0
    1df4:	00e91400 	rsceq	r1, r9, r0, lsl #8
    1df8:	0bce0000 	bleq	ff381e00 <__bss_end__+0xff376b68>
    1dfc:	0bc80000 	bleq	ff201e04 <__bss_end__+0xff1f6b6c>
    1e00:	00000000 	andeq	r0, r0, r0
    1e04:	8f581600 	svchi	0x00581600
    1e08:	020d0000 	andeq	r0, sp, #0, 0
    1e0c:	01170000 	tsteq	r7, r0
    1e10:	00750250 	rsbseq	r0, r5, r0, asr r2
    1e14:	02510117 	subseq	r0, r1, #-1073741819	; 0xc0000005
    1e18:	00000077 	andeq	r0, r0, r7, ror r0
    1e1c:	04070000 	streq	r0, [r7], #-0
    1e20:	0000002c 	andeq	r0, r0, ip, lsr #32
    1e24:	0000bf18 	andeq	fp, r0, r8, lsl pc
    1e28:	008f8000 	addeq	r8, pc, r0
    1e2c:	00002000 	andeq	r2, r0, r0
    1e30:	0d9c0100 	ldfeqs	f0, [ip]
    1e34:	13000002 	movwne	r0, #2
    1e38:	000000d0 	ldrdeq	r0, [r0], -r0	; <UNPREDICTABLE>
    1e3c:	00000c0e 	andeq	r0, r0, lr, lsl #24
    1e40:	00000c08 	andeq	r0, r0, r8, lsl #24
    1e44:	0000dc14 	andeq	sp, r0, r4, lsl ip
    1e48:	000c4200 	andeq	r4, ip, r0, lsl #4
    1e4c:	000c3c00 	andeq	r3, ip, r0, lsl #24
    1e50:	00e81900 	rsceq	r1, r8, r0, lsl #18
    1e54:	8f8c0000 	svchi	0x008c0000
    1e58:	00080000 	andeq	r0, r8, r0
    1e5c:	e9140000 	ldmdb	r4, {}	; <UNPREDICTABLE>
    1e60:	76000000 	strvc	r0, [r0], -r0
    1e64:	7000000c 	andvc	r0, r0, ip
    1e68:	0000000c 	andeq	r0, r0, ip
    1e6c:	062e1a00 	strteq	r1, [lr], -r0, lsl #20
    1e70:	062e0000 	strteq	r0, [lr], -r0
    1e74:	28020000 	stmdacs	r2, {}	; <UNPREDICTABLE>
    1e78:	01400006 	cmpeq	r0, r6
    1e7c:	00040000 	andeq	r0, r4, r0
    1e80:	00000a01 	andeq	r0, r0, r1, lsl #20
    1e84:	05060104 	streq	r0, [r6, #-260]	; 0xfffffefc
    1e88:	160c0000 	strne	r0, [ip], -r0
    1e8c:	cc000006 	stcgt	0, cr0, [r0], {6}
    1e90:	a0000005 	andge	r0, r0, r5
    1e94:	7800008f 	stmdavc	r0, {r0, r1, r2, r3, r7}
    1e98:	d1000000 	mrsle	r0, (UNDEF: 0)
    1e9c:	0200000d 	andeq	r0, r0, #13, 0
    1ea0:	6e690504 	cdpvs	5, 6, cr0, cr9, cr4, {0}
    1ea4:	0f030074 	svceq	0x00030074
    1ea8:	03000006 	movweq	r0, #6
    1eac:	003817d1 	ldrsbteq	r1, [r8], -r1
    1eb0:	04040000 	streq	r0, [r4], #-0
    1eb4:	0001b007 	andeq	fp, r1, r7
    1eb8:	06010400 	streq	r0, [r1], -r0, lsl #8
    1ebc:	00000154 	andeq	r0, r0, r4, asr r1
    1ec0:	de050204 	cdple	2, 0, cr0, cr5, cr4, {0}
    1ec4:	04000001 	streq	r0, [r0], #-1
    1ec8:	01c20504 	biceq	r0, r2, r4, lsl #10
    1ecc:	08040000 	stmdaeq	r4, {}	; <UNPREDICTABLE>
    1ed0:	0001bd05 	andeq	fp, r1, r5, lsl #26
    1ed4:	08010400 	stmdaeq	r1, {sl}
    1ed8:	00000152 	andeq	r0, r0, r2, asr r1
    1edc:	52070204 	andpl	r0, r7, #4, 4	; 0x40000000
    1ee0:	04000000 	streq	r0, [r0], #-0
    1ee4:	01ab0704 			; <UNDEFINED> instruction: 0x01ab0704
    1ee8:	08040000 	stmdaeq	r4, {}	; <UNPREDICTABLE>
    1eec:	0001a607 	andeq	sl, r1, r7, lsl #12
    1ef0:	00250500 	eoreq	r0, r5, r0, lsl #10
    1ef4:	00860000 	addeq	r0, r6, r0
    1ef8:	25060000 	strcs	r0, [r6, #-0]
    1efc:	00000000 	andeq	r0, r0, r0
    1f00:	0001cb07 	andeq	ip, r1, r7, lsl #22
    1f04:	0e1c0200 	cdpeq	2, 1, cr0, cr12, cr0, {0}
    1f08:	00000092 	muleq	r0, r2, r0
    1f0c:	00770408 	rsbseq	r0, r7, r8, lsl #8
    1f10:	25050000 	strcs	r0, [r5, #-0]
    1f14:	a7000000 	strge	r0, [r0, -r0]
    1f18:	06000000 	streq	r0, [r0], -r0
    1f1c:	000000a7 	andeq	r0, r0, r7, lsr #1
    1f20:	b4040800 	strlt	r0, [r4], #-2048	; 0xfffff800
    1f24:	04000000 	streq	r0, [r0], #-0
    1f28:	015b0801 	cmpeq	fp, r1, lsl #16
    1f2c:	ad090000 	stcge	0, cr0, [r9, #-0]
    1f30:	07000000 	streq	r0, [r0, -r0]
    1f34:	0000066c 	andeq	r0, r0, ip, ror #12
    1f38:	c50e2102 	strgt	r2, [lr, #-258]	; 0xfffffefe
    1f3c:	08000000 	stmdaeq	r0, {}	; <UNPREDICTABLE>
    1f40:	00009804 	andeq	r9, r0, r4, lsl #16
    1f44:	01f20a00 	mvnseq	r0, r0, lsl #20
    1f48:	04010000 	streq	r0, [r1], #-0
    1f4c:	00013b07 	andeq	r3, r1, r7, lsl #22
    1f50:	008fa000 	addeq	sl, pc, r0
    1f54:	00007800 	andeq	r7, r0, r0, lsl #16
    1f58:	3b9c0100 	blcc	fe702360 <__bss_end__+0xfe6f70c8>
    1f5c:	0b000001 	bleq	1f68 <__code_start__-0x6098>
    1f60:	0100705f 	qaddeq	r7, pc, r0	; <UNPREDICTABLE>
    1f64:	013b1404 	teqeq	fp, r4, lsl #8
    1f68:	50010000 	andpl	r0, r1, r0
    1f6c:	0100630c 	tsteq	r0, ip, lsl #6
    1f70:	00251c04 	eoreq	r1, r5, r4, lsl #24
    1f74:	0cc00000 	stcleq	0, cr0, [r0], {0}
    1f78:	0cbc0000 	ldceq	0, cr0, [ip]
    1f7c:	6e0c0000 	cdpvs	0, 0, cr0, cr12, cr0, {0}
    1f80:	26040100 	strcs	r0, [r4], -r0, lsl #2
    1f84:	0000002c 	andeq	r0, r0, ip, lsr #32
    1f88:	00000ce5 	andeq	r0, r0, r5, ror #25
    1f8c:	00000ce1 	andeq	r0, r0, r1, ror #25
    1f90:	0100700d 	tsteq	r0, sp
    1f94:	013d0b05 	teqeq	sp, r5, lsl #22
    1f98:	0d140000 	ldceq	0, cr0, [r4, #-0]
    1f9c:	0d060000 	stceq	0, cr0, [r6, #-0]
    1fa0:	650d0000 	strvs	r0, [sp, #-0]
    1fa4:	14050100 	strne	r0, [r5], #-256	; 0xffffff00
    1fa8:	0000013d 	andeq	r0, r0, sp, lsr r1
    1fac:	00000d71 	andeq	r0, r0, r1, ror sp
    1fb0:	00000d6f 	andeq	r0, r0, pc, ror #26
    1fb4:	08040e00 	stmdaeq	r4, {r9, sl, fp}
    1fb8:	0000ad04 	andeq	sl, r0, r4, lsl #26
    1fbc:	019d0000 	orrseq	r0, sp, r0
    1fc0:	00040000 	andeq	r0, r4, r0
    1fc4:	00000acd 	andeq	r0, r0, sp, asr #21
    1fc8:	05060104 	streq	r0, [r6, #-260]	; 0xfffffefc
    1fcc:	490c0000 	stmdbmi	ip, {}	; <UNPREDICTABLE>
    1fd0:	cc000006 	stcgt	0, cr0, [r0], {6}
    1fd4:	18000005 	stmdane	r0, {r0, r2}
    1fd8:	58000090 	stmdapl	r0, {r4, r7}
    1fdc:	f6000000 			; <UNDEFINED> instruction: 0xf6000000
    1fe0:	0200000e 	andeq	r0, r0, #14, 0
    1fe4:	00000635 	andeq	r0, r0, r5, lsr r6
    1fe8:	311b2802 	tstcc	fp, r2, lsl #16
    1fec:	03000000 	movweq	r0, #0
    1ff0:	00000659 	andeq	r0, r0, r9, asr r6
    1ff4:	48000404 	stmdami	r0, {r2, sl}
    1ff8:	04000000 	streq	r0, [r0], #-0
    1ffc:	00000644 	andeq	r0, r0, r4, asr #12
    2000:	00000048 	andeq	r0, r0, r8, asr #32
    2004:	04050000 	streq	r0, [r5], #-0
    2008:	00065b02 	andeq	r5, r6, r2, lsl #22
    200c:	18630200 	stmdane	r3!, {r9}^
    2010:	00000025 	andeq	r0, r0, r5, lsr #32
    2014:	69050406 	stmdbvs	r5, {r1, r2, sl}
    2018:	0700746e 	streq	r7, [r0, -lr, ror #8]
    201c:	01b00704 	lslseq	r0, r4, #14
    2020:	01070000 	mrseq	r0, (UNDEF: 7)
    2024:	00015406 	andeq	r5, r1, r6, lsl #8
    2028:	05020700 	streq	r0, [r2, #-1792]	; 0xfffff900
    202c:	000001de 	ldrdeq	r0, [r0], -lr
    2030:	c2050407 	andgt	r0, r5, #117440512	; 0x7000000
    2034:	07000001 	streq	r0, [r0, -r1]
    2038:	01bd0508 			; <UNDEFINED> instruction: 0x01bd0508
    203c:	01070000 	mrseq	r0, (UNDEF: 7)
    2040:	00015208 	andeq	r5, r1, r8, lsl #4
    2044:	07020700 	streq	r0, [r2, -r0, lsl #14]
    2048:	00000052 	andeq	r0, r0, r2, asr r0
    204c:	ab070407 	blge	1c3070 <__bss_end__+0x1b7dd8>
    2050:	07000001 	streq	r0, [r0, -r1]
    2054:	01a60708 			; <UNDEFINED> instruction: 0x01a60708
    2058:	56080000 	strpl	r0, [r8], -r0
    205c:	ab000000 	blge	2064 <__code_start__-0x5f9c>
    2060:	09000000 	stmdbeq	r0, {}	; <UNPREDICTABLE>
    2064:	00000056 	andeq	r0, r0, r6, asr r0
    2068:	01cb0a00 	biceq	r0, fp, r0, lsl #20
    206c:	1c030000 	stcne	0, cr0, [r3], {-0}
    2070:	0000b70e 	andeq	fp, r0, lr, lsl #14
    2074:	9c040b00 			; <UNDEFINED> instruction: 0x9c040b00
    2078:	08000000 	stmdaeq	r0, {}	; <UNPREDICTABLE>
    207c:	00000056 	andeq	r0, r0, r6, asr r0
    2080:	000000cc 	andeq	r0, r0, ip, asr #1
    2084:	0000cc09 	andeq	ip, r0, r9, lsl #24
    2088:	040b0000 	streq	r0, [fp], #-0
    208c:	000000d9 	ldrdeq	r0, [r0], -r9
    2090:	5b080107 	blpl	2024b4 <__bss_end__+0x1f721c>
    2094:	0c000001 	stceq	0, cr0, [r0], {1}
    2098:	000000d2 	ldrdeq	r0, [r0], -r2
    209c:	00066c0a 	andeq	r6, r6, sl, lsl #24
    20a0:	0e210300 	cdpeq	3, 2, cr0, cr1, cr0, {0}
    20a4:	000000ea 	andeq	r0, r0, sl, ror #1
    20a8:	00bd040b 	adcseq	r0, sp, fp, lsl #8
    20ac:	2e0d0000 	cdpcs	0, 0, cr0, cr13, cr0, {0}
    20b0:	01000006 	tsteq	r0, r6
    20b4:	00560506 	subseq	r0, r6, r6, lsl #10
    20b8:	90180000 	andsls	r0, r8, r0
    20bc:	00580000 	subseq	r0, r8, r0
    20c0:	9c010000 	stcls	0, cr0, [r1], {-0}
    20c4:	00000183 	andeq	r0, r0, r3, lsl #3
    20c8:	746d660e 	strbtvc	r6, [sp], #-1550	; 0xfffff9f2
    20cc:	18060100 	stmdane	r6, {r8}
    20d0:	000000cc 	andeq	r0, r0, ip, asr #1
    20d4:	0f709102 	svceq	0x00709102
    20d8:	66756210 			; <UNDEFINED> instruction: 0x66756210
    20dc:	11080100 	mrsne	r0, (UNDEF: 24)
    20e0:	00000183 	andeq	r0, r0, r3, lsl #3
    20e4:	ae940305 	cdpge	3, 9, cr0, cr4, cr5, {0}
    20e8:	26110000 	ldrcs	r0, [r1], -r0
    20ec:	01000006 	tsteq	r0, r6
    20f0:	004a0d09 	subeq	r0, sl, r9, lsl #26
    20f4:	91020000 	mrsls	r0, (UNDEF: 2)
    20f8:	7a73125c 	bvc	1cc6a70 <__bss_end__+0x1cbb7d8>
    20fc:	0d0c0100 	stfeqs	f0, [ip, #-0]
    2100:	00000056 	andeq	r0, r0, r6, asr r0
    2104:	00000d8a 	andeq	r0, r0, sl, lsl #27
    2108:	00000d84 	andeq	r0, r0, r4, lsl #27
    210c:	00904013 	addseq	r4, r0, r3, lsl r0
    2110:	00019400 	andeq	r9, r1, r0, lsl #8
    2114:	00017600 	andeq	r7, r1, r0, lsl #12
    2118:	50011400 	andpl	r1, r1, r0, lsl #8
    211c:	14007502 	strne	r7, [r0], #-1282	; 0xfffffafe
    2120:	0a035101 	beq	d652c <__bss_end__+0xcb294>
    2124:	01140400 	tsteq	r4, r0, lsl #8
    2128:	48910352 	ldmmi	r1, {r1, r4, r6, r8, r9}
    212c:	53011406 	movwpl	r1, #5126	; 0x1406
    2130:	004c9102 	subeq	r9, ip, r2, lsl #2
    2134:	00905415 	addseq	r5, r0, r5, lsl r4
    2138:	50011400 	andpl	r1, r1, r0, lsl #8
    213c:	00007502 	andeq	r7, r0, r2, lsl #10
    2140:	00d21600 	sbcseq	r1, r2, r0, lsl #12
    2144:	01940000 	orrseq	r0, r4, r0
    2148:	5d170000 	ldcpl	0, cr0, [r7, #-0]
    214c:	ff000000 			; <UNDEFINED> instruction: 0xff000000
    2150:	2b180003 	blcs	602164 <__bss_end__+0x5f6ecc>
    2154:	2b000006 	blcs	2174 <__code_start__-0x5e8c>
    2158:	05000006 	streq	r0, [r0, #-6]
    215c:	f3000502 	vrshl.u8	d0, d2, d0
    2160:	04000000 	streq	r0, [r0], #-0
    2164:	000c0f00 	andeq	r0, ip, r0, lsl #30
    2168:	06010400 	streq	r0, [r1], -r0, lsl #8
    216c:	0c000005 	stceq	0, cr0, [r0], {5}
    2170:	00000671 	andeq	r0, r0, r1, ror r6
    2174:	000005cc 	andeq	r0, r0, ip, asr #11
    2178:	00009070 	andeq	r9, r0, r0, ror r0
    217c:	00000038 	andeq	r0, r0, r8, lsr r0
    2180:	0000101a 	andeq	r1, r0, sl, lsl r0
    2184:	69050402 	stmdbvs	r5, {r1, sl}
    2188:	0300746e 	movweq	r7, #1134	; 0x46e
    218c:	01b00704 	lslseq	r0, r4, #14
    2190:	01030000 	mrseq	r0, (UNDEF: 3)
    2194:	00015406 	andeq	r5, r1, r6, lsl #8
    2198:	05020300 	streq	r0, [r2, #-768]	; 0xfffffd00
    219c:	000001de 	ldrdeq	r0, [r0], -lr
    21a0:	c2050403 	andgt	r0, r5, #50331648	; 0x3000000
    21a4:	03000001 	movweq	r0, #1
    21a8:	01bd0508 			; <UNDEFINED> instruction: 0x01bd0508
    21ac:	01030000 	mrseq	r0, (UNDEF: 3)
    21b0:	00015208 	andeq	r5, r1, r8, lsl #4
    21b4:	07020300 	streq	r0, [r2, -r0, lsl #6]
    21b8:	00000052 	andeq	r0, r0, r2, asr r0
    21bc:	ab070403 	blge	1c31d0 <__bss_end__+0x1b7f38>
    21c0:	03000001 	movweq	r0, #1
    21c4:	01a60708 			; <UNDEFINED> instruction: 0x01a60708
    21c8:	25040000 	strcs	r0, [r4, #-0]
    21cc:	7a000000 	bvc	21d4 <__code_start__-0x5e2c>
    21d0:	05000000 	streq	r0, [r0, #-0]
    21d4:	00000025 	andeq	r0, r0, r5, lsr #32
    21d8:	01cb0600 	biceq	r0, fp, r0, lsl #12
    21dc:	1c020000 	stcne	0, cr0, [r2], {-0}
    21e0:	0000860e 	andeq	r8, r0, lr, lsl #12
    21e4:	6b040700 	blvs	103dec <__bss_end__+0xf8b54>
    21e8:	04000000 	streq	r0, [r0], #-0
    21ec:	00000025 	andeq	r0, r0, r5, lsr #32
    21f0:	0000009b 	muleq	r0, fp, r0
    21f4:	00009b05 	andeq	r9, r0, r5, lsl #22
    21f8:	04070000 	streq	r0, [r7], #-0
    21fc:	000000a8 	andeq	r0, r0, r8, lsr #1
    2200:	5b080103 	blpl	202614 <__bss_end__+0x1f737c>
    2204:	08000001 	stmdaeq	r0, {r0}
    2208:	000000a1 	andeq	r0, r0, r1, lsr #1
    220c:	00066c06 	andeq	r6, r6, r6, lsl #24
    2210:	0e210200 	cdpeq	2, 2, cr0, cr1, cr0, {0}
    2214:	000000b9 	strheq	r0, [r0], -r9
    2218:	008c0407 	addeq	r0, ip, r7, lsl #8
    221c:	ad090000 	stcge	0, cr0, [r9, #-0]
    2220:	01000000 	mrseq	r0, (UNDEF: 0)
    2224:	0305070c 	movweq	r0, #22284	; 0x570c
    2228:	0000ae5c 	andeq	sl, r0, ip, asr lr
    222c:	0006630a 	andeq	r6, r6, sl, lsl #6
    2230:	05040100 	streq	r0, [r4, #-256]	; 0xffffff00
    2234:	00000025 	andeq	r0, r0, r5, lsr #32
    2238:	00009070 	andeq	r9, r0, r0, ror r0
    223c:	00000038 	andeq	r0, r0, r8, lsr r0
    2240:	700b9c01 	andvc	r9, fp, r1, lsl #24
    2244:	1f040100 	svcne	0x00040100
    2248:	0000009b 	muleq	r0, fp, r0
    224c:	00000dbb 			; <UNDEFINED> instruction: 0x00000dbb
    2250:	00000db3 			; <UNDEFINED> instruction: 0x00000db3
    2254:	0c7f0000 	ldcleq	0, cr0, [pc], #-0	; 225c <__code_start__-0x5da4>
    2258:	00040000 	andeq	r0, r4, r0
    225c:	00000cad 	andeq	r0, r0, sp, lsr #25
    2260:	05060104 	streq	r0, [r6, #-260]	; 0xfffffefc
    2264:	900c0000 	andls	r0, ip, r0
    2268:	cc000006 	stcgt	0, cr0, [r0], {6}
    226c:	a8000005 	stmdage	r0, {r0, r2}
    2270:	b4000090 	strlt	r0, [r0], #-144	; 0xffffff70
    2274:	be000009 	cdplt	0, 0, cr0, cr0, cr9, {0}
    2278:	02000010 	andeq	r0, r0, #16, 0
    227c:	01a60708 			; <UNDEFINED> instruction: 0x01a60708
    2280:	04020000 	streq	r0, [r2], #-0
    2284:	0001b007 	andeq	fp, r1, r7
    2288:	05040300 	streq	r0, [r4, #-768]	; 0xfffffd00
    228c:	00746e69 	rsbseq	r6, r4, r9, ror #28
    2290:	54060102 	strpl	r0, [r6], #-258	; 0xfffffefe
    2294:	02000001 	andeq	r0, r0, #1, 0
    2298:	01de0502 	bicseq	r0, lr, r2, lsl #10
    229c:	04020000 	streq	r0, [r2], #-0
    22a0:	0001c205 	andeq	ip, r1, r5, lsl #4
    22a4:	05080200 	streq	r0, [r8, #-512]	; 0xfffffe00
    22a8:	000001bd 			; <UNDEFINED> instruction: 0x000001bd
    22ac:	52080102 	andpl	r0, r8, #-2147483648	; 0x80000000
    22b0:	02000001 	andeq	r0, r0, #1, 0
    22b4:	00520702 	subseq	r0, r2, r2, lsl #14
    22b8:	92040000 	andls	r0, r4, #0, 0
    22bc:	02000002 	andeq	r0, r0, #2, 0
    22c0:	00701934 	rsbseq	r1, r0, r4, lsr r9
    22c4:	04020000 	streq	r0, [r2], #-0
    22c8:	0001ab07 	andeq	sl, r1, r7, lsl #22
    22cc:	06870400 	streq	r0, [r7], r0, lsl #8
    22d0:	37020000 	strcc	r0, [r2, -r0]
    22d4:	00002519 	andeq	r2, r0, r9, lsl r5
    22d8:	00330500 	eorseq	r0, r3, r0, lsl #10
    22dc:	00920000 	addseq	r0, r2, r0
    22e0:	33060000 	movwcc	r0, #24576	; 0x6000
    22e4:	00000000 	andeq	r0, r0, r0
    22e8:	0001cb07 	andeq	ip, r1, r7, lsl #22
    22ec:	0e1c0300 	cdpeq	3, 1, cr0, cr12, cr0, {0}
    22f0:	0000009e 	muleq	r0, lr, r0
    22f4:	00830408 	addeq	r0, r3, r8, lsl #8
    22f8:	33050000 	movwcc	r0, #20480	; 0x5000
    22fc:	b3000000 	movwlt	r0, #0
    2300:	06000000 	streq	r0, [r0], -r0
    2304:	000000b3 	strheq	r0, [r0], -r3
    2308:	c0040800 	andgt	r0, r4, r0, lsl #16
    230c:	02000000 	andeq	r0, r0, #0, 0
    2310:	015b0801 	cmpeq	fp, r1, lsl #16
    2314:	b9090000 	stmdblt	r9, {}	; <UNPREDICTABLE>
    2318:	07000000 	streq	r0, [r0, -r0]
    231c:	0000066c 	andeq	r0, r0, ip, ror #12
    2320:	d10e2103 	tstle	lr, r3, lsl #2
    2324:	08000000 	stmdaeq	r0, {}	; <UNPREDICTABLE>
    2328:	0000a404 	andeq	sl, r0, r4, lsl #8
    232c:	06a30700 	strteq	r0, [r3], r0, lsl #14
    2330:	0b040000 	bleq	102338 <__bss_end__+0xf70a0>
    2334:	0000b90d 	andeq	fp, r0, sp, lsl #18
    2338:	06fc0700 	ldrbteq	r0, [ip], r0, lsl #14
    233c:	0c040000 	stceq	0, cr0, [r4], {-0}
    2340:	0000b90d 	andeq	fp, r0, sp, lsl #18
    2344:	03960700 	orrseq	r0, r6, #0, 14
    2348:	0d040000 	stceq	0, cr0, [r4, #-0]
    234c:	0000b90d 	andeq	fp, r0, sp, lsl #18
    2350:	04680700 	strbteq	r0, [r8], #-1792	; 0xfffff900
    2354:	0e040000 	cdpeq	0, 0, cr0, cr4, cr0, {0}
    2358:	0000b90d 	andeq	fp, r0, sp, lsl #18
    235c:	04b50700 	ldrteq	r0, [r5], #1792	; 0x700
    2360:	0f040000 	svceq	0x00040000
    2364:	0000b90d 	andeq	fp, r0, sp, lsl #18
    2368:	03f40700 	mvnseq	r0, #0, 14
    236c:	10040000 	andne	r0, r4, r0
    2370:	0000b90d 	andeq	fp, r0, sp, lsl #18
    2374:	07250700 	streq	r0, [r5, -r0, lsl #14]!
    2378:	11040000 	mrsne	r0, (UNDEF: 4)
    237c:	0000b90d 	andeq	fp, r0, sp, lsl #18
    2380:	06c00700 	strbeq	r0, [r0], r0, lsl #14
    2384:	12040000 	andne	r0, r4, #0, 0
    2388:	0000b90d 	andeq	fp, r0, sp, lsl #18
    238c:	06350400 	ldrteq	r0, [r5], -r0, lsl #8
    2390:	28050000 	stmdacs	r5, {}	; <UNPREDICTABLE>
    2394:	0001431b 	andeq	r4, r1, fp, lsl r3
    2398:	06590a00 	ldrbeq	r0, [r9], -r0, lsl #20
    239c:	06040000 	streq	r0, [r4], -r0
    23a0:	00015a00 	andeq	r5, r1, r0, lsl #20
    23a4:	06440b00 	strbeq	r0, [r4], -r0, lsl #22
    23a8:	015a0000 	cmpeq	sl, r0
    23ac:	00000000 	andeq	r0, r0, r0
    23b0:	5b04040c 	blpl	1033e8 <__bss_end__+0xf8150>
    23b4:	05000006 	streq	r0, [r0, #-6]
    23b8:	01371863 	teqeq	r7, r3, ror #16
    23bc:	2b0d0000 	blcs	3423c4 <__bss_end__+0x33712c>
    23c0:	01000006 	tsteq	r0, r6
    23c4:	00330581 	eorseq	r0, r3, r1, lsl #11
    23c8:	94300000 	ldrtls	r0, [r0], #-0
    23cc:	062c0000 	strteq	r0, [ip], -r0
    23d0:	9c010000 	stcls	0, cr0, [r1], {-0}
    23d4:	0000086a 	andeq	r0, r0, sl, ror #16
    23d8:	6675620e 	ldrbtvs	r6, [r5], -lr, lsl #4
    23dc:	15810100 	strne	r0, [r1, #256]	; 0x100
    23e0:	0000086a 	andeq	r0, r0, sl, ror #16
    23e4:	00000dfb 	strdeq	r0, [r0], -fp
    23e8:	00000df1 	strdeq	r0, [r0], -r1
    23ec:	01006e0e 	tsteq	r0, lr, lsl #28
    23f0:	00331e81 	eorseq	r1, r3, r1, lsl #29
    23f4:	0e480000 	cdpeq	0, 4, cr0, cr8, cr0, {0}
    23f8:	0e400000 	cdpeq	0, 4, cr0, cr0, cr0, {0}
    23fc:	660e0000 	strvs	r0, [lr], -r0
    2400:	0100746d 	tsteq	r0, sp, ror #8
    2404:	00b32d81 	adcseq	r2, r3, r1, lsl #27
    2408:	0e9a0000 	cdpeq	0, 9, cr0, cr10, cr0, {0}
    240c:	0e820000 	cdpeq	0, 8, cr0, cr2, cr0, {0}
    2410:	260f0000 	strcs	r0, [pc], -r0
    2414:	01000006 	tsteq	r0, r6
    2418:	015c3a81 	cmpeq	ip, r1, lsl #21
    241c:	0f5c0000 	svceq	0x005c0000
    2420:	0f2e0000 	svceq	0x002e0000
    2424:	70100000 	andsvc	r0, r0, r0
    2428:	08820100 	stmeq	r2, {r8}
    242c:	0000086a 	andeq	r0, r0, sl, ror #16
    2430:	000010af 	andeq	r1, r0, pc, lsr #1
    2434:	00001099 	muleq	r0, r9, r0
    2438:	01006510 	tsteq	r0, r0, lsl r5
    243c:	086a1282 	stmdaeq	sl!, {r1, r7, r9, ip}^
    2440:	11380000 	teqne	r8, r0
    2444:	11360000 	teqne	r6, r0
    2448:	78100000 	ldmdavc	r0, {}	; <UNPREDICTABLE>
    244c:	83010030 	movwhi	r0, #4144	; 0x1030
    2450:	0000640e 	andeq	r6, r0, lr, lsl #8
    2454:	00115100 	andseq	r5, r1, r0, lsl #2
    2458:	00114b00 	andseq	r4, r1, r0, lsl #22
    245c:	31781000 	cmncc	r8, r0
    2460:	11830100 	orrne	r0, r3, r0, lsl #2
    2464:	00000064 	andeq	r0, r0, r4, rrx
    2468:	00001180 	andeq	r1, r0, r0, lsl #3
    246c:	0000117a 	andeq	r1, r0, sl, ror r1
    2470:	0006de11 	andeq	sp, r6, r1, lsl lr
    2474:	11860100 	orrne	r0, r6, r0, lsl #2
    2478:	000000b3 	strheq	r0, [r0], -r3
    247c:	000011b1 			; <UNDEFINED> instruction: 0x000011b1
    2480:	000011a9 	andeq	r1, r0, r9, lsr #3
    2484:	00019912 	andeq	r9, r1, r2, lsl r9
    2488:	00088000 	andeq	r8, r8, r0
    248c:	48030500 	stmdami	r3, {r8, sl}
    2490:	130000ac 	movwne	r0, #172	; 0xac
    2494:	000001a8 	andeq	r0, r0, r8, lsr #3
    2498:	01007310 	tsteq	r0, r0, lsl r3
    249c:	086a0a91 	stmdaeq	sl!, {r0, r4, r7, r9, fp}^
    24a0:	11f70000 	mvnsne	r0, r0
    24a4:	11eb0000 	mvnne	r0, r0
    24a8:	6e140000 	cdpvs	0, 1, cr0, cr4, cr0, {0}
    24ac:	01006d75 	tsteq	r0, r5, ror sp
    24b0:	08850d91 	stmeq	r5, {r0, r4, r7, r8, sl, fp}
    24b4:	91030000 	mrsls	r0, (UNDEF: 3)
    24b8:	32157dd8 	andscc	r7, r5, #216, 26	; 0x3600
    24bc:	01000007 	tsteq	r0, r7
    24c0:	08851791 	stmeq	r5, {r0, r4, r7, r8, r9, sl, ip}
    24c4:	91030000 	mrsls	r0, (UNDEF: 3)
    24c8:	b2117ed8 	andslt	r7, r1, #216, 28	; 0xd80
    24cc:	01000006 	tsteq	r0, r6
    24d0:	002c0d92 	mlaeq	ip, r2, sp, r0
    24d4:	12490000 	subne	r0, r9, #0, 0
    24d8:	12410000 	subne	r0, r1, #0, 0
    24dc:	d0160000 	andsle	r0, r6, r0
    24e0:	f1000001 	cps	#1
    24e4:	10000004 	andne	r0, r0, r4
    24e8:	01007974 	tsteq	r0, r4, ror r9
    24ec:	00b31d9e 	umlalseq	r1, r3, lr, sp
    24f0:	128a0000 	addne	r0, sl, #0, 0
    24f4:	127e0000 	rsbsne	r0, lr, #0, 0
    24f8:	78140000 	ldmdavc	r4, {}	; <UNPREDICTABLE>
    24fc:	a2010078 	andge	r0, r1, #120, 0	; 0x78
    2500:	0000771a 	andeq	r7, r0, sl, lsl r7
    2504:	93590600 	cmpls	r9, #0, 12
    2508:	04935b04 	ldreq	r5, [r3], #2820	; 0xb04
    250c:	0095bc17 	addseq	fp, r5, r7, lsl ip
    2510:	000c3a00 	andeq	r3, ip, r0, lsl #20
    2514:	0002d800 	andeq	sp, r2, r0, lsl #16
    2518:	50011800 	andpl	r1, r1, r0, lsl #16
    251c:	18007602 	stmdane	r0, {r1, r9, sl, ip, sp, lr}
    2520:	03055101 	movweq	r5, #20737	; 0x5101
    2524:	0000ab3c 	andeq	sl, r0, ip, lsr fp
    2528:	01520118 	cmpeq	r2, r8, lsl r1
    252c:	d4170033 	ldrle	r0, [r7], #-51	; 0xffffffcd
    2530:	3a000095 	bcc	278c <__code_start__-0x5874>
    2534:	fa00000c 	blx	256c <__code_start__-0x5a94>
    2538:	18000002 	stmdane	r0, {r1}
    253c:	76025001 	strvc	r5, [r2], -r1
    2540:	51011800 	tstpl	r1, r0, lsl #16
    2544:	ab500305 	blge	1403160 <__bss_end__+0x13f7ec8>
    2548:	01180000 	tsteq	r8, r0
    254c:	00330152 	eorseq	r0, r3, r2, asr r1
    2550:	0095f817 	addseq	pc, r5, r7, lsl r8	; <UNPREDICTABLE>
    2554:	000c4600 	andeq	r4, ip, r0, lsl #12
    2558:	00031700 	andeq	r1, r3, r0, lsl #14
    255c:	50011800 	andpl	r1, r1, r0, lsl #16
    2560:	ab400305 	blge	100317c <__bss_end__+0xff7ee4>
    2564:	01180000 	tsteq	r8, r0
    2568:	007b0251 	rsbseq	r0, fp, r1, asr r2
    256c:	96041700 	strls	r1, [r4], -r0, lsl #14
    2570:	0c460000 	mareq	acc0, r0, r6
    2574:	03340000 	teqeq	r4, #0, 0
    2578:	01180000 	tsteq	r8, r0
    257c:	48030550 	stmdami	r3, {r4, r6, r8, sl}
    2580:	180000ab 	stmdane	r0, {r0, r1, r3, r5, r7}
    2584:	79025101 	stmdbvc	r2, {r0, r8, ip, lr}
    2588:	14170000 	ldrne	r0, [r7], #-0
    258c:	3a000096 	bcc	27ec <__code_start__-0x5814>
    2590:	5600000c 	strpl	r0, [r0], -ip
    2594:	18000003 	stmdane	r0, {r0, r1}
    2598:	76025001 	strvc	r5, [r2], -r1
    259c:	51011800 	tstpl	r1, r0, lsl #16
    25a0:	ab3c0305 	blge	f031bc <__bss_end__+0xef7f24>
    25a4:	01180000 	tsteq	r8, r0
    25a8:	00330152 	eorseq	r0, r3, r2, asr r1
    25ac:	00964417 	addseq	r4, r6, r7, lsl r4
    25b0:	000aa400 	andeq	sl, sl, r0, lsl #8
    25b4:	00038300 	andeq	r8, r3, r0, lsl #6
    25b8:	50011800 	andpl	r1, r1, r0, lsl #16
    25bc:	01184001 	tsteq	r8, r1
    25c0:	d0910351 	addsle	r0, r1, r1, asr r3
    25c4:	5201187d 	andpl	r1, r1, #8192000	; 0x7d0000
    25c8:	18007b02 	stmdane	r0, {r1, r8, r9, fp, ip, sp, lr}
    25cc:	75025301 	strvc	r5, [r2, #-769]	; 0xfffffcff
    25d0:	7d021800 	stcvc	8, cr1, [r2, #-0]
    25d4:	00760200 	rsbseq	r0, r6, r0, lsl #4
    25d8:	96641700 	strbtls	r1, [r4], -r0, lsl #14
    25dc:	0aa40000 	beq	fe9025e4 <__bss_end__+0xfe8f734c>
    25e0:	03aa0000 			; <UNDEFINED> instruction: 0x03aa0000
    25e4:	01180000 	tsteq	r8, r0
    25e8:	18400150 	stmdane	r0, {r4, r6, r8}^
    25ec:	91035101 	tstls	r3, r1, lsl #2
    25f0:	01187ed0 			; <UNDEFINED> instruction: 0x01187ed0
    25f4:	00790252 	rsbseq	r0, r9, r2, asr r2
    25f8:	007d0218 	rsbseq	r0, sp, r8, lsl r2
    25fc:	00007602 	andeq	r7, r0, r2, lsl #12
    2600:	00967417 	addseq	r7, r6, r7, lsl r4
    2604:	000c5200 	andeq	r5, ip, r0, lsl #4
    2608:	0003c600 	andeq	ip, r3, r0, lsl #12
    260c:	50011800 	andpl	r1, r1, r0, lsl #16
    2610:	7dd09103 	ldfvcp	f1, [r0, #12]
    2614:	03510118 	cmpeq	r1, #6
    2618:	007ed291 			; <UNDEFINED> instruction: 0x007ed291
    261c:	0098b817 	addseq	fp, r8, r7, lsl r8
    2620:	000c3a00 	andeq	r3, ip, r0, lsl #20
    2624:	0003e800 	andeq	lr, r3, r0, lsl #16
    2628:	50011800 	andpl	r1, r1, r0, lsl #16
    262c:	18007602 	stmdane	r0, {r1, r9, sl, ip, sp, lr}
    2630:	03055101 	movweq	r5, #20737	; 0x5101
    2634:	0000ab50 	andeq	sl, r0, r0, asr fp
    2638:	01520118 	cmpeq	r2, r8, lsl r1
    263c:	dc170033 	ldcle	0, cr0, [r7], {51}	; 0x33
    2640:	a4000098 	strge	r0, [r0], #-152	; 0xffffff68
    2644:	1500000a 	strne	r0, [r0, #-10]
    2648:	18000004 	stmdane	r0, {r2}
    264c:	3a015001 	bcc	56658 <__bss_end__+0x4b3c0>
    2650:	03510118 	cmpeq	r1, #6
    2654:	187dd091 	ldmdane	sp!, {r0, r4, r7, ip, lr, pc}^
    2658:	7b025201 	blvc	96e64 <__bss_end__+0x8bbcc>
    265c:	53011800 	movwpl	r1, #6144	; 0x1800
    2660:	18007502 	stmdane	r0, {r1, r8, sl, ip, sp, lr}
    2664:	02007d02 	andeq	r7, r0, #128	; 0x80
    2668:	17000076 	smlsdxne	r0, r6, r0, r0
    266c:	000098fc 	strdeq	r9, [r0], -ip
    2670:	00000aa4 	andeq	r0, r0, r4, lsr #21
    2674:	0000043c 	andeq	r0, r0, ip, lsr r4
    2678:	01500118 	cmpeq	r0, r8, lsl r1
    267c:	5101183a 	tstpl	r1, sl, lsr r8
    2680:	7ed09103 	atnvcs	f1, f3
    2684:	02520118 	subseq	r0, r2, #6
    2688:	02180079 	andseq	r0, r8, #121, 0	; 0x79
    268c:	7602007d 			; <UNDEFINED> instruction: 0x7602007d
    2690:	08170000 	ldmdaeq	r7, {}	; <UNPREDICTABLE>
    2694:	5e000099 	mcrpl	0, 0, r0, cr0, cr9, {4}
    2698:	5a00000c 	bpl	26d0 <__code_start__-0x5930>
    269c:	18000004 	stmdane	r0, {r2}
    26a0:	91035001 	tstls	r3, r1
    26a4:	01187dd0 			; <UNDEFINED> instruction: 0x01187dd0
    26a8:	58030551 	stmdapl	r3, {r0, r4, r6, r8, sl}
    26ac:	000000a9 	andeq	r0, r0, r9, lsr #1
    26b0:	00991c17 	addseq	r1, r9, r7, lsl ip
    26b4:	000c6a00 	andeq	r6, ip, r0, lsl #20
    26b8:	00047600 	andeq	r7, r4, r0, lsl #12
    26bc:	50011800 	andpl	r1, r1, r0, lsl #16
    26c0:	7dd09103 	ldfvcp	f1, [r0, #12]
    26c4:	03510118 	cmpeq	r1, #6
    26c8:	007ed091 			; <UNDEFINED> instruction: 0x007ed091
    26cc:	00992819 	addseq	r2, r9, r9, lsl r8
    26d0:	000c5200 	andeq	r5, ip, r0, lsl #4
    26d4:	99ec1700 	stmibls	ip!, {r8, r9, sl, ip}^
    26d8:	0c460000 	mareq	acc0, r0, r6
    26dc:	04a80000 	strteq	r0, [r8], #0
    26e0:	01180000 	tsteq	r8, r0
    26e4:	b8030550 	stmdalt	r3, {r4, r6, r8, sl}
    26e8:	180000a6 	stmdane	r0, {r1, r2, r5, r7}
    26ec:	03055101 	movweq	r5, #20737	; 0x5101
    26f0:	0000aaf0 	strdeq	sl, [r0], -r0
    26f4:	05520118 	ldrbeq	r0, [r2, #-280]	; 0xfffffee8
    26f8:	00ac4803 	adceq	r4, ip, r3, lsl #16
    26fc:	f0190000 			; <UNDEFINED> instruction: 0xf0190000
    2700:	76000099 			; <UNDEFINED> instruction: 0x76000099
    2704:	1700000c 	strne	r0, [r0, -ip]
    2708:	00009a08 	andeq	r9, r0, r8, lsl #20
    270c:	00000c46 	andeq	r0, r0, r6, asr #24
    2710:	000004e7 	andeq	r0, r0, r7, ror #9
    2714:	05500118 	ldrbeq	r0, [r0, #-280]	; 0xfffffee8
    2718:	00ab9003 	adceq	r9, fp, r3
    271c:	51011800 	tstpl	r1, r0, lsl #16
    2720:	aaf00305 	bge	ffc0333c <__bss_end__+0xffbf80a4>
    2724:	01180000 	tsteq	r8, r0
    2728:	48030552 	stmdami	r3, {r1, r4, r6, r8, sl}
    272c:	180000ac 	stmdane	r0, {r2, r3, r5, r7}
    2730:	08025301 	stmdaeq	r2, {r0, r8, r9, ip, lr}
    2734:	7d0218b6 	stcvc	8, cr1, [r2, #-728]	; 0xfffffd28
    2738:	00760200 	rsbseq	r0, r6, r0, lsl #4
    273c:	9a0c1900 	bls	308b44 <__bss_end__+0x2fd8ac>
    2740:	0c760000 	ldcleq	0, cr0, [r6], #-0
    2744:	1a000000 	bne	274c <__code_start__-0x58b4>
    2748:	000009e3 	andeq	r0, r0, r3, ror #19
    274c:	000094bc 			; <UNDEFINED> instruction: 0x000094bc
    2750:	01f80004 	mvnseq	r0, r4
    2754:	94010000 	strls	r0, [r1], #-0
    2758:	0005150a 	andeq	r1, r5, sl, lsl #10
    275c:	09f41b00 	ldmibeq	r4!, {r8, r9, fp, ip}^
    2760:	12e60000 	rscne	r0, r6, #0, 0
    2764:	12e20000 	rscne	r0, r2, #0, 0
    2768:	1a000000 	bne	2770 <__code_start__-0x5890>
    276c:	00000895 	muleq	r0, r5, r8
    2770:	000096a4 	andeq	r9, r0, r4, lsr #13
    2774:	02180001 	andseq	r0, r8, #1, 0
    2778:	dc010000 	stcle	0, cr0, [r1], {-0}
    277c:	00064b09 	andeq	r4, r6, r9, lsl #22
    2780:	08be1b00 	ldmeq	lr!, {r8, r9, fp, ip}
    2784:	13140000 	tstne	r4, #0, 0
    2788:	130e0000 	movwne	r0, #57344	; 0xe000
    278c:	e01b0000 	ands	r0, fp, r0
    2790:	49000008 	stmdbmi	r0, {r3}
    2794:	43000013 	movwmi	r0, #19
    2798:	1b000013 	blne	27ec <__code_start__-0x5814>
    279c:	000008d4 	ldrdeq	r0, [r0], -r4
    27a0:	0000137b 	andeq	r1, r0, fp, ror r3
    27a4:	00001375 	andeq	r1, r0, r5, ror r3
    27a8:	0008c81c 	andeq	ip, r8, ip, lsl r8
    27ac:	08b21b00 	ldmeq	r2!, {r8, r9, fp, ip}
    27b0:	13ac0000 			; <UNDEFINED> instruction: 0x13ac0000
    27b4:	13a40000 			; <UNDEFINED> instruction: 0x13a40000
    27b8:	a61b0000 	ldrge	r0, [fp], -r0
    27bc:	ef000008 	svc	0x00000008
    27c0:	e9000013 	stmdb	r0, {r0, r1, r4}
    27c4:	13000013 	movwne	r0, #19
    27c8:	00000218 	andeq	r0, r0, r8, lsl r2
    27cc:	0008ec1d 	andeq	lr, r8, sp, lsl ip
    27d0:	d8910300 	ldmle	r1, {r8, r9}
    27d4:	08f81e7e 	ldmeq	r8!, {r1, r2, r3, r4, r5, r6, r9, sl, fp, ip}^
    27d8:	14290000 	strtne	r0, [r9], #-0
    27dc:	141b0000 	ldrne	r0, [fp], #-0
    27e0:	021f0000 	andseq	r0, pc, #0, 0
    27e4:	1a000009 	bne	2810 <__code_start__-0x57f0>
    27e8:	000009a3 	andeq	r0, r0, r3, lsr #19
    27ec:	000096b0 			; <UNDEFINED> instruction: 0x000096b0
    27f0:	02480004 	subeq	r0, r8, #4, 0
    27f4:	7c010000 	stcvc	0, cr0, [r1], {-0}
    27f8:	0005e209 	andeq	lr, r5, r9, lsl #4
    27fc:	09ca1b00 	stmibeq	sl, {r8, r9, fp, ip}^
    2800:	14930000 	ldrne	r0, [r3], #0
    2804:	148d0000 	strne	r0, [sp], #0
    2808:	be1b0000 	cdplt	0, 1, cr0, cr11, cr0, {0}
    280c:	c8000009 	stmdagt	r0, {r0, r3}
    2810:	bc000014 	stclt	0, cr0, [r0], {20}
    2814:	1b000014 	blne	286c <__code_start__-0x5794>
    2818:	000009b4 			; <UNDEFINED> instruction: 0x000009b4
    281c:	0000152e 	andeq	r1, r0, lr, lsr #10
    2820:	0000151e 	andeq	r1, r0, lr, lsl r5
    2824:	00024813 	andeq	r4, r2, r3, lsl r8
    2828:	09d61e00 	ldmibeq	r6, {r9, sl, fp, ip}^
    282c:	15ab0000 	strne	r0, [fp, #0]!
    2830:	159d0000 	ldrne	r0, [sp]
    2834:	00000000 	andeq	r0, r0, r0
    2838:	00094f20 	andeq	r4, r9, r0, lsr #30
    283c:	00977800 	addseq	r7, r7, r0, lsl #16
    2840:	78000200 	stmdavc	r0, {r9}
    2844:	01000002 	tsteq	r0, r2
    2848:	801b097c 	andshi	r0, fp, ip, ror r9
    284c:	0b000009 	bleq	2878 <__code_start__-0x5788>
    2850:	05000016 	streq	r0, [r0, #-22]	; 0xffffffea
    2854:	1b000016 	blne	28b4 <__code_start__-0x574c>
    2858:	00000976 	andeq	r0, r0, r6, ror r9
    285c:	00001641 	andeq	r1, r0, r1, asr #12
    2860:	00001637 	andeq	r1, r0, r7, lsr r6
    2864:	00096c1b 	andeq	r6, r9, fp, lsl ip
    2868:	00169000 	andseq	r9, r6, r0
    286c:	00168c00 	andseq	r8, r6, r0, lsl #24
    2870:	09601b00 	stmdbeq	r0!, {r8, r9, fp, ip}^
    2874:	16c00000 	strbne	r0, [r0], r0
    2878:	16b20000 	ldrtne	r0, [r2], r0
    287c:	78130000 	ldmdavc	r3, {}	; <UNPREDICTABLE>
    2880:	1e000002 	cdpne	0, 0, cr0, cr0, cr2, {0}
    2884:	0000098c 	andeq	r0, r0, ip, lsl #19
    2888:	00001725 	andeq	r1, r0, r5, lsr #14
    288c:	00001723 	andeq	r1, r0, r3, lsr #14
    2890:	0009981e 	andeq	r9, r9, lr, lsl r8
    2894:	00173f00 	andseq	r3, r7, r0, lsl #30
    2898:	00173900 	andseq	r3, r7, r0, lsl #18
    289c:	00000000 	andeq	r0, r0, r0
    28a0:	08951a00 	ldmeq	r5, {r9, fp, ip}
    28a4:	97b40000 	ldrls	r0, [r4, r0]!
    28a8:	00000000 	andeq	r0, r0, r0
    28ac:	000002a8 	andeq	r0, r0, r8, lsr #5
    28b0:	8909d601 	stmdbhi	r9, {r0, r9, sl, ip, lr, pc}
    28b4:	1b000007 	blne	28d8 <__code_start__-0x5728>
    28b8:	000008be 			; <UNDEFINED> instruction: 0x000008be
    28bc:	00001772 	andeq	r1, r0, r2, ror r7
    28c0:	0000176e 	andeq	r1, r0, lr, ror #14
    28c4:	0008e01b 	andeq	lr, r8, fp, lsl r0
    28c8:	00179800 	andseq	r9, r7, r0, lsl #16
    28cc:	00179400 	andseq	r9, r7, r0, lsl #8
    28d0:	08d41b00 	ldmeq	r4, {r8, r9, fp, ip}^
    28d4:	17bc0000 	ldrne	r0, [ip, r0]!
    28d8:	17b80000 	ldrne	r0, [r8, r0]!
    28dc:	c81c0000 	ldmdagt	ip, {}	; <UNPREDICTABLE>
    28e0:	1b000008 	blne	2908 <__code_start__-0x56f8>
    28e4:	000008b2 			; <UNDEFINED> instruction: 0x000008b2
    28e8:	000017e0 	andeq	r1, r0, r0, ror #15
    28ec:	000017da 	ldrdeq	r1, [r0], -sl
    28f0:	0008a61b 	andeq	sl, r8, fp, lsl r6
    28f4:	00181300 	andseq	r1, r8, r0, lsl #6
    28f8:	00180f00 	andseq	r0, r8, r0, lsl #30
    28fc:	02a81300 	adceq	r1, r8, #0, 6
    2900:	ec1d0000 	ldc	0, cr0, [sp], {-0}
    2904:	03000008 	movweq	r0, #8
    2908:	1e7ed891 	mrcne	8, 3, sp, cr14, cr1, {4}
    290c:	000008f8 	strdeq	r0, [r0], -r8
    2910:	0000183d 	andeq	r1, r0, sp, lsr r8
    2914:	00001833 	andeq	r1, r0, r3, lsr r8
    2918:	0009021e 	andeq	r0, r9, lr, lsl r2
    291c:	00188200 	andseq	r8, r8, r0, lsl #4
    2920:	00187e00 	andseq	r7, r8, r0, lsl #28
    2924:	09a31a00 	stmibeq	r3!, {r9, fp, ip}
    2928:	97d00000 	ldrbls	r0, [r0, r0]
    292c:	00030000 	andeq	r0, r3, r0
    2930:	000002c8 	andeq	r0, r0, r8, asr #5
    2934:	20097c01 	andcs	r7, r9, r1, lsl #24
    2938:	1b000007 	blne	295c <__code_start__-0x56a4>
    293c:	000009ca 	andeq	r0, r0, sl, asr #19
    2940:	000018a4 	andeq	r1, r0, r4, lsr #17
    2944:	000018a0 	andeq	r1, r0, r0, lsr #17
    2948:	0009be1b 	andeq	fp, r9, fp, lsl lr
    294c:	0018c600 	andseq	ip, r8, r0, lsl #12
    2950:	0018c200 	andseq	ip, r8, r0, lsl #4
    2954:	09b41b00 	ldmibeq	r4!, {r8, r9, fp, ip}
    2958:	18f00000 	ldmne	r0!, {}^	; <UNPREDICTABLE>
    295c:	18e40000 	stmiane	r4!, {}^	; <UNPREDICTABLE>
    2960:	c8130000 	ldmdagt	r3, {}	; <UNPREDICTABLE>
    2964:	1e000002 	cdpne	0, 0, cr0, cr0, cr2, {0}
    2968:	000009d6 	ldrdeq	r0, [r0], -r6
    296c:	0000194c 	andeq	r1, r0, ip, asr #18
    2970:	00001940 	andeq	r1, r0, r0, asr #18
    2974:	4f200000 	svcmi	0x00200000
    2978:	58000009 	stmdapl	r0, {r0, r3}
    297c:	02000098 	andeq	r0, r0, #152, 0	; 0x98
    2980:	0002f000 	andeq	pc, r2, r0
    2984:	097c0100 	ldmdbeq	ip!, {r8}^
    2988:	0009801b 	andeq	r8, r9, fp, lsl r0
    298c:	00199c00 	andseq	r9, r9, r0, lsl #24
    2990:	00199800 	andseq	r9, r9, r0, lsl #16
    2994:	09761b00 	ldmdbeq	r6!, {r8, r9, fp, ip}^
    2998:	19c40000 	stmibne	r4, {}^	; <UNPREDICTABLE>
    299c:	19ba0000 	ldmibne	sl!, {}	; <UNPREDICTABLE>
    29a0:	6c1b0000 	ldcvs	0, cr0, [fp], {-0}
    29a4:	10000009 	andne	r0, r0, r9
    29a8:	0c00001a 	stceq	0, cr0, [r0], {26}
    29ac:	1b00001a 	blne	2a1c <__code_start__-0x55e4>
    29b0:	00000960 	andeq	r0, r0, r0, ror #18
    29b4:	00001a3e 	andeq	r1, r0, lr, lsr sl
    29b8:	00001a32 	andeq	r1, r0, r2, lsr sl
    29bc:	0002f013 	andeq	pc, r2, r3, lsl r0	; <UNPREDICTABLE>
    29c0:	098c1e00 	stmibeq	ip, {r9, sl, fp, ip}
    29c4:	1a980000 	bne	fe6029cc <__bss_end__+0xfe5f7734>
    29c8:	1a940000 	bne	fe5029d0 <__bss_end__+0xfe4f7738>
    29cc:	981e0000 	ldmdals	lr, {}	; <UNPREDICTABLE>
    29d0:	be000009 	cdplt	0, 0, cr0, cr0, cr9, {0}
    29d4:	ba00001a 	blt	2a44 <__code_start__-0x55bc>
    29d8:	0000001a 	andeq	r0, r0, sl, lsl r0
    29dc:	17000000 	strne	r0, [r0, -r0]
    29e0:	00009584 	andeq	r9, r0, r4, lsl #11
    29e4:	00000aa4 	andeq	r0, r0, r4, lsr #21
    29e8:	000007af 	andeq	r0, r0, pc, lsr #15
    29ec:	01500118 	cmpeq	r0, r8, lsl r1
    29f0:	51011840 	tstpl	r1, r0, asr #16
    29f4:	7dd09103 	ldfvcp	f1, [r0, #12]
    29f8:	02530118 	subseq	r0, r3, #6
    29fc:	02180075 	andseq	r0, r8, #117, 0	; 0x75
    2a00:	3001007d 	andcc	r0, r1, sp, ror r0
    2a04:	96941700 	ldrls	r1, [r4], r0, lsl #14
    2a08:	0aa40000 	beq	fe902a10 <__bss_end__+0xfe8f7778>
    2a0c:	07cf0000 	strbeq	r0, [pc, r0]
    2a10:	01180000 	tsteq	r8, r0
    2a14:	183a0150 	ldmdane	sl!, {r4, r6, r8}
    2a18:	91035101 	tstls	r3, r1, lsl #2
    2a1c:	01187dd0 			; <UNDEFINED> instruction: 0x01187dd0
    2a20:	00750253 	rsbseq	r0, r5, r3, asr r2
    2a24:	99781700 	ldmdbls	r8!, {r8, r9, sl, ip}^
    2a28:	0c460000 	mareq	acc0, r0, r6
    2a2c:	07e60000 	strbeq	r0, [r6, r0]!
    2a30:	01180000 	tsteq	r8, r0
    2a34:	e0030550 	and	r0, r3, r0, asr r5
    2a38:	000000ab 	andeq	r0, r0, fp, lsr #1
    2a3c:	00998821 	addseq	r8, r9, r1, lsr #16
    2a40:	0007f800 	andeq	pc, r7, r0, lsl #16
    2a44:	50011800 	andpl	r1, r1, r0, lsl #16
    2a48:	7dc89104 	stfvcp	f1, [r8, #16]
    2a4c:	9c170006 	ldcls	0, cr0, [r7], {6}
    2a50:	46000099 			; <UNDEFINED> instruction: 0x46000099
    2a54:	2700000c 	strcs	r0, [r0, -ip]
    2a58:	18000008 	stmdane	r0, {r3}
    2a5c:	03055001 	movweq	r5, #20481	; 0x5001
    2a60:	0000ac10 	andeq	sl, r0, r0, lsl ip
    2a64:	05510118 	ldrbeq	r0, [r1, #-280]	; 0xfffffee8
    2a68:	00aaf003 	adceq	pc, sl, r3
    2a6c:	52011800 	andpl	r1, r1, #0, 16
    2a70:	ac480305 	mcrrge	3, 0, r0, r8, cr5
    2a74:	01180000 	tsteq	r8, r0
    2a78:	e2080253 	and	r0, r8, #805306373	; 0x30000005
    2a7c:	99a01900 	stmibls	r0!, {r8, fp, ip}
    2a80:	0c760000 	ldcleq	0, cr0, [r6], #-0
    2a84:	b4170000 	ldrlt	r0, [r7], #-0
    2a88:	46000099 			; <UNDEFINED> instruction: 0x46000099
    2a8c:	5f00000c 	svcpl	0x0000000c
    2a90:	18000008 	stmdane	r0, {r3}
    2a94:	03055001 	movweq	r5, #20481	; 0x5001
    2a98:	0000abb8 			; <UNDEFINED> instruction: 0x0000abb8
    2a9c:	05510118 	ldrbeq	r0, [r1, #-280]	; 0xfffffee8
    2aa0:	00aaf003 	adceq	pc, sl, r3
    2aa4:	52011800 	andpl	r1, r1, #0, 16
    2aa8:	ac480305 	mcrrge	3, 0, r0, r8, cr5
    2aac:	01180000 	tsteq	r8, r0
    2ab0:	be080253 	mcrlt	2, 0, r0, cr8, cr3, {2}
    2ab4:	99b81900 	ldmibls	r8!, {r8, fp, ip}
    2ab8:	0c760000 	ldcleq	0, cr0, [r6], #-0
    2abc:	00000000 	andeq	r0, r0, r0
    2ac0:	00b90408 	adcseq	r0, r9, r8, lsl #8
    2ac4:	c0220000 	eorgt	r0, r2, r0
    2ac8:	80000000 	andhi	r0, r0, r0
    2acc:	23000008 	movwcs	r0, #8
    2ad0:	0000002c 	andeq	r0, r0, ip, lsr #32
    2ad4:	70090009 	andvc	r0, r9, r9
    2ad8:	22000008 	andcs	r0, r0, #8, 0
    2adc:	000000b9 	strheq	r0, [r0], -r9
    2ae0:	00000895 	muleq	r0, r5, r8
    2ae4:	00002c23 	andeq	r2, r0, r3, lsr #24
    2ae8:	24007f00 	strcs	r7, [r0], #-3840	; 0xfffff100
    2aec:	00000709 	andeq	r0, r0, r9, lsl #14
    2af0:	6a014901 	bvs	54efc <__bss_end__+0x49c64>
    2af4:	01000008 	tsteq	r0, r8
    2af8:	0000092a 	andeq	r0, r0, sl, lsr #18
    2afc:	00035525 	andeq	r5, r3, r5, lsr #10
    2b00:	0f490100 	svceq	0x00490100
    2b04:	0000002c 	andeq	r0, r0, ip, lsr #32
    2b08:	74736426 	ldrbtvc	r6, [r3], #-1062	; 0xfffffbda
    2b0c:	1b490100 	blne	1242f14 <__bss_end__+0x1237c7c>
    2b10:	0000086a 	andeq	r0, r0, sl, ror #16
    2b14:	01006e26 	tsteq	r0, r6, lsr #28
    2b18:	00332449 	eorseq	r2, r3, r9, asr #8
    2b1c:	76260000 	strtvc	r0, [r6], -r0
    2b20:	01006c61 	tsteq	r0, r1, ror #24
    2b24:	00332b49 	eorseq	r2, r3, r9, asr #22
    2b28:	b2250000 	eorlt	r0, r5, #0, 0
    2b2c:	01000006 	tsteq	r0, r6
    2b30:	00333449 	eorseq	r3, r3, r9, asr #8
    2b34:	3f250000 	svccc	0x00250000
    2b38:	01000007 	tsteq	r0, r7
    2b3c:	00333f49 	eorseq	r3, r3, r9, asr #30
    2b40:	62270000 	eorvs	r0, r7, #0, 0
    2b44:	01006675 	tsteq	r0, r5, ror r6
    2b48:	092a074e 	stmdbeq	sl!, {r1, r2, r3, r6, r8, r9, sl}
    2b4c:	70270000 	eorvc	r0, r7, r0
    2b50:	114e0100 	mrsne	r0, (UNDEF: 94)
    2b54:	0000086a 	andeq	r0, r0, sl, ror #16
    2b58:	01007527 	tsteq	r0, r7, lsr #10
    2b5c:	002c0b4f 	eoreq	r0, ip, pc, asr #22
    2b60:	99120000 	ldmdbls	r2, {}	; <UNPREDICTABLE>
    2b64:	4a000001 	bmi	2b70 <__code_start__-0x5490>
    2b68:	05000009 	streq	r0, [r0, #-9]
    2b6c:	00ac3003 	adceq	r3, ip, r3
    2b70:	f6292800 			; <UNDEFINED> instruction: 0xf6292800
    2b74:	01000006 	tsteq	r0, r6
    2b78:	002c0d54 	eoreq	r0, ip, r4, asr sp
    2b7c:	00000000 	andeq	r0, r0, r0
    2b80:	0000b922 	andeq	fp, r0, r2, lsr #18
    2b84:	00093a00 	andeq	r3, r9, r0, lsl #20
    2b88:	002c2300 	eoreq	r2, ip, r0, lsl #6
    2b8c:	003f0000 	eorseq	r0, pc, r0
    2b90:	0000c022 	andeq	ip, r0, r2, lsr #32
    2b94:	00094a00 	andeq	r4, r9, r0, lsl #20
    2b98:	002c2300 	eoreq	r2, ip, r0, lsl #6
    2b9c:	00040000 	andeq	r0, r4, r0
    2ba0:	00093a09 	andeq	r3, r9, r9, lsl #20
    2ba4:	070e2400 	streq	r2, [lr, -r0, lsl #8]
    2ba8:	38010000 	stmdacc	r1, {}	; <UNPREDICTABLE>
    2bac:	00086a0e 	andeq	r6, r8, lr, lsl #20
    2bb0:	09a30100 	stmibeq	r3!, {r8}
    2bb4:	64260000 	strtvs	r0, [r6], #-0
    2bb8:	01007473 	tsteq	r0, r3, ror r4
    2bbc:	086a1c38 	stmdaeq	sl!, {r3, r4, r5, sl, fp, ip}^
    2bc0:	6e260000 	cdpvs	0, 2, cr0, cr6, cr0, {0}
    2bc4:	25380100 	ldrcs	r0, [r8, #-256]!	; 0xffffff00
    2bc8:	00000033 	andeq	r0, r0, r3, lsr r0
    2bcc:	01007026 	tsteq	r0, r6, lsr #32
    2bd0:	086a2e38 	stmdaeq	sl!, {r3, r4, r5, r9, sl, fp, sp}^
    2bd4:	d9250000 	stmdble	r5!, {}	; <UNPREDICTABLE>
    2bd8:	0100000a 	tsteq	r0, sl
    2bdc:	086a3738 	stmdaeq	sl!, {r3, r4, r5, r8, r9, sl, ip, sp}^
    2be0:	6c270000 	stcvs	0, cr0, [r7], #-0
    2be4:	01006e65 	tsteq	r0, r5, ror #28
    2be8:	0033063a 	eorseq	r0, r3, sl, lsr r6
    2bec:	73270000 			; <UNDEFINED> instruction: 0x73270000
    2bf0:	083e0100 	ldmdaeq	lr!, {r8}
    2bf4:	0000086a 	andeq	r0, r0, sl, ror #16
    2bf8:	61702a00 	cmnvs	r0, r0, lsl #20
    2bfc:	2e010064 	cdpcs	0, 0, cr0, cr1, cr4, {3}
    2c00:	00086a0e 	andeq	r6, r8, lr, lsl #20
    2c04:	09e30100 	stmibeq	r3!, {r8}^
    2c08:	70260000 	eorvc	r0, r6, r0
    2c0c:	182e0100 	stmdane	lr!, {r8}
    2c10:	0000086a 	andeq	r0, r0, sl, ror #16
    2c14:	00035525 	andeq	r5, r3, r5, lsr #10
    2c18:	222e0100 	eorcs	r0, lr, #0
    2c1c:	0000086a 	andeq	r0, r0, sl, ror #16
    2c20:	0006b225 	andeq	fp, r6, r5, lsr #4
    2c24:	2c2e0100 	stfcss	f0, [lr], #-0
    2c28:	00000033 	andeq	r0, r0, r3, lsr r0
    2c2c:	6e656c27 	cdpvs	12, 6, cr6, cr5, cr7, {1}
    2c30:	062f0100 	strteq	r0, [pc], -r0, lsl #2
    2c34:	00000033 	andeq	r0, r0, r3, lsr r0
    2c38:	067f2400 	ldrbteq	r2, [pc], -r0, lsl #8
    2c3c:	27010000 	strcs	r0, [r1, -r0]
    2c40:	0000330c 	andeq	r3, r0, ip, lsl #6
    2c44:	09ff0100 	ldmibeq	pc!, {r8}^	; <UNPREDICTABLE>
    2c48:	63260000 			; <UNDEFINED> instruction: 0x63260000
    2c4c:	18270100 	stmdane	r7!, {r8}
    2c50:	00000033 	andeq	r0, r0, r3, lsr r0
    2c54:	06cf2b00 	strbeq	r2, [pc], r0, lsl #22
    2c58:	1f010000 	svcne	0x00010000
    2c5c:	0093d006 	addseq	sp, r3, r6
    2c60:	00006000 	andeq	r6, r0, r0
    2c64:	8f9c0100 	svchi	0x009c0100
    2c68:	0f00000a 	svceq	0x0000000a
    2c6c:	000006b8 			; <UNDEFINED> instruction: 0x000006b8
    2c70:	9e1b1f01 	cdpls	15, 1, cr1, cr11, cr1, {0}
    2c74:	e3000000 	movw	r0, #0
    2c78:	df00001a 	svcle	0x0000001a
    2c7c:	0f00001a 	svceq	0x0000001a
    2c80:	0000071d 	andeq	r0, r0, sp, lsl r7
    2c84:	d1301f01 	teqle	r0, r1, lsl #30
    2c88:	08000000 	stmdaeq	r0, {}	; <UNPREDICTABLE>
    2c8c:	0400001b 	streq	r0, [r0], #-27	; 0xffffffe5
    2c90:	1200001b 	andne	r0, r0, #27, 0
    2c94:	00000199 	muleq	r0, r9, r1
    2c98:	00000a9f 	muleq	r0, pc, sl	; <UNPREDICTABLE>
    2c9c:	ac380305 	ldcge	3, cr0, [r8], #-20	; 0xffffffec
    2ca0:	14170000 	ldrne	r0, [r7], #-0
    2ca4:	46000094 			; <UNDEFINED> instruction: 0x46000094
    2ca8:	8500000c 	strhi	r0, [r0, #-12]
    2cac:	1800000a 	stmdane	r0, {r1, r3}
    2cb0:	03055001 	movweq	r5, #20481	; 0x5001
    2cb4:	0000a6b8 			; <UNDEFINED> instruction: 0x0000a6b8
    2cb8:	05510118 	ldrbeq	r0, [r1, #-280]	; 0xfffffee8
    2cbc:	00aaf003 	adceq	pc, sl, r3
    2cc0:	52011800 	andpl	r1, r1, #0, 16
    2cc4:	ac380305 	ldcge	3, cr0, [r8], #-20	; 0xffffffec
    2cc8:	01180000 	tsteq	r8, r0
    2ccc:	20080253 	andcs	r0, r8, r3, asr r2
    2cd0:	007d0218 	rsbseq	r0, sp, r8, lsl r2
    2cd4:	ab280305 	blge	a038f0 <__bss_end__+0x9f8658>
    2cd8:	19000000 	stmdbne	r0, {}	; <UNPREDICTABLE>
    2cdc:	00009418 	andeq	r9, r0, r8, lsl r4
    2ce0:	00000c76 	andeq	r0, r0, r6, ror ip
    2ce4:	00c02200 	sbceq	r2, r0, r0, lsl #4
    2ce8:	0a9f0000 	beq	fe7c2cf0 <__bss_end__+0xfe7b7a58>
    2cec:	2c230000 	stccs	0, cr0, [r3], #-0
    2cf0:	0e000000 	cdpeq	0, 0, cr0, cr0, cr0, {0}
    2cf4:	0a8f0900 	beq	fe3c50fc <__bss_end__+0xfe3b9e64>
    2cf8:	952c0000 	strls	r0, [ip, #-0]!
    2cfc:	a8000008 	stmdage	r0, {r3}
    2d00:	28000090 	stmdacs	r0, {r4, r7}
    2d04:	01000003 	tsteq	r0, r3
    2d08:	000c3a9c 	muleq	ip, ip, sl
    2d0c:	08a61b00 	stmiaeq	r6!, {r8, r9, fp, ip}
    2d10:	1b410000 	blne	1042d18 <__bss_end__+0x1037a80>
    2d14:	1b290000 	blne	a42d1c <__bss_end__+0xa37a84>
    2d18:	b21b0000 	andslt	r0, fp, #0, 0
    2d1c:	eb000008 	bl	2d44 <__code_start__-0x52bc>
    2d20:	e300001b 	movw	r0, #27
    2d24:	1b00001b 	blne	2d98 <__code_start__-0x5268>
    2d28:	000008c8 	andeq	r0, r0, r8, asr #17
    2d2c:	00001c42 	andeq	r1, r0, r2, asr #24
    2d30:	00001c22 	andeq	r1, r0, r2, lsr #24
    2d34:	0008d41b 	andeq	sp, r8, fp, lsl r4
    2d38:	001d1800 	andseq	r1, sp, r0, lsl #16
    2d3c:	001d0a00 	andseq	r0, sp, r0, lsl #20
    2d40:	08e02d00 	stmiaeq	r0!, {r8, sl, fp, sp}^
    2d44:	91020000 	mrsls	r0, (UNDEF: 2)
    2d48:	08ec1d00 	stmiaeq	ip!, {r8, sl, fp, ip}^
    2d4c:	91030000 	mrsls	r0, (UNDEF: 3)
    2d50:	f81e7fa8 			; <UNDEFINED> instruction: 0xf81e7fa8
    2d54:	ac000008 	stcge	0, cr0, [r0], {8}
    2d58:	7800001d 	stmdavc	r0, {r0, r2, r3, r4}
    2d5c:	1e00001d 	mcrne	0, 0, r0, cr0, cr13, {0}
    2d60:	00000902 	andeq	r0, r0, r2, lsl #18
    2d64:	00001f13 	andeq	r1, r0, r3, lsl pc
    2d68:	00001ef1 	strdeq	r1, [r0], -r1	; <UNPREDICTABLE>
    2d6c:	0008be2e 	andeq	fp, r8, lr, lsr #28
    2d70:	a31a8000 	tstge	sl, #0, 0
    2d74:	4c000009 	stcmi	0, cr0, [r0], {9}
    2d78:	04000091 	streq	r0, [r0], #-145	; 0xffffff6f
    2d7c:	00014000 	andeq	r4, r1, r0
    2d80:	097c0100 	ldmdbeq	ip!, {r8}^
    2d84:	00000b6d 	andeq	r0, r0, sp, ror #22
    2d88:	0009ca1b 	andeq	ip, r9, fp, lsl sl
    2d8c:	001ffb00 	andseq	pc, pc, r0, lsl #22
    2d90:	001ff100 	andseq	pc, pc, r0, lsl #2
    2d94:	09be1b00 	ldmibeq	lr!, {r8, r9, fp, ip}
    2d98:	204f0000 	subcs	r0, pc, r0
    2d9c:	203f0000 	eorscs	r0, pc, r0
    2da0:	b41b0000 	ldrlt	r0, [fp], #-0
    2da4:	cf000009 	svcgt	0x00000009
    2da8:	bb000020 	bllt	2e30 <__code_start__-0x51d0>
    2dac:	13000020 	movwne	r0, #32
    2db0:	00000140 	andeq	r0, r0, r0, asr #2
    2db4:	0009d61e 	andeq	sp, r9, lr, lsl r6
    2db8:	00216100 	eoreq	r6, r1, r0, lsl #2
    2dbc:	00215100 	eoreq	r5, r1, r0, lsl #2
    2dc0:	1a000000 	bne	2dc8 <__code_start__-0x5238>
    2dc4:	0000094f 	andeq	r0, r0, pc, asr #18
    2dc8:	00009204 	andeq	r9, r0, r4, lsl #4
    2dcc:	01880002 	orreq	r0, r8, r2
    2dd0:	7c010000 	stcvc	0, cr0, [r1], {-0}
    2dd4:	000bd809 	andeq	sp, fp, r9, lsl #16
    2dd8:	09801b00 	stmibeq	r0, {r8, r9, fp, ip}
    2ddc:	21cd0000 	biccs	r0, sp, r0
    2de0:	21c50000 	biccs	r0, r5, r0
    2de4:	761b0000 	ldrvc	r0, [fp], -r0
    2de8:	0c000009 	stceq	0, cr0, [r0], {9}
    2dec:	04000022 	streq	r0, [r0], #-34	; 0xffffffde
    2df0:	1b000022 	blne	2e80 <__code_start__-0x5180>
    2df4:	0000096c 	andeq	r0, r0, ip, ror #18
    2df8:	0000224b 	andeq	r2, r0, fp, asr #4
    2dfc:	00002247 	andeq	r2, r0, r7, asr #4
    2e00:	0009601b 	andeq	r6, r9, fp, lsl r0
    2e04:	00227b00 	eoreq	r7, r2, r0, lsl #22
    2e08:	00226d00 	eoreq	r6, r2, r0, lsl #26
    2e0c:	01881300 	orreq	r1, r8, r0, lsl #6
    2e10:	8c1e0000 	ldchi	0, cr0, [lr], {-0}
    2e14:	e0000009 	and	r0, r0, r9
    2e18:	da000022 	ble	2ea8 <__code_start__-0x5158>
    2e1c:	1e000022 	cdpne	0, 0, cr0, cr0, cr2, {1}
    2e20:	00000998 	muleq	r0, r8, r9
    2e24:	00002312 	andeq	r2, r0, r2, lsl r3
    2e28:	0000230e 	andeq	r2, r0, lr, lsl #6
    2e2c:	1b2f0000 	blne	bc2e34 <__bss_end__+0xbb7b9c>
    2e30:	bc000009 	stclt	0, cr0, [r0], {9}
    2e34:	60000092 	mulvs	r0, r2, r0
    2e38:	f7000000 			; <UNDEFINED> instruction: 0xf7000000
    2e3c:	1e00000b 	cdpne	0, 0, cr0, cr0, cr11, {0}
    2e40:	0000091c 	andeq	r0, r0, ip, lsl r9
    2e44:	00002334 	andeq	r2, r0, r4, lsr r3
    2e48:	00002330 	andeq	r2, r0, r0, lsr r3
    2e4c:	93901700 	orrsls	r1, r0, #0, 14
    2e50:	0c460000 	mareq	acc0, r0, r6
    2e54:	0c300000 	ldceq	0, cr0, [r0], #-0
    2e58:	01180000 	tsteq	r8, r0
    2e5c:	b8030550 	stmdalt	r3, {r4, r6, r8, sl}
    2e60:	180000a6 	stmdane	r0, {r1, r2, r5, r7}
    2e64:	03055101 	movweq	r5, #20737	; 0x5101
    2e68:	0000aaf0 	strdeq	sl, [r0], -r0
    2e6c:	05520118 	ldrbeq	r0, [r2, #-280]	; 0xfffffee8
    2e70:	00ac3003 	adceq	r3, ip, r3
    2e74:	53011800 	movwpl	r1, #6144	; 0x1800
    2e78:	18790802 	ldmdane	r9!, {r1, fp}^
    2e7c:	05007d02 	streq	r7, [r0, #-3330]	; 0xfffff2fe
    2e80:	00a95803 	adceq	r5, r9, r3, lsl #16
    2e84:	94190000 	ldrls	r0, [r9], #-0
    2e88:	76000093 			; <UNDEFINED> instruction: 0x76000093
    2e8c:	0000000c 	andeq	r0, r0, ip
    2e90:	00073730 	andeq	r3, r7, r0, lsr r7
    2e94:	00073700 	andeq	r3, r7, r0, lsl #14
    2e98:	05eb0300 	strbeq	r0, [fp, #768]!	; 0x300
    2e9c:	00062e30 	andeq	r2, r6, r0, lsr lr
    2ea0:	00062e00 	andeq	r2, r6, r0, lsl #28
    2ea4:	06280300 	strteq	r0, [r8], -r0, lsl #6
    2ea8:	0006e830 	andeq	lr, r6, r0, lsr r8
    2eac:	0006e800 	andeq	lr, r6, r0, lsl #16
    2eb0:	07ee0300 	strbeq	r0, [lr, r0, lsl #6]!
    2eb4:	00071630 	andeq	r1, r7, r0, lsr r6
    2eb8:	00071600 	andeq	r1, r7, r0, lsl #12
    2ebc:	05ea0300 	strbeq	r0, [sl, #768]!	; 0x300
    2ec0:	0006ef30 	andeq	lr, r6, r0, lsr pc
    2ec4:	0006ef00 	andeq	lr, r6, r0, lsl #30
    2ec8:	07ed0300 	strbeq	r0, [sp, r0, lsl #6]!
    2ecc:	00004530 	andeq	r4, r0, r0, lsr r5
    2ed0:	00004500 	andeq	r4, r0, r0, lsl #10
    2ed4:	066e0300 	strbteq	r0, [lr], -r0, lsl #6
    2ed8:	00012f00 	andeq	r2, r1, r0, lsl #30
    2edc:	50000400 	andpl	r0, r0, r0, lsl #8
    2ee0:	0400000f 	streq	r0, [r0], #-15
    2ee4:	00050601 	andeq	r0, r5, r1, lsl #12
    2ee8:	075c0c00 	ldrbeq	r0, [ip, -r0, lsl #24]
    2eec:	05cc0000 	strbeq	r0, [ip]
    2ef0:	9a5c0000 	bls	1702ef8 <__bss_end__+0x16f7c60>
    2ef4:	002c0000 	eoreq	r0, ip, r0
    2ef8:	19bc0000 	ldmibne	ip!, {}	; <UNPREDICTABLE>
    2efc:	04020000 	streq	r0, [r2], #-0
    2f00:	746e6905 	strbtvc	r6, [lr], #-2309	; 0xfffff6fb
    2f04:	07040300 	streq	r0, [r4, -r0, lsl #6]
    2f08:	000001b0 			; <UNDEFINED> instruction: 0x000001b0
    2f0c:	54060103 	strpl	r0, [r6], #-259	; 0xfffffefd
    2f10:	03000001 	movweq	r0, #1
    2f14:	01de0502 	bicseq	r0, lr, r2, lsl #10
    2f18:	04030000 	streq	r0, [r3], #-0
    2f1c:	0001c205 	andeq	ip, r1, r5, lsl #4
    2f20:	05080300 	streq	r0, [r8, #-768]	; 0xfffffd00
    2f24:	000001bd 			; <UNDEFINED> instruction: 0x000001bd
    2f28:	52080103 	andpl	r0, r8, #-1073741824	; 0xc0000000
    2f2c:	03000001 	movweq	r0, #1
    2f30:	00520702 	subseq	r0, r2, r2, lsl #14
    2f34:	04030000 	streq	r0, [r3], #-0
    2f38:	0001ab07 	andeq	sl, r1, r7, lsl #22
    2f3c:	07080300 	streq	r0, [r8, -r0, lsl #6]
    2f40:	000001a6 	andeq	r0, r0, r6, lsr #3
    2f44:	00002504 	andeq	r2, r0, r4, lsl #10
    2f48:	00007a00 	andeq	r7, r0, r0, lsl #20
    2f4c:	00250500 	eoreq	r0, r5, r0, lsl #10
    2f50:	06000000 	streq	r0, [r0], -r0
    2f54:	000001cb 	andeq	r0, r0, fp, asr #3
    2f58:	860e1c02 	strhi	r1, [lr], -r2, lsl #24
    2f5c:	07000000 	streq	r0, [r0, -r0]
    2f60:	00006b04 	andeq	r6, r0, r4, lsl #22
    2f64:	00250400 	eoreq	r0, r5, r0, lsl #8
    2f68:	009b0000 	addseq	r0, fp, r0
    2f6c:	9b050000 	blls	142f74 <__bss_end__+0x137cdc>
    2f70:	00000000 	andeq	r0, r0, r0
    2f74:	00a80407 	adceq	r0, r8, r7, lsl #8
    2f78:	01030000 	mrseq	r0, (UNDEF: 3)
    2f7c:	00015b08 	andeq	r5, r1, r8, lsl #22
    2f80:	00a10800 	adceq	r0, r1, r0, lsl #16
    2f84:	6c060000 	stcvs	0, cr0, [r6], {-0}
    2f88:	02000006 	andeq	r0, r0, #6, 0
    2f8c:	00b90e21 	adcseq	r0, r9, r1, lsr #28
    2f90:	04070000 	streq	r0, [r7], #-0
    2f94:	0000008c 	andeq	r0, r0, ip, lsl #1
    2f98:	00004509 	andeq	r4, r0, r9, lsl #10
    2f9c:	06040100 	streq	r0, [r4], -r0, lsl #2
    2fa0:	00009a5c 	andeq	r9, r0, ip, asr sl
    2fa4:	0000002c 	andeq	r0, r0, ip, lsr #32
    2fa8:	010e9c01 	tsteq	lr, r1, lsl #24
    2fac:	700a0000 	andvc	r0, sl, r0
    2fb0:	e800009a 	stmda	r0, {r1, r3, r4, r7}
    2fb4:	0b000000 	bleq	2fbc <__code_start__-0x5044>
    2fb8:	03055001 	movweq	r5, #20481	; 0x5001
    2fbc:	0000ac54 	andeq	sl, r0, r4, asr ip
    2fc0:	9a740c00 	bls	1d05fc8 <__bss_end__+0x1cfad30>
    2fc4:	010e0000 	mrseq	r0, (UNDEF: 14)
    2fc8:	7c0d0000 	stcvc	0, cr0, [sp], {-0}
    2fcc:	1a00009a 	bne	323c <__code_start__-0x4dc4>
    2fd0:	04000001 	streq	r0, [r0], #-1
    2fd4:	0b000001 	bleq	2fe0 <__code_start__-0x5020>
    2fd8:	3a015001 	bcc	56fe4 <__bss_end__+0x4bd4c>
    2fdc:	9a800c00 	bls	fe005fe4 <__bss_end__+0xfdffad4c>
    2fe0:	01260000 			; <UNDEFINED> instruction: 0x01260000
    2fe4:	0e000000 	cdpeq	0, 0, cr0, cr0, cr0, {0}
    2fe8:	00000777 	andeq	r0, r0, r7, ror r7
    2fec:	00000777 	andeq	r0, r0, r7, ror r7
    2ff0:	0e064d02 	cdpeq	13, 0, cr4, cr6, cr2, {0}
    2ff4:	00000753 	andeq	r0, r0, r3, asr r7
    2ff8:	00000753 	andeq	r0, r0, r3, asr r7
    2ffc:	0e065802 	cdpeq	8, 0, cr5, cr6, cr2, {0}
    3000:	00000748 	andeq	r0, r0, r8, asr #14
    3004:	00000748 	andeq	r0, r0, r8, asr #14
    3008:	00066b02 	andeq	r6, r6, r2, lsl #22
    300c:	00000190 	muleq	r0, r0, r1
    3010:	10100004 	andsne	r0, r0, r4
    3014:	01040000 	mrseq	r0, (UNDEF: 4)
    3018:	00000506 	andeq	r0, r0, r6, lsl #10
    301c:	0007ad0c 	andeq	sl, r7, ip, lsl #26
    3020:	0005cc00 	andeq	ip, r5, r0, lsl #24
    3024:	009a8800 	addseq	r8, sl, r0, lsl #16
    3028:	0000f800 	andeq	pc, r0, r0, lsl #16
    302c:	001a4700 	andseq	r4, sl, r0, lsl #14
    3030:	05040200 	streq	r0, [r4, #-512]	; 0xfffffe00
    3034:	00746e69 	rsbseq	r6, r4, r9, ror #28
    3038:	b0070403 	andlt	r0, r7, r3, lsl #8
    303c:	03000001 	movweq	r0, #1
    3040:	01540601 	cmpeq	r4, r1, lsl #12
    3044:	02030000 	andeq	r0, r3, #0, 0
    3048:	0001de05 	andeq	sp, r1, r5, lsl #28
    304c:	05040300 	streq	r0, [r4, #-768]	; 0xfffffd00
    3050:	000001c2 	andeq	r0, r0, r2, asr #3
    3054:	bd050803 	stclt	8, cr0, [r5, #-12]
    3058:	03000001 	movweq	r0, #1
    305c:	01520801 	cmpeq	r2, r1, lsl #16
    3060:	02030000 	andeq	r0, r3, #0, 0
    3064:	00005207 	andeq	r5, r0, r7, lsl #4
    3068:	07040300 	streq	r0, [r4, -r0, lsl #6]
    306c:	000001ab 	andeq	r0, r0, fp, lsr #3
    3070:	a6070803 	strge	r0, [r7], -r3, lsl #16
    3074:	04000001 	streq	r0, [r0], #-1
    3078:	00000025 	andeq	r0, r0, r5, lsr #32
    307c:	0000007a 	andeq	r0, r0, sl, ror r0
    3080:	00002505 	andeq	r2, r0, r5, lsl #10
    3084:	cb060000 	blgt	18308c <__bss_end__+0x177df4>
    3088:	02000001 	andeq	r0, r0, #1, 0
    308c:	00860e1c 	addeq	r0, r6, ip, lsl lr
    3090:	04070000 	streq	r0, [r7], #-0
    3094:	0000006b 	andeq	r0, r0, fp, rrx
    3098:	00002504 	andeq	r2, r0, r4, lsl #10
    309c:	00009b00 	andeq	r9, r0, r0, lsl #22
    30a0:	009b0500 	addseq	r0, fp, r0, lsl #10
    30a4:	07000000 	streq	r0, [r0, -r0]
    30a8:	0000a804 	andeq	sl, r0, r4, lsl #16
    30ac:	08010300 	stmdaeq	r1, {r8, r9}
    30b0:	0000015b 	andeq	r0, r0, fp, asr r1
    30b4:	0000a108 	andeq	sl, r0, r8, lsl #2
    30b8:	066c0600 	strbteq	r0, [ip], -r0, lsl #12
    30bc:	21020000 	mrscs	r0, (UNDEF: 2)
    30c0:	0000b90e 	andeq	fp, r0, lr, lsl #18
    30c4:	8c040700 	stchi	7, cr0, [r4], {-0}
    30c8:	09000000 	stmdbeq	r0, {}	; <UNPREDICTABLE>
    30cc:	00000785 	andeq	r0, r0, r5, lsl #15
    30d0:	88060401 	stmdahi	r6, {r0, sl}
    30d4:	f800009a 			; <UNDEFINED> instruction: 0xf800009a
    30d8:	01000000 	mrseq	r0, (UNDEF: 0)
    30dc:	00015b9c 	muleq	r1, ip, fp
    30e0:	03960600 	orrseq	r0, r6, #0, 12
    30e4:	05010000 	streq	r0, [r1, #-0]
    30e8:	00002510 	andeq	r2, r0, r0, lsl r5
    30ec:	04680600 	strbteq	r0, [r8], #-1536	; 0xfffffa00
    30f0:	05010000 	streq	r0, [r1, #-0]
    30f4:	0000251f 	andeq	r2, r0, pc, lsl r5
    30f8:	001c0a00 	andseq	r0, ip, r0, lsl #20
    30fc:	06010000 	streq	r0, [r1], -r0
    3100:	73620b07 	cmnvc	r2, #7168	; 0x1c00
    3104:	0a010073 	beq	432d8 <__bss_end__+0x38040>
    3108:	00015b0a 	andeq	r5, r1, sl, lsl #22
    310c:	00236c00 	eoreq	r6, r3, r0, lsl #24
    3110:	00235400 	eoreq	r5, r3, r0, lsl #8
    3114:	078d0c00 	streq	r0, [sp, r0, lsl #24]
    3118:	0b010000 	bleq	43120 <__bss_end__+0x37e88>
    311c:	00015b0a 	andeq	r5, r1, sl, lsl #22
    3120:	9b600d00 	blls	1806528 <__bss_end__+0x17fb290>
    3124:	00080000 	andeq	r0, r8, r0
    3128:	01360000 	teqeq	r6, r0
    312c:	690b0000 	stmdbvs	fp, {}	; <UNPREDICTABLE>
    3130:	1401006e 	strne	r0, [r1], #-110	; 0xffffff92
    3134:	00002c05 	andeq	r2, r0, r5, lsl #24
    3138:	00240600 	eoreq	r0, r4, r0, lsl #12
    313c:	00240400 	eoreq	r0, r4, r0, lsl #8
    3140:	900e0000 	andls	r0, lr, r0
    3144:	6100009a 	swpvs	r0, sl, [r0]	; <UNPREDICTABLE>
    3148:	0e000001 	cdpeq	0, 0, cr0, cr0, cr1, {0}
    314c:	00009b60 	andeq	r9, r0, r0, ror #22
    3150:	0000016e 	andeq	r0, r0, lr, ror #2
    3154:	009b6c0e 	addseq	r6, fp, lr, lsl #24
    3158:	00017a00 	andeq	r7, r1, r0, lsl #20
    315c:	9b700e00 	blls	1c06964 <__bss_end__+0x1bfb6cc>
    3160:	01870000 	orreq	r0, r7, r0
    3164:	07000000 	streq	r0, [r0, -r0]
    3168:	00002504 	andeq	r2, r0, r4, lsl #10
    316c:	079f0f00 	ldreq	r0, [pc, r0, lsl #30]
    3170:	079f0000 	ldreq	r0, [pc, r0]
    3174:	31020000 	mrscc	r0, (UNDEF: 2)
    3178:	95100601 	ldrls	r0, [r0, #-1537]	; 0xfffff9ff
    317c:	95000007 	strls	r0, [r0, #-7]
    3180:	02000007 	andeq	r0, r0, #7, 0
    3184:	1c0f063b 	stcne	6, cr0, [pc], {59}	; 0x3b
    3188:	1c000000 	stcne	0, cr0, [r0], {-0}
    318c:	02000000 	andeq	r0, r0, #0, 0
    3190:	10060105 	andne	r0, r6, r5, lsl #2
    3194:	00000045 	andeq	r0, r0, r5, asr #32
    3198:	00000045 	andeq	r0, r0, r5, asr #32
    319c:	00066e02 	andeq	r6, r6, r2, lsl #28
    31a0:	000000ce 	andeq	r0, r0, lr, asr #1
    31a4:	10fb0004 	rscsne	r0, fp, r4
    31a8:	01040000 	mrseq	r0, (UNDEF: 4)
    31ac:	00000506 	andeq	r0, r0, r6, lsl #10
    31b0:	0007c20c 	andeq	ip, r7, ip, lsl #4
    31b4:	0005cc00 	andeq	ip, r5, r0, lsl #24
    31b8:	009b8000 	addseq	r8, fp, r0
    31bc:	00000400 	andeq	r0, r0, r0, lsl #8
    31c0:	001b5d00 	andseq	r5, fp, r0, lsl #26
    31c4:	05040200 	streq	r0, [r4, #-512]	; 0xfffffe00
    31c8:	00746e69 	rsbseq	r6, r4, r9, ror #28
    31cc:	b0070403 	andlt	r0, r7, r3, lsl #8
    31d0:	03000001 	movweq	r0, #1
    31d4:	01540601 	cmpeq	r4, r1, lsl #12
    31d8:	02030000 	andeq	r0, r3, #0, 0
    31dc:	0001de05 	andeq	sp, r1, r5, lsl #28
    31e0:	05040300 	streq	r0, [r4, #-768]	; 0xfffffd00
    31e4:	000001c2 	andeq	r0, r0, r2, asr #3
    31e8:	bd050803 	stclt	8, cr0, [r5, #-12]
    31ec:	03000001 	movweq	r0, #1
    31f0:	01520801 	cmpeq	r2, r1, lsl #16
    31f4:	02030000 	andeq	r0, r3, #0, 0
    31f8:	00005207 	andeq	r5, r0, r7, lsl #4
    31fc:	07040300 	streq	r0, [r4, -r0, lsl #6]
    3200:	000001ab 	andeq	r0, r0, fp, lsr #3
    3204:	a6070803 	strge	r0, [r7], -r3, lsl #16
    3208:	04000001 	streq	r0, [r0], #-1
    320c:	00000025 	andeq	r0, r0, r5, lsr #32
    3210:	0000007a 	andeq	r0, r0, sl, ror r0
    3214:	00002505 	andeq	r2, r0, r5, lsl #10
    3218:	cb060000 	blgt	183220 <__bss_end__+0x177f88>
    321c:	02000001 	andeq	r0, r0, #1, 0
    3220:	00860e1c 	addeq	r0, r6, ip, lsl lr
    3224:	04070000 	streq	r0, [r7], #-0
    3228:	0000006b 	andeq	r0, r0, fp, rrx
    322c:	00002504 	andeq	r2, r0, r4, lsl #10
    3230:	00009b00 	andeq	r9, r0, r0, lsl #22
    3234:	009b0500 	addseq	r0, fp, r0, lsl #10
    3238:	07000000 	streq	r0, [r0, -r0]
    323c:	0000a804 	andeq	sl, r0, r4, lsl #16
    3240:	08010300 	stmdaeq	r1, {r8, r9}
    3244:	0000015b 	andeq	r0, r0, fp, asr r1
    3248:	0000a108 	andeq	sl, r0, r8, lsl #2
    324c:	066c0600 	strbteq	r0, [ip], -r0, lsl #12
    3250:	21020000 	mrscs	r0, (UNDEF: 2)
    3254:	0000b90e 	andeq	fp, r0, lr, lsl #18
    3258:	8c040700 	stchi	7, cr0, [r4], {-0}
    325c:	09000000 	stmdbeq	r0, {}	; <UNPREDICTABLE>
    3260:	0000079f 	muleq	r0, pc, r7	; <UNPREDICTABLE>
    3264:	80060401 	andhi	r0, r6, r1, lsl #8
    3268:	0400009b 	streq	r0, [r0], #-155	; 0xffffff65
    326c:	01000000 	mrseq	r0, (UNDEF: 0)
    3270:	027d009c 	rsbseq	r0, sp, #156, 0	; 0x9c
    3274:	00040000 	andeq	r0, r4, r0
    3278:	00001174 	andeq	r1, r0, r4, ror r1
    327c:	05060104 	streq	r0, [r6, #-260]	; 0xfffffefc
    3280:	0a0c0000 	beq	303288 <__bss_end__+0x2f7ff0>
    3284:	cc000008 	stcgt	0, cr0, [r0], {8}
    3288:	30000005 	andcc	r0, r0, r5
    328c:	00000003 	andeq	r0, r0, r3
    3290:	de000000 	cdple	0, 0, cr0, cr0, cr0, {0}
    3294:	0200001b 	andeq	r0, r0, #27, 0
    3298:	6e690504 	cdpvs	5, 6, cr0, cr9, cr4, {0}
    329c:	25030074 	strcs	r0, [r3, #-116]	; 0xffffff8c
    32a0:	04000000 	streq	r0, [r0], #-0
    32a4:	01b00704 	lslseq	r0, r4, #14
    32a8:	01040000 	mrseq	r0, (UNDEF: 4)
    32ac:	00015406 	andeq	r5, r1, r6, lsl #8
    32b0:	05020400 	streq	r0, [r2, #-1024]	; 0xfffffc00
    32b4:	000001de 	ldrdeq	r0, [r0], -lr
    32b8:	c2050404 	andgt	r0, r5, #4, 8	; 0x4000000
    32bc:	04000001 	streq	r0, [r0], #-1
    32c0:	01bd0508 			; <UNDEFINED> instruction: 0x01bd0508
    32c4:	01040000 	mrseq	r0, (UNDEF: 4)
    32c8:	00015208 	andeq	r5, r1, r8, lsl #4
    32cc:	07020400 	streq	r0, [r2, -r0, lsl #8]
    32d0:	00000052 	andeq	r0, r0, r2, asr r0
    32d4:	ab070404 	blge	1c42ec <__bss_end__+0x1b9054>
    32d8:	04000001 	streq	r0, [r0], #-1
    32dc:	01a60708 			; <UNDEFINED> instruction: 0x01a60708
    32e0:	25050000 	strcs	r0, [r5, #-0]
    32e4:	7f000000 	svcvc	0x00000000
    32e8:	06000000 	streq	r0, [r0], -r0
    32ec:	00000025 	andeq	r0, r0, r5, lsr #32
    32f0:	01cb0700 	biceq	r0, fp, r0, lsl #14
    32f4:	1c020000 	stcne	0, cr0, [r2], {-0}
    32f8:	00008b0e 	andeq	r8, r0, lr, lsl #22
    32fc:	70040800 	andvc	r0, r4, r0, lsl #16
    3300:	05000000 	streq	r0, [r0, #-0]
    3304:	00000025 	andeq	r0, r0, r5, lsr #32
    3308:	000000a0 	andeq	r0, r0, r0, lsr #1
    330c:	0000a006 	andeq	sl, r0, r6
    3310:	04080000 	streq	r0, [r8], #-0
    3314:	000000ad 	andeq	r0, r0, sp, lsr #1
    3318:	5b080104 	blpl	203730 <__bss_end__+0x1f8498>
    331c:	03000001 	movweq	r0, #1
    3320:	000000a6 	andeq	r0, r0, r6, lsr #1
    3324:	00066c07 	andeq	r6, r6, r7, lsl #24
    3328:	0e210200 	cdpeq	2, 2, cr0, cr1, cr0, {0}
    332c:	000000be 	strheq	r0, [r0], -lr
    3330:	00910408 	addseq	r0, r1, r8, lsl #8
    3334:	2e090000 	cdpcs	0, 0, cr0, cr9, cr0, {0}
    3338:	01000008 	tsteq	r0, r8
    333c:	0031110d 	eorseq	r1, r1, sp, lsl #2
    3340:	480a0000 	stmdami	sl, {}	; <UNPREDICTABLE>
    3344:	01000007 	tsteq	r0, r7
    3348:	9bb0061f 	blls	fec04bcc <__bss_end__+0xfebf9934>
    334c:	00600000 	rsbeq	r0, r0, r0
    3350:	9c010000 	stcls	0, cr0, [r1], {-0}
    3354:	000001d5 	ldrdeq	r0, [r0], -r5
    3358:	0008520b 	andeq	r5, r8, fp, lsl #4
    335c:	0f2c0100 	svceq	0x002c0100
    3360:	0000002c 	andeq	r0, r0, ip, lsr #32
    3364:	2010001c 	andscs	r0, r0, ip, lsl r0
    3368:	0007ed0b 	andeq	lr, r7, fp, lsl #26
    336c:	0f2d0100 	svceq	0x002d0100
    3370:	0000002c 	andeq	r0, r0, ip, lsr #32
    3374:	20100024 	andscs	r0, r0, r4, lsr #32
    3378:	00081f0b 	andeq	r1, r8, fp, lsl #30
    337c:	0f2e0100 	svceq	0x002e0100
    3380:	0000002c 	andeq	r0, r0, ip, lsr #32
    3384:	5a000000 	bpl	338c <__code_start__-0x4c74>
    3388:	0008390c 	andeq	r3, r8, ip, lsl #18
    338c:	0f2f0100 	svceq	0x002f0100
    3390:	0000002c 	andeq	r0, r0, ip, lsr #32
    3394:	01ef0d20 	mvneq	r0, r0, lsr #26
    3398:	9bb00000 	blls	fec033a0 <__bss_end__+0xfebf8108>
    339c:	18020000 	stmdane	r2, {}	; <UNPREDICTABLE>
    33a0:	01000003 	tsteq	r0, r3
    33a4:	014c0820 	cmpeq	ip, r0, lsr #16
    33a8:	180e0000 	stmdane	lr, {}	; <UNPREDICTABLE>
    33ac:	0f000003 	svceq	0x00000003
    33b0:	00000200 	andeq	r0, r0, r0, lsl #4
    33b4:	0000241e 	andeq	r2, r0, lr, lsl r4
    33b8:	0000241a 	andeq	r2, r0, sl, lsl r4
    33bc:	d5100000 	ldrle	r0, [r0, #-0]
    33c0:	c4000001 	strgt	r0, [r0], #-1
    33c4:	0100009b 	swpeq	r0, fp, [r0]	; <UNPREDICTABLE>
    33c8:	00009bc4 	andeq	r9, r0, r4, asr #23
    33cc:	00000010 	andeq	r0, r0, r0, lsl r0
    33d0:	73092101 	movwvc	r2, #37121	; 0x9101
    33d4:	0f000001 	svceq	0x00000001
    33d8:	000001e2 	andeq	r0, r0, r2, ror #3
    33dc:	00002445 	andeq	r2, r0, r5, asr #8
    33e0:	0000243d 	andeq	r2, r0, sp, lsr r4
    33e4:	9bd81100 	blls	ff6077ec <__bss_end__+0xff5fc554>
    33e8:	024f0000 	subeq	r0, pc, #0, 0
    33ec:	dc110000 	ldcle	0, cr0, [r1], {-0}
    33f0:	5c00009b 	stcpl	0, cr0, [r0], {155}	; 0x9b
    33f4:	12000002 	andne	r0, r0, #2, 0
    33f8:	00009be4 	andeq	r9, r0, r4, ror #23
    33fc:	00000268 	andeq	r0, r0, r8, ror #4
    3400:	00000198 	muleq	r0, r8, r1
    3404:	01500113 	cmpeq	r0, r3, lsl r1
    3408:	f012003a 			; <UNDEFINED> instruction: 0xf012003a
    340c:	7400009b 	strvc	r0, [r0], #-155	; 0xffffff65
    3410:	b8000002 	stmdalt	r0, {r1}
    3414:	13000001 	movwne	r0, #1
    3418:	0c055001 	stceq	0, cr5, [r5], {1}
    341c:	20100024 	andscs	r0, r0, r4, lsr #32
    3420:	05510113 	ldrbeq	r0, [r1, #-275]	; 0xfffffeed
    3424:	0000010c 	andeq	r0, r0, ip, lsl #2
    3428:	fc14005a 	ldc2	0, cr0, [r4], {90}	; 0x5a
    342c:	7400009b 	strvc	r0, [r0], #-155	; 0xffffff65
    3430:	13000002 	movwne	r0, #2
    3434:	0c055001 	stceq	0, cr5, [r5], {1}
    3438:	2010001c 	andscs	r0, r0, ip, lsl r0
    343c:	05510113 	ldrbeq	r0, [r1, #-275]	; 0xfffffeed
    3440:	0000200c 	andeq	r2, r0, ip
    3444:	1500005a 	strne	r0, [r0, #-90]	; 0xffffffa6
    3448:	000007fb 	strdeq	r0, [r0], -fp
    344c:	01061701 	tsteq	r6, r1, lsl #14
    3450:	000001ef 	andeq	r0, r0, pc, ror #3
    3454:	00085a09 	andeq	r5, r8, r9, lsl #20
    3458:	0e180100 	mufeqe	f0, f0, f0
    345c:	00000031 	andeq	r0, r0, r1, lsr r0
    3460:	082b1600 	stmdaeq	fp!, {r9, sl, ip}
    3464:	0e010000 	cdpeq	0, 0, cr0, cr1, cr0, {0}
    3468:	00002505 	andeq	r2, r0, r5, lsl #10
    346c:	020d0100 	andeq	r0, sp, #0
    3470:	5a090000 	bpl	243478 <__bss_end__+0x2381e0>
    3474:	01000008 	tsteq	r0, r8
    3478:	00310e0f 	eorseq	r0, r1, pc, lsl #28
    347c:	17000000 	strne	r0, [r0, -r0]
    3480:	000001ef 	andeq	r0, r0, pc, ror #3
    3484:	00009b84 	andeq	r9, r0, r4, lsl #23
    3488:	00000018 	andeq	r0, r0, r8, lsl r0
    348c:	022e9c01 	eoreq	r9, lr, #256	; 0x100
    3490:	000f0000 	andeq	r0, pc, r0
    3494:	82000002 	andhi	r0, r0, #2, 0
    3498:	7e000024 	cdpvc	0, 0, cr0, cr0, cr4, {1}
    349c:	00000024 	andeq	r0, r0, r4, lsr #32
    34a0:	0001d517 	andeq	sp, r1, r7, lsl r5
    34a4:	009b9c00 	addseq	r9, fp, r0, lsl #24
    34a8:	00001400 	andeq	r1, r0, r0, lsl #8
    34ac:	4f9c0100 	svcmi	0x009c0100
    34b0:	0f000002 	svceq	0x00000002
    34b4:	000001e2 	andeq	r0, r0, r2, ror #3
    34b8:	000024a9 	andeq	r2, r0, r9, lsr #9
    34bc:	000024a1 	andeq	r2, r0, r1, lsr #9
    34c0:	07de1800 	ldrbeq	r1, [lr, r0, lsl #16]
    34c4:	07de0000 	ldrbeq	r0, [lr, r0]
    34c8:	36020000 	strcc	r0, [r2], -r0
    34cc:	77190601 	ldrvc	r0, [r9, -r1, lsl #12]
    34d0:	77000007 	strvc	r0, [r0, -r7]
    34d4:	02000007 	andeq	r0, r0, #7, 0
    34d8:	5319064d 	tstpl	r9, #80740352	; 0x4d00000
    34dc:	53000007 	movwpl	r0, #7
    34e0:	02000007 	andeq	r0, r0, #7, 0
    34e4:	f5190658 			; <UNDEFINED> instruction: 0xf5190658
    34e8:	f5000007 			; <UNDEFINED> instruction: 0xf5000007
    34ec:	02000007 	andeq	r0, r0, #7, 0
    34f0:	3f0006ad 	svccc	0x000006ad
    34f4:	04000005 	streq	r0, [r0], #-5
    34f8:	0012f700 	andseq	pc, r2, r0, lsl #14
    34fc:	06010400 	streq	r0, [r1], -r0, lsl #8
    3500:	0c000005 	stceq	0, cr0, [r0], {5}
    3504:	00000875 	andeq	r0, r0, r5, ror r8
    3508:	000005cc 	andeq	r0, r0, ip, asr #11
    350c:	00009c10 	andeq	r9, r0, r0, lsl ip
    3510:	0000011c 	andeq	r0, r0, ip, lsl r1
    3514:	00001cf6 	strdeq	r1, [r0], -r6
    3518:	69050402 	stmdbvs	r5, {r1, sl}
    351c:	0300746e 	movweq	r7, #1134	; 0x46e
    3520:	01b00704 	lslseq	r0, r4, #14
    3524:	01030000 	mrseq	r0, (UNDEF: 3)
    3528:	00015406 	andeq	r5, r1, r6, lsl #8
    352c:	05020300 	streq	r0, [r2, #-768]	; 0xfffffd00
    3530:	000001de 	ldrdeq	r0, [r0], -lr
    3534:	c2050403 	andgt	r0, r5, #50331648	; 0x3000000
    3538:	03000001 	movweq	r0, #1
    353c:	01bd0508 			; <UNDEFINED> instruction: 0x01bd0508
    3540:	01030000 	mrseq	r0, (UNDEF: 3)
    3544:	00015208 	andeq	r5, r1, r8, lsl #4
    3548:	07020300 	streq	r0, [r2, -r0, lsl #6]
    354c:	00000052 	andeq	r0, r0, r2, asr r0
    3550:	ab070403 	blge	1c4564 <__bss_end__+0x1b92cc>
    3554:	03000001 	movweq	r0, #1
    3558:	01a60708 			; <UNDEFINED> instruction: 0x01a60708
    355c:	25040000 	strcs	r0, [r4, #-0]
    3560:	7a000000 	bvc	3568 <__code_start__-0x4a98>
    3564:	05000000 	streq	r0, [r0, #-0]
    3568:	00000025 	andeq	r0, r0, r5, lsr #32
    356c:	01cb0600 	biceq	r0, fp, r0, lsl #12
    3570:	1c020000 	stcne	0, cr0, [r2], {-0}
    3574:	0000860e 	andeq	r8, r0, lr, lsl #12
    3578:	6b040700 	blvs	105180 <__bss_end__+0xf9ee8>
    357c:	04000000 	streq	r0, [r0], #-0
    3580:	00000025 	andeq	r0, r0, r5, lsr #32
    3584:	0000009b 	muleq	r0, fp, r0
    3588:	00009b05 	andeq	r9, r0, r5, lsl #22
    358c:	04070000 	streq	r0, [r7], #-0
    3590:	000000a8 	andeq	r0, r0, r8, lsr #1
    3594:	5b080103 	blpl	2039a8 <__bss_end__+0x1f8710>
    3598:	08000001 	stmdaeq	r0, {r0}
    359c:	000000a1 	andeq	r0, r0, r1, lsr #1
    35a0:	00066c06 	andeq	r6, r6, r6, lsl #24
    35a4:	0e210200 	cdpeq	2, 2, cr0, cr1, cr0, {0}
    35a8:	000000b9 	strheq	r0, [r0], -r9
    35ac:	008c0407 	addeq	r0, ip, r7, lsl #8
    35b0:	6b090000 	blvs	2435b8 <__bss_end__+0x238320>
    35b4:	01000008 	tsteq	r0, r8
    35b8:	9cd8061e 	ldclls	6, cr0, [r8], {30}
    35bc:	00540000 	subseq	r0, r4, r0
    35c0:	9c010000 	stcls	0, cr0, [r1], {-0}
    35c4:	0000020b 	andeq	r0, r0, fp, lsl #4
    35c8:	6365730a 	cmnvs	r5, #671088640	; 0x28000000
    35cc:	191e0100 	ldmdbne	lr, {r8}
    35d0:	0000002c 	andeq	r0, r0, ip, lsr #32
    35d4:	000024e6 	andeq	r2, r0, r6, ror #9
    35d8:	000024e2 	andeq	r2, r0, r2, ror #9
    35dc:	00020b0b 	andeq	r0, r2, fp, lsl #22
    35e0:	009cd800 	addseq	sp, ip, r0, lsl #16
    35e4:	03f80200 	mvnseq	r0, #0, 4
    35e8:	1f010000 	svcne	0x00010000
    35ec:	02180c05 	andseq	r0, r8, #1280	; 0x500
    35f0:	250b0000 	strcs	r0, [fp, #-0]
    35f4:	25070000 	strcs	r0, [r7, #-0]
    35f8:	240d0000 	strcs	r0, [sp], #-0
    35fc:	ec000002 	stc	0, cr0, [r0], {2}
    3600:	0000009c 	muleq	r0, ip, r0
    3604:	00009cec 	andeq	r9, r0, ip, ror #25
    3608:	00000040 	andeq	r0, r0, r0, asr #32
    360c:	0c051c01 	stceq	12, cr1, [r5], {1}
    3610:	00000231 	andeq	r0, r0, r1, lsr r2
    3614:	00002538 	andeq	r2, r0, r8, lsr r5
    3618:	00002536 	andeq	r2, r0, r6, lsr r5
    361c:	00023c0e 	andeq	r3, r2, lr, lsl #24
    3620:	00254d00 	eoreq	r4, r5, r0, lsl #26
    3624:	00254b00 	eoreq	r4, r5, r0, lsl #22
    3628:	02550f00 	subseq	r0, r5, #0, 30
    362c:	9cec0000 	stclls	0, cr0, [ip]
    3630:	ec020000 	stc	0, cr0, [r2], {-0}
    3634:	1400009c 	strne	r0, [r0], #-156	; 0xffffff64
    3638:	01000000 	mrseq	r0, (UNDEF: 0)
    363c:	019c1313 	orrseq	r1, ip, r3, lsl r3
    3640:	660e0000 	strvs	r0, [lr], -r0
    3644:	64000002 	strvs	r0, [r0], #-2
    3648:	60000025 	andvs	r0, r0, r5, lsr #32
    364c:	0f000025 	svceq	0x00000025
    3650:	00000271 	andeq	r0, r0, r1, ror r2
    3654:	00009cf0 	strdeq	r9, [r0], -r0
    3658:	009cf001 	addseq	pc, ip, r1
    365c:	00000c00 	andeq	r0, r0, r0, lsl #24
    3660:	120d0100 	andne	r0, sp, #0
    3664:	00000189 	andeq	r0, r0, r9, lsl #3
    3668:	009cf810 	addseq	pc, ip, r0, lsl r8	; <UNPREDICTABLE>
    366c:	00052a00 	andeq	r2, r5, r0, lsl #20
    3670:	50011100 	andpl	r1, r1, r0, lsl #2
    3674:	30040c05 	andcc	r0, r4, r5, lsl #24
    3678:	00002000 	andeq	r2, r0, r0
    367c:	009cf012 	addseq	pc, ip, r2, lsl r0	; <UNPREDICTABLE>
    3680:	00053600 	andeq	r3, r5, r0, lsl #12
    3684:	9d001200 	sfmls	f1, 4, [r0, #-0]
    3688:	05360000 	ldreq	r0, [r6, #-0]!
    368c:	13000000 	movwne	r0, #0
    3690:	00000247 	andeq	r0, r0, r7, asr #4
    3694:	00000410 	andeq	r0, r0, r0, lsl r4
    3698:	00024814 	andeq	r4, r2, r4, lsl r8
    369c:	02550b00 	subseq	r0, r5, #0, 22
    36a0:	9d040000 	stcls	0, cr0, [r4, #-0]
    36a4:	28020000 	stmdacs	r2, {}	; <UNPREDICTABLE>
    36a8:	01000004 	tsteq	r0, r4
    36ac:	28151715 	ldmdacs	r5, {r0, r2, r4, r8, r9, sl, ip}
    36b0:	0e000004 	cdpeq	0, 0, cr0, cr0, cr4, {0}
    36b4:	00000266 	andeq	r0, r0, r6, ror #4
    36b8:	00002584 	andeq	r2, r0, r4, lsl #11
    36bc:	00002582 	andeq	r2, r0, r2, lsl #11
    36c0:	00027116 	andeq	r7, r2, r6, lsl r1
    36c4:	009d0800 	addseq	r0, sp, r0, lsl #16
    36c8:	04480100 	strbeq	r0, [r8], #-256	; 0xffffff00
    36cc:	0d010000 	stceq	0, cr0, [r1, #-0]
    36d0:	0001f312 	andeq	pc, r1, r2, lsl r3	; <UNPREDICTABLE>
    36d4:	9d101000 	ldcls	0, cr1, [r0, #-0]
    36d8:	052a0000 	streq	r0, [sl, #-0]!
    36dc:	01110000 	tsteq	r1, r0
    36e0:	00770250 	rsbseq	r0, r7, r0, asr r2
    36e4:	08120000 	ldmdaeq	r2, {}	; <UNPREDICTABLE>
    36e8:	3600009d 			; <UNDEFINED> instruction: 0x3600009d
    36ec:	12000005 	andne	r0, r0, #5, 0
    36f0:	00009d1c 	andeq	r9, r0, ip, lsl sp
    36f4:	00000536 	andeq	r0, r0, r6, lsr r5
    36f8:	00000000 	andeq	r0, r0, r0
    36fc:	53170000 	tstpl	r7, #0, 0
    3700:	01000007 	tsteq	r0, r7
    3704:	2401061b 	strcs	r0, [r1], #-1563	; 0xfffff9e5
    3708:	18000002 	stmdane	r0, {r1}
    370c:	0100736d 	tsteq	r0, sp, ror #6
    3710:	002c181b 	eoreq	r1, ip, fp, lsl r8
    3714:	17000000 	strne	r0, [r0, -r0]
    3718:	0000089e 	muleq	r0, lr, r8
    371c:	01061201 	tsteq	r6, r1, lsl #4
    3720:	00000255 	andeq	r0, r0, r5, asr r2
    3724:	00737518 	rsbseq	r7, r3, r8, lsl r5
    3728:	2c181201 	lfmcs	f1, 4, [r8], {1}
    372c:	19000000 	stmdbne	r0, {}	; <UNPREDICTABLE>
    3730:	01006272 	tsteq	r0, r2, ror r2
    3734:	002c0e13 	eoreq	r0, ip, r3, lsl lr
    3738:	191a0000 	ldmdbne	sl, {}	; <UNPREDICTABLE>
    373c:	01006172 	tsteq	r0, r2, ror r1
    3740:	002c1215 	eoreq	r1, ip, r5, lsl r2
    3744:	00000000 	andeq	r0, r0, r0
    3748:	00088f1b 	andeq	r8, r8, fp, lsl pc
    374c:	0a090100 	beq	243b54 <__bss_end__+0x2388bc>
    3750:	0000002c 	andeq	r0, r0, ip, lsr #32
    3754:	00027101 	andeq	r7, r2, r1, lsl #2
    3758:	00751900 	rsbseq	r1, r5, r0, lsl #18
    375c:	2c0e0d01 	stccs	13, cr0, [lr], {1}
    3760:	00000000 	andeq	r0, r0, r0
    3764:	0008a71c 	andeq	sl, r8, ip, lsl r7
    3768:	0a040100 	beq	103b70 <__bss_end__+0xf88d8>
    376c:	0000002c 	andeq	r0, r0, ip, lsr #32
    3770:	02711d01 	rsbseq	r1, r1, #64	; 0x40
    3774:	9c100000 	ldcls	0, cr0, [r0], {-0}
    3778:	000c0000 	andeq	r0, ip, r0
    377c:	9c010000 	stcls	0, cr0, [r1], {-0}
    3780:	000002a5 	andeq	r0, r0, r5, lsr #5
    3784:	009c181e 	addseq	r1, ip, lr, lsl r8
    3788:	00052a00 	andeq	r2, r5, r0, lsl #20
    378c:	50011100 	andpl	r1, r1, r0, lsl #2
    3790:	30040c05 	andcc	r0, r4, r5, lsl #24
    3794:	00002000 	andeq	r2, r0, r0
    3798:	0002551d 	andeq	r5, r2, sp, lsl r5
    379c:	009c1c00 	addseq	r1, ip, r0, lsl #24
    37a0:	00002400 	andeq	r2, r0, r0, lsl #8
    37a4:	059c0100 	ldreq	r0, [ip, #256]	; 0x100
    37a8:	0e000003 	cdpeq	0, 0, cr0, cr0, cr3, {0}
    37ac:	00000266 	andeq	r0, r0, r6, ror #4
    37b0:	0000259b 	muleq	r0, fp, r5
    37b4:	00002597 	muleq	r0, r7, r5
    37b8:	0002710f 	andeq	r7, r2, pc, lsl #2
    37bc:	009c2400 	addseq	r2, ip, r0, lsl #8
    37c0:	9c240100 	stflss	f0, [r4], #-0
    37c4:	000c0000 	andeq	r0, ip, r0
    37c8:	0d010000 	stceq	0, cr0, [r1, #-0]
    37cc:	0002f212 	andeq	pc, r2, r2, lsl r2	; <UNPREDICTABLE>
    37d0:	9c2c1000 	stcls	0, cr1, [ip], #-0
    37d4:	052a0000 	streq	r0, [sl, #-0]!
    37d8:	01110000 	tsteq	r1, r0
    37dc:	040c0550 	streq	r0, [ip], #-1360	; 0xfffffab0
    37e0:	00200030 	eoreq	r0, r0, r0, lsr r0
    37e4:	9c241200 	sfmls	f1, 4, [r4], #-0
    37e8:	05360000 	ldreq	r0, [r6, #-0]!
    37ec:	34120000 	ldrcc	r0, [r2], #-0
    37f0:	3600009c 			; <UNDEFINED> instruction: 0x3600009c
    37f4:	00000005 	andeq	r0, r0, r5
    37f8:	0002241d 	andeq	r2, r2, sp, lsl r4
    37fc:	009c4000 	addseq	r4, ip, r0
    3800:	00004800 	andeq	r4, r0, r0, lsl #16
    3804:	079c0100 	ldreq	r0, [ip, r0, lsl #2]
    3808:	0c000004 	stceq	0, cr0, [r0], {4}
    380c:	00000231 	andeq	r0, r0, r1, lsr r2
    3810:	000025bd 			; <UNDEFINED> instruction: 0x000025bd
    3814:	000025b9 			; <UNDEFINED> instruction: 0x000025b9
    3818:	00023c0e 	andeq	r3, r2, lr, lsl #24
    381c:	0025dd00 	eoreq	sp, r5, r0, lsl #26
    3820:	0025db00 	eoreq	sp, r5, r0, lsl #22
    3824:	02551600 	subseq	r1, r5, #0, 12
    3828:	9c400000 	marls	acc0, r0, r0
    382c:	40020000 	andmi	r0, r2, r0
    3830:	01000003 	tsteq	r0, r3
    3834:	039a1313 	orrseq	r1, sl, #1275068416	; 0x4c000000
    3838:	40150000 	andsmi	r0, r5, r0
    383c:	0e000003 	cdpeq	0, 0, cr0, cr0, cr3, {0}
    3840:	00000266 	andeq	r0, r0, r6, ror #4
    3844:	000025f4 	strdeq	r2, [r0], -r4
    3848:	000025f0 	strdeq	r2, [r0], -r0
    384c:	0002710f 	andeq	r7, r2, pc, lsl #2
    3850:	009c4c00 	addseq	r4, ip, r0, lsl #24
    3854:	9c4c0100 	stflse	f0, [ip], {-0}
    3858:	000c0000 	andeq	r0, ip, r0
    385c:	0d010000 	stceq	0, cr0, [r1, #-0]
    3860:	00038612 	andeq	r8, r3, r2, lsl r6
    3864:	9c541000 	mrals	r1, r4, acc0
    3868:	052a0000 	streq	r0, [sl, #-0]!
    386c:	01110000 	tsteq	r1, r0
    3870:	040c0550 	streq	r0, [ip], #-1360	; 0xfffffab0
    3874:	00200030 	eoreq	r0, r0, r0, lsr r0
    3878:	9c4c1200 	sfmls	f1, 2, [ip], {-0}
    387c:	05360000 	ldreq	r0, [r6, #-0]!
    3880:	5c120000 	ldcpl	0, cr0, [r2], {-0}
    3884:	3600009c 			; <UNDEFINED> instruction: 0x3600009c
    3888:	00000005 	andeq	r0, r0, r5
    388c:	02471300 	subeq	r1, r7, #0, 6
    3890:	03580000 	cmpeq	r8, #0, 0
    3894:	48140000 	ldmdami	r4, {}	; <UNPREDICTABLE>
    3898:	0b000002 	bleq	38a8 <__code_start__-0x4758>
    389c:	00000255 	andeq	r0, r0, r5, asr r2
    38a0:	00009c60 	andeq	r9, r0, r0, ror #24
    38a4:	00037002 	andeq	r7, r3, r2
    38a8:	17150100 	ldrne	r0, [r5, -r0, lsl #2]
    38ac:	00037015 	andeq	r7, r3, r5, lsl r0
    38b0:	02660e00 	rsbeq	r0, r6, #0, 28
    38b4:	26140000 	ldrcs	r0, [r4], -r0
    38b8:	26120000 	ldrcs	r0, [r2], -r0
    38bc:	71160000 	tstvc	r6, r0
    38c0:	64000002 	strvs	r0, [r0], #-2
    38c4:	0100009c 	swpeq	r0, ip, [r0]	; <UNPREDICTABLE>
    38c8:	00000390 	muleq	r0, r0, r3
    38cc:	f1120d01 			; <UNDEFINED> instruction: 0xf1120d01
    38d0:	10000003 	andne	r0, r0, r3
    38d4:	00009c6c 	andeq	r9, r0, ip, ror #24
    38d8:	0000052a 	andeq	r0, r0, sl, lsr #10
    38dc:	02500111 	subseq	r0, r0, #1073741828	; 0x40000004
    38e0:	00000077 	andeq	r0, r0, r7, ror r0
    38e4:	009c6412 	addseq	r6, ip, r2, lsl r4
    38e8:	00053600 	andeq	r3, r5, r0, lsl #12
    38ec:	9c781200 	lfmls	f1, 2, [r8], #-0
    38f0:	05360000 	ldreq	r0, [r6, #-0]!
    38f4:	00000000 	andeq	r0, r0, r0
    38f8:	0b1d0000 	bleq	743900 <__bss_end__+0x738668>
    38fc:	88000002 	stmdahi	r0, {r1}
    3900:	5000009c 	mulpl	r0, ip, r0
    3904:	01000000 	mrseq	r0, (UNDEF: 0)
    3908:	00052a9c 	muleq	r5, ip, sl
    390c:	02180c00 	andseq	r0, r8, #0, 24
    3910:	262b0000 	strtcs	r0, [fp], -r0
    3914:	26270000 	strtcs	r0, [r7], -r0
    3918:	240d0000 	strcs	r0, [sp], #-0
    391c:	98000002 	stmdals	r0, {r1}
    3920:	0000009c 	muleq	r0, ip, r0
    3924:	00009c98 	muleq	r0, r8, ip
    3928:	00000040 	andeq	r0, r0, r0, asr #32
    392c:	0c051c01 	stceq	12, cr1, [r5], {1}
    3930:	00000231 	andeq	r0, r0, r1, lsr r2
    3934:	0000264e 	andeq	r2, r0, lr, asr #12
    3938:	0000264c 	andeq	r2, r0, ip, asr #12
    393c:	00023c0e 	andeq	r3, r2, lr, lsl #24
    3940:	00266300 	eoreq	r6, r6, r0, lsl #6
    3944:	00266100 	eoreq	r6, r6, r0, lsl #2
    3948:	02550f00 	subseq	r0, r5, #0, 30
    394c:	9c980000 	ldcls	0, cr0, [r8], {0}
    3950:	98020000 	stmdals	r2, {}	; <UNPREDICTABLE>
    3954:	1400009c 	strne	r0, [r0], #-156	; 0xffffff64
    3958:	01000000 	mrseq	r0, (UNDEF: 0)
    395c:	04bc1313 	ldrteq	r1, [ip], #787	; 0x313
    3960:	660e0000 	strvs	r0, [lr], -r0
    3964:	7a000002 	bvc	3974 <__code_start__-0x468c>
    3968:	76000026 	strvc	r0, [r0], -r6, lsr #32
    396c:	0f000026 	svceq	0x00000026
    3970:	00000271 	andeq	r0, r0, r1, ror r2
    3974:	00009c9c 	muleq	r0, ip, ip
    3978:	009c9c01 	addseq	r9, ip, r1, lsl #24
    397c:	00000c00 	andeq	r0, r0, r0, lsl #24
    3980:	120d0100 	andne	r0, sp, #0
    3984:	000004a9 	andeq	r0, r0, r9, lsr #9
    3988:	009ca410 	addseq	sl, ip, r0, lsl r4
    398c:	00052a00 	andeq	r2, r5, r0, lsl #20
    3990:	50011100 	andpl	r1, r1, r0, lsl #2
    3994:	30040c05 	andcc	r0, r4, r5, lsl #24
    3998:	00002000 	andeq	r2, r0, r0
    399c:	009c9c12 	addseq	r9, ip, r2, lsl ip
    39a0:	00053600 	andeq	r3, r5, r0, lsl #12
    39a4:	9cac1200 	sfmls	f1, 4, [ip]
    39a8:	05360000 	ldreq	r0, [r6, #-0]!
    39ac:	13000000 	movwne	r0, #0
    39b0:	00000247 	andeq	r0, r0, r7, asr #4
    39b4:	000003a8 	andeq	r0, r0, r8, lsr #7
    39b8:	00024814 	andeq	r4, r2, r4, lsl r8
    39bc:	02550b00 	subseq	r0, r5, #0, 22
    39c0:	9cb00000 	ldcls	0, cr0, [r0]
    39c4:	c0020000 	andgt	r0, r2, r0
    39c8:	01000003 	tsteq	r0, r3
    39cc:	c0151715 	andsgt	r1, r5, r5, lsl r7
    39d0:	0e000003 	cdpeq	0, 0, cr0, cr0, cr3, {0}
    39d4:	00000266 	andeq	r0, r0, r6, ror #4
    39d8:	0000269a 	muleq	r0, sl, r6
    39dc:	00002698 	muleq	r0, r8, r6
    39e0:	00027116 	andeq	r7, r2, r6, lsl r1
    39e4:	009cb400 	addseq	fp, ip, r0, lsl #8
    39e8:	03e00100 	mvneq	r0, #0
    39ec:	0d010000 	stceq	0, cr0, [r1, #-0]
    39f0:	00051312 	andeq	r1, r5, r2, lsl r3
    39f4:	9cbc1000 	ldcls	0, cr1, [ip]
    39f8:	052a0000 	streq	r0, [sl, #-0]!
    39fc:	01110000 	tsteq	r1, r0
    3a00:	00770250 	rsbseq	r0, r7, r0, asr r2
    3a04:	b4120000 	ldrlt	r0, [r2], #-0
    3a08:	3600009c 			; <UNDEFINED> instruction: 0x3600009c
    3a0c:	12000005 	andne	r0, r0, #5, 0
    3a10:	00009cc8 	andeq	r9, r0, r8, asr #25
    3a14:	00000536 	andeq	r0, r0, r6, lsr r5
    3a18:	00000000 	andeq	r0, r0, r0
    3a1c:	08891f00 	stmeq	r9, {r8, r9, sl, fp, ip}
    3a20:	08890000 	stmeq	r9, {}	; <UNPREDICTABLE>
    3a24:	c2020000 	andgt	r0, r2, #0, 0
    3a28:	085f1f0a 	ldmdaeq	pc, {r1, r3, r8, r9, sl, fp, ip}^	; <UNPREDICTABLE>
    3a2c:	085f0000 	ldmdaeq	pc, {}^	; <UNPREDICTABLE>
    3a30:	9c020000 	stcls	0, cr0, [r2], {-0}
    3a34:	05cd0006 	strbeq	r0, [sp, #6]
    3a38:	00040000 	andeq	r0, r4, r0
    3a3c:	000014c6 	andeq	r1, r0, r6, asr #9
    3a40:	09ba0104 	ldmibeq	sl!, {r2, r8}
    3a44:	f90c0000 			; <UNDEFINED> instruction: 0xf90c0000
    3a48:	6a000008 	bvs	3a70 <__code_start__-0x4590>
    3a4c:	2c000009 	stccs	0, cr0, [r0], {9}
    3a50:	f000009d 			; <UNDEFINED> instruction: 0xf000009d
    3a54:	f4000001 	vst4.8	{d0-d3}, [r0], r1
    3a58:	0200001e 	andeq	r0, r0, #30, 0
    3a5c:	6e690504 	cdpvs	5, 6, cr0, cr9, cr4, {0}
    3a60:	04030074 	streq	r0, [r3], #-116	; 0xffffff8c
    3a64:	0001b007 	andeq	fp, r1, r7
    3a68:	002c0400 	eoreq	r0, ip, r0, lsl #8
    3a6c:	01030000 	mrseq	r0, (UNDEF: 3)
    3a70:	00015406 	andeq	r5, r1, r6, lsl #8
    3a74:	05020300 	streq	r0, [r2, #-768]	; 0xfffffd00
    3a78:	000001de 	ldrdeq	r0, [r0], -lr
    3a7c:	c2050403 	andgt	r0, r5, #50331648	; 0x3000000
    3a80:	03000001 	movweq	r0, #1
    3a84:	01bd0508 			; <UNDEFINED> instruction: 0x01bd0508
    3a88:	01030000 	mrseq	r0, (UNDEF: 3)
    3a8c:	00015208 	andeq	r5, r1, r8, lsl #4
    3a90:	07020300 	streq	r0, [r2, -r0, lsl #6]
    3a94:	00000052 	andeq	r0, r0, r2, asr r0
    3a98:	00029205 	andeq	r9, r2, r5, lsl #4
    3a9c:	19340500 	ldmdbne	r4!, {r8, sl}
    3aa0:	0000006e 	andeq	r0, r0, lr, rrx
    3aa4:	ab070403 	blge	1c4ab8 <__bss_end__+0x1b9820>
    3aa8:	03000001 	movweq	r0, #1
    3aac:	01a60708 			; <UNDEFINED> instruction: 0x01a60708
    3ab0:	01030000 	mrseq	r0, (UNDEF: 3)
    3ab4:	00015b08 	andeq	r5, r1, r8, lsl #22
    3ab8:	01070600 	tsteq	r7, r0, lsl #12
    3abc:	00000054 	andeq	r0, r0, r4, asr r0
    3ac0:	c20e0c04 	andgt	r0, lr, #4, 24	; 0x400
    3ac4:	07000000 	streq	r0, [r0, -r0]
    3ac8:	00000aa4 	andeq	r0, r0, r4, lsr #21
    3acc:	08dc0700 	ldmeq	ip, {r8, r9, sl}^
    3ad0:	07010000 	streq	r0, [r1, -r0]
    3ad4:	0000091f 	andeq	r0, r0, pc, lsl r9
    3ad8:	092e0704 	stmdbeq	lr!, {r2, r8, r9, sl}
    3adc:	07050000 	streq	r0, [r5, -r0]
    3ae0:	0000093d 	andeq	r0, r0, sp, lsr r9
    3ae4:	094c0706 	stmdbeq	ip, {r1, r2, r8, r9, sl}^
    3ae8:	07070000 	streq	r0, [r7, -r0]
    3aec:	00000a6d 	andeq	r0, r0, sp, ror #20
    3af0:	095b0703 	ldmdbeq	fp, {r0, r1, r8, r9, sl}^
    3af4:	00020000 	andeq	r0, r2, r0
    3af8:	0008ed08 	andeq	lr, r8, r8, lsl #26
    3afc:	06022c00 	streq	r2, [r2], -r0, lsl #24
    3b00:	00015e08 	andeq	r5, r1, r8, lsl #28
    3b04:	6f690900 	svcvs	0x00690900
    3b08:	09090200 	stmdbeq	r9, {r9}
    3b0c:	00000033 	andeq	r0, r0, r3, lsr r0
    3b10:	65690900 	strbvs	r0, [r9, #-2304]!	; 0xfffff700
    3b14:	0a020072 	beq	83ce4 <__bss_end__+0x78a4c>
    3b18:	00003309 	andeq	r3, r0, r9, lsl #6
    3b1c:	69090400 	stmdbvs	r9, {sl}
    3b20:	02007269 	andeq	r7, r0, #-1879048186	; 0x90000006
    3b24:	00330911 	eorseq	r0, r3, r1, lsl r9
    3b28:	09080000 	stmdbeq	r8, {}	; <UNPREDICTABLE>
    3b2c:	0072636c 	rsbseq	r6, r2, ip, ror #6
    3b30:	33091302 	movwcc	r1, #37634	; 0x9302
    3b34:	0c000000 	stceq	0, cr0, [r0], {-0}
    3b38:	72636d09 	rsbvc	r6, r3, #576	; 0x240
    3b3c:	09140200 	ldmdbeq	r4, {r9}
    3b40:	00000033 	andeq	r0, r0, r3, lsr r0
    3b44:	736c0910 	cmnvc	ip, #16, 18	; 0x40000
    3b48:	15020072 	strne	r0, [r2, #-114]	; 0xffffff8e
    3b4c:	00003309 	andeq	r3, r0, r9, lsl #6
    3b50:	6d091400 	cfstrsvs	mvf1, [r9, #-0]
    3b54:	02007273 	andeq	r7, r0, #805306375	; 0x30000007
    3b58:	00330916 	eorseq	r0, r3, r6, lsl r9
    3b5c:	0a180000 	beq	603b64 <__bss_end__+0x5f88cc>
    3b60:	00000a84 	andeq	r0, r0, r4, lsl #21
    3b64:	33091702 	movwcc	r1, #38658	; 0x9702
    3b68:	1c000000 	stcne	0, cr0, [r0], {-0}
    3b6c:	000a4d0a 	andeq	r4, sl, sl, lsl #26
    3b70:	091b0200 	ldmdbeq	fp, {r9}
    3b74:	00000033 	andeq	r0, r0, r3, lsr r0
    3b78:	08c90a20 	stmiaeq	r9, {r5, r9, fp}^
    3b7c:	1d020000 	stcne	0, cr0, [r2, #-0]
    3b80:	00003309 	andeq	r3, r0, r9, lsl #6
    3b84:	9f0a2400 	svcls	0x000a2400
    3b88:	02000009 	andeq	r0, r0, #9, 0
    3b8c:	0033091e 	eorseq	r0, r3, lr, lsl r9
    3b90:	00280000 	eoreq	r0, r8, r0
    3b94:	0009a40b 	andeq	sl, r9, fp, lsl #8
    3b98:	09080100 	stmdbeq	r8, {r8}
    3b9c:	00000174 	andeq	r0, r0, r4, ror r1
    3ba0:	20215004 	eorcs	r5, r1, r4
    3ba4:	0033040c 	eorseq	r0, r3, ip, lsl #8
    3ba8:	6e0d0000 	cdpvs	0, 0, cr0, cr13, cr0, {0}
    3bac:	0b000001 	bleq	3bb8 <__code_start__-0x4448>
    3bb0:	00000a8c 	andeq	r0, r0, ip, lsl #21
    3bb4:	8f232901 	svchi	0x00232901
    3bb8:	40000001 	andmi	r0, r0, r1
    3bbc:	0c202150 	stfeqs	f2, [r0], #-320	; 0xfffffec0
    3bc0:	0000c204 	andeq	ip, r0, r4, lsl #4
    3bc4:	01890d00 	orreq	r0, r9, r0, lsl #26
    3bc8:	770e0000 	strvc	r0, [lr, -r0]
    3bcc:	01000007 	tsteq	r0, r7
    3bd0:	9ee406cc 	cdpls	6, 14, cr0, cr4, cr12, {6}
    3bd4:	00140000 	andseq	r0, r4, r0
    3bd8:	9c010000 	stcls	0, cr0, [r1], {-0}
    3bdc:	000001b4 			; <UNDEFINED> instruction: 0x000001b4
    3be0:	009eec0f 	addseq	lr, lr, pc, lsl #24
    3be4:	0001b400 	andeq	fp, r1, r0, lsl #8
    3be8:	0e100000 	cdpeq	0, 1, cr0, cr0, cr0, {0}
    3bec:	01000009 	tsteq	r0, r9
    3bf0:	002505b6 	strhteq	r0, [r5], -r6
    3bf4:	9ec40000 	cdpls	0, 12, cr0, cr4, cr0, {0}
    3bf8:	00200000 	eoreq	r0, r0, r0
    3bfc:	9c010000 	stcls	0, cr0, [r1], {-0}
    3c00:	000001eb 	andeq	r0, r0, fp, ror #3
    3c04:	009ecc0f 	addseq	ip, lr, pc, lsl #24
    3c08:	0005a000 	andeq	sl, r5, r0
    3c0c:	9ed41100 	cdpls	1, 13, cr1, cr4, cr0, {0}
    3c10:	05ac0000 	streq	r0, [ip, #0]!
    3c14:	01120000 	tsteq	r2, r0
    3c18:	640c0550 	strvs	r0, [ip], #-1360	; 0xfffffab0
    3c1c:	00202150 	eoreq	r2, r0, r0, asr r1
    3c20:	0a5f1000 	beq	17c7c28 <__bss_end__+0x17bc990>
    3c24:	b3010000 	movwlt	r0, #4096	; 0x1000
    3c28:	00002505 	andeq	r2, r0, r5, lsl #10
    3c2c:	009eb400 	addseq	fp, lr, r0, lsl #8
    3c30:	00001000 	andeq	r1, r0, r0
    3c34:	189c0100 	ldmne	ip, {r8}
    3c38:	0f000002 	svceq	0x00000002
    3c3c:	00009ebc 			; <UNDEFINED> instruction: 0x00009ebc
    3c40:	000005a0 	andeq	r0, r0, r0, lsr #11
    3c44:	009ec00f 	addseq	ip, lr, pc
    3c48:	00030900 	andeq	r0, r3, r0, lsl #18
    3c4c:	9a0e0000 	bls	383c54 <__bss_end__+0x3789bc>
    3c50:	0100000a 	tsteq	r0, sl
    3c54:	9e8406ab 	cdpls	6, 8, cr0, cr4, cr11, {5}
    3c58:	00300000 	eorseq	r0, r0, r0
    3c5c:	9c010000 	stcls	0, cr0, [r1], {-0}
    3c60:	0000027c 	andeq	r0, r0, ip, ror r2
    3c64:	01006313 	tsteq	r0, r3, lsl r3
    3c68:	002c19ab 	eoreq	r1, ip, fp, lsr #19
    3c6c:	26b10000 	ldrtcs	r0, [r1], r0
    3c70:	26ad0000 	strtcs	r0, [sp], r0
    3c74:	900f0000 	andls	r0, pc, r0
    3c78:	a000009e 	mulge	r0, lr, r0
    3c7c:	0f000005 	svceq	0x00000005
    3c80:	00009e94 	muleq	r0, r4, lr
    3c84:	000002db 	ldrdeq	r0, [r0], -fp
    3c88:	009ea814 	addseq	sl, lr, r4, lsl r8
    3c8c:	0005b800 	andeq	fp, r5, r0, lsl #16
    3c90:	00027200 	andeq	r7, r2, r0, lsl #4
    3c94:	50011200 	andpl	r1, r1, r0, lsl #4
    3c98:	50400c05 	subpl	r0, r0, r5, lsl #24
    3c9c:	01122021 	tsteq	r2, r1, lsr #32
    3ca0:	00740551 	rsbseq	r0, r4, r1, asr r5
    3ca4:	001aff08 	andseq	pc, sl, r8, lsl #30
    3ca8:	009eac0f 	addseq	sl, lr, pc, lsl #24
    3cac:	0005a000 	andeq	sl, r5, r0
    3cb0:	b0100000 	andslt	r0, r0, r0
    3cb4:	01000009 	tsteq	r0, r9
    3cb8:	002505a3 	eoreq	r0, r5, r3, lsr #11
    3cbc:	9e540000 	cdpls	0, 5, cr0, cr4, cr0, {0}
    3cc0:	00300000 	eorseq	r0, r0, r0
    3cc4:	9c010000 	stcls	0, cr0, [r1], {-0}
    3cc8:	000002db 	ldrdeq	r0, [r0], -fp
    3ccc:	01006315 	tsteq	r0, r5, lsl r3
    3cd0:	002509a7 	eoreq	r0, r5, r7, lsr #19
    3cd4:	26d10000 	ldrbcs	r0, [r1], r0
    3cd8:	26cf0000 	strbcs	r0, [pc], r0
    3cdc:	5c0f0000 	stcpl	0, cr0, [pc], {-0}
    3ce0:	a000009e 	mulge	r0, lr, r0
    3ce4:	0f000005 	svceq	0x00000005
    3ce8:	00009e60 	andeq	r9, r0, r0, ror #28
    3cec:	00000309 	andeq	r0, r0, r9, lsl #6
    3cf0:	009e7014 	addseq	r7, lr, r4, lsl r0
    3cf4:	0005ac00 	andeq	sl, r5, r0, lsl #24
    3cf8:	0002d100 	andeq	sp, r2, r0, lsl #2
    3cfc:	50011200 	andpl	r1, r1, r0, lsl #4
    3d00:	50400c05 	subpl	r0, r0, r5, lsl #24
    3d04:	0f002021 	svceq	0x00002021
    3d08:	00009e78 	andeq	r9, r0, r8, ror lr
    3d0c:	000005a0 	andeq	r0, r0, r0, lsr #11
    3d10:	09001000 	stmdbeq	r0, {ip}
    3d14:	94010000 	strls	r0, [r1], #-0
    3d18:	00002505 	andeq	r2, r0, r5, lsl #10
    3d1c:	009e3400 	addseq	r3, lr, r0, lsl #8
    3d20:	00002000 	andeq	r2, r0, r0
    3d24:	099c0100 	ldmibeq	ip, {r8}
    3d28:	11000003 	tstne	r0, r3
    3d2c:	00009e40 	andeq	r9, r0, r0, asr #28
    3d30:	000005ac 	andeq	r0, r0, ip, lsr #11
    3d34:	05500112 	ldrbeq	r0, [r0, #-274]	; 0xfffffeee
    3d38:	2150640c 	cmpcs	r0, ip, lsl #8
    3d3c:	10000020 	andne	r0, r0, r0, lsr #32
    3d40:	000008ce 	andeq	r0, r0, lr, asr #17
    3d44:	25058b01 	strcs	r8, [r5, #-2817]	; 0xfffff4ff
    3d48:	1c000000 	stcne	0, cr0, [r0], {-0}
    3d4c:	1800009e 	stmdane	r0, {r1, r2, r3, r4, r7}
    3d50:	01000000 	mrseq	r0, (UNDEF: 0)
    3d54:	0003379c 	muleq	r3, ip, r7
    3d58:	9e281100 	suflse	f1, f0, f0
    3d5c:	05ac0000 	streq	r0, [ip, #0]!
    3d60:	01120000 	tsteq	r2, r0
    3d64:	640c0550 	strvs	r0, [ip], #-1360	; 0xfffffab0
    3d68:	00202150 	eoreq	r2, r0, r0, asr r1
    3d6c:	07950e00 	ldreq	r0, [r5, r0, lsl #28]
    3d70:	45010000 	strmi	r0, [r1, #-0]
    3d74:	009d6c06 	addseq	r6, sp, r6, lsl #24
    3d78:	0000b000 	andeq	fp, r0, r0
    3d7c:	849c0100 	ldrhi	r0, [ip], #256	; 0x100
    3d80:	16000004 	strne	r0, [r0], -r4
    3d84:	000008c0 	andeq	r0, r0, r0, asr #17
    3d88:	620e7e01 	andvs	r7, lr, #1, 28
    3d8c:	0e000000 	cdpeq	0, 0, cr0, cr0, cr0, {0}
    3d90:	9d7c1401 	cfldrdls	mvd1, [ip, #-4]!
    3d94:	05c40000 	strbeq	r0, [r4]
    3d98:	03730000 	cmneq	r3, #0, 0
    3d9c:	01120000 	tsteq	r2, r0
    3da0:	123e0150 	eorsne	r0, lr, #20
    3da4:	32015101 	andcc	r5, r1, #1073741824	; 0x40000000
    3da8:	9d881400 	cfstrsls	mvf1, [r8]
    3dac:	05c40000 	strbeq	r0, [r4]
    3db0:	038b0000 	orreq	r0, fp, #0, 0
    3db4:	01120000 	tsteq	r2, r0
    3db8:	123f0150 	eorsne	r0, pc, #20
    3dbc:	32015101 	andcc	r5, r1, #1073741824	; 0x40000000
    3dc0:	9d8c0f00 	stcls	15, cr0, [ip]
    3dc4:	05a00000 	streq	r0, [r0, #0]!
    3dc8:	98140000 	ldmdals	r4, {}	; <UNPREDICTABLE>
    3dcc:	3d00009d 	stccc	0, cr0, [r0, #-628]	; 0xfffffd8c
    3dd0:	b0000005 	andlt	r0, r0, r5
    3dd4:	12000003 	andne	r0, r0, #3, 0
    3dd8:	0c055001 	stceq	0, cr5, [r5], {1}
    3ddc:	20215004 	eorcs	r5, r1, r4
    3de0:	01510112 	cmpeq	r1, r2, lsl r1
    3de4:	9c0f0031 	stcls	0, cr0, [pc], {49}	; 0x31
    3de8:	a000009d 	mulge	r0, sp, r0
    3dec:	14000005 	strne	r0, [r0], #-5
    3df0:	00009dac 	andeq	r9, r0, ip, lsr #27
    3df4:	000005b8 			; <UNDEFINED> instruction: 0x000005b8
    3df8:	000003d2 	ldrdeq	r0, [r0], -r2
    3dfc:	02500112 	subseq	r0, r0, #-2147483644	; 0x80000004
    3e00:	01120074 	tsteq	r2, r4, ror r0
    3e04:	00300151 	eorseq	r0, r0, r1, asr r1
    3e08:	009db814 	addseq	fp, sp, r4, lsl r8
    3e0c:	0005b800 	andeq	fp, r5, r0, lsl #16
    3e10:	0003ee00 	andeq	lr, r3, r0, lsl #28
    3e14:	50011200 	andpl	r1, r1, r0, lsl #4
    3e18:	50440c05 	subpl	r0, r4, r5, lsl #24
    3e1c:	01122021 	tsteq	r2, r1, lsr #32
    3e20:	00300151 	eorseq	r0, r0, r1, asr r1
    3e24:	009dc414 	addseq	ip, sp, r4, lsl r4
    3e28:	0005b800 	andeq	fp, r5, r0, lsl #16
    3e2c:	00040a00 	andeq	r0, r4, r0, lsl #20
    3e30:	50011200 	andpl	r1, r1, r0, lsl #4
    3e34:	504c0c05 	subpl	r0, ip, r5, lsl #24
    3e38:	01122021 	tsteq	r2, r1, lsr #32
    3e3c:	00330151 	eorseq	r0, r3, r1, asr r1
    3e40:	009dd014 	addseq	sp, sp, r4, lsl r0
    3e44:	0005b800 	andeq	fp, r5, r0, lsl #16
    3e48:	00042600 	andeq	r2, r4, r0, lsl #12
    3e4c:	50011200 	andpl	r1, r1, r0, lsl #4
    3e50:	50500c05 	subspl	r0, r0, r5, lsl #24
    3e54:	01122021 	tsteq	r2, r1, lsr #32
    3e58:	00300151 	eorseq	r0, r0, r1, asr r1
    3e5c:	009ddc14 	addseq	sp, sp, r4, lsl ip
    3e60:	0005b800 	andeq	fp, r5, r0, lsl #16
    3e64:	00044300 	andeq	r4, r4, r0, lsl #6
    3e68:	50011200 	andpl	r1, r1, r0, lsl #4
    3e6c:	50480c05 	subpl	r0, r8, r5, lsl #24
    3e70:	01122021 	tsteq	r2, r1, lsr #32
    3e74:	c7080251 	smlsdgt	r8, r1, r2, r0
    3e78:	9de81400 	cfstrdls	mvd1, [r8]
    3e7c:	05b80000 	ldreq	r0, [r8, #0]!
    3e80:	04610000 	strbteq	r0, [r1], #-0
    3e84:	01120000 	tsteq	r2, r0
    3e88:	680c0550 	stmdavs	ip, {r4, r6, r8, sl}
    3e8c:	12202150 	eorne	r2, r0, #20
    3e90:	0a035101 	beq	d829c <__bss_end__+0xcd004>
    3e94:	1400010e 	strne	r0, [r0], #-270	; 0xfffffef2
    3e98:	00009df4 	strdeq	r9, [r0], -r4
    3e9c:	000005b8 			; <UNDEFINED> instruction: 0x000005b8
    3ea0:	0000047a 	andeq	r0, r0, sl, ror r4
    3ea4:	02500112 	subseq	r0, r0, #-2147483644	; 0x80000004
    3ea8:	01120074 	tsteq	r2, r4, ror r0
    3eac:	00330151 	eorseq	r0, r3, r1, asr r1
    3eb0:	009df80f 	addseq	pc, sp, pc, lsl #16
    3eb4:	0005a000 	andeq	sl, r5, r0
    3eb8:	520e0000 	andpl	r0, lr, #0, 0
    3ebc:	0100000a 	tsteq	r0, sl
    3ec0:	9ef80635 	mrcls	6, 7, r0, cr8, cr5, {1}
    3ec4:	00240000 	eoreq	r0, r4, r0
    3ec8:	9c010000 	stcls	0, cr0, [r1], {-0}
    3ecc:	000004d3 	ldrdeq	r0, [r0], -r3
    3ed0:	009f000f 	addseq	r0, pc, pc
    3ed4:	00019400 	andeq	r9, r1, r0, lsl #8
    3ed8:	9f040f00 	svcls	0x00040f00
    3edc:	05a00000 	streq	r0, [r0, #0]!
    3ee0:	10140000 	andsne	r0, r4, r0
    3ee4:	d300009f 	movwle	r0, #159	; 0x9f
    3ee8:	c9000004 	stmdbgt	r0, {r2}
    3eec:	12000004 	andne	r0, r0, #4, 0
    3ef0:	0c055001 	stceq	0, cr5, [r5], {1}
    3ef4:	20215004 	eorcs	r5, r1, r4
    3ef8:	02510112 	subseq	r0, r1, #-2147483644	; 0x80000004
    3efc:	0f00fe09 	svceq	0x0000fe09
    3f00:	00009f14 	andeq	r9, r0, r4, lsl pc
    3f04:	000005a0 	andeq	r0, r0, r0, lsr #11
    3f08:	0a911700 	beq	fe449b10 <__bss_end__+0xfe43e878>
    3f0c:	31010000 	mrscc	r0, (UNDEF: 1)
    3f10:	009d2c0d 	addseq	r2, sp, sp, lsl #24
    3f14:	00002000 	andeq	r2, r0, r0
    3f18:	369c0100 	ldrcc	r0, [ip], r0, lsl #2
    3f1c:	18000005 	stmdane	r0, {r0, r2}
    3f20:	000005c7 	andeq	r0, r0, r7, asr #11
    3f24:	36253101 	strtcc	r3, [r5], -r1, lsl #2
    3f28:	e8000005 	stmda	r0, {r0, r2}
    3f2c:	e4000026 	str	r0, [r0], #-38	; 0xffffffda
    3f30:	13000026 	movwne	r0, #38	; 0x26
    3f34:	006c6176 	rsbeq	r6, ip, r6, ror r1
    3f38:	2c343101 	ldfcss	f3, [r4], #-4
    3f3c:	0a000000 	beq	3f44 <__code_start__-0x40bc>
    3f40:	06000027 	streq	r0, [r0], -r7, lsr #32
    3f44:	14000027 	strne	r0, [r0], #-39	; 0xffffffd9
    3f48:	00009d3c 	andeq	r9, r0, ip, lsr sp
    3f4c:	000005ac 	andeq	r0, r0, ip, lsr #11
    3f50:	00000525 	andeq	r0, r0, r5, lsr #10
    3f54:	02500112 	subseq	r0, r0, #-2147483644	; 0x80000004
    3f58:	11000074 	tstne	r0, r4, ror r0
    3f5c:	00009d48 	andeq	r9, r0, r8, asr #26
    3f60:	000005b8 			; <UNDEFINED> instruction: 0x000005b8
    3f64:	02500112 	subseq	r0, r0, #-2147483644	; 0x80000004
    3f68:	00000074 	andeq	r0, r0, r4, ror r0
    3f6c:	053c040c 	ldreq	r0, [ip, #-1036]!	; 0xfffffbf4
    3f70:	17190000 	ldrne	r0, [r9, -r0]
    3f74:	00000a7c 	andeq	r0, r0, ip, ror sl
    3f78:	4c0d2e01 	stcmi	14, cr2, [sp], {1}
    3f7c:	2000009d 	mulcs	r0, sp, r0
    3f80:	01000000 	mrseq	r0, (UNDEF: 0)
    3f84:	0005a09c 	muleq	r5, ip, r0
    3f88:	05c71800 	strbeq	r1, [r7, #2048]	; 0x800
    3f8c:	2e010000 	cdpcs	0, 0, cr0, cr1, cr0, {0}
    3f90:	00053624 	andeq	r3, r5, r4, lsr #12
    3f94:	00272c00 	eoreq	r2, r7, r0, lsl #24
    3f98:	00272800 	eoreq	r2, r7, r0, lsl #16
    3f9c:	61761300 	cmnvs	r6, r0, lsl #6
    3fa0:	2e01006c 	cdpcs	0, 0, cr0, cr1, cr12, {3}
    3fa4:	00002c33 	andeq	r2, r0, r3, lsr ip
    3fa8:	00274e00 	eoreq	r4, r7, r0, lsl #28
    3fac:	00274a00 	eoreq	r4, r7, r0, lsl #20
    3fb0:	9d5c1400 	cfldrdls	mvd1, [ip, #-0]
    3fb4:	05ac0000 	streq	r0, [ip, #0]!
    3fb8:	058f0000 	streq	r0, [pc]	; 3fc0 <__code_start__-0x4040>
    3fbc:	01120000 	tsteq	r2, r0
    3fc0:	00740250 	rsbseq	r0, r4, r0, asr r2
    3fc4:	9d681100 	stflse	f1, [r8, #-0]
    3fc8:	05b80000 	ldreq	r0, [r8, #0]!
    3fcc:	01120000 	tsteq	r2, r0
    3fd0:	00740250 	rsbseq	r0, r4, r0, asr r2
    3fd4:	5f1a0000 	svcpl	0x001a0000
    3fd8:	5f000008 	svcpl	0x00000008
    3fdc:	03000008 	movweq	r0, #8
    3fe0:	c61a069c 			; <UNDEFINED> instruction: 0xc61a069c
    3fe4:	c600000a 	strgt	r0, [r0], -sl
    3fe8:	0300000a 	movweq	r0, #10
    3fec:	ba1a0bc3 	blt	686f00 <__bss_end__+0x67bc68>
    3ff0:	ba000008 	blt	4018 <__code_start__-0x3fe8>
    3ff4:	03000008 	movweq	r0, #8
    3ff8:	b41a06ae 	ldrlt	r0, [sl], #-1710	; 0xfffff952
    3ffc:	b400000a 	strlt	r0, [r0], #-10
    4000:	0400000a 	streq	r0, [r0], #-10
    4004:	e9000619 	stmdb	r0, {r0, r3, r4, r9, sl}
    4008:	04000008 	streq	r0, [r0], #-8
    400c:	00165e00 	andseq	r5, r6, r0, lsl #28
    4010:	ba010400 	blt	45018 <__bss_end__+0x39d80>
    4014:	0c000009 	stceq	0, cr0, [r0], {9}
    4018:	00000b50 	andeq	r0, r0, r0, asr fp
    401c:	0000096a 	andeq	r0, r0, sl, ror #18
    4020:	00009f1c 	andeq	r9, r0, ip, lsl pc
    4024:	000003b0 			; <UNDEFINED> instruction: 0x000003b0
    4028:	000020fc 	strdeq	r2, [r0], -ip
    402c:	69050402 	stmdbvs	r5, {r1, sl}
    4030:	0300746e 	movweq	r7, #1134	; 0x46e
    4034:	01b00704 	lslseq	r0, r4, #14
    4038:	01030000 	mrseq	r0, (UNDEF: 3)
    403c:	00015406 	andeq	r5, r1, r6, lsl #8
    4040:	05020300 	streq	r0, [r2, #-768]	; 0xfffffd00
    4044:	000001de 	ldrdeq	r0, [r0], -lr
    4048:	c2050403 	andgt	r0, r5, #50331648	; 0x3000000
    404c:	03000001 	movweq	r0, #1
    4050:	01bd0508 			; <UNDEFINED> instruction: 0x01bd0508
    4054:	01030000 	mrseq	r0, (UNDEF: 3)
    4058:	00015208 	andeq	r5, r1, r8, lsl #4
    405c:	07020300 	streq	r0, [r2, -r0, lsl #6]
    4060:	00000052 	andeq	r0, r0, r2, asr r0
    4064:	00029204 	andeq	r9, r2, r4, lsl #4
    4068:	19340300 	ldmdbne	r4!, {r8, r9}
    406c:	00000069 	andeq	r0, r0, r9, rrx
    4070:	ab070403 	blge	1c5084 <__bss_end__+0x1b9dec>
    4074:	03000001 	movweq	r0, #1
    4078:	01a60708 			; <UNDEFINED> instruction: 0x01a60708
    407c:	01030000 	mrseq	r0, (UNDEF: 3)
    4080:	00015b08 	andeq	r5, r1, r8, lsl #22
    4084:	00770500 	rsbseq	r0, r7, r0, lsl #10
    4088:	08030000 	stmdaeq	r3, {}	; <UNPREDICTABLE>
    408c:	00034e04 	andeq	r4, r3, r4, lsl #28
    4090:	07040600 	streq	r0, [r4, -r0, lsl #12]
    4094:	002c0407 	eoreq	r0, ip, r7, lsl #8
    4098:	1f010000 	svcne	0x00010000
    409c:	0000a406 	andeq	sl, r0, r6, lsl #8
    40a0:	0aea0800 	beq	ffa860a8 <__bss_end__+0xffa7ae10>
    40a4:	00000000 	andeq	r0, r0, r0
    40a8:	09000020 	stmdbeq	r0, {r5}
    40ac:	000006c0 	andeq	r0, r0, r0, asr #13
    40b0:	770d2201 	strvc	r2, [sp, -r1, lsl #4]
    40b4:	0a000000 	beq	40bc <__code_start__-0x3f44>
    40b8:	00000443 	andeq	r0, r0, r3, asr #8
    40bc:	c20e2301 	andgt	r2, lr, #67108864	; 0x4000000
    40c0:	05000000 	streq	r0, [r0, #-0]
    40c4:	00ae6003 	adceq	r6, lr, r3
    40c8:	77040b00 	strvc	r0, [r4, -r0, lsl #22]
    40cc:	0a000000 	beq	40d4 <__code_start__-0x3f2c>
    40d0:	00000ad4 	ldrdeq	r0, [r0], -r4
    40d4:	c20e2401 	andgt	r2, lr, #16777216	; 0x1000000
    40d8:	05000000 	streq	r0, [r0, #-0]
    40dc:	00ae6403 	adceq	r6, lr, r3, lsl #8
    40e0:	0b2f0a00 	bleq	bc68e8 <__bss_end__+0xbbb650>
    40e4:	25010000 	strcs	r0, [r1, #-0]
    40e8:	0000c20e 	andeq	ip, r0, lr, lsl #4
    40ec:	68030500 	stmdavs	r3, {r8, sl}
    40f0:	0c0000ae 	stceq	0, cr0, [r0], {174}	; 0xae
    40f4:	00000b05 	andeq	r0, r0, r5, lsl #22
    40f8:	6c067501 	cfstr32vs	mvfx7, [r6], {1}
    40fc:	600000a2 	andvs	r0, r0, r2, lsr #1
    4100:	01000000 	mrseq	r0, (UNDEF: 0)
    4104:	0001649c 	muleq	r1, ip, r4
    4108:	00700d00 	rsbseq	r0, r0, r0, lsl #26
    410c:	8a167501 	bhi	5a1518 <__bss_end__+0x596280>
    4110:	72000000 	andvc	r0, r0, #0, 0
    4114:	6c000027 	stcvs	0, cr0, [r0], {39}	; 0x27
    4118:	0e000027 	cdpeq	0, 0, cr0, cr0, cr7, {1}
    411c:	00000199 	muleq	r0, r9, r1
    4120:	00000174 	andeq	r0, r0, r4, ror r1
    4124:	ae500305 	cdpge	3, 5, cr0, cr0, cr5, {0}
    4128:	b80f0000 	stmdalt	pc, {}	; <UNPREDICTABLE>
    412c:	bc0000a2 	stclt	0, cr0, [r0], {162}	; 0xa2
    4130:	5a000008 	bpl	4158 <__code_start__-0x3ea8>
    4134:	10000001 	andne	r0, r0, r1
    4138:	03055001 	movweq	r5, #20481	; 0x5001
    413c:	0000adc8 	andeq	sl, r0, r8, asr #27
    4140:	05510110 	ldrbeq	r0, [r1, #-272]	; 0xfffffef0
    4144:	00ac6003 	adceq	r6, ip, r3
    4148:	52011000 	andpl	r1, r1, #0, 0
    414c:	ae500305 	cdpge	3, 5, cr0, cr0, cr5, {0}
    4150:	01100000 	tsteq	r0, r0
    4154:	77080253 	smlsdvc	r8, r3, r2, r0
    4158:	007d0210 	rsbseq	r0, sp, r0, lsl r2
    415c:	5001f303 	andpl	pc, r1, r3, lsl #6
    4160:	a2bc1100 	adcsge	r1, ip, #0
    4164:	08c80000 	stmiaeq	r8, {}^	; <UNPREDICTABLE>
    4168:	12000000 	andne	r0, r0, #0, 0
    416c:	0000007e 	andeq	r0, r0, lr, ror r0
    4170:	00000174 	andeq	r0, r0, r4, ror r1
    4174:	00002c13 	andeq	r2, r0, r3, lsl ip
    4178:	05000900 	streq	r0, [r0, #-2304]	; 0xfffff700
    417c:	00000164 	andeq	r0, r0, r4, ror #2
    4180:	000af314 	andeq	pc, sl, r4, lsl r3	; <UNPREDICTABLE>
    4184:	06720100 	ldrbteq	r0, [r2], -r0, lsl #2
    4188:	0000a258 	andeq	sl, r0, r8, asr r2
    418c:	00000014 	andeq	r0, r0, r4, lsl r0
    4190:	d80c9c01 	stmdale	ip, {r0, sl, fp, ip, pc}
    4194:	01000001 	tsteq	r0, r1
    4198:	a254066f 	subsge	r0, r4, #116391936	; 0x6f00000
    419c:	00040000 	andeq	r0, r4, r0
    41a0:	9c010000 	stcls	0, cr0, [r1], {-0}
    41a4:	000001ae 	andeq	r0, r0, lr, lsr #3
    41a8:	01007015 	tsteq	r0, r5, lsl r0
    41ac:	008a126f 	addeq	r1, sl, pc, ror #4
    41b0:	50010000 	andpl	r0, r1, r0
    41b4:	0b921600 	bleq	fe4899bc <__bss_end__+0xfe47e724>
    41b8:	5e010000 	cdppl	0, 0, cr0, cr1, cr0, {0}
    41bc:	00008a07 	andeq	r8, r0, r7, lsl #20
    41c0:	00a13c00 	adceq	r3, r1, r0, lsl #24
    41c4:	00011800 	andeq	r1, r1, r0, lsl #16
    41c8:	2c9c0100 	ldfcss	f0, [ip], {0}
    41cc:	17000004 	strne	r0, [r0, -r4]
    41d0:	00000304 	andeq	r0, r0, r4, lsl #6
    41d4:	2c205e01 	stccs	14, cr5, [r0], #-4
    41d8:	b3000000 	movwlt	r0, #0
    41dc:	9f000027 	svcls	0x00000027
    41e0:	17000027 	strne	r0, [r0, -r7, lsr #32]
    41e4:	00000b0f 	andeq	r0, r0, pc, lsl #22
    41e8:	2c315e01 	ldccs	14, cr5, [r1], #-4
    41ec:	4c000000 	stcmi	0, cr0, [r0], {-0}
    41f0:	38000028 	stmdacc	r0, {r3, r5}
    41f4:	0e000028 	cdpeq	0, 0, cr0, cr0, cr8, {1}
    41f8:	00000199 	muleq	r0, r9, r1
    41fc:	0000043c 	andeq	r0, r0, ip, lsr r4
    4200:	ae380305 	cdpge	3, 3, cr0, cr8, cr5, {0}
    4204:	68180000 	ldmdavs	r8, {}	; <UNPREDICTABLE>
    4208:	0e660100 	poweqs	f0, f6, f0
    420c:	0000002c 	andeq	r0, r0, ip, lsr #32
    4210:	00002902 	andeq	r2, r0, r2, lsl #18
    4214:	000028f6 	strdeq	r2, [r0], -r6
    4218:	00085419 	andeq	r5, r8, r9, lsl r4
    421c:	00a14c00 	adceq	r4, r1, r0, lsl #24
    4220:	a14c0400 	cmpge	ip, r0, lsl #8
    4224:	00040000 	andeq	r0, r4, r0
    4228:	60010000 	andvs	r0, r1, r0
    422c:	00023805 	andeq	r3, r2, r5, lsl #16
    4230:	08651a00 	stmdaeq	r5!, {r9, fp, ip}^
    4234:	29560000 	ldmdbcs	r6, {}^	; <UNPREDICTABLE>
    4238:	29540000 	ldmdbcs	r4, {}^	; <UNPREDICTABLE>
    423c:	19000000 	stmdbne	r0, {}	; <UNPREDICTABLE>
    4240:	00000896 	muleq	r0, r6, r8
    4244:	0000a158 	andeq	sl, r0, r8, asr r1
    4248:	00a15802 	adceq	r5, r1, r2, lsl #16
    424c:	00000800 	andeq	r0, r0, r0, lsl #16
    4250:	11610100 	cmnne	r1, r0, lsl #2
    4254:	0000026c 	andeq	r0, r0, ip, ror #4
    4258:	0008b11a 	andeq	fp, r8, sl, lsl r1
    425c:	00296b00 	eoreq	r6, r9, r0, lsl #22
    4260:	00296900 	eoreq	r6, r9, r0, lsl #18
    4264:	08a71a00 	stmiaeq	r7!, {r9, fp, ip}
    4268:	29810000 	stmibcs	r1, {}	; <UNPREDICTABLE>
    426c:	297f0000 	ldmdbcs	pc!, {}^	; <UNPREDICTABLE>
    4270:	1b000000 	blne	4278 <__code_start__-0x3d88>
    4274:	0000081f 	andeq	r0, r0, pc, lsl r8
    4278:	0000a168 	andeq	sl, r0, r8, ror #2
    427c:	00047801 	andeq	r7, r4, r1, lsl #16
    4280:	09670100 	stmdbeq	r7!, {r8}^
    4284:	0000030a 	andeq	r0, r0, sl, lsl #6
    4288:	00083a1a 	andeq	r3, r8, sl, lsl sl
    428c:	00299a00 	eoreq	r9, r9, r0, lsl #20
    4290:	00299400 	eoreq	r9, r9, r0, lsl #8
    4294:	08301a00 	ldmdaeq	r0!, {r9, fp, ip}
    4298:	29e10000 	stmibcs	r1!, {}^	; <UNPREDICTABLE>
    429c:	29d90000 	ldmibcs	r9, {}^	; <UNPREDICTABLE>
    42a0:	781c0000 	ldmdavc	ip, {}	; <UNPREDICTABLE>
    42a4:	19000004 	stmdbne	r0, {r2}
    42a8:	00000854 	andeq	r0, r0, r4, asr r8
    42ac:	0000a168 	andeq	sl, r0, r8, ror #2
    42b0:	00a16804 	adceq	r6, r1, r4, lsl #16
    42b4:	00000400 	andeq	r0, r0, r0, lsl #8
    42b8:	05110100 	ldreq	r0, [r1, #-256]	; 0xffffff00
    42bc:	000002c7 	andeq	r0, r0, r7, asr #5
    42c0:	0008651a 	andeq	r6, r8, sl, lsl r5
    42c4:	002a1f00 	eoreq	r1, sl, r0, lsl #30
    42c8:	002a1d00 	eoreq	r1, sl, r0, lsl #26
    42cc:	000f0000 	andeq	r0, pc, r0
    42d0:	bc0000a2 	stclt	0, cr0, [r0], {162}	; 0xa2
    42d4:	ff000008 			; <UNDEFINED> instruction: 0xff000008
    42d8:	10000002 	andne	r0, r0, r2
    42dc:	03055001 	movweq	r5, #20481	; 0x5001
    42e0:	0000a6b8 			; <UNDEFINED> instruction: 0x0000a6b8
    42e4:	05510110 	ldrbeq	r0, [r1, #-272]	; 0xfffffef0
    42e8:	00ac6003 	adceq	r6, ip, r3
    42ec:	52011000 	andpl	r1, r1, #0, 0
    42f0:	ae480305 	cdpge	3, 4, cr0, cr8, cr5, {0}
    42f4:	01100000 	tsteq	r0, r0
    42f8:	10410153 	subne	r0, r1, r3, asr r1
    42fc:	05007d02 	streq	r7, [r0, #-3330]	; 0xfffff2fe
    4300:	00ad7403 	adceq	r7, sp, r3, lsl #8
    4304:	04110000 	ldreq	r0, [r1], #-0
    4308:	c80000a2 	stmdagt	r0, {r1, r5, r7}
    430c:	00000008 	andeq	r0, r0, r8
    4310:	08701900 	ldmdaeq	r0!, {r8, fp, ip}^
    4314:	a1800000 	orrge	r0, r0, r0
    4318:	80030000 	andhi	r0, r3, r0
    431c:	040000a1 	streq	r0, [r0], #-161	; 0xffffff5f
    4320:	01000000 	mrseq	r0, (UNDEF: 0)
    4324:	033e0568 	teqeq	lr, #104, 10	; 0x1a000000
    4328:	8b1a0000 	blhi	684330 <__bss_end__+0x679098>
    432c:	34000008 	strcc	r0, [r0], #-8
    4330:	3200002a 	andcc	r0, r0, #42, 0	; 0x2a
    4334:	1a00002a 	bne	43e4 <__code_start__-0x3c1c>
    4338:	00000881 	andeq	r0, r0, r1, lsl #17
    433c:	00002a49 	andeq	r2, r0, r9, asr #20
    4340:	00002a47 	andeq	r2, r0, r7, asr #20
    4344:	a1980f00 	orrsge	r0, r8, r0, lsl #30
    4348:	04410000 	strbeq	r0, [r1], #-0
    434c:	03530000 	cmpeq	r3, #0, 0
    4350:	01100000 	tsteq	r0, r0
    4354:	01f30350 	mvnseq	r0, r0, asr r3
    4358:	bc0f0050 	stclt	0, cr0, [pc], {80}	; 0x50
    435c:	bc0000a1 	stclt	0, cr0, [r0], {161}	; 0xa1
    4360:	8c000008 	stchi	0, cr0, [r0], {8}
    4364:	10000003 	andne	r0, r0, r3
    4368:	03055001 	movweq	r5, #20481	; 0x5001
    436c:	0000a6b8 			; <UNDEFINED> instruction: 0x0000a6b8
    4370:	05510110 	ldrbeq	r0, [r1, #-272]	; 0xfffffef0
    4374:	00ac6003 	adceq	r6, ip, r3
    4378:	52011000 	andpl	r1, r1, #0, 0
    437c:	ae380305 	cdpge	3, 3, cr0, cr8, cr5, {0}
    4380:	01100000 	tsteq	r0, r0
    4384:	5f080253 	svcpl	0x00080253
    4388:	007d0210 	rsbseq	r0, sp, r0, lsl r2
    438c:	ac700305 	ldclge	3, cr0, [r0], #-20	; 0xffffffec
    4390:	11000000 	mrsne	r0, (UNDEF: 0)
    4394:	0000a1c0 	andeq	sl, r0, r0, asr #3
    4398:	000008c8 	andeq	r0, r0, r8, asr #17
    439c:	00a1c411 	adceq	ip, r1, r1, lsl r4
    43a0:	0008d400 	andeq	sp, r8, r0, lsl #8
    43a4:	a1e00f00 	mvnge	r0, r0, lsl #30
    43a8:	08bc0000 	ldmeq	ip!, {}	; <UNPREDICTABLE>
    43ac:	03d70000 	bicseq	r0, r7, #0, 0
    43b0:	01100000 	tsteq	r0, r0
    43b4:	2c030550 	cfstr32cs	mvfx0, [r3], {80}	; 0x50
    43b8:	100000ad 	andne	r0, r0, sp, lsr #1
    43bc:	03055101 	movweq	r5, #20737	; 0x5101
    43c0:	0000ac60 	andeq	sl, r0, r0, ror #24
    43c4:	05520110 	ldrbeq	r0, [r2, #-272]	; 0xfffffef0
    43c8:	00ae3803 	adceq	r3, lr, r3, lsl #16
    43cc:	53011000 	movwpl	r1, #4096	; 0x1000
    43d0:	10600802 	rsbne	r0, r0, r2, lsl #16
    43d4:	05007d02 	streq	r7, [r0, #-3330]	; 0xfffff2fe
    43d8:	00ad6003 	adceq	r6, sp, r3
    43dc:	e4110000 	ldr	r0, [r1], #-0
    43e0:	c80000a1 	stmdagt	r0, {r0, r5, r7}
    43e4:	11000008 	tstne	r0, r8
    43e8:	0000a208 	andeq	sl, r0, r8, lsl #4
    43ec:	000008d4 	ldrdeq	r0, [r0], -r4
    43f0:	00a2240f 	adceq	r2, r2, pc, lsl #8
    43f4:	0008bc00 	andeq	fp, r8, r0, lsl #24
    43f8:	00042200 	andeq	r2, r4, r0, lsl #4
    43fc:	50011000 	andpl	r1, r1, r0
    4400:	ad800305 	stcge	3, cr0, [r0, #20]
    4404:	01100000 	tsteq	r0, r0
    4408:	60030551 	andvs	r0, r3, r1, asr r5
    440c:	100000ac 	andne	r0, r0, ip, lsr #1
    4410:	03055201 	movweq	r5, #20993	; 0x5201
    4414:	0000ae38 	andeq	sl, r0, r8, lsr lr
    4418:	02530110 	subseq	r0, r3, #4
    441c:	02106808 	andseq	r6, r0, #8, 16	; 0x80000
    4420:	0305007d 	movweq	r0, #20605	; 0x507d
    4424:	0000adac 	andeq	sl, r0, ip, lsr #27
    4428:	a2281100 	eorge	r1, r8, #0
    442c:	08c80000 	stmiaeq	r8, {}^	; <UNPREDICTABLE>
    4430:	12000000 	andne	r0, r0, #0, 0
    4434:	0000007e 	andeq	r0, r0, lr, ror r0
    4438:	0000043c 	andeq	r0, r0, ip, lsr r4
    443c:	00002c13 	andeq	r2, r0, r3, lsl ip
    4440:	05000f00 	streq	r0, [r0, #-3840]	; 0xfffff100
    4444:	0000042c 	andeq	r0, r0, ip, lsr #8
    4448:	00048b16 	andeq	r8, r4, r6, lsl fp
    444c:	07530100 	ldrbeq	r0, [r3, -r0, lsl #2]
    4450:	0000008a 	andeq	r0, r0, sl, lsl #1
    4454:	0000a0d8 	ldrdeq	sl, [r0], -r8
    4458:	00000064 	andeq	r0, r0, r4, rrx
    445c:	05089c01 	streq	r9, [r8, #-3073]	; 0xfffff3ff
    4460:	04170000 	ldreq	r0, [r7], #-0
    4464:	01000003 	tsteq	r0, r3
    4468:	002c1853 	eoreq	r1, ip, r3, asr r8
    446c:	2a640000 	bcs	1904474 <__bss_end__+0x18f91dc>
    4470:	2a5c0000 	bcs	1704478 <__bss_end__+0x16f91e0>
    4474:	990e0000 	stmdbls	lr, {}	; <UNPREDICTABLE>
    4478:	18000001 	stmdane	r0, {r0}
    447c:	05000005 	streq	r0, [r0, #-5]
    4480:	00ae3003 	adceq	r3, lr, r3
    4484:	05c71d00 	strbeq	r1, [r7, #3328]	; 0xd00
    4488:	55010000 	strpl	r0, [r1, #-0]
    448c:	00008a0b 	andeq	r8, r0, fp, lsl #20
    4490:	002a9c00 	eoreq	r9, sl, r0, lsl #24
    4494:	002a9800 	eoreq	r9, sl, r0, lsl #16
    4498:	a0f00f00 	rscsge	r0, r0, r0, lsl #30
    449c:	051d0000 	ldreq	r0, [sp, #-0]
    44a0:	04a60000 	strteq	r0, [r6], #0
    44a4:	01100000 	tsteq	r0, r0
    44a8:	00740250 	rsbseq	r0, r4, r0, asr r2
    44ac:	a1000f00 	tstge	r0, r0, lsl #30
    44b0:	08e00000 	stmiaeq	r0!, {}^	; <UNPREDICTABLE>
    44b4:	04c50000 	strbeq	r0, [r5], #0
    44b8:	01100000 	tsteq	r0, r0
    44bc:	00750250 	rsbseq	r0, r5, r0, asr r2
    44c0:	01510110 	cmpeq	r1, r0, lsl r1
    44c4:	52011030 	andpl	r1, r1, #48, 0	; 0x30
    44c8:	00007402 	andeq	r7, r0, r2, lsl #8
    44cc:	00a1280f 	adceq	r2, r1, pc, lsl #16
    44d0:	0008bc00 	andeq	fp, r8, r0, lsl #24
    44d4:	0004fe00 	andeq	pc, r4, r0, lsl #28
    44d8:	50011000 	andpl	r1, r1, r0
    44dc:	a6b80305 	ldrtge	r0, [r8], r5, lsl #6
    44e0:	01100000 	tsteq	r0, r0
    44e4:	60030551 	andvs	r0, r3, r1, asr r5
    44e8:	100000ac 	andne	r0, r0, ip, lsr #1
    44ec:	03055201 	movweq	r5, #20993	; 0x5201
    44f0:	0000ae30 	andeq	sl, r0, r0, lsr lr
    44f4:	02530110 	subseq	r0, r3, #4
    44f8:	02105408 	andseq	r5, r0, #8, 8	; 0x8000000
    44fc:	0305007d 	movweq	r0, #20605	; 0x507d
    4500:	0000ac70 	andeq	sl, r0, r0, ror ip
    4504:	a12c1100 			; <UNDEFINED> instruction: 0xa12c1100
    4508:	08c80000 	stmiaeq	r8, {}^	; <UNPREDICTABLE>
    450c:	12000000 	andne	r0, r0, #0, 0
    4510:	0000007e 	andeq	r0, r0, lr, ror r0
    4514:	00000518 	andeq	r0, r0, r8, lsl r5
    4518:	00002c13 	andeq	r2, r0, r3, lsl ip
    451c:	05000700 	streq	r0, [r0, #-1792]	; 0xfffff900
    4520:	00000508 	andeq	r0, r0, r8, lsl #10
    4524:	000b3816 	andeq	r3, fp, r6, lsl r8
    4528:	07470100 	strbeq	r0, [r7, -r0, lsl #2]
    452c:	0000008a 	andeq	r0, r0, sl, lsl #1
    4530:	0000a040 	andeq	sl, r0, r0, asr #32
    4534:	00000098 	muleq	r0, r8, r0
    4538:	062b9c01 	strteq	r9, [fp], -r1, lsl #24
    453c:	04170000 	ldreq	r0, [r7], #-0
    4540:	01000003 	tsteq	r0, r3
    4544:	002c2047 	eoreq	r2, ip, r7, asr #32
    4548:	2aca0000 	bcs	ff284550 <__bss_end__+0xff2792b8>
    454c:	2aba0000 	bcs	fee84554 <__bss_end__+0xfee792bc>
    4550:	990e0000 	stmdbls	lr, {}	; <UNPREDICTABLE>
    4554:	3c000001 	stccc	0, cr0, [r0], {1}
    4558:	05000004 	streq	r0, [r0, #-4]
    455c:	00ae2003 	adceq	r2, lr, r3
    4560:	05c71d00 	strbeq	r1, [r7, #3328]	; 0xd00
    4564:	4b010000 	blmi	4456c <__bss_end__+0x392d4>
    4568:	00008a0b 	andeq	r8, r0, fp, lsl #20
    456c:	002b3c00 	eoreq	r3, fp, r0, lsl #24
    4570:	002b3800 	eoreq	r3, fp, r0, lsl #16
    4574:	081f1b00 	ldmdaeq	pc, {r8, r9, fp, ip}	; <UNPREDICTABLE>
    4578:	a0500000 	subsge	r0, r0, r0
    457c:	60030000 	andvs	r0, r3, r0
    4580:	01000004 	tsteq	r0, r4
    4584:	05a30e49 	streq	r0, [r3, #3657]!	; 0xe49
    4588:	3a1a0000 	bcc	684590 <__bss_end__+0x6792f8>
    458c:	5c000008 	stcpl	0, cr0, [r0], {8}
    4590:	5a00002b 	bpl	4644 <__code_start__-0x39bc>
    4594:	1a00002b 	bne	4648 <__code_start__-0x39b8>
    4598:	00000830 	andeq	r0, r0, r0, lsr r8
    459c:	00002b74 	andeq	r2, r0, r4, ror fp
    45a0:	00002b70 	andeq	r2, r0, r0, ror fp
    45a4:	0004601e 	andeq	r6, r4, lr, lsl r0
    45a8:	980f0000 	stmdals	pc, {}	; <UNPREDICTABLE>
    45ac:	bc0000a0 	stclt	0, cr0, [r0], {160}	; 0xa0
    45b0:	dc000008 	stcle	0, cr0, [r0], {8}
    45b4:	10000005 	andne	r0, r0, r5
    45b8:	03055001 	movweq	r5, #20481	; 0x5001
    45bc:	0000a6b8 			; <UNDEFINED> instruction: 0x0000a6b8
    45c0:	05510110 	ldrbeq	r0, [r1, #-272]	; 0xfffffef0
    45c4:	00ac6003 	adceq	r6, ip, r3
    45c8:	52011000 	andpl	r1, r1, #0, 0
    45cc:	ae200305 	cdpge	3, 2, cr0, cr0, cr5, {0}
    45d0:	01100000 	tsteq	r0, r0
    45d4:	48080253 	stmdami	r8, {r0, r1, r4, r6, r9}
    45d8:	007d0210 	rsbseq	r0, sp, r0, lsl r2
    45dc:	ac700305 	ldclge	3, cr0, [r0], #-20	; 0xffffffec
    45e0:	11000000 	mrsne	r0, (UNDEF: 0)
    45e4:	0000a09c 	muleq	r0, ip, r0
    45e8:	000008c8 	andeq	r0, r0, r8, asr #17
    45ec:	00a0bc0f 	adceq	fp, r0, pc, lsl #24
    45f0:	0008bc00 	andeq	fp, r8, r0, lsl #24
    45f4:	00062100 	andeq	r2, r6, r0, lsl #2
    45f8:	50011000 	andpl	r1, r1, r0
    45fc:	acec0305 	stclge	3, cr0, [ip], #20
    4600:	01100000 	tsteq	r0, r0
    4604:	60030551 	andvs	r0, r3, r1, asr r5
    4608:	100000ac 	andne	r0, r0, ip, lsr #1
    460c:	03055201 	movweq	r5, #20993	; 0x5201
    4610:	0000ae20 	andeq	sl, r0, r0, lsr #28
    4614:	02530110 	subseq	r0, r3, #4
    4618:	02104e08 	andseq	r4, r0, #8, 28	; 0x80
    461c:	f308007d 	vqadd.u8	q0, q4, <illegal reg q14.5>
    4620:	07235001 	streq	r5, [r3, -r1]!
    4624:	001af809 	andseq	pc, sl, r9, lsl #16
    4628:	00a0c011 	adceq	ip, r0, r1, lsl r0
    462c:	0008c800 	andeq	ip, r8, r0, lsl #16
    4630:	5a0c0000 	bpl	304638 <__bss_end__+0x2f93a0>
    4634:	0100000b 	tsteq	r0, fp
    4638:	9fe8063c 	svcls	0x00e8063c
    463c:	00580000 	subseq	r0, r8, r0
    4640:	9c010000 	stcls	0, cr0, [r1], {-0}
    4644:	000006cf 	andeq	r0, r0, pc, asr #13
    4648:	0003ac0a 	andeq	sl, r3, sl, lsl #24
    464c:	103d0100 	eorsne	r0, sp, r0, lsl #2
    4650:	00000025 	andeq	r0, r0, r5, lsr #32
    4654:	b2940305 	addslt	r0, r4, #335544320	; 0x14000000
    4658:	990e0000 	stmdbls	lr, {}	; <UNPREDICTABLE>
    465c:	df000001 	svcle	0x00000001
    4660:	05000006 	streq	r0, [r0, #-6]
    4664:	00ae1003 	adceq	r1, lr, r3
    4668:	04070700 	streq	r0, [r7], #-1792	; 0xfffff900
    466c:	0000002c 	andeq	r0, r0, ip, lsr #32
    4670:	7a0a4201 	bvc	294e7c <__bss_end__+0x289be4>
    4674:	08000006 	stmdaeq	r0, {r1, r2}
    4678:	00000b21 	andeq	r0, r0, r1, lsr #22
    467c:	00100000 	andseq	r0, r0, r0
    4680:	a0140f00 	andsge	r0, r4, r0, lsl #30
    4684:	06e40000 	strbteq	r0, [r4], r0
    4688:	06960000 	ldreq	r0, [r6], r0
    468c:	01100000 	tsteq	r0, r0
    4690:	40400350 	submi	r0, r0, r0, asr r3
    4694:	51011024 	tstpl	r1, r4, lsr #32
    4698:	24484003 	strbcs	r4, [r8], #-3
    469c:	a02c0f00 	eorge	r0, ip, r0, lsl #30
    46a0:	08bc0000 	ldmeq	ip!, {}	; <UNPREDICTABLE>
    46a4:	06c50000 	strbeq	r0, [r5], r0
    46a8:	01100000 	tsteq	r0, r0
    46ac:	bc030550 	cfstr32lt	mvfx0, [r3], {80}	; 0x50
    46b0:	100000ac 	andne	r0, r0, ip, lsr #1
    46b4:	03055101 	movweq	r5, #20737	; 0x5101
    46b8:	0000ac60 	andeq	sl, r0, r0, ror #24
    46bc:	05520110 	ldrbeq	r0, [r2, #-272]	; 0xfffffef0
    46c0:	00ae1003 	adceq	r1, lr, r3
    46c4:	53011000 	movwpl	r1, #4096	; 0x1000
    46c8:	00400802 	subeq	r0, r0, r2, lsl #16
    46cc:	00a03011 	adceq	r3, r0, r1, lsl r0
    46d0:	0008c800 	andeq	ip, r8, r0, lsl #16
    46d4:	7e120000 	cdpvc	0, 1, cr0, cr2, cr0, {0}
    46d8:	df000000 	svcle	0x00000000
    46dc:	13000006 	movwne	r0, #6
    46e0:	0000002c 	andeq	r0, r0, ip, lsr #32
    46e4:	cf05000c 	svcgt	0x0005000c
    46e8:	0c000006 	stceq	0, cr0, [r0], {6}
    46ec:	00000493 	muleq	r0, r3, r4
    46f0:	4c062d01 	stcmi	13, cr2, [r6], {1}
    46f4:	9c00009f 	stcls	0, cr0, [r0], {159}	; 0x9f
    46f8:	01000000 	mrseq	r0, (UNDEF: 0)
    46fc:	0007c89c 	muleq	r7, ip, r8
    4700:	05c61700 	strbeq	r1, [r6, #1792]	; 0x700
    4704:	2d010000 	stccs	0, cr0, [r1, #-0]
    4708:	00002c26 	andeq	r2, r0, r6, lsr #24
    470c:	002ba200 	eoreq	sl, fp, r0, lsl #4
    4710:	002b9400 	eoreq	r9, fp, r0, lsl #8
    4714:	0adf1700 	beq	ff7ca31c <__bss_end__+0xff7bf084>
    4718:	2d010000 	stccs	0, cr0, [r1, #-0]
    471c:	00002c36 	andeq	r2, r0, r6, lsr ip
    4720:	002c0a00 	eoreq	r0, ip, r0, lsl #20
    4724:	002c0200 	eoreq	r0, ip, r0, lsl #4
    4728:	05c71d00 	strbeq	r1, [r7, #3328]	; 0xd00
    472c:	2e010000 	cdpcs	0, 0, cr0, cr1, cr0, {0}
    4730:	0000c20b 	andeq	ip, r0, fp, lsl #4
    4734:	002c5200 	eoreq	r5, ip, r0, lsl #4
    4738:	002c4400 	eoreq	r4, ip, r0, lsl #8
    473c:	01990e00 	orrseq	r0, r9, r0, lsl #28
    4740:	07d80000 	ldrbeq	r0, [r8, r0]
    4744:	03050000 	movweq	r0, #20480	; 0x5000
    4748:	0000adf8 	strdeq	sl, [r0], -r8
    474c:	009fa40f 	addseq	sl, pc, pc, lsl #8
    4750:	0008bc00 	andeq	fp, r8, r0, lsl #24
    4754:	00077e00 	andeq	r7, r7, r0, lsl #28
    4758:	50011000 	andpl	r1, r1, r0
    475c:	a6b80305 	ldrtge	r0, [r8], r5, lsl #6
    4760:	01100000 	tsteq	r0, r0
    4764:	60030551 	andvs	r0, r3, r1, asr r5
    4768:	100000ac 	andne	r0, r0, ip, lsr #1
    476c:	03055201 	movweq	r5, #20993	; 0x5201
    4770:	0000adf8 	strdeq	sl, [r0], -r8
    4774:	02530110 	subseq	r0, r3, #4
    4778:	02103008 	andseq	r3, r0, #8, 0
    477c:	0305007d 	movweq	r0, #20605	; 0x507d
    4780:	0000ac6c 	andeq	sl, r0, ip, ror #24
    4784:	9fa81100 	svcls	0x00a81100
    4788:	08c80000 	stmiaeq	r8, {}^	; <UNPREDICTABLE>
    478c:	cc0f0000 	stcgt	0, cr0, [pc], {-0}
    4790:	bc00009f 	stclt	0, cr0, [r0], {159}	; 0x9f
    4794:	be000008 	cdplt	0, 0, cr0, cr0, cr8, {0}
    4798:	10000007 	andne	r0, r0, r7
    479c:	03055001 	movweq	r5, #20481	; 0x5001
    47a0:	0000ac78 	andeq	sl, r0, r8, ror ip
    47a4:	05510110 	ldrbeq	r0, [r1, #-272]	; 0xfffffef0
    47a8:	00ac6003 	adceq	r6, ip, r3
    47ac:	52011000 	andpl	r1, r1, #0, 0
    47b0:	adf80305 	ldclge	3, cr0, [r8, #20]!
    47b4:	01100000 	tsteq	r0, r0
    47b8:	34080253 	strcc	r0, [r8], #-595	; 0xfffffdad
    47bc:	007d0210 	rsbseq	r0, sp, r0, lsl r2
    47c0:	5001f303 	andpl	pc, r1, r3, lsl #6
    47c4:	9fd01100 	svcls	0x00d01100
    47c8:	08c80000 	stmiaeq	r8, {}^	; <UNPREDICTABLE>
    47cc:	12000000 	andne	r0, r0, #0, 0
    47d0:	0000007e 	andeq	r0, r0, lr, ror r0
    47d4:	000007d8 	ldrdeq	r0, [r0], -r8
    47d8:	00002c13 	andeq	r2, r0, r3, lsl ip
    47dc:	05001600 	streq	r1, [r0, #-1536]	; 0xfffffa00
    47e0:	000007c8 	andeq	r0, r0, r8, asr #15
    47e4:	000b721f 	andeq	r7, fp, pc, lsl r2
    47e8:	072a0100 	streq	r0, [sl, -r0, lsl #2]!
    47ec:	0000008a 	andeq	r0, r0, sl, lsl #1
    47f0:	00009f3c 	andeq	r9, r0, ip, lsr pc
    47f4:	00000010 	andeq	r0, r0, r0, lsl r0
    47f8:	cc1f9c01 	ldcgt	12, cr9, [pc], {1}
    47fc:	0100000a 	tsteq	r0, sl
    4800:	008a0729 	addeq	r0, sl, r9, lsr #14
    4804:	9f2c0000 	svcls	0x002c0000
    4808:	00100000 	andseq	r0, r0, r0
    480c:	9c010000 	stcls	0, cr0, [r1], {-0}
    4810:	000b271f 	andeq	r2, fp, pc, lsl r7
    4814:	07280100 	streq	r0, [r8, -r0, lsl #2]!
    4818:	0000008a 	andeq	r0, r0, sl, lsl #1
    481c:	00009f1c 	andeq	r9, r0, ip, lsl pc
    4820:	00000010 	andeq	r0, r0, r0, lsl r0
    4824:	fd209c01 	stc2	12, cr9, [r0, #-4]!
    4828:	0100000a 	tsteq	r0, sl
    482c:	002c1810 	eoreq	r1, ip, r0, lsl r8
    4830:	54030000 	strpl	r0, [r3], #-0
    4834:	21000008 	tstcs	r0, r8
    4838:	10010078 	andne	r0, r1, r8, ror r0
    483c:	00002c29 	andeq	r2, r0, r9, lsr #24
    4840:	006e2100 	rsbeq	r2, lr, r0, lsl #2
    4844:	2c351001 	ldccs	0, cr1, [r5], #-4
    4848:	0e000000 	cdpeq	0, 0, cr0, cr0, cr0, {0}
    484c:	00000199 	muleq	r0, r9, r1
    4850:	00000518 	andeq	r0, r0, r8, lsl r5
    4854:	ae480305 	cdpge	3, 4, cr0, cr8, cr5, {0}
    4858:	20000000 	andcs	r0, r0, r0
    485c:	00000b48 	andeq	r0, r0, r8, asr #22
    4860:	2c180d01 	ldccs	13, cr0, [r8], {1}
    4864:	03000000 	movweq	r0, #0
    4868:	00000870 	andeq	r0, r0, r0, ror r8
    486c:	01007821 	tsteq	r0, r1, lsr #16
    4870:	002c290d 	eoreq	r2, ip, sp, lsl #18
    4874:	20000000 	andcs	r0, r0, r0
    4878:	00000b67 	andeq	r0, r0, r7, ror #22
    487c:	2c180701 	ldccs	7, cr0, [r8], {1}
    4880:	03000000 	movweq	r0, #0
    4884:	00000896 	muleq	r0, r6, r8
    4888:	01007821 	tsteq	r0, r1, lsr #16
    488c:	002c2c07 	eoreq	r2, ip, r7, lsl #24
    4890:	6e210000 	cdpvs	0, 2, cr0, cr1, cr0, {0}
    4894:	38070100 	stmdacc	r7, {r8}
    4898:	0000002c 	andeq	r0, r0, ip, lsr #32
    489c:	0b192000 	bleq	64c8a4 <__bss_end__+0x64160c>
    48a0:	04010000 	streq	r0, [r1], #-0
    48a4:	00005d18 	andeq	r5, r0, r8, lsl sp
    48a8:	08bc0300 	ldmeq	ip!, {r8, r9}
    48ac:	78210000 	stmdavc	r1!, {}	; <UNPREDICTABLE>
    48b0:	29040100 	stmdbcs	r4, {r8}
    48b4:	0000005d 	andeq	r0, r0, sp, asr r0
    48b8:	01007921 	tsteq	r0, r1, lsr #18
    48bc:	005d3504 	subseq	r3, sp, r4, lsl #10
    48c0:	22000000 	andcs	r0, r0, #0, 0
    48c4:	0000062e 	andeq	r0, r0, lr, lsr #12
    48c8:	0000062e 	andeq	r0, r0, lr, lsr #12
    48cc:	22062802 	andcs	r2, r6, #131072	; 0x20000
    48d0:	00000045 	andeq	r0, r0, r5, asr #32
    48d4:	00000045 	andeq	r0, r0, r5, asr #32
    48d8:	22066e02 	andcs	r6, r6, #2, 28
    48dc:	00000b83 	andeq	r0, r0, r3, lsl #23
    48e0:	00000b83 	andeq	r0, r0, r3, lsl #23
    48e4:	22061d02 	andcs	r1, r6, #128	; 0x80
    48e8:	000001f2 	strdeq	r0, [r0], -r2
    48ec:	000001f2 	strdeq	r0, [r0], -r2
    48f0:	0007f202 	andeq	pc, r7, r2, lsl #4
    48f4:	00000673 	andeq	r0, r0, r3, ror r6
    48f8:	18810004 	stmne	r1, {r2}
    48fc:	01040000 	mrseq	r0, (UNDEF: 4)
    4900:	00000506 	andeq	r0, r0, r6, lsl #10
    4904:	000bd50c 	andeq	sp, fp, ip, lsl #10
    4908:	0005cc00 	andeq	ip, r5, r0, lsl #24
    490c:	00a2cc00 	adceq	ip, r2, r0, lsl #24
    4910:	00019800 	andeq	r9, r1, r0, lsl #16
    4914:	00249200 	eoreq	r9, r4, r0, lsl #4
    4918:	07080200 	streq	r0, [r8, -r0, lsl #4]
    491c:	000001a6 	andeq	r0, r0, r6, lsr #3
    4920:	b0070402 	andlt	r0, r7, r2, lsl #8
    4924:	03000001 	movweq	r0, #1
    4928:	6e690504 	cdpvs	5, 6, cr0, cr9, cr4, {0}
    492c:	2c040074 	stccs	0, cr0, [r4], {116}	; 0x74
    4930:	02000000 	andeq	r0, r0, #0, 0
    4934:	01540601 	cmpeq	r4, r1, lsl #12
    4938:	02020000 	andeq	r0, r2, #0, 0
    493c:	0001de05 	andeq	sp, r1, r5, lsl #28
    4940:	05040200 	streq	r0, [r4, #-512]	; 0xfffffe00
    4944:	000001c2 	andeq	r0, r0, r2, asr #3
    4948:	bd050802 	stclt	8, cr0, [r5, #-8]
    494c:	02000001 	andeq	r0, r0, #1, 0
    4950:	01520801 	cmpeq	r2, r1, lsl #16
    4954:	02020000 	andeq	r0, r2, #0, 0
    4958:	00005207 	andeq	r5, r0, r7, lsl #4
    495c:	02920500 	addseq	r0, r2, #0, 10
    4960:	34030000 	strcc	r0, [r3], #-0
    4964:	00007519 	andeq	r7, r0, r9, lsl r5
    4968:	07040200 	streq	r0, [r4, -r0, lsl #4]
    496c:	000001ab 	andeq	r0, r0, fp, lsr #3
    4970:	00003306 	andeq	r3, r0, r6, lsl #6
    4974:	00008b00 	andeq	r8, r0, r0, lsl #22
    4978:	00330700 	eorseq	r0, r3, r0, lsl #14
    497c:	08000000 	stmdaeq	r0, {}	; <UNPREDICTABLE>
    4980:	000001cb 	andeq	r0, r0, fp, asr #3
    4984:	970e1c02 	strls	r1, [lr, -r2, lsl #24]
    4988:	09000000 	stmdbeq	r0, {}	; <UNPREDICTABLE>
    498c:	00007c04 	andeq	r7, r0, r4, lsl #24
    4990:	00330600 	eorseq	r0, r3, r0, lsl #12
    4994:	00ac0000 	adceq	r0, ip, r0
    4998:	ac070000 	stcge	0, cr0, [r7], {-0}
    499c:	00000000 	andeq	r0, r0, r0
    49a0:	00b90409 	adcseq	r0, r9, r9, lsl #8
    49a4:	01020000 	mrseq	r0, (UNDEF: 2)
    49a8:	00015b08 	andeq	r5, r1, r8, lsl #22
    49ac:	00b20400 	adcseq	r0, r2, r0, lsl #8
    49b0:	6c080000 	stcvs	0, cr0, [r8], {-0}
    49b4:	02000006 	andeq	r0, r0, #6, 0
    49b8:	00ca0e21 	sbceq	r0, sl, r1, lsr #28
    49bc:	04090000 	streq	r0, [r9], #-0
    49c0:	0000009d 	muleq	r0, sp, r0
    49c4:	5b01070a 	blpl	465f4 <__bss_end__+0x3b35c>
    49c8:	04000000 	streq	r0, [r0], #-0
    49cc:	010f0e0c 	tsteq	pc, ip, lsl #28
    49d0:	a40b0000 	strge	r0, [fp], #-0
    49d4:	0000000a 	andeq	r0, r0, sl
    49d8:	0008dc0b 	andeq	sp, r8, fp, lsl #24
    49dc:	1f0b0100 	svcne	0x000b0100
    49e0:	04000009 	streq	r0, [r0], #-9
    49e4:	00092e0b 	andeq	r2, r9, fp, lsl #28
    49e8:	3d0b0500 	cfstr32cc	mvfx0, [fp, #-0]
    49ec:	06000009 	streq	r0, [r0], -r9
    49f0:	00094c0b 	andeq	r4, r9, fp, lsl #24
    49f4:	6d0b0700 	stcvs	7, cr0, [fp, #-0]
    49f8:	0300000a 	movweq	r0, #10
    49fc:	00095b0b 	andeq	r5, r9, fp, lsl #22
    4a00:	05000200 	streq	r0, [r0, #-512]	; 0xfffffe00
    4a04:	00000c0e 	andeq	r0, r0, lr, lsl #24
    4a08:	d0031504 	andle	r1, r3, r4, lsl #10
    4a0c:	0c000000 	stceq	0, cr0, [r0], {-0}
    4a10:	00000bac 	andeq	r0, r0, ip, lsr #23
    4a14:	3a171d01 	bcc	5cbe20 <__bss_end__+0x5c0b88>
    4a18:	1c000000 	stcne	0, cr0, [r0], {-0}
    4a1c:	0c202000 	stceq	0, cr2, [r0], #-0
    4a20:	00000ba2 	andeq	r0, r0, r2, lsr #23
    4a24:	3a171e01 	bcc	5cc230 <__bss_end__+0x5c0f98>
    4a28:	28000000 	stmdacs	r0, {}	; <UNPREDICTABLE>
    4a2c:	0c202000 	stceq	0, cr2, [r0], #-0
    4a30:	00000c1a 	andeq	r0, r0, sl, lsl ip
    4a34:	3a171f01 	bcc	5cc640 <__bss_end__+0x5c13a8>
    4a38:	34000000 	strcc	r0, [r0], #-0
    4a3c:	0d202000 	stceq	0, cr2, [r0, #-0]
    4a40:	00000bcb 	andeq	r0, r0, fp, asr #23
    4a44:	33055101 	movwcc	r5, #20737	; 0x5101
    4a48:	3c000000 	stccc	0, cr0, [r0], {-0}
    4a4c:	280000a4 	stmdacs	r0, {r2, r5, r7}
    4a50:	01000000 	mrseq	r0, (UNDEF: 0)
    4a54:	0001ba9c 	muleq	r1, ip, sl
    4a58:	69700e00 	ldmdbvs	r0!, {r9, sl, fp}^
    4a5c:	5101006e 	tstpl	r1, lr, rrx
    4a60:	00002c18 	andeq	r2, r0, r8, lsl ip
    4a64:	002cb800 	eoreq	fp, ip, r0, lsl #16
    4a68:	002cb200 	eoreq	fp, ip, r0, lsl #4
    4a6c:	0c240f00 	stceq	15, cr0, [r4], #-0
    4a70:	52010000 	andpl	r0, r1, #0, 0
    4a74:	00002c0e 	andeq	r2, r0, lr, lsl #24
    4a78:	002cee00 	eoreq	lr, ip, r0, lsl #28
    4a7c:	002ce400 	eoreq	lr, ip, r0, lsl #8
    4a80:	666f1000 	strbtvs	r1, [pc], -r0
    4a84:	53010066 	movwpl	r0, #4198	; 0x1066
    4a88:	00002c0e 	andeq	r2, r0, lr, lsl #24
    4a8c:	002d5c00 	eoreq	r5, sp, r0, lsl #24
    4a90:	002d5600 	eoreq	r5, sp, r0, lsl #12
    4a94:	a4501100 	ldrbge	r1, [r0], #-256	; 0xffffff00
    4a98:	065e0000 	ldrbeq	r0, [lr], -r0
    4a9c:	01120000 	tsteq	r2, r0
    4aa0:	00740a50 	rsbseq	r0, r4, r0, asr sl
    4aa4:	b4232535 	strtlt	r2, [r3], #-1333	; 0xfffffacb
    4aa8:	02818080 	addeq	r8, r1, #128, 0	; 0x80
    4aac:	b6130000 	ldrlt	r0, [r3], -r0
    4ab0:	0100000b 	tsteq	r0, fp
    4ab4:	a40c064a 	strge	r0, [ip], #-1610	; 0xfffff9b6
    4ab8:	00300000 	eorseq	r0, r0, r0
    4abc:	9c010000 	stcls	0, cr0, [r1], {-0}
    4ac0:	00000275 	andeq	r0, r0, r5, ror r2
    4ac4:	6e69700e 	cdpvs	0, 6, cr7, cr9, cr14, {0}
    4ac8:	1a4a0100 	bne	1284ed0 <__bss_end__+0x1279c38>
    4acc:	0000002c 	andeq	r0, r0, ip, lsr #32
    4ad0:	00002d99 	muleq	r0, r9, sp
    4ad4:	00002d8d 	andeq	r2, r0, sp, lsl #27
    4ad8:	0100760e 	tsteq	r0, lr, lsl #12
    4adc:	002c284a 	eoreq	r2, ip, sl, asr #16
    4ae0:	2ded0000 	stclcs	0, cr0, [sp]
    4ae4:	2de90000 	stclcs	0, cr0, [r9]
    4ae8:	8d140000 	ldchi	0, cr0, [r4, #-0]
    4aec:	1c000003 	stcne	0, cr0, [r0], {3}
    4af0:	010000a4 	smlatbeq	r0, r4, r0, r0
    4af4:	00000530 	andeq	r0, r0, r0, lsr r5
    4af8:	35094c01 	strcc	r4, [r9, #-3073]	; 0xfffff3ff
    4afc:	15000002 	strne	r0, [r0, #-2]
    4b00:	0000039a 	muleq	r0, sl, r3
    4b04:	00002e14 	andeq	r2, r0, r4, lsl lr
    4b08:	00002e0e 	andeq	r2, r0, lr, lsl #28
    4b0c:	00a42816 	adceq	r2, r4, r6, lsl r8
    4b10:	00066a00 	andeq	r6, r6, r0, lsl #20
    4b14:	50011200 	andpl	r1, r1, r0, lsl #4
    4b18:	001c0c05 	andseq	r0, ip, r5, lsl #24
    4b1c:	01122020 	tsteq	r2, r0, lsr #32
    4b20:	f3310551 	vqrshl.u64	q0, <illegal reg q0.5>, <illegal reg q0.5>
    4b24:	00245001 	eoreq	r5, r4, r1
    4b28:	03731700 	cmneq	r3, #0, 14
    4b2c:	a4280000 	strtge	r0, [r8], #-0
    4b30:	28020000 	stmdacs	r2, {}	; <UNPREDICTABLE>
    4b34:	140000a4 	strne	r0, [r0], #-164	; 0xffffff5c
    4b38:	01000000 	mrseq	r0, (UNDEF: 0)
    4b3c:	8015094e 	andshi	r0, r5, lr, asr #18
    4b40:	46000003 	strmi	r0, [r0], -r3
    4b44:	4000002e 	andmi	r0, r0, lr, lsr #32
    4b48:	1600002e 	strne	r0, [r0], -lr, lsr #32
    4b4c:	0000a434 	andeq	sl, r0, r4, lsr r4
    4b50:	0000066a 	andeq	r0, r0, sl, ror #12
    4b54:	05500112 	ldrbeq	r0, [r0, #-274]	; 0xfffffeee
    4b58:	2000280c 	andcs	r2, r0, ip, lsl #16
    4b5c:	51011220 	tstpl	r1, r0, lsr #4
    4b60:	01f33105 	mvnseq	r3, r5, lsl #2
    4b64:	00002450 	andeq	r2, r0, r0, asr r4
    4b68:	0be21300 	bleq	ff889770 <__bss_end__+0xff87e4d8>
    4b6c:	45010000 	strmi	r0, [r1, #-0]
    4b70:	00a3b406 	adceq	fp, r3, r6, lsl #8
    4b74:	00005800 	andeq	r5, r0, r0, lsl #16
    4b78:	739c0100 	orrsvc	r0, ip, #0
    4b7c:	0e000003 	cdpeq	0, 0, cr0, cr0, cr3, {0}
    4b80:	006e6970 	rsbeq	r6, lr, r0, ror r9
    4b84:	2c1e4501 	cfldr32cs	mvfx4, [lr], {1}
    4b88:	78000000 	stmdavc	r0, {}	; <UNPREDICTABLE>
    4b8c:	7200002e 	andvc	r0, r0, #46, 0	; 0x2e
    4b90:	1800002e 	stmdane	r0, {r1, r2, r3, r5}
    4b94:	000004a5 	andeq	r0, r0, r5, lsr #9
    4b98:	0000a3b4 			; <UNDEFINED> instruction: 0x0000a3b4
    4b9c:	0004f002 	andeq	pc, r4, r2
    4ba0:	05460100 	strbeq	r0, [r6, #-256]	; 0xffffff00
    4ba4:	0004be19 	andeq	fp, r4, r9, lsl lr
    4ba8:	b2150000 	andslt	r0, r5, #0, 0
    4bac:	aa000004 	bge	4bc4 <__code_start__-0x343c>
    4bb0:	a400002e 	strge	r0, [r0], #-46	; 0xffffffd2
    4bb4:	1a00002e 	bne	4c74 <__code_start__-0x338c>
    4bb8:	000004f0 	strdeq	r0, [r0], -r0	; <UNPREDICTABLE>
    4bbc:	0004ca1b 	andeq	ip, r4, fp, lsl sl
    4bc0:	04d61b00 	ldrbeq	r1, [r6], #2816	; 0xb00
    4bc4:	e01b0000 	ands	r0, fp, r0
    4bc8:	18000004 	stmdane	r0, {r2}
    4bcc:	000004a5 	andeq	r0, r0, r5, lsr #9
    4bd0:	0000a3bc 			; <UNDEFINED> instruction: 0x0000a3bc
    4bd4:	00051000 	andeq	r1, r5, r0
    4bd8:	06280100 	strteq	r0, [r8], -r0, lsl #2
    4bdc:	0004be19 	andeq	fp, r4, r9, lsl lr
    4be0:	b2150000 	andslt	r0, r5, #0, 0
    4be4:	dc000004 	stcle	0, cr0, [r0], {4}
    4be8:	d600002e 	strle	r0, [r0], -lr, lsr #32
    4bec:	1a00002e 	bne	4cac <__code_start__-0x3354>
    4bf0:	00000510 	andeq	r0, r0, r0, lsl r5
    4bf4:	0004ca1c 	andeq	ip, r4, ip, lsl sl
    4bf8:	002f0e00 	eoreq	r0, pc, r0, lsl #28
    4bfc:	002f0800 	eoreq	r0, pc, r0, lsl #16
    4c00:	04d61c00 	ldrbeq	r1, [r6], #3072	; 0xc00
    4c04:	2f500000 	svccs	0x00500000
    4c08:	2f4a0000 	svccs	0x004a0000
    4c0c:	e01c0000 	ands	r0, ip, r0
    4c10:	a6000004 	strge	r0, [r0], -r4
    4c14:	9e00002f 	cdpls	0, 0, cr0, cr0, cr15, {1}
    4c18:	1d00002f 	stcne	0, cr0, [r0, #-188]	; 0xffffff44
    4c1c:	0000a3e4 	andeq	sl, r0, r4, ror #7
    4c20:	0000065e 	andeq	r0, r0, lr, asr r6
    4c24:	0000033b 	andeq	r0, r0, fp, lsr r3
    4c28:	02500112 	subseq	r0, r0, #-2147483644	; 0x80000004
    4c2c:	16000076 			; <UNDEFINED> instruction: 0x16000076
    4c30:	0000a408 	andeq	sl, r0, r8, lsl #8
    4c34:	0000066a 	andeq	r0, r0, sl, ror #12
    4c38:	25500112 	ldrbcs	r0, [r0, #-274]	; 0xfffffeee
    4c3c:	f75001f3 			; <UNDEFINED> instruction: 0xf75001f3
    4c40:	f425f72c 	vld1.8	{d15}, [r5 :128], ip
    4c44:	cccd0825 	stclgt	8, cr0, [sp], {37}	; 0x25
    4c48:	0000cccc 	andeq	ip, r0, ip, asr #25
    4c4c:	081e0000 	ldmdaeq	lr, {}	; <UNPREDICTABLE>
    4c50:	2525f720 	strcs	pc, [r5, #-1824]!	; 0xfffff8e0
    4c54:	00f72cf7 	ldrshteq	r2, [r7], #199	; 0xc7
    4c58:	80232533 	eorhi	r2, r3, r3, lsr r5
    4c5c:	3240a080 	subcc	sl, r0, #128, 0	; 0x80
    4c60:	00000024 	andeq	r0, r0, r4, lsr #32
    4c64:	1e000000 	cdpne	0, 0, cr0, cr0, cr0, {0}
    4c68:	00000bf1 	strdeq	r0, [r0], -r1
    4c6c:	030d4001 	movweq	r4, #53249	; 0xd001
    4c70:	0000038d 	andeq	r0, r0, sp, lsl #7
    4c74:	6e69701f 	mcrvs	0, 3, r7, cr9, cr15, {0}
    4c78:	23400100 	movtcs	r0, #256	; 0x100
    4c7c:	0000002c 	andeq	r0, r0, ip, lsr #32
    4c80:	0c291e00 	stceq	14, cr1, [r9], #-0
    4c84:	3b010000 	blcc	44c8c <__bss_end__+0x399f4>
    4c88:	03a7030d 			; <UNDEFINED> instruction: 0x03a7030d
    4c8c:	701f0000 	andsvc	r0, pc, r0
    4c90:	01006e69 	tsteq	r0, r9, ror #28
    4c94:	002c223b 	eoreq	r2, ip, fp, lsr r2
    4c98:	13000000 	movwne	r0, #0
    4c9c:	00000bfe 	strdeq	r0, [r0], -lr
    4ca0:	2c063601 	stccs	6, cr3, [r6], {1}
    4ca4:	580000a3 	stmdapl	r0, {r0, r1, r5, r7}
    4ca8:	01000000 	mrseq	r0, (UNDEF: 0)
    4cac:	0004a59c 	muleq	r4, ip, r5
    4cb0:	69700e00 	ldmdbvs	r0!, {r9, sl, fp}^
    4cb4:	3601006e 	strcc	r0, [r1], -lr, rrx
    4cb8:	00002c1f 	andeq	r2, r0, pc, lsl ip
    4cbc:	00300400 	eorseq	r0, r0, r0, lsl #8
    4cc0:	00300000 	eorseq	r0, r0, r0
    4cc4:	04a51800 	strteq	r1, [r5], #2048	; 0x800
    4cc8:	a32c0000 			; <UNDEFINED> instruction: 0xa32c0000
    4ccc:	b0020000 	andlt	r0, r2, r0
    4cd0:	01000004 	tsteq	r0, r4
    4cd4:	be190537 	mrclt	5, 0, r0, cr9, cr7, {1}
    4cd8:	01000004 	tsteq	r0, r4
    4cdc:	0004b215 	andeq	fp, r4, r5, lsl r2
    4ce0:	00302900 	eorseq	r2, r0, r0, lsl #18
    4ce4:	00302500 	eorseq	r2, r0, r0, lsl #10
    4ce8:	04b01a00 	ldrteq	r1, [r0], #2560	; 0xa00
    4cec:	ca1b0000 	bgt	6c4cf4 <__bss_end__+0x6b9a5c>
    4cf0:	1b000004 	blne	4d08 <__code_start__-0x32f8>
    4cf4:	000004d6 	ldrdeq	r0, [r0], -r6
    4cf8:	0004e01b 	andeq	lr, r4, fp, lsl r0
    4cfc:	04a51800 	strteq	r1, [r5], #2048	; 0x800
    4d00:	a3340000 	teqge	r4, #0, 0
    4d04:	d0000000 	andle	r0, r0, r0
    4d08:	01000004 	tsteq	r0, r4
    4d0c:	be190628 	cfmsub32lt	mvax1, mvfx0, mvfx9, mvfx8
    4d10:	01000004 	tsteq	r0, r4
    4d14:	0004b215 	andeq	fp, r4, r5, lsl r2
    4d18:	00304e00 	eorseq	r4, r0, r0, lsl #28
    4d1c:	00304a00 	eorseq	r4, r0, r0, lsl #20
    4d20:	04d01a00 	ldrbeq	r1, [r0], #2560	; 0xa00
    4d24:	ca1c0000 	bgt	704d2c <__bss_end__+0x6f9a94>
    4d28:	73000004 	movwvc	r0, #4
    4d2c:	6f000030 	svcvs	0x00000030
    4d30:	1c000030 	stcne	0, cr0, [r0], {48}	; 0x30
    4d34:	000004d6 	ldrdeq	r0, [r0], -r6
    4d38:	000030bf 	strheq	r3, [r0], -pc	; <UNPREDICTABLE>
    4d3c:	000030b9 	strheq	r3, [r0], -r9
    4d40:	0004e01c 	andeq	lr, r4, ip, lsl r0
    4d44:	00311500 	eorseq	r1, r1, r0, lsl #10
    4d48:	00310d00 	eorseq	r0, r1, r0, lsl #26
    4d4c:	a3601d00 	cmnge	r0, #0, 26
    4d50:	065e0000 	ldrbeq	r0, [lr], -r0
    4d54:	046d0000 	strbteq	r0, [sp], #-0
    4d58:	01120000 	tsteq	r2, r0
    4d5c:	00750250 	rsbseq	r0, r5, r0, asr r2
    4d60:	a3801600 	orrge	r1, r0, #0, 12
    4d64:	066a0000 	strbteq	r0, [sl], -r0
    4d68:	01120000 	tsteq	r2, r0
    4d6c:	01f32550 	mvnseq	r2, r0, asr r5
    4d70:	f72cf750 			; <UNDEFINED> instruction: 0xf72cf750
    4d74:	0825f425 	stmdaeq	r5!, {r0, r2, r5, sl, ip, sp, lr, pc}
    4d78:	cccccccd 	stclgt	12, cr12, [ip], {205}	; 0xcd
    4d7c:	00000000 	andeq	r0, r0, r0
    4d80:	f720081e 			; <UNDEFINED> instruction: 0xf720081e
    4d84:	2cf72525 	cfldr64cs	mvdx2, [r7], #148	; 0x94
    4d88:	253300f7 	ldrcs	r0, [r3, #-247]!	; 0xffffff09
    4d8c:	a0808023 	addge	r8, r0, r3, lsr #32
    4d90:	00243240 	eoreq	r3, r4, r0, asr #4
    4d94:	00000000 	andeq	r0, r0, r0
    4d98:	0ab41e00 	beq	fed0c5a0 <__bss_end__+0xfed01308>
    4d9c:	28010000 	stmdacs	r1, {}	; <UNPREDICTABLE>
    4da0:	04eb0106 	strbteq	r0, [fp], #262	; 0x106
    4da4:	701f0000 	andsvc	r0, pc, r0
    4da8:	01006e69 	tsteq	r0, r9, ror #28
    4dac:	002c2128 	eoreq	r2, ip, r8, lsr #2
    4db0:	94200000 	strtls	r0, [r0], #-0
    4db4:	01000001 	tsteq	r0, r1
    4db8:	010f3228 	tsteq	pc, r8, lsr #4
    4dbc:	6f210000 	svcvs	0x00210000
    4dc0:	01006666 	tsteq	r0, r6, ror #12
    4dc4:	002c0e2d 	eoreq	r0, ip, sp, lsr #28
    4dc8:	67210000 	strvs	r0, [r1, -r0]!
    4dcc:	0e2e0100 	sufeqe	f0, f6, f0
    4dd0:	0000002c 	andeq	r0, r0, ip, lsr #32
    4dd4:	01007621 	tsteq	r0, r1, lsr #12
    4dd8:	002c0e30 	eoreq	r0, ip, r0, lsr lr
    4ddc:	22000000 	andcs	r0, r0, #0, 0
    4de0:	00000bc1 	andeq	r0, r0, r1, asr #23
    4de4:	6918b102 	ldmdbvs	r8, {r1, r8, ip, sp, pc}
    4de8:	03000000 	movweq	r0, #0
    4dec:	00000507 	andeq	r0, r0, r7, lsl #10
    4df0:	0200781f 	andeq	r7, r0, #2031616	; 0x1f0000
    4df4:	00692bb1 	strhteq	r2, [r9], #-177	; 0xffffff4f
    4df8:	23000000 	movwcs	r0, #0
    4dfc:	000004a5 	andeq	r0, r0, r5, lsr #9
    4e00:	0000a2cc 	andeq	sl, r0, ip, asr #5
    4e04:	00000060 	andeq	r0, r0, r0, rrx
    4e08:	05e49c01 	strbeq	r9, [r4, #3073]!	; 0xc01
    4e0c:	b2150000 	andslt	r0, r5, #0, 0
    4e10:	54000004 	strpl	r0, [r0], #-4
    4e14:	50000031 	andpl	r0, r0, r1, lsr r0
    4e18:	15000031 	strne	r0, [r0, #-49]	; 0xffffffcf
    4e1c:	000004be 			; <UNDEFINED> instruction: 0x000004be
    4e20:	00003179 	andeq	r3, r0, r9, ror r1
    4e24:	00003175 	andeq	r3, r0, r5, ror r1
    4e28:	0004ca1b 	andeq	ip, r4, fp, lsl sl
    4e2c:	04d61b00 	ldrbeq	r1, [r6], #2816	; 0xb00
    4e30:	e01b0000 	ands	r0, fp, r0
    4e34:	18000004 	stmdane	r0, {r2}
    4e38:	000004a5 	andeq	r0, r0, r5, lsr #9
    4e3c:	0000a2d4 	ldrdeq	sl, [r0], -r4
    4e40:	00049000 	andeq	r9, r4, r0
    4e44:	06280100 	strteq	r0, [r8], -r0, lsl #2
    4e48:	0004be15 	andeq	fp, r4, r5, lsl lr
    4e4c:	00319e00 	eorseq	r9, r1, r0, lsl #28
    4e50:	00319a00 	eorseq	r9, r1, r0, lsl #20
    4e54:	04b21500 	ldrteq	r1, [r2], #1280	; 0x500
    4e58:	31c30000 	biccc	r0, r3, r0
    4e5c:	31bf0000 			; <UNDEFINED> instruction: 0x31bf0000
    4e60:	901a0000 	andsls	r0, sl, r0
    4e64:	1c000004 	stcne	0, cr0, [r0], {4}
    4e68:	000004ca 	andeq	r0, r0, sl, asr #9
    4e6c:	000031e8 	andeq	r3, r0, r8, ror #3
    4e70:	000031e4 	andeq	r3, r0, r4, ror #3
    4e74:	0004d61c 	andeq	sp, r4, ip, lsl r6
    4e78:	00323400 	eorseq	r3, r2, r0, lsl #8
    4e7c:	00322e00 	eorseq	r2, r2, r0, lsl #28
    4e80:	04e01c00 	strbteq	r1, [r0], #3072	; 0xc00
    4e84:	328a0000 	addcc	r0, sl, #0, 0
    4e88:	32820000 	addcc	r0, r2, #0, 0
    4e8c:	0c1d0000 	ldceq	0, cr0, [sp], {-0}
    4e90:	5e0000a3 	cdppl	0, 0, cr0, cr0, cr3, {5}
    4e94:	ae000006 	cdpge	0, 0, cr0, cr0, cr6, {0}
    4e98:	12000005 	andne	r0, r0, #5, 0
    4e9c:	76025001 	strvc	r5, [r2], -r1
    4ea0:	28160000 	ldmdacs	r6, {}	; <UNPREDICTABLE>
    4ea4:	6a0000a3 	bvs	5138 <__code_start__-0x2ec8>
    4ea8:	12000006 	andne	r0, r0, #6, 0
    4eac:	f3255001 	vhadd.u32	d5, d5, d1
    4eb0:	2cf75001 	ldclcs	0, cr5, [r7], #4
    4eb4:	25f425f7 	ldrbcs	r2, [r4, #1527]!	; 0x5f7
    4eb8:	cccccd08 	stclgt	13, cr12, [ip], {8}
    4ebc:	000000cc 	andeq	r0, r0, ip, asr #1
    4ec0:	20081e00 	andcs	r1, r8, r0, lsl #28
    4ec4:	f72525f7 			; <UNDEFINED> instruction: 0xf72525f7
    4ec8:	3300f72c 	movwcc	pc, #1836	; 0x72c	; <UNPREDICTABLE>
    4ecc:	80802325 	addhi	r2, r0, r5, lsr #6
    4ed0:	243240a0 	ldrtcs	r4, [r2], #-160	; 0xffffff60
    4ed4:	00000000 	andeq	r0, r0, r0
    4ed8:	00038d23 	andeq	r8, r3, r3, lsr #26
    4edc:	00a38400 	adceq	r8, r3, r0, lsl #8
    4ee0:	00001800 	andeq	r1, r0, r0, lsl #16
    4ee4:	219c0100 	orrscs	r0, ip, r0, lsl #2
    4ee8:	15000006 	strne	r0, [r0, #-6]
    4eec:	0000039a 	muleq	r0, sl, r3
    4ef0:	000032e0 	andeq	r3, r0, r0, ror #5
    4ef4:	000032da 	ldrdeq	r3, [r0], -sl
    4ef8:	00a39816 	adceq	r9, r3, r6, lsl r8
    4efc:	00066a00 	andeq	r6, r6, r0, lsl #20
    4f00:	50011200 	andpl	r1, r1, r0, lsl #4
    4f04:	001c0c05 	andseq	r0, ip, r5, lsl #24
    4f08:	01122020 	tsteq	r2, r0, lsr #32
    4f0c:	f3310551 	vqrshl.u64	q0, <illegal reg q0.5>, <illegal reg q0.5>
    4f10:	00245001 	eoreq	r5, r4, r1
    4f14:	03732300 	cmneq	r3, #0, 6
    4f18:	a39c0000 	orrsge	r0, ip, #0, 0
    4f1c:	00180000 	andseq	r0, r8, r0
    4f20:	9c010000 	stcls	0, cr0, [r1], {-0}
    4f24:	0000065e 	andeq	r0, r0, lr, asr r6
    4f28:	00038015 	andeq	r8, r3, r5, lsl r0
    4f2c:	00331200 	eorseq	r1, r3, r0, lsl #4
    4f30:	00330c00 	eorseq	r0, r3, r0, lsl #24
    4f34:	a3b01600 	movsge	r1, #0, 12
    4f38:	066a0000 	strbteq	r0, [sl], -r0
    4f3c:	01120000 	tsteq	r2, r0
    4f40:	280c0550 	stmdacs	ip, {r4, r6, r8, sl}
    4f44:	12202000 	eorne	r2, r0, #0, 0
    4f48:	31055101 	tstcc	r5, r1, lsl #2
    4f4c:	245001f3 	ldrbcs	r0, [r0], #-499	; 0xfffffe0d
    4f50:	89240000 	stmdbhi	r4!, {}	; <UNPREDICTABLE>
    4f54:	89000008 	stmdbhi	r0, {r3}
    4f58:	02000008 	andeq	r0, r0, #8, 0
    4f5c:	f5240ac2 			; <UNDEFINED> instruction: 0xf5240ac2
    4f60:	f5000007 			; <UNDEFINED> instruction: 0xf5000007
    4f64:	02000007 	andeq	r0, r0, #7, 0
    4f68:	490006ad 	stmdbmi	r0, {r0, r2, r3, r5, r7, r9, sl}
    4f6c:	04000001 	streq	r0, [r0], #-1
    4f70:	001aaf00 	andseq	sl, sl, r0, lsl #30
    4f74:	06010400 	streq	r0, [r1], -r0, lsl #8
    4f78:	0c000005 	stceq	0, cr0, [r0], {5}
    4f7c:	00000c53 	andeq	r0, r0, r3, asr ip
    4f80:	000005cc 	andeq	r0, r0, ip, asr #11
    4f84:	0000a464 	andeq	sl, r0, r4, ror #8
    4f88:	0000003c 	andeq	r0, r0, ip, lsr r0
    4f8c:	0000271f 	andeq	r2, r0, pc, lsl r7
    4f90:	69050402 	stmdbvs	r5, {r1, sl}
    4f94:	0300746e 	movweq	r7, #1134	; 0x46e
    4f98:	01b00704 	lslseq	r0, r4, #14
    4f9c:	01030000 	mrseq	r0, (UNDEF: 3)
    4fa0:	00015406 	andeq	r5, r1, r6, lsl #8
    4fa4:	05020300 	streq	r0, [r2, #-768]	; 0xfffffd00
    4fa8:	000001de 	ldrdeq	r0, [r0], -lr
    4fac:	c2050403 	andgt	r0, r5, #50331648	; 0x3000000
    4fb0:	03000001 	movweq	r0, #1
    4fb4:	01bd0508 			; <UNDEFINED> instruction: 0x01bd0508
    4fb8:	01030000 	mrseq	r0, (UNDEF: 3)
    4fbc:	00015208 	andeq	r5, r1, r8, lsl #4
    4fc0:	07020300 	streq	r0, [r2, -r0, lsl #6]
    4fc4:	00000052 	andeq	r0, r0, r2, asr r0
    4fc8:	ab070403 	blge	1c5fdc <__bss_end__+0x1bad44>
    4fcc:	03000001 	movweq	r0, #1
    4fd0:	01a60708 			; <UNDEFINED> instruction: 0x01a60708
    4fd4:	25040000 	strcs	r0, [r4, #-0]
    4fd8:	7a000000 	bvc	4fe0 <__code_start__-0x3020>
    4fdc:	05000000 	streq	r0, [r0, #-0]
    4fe0:	00000025 	andeq	r0, r0, r5, lsr #32
    4fe4:	01cb0600 	biceq	r0, fp, r0, lsl #12
    4fe8:	1c020000 	stcne	0, cr0, [r2], {-0}
    4fec:	0000860e 	andeq	r8, r0, lr, lsl #12
    4ff0:	6b040700 	blvs	106bf8 <__bss_end__+0xfb960>
    4ff4:	04000000 	streq	r0, [r0], #-0
    4ff8:	00000025 	andeq	r0, r0, r5, lsr #32
    4ffc:	0000009b 	muleq	r0, fp, r0
    5000:	00009b05 	andeq	r9, r0, r5, lsl #22
    5004:	04070000 	streq	r0, [r7], #-0
    5008:	000000a8 	andeq	r0, r0, r8, lsr #1
    500c:	5b080103 	blpl	205420 <__bss_end__+0x1fa188>
    5010:	08000001 	stmdaeq	r0, {r0}
    5014:	000000a1 	andeq	r0, r0, r1, lsr #1
    5018:	00066c06 	andeq	r6, r6, r6, lsl #24
    501c:	0e210200 	cdpeq	2, 2, cr0, cr1, cr0, {0}
    5020:	000000b9 	strheq	r0, [r0], -r9
    5024:	008c0407 	addeq	r0, ip, r7, lsl #8
    5028:	7a090000 	bvc	245030 <__bss_end__+0x239d98>
    502c:	01000000 	mrseq	r0, (UNDEF: 0)
    5030:	03050706 	movweq	r0, #22278	; 0x5706
    5034:	0000ae6c 	andeq	sl, r0, ip, ror #28
    5038:	000c460a 	andeq	r4, ip, sl, lsl #12
    503c:	060b0100 	streq	r0, [fp], -r0, lsl #2
    5040:	0000a490 	muleq	r0, r0, r4
    5044:	00000010 	andeq	r0, r0, r0, lsl r0
    5048:	00f19c01 	rscseq	r9, r1, r1, lsl #24
    504c:	660b0000 	strvs	r0, [fp], -r0
    5050:	0b010070 	bleq	45218 <__bss_end__+0x39f80>
    5054:	00008619 	andeq	r8, r0, r9, lsl r6
    5058:	00500100 	subseq	r0, r0, r0, lsl #2
    505c:	000b830c 	andeq	r8, fp, ip, lsl #6
    5060:	06080100 	streq	r0, [r8], -r0, lsl #2
    5064:	0000a478 	andeq	sl, r0, r8, ror r4
    5068:	00000018 	andeq	r0, r0, r8, lsl r0
    506c:	350d9c01 	strcc	r9, [sp, #-3073]	; 0xfffff3ff
    5070:	0100000c 	tsteq	r0, ip
    5074:	00250c03 	eoreq	r0, r5, r3, lsl #24
    5078:	a4640000 	strbtge	r0, [r4], #-0
    507c:	00140000 	andseq	r0, r4, r0
    5080:	9c010000 	stcls	0, cr0, [r1], {-0}
    5084:	00000140 	andeq	r0, r0, r0, asr #2
    5088:	0100630e 	tsteq	r0, lr, lsl #6
    508c:	00252103 	eoreq	r2, r5, r3, lsl #2
    5090:	33420000 	movtcc	r0, #8192	; 0x2000
    5094:	333e0000 	teqcc	lr, #0, 0
    5098:	700f0000 	andvc	r0, pc, r0
    509c:	400000a4 	andmi	r0, r0, r4, lsr #1
    50a0:	10000001 	andne	r0, r0, r1
    50a4:	74025001 	strvc	r5, [r2], #-1
    50a8:	11000000 	mrsne	r0, (UNDEF: 0)
    50ac:	00000a9a 	muleq	r0, sl, sl
    50b0:	00000a9a 	muleq	r0, sl, sl
    50b4:	00064202 	andeq	r4, r6, r2, lsl #4
    50b8:	00000137 	andeq	r0, r0, r7, lsr r1
    50bc:	1bbe0004 	blne	fef850d4 <__bss_end__+0xfef79e3c>
    50c0:	01040000 	mrseq	r0, (UNDEF: 4)
    50c4:	00000506 	andeq	r0, r0, r6, lsl #10
    50c8:	000c640c 	andeq	r6, ip, ip, lsl #8
    50cc:	0005cc00 	andeq	ip, r5, r0, lsl #24
    50d0:	00a4a000 	adceq	sl, r4, r0
    50d4:	00002c00 	andeq	r2, r0, r0, lsl #24
    50d8:	0027c100 	eoreq	ip, r7, r0, lsl #2
    50dc:	05040200 	streq	r0, [r4, #-512]	; 0xfffffe00
    50e0:	00746e69 	rsbseq	r6, r4, r9, ror #28
    50e4:	b0070403 	andlt	r0, r7, r3, lsl #8
    50e8:	03000001 	movweq	r0, #1
    50ec:	01540601 	cmpeq	r4, r1, lsl #12
    50f0:	02030000 	andeq	r0, r3, #0, 0
    50f4:	0001de05 	andeq	sp, r1, r5, lsl #28
    50f8:	05040300 	streq	r0, [r4, #-768]	; 0xfffffd00
    50fc:	000001c2 	andeq	r0, r0, r2, asr #3
    5100:	bd050803 	stclt	8, cr0, [r5, #-12]
    5104:	03000001 	movweq	r0, #1
    5108:	01520801 	cmpeq	r2, r1, lsl #16
    510c:	02030000 	andeq	r0, r3, #0, 0
    5110:	00005207 	andeq	r5, r0, r7, lsl #4
    5114:	07040300 	streq	r0, [r4, -r0, lsl #6]
    5118:	000001ab 	andeq	r0, r0, fp, lsr #3
    511c:	a6070803 	strge	r0, [r7], -r3, lsl #16
    5120:	04000001 	streq	r0, [r0], #-1
    5124:	00000025 	andeq	r0, r0, r5, lsr #32
    5128:	0000007a 	andeq	r0, r0, sl, ror r0
    512c:	00002505 	andeq	r2, r0, r5, lsl #10
    5130:	cb060000 	blgt	185138 <__bss_end__+0x179ea0>
    5134:	02000001 	andeq	r0, r0, #1, 0
    5138:	00860e1c 	addeq	r0, r6, ip, lsl lr
    513c:	04070000 	streq	r0, [r7], #-0
    5140:	0000006b 	andeq	r0, r0, fp, rrx
    5144:	00002504 	andeq	r2, r0, r4, lsl #10
    5148:	00009b00 	andeq	r9, r0, r0, lsl #22
    514c:	009b0500 	addseq	r0, fp, r0, lsl #10
    5150:	07000000 	streq	r0, [r0, -r0]
    5154:	0000a804 	andeq	sl, r0, r4, lsl #16
    5158:	08010300 	stmdaeq	r1, {r8, r9}
    515c:	0000015b 	andeq	r0, r0, fp, asr r1
    5160:	0000a108 	andeq	sl, r0, r8, lsl #2
    5164:	066c0600 	strbteq	r0, [ip], -r0, lsl #12
    5168:	21020000 	mrscs	r0, (UNDEF: 2)
    516c:	0000b90e 	andeq	fp, r0, lr, lsl #18
    5170:	8c040700 	stchi	7, cr0, [r4], {-0}
    5174:	09000000 	stmdbeq	r0, {}	; <UNPREDICTABLE>
    5178:	000006e8 	andeq	r0, r0, r8, ror #13
    517c:	34070401 	strcc	r0, [r7], #-1025	; 0xfffffbff
    5180:	a0000001 	andge	r0, r0, r1
    5184:	2c0000a4 	stccs	0, cr0, [r0], {164}	; 0xa4
    5188:	01000000 	mrseq	r0, (UNDEF: 0)
    518c:	0001349c 	muleq	r1, ip, r4
    5190:	0c740a00 			; <UNDEFINED> instruction: 0x0c740a00
    5194:	04010000 	streq	r0, [r1], #-0
    5198:	00013415 	andeq	r3, r1, r5, lsl r4
    519c:	0b500100 	bleq	14055a4 <__bss_end__+0x13fa30c>
    51a0:	00637273 	rsbeq	r7, r3, r3, ror r2
    51a4:	9b270401 	blls	9c61b0 <__bss_end__+0x9baf18>
    51a8:	64000000 	strvs	r0, [r0], #-0
    51ac:	60000033 	andvs	r0, r0, r3, lsr r0
    51b0:	0c000033 	stceq	0, cr0, [r0], {51}	; 0x33
    51b4:	01003173 	tsteq	r0, r3, ror r1
    51b8:	01340b05 	teqeq	r4, r5, lsl #22
    51bc:	33930000 	orrscc	r0, r3, #0, 0
    51c0:	33850000 	orrcc	r0, r5, #0, 0
    51c4:	730c0000 	movwvc	r0, #49152	; 0xc000
    51c8:	06010032 			; <UNDEFINED> instruction: 0x06010032
    51cc:	00009b11 	andeq	r9, r0, r1, lsl fp
    51d0:	0033f200 	eorseq	pc, r3, r0, lsl #4
    51d4:	0033ec00 	eorseq	lr, r3, r0, lsl #24
    51d8:	00630c00 	rsbeq	r0, r3, r0, lsl #24
    51dc:	a10a0701 	tstge	sl, r1, lsl #14
    51e0:	23000000 	movwcs	r0, #0
    51e4:	1d000034 	stcne	0, cr0, [r0, #-208]	; 0xffffff30
    51e8:	00000034 	andeq	r0, r0, r4, lsr r0
    51ec:	00a10407 	adceq	r0, r1, r7, lsl #8
    51f0:	f7000000 			; <UNDEFINED> instruction: 0xf7000000
    51f4:	04000000 	streq	r0, [r0], #-0
    51f8:	001c7400 	andseq	r7, ip, r0, lsl #8
    51fc:	06010400 	streq	r0, [r1], -r0, lsl #8
    5200:	0c000005 	stceq	0, cr0, [r0], {5}
    5204:	00000c79 	andeq	r0, r0, r9, ror ip
    5208:	000005cc 	andeq	r0, r0, ip, asr #11
    520c:	0000a4cc 	andeq	sl, r0, ip, asr #9
    5210:	00000044 	andeq	r0, r0, r4, asr #32
    5214:	000028a7 	andeq	r2, r0, r7, lsr #17
    5218:	69050402 	stmdbvs	r5, {r1, sl}
    521c:	0300746e 	movweq	r7, #1134	; 0x46e
    5220:	01b00704 	lslseq	r0, r4, #14
    5224:	01030000 	mrseq	r0, (UNDEF: 3)
    5228:	00015406 	andeq	r5, r1, r6, lsl #8
    522c:	05020300 	streq	r0, [r2, #-768]	; 0xfffffd00
    5230:	000001de 	ldrdeq	r0, [r0], -lr
    5234:	c2050403 	andgt	r0, r5, #50331648	; 0x3000000
    5238:	03000001 	movweq	r0, #1
    523c:	01bd0508 			; <UNDEFINED> instruction: 0x01bd0508
    5240:	01030000 	mrseq	r0, (UNDEF: 3)
    5244:	00015208 	andeq	r5, r1, r8, lsl #4
    5248:	07020300 	streq	r0, [r2, -r0, lsl #6]
    524c:	00000052 	andeq	r0, r0, r2, asr r0
    5250:	ab070403 	blge	1c6264 <__bss_end__+0x1bafcc>
    5254:	03000001 	movweq	r0, #1
    5258:	01a60708 			; <UNDEFINED> instruction: 0x01a60708
    525c:	25040000 	strcs	r0, [r4, #-0]
    5260:	7a000000 	bvc	5268 <__code_start__-0x2d98>
    5264:	05000000 	streq	r0, [r0, #-0]
    5268:	00000025 	andeq	r0, r0, r5, lsr #32
    526c:	01cb0600 	biceq	r0, fp, r0, lsl #12
    5270:	1c020000 	stcne	0, cr0, [r2], {-0}
    5274:	0000860e 	andeq	r8, r0, lr, lsl #12
    5278:	6b040700 	blvs	106e80 <__bss_end__+0xfbbe8>
    527c:	04000000 	streq	r0, [r0], #-0
    5280:	00000025 	andeq	r0, r0, r5, lsr #32
    5284:	0000009b 	muleq	r0, fp, r0
    5288:	00009b05 	andeq	r9, r0, r5, lsl #22
    528c:	04070000 	streq	r0, [r7], #-0
    5290:	000000a8 	andeq	r0, r0, r8, lsr #1
    5294:	5b080103 	blpl	2056a8 <__bss_end__+0x1fa410>
    5298:	08000001 	stmdaeq	r0, {r0}
    529c:	000000a1 	andeq	r0, r0, r1, lsr #1
    52a0:	00066c06 	andeq	r6, r6, r6, lsl #24
    52a4:	0e210200 	cdpeq	2, 2, cr0, cr1, cr0, {0}
    52a8:	000000b9 	strheq	r0, [r0], -r9
    52ac:	008c0407 	addeq	r0, ip, r7, lsl #8
    52b0:	16090000 	strne	r0, [r9], -r0
    52b4:	01000007 	tsteq	r0, r7
    52b8:	00250503 	eoreq	r0, r5, r3, lsl #10
    52bc:	a4cc0000 	strbge	r0, [ip], #0
    52c0:	00440000 	subeq	r0, r4, r0
    52c4:	9c010000 	stcls	0, cr0, [r1], {-0}
    52c8:	0100610a 	tsteq	r0, sl, lsl #2
    52cc:	009b1803 	addseq	r1, fp, r3, lsl #16
    52d0:	345a0000 	ldrbcc	r0, [sl], #-0
    52d4:	344e0000 	strbcc	r0, [lr], #-0
    52d8:	620a0000 	andvs	r0, sl, #0, 0
    52dc:	27030100 	strcs	r0, [r3, -r0, lsl #2]
    52e0:	0000009b 	muleq	r0, fp, r0
    52e4:	000034ae 	andeq	r3, r0, lr, lsr #9
    52e8:	000034a8 	andeq	r3, r0, r8, lsr #9
    52ec:	010f0000 	mrseq	r0, CPSR
    52f0:	00040000 	andeq	r0, r4, r0
    52f4:	00001d03 	andeq	r1, r0, r3, lsl #26
    52f8:	05060104 	streq	r0, [r6, #-260]	; 0xfffffefc
    52fc:	890c0000 	stmdbhi	ip, {}	; <UNPREDICTABLE>
    5300:	cc00000c 	stcgt	0, cr0, [r0], {12}
    5304:	10000005 	andne	r0, r0, r5
    5308:	180000a5 	stmdane	r0, {r0, r2, r5, r7}
    530c:	5d000000 	stcpl	0, cr0, [r0, #-0]
    5310:	02000029 	andeq	r0, r0, #41, 0	; 0x29
    5314:	6e690504 	cdpvs	5, 6, cr0, cr9, cr4, {0}
    5318:	04030074 	streq	r0, [r3], #-116	; 0xffffff8c
    531c:	0001b007 	andeq	fp, r1, r7
    5320:	06010300 	streq	r0, [r1], -r0, lsl #6
    5324:	00000154 	andeq	r0, r0, r4, asr r1
    5328:	de050203 	cdple	2, 0, cr0, cr5, cr3, {0}
    532c:	03000001 	movweq	r0, #1
    5330:	01c20504 	biceq	r0, r2, r4, lsl #10
    5334:	08030000 	stmdaeq	r3, {}	; <UNPREDICTABLE>
    5338:	0001bd05 	andeq	fp, r1, r5, lsl #26
    533c:	08010300 	stmdaeq	r1, {r8, r9}
    5340:	00000152 	andeq	r0, r0, r2, asr r1
    5344:	52070203 	andpl	r0, r7, #805306368	; 0x30000000
    5348:	03000000 	movweq	r0, #0
    534c:	01ab0704 			; <UNDEFINED> instruction: 0x01ab0704
    5350:	08030000 	stmdaeq	r3, {}	; <UNPREDICTABLE>
    5354:	0001a607 	andeq	sl, r1, r7, lsl #12
    5358:	00250400 	eoreq	r0, r5, r0, lsl #8
    535c:	007a0000 	rsbseq	r0, sl, r0
    5360:	25050000 	strcs	r0, [r5, #-0]
    5364:	00000000 	andeq	r0, r0, r0
    5368:	0001cb06 	andeq	ip, r1, r6, lsl #22
    536c:	0e1c0200 	cdpeq	2, 1, cr0, cr12, cr0, {0}
    5370:	00000086 	andeq	r0, r0, r6, lsl #1
    5374:	006b0407 	rsbeq	r0, fp, r7, lsl #8
    5378:	25040000 	strcs	r0, [r4, #-0]
    537c:	9b000000 	blls	5384 <__code_start__-0x2c7c>
    5380:	05000000 	streq	r0, [r0, #-0]
    5384:	0000009b 	muleq	r0, fp, r0
    5388:	a8040700 	stmdage	r4, {r8, r9, sl}
    538c:	03000000 	movweq	r0, #0
    5390:	015b0801 	cmpeq	fp, r1, lsl #16
    5394:	a1080000 	mrsge	r0, (UNDEF: 8)
    5398:	06000000 	streq	r0, [r0], -r0
    539c:	0000066c 	andeq	r0, r0, ip, ror #12
    53a0:	b90e2102 	stmdblt	lr, {r1, r8, sp}
    53a4:	07000000 	streq	r0, [r0, -r0]
    53a8:	00008c04 	andeq	r8, r0, r4, lsl #24
    53ac:	06ef0900 	strbteq	r0, [pc], r0, lsl #18
    53b0:	03010000 	movweq	r0, #4096	; 0x1000
    53b4:	00010c07 	andeq	r0, r1, r7, lsl #24
    53b8:	00a51000 	adceq	r1, r5, r0
    53bc:	00001800 	andeq	r1, r0, r0, lsl #16
    53c0:	0c9c0100 	ldfeqs	f0, [ip], {0}
    53c4:	0a000001 	beq	53d0 <__code_start__-0x2c30>
    53c8:	01003173 	tsteq	r0, r3, ror r1
    53cc:	010c1503 	tsteq	ip, r3, lsl #10
    53d0:	50010000 	andpl	r0, r1, r0
    53d4:	0032730b 	eorseq	r7, r2, fp, lsl #6
    53d8:	9b260301 	blls	985fe4 <__bss_end__+0x97ad4c>
    53dc:	dd000000 	stcle	0, cr0, [r0, #-0]
    53e0:	d7000034 	smladxle	r0, r4, r0, r0
    53e4:	0c000034 	stceq	0, cr0, [r0], {52}	; 0x34
    53e8:	04010073 	streq	r0, [r1], #-115	; 0xffffff8d
    53ec:	00010c14 	andeq	r0, r1, r4, lsl ip
    53f0:	00350a00 	eorseq	r0, r5, r0, lsl #20
    53f4:	00350800 	eorseq	r0, r5, r0, lsl #16
    53f8:	04070000 	streq	r0, [r7], #-0
    53fc:	000000a1 	andeq	r0, r0, r1, lsr #1
    5400:	00014e00 	andeq	r4, r1, r0, lsl #28
    5404:	b9000400 	stmdblt	r0, {sl}
    5408:	0400001d 	streq	r0, [r0], #-29	; 0xffffffe3
    540c:	00050601 	andeq	r0, r5, r1, lsl #12
    5410:	0c990c00 	ldceq	12, cr0, [r9], {0}
    5414:	05cc0000 	strbeq	r0, [ip]
    5418:	a5280000 	strge	r0, [r8, #-0]!
    541c:	00300000 	eorseq	r0, r0, r0
    5420:	29fe0000 	ldmibcs	lr!, {}^	; <UNPREDICTABLE>
    5424:	04020000 	streq	r0, [r2], #-0
    5428:	746e6905 	strbtvc	r6, [lr], #-2309	; 0xfffff6fb
    542c:	060f0300 	streq	r0, [pc], -r0, lsl #6
    5430:	d1030000 	mrsle	r0, (UNDEF: 3)
    5434:	00003817 	andeq	r3, r0, r7, lsl r8
    5438:	07040400 	streq	r0, [r4, -r0, lsl #8]
    543c:	000001b0 			; <UNDEFINED> instruction: 0x000001b0
    5440:	54060104 	strpl	r0, [r6], #-260	; 0xfffffefc
    5444:	04000001 	streq	r0, [r0], #-1
    5448:	01de0502 	bicseq	r0, lr, r2, lsl #10
    544c:	04040000 	streq	r0, [r4], #-0
    5450:	0001c205 	andeq	ip, r1, r5, lsl #4
    5454:	05080400 	streq	r0, [r8, #-1024]	; 0xfffffc00
    5458:	000001bd 			; <UNDEFINED> instruction: 0x000001bd
    545c:	52080104 	andpl	r0, r8, #1
    5460:	05000001 	streq	r0, [r0, #-1]
    5464:	0000005b 	andeq	r0, r0, fp, asr r0
    5468:	52070204 	andpl	r0, r7, #4, 4	; 0x40000000
    546c:	04000000 	streq	r0, [r0], #-0
    5470:	01ab0704 			; <UNDEFINED> instruction: 0x01ab0704
    5474:	08040000 	stmdaeq	r4, {}	; <UNPREDICTABLE>
    5478:	0001a607 	andeq	sl, r1, r7, lsl #12
    547c:	00250600 	eoreq	r0, r5, r0, lsl #12
    5480:	008b0000 	addeq	r0, fp, r0
    5484:	25070000 	strcs	r0, [r7, #-0]
    5488:	00000000 	andeq	r0, r0, r0
    548c:	0001cb08 	andeq	ip, r1, r8, lsl #22
    5490:	0e1c0200 	cdpeq	2, 1, cr0, cr12, cr0, {0}
    5494:	00000097 	muleq	r0, r7, r0
    5498:	007c0409 	rsbseq	r0, ip, r9, lsl #8
    549c:	25060000 	strcs	r0, [r6, #-0]
    54a0:	ac000000 	stcge	0, cr0, [r0], {-0}
    54a4:	07000000 	streq	r0, [r0, -r0]
    54a8:	000000ac 	andeq	r0, r0, ip, lsr #1
    54ac:	b9040900 	stmdblt	r4, {r8, fp}
    54b0:	04000000 	streq	r0, [r0], #-0
    54b4:	015b0801 	cmpeq	fp, r1, lsl #16
    54b8:	b2050000 	andlt	r0, r5, #0, 0
    54bc:	08000000 	stmdaeq	r0, {}	; <UNPREDICTABLE>
    54c0:	0000066c 	andeq	r0, r0, ip, ror #12
    54c4:	ca0e2102 	bgt	38d8d4 <__bss_end__+0x38263c>
    54c8:	09000000 	stmdbeq	r0, {}	; <UNPREDICTABLE>
    54cc:	00009d04 	andeq	r9, r0, r4, lsl #26
    54d0:	07370a00 	ldreq	r0, [r7, -r0, lsl #20]!
    54d4:	04010000 	streq	r0, [r1], #-0
    54d8:	00002505 	andeq	r2, r0, r5, lsl #10
    54dc:	00a52800 	adceq	r2, r5, r0, lsl #16
    54e0:	00003000 	andeq	r3, r0, r0
    54e4:	4b9c0100 	blmi	fe7058ec <__bss_end__+0xfe6fa654>
    54e8:	0b000001 	bleq	54f4 <__code_start__-0x2b0c>
    54ec:	0031735f 	eorseq	r7, r1, pc, asr r3
    54f0:	ac190401 	cfldrsge	mvf0, [r9], {1}
    54f4:	21000000 	mrscs	r0, (UNDEF: 0)
    54f8:	1d000035 	stcne	0, cr0, [r0, #-212]	; 0xffffff2c
    54fc:	0b000035 	bleq	55d8 <__code_start__-0x2a28>
    5500:	0032735f 	eorseq	r7, r2, pc, asr r3
    5504:	ac2a0401 	cfstrsge	mvf0, [sl], #-4
    5508:	46000000 	strmi	r0, [r0], -r0
    550c:	42000035 	andmi	r0, r0, #53, 0	; 0x35
    5510:	0b000035 	bleq	55ec <__code_start__-0x2a14>
    5514:	0401006e 	streq	r0, [r1], #-110	; 0xffffff92
    5518:	00002c36 	andeq	r2, r0, r6, lsr ip
    551c:	00357100 	eorseq	r7, r5, r0, lsl #2
    5520:	00356700 	eorseq	r6, r5, r0, lsl #14
    5524:	31730c00 	cmncc	r3, r0, lsl #24
    5528:	1a050100 	bne	145930 <__bss_end__+0x13a698>
    552c:	0000014b 	andeq	r0, r0, fp, asr #2
    5530:	000035c8 	andeq	r3, r0, r8, asr #11
    5534:	000035c0 	andeq	r3, r0, r0, asr #11
    5538:	0032730c 	eorseq	r7, r2, ip, lsl #6
    553c:	4b2c0501 	blmi	b06948 <__bss_end__+0xafb6b0>
    5540:	06000001 	streq	r0, [r0], -r1
    5544:	00000036 	andeq	r0, r0, r6, lsr r0
    5548:	00000036 	andeq	r0, r0, r6, lsr r0
    554c:	00620409 	rsbeq	r0, r2, r9, lsl #8
    5550:	ce000000 	cdpgt	0, 0, cr0, cr0, cr0, {0}
    5554:	04000000 	streq	r0, [r0], #-0
    5558:	001e6d00 	andseq	r6, lr, r0, lsl #26
    555c:	06010400 	streq	r0, [r1], -r0, lsl #8
    5560:	0c000005 	stceq	0, cr0, [r0], {5}
    5564:	00000caa 	andeq	r0, r0, sl, lsr #25
    5568:	000005cc 	andeq	r0, r0, ip, asr #11
    556c:	0000a558 	andeq	sl, r0, r8, asr r5
    5570:	00000004 	andeq	r0, r0, r4
    5574:	00002aff 	strdeq	r2, [r0], -pc	; <UNPREDICTABLE>
    5578:	69050402 	stmdbvs	r5, {r1, sl}
    557c:	0300746e 	movweq	r7, #1134	; 0x46e
    5580:	01b00704 	lslseq	r0, r4, #14
    5584:	01030000 	mrseq	r0, (UNDEF: 3)
    5588:	00015406 	andeq	r5, r1, r6, lsl #8
    558c:	05020300 	streq	r0, [r2, #-768]	; 0xfffffd00
    5590:	000001de 	ldrdeq	r0, [r0], -lr
    5594:	c2050403 	andgt	r0, r5, #50331648	; 0x3000000
    5598:	03000001 	movweq	r0, #1
    559c:	01bd0508 			; <UNDEFINED> instruction: 0x01bd0508
    55a0:	01030000 	mrseq	r0, (UNDEF: 3)
    55a4:	00015208 	andeq	r5, r1, r8, lsl #4
    55a8:	07020300 	streq	r0, [r2, -r0, lsl #6]
    55ac:	00000052 	andeq	r0, r0, r2, asr r0
    55b0:	ab070403 	blge	1c65c4 <__bss_end__+0x1bb32c>
    55b4:	03000001 	movweq	r0, #1
    55b8:	01a60708 			; <UNDEFINED> instruction: 0x01a60708
    55bc:	25040000 	strcs	r0, [r4, #-0]
    55c0:	7a000000 	bvc	55c8 <__code_start__-0x2a38>
    55c4:	05000000 	streq	r0, [r0, #-0]
    55c8:	00000025 	andeq	r0, r0, r5, lsr #32
    55cc:	01cb0600 	biceq	r0, fp, r0, lsl #12
    55d0:	1c020000 	stcne	0, cr0, [r2], {-0}
    55d4:	0000860e 	andeq	r8, r0, lr, lsl #12
    55d8:	6b040700 	blvs	1071e0 <__bss_end__+0xfbf48>
    55dc:	04000000 	streq	r0, [r0], #-0
    55e0:	00000025 	andeq	r0, r0, r5, lsr #32
    55e4:	0000009b 	muleq	r0, fp, r0
    55e8:	00009b05 	andeq	r9, r0, r5, lsl #22
    55ec:	04070000 	streq	r0, [r7], #-0
    55f0:	000000a8 	andeq	r0, r0, r8, lsr #1
    55f4:	5b080103 	blpl	205a08 <__bss_end__+0x1fa770>
    55f8:	08000001 	stmdaeq	r0, {r0}
    55fc:	000000a1 	andeq	r0, r0, r1, lsr #1
    5600:	00066c06 	andeq	r6, r6, r6, lsl #24
    5604:	0e210200 	cdpeq	2, 2, cr0, cr1, cr0, {0}
    5608:	000000b9 	strheq	r0, [r0], -r9
    560c:	008c0407 	addeq	r0, ip, r7, lsl #8
    5610:	de090000 	cdple	0, 0, cr0, cr9, cr0, {0}
    5614:	01000007 	tsteq	r0, r7
    5618:	a5580603 	ldrbge	r0, [r8, #-1539]	; 0xfffff9fd
    561c:	00040000 	andeq	r0, r4, r0
    5620:	9c010000 	stcls	0, cr0, [r1], {-0}
	...

Disassembly of section .debug_abbrev:

00000000 <.debug_abbrev>:
       0:	25011101 	strcs	r1, [r1, #-257]	; 0xfffffeff
       4:	030b130e 	movweq	r1, #45838	; 0xb30e
       8:	110e1b0e 	tstne	lr, lr, lsl #22
       c:	10061201 	andne	r1, r6, r1, lsl #4
      10:	02000017 	andeq	r0, r0, #23, 0
      14:	0b0b0024 	bleq	2c00ac <__bss_end__+0x2b4e14>
      18:	08030b3e 	stmdaeq	r3, {r1, r2, r3, r4, r5, r8, r9, fp}
      1c:	24030000 	strcs	r0, [r3], #-0
      20:	3e0b0b00 	vmlacc.f64	d0, d11, d0
      24:	000e030b 	andeq	r0, lr, fp, lsl #6
      28:	01150400 	tsteq	r5, r0, lsl #8
      2c:	13491927 	movtne	r1, #39207	; 0x9927
      30:	00001301 	andeq	r1, r0, r1, lsl #6
      34:	49000505 	stmdbmi	r0, {r0, r2, r8, sl}
      38:	06000013 			; <UNDEFINED> instruction: 0x06000013
      3c:	0e030034 	mcreq	0, 0, r0, cr3, cr4, {1}
      40:	0b3b0b3a 	bleq	ec2d30 <__bss_end__+0xeb7a98>
      44:	13490b39 	movtne	r0, #39737	; 0x9b39
      48:	193c193f 	ldmdbne	ip!, {r0, r1, r2, r3, r4, r5, r8, fp, ip}
      4c:	0f070000 	svceq	0x00070000
      50:	490b0b00 	stmdbmi	fp, {r8, r9, fp}
      54:	08000013 	stmdaeq	r0, {r0, r1, r4}
      58:	13490026 	movtne	r0, #36902	; 0x9026
      5c:	13090000 	movwne	r0, #36864	; 0x9000
      60:	3a0b0b01 	bcc	2c2c6c <__bss_end__+0x2b79d4>
      64:	390b3b0b 	stmdbcc	fp, {r0, r1, r3, r8, r9, fp, ip, sp}
      68:	0013010b 	andseq	r0, r3, fp, lsl #2
      6c:	000d0a00 	andeq	r0, sp, r0, lsl #20
      70:	0b3a0e03 	bleq	e83884 <__bss_end__+0xe785ec>
      74:	0b390b3b 	bleq	e42d68 <__bss_end__+0xe37ad0>
      78:	0b381349 	bleq	e04da4 <__bss_end__+0xdf9b0c>
      7c:	160b0000 	strne	r0, [fp], -r0
      80:	3a0e0300 	bcc	380c88 <__bss_end__+0x3759f0>
      84:	390b3b0b 	stmdbcc	fp, {r0, r1, r3, r8, r9, fp, ip, sp}
      88:	0013490b 	andseq	r4, r3, fp, lsl #18
      8c:	012e0c00 			; <UNDEFINED> instruction: 0x012e0c00
      90:	0e03193f 			; <UNDEFINED> instruction: 0x0e03193f
      94:	0b3b0b3a 	bleq	ec2d84 <__bss_end__+0xeb7aec>
      98:	19270b39 	stmdbne	r7!, {r0, r3, r4, r5, r8, r9, fp}
      9c:	06120111 			; <UNDEFINED> instruction: 0x06120111
      a0:	42971840 	addsmi	r1, r7, #64, 16	; 0x400000
      a4:	00130119 	andseq	r0, r3, r9, lsl r1
      a8:	00340d00 	eorseq	r0, r4, r0, lsl #26
      ac:	0b3a0803 	bleq	e820c0 <__bss_end__+0xe76e28>
      b0:	0b390b3b 	bleq	e42da4 <__bss_end__+0xe37b0c>
      b4:	17021349 	strne	r1, [r2, -r9, asr #6]
      b8:	001742b7 			; <UNDEFINED> instruction: 0x001742b7
      bc:	00340e00 	eorseq	r0, r4, r0, lsl #28
      c0:	13490e03 	movtne	r0, #40451	; 0x9e03
      c4:	18021934 	stmdane	r2, {r2, r4, r5, r8, fp, ip}
      c8:	1d0f0000 	stcne	0, cr0, [pc, #-0]	; d0 <__code_start__-0x7f30>
      cc:	52133101 	andspl	r3, r3, #1073741824	; 0x40000000
      d0:	0b42b801 	bleq	10ae0dc <__bss_end__+0x10a2e44>
      d4:	06120111 			; <UNDEFINED> instruction: 0x06120111
      d8:	0b590b58 	bleq	1642e40 <__bss_end__+0x1637ba8>
      dc:	13010b57 	movwne	r0, #6999	; 0x1b57
      e0:	05100000 	ldreq	r0, [r0, #-0]
      e4:	02133100 	andseq	r3, r3, #0
      e8:	1742b717 	smlaldne	fp, r2, r7, r7
      ec:	89110000 	ldmdbhi	r1, {}	; <UNPREDICTABLE>
      f0:	11010182 	smlabbne	r1, r2, r1, r0
      f4:	01133101 	tsteq	r3, r1, lsl #2
      f8:	12000013 	andne	r0, r0, #19, 0
      fc:	0001828a 	andeq	r8, r1, sl, lsl #5
     100:	42911802 	addsmi	r1, r1, #131072	; 0x20000
     104:	13000018 	movwne	r0, #24
     108:	00018289 	andeq	r8, r1, r9, lsl #5
     10c:	13310111 	teqne	r1, #1073741828	; 0x40000004
     110:	01140000 	tsteq	r4, r0
     114:	01134901 	tsteq	r3, r1, lsl #18
     118:	15000013 	strne	r0, [r0, #-19]	; 0xffffffed
     11c:	13490021 	movtne	r0, #36897	; 0x9021
     120:	00000b2f 	andeq	r0, r0, pc, lsr #22
     124:	03012e16 	movweq	r2, #7702	; 0x1e16
     128:	3b0b3a0e 	blcc	2ce968 <__bss_end__+0x2c36d0>
     12c:	270b390b 	strcs	r3, [fp, -fp, lsl #18]
     130:	20134919 	andscs	r4, r3, r9, lsl r9
     134:	0013010b 	andseq	r0, r3, fp, lsl #2
     138:	00051700 	andeq	r1, r5, r0, lsl #14
     13c:	0b3a0e03 	bleq	e83950 <__bss_end__+0xe786b8>
     140:	0b390b3b 	bleq	e42e34 <__bss_end__+0xe37b9c>
     144:	00001349 	andeq	r1, r0, r9, asr #6
     148:	02003618 	andeq	r3, r0, #24, 12	; 0x1800000
     14c:	19000018 	stmdbne	r0, {r3, r4}
     150:	193f002e 	ldmdbne	pc!, {r1, r2, r3, r5}	; <UNPREDICTABLE>
     154:	0e6e193c 			; <UNDEFINED> instruction: 0x0e6e193c
     158:	0b3a0e03 	bleq	e8396c <__bss_end__+0xe786d4>
     15c:	0b390b3b 	bleq	e42e50 <__bss_end__+0xe37bb8>
     160:	01000000 	mrseq	r0, (UNDEF: 0)
     164:	0e250111 	mcreq	1, 1, r0, cr5, cr1, {0}
     168:	0e030b13 	vmoveq.32	d3[0], r0
     16c:	01110e1b 	tsteq	r1, fp, lsl lr
     170:	17100612 			; <UNDEFINED> instruction: 0x17100612
     174:	24020000 	strcs	r0, [r2], #-0
     178:	3e0b0b00 	vmlacc.f64	d0, d11, d0
     17c:	0008030b 	andeq	r0, r8, fp, lsl #6
     180:	00240300 	eoreq	r0, r4, r0, lsl #6
     184:	0b3e0b0b 	bleq	f82db8 <__bss_end__+0xf77b20>
     188:	00000e03 	andeq	r0, r0, r3, lsl #28
     18c:	03001604 	movweq	r1, #1540	; 0x604
     190:	3b0b3a0e 	blcc	2ce9d0 <__bss_end__+0x2c3738>
     194:	490b390b 	stmdbmi	fp, {r0, r1, r3, r8, fp, ip, sp}
     198:	05000013 	streq	r0, [r0, #-19]	; 0xffffffed
     19c:	19270115 	stmdbne	r7!, {r0, r2, r4, r8}
     1a0:	13011349 	movwne	r1, #4937	; 0x1349
     1a4:	05060000 	streq	r0, [r6, #-0]
     1a8:	00134900 	andseq	r4, r3, r0, lsl #18
     1ac:	00340700 	eorseq	r0, r4, r0, lsl #14
     1b0:	0b3a0e03 	bleq	e839c4 <__bss_end__+0xe7872c>
     1b4:	0b390b3b 	bleq	e42ea8 <__bss_end__+0xe37c10>
     1b8:	193f1349 	ldmdbne	pc!, {r0, r3, r6, r8, r9, ip}	; <UNPREDICTABLE>
     1bc:	0000193c 	andeq	r1, r0, ip, lsr r9
     1c0:	0b000f08 	bleq	3de8 <__code_start__-0x4218>
     1c4:	0013490b 	andseq	r4, r3, fp, lsl #18
     1c8:	00260900 	eoreq	r0, r6, r0, lsl #18
     1cc:	00001349 	andeq	r1, r0, r9, asr #6
     1d0:	0b01130a 	bleq	44e00 <__bss_end__+0x39b68>
     1d4:	3b0b3a0b 	blcc	2cea08 <__bss_end__+0x2c3770>
     1d8:	010b390b 	tsteq	fp, fp, lsl #18
     1dc:	0b000013 	bleq	230 <__code_start__-0x7dd0>
     1e0:	0e03000d 	cdpeq	0, 0, cr0, cr3, cr13, {0}
     1e4:	0b3b0b3a 	bleq	ec2ed4 <__bss_end__+0xeb7c3c>
     1e8:	13490b39 	movtne	r0, #39737	; 0x9b39
     1ec:	00000b38 	andeq	r0, r0, r8, lsr fp
     1f0:	3e01040c 	cdpcc	4, 0, cr0, cr1, cr12, {0}
     1f4:	490b0b0b 	stmdbmi	fp, {r0, r1, r3, r8, r9, fp}
     1f8:	3b0b3a13 	blcc	2cea4c <__bss_end__+0x2c37b4>
     1fc:	010b390b 	tsteq	fp, fp, lsl #18
     200:	0d000013 	stceq	0, cr0, [r0, #-76]	; 0xffffffb4
     204:	0e030028 	cdpeq	0, 0, cr0, cr3, cr8, {1}
     208:	00000b1c 	andeq	r0, r0, ip, lsl fp
     20c:	0301130e 	movweq	r1, #4878	; 0x130e
     210:	3a0b0b0e 	bcc	2c2e50 <__bss_end__+0x2b7bb8>
     214:	390b3b0b 	stmdbcc	fp, {r0, r1, r3, r8, r9, fp, ip, sp}
     218:	0013010b 	andseq	r0, r3, fp, lsl #2
     21c:	000d0f00 	andeq	r0, sp, r0, lsl #30
     220:	0b3a0803 	bleq	e82234 <__bss_end__+0xe76f9c>
     224:	0b390b3b 	bleq	e42f18 <__bss_end__+0xe37c80>
     228:	0b381349 	bleq	e04f54 <__bss_end__+0xdf9cbc>
     22c:	01100000 	tsteq	r0, r0
     230:	01134901 	tsteq	r3, r1, lsl #18
     234:	11000013 	tstne	r0, r3, lsl r0
     238:	13490021 	movtne	r0, #36897	; 0x9021
     23c:	00000b2f 	andeq	r0, r0, pc, lsr #22
     240:	0b000f12 	bleq	3e90 <__code_start__-0x4170>
     244:	1300000b 	movwne	r0, #11
     248:	0e030034 	mcreq	0, 0, r0, cr3, cr4, {1}
     24c:	0b3b0b3a 	bleq	ec2f3c <__bss_end__+0xeb7ca4>
     250:	13490b39 	movtne	r0, #39737	; 0x9b39
     254:	00001802 	andeq	r1, r0, r2, lsl #16
     258:	3f012e14 	svccc	0x00012e14
     25c:	3a0e0319 	bcc	380ec8 <__bss_end__+0x375c30>
     260:	390b3b0b 	stmdbcc	fp, {r0, r1, r3, r8, r9, fp, ip, sp}
     264:	4919270b 	ldmdbmi	r9, {r0, r1, r3, r8, r9, sl, sp}
     268:	12011113 	andne	r1, r1, #-1073741820	; 0xc0000004
     26c:	97184006 	ldrls	r4, [r8, -r6]
     270:	13011942 	movwne	r1, #6466	; 0x1942
     274:	05150000 	ldreq	r0, [r5, #-0]
     278:	3a0e0300 	bcc	380e80 <__bss_end__+0x375be8>
     27c:	390b3b0b 	stmdbcc	fp, {r0, r1, r3, r8, r9, fp, ip, sp}
     280:	0213490b 	andseq	r4, r3, #180224	; 0x2c000
     284:	1742b717 	smlaldne	fp, r2, r7, r7
     288:	05160000 	ldreq	r0, [r6, #-0]
     28c:	3a080300 	bcc	200e94 <__bss_end__+0x1f5bfc>
     290:	390b3b0b 	stmdbcc	fp, {r0, r1, r3, r8, r9, fp, ip, sp}
     294:	0213490b 	andseq	r4, r3, #180224	; 0x2c000
     298:	17000018 	smladne	r0, r8, r0, r0
     29c:	08030034 	stmdaeq	r3, {r2, r4, r5}
     2a0:	0b3b0b3a 	bleq	ec2f90 <__bss_end__+0xeb7cf8>
     2a4:	13490b39 	movtne	r0, #39737	; 0x9b39
     2a8:	42b71702 	adcsmi	r1, r7, #524288	; 0x80000
     2ac:	18000017 	stmdane	r0, {r0, r1, r2, r4}
     2b0:	0111010b 	tsteq	r1, fp, lsl #2
     2b4:	13010612 	movwne	r0, #5650	; 0x1612
     2b8:	89190000 	ldmdbhi	r9, {}	; <UNPREDICTABLE>
     2bc:	11010182 	smlabbne	r1, r2, r1, r0
     2c0:	01133101 	tsteq	r3, r1, lsl #2
     2c4:	1a000013 	bne	318 <__code_start__-0x7ce8>
     2c8:	0001828a 	andeq	r8, r1, sl, lsl #5
     2cc:	42911802 	addsmi	r1, r1, #131072	; 0x20000
     2d0:	1b000018 	blne	338 <__code_start__-0x7cc8>
     2d4:	01018289 	smlabbeq	r1, r9, r2, r8
     2d8:	13310111 	teqne	r1, #1073741828	; 0x40000004
     2dc:	2e1c0000 	cdpcs	0, 1, cr0, cr12, cr0, {0}
     2e0:	03193f01 	tsteq	r9, #1, 30
     2e4:	3b0b3a0e 	blcc	2ceb24 <__bss_end__+0x2c388c>
     2e8:	270b390b 	strcs	r3, [fp, -fp, lsl #18]
     2ec:	12011119 	andne	r1, r1, #1073741830	; 0x40000006
     2f0:	97184006 	ldrls	r4, [r8, -r6]
     2f4:	13011942 	movwne	r1, #6466	; 0x1942
     2f8:	341d0000 	ldrcc	r0, [sp], #-0
     2fc:	490e0300 	stmdbmi	lr, {r8, r9}
     300:	02193413 	andseq	r3, r9, #318767104	; 0x13000000
     304:	1e000018 	mcrne	0, 0, r0, cr0, cr8, {0}
     308:	1755010b 	ldrbne	r0, [r5, -fp, lsl #2]
     30c:	00001301 	andeq	r1, r0, r1, lsl #6
     310:	0182891f 	orreq	r8, r2, pc, lsl r9
     314:	31011100 	mrscc	r1, (UNDEF: 17)
     318:	20000013 	andcs	r0, r0, r3, lsl r0
     31c:	08030005 	stmdaeq	r3, {r0, r2}
     320:	0b3b0b3a 	bleq	ec3010 <__bss_end__+0xeb7d78>
     324:	13490b39 	movtne	r0, #39737	; 0x9b39
     328:	42b71702 	adcsmi	r1, r7, #524288	; 0x80000
     32c:	21000017 	tstcs	r0, r7, lsl r0
     330:	0111010b 	tsteq	r1, fp, lsl #2
     334:	00000612 	andeq	r0, r0, r2, lsl r6
     338:	31011d22 	tstcc	r1, r2, lsr #26
     33c:	b8015213 	stmdalt	r1, {r0, r1, r4, r9, ip, lr}
     340:	01110b42 	tsteq	r1, r2, asr #22
     344:	0b580612 	bleq	1601b94 <__bss_end__+0x15f68fc>
     348:	0b570b59 	bleq	15c30b4 <__bss_end__+0x15b7e1c>
     34c:	00001301 	andeq	r1, r0, r1, lsl #6
     350:	31000523 	tstcc	r0, r3, lsr #10
     354:	b7170213 			; <UNDEFINED> instruction: 0xb7170213
     358:	00001742 	andeq	r1, r0, r2, asr #14
     35c:	3f002e24 	svccc	0x00002e24
     360:	3a0e0319 	bcc	380fcc <__bss_end__+0x375d34>
     364:	390b3b0b 	stmdbcc	fp, {r0, r1, r3, r8, r9, fp, ip, sp}
     368:	4919270b 	ldmdbmi	r9, {r0, r1, r3, r8, r9, sl, sp}
     36c:	12011113 	andne	r1, r1, #-1073741820	; 0xc0000004
     370:	97184006 	ldrls	r4, [r8, -r6]
     374:	00001942 	andeq	r1, r0, r2, asr #18
     378:	03012e25 	movweq	r2, #7717	; 0x1e25
     37c:	3b0b3a0e 	blcc	2cebbc <__bss_end__+0x2c3924>
     380:	270b390b 	strcs	r3, [fp, -fp, lsl #18]
     384:	20134919 	andscs	r4, r3, r9, lsl r9
     388:	0013010b 	andseq	r0, r3, fp, lsl #2
     38c:	00052600 	andeq	r2, r5, r0, lsl #12
     390:	0b3a0803 	bleq	e823a4 <__bss_end__+0xe7710c>
     394:	0b390b3b 	bleq	e43088 <__bss_end__+0xe37df0>
     398:	00001349 	andeq	r1, r0, r9, asr #6
     39c:	3f002e27 	svccc	0x00002e27
     3a0:	6e193c19 	mrcvs	12, 0, r3, cr9, cr9, {0}
     3a4:	3a0e030e 	bcc	380fe4 <__bss_end__+0x375d4c>
     3a8:	390b3b0b 	stmdbcc	fp, {r0, r1, r3, r8, r9, fp, ip, sp}
     3ac:	0000000b 	andeq	r0, r0, fp
     3b0:	25011101 	strcs	r1, [r1, #-257]	; 0xfffffeff
     3b4:	030b130e 	movweq	r1, #45838	; 0xb30e
     3b8:	110e1b0e 	tstne	lr, lr, lsl #22
     3bc:	10061201 	andne	r1, r6, r1, lsl #4
     3c0:	02000017 	andeq	r0, r0, #23, 0
     3c4:	0b0b0024 	bleq	2c045c <__bss_end__+0x2b51c4>
     3c8:	08030b3e 	stmdaeq	r3, {r1, r2, r3, r4, r5, r8, r9, fp}
     3cc:	24030000 	strcs	r0, [r3], #-0
     3d0:	3e0b0b00 	vmlacc.f64	d0, d11, d0
     3d4:	000e030b 	andeq	r0, lr, fp, lsl #6
     3d8:	01150400 	tsteq	r5, r0, lsl #8
     3dc:	13491927 	movtne	r1, #39207	; 0x9927
     3e0:	00001301 	andeq	r1, r0, r1, lsl #6
     3e4:	49000505 	stmdbmi	r0, {r0, r2, r8, sl}
     3e8:	06000013 			; <UNDEFINED> instruction: 0x06000013
     3ec:	0e030034 	mcreq	0, 0, r0, cr3, cr4, {1}
     3f0:	0b3b0b3a 	bleq	ec30e0 <__bss_end__+0xeb7e48>
     3f4:	13490b39 	movtne	r0, #39737	; 0x9b39
     3f8:	193c193f 	ldmdbne	ip!, {r0, r1, r2, r3, r4, r5, r8, fp, ip}
     3fc:	0f070000 	svceq	0x00070000
     400:	490b0b00 	stmdbmi	fp, {r8, r9, fp}
     404:	08000013 	stmdaeq	r0, {r0, r1, r4}
     408:	13490026 	movtne	r0, #36902	; 0x9026
     40c:	17090000 	strne	r0, [r9, -r0]
     410:	0b0e0301 	bleq	38101c <__bss_end__+0x375d84>
     414:	3b0b3a0b 	blcc	2cec48 <__bss_end__+0x2c39b0>
     418:	010b390b 	tsteq	fp, fp, lsl #18
     41c:	0a000013 	beq	470 <__code_start__-0x7b90>
     420:	0803000d 	stmdaeq	r3, {r0, r2, r3}
     424:	0b3b0b3a 	bleq	ec3114 <__bss_end__+0xeb7e7c>
     428:	13490b39 	movtne	r0, #39737	; 0x9b39
     42c:	0f0b0000 	svceq	0x000b0000
     430:	000b0b00 	andeq	r0, fp, r0, lsl #22
     434:	00150c00 	andseq	r0, r5, r0, lsl #24
     438:	00001927 	andeq	r1, r0, r7, lsr #18
     43c:	0b01130d 	bleq	45078 <__bss_end__+0x39de0>
     440:	3b0b3a0b 	blcc	2cec74 <__bss_end__+0x2c39dc>
     444:	010b390b 	tsteq	fp, fp, lsl #18
     448:	0e000013 	mcreq	0, 0, r0, cr0, cr3, {0}
     44c:	0803000d 	stmdaeq	r3, {r0, r2, r3}
     450:	0b3b0b3a 	bleq	ec3140 <__bss_end__+0xeb7ea8>
     454:	13490b39 	movtne	r0, #39737	; 0x9b39
     458:	00000b38 	andeq	r0, r0, r8, lsr fp
     45c:	03000d0f 	movweq	r0, #3343	; 0xd0f
     460:	3b0b3a0e 	blcc	2ceca0 <__bss_end__+0x2c3a08>
     464:	490b390b 	stmdbmi	fp, {r0, r1, r3, r8, fp, ip, sp}
     468:	000b3813 	andeq	r3, fp, r3, lsl r8
     46c:	00161000 	andseq	r1, r6, r0
     470:	0b3a0e03 	bleq	e83c84 <__bss_end__+0xe789ec>
     474:	0b390b3b 	bleq	e43168 <__bss_end__+0xe37ed0>
     478:	00001349 	andeq	r1, r0, r9, asr #6
     47c:	03003411 	movweq	r3, #1041	; 0x411
     480:	3b0b3a0e 	blcc	2cecc0 <__bss_end__+0x2c3a28>
     484:	490b390b 	stmdbmi	fp, {r0, r1, r3, r8, fp, ip, sp}
     488:	00180213 	andseq	r0, r8, r3, lsl r2
     48c:	012e1200 			; <UNDEFINED> instruction: 0x012e1200
     490:	0e03193f 			; <UNDEFINED> instruction: 0x0e03193f
     494:	0b3b0b3a 	bleq	ec3184 <__bss_end__+0xeb7eec>
     498:	19270b39 	stmdbne	r7!, {r0, r3, r4, r5, r8, r9, fp}
     49c:	06120111 			; <UNDEFINED> instruction: 0x06120111
     4a0:	42971840 	addsmi	r1, r7, #64, 16	; 0x400000
     4a4:	00130119 	andseq	r0, r3, r9, lsl r1
     4a8:	00051300 	andeq	r1, r5, r0, lsl #6
     4ac:	0b3a0803 	bleq	e824c0 <__bss_end__+0xe77228>
     4b0:	0b390b3b 	bleq	e431a4 <__bss_end__+0xe37f0c>
     4b4:	18021349 	stmdane	r2, {r0, r3, r6, r8, r9, ip}
     4b8:	34140000 	ldrcc	r0, [r4], #-0
     4bc:	3a080300 	bcc	2010c4 <__bss_end__+0x1f5e2c>
     4c0:	390b3b0b 	stmdbcc	fp, {r0, r1, r3, r8, r9, fp, ip, sp}
     4c4:	0213490b 	andseq	r4, r3, #180224	; 0x2c000
     4c8:	1742b717 	smlaldne	fp, r2, r7, r7
     4cc:	2e150000 	cdpcs	0, 1, cr0, cr5, cr0, {0}
     4d0:	03193f01 	tsteq	r9, #1, 30
     4d4:	3b0b3a0e 	blcc	2ced14 <__bss_end__+0x2c3a7c>
     4d8:	270b390b 	strcs	r3, [fp, -fp, lsl #18]
     4dc:	11134919 	tstne	r3, r9, lsl r9
     4e0:	40061201 	andmi	r1, r6, r1, lsl #4
     4e4:	19429718 	stmdbne	r2, {r3, r4, r8, r9, sl, ip, pc}^
     4e8:	00001301 	andeq	r1, r0, r1, lsl #6
     4ec:	03000516 	movweq	r0, #1302	; 0x516
     4f0:	3b0b3a0e 	blcc	2ced30 <__bss_end__+0x2c3a98>
     4f4:	490b390b 	stmdbmi	fp, {r0, r1, r3, r8, fp, ip, sp}
     4f8:	b7170213 			; <UNDEFINED> instruction: 0xb7170213
     4fc:	00001742 	andeq	r1, r0, r2, asr #14
     500:	03003417 	movweq	r3, #1047	; 0x417
     504:	3b0b3a0e 	blcc	2ced44 <__bss_end__+0x2c3aac>
     508:	490b390b 	stmdbmi	fp, {r0, r1, r3, r8, fp, ip, sp}
     50c:	b7170213 			; <UNDEFINED> instruction: 0xb7170213
     510:	00001742 	andeq	r1, r0, r2, asr #14
     514:	01828918 	orreq	r8, r2, r8, lsl r9
     518:	31011101 	tstcc	r1, r1, lsl #2
     51c:	19000013 	stmdbne	r0, {r0, r1, r4}
     520:	0001828a 	andeq	r8, r1, sl, lsl #5
     524:	42911802 	addsmi	r1, r1, #131072	; 0x20000
     528:	1a000018 	bne	590 <__code_start__-0x7a70>
     52c:	0e03012e 	adfeqsp	f0, f3, #0.5
     530:	0b3b0b3a 	bleq	ec3220 <__bss_end__+0xeb7f88>
     534:	19270b39 	stmdbne	r7!, {r0, r3, r4, r5, r8, r9, fp}
     538:	01111349 	tsteq	r1, r9, asr #6
     53c:	18400612 	stmdane	r0, {r1, r4, r9, sl}^
     540:	01194297 			; <UNDEFINED> instruction: 0x01194297
     544:	1b000013 	blne	598 <__code_start__-0x7a68>
     548:	08030005 	stmdaeq	r3, {r0, r2}
     54c:	0b3b0b3a 	bleq	ec323c <__bss_end__+0xeb7fa4>
     550:	13490b39 	movtne	r0, #39737	; 0x9b39
     554:	42b71702 	adcsmi	r1, r7, #524288	; 0x80000
     558:	1c000017 	stcne	0, cr0, [r0], {23}
     55c:	01018289 	smlabbeq	r1, r9, r2, r8
     560:	13310111 	teqne	r1, #1073741828	; 0x40000004
     564:	00001301 	andeq	r1, r0, r1, lsl #6
     568:	0182891d 	orreq	r8, r2, sp, lsl r9
     56c:	31011100 	mrscc	r1, (UNDEF: 17)
     570:	1e000013 	mcrne	0, 0, r0, cr0, cr3, {0}
     574:	193f002e 	ldmdbne	pc!, {r1, r2, r3, r5}	; <UNPREDICTABLE>
     578:	0e6e193c 			; <UNDEFINED> instruction: 0x0e6e193c
     57c:	0b3a0e03 	bleq	e83d90 <__bss_end__+0xe78af8>
     580:	0b390b3b 	bleq	e43274 <__bss_end__+0xe37fdc>
     584:	01000000 	mrseq	r0, (UNDEF: 0)
     588:	0e250111 	mcreq	1, 1, r0, cr5, cr1, {0}
     58c:	0e030b13 	vmoveq.32	d3[0], r0
     590:	01110e1b 	tsteq	r1, fp, lsl lr
     594:	17100612 			; <UNDEFINED> instruction: 0x17100612
     598:	24020000 	strcs	r0, [r2], #-0
     59c:	3e0b0b00 	vmlacc.f64	d0, d11, d0
     5a0:	0008030b 	andeq	r0, r8, fp, lsl #6
     5a4:	00240300 	eoreq	r0, r4, r0, lsl #6
     5a8:	0b3e0b0b 	bleq	f831dc <__bss_end__+0xf77f44>
     5ac:	00000e03 	andeq	r0, r0, r3, lsl #28
     5b0:	03001604 	movweq	r1, #1540	; 0x604
     5b4:	3b0b3a0e 	blcc	2cedf4 <__bss_end__+0x2c3b5c>
     5b8:	490b390b 	stmdbmi	fp, {r0, r1, r3, r8, fp, ip, sp}
     5bc:	05000013 	streq	r0, [r0, #-19]	; 0xffffffed
     5c0:	19270115 	stmdbne	r7!, {r0, r2, r4, r8}
     5c4:	13011349 	movwne	r1, #4937	; 0x1349
     5c8:	05060000 	streq	r0, [r6, #-0]
     5cc:	00134900 	andseq	r4, r3, r0, lsl #18
     5d0:	00340700 	eorseq	r0, r4, r0, lsl #14
     5d4:	0b3a0e03 	bleq	e83de8 <__bss_end__+0xe78b50>
     5d8:	0b390b3b 	bleq	e432cc <__bss_end__+0xe38034>
     5dc:	193f1349 	ldmdbne	pc!, {r0, r3, r6, r8, r9, ip}	; <UNPREDICTABLE>
     5e0:	0000193c 	andeq	r1, r0, ip, lsr r9
     5e4:	0b000f08 	bleq	420c <__code_start__-0x3df4>
     5e8:	0013490b 	andseq	r4, r3, fp, lsl #18
     5ec:	00260900 	eoreq	r0, r6, r0, lsl #18
     5f0:	00001349 	andeq	r1, r0, r9, asr #6
     5f4:	0b01130a 	bleq	45224 <__bss_end__+0x39f8c>
     5f8:	3b0b3a0b 	blcc	2cee2c <__bss_end__+0x2c3b94>
     5fc:	010b390b 	tsteq	fp, fp, lsl #18
     600:	0b000013 	bleq	654 <__code_start__-0x79ac>
     604:	0e03000d 	cdpeq	0, 0, cr0, cr3, cr13, {0}
     608:	0b3b0b3a 	bleq	ec32f8 <__bss_end__+0xeb8060>
     60c:	13490b39 	movtne	r0, #39737	; 0x9b39
     610:	00000b38 	andeq	r0, r0, r8, lsr fp
     614:	3e01040c 	cdpcc	4, 0, cr0, cr1, cr12, {0}
     618:	490b0b0b 	stmdbmi	fp, {r0, r1, r3, r8, r9, fp}
     61c:	3b0b3a13 	blcc	2cee70 <__bss_end__+0x2c3bd8>
     620:	010b390b 	tsteq	fp, fp, lsl #18
     624:	0d000013 	stceq	0, cr0, [r0, #-76]	; 0xffffffb4
     628:	0e030028 	cdpeq	0, 0, cr0, cr3, cr8, {1}
     62c:	00000b1c 	andeq	r0, r0, ip, lsl fp
     630:	0301130e 	movweq	r1, #4878	; 0x130e
     634:	3a0b0b0e 	bcc	2c3274 <__bss_end__+0x2b7fdc>
     638:	390b3b0b 	stmdbcc	fp, {r0, r1, r3, r8, r9, fp, ip, sp}
     63c:	0013010b 	andseq	r0, r3, fp, lsl #2
     640:	000d0f00 	andeq	r0, sp, r0, lsl #30
     644:	0b3a0803 	bleq	e82658 <__bss_end__+0xe773c0>
     648:	0b390b3b 	bleq	e4333c <__bss_end__+0xe380a4>
     64c:	0b381349 	bleq	e05378 <__bss_end__+0xdfa0e0>
     650:	01100000 	tsteq	r0, r0
     654:	01134901 	tsteq	r3, r1, lsl #18
     658:	11000013 	tstne	r0, r3, lsl r0
     65c:	13490021 	movtne	r0, #36897	; 0x9021
     660:	00000b2f 	andeq	r0, r0, pc, lsr #22
     664:	0b000f12 	bleq	42b4 <__code_start__-0x3d4c>
     668:	1300000b 	movwne	r0, #11
     66c:	0e030034 	mcreq	0, 0, r0, cr3, cr4, {1}
     670:	0b3b0b3a 	bleq	ec3360 <__bss_end__+0xeb80c8>
     674:	13490b39 	movtne	r0, #39737	; 0x9b39
     678:	00001802 	andeq	r1, r0, r2, lsl #16
     67c:	3f012e14 	svccc	0x00012e14
     680:	3a0e0319 	bcc	3812ec <__bss_end__+0x376054>
     684:	39053b0b 	stmdbcc	r5, {r0, r1, r3, r8, r9, fp, ip, sp}
     688:	1119270b 	tstne	r9, fp, lsl #14
     68c:	40061201 	andmi	r1, r6, r1, lsl #4
     690:	19429718 	stmdbne	r2, {r3, r4, r8, r9, sl, ip, pc}^
     694:	00001301 	andeq	r1, r0, r1, lsl #6
     698:	03003415 	movweq	r3, #1045	; 0x415
     69c:	3413490e 	ldrcc	r4, [r3], #-2318	; 0xfffff6f2
     6a0:	00180219 	andseq	r0, r8, r9, lsl r2
     6a4:	82891600 	addhi	r1, r9, #0, 12
     6a8:	01110101 	tsteq	r1, r1, lsl #2
     6ac:	13011331 	movwne	r1, #4913	; 0x1331
     6b0:	8a170000 	bhi	5c06b8 <__bss_end__+0x5b5420>
     6b4:	02000182 	andeq	r0, r0, #-2147483616	; 0x80000020
     6b8:	18429118 	stmdane	r2, {r3, r4, r8, ip, pc}^
     6bc:	89180000 	ldmdbhi	r8, {}	; <UNPREDICTABLE>
     6c0:	11000182 	smlabbne	r0, r2, r1, r0
     6c4:	00133101 	andseq	r3, r3, r1, lsl #2
     6c8:	012e1900 			; <UNDEFINED> instruction: 0x012e1900
     6cc:	0e03193f 			; <UNDEFINED> instruction: 0x0e03193f
     6d0:	053b0b3a 	ldreq	r0, [fp, #-2874]!	; 0xfffff4c6
     6d4:	19270b39 	stmdbne	r7!, {r0, r3, r4, r5, r8, r9, fp}
     6d8:	01111349 	tsteq	r1, r9, asr #6
     6dc:	18400612 	stmdane	r0, {r1, r4, r9, sl}^
     6e0:	01194297 			; <UNDEFINED> instruction: 0x01194297
     6e4:	1a000013 	bne	738 <__code_start__-0x78c8>
     6e8:	0e030034 	mcreq	0, 0, r0, cr3, cr4, {1}
     6ec:	053b0b3a 	ldreq	r0, [fp, #-2874]!	; 0xfffff4c6
     6f0:	13490b39 	movtne	r0, #39737	; 0x9b39
     6f4:	42b71702 	adcsmi	r1, r7, #524288	; 0x80000
     6f8:	1b000017 	blne	75c <__code_start__-0x78a4>
     6fc:	0e03012e 	adfeqsp	f0, f3, #0.5
     700:	053b0b3a 	ldreq	r0, [fp, #-2874]!	; 0xfffff4c6
     704:	19270b39 	stmdbne	r7!, {r0, r3, r4, r5, r8, r9, fp}
     708:	01111349 	tsteq	r1, r9, asr #6
     70c:	18400612 	stmdane	r0, {r1, r4, r9, sl}^
     710:	01194297 			; <UNDEFINED> instruction: 0x01194297
     714:	1c000013 	stcne	0, cr0, [r0], {19}
     718:	1755010b 	ldrbne	r0, [r5, -fp, lsl #2]
     71c:	00001301 	andeq	r1, r0, r1, lsl #6
     720:	0300341d 	movweq	r3, #1053	; 0x41d
     724:	3b0b3a08 	blcc	2cef4c <__bss_end__+0x2c3cb4>
     728:	490b3905 	stmdbmi	fp, {r0, r2, r8, fp, ip, sp}
     72c:	b7170213 			; <UNDEFINED> instruction: 0xb7170213
     730:	00001742 	andeq	r1, r0, r2, asr #14
     734:	31011d1e 	tstcc	r1, lr, lsl sp
     738:	b8015213 	stmdalt	r1, {r0, r1, r4, r9, ip, lr}
     73c:	01110b42 	tsteq	r1, r2, asr #22
     740:	0b580612 	bleq	1601f90 <__bss_end__+0x15f6cf8>
     744:	0b570559 	bleq	15c1cb0 <__bss_end__+0x15b6a18>
     748:	00001301 	andeq	r1, r0, r1, lsl #6
     74c:	3100051f 	tstcc	r0, pc, lsl r5
     750:	b7170213 			; <UNDEFINED> instruction: 0xb7170213
     754:	00001742 	andeq	r1, r0, r2, asr #14
     758:	01828920 	orreq	r8, r2, r0, lsr #18
     75c:	31011101 	tstcc	r1, r1, lsl #2
     760:	21000013 	tstcs	r0, r3, lsl r0
     764:	193f012e 	ldmdbne	pc!, {r1, r2, r3, r5, r8}	; <UNPREDICTABLE>
     768:	0b3a0e03 	bleq	e83f7c <__bss_end__+0xe78ce4>
     76c:	0b390b3b 	bleq	e43460 <__bss_end__+0xe381c8>
     770:	01111927 	tsteq	r1, r7, lsr #18
     774:	18400612 	stmdane	r0, {r1, r4, r9, sl}^
     778:	01194297 			; <UNDEFINED> instruction: 0x01194297
     77c:	22000013 	andcs	r0, r0, #19, 0
     780:	193f012e 	ldmdbne	pc!, {r1, r2, r3, r5, r8}	; <UNPREDICTABLE>
     784:	0b3a0e03 	bleq	e83f98 <__bss_end__+0xe78d00>
     788:	0b390b3b 	bleq	e4347c <__bss_end__+0xe381e4>
     78c:	13491927 	movtne	r1, #39207	; 0x9927
     790:	06120111 			; <UNDEFINED> instruction: 0x06120111
     794:	42971840 	addsmi	r1, r7, #64, 16	; 0x400000
     798:	00130119 	andseq	r0, r3, r9, lsl r1
     79c:	00052300 	andeq	r2, r5, r0, lsl #6
     7a0:	0b3a0e03 	bleq	e83fb4 <__bss_end__+0xe78d1c>
     7a4:	0b390b3b 	bleq	e43498 <__bss_end__+0xe38200>
     7a8:	17021349 	strne	r1, [r2, -r9, asr #6]
     7ac:	001742b7 			; <UNDEFINED> instruction: 0x001742b7
     7b0:	012e2400 			; <UNDEFINED> instruction: 0x012e2400
     7b4:	0b3a0e03 	bleq	e83fc8 <__bss_end__+0xe78d30>
     7b8:	0b390b3b 	bleq	e434ac <__bss_end__+0xe38214>
     7bc:	13491927 	movtne	r1, #39207	; 0x9927
     7c0:	06120111 			; <UNDEFINED> instruction: 0x06120111
     7c4:	42971840 	addsmi	r1, r7, #64, 16	; 0x400000
     7c8:	00130119 	andseq	r0, r3, r9, lsl r1
     7cc:	00342500 	eorseq	r2, r4, r0, lsl #10
     7d0:	0b3a0e03 	bleq	e83fe4 <__bss_end__+0xe78d4c>
     7d4:	0b390b3b 	bleq	e434c8 <__bss_end__+0xe38230>
     7d8:	17021349 	strne	r1, [r2, -r9, asr #6]
     7dc:	001742b7 			; <UNDEFINED> instruction: 0x001742b7
     7e0:	00342600 	eorseq	r2, r4, r0, lsl #12
     7e4:	0b3a0803 	bleq	e827f8 <__bss_end__+0xe77560>
     7e8:	0b390b3b 	bleq	e434dc <__bss_end__+0xe38244>
     7ec:	17021349 	strne	r1, [r2, -r9, asr #6]
     7f0:	001742b7 			; <UNDEFINED> instruction: 0x001742b7
     7f4:	010b2700 	tsteq	fp, r0, lsl #14
     7f8:	00001755 	andeq	r1, r0, r5, asr r7
     7fc:	03000528 	movweq	r0, #1320	; 0x528
     800:	3b0b3a0e 	blcc	2cf040 <__bss_end__+0x2c3da8>
     804:	490b390b 	stmdbmi	fp, {r0, r1, r3, r8, fp, ip, sp}
     808:	00180213 	andseq	r0, r8, r3, lsl r2
     80c:	012e2900 			; <UNDEFINED> instruction: 0x012e2900
     810:	0b3a0e03 	bleq	e84024 <__bss_end__+0xe78d8c>
     814:	0b390b3b 	bleq	e43508 <__bss_end__+0xe38270>
     818:	01111927 	tsteq	r1, r7, lsr #18
     81c:	18400612 	stmdane	r0, {r1, r4, r9, sl}^
     820:	01194297 			; <UNDEFINED> instruction: 0x01194297
     824:	2a000013 	bcs	878 <__code_start__-0x7788>
     828:	0e030034 	mcreq	0, 0, r0, cr3, cr4, {1}
     82c:	0b3b0b3a 	bleq	ec351c <__bss_end__+0xeb8284>
     830:	13490b39 	movtne	r0, #39737	; 0x9b39
     834:	0000061c 	andeq	r0, r0, ip, lsl r6
     838:	11010b2b 	tstne	r1, fp, lsr #22
     83c:	01061201 	tsteq	r6, r1, lsl #4
     840:	2c000013 	stccs	0, cr0, [r0], {19}
     844:	08030005 	stmdaeq	r3, {r0, r2}
     848:	0b3b0b3a 	bleq	ec3538 <__bss_end__+0xeb82a0>
     84c:	13490b39 	movtne	r0, #39737	; 0x9b39
     850:	42b71702 	adcsmi	r1, r7, #524288	; 0x80000
     854:	2d000017 	stccs	0, cr0, [r0, #-92]	; 0xffffffa4
     858:	0e03012e 	adfeqsp	f0, f3, #0.5
     85c:	0b3b0b3a 	bleq	ec354c <__bss_end__+0xeb82b4>
     860:	19270b39 	stmdbne	r7!, {r0, r3, r4, r5, r8, r9, fp}
     864:	0b201349 	bleq	805590 <__bss_end__+0x7fa2f8>
     868:	00001301 	andeq	r1, r0, r1, lsl #6
     86c:	0300052e 	movweq	r0, #1326	; 0x52e
     870:	3b0b3a0e 	blcc	2cf0b0 <__bss_end__+0x2c3e18>
     874:	490b390b 	stmdbmi	fp, {r0, r1, r3, r8, fp, ip, sp}
     878:	2f000013 	svccs	0x00000013
     87c:	193f002e 	ldmdbne	pc!, {r1, r2, r3, r5}	; <UNPREDICTABLE>
     880:	0e6e193c 			; <UNDEFINED> instruction: 0x0e6e193c
     884:	0b3a0e03 	bleq	e84098 <__bss_end__+0xe78e00>
     888:	0b390b3b 	bleq	e4357c <__bss_end__+0xe382e4>
     88c:	36300000 	ldrtcc	r0, [r0], -r0
     890:	00180200 	andseq	r0, r8, r0, lsl #4
     894:	11010000 	mrsne	r0, (UNDEF: 1)
     898:	130e2501 	movwne	r2, #58625	; 0xe501
     89c:	1b0e030b 	blne	3814d0 <__bss_end__+0x376238>
     8a0:	1201110e 	andne	r1, r1, #-2147483645	; 0x80000003
     8a4:	00171006 	andseq	r1, r7, r6
     8a8:	00240200 	eoreq	r0, r4, r0, lsl #4
     8ac:	0b3e0b0b 	bleq	f834e0 <__bss_end__+0xf78248>
     8b0:	00000803 	andeq	r0, r0, r3, lsl #16
     8b4:	0b002403 	bleq	98c8 <va_printk+0x498>
     8b8:	030b3e0b 	movweq	r3, #48651	; 0xbe0b
     8bc:	0400000e 	streq	r0, [r0], #-14
     8c0:	19270115 	stmdbne	r7!, {r0, r2, r4, r8}
     8c4:	13011349 	movwne	r1, #4937	; 0x1349
     8c8:	05050000 	streq	r0, [r5, #-0]
     8cc:	00134900 	andseq	r4, r3, r0, lsl #18
     8d0:	00340600 	eorseq	r0, r4, r0, lsl #12
     8d4:	0b3a0e03 	bleq	e840e8 <__bss_end__+0xe78e50>
     8d8:	0b390b3b 	bleq	e435cc <__bss_end__+0xe38334>
     8dc:	193f1349 	ldmdbne	pc!, {r0, r3, r6, r8, r9, ip}	; <UNPREDICTABLE>
     8e0:	0000193c 	andeq	r1, r0, ip, lsr r9
     8e4:	0b000f07 	bleq	4508 <__code_start__-0x3af8>
     8e8:	0013490b 	andseq	r4, r3, fp, lsl #18
     8ec:	00260800 	eoreq	r0, r6, r0, lsl #16
     8f0:	00001349 	andeq	r1, r0, r9, asr #6
     8f4:	3f012e09 	svccc	0x00012e09
     8f8:	3a0e0319 	bcc	381564 <__bss_end__+0x3762cc>
     8fc:	390b3b0b 	stmdbcc	fp, {r0, r1, r3, r8, r9, fp, ip, sp}
     900:	4919270b 	ldmdbmi	r9, {r0, r1, r3, r8, r9, sl, sp}
     904:	010b2013 	tsteq	fp, r3, lsl r0
     908:	0a000013 	beq	95c <__code_start__-0x76a4>
     90c:	0e030005 	cdpeq	0, 0, cr0, cr3, cr5, {0}
     910:	0b3b0b3a 	bleq	ec3600 <__bss_end__+0xeb8368>
     914:	13490b39 	movtne	r0, #39737	; 0x9b39
     918:	340b0000 	strcc	r0, [fp], #-0
     91c:	3a0e0300 	bcc	381524 <__bss_end__+0x37628c>
     920:	390b3b0b 	stmdbcc	fp, {r0, r1, r3, r8, r9, fp, ip, sp}
     924:	0013490b 	andseq	r4, r3, fp, lsl #18
     928:	010b0c00 	tsteq	fp, r0, lsl #24
     92c:	2e0d0000 	cdpcs	0, 0, cr0, cr13, cr0, {0}
     930:	03193f01 	tsteq	r9, #1, 30
     934:	3b0b3a0e 	blcc	2cf174 <__bss_end__+0x2c3edc>
     938:	490b390b 	stmdbmi	fp, {r0, r1, r3, r8, fp, ip, sp}
     93c:	12011113 	andne	r1, r1, #-1073741820	; 0xc0000004
     940:	97184006 	ldrls	r4, [r8, -r6]
     944:	13011942 	movwne	r1, #6466	; 0x1942
     948:	340e0000 	strcc	r0, [lr], #-0
     94c:	3a0e0300 	bcc	381554 <__bss_end__+0x3762bc>
     950:	390b3b0b 	stmdbcc	fp, {r0, r1, r3, r8, r9, fp, ip, sp}
     954:	0213490b 	andseq	r4, r3, #180224	; 0x2c000
     958:	1742b717 	smlaldne	fp, r2, r7, r7
     95c:	0b0f0000 	bleq	3c0964 <__bss_end__+0x3b56cc>
     960:	12011101 	andne	r1, r1, #1073741824	; 0x40000000
     964:	10000006 	andne	r0, r0, r6
     968:	08030034 	stmdaeq	r3, {r2, r4, r5}
     96c:	0b3b0b3a 	bleq	ec365c <__bss_end__+0xeb83c4>
     970:	13490b39 	movtne	r0, #39737	; 0x9b39
     974:	42b71702 	adcsmi	r1, r7, #524288	; 0x80000
     978:	11000017 	tstne	r0, r7, lsl r0
     97c:	1755010b 	ldrbne	r0, [r5, -fp, lsl #2]
     980:	1d120000 	ldcne	0, cr0, [r2, #-0]
     984:	52133101 	andspl	r3, r3, #1073741824	; 0x40000000
     988:	0b42b801 	bleq	10ae994 <__bss_end__+0x10a36fc>
     98c:	0b581755 	bleq	16066e8 <__bss_end__+0x15fb450>
     990:	0b570b59 	bleq	15c36fc <__bss_end__+0x15b8464>
     994:	00001301 	andeq	r1, r0, r1, lsl #6
     998:	31000513 	tstcc	r0, r3, lsl r5
     99c:	b7170213 			; <UNDEFINED> instruction: 0xb7170213
     9a0:	00001742 	andeq	r1, r0, r2, asr #14
     9a4:	31003414 	tstcc	r0, r4, lsl r4
     9a8:	b7170213 			; <UNDEFINED> instruction: 0xb7170213
     9ac:	00001742 	andeq	r1, r0, r2, asr #14
     9b0:	31010b15 	tstcc	r1, r5, lsl fp
     9b4:	00175513 	andseq	r5, r7, r3, lsl r5
     9b8:	82891600 	addhi	r1, r9, #0, 12
     9bc:	01110101 	tsteq	r1, r1, lsl #2
     9c0:	00001331 	andeq	r1, r0, r1, lsr r3
     9c4:	01828a17 	orreq	r8, r2, r7, lsl sl
     9c8:	91180200 	tstls	r8, r0, lsl #4
     9cc:	00001842 	andeq	r1, r0, r2, asr #16
     9d0:	31012e18 	tstcc	r1, r8, lsl lr
     9d4:	12011113 	andne	r1, r1, #-1073741820	; 0xc0000004
     9d8:	97184006 	ldrls	r4, [r8, -r6]
     9dc:	13011942 	movwne	r1, #6466	; 0x1942
     9e0:	0b190000 	bleq	6409e8 <__bss_end__+0x635750>
     9e4:	11133101 	tstne	r3, r1, lsl #2
     9e8:	00061201 	andeq	r1, r6, r1, lsl #4
     9ec:	002e1a00 	eoreq	r1, lr, r0, lsl #20
     9f0:	193c193f 	ldmdbne	ip!, {r0, r1, r2, r3, r4, r5, r8, fp, ip}
     9f4:	0e030e6e 	cdpeq	14, 0, cr0, cr3, cr14, {3}
     9f8:	0b3b0b3a 	bleq	ec36e8 <__bss_end__+0xeb8450>
     9fc:	00000b39 	andeq	r0, r0, r9, lsr fp
     a00:	01110100 	tsteq	r1, r0, lsl #2
     a04:	0b130e25 	bleq	4c42a0 <__bss_end__+0x4b9008>
     a08:	0e1b0e03 	cdpeq	14, 1, cr0, cr11, cr3, {0}
     a0c:	06120111 			; <UNDEFINED> instruction: 0x06120111
     a10:	00001710 	andeq	r1, r0, r0, lsl r7
     a14:	0b002402 	bleq	9a24 <va_printk+0x5f4>
     a18:	030b3e0b 	movweq	r3, #48651	; 0xbe0b
     a1c:	03000008 	movweq	r0, #8
     a20:	0e030016 	mcreq	0, 0, r0, cr3, cr6, {0}
     a24:	0b3b0b3a 	bleq	ec3714 <__bss_end__+0xeb847c>
     a28:	13490b39 	movtne	r0, #39737	; 0x9b39
     a2c:	24040000 	strcs	r0, [r4], #-0
     a30:	3e0b0b00 	vmlacc.f64	d0, d11, d0
     a34:	000e030b 	andeq	r0, lr, fp, lsl #6
     a38:	01150500 	tsteq	r5, r0, lsl #10
     a3c:	13491927 	movtne	r1, #39207	; 0x9927
     a40:	00001301 	andeq	r1, r0, r1, lsl #6
     a44:	49000506 	stmdbmi	r0, {r1, r2, r8, sl}
     a48:	07000013 	smladeq	r0, r3, r0, r0
     a4c:	0e030034 	mcreq	0, 0, r0, cr3, cr4, {1}
     a50:	0b3b0b3a 	bleq	ec3740 <__bss_end__+0xeb84a8>
     a54:	13490b39 	movtne	r0, #39737	; 0x9b39
     a58:	193c193f 	ldmdbne	ip!, {r0, r1, r2, r3, r4, r5, r8, fp, ip}
     a5c:	0f080000 	svceq	0x00080000
     a60:	490b0b00 	stmdbmi	fp, {r8, r9, fp}
     a64:	09000013 	stmdbeq	r0, {r0, r1, r4}
     a68:	13490026 	movtne	r0, #36902	; 0x9026
     a6c:	2e0a0000 	cdpcs	0, 0, cr0, cr10, cr0, {0}
     a70:	03193f01 	tsteq	r9, #1, 30
     a74:	3b0b3a0e 	blcc	2cf2b4 <__bss_end__+0x2c401c>
     a78:	270b390b 	strcs	r3, [fp, -fp, lsl #18]
     a7c:	11134919 	tstne	r3, r9, lsl r9
     a80:	40061201 	andmi	r1, r6, r1, lsl #4
     a84:	19429718 	stmdbne	r2, {r3, r4, r8, r9, sl, ip, pc}^
     a88:	00001301 	andeq	r1, r0, r1, lsl #6
     a8c:	0300050b 	movweq	r0, #1291	; 0x50b
     a90:	3b0b3a08 	blcc	2cf2b8 <__bss_end__+0x2c4020>
     a94:	490b390b 	stmdbmi	fp, {r0, r1, r3, r8, fp, ip, sp}
     a98:	00180213 	andseq	r0, r8, r3, lsl r2
     a9c:	00050c00 	andeq	r0, r5, r0, lsl #24
     aa0:	0b3a0803 	bleq	e82ab4 <__bss_end__+0xe7781c>
     aa4:	0b390b3b 	bleq	e43798 <__bss_end__+0xe38500>
     aa8:	17021349 	strne	r1, [r2, -r9, asr #6]
     aac:	001742b7 			; <UNDEFINED> instruction: 0x001742b7
     ab0:	00340d00 	eorseq	r0, r4, r0, lsl #26
     ab4:	0b3a0803 	bleq	e82ac8 <__bss_end__+0xe77830>
     ab8:	0b390b3b 	bleq	e437ac <__bss_end__+0xe38514>
     abc:	17021349 	strne	r1, [r2, -r9, asr #6]
     ac0:	001742b7 			; <UNDEFINED> instruction: 0x001742b7
     ac4:	000f0e00 	andeq	r0, pc, r0, lsl #28
     ac8:	00000b0b 	andeq	r0, r0, fp, lsl #22
     acc:	01110100 	tsteq	r1, r0, lsl #2
     ad0:	0b130e25 	bleq	4c436c <__bss_end__+0x4b90d4>
     ad4:	0e1b0e03 	cdpeq	14, 1, cr0, cr11, cr3, {0}
     ad8:	06120111 			; <UNDEFINED> instruction: 0x06120111
     adc:	00001710 	andeq	r1, r0, r0, lsl r7
     ae0:	03001602 	movweq	r1, #1538	; 0x602
     ae4:	3b0b3a0e 	blcc	2cf324 <__bss_end__+0x2c408c>
     ae8:	490b390b 	stmdbmi	fp, {r0, r1, r3, r8, fp, ip, sp}
     aec:	03000013 	movweq	r0, #19
     af0:	0e030113 	mcreq	1, 0, r0, cr3, cr3, {0}
     af4:	0b3a0b0b 	bleq	e83728 <__bss_end__+0xe78490>
     af8:	13010b3b 	movwne	r0, #6971	; 0x1b3b
     afc:	0d040000 	stceq	0, cr0, [r4, #-0]
     b00:	490e0300 	stmdbmi	lr, {r8, r9}
     b04:	340b3813 	strcc	r3, [fp], #-2067	; 0xfffff7ed
     b08:	05000019 	streq	r0, [r0, #-25]	; 0xffffffe7
     b0c:	0b0b000f 	bleq	2c0b50 <__bss_end__+0x2b58b8>
     b10:	24060000 	strcs	r0, [r6], #-0
     b14:	3e0b0b00 	vmlacc.f64	d0, d11, d0
     b18:	0008030b 	andeq	r0, r8, fp, lsl #6
     b1c:	00240700 	eoreq	r0, r4, r0, lsl #14
     b20:	0b3e0b0b 	bleq	f83754 <__bss_end__+0xf784bc>
     b24:	00000e03 	andeq	r0, r0, r3, lsl #28
     b28:	27011508 	strcs	r1, [r1, -r8, lsl #10]
     b2c:	01134919 	tsteq	r3, r9, lsl r9
     b30:	09000013 	stmdbeq	r0, {r0, r1, r4}
     b34:	13490005 	movtne	r0, #36869	; 0x9005
     b38:	340a0000 	strcc	r0, [sl], #-0
     b3c:	3a0e0300 	bcc	381744 <__bss_end__+0x3764ac>
     b40:	390b3b0b 	stmdbcc	fp, {r0, r1, r3, r8, r9, fp, ip, sp}
     b44:	3f13490b 	svccc	0x0013490b
     b48:	00193c19 	andseq	r3, r9, r9, lsl ip
     b4c:	000f0b00 	andeq	r0, pc, r0, lsl #22
     b50:	13490b0b 	movtne	r0, #39691	; 0x9b0b
     b54:	260c0000 	strcs	r0, [ip], -r0
     b58:	00134900 	andseq	r4, r3, r0, lsl #18
     b5c:	012e0d00 			; <UNDEFINED> instruction: 0x012e0d00
     b60:	0e03193f 			; <UNDEFINED> instruction: 0x0e03193f
     b64:	0b3b0b3a 	bleq	ec3854 <__bss_end__+0xeb85bc>
     b68:	19270b39 	stmdbne	r7!, {r0, r3, r4, r5, r8, r9, fp}
     b6c:	01111349 	tsteq	r1, r9, asr #6
     b70:	18400612 	stmdane	r0, {r1, r4, r9, sl}^
     b74:	01194297 			; <UNDEFINED> instruction: 0x01194297
     b78:	0e000013 	mcreq	0, 0, r0, cr0, cr3, {0}
     b7c:	08030005 	stmdaeq	r3, {r0, r2}
     b80:	0b3b0b3a 	bleq	ec3870 <__bss_end__+0xeb85d8>
     b84:	13490b39 	movtne	r0, #39737	; 0x9b39
     b88:	00001802 	andeq	r1, r0, r2, lsl #16
     b8c:	0000180f 	andeq	r1, r0, pc, lsl #16
     b90:	00341000 	eorseq	r1, r4, r0
     b94:	0b3a0803 	bleq	e82ba8 <__bss_end__+0xe77910>
     b98:	0b390b3b 	bleq	e4388c <__bss_end__+0xe385f4>
     b9c:	18021349 	stmdane	r2, {r0, r3, r6, r8, r9, ip}
     ba0:	34110000 	ldrcc	r0, [r1], #-0
     ba4:	3a0e0300 	bcc	3817ac <__bss_end__+0x376514>
     ba8:	390b3b0b 	stmdbcc	fp, {r0, r1, r3, r8, r9, fp, ip, sp}
     bac:	0213490b 	andseq	r4, r3, #180224	; 0x2c000
     bb0:	12000018 	andne	r0, r0, #24, 0
     bb4:	08030034 	stmdaeq	r3, {r2, r4, r5}
     bb8:	0b3b0b3a 	bleq	ec38a8 <__bss_end__+0xeb8610>
     bbc:	13490b39 	movtne	r0, #39737	; 0x9b39
     bc0:	42b71702 	adcsmi	r1, r7, #524288	; 0x80000
     bc4:	13000017 	movwne	r0, #23
     bc8:	01018289 	smlabbeq	r1, r9, r2, r8
     bcc:	13310111 	teqne	r1, #1073741828	; 0x40000004
     bd0:	00001301 	andeq	r1, r0, r1, lsl #6
     bd4:	01828a14 	orreq	r8, r2, r4, lsl sl
     bd8:	91180200 	tstls	r8, r0, lsl #4
     bdc:	00001842 	andeq	r1, r0, r2, asr #16
     be0:	01828915 	orreq	r8, r2, r5, lsl r9
     be4:	00011101 	andeq	r1, r1, r1, lsl #2
     be8:	01011600 	tsteq	r1, r0, lsl #12
     bec:	13011349 	movwne	r1, #4937	; 0x1349
     bf0:	21170000 	tstcs	r7, r0
     bf4:	2f134900 	svccs	0x00134900
     bf8:	18000005 	stmdane	r0, {r0, r2}
     bfc:	193f002e 	ldmdbne	pc!, {r1, r2, r3, r5}	; <UNPREDICTABLE>
     c00:	0e6e193c 			; <UNDEFINED> instruction: 0x0e6e193c
     c04:	0b3a0e03 	bleq	e84418 <__bss_end__+0xe79180>
     c08:	0b390b3b 	bleq	e438fc <__bss_end__+0xe38664>
     c0c:	01000000 	mrseq	r0, (UNDEF: 0)
     c10:	0e250111 	mcreq	1, 1, r0, cr5, cr1, {0}
     c14:	0e030b13 	vmoveq.32	d3[0], r0
     c18:	01110e1b 	tsteq	r1, fp, lsl lr
     c1c:	17100612 			; <UNDEFINED> instruction: 0x17100612
     c20:	24020000 	strcs	r0, [r2], #-0
     c24:	3e0b0b00 	vmlacc.f64	d0, d11, d0
     c28:	0008030b 	andeq	r0, r8, fp, lsl #6
     c2c:	00240300 	eoreq	r0, r4, r0, lsl #6
     c30:	0b3e0b0b 	bleq	f83864 <__bss_end__+0xf785cc>
     c34:	00000e03 	andeq	r0, r0, r3, lsl #28
     c38:	27011504 	strcs	r1, [r1, -r4, lsl #10]
     c3c:	01134919 	tsteq	r3, r9, lsl r9
     c40:	05000013 	streq	r0, [r0, #-19]	; 0xffffffed
     c44:	13490005 	movtne	r0, #36869	; 0x9005
     c48:	34060000 	strcc	r0, [r6], #-0
     c4c:	3a0e0300 	bcc	381854 <__bss_end__+0x3765bc>
     c50:	390b3b0b 	stmdbcc	fp, {r0, r1, r3, r8, r9, fp, ip, sp}
     c54:	3f13490b 	svccc	0x0013490b
     c58:	00193c19 	andseq	r3, r9, r9, lsl ip
     c5c:	000f0700 	andeq	r0, pc, r0, lsl #14
     c60:	13490b0b 	movtne	r0, #39691	; 0x9b0b
     c64:	26080000 	strcs	r0, [r8], -r0
     c68:	00134900 	andseq	r4, r3, r0, lsl #18
     c6c:	00340900 	eorseq	r0, r4, r0, lsl #18
     c70:	0b3a1347 	bleq	e85994 <__bss_end__+0xe7a6fc>
     c74:	0b390b3b 	bleq	e43968 <__bss_end__+0xe386d0>
     c78:	00001802 	andeq	r1, r0, r2, lsl #16
     c7c:	3f012e0a 	svccc	0x00012e0a
     c80:	3a0e0319 	bcc	3818ec <__bss_end__+0x376654>
     c84:	390b3b0b 	stmdbcc	fp, {r0, r1, r3, r8, r9, fp, ip, sp}
     c88:	4919270b 	ldmdbmi	r9, {r0, r1, r3, r8, r9, sl, sp}
     c8c:	12011113 	andne	r1, r1, #-1073741820	; 0xc0000004
     c90:	96184006 	ldrls	r4, [r8], -r6
     c94:	00001942 	andeq	r1, r0, r2, asr #18
     c98:	0300050b 	movweq	r0, #1291	; 0x50b
     c9c:	3b0b3a08 	blcc	2cf4c4 <__bss_end__+0x2c422c>
     ca0:	490b390b 	stmdbmi	fp, {r0, r1, r3, r8, fp, ip, sp}
     ca4:	b7170213 			; <UNDEFINED> instruction: 0xb7170213
     ca8:	00001742 	andeq	r1, r0, r2, asr #14
     cac:	01110100 	tsteq	r1, r0, lsl #2
     cb0:	0b130e25 	bleq	4c454c <__bss_end__+0x4b92b4>
     cb4:	0e1b0e03 	cdpeq	14, 1, cr0, cr11, cr3, {0}
     cb8:	06120111 			; <UNDEFINED> instruction: 0x06120111
     cbc:	00001710 	andeq	r1, r0, r0, lsl r7
     cc0:	0b002402 	bleq	9cd0 <delay_ms+0x48>
     cc4:	030b3e0b 	movweq	r3, #48651	; 0xbe0b
     cc8:	0300000e 	movweq	r0, #14
     ccc:	0b0b0024 	bleq	2c0d64 <__bss_end__+0x2b5acc>
     cd0:	08030b3e 	stmdaeq	r3, {r1, r2, r3, r4, r5, r8, r9, fp}
     cd4:	16040000 	strne	r0, [r4], -r0
     cd8:	3a0e0300 	bcc	3818e0 <__bss_end__+0x376648>
     cdc:	390b3b0b 	stmdbcc	fp, {r0, r1, r3, r8, r9, fp, ip, sp}
     ce0:	0013490b 	andseq	r4, r3, fp, lsl #18
     ce4:	01150500 	tsteq	r5, r0, lsl #10
     ce8:	13491927 	movtne	r1, #39207	; 0x9927
     cec:	00001301 	andeq	r1, r0, r1, lsl #6
     cf0:	49000506 	stmdbmi	r0, {r1, r2, r8, sl}
     cf4:	07000013 	smladeq	r0, r3, r0, r0
     cf8:	0e030034 	mcreq	0, 0, r0, cr3, cr4, {1}
     cfc:	0b3b0b3a 	bleq	ec39ec <__bss_end__+0xeb8754>
     d00:	13490b39 	movtne	r0, #39737	; 0x9b39
     d04:	193c193f 	ldmdbne	ip!, {r0, r1, r2, r3, r4, r5, r8, fp, ip}
     d08:	0f080000 	svceq	0x00080000
     d0c:	490b0b00 	stmdbmi	fp, {r8, r9, fp}
     d10:	09000013 	stmdbeq	r0, {r0, r1, r4}
     d14:	13490026 	movtne	r0, #36902	; 0x9026
     d18:	130a0000 	movwne	r0, #40960	; 0xa000
     d1c:	0b0e0301 	bleq	381928 <__bss_end__+0x376690>
     d20:	3b0b3a0b 	blcc	2cf554 <__bss_end__+0x2c42bc>
     d24:	0013010b 	andseq	r0, r3, fp, lsl #2
     d28:	000d0b00 	andeq	r0, sp, r0, lsl #22
     d2c:	13490e03 	movtne	r0, #40451	; 0x9e03
     d30:	19340b38 	ldmdbne	r4!, {r3, r4, r5, r8, r9, fp}
     d34:	0f0c0000 	svceq	0x000c0000
     d38:	000b0b00 	andeq	r0, fp, r0, lsl #22
     d3c:	012e0d00 			; <UNDEFINED> instruction: 0x012e0d00
     d40:	0e03193f 			; <UNDEFINED> instruction: 0x0e03193f
     d44:	0b3b0b3a 	bleq	ec3a34 <__bss_end__+0xeb879c>
     d48:	19270b39 	stmdbne	r7!, {r0, r3, r4, r5, r8, r9, fp}
     d4c:	01111349 	tsteq	r1, r9, asr #6
     d50:	18400612 	stmdane	r0, {r1, r4, r9, sl}^
     d54:	01194297 			; <UNDEFINED> instruction: 0x01194297
     d58:	0e000013 	mcreq	0, 0, r0, cr0, cr3, {0}
     d5c:	08030005 	stmdaeq	r3, {r0, r2}
     d60:	0b3b0b3a 	bleq	ec3a50 <__bss_end__+0xeb87b8>
     d64:	13490b39 	movtne	r0, #39737	; 0x9b39
     d68:	42b71702 	adcsmi	r1, r7, #524288	; 0x80000
     d6c:	0f000017 	svceq	0x00000017
     d70:	0e030005 	cdpeq	0, 0, cr0, cr3, cr5, {0}
     d74:	0b3b0b3a 	bleq	ec3a64 <__bss_end__+0xeb87cc>
     d78:	13490b39 	movtne	r0, #39737	; 0x9b39
     d7c:	42b71702 	adcsmi	r1, r7, #524288	; 0x80000
     d80:	10000017 	andne	r0, r0, r7, lsl r0
     d84:	08030034 	stmdaeq	r3, {r2, r4, r5}
     d88:	0b3b0b3a 	bleq	ec3a78 <__bss_end__+0xeb87e0>
     d8c:	13490b39 	movtne	r0, #39737	; 0x9b39
     d90:	42b71702 	adcsmi	r1, r7, #524288	; 0x80000
     d94:	11000017 	tstne	r0, r7, lsl r0
     d98:	0e030034 	mcreq	0, 0, r0, cr3, cr4, {1}
     d9c:	0b3b0b3a 	bleq	ec3a8c <__bss_end__+0xeb87f4>
     da0:	13490b39 	movtne	r0, #39737	; 0x9b39
     da4:	42b71702 	adcsmi	r1, r7, #524288	; 0x80000
     da8:	12000017 	andne	r0, r0, #23, 0
     dac:	0e030034 	mcreq	0, 0, r0, cr3, cr4, {1}
     db0:	19341349 	ldmdbne	r4!, {r0, r3, r6, r8, r9, ip}
     db4:	00001802 	andeq	r1, r0, r2, lsl #16
     db8:	55010b13 	strpl	r0, [r1, #-2835]	; 0xfffff4ed
     dbc:	14000017 	strne	r0, [r0], #-23	; 0xffffffe9
     dc0:	08030034 	stmdaeq	r3, {r2, r4, r5}
     dc4:	0b3b0b3a 	bleq	ec3ab4 <__bss_end__+0xeb881c>
     dc8:	13490b39 	movtne	r0, #39737	; 0x9b39
     dcc:	00001802 	andeq	r1, r0, r2, lsl #16
     dd0:	03003415 	movweq	r3, #1045	; 0x415
     dd4:	3b0b3a0e 	blcc	2cf614 <__bss_end__+0x2c437c>
     dd8:	490b390b 	stmdbmi	fp, {r0, r1, r3, r8, fp, ip, sp}
     ddc:	00180213 	andseq	r0, r8, r3, lsl r2
     de0:	010b1600 	tsteq	fp, r0, lsl #12
     de4:	13011755 	movwne	r1, #5973	; 0x1755
     de8:	89170000 	ldmdbhi	r7, {}	; <UNPREDICTABLE>
     dec:	11010182 	smlabbne	r1, r2, r1, r0
     df0:	01133101 	tsteq	r3, r1, lsl #2
     df4:	18000013 	stmdane	r0, {r0, r1, r4}
     df8:	0001828a 	andeq	r8, r1, sl, lsl #5
     dfc:	42911802 	addsmi	r1, r1, #131072	; 0x20000
     e00:	19000018 	stmdbne	r0, {r3, r4}
     e04:	00018289 	andeq	r8, r1, r9, lsl #5
     e08:	13310111 	teqne	r1, #1073741828	; 0x40000004
     e0c:	1d1a0000 	ldcne	0, cr0, [sl, #-0]
     e10:	52133101 	andspl	r3, r3, #1073741824	; 0x40000000
     e14:	0542b801 	strbeq	fp, [r2, #-2049]	; 0xfffff7ff
     e18:	0b581755 	bleq	1606b74 <__bss_end__+0x15fb8dc>
     e1c:	0b570b59 	bleq	15c3b88 <__bss_end__+0x15b88f0>
     e20:	00001301 	andeq	r1, r0, r1, lsl #6
     e24:	3100051b 	tstcc	r0, fp, lsl r5
     e28:	b7170213 			; <UNDEFINED> instruction: 0xb7170213
     e2c:	00001742 	andeq	r1, r0, r2, asr #14
     e30:	3100051c 	tstcc	r0, ip, lsl r5
     e34:	1d000013 	stcne	0, cr0, [r0, #-76]	; 0xffffffb4
     e38:	13310034 	teqne	r1, #52, 0	; 0x34
     e3c:	00001802 	andeq	r1, r0, r2, lsl #16
     e40:	3100341e 	tstcc	r0, lr, lsl r4
     e44:	b7170213 			; <UNDEFINED> instruction: 0xb7170213
     e48:	00001742 	andeq	r1, r0, r2, asr #14
     e4c:	3100341f 	tstcc	r0, pc, lsl r4
     e50:	20000013 	andcs	r0, r0, r3, lsl r0
     e54:	1331011d 	teqne	r1, #1073741831	; 0x40000007
     e58:	42b80152 	adcsmi	r0, r8, #-2147483628	; 0x80000014
     e5c:	58175505 	ldmdapl	r7, {r0, r2, r8, sl, ip, lr}
     e60:	570b590b 	strpl	r5, [fp, -fp, lsl #18]
     e64:	2100000b 	tstcs	r0, fp
     e68:	01018289 	smlabbeq	r1, r9, r2, r8
     e6c:	13010111 	movwne	r0, #4369	; 0x1111
     e70:	01220000 			; <UNDEFINED> instruction: 0x01220000
     e74:	01134901 	tsteq	r3, r1, lsl #18
     e78:	23000013 	movwcs	r0, #19
     e7c:	13490021 	movtne	r0, #36897	; 0x9021
     e80:	00000b2f 	andeq	r0, r0, pc, lsr #22
     e84:	03012e24 	movweq	r2, #7716	; 0x1e24
     e88:	3b0b3a0e 	blcc	2cf6c8 <__bss_end__+0x2c4430>
     e8c:	270b390b 	strcs	r3, [fp, -fp, lsl #18]
     e90:	20134919 	andscs	r4, r3, r9, lsl r9
     e94:	0013010b 	andseq	r0, r3, fp, lsl #2
     e98:	00052500 	andeq	r2, r5, r0, lsl #10
     e9c:	0b3a0e03 	bleq	e846b0 <__bss_end__+0xe79418>
     ea0:	0b390b3b 	bleq	e43b94 <__bss_end__+0xe388fc>
     ea4:	00001349 	andeq	r1, r0, r9, asr #6
     ea8:	03000526 	movweq	r0, #1318	; 0x526
     eac:	3b0b3a08 	blcc	2cf6d4 <__bss_end__+0x2c443c>
     eb0:	490b390b 	stmdbmi	fp, {r0, r1, r3, r8, fp, ip, sp}
     eb4:	27000013 	smladcs	r0, r3, r0, r0
     eb8:	08030034 	stmdaeq	r3, {r2, r4, r5}
     ebc:	0b3b0b3a 	bleq	ec3bac <__bss_end__+0xeb8914>
     ec0:	13490b39 	movtne	r0, #39737	; 0x9b39
     ec4:	0b280000 	bleq	a00ecc <__bss_end__+0x9f5c34>
     ec8:	29000001 	stmdbcs	r0, {r0}
     ecc:	0e030034 	mcreq	0, 0, r0, cr3, cr4, {1}
     ed0:	0b3b0b3a 	bleq	ec3bc0 <__bss_end__+0xeb8928>
     ed4:	13490b39 	movtne	r0, #39737	; 0x9b39
     ed8:	2e2a0000 	cdpcs	0, 2, cr0, cr10, cr0, {0}
     edc:	3a080301 	bcc	201ae8 <__bss_end__+0x1f6850>
     ee0:	390b3b0b 	stmdbcc	fp, {r0, r1, r3, r8, r9, fp, ip, sp}
     ee4:	4919270b 	ldmdbmi	r9, {r0, r1, r3, r8, r9, sl, sp}
     ee8:	010b2013 	tsteq	fp, r3, lsl r0
     eec:	2b000013 	blcs	f40 <__code_start__-0x70c0>
     ef0:	193f012e 	ldmdbne	pc!, {r1, r2, r3, r5, r8}	; <UNPREDICTABLE>
     ef4:	0b3a0e03 	bleq	e84708 <__bss_end__+0xe79470>
     ef8:	0b390b3b 	bleq	e43bec <__bss_end__+0xe38954>
     efc:	01111927 	tsteq	r1, r7, lsr #18
     f00:	18400612 	stmdane	r0, {r1, r4, r9, sl}^
     f04:	01194297 			; <UNDEFINED> instruction: 0x01194297
     f08:	2c000013 	stccs	0, cr0, [r0], {19}
     f0c:	1331012e 	teqne	r1, #-2147483637	; 0x8000000b
     f10:	06120111 			; <UNDEFINED> instruction: 0x06120111
     f14:	42971840 	addsmi	r1, r7, #64, 16	; 0x400000
     f18:	00130119 	andseq	r0, r3, r9, lsl r1
     f1c:	00052d00 	andeq	r2, r5, r0, lsl #26
     f20:	18021331 	stmdane	r2, {r0, r4, r5, r8, r9, ip}
     f24:	052e0000 	streq	r0, [lr, #-0]!
     f28:	1c133100 	ldfnes	f3, [r3], {-0}
     f2c:	2f00000b 	svccs	0x0000000b
     f30:	1331010b 	teqne	r1, #-1073741822	; 0xc0000002
     f34:	06120111 			; <UNDEFINED> instruction: 0x06120111
     f38:	00001301 	andeq	r1, r0, r1, lsl #6
     f3c:	3f002e30 	svccc	0x00002e30
     f40:	6e193c19 	mrcvs	12, 0, r3, cr9, cr9, {0}
     f44:	3a0e030e 	bcc	381b84 <__bss_end__+0x3768ec>
     f48:	390b3b0b 	stmdbcc	fp, {r0, r1, r3, r8, r9, fp, ip, sp}
     f4c:	0000000b 	andeq	r0, r0, fp
     f50:	25011101 	strcs	r1, [r1, #-257]	; 0xfffffeff
     f54:	030b130e 	movweq	r1, #45838	; 0xb30e
     f58:	110e1b0e 	tstne	lr, lr, lsl #22
     f5c:	10061201 	andne	r1, r6, r1, lsl #4
     f60:	02000017 	andeq	r0, r0, #23, 0
     f64:	0b0b0024 	bleq	2c0ffc <__bss_end__+0x2b5d64>
     f68:	08030b3e 	stmdaeq	r3, {r1, r2, r3, r4, r5, r8, r9, fp}
     f6c:	24030000 	strcs	r0, [r3], #-0
     f70:	3e0b0b00 	vmlacc.f64	d0, d11, d0
     f74:	000e030b 	andeq	r0, lr, fp, lsl #6
     f78:	01150400 	tsteq	r5, r0, lsl #8
     f7c:	13491927 	movtne	r1, #39207	; 0x9927
     f80:	00001301 	andeq	r1, r0, r1, lsl #6
     f84:	49000505 	stmdbmi	r0, {r0, r2, r8, sl}
     f88:	06000013 			; <UNDEFINED> instruction: 0x06000013
     f8c:	0e030034 	mcreq	0, 0, r0, cr3, cr4, {1}
     f90:	0b3b0b3a 	bleq	ec3c80 <__bss_end__+0xeb89e8>
     f94:	13490b39 	movtne	r0, #39737	; 0x9b39
     f98:	193c193f 	ldmdbne	ip!, {r0, r1, r2, r3, r4, r5, r8, fp, ip}
     f9c:	0f070000 	svceq	0x00070000
     fa0:	490b0b00 	stmdbmi	fp, {r8, r9, fp}
     fa4:	08000013 	stmdaeq	r0, {r0, r1, r4}
     fa8:	13490026 	movtne	r0, #36902	; 0x9026
     fac:	2e090000 	cdpcs	0, 0, cr0, cr9, cr0, {0}
     fb0:	03193f01 	tsteq	r9, #1, 30
     fb4:	3b0b3a0e 	blcc	2cf7f4 <__bss_end__+0x2c455c>
     fb8:	270b390b 	strcs	r3, [fp, -fp, lsl #18]
     fbc:	19018719 	stmdbne	r1, {r0, r3, r4, r8, r9, sl, pc}
     fc0:	06120111 			; <UNDEFINED> instruction: 0x06120111
     fc4:	42971840 	addsmi	r1, r7, #64, 16	; 0x400000
     fc8:	00130119 	andseq	r0, r3, r9, lsl r1
     fcc:	82890a00 	addhi	r0, r9, #0, 20
     fd0:	01110101 	tsteq	r1, r1, lsl #2
     fd4:	00001301 	andeq	r1, r0, r1, lsl #6
     fd8:	01828a0b 	orreq	r8, r2, fp, lsl #20
     fdc:	91180200 	tstls	r8, r0, lsl #4
     fe0:	00001842 	andeq	r1, r0, r2, asr #16
     fe4:	0182890c 	orreq	r8, r2, ip, lsl #18
     fe8:	31011100 	mrscc	r1, (UNDEF: 17)
     fec:	0d000013 	stceq	0, cr0, [r0, #-76]	; 0xffffffb4
     ff0:	01018289 	smlabbeq	r1, r9, r2, r8
     ff4:	13310111 	teqne	r1, #1073741828	; 0x40000004
     ff8:	00001301 	andeq	r1, r0, r1, lsl #6
     ffc:	3f002e0e 	svccc	0x00002e0e
    1000:	6e193c19 	mrcvs	12, 0, r3, cr9, cr9, {0}
    1004:	3a0e030e 	bcc	381c44 <__bss_end__+0x3769ac>
    1008:	390b3b0b 	stmdbcc	fp, {r0, r1, r3, r8, r9, fp, ip, sp}
    100c:	0000000b 	andeq	r0, r0, fp
    1010:	25011101 	strcs	r1, [r1, #-257]	; 0xfffffeff
    1014:	030b130e 	movweq	r1, #45838	; 0xb30e
    1018:	110e1b0e 	tstne	lr, lr, lsl #22
    101c:	10061201 	andne	r1, r6, r1, lsl #4
    1020:	02000017 	andeq	r0, r0, #23, 0
    1024:	0b0b0024 	bleq	2c10bc <__bss_end__+0x2b5e24>
    1028:	08030b3e 	stmdaeq	r3, {r1, r2, r3, r4, r5, r8, r9, fp}
    102c:	24030000 	strcs	r0, [r3], #-0
    1030:	3e0b0b00 	vmlacc.f64	d0, d11, d0
    1034:	000e030b 	andeq	r0, lr, fp, lsl #6
    1038:	01150400 	tsteq	r5, r0, lsl #8
    103c:	13491927 	movtne	r1, #39207	; 0x9927
    1040:	00001301 	andeq	r1, r0, r1, lsl #6
    1044:	49000505 	stmdbmi	r0, {r0, r2, r8, sl}
    1048:	06000013 			; <UNDEFINED> instruction: 0x06000013
    104c:	0e030034 	mcreq	0, 0, r0, cr3, cr4, {1}
    1050:	0b3b0b3a 	bleq	ec3d40 <__bss_end__+0xeb8aa8>
    1054:	13490b39 	movtne	r0, #39737	; 0x9b39
    1058:	193c193f 	ldmdbne	ip!, {r0, r1, r2, r3, r4, r5, r8, fp, ip}
    105c:	0f070000 	svceq	0x00070000
    1060:	490b0b00 	stmdbmi	fp, {r8, r9, fp}
    1064:	08000013 	stmdaeq	r0, {r0, r1, r4}
    1068:	13490026 	movtne	r0, #36902	; 0x9026
    106c:	2e090000 	cdpcs	0, 0, cr0, cr9, cr0, {0}
    1070:	03193f01 	tsteq	r9, #1, 30
    1074:	3b0b3a0e 	blcc	2cf8b4 <__bss_end__+0x2c461c>
    1078:	110b390b 	tstne	fp, fp, lsl #18
    107c:	40061201 	andmi	r1, r6, r1, lsl #4
    1080:	19429718 	stmdbne	r2, {r3, r4, r8, r9, sl, ip, pc}^
    1084:	00001301 	andeq	r1, r0, r1, lsl #6
    1088:	3f002e0a 	svccc	0x00002e0a
    108c:	3a0e0319 	bcc	381cf8 <__bss_end__+0x376a60>
    1090:	390b3b0b 	stmdbcc	fp, {r0, r1, r3, r8, r9, fp, ip, sp}
    1094:	3c19270b 	ldccc	7, cr2, [r9], {11}
    1098:	0b000019 	bleq	1104 <__code_start__-0x6efc>
    109c:	08030034 	stmdaeq	r3, {r2, r4, r5}
    10a0:	0b3b0b3a 	bleq	ec3d90 <__bss_end__+0xeb8af8>
    10a4:	13490b39 	movtne	r0, #39737	; 0x9b39
    10a8:	42b71702 	adcsmi	r1, r7, #524288	; 0x80000
    10ac:	0c000017 	stceq	0, cr0, [r0], {23}
    10b0:	0e030034 	mcreq	0, 0, r0, cr3, cr4, {1}
    10b4:	0b3b0b3a 	bleq	ec3da4 <__bss_end__+0xeb8b0c>
    10b8:	13490b39 	movtne	r0, #39737	; 0x9b39
    10bc:	0b0d0000 	bleq	3410c4 <__bss_end__+0x335e2c>
    10c0:	12011101 	andne	r1, r1, #1073741824	; 0x40000000
    10c4:	00130106 	andseq	r0, r3, r6, lsl #2
    10c8:	82890e00 	addhi	r0, r9, #0, 28
    10cc:	01110001 	tsteq	r1, r1
    10d0:	00001331 	andeq	r1, r0, r1, lsr r3
    10d4:	3f002e0f 	svccc	0x00002e0f
    10d8:	6e193c19 	mrcvs	12, 0, r3, cr9, cr9, {0}
    10dc:	3a0e030e 	bcc	381d1c <__bss_end__+0x376a84>
    10e0:	39053b0b 	stmdbcc	r5, {r0, r1, r3, r8, r9, fp, ip, sp}
    10e4:	1000000b 	andne	r0, r0, fp
    10e8:	193f002e 	ldmdbne	pc!, {r1, r2, r3, r5}	; <UNPREDICTABLE>
    10ec:	0e6e193c 			; <UNDEFINED> instruction: 0x0e6e193c
    10f0:	0b3a0e03 	bleq	e84904 <__bss_end__+0xe7966c>
    10f4:	0b390b3b 	bleq	e43de8 <__bss_end__+0xe38b50>
    10f8:	01000000 	mrseq	r0, (UNDEF: 0)
    10fc:	0e250111 	mcreq	1, 1, r0, cr5, cr1, {0}
    1100:	0e030b13 	vmoveq.32	d3[0], r0
    1104:	01110e1b 	tsteq	r1, fp, lsl lr
    1108:	17100612 			; <UNDEFINED> instruction: 0x17100612
    110c:	24020000 	strcs	r0, [r2], #-0
    1110:	3e0b0b00 	vmlacc.f64	d0, d11, d0
    1114:	0008030b 	andeq	r0, r8, fp, lsl #6
    1118:	00240300 	eoreq	r0, r4, r0, lsl #6
    111c:	0b3e0b0b 	bleq	f83d50 <__bss_end__+0xf78ab8>
    1120:	00000e03 	andeq	r0, r0, r3, lsl #28
    1124:	27011504 	strcs	r1, [r1, -r4, lsl #10]
    1128:	01134919 	tsteq	r3, r9, lsl r9
    112c:	05000013 	streq	r0, [r0, #-19]	; 0xffffffed
    1130:	13490005 	movtne	r0, #36869	; 0x9005
    1134:	34060000 	strcc	r0, [r6], #-0
    1138:	3a0e0300 	bcc	381d40 <__bss_end__+0x376aa8>
    113c:	390b3b0b 	stmdbcc	fp, {r0, r1, r3, r8, r9, fp, ip, sp}
    1140:	3f13490b 	svccc	0x0013490b
    1144:	00193c19 	andseq	r3, r9, r9, lsl ip
    1148:	000f0700 	andeq	r0, pc, r0, lsl #14
    114c:	13490b0b 	movtne	r0, #39691	; 0x9b0b
    1150:	26080000 	strcs	r0, [r8], -r0
    1154:	00134900 	andseq	r4, r3, r0, lsl #18
    1158:	002e0900 	eoreq	r0, lr, r0, lsl #18
    115c:	0e03193f 			; <UNDEFINED> instruction: 0x0e03193f
    1160:	0b3b0b3a 	bleq	ec3e50 <__bss_end__+0xeb8bb8>
    1164:	19270b39 	stmdbne	r7!, {r0, r3, r4, r5, r8, r9, fp}
    1168:	06120111 			; <UNDEFINED> instruction: 0x06120111
    116c:	42971840 	addsmi	r1, r7, #64, 16	; 0x400000
    1170:	00000019 	andeq	r0, r0, r9, lsl r0
    1174:	25011101 	strcs	r1, [r1, #-257]	; 0xfffffeff
    1178:	030b130e 	movweq	r1, #45838	; 0xb30e
    117c:	550e1b0e 	strpl	r1, [lr, #-2830]	; 0xfffff4f2
    1180:	10011117 	andne	r1, r1, r7, lsl r1
    1184:	02000017 	andeq	r0, r0, #23, 0
    1188:	0b0b0024 	bleq	2c1220 <__bss_end__+0x2b5f88>
    118c:	08030b3e 	stmdaeq	r3, {r1, r2, r3, r4, r5, r8, r9, fp}
    1190:	26030000 	strcs	r0, [r3], -r0
    1194:	00134900 	andseq	r4, r3, r0, lsl #18
    1198:	00240400 	eoreq	r0, r4, r0, lsl #8
    119c:	0b3e0b0b 	bleq	f83dd0 <__bss_end__+0xf78b38>
    11a0:	00000e03 	andeq	r0, r0, r3, lsl #28
    11a4:	27011505 	strcs	r1, [r1, -r5, lsl #10]
    11a8:	01134919 	tsteq	r3, r9, lsl r9
    11ac:	06000013 			; <UNDEFINED> instruction: 0x06000013
    11b0:	13490005 	movtne	r0, #36869	; 0x9005
    11b4:	34070000 	strcc	r0, [r7], #-0
    11b8:	3a0e0300 	bcc	381dc0 <__bss_end__+0x376b28>
    11bc:	390b3b0b 	stmdbcc	fp, {r0, r1, r3, r8, r9, fp, ip, sp}
    11c0:	3f13490b 	svccc	0x0013490b
    11c4:	00193c19 	andseq	r3, r9, r9, lsl ip
    11c8:	000f0800 	andeq	r0, pc, r0, lsl #16
    11cc:	13490b0b 	movtne	r0, #39691	; 0x9b0b
    11d0:	34090000 	strcc	r0, [r9], #-0
    11d4:	3a0e0300 	bcc	381ddc <__bss_end__+0x376b44>
    11d8:	390b3b0b 	stmdbcc	fp, {r0, r1, r3, r8, r9, fp, ip, sp}
    11dc:	0013490b 	andseq	r4, r3, fp, lsl #18
    11e0:	012e0a00 			; <UNDEFINED> instruction: 0x012e0a00
    11e4:	0e03193f 			; <UNDEFINED> instruction: 0x0e03193f
    11e8:	0b3b0b3a 	bleq	ec3ed8 <__bss_end__+0xeb8c40>
    11ec:	19270b39 	stmdbne	r7!, {r0, r3, r4, r5, r8, r9, fp}
    11f0:	11190187 	tstne	r9, r7, lsl #3
    11f4:	40061201 	andmi	r1, r6, r1, lsl #4
    11f8:	19429718 	stmdbne	r2, {r3, r4, r8, r9, sl, ip, pc}^
    11fc:	00001301 	andeq	r1, r0, r1, lsl #6
    1200:	0300340b 	movweq	r3, #1035	; 0x40b
    1204:	3b0b3a0e 	blcc	2cfa44 <__bss_end__+0x2c47ac>
    1208:	490b390b 	stmdbmi	fp, {r0, r1, r3, r8, fp, ip, sp}
    120c:	00061c13 	andeq	r1, r6, r3, lsl ip
    1210:	00340c00 	eorseq	r0, r4, r0, lsl #24
    1214:	0b3a0e03 	bleq	e84a28 <__bss_end__+0xe79790>
    1218:	0b390b3b 	bleq	e43f0c <__bss_end__+0xe38c74>
    121c:	0b1c1349 	bleq	705f48 <__bss_end__+0x6facb0>
    1220:	1d0d0000 	stcne	0, cr0, [sp, #-0]
    1224:	52133101 	andspl	r3, r3, #1073741824	; 0x40000000
    1228:	0b42b801 	bleq	10af234 <__bss_end__+0x10a3f9c>
    122c:	0b581755 	bleq	1606f88 <__bss_end__+0x15fbcf0>
    1230:	0b570b59 	bleq	15c3f9c <__bss_end__+0x15b8d04>
    1234:	00001301 	andeq	r1, r0, r1, lsl #6
    1238:	55010b0e 	strpl	r0, [r1, #-2830]	; 0xfffff4f2
    123c:	0f000017 	svceq	0x00000017
    1240:	13310034 	teqne	r1, #52, 0	; 0x34
    1244:	42b71702 	adcsmi	r1, r7, #524288	; 0x80000
    1248:	10000017 	andne	r0, r0, r7, lsl r0
    124c:	1331011d 	teqne	r1, #1073741831	; 0x40000007
    1250:	42b80152 	adcsmi	r0, r8, #-2147483628	; 0x80000014
    1254:	1201110b 	andne	r1, r1, #-1073741822	; 0xc0000002
    1258:	590b5806 	stmdbpl	fp, {r1, r2, fp, ip, lr}
    125c:	010b570b 	tsteq	fp, fp, lsl #14
    1260:	11000013 	tstne	r0, r3, lsl r0
    1264:	00018289 	andeq	r8, r1, r9, lsl #5
    1268:	13310111 	teqne	r1, #1073741828	; 0x40000004
    126c:	89120000 	ldmdbhi	r2, {}	; <UNPREDICTABLE>
    1270:	11010182 	smlabbne	r1, r2, r1, r0
    1274:	01133101 	tsteq	r3, r1, lsl #2
    1278:	13000013 	movwne	r0, #19
    127c:	0001828a 	andeq	r8, r1, sl, lsl #5
    1280:	42911802 	addsmi	r1, r1, #131072	; 0x20000
    1284:	14000018 	strne	r0, [r0], #-24	; 0xffffffe8
    1288:	01018289 	smlabbeq	r1, r9, r2, r8
    128c:	13310111 	teqne	r1, #1073741828	; 0x40000004
    1290:	2e150000 	cdpcs	0, 1, cr0, cr5, cr0, {0}
    1294:	03193f01 	tsteq	r9, #1, 30
    1298:	3b0b3a0e 	blcc	2cfad8 <__bss_end__+0x2c4840>
    129c:	270b390b 	strcs	r3, [fp, -fp, lsl #18]
    12a0:	010b2019 	tsteq	fp, r9, lsl r0
    12a4:	16000013 			; <UNDEFINED> instruction: 0x16000013
    12a8:	193f012e 	ldmdbne	pc!, {r1, r2, r3, r5, r8}	; <UNPREDICTABLE>
    12ac:	0b3a0e03 	bleq	e84ac0 <__bss_end__+0xe79828>
    12b0:	0b390b3b 	bleq	e43fa4 <__bss_end__+0xe38d0c>
    12b4:	13491927 	movtne	r1, #39207	; 0x9927
    12b8:	13010b20 	movwne	r0, #6944	; 0x1b20
    12bc:	2e170000 	cdpcs	0, 1, cr0, cr7, cr0, {0}
    12c0:	11133101 	tstne	r3, r1, lsl #2
    12c4:	40061201 	andmi	r1, r6, r1, lsl #4
    12c8:	19429718 	stmdbne	r2, {r3, r4, r8, r9, sl, ip, pc}^
    12cc:	00001301 	andeq	r1, r0, r1, lsl #6
    12d0:	3f002e18 	svccc	0x00002e18
    12d4:	6e193c19 	mrcvs	12, 0, r3, cr9, cr9, {0}
    12d8:	3a0e030e 	bcc	381f18 <__bss_end__+0x376c80>
    12dc:	39053b0b 	stmdbcc	r5, {r0, r1, r3, r8, r9, fp, ip, sp}
    12e0:	1900000b 	stmdbne	r0, {r0, r1, r3}
    12e4:	193f002e 	ldmdbne	pc!, {r1, r2, r3, r5}	; <UNPREDICTABLE>
    12e8:	0e6e193c 			; <UNDEFINED> instruction: 0x0e6e193c
    12ec:	0b3a0e03 	bleq	e84b00 <__bss_end__+0xe79868>
    12f0:	0b390b3b 	bleq	e43fe4 <__bss_end__+0xe38d4c>
    12f4:	01000000 	mrseq	r0, (UNDEF: 0)
    12f8:	0e250111 	mcreq	1, 1, r0, cr5, cr1, {0}
    12fc:	0e030b13 	vmoveq.32	d3[0], r0
    1300:	01110e1b 	tsteq	r1, fp, lsl lr
    1304:	17100612 			; <UNDEFINED> instruction: 0x17100612
    1308:	24020000 	strcs	r0, [r2], #-0
    130c:	3e0b0b00 	vmlacc.f64	d0, d11, d0
    1310:	0008030b 	andeq	r0, r8, fp, lsl #6
    1314:	00240300 	eoreq	r0, r4, r0, lsl #6
    1318:	0b3e0b0b 	bleq	f83f4c <__bss_end__+0xf78cb4>
    131c:	00000e03 	andeq	r0, r0, r3, lsl #28
    1320:	27011504 	strcs	r1, [r1, -r4, lsl #10]
    1324:	01134919 	tsteq	r3, r9, lsl r9
    1328:	05000013 	streq	r0, [r0, #-19]	; 0xffffffed
    132c:	13490005 	movtne	r0, #36869	; 0x9005
    1330:	34060000 	strcc	r0, [r6], #-0
    1334:	3a0e0300 	bcc	381f3c <__bss_end__+0x376ca4>
    1338:	390b3b0b 	stmdbcc	fp, {r0, r1, r3, r8, r9, fp, ip, sp}
    133c:	3f13490b 	svccc	0x0013490b
    1340:	00193c19 	andseq	r3, r9, r9, lsl ip
    1344:	000f0700 	andeq	r0, pc, r0, lsl #14
    1348:	13490b0b 	movtne	r0, #39691	; 0x9b0b
    134c:	26080000 	strcs	r0, [r8], -r0
    1350:	00134900 	andseq	r4, r3, r0, lsl #18
    1354:	012e0900 			; <UNDEFINED> instruction: 0x012e0900
    1358:	0e03193f 			; <UNDEFINED> instruction: 0x0e03193f
    135c:	0b3b0b3a 	bleq	ec404c <__bss_end__+0xeb8db4>
    1360:	19270b39 	stmdbne	r7!, {r0, r3, r4, r5, r8, r9, fp}
    1364:	06120111 			; <UNDEFINED> instruction: 0x06120111
    1368:	42971840 	addsmi	r1, r7, #64, 16	; 0x400000
    136c:	00130119 	andseq	r0, r3, r9, lsl r1
    1370:	00050a00 	andeq	r0, r5, r0, lsl #20
    1374:	0b3a0803 	bleq	e83388 <__bss_end__+0xe780f0>
    1378:	0b390b3b 	bleq	e4406c <__bss_end__+0xe38dd4>
    137c:	17021349 	strne	r1, [r2, -r9, asr #6]
    1380:	001742b7 			; <UNDEFINED> instruction: 0x001742b7
    1384:	011d0b00 	tsteq	sp, r0, lsl #22
    1388:	01521331 	cmpeq	r2, r1, lsr r3
    138c:	550b42b8 	strpl	r4, [fp, #-696]	; 0xfffffd48
    1390:	590b5817 	stmdbpl	fp, {r0, r1, r2, r4, fp, ip, lr}
    1394:	000b570b 	andeq	r5, fp, fp, lsl #14
    1398:	00050c00 	andeq	r0, r5, r0, lsl #24
    139c:	17021331 	smladxne	r2, r1, r3, r1
    13a0:	001742b7 			; <UNDEFINED> instruction: 0x001742b7
    13a4:	011d0d00 	tsteq	sp, r0, lsl #26
    13a8:	01521331 	cmpeq	r2, r1, lsr r3
    13ac:	110b42b8 			; <UNDEFINED> instruction: 0x110b42b8
    13b0:	58061201 	stmdapl	r6, {r0, r9, ip}
    13b4:	570b590b 	strpl	r5, [fp, -fp, lsl #18]
    13b8:	0e00000b 	cdpeq	0, 0, cr0, cr0, cr11, {0}
    13bc:	13310034 	teqne	r1, #52, 0	; 0x34
    13c0:	42b71702 	adcsmi	r1, r7, #524288	; 0x80000
    13c4:	0f000017 	svceq	0x00000017
    13c8:	1331011d 	teqne	r1, #1073741831	; 0x40000007
    13cc:	42b80152 	adcsmi	r0, r8, #-2147483628	; 0x80000014
    13d0:	1201110b 	andne	r1, r1, #-1073741822	; 0xc0000002
    13d4:	590b5806 	stmdbpl	fp, {r1, r2, fp, ip, lr}
    13d8:	010b570b 	tsteq	fp, fp, lsl #14
    13dc:	10000013 	andne	r0, r0, r3, lsl r0
    13e0:	01018289 	smlabbeq	r1, r9, r2, r8
    13e4:	13310111 	teqne	r1, #1073741828	; 0x40000004
    13e8:	8a110000 	bhi	4413f0 <__bss_end__+0x436158>
    13ec:	02000182 	andeq	r0, r0, #-2147483616	; 0x80000020
    13f0:	18429118 	stmdane	r2, {r3, r4, r8, ip, pc}^
    13f4:	89120000 	ldmdbhi	r2, {}	; <UNPREDICTABLE>
    13f8:	11000182 	smlabbne	r0, r2, r1, r0
    13fc:	00133101 	andseq	r3, r3, r1, lsl #2
    1400:	010b1300 	mrseq	r1, (UNDEF: 59)
    1404:	17551331 	smmlarne	r5, r1, r3, r1
    1408:	34140000 	ldrcc	r0, [r4], #-0
    140c:	00133100 	andseq	r3, r3, r0, lsl #2
    1410:	010b1500 	tsteq	fp, r0, lsl #10
    1414:	00001755 	andeq	r1, r0, r5, asr r7
    1418:	31011d16 	tstcc	r1, r6, lsl sp
    141c:	b8015213 	stmdalt	r1, {r0, r1, r4, r9, ip, lr}
    1420:	17550b42 	ldrbne	r0, [r5, -r2, asr #22]
    1424:	0b590b58 	bleq	164418c <__bss_end__+0x1638ef4>
    1428:	13010b57 	movwne	r0, #6999	; 0x1b57
    142c:	2e170000 	cdpcs	0, 1, cr0, cr7, cr0, {0}
    1430:	03193f01 	tsteq	r9, #1, 30
    1434:	3b0b3a0e 	blcc	2cfc74 <__bss_end__+0x2c49dc>
    1438:	270b390b 	strcs	r3, [fp, -fp, lsl #18]
    143c:	010b2019 	tsteq	fp, r9, lsl r0
    1440:	18000013 	stmdane	r0, {r0, r1, r4}
    1444:	08030005 	stmdaeq	r3, {r0, r2}
    1448:	0b3b0b3a 	bleq	ec4138 <__bss_end__+0xeb8ea0>
    144c:	13490b39 	movtne	r0, #39737	; 0x9b39
    1450:	34190000 	ldrcc	r0, [r9], #-0
    1454:	3a080300 	bcc	20205c <__bss_end__+0x1f6dc4>
    1458:	390b3b0b 	stmdbcc	fp, {r0, r1, r3, r8, r9, fp, ip, sp}
    145c:	0013490b 	andseq	r4, r3, fp, lsl #18
    1460:	010b1a00 	tsteq	fp, r0, lsl #20
    1464:	2e1b0000 	cdpcs	0, 1, cr0, cr11, cr0, {0}
    1468:	03193f01 	tsteq	r9, #1, 30
    146c:	3b0b3a0e 	blcc	2cfcac <__bss_end__+0x2c4a14>
    1470:	270b390b 	strcs	r3, [fp, -fp, lsl #18]
    1474:	20134919 	andscs	r4, r3, r9, lsl r9
    1478:	0013010b 	andseq	r0, r3, fp, lsl #2
    147c:	002e1c00 	eoreq	r1, lr, r0, lsl #24
    1480:	0e03193f 			; <UNDEFINED> instruction: 0x0e03193f
    1484:	0b3b0b3a 	bleq	ec4174 <__bss_end__+0xeb8edc>
    1488:	19270b39 	stmdbne	r7!, {r0, r3, r4, r5, r8, r9, fp}
    148c:	0b201349 	bleq	8061b8 <__bss_end__+0x7faf20>
    1490:	2e1d0000 	cdpcs	0, 1, cr0, cr13, cr0, {0}
    1494:	11133101 	tstne	r3, r1, lsl #2
    1498:	40061201 	andmi	r1, r6, r1, lsl #4
    149c:	19429718 	stmdbne	r2, {r3, r4, r8, r9, sl, ip, pc}^
    14a0:	00001301 	andeq	r1, r0, r1, lsl #6
    14a4:	0182891e 	orreq	r8, r2, lr, lsl r9
    14a8:	95011101 	strls	r1, [r1, #-257]	; 0xfffffeff
    14ac:	13311942 	teqne	r1, #1081344	; 0x108000
    14b0:	2e1f0000 	cdpcs	0, 1, cr0, cr15, cr0, {0}
    14b4:	3c193f00 	ldccc	15, cr3, [r9], {-0}
    14b8:	030e6e19 	movweq	r6, #60953	; 0xee19
    14bc:	3b0b3a0e 	blcc	2cfcfc <__bss_end__+0x2c4a64>
    14c0:	000b390b 	andeq	r3, fp, fp, lsl #18
    14c4:	11010000 	mrsne	r0, (UNDEF: 1)
    14c8:	130e2501 	movwne	r2, #58625	; 0xe501
    14cc:	1b0e030b 	blne	382100 <__bss_end__+0x376e68>
    14d0:	1201110e 	andne	r1, r1, #-2147483645	; 0x80000003
    14d4:	00171006 	andseq	r1, r7, r6
    14d8:	00240200 	eoreq	r0, r4, r0, lsl #4
    14dc:	0b3e0b0b 	bleq	f84110 <__bss_end__+0xf78e78>
    14e0:	00000803 	andeq	r0, r0, r3, lsl #16
    14e4:	0b002403 	bleq	a4f8 <strcmp+0x2c>
    14e8:	030b3e0b 	movweq	r3, #48651	; 0xbe0b
    14ec:	0400000e 	streq	r0, [r0], #-14
    14f0:	13490035 	movtne	r0, #36917	; 0x9035
    14f4:	16050000 	strne	r0, [r5], -r0
    14f8:	3a0e0300 	bcc	382100 <__bss_end__+0x376e68>
    14fc:	390b3b0b 	stmdbcc	fp, {r0, r1, r3, r8, r9, fp, ip, sp}
    1500:	0013490b 	andseq	r4, r3, fp, lsl #18
    1504:	01040600 	tsteq	r4, r0, lsl #12
    1508:	0b0b0b3e 	bleq	2c4208 <__bss_end__+0x2b8f70>
    150c:	0b3a1349 	bleq	e86238 <__bss_end__+0xe7afa0>
    1510:	0b390b3b 	bleq	e44204 <__bss_end__+0xe38f6c>
    1514:	00001301 	andeq	r1, r0, r1, lsl #6
    1518:	03002807 	movweq	r2, #2055	; 0x807
    151c:	000b1c0e 	andeq	r1, fp, lr, lsl #24
    1520:	01130800 	tsteq	r3, r0, lsl #16
    1524:	0b0b0e03 	bleq	2c4d38 <__bss_end__+0x2b9aa0>
    1528:	0b3b0b3a 	bleq	ec4218 <__bss_end__+0xeb8f80>
    152c:	13010b39 	movwne	r0, #6969	; 0x1b39
    1530:	0d090000 	stceq	0, cr0, [r9, #-0]
    1534:	3a080300 	bcc	20213c <__bss_end__+0x1f6ea4>
    1538:	390b3b0b 	stmdbcc	fp, {r0, r1, r3, r8, r9, fp, ip, sp}
    153c:	3813490b 	ldmdacc	r3, {r0, r1, r3, r8, fp, lr}
    1540:	0a00000b 	beq	1574 <__code_start__-0x6a8c>
    1544:	0e03000d 	cdpeq	0, 0, cr0, cr3, cr13, {0}
    1548:	0b3b0b3a 	bleq	ec4238 <__bss_end__+0xeb8fa0>
    154c:	13490b39 	movtne	r0, #39737	; 0x9b39
    1550:	00000b38 	andeq	r0, r0, r8, lsr fp
    1554:	0300340b 	movweq	r3, #1035	; 0x40b
    1558:	3b0b3a0e 	blcc	2cfd98 <__bss_end__+0x2c4b00>
    155c:	490b390b 	stmdbmi	fp, {r0, r1, r3, r8, fp, ip, sp}
    1560:	00061c13 	andeq	r1, r6, r3, lsl ip
    1564:	000f0c00 	andeq	r0, pc, r0, lsl #24
    1568:	13490b0b 	movtne	r0, #39691	; 0x9b0b
    156c:	260d0000 	strcs	r0, [sp], -r0
    1570:	00134900 	andseq	r4, r3, r0, lsl #18
    1574:	012e0e00 			; <UNDEFINED> instruction: 0x012e0e00
    1578:	0e03193f 			; <UNDEFINED> instruction: 0x0e03193f
    157c:	0b3b0b3a 	bleq	ec426c <__bss_end__+0xeb8fd4>
    1580:	19270b39 	stmdbne	r7!, {r0, r3, r4, r5, r8, r9, fp}
    1584:	06120111 			; <UNDEFINED> instruction: 0x06120111
    1588:	42971840 	addsmi	r1, r7, #64, 16	; 0x400000
    158c:	00130119 	andseq	r0, r3, r9, lsl r1
    1590:	82890f00 	addhi	r0, r9, #0, 30
    1594:	01110001 	tsteq	r1, r1
    1598:	00001331 	andeq	r1, r0, r1, lsr r3
    159c:	3f012e10 	svccc	0x00012e10
    15a0:	3a0e0319 	bcc	38220c <__bss_end__+0x376f74>
    15a4:	390b3b0b 	stmdbcc	fp, {r0, r1, r3, r8, r9, fp, ip, sp}
    15a8:	4919270b 	ldmdbmi	r9, {r0, r1, r3, r8, r9, sl, sp}
    15ac:	12011113 	andne	r1, r1, #-1073741820	; 0xc0000004
    15b0:	97184006 	ldrls	r4, [r8, -r6]
    15b4:	13011942 	movwne	r1, #6466	; 0x1942
    15b8:	89110000 	ldmdbhi	r1, {}	; <UNPREDICTABLE>
    15bc:	11010182 	smlabbne	r1, r2, r1, r0
    15c0:	00133101 	andseq	r3, r3, r1, lsl #2
    15c4:	828a1200 	addhi	r1, sl, #0, 4
    15c8:	18020001 	stmdane	r2, {r0}
    15cc:	00184291 	mulseq	r8, r1, r2
    15d0:	00051300 	andeq	r1, r5, r0, lsl #6
    15d4:	0b3a0803 	bleq	e835e8 <__bss_end__+0xe78350>
    15d8:	0b390b3b 	bleq	e442cc <__bss_end__+0xe39034>
    15dc:	17021349 	strne	r1, [r2, -r9, asr #6]
    15e0:	001742b7 			; <UNDEFINED> instruction: 0x001742b7
    15e4:	82891400 	addhi	r1, r9, #0, 8
    15e8:	01110101 	tsteq	r1, r1, lsl #2
    15ec:	13011331 	movwne	r1, #4913	; 0x1331
    15f0:	34150000 	ldrcc	r0, [r5], #-0
    15f4:	3a080300 	bcc	2021fc <__bss_end__+0x1f6f64>
    15f8:	390b3b0b 	stmdbcc	fp, {r0, r1, r3, r8, r9, fp, ip, sp}
    15fc:	0213490b 	andseq	r4, r3, #180224	; 0x2c000
    1600:	1742b717 	smlaldne	fp, r2, r7, r7
    1604:	34160000 	ldrcc	r0, [r6], #-0
    1608:	3a0e0300 	bcc	382210 <__bss_end__+0x376f78>
    160c:	390b3b0b 	stmdbcc	fp, {r0, r1, r3, r8, r9, fp, ip, sp}
    1610:	1c13490b 			; <UNDEFINED> instruction: 0x1c13490b
    1614:	17000005 	strne	r0, [r0, -r5]
    1618:	0e03012e 	adfeqsp	f0, f3, #0.5
    161c:	0b3b0b3a 	bleq	ec430c <__bss_end__+0xeb9074>
    1620:	19270b39 	stmdbne	r7!, {r0, r3, r4, r5, r8, r9, fp}
    1624:	06120111 			; <UNDEFINED> instruction: 0x06120111
    1628:	42971840 	addsmi	r1, r7, #64, 16	; 0x400000
    162c:	00130119 	andseq	r0, r3, r9, lsl r1
    1630:	00051800 	andeq	r1, r5, r0, lsl #16
    1634:	0b3a0e03 	bleq	e84e48 <__bss_end__+0xe79bb0>
    1638:	0b390b3b 	bleq	e4432c <__bss_end__+0xe39094>
    163c:	17021349 	strne	r1, [r2, -r9, asr #6]
    1640:	001742b7 			; <UNDEFINED> instruction: 0x001742b7
    1644:	00351900 	eorseq	r1, r5, r0, lsl #18
    1648:	2e1a0000 	cdpcs	0, 1, cr0, cr10, cr0, {0}
    164c:	3c193f00 	ldccc	15, cr3, [r9], {-0}
    1650:	030e6e19 	movweq	r6, #60953	; 0xee19
    1654:	3b0b3a0e 	blcc	2cfe94 <__bss_end__+0x2c4bfc>
    1658:	000b390b 	andeq	r3, fp, fp, lsl #18
    165c:	11010000 	mrsne	r0, (UNDEF: 1)
    1660:	130e2501 	movwne	r2, #58625	; 0xe501
    1664:	1b0e030b 	blne	382298 <__bss_end__+0x377000>
    1668:	1201110e 	andne	r1, r1, #-2147483645	; 0x80000003
    166c:	00171006 	andseq	r1, r7, r6
    1670:	00240200 	eoreq	r0, r4, r0, lsl #4
    1674:	0b3e0b0b 	bleq	f842a8 <__bss_end__+0xf79010>
    1678:	00000803 	andeq	r0, r0, r3, lsl #16
    167c:	0b002403 	bleq	a690 <__FUNCTION__.4028+0x90>
    1680:	030b3e0b 	movweq	r3, #48651	; 0xbe0b
    1684:	0400000e 	streq	r0, [r0], #-14
    1688:	0e030016 	mcreq	0, 0, r0, cr3, cr6, {0}
    168c:	0b3b0b3a 	bleq	ec437c <__bss_end__+0xeb90e4>
    1690:	13490b39 	movtne	r0, #39737	; 0x9b39
    1694:	26050000 	strcs	r0, [r5], -r0
    1698:	00134900 	andseq	r4, r3, r0, lsl #18
    169c:	000f0600 	andeq	r0, pc, r0, lsl #12
    16a0:	00000b0b 	andeq	r0, r0, fp, lsl #22
    16a4:	3e010407 	cdpcc	4, 0, cr0, cr1, cr7, {0}
    16a8:	490b0b0b 	stmdbmi	fp, {r0, r1, r3, r8, r9, fp}
    16ac:	3b0b3a13 	blcc	2cff00 <__bss_end__+0x2c4c68>
    16b0:	010b390b 	tsteq	fp, fp, lsl #18
    16b4:	08000013 	stmdaeq	r0, {r0, r1, r4}
    16b8:	0e030028 	cdpeq	0, 0, cr0, cr3, cr8, {1}
    16bc:	0000061c 	andeq	r0, r0, ip, lsl r6
    16c0:	03003409 	movweq	r3, #1033	; 0x409
    16c4:	3b0b3a0e 	blcc	2cff04 <__bss_end__+0x2c4c6c>
    16c8:	490b390b 	stmdbmi	fp, {r0, r1, r3, r8, fp, ip, sp}
    16cc:	3c193f13 	ldccc	15, cr3, [r9], {19}
    16d0:	0a000019 	beq	173c <__code_start__-0x68c4>
    16d4:	0e030034 	mcreq	0, 0, r0, cr3, cr4, {1}
    16d8:	0b3b0b3a 	bleq	ec43c8 <__bss_end__+0xeb9130>
    16dc:	13490b39 	movtne	r0, #39737	; 0x9b39
    16e0:	00001802 	andeq	r1, r0, r2, lsl #16
    16e4:	0b000f0b 	bleq	5318 <__code_start__-0x2ce8>
    16e8:	0013490b 	andseq	r4, r3, fp, lsl #18
    16ec:	012e0c00 			; <UNDEFINED> instruction: 0x012e0c00
    16f0:	0e03193f 			; <UNDEFINED> instruction: 0x0e03193f
    16f4:	0b3b0b3a 	bleq	ec43e4 <__bss_end__+0xeb914c>
    16f8:	19270b39 	stmdbne	r7!, {r0, r3, r4, r5, r8, r9, fp}
    16fc:	06120111 			; <UNDEFINED> instruction: 0x06120111
    1700:	42971840 	addsmi	r1, r7, #64, 16	; 0x400000
    1704:	00130119 	andseq	r0, r3, r9, lsl r1
    1708:	00050d00 	andeq	r0, r5, r0, lsl #26
    170c:	0b3a0803 	bleq	e83720 <__bss_end__+0xe78488>
    1710:	0b390b3b 	bleq	e44404 <__bss_end__+0xe3916c>
    1714:	17021349 	strne	r1, [r2, -r9, asr #6]
    1718:	001742b7 			; <UNDEFINED> instruction: 0x001742b7
    171c:	00340e00 	eorseq	r0, r4, r0, lsl #28
    1720:	13490e03 	movtne	r0, #40451	; 0x9e03
    1724:	18021934 	stmdane	r2, {r2, r4, r5, r8, fp, ip}
    1728:	890f0000 	stmdbhi	pc, {}	; <UNPREDICTABLE>
    172c:	11010182 	smlabbne	r1, r2, r1, r0
    1730:	01133101 	tsteq	r3, r1, lsl #2
    1734:	10000013 	andne	r0, r0, r3, lsl r0
    1738:	0001828a 	andeq	r8, r1, sl, lsl #5
    173c:	42911802 	addsmi	r1, r1, #131072	; 0x20000
    1740:	11000018 	tstne	r0, r8, lsl r0
    1744:	00018289 	andeq	r8, r1, r9, lsl #5
    1748:	13310111 	teqne	r1, #1073741828	; 0x40000004
    174c:	01120000 	tsteq	r2, r0
    1750:	01134901 	tsteq	r3, r1, lsl #18
    1754:	13000013 	movwne	r0, #19
    1758:	13490021 	movtne	r0, #36897	; 0x9021
    175c:	00000b2f 	andeq	r0, r0, pc, lsr #22
    1760:	3f002e14 	svccc	0x00002e14
    1764:	3a0e0319 	bcc	3823d0 <__bss_end__+0x377138>
    1768:	390b3b0b 	stmdbcc	fp, {r0, r1, r3, r8, r9, fp, ip, sp}
    176c:	1119270b 	tstne	r9, fp, lsl #14
    1770:	40061201 	andmi	r1, r6, r1, lsl #4
    1774:	19429718 	stmdbne	r2, {r3, r4, r8, r9, sl, ip, pc}^
    1778:	05150000 	ldreq	r0, [r5, #-0]
    177c:	3a080300 	bcc	202384 <__bss_end__+0x1f70ec>
    1780:	390b3b0b 	stmdbcc	fp, {r0, r1, r3, r8, r9, fp, ip, sp}
    1784:	0213490b 	andseq	r4, r3, #180224	; 0x2c000
    1788:	16000018 			; <UNDEFINED> instruction: 0x16000018
    178c:	193f012e 	ldmdbne	pc!, {r1, r2, r3, r5, r8}	; <UNPREDICTABLE>
    1790:	0b3a0e03 	bleq	e84fa4 <__bss_end__+0xe79d0c>
    1794:	0b390b3b 	bleq	e44488 <__bss_end__+0xe391f0>
    1798:	13491927 	movtne	r1, #39207	; 0x9927
    179c:	06120111 			; <UNDEFINED> instruction: 0x06120111
    17a0:	42971840 	addsmi	r1, r7, #64, 16	; 0x400000
    17a4:	00130119 	andseq	r0, r3, r9, lsl r1
    17a8:	00051700 	andeq	r1, r5, r0, lsl #14
    17ac:	0b3a0e03 	bleq	e84fc0 <__bss_end__+0xe79d28>
    17b0:	0b390b3b 	bleq	e444a4 <__bss_end__+0xe3920c>
    17b4:	17021349 	strne	r1, [r2, -r9, asr #6]
    17b8:	001742b7 			; <UNDEFINED> instruction: 0x001742b7
    17bc:	00341800 	eorseq	r1, r4, r0, lsl #16
    17c0:	0b3a0803 	bleq	e837d4 <__bss_end__+0xe7853c>
    17c4:	0b390b3b 	bleq	e444b8 <__bss_end__+0xe39220>
    17c8:	17021349 	strne	r1, [r2, -r9, asr #6]
    17cc:	001742b7 			; <UNDEFINED> instruction: 0x001742b7
    17d0:	011d1900 	tsteq	sp, r0, lsl #18
    17d4:	01521331 	cmpeq	r2, r1, lsr r3
    17d8:	110b42b8 			; <UNDEFINED> instruction: 0x110b42b8
    17dc:	58061201 	stmdapl	r6, {r0, r9, ip}
    17e0:	570b590b 	strpl	r5, [fp, -fp, lsl #18]
    17e4:	0013010b 	andseq	r0, r3, fp, lsl #2
    17e8:	00051a00 	andeq	r1, r5, r0, lsl #20
    17ec:	17021331 	smladxne	r2, r1, r3, r1
    17f0:	001742b7 			; <UNDEFINED> instruction: 0x001742b7
    17f4:	011d1b00 	tsteq	sp, r0, lsl #22
    17f8:	01521331 	cmpeq	r2, r1, lsr r3
    17fc:	550b42b8 	strpl	r4, [fp, #-696]	; 0xfffffd48
    1800:	590b5817 	stmdbpl	fp, {r0, r1, r2, r4, fp, ip, lr}
    1804:	010b570b 	tsteq	fp, fp, lsl #14
    1808:	1c000013 	stcne	0, cr0, [r0], {19}
    180c:	1755010b 	ldrbne	r0, [r5, -fp, lsl #2]
    1810:	341d0000 	ldrcc	r0, [sp], #-0
    1814:	3a0e0300 	bcc	38241c <__bss_end__+0x377184>
    1818:	390b3b0b 	stmdbcc	fp, {r0, r1, r3, r8, r9, fp, ip, sp}
    181c:	0213490b 	andseq	r4, r3, #180224	; 0x2c000
    1820:	1742b717 	smlaldne	fp, r2, r7, r7
    1824:	0b1e0000 	bleq	78182c <__bss_end__+0x776594>
    1828:	00175500 	andseq	r5, r7, r0, lsl #10
    182c:	002e1f00 	eoreq	r1, lr, r0, lsl #30
    1830:	0e03193f 			; <UNDEFINED> instruction: 0x0e03193f
    1834:	0b3b0b3a 	bleq	ec4524 <__bss_end__+0xeb928c>
    1838:	19270b39 	stmdbne	r7!, {r0, r3, r4, r5, r8, r9, fp}
    183c:	01111349 	tsteq	r1, r9, asr #6
    1840:	18400612 	stmdane	r0, {r1, r4, r9, sl}^
    1844:	00194297 	mulseq	r9, r7, r2
    1848:	012e2000 			; <UNDEFINED> instruction: 0x012e2000
    184c:	0b3a0e03 	bleq	e85060 <__bss_end__+0xe79dc8>
    1850:	0b390b3b 	bleq	e44544 <__bss_end__+0xe392ac>
    1854:	13491927 	movtne	r1, #39207	; 0x9927
    1858:	13010b20 	movwne	r0, #6944	; 0x1b20
    185c:	05210000 	streq	r0, [r1, #-0]!
    1860:	3a080300 	bcc	202468 <__bss_end__+0x1f71d0>
    1864:	390b3b0b 	stmdbcc	fp, {r0, r1, r3, r8, r9, fp, ip, sp}
    1868:	0013490b 	andseq	r4, r3, fp, lsl #18
    186c:	002e2200 	eoreq	r2, lr, r0, lsl #4
    1870:	193c193f 	ldmdbne	ip!, {r0, r1, r2, r3, r4, r5, r8, fp, ip}
    1874:	0e030e6e 	cdpeq	14, 0, cr0, cr3, cr14, {3}
    1878:	0b3b0b3a 	bleq	ec4568 <__bss_end__+0xeb92d0>
    187c:	00000b39 	andeq	r0, r0, r9, lsr fp
    1880:	01110100 	tsteq	r1, r0, lsl #2
    1884:	0b130e25 	bleq	4c5120 <__bss_end__+0x4b9e88>
    1888:	0e1b0e03 	cdpeq	14, 1, cr0, cr11, cr3, {0}
    188c:	06120111 			; <UNDEFINED> instruction: 0x06120111
    1890:	00001710 	andeq	r1, r0, r0, lsl r7
    1894:	0b002402 	bleq	a8a4 <__FUNCTION__.4081+0x1a4>
    1898:	030b3e0b 	movweq	r3, #48651	; 0xbe0b
    189c:	0300000e 	movweq	r0, #14
    18a0:	0b0b0024 	bleq	2c1938 <__bss_end__+0x2b66a0>
    18a4:	08030b3e 	stmdaeq	r3, {r1, r2, r3, r4, r5, r8, r9, fp}
    18a8:	26040000 	strcs	r0, [r4], -r0
    18ac:	00134900 	andseq	r4, r3, r0, lsl #18
    18b0:	00160500 	andseq	r0, r6, r0, lsl #10
    18b4:	0b3a0e03 	bleq	e850c8 <__bss_end__+0xe79e30>
    18b8:	0b390b3b 	bleq	e445ac <__bss_end__+0xe39314>
    18bc:	00001349 	andeq	r1, r0, r9, asr #6
    18c0:	27011506 	strcs	r1, [r1, -r6, lsl #10]
    18c4:	01134919 	tsteq	r3, r9, lsl r9
    18c8:	07000013 	smladeq	r0, r3, r0, r0
    18cc:	13490005 	movtne	r0, #36869	; 0x9005
    18d0:	34080000 	strcc	r0, [r8], #-0
    18d4:	3a0e0300 	bcc	3824dc <__bss_end__+0x377244>
    18d8:	390b3b0b 	stmdbcc	fp, {r0, r1, r3, r8, r9, fp, ip, sp}
    18dc:	3f13490b 	svccc	0x0013490b
    18e0:	00193c19 	andseq	r3, r9, r9, lsl ip
    18e4:	000f0900 	andeq	r0, pc, r0, lsl #18
    18e8:	13490b0b 	movtne	r0, #39691	; 0x9b0b
    18ec:	040a0000 	streq	r0, [sl], #-0
    18f0:	0b0b3e01 	bleq	2d10fc <__bss_end__+0x2c5e64>
    18f4:	3a13490b 	bcc	4d3d28 <__bss_end__+0x4c8a90>
    18f8:	390b3b0b 	stmdbcc	fp, {r0, r1, r3, r8, r9, fp, ip, sp}
    18fc:	0013010b 	andseq	r0, r3, fp, lsl #2
    1900:	00280b00 	eoreq	r0, r8, r0, lsl #22
    1904:	0b1c0e03 	bleq	705118 <__bss_end__+0x6f9e80>
    1908:	340c0000 	strcc	r0, [ip], #-0
    190c:	3a0e0300 	bcc	382514 <__bss_end__+0x37727c>
    1910:	390b3b0b 	stmdbcc	fp, {r0, r1, r3, r8, r9, fp, ip, sp}
    1914:	1c13490b 			; <UNDEFINED> instruction: 0x1c13490b
    1918:	0d000006 	stceq	0, cr0, [r0, #-24]	; 0xffffffe8
    191c:	193f012e 	ldmdbne	pc!, {r1, r2, r3, r5, r8}	; <UNPREDICTABLE>
    1920:	0b3a0e03 	bleq	e85134 <__bss_end__+0xe79e9c>
    1924:	0b390b3b 	bleq	e44618 <__bss_end__+0xe39380>
    1928:	13491927 	movtne	r1, #39207	; 0x9927
    192c:	06120111 			; <UNDEFINED> instruction: 0x06120111
    1930:	42971840 	addsmi	r1, r7, #64, 16	; 0x400000
    1934:	00130119 	andseq	r0, r3, r9, lsl r1
    1938:	00050e00 	andeq	r0, r5, r0, lsl #28
    193c:	0b3a0803 	bleq	e83950 <__bss_end__+0xe786b8>
    1940:	0b390b3b 	bleq	e44634 <__bss_end__+0xe3939c>
    1944:	17021349 	strne	r1, [r2, -r9, asr #6]
    1948:	001742b7 			; <UNDEFINED> instruction: 0x001742b7
    194c:	00340f00 	eorseq	r0, r4, r0, lsl #30
    1950:	0b3a0e03 	bleq	e85164 <__bss_end__+0xe79ecc>
    1954:	0b390b3b 	bleq	e44648 <__bss_end__+0xe393b0>
    1958:	17021349 	strne	r1, [r2, -r9, asr #6]
    195c:	001742b7 			; <UNDEFINED> instruction: 0x001742b7
    1960:	00341000 	eorseq	r1, r4, r0
    1964:	0b3a0803 	bleq	e83978 <__bss_end__+0xe786e0>
    1968:	0b390b3b 	bleq	e4465c <__bss_end__+0xe393c4>
    196c:	17021349 	strne	r1, [r2, -r9, asr #6]
    1970:	001742b7 			; <UNDEFINED> instruction: 0x001742b7
    1974:	82891100 	addhi	r1, r9, #0
    1978:	01110101 	tsteq	r1, r1, lsl #2
    197c:	00001331 	andeq	r1, r0, r1, lsr r3
    1980:	01828a12 	orreq	r8, r2, r2, lsl sl
    1984:	91180200 	tstls	r8, r0, lsl #4
    1988:	00001842 	andeq	r1, r0, r2, asr #16
    198c:	3f012e13 	svccc	0x00012e13
    1990:	3a0e0319 	bcc	3825fc <__bss_end__+0x377364>
    1994:	390b3b0b 	stmdbcc	fp, {r0, r1, r3, r8, r9, fp, ip, sp}
    1998:	1119270b 	tstne	r9, fp, lsl #14
    199c:	40061201 	andmi	r1, r6, r1, lsl #4
    19a0:	19429718 	stmdbne	r2, {r3, r4, r8, r9, sl, ip, pc}^
    19a4:	00001301 	andeq	r1, r0, r1, lsl #6
    19a8:	31011d14 	tstcc	r1, r4, lsl sp
    19ac:	b8015213 	stmdalt	r1, {r0, r1, r4, r9, ip, lr}
    19b0:	17550b42 	ldrbne	r0, [r5, -r2, asr #22]
    19b4:	0b590b58 	bleq	164471c <__bss_end__+0x1639484>
    19b8:	13010b57 	movwne	r0, #6999	; 0x1b57
    19bc:	05150000 	ldreq	r0, [r5, #-0]
    19c0:	02133100 	andseq	r3, r3, #0
    19c4:	1742b717 	smlaldne	fp, r2, r7, r7
    19c8:	89160000 	ldmdbhi	r6, {}	; <UNPREDICTABLE>
    19cc:	11010182 	smlabbne	r1, r2, r1, r0
    19d0:	19429501 	stmdbne	r2, {r0, r8, sl, ip, pc}^
    19d4:	00001331 	andeq	r1, r0, r1, lsr r3
    19d8:	31011d17 	tstcc	r1, r7, lsl sp
    19dc:	b8015213 	stmdalt	r1, {r0, r1, r4, r9, ip, lr}
    19e0:	01110b42 	tsteq	r1, r2, asr #22
    19e4:	0b580612 	bleq	1603234 <__bss_end__+0x15f7f9c>
    19e8:	0b570b59 	bleq	15c4754 <__bss_end__+0x15b94bc>
    19ec:	1d180000 	ldcne	0, cr0, [r8, #-0]
    19f0:	52133101 	andspl	r3, r3, #1073741824	; 0x40000000
    19f4:	0b42b801 	bleq	10afa00 <__bss_end__+0x10a4768>
    19f8:	0b581755 	bleq	1607754 <__bss_end__+0x15fc4bc>
    19fc:	0b570b59 	bleq	15c4768 <__bss_end__+0x15b94d0>
    1a00:	05190000 	ldreq	r0, [r9, #-0]
    1a04:	1c133100 	ldfnes	f3, [r3], {-0}
    1a08:	1a00000b 	bne	1a3c <__code_start__-0x65c4>
    1a0c:	1755010b 	ldrbne	r0, [r5, -fp, lsl #2]
    1a10:	341b0000 	ldrcc	r0, [fp], #-0
    1a14:	00133100 	andseq	r3, r3, r0, lsl #2
    1a18:	00341c00 	eorseq	r1, r4, r0, lsl #24
    1a1c:	17021331 	smladxne	r2, r1, r3, r1
    1a20:	001742b7 			; <UNDEFINED> instruction: 0x001742b7
    1a24:	82891d00 	addhi	r1, r9, #0, 26
    1a28:	01110101 	tsteq	r1, r1, lsl #2
    1a2c:	13011331 	movwne	r1, #4913	; 0x1331
    1a30:	2e1e0000 	cdpcs	0, 1, cr0, cr14, cr0, {0}
    1a34:	03193f01 	tsteq	r9, #1, 30
    1a38:	3b0b3a0e 	blcc	2d0278 <__bss_end__+0x2c4fe0>
    1a3c:	270b390b 	strcs	r3, [fp, -fp, lsl #18]
    1a40:	010b2019 	tsteq	fp, r9, lsl r0
    1a44:	1f000013 	svcne	0x00000013
    1a48:	08030005 	stmdaeq	r3, {r0, r2}
    1a4c:	0b3b0b3a 	bleq	ec473c <__bss_end__+0xeb94a4>
    1a50:	13490b39 	movtne	r0, #39737	; 0x9b39
    1a54:	05200000 	streq	r0, [r0, #-0]!
    1a58:	3a0e0300 	bcc	382660 <__bss_end__+0x3773c8>
    1a5c:	390b3b0b 	stmdbcc	fp, {r0, r1, r3, r8, r9, fp, ip, sp}
    1a60:	0013490b 	andseq	r4, r3, fp, lsl #18
    1a64:	00342100 	eorseq	r2, r4, r0, lsl #2
    1a68:	0b3a0803 	bleq	e83a7c <__bss_end__+0xe787e4>
    1a6c:	0b390b3b 	bleq	e44760 <__bss_end__+0xe394c8>
    1a70:	00001349 	andeq	r1, r0, r9, asr #6
    1a74:	03012e22 	movweq	r2, #7714	; 0x1e22
    1a78:	3b0b3a0e 	blcc	2d02b8 <__bss_end__+0x2c5020>
    1a7c:	270b390b 	strcs	r3, [fp, -fp, lsl #18]
    1a80:	20134919 	andscs	r4, r3, r9, lsl r9
    1a84:	0013010b 	andseq	r0, r3, fp, lsl #2
    1a88:	012e2300 			; <UNDEFINED> instruction: 0x012e2300
    1a8c:	01111331 	tsteq	r1, r1, lsr r3
    1a90:	18400612 	stmdane	r0, {r1, r4, r9, sl}^
    1a94:	01194297 			; <UNDEFINED> instruction: 0x01194297
    1a98:	24000013 	strcs	r0, [r0], #-19	; 0xffffffed
    1a9c:	193f002e 	ldmdbne	pc!, {r1, r2, r3, r5}	; <UNPREDICTABLE>
    1aa0:	0e6e193c 			; <UNDEFINED> instruction: 0x0e6e193c
    1aa4:	0b3a0e03 	bleq	e852b8 <__bss_end__+0xe7a020>
    1aa8:	0b390b3b 	bleq	e4479c <__bss_end__+0xe39504>
    1aac:	01000000 	mrseq	r0, (UNDEF: 0)
    1ab0:	0e250111 	mcreq	1, 1, r0, cr5, cr1, {0}
    1ab4:	0e030b13 	vmoveq.32	d3[0], r0
    1ab8:	01110e1b 	tsteq	r1, fp, lsl lr
    1abc:	17100612 			; <UNDEFINED> instruction: 0x17100612
    1ac0:	24020000 	strcs	r0, [r2], #-0
    1ac4:	3e0b0b00 	vmlacc.f64	d0, d11, d0
    1ac8:	0008030b 	andeq	r0, r8, fp, lsl #6
    1acc:	00240300 	eoreq	r0, r4, r0, lsl #6
    1ad0:	0b3e0b0b 	bleq	f84704 <__bss_end__+0xf7946c>
    1ad4:	00000e03 	andeq	r0, r0, r3, lsl #28
    1ad8:	27011504 	strcs	r1, [r1, -r4, lsl #10]
    1adc:	01134919 	tsteq	r3, r9, lsl r9
    1ae0:	05000013 	streq	r0, [r0, #-19]	; 0xffffffed
    1ae4:	13490005 	movtne	r0, #36869	; 0x9005
    1ae8:	34060000 	strcc	r0, [r6], #-0
    1aec:	3a0e0300 	bcc	3826f4 <__bss_end__+0x37745c>
    1af0:	390b3b0b 	stmdbcc	fp, {r0, r1, r3, r8, r9, fp, ip, sp}
    1af4:	3f13490b 	svccc	0x0013490b
    1af8:	00193c19 	andseq	r3, r9, r9, lsl ip
    1afc:	000f0700 	andeq	r0, pc, r0, lsl #14
    1b00:	13490b0b 	movtne	r0, #39691	; 0x9b0b
    1b04:	26080000 	strcs	r0, [r8], -r0
    1b08:	00134900 	andseq	r4, r3, r0, lsl #18
    1b0c:	00340900 	eorseq	r0, r4, r0, lsl #18
    1b10:	0b3a1347 	bleq	e86834 <__bss_end__+0xe7b59c>
    1b14:	0b390b3b 	bleq	e44808 <__bss_end__+0xe39570>
    1b18:	00001802 	andeq	r1, r0, r2, lsl #16
    1b1c:	3f012e0a 	svccc	0x00012e0a
    1b20:	3a0e0319 	bcc	38278c <__bss_end__+0x3774f4>
    1b24:	390b3b0b 	stmdbcc	fp, {r0, r1, r3, r8, r9, fp, ip, sp}
    1b28:	1119270b 	tstne	r9, fp, lsl #14
    1b2c:	40061201 	andmi	r1, r6, r1, lsl #4
    1b30:	19429718 	stmdbne	r2, {r3, r4, r8, r9, sl, ip, pc}^
    1b34:	00001301 	andeq	r1, r0, r1, lsl #6
    1b38:	0300050b 	movweq	r0, #1291	; 0x50b
    1b3c:	3b0b3a08 	blcc	2d0364 <__bss_end__+0x2c50cc>
    1b40:	490b390b 	stmdbmi	fp, {r0, r1, r3, r8, fp, ip, sp}
    1b44:	00180213 	andseq	r0, r8, r3, lsl r2
    1b48:	002e0c00 	eoreq	r0, lr, r0, lsl #24
    1b4c:	0e03193f 			; <UNDEFINED> instruction: 0x0e03193f
    1b50:	0b3b0b3a 	bleq	ec4840 <__bss_end__+0xeb95a8>
    1b54:	19270b39 	stmdbne	r7!, {r0, r3, r4, r5, r8, r9, fp}
    1b58:	06120111 			; <UNDEFINED> instruction: 0x06120111
    1b5c:	42971840 	addsmi	r1, r7, #64, 16	; 0x400000
    1b60:	0d000019 	stceq	0, cr0, [r0, #-100]	; 0xffffff9c
    1b64:	0e03012e 	adfeqsp	f0, f3, #0.5
    1b68:	0b3b0b3a 	bleq	ec4858 <__bss_end__+0xeb95c0>
    1b6c:	19270b39 	stmdbne	r7!, {r0, r3, r4, r5, r8, r9, fp}
    1b70:	01111349 	tsteq	r1, r9, asr #6
    1b74:	18400612 	stmdane	r0, {r1, r4, r9, sl}^
    1b78:	01194297 			; <UNDEFINED> instruction: 0x01194297
    1b7c:	0e000013 	mcreq	0, 0, r0, cr0, cr3, {0}
    1b80:	08030005 	stmdaeq	r3, {r0, r2}
    1b84:	0b3b0b3a 	bleq	ec4874 <__bss_end__+0xeb95dc>
    1b88:	13490b39 	movtne	r0, #39737	; 0x9b39
    1b8c:	42b71702 	adcsmi	r1, r7, #524288	; 0x80000
    1b90:	0f000017 	svceq	0x00000017
    1b94:	01018289 	smlabbeq	r1, r9, r2, r8
    1b98:	13310111 	teqne	r1, #1073741828	; 0x40000004
    1b9c:	8a100000 	bhi	401ba4 <__bss_end__+0x3f690c>
    1ba0:	02000182 	andeq	r0, r0, #-2147483616	; 0x80000020
    1ba4:	18429118 	stmdane	r2, {r3, r4, r8, ip, pc}^
    1ba8:	2e110000 	cdpcs	0, 1, cr0, cr1, cr0, {0}
    1bac:	3c193f00 	ldccc	15, cr3, [r9], {-0}
    1bb0:	030e6e19 	movweq	r6, #60953	; 0xee19
    1bb4:	3b0b3a0e 	blcc	2d03f4 <__bss_end__+0x2c515c>
    1bb8:	000b390b 	andeq	r3, fp, fp, lsl #18
    1bbc:	11010000 	mrsne	r0, (UNDEF: 1)
    1bc0:	130e2501 	movwne	r2, #58625	; 0xe501
    1bc4:	1b0e030b 	blne	3827f8 <__bss_end__+0x377560>
    1bc8:	1201110e 	andne	r1, r1, #-2147483645	; 0x80000003
    1bcc:	00171006 	andseq	r1, r7, r6
    1bd0:	00240200 	eoreq	r0, r4, r0, lsl #4
    1bd4:	0b3e0b0b 	bleq	f84808 <__bss_end__+0xf79570>
    1bd8:	00000803 	andeq	r0, r0, r3, lsl #16
    1bdc:	0b002403 	bleq	abf0 <__FUNCTION__.4134+0x124>
    1be0:	030b3e0b 	movweq	r3, #48651	; 0xbe0b
    1be4:	0400000e 	streq	r0, [r0], #-14
    1be8:	19270115 	stmdbne	r7!, {r0, r2, r4, r8}
    1bec:	13011349 	movwne	r1, #4937	; 0x1349
    1bf0:	05050000 	streq	r0, [r5, #-0]
    1bf4:	00134900 	andseq	r4, r3, r0, lsl #18
    1bf8:	00340600 	eorseq	r0, r4, r0, lsl #12
    1bfc:	0b3a0e03 	bleq	e85410 <__bss_end__+0xe7a178>
    1c00:	0b390b3b 	bleq	e448f4 <__bss_end__+0xe3965c>
    1c04:	193f1349 	ldmdbne	pc!, {r0, r3, r6, r8, r9, ip}	; <UNPREDICTABLE>
    1c08:	0000193c 	andeq	r1, r0, ip, lsr r9
    1c0c:	0b000f07 	bleq	5830 <__code_start__-0x27d0>
    1c10:	0013490b 	andseq	r4, r3, fp, lsl #18
    1c14:	00260800 	eoreq	r0, r6, r0, lsl #16
    1c18:	00001349 	andeq	r1, r0, r9, asr #6
    1c1c:	3f012e09 	svccc	0x00012e09
    1c20:	3a0e0319 	bcc	38288c <__bss_end__+0x3775f4>
    1c24:	390b3b0b 	stmdbcc	fp, {r0, r1, r3, r8, r9, fp, ip, sp}
    1c28:	4919270b 	ldmdbmi	r9, {r0, r1, r3, r8, r9, sl, sp}
    1c2c:	12011113 	andne	r1, r1, #-1073741820	; 0xc0000004
    1c30:	97184006 	ldrls	r4, [r8, -r6]
    1c34:	13011942 	movwne	r1, #6466	; 0x1942
    1c38:	050a0000 	streq	r0, [sl, #-0]
    1c3c:	3a0e0300 	bcc	382844 <__bss_end__+0x3775ac>
    1c40:	390b3b0b 	stmdbcc	fp, {r0, r1, r3, r8, r9, fp, ip, sp}
    1c44:	0213490b 	andseq	r4, r3, #180224	; 0x2c000
    1c48:	0b000018 	bleq	1cb0 <__code_start__-0x6350>
    1c4c:	08030005 	stmdaeq	r3, {r0, r2}
    1c50:	0b3b0b3a 	bleq	ec4940 <__bss_end__+0xeb96a8>
    1c54:	13490b39 	movtne	r0, #39737	; 0x9b39
    1c58:	42b71702 	adcsmi	r1, r7, #524288	; 0x80000
    1c5c:	0c000017 	stceq	0, cr0, [r0], {23}
    1c60:	08030034 	stmdaeq	r3, {r2, r4, r5}
    1c64:	0b3b0b3a 	bleq	ec4954 <__bss_end__+0xeb96bc>
    1c68:	13490b39 	movtne	r0, #39737	; 0x9b39
    1c6c:	42b71702 	adcsmi	r1, r7, #524288	; 0x80000
    1c70:	00000017 	andeq	r0, r0, r7, lsl r0
    1c74:	25011101 	strcs	r1, [r1, #-257]	; 0xfffffeff
    1c78:	030b130e 	movweq	r1, #45838	; 0xb30e
    1c7c:	110e1b0e 	tstne	lr, lr, lsl #22
    1c80:	10061201 	andne	r1, r6, r1, lsl #4
    1c84:	02000017 	andeq	r0, r0, #23, 0
    1c88:	0b0b0024 	bleq	2c1d20 <__bss_end__+0x2b6a88>
    1c8c:	08030b3e 	stmdaeq	r3, {r1, r2, r3, r4, r5, r8, r9, fp}
    1c90:	24030000 	strcs	r0, [r3], #-0
    1c94:	3e0b0b00 	vmlacc.f64	d0, d11, d0
    1c98:	000e030b 	andeq	r0, lr, fp, lsl #6
    1c9c:	01150400 	tsteq	r5, r0, lsl #8
    1ca0:	13491927 	movtne	r1, #39207	; 0x9927
    1ca4:	00001301 	andeq	r1, r0, r1, lsl #6
    1ca8:	49000505 	stmdbmi	r0, {r0, r2, r8, sl}
    1cac:	06000013 			; <UNDEFINED> instruction: 0x06000013
    1cb0:	0e030034 	mcreq	0, 0, r0, cr3, cr4, {1}
    1cb4:	0b3b0b3a 	bleq	ec49a4 <__bss_end__+0xeb970c>
    1cb8:	13490b39 	movtne	r0, #39737	; 0x9b39
    1cbc:	193c193f 	ldmdbne	ip!, {r0, r1, r2, r3, r4, r5, r8, fp, ip}
    1cc0:	0f070000 	svceq	0x00070000
    1cc4:	490b0b00 	stmdbmi	fp, {r8, r9, fp}
    1cc8:	08000013 	stmdaeq	r0, {r0, r1, r4}
    1ccc:	13490026 	movtne	r0, #36902	; 0x9026
    1cd0:	2e090000 	cdpcs	0, 0, cr0, cr9, cr0, {0}
    1cd4:	03193f01 	tsteq	r9, #1, 30
    1cd8:	3b0b3a0e 	blcc	2d0518 <__bss_end__+0x2c5280>
    1cdc:	270b390b 	strcs	r3, [fp, -fp, lsl #18]
    1ce0:	11134919 	tstne	r3, r9, lsl r9
    1ce4:	40061201 	andmi	r1, r6, r1, lsl #4
    1ce8:	19429718 	stmdbne	r2, {r3, r4, r8, r9, sl, ip, pc}^
    1cec:	050a0000 	streq	r0, [sl, #-0]
    1cf0:	3a080300 	bcc	2028f8 <__bss_end__+0x1f7660>
    1cf4:	390b3b0b 	stmdbcc	fp, {r0, r1, r3, r8, r9, fp, ip, sp}
    1cf8:	0213490b 	andseq	r4, r3, #180224	; 0x2c000
    1cfc:	1742b717 	smlaldne	fp, r2, r7, r7
    1d00:	01000000 	mrseq	r0, (UNDEF: 0)
    1d04:	0e250111 	mcreq	1, 1, r0, cr5, cr1, {0}
    1d08:	0e030b13 	vmoveq.32	d3[0], r0
    1d0c:	01110e1b 	tsteq	r1, fp, lsl lr
    1d10:	17100612 			; <UNDEFINED> instruction: 0x17100612
    1d14:	24020000 	strcs	r0, [r2], #-0
    1d18:	3e0b0b00 	vmlacc.f64	d0, d11, d0
    1d1c:	0008030b 	andeq	r0, r8, fp, lsl #6
    1d20:	00240300 	eoreq	r0, r4, r0, lsl #6
    1d24:	0b3e0b0b 	bleq	f84958 <__bss_end__+0xf796c0>
    1d28:	00000e03 	andeq	r0, r0, r3, lsl #28
    1d2c:	27011504 	strcs	r1, [r1, -r4, lsl #10]
    1d30:	01134919 	tsteq	r3, r9, lsl r9
    1d34:	05000013 	streq	r0, [r0, #-19]	; 0xffffffed
    1d38:	13490005 	movtne	r0, #36869	; 0x9005
    1d3c:	34060000 	strcc	r0, [r6], #-0
    1d40:	3a0e0300 	bcc	382948 <__bss_end__+0x3776b0>
    1d44:	390b3b0b 	stmdbcc	fp, {r0, r1, r3, r8, r9, fp, ip, sp}
    1d48:	3f13490b 	svccc	0x0013490b
    1d4c:	00193c19 	andseq	r3, r9, r9, lsl ip
    1d50:	000f0700 	andeq	r0, pc, r0, lsl #14
    1d54:	13490b0b 	movtne	r0, #39691	; 0x9b0b
    1d58:	26080000 	strcs	r0, [r8], -r0
    1d5c:	00134900 	andseq	r4, r3, r0, lsl #18
    1d60:	012e0900 			; <UNDEFINED> instruction: 0x012e0900
    1d64:	0e03193f 			; <UNDEFINED> instruction: 0x0e03193f
    1d68:	0b3b0b3a 	bleq	ec4a58 <__bss_end__+0xeb97c0>
    1d6c:	19270b39 	stmdbne	r7!, {r0, r3, r4, r5, r8, r9, fp}
    1d70:	01111349 	tsteq	r1, r9, asr #6
    1d74:	18400612 	stmdane	r0, {r1, r4, r9, sl}^
    1d78:	01194297 			; <UNDEFINED> instruction: 0x01194297
    1d7c:	0a000013 	beq	1dd0 <__code_start__-0x6230>
    1d80:	08030005 	stmdaeq	r3, {r0, r2}
    1d84:	0b3b0b3a 	bleq	ec4a74 <__bss_end__+0xeb97dc>
    1d88:	13490b39 	movtne	r0, #39737	; 0x9b39
    1d8c:	00001802 	andeq	r1, r0, r2, lsl #16
    1d90:	0300050b 	movweq	r0, #1291	; 0x50b
    1d94:	3b0b3a08 	blcc	2d05bc <__bss_end__+0x2c5324>
    1d98:	490b390b 	stmdbmi	fp, {r0, r1, r3, r8, fp, ip, sp}
    1d9c:	b7170213 			; <UNDEFINED> instruction: 0xb7170213
    1da0:	00001742 	andeq	r1, r0, r2, asr #14
    1da4:	0300340c 	movweq	r3, #1036	; 0x40c
    1da8:	3b0b3a08 	blcc	2d05d0 <__bss_end__+0x2c5338>
    1dac:	490b390b 	stmdbmi	fp, {r0, r1, r3, r8, fp, ip, sp}
    1db0:	b7170213 			; <UNDEFINED> instruction: 0xb7170213
    1db4:	00001742 	andeq	r1, r0, r2, asr #14
    1db8:	01110100 	tsteq	r1, r0, lsl #2
    1dbc:	0b130e25 	bleq	4c5658 <__bss_end__+0x4ba3c0>
    1dc0:	0e1b0e03 	cdpeq	14, 1, cr0, cr11, cr3, {0}
    1dc4:	06120111 			; <UNDEFINED> instruction: 0x06120111
    1dc8:	00001710 	andeq	r1, r0, r0, lsl r7
    1dcc:	0b002402 	bleq	addc <__FUNCTION__.4030+0x194>
    1dd0:	030b3e0b 	movweq	r3, #48651	; 0xbe0b
    1dd4:	03000008 	movweq	r0, #8
    1dd8:	0e030016 	mcreq	0, 0, r0, cr3, cr6, {0}
    1ddc:	0b3b0b3a 	bleq	ec4acc <__bss_end__+0xeb9834>
    1de0:	13490b39 	movtne	r0, #39737	; 0x9b39
    1de4:	24040000 	strcs	r0, [r4], #-0
    1de8:	3e0b0b00 	vmlacc.f64	d0, d11, d0
    1dec:	000e030b 	andeq	r0, lr, fp, lsl #6
    1df0:	00260500 	eoreq	r0, r6, r0, lsl #10
    1df4:	00001349 	andeq	r1, r0, r9, asr #6
    1df8:	27011506 	strcs	r1, [r1, -r6, lsl #10]
    1dfc:	01134919 	tsteq	r3, r9, lsl r9
    1e00:	07000013 	smladeq	r0, r3, r0, r0
    1e04:	13490005 	movtne	r0, #36869	; 0x9005
    1e08:	34080000 	strcc	r0, [r8], #-0
    1e0c:	3a0e0300 	bcc	382a14 <__bss_end__+0x37777c>
    1e10:	390b3b0b 	stmdbcc	fp, {r0, r1, r3, r8, r9, fp, ip, sp}
    1e14:	3f13490b 	svccc	0x0013490b
    1e18:	00193c19 	andseq	r3, r9, r9, lsl ip
    1e1c:	000f0900 	andeq	r0, pc, r0, lsl #18
    1e20:	13490b0b 	movtne	r0, #39691	; 0x9b0b
    1e24:	2e0a0000 	cdpcs	0, 0, cr0, cr10, cr0, {0}
    1e28:	03193f01 	tsteq	r9, #1, 30
    1e2c:	3b0b3a0e 	blcc	2d066c <__bss_end__+0x2c53d4>
    1e30:	270b390b 	strcs	r3, [fp, -fp, lsl #18]
    1e34:	11134919 	tstne	r3, r9, lsl r9
    1e38:	40061201 	andmi	r1, r6, r1, lsl #4
    1e3c:	19429718 	stmdbne	r2, {r3, r4, r8, r9, sl, ip, pc}^
    1e40:	00001301 	andeq	r1, r0, r1, lsl #6
    1e44:	0300050b 	movweq	r0, #1291	; 0x50b
    1e48:	3b0b3a08 	blcc	2d0670 <__bss_end__+0x2c53d8>
    1e4c:	490b390b 	stmdbmi	fp, {r0, r1, r3, r8, fp, ip, sp}
    1e50:	b7170213 			; <UNDEFINED> instruction: 0xb7170213
    1e54:	00001742 	andeq	r1, r0, r2, asr #14
    1e58:	0300340c 	movweq	r3, #1036	; 0x40c
    1e5c:	3b0b3a08 	blcc	2d0684 <__bss_end__+0x2c53ec>
    1e60:	490b390b 	stmdbmi	fp, {r0, r1, r3, r8, fp, ip, sp}
    1e64:	b7170213 			; <UNDEFINED> instruction: 0xb7170213
    1e68:	00001742 	andeq	r1, r0, r2, asr #14
    1e6c:	01110100 	tsteq	r1, r0, lsl #2
    1e70:	0b130e25 	bleq	4c570c <__bss_end__+0x4ba474>
    1e74:	0e1b0e03 	cdpeq	14, 1, cr0, cr11, cr3, {0}
    1e78:	06120111 			; <UNDEFINED> instruction: 0x06120111
    1e7c:	00001710 	andeq	r1, r0, r0, lsl r7
    1e80:	0b002402 	bleq	ae90 <init_p.4035>
    1e84:	030b3e0b 	movweq	r3, #48651	; 0xbe0b
    1e88:	03000008 	movweq	r0, #8
    1e8c:	0b0b0024 	bleq	2c1f24 <__bss_end__+0x2b6c8c>
    1e90:	0e030b3e 	vmoveq.16	d3[0], r0
    1e94:	15040000 	strne	r0, [r4, #-0]
    1e98:	49192701 	ldmdbmi	r9, {r0, r8, r9, sl, sp}
    1e9c:	00130113 	andseq	r0, r3, r3, lsl r1
    1ea0:	00050500 	andeq	r0, r5, r0, lsl #10
    1ea4:	00001349 	andeq	r1, r0, r9, asr #6
    1ea8:	03003406 	movweq	r3, #1030	; 0x406
    1eac:	3b0b3a0e 	blcc	2d06ec <__bss_end__+0x2c5454>
    1eb0:	490b390b 	stmdbmi	fp, {r0, r1, r3, r8, fp, ip, sp}
    1eb4:	3c193f13 	ldccc	15, cr3, [r9], {19}
    1eb8:	07000019 	smladeq	r0, r9, r0, r0
    1ebc:	0b0b000f 	bleq	2c1f00 <__bss_end__+0x2b6c68>
    1ec0:	00001349 	andeq	r1, r0, r9, asr #6
    1ec4:	49002608 	stmdbmi	r0, {r3, r9, sl, sp}
    1ec8:	09000013 	stmdbeq	r0, {r0, r1, r4}
    1ecc:	193f002e 	ldmdbne	pc!, {r1, r2, r3, r5}	; <UNPREDICTABLE>
    1ed0:	0b3a0e03 	bleq	e856e4 <__bss_end__+0xe7a44c>
    1ed4:	0b390b3b 	bleq	e44bc8 <__bss_end__+0xe39930>
    1ed8:	01111927 	tsteq	r1, r7, lsr #18
    1edc:	18400612 	stmdane	r0, {r1, r4, r9, sl}^
    1ee0:	00194297 	mulseq	r9, r7, r2
	...

Disassembly of section .debug_loc:

00000000 <.debug_loc>:
       0:	00000000 	andeq	r0, r0, r0
       4:	00000050 	andeq	r0, r0, r0, asr r0
       8:	0000005b 	andeq	r0, r0, fp, asr r0
       c:	5b500001 	blpl	1400018 <__bss_end__+0x13f4d80>
      10:	ac000000 	stcge	0, cr0, [r0], {-0}
      14:	01000000 	mrseq	r0, (UNDEF: 0)
      18:	00005400 	andeq	r5, r0, r0, lsl #8
      1c:	00000000 	andeq	r0, r0, r0
      20:	00010000 	andeq	r0, r1, r0
      24:	00000024 	andeq	r0, r0, r4, lsr #32
      28:	0000003c 	andeq	r0, r0, ip, lsr r0
      2c:	9f370002 	svcls	0x00370002
	...
      38:	00240001 	eoreq	r0, r4, r1
      3c:	003c0000 	eorseq	r0, ip, r0
      40:	00060000 	andeq	r0, r6, r0
      44:	0002a0f2 	strdeq	sl, [r2], -r2
	...
      50:	00010000 	andeq	r0, r1, r0
      54:	00000024 	andeq	r0, r0, r4, lsr #32
      58:	0000003c 	andeq	r0, r0, ip, lsr r0
      5c:	9c030006 	stcls	0, cr0, [r3], {6}
      60:	9f0000a5 	svcls	0x000000a5
	...
      6c:	00640001 	rsbeq	r0, r4, r1
      70:	00740000 	rsbseq	r0, r4, r0
      74:	00020000 	andeq	r0, r2, r0
      78:	00009f3a 	andeq	r9, r0, sl, lsr pc
      7c:	00000000 	andeq	r0, r0, r0
      80:	00010000 	andeq	r0, r1, r0
      84:	00000064 	andeq	r0, r0, r4, rrx
      88:	00000074 	andeq	r0, r0, r4, ror r0
      8c:	a0f20006 	rscsge	r0, r2, r6
      90:	00000002 	andeq	r0, r0, r2
	...
      9c:	00640001 	rsbeq	r0, r4, r1
      a0:	00740000 	rsbseq	r0, r4, r0
      a4:	00060000 	andeq	r0, r6, r0
      a8:	00a59c03 	adceq	r9, r5, r3, lsl #24
      ac:	00009f00 	andeq	r9, r0, r0, lsl #30
	...
      bc:	0000032c 	andeq	r0, r0, ip, lsr #6
      c0:	00000344 	andeq	r0, r0, r4, asr #6
      c4:	44500001 	ldrbmi	r0, [r0], #-1
      c8:	ec000003 	stc	0, cr0, [r0], {3}
      cc:	01000003 	tsteq	r0, r3
      d0:	03ec5500 	mvneq	r5, #0, 10
      d4:	03f80000 	mvnseq	r0, #0, 0
      d8:	00040000 	andeq	r0, r4, r0
      dc:	9f5001f3 	svcls	0x005001f3
	...
      ec:	03540000 	cmpeq	r4, #0, 0
      f0:	035f0000 	cmpeq	pc, #0, 0
      f4:	00010000 	andeq	r0, r1, r0
      f8:	00035f50 	andeq	r5, r3, r0, asr pc
      fc:	0003ec00 	andeq	lr, r3, r0, lsl #24
     100:	54000100 	strpl	r0, [r0], #-256	; 0xffffff00
     104:	000003ec 	andeq	r0, r0, ip, ror #7
     108:	000003f8 	strdeq	r0, [r0], -r8
     10c:	70030005 	andvc	r0, r3, r5
     110:	000000ae 	andeq	r0, r0, lr, lsr #1
     114:	00000000 	andeq	r0, r0, r0
     118:	02000000 	andeq	r0, r0, #0, 0
     11c:	60000000 	andvs	r0, r0, r0
     120:	64000003 	strvs	r0, [r0], #-3
     124:	02000003 	andeq	r0, r0, #3, 0
     128:	649f3000 	ldrvs	r3, [pc], #0	; 130 <__code_start__-0x7ed0>
     12c:	94000003 	strls	r0, [r0], #-3
     130:	01000003 	tsteq	r0, r3
     134:	00005300 	andeq	r5, r0, r0, lsl #6
	...
     140:	01840000 	orreq	r0, r4, r0
     144:	019c0000 	orrseq	r0, ip, r0
     148:	00010000 	andeq	r0, r1, r0
     14c:	00019c50 	andeq	r9, r1, r0, asr ip
     150:	00032000 	andeq	r2, r3, r0
     154:	54000100 	strpl	r0, [r0], #-256	; 0xffffff00
	...
     160:	00020201 	andeq	r0, r2, r1, lsl #4
     164:	000001a0 	andeq	r0, r0, r0, lsr #3
     168:	000001a0 	andeq	r0, r0, r0, lsr #3
     16c:	a0540001 	subsge	r0, r4, r1
     170:	20000001 	andcs	r0, r0, r1
     174:	04000003 	streq	r0, [r0], #-3
     178:	7ecc7400 	cdpvc	4, 12, cr7, cr12, cr0, {0}
     17c:	0000009f 	muleq	r0, pc, r0	; <UNPREDICTABLE>
	...
     18c:	0001e800 	andeq	lr, r1, r0, lsl #16
     190:	00021c00 	andeq	r1, r2, r0, lsl #24
     194:	53000100 	movwpl	r0, #256	; 0x100
     198:	00000244 	andeq	r0, r0, r4, asr #4
     19c:	00000247 	andeq	r0, r0, r7, asr #4
     1a0:	68530001 	ldmdavs	r3, {r0}^
     1a4:	6b000002 	blvs	1b4 <__code_start__-0x7e4c>
     1a8:	01000002 	tsteq	r0, r2
     1ac:	028c5300 	addeq	r5, ip, #0, 6
     1b0:	02900000 	addseq	r0, r0, #0, 0
     1b4:	00010000 	andeq	r0, r1, r0
     1b8:	00000053 	andeq	r0, r0, r3, asr r0
     1bc:	00000000 	andeq	r0, r0, r0
     1c0:	90000000 	andls	r0, r0, r0
     1c4:	ac000002 	stcge	0, cr0, [r0], {2}
     1c8:	01000002 	tsteq	r0, r2
     1cc:	00005300 	andeq	r5, r0, r0, lsl #6
	...
     1d8:	01180000 	tsteq	r8, r0
     1dc:	012b0000 			; <UNDEFINED> instruction: 0x012b0000
     1e0:	00010000 	andeq	r0, r1, r0
     1e4:	00012b50 	andeq	r2, r1, r0, asr fp
     1e8:	00017800 	andeq	r7, r1, r0, lsl #16
     1ec:	55000100 	strpl	r0, [r0, #-256]	; 0xffffff00
	...
     200:	00000130 	andeq	r0, r0, r0, lsr r1
     204:	00000143 	andeq	r0, r0, r3, asr #2
     208:	43500001 	cmpmi	r0, #1, 0
     20c:	58000001 	stmdapl	r0, {r0}
     210:	01000001 	tsteq	r0, r1
     214:	01585400 	cmpeq	r8, r0, lsl #8
     218:	015c0000 	cmpeq	ip, r0
     21c:	00010000 	andeq	r0, r1, r0
     220:	00015c50 	andeq	r5, r1, r0, asr ip
     224:	00017800 	andeq	r7, r1, r0, lsl #16
     228:	54000100 	strpl	r0, [r0], #-256	; 0xffffff00
	...
     238:	000000c8 	andeq	r0, r0, r8, asr #1
     23c:	000000df 	ldrdeq	r0, [r0], -pc	; <UNPREDICTABLE>
     240:	df500001 	svcle	0x00500001
     244:	00000000 	andeq	r0, r0, r0
     248:	01000001 	tsteq	r0, r1
     24c:	00005600 	andeq	r5, r0, r0, lsl #12
	...
     258:	00c80000 	sbceq	r0, r8, r0
     25c:	00df0000 	sbcseq	r0, pc, r0
     260:	00010000 	andeq	r0, r1, r0
     264:	0000df51 	andeq	sp, r0, r1, asr pc
     268:	00010000 	andeq	r0, r1, r0
     26c:	54000100 	strpl	r0, [r0], #-256	; 0xffffff00
	...
     27c:	000000e4 	andeq	r0, r0, r4, ror #1
     280:	000000e8 	andeq	r0, r0, r8, ror #1
     284:	e8500001 	ldmda	r0, {r0}^
     288:	00000000 	andeq	r0, r0, r0
     28c:	01000001 	tsteq	r0, r1
     290:	00005500 	andeq	r5, r0, r0, lsl #10
	...
     29c:	000000ec 	andeq	r0, r0, ip, ror #1
     2a0:	000000f8 	strdeq	r0, [r0], -r8
     2a4:	00500001 	subseq	r0, r0, r1
	...
     2b0:	94000000 	strls	r0, [r0], #-0
     2b4:	a7000000 	strge	r0, [r0, -r0]
     2b8:	01000000 	mrseq	r0, (UNDEF: 0)
     2bc:	00a75000 	adceq	r5, r7, r0
     2c0:	00b40000 	adcseq	r0, r4, r0
     2c4:	00010000 	andeq	r0, r1, r0
     2c8:	00000054 	andeq	r0, r0, r4, asr r0
     2cc:	00000000 	andeq	r0, r0, r0
     2d0:	a8000000 	stmdage	r0, {}	; <UNPREDICTABLE>
     2d4:	ac000000 	stcge	0, cr0, [r0], {-0}
     2d8:	01000000 	mrseq	r0, (UNDEF: 0)
     2dc:	00005400 	andeq	r5, r0, r0, lsl #8
	...
     2e8:	00700000 	rsbseq	r0, r0, r0
     2ec:	00800000 	addeq	r0, r0, r0
     2f0:	00010000 	andeq	r0, r1, r0
     2f4:	00008050 	andeq	r8, r0, r0, asr r0
     2f8:	00008400 	andeq	r8, r0, r0, lsl #8
     2fc:	70000400 	andvc	r0, r0, r0, lsl #8
     300:	009f7ecc 	addseq	r7, pc, ip, asr #29
	...
     30c:	40000000 	andmi	r0, r0, r0
     310:	58000000 	stmdapl	r0, {}	; <UNPREDICTABLE>
     314:	01000000 	mrseq	r0, (UNDEF: 0)
     318:	00585000 	subseq	r5, r8, r0
     31c:	005c0000 	subseq	r0, ip, r0
     320:	00040000 	andeq	r0, r4, r0
     324:	9f5001f3 	svcls	0x005001f3
	...
     338:	0000001c 	andeq	r0, r0, ip, lsl r0
     33c:	0000008c 	andeq	r0, r0, ip, lsl #1
     340:	8c510001 	mrrchi	0, 0, r0, r1, cr1
     344:	98000000 	stmdals	r0, {}	; <UNPREDICTABLE>
     348:	03000000 	movweq	r0, #0
     34c:	9f787000 	svcls	0x00787000
     350:	00000098 	muleq	r0, r8, r0
     354:	000000b8 	strheq	r0, [r0], -r8
     358:	b8510001 	ldmdalt	r1, {r0}^
     35c:	d0000000 	andle	r0, r0, r0
     360:	03000000 	movweq	r0, #0
     364:	9f787000 	svcls	0x00787000
	...
     374:	00000024 	andeq	r0, r0, r4, lsr #32
     378:	0000005c 	andeq	r0, r0, ip, asr r0
     37c:	60530001 	subsvs	r0, r3, r1
     380:	d0000000 	andle	r0, r0, r0
     384:	01000000 	mrseq	r0, (UNDEF: 0)
     388:	00005300 	andeq	r5, r0, r0, lsl #6
	...
     398:	014c0000 	mrseq	r0, (UNDEF: 76)
     39c:	01780000 	cmneq	r8, r0
     3a0:	00010000 	andeq	r0, r1, r0
     3a4:	00017850 	andeq	r7, r1, r0, asr r8
     3a8:	00017c00 	andeq	r7, r1, r0, lsl #24
     3ac:	f3000400 	vshl.u8	d0, d0, d0
     3b0:	7c9f5001 	ldcvc	0, cr5, [pc], {1}
     3b4:	94000001 	strls	r0, [r0], #-1
     3b8:	01000001 	tsteq	r0, r1
     3bc:	01945000 	orrseq	r5, r4, r0
     3c0:	02000000 	andeq	r0, r0, #0, 0
     3c4:	00040000 	andeq	r0, r4, r0
     3c8:	9f5001f3 	svcls	0x005001f3
	...
     3d8:	01000000 	mrseq	r0, (UNDEF: 0)
     3dc:	00000001 	andeq	r0, r0, r1
     3e0:	01780000 	cmneq	r8, r0
     3e4:	017c0000 	cmneq	ip, r0
     3e8:	00010000 	andeq	r0, r1, r0
     3ec:	00019450 	andeq	r9, r1, r0, asr r4
     3f0:	0001b400 	andeq	fp, r1, r0, lsl #8
     3f4:	50000100 	andpl	r0, r0, r0, lsl #2
     3f8:	000001b4 			; <UNDEFINED> instruction: 0x000001b4
     3fc:	000001b8 			; <UNDEFINED> instruction: 0x000001b8
     400:	78700003 	ldmdavc	r0!, {r0, r1}^
     404:	0001b89f 	muleq	r1, pc, r8	; <UNPREDICTABLE>
     408:	0001c400 	andeq	ip, r1, r0, lsl #8
     40c:	50000100 	andpl	r0, r0, r0, lsl #2
     410:	000001c4 	andeq	r0, r0, r4, asr #3
     414:	000001cc 	andeq	r0, r0, ip, asr #3
     418:	00700002 	rsbseq	r0, r0, r2
     41c:	000001cc 	andeq	r0, r0, ip, asr #3
     420:	000001ec 	andeq	r0, r0, ip, ror #3
     424:	f0500001 			; <UNDEFINED> instruction: 0xf0500001
     428:	00000001 	andeq	r0, r0, r1
     42c:	01000002 	tsteq	r0, r2
     430:	00005000 	andeq	r5, r0, r0
     434:	00000000 	andeq	r0, r0, r0
     438:	01000000 	mrseq	r0, (UNDEF: 0)
     43c:	00000001 	andeq	r0, r0, r1
     440:	00000001 	andeq	r0, r0, r1
     444:	0000016c 	andeq	r0, r0, ip, ror #2
     448:	0000017c 	andeq	r0, r0, ip, ror r1
     44c:	7c520001 	mrrcvc	0, 0, r0, r2, cr1
     450:	94000001 	strls	r0, [r0], #-1
     454:	06000001 	streq	r0, [r0], -r1
     458:	ae800300 	cdpge	3, 8, cr0, cr0, cr0, {0}
     45c:	949f0000 	ldrls	r0, [pc], #0	; 464 <__code_start__-0x7b9c>
     460:	c4000001 	strgt	r0, [r0], #-1
     464:	01000001 	tsteq	r0, r1
     468:	01c45200 	biceq	r5, r4, r0, lsl #4
     46c:	01cc0000 	biceq	r0, ip, r0
     470:	00010000 	andeq	r0, r1, r0
     474:	0001cc50 	andeq	ip, r1, r0, asr ip
     478:	0001ef00 	andeq	lr, r1, r0, lsl #30
     47c:	52000100 	andpl	r0, r0, #0
	...
     488:	01640000 	cmneq	r4, r0
     48c:	02000000 	andeq	r0, r0, #0, 0
     490:	00010000 	andeq	r0, r1, r0
     494:	00000054 	andeq	r0, r0, r4, asr r0
	...
     4a0:	0000e000 	andeq	lr, r0, r0
     4a4:	0000f800 	andeq	pc, r0, r0, lsl #16
     4a8:	50000100 	andpl	r0, r0, r0, lsl #2
     4ac:	000000f8 	strdeq	r0, [r0], -r8
     4b0:	0000013c 	andeq	r0, r0, ip, lsr r1
     4b4:	00540001 	subseq	r0, r4, r1
	...
     4c4:	00010c00 	andeq	r0, r1, r0, lsl #24
     4c8:	00011c00 	andeq	r1, r1, r0, lsl #24
     4cc:	50000100 	andpl	r0, r0, r0, lsl #2
     4d0:	0000011c 	andeq	r0, r0, ip, lsl r1
     4d4:	0000011f 	andeq	r0, r0, pc, lsl r1
     4d8:	78700003 	ldmdavc	r0!, {r0, r1}^
     4dc:	00012c9f 	muleq	r1, pc, ip	; <UNPREDICTABLE>
     4e0:	00013000 	andeq	r3, r1, r0
     4e4:	50000100 	andpl	r0, r0, r0, lsl #2
	...
     4f0:	00000001 	andeq	r0, r0, r1
     4f4:	00000114 	andeq	r0, r0, r4, lsl r1
     4f8:	0000011c 	andeq	r0, r0, ip, lsl r1
     4fc:	1c500001 	mrrcne	0, 0, r0, r0, cr1	; <UNPREDICTABLE>
     500:	1f000001 	svcne	0x00000001
     504:	03000001 	movweq	r0, #1
     508:	9f787000 	svcls	0x00787000
	...
     514:	07d40000 	ldrbeq	r0, [r4, r0]
     518:	07d80000 	ldrbeq	r0, [r8, r0]
     51c:	00010000 	andeq	r0, r1, r0
     520:	00000050 	andeq	r0, r0, r0, asr r0
     524:	00000000 	andeq	r0, r0, r0
     528:	00000100 	andeq	r0, r0, r0, lsl #2
     52c:	0003f400 	andeq	pc, r3, r0, lsl #8
     530:	00042000 	andeq	r2, r4, r0
     534:	30000200 	andcc	r0, r0, r0, lsl #4
     538:	0004209f 	muleq	r4, pc, r0	; <UNPREDICTABLE>
     53c:	0004ac00 	andeq	sl, r4, r0, lsl #24
     540:	55000100 	strpl	r0, [r0, #-256]	; 0xffffff00
	...
     54c:	00000001 	andeq	r0, r0, r1
     550:	000003f4 	strdeq	r0, [r0], -r4
     554:	00000420 	andeq	r0, r0, r0, lsr #8
     558:	9f300002 	svcls	0x00300002
     55c:	00000420 	andeq	r0, r0, r0, lsr #8
     560:	000004ac 	andeq	r0, r0, ip, lsr #9
     564:	00580001 	subseq	r0, r8, r1
     568:	00000000 	andeq	r0, r0, r0
     56c:	01000000 	mrseq	r0, (UNDEF: 0)
     570:	00000000 	andeq	r0, r0, r0
     574:	0003f400 	andeq	pc, r3, r0, lsl #8
     578:	00042000 	andeq	r2, r4, r0
     57c:	30000200 	andcc	r0, r0, r0, lsl #4
     580:	0004209f 	muleq	r4, pc, r0	; <UNPREDICTABLE>
     584:	0004ac00 	andeq	sl, r4, r0, lsl #24
     588:	57000100 	strpl	r0, [r0, -r0, lsl #2]
     58c:	000004ac 	andeq	r0, r0, ip, lsr #9
     590:	000004c8 	andeq	r0, r0, r8, asr #9
     594:	00500001 	subseq	r0, r0, r1
	...
     5a4:	10000000 	andne	r0, r0, r0
     5a8:	54000004 	strpl	r0, [r0], #-4
     5ac:	01000004 	tsteq	r0, r4
     5b0:	04545000 	ldrbeq	r5, [r4], #-0
     5b4:	04700000 	ldrbteq	r0, [r0], #-0
     5b8:	00010000 	andeq	r0, r1, r0
     5bc:	00047054 	andeq	r7, r4, r4, asr r0
     5c0:	00049c00 	andeq	r9, r4, r0, lsl #24
     5c4:	50000100 	andpl	r0, r0, r0, lsl #2
     5c8:	0000049c 	muleq	r0, ip, r4
     5cc:	000004ac 	andeq	r0, r0, ip, lsr #9
     5d0:	00540001 	subseq	r0, r4, r1
	...
     5dc:	00043000 	andeq	r3, r4, r0
     5e0:	00044800 	andeq	r4, r4, r0, lsl #16
     5e4:	0a000400 	beq	15ec <__code_start__-0x6a14>
     5e8:	009f011e 	addseq	r0, pc, lr, lsl r1	; <UNPREDICTABLE>
	...
     5f4:	00043000 	andeq	r3, r4, r0
     5f8:	00044800 	andeq	r4, r4, r0, lsl #16
     5fc:	f2000600 	vmax.s8	d0, d0, d0
     600:	00001bf0 	strdeq	r1, [r0], -r0
	...
     60c:	30000000 	andcc	r0, r0, r0
     610:	48000004 	stmdami	r0, {r2}
     614:	06000004 	streq	r0, [r0], -r4
     618:	a72c0300 	strge	r0, [ip, -r0, lsl #6]!
     61c:	009f0000 	addseq	r0, pc, r0
	...
     62c:	00077000 	andeq	r7, r7, r0
     630:	00078000 	andeq	r8, r7, r0
     634:	50000100 	andpl	r0, r0, r0, lsl #2
     638:	00000780 	andeq	r0, r0, r0, lsl #15
     63c:	00000783 	andeq	r0, r0, r3, lsl #15
     640:	83510001 	cmphi	r1, #1, 0
     644:	b4000007 	strlt	r0, [r0], #-7
     648:	01000007 	tsteq	r0, r7
     64c:	00005400 	andeq	r5, r0, r0, lsl #8
	...
     658:	06cc0000 	strbeq	r0, [ip], r0
     65c:	06db0000 	ldrbeq	r0, [fp], r0
     660:	00010000 	andeq	r0, r1, r0
     664:	0006db50 	andeq	sp, r6, r0, asr fp
     668:	0006e000 	andeq	lr, r6, r0
     66c:	f3000400 	vshl.u8	d0, d0, d0
     670:	009f5001 	addseq	r5, pc, r1
	...
     67c:	d8000000 	stmdale	r0, {}	; <UNPREDICTABLE>
     680:	ec000002 	stc	0, cr0, [r0], {2}
     684:	01000002 	tsteq	r0, r2
     688:	02ec5000 	rsceq	r5, ip, #0, 0
     68c:	03d40000 	bicseq	r0, r4, #0, 0
     690:	00010000 	andeq	r0, r1, r0
     694:	00000057 	andeq	r0, r0, r7, asr r0
     698:	00000000 	andeq	r0, r0, r0
     69c:	00000100 	andeq	r0, r0, r0, lsl #2
     6a0:	0002e800 	andeq	lr, r2, r0, lsl #16
     6a4:	00031400 	andeq	r1, r3, r0, lsl #8
     6a8:	30000200 	andcc	r0, r0, r0, lsl #4
     6ac:	0003149f 	muleq	r3, pc, r4	; <UNPREDICTABLE>
     6b0:	0003d400 	andeq	sp, r3, r0, lsl #8
     6b4:	55000100 	strpl	r0, [r0, #-256]	; 0xffffff00
	...
     6c0:	00000001 	andeq	r0, r0, r1
     6c4:	02e80000 	rsceq	r0, r8, #0, 0
     6c8:	03140000 	tsteq	r4, #0, 0
     6cc:	00020000 	andeq	r0, r2, r0
     6d0:	03149f30 	tsteq	r4, #48, 30	; 0xc0
     6d4:	03980000 	orrseq	r0, r8, #0, 0
     6d8:	00010000 	andeq	r0, r1, r0
     6dc:	0003a056 	andeq	sl, r3, r6, asr r0
     6e0:	0003d400 	andeq	sp, r3, r0, lsl #8
     6e4:	56000100 	strpl	r0, [r0], -r0, lsl #2
	...
     6f0:	00000001 	andeq	r0, r0, r1
     6f4:	000002e8 	andeq	r0, r0, r8, ror #5
     6f8:	00000314 	andeq	r0, r0, r4, lsl r3
     6fc:	9f300002 	svcls	0x00300002
     700:	00000314 	andeq	r0, r0, r4, lsl r3
     704:	000003d4 	ldrdeq	r0, [r0], -r4
     708:	00580001 	subseq	r0, r8, r1
	...
     720:	00030400 	andeq	r0, r3, r0, lsl #8
     724:	00032400 	andeq	r2, r3, r0, lsl #8
     728:	50000100 	andpl	r0, r0, r0, lsl #2
     72c:	00000324 	andeq	r0, r0, r4, lsr #6
     730:	00000334 	andeq	r0, r0, r4, lsr r3
     734:	34540001 	ldrbcc	r0, [r4], #-1
     738:	64000003 	strvs	r0, [r0], #-3
     73c:	01000003 	tsteq	r0, r3
     740:	03645000 	cmneq	r4, #0, 0
     744:	03670000 	cmneq	r7, #0, 0
     748:	00010000 	andeq	r0, r1, r0
     74c:	00036752 	andeq	r6, r3, r2, asr r7
     750:	00036c00 	andeq	r6, r3, r0, lsl #24
     754:	54000100 	strpl	r0, [r0], #-256	; 0xffffff00
     758:	0000036c 	andeq	r0, r0, ip, ror #6
     75c:	00000374 	andeq	r0, r0, r4, ror r3
     760:	74500001 	ldrbvc	r0, [r0], #-1
     764:	d4000003 	strle	r0, [r0], #-3
     768:	01000003 	tsteq	r0, r3
     76c:	00005400 	andeq	r5, r0, r0, lsl #8
     770:	00000000 	andeq	r0, r0, r0
     774:	00010000 	andeq	r0, r1, r0
     778:	05f00000 	ldrbeq	r0, [r0, #0]!
     77c:	06000000 	streq	r0, [r0], -r0
     780:	00020000 	andeq	r0, r2, r0
     784:	06009f30 			; <UNDEFINED> instruction: 0x06009f30
     788:	06b80000 	ldrteq	r0, [r8], r0
     78c:	00010000 	andeq	r0, r1, r0
     790:	00000056 	andeq	r0, r0, r6, asr r0
	...
     7a4:	0005f800 	andeq	pc, r5, r0, lsl #16
     7a8:	00060000 	andeq	r0, r6, r0
     7ac:	50000100 	andpl	r0, r0, r0, lsl #2
     7b0:	00000600 	andeq	r0, r0, r0, lsl #12
     7b4:	0000062c 	andeq	r0, r0, ip, lsr #12
     7b8:	2c540001 	mrrccs	0, 0, r0, r4, cr1
     7bc:	3c000006 	stccc	0, cr0, [r0], {6}
     7c0:	01000006 	tsteq	r0, r6
     7c4:	063c5000 	ldrteq	r5, [ip], -r0
     7c8:	06a40000 	strteq	r0, [r4], r0
     7cc:	00010000 	andeq	r0, r1, r0
     7d0:	0006a454 	andeq	sl, r6, r4, asr r4
     7d4:	0006a800 	andeq	sl, r6, r0, lsl #16
     7d8:	50000100 	andpl	r0, r0, r0, lsl #2
     7dc:	000006a8 	andeq	r0, r0, r8, lsr #13
     7e0:	000006b8 			; <UNDEFINED> instruction: 0x000006b8
     7e4:	00540001 	subseq	r0, r4, r1
	...
     7f0:	00000100 	andeq	r0, r0, r0, lsl #2
     7f4:	00000000 	andeq	r0, r0, r0
     7f8:	2c000006 	stccs	0, cr0, [r0], {6}
     7fc:	01000006 	tsteq	r0, r6
     800:	06345500 	ldrteq	r5, [r4], -r0, lsl #10
     804:	06440000 	strbeq	r0, [r4], -r0
     808:	00020000 	andeq	r0, r2, r0
     80c:	06449f30 			; <UNDEFINED> instruction: 0x06449f30
     810:	064c0000 	strbeq	r0, [ip], -r0
     814:	00010000 	andeq	r0, r1, r0
     818:	00064c50 	andeq	r4, r6, r0, asr ip
     81c:	0006a400 	andeq	sl, r6, r0, lsl #8
     820:	55000100 	strpl	r0, [r0, #-256]	; 0xffffff00
	...
     830:	00000600 	andeq	r0, r0, r0, lsl #12
     834:	00000610 	andeq	r0, r0, r0, lsl r6
     838:	94500001 	ldrbls	r0, [r0], #-1
     83c:	a4000006 	strge	r0, [r0], #-6
     840:	01000006 	tsteq	r0, r6
     844:	00005000 	andeq	r5, r0, r0
	...
     850:	05940000 	ldreq	r0, [r4]
     854:	05ac0000 	streq	r0, [ip, #0]!
     858:	00010000 	andeq	r0, r1, r0
     85c:	0005ac50 	andeq	sl, r5, r0, asr ip
     860:	0005d000 	andeq	sp, r5, r0
     864:	5c000100 	stfpls	f0, [r0], {-0}
	...
     870:	00000001 	andeq	r0, r0, r1
     874:	000005a4 	andeq	r0, r0, r4, lsr #11
     878:	000005b0 			; <UNDEFINED> instruction: 0x000005b0
     87c:	9f300002 	svcls	0x00300002
     880:	000005b0 			; <UNDEFINED> instruction: 0x000005b0
     884:	000005d0 	ldrdeq	r0, [r0], -r0	; <UNPREDICTABLE>
     888:	00500001 	subseq	r0, r0, r1
     88c:	00000000 	andeq	r0, r0, r0
     890:	03000000 	movweq	r0, #0
     894:	a4000000 	strge	r0, [r0], #-0
     898:	b0000005 	andlt	r0, r0, r5
     89c:	02000005 	andeq	r0, r0, #5, 0
     8a0:	b09f3000 	addslt	r3, pc, r0
     8a4:	d0000005 	andle	r0, r0, r5
     8a8:	01000005 	tsteq	r0, r5
     8ac:	00005300 	andeq	r5, r0, r0, lsl #6
	...
     8b8:	02300000 	eorseq	r0, r0, #0, 0
     8bc:	024b0000 	subeq	r0, fp, #0, 0
     8c0:	00010000 	andeq	r0, r1, r0
     8c4:	00024c50 	andeq	r4, r2, r0, asr ip
     8c8:	00025400 	andeq	r5, r2, r0, lsl #8
     8cc:	50000100 	andpl	r0, r0, r0, lsl #2
	...
     8e4:	009c0000 	addseq	r0, ip, r0
     8e8:	00e40000 	rsceq	r0, r4, r0
     8ec:	00010000 	andeq	r0, r1, r0
     8f0:	0000e450 	andeq	lr, r0, r0, asr r4
     8f4:	0000ec00 	andeq	lr, r0, r0, lsl #24
     8f8:	54000100 	strpl	r0, [r0], #-256	; 0xffffff00
     8fc:	000000ec 	andeq	r0, r0, ip, ror #1
     900:	00000104 	andeq	r0, r0, r4, lsl #2
     904:	04500001 	ldrbeq	r0, [r0], #-1
     908:	0c000001 	stceq	0, cr0, [r0], {1}
     90c:	04000001 	streq	r0, [r0], #-1
     910:	5001f300 	andpl	pc, r1, r0, lsl #6
     914:	00010c9f 	muleq	r1, pc, ip	; <UNPREDICTABLE>
     918:	00012400 	andeq	r2, r1, r0, lsl #8
     91c:	50000100 	andpl	r0, r0, r0, lsl #2
     920:	00000124 	andeq	r0, r0, r4, lsr #2
     924:	0000012c 	andeq	r0, r0, ip, lsr #2
     928:	2c540001 	mrrccs	0, 0, r0, r4, cr1
     92c:	0c000001 	stceq	0, cr0, [r0], {1}
     930:	04000002 	streq	r0, [r0], #-2
     934:	5001f300 	andpl	pc, r1, r0, lsl #6
     938:	0000009f 	muleq	r0, pc, r0	; <UNPREDICTABLE>
	...
     94c:	9c000000 	stcls	0, cr0, [r0], {-0}
     950:	e0000000 	and	r0, r0, r0
     954:	01000000 	mrseq	r0, (UNDEF: 0)
     958:	00e05100 	rsceq	r5, r0, r0, lsl #2
     95c:	00ec0000 	rsceq	r0, ip, r0
     960:	00010000 	andeq	r0, r1, r0
     964:	0000ec56 	andeq	lr, r0, r6, asr ip
     968:	00010000 	andeq	r0, r1, r0
     96c:	51000100 	mrspl	r0, (UNDEF: 16)
     970:	00000100 	andeq	r0, r0, r0, lsl #2
     974:	0000010c 	andeq	r0, r0, ip, lsl #2
     978:	01f30004 	mvnseq	r0, r4
     97c:	010c9f51 	tsteq	ip, r1, asr pc
     980:	01200000 			; <UNDEFINED> instruction: 0x01200000
     984:	00010000 	andeq	r0, r1, r0
     988:	00012051 	andeq	r2, r1, r1, asr r0
     98c:	0001e800 	andeq	lr, r1, r0, lsl #16
     990:	56000100 	strpl	r0, [r0], -r0, lsl #2
     994:	000001e8 	andeq	r0, r0, r8, ror #3
     998:	0000020c 	andeq	r0, r0, ip, lsl #4
     99c:	01f30004 	mvnseq	r0, r4
     9a0:	00009f51 	andeq	r9, r0, r1, asr pc
	...
     9ac:	0000012c 	andeq	r0, r0, ip, lsr #2
     9b0:	000001e8 	andeq	r0, r0, r8, ror #3
     9b4:	00540001 	subseq	r0, r4, r1
	...
     9c4:	00012c00 	andeq	r2, r1, r0, lsl #24
     9c8:	00014c00 	andeq	r4, r1, r0, lsl #24
     9cc:	55000100 	strpl	r0, [r0, #-256]	; 0xffffff00
     9d0:	0000015c 	andeq	r0, r0, ip, asr r1
     9d4:	00000173 	andeq	r0, r0, r3, ror r1
     9d8:	73500001 	cmpvc	r0, #1, 0
     9dc:	e0000001 	and	r0, r0, r1
     9e0:	01000001 	tsteq	r0, r1
     9e4:	00005500 	andeq	r5, r0, r0, lsl #10
	...
     9f0:	012c0000 			; <UNDEFINED> instruction: 0x012c0000
     9f4:	01480000 	mrseq	r0, (UNDEF: 72)
     9f8:	00010000 	andeq	r0, r1, r0
     9fc:	00016857 	andeq	r6, r1, r7, asr r8
     a00:	0001e000 	andeq	lr, r1, r0
     a04:	57000100 	strpl	r0, [r0, -r0, lsl #2]
	...
     a14:	0000012c 	andeq	r0, r0, ip, lsr #2
     a18:	00000148 	andeq	r0, r0, r8, asr #2
     a1c:	6c580001 	mrrcvs	0, 0, r0, r8, cr1
     a20:	e0000001 	and	r0, r0, r1
     a24:	01000001 	tsteq	r0, r1
     a28:	00005800 	andeq	r5, r0, r0, lsl #16
	...
     a34:	00600000 	rsbeq	r0, r0, r0
     a38:	00730000 	rsbseq	r0, r3, r0
     a3c:	00010000 	andeq	r0, r1, r0
     a40:	00007350 	andeq	r7, r0, r0, asr r3
     a44:	00009000 	andeq	r9, r0, r0
     a48:	54000100 	strpl	r0, [r0], #-256	; 0xffffff00
	...
     a54:	00000001 	andeq	r0, r0, r1
     a58:	00000070 	andeq	r0, r0, r0, ror r0
     a5c:	00000073 	andeq	r0, r0, r3, ror r0
     a60:	73500001 	cmpvc	r0, #1, 0
     a64:	90000000 	andls	r0, r0, r0
     a68:	01000000 	mrseq	r0, (UNDEF: 0)
     a6c:	00005400 	andeq	r5, r0, r0, lsl #8
	...
     a80:	000c0000 	andeq	r0, ip, r0
     a84:	003c0000 	eorseq	r0, ip, r0
     a88:	00010000 	andeq	r0, r1, r0
     a8c:	00003c50 	andeq	r3, r0, r0, asr ip
     a90:	00004000 	andeq	r4, r0, r0
     a94:	f3000400 	vshl.u8	d0, d0, d0
     a98:	409f5001 	addsmi	r5, pc, r1
     a9c:	44000000 	strmi	r0, [r0], #-0
     aa0:	01000000 	mrseq	r0, (UNDEF: 0)
     aa4:	00445000 	subeq	r5, r4, r0
     aa8:	00480000 	subeq	r0, r8, r0
     aac:	00040000 	andeq	r0, r4, r0
     ab0:	9f5001f3 	svcls	0x005001f3
     ab4:	00000048 	andeq	r0, r0, r8, asr #32
     ab8:	0000004c 	andeq	r0, r0, ip, asr #32
     abc:	4c500001 	mrrcmi	0, 0, r0, r0, cr1	; <UNPREDICTABLE>
     ac0:	54000000 	strpl	r0, [r0], #-0
     ac4:	04000000 	streq	r0, [r0], #-0
     ac8:	5001f300 	andpl	pc, r1, r0, lsl #6
     acc:	0000009f 	muleq	r0, pc, r0	; <UNPREDICTABLE>
	...
     ae0:	0004d400 	andeq	sp, r4, r0, lsl #8
     ae4:	00050400 	andeq	r0, r5, r0, lsl #8
     ae8:	50000100 	andpl	r0, r0, r0, lsl #2
     aec:	00000504 	andeq	r0, r0, r4, lsl #10
     af0:	00000530 	andeq	r0, r0, r0, lsr r5
     af4:	30540001 	subscc	r0, r4, r1
     af8:	48000005 	stmdami	r0, {r0, r2}
     afc:	01000005 	tsteq	r0, r5
     b00:	05485000 	strbeq	r5, [r8, #-0]
     b04:	05500000 	ldrbeq	r0, [r0, #-0]
     b08:	00010000 	andeq	r0, r1, r0
     b0c:	00055054 	andeq	r5, r5, r4, asr r0
     b10:	00056000 	andeq	r6, r5, r0
     b14:	50000100 	andpl	r0, r0, r0, lsl #2
     b18:	00000560 	andeq	r0, r0, r0, ror #10
     b1c:	00000580 	andeq	r0, r0, r0, lsl #11
     b20:	00540001 	subseq	r0, r4, r1
     b24:	00000000 	andeq	r0, r0, r0
     b28:	02000000 	andeq	r0, r0, #0, 0
     b2c:	0004fc00 	andeq	pc, r4, r0, lsl #24
     b30:	00053000 	andeq	r3, r5, r0
     b34:	40000400 	andmi	r0, r0, r0, lsl #8
     b38:	009f2440 	addseq	r2, pc, r0, asr #8
	...
     b44:	00000800 	andeq	r0, r0, r0, lsl #16
     b48:	00008000 	andeq	r8, r0, r0
     b4c:	54000100 	strpl	r0, [r0], #-256	; 0xffffff00
	...
     b58:	00000002 	andeq	r0, r0, r2
     b5c:	00000008 	andeq	r0, r0, r8
     b60:	00000020 	andeq	r0, r0, r0, lsr #32
     b64:	9f300002 	svcls	0x00300002
     b68:	00000020 	andeq	r0, r0, r0, lsr #32
     b6c:	0000006c 	andeq	r0, r0, ip, rrx
     b70:	00570001 	subseq	r0, r7, r1
	...
     b7c:	00003c00 	andeq	r3, r0, r0, lsl #24
     b80:	00005700 	andeq	r5, r0, r0, lsl #14
     b84:	52000100 	andpl	r0, r0, #0
	...
     b90:	003c0001 	eorseq	r0, ip, r1
     b94:	00500000 	subseq	r0, r0, r0
     b98:	00010000 	andeq	r0, r1, r0
     b9c:	00000052 	andeq	r0, r0, r2, asr r0
     ba0:	00000000 	andeq	r0, r0, r0
     ba4:	00000300 	andeq	r0, r0, r0, lsl #6
     ba8:	00003c00 	andeq	r3, r0, r0, lsl #24
     bac:	00004800 	andeq	r4, r0, r0, lsl #16
     bb0:	53000100 	movwpl	r0, #256	; 0x100
     bb4:	00000048 	andeq	r0, r0, r8, asr #32
     bb8:	00000050 	andeq	r0, r0, r0, asr r0
     bbc:	00700002 	rsbseq	r0, r0, r2
	...
     bcc:	00380000 	eorseq	r0, r8, r0
     bd0:	00480000 	subeq	r0, r8, r0
     bd4:	00090000 	andeq	r0, r9, r0
     bd8:	ff0c0073 			; <UNDEFINED> instruction: 0xff0c0073
     bdc:	1a00ffff 	bne	40be0 <__bss_end__+0x35948>
     be0:	0000489f 	muleq	r0, pc, r8	; <UNPREDICTABLE>
     be4:	00004c00 	andeq	r4, r0, r0, lsl #24
     be8:	53000100 	movwpl	r0, #256	; 0x100
     bec:	0000004c 	andeq	r0, r0, ip, asr #32
     bf0:	00000050 	andeq	r0, r0, r0, asr r0
     bf4:	0070000a 	rsbseq	r0, r0, sl
     bf8:	ffff0c06 			; <UNDEFINED> instruction: 0xffff0c06
     bfc:	9f1a00ff 	svcls	0x001a00ff
	...
     c0c:	00800000 	addeq	r0, r0, r0
     c10:	00880000 	addeq	r0, r8, r0
     c14:	00010000 	andeq	r0, r1, r0
     c18:	00008850 	andeq	r8, r0, r0, asr r8
     c1c:	00009400 	andeq	r9, r0, r0, lsl #8
     c20:	70000300 	andvc	r0, r0, r0, lsl #6
     c24:	00949f04 	addseq	r9, r4, r4, lsl #30
     c28:	00a00000 	adceq	r0, r0, r0
     c2c:	00040000 	andeq	r0, r4, r0
     c30:	9f5001f3 	svcls	0x005001f3
	...
     c40:	00840000 	addeq	r0, r4, r0
     c44:	00900000 	addseq	r0, r0, r0
     c48:	00010000 	andeq	r0, r1, r0
     c4c:	00009053 	andeq	r9, r0, r3, asr r0
     c50:	00009400 	andeq	r9, r0, r0, lsl #8
     c54:	70000200 	andvc	r0, r0, r0, lsl #4
     c58:	00009400 	andeq	r9, r0, r0, lsl #8
     c5c:	0000a000 	andeq	sl, r0, r0
     c60:	f3000500 	vrshl.u8	d0, d0, d0
     c64:	1c345001 	ldcne	0, cr5, [r4], #-4
	...
     c70:	00000001 	andeq	r0, r0, r1
     c74:	008c0000 	addeq	r0, ip, r0
     c78:	00900000 	addseq	r0, r0, r0
     c7c:	00090000 	andeq	r0, r9, r0
     c80:	ff0c0073 			; <UNDEFINED> instruction: 0xff0c0073
     c84:	1a00ffff 	bne	40c88 <__bss_end__+0x359f0>
     c88:	0000909f 	muleq	r0, pc, r0	; <UNPREDICTABLE>
     c8c:	00009400 	andeq	r9, r0, r0, lsl #8
     c90:	70000a00 	andvc	r0, r0, r0, lsl #20
     c94:	ff0c0600 			; <UNDEFINED> instruction: 0xff0c0600
     c98:	1a00ffff 	bne	40c9c <__bss_end__+0x35a04>
     c9c:	0000949f 	muleq	r0, pc, r4	; <UNPREDICTABLE>
     ca0:	0000a000 	andeq	sl, r0, r0
     ca4:	f3000d00 	vpadd.f32	d0, d0, d0
     ca8:	1c345001 	ldcne	0, cr5, [r4], #-4
     cac:	ffff0c06 			; <UNDEFINED> instruction: 0xffff0c06
     cb0:	9f1a00ff 	svcls	0x001a00ff
	...
     cc4:	0000001c 	andeq	r0, r0, ip, lsl r0
     cc8:	1c510001 	mrrcne	0, 0, r0, r1, cr1
     ccc:	78000000 	stmdavc	r0, {}	; <UNPREDICTABLE>
     cd0:	04000000 	streq	r0, [r0], #-0
     cd4:	5101f300 	mrspl	pc, SP_irq	; <UNPREDICTABLE>
     cd8:	0000009f 	muleq	r0, pc, r0	; <UNPREDICTABLE>
	...
     ce8:	00005800 	andeq	r5, r0, r0, lsl #16
     cec:	52000100 	andpl	r0, r0, #0
     cf0:	00000058 	andeq	r0, r0, r8, asr r0
     cf4:	00000078 	andeq	r0, r0, r8, ror r0
     cf8:	01f30004 	mvnseq	r0, r4
     cfc:	00009f52 	andeq	r9, r0, r2, asr pc
     d00:	00000000 	andeq	r0, r0, r0
     d04:	00020000 	andeq	r0, r2, r0
     d08:	00010100 	andeq	r0, r1, r0, lsl #2
     d0c:	00010100 	andeq	r0, r1, r0, lsl #2
     d10:	00010100 	andeq	r0, r1, r0, lsl #2
     d14:	00000000 	andeq	r0, r0, r0
     d18:	00000038 	andeq	r0, r0, r8, lsr r0
     d1c:	54500001 	ldrbpl	r0, [r0], #-1
     d20:	54000000 	strpl	r0, [r0], #-0
     d24:	01000000 	mrseq	r0, (UNDEF: 0)
     d28:	00545300 	subseq	r5, r4, r0, lsl #6
     d2c:	005c0000 	subseq	r0, ip, r0
     d30:	00030000 	andeq	r0, r3, r0
     d34:	5c9f0173 	ldfpls	f0, [pc], {115}	; 0x73
     d38:	64000000 	strvs	r0, [r0], #-0
     d3c:	01000000 	mrseq	r0, (UNDEF: 0)
     d40:	00645200 	rsbeq	r5, r4, r0, lsl #4
     d44:	00680000 	rsbeq	r0, r8, r0
     d48:	00030000 	andeq	r0, r3, r0
     d4c:	689f0273 	ldmvs	pc, {r0, r1, r4, r5, r6, r9}	; <UNPREDICTABLE>
     d50:	74000000 	strvc	r0, [r0], #-0
     d54:	01000000 	mrseq	r0, (UNDEF: 0)
     d58:	00745200 	rsbseq	r5, r4, r0, lsl #4
     d5c:	00780000 	rsbseq	r0, r8, r0
     d60:	00030000 	andeq	r0, r3, r0
     d64:	009f0172 	addseq	r0, pc, r2, ror r1	; <UNPREDICTABLE>
	...
     d70:	00000800 	andeq	r0, r0, r0, lsl #16
     d74:	00007800 	andeq	r7, r0, r0, lsl #16
     d78:	54000100 	strpl	r0, [r0], #-256	; 0xffffff00
	...
     d88:	002c0000 	eoreq	r0, ip, r0
     d8c:	00340000 	eorseq	r0, r4, r0
     d90:	00010000 	andeq	r0, r1, r0
     d94:	00003450 	andeq	r3, r0, r0, asr r4
     d98:	00004800 	andeq	r4, r0, r0, lsl #16
     d9c:	54000100 	strpl	r0, [r0], #-256	; 0xffffff00
     da0:	00000048 	andeq	r0, r0, r8, asr #32
     da4:	00000058 	andeq	r0, r0, r8, asr r0
     da8:	00500001 	subseq	r0, r0, r1
	...
     db4:	01010000 	mrseq	r0, (UNDEF: 1)
     db8:	00000000 	andeq	r0, r0, r0
     dbc:	0c000000 	stceq	0, cr0, [r0], {-0}
     dc0:	01000000 	mrseq	r0, (UNDEF: 0)
     dc4:	000c5000 	andeq	r5, ip, r0
     dc8:	00200000 	eoreq	r0, r0, r0
     dcc:	00010000 	andeq	r0, r1, r0
     dd0:	00002054 	andeq	r2, r0, r4, asr r0
     dd4:	00002400 	andeq	r2, r0, r0, lsl #8
     dd8:	74000300 	strvc	r0, [r0], #-768	; 0xfffffd00
     ddc:	00249f01 	eoreq	r9, r4, r1, lsl #30
     de0:	00380000 	eorseq	r0, r8, r0
     de4:	00010000 	andeq	r0, r1, r0
     de8:	00000054 	andeq	r0, r0, r4, asr r0
	...
     df8:	88000000 	stmdahi	r0, {}	; <UNPREDICTABLE>
     dfc:	94000003 	strls	r0, [r0], #-3
     e00:	01000003 	tsteq	r0, r3
     e04:	03945000 	orrseq	r5, r4, #0, 0
     e08:	03d00000 	bicseq	r0, r0, #0, 0
     e0c:	00010000 	andeq	r0, r1, r0
     e10:	0003d05b 	andeq	sp, r3, fp, asr r0
     e14:	00092000 	andeq	r2, r9, r0
     e18:	f3000400 	vshl.u8	d0, d0, d0
     e1c:	209f5001 	addscs	r5, pc, r1
     e20:	28000009 	stmdacs	r0, {r0, r3}
     e24:	01000009 	tsteq	r0, r9
     e28:	09285b00 	stmdbeq	r8!, {r8, r9, fp, ip, lr}
     e2c:	09b40000 	ldmibeq	r4!, {}	; <UNPREDICTABLE>
     e30:	00040000 	andeq	r0, r4, r0
     e34:	9f5001f3 	svcls	0x005001f3
	...
     e48:	00000388 	andeq	r0, r0, r8, lsl #7
     e4c:	000003d0 	ldrdeq	r0, [r0], -r0	; <UNPREDICTABLE>
     e50:	d0510001 	subsle	r0, r1, r1
     e54:	20000003 	andcs	r0, r0, r3
     e58:	04000009 	streq	r0, [r0], #-9
     e5c:	5101f300 	mrspl	pc, SP_irq	; <UNPREDICTABLE>
     e60:	0009209f 	muleq	r9, pc, r0	; <UNPREDICTABLE>
     e64:	00092800 	andeq	r2, r9, r0, lsl #16
     e68:	51000100 	mrspl	r0, (UNDEF: 16)
     e6c:	00000928 	andeq	r0, r0, r8, lsr #18
     e70:	000009b4 			; <UNDEFINED> instruction: 0x000009b4
     e74:	01f30004 	mvnseq	r0, r4
     e78:	00009f51 	andeq	r9, r0, r1, asr pc
	...
     e88:	00000100 	andeq	r0, r0, r0, lsl #2
     e8c:	00000001 	andeq	r0, r0, r1
	...
     e98:	03880000 	orreq	r0, r8, #0, 0
     e9c:	03d00000 	bicseq	r0, r0, #0, 0
     ea0:	00010000 	andeq	r0, r1, r0
     ea4:	0003d052 	andeq	sp, r3, r2, asr r0
     ea8:	00040000 	andeq	r0, r4, r0
     eac:	56000100 	strpl	r0, [r0], -r0, lsl #2
     eb0:	00000414 	andeq	r0, r0, r4, lsl r4
     eb4:	00000424 	andeq	r0, r0, r4, lsr #8
     eb8:	24560001 	ldrbcs	r0, [r6], #-1
     ebc:	28000004 	stmdacs	r0, {r2}
     ec0:	03000004 	movweq	r0, #4
     ec4:	9f7f7600 	svcls	0x007f7600
     ec8:	000004a8 	andeq	r0, r0, r8, lsr #9
     ecc:	000004ac 	andeq	r0, r0, ip, lsr #9
     ed0:	e0560001 	subs	r0, r6, r1
     ed4:	04000004 	streq	r0, [r0], #-4
     ed8:	01000005 	tsteq	r0, r5
     edc:	057c5600 	ldrbeq	r5, [ip, #-1536]!	; 0xfffffa00
     ee0:	05880000 	streq	r0, [r8]
     ee4:	00010000 	andeq	r0, r1, r0
     ee8:	00058853 	andeq	r8, r5, r3, asr r8
     eec:	0005d000 	andeq	sp, r5, r0
     ef0:	91000300 	mrsls	r0, LR_irq
     ef4:	08007dcc 	stmdaeq	r0, {r2, r3, r6, r7, r8, sl, fp, ip, sp, lr}
     ef8:	080f0000 	stmdaeq	pc, {}	; <UNPREDICTABLE>
     efc:	00010000 	andeq	r0, r1, r0
     f00:	00080f53 	andeq	r0, r8, r3, asr pc
     f04:	00088800 	andeq	r8, r8, r0, lsl #16
     f08:	91000300 	mrsls	r0, LR_irq
     f0c:	09207dcc 	stmdbeq	r0!, {r2, r3, r6, r7, r8, sl, fp, ip, sp, lr}
     f10:	09280000 	stmdbeq	r8!, {}	; <UNPREDICTABLE>
     f14:	00010000 	andeq	r0, r1, r0
     f18:	00094852 	andeq	r4, r9, r2, asr r8
     f1c:	00096400 	andeq	r6, r9, r0, lsl #8
     f20:	91000300 	mrsls	r0, LR_irq
     f24:	00007dcc 	andeq	r7, r0, ip, asr #27
	...
     f34:	01000000 	mrseq	r0, (UNDEF: 0)
     f38:	01000001 	tsteq	r0, r1
     f3c:	00000001 	andeq	r0, r0, r1
     f40:	00020200 	andeq	r0, r2, r0, lsl #4
     f44:	00020200 	andeq	r0, r2, r0, lsl #4
     f48:	00010100 	andeq	r0, r1, r0, lsl #2
     f4c:	00020200 	andeq	r0, r2, r0, lsl #4
     f50:	00010100 	andeq	r0, r1, r0, lsl #2
	...
     f5c:	00000388 	andeq	r0, r0, r8, lsl #7
     f60:	000003ac 	andeq	r0, r0, ip, lsr #7
     f64:	ac530001 	mrrcge	0, 0, r0, r3, cr1
     f68:	c0000003 	andgt	r0, r0, r3
     f6c:	03000003 	movweq	r0, #3
     f70:	04935300 	ldreq	r5, [r3], #768	; 0x300
     f74:	000003d0 	ldrdeq	r0, [r0], -r0	; <UNPREDICTABLE>
     f78:	000003e8 	andeq	r0, r0, r8, ror #7
     f7c:	93580003 	cmpls	r8, #3, 0
     f80:	0003e804 	andeq	lr, r3, r4, lsl #16
     f84:	0004ac00 	andeq	sl, r4, r0, lsl #24
     f88:	58000300 	stmdapl	r0, {r8, r9}
     f8c:	04c00493 	strbeq	r0, [r0], #1171	; 0x493
     f90:	04c00000 	strbeq	r0, [r0], #0
     f94:	00030000 	andeq	r0, r3, r0
     f98:	c0049358 	andgt	r9, r4, r8, asr r3
     f9c:	cc000004 	stcgt	0, cr0, [r0], {4}
     fa0:	05000004 	streq	r0, [r0, #-4]
     fa4:	9f047800 	svcls	0x00047800
     fa8:	04cc0493 	strbeq	r0, [ip], #1171	; 0x493
     fac:	04e00000 	strbteq	r0, [r0], #0
     fb0:	00030000 	andeq	r0, r3, r0
     fb4:	e0049358 	and	r9, r4, r8, asr r3
     fb8:	38000004 	stmdacc	r0, {r2}
     fbc:	03000005 	movweq	r0, #5
     fc0:	04935800 	ldreq	r5, [r3], #2048	; 0x800
     fc4:	00000538 	andeq	r0, r0, r8, lsr r5
     fc8:	0000053c 	andeq	r0, r0, ip, lsr r5
     fcc:	79780005 	ldmdbvc	r8!, {r0, r2}^
     fd0:	d004939f 	mulle	r4, pc, r3	; <UNPREDICTABLE>
     fd4:	d0000005 	andle	r0, r0, r5
     fd8:	03000005 	movweq	r0, #5
     fdc:	04935800 	ldreq	r5, [r3], #2048	; 0x800
     fe0:	000005d0 	ldrdeq	r0, [r0], -r0	; <UNPREDICTABLE>
     fe4:	000005d4 	ldrdeq	r0, [r0], -r4
     fe8:	04780005 	ldrbteq	r0, [r8], #-5
     fec:	f404939f 	vst2.32	{d9-d12}, [r4 :64]
     ff0:	f4000005 	vst4.8	{d0-d3}, [r0], r5
     ff4:	03000005 	movweq	r0, #5
     ff8:	04935800 	ldreq	r5, [r3], #2048	; 0x800
     ffc:	000005f4 	strdeq	r0, [r0], -r4
    1000:	000005fc 	strdeq	r0, [r0], -ip
    1004:	04780005 	ldrbteq	r0, [r8], #-5
    1008:	fc04939f 	stc2	3, cr9, [r4], {159}	; 0x9f
    100c:	fc000005 	stc2	0, cr0, [r0], {5}
    1010:	03000005 	movweq	r0, #5
    1014:	04935800 	ldreq	r5, [r3], #2048	; 0x800
    1018:	000005fc 	strdeq	r0, [r0], -ip
    101c:	00000600 	andeq	r0, r0, r0, lsl #12
    1020:	04780005 	ldrbteq	r0, [r8], #-5
    1024:	0004939f 	muleq	r4, pc, r3	; <UNPREDICTABLE>
    1028:	00000006 	andeq	r0, r0, r6
    102c:	03000007 	movweq	r0, #7
    1030:	04935800 	ldreq	r5, [r3], #2048	; 0x800
    1034:	00000700 	andeq	r0, r0, r0, lsl #14
    1038:	0000070c 	andeq	r0, r0, ip, lsl #14
    103c:	04780005 	ldrbteq	r0, [r8], #-5
    1040:	0c04939f 	stceq	3, cr9, [r4], {159}	; 0x9f
    1044:	f8000007 			; <UNDEFINED> instruction: 0xf8000007
    1048:	03000007 	movweq	r0, #7
    104c:	04935800 	ldreq	r5, [r3], #2048	; 0x800
    1050:	000007f8 	strdeq	r0, [r0], -r8
    1054:	000007fc 	strdeq	r0, [r0], -ip
    1058:	04780005 	ldrbteq	r0, [r8], #-5
    105c:	fc04939f 	stc2	3, cr9, [r4], {159}	; 0x9f
    1060:	00000007 	andeq	r0, r0, r7
    1064:	03000008 	movweq	r0, #8
    1068:	04935800 	ldreq	r5, [r3], #2048	; 0x800
    106c:	00000888 	andeq	r0, r0, r8, lsl #17
    1070:	00000920 	andeq	r0, r0, r0, lsr #18
    1074:	93580003 	cmpls	r8, #3, 0
    1078:	00092004 	andeq	r2, r9, r4
    107c:	00092800 	andeq	r2, r9, r0, lsl #16
    1080:	53000100 	movwpl	r0, #256	; 0x100
    1084:	00000964 	andeq	r0, r0, r4, ror #18
    1088:	000009b4 			; <UNDEFINED> instruction: 0x000009b4
    108c:	93580003 	cmpls	r8, #3, 0
    1090:	00000004 	andeq	r0, r0, r4
    1094:	00000000 	andeq	r0, r0, r0
    1098:	00000100 	andeq	r0, r0, r0, lsl #2
    109c:	00000000 	andeq	r0, r0, r0
    10a0:	02020000 	andeq	r0, r2, #0, 0
    10a4:	01000000 	mrseq	r0, (UNDEF: 0)
    10a8:	00000101 	andeq	r0, r0, r1, lsl #2
    10ac:	ac000000 	stcge	0, cr0, [r0], {-0}
    10b0:	d0000003 	andle	r0, r0, r3
    10b4:	01000003 	tsteq	r0, r3
    10b8:	03d05b00 	bicseq	r5, r0, #0, 22
    10bc:	03d40000 	bicseq	r0, r4, #0, 0
    10c0:	00010000 	andeq	r0, r1, r0
    10c4:	0003d454 	andeq	sp, r3, r4, asr r4
    10c8:	0003d800 	andeq	sp, r3, r0, lsl #16
    10cc:	74000300 	strvc	r0, [r0], #-768	; 0xfffffd00
    10d0:	03d89f7f 	bicseq	r9, r8, #508	; 0x1fc
    10d4:	03fc0000 	mvnseq	r0, #0, 0
    10d8:	00010000 	andeq	r0, r1, r0
    10dc:	0004a854 	andeq	sl, r4, r4, asr r8
    10e0:	0004ac00 	andeq	sl, r4, r0, lsl #24
    10e4:	54000100 	strpl	r0, [r0], #-256	; 0xffffff00
    10e8:	000004ac 	andeq	r0, r0, ip, lsr #9
    10ec:	000004b4 			; <UNDEFINED> instruction: 0x000004b4
    10f0:	01740003 	cmneq	r4, r3
    10f4:	0004b49f 	muleq	r4, pc, r4	; <UNPREDICTABLE>
    10f8:	0004c000 	andeq	ip, r4, r0
    10fc:	54000100 	strpl	r0, [r0], #-256	; 0xffffff00
    1100:	000004e4 	andeq	r0, r0, r4, ror #9
    1104:	000004f4 	strdeq	r0, [r0], -r4
    1108:	f4540001 			; <UNDEFINED> instruction: 0xf4540001
    110c:	f8000004 			; <UNDEFINED> instruction: 0xf8000004
    1110:	03000004 	movweq	r0, #4
    1114:	9f017400 	svcls	0x00017400
    1118:	000004f8 	strdeq	r0, [r0], -r8
    111c:	00000504 	andeq	r0, r0, r4, lsl #10
    1120:	20540001 	subscs	r0, r4, r1
    1124:	28000009 	stmdacs	r0, {r0, r3}
    1128:	01000009 	tsteq	r0, r9
    112c:	00005b00 	andeq	r5, r0, r0, lsl #22
    1130:	00000000 	andeq	r0, r0, r0
    1134:	00010000 	andeq	r0, r1, r0
    1138:	000003ac 	andeq	r0, r0, ip, lsr #7
    113c:	000009b4 			; <UNDEFINED> instruction: 0x000009b4
    1140:	00570001 	subseq	r0, r7, r1
    1144:	00000000 	andeq	r0, r0, r0
    1148:	02000000 	andeq	r0, r0, #0, 0
    114c:	00000000 	andeq	r0, r0, r0
    1150:	00057c00 	andeq	r7, r5, r0, lsl #24
    1154:	0005d000 	andeq	sp, r5, r0
    1158:	5b000100 	blpl	1560 <__code_start__-0x6aa0>
    115c:	00000800 	andeq	r0, r0, r0, lsl #16
    1160:	00000888 	andeq	r0, r0, r8, lsl #17
    1164:	485b0001 	ldmdami	fp, {r0}^
    1168:	64000009 	strvs	r0, [r0], #-9
    116c:	01000009 	tsteq	r0, r9
    1170:	00005b00 	andeq	r5, r0, r0, lsl #22
    1174:	00000000 	andeq	r0, r0, r0
    1178:	00030000 	andeq	r0, r3, r0
    117c:	00000000 	andeq	r0, r0, r0
    1180:	0000057c 	andeq	r0, r0, ip, ror r5
    1184:	000005d0 	ldrdeq	r0, [r0], -r0	; <UNPREDICTABLE>
    1188:	00590001 	subseq	r0, r9, r1
    118c:	88000008 	stmdahi	r0, {r3}
    1190:	01000008 	tsteq	r0, r8
    1194:	09485900 	stmdbeq	r8, {r8, fp, ip, lr}^
    1198:	09640000 	stmdbeq	r4!, {}^	; <UNPREDICTABLE>
    119c:	00010000 	andeq	r0, r1, r0
    11a0:	00000059 	andeq	r0, r0, r9, asr r0
    11a4:	00000000 	andeq	r0, r0, r0
    11a8:	00000400 	andeq	r0, r0, r0, lsl #8
    11ac:	00000000 	andeq	r0, r0, r0
    11b0:	0003ac00 	andeq	sl, r3, r0, lsl #24
    11b4:	0003d000 	andeq	sp, r3, r0
    11b8:	52000100 	andpl	r0, r0, #0
    11bc:	000003d0 	ldrdeq	r0, [r0], -r0	; <UNPREDICTABLE>
    11c0:	00000920 	andeq	r0, r0, r0, lsr #18
    11c4:	01f30004 	mvnseq	r0, r4
    11c8:	09209f52 	stmdbeq	r0!, {r1, r4, r6, r8, r9, sl, fp, ip, pc}
    11cc:	09280000 	stmdbeq	r8!, {}	; <UNPREDICTABLE>
    11d0:	00010000 	andeq	r0, r1, r0
    11d4:	00092852 	andeq	r2, r9, r2, asr r8
    11d8:	0009b400 	andeq	fp, r9, r0, lsl #8
    11dc:	f3000400 	vshl.u8	d0, d0, d0
    11e0:	009f5201 	addseq	r5, pc, r1, lsl #4
	...
    11ec:	00000101 	andeq	r0, r0, r1, lsl #2
    11f0:	01000000 	mrseq	r0, (UNDEF: 0)
    11f4:	e0000000 	and	r0, r0, r0
    11f8:	e0000004 	and	r0, r0, r4
    11fc:	01000004 	tsteq	r0, r4
    1200:	04e05000 	strbteq	r5, [r0], #0
    1204:	04e80000 	strbteq	r0, [r8], #0
    1208:	00010000 	andeq	r0, r1, r0
    120c:	0005b855 	andeq	fp, r5, r5, asr r8
    1210:	0005d000 	andeq	sp, r5, r0
    1214:	55000100 	strpl	r0, [r0, #-256]	; 0xffffff00
    1218:	000005f0 	strdeq	r0, [r0], -r0	; <UNPREDICTABLE>
    121c:	000005f4 	strdeq	r0, [r0], -r4
    1220:	f4500001 			; <UNDEFINED> instruction: 0xf4500001
    1224:	f8000007 			; <UNDEFINED> instruction: 0xf8000007
    1228:	01000007 	tsteq	r0, r7
    122c:	08505500 	ldmdaeq	r0, {r8, sl, ip, lr}^
    1230:	08880000 	stmeq	r8, {}	; <UNPREDICTABLE>
    1234:	00010000 	andeq	r0, r1, r0
    1238:	00000055 	andeq	r0, r0, r5, asr r0
    123c:	00000000 	andeq	r0, r0, r0
    1240:	00000200 	andeq	r0, r0, r0, lsl #4
    1244:	00000000 	andeq	r0, r0, r0
    1248:	00041400 	andeq	r1, r4, r0, lsl #8
    124c:	00041800 	andeq	r1, r4, r0, lsl #16
    1250:	30000200 	andcc	r0, r0, r0, lsl #4
    1254:	0004189f 	muleq	r4, pc, r8	; <UNPREDICTABLE>
    1258:	00041c00 	andeq	r1, r4, r0, lsl #24
    125c:	55000100 	strpl	r0, [r0, #-256]	; 0xffffff00
    1260:	00000428 	andeq	r0, r0, r8, lsr #8
    1264:	0000043c 	andeq	r0, r0, ip, lsr r4
    1268:	28550001 	ldmdacs	r5, {r0}^
    126c:	30000009 	andcc	r0, r0, r9
    1270:	01000009 	tsteq	r0, r9
    1274:	00005500 	andeq	r5, r0, r0, lsl #10
    1278:	00000000 	andeq	r0, r0, r0
    127c:	00010000 	andeq	r0, r1, r0
	...
    1288:	05040000 	streq	r0, [r4, #-0]
    128c:	05840000 	streq	r0, [r4]
    1290:	00010000 	andeq	r0, r1, r0
    1294:	00058456 	andeq	r8, r5, r6, asr r4
    1298:	00058800 	andeq	r8, r5, r0, lsl #16
    129c:	73000300 	movwvc	r0, #768	; 0x300
    12a0:	05889f7e 	streq	r9, [r8, #3966]	; 0xf7e
    12a4:	05d00000 	ldrbeq	r0, [r0]
    12a8:	00070000 	andeq	r0, r7, r0
    12ac:	067dcc91 			; <UNDEFINED> instruction: 0x067dcc91
    12b0:	009f1c32 	addseq	r1, pc, r2, lsr ip	; <UNPREDICTABLE>
    12b4:	1c000008 	stcne	0, cr0, [r0], {8}
    12b8:	01000008 	tsteq	r0, r8
    12bc:	081c5600 	ldmdaeq	ip, {r9, sl, ip, lr}
    12c0:	08880000 	stmeq	r8, {}	; <UNPREDICTABLE>
    12c4:	00070000 	andeq	r0, r7, r0
    12c8:	067dcc91 			; <UNDEFINED> instruction: 0x067dcc91
    12cc:	489f1c32 	ldmmi	pc, {r1, r4, r5, sl, fp, ip}	; <UNPREDICTABLE>
    12d0:	b4000009 	strlt	r0, [r0], #-9
    12d4:	01000009 	tsteq	r0, r9
    12d8:	00005600 	andeq	r5, r0, r0, lsl #12
    12dc:	00000000 	andeq	r0, r0, r0
    12e0:	06040000 	streq	r0, [r4], -r0
    12e4:	04140402 	ldreq	r0, [r4], #-1026	; 0xfffffbfe
    12e8:	04140000 	ldreq	r0, [r4], #-0
    12ec:	00060000 	andeq	r0, r6, r0
    12f0:	ff080072 			; <UNDEFINED> instruction: 0xff080072
    12f4:	04289f1a 	strteq	r9, [r8], #-3866	; 0xfffff0e6
    12f8:	04280000 	strteq	r0, [r8], #-0
    12fc:	00060000 	andeq	r0, r6, r0
    1300:	ff080072 			; <UNDEFINED> instruction: 0xff080072
    1304:	00009f1a 	andeq	r9, r0, sl, lsl pc
    1308:	00000000 	andeq	r0, r0, r0
    130c:	00020000 	andeq	r0, r2, r0
    1310:	00000000 	andeq	r0, r0, r0
    1314:	000005fc 	strdeq	r0, [r0], -ip
    1318:	00000700 	andeq	r0, r0, r0, lsl #14
    131c:	80080003 	andhi	r0, r8, r3
    1320:	0008a89f 	muleq	r8, pc, r8	; <UNPREDICTABLE>
    1324:	0008bc00 	andeq	fp, r8, r0, lsl #24
    1328:	08000300 	stmdaeq	r0, {r8, r9}
    132c:	09109f80 	ldmdbeq	r0, {r7, r8, r9, sl, fp, ip, pc}
    1330:	09200000 	stmdbeq	r0!, {}	; <UNPREDICTABLE>
    1334:	00030000 	andeq	r0, r3, r0
    1338:	009f8008 	addseq	r8, pc, r8
    133c:	00000000 	andeq	r0, r0, r0
    1340:	01000000 	mrseq	r0, (UNDEF: 0)
    1344:	00000000 	andeq	r0, r0, r0
    1348:	0005fc00 	andeq	pc, r5, r0, lsl #24
    134c:	00070000 	andeq	r0, r7, r0
    1350:	30000200 	andcc	r0, r0, r0, lsl #4
    1354:	0008a89f 	muleq	r8, pc, r8	; <UNPREDICTABLE>
    1358:	0008bc00 	andeq	fp, r8, r0, lsl #24
    135c:	30000200 	andcc	r0, r0, r0, lsl #4
    1360:	0009109f 	muleq	r9, pc, r0	; <UNPREDICTABLE>
    1364:	00092000 	andeq	r2, r9, r0
    1368:	30000200 	andcc	r0, r0, r0, lsl #4
    136c:	0000009f 	muleq	r0, pc, r0	; <UNPREDICTABLE>
    1370:	00000000 	andeq	r0, r0, r0
    1374:	00000100 	andeq	r0, r0, r0, lsl #2
    1378:	fc000000 	stc2	0, cr0, [r0], {-0}
    137c:	e0000005 	and	r0, r0, r5
    1380:	01000006 	tsteq	r0, r6
    1384:	08a85500 	stmiaeq	r8!, {r8, sl, ip, lr}
    1388:	08bc0000 	ldmeq	ip!, {}	; <UNPREDICTABLE>
    138c:	00010000 	andeq	r0, r1, r0
    1390:	00091055 	andeq	r1, r9, r5, asr r0
    1394:	00092000 	andeq	r2, r9, r0
    1398:	55000100 	strpl	r0, [r0, #-256]	; 0xffffff00
	...
    13a4:	00000001 	andeq	r0, r0, r1
    13a8:	00000000 	andeq	r0, r0, r0
    13ac:	000005fc 	strdeq	r0, [r0], -ip
    13b0:	000006e0 	andeq	r0, r0, r0, ror #13
    13b4:	d0910004 	addsle	r0, r1, r4
    13b8:	06e09f7d 			; <UNDEFINED> instruction: 0x06e09f7d
    13bc:	07000000 	streq	r0, [r0, -r0]
    13c0:	00010000 	andeq	r0, r1, r0
    13c4:	0008a855 	andeq	sl, r8, r5, asr r8
    13c8:	0008bc00 	andeq	fp, r8, r0, lsl #24
    13cc:	91000400 	tstls	r0, r0, lsl #8
    13d0:	109f7dd0 			; <UNDEFINED> instruction: 0x109f7dd0
    13d4:	20000009 	andcs	r0, r0, r9
    13d8:	04000009 	streq	r0, [r0], #-9
    13dc:	7dd09100 	ldfvcp	f1, [r0]
    13e0:	0000009f 	muleq	r0, pc, r0	; <UNPREDICTABLE>
    13e4:	00000000 	andeq	r0, r0, r0
    13e8:	00000100 	andeq	r0, r0, r0, lsl #2
    13ec:	fc000000 	stc2	0, cr0, [r0], {-0}
    13f0:	00000005 	andeq	r0, r0, r5
    13f4:	02000007 	andeq	r0, r0, #7, 0
    13f8:	a89f3800 	ldmge	pc, {fp, ip, sp}	; <UNPREDICTABLE>
    13fc:	bc000008 	stclt	0, cr0, [r0], {8}
    1400:	02000008 	andeq	r0, r0, #8, 0
    1404:	109f3800 	addsne	r3, pc, r0, lsl #16
    1408:	20000009 	andcs	r0, r0, r9
    140c:	02000009 	andeq	r0, r0, #9, 0
    1410:	009f3800 	addseq	r3, pc, r0, lsl #16
    1414:	00000000 	andeq	r0, r0, r0
    1418:	04000000 	streq	r0, [r0], #-0
    141c:	00000707 	andeq	r0, r0, r7, lsl #14
	...
    1428:	0005fc00 	andeq	pc, r5, r0, lsl #24
    142c:	0005fc00 	andeq	pc, r5, r0, lsl #24
    1430:	91000400 	tstls	r0, r0, lsl #8
    1434:	fc9f7ed0 	ldc2	14, cr7, [pc], {208}	; 0xd0
    1438:	78000005 	stmdavc	r0, {r0, r2}
    143c:	04000006 	streq	r0, [r0], #-6
    1440:	7ed19100 	atnvcs	f1, f0
    1444:	0006789f 	muleq	r6, pc, r8	; <UNPREDICTABLE>
    1448:	0006d400 	andeq	sp, r6, r0, lsl #8
    144c:	5c000100 	stfpls	f0, [r0], {-0}
    1450:	000006d4 	ldrdeq	r0, [r0], -r4
    1454:	00000700 	andeq	r0, r0, r0, lsl #14
    1458:	d1910004 	orrsle	r0, r1, r4
    145c:	08a89f7e 	stmiaeq	r8!, {r1, r2, r3, r4, r5, r6, r8, r9, sl, fp, ip, pc}
    1460:	08bc0000 	ldmeq	ip!, {}	; <UNPREDICTABLE>
    1464:	00040000 	andeq	r0, r4, r0
    1468:	9f7ed191 	svcls	0x007ed191
    146c:	00000910 	andeq	r0, r0, r0, lsl r9
    1470:	00000914 	andeq	r0, r0, r4, lsl r9
    1474:	d1910004 	orrsle	r0, r1, r4
    1478:	09149f7e 	ldmdbeq	r4, {r1, r2, r3, r4, r5, r6, r8, r9, sl, fp, ip, pc}
    147c:	09200000 	stmdbeq	r0!, {}	; <UNPREDICTABLE>
    1480:	00010000 	andeq	r0, r1, r0
    1484:	0000005c 	andeq	r0, r0, ip, asr r0
    1488:	00000000 	andeq	r0, r0, r0
    148c:	00010400 	andeq	r0, r1, r0, lsl #8
    1490:	08000001 	stmdaeq	r0, {r0}
    1494:	d0000006 	andle	r0, r0, r6
    1498:	01000006 	tsteq	r0, r6
    149c:	08a85500 	stmiaeq	r8!, {r8, sl, ip, lr}
    14a0:	08b80000 	ldmeq	r8!, {}	; <UNPREDICTABLE>
    14a4:	00010000 	andeq	r0, r1, r0
    14a8:	00091055 	andeq	r1, r9, r5, asr r0
    14ac:	00092000 	andeq	r2, r9, r0
    14b0:	55000100 	strpl	r0, [r0, #-256]	; 0xffffff00
	...
    14bc:	00000004 	andeq	r0, r0, r4
    14c0:	00000100 	andeq	r0, r0, r0, lsl #2
    14c4:	00000100 	andeq	r0, r0, r0, lsl #2
    14c8:	00000608 	andeq	r0, r0, r8, lsl #12
    14cc:	000006b0 			; <UNDEFINED> instruction: 0x000006b0
    14d0:	d0910004 	addsle	r0, r1, r4
    14d4:	06b09f7e 			; <UNDEFINED> instruction: 0x06b09f7e
    14d8:	06c80000 	strbeq	r0, [r8], r0
    14dc:	00010000 	andeq	r0, r1, r0
    14e0:	0006c850 	andeq	ip, r6, r0, asr r8
    14e4:	0006d000 	andeq	sp, r6, r0
    14e8:	91000400 	tstls	r0, r0, lsl #8
    14ec:	a89f7ed0 	ldmge	pc, {r4, r6, r7, r9, sl, fp, ip, sp, lr}	; <UNPREDICTABLE>
    14f0:	b0000008 	andlt	r0, r0, r8
    14f4:	04000008 	streq	r0, [r0], #-8
    14f8:	7ed09100 	atnvcs	f1, f0
    14fc:	0008b09f 	muleq	r8, pc, r0	; <UNPREDICTABLE>
    1500:	0008b800 	andeq	fp, r8, r0, lsl #16
    1504:	53000100 	movwpl	r0, #256	; 0x100
    1508:	00000910 	andeq	r0, r0, r0, lsl r9
    150c:	00000920 	andeq	r0, r0, r0, lsr #18
    1510:	d0910004 	addsle	r0, r1, r4
    1514:	00009f7e 	andeq	r9, r0, lr, ror pc
    1518:	00000000 	andeq	r0, r0, r0
    151c:	00040000 	andeq	r0, r4, r0
    1520:	01010100 	mrseq	r0, (UNDEF: 17)
    1524:	02030301 	andeq	r0, r3, #67108864	; 0x4000000
    1528:	00000100 	andeq	r0, r0, r0, lsl #2
    152c:	06080000 	streq	r0, [r8], -r0
    1530:	06240000 	strteq	r0, [r4], -r0
    1534:	00040000 	andeq	r0, r4, r0
    1538:	9f7ed191 	svcls	0x007ed191
    153c:	00000684 	andeq	r0, r0, r4, lsl #13
    1540:	00000684 	andeq	r0, r0, r4, lsl #13
    1544:	84500001 	ldrbhi	r0, [r0], #-1
    1548:	98000006 	stmdals	r0, {r1, r2}
    154c:	03000006 	movweq	r0, #6
    1550:	9f017000 	svcls	0x00017000
    1554:	00000698 	muleq	r0, r8, r6
    1558:	000006a4 	andeq	r0, r0, r4, lsr #13
    155c:	02700003 	rsbseq	r0, r0, #3, 0
    1560:	0006a49f 	muleq	r6, pc, r4	; <UNPREDICTABLE>
    1564:	0006a800 	andeq	sl, r6, r0, lsl #16
    1568:	70000300 	andvc	r0, r0, r0, lsl #6
    156c:	08a89f03 	stmiaeq	r8!, {r0, r1, r8, r9, sl, fp, ip, pc}
    1570:	08b80000 	ldmeq	r8!, {}	; <UNPREDICTABLE>
    1574:	00040000 	andeq	r0, r4, r0
    1578:	9f7ed191 	svcls	0x007ed191
    157c:	00000910 	andeq	r0, r0, r0, lsl r9
    1580:	00000914 	andeq	r0, r0, r4, lsl r9
    1584:	d1910004 	orrsle	r0, r1, r4
    1588:	09149f7e 	ldmdbeq	r4, {r1, r2, r3, r4, r5, r6, r8, r9, sl, fp, ip, pc}
    158c:	09200000 	stmdbeq	r0!, {}	; <UNPREDICTABLE>
    1590:	00010000 	andeq	r0, r1, r0
    1594:	0000005c 	andeq	r0, r0, ip, asr r0
    1598:	00000000 	andeq	r0, r0, r0
    159c:	00000600 	andeq	r0, r0, r0, lsl #12
    15a0:	01010101 	tsteq	r1, r1, lsl #2
    15a4:	00020101 	andeq	r0, r2, r1, lsl #2
    15a8:	08000001 	stmdaeq	r0, {r0}
    15ac:	24000006 	strcs	r0, [r0], #-6
    15b0:	02000006 	andeq	r0, r0, #6, 0
    15b4:	849f3100 	ldrhi	r3, [pc], #256	; 15bc <__code_start__-0x6a44>
    15b8:	94000006 	strls	r0, [r0], #-6
    15bc:	01000006 	tsteq	r0, r6
    15c0:	06945200 	ldreq	r5, [r4], r0, lsl #4
    15c4:	06a40000 	strteq	r0, [r4], r0
    15c8:	00010000 	andeq	r0, r1, r0
    15cc:	0006a459 	andeq	sl, r6, r9, asr r4
    15d0:	0006a800 	andeq	sl, r6, r0, lsl #16
    15d4:	52000100 	andpl	r0, r0, #0
    15d8:	000006a8 	andeq	r0, r0, r8, lsr #13
    15dc:	000006a8 	andeq	r0, r0, r8, lsr #13
    15e0:	01720003 	cmneq	r2, r3
    15e4:	0008a89f 	muleq	r8, pc, r8	; <UNPREDICTABLE>
    15e8:	0008b800 	andeq	fp, r8, r0, lsl #16
    15ec:	31000200 	mrscc	r0, R8_usr
    15f0:	0009109f 	muleq	r9, pc, r0	; <UNPREDICTABLE>
    15f4:	00092000 	andeq	r2, r9, r0
    15f8:	31000200 	mrscc	r0, R8_usr
    15fc:	0000009f 	muleq	r0, pc, r0	; <UNPREDICTABLE>
    1600:	00000000 	andeq	r0, r0, r0
    1604:	06060100 	streq	r0, [r6], -r0, lsl #2
    1608:	d0000100 	andle	r0, r0, r0, lsl #2
    160c:	d0000006 	andle	r0, r0, r6
    1610:	04000006 	streq	r0, [r0], #-6
    1614:	7ed09100 	atnvcs	f1, f0
    1618:	0006d09f 	muleq	r6, pc, r0	; <UNPREDICTABLE>
    161c:	00070000 	andeq	r0, r7, r0
    1620:	50000100 	andpl	r0, r0, r0, lsl #2
    1624:	000008b8 			; <UNDEFINED> instruction: 0x000008b8
    1628:	000008bc 			; <UNDEFINED> instruction: 0x000008bc
    162c:	00530001 	subseq	r0, r3, r1
    1630:	00000000 	andeq	r0, r0, r0
    1634:	01000000 	mrseq	r0, (UNDEF: 0)
    1638:	00000008 	andeq	r0, r0, r8
    163c:	01000101 	tsteq	r0, r1, lsl #2
    1640:	0006d007 	andeq	sp, r6, r7
    1644:	0006d000 	andeq	sp, r6, r0
    1648:	7c000600 	stcvc	6, cr0, [r0], {-0}
    164c:	22007100 	andcs	r7, r0, #0
    1650:	0006e49f 	muleq	r6, pc, r4	; <UNPREDICTABLE>
    1654:	0006e800 	andeq	lr, r6, r0, lsl #16
    1658:	73000300 	movwvc	r0, #768	; 0x300
    165c:	06e89f7f 			; <UNDEFINED> instruction: 0x06e89f7f
    1660:	06f00000 	ldrbteq	r0, [r0], r0
    1664:	00010000 	andeq	r0, r1, r0
    1668:	0006f053 	andeq	pc, r6, r3, asr r0	; <UNPREDICTABLE>
    166c:	0006f800 	andeq	pc, r6, r0, lsl #16
    1670:	73000300 	movwvc	r0, #768	; 0x300
    1674:	08b89f7f 	ldmeq	r8!, {r0, r1, r2, r3, r4, r5, r6, r8, r9, sl, fp, ip, pc}
    1678:	08b80000 	ldmeq	r8!, {}	; <UNPREDICTABLE>
    167c:	00040000 	andeq	r0, r4, r0
    1680:	9f7ed191 	svcls	0x007ed191
	...
    168c:	00010001 	andeq	r0, r1, r1
    1690:	000006d0 	ldrdeq	r0, [r0], -r0	; <UNPREDICTABLE>
    1694:	00000700 	andeq	r0, r0, r0, lsl #14
    1698:	80080003 	andhi	r0, r8, r3
    169c:	0008b89f 	muleq	r8, pc, r8	; <UNPREDICTABLE>
    16a0:	0008bc00 	andeq	fp, r8, r0, lsl #24
    16a4:	08000300 	stmdaeq	r0, {r8, r9}
    16a8:	00009f80 	andeq	r9, r0, r0, lsl #31
    16ac:	00000000 	andeq	r0, r0, r0
    16b0:	00010000 	andeq	r0, r1, r0
    16b4:	01000000 	mrseq	r0, (UNDEF: 0)
    16b8:	00000001 	andeq	r0, r0, r1
    16bc:	00010102 	andeq	r0, r1, r2, lsl #2
    16c0:	000006d0 	ldrdeq	r0, [r0], -r0	; <UNPREDICTABLE>
    16c4:	000006e0 	andeq	r0, r0, r0, ror #13
    16c8:	d0910004 	addsle	r0, r1, r4
    16cc:	06e09f7d 			; <UNDEFINED> instruction: 0x06e09f7d
    16d0:	06e40000 	strbteq	r0, [r4], r0
    16d4:	00010000 	andeq	r0, r1, r0
    16d8:	0006e455 	andeq	lr, r6, r5, asr r4
    16dc:	0006e400 	andeq	lr, r6, r0, lsl #8
    16e0:	72000300 	andvc	r0, r0, #0, 6
    16e4:	06e49f01 	strbteq	r9, [r4], r1, lsl #30
    16e8:	06f00000 	ldrbteq	r0, [r0], r0
    16ec:	00030000 	andeq	r0, r3, r0
    16f0:	f09f0272 			; <UNDEFINED> instruction: 0xf09f0272
    16f4:	00000006 	andeq	r0, r0, r6
    16f8:	03000007 	movweq	r0, #7
    16fc:	9f017200 	svcls	0x00017200
    1700:	000007ec 	andeq	r0, r0, ip, ror #15
    1704:	000007f4 	strdeq	r0, [r0], -r4
    1708:	01730003 	cmneq	r3, r3
    170c:	0008b89f 	muleq	r8, pc, r8	; <UNPREDICTABLE>
    1710:	0008bc00 	andeq	fp, r8, r0, lsl #24
    1714:	91000400 	tstls	r0, r0, lsl #8
    1718:	009f7dd0 			; <UNDEFINED> instruction: 0x009f7dd0
    171c:	00000000 	andeq	r0, r0, r0
    1720:	04000000 	streq	r0, [r0], #-0
    1724:	0008b800 	andeq	fp, r8, r0, lsl #16
    1728:	0008bc00 	andeq	fp, r8, r0, lsl #24
    172c:	32000200 	andcc	r0, r0, #0, 4
    1730:	0000009f 	muleq	r0, pc, r0	; <UNPREDICTABLE>
    1734:	00000000 	andeq	r0, r0, r0
    1738:	00000700 	andeq	r0, r0, r0, lsl #14
    173c:	d0000600 	andle	r0, r0, r0, lsl #12
    1740:	e0000006 	and	r0, r0, r6
    1744:	04000006 	streq	r0, [r0], #-6
    1748:	7dd09100 	ldfvcp	f1, [r0]
    174c:	0006e09f 	muleq	r6, pc, r0	; <UNPREDICTABLE>
    1750:	00070000 	andeq	r0, r7, r0
    1754:	55000100 	strpl	r0, [r0, #-256]	; 0xffffff00
    1758:	000008b8 			; <UNDEFINED> instruction: 0x000008b8
    175c:	000008bc 			; <UNDEFINED> instruction: 0x000008bc
    1760:	d0910004 	addsle	r0, r1, r4
    1764:	00009f7d 	andeq	r9, r0, sp, ror pc
    1768:	00000000 	andeq	r0, r0, r0
    176c:	00010000 	andeq	r0, r1, r0
    1770:	070c0000 	streq	r0, [ip, -r0]
    1774:	07ec0000 	strbeq	r0, [ip, r0]!
    1778:	00030000 	andeq	r0, r3, r0
    177c:	949f8008 	ldrls	r8, [pc], #8	; 1784 <__code_start__-0x687c>
    1780:	a8000008 	stmdage	r0, {r3}
    1784:	03000008 	movweq	r0, #8
    1788:	9f800800 	svcls	0x00800800
	...
    1798:	0000070c 	andeq	r0, r0, ip, lsl #14
    179c:	000007ec 	andeq	r0, r0, ip, ror #15
    17a0:	9f300002 	svcls	0x00300002
    17a4:	00000894 	muleq	r0, r4, r8
    17a8:	000008a8 	andeq	r0, r0, r8, lsr #17
    17ac:	9f300002 	svcls	0x00300002
	...
    17bc:	0000070c 	andeq	r0, r0, ip, lsl #14
    17c0:	000007d0 	ldrdeq	r0, [r0], -r0	; <UNPREDICTABLE>
    17c4:	94550001 	ldrbls	r0, [r5], #-1
    17c8:	a8000008 	stmdage	r0, {r3}
    17cc:	01000008 	tsteq	r0, r8
    17d0:	00005500 	andeq	r5, r0, r0, lsl #10
	...
    17e0:	0000070c 	andeq	r0, r0, ip, lsl #14
    17e4:	000007d0 	ldrdeq	r0, [r0], -r0	; <UNPREDICTABLE>
    17e8:	d0910004 	addsle	r0, r1, r4
    17ec:	07d09f7d 			; <UNDEFINED> instruction: 0x07d09f7d
    17f0:	07ec0000 	strbeq	r0, [ip, r0]!
    17f4:	00010000 	andeq	r0, r1, r0
    17f8:	00089455 	andeq	r9, r8, r5, asr r4
    17fc:	0008a800 	andeq	sl, r8, r0, lsl #16
    1800:	91000400 	tstls	r0, r0, lsl #8
    1804:	009f7dd0 			; <UNDEFINED> instruction: 0x009f7dd0
	...
    1810:	0c000000 	stceq	0, cr0, [r0], {-0}
    1814:	ec000007 	stc	0, cr0, [r0], {7}
    1818:	02000007 	andeq	r0, r0, #7, 0
    181c:	949f3200 	ldrls	r3, [pc], #512	; 1824 <__code_start__-0x67dc>
    1820:	a8000008 	stmdage	r0, {r3}
    1824:	02000008 	andeq	r0, r0, #8, 0
    1828:	009f3200 	addseq	r3, pc, r0, lsl #4
    182c:	00000000 	andeq	r0, r0, r0
    1830:	03000000 	movweq	r0, #0
    1834:	00000505 	andeq	r0, r0, r5, lsl #10
    1838:	00000000 	andeq	r0, r0, r0
    183c:	00070c00 	andeq	r0, r7, r0, lsl #24
    1840:	00070c00 	andeq	r0, r7, r0, lsl #24
    1844:	51000100 	mrspl	r0, (UNDEF: 16)
    1848:	0000070c 	andeq	r0, r0, ip, lsl #14
    184c:	0000071c 	andeq	r0, r0, ip, lsl r7
    1850:	1c530001 	mrrcne	0, 0, r0, r3, cr1
    1854:	24000007 	strcs	r0, [r0], #-7
    1858:	03000007 	movweq	r0, #7
    185c:	9f017200 	svcls	0x00017200
    1860:	00000724 	andeq	r0, r0, r4, lsr #14
    1864:	000007cc 	andeq	r0, r0, ip, asr #15
    1868:	94530001 	ldrbls	r0, [r3], #-1
    186c:	a8000008 	stmdage	r0, {r3}
    1870:	01000008 	tsteq	r0, r8
    1874:	00005300 	andeq	r5, r0, r0, lsl #6
    1878:	00000000 	andeq	r0, r0, r0
    187c:	00050000 	andeq	r0, r5, r0
    1880:	070c0001 	streq	r0, [ip, -r1]
    1884:	07200000 	streq	r0, [r0, -r0]!
    1888:	00010000 	andeq	r0, r1, r0
    188c:	00072450 	andeq	r2, r7, r0, asr r4
    1890:	00072c00 	andeq	r2, r7, r0, lsl #24
    1894:	50000100 	andpl	r0, r0, r0, lsl #2
	...
    18a0:	01000103 	tsteq	r0, r3, lsl #2
    18a4:	00000728 	andeq	r0, r0, r8, lsr #14
    18a8:	000007b0 			; <UNDEFINED> instruction: 0x000007b0
    18ac:	94550001 	ldrbls	r0, [r5], #-1
    18b0:	a0000008 	andge	r0, r0, r8
    18b4:	01000008 	tsteq	r0, r8
    18b8:	00005500 	andeq	r5, r0, r0, lsl #10
    18bc:	00000000 	andeq	r0, r0, r0
    18c0:	01030000 	mrseq	r0, (UNDEF: 3)
    18c4:	07280100 	streq	r0, [r8, -r0, lsl #2]!
    18c8:	07b00000 	ldreq	r0, [r0, r0]!
    18cc:	00010000 	andeq	r0, r1, r0
    18d0:	00089451 	andeq	r9, r8, r1, asr r4
    18d4:	0008a000 	andeq	sl, r8, r0
    18d8:	51000100 	mrspl	r0, (UNDEF: 16)
	...
    18e4:	01000003 	tsteq	r0, r3
    18e8:	03010101 	movweq	r0, #4353	; 0x1101
    18ec:	01000203 	tsteq	r0, r3, lsl #4
    18f0:	00000728 	andeq	r0, r0, r8, lsr #14
    18f4:	00000750 	andeq	r0, r0, r0, asr r7
    18f8:	74530001 	ldrbvc	r0, [r3], #-1
    18fc:	74000007 	strvc	r0, [r0], #-7
    1900:	01000007 	tsteq	r0, r7
    1904:	07745e00 	ldrbeq	r5, [r4, -r0, lsl #28]!
    1908:	07880000 	streq	r0, [r8, r0]
    190c:	00030000 	andeq	r0, r3, r0
    1910:	889f017e 	ldmhi	pc, {r1, r2, r3, r4, r5, r6, r8}	; <UNPREDICTABLE>
    1914:	94000007 	strls	r0, [r0], #-7
    1918:	03000007 	movweq	r0, #7
    191c:	9f027e00 	svcls	0x00027e00
    1920:	00000794 	muleq	r0, r4, r7
    1924:	00000798 	muleq	r0, r8, r7
    1928:	037e0003 	cmneq	lr, #3, 0
    192c:	0008949f 	muleq	r8, pc, r4	; <UNPREDICTABLE>
    1930:	0008a000 	andeq	sl, r8, r0
    1934:	53000100 	movwpl	r0, #256	; 0x100
	...
    1940:	01000000 	mrseq	r0, (UNDEF: 0)
    1944:	01010101 	tsteq	r1, r1, lsl #2
    1948:	01000201 	tsteq	r0, r1, lsl #4
    194c:	0000072c 	andeq	r0, r0, ip, lsr #14
    1950:	00000750 	andeq	r0, r0, r0, asr r7
    1954:	74500001 	ldrbvc	r0, [r0], #-1
    1958:	84000007 	strhi	r0, [r0], #-7
    195c:	01000007 	tsteq	r0, r7
    1960:	07845000 	streq	r5, [r4, r0]
    1964:	07940000 	ldreq	r0, [r4, r0]
    1968:	00010000 	andeq	r0, r1, r0
    196c:	0007945b 	andeq	r9, r7, fp, asr r4
    1970:	00079800 	andeq	r9, r7, r0, lsl #16
    1974:	50000100 	andpl	r0, r0, r0, lsl #2
    1978:	00000798 	muleq	r0, r8, r7
    197c:	00000798 	muleq	r0, r8, r7
    1980:	01700003 	cmneq	r0, r3
    1984:	0008949f 	muleq	r8, pc, r4	; <UNPREDICTABLE>
    1988:	0008a000 	andeq	sl, r8, r0
    198c:	50000100 	andpl	r0, r0, r0, lsl #2
	...
    1998:	00010001 	andeq	r0, r1, r1
    199c:	000007b0 			; <UNDEFINED> instruction: 0x000007b0
    19a0:	000007ec 	andeq	r0, r0, ip, ror #15
    19a4:	a0510001 	subsge	r0, r1, r1
    19a8:	a8000008 	stmdage	r0, {r3}
    19ac:	01000008 	tsteq	r0, r8
    19b0:	00005100 	andeq	r5, r0, r0, lsl #2
    19b4:	00000000 	andeq	r0, r0, r0
    19b8:	00010000 	andeq	r0, r1, r0
    19bc:	01000000 	mrseq	r0, (UNDEF: 0)
    19c0:	00010001 	andeq	r0, r1, r1
    19c4:	000007b0 			; <UNDEFINED> instruction: 0x000007b0
    19c8:	000007b4 			; <UNDEFINED> instruction: 0x000007b4
    19cc:	00730006 	rsbseq	r0, r3, r6
    19d0:	9f22007c 	svcls	0x0022007c
    19d4:	000007d4 	ldrdeq	r0, [r0], -r4
    19d8:	000007d8 	ldrdeq	r0, [r0], -r8
    19dc:	7f730003 	svcvc	0x00730003
    19e0:	0007d89f 	muleq	r7, pc, r8	; <UNPREDICTABLE>
    19e4:	0007e000 	andeq	lr, r7, r0
    19e8:	53000100 	movwpl	r0, #256	; 0x100
    19ec:	000007e0 	andeq	r0, r0, r0, ror #15
    19f0:	000007e8 	andeq	r0, r0, r8, ror #15
    19f4:	7f730003 	svcvc	0x00730003
    19f8:	0008a09f 	muleq	r8, pc, r0	; <UNPREDICTABLE>
    19fc:	0008a800 	andeq	sl, r8, r0, lsl #16
    1a00:	53000100 	movwpl	r0, #256	; 0x100
	...
    1a0c:	00010001 	andeq	r0, r1, r1
    1a10:	000007b0 			; <UNDEFINED> instruction: 0x000007b0
    1a14:	000007ec 	andeq	r0, r0, ip, ror #15
    1a18:	80080003 	andhi	r0, r8, r3
    1a1c:	0008a09f 	muleq	r8, pc, r0	; <UNPREDICTABLE>
    1a20:	0008a800 	andeq	sl, r8, r0, lsl #16
    1a24:	08000300 	stmdaeq	r0, {r8, r9}
    1a28:	00009f80 	andeq	r9, r0, r0, lsl #31
    1a2c:	00000000 	andeq	r0, r0, r0
    1a30:	00010000 	andeq	r0, r1, r0
    1a34:	01000000 	mrseq	r0, (UNDEF: 0)
    1a38:	00000001 	andeq	r0, r0, r1
    1a3c:	07b00001 	ldreq	r0, [r0, r1]!
    1a40:	07d00000 	ldrbeq	r0, [r0, r0]
    1a44:	00040000 	andeq	r0, r4, r0
    1a48:	9f7dd091 	svcls	0x007dd091
    1a4c:	000007d0 	ldrdeq	r0, [r0], -r0	; <UNPREDICTABLE>
    1a50:	000007d4 	ldrdeq	r0, [r0], -r4
    1a54:	d4550001 	ldrble	r0, [r5], #-1
    1a58:	d4000007 	strle	r0, [r0], #-7
    1a5c:	03000007 	movweq	r0, #7
    1a60:	9f017c00 	svcls	0x00017c00
    1a64:	000007d4 	ldrdeq	r0, [r0], -r4
    1a68:	000007e0 	andeq	r0, r0, r0, ror #15
    1a6c:	027c0003 	rsbseq	r0, ip, #3, 0
    1a70:	0007e09f 	muleq	r7, pc, r0	; <UNPREDICTABLE>
    1a74:	0007ec00 	andeq	lr, r7, r0, lsl #24
    1a78:	7c000300 	stcvc	3, cr0, [r0], {-0}
    1a7c:	08a09f01 	stmiaeq	r0!, {r0, r8, r9, sl, fp, ip, pc}
    1a80:	08a80000 	stmiaeq	r8!, {}	; <UNPREDICTABLE>
    1a84:	00040000 	andeq	r0, r4, r0
    1a88:	9f7dd091 	svcls	0x007dd091
	...
    1a94:	00040004 	andeq	r0, r4, r4
    1a98:	000007b0 			; <UNDEFINED> instruction: 0x000007b0
    1a9c:	000007b4 			; <UNDEFINED> instruction: 0x000007b4
    1aa0:	01700003 	cmneq	r0, r3
    1aa4:	0008a09f 	muleq	r8, pc, r0	; <UNPREDICTABLE>
    1aa8:	0008a800 	andeq	sl, r8, r0, lsl #16
    1aac:	70000300 	andvc	r0, r0, r0, lsl #6
    1ab0:	00009f01 	andeq	r9, r0, r1, lsl #30
    1ab4:	00000000 	andeq	r0, r0, r0
    1ab8:	00010000 	andeq	r0, r1, r0
    1abc:	07bc0000 	ldreq	r0, [ip, r0]!
    1ac0:	07d00000 	ldrbeq	r0, [r0, r0]
    1ac4:	00040000 	andeq	r0, r4, r0
    1ac8:	9f7dd091 	svcls	0x007dd091
    1acc:	000007d0 	ldrdeq	r0, [r0], -r0	; <UNPREDICTABLE>
    1ad0:	000007ec 	andeq	r0, r0, ip, ror #15
    1ad4:	00550001 	subseq	r0, r5, r1
	...
    1ae0:	28000000 	stmdacs	r0, {}	; <UNPREDICTABLE>
    1ae4:	64000003 	strvs	r0, [r0], #-3
    1ae8:	01000003 	tsteq	r0, r3
    1aec:	03645000 	cmneq	r4, #0, 0
    1af0:	03880000 	orreq	r0, r8, #0, 0
    1af4:	00040000 	andeq	r0, r4, r0
    1af8:	9f5001f3 	svcls	0x005001f3
	...
    1b08:	00000328 	andeq	r0, r0, r8, lsr #6
    1b0c:	0000035c 	andeq	r0, r0, ip, asr r3
    1b10:	5c510001 	mrrcpl	0, 0, r0, r1, cr1
    1b14:	88000003 	stmdahi	r0, {r0, r1}
    1b18:	04000003 	streq	r0, [r0], #-3
    1b1c:	5101f300 	mrspl	pc, SP_irq	; <UNPREDICTABLE>
    1b20:	0000009f 	muleq	r0, pc, r0	; <UNPREDICTABLE>
	...
    1b44:	00001400 	andeq	r1, r0, r0, lsl #8
    1b48:	50000100 	andpl	r0, r0, r0, lsl #2
    1b4c:	00000014 	andeq	r0, r0, r4, lsl r0
    1b50:	00000020 	andeq	r0, r0, r0, lsr #32
    1b54:	205c0001 	subscs	r0, ip, r1
    1b58:	68000000 	stmdavs	r0, {}	; <UNPREDICTABLE>
    1b5c:	03000000 	movweq	r0, #0
    1b60:	9f027100 	svcls	0x00027100
    1b64:	00000068 	andeq	r0, r0, r8, rrx
    1b68:	0000006c 	andeq	r0, r0, ip, rrx
    1b6c:	02730003 	rsbseq	r0, r3, #3, 0
    1b70:	00006c9f 	muleq	r0, pc, ip	; <UNPREDICTABLE>
    1b74:	00019400 	andeq	r9, r1, r0, lsl #8
    1b78:	f3000400 	vshl.u8	d0, d0, d0
    1b7c:	949f5001 	ldrls	r5, [pc], #1	; 1b84 <__code_start__-0x647c>
    1b80:	98000001 	stmdals	r0, {r0}
    1b84:	03000001 	movweq	r0, #1
    1b88:	9f027300 	svcls	0x00027300
    1b8c:	00000198 	muleq	r0, r8, r1
    1b90:	000001c0 	andeq	r0, r0, r0, asr #3
    1b94:	01f30004 	mvnseq	r0, r4
    1b98:	01c09f50 	biceq	r9, r0, r0, asr pc
    1b9c:	01c80000 	biceq	r0, r8, r0
    1ba0:	00010000 	andeq	r0, r1, r0
    1ba4:	0001c85c 	andeq	ip, r1, ip, asr r8
    1ba8:	00021400 	andeq	r1, r2, r0, lsl #8
    1bac:	73000300 	movwvc	r0, #768	; 0x300
    1bb0:	02149f02 	andseq	r9, r4, #2, 30
    1bb4:	02ec0000 	rsceq	r0, ip, #0, 0
    1bb8:	00040000 	andeq	r0, r4, r0
    1bbc:	9f5001f3 	svcls	0x005001f3
    1bc0:	000002ec 	andeq	r0, r0, ip, ror #5
    1bc4:	000002f4 	strdeq	r0, [r0], -r4
    1bc8:	02730003 	rsbseq	r0, r3, #3, 0
    1bcc:	0002f49f 	muleq	r2, pc, r4	; <UNPREDICTABLE>
    1bd0:	00032800 	andeq	r2, r3, r0, lsl #16
    1bd4:	f3000400 	vshl.u8	d0, d0, d0
    1bd8:	009f5001 	addseq	r5, pc, r1
	...
    1bec:	1c000000 	stcne	0, cr0, [r0], {-0}
    1bf0:	01000000 	mrseq	r0, (UNDEF: 0)
    1bf4:	001c5100 	andseq	r5, ip, r0, lsl #2
    1bf8:	02e00000 	rsceq	r0, r0, #0, 0
    1bfc:	00010000 	andeq	r0, r1, r0
    1c00:	0002e050 	andeq	lr, r2, r0, asr r0
    1c04:	0002ec00 	andeq	lr, r2, r0, lsl #24
    1c08:	f3000400 	vshl.u8	d0, d0, d0
    1c0c:	ec9f5101 	ldfs	f5, [pc], {1}
    1c10:	28000002 	stmdacs	r0, {r1}
    1c14:	01000003 	tsteq	r0, r3
    1c18:	00005000 	andeq	r5, r0, r0
	...
    1c24:	01000000 	mrseq	r0, (UNDEF: 0)
    1c28:	00000000 	andeq	r0, r0, r0
    1c2c:	02000000 	andeq	r0, r0, #0, 0
    1c30:	00000002 	andeq	r0, r0, r2
	...
    1c44:	00700000 	rsbseq	r0, r0, r0
    1c48:	00010000 	andeq	r0, r1, r0
    1c4c:	00007052 	andeq	r7, r0, r2, asr r0
    1c50:	00007800 	andeq	r7, r0, r0, lsl #16
    1c54:	5c000100 	stfpls	f0, [r0], {-0}
    1c58:	00000078 	andeq	r0, r0, r8, ror r0
    1c5c:	000000a4 	andeq	r0, r0, r4, lsr #1
    1c60:	01f30004 	mvnseq	r0, r4
    1c64:	01949f52 	orrseq	r9, r4, r2, asr pc
    1c68:	019c0000 	orrseq	r0, ip, r0
    1c6c:	00010000 	andeq	r0, r1, r0
    1c70:	00019c52 	andeq	r9, r1, r2, asr ip
    1c74:	0001a400 	andeq	sl, r1, r0, lsl #8
    1c78:	5c000100 	stfpls	f0, [r0], {-0}
    1c7c:	000001a4 	andeq	r0, r0, r4, lsr #3
    1c80:	000001c0 	andeq	r0, r0, r0, asr #3
    1c84:	01f30004 	mvnseq	r0, r4
    1c88:	01c09f52 	biceq	r9, r0, r2, asr pc
    1c8c:	02200000 	eoreq	r0, r0, #0, 0
    1c90:	00010000 	andeq	r0, r1, r0
    1c94:	00022052 	andeq	r2, r2, r2, asr r0
    1c98:	00022800 	andeq	r2, r2, r0, lsl #16
    1c9c:	72000400 	andvc	r0, r0, #0, 8
    1ca0:	289f1f00 	ldmcs	pc, {r8, r9, sl, fp, ip}	; <UNPREDICTABLE>
    1ca4:	74000002 	strvc	r0, [r0], #-2
    1ca8:	05000002 	streq	r0, [r0, #-2]
    1cac:	5201f300 	andpl	pc, r1, #0, 6
    1cb0:	02749f1f 	rsbseq	r9, r4, #124	; 0x7c
    1cb4:	02880000 	addeq	r0, r8, #0, 0
    1cb8:	00010000 	andeq	r0, r1, r0
    1cbc:	00028852 	andeq	r8, r2, r2, asr r8
    1cc0:	0002a000 	andeq	sl, r2, r0
    1cc4:	5c000100 	stfpls	f0, [r0], {-0}
    1cc8:	000002cc 	andeq	r0, r0, ip, asr #5
    1ccc:	000002d0 	ldrdeq	r0, [r0], -r0	; <UNPREDICTABLE>
    1cd0:	d0520001 	subsle	r0, r2, r1
    1cd4:	e7000002 	str	r0, [r0, -r2]
    1cd8:	01000002 	tsteq	r0, r2
    1cdc:	02e75c00 	rsceq	r5, r7, #0, 24
    1ce0:	02ec0000 	rsceq	r0, ip, #0, 0
    1ce4:	00040000 	andeq	r0, r4, r0
    1ce8:	9f5201f3 	svcls	0x005201f3
    1cec:	000002ec 	andeq	r0, r0, ip, ror #5
    1cf0:	00000300 	andeq	r0, r0, r0, lsl #6
    1cf4:	00520001 	subseq	r0, r2, r1
    1cf8:	28000003 	stmdacs	r0, {r0, r1}
    1cfc:	01000003 	tsteq	r0, r3
    1d00:	00005c00 	andeq	r5, r0, r0, lsl #24
	...
    1d1c:	00000068 	andeq	r0, r0, r8, rrx
    1d20:	68530001 	ldmdavs	r3, {r0}^
    1d24:	6c000000 	stcvs	0, cr0, [r0], {-0}
    1d28:	03000000 	movweq	r0, #0
    1d2c:	9f7f0800 	svcls	0x007f0800
    1d30:	00000194 	muleq	r0, r4, r1
    1d34:	00000198 	muleq	r0, r8, r1
    1d38:	7f080003 	svcvc	0x00080003
    1d3c:	0001c09f 	muleq	r1, pc, r0	; <UNPREDICTABLE>
    1d40:	00021400 	andeq	r1, r2, r0, lsl #8
    1d44:	08000300 	stmdaeq	r0, {r8, r9}
    1d48:	02749f7f 	rsbseq	r9, r4, #508	; 0x1fc
    1d4c:	02900000 	addseq	r0, r0, #0, 0
    1d50:	00010000 	andeq	r0, r1, r0
    1d54:	00029053 	andeq	r9, r2, r3, asr r0
    1d58:	0002a000 	andeq	sl, r2, r0
    1d5c:	f3000400 	vshl.u8	d0, d0, d0
    1d60:	ec9f5301 	ldc	3, cr5, [pc], {1}
    1d64:	28000002 	stmdacs	r0, {r1}
    1d68:	03000003 	movweq	r0, #3
    1d6c:	9f7f0800 	svcls	0x007f0800
	...
    1d78:	00000001 	andeq	r0, r0, r1
    1d7c:	00020200 	andeq	r0, r2, r0, lsl #4
    1d80:	00010100 	andeq	r0, r1, r0, lsl #2
    1d84:	00000000 	andeq	r0, r0, r0
    1d88:	02000000 	andeq	r0, r0, #0, 0
    1d8c:	00000002 	andeq	r0, r0, r2
    1d90:	00000001 	andeq	r0, r0, r1
    1d94:	00000000 	andeq	r0, r0, r0
    1d98:	00010100 	andeq	r0, r1, r0, lsl #2
    1d9c:	02000000 	andeq	r0, r0, #0, 0
    1da0:	00000002 	andeq	r0, r0, r2
    1da4:	01000000 	mrseq	r0, (UNDEF: 0)
    1da8:	00000001 	andeq	r0, r0, r1
    1dac:	00000018 	andeq	r0, r0, r8, lsl r0
    1db0:	00000070 	andeq	r0, r0, r0, ror r0
    1db4:	a0910004 	addsge	r0, r1, r4
    1db8:	00709f7f 	rsbseq	r9, r0, pc, ror pc
    1dbc:	00780000 	rsbseq	r0, r8, r0
    1dc0:	00010000 	andeq	r0, r1, r0
    1dc4:	00007852 	andeq	r7, r0, r2, asr r8
    1dc8:	00007800 	andeq	r7, r0, r0, lsl #16
    1dcc:	54000100 	strpl	r0, [r0], #-256	; 0xffffff00
    1dd0:	00000078 	andeq	r0, r0, r8, ror r0
    1dd4:	00000088 	andeq	r0, r0, r8, lsl #1
    1dd8:	01740003 	cmneq	r4, r3
    1ddc:	0000889f 	muleq	r0, pc, r8	; <UNPREDICTABLE>
    1de0:	00009000 	andeq	r9, r0, r0
    1de4:	54000100 	strpl	r0, [r0], #-256	; 0xffffff00
    1de8:	00000090 	muleq	r0, r0, r0
    1dec:	000000a0 	andeq	r0, r0, r0, lsr #1
    1df0:	02740003 	rsbseq	r0, r4, #3, 0
    1df4:	0000a09f 	muleq	r0, pc, r0	; <UNPREDICTABLE>
    1df8:	0000b000 	andeq	fp, r0, r0
    1dfc:	5e000100 	adfpls	f0, f0, f0
    1e00:	00000194 	muleq	r0, r4, r1
    1e04:	0000019c 	muleq	r0, ip, r1
    1e08:	a0910004 	addsge	r0, r1, r4
    1e0c:	019c9f7f 	orrseq	r9, ip, pc, ror pc
    1e10:	01a40000 			; <UNDEFINED> instruction: 0x01a40000
    1e14:	00010000 	andeq	r0, r1, r0
    1e18:	0001a452 	andeq	sl, r1, r2, asr r4
    1e1c:	0001a400 	andeq	sl, r1, r0, lsl #8
    1e20:	5e000100 	adfpls	f0, f0, f0
    1e24:	000001a4 	andeq	r0, r0, r4, lsr #3
    1e28:	000001b4 			; <UNDEFINED> instruction: 0x000001b4
    1e2c:	017e0003 	cmneq	lr, r3
    1e30:	0001b49f 	muleq	r1, pc, r4	; <UNPREDICTABLE>
    1e34:	0001c000 	andeq	ip, r1, r0
    1e38:	5e000100 	adfpls	f0, f0, f0
    1e3c:	000001c0 	andeq	r0, r0, r0, asr #3
    1e40:	00000228 	andeq	r0, r0, r8, lsr #4
    1e44:	a0910004 	addsge	r0, r1, r4
    1e48:	02289f7f 	eoreq	r9, r8, #508	; 0x1fc
    1e4c:	02340000 	eorseq	r0, r4, #0, 0
    1e50:	00010000 	andeq	r0, r1, r0
    1e54:	00023452 	andeq	r3, r2, r2, asr r4
    1e58:	00025800 	andeq	r5, r2, r0, lsl #16
    1e5c:	5e000100 	adfpls	f0, f0, f0
    1e60:	00000258 	andeq	r0, r0, r8, asr r2
    1e64:	0000025c 	andeq	r0, r0, ip, asr r2
    1e68:	017e0003 	cmneq	lr, r3
    1e6c:	00025c9f 	muleq	r2, pc, ip	; <UNPREDICTABLE>
    1e70:	00026400 	andeq	r6, r2, r0, lsl #8
    1e74:	5e000100 	adfpls	f0, f0, f0
    1e78:	00000264 	andeq	r0, r0, r4, ror #4
    1e7c:	00000270 	andeq	r0, r0, r0, ror r2
    1e80:	02710003 	rsbseq	r0, r1, #3, 0
    1e84:	0002709f 	muleq	r2, pc, r0	; <UNPREDICTABLE>
    1e88:	00027400 	andeq	r7, r2, r0, lsl #8
    1e8c:	5e000100 	adfpls	f0, f0, f0
    1e90:	00000274 	andeq	r0, r0, r4, ror r2
    1e94:	00000274 	andeq	r0, r0, r4, ror r2
    1e98:	a0910004 	addsge	r0, r1, r4
    1e9c:	02749f7f 	rsbseq	r9, r4, #508	; 0x1fc
    1ea0:	02a00000 	adceq	r0, r0, #0, 0
    1ea4:	00040000 	andeq	r0, r4, r0
    1ea8:	9f7fa191 	svcls	0x007fa191
    1eac:	000002c0 	andeq	r0, r0, r0, asr #5
    1eb0:	000002c8 	andeq	r0, r0, r8, asr #5
    1eb4:	c85e0001 	ldmdagt	lr, {r0}^
    1eb8:	cc000002 	stcgt	0, cr0, [r0], {2}
    1ebc:	01000002 	tsteq	r0, r2
    1ec0:	02cc5600 	sbceq	r5, ip, #0, 12
    1ec4:	02ec0000 	rsceq	r0, ip, #0, 0
    1ec8:	00040000 	andeq	r0, r4, r0
    1ecc:	9f7fa091 	svcls	0x007fa091
    1ed0:	000002ec 	andeq	r0, r0, ip, ror #5
    1ed4:	000002fc 	strdeq	r0, [r0], -ip
    1ed8:	a1910004 	orrsge	r0, r1, r4
    1edc:	02fc9f7f 	rscseq	r9, ip, #508	; 0x1fc
    1ee0:	03280000 			; <UNDEFINED> instruction: 0x03280000
    1ee4:	00010000 	andeq	r0, r1, r0
    1ee8:	0000005e 	andeq	r0, r0, lr, asr r0
	...
    1f00:	00000101 	andeq	r0, r0, r1, lsl #2
	...
    1f10:	20000000 	andcs	r0, r0, r0
    1f14:	70000000 	andvc	r0, r0, r0
    1f18:	01000000 	mrseq	r0, (UNDEF: 0)
    1f1c:	00705200 	rsbseq	r5, r0, r0, lsl #4
    1f20:	00940000 	addseq	r0, r4, r0
    1f24:	00010000 	andeq	r0, r1, r0
    1f28:	0001945c 	andeq	r9, r1, ip, asr r4
    1f2c:	00019c00 	andeq	r9, r1, r0, lsl #24
    1f30:	52000100 	andpl	r0, r0, #0
    1f34:	0000019c 	muleq	r0, ip, r1
    1f38:	000001c0 	andeq	r0, r0, r0, asr #3
    1f3c:	c85c0001 	ldmdagt	ip, {r0}^
    1f40:	10000001 	andne	r0, r0, r1
    1f44:	01000002 	tsteq	r0, r2
    1f48:	02105c00 	andseq	r5, r0, #0, 24
    1f4c:	02240000 	eoreq	r0, r4, #0, 0
    1f50:	00010000 	andeq	r0, r1, r0
    1f54:	00022452 	andeq	r2, r2, r2, asr r4
    1f58:	00024800 	andeq	r4, r2, r0, lsl #16
    1f5c:	5c000100 	stfpls	f0, [r0], {-0}
    1f60:	00000248 	andeq	r0, r0, r8, asr #4
    1f64:	0000025c 	andeq	r0, r0, ip, asr r2
    1f68:	5c550001 	mrrcpl	0, 0, r0, r5, cr1
    1f6c:	68000002 	stmdavs	r0, {r1}
    1f70:	01000002 	tsteq	r0, r2
    1f74:	02685c00 	rsbeq	r5, r8, #0, 24
    1f78:	02740000 	rsbseq	r0, r4, #0, 0
    1f7c:	00190000 	andseq	r0, r9, r0
    1f80:	2cf70075 	ldclcs	0, cr0, [r7], #468	; 0x1d4
    1f84:	007625f7 	ldrshteq	r2, [r6], #-87	; 0xffffffa9
    1f88:	25f72cf7 	ldrbcs	r2, [r7, #3319]!	; 0xcf7
    1f8c:	f720081e 			; <UNDEFINED> instruction: 0xf720081e
    1f90:	2cf72525 	cfldr64cs	mvdx2, [r7], #148	; 0x94
    1f94:	253300f7 	ldrcs	r0, [r3, #-247]!	; 0xffffff09
    1f98:	0002749f 	muleq	r2, pc, r4	; <UNPREDICTABLE>
    1f9c:	00028800 	andeq	r8, r2, r0, lsl #16
    1fa0:	52000100 	andpl	r0, r0, #0
    1fa4:	00000288 	andeq	r0, r0, r8, lsl #5
    1fa8:	000002a0 	andeq	r0, r0, r0, lsr #5
    1fac:	cc5c0001 	mrrcgt	0, 0, r0, ip, cr1
    1fb0:	d0000002 	andle	r0, r0, r2
    1fb4:	01000002 	tsteq	r0, r2
    1fb8:	02d05200 	sbcseq	r5, r0, #0, 4
    1fbc:	02e70000 	rsceq	r0, r7, #0, 0
    1fc0:	00010000 	andeq	r0, r1, r0
    1fc4:	0002e75c 	andeq	lr, r2, ip, asr r7
    1fc8:	0002ec00 	andeq	lr, r2, r0, lsl #24
    1fcc:	f3000400 	vshl.u8	d0, d0, d0
    1fd0:	ec9f5201 	lfm	f5, 4, [pc], {1}
    1fd4:	00000002 	andeq	r0, r0, r2
    1fd8:	01000003 	tsteq	r0, r3
    1fdc:	03005200 	movweq	r5, #512	; 0x200
    1fe0:	03280000 			; <UNDEFINED> instruction: 0x03280000
    1fe4:	00010000 	andeq	r0, r1, r0
    1fe8:	0000005c 	andeq	r0, r0, ip, asr r0
    1fec:	00000000 	andeq	r0, r0, r0
    1ff0:	04000400 	streq	r0, [r0], #-1024	; 0xfffffc00
    1ff4:	00010000 	andeq	r0, r1, r0
    1ff8:	a4000400 	strge	r0, [r0], #-1024	; 0xfffffc00
    1ffc:	b0000000 	andlt	r0, r0, r0
    2000:	01000000 	mrseq	r0, (UNDEF: 0)
    2004:	027c5300 	rsbseq	r5, ip, #0, 6
    2008:	02900000 	addseq	r0, r0, #0, 0
    200c:	00010000 	andeq	r0, r1, r0
    2010:	00029053 	andeq	r9, r2, r3, asr r0
    2014:	00029c00 	andeq	r9, r2, r0, lsl #24
    2018:	f3000400 	vshl.u8	d0, d0, d0
    201c:	c09f5301 	addsgt	r5, pc, r1, lsl #6
    2020:	cc000002 	stcgt	0, cr0, [r0], {2}
    2024:	01000002 	tsteq	r0, r2
    2028:	02f05300 	rscseq	r5, r0, #0, 6
    202c:	03280000 			; <UNDEFINED> instruction: 0x03280000
    2030:	00030000 	andeq	r0, r3, r0
    2034:	009f7f08 	addseq	r7, pc, r8, lsl #30
    2038:	00000000 	andeq	r0, r0, r0
    203c:	04000000 	streq	r0, [r0], #-0
    2040:	04010000 	streq	r0, [r1], #-0
    2044:	00010000 	andeq	r0, r1, r0
    2048:	04000000 	streq	r0, [r0], #-0
    204c:	a4000000 	strge	r0, [r0], #-0
    2050:	b0000000 	andlt	r0, r0, r0
    2054:	01000000 	mrseq	r0, (UNDEF: 0)
    2058:	00b05200 	adcseq	r5, r0, r0, lsl #4
    205c:	015c0000 	cmpeq	ip, r0
    2060:	00040000 	andeq	r0, r4, r0
    2064:	9f7fa091 	svcls	0x007fa091
    2068:	0000027c 	andeq	r0, r0, ip, ror r2
    206c:	00000294 	muleq	r0, r4, r2
    2070:	a0910004 	addsge	r0, r1, r4
    2074:	02949f7f 	addseq	r9, r4, #508	; 0x1fc
    2078:	029c0000 	addseq	r0, ip, #0, 0
    207c:	00010000 	andeq	r0, r1, r0
    2080:	0002b45e 	andeq	fp, r2, lr, asr r4
    2084:	0002c000 	andeq	ip, r2, r0
    2088:	91000400 	tstls	r0, r0, lsl #8
    208c:	c09f7fa0 	addsgt	r7, pc, r0, lsr #31
    2090:	cc000002 	stcgt	0, cr0, [r0], {2}
    2094:	01000002 	tsteq	r0, r2
    2098:	02f05200 	rscseq	r5, r0, #0, 4
    209c:	03000000 	movweq	r0, #0
    20a0:	00040000 	andeq	r0, r4, r0
    20a4:	9f7fa091 	svcls	0x007fa091
    20a8:	00000300 	andeq	r0, r0, r0, lsl #6
    20ac:	00000328 	andeq	r0, r0, r8, lsr #6
    20b0:	00520001 	subseq	r0, r2, r1
    20b4:	00000000 	andeq	r0, r0, r0
    20b8:	04000000 	streq	r0, [r0], #-0
    20bc:	01010000 	mrseq	r0, (UNDEF: 1)
    20c0:	03030101 	movweq	r0, #12545	; 0x3101
    20c4:	00010402 	andeq	r0, r1, r2, lsl #8
    20c8:	04000000 	streq	r0, [r0], #-0
    20cc:	a4000000 	strge	r0, [r0], #-0
    20d0:	b0000000 	andlt	r0, r0, r0
    20d4:	01000000 	mrseq	r0, (UNDEF: 0)
    20d8:	010c5e00 	tsteq	ip, r0, lsl #28
    20dc:	010c0000 	mrseq	r0, (UNDEF: 12)
    20e0:	00010000 	andeq	r0, r1, r0
    20e4:	00010c55 	andeq	r0, r1, r5, asr ip
    20e8:	00012000 	andeq	r2, r1, r0
    20ec:	75000300 	strvc	r0, [r0, #-768]	; 0xfffffd00
    20f0:	01209f01 			; <UNDEFINED> instruction: 0x01209f01
    20f4:	012c0000 			; <UNDEFINED> instruction: 0x012c0000
    20f8:	00030000 	andeq	r0, r3, r0
    20fc:	2c9f0275 	lfmcs	f0, 4, [pc], {117}	; 0x75
    2100:	30000001 	andcc	r0, r0, r1
    2104:	03000001 	movweq	r0, #1
    2108:	9f037500 	svcls	0x00037500
    210c:	0000027c 	andeq	r0, r0, ip, ror r2
    2110:	0000029c 	muleq	r0, ip, r2
    2114:	a1910004 	orrsge	r0, r1, r4
    2118:	02c09f7f 	sbceq	r9, r0, #508	; 0x1fc
    211c:	02c80000 	sbceq	r0, r8, #0, 0
    2120:	00010000 	andeq	r0, r1, r0
    2124:	0002c85e 	andeq	ip, r2, lr, asr r8
    2128:	0002cc00 	andeq	ip, r2, r0, lsl #24
    212c:	56000100 	strpl	r0, [r0], -r0, lsl #2
    2130:	000002f0 	strdeq	r0, [r0], -r0	; <UNPREDICTABLE>
    2134:	000002fc 	strdeq	r0, [r0], -ip
    2138:	a1910004 	orrsge	r0, r1, r4
    213c:	02fc9f7f 	rscseq	r9, ip, #508	; 0x1fc
    2140:	03280000 			; <UNDEFINED> instruction: 0x03280000
    2144:	00010000 	andeq	r0, r1, r0
    2148:	0000005e 	andeq	r0, r0, lr, asr r0
	...
    2154:	01010101 	tsteq	r1, r1, lsl #2
    2158:	06020101 	streq	r0, [r2], -r1, lsl #2
    215c:	06000001 	streq	r0, [r0], -r1
    2160:	0000a800 	andeq	sl, r0, r0, lsl #16
    2164:	0000b000 	andeq	fp, r0, r0
    2168:	51000100 	mrspl	r0, (UNDEF: 16)
    216c:	0000010c 	andeq	r0, r0, ip, lsl #2
    2170:	0000011c 	andeq	r0, r0, ip, lsl r1
    2174:	1c5c0001 	mrrcne	0, 0, r0, ip, cr1
    2178:	2c000001 	stccs	0, cr0, [r0], {1}
    217c:	01000001 	tsteq	r0, r1
    2180:	012c5800 			; <UNDEFINED> instruction: 0x012c5800
    2184:	01300000 	teqeq	r0, r0
    2188:	00010000 	andeq	r0, r1, r0
    218c:	0001305c 	andeq	r3, r1, ip, asr r0
    2190:	00013000 	andeq	r3, r1, r0
    2194:	7c000300 	stcvc	3, cr0, [r0], {-0}
    2198:	027c9f01 	rsbseq	r9, ip, #1, 30
    219c:	029c0000 	addseq	r0, ip, #0, 0
    21a0:	00020000 	andeq	r0, r2, r0
    21a4:	02c09f31 	sbceq	r9, r0, #196	; 0xc4
    21a8:	02cc0000 	sbceq	r0, ip, #0, 0
    21ac:	00010000 	andeq	r0, r1, r0
    21b0:	0002f051 	andeq	pc, r2, r1, asr r0	; <UNPREDICTABLE>
    21b4:	00032800 	andeq	r2, r3, r0, lsl #16
    21b8:	31000200 	mrscc	r0, R8_usr
    21bc:	0000009f 	muleq	r0, pc, r0	; <UNPREDICTABLE>
    21c0:	00000000 	andeq	r0, r0, r0
    21c4:	06060100 	streq	r0, [r6], -r0, lsl #2
    21c8:	00000101 	andeq	r0, r0, r1, lsl #2
    21cc:	00015c01 	andeq	r5, r1, r1, lsl #24
    21d0:	00015c00 	andeq	r5, r1, r0, lsl #24
    21d4:	91000400 	tstls	r0, r0, lsl #8
    21d8:	5c9f7fa0 	ldcpl	15, cr7, [pc], {160}	; 0xa0
    21dc:	8c000001 	stchi	0, cr0, [r0], {1}
    21e0:	01000001 	tsteq	r0, r1
    21e4:	029c5200 	addseq	r5, ip, #0, 4
    21e8:	02a00000 	adceq	r0, r0, #0, 0
    21ec:	00010000 	andeq	r0, r1, r0
    21f0:	0002a05e 	andeq	sl, r2, lr, asr r0
    21f4:	0002ac00 	andeq	sl, r2, r0, lsl #24
    21f8:	52000100 	andpl	r0, r0, #0
	...
    2204:	01000000 	mrseq	r0, (UNDEF: 0)
    2208:	07010001 	streq	r0, [r1, -r1]
    220c:	0000016c 	andeq	r0, r0, ip, ror #2
    2210:	00000170 	andeq	r0, r0, r0, ror r1
    2214:	7f730003 	svcvc	0x00730003
    2218:	0001709f 	muleq	r1, pc, r0	; <UNPREDICTABLE>
    221c:	00017800 	andeq	r7, r1, r0, lsl #16
    2220:	53000100 	movwpl	r0, #256	; 0x100
    2224:	00000178 	andeq	r0, r0, r8, ror r1
    2228:	00000184 	andeq	r0, r0, r4, lsl #3
    222c:	7f730003 	svcvc	0x00730003
    2230:	00029c9f 	muleq	r2, pc, ip	; <UNPREDICTABLE>
    2234:	00029c00 	andeq	r9, r2, r0, lsl #24
    2238:	91000400 	tstls	r0, r0, lsl #8
    223c:	009f7fa1 	addseq	r7, pc, r1, lsr #31
    2240:	00000000 	andeq	r0, r0, r0
    2244:	01000000 	mrseq	r0, (UNDEF: 0)
    2248:	5c010101 	stfpls	f0, [r1], {1}
    224c:	8c000001 	stchi	0, cr0, [r0], {1}
    2250:	03000001 	movweq	r0, #1
    2254:	9f800800 	svcls	0x00800800
    2258:	0000029c 	muleq	r0, ip, r2
    225c:	000002ac 	andeq	r0, r0, ip, lsr #5
    2260:	80080003 	andhi	r0, r8, r3
    2264:	0000009f 	muleq	r0, pc, r0	; <UNPREDICTABLE>
    2268:	00000000 	andeq	r0, r0, r0
    226c:	00000100 	andeq	r0, r0, r0, lsl #2
    2270:	00000101 	andeq	r0, r0, r1, lsl #2
    2274:	01010101 	tsteq	r1, r1, lsl #2
    2278:	5c010101 	stfpls	f0, [r1], {1}
    227c:	6c000001 	stcvs	0, cr0, [r0], {1}
    2280:	01000001 	tsteq	r0, r1
    2284:	016c5000 	cmneq	ip, r0
    2288:	016c0000 	cmneq	ip, r0
    228c:	00030000 	andeq	r0, r3, r0
    2290:	6c9f017c 	ldfvss	f0, [pc], {124}	; 0x7c
    2294:	78000001 	stmdavc	r0, {r0}
    2298:	03000001 	movweq	r0, #1
    229c:	9f027c00 	svcls	0x00027c00
    22a0:	00000178 	andeq	r0, r0, r8, ror r1
    22a4:	00000188 	andeq	r0, r0, r8, lsl #3
    22a8:	017c0003 	cmneq	ip, r3
    22ac:	0001889f 	muleq	r1, pc, r8	; <UNPREDICTABLE>
    22b0:	00018c00 	andeq	r8, r1, r0, lsl #24
    22b4:	7e000300 	cdpvc	3, 0, cr0, cr0, cr0, {0}
    22b8:	029c9f01 	addseq	r9, ip, #1, 30
    22bc:	02a40000 	adceq	r0, r4, #0, 0
    22c0:	00010000 	andeq	r0, r1, r0
    22c4:	0002a450 	andeq	sl, r2, r0, asr r4
    22c8:	0002ac00 	andeq	sl, r2, r0, lsl #24
    22cc:	7e000300 	cdpvc	3, 0, cr0, cr0, cr0, {0}
    22d0:	00009f01 	andeq	r9, r0, r1, lsl #30
    22d4:	00000000 	andeq	r0, r0, r0
    22d8:	00040000 	andeq	r0, r4, r0
    22dc:	01000004 	tsteq	r0, r4
    22e0:	0000015c 	andeq	r0, r0, ip, asr r1
    22e4:	00000160 	andeq	r0, r0, r0, ror #2
    22e8:	01710003 	cmneq	r1, r3
    22ec:	00029c9f 	muleq	r2, pc, ip	; <UNPREDICTABLE>
    22f0:	0002a000 	andeq	sl, r2, r0
    22f4:	32000200 	andcc	r0, r0, #0, 4
    22f8:	0002a09f 	muleq	r2, pc, r0	; <UNPREDICTABLE>
    22fc:	0002ac00 	andeq	sl, r2, r0, lsl #24
    2300:	71000300 	mrsvc	r0, LR_irq
    2304:	00009f01 	andeq	r9, r0, r1, lsl #30
    2308:	00000000 	andeq	r0, r0, r0
    230c:	00070000 	andeq	r0, r7, r0
    2310:	015c0006 	cmpeq	ip, r6
    2314:	01940000 	orrseq	r0, r4, r0
    2318:	00010000 	andeq	r0, r1, r0
    231c:	00029c50 	andeq	r9, r2, r0, asr ip
    2320:	0002b400 	andeq	fp, r2, r0, lsl #8
    2324:	50000100 	andpl	r0, r0, r0, lsl #2
	...
    2330:	00010101 	andeq	r0, r1, r1, lsl #2
    2334:	00000214 	andeq	r0, r0, r4, lsl r2
    2338:	00000220 	andeq	r0, r0, r0, lsr #4
    233c:	9f300002 	svcls	0x00300002
    2340:	00000220 	andeq	r0, r0, r0, lsr #4
    2344:	00000234 	andeq	r0, r0, r4, lsr r2
    2348:	9f310002 	svcls	0x00310002
	...
    2354:	00010100 	andeq	r0, r1, r0, lsl #2
    2358:	00010100 	andeq	r0, r1, r0, lsl #2
    235c:	00010100 	andeq	r0, r1, r0, lsl #2
    2360:	00010100 	andeq	r0, r1, r0, lsl #2
    2364:	00010100 	andeq	r0, r1, r0, lsl #2
    2368:	01020200 	mrseq	r0, R10_usr
    236c:	00000080 	andeq	r0, r0, r0, lsl #1
    2370:	00000080 	andeq	r0, r0, r0, lsl #1
    2374:	80530001 	subshi	r0, r3, r1
    2378:	8c000000 	stchi	0, cr0, [r0], {-0}
    237c:	03000000 	movweq	r0, #0
    2380:	9f047300 	svcls	0x00047300
    2384:	0000008c 	andeq	r0, r0, ip, lsl #1
    2388:	00000094 	muleq	r0, r4, r0
    238c:	94510001 	ldrbls	r0, [r1], #-1
    2390:	98000000 	stmdals	r0, {}	; <UNPREDICTABLE>
    2394:	03000000 	movweq	r0, #0
    2398:	9f087300 	svcls	0x00087300
    239c:	00000098 	muleq	r0, r8, r0
    23a0:	000000a4 	andeq	r0, r0, r4, lsr #1
    23a4:	a4510001 	ldrbge	r0, [r1], #-1
    23a8:	a8000000 	stmdage	r0, {}	; <UNPREDICTABLE>
    23ac:	03000000 	movweq	r0, #0
    23b0:	9f0c7300 	svcls	0x000c7300
    23b4:	000000a8 	andeq	r0, r0, r8, lsr #1
    23b8:	000000b4 	strheq	r0, [r0], -r4
    23bc:	b4510001 	ldrblt	r0, [r1], #-1
    23c0:	b8000000 	stmdalt	r0, {}	; <UNPREDICTABLE>
    23c4:	03000000 	movweq	r0, #0
    23c8:	9f107300 	svcls	0x00107300
    23cc:	000000b8 	strheq	r0, [r0], -r8
    23d0:	000000c4 	andeq	r0, r0, r4, asr #1
    23d4:	c4510001 	ldrbgt	r0, [r1], #-1
    23d8:	c8000000 	stmdagt	r0, {}	; <UNPREDICTABLE>
    23dc:	03000000 	movweq	r0, #0
    23e0:	9f147300 	svcls	0x00147300
    23e4:	000000c8 	andeq	r0, r0, r8, asr #1
    23e8:	000000d0 	ldrdeq	r0, [r0], -r0	; <UNPREDICTABLE>
    23ec:	d0510001 	subsle	r0, r1, r1
    23f0:	d4000000 	strle	r0, [r0], #-0
    23f4:	03000000 	movweq	r0, #0
    23f8:	9f047100 	svcls	0x00047100
	...
    2404:	00d80002 	sbcseq	r0, r8, r2
    2408:	00e80000 	rsceq	r0, r8, r0
    240c:	00020000 	andeq	r0, r2, r0
    2410:	00009f31 	andeq	r9, r0, r1, lsr pc
    2414:	00000000 	andeq	r0, r0, r0
    2418:	00040000 	andeq	r0, r4, r0
    241c:	9bb00100 	blls	fec02824 <__bss_end__+0xfebf758c>
    2420:	9bb80000 	blls	fee02428 <__bss_end__+0xfedf7190>
    2424:	00020000 	andeq	r0, r2, r0
    2428:	9bb89f30 	blls	fee2a0f0 <__bss_end__+0xfee1ee58>
    242c:	9bb80000 	blls	fee02434 <__bss_end__+0xfedf719c>
    2430:	00010000 	andeq	r0, r1, r0
    2434:	00000053 	andeq	r0, r0, r3, asr r0
    2438:	00000000 	andeq	r0, r0, r0
    243c:	00000300 	andeq	r0, r0, r0, lsl #6
    2440:	00000000 	andeq	r0, r0, r0
    2444:	009bc400 	addseq	ip, fp, r0, lsl #8
    2448:	009bc800 	addseq	ip, fp, r0, lsl #16
    244c:	30000200 	andcc	r0, r0, r0, lsl #4
    2450:	009bc89f 	umullseq	ip, fp, pc, r8	; <UNPREDICTABLE>
    2454:	009bcc00 	addseq	ip, fp, r0, lsl #24
    2458:	53000100 	movwpl	r0, #256	; 0x100
    245c:	00009bcc 	andeq	r9, r0, ip, asr #23
    2460:	00009bd0 	ldrdeq	r9, [r0], -r0
    2464:	00730005 	rsbseq	r0, r3, r5
    2468:	d09f2140 	addsle	r2, pc, r0, asr #2
    246c:	d400009b 	strle	r0, [r0], #-155	; 0xffffff65
    2470:	0100009b 	swpeq	r0, fp, [r0]	; <UNPREDICTABLE>
    2474:	00005300 	andeq	r5, r0, r0, lsl #6
    2478:	00000000 	andeq	r0, r0, r0
    247c:	00020000 	andeq	r0, r2, r0
    2480:	9b840000 	blls	fe102488 <__bss_end__+0xfe0f71f0>
    2484:	9b880000 	blls	fe20248c <__bss_end__+0xfe1f71f4>
    2488:	00020000 	andeq	r0, r2, r0
    248c:	9b889f30 	blls	fe22a154 <__bss_end__+0xfe21eebc>
    2490:	9b8c0000 	blls	fe302498 <__bss_end__+0xfe2f7200>
    2494:	00010000 	andeq	r0, r1, r0
    2498:	00000050 	andeq	r0, r0, r0, asr r0
    249c:	00000000 	andeq	r0, r0, r0
    24a0:	00000200 	andeq	r0, r0, r0, lsl #4
    24a4:	00000000 	andeq	r0, r0, r0
    24a8:	009b9c00 	addseq	r9, fp, r0, lsl #24
    24ac:	009ba000 	addseq	sl, fp, r0
    24b0:	30000200 	andcc	r0, r0, r0, lsl #4
    24b4:	009ba09f 	umullseq	sl, fp, pc, r0	; <UNPREDICTABLE>
    24b8:	009ba400 	addseq	sl, fp, r0, lsl #8
    24bc:	53000100 	movwpl	r0, #256	; 0x100
    24c0:	00009ba4 	andeq	r9, r0, r4, lsr #23
    24c4:	00009ba8 	andeq	r9, r0, r8, lsr #23
    24c8:	00730005 	rsbseq	r0, r3, r5
    24cc:	a89f2140 	ldmge	pc, {r6, r8, sp}	; <UNPREDICTABLE>
    24d0:	b000009b 	mullt	r0, fp, r0
    24d4:	0100009b 	swpeq	r0, fp, [r0]	; <UNPREDICTABLE>
    24d8:	00005300 	andeq	r5, r0, r0, lsl #6
	...
    24e4:	00c80000 	sbceq	r0, r8, r0
    24e8:	00d80000 	sbcseq	r0, r8, r0
    24ec:	00010000 	andeq	r0, r1, r0
    24f0:	0000d850 	andeq	sp, r0, r0, asr r8
    24f4:	00011c00 	andeq	r1, r1, r0, lsl #24
    24f8:	f3000400 	vshl.u8	d0, d0, d0
    24fc:	009f5001 	addseq	r5, pc, r1
    2500:	00000000 	andeq	r0, r0, r0
    2504:	02000000 	andeq	r0, r0, #0, 0
    2508:	c8000000 	stmdagt	r0, {}	; <UNPREDICTABLE>
    250c:	d8000000 	stmdale	r0, {}	; <UNPREDICTABLE>
    2510:	07000000 	streq	r0, [r0, -r0]
    2514:	0a007000 	beq	1e51c <__bss_end__+0x13284>
    2518:	9f1e03e8 	svcls	0x001e03e8
    251c:	000000d8 	ldrdeq	r0, [r0], -r8
    2520:	0000011c 	andeq	r0, r0, ip, lsl r1
    2524:	01f30008 	mvnseq	r0, r8
    2528:	03e80a50 	mvneq	r0, #80, 20	; 0x50000
    252c:	00009f1e 	andeq	r9, r0, lr, lsl pc
	...
    2538:	000000dc 	ldrdeq	r0, [r0], -ip
    253c:	0000011c 	andeq	r0, r0, ip, lsl r1
    2540:	00540001 	subseq	r0, r4, r1
    2544:	00000000 	andeq	r0, r0, r0
    2548:	01000000 	mrseq	r0, (UNDEF: 0)
    254c:	0000f000 	andeq	pc, r0, r0
    2550:	00011c00 	andeq	r1, r1, r0, lsl #24
    2554:	56000100 	strpl	r0, [r0], -r0, lsl #2
	...
    2564:	000000ec 	andeq	r0, r0, ip, ror #1
    2568:	000000ef 	andeq	r0, r0, pc, ror #1
    256c:	ef500001 	svc	0x00500001
    2570:	1c000000 	stcne	0, cr0, [r0], {-0}
    2574:	01000001 	tsteq	r0, r1
    2578:	00005600 	andeq	r5, r0, r0, lsl #12
	...
    2584:	00000104 	andeq	r0, r0, r4, lsl #2
    2588:	0000010b 	andeq	r0, r0, fp, lsl #2
    258c:	00500001 	subseq	r0, r0, r1
	...
    2598:	20000000 	andcs	r0, r0, r0
    259c:	23000000 	movwcs	r0, #0
    25a0:	01000000 	mrseq	r0, (UNDEF: 0)
    25a4:	00235000 	eoreq	r5, r3, r0
    25a8:	00300000 	eorseq	r0, r0, r0
    25ac:	00010000 	andeq	r0, r1, r0
    25b0:	00000054 	andeq	r0, r0, r4, asr r0
	...
    25bc:	00003000 	andeq	r3, r0, r0
    25c0:	00003b00 	andeq	r3, r0, r0, lsl #22
    25c4:	50000100 	andpl	r0, r0, r0, lsl #2
    25c8:	0000003b 	andeq	r0, r0, fp, lsr r0
    25cc:	00000078 	andeq	r0, r0, r8, ror r0
    25d0:	00560001 	subseq	r0, r6, r1
    25d4:	00000000 	andeq	r0, r0, r0
    25d8:	01000000 	mrseq	r0, (UNDEF: 0)
    25dc:	00004c00 	andeq	r4, r0, r0, lsl #24
    25e0:	00007800 	andeq	r7, r0, r0, lsl #16
    25e4:	55000100 	strpl	r0, [r0, #-256]	; 0xffffff00
	...
    25f4:	00000048 	andeq	r0, r0, r8, asr #32
    25f8:	0000004b 	andeq	r0, r0, fp, asr #32
    25fc:	4b500001 	blmi	1402608 <__bss_end__+0x13f7370>
    2600:	78000000 	stmdavc	r0, {}	; <UNPREDICTABLE>
    2604:	01000000 	mrseq	r0, (UNDEF: 0)
    2608:	00005500 	andeq	r5, r0, r0, lsl #10
	...
    2614:	00000060 	andeq	r0, r0, r0, rrx
    2618:	00000067 	andeq	r0, r0, r7, rrx
    261c:	00500001 	subseq	r0, r0, r1
	...
    2628:	78000000 	stmdavc	r0, {}	; <UNPREDICTABLE>
    262c:	84000000 	strhi	r0, [r0], #-0
    2630:	01000000 	mrseq	r0, (UNDEF: 0)
    2634:	00845000 	addeq	r5, r4, r0
    2638:	00c80000 	sbceq	r0, r8, r0
    263c:	00040000 	andeq	r0, r4, r0
    2640:	9f5001f3 	svcls	0x005001f3
	...
    264c:	00880000 	addeq	r0, r8, r0
    2650:	00c80000 	sbceq	r0, r8, r0
    2654:	00010000 	andeq	r0, r1, r0
    2658:	00000054 	andeq	r0, r0, r4, asr r0
    265c:	00000000 	andeq	r0, r0, r0
    2660:	9c000100 	stflss	f0, [r0], {-0}
    2664:	c8000000 	stmdagt	r0, {}	; <UNPREDICTABLE>
    2668:	01000000 	mrseq	r0, (UNDEF: 0)
    266c:	00005600 	andeq	r5, r0, r0, lsl #12
	...
    2678:	00980000 	addseq	r0, r8, r0
    267c:	009b0000 	addseq	r0, fp, r0
    2680:	00010000 	andeq	r0, r1, r0
    2684:	00009b50 	andeq	r9, r0, r0, asr fp
    2688:	0000c800 	andeq	ip, r0, r0, lsl #16
    268c:	56000100 	strpl	r0, [r0], -r0, lsl #2
	...
    2698:	00b00000 	adcseq	r0, r0, r0
    269c:	00b70000 	adcseq	r0, r7, r0
    26a0:	00010000 	andeq	r0, r1, r0
    26a4:	00000050 	andeq	r0, r0, r0, asr r0
	...
    26b0:	00015800 	andeq	r5, r1, r0, lsl #16
    26b4:	00016300 	andeq	r6, r1, r0, lsl #6
    26b8:	50000100 	andpl	r0, r0, r0, lsl #2
    26bc:	00000163 	andeq	r0, r0, r3, ror #2
    26c0:	00000188 	andeq	r0, r0, r8, lsl #3
    26c4:	00540001 	subseq	r0, r4, r1
	...
    26d0:	00014800 	andeq	r4, r1, r0, lsl #16
    26d4:	00015800 	andeq	r5, r1, r0, lsl #16
    26d8:	54000100 	strpl	r0, [r0], #-256	; 0xffffff00
	...
    26ec:	0000000f 	andeq	r0, r0, pc
    26f0:	0f500001 	svceq	0x00500001
    26f4:	20000000 	andcs	r0, r0, r0
    26f8:	01000000 	mrseq	r0, (UNDEF: 0)
    26fc:	00005400 	andeq	r5, r0, r0, lsl #8
	...
    270c:	000f0000 	andeq	r0, pc, r0
    2710:	00010000 	andeq	r0, r1, r0
    2714:	00000f51 	andeq	r0, r0, r1, asr pc
    2718:	00002000 	andeq	r2, r0, r0
    271c:	55000100 	strpl	r0, [r0, #-256]	; 0xffffff00
	...
    272c:	00000020 	andeq	r0, r0, r0, lsr #32
    2730:	0000002f 	andeq	r0, r0, pc, lsr #32
    2734:	2f500001 	svccs	0x00500001
    2738:	40000000 	andmi	r0, r0, r0
    273c:	01000000 	mrseq	r0, (UNDEF: 0)
    2740:	00005400 	andeq	r5, r0, r0, lsl #8
	...
    274c:	00200000 	eoreq	r0, r0, r0
    2750:	002f0000 	eoreq	r0, pc, r0
    2754:	00010000 	andeq	r0, r1, r0
    2758:	00002f51 	andeq	r2, r0, r1, asr pc
    275c:	00004000 	andeq	r4, r0, r0
    2760:	55000100 	strpl	r0, [r0, #-256]	; 0xffffff00
	...
    2770:	03500000 	cmpeq	r0, #0, 0
    2774:	03980000 	orrseq	r0, r8, #0, 0
    2778:	00010000 	andeq	r0, r1, r0
    277c:	00039850 	andeq	r9, r3, r0, asr r8
    2780:	00039b00 	andeq	r9, r3, r0, lsl #22
    2784:	91000200 	mrsls	r0, R8_usr
    2788:	00039b68 	andeq	r9, r3, r8, ror #22
    278c:	0003b000 	andeq	fp, r3, r0
    2790:	f3000400 	vshl.u8	d0, d0, d0
    2794:	009f5001 	addseq	r5, pc, r1
	...
    27b0:	20000000 	andcs	r0, r0, r0
    27b4:	7b000002 	blvc	27c4 <__code_start__-0x583c>
    27b8:	01000002 	tsteq	r0, r2
    27bc:	027b5000 	rsbseq	r5, fp, #0, 0
    27c0:	02840000 	addeq	r0, r4, #0, 0
    27c4:	00040000 	andeq	r0, r4, r0
    27c8:	9f5001f3 	svcls	0x005001f3
    27cc:	00000284 	andeq	r0, r0, r4, lsl #5
    27d0:	0000029c 	muleq	r0, ip, r2
    27d4:	9c500001 	mrrcls	0, 0, r0, r0, cr1	; <UNPREDICTABLE>
    27d8:	a4000002 	strge	r0, [r0], #-2
    27dc:	04000002 	streq	r0, [r0], #-2
    27e0:	5001f300 	andpl	pc, r1, r0, lsl #6
    27e4:	0002a49f 	muleq	r2, pc, r4	; <UNPREDICTABLE>
    27e8:	0002a700 	andeq	sl, r2, r0, lsl #14
    27ec:	50000100 	andpl	r0, r0, r0, lsl #2
    27f0:	000002a7 	andeq	r0, r0, r7, lsr #5
    27f4:	000002c8 	andeq	r0, r0, r8, asr #5
    27f8:	01f30004 	mvnseq	r0, r4
    27fc:	02c89f50 	sbceq	r9, r8, #80, 30	; 0x140
    2800:	02e00000 	rsceq	r0, r0, #0, 0
    2804:	00010000 	andeq	r0, r1, r0
    2808:	0002e050 	andeq	lr, r2, r0, asr r0
    280c:	0002e800 	andeq	lr, r2, r0, lsl #16
    2810:	f3000400 	vshl.u8	d0, d0, d0
    2814:	e89f5001 	ldm	pc, {r0, ip, lr}	; <UNPREDICTABLE>
    2818:	eb000002 	bl	2828 <__code_start__-0x57d8>
    281c:	01000002 	tsteq	r0, r2
    2820:	02eb5000 	rsceq	r5, fp, #0, 0
    2824:	03380000 	teqeq	r8, #0, 0
    2828:	00040000 	andeq	r0, r4, r0
    282c:	9f5001f3 	svcls	0x005001f3
	...
    284c:	00000220 	andeq	r0, r0, r0, lsr #4
    2850:	00000244 	andeq	r0, r0, r4, asr #4
    2854:	44510001 	ldrbmi	r0, [r1], #-1
    2858:	68000002 	stmdavs	r0, {r1}
    285c:	01000002 	tsteq	r0, r2
    2860:	02685100 	rsbeq	r5, r8, #0
    2864:	027b0000 	rsbseq	r0, fp, #0, 0
    2868:	00030000 	andeq	r0, r3, r0
    286c:	7b9f0171 	blvc	fe7c2e38 <__bss_end__+0xfe7b7ba0>
    2870:	84000002 	strhi	r0, [r0], #-2
    2874:	17000002 	strne	r0, [r0, -r2]
    2878:	01f33800 	mvnseq	r3, r0, lsl #16
    287c:	5101f351 	tstpl	r1, r1, asr r3	; <UNPREDICTABLE>
    2880:	22244b40 	eorcs	r4, r4, #64, 22	; 0x10000
    2884:	0000080c 	andeq	r0, r0, ip, lsl #16
    2888:	01282d80 	smlawbeq	r8, r0, sp, r2
    288c:	9f131600 	svcls	0x00131600
    2890:	00000284 	andeq	r0, r0, r4, lsl #5
    2894:	00000298 	muleq	r0, r8, r2
    2898:	98510001 	ldmdals	r1, {r0}^
    289c:	a4000002 	strge	r0, [r0], #-2
    28a0:	04000002 	streq	r0, [r0], #-2
    28a4:	5101f300 	mrspl	pc, SP_irq	; <UNPREDICTABLE>
    28a8:	0002a49f 	muleq	r2, pc, r4	; <UNPREDICTABLE>
    28ac:	0002a700 	andeq	sl, r2, r0, lsl #14
    28b0:	51000100 	mrspl	r0, (UNDEF: 16)
    28b4:	000002a7 	andeq	r0, r0, r7, lsr #5
    28b8:	000002c8 	andeq	r0, r0, r8, asr #5
    28bc:	01f30004 	mvnseq	r0, r4
    28c0:	02c89f51 	sbceq	r9, r8, #324	; 0x144
    28c4:	02dc0000 	sbcseq	r0, ip, #0, 0
    28c8:	00010000 	andeq	r0, r1, r0
    28cc:	0002dc51 	andeq	sp, r2, r1, asr ip
    28d0:	00033800 	andeq	r3, r3, r0, lsl #16
    28d4:	38001700 	stmdacc	r0, {r8, r9, sl, ip}
    28d8:	f35101f3 	vbsl	q8, <illegal reg q8.5>, <illegal reg q9.5>
    28dc:	4b405101 	blmi	1016ce8 <__bss_end__+0x100ba50>
    28e0:	080c2224 	stmdaeq	ip, {r2, r5, r9, sp}
    28e4:	2d800000 	stccs	0, cr0, [r0]
    28e8:	16000128 	strne	r0, [r0], -r8, lsr #2
    28ec:	00009f13 	andeq	r9, r0, r3, lsl pc
	...
    2900:	024c0000 	subeq	r0, ip, #0, 0
    2904:	025c0000 	subseq	r0, ip, #0, 0
    2908:	00010000 	andeq	r0, r1, r0
    290c:	00025c52 	andeq	r5, r2, r2, asr ip
    2910:	00026400 	andeq	r6, r2, r0, lsl #8
    2914:	03000500 	movweq	r0, #1280	; 0x500
    2918:	0000ae60 	andeq	sl, r0, r0, ror #28
    291c:	00000264 	andeq	r0, r0, r4, ror #4
    2920:	0000027b 	andeq	r0, r0, fp, ror r2
    2924:	c8530001 	ldmdagt	r3, {r0}^
    2928:	d8000002 	stmdale	r0, {r1}
    292c:	01000002 	tsteq	r0, r2
    2930:	02d85200 	sbcseq	r5, r8, #0, 4
    2934:	02e30000 	rsceq	r0, r3, #0, 0
    2938:	00050000 	andeq	r0, r5, r0
    293c:	00ae6003 	adceq	r6, lr, r3
    2940:	0002e800 	andeq	lr, r2, r0, lsl #16
    2944:	0002eb00 	andeq	lr, r2, r0, lsl #22
    2948:	53000100 	movwpl	r0, #256	; 0x100
	...
    2954:	02300004 	eorseq	r0, r0, #4, 0
    2958:	02340000 	eorseq	r0, r4, #0, 0
    295c:	00010000 	andeq	r0, r1, r0
    2960:	00000051 	andeq	r0, r0, r1, asr r0
    2964:	00000000 	andeq	r0, r0, r0
    2968:	3c000200 	sfmcc	f0, 4, [r0], {-0}
    296c:	44000002 	strmi	r0, [r0], #-2
    2970:	02000002 	andeq	r0, r0, #2, 0
    2974:	009f3800 	addseq	r3, pc, r0, lsl #16
    2978:	00000000 	andeq	r0, r0, r0
    297c:	02000000 	andeq	r0, r0, #0, 0
    2980:	00023c00 	andeq	r3, r2, r0, lsl #24
    2984:	00024400 	andeq	r4, r2, r0, lsl #8
    2988:	51000100 	mrspl	r0, (UNDEF: 16)
	...
    2994:	00000001 	andeq	r0, r0, r1
    2998:	024c0000 	subeq	r0, ip, #0, 0
    299c:	02640000 	rsbeq	r0, r4, #0, 0
    29a0:	00010000 	andeq	r0, r1, r0
    29a4:	0002c851 	andeq	ip, r2, r1, asr r8
    29a8:	0002dc00 	andeq	sp, r2, r0, lsl #24
    29ac:	51000100 	mrspl	r0, (UNDEF: 16)
    29b0:	000002dc 	ldrdeq	r0, [r0], -ip
    29b4:	000002e8 	andeq	r0, r0, r8, ror #5
    29b8:	f3380017 	vqadd.u64	d0, d8, d7
    29bc:	01f35101 	mvnseq	r5, r1, lsl #2
    29c0:	244b4051 	strbcs	r4, [fp], #-81	; 0xffffffaf
    29c4:	00080c22 	andeq	r0, r8, r2, lsr #24
    29c8:	282d8000 	stmdacs	sp!, {pc}
    29cc:	13160001 	tstne	r6, #1, 0
    29d0:	0000009f 	muleq	r0, pc, r0	; <UNPREDICTABLE>
    29d4:	00000000 	andeq	r0, r0, r0
    29d8:	00000100 	andeq	r0, r0, r0, lsl #2
    29dc:	00000000 	andeq	r0, r0, r0
    29e0:	00024c00 	andeq	r4, r2, r0, lsl #24
    29e4:	00025c00 	andeq	r5, r2, r0, lsl #24
    29e8:	52000100 	andpl	r0, r0, #0
    29ec:	0000025c 	andeq	r0, r0, ip, asr r2
    29f0:	00000264 	andeq	r0, r0, r4, ror #4
    29f4:	60030005 	andvs	r0, r3, r5
    29f8:	c80000ae 	stmdagt	r0, {r1, r2, r3, r5, r7}
    29fc:	d8000002 	stmdale	r0, {r1}
    2a00:	01000002 	tsteq	r0, r2
    2a04:	02d85200 	sbcseq	r5, r8, #0, 4
    2a08:	02e30000 	rsceq	r0, r3, #0, 0
    2a0c:	00050000 	andeq	r0, r5, r0
    2a10:	00ae6003 	adceq	r6, lr, r3
	...
    2a1c:	4c000400 	cfstrsmi	mvf0, [r0], {-0}
    2a20:	50000002 	andpl	r0, r0, r2
    2a24:	01000002 	tsteq	r0, r2
    2a28:	00005100 	andeq	r5, r0, r0, lsl #2
    2a2c:	00000000 	andeq	r0, r0, r0
    2a30:	00030000 	andeq	r0, r3, r0
    2a34:	00000264 	andeq	r0, r0, r4, ror #4
    2a38:	00000268 	andeq	r0, r0, r8, ror #4
    2a3c:	00510001 	subseq	r0, r1, r1
    2a40:	00000000 	andeq	r0, r0, r0
    2a44:	03000000 	movweq	r0, #0
    2a48:	00026400 	andeq	r6, r2, r0, lsl #8
    2a4c:	00026800 	andeq	r6, r2, r0, lsl #16
    2a50:	53000100 	movwpl	r0, #256	; 0x100
	...
    2a64:	000001bc 			; <UNDEFINED> instruction: 0x000001bc
    2a68:	000001d3 	ldrdeq	r0, [r0], -r3
    2a6c:	d3500001 	cmple	r0, #1, 0
    2a70:	f0000001 			; <UNDEFINED> instruction: 0xf0000001
    2a74:	01000001 	tsteq	r0, r1
    2a78:	01f05400 	mvnseq	r5, r0, lsl #8
    2a7c:	02080000 	andeq	r0, r8, #0, 0
    2a80:	00010000 	andeq	r0, r1, r0
    2a84:	00020850 	andeq	r0, r2, r0, asr r8
    2a88:	00022000 	andeq	r2, r2, r0
    2a8c:	54000100 	strpl	r0, [r0], #-256	; 0xffffff00
	...
    2a9c:	000001d8 	ldrdeq	r0, [r0], -r8
    2aa0:	000001e3 	andeq	r0, r0, r3, ror #3
    2aa4:	e3500001 	cmp	r0, #1, 0
    2aa8:	f0000001 			; <UNDEFINED> instruction: 0xf0000001
    2aac:	01000001 	tsteq	r0, r1
    2ab0:	00005500 	andeq	r5, r0, r0, lsl #10
	...
    2ac8:	01240000 			; <UNDEFINED> instruction: 0x01240000
    2acc:	01380000 	teqeq	r8, r0
    2ad0:	00010000 	andeq	r0, r1, r0
    2ad4:	00013850 	andeq	r3, r1, r0, asr r8
    2ad8:	00013c00 	andeq	r3, r1, r0, lsl #24
    2adc:	70000300 	andvc	r0, r0, r0, lsl #6
    2ae0:	013c9f79 	teqeq	ip, r9, ror pc
    2ae4:	01600000 	cmneq	r0, r0
    2ae8:	00010000 	andeq	r0, r1, r0
    2aec:	00016053 	andeq	r6, r1, r3, asr r0
    2af0:	00017800 	andeq	r7, r1, r0, lsl #16
    2af4:	50000100 	andpl	r0, r0, r0, lsl #2
    2af8:	00000178 	andeq	r0, r0, r8, ror r1
    2afc:	00000180 	andeq	r0, r0, r0, lsl #3
    2b00:	01f30004 	mvnseq	r0, r4
    2b04:	01809f50 	orreq	r9, r0, r0, asr pc
    2b08:	01900000 	orrseq	r0, r0, r0
    2b0c:	00010000 	andeq	r0, r1, r0
    2b10:	00019053 	andeq	r9, r1, r3, asr r0
    2b14:	00019f00 	andeq	r9, r1, r0, lsl #30
    2b18:	91000200 	mrsls	r0, R8_usr
    2b1c:	00019f68 	andeq	r9, r1, r8, ror #30
    2b20:	0001bc00 	andeq	fp, r1, r0, lsl #24
    2b24:	f3000900 	vmls.i8	d0, d0, d0
    2b28:	07235001 	streq	r5, [r3, -r1]!
    2b2c:	9f1af809 	svcls	0x001af809
	...
    2b3c:	00000144 	andeq	r0, r0, r4, asr #2
    2b40:	00000160 	andeq	r0, r0, r0, ror #2
    2b44:	80500001 	subshi	r0, r0, r1
    2b48:	9c000001 	stcls	0, cr0, [r0], {1}
    2b4c:	01000001 	tsteq	r0, r1
    2b50:	00005000 	andeq	r5, r0, r0
    2b54:	00000000 	andeq	r0, r0, r0
    2b58:	00030000 	andeq	r0, r3, r0
    2b5c:	00000134 	andeq	r0, r0, r4, lsr r1
    2b60:	0000013c 	andeq	r0, r0, ip, lsr r1
    2b64:	9f380002 	svcls	0x00380002
	...
    2b70:	00000003 	andeq	r0, r0, r3
    2b74:	00000134 	andeq	r0, r0, r4, lsr r1
    2b78:	00000138 	andeq	r0, r0, r8, lsr r1
    2b7c:	38500001 	ldmdacc	r0, {r0}^
    2b80:	3c000001 	stccc	0, cr0, [r0], {1}
    2b84:	03000001 	movweq	r0, #1
    2b88:	9f797000 	svcls	0x00797000
	...
    2ba0:	00300000 	eorseq	r0, r0, r0
    2ba4:	00600000 	rsbeq	r0, r0, r0
    2ba8:	00010000 	andeq	r0, r1, r0
    2bac:	00006050 	andeq	r6, r0, r0, asr r0
    2bb0:	00006c00 	andeq	r6, r0, r0, lsl #24
    2bb4:	03000500 	movweq	r0, #1280	; 0x500
    2bb8:	0000ae60 	andeq	sl, r0, r0, ror #28
    2bbc:	0000006c 	andeq	r0, r0, ip, rrx
    2bc0:	00000084 	andeq	r0, r0, r4, lsl #1
    2bc4:	84500001 	ldrbhi	r0, [r0], #-1
    2bc8:	8c000000 	stchi	0, cr0, [r0], {-0}
    2bcc:	04000000 	streq	r0, [r0], #-0
    2bd0:	5001f300 	andpl	pc, r1, r0, lsl #6
    2bd4:	00008c9f 	muleq	r0, pc, ip	; <UNPREDICTABLE>
    2bd8:	0000ac00 	andeq	sl, r0, r0, lsl #24
    2bdc:	50000100 	andpl	r0, r0, r0, lsl #2
    2be0:	000000ac 	andeq	r0, r0, ip, lsr #1
    2be4:	000000af 	andeq	r0, r0, pc, lsr #1
    2be8:	68910002 	ldmvs	r1, {r1}
    2bec:	000000af 	andeq	r0, r0, pc, lsr #1
    2bf0:	000000cc 	andeq	r0, r0, ip, asr #1
    2bf4:	01f30004 	mvnseq	r0, r4
    2bf8:	00009f50 	andeq	r9, r0, r0, asr pc
	...
    2c08:	00300000 	eorseq	r0, r0, r0
    2c0c:	00800000 	addeq	r0, r0, r0
    2c10:	00010000 	andeq	r0, r1, r0
    2c14:	00008051 	andeq	r8, r0, r1, asr r0
    2c18:	00008c00 	andeq	r8, r0, r0, lsl #24
    2c1c:	f3000400 	vshl.u8	d0, d0, d0
    2c20:	8c9f5101 	ldfhis	f5, [pc], {1}
    2c24:	a8000000 	stmdage	r0, {}	; <UNPREDICTABLE>
    2c28:	01000000 	mrseq	r0, (UNDEF: 0)
    2c2c:	00a85100 	adceq	r5, r8, r0, lsl #2
    2c30:	00cc0000 	sbceq	r0, ip, r0
    2c34:	00040000 	andeq	r0, r4, r0
    2c38:	9f5101f3 	svcls	0x005101f3
	...
    2c44:	00000001 	andeq	r0, r0, r1
	...
    2c50:	00380000 	eorseq	r0, r8, r0
    2c54:	00600000 	rsbeq	r0, r0, r0
    2c58:	00010000 	andeq	r0, r1, r0
    2c5c:	00006050 	andeq	r6, r0, r0, asr r0
    2c60:	00006c00 	andeq	r6, r0, r0, lsl #24
    2c64:	03000500 	movweq	r0, #1280	; 0x500
    2c68:	0000ae60 	andeq	sl, r0, r0, ror #28
    2c6c:	0000006c 	andeq	r0, r0, ip, rrx
    2c70:	00000084 	andeq	r0, r0, r4, lsl #1
    2c74:	84500001 	ldrbhi	r0, [r0], #-1
    2c78:	8c000000 	stchi	0, cr0, [r0], {-0}
    2c7c:	04000000 	streq	r0, [r0], #-0
    2c80:	5001f300 	andpl	pc, r1, r0, lsl #6
    2c84:	00008c9f 	muleq	r0, pc, ip	; <UNPREDICTABLE>
    2c88:	0000ac00 	andeq	sl, r0, r0, lsl #24
    2c8c:	50000100 	andpl	r0, r0, r0, lsl #2
    2c90:	000000ac 	andeq	r0, r0, ip, lsr #1
    2c94:	000000af 	andeq	r0, r0, pc, lsr #1
    2c98:	68910002 	ldmvs	r1, {r1}
    2c9c:	000000af 	andeq	r0, r0, pc, lsr #1
    2ca0:	000000cc 	andeq	r0, r0, ip, asr #1
    2ca4:	01f30004 	mvnseq	r0, r4
    2ca8:	00009f50 	andeq	r9, r0, r0, asr pc
	...
    2cb8:	00000170 	andeq	r0, r0, r0, ror r1
    2cbc:	0000017c 	andeq	r0, r0, ip, ror r1
    2cc0:	7c500001 	mrrcvc	0, 0, r0, r0, cr1	; <UNPREDICTABLE>
    2cc4:	88000001 	stmdahi	r0, {r0}
    2cc8:	01000001 	tsteq	r0, r1
    2ccc:	01885400 	orreq	r5, r8, r0, lsl #8
    2cd0:	01980000 	orrseq	r0, r8, r0
    2cd4:	00040000 	andeq	r0, r4, r0
    2cd8:	9f5001f3 	svcls	0x005001f3
	...
    2cec:	01780000 	cmneq	r8, r0
    2cf0:	017c0000 	cmneq	ip, r0
    2cf4:	000b0000 	andeq	r0, fp, r0
    2cf8:	25350070 	ldrcs	r0, [r5, #-112]!	; 0xffffff90
    2cfc:	8080b423 	addhi	fp, r0, r3, lsr #8
    2d00:	7c9f0281 	lfmvc	f0, 4, [pc], {129}	; 0x81
    2d04:	80000001 	andhi	r0, r0, r1
    2d08:	0b000001 	bleq	2d14 <__code_start__-0x52ec>
    2d0c:	35007400 	strcc	r7, [r0, #-1024]	; 0xfffffc00
    2d10:	80b42325 	adcshi	r2, r4, r5, lsr #6
    2d14:	9f028180 	svcls	0x00028180
    2d18:	00000180 	andeq	r0, r0, r0, lsl #3
    2d1c:	00000183 	andeq	r0, r0, r3, lsl #3
    2d20:	83500001 	cmphi	r0, #1, 0
    2d24:	88000001 	stmdahi	r0, {r0}
    2d28:	0b000001 	bleq	2d34 <__code_start__-0x52cc>
    2d2c:	35007400 	strcc	r7, [r0, #-1024]	; 0xfffffc00
    2d30:	80b42325 	adcshi	r2, r4, r5, lsr #6
    2d34:	9f028180 	svcls	0x00028180
    2d38:	00000188 	andeq	r0, r0, r8, lsl #3
    2d3c:	00000198 	muleq	r0, r8, r1
    2d40:	01f3000c 	mvnseq	r0, ip
    2d44:	23253550 			; <UNDEFINED> instruction: 0x23253550
    2d48:	818080b4 	strhhi	r8, [r0, r4]
    2d4c:	00009f02 	andeq	r9, r0, r2, lsl #30
    2d50:	00000000 	andeq	r0, r0, r0
    2d54:	00010000 	andeq	r0, r1, r0
    2d58:	00000000 	andeq	r0, r0, r0
    2d5c:	00000178 	andeq	r0, r0, r8, ror r1
    2d60:	0000017c 	andeq	r0, r0, ip, ror r1
    2d64:	00700005 	rsbseq	r0, r0, r5
    2d68:	7c9f1a4f 	vldmiavc	pc, {s2-s80}
    2d6c:	88000001 	stmdahi	r0, {r0}
    2d70:	05000001 	streq	r0, [r0, #-1]
    2d74:	4f007400 	svcmi	0x00007400
    2d78:	01889f1a 	orreq	r9, r8, sl, lsl pc
    2d7c:	01980000 	orrseq	r0, r8, r0
    2d80:	00010000 	andeq	r0, r1, r0
    2d84:	00000054 	andeq	r0, r0, r4, asr r0
	...
    2d98:	00014000 	andeq	r4, r1, r0
    2d9c:	00015400 	andeq	r5, r1, r0, lsl #8
    2da0:	50000100 	andpl	r0, r0, r0, lsl #2
    2da4:	00000154 	andeq	r0, r0, r4, asr r1
    2da8:	00000158 	andeq	r0, r0, r8, asr r1
    2dac:	58510001 	ldmdapl	r1, {r0}^
    2db0:	5c000001 	stcpl	0, cr0, [r0], {1}
    2db4:	04000001 	streq	r0, [r0], #-1
    2db8:	5001f300 	andpl	pc, r1, r0, lsl #6
    2dbc:	00015c9f 	muleq	r1, pc, ip	; <UNPREDICTABLE>
    2dc0:	00016000 	andeq	r6, r1, r0
    2dc4:	50000100 	andpl	r0, r0, r0, lsl #2
    2dc8:	00000160 	andeq	r0, r0, r0, ror #2
    2dcc:	00000164 	andeq	r0, r0, r4, ror #2
    2dd0:	64510001 	ldrbvs	r0, [r1], #-1
    2dd4:	70000001 	andvc	r0, r0, r1
    2dd8:	04000001 	streq	r0, [r0], #-1
    2ddc:	5001f300 	andpl	pc, r1, r0, lsl #6
    2de0:	0000009f 	muleq	r0, pc, r0	; <UNPREDICTABLE>
	...
    2dec:	00014000 	andeq	r4, r1, r0
    2df0:	00014c00 	andeq	r4, r1, r0, lsl #24
    2df4:	51000100 	mrspl	r0, (UNDEF: 16)
    2df8:	0000014c 	andeq	r0, r0, ip, asr #2
    2dfc:	00000170 	andeq	r0, r0, r0, ror r1
    2e00:	01f30004 	mvnseq	r0, r4
    2e04:	00009f51 	andeq	r9, r0, r1, asr pc
    2e08:	00000000 	andeq	r0, r0, r0
    2e0c:	00010000 	andeq	r0, r1, r0
    2e10:	00000000 	andeq	r0, r0, r0
    2e14:	00000150 	andeq	r0, r0, r0, asr r1
    2e18:	00000154 	andeq	r0, r0, r4, asr r1
    2e1c:	54500001 	ldrbpl	r0, [r0], #-1
    2e20:	58000001 	stmdapl	r0, {r0}
    2e24:	01000001 	tsteq	r0, r1
    2e28:	01585100 	cmpeq	r8, r0, lsl #2
    2e2c:	015c0000 	cmpeq	ip, r0
    2e30:	00040000 	andeq	r0, r4, r0
    2e34:	9f5001f3 	svcls	0x005001f3
	...
    2e40:	00000002 	andeq	r0, r0, r2
    2e44:	015c0000 	cmpeq	ip, r0
    2e48:	01600000 	cmneq	r0, r0
    2e4c:	00010000 	andeq	r0, r1, r0
    2e50:	00016050 	andeq	r6, r1, r0, asr r0
    2e54:	00016400 	andeq	r6, r1, r0, lsl #8
    2e58:	51000100 	mrspl	r0, (UNDEF: 16)
    2e5c:	00000164 	andeq	r0, r0, r4, ror #2
    2e60:	00000170 	andeq	r0, r0, r0, ror r1
    2e64:	01f30004 	mvnseq	r0, r4
    2e68:	00009f50 	andeq	r9, r0, r0, asr pc
	...
    2e78:	000000e8 	andeq	r0, r0, r8, ror #1
    2e7c:	00000108 	andeq	r0, r0, r8, lsl #2
    2e80:	08500001 	ldmdaeq	r0, {r0}^
    2e84:	28000001 	stmdacs	r0, {r0}
    2e88:	01000001 	tsteq	r0, r1
    2e8c:	01285400 			; <UNDEFINED> instruction: 0x01285400
    2e90:	01400000 	mrseq	r0, (UNDEF: 64)
    2e94:	00040000 	andeq	r0, r4, r0
    2e98:	9f5001f3 	svcls	0x005001f3
	...
    2ea4:	00000002 	andeq	r0, r0, r2
    2ea8:	00e80000 	rsceq	r0, r8, r0
    2eac:	01080000 	mrseq	r0, (UNDEF: 8)
    2eb0:	00010000 	andeq	r0, r1, r0
    2eb4:	00010850 	andeq	r0, r1, r0, asr r8
    2eb8:	00012800 	andeq	r2, r1, r0, lsl #16
    2ebc:	54000100 	strpl	r0, [r0], #-256	; 0xffffff00
    2ec0:	00000128 	andeq	r0, r0, r8, lsr #2
    2ec4:	00000140 	andeq	r0, r0, r0, asr #2
    2ec8:	01f30004 	mvnseq	r0, r4
    2ecc:	00009f50 	andeq	r9, r0, r0, asr pc
	...
    2edc:	000000f0 	strdeq	r0, [r0], -r0	; <UNPREDICTABLE>
    2ee0:	00000108 	andeq	r0, r0, r8, lsl #2
    2ee4:	08500001 	ldmdaeq	r0, {r0}^
    2ee8:	28000001 	stmdacs	r0, {r0}
    2eec:	01000001 	tsteq	r0, r1
    2ef0:	01285400 			; <UNDEFINED> instruction: 0x01285400
    2ef4:	01400000 	mrseq	r0, (UNDEF: 64)
    2ef8:	00040000 	andeq	r0, r4, r0
    2efc:	9f5001f3 	svcls	0x005001f3
	...
    2f08:	00000003 	andeq	r0, r0, r3
    2f0c:	00f00000 	rscseq	r0, r0, r0
    2f10:	01080000 	mrseq	r0, (UNDEF: 8)
    2f14:	00070000 	andeq	r0, r7, r0
    2f18:	1d3a0070 	ldcne	0, cr0, [sl, #-448]!	; 0xfffffe40
    2f1c:	089f1e33 	ldmeq	pc, {r0, r1, r4, r5, r9, sl, fp, ip}	; <UNPREDICTABLE>
    2f20:	28000001 	stmdacs	r0, {r0}
    2f24:	07000001 	streq	r0, [r0, -r1]
    2f28:	3a007400 	bcc	1ff30 <__bss_end__+0x14c98>
    2f2c:	9f1e331d 	svcls	0x001e331d
    2f30:	00000128 	andeq	r0, r0, r8, lsr #2
    2f34:	00000140 	andeq	r0, r0, r0, asr #2
    2f38:	01f30008 	mvnseq	r0, r8
    2f3c:	331d3a50 	tstcc	sp, #80, 20	; 0x50000
    2f40:	00009f1e 	andeq	r9, r0, lr, lsl pc
	...
    2f50:	00000110 	andeq	r0, r0, r0, lsl r1
    2f54:	00000138 	andeq	r0, r0, r8, lsr r1
    2f58:	38560001 	ldmdacc	r6, {r0}^
    2f5c:	3b000001 	blcc	2f68 <__code_start__-0x5098>
    2f60:	01000001 	tsteq	r0, r1
    2f64:	013b5000 	teqeq	fp, r0
    2f68:	01400000 	mrseq	r0, (UNDEF: 64)
    2f6c:	00260000 	eoreq	r0, r6, r0
    2f70:	f75001f3 			; <UNDEFINED> instruction: 0xf75001f3
    2f74:	f425f72c 	vld1.8	{d15}, [r5 :128], ip
    2f78:	cccd0825 	stclgt	8, cr0, [sp], {37}	; 0x25
    2f7c:	0000cccc 	andeq	ip, r0, ip, asr #25
    2f80:	081e0000 	ldmdaeq	lr, {}	; <UNPREDICTABLE>
    2f84:	2525f720 	strcs	pc, [r5, #-1824]!	; 0xfffff8e0
    2f88:	00f72cf7 	ldrshteq	r2, [r7], #199	; 0xc7
    2f8c:	80232533 	eorhi	r2, r3, r3, lsr r5
    2f90:	3240a080 	subcc	sl, r0, #128, 0	; 0x80
    2f94:	00009f24 	andeq	r9, r0, r4, lsr #30
    2f98:	00000000 	andeq	r0, r0, r0
    2f9c:	01000000 	mrseq	r0, (UNDEF: 0)
    2fa0:	00000001 	andeq	r0, r0, r1
    2fa4:	01200000 			; <UNDEFINED> instruction: 0x01200000
    2fa8:	01200000 			; <UNDEFINED> instruction: 0x01200000
    2fac:	00010000 	andeq	r0, r1, r0
    2fb0:	00012050 	andeq	r2, r1, r0, asr r0
    2fb4:	00012800 	andeq	r2, r1, r0, lsl #16
    2fb8:	37000d00 	strcc	r0, [r0, -r0, lsl #26]
    2fbc:	1d3a0074 	ldcne	0, cr0, [sl, #-464]!	; 0xfffffe30
    2fc0:	20241e33 	eorcs	r1, r4, r3, lsr lr
    2fc4:	9f1a0070 	svcls	0x001a0070
    2fc8:	00000128 	andeq	r0, r0, r8, lsr #2
    2fcc:	00000130 	andeq	r0, r0, r0, lsr r1
    2fd0:	f337000e 	vhadd.u<illegal width 64>	d0, d7, d14
    2fd4:	1d3a5001 	ldcne	0, cr5, [sl, #-4]!
    2fd8:	20241e33 	eorcs	r1, r4, r3, lsr lr
    2fdc:	9f1a0070 	svcls	0x001a0070
    2fe0:	00000130 	andeq	r0, r0, r0, lsr r1
    2fe4:	0000013b 	andeq	r0, r0, fp, lsr r1
    2fe8:	f337000e 	vhadd.u<illegal width 64>	d0, d7, d14
    2fec:	1d3a5001 	ldcne	0, cr5, [sl, #-4]!
    2ff0:	20241e33 	eorcs	r1, r4, r3, lsr lr
    2ff4:	9f1a0073 	svcls	0x001a0073
	...
    3004:	00000060 	andeq	r0, r0, r0, rrx
    3008:	00000090 	muleq	r0, r0, r0
    300c:	90500001 	subsls	r0, r0, r1
    3010:	b8000000 	stmdalt	r0, {}	; <UNPREDICTABLE>
    3014:	04000000 	streq	r0, [r0], #-0
    3018:	5001f300 	andpl	pc, r1, r0, lsl #6
    301c:	0000009f 	muleq	r0, pc, r0	; <UNPREDICTABLE>
    3020:	00000000 	andeq	r0, r0, r0
    3024:	00000200 	andeq	r0, r0, r0, lsl #4
    3028:	00006000 	andeq	r6, r0, r0
    302c:	00009000 	andeq	r9, r0, r0
    3030:	50000100 	andpl	r0, r0, r0, lsl #2
    3034:	00000090 	muleq	r0, r0, r0
    3038:	000000b8 	strheq	r0, [r0], -r8
    303c:	01f30004 	mvnseq	r0, r4
    3040:	00009f50 	andeq	r9, r0, r0, asr pc
	...
    304c:	00680000 	rsbeq	r0, r8, r0
    3050:	00900000 	addseq	r0, r0, r0
    3054:	00010000 	andeq	r0, r1, r0
    3058:	00009050 	andeq	r9, r0, r0, asr r0
    305c:	0000b800 	andeq	fp, r0, r0, lsl #16
    3060:	f3000400 	vshl.u8	d0, d0, d0
    3064:	009f5001 	addseq	r5, pc, r1
	...
    3070:	a0000000 	andge	r0, r0, r0
    3074:	b0000000 	andlt	r0, r0, r0
    3078:	01000000 	mrseq	r0, (UNDEF: 0)
    307c:	00b05400 	adcseq	r5, r0, r0, lsl #8
    3080:	00b80000 	adcseq	r0, r8, r0
    3084:	00290000 	eoreq	r0, r9, r0
    3088:	f35001f3 	vbsl	q8, q8, <illegal reg q9.5>
    308c:	2cf75001 	ldclcs	0, cr5, [r7], #4
    3090:	25f425f7 	ldrbcs	r2, [r4, #1527]!	; 0x5f7
    3094:	cccccd08 	stclgt	13, cr12, [ip], {8}
    3098:	000000cc 	andeq	r0, r0, ip, asr #1
    309c:	20081e00 	andcs	r1, r8, r0, lsl #28
    30a0:	f72525f7 			; <UNDEFINED> instruction: 0xf72525f7
    30a4:	3300f72c 	movwcc	pc, #1836	; 0x72c	; <UNPREDICTABLE>
    30a8:	311e3525 	tstcc	lr, r5, lsr #10
    30ac:	1e331c24 	cdpne	12, 3, cr1, cr3, cr4, {1}
    30b0:	0000009f 	muleq	r0, pc, r0	; <UNPREDICTABLE>
    30b4:	00000000 	andeq	r0, r0, r0
    30b8:	00000100 	andeq	r0, r0, r0, lsl #2
    30bc:	a0000000 	andge	r0, r0, r0
    30c0:	b0000000 	andlt	r0, r0, r0
    30c4:	01000000 	mrseq	r0, (UNDEF: 0)
    30c8:	00b05500 	adcseq	r5, r0, r0, lsl #10
    30cc:	00b30000 	adcseq	r0, r3, r0
    30d0:	00010000 	andeq	r0, r1, r0
    30d4:	0000b350 	andeq	fp, r0, r0, asr r3
    30d8:	0000b800 	andeq	fp, r0, r0, lsl #16
    30dc:	f3002600 	vmax.u8	d2, d0, d0
    30e0:	2cf75001 	ldclcs	0, cr5, [r7], #4
    30e4:	25f425f7 	ldrbcs	r2, [r4, #1527]!	; 0x5f7
    30e8:	cccccd08 	stclgt	13, cr12, [ip], {8}
    30ec:	000000cc 	andeq	r0, r0, ip, asr #1
    30f0:	20081e00 	andcs	r1, r8, r0, lsl #28
    30f4:	f72525f7 			; <UNDEFINED> instruction: 0xf72525f7
    30f8:	3300f72c 	movwcc	pc, #1836	; 0x72c	; <UNPREDICTABLE>
    30fc:	80802325 	addhi	r2, r0, r5, lsr #6
    3100:	243240a0 	ldrtcs	r4, [r2], #-160	; 0xffffff60
    3104:	0000009f 	muleq	r0, pc, r0	; <UNPREDICTABLE>
    3108:	00000000 	andeq	r0, r0, r0
    310c:	00000200 	andeq	r0, r0, r0, lsl #4
    3110:	00000101 	andeq	r0, r0, r1, lsl #2
    3114:	0000a000 	andeq	sl, r0, r0
    3118:	0000a400 	andeq	sl, r0, r0, lsl #8
    311c:	50000100 	andpl	r0, r0, r0, lsl #2
    3120:	000000a4 	andeq	r0, r0, r4, lsr #1
    3124:	000000a4 	andeq	r0, r0, r4, lsr #1
    3128:	a4530001 	ldrbge	r0, [r3], #-1
    312c:	a8000000 	stmdage	r0, {}	; <UNPREDICTABLE>
    3130:	08000000 	stmdaeq	r0, {}	; <UNPREDICTABLE>
    3134:	00743100 	rsbseq	r3, r4, r0, lsl #2
    3138:	21007324 	tstcs	r0, r4, lsr #6
    313c:	0000a89f 	muleq	r0, pc, r8	; <UNPREDICTABLE>
    3140:	0000b300 	andeq	fp, r0, r0, lsl #6
    3144:	51000100 	mrspl	r0, (UNDEF: 16)
	...
    3158:	0000003c 	andeq	r0, r0, ip, lsr r0
    315c:	3c500001 	mrrccc	0, 0, r0, r0, cr1	; <UNPREDICTABLE>
    3160:	60000000 	andvs	r0, r0, r0
    3164:	04000000 	streq	r0, [r0], #-0
    3168:	5001f300 	andpl	pc, r1, r0, lsl #6
    316c:	0000009f 	muleq	r0, pc, r0	; <UNPREDICTABLE>
	...
    317c:	00003f00 	andeq	r3, r0, r0, lsl #30
    3180:	51000100 	mrspl	r0, (UNDEF: 16)
    3184:	0000003f 	andeq	r0, r0, pc, lsr r0
    3188:	00000060 	andeq	r0, r0, r0, rrx
    318c:	01f30004 	mvnseq	r0, r4
    3190:	00009f51 	andeq	r9, r0, r1, asr pc
	...
    319c:	00080000 	andeq	r0, r8, r0
    31a0:	003f0000 	eorseq	r0, pc, r0
    31a4:	00010000 	andeq	r0, r1, r0
    31a8:	00003f51 	andeq	r3, r0, r1, asr pc
    31ac:	00006000 	andeq	r6, r0, r0
    31b0:	f3000400 	vshl.u8	d0, d0, d0
    31b4:	009f5101 	addseq	r5, pc, r1, lsl #2
	...
    31c0:	08000000 	stmdaeq	r0, {}	; <UNPREDICTABLE>
    31c4:	3c000000 	stccc	0, cr0, [r0], {-0}
    31c8:	01000000 	mrseq	r0, (UNDEF: 0)
    31cc:	003c5000 	eorseq	r5, ip, r0
    31d0:	00600000 	rsbeq	r0, r0, r0
    31d4:	00040000 	andeq	r0, r4, r0
    31d8:	9f5001f3 	svcls	0x005001f3
	...
    31e8:	00000048 	andeq	r0, r0, r8, asr #32
    31ec:	00000058 	andeq	r0, r0, r8, asr r0
    31f0:	58540001 	ldmdapl	r4, {r0}^
    31f4:	60000000 	andvs	r0, r0, r0
    31f8:	29000000 	stmdbcs	r0, {}	; <UNPREDICTABLE>
    31fc:	5001f300 	andpl	pc, r1, r0, lsl #6
    3200:	f75001f3 			; <UNDEFINED> instruction: 0xf75001f3
    3204:	f425f72c 	vld1.8	{d15}, [r5 :128], ip
    3208:	cccd0825 	stclgt	8, cr0, [sp], {37}	; 0x25
    320c:	0000cccc 	andeq	ip, r0, ip, asr #25
    3210:	081e0000 	ldmdaeq	lr, {}	; <UNPREDICTABLE>
    3214:	2525f720 	strcs	pc, [r5, #-1824]!	; 0xfffff8e0
    3218:	00f72cf7 	ldrshteq	r2, [r7], #199	; 0xc7
    321c:	1e352533 	mrcne	5, 1, r2, cr5, cr3, {1}
    3220:	331c2431 	tstcc	ip, #822083584	; 0x31000000
    3224:	00009f1e 	andeq	r9, r0, lr, lsl pc
    3228:	00000000 	andeq	r0, r0, r0
    322c:	00010000 	andeq	r0, r1, r0
    3230:	00000000 	andeq	r0, r0, r0
    3234:	00000048 	andeq	r0, r0, r8, asr #32
    3238:	00000058 	andeq	r0, r0, r8, asr r0
    323c:	58560001 	ldmdapl	r6, {r0}^
    3240:	5b000000 	blpl	3248 <__code_start__-0x4db8>
    3244:	01000000 	mrseq	r0, (UNDEF: 0)
    3248:	005b5000 	subseq	r5, fp, r0
    324c:	00600000 	rsbeq	r0, r0, r0
    3250:	00260000 	eoreq	r0, r6, r0
    3254:	f75001f3 			; <UNDEFINED> instruction: 0xf75001f3
    3258:	f425f72c 	vld1.8	{d15}, [r5 :128], ip
    325c:	cccd0825 	stclgt	8, cr0, [sp], {37}	; 0x25
    3260:	0000cccc 	andeq	ip, r0, ip, asr #25
    3264:	081e0000 	ldmdaeq	lr, {}	; <UNPREDICTABLE>
    3268:	2525f720 	strcs	pc, [r5, #-1824]!	; 0xfffff8e0
    326c:	00f72cf7 	ldrshteq	r2, [r7], #199	; 0xc7
    3270:	80232533 	eorhi	r2, r3, r3, lsr r5
    3274:	3240a080 	subcc	sl, r0, #128, 0	; 0x80
    3278:	00009f24 	andeq	r9, r0, r4, lsr #30
    327c:	00000000 	andeq	r0, r0, r0
    3280:	00020000 	andeq	r0, r2, r0
    3284:	00010100 	andeq	r0, r1, r0, lsl #2
    3288:	00480000 	subeq	r0, r8, r0
    328c:	004c0000 	subeq	r0, ip, r0
    3290:	00010000 	andeq	r0, r1, r0
    3294:	00004c50 	andeq	r4, r0, r0, asr ip
    3298:	00004c00 	andeq	r4, r0, r0, lsl #24
    329c:	51000100 	mrspl	r0, (UNDEF: 16)
    32a0:	0000004c 	andeq	r0, r0, ip, asr #32
    32a4:	00000050 	andeq	r0, r0, r0, asr r0
    32a8:	0075000c 	rsbseq	r0, r5, ip
    32ac:	741aff08 	ldrvc	pc, [sl], #-3848	; 0xfffff0f8
    32b0:	00712400 	rsbseq	r2, r1, r0, lsl #8
    32b4:	00509f21 	subseq	r9, r0, r1, lsr #30
    32b8:	00540000 	subseq	r0, r4, r0
    32bc:	00120000 	andseq	r0, r2, r0
    32c0:	24007437 	strcs	r7, [r0], #-1079	; 0xfffffbc9
    32c4:	1a007020 	bne	1f34c <__bss_end__+0x140b4>
    32c8:	ff080075 			; <UNDEFINED> instruction: 0xff080075
    32cc:	2400741a 	strcs	r7, [r0], #-1050	; 0xfffffbe6
    32d0:	00009f21 	andeq	r9, r0, r1, lsr #30
	...
    32e0:	000000b8 	strheq	r0, [r0], -r8
    32e4:	000000c4 	andeq	r0, r0, r4, asr #1
    32e8:	c4500001 	ldrbgt	r0, [r0], #-1
    32ec:	cb000000 	blgt	32f4 <__code_start__-0x4d0c>
    32f0:	01000000 	mrseq	r0, (UNDEF: 0)
    32f4:	00cb5300 	sbceq	r5, fp, r0, lsl #6
    32f8:	00d00000 	sbcseq	r0, r0, r0
    32fc:	00040000 	andeq	r0, r4, r0
    3300:	9f5001f3 	svcls	0x005001f3
	...
    3310:	00d00000 	sbcseq	r0, r0, r0
    3314:	00dc0000 	sbcseq	r0, ip, r0
    3318:	00010000 	andeq	r0, r1, r0
    331c:	0000dc50 	andeq	sp, r0, r0, asr ip
    3320:	0000e300 	andeq	lr, r0, r0, lsl #6
    3324:	53000100 	movwpl	r0, #256	; 0x100
    3328:	000000e3 	andeq	r0, r0, r3, ror #1
    332c:	000000e8 	andeq	r0, r0, r8, ror #1
    3330:	01f30004 	mvnseq	r0, r4
    3334:	00009f50 	andeq	r9, r0, r0, asr pc
	...
    3344:	000b0000 	andeq	r0, fp, r0
    3348:	00010000 	andeq	r0, r1, r0
    334c:	00000b50 	andeq	r0, r0, r0, asr fp
    3350:	00001400 	andeq	r1, r0, r0, lsl #8
    3354:	54000100 	strpl	r0, [r0], #-256	; 0xffffff00
	...
    3368:	00000018 	andeq	r0, r0, r8, lsl r0
    336c:	18510001 	ldmdane	r1, {r0}^
    3370:	2c000000 	stccs	0, cr0, [r0], {-0}
    3374:	04000000 	streq	r0, [r0], #-0
    3378:	5101f300 	mrspl	pc, SP_irq	; <UNPREDICTABLE>
    337c:	0000009f 	muleq	r0, pc, r0	; <UNPREDICTABLE>
    3380:	00000000 	andeq	r0, r0, r0
    3384:	00000200 	andeq	r0, r0, r0, lsl #4
    3388:	00000000 	andeq	r0, r0, r0
    338c:	01010000 	mrseq	r0, (UNDEF: 1)
    3390:	00000000 	andeq	r0, r0, r0
    3394:	04000000 	streq	r0, [r0], #-0
    3398:	01000000 	mrseq	r0, (UNDEF: 0)
    339c:	00045000 	andeq	r5, r4, r0
    33a0:	00080000 	andeq	r0, r8, r0
    33a4:	00010000 	andeq	r0, r1, r0
    33a8:	00000852 	andeq	r0, r0, r2, asr r8
    33ac:	00000c00 	andeq	r0, r0, r0, lsl #24
    33b0:	72000300 	andvc	r0, r0, #0, 6
    33b4:	000c9f01 	andeq	r9, ip, r1, lsl #30
    33b8:	00180000 	andseq	r0, r8, r0
    33bc:	00010000 	andeq	r0, r1, r0
    33c0:	00001852 	andeq	r1, r0, r2, asr r8
    33c4:	00001c00 	andeq	r1, r0, r0, lsl #24
    33c8:	53000100 	movwpl	r0, #256	; 0x100
    33cc:	0000001c 	andeq	r0, r0, ip, lsl r0
    33d0:	00000024 	andeq	r0, r0, r4, lsr #32
    33d4:	01730003 	cmneq	r3, r3
    33d8:	0000249f 	muleq	r0, pc, r4	; <UNPREDICTABLE>
    33dc:	00002c00 	andeq	r2, r0, r0, lsl #24
    33e0:	53000100 	movwpl	r0, #256	; 0x100
	...
    33ec:	00020203 	andeq	r0, r2, r3, lsl #4
    33f0:	00000000 	andeq	r0, r0, r0
    33f4:	00180000 	andseq	r0, r8, r0
    33f8:	00010000 	andeq	r0, r1, r0
    33fc:	00001851 	andeq	r1, r0, r1, asr r8
    3400:	00001c00 	andeq	r1, r0, r0, lsl #24
    3404:	71000300 	mrsvc	r0, LR_irq
    3408:	001c9f01 	andseq	r9, ip, r1, lsl #30
    340c:	002c0000 	eoreq	r0, ip, r0
    3410:	00010000 	andeq	r0, r1, r0
    3414:	00000051 	andeq	r0, r0, r1, asr r0
	...
    3420:	08000000 	stmdaeq	r0, {}	; <UNPREDICTABLE>
    3424:	0c000000 	stceq	0, cr0, [r0], {-0}
    3428:	02000000 	andeq	r0, r0, #0, 0
    342c:	0c007200 	sfmeq	f7, 4, [r0], {-0}
    3430:	18000000 	stmdane	r0, {}	; <UNPREDICTABLE>
    3434:	02000000 	andeq	r0, r0, #0, 0
    3438:	1c007300 	stcne	3, cr7, [r0], {-0}
    343c:	2c000000 	stccs	0, cr0, [r0], {-0}
    3440:	01000000 	mrseq	r0, (UNDEF: 0)
    3444:	00005200 	andeq	r5, r0, r0, lsl #4
	...
    345c:	00140000 	andseq	r0, r4, r0
    3460:	00010000 	andeq	r0, r1, r0
    3464:	00001450 	andeq	r1, r0, r0, asr r4
    3468:	00001800 	andeq	r1, r0, r0, lsl #16
    346c:	70000300 	andvc	r0, r0, r0, lsl #6
    3470:	00189f01 	andseq	r9, r8, r1, lsl #30
    3474:	00200000 	eoreq	r0, r0, r0
    3478:	00010000 	andeq	r0, r1, r0
    347c:	00002450 	andeq	r2, r0, r0, asr r4
    3480:	00002800 	andeq	r2, r0, r0, lsl #16
    3484:	50000100 	andpl	r0, r0, r0, lsl #2
    3488:	00000028 	andeq	r0, r0, r8, lsr #32
    348c:	00000030 	andeq	r0, r0, r0, lsr r0
    3490:	01700003 	cmneq	r0, r3
    3494:	0000389f 	muleq	r0, pc, r8	; <UNPREDICTABLE>
    3498:	00004000 	andeq	r4, r0, r0
    349c:	50000100 	andpl	r0, r0, r0, lsl #2
	...
    34b0:	00240000 	eoreq	r0, r4, r0
    34b4:	00010000 	andeq	r0, r1, r0
    34b8:	00002451 	andeq	r2, r0, r1, asr r4
    34bc:	00002800 	andeq	r2, r0, r0, lsl #16
    34c0:	5c000100 	stfpls	f0, [r0], {-0}
    34c4:	00000028 	andeq	r0, r0, r8, lsr #32
    34c8:	00000044 	andeq	r0, r0, r4, asr #32
    34cc:	00510001 	subseq	r0, r1, r1
	...
    34d8:	00000202 	andeq	r0, r0, r2, lsl #4
    34dc:	00000000 	andeq	r0, r0, r0
    34e0:	00000400 	andeq	r0, r0, r0, lsl #8
    34e4:	51000100 	mrspl	r0, (UNDEF: 16)
    34e8:	00000004 	andeq	r0, r0, r4
    34ec:	00000008 	andeq	r0, r0, r8
    34f0:	01710003 	cmneq	r1, r3
    34f4:	0000089f 	muleq	r0, pc, r8	; <UNPREDICTABLE>
    34f8:	00001800 	andeq	r1, r0, r0, lsl #16
    34fc:	51000100 	mrspl	r0, (UNDEF: 16)
	...
    3508:	00000002 	andeq	r0, r0, r2
    350c:	00040000 	andeq	r0, r4, r0
    3510:	00010000 	andeq	r0, r1, r0
    3514:	00000050 	andeq	r0, r0, r0, asr r0
	...
    3524:	00000800 	andeq	r0, r0, r0, lsl #16
    3528:	50000100 	andpl	r0, r0, r0, lsl #2
    352c:	00000008 	andeq	r0, r0, r8
    3530:	00000030 	andeq	r0, r0, r0, lsr r0
    3534:	01f30004 	mvnseq	r0, r4
    3538:	00009f50 	andeq	r9, r0, r0, asr pc
	...
    3548:	00080000 	andeq	r0, r8, r0
    354c:	00010000 	andeq	r0, r1, r0
    3550:	00000851 	andeq	r0, r0, r1, asr r8
    3554:	00003000 	andeq	r3, r0, r0
    3558:	f3000400 	vshl.u8	d0, d0, d0
    355c:	009f5101 	addseq	r5, pc, r1, lsl #2
	...
    356c:	02020100 	andeq	r0, r2, #0
    3570:	00000000 	andeq	r0, r0, r0
    3574:	00000400 	andeq	r0, r0, r0, lsl #8
    3578:	52000100 	andpl	r0, r0, #0
    357c:	00000004 	andeq	r0, r0, r4
    3580:	00000008 	andeq	r0, r0, r8
    3584:	01f30004 	mvnseq	r0, r4
    3588:	00089f52 	andeq	r9, r8, r2, asr pc
    358c:	00180000 	andseq	r0, r8, r0
    3590:	00060000 	andeq	r0, r6, r0
    3594:	315201f3 	ldrshcc	r0, [r2, #-19]	; 0xffffffed
    3598:	00189f1c 	andseq	r9, r8, ip, lsl pc
    359c:	00180000 	andseq	r0, r8, r0
    35a0:	00040000 	andeq	r0, r4, r0
    35a4:	9f5201f3 	svcls	0x005201f3
    35a8:	00000018 	andeq	r0, r0, r8, lsl r0
    35ac:	00000030 	andeq	r0, r0, r0, lsr r0
    35b0:	01f30006 	mvnseq	r0, r6
    35b4:	9f1c3152 	svcls	0x001c3152
	...
    35c0:	00000002 	andeq	r0, r0, r2
    35c4:	00000001 	andeq	r0, r0, r1
    35c8:	00000000 	andeq	r0, r0, r0
    35cc:	0000000c 	andeq	r0, r0, ip
    35d0:	0c500001 	mrrceq	0, 0, r0, r0, cr1	; <UNPREDICTABLE>
    35d4:	18000000 	stmdane	r0, {}	; <UNPREDICTABLE>
    35d8:	03000000 	movweq	r0, #0
    35dc:	9f7f7000 	svcls	0x007f7000
    35e0:	00000018 	andeq	r0, r0, r8, lsl r0
    35e4:	00000024 	andeq	r0, r0, r4, lsr #32
    35e8:	28500001 	ldmdacs	r0, {r0}^
    35ec:	2c000000 	stccs	0, cr0, [r0], {-0}
    35f0:	03000000 	movweq	r0, #0
    35f4:	9f7f7000 	svcls	0x007f7000
	...
    3600:	00000002 	andeq	r0, r0, r2
    3604:	00000000 	andeq	r0, r0, r0
    3608:	000c0000 	andeq	r0, ip, r0
    360c:	00010000 	andeq	r0, r1, r0
    3610:	00000c51 	andeq	r0, r0, r1, asr ip
    3614:	00001000 	andeq	r1, r0, r0
    3618:	71000300 	mrsvc	r0, LR_irq
    361c:	00109f01 	andseq	r9, r0, r1, lsl #30
    3620:	00300000 	eorseq	r0, r0, r0
    3624:	00010000 	andeq	r0, r1, r0
    3628:	00000051 	andeq	r0, r0, r1, asr r0
    362c:	00000000 	andeq	r0, r0, r0
	...

Disassembly of section .debug_aranges:

00000000 <.debug_aranges>:
   0:	0000001c 	andeq	r0, r0, ip, lsl r0
   4:	00000002 	andeq	r0, r0, r2
   8:	00040000 	andeq	r0, r4, r0
   c:	00000000 	andeq	r0, r0, r0
  10:	00008038 	andeq	r8, r0, r8, lsr r0
  14:	000000ac 	andeq	r0, r0, ip, lsr #1
	...
  20:	0000001c 	andeq	r0, r0, ip, lsl r0
  24:	02e90002 	rsceq	r0, r9, #2, 0
  28:	00040000 	andeq	r0, r4, r0
  2c:	00000000 	andeq	r0, r0, r0
  30:	000080e4 	andeq	r8, r0, r4, ror #1
  34:	000003f8 	strdeq	r0, [r0], -r8
	...
  40:	0000001c 	andeq	r0, r0, ip, lsl r0
  44:	0a9b0002 	beq	fe6c0054 <__bss_end__+0xfe6b4dbc>
  48:	00040000 	andeq	r0, r4, r0
  4c:	00000000 	andeq	r0, r0, r0
  50:	000084dc 	ldrdeq	r8, [r0], -ip
  54:	00000200 	andeq	r0, r0, r0, lsl #4
	...
  60:	0000001c 	andeq	r0, r0, ip, lsl r0
  64:	0d8b0002 	stceq	0, cr0, [fp, #8]
  68:	00040000 	andeq	r0, r4, r0
  6c:	00000000 	andeq	r0, r0, r0
  70:	000086dc 	ldrdeq	r8, [r0], -ip
  74:	0000081c 	andeq	r0, r0, ip, lsl r8
	...
  80:	0000001c 	andeq	r0, r0, ip, lsl r0
  84:	1c600002 	stclne	0, cr0, [r0], #-8
  88:	00040000 	andeq	r0, r4, r0
  8c:	00000000 	andeq	r0, r0, r0
  90:	00008f00 	andeq	r8, r0, r0, lsl #30
  94:	000000a0 	andeq	r0, r0, r0, lsr #1
	...
  a0:	0000001c 	andeq	r0, r0, ip, lsl r0
  a4:	1e7a0002 	cdpne	0, 7, cr0, cr10, cr2, {0}
  a8:	00040000 	andeq	r0, r4, r0
  ac:	00000000 	andeq	r0, r0, r0
  b0:	00008fa0 	andeq	r8, r0, r0, lsr #31
  b4:	00000078 	andeq	r0, r0, r8, ror r0
	...
  c0:	0000001c 	andeq	r0, r0, ip, lsl r0
  c4:	1fbe0002 	svcne	0x00be0002
  c8:	00040000 	andeq	r0, r4, r0
  cc:	00000000 	andeq	r0, r0, r0
  d0:	00009018 	andeq	r9, r0, r8, lsl r0
  d4:	00000058 	andeq	r0, r0, r8, asr r0
	...
  e0:	0000001c 	andeq	r0, r0, ip, lsl r0
  e4:	215f0002 	cmpcs	pc, r2
  e8:	00040000 	andeq	r0, r4, r0
  ec:	00000000 	andeq	r0, r0, r0
  f0:	00009070 	andeq	r9, r0, r0, ror r0
  f4:	00000038 	andeq	r0, r0, r8, lsr r0
	...
 100:	0000001c 	andeq	r0, r0, ip, lsl r0
 104:	22560002 	subscs	r0, r6, #2, 0
 108:	00040000 	andeq	r0, r4, r0
 10c:	00000000 	andeq	r0, r0, r0
 110:	000090a8 	andeq	r9, r0, r8, lsr #1
 114:	000009b4 			; <UNDEFINED> instruction: 0x000009b4
	...
 120:	0000001c 	andeq	r0, r0, ip, lsl r0
 124:	2ed90002 	cdpcs	0, 13, cr0, cr9, cr2, {0}
 128:	00040000 	andeq	r0, r4, r0
 12c:	00000000 	andeq	r0, r0, r0
 130:	00009a5c 	andeq	r9, r0, ip, asr sl
 134:	0000002c 	andeq	r0, r0, ip, lsr #32
	...
 140:	0000001c 	andeq	r0, r0, ip, lsl r0
 144:	300c0002 	andcc	r0, ip, r2
 148:	00040000 	andeq	r0, r4, r0
 14c:	00000000 	andeq	r0, r0, r0
 150:	00009a88 	andeq	r9, r0, r8, lsl #21
 154:	000000f8 	strdeq	r0, [r0], -r8
	...
 160:	0000001c 	andeq	r0, r0, ip, lsl r0
 164:	31a00002 	movcc	r0, r2
 168:	00040000 	andeq	r0, r4, r0
 16c:	00000000 	andeq	r0, r0, r0
 170:	00009b80 	andeq	r9, r0, r0, lsl #23
 174:	00000004 	andeq	r0, r0, r4
	...
 180:	0000001c 	andeq	r0, r0, ip, lsl r0
 184:	32720002 	rsbscc	r0, r2, #2, 0
 188:	00040000 	andeq	r0, r4, r0
 18c:	00000000 	andeq	r0, r0, r0
 190:	00009b84 	andeq	r9, r0, r4, lsl #23
 194:	0000008c 	andeq	r0, r0, ip, lsl #1
	...
 1a0:	0000001c 	andeq	r0, r0, ip, lsl r0
 1a4:	34f30002 	ldrbtcc	r0, [r3], #2
 1a8:	00040000 	andeq	r0, r4, r0
 1ac:	00000000 	andeq	r0, r0, r0
 1b0:	00009c10 	andeq	r9, r0, r0, lsl ip
 1b4:	0000011c 	andeq	r0, r0, ip, lsl r1
	...
 1c0:	0000001c 	andeq	r0, r0, ip, lsl r0
 1c4:	3a360002 	bcc	d801d4 <__bss_end__+0xd74f3c>
 1c8:	00040000 	andeq	r0, r4, r0
 1cc:	00000000 	andeq	r0, r0, r0
 1d0:	00009d2c 	andeq	r9, r0, ip, lsr #26
 1d4:	000001f0 	strdeq	r0, [r0], -r0	; <UNPREDICTABLE>
	...
 1e0:	0000001c 	andeq	r0, r0, ip, lsl r0
 1e4:	40070002 	andmi	r0, r7, r2
 1e8:	00040000 	andeq	r0, r4, r0
 1ec:	00000000 	andeq	r0, r0, r0
 1f0:	00009f1c 	andeq	r9, r0, ip, lsl pc
 1f4:	000003b0 			; <UNDEFINED> instruction: 0x000003b0
	...
 200:	0000001c 	andeq	r0, r0, ip, lsl r0
 204:	48f40002 	ldmmi	r4!, {r1}^
 208:	00040000 	andeq	r0, r4, r0
 20c:	00000000 	andeq	r0, r0, r0
 210:	0000a2cc 	andeq	sl, r0, ip, asr #5
 214:	00000198 	muleq	r0, r8, r1
	...
 220:	0000001c 	andeq	r0, r0, ip, lsl r0
 224:	4f6b0002 	svcmi	0x006b0002
 228:	00040000 	andeq	r0, r4, r0
 22c:	00000000 	andeq	r0, r0, r0
 230:	0000a464 	andeq	sl, r0, r4, ror #8
 234:	0000003c 	andeq	r0, r0, ip, lsr r0
	...
 240:	0000001c 	andeq	r0, r0, ip, lsl r0
 244:	50b80002 	adcspl	r0, r8, r2
 248:	00040000 	andeq	r0, r4, r0
 24c:	00000000 	andeq	r0, r0, r0
 250:	0000a4a0 	andeq	sl, r0, r0, lsr #9
 254:	0000002c 	andeq	r0, r0, ip, lsr #32
	...
 260:	0000001c 	andeq	r0, r0, ip, lsl r0
 264:	51f30002 	mvnspl	r0, r2
 268:	00040000 	andeq	r0, r4, r0
 26c:	00000000 	andeq	r0, r0, r0
 270:	0000a4cc 	andeq	sl, r0, ip, asr #9
 274:	00000044 	andeq	r0, r0, r4, asr #32
	...
 280:	0000001c 	andeq	r0, r0, ip, lsl r0
 284:	52ee0002 	rscpl	r0, lr, #2, 0
 288:	00040000 	andeq	r0, r4, r0
 28c:	00000000 	andeq	r0, r0, r0
 290:	0000a510 	andeq	sl, r0, r0, lsl r5
 294:	00000018 	andeq	r0, r0, r8, lsl r0
	...
 2a0:	0000001c 	andeq	r0, r0, ip, lsl r0
 2a4:	54010002 	strpl	r0, [r1], #-2
 2a8:	00040000 	andeq	r0, r4, r0
 2ac:	00000000 	andeq	r0, r0, r0
 2b0:	0000a528 	andeq	sl, r0, r8, lsr #10
 2b4:	00000030 	andeq	r0, r0, r0, lsr r0
	...
 2c0:	0000001c 	andeq	r0, r0, ip, lsl r0
 2c4:	55530002 	ldrbpl	r0, [r3, #-2]
 2c8:	00040000 	andeq	r0, r4, r0
 2cc:	00000000 	andeq	r0, r0, r0
 2d0:	0000a558 	andeq	sl, r0, r8, asr r5
 2d4:	00000004 	andeq	r0, r0, r4
	...

Disassembly of section .debug_line:

00000000 <.debug_line>:
       0:	000000d1 	ldrdeq	r0, [r0], -r1
       4:	00810003 	addeq	r0, r1, r3
       8:	01020000 	mrseq	r0, (UNDEF: 2)
       c:	000d0efb 	strdeq	r0, [sp], -fp
      10:	01010101 	tsteq	r1, r1, lsl #2
      14:	01000000 	mrseq	r0, (UNDEF: 0)
      18:	74010000 	strvc	r0, [r1], #-0
      1c:	73747365 	cmnvc	r4, #-1811939327	; 0x94000001
      20:	302e322d 	eorcc	r3, lr, sp, lsr #4
      24:	2f002e00 	svccs	0x00002e00
      28:	72657355 	rsbvc	r7, r5, #1409286145	; 0x54000001
      2c:	696d2f73 	stmdbvs	sp!, {r0, r1, r4, r5, r6, r8, r9, sl, fp, sp}^
      30:	2f73656c 	svccs	0x0073656c
      34:	72756f53 	rsbsvc	r6, r5, #332	; 0x14c
      38:	632f6563 			; <UNDEFINED> instruction: 0x632f6563
      3c:	30343273 	eorscc	r3, r4, r3, ror r2
      40:	6c2f786c 	stcvs	8, cr7, [pc], #-432	; fffffe98 <__bss_end__+0xffff4c00>
      44:	69706269 	ldmdbvs	r0!, {r0, r3, r5, r6, r9, sp, lr}^
      48:	636e692f 	cmnvs	lr, #770048	; 0xbc000
      4c:	6564756c 	strbvs	r7, [r4, #-1388]!	; 0xfffffa94
      50:	61700000 	cmnvs	r0, r0
      54:	2d317472 	cfldrscs	mvf7, [r1, #-456]!	; 0xfffffe38
      58:	74736574 	ldrbtvc	r6, [r3], #-1396	; 0xfffffa8c
      5c:	75622d32 	strbvc	r2, [r2, #-3378]!	; 0xfffff2ce
      60:	00632e67 	rsbeq	r2, r3, r7, ror #28
      64:	73000001 	movwvc	r0, #1
      68:	6c2d6372 	stcvs	3, cr6, [sp], #-456	; 0xfffffe38
      6c:	682e636f 	stmdavs	lr!, {r0, r1, r2, r3, r5, r6, r8, r9, sp, lr}
      70:	00000200 	andeq	r0, r0, r0, lsl #4
      74:	2e697072 	mcrcs	0, 3, r7, cr9, cr2, {3}
      78:	00030068 	andeq	r0, r3, r8, rrx
      7c:	616b6300 	cmnvs	fp, r0, lsl #6
      80:	636f6c6c 	cmnvs	pc, #108, 24	; 0x6c00
      84:	0200682e 	andeq	r6, r0, #3014656	; 0x2e0000
      88:	05000000 	streq	r0, [r0, #-0]
      8c:	02050014 	andeq	r0, r5, #20, 0
      90:	00008044 	andeq	r8, r0, r4, asr #32
      94:	83050516 	movwhi	r0, #21782	; 0x5516
      98:	0502044b 	streq	r0, [r2, #-1099]	; 0xfffffbb5
      9c:	0505180b 	streq	r1, [r5, #-2059]	; 0xfffff7f5
      a0:	060c0513 			; <UNDEFINED> instruction: 0x060c0513
      a4:	0104ba01 	tsteq	r4, r1, lsl #20
      a8:	79030f05 	stmdbvc	r3, {r0, r2, r8, r9, sl, fp}
      ac:	06050501 	streq	r0, [r5], -r1, lsl #10
      b0:	0a05679f 	beq	159f34 <__bss_end__+0x14ec9c>
      b4:	05050106 	streq	r0, [r5, #-262]	; 0xfffffefa
      b8:	02044b06 	andeq	r4, r4, #6144	; 0x1800
      bc:	05150b05 	ldreq	r0, [r5, #-2821]	; 0xfffff4fb
      c0:	0c051305 	stceq	3, cr1, [r5], {5}
      c4:	04820106 	streq	r0, [r2], #262	; 0x106
      c8:	0e050501 	cfsh32eq	mvfx0, mvfx5, #1
      cc:	9e018406 	cdpls	4, 0, cr8, cr1, cr6, {0}
      d0:	01000a02 	tsteq	r0, r2, lsl #20
      d4:	00035f01 	andeq	r5, r3, r1, lsl #30
      d8:	f4000300 	vst2.8	{d0-d3}, [r0], r0
      dc:	02000000 	andeq	r0, r0, #0, 0
      e0:	0d0efb01 	vstreq	d15, [lr, #-4]
      e4:	01010100 	mrseq	r0, (UNDEF: 17)
      e8:	00000001 	andeq	r0, r0, r1
      ec:	01000001 	tsteq	r0, r1
      f0:	74706f2f 	ldrbtvc	r6, [r0], #-3887	; 0xfffff0d1
      f4:	6d6f682f 	stclvs	8, cr6, [pc, #-188]!	; 40 <__code_start__-0x7fc0>
      f8:	65726265 	ldrbvs	r6, [r2, #-613]!	; 0xfffffd9b
      fc:	65432f77 	strbvs	r2, [r3, #-3959]	; 0xfffff089
     100:	72616c6c 	rsbvc	r6, r1, #108, 24	; 0x6c00
     104:	6d72612f 	ldfvse	f6, [r2, #-188]!	; 0xffffff44
     108:	6e6f6e2d 	cdpvs	14, 6, cr6, cr15, cr13, {1}
     10c:	61652d65 	cmnvs	r5, r5, ror #26
     110:	392d6962 	pushcc	{r1, r5, r6, r8, fp, sp, lr}
     114:	322d392f 	eorcc	r3, sp, #770048	; 0xbc000
     118:	71393130 	teqvc	r9, r0, lsr r1
     11c:	73632d34 	cmnvc	r3, #52, 26	; 0xd00
     120:	65373031 	ldrvs	r3, [r7, #-49]!	; 0xffffffcf
     124:	62696c2f 	rsbvs	r6, r9, #12032	; 0x2f00
     128:	6363672f 	cmnvs	r3, #12320768	; 0xbc0000
     12c:	6d72612f 	ldfvse	f6, [r2, #-188]!	; 0xffffff44
     130:	6e6f6e2d 	cdpvs	14, 6, cr6, cr15, cr13, {1}
     134:	61652d65 	cmnvs	r5, r5, ror #26
     138:	392f6962 	stmdbcc	pc!, {r1, r5, r6, r8, fp, sp, lr}	; <UNPREDICTABLE>
     13c:	312e322e 			; <UNDEFINED> instruction: 0x312e322e
     140:	636e692f 	cmnvs	lr, #770048	; 0xbc000
     144:	6564756c 	strbvs	r7, [r4, #-1388]!	; 0xfffffa94
     148:	73552f00 	cmpvc	r5, #0, 30
     14c:	2f737265 	svccs	0x00737265
     150:	656c696d 	strbvs	r6, [ip, #-2413]!	; 0xfffff693
     154:	6f532f73 	svcvs	0x00532f73
     158:	65637275 	strbvs	r7, [r3, #-629]!	; 0xfffffd8b
     15c:	3273632f 	rsbscc	r6, r3, #-1140850688	; 0xbc000000
     160:	786c3034 	stmdavc	ip!, {r2, r4, r5, ip, sp}^
     164:	62696c2f 	rsbvs	r6, r9, #12032	; 0x2f00
     168:	692f6970 	stmdbvs	pc!, {r4, r5, r6, r8, fp, sp, lr}	; <UNPREDICTABLE>
     16c:	756c636e 	strbvc	r6, [ip, #-878]!	; 0xfffffc92
     170:	00006564 	andeq	r6, r0, r4, ror #10
     174:	6c616b63 			; <UNDEFINED> instruction: 0x6c616b63
     178:	2e636f6c 	cdpcs	15, 6, cr6, cr3, cr12, {3}
     17c:	00000063 	andeq	r0, r0, r3, rrx
     180:	616b6300 	cmnvs	fp, r0, lsl #6
     184:	636f6c6c 	cmnvs	pc, #108, 24	; 0x6c00
     188:	0000682e 	andeq	r6, r0, lr, lsr #16
     18c:	74730000 	ldrbtvc	r0, [r3], #-0
     190:	746e6964 	strbtvc	r6, [lr], #-2404	; 0xfffff69c
     194:	6363672d 	cmnvs	r3, #11796480	; 0xb40000
     198:	0100682e 	tsteq	r0, lr, lsr #16
     19c:	70720000 	rsbsvc	r0, r2, r0
     1a0:	00682e69 	rsbeq	r2, r8, r9, ror #28
     1a4:	73000002 	movwvc	r0, #2
     1a8:	6c2d6372 	stcvs	3, cr6, [sp], #-456	; 0xfffffe38
     1ac:	682e636f 	stmdavs	lr!, {r0, r1, r2, r3, r5, r6, r8, r9, sp, lr}
     1b0:	00000000 	andeq	r0, r0, r0
     1b4:	6d2d726b 	sfmvs	f7, 4, [sp, #-428]!	; 0xfffffe54
     1b8:	6f6c6c61 	svcvs	0x006c6c61
     1bc:	00682e63 	rsbeq	r2, r8, r3, ror #28
     1c0:	62000000 	andvs	r0, r0, #0, 0
     1c4:	746b6361 	strbtvc	r6, [fp], #-865	; 0xfffffc9f
     1c8:	65636172 	strbvs	r6, [r3, #-370]!	; 0xfffffe8e
     1cc:	0200682e 	andeq	r6, r0, #3014656	; 0x2e0000
     1d0:	05000000 	streq	r0, [r0, #-0]
     1d4:	02050001 	andeq	r0, r5, #1, 0
     1d8:	000080f8 	strdeq	r8, [r0], -r8	; <UNPREDICTABLE>
     1dc:	05010b03 	streq	r0, [r1, #-2819]	; 0xfffff4fd
     1e0:	01056705 	tsteq	r5, r5, lsl #14
     1e4:	f6061306 			; <UNDEFINED> instruction: 0xf6061306
     1e8:	05050106 	streq	r0, [r5, #-262]	; 0xfffffefa
     1ec:	08056706 	stmdaeq	r5, {r1, r2, r8, r9, sl, sp, lr}
     1f0:	052e0106 	streq	r0, [lr, #-262]!	; 0xfffffefa
     1f4:	052f0609 	streq	r0, [pc, #-1545]!	; fffffbf3 <__bss_end__+0xffff495b>
     1f8:	05010611 	streq	r0, [r1, #-1553]	; 0xfffff9ef
     1fc:	bd063001 	stclt	0, cr3, [r6, #-4]
     200:	05050106 	streq	r0, [r5, #-262]	; 0xfffffefa
     204:	01056706 	tsteq	r5, r6, lsl #14
     208:	062e1306 	strteq	r1, [lr], -r6, lsl #6
     20c:	050106a2 	streq	r0, [r1, #-1698]	; 0xfffff95e
     210:	05830605 	streq	r0, [r3, #1541]	; 0x605
     214:	04010614 	streq	r0, [r1], #-1556	; 0xfffff9ec
     218:	06180502 	ldreq	r0, [r8], -r2, lsl #10
     21c:	052e0f03 	streq	r0, [lr, #-3843]!	; 0xfffff0fd
     220:	0d051305 	stceq	3, cr1, [r5, #-20]	; 0xffffffec
     224:	042e0106 	strteq	r0, [lr], #-262	; 0xfffffefa
     228:	03010501 	movweq	r0, #5377	; 0x1501
     22c:	da060171 	ble	1807f8 <__bss_end__+0x175560>
     230:	05050106 	streq	r0, [r5, #-262]	; 0xfffffefa
     234:	11059f06 	tstne	r5, r6, lsl #30
     238:	052e0106 	streq	r0, [lr, #-262]!	; 0xfffffefa
     23c:	052f0605 	streq	r0, [pc, #-1541]!	; fffffc3f <__bss_end__+0xffff49a7>
     240:	2e010611 	mcrcs	6, 0, r0, cr1, cr1, {0}
     244:	2f060505 	svccs	0x00060505
     248:	13060105 	movwne	r0, #24837	; 0x6105
     24c:	06f50666 	ldrbteq	r0, [r5], r6, ror #12
     250:	06050501 	streq	r0, [r5], -r1, lsl #10
     254:	010a0584 	smlabbeq	sl, r4, r5, r0
     258:	01061505 	tsteq	r6, r5, lsl #10
     25c:	0025052e 	eoreq	r0, r5, lr, lsr #10
     260:	06010402 	streq	r0, [r1], -r2, lsl #8
     264:	0005052e 	andeq	r0, r5, lr, lsr #10
     268:	06010402 	streq	r0, [r1], -r2, lsl #8
     26c:	06090501 	streq	r0, [r9], -r1, lsl #10
     270:	060d054d 	streq	r0, [sp], -sp, asr #10
     274:	0c054a01 			; <UNDEFINED> instruction: 0x0c054a01
     278:	0028052e 	eoreq	r0, r8, lr, lsr #10
     27c:	06020402 	streq	r0, [r2], -r2, lsl #8
     280:	002c0547 	eoreq	r0, ip, r7, asr #10
     284:	06020402 	streq	r0, [r2], -r2, lsl #8
     288:	04020001 	streq	r0, [r2], #-1
     28c:	0d056602 	stceq	6, cr6, [r5, #-8]
     290:	06833306 	streq	r3, [r3], r6, lsl #6
     294:	16010501 	strne	r0, [r1], -r1, lsl #10
     298:	ba1c0306 	blt	700eb8 <__bss_end__+0x6f5c20>
     29c:	05ba0106 	ldreq	r0, [sl, #262]!	; 0x106
     2a0:	132f0605 			; <UNDEFINED> instruction: 0x132f0605
     2a4:	06110513 			; <UNDEFINED> instruction: 0x06110513
     2a8:	06050501 	streq	r0, [r5], -r1, lsl #10
     2ac:	66f20168 	ldrbtvs	r0, [r2], r8, ror #2
     2b0:	060a0513 			; <UNDEFINED> instruction: 0x060a0513
     2b4:	2e080501 	cfsh32cs	mvfx0, mvfx8, #1
     2b8:	054d0d05 	strbeq	r0, [sp, #-3333]	; 0xfffff2fb
     2bc:	04020014 	streq	r0, [r2], #-20	; 0xffffffec
     2c0:	052e0601 	streq	r0, [lr, #-1537]!	; 0xfffff9ff
     2c4:	04020005 	streq	r0, [r2], #-5
     2c8:	05010601 	streq	r0, [r1, #-1537]	; 0xfffff9ff
     2cc:	054b0609 	strbeq	r0, [fp, #-1545]	; 0xfffff9f7
     2d0:	05010613 	streq	r0, [r1, #-1555]	; 0xfffff9ed
     2d4:	0d054a0c 	vstreq	s8, [r5, #-48]	; 0xffffffd0
     2d8:	09054b06 	stmdbeq	r5, {r1, r2, r8, r9, fp, lr}
     2dc:	06220514 			; <UNDEFINED> instruction: 0x06220514
     2e0:	2e310501 	cdpcs	5, 3, cr0, cr1, cr1, {0}
     2e4:	052e0d05 	streq	r0, [lr, #-3333]!	; 0xfffff2fb
     2e8:	0d052e0c 	stceq	14, cr2, [r5, #-48]	; 0xffffffd0
     2ec:	02040200 	andeq	r0, r4, #0, 4
     2f0:	28054b06 	stmdacs	r5, {r1, r2, r8, r9, fp, lr}
     2f4:	02040200 	andeq	r0, r4, #0, 4
     2f8:	0029050d 	eoreq	r0, r9, sp, lsl #10
     2fc:	06020402 	streq	r0, [r2], -r2, lsl #8
     300:	04020001 	streq	r0, [r2], #-1
     304:	02002e02 	andeq	r2, r0, #2, 28
     308:	052e0204 	streq	r0, [lr, #-516]!	; 0xfffffdfc
     30c:	01100609 	tsteq	r0, r9, lsl #12
     310:	05669e2e 	strbeq	r9, [r6, #-3630]!	; 0xfffff1d2
     314:	2e01320d 	cdpcs	2, 0, cr3, cr1, cr13, {0}
     318:	01314a9e 	teqeq	r1, lr	; <illegal shifter operand>
     31c:	064a9e2e 	strbeq	r9, [sl], -lr, lsr #28
     320:	1405172e 	strne	r1, [r5], #-1838	; 0xfffff8d2
     324:	01040200 	mrseq	r0, R12_usr
     328:	19052e06 	stmdbne	r5, {r1, r2, r9, sl, fp, sp}
     32c:	01040200 	mrseq	r0, R12_usr
     330:	05050106 	streq	r0, [r5, #-262]	; 0xfffffefa
     334:	01040200 	mrseq	r0, R12_usr
     338:	0009052e 	andeq	r0, r9, lr, lsr #10
     33c:	06030402 	streq	r0, [r3], -r2, lsl #8
     340:	001c052f 	andseq	r0, ip, pc, lsr #10
     344:	06030402 	streq	r0, [r3], -r2, lsl #8
     348:	00290501 	eoreq	r0, r9, r1, lsl #10
     34c:	06030402 	streq	r0, [r3], -r2, lsl #8
     350:	002a0549 	eoreq	r0, sl, r9, asr #10
     354:	06030402 	streq	r0, [r3], -r2, lsl #8
     358:	04020001 	streq	r0, [r2], #-1
     35c:	02002e03 	andeq	r2, r0, #3, 28	; 0x30
     360:	052e0304 	streq	r0, [lr, #-772]!	; 0xfffffcfc
     364:	05160605 	ldreq	r0, [r6, #-1541]	; 0xfffff9fb
     368:	2e01060e 	cfmadd32cs	mvax0, mvfx0, mvfx1, mvfx14
     36c:	2f060505 	svccs	0x00060505
     370:	01061105 	tsteq	r6, r5, lsl #2
     374:	83060505 	movwhi	r0, #25861	; 0x6505
     378:	06010501 	streq	r0, [r1], -r1, lsl #10
     37c:	00050586 	andeq	r0, r5, r6, lsl #11
     380:	06010402 	streq	r0, [r1], -r2, lsl #8
     384:	04020046 	streq	r0, [r2], #-70	; 0xffffffba
     388:	02000101 	andeq	r0, r0, #1073741824	; 0x40000000
     38c:	05d60104 	ldrbeq	r0, [r6, #260]	; 0x104
     390:	080a0301 	stmdaeq	sl, {r0, r8, r9}
     394:	ba0106ac 	blt	41e4c <__bss_end__+0x36bb4>
     398:	2f060505 	svccs	0x00060505
     39c:	01061005 	tsteq	r6, r5
     3a0:	69060505 	stmdbvs	r6, {r0, r2, r8, sl}
     3a4:	01090569 	tsteq	r9, r9, ror #10
     3a8:	01060d05 	tsteq	r6, r5, lsl #26
     3ac:	02001405 	andeq	r1, r0, #83886080	; 0x5000000
     3b0:	2e060104 	adfcss	f0, f6, f4
     3b4:	02000505 	andeq	r0, r0, #20971520	; 0x1400000
     3b8:	01060104 	tsteq	r6, r4, lsl #2
     3bc:	02000905 	andeq	r0, r0, #81920	; 0x14000
     3c0:	4b060304 	blmi	180fd8 <__bss_end__+0x175d40>
     3c4:	02001305 	andeq	r1, r0, #335544320	; 0x14000000
     3c8:	01060304 	tsteq	r6, r4, lsl #6
     3cc:	02000905 	andeq	r0, r0, #81920	; 0x14000
     3d0:	67060304 	strvs	r0, [r6, -r4, lsl #6]
     3d4:	02002605 	andeq	r2, r0, #5242880	; 0x500000
     3d8:	01060304 	tsteq	r6, r4, lsl #6
     3dc:	02002b05 	andeq	r2, r0, #5120	; 0x1400
     3e0:	054a0304 	strbeq	r0, [sl, #-772]	; 0xfffffcfc
     3e4:	04020028 	streq	r0, [r2], #-40	; 0xffffffd8
     3e8:	052c0603 	streq	r0, [ip, #-1539]!	; 0xfffff9fd
     3ec:	04020029 	streq	r0, [r2], #-41	; 0xffffffd7
     3f0:	00010603 	andeq	r0, r1, r3, lsl #12
     3f4:	2e030402 	cdpcs	4, 0, cr0, cr3, cr2, {0}
     3f8:	03040200 	movweq	r0, #16896	; 0x4200
     3fc:	0605052e 	streq	r0, [r5], -lr, lsr #10
     400:	06150517 			; <UNDEFINED> instruction: 0x06150517
     404:	06050501 	streq	r0, [r5], -r1, lsl #10
     408:	060e052f 	streq	r0, [lr], -pc, lsr #10
     40c:	05052e01 	streq	r2, [r5, #-3585]	; 0xfffff1ff
     410:	12052f06 	andne	r2, r5, #6, 30
     414:	05050106 	streq	r0, [r5, #-262]	; 0xfffffefa
     418:	9e018406 	cdpls	4, 0, cr8, cr1, cr6, {0}
     41c:	0d05149e 	cfstrseq	mvf1, [r5, #-632]	; 0xfffffd88
     420:	05050106 	streq	r0, [r5, #-262]	; 0xfffffefa
     424:	10056706 	andne	r6, r5, r6, lsl #14
     428:	05050106 	streq	r0, [r5, #-262]	; 0xfffffefa
     42c:	01053006 	tsteq	r5, r6
     430:	02661406 	rsbeq	r1, r6, #100663296	; 0x6000000
     434:	01010006 	tsteq	r1, r6
     438:	00000228 	andeq	r0, r0, r8, lsr #4
     43c:	00640003 	rsbeq	r0, r4, r3
     440:	01020000 	mrseq	r0, (UNDEF: 2)
     444:	000d0efb 	strdeq	r0, [sp], -fp
     448:	01010101 	tsteq	r1, r1, lsl #2
     44c:	01000000 	mrseq	r0, (UNDEF: 0)
     450:	2f010000 	svccs	0x00010000
     454:	72657355 	rsbvc	r7, r5, #1409286145	; 0x54000001
     458:	696d2f73 	stmdbvs	sp!, {r0, r1, r4, r5, r6, r8, r9, sl, fp, sp}^
     45c:	2f73656c 	svccs	0x0073656c
     460:	72756f53 	rsbsvc	r6, r5, #332	; 0x14c
     464:	632f6563 			; <UNDEFINED> instruction: 0x632f6563
     468:	30343273 	eorscc	r3, r4, r3, ror r2
     46c:	6c2f786c 	stcvs	8, cr7, [pc], #-432	; 2c4 <__code_start__-0x7d3c>
     470:	69706269 	ldmdbvs	r0!, {r0, r3, r5, r6, r9, sp, lr}^
     474:	636e692f 	cmnvs	lr, #770048	; 0xbc000
     478:	6564756c 	strbvs	r7, [r4, #-1388]!	; 0xfffffa94
     47c:	726b0000 	rsbvc	r0, fp, #0, 0
     480:	6c616d2d 	stclvs	13, cr6, [r1], #-180	; 0xffffff4c
     484:	2e636f6c 	cdpcs	15, 6, cr6, cr3, cr12, {3}
     488:	00000063 	andeq	r0, r0, r3, rrx
     48c:	69707200 	ldmdbvs	r0!, {r9, ip, sp, lr}^
     490:	0100682e 	tsteq	r0, lr, lsr #16
     494:	726b0000 	rsbvc	r0, fp, #0, 0
     498:	6c616d2d 	stclvs	13, cr6, [r1], #-180	; 0xffffff4c
     49c:	2e636f6c 	cdpcs	15, 6, cr6, cr3, cr12, {3}
     4a0:	00000068 	andeq	r0, r0, r8, rrx
     4a4:	01050000 	mrseq	r0, (UNDEF: 5)
     4a8:	e8020500 	stmda	r2, {r8, sl}
     4ac:	03000084 	movweq	r0, #132	; 0x84
     4b0:	060100d3 			; <UNDEFINED> instruction: 0x060100d3
     4b4:	06020501 	streq	r0, [r2], -r1, lsl #10
     4b8:	05051367 	streq	r1, [r5, #-871]	; 0xfffffc99
     4bc:	02050106 	andeq	r0, r5, #-2147483647	; 0x80000001
     4c0:	09052f06 	stmdbeq	r5, {r1, r2, r8, r9, sl, fp, sp}
     4c4:	02050106 	andeq	r0, r5, #-2147483647	; 0x80000001
     4c8:	12052e4a 	andne	r2, r5, #1184	; 0x4a0
     4cc:	01040200 	mrseq	r0, R12_usr
     4d0:	02052e06 	andeq	r2, r5, #96	; 0x60
     4d4:	01040200 	mrseq	r0, R12_usr
     4d8:	27050106 	strcs	r0, [r5, -r6, lsl #2]
     4dc:	03040200 	movweq	r0, #16896	; 0x4200
     4e0:	0012054a 	andseq	r0, r2, sl, asr #10
     4e4:	2e030402 	cdpcs	4, 0, cr0, cr3, cr2, {0}
     4e8:	4b060305 	blmi	181104 <__bss_end__+0x175e6c>
     4ec:	01061005 	tsteq	r6, r5
     4f0:	052e0605 	streq	r0, [lr, #-1541]!	; 0xfffff9fb
     4f4:	04020015 	streq	r0, [r2], #-21	; 0xffffffeb
     4f8:	20054a01 	andcs	r4, r5, r1, lsl #20
     4fc:	02040200 	andeq	r0, r4, #0, 4
     500:	0402004a 	streq	r0, [r2], #-74	; 0xffffffb6
     504:	02054a02 	andeq	r4, r5, #8192	; 0x2000
     508:	10053006 	andne	r3, r5, r6
     50c:	09050106 	stmdbeq	r5, {r1, r2, r8}
     510:	2e1d052e 	cfmul64cs	mvdx0, mvdx13, mvdx14
     514:	052e0505 	streq	r0, [lr, #-1285]!	; 0xfffffafb
     518:	05500603 	ldrbeq	r0, [r0, #-1539]	; 0xfffff9fd
     51c:	0501060d 	streq	r0, [r1, #-1549]	; 0xfffff9f3
     520:	052f0602 	streq	r0, [pc, #-1538]!	; ffffff26 <__bss_end__+0xffff4c8e>
     524:	0501060e 	streq	r0, [r1, #-1550]	; 0xfffff9f2
     528:	05052e08 	streq	r2, [r5, #-3592]	; 0xfffff1f8
     52c:	0603052e 	streq	r0, [r3], -lr, lsr #10
     530:	060c0550 			; <UNDEFINED> instruction: 0x060c0550
     534:	06020501 	streq	r0, [r2], -r1, lsl #10
     538:	0608052f 	streq	r0, [r8], -pc, lsr #10
     53c:	4b010501 	blmi	41948 <__bss_end__+0x366b0>
     540:	03060305 	movweq	r0, #25349	; 0x6305
     544:	1c052e73 	stcne	14, cr2, [r5], {115}	; 0x73
     548:	0e050106 	adfeqs	f0, f5, f6
     54c:	0603052e 	streq	r0, [r3], -lr, lsr #10
     550:	0613054b 	ldreq	r0, [r3], -fp, asr #10
     554:	2e1a0501 	cfmul32cs	mvfx0, mvfx10, mvfx1
     558:	052e0d05 	streq	r0, [lr, #-3333]!	; 0xfffff2fb
     55c:	05500603 	ldrbeq	r0, [r0, #-1539]	; 0xfffff9fd
     560:	05010615 	streq	r0, [r1, #-1557]	; 0xfffff9eb
     564:	03052e0d 	movweq	r2, #24077	; 0x5e0d
     568:	13054b06 	movwne	r4, #23302	; 0x5b06
     56c:	0c050106 	stfeqs	f0, [r5], {6}
     570:	0601052e 	streq	r0, [r1], -lr, lsr #10
     574:	d67fb903 	ldrbtle	fp, [pc], -r3, lsl #18
     578:	02050106 	andeq	r0, r5, #-2147483647	; 0x80000001
     57c:	05058306 	streq	r8, [r5, #-774]	; 0xfffffcfa
     580:	06050106 	streq	r0, [r5], -r6, lsl #2
     584:	0602052f 	streq	r0, [r2], -pc, lsr #10
     588:	0d05672f 	stceq	7, cr6, [r5, #-188]	; 0xffffff44
     58c:	02050106 	andeq	r0, r5, #-2147483647	; 0x80000001
     590:	05054b06 	streq	r4, [r5, #-2822]	; 0xfffff4fa
     594:	02050106 	andeq	r0, r5, #-2147483647	; 0x80000001
     598:	05134c06 	ldreq	r4, [r3, #-3078]	; 0xfffff3fa
     59c:	0501060d 	streq	r0, [r1, #-1549]	; 0xfffff9f3
     5a0:	062f0602 	strteq	r0, [pc], -r2, lsl #12
     5a4:	052f062e 	streq	r0, [pc, #-1582]!	; ffffff7e <__bss_end__+0xffff4ce6>
     5a8:	05010609 	streq	r0, [r1, #-1545]	; 0xfffff9f7
     5ac:	0105620a 	tsteq	r5, sl, lsl #4
     5b0:	06da0633 			; <UNDEFINED> instruction: 0x06da0633
     5b4:	06020501 	streq	r0, [r2], -r1, lsl #10
     5b8:	05141367 	ldreq	r1, [r4, #-871]	; 0xfffffc99
     5bc:	05010624 	streq	r0, [r1, #-1572]	; 0xfffff9dc
     5c0:	09052e29 	stmdbeq	r5, {r0, r3, r5, r9, sl, fp, sp}
     5c4:	0602052e 	streq	r0, [r2], -lr, lsr #10
     5c8:	060d052f 	streq	r0, [sp], -pc, lsr #10
     5cc:	4a050501 	bmi	1419d8 <__bss_end__+0x136740>
     5d0:	50060205 	andpl	r0, r6, r5, lsl #4
     5d4:	01060905 	tsteq	r6, r5, lsl #18
     5d8:	0603052e 	streq	r0, [r3], -lr, lsr #10
     5dc:	0616052a 	ldreq	r0, [r6], -sl, lsr #10
     5e0:	4a0e0501 	bmi	3819ec <__bss_end__+0x376754>
     5e4:	2f060305 	svccs	0x00060305
     5e8:	01060f05 	tsteq	r6, r5, lsl #30
     5ec:	6d060405 	cfstrsvs	mvf0, [r6, #-20]	; 0xffffffec
     5f0:	01060705 	tsteq	r6, r5, lsl #14
     5f4:	34060505 	strcc	r0, [r6], #-1285	; 0xfffffafb
     5f8:	01060f05 	tsteq	r6, r5, lsl #30
     5fc:	4b060505 	blmi	181a18 <__bss_end__+0x176780>
     600:	01060705 	tsteq	r6, r5, lsl #14
     604:	2f060505 	svccs	0x00060505
     608:	01060f05 	tsteq	r6, r5, lsl #30
     60c:	30060405 	andcc	r0, r6, r5, lsl #8
     610:	01060a05 	tsteq	r6, r5, lsl #20
     614:	4b060405 	blmi	181630 <__bss_end__+0x176398>
     618:	01060b05 	tsteq	r6, r5, lsl #22
     61c:	0605052e 	streq	r0, [r5], -lr, lsr #10
     620:	052e7703 	streq	r7, [lr, #-1795]!	; 0xfffff8fd
     624:	05010618 	streq	r0, [r1, #-1560]	; 0xfffff9e8
     628:	1a052e12 	bne	14be78 <__bss_end__+0x140be0>
     62c:	4a7a0306 	bmi	1e8124c <__bss_end__+0x1e75fb4>
     630:	05011805 	streq	r1, [r1, #-2053]	; 0xfffff7fb
     634:	05010620 	streq	r0, [r1, #-1568]	; 0xfffff9e0
     638:	03052e27 	movweq	r2, #24103	; 0x5e27
     63c:	0b053006 	bleq	14c65c <__bss_end__+0x1413c4>
     640:	06050106 	streq	r0, [r5], -r6, lsl #2
     644:	0603052e 	streq	r0, [r3], -lr, lsr #10
     648:	054a0f03 	strbeq	r0, [sl, #-3843]	; 0xfffff0fd
     64c:	05010609 	streq	r0, [r1, #-1545]	; 0xfffff9f7
     650:	04054a06 	streq	r4, [r5], #-2566	; 0xfffff5fa
     654:	0d054c06 	stceq	12, cr4, [r5, #-24]	; 0xffffffe8
     658:	052e0106 	streq	r0, [lr, #-262]!	; 0xfffffefa
     65c:	022e2e07 	eoreq	r2, lr, #112	; 0x70
     660:	01010006 	tsteq	r1, r6
     664:	0000062f 	andeq	r0, r0, pc, lsr #12
     668:	00d40003 	sbcseq	r0, r4, r3
     66c:	01020000 	mrseq	r0, (UNDEF: 2)
     670:	000d0efb 	strdeq	r0, [sp], -fp
     674:	01010101 	tsteq	r1, r1, lsl #2
     678:	01000000 	mrseq	r0, (UNDEF: 0)
     67c:	2f010000 	svccs	0x00010000
     680:	2f74706f 	svccs	0x0074706f
     684:	656d6f68 	strbvs	r6, [sp, #-3944]!	; 0xfffff098
     688:	77657262 	strbvc	r7, [r5, -r2, ror #4]!
     68c:	6c65432f 	stclvs	3, cr4, [r5], #-188	; 0xffffff44
     690:	2f72616c 	svccs	0x0072616c
     694:	2d6d7261 	sfmcs	f7, 2, [sp, #-388]!	; 0xfffffe7c
     698:	656e6f6e 	strbvs	r6, [lr, #-3950]!	; 0xfffff092
     69c:	6261652d 	rsbvs	r6, r1, #188743680	; 0xb400000
     6a0:	2f392d69 	svccs	0x00392d69
     6a4:	30322d39 	eorscc	r2, r2, r9, lsr sp
     6a8:	34713931 	ldrbtcc	r3, [r1], #-2353	; 0xfffff6cf
     6ac:	3173632d 	cmncc	r3, sp, lsr #6
     6b0:	2f653730 	svccs	0x00653730
     6b4:	2f62696c 	svccs	0x0062696c
     6b8:	2f636367 	svccs	0x00636367
     6bc:	2d6d7261 	sfmcs	f7, 2, [sp, #-388]!	; 0xfffffe7c
     6c0:	656e6f6e 	strbvs	r6, [lr, #-3950]!	; 0xfffff092
     6c4:	6261652d 	rsbvs	r6, r1, #188743680	; 0xb400000
     6c8:	2e392f69 	cdpcs	15, 3, cr2, cr9, cr9, {3}
     6cc:	2f312e32 	svccs	0x00312e32
     6d0:	6c636e69 	stclvs	14, cr6, [r3], #-420	; 0xfffffe5c
     6d4:	00656475 	rsbeq	r6, r5, r5, ror r4
     6d8:	6573552f 	ldrbvs	r5, [r3, #-1327]!	; 0xfffffad1
     6dc:	6d2f7372 	stcvs	3, cr7, [pc, #-456]!	; 51c <__code_start__-0x7ae4>
     6e0:	73656c69 	cmnvc	r5, #26880	; 0x6900
     6e4:	756f532f 	strbvc	r5, [pc, #-815]!	; 3bd <__code_start__-0x7c43>
     6e8:	2f656372 	svccs	0x00656372
     6ec:	34327363 	ldrtcc	r7, [r2], #-867	; 0xfffffc9d
     6f0:	2f786c30 	svccs	0x00786c30
     6f4:	7062696c 	rsbvc	r6, r2, ip, ror #18
     6f8:	6e692f69 	cdpvs	15, 6, cr2, cr9, cr9, {3}
     6fc:	64756c63 	ldrbtvs	r6, [r5], #-3171	; 0xfffff39d
     700:	63000065 	movwvs	r0, #101	; 0x65
     704:	63672d6b 	cmnvs	r7, #6848	; 0x1ac0
     708:	0000632e 	andeq	r6, r0, lr, lsr #6
     70c:	72730000 	rsbsvc	r0, r3, #0, 0
     710:	6f6c2d63 	svcvs	0x006c2d63
     714:	00682e63 	rsbeq	r2, r8, r3, ror #28
     718:	73000000 	movwvc	r0, #0
     71c:	6e696474 	mcrvs	4, 3, r6, cr9, cr4, {3}
     720:	63672d74 	cmnvs	r7, #116, 26	; 0x1d00
     724:	00682e63 	rsbeq	r2, r8, r3, ror #28
     728:	72000001 	andvc	r0, r0, #1, 0
     72c:	682e6970 	stmdavs	lr!, {r4, r5, r6, r8, fp, sp, lr}
     730:	00000200 	andeq	r0, r0, r0, lsl #4
     734:	6c616b63 			; <UNDEFINED> instruction: 0x6c616b63
     738:	2e636f6c 	cdpcs	15, 6, cr6, cr3, cr12, {3}
     73c:	00000068 	andeq	r0, r0, r8, rrx
     740:	01050000 	mrseq	r0, (UNDEF: 5)
     744:	e8020500 	stmda	r2, {r8, sl}
     748:	03000086 	movweq	r0, #134	; 0x86
     74c:	0106012b 	tsteq	r6, fp, lsr #2
     750:	68060505 	stmdavs	r6, {r0, r2, r8, sl}
     754:	01060b05 	tsteq	r6, r5, lsl #22
     758:	054a0805 	strbeq	r0, [sl, #-2053]	; 0xfffff7fb
     75c:	0402001d 	streq	r0, [r2], #-29	; 0xffffffe3
     760:	18054a01 	stmdane	r5, {r0, r9, fp, lr}
     764:	01040200 	mrseq	r0, R12_usr
     768:	4d0c054a 	cfstr32mi	mvfx0, [ip, #-296]	; 0xfffffed8
     76c:	2c10052e 	cfldr32cs	mvfx0, [r0], {46}	; 0x2e
     770:	01052e2e 	tsteq	r5, lr, lsr #28
     774:	0b030631 	bleq	c2040 <__bss_end__+0xb6da8>
     778:	0501069e 	streq	r0, [r1, #-1694]	; 0xfffff962
     77c:	14830605 	strne	r0, [r3], #1541	; 0x605
     780:	01060a05 	tsteq	r6, r5, lsl #20
     784:	052e0805 	streq	r0, [lr, #-2053]!	; 0xfffff7fb
     788:	054c0605 	strbeq	r0, [ip, #-1541]	; 0xfffff9fb
     78c:	0501060c 	streq	r0, [r1, #-1548]	; 0xfffff9f4
     790:	01056510 	tsteq	r5, r0, lsl r5
     794:	0e030630 	mcreq	6, 0, r0, cr3, cr0, {1}
     798:	05010682 	streq	r0, [r1, #-1666]	; 0xfffff97e
     79c:	01830605 	orreq	r0, r3, r5, lsl #12
     7a0:	02040200 	andeq	r0, r4, #0, 4
     7a4:	04020082 	streq	r0, [r2], #-130	; 0xffffff7e
     7a8:	02000102 	andeq	r0, r0, #-2147483648	; 0x80000000
     7ac:	00150204 	andseq	r0, r5, r4, lsl #4
     7b0:	01020402 	tsteq	r2, r2, lsl #8
     7b4:	02040200 	andeq	r0, r4, #0, 4
     7b8:	0402004a 	streq	r0, [r2], #-74	; 0xffffffb6
     7bc:	02000102 	andeq	r0, r0, #-2147483648	; 0x80000000
     7c0:	00130204 	andseq	r0, r3, r4, lsl #4
     7c4:	01020402 	tsteq	r2, r2, lsl #8
     7c8:	01040200 	mrseq	r0, R12_usr
     7cc:	0402004a 	streq	r0, [r2], #-74	; 0xffffffb6
     7d0:	02000101 	andeq	r0, r0, #1073741824	; 0x40000000
     7d4:	9e060104 	adflss	f0, f6, f4
     7d8:	01040200 	mrseq	r0, R12_usr
     7dc:	0402002e 	streq	r0, [r2], #-46	; 0xffffffd2
     7e0:	002e0601 	eoreq	r0, lr, r1, lsl #12
     7e4:	2a010402 	bcs	417f4 <__bss_end__+0x3655c>
     7e8:	01040200 	mrseq	r0, R12_usr
     7ec:	04020001 	streq	r0, [r2], #-1
     7f0:	009e0601 	addseq	r0, lr, r1, lsl #12
     7f4:	2e010402 	cdpcs	4, 0, cr0, cr1, cr2, {0}
     7f8:	01040200 	mrseq	r0, R12_usr
     7fc:	02002e06 	andeq	r2, r0, #96	; 0x60
     800:	00310104 	eorseq	r0, r1, r4, lsl #2
     804:	01010402 	tsteq	r1, r2, lsl #8
     808:	01040200 	mrseq	r0, R12_usr
     80c:	02009e06 	andeq	r9, r0, #96	; 0x60
     810:	002e0104 	eoreq	r0, lr, r4, lsl #2
     814:	06010402 	streq	r0, [r1], -r2, lsl #8
     818:	0619052e 	ldreq	r0, [r9], -lr, lsr #10
     81c:	052e0d03 	streq	r0, [lr, #-3331]!	; 0xfffff2fd
     820:	02004b11 	andeq	r4, r0, #17408	; 0x4400
     824:	002e0404 	eoreq	r0, lr, r4, lsl #8
     828:	06040402 	streq	r0, [r4], -r2, lsl #8
     82c:	0014054d 	andseq	r0, r4, sp, asr #10
     830:	06040402 	streq	r0, [r4], -r2, lsl #8
     834:	04020001 	streq	r0, [r2], #-1
     838:	23054a04 	movwcs	r4, #23044	; 0x5a04
     83c:	02040200 	andeq	r0, r4, #0, 4
     840:	01720306 	cmneq	r2, r6, lsl #6
     844:	02002405 	andeq	r2, r0, #83886080	; 0x5000000
     848:	01060204 	tsteq	r6, r4, lsl #4
     84c:	02001b05 	andeq	r1, r0, #5120	; 0x1400
     850:	2e060104 	adfcss	f0, f6, f4
     854:	02000505 	andeq	r0, r0, #20971520	; 0x1400000
     858:	01060104 	tsteq	r6, r4, lsl #2
     85c:	4c060905 			; <UNDEFINED> instruction: 0x4c060905
     860:	01061405 	tsteq	r6, r5, lsl #8
     864:	4b060905 	blmi	182c80 <__bss_end__+0x1779e8>
     868:	01060c05 	tsteq	r6, r5, lsl #24
     86c:	4c060d05 	stcmi	13, cr0, [r6], {5}
     870:	01062905 	tsteq	r6, r5, lsl #18
     874:	2f060d05 	svccs	0x00060d05
     878:	01061605 	tsteq	r6, r5, lsl #12
     87c:	2f060d05 	svccs	0x00060d05
     880:	062e2e06 	strteq	r2, [lr], -r6, lsl #28
     884:	061005bb 			; <UNDEFINED> instruction: 0x061005bb
     888:	06110501 	ldreq	r0, [r1], -r1, lsl #10
     88c:	061c054c 	ldreq	r0, [ip], -ip, asr #10
     890:	2e190501 	cfmul32cs	mvfx0, mvfx9, mvfx1
     894:	04040200 	streq	r0, [r4], #-512	; 0xfffffe00
     898:	00110566 	andseq	r0, r1, r6, ror #10
     89c:	06040402 	streq	r0, [r4], -r2, lsl #8
     8a0:	002c052f 	eoreq	r0, ip, pc, lsr #10
     8a4:	06040402 	streq	r0, [r4], -r2, lsl #8
     8a8:	00110501 	andseq	r0, r1, r1, lsl #10
     8ac:	2e040402 	cdpcs	4, 0, cr0, cr4, cr2, {0}
     8b0:	0615054a 	ldreq	r0, [r5], -sl, asr #10
     8b4:	064d054f 	strbeq	r0, [sp], -pc, asr #10
     8b8:	2e150501 	cfmul32cs	mvfx0, mvfx5, mvfx1
     8bc:	a3061105 	movwge	r1, #24837	; 0x6105
     8c0:	01056606 	tsteq	r5, r6, lsl #12
     8c4:	03064a16 	movweq	r4, #27158	; 0x6a16
     8c8:	05900809 	ldreq	r0, [r0, #2057]	; 0x809
     8cc:	0a058605 	beq	1620e8 <__bss_end__+0x156e50>
     8d0:	06150501 	ldreq	r0, [r5], -r1, lsl #10
     8d4:	00250501 	eoreq	r0, r5, r1, lsl #10
     8d8:	06010402 	streq	r0, [r1], -r2, lsl #8
     8dc:	0005052e 	andeq	r0, r5, lr, lsr #10
     8e0:	06010402 	streq	r0, [r1], -r2, lsl #8
     8e4:	00090501 	andeq	r0, r9, r1, lsl #10
     8e8:	06030402 	streq	r0, [r3], -r2, lsl #8
     8ec:	0032054c 	eorseq	r0, r2, ip, asr #10
     8f0:	06030402 	streq	r0, [r3], -r2, lsl #8
     8f4:	00210501 	eoreq	r0, r1, r1, lsl #10
     8f8:	4a030402 	bmi	c1908 <__bss_end__+0xb6670>
     8fc:	02001105 	andeq	r1, r0, #1073741825	; 0x40000001
     900:	052e0304 	streq	r0, [lr, #-772]!	; 0xfffffcfc
     904:	04020028 	streq	r0, [r2], #-40	; 0xffffffd8
     908:	052c0603 	streq	r0, [ip, #-1539]!	; 0xfffff9fd
     90c:	0402002c 	streq	r0, [r2], #-44	; 0xffffffd4
     910:	00010603 	andeq	r0, r1, r3, lsl #12
     914:	2e030402 	cdpcs	4, 0, cr0, cr3, cr2, {0}
     918:	03040200 	movweq	r0, #16896	; 0x4200
     91c:	0605052e 	streq	r0, [r5], -lr, lsr #10
     920:	2e061319 	mcrcs	3, 0, r1, cr6, cr9, {0}
     924:	0d053006 	stceq	0, cr3, [r5, #-24]	; 0xffffffe8
     928:	05050106 	streq	r0, [r5, #-262]	; 0xfffffefa
     92c:	0d054b06 	vstreq	d4, [r5, #-24]	; 0xffffffe8
     930:	05050106 	streq	r0, [r5, #-262]	; 0xfffffefa
     934:	0d052f06 	stceq	15, cr2, [r5, #-24]	; 0xffffffe8
     938:	05050106 	streq	r0, [r5, #-262]	; 0xfffffefa
     93c:	0d052f06 	stceq	15, cr2, [r5, #-24]	; 0xffffffe8
     940:	05050106 	streq	r0, [r5, #-262]	; 0xfffffefa
     944:	136a3506 	cmnne	sl, #25165824	; 0x1800000
     948:	68136983 	ldmdavs	r3, {r0, r1, r7, r8, fp, sp, lr}
     94c:	06010513 			; <UNDEFINED> instruction: 0x06010513
     950:	23030667 	movwcs	r0, #13927	; 0x3667
     954:	01065808 	tsteq	r6, r8, lsl #16
     958:	83060505 	movwhi	r0, #25861	; 0x6505
     95c:	062e0613 			; <UNDEFINED> instruction: 0x062e0613
     960:	052f4c2f 	streq	r4, [pc, #-3119]!	; fffffd39 <__bss_end__+0xffff4aa1>
     964:	1505010a 	strne	r0, [r5, #-266]	; 0xfffffef6
     968:	054a0106 	strbeq	r0, [sl, #-262]	; 0xfffffefa
     96c:	1b050d27 	blne	143e10 <__bss_end__+0x138b78>
     970:	2e0e052e 	cfsh32cs	mvfx0, mvfx14, #30
     974:	05330505 	ldreq	r0, [r3, #-1285]!	; 0xfffffafb
     978:	0533060d 	ldreq	r0, [r3, #-1549]!	; 0xfffff9f3
     97c:	05010613 	streq	r0, [r1, #-1555]	; 0xfffff9ed
     980:	062f060d 	strteq	r0, [pc], -sp, lsl #12
     984:	00280566 	eoreq	r0, r8, r6, ror #10
     988:	06020402 	streq	r0, [r2], -r2, lsl #8
     98c:	052e7a03 	streq	r7, [lr, #-2563]!	; 0xfffff5fd
     990:	0402002c 	streq	r0, [r2], #-44	; 0xffffffd4
     994:	05010602 	streq	r0, [r1, #-1538]	; 0xfffff9fe
     998:	04020025 	streq	r0, [r2], #-37	; 0xffffffdb
     99c:	05660601 	strbeq	r0, [r6, #-1537]!	; 0xfffff9ff
     9a0:	04020005 	streq	r0, [r2], #-5
     9a4:	05010601 	streq	r0, [r1, #-1537]	; 0xfffff9ff
     9a8:	054c0609 	strbeq	r0, [ip, #-1545]	; 0xfffff9f7
     9ac:	05010610 	streq	r0, [r1, #-1552]	; 0xfffff9f0
     9b0:	052f0609 	streq	r0, [pc, #-1545]!	; 3af <__code_start__-0x7c51>
     9b4:	0501060e 	streq	r0, [r1, #-1550]	; 0xfffff9f2
     9b8:	0e052e0c 	cdpeq	14, 0, cr2, cr5, cr12, {0}
     9bc:	11054f06 	tstne	r5, r6, lsl #30
     9c0:	0d050106 	stfeqs	f0, [r5, #-24]	; 0xffffffe8
     9c4:	19054c06 	stmdbne	r5, {r1, r2, sl, fp, lr}
     9c8:	0d050106 	stfeqs	f0, [r5, #-24]	; 0xffffffe8
     9cc:	66062f06 	strvs	r2, [r6], -r6, lsl #30
     9d0:	05052e2e 	streq	r2, [r5, #-3630]	; 0xfffff1d2
     9d4:	06011606 	streq	r1, [r1], -r6, lsl #12
     9d8:	132e064a 			; <UNDEFINED> instruction: 0x132e064a
     9dc:	01060805 	tsteq	r6, r5, lsl #16
     9e0:	4b060905 	blmi	182dfc <__bss_end__+0x177b64>
     9e4:	02004a01 	andeq	r4, r0, #4096	; 0x1000
     9e8:	05140104 	ldreq	r0, [r4, #-260]	; 0xfffffefc
     9ec:	04020005 	streq	r0, [r2], #-5
     9f0:	02001401 	andeq	r1, r0, #16777216	; 0x1000000
     9f4:	054b0104 	strbeq	r0, [fp, #-260]	; 0xfffffefc
     9f8:	04020008 	streq	r0, [r2], #-8
     9fc:	05010601 	streq	r0, [r1, #-1537]	; 0xfffff9ff
     a00:	05300609 	ldreq	r0, [r0, #-1545]!	; 0xfffff9f7
     a04:	05010617 	streq	r0, [r1, #-1559]	; 0xfffff9e9
     a08:	09053401 	stmdbeq	r5, {r0, sl, ip, sp}
     a0c:	4a750306 	bmi	1d4162c <__bss_end__+0x1d36394>
     a10:	03010501 	movweq	r0, #5377	; 0x1501
     a14:	01220235 			; <UNDEFINED> instruction: 0x01220235
     a18:	13830505 	orrne	r0, r3, #20971520	; 0x1400000
     a1c:	052f4c4b 	streq	r4, [pc, #-3147]!	; fffffdd9 <__bss_end__+0xffff4b41>
     a20:	1505010a 	strne	r0, [r5, #-266]	; 0xfffffef6
     a24:	054a0106 	strbeq	r0, [sl, #-262]	; 0xfffffefa
     a28:	1b050d27 	blne	143ecc <__bss_end__+0x138c34>
     a2c:	2e0e052e 	cfsh32cs	mvfx0, mvfx14, #30
     a30:	05330505 	ldreq	r0, [r3, #-1285]!	; 0xfffffafb
     a34:	0533060d 	ldreq	r0, [r3, #-1549]!	; 0xfffff9f3
     a38:	05010613 	streq	r0, [r1, #-1555]	; 0xfffff9ed
     a3c:	052f060d 	streq	r0, [pc, #-1549]!	; 437 <__code_start__-0x7bc9>
     a40:	0501061e 	streq	r0, [r1, #-1566]	; 0xfffff9e2
     a44:	0d052e1a 	stceq	14, cr2, [r5, #-104]	; 0xffffff98
     a48:	02042f06 	andeq	r2, r4, #6, 30
     a4c:	ef030b05 	svc	0x00030b05
     a50:	05052e7d 	streq	r2, [r5, #-3709]	; 0xfffff183
     a54:	060c0513 			; <UNDEFINED> instruction: 0x060c0513
     a58:	0104ba01 	tsteq	r4, r1, lsl #20
     a5c:	90030d05 	andls	r0, r3, r5, lsl #26
     a60:	06660102 	strbteq	r0, [r6], -r2, lsl #2
     a64:	0028052f 	eoreq	r0, r8, pc, lsr #10
     a68:	03020402 	movweq	r0, #9218	; 0x2402
     a6c:	2c056678 	stccs	6, cr6, [r5], {120}	; 0x78
     a70:	02040200 	andeq	r0, r4, #0, 4
     a74:	25050106 	strcs	r0, [r5, #-262]	; 0xfffffefa
     a78:	01040200 	mrseq	r0, R12_usr
     a7c:	05056606 	streq	r6, [r5, #-1542]	; 0xfffff9fa
     a80:	01040200 	mrseq	r0, R12_usr
     a84:	09050106 	stmdbeq	r5, {r1, r2, r8}
     a88:	10054c06 	andne	r4, r5, r6, lsl #24
     a8c:	09050106 	stmdbeq	r5, {r1, r2, r8}
     a90:	0e052f06 	cdpeq	15, 0, cr2, cr5, cr6, {0}
     a94:	0c050106 	stfeqs	f0, [r5], {6}
     a98:	0505662e 	streq	r6, [r5, #-1582]	; 0xfffff9d2
     a9c:	01090306 	tsteq	r9, r6, lsl #6
     aa0:	06820601 	streq	r0, [r2], r1, lsl #12
     aa4:	0105142e 	tsteq	r5, lr, lsr #8
     aa8:	06661306 	strbteq	r1, [r6], -r6, lsl #6
     aac:	087dee03 	ldmdaeq	sp!, {r0, r1, r9, sl, fp, sp, lr, pc}^
     ab0:	0501063c 	streq	r0, [r1, #-1596]	; 0xfffff9c4
     ab4:	14830605 	strne	r0, [r3], #1541	; 0x605
     ab8:	04020001 	streq	r0, [r2], #-1
     abc:	02004a02 	andeq	r4, r0, #8192	; 0x2000
     ac0:	00010204 	andeq	r0, r1, r4, lsl #4
     ac4:	13020402 	movwne	r0, #9218	; 0x2402
     ac8:	02000905 	andeq	r0, r0, #81920	; 0x14000
     acc:	01060204 	tsteq	r6, r4, lsl #4
     ad0:	02000805 	andeq	r0, r0, #327680	; 0x50000
     ad4:	054a0204 	strbeq	r0, [sl, #-516]	; 0xfffffdfc
     ad8:	154b0609 	strbne	r0, [fp, #-1545]	; 0xfffff9f7
     adc:	06140513 			; <UNDEFINED> instruction: 0x06140513
     ae0:	09054a01 	stmdbeq	r5, {r0, r9, fp, lr}
     ae4:	12052f06 	andne	r2, r5, #6, 30
     ae8:	09050106 	stmdbeq	r5, {r1, r2, r8}
     aec:	054b4b06 	strbeq	r4, [fp, #-2822]	; 0xfffff4fa
     af0:	05010610 	streq	r0, [r1, #-1552]	; 0xfffff9f0
     af4:	054c0605 	strbeq	r0, [ip, #-1541]	; 0xfffff9fb
     af8:	0501060c 	streq	r0, [r1, #-1548]	; 0xfffff9f4
     afc:	05054b01 	streq	r4, [r5, #-2817]	; 0xfffff4ff
     b00:	01040200 	mrseq	r0, R12_usr
     b04:	4a740306 	bmi	1d01724 <__bss_end__+0x1cf648c>
     b08:	01040200 	mrseq	r0, R12_usr
     b0c:	04020001 	streq	r0, [r2], #-1
     b10:	00ba0601 	adcseq	r0, sl, r1, lsl #12
     b14:	06010402 	streq	r0, [r1], -r2, lsl #8
     b18:	3009052e 	andcc	r0, r9, lr, lsr #10
     b1c:	06820601 	streq	r0, [r2], r1, lsl #12
     b20:	0338052e 	teqeq	r8, #192937984	; 0xb800000
     b24:	74080189 	strvc	r0, [r8], #-393	; 0xfffffe77
     b28:	05050106 	streq	r0, [r5, #-262]	; 0xfffffefa
     b2c:	05138306 	ldreq	r8, [r3, #-774]	; 0xfffffcfa
     b30:	0e05010a 	adfeqs	f0, f5, #2.0
     b34:	09050106 	stmdbeq	r5, {r1, r2, r8}
     b38:	2f05052d 	svccs	0x0005052d
     b3c:	30060d05 	andcc	r0, r6, r5, lsl #26
     b40:	01061205 	tsteq	r6, r5, lsl #4
     b44:	02002105 	andeq	r2, r0, #1073741825	; 0x40000001
     b48:	2c060204 	sfmcs	f0, 4, [r6], {4}
     b4c:	02002205 	andeq	r2, r0, #1342177280	; 0x50000000
     b50:	01060204 	tsteq	r6, r4, lsl #4
     b54:	02001505 	andeq	r1, r0, #20971520	; 0x1400000
     b58:	2e060104 	adfcss	f0, f6, f4
     b5c:	02000505 	andeq	r0, r0, #20971520	; 0x1400000
     b60:	01060104 	tsteq	r6, r4, lsl #2
     b64:	4b060905 	blmi	182f80 <__bss_end__+0x177ce8>
     b68:	01061405 	tsteq	r6, r5, lsl #8
     b6c:	052e0c05 	streq	r0, [lr, #-3077]!	; 0xfffff3fb
     b70:	05f90616 	ldrbeq	r0, [r9, #1558]!	; 0x616
     b74:	05136705 	ldreq	r6, [r3, #-1797]	; 0xfffff8fb
     b78:	1505010a 	strne	r0, [r5, #-266]	; 0xfffffef6
     b7c:	054a0106 	strbeq	r0, [sl, #-262]	; 0xfffffefa
     b80:	05051109 	streq	r1, [r5, #-265]	; 0xfffffef7
     b84:	0611052f 	ldreq	r0, [r1], -pc, lsr #10
     b88:	012e0903 			; <UNDEFINED> instruction: 0x012e0903
     b8c:	2e068206 	cdpcs	2, 0, cr8, cr6, cr6, {0}
     b90:	01040200 	mrseq	r0, R12_usr
     b94:	0009054a 	andeq	r0, r9, sl, asr #10
     b98:	15010402 	strne	r0, [r1, #-1026]	; 0xfffffbfe
     b9c:	02001005 	andeq	r1, r0, #5, 0
     ba0:	01060104 	tsteq	r6, r4, lsl #2
     ba4:	01040200 	mrseq	r0, R12_usr
     ba8:	0028052e 	eoreq	r0, r8, lr, lsr #10
     bac:	06010402 	streq	r0, [r1], -r2, lsl #8
     bb0:	05017403 	streq	r7, [r1, #-1027]	; 0xfffffbfd
     bb4:	0402002c 	streq	r0, [r2], #-44	; 0xffffffd4
     bb8:	05010601 	streq	r0, [r1, #-1537]	; 0xfffff9ff
     bbc:	04020025 	streq	r0, [r2], #-37	; 0xffffffdb
     bc0:	05660602 	strbeq	r0, [r6, #-1538]!	; 0xfffff9fe
     bc4:	04020005 	streq	r0, [r2], #-5
     bc8:	05010602 	streq	r0, [r1, #-1538]	; 0xfffff9fe
     bcc:	134b0609 	movtne	r0, #46601	; 0xb609
     bd0:	01061e05 	tsteq	r6, r5, lsl #28
     bd4:	0609054a 	streq	r0, [r9], -sl, asr #10
     bd8:	0637054b 	ldrteq	r0, [r7], -fp, asr #10
     bdc:	2e3f0501 	cdpcs	5, 3, cr0, cr15, cr1, {0}
     be0:	052e1e05 	streq	r1, [lr, #-3589]!	; 0xfffff1fb
     be4:	0905821b 	stmdbeq	r5, {r0, r1, r3, r4, r9, pc}
     be8:	9e012f06 	cdpls	15, 0, cr2, cr1, cr6, {0}
     bec:	0e05134a 	cdpeq	3, 0, cr1, cr5, cr10, {2}
     bf0:	0c050106 	stfeqs	f0, [r5], {6}
     bf4:	060d052e 	streq	r0, [sp], -lr, lsr #10
     bf8:	0615054b 	ldreq	r0, [r5], -fp, asr #10
     bfc:	060d0501 	streq	r0, [sp], -r1, lsl #10
     c00:	061f0567 	ldreq	r0, [pc], -r7, ror #10
     c04:	060d0501 	streq	r0, [sp], -r1, lsl #10
     c08:	0610052f 	ldreq	r0, [r0], -pc, lsr #10
     c0c:	05056601 	streq	r6, [r5, #-1537]	; 0xfffff9ff
     c10:	01051806 	tsteq	r5, r6, lsl #16
     c14:	062e1306 	strteq	r1, [lr], -r6, lsl #6
     c18:	20082f03 	andcs	r2, r8, r3, lsl #30
     c1c:	05050106 	streq	r0, [r5, #-262]	; 0xfffffefa
     c20:	0c056806 	stceq	8, cr6, [r5], {6}
     c24:	01050106 	tsteq	r5, r6, lsl #2
     c28:	05be062f 	ldreq	r0, [lr, #1583]!	; 0x62f
     c2c:	05136a05 	ldreq	r6, [r3, #-2565]	; 0xfffff5fb
     c30:	05010609 	streq	r0, [r1, #-1545]	; 0xfffff9f7
     c34:	09054a08 	stmdbeq	r5, {r3, r9, fp, lr}
     c38:	01144b06 	tsteq	r4, r6, lsl #22
     c3c:	1305054a 	movwne	r0, #21834	; 0x554a
     c40:	13060105 	movwne	r0, #24837	; 0x6105
     c44:	2a060905 	bcs	183060 <__bss_end__+0x177dc8>
     c48:	01059e01 	tsteq	r5, r1, lsl #28
     c4c:	05056008 	streq	r6, [r5, #-8]
     c50:	1705136a 	strne	r1, [r5, -sl, ror #6]
     c54:	05050106 	streq	r0, [r5, #-262]	; 0xfffffefa
     c58:	08054b06 	stmdaeq	r5, {r1, r2, r8, r9, fp, lr}
     c5c:	09050106 	stmdbeq	r5, {r1, r2, r8}
     c60:	01144b06 	tsteq	r4, r6, lsl #22
     c64:	2e064a06 	vmlacs.f32	s8, s12, s12
     c68:	13130505 	tstne	r3, #20971520	; 0x1400000
     c6c:	13060105 	movwne	r0, #24837	; 0x6105
     c70:	45060905 	strmi	r0, [r6, #-2309]	; 0xfffff6fb
     c74:	01059e01 	tsteq	r5, r1, lsl #28
     c78:	05f22103 	ldrbeq	r2, [r2, #259]!	; 0x103
     c7c:	052f6705 	streq	r6, [pc, #-1797]!	; 57f <__code_start__-0x7a81>
     c80:	05010617 	streq	r0, [r1, #-1559]	; 0xfffff9e9
     c84:	05320605 	ldreq	r0, [r2, #-1541]!	; 0xfffff9fb
     c88:	06130601 	ldreq	r0, [r3], -r1, lsl #12
     c8c:	670505bd 			; <UNDEFINED> instruction: 0x670505bd
     c90:	08029e01 	stmdaeq	r2, {r0, r9, sl, fp, ip, pc}
     c94:	36010100 	strcc	r0, [r1], -r0, lsl #2
     c98:	03000001 	movweq	r0, #1
     c9c:	00005b00 	andeq	r5, r0, r0, lsl #22
     ca0:	fb010200 	blx	414aa <__bss_end__+0x36212>
     ca4:	01000d0e 	tsteq	r0, lr, lsl #26
     ca8:	00010101 	andeq	r0, r1, r1, lsl #2
     cac:	00010000 	andeq	r0, r1, r0
     cb0:	2f2e0100 	svccs	0x002e0100
     cb4:	00637273 	rsbeq	r7, r3, r3, ror r2
     cb8:	6573552f 	ldrbvs	r5, [r3, #-1327]!	; 0xfffffad1
     cbc:	6d2f7372 	stcvs	3, cr7, [pc, #-456]!	; afc <__code_start__-0x7504>
     cc0:	73656c69 	cmnvc	r5, #26880	; 0x6900
     cc4:	756f532f 	strbvc	r5, [pc, #-815]!	; 99d <__code_start__-0x7663>
     cc8:	2f656372 	svccs	0x00656372
     ccc:	34327363 	ldrtcc	r7, [r2], #-867	; 0xfffffc9d
     cd0:	2f786c30 	svccs	0x00786c30
     cd4:	7062696c 	rsbvc	r6, r2, ip, ror #18
     cd8:	6e692f69 	cdpvs	15, 6, cr2, cr9, cr9, {3}
     cdc:	64756c63 	ldrbtvs	r6, [r5], #-3171	; 0xfffff39d
     ce0:	62000065 	andvs	r0, r0, #101, 0	; 0x65
     ce4:	746b6361 	strbtvc	r6, [fp], #-865	; 0xfffffc9f
     ce8:	65636172 	strbvs	r6, [r3, #-370]!	; 0xfffffe8e
     cec:	0100632e 	tsteq	r0, lr, lsr #6
     cf0:	70720000 	rsbsvc	r0, r2, r0
     cf4:	00682e69 	rsbeq	r2, r8, r9, ror #28
     cf8:	00000002 	andeq	r0, r0, r2
     cfc:	05001105 	streq	r1, [r0, #-261]	; 0xfffffefb
     d00:	008f0002 	addeq	r0, pc, r2
     d04:	011c0300 	tsteq	ip, r0, lsl #6
     d08:	13130505 	tstne	r3, #20971520	; 0x1400000
     d0c:	10061105 	andne	r1, r6, r5, lsl #2
     d10:	06300505 	ldrteq	r0, [r0], -r5, lsl #10
     d14:	010a0530 	tsteq	sl, r0, lsr r5
     d18:	05011505 	streq	r1, [r1, #-1285]	; 0xfffffafb
     d1c:	05010605 	streq	r0, [r1, #-1541]	; 0xfffff9fb
     d20:	10054a0e 	andne	r4, r5, lr, lsl #20
     d24:	052e2703 	streq	r2, [lr, #-1795]!	; 0xfffff8fd
     d28:	2e5b0309 	cdpcs	3, 5, cr0, cr11, cr9, {0}
     d2c:	002f054a 	eoreq	r0, pc, sl, asr #10
     d30:	10020402 	andne	r0, r2, r2, lsl #8
     d34:	02001505 	andeq	r1, r0, #20971520	; 0x1400000
     d38:	2e060204 	cdpcs	2, 0, cr0, cr6, cr4, {0}
     d3c:	02000505 	andeq	r0, r0, #20971520	; 0x1400000
     d40:	01060204 	tsteq	r6, r4, lsl #4
     d44:	4b060905 	blmi	183160 <__bss_end__+0x177ec8>
     d48:	05012303 	streq	r2, [r1, #-771]	; 0xfffffcfd
     d4c:	5d030617 	stcpl	6, cr0, [r3, #-92]	; 0xffffffa4
     d50:	2f090501 	svccs	0x00090501
     d54:	20030e05 	andcs	r0, r3, r5, lsl #28
     d58:	0609052e 	streq	r0, [r9], -lr, lsr #10
     d5c:	06120531 			; <UNDEFINED> instruction: 0x06120531
     d60:	05015c03 	streq	r5, [r1, #-3075]	; 0xfffff3fd
     d64:	052f0609 	streq	r0, [pc, #-1545]!	; 763 <__code_start__-0x789d>
     d68:	011f030d 	tsteq	pc, sp, lsl #6
     d6c:	13130505 	tstne	r3, #20971520	; 0x1400000
     d70:	01060805 	tsteq	r6, r5, lsl #16
     d74:	052d3105 	streq	r3, [sp, #-261]!	; 0xfffffefb
     d78:	31053012 	tstcc	r5, r2, lsl r0
     d7c:	10052e2f 	andne	r2, r5, pc, lsr #28
     d80:	09052e14 	stmdbeq	r5, {r2, r4, r9, sl, fp, sp}
     d84:	06015b03 	streq	r5, [r1], -r3, lsl #22
     d88:	0f2e054b 	svceq	0x002e054b
     d8c:	15061f05 	strne	r1, [r6, #-3845]	; 0xfffff0fb
     d90:	2f060905 	svccs	0x00060905
     d94:	01060c05 	tsteq	r6, r5, lsl #24
     d98:	05500105 	ldrbeq	r0, [r0, #-261]	; 0xfffffefb
     d9c:	0105490c 	tsteq	r5, ip, lsl #18
     da0:	062d052f 	strteq	r0, [sp], -pc, lsr #10
     da4:	05821703 	streq	r1, [r2, #1795]	; 0x703
     da8:	0e051305 	cdpeq	3, 0, cr1, cr5, cr5, {0}
     dac:	05050106 	streq	r0, [r5, #-262]	; 0xfffffefa
     db0:	31052f06 	tstcc	r5, r6, lsl #30
     db4:	08051106 	stmdaeq	r5, {r1, r2, r8, ip}
     db8:	0609052f 	streq	r0, [r9], -pc, lsr #10
     dbc:	1205132f 	andne	r1, r5, #-1140850688	; 0xbc000000
     dc0:	31051106 	tstcc	r5, r6, lsl #2
     dc4:	10052e2f 	andne	r2, r5, pc, lsr #28
     dc8:	30010514 	andcc	r0, r1, r4, lsl r5
     dcc:	01000402 	tsteq	r0, r2, lsl #8
     dd0:	00012101 	andeq	r2, r1, r1, lsl #2
     dd4:	be000300 	cdplt	3, 0, cr0, cr0, cr0, {0}
     dd8:	02000000 	andeq	r0, r0, #0, 0
     ddc:	0d0efb01 	vstreq	d15, [lr, #-4]
     de0:	01010100 	mrseq	r0, (UNDEF: 17)
     de4:	00000001 	andeq	r0, r0, r1
     de8:	01000001 	tsteq	r0, r1
     dec:	696c2f2e 	stmdbvs	ip!, {r1, r2, r3, r5, r8, r9, sl, fp, sp}^
     df0:	2f006362 	svccs	0x00006362
     df4:	72657355 	rsbvc	r7, r5, #1409286145	; 0x54000001
     df8:	696d2f73 	stmdbvs	sp!, {r0, r1, r4, r5, r6, r8, r9, sl, fp, sp}^
     dfc:	2f73656c 	svccs	0x0073656c
     e00:	72756f53 	rsbsvc	r6, r5, #332	; 0x14c
     e04:	632f6563 			; <UNDEFINED> instruction: 0x632f6563
     e08:	30343273 	eorscc	r3, r4, r3, ror r2
     e0c:	6c2f786c 	stcvs	8, cr7, [pc], #-432	; c64 <__code_start__-0x739c>
     e10:	69706269 	ldmdbvs	r0!, {r0, r3, r5, r6, r9, sp, lr}^
     e14:	636e692f 	cmnvs	lr, #770048	; 0xbc000
     e18:	6564756c 	strbvs	r7, [r4, #-1388]!	; 0xfffffa94
     e1c:	706f2f00 	rsbvc	r2, pc, r0, lsl #30
     e20:	6f682f74 	svcvs	0x00682f74
     e24:	7262656d 	rsbvc	r6, r2, #457179136	; 0x1b400000
     e28:	432f7765 			; <UNDEFINED> instruction: 0x432f7765
     e2c:	616c6c65 	cmnvs	ip, r5, ror #24
     e30:	72612f72 	rsbvc	r2, r1, #456	; 0x1c8
     e34:	6f6e2d6d 	svcvs	0x006e2d6d
     e38:	652d656e 	strvs	r6, [sp, #-1390]!	; 0xfffffa92
     e3c:	2d696261 	sfmcs	f6, 2, [r9, #-388]!	; 0xfffffe7c
     e40:	2d392f39 	ldccs	15, cr2, [r9, #-228]!	; 0xffffff1c
     e44:	39313032 	ldmdbcc	r1!, {r1, r4, r5, ip, sp}
     e48:	632d3471 			; <UNDEFINED> instruction: 0x632d3471
     e4c:	37303173 			; <UNDEFINED> instruction: 0x37303173
     e50:	696c2f65 	stmdbvs	ip!, {r0, r2, r5, r6, r8, r9, sl, fp, sp}^
     e54:	63672f62 	cmnvs	r7, #392	; 0x188
     e58:	72612f63 	rsbvc	r2, r1, #396	; 0x18c
     e5c:	6f6e2d6d 	svcvs	0x006e2d6d
     e60:	652d656e 	strvs	r6, [sp, #-1390]!	; 0xfffffa92
     e64:	2f696261 	svccs	0x00696261
     e68:	2e322e39 	mrccs	14, 1, r2, cr2, cr9, {1}
     e6c:	6e692f31 	mcrvs	15, 3, r2, cr9, cr1, {1}
     e70:	64756c63 	ldrbtvs	r6, [r5], #-3171	; 0xfffff39d
     e74:	6d000065 	stcvs	0, cr0, [r0, #-404]	; 0xfffffe6c
     e78:	65736d65 	ldrbvs	r6, [r3, #-3429]!	; 0xfffff29b
     e7c:	00632e74 	rsbeq	r2, r3, r4, ror lr
     e80:	72000001 	andvc	r0, r0, #1, 0
     e84:	682e6970 	stmdavs	lr!, {r4, r5, r6, r8, fp, sp, lr}
     e88:	00000200 	andeq	r0, r0, r0, lsl #4
     e8c:	64647473 	strbtvs	r7, [r4], #-1139	; 0xfffffb8d
     e90:	682e6665 	stmdavs	lr!, {r0, r2, r5, r6, r9, sl, sp, lr}
     e94:	00000300 	andeq	r0, r0, r0, lsl #6
     e98:	00290500 	eoreq	r0, r9, r0, lsl #10
     e9c:	8fa00205 	svchi	0x00a00205
     ea0:	05150000 	ldreq	r0, [r5, #-0]
     ea4:	29051305 	stmdbcs	r5, {r0, r2, r8, r9, ip}
     ea8:	14051106 	strne	r1, [r5], #-262	; 0xfffffefa
     eac:	0605052f 	streq	r0, [r5], -pc, lsr #10
     eb0:	010a0530 	tsteq	sl, r0, lsr r5
     eb4:	09059e06 	stmdbeq	r5, {r1, r2, r9, sl, fp, ip, pc}
     eb8:	0e05d706 	cdpeq	7, 0, cr13, cr5, cr6, {0}
     ebc:	0a050106 	beq	1412dc <__bss_end__+0x136044>
     ec0:	09052d06 	stmdbeq	r5, {r1, r2, r8, sl, fp, sp}
     ec4:	060e05bb 			; <UNDEFINED> instruction: 0x060e05bb
     ec8:	0a052e01 	beq	14c6d4 <__bss_end__+0x14143c>
     ecc:	09052d06 	stmdbeq	r5, {r1, r2, r8, sl, fp, sp}
     ed0:	060b054b 	streq	r0, [fp], -fp, asr #10
     ed4:	2d0a0501 	cfstr32cs	mvfx0, [sl, #-4]
     ed8:	052f0e05 	streq	r0, [pc, #-3589]!	; db <__code_start__-0x7f25>
     edc:	052d060a 	streq	r0, [sp, #-1546]!	; 0xfffff9f6
     ee0:	0513060e 	ldreq	r0, [r3, #-1550]	; 0xfffff9f2
     ee4:	052e0609 	streq	r0, [lr, #-1545]!	; 0xfffff9f7
     ee8:	0505110a 	streq	r1, [r5, #-266]	; 0xfffffef6
     eec:	06010514 			; <UNDEFINED> instruction: 0x06010514
     ef0:	00020213 	andeq	r0, r2, r3, lsl r2
     ef4:	01200101 			; <UNDEFINED> instruction: 0x01200101
     ef8:	00030000 	andeq	r0, r3, r0
     efc:	000000db 	ldrdeq	r0, [r0], -fp
     f00:	0efb0102 	cdpeq	1, 15, cr0, cr11, cr2, {0}
     f04:	0101000d 	tsteq	r1, sp
     f08:	00000101 	andeq	r0, r0, r1, lsl #2
     f0c:	00000100 	andeq	r0, r0, r0, lsl #2
     f10:	6c2f2e01 	stcvs	14, cr2, [pc], #-4	; f14 <__code_start__-0x70ec>
     f14:	00636269 	rsbeq	r6, r3, r9, ror #4
     f18:	74706f2f 	ldrbtvc	r6, [r0], #-3887	; 0xfffff0d1
     f1c:	6d6f682f 	stclvs	8, cr6, [pc, #-188]!	; e68 <__code_start__-0x7198>
     f20:	65726265 	ldrbvs	r6, [r2, #-613]!	; 0xfffffd9b
     f24:	65432f77 	strbvs	r2, [r3, #-3959]	; 0xfffff089
     f28:	72616c6c 	rsbvc	r6, r1, #108, 24	; 0x6c00
     f2c:	6d72612f 	ldfvse	f6, [r2, #-188]!	; 0xffffff44
     f30:	6e6f6e2d 	cdpvs	14, 6, cr6, cr15, cr13, {1}
     f34:	61652d65 	cmnvs	r5, r5, ror #26
     f38:	392d6962 	pushcc	{r1, r5, r6, r8, fp, sp, lr}
     f3c:	322d392f 	eorcc	r3, sp, #770048	; 0xbc000
     f40:	71393130 	teqvc	r9, r0, lsr r1
     f44:	73632d34 	cmnvc	r3, #52, 26	; 0xd00
     f48:	65373031 	ldrvs	r3, [r7, #-49]!	; 0xffffffcf
     f4c:	62696c2f 	rsbvs	r6, r9, #12032	; 0x2f00
     f50:	6363672f 	cmnvs	r3, #12320768	; 0xbc0000
     f54:	6d72612f 	ldfvse	f6, [r2, #-188]!	; 0xffffff44
     f58:	6e6f6e2d 	cdpvs	14, 6, cr6, cr15, cr13, {1}
     f5c:	61652d65 	cmnvs	r5, r5, ror #26
     f60:	392f6962 	stmdbcc	pc!, {r1, r5, r6, r8, fp, sp, lr}	; <UNPREDICTABLE>
     f64:	312e322e 			; <UNDEFINED> instruction: 0x312e322e
     f68:	636e692f 	cmnvs	lr, #770048	; 0xbc000
     f6c:	6564756c 	strbvs	r7, [r4, #-1388]!	; 0xfffffa94
     f70:	73552f00 	cmpvc	r5, #0, 30
     f74:	2f737265 	svccs	0x00737265
     f78:	656c696d 	strbvs	r6, [ip, #-2413]!	; 0xfffff693
     f7c:	6f532f73 	svcvs	0x00532f73
     f80:	65637275 	strbvs	r7, [r3, #-629]!	; 0xfffffd8b
     f84:	3273632f 	rsbscc	r6, r3, #-1140850688	; 0xbc000000
     f88:	786c3034 	stmdavc	ip!, {r2, r4, r5, ip, sp}^
     f8c:	62696c2f 	rsbvs	r6, r9, #12032	; 0x2f00
     f90:	692f6970 	stmdbvs	pc!, {r4, r5, r6, r8, fp, sp, lr}	; <UNPREDICTABLE>
     f94:	756c636e 	strbvc	r6, [ip, #-878]!	; 0xfffffc92
     f98:	00006564 	andeq	r6, r0, r4, ror #10
     f9c:	6e697270 	mcrvs	2, 3, r7, cr9, cr0, {3}
     fa0:	632e6b74 			; <UNDEFINED> instruction: 0x632e6b74
     fa4:	00000100 	andeq	r0, r0, r0, lsl #2
     fa8:	61647473 	smcvs	18243	; 0x4743
     fac:	682e6772 	stmdavs	lr!, {r1, r4, r5, r6, r8, r9, sl, sp, lr}
     fb0:	00000200 	andeq	r0, r0, r0, lsl #4
     fb4:	2e697072 	mcrcs	0, 3, r7, cr9, cr2, {3}
     fb8:	00030068 	andeq	r0, r3, r8, rrx
     fbc:	75623c00 	strbvc	r3, [r2, #-3072]!	; 0xfffff400
     fc0:	2d746c69 	ldclcs	12, cr6, [r4, #-420]!	; 0xfffffe5c
     fc4:	003e6e69 	eorseq	r6, lr, r9, ror #28
     fc8:	76000000 	strvc	r0, [r0], -r0
     fcc:	72702d61 	rsbsvc	r2, r0, #6208	; 0x1840
     fd0:	6b746e69 	blvs	1d1c97c <__bss_end__+0x1d116e4>
     fd4:	0100682e 	tsteq	r0, lr, lsr #16
     fd8:	05000000 	streq	r0, [r0, #-0]
     fdc:	02050022 	andeq	r0, r5, #34, 0	; 0x22
     fe0:	00009018 	andeq	r9, r0, r8, lsl r0
     fe4:	14050517 	strne	r0, [r5], #-1303	; 0xfffffae9
     fe8:	22051413 	andcs	r1, r5, #318767104	; 0x13000000
     fec:	12050d06 	andne	r0, r5, #384	; 0x180
     ff0:	03220550 			; <UNDEFINED> instruction: 0x03220550
     ff4:	05052e7a 	streq	r2, [r5, #-3706]	; 0xfffff186
     ff8:	2f120533 	svccs	0x00120533
     ffc:	05650505 	strbeq	r0, [r5, #-1285]!	; 0xfffffafb
    1000:	052f0609 	streq	r0, [pc, #-1545]!	; 9ff <__code_start__-0x7601>
    1004:	05010612 	streq	r0, [r1, #-1554]	; 0xfffff9ee
    1008:	164b0605 	strbne	r0, [fp], -r5, lsl #12
    100c:	50064a06 	andpl	r4, r6, r6, lsl #20
    1010:	13060105 	movwne	r0, #24837	; 0x6105
    1014:	00080266 	andeq	r0, r8, r6, ror #4
    1018:	00a00101 	adceq	r0, r0, r1, lsl #2
    101c:	00030000 	andeq	r0, r3, r0
    1020:	00000057 	andeq	r0, r0, r7, asr r0
    1024:	0efb0102 	cdpeq	1, 15, cr0, cr11, cr2, {0}
    1028:	0101000d 	tsteq	r1, sp
    102c:	00000101 	andeq	r0, r0, r1, lsl #2
    1030:	00000100 	andeq	r0, r0, r0, lsl #2
    1034:	6c2f2e01 	stcvs	14, cr2, [pc], #-4	; 1038 <__code_start__-0x6fc8>
    1038:	00636269 	rsbeq	r6, r3, r9, ror #4
    103c:	6573552f 	ldrbvs	r5, [r3, #-1327]!	; 0xfffffad1
    1040:	6d2f7372 	stcvs	3, cr7, [pc, #-456]!	; e80 <__code_start__-0x7180>
    1044:	73656c69 	cmnvc	r5, #26880	; 0x6900
    1048:	756f532f 	strbvc	r5, [pc, #-815]!	; d21 <__code_start__-0x72df>
    104c:	2f656372 	svccs	0x00656372
    1050:	34327363 	ldrtcc	r7, [r2], #-867	; 0xfffffc9d
    1054:	2f786c30 	svccs	0x00786c30
    1058:	7062696c 	rsbvc	r6, r2, ip, ror #18
    105c:	6e692f69 	cdpvs	15, 6, cr2, cr9, cr9, {3}
    1060:	64756c63 	ldrbtvs	r6, [r5], #-3171	; 0xfffff39d
    1064:	70000065 	andvc	r0, r0, r5, rrx
    1068:	2e6b7475 	mcrcs	4, 3, r7, cr11, cr5, {3}
    106c:	00010063 	andeq	r0, r1, r3, rrx
    1070:	69707200 	ldmdbvs	r0!, {r9, ip, sp, lr}^
    1074:	0200682e 	andeq	r6, r0, #3014656	; 0x2e0000
    1078:	05000000 	streq	r0, [r0, #-0]
    107c:	02050022 	andeq	r0, r5, #34, 0	; 0x22
    1080:	00009070 	andeq	r9, r0, r0, ror r0
    1084:	13050515 	movwne	r0, #21781	; 0x5515
    1088:	11062205 	tstne	r6, r5, lsl #4
    108c:	060b052e 	streq	r0, [fp], -lr, lsr #10
    1090:	0605052f 	streq	r0, [r5], -pc, lsr #10
    1094:	0009052e 	andeq	r0, r9, lr, lsr #10
    1098:	06020402 	streq	r0, [r2], -r2, lsl #8
    109c:	000f0567 	andeq	r0, pc, r7, ror #10
    10a0:	49020402 	stmdbmi	r2, {r1, sl}
    10a4:	02000b05 	andeq	r0, r0, #5120	; 0x1400
    10a8:	05010204 	streq	r0, [r1, #-516]	; 0xfffffdfc
    10ac:	04020005 	streq	r0, [r2], #-5
    10b0:	062e0602 	strteq	r0, [lr], -r2, lsl #12
    10b4:	0601054e 	streq	r0, [r1], -lr, asr #10
    10b8:	00060213 	andeq	r0, r6, r3, lsl r2
    10bc:	08fa0101 	ldmeq	sl!, {r0, r8}^
    10c0:	00030000 	andeq	r0, r3, r0
    10c4:	000000f1 	strdeq	r0, [r0], -r1
    10c8:	0efb0102 	cdpeq	1, 15, cr0, cr11, cr2, {0}
    10cc:	0101000d 	tsteq	r1, sp
    10d0:	00000101 	andeq	r0, r0, r1, lsl #2
    10d4:	00000100 	andeq	r0, r0, r0, lsl #2
    10d8:	6c2f2e01 	stcvs	14, cr2, [pc], #-4	; 10dc <__code_start__-0x6f24>
    10dc:	00636269 	rsbeq	r6, r3, r9, ror #4
    10e0:	74706f2f 	ldrbtvc	r6, [r0], #-3887	; 0xfffff0d1
    10e4:	6d6f682f 	stclvs	8, cr6, [pc, #-188]!	; 1030 <__code_start__-0x6fd0>
    10e8:	65726265 	ldrbvs	r6, [r2, #-613]!	; 0xfffffd9b
    10ec:	65432f77 	strbvs	r2, [r3, #-3959]	; 0xfffff089
    10f0:	72616c6c 	rsbvc	r6, r1, #108, 24	; 0x6c00
    10f4:	6d72612f 	ldfvse	f6, [r2, #-188]!	; 0xffffff44
    10f8:	6e6f6e2d 	cdpvs	14, 6, cr6, cr15, cr13, {1}
    10fc:	61652d65 	cmnvs	r5, r5, ror #26
    1100:	392d6962 	pushcc	{r1, r5, r6, r8, fp, sp, lr}
    1104:	322d392f 	eorcc	r3, sp, #770048	; 0xbc000
    1108:	71393130 	teqvc	r9, r0, lsr r1
    110c:	73632d34 	cmnvc	r3, #52, 26	; 0xd00
    1110:	65373031 	ldrvs	r3, [r7, #-49]!	; 0xffffffcf
    1114:	62696c2f 	rsbvs	r6, r9, #12032	; 0x2f00
    1118:	6363672f 	cmnvs	r3, #12320768	; 0xbc0000
    111c:	6d72612f 	ldfvse	f6, [r2, #-188]!	; 0xffffff44
    1120:	6e6f6e2d 	cdpvs	14, 6, cr6, cr15, cr13, {1}
    1124:	61652d65 	cmnvs	r5, r5, ror #26
    1128:	392f6962 	stmdbcc	pc!, {r1, r5, r6, r8, fp, sp, lr}	; <UNPREDICTABLE>
    112c:	312e322e 			; <UNDEFINED> instruction: 0x312e322e
    1130:	636e692f 	cmnvs	lr, #770048	; 0xbc000
    1134:	6564756c 	strbvs	r7, [r4, #-1388]!	; 0xfffffa94
    1138:	73552f00 	cmpvc	r5, #0, 30
    113c:	2f737265 	svccs	0x00737265
    1140:	656c696d 	strbvs	r6, [ip, #-2413]!	; 0xfffff693
    1144:	6f532f73 	svcvs	0x00532f73
    1148:	65637275 	strbvs	r7, [r3, #-629]!	; 0xfffffd8b
    114c:	3273632f 	rsbscc	r6, r3, #-1140850688	; 0xbc000000
    1150:	786c3034 	stmdavc	ip!, {r2, r4, r5, ip, sp}^
    1154:	62696c2f 	rsbvs	r6, r9, #12032	; 0x2f00
    1158:	692f6970 	stmdbvs	pc!, {r4, r5, r6, r8, fp, sp, lr}	; <UNPREDICTABLE>
    115c:	756c636e 	strbvc	r6, [ip, #-878]!	; 0xfffffc92
    1160:	00006564 	andeq	r6, r0, r4, ror #10
    1164:	702d6176 	eorvc	r6, sp, r6, ror r1
    1168:	746e6972 	strbtvc	r6, [lr], #-2418	; 0xfffff68e
    116c:	00632e6b 	rsbeq	r2, r3, fp, ror #28
    1170:	73000001 	movwvc	r0, #1
    1174:	6e696474 	mcrvs	4, 3, r6, cr9, cr4, {3}
    1178:	63672d74 	cmnvs	r7, #116, 26	; 0x1d00
    117c:	00682e63 	rsbeq	r2, r8, r3, ror #28
    1180:	72000002 	andvc	r0, r0, #2, 0
    1184:	682e6970 	stmdavs	lr!, {r4, r5, r6, r8, fp, sp, lr}
    1188:	00000300 	andeq	r0, r0, r0, lsl #6
    118c:	2d697072 	stclcs	0, cr7, [r9, #-456]!	; 0xfffffe38
    1190:	65746e69 	ldrbvs	r6, [r4, #-3689]!	; 0xfffff197
    1194:	6c616e72 	stclvs	14, cr6, [r1], #-456	; 0xfffffe38
    1198:	0300682e 	movweq	r6, #2094	; 0x82e
    119c:	74730000 	ldrbtvc	r0, [r3], #-0
    11a0:	67726164 	ldrbvs	r6, [r2, -r4, ror #2]!
    11a4:	0200682e 	andeq	r6, r0, #3014656	; 0x2e0000
    11a8:	623c0000 	eorsvs	r0, ip, #0, 0
    11ac:	746c6975 	strbtvc	r6, [ip], #-2421	; 0xfffff68b
    11b0:	3e6e692d 	vmulcc.f16	s13, s28, s27	; <UNPREDICTABLE>
    11b4:	00000000 	andeq	r0, r0, r0
    11b8:	00010500 	andeq	r0, r1, r0, lsl #10
    11bc:	90a80205 	adcls	r0, r8, r5, lsl #4
    11c0:	c8030000 	stmdagt	r3, {}	; <UNPREDICTABLE>
    11c4:	02050100 	andeq	r0, r5, #0
    11c8:	06010514 			; <UNDEFINED> instruction: 0x06010514
    11cc:	30040510 	andcc	r0, r4, r0, lsl r5
    11d0:	4a2c0105 	bmi	b015ec <__bss_end__+0xaf6354>
    11d4:	05300405 	ldreq	r0, [r0, #-1029]!	; 0xfffffbfb
    11d8:	13310602 	teqne	r1, #2097152	; 0x200000
    11dc:	2e060b05 	vmlacs.f64	d0, d6, d5
    11e0:	30060205 	andcc	r0, r6, r5, lsl #4
    11e4:	02060905 	andeq	r0, r6, #81920	; 0x14000
    11e8:	2e2e0d24 	cdpcs	13, 2, cr0, cr14, cr4, {1}
    11ec:	03060d05 	movweq	r0, #27909	; 0x6d05
    11f0:	11054a17 	tstne	r5, r7, lsl sl
    11f4:	062d0513 			; <UNDEFINED> instruction: 0x062d0513
    11f8:	2e160501 	cfmul32cs	mvfx0, mvfx6, mvfx1
    11fc:	052f0d05 	streq	r0, [pc, #-3333]!	; 4ff <__code_start__-0x7b01>
    1200:	14052d16 	strne	r2, [r5], #-3350	; 0xfffff2ea
    1204:	17052f06 	strne	r2, [r5, -r6, lsl #30]
    1208:	0d050106 	stfeqs	f0, [r5, #-24]	; 0xffffffe8
    120c:	052f062e 	streq	r0, [pc, #-1582]!	; be6 <__code_start__-0x741a>
    1210:	2e010612 	mcrcs	6, 0, r0, cr1, cr2, {0}
    1214:	0d052d2f 	stceq	13, cr2, [r5, #-188]	; 0xffffff44
    1218:	12052f06 	andne	r2, r5, #6, 30
    121c:	19050106 	stmdbne	r5, {r1, r2, r8}
    1220:	04052f06 	streq	r2, [r5], #-3846	; 0xfffff0fa
    1224:	01011103 	tsteq	r1, r3, lsl #2
    1228:	05150205 	ldreq	r0, [r5, #-517]	; 0xfffffdfb
    122c:	7fb2030e 	svcvc	0x00b2030e
    1230:	13020501 	movwne	r0, #9473	; 0x2501
    1234:	01060605 	tsteq	r6, r5, lsl #12
    1238:	30060205 	andcc	r0, r6, r5, lsl #4
    123c:	05010805 	streq	r0, [r1, #-2053]	; 0xfffff7fb
    1240:	4a010602 	bmi	42a50 <__bss_end__+0x377b8>
    1244:	91080805 	tstls	r8, r5, lsl #16
    1248:	4a060305 	bmi	181e64 <__bss_end__+0x176bcc>
    124c:	01060805 	tsteq	r6, r5, lsl #16
    1250:	2d061505 	cfstr32cs	mvfx1, [r6, #-20]	; 0xffffffec
    1254:	05010805 	streq	r0, [r1, #-2053]	; 0xfffff7fb
    1258:	0805d703 	stmdaeq	r5, {r0, r1, r8, r9, sl, ip, lr, pc}
    125c:	18050106 	stmdane	r5, {r1, r2, r8}
    1260:	2e02052d 	cfsh32cs	mvfx0, mvfx2, #29
    1264:	052f0805 	streq	r0, [pc, #-2053]!	; a67 <__code_start__-0x7599>
    1268:	052d0615 	streq	r0, [sp, #-1557]!	; 0xfffff9eb
    126c:	02050108 	andeq	r0, r5, #2
    1270:	03050106 	movweq	r0, #20742	; 0x5106
    1274:	18052f06 	stmdane	r5, {r1, r2, r8, r9, sl, fp, sp}
    1278:	02051106 	andeq	r1, r5, #-2147483647	; 0x80000001
    127c:	2f08052e 	svccs	0x0008052e
    1280:	2d061505 	cfstr32cs	mvfx1, [r6, #-20]	; 0xffffffec
    1284:	05010805 	streq	r0, [r1, #-2053]	; 0xfffff7fb
    1288:	08051303 	stmdaeq	r5, {r0, r1, r8, r9, ip}
    128c:	15050106 	strne	r0, [r5, #-262]	; 0xfffffefa
    1290:	08052d06 	stmdaeq	r5, {r1, r2, r8, sl, fp, sp}
    1294:	05010601 	streq	r0, [r1, #-1537]	; 0xfffff9ff
    1298:	05a00602 	streq	r0, [r0, #1538]!	; 0x602
    129c:	05010605 	streq	r0, [r1, #-1541]	; 0xfffff9fb
    12a0:	11053604 	tstne	r5, r4, lsl #12
    12a4:	2e09052f 	cfsh32cs	mvfx0, mvfx9, #31
    12a8:	05330205 	ldreq	r0, [r3, #-517]!	; 0xfffffdfb
    12ac:	2e720305 	cdpcs	3, 7, cr0, cr2, cr5, {0}
    12b0:	2f060205 	svccs	0x00060205
    12b4:	0e050106 	adfeqs	f0, f5, f6
    12b8:	02051606 	andeq	r1, r5, #6291456	; 0x600000
    12bc:	03051314 	movweq	r1, #21268	; 0x5314
    12c0:	14020513 	strne	r0, [r2], #-1299	; 0xfffffaed
    12c4:	010b0515 	tsteq	fp, r5, lsl r5
    12c8:	01060205 	tsteq	r6, r5, lsl #4
    12cc:	0603052e 	streq	r0, [r3], -lr, lsr #10
    12d0:	060a0567 	streq	r0, [sl], -r7, ror #10
    12d4:	2d020501 	cfstr32cs	mvfx0, [r2, #-4]
    12d8:	052f0a05 	streq	r0, [pc, #-2565]!	; 8db <__code_start__-0x7725>
    12dc:	052d0617 	streq	r0, [sp, #-1559]!	; 0xfffff9e9
    12e0:	0205010b 	andeq	r0, r5, #-1073741822	; 0xc0000002
    12e4:	09050106 	stmdbeq	r5, {r1, r2, r8}
    12e8:	02052e4c 	andeq	r2, r5, #76, 28	; 0x4c0
    12ec:	09052e06 	stmdbeq	r5, {r1, r2, r9, sl, fp, sp}
    12f0:	02050106 	andeq	r0, r5, #-2147483647	; 0x80000001
    12f4:	01063006 	tsteq	r6, r6
    12f8:	38030105 	stmdacc	r3, {r0, r2, r8}
    12fc:	03090501 	movweq	r0, #38145	; 0x9501
    1300:	2e2e4a4f 	vnmulcs.f32	s8, s28, s30
    1304:	03061905 	movweq	r1, #26885	; 0x6905
    1308:	1a054a27 	bne	153bac <__bss_end__+0x148914>
    130c:	06280513 			; <UNDEFINED> instruction: 0x06280513
    1310:	2e1f0501 	cfmul32cs	mvfx0, mvfx15, mvfx1
    1314:	052f0405 	streq	r0, [pc, #-1029]!	; f17 <__code_start__-0x70e9>
    1318:	0b052d1f 	bleq	14c79c <__bss_end__+0x141504>
    131c:	0e052f06 	cdpeq	15, 0, cr2, cr5, cr6, {0}
    1320:	04050106 	streq	r0, [r5], #-262	; 0xfffffefa
    1324:	0602052e 	streq	r0, [r2], -lr, lsr #10
    1328:	134a5903 	movtne	r5, #43267	; 0xa903
    132c:	2e060b05 	vmlacs.f64	d0, d6, d5
    1330:	30060205 	andcc	r0, r6, r5, lsl #4
    1334:	02060905 	andeq	r0, r6, #81920	; 0x14000
    1338:	04050d24 	streq	r0, [r5], #-3364	; 0xfffff2dc
    133c:	05133606 	ldreq	r3, [r3, #-1542]	; 0xfffff9fa
    1340:	05010606 	streq	r0, [r1, #-1542]	; 0xfffff9fa
    1344:	13670605 	cmnne	r7, #5242880	; 0x500000
    1348:	06090513 			; <UNDEFINED> instruction: 0x06090513
    134c:	2b0d0511 	blcs	342798 <__bss_end__+0x337500>
    1350:	05300b05 	ldreq	r0, [r0, #-2821]!	; 0xfffff4fb
    1354:	1b052c0d 	blne	14c390 <__bss_end__+0x1410f8>
    1358:	06040535 			; <UNDEFINED> instruction: 0x06040535
    135c:	1305052d 	movwne	r0, #21805	; 0x552d
    1360:	2e061b05 	vmlacs.f64	d1, d6, d5
    1364:	05820a05 	streq	r0, [r2, #2565]	; 0xa05
    1368:	0e052f04 	cdpeq	15, 0, cr2, cr5, cr4, {0}
    136c:	490a052e 	stmdbmi	sl, {r1, r2, r3, r5, r8, sl}
    1370:	2f060b05 	svccs	0x00060b05
    1374:	01060405 	tsteq	r6, r5, lsl #8
    1378:	06052f06 	streq	r2, [r5], -r6, lsl #30
    137c:	05050106 	streq	r0, [r5, #-262]	; 0xfffffefa
    1380:	0a052f06 	beq	14cfa0 <__bss_end__+0x141d08>
    1384:	052e0106 	streq	r0, [lr, #-262]!	; 0xfffffefa
    1388:	2e2e2e07 	cdpcs	14, 2, cr2, cr14, cr7, {0}
    138c:	03060405 	movweq	r0, #25605	; 0x6405
    1390:	0205010d 	andeq	r0, r5, #1073741827	; 0x40000003
    1394:	01460306 	cmpeq	r6, r6, lsl #6
    1398:	3a030905 	bcc	c37b4 <__bss_end__+0xb851c>
    139c:	0604052e 	streq	r0, [r4], -lr, lsr #10
    13a0:	010d032f 	tsteq	sp, pc, lsr #6
    13a4:	15020501 	strne	r0, [r2, #-1281]	; 0xfffffaff
    13a8:	b2030e05 	andlt	r0, r3, #80	; 0x50
    13ac:	0205017f 	andeq	r0, r5, #-1073741793	; 0xc000001f
    13b0:	08051413 	stmdaeq	r5, {r0, r1, r4, sl, ip}
    13b4:	06060501 	streq	r0, [r6], -r1, lsl #10
    13b8:	2e3c0310 	mrccs	3, 1, r0, cr12, cr0, {0}
    13bc:	46030205 	strmi	r0, [r3], -r5, lsl #4
    13c0:	0530064a 	ldreq	r0, [r0, #-1610]!	; 0xfffff9b6
    13c4:	2e010605 	cfmadd32cs	mvax0, mvfx0, mvfx1, mvfx5
    13c8:	0602052e 	streq	r0, [r2], -lr, lsr #10
    13cc:	0501064b 	streq	r0, [r1, #-1611]	; 0xfffff9b5
    13d0:	0516060e 	ldreq	r0, [r6, #-1550]	; 0xfffff9f2
    13d4:	15131402 	ldrne	r1, [r3, #-1026]	; 0xfffffbfe
    13d8:	010b0515 	tsteq	fp, r5, lsl r5
    13dc:	2e060205 	cdpcs	2, 0, cr0, cr6, cr5, {0}
    13e0:	09053006 	stmdbeq	r5, {r1, r2, ip, sp}
    13e4:	02050106 	andeq	r0, r5, #-2147483647	; 0x80000001
    13e8:	01064c06 	tsteq	r6, r6, lsl #24
    13ec:	38030105 	stmdacc	r3, {r0, r2, r8}
    13f0:	03060501 	movweq	r0, #25857	; 0x6501
    13f4:	02054a6e 	andeq	r4, r5, #450560	; 0x6e000
    13f8:	4a664603 	bmi	1992c0c <__bss_end__+0x1987974>
    13fc:	0604052e 	streq	r0, [r4], -lr, lsr #10
    1400:	0100c803 	tsteq	r0, r3, lsl #16
    1404:	06010101 	streq	r0, [r1], -r1, lsl #2
    1408:	4a06822e 	bmi	1a1cc8 <__bss_end__+0x196a30>
    140c:	052e7203 	streq	r7, [lr, #-515]!	; 0xfffffdfd
    1410:	05010609 	streq	r0, [r1, #-1545]	; 0xfffff9f7
    1414:	032f0604 			; <UNDEFINED> instruction: 0x032f0604
    1418:	0501010d 	streq	r0, [r1, #-269]	; 0xfffffef3
    141c:	0e051502 	cfsh32eq	mvfx1, mvfx5, #2
    1420:	017fb203 	cmneq	pc, r3, lsl #4
    1424:	14130205 	ldrne	r0, [r3], #-517	; 0xfffffdfb
    1428:	05010805 	streq	r0, [r1, #-2053]	; 0xfffff7fb
    142c:	1b030609 	blne	c2c58 <__bss_end__+0xb79c0>
    1430:	03060501 	movweq	r0, #25857	; 0x6501
    1434:	3c032e63 	stccc	14, cr2, [r3], {99}	; 0x63
    1438:	052e2e2e 	streq	r2, [lr, #-3630]!	; 0xfffff1d2
    143c:	b4030648 	strlt	r0, [r3], #-1608	; 0xfffff9b8
    1440:	053c087f 	ldreq	r0, [ip, #-2175]!	; 0xfffff781
    1444:	06011305 	streq	r1, [r1], -r5, lsl #6
    1448:	0402002e 	streq	r0, [r2], #-46	; 0xffffffd2
    144c:	002e0602 	eoreq	r0, lr, r2, lsl #12
    1450:	01020402 	tsteq	r2, r2, lsl #8
    1454:	02040200 	andeq	r0, r4, #0, 4
    1458:	00110513 	andseq	r0, r1, r3, lsl r5
    145c:	06020402 	streq	r0, [r2], -r2, lsl #8
    1460:	00070501 	andeq	r0, r7, r1, lsl #10
    1464:	2f020402 	svccs	0x00020402
    1468:	02001105 	andeq	r1, r0, #1073741825	; 0x40000001
    146c:	052d0204 	streq	r0, [sp, #-516]!	; 0xfffffdfc
    1470:	04020005 	streq	r0, [r2], #-5
    1474:	052f0602 	streq	r0, [pc, #-1538]!	; e7a <__code_start__-0x7186>
    1478:	04020009 	streq	r0, [r2], #-9
    147c:	0e051302 	cdpeq	3, 0, cr1, cr5, cr2, {0}
    1480:	02040200 	andeq	r0, r4, #0, 4
    1484:	05050106 	streq	r0, [r5, #-262]	; 0xfffffefa
    1488:	01040200 	mrseq	r0, R12_usr
    148c:	02006306 	andeq	r6, r0, #402653184	; 0x18000000
    1490:	05010104 	streq	r0, [r1, #-260]	; 0xfffffefc
    1494:	04020048 	streq	r0, [r2], #-72	; 0xffffffb8
    1498:	05110601 	ldreq	r0, [r1, #-1537]	; 0xfffff9ff
    149c:	04020005 	streq	r0, [r2], #-5
    14a0:	48052f01 	stmdami	r5, {r0, r8, r9, sl, fp, sp}
    14a4:	01040200 	mrseq	r0, R12_usr
    14a8:	0005052d 	andeq	r0, r5, sp, lsr #10
    14ac:	2f010402 	svccs	0x00010402
    14b0:	01040200 	mrseq	r0, R12_usr
    14b4:	0402004a 	streq	r0, [r2], #-74	; 0xffffffb6
    14b8:	02004a01 	andeq	r4, r0, #4096	; 0x1000
    14bc:	4a060104 	bmi	1818d4 <__bss_end__+0x17663c>
    14c0:	e1034005 	tst	r3, r5
    14c4:	0106d600 	tsteq	r6, r0, lsl #12
    14c8:	2e4e0905 	vmlacs.f16	s1, s28, s10	; <UNPREDICTABLE>
    14cc:	05300805 	ldreq	r0, [r0, #-2053]!	; 0xfffff7fb
    14d0:	1205291e 	andne	r2, r5, #491520	; 0x78000
    14d4:	330d052e 	movwcc	r0, #54574	; 0xd52e
    14d8:	45060205 	strmi	r0, [r6, #-517]	; 0xfffffdfb
    14dc:	05130505 	ldreq	r0, [r3, #-1285]	; 0xfffffafb
    14e0:	05051402 	streq	r1, [r5, #-1026]	; 0xfffffbfe
    14e4:	13020513 	movwne	r0, #9491	; 0x2513
    14e8:	05010805 	streq	r0, [r1, #-2053]	; 0xfffff7fb
    14ec:	7a030640 	bvc	c2df4 <__bss_end__+0xb7b5c>
    14f0:	0d052e01 	stceq	14, cr2, [r5, #-4]
    14f4:	11056634 	tstne	r5, r4, lsr r6
    14f8:	4a4a2003 	bmi	128950c <__bss_end__+0x127e274>
    14fc:	03060405 	movweq	r0, #25605	; 0x6405
    1500:	09050162 	stmdbeq	r5, {r1, r5, r6, r8}
    1504:	0f050106 	svceq	0x00050106
    1508:	0608052e 	streq	r0, [r8], -lr, lsr #10
    150c:	060d052c 	streq	r0, [sp], -ip, lsr #10
    1510:	0603052e 	streq	r0, [r3], -lr, lsr #10
    1514:	06050567 	streq	r0, [r5], -r7, ror #10
    1518:	06080501 	streq	r0, [r8], -r1, lsl #10
    151c:	060e054d 	streq	r0, [lr], -sp, asr #10
    1520:	2e0a0501 	cfsh32cs	mvfx0, mvfx10, #1
    1524:	052f0905 	streq	r0, [pc, #-2309]!	; c27 <__code_start__-0x73d9>
    1528:	052f0604 	streq	r0, [pc, #-1540]!	; f2c <__code_start__-0x70d4>
    152c:	05010607 	streq	r0, [r1, #-1543]	; 0xfffff9f9
    1530:	04052c0a 	streq	r2, [r5], #-3082	; 0xfffff3f6
    1534:	2d053206 	sfmcs	f3, 4, [r5, #-24]	; 0xffffffe8
    1538:	7f980306 	svcvc	0x00980306
    153c:	03090501 	movweq	r0, #38145	; 0x9501
    1540:	052e00ed 	streq	r0, [lr, #-237]!	; 0xffffff13
    1544:	07052c0d 	streq	r2, [r5, -sp, lsl #24]
    1548:	0604052b 	streq	r0, [r4], -fp, lsr #10
    154c:	05141330 	ldreq	r1, [r4, #-816]	; 0xfffffcd0
    1550:	0c050109 	stfeqs	f0, [r5], {9}
    1554:	017f9303 	cmneq	pc, r3, lsl #6
    1558:	06011d05 	streq	r1, [r1], -r5, lsl #26
    155c:	03090501 	movweq	r0, #38145	; 0x9501
    1560:	050100ed 	streq	r0, [r1, #-237]	; 0xffffff13
    1564:	052f0605 	streq	r0, [pc, #-1541]!	; f67 <__code_start__-0x7099>
    1568:	2e010612 	mcrcs	6, 0, r0, cr1, cr2, {0}
    156c:	2f0b052d 	svccs	0x000b052d
    1570:	2f060505 	svccs	0x00060505
    1574:	05100905 	ldreq	r0, [r0, #-2309]	; 0xfffff6fb
    1578:	7f93030c 	svcvc	0x0093030c
    157c:	011d0501 	tsteq	sp, r1, lsl #10
    1580:	01062d05 	tsteq	r6, r5, lsl #26
    1584:	ed030905 	vstr.16	s0, [r3, #-10]
    1588:	04052e00 	streq	r2, [r5], #-3584	; 0xfffff200
    158c:	00014e06 	andeq	r4, r1, r6, lsl #28
    1590:	4a020402 	bmi	825a0 <__bss_end__+0x77308>
    1594:	02040200 	andeq	r0, r4, #0, 4
    1598:	04020001 	streq	r0, [r2], #-1
    159c:	02001502 	andeq	r1, r0, #8388608	; 0x800000
    15a0:	02060204 	andeq	r0, r6, #4, 4	; 0x40000000
    15a4:	02001236 	andeq	r1, r0, #1610612739	; 0x60000003
    15a8:	052e0204 	streq	r0, [lr, #-516]!	; 0xfffffdfc
    15ac:	d1030602 	tstle	r3, r2, lsl #12
    15b0:	07050100 	streq	r0, [r5, -r0, lsl #2]
    15b4:	052e0106 	streq	r0, [lr, #-262]!	; 0xfffffefa
    15b8:	052f0602 	streq	r0, [pc, #-1538]!	; fbe <__code_start__-0x7042>
    15bc:	0501060b 	streq	r0, [r1, #-1547]	; 0xfffff9f5
    15c0:	05052f01 	streq	r2, [r5, #-3841]	; 0xfffff0ff
    15c4:	4a650306 	bmi	19421e4 <__bss_end__+0x1936f4c>
    15c8:	01060905 	tsteq	r6, r5, lsl #18
    15cc:	06050566 	streq	r0, [r5], -r6, ror #10
    15d0:	0304059f 	movweq	r0, #17823	; 0x459f
    15d4:	07050111 	smladeq	r5, r1, r1, r0
    15d8:	04050106 	streq	r0, [r5], #-262	; 0xfffffefa
    15dc:	0a053106 	beq	14d9fc <__bss_end__+0x142764>
    15e0:	00130501 	andseq	r0, r3, r1, lsl #10
    15e4:	06010402 	streq	r0, [r1], -r2, lsl #8
    15e8:	0010052e 	andseq	r0, r0, lr, lsr #10
    15ec:	2e010402 	cdpcs	4, 0, cr0, cr1, cr2, {0}
    15f0:	4b060505 	blmi	182a0c <__bss_end__+0x177774>
    15f4:	01060a05 	tsteq	r6, r5, lsl #20
    15f8:	04052d06 	streq	r2, [r5], #-3334	; 0xfffff2fa
    15fc:	11050106 	tstne	r5, r6, lsl #2
    1600:	7fb60306 	svcvc	0x00b60306
    1604:	00011366 	andeq	r1, r1, r6, ror #6
    1608:	06020402 	streq	r0, [r2], -r2, lsl #8
    160c:	01ba06ba 			; <UNDEFINED> instruction: 0x01ba06ba
    1610:	061a0514 			; <UNDEFINED> instruction: 0x061a0514
    1614:	052e2e13 	streq	r2, [lr, #-3603]!	; 0xfffff1ed
    1618:	05674e11 	strbeq	r4, [r7, #-3601]!	; 0xfffff1ef
    161c:	13056814 	movwne	r6, #22548	; 0x5814
    1620:	03150582 	tsteq	r5, #545259520	; 0x20800000
    1624:	11054a78 	tstne	r5, r8, ror sl
    1628:	13134b06 	tstne	r3, #6144	; 0x1800
    162c:	05141314 	ldreq	r1, [r4, #-788]	; 0xfffffcec
    1630:	05010613 	streq	r0, [r1, #-1555]	; 0xfffff9ed
    1634:	052f0609 	streq	r0, [pc, #-1545]!	; 1033 <__code_start__-0x6fcd>
    1638:	2e01060d 	cfmadd32cs	mvax0, mvfx0, mvfx1, mvfx13
    163c:	bb09052e 	bllt	242afc <__bss_end__+0x237864>
    1640:	059d0d05 	ldreq	r0, [sp, #3333]	; 0xd05
    1644:	052f0609 	streq	r0, [pc, #-1545]!	; 1043 <__code_start__-0x6fbd>
    1648:	03062f15 	movweq	r2, #28437	; 0x6f15
    164c:	0b034a75 	bleq	d4028 <__bss_end__+0xc8d90>
    1650:	05054a2e 	streq	r4, [r5, #-2606]	; 0xfffff5d2
    1654:	01230306 			; <UNDEFINED> instruction: 0x01230306
    1658:	01060905 	tsteq	r6, r5, lsl #18
    165c:	0605052e 	streq	r0, [r5], -lr, lsr #10
    1660:	2e6e03d7 	mcrcs	3, 3, r0, cr14, cr7, {6}
    1664:	05010e03 	streq	r0, [r1, #-3587]	; 0xfffff1fd
    1668:	05010609 	streq	r0, [r1, #-1545]	; 0xfffff9f7
    166c:	10030605 	andne	r0, r3, r5, lsl #12
    1670:	0301054a 	movweq	r0, #5450	; 0x154a
    1674:	05017eed 	streq	r7, [r1, #-3821]	; 0xfffff113
    1678:	13151402 	tstne	r5, #33554432	; 0x2000000
    167c:	03040514 	movweq	r0, #17684	; 0x4514
    1680:	0905011a 	stmdbeq	r5, {r1, r3, r4, r8}
    1684:	02050106 	andeq	r0, r5, #-2147483647	; 0x80000001
    1688:	052e4603 	streq	r4, [lr, #-1539]!	; 0xfffff9fd
    168c:	2e3a0309 	cdpcs	3, 3, cr0, cr10, cr9, {0}
    1690:	2f060405 	svccs	0x00060405
    1694:	01010d03 	tsteq	r1, r3, lsl #26
    1698:	05150205 	ldreq	r0, [r5, #-517]	; 0xfffffdfb
    169c:	7fb2030e 	svcvc	0x00b2030e
    16a0:	13020501 	movwne	r0, #9473	; 0x2501
    16a4:	01080514 	tsteq	r8, r4, lsl r5
    16a8:	01060205 	tsteq	r6, r5, lsl #4
    16ac:	059f0805 	ldreq	r0, [pc, #2053]	; 1eb9 <__code_start__-0x6147>
    16b0:	064a0603 	strbeq	r0, [sl], -r3, lsl #12
    16b4:	2e080501 	cfsh32cs	mvfx0, mvfx8, #1
    16b8:	2d061505 	cfstr32cs	mvfx1, [r6, #-20]	; 0xffffffec
    16bc:	05010805 	streq	r0, [r1, #-2053]	; 0xfffff7fb
    16c0:	01062f03 	tsteq	r6, r3, lsl #30
    16c4:	052e0805 	streq	r0, [lr, #-2053]!	; 0xfffff7fb
    16c8:	052d0615 	streq	r0, [sp, #-1557]!	; 0xfffff9eb
    16cc:	03050108 	movweq	r0, #20744	; 0x5108
    16d0:	0501062f 	streq	r0, [r1, #-1583]	; 0xfffff9d1
    16d4:	15052e08 	strne	r2, [r5, #-3592]	; 0xfffff1f8
    16d8:	08052d06 	stmdaeq	r5, {r1, r2, r8, sl, fp, sp}
    16dc:	2f030501 	svccs	0x00030501
    16e0:	08050106 	stmdaeq	r5, {r1, r2, r8}
    16e4:	0615052e 	ldreq	r0, [r5], -lr, lsr #10
    16e8:	0108052d 	tsteq	r8, sp, lsr #10
    16ec:	062f0305 	strteq	r0, [pc], -r5, lsl #6
    16f0:	2e080501 	cfsh32cs	mvfx0, mvfx8, #1
    16f4:	2d061505 	cfstr32cs	mvfx1, [r6, #-20]	; 0xffffffec
    16f8:	05010805 	streq	r0, [r1, #-2053]	; 0xfffff7fb
    16fc:	01062f03 	tsteq	r6, r3, lsl #30
    1700:	052e0805 	streq	r0, [lr, #-2053]!	; 0xfffff7fb
    1704:	052d0615 	streq	r0, [sp, #-1557]!	; 0xfffff9eb
    1708:	03050108 	movweq	r0, #20744	; 0x5108
    170c:	06080513 			; <UNDEFINED> instruction: 0x06080513
    1710:	06150501 	ldreq	r0, [r5], -r1, lsl #10
    1714:	0108052d 	tsteq	r8, sp, lsr #10
    1718:	03056606 	movweq	r6, #22022	; 0x5606
    171c:	08056706 	stmdaeq	r5, {r1, r2, r8, r9, sl, sp, lr}
    1720:	18050106 	stmdane	r5, {r1, r2, r8}
    1724:	2e02052d 	cfsh32cs	mvfx0, mvfx2, #29
    1728:	052f0805 	streq	r0, [pc, #-2053]!	; f2b <__code_start__-0x70d5>
    172c:	052d0615 	streq	r0, [sp, #-1557]!	; 0xfffff9eb
    1730:	02050108 	andeq	r0, r5, #2
    1734:	03050106 	movweq	r0, #20742	; 0x5106
    1738:	18052f06 	stmdane	r5, {r1, r2, r8, r9, sl, fp, sp}
    173c:	02051106 	andeq	r1, r5, #-2147483647	; 0x80000001
    1740:	2f08052e 	svccs	0x0008052e
    1744:	2d061505 	cfstr32cs	mvfx1, [r6, #-20]	; 0xffffffec
    1748:	05010805 	streq	r0, [r1, #-2053]	; 0xfffff7fb
    174c:	08051303 	stmdaeq	r5, {r0, r1, r8, r9, ip}
    1750:	15050106 	strne	r0, [r5, #-262]	; 0xfffffefa
    1754:	08052d06 	stmdaeq	r5, {r1, r2, r8, sl, fp, sp}
    1758:	06050501 	streq	r0, [r5], -r1, lsl #10
    175c:	02054a14 	andeq	r4, r5, #20, 20	; 0x14000
    1760:	0e052e06 	cdpeq	14, 0, cr2, cr5, cr6, {0}
    1764:	04051906 	streq	r1, [r5], #-2310	; 0xfffff6fa
    1768:	2f11052f 	svccs	0x0011052f
    176c:	054a0905 	strbeq	r0, [sl, #-2309]	; 0xfffff6fb
    1770:	05053302 	streq	r3, [r5, #-770]	; 0xfffffcfe
    1774:	052e7203 	streq	r7, [lr, #-515]!	; 0xfffffdfd
    1778:	062f0602 	strteq	r0, [pc], -r2, lsl #12
    177c:	060e0501 	streq	r0, [lr], -r1, lsl #10
    1780:	14020516 	strne	r0, [r2], #-1302	; 0xfffffaea
    1784:	13030513 	movwne	r0, #13587	; 0x3513
    1788:	15140205 	ldrne	r0, [r4, #-517]	; 0xfffffdfb
    178c:	05010b05 	streq	r0, [r1, #-2821]	; 0xfffff4fb
    1790:	2e010602 	cfmadd32cs	mvax0, mvfx0, mvfx1, mvfx2
    1794:	06030566 	streq	r0, [r3], -r6, ror #10
    1798:	060a052f 	streq	r0, [sl], -pc, lsr #10
    179c:	2d020501 	cfstr32cs	mvfx0, [r2, #-4]
    17a0:	052f0a05 	streq	r0, [pc, #-2565]!	; da3 <__code_start__-0x725d>
    17a4:	052d0617 	streq	r0, [sp, #-1559]!	; 0xfffff9e9
    17a8:	0205010b 	andeq	r0, r5, #-1073741822	; 0xc0000002
    17ac:	4a4a0106 	bmi	1281bcc <__bss_end__+0x1276934>
    17b0:	03060505 	movweq	r0, #25861	; 0x6505
    17b4:	05010195 	streq	r0, [r1, #-405]	; 0xfffffe6b
    17b8:	f8030611 			; <UNDEFINED> instruction: 0xf8030611
    17bc:	1b05017e 	blne	141dbc <__bss_end__+0x136b24>
    17c0:	4a018803 	bmi	637d4 <__bss_end__+0x5853c>
    17c4:	03060105 	movweq	r0, #24837	; 0x6105
    17c8:	052e7ef3 	streq	r7, [lr, #-3827]!	; 0xfffff10d
    17cc:	13151402 	tstne	r5, #33554432	; 0x2000000
    17d0:	03190514 	tsteq	r9, #20, 10	; 0x5000000
    17d4:	1a050122 	bne	141c64 <__bss_end__+0x1369cc>
    17d8:	06280513 			; <UNDEFINED> instruction: 0x06280513
    17dc:	2e1f0501 	cfmul32cs	mvfx0, mvfx15, mvfx1
    17e0:	052f0405 	streq	r0, [pc, #-1029]!	; 13e3 <__code_start__-0x6c1d>
    17e4:	1f054a0e 	svcne	0x00054a0e
    17e8:	060b052d 	streq	r0, [fp], -sp, lsr #10
    17ec:	0604052f 	streq	r0, [r4], -pc, lsr #10
    17f0:	01320601 	teqeq	r2, r1, lsl #12
    17f4:	05150205 	ldreq	r0, [r5, #-517]	; 0xfffffdfb
    17f8:	7fb2030e 	svcvc	0x00b2030e
    17fc:	13020501 	movwne	r0, #9473	; 0x2501
    1800:	01060605 	tsteq	r6, r5, lsl #12
    1804:	30060205 	andcc	r0, r6, r5, lsl #4
    1808:	05010805 	streq	r0, [r1, #-2053]	; 0xfffff7fb
    180c:	05010602 	streq	r0, [r1, #-1538]	; 0xfffff9fe
    1810:	21080603 	tstcs	r8, r3, lsl #12
    1814:	01060805 	tsteq	r6, r5, lsl #16
    1818:	49061505 	stmdbmi	r6, {r0, r2, r8, sl, ip}
    181c:	05010805 	streq	r0, [r1, #-2053]	; 0xfffff7fb
    1820:	0805d703 	stmdaeq	r5, {r0, r1, r8, r9, sl, ip, lr, pc}
    1824:	18050106 	stmdane	r5, {r1, r2, r8}
    1828:	2e02052d 	cfsh32cs	mvfx0, mvfx2, #29
    182c:	052f0805 	streq	r0, [pc, #-2053]!	; 102f <__code_start__-0x6fd1>
    1830:	052d0615 	streq	r0, [sp, #-1557]!	; 0xfffff9eb
    1834:	02050108 	andeq	r0, r5, #2
    1838:	03050106 	movweq	r0, #20742	; 0x5106
    183c:	18052f06 	stmdane	r5, {r1, r2, r8, r9, sl, fp, sp}
    1840:	02051106 	andeq	r1, r5, #-2147483647	; 0x80000001
    1844:	2f08052e 	svccs	0x0008052e
    1848:	2d061505 	cfstr32cs	mvfx1, [r6, #-20]	; 0xffffffec
    184c:	05010805 	streq	r0, [r1, #-2053]	; 0xfffff7fb
    1850:	08051303 	stmdaeq	r5, {r0, r1, r8, r9, ip}
    1854:	15050106 	strne	r0, [r5, #-262]	; 0xfffffefa
    1858:	08052d06 	stmdaeq	r5, {r1, r2, r8, sl, fp, sp}
    185c:	06050501 	streq	r0, [r5], -r1, lsl #10
    1860:	06020514 			; <UNDEFINED> instruction: 0x06020514
    1864:	06040566 	streq	r0, [r4], -r6, ror #10
    1868:	0305051a 	movweq	r0, #21786	; 0x551a
    186c:	02054a78 	andeq	r4, r5, #120, 20	; 0x78000
    1870:	01062f06 	tsteq	r6, r6, lsl #30
    1874:	16060e05 	strne	r0, [r6], -r5, lsl #28
    1878:	13140205 	tstne	r4, #1342177280	; 0x50000000
    187c:	01060405 	tsteq	r6, r5, lsl #8
    1880:	2f060305 	svccs	0x00060305
    1884:	01061105 	tsteq	r6, r5, lsl #2
    1888:	052e0905 	streq	r0, [lr, #-2309]!	; 0xfffff6fb
    188c:	15300602 	ldrne	r0, [r0, #-1538]!	; 0xfffff9fe
    1890:	05010b05 	streq	r0, [r1, #-2821]	; 0xfffff4fb
    1894:	4a010602 	bmi	430a4 <__bss_end__+0x37e0c>
    1898:	03052e4a 	movweq	r2, #24138	; 0x5e4a
    189c:	0a052f06 	beq	14d4bc <__bss_end__+0x142224>
    18a0:	02050106 	andeq	r0, r5, #-2147483647	; 0x80000001
    18a4:	2f0a052d 	svccs	0x000a052d
    18a8:	2d061705 	stccs	7, cr1, [r6, #-20]	; 0xffffffec
    18ac:	05010b05 	streq	r0, [r1, #-2821]	; 0xfffff4fb
    18b0:	4a010602 	bmi	430c0 <__bss_end__+0x37e28>
    18b4:	0514062e 	ldreq	r0, [r4, #-1582]	; 0xfffff9d2
    18b8:	05010609 	streq	r0, [r1, #-1545]	; 0xfffff9f7
    18bc:	064c0602 	strbeq	r0, [ip], -r2, lsl #12
    18c0:	06050501 	streq	r0, [r5], -r1, lsl #10
    18c4:	01019803 	tsteq	r1, r3, lsl #16
    18c8:	0607052a 	streq	r0, [r7], -sl, lsr #10
    18cc:	06050501 	streq	r0, [r5], -r1, lsl #10
    18d0:	0318052f 	tsteq	r8, #197132288	; 0xbc00000
    18d4:	1b052e53 	blne	14d228 <__bss_end__+0x141f90>
    18d8:	1a050106 	bne	141cf8 <__bss_end__+0x136a60>
    18dc:	06090582 	streq	r0, [r9], -r2, lsl #11
    18e0:	060d054b 	streq	r0, [sp], -fp, asr #10
    18e4:	09052e01 	stmdbeq	r5, {r0, r9, sl, fp, sp}
    18e8:	9d0d05d7 	cfstr32ls	mvfx0, [sp, #-860]	; 0xfffffca4
    18ec:	2f060905 	svccs	0x00060905
    18f0:	05301505 	ldreq	r1, [r0, #-1285]!	; 0xfffffafb
    18f4:	05010618 	streq	r0, [r1, #-1560]	; 0xfffff9e8
    18f8:	19056617 	stmdbne	r5, {r0, r1, r2, r4, r9, sl, sp, lr}
    18fc:	4917052f 	ldmdbmi	r7, {r0, r1, r2, r3, r5, r8, sl}
    1900:	2f061905 	svccs	0x00061905
    1904:	03061505 	movweq	r1, #25861	; 0x6505
    1908:	19052e6f 	stmdbne	r5, {r0, r1, r2, r3, r5, r6, r9, sl, fp, sp}
    190c:	4a130306 	bmi	4c252c <__bss_end__+0x4b7294>
    1910:	03061505 	movweq	r1, #25861	; 0x6505
    1914:	054a2e6d 	strbeq	r2, [sl, #-3693]	; 0xfffff193
    1918:	7fa00302 	svcvc	0x00a00302
    191c:	03066601 	movweq	r6, #26113	; 0x6601
    1920:	05050172 	streq	r0, [r5, #-370]	; 0xfffffe8e
    1924:	04050106 	streq	r0, [r5], #-262	; 0xfffffefa
    1928:	03050536 	movweq	r0, #21814	; 0x5536
    192c:	02052e78 	andeq	r2, r5, #120, 28	; 0x780
    1930:	01062f06 	tsteq	r6, r6, lsl #30
    1934:	16060e05 	strne	r0, [r6], -r5, lsl #28
    1938:	13140205 	tstne	r4, #1342177280	; 0x50000000
    193c:	01060405 	tsteq	r6, r5, lsl #8
    1940:	0602054a 	streq	r0, [r2], -sl, asr #10
    1944:	05017803 	streq	r7, [r1, #-2051]	; 0xfffff7fd
    1948:	4a010605 	bmi	43164 <__bss_end__+0x37ecc>
    194c:	4b060205 	blmi	182168 <__bss_end__+0x176ed0>
    1950:	0e050106 	adfeqs	f0, f5, f6
    1954:	02051606 	andeq	r1, r5, #6291456	; 0x600000
    1958:	15151314 	ldrne	r1, [r5, #-788]	; 0xfffffcec
    195c:	06010b05 	streq	r0, [r1], -r5, lsl #22
    1960:	0611052e 	ldreq	r0, [r1], -lr, lsr #10
    1964:	01019e03 	tsteq	r1, r3, lsl #28
    1968:	01062205 	tsteq	r6, r5, lsl #4
    196c:	052f0505 	streq	r0, [pc, #-1285]!	; 146f <__code_start__-0x6b91>
    1970:	05052d22 	streq	r2, [r5, #-3362]	; 0xfffff2de
    1974:	11052f06 	tstne	r5, r6, lsl #30
    1978:	8305054b 	movwhi	r0, #21835	; 0x554b
    197c:	5c039e01 	stcpl	14, cr9, [r3], {1}
    1980:	059e012e 	ldreq	r0, [lr, #302]	; 0x12e
    1984:	f3030602 	vmax.u8	d0, d3, d2
    1988:	052e2e7e 	streq	r2, [lr, #-3710]!	; 0xfffff182
    198c:	054a2c06 	strbeq	r2, [sl, #-3078]	; 0xfffff3fa
    1990:	00d8030d 	sbcseq	r0, r8, sp, lsl #6
    1994:	00040501 	andeq	r0, r4, r1, lsl #10
    1998:	06010402 	streq	r0, [r1], -r2, lsl #8
    199c:	004a1103 	subeq	r1, sl, r3, lsl #2
    19a0:	01010402 	tsteq	r1, r2, lsl #8
    19a4:	51061105 	tstpl	r6, r5, lsl #2
    19a8:	15059e06 	strne	r9, [r5, #-3590]	; 0xfffff1fa
    19ac:	012e1703 			; <UNDEFINED> instruction: 0x012e1703
    19b0:	031105ba 	tsteq	r1, #780140544	; 0x2e800000
    19b4:	02012e69 	andeq	r2, r1, #1680	; 0x690
    19b8:	01010028 	tsteq	r1, r8, lsr #32
    19bc:	00000087 	andeq	r0, r0, r7, lsl #1
    19c0:	00640003 	rsbeq	r0, r4, r3
    19c4:	01020000 	mrseq	r0, (UNDEF: 2)
    19c8:	000d0efb 	strdeq	r0, [sp], -fp
    19cc:	01010101 	tsteq	r1, r1, lsl #2
    19d0:	01000000 	mrseq	r0, (UNDEF: 0)
    19d4:	2e010000 	cdpcs	0, 0, cr0, cr1, cr0, {0}
    19d8:	6174732f 	cmnvs	r4, pc, lsr #6
    19dc:	732d6666 			; <UNDEFINED> instruction: 0x732d6666
    19e0:	2f006372 	svccs	0x00006372
    19e4:	72657355 	rsbvc	r7, r5, #1409286145	; 0x54000001
    19e8:	696d2f73 	stmdbvs	sp!, {r0, r1, r4, r5, r6, r8, r9, sl, fp, sp}^
    19ec:	2f73656c 	svccs	0x0073656c
    19f0:	72756f53 	rsbsvc	r6, r5, #332	; 0x14c
    19f4:	632f6563 			; <UNDEFINED> instruction: 0x632f6563
    19f8:	30343273 	eorscc	r3, r4, r3, ror r2
    19fc:	6c2f786c 	stcvs	8, cr7, [pc], #-432	; 1854 <__code_start__-0x67ac>
    1a00:	69706269 	ldmdbvs	r0!, {r0, r3, r5, r6, r9, sp, lr}^
    1a04:	636e692f 	cmnvs	lr, #770048	; 0xbc000
    1a08:	6564756c 	strbvs	r7, [r4, #-1388]!	; 0xfffffa94
    1a0c:	6c630000 	stclvs	0, cr0, [r3], #-0
    1a10:	2d6e6165 	stfcse	f6, [lr, #-404]!	; 0xfffffe6c
    1a14:	6f626572 	svcvs	0x00626572
    1a18:	632e746f 			; <UNDEFINED> instruction: 0x632e746f
    1a1c:	00000100 	andeq	r0, r0, r0, lsl #2
    1a20:	2e697072 	mcrcs	0, 3, r7, cr9, cr2, {3}
    1a24:	00020068 	andeq	r0, r2, r8, rrx
    1a28:	19050000 	stmdbne	r5, {}	; <UNPREDICTABLE>
    1a2c:	5c020500 	cfstr32pl	mvfx0, [r2], {-0}
    1a30:	1500009a 	strne	r0, [r0, #-154]	; 0xffffff66
    1a34:	05130505 	ldreq	r0, [r3, #-1285]	; 0xfffffafb
    1a38:	052d0619 	streq	r0, [sp, #-1561]!	; 0xfffff9e7
    1a3c:	67062f05 	strvs	r2, [r6, -r5, lsl #30]
    1a40:	06024b2f 	streq	r4, [r2], -pc, lsr #22
    1a44:	12010100 	andne	r0, r1, #0
    1a48:	03000001 	movweq	r0, #1
    1a4c:	00005e00 	andeq	r5, r0, r0, lsl #28
    1a50:	fb010200 	blx	4225a <__bss_end__+0x36fc2>
    1a54:	01000d0e 	tsteq	r0, lr, lsl #26
    1a58:	00010101 	andeq	r0, r1, r1, lsl #2
    1a5c:	00010000 	andeq	r0, r1, r0
    1a60:	2f2e0100 	svccs	0x002e0100
    1a64:	66617473 			; <UNDEFINED> instruction: 0x66617473
    1a68:	72732d66 	rsbsvc	r2, r3, #6528	; 0x1980
    1a6c:	552f0063 	strpl	r0, [pc, #-99]!	; 1a11 <__code_start__-0x65ef>
    1a70:	73726573 	cmnvc	r2, #482344960	; 0x1cc00000
    1a74:	6c696d2f 	stclvs	13, cr6, [r9], #-188	; 0xffffff44
    1a78:	532f7365 			; <UNDEFINED> instruction: 0x532f7365
    1a7c:	6372756f 	cmnvs	r2, #465567744	; 0x1bc00000
    1a80:	73632f65 	cmnvc	r3, #404	; 0x194
    1a84:	6c303432 	cfldrsvs	mvf3, [r0], #-200	; 0xffffff38
    1a88:	696c2f78 	stmdbvs	ip!, {r3, r4, r5, r6, r8, r9, sl, fp, sp}^
    1a8c:	2f697062 	svccs	0x00697062
    1a90:	6c636e69 	stclvs	14, cr6, [r3], #-420	; 0xfffffe5c
    1a94:	00656475 	rsbeq	r6, r5, r5, ror r4
    1a98:	74736300 	ldrbtvc	r6, [r3], #-768	; 0xfffffd00
    1a9c:	2e747261 	cdpcs	2, 7, cr7, cr4, cr1, {3}
    1aa0:	00010063 	andeq	r0, r1, r3, rrx
    1aa4:	69707200 	ldmdbvs	r0!, {r9, ip, sp, lr}^
    1aa8:	0200682e 	andeq	r6, r0, #3014656	; 0x2e0000
    1aac:	05000000 	streq	r0, [r0, #-0]
    1ab0:	02050010 	andeq	r0, r5, #16, 0
    1ab4:	00009a88 	andeq	r9, r0, r8, lsl #21
    1ab8:	13050515 	movwne	r0, #21781	; 0x5515
    1abc:	05130205 	ldreq	r0, [r3, #-517]	; 0xfffffdfb
    1ac0:	10051405 	andne	r1, r5, r5, lsl #8
    1ac4:	05050e06 	streq	r0, [r5, #-3590]	; 0xfffff1fa
    1ac8:	13300632 	teqne	r0, #52428800	; 0x3200000
    1acc:	010a0514 	tsteq	sl, r4, lsl r5
    1ad0:	91080905 	tstls	r8, r5, lsl #18
    1ad4:	01061005 	tsteq	r6, r5
    1ad8:	059a0a05 	ldreq	r0, [sl, #2565]	; 0xa05
    1adc:	0a056a10 	beq	15c324 <__bss_end__+0x15108c>
    1ae0:	09052d06 	stmdbeq	r5, {r1, r2, r8, sl, fp, sp}
    1ae4:	0610052f 	ldreq	r0, [r0], -pc, lsr #10
    1ae8:	060a0501 	streq	r0, [sl], -r1, lsl #10
    1aec:	bb09052d 	bllt	242fa8 <__bss_end__+0x237d10>
    1af0:	01061005 	tsteq	r6, r5
    1af4:	65060a05 	strvs	r0, [r6, #-2565]	; 0xfffff5fb
    1af8:	054b0905 	strbeq	r0, [fp, #-2309]	; 0xfffff6fb
    1afc:	0501060d 	streq	r0, [r1, #-1549]	; 0xfffff9f3
    1b00:	10052d0a 	andne	r2, r5, sl, lsl #26
    1b04:	060a052f 	streq	r0, [sl], -pc, lsr #10
    1b08:	2f09052d 	svccs	0x0009052d
    1b0c:	01060d05 	tsteq	r6, r5, lsl #26
    1b10:	052d0a05 	streq	r0, [sp, #-2565]!	; 0xfffff5fb
    1b14:	0a052f10 	beq	14d75c <__bss_end__+0x1424c4>
    1b18:	09052d06 	stmdbeq	r5, {r1, r2, r8, sl, fp, sp}
    1b1c:	060d052f 	streq	r0, [sp], -pc, lsr #10
    1b20:	2d0a0501 	cfstr32cs	mvfx0, [sl, #-4]
    1b24:	052f1005 	streq	r1, [pc, #-5]!	; 1b27 <__code_start__-0x64d9>
    1b28:	052d060a 	streq	r0, [sp, #-1546]!	; 0xfffff9f6
    1b2c:	0d052f09 	stceq	15, cr2, [r5, #-36]	; 0xffffffdc
    1b30:	0a050106 	beq	141f50 <__bss_end__+0x136cb8>
    1b34:	2f10052d 	svccs	0x0010052d
    1b38:	2d060a05 	vstrcs	s0, [r6, #-20]	; 0xffffffec
    1b3c:	05130905 	ldreq	r0, [r3, #-2309]	; 0xfffff6fb
    1b40:	05010610 	streq	r0, [r1, #-1552]	; 0xfffff9f0
    1b44:	052d060a 	streq	r0, [sp, #-1546]!	; 0xfffff9f6
    1b48:	01321505 	teqeq	r2, r5, lsl #10
    1b4c:	05144a01 	ldreq	r4, [r4, #-2561]	; 0xfffff5ff
    1b50:	0a052f02 	beq	14d760 <__bss_end__+0x1424c8>
    1b54:	2e730306 	cdpcs	3, 7, cr0, cr3, cr6, {0}
    1b58:	01000802 	tsteq	r0, r2, lsl #16
    1b5c:	00007d01 	andeq	r7, r0, r1, lsl #26
    1b60:	65000300 	strvs	r0, [r0, #-768]	; 0xfffffd00
    1b64:	02000000 	andeq	r0, r0, #0, 0
    1b68:	0d0efb01 	vstreq	d15, [lr, #-4]
    1b6c:	01010100 	mrseq	r0, (UNDEF: 17)
    1b70:	00000001 	andeq	r0, r0, r1
    1b74:	01000001 	tsteq	r0, r1
    1b78:	74732f2e 	ldrbtvc	r2, [r3], #-3886	; 0xfffff0d2
    1b7c:	2d666661 	stclcs	6, cr6, [r6, #-388]!	; 0xfffffe7c
    1b80:	00637273 	rsbeq	r7, r3, r3, ror r2
    1b84:	6573552f 	ldrbvs	r5, [r3, #-1327]!	; 0xfffffad1
    1b88:	6d2f7372 	stcvs	3, cr7, [pc, #-456]!	; 19c8 <__code_start__-0x6638>
    1b8c:	73656c69 	cmnvc	r5, #26880	; 0x6900
    1b90:	756f532f 	strbvc	r5, [pc, #-815]!	; 1869 <__code_start__-0x6797>
    1b94:	2f656372 	svccs	0x00656372
    1b98:	34327363 	ldrtcc	r7, [r2], #-867	; 0xfffffc9d
    1b9c:	2f786c30 	svccs	0x00786c30
    1ba0:	7062696c 	rsbvc	r6, r2, ip, ror #18
    1ba4:	6e692f69 	cdpvs	15, 6, cr2, cr9, cr9, {3}
    1ba8:	64756c63 	ldrbtvs	r6, [r5], #-3171	; 0xfffff39d
    1bac:	63000065 	movwvs	r0, #101	; 0x65
    1bb0:	6f747375 	svcvs	0x00747375
    1bb4:	6f6c2d6d 	svcvs	0x006c2d6d
    1bb8:	72656461 	rsbvc	r6, r5, #1627389952	; 0x61000000
    1bbc:	0100632e 	tsteq	r0, lr, lsr #6
    1bc0:	70720000 	rsbsvc	r0, r2, r0
    1bc4:	00682e69 	rsbeq	r2, r8, r9, ror #28
    1bc8:	00000002 	andeq	r0, r0, r2
    1bcc:	05001a05 	streq	r1, [r0, #-2565]	; 0xfffff5fb
    1bd0:	009b8002 	addseq	r8, fp, r2
    1bd4:	01051500 	tsteq	r5, r0, lsl #10
    1bd8:	00020214 	andeq	r0, r2, r4, lsl r2
    1bdc:	01140101 	tsteq	r4, r1, lsl #2
    1be0:	00030000 	andeq	r0, r3, r0
    1be4:	0000005e 	andeq	r0, r0, lr, asr r0
    1be8:	0efb0102 	cdpeq	1, 15, cr0, cr11, cr2, {0}
    1bec:	0101000d 	tsteq	r1, sp
    1bf0:	00000101 	andeq	r0, r0, r1, lsl #2
    1bf4:	00000100 	andeq	r0, r0, r0, lsl #2
    1bf8:	732f2e01 			; <UNDEFINED> instruction: 0x732f2e01
    1bfc:	66666174 			; <UNDEFINED> instruction: 0x66666174
    1c00:	6372732d 	cmnvs	r2, #-1275068416	; 0xb4000000
    1c04:	73552f00 	cmpvc	r5, #0, 30
    1c08:	2f737265 	svccs	0x00737265
    1c0c:	656c696d 	strbvs	r6, [ip, #-2413]!	; 0xfffff693
    1c10:	6f532f73 	svcvs	0x00532f73
    1c14:	65637275 	strbvs	r7, [r3, #-629]!	; 0xfffffd8b
    1c18:	3273632f 	rsbscc	r6, r3, #-1140850688	; 0xbc000000
    1c1c:	786c3034 	stmdavc	ip!, {r2, r4, r5, ip, sp}^
    1c20:	62696c2f 	rsbvs	r6, r9, #12032	; 0x2f00
    1c24:	692f6970 	stmdbvs	pc!, {r4, r5, r6, r8, fp, sp, lr}	; <UNPREDICTABLE>
    1c28:	756c636e 	strbvc	r6, [ip, #-878]!	; 0xfffffc92
    1c2c:	00006564 	andeq	r6, r0, r4, ror #10
    1c30:	6f626572 	svcvs	0x00626572
    1c34:	632e746f 			; <UNDEFINED> instruction: 0x632e746f
    1c38:	00000100 	andeq	r0, r0, r0, lsl #2
    1c3c:	2e697072 	mcrcs	0, 3, r7, cr9, cr2, {3}
    1c40:	00020068 	andeq	r0, r2, r8, rrx
    1c44:	19050000 	stmdbne	r5, {}	; <UNPREDICTABLE>
    1c48:	84020500 	strhi	r0, [r2], #-1280	; 0xfffffb00
    1c4c:	0300009b 	movweq	r0, #155	; 0x9b
    1c50:	0505010d 	streq	r0, [r5, #-269]	; 0xfffffef3
    1c54:	05311313 	ldreq	r1, [r1, #-787]!	; 0xfffffced
    1c58:	05010613 	streq	r0, [r1, #-1555]	; 0xfffff9ed
    1c5c:	1b052f01 	blne	14d868 <__bss_end__+0x1425d0>
    1c60:	05058506 	streq	r8, [r5, #-1286]	; 0xfffffafa
    1c64:	09051413 	stmdbeq	r5, {r0, r1, r4, sl, ip}
    1c68:	0616052f 	ldreq	r0, [r6], -pc, lsr #10
    1c6c:	06050501 	streq	r0, [r5], -r1, lsl #10
    1c70:	060e052f 	streq	r0, [lr], -pc, lsr #10
    1c74:	2f050511 	svccs	0x00050511
    1c78:	052f0105 	streq	r0, [pc, #-261]!	; 1b7b <__code_start__-0x6485>
    1c7c:	05300617 	ldreq	r0, [r0, #-1559]!	; 0xfffff9e9
    1c80:	6e031305 	cdpvs	3, 0, cr1, cr3, cr5, {0}
    1c84:	05131301 	ldreq	r1, [r3, #-769]	; 0xfffffcff
    1c88:	0f030617 	svceq	0x00030617
    1c8c:	03050501 	movweq	r0, #21761	; 0x5501
    1c90:	31062e71 	tstcc	r6, r1, ror lr
    1c94:	01061305 	tsteq	r6, r5, lsl #6
    1c98:	0d030705 	stceq	7, cr0, [r3, #-20]	; 0xffffffec
    1c9c:	0609052e 	streq	r0, [r9], -lr, lsr #10
    1ca0:	0306054b 	movweq	r0, #25931	; 0x654b
    1ca4:	05050176 	streq	r0, [r5, #-374]	; 0xfffffe8a
    1ca8:	09051413 	stmdbeq	r5, {r0, r1, r4, sl, ip}
    1cac:	0616052f 	ldreq	r0, [r6], -pc, lsr #10
    1cb0:	06050501 	streq	r0, [r5], -r1, lsl #10
    1cb4:	060e052f 	streq	r0, [lr], -pc, lsr #10
    1cb8:	2f050511 	svccs	0x00050511
    1cbc:	0a03062e 	beq	c357c <__bss_end__+0xb82e4>
    1cc0:	4d2f3001 	stcmi	0, cr3, [pc, #-4]!	; 1cc4 <__code_start__-0x633c>
    1cc4:	15131313 	ldrne	r1, [r3, #-787]	; 0xfffffced
    1cc8:	04020067 	streq	r0, [r2], #-103	; 0xffffff99
    1ccc:	0d056701 	stceq	7, cr6, [r5, #-4]
    1cd0:	01040200 	mrseq	r0, R12_usr
    1cd4:	000a0501 	andeq	r0, sl, r1, lsl #10
    1cd8:	01010402 	tsteq	r1, r2, lsl #8
    1cdc:	02000505 	andeq	r0, r0, #20971520	; 0x1400000
    1ce0:	05010104 	streq	r0, [r1, #-260]	; 0xfffffefc
    1ce4:	0402000d 	streq	r0, [r2], #-13
    1ce8:	0a050101 	beq	1420f4 <__bss_end__+0x136e5c>
    1cec:	01040200 	mrseq	r0, R12_usr
    1cf0:	000a0201 	andeq	r0, sl, r1, lsl #4
    1cf4:	01fa0101 	mvnseq	r0, r1, lsl #2
    1cf8:	00030000 	andeq	r0, r3, r0
    1cfc:	0000005d 	andeq	r0, r0, sp, asr r0
    1d00:	0efb0102 	cdpeq	1, 15, cr0, cr11, cr2, {0}
    1d04:	0101000d 	tsteq	r1, sp
    1d08:	00000101 	andeq	r0, r0, r1, lsl #2
    1d0c:	00000100 	andeq	r0, r0, r0, lsl #2
    1d10:	732f2e01 			; <UNDEFINED> instruction: 0x732f2e01
    1d14:	66666174 			; <UNDEFINED> instruction: 0x66666174
    1d18:	6372732d 	cmnvs	r2, #-1275068416	; 0xb4000000
    1d1c:	73552f00 	cmpvc	r5, #0, 30
    1d20:	2f737265 	svccs	0x00737265
    1d24:	656c696d 	strbvs	r6, [ip, #-2413]!	; 0xfffff693
    1d28:	6f532f73 	svcvs	0x00532f73
    1d2c:	65637275 	strbvs	r7, [r3, #-629]!	; 0xfffffd8b
    1d30:	3273632f 	rsbscc	r6, r3, #-1140850688	; 0xbc000000
    1d34:	786c3034 	stmdavc	ip!, {r2, r4, r5, ip, sp}^
    1d38:	62696c2f 	rsbvs	r6, r9, #12032	; 0x2f00
    1d3c:	692f6970 	stmdbvs	pc!, {r4, r5, r6, r8, fp, sp, lr}	; <UNPREDICTABLE>
    1d40:	756c636e 	strbvc	r6, [ip, #-878]!	; 0xfffffc92
    1d44:	00006564 	andeq	r6, r0, r4, ror #10
    1d48:	656d6974 	strbvs	r6, [sp, #-2420]!	; 0xfffff68c
    1d4c:	00632e72 	rsbeq	r2, r3, r2, ror lr
    1d50:	72000001 	andvc	r0, r0, #1, 0
    1d54:	682e6970 	stmdavs	lr!, {r4, r5, r6, r8, fp, sp, lr}
    1d58:	00000200 	andeq	r0, r0, r0, lsl #4
    1d5c:	00230500 	eoreq	r0, r3, r0, lsl #10
    1d60:	9c100205 	lfmls	f0, 4, [r0], {5}
    1d64:	05150000 	ldreq	r0, [r5, #-0]
    1d68:	0c051305 	stceq	3, cr1, [r5], {5}
    1d6c:	1f050106 	svcne	0x00050106
    1d70:	05056a06 	streq	r6, [r5, #-2566]	; 0xfffff5fa
    1d74:	061f0515 			; <UNDEFINED> instruction: 0x061f0515
    1d78:	3105050f 	tstcc	r5, pc, lsl #10
    1d7c:	0a052f06 	beq	14d99c <__bss_end__+0x142704>
    1d80:	05017703 	streq	r7, [r1, #-1795]	; 0xfffff8fd
    1d84:	0c051305 	stceq	3, cr1, [r5], {5}
    1d88:	05660106 	strbeq	r0, [r6, #-262]!	; 0xfffffefa
    1d8c:	09030605 	stmdbeq	r3, {r0, r2, r9, sl}
    1d90:	01052f01 	tsteq	r5, r1, lsl #30
    1d94:	1c051306 	stcne	3, cr1, [r5], {6}
    1d98:	05056806 	streq	r6, [r5, #-2054]	; 0xfffff7fa
    1d9c:	030a0513 	movweq	r0, #42259	; 0xa513
    1da0:	05050176 	streq	r0, [r5, #-374]	; 0xfffffe8a
    1da4:	061c0515 			; <UNDEFINED> instruction: 0x061c0515
    1da8:	05052e18 	streq	r2, [r5, #-3608]	; 0xfffff1e8
    1dac:	062e7a03 	strteq	r7, [lr], -r3, lsl #20
    1db0:	030a052f 	movweq	r0, #42287	; 0xa52f
    1db4:	05050177 	streq	r0, [r5, #-375]	; 0xfffffe89
    1db8:	060c0513 			; <UNDEFINED> instruction: 0x060c0513
    1dbc:	05056601 	streq	r6, [r5, #-1537]	; 0xfffff9ff
    1dc0:	01090306 	tsteq	r9, r6, lsl #6
    1dc4:	0501062f 	streq	r0, [r1, #-1583]	; 0xfffff9d1
    1dc8:	0176030c 	cmneq	r6, ip, lsl #6
    1dcc:	03060505 	movweq	r0, #25861	; 0x6505
    1dd0:	09052e0f 	stmdbeq	r5, {r0, r1, r2, r3, r9, sl, fp, sp}
    1dd4:	030a0513 	movweq	r0, #42259	; 0xa513
    1dd8:	05050174 	streq	r0, [r5, #-372]	; 0xfffffe8c
    1ddc:	0a052f15 	beq	14da38 <__bss_end__+0x1427a0>
    1de0:	05017703 	streq	r7, [r1, #-1795]	; 0xfffff8fd
    1de4:	0c051305 	stceq	3, cr1, [r5], {5}
    1de8:	05660106 	strbeq	r0, [r6, #-262]!	; 0xfffffefa
    1dec:	09030605 	stmdbeq	r3, {r0, r2, r9, sl}
    1df0:	06110501 	ldreq	r0, [r1], -r1, lsl #10
    1df4:	0305051a 	movweq	r0, #21786	; 0x551a
    1df8:	2f062e78 	svccs	0x00062e78
    1dfc:	05190905 	ldreq	r0, [r9, #-2309]	; 0xfffff6fb
    1e00:	0501060c 	streq	r0, [r1, #-1548]	; 0xfffff9f4
    1e04:	0587061c 	streq	r0, [r7, #1564]	; 0x61c
    1e08:	1c051305 	stcne	3, cr1, [r5], {5}
    1e0c:	05051106 	streq	r1, [r5, #-262]	; 0xfffffefa
    1e10:	06054a2f 	streq	r4, [r5], -pc, lsr #20
    1e14:	2e760306 	cdpcs	3, 7, cr0, cr6, cr6, {0}
    1e18:	05130505 	ldreq	r0, [r3, #-1285]	; 0xfffffafb
    1e1c:	0176030a 	cmneq	r6, sl, lsl #6
    1e20:	2f150505 	svccs	0x00150505
    1e24:	77030a05 	strvc	r0, [r3, -r5, lsl #20]
    1e28:	13050501 	movwne	r0, #21761	; 0x5501
    1e2c:	01060c05 	tsteq	r6, r5, lsl #24
    1e30:	06050566 	streq	r0, [r5], -r6, ror #10
    1e34:	2f010903 	svccs	0x00010903
    1e38:	0c050106 	stfeqs	f0, [r5], {6}
    1e3c:	05017603 	streq	r7, [r1, #-1539]	; 0xfffff9fd
    1e40:	0f030605 	svceq	0x00030605
    1e44:	1309052e 	movwne	r0, #38190	; 0x952e
    1e48:	74030a05 	strvc	r0, [r3], #-2565	; 0xfffff5fb
    1e4c:	15050501 	strne	r0, [r5, #-1281]	; 0xfffffaff
    1e50:	030a052f 	movweq	r0, #42287	; 0xa52f
    1e54:	05050177 	streq	r0, [r5, #-375]	; 0xfffffe89
    1e58:	060c0513 			; <UNDEFINED> instruction: 0x060c0513
    1e5c:	05056601 	streq	r6, [r5, #-1537]	; 0xfffff9ff
    1e60:	01090306 	tsteq	r9, r6, lsl #6
    1e64:	1a061105 	bne	186280 <__bss_end__+0x17afe8>
    1e68:	78030505 	stmdavc	r3, {r0, r2, r8, sl}
    1e6c:	052f062e 	streq	r0, [pc, #-1582]!	; 1846 <__code_start__-0x67ba>
    1e70:	0c051909 			; <UNDEFINED> instruction: 0x0c051909
    1e74:	1e050106 	adfnes	f0, f5, f6
    1e78:	05058a06 	streq	r8, [r5, #-2566]	; 0xfffff5fa
    1e7c:	0e060513 	mcreq	5, 0, r0, cr6, cr3, {0}
    1e80:	05130505 	ldreq	r0, [r3, #-1285]	; 0xfffffafb
    1e84:	0514061e 	ldreq	r0, [r4, #-1566]	; 0xfffff9e2
    1e88:	05662c05 	strbeq	r2, [r6, #-3077]!	; 0xfffff3fb
    1e8c:	76030606 	strvc	r0, [r3], -r6, lsl #12
    1e90:	1305052e 	movwne	r0, #21806	; 0x552e
    1e94:	76030a05 	strvc	r0, [r3], -r5, lsl #20
    1e98:	15050501 	strne	r0, [r5, #-1281]	; 0xfffffaff
    1e9c:	030a052f 	movweq	r0, #42287	; 0xa52f
    1ea0:	05050177 	streq	r0, [r5, #-375]	; 0xfffffe89
    1ea4:	060c0513 			; <UNDEFINED> instruction: 0x060c0513
    1ea8:	05056601 	streq	r6, [r5, #-1537]	; 0xfffff9ff
    1eac:	01090306 	tsteq	r9, r6, lsl #6
    1eb0:	0501062f 	streq	r0, [r1, #-1583]	; 0xfffff9d1
    1eb4:	0176030c 	cmneq	r6, ip, lsl #6
    1eb8:	03060505 	movweq	r0, #25861	; 0x6505
    1ebc:	09052e0f 	stmdbeq	r5, {r0, r1, r2, r3, r9, sl, fp, sp}
    1ec0:	030a0513 	movweq	r0, #42259	; 0xa513
    1ec4:	05050174 	streq	r0, [r5, #-372]	; 0xfffffe8c
    1ec8:	0a052f15 	beq	14db24 <__bss_end__+0x14288c>
    1ecc:	05017703 	streq	r7, [r1, #-1795]	; 0xfffff8fd
    1ed0:	0c051305 	stceq	3, cr1, [r5], {5}
    1ed4:	05660106 	strbeq	r0, [r6, #-262]!	; 0xfffffefa
    1ed8:	09030605 	stmdbeq	r3, {r0, r2, r9, sl}
    1edc:	06110501 	ldreq	r0, [r1], -r1, lsl #10
    1ee0:	0305051a 	movweq	r0, #21786	; 0x551a
    1ee4:	2f062e78 	svccs	0x00062e78
    1ee8:	05190905 	ldreq	r0, [r9, #-2309]	; 0xfffff6fb
    1eec:	0201060c 	andeq	r0, r1, #12, 12	; 0xc00000
    1ef0:	01010008 	tsteq	r1, r8
    1ef4:	00000204 	andeq	r0, r0, r4, lsl #4
    1ef8:	00c80003 	sbceq	r0, r8, r3
    1efc:	01020000 	mrseq	r0, (UNDEF: 2)
    1f00:	000d0efb 	strdeq	r0, [sp], -fp
    1f04:	01010101 	tsteq	r1, r1, lsl #2
    1f08:	01000000 	mrseq	r0, (UNDEF: 0)
    1f0c:	2f010000 	svccs	0x00010000
    1f10:	656d6f68 	strbvs	r6, [sp, #-3944]!	; 0xfffff098
    1f14:	676e652f 	strbvs	r6, [lr, -pc, lsr #10]!
    1f18:	2f72656c 	svccs	0x0072656c
    1f1c:	73616c63 	cmnvc	r1, #25344	; 0x6300
    1f20:	73632f73 	cmnvc	r3, #460	; 0x1cc
    1f24:	65303431 	ldrvs	r3, [r0, #-1073]!	; 0xfffffbcf
    1f28:	7732322d 	ldrvc	r3, [r2, -sp, lsr #4]!
    1f2c:	2f2f6e69 	svccs	0x002f6e69
    1f30:	7062696c 	rsbvc	r6, r2, ip, ror #18
    1f34:	6e692f69 	cdpvs	15, 6, cr2, cr9, cr9, {3}
    1f38:	64756c63 	ldrbtvs	r6, [r5], #-3171	; 0xfffff39d
    1f3c:	752f0065 	strvc	r0, [pc, #-101]!	; 1edf <__code_start__-0x6121>
    1f40:	732f7273 			; <UNDEFINED> instruction: 0x732f7273
    1f44:	65726168 	ldrbvs	r6, [r2, #-360]!	; 0xfffffe98
    1f48:	6363672f 	cmnvs	r3, #12320768	; 0xbc0000
    1f4c:	6d72612d 	ldfvse	f6, [r2, #-180]!	; 0xffffff4c
    1f50:	6e6f6e2d 	cdpvs	14, 6, cr6, cr15, cr13, {1}
    1f54:	61652d65 	cmnvs	r5, r5, ror #26
    1f58:	312d6962 			; <UNDEFINED> instruction: 0x312d6962
    1f5c:	2d332e30 	ldccs	14, cr2, [r3, #-192]!	; 0xffffff40
    1f60:	31323032 	teqcc	r2, r2, lsr r0
    1f64:	2f30312e 	svccs	0x0030312e
    1f68:	2f62696c 	svccs	0x0062696c
    1f6c:	2f636367 	svccs	0x00636367
    1f70:	2d6d7261 	sfmcs	f7, 2, [sp, #-388]!	; 0xfffffe7c
    1f74:	656e6f6e 	strbvs	r6, [lr, #-3950]!	; 0xfffff092
    1f78:	6261652d 	rsbvs	r6, r1, #188743680	; 0xb400000
    1f7c:	30312f69 	eorscc	r2, r1, r9, ror #30
    1f80:	312e332e 			; <UNDEFINED> instruction: 0x312e332e
    1f84:	636e692f 	cmnvs	lr, #770048	; 0xbc000
    1f88:	6564756c 	strbvs	r7, [r4, #-1388]!	; 0xfffffa94
    1f8c:	61750000 	cmnvs	r5, r0
    1f90:	632e7472 			; <UNDEFINED> instruction: 0x632e7472
    1f94:	00000000 	andeq	r0, r0, r0
    1f98:	74726175 	ldrbtvc	r6, [r2], #-373	; 0xfffffe8b
    1f9c:	0100682e 	tsteq	r0, lr, lsr #16
    1fa0:	70720000 	rsbsvc	r0, r2, r0
    1fa4:	00682e69 	rsbeq	r2, r8, r9, ror #28
    1fa8:	67000001 	strvs	r0, [r0, -r1]
    1fac:	2e6f6970 			; <UNDEFINED> instruction: 0x2e6f6970
    1fb0:	00010068 	andeq	r0, r1, r8, rrx
    1fb4:	64747300 	ldrbtvs	r7, [r4], #-768	; 0xfffffd00
    1fb8:	2d746e69 	ldclcs	14, cr6, [r4, #-420]!	; 0xfffffe5c
    1fbc:	2e636367 	cdpcs	3, 6, cr6, cr3, cr7, {3}
    1fc0:	00020068 	andeq	r0, r2, r8, rrx
    1fc4:	39050000 	stmdbcc	r5, {}	; <UNPREDICTABLE>
    1fc8:	2c020500 	cfstr32cs	mvfx0, [r2], {-0}
    1fcc:	0300009d 	movweq	r0, #157	; 0x9d
    1fd0:	01060130 	tsteq	r6, r0, lsr r1
    1fd4:	67060505 	strvs	r0, [r6, -r5, lsl #10]
    1fd8:	01061105 	tsteq	r6, r5, lsl #2
    1fdc:	052e0505 	streq	r0, [lr, #-1285]!	; 0xfffffafb
    1fe0:	38056701 	stmdacc	r5, {r0, r8, r9, sl, sp, lr}
    1fe4:	01062906 	tsteq	r6, r6, lsl #18
    1fe8:	67060505 	strvs	r0, [r6, -r5, lsl #10]
    1fec:	01061105 	tsteq	r6, r5, lsl #2
    1ff0:	052e0505 	streq	r0, [lr, #-1285]!	; 0xfffffafb
    1ff4:	16056701 	strne	r6, [r5], -r1, lsl #14
    1ff8:	2e150306 	cdpcs	3, 1, cr0, cr5, cr6, {0}
    1ffc:	67350505 	ldrvs	r0, [r5, -r5, lsl #10]!
    2000:	03683568 	cmneq	r8, #104, 10	; 0x1a000000
    2004:	6b852e0c 	blvs	fe14d83c <__bss_end__+0xfe1425a4>
    2008:	0c036969 			; <UNDEFINED> instruction: 0x0c036969
    200c:	676b1366 	strbvs	r1, [fp, -r6, ror #6]!
    2010:	2f060105 	svccs	0x00060105
    2014:	08061905 	stmdaeq	r6, {r0, r2, r8, fp, ip}
    2018:	34050525 	strcc	r0, [r5], #-1317	; 0xfffffadb
    201c:	01060d05 	tsteq	r6, r5, lsl #26
    2020:	054c0105 	strbeq	r0, [ip, #-261]	; 0xfffffefb
    2024:	05670619 	strbeq	r0, [r7, #-1561]!	; 0xfffff9e7
    2028:	0d053605 	stceq	6, cr3, [r5, #-20]	; 0xffffffec
    202c:	28050106 	stmdacs	r5, {r1, r2, r8}
    2030:	3001054a 	andcc	r0, r1, sl, asr #10
    2034:	87061505 	strhi	r1, [r6, -r5, lsl #10]
    2038:	2f2f0505 	svccs	0x002f0505
    203c:	02000905 	andeq	r0, r0, #81920	; 0x14000
    2040:	05130104 	ldreq	r0, [r3, #-260]	; 0xfffffefc
    2044:	0402000a 	streq	r0, [r2], #-10
    2048:	0c051101 	stfeqs	f1, [r5], {1}
    204c:	01040200 	mrseq	r0, R12_usr
    2050:	0a050106 	beq	142470 <__bss_end__+0x1371d8>
    2054:	01040200 	mrseq	r0, R12_usr
    2058:	0605052e 	streq	r0, [r5], -lr, lsr #10
    205c:	060e054c 	streq	r0, [lr], -ip, asr #10
    2060:	4a090501 	bmi	24346c <__bss_end__+0x2381d4>
    2064:	2f060505 	svccs	0x00060505
    2068:	0601052f 	streq	r0, [r1], -pc, lsr #10
    206c:	061c0513 			; <UNDEFINED> instruction: 0x061c0513
    2070:	05010667 	streq	r0, [r1, #-1639]	; 0xfffff999
    2074:	2f4b0605 	svccs	0x004b0605
    2078:	02000905 	andeq	r0, r0, #81920	; 0x14000
    207c:	05130104 	ldreq	r0, [r3, #-260]	; 0xfffffefc
    2080:	0402000a 	streq	r0, [r2], #-10
    2084:	0c051101 	stfeqs	f1, [r5], {1}
    2088:	01040200 	mrseq	r0, R12_usr
    208c:	0a050106 	beq	1424ac <__bss_end__+0x137214>
    2090:	01040200 	mrseq	r0, R12_usr
    2094:	0605052e 	streq	r0, [r5], -lr, lsr #10
    2098:	0105674c 	tsteq	r5, ip, asr #14
    209c:	19052f06 	stmdbne	r5, {r1, r2, r8, r9, sl, fp, sp}
    20a0:	1b054c06 	blne	1550c0 <__bss_end__+0x149e28>
    20a4:	2e2a052e 	cfsh64cs	mvdx0, mvdx10, #30
    20a8:	01063105 	tsteq	r6, r5, lsl #2
    20ac:	052e4205 	streq	r4, [lr, #-517]!	; 0xfffffdfb
    20b0:	0531061c 	ldreq	r0, [r1, #-1564]!	; 0xfffff9e4
    20b4:	09032f05 	stmdbeq	r3, {r0, r2, r8, r9, sl, fp, sp}
    20b8:	060e052e 	streq	r0, [lr], -lr, lsr #10
    20bc:	4a210501 	bmi	8434c8 <__bss_end__+0x838230>
    20c0:	0a030105 	beq	c24dc <__bss_end__+0xb7244>
    20c4:	061a052e 	ldreq	r0, [sl], -lr, lsr #10
    20c8:	00090568 	andeq	r0, r9, r8, ror #10
    20cc:	30010402 	andcc	r0, r1, r2, lsl #8
    20d0:	02000a05 	andeq	r0, r0, #20480	; 0x5000
    20d4:	05110104 	ldreq	r0, [r1, #-260]	; 0xfffffefc
    20d8:	0402000c 	streq	r0, [r2], #-12
    20dc:	05010601 	streq	r0, [r1, #-1537]	; 0xfffff9ff
    20e0:	0402000a 	streq	r0, [r2], #-10
    20e4:	19052e01 	stmdbne	r5, {r0, r9, sl, fp, sp}
    20e8:	7ee80306 	cdpvc	3, 14, cr0, cr8, cr6, {0}
    20ec:	2f050566 	svccs	0x00050566
    20f0:	05672f2f 	strbeq	r2, [r7, #-3887]!	; 0xfffff0d1
    20f4:	022f0601 	eoreq	r0, pc, #1048576	; 0x100000
    20f8:	01010004 	tsteq	r1, r4
    20fc:	00000392 	muleq	r0, r2, r3
    2100:	00b70003 	adcseq	r0, r7, r3
    2104:	01020000 	mrseq	r0, (UNDEF: 2)
    2108:	000d0efb 	strdeq	r0, [sp], -fp
    210c:	01010101 	tsteq	r1, r1, lsl #2
    2110:	01000000 	mrseq	r0, (UNDEF: 0)
    2114:	2f010000 	svccs	0x00010000
    2118:	656d6f68 	strbvs	r6, [sp, #-3944]!	; 0xfffff098
    211c:	676e652f 	strbvs	r6, [lr, -pc, lsr #10]!
    2120:	2f72656c 	svccs	0x0072656c
    2124:	73616c63 	cmnvc	r1, #25344	; 0x6300
    2128:	73632f73 	cmnvc	r3, #460	; 0x1cc
    212c:	65303431 	ldrvs	r3, [r0, #-1073]!	; 0xfffffbcf
    2130:	7732322d 	ldrvc	r3, [r2, -sp, lsr #4]!
    2134:	2f2f6e69 	svccs	0x002f6e69
    2138:	7062696c 	rsbvc	r6, r2, ip, ror #18
    213c:	6e692f69 	cdpvs	15, 6, cr2, cr9, cr9, {3}
    2140:	64756c63 	ldrbtvs	r6, [r5], #-3171	; 0xfffff39d
    2144:	752f0065 	strvc	r0, [pc, #-101]!	; 20e7 <__code_start__-0x5f19>
    2148:	732f7273 			; <UNDEFINED> instruction: 0x732f7273
    214c:	65726168 	ldrbvs	r6, [r2, #-360]!	; 0xfffffe98
    2150:	6363672f 	cmnvs	r3, #12320768	; 0xbc0000
    2154:	6d72612d 	ldfvse	f6, [r2, #-180]!	; 0xffffff4c
    2158:	6e6f6e2d 	cdpvs	14, 6, cr6, cr15, cr13, {1}
    215c:	61652d65 	cmnvs	r5, r5, ror #26
    2160:	312d6962 			; <UNDEFINED> instruction: 0x312d6962
    2164:	2d332e30 	ldccs	14, cr2, [r3, #-192]!	; 0xffffff40
    2168:	31323032 	teqcc	r2, r2, lsr r0
    216c:	2f30312e 	svccs	0x0030312e
    2170:	2f62696c 	svccs	0x0062696c
    2174:	2f636367 	svccs	0x00636367
    2178:	2d6d7261 	sfmcs	f7, 2, [sp, #-388]!	; 0xfffffe7c
    217c:	656e6f6e 	strbvs	r6, [lr, #-3950]!	; 0xfffff092
    2180:	6261652d 	rsbvs	r6, r1, #188743680	; 0xb400000
    2184:	30312f69 	eorscc	r2, r1, r9, ror #30
    2188:	312e332e 			; <UNDEFINED> instruction: 0x312e332e
    218c:	636e692f 	cmnvs	lr, #770048	; 0xbc000
    2190:	6564756c 	strbvs	r7, [r4, #-1388]!	; 0xfffffa94
    2194:	6d6b0000 	stclvs	0, cr0, [fp, #-0]
    2198:	6f6c6c61 	svcvs	0x006c6c61
    219c:	00632e63 	rsbeq	r2, r3, r3, ror #28
    21a0:	72000000 	andvc	r0, r0, #0, 0
    21a4:	682e6970 	stmdavs	lr!, {r4, r5, r6, r8, fp, sp, lr}
    21a8:	00000100 	andeq	r0, r0, r0, lsl #2
    21ac:	69647473 	stmdbvs	r4!, {r0, r1, r4, r5, r6, sl, ip, sp, lr}^
    21b0:	672d746e 	strvs	r7, [sp, -lr, ror #8]!
    21b4:	682e6363 	stmdavs	lr!, {r0, r1, r5, r6, r8, r9, sp, lr}
    21b8:	00000200 	andeq	r0, r0, r0, lsl #4
    21bc:	001e0500 	andseq	r0, lr, r0, lsl #10
    21c0:	9f1c0205 	svcls	0x001c0205
    21c4:	27030000 	strcs	r0, [r3, -r0]
    21c8:	01200501 			; <UNDEFINED> instruction: 0x01200501
    21cc:	01062d05 	tsteq	r6, r5, lsl #26
    21d0:	83062005 	movwhi	r2, #24581	; 0x6005
    21d4:	05012205 	streq	r2, [r1, #-517]	; 0xfffffdfb
    21d8:	05010635 	streq	r0, [r1, #-1589]	; 0xfffff9cb
    21dc:	0583061e 	streq	r0, [r3, #1566]	; 0x61e
    21e0:	2d050120 	stfcss	f0, [r5, #-128]	; 0xffffff80
    21e4:	42050106 	andmi	r0, r5, #-2147483647	; 0x80000001
    21e8:	01068506 	tsteq	r6, r6, lsl #10
    21ec:	4b060505 	blmi	183608 <__bss_end__+0x178370>
    21f0:	2e060114 	mcrcs	1, 0, r0, cr6, cr4, {0}
    21f4:	02040200 	andeq	r0, r4, #0, 4
    21f8:	02002e06 	andeq	r2, r0, #96	; 0x60
    21fc:	00010204 	andeq	r0, r1, r4, lsl #4
    2200:	15020402 	strne	r0, [r2, #-1026]	; 0xfffffbfe
    2204:	02000d05 	andeq	r0, r0, #320	; 0x140
    2208:	01060204 	tsteq	r6, r4, lsl #4
    220c:	02000705 	andeq	r0, r0, #1310720	; 0x140000
    2210:	054a0204 	strbeq	r0, [sl, #-516]	; 0xfffffdfc
    2214:	054b0609 	strbeq	r0, [fp, #-1545]	; 0xfffff9f7
    2218:	17051505 	strne	r1, [r5, -r5, lsl #10]
    221c:	10050106 	andne	r0, r5, r6, lsl #2
    2220:	0605054a 	streq	r0, [r5], -sl, asr #10
    2224:	061b052f 	ldreq	r0, [fp], -pc, lsr #10
    2228:	2e0e0501 	cfsh32cs	mvfx0, mvfx14, #1
    222c:	052f0105 	streq	r0, [pc, #-261]!	; 212f <__code_start__-0x5ed1>
    2230:	04020005 	streq	r0, [r2], #-5
    2234:	77030601 	strvc	r0, [r3, -r1, lsl #12]
    2238:	0402004a 	streq	r0, [r2], #-74	; 0xffffffb6
    223c:	02000101 	andeq	r0, r0, #1073741824	; 0x40000000
    2240:	9e060104 	adflss	f0, f6, f4
    2244:	01040200 	mrseq	r0, R12_usr
    2248:	0402002e 	streq	r0, [r2], #-46	; 0xffffffd2
    224c:	052e0601 	streq	r0, [lr, #-1537]!	; 0xfffff9ff
    2250:	06013209 	streq	r3, [r1], -r9, lsl #4
    2254:	2e062ed6 	mcrcs	14, 0, r2, cr6, cr6, {6}
    2258:	05de1905 	ldrbeq	r1, [lr, #2309]	; 0x905
    225c:	05142f05 	ldreq	r2, [r4, #-3845]	; 0xfffff0fb
    2260:	05010608 	streq	r0, [r1, #-1544]	; 0xfffff9f8
    2264:	09054a07 	stmdbeq	r5, {r0, r1, r2, r9, fp, lr}
    2268:	05054b06 	streq	r4, [r5, #-2822]	; 0xfffff4fa
    226c:	060c0513 			; <UNDEFINED> instruction: 0x060c0513
    2270:	06050501 	streq	r0, [r5], -r1, lsl #10
    2274:	01051367 	tsteq	r5, r7, ror #6
    2278:	09056706 	stmdbeq	r5, {r1, r2, r8, r9, sl, sp, lr}
    227c:	9e012a06 	vmlals.f32	s4, s2, s12
    2280:	06a52805 	strteq	r2, [r5], r5, lsl #16
    2284:	06050501 	streq	r0, [r5], -r1, lsl #10
    2288:	2e06014b 	adfcssm	f0, f6, #3.0
    228c:	13012e06 	movwne	r2, #7686	; 0x1e06
    2290:	47031805 	strmi	r1, [r3, -r5, lsl #16]
    2294:	13050501 	movwne	r0, #21761	; 0x5501
    2298:	06010601 	streq	r0, [r1], -r1, lsl #12
    229c:	1301150f 	movwne	r1, #5391	; 0x150f
    22a0:	01060e05 	tsteq	r6, r5, lsl #28
    22a4:	2e2e1605 	cfmadda32cs	mvax0, mvax1, mvfx14, mvfx5
    22a8:	03060505 	movweq	r0, #25861	; 0x6505
    22ac:	0b050139 	bleq	142798 <__bss_end__+0x137500>
    22b0:	05050106 	streq	r0, [r5, #-262]	; 0xfffffefa
    22b4:	0a054b06 	beq	154ed4 <__bss_end__+0x149c3c>
    22b8:	05050106 	streq	r0, [r5, #-262]	; 0xfffffefa
    22bc:	0d054b06 	vstreq	d4, [r5, #-24]	; 0xffffffe8
    22c0:	07050106 	streq	r0, [r5, -r6, lsl #2]
    22c4:	4d01052e 	cfstr32mi	mvfx0, [r1, #-184]	; 0xffffff48
    22c8:	02000505 	andeq	r0, r0, #20971520	; 0x1400000
    22cc:	03060104 	movweq	r0, #24836	; 0x6104
    22d0:	02004a78 	andeq	r4, r0, #120, 20	; 0x78000
    22d4:	00010104 	andeq	r0, r1, r4, lsl #2
    22d8:	06010402 	streq	r0, [r1], -r2, lsl #8
    22dc:	040200ba 	streq	r0, [r2], #-186	; 0xffffff46
    22e0:	052e0601 	streq	r0, [lr, #-1537]!	; 0xfffff9ff
    22e4:	06013409 	streq	r3, [r1], -r9, lsl #8
    22e8:	2e066682 	cfmadd32cs	mvax4, mvfx6, mvfx6, mvfx2
    22ec:	06db2005 	ldrbeq	r2, [fp], r5
    22f0:	06050501 	streq	r0, [r5], -r1, lsl #10
    22f4:	0200014b 	andeq	r0, r0, #-1073741806	; 0xc0000012
    22f8:	004a0204 	subeq	r0, sl, r4, lsl #4
    22fc:	01020402 	tsteq	r2, r2, lsl #8
    2300:	02040200 	andeq	r0, r4, #0, 4
    2304:	00120513 	andseq	r0, r2, r3, lsl r5
    2308:	06020402 	streq	r0, [r2], -r2, lsl #8
    230c:	04020001 	streq	r0, [r2], #-1
    2310:	02002e02 	andeq	r2, r0, #2, 28
    2314:	052e0204 	streq	r0, [lr, #-516]!	; 0xfffffdfc
    2318:	04020005 	streq	r0, [r2], #-5
    231c:	002f0602 	eoreq	r0, pc, r2, lsl #12
    2320:	67020402 	strvs	r0, [r2, -r2, lsl #8]
    2324:	02000105 	andeq	r0, r0, #1073741825	; 0x40000001
    2328:	13060204 	movwne	r0, #25092	; 0x6204
    232c:	02000505 	andeq	r0, r0, #20971520	; 0x1400000
    2330:	62060104 	andvs	r0, r6, #1
    2334:	01040200 	mrseq	r0, R12_usr
    2338:	04020001 	streq	r0, [r2], #-1
    233c:	00ba0601 	adcseq	r0, sl, r1, lsl #12
    2340:	06010402 	streq	r0, [r1], -r2, lsl #8
    2344:	033c052e 	teqeq	ip, #192937984	; 0xb800000
    2348:	01069e0a 	tsteq	r6, sl, lsl #28
    234c:	4b060505 	blmi	183768 <__bss_end__+0x1784d0>
    2350:	062e0601 	strteq	r0, [lr], -r1, lsl #12
    2354:	0113012e 	tsteq	r3, lr, lsr #2
    2358:	ad031805 	stcge	8, cr1, [r3, #-20]	; 0xffffffec
    235c:	0505017f 	streq	r0, [r5, #-383]	; 0xfffffe81
    2360:	06110513 			; <UNDEFINED> instruction: 0x06110513
    2364:	05052e01 	streq	r2, [r5, #-3585]	; 0xfffff1ff
    2368:	0100d203 	tsteq	r0, r3, lsl #4
    236c:	05134a06 	ldreq	r4, [r3, #-2566]	; 0xfffff5fa
    2370:	7fa30318 	svcvc	0x00a30318
    2374:	13050501 	movwne	r0, #21761	; 0x5501
    2378:	01061605 	tsteq	r6, r5, lsl #12
    237c:	0605054a 	streq	r0, [r5], -sl, asr #10
    2380:	0100e103 	tsteq	r0, r3, lsl #2
    2384:	01061205 	tsteq	r6, r5, lsl #4
    2388:	4b060505 	blmi	1837a4 <__bss_end__+0x17850c>
    238c:	a9031805 	stmdbge	r3, {r0, r2, fp, ip}
    2390:	0505017f 	streq	r0, [r5, #-383]	; 0xfffffe81
    2394:	18050113 	stmdane	r5, {r0, r1, r4, r8}
    2398:	1305050e 	movwne	r0, #21774	; 0x550e
    239c:	01061105 	tsteq	r6, r5, lsl #2
    23a0:	1505052e 	strne	r0, [r5, #-1326]	; 0xfffffad2
    23a4:	13014a06 	movwne	r4, #6662	; 0x1a06
    23a8:	01060e05 	tsteq	r6, r5, lsl #28
    23ac:	2e16052e 	cfmul64cs	mvdx0, mvdx6, mvdx14
    23b0:	0605052e 	streq	r0, [r5], -lr, lsr #10
    23b4:	0100d603 	tsteq	r0, r3, lsl #12
    23b8:	03180501 	tsteq	r8, #4194304	; 0x400000
    23bc:	05017f9f 	streq	r7, [r1, #-3999]	; 0xfffff061
    23c0:	19051305 	stmdbne	r5, {r0, r2, r8, r9, ip}
    23c4:	052e0106 	streq	r0, [lr, #-262]!	; 0xfffffefa
    23c8:	00e00305 	rsceq	r0, r0, r5, lsl #6
    23cc:	04020001 	streq	r0, [r2], #-1
    23d0:	004a0602 	subeq	r0, sl, r2, lsl #12
    23d4:	14020402 	strne	r0, [r2], #-1026	; 0xfffffbfe
    23d8:	02000a05 	andeq	r0, r0, #20480	; 0x5000
    23dc:	01060204 	tsteq	r6, r4, lsl #4
    23e0:	02000505 	andeq	r0, r0, #20971520	; 0x1400000
    23e4:	4b060204 	blmi	182bfc <__bss_end__+0x177964>
    23e8:	02000c05 	andeq	r0, r0, #1280	; 0x500
    23ec:	01060204 	tsteq	r6, r4, lsl #4
    23f0:	02000105 	andeq	r0, r0, #1073741825	; 0x40000001
    23f4:	052f0204 	streq	r0, [pc, #-516]!	; 21f8 <__code_start__-0x5e08>
    23f8:	04020005 	streq	r0, [r2], #-5
    23fc:	73030601 	movwvc	r0, #13825	; 0x3601
    2400:	0402004a 	streq	r0, [r2], #-74	; 0xffffffb6
    2404:	02000101 	andeq	r0, r0, #1073741824	; 0x40000000
    2408:	9e060104 	adflss	f0, f6, f4
    240c:	01040200 	mrseq	r0, R12_usr
    2410:	0402002e 	streq	r0, [r2], #-46	; 0xffffffd2
    2414:	002e0601 	eoreq	r0, lr, r1, lsl #12
    2418:	2f010402 	svccs	0x00010402
    241c:	01040200 	mrseq	r0, R12_usr
    2420:	0402002e 	streq	r0, [r2], #-46	; 0xffffffd2
    2424:	b103d601 	tstlt	r3, r1, lsl #12
    2428:	06012e7f 			; <UNDEFINED> instruction: 0x06012e7f
    242c:	062e2e82 	strteq	r2, [lr], -r2, lsl #29
    2430:	002e062e 	eoreq	r0, lr, lr, lsr #12
    2434:	06010402 	streq	r0, [r1], -r2, lsl #8
    2438:	0100d703 	tsteq	r0, r3, lsl #14
    243c:	01040200 	mrseq	r0, R12_usr
    2440:	0402002e 	streq	r0, [r2], #-46	; 0xffffffd2
    2444:	1505d601 	strne	sp, [r5, #-1537]	; 0xfffff9ff
    2448:	17057b08 	strne	r7, [r5, -r8, lsl #22]
    244c:	31160501 	tstcc	r6, r1, lsl #10
    2450:	05011805 	streq	r1, [r1, #-2053]	; 0xfffff7fb
    2454:	0501061d 	streq	r0, [r1, #-1565]	; 0xfffff9e3
    2458:	1905662b 	stmdbne	r5, {r0, r1, r3, r5, r9, sl, sp, lr}
    245c:	05054d06 	streq	r4, [r5, #-3334]	; 0xfffff2fa
    2460:	060c0513 			; <UNDEFINED> instruction: 0x060c0513
    2464:	4a070501 	bmi	1c3870 <__bss_end__+0x1b85d8>
    2468:	02002505 	andeq	r2, r0, #20971520	; 0x1400000
    246c:	054a0104 	strbeq	r0, [sl, #-260]	; 0xfffffefc
    2470:	0402001e 	streq	r0, [r2], #-30	; 0xffffffe2
    2474:	09054a01 	stmdbeq	r5, {r0, r9, fp, lr}
    2478:	05054b06 	streq	r4, [r5, #-2822]	; 0xfffff4fa
    247c:	060a0513 			; <UNDEFINED> instruction: 0x060a0513
    2480:	63190501 	tstvs	r9, #4194304	; 0x400000
    2484:	4c060905 			; <UNDEFINED> instruction: 0x4c060905
    2488:	069e0601 	ldreq	r0, [lr], r1, lsl #12
    248c:	000a022e 	andeq	r0, sl, lr, lsr #4
    2490:	02890101 	addeq	r0, r9, #1073741824	; 0x40000000
    2494:	00030000 	andeq	r0, r3, r0
    2498:	000000c9 	andeq	r0, r0, r9, asr #1
    249c:	0efb0102 	cdpeq	1, 15, cr0, cr11, cr2, {0}
    24a0:	0101000d 	tsteq	r1, sp
    24a4:	00000101 	andeq	r0, r0, r1, lsl #2
    24a8:	00000100 	andeq	r0, r0, r0, lsl #2
    24ac:	732f2e01 			; <UNDEFINED> instruction: 0x732f2e01
    24b0:	2f006372 	svccs	0x00006372
    24b4:	72657355 	rsbvc	r7, r5, #1409286145	; 0x54000001
    24b8:	696d2f73 	stmdbvs	sp!, {r0, r1, r4, r5, r6, r8, r9, sl, fp, sp}^
    24bc:	2f73656c 	svccs	0x0073656c
    24c0:	72756f53 	rsbsvc	r6, r5, #332	; 0x14c
    24c4:	632f6563 			; <UNDEFINED> instruction: 0x632f6563
    24c8:	30343273 	eorscc	r3, r4, r3, ror r2
    24cc:	6c2f786c 	stcvs	8, cr7, [pc], #-432	; 2324 <__code_start__-0x5cdc>
    24d0:	69706269 	ldmdbvs	r0!, {r0, r3, r5, r6, r9, sp, lr}^
    24d4:	636e692f 	cmnvs	lr, #770048	; 0xbc000
    24d8:	6564756c 	strbvs	r7, [r4, #-1388]!	; 0xfffffa94
    24dc:	706f2f00 	rsbvc	r2, pc, r0, lsl #30
    24e0:	6f682f74 	svcvs	0x00682f74
    24e4:	7262656d 	rsbvc	r6, r2, #457179136	; 0x1b400000
    24e8:	432f7765 			; <UNDEFINED> instruction: 0x432f7765
    24ec:	616c6c65 	cmnvs	ip, r5, ror #24
    24f0:	72612f72 	rsbvc	r2, r1, #456	; 0x1c8
    24f4:	6f6e2d6d 	svcvs	0x006e2d6d
    24f8:	652d656e 	strvs	r6, [sp, #-1390]!	; 0xfffffa92
    24fc:	2d696261 	sfmcs	f6, 2, [r9, #-388]!	; 0xfffffe7c
    2500:	2d392f39 	ldccs	15, cr2, [r9, #-228]!	; 0xffffff1c
    2504:	39313032 	ldmdbcc	r1!, {r1, r4, r5, ip, sp}
    2508:	632d3471 			; <UNDEFINED> instruction: 0x632d3471
    250c:	37303173 			; <UNDEFINED> instruction: 0x37303173
    2510:	696c2f65 	stmdbvs	ip!, {r0, r2, r5, r6, r8, r9, sl, fp, sp}^
    2514:	63672f62 	cmnvs	r7, #392	; 0x188
    2518:	72612f63 	rsbvc	r2, r1, #396	; 0x18c
    251c:	6f6e2d6d 	svcvs	0x006e2d6d
    2520:	652d656e 	strvs	r6, [sp, #-1390]!	; 0xfffffa92
    2524:	2f696261 	svccs	0x00696261
    2528:	2e322e39 	mrccs	14, 1, r2, cr2, cr9, {1}
    252c:	6e692f31 	mcrvs	15, 3, r2, cr9, cr1, {1}
    2530:	64756c63 	ldrbtvs	r6, [r5], #-3171	; 0xfffff39d
    2534:	67000065 	strvs	r0, [r0, -r5, rrx]
    2538:	2e6f6970 			; <UNDEFINED> instruction: 0x2e6f6970
    253c:	00010063 	andeq	r0, r1, r3, rrx
    2540:	69707200 	ldmdbvs	r0!, {r9, ip, sp, lr}^
    2544:	0200682e 	andeq	r6, r0, #3014656	; 0x2e0000
    2548:	74730000 	ldrbtvc	r0, [r3], #-0
    254c:	746e6964 	strbtvc	r6, [lr], #-2404	; 0xfffff69c
    2550:	6363672d 	cmnvs	r3, #11796480	; 0xb40000
    2554:	0300682e 	movweq	r6, #2094	; 0x82e
    2558:	70670000 	rsbvc	r0, r7, r0
    255c:	682e6f69 	stmdavs	lr!, {r0, r3, r5, r6, r8, r9, sl, fp, sp, lr}
    2560:	00000200 	andeq	r0, r0, r0, lsl #4
    2564:	00380500 	eorseq	r0, r8, r0, lsl #10
    2568:	a2cc0205 	sbcge	r0, ip, #1342177280	; 0x50000000
    256c:	27030000 	strcs	r0, [r3, -r0]
    2570:	13050501 	movwne	r0, #21761	; 0x5501
    2574:	01060705 	tsteq	r6, r5, lsl #14
    2578:	49060605 	stmdbmi	r6, {r0, r2, r9, sl}
    257c:	05150505 	ldreq	r0, [r5, #-1285]	; 0xfffffafb
    2580:	05010607 	streq	r0, [r1, #-1543]	; 0xfffff9f9
    2584:	07052b38 	smladxeq	r5, r8, fp, r2
    2588:	0605054d 	streq	r0, [r5], -sp, asr #10
    258c:	06180530 			; <UNDEFINED> instruction: 0x06180530
    2590:	671c0501 	ldrvs	r0, [ip, -r1, lsl #10]
    2594:	054a0e05 	strbeq	r0, [sl, #-3589]	; 0xfffff1fb
    2598:	12052d18 	andne	r2, r5, #24, 26	; 0x600
    259c:	052f2e4d 	streq	r2, [pc, #-3661]!	; 1757 <__code_start__-0x68a9>
    25a0:	05052a0e 	streq	r2, [r5, #-2574]	; 0xfffff5f2
    25a4:	13142f06 	tstne	r4, #6, 30
    25a8:	01060705 	tsteq	r6, r5, lsl #14
    25ac:	2f060505 	svccs	0x00060505
    25b0:	2e2e0613 	mcrcs	6, 1, r0, cr14, cr3, {0}
    25b4:	05130105 	ldreq	r0, [r3, #-261]	; 0xfffffefb
    25b8:	052e2d05 	streq	r2, [lr, #-3333]!	; 0xfffff2fb
    25bc:	05000624 	streq	r0, [r0, #-1572]	; 0xfffff9dc
    25c0:	00a32c02 	adceq	r2, r3, r2, lsl #24
    25c4:	05051500 	streq	r1, [r5, #-1280]	; 0xfffffb00
    25c8:	03060513 	movweq	r0, #25875	; 0x6513
    25cc:	05050171 	streq	r0, [r5, #-369]	; 0xfffffe8f
    25d0:	06070513 			; <UNDEFINED> instruction: 0x06070513
    25d4:	06060501 	streq	r0, [r6], -r1, lsl #10
    25d8:	15050549 	strne	r0, [r5, #-1353]	; 0xfffffab7
    25dc:	06240514 			; <UNDEFINED> instruction: 0x06240514
    25e0:	05010903 	streq	r0, [r1, #-2307]	; 0xfffff6fd
    25e4:	2e770318 	mrccs	3, 3, r0, cr7, cr8, {0}
    25e8:	05671c05 	strbeq	r1, [r7, #-3077]!	; 0xfffff3fb
    25ec:	18054a0e 	stmdane	r5, {r1, r2, r3, r9, fp, lr}
    25f0:	4d12052d 	cfldr32mi	mvfx0, [r2, #-180]	; 0xffffff4c
    25f4:	0f052f2e 	svceq	0x00052f2e
    25f8:	290e052f 	stmdbcs	lr, {r0, r1, r2, r3, r5, r8, sl}
    25fc:	2f060505 	svccs	0x00060505
    2600:	07051314 	smladeq	r5, r4, r3, r1
    2604:	05050106 	streq	r0, [r5, #-262]	; 0xfffffefa
    2608:	06132f06 	ldreq	r2, [r3], -r6, lsl #30
    260c:	3301052e 	movwcc	r0, #5422	; 0x152e
    2610:	2e290505 	cfsh64cs	mvdx0, mvdx9, #5
    2614:	00062705 	andeq	r2, r6, r5, lsl #14
    2618:	a3840205 	orrge	r0, r4, #1342177280	; 0x50000000
    261c:	051a0000 	ldreq	r0, [sl, #-0]
    2620:	27051305 	strcs	r1, [r5, -r5, lsl #6]
    2624:	18051106 	stmdane	r5, {r1, r2, r8, ip}
    2628:	2e05052f 	cfsh32cs	mvfx0, mvfx5, #31
    262c:	28054a2e 	stmdacs	r5, {r1, r2, r3, r5, r9, fp, lr}
    2630:	02050006 	andeq	r0, r5, #6, 0
    2634:	0000a39c 	muleq	r0, ip, r3
    2638:	13050516 	movwne	r0, #21782	; 0x5516
    263c:	11062805 	tstne	r6, r5, lsl #16
    2640:	052f1805 	streq	r1, [pc, #-2053]!	; 1e43 <__code_start__-0x61bd>
    2644:	4a2e2e05 	bmi	b8de60 <__bss_end__+0xb82bc8>
    2648:	00062305 	andeq	r2, r6, r5, lsl #6
    264c:	a3b40205 			; <UNDEFINED> instruction: 0xa3b40205
    2650:	05160000 	ldreq	r0, [r6, #-0]
    2654:	06051305 	streq	r1, [r5], -r5, lsl #6
    2658:	05016203 	streq	r6, [r1, #-515]	; 0xfffffdfd
    265c:	07051305 	streq	r1, [r5, -r5, lsl #6]
    2660:	06050106 	streq	r0, [r5], -r6, lsl #2
    2664:	05054906 	streq	r4, [r5, #-2310]	; 0xfffff6fa
    2668:	05131415 	ldreq	r1, [r3, #-1045]	; 0xfffffbeb
    266c:	17030623 	strne	r0, [r3, -r3, lsr #12]
    2670:	03220501 			; <UNDEFINED> instruction: 0x03220501
    2674:	1c052e69 	stcne	14, cr2, [r5], {105}	; 0x69
    2678:	0e052e82 	cdpeq	14, 0, cr2, cr5, cr2, {4}
    267c:	0605052e 	streq	r0, [r5], -lr, lsr #10
    2680:	06120530 			; <UNDEFINED> instruction: 0x06120530
    2684:	052d4b01 	streq	r4, [sp, #-2817]!	; 0xfffff4ff
    2688:	132f0605 			; <UNDEFINED> instruction: 0x132f0605
    268c:	06180513 			; <UNDEFINED> instruction: 0x06180513
    2690:	05017a03 	streq	r7, [r1, #-2563]	; 0xfffff5fd
    2694:	05054a0e 	streq	r4, [r5, #-2574]	; 0xfffff5f2
    2698:	01052e34 	tsteq	r5, r4, lsr lr
    269c:	052e1403 	streq	r1, [lr, #-1027]!	; 0xfffffbfd
    26a0:	2e6c0305 	cdpcs	3, 6, cr0, cr12, cr5, {0}
    26a4:	062b052e 	strteq	r0, [fp], -lr, lsr #10
    26a8:	0c020500 	cfstr32eq	mvfx0, [r2], {-0}
    26ac:	030000a4 	movweq	r0, #164	; 0xa4
    26b0:	05050117 	streq	r0, [r5, #-279]	; 0xfffffee9
    26b4:	06070513 			; <UNDEFINED> instruction: 0x06070513
    26b8:	03180501 	tsteq	r8, #4194304	; 0x400000
    26bc:	2b052e71 	blcs	14e088 <__bss_end__+0x142df0>
    26c0:	052e0e03 	streq	r0, [lr, #-3587]!	; 0xfffff1fd
    26c4:	09052f07 	stmdbeq	r5, {r0, r1, r2, r8, r9, sl, fp, sp}
    26c8:	0d052f06 	stceq	15, cr2, [r5, #-24]	; 0xffffffe8
    26cc:	05016f03 	streq	r6, [r1, #-3843]	; 0xfffff0fd
    26d0:	2e061305 	cdpcs	3, 0, cr1, cr6, cr5, {0}
    26d4:	09052e2e 	stmdbeq	r5, {r1, r2, r3, r5, r9, sl, fp, sp}
    26d8:	01120306 	tsteq	r2, r6, lsl #6
    26dc:	72030d05 	andvc	r0, r3, #320	; 0x140
    26e0:	13050501 	movwne	r0, #21761	; 0x5501
    26e4:	052e2e06 	streq	r2, [lr, #-3590]!	; 0xfffff1fa
    26e8:	1003061d 	andne	r0, r3, sp, lsl r6
    26ec:	13050566 	movwne	r0, #21862	; 0x5566
    26f0:	11061d05 	tstne	r6, r5, lsl #26
    26f4:	0605052e 	streq	r0, [r5], -lr, lsr #10
    26f8:	0e051330 	mcreq	3, 0, r1, cr5, cr0, {1}
    26fc:	17051006 	strne	r1, [r5, -r6]
    2700:	02042e30 	andeq	r2, r4, #48, 28	; 0x300
    2704:	03063005 	movweq	r3, #24581	; 0x6005
    2708:	042e00dd 	strteq	r0, [lr], #-221	; 0xffffff23
    270c:	060e0501 	streq	r0, [lr], -r1, lsl #10
    2710:	017fa203 	cmneq	pc, r3, lsl #4
    2714:	052f2305 	streq	r2, [pc, #-773]!	; 2417 <__code_start__-0x5be9>
    2718:	06022f01 	streq	r2, [r2], -r1, lsl #30
    271c:	9e010100 	adflss	f0, f1, f0
    2720:	03000000 	movweq	r0, #0
    2724:	00005a00 	andeq	r5, r0, r0, lsl #20
    2728:	fb010200 	blx	42f32 <__bss_end__+0x37c9a>
    272c:	01000d0e 	tsteq	r0, lr, lsl #26
    2730:	00010101 	andeq	r0, r1, r1, lsl #2
    2734:	00010000 	andeq	r0, r1, r0
    2738:	2f2e0100 	svccs	0x002e0100
    273c:	6362696c 	cmnvs	r2, #108, 18	; 0x1b0000
    2740:	73552f00 	cmpvc	r5, #0, 30
    2744:	2f737265 	svccs	0x00737265
    2748:	656c696d 	strbvs	r6, [ip, #-2413]!	; 0xfffff693
    274c:	6f532f73 	svcvs	0x00532f73
    2750:	65637275 	strbvs	r7, [r3, #-629]!	; 0xfffffd8b
    2754:	3273632f 	rsbscc	r6, r3, #-1140850688	; 0xbc000000
    2758:	786c3034 	stmdavc	ip!, {r2, r4, r5, ip, sp}^
    275c:	62696c2f 	rsbvs	r6, r9, #12032	; 0x2f00
    2760:	692f6970 	stmdbvs	pc!, {r4, r5, r6, r8, fp, sp, lr}	; <UNPREDICTABLE>
    2764:	756c636e 	strbvc	r6, [ip, #-878]!	; 0xfffffc92
    2768:	00006564 	andeq	r6, r0, r4, ror #10
    276c:	63747570 	cmnvs	r4, #112, 10	; 0x1c000000
    2770:	2e726168 	rpwcssz	f6, f2, #0.0
    2774:	00010063 	andeq	r0, r1, r3, rrx
    2778:	69707200 	ldmdbvs	r0!, {r9, ip, sp, lr}^
    277c:	0200682e 	andeq	r6, r0, #3014656	; 0x2e0000
    2780:	05000000 	streq	r0, [r0, #-0]
    2784:	02050024 	andeq	r0, r5, #36, 0	; 0x24
    2788:	0000a464 	andeq	sl, r0, r4, ror #8
    278c:	01260514 			; <UNDEFINED> instruction: 0x01260514
    2790:	01062405 	tsteq	r6, r5, lsl #8
    2794:	2e26052e 	cfsh64cs	mvdx0, mvdx6, #30
    2798:	2e063405 	cdpcs	4, 0, cr3, cr6, cr5, {0}
    279c:	01060105 	tsteq	r6, r5, lsl #2
    27a0:	4f061b05 	svcmi	0x00061b05
    27a4:	05130505 	ldreq	r0, [r3, #-1285]	; 0xfffffafb
    27a8:	05010611 	streq	r0, [r1, #-1553]	; 0xfffff9ef
    27ac:	23056701 	movwcs	r6, #22273	; 0x5701
    27b0:	05056706 	streq	r6, [r5, #-1798]	; 0xfffff8fa
    27b4:	06110513 			; <UNDEFINED> instruction: 0x06110513
    27b8:	4b010501 	blmi	43bc4 <__bss_end__+0x3892c>
    27bc:	01000402 	tsteq	r0, r2, lsl #8
    27c0:	0000e201 	andeq	lr, r0, r1, lsl #4
    27c4:	59000300 	stmdbpl	r0, {r8, r9}
    27c8:	02000000 	andeq	r0, r0, #0, 0
    27cc:	0d0efb01 	vstreq	d15, [lr, #-4]
    27d0:	01010100 	mrseq	r0, (UNDEF: 17)
    27d4:	00000001 	andeq	r0, r0, r1
    27d8:	01000001 	tsteq	r0, r1
    27dc:	696c2f2e 	stmdbvs	ip!, {r1, r2, r3, r5, r8, r9, sl, fp, sp}^
    27e0:	2f006362 	svccs	0x00006362
    27e4:	72657355 	rsbvc	r7, r5, #1409286145	; 0x54000001
    27e8:	696d2f73 	stmdbvs	sp!, {r0, r1, r4, r5, r6, r8, r9, sl, fp, sp}^
    27ec:	2f73656c 	svccs	0x0073656c
    27f0:	72756f53 	rsbsvc	r6, r5, #332	; 0x14c
    27f4:	632f6563 			; <UNDEFINED> instruction: 0x632f6563
    27f8:	30343273 	eorscc	r3, r4, r3, ror r2
    27fc:	6c2f786c 	stcvs	8, cr7, [pc], #-432	; 2654 <__code_start__-0x59ac>
    2800:	69706269 	ldmdbvs	r0!, {r0, r3, r5, r6, r9, sp, lr}^
    2804:	636e692f 	cmnvs	lr, #770048	; 0xbc000
    2808:	6564756c 	strbvs	r7, [r4, #-1388]!	; 0xfffffa94
    280c:	74730000 	ldrbtvc	r0, [r3], #-0
    2810:	74616372 	strbtvc	r6, [r1], #-882	; 0xfffffc8e
    2814:	0100632e 	tsteq	r0, lr, lsr #6
    2818:	70720000 	rsbsvc	r0, r2, r0
    281c:	00682e69 	rsbeq	r2, r8, r9, ror #28
    2820:	00000002 	andeq	r0, r0, r2
    2824:	05002c05 	streq	r2, [r0, #-3077]	; 0xfffff3fb
    2828:	00a4a002 	adceq	sl, r4, r2
    282c:	05051500 	streq	r1, [r5, #-1280]	; 0xfffffb00
    2830:	0b051313 	bleq	147484 <__bss_end__+0x13c1ec>
    2834:	05051106 	streq	r1, [r5, #-262]	; 0xfffffefa
    2838:	01040200 	mrseq	r0, R12_usr
    283c:	02003006 	andeq	r3, r0, #6, 0
    2840:	05150104 	ldreq	r0, [r5, #-260]	; 0xfffffefc
    2844:	04020009 	streq	r0, [r2], #-9
    2848:	0b051301 	bleq	147454 <__bss_end__+0x13c1bc>
    284c:	01040200 	mrseq	r0, R12_usr
    2850:	0005052f 	andeq	r0, r5, pc, lsr #10
    2854:	06010402 	streq	r0, [r1], -r2, lsl #8
    2858:	04020001 	streq	r0, [r2], #-1
    285c:	4e062e01 	cdpmi	14, 0, cr2, cr6, cr1, {0}
    2860:	01060805 	tsteq	r6, r5, lsl #16
    2864:	02000505 	andeq	r0, r0, #20971520	; 0x1400000
    2868:	2f060104 	svccs	0x00060104
    286c:	02000905 	andeq	r0, r0, #81920	; 0x14000
    2870:	05130104 	ldreq	r0, [r3, #-260]	; 0xfffffefc
    2874:	0402000b 	streq	r0, [r2], #-11
    2878:	05010601 	streq	r0, [r1, #-1537]	; 0xfffff9ff
    287c:	04020009 	streq	r0, [r2], #-9
    2880:	052f0601 	streq	r0, [pc, #-1537]!	; 2287 <__code_start__-0x5d79>
    2884:	04020005 	streq	r0, [r2], #-5
    2888:	05130601 	ldreq	r0, [r3, #-1537]	; 0xfffff9ff
    288c:	0402000f 	streq	r0, [r2], #-15
    2890:	0d052d01 	stceq	13, cr2, [r5, #-4]
    2894:	01040200 	mrseq	r0, R12_usr
    2898:	05052f06 	streq	r2, [r5, #-3846]	; 0xfffff0fa
    289c:	01040200 	mrseq	r0, R12_usr
    28a0:	04020106 	streq	r0, [r2], #-262	; 0xfffffefa
    28a4:	b2010100 	andlt	r0, r1, #0
    28a8:	03000000 	movweq	r0, #0
    28ac:	00005900 	andeq	r5, r0, r0, lsl #18
    28b0:	fb010200 	blx	430ba <__bss_end__+0x37e22>
    28b4:	01000d0e 	tsteq	r0, lr, lsl #26
    28b8:	00010101 	andeq	r0, r1, r1, lsl #2
    28bc:	00010000 	andeq	r0, r1, r0
    28c0:	2f2e0100 	svccs	0x002e0100
    28c4:	6362696c 	cmnvs	r2, #108, 18	; 0x1b0000
    28c8:	73552f00 	cmpvc	r5, #0, 30
    28cc:	2f737265 	svccs	0x00737265
    28d0:	656c696d 	strbvs	r6, [ip, #-2413]!	; 0xfffff693
    28d4:	6f532f73 	svcvs	0x00532f73
    28d8:	65637275 	strbvs	r7, [r3, #-629]!	; 0xfffffd8b
    28dc:	3273632f 	rsbscc	r6, r3, #-1140850688	; 0xbc000000
    28e0:	786c3034 	stmdavc	ip!, {r2, r4, r5, ip, sp}^
    28e4:	62696c2f 	rsbvs	r6, r9, #12032	; 0x2f00
    28e8:	692f6970 	stmdbvs	pc!, {r4, r5, r6, r8, fp, sp, lr}	; <UNPREDICTABLE>
    28ec:	756c636e 	strbvc	r6, [ip, #-878]!	; 0xfffffc92
    28f0:	00006564 	andeq	r6, r0, r4, ror #10
    28f4:	63727473 	cmnvs	r2, #1929379840	; 0x73000000
    28f8:	632e706d 			; <UNDEFINED> instruction: 0x632e706d
    28fc:	00000100 	andeq	r0, r0, r0, lsl #2
    2900:	2e697072 	mcrcs	0, 3, r7, cr9, cr2, {3}
    2904:	00020068 	andeq	r0, r2, r8, rrx
    2908:	2a050000 	bcs	142910 <__bss_end__+0x137678>
    290c:	cc020500 	cfstr32gt	mvfx0, [r2], {-0}
    2910:	140000a4 	strne	r0, [r0], #-164	; 0xffffff5c
    2914:	05130905 	ldreq	r0, [r3, #-2309]	; 0xfffff6fb
    2918:	05010610 	streq	r0, [r1, #-1552]	; 0xfffff9f0
    291c:	052e060f 	streq	r0, [lr, #-1551]!	; 0xfffff9f1
    2920:	05820610 	streq	r0, [r2, #1552]	; 0x610
    2924:	11052e0f 	tstne	r5, pc, lsl #28
    2928:	01040200 	mrseq	r0, R12_usr
    292c:	1c054b06 			; <UNDEFINED> instruction: 0x1c054b06
    2930:	01040200 	mrseq	r0, R12_usr
    2934:	0f052d06 	svceq	0x00052d06
    2938:	01040200 	mrseq	r0, R12_usr
    293c:	13052e06 	movwne	r2, #24070	; 0x5e06
    2940:	01040200 	mrseq	r0, R12_usr
    2944:	09050106 	stmdbeq	r5, {r1, r2, r8}
    2948:	01054c06 	tsteq	r5, r6, lsl #24
    294c:	054a1306 	strbeq	r1, [sl, #-774]	; 0xfffffcfa
    2950:	052d0609 	streq	r0, [sp, #-1545]!	; 0xfffff9f7
    2954:	2e130601 	cfmsub32cs	mvax0, mvfx0, mvfx3, mvfx1
    2958:	01000202 	tsteq	r0, r2, lsl #4
    295c:	00009d01 	andeq	r9, r0, r1, lsl #26
    2960:	59000300 	stmdbpl	r0, {r8, r9}
    2964:	02000000 	andeq	r0, r0, #0, 0
    2968:	0d0efb01 	vstreq	d15, [lr, #-4]
    296c:	01010100 	mrseq	r0, (UNDEF: 17)
    2970:	00000001 	andeq	r0, r0, r1
    2974:	01000001 	tsteq	r0, r1
    2978:	696c2f2e 	stmdbvs	ip!, {r1, r2, r3, r5, r8, r9, sl, fp, sp}^
    297c:	2f006362 	svccs	0x00006362
    2980:	72657355 	rsbvc	r7, r5, #1409286145	; 0x54000001
    2984:	696d2f73 	stmdbvs	sp!, {r0, r1, r4, r5, r6, r8, r9, sl, fp, sp}^
    2988:	2f73656c 	svccs	0x0073656c
    298c:	72756f53 	rsbsvc	r6, r5, #332	; 0x14c
    2990:	632f6563 			; <UNDEFINED> instruction: 0x632f6563
    2994:	30343273 	eorscc	r3, r4, r3, ror r2
    2998:	6c2f786c 	stcvs	8, cr7, [pc], #-432	; 27f0 <__code_start__-0x5810>
    299c:	69706269 	ldmdbvs	r0!, {r0, r3, r5, r6, r9, sp, lr}^
    29a0:	636e692f 	cmnvs	lr, #770048	; 0xbc000
    29a4:	6564756c 	strbvs	r7, [r4, #-1388]!	; 0xfffffa94
    29a8:	74730000 	ldrbtvc	r0, [r3], #-0
    29ac:	79706372 	ldmdbvc	r0!, {r1, r4, r5, r6, r8, r9, sp, lr}^
    29b0:	0100632e 	tsteq	r0, lr, lsr #6
    29b4:	70720000 	rsbsvc	r0, r2, r0
    29b8:	00682e69 	rsbeq	r2, r8, r9, ror #28
    29bc:	00000002 	andeq	r0, r0, r2
    29c0:	05002a05 	streq	r2, [r0, #-2565]	; 0xfffff5fb
    29c4:	00a51002 	adceq	r1, r5, r2
    29c8:	05051400 	streq	r1, [r5, #-1024]	; 0xfffffc00
    29cc:	22051313 	andcs	r1, r5, #1275068416	; 0x4c000000
    29d0:	01040200 	mrseq	r0, R12_usr
    29d4:	000b052e 	andeq	r0, fp, lr, lsr #10
    29d8:	01010402 	tsteq	r1, r2, lsl #8
    29dc:	02001505 	andeq	r1, r0, #20971520	; 0x1400000
    29e0:	01060104 	tsteq	r6, r4, lsl #2
    29e4:	02000b05 	andeq	r0, r0, #5120	; 0x1400
    29e8:	052e0104 	streq	r0, [lr, #-260]!	; 0xfffffefc
    29ec:	04020013 	streq	r0, [r2], #-19	; 0xffffffed
    29f0:	0b052e01 	bleq	14e1fc <__bss_end__+0x142f64>
    29f4:	01040200 	mrseq	r0, R12_usr
    29f8:	0004022e 	andeq	r0, r4, lr, lsr #4
    29fc:	00fd0101 	rscseq	r0, sp, r1, lsl #2
    2a00:	00030000 	andeq	r0, r3, r0
    2a04:	000000bf 	strheq	r0, [r0], -pc	; <UNPREDICTABLE>
    2a08:	0efb0102 	cdpeq	1, 15, cr0, cr11, cr2, {0}
    2a0c:	0101000d 	tsteq	r1, sp
    2a10:	00000101 	andeq	r0, r0, r1, lsl #2
    2a14:	00000100 	andeq	r0, r0, r0, lsl #2
    2a18:	6c2f2e01 	stcvs	14, cr2, [pc], #-4	; 2a1c <__code_start__-0x55e4>
    2a1c:	00636269 	rsbeq	r6, r3, r9, ror #4
    2a20:	6573552f 	ldrbvs	r5, [r3, #-1327]!	; 0xfffffad1
    2a24:	6d2f7372 	stcvs	3, cr7, [pc, #-456]!	; 2864 <__code_start__-0x579c>
    2a28:	73656c69 	cmnvc	r5, #26880	; 0x6900
    2a2c:	756f532f 	strbvc	r5, [pc, #-815]!	; 2705 <__code_start__-0x58fb>
    2a30:	2f656372 	svccs	0x00656372
    2a34:	34327363 	ldrtcc	r7, [r2], #-867	; 0xfffffc9d
    2a38:	2f786c30 	svccs	0x00786c30
    2a3c:	7062696c 	rsbvc	r6, r2, ip, ror #18
    2a40:	6e692f69 	cdpvs	15, 6, cr2, cr9, cr9, {3}
    2a44:	64756c63 	ldrbtvs	r6, [r5], #-3171	; 0xfffff39d
    2a48:	6f2f0065 	svcvs	0x002f0065
    2a4c:	682f7470 	stmdavs	pc!, {r4, r5, r6, sl, ip, sp, lr}	; <UNPREDICTABLE>
    2a50:	62656d6f 	rsbvs	r6, r5, #7104	; 0x1bc0
    2a54:	2f776572 	svccs	0x00776572
    2a58:	6c6c6543 	cfstr64vs	mvdx6, [ip], #-268	; 0xfffffef4
    2a5c:	612f7261 			; <UNDEFINED> instruction: 0x612f7261
    2a60:	6e2d6d72 	mcrvs	13, 1, r6, cr13, cr2, {3}
    2a64:	2d656e6f 	stclcs	14, cr6, [r5, #-444]!	; 0xfffffe44
    2a68:	69626165 	stmdbvs	r2!, {r0, r2, r5, r6, r8, sp, lr}^
    2a6c:	392f392d 	stmdbcc	pc!, {r0, r2, r3, r5, r8, fp, ip, sp}	; <UNPREDICTABLE>
    2a70:	3130322d 	teqcc	r0, sp, lsr #4
    2a74:	2d347139 	ldfcss	f7, [r4, #-228]!	; 0xffffff1c
    2a78:	30317363 	eorscc	r7, r1, r3, ror #6
    2a7c:	6c2f6537 	cfstr32vs	mvfx6, [pc], #-220	; 29a8 <__code_start__-0x5658>
    2a80:	672f6269 	strvs	r6, [pc, -r9, ror #4]!
    2a84:	612f6363 			; <UNDEFINED> instruction: 0x612f6363
    2a88:	6e2d6d72 	mcrvs	13, 1, r6, cr13, cr2, {3}
    2a8c:	2d656e6f 	stclcs	14, cr6, [r5, #-444]!	; 0xfffffe44
    2a90:	69626165 	stmdbvs	r2!, {r0, r2, r5, r6, r8, sp, lr}^
    2a94:	322e392f 	eorcc	r3, lr, #770048	; 0xbc000
    2a98:	692f312e 	stmdbvs	pc!, {r1, r2, r3, r5, r8, ip, sp}	; <UNPREDICTABLE>
    2a9c:	756c636e 	strbvc	r6, [ip, #-878]!	; 0xfffffc92
    2aa0:	00006564 	andeq	r6, r0, r4, ror #10
    2aa4:	6e727473 	mrcvs	4, 3, r7, cr2, cr3, {3}
    2aa8:	2e706d63 	cdpcs	13, 7, cr6, cr0, cr3, {3}
    2aac:	00010063 	andeq	r0, r1, r3, rrx
    2ab0:	69707200 	ldmdbvs	r0!, {r9, ip, sp, lr}^
    2ab4:	0200682e 	andeq	r6, r0, #3014656	; 0x2e0000
    2ab8:	74730000 	ldrbtvc	r0, [r3], #-0
    2abc:	66656464 	strbtvs	r6, [r5], -r4, ror #8
    2ac0:	0300682e 	movweq	r6, #2094	; 0x82e
    2ac4:	05000000 	streq	r0, [r0, #-0]
    2ac8:	02050039 	andeq	r0, r5, #57, 0	; 0x39
    2acc:	0000a528 	andeq	sl, r0, r8, lsr #10
    2ad0:	13050515 	movwne	r0, #21781	; 0x5515
    2ad4:	060a0513 			; <UNDEFINED> instruction: 0x060a0513
    2ad8:	2f0c052e 	svccs	0x000c052e
    2adc:	052e1305 	streq	r1, [lr, #-773]!	; 0xfffffcfb
    2ae0:	09052e0b 	stmdbeq	r5, {r0, r1, r3, r9, sl, fp, sp}
    2ae4:	0a054a06 	beq	155304 <__bss_end__+0x14a06c>
    2ae8:	05010611 	streq	r0, [r1, #-1553]	; 0xfffff9ef
    2aec:	01054e0c 	tsteq	r5, ip, lsl #28
    2af0:	060d052f 	streq	r0, [sp], -pc, lsr #10
    2af4:	061b052b 	ldreq	r0, [fp], -fp, lsr #10
    2af8:	02022e01 	andeq	r2, r2, #1, 28
    2afc:	8a010100 	bhi	42f04 <__bss_end__+0x37c6c>
    2b00:	03000000 	movweq	r0, #0
    2b04:	00006e00 	andeq	r6, r0, r0, lsl #28
    2b08:	fb010200 	blx	43312 <__bss_end__+0x3807a>
    2b0c:	01000d0e 	tsteq	r0, lr, lsl #26
    2b10:	00010101 	andeq	r0, r1, r1, lsl #2
    2b14:	00010000 	andeq	r0, r1, r0
    2b18:	2f2e0100 	svccs	0x002e0100
    2b1c:	66617473 			; <UNDEFINED> instruction: 0x66617473
    2b20:	72732d66 	rsbsvc	r2, r3, #6528	; 0x1980
    2b24:	552f0063 	strpl	r0, [pc, #-99]!	; 2ac9 <__code_start__-0x5537>
    2b28:	73726573 	cmnvc	r2, #482344960	; 0x1cc00000
    2b2c:	6c696d2f 	stclvs	13, cr6, [r9], #-188	; 0xffffff44
    2b30:	532f7365 			; <UNDEFINED> instruction: 0x532f7365
    2b34:	6372756f 	cmnvs	r2, #465567744	; 0x1bc00000
    2b38:	73632f65 	cmnvc	r3, #404	; 0x194
    2b3c:	6c303432 	cfldrsvs	mvf3, [r0], #-200	; 0xffffff38
    2b40:	696c2f78 	stmdbvs	ip!, {r3, r4, r5, r6, r8, r9, sl, fp, sp}^
    2b44:	2f697062 	svccs	0x00697062
    2b48:	6c636e69 	stclvs	14, cr6, [r3], #-420	; 0xfffffe5c
    2b4c:	00656475 	rsbeq	r6, r5, r5, ror r4
    2b50:	66656400 	strbtvs	r6, [r5], -r0, lsl #8
    2b54:	746c7561 	strbtvc	r7, [ip], #-1377	; 0xfffffa9f
    2b58:	6265722d 	rsbvs	r7, r5, #-805306366	; 0xd0000002
    2b5c:	2d746f6f 	ldclcs	15, cr6, [r4, #-444]!	; 0xfffffe44
    2b60:	6c6c6163 	stfvse	f6, [ip], #-396	; 0xfffffe74
    2b64:	2e74756f 	cdpcs	5, 7, cr7, cr4, cr15, {3}
    2b68:	00010063 	andeq	r0, r1, r3, rrx
    2b6c:	69707200 	ldmdbvs	r0!, {r9, ip, sp, lr}^
    2b70:	0200682e 	andeq	r6, r0, #3014656	; 0x2e0000
    2b74:	05000000 	streq	r0, [r0, #-0]
    2b78:	0205001b 	andeq	r0, r5, #27, 0
    2b7c:	0000a558 	andeq	sl, r0, r8, asr r5
    2b80:	011c0514 	tsteq	ip, r4, lsl r5
    2b84:	01060105 	tsteq	r6, r5, lsl #2
    2b88:	01000202 	tsteq	r0, r2, lsl #4
    2b8c:	Address 0x0000000000002b8c is out of bounds.


Disassembly of section .debug_str:

00000000 <.debug_str>:
   0:	765f6b63 	ldrbvc	r6, [pc], -r3, ror #22
   4:	6f627265 	svcvs	0x00627265
   8:	705f6573 	subsvc	r6, pc, r3, ror r5	; <UNPREDICTABLE>
   c:	616b6300 	cmnvs	fp, r0, lsl #6
  10:	636f6c6c 	cmnvs	pc, #108, 24	; 0x6c00
  14:	6e696c00 	cdpvs	12, 6, cr6, cr9, cr0, {0}
  18:	006f6e65 	rsbeq	r6, pc, r5, ror #28
  1c:	6d746f6e 	ldclvs	15, cr6, [r4, #-440]!	; 0xfffffe48
  20:	006e6961 	rsbeq	r6, lr, r1, ror #18
  24:	656c6966 	strbvs	r6, [ip, #-2406]!	; 0xfffff69a
  28:	73657400 	cmnvc	r5, #0, 8
  2c:	322d7374 	eorcc	r7, sp, #116, 6	; 0xd0000001
  30:	702f302e 	eorvc	r3, pc, lr, lsr #32
  34:	31747261 	cmncc	r4, r1, ror #4
  38:	7365742d 	cmnvc	r5, #754974720	; 0x2d000000
  3c:	622d3274 	eorvs	r3, sp, #116, 4	; 0x40000007
  40:	632e6775 			; <UNDEFINED> instruction: 0x632e6775
  44:	656c6300 	strbvs	r6, [ip, #-768]!	; 0xfffffd00
  48:	725f6e61 	subsvc	r6, pc, #1552	; 0x610
  4c:	6f6f6265 	svcvs	0x006f6265
  50:	68730074 	ldmdavs	r3!, {r2, r4, r5, r6}^
  54:	2074726f 	rsbscs	r7, r4, pc, ror #4
  58:	69736e75 	ldmdbvs	r3!, {r0, r2, r4, r5, r6, r9, sl, fp, sp, lr}^
  5c:	64656e67 	strbtvs	r6, [r5], #-3687	; 0xfffff199
  60:	746e6920 	strbtvc	r6, [lr], #-2336	; 0xfffff6e0
  64:	554e4700 	strbpl	r4, [lr, #-1792]	; 0xfffff900
  68:	39394320 	ldmdbcc	r9!, {r5, r8, r9, lr}
  6c:	322e3920 	eorcc	r3, lr, #32, 18	; 0x80000
  70:	3220312e 	eorcc	r3, r0, #-2147483637	; 0x8000000b
  74:	31393130 	teqcc	r9, r0, lsr r1
  78:	20353230 	eorscs	r3, r5, r0, lsr r2
  7c:	6c657228 	sfmvs	f7, 2, [r5], #-160	; 0xffffff60
  80:	65736165 	ldrbvs	r6, [r3, #-357]!	; 0xfffffe9b
  84:	415b2029 	cmpmi	fp, r9, lsr #32
  88:	612f4d52 			; <UNDEFINED> instruction: 0x612f4d52
  8c:	392d6d72 	pushcc	{r1, r4, r5, r6, r8, sl, fp, sp, lr}
  90:	6172622d 	cmnvs	r2, sp, lsr #4
  94:	2068636e 	rsbcs	r6, r8, lr, ror #6
  98:	69766572 	ldmdbvs	r6!, {r1, r4, r5, r6, r8, sl, sp, lr}^
  9c:	6e6f6973 			; <UNDEFINED> instruction: 0x6e6f6973
  a0:	37373220 	ldrcc	r3, [r7, -r0, lsr #4]!
  a4:	5d393935 			; <UNDEFINED> instruction: 0x5d393935
  a8:	636d2d20 	cmnvs	sp, #32, 26	; 0x800
  ac:	613d7570 	teqvs	sp, r0, ror r5
  b0:	31316d72 	teqcc	r1, r2, ror sp
  b4:	7a6a3637 	bvc	1a8d998 <__bss_end__+0x1a82700>
  b8:	20732d66 	rsbscs	r2, r3, r6, ror #26
  bc:	75746d2d 	ldrbvc	r6, [r4, #-3373]!	; 0xfffff2d3
  c0:	613d656e 	teqvs	sp, lr, ror #10
  c4:	31316d72 	teqcc	r1, r2, ror sp
  c8:	7a6a3637 	bvc	1a8d9ac <__bss_end__+0x1a82714>
  cc:	20732d66 	rsbscs	r2, r3, r6, ror #26
  d0:	6f706d2d 	svcvs	0x00706d2d
  d4:	662d656b 	strtvs	r6, [sp], -fp, ror #10
  d8:	74636e75 	strbtvc	r6, [r3], #-3701	; 0xfffff18b
  dc:	2d6e6f69 	stclcs	15, cr6, [lr, #-420]!	; 0xfffffe5c
  e0:	656d616e 	strbvs	r6, [sp, #-366]!	; 0xfffffe92
  e4:	666d2d20 	strbtvs	r2, [sp], -r0, lsr #26
  e8:	74616f6c 	strbtvc	r6, [r1], #-3948	; 0xfffff094
  ec:	6962612d 	stmdbvs	r2!, {r0, r2, r3, r5, r8, sp, lr}^
  f0:	666f733d 			; <UNDEFINED> instruction: 0x666f733d
  f4:	6d2d2074 	stcvs	0, cr2, [sp, #-464]!	; 0xfffffe30
  f8:	206d7261 	rsbcs	r7, sp, r1, ror #4
  fc:	72616d2d 	rsbvc	r6, r1, #2880	; 0xb40
 100:	613d6863 	teqvs	sp, r3, ror #16
 104:	36766d72 			; <UNDEFINED> instruction: 0x36766d72
 108:	2d207a6b 	vstmdbcs	r0!, {s14-s120}
 10c:	62646767 	rsbvs	r6, r4, #27000832	; 0x19c0000
 110:	674f2d20 	strbvs	r2, [pc, -r0, lsr #26]
 114:	74732d20 	ldrbtvc	r2, [r3], #-3360	; 0xfffff2e0
 118:	6e673d64 	cdpvs	13, 6, cr3, cr7, cr4, {3}
 11c:	20393975 	eorscs	r3, r9, r5, ror r9
 120:	7266662d 	rsbvc	r6, r6, #47185920	; 0x2d00000
 124:	74736565 	ldrbtvc	r6, [r3], #-1381	; 0xfffffa9b
 128:	69646e61 	stmdbvs	r4!, {r0, r5, r6, r9, sl, fp, sp, lr}^
 12c:	2d20676e 	stccs	7, cr6, [r0, #-440]!	; 0xfffffe48
 130:	2d6f6e66 	stclcs	14, cr6, [pc, #-408]!	; ffffffa0 <__bss_end__+0xffff4d08>
 134:	74696d6f 	strbtvc	r6, [r9], #-3439	; 0xfffff291
 138:	6172662d 	cmnvs	r2, sp, lsr #12
 13c:	702d656d 	eorvc	r6, sp, sp, ror #10
 140:	746e696f 	strbtvc	r6, [lr], #-2415	; 0xfffff691
 144:	73007265 	movwvc	r7, #613	; 0x265
 148:	6c5f6372 	mrrcvs	3, 7, r6, pc, cr2	; <UNPREDICTABLE>
 14c:	6d5f636f 	ldclvs	3, cr6, [pc, #-444]	; ffffff98 <__bss_end__+0xffff4d00>
 150:	6e75006b 	cdpvs	0, 7, cr0, cr5, cr11, {3}
 154:	6e676973 			; <UNDEFINED> instruction: 0x6e676973
 158:	63206465 			; <UNDEFINED> instruction: 0x63206465
 15c:	00726168 	rsbseq	r6, r2, r8, ror #2
 160:	6573552f 	ldrbvs	r5, [r3, #-1327]!	; 0xfffffad1
 164:	6d2f7372 	stcvs	3, cr7, [pc, #-456]!	; ffffffa4 <__bss_end__+0xffff4d0c>
 168:	73656c69 	cmnvc	r5, #26880	; 0x6900
 16c:	756f532f 	strbvc	r5, [pc, #-815]!	; fffffe45 <__bss_end__+0xffff4bad>
 170:	2f656372 	svccs	0x00656372
 174:	34327363 	ldrtcc	r7, [r2], #-867	; 0xfffffc9d
 178:	2f786c30 	svccs	0x00786c30
 17c:	7362616c 	cmnvc	r2, #27
 180:	642d362f 	strtvs	r3, [sp], #-1583	; 0xfffff9d1
 184:	67756265 	ldrbvs	r6, [r5, -r5, ror #4]!
 188:	6c6c612d 	stfvse	f6, [ip], #-180	; 0xffffff4c
 18c:	632f636f 			; <UNDEFINED> instruction: 0x632f636f
 190:	0065646f 	rsbeq	r6, r5, pc, ror #8
 194:	636e7566 	cmnvs	lr, #427819008	; 0x19800000
 198:	465f5f00 	ldrbmi	r5, [pc], -r0, lsl #30
 19c:	54434e55 	strbpl	r4, [r3], #-3669	; 0xfffff1ab
 1a0:	5f4e4f49 	svcpl	0x004e4f49
 1a4:	6f6c005f 	svcvs	0x006c005f
 1a8:	6c20676e 	stcvs	7, cr6, [r0], #-440	; 0xfffffe48
 1ac:	20676e6f 	rsbcs	r6, r7, pc, ror #28
 1b0:	69736e75 	ldmdbvs	r3!, {r0, r2, r4, r5, r6, r9, sl, fp, sp, lr}^
 1b4:	64656e67 	strbtvs	r6, [r5], #-3687	; 0xfffff199
 1b8:	746e6920 	strbtvc	r6, [lr], #-2336	; 0xfffff6e0
 1bc:	6e6f6c00 	cdpvs	12, 6, cr6, cr15, cr0, {0}
 1c0:	6f6c2067 	svcvs	0x006c2067
 1c4:	6920676e 	stmdbvs	r0!, {r1, r2, r3, r5, r6, r8, r9, sl, sp, lr}
 1c8:	7200746e 	andvc	r7, r0, #1845493760	; 0x6e000000
 1cc:	705f6970 	subsvc	r6, pc, r0, ror r9	; <UNPREDICTABLE>
 1d0:	68637475 	stmdavs	r3!, {r0, r2, r4, r5, r6, sl, ip, sp, lr}^
 1d4:	63007261 	movwvs	r7, #609	; 0x261
 1d8:	6572666b 	ldrbvs	r6, [r2, #-1643]!	; 0xfffff995
 1dc:	68730065 	ldmdavs	r3!, {r0, r2, r5, r6}^
 1e0:	2074726f 	rsbscs	r7, r4, pc, ror #4
 1e4:	00746e69 	rsbseq	r6, r4, r9, ror #28
 1e8:	5f637273 	svcpl	0x00637273
 1ec:	5f636f6c 	svcpl	0x00636f6c
 1f0:	656d0074 	strbvs	r0, [sp, #-116]!	; 0xffffff8c
 1f4:	7465736d 	strbtvc	r7, [r5], #-877	; 0xfffffc93
 1f8:	5f6b6300 	svcpl	0x006b6300
 1fc:	5f727470 	svcpl	0x00727470
 200:	625f6e69 	subsvs	r6, pc, #1680	; 0x690
 204:	6b636f6c 	blvs	18dbfbc <__bss_end__+0x18d0d24>
 208:	72646800 	rsbvc	r6, r4, #0, 16
 20c:	6200745f 	andvs	r7, r0, #1593835520	; 0x5f000000
 210:	6b636f6c 	blvs	18dbfc8 <__bss_end__+0x18d0d30>
 214:	0064695f 	rsbeq	r6, r4, pc, asr r9
 218:	45455246 	strbmi	r5, [r5, #-582]	; 0xfffffdba
 21c:	626e0044 	rsbvs	r0, lr, #68, 0	; 0x44
 220:	73657479 	cmnvc	r5, #2030043136	; 0x79000000
 224:	6c6c615f 	stfvse	f6, [ip], #-380	; 0xfffffe84
 228:	5200636f 	andpl	r6, r0, #-1140850687	; 0xbc000001
 22c:	4f5a4445 	svcmi	0x005a4445
 230:	565f454e 	ldrbpl	r4, [pc], -lr, asr #10
 234:	52004c41 	andpl	r4, r0, #16640	; 0x4100
 238:	4f5a4445 	svcmi	0x005a4445
 23c:	4e5f454e 	cdpmi	5, 5, cr4, cr15, cr14, {2}
 240:	45545942 	ldrbmi	r5, [r4, #-2370]	; 0xfffff6be
 244:	6b630053 	blvs	18c0398 <__bss_end__+0x18b5100>
 248:	7269665f 	rsbvc	r6, r9, #99614720	; 0x5f00000
 24c:	685f7473 	ldmdavs	pc, {r0, r1, r4, r5, r6, sl, ip, sp, lr}^	; <UNPREDICTABLE>
 250:	75007264 	strvc	r7, [r0, #-612]	; 0xfffffd9c
 254:	38746e69 	ldmdacc	r4!, {r0, r3, r5, r6, r9, sl, fp, sp, lr}^
 258:	6200745f 	andvs	r7, r0, #1593835520	; 0x5f000000
 25c:	746b6361 	strbtvc	r6, [fp], #-865	; 0xfffffc9f
 260:	65636172 	strbvs	r6, [r3, #-370]!	; 0xfffffe8e
 264:	6c6c6100 	stfvse	f6, [ip], #-0
 268:	6c5f636f 	mrrcvs	3, 6, r6, pc, cr15	; <UNPREDICTABLE>
 26c:	00747369 	rsbseq	r7, r4, r9, ror #6
 270:	685f6b63 	ldmdavs	pc, {r0, r1, r5, r6, r8, r9, fp, sp, lr}^	; <UNPREDICTABLE>
 274:	61007264 	tstvs	r0, r4, ror #4
 278:	636f6c6c 	cmnvs	pc, #108, 24	; 0x6c00
 27c:	636f6c5f 	cmnvs	pc, #24320	; 0x5f00
 280:	61747300 	cmnvs	r4, r0, lsl #6
 284:	72006574 	andvc	r6, r0, #116, 10	; 0x1d000000
 288:	5f736665 	svcpl	0x00736665
 28c:	72617473 	rsbvc	r7, r1, #1929379840	; 0x73000000
 290:	69750074 	ldmdbvs	r5!, {r2, r4, r5, r6}^
 294:	3233746e 	eorscc	r7, r3, #1845493760	; 0x6e000000
 298:	7500745f 	strvc	r7, [r0, #-1119]	; 0xfffffba1
 29c:	31746e69 	cmncc	r4, r9, ror #28
 2a0:	00745f36 	rsbseq	r5, r4, r6, lsr pc
 2a4:	705f6b63 	subsvc	r6, pc, r3, ror #22
 2a8:	695f7274 	ldmdbvs	pc, {r2, r4, r5, r6, r9, ip, sp, lr}^	; <UNPREDICTABLE>
 2ac:	6c615f73 	stclvs	15, cr5, [r1], #-460	; 0xfffffe34
 2b0:	65636f6c 	strbvs	r6, [r3, #-3948]!	; 0xfffff094
 2b4:	6b630064 	blvs	18c044c <__bss_end__+0x18b51b4>
 2b8:	78656e5f 	stmdavc	r5!, {r0, r1, r2, r3, r4, r6, r9, sl, fp, sp, lr}^
 2bc:	64685f74 	strbtvs	r5, [r8], #-3956	; 0xfffff08c
 2c0:	6b630072 	blvs	18c0490 <__bss_end__+0x18b51f8>
 2c4:	6f6c6c61 	svcvs	0x006c6c61
 2c8:	00632e63 	rsbeq	r2, r3, r3, ror #28
 2cc:	73666572 	cmnvc	r6, #478150656	; 0x1c800000
 2d0:	64696d5f 	strbtvs	r6, [r9], #-3423	; 0xfffff2a1
 2d4:	00656c64 	rsbeq	r6, r5, r4, ror #24
 2d8:	4f4c4c41 	svcmi	0x004c4c41
 2dc:	00444543 	subeq	r4, r4, r3, asr #10
 2e0:	685f6b63 	ldmdavs	pc, {r0, r1, r5, r6, r8, r9, fp, sp, lr}^	; <UNPREDICTABLE>
 2e4:	735f7264 	cmpvc	pc, #100, 4	; 0x40000006
 2e8:	74726174 	ldrbtvc	r6, [r2], #-372	; 0xfffffe8c
 2ec:	5f6b6300 	svcpl	0x006b6300
 2f0:	5f726468 	svcpl	0x00726468
 2f4:	00646e65 	rsbeq	r6, r4, r5, ror #28
 2f8:	65657266 	strbvs	r7, [r5, #-614]!	; 0xfffffd9a
 2fc:	636f6c5f 	cmnvs	pc, #24320	; 0x5f00
 300:	5f6b6300 	svcpl	0x006b6300
 304:	7479626e 	ldrbtvc	r6, [r9], #-622	; 0xfffffd92
 308:	6b007365 	blvs	1d0a4 <__bss_end__+0x11e0c>
 30c:	616d5f72 	smcvs	54770	; 0xd5f2
 310:	636f6c6c 	cmnvs	pc, #108, 24	; 0x6c00
 314:	78656e00 	stmdavc	r5!, {r9, sl, fp, sp, lr}^
 318:	65680074 	strbvs	r0, [r8, #-116]!	; 0xffffff8c
 31c:	72656461 	rsbvc	r6, r5, #1627389952	; 0x61000000
 320:	65727000 	ldrbvs	r7, [r2, #-0]!
 324:	61007076 	tstvs	r0, r6, ror r0
 328:	6e67696c 	vnmulvs.f16	s13, s14, s25	; <UNPREDICTABLE>
 32c:	5f726b00 	svcpl	0x00726b00
 330:	65657266 	strbvs	r7, [r5, #-614]!	; 0xfffffd9a
 334:	65726600 	ldrbvs	r6, [r2, #-1536]!	; 0xfffffa00
 338:	6e007065 	cdpvs	0, 0, cr7, cr0, cr5, {3}
 33c:	74696e75 	strbtvc	r6, [r9], #-3701	; 0xfffff18b
 340:	726b0073 	rsbvc	r0, fp, #115, 0	; 0x73
 344:	6c616d2d 	stclvs	13, cr6, [r1], #-180	; 0xffffff4c
 348:	2e636f6c 	cdpcs	15, 6, cr6, cr3, cr12, {3}
 34c:	6f640063 	svcvs	0x00640063
 350:	656c6275 	strbvs	r6, [ip, #-629]!	; 0xfffffd8b
 354:	73616200 	cmnvc	r1, #0, 4
 358:	62730065 	rsbsvs	r0, r3, #101, 0	; 0x65
 35c:	6d006b72 	vstrvs	d6, [r0, #-456]	; 0xfffffe38
 360:	6365726f 	cmnvs	r5, #-268435450	; 0xf0000006
 364:	0065726f 	rsbeq	r7, r5, pc, ror #4
 368:	657a6973 	ldrbvs	r6, [sl, #-2419]!	; 0xfffff68d
 36c:	61654800 	cmnvs	r5, r0, lsl #16
 370:	00726564 	rsbseq	r6, r2, r4, ror #10
 374:	63617473 	cmnvs	r1, #1929379840	; 0x73000000
 378:	6f745f6b 	svcvs	0x00745f6b
 37c:	616d0070 	smcvs	53248	; 0xd000
 380:	615f6b72 	cmpvs	pc, r2, ror fp	; <UNPREDICTABLE>
 384:	69006c6c 	stmdbvs	r0, {r2, r3, r5, r6, sl, fp, sp, lr}
 388:	656c706d 	strbvs	r7, [ip, #-109]!	; 0xffffff93
 38c:	746e656d 	strbtvc	r6, [lr], #-1389	; 0xfffffa93
 390:	6968745f 	stmdbvs	r8!, {r0, r1, r2, r3, r4, r6, sl, ip, sp, lr}^
 394:	5f5f0073 	svcpl	0x005f0073
 398:	5f737362 	svcpl	0x00737362
 39c:	72617473 	rsbvc	r7, r1, #1929379840	; 0x73000000
 3a0:	005f5f74 	subseq	r5, pc, r4, ror pc	; <UNPREDICTABLE>
 3a4:	6f6c626e 	svcvs	0x006c626e
 3a8:	00736b63 	rsbseq	r6, r3, r3, ror #22
 3ac:	74696e69 	strbtvc	r6, [r9], #-3689	; 0xfffff197
 3b0:	6e00705f 	mcrvs	0, 0, r7, cr0, cr15, {2}
 3b4:	65747962 	ldrbvs	r7, [r4, #-2402]!	; 0xfffff69e
 3b8:	72665f73 	rsbvc	r5, r6, #460	; 0x1cc
 3bc:	00646565 	rsbeq	r6, r4, r5, ror #10
 3c0:	5f646c6f 	svcpl	0x00646c6f
 3c4:	6b72616d 	blvs	1c98980 <__bss_end__+0x1c8d6e8>
 3c8:	636e6900 	cmnvs	lr, #0, 18
 3cc:	656d6572 	strbvs	r6, [sp, #-1394]!	; 0xfffffa8e
 3d0:	6300746e 	movwvs	r7, #1134	; 0x46e
 3d4:	69665f6b 	stmdbvs	r6!, {r0, r1, r3, r5, r6, r8, r9, sl, fp, ip, lr}^
 3d8:	6c5f646e 	cfldrdvs	mvd6, [pc], {110}	; 0x6e
 3dc:	736b6165 	cmnvc	fp, #1073741849	; 0x40000019
 3e0:	79616d00 	stmdbvc	r1!, {r8, sl, fp, sp, lr}^
 3e4:	655f6562 	ldrbvs	r6, [pc, #-1378]	; fffffe8a <__bss_end__+0xffff4bf2>
 3e8:	726f7272 	rsbvc	r7, pc, #536870919	; 0x20000007
 3ec:	6b630073 	blvs	18c05c0 <__bss_end__+0x18b5328>
 3f0:	0063675f 	rsbeq	r6, r3, pc, asr r7
 3f4:	61645f5f 	cmnvs	r4, pc, asr pc
 3f8:	655f6174 	ldrbvs	r6, [pc, #-372]	; 28c <__code_start__-0x7d74>
 3fc:	5f5f646e 	svcpl	0x005f646e
 400:	6d756400 	cfldrdvs	mvd6, [r5, #-0]
 404:	65725f70 	ldrbvs	r5, [r2, #-3952]!	; 0xfffff090
 408:	6e007367 	cdpvs	3, 0, cr7, cr0, cr7, {3}
 40c:	6b61656c 	blvs	18599c4 <__bss_end__+0x184e72c>
 410:	72650073 	rsbvc	r0, r5, #115, 0	; 0x73
 414:	73726f72 	cmnvc	r2, #456	; 0x1c8
 418:	6968745f 	stmdbvs	r8!, {r0, r1, r2, r3, r4, r6, sl, ip, sp, lr}^
 41c:	6c625f73 	stclvs	15, cr5, [r2], #-460	; 0xfffffe34
 420:	006b636f 	rsbeq	r6, fp, pc, ror #6
 424:	705f7369 	subsvc	r7, pc, r9, ror #6
 428:	6e007274 	mcrvs	2, 0, r7, cr0, cr4, {3}
 42c:	65657266 	strbvs	r7, [r5, #-614]!	; 0xfffffd9a
 430:	68630064 	stmdavs	r3!, {r2, r5, r6}^
 434:	5f6b6365 	svcpl	0x006b6365
 438:	6c5f6f6e 	mrrcvs	15, 6, r6, pc, cr14	; <UNPREDICTABLE>
 43c:	006b6165 	rsbeq	r6, fp, r5, ror #2
 440:	685f6e69 	ldmdavs	pc, {r0, r3, r5, r6, r9, sl, fp, sp, lr}^	; <UNPREDICTABLE>
 444:	00706165 	rsbseq	r6, r0, r5, ror #2
 448:	6d656e6f 	stclvs	14, cr6, [r5, #-444]!	; 0xfffffe44
 44c:	6b630062 	blvs	18c05dc <__bss_end__+0x18b5344>
 450:	2e63672d 	cdpcs	7, 6, cr6, cr3, cr13, {1}
 454:	68630063 	stmdavs	r3!, {r0, r1, r5, r6}^
 458:	5f6b6365 	svcpl	0x006b6365
 45c:	756f6873 	strbvc	r6, [pc, #-2163]!	; fffffbf1 <__bss_end__+0xffff4959>
 460:	6c5f646c 	cfldrdvs	mvd6, [pc], {108}	; 0x6c
 464:	006b6165 	rsbeq	r6, fp, r5, ror #2
 468:	73625f5f 	cmnvc	r2, #380	; 0x17c
 46c:	6e655f73 	mcrvs	15, 3, r5, cr5, cr3, {3}
 470:	005f5f64 	subseq	r5, pc, r4, ror #30
 474:	7a646572 	bvc	1919a44 <__bss_end__+0x190e7ac>
 478:	5f656e6f 	svcpl	0x00656e6f
 47c:	6f727265 	svcvs	0x00727265
 480:	72007372 	andvc	r7, r0, #-939524095	; 0xc8000001
 484:	6f7a6465 	svcvs	0x007a6465
 488:	6b00656e 	blvs	19a48 <__bss_end__+0xe7b0>
 48c:	6c6c616d 	stfvse	f6, [ip], #-436	; 0xfffffe4c
 490:	6b00636f 	blvs	19254 <__bss_end__+0xdfbc>
 494:	6c6c616d 	stfvse	f6, [ip], #-436	; 0xfffffe4c
 498:	695f636f 	ldmdbvs	pc, {r0, r1, r2, r3, r5, r6, r8, r9, sp, lr}^	; <UNPREDICTABLE>
 49c:	5f74696e 	svcpl	0x0074696e
 4a0:	5f746573 	svcpl	0x00746573
 4a4:	72617473 	rsbvc	r7, r1, #1929379840	; 0x73000000
 4a8:	77730074 			; <UNDEFINED> instruction: 0x77730074
 4ac:	5f706565 	svcpl	0x00706565
 4b0:	6b61656c 	blvs	1859a68 <__bss_end__+0x184e7d0>
 4b4:	645f5f00 	ldrbvs	r5, [pc], #-3840	; 4bc <__code_start__-0x7b44>
 4b8:	5f617461 	svcpl	0x00617461
 4bc:	72617473 	rsbvc	r7, r1, #1929379840	; 0x73000000
 4c0:	005f5f74 	subseq	r5, pc, r4, ror pc	; <UNPREDICTABLE>
 4c4:	65657773 	strbvs	r7, [r5, #-1907]!	; 0xfffff88d
 4c8:	72665f70 	rsbvc	r5, r6, #112, 30	; 0x1c0
 4cc:	77006565 	strvc	r6, [r0, -r5, ror #10]
 4d0:	5f6e7261 	svcpl	0x006e7261
 4d4:	735f6f6e 	cmpvc	pc, #440	; 0x1b8
 4d8:	74726174 	ldrbtvc	r6, [r2], #-372	; 0xfffffe8c
 4dc:	6665725f 			; <UNDEFINED> instruction: 0x6665725f
 4e0:	6300705f 	movwvs	r7, #95	; 0x5f
 4e4:	65685f6b 	strbvs	r5, [r8, #-3947]!	; 0xfffff095
 4e8:	655f7061 	ldrbvs	r7, [pc, #-97]	; 48f <__code_start__-0x7b71>
 4ec:	726f7272 	rsbvc	r7, pc, #536870919	; 0x20000007
 4f0:	6f740073 	svcvs	0x00740073
 4f4:	006c6174 	rsbeq	r6, ip, r4, ror r1
 4f8:	64726f77 	ldrbtvs	r6, [r2], #-3959	; 0xfffff089
 4fc:	6d616e00 	stclvs	14, cr6, [r1, #-0]
 500:	656c5f65 	strbvs	r5, [ip, #-3941]!	; 0xfffff09b
 504:	4e47006e 	cdpmi	0, 4, cr0, cr7, cr14, {3}
 508:	39432055 	stmdbcc	r3, {r0, r2, r4, r6, sp}^
 50c:	2e392039 	mrccs	0, 1, r2, cr9, cr9, {1}
 510:	20312e32 	eorscs	r2, r1, r2, lsr lr
 514:	39313032 	ldmdbcc	r1!, {r1, r4, r5, ip, sp}
 518:	35323031 	ldrcc	r3, [r2, #-49]!	; 0xffffffcf
 51c:	65722820 	ldrbvs	r2, [r2, #-2080]!	; 0xfffff7e0
 520:	7361656c 	cmnvc	r1, #108, 10	; 0x1b000000
 524:	5b202965 	blpl	80aac0 <__bss_end__+0x7ff828>
 528:	2f4d5241 	svccs	0x004d5241
 52c:	2d6d7261 	sfmcs	f7, 2, [sp, #-388]!	; 0xfffffe7c
 530:	72622d39 	rsbvc	r2, r2, #3648	; 0xe40
 534:	68636e61 	stmdavs	r3!, {r0, r5, r6, r9, sl, fp, sp, lr}^
 538:	76657220 	strbtvc	r7, [r5], -r0, lsr #4
 53c:	6f697369 	svcvs	0x00697369
 540:	3732206e 	ldrcc	r2, [r2, -lr, rrx]!
 544:	39393537 	ldmdbcc	r9!, {r0, r1, r2, r4, r5, r8, sl, ip, sp}
 548:	6d2d205d 	stcvs	0, cr2, [sp, #-372]!	; 0xfffffe8c
 54c:	3d757063 	ldclcc	0, cr7, [r5, #-396]!	; 0xfffffe74
 550:	316d7261 	cmncc	sp, r1, ror #4
 554:	6a363731 	bvs	d8e220 <__bss_end__+0xd82f88>
 558:	732d667a 			; <UNDEFINED> instruction: 0x732d667a
 55c:	746d2d20 	strbtvc	r2, [sp], #-3360	; 0xfffff2e0
 560:	3d656e75 	stclcc	14, cr6, [r5, #-468]!	; 0xfffffe2c
 564:	316d7261 	cmncc	sp, r1, ror #4
 568:	6a363731 	bvs	d8e234 <__bss_end__+0xd82f9c>
 56c:	732d667a 			; <UNDEFINED> instruction: 0x732d667a
 570:	666d2d20 	strbtvs	r2, [sp], -r0, lsr #26
 574:	74616f6c 	strbtvc	r6, [r1], #-3948	; 0xfffff094
 578:	6962612d 	stmdbvs	r2!, {r0, r2, r3, r5, r8, sp, lr}^
 57c:	666f733d 			; <UNDEFINED> instruction: 0x666f733d
 580:	6d2d2074 	stcvs	0, cr2, [sp, #-464]!	; 0xfffffe30
 584:	206d7261 	rsbcs	r7, sp, r1, ror #4
 588:	72616d2d 	rsbvc	r6, r1, #2880	; 0xb40
 58c:	613d6863 	teqvs	sp, r3, ror #16
 590:	36766d72 			; <UNDEFINED> instruction: 0x36766d72
 594:	2d207a6b 	vstmdbcs	r0!, {s14-s120}
 598:	62646767 	rsbvs	r6, r4, #27000832	; 0x19c0000
 59c:	664f2d20 	strbvs	r2, [pc], -r0, lsr #26
 5a0:	20747361 	rsbscs	r7, r4, r1, ror #6
 5a4:	6474732d 	ldrbtvs	r7, [r4], #-813	; 0xfffffcd3
 5a8:	756e673d 	strbvc	r6, [lr, #-1853]!	; 0xfffff8c3
 5ac:	2d203939 			; <UNDEFINED> instruction: 0x2d203939
 5b0:	65726666 	ldrbvs	r6, [r2, #-1638]!	; 0xfffff99a
 5b4:	61747365 	cmnvs	r4, r5, ror #6
 5b8:	6e69646e 	cdpvs	4, 6, cr6, cr9, cr14, {3}
 5bc:	6e660067 	cdpvs	0, 6, cr0, cr6, cr7, {3}
 5c0:	6174735f 	cmnvs	r4, pc, asr r3
 5c4:	615f7472 	cmpvs	pc, r2, ror r4	; <UNPREDICTABLE>
 5c8:	00726464 	rsbseq	r6, r2, r4, ror #8
 5cc:	6573552f 	ldrbvs	r5, [r3, #-1327]!	; 0xfffffad1
 5d0:	6d2f7372 	stcvs	3, cr7, [pc, #-456]!	; 410 <__code_start__-0x7bf0>
 5d4:	73656c69 	cmnvc	r5, #26880	; 0x6900
 5d8:	756f532f 	strbvc	r5, [pc, #-815]!	; 2b1 <__code_start__-0x7d4f>
 5dc:	2f656372 	svccs	0x00656372
 5e0:	34327363 	ldrtcc	r7, [r2], #-867	; 0xfffffc9d
 5e4:	2f786c30 	svccs	0x00786c30
 5e8:	7062696c 	rsbvc	r6, r2, ip, ror #18
 5ec:	2f2e0069 	svccs	0x002e0069
 5f0:	2f637273 	svccs	0x00637273
 5f4:	6b636162 	blvs	18d8b84 <__bss_end__+0x18cd8ec>
 5f8:	63617274 	cmnvs	r1, #116, 4	; 0x40000007
 5fc:	00632e65 	rsbeq	r2, r3, r5, ror #28
 600:	5f727563 	svcpl	0x00727563
 604:	6e007066 	cdpvs	0, 0, cr7, cr0, cr6, {3}
 608:	5f656d61 	svcpl	0x00656d61
 60c:	7300666f 	movwvc	r6, #1647	; 0x66f
 610:	5f657a69 	svcpl	0x00657a69
 614:	2f2e0074 	svccs	0x002e0074
 618:	6362696c 	cmnvs	r2, #108, 18	; 0x1b0000
 61c:	6d656d2f 	stclvs	13, cr6, [r5, #-188]!	; 0xffffff44
 620:	2e746573 	mrccs	5, 3, r6, cr4, cr3, {3}
 624:	72610063 	rsbvc	r0, r1, #99, 0	; 0x63
 628:	76007367 	strvc	r7, [r0], -r7, ror #6
 62c:	72705f61 	rsbsvc	r5, r0, #388	; 0x184
 630:	6b746e69 	blvs	1d1bfdc <__bss_end__+0x1d10d44>
 634:	675f5f00 	ldrbvs	r5, [pc, -r0, lsl #30]
 638:	5f63756e 	svcpl	0x0063756e
 63c:	6c5f6176 	ldfvse	f6, [pc], {118}	; 0x76
 640:	00747369 	rsbseq	r7, r4, r9, ror #6
 644:	70615f5f 	rsbvc	r5, r1, pc, asr pc
 648:	6c2f2e00 	stcvs	14, cr2, [pc], #-0	; 650 <__code_start__-0x79b0>
 64c:	2f636269 	svccs	0x00636269
 650:	6e697270 	mcrvs	2, 3, r7, cr9, cr0, {3}
 654:	632e6b74 			; <UNDEFINED> instruction: 0x632e6b74
 658:	765f5f00 	ldrbvc	r5, [pc], -r0, lsl #30
 65c:	696c5f61 	stmdbvs	ip!, {r0, r5, r6, r8, r9, sl, fp, ip, lr}^
 660:	69007473 	stmdbvs	r0, {r0, r1, r4, r5, r6, sl, ip, sp, lr}
 664:	7265746e 	rsbvc	r7, r5, #1845493760	; 0x6e000000
 668:	5f6c616e 	svcpl	0x006c616e
 66c:	6b747570 	blvs	1d1dc34 <__bss_end__+0x1d1299c>
 670:	6c2f2e00 	stcvs	14, cr2, [pc], #-0	; 678 <__code_start__-0x7988>
 674:	2f636269 	svccs	0x00636269
 678:	6b747570 	blvs	1d1dc40 <__bss_end__+0x1d129a8>
 67c:	6900632e 	stmdbvs	r0, {r1, r2, r3, r5, r8, r9, sp, lr}
 680:	67696473 			; <UNDEFINED> instruction: 0x67696473
 684:	75007469 	strvc	r7, [r0, #-1129]	; 0xfffffb97
 688:	36746e69 	ldrbtcc	r6, [r4], -r9, ror #28
 68c:	00745f34 	rsbseq	r5, r4, r4, lsr pc
 690:	696c2f2e 	stmdbvs	ip!, {r1, r2, r3, r5, r8, r9, sl, fp, sp}^
 694:	762f6362 	strtvc	r6, [pc], -r2, ror #6
 698:	72702d61 	rsbsvc	r2, r0, #6208	; 0x1840
 69c:	6b746e69 	blvs	1d1c048 <__bss_end__+0x1d10db0>
 6a0:	5f00632e 	svcpl	0x0000632e
 6a4:	646f635f 	strbtvs	r6, [pc], #-863	; 6ac <__code_start__-0x7954>
 6a8:	74735f65 	ldrbtvc	r5, [r3], #-3941	; 0xfffff09b
 6ac:	5f747261 	svcpl	0x00747261
 6b0:	6977005f 	ldmdbvs	r7!, {r0, r1, r2, r3, r4, r6}^
 6b4:	00687464 	rsbeq	r7, r8, r4, ror #8
 6b8:	63747570 	cmnvs	r4, #112, 10	; 0x1c000000
 6bc:	0070665f 	rsbseq	r6, r0, pc, asr r6
 6c0:	65685f5f 	strbvs	r5, [r8, #-3935]!	; 0xfffff0a1
 6c4:	735f7061 	cmpvc	pc, #97, 0	; 0x61
 6c8:	74726174 	ldrbtvc	r6, [r2], #-372	; 0xfffffe8c
 6cc:	72005f5f 	andvc	r5, r0, #380	; 0x17c
 6d0:	735f6970 	cmpvc	pc, #112, 18	; 0x1c0000
 6d4:	6f5f7465 	svcvs	0x005f7465
 6d8:	75707475 	ldrbvc	r7, [r0, #-1141]!	; 0xfffffb8b
 6dc:	6d660074 	stclvs	0, cr0, [r6, #-464]!	; 0xfffffe30
 6e0:	74735f74 	ldrbtvc	r5, [r3], #-3956	; 0xfffff08c
 6e4:	00747261 	rsbseq	r7, r4, r1, ror #4
 6e8:	63727473 	cmnvs	r2, #1929379840	; 0x73000000
 6ec:	73007461 	movwvc	r7, #1121	; 0x461
 6f0:	70637274 	rsbvc	r7, r3, r4, ror r2
 6f4:	656e0079 	strbvs	r0, [lr, #-121]!	; 0xffffff87
 6f8:	00705f67 	rsbseq	r5, r0, r7, ror #30
 6fc:	6f635f5f 	svcvs	0x00635f5f
 700:	655f6564 	ldrbvs	r6, [pc, #-1380]	; 1a4 <__code_start__-0x7e5c>
 704:	5f5f646e 	svcpl	0x005f646e
 708:	696d6500 	stmdbvs	sp!, {r8, sl, sp, lr}^
 70c:	65720074 	ldrbvs	r0, [r2, #-116]!	; 0xffffff8c
 710:	73726576 	cmnvc	r2, #494927872	; 0x1d800000
 714:	74730065 	ldrbtvc	r0, [r3], #-101	; 0xffffff9b
 718:	706d6372 	rsbvc	r6, sp, r2, ror r3
 71c:	74757000 	ldrbtvc	r7, [r5], #-0
 720:	70665f73 	rsbvc	r5, r6, r3, ror pc
 724:	705f5f00 	subsvc	r5, pc, r0, lsl #30
 728:	5f676f72 	svcpl	0x00676f72
 72c:	5f646e65 	svcpl	0x00646e65
 730:	756e005f 	strbvc	r0, [lr, #-95]!	; 0xffffffa1
 734:	7300316d 	movwvc	r3, #365	; 0x16d
 738:	636e7274 	cmnvs	lr, #116, 4	; 0x40000007
 73c:	7300706d 	movwvc	r7, #109	; 0x6d
 740:	656e6769 	strbvs	r6, [lr, #-1897]!	; 0xfffff897
 744:	00705f64 	rsbseq	r5, r0, r4, ror #30
 748:	5f697072 	svcpl	0x00697072
 74c:	6f626572 	svcvs	0x00626572
 750:	6400746f 	strvs	r7, [r0], #-1135	; 0xfffffb91
 754:	79616c65 	stmdbvc	r1!, {r0, r2, r5, r6, sl, fp, sp, lr}^
 758:	00736d5f 	rsbseq	r6, r3, pc, asr sp
 75c:	74732f2e 	ldrbtvc	r2, [r3], #-3886	; 0xfffff0d2
 760:	2d666661 	stclcs	6, cr6, [r6, #-388]!	; 0xfffffe7c
 764:	2f637273 	svccs	0x00637273
 768:	61656c63 	cmnvs	r5, r3, ror #24
 76c:	65722d6e 	ldrbvs	r2, [r2, #-3438]!	; 0xfffff292
 770:	746f6f62 	strbtvc	r6, [pc], #-3938	; 778 <__code_start__-0x7888>
 774:	7500632e 	strvc	r6, [r0, #-814]	; 0xfffffcd2
 778:	5f747261 	svcpl	0x00747261
 77c:	73756c66 	cmnvc	r5, #26112	; 0x6600
 780:	78745f68 	ldmdavc	r4!, {r3, r5, r6, r8, r9, sl, fp, ip, lr}^
 784:	73635f00 	cmnvc	r3, #0, 30
 788:	74726174 	ldrbtvc	r6, [r2], #-372	; 0xfffffe8c
 78c:	73736200 	cmnvc	r3, #0, 4
 790:	646e655f 	strbtvs	r6, [lr], #-1375	; 0xfffffaa1
 794:	72617500 	rsbvc	r7, r1, #0, 10
 798:	6e695f74 	mcrvs	15, 3, r5, cr9, cr4, {3}
 79c:	63007469 	movwvs	r7, #1129	; 0x469
 7a0:	6f747375 	svcvs	0x00747375
 7a4:	6f6c5f6d 	svcvs	0x006c5f6d
 7a8:	72656461 	rsbvc	r6, r5, #1627389952	; 0x61000000
 7ac:	732f2e00 			; <UNDEFINED> instruction: 0x732f2e00
 7b0:	66666174 			; <UNDEFINED> instruction: 0x66666174
 7b4:	6372732d 	cmnvs	r2, #-1275068416	; 0xb4000000
 7b8:	7473632f 	ldrbtvc	r6, [r3], #-815	; 0xfffffcd1
 7bc:	2e747261 	cdpcs	2, 7, cr7, cr4, cr1, {3}
 7c0:	2f2e0063 	svccs	0x002e0063
 7c4:	66617473 			; <UNDEFINED> instruction: 0x66617473
 7c8:	72732d66 	rsbsvc	r2, r3, #6528	; 0x1980
 7cc:	75632f63 	strbvc	r2, [r3, #-3939]!	; 0xfffff09d
 7d0:	6d6f7473 	cfstrdvs	mvd7, [pc, #-460]!	; 60c <__code_start__-0x79f4>
 7d4:	616f6c2d 	cmnvs	pc, sp, lsr #24
 7d8:	2e726564 	cdpcs	5, 7, cr6, cr2, cr4, {3}
 7dc:	65720063 	ldrbvs	r0, [r2, #-99]!	; 0xffffff9d
 7e0:	746f6f62 	strbtvc	r6, [pc], #-3938	; 7e8 <__code_start__-0x7818>
 7e4:	6c61635f 	stclvs	3, cr6, [r1], #-380	; 0xfffffe84
 7e8:	74756f6c 	ldrbtvc	r6, [r5], #-3948	; 0xfffff094
 7ec:	5f4d5000 	svcpl	0x004d5000
 7f0:	474f4457 	smlsldmi	r4, pc, r7, r4	; <UNPREDICTABLE>
 7f4:	54555000 	ldrbpl	r5, [r5], #-0
 7f8:	73003233 	movwvc	r3, #563	; 0x233
 7fc:	755f7465 	ldrbvc	r7, [pc, #-1125]	; 39f <__code_start__-0x7c61>
 800:	5f726573 	svcpl	0x00726573
 804:	6576656c 	ldrbvs	r6, [r6, #-1388]!	; 0xfffffa94
 808:	2f2e006c 	svccs	0x002e006c
 80c:	66617473 			; <UNDEFINED> instruction: 0x66617473
 810:	72732d66 	rsbsvc	r2, r3, #6528	; 0x1980
 814:	65722f63 	ldrbvs	r2, [r2, #-3939]!	; 0xfffff09d
 818:	746f6f62 	strbtvc	r6, [pc], #-3938	; 820 <__code_start__-0x77e0>
 81c:	5000632e 	andpl	r6, r0, lr, lsr #6
 820:	41505f4d 	cmpmi	r0, sp, asr #30
 824:	4f575353 	svcmi	0x00575353
 828:	61004452 	tstvs	r0, r2, asr r4
 82c:	73755f74 	cmnvc	r5, #116, 30	; 0x1d0
 830:	6c5f7265 	lfmvs	f7, 2, [pc], {101}	; 0x65
 834:	6c657665 	stclvs	6, cr7, [r5], #-404	; 0xfffffe6c
 838:	5f4d5000 	svcpl	0x004d5000
 83c:	43545352 	cmpmi	r4, #1207959553	; 0x48000001
 840:	4352575f 	cmpmi	r2, #24903680	; 0x17c0000
 844:	465f4746 	ldrbmi	r4, [pc], -r6, asr #14
 848:	5f4c4c55 	svcpl	0x004c4c55
 84c:	45534552 	ldrbmi	r4, [r3, #-1362]	; 0xfffffaae
 850:	4d500054 	ldclmi	0, cr0, [r0, #-336]	; 0xfffffeb0
 854:	5453525f 	ldrbpl	r5, [r3], #-607	; 0xfffffda1
 858:	70630043 	rsbvc	r0, r3, r3, asr #32
 85c:	64007273 	strvs	r7, [r0], #-627	; 0xfffffd8d
 860:	625f7665 	subsvs	r7, pc, #105906176	; 0x6500000
 864:	69727261 	ldmdbvs	r2!, {r0, r5, r6, r9, ip, sp, lr}^
 868:	64007265 	strvs	r7, [r0], #-613	; 0xfffffd9b
 86c:	79616c65 	stmdbvc	r1!, {r0, r2, r5, r6, sl, fp, sp, lr}^
 870:	6365735f 	cmnvs	r5, #2080374785	; 0x7c000001
 874:	732f2e00 			; <UNDEFINED> instruction: 0x732f2e00
 878:	66666174 			; <UNDEFINED> instruction: 0x66666174
 87c:	6372732d 	cmnvs	r2, #-1275068416	; 0xb4000000
 880:	6d69742f 	cfstrdvs	mvd7, [r9, #-188]!	; 0xffffff44
 884:	632e7265 			; <UNDEFINED> instruction: 0x632e7265
 888:	54454700 	strbpl	r4, [r5], #-1792	; 0xfffff900
 88c:	74003233 	strvc	r3, [r0], #-563	; 0xfffffdcd
 890:	72656d69 	rsbvc	r6, r5, #6720	; 0x1a40
 894:	7465675f 	strbtvc	r6, [r5], #-1887	; 0xfffff8a1
 898:	6573755f 	ldrbvs	r7, [r3, #-1375]!	; 0xfffffaa1
 89c:	65640063 	strbvs	r0, [r4, #-99]!	; 0xffffff9d
 8a0:	5f79616c 	svcpl	0x0079616c
 8a4:	74007375 	strvc	r7, [r0], #-885	; 0xfffffc8b
 8a8:	72656d69 	rsbvc	r6, r5, #6720	; 0x1a40
 8ac:	7465675f 	strbtvc	r6, [r5], #-1887	; 0xfffff8a1
 8b0:	6573755f 	ldrbvs	r7, [r3, #-1375]!	; 0xfffffaa1
 8b4:	61725f63 	cmnvs	r2, r3, ror #30
 8b8:	75700077 	ldrbvc	r0, [r0, #-119]!	; 0xffffff89
 8bc:	00323374 	eorseq	r3, r2, r4, ror r3
 8c0:	64756162 	ldrbtvs	r6, [r5], #-354	; 0xfffffe9e
 8c4:	6c61765f 	stclvs	6, cr7, [r1], #-380	; 0xfffffe84
 8c8:	61747300 	cmnvs	r4, r0, lsl #6
 8cc:	61750074 	cmnvs	r5, r4, ror r0
 8d0:	635f7472 	cmpvs	pc, #1912602624	; 0x72000000
 8d4:	675f6e61 	ldrbvs	r6, [pc, -r1, ror #28]
 8d8:	00637465 	rsbeq	r7, r3, r5, ror #8
 8dc:	4f495047 	svcmi	0x00495047
 8e0:	4e55465f 	mrcmi	6, 2, r4, cr5, cr15, {2}
 8e4:	554f5f43 	strbpl	r5, [pc, #-3907]	; fffff9a9 <__bss_end__+0xffff4711>
 8e8:	54555054 	ldrbpl	r5, [r5], #-84	; 0xffffffac
 8ec:	78756100 	ldmdavc	r5!, {r8, sp, lr}^
 8f0:	7265705f 	rsbvc	r7, r5, #95, 0	; 0x5f
 8f4:	73687069 	cmnvc	r8, #105, 0	; 0x69
 8f8:	72617500 	rsbvc	r7, r1, #0, 10
 8fc:	00632e74 	rsbeq	r2, r3, r4, ror lr
 900:	74726175 	ldrbtvc	r6, [r2], #-373	; 0xfffffe8b
 904:	6e61635f 	mcrvs	3, 3, r6, cr1, cr15, {2}
 908:	7475705f 	ldrbtvc	r7, [r5], #-95	; 0xffffffa1
 90c:	61750063 	cmnvs	r5, r3, rrx
 910:	745f7472 	ldrbvc	r7, [pc], #-1138	; 918 <__code_start__-0x76e8>
 914:	73695f78 	cmnvc	r9, #120, 30	; 0x1e0
 918:	706d655f 	rsbvc	r6, sp, pc, asr r5
 91c:	47007974 	smlsdxmi	r0, r4, r9, r7
 920:	5f4f4950 	svcpl	0x004f4950
 924:	434e5546 	movtmi	r5, #58694	; 0xe546
 928:	544c415f 	strbpl	r4, [ip], #-351	; 0xfffffea1
 92c:	50470030 	subpl	r0, r7, r0, lsr r0
 930:	465f4f49 	ldrbmi	r4, [pc], -r9, asr #30
 934:	5f434e55 	svcpl	0x00434e55
 938:	31544c41 	cmpcc	r4, r1, asr #24
 93c:	49504700 	ldmdbmi	r0, {r8, r9, sl, lr}^
 940:	55465f4f 	strbpl	r5, [r6, #-3919]	; 0xfffff0b1
 944:	415f434e 	cmpmi	pc, lr, asr #6
 948:	0032544c 	eorseq	r5, r2, ip, asr #8
 94c:	4f495047 	svcmi	0x00495047
 950:	4e55465f 	mrcmi	6, 2, r4, cr5, cr15, {2}
 954:	4c415f43 	mcrrmi	15, 4, r5, r1, cr3
 958:	47003354 	smlsdmi	r0, r4, r3, r3
 95c:	5f4f4950 	svcpl	0x004f4950
 960:	434e5546 	movtmi	r5, #58694	; 0xe546
 964:	544c415f 	strbpl	r4, [ip], #-351	; 0xfffffea1
 968:	682f0035 	stmdavs	pc!, {r0, r2, r4, r5}	; <UNPREDICTABLE>
 96c:	2f656d6f 	svccs	0x00656d6f
 970:	6c676e65 	stclvs	14, cr6, [r7], #-404	; 0xfffffe6c
 974:	632f7265 			; <UNDEFINED> instruction: 0x632f7265
 978:	7373616c 	cmnvc	r3, #27
 97c:	3273632f 	rsbscc	r6, r3, #-1140850688	; 0xbc000000
 980:	786c3034 	stmdavc	ip!, {r2, r4, r5, ip, sp}^
 984:	7332322d 	teqvc	r2, #-805306366	; 0xd0000002
 988:	6c2f7270 	sfmvs	f7, 4, [pc], #-448	; 7d0 <__code_start__-0x7830>
 98c:	69706269 	ldmdbvs	r0!, {r0, r3, r5, r6, r9, sp, lr}^
 990:	6174732f 	cmnvs	r4, pc, lsr #6
 994:	702d6666 	eorvc	r6, sp, r6, ror #12
 998:	61766972 	cmnvs	r6, r2, ror r9
 99c:	62006574 	andvs	r6, r0, #116, 10	; 0x1d000000
 9a0:	00647561 	rsbeq	r7, r4, r1, ror #10
 9a4:	5f787561 	svcpl	0x00787561
 9a8:	62616e65 	rsbvs	r6, r1, #1616	; 0x650
 9ac:	0073656c 	rsbseq	r6, r3, ip, ror #10
 9b0:	74726175 	ldrbtvc	r6, [r2], #-373	; 0xfffffe8b
 9b4:	7465675f 	strbtvc	r6, [r5], #-1887	; 0xfffff8a1
 9b8:	4e470063 	cdpmi	0, 4, cr0, cr7, cr3, {3}
 9bc:	39432055 	stmdbcc	r3, {r0, r2, r4, r6, sp}^
 9c0:	30312039 	eorscc	r2, r1, r9, lsr r0
 9c4:	312e332e 			; <UNDEFINED> instruction: 0x312e332e
 9c8:	32303220 	eorscc	r3, r0, #32, 4
 9cc:	32383031 	eorscc	r3, r8, #49, 0	; 0x31
 9d0:	72282034 	eorvc	r2, r8, #52, 0	; 0x34
 9d4:	61656c65 	cmnvs	r5, r5, ror #24
 9d8:	20296573 	eorcs	r6, r9, r3, ror r5
 9dc:	70636d2d 	rsbvc	r6, r3, sp, lsr #26
 9e0:	72613d75 	rsbvc	r3, r1, #7488	; 0x1d40
 9e4:	3731316d 	ldrcc	r3, [r1, -sp, ror #2]!
 9e8:	667a6a36 			; <UNDEFINED> instruction: 0x667a6a36
 9ec:	2d20732d 	stccs	3, cr7, [r0, #-180]!	; 0xffffff4c
 9f0:	6e75746d 	cdpvs	4, 7, cr7, cr5, cr13, {3}
 9f4:	72613d65 	rsbvc	r3, r1, #6464	; 0x1940
 9f8:	3731316d 	ldrcc	r3, [r1, -sp, ror #2]!
 9fc:	667a6a36 			; <UNDEFINED> instruction: 0x667a6a36
 a00:	2d20732d 	stccs	3, cr7, [r0, #-180]!	; 0xffffff4c
 a04:	6f6c666d 	svcvs	0x006c666d
 a08:	612d7461 			; <UNDEFINED> instruction: 0x612d7461
 a0c:	733d6962 	teqvc	sp, #1605632	; 0x188000
 a10:	2074666f 	rsbscs	r6, r4, pc, ror #12
 a14:	72616d2d 	rsbvc	r6, r1, #2880	; 0xb40
 a18:	6d2d206d 	stcvs	0, cr2, [sp, #-436]!	; 0xfffffe4c
 a1c:	68637261 	stmdavs	r3!, {r0, r5, r6, r9, ip, sp, lr}^
 a20:	6d72613d 	ldfvse	f6, [r2, #-244]!	; 0xffffff0c
 a24:	7a6b3676 	bvc	1ace404 <__bss_end__+0x1ac316c>
 a28:	67672d20 	strbvs	r2, [r7, -r0, lsr #26]!
 a2c:	2d206264 	sfmcs	f6, 4, [r0, #-400]!	; 0xfffffe70
 a30:	2d20674f 	stccs	7, cr6, [r0, #-316]!	; 0xfffffec4
 a34:	3d647473 	cfstrdcc	mvd7, [r4, #-460]!	; 0xfffffe34
 a38:	39756e67 	ldmdbcc	r5!, {r0, r1, r2, r5, r6, r9, sl, fp, sp, lr}^
 a3c:	662d2039 			; <UNDEFINED> instruction: 0x662d2039
 a40:	65657266 	strbvs	r7, [r5, #-614]!	; 0xfffffd9a
 a44:	6e617473 	mcrvs	4, 3, r7, cr1, cr3, {3}
 a48:	676e6964 	strbvs	r6, [lr, -r4, ror #18]!
 a4c:	746e6300 	strbtvc	r6, [lr], #-768	; 0xfffffd00
 a50:	6175006c 	cmnvs	r5, ip, rrx
 a54:	645f7472 	ldrbvs	r7, [pc], #-1138	; a5c <__code_start__-0x75a4>
 a58:	62617369 	rsbvs	r7, r1, #-1543503871	; 0xa4000001
 a5c:	7500656c 	strvc	r6, [r0, #-1388]	; 0xfffffa94
 a60:	5f747261 	svcpl	0x00747261
 a64:	5f736168 	svcpl	0x00736168
 a68:	61746164 	cmnvs	r4, r4, ror #2
 a6c:	49504700 	ldmdbmi	r0, {r8, r9, sl, lr}^
 a70:	55465f4f 	strbpl	r5, [r6, #-3919]	; 0xfffff0b1
 a74:	415f434e 	cmpmi	pc, lr, asr #6
 a78:	0034544c 	eorseq	r5, r4, ip, asr #8
 a7c:	695f726f 	ldmdbvs	pc, {r0, r1, r2, r3, r5, r6, r9, ip, sp, lr}^	; <UNPREDICTABLE>
 a80:	0032336e 	eorseq	r3, r2, lr, ror #6
 a84:	61726373 	cmnvs	r2, r3, ror r3
 a88:	00686374 	rsbeq	r6, r8, r4, ror r3
 a8c:	74726175 	ldrbtvc	r6, [r2], #-373	; 0xfffffe8b
 a90:	646e6100 	strbtvs	r6, [lr], #-256	; 0xffffff00
 a94:	336e695f 	cmncc	lr, #1556480	; 0x17c000
 a98:	61750032 	cmnvs	r5, r2, lsr r0
 a9c:	705f7472 	subsvc	r7, pc, r2, ror r4	; <UNPREDICTABLE>
 aa0:	00637475 	rsbeq	r7, r3, r5, ror r4
 aa4:	4f495047 	svcmi	0x00495047
 aa8:	4e55465f 	mrcmi	6, 2, r4, cr5, cr15, {2}
 aac:	4e495f43 	cdpmi	15, 4, cr5, cr9, cr3, {2}
 ab0:	00545550 	subseq	r5, r4, r0, asr r5
 ab4:	6f697067 	svcvs	0x00697067
 ab8:	7465735f 	strbtvc	r7, [r5], #-863	; 0xfffffca1
 abc:	6e75665f 	mrcvs	6, 3, r6, cr5, cr15, {2}
 ac0:	6f697463 	svcvs	0x00697463
 ac4:	6567006e 	strbvs	r0, [r7, #-110]!	; 0xffffff92
 ac8:	00323374 	eorseq	r3, r2, r4, ror r3
 acc:	6c616d6b 	stclvs	13, cr6, [r1], #-428	; 0xfffffe54
 ad0:	5f636f6c 	svcpl	0x00636f6c
 ad4:	70616568 	rsbvc	r6, r1, r8, ror #10
 ad8:	6174735f 	cmnvs	r4, pc, asr r3
 adc:	6d007472 	cfstrsvs	mvf7, [r0, #-456]	; 0xfffffe38
 ae0:	6e5f7861 	cdpvs	8, 5, cr7, cr15, cr1, {3}
 ae4:	65747962 	ldrbvs	r7, [r4, #-2402]!	; 0xfffff69e
 ae8:	65680073 	strbvs	r0, [r8, #-115]!	; 0xffffff8d
 aec:	6d5f7061 	ldclvs	0, cr7, [pc, #-388]	; 970 <__code_start__-0x7690>
 af0:	6b007861 	blvs	1ec7c <__bss_end__+0x139e4>
 af4:	65657266 	strbvs	r7, [r5, #-614]!	; 0xfffffd9a
 af8:	6c6c615f 	stfvse	f6, [ip], #-380	; 0xfffffe84
 afc:	756f7200 	strbvc	r7, [pc, #-512]!	; 904 <__code_start__-0x76fc>
 b00:	7075646e 	rsbsvc	r6, r5, lr, ror #8
 b04:	72666b00 	rsbvc	r6, r6, #0, 22
 b08:	705f6565 	subsvc	r6, pc, r5, ror #10
 b0c:	6100706f 	tstvs	r0, pc, rrx
 b10:	6e67696c 	vnmulvs.f16	s13, s14, s25	; <UNPREDICTABLE>
 b14:	746e656d 	strbtvc	r6, [lr], #-1389	; 0xfffffa93
 b18:	78616d00 	stmdavc	r1!, {r8, sl, fp, sp, lr}^
 b1c:	3233755f 	eorscc	r7, r3, #398458880	; 0x17c00000
 b20:	656e4f00 	strbvs	r4, [lr, #-3840]!	; 0xfffff100
 b24:	6b00424d 	blvs	11460 <__bss_end__+0x61c8>
 b28:	6c6c616d 	stfvse	f6, [ip], #-436	; 0xfffffe4c
 b2c:	685f636f 	ldmdavs	pc, {r0, r1, r2, r3, r5, r6, r8, r9, sp, lr}^	; <UNPREDICTABLE>
 b30:	5f706165 	svcpl	0x00706165
 b34:	00646e65 	rsbeq	r6, r4, r5, ror #28
 b38:	6c616d6b 	stclvs	13, cr6, [r1], #-428	; 0xfffffe54
 b3c:	5f636f6c 	svcpl	0x00636f6c
 b40:	7a746f6e 	bvc	1d1c900 <__bss_end__+0x1d11668>
 b44:	006f7265 	rsbeq	r7, pc, r5, ror #4
 b48:	705f7369 	subsvc	r7, pc, r9, ror #6
 b4c:	0032776f 	eorseq	r7, r2, pc, ror #14
 b50:	6c616d6b 	stclvs	13, cr6, [r1], #-428	; 0xfffffe54
 b54:	2e636f6c 	cdpcs	15, 6, cr6, cr3, cr12, {3}
 b58:	6d6b0063 	stclvs	0, cr0, [fp, #-396]!	; 0xfffffe74
 b5c:	6f6c6c61 	svcvs	0x006c6c61
 b60:	6e695f63 	cdpvs	15, 6, cr5, cr9, cr3, {3}
 b64:	69007469 	stmdbvs	r0, {r0, r3, r5, r6, sl, ip, sp, lr}
 b68:	6c615f73 	stclvs	15, cr5, [r1], #-460	; 0xfffffe34
 b6c:	656e6769 	strbvs	r6, [lr, #-1897]!	; 0xfffff897
 b70:	6d6b0064 	stclvs	0, cr0, [fp, #-400]!	; 0xfffffe70
 b74:	6f6c6c61 	svcvs	0x006c6c61
 b78:	65685f63 	strbvs	r5, [r8, #-3939]!	; 0xfffff09d
 b7c:	705f7061 	subsvc	r7, pc, r1, rrx
 b80:	72007274 	andvc	r7, r0, #116, 4	; 0x40000007
 b84:	725f6970 	subsvc	r6, pc, #112, 18	; 0x1c0000
 b88:	74657365 	strbtvc	r7, [r5], #-869	; 0xfffffc9b
 b8c:	7475705f 	ldrbtvc	r7, [r5], #-95	; 0xffffffa1
 b90:	6d6b0063 	stclvs	0, cr0, [fp, #-396]!	; 0xfffffe74
 b94:	6f6c6c61 	svcvs	0x006c6c61
 b98:	6c615f63 	stclvs	15, cr5, [r1], #-396	; 0xfffffe74
 b9c:	656e6769 	strbvs	r6, [lr, #-1897]!	; 0xfffff897
 ba0:	70670064 	rsbvc	r0, r7, r4, rrx
 ba4:	635f6f69 	cmpvs	pc, #420	; 0x1a4
 ba8:	0030726c 	eorseq	r7, r0, ip, ror #4
 bac:	6f697067 	svcvs	0x00697067
 bb0:	7465735f 	strbtvc	r7, [r5], #-863	; 0xfffffca1
 bb4:	70670030 	rsbvc	r0, r7, r0, lsr r0
 bb8:	775f6f69 	ldrbvc	r6, [pc, -r9, ror #30]
 bbc:	65746972 	ldrbvs	r6, [r4, #-2418]!	; 0xfffff68e
 bc0:	56454400 	strbpl	r4, [r5], -r0, lsl #8
 bc4:	4c41565f 	mcrrmi	6, 5, r5, r1, cr15
 bc8:	67003233 	smladxvs	r0, r3, r2, r3
 bcc:	5f6f6970 	svcpl	0x006f6970
 bd0:	64616572 	strbtvs	r6, [r1], #-1394	; 0xfffffa8e
 bd4:	732f2e00 			; <UNDEFINED> instruction: 0x732f2e00
 bd8:	672f6372 			; <UNDEFINED> instruction: 0x672f6372
 bdc:	2e6f6970 			; <UNDEFINED> instruction: 0x2e6f6970
 be0:	70670063 	rsbvc	r0, r7, r3, rrx
 be4:	735f6f69 	cmpvc	pc, #420	; 0x1a4
 be8:	695f7465 	ldmdbvs	pc, {r0, r2, r5, r6, sl, ip, sp, lr}^	; <UNPREDICTABLE>
 bec:	7475706e 	ldrbtvc	r7, [r5], #-110	; 0xffffff92
 bf0:	69706700 	ldmdbvs	r0!, {r8, r9, sl, sp, lr}^
 bf4:	65735f6f 	ldrbvs	r5, [r3, #-3951]!	; 0xfffff091
 bf8:	666f5f74 	uqsub16vs	r5, pc, r4	; <UNPREDICTABLE>
 bfc:	70670066 	rsbvc	r0, r7, r6, rrx
 c00:	735f6f69 	cmpvc	pc, #420	; 0x1a4
 c04:	6f5f7465 	svcvs	0x005f7465
 c08:	75707475 	ldrbvc	r7, [r0, #-1141]!	; 0xfffffb8b
 c0c:	70670074 	rsbvc	r0, r7, r4, ror r0
 c10:	665f6f69 	ldrbvs	r6, [pc], -r9, ror #30
 c14:	5f636e75 	svcpl	0x00636e75
 c18:	70670074 	rsbvc	r0, r7, r4, ror r0
 c1c:	6c5f6f69 	mrrcvs	15, 6, r6, pc, cr9	; <UNPREDICTABLE>
 c20:	00307665 	eorseq	r7, r0, r5, ror #12
 c24:	6b6e6162 	blvs	1b991b4 <__bss_end__+0x1b8df1c>
 c28:	69706700 	ldmdbvs	r0!, {r8, r9, sl, sp, lr}^
 c2c:	65735f6f 	ldrbvs	r5, [r3, #-3951]!	; 0xfffff091
 c30:	6e6f5f74 	mcrvs	15, 3, r5, cr15, cr4, {3}
 c34:	746e6900 	strbtvc	r6, [lr], #-2304	; 0xfffff700
 c38:	616e7265 	cmnvs	lr, r5, ror #4
 c3c:	75705f6c 	ldrbvc	r5, [r0, #-3948]!	; 0xfffff094
 c40:	61686374 	smcvs	34356	; 0x8634
 c44:	70720072 	rsbsvc	r0, r2, r2, ror r0
 c48:	65735f69 	ldrbvs	r5, [r3, #-3945]!	; 0xfffff097
 c4c:	75705f74 	ldrbvc	r5, [r0, #-3956]!	; 0xfffff08c
 c50:	2e006374 	mcrcs	3, 0, r6, cr0, cr4, {3}
 c54:	62696c2f 	rsbvs	r6, r9, #12032	; 0x2f00
 c58:	75702f63 	ldrbvc	r2, [r0, #-3939]!	; 0xfffff09d
 c5c:	61686374 	smcvs	34356	; 0x8634
 c60:	00632e72 	rsbeq	r2, r3, r2, ror lr
 c64:	696c2f2e 	stmdbvs	ip!, {r1, r2, r3, r5, r8, r9, sl, fp, sp}^
 c68:	732f6362 			; <UNDEFINED> instruction: 0x732f6362
 c6c:	61637274 	smcvs	14116	; 0x3724
 c70:	00632e74 	rsbeq	r2, r3, r4, ror lr
 c74:	74736564 	ldrbtvc	r6, [r3], #-1380	; 0xfffffa9c
 c78:	6c2f2e00 	stcvs	14, cr2, [pc], #-0	; c80 <__code_start__-0x7380>
 c7c:	2f636269 	svccs	0x00636269
 c80:	63727473 	cmnvs	r2, #1929379840	; 0x73000000
 c84:	632e706d 			; <UNDEFINED> instruction: 0x632e706d
 c88:	6c2f2e00 	stcvs	14, cr2, [pc], #-0	; c90 <__code_start__-0x7370>
 c8c:	2f636269 	svccs	0x00636269
 c90:	63727473 	cmnvs	r2, #1929379840	; 0x73000000
 c94:	632e7970 			; <UNDEFINED> instruction: 0x632e7970
 c98:	6c2f2e00 	stcvs	14, cr2, [pc], #-0	; ca0 <__code_start__-0x7360>
 c9c:	2f636269 	svccs	0x00636269
 ca0:	6e727473 	mrcvs	4, 3, r7, cr2, cr3, {3}
 ca4:	2e706d63 	cdpcs	13, 7, cr6, cr0, cr3, {3}
 ca8:	2f2e0063 	svccs	0x002e0063
 cac:	66617473 			; <UNDEFINED> instruction: 0x66617473
 cb0:	72732d66 	rsbsvc	r2, r3, #6528	; 0x1980
 cb4:	65642f63 	strbvs	r2, [r4, #-3939]!	; 0xfffff09d
 cb8:	6c756166 	ldfvse	f6, [r5], #-408	; 0xfffffe68
 cbc:	65722d74 	ldrbvs	r2, [r2, #-3444]!	; 0xfffff28c
 cc0:	746f6f62 	strbtvc	r6, [pc], #-3938	; cc8 <__code_start__-0x7338>
 cc4:	6c61632d 	stclvs	3, cr6, [r1], #-180	; 0xffffff4c
 cc8:	74756f6c 	ldrbtvc	r6, [r5], #-3948	; 0xfffff094
 ccc:	Address 0x0000000000000ccc is out of bounds.


Disassembly of section .debug_frame:

00000000 <.debug_frame>:
   0:	0000000c 	andeq	r0, r0, ip
   4:	ffffffff 			; <UNDEFINED> instruction: 0xffffffff
   8:	7c020001 	stcvc	0, cr0, [r2], {1}
   c:	000d0c0e 	andeq	r0, sp, lr, lsl #24
  10:	00000020 	andeq	r0, r0, r0, lsr #32
  14:	00000000 	andeq	r0, r0, r0
  18:	00008044 	andeq	r8, r0, r4, asr #32
  1c:	000000a0 	andeq	r0, r0, r0, lsr #1
  20:	420c0d42 	andmi	r0, ip, #4224	; 0x1080
  24:	06850784 	streq	r0, [r5], r4, lsl #15
  28:	048b0586 	streq	r0, [fp], #1414	; 0x586
  2c:	028e038d 	addeq	r0, lr, #872415234	; 0x34000002
  30:	040b0c42 	streq	r0, [fp], #-3138	; 0xfffff3be
  34:	0000000c 	andeq	r0, r0, ip
  38:	ffffffff 			; <UNDEFINED> instruction: 0xffffffff
  3c:	7c020001 	stcvc	0, cr0, [r2], {1}
  40:	000d0c0e 	andeq	r0, sp, lr, lsl #24
  44:	0000001c 	andeq	r0, r0, ip, lsl r0
  48:	00000034 	andeq	r0, r0, r4, lsr r0
  4c:	000080f8 	strdeq	r8, [r0], -r8	; <UNPREDICTABLE>
  50:	0000001c 	andeq	r0, r0, ip, lsl r0
  54:	420c0d42 	andmi	r0, ip, #4224	; 0x1080
  58:	038d048b 	orreq	r0, sp, #-1962934272	; 0x8b000000
  5c:	0c42028e 	sfmeq	f0, 2, [r2], {142}	; 0x8e
  60:	0000040b 	andeq	r0, r0, fp, lsl #8
  64:	0000001c 	andeq	r0, r0, ip, lsl r0
  68:	00000034 	andeq	r0, r0, r4, lsr r0
  6c:	00008124 	andeq	r8, r0, r4, lsr #2
  70:	0000001c 	andeq	r0, r0, ip, lsl r0
  74:	420c0d42 	andmi	r0, ip, #4224	; 0x1080
  78:	038d048b 	orreq	r0, sp, #-1962934272	; 0x8b000000
  7c:	0c42028e 	sfmeq	f0, 2, [r2], {142}	; 0x8e
  80:	0000040b 	andeq	r0, r0, fp, lsl #8
  84:	0000001c 	andeq	r0, r0, ip, lsl r0
  88:	00000034 	andeq	r0, r0, r4, lsr r0
  8c:	00008154 	andeq	r8, r0, r4, asr r1
  90:	00000014 	andeq	r0, r0, r4, lsl r0
  94:	420c0d42 	andmi	r0, ip, #4224	; 0x1080
  98:	038d048b 	orreq	r0, sp, #-1962934272	; 0x8b000000
  9c:	0c42028e 	sfmeq	f0, 2, [r2], {142}	; 0x8e
  a0:	0000040b 	andeq	r0, r0, fp, lsl #8
  a4:	00000020 	andeq	r0, r0, r0, lsr #32
  a8:	00000034 	andeq	r0, r0, r4, lsr r0
  ac:	00008178 	andeq	r8, r0, r8, ror r1
  b0:	00000020 	andeq	r0, r0, r0, lsr #32
  b4:	420c0d42 	andmi	r0, ip, #4224	; 0x1080
  b8:	05850684 	streq	r0, [r5, #1668]	; 0x684
  bc:	038d048b 	orreq	r0, sp, #-1962934272	; 0x8b000000
  c0:	0c42028e 	sfmeq	f0, 2, [r2], {142}	; 0x8e
  c4:	0000040b 	andeq	r0, r0, fp, lsl #8
  c8:	00000024 	andeq	r0, r0, r4, lsr #32
  cc:	00000034 	andeq	r0, r0, r4, lsr r0
  d0:	000081ac 	andeq	r8, r0, ip, lsr #3
  d4:	00000038 	andeq	r0, r0, r8, lsr r0
  d8:	420c0d42 	andmi	r0, ip, #4224	; 0x1080
  dc:	07850884 	streq	r0, [r5, r4, lsl #17]
  e0:	05870686 	streq	r0, [r7, #1670]	; 0x686
  e4:	038d048b 	orreq	r0, sp, #-1962934272	; 0x8b000000
  e8:	0c42028e 	sfmeq	f0, 2, [r2], {142}	; 0x8e
  ec:	0000040b 	andeq	r0, r0, fp, lsl #8
  f0:	00000020 	andeq	r0, r0, r0, lsr #32
  f4:	00000034 	andeq	r0, r0, r4, lsr r0
  f8:	000081fc 	strdeq	r8, [r0], -ip
  fc:	00000060 	andeq	r0, r0, r0, rrx
 100:	420c0d42 	andmi	r0, ip, #4224	; 0x1080
 104:	05850684 	streq	r0, [r5, #1668]	; 0x684
 108:	038d048b 	orreq	r0, sp, #-1962934272	; 0x8b000000
 10c:	0c42028e 	sfmeq	f0, 2, [r2], {142}	; 0x8e
 110:	0000040b 	andeq	r0, r0, fp, lsl #8
 114:	0000002c 	andeq	r0, r0, ip, lsr #32
 118:	00000034 	andeq	r0, r0, r4, lsr r0
 11c:	00008268 	andeq	r8, r0, r8, ror #4
 120:	0000019c 	muleq	r0, ip, r1
 124:	420c0d42 	andmi	r0, ip, #4224	; 0x1080
 128:	07850884 	streq	r0, [r5, r4, lsl #17]
 12c:	05870686 	streq	r0, [r7, #1670]	; 0x686
 130:	038d048b 	orreq	r0, sp, #-1962934272	; 0x8b000000
 134:	0c42028e 	sfmeq	f0, 2, [r2], {142}	; 0x8e
 138:	a202040b 	andge	r0, r2, #184549376	; 0xb000000
 13c:	200d0c0a 	andcs	r0, sp, sl, lsl #24
 140:	00000b42 	andeq	r0, r0, r2, asr #22
 144:	00000028 	andeq	r0, r0, r8, lsr #32
 148:	00000034 	andeq	r0, r0, r4, lsr r0
 14c:	00008410 	andeq	r8, r0, r0, lsl r4
 150:	000000cc 	andeq	r0, r0, ip, asr #1
 154:	420c0d42 	andmi	r0, ip, #4224	; 0x1080
 158:	06850784 	streq	r0, [r5], r4, lsl #15
 15c:	048b0586 	streq	r0, [fp], #1414	; 0x586
 160:	028e038d 	addeq	r0, lr, #872415234	; 0x34000002
 164:	040b0c42 	streq	r0, [fp], #-3138	; 0xfffff3be
 168:	0d0c5802 	stceq	8, cr5, [ip, #-8]
 16c:	0000001c 	andeq	r0, r0, ip, lsl r0
 170:	0000000c 	andeq	r0, r0, ip
 174:	ffffffff 			; <UNDEFINED> instruction: 0xffffffff
 178:	7c020001 	stcvc	0, cr0, [r2], {1}
 17c:	000d0c0e 	andeq	r0, sp, lr, lsl #24
 180:	0000001c 	andeq	r0, r0, ip, lsl r0
 184:	00000170 	andeq	r0, r0, r0, ror r1
 188:	000084e8 	andeq	r8, r0, r8, ror #9
 18c:	000000c4 	andeq	r0, r0, r4, asr #1
 190:	420c0d42 	andmi	r0, ip, #4224	; 0x1080
 194:	038d048b 	orreq	r0, sp, #-1962934272	; 0x8b000000
 198:	0c42028e 	sfmeq	f0, 2, [r2], {142}	; 0x8e
 19c:	0000040b 	andeq	r0, r0, fp, lsl #8
 1a0:	00000020 	andeq	r0, r0, r0, lsr #32
 1a4:	00000170 	andeq	r0, r0, r0, ror r1
 1a8:	000085bc 			; <UNDEFINED> instruction: 0x000085bc
 1ac:	0000005c 	andeq	r0, r0, ip, asr r0
 1b0:	420c0d42 	andmi	r0, ip, #4224	; 0x1080
 1b4:	05850684 	streq	r0, [r5, #1668]	; 0x684
 1b8:	038d048b 	orreq	r0, sp, #-1962934272	; 0x8b000000
 1bc:	0c42028e 	sfmeq	f0, 2, [r2], {142}	; 0x8e
 1c0:	0000040b 	andeq	r0, r0, fp, lsl #8
 1c4:	00000020 	andeq	r0, r0, r0, lsr #32
 1c8:	00000170 	andeq	r0, r0, r0, ror r1
 1cc:	00008628 	andeq	r8, r0, r8, lsr #12
 1d0:	000000b4 	strheq	r0, [r0], -r4
 1d4:	420c0d42 	andmi	r0, ip, #4224	; 0x1080
 1d8:	05850684 	streq	r0, [r5, #1668]	; 0x684
 1dc:	038d048b 	orreq	r0, sp, #-1962934272	; 0x8b000000
 1e0:	0c42028e 	sfmeq	f0, 2, [r2], {142}	; 0x8e
 1e4:	0000040b 	andeq	r0, r0, fp, lsl #8
 1e8:	0000000c 	andeq	r0, r0, ip
 1ec:	ffffffff 			; <UNDEFINED> instruction: 0xffffffff
 1f0:	7c020001 	stcvc	0, cr0, [r2], {1}
 1f4:	000d0c0e 	andeq	r0, sp, lr, lsl #24
 1f8:	0000001c 	andeq	r0, r0, ip, lsl r0
 1fc:	000001e8 	andeq	r0, r0, r8, ror #3
 200:	000086e8 	andeq	r8, r0, r8, ror #13
 204:	00000048 	andeq	r0, r0, r8, asr #32
 208:	420c0d42 	andmi	r0, ip, #4224	; 0x1080
 20c:	038d048b 	orreq	r0, sp, #-1962934272	; 0x8b000000
 210:	0c42028e 	sfmeq	f0, 2, [r2], {142}	; 0x8e
 214:	0000040b 	andeq	r0, r0, fp, lsl #8
 218:	00000020 	andeq	r0, r0, r0, lsr #32
 21c:	000001e8 	andeq	r0, r0, r8, ror #3
 220:	0000873c 	andeq	r8, r0, ip, lsr r7
 224:	00000030 	andeq	r0, r0, r0, lsr r0
 228:	420c0d42 	andmi	r0, ip, #4224	; 0x1080
 22c:	05850684 	streq	r0, [r5, #1668]	; 0x684
 230:	038d048b 	orreq	r0, sp, #-1962934272	; 0x8b000000
 234:	0c42028e 	sfmeq	f0, 2, [r2], {142}	; 0x8e
 238:	0000040b 	andeq	r0, r0, fp, lsl #8
 23c:	0000002c 	andeq	r0, r0, ip, lsr #32
 240:	000001e8 	andeq	r0, r0, r8, ror #3
 244:	00008778 	andeq	r8, r0, r8, ror r7
 248:	00000170 	andeq	r0, r0, r0, ror r1
 24c:	420c0d42 	andmi	r0, ip, #4224	; 0x1080
 250:	08850984 	stmeq	r5, {r2, r7, r8, fp}
 254:	06870786 	streq	r0, [r7], r6, lsl #15
 258:	048b0588 	streq	r0, [fp], #1416	; 0x588
 25c:	028e038d 	addeq	r0, lr, #872415234	; 0x34000002
 260:	040b0c42 	streq	r0, [fp], #-3138	; 0xfffff3be
 264:	0d0c9e02 	stceq	14, cr9, [ip, #-8]
 268:	00000024 	andeq	r0, r0, r4, lsr #32
 26c:	00000020 	andeq	r0, r0, r0, lsr #32
 270:	000001e8 	andeq	r0, r0, r8, ror #3
 274:	000088f8 	strdeq	r8, [r0], -r8	; <UNPREDICTABLE>
 278:	000000ac 	andeq	r0, r0, ip, lsr #1
 27c:	420c0d42 	andmi	r0, ip, #4224	; 0x1080
 280:	038d048b 	orreq	r0, sp, #-1962934272	; 0x8b000000
 284:	0c42028e 	sfmeq	f0, 2, [r2], {142}	; 0x8e
 288:	4402040b 	strmi	r0, [r2], #-1035	; 0xfffffbf5
 28c:	00100d0c 	andseq	r0, r0, ip, lsl #26
 290:	00000028 	andeq	r0, r0, r8, lsr #32
 294:	000001e8 	andeq	r0, r0, r8, ror #3
 298:	000089b4 			; <UNDEFINED> instruction: 0x000089b4
 29c:	000000fc 	strdeq	r0, [r0], -ip
 2a0:	420c0d42 	andmi	r0, ip, #4224	; 0x1080
 2a4:	09850a84 	stmibeq	r5, {r2, r7, r9, fp}
 2a8:	07870886 	streq	r0, [r7, r6, lsl #17]
 2ac:	05890688 	streq	r0, [r9, #1672]	; 0x688
 2b0:	038d048b 	orreq	r0, sp, #-1962934272	; 0x8b000000
 2b4:	0c42028e 	sfmeq	f0, 2, [r2], {142}	; 0x8e
 2b8:	0000040b 	andeq	r0, r0, fp, lsl #8
 2bc:	0000002c 	andeq	r0, r0, ip, lsr #32
 2c0:	000001e8 	andeq	r0, r0, r8, ror #3
 2c4:	00008ac0 	andeq	r8, r0, r0, asr #21
 2c8:	000000e4 	andeq	r0, r0, r4, ror #1
 2cc:	420c0d42 	andmi	r0, ip, #4224	; 0x1080
 2d0:	08850984 	stmeq	r5, {r2, r7, r8, fp}
 2d4:	06870786 	streq	r0, [r7], r6, lsl #15
 2d8:	048b0588 	streq	r0, [fp], #1416	; 0x588
 2dc:	028e038d 	addeq	r0, lr, #872415234	; 0x34000002
 2e0:	040b0c42 	streq	r0, [fp], #-3138	; 0xfffff3be
 2e4:	0d0c5c02 	stceq	12, cr5, [ip, #-8]
 2e8:	00000024 	andeq	r0, r0, r4, lsr #32
 2ec:	00000028 	andeq	r0, r0, r8, lsr #32
 2f0:	000001e8 	andeq	r0, r0, r8, ror #3
 2f4:	00008bb0 			; <UNDEFINED> instruction: 0x00008bb0
 2f8:	000000ac 	andeq	r0, r0, ip, lsr #1
 2fc:	420c0d42 	andmi	r0, ip, #4224	; 0x1080
 300:	05850684 	streq	r0, [r5, #1668]	; 0x684
 304:	038d048b 	orreq	r0, sp, #-1962934272	; 0x8b000000
 308:	0c42028e 	sfmeq	f0, 2, [r2], {142}	; 0x8e
 30c:	0a66040b 	beq	1981340 <__bss_end__+0x19760a8>
 310:	42180d0c 	andsmi	r0, r8, #12, 26	; 0x300
 314:	0000000b 	andeq	r0, r0, fp
 318:	0000001c 	andeq	r0, r0, ip, lsl r0
 31c:	000001e8 	andeq	r0, r0, r8, ror #3
 320:	00008c70 	andeq	r8, r0, r0, ror ip
 324:	0000003c 	andeq	r0, r0, ip, lsr r0
 328:	420c0d42 	andmi	r0, ip, #4224	; 0x1080
 32c:	038d048b 	orreq	r0, sp, #-1962934272	; 0x8b000000
 330:	0c42028e 	sfmeq	f0, 2, [r2], {142}	; 0x8e
 334:	0000040b 	andeq	r0, r0, fp, lsl #8
 338:	00000024 	andeq	r0, r0, r4, lsr #32
 33c:	000001e8 	andeq	r0, r0, r8, ror #3
 340:	00008cc0 	andeq	r8, r0, r0, asr #25
 344:	000000d4 	ldrdeq	r0, [r0], -r4
 348:	420c0d42 	andmi	r0, ip, #4224	; 0x1080
 34c:	07850884 	streq	r0, [r5, r4, lsl #17]
 350:	05870686 	streq	r0, [r7, #1670]	; 0x686
 354:	038d048b 	orreq	r0, sp, #-1962934272	; 0x8b000000
 358:	0c42028e 	sfmeq	f0, 2, [r2], {142}	; 0x8e
 35c:	0000040b 	andeq	r0, r0, fp, lsl #8
 360:	0000001c 	andeq	r0, r0, ip, lsl r0
 364:	000001e8 	andeq	r0, r0, r8, ror #3
 368:	00008da8 	andeq	r8, r0, r8, lsr #27
 36c:	00000014 	andeq	r0, r0, r4, lsl r0
 370:	420c0d42 	andmi	r0, ip, #4224	; 0x1080
 374:	038d048b 	orreq	r0, sp, #-1962934272	; 0x8b000000
 378:	0c42028e 	sfmeq	f0, 2, [r2], {142}	; 0x8e
 37c:	0000040b 	andeq	r0, r0, fp, lsl #8
 380:	0000001c 	andeq	r0, r0, ip, lsl r0
 384:	000001e8 	andeq	r0, r0, r8, ror #3
 388:	00008dd0 	ldrdeq	r8, [r0], -r0
 38c:	00000050 	andeq	r0, r0, r0, asr r0
 390:	420c0d42 	andmi	r0, ip, #4224	; 0x1080
 394:	038d048b 	orreq	r0, sp, #-1962934272	; 0x8b000000
 398:	0c42028e 	sfmeq	f0, 2, [r2], {142}	; 0x8e
 39c:	0000040b 	andeq	r0, r0, fp, lsl #8
 3a0:	00000020 	andeq	r0, r0, r0, lsr #32
 3a4:	000001e8 	andeq	r0, r0, r8, ror #3
 3a8:	00008e38 	andeq	r8, r0, r8, lsr lr
 3ac:	00000058 	andeq	r0, r0, r8, asr r0
 3b0:	420c0d42 	andmi	r0, ip, #4224	; 0x1080
 3b4:	05850684 	streq	r0, [r5, #1668]	; 0x684
 3b8:	038d048b 	orreq	r0, sp, #-1962934272	; 0x8b000000
 3bc:	0c42028e 	sfmeq	f0, 2, [r2], {142}	; 0x8e
 3c0:	0000040b 	andeq	r0, r0, fp, lsl #8
 3c4:	0000001c 	andeq	r0, r0, ip, lsl r0
 3c8:	000001e8 	andeq	r0, r0, r8, ror #3
 3cc:	00008e9c 	muleq	r0, ip, lr
 3d0:	00000018 	andeq	r0, r0, r8, lsl r0
 3d4:	420c0d42 	andmi	r0, ip, #4224	; 0x1080
 3d8:	038d048b 	orreq	r0, sp, #-1962934272	; 0x8b000000
 3dc:	0c42028e 	sfmeq	f0, 2, [r2], {142}	; 0x8e
 3e0:	0000040b 	andeq	r0, r0, fp, lsl #8
 3e4:	0000001c 	andeq	r0, r0, ip, lsl r0
 3e8:	000001e8 	andeq	r0, r0, r8, ror #3
 3ec:	00008ec8 	andeq	r8, r0, r8, asr #29
 3f0:	00000030 	andeq	r0, r0, r0, lsr r0
 3f4:	420c0d42 	andmi	r0, ip, #4224	; 0x1080
 3f8:	038d048b 	orreq	r0, sp, #-1962934272	; 0x8b000000
 3fc:	0c42028e 	sfmeq	f0, 2, [r2], {142}	; 0x8e
 400:	0000040b 	andeq	r0, r0, fp, lsl #8
 404:	0000000c 	andeq	r0, r0, ip
 408:	ffffffff 			; <UNDEFINED> instruction: 0xffffffff
 40c:	7c020001 	stcvc	0, cr0, [r2], {1}
 410:	000d0c0e 	andeq	r0, sp, lr, lsl #24
 414:	0000001c 	andeq	r0, r0, ip, lsl r0
 418:	00000404 	andeq	r0, r0, r4, lsl #8
 41c:	00008f00 	andeq	r8, r0, r0, lsl #30
 420:	00000080 	andeq	r0, r0, r0, lsl #1
 424:	84180e42 	ldrhi	r0, [r8], #-3650	; 0xfffff1be
 428:	86058506 	strhi	r8, [r5], -r6, lsl #10
 42c:	88038704 	stmdahi	r3, {r2, r8, r9, sl, pc}
 430:	00018e02 	andeq	r8, r1, r2, lsl #28
 434:	0000000c 	andeq	r0, r0, ip
 438:	00000404 	andeq	r0, r0, r4, lsl #8
 43c:	00008f80 	andeq	r8, r0, r0, lsl #31
 440:	00000020 	andeq	r0, r0, r0, lsr #32
 444:	0000000c 	andeq	r0, r0, ip
 448:	ffffffff 			; <UNDEFINED> instruction: 0xffffffff
 44c:	7c020001 	stcvc	0, cr0, [r2], {1}
 450:	000d0c0e 	andeq	r0, sp, lr, lsl #24
 454:	00000014 	andeq	r0, r0, r4, lsl r0
 458:	00000444 	andeq	r0, r0, r4, asr #8
 45c:	00008fa0 	andeq	r8, r0, r0, lsr #31
 460:	00000078 	andeq	r0, r0, r8, ror r0
 464:	84080e42 	strhi	r0, [r8], #-3650	; 0xfffff1be
 468:	00018e02 	andeq	r8, r1, r2, lsl #28
 46c:	0000000c 	andeq	r0, r0, ip
 470:	ffffffff 			; <UNDEFINED> instruction: 0xffffffff
 474:	7c020001 	stcvc	0, cr0, [r2], {1}
 478:	000d0c0e 	andeq	r0, sp, lr, lsl #24
 47c:	00000034 	andeq	r0, r0, r4, lsr r0
 480:	0000046c 	andeq	r0, r0, ip, ror #8
 484:	00009018 	andeq	r9, r0, r8, lsl r0
 488:	00000058 	andeq	r0, r0, r8, asr r0
 48c:	80100e42 	andshi	r0, r0, r2, asr #28
 490:	82038104 	andhi	r8, r3, #1
 494:	42018302 	andmi	r8, r1, #134217728	; 0x8000000
 498:	07841c0e 	streq	r1, [r4, lr, lsl #24]
 49c:	058e0685 	streq	r0, [lr, #1669]	; 0x685
 4a0:	5a280e44 	bpl	a03db8 <__bss_end__+0x9f8b20>
 4a4:	ce421c0e 	cdpgt	12, 4, cr1, cr2, cr14, {0}
 4a8:	100ec4c5 	andne	ip, lr, r5, asr #9
 4ac:	c1c2c342 	bicgt	ip, r2, r2, asr #6
 4b0:	00000ec0 	andeq	r0, r0, r0, asr #29
 4b4:	0000000c 	andeq	r0, r0, ip
 4b8:	ffffffff 			; <UNDEFINED> instruction: 0xffffffff
 4bc:	7c020001 	stcvc	0, cr0, [r2], {1}
 4c0:	000d0c0e 	andeq	r0, sp, lr, lsl #24
 4c4:	00000018 	andeq	r0, r0, r8, lsl r0
 4c8:	000004b4 			; <UNDEFINED> instruction: 0x000004b4
 4cc:	00009070 	andeq	r9, r0, r0, ror r0
 4d0:	00000038 	andeq	r0, r0, r8, lsr r0
 4d4:	84100e42 	ldrhi	r0, [r0], #-3650	; 0xfffff1be
 4d8:	86038504 	strhi	r8, [r3], -r4, lsl #10
 4dc:	00018e02 	andeq	r8, r1, r2, lsl #28
 4e0:	0000000c 	andeq	r0, r0, ip
 4e4:	ffffffff 			; <UNDEFINED> instruction: 0xffffffff
 4e8:	7c020001 	stcvc	0, cr0, [r2], {1}
 4ec:	000d0c0e 	andeq	r0, sp, lr, lsl #24
 4f0:	0000002c 	andeq	r0, r0, ip, lsr #32
 4f4:	000004e0 	andeq	r0, r0, r0, ror #9
 4f8:	000090a8 	andeq	r9, r0, r8, lsr #1
 4fc:	00000328 	andeq	r0, r0, r8, lsr #6
 500:	84180e42 	ldrhi	r0, [r8], #-3650	; 0xfffff1be
 504:	86058506 	strhi	r8, [r5], -r6, lsl #10
 508:	88038704 	stmdahi	r3, {r2, r8, r9, sl, pc}
 50c:	46018e02 	strmi	r8, [r1], -r2, lsl #28
 510:	c002600e 	andgt	r6, r2, lr
 514:	42180e0a 	andsmi	r0, r8, #160	; 0xa0
 518:	0a8e020b 	beq	fe380d4c <__bss_end__+0xfe375ab4>
 51c:	0b42180e 	bleq	108655c <__bss_end__+0x107b2c4>
 520:	00000014 	andeq	r0, r0, r4, lsl r0
 524:	000004e0 	andeq	r0, r0, r0, ror #9
 528:	000093d0 	ldrdeq	r9, [r0], -r0
 52c:	00000060 	andeq	r0, r0, r0, rrx
 530:	8e040e52 	mcrhi	14, 0, r0, cr4, cr2, {2}
 534:	100e4401 	andne	r4, lr, r1, lsl #8
 538:	0000002c 	andeq	r0, r0, ip, lsr #32
 53c:	000004e0 	andeq	r0, r0, r0, ror #9
 540:	00009430 	andeq	r9, r0, r0, lsr r4
 544:	0000062c 	andeq	r0, r0, ip, lsr #12
 548:	84240e42 	strthi	r0, [r4], #-3650	; 0xfffff1be
 54c:	86088509 	strhi	r8, [r8], -r9, lsl #10
 550:	88068707 	stmdahi	r6, {r0, r1, r2, r8, r9, sl, pc}
 554:	8a048905 	bhi	122970 <__bss_end__+0x1176d8>
 558:	8e028b03 	vmlahi.f64	d8, d2, d3
 55c:	c00e5201 	andgt	r5, lr, r1, lsl #4
 560:	0a860202 	beq	fe180d70 <__bss_end__+0xfe175ad8>
 564:	0b42240e 	bleq	10895a4 <__bss_end__+0x107e30c>
 568:	0000000c 	andeq	r0, r0, ip
 56c:	ffffffff 			; <UNDEFINED> instruction: 0xffffffff
 570:	7c020001 	stcvc	0, cr0, [r2], {1}
 574:	000d0c0e 	andeq	r0, sp, lr, lsl #24
 578:	00000014 	andeq	r0, r0, r4, lsl r0
 57c:	00000568 	andeq	r0, r0, r8, ror #10
 580:	00009a5c 	andeq	r9, r0, ip, asr sl
 584:	0000002c 	andeq	r0, r0, ip, lsr #32
 588:	84080e44 	strhi	r0, [r8], #-3652	; 0xfffff1bc
 58c:	00018e02 	andeq	r8, r1, r2, lsl #28
 590:	0000000c 	andeq	r0, r0, ip
 594:	ffffffff 			; <UNDEFINED> instruction: 0xffffffff
 598:	7c020001 	stcvc	0, cr0, [r2], {1}
 59c:	000d0c0e 	andeq	r0, sp, lr, lsl #24
 5a0:	00000018 	andeq	r0, r0, r8, lsl r0
 5a4:	00000590 	muleq	r0, r0, r5
 5a8:	00009a88 	andeq	r9, r0, r8, lsl #21
 5ac:	000000f8 	strdeq	r0, [r0], -r8
 5b0:	84100e42 	ldrhi	r0, [r0], #-3650	; 0xfffff1be
 5b4:	86038504 	strhi	r8, [r3], -r4, lsl #10
 5b8:	00018e02 	andeq	r8, r1, r2, lsl #28
 5bc:	0000000c 	andeq	r0, r0, ip
 5c0:	ffffffff 			; <UNDEFINED> instruction: 0xffffffff
 5c4:	7c020001 	stcvc	0, cr0, [r2], {1}
 5c8:	000d0c0e 	andeq	r0, sp, lr, lsl #24
 5cc:	0000000c 	andeq	r0, r0, ip
 5d0:	000005bc 			; <UNDEFINED> instruction: 0x000005bc
 5d4:	00009b80 	andeq	r9, r0, r0, lsl #23
 5d8:	00000004 	andeq	r0, r0, r4
 5dc:	0000000c 	andeq	r0, r0, ip
 5e0:	ffffffff 			; <UNDEFINED> instruction: 0xffffffff
 5e4:	7c020001 	stcvc	0, cr0, [r2], {1}
 5e8:	000d0c0e 	andeq	r0, sp, lr, lsl #24
 5ec:	0000000c 	andeq	r0, r0, ip
 5f0:	000005dc 	ldrdeq	r0, [r0], -ip
 5f4:	00009b84 	andeq	r9, r0, r4, lsl #23
 5f8:	00000018 	andeq	r0, r0, r8, lsl r0
 5fc:	0000000c 	andeq	r0, r0, ip
 600:	000005dc 	ldrdeq	r0, [r0], -ip
 604:	00009b9c 	muleq	r0, ip, fp
 608:	00000014 	andeq	r0, r0, r4, lsl r0
 60c:	00000014 	andeq	r0, r0, r4, lsl r0
 610:	000005dc 	ldrdeq	r0, [r0], -ip
 614:	00009bb0 			; <UNDEFINED> instruction: 0x00009bb0
 618:	00000060 	andeq	r0, r0, r0, rrx
 61c:	84080e42 	strhi	r0, [r8], #-3650	; 0xfffff1be
 620:	00018e02 	andeq	r8, r1, r2, lsl #28
 624:	0000000c 	andeq	r0, r0, ip
 628:	ffffffff 			; <UNDEFINED> instruction: 0xffffffff
 62c:	7c020001 	stcvc	0, cr0, [r2], {1}
 630:	000d0c0e 	andeq	r0, sp, lr, lsl #24
 634:	0000000c 	andeq	r0, r0, ip
 638:	00000624 	andeq	r0, r0, r4, lsr #12
 63c:	00009c10 	andeq	r9, r0, r0, lsl ip
 640:	0000000c 	andeq	r0, r0, ip
 644:	00000014 	andeq	r0, r0, r4, lsl r0
 648:	00000624 	andeq	r0, r0, r4, lsr #12
 64c:	00009c1c 	andeq	r9, r0, ip, lsl ip
 650:	00000024 	andeq	r0, r0, r4, lsr #32
 654:	84080e42 	strhi	r0, [r8], #-3650	; 0xfffff1be
 658:	00018e02 	andeq	r8, r1, r2, lsl #28
 65c:	0000001c 	andeq	r0, r0, ip, lsl r0
 660:	00000624 	andeq	r0, r0, r4, lsr #12
 664:	00009c40 	andeq	r9, r0, r0, asr #24
 668:	00000048 	andeq	r0, r0, r8, asr #32
 66c:	84180e42 	ldrhi	r0, [r8], #-3650	; 0xfffff1be
 670:	86058506 	strhi	r8, [r5], -r6, lsl #10
 674:	88038704 	stmdahi	r3, {r2, r8, r9, sl, pc}
 678:	00018e02 	andeq	r8, r1, r2, lsl #28
 67c:	0000001c 	andeq	r0, r0, ip, lsl r0
 680:	00000624 	andeq	r0, r0, r4, lsr #12
 684:	00009c88 	andeq	r9, r0, r8, lsl #25
 688:	00000050 	andeq	r0, r0, r0, asr r0
 68c:	84180e42 	ldrhi	r0, [r8], #-3650	; 0xfffff1be
 690:	86058506 	strhi	r8, [r5], -r6, lsl #10
 694:	88038704 	stmdahi	r3, {r2, r8, r9, sl, pc}
 698:	00018e02 	andeq	r8, r1, r2, lsl #28
 69c:	0000001c 	andeq	r0, r0, ip, lsl r0
 6a0:	00000624 	andeq	r0, r0, r4, lsr #12
 6a4:	00009cd8 	ldrdeq	r9, [r0], -r8
 6a8:	00000054 	andeq	r0, r0, r4, asr r0
 6ac:	84180e42 	ldrhi	r0, [r8], #-3650	; 0xfffff1be
 6b0:	86058506 	strhi	r8, [r5], -r6, lsl #10
 6b4:	88038704 	stmdahi	r3, {r2, r8, r9, sl, pc}
 6b8:	00018e02 	andeq	r8, r1, r2, lsl #28
 6bc:	0000000c 	andeq	r0, r0, ip
 6c0:	ffffffff 			; <UNDEFINED> instruction: 0xffffffff
 6c4:	7c020001 	stcvc	0, cr0, [r2], {1}
 6c8:	000d0c0e 	andeq	r0, sp, lr, lsl #24
 6cc:	00000018 	andeq	r0, r0, r8, lsl r0
 6d0:	000006bc 			; <UNDEFINED> instruction: 0x000006bc
 6d4:	00009d2c 	andeq	r9, r0, ip, lsr #26
 6d8:	00000020 	andeq	r0, r0, r0, lsr #32
 6dc:	84100e42 	ldrhi	r0, [r0], #-3650	; 0xfffff1be
 6e0:	86038504 	strhi	r8, [r3], -r4, lsl #10
 6e4:	00018e02 	andeq	r8, r1, r2, lsl #28
 6e8:	00000018 	andeq	r0, r0, r8, lsl r0
 6ec:	000006bc 			; <UNDEFINED> instruction: 0x000006bc
 6f0:	00009d4c 	andeq	r9, r0, ip, asr #26
 6f4:	00000020 	andeq	r0, r0, r0, lsr #32
 6f8:	84100e42 	ldrhi	r0, [r0], #-3650	; 0xfffff1be
 6fc:	86038504 	strhi	r8, [r3], -r4, lsl #10
 700:	00018e02 	andeq	r8, r1, r2, lsl #28
 704:	00000014 	andeq	r0, r0, r4, lsl r0
 708:	000006bc 			; <UNDEFINED> instruction: 0x000006bc
 70c:	00009d6c 	andeq	r9, r0, ip, ror #26
 710:	000000b0 	strheq	r0, [r0], -r0	; <UNPREDICTABLE>
 714:	84080e42 	strhi	r0, [r8], #-3650	; 0xfffff1be
 718:	00018e02 	andeq	r8, r1, r2, lsl #28
 71c:	00000014 	andeq	r0, r0, r4, lsl r0
 720:	000006bc 			; <UNDEFINED> instruction: 0x000006bc
 724:	00009e1c 	andeq	r9, r0, ip, lsl lr
 728:	00000018 	andeq	r0, r0, r8, lsl r0
 72c:	84080e42 	strhi	r0, [r8], #-3650	; 0xfffff1be
 730:	00018e02 	andeq	r8, r1, r2, lsl #28
 734:	00000014 	andeq	r0, r0, r4, lsl r0
 738:	000006bc 			; <UNDEFINED> instruction: 0x000006bc
 73c:	00009e34 	andeq	r9, r0, r4, lsr lr
 740:	00000020 	andeq	r0, r0, r0, lsr #32
 744:	84080e42 	strhi	r0, [r8], #-3650	; 0xfffff1be
 748:	00018e02 	andeq	r8, r1, r2, lsl #28
 74c:	00000014 	andeq	r0, r0, r4, lsl r0
 750:	000006bc 			; <UNDEFINED> instruction: 0x000006bc
 754:	00009e54 	andeq	r9, r0, r4, asr lr
 758:	00000030 	andeq	r0, r0, r0, lsr r0
 75c:	84080e42 	strhi	r0, [r8], #-3650	; 0xfffff1be
 760:	00018e02 	andeq	r8, r1, r2, lsl #28
 764:	00000014 	andeq	r0, r0, r4, lsl r0
 768:	000006bc 			; <UNDEFINED> instruction: 0x000006bc
 76c:	00009e84 	andeq	r9, r0, r4, lsl #29
 770:	00000030 	andeq	r0, r0, r0, lsr r0
 774:	84080e42 	strhi	r0, [r8], #-3650	; 0xfffff1be
 778:	00018e02 	andeq	r8, r1, r2, lsl #28
 77c:	00000014 	andeq	r0, r0, r4, lsl r0
 780:	000006bc 			; <UNDEFINED> instruction: 0x000006bc
 784:	00009eb4 			; <UNDEFINED> instruction: 0x00009eb4
 788:	00000010 	andeq	r0, r0, r0, lsl r0
 78c:	84080e42 	strhi	r0, [r8], #-3650	; 0xfffff1be
 790:	00018e02 	andeq	r8, r1, r2, lsl #28
 794:	00000014 	andeq	r0, r0, r4, lsl r0
 798:	000006bc 			; <UNDEFINED> instruction: 0x000006bc
 79c:	00009ec4 	andeq	r9, r0, r4, asr #29
 7a0:	00000020 	andeq	r0, r0, r0, lsr #32
 7a4:	84080e42 	strhi	r0, [r8], #-3650	; 0xfffff1be
 7a8:	00018e02 	andeq	r8, r1, r2, lsl #28
 7ac:	00000014 	andeq	r0, r0, r4, lsl r0
 7b0:	000006bc 			; <UNDEFINED> instruction: 0x000006bc
 7b4:	00009ee4 	andeq	r9, r0, r4, ror #29
 7b8:	00000014 	andeq	r0, r0, r4, lsl r0
 7bc:	84080e42 	strhi	r0, [r8], #-3650	; 0xfffff1be
 7c0:	00018e02 	andeq	r8, r1, r2, lsl #28
 7c4:	00000014 	andeq	r0, r0, r4, lsl r0
 7c8:	000006bc 			; <UNDEFINED> instruction: 0x000006bc
 7cc:	00009ef8 	strdeq	r9, [r0], -r8
 7d0:	00000024 	andeq	r0, r0, r4, lsr #32
 7d4:	84080e42 	strhi	r0, [r8], #-3650	; 0xfffff1be
 7d8:	00018e02 	andeq	r8, r1, r2, lsl #28
 7dc:	0000000c 	andeq	r0, r0, ip
 7e0:	ffffffff 			; <UNDEFINED> instruction: 0xffffffff
 7e4:	7c020001 	stcvc	0, cr0, [r2], {1}
 7e8:	000d0c0e 	andeq	r0, sp, lr, lsl #24
 7ec:	0000000c 	andeq	r0, r0, ip
 7f0:	000007dc 	ldrdeq	r0, [r0], -ip
 7f4:	00009f1c 	andeq	r9, r0, ip, lsl pc
 7f8:	00000010 	andeq	r0, r0, r0, lsl r0
 7fc:	0000000c 	andeq	r0, r0, ip
 800:	000007dc 	ldrdeq	r0, [r0], -ip
 804:	00009f2c 	andeq	r9, r0, ip, lsr #30
 808:	00000010 	andeq	r0, r0, r0, lsl r0
 80c:	0000000c 	andeq	r0, r0, ip
 810:	000007dc 	ldrdeq	r0, [r0], -ip
 814:	00009f3c 	andeq	r9, r0, ip, lsr pc
 818:	00000010 	andeq	r0, r0, r0, lsl r0
 81c:	0000001c 	andeq	r0, r0, ip, lsl r0
 820:	000007dc 	ldrdeq	r0, [r0], -ip
 824:	00009f4c 	andeq	r9, r0, ip, asr #30
 828:	0000009c 	muleq	r0, ip, r0
 82c:	8e040e42 	cdphi	14, 0, cr0, cr4, cr2, {2}
 830:	100e4201 	andne	r4, lr, r1, lsl #4
 834:	040e0a58 	streq	r0, [lr], #-2648	; 0xfffff5a8
 838:	00000b42 	andeq	r0, r0, r2, asr #22
 83c:	00000014 	andeq	r0, r0, r4, lsl r0
 840:	000007dc 	ldrdeq	r0, [r0], -ip
 844:	00009fe8 	andeq	r9, r0, r8, ror #31
 848:	00000058 	andeq	r0, r0, r8, asr r0
 84c:	84080e42 	strhi	r0, [r8], #-3650	; 0xfffff1be
 850:	00018e02 	andeq	r8, r1, r2, lsl #28
 854:	0000001c 	andeq	r0, r0, ip, lsl r0
 858:	000007dc 	ldrdeq	r0, [r0], -ip
 85c:	0000a040 	andeq	sl, r0, r0, asr #32
 860:	00000098 	muleq	r0, r8, r0
 864:	8e040e42 	cdphi	14, 0, cr0, cr4, cr2, {2}
 868:	100e4201 	andne	r4, lr, r1, lsl #4
 86c:	040e0a58 	streq	r0, [lr], #-2648	; 0xfffff5a8
 870:	00000b42 	andeq	r0, r0, r2, asr #22
 874:	00000020 	andeq	r0, r0, r0, lsr #32
 878:	000007dc 	ldrdeq	r0, [r0], -ip
 87c:	0000a0d8 	ldrdeq	sl, [r0], -r8
 880:	00000064 	andeq	r0, r0, r4, rrx
 884:	840c0e42 	strhi	r0, [ip], #-3650	; 0xfffff1be
 888:	8e028503 	cfsh32hi	mvfx8, mvfx2, #3
 88c:	180e4201 	stmdane	lr, {r0, r9, lr}
 890:	0c0e0a54 			; <UNDEFINED> instruction: 0x0c0e0a54
 894:	00000b42 	andeq	r0, r0, r2, asr #22
 898:	0000001c 	andeq	r0, r0, ip, lsl r0
 89c:	000007dc 	ldrdeq	r0, [r0], -ip
 8a0:	0000a13c 	andeq	sl, r0, ip, lsr r1
 8a4:	00000118 	andeq	r0, r0, r8, lsl r1
 8a8:	8e040e42 	cdphi	14, 0, cr0, cr4, cr2, {2}
 8ac:	100e4201 	andne	r4, lr, r1, lsl #4
 8b0:	040e0a6c 	streq	r0, [lr], #-2668	; 0xfffff594
 8b4:	00000b42 	andeq	r0, r0, r2, asr #22
 8b8:	0000000c 	andeq	r0, r0, ip
 8bc:	000007dc 	ldrdeq	r0, [r0], -ip
 8c0:	0000a254 	andeq	sl, r0, r4, asr r2
 8c4:	00000004 	andeq	r0, r0, r4
 8c8:	0000000c 	andeq	r0, r0, ip
 8cc:	000007dc 	ldrdeq	r0, [r0], -ip
 8d0:	0000a258 	andeq	sl, r0, r8, asr r2
 8d4:	00000014 	andeq	r0, r0, r4, lsl r0
 8d8:	00000014 	andeq	r0, r0, r4, lsl r0
 8dc:	000007dc 	ldrdeq	r0, [r0], -ip
 8e0:	0000a26c 	andeq	sl, r0, ip, ror #4
 8e4:	00000060 	andeq	r0, r0, r0, rrx
 8e8:	8e040e58 	mcrhi	14, 0, r0, cr4, cr8, {2}
 8ec:	100e4201 	andne	r4, lr, r1, lsl #4
 8f0:	0000000c 	andeq	r0, r0, ip
 8f4:	ffffffff 			; <UNDEFINED> instruction: 0xffffffff
 8f8:	7c020001 	stcvc	0, cr0, [r2], {1}
 8fc:	000d0c0e 	andeq	r0, sp, lr, lsl #24
 900:	00000020 	andeq	r0, r0, r0, lsr #32
 904:	000008f0 	strdeq	r0, [r0], -r0	; <UNPREDICTABLE>
 908:	0000a2cc 	andeq	sl, r0, ip, asr #5
 90c:	00000060 	andeq	r0, r0, r0, rrx
 910:	84100e48 	ldrhi	r0, [r0], #-3656	; 0xfffff1b8
 914:	86038504 	strhi	r8, [r3], -r4, lsl #10
 918:	64018e02 	strvs	r8, [r1], #-3586	; 0xfffff1fe
 91c:	c4c5c6ce 	strbgt	ip, [r5], #1742	; 0x6ce
 920:	0000000e 	andeq	r0, r0, lr
 924:	00000020 	andeq	r0, r0, r0, lsr #32
 928:	000008f0 	strdeq	r0, [r0], -r0	; <UNPREDICTABLE>
 92c:	0000a32c 	andeq	sl, r0, ip, lsr #6
 930:	00000058 	andeq	r0, r0, r8, asr r0
 934:	84100e46 	ldrhi	r0, [r0], #-3654	; 0xfffff1ba
 938:	86038504 	strhi	r8, [r3], -r4, lsl #10
 93c:	62018e02 	andvs	r8, r1, #2, 28
 940:	c4c5c6ce 	strbgt	ip, [r5], #1742	; 0x6ce
 944:	0000000e 	andeq	r0, r0, lr
 948:	0000000c 	andeq	r0, r0, ip
 94c:	000008f0 	strdeq	r0, [r0], -r0	; <UNPREDICTABLE>
 950:	0000a384 	andeq	sl, r0, r4, lsl #7
 954:	00000018 	andeq	r0, r0, r8, lsl r0
 958:	0000000c 	andeq	r0, r0, ip
 95c:	000008f0 	strdeq	r0, [r0], -r0	; <UNPREDICTABLE>
 960:	0000a39c 	muleq	r0, ip, r3
 964:	00000018 	andeq	r0, r0, r8, lsl r0
 968:	00000020 	andeq	r0, r0, r0, lsr #32
 96c:	000008f0 	strdeq	r0, [r0], -r0	; <UNPREDICTABLE>
 970:	0000a3b4 			; <UNDEFINED> instruction: 0x0000a3b4
 974:	00000058 	andeq	r0, r0, r8, asr r0
 978:	84100e46 	ldrhi	r0, [r0], #-3654	; 0xfffff1ba
 97c:	86038504 	strhi	r8, [r3], -r4, lsl #10
 980:	62018e02 	andvs	r8, r1, #2, 28
 984:	c4c5c6ce 	strbgt	ip, [r5], #1742	; 0x6ce
 988:	0000000e 	andeq	r0, r0, lr
 98c:	0000000c 	andeq	r0, r0, ip
 990:	000008f0 	strdeq	r0, [r0], -r0	; <UNPREDICTABLE>
 994:	0000a40c 	andeq	sl, r0, ip, lsl #8
 998:	00000030 	andeq	r0, r0, r0, lsr r0
 99c:	00000014 	andeq	r0, r0, r4, lsl r0
 9a0:	000008f0 	strdeq	r0, [r0], -r0	; <UNPREDICTABLE>
 9a4:	0000a43c 	andeq	sl, r0, ip, lsr r4
 9a8:	00000028 	andeq	r0, r0, r8, lsr #32
 9ac:	84080e42 	strhi	r0, [r8], #-3650	; 0xfffff1be
 9b0:	00018e02 	andeq	r8, r1, r2, lsl #28
 9b4:	0000000c 	andeq	r0, r0, ip
 9b8:	ffffffff 			; <UNDEFINED> instruction: 0xffffffff
 9bc:	7c020001 	stcvc	0, cr0, [r2], {1}
 9c0:	000d0c0e 	andeq	r0, sp, lr, lsl #24
 9c4:	00000014 	andeq	r0, r0, r4, lsl r0
 9c8:	000009b4 			; <UNDEFINED> instruction: 0x000009b4
 9cc:	0000a464 	andeq	sl, r0, r4, ror #8
 9d0:	00000014 	andeq	r0, r0, r4, lsl r0
 9d4:	84080e42 	strhi	r0, [r8], #-3650	; 0xfffff1be
 9d8:	00018e02 	andeq	r8, r1, r2, lsl #28
 9dc:	0000000c 	andeq	r0, r0, ip
 9e0:	000009b4 			; <UNDEFINED> instruction: 0x000009b4
 9e4:	0000a478 	andeq	sl, r0, r8, ror r4
 9e8:	00000018 	andeq	r0, r0, r8, lsl r0
 9ec:	0000000c 	andeq	r0, r0, ip
 9f0:	000009b4 			; <UNDEFINED> instruction: 0x000009b4
 9f4:	0000a490 	muleq	r0, r0, r4
 9f8:	00000010 	andeq	r0, r0, r0, lsl r0
 9fc:	0000000c 	andeq	r0, r0, ip
 a00:	ffffffff 			; <UNDEFINED> instruction: 0xffffffff
 a04:	7c020001 	stcvc	0, cr0, [r2], {1}
 a08:	000d0c0e 	andeq	r0, sp, lr, lsl #24
 a0c:	0000000c 	andeq	r0, r0, ip
 a10:	000009fc 	strdeq	r0, [r0], -ip
 a14:	0000a4a0 	andeq	sl, r0, r0, lsr #9
 a18:	0000002c 	andeq	r0, r0, ip, lsr #32
 a1c:	0000000c 	andeq	r0, r0, ip
 a20:	ffffffff 			; <UNDEFINED> instruction: 0xffffffff
 a24:	7c020001 	stcvc	0, cr0, [r2], {1}
 a28:	000d0c0e 	andeq	r0, sp, lr, lsl #24
 a2c:	0000000c 	andeq	r0, r0, ip
 a30:	00000a1c 	andeq	r0, r0, ip, lsl sl
 a34:	0000a4cc 	andeq	sl, r0, ip, asr #9
 a38:	00000044 	andeq	r0, r0, r4, asr #32
 a3c:	0000000c 	andeq	r0, r0, ip
 a40:	ffffffff 			; <UNDEFINED> instruction: 0xffffffff
 a44:	7c020001 	stcvc	0, cr0, [r2], {1}
 a48:	000d0c0e 	andeq	r0, sp, lr, lsl #24
 a4c:	0000000c 	andeq	r0, r0, ip
 a50:	00000a3c 	andeq	r0, r0, ip, lsr sl
 a54:	0000a510 	andeq	sl, r0, r0, lsl r5
 a58:	00000018 	andeq	r0, r0, r8, lsl r0
 a5c:	0000000c 	andeq	r0, r0, ip
 a60:	ffffffff 			; <UNDEFINED> instruction: 0xffffffff
 a64:	7c020001 	stcvc	0, cr0, [r2], {1}
 a68:	000d0c0e 	andeq	r0, sp, lr, lsl #24
 a6c:	0000000c 	andeq	r0, r0, ip
 a70:	00000a5c 	andeq	r0, r0, ip, asr sl
 a74:	0000a528 	andeq	sl, r0, r8, lsr #10
 a78:	00000030 	andeq	r0, r0, r0, lsr r0
 a7c:	0000000c 	andeq	r0, r0, ip
 a80:	ffffffff 			; <UNDEFINED> instruction: 0xffffffff
 a84:	7c020001 	stcvc	0, cr0, [r2], {1}
 a88:	000d0c0e 	andeq	r0, sp, lr, lsl #24
 a8c:	0000000c 	andeq	r0, r0, ip
 a90:	00000a7c 	andeq	r0, r0, ip, ror sl
 a94:	0000a558 	andeq	sl, r0, r8, asr r5
 a98:	00000004 	andeq	r0, r0, r4

Disassembly of section .debug_ranges:

00000000 <.debug_ranges>:
   0:	000001e4 	andeq	r0, r0, r4, ror #3
   4:	0000021c 	andeq	r0, r0, ip, lsl r2
   8:	00000244 	andeq	r0, r0, r4, asr #4
   c:	0000028c 	andeq	r0, r0, ip, lsl #5
	...
  18:	0000012c 	andeq	r0, r0, ip, lsr #2
  1c:	00000148 	andeq	r0, r0, r8, asr #2
  20:	00000154 	andeq	r0, r0, r4, asr r1
  24:	000001e0 	andeq	r0, r0, r0, ror #3
	...
  30:	0000012c 	andeq	r0, r0, ip, lsr #2
  34:	00000148 	andeq	r0, r0, r8, asr #2
  38:	00000164 	andeq	r0, r0, r4, ror #2
  3c:	000001e0 	andeq	r0, r0, r0, ror #3
	...
  48:	000002fc 	strdeq	r0, [r0], -ip
  4c:	00000304 	andeq	r0, r0, r4, lsl #6
  50:	00000310 	andeq	r0, r0, r0, lsl r3
  54:	0000036c 	andeq	r0, r0, ip, ror #6
	...
  60:	00000408 	andeq	r0, r0, r8, lsl #8
  64:	00000410 	andeq	r0, r0, r0, lsl r4
  68:	0000041c 	andeq	r0, r0, ip, lsl r4
  6c:	0000048c 	andeq	r0, r0, ip, lsl #9
	...
  78:	000005a4 	andeq	r0, r0, r4, lsr #11
  7c:	000005a8 	andeq	r0, r0, r8, lsr #11
  80:	000005ac 	andeq	r0, r0, ip, lsr #11
  84:	000005d0 	ldrdeq	r0, [r0], -r0	; <UNPREDICTABLE>
	...
  90:	000005f0 	strdeq	r0, [r0], -r0	; <UNPREDICTABLE>
  94:	000005f8 	strdeq	r0, [r0], -r8
  98:	000005fc 	strdeq	r0, [r0], -ip
  9c:	000006a4 	andeq	r0, r0, r4, lsr #13
	...
  a8:	00000600 	andeq	r0, r0, r0, lsl #12
  ac:	00000620 	andeq	r0, r0, r0, lsr #12
  b0:	00000634 	andeq	r0, r0, r4, lsr r6
  b4:	000006a4 	andeq	r0, r0, r4, lsr #13
	...
  c0:	00000600 	andeq	r0, r0, r0, lsl #12
  c4:	0000061c 	andeq	r0, r0, ip, lsl r6
  c8:	00000688 	andeq	r0, r0, r8, lsl #13
  cc:	000006a4 	andeq	r0, r0, r4, lsr #13
	...
  d8:	00000014 	andeq	r0, r0, r4, lsl r0
  dc:	00000020 	andeq	r0, r0, r0, lsr #32
  e0:	0000002c 	andeq	r0, r0, ip, lsr #32
  e4:	00000058 	andeq	r0, r0, r8, asr r0
  e8:	00000058 	andeq	r0, r0, r8, asr r0
  ec:	00000064 	andeq	r0, r0, r4, rrx
	...
  f8:	00000014 	andeq	r0, r0, r4, lsl r0
  fc:	00000018 	andeq	r0, r0, r8, lsl r0
 100:	0000002c 	andeq	r0, r0, ip, lsr #32
 104:	0000002c 	andeq	r0, r0, ip, lsr #32
 108:	00000034 	andeq	r0, r0, r4, lsr r0
 10c:	00000038 	andeq	r0, r0, r8, lsr r0
 110:	0000003c 	andeq	r0, r0, ip, lsr r0
 114:	00000050 	andeq	r0, r0, r0, asr r0
	...
 120:	0000002c 	andeq	r0, r0, ip, lsr #32
 124:	0000002c 	andeq	r0, r0, ip, lsr #32
 128:	00000038 	andeq	r0, r0, r8, lsr r0
 12c:	00000038 	andeq	r0, r0, r8, lsr r0
 130:	00000044 	andeq	r0, r0, r4, asr #32
 134:	0000004c 	andeq	r0, r0, ip, asr #32
	...
 140:	000000a4 	andeq	r0, r0, r4, lsr #1
 144:	00000148 	andeq	r0, r0, r8, asr #2
 148:	00000158 	andeq	r0, r0, r8, asr r1
 14c:	0000015c 	andeq	r0, r0, ip, asr r1
 150:	00000274 	andeq	r0, r0, r4, ror r2
 154:	00000278 	andeq	r0, r0, r8, ror r2
 158:	0000027c 	andeq	r0, r0, ip, ror r2
 15c:	00000280 	andeq	r0, r0, r0, lsl #5
 160:	00000288 	andeq	r0, r0, r8, lsl #5
 164:	0000029c 	muleq	r0, ip, r2
 168:	000002c0 	andeq	r0, r0, r0, asr #5
 16c:	000002cc 	andeq	r0, r0, ip, asr #5
 170:	000002f0 	strdeq	r0, [r0], -r0	; <UNPREDICTABLE>
 174:	000002f0 	strdeq	r0, [r0], -r0	; <UNPREDICTABLE>
 178:	000002f4 	strdeq	r0, [r0], -r4
 17c:	000002f8 	strdeq	r0, [r0], -r8
	...
 188:	00000148 	andeq	r0, r0, r8, asr #2
 18c:	00000158 	andeq	r0, r0, r8, asr r1
 190:	0000015c 	andeq	r0, r0, ip, asr r1
 194:	0000018c 	andeq	r0, r0, ip, lsl #3
 198:	0000029c 	muleq	r0, ip, r2
 19c:	000002ac 	andeq	r0, r0, ip, lsr #5
	...
 1a8:	000003c8 	andeq	r0, r0, r8, asr #7
 1ac:	000003d0 	ldrdeq	r0, [r0], -r0	; <UNPREDICTABLE>
 1b0:	00000404 	andeq	r0, r0, r4, lsl #8
 1b4:	000004ac 	andeq	r0, r0, ip, lsr #9
 1b8:	000004c0 	andeq	r0, r0, r0, asr #9
 1bc:	00000920 	andeq	r0, r0, r0, lsr #18
 1c0:	00000928 	andeq	r0, r0, r8, lsr #18
 1c4:	000009b4 			; <UNDEFINED> instruction: 0x000009b4
	...
 1d0:	000003c8 	andeq	r0, r0, r8, asr #7
 1d4:	000003d0 	ldrdeq	r0, [r0], -r0	; <UNPREDICTABLE>
 1d8:	00000504 	andeq	r0, r0, r4, lsl #10
 1dc:	000005d0 	ldrdeq	r0, [r0], -r0	; <UNPREDICTABLE>
 1e0:	00000800 	andeq	r0, r0, r0, lsl #16
 1e4:	00000888 	andeq	r0, r0, r8, lsl #17
 1e8:	00000930 	andeq	r0, r0, r0, lsr r9
 1ec:	000009b4 			; <UNDEFINED> instruction: 0x000009b4
	...
 1f8:	00000404 	andeq	r0, r0, r4, lsl #8
 1fc:	00000408 	andeq	r0, r0, r8, lsl #8
 200:	00000414 	andeq	r0, r0, r4, lsl r4
 204:	00000414 	andeq	r0, r0, r4, lsl r4
 208:	00000428 	andeq	r0, r0, r8, lsr #8
 20c:	0000042c 	andeq	r0, r0, ip, lsr #8
	...
 218:	000005fc 	strdeq	r0, [r0], -ip
 21c:	00000700 	andeq	r0, r0, r0, lsl #14
 220:	000007ec 	andeq	r0, r0, ip, ror #15
 224:	000007f4 	strdeq	r0, [r0], -r4
 228:	00000888 	andeq	r0, r0, r8, lsl #17
 22c:	00000894 	muleq	r0, r4, r8
 230:	000008a8 	andeq	r0, r0, r8, lsr #17
 234:	000008bc 			; <UNDEFINED> instruction: 0x000008bc
 238:	00000910 	andeq	r0, r0, r0, lsl r9
 23c:	00000920 	andeq	r0, r0, r0, lsr #18
	...
 248:	00000600 	andeq	r0, r0, r0, lsl #12
 24c:	00000604 	andeq	r0, r0, r4, lsl #12
 250:	00000608 	andeq	r0, r0, r8, lsl #12
 254:	000006b4 			; <UNDEFINED> instruction: 0x000006b4
 258:	000006cc 	andeq	r0, r0, ip, asr #13
 25c:	000006d0 	ldrdeq	r0, [r0], -r0	; <UNPREDICTABLE>
 260:	000008a8 	andeq	r0, r0, r8, lsr #17
 264:	000008b8 			; <UNDEFINED> instruction: 0x000008b8
 268:	00000910 	andeq	r0, r0, r0, lsl r9
 26c:	00000920 	andeq	r0, r0, r0, lsr #18
	...
 278:	000006b4 			; <UNDEFINED> instruction: 0x000006b4
 27c:	000006cc 	andeq	r0, r0, ip, asr #13
 280:	000006d0 	ldrdeq	r0, [r0], -r0	; <UNPREDICTABLE>
 284:	00000700 	andeq	r0, r0, r0, lsl #14
 288:	000007ec 	andeq	r0, r0, ip, ror #15
 28c:	000007f4 	strdeq	r0, [r0], -r4
 290:	00000888 	andeq	r0, r0, r8, lsl #17
 294:	00000894 	muleq	r0, r4, r8
 298:	000008b8 			; <UNDEFINED> instruction: 0x000008b8
 29c:	000008bc 			; <UNDEFINED> instruction: 0x000008bc
	...
 2a8:	00000700 	andeq	r0, r0, r0, lsl #14
 2ac:	00000708 	andeq	r0, r0, r8, lsl #14
 2b0:	0000070c 	andeq	r0, r0, ip, lsl #14
 2b4:	000007ec 	andeq	r0, r0, ip, ror #15
 2b8:	00000894 	muleq	r0, r4, r8
 2bc:	000008a8 	andeq	r0, r0, r8, lsr #17
	...
 2c8:	00000728 	andeq	r0, r0, r8, lsr #14
 2cc:	000007a4 	andeq	r0, r0, r4, lsr #15
 2d0:	000007ac 	andeq	r0, r0, ip, lsr #15
 2d4:	000007b0 			; <UNDEFINED> instruction: 0x000007b0
 2d8:	00000894 	muleq	r0, r4, r8
 2dc:	00000898 	muleq	r0, r8, r8
 2e0:	0000089c 	muleq	r0, ip, r8
 2e4:	000008a0 	andeq	r0, r0, r0, lsr #17
	...
 2f0:	000007a4 	andeq	r0, r0, r4, lsr #15
 2f4:	000007ac 	andeq	r0, r0, ip, lsr #15
 2f8:	000007b0 			; <UNDEFINED> instruction: 0x000007b0
 2fc:	000007ec 	andeq	r0, r0, ip, ror #15
 300:	00000898 	muleq	r0, r8, r8
 304:	0000089c 	muleq	r0, ip, r8
 308:	000008a0 	andeq	r0, r0, r0, lsr #17
 30c:	000008a8 	andeq	r0, r0, r8, lsr #17
	...
 318:	00009bb0 			; <UNDEFINED> instruction: 0x00009bb0
 31c:	00009bb0 			; <UNDEFINED> instruction: 0x00009bb0
 320:	00009bb4 			; <UNDEFINED> instruction: 0x00009bb4
 324:	00009bbc 			; <UNDEFINED> instruction: 0x00009bbc
	...
 330:	00009b84 	andeq	r9, r0, r4, lsl #23
 334:	00009c10 	andeq	r9, r0, r0, lsl ip
	...
 340:	00000030 	andeq	r0, r0, r0, lsr r0
 344:	00000030 	andeq	r0, r0, r0, lsr r0
 348:	00000038 	andeq	r0, r0, r8, lsr r0
 34c:	0000004c 	andeq	r0, r0, ip, asr #32
	...
 358:	0000004c 	andeq	r0, r0, ip, asr #32
 35c:	00000050 	andeq	r0, r0, r0, asr r0
 360:	00000050 	andeq	r0, r0, r0, asr r0
 364:	00000078 	andeq	r0, r0, r8, ror r0
	...
 370:	0000004c 	andeq	r0, r0, ip, asr #32
 374:	00000050 	andeq	r0, r0, r0, asr r0
 378:	00000050 	andeq	r0, r0, r0, asr r0
 37c:	00000060 	andeq	r0, r0, r0, rrx
 380:	00000064 	andeq	r0, r0, r4, rrx
 384:	00000068 	andeq	r0, r0, r8, rrx
	...
 390:	0000004c 	andeq	r0, r0, ip, asr #32
 394:	00000050 	andeq	r0, r0, r0, asr r0
 398:	00000054 	andeq	r0, r0, r4, asr r0
 39c:	00000060 	andeq	r0, r0, r0, rrx
	...
 3a8:	0000009c 	muleq	r0, ip, r0
 3ac:	000000a0 	andeq	r0, r0, r0, lsr #1
 3b0:	000000a0 	andeq	r0, r0, r0, lsr #1
 3b4:	000000c8 	andeq	r0, r0, r8, asr #1
	...
 3c0:	0000009c 	muleq	r0, ip, r0
 3c4:	000000a0 	andeq	r0, r0, r0, lsr #1
 3c8:	000000a0 	andeq	r0, r0, r0, lsr #1
 3cc:	000000b0 	strheq	r0, [r0], -r0	; <UNPREDICTABLE>
 3d0:	000000b4 	strheq	r0, [r0], -r4
 3d4:	000000b8 	strheq	r0, [r0], -r8
	...
 3e0:	0000009c 	muleq	r0, ip, r0
 3e4:	000000a0 	andeq	r0, r0, r0, lsr #1
 3e8:	000000a4 	andeq	r0, r0, r4, lsr #1
 3ec:	000000b0 	strheq	r0, [r0], -r0	; <UNPREDICTABLE>
	...
 3f8:	000000c8 	andeq	r0, r0, r8, asr #1
 3fc:	000000c8 	andeq	r0, r0, r8, asr #1
 400:	000000cc 	andeq	r0, r0, ip, asr #1
 404:	0000011c 	andeq	r0, r0, ip, lsl r1
	...
 410:	000000f0 	strdeq	r0, [r0], -r0	; <UNPREDICTABLE>
 414:	000000f4 	strdeq	r0, [r0], -r4
 418:	000000f4 	strdeq	r0, [r0], -r4
 41c:	0000011c 	andeq	r0, r0, ip, lsl r1
	...
 428:	000000f0 	strdeq	r0, [r0], -r0	; <UNPREDICTABLE>
 42c:	000000f4 	strdeq	r0, [r0], -r4
 430:	000000f4 	strdeq	r0, [r0], -r4
 434:	00000104 	andeq	r0, r0, r4, lsl #2
 438:	00000108 	andeq	r0, r0, r8, lsl #2
 43c:	0000010c 	andeq	r0, r0, ip, lsl #2
	...
 448:	000000f0 	strdeq	r0, [r0], -r0	; <UNPREDICTABLE>
 44c:	000000f4 	strdeq	r0, [r0], -r4
 450:	000000f8 	strdeq	r0, [r0], -r8
 454:	00000104 	andeq	r0, r0, r4, lsl #2
	...
 460:	00000134 	andeq	r0, r0, r4, lsr r1
 464:	00000134 	andeq	r0, r0, r4, lsr r1
 468:	00000134 	andeq	r0, r0, r4, lsr r1
 46c:	0000013c 	andeq	r0, r0, ip, lsr r1
	...
 478:	0000024c 	andeq	r0, r0, ip, asr #4
 47c:	00000264 	andeq	r0, r0, r4, ror #4
 480:	000002c8 	andeq	r0, r0, r8, asr #5
 484:	000002e8 	andeq	r0, r0, r8, ror #5
	...
 490:	00000008 	andeq	r0, r0, r8
 494:	0000000c 	andeq	r0, r0, ip
 498:	00000014 	andeq	r0, r0, r4, lsl r0
 49c:	00000054 	andeq	r0, r0, r4, asr r0
 4a0:	00000058 	andeq	r0, r0, r8, asr r0
 4a4:	00000060 	andeq	r0, r0, r0, rrx
	...
 4b0:	00000060 	andeq	r0, r0, r0, rrx
 4b4:	00000068 	andeq	r0, r0, r8, rrx
 4b8:	0000006c 	andeq	r0, r0, ip, rrx
 4bc:	000000ac 	andeq	r0, r0, ip, lsr #1
 4c0:	000000b0 	strheq	r0, [r0], -r0	; <UNPREDICTABLE>
 4c4:	000000b8 	strheq	r0, [r0], -r8
	...
 4d0:	00000068 	andeq	r0, r0, r8, rrx
 4d4:	00000068 	andeq	r0, r0, r8, rrx
 4d8:	0000006c 	andeq	r0, r0, ip, rrx
 4dc:	000000ac 	andeq	r0, r0, ip, lsr #1
 4e0:	000000b0 	strheq	r0, [r0], -r0	; <UNPREDICTABLE>
 4e4:	000000b8 	strheq	r0, [r0], -r8
	...
 4f0:	000000e8 	andeq	r0, r0, r8, ror #1
 4f4:	000000f0 	strdeq	r0, [r0], -r0	; <UNPREDICTABLE>
 4f8:	000000f4 	strdeq	r0, [r0], -r4
 4fc:	00000134 	andeq	r0, r0, r4, lsr r1
 500:	00000138 	andeq	r0, r0, r8, lsr r1
 504:	00000140 	andeq	r0, r0, r0, asr #2
	...
 510:	000000f0 	strdeq	r0, [r0], -r0	; <UNPREDICTABLE>
 514:	000000f0 	strdeq	r0, [r0], -r0	; <UNPREDICTABLE>
 518:	000000f4 	strdeq	r0, [r0], -r4
 51c:	00000134 	andeq	r0, r0, r4, lsr r1
 520:	00000138 	andeq	r0, r0, r8, lsr r1
 524:	00000140 	andeq	r0, r0, r0, asr #2
	...
 530:	00000144 	andeq	r0, r0, r4, asr #2
 534:	00000148 	andeq	r0, r0, r8, asr #2
 538:	00000150 	andeq	r0, r0, r0, asr r1
 53c:	0000015c 	andeq	r0, r0, ip, asr r1
	...
