
tests-2.0/part1-test1-no-bug.elf:     file format elf32-littlearm


Disassembly of section .text:

00008000 <__code_start__>:
    8000:	e3a00013 	mov	r0, #19, 0
    8004:	e3800080 	orr	r0, r0, #128, 0	; 0x80
    8008:	e129f000 	msr	CPSR_fc, r0
    800c:	e3a01000 	mov	r1, #0, 0
    8010:	ee071f95 	mcr	15, 0, r1, cr7, cr5, {4}
    8014:	e3a0d302 	mov	sp, #134217728	; 0x8000000
    8018:	e3a0b000 	mov	fp, #0, 0
    801c:	eb0006af 	bl	9ae0 <_cstart>
    8020:	eb0006f8 	bl	9c08 <rpi_reboot>

00008024 <PUT32>:
    8024:	e5801000 	str	r1, [r0]
    8028:	e12fff1e 	bx	lr

0000802c <GET32>:
    802c:	e5900000 	ldr	r0, [r0]
    8030:	e12fff1e 	bx	lr

00008034 <BRANCHTO>:
    8034:	e12fff10 	bx	r0
    8038:	625f6b63 	subsvs	r6, pc, #101376	; 0x18c00
    803c:	695f6b6c 	ldmdbvs	pc, {r2, r3, r5, r6, r8, r9, fp, sp, lr}^	; <UNPREDICTABLE>
    8040:	00000064 	andeq	r0, r0, r4, rrx
    8044:	ff00000c 			; <UNDEFINED> instruction: 0xff00000c

00008048 <ck_blk_id>:
    8048:	e1a0c00d 	mov	ip, sp
    804c:	e92dd800 	push	{fp, ip, lr, pc}
    8050:	e24cb004 	sub	fp, ip, #4, 0
    8054:	e51000a8 	ldr	r0, [r0, #-168]	; 0xffffff58
    8058:	e89da800 	ldm	sp, {fp, sp, pc}
    805c:	6d746f6e 	ldclvs	15, cr6, [r4, #-440]!	; 0xfffffe48
    8060:	006e6961 	rsbeq	r6, lr, r1, ror #18
    8064:	ff000008 			; <UNDEFINED> instruction: 0xff000008

00008068 <notmain>:
    8068:	e1a0c00d 	mov	ip, sp
    806c:	e92dd870 	push	{r4, r5, r6, fp, ip, lr, pc}
    8070:	e24cb004 	sub	fp, ip, #4, 0
    8074:	e24dd01c 	sub	sp, sp, #28, 0
    8078:	e59f00a4 	ldr	r0, [pc, #164]	; 8124 <notmain+0xbc>
    807c:	eb0003fb 	bl	9070 <printk>
    8080:	e59f60a0 	ldr	r6, [pc, #160]	; 8128 <notmain+0xc0>
    8084:	e50b6034 	str	r6, [fp, #-52]	; 0xffffffcc
    8088:	e59f509c 	ldr	r5, [pc, #156]	; 812c <notmain+0xc4>
    808c:	e50b5030 	str	r5, [fp, #-48]	; 0xffffffd0
    8090:	e3a0300b 	mov	r3, #11, 0
    8094:	e50b302c 	str	r3, [fp, #-44]	; 0xffffffd4
    8098:	e24b3034 	sub	r3, fp, #52, 0	; 0x34
    809c:	e893000e 	ldm	r3, {r1, r2, r3}
    80a0:	e3a00004 	mov	r0, #4, 0
    80a4:	eb0000ef 	bl	8468 <ckalloc>
    80a8:	e1a04000 	mov	r4, r0
    80ac:	ebffffe5 	bl	8048 <ck_blk_id>
    80b0:	e1a01000 	mov	r1, r0
    80b4:	e1a02004 	mov	r2, r4
    80b8:	e59f0070 	ldr	r0, [pc, #112]	; 8130 <notmain+0xc8>
    80bc:	eb0003eb 	bl	9070 <printk>
    80c0:	e3a02004 	mov	r2, #4, 0
    80c4:	e3a01000 	mov	r1, #0, 0
    80c8:	e1a00004 	mov	r0, r4
    80cc:	eb0003c9 	bl	8ff8 <memset>
    80d0:	e50b6028 	str	r6, [fp, #-40]	; 0xffffffd8
    80d4:	e50b5024 	str	r5, [fp, #-36]	; 0xffffffdc
    80d8:	e3a0300e 	mov	r3, #14, 0
    80dc:	e50b3020 	str	r3, [fp, #-32]	; 0xffffffe0
    80e0:	e24b301c 	sub	r3, fp, #28, 0
    80e4:	e913000e 	ldmdb	r3, {r1, r2, r3}
    80e8:	e1a00004 	mov	r0, r4
    80ec:	eb000073 	bl	82c0 <ckfree>
    80f0:	eb000308 	bl	8d18 <ck_heap_errors>
    80f4:	e3500000 	cmp	r0, #0, 0
    80f8:	1a000003 	bne	810c <notmain+0xa4>
    80fc:	e59f0030 	ldr	r0, [pc, #48]	; 8134 <notmain+0xcc>
    8100:	eb0003da 	bl	9070 <printk>
    8104:	e24bd018 	sub	sp, fp, #24, 0
    8108:	e89da870 	ldm	sp, {r4, r5, r6, fp, sp, pc}
    810c:	e3a03011 	mov	r3, #17, 0
    8110:	e1a02005 	mov	r2, r5
    8114:	e1a01006 	mov	r1, r6
    8118:	e59f0018 	ldr	r0, [pc, #24]	; 8138 <notmain+0xd0>
    811c:	eb0003d3 	bl	9070 <printk>
    8120:	eb000663 	bl	9ab4 <clean_reboot>
    8124:	0000a5d0 	ldrdeq	sl, [r0], -r0
    8128:	0000a5d8 	ldrdeq	sl, [r0], -r8
    812c:	0000a65c 	andeq	sl, r0, ip, asr r6
    8130:	0000a5f8 	strdeq	sl, [r0], -r8
    8134:	0000a63c 	andeq	sl, r0, ip, lsr r6
    8138:	0000a618 	andeq	sl, r0, r8, lsl r6
    813c:	665f6b63 	ldrbvs	r6, [pc], -r3, ror #22
    8140:	74737269 	ldrbtvc	r7, [r3], #-617	; 0xfffffd97
    8144:	7264685f 	rsbvc	r6, r4, #6225920	; 0x5f0000
    8148:	00000000 	andeq	r0, r0, r0
    814c:	ff000010 			; <UNDEFINED> instruction: 0xff000010

00008150 <ck_first_hdr>:
    8150:	e1a0c00d 	mov	ip, sp
    8154:	e92dd800 	push	{fp, ip, lr, pc}
    8158:	e24cb004 	sub	fp, ip, #4, 0
    815c:	e59f3004 	ldr	r3, [pc, #4]	; 8168 <ck_first_hdr+0x18>
    8160:	e5930000 	ldr	r0, [r3]
    8164:	e89da800 	ldm	sp, {fp, sp, pc}
    8168:	0000aed0 	ldrdeq	sl, [r0], -r0
    816c:	6e5f6b63 	vnmlavs.f64	d22, d15, d19
    8170:	5f747865 	svcpl	0x00747865
    8174:	00726468 	rsbseq	r6, r2, r8, ror #8
    8178:	ff00000c 			; <UNDEFINED> instruction: 0xff00000c

0000817c <ck_next_hdr>:
    817c:	e1a0c00d 	mov	ip, sp
    8180:	e92dd800 	push	{fp, ip, lr, pc}
    8184:	e24cb004 	sub	fp, ip, #4, 0
    8188:	e3500000 	cmp	r0, #0, 0
    818c:	089da800 	ldmeq	sp, {fp, sp, pc}
    8190:	e5900000 	ldr	r0, [r0]
    8194:	e89da800 	ldm	sp, {fp, sp, pc}
    8198:	685f6b63 	ldmdavs	pc, {r0, r1, r5, r6, r8, r9, fp, sp, lr}^	; <UNPREDICTABLE>
    819c:	735f7264 	cmpvc	pc, #100, 4	; 0x40000006
    81a0:	74726174 	ldrbtvc	r6, [r2], #-372	; 0xfffffe8c
    81a4:	00000000 	andeq	r0, r0, r0
    81a8:	ff000010 			; <UNDEFINED> instruction: 0xff000010

000081ac <ck_hdr_start>:
    81ac:	e1a0c00d 	mov	ip, sp
    81b0:	e92dd800 	push	{fp, ip, lr, pc}
    81b4:	e24cb004 	sub	fp, ip, #4, 0
    81b8:	e28000b4 	add	r0, r0, #180, 0	; 0xb4
    81bc:	e89da800 	ldm	sp, {fp, sp, pc}
    81c0:	685f6b63 	ldmdavs	pc, {r0, r1, r5, r6, r8, r9, fp, sp, lr}^	; <UNPREDICTABLE>
    81c4:	655f7264 	ldrbvs	r7, [pc, #-612]	; 7f68 <__code_start__-0x98>
    81c8:	0000646e 	andeq	r6, r0, lr, ror #8
    81cc:	ff00000c 			; <UNDEFINED> instruction: 0xff00000c

000081d0 <ck_hdr_end>:
    81d0:	e1a0c00d 	mov	ip, sp
    81d4:	e92dd830 	push	{r4, r5, fp, ip, lr, pc}
    81d8:	e24cb004 	sub	fp, ip, #4, 0
    81dc:	e1a04000 	mov	r4, r0
    81e0:	ebfffff1 	bl	81ac <ck_hdr_start>
    81e4:	e5943004 	ldr	r3, [r4, #4]
    81e8:	e0800003 	add	r0, r0, r3
    81ec:	e89da830 	ldm	sp, {r4, r5, fp, sp, pc}
    81f0:	705f6b63 	subsvc	r6, pc, r3, ror #22
    81f4:	695f7274 	ldmdbvs	pc, {r2, r4, r5, r6, r9, ip, sp, lr}^	; <UNPREDICTABLE>
    81f8:	6c625f6e 	stclvs	15, cr5, [r2], #-440	; 0xfffffe48
    81fc:	006b636f 	rsbeq	r6, fp, pc, ror #6
    8200:	ff000010 			; <UNDEFINED> instruction: 0xff000010

00008204 <ck_ptr_in_block>:
    8204:	e1a0c00d 	mov	ip, sp
    8208:	e92dd8f0 	push	{r4, r5, r6, r7, fp, ip, lr, pc}
    820c:	e24cb004 	sub	fp, ip, #4, 0
    8210:	e1a06000 	mov	r6, r0
    8214:	e1a04001 	mov	r4, r1
    8218:	ebffffe3 	bl	81ac <ck_hdr_start>
    821c:	e1a05000 	mov	r5, r0
    8220:	e1a00006 	mov	r0, r6
    8224:	ebffffe9 	bl	81d0 <ck_hdr_end>
    8228:	e1550004 	cmp	r5, r4
    822c:	91540000 	cmpls	r4, r0
    8230:	33a00001 	movcc	r0, #1, 0
    8234:	23a00000 	movcs	r0, #0, 0
    8238:	e89da8f0 	ldm	sp, {r4, r5, r6, r7, fp, sp, pc}
    823c:	705f6b63 	subsvc	r6, pc, r3, ror #22
    8240:	695f7274 	ldmdbvs	pc, {r2, r4, r5, r6, r9, ip, sp, lr}^	; <UNPREDICTABLE>
    8244:	6c615f73 	stclvs	15, cr5, [r1], #-460	; 0xfffffe34
    8248:	65636f6c 	strbvs	r6, [r3, #-3948]!	; 0xfffff094
    824c:	00000064 	andeq	r0, r0, r4, rrx
    8250:	ff000014 			; <UNDEFINED> instruction: 0xff000014

00008254 <ck_ptr_is_alloced>:
    8254:	e1a0c00d 	mov	ip, sp
    8258:	e92dd830 	push	{r4, r5, fp, ip, lr, pc}
    825c:	e24cb004 	sub	fp, ip, #4, 0
    8260:	e1a05000 	mov	r5, r0
    8264:	ebffffb9 	bl	8150 <ck_first_hdr>
    8268:	e1a04000 	mov	r4, r0
    826c:	e3540000 	cmp	r4, #0, 0
    8270:	0a00000c 	beq	82a8 <ck_ptr_is_alloced+0x54>
    8274:	e1a01005 	mov	r1, r5
    8278:	e1a00004 	mov	r0, r4
    827c:	ebffffe0 	bl	8204 <ck_ptr_in_block>
    8280:	e3500000 	cmp	r0, #0, 0
    8284:	1a000003 	bne	8298 <ck_ptr_is_alloced+0x44>
    8288:	e1a00004 	mov	r0, r4
    828c:	ebffffba 	bl	817c <ck_next_hdr>
    8290:	e1a04000 	mov	r4, r0
    8294:	eafffff4 	b	826c <ck_ptr_is_alloced+0x18>
    8298:	e1a02004 	mov	r2, r4
    829c:	e1a01005 	mov	r1, r5
    82a0:	e59f0008 	ldr	r0, [pc, #8]	; 82b0 <ck_ptr_is_alloced+0x5c>
    82a4:	eb000371 	bl	9070 <printk>
    82a8:	e1a00004 	mov	r0, r4
    82ac:	e89da830 	ldm	sp, {r4, r5, fp, sp, pc}
    82b0:	0000a664 	andeq	sl, r0, r4, ror #12
    82b4:	72666b63 	rsbvc	r6, r6, #101376	; 0x18c00
    82b8:	00006565 	andeq	r6, r0, r5, ror #10
    82bc:	ff000008 			; <UNDEFINED> instruction: 0xff000008

000082c0 <ckfree>:
    82c0:	e1a0c00d 	mov	ip, sp
    82c4:	e92dd8f0 	push	{r4, r5, r6, r7, fp, ip, lr, pc}
    82c8:	e24cb004 	sub	fp, ip, #4, 0
    82cc:	e24dd018 	sub	sp, sp, #24, 0
    82d0:	e1a04000 	mov	r4, r0
    82d4:	e24b0028 	sub	r0, fp, #40, 0	; 0x28
    82d8:	e880000e 	stm	r0, {r1, r2, r3}
    82dc:	e244c098 	sub	ip, r4, #152, 0	; 0x98
    82e0:	e8900007 	ldm	r0, {r0, r1, r2}
    82e4:	e88c000b 	stm	ip, {r0, r1, r3}
    82e8:	e1a05000 	mov	r5, r0
    82ec:	e51b6024 	ldr	r6, [fp, #-36]	; 0xffffffdc
    82f0:	e51b7020 	ldr	r7, [fp, #-32]	; 0xffffffe0
    82f4:	e1a03007 	mov	r3, r7
    82f8:	e1a02006 	mov	r2, r6
    82fc:	e1a01000 	mov	r1, r0
    8300:	e59f012c 	ldr	r0, [pc, #300]	; 8434 <ckfree+0x174>
    8304:	eb000359 	bl	9070 <printk>
    8308:	e1a01004 	mov	r1, r4
    830c:	e59f0124 	ldr	r0, [pc, #292]	; 8438 <ckfree+0x178>
    8310:	eb000356 	bl	9070 <printk>
    8314:	e51430ac 	ldr	r3, [r4, #-172]	; 0xffffff54
    8318:	e353000b 	cmp	r3, #11, 0
    831c:	1a00000d 	bne	8358 <ckfree+0x98>
    8320:	e3a03000 	mov	r3, #0, 0
    8324:	e353007f 	cmp	r3, #127, 0	; 0x7f
    8328:	ca000026 	bgt	83c8 <ckfree+0x108>
    832c:	e0842003 	add	r2, r4, r3
    8330:	e5522082 	ldrb	r2, [r2, #-130]	; 0xffffff7e
    8334:	e35200fe 	cmp	r2, #254, 0	; 0xfe
    8338:	1a000010 	bne	8380 <ckfree+0xc0>
    833c:	e51420b0 	ldr	r2, [r4, #-176]	; 0xffffff50
    8340:	e0832002 	add	r2, r3, r2
    8344:	e7d42002 	ldrb	r2, [r4, r2]
    8348:	e35200fe 	cmp	r2, #254, 0	; 0xfe
    834c:	1a000014 	bne	83a4 <ckfree+0xe4>
    8350:	e2833001 	add	r3, r3, #1, 0
    8354:	eafffff2 	b	8324 <ckfree+0x64>
    8358:	eb0002fe 	bl	8f58 <backtrace>
    835c:	e1a03007 	mov	r3, r7
    8360:	e1a02006 	mov	r2, r6
    8364:	e1a01005 	mov	r1, r5
    8368:	e59f00cc 	ldr	r0, [pc, #204]	; 843c <ckfree+0x17c>
    836c:	eb00033f 	bl	9070 <printk>
    8370:	e51410ac 	ldr	r1, [r4, #-172]	; 0xffffff54
    8374:	e59f00c4 	ldr	r0, [pc, #196]	; 8440 <ckfree+0x180>
    8378:	eb00033c 	bl	9070 <printk>
    837c:	eb0005cc 	bl	9ab4 <clean_reboot>
    8380:	eb0002f4 	bl	8f58 <backtrace>
    8384:	e1a03007 	mov	r3, r7
    8388:	e1a02006 	mov	r2, r6
    838c:	e1a01005 	mov	r1, r5
    8390:	e59f00a4 	ldr	r0, [pc, #164]	; 843c <ckfree+0x17c>
    8394:	eb000335 	bl	9070 <printk>
    8398:	e59f00a4 	ldr	r0, [pc, #164]	; 8444 <ckfree+0x184>
    839c:	eb000333 	bl	9070 <printk>
    83a0:	eb0005c3 	bl	9ab4 <clean_reboot>
    83a4:	eb0002eb 	bl	8f58 <backtrace>
    83a8:	e1a03007 	mov	r3, r7
    83ac:	e1a02006 	mov	r2, r6
    83b0:	e1a01005 	mov	r1, r5
    83b4:	e59f0080 	ldr	r0, [pc, #128]	; 843c <ckfree+0x17c>
    83b8:	eb00032c 	bl	9070 <printk>
    83bc:	e59f0084 	ldr	r0, [pc, #132]	; 8448 <ckfree+0x188>
    83c0:	eb00032a 	bl	9070 <printk>
    83c4:	eb0005ba 	bl	9ab4 <clean_reboot>
    83c8:	e3a03000 	mov	r3, #0, 0
    83cc:	e51420b0 	ldr	r2, [r4, #-176]	; 0xffffff50
    83d0:	e1520003 	cmp	r2, r3
    83d4:	83e02001 	mvnhi	r2, #1, 0
    83d8:	87c42003 	strbhi	r2, [r4, r3]
    83dc:	82833001 	addhi	r3, r3, #1, 0
    83e0:	8afffff9 	bhi	83cc <ckfree+0x10c>
    83e4:	e3a0300c 	mov	r3, #12, 0
    83e8:	e50430ac 	str	r3, [r4, #-172]	; 0xffffff54
    83ec:	e2443098 	sub	r3, r4, #152, 0	; 0x98
    83f0:	e24b201c 	sub	r2, fp, #28, 0
    83f4:	e9120007 	ldmdb	r2, {r0, r1, r2}
    83f8:	e8830007 	stm	r3, {r0, r1, r2}
    83fc:	e1a00004 	mov	r0, r4
    8400:	ebffff93 	bl	8254 <ck_ptr_is_alloced>
    8404:	e3500000 	cmp	r0, #0, 0
    8408:	0a000001 	beq	8414 <ckfree+0x154>
    840c:	e24bd01c 	sub	sp, fp, #28, 0
    8410:	e89da8f0 	ldm	sp, {r4, r5, r6, r7, fp, sp, pc}
    8414:	e59f3030 	ldr	r3, [pc, #48]	; 844c <ckfree+0x18c>
    8418:	e58d3000 	str	r3, [sp]
    841c:	e3a0306d 	mov	r3, #109, 0	; 0x6d
    8420:	e59f2028 	ldr	r2, [pc, #40]	; 8450 <ckfree+0x190>
    8424:	e59f1028 	ldr	r1, [pc, #40]	; 8454 <ckfree+0x194>
    8428:	e59f0028 	ldr	r0, [pc, #40]	; 8458 <ckfree+0x198>
    842c:	eb00030f 	bl	9070 <printk>
    8430:	eb00059f 	bl	9ab4 <clean_reboot>
    8434:	0000a674 	andeq	sl, r0, r4, ror r6
    8438:	0000a680 	andeq	sl, r0, r0, lsl #13
    843c:	0000a690 	muleq	r0, r0, r6
    8440:	0000a6a8 	andeq	sl, r0, r8, lsr #13
    8444:	0000a6d0 	ldrdeq	sl, [r0], -r0
    8448:	0000a6ec 	andeq	sl, r0, ip, ror #13
    844c:	0000a728 	andeq	sl, r0, r8, lsr #14
    8450:	0000a75c 	andeq	sl, r0, ip, asr r7
    8454:	0000a708 	andeq	sl, r0, r8, lsl #14
    8458:	0000a714 	andeq	sl, r0, r4, lsl r7
    845c:	6c616b63 			; <UNDEFINED> instruction: 0x6c616b63
    8460:	00636f6c 	rsbeq	r6, r3, ip, ror #30
    8464:	ff000008 			; <UNDEFINED> instruction: 0xff000008

00008468 <ckalloc>:
    8468:	e1a0c00d 	mov	ip, sp
    846c:	e92dd870 	push	{r4, r5, r6, fp, ip, lr, pc}
    8470:	e24cb004 	sub	fp, ip, #4, 0
    8474:	e24dd014 	sub	sp, sp, #20, 0
    8478:	e1a05000 	mov	r5, r0
    847c:	e24b001c 	sub	r0, fp, #28, 0
    8480:	e900000e 	stmdb	r0, {r1, r2, r3}
    8484:	e2850f4d 	add	r0, r5, #308	; 0x134
    8488:	eb00007c 	bl	8680 <kr_malloc>
    848c:	e1a04000 	mov	r4, r0
    8490:	e3a020b4 	mov	r2, #180, 0	; 0xb4
    8494:	e3a01000 	mov	r1, #0, 0
    8498:	eb0002d6 	bl	8ff8 <memset>
    849c:	e3a03000 	mov	r3, #0, 0
    84a0:	e353007f 	cmp	r3, #127, 0	; 0x7f
    84a4:	ca000007 	bgt	84c8 <ckalloc+0x60>
    84a8:	e0842003 	add	r2, r4, r3
    84ac:	e3e01001 	mvn	r1, #1, 0
    84b0:	e5c21032 	strb	r1, [r2, #50]	; 0x32
    84b4:	e0832005 	add	r2, r3, r5
    84b8:	e28220b4 	add	r2, r2, #180, 0	; 0xb4
    84bc:	e7c41002 	strb	r1, [r4, r2]
    84c0:	e2833001 	add	r3, r3, #1, 0
    84c4:	eafffff5 	b	84a0 <ckalloc+0x38>
    84c8:	e5845004 	str	r5, [r4, #4]
    84cc:	e3a0300b 	mov	r3, #11, 0
    84d0:	e5843008 	str	r3, [r4, #8]
    84d4:	e2843010 	add	r3, r4, #16, 0
    84d8:	e24b201c 	sub	r2, fp, #28, 0
    84dc:	e9120007 	ldmdb	r2, {r0, r1, r2}
    84e0:	e8830007 	stm	r3, {r0, r1, r2}
    84e4:	e51b3020 	ldr	r3, [fp, #-32]	; 0xffffffe0
    84e8:	e51b2024 	ldr	r2, [fp, #-36]	; 0xffffffdc
    84ec:	e51b1028 	ldr	r1, [fp, #-40]	; 0xffffffd8
    84f0:	e59f0030 	ldr	r0, [pc, #48]	; 8528 <ckalloc+0xc0>
    84f4:	eb0002dd 	bl	9070 <printk>
    84f8:	e28460b4 	add	r6, r4, #180, 0	; 0xb4
    84fc:	e1a02005 	mov	r2, r5
    8500:	e1a01006 	mov	r1, r6
    8504:	e59f0020 	ldr	r0, [pc, #32]	; 852c <ckalloc+0xc4>
    8508:	eb0002d8 	bl	9070 <printk>
    850c:	e59f301c 	ldr	r3, [pc, #28]	; 8530 <ckalloc+0xc8>
    8510:	e5932000 	ldr	r2, [r3]
    8514:	e5842000 	str	r2, [r4]
    8518:	e5834000 	str	r4, [r3]
    851c:	e1a00006 	mov	r0, r6
    8520:	e24bd018 	sub	sp, fp, #24, 0
    8524:	e89da870 	ldm	sp, {r4, r5, r6, fp, sp, pc}
    8528:	0000a674 	andeq	sl, r0, r4, ror r6
    852c:	0000a740 	andeq	sl, r0, r0, asr #14
    8530:	0000aed0 	ldrdeq	sl, [r0], -r0
    8534:	665f726b 	ldrbvs	r7, [pc], -fp, ror #4
    8538:	00656572 	rsbeq	r6, r5, r2, ror r5
    853c:	ff000008 			; <UNDEFINED> instruction: 0xff000008

00008540 <kr_free>:
    8540:	e1a0c00d 	mov	ip, sp
    8544:	e92dd800 	push	{fp, ip, lr, pc}
    8548:	e24cb004 	sub	fp, ip, #4, 0
    854c:	e2401008 	sub	r1, r0, #8, 0
    8550:	e59f30a8 	ldr	r3, [pc, #168]	; 8600 <kr_free+0xc0>
    8554:	e5933000 	ldr	r3, [r3]
    8558:	ea000000 	b	8560 <kr_free+0x20>
    855c:	e1a03002 	mov	r3, r2
    8560:	e1530001 	cmp	r3, r1
    8564:	2a000002 	bcs	8574 <kr_free+0x34>
    8568:	e5932000 	ldr	r2, [r3]
    856c:	e1520001 	cmp	r2, r1
    8570:	8a000007 	bhi	8594 <kr_free+0x54>
    8574:	e5932000 	ldr	r2, [r3]
    8578:	e1520003 	cmp	r2, r3
    857c:	8afffff6 	bhi	855c <kr_free+0x1c>
    8580:	e1530001 	cmp	r3, r1
    8584:	3a000002 	bcc	8594 <kr_free+0x54>
    8588:	e1520001 	cmp	r2, r1
    858c:	91a03002 	movls	r3, r2
    8590:	9afffff2 	bls	8560 <kr_free+0x20>
    8594:	e510c004 	ldr	ip, [r0, #-4]
    8598:	e081e18c 	add	lr, r1, ip, lsl #3
    859c:	e5932000 	ldr	r2, [r3]
    85a0:	e15e0002 	cmp	lr, r2
    85a4:	0a000008 	beq	85cc <kr_free+0x8c>
    85a8:	e5002008 	str	r2, [r0, #-8]
    85ac:	e5932004 	ldr	r2, [r3, #4]
    85b0:	e083c182 	add	ip, r3, r2, lsl #3
    85b4:	e15c0001 	cmp	ip, r1
    85b8:	0a00000a 	beq	85e8 <kr_free+0xa8>
    85bc:	e5831000 	str	r1, [r3]
    85c0:	e59f2038 	ldr	r2, [pc, #56]	; 8600 <kr_free+0xc0>
    85c4:	e5823000 	str	r3, [r2]
    85c8:	e89da800 	ldm	sp, {fp, sp, pc}
    85cc:	e5922004 	ldr	r2, [r2, #4]
    85d0:	e08cc002 	add	ip, ip, r2
    85d4:	e500c004 	str	ip, [r0, #-4]
    85d8:	e5932000 	ldr	r2, [r3]
    85dc:	e5922000 	ldr	r2, [r2]
    85e0:	e5002008 	str	r2, [r0, #-8]
    85e4:	eafffff0 	b	85ac <kr_free+0x6c>
    85e8:	e5101004 	ldr	r1, [r0, #-4]
    85ec:	e0822001 	add	r2, r2, r1
    85f0:	e5832004 	str	r2, [r3, #4]
    85f4:	e5102008 	ldr	r2, [r0, #-8]
    85f8:	e5832000 	str	r2, [r3]
    85fc:	eaffffef 	b	85c0 <kr_free+0x80>
    8600:	0000aed8 	ldrdeq	sl, [r0], -r8
    8604:	65726f6d 	ldrbvs	r6, [r2, #-3949]!	; 0xfffff093
    8608:	65726f63 	ldrbvs	r6, [r2, #-3939]!	; 0xfffff09d
    860c:	00000000 	andeq	r0, r0, r0
    8610:	ff00000c 			; <UNDEFINED> instruction: 0xff00000c

00008614 <morecore>:
    8614:	e1a0c00d 	mov	ip, sp
    8618:	e92dd830 	push	{r4, r5, fp, ip, lr, pc}
    861c:	e24cb004 	sub	fp, ip, #4, 0
    8620:	e1a04000 	mov	r4, r0
    8624:	e3500b01 	cmp	r0, #1024	; 0x400
    8628:	33a04b01 	movcc	r4, #1024	; 0x400
    862c:	e1a01004 	mov	r1, r4
    8630:	e59f0030 	ldr	r0, [pc, #48]	; 8668 <morecore+0x54>
    8634:	eb00028d 	bl	9070 <printk>
    8638:	e1a00184 	lsl	r0, r4, #3
    863c:	eb000171 	bl	8c08 <sbrk>
    8640:	e3700001 	cmn	r0, #1, 0
    8644:	0a000005 	beq	8660 <morecore+0x4c>
    8648:	e5804004 	str	r4, [r0, #4]
    864c:	e2800008 	add	r0, r0, #8, 0
    8650:	ebffffba 	bl	8540 <kr_free>
    8654:	e59f3010 	ldr	r3, [pc, #16]	; 866c <morecore+0x58>
    8658:	e5930000 	ldr	r0, [r3]
    865c:	e89da830 	ldm	sp, {r4, r5, fp, sp, pc}
    8660:	e3a00000 	mov	r0, #0, 0
    8664:	e89da830 	ldm	sp, {r4, r5, fp, sp, pc}
    8668:	0000a764 	andeq	sl, r0, r4, ror #14
    866c:	0000aed8 	ldrdeq	sl, [r0], -r8
    8670:	6d5f726b 	lfmvs	f7, 2, [pc, #-428]	; 84cc <ckalloc+0x64>
    8674:	6f6c6c61 	svcvs	0x006c6c61
    8678:	00000063 	andeq	r0, r0, r3, rrx
    867c:	ff00000c 			; <UNDEFINED> instruction: 0xff00000c

00008680 <kr_malloc>:
    8680:	e1a0c00d 	mov	ip, sp
    8684:	e92dd830 	push	{r4, r5, fp, ip, lr, pc}
    8688:	e24cb004 	sub	fp, ip, #4, 0
    868c:	e2804007 	add	r4, r0, #7, 0
    8690:	e1a041a4 	lsr	r4, r4, #3
    8694:	e2844001 	add	r4, r4, #1, 0
    8698:	e59f3090 	ldr	r3, [pc, #144]	; 8730 <kr_malloc+0xb0>
    869c:	e5932000 	ldr	r2, [r3]
    86a0:	e3520000 	cmp	r2, #0, 0
    86a4:	0a000001 	beq	86b0 <kr_malloc+0x30>
    86a8:	e5920000 	ldr	r0, [r2]
    86ac:	ea000013 	b	8700 <kr_malloc+0x80>
    86b0:	e2832008 	add	r2, r3, #8, 0
    86b4:	e5832000 	str	r2, [r3]
    86b8:	e5832008 	str	r2, [r3, #8]
    86bc:	e3a01000 	mov	r1, #0, 0
    86c0:	e583100c 	str	r1, [r3, #12]
    86c4:	eafffff7 	b	86a8 <kr_malloc+0x28>
    86c8:	0a000007 	beq	86ec <kr_malloc+0x6c>
    86cc:	e0433004 	sub	r3, r3, r4
    86d0:	e5803004 	str	r3, [r0, #4]
    86d4:	e0800183 	add	r0, r0, r3, lsl #3
    86d8:	e5804004 	str	r4, [r0, #4]
    86dc:	e59f304c 	ldr	r3, [pc, #76]	; 8730 <kr_malloc+0xb0>
    86e0:	e5832000 	str	r2, [r3]
    86e4:	e2800008 	add	r0, r0, #8, 0
    86e8:	e89da830 	ldm	sp, {r4, r5, fp, sp, pc}
    86ec:	e5903000 	ldr	r3, [r0]
    86f0:	e5823000 	str	r3, [r2]
    86f4:	eafffff8 	b	86dc <kr_malloc+0x5c>
    86f8:	e1a02000 	mov	r2, r0
    86fc:	e5900000 	ldr	r0, [r0]
    8700:	e5903004 	ldr	r3, [r0, #4]
    8704:	e1530004 	cmp	r3, r4
    8708:	2affffee 	bcs	86c8 <kr_malloc+0x48>
    870c:	e59f301c 	ldr	r3, [pc, #28]	; 8730 <kr_malloc+0xb0>
    8710:	e5933000 	ldr	r3, [r3]
    8714:	e1530000 	cmp	r3, r0
    8718:	1afffff6 	bne	86f8 <kr_malloc+0x78>
    871c:	e3a00902 	mov	r0, #32768	; 0x8000
    8720:	ebffffbb 	bl	8614 <morecore>
    8724:	e3500000 	cmp	r0, #0, 0
    8728:	1afffff2 	bne	86f8 <kr_malloc+0x78>
    872c:	e89da830 	ldm	sp, {r4, r5, fp, sp, pc}
    8730:	0000aed8 	ldrdeq	sl, [r0], -r8
    8734:	685f6e69 	ldmdavs	pc, {r0, r3, r5, r6, r9, sl, fp, sp, lr}^	; <UNPREDICTABLE>
    8738:	00706165 	rsbseq	r6, r0, r5, ror #2
    873c:	ff000008 			; <UNDEFINED> instruction: 0xff000008

00008740 <in_heap>:
    8740:	e1a0c00d 	mov	ip, sp
    8744:	e92dd800 	push	{fp, ip, lr, pc}
    8748:	e24cb004 	sub	fp, ip, #4, 0
    874c:	e59f3030 	ldr	r3, [pc, #48]	; 8784 <in_heap+0x44>
    8750:	e5933000 	ldr	r3, [r3]
    8754:	e1530000 	cmp	r3, r0
    8758:	8a000005 	bhi	8774 <in_heap+0x34>
    875c:	e59f3020 	ldr	r3, [pc, #32]	; 8784 <in_heap+0x44>
    8760:	e5933004 	ldr	r3, [r3, #4]
    8764:	e1530000 	cmp	r3, r0
    8768:	9a000003 	bls	877c <in_heap+0x3c>
    876c:	e3a00001 	mov	r0, #1, 0
    8770:	e89da800 	ldm	sp, {fp, sp, pc}
    8774:	e3a00000 	mov	r0, #0, 0
    8778:	e89da800 	ldm	sp, {fp, sp, pc}
    877c:	e3a00000 	mov	r0, #0, 0
    8780:	e89da800 	ldm	sp, {fp, sp, pc}
    8784:	0000aee8 	andeq	sl, r0, r8, ror #29
    8788:	705f7369 	subsvc	r7, pc, r9, ror #6
    878c:	00007274 	andeq	r7, r0, r4, ror r2
    8790:	ff000008 			; <UNDEFINED> instruction: 0xff000008

00008794 <is_ptr>:
    8794:	e1a0c00d 	mov	ip, sp
    8798:	e92dd830 	push	{r4, r5, fp, ip, lr, pc}
    879c:	e24cb004 	sub	fp, ip, #4, 0
    87a0:	e1a04000 	mov	r4, r0
    87a4:	ebffffe5 	bl	8740 <in_heap>
    87a8:	e3500000 	cmp	r0, #0, 0
    87ac:	0a000002 	beq	87bc <is_ptr+0x28>
    87b0:	e1a00004 	mov	r0, r4
    87b4:	ebfffea6 	bl	8254 <ck_ptr_is_alloced>
    87b8:	e89da830 	ldm	sp, {r4, r5, fp, sp, pc}
    87bc:	e3a00000 	mov	r0, #0, 0
    87c0:	e89da830 	ldm	sp, {r4, r5, fp, sp, pc}
    87c4:	6b72616d 	blvs	1ca0d80 <__bss_end__+0x1c95a88>
    87c8:	00000000 	andeq	r0, r0, r0
    87cc:	ff000008 			; <UNDEFINED> instruction: 0xff000008

000087d0 <mark>:
    87d0:	e1a0c00d 	mov	ip, sp
    87d4:	e92dd9f0 	push	{r4, r5, r6, r7, r8, fp, ip, lr, pc}
    87d8:	e24cb004 	sub	fp, ip, #4, 0
    87dc:	e24dd00c 	sub	sp, sp, #12, 0
    87e0:	e1500001 	cmp	r0, r1
    87e4:	2a00000d 	bcs	8820 <mark+0x50>
    87e8:	e1a04000 	mov	r4, r0
    87ec:	e1a06001 	mov	r6, r1
    87f0:	e3100003 	tst	r0, #3, 0
    87f4:	1a000011 	bne	8840 <mark+0x70>
    87f8:	e3110003 	tst	r1, #3, 0
    87fc:	0a00001f 	beq	8880 <mark+0xb0>
    8800:	e59f3114 	ldr	r3, [pc, #276]	; 891c <mark+0x14c>
    8804:	e58d3000 	str	r3, [sp]
    8808:	e3a03056 	mov	r3, #86, 0	; 0x56
    880c:	e59f210c 	ldr	r2, [pc, #268]	; 8920 <mark+0x150>
    8810:	e59f110c 	ldr	r1, [pc, #268]	; 8924 <mark+0x154>
    8814:	e59f010c 	ldr	r0, [pc, #268]	; 8928 <mark+0x158>
    8818:	eb000214 	bl	9070 <printk>
    881c:	eb0004a4 	bl	9ab4 <clean_reboot>
    8820:	e59f3104 	ldr	r3, [pc, #260]	; 892c <mark+0x15c>
    8824:	e58d3000 	str	r3, [sp]
    8828:	e3a03052 	mov	r3, #82, 0	; 0x52
    882c:	e59f20ec 	ldr	r2, [pc, #236]	; 8920 <mark+0x150>
    8830:	e59f10ec 	ldr	r1, [pc, #236]	; 8924 <mark+0x154>
    8834:	e59f00ec 	ldr	r0, [pc, #236]	; 8928 <mark+0x158>
    8838:	eb00020c 	bl	9070 <printk>
    883c:	eb00049c 	bl	9ab4 <clean_reboot>
    8840:	e59f30e8 	ldr	r3, [pc, #232]	; 8930 <mark+0x160>
    8844:	e58d3000 	str	r3, [sp]
    8848:	e3a03055 	mov	r3, #85, 0	; 0x55
    884c:	e59f20cc 	ldr	r2, [pc, #204]	; 8920 <mark+0x150>
    8850:	e59f10cc 	ldr	r1, [pc, #204]	; 8924 <mark+0x154>
    8854:	e59f00cc 	ldr	r0, [pc, #204]	; 8928 <mark+0x158>
    8858:	eb000204 	bl	9070 <printk>
    885c:	eb000494 	bl	9ab4 <clean_reboot>
    8860:	e3a03002 	mov	r3, #2, 0
    8864:	ea00001b 	b	88d8 <mark+0x108>
    8868:	e3a01002 	mov	r1, #2, 0
    886c:	e59f00c0 	ldr	r0, [pc, #192]	; 8934 <mark+0x164>
    8870:	eb0001fe 	bl	9070 <printk>
    8874:	e3580000 	cmp	r8, #0, 0
    8878:	0a00001c 	beq	88f0 <mark+0x120>
    887c:	e2844004 	add	r4, r4, #4, 0
    8880:	e1540006 	cmp	r4, r6
    8884:	8a000022 	bhi	8914 <mark+0x144>
    8888:	e5940000 	ldr	r0, [r4]
    888c:	ebffffc0 	bl	8794 <is_ptr>
    8890:	e2505000 	subs	r5, r0, #0, 0
    8894:	0afffff8 	beq	887c <mark+0xac>
    8898:	e28570b4 	add	r7, r5, #180, 0	; 0xb4
    889c:	e1d583b0 	ldrh	r8, [r5, #48]	; 0x30
    88a0:	e1a00005 	mov	r0, r5
    88a4:	ebfffe40 	bl	81ac <ck_hdr_start>
    88a8:	e1a01000 	mov	r1, r0
    88ac:	e58d7000 	str	r7, [sp]
    88b0:	e5943000 	ldr	r3, [r4]
    88b4:	e1a02004 	mov	r2, r4
    88b8:	e59f0078 	ldr	r0, [pc, #120]	; 8938 <mark+0x168>
    88bc:	eb0001eb 	bl	9070 <printk>
    88c0:	e3580001 	cmp	r8, #1, 0
    88c4:	8a00000f 	bhi	8908 <mark+0x138>
    88c8:	e5943000 	ldr	r3, [r4]
    88cc:	e1530007 	cmp	r3, r7
    88d0:	0affffe2 	beq	8860 <mark+0x90>
    88d4:	e3a03001 	mov	r3, #1, 0
    88d8:	e1c533b0 	strh	r3, [r5, #48]	; 0x30
    88dc:	e5943000 	ldr	r3, [r4]
    88e0:	e1530007 	cmp	r3, r7
    88e4:	0affffdf 	beq	8868 <mark+0x98>
    88e8:	e3a01001 	mov	r1, #1, 0
    88ec:	eaffffde 	b	886c <mark+0x9c>
    88f0:	e5951004 	ldr	r1, [r5, #4]
    88f4:	e28110b4 	add	r1, r1, #180, 0	; 0xb4
    88f8:	e0851001 	add	r1, r5, r1
    88fc:	e2850004 	add	r0, r5, #4, 0
    8900:	ebffffb2 	bl	87d0 <mark>
    8904:	eaffffdc 	b	887c <mark+0xac>
    8908:	e59f002c 	ldr	r0, [pc, #44]	; 893c <mark+0x16c>
    890c:	eb0001d7 	bl	9070 <printk>
    8910:	eaffffd9 	b	887c <mark+0xac>
    8914:	e24bd020 	sub	sp, fp, #32, 0
    8918:	e89da9f0 	ldm	sp, {r4, r5, r6, r7, r8, fp, sp, pc}
    891c:	0000a7a8 	andeq	sl, r0, r8, lsr #15
    8920:	0000aae8 	andeq	sl, r0, r8, ror #21
    8924:	0000a788 	andeq	sl, r0, r8, lsl #15
    8928:	0000a714 	andeq	sl, r0, r4, lsl r7
    892c:	0000a790 	muleq	r0, r0, r7
    8930:	0000a798 	muleq	r0, r8, r7
    8934:	0000a7e4 	andeq	sl, r0, r4, ror #15
    8938:	0000a7b8 			; <UNDEFINED> instruction: 0x0000a7b8
    893c:	0000a7f4 	strdeq	sl, [r0], -r4
    8940:	6b72616d 	blvs	1ca0efc <__bss_end__+0x1c95c04>
    8944:	6c6c615f 	stfvse	f6, [ip], #-380	; 0xfffffe84
    8948:	00000000 	andeq	r0, r0, r0
    894c:	ff00000c 			; <UNDEFINED> instruction: 0xff00000c

00008950 <mark_all>:
    8950:	e1a0c00d 	mov	ip, sp
    8954:	e92dd800 	push	{fp, ip, lr, pc}
    8958:	e24cb004 	sub	fp, ip, #4, 0
    895c:	e24dd040 	sub	sp, sp, #64, 0	; 0x40
    8960:	ebfffdfa 	bl	8150 <ck_first_hdr>
    8964:	e3500000 	cmp	r0, #0, 0
    8968:	0a000005 	beq	8984 <mark_all+0x34>
    896c:	e3a03000 	mov	r3, #0, 0
    8970:	e580302c 	str	r3, [r0, #44]	; 0x2c
    8974:	e5803028 	str	r3, [r0, #40]	; 0x28
    8978:	e1c033b0 	strh	r3, [r0, #48]	; 0x30
    897c:	ebfffdfe 	bl	817c <ck_next_hdr>
    8980:	eafffff7 	b	8964 <mark_all+0x14>
    8984:	e24b004c 	sub	r0, fp, #76, 0	; 0x4c
    8988:	eb000170 	bl	8f50 <dump_regs>
    898c:	e3a03000 	mov	r3, #0, 0
    8990:	e50b304c 	str	r3, [fp, #-76]	; 0xffffffb4
    8994:	e50b3048 	str	r3, [fp, #-72]	; 0xffffffb8
    8998:	e50b3044 	str	r3, [fp, #-68]	; 0xffffffbc
    899c:	e50b3040 	str	r3, [fp, #-64]	; 0xffffffc0
    89a0:	e24b1014 	sub	r1, fp, #20, 0
    89a4:	e24b004c 	sub	r0, fp, #76, 0	; 0x4c
    89a8:	ebffff88 	bl	87d0 <mark>
    89ac:	e3a02302 	mov	r2, #134217728	; 0x8000000
    89b0:	e51b1018 	ldr	r1, [fp, #-24]	; 0xffffffe8
    89b4:	e59f002c 	ldr	r0, [pc, #44]	; 89e8 <mark_all+0x98>
    89b8:	eb0001ac 	bl	9070 <printk>
    89bc:	e3a01302 	mov	r1, #134217728	; 0x8000000
    89c0:	e51b0018 	ldr	r0, [fp, #-24]	; 0xffffffe8
    89c4:	ebffff81 	bl	87d0 <mark>
    89c8:	e59f101c 	ldr	r1, [pc, #28]	; 89ec <mark_all+0x9c>
    89cc:	e59f001c 	ldr	r0, [pc, #28]	; 89f0 <mark_all+0xa0>
    89d0:	ebffff7e 	bl	87d0 <mark>
    89d4:	e59f1018 	ldr	r1, [pc, #24]	; 89f4 <mark_all+0xa4>
    89d8:	e59f0018 	ldr	r0, [pc, #24]	; 89f8 <mark_all+0xa8>
    89dc:	ebffff7b 	bl	87d0 <mark>
    89e0:	e24bd00c 	sub	sp, fp, #12, 0
    89e4:	e89da800 	ldm	sp, {fp, sp, pc}
    89e8:	0000a804 	andeq	sl, r0, r4, lsl #16
    89ec:	0000b2f8 	strdeq	fp, [r0], -r8
    89f0:	0000aed0 	ldrdeq	sl, [r0], -r0
    89f4:	0000aecc 	andeq	sl, r0, ip, asr #29
    89f8:	0000aeb8 			; <UNDEFINED> instruction: 0x0000aeb8
    89fc:	65657773 	strbvs	r7, [r5, #-1907]!	; 0xfffff88d
    8a00:	656c5f70 	strbvs	r5, [ip, #-3952]!	; 0xfffff090
    8a04:	00006b61 	andeq	r6, r0, r1, ror #22
    8a08:	ff00000c 			; <UNDEFINED> instruction: 0xff00000c

00008a0c <sweep_leak>:
    8a0c:	e1a0c00d 	mov	ip, sp
    8a10:	e92ddbf0 	push	{r4, r5, r6, r7, r8, r9, fp, ip, lr, pc}
    8a14:	e24cb004 	sub	fp, ip, #4, 0
    8a18:	e1a07000 	mov	r7, r0
    8a1c:	e59f00c4 	ldr	r0, [pc, #196]	; 8ae8 <sweep_leak+0xdc>
    8a20:	eb000192 	bl	9070 <printk>
    8a24:	e59f00c0 	ldr	r0, [pc, #192]	; 8aec <sweep_leak+0xe0>
    8a28:	eb000190 	bl	9070 <printk>
    8a2c:	ebffffc7 	bl	8950 <mark_all>
    8a30:	ebfffdc6 	bl	8150 <ck_first_hdr>
    8a34:	e1a04000 	mov	r4, r0
    8a38:	e3a08000 	mov	r8, #0, 0
    8a3c:	e1a06008 	mov	r6, r8
    8a40:	e1a05008 	mov	r5, r8
    8a44:	ea000007 	b	8a68 <sweep_leak+0x5c>
    8a48:	e2866001 	add	r6, r6, #1, 0
    8a4c:	e1a02004 	mov	r2, r4
    8a50:	e1a01005 	mov	r1, r5
    8a54:	e59f0094 	ldr	r0, [pc, #148]	; 8af0 <sweep_leak+0xe4>
    8a58:	eb000184 	bl	9070 <printk>
    8a5c:	e1a00004 	mov	r0, r4
    8a60:	ebfffdc5 	bl	817c <ck_next_hdr>
    8a64:	e1a04000 	mov	r4, r0
    8a68:	e3540000 	cmp	r4, #0, 0
    8a6c:	0a00000b 	beq	8aa0 <sweep_leak+0x94>
    8a70:	e2855001 	add	r5, r5, #1, 0
    8a74:	e1d433b0 	ldrh	r3, [r4, #48]	; 0x30
    8a78:	e3530000 	cmp	r3, #0, 0
    8a7c:	0afffff1 	beq	8a48 <sweep_leak+0x3c>
    8a80:	e3530001 	cmp	r3, #1, 0
    8a84:	1afffff4 	bne	8a5c <sweep_leak+0x50>
    8a88:	e2888001 	add	r8, r8, #1, 0
    8a8c:	e1a02004 	mov	r2, r4
    8a90:	e1a01005 	mov	r1, r5
    8a94:	e59f0058 	ldr	r0, [pc, #88]	; 8af4 <sweep_leak+0xe8>
    8a98:	eb000174 	bl	9070 <printk>
    8a9c:	eaffffee 	b	8a5c <sweep_leak+0x50>
    8aa0:	e1a01005 	mov	r1, r5
    8aa4:	e59f004c 	ldr	r0, [pc, #76]	; 8af8 <sweep_leak+0xec>
    8aa8:	eb000170 	bl	9070 <printk>
    8aac:	e1963008 	orrs	r3, r6, r8
    8ab0:	1a000007 	bne	8ad4 <sweep_leak+0xc8>
    8ab4:	e59f0040 	ldr	r0, [pc, #64]	; 8afc <sweep_leak+0xf0>
    8ab8:	eb00016c 	bl	9070 <printk>
    8abc:	e59f003c 	ldr	r0, [pc, #60]	; 8b00 <sweep_leak+0xf4>
    8ac0:	eb00016a 	bl	9070 <printk>
    8ac4:	e3570000 	cmp	r7, #0, 0
    8ac8:	10866008 	addne	r6, r6, r8
    8acc:	e1a00006 	mov	r0, r6
    8ad0:	e89dabf0 	ldm	sp, {r4, r5, r6, r7, r8, r9, fp, sp, pc}
    8ad4:	e1a02008 	mov	r2, r8
    8ad8:	e1a01006 	mov	r1, r6
    8adc:	e59f0020 	ldr	r0, [pc, #32]	; 8b04 <sweep_leak+0xf8>
    8ae0:	eb000162 	bl	9070 <printk>
    8ae4:	eafffff4 	b	8abc <sweep_leak+0xb0>
    8ae8:	0000a820 	andeq	sl, r0, r0, lsr #16
    8aec:	0000a85c 	andeq	sl, r0, ip, asr r8
    8af0:	0000a874 	andeq	sl, r0, r4, ror r8
    8af4:	0000a888 	andeq	sl, r0, r8, lsl #17
    8af8:	0000a8a0 	andeq	sl, r0, r0, lsr #17
    8afc:	0000a8c0 	andeq	sl, r0, r0, asr #17
    8b00:	0000a918 	andeq	sl, r0, r8, lsl r9
    8b04:	0000a8e8 	andeq	sl, r0, r8, ror #17
    8b08:	65657773 	strbvs	r7, [r5, #-1907]!	; 0xfffff88d
    8b0c:	72665f70 	rsbvc	r5, r6, #112, 30	; 0x1c0
    8b10:	00006565 	andeq	r6, r0, r5, ror #10
    8b14:	ff00000c 			; <UNDEFINED> instruction: 0xff00000c

00008b18 <sweep_free>:
    8b18:	e1a0c00d 	mov	ip, sp
    8b1c:	e92dd9f0 	push	{r4, r5, r6, r7, r8, fp, ip, lr, pc}
    8b20:	e24cb004 	sub	fp, ip, #4, 0
    8b24:	e24dd014 	sub	sp, sp, #20, 0
    8b28:	e59f00b0 	ldr	r0, [pc, #176]	; 8be0 <sweep_free+0xc8>
    8b2c:	eb00014f 	bl	9070 <printk>
    8b30:	e59f00ac 	ldr	r0, [pc, #172]	; 8be4 <sweep_free+0xcc>
    8b34:	eb00014d 	bl	9070 <printk>
    8b38:	ebffff84 	bl	8950 <mark_all>
    8b3c:	ebfffd83 	bl	8150 <ck_first_hdr>
    8b40:	e1a04000 	mov	r4, r0
    8b44:	e3a07000 	mov	r7, #0, 0
    8b48:	e1a08007 	mov	r8, r7
    8b4c:	e1a05007 	mov	r5, r7
    8b50:	ea000013 	b	8ba4 <sweep_free+0x8c>
    8b54:	e2888001 	add	r8, r8, #1, 0
    8b58:	e5943004 	ldr	r3, [r4, #4]
    8b5c:	e0877003 	add	r7, r7, r3
    8b60:	e28460b4 	add	r6, r4, #180, 0	; 0xb4
    8b64:	e59f307c 	ldr	r3, [pc, #124]	; 8be8 <sweep_free+0xd0>
    8b68:	e50b3030 	str	r3, [fp, #-48]	; 0xffffffd0
    8b6c:	e59f3078 	ldr	r3, [pc, #120]	; 8bec <sweep_free+0xd4>
    8b70:	e50b302c 	str	r3, [fp, #-44]	; 0xffffffd4
    8b74:	e59f3074 	ldr	r3, [pc, #116]	; 8bf0 <sweep_free+0xd8>
    8b78:	e50b3028 	str	r3, [fp, #-40]	; 0xffffffd8
    8b7c:	e24b3024 	sub	r3, fp, #36, 0	; 0x24
    8b80:	e913000e 	ldmdb	r3, {r1, r2, r3}
    8b84:	e1a00006 	mov	r0, r6
    8b88:	ebfffdcc 	bl	82c0 <ckfree>
    8b8c:	e1a01006 	mov	r1, r6
    8b90:	e59f005c 	ldr	r0, [pc, #92]	; 8bf4 <sweep_free+0xdc>
    8b94:	eb000135 	bl	9070 <printk>
    8b98:	e1a00004 	mov	r0, r4
    8b9c:	ebfffd76 	bl	817c <ck_next_hdr>
    8ba0:	e1a04000 	mov	r4, r0
    8ba4:	e3540000 	cmp	r4, #0, 0
    8ba8:	0a000004 	beq	8bc0 <sweep_free+0xa8>
    8bac:	e2855001 	add	r5, r5, #1, 0
    8bb0:	e1d433b0 	ldrh	r3, [r4, #48]	; 0x30
    8bb4:	e3530000 	cmp	r3, #0, 0
    8bb8:	1afffff6 	bne	8b98 <sweep_free+0x80>
    8bbc:	eaffffe4 	b	8b54 <sweep_free+0x3c>
    8bc0:	e1a03007 	mov	r3, r7
    8bc4:	e1a02008 	mov	r2, r8
    8bc8:	e1a01005 	mov	r1, r5
    8bcc:	e59f0024 	ldr	r0, [pc, #36]	; 8bf8 <sweep_free+0xe0>
    8bd0:	eb000126 	bl	9070 <printk>
    8bd4:	e1a00007 	mov	r0, r7
    8bd8:	e24bd020 	sub	sp, fp, #32, 0
    8bdc:	e89da9f0 	ldm	sp, {r4, r5, r6, r7, r8, fp, sp, pc}
    8be0:	0000a820 	andeq	sl, r0, r0, lsr #16
    8be4:	0000a954 	andeq	sl, r0, r4, asr r9
    8be8:	0000a788 	andeq	sl, r0, r8, lsl #15
    8bec:	0000aaf0 	strdeq	sl, [r0], -r0
    8bf0:	0000011e 	andeq	r0, r0, lr, lsl r1
    8bf4:	0000a964 	andeq	sl, r0, r4, ror #18
    8bf8:	0000a974 	andeq	sl, r0, r4, ror r9
    8bfc:	6b726273 	blvs	1ca15d0 <__bss_end__+0x1c962d8>
    8c00:	00000000 	andeq	r0, r0, r0
    8c04:	ff000008 			; <UNDEFINED> instruction: 0xff000008

00008c08 <sbrk>:
    8c08:	e1a0c00d 	mov	ip, sp
    8c0c:	e92dd830 	push	{r4, r5, fp, ip, lr, pc}
    8c10:	e24cb004 	sub	fp, ip, #4, 0
    8c14:	e24dd008 	sub	sp, sp, #8, 0
    8c18:	e2504000 	subs	r4, r0, #0, 0
    8c1c:	da000010 	ble	8c64 <sbrk+0x5c>
    8c20:	e59f3074 	ldr	r3, [pc, #116]	; 8c9c <sbrk+0x94>
    8c24:	e5933008 	ldr	r3, [r3, #8]
    8c28:	e3530000 	cmp	r3, #0, 0
    8c2c:	1a000014 	bne	8c84 <sbrk+0x7c>
    8c30:	e59f5064 	ldr	r5, [pc, #100]	; 8c9c <sbrk+0x94>
    8c34:	e3a00601 	mov	r0, #1048576	; 0x100000
    8c38:	e5850000 	str	r0, [r5]
    8c3c:	e3a03602 	mov	r3, #2097152	; 0x200000
    8c40:	e5853004 	str	r3, [r5, #4]
    8c44:	e1a01000 	mov	r1, r0
    8c48:	eb0004d5 	bl	9fa4 <kmalloc_init_set_start>
    8c4c:	e3a03001 	mov	r3, #1, 0
    8c50:	e5853008 	str	r3, [r5, #8]
    8c54:	e1a00004 	mov	r0, r4
    8c58:	eb000534 	bl	a130 <kmalloc>
    8c5c:	e24bd014 	sub	sp, fp, #20, 0
    8c60:	e89da830 	ldm	sp, {r4, r5, fp, sp, pc}
    8c64:	e59f3034 	ldr	r3, [pc, #52]	; 8ca0 <sbrk+0x98>
    8c68:	e58d3000 	str	r3, [sp]
    8c6c:	e3a03017 	mov	r3, #23, 0
    8c70:	e59f202c 	ldr	r2, [pc, #44]	; 8ca4 <sbrk+0x9c>
    8c74:	e59f102c 	ldr	r1, [pc, #44]	; 8ca8 <sbrk+0xa0>
    8c78:	e59f002c 	ldr	r0, [pc, #44]	; 8cac <sbrk+0xa4>
    8c7c:	eb0000fb 	bl	9070 <printk>
    8c80:	eb00038b 	bl	9ab4 <clean_reboot>
    8c84:	e3a03019 	mov	r3, #25, 0
    8c88:	e59f2014 	ldr	r2, [pc, #20]	; 8ca4 <sbrk+0x9c>
    8c8c:	e59f1014 	ldr	r1, [pc, #20]	; 8ca8 <sbrk+0xa0>
    8c90:	e59f0018 	ldr	r0, [pc, #24]	; 8cb0 <sbrk+0xa8>
    8c94:	eb0000f5 	bl	9070 <printk>
    8c98:	eb000385 	bl	9ab4 <clean_reboot>
    8c9c:	0000aee8 	andeq	sl, r0, r8, ror #29
    8ca0:	0000a9a8 	andeq	sl, r0, r8, lsr #19
    8ca4:	0000aafc 	strdeq	sl, [r0], -ip
    8ca8:	0000a788 	andeq	sl, r0, r8, lsl #15
    8cac:	0000a714 	andeq	sl, r0, r4, lsl r7
    8cb0:	0000a9b8 			; <UNDEFINED> instruction: 0x0000a9b8
    8cb4:	7a646572 	bvc	1922284 <__bss_end__+0x1916f8c>
    8cb8:	5f656e6f 	svcpl	0x00656e6f
    8cbc:	6f727265 	svcvs	0x00727265
    8cc0:	00007372 	andeq	r7, r0, r2, ror r3
    8cc4:	ff000010 			; <UNDEFINED> instruction: 0xff000010

00008cc8 <redzone_errors>:
    8cc8:	e1a0c00d 	mov	ip, sp
    8ccc:	e92dd800 	push	{fp, ip, lr, pc}
    8cd0:	e24cb004 	sub	fp, ip, #4, 0
    8cd4:	e1a0c000 	mov	ip, r0
    8cd8:	e3a03000 	mov	r3, #0, 0
    8cdc:	e1a00003 	mov	r0, r3
    8ce0:	ea000001 	b	8cec <redzone_errors+0x24>
    8ce4:	e2800001 	add	r0, r0, #1, 0
    8ce8:	e2833001 	add	r3, r3, #1, 0
    8cec:	e1530001 	cmp	r3, r1
    8cf0:	a89da800 	ldmge	sp, {fp, sp, pc}
    8cf4:	e7dc2003 	ldrb	r2, [ip, r3]
    8cf8:	e35200fe 	cmp	r2, #254, 0	; 0xfe
    8cfc:	1afffff8 	bne	8ce4 <redzone_errors+0x1c>
    8d00:	eafffff8 	b	8ce8 <redzone_errors+0x20>
    8d04:	685f6b63 	ldmdavs	pc, {r0, r1, r5, r6, r8, r9, fp, sp, lr}^	; <UNPREDICTABLE>
    8d08:	5f706165 	svcpl	0x00706165
    8d0c:	6f727265 	svcvs	0x00727265
    8d10:	00007372 	andeq	r7, r0, r2, ror r3
    8d14:	ff000010 			; <UNDEFINED> instruction: 0xff000010

00008d18 <ck_heap_errors>:
    8d18:	e1a0c00d 	mov	ip, sp
    8d1c:	e92dd8f0 	push	{r4, r5, r6, r7, fp, ip, lr, pc}
    8d20:	e24cb004 	sub	fp, ip, #4, 0
    8d24:	ebfffd09 	bl	8150 <ck_first_hdr>
    8d28:	e1a04000 	mov	r4, r0
    8d2c:	e3a06000 	mov	r6, #0, 0
    8d30:	ea00000a 	b	8d60 <ck_heap_errors+0x48>
    8d34:	e5943024 	ldr	r3, [r4, #36]	; 0x24
    8d38:	e5942020 	ldr	r2, [r4, #32]
    8d3c:	e594101c 	ldr	r1, [r4, #28]
    8d40:	e59f0098 	ldr	r0, [pc, #152]	; 8de0 <ck_heap_errors+0xc8>
    8d44:	eb0000c9 	bl	9070 <printk>
    8d48:	e59f0094 	ldr	r0, [pc, #148]	; 8de4 <ck_heap_errors+0xcc>
    8d4c:	eb0000c7 	bl	9070 <printk>
    8d50:	e0866005 	add	r6, r6, r5
    8d54:	e1a00004 	mov	r0, r4
    8d58:	ebfffd07 	bl	817c <ck_next_hdr>
    8d5c:	e1a04000 	mov	r4, r0
    8d60:	e3540000 	cmp	r4, #0, 0
    8d64:	0a00001b 	beq	8dd8 <ck_heap_errors+0xc0>
    8d68:	e3a01080 	mov	r1, #128, 0	; 0x80
    8d6c:	e2840032 	add	r0, r4, #50, 0	; 0x32
    8d70:	ebffffd4 	bl	8cc8 <redzone_errors>
    8d74:	e1a05000 	mov	r5, r0
    8d78:	e28470b4 	add	r7, r4, #180, 0	; 0xb4
    8d7c:	e5940004 	ldr	r0, [r4, #4]
    8d80:	e28000b4 	add	r0, r0, #180, 0	; 0xb4
    8d84:	e3a01080 	mov	r1, #128, 0	; 0x80
    8d88:	e0840000 	add	r0, r4, r0
    8d8c:	ebffffcd 	bl	8cc8 <redzone_errors>
    8d90:	e0855000 	add	r5, r5, r0
    8d94:	e5943018 	ldr	r3, [r4, #24]
    8d98:	e5942014 	ldr	r2, [r4, #20]
    8d9c:	e5941010 	ldr	r1, [r4, #16]
    8da0:	e59f0038 	ldr	r0, [pc, #56]	; 8de0 <ck_heap_errors+0xc8>
    8da4:	eb0000b1 	bl	9070 <printk>
    8da8:	e59f0038 	ldr	r0, [pc, #56]	; 8de8 <ck_heap_errors+0xd0>
    8dac:	eb0000af 	bl	9070 <printk>
    8db0:	e5943008 	ldr	r3, [r4, #8]
    8db4:	e353000c 	cmp	r3, #12, 0
    8db8:	1affffe4 	bne	8d50 <ck_heap_errors+0x38>
    8dbc:	e5941004 	ldr	r1, [r4, #4]
    8dc0:	e1a00007 	mov	r0, r7
    8dc4:	ebffffbf 	bl	8cc8 <redzone_errors>
    8dc8:	e0855000 	add	r5, r5, r0
    8dcc:	e3500000 	cmp	r0, #0, 0
    8dd0:	0affffde 	beq	8d50 <ck_heap_errors+0x38>
    8dd4:	eaffffd6 	b	8d34 <ck_heap_errors+0x1c>
    8dd8:	e1a00006 	mov	r0, r6
    8ddc:	e89da8f0 	ldm	sp, {r4, r5, r6, r7, fp, sp, pc}
    8de0:	0000a674 	andeq	sl, r0, r4, ror r6
    8de4:	0000aa08 	andeq	sl, r0, r8, lsl #20
    8de8:	0000a9d8 	ldrdeq	sl, [r0], -r8
    8dec:	665f6b63 	ldrbvs	r6, [pc], -r3, ror #22
    8df0:	5f646e69 	svcpl	0x00646e69
    8df4:	6b61656c 	blvs	18623ac <__bss_end__+0x18570b4>
    8df8:	00000073 	andeq	r0, r0, r3, ror r0
    8dfc:	ff000010 			; <UNDEFINED> instruction: 0xff000010

00008e00 <ck_find_leaks>:
    8e00:	e1a0c00d 	mov	ip, sp
    8e04:	e92dd800 	push	{fp, ip, lr, pc}
    8e08:	e24cb004 	sub	fp, ip, #4, 0
    8e0c:	ebfffefe 	bl	8a0c <sweep_leak>
    8e10:	e89da800 	ldm	sp, {fp, sp, pc}
    8e14:	63656863 	cmnvs	r5, #6488064	; 0x630000
    8e18:	6f6e5f6b 	svcvs	0x006e5f6b
    8e1c:	61656c5f 	cmnvs	r5, pc, asr ip
    8e20:	0000006b 	andeq	r0, r0, fp, rrx
    8e24:	ff000010 			; <UNDEFINED> instruction: 0xff000010

00008e28 <check_no_leak>:
    8e28:	e1a0c00d 	mov	ip, sp
    8e2c:	e92dd800 	push	{fp, ip, lr, pc}
    8e30:	e24cb004 	sub	fp, ip, #4, 0
    8e34:	e3a00001 	mov	r0, #1, 0
    8e38:	ebfffff0 	bl	8e00 <ck_find_leaks>
    8e3c:	e3500000 	cmp	r0, #0, 0
    8e40:	1a000002 	bne	8e50 <check_no_leak+0x28>
    8e44:	e59f001c 	ldr	r0, [pc, #28]	; 8e68 <check_no_leak+0x40>
    8e48:	eb000088 	bl	9070 <printk>
    8e4c:	e89da800 	ldm	sp, {fp, sp, pc}
    8e50:	e3a030f9 	mov	r3, #249, 0	; 0xf9
    8e54:	e59f2010 	ldr	r2, [pc, #16]	; 8e6c <check_no_leak+0x44>
    8e58:	e59f1010 	ldr	r1, [pc, #16]	; 8e70 <check_no_leak+0x48>
    8e5c:	e59f0010 	ldr	r0, [pc, #16]	; 8e74 <check_no_leak+0x4c>
    8e60:	eb000082 	bl	9070 <printk>
    8e64:	eb000312 	bl	9ab4 <clean_reboot>
    8e68:	0000aa4c 	andeq	sl, r0, ip, asr #20
    8e6c:	0000ab04 	andeq	sl, r0, r4, lsl #22
    8e70:	0000a788 	andeq	sl, r0, r8, lsl #15
    8e74:	0000aa20 	andeq	sl, r0, r0, lsr #20
    8e78:	63656863 	cmnvs	r5, #6488064	; 0x630000
    8e7c:	68735f6b 	ldmdavs	r3!, {r0, r1, r3, r5, r6, r8, r9, sl, fp, ip, lr}^
    8e80:	646c756f 	strbtvs	r7, [ip], #-1391	; 0xfffffa91
    8e84:	61656c5f 	cmnvs	r5, pc, asr ip
    8e88:	0000006b 	andeq	r0, r0, fp, rrx
    8e8c:	ff000014 			; <UNDEFINED> instruction: 0xff000014

00008e90 <check_should_leak>:
    8e90:	e1a0c00d 	mov	ip, sp
    8e94:	e92dd830 	push	{r4, r5, fp, ip, lr, pc}
    8e98:	e24cb004 	sub	fp, ip, #4, 0
    8e9c:	e3a00001 	mov	r0, #1, 0
    8ea0:	ebffffd6 	bl	8e00 <ck_find_leaks>
    8ea4:	e2504000 	subs	r4, r0, #0, 0
    8ea8:	0a000004 	beq	8ec0 <check_should_leak+0x30>
    8eac:	e1a01004 	mov	r1, r4
    8eb0:	e59f0020 	ldr	r0, [pc, #32]	; 8ed8 <check_should_leak+0x48>
    8eb4:	eb00006d 	bl	9070 <printk>
    8eb8:	e1a00004 	mov	r0, r4
    8ebc:	e89da830 	ldm	sp, {r4, r5, fp, sp, pc}
    8ec0:	e3a03f42 	mov	r3, #264	; 0x108
    8ec4:	e59f2010 	ldr	r2, [pc, #16]	; 8edc <check_should_leak+0x4c>
    8ec8:	e59f1010 	ldr	r1, [pc, #16]	; 8ee0 <check_should_leak+0x50>
    8ecc:	e59f0010 	ldr	r0, [pc, #16]	; 8ee4 <check_should_leak+0x54>
    8ed0:	eb000066 	bl	9070 <printk>
    8ed4:	eb0002f6 	bl	9ab4 <clean_reboot>
    8ed8:	0000aa94 	muleq	r0, r4, sl
    8edc:	0000ab14 	andeq	sl, r0, r4, lsl fp
    8ee0:	0000a788 	andeq	sl, r0, r8, lsl #15
    8ee4:	0000aa6c 	andeq	sl, r0, ip, ror #20
    8ee8:	675f6b63 	ldrbvs	r6, [pc, -r3, ror #22]
    8eec:	00000063 	andeq	r0, r0, r3, rrx
    8ef0:	ff000008 			; <UNDEFINED> instruction: 0xff000008

00008ef4 <ck_gc>:
    8ef4:	e1a0c00d 	mov	ip, sp
    8ef8:	e92dd800 	push	{fp, ip, lr, pc}
    8efc:	e24cb004 	sub	fp, ip, #4, 0
    8f00:	ebfffe92 	bl	8950 <mark_all>
    8f04:	ebffff03 	bl	8b18 <sweep_free>
    8f08:	e89da800 	ldm	sp, {fp, sp, pc}
    8f0c:	6c706d69 	ldclvs	13, cr6, [r0], #-420	; 0xfffffe5c
    8f10:	6e656d65 	cdpvs	13, 6, cr6, cr5, cr5, {3}
    8f14:	68745f74 	ldmdavs	r4!, {r2, r4, r5, r6, r8, r9, sl, fp, ip, lr}^
    8f18:	00007369 	andeq	r7, r0, r9, ror #6
    8f1c:	ff000010 			; <UNDEFINED> instruction: 0xff000010

00008f20 <implement_this>:
    8f20:	e1a0c00d 	mov	ip, sp
    8f24:	e92dd800 	push	{fp, ip, lr, pc}
    8f28:	e24cb004 	sub	fp, ip, #4, 0
    8f2c:	e3a03f4d 	mov	r3, #308	; 0x134
    8f30:	e59f200c 	ldr	r2, [pc, #12]	; 8f44 <implement_this+0x24>
    8f34:	e59f100c 	ldr	r1, [pc, #12]	; 8f48 <implement_this+0x28>
    8f38:	e59f000c 	ldr	r0, [pc, #12]	; 8f4c <implement_this+0x2c>
    8f3c:	eb00004b 	bl	9070 <printk>
    8f40:	eb0002db 	bl	9ab4 <clean_reboot>
    8f44:	0000ab28 	andeq	sl, r0, r8, lsr #22
    8f48:	0000a788 	andeq	sl, r0, r8, lsl #15
    8f4c:	0000aab8 			; <UNDEFINED> instruction: 0x0000aab8

00008f50 <dump_regs>:
    8f50:	e8a0ffff 	stmia	r0!, {r0, r1, r2, r3, r4, r5, r6, r7, r8, r9, sl, fp, ip, sp, lr, pc}
    8f54:	e12fff1e 	bx	lr

00008f58 <backtrace>:
    8f58:	e92d41f0 	push	{r4, r5, r6, r7, r8, lr}
    8f5c:	e1a0400b 	mov	r4, fp
    8f60:	e3540000 	cmp	r4, #0, 0
    8f64:	0a000016 	beq	8fc4 <backtrace+0x6c>
    8f68:	e3a07000 	mov	r7, #0, 0
    8f6c:	e59f605c 	ldr	r6, [pc, #92]	; 8fd0 <backtrace+0x78>
    8f70:	e59f505c 	ldr	r5, [pc, #92]	; 8fd4 <backtrace+0x7c>
    8f74:	ea000002 	b	8f84 <backtrace+0x2c>
    8f78:	e2877001 	add	r7, r7, #1, 0
    8f7c:	e3570020 	cmp	r7, #32, 0
    8f80:	0a00000f 	beq	8fc4 <backtrace+0x6c>
    8f84:	e5940000 	ldr	r0, [r4]
    8f88:	e1a01007 	mov	r1, r7
    8f8c:	e5103010 	ldr	r3, [r0, #-16]
    8f90:	e240200c 	sub	r2, r0, #12, 0
    8f94:	e31304ff 	tst	r3, #-16777216	; 0xff000000
    8f98:	e2400010 	sub	r0, r0, #16, 0
    8f9c:	e3c334ff 	bic	r3, r3, #-16777216	; 0xff000000
    8fa0:	10403003 	subne	r3, r0, r3
    8fa4:	01a03006 	moveq	r3, r6
    8fa8:	e1a00005 	mov	r0, r5
    8fac:	eb00002f 	bl	9070 <printk>
    8fb0:	e514400c 	ldr	r4, [r4, #-12]
    8fb4:	e3540000 	cmp	r4, #0, 0
    8fb8:	1affffee 	bne	8f78 <backtrace+0x20>
    8fbc:	e1a00007 	mov	r0, r7
    8fc0:	e8bd81f0 	pop	{r4, r5, r6, r7, r8, pc}
    8fc4:	e3e07000 	mvn	r7, #0, 0
    8fc8:	e1a00007 	mov	r0, r7
    8fcc:	e8bd81f0 	pop	{r4, r5, r6, r7, r8, pc}
    8fd0:	0000ab38 	andeq	sl, r0, r8, lsr fp
    8fd4:	0000ab3c 	andeq	sl, r0, ip, lsr fp

00008fd8 <name_of>:
    8fd8:	e5103004 	ldr	r3, [r0, #-4]
    8fdc:	e2400004 	sub	r0, r0, #4, 0
    8fe0:	e31304ff 	tst	r3, #-16777216	; 0xff000000
    8fe4:	13c334ff 	bicne	r3, r3, #-16777216	; 0xff000000
    8fe8:	10400003 	subne	r0, r0, r3
    8fec:	059f0000 	ldreq	r0, [pc]	; 8ff4 <name_of+0x1c>
    8ff0:	e12fff1e 	bx	lr
    8ff4:	0000ab38 	andeq	sl, r0, r8, lsr fp

00008ff8 <memset>:
    8ff8:	e92d4010 	push	{r4, lr}
    8ffc:	e0804002 	add	r4, r0, r2
    9000:	e1500004 	cmp	r0, r4
    9004:	28bd8010 	popcs	{r4, pc}
    9008:	e2423001 	sub	r3, r2, #1, 0
    900c:	e3530002 	cmp	r3, #2, 0
    9010:	e6ef1071 	uxtb	r1, r1
    9014:	e1a03000 	mov	r3, r0
    9018:	9a00000b 	bls	904c <memset+0x54>
    901c:	e181e401 	orr	lr, r1, r1, lsl #8
    9020:	e18ee801 	orr	lr, lr, r1, lsl #16
    9024:	e3c2c003 	bic	ip, r2, #3, 0
    9028:	e18eec01 	orr	lr, lr, r1, lsl #24
    902c:	e08cc000 	add	ip, ip, r0
    9030:	e483e004 	str	lr, [r3], #4
    9034:	e153000c 	cmp	r3, ip
    9038:	1afffffc 	bne	9030 <memset+0x38>
    903c:	e3c23003 	bic	r3, r2, #3, 0
    9040:	e1520003 	cmp	r2, r3
    9044:	e0803003 	add	r3, r0, r3
    9048:	08bd8010 	popeq	{r4, pc}
    904c:	e1a02003 	mov	r2, r3
    9050:	e4c21001 	strb	r1, [r2], #1
    9054:	e1540002 	cmp	r4, r2
    9058:	98bd8010 	popls	{r4, pc}
    905c:	e2832002 	add	r2, r3, #2, 0
    9060:	e1540002 	cmp	r4, r2
    9064:	e5c31001 	strb	r1, [r3, #1]
    9068:	85c31002 	strbhi	r1, [r3, #2]
    906c:	e8bd8010 	pop	{r4, pc}

00009070 <printk>:
    9070:	e92d000f 	push	{r0, r1, r2, r3}
    9074:	e92d4030 	push	{r4, r5, lr}
    9078:	e59f5040 	ldr	r5, [pc, #64]	; 90c0 <printk+0x50>
    907c:	e24dd00c 	sub	sp, sp, #12, 0
    9080:	e28d301c 	add	r3, sp, #28, 0
    9084:	e3a01b01 	mov	r1, #1024	; 0x400
    9088:	e59d2018 	ldr	r2, [sp, #24]
    908c:	e1a00005 	mov	r0, r5
    9090:	e58d3004 	str	r3, [sp, #4]
    9094:	eb0000fb 	bl	9488 <va_printk>
    9098:	e1a04000 	mov	r4, r0
    909c:	e59f3020 	ldr	r3, [pc, #32]	; 90c4 <printk+0x54>
    90a0:	e1a00005 	mov	r0, r5
    90a4:	e5933000 	ldr	r3, [r3]
    90a8:	e12fff33 	blx	r3
    90ac:	e1a00004 	mov	r0, r4
    90b0:	e28dd00c 	add	sp, sp, #12, 0
    90b4:	e8bd4030 	pop	{r4, r5, lr}
    90b8:	e28dd010 	add	sp, sp, #16, 0
    90bc:	e12fff1e 	bx	lr
    90c0:	0000aef4 	strdeq	sl, [r0], -r4
    90c4:	0000aeb8 			; <UNDEFINED> instruction: 0x0000aeb8

000090c8 <internal_putk>:
    90c8:	e92d4070 	push	{r4, r5, r6, lr}
    90cc:	e1a04000 	mov	r4, r0
    90d0:	e5d00000 	ldrb	r0, [r0]
    90d4:	e3500000 	cmp	r0, #0, 0
    90d8:	0a000005 	beq	90f4 <internal_putk+0x2c>
    90dc:	e59f5018 	ldr	r5, [pc, #24]	; 90fc <internal_putk+0x34>
    90e0:	e5953000 	ldr	r3, [r5]
    90e4:	e12fff33 	blx	r3
    90e8:	e5f40001 	ldrb	r0, [r4, #1]!
    90ec:	e3500000 	cmp	r0, #0, 0
    90f0:	1afffffa 	bne	90e0 <internal_putk+0x18>
    90f4:	e3a00001 	mov	r0, #1, 0
    90f8:	e8bd8070 	pop	{r4, r5, r6, pc}
    90fc:	0000aec8 	andeq	sl, r0, r8, asr #29

00009100 <emit.constprop.0>:
    9100:	e92d41f0 	push	{r4, r5, r6, r7, r8, lr}
    9104:	e3530080 	cmp	r3, #128, 0	; 0x80
    9108:	e1a0c000 	mov	ip, r0
    910c:	e24dd048 	sub	sp, sp, #72, 0	; 0x48
    9110:	e1a00001 	mov	r0, r1
    9114:	ca000069 	bgt	92c0 <emit.constprop.0+0x1c0>
    9118:	e24c1002 	sub	r1, ip, #2, 0
    911c:	e1a0c002 	mov	ip, r2
    9120:	e351000e 	cmp	r1, #14, 0
    9124:	979ff101 	ldrls	pc, [pc, r1, lsl #2]
    9128:	ea0000a7 	b	93cc <emit.constprop.0+0x2cc>
    912c:	00009298 	muleq	r0, r8, r2
    9130:	000093cc 	andeq	r9, r0, ip, asr #7
    9134:	000093cc 	andeq	r9, r0, ip, asr #7
    9138:	000093cc 	andeq	r9, r0, ip, asr #7
    913c:	000093cc 	andeq	r9, r0, ip, asr #7
    9140:	000093cc 	andeq	r9, r0, ip, asr #7
    9144:	00009374 	andeq	r9, r0, r4, ror r3
    9148:	000093cc 	andeq	r9, r0, ip, asr #7
    914c:	00009314 	andeq	r9, r0, r4, lsl r3
    9150:	000093cc 	andeq	r9, r0, ip, asr #7
    9154:	000093cc 	andeq	r9, r0, ip, asr #7
    9158:	000093cc 	andeq	r9, r0, ip, asr #7
    915c:	000093cc 	andeq	r9, r0, ip, asr #7
    9160:	000093cc 	andeq	r9, r0, ip, asr #7
    9164:	0000916c 	andeq	r9, r0, ip, ror #2
    9168:	e3a0307f 	mov	r3, #127, 0	; 0x7f
    916c:	e28d2008 	add	r2, sp, #8, 0
    9170:	e1a04002 	mov	r4, r2
    9174:	e59f1288 	ldr	r1, [pc, #648]	; 9404 <emit.constprop.0+0x304>
    9178:	e20ce00f 	and	lr, ip, #15, 0
    917c:	e7d1e00e 	ldrb	lr, [r1, lr]
    9180:	e35c000f 	cmp	ip, #15, 0
    9184:	e4c4e001 	strb	lr, [r4], #1
    9188:	e1a0c22c 	lsr	ip, ip, #4
    918c:	8afffff9 	bhi	9178 <emit.constprop.0+0x78>
    9190:	e3a0c078 	mov	ip, #120, 0	; 0x78
    9194:	e1a0e004 	mov	lr, r4
    9198:	e3a01030 	mov	r1, #48, 0	; 0x30
    919c:	e4cec002 	strb	ip, [lr], #2
    91a0:	e5c41001 	strb	r1, [r4, #1]
    91a4:	e04e1002 	sub	r1, lr, r2
    91a8:	e1510003 	cmp	r1, r3
    91ac:	aa000083 	bge	93c0 <emit.constprop.0+0x2c0>
    91b0:	e1510003 	cmp	r1, r3
    91b4:	a3a0c001 	movge	ip, #1, 0
    91b8:	b3a0c000 	movlt	ip, #0, 0
    91bc:	e2434001 	sub	r4, r3, #1, 0
    91c0:	e0444001 	sub	r4, r4, r1
    91c4:	b0436001 	sublt	r6, r3, r1
    91c8:	a3a06001 	movge	r6, #1, 0
    91cc:	e3540002 	cmp	r4, #2, 0
    91d0:	938cc001 	orrls	ip, ip, #1, 0
    91d4:	e35c0000 	cmp	ip, #0, 0
    91d8:	1a000075 	bne	93b4 <emit.constprop.0+0x2b4>
    91dc:	e1a0c00e 	mov	ip, lr
    91e0:	e3c65003 	bic	r5, r6, #3, 0
    91e4:	e59f721c 	ldr	r7, [pc, #540]	; 9408 <emit.constprop.0+0x308>
    91e8:	e085500e 	add	r5, r5, lr
    91ec:	e48c7004 	str	r7, [ip], #4
    91f0:	e15c0005 	cmp	ip, r5
    91f4:	1afffffc 	bne	91ec <emit.constprop.0+0xec>
    91f8:	e3c6c003 	bic	ip, r6, #3, 0
    91fc:	e156000c 	cmp	r6, ip
    9200:	e08e500c 	add	r5, lr, ip
    9204:	e08cc001 	add	ip, ip, r1
    9208:	0a000008 	beq	9230 <emit.constprop.0+0x130>
    920c:	e3a07020 	mov	r7, #32, 0
    9210:	e28c8001 	add	r8, ip, #1, 0
    9214:	e1580003 	cmp	r8, r3
    9218:	e5c57000 	strb	r7, [r5]
    921c:	aa000003 	bge	9230 <emit.constprop.0+0x130>
    9220:	e28cc002 	add	ip, ip, #2, 0
    9224:	e15c0003 	cmp	ip, r3
    9228:	e5c57001 	strb	r7, [r5, #1]
    922c:	b5c57002 	strblt	r7, [r5, #2]
    9230:	e1510003 	cmp	r1, r3
    9234:	a3a04000 	movge	r4, #0, 0
    9238:	e08e6006 	add	r6, lr, r6
    923c:	e0461002 	sub	r1, r6, r2
    9240:	e08ee004 	add	lr, lr, r4
    9244:	e3a03000 	mov	r3, #0, 0
    9248:	e351007f 	cmp	r1, #127, 0	; 0x7f
    924c:	c241407f 	subgt	r4, r1, #127, 0	; 0x7f
    9250:	c0822004 	addgt	r2, r2, r4
    9254:	e152000e 	cmp	r2, lr
    9258:	e5c63000 	strb	r3, [r6]
    925c:	8a00004f 	bhi	93a0 <emit.constprop.0+0x2a0>
    9260:	e28ee001 	add	lr, lr, #1, 0
    9264:	e1a0300e 	mov	r3, lr
    9268:	e240c001 	sub	ip, r0, #1, 0
    926c:	e5734001 	ldrb	r4, [r3, #-1]!
    9270:	e1530002 	cmp	r3, r2
    9274:	e5ec4001 	strb	r4, [ip, #1]!
    9278:	1afffffb 	bne	926c <emit.constprop.0+0x16c>
    927c:	e04ee003 	sub	lr, lr, r3
    9280:	e3a03000 	mov	r3, #0, 0
    9284:	e080e00e 	add	lr, r0, lr
    9288:	e5ce3000 	strb	r3, [lr]
    928c:	e28dd048 	add	sp, sp, #72, 0	; 0x48
    9290:	e8bd81f0 	pop	{r4, r5, r6, r7, r8, pc}
    9294:	e3a0307f 	mov	r3, #127, 0	; 0x7f
    9298:	e28d2008 	add	r2, sp, #8, 0
    929c:	e1a0e002 	mov	lr, r2
    92a0:	e59f1164 	ldr	r1, [pc, #356]	; 940c <emit.constprop.0+0x30c>
    92a4:	e20c4001 	and	r4, ip, #1, 0
    92a8:	e7d14004 	ldrb	r4, [r1, r4]
    92ac:	e35c0001 	cmp	ip, #1, 0
    92b0:	e4ce4001 	strb	r4, [lr], #1
    92b4:	e1a0c0ac 	lsr	ip, ip, #1
    92b8:	8afffff9 	bhi	92a4 <emit.constprop.0+0x1a4>
    92bc:	eaffffb8 	b	91a4 <emit.constprop.0+0xa4>
    92c0:	e24c3002 	sub	r3, ip, #2, 0
    92c4:	e1a0c002 	mov	ip, r2
    92c8:	e353000e 	cmp	r3, #14, 0
    92cc:	979ff103 	ldrls	pc, [pc, r3, lsl #2]
    92d0:	ea00003d 	b	93cc <emit.constprop.0+0x2cc>
    92d4:	00009294 	muleq	r0, r4, r2
    92d8:	000093cc 	andeq	r9, r0, ip, asr #7
    92dc:	000093cc 	andeq	r9, r0, ip, asr #7
    92e0:	000093cc 	andeq	r9, r0, ip, asr #7
    92e4:	000093cc 	andeq	r9, r0, ip, asr #7
    92e8:	000093cc 	andeq	r9, r0, ip, asr #7
    92ec:	000093ec 	andeq	r9, r0, ip, ror #7
    92f0:	000093cc 	andeq	r9, r0, ip, asr #7
    92f4:	00009310 	andeq	r9, r0, r0, lsl r3
    92f8:	000093cc 	andeq	r9, r0, ip, asr #7
    92fc:	000093cc 	andeq	r9, r0, ip, asr #7
    9300:	000093cc 	andeq	r9, r0, ip, asr #7
    9304:	000093cc 	andeq	r9, r0, ip, asr #7
    9308:	000093cc 	andeq	r9, r0, ip, asr #7
    930c:	00009168 	andeq	r9, r0, r8, ror #2
    9310:	e3a0307f 	mov	r3, #127, 0	; 0x7f
    9314:	e59d1060 	ldr	r1, [sp, #96]	; 0x60
    9318:	e59f70f0 	ldr	r7, [pc, #240]	; 9410 <emit.constprop.0+0x310>
    931c:	e0118fa2 	ands	r8, r1, r2, lsr #31
    9320:	1262c000 	rsbne	ip, r2, #0, 0
    9324:	e28d2008 	add	r2, sp, #8, 0
    9328:	13a08001 	movne	r8, #1, 0
    932c:	e1a0e002 	mov	lr, r2
    9330:	e59f60dc 	ldr	r6, [pc, #220]	; 9414 <emit.constprop.0+0x314>
    9334:	e1a0500c 	mov	r5, ip
    9338:	e0814c96 	umull	r4, r1, r6, ip
    933c:	e1a011a1 	lsr	r1, r1, #3
    9340:	e0814101 	add	r4, r1, r1, lsl #2
    9344:	e04cc084 	sub	ip, ip, r4, lsl #1
    9348:	e7d7400c 	ldrb	r4, [r7, ip]
    934c:	e3550009 	cmp	r5, #9, 0
    9350:	e1a0c001 	mov	ip, r1
    9354:	e1a0100e 	mov	r1, lr
    9358:	e4ce4001 	strb	r4, [lr], #1
    935c:	8afffff4 	bhi	9334 <emit.constprop.0+0x234>
    9360:	e3580000 	cmp	r8, #0, 0
    9364:	13a0c02d 	movne	ip, #45, 0	; 0x2d
    9368:	15cec000 	strbne	ip, [lr]
    936c:	1281e002 	addne	lr, r1, #2, 0
    9370:	eaffff8b 	b	91a4 <emit.constprop.0+0xa4>
    9374:	e3530001 	cmp	r3, #1, 0
    9378:	e5cd2008 	strb	r2, [sp, #8]
    937c:	c3a01001 	movgt	r1, #1, 0
    9380:	c28de009 	addgt	lr, sp, #9, 0
    9384:	c28d2008 	addgt	r2, sp, #8, 0
    9388:	caffff88 	bgt	91b0 <emit.constprop.0+0xb0>
    938c:	e3a03000 	mov	r3, #0, 0
    9390:	e28de008 	add	lr, sp, #8, 0
    9394:	e1a0200e 	mov	r2, lr
    9398:	e5cd3009 	strb	r3, [sp, #9]
    939c:	eaffffaf 	b	9260 <emit.constprop.0+0x160>
    93a0:	e1a0e000 	mov	lr, r0
    93a4:	e3a03000 	mov	r3, #0, 0
    93a8:	e5ce3000 	strb	r3, [lr]
    93ac:	e28dd048 	add	sp, sp, #72, 0	; 0x48
    93b0:	e8bd81f0 	pop	{r4, r5, r6, r7, r8, pc}
    93b4:	e1a0c001 	mov	ip, r1
    93b8:	e1a0500e 	mov	r5, lr
    93bc:	eaffff92 	b	920c <emit.constprop.0+0x10c>
    93c0:	e1a0600e 	mov	r6, lr
    93c4:	e24ee001 	sub	lr, lr, #1, 0
    93c8:	eaffff9d 	b	9244 <emit.constprop.0+0x144>
    93cc:	e59f2044 	ldr	r2, [pc, #68]	; 9418 <emit.constprop.0+0x318>
    93d0:	e3a03079 	mov	r3, #121, 0	; 0x79
    93d4:	e59f1040 	ldr	r1, [pc, #64]	; 941c <emit.constprop.0+0x31c>
    93d8:	e58d2000 	str	r2, [sp]
    93dc:	e59f003c 	ldr	r0, [pc, #60]	; 9420 <emit.constprop.0+0x320>
    93e0:	e59f203c 	ldr	r2, [pc, #60]	; 9424 <emit.constprop.0+0x324>
    93e4:	ebffff21 	bl	9070 <printk>
    93e8:	eb0001b1 	bl	9ab4 <clean_reboot>
    93ec:	e5cd2008 	strb	r2, [sp, #8]
    93f0:	e3a0307f 	mov	r3, #127, 0	; 0x7f
    93f4:	e3a01001 	mov	r1, #1, 0
    93f8:	e28de009 	add	lr, sp, #9, 0
    93fc:	e28d2008 	add	r2, sp, #8, 0
    9400:	eaffff6a 	b	91b0 <emit.constprop.0+0xb0>
    9404:	0000ab60 	andeq	sl, r0, r0, ror #22
    9408:	20202020 	eorcs	r2, r0, r0, lsr #32
    940c:	0000ab74 	andeq	sl, r0, r4, ror fp
    9410:	0000ab78 	andeq	sl, r0, r8, ror fp
    9414:	cccccccd 	stclgt	12, cr12, [ip], {205}	; 0xcd
    9418:	0000a9b4 			; <UNDEFINED> instruction: 0x0000a9b4
    941c:	0000ab4c 	andeq	sl, r0, ip, asr #22
    9420:	0000a714 	andeq	sl, r0, r4, lsl r7
    9424:	0000ac8c 	andeq	sl, r0, ip, lsl #25

00009428 <rpi_set_output>:
    9428:	e3500000 	cmp	r0, #0, 0
    942c:	0a000005 	beq	9448 <rpi_set_output+0x20>
    9430:	e59f3038 	ldr	r3, [pc, #56]	; 9470 <rpi_set_output+0x48>
    9434:	e3510000 	cmp	r1, #0, 0
    9438:	e5830000 	str	r0, [r3]
    943c:	159f3030 	ldrne	r3, [pc, #48]	; 9474 <rpi_set_output+0x4c>
    9440:	15831000 	strne	r1, [r3]
    9444:	e12fff1e 	bx	lr
    9448:	e52de004 	push	{lr}		; (str lr, [sp, #-4]!)
    944c:	e59f2024 	ldr	r2, [pc, #36]	; 9478 <rpi_set_output+0x50>
    9450:	e24dd00c 	sub	sp, sp, #12, 0
    9454:	e3a03020 	mov	r3, #32, 0
    9458:	e59f101c 	ldr	r1, [pc, #28]	; 947c <rpi_set_output+0x54>
    945c:	e58d2000 	str	r2, [sp]
    9460:	e59f0018 	ldr	r0, [pc, #24]	; 9480 <rpi_set_output+0x58>
    9464:	e59f2018 	ldr	r2, [pc, #24]	; 9484 <rpi_set_output+0x5c>
    9468:	ebffff00 	bl	9070 <printk>
    946c:	eb000190 	bl	9ab4 <clean_reboot>
    9470:	0000aec8 	andeq	sl, r0, r8, asr #29
    9474:	0000aeb8 			; <UNDEFINED> instruction: 0x0000aeb8
    9478:	0000ab84 	andeq	sl, r0, r4, lsl #23
    947c:	0000ab4c 	andeq	sl, r0, ip, asr #22
    9480:	0000a714 	andeq	sl, r0, r4, lsl r7
    9484:	0000ac94 	muleq	r0, r4, ip

00009488 <va_printk>:
    9488:	e92d4ff0 	push	{r4, r5, r6, r7, r8, r9, sl, fp, lr}
    948c:	e1a0b000 	mov	fp, r0
    9490:	e3a00000 	mov	r0, #0, 0
    9494:	e5cb0000 	strb	r0, [fp]
    9498:	e5d2c000 	ldrb	ip, [r2]
    949c:	e2417001 	sub	r7, r1, #1, 0
    94a0:	e08b7007 	add	r7, fp, r7
    94a4:	e15c0000 	cmp	ip, r0
    94a8:	115b0007 	cmpne	fp, r7
    94ac:	e24ddf47 	sub	sp, sp, #284	; 0x11c
    94b0:	e58d2010 	str	r2, [sp, #16]
    94b4:	2a000159 	bcs	9a20 <va_printk+0x598>
    94b8:	e1a06002 	mov	r6, r2
    94bc:	e1a08003 	mov	r8, r3
    94c0:	e1a0400b 	mov	r4, fp
    94c4:	e59fa5a4 	ldr	sl, [pc, #1444]	; 9a70 <va_printk+0x5e8>
    94c8:	e58db00c 	str	fp, [sp, #12]
    94cc:	ea000005 	b	94e8 <va_printk+0x60>
    94d0:	e4c4c001 	strb	ip, [r4], #1
    94d4:	e2866001 	add	r6, r6, #1, 0
    94d8:	e5d6c000 	ldrb	ip, [r6]
    94dc:	e35c0000 	cmp	ip, #0, 0
    94e0:	11570004 	cmpne	r7, r4
    94e4:	9a00002f 	bls	95a8 <va_printk+0x120>
    94e8:	e35c0025 	cmp	ip, #37, 0	; 0x25
    94ec:	1afffff7 	bne	94d0 <va_printk+0x48>
    94f0:	e5d62001 	ldrb	r2, [r6, #1]
    94f4:	e3520025 	cmp	r2, #37, 0	; 0x25
    94f8:	04c4c001 	strbeq	ip, [r4], #1
    94fc:	02866002 	addeq	r6, r6, #2, 0
    9500:	0afffff4 	beq	94d8 <va_printk+0x50>
    9504:	e2423030 	sub	r3, r2, #48, 0	; 0x30
    9508:	e3530009 	cmp	r3, #9, 0
    950c:	e3a05000 	mov	r5, #0, 0
    9510:	e2866001 	add	r6, r6, #1, 0
    9514:	8a000008 	bhi	953c <va_printk+0xb4>
    9518:	e0855105 	add	r5, r5, r5, lsl #2
    951c:	e0825085 	add	r5, r2, r5, lsl #1
    9520:	e5f62001 	ldrb	r2, [r6, #1]!
    9524:	e2455030 	sub	r5, r5, #48, 0	; 0x30
    9528:	e2423030 	sub	r3, r2, #48, 0	; 0x30
    952c:	e3530009 	cmp	r3, #9, 0
    9530:	9afffff8 	bls	9518 <va_printk+0x90>
    9534:	e355001f 	cmp	r5, #31, 0
    9538:	8a00013a 	bhi	9a28 <va_printk+0x5a0>
    953c:	e2423062 	sub	r3, r2, #98, 0	; 0x62
    9540:	e3530016 	cmp	r3, #22, 0
    9544:	979ff103 	ldrls	pc, [pc, r3, lsl #2]
    9548:	ea00011b 	b	99bc <va_printk+0x534>
    954c:	00009800 	andeq	r9, r0, r0, lsl #16
    9550:	000096fc 	strdeq	r9, [r0], -ip
    9554:	000096f4 	strdeq	r9, [r0], -r4
    9558:	000099bc 			; <UNDEFINED> instruction: 0x000099bc
    955c:	000099f8 	strdeq	r9, [r0], -r8
    9560:	000099bc 			; <UNDEFINED> instruction: 0x000099bc
    9564:	000099bc 			; <UNDEFINED> instruction: 0x000099bc
    9568:	000099bc 			; <UNDEFINED> instruction: 0x000099bc
    956c:	000099bc 			; <UNDEFINED> instruction: 0x000099bc
    9570:	000099bc 			; <UNDEFINED> instruction: 0x000099bc
    9574:	00009604 	andeq	r9, r0, r4, lsl #12
    9578:	000099bc 			; <UNDEFINED> instruction: 0x000099bc
    957c:	000099bc 			; <UNDEFINED> instruction: 0x000099bc
    9580:	000099bc 			; <UNDEFINED> instruction: 0x000099bc
    9584:	000095c0 	andeq	r9, r0, r0, asr #11
    9588:	000099bc 			; <UNDEFINED> instruction: 0x000099bc
    958c:	000099bc 			; <UNDEFINED> instruction: 0x000099bc
    9590:	000098f8 	strdeq	r9, [r0], -r8
    9594:	000099bc 			; <UNDEFINED> instruction: 0x000099bc
    9598:	000096d0 	ldrdeq	r9, [r0], -r0
    959c:	000099bc 			; <UNDEFINED> instruction: 0x000099bc
    95a0:	000099bc 			; <UNDEFINED> instruction: 0x000099bc
    95a4:	000095c0 	andeq	r9, r0, r0, asr #11
    95a8:	e59db00c 	ldr	fp, [sp, #12]
    95ac:	e3a03000 	mov	r3, #0, 0
    95b0:	e4c43001 	strb	r3, [r4], #1
    95b4:	e044000b 	sub	r0, r4, fp
    95b8:	e28ddf47 	add	sp, sp, #284	; 0x11c
    95bc:	e8bd8ff0 	pop	{r4, r5, r6, r7, r8, r9, sl, fp, pc}
    95c0:	e3a01000 	mov	r1, #0, 0
    95c4:	e1a03005 	mov	r3, r5
    95c8:	e4982004 	ldr	r2, [r8], #4
    95cc:	e3a00010 	mov	r0, #16, 0
    95d0:	e58d1000 	str	r1, [sp]
    95d4:	e28d1018 	add	r1, sp, #24, 0
    95d8:	ebfffec8 	bl	9100 <emit.constprop.0>
    95dc:	e1a05000 	mov	r5, r0
    95e0:	e2866001 	add	r6, r6, #1, 0
    95e4:	e2455001 	sub	r5, r5, #1, 0
    95e8:	e5f53001 	ldrb	r3, [r5, #1]!
    95ec:	e3530000 	cmp	r3, #0, 0
    95f0:	0affffb8 	beq	94d8 <va_printk+0x50>
    95f4:	e4c43001 	strb	r3, [r4], #1
    95f8:	e1570004 	cmp	r7, r4
    95fc:	8afffff9 	bhi	95e8 <va_printk+0x160>
    9600:	eaffffb4 	b	94d8 <va_printk+0x50>
    9604:	e3a02003 	mov	r2, #3, 0
    9608:	e1a00006 	mov	r0, r6
    960c:	e59f1460 	ldr	r1, [pc, #1120]	; 9a74 <va_printk+0x5ec>
    9610:	eb0003da 	bl	a580 <strncmp>
    9614:	e3500000 	cmp	r0, #0, 0
    9618:	0a000005 	beq	9634 <va_printk+0x1ac>
    961c:	e3a02003 	mov	r2, #3, 0
    9620:	e1a00006 	mov	r0, r6
    9624:	e59f144c 	ldr	r1, [pc, #1100]	; 9a78 <va_printk+0x5f0>
    9628:	eb0003d4 	bl	a580 <strncmp>
    962c:	e3500000 	cmp	r0, #0, 0
    9630:	1a00010b 	bne	9a64 <va_printk+0x5dc>
    9634:	e2888007 	add	r8, r8, #7, 0
    9638:	e3c88007 	bic	r8, r8, #7, 0
    963c:	e598b004 	ldr	fp, [r8, #4]
    9640:	e4989008 	ldr	r9, [r8], #8
    9644:	e1a0100b 	mov	r1, fp
    9648:	e59f042c 	ldr	r0, [pc, #1068]	; 9a7c <va_printk+0x5f4>
    964c:	ebfffe87 	bl	9070 <printk>
    9650:	e1a01009 	mov	r1, r9
    9654:	e59f0424 	ldr	r0, [pc, #1060]	; 9a80 <va_printk+0x5f8>
    9658:	ebfffe84 	bl	9070 <printk>
    965c:	e3a02003 	mov	r2, #3, 0
    9660:	e1a00006 	mov	r0, r6
    9664:	e59f1408 	ldr	r1, [pc, #1032]	; 9a74 <va_printk+0x5ec>
    9668:	eb0003c4 	bl	a580 <strncmp>
    966c:	e2503000 	subs	r3, r0, #0, 0
    9670:	e1a02003 	mov	r2, r3
    9674:	e2863002 	add	r3, r6, #2, 0
    9678:	e58d3014 	str	r3, [sp, #20]
    967c:	1a00009f 	bne	9900 <va_printk+0x478>
    9680:	e1a06002 	mov	r6, r2
    9684:	e1a03005 	mov	r3, r5
    9688:	e58d2000 	str	r2, [sp]
    968c:	e28d1018 	add	r1, sp, #24, 0
    9690:	e1a0200b 	mov	r2, fp
    9694:	e3a00010 	mov	r0, #16, 0
    9698:	ebfffe98 	bl	9100 <emit.constprop.0>
    969c:	e1a0c000 	mov	ip, r0
    96a0:	e1a03005 	mov	r3, r5
    96a4:	e58d6000 	str	r6, [sp]
    96a8:	e28d1098 	add	r1, sp, #152, 0	; 0x98
    96ac:	e1a02009 	mov	r2, r9
    96b0:	e3a00010 	mov	r0, #16, 0
    96b4:	e1a0500c 	mov	r5, ip
    96b8:	ebfffe90 	bl	9100 <emit.constprop.0>
    96bc:	e28d0018 	add	r0, sp, #24, 0
    96c0:	e28d109a 	add	r1, sp, #154, 0	; 0x9a
    96c4:	e59d6014 	ldr	r6, [sp, #20]
    96c8:	eb00038a 	bl	a4f8 <strcat>
    96cc:	eaffffc3 	b	95e0 <va_printk+0x158>
    96d0:	e3a01000 	mov	r1, #0, 0
    96d4:	e1a03005 	mov	r3, r5
    96d8:	e4982004 	ldr	r2, [r8], #4
    96dc:	e3a0000a 	mov	r0, #10, 0
    96e0:	e58d1000 	str	r1, [sp]
    96e4:	e28d1018 	add	r1, sp, #24, 0
    96e8:	ebfffe84 	bl	9100 <emit.constprop.0>
    96ec:	e1a05000 	mov	r5, r0
    96f0:	eaffffba 	b	95e0 <va_printk+0x158>
    96f4:	e3a01001 	mov	r1, #1, 0
    96f8:	eafffff5 	b	96d4 <va_printk+0x24c>
    96fc:	e4983004 	ldr	r3, [r8], #4
    9700:	e3550001 	cmp	r5, #1, 0
    9704:	e5cd3098 	strb	r3, [sp, #152]	; 0x98
    9708:	9a0000a6 	bls	99a8 <va_printk+0x520>
    970c:	e2453002 	sub	r3, r5, #2, 0
    9710:	e3530002 	cmp	r3, #2, 0
    9714:	e2451001 	sub	r1, r5, #1, 0
    9718:	9a0000bc 	bls	9a10 <va_printk+0x588>
    971c:	e59f0360 	ldr	r0, [pc, #864]	; 9a84 <va_printk+0x5fc>
    9720:	e1a02121 	lsr	r2, r1, #2
    9724:	e3520001 	cmp	r2, #1, 0
    9728:	e58d0099 	str	r0, [sp, #153]	; 0x99
    972c:	0a00000e 	beq	976c <va_printk+0x2e4>
    9730:	e3520002 	cmp	r2, #2, 0
    9734:	e58d009d 	str	r0, [sp, #157]	; 0x9d
    9738:	0a00000b 	beq	976c <va_printk+0x2e4>
    973c:	e3520003 	cmp	r2, #3, 0
    9740:	e58d00a1 	str	r0, [sp, #161]	; 0xa1
    9744:	0a000008 	beq	976c <va_printk+0x2e4>
    9748:	e3520004 	cmp	r2, #4, 0
    974c:	e58d00a5 	str	r0, [sp, #165]	; 0xa5
    9750:	0a000005 	beq	976c <va_printk+0x2e4>
    9754:	e3520005 	cmp	r2, #5, 0
    9758:	e58d00a9 	str	r0, [sp, #169]	; 0xa9
    975c:	0a000002 	beq	976c <va_printk+0x2e4>
    9760:	e3520007 	cmp	r2, #7, 0
    9764:	e58d00ad 	str	r0, [sp, #173]	; 0xad
    9768:	058d00b1 	streq	r0, [sp, #177]	; 0xb1
    976c:	e3c12003 	bic	r2, r1, #3, 0
    9770:	e1510002 	cmp	r1, r2
    9774:	e28dc099 	add	ip, sp, #153, 0	; 0x99
    9778:	e08c0002 	add	r0, ip, r2
    977c:	e2822001 	add	r2, r2, #1, 0
    9780:	0a000008 	beq	97a8 <va_printk+0x320>
    9784:	e3a0e020 	mov	lr, #32, 0
    9788:	e2829001 	add	r9, r2, #1, 0
    978c:	e1550009 	cmp	r5, r9
    9790:	e5c0e000 	strb	lr, [r0]
    9794:	da000003 	ble	97a8 <va_printk+0x320>
    9798:	e2822002 	add	r2, r2, #2, 0
    979c:	e1550002 	cmp	r5, r2
    97a0:	e5c0e001 	strb	lr, [r0, #1]
    97a4:	c5c0e002 	strbgt	lr, [r0, #2]
    97a8:	e3a0e000 	mov	lr, #0, 0
    97ac:	e28d0098 	add	r0, sp, #152, 0	; 0x98
    97b0:	e08c2001 	add	r2, ip, r1
    97b4:	e0422000 	sub	r2, r2, r0
    97b8:	e352007f 	cmp	r2, #127, 0	; 0x7f
    97bc:	c242207f 	subgt	r2, r2, #127, 0	; 0x7f
    97c0:	e08c3003 	add	r3, ip, r3
    97c4:	c0800002 	addgt	r0, r0, r2
    97c8:	e1530000 	cmp	r3, r0
    97cc:	e7cce001 	strb	lr, [ip, r1]
    97d0:	3a00006c 	bcc	9988 <va_printk+0x500>
    97d4:	e283c001 	add	ip, r3, #1, 0
    97d8:	e1a0300c 	mov	r3, ip
    97dc:	e28d5018 	add	r5, sp, #24, 0
    97e0:	e2452001 	sub	r2, r5, #1, 0
    97e4:	e5731001 	ldrb	r1, [r3, #-1]!
    97e8:	e1500003 	cmp	r0, r3
    97ec:	e5e21001 	strb	r1, [r2, #1]!
    97f0:	1afffffb 	bne	97e4 <va_printk+0x35c>
    97f4:	e04c3000 	sub	r3, ip, r0
    97f8:	e0853003 	add	r3, r5, r3
    97fc:	ea00003a 	b	98ec <va_printk+0x464>
    9800:	e28d1098 	add	r1, sp, #152, 0	; 0x98
    9804:	e1a03001 	mov	r3, r1
    9808:	e4980004 	ldr	r0, [r8], #4
    980c:	e200c001 	and	ip, r0, #1, 0
    9810:	e7dac00c 	ldrb	ip, [sl, ip]
    9814:	e3500001 	cmp	r0, #1, 0
    9818:	e1a02003 	mov	r2, r3
    981c:	e1a000a0 	lsr	r0, r0, #1
    9820:	e4c3c001 	strb	ip, [r3], #1
    9824:	8afffff8 	bhi	980c <va_printk+0x384>
    9828:	e0430001 	sub	r0, r3, r1
    982c:	e1550000 	cmp	r5, r0
    9830:	da000057 	ble	9994 <va_printk+0x50c>
    9834:	e045c000 	sub	ip, r5, r0
    9838:	e24ce001 	sub	lr, ip, #1, 0
    983c:	e35e0002 	cmp	lr, #2, 0
    9840:	e1a0e003 	mov	lr, r3
    9844:	9a00000a 	bls	9874 <va_printk+0x3ec>
    9848:	e3cc9003 	bic	r9, ip, #3, 0
    984c:	e0899003 	add	r9, r9, r3
    9850:	e59fb22c 	ldr	fp, [pc, #556]	; 9a84 <va_printk+0x5fc>
    9854:	e48eb004 	str	fp, [lr], #4
    9858:	e15e0009 	cmp	lr, r9
    985c:	1afffffb 	bne	9850 <va_printk+0x3c8>
    9860:	e3cce003 	bic	lr, ip, #3, 0
    9864:	e15e000c 	cmp	lr, ip
    9868:	e080000e 	add	r0, r0, lr
    986c:	e083e00e 	add	lr, r3, lr
    9870:	0a000008 	beq	9898 <va_printk+0x410>
    9874:	e3a09020 	mov	r9, #32, 0
    9878:	e280b001 	add	fp, r0, #1, 0
    987c:	e155000b 	cmp	r5, fp
    9880:	e5ce9000 	strb	r9, [lr]
    9884:	da000003 	ble	9898 <va_printk+0x410>
    9888:	e2800002 	add	r0, r0, #2, 0
    988c:	e1550000 	cmp	r5, r0
    9890:	e5ce9001 	strb	r9, [lr, #1]
    9894:	c5ce9002 	strbgt	r9, [lr, #2]
    9898:	e3a0e000 	mov	lr, #0, 0
    989c:	e083000c 	add	r0, r3, ip
    98a0:	e0400001 	sub	r0, r0, r1
    98a4:	e350007f 	cmp	r0, #127, 0	; 0x7f
    98a8:	e082200c 	add	r2, r2, ip
    98ac:	e7c3e00c 	strb	lr, [r3, ip]
    98b0:	da000001 	ble	98bc <va_printk+0x434>
    98b4:	e240007f 	sub	r0, r0, #127, 0	; 0x7f
    98b8:	e0811000 	add	r1, r1, r0
    98bc:	e1510002 	cmp	r1, r2
    98c0:	8a000030 	bhi	9988 <va_printk+0x500>
    98c4:	e2822001 	add	r2, r2, #1, 0
    98c8:	e1a03002 	mov	r3, r2
    98cc:	e28d5018 	add	r5, sp, #24, 0
    98d0:	e245c001 	sub	ip, r5, #1, 0
    98d4:	e5730001 	ldrb	r0, [r3, #-1]!
    98d8:	e1530001 	cmp	r3, r1
    98dc:	e5ec0001 	strb	r0, [ip, #1]!
    98e0:	1afffffb 	bne	98d4 <va_printk+0x44c>
    98e4:	e0423003 	sub	r3, r2, r3
    98e8:	e0853003 	add	r3, r5, r3
    98ec:	e3a02000 	mov	r2, #0, 0
    98f0:	e5c32000 	strb	r2, [r3]
    98f4:	eaffff39 	b	95e0 <va_printk+0x158>
    98f8:	e4985004 	ldr	r5, [r8], #4
    98fc:	eaffff37 	b	95e0 <va_printk+0x158>
    9900:	e3a02003 	mov	r2, #3, 0
    9904:	e1a00006 	mov	r0, r6
    9908:	e59f1168 	ldr	r1, [pc, #360]	; 9a78 <va_printk+0x5f0>
    990c:	eb00031b 	bl	a580 <strncmp>
    9910:	e2503000 	subs	r3, r0, #0, 0
    9914:	1a00004b 	bne	9a48 <va_printk+0x5c0>
    9918:	e1a06003 	mov	r6, r3
    991c:	e1a0200b 	mov	r2, fp
    9920:	e58d3000 	str	r3, [sp]
    9924:	e28d1018 	add	r1, sp, #24, 0
    9928:	e1a03005 	mov	r3, r5
    992c:	e3a0000a 	mov	r0, #10, 0
    9930:	ebfffdf2 	bl	9100 <emit.constprop.0>
    9934:	e1a0c000 	mov	ip, r0
    9938:	e1a03005 	mov	r3, r5
    993c:	e1a02009 	mov	r2, r9
    9940:	e28d1098 	add	r1, sp, #152, 0	; 0x98
    9944:	e3a0000a 	mov	r0, #10, 0
    9948:	e58d6000 	str	r6, [sp]
    994c:	e1a0500c 	mov	r5, ip
    9950:	ebfffdea 	bl	9100 <emit.constprop.0>
    9954:	e59f112c 	ldr	r1, [pc, #300]	; 9a88 <va_printk+0x600>
    9958:	e28d0018 	add	r0, sp, #24, 0
    995c:	eb0002f0 	bl	a524 <strcmp>
    9960:	e3500000 	cmp	r0, #0, 0
    9964:	e28d1098 	add	r1, sp, #152, 0	; 0x98
    9968:	e28d0018 	add	r0, sp, #24, 0
    996c:	1a000002 	bne	997c <va_printk+0x4f4>
    9970:	eb0002fc 	bl	a568 <strcpy>
    9974:	e59d6014 	ldr	r6, [sp, #20]
    9978:	eaffff18 	b	95e0 <va_printk+0x158>
    997c:	eb0002dd 	bl	a4f8 <strcat>
    9980:	e59d6014 	ldr	r6, [sp, #20]
    9984:	eaffff15 	b	95e0 <va_printk+0x158>
    9988:	e28d5018 	add	r5, sp, #24, 0
    998c:	e1a03005 	mov	r3, r5
    9990:	eaffffd5 	b	98ec <va_printk+0x464>
    9994:	e3a0c000 	mov	ip, #0, 0
    9998:	e350007f 	cmp	r0, #127, 0	; 0x7f
    999c:	e5c3c000 	strb	ip, [r3]
    99a0:	caffffc3 	bgt	98b4 <va_printk+0x42c>
    99a4:	eaffffc6 	b	98c4 <va_printk+0x43c>
    99a8:	e3a02000 	mov	r2, #0, 0
    99ac:	e28d3098 	add	r3, sp, #152, 0	; 0x98
    99b0:	e1a00003 	mov	r0, r3
    99b4:	e5cd2099 	strb	r2, [sp, #153]	; 0x99
    99b8:	eaffff85 	b	97d4 <va_printk+0x34c>
    99bc:	e3a03000 	mov	r3, #0, 0
    99c0:	e1a01002 	mov	r1, r2
    99c4:	e5c63001 	strb	r3, [r6, #1]
    99c8:	e59f00bc 	ldr	r0, [pc, #188]	; 9a8c <va_printk+0x604>
    99cc:	ebfffda7 	bl	9070 <printk>
    99d0:	e59f30b8 	ldr	r3, [pc, #184]	; 9a90 <va_printk+0x608>
    99d4:	e59d0010 	ldr	r0, [sp, #16]
    99d8:	e5933000 	ldr	r3, [r3]
    99dc:	e12fff33 	blx	r3
    99e0:	e3a030e2 	mov	r3, #226, 0	; 0xe2
    99e4:	e59f20a8 	ldr	r2, [pc, #168]	; 9a94 <va_printk+0x60c>
    99e8:	e59f10a8 	ldr	r1, [pc, #168]	; 9a98 <va_printk+0x610>
    99ec:	e59f00a8 	ldr	r0, [pc, #168]	; 9a9c <va_printk+0x614>
    99f0:	ebfffd9e 	bl	9070 <printk>
    99f4:	eb00002e 	bl	9ab4 <clean_reboot>
    99f8:	e3a030be 	mov	r3, #190, 0	; 0xbe
    99fc:	e59f2090 	ldr	r2, [pc, #144]	; 9a94 <va_printk+0x60c>
    9a00:	e59f1090 	ldr	r1, [pc, #144]	; 9a98 <va_printk+0x610>
    9a04:	e59f0094 	ldr	r0, [pc, #148]	; 9aa0 <va_printk+0x618>
    9a08:	ebfffd98 	bl	9070 <printk>
    9a0c:	eb000028 	bl	9ab4 <clean_reboot>
    9a10:	e28dc099 	add	ip, sp, #153, 0	; 0x99
    9a14:	e1a0000c 	mov	r0, ip
    9a18:	e3a02001 	mov	r2, #1, 0
    9a1c:	eaffff58 	b	9784 <va_printk+0x2fc>
    9a20:	e1a0400b 	mov	r4, fp
    9a24:	eafffee0 	b	95ac <va_printk+0x124>
    9a28:	e3a03098 	mov	r3, #152, 0	; 0x98
    9a2c:	e59f2070 	ldr	r2, [pc, #112]	; 9aa4 <va_printk+0x61c>
    9a30:	e59f1060 	ldr	r1, [pc, #96]	; 9a98 <va_printk+0x610>
    9a34:	e58d2000 	str	r2, [sp]
    9a38:	e59f0068 	ldr	r0, [pc, #104]	; 9aa8 <va_printk+0x620>
    9a3c:	e59f2050 	ldr	r2, [pc, #80]	; 9a94 <va_printk+0x60c>
    9a40:	ebfffd8a 	bl	9070 <printk>
    9a44:	eb00001a 	bl	9ab4 <clean_reboot>
    9a48:	e3a030b6 	mov	r3, #182, 0	; 0xb6
    9a4c:	e59f2040 	ldr	r2, [pc, #64]	; 9a94 <va_printk+0x60c>
    9a50:	e59f1040 	ldr	r1, [pc, #64]	; 9a98 <va_printk+0x610>
    9a54:	e59f0050 	ldr	r0, [pc, #80]	; 9aac <va_printk+0x624>
    9a58:	e58d6000 	str	r6, [sp]
    9a5c:	ebfffd83 	bl	9070 <printk>
    9a60:	eb000013 	bl	9ab4 <clean_reboot>
    9a64:	e3a0309f 	mov	r3, #159, 0	; 0x9f
    9a68:	e59f2040 	ldr	r2, [pc, #64]	; 9ab0 <va_printk+0x628>
    9a6c:	eaffffef 	b	9a30 <va_printk+0x5a8>
    9a70:	0000ab74 	andeq	sl, r0, r4, ror fp
    9a74:	0000ab98 	muleq	r0, r8, fp
    9a78:	0000abac 	andeq	sl, r0, ip, lsr #23
    9a7c:	0000ab9c 	muleq	r0, ip, fp
    9a80:	0000aba4 	andeq	sl, r0, r4, lsr #23
    9a84:	20202020 	eorcs	r2, r0, r0, lsr #32
    9a88:	0000a9b4 			; <UNDEFINED> instruction: 0x0000a9b4
    9a8c:	0000ac3c 	andeq	sl, r0, ip, lsr ip
    9a90:	0000aeb8 			; <UNDEFINED> instruction: 0x0000aeb8
    9a94:	0000aca4 	andeq	sl, r0, r4, lsr #25
    9a98:	0000ab4c 	andeq	sl, r0, ip, asr #22
    9a9c:	0000ac6c 	andeq	sl, r0, ip, ror #24
    9aa0:	0000ac14 	andeq	sl, r0, r4, lsl ip
    9aa4:	0000ab8c 	andeq	sl, r0, ip, lsl #23
    9aa8:	0000a714 	andeq	sl, r0, r4, lsl r7
    9aac:	0000abec 	andeq	sl, r0, ip, ror #23
    9ab0:	0000abb0 			; <UNDEFINED> instruction: 0x0000abb0

00009ab4 <clean_reboot>:
    9ab4:	e59f301c 	ldr	r3, [pc, #28]	; 9ad8 <clean_reboot+0x24>
    9ab8:	e92d4010 	push	{r4, lr}
    9abc:	e5933000 	ldr	r3, [r3]
    9ac0:	e59f0014 	ldr	r0, [pc, #20]	; 9adc <clean_reboot+0x28>
    9ac4:	e12fff33 	blx	r3
    9ac8:	eb00011b 	bl	9f3c <uart_flush_tx>
    9acc:	e3a0000a 	mov	r0, #10, 0
    9ad0:	eb000082 	bl	9ce0 <delay_ms>
    9ad4:	eb00004b 	bl	9c08 <rpi_reboot>
    9ad8:	0000aeb8 			; <UNDEFINED> instruction: 0x0000aeb8
    9adc:	0000acb0 			; <UNDEFINED> instruction: 0x0000acb0

00009ae0 <_cstart>:
    9ae0:	e92d4070 	push	{r4, r5, r6, lr}
    9ae4:	eb00003b 	bl	9bd8 <custom_loader>
    9ae8:	e59f20e0 	ldr	r2, [pc, #224]	; 9bd0 <_cstart+0xf0>
    9aec:	e59fc0e0 	ldr	ip, [pc, #224]	; 9bd4 <_cstart+0xf4>
    9af0:	e152000c 	cmp	r2, ip
    9af4:	2a00002e 	bcs	9bb4 <_cstart+0xd4>
    9af8:	e24c1001 	sub	r1, ip, #1, 0
    9afc:	e0411002 	sub	r1, r1, r2
    9b00:	e3510017 	cmp	r1, #23, 0
    9b04:	e1a03122 	lsr	r3, r2, #2
    9b08:	e1a01121 	lsr	r1, r1, #2
    9b0c:	e2811001 	add	r1, r1, #1, 0
    9b10:	e2033001 	and	r3, r3, #1, 0
    9b14:	9a00002b 	bls	9bc8 <_cstart+0xe8>
    9b18:	e3530000 	cmp	r3, #0, 0
    9b1c:	11a00002 	movne	r0, r2
    9b20:	13a0e000 	movne	lr, #0, 0
    9b24:	e3a04000 	mov	r4, #0, 0
    9b28:	e3a05000 	mov	r5, #0, 0
    9b2c:	e0411003 	sub	r1, r1, r3
    9b30:	01a00002 	moveq	r0, r2
    9b34:	e0823103 	add	r3, r2, r3, lsl #2
    9b38:	e1a020a1 	lsr	r2, r1, #1
    9b3c:	1480e004 	strne	lr, [r0], #4
    9b40:	e0832182 	add	r2, r3, r2, lsl #3
    9b44:	e0c340f8 	strd	r4, [r3], #8
    9b48:	e1520003 	cmp	r2, r3
    9b4c:	1afffffc 	bne	9b44 <_cstart+0x64>
    9b50:	e3c13001 	bic	r3, r1, #1, 0
    9b54:	e1510003 	cmp	r1, r3
    9b58:	e0803103 	add	r3, r0, r3, lsl #2
    9b5c:	0a000014 	beq	9bb4 <_cstart+0xd4>
    9b60:	e1a01003 	mov	r1, r3
    9b64:	e3a02000 	mov	r2, #0, 0
    9b68:	e4812004 	str	r2, [r1], #4
    9b6c:	e151000c 	cmp	r1, ip
    9b70:	2a00000f 	bcs	9bb4 <_cstart+0xd4>
    9b74:	e2831008 	add	r1, r3, #8, 0
    9b78:	e151000c 	cmp	r1, ip
    9b7c:	e5832004 	str	r2, [r3, #4]
    9b80:	2a00000b 	bcs	9bb4 <_cstart+0xd4>
    9b84:	e283100c 	add	r1, r3, #12, 0
    9b88:	e151000c 	cmp	r1, ip
    9b8c:	e5832008 	str	r2, [r3, #8]
    9b90:	2a000007 	bcs	9bb4 <_cstart+0xd4>
    9b94:	e2831010 	add	r1, r3, #16, 0
    9b98:	e151000c 	cmp	r1, ip
    9b9c:	e583200c 	str	r2, [r3, #12]
    9ba0:	2a000003 	bcs	9bb4 <_cstart+0xd4>
    9ba4:	e2831014 	add	r1, r3, #20, 0
    9ba8:	e151000c 	cmp	r1, ip
    9bac:	e5832010 	str	r2, [r3, #16]
    9bb0:	35832014 	strcc	r2, [r3, #20]
    9bb4:	eb000082 	bl	9dc4 <uart_init>
    9bb8:	e3a03001 	mov	r3, #1, 0
    9bbc:	ee0f3f1c 	mcr	15, 0, r3, cr15, cr12, {0}
    9bc0:	ebfff928 	bl	8068 <notmain>
    9bc4:	ebffffba 	bl	9ab4 <clean_reboot>
    9bc8:	e1a03002 	mov	r3, r2
    9bcc:	eaffffe3 	b	9b60 <_cstart+0x80>
    9bd0:	0000aed0 	ldrdeq	sl, [r0], -r0
    9bd4:	0000b2f8 	strdeq	fp, [r0], -r8

00009bd8 <custom_loader>:
    9bd8:	e12fff1e 	bx	lr

00009bdc <at_user_level>:
    9bdc:	e10f0000 	mrs	r0, CPSR
    9be0:	e200001f 	and	r0, r0, #31, 0
    9be4:	e2400010 	sub	r0, r0, #16, 0
    9be8:	e16f0f10 	clz	r0, r0
    9bec:	e1a002a0 	lsr	r0, r0, #5
    9bf0:	e12fff1e 	bx	lr

00009bf4 <set_user_level>:
    9bf4:	e10f3000 	mrs	r3, CPSR
    9bf8:	e3c3301f 	bic	r3, r3, #31, 0
    9bfc:	e3833010 	orr	r3, r3, #16, 0
    9c00:	e129f003 	msr	CPSR_fc, r3
    9c04:	e12fff1e 	bx	lr

00009c08 <rpi_reboot>:
    9c08:	e92d4010 	push	{r4, lr}
    9c0c:	e10f3000 	mrs	r3, CPSR
    9c10:	e203301f 	and	r3, r3, #31, 0
    9c14:	e3530010 	cmp	r3, #16, 0
    9c18:	1a000003 	bne	9c2c <rpi_reboot+0x24>
    9c1c:	e10f3000 	mrs	r3, CPSR
    9c20:	e3c3301f 	bic	r3, r3, #31, 0
    9c24:	e3833010 	orr	r3, r3, #16, 0
    9c28:	e129f003 	msr	CPSR_fc, r3
    9c2c:	eb00025f 	bl	a5b0 <reboot_callout>
    9c30:	eb0000c1 	bl	9f3c <uart_flush_tx>
    9c34:	e3a0000a 	mov	r0, #10, 0
    9c38:	eb000028 	bl	9ce0 <delay_ms>
    9c3c:	e59f1014 	ldr	r1, [pc, #20]	; 9c58 <rpi_reboot+0x50>
    9c40:	e59f0014 	ldr	r0, [pc, #20]	; 9c5c <rpi_reboot+0x54>
    9c44:	ebfff8f6 	bl	8024 <PUT32>
    9c48:	e59f1010 	ldr	r1, [pc, #16]	; 9c60 <rpi_reboot+0x58>
    9c4c:	e59f0010 	ldr	r0, [pc, #16]	; 9c64 <rpi_reboot+0x5c>
    9c50:	ebfff8f3 	bl	8024 <PUT32>
    9c54:	eafffffe 	b	9c54 <rpi_reboot+0x4c>
    9c58:	5a000001 	bpl	9c64 <rpi_reboot+0x5c>
    9c5c:	20100024 	andscs	r0, r0, r4, lsr #32
    9c60:	5a000020 	bpl	9ce8 <delay_ms+0x8>
    9c64:	2010001c 	andscs	r0, r0, ip, lsl r0

00009c68 <timer_get_usec_raw>:
    9c68:	e59f0000 	ldr	r0, [pc]	; 9c70 <timer_get_usec_raw+0x8>
    9c6c:	eafff8ee 	b	802c <GET32>
    9c70:	20003004 	andcs	r3, r0, r4

00009c74 <timer_get_usec>:
    9c74:	e92d4010 	push	{r4, lr}
    9c78:	eb00024d 	bl	a5b4 <dev_barrier>
    9c7c:	e59f0010 	ldr	r0, [pc, #16]	; 9c94 <timer_get_usec+0x20>
    9c80:	ebfff8e9 	bl	802c <GET32>
    9c84:	e1a04000 	mov	r4, r0
    9c88:	eb000249 	bl	a5b4 <dev_barrier>
    9c8c:	e1a00004 	mov	r0, r4
    9c90:	e8bd8010 	pop	{r4, pc}
    9c94:	20003004 	andcs	r3, r0, r4

00009c98 <delay_us>:
    9c98:	e92d41f0 	push	{r4, r5, r6, r7, r8, lr}
    9c9c:	e1a06000 	mov	r6, r0
    9ca0:	eb000243 	bl	a5b4 <dev_barrier>
    9ca4:	e59f0030 	ldr	r0, [pc, #48]	; 9cdc <delay_us+0x44>
    9ca8:	ebfff8df 	bl	802c <GET32>
    9cac:	e1a05000 	mov	r5, r0
    9cb0:	eb00023f 	bl	a5b4 <dev_barrier>
    9cb4:	e59f7020 	ldr	r7, [pc, #32]	; 9cdc <delay_us+0x44>
    9cb8:	eb00023d 	bl	a5b4 <dev_barrier>
    9cbc:	e1a00007 	mov	r0, r7
    9cc0:	ebfff8d9 	bl	802c <GET32>
    9cc4:	e1a04000 	mov	r4, r0
    9cc8:	e0444005 	sub	r4, r4, r5
    9ccc:	eb000238 	bl	a5b4 <dev_barrier>
    9cd0:	e1540006 	cmp	r4, r6
    9cd4:	3afffff7 	bcc	9cb8 <delay_us+0x20>
    9cd8:	e8bd81f0 	pop	{r4, r5, r6, r7, r8, pc}
    9cdc:	20003004 	andcs	r3, r0, r4

00009ce0 <delay_ms>:
    9ce0:	e92d41f0 	push	{r4, r5, r6, r7, r8, lr}
    9ce4:	e0604280 	rsb	r4, r0, r0, lsl #5
    9ce8:	e0800104 	add	r0, r0, r4, lsl #2
    9cec:	e1a04180 	lsl	r4, r0, #3
    9cf0:	eb00022f 	bl	a5b4 <dev_barrier>
    9cf4:	e59f0030 	ldr	r0, [pc, #48]	; 9d2c <delay_ms+0x4c>
    9cf8:	ebfff8cb 	bl	802c <GET32>
    9cfc:	e1a06000 	mov	r6, r0
    9d00:	eb00022b 	bl	a5b4 <dev_barrier>
    9d04:	e59f7020 	ldr	r7, [pc, #32]	; 9d2c <delay_ms+0x4c>
    9d08:	eb000229 	bl	a5b4 <dev_barrier>
    9d0c:	e1a00007 	mov	r0, r7
    9d10:	ebfff8c5 	bl	802c <GET32>
    9d14:	e1a05000 	mov	r5, r0
    9d18:	e0455006 	sub	r5, r5, r6
    9d1c:	eb000224 	bl	a5b4 <dev_barrier>
    9d20:	e1540005 	cmp	r4, r5
    9d24:	8afffff7 	bhi	9d08 <delay_ms+0x28>
    9d28:	e8bd81f0 	pop	{r4, r5, r6, r7, r8, pc}
    9d2c:	20003004 	andcs	r3, r0, r4

00009d30 <delay_sec>:
    9d30:	e92d41f0 	push	{r4, r5, r6, r7, r8, lr}
    9d34:	e0604280 	rsb	r4, r0, r0, lsl #5
    9d38:	e0644304 	rsb	r4, r4, r4, lsl #6
    9d3c:	e0800184 	add	r0, r0, r4, lsl #3
    9d40:	e1a04300 	lsl	r4, r0, #6
    9d44:	eb00021a 	bl	a5b4 <dev_barrier>
    9d48:	e59f0030 	ldr	r0, [pc, #48]	; 9d80 <delay_sec+0x50>
    9d4c:	ebfff8b6 	bl	802c <GET32>
    9d50:	e1a06000 	mov	r6, r0
    9d54:	eb000216 	bl	a5b4 <dev_barrier>
    9d58:	e59f7020 	ldr	r7, [pc, #32]	; 9d80 <delay_sec+0x50>
    9d5c:	eb000214 	bl	a5b4 <dev_barrier>
    9d60:	e1a00007 	mov	r0, r7
    9d64:	ebfff8b0 	bl	802c <GET32>
    9d68:	e1a05000 	mov	r5, r0
    9d6c:	e0455006 	sub	r5, r5, r6
    9d70:	eb00020f 	bl	a5b4 <dev_barrier>
    9d74:	e1540005 	cmp	r4, r5
    9d78:	8afffff7 	bhi	9d5c <delay_sec+0x2c>
    9d7c:	e8bd81f0 	pop	{r4, r5, r6, r7, r8, pc}
    9d80:	20003004 	andcs	r3, r0, r4

00009d84 <and_in32>:
    9d84:	e92d4070 	push	{r4, r5, r6, lr}
    9d88:	e1a04000 	mov	r4, r0
    9d8c:	e1a05001 	mov	r5, r1
    9d90:	ebfff8a5 	bl	802c <GET32>
    9d94:	e0001005 	and	r1, r0, r5
    9d98:	e1a00004 	mov	r0, r4
    9d9c:	ebfff8a0 	bl	8024 <PUT32>
    9da0:	e8bd8070 	pop	{r4, r5, r6, pc}

00009da4 <or_in32>:
    9da4:	e92d4070 	push	{r4, r5, r6, lr}
    9da8:	e1a04000 	mov	r4, r0
    9dac:	e1a05001 	mov	r5, r1
    9db0:	ebfff89d 	bl	802c <GET32>
    9db4:	e1801005 	orr	r1, r0, r5
    9db8:	e1a00004 	mov	r0, r4
    9dbc:	ebfff898 	bl	8024 <PUT32>
    9dc0:	e8bd8070 	pop	{r4, r5, r6, pc}

00009dc4 <uart_init>:
    9dc4:	e92d4010 	push	{r4, lr}
    9dc8:	e3a01002 	mov	r1, #2, 0
    9dcc:	e3a0000e 	mov	r0, #14, 0
    9dd0:	eb000153 	bl	a324 <gpio_set_function>
    9dd4:	e3a01002 	mov	r1, #2, 0
    9dd8:	e3a0000f 	mov	r0, #15, 0
    9ddc:	eb000150 	bl	a324 <gpio_set_function>
    9de0:	eb0001f3 	bl	a5b4 <dev_barrier>
    9de4:	e3a01001 	mov	r1, #1, 0
    9de8:	e59f0064 	ldr	r0, [pc, #100]	; 9e54 <uart_init+0x90>
    9dec:	ebffffec 	bl	9da4 <or_in32>
    9df0:	eb0001ef 	bl	a5b4 <dev_barrier>
    9df4:	e59f405c 	ldr	r4, [pc, #92]	; 9e58 <uart_init+0x94>
    9df8:	e3a01000 	mov	r1, #0, 0
    9dfc:	e1a00004 	mov	r0, r4
    9e00:	ebfff887 	bl	8024 <PUT32>
    9e04:	e3a01000 	mov	r1, #0, 0
    9e08:	e59f004c 	ldr	r0, [pc, #76]	; 9e5c <uart_init+0x98>
    9e0c:	ebfff884 	bl	8024 <PUT32>
    9e10:	e3a01003 	mov	r1, #3, 0
    9e14:	e59f0044 	ldr	r0, [pc, #68]	; 9e60 <uart_init+0x9c>
    9e18:	ebfff881 	bl	8024 <PUT32>
    9e1c:	e3a01000 	mov	r1, #0, 0
    9e20:	e59f003c 	ldr	r0, [pc, #60]	; 9e64 <uart_init+0xa0>
    9e24:	ebfff87e 	bl	8024 <PUT32>
    9e28:	e3a010c7 	mov	r1, #199, 0	; 0xc7
    9e2c:	e59f0034 	ldr	r0, [pc, #52]	; 9e68 <uart_init+0xa4>
    9e30:	ebfff87b 	bl	8024 <PUT32>
    9e34:	e59f1030 	ldr	r1, [pc, #48]	; 9e6c <uart_init+0xa8>
    9e38:	e59f0030 	ldr	r0, [pc, #48]	; 9e70 <uart_init+0xac>
    9e3c:	ebfff878 	bl	8024 <PUT32>
    9e40:	e3a01003 	mov	r1, #3, 0
    9e44:	e1a00004 	mov	r0, r4
    9e48:	ebfff875 	bl	8024 <PUT32>
    9e4c:	eb0001d8 	bl	a5b4 <dev_barrier>
    9e50:	e8bd8010 	pop	{r4, pc}
    9e54:	20215004 	eorcs	r5, r1, r4
    9e58:	20215060 	eorcs	r5, r1, r0, rrx
    9e5c:	20215044 	eorcs	r5, r1, r4, asr #32
    9e60:	2021504c 	eorcs	r5, r1, ip, asr #32
    9e64:	20215050 	eorcs	r5, r1, r0, asr r0
    9e68:	20215048 	eorcs	r5, r1, r8, asr #32
    9e6c:	0000010e 	andeq	r0, r0, lr, lsl #2
    9e70:	20215068 	eorcs	r5, r1, r8, rrx

00009e74 <uart_can_getc>:
    9e74:	e92d4010 	push	{r4, lr}
    9e78:	e59f0008 	ldr	r0, [pc, #8]	; 9e88 <uart_can_getc+0x14>
    9e7c:	ebfff86a 	bl	802c <GET32>
    9e80:	e2000001 	and	r0, r0, #1, 0
    9e84:	e8bd8010 	pop	{r4, pc}
    9e88:	20215064 	eorcs	r5, r1, r4, rrx

00009e8c <uart_can_putc>:
    9e8c:	e92d4010 	push	{r4, lr}
    9e90:	e59f0010 	ldr	r0, [pc, #16]	; 9ea8 <uart_can_putc+0x1c>
    9e94:	ebfff864 	bl	802c <GET32>
    9e98:	e3100002 	tst	r0, #2, 0
    9e9c:	13a00001 	movne	r0, #1, 0
    9ea0:	03a00000 	moveq	r0, #0, 0
    9ea4:	e8bd8010 	pop	{r4, pc}
    9ea8:	20215064 	eorcs	r5, r1, r4, rrx

00009eac <uart_getc>:
    9eac:	e92d4010 	push	{r4, lr}
    9eb0:	eb0001bf 	bl	a5b4 <dev_barrier>
    9eb4:	ebffffee 	bl	9e74 <uart_can_getc>
    9eb8:	e3500000 	cmp	r0, #0, 0
    9ebc:	0afffffc 	beq	9eb4 <uart_getc+0x8>
    9ec0:	e59f0010 	ldr	r0, [pc, #16]	; 9ed8 <uart_getc+0x2c>
    9ec4:	ebfff858 	bl	802c <GET32>
    9ec8:	e6ef4070 	uxtb	r4, r0
    9ecc:	eb0001b8 	bl	a5b4 <dev_barrier>
    9ed0:	e1a00004 	mov	r0, r4
    9ed4:	e8bd8010 	pop	{r4, pc}
    9ed8:	20215040 	eorcs	r5, r1, r0, asr #32

00009edc <uart_putc>:
    9edc:	e92d4010 	push	{r4, lr}
    9ee0:	e1a04000 	mov	r4, r0
    9ee4:	eb0001b2 	bl	a5b4 <dev_barrier>
    9ee8:	ebffffe7 	bl	9e8c <uart_can_putc>
    9eec:	e3500000 	cmp	r0, #0, 0
    9ef0:	0afffffc 	beq	9ee8 <uart_putc+0xc>
    9ef4:	e6ef1074 	uxtb	r1, r4
    9ef8:	e59f0008 	ldr	r0, [pc, #8]	; 9f08 <uart_putc+0x2c>
    9efc:	ebfff848 	bl	8024 <PUT32>
    9f00:	eb0001ab 	bl	a5b4 <dev_barrier>
    9f04:	e8bd8010 	pop	{r4, pc}
    9f08:	20215040 	eorcs	r5, r1, r0, asr #32

00009f0c <uart_has_data>:
    9f0c:	e92d4010 	push	{r4, lr}
    9f10:	eb0001a7 	bl	a5b4 <dev_barrier>
    9f14:	ebffffd6 	bl	9e74 <uart_can_getc>
    9f18:	e8bd8010 	pop	{r4, pc}

00009f1c <uart_tx_is_empty>:
    9f1c:	e92d4010 	push	{r4, lr}
    9f20:	eb0001a3 	bl	a5b4 <dev_barrier>
    9f24:	e59f000c 	ldr	r0, [pc, #12]	; 9f38 <uart_tx_is_empty+0x1c>
    9f28:	ebfff83f 	bl	802c <GET32>
    9f2c:	e1a004a0 	lsr	r0, r0, #9
    9f30:	e2000001 	and	r0, r0, #1, 0
    9f34:	e8bd8010 	pop	{r4, pc}
    9f38:	20215064 	eorcs	r5, r1, r4, rrx

00009f3c <uart_flush_tx>:
    9f3c:	e92d4010 	push	{r4, lr}
    9f40:	ebfffff5 	bl	9f1c <uart_tx_is_empty>
    9f44:	e3500000 	cmp	r0, #0, 0
    9f48:	0afffffc 	beq	9f40 <uart_flush_tx+0x4>
    9f4c:	e8bd8010 	pop	{r4, pc}

00009f50 <uart_disable>:
    9f50:	e92d4010 	push	{r4, lr}
    9f54:	ebfffff8 	bl	9f3c <uart_flush_tx>
    9f58:	eb000195 	bl	a5b4 <dev_barrier>
    9f5c:	e3e01001 	mvn	r1, #1, 0
    9f60:	e59f0008 	ldr	r0, [pc, #8]	; 9f70 <uart_disable+0x20>
    9f64:	ebffff86 	bl	9d84 <and_in32>
    9f68:	eb000191 	bl	a5b4 <dev_barrier>
    9f6c:	e8bd8010 	pop	{r4, pc}
    9f70:	20215004 	eorcs	r5, r1, r4

00009f74 <kmalloc_heap_end>:
    9f74:	e59f3004 	ldr	r3, [pc, #4]	; 9f80 <kmalloc_heap_end+0xc>
    9f78:	e5930000 	ldr	r0, [r3]
    9f7c:	e12fff1e 	bx	lr
    9f80:	0000aebc 			; <UNDEFINED> instruction: 0x0000aebc

00009f84 <kmalloc_heap_start>:
    9f84:	e59f3004 	ldr	r3, [pc, #4]	; 9f90 <kmalloc_heap_start+0xc>
    9f88:	e5930004 	ldr	r0, [r3, #4]
    9f8c:	e12fff1e 	bx	lr
    9f90:	0000aebc 			; <UNDEFINED> instruction: 0x0000aebc

00009f94 <kmalloc_heap_ptr>:
    9f94:	e59f3004 	ldr	r3, [pc, #4]	; 9fa0 <kmalloc_heap_ptr+0xc>
    9f98:	e5930000 	ldr	r0, [r3]
    9f9c:	e12fff1e 	bx	lr
    9fa0:	0000aebc 			; <UNDEFINED> instruction: 0x0000aebc

00009fa4 <kmalloc_init_set_start>:
    9fa4:	e52de004 	push	{lr}		; (str lr, [sp, #-4]!)
    9fa8:	e24dd00c 	sub	sp, sp, #12, 0
    9fac:	e3510000 	cmp	r1, #0, 0
    9fb0:	0a00000a 	beq	9fe0 <kmalloc_init_set_start+0x3c>
    9fb4:	e59f306c 	ldr	r3, [pc, #108]	; a028 <kmalloc_init_set_start+0x84>
    9fb8:	e5933000 	ldr	r3, [r3]
    9fbc:	e1530000 	cmp	r3, r0
    9fc0:	8a00000e 	bhi	a000 <kmalloc_init_set_start+0x5c>
    9fc4:	e59f305c 	ldr	r3, [pc, #92]	; a028 <kmalloc_init_set_start+0x84>
    9fc8:	e5830000 	str	r0, [r3]
    9fcc:	e5830004 	str	r0, [r3, #4]
    9fd0:	e0800001 	add	r0, r0, r1
    9fd4:	e5830008 	str	r0, [r3, #8]
    9fd8:	e28dd00c 	add	sp, sp, #12, 0
    9fdc:	e49df004 	pop	{pc}		; (ldr pc, [sp], #4)
    9fe0:	e59f3044 	ldr	r3, [pc, #68]	; a02c <kmalloc_init_set_start+0x88>
    9fe4:	e58d3000 	str	r3, [sp]
    9fe8:	e3a03030 	mov	r3, #48, 0	; 0x30
    9fec:	e59f203c 	ldr	r2, [pc, #60]	; a030 <kmalloc_init_set_start+0x8c>
    9ff0:	e59f103c 	ldr	r1, [pc, #60]	; a034 <kmalloc_init_set_start+0x90>
    9ff4:	e59f003c 	ldr	r0, [pc, #60]	; a038 <kmalloc_init_set_start+0x94>
    9ff8:	ebfffc1c 	bl	9070 <printk>
    9ffc:	ebfffeac 	bl	9ab4 <clean_reboot>
    a000:	e59f3020 	ldr	r3, [pc, #32]	; a028 <kmalloc_init_set_start+0x84>
    a004:	e5933008 	ldr	r3, [r3, #8]
    a008:	e58d3004 	str	r3, [sp, #4]
    a00c:	e58d0000 	str	r0, [sp]
    a010:	e3a03034 	mov	r3, #52, 0	; 0x34
    a014:	e59f2014 	ldr	r2, [pc, #20]	; a030 <kmalloc_init_set_start+0x8c>
    a018:	e59f1014 	ldr	r1, [pc, #20]	; a034 <kmalloc_init_set_start+0x90>
    a01c:	e59f0018 	ldr	r0, [pc, #24]	; a03c <kmalloc_init_set_start+0x98>
    a020:	ebfffc12 	bl	9070 <printk>
    a024:	ebfffea2 	bl	9ab4 <clean_reboot>
    a028:	0000aebc 			; <UNDEFINED> instruction: 0x0000aebc
    a02c:	0000acc8 	andeq	sl, r0, r8, asr #25
    a030:	0000ae54 	andeq	sl, r0, r4, asr lr
    a034:	0000acbc 			; <UNDEFINED> instruction: 0x0000acbc
    a038:	0000a714 	andeq	sl, r0, r4, lsl r7
    a03c:	0000acd4 	ldrdeq	sl, [r0], -r4

0000a040 <kmalloc_init>:
    a040:	e92d4010 	push	{r4, lr}
    a044:	e59f303c 	ldr	r3, [pc, #60]	; a088 <kmalloc_init+0x48>
    a048:	e5933000 	ldr	r3, [r3]
    a04c:	e3530000 	cmp	r3, #0, 0
    a050:	1a000006 	bne	a070 <kmalloc_init+0x30>
    a054:	e59f302c 	ldr	r3, [pc, #44]	; a088 <kmalloc_init+0x48>
    a058:	e3a02001 	mov	r2, #1, 0
    a05c:	e5832000 	str	r2, [r3]
    a060:	e3a01201 	mov	r1, #268435456	; 0x10000000
    a064:	e3a00601 	mov	r0, #1048576	; 0x100000
    a068:	ebffffcd 	bl	9fa4 <kmalloc_init_set_start>
    a06c:	e8bd8010 	pop	{r4, pc}
    a070:	e3a03040 	mov	r3, #64, 0	; 0x40
    a074:	e59f2010 	ldr	r2, [pc, #16]	; a08c <kmalloc_init+0x4c>
    a078:	e59f1010 	ldr	r1, [pc, #16]	; a090 <kmalloc_init+0x50>
    a07c:	e59f0010 	ldr	r0, [pc, #16]	; a094 <kmalloc_init+0x54>
    a080:	ebfffbfa 	bl	9070 <printk>
    a084:	ebfffe8a 	bl	9ab4 <clean_reboot>
    a088:	0000b2f4 	strdeq	fp, [r0], -r4
    a08c:	0000ae6c 	andeq	sl, r0, ip, ror #28
    a090:	0000acbc 			; <UNDEFINED> instruction: 0x0000acbc
    a094:	0000ad18 	andeq	sl, r0, r8, lsl sp

0000a098 <kmalloc_notzero>:
    a098:	e52de004 	push	{lr}		; (str lr, [sp, #-4]!)
    a09c:	e24dd00c 	sub	sp, sp, #12, 0
    a0a0:	e3500000 	cmp	r0, #0, 0
    a0a4:	0a00000a 	beq	a0d4 <kmalloc_notzero+0x3c>
    a0a8:	e2800007 	add	r0, r0, #7, 0
    a0ac:	e3c03007 	bic	r3, r0, #7, 0
    a0b0:	e59f2060 	ldr	r2, [pc, #96]	; a118 <kmalloc_notzero+0x80>
    a0b4:	e5920000 	ldr	r0, [r2]
    a0b8:	e0801003 	add	r1, r0, r3
    a0bc:	e5821000 	str	r1, [r2]
    a0c0:	e5922008 	ldr	r2, [r2, #8]
    a0c4:	e1510002 	cmp	r1, r2
    a0c8:	8a000009 	bhi	a0f4 <kmalloc_notzero+0x5c>
    a0cc:	e28dd00c 	add	sp, sp, #12, 0
    a0d0:	e49df004 	pop	{pc}		; (ldr pc, [sp], #4)
    a0d4:	e59f3040 	ldr	r3, [pc, #64]	; a11c <kmalloc_notzero+0x84>
    a0d8:	e58d3000 	str	r3, [sp]
    a0dc:	e3a03048 	mov	r3, #72, 0	; 0x48
    a0e0:	e59f2038 	ldr	r2, [pc, #56]	; a120 <kmalloc_notzero+0x88>
    a0e4:	e59f1038 	ldr	r1, [pc, #56]	; a124 <kmalloc_notzero+0x8c>
    a0e8:	e59f0038 	ldr	r0, [pc, #56]	; a128 <kmalloc_notzero+0x90>
    a0ec:	ebfffbdf 	bl	9070 <printk>
    a0f0:	ebfffe6f 	bl	9ab4 <clean_reboot>
    a0f4:	e0422000 	sub	r2, r2, r0
    a0f8:	e58d2004 	str	r2, [sp, #4]
    a0fc:	e58d3000 	str	r3, [sp]
    a100:	e3a0304e 	mov	r3, #78, 0	; 0x4e
    a104:	e59f2014 	ldr	r2, [pc, #20]	; a120 <kmalloc_notzero+0x88>
    a108:	e59f1014 	ldr	r1, [pc, #20]	; a124 <kmalloc_notzero+0x8c>
    a10c:	e59f0018 	ldr	r0, [pc, #24]	; a12c <kmalloc_notzero+0x94>
    a110:	ebfffbd6 	bl	9070 <printk>
    a114:	ebfffe66 	bl	9ab4 <clean_reboot>
    a118:	0000aebc 			; <UNDEFINED> instruction: 0x0000aebc
    a11c:	0000accc 	andeq	sl, r0, ip, asr #25
    a120:	0000ae7c 	andeq	sl, r0, ip, ror lr
    a124:	0000acbc 			; <UNDEFINED> instruction: 0x0000acbc
    a128:	0000a714 	andeq	sl, r0, r4, lsl r7
    a12c:	0000ad48 	andeq	sl, r0, r8, asr #26

0000a130 <kmalloc>:
    a130:	e92d4030 	push	{r4, r5, lr}
    a134:	e24dd00c 	sub	sp, sp, #12, 0
    a138:	e2504000 	subs	r4, r0, #0, 0
    a13c:	0a000008 	beq	a164 <kmalloc+0x34>
    a140:	e1a00004 	mov	r0, r4
    a144:	ebffffd3 	bl	a098 <kmalloc_notzero>
    a148:	e1a05000 	mov	r5, r0
    a14c:	e1a02004 	mov	r2, r4
    a150:	e3a01000 	mov	r1, #0, 0
    a154:	ebfffba7 	bl	8ff8 <memset>
    a158:	e1a00005 	mov	r0, r5
    a15c:	e28dd00c 	add	sp, sp, #12, 0
    a160:	e8bd8030 	pop	{r4, r5, pc}
    a164:	e59f3018 	ldr	r3, [pc, #24]	; a184 <kmalloc+0x54>
    a168:	e58d3000 	str	r3, [sp]
    a16c:	e3a03054 	mov	r3, #84, 0	; 0x54
    a170:	e59f2010 	ldr	r2, [pc, #16]	; a188 <kmalloc+0x58>
    a174:	e59f1010 	ldr	r1, [pc, #16]	; a18c <kmalloc+0x5c>
    a178:	e59f0010 	ldr	r0, [pc, #16]	; a190 <kmalloc+0x60>
    a17c:	ebfffbbb 	bl	9070 <printk>
    a180:	ebfffe4b 	bl	9ab4 <clean_reboot>
    a184:	0000accc 	andeq	sl, r0, ip, asr #25
    a188:	0000ae8c 	andeq	sl, r0, ip, lsl #29
    a18c:	0000acbc 			; <UNDEFINED> instruction: 0x0000acbc
    a190:	0000a714 	andeq	sl, r0, r4, lsl r7

0000a194 <kmalloc_aligned>:
    a194:	e52de004 	push	{lr}		; (str lr, [sp, #-4]!)
    a198:	e24dd00c 	sub	sp, sp, #12, 0
    a19c:	e3500000 	cmp	r0, #0, 0
    a1a0:	0a000014 	beq	a1f8 <kmalloc_aligned+0x64>
    a1a4:	e2613000 	rsb	r3, r1, #0, 0
    a1a8:	e1d13003 	bics	r3, r1, r3
    a1ac:	1a000019 	bne	a218 <kmalloc_aligned+0x84>
    a1b0:	e3510008 	cmp	r1, #8, 0
    a1b4:	33a01008 	movcc	r1, #8, 0
    a1b8:	e59f30c0 	ldr	r3, [pc, #192]	; a280 <kmalloc_aligned+0xec>
    a1bc:	e5932000 	ldr	r2, [r3]
    a1c0:	e2613000 	rsb	r3, r1, #0, 0
    a1c4:	e1d1c003 	bics	ip, r1, r3
    a1c8:	1a00001b 	bne	a23c <kmalloc_aligned+0xa8>
    a1cc:	e0822001 	add	r2, r2, r1
    a1d0:	e2422001 	sub	r2, r2, #1, 0
    a1d4:	e0033002 	and	r3, r3, r2
    a1d8:	e2411001 	sub	r1, r1, #1, 0
    a1dc:	e1110003 	tst	r1, r3
    a1e0:	1a00001d 	bne	a25c <kmalloc_aligned+0xc8>
    a1e4:	e59f2094 	ldr	r2, [pc, #148]	; a280 <kmalloc_aligned+0xec>
    a1e8:	e5823000 	str	r3, [r2]
    a1ec:	ebffffcf 	bl	a130 <kmalloc>
    a1f0:	e28dd00c 	add	sp, sp, #12, 0
    a1f4:	e49df004 	pop	{pc}		; (ldr pc, [sp], #4)
    a1f8:	e59f3084 	ldr	r3, [pc, #132]	; a284 <kmalloc_aligned+0xf0>
    a1fc:	e58d3000 	str	r3, [sp]
    a200:	e3a0305f 	mov	r3, #95, 0	; 0x5f
    a204:	e59f207c 	ldr	r2, [pc, #124]	; a288 <kmalloc_aligned+0xf4>
    a208:	e59f107c 	ldr	r1, [pc, #124]	; a28c <kmalloc_aligned+0xf8>
    a20c:	e59f007c 	ldr	r0, [pc, #124]	; a290 <kmalloc_aligned+0xfc>
    a210:	ebfffb96 	bl	9070 <printk>
    a214:	ebfffe26 	bl	9ab4 <clean_reboot>
    a218:	eb0000ac 	bl	a4d0 <rpi_reset_putc>
    a21c:	e59f3070 	ldr	r3, [pc, #112]	; a294 <kmalloc_aligned+0x100>
    a220:	e58d3000 	str	r3, [sp]
    a224:	e3a03060 	mov	r3, #96, 0	; 0x60
    a228:	e59f2058 	ldr	r2, [pc, #88]	; a288 <kmalloc_aligned+0xf4>
    a22c:	e59f1058 	ldr	r1, [pc, #88]	; a28c <kmalloc_aligned+0xf8>
    a230:	e59f0060 	ldr	r0, [pc, #96]	; a298 <kmalloc_aligned+0x104>
    a234:	ebfffb8d 	bl	9070 <printk>
    a238:	ebfffe1d 	bl	9ab4 <clean_reboot>
    a23c:	e59f3058 	ldr	r3, [pc, #88]	; a29c <kmalloc_aligned+0x108>
    a240:	e58d3000 	str	r3, [sp]
    a244:	e3a03011 	mov	r3, #17, 0
    a248:	e59f2050 	ldr	r2, [pc, #80]	; a2a0 <kmalloc_aligned+0x10c>
    a24c:	e59f1038 	ldr	r1, [pc, #56]	; a28c <kmalloc_aligned+0xf8>
    a250:	e59f0038 	ldr	r0, [pc, #56]	; a290 <kmalloc_aligned+0xfc>
    a254:	ebfffb85 	bl	9070 <printk>
    a258:	ebfffe15 	bl	9ab4 <clean_reboot>
    a25c:	eb00009b 	bl	a4d0 <rpi_reset_putc>
    a260:	e59f303c 	ldr	r3, [pc, #60]	; a2a4 <kmalloc_aligned+0x110>
    a264:	e58d3000 	str	r3, [sp]
    a268:	e3a03068 	mov	r3, #104, 0	; 0x68
    a26c:	e59f2014 	ldr	r2, [pc, #20]	; a288 <kmalloc_aligned+0xf4>
    a270:	e59f1014 	ldr	r1, [pc, #20]	; a28c <kmalloc_aligned+0xf8>
    a274:	e59f002c 	ldr	r0, [pc, #44]	; a2a8 <kmalloc_aligned+0x114>
    a278:	ebfffb7c 	bl	9070 <printk>
    a27c:	ebfffe0c 	bl	9ab4 <clean_reboot>
    a280:	0000aebc 			; <UNDEFINED> instruction: 0x0000aebc
    a284:	0000accc 	andeq	sl, r0, ip, asr #25
    a288:	0000ae94 	muleq	r0, r4, lr
    a28c:	0000acbc 			; <UNDEFINED> instruction: 0x0000acbc
    a290:	0000a714 	andeq	sl, r0, r4, lsl r7
    a294:	0000adbc 			; <UNDEFINED> instruction: 0x0000adbc
    a298:	0000ad88 	andeq	sl, r0, r8, lsl #27
    a29c:	0000add0 	ldrdeq	sl, [r0], -r0
    a2a0:	0000aea4 	andeq	sl, r0, r4, lsr #29
    a2a4:	0000ae08 	andeq	sl, r0, r8, lsl #28
    a2a8:	0000addc 	ldrdeq	sl, [r0], -ip

0000a2ac <kfree>:
    a2ac:	e12fff1e 	bx	lr

0000a2b0 <kfree_all>:
    a2b0:	e59f3008 	ldr	r3, [pc, #8]	; a2c0 <kfree_all+0x10>
    a2b4:	e5932004 	ldr	r2, [r3, #4]
    a2b8:	e5832000 	str	r2, [r3]
    a2bc:	e12fff1e 	bx	lr
    a2c0:	0000aebc 			; <UNDEFINED> instruction: 0x0000aebc

0000a2c4 <kfree_pop>:
    a2c4:	e59f3048 	ldr	r3, [pc, #72]	; a314 <kfree_pop+0x50>
    a2c8:	e5933004 	ldr	r3, [r3, #4]
    a2cc:	e1530000 	cmp	r3, r0
    a2d0:	8a000006 	bhi	a2f0 <kfree_pop+0x2c>
    a2d4:	e59f3038 	ldr	r3, [pc, #56]	; a314 <kfree_pop+0x50>
    a2d8:	e5933008 	ldr	r3, [r3, #8]
    a2dc:	e1530000 	cmp	r3, r0
    a2e0:	3a000002 	bcc	a2f0 <kfree_pop+0x2c>
    a2e4:	e59f3028 	ldr	r3, [pc, #40]	; a314 <kfree_pop+0x50>
    a2e8:	e5830000 	str	r0, [r3]
    a2ec:	e12fff1e 	bx	lr
    a2f0:	e52de004 	push	{lr}		; (str lr, [sp, #-4]!)
    a2f4:	e24dd00c 	sub	sp, sp, #12, 0
    a2f8:	e58d0000 	str	r0, [sp]
    a2fc:	e3a03077 	mov	r3, #119, 0	; 0x77
    a300:	e59f2010 	ldr	r2, [pc, #16]	; a318 <kfree_pop+0x54>
    a304:	e59f1010 	ldr	r1, [pc, #16]	; a31c <kfree_pop+0x58>
    a308:	e59f0010 	ldr	r0, [pc, #16]	; a320 <kfree_pop+0x5c>
    a30c:	ebfffb57 	bl	9070 <printk>
    a310:	ebfffde7 	bl	9ab4 <clean_reboot>
    a314:	0000aebc 			; <UNDEFINED> instruction: 0x0000aebc
    a318:	0000aeac 	andeq	sl, r0, ip, lsr #29
    a31c:	0000acbc 			; <UNDEFINED> instruction: 0x0000acbc
    a320:	0000ae24 	andeq	sl, r0, r4, lsr #28

0000a324 <gpio_set_function>:
    a324:	e350001f 	cmp	r0, #31, 0
    a328:	812fff1e 	bxhi	lr
    a32c:	e3d13007 	bics	r3, r1, #7, 0
    a330:	e92d4070 	push	{r4, r5, r6, lr}
    a334:	e1a05001 	mov	r5, r1
    a338:	18bd8070 	popne	{r4, r5, r6, pc}
    a33c:	e59f403c 	ldr	r4, [pc, #60]	; a380 <gpio_set_function+0x5c>
    a340:	e0843094 	umull	r3, r4, r4, r0
    a344:	e1a041a4 	lsr	r4, r4, #3
    a348:	e2843302 	add	r3, r4, #134217728	; 0x8000000
    a34c:	e2833702 	add	r3, r3, #524288	; 0x80000
    a350:	e1a06103 	lsl	r6, r3, #2
    a354:	e0844104 	add	r4, r4, r4, lsl #2
    a358:	e0404084 	sub	r4, r0, r4, lsl #1
    a35c:	e1a00006 	mov	r0, r6
    a360:	ebfff731 	bl	802c <GET32>
    a364:	e3a01007 	mov	r1, #7, 0
    a368:	e0844084 	add	r4, r4, r4, lsl #1
    a36c:	e1c01411 	bic	r1, r0, r1, lsl r4
    a370:	e1811415 	orr	r1, r1, r5, lsl r4
    a374:	e1a00006 	mov	r0, r6
    a378:	e8bd4070 	pop	{r4, r5, r6, lr}
    a37c:	eafff728 	b	8024 <PUT32>
    a380:	cccccccd 	stclgt	12, cr12, [ip], {205}	; 0xcd

0000a384 <gpio_set_output>:
    a384:	e350001f 	cmp	r0, #31, 0
    a388:	812fff1e 	bxhi	lr
    a38c:	e92d4070 	push	{r4, r5, r6, lr}
    a390:	e59f4040 	ldr	r4, [pc, #64]	; a3d8 <gpio_set_output+0x54>
    a394:	e0843094 	umull	r3, r4, r4, r0
    a398:	e1a041a4 	lsr	r4, r4, #3
    a39c:	e2843302 	add	r3, r4, #134217728	; 0x8000000
    a3a0:	e2833702 	add	r3, r3, #524288	; 0x80000
    a3a4:	e1a05103 	lsl	r5, r3, #2
    a3a8:	e0844104 	add	r4, r4, r4, lsl #2
    a3ac:	e0404084 	sub	r4, r0, r4, lsl #1
    a3b0:	e1a00005 	mov	r0, r5
    a3b4:	ebfff71c 	bl	802c <GET32>
    a3b8:	e3a03007 	mov	r3, #7, 0
    a3bc:	e3a01001 	mov	r1, #1, 0
    a3c0:	e0844084 	add	r4, r4, r4, lsl #1
    a3c4:	e1c03413 	bic	r3, r0, r3, lsl r4
    a3c8:	e1831411 	orr	r1, r3, r1, lsl r4
    a3cc:	e1a00005 	mov	r0, r5
    a3d0:	e8bd4070 	pop	{r4, r5, r6, lr}
    a3d4:	eafff712 	b	8024 <PUT32>
    a3d8:	cccccccd 	stclgt	12, cr12, [ip], {205}	; 0xcd

0000a3dc <gpio_set_on>:
    a3dc:	e1a03000 	mov	r3, r0
    a3e0:	e3a01001 	mov	r1, #1, 0
    a3e4:	e59f0004 	ldr	r0, [pc, #4]	; a3f0 <gpio_set_on+0x14>
    a3e8:	e1a01311 	lsl	r1, r1, r3
    a3ec:	eafff70c 	b	8024 <PUT32>
    a3f0:	2020001c 	eorcs	r0, r0, ip, lsl r0

0000a3f4 <gpio_set_off>:
    a3f4:	e1a03000 	mov	r3, r0
    a3f8:	e3a01001 	mov	r1, #1, 0
    a3fc:	e59f0004 	ldr	r0, [pc, #4]	; a408 <gpio_set_off+0x14>
    a400:	e1a01311 	lsl	r1, r1, r3
    a404:	eafff706 	b	8024 <PUT32>
    a408:	20200028 	eorcs	r0, r0, r8, lsr #32

0000a40c <gpio_set_input>:
    a40c:	e350001f 	cmp	r0, #31, 0
    a410:	812fff1e 	bxhi	lr
    a414:	e92d4070 	push	{r4, r5, r6, lr}
    a418:	e59f5040 	ldr	r5, [pc, #64]	; a460 <gpio_set_input+0x54>
    a41c:	e1a04000 	mov	r4, r0
    a420:	e0853095 	umull	r3, r5, r5, r0
    a424:	e1a051a5 	lsr	r5, r5, #3
    a428:	e2850302 	add	r0, r5, #134217728	; 0x8000000
    a42c:	e2800702 	add	r0, r0, #524288	; 0x80000
    a430:	e1a06100 	lsl	r6, r0, #2
    a434:	e1a00006 	mov	r0, r6
    a438:	ebfff6fb 	bl	802c <GET32>
    a43c:	e3a01007 	mov	r1, #7, 0
    a440:	e1a03000 	mov	r3, r0
    a444:	e0855105 	add	r5, r5, r5, lsl #2
    a448:	e0444085 	sub	r4, r4, r5, lsl #1
    a44c:	e0844084 	add	r4, r4, r4, lsl #1
    a450:	e1a00006 	mov	r0, r6
    a454:	e1c31411 	bic	r1, r3, r1, lsl r4
    a458:	e8bd4070 	pop	{r4, r5, r6, lr}
    a45c:	eafff6f0 	b	8024 <PUT32>
    a460:	cccccccd 	stclgt	12, cr12, [ip], {205}	; 0xcd

0000a464 <gpio_write>:
    a464:	e3510000 	cmp	r1, #0, 0
    a468:	e3a03001 	mov	r3, #1, 0
    a46c:	e1a01000 	mov	r1, r0
    a470:	0a000002 	beq	a480 <gpio_write+0x1c>
    a474:	e59f0010 	ldr	r0, [pc, #16]	; a48c <gpio_write+0x28>
    a478:	e1a01113 	lsl	r1, r3, r1
    a47c:	eafff6e8 	b	8024 <PUT32>
    a480:	e59f0008 	ldr	r0, [pc, #8]	; a490 <gpio_write+0x2c>
    a484:	e1a01113 	lsl	r1, r3, r1
    a488:	eafff6e5 	b	8024 <PUT32>
    a48c:	2020001c 	eorcs	r0, r0, ip, lsl r0
    a490:	20200028 	eorcs	r0, r0, r8, lsr #32

0000a494 <gpio_read>:
    a494:	e92d4010 	push	{r4, lr}
    a498:	e1a04000 	mov	r4, r0
    a49c:	e59f0014 	ldr	r0, [pc, #20]	; a4b8 <gpio_read+0x24>
    a4a0:	e08002a4 	add	r0, r0, r4, lsr #5
    a4a4:	ebfff6e0 	bl	802c <GET32>
    a4a8:	e204401f 	and	r4, r4, #31, 0
    a4ac:	e1a00430 	lsr	r0, r0, r4
    a4b0:	e2000001 	and	r0, r0, #1, 0
    a4b4:	e8bd8010 	pop	{r4, pc}
    a4b8:	20200034 	eorcs	r0, r0, r4, lsr r0

0000a4bc <internal_putchar>:
    a4bc:	e92d4010 	push	{r4, lr}
    a4c0:	e1a04000 	mov	r4, r0
    a4c4:	ebfffe84 	bl	9edc <uart_putc>
    a4c8:	e1a00004 	mov	r0, r4
    a4cc:	e8bd8010 	pop	{r4, pc}

0000a4d0 <rpi_reset_putc>:
    a4d0:	e59f3008 	ldr	r3, [pc, #8]	; a4e0 <rpi_reset_putc+0x10>
    a4d4:	e59f2008 	ldr	r2, [pc, #8]	; a4e4 <rpi_reset_putc+0x14>
    a4d8:	e5832000 	str	r2, [r3]
    a4dc:	e12fff1e 	bx	lr
    a4e0:	0000aec8 	andeq	sl, r0, r8, asr #29
    a4e4:	0000a4bc 			; <UNDEFINED> instruction: 0x0000a4bc

0000a4e8 <rpi_set_putc>:
    a4e8:	e59f3004 	ldr	r3, [pc, #4]	; a4f4 <rpi_set_putc+0xc>
    a4ec:	e5830000 	str	r0, [r3]
    a4f0:	e12fff1e 	bx	lr
    a4f4:	0000aec8 	andeq	sl, r0, r8, asr #29

0000a4f8 <strcat>:
    a4f8:	e1a02000 	mov	r2, r0
    a4fc:	e1a03002 	mov	r3, r2
    a500:	e4d2c001 	ldrb	ip, [r2], #1
    a504:	e35c0000 	cmp	ip, #0, 0
    a508:	1afffffb 	bne	a4fc <strcat+0x4>
    a50c:	e2433001 	sub	r3, r3, #1, 0
    a510:	e4d12001 	ldrb	r2, [r1], #1
    a514:	e3520000 	cmp	r2, #0, 0
    a518:	e5e32001 	strb	r2, [r3, #1]!
    a51c:	1afffffb 	bne	a510 <strcat+0x18>
    a520:	e12fff1e 	bx	lr

0000a524 <strcmp>:
    a524:	e5d03000 	ldrb	r3, [r0]
    a528:	e3530000 	cmp	r3, #0, 0
    a52c:	05d12000 	ldrbeq	r2, [r1]
    a530:	1a000003 	bne	a544 <strcmp+0x20>
    a534:	ea000006 	b	a554 <strcmp+0x30>
    a538:	e5f03001 	ldrb	r3, [r0, #1]!
    a53c:	e3530000 	cmp	r3, #0, 0
    a540:	0a000005 	beq	a55c <strcmp+0x38>
    a544:	e1a0c001 	mov	ip, r1
    a548:	e4d12001 	ldrb	r2, [r1], #1
    a54c:	e1520003 	cmp	r2, r3
    a550:	0afffff8 	beq	a538 <strcmp+0x14>
    a554:	e0430002 	sub	r0, r3, r2
    a558:	e12fff1e 	bx	lr
    a55c:	e5dc2001 	ldrb	r2, [ip, #1]
    a560:	e0430002 	sub	r0, r3, r2
    a564:	e12fff1e 	bx	lr

0000a568 <strcpy>:
    a568:	e2402001 	sub	r2, r0, #1, 0
    a56c:	e4d13001 	ldrb	r3, [r1], #1
    a570:	e3530000 	cmp	r3, #0, 0
    a574:	e5e23001 	strb	r3, [r2, #1]!
    a578:	1afffffb 	bne	a56c <strcpy+0x4>
    a57c:	e12fff1e 	bx	lr

0000a580 <strncmp>:
    a580:	e0802002 	add	r2, r0, r2
    a584:	ea000003 	b	a598 <strncmp+0x18>
    a588:	e4d03001 	ldrb	r3, [r0], #1
    a58c:	e4d1c001 	ldrb	ip, [r1], #1
    a590:	e153000c 	cmp	r3, ip
    a594:	1a000003 	bne	a5a8 <strncmp+0x28>
    a598:	e1500002 	cmp	r0, r2
    a59c:	1afffff9 	bne	a588 <strncmp+0x8>
    a5a0:	e3a00000 	mov	r0, #0, 0
    a5a4:	e12fff1e 	bx	lr
    a5a8:	e043000c 	sub	r0, r3, ip
    a5ac:	e12fff1e 	bx	lr

0000a5b0 <reboot_callout>:
    a5b0:	e12fff1e 	bx	lr

0000a5b4 <dev_barrier>:
    a5b4:	ea000002 	b	a5c4 <dsb>

0000a5b8 <dmb>:
    a5b8:	e3a00000 	mov	r0, #0, 0
    a5bc:	ee070fba 	mcr	15, 0, r0, cr7, cr10, {5}
    a5c0:	e12fff1e 	bx	lr

0000a5c4 <dsb>:
    a5c4:	ee070f9a 	mcr	15, 0, r0, cr7, cr10, {4}
    a5c8:	e12fff1e 	bx	lr

0000a5cc <__code_end__>:
    a5cc:	00000000 	andeq	r0, r0, r0

Disassembly of section .rodata:

0000a5d0 <__FUNCTION__.4028-0x8c>:
    a5d0:	74736574 	ldrbtvc	r6, [r3], #-1396	; 0xfffffa8c
    a5d4:	00000a31 	andeq	r0, r0, r1, lsr sl
    a5d8:	74736574 	ldrbtvc	r6, [r3], #-1396	; 0xfffffa8c
    a5dc:	2e322d73 	mrccs	13, 1, r2, cr2, cr3, {3}
    a5e0:	61702f30 	cmnvs	r0, r0, lsr pc
    a5e4:	2d317472 	cfldrscs	mvf7, [r1, #-456]!	; 0xfffffe38
    a5e8:	74736574 	ldrbtvc	r6, [r3], #-1396	; 0xfffffa8c
    a5ec:	6f6e2d31 	svcvs	0x006e2d31
    a5f0:	6775622d 	ldrbvs	r6, [r5, -sp, lsr #4]!
    a5f4:	0000632e 	andeq	r6, r0, lr, lsr #6
    a5f8:	43415254 	movtmi	r5, #4692	; 0x1254
    a5fc:	6c613a45 			; <UNDEFINED> instruction: 0x6c613a45
    a600:	20636f6c 	rsbcs	r6, r3, ip, ror #30
    a604:	75746572 	ldrbvc	r6, [r4, #-1394]!	; 0xfffffa8e
    a608:	64656e72 	strbtvs	r6, [r5], #-3698	; 0xfffff18e
    a60c:	20752520 	rsbscs	r2, r5, r0, lsr #10
    a610:	5d70255b 	cfldr64pl	mvdx2, [r0, #-364]!	; 0xfffffe94
    a614:	0000000a 	andeq	r0, r0, sl
    a618:	494e4150 	stmdbmi	lr, {r4, r6, r8, lr}^
    a61c:	73253a43 			; <UNDEFINED> instruction: 0x73253a43
    a620:	3a73253a 	bcc	1cd3b10 <__bss_end__+0x1cc8818>
    a624:	693a6425 	ldmdbvs	sl!, {r0, r2, r5, sl, sp, lr}
    a628:	6c61766e 	stclvs	6, cr7, [r1], #-440	; 0xfffffe48
    a62c:	65206469 	strvs	r6, [r0, #-1129]!	; 0xfffffb97
    a630:	726f7272 	rsbvc	r7, pc, #536870919	; 0x20000007
    a634:	0a0a2121 	beq	292ac0 <__bss_end__+0x2877c8>
    a638:	00000000 	andeq	r0, r0, r0
    a63c:	43415254 	movtmi	r5, #4692	; 0x1254
    a640:	55533a45 	ldrbpl	r3, [r3, #-2629]	; 0xfffff5bb
    a644:	53454343 	movtpl	r4, #21315	; 0x5343
    a648:	65682053 	strbvs	r2, [r8, #-83]!	; 0xffffffad
    a64c:	63207061 			; <UNDEFINED> instruction: 0x63207061
    a650:	6b636568 	blvs	18e3bf8 <__bss_end__+0x18d8900>
    a654:	6f206465 	svcvs	0x00206465
    a658:	000a7475 	andeq	r7, sl, r5, ror r4

0000a65c <__FUNCTION__.4028>:
    a65c:	6d746f6e 	ldclvs	15, cr6, [r4, #-440]!	; 0xfffffe48
    a660:	006e6961 	rsbeq	r6, lr, r1, ror #18
    a664:	6e756f66 	cdpvs	15, 7, cr6, cr5, cr6, {3}
    a668:	70252064 	eorvc	r2, r5, r4, rrx
    a66c:	206e6920 	rsbcs	r6, lr, r0, lsr #18
    a670:	000a7025 	andeq	r7, sl, r5, lsr #32
    a674:	253a7325 	ldrcs	r7, [sl, #-805]!	; 0xfffffcdb
    a678:	64253a73 	strtvs	r3, [r5], #-2675	; 0xfffff58d
    a67c:	0000003a 	andeq	r0, r0, sl, lsr r0
    a680:	65657266 	strbvs	r7, [r5, #-614]!	; 0xfffffd9a
    a684:	20676e69 	rsbcs	r6, r7, r9, ror #28
    a688:	0a702509 	beq	1c13ab4 <__bss_end__+0x1c087bc>
    a68c:	00000000 	andeq	r0, r0, r0
    a690:	5f434f4c 	svcpl	0x00434f4c
    a694:	494e4150 	stmdbmi	lr, {r4, r6, r8, lr}^
    a698:	25203a43 	strcs	r3, [r0, #-2627]!	; 0xfffff5bd
    a69c:	73253a73 			; <UNDEFINED> instruction: 0x73253a73
    a6a0:	3a64253a 	bcc	1913b90 <__bss_end__+0x1908898>
    a6a4:	00000000 	andeq	r0, r0, r0
    a6a8:	65657266 	strbvs	r7, [r5, #-614]!	; 0xfffffd9a
    a6ac:	20676e69 	rsbcs	r6, r7, r9, ror #28
    a6b0:	6c616e75 	stclvs	14, cr6, [r1], #-468	; 0xfffffe2c
    a6b4:	61636f6c 	cmnvs	r3, ip, ror #30
    a6b8:	20646574 	rsbcs	r6, r4, r4, ror r5
    a6bc:	6f6d656d 	svcvs	0x006d656d
    a6c0:	203a7972 	eorscs	r7, sl, r2, ror r9
    a6c4:	74617473 	strbtvc	r7, [r1], #-1139	; 0xfffffb8d
    a6c8:	64253d65 	strtvs	r3, [r5], #-3429	; 0xfffff29b
    a6cc:	0000000a 	andeq	r0, r0, sl
    a6d0:	7a646572 	bvc	1923ca0 <__bss_end__+0x19189a8>
    a6d4:	20656e6f 	rsbcs	r6, r5, pc, ror #28
    a6d8:	77203123 	strvc	r3, [r0, -r3, lsr #2]!
    a6dc:	63207361 			; <UNDEFINED> instruction: 0x63207361
    a6e0:	7572726f 	ldrbvc	r7, [r2, #-623]!	; 0xfffffd91
    a6e4:	64657470 	strbtvs	r7, [r5], #-1136	; 0xfffffb90
    a6e8:	00000a21 	andeq	r0, r0, r1, lsr #20
    a6ec:	7a646572 	bvc	1923cbc <__bss_end__+0x19189c4>
    a6f0:	20656e6f 	rsbcs	r6, r5, pc, ror #28
    a6f4:	77203223 	strvc	r3, [r0, -r3, lsr #4]!
    a6f8:	63207361 			; <UNDEFINED> instruction: 0x63207361
    a6fc:	7572726f 	ldrbvc	r7, [r2, #-623]!	; 0xfffffd91
    a700:	64657470 	strbtvs	r7, [r5], #-1136	; 0xfffffb90
    a704:	00000a21 	andeq	r0, r0, r1, lsr #20
    a708:	6c616b63 			; <UNDEFINED> instruction: 0x6c616b63
    a70c:	2e636f6c 	cdpcs	15, 6, cr6, cr3, cr12, {3}
    a710:	00000063 	andeq	r0, r0, r3, rrx
    a714:	494e4150 	stmdbmi	lr, {r4, r6, r8, lr}^
    a718:	73253a43 			; <UNDEFINED> instruction: 0x73253a43
    a71c:	3a73253a 	bcc	1cd3c0c <__bss_end__+0x1cc8914>
    a720:	253a6425 	ldrcs	r6, [sl, #-1061]!	; 0xfffffbdb
    a724:	00000a73 	andeq	r0, r0, r3, ror sl
    a728:	705f6b63 	subsvc	r6, pc, r3, ror #22
    a72c:	695f7274 	ldmdbvs	pc, {r2, r4, r5, r6, r9, ip, sp, lr}^	; <UNPREDICTABLE>
    a730:	6c615f73 	stclvs	15, cr5, [r1], #-460	; 0xfffffe34
    a734:	65636f6c 	strbvs	r6, [r3, #-3948]!	; 0xfffff094
    a738:	64612864 	strbtvs	r2, [r1], #-2148	; 0xfffff79c
    a73c:	00297264 	eoreq	r7, r9, r4, ror #4
    a740:	6f6c6c61 	svcvs	0x006c6c61
    a744:	69746163 	ldmdbvs	r4!, {r0, r1, r5, r6, r8, sp, lr}^
    a748:	2520676e 	strcs	r6, [r0, #-1902]!	; 0xfffff892
    a74c:	25282070 	strcs	r2, [r8, #-112]!	; 0xffffff90
    a750:	79622064 	stmdbvc	r2!, {r2, r5, r6, sp}^
    a754:	29736574 	ldmdbcs	r3!, {r2, r4, r5, r6, r8, sl, sp, lr}^
    a758:	0000000a 	andeq	r0, r0, sl

0000a75c <__FUNCTION__.4081>:
    a75c:	72666b63 	rsbvc	r6, r6, #101376	; 0x18c00
    a760:	00006565 	andeq	r6, r0, r5, ror #10
    a764:	75716552 	ldrbvc	r6, [r1, #-1362]!	; 0xfffffaae
    a768:	74737265 	ldrbtvc	r7, [r3], #-613	; 0xfffffd9b
    a76c:	20676e69 	rsbcs	r6, r7, r9, ror #28
    a770:	65726f6d 	ldrbvs	r6, [r2, #-3949]!	; 0xfffff093
    a774:	6d656d20 	stclvs	13, cr6, [r5, #-128]!	; 0xffffff80
    a778:	2079726f 	rsbscs	r7, r9, pc, ror #4
    a77c:	29642528 	stmdbcs	r4!, {r3, r5, r8, sl, sp}^
    a780:	0a2e2e2e 	beq	b96040 <__bss_end__+0xb8ad48>
    a784:	00000000 	andeq	r0, r0, r0
    a788:	672d6b63 	strvs	r6, [sp, -r3, ror #22]!
    a78c:	00632e63 	rsbeq	r2, r3, r3, ror #28
    a790:	203c2070 	eorscs	r2, ip, r0, ror r0
    a794:	00000065 	andeq	r0, r0, r5, rrx
    a798:	67696c61 	strbvs	r6, [r9, -r1, ror #24]!
    a79c:	2864656e 	stmdacs	r4!, {r1, r2, r3, r5, r6, r8, sl, sp, lr}^
    a7a0:	34202c70 	strtcc	r2, [r0], #-3184	; 0xfffff390
    a7a4:	00000029 	andeq	r0, r0, r9, lsr #32
    a7a8:	67696c61 	strbvs	r6, [r9, -r1, ror #24]!
    a7ac:	2864656e 	stmdacs	r4!, {r1, r2, r3, r5, r6, r8, sl, sp, lr}^
    a7b0:	34202c65 	strtcc	r2, [r0], #-3173	; 0xfffff39b
    a7b4:	00000029 	andeq	r0, r0, r9, lsr #32
    a7b8:	6e696f67 	cdpvs	15, 6, cr6, cr9, cr7, {3}
    a7bc:	6f742067 	svcvs	0x00742067
    a7c0:	72616d20 	rsbvc	r6, r1, #32, 26	; 0x800
    a7c4:	7025206b 	eorvc	r2, r5, fp, rrx
    a7c8:	20692820 	rsbcs	r2, r9, r0, lsr #16
    a7cc:	70252040 	eorvc	r2, r5, r0, asr #32
    a7d0:	25203d20 	strcs	r3, [r0, #-3360]!	; 0xfffff2e0
    a7d4:	202c2970 	eorcs	r2, ip, r0, ror r9
    a7d8:	20707865 	rsbscs	r7, r0, r5, ror #16
    a7dc:	7025203d 	eorvc	r2, r5, sp, lsr r0
    a7e0:	0000000a 	andeq	r0, r0, sl
    a7e4:	6b72616d 	blvs	1ca2da0 <__bss_end__+0x1c97aa8>
    a7e8:	20676e69 	rsbcs	r6, r7, r9, ror #28
    a7ec:	25207361 	strcs	r7, [r0, #-865]!	; 0xfffffc9f
    a7f0:	00000a64 	andeq	r0, r0, r4, ror #20
    a7f4:	20746f6e 	rsbscs	r6, r4, lr, ror #30
    a7f8:	6b72616d 	blvs	1ca2db4 <__bss_end__+0x1c97abc>
    a7fc:	21676e69 	cmncs	r7, r9, ror #28
    a800:	0000000a 	andeq	r0, r0, sl
    a804:	63656863 	cmnvs	r5, #6488064	; 0x630000
    a808:	676e696b 	strbvs	r6, [lr, -fp, ror #18]!
    a80c:	61747320 	cmnvs	r4, r0, lsr #6
    a810:	203a6b63 	eorscs	r6, sl, r3, ror #22
    a814:	74207025 	strtvc	r7, [r0], #-37	; 0xffffffdb
    a818:	7025206f 	eorvc	r2, r5, pc, rrx
    a81c:	0000000a 	andeq	r0, r0, sl
    a820:	2d2d2d2d 	stccs	13, cr2, [sp, #-180]!	; 0xffffff4c
    a824:	2d2d2d2d 	stccs	13, cr2, [sp, #-180]!	; 0xffffff4c
    a828:	2d2d2d2d 	stccs	13, cr2, [sp, #-180]!	; 0xffffff4c
    a82c:	2d2d2d2d 	stccs	13, cr2, [sp, #-180]!	; 0xffffff4c
    a830:	2d2d2d2d 	stccs	13, cr2, [sp, #-180]!	; 0xffffff4c
    a834:	2d2d2d2d 	stccs	13, cr2, [sp, #-180]!	; 0xffffff4c
    a838:	2d2d2d2d 	stccs	13, cr2, [sp, #-180]!	; 0xffffff4c
    a83c:	2d2d2d2d 	stccs	13, cr2, [sp, #-180]!	; 0xffffff4c
    a840:	2d2d2d2d 	stccs	13, cr2, [sp, #-180]!	; 0xffffff4c
    a844:	2d2d2d2d 	stccs	13, cr2, [sp, #-180]!	; 0xffffff4c
    a848:	2d2d2d2d 	stccs	13, cr2, [sp, #-180]!	; 0xffffff4c
    a84c:	2d2d2d2d 	stccs	13, cr2, [sp, #-180]!	; 0xffffff4c
    a850:	2d2d2d2d 	stccs	13, cr2, [sp, #-180]!	; 0xffffff4c
    a854:	2d2d2d2d 	stccs	13, cr2, [sp, #-180]!	; 0xffffff4c
    a858:	00000a2d 	andeq	r0, r0, sp, lsr #20
    a85c:	63656863 	cmnvs	r5, #6488064	; 0x630000
    a860:	676e696b 	strbvs	r6, [lr, -fp, ror #18]!
    a864:	726f6620 	rsbvc	r6, pc, #32, 12	; 0x2000000
    a868:	61656c20 	cmnvs	r5, r0, lsr #24
    a86c:	0a3a736b 	beq	ea7620 <__bss_end__+0xe9c328>
    a870:	00000000 	andeq	r0, r0, r0
    a874:	4c3a4347 	ldcmi	3, cr4, [sl], #-284	; 0xfffffee4
    a878:	2054534f 	subscs	r5, r4, pc, asr #6
    a87c:	2d206425 	cfstrscs	mvf6, [r0, #-148]!	; 0xffffff6c
    a880:	7025203e 	eorvc	r2, r5, lr, lsr r0
    a884:	0000000a 	andeq	r0, r0, sl
    a888:	4d3a4347 	ldcmi	3, cr4, [sl, #-284]!	; 0xfffffee4
    a88c:	45425941 	strbmi	r5, [r2, #-2369]	; 0xfffff6bf
    a890:	534f4c20 	movtpl	r4, #64544	; 0xfc20
    a894:	64252054 	strtvs	r2, [r5], #-84	; 0xffffffac
    a898:	203e2d20 	eorscs	r2, lr, r0, lsr #26
    a89c:	000a7025 	andeq	r7, sl, r5, lsr #32
    a8a0:	43415254 	movtmi	r5, #4692	; 0x1254
    a8a4:	47093a45 	strmi	r3, [r9, -r5, asr #20]
    a8a8:	68433a43 	stmdavs	r3, {r0, r1, r6, r9, fp, ip, sp}^
    a8ac:	656b6365 	strbvs	r6, [fp, #-869]!	; 0xfffffc9b
    a8b0:	64252064 	strtvs	r2, [r5], #-100	; 0xffffff9c
    a8b4:	6f6c6220 	svcvs	0x006c6220
    a8b8:	2e736b63 	vsubcs.f64	d22, d3, d19
    a8bc:	0000000a 	andeq	r0, r0, sl
    a8c0:	43415254 	movtmi	r5, #4692	; 0x1254
    a8c4:	09093a45 	stmdbeq	r9, {r0, r2, r6, r9, fp, ip, sp}
    a8c8:	533a4347 	teqpl	sl, #469762049	; 0x1c000001
    a8cc:	45434355 	strbmi	r4, [r3, #-853]	; 0xfffffcab
    a8d0:	203a5353 	eorscs	r5, sl, r3, asr r3
    a8d4:	6c206f4e 	stcvs	15, cr6, [r0], #-312	; 0xfffffec8
    a8d8:	736b6165 	cmnvc	fp, #1073741849	; 0x40000019
    a8dc:	756f6620 	strbvc	r6, [pc, #-1568]!	; a2c4 <kfree_pop>
    a8e0:	0a21646e 	beq	863aa0 <__bss_end__+0x8587a8>
    a8e4:	00000000 	andeq	r0, r0, r0
    a8e8:	43415254 	movtmi	r5, #4692	; 0x1254
    a8ec:	09093a45 	stmdbeq	r9, {r0, r2, r6, r9, fp, ip, sp}
    a8f0:	453a4347 	ldrmi	r4, [sl, #-839]!	; 0xfffffcb9
    a8f4:	524f5252 	subpl	r5, pc, #536870917	; 0x20000005
    a8f8:	25203a53 	strcs	r3, [r0, #-2643]!	; 0xfffff5ad
    a8fc:	72652064 	rsbvc	r2, r5, #100, 0	; 0x64
    a900:	73726f72 	cmnvc	r2, #456	; 0x1c8
    a904:	6425202c 	strtvs	r2, [r5], #-44	; 0xffffffd4
    a908:	79616d20 	stmdbvc	r1!, {r5, r8, sl, fp, sp, lr}^
    a90c:	655f6562 	ldrbvs	r6, [pc, #-1378]	; a3b2 <gpio_set_output+0x2e>
    a910:	726f7272 	rsbvc	r7, pc, #536870919	; 0x20000007
    a914:	00000a73 	andeq	r0, r0, r3, ror sl
    a918:	2d2d2d2d 	stccs	13, cr2, [sp, #-180]!	; 0xffffff4c
    a91c:	2d2d2d2d 	stccs	13, cr2, [sp, #-180]!	; 0xffffff4c
    a920:	2d2d2d2d 	stccs	13, cr2, [sp, #-180]!	; 0xffffff4c
    a924:	2d2d2d2d 	stccs	13, cr2, [sp, #-180]!	; 0xffffff4c
    a928:	2d2d2d2d 	stccs	13, cr2, [sp, #-180]!	; 0xffffff4c
    a92c:	2d2d2d2d 	stccs	13, cr2, [sp, #-180]!	; 0xffffff4c
    a930:	2d2d2d2d 	stccs	13, cr2, [sp, #-180]!	; 0xffffff4c
    a934:	2d2d2d2d 	stccs	13, cr2, [sp, #-180]!	; 0xffffff4c
    a938:	2d2d2d2d 	stccs	13, cr2, [sp, #-180]!	; 0xffffff4c
    a93c:	2d2d2d2d 	stccs	13, cr2, [sp, #-180]!	; 0xffffff4c
    a940:	2d2d2d2d 	stccs	13, cr2, [sp, #-180]!	; 0xffffff4c
    a944:	2d2d2d2d 	stccs	13, cr2, [sp, #-180]!	; 0xffffff4c
    a948:	2d2d2d2d 	stccs	13, cr2, [sp, #-180]!	; 0xffffff4c
    a94c:	2d2d2d2d 	stccs	13, cr2, [sp, #-180]!	; 0xffffff4c
    a950:	000a2d2d 	andeq	r2, sl, sp, lsr #26
    a954:	706d6f63 	rsbvc	r6, sp, r3, ror #30
    a958:	69746361 	ldmdbvs	r4!, {r0, r5, r6, r8, r9, sp, lr}^
    a95c:	0a3a676e 	beq	ea471c <__bss_end__+0xe99424>
    a960:	00000000 	andeq	r0, r0, r0
    a964:	463a4347 	ldrtmi	r4, [sl], -r7, asr #6
    a968:	44454552 	strbmi	r4, [r5], #-1362	; 0xfffffaae
    a96c:	0a702520 	beq	1c13df4 <__bss_end__+0x1c08afc>
    a970:	00000000 	andeq	r0, r0, r0
    a974:	43415254 	movtmi	r5, #4692	; 0x1254
    a978:	47093a45 	strmi	r3, [r9, -r5, asr #20]
    a97c:	68433a43 	stmdavs	r3, {r0, r1, r6, r9, fp, ip, sp}^
    a980:	656b6365 	strbvs	r6, [fp, #-869]!	; 0xfffffc9b
    a984:	64252064 	strtvs	r2, [r5], #-100	; 0xffffff9c
    a988:	6f6c6220 	svcvs	0x006c6220
    a98c:	2c736b63 			; <UNDEFINED> instruction: 0x2c736b63
    a990:	65726620 	ldrbvs	r6, [r2, #-1568]!	; 0xfffff9e0
    a994:	25206465 	strcs	r6, [r0, #-1125]!	; 0xfffffb9b
    a998:	25202c64 	strcs	r2, [r0, #-3172]!	; 0xfffff39c
    a99c:	79622064 	stmdbvc	r2!, {r2, r5, r6, sp}^
    a9a0:	0a736574 	beq	1ce3f78 <__bss_end__+0x1cd8c80>
    a9a4:	00000000 	andeq	r0, r0, r0
    a9a8:	72636e69 	rsbvc	r6, r3, #1680	; 0x690
    a9ac:	6e656d65 	cdpvs	13, 6, cr6, cr5, cr5, {3}
    a9b0:	203e2074 	eorscs	r2, lr, r4, ror r0
    a9b4:	00000030 	andeq	r0, r0, r0, lsr r0
    a9b8:	494e4150 	stmdbmi	lr, {r4, r6, r8, lr}^
    a9bc:	73253a43 			; <UNDEFINED> instruction: 0x73253a43
    a9c0:	3a73253a 	bcc	1cd3eb0 <__bss_end__+0x1cc8bb8>
    a9c4:	6e3a6425 	cdpvs	4, 3, cr6, cr10, cr5, {1}
    a9c8:	6820746f 	stmdavs	r0!, {r0, r1, r2, r3, r5, r6, sl, ip, sp, lr}
    a9cc:	6c646e61 	stclvs	14, cr6, [r4], #-388	; 0xfffffe7c
    a9d0:	0a676e69 	beq	19e637c <__bss_end__+0x19db084>
    a9d4:	0000000a 	andeq	r0, r0, sl
    a9d8:	73696874 	cmnvc	r9, #116, 16	; 0x740000
    a9dc:	6c6c6120 	stfvse	f6, [ip], #-128	; 0xffffff80
    a9e0:	7461636f 	strbtvc	r6, [r1], #-879	; 0xfffffc91
    a9e4:	276e6f69 	strbcs	r6, [lr, -r9, ror #30]!
    a9e8:	65722073 	ldrbvs	r2, [r2, #-115]!	; 0xffffff8d
    a9ec:	6e6f7a64 	vnmulvs.f32	s15, s30, s9
    a9f0:	77207365 	strvc	r7, [r0, -r5, ror #6]!
    a9f4:	20657265 	rsbcs	r7, r5, r5, ror #4
    a9f8:	74697277 	strbtvc	r7, [r9], #-631	; 0xfffffd89
    a9fc:	206e6574 	rsbcs	r6, lr, r4, ror r5
    aa00:	0a216f74 	beq	8667d8 <__bss_end__+0x85b4e0>
    aa04:	00000000 	andeq	r0, r0, r0
    aa08:	20736177 	rsbscs	r6, r3, r7, ror r1
    aa0c:	64657375 	strbtvs	r7, [r5], #-885	; 0xfffffc8b
    aa10:	74666120 	strbtvc	r6, [r6], #-288	; 0xfffffee0
    aa14:	66207265 	strtvs	r7, [r0], -r5, ror #4
    aa18:	21656572 	smccs	22098	; 0x5652
    aa1c:	0000000a 	andeq	r0, r0, sl
    aa20:	494e4150 	stmdbmi	lr, {r4, r6, r8, lr}^
    aa24:	73253a43 			; <UNDEFINED> instruction: 0x73253a43
    aa28:	3a73253a 	bcc	1cd3f18 <__bss_end__+0x1cc8c20>
    aa2c:	473a6425 	ldrmi	r6, [sl, -r5, lsr #8]!
    aa30:	73203a43 			; <UNDEFINED> instruction: 0x73203a43
    aa34:	6c756f68 	ldclvs	15, cr6, [r5], #-416	; 0xfffffe60
    aa38:	61682064 	cmnvs	r8, r4, rrx
    aa3c:	6e206576 	mcrvs	5, 1, r6, cr0, cr6, {3}
    aa40:	656c206f 	strbvs	r2, [ip, #-111]!	; 0xffffff91
    aa44:	21736b61 	cmncs	r3, r1, ror #22
    aa48:	00000a0a 	andeq	r0, r0, sl, lsl #20
    aa4c:	43415254 	movtmi	r5, #4692	; 0x1254
    aa50:	43473a45 	movtmi	r3, #31301	; 0x7a45
    aa54:	5553203a 	ldrbpl	r2, [r3, #-58]	; 0xffffffc6
    aa58:	53454343 	movtpl	r4, #21315	; 0x5343
    aa5c:	6e203a53 			; <UNDEFINED> instruction: 0x6e203a53
    aa60:	656c206f 	strbvs	r2, [ip, #-111]!	; 0xffffff91
    aa64:	21736b61 	cmncs	r3, r1, ror #22
    aa68:	0000000a 	andeq	r0, r0, sl
    aa6c:	494e4150 	stmdbmi	lr, {r4, r6, r8, lr}^
    aa70:	73253a43 			; <UNDEFINED> instruction: 0x73253a43
    aa74:	3a73253a 	bcc	1cd3f64 <__bss_end__+0x1cc8c6c>
    aa78:	473a6425 	ldrmi	r6, [sl, -r5, lsr #8]!
    aa7c:	73203a43 			; <UNDEFINED> instruction: 0x73203a43
    aa80:	6c756f68 	ldclvs	15, cr6, [r5], #-416	; 0xfffffe60
    aa84:	61682064 	cmnvs	r8, r4, rrx
    aa88:	6c206576 	cfstr32vs	mvfx6, [r0], #-472	; 0xfffffe28
    aa8c:	736b6165 	cmnvc	fp, #1073741849	; 0x40000019
    aa90:	000a0a21 	andeq	r0, sl, r1, lsr #20
    aa94:	43415254 	movtmi	r5, #4692	; 0x1254
    aa98:	43473a45 	movtmi	r3, #31301	; 0x7a45
    aa9c:	5553203a 	ldrbpl	r2, [r3, #-58]	; 0xffffffc6
    aaa0:	53454343 	movtpl	r4, #21315	; 0x5343
    aaa4:	66203a53 			; <UNDEFINED> instruction: 0x66203a53
    aaa8:	646e756f 	strbtvs	r7, [lr], #-1391	; 0xfffffa91
    aaac:	20642520 	rsbcs	r2, r4, r0, lsr #10
    aab0:	6b61656c 	blvs	1864068 <__bss_end__+0x1858d70>
    aab4:	000a2173 	andeq	r2, sl, r3, ror r1
    aab8:	494e4150 	stmdbmi	lr, {r4, r6, r8, lr}^
    aabc:	73253a43 			; <UNDEFINED> instruction: 0x73253a43
    aac0:	3a73253a 	bcc	1cd3fb0 <__bss_end__+0x1cc8cb8>
    aac4:	643a6425 	ldrtvs	r6, [sl], #-1061	; 0xfffffbdb
    aac8:	6e206469 	cdpvs	4, 2, cr6, cr0, cr9, {3}
    aacc:	6920746f 	stmdbvs	r0!, {r0, r1, r2, r3, r5, r6, sl, ip, sp, lr}
    aad0:	656c706d 	strbvs	r7, [ip, #-109]!	; 0xffffff93
    aad4:	746e656d 	strbtvc	r6, [lr], #-1389	; 0xfffffa93
    aad8:	6d756420 	cfldrdvs	mvd6, [r5, #-128]!	; 0xffffff80
    aadc:	65725f70 	ldrbvs	r5, [r2, #-3952]!	; 0xfffff090
    aae0:	0a217367 	beq	867884 <__bss_end__+0x85c58c>
    aae4:	0000000a 	andeq	r0, r0, sl

0000aae8 <__FUNCTION__.4049>:
    aae8:	6b72616d 	blvs	1ca30a4 <__bss_end__+0x1c97dac>
    aaec:	00000000 	andeq	r0, r0, r0

0000aaf0 <__FUNCTION__.4123>:
    aaf0:	65657773 	strbvs	r7, [r5, #-1907]!	; 0xfffff88d
    aaf4:	72665f70 	rsbvc	r5, r6, #112, 30	; 0x1c0
    aaf8:	00006565 	andeq	r6, r0, r5, ror #10

0000aafc <__FUNCTION__.4036>:
    aafc:	6b726273 	blvs	1ca34d0 <__bss_end__+0x1c981d8>
    ab00:	00000000 	andeq	r0, r0, r0

0000ab04 <__FUNCTION__.4110>:
    ab04:	63656863 	cmnvs	r5, #6488064	; 0x630000
    ab08:	6f6e5f6b 	svcvs	0x006e5f6b
    ab0c:	61656c5f 	cmnvs	r5, pc, asr ip
    ab10:	0000006b 	andeq	r0, r0, fp, rrx

0000ab14 <__FUNCTION__.4115>:
    ab14:	63656863 	cmnvs	r5, #6488064	; 0x630000
    ab18:	68735f6b 	ldmdavs	r3!, {r0, r1, r3, r5, r6, r8, r9, sl, fp, ip, lr}^
    ab1c:	646c756f 	strbtvs	r7, [ip], #-1391	; 0xfffffa91
    ab20:	61656c5f 	cmnvs	r5, pc, asr ip
    ab24:	0000006b 	andeq	r0, r0, fp, rrx

0000ab28 <__FUNCTION__.4134>:
    ab28:	6c706d69 	ldclvs	13, cr6, [r0], #-420	; 0xfffffe5c
    ab2c:	6e656d65 	cdpvs	13, 6, cr6, cr5, cr5, {3}
    ab30:	68745f74 	ldmdavs	r4!, {r2, r4, r5, r6, r8, r9, sl, fp, ip, lr}^
    ab34:	00007369 	andeq	r7, r0, r9, ror #6
    ab38:	003f3f3f 	eorseq	r3, pc, pc, lsr pc	; <UNPREDICTABLE>
    ab3c:	20642523 	rsbcs	r2, r4, r3, lsr #10
    ab40:	28207825 	stmdacs	r0!, {r0, r2, r5, fp, ip, sp, lr}
    ab44:	0a297325 	beq	a677e0 <__bss_end__+0xa5c4e8>
    ab48:	00000000 	andeq	r0, r0, r0
    ab4c:	696c2f2e 	stmdbvs	ip!, {r1, r2, r3, r5, r8, r9, sl, fp, sp}^
    ab50:	762f6362 	strtvc	r6, [pc], -r2, ror #6
    ab54:	72702d61 	rsbsvc	r2, r0, #6208	; 0x1840
    ab58:	6b746e69 	blvs	1d26504 <__bss_end__+0x1d1b20c>
    ab5c:	0000632e 	andeq	r6, r0, lr, lsr #6
    ab60:	33323130 	teqcc	r2, #12
    ab64:	37363534 			; <UNDEFINED> instruction: 0x37363534
    ab68:	62613938 	rsbvs	r3, r1, #56, 18	; 0xe0000
    ab6c:	66656463 	strbtvs	r6, [r5], -r3, ror #8
    ab70:	00000000 	andeq	r0, r0, r0
    ab74:	00003130 	andeq	r3, r0, r0, lsr r1
    ab78:	33323130 	teqcc	r2, #12
    ab7c:	37363534 			; <UNDEFINED> instruction: 0x37363534
    ab80:	00003938 	andeq	r3, r0, r8, lsr r9
    ab84:	63747570 	cmnvs	r4, #112, 10	; 0x1c000000
    ab88:	0070665f 	rsbseq	r6, r0, pc, asr r6
    ab8c:	74646977 	strbtvc	r6, [r4], #-2423	; 0xfffff689
    ab90:	203c2068 	eorscs	r2, ip, r8, rrx
    ab94:	00003233 	andeq	r3, r0, r3, lsr r2
    ab98:	00786c6c 	rsbseq	r6, r8, ip, ror #24
    ab9c:	253d3078 	ldrcs	r3, [sp, #-120]!	; 0xffffff88
    aba0:	00000a78 	andeq	r0, r0, r8, ror sl
    aba4:	253d3178 	ldrcs	r3, [sp, #-376]!	; 0xfffffe88
    aba8:	00000a78 	andeq	r0, r0, r8, ror sl
    abac:	00646c6c 	rsbeq	r6, r4, ip, ror #24
    abb0:	6e727473 	mrcvs	4, 3, r7, cr2, cr3, {3}
    abb4:	28706d63 	ldmdacs	r0!, {r0, r1, r5, r6, r8, sl, fp, sp, lr}^
    abb8:	202c7974 	eorcs	r7, ip, r4, ror r9
    abbc:	786c6c22 	stmdavc	ip!, {r1, r5, sl, fp, sp, lr}^
    abc0:	33202c22 			; <UNDEFINED> instruction: 0x33202c22
    abc4:	3d3d2029 	ldccc	0, cr2, [sp, #-164]!	; 0xffffff5c
    abc8:	7c203020 	stcvc	0, cr3, [r0], #-128	; 0xffffff80
    abcc:	7473207c 	ldrbtvc	r2, [r3], #-124	; 0xffffff84
    abd0:	6d636e72 	stclvs	14, cr6, [r3, #-456]!	; 0xfffffe38
    abd4:	79742870 	ldmdbvc	r4!, {r4, r5, r6, fp, sp}^
    abd8:	6c22202c 	stcvs	0, cr2, [r2], #-176	; 0xffffff50
    abdc:	2c22646c 	cfstrscs	mvf6, [r2], #-432	; 0xfffffe50
    abe0:	20293320 	eorcs	r3, r9, r0, lsr #6
    abe4:	30203d3d 	eorcc	r3, r0, sp, lsr sp
    abe8:	00000000 	andeq	r0, r0, r0
    abec:	494e4150 	stmdbmi	lr, {r4, r6, r8, lr}^
    abf0:	73253a43 			; <UNDEFINED> instruction: 0x73253a43
    abf4:	3a73253a 	bcc	1cd40e4 <__bss_end__+0x1cc8dec>
    abf8:	693a6425 	ldmdbvs	sl!, {r0, r2, r5, sl, sp, lr}
    abfc:	736f706d 	cmnvc	pc, #109, 0	; 0x6d
    ac00:	6c626973 			; <UNDEFINED> instruction: 0x6c626973
    ac04:	66203a65 	strtvs	r3, [r0], -r5, ror #20
    ac08:	3c3d746d 	cfldrscc	mvf7, [sp], #-436	; 0xfffffe4c
    ac0c:	0a3e7325 	beq	fa78a8 <__bss_end__+0xf9c5b0>
    ac10:	0000000a 	andeq	r0, r0, sl
    ac14:	494e4150 	stmdbmi	lr, {r4, r6, r8, lr}^
    ac18:	73253a43 			; <UNDEFINED> instruction: 0x73253a43
    ac1c:	3a73253a 	bcc	1cd410c <__bss_end__+0x1cc8e14>
    ac20:	663a6425 	ldrtvs	r6, [sl], -r5, lsr #8
    ac24:	74616f6c 	strbtvc	r6, [r1], #-3948	; 0xfffff094
    ac28:	746f6e20 	strbtvc	r6, [pc], #-3616	; ac30 <__FUNCTION__.4134+0x108>
    ac2c:	616e6520 	cmnvs	lr, r0, lsr #10
    ac30:	64656c62 	strbtvs	r6, [r5], #-3170	; 0xfffff39e
    ac34:	0a212121 	beq	8530c0 <__bss_end__+0x847dc8>
    ac38:	00000000 	andeq	r0, r0, r0
    ac3c:	6e697270 	mcrvs	2, 3, r7, cr9, cr0, {3}
    ac40:	203a6b74 	eorscs	r6, sl, r4, ror fp
    ac44:	20746f6e 	rsbscs	r6, r4, lr, ror #30
    ac48:	646e6168 	strbtvs	r6, [lr], #-360	; 0xfffffe98
    ac4c:	676e696c 	strbvs	r6, [lr, -ip, ror #18]!
    ac50:	65707320 	ldrbvs	r7, [r0, #-800]!	; 0xfffffce0
    ac54:	69666963 	stmdbvs	r6!, {r0, r1, r5, r6, r8, fp, sp, lr}^
    ac58:	27207265 	strcs	r7, [r0, -r5, ror #4]!
    ac5c:	20276325 	eorcs	r6, r7, r5, lsr #6
    ac60:	63736128 	cmnvs	r3, #10
    ac64:	253d6969 	ldrcs	r6, [sp, #-2409]!	; 0xfffff697
    ac68:	000a2964 	andeq	r2, sl, r4, ror #18
    ac6c:	494e4150 	stmdbmi	lr, {r4, r6, r8, lr}^
    ac70:	73253a43 			; <UNDEFINED> instruction: 0x73253a43
    ac74:	3a73253a 	bcc	1cd4164 <__bss_end__+0x1cc8e6c>
    ac78:	703a6425 	eorsvc	r6, sl, r5, lsr #8
    ac7c:	746e6972 	strbtvc	r6, [lr], #-2418	; 0xfffff68e
    ac80:	7265206b 	rsbvc	r2, r5, #107, 0	; 0x6b
    ac84:	0a726f72 	beq	1ca6a54 <__bss_end__+0x1c9b75c>
    ac88:	0000000a 	andeq	r0, r0, sl

0000ac8c <__FUNCTION__.4004>:
    ac8c:	74696d65 	strbtvc	r6, [r9], #-3429	; 0xfffff29b
    ac90:	00000000 	andeq	r0, r0, r0

0000ac94 <__FUNCTION__.3952>:
    ac94:	5f697072 	svcpl	0x00697072
    ac98:	5f746573 	svcpl	0x00746573
    ac9c:	7074756f 	rsbsvc	r7, r4, pc, ror #10
    aca0:	00007475 	andeq	r7, r0, r5, ror r4

0000aca4 <__FUNCTION__.4030>:
    aca4:	705f6176 	subsvc	r6, pc, r6, ror r1	; <UNPREDICTABLE>
    aca8:	746e6972 	strbtvc	r6, [lr], #-2418	; 0xfffff68e
    acac:	0000006b 	andeq	r0, r0, fp, rrx
    acb0:	454e4f44 	strbmi	r4, [lr, #-3908]	; 0xfffff0bc
    acb4:	0a212121 	beq	853140 <__bss_end__+0x847e48>
    acb8:	00000000 	andeq	r0, r0, r0
    acbc:	6c616d6b 	stclvs	13, cr6, [r1], #-428	; 0xfffffe54
    acc0:	2e636f6c 	cdpcs	15, 6, cr6, cr3, cr12, {3}
    acc4:	00000063 	andeq	r0, r0, r3, rrx
    acc8:	5f78616d 	svcpl	0x0078616d
    accc:	7479626e 	ldrbtvc	r6, [r9], #-622	; 0xfffffd92
    acd0:	00007365 	andeq	r7, r0, r5, ror #6
    acd4:	494e4150 	stmdbmi	lr, {r4, r6, r8, lr}^
    acd8:	73253a43 			; <UNDEFINED> instruction: 0x73253a43
    acdc:	3a73253a 	bcc	1cd41cc <__bss_end__+0x1cc8ed4>
    ace0:	733a6425 	teqvc	sl, #620756992	; 0x25000000
    ace4:	69747465 	ldmdbvs	r4!, {r0, r2, r5, r6, sl, ip, sp, lr}^
    ace8:	6820676e 	stmdavs	r0!, {r1, r2, r3, r5, r6, r8, r9, sl, sp, lr}
    acec:	20706165 	rsbscs	r6, r0, r5, ror #2
    acf0:	25206f74 	strcs	r6, [r0, #-3956]!	; 0xfffff08c
    acf4:	77203a70 			; <UNDEFINED> instruction: 0x77203a70
    acf8:	206c6c69 	rsbcs	r6, ip, r9, ror #24
    acfc:	20746968 	rsbscs	r6, r4, r8, ror #18
    ad00:	20656874 	rsbcs	r6, r5, r4, ror r8
    ad04:	20646c6f 	rsbcs	r6, r4, pc, ror #24
    ad08:	70616568 	rsbvc	r6, r1, r8, ror #10
    ad0c:	20746120 	rsbscs	r6, r4, r0, lsr #2
    ad10:	0a0a7025 	beq	2a6dac <__bss_end__+0x29bab4>
    ad14:	00000000 	andeq	r0, r0, r0
    ad18:	494e4150 	stmdbmi	lr, {r4, r6, r8, lr}^
    ad1c:	73253a43 			; <UNDEFINED> instruction: 0x73253a43
    ad20:	3a73253a 	bcc	1cd4210 <__bss_end__+0x1cc8f18>
    ad24:	613a6425 	teqvs	sl, r5, lsr #8
    ad28:	6165726c 	cmnvs	r5, ip, ror #4
    ad2c:	63207964 			; <UNDEFINED> instruction: 0x63207964
    ad30:	656c6c61 	strbvs	r6, [ip, #-3169]!	; 0xfffff39f
    ad34:	6d6b2064 	stclvs	0, cr2, [fp, #-400]!	; 0xfffffe70
    ad38:	6f6c6c61 	svcvs	0x006c6c61
    ad3c:	6e695f63 	cdpvs	15, 6, cr5, cr9, cr3, {3}
    ad40:	0a0a7469 	beq	2a7eec <__bss_end__+0x29cbf4>
    ad44:	00000000 	andeq	r0, r0, r0
    ad48:	494e4150 	stmdbmi	lr, {r4, r6, r8, lr}^
    ad4c:	73253a43 			; <UNDEFINED> instruction: 0x73253a43
    ad50:	3a73253a 	bcc	1cd4240 <__bss_end__+0x1cc8f48>
    ad54:	253a6425 	ldrcs	r6, [sl, #-1061]!	; 0xfffffbdb
    ad58:	626e2064 	rsbvs	r2, lr, #100, 0	; 0x64
    ad5c:	73657479 	cmnvc	r5, #2030043136	; 0x79000000
    ad60:	63786520 	cmnvs	r8, #32, 10	; 0x8000000
    ad64:	65646565 	strbvs	r6, [r4, #-1381]!	; 0xfffffa9b
    ad68:	69732064 	ldmdbvs	r3!, {r2, r5, r6, sp}^
    ad6c:	6f20657a 	svcvs	0x0020657a
    ad70:	65682066 	strbvs	r2, [r8, #-102]!	; 0xffffff9a
    ad74:	62207061 	eorvs	r7, r0, #97, 0	; 0x61
    ad78:	75252079 	strvc	r2, [r5, #-121]!	; 0xffffff87
    ad7c:	79626e20 	stmdbvc	r2!, {r5, r9, sl, fp, sp, lr}^
    ad80:	0a736574 	beq	1ce4358 <__bss_end__+0x1cd9060>
    ad84:	0000000a 	andeq	r0, r0, sl
    ad88:	4f525245 	svcmi	0x00525245
    ad8c:	73253a52 			; <UNDEFINED> instruction: 0x73253a52
    ad90:	3a73253a 	bcc	1cd4280 <__bss_end__+0x1cc8f88>
    ad94:	203a6425 	eorscs	r6, sl, r5, lsr #8
    ad98:	534c4146 	movtpl	r4, #49478	; 0xc146
    ad9c:	253c2845 	ldrcs	r2, [ip, #-2117]!	; 0xfffff7bb
    ada0:	3a293e73 	bcc	a5a774 <__bss_end__+0xa4f47c>
    ada4:	73736120 	cmnvc	r3, #8
    ada8:	6e696d75 	mcrvs	13, 3, r6, cr9, cr5, {3}
    adac:	6f702067 	svcvs	0x00702067
    adb0:	20726577 	rsbscs	r6, r2, r7, ror r5
    adb4:	7420666f 	strtvc	r6, [r0], #-1647	; 0xfffff991
    adb8:	000a6f77 	andeq	r6, sl, r7, ror pc
    adbc:	705f7369 	subsvc	r7, pc, r9, ror #6
    adc0:	2832776f 	ldmdacs	r2!, {r0, r1, r2, r3, r5, r6, r8, r9, sl, ip, sp, lr}
    adc4:	67696c61 	strbvs	r6, [r9, -r1, ror #24]!
    adc8:	6e656d6e 	cdpvs	13, 6, cr6, cr5, cr14, {3}
    adcc:	00002974 	andeq	r2, r0, r4, ror r9
    add0:	705f7369 	subsvc	r7, pc, r9, ror #6
    add4:	2832776f 	ldmdacs	r2!, {r0, r1, r2, r3, r5, r6, r8, r9, sl, ip, sp, lr}
    add8:	0000296e 	andeq	r2, r0, lr, ror #18
    addc:	4f525245 	svcmi	0x00525245
    ade0:	73253a52 			; <UNDEFINED> instruction: 0x73253a52
    ade4:	3a73253a 	bcc	1cd42d4 <__bss_end__+0x1cc8fdc>
    ade8:	203a6425 	eorscs	r6, sl, r5, lsr #8
    adec:	534c4146 	movtpl	r4, #49478	; 0xc146
    adf0:	253c2845 	ldrcs	r2, [ip, #-2117]!	; 0xfffff7bb
    adf4:	3a293e73 	bcc	a5a7c8 <__bss_end__+0xa4f4d0>
    adf8:	706d6920 	rsbvc	r6, sp, r0, lsr #18
    adfc:	6973736f 	ldmdbvs	r3!, {r0, r1, r2, r3, r5, r6, r8, r9, ip, sp, lr}^
    ae00:	0a656c62 	beq	1965f90 <__bss_end__+0x195ac98>
    ae04:	00000000 	andeq	r0, r0, r0
    ae08:	615f7369 	cmpvs	pc, r9, ror #6
    ae0c:	6e67696c 	vnmulvs.f16	s13, s14, s25	; <UNPREDICTABLE>
    ae10:	68286465 	stmdavs	r8!, {r0, r2, r5, r6, sl, sp, lr}
    ae14:	6c61202c 	stclvs	0, cr2, [r1], #-176	; 0xffffff50
    ae18:	6d6e6769 	stclvs	7, cr6, [lr, #-420]!	; 0xfffffe5c
    ae1c:	29746e65 	ldmdbcs	r4!, {r0, r2, r5, r6, r9, sl, fp, sp, lr}^
    ae20:	00000000 	andeq	r0, r0, r0
    ae24:	494e4150 	stmdbmi	lr, {r4, r6, r8, lr}^
    ae28:	73253a43 			; <UNDEFINED> instruction: 0x73253a43
    ae2c:	3a73253a 	bcc	1cd431c <__bss_end__+0x1cc9024>
    ae30:	703a6425 	eorsvc	r6, sl, r5, lsr #8
    ae34:	746e696f 	strbtvc	r6, [lr], #-2415	; 0xfffff691
    ae38:	25207265 	strcs	r7, [r0, #-613]!	; 0xfffffd9b
    ae3c:	61772070 	cmnvs	r7, r0, ror r0
    ae40:	656e2073 	strbvs	r2, [lr, #-115]!	; 0xffffff8d
    ae44:	20726576 	rsbscs	r6, r2, r6, ror r5
    ae48:	6f6c6c61 	svcvs	0x006c6c61
    ae4c:	65746163 	ldrbvs	r6, [r4, #-355]!	; 0xfffffe9d
    ae50:	000a0a64 	andeq	r0, sl, r4, ror #20

0000ae54 <__FUNCTION__.7>:
    ae54:	6c616d6b 	stclvs	13, cr6, [r1], #-428	; 0xfffffe54
    ae58:	5f636f6c 	svcpl	0x00636f6c
    ae5c:	74696e69 	strbtvc	r6, [r9], #-3689	; 0xfffff197
    ae60:	7465735f 	strbtvc	r7, [r5], #-863	; 0xfffffca1
    ae64:	6174735f 	cmnvs	r4, pc, asr r3
    ae68:	00007472 	andeq	r7, r0, r2, ror r4

0000ae6c <__FUNCTION__.5>:
    ae6c:	6c616d6b 	stclvs	13, cr6, [r1], #-428	; 0xfffffe54
    ae70:	5f636f6c 	svcpl	0x00636f6c
    ae74:	74696e69 	strbtvc	r6, [r9], #-3689	; 0xfffff197
    ae78:	00000000 	andeq	r0, r0, r0

0000ae7c <__FUNCTION__.4>:
    ae7c:	6c616d6b 	stclvs	13, cr6, [r1], #-428	; 0xfffffe54
    ae80:	5f636f6c 	svcpl	0x00636f6c
    ae84:	7a746f6e 	bvc	1d26c44 <__bss_end__+0x1d1b94c>
    ae88:	006f7265 	rsbeq	r7, pc, r5, ror #4

0000ae8c <__FUNCTION__.2>:
    ae8c:	6c616d6b 	stclvs	13, cr6, [r1], #-428	; 0xfffffe54
    ae90:	00636f6c 	rsbeq	r6, r3, ip, ror #30

0000ae94 <__FUNCTION__.1>:
    ae94:	6c616d6b 	stclvs	13, cr6, [r1], #-428	; 0xfffffe54
    ae98:	5f636f6c 	svcpl	0x00636f6c
    ae9c:	67696c61 	strbvs	r6, [r9, -r1, ror #24]!
    aea0:	0064656e 	rsbeq	r6, r4, lr, ror #10

0000aea4 <__FUNCTION__.3>:
    aea4:	6e756f72 	mrcvs	15, 3, r6, cr5, cr2, {3}
    aea8:	00707564 	rsbseq	r7, r0, r4, ror #10

0000aeac <__FUNCTION__.0>:
    aeac:	6572666b 	ldrbvs	r6, [r2, #-1643]!	; 0xfffff995
    aeb0:	6f705f65 	svcvs	0x00705f65
    aeb4:	Address 0x000000000000aeb4 is out of bounds.


Disassembly of section .data:

0000aeb8 <putk>:
    aeb8:	000090c8 	andeq	r9, r0, r8, asr #1

0000aebc <heap>:
    aebc:	0000b2f8 	strdeq	fp, [r0], -r8

0000aec0 <heap_start>:
    aec0:	0000b2f8 	strdeq	fp, [r0], -r8

0000aec4 <heap_end>:
    aec4:	0020b2f8 	strdeq	fp, [r0], -r8	; <UNPREDICTABLE>

0000aec8 <rpi_putchar>:
    aec8:	0000a4bc 			; <UNDEFINED> instruction: 0x0000a4bc

Disassembly of section .bss:

0000aed0 <__bss_start__>:
	...

0000aed8 <freep>:
	...

0000aee0 <base>:
	...

0000aee8 <heap_start>:
    aee8:	00000000 	andeq	r0, r0, r0

0000aeec <heap_end>:
    aeec:	00000000 	andeq	r0, r0, r0

0000aef0 <init_p.4035>:
    aef0:	00000000 	andeq	r0, r0, r0

0000aef4 <buf.3944>:
	...

0000b2f4 <init_p.6>:
    b2f4:	00000000 	andeq	r0, r0, r0

Disassembly of section .ARM.attributes:

00000000 <.ARM.attributes>:
   0:	00002a41 	andeq	r2, r0, r1, asr #20
   4:	61656100 	cmnvs	r5, r0, lsl #2
   8:	01006962 	tsteq	r0, r2, ror #18
   c:	00000020 	andeq	r0, r0, r0, lsr #32
  10:	4b5a3605 	blmi	168d82c <__bss_end__+0x1682534>
  14:	08070600 	stmdaeq	r7, {r9, sl}
  18:	12010901 	andne	r0, r1, #16384	; 0x4000
  1c:	15011404 	strne	r1, [r1, #-1028]	; 0xfffffbfc
  20:	18031701 	stmdane	r3, {r0, r8, r9, sl, ip}
  24:	22011a01 	andcs	r1, r1, #4096	; 0x1000
  28:	Address 0x0000000000000028 is out of bounds.


Disassembly of section .comment:

00000000 <.comment>:
   0:	3a434347 	bcc	10d0d24 <__bss_end__+0x10c5a2c>
   4:	4e472820 	cdpmi	8, 4, cr2, cr7, cr0, {1}
   8:	6f542055 	svcvs	0x00542055
   c:	20736c6f 	rsbscs	r6, r3, pc, ror #24
  10:	20726f66 	rsbscs	r6, r2, r6, ror #30
  14:	206d7241 	rsbcs	r7, sp, r1, asr #4
  18:	65626d45 	strbvs	r6, [r2, #-3397]!	; 0xfffff2bb
  1c:	64656464 	strbtvs	r6, [r5], #-1124	; 0xfffffb9c
  20:	6f725020 	svcvs	0x00725020
  24:	73736563 	cmnvc	r3, #415236096	; 0x18c00000
  28:	2073726f 	rsbscs	r7, r3, pc, ror #4
  2c:	30322d39 	eorscc	r2, r2, r9, lsr sp
  30:	712d3931 			; <UNDEFINED> instruction: 0x712d3931
  34:	616d2d34 	cmnvs	sp, r4, lsr sp
  38:	29726f6a 	ldmdbcs	r2!, {r1, r3, r5, r6, r8, r9, sl, fp, sp, lr}^
  3c:	322e3920 	eorcc	r3, lr, #32, 18	; 0x80000
  40:	3220312e 	eorcc	r3, r0, #-2147483637	; 0x8000000b
  44:	31393130 	teqcc	r9, r0, lsr r1
  48:	20353230 	eorscs	r3, r5, r0, lsr r2
  4c:	6c657228 	sfmvs	f7, 2, [r5], #-160	; 0xffffff60
  50:	65736165 	ldrbvs	r6, [r3, #-357]!	; 0xfffffe9b
  54:	415b2029 	cmpmi	fp, r9, lsr #32
  58:	612f4d52 			; <UNDEFINED> instruction: 0x612f4d52
  5c:	392d6d72 	pushcc	{r1, r4, r5, r6, r8, sl, fp, sp, lr}
  60:	6172622d 	cmnvs	r2, sp, lsr #4
  64:	2068636e 	rsbcs	r6, r8, lr, ror #6
  68:	69766572 	ldmdbvs	r6!, {r1, r4, r5, r6, r8, sl, sp, lr}^
  6c:	6e6f6973 			; <UNDEFINED> instruction: 0x6e6f6973
  70:	37373220 	ldrcc	r3, [r7, -r0, lsr #4]!
  74:	5d393935 			; <UNDEFINED> instruction: 0x5d393935
  78:	43434700 	movtmi	r4, #14080	; 0x3700
  7c:	4728203a 			; <UNDEFINED> instruction: 0x4728203a
  80:	4120554e 			; <UNDEFINED> instruction: 0x4120554e
  84:	45206d72 	strmi	r6, [r0, #-3442]!	; 0xfffff28e
  88:	6465626d 	strbtvs	r6, [r5], #-621	; 0xfffffd93
  8c:	20646564 	rsbcs	r6, r4, r4, ror #10
  90:	6c6f6f54 	stclvs	15, cr6, [pc], #-336	; ffffff48 <__bss_end__+0xffff4c50>
  94:	69616863 	stmdbvs	r1!, {r0, r1, r5, r6, fp, sp, lr}^
  98:	3031206e 	eorscc	r2, r1, lr, rrx
  9c:	322d332e 	eorcc	r3, sp, #-1207959552	; 0xb8000000
  a0:	2e313230 	mrccs	2, 1, r3, cr1, cr0, {1}
  a4:	20293031 	eorcs	r3, r9, r1, lsr r0
  a8:	332e3031 			; <UNDEFINED> instruction: 0x332e3031
  ac:	3220312e 	eorcc	r3, r0, #-2147483637	; 0x8000000b
  b0:	30313230 	eorscc	r3, r1, r0, lsr r2
  b4:	20343238 	eorscs	r3, r4, r8, lsr r2
  b8:	6c657228 	sfmvs	f7, 2, [r5], #-160	; 0xffffff60
  bc:	65736165 	ldrbvs	r6, [r3, #-357]!	; 0xfffffe9b
  c0:	Address 0x00000000000000c0 is out of bounds.


Disassembly of section .debug_info:

00000000 <.debug_info>:
       0:	0000045f 	andeq	r0, r0, pc, asr r4
       4:	00000004 	andeq	r0, r0, r4
       8:	01040000 	mrseq	r0, (UNDEF: 4)
       c:	00000084 	andeq	r0, r0, r4, lsl #1
      10:	00023f0c 	andeq	r3, r2, ip, lsl #30
      14:	00017800 	andeq	r7, r1, r0, lsl #16
      18:	00803800 	addeq	r3, r0, r0, lsl #16
      1c:	00010400 	andeq	r0, r1, r0, lsl #8
      20:	00000000 	andeq	r0, r0, r0
      24:	05040200 	streq	r0, [r4, #-512]	; 0xfffffe00
      28:	00746e69 	rsbseq	r6, r4, r9, ror #28
      2c:	e2070403 	and	r0, r7, #50331648	; 0x3000000
      30:	03000001 	movweq	r0, #1
      34:	00580601 	subseq	r0, r8, r1, lsl #12
      38:	02030000 	andeq	r0, r3, #0, 0
      3c:	00022205 	andeq	r2, r2, r5, lsl #4
      40:	05040300 	streq	r0, [r4, #-768]	; 0xfffffd00
      44:	00000206 	andeq	r0, r0, r6, lsl #4
      48:	01050803 	tsteq	r5, r3, lsl #16
      4c:	04000002 	streq	r0, [r0], #-2
      50:	000001ef 	andeq	r0, r0, pc, ror #3
      54:	5b182e04 	blpl	60b86c <__bss_end__+0x600574>
      58:	03000000 	movweq	r0, #0
      5c:	00560801 	subseq	r0, r6, r1, lsl #16
      60:	36040000 	strcc	r0, [r4], -r0
      64:	04000002 	streq	r0, [r0], #-2
      68:	006e1931 	rsbeq	r1, lr, r1, lsr r9
      6c:	02030000 	andeq	r0, r3, #0, 0
      70:	00007107 	andeq	r7, r0, r7, lsl #2
      74:	02670400 	rsbeq	r0, r7, #0, 8
      78:	34040000 	strcc	r0, [r4], #-0
      7c:	00008119 	andeq	r8, r0, r9, lsl r1
      80:	07040300 	streq	r0, [r4, -r0, lsl #6]
      84:	000001dd 	ldrdeq	r0, [r0], -sp
      88:	d8070803 	stmdale	r7, {r0, r1, fp}
      8c:	05000001 	streq	r0, [r0, #-1]
      90:	00000025 	andeq	r0, r0, r5, lsr #32
      94:	0000009e 	muleq	r0, lr, r0
      98:	00002506 	andeq	r2, r0, r6, lsl #10
      9c:	0f070000 	svceq	0x00070000
      a0:	05000002 	streq	r0, [r0, #-2]
      a4:	00aa0e1c 	adceq	r0, sl, ip, lsl lr
      a8:	04080000 	streq	r0, [r8], #-0
      ac:	0000008f 	andeq	r0, r0, pc, lsl #1
      b0:	00002505 	andeq	r2, r0, r5, lsl #10
      b4:	0000bf00 	andeq	fp, r0, r0, lsl #30
      b8:	00bf0600 	adcseq	r0, pc, r0, lsl #12
      bc:	08000000 	stmdaeq	r0, {}	; <UNPREDICTABLE>
      c0:	0000cc04 	andeq	ip, r0, r4, lsl #24
      c4:	08010300 	stmdaeq	r1, {r8, r9}
      c8:	0000005f 	andeq	r0, r0, pc, asr r0
      cc:	0000c509 	andeq	ip, r0, r9, lsl #10
      d0:	06790700 	ldrbteq	r0, [r9], -r0, lsl #14
      d4:	21050000 	mrscs	r0, (UNDEF: 5)
      d8:	0000dd0e 	andeq	sp, r0, lr, lsl #26
      dc:	b0040800 	andlt	r0, r4, r0, lsl #16
      e0:	0a000000 	beq	e8 <__code_start__-0x7f18>
      e4:	0905030c 	stmdbeq	r5, {r2, r3, r8, r9}
      e8:	00000114 	andeq	r0, r0, r4, lsl r1
      ec:	0000510b 	andeq	r5, r0, fp, lsl #2
      f0:	11070300 	mrsne	r0, SP_und
      f4:	000000bf 	strheq	r0, [r0], -pc	; <UNPREDICTABLE>
      f8:	01b60b00 			; <UNDEFINED> instruction: 0x01b60b00
      fc:	08030000 	stmdaeq	r3, {}	; <UNPREDICTABLE>
     100:	0000bf11 	andeq	fp, r0, r1, lsl pc
     104:	260b0400 	strcs	r0, [fp], -r0, lsl #8
     108:	03000000 	movweq	r0, #0
     10c:	002c0e09 	eoreq	r0, ip, r9, lsl #28
     110:	00080000 	andeq	r0, r8, r0
     114:	00022c04 	andeq	r2, r2, r4, lsl #24
     118:	030a0300 	movweq	r0, #41728	; 0xa300
     11c:	000000e3 	andeq	r0, r0, r3, ror #1
     120:	0001660c 	andeq	r6, r1, ip, lsl #12
     124:	0d01b400 	cfstrseq	mvf11, [r1, #-0]
     128:	0001b010 	andeq	fp, r1, r0, lsl r0
     12c:	00130b00 	andseq	r0, r3, r0, lsl #22
     130:	0e010000 	cdpeq	0, 0, cr0, cr1, cr0, {0}
     134:	0001b014 	andeq	fp, r1, r4, lsl r0
     138:	350b0000 	strcc	r0, [fp, #-0]
     13c:	01000000 	mrseq	r0, (UNDEF: 0)
     140:	00750e0f 	rsbseq	r0, r5, pc, lsl #28
     144:	0b040000 	bleq	10014c <__bss_end__+0xf4e54>
     148:	00000020 	andeq	r0, r0, r0, lsr #32
     14c:	750e1001 	strvc	r1, [lr, #-1]
     150:	08000000 	stmdaeq	r0, {}	; <UNPREDICTABLE>
     154:	0001cf0b 	andeq	ip, r1, fp, lsl #30
     158:	0e140100 	mufeqs	f0, f4, f0
     15c:	00000075 	andeq	r0, r0, r5, ror r0
     160:	01f70b0c 	mvnseq	r0, ip, lsl #22
     164:	16010000 	strne	r0, [r1], -r0
     168:	0001140f 	andeq	r1, r1, pc, lsl #8
     16c:	5e0b1000 	cdppl	0, 0, cr1, cr11, cr0, {0}
     170:	01000002 	tsteq	r0, r2
     174:	01140f17 	tsteq	r4, r7, lsl pc
     178:	0b1c0000 	bleq	700180 <__bss_end__+0x6f4e88>
     17c:	00000270 	andeq	r0, r0, r0, ror r2
     180:	750e1a01 	strvc	r1, [lr, #-2561]	; 0xfffff5ff
     184:	28000000 	stmdacs	r0, {}	; <UNPREDICTABLE>
     188:	00027b0b 	andeq	r7, r2, fp, lsl #22
     18c:	0e1b0100 	mufeqe	f0, f3, f0
     190:	00000075 	andeq	r0, r0, r5, ror r0
     194:	03e00b2c 	mvneq	r0, #44, 22	; 0xb000
     198:	1d010000 	stcne	0, cr0, [r1, #-0]
     19c:	0000620e 	andeq	r6, r0, lr, lsl #4
     1a0:	720d3000 	andvc	r3, sp, #0, 0
     1a4:	0100317a 	tsteq	r0, sl, ror r1
     1a8:	01b60d1f 			; <UNDEFINED> instruction: 0x01b60d1f
     1ac:	00320000 	eorseq	r0, r2, r0
     1b0:	01200408 			; <UNDEFINED> instruction: 0x01200408
     1b4:	4f0e0000 	svcmi	0x000e0000
     1b8:	c6000000 	strgt	r0, [r0], -r0
     1bc:	0f000001 	svceq	0x00000001
     1c0:	0000002c 	andeq	r0, r0, ip, lsr #32
     1c4:	0d04007f 	stceq	0, cr0, [r4, #-508]	; 0xfffffe04
     1c8:	01000000 	mrseq	r0, (UNDEF: 0)
     1cc:	01200320 			; <UNDEFINED> instruction: 0x01200320
     1d0:	04100000 	ldreq	r0, [r0], #-0
     1d4:	00000007 	andeq	r0, r0, r7
     1d8:	11a60100 			; <UNDEFINED> instruction: 0x11a60100
     1dc:	0000002c 	andeq	r0, r0, ip, lsr #32
     1e0:	00002d11 	andeq	r2, r0, r1, lsl sp
     1e4:	06080200 	streq	r0, [r8], -r0, lsl #4
     1e8:	00008068 	andeq	r8, r0, r8, rrx
     1ec:	000000d4 	ldrdeq	r0, [r0], -r4
     1f0:	03789c01 	cmneq	r8, #256	; 0x100
     1f4:	70120000 	andsvc	r0, r2, r0
     1f8:	0b0b0200 	bleq	2c0a00 <__bss_end__+0x2b5708>
     1fc:	00000378 	andeq	r0, r0, r8, ror r3
     200:	00000004 	andeq	r0, r0, r4
     204:	00000000 	andeq	r0, r0, r0
     208:	0001bb13 	andeq	fp, r1, r3, lsl fp
     20c:	00038e00 	andeq	r8, r3, r0, lsl #28
     210:	5c030500 	cfstr32pl	mvfx0, [r3], {-0}
     214:	140000a6 	strne	r0, [r0], #-166	; 0xffffff5a
     218:	000003d8 	ldrdeq	r0, [r0], -r8
     21c:	00008080 	andeq	r8, r0, r0, lsl #1
     220:	00808001 	addeq	r8, r0, r1
     224:	00001800 	andeq	r1, r0, r0, lsl #16
     228:	0f0b0200 	svceq	0x000b0200
     22c:	00000258 	andeq	r0, r0, r8, asr r2
     230:	00040115 	andeq	r0, r4, r5, lsl r1
     234:	00002400 	andeq	r2, r0, r0, lsl #8
     238:	00002200 	andeq	r2, r0, r0, lsl #4
     23c:	03f51500 	mvnseq	r1, #0, 10
     240:	003a0000 	eorseq	r0, sl, r0
     244:	00380000 	eorseq	r0, r8, r0
     248:	e9150000 	ldmdb	r5, {}	; <UNPREDICTABLE>
     24c:	54000003 	strpl	r0, [r0], #-3
     250:	52000000 	andpl	r0, r0, #0, 0
     254:	00000000 	andeq	r0, r0, r0
     258:	0003d814 	andeq	sp, r3, r4, lsl r8
     25c:	0080d000 	addeq	sp, r0, r0
     260:	80d00100 	sbcshi	r0, r0, r0, lsl #2
     264:	00100000 	andseq	r0, r0, r0
     268:	0e020000 	cdpeq	0, 0, cr0, cr2, cr0, {0}
     26c:	00029905 	andeq	r9, r2, r5, lsl #18
     270:	04011500 	streq	r1, [r1], #-1280	; 0xfffffb00
     274:	006e0000 	rsbeq	r0, lr, r0
     278:	006c0000 	rsbeq	r0, ip, r0
     27c:	f5150000 			; <UNDEFINED> instruction: 0xf5150000
     280:	84000003 	strhi	r0, [r0], #-3
     284:	82000000 	andhi	r0, r0, #0, 0
     288:	15000000 	strne	r0, [r0, #-0]
     28c:	000003e9 	andeq	r0, r0, r9, ror #7
     290:	0000009e 	muleq	r0, lr, r0
     294:	0000009c 	muleq	r0, ip, r0
     298:	80801600 	addhi	r1, r0, r0, lsl #12
     29c:	041a0000 	ldreq	r0, [sl], #-0
     2a0:	02b00000 	adcseq	r0, r0, #0, 0
     2a4:	01170000 	tsteq	r7, r0
     2a8:	d0030550 	andle	r0, r3, r0, asr r5
     2ac:	000000a5 	andeq	r0, r0, r5, lsr #1
     2b0:	0080a816 	addeq	sl, r0, r6, lsl r8
     2b4:	00042600 	andeq	r2, r4, r0, lsl #12
     2b8:	0002c300 	andeq	ip, r2, r0, lsl #6
     2bc:	50011700 	andpl	r1, r1, r0, lsl #14
     2c0:	16003401 	strne	r3, [r0], -r1, lsl #8
     2c4:	000080b0 	strheq	r8, [r0], -r0
     2c8:	00000393 	muleq	r0, r3, r3
     2cc:	000002d7 	ldrdeq	r0, [r0], -r7
     2d0:	02500117 	subseq	r0, r0, #-1073741819	; 0xc0000005
     2d4:	16000074 			; <UNDEFINED> instruction: 0x16000074
     2d8:	000080c0 	andeq	r8, r0, r0, asr #1
     2dc:	0000041a 	andeq	r0, r0, sl, lsl r4
     2e0:	000002f4 	strdeq	r0, [r0], -r4
     2e4:	05500117 	ldrbeq	r0, [r0, #-279]	; 0xfffffee9
     2e8:	00a5f803 	adceq	pc, r5, r3, lsl #16
     2ec:	52011700 	andpl	r1, r1, #0, 14
     2f0:	00007402 	andeq	r7, r0, r2, lsl #8
     2f4:	0080d016 	addeq	sp, r0, r6, lsl r0
     2f8:	00043200 	andeq	r3, r4, r0, lsl #4
     2fc:	00031200 	andeq	r1, r3, r0, lsl #4
     300:	50011700 	andpl	r1, r1, r0, lsl #14
     304:	17007402 	strne	r7, [r0, -r2, lsl #8]
     308:	30015101 	andcc	r5, r1, r1, lsl #2
     30c:	01520117 	cmpeq	r2, r7, lsl r1
     310:	f0160034 			; <UNDEFINED> instruction: 0xf0160034
     314:	3e000080 	cdpcc	0, 0, cr0, cr0, cr0, {4}
     318:	26000004 	strcs	r0, [r0], -r4
     31c:	17000003 	strne	r0, [r0, -r3]
     320:	74025001 	strvc	r5, [r2], #-1
     324:	f4180000 			; <UNDEFINED> instruction: 0xf4180000
     328:	4a000080 	bmi	530 <__code_start__-0x7ad0>
     32c:	16000004 	strne	r0, [r0], -r4
     330:	00008104 	andeq	r8, r0, r4, lsl #2
     334:	0000041a 	andeq	r0, r0, sl, lsl r4
     338:	00000346 	andeq	r0, r0, r6, asr #6
     33c:	05500117 	ldrbeq	r0, [r0, #-279]	; 0xfffffee9
     340:	00a63c03 	adceq	r3, r6, r3, lsl #24
     344:	20160000 	andscs	r0, r6, r0
     348:	1a000081 	bne	554 <__code_start__-0x7aac>
     34c:	6e000004 	cdpvs	0, 0, cr0, cr0, cr4, {0}
     350:	17000003 	strne	r0, [r0, -r3]
     354:	03055001 	movweq	r5, #20481	; 0x5001
     358:	0000a618 	andeq	sl, r0, r8, lsl r6
     35c:	02510117 	subseq	r0, r1, #-1073741819	; 0xc0000005
     360:	01170076 	tsteq	r7, r6, ror r0
     364:	00750252 	rsbseq	r0, r5, r2, asr r2
     368:	01530117 	cmpeq	r3, r7, lsl r1
     36c:	24180041 	ldrcs	r0, [r8], #-65	; 0xffffffbf
     370:	56000081 	strpl	r0, [r0], -r1, lsl #1
     374:	00000004 	andeq	r0, r0, r4
     378:	00c50408 	sbceq	r0, r5, r8, lsl #8
     37c:	cc0e0000 	stcgt	0, cr0, [lr], {-0}
     380:	8e000000 	cdphi	0, 0, cr0, cr0, cr0, {0}
     384:	0f000003 	svceq	0x00000003
     388:	0000002c 	andeq	r0, r0, ip, lsr #32
     38c:	7e090007 	cdpvc	0, 0, cr0, cr9, cr7, {0}
     390:	19000003 	stmdbne	r0, {r0, r1}
     394:	000001ac 	andeq	r0, r0, ip, lsr #3
     398:	2c112301 	ldccs	3, cr2, [r1], {1}
     39c:	48000000 	stmdami	r0, {}	; <UNPREDICTABLE>
     3a0:	14000080 	strne	r0, [r0], #-128	; 0xffffff80
     3a4:	01000000 	mrseq	r0, (UNDEF: 0)
     3a8:	0003d29c 	muleq	r3, ip, r2
     3ac:	00701a00 	rsbseq	r1, r0, r0, lsl #20
     3b0:	d2212301 	eorle	r2, r1, #67108864	; 0x4000000
     3b4:	ba000001 	blt	3c0 <__code_start__-0x7c40>
     3b8:	b6000000 	strlt	r0, [r0], -r0
     3bc:	12000000 	andne	r0, r0, #0, 0
     3c0:	24010068 	strcs	r0, [r1], #-104	; 0xffffff98
     3c4:	0003d20c 	andeq	sp, r3, ip, lsl #4
     3c8:	0000df00 	andeq	sp, r0, r0, lsl #30
     3cc:	0000db00 	andeq	sp, r0, r0, lsl #22
     3d0:	04080000 	streq	r0, [r8], #-0
     3d4:	000001c6 	andeq	r0, r0, r6, asr #3
     3d8:	00016d1b 	andeq	r6, r1, fp, lsl sp
     3dc:	0b0d0300 	bleq	340fe4 <__bss_end__+0x335cec>
     3e0:	00000114 	andeq	r0, r0, r4, lsl r1
     3e4:	00040e03 	andeq	r0, r4, r3, lsl #28
     3e8:	00511c00 	subseq	r1, r1, r0, lsl #24
     3ec:	0d030000 	stceq	0, cr0, [r3, #-0]
     3f0:	0000bf22 	andeq	fp, r0, r2, lsr #30
     3f4:	01b61c00 			; <UNDEFINED> instruction: 0x01b61c00
     3f8:	0d030000 	stceq	0, cr0, [r3, #-0]
     3fc:	0000bf34 	andeq	fp, r0, r4, lsr pc
     400:	00261c00 	eoreq	r1, r6, r0, lsl #24
     404:	0d030000 	stceq	0, cr0, [r3, #-0]
     408:	00002c43 	andeq	r2, r0, r3, asr #24
     40c:	0a1d0000 	beq	740414 <__bss_end__+0x73511c>
     410:	6f6e089e 	svcvs	0x006e089e
     414:	69616d74 	stmdbvs	r1!, {r2, r4, r5, r6, r8, sl, fp, sp, lr}^
     418:	3b1e006e 	blcc	7805d8 <__bss_end__+0x7752e0>
     41c:	3b000006 	blcc	43c <__code_start__-0x7bc4>
     420:	05000006 	streq	r0, [r0, #-6]
     424:	181e0628 	ldmdane	lr, {r3, r5, r9, sl}
     428:	18000000 	stmdane	r0, {}	; <UNPREDICTABLE>
     42c:	01000000 	mrseq	r0, (UNDEF: 0)
     430:	c81e084a 	ldmdagt	lr, {r1, r3, r6, fp}
     434:	c8000001 	stmdagt	r0, {r0}
     438:	05000001 	streq	r0, [r0, #-1]
     43c:	1b1e07f2 	blne	78240c <__bss_end__+0x777114>
     440:	1b000002 	blne	450 <__code_start__-0x7bb0>
     444:	01000002 	tsteq	r0, r2
     448:	421e074b 	andsmi	r0, lr, #19660800	; 0x12c0000
     44c:	42000000 	andmi	r0, r0, #0, 0
     450:	01000000 	mrseq	r0, (UNDEF: 0)
     454:	641e0556 	ldrvs	r0, [lr], #-1366	; 0xfffffaaa
     458:	64000000 	strvs	r0, [r0], #-0
     45c:	05000000 	streq	r0, [r0, #-0]
     460:	ae00066e 	cfmadd32ge	mvax3, mvfx0, mvfx0, mvfx14
     464:	04000007 	streq	r0, [r0], #-7
     468:	0001bc00 	andeq	fp, r1, r0, lsl #24
     46c:	84010400 	strhi	r0, [r1], #-1024	; 0xfffffc00
     470:	0c000000 	stceq	0, cr0, [r0], {-0}
     474:	000002f8 	strdeq	r0, [r0], -r8
     478:	00000178 	andeq	r0, r0, r8, ror r1
     47c:	0000813c 	andeq	r8, r0, ip, lsr r1
     480:	000003f8 	strdeq	r0, [r0], -r8
     484:	00000169 	andeq	r0, r0, r9, ror #2
     488:	69050402 	stmdbvs	r5, {r1, sl}
     48c:	0300746e 	movweq	r7, #1134	; 0x46e
     490:	01e20704 	mvneq	r0, r4, lsl #14
     494:	01030000 	mrseq	r0, (UNDEF: 3)
     498:	00005806 	andeq	r5, r0, r6, lsl #16
     49c:	05020300 	streq	r0, [r2, #-768]	; 0xfffffd00
     4a0:	00000222 	andeq	r0, r0, r2, lsr #4
     4a4:	06050403 	streq	r0, [r5], -r3, lsl #8
     4a8:	03000002 	movweq	r0, #2
     4ac:	02010508 	andeq	r0, r1, #8, 10	; 0x2000000
     4b0:	ef040000 	svc	0x00040000
     4b4:	03000001 	movweq	r0, #1
     4b8:	005b182e 	subseq	r1, fp, lr, lsr #16
     4bc:	01030000 	mrseq	r0, (UNDEF: 3)
     4c0:	00005608 	andeq	r5, r0, r8, lsl #12
     4c4:	02360400 	eorseq	r0, r6, #0, 8
     4c8:	31030000 	mrscc	r0, (UNDEF: 3)
     4cc:	00006e19 	andeq	r6, r0, r9, lsl lr
     4d0:	07020300 	streq	r0, [r2, -r0, lsl #6]
     4d4:	00000071 	andeq	r0, r0, r1, ror r0
     4d8:	00026704 	andeq	r6, r2, r4, lsl #14
     4dc:	19340300 	ldmdbne	r4!, {r8, r9}
     4e0:	00000081 	andeq	r0, r0, r1, lsl #1
     4e4:	dd070403 	cfstrsle	mvf0, [r7, #-12]
     4e8:	03000001 	movweq	r0, #1
     4ec:	01d80708 	bicseq	r0, r8, r8, lsl #14
     4f0:	25050000 	strcs	r0, [r5, #-0]
     4f4:	9e000000 	cdpls	0, 0, cr0, cr0, cr0, {0}
     4f8:	06000000 	streq	r0, [r0], -r0
     4fc:	00000025 	andeq	r0, r0, r5, lsr #32
     500:	020f0700 	andeq	r0, pc, #0, 14
     504:	1c040000 	stcne	0, cr0, [r4], {-0}
     508:	0000aa0e 	andeq	sl, r0, lr, lsl #20
     50c:	8f040800 	svchi	0x00040800
     510:	05000000 	streq	r0, [r0, #-0]
     514:	00000025 	andeq	r0, r0, r5, lsr #32
     518:	000000bf 	strheq	r0, [r0], -pc	; <UNPREDICTABLE>
     51c:	0000bf06 	andeq	fp, r0, r6, lsl #30
     520:	04080000 	streq	r0, [r8], #-0
     524:	000000cc 	andeq	r0, r0, ip, asr #1
     528:	5f080103 	svcpl	0x00080103
     52c:	09000000 	stmdbeq	r0, {}	; <UNPREDICTABLE>
     530:	000000c5 	andeq	r0, r0, r5, asr #1
     534:	00067907 	andeq	r7, r6, r7, lsl #18
     538:	0e210400 	cdpeq	4, 2, cr0, cr1, cr0, {0}
     53c:	000000dd 	ldrdeq	r0, [r0], -sp
     540:	00b00408 	adcseq	r0, r0, r8, lsl #8
     544:	0c0a0000 	stceq	0, cr0, [sl], {-0}
     548:	14090505 	strne	r0, [r9], #-1285	; 0xfffffafb
     54c:	0b000001 	bleq	558 <__code_start__-0x7aa8>
     550:	00000051 	andeq	r0, r0, r1, asr r0
     554:	bf110705 	svclt	0x00110705
     558:	00000000 	andeq	r0, r0, r0
     55c:	0001b60b 	andeq	fp, r1, fp, lsl #12
     560:	11080500 	tstne	r8, r0, lsl #10
     564:	000000bf 	strheq	r0, [r0], -pc	; <UNPREDICTABLE>
     568:	00260b04 	eoreq	r0, r6, r4, lsl #22
     56c:	09050000 	stmdbeq	r5, {}	; <UNPREDICTABLE>
     570:	00002c0e 	andeq	r2, r0, lr, lsl #24
     574:	04000800 	streq	r0, [r0], #-2048	; 0xfffff800
     578:	0000022c 	andeq	r0, r0, ip, lsr #4
     57c:	e3030a05 	movw	r0, #14853	; 0x3a05
     580:	0c000000 	stceq	0, cr0, [r0], {-0}
     584:	005b0107 	subseq	r0, fp, r7, lsl #2
     588:	09020000 	stmdbeq	r2, {}	; <UNPREDICTABLE>
     58c:	00013b0e 	andeq	r3, r1, lr, lsl #22
     590:	03020d00 	movweq	r0, #11520	; 0x2d00
     594:	0d0b0000 	stceq	0, cr0, [fp, #-0]
     598:	00000297 	muleq	r0, r7, r2
     59c:	070c000c 	streq	r0, [ip, -ip]
     5a0:	00005b01 	andeq	r5, r0, r1, lsl #22
     5a4:	060a0200 	streq	r0, [sl], -r0, lsl #4
     5a8:	00000156 	andeq	r0, r0, r6, asr r1
     5ac:	0002a90d 	andeq	sl, r2, sp, lsl #18
     5b0:	9d0d8000 	stcls	0, cr8, [sp, #-0]
     5b4:	fe000002 	cdp2	0, 0, cr0, cr0, cr2, {0}
     5b8:	01660e00 	cmneq	r6, r0, lsl #28
     5bc:	02b40000 	adcseq	r0, r4, #0, 0
     5c0:	01e6100d 	mvneq	r1, sp
     5c4:	130b0000 	movwne	r0, #45056	; 0xb000
     5c8:	02000000 	andeq	r0, r0, #0, 0
     5cc:	01e6140e 	mvneq	r1, lr, lsl #8
     5d0:	0b000000 	bleq	5d8 <__code_start__-0x7a28>
     5d4:	00000035 	andeq	r0, r0, r5, lsr r0
     5d8:	750e0f02 	strvc	r0, [lr, #-3842]	; 0xfffff0fe
     5dc:	04000000 	streq	r0, [r0], #-0
     5e0:	0000200b 	andeq	r2, r0, fp
     5e4:	0e100200 	cdpeq	2, 1, cr0, cr0, cr0, {0}
     5e8:	00000075 	andeq	r0, r0, r5, ror r0
     5ec:	01cf0b08 	biceq	r0, pc, r8, lsl #22
     5f0:	14020000 	strne	r0, [r2], #-0
     5f4:	0000750e 	andeq	r7, r0, lr, lsl #10
     5f8:	f70b0c00 			; <UNDEFINED> instruction: 0xf70b0c00
     5fc:	02000001 	andeq	r0, r0, #1, 0
     600:	01140f16 	tsteq	r4, r6, lsl pc
     604:	0b100000 	bleq	40060c <__bss_end__+0x3f5314>
     608:	0000025e 	andeq	r0, r0, lr, asr r2
     60c:	140f1702 	strne	r1, [pc], #-1794	; 614 <__code_start__-0x79ec>
     610:	1c000001 	stcne	0, cr0, [r0], {1}
     614:	0002700b 	andeq	r7, r2, fp
     618:	0e1a0200 	cdpeq	2, 1, cr0, cr10, cr0, {0}
     61c:	00000075 	andeq	r0, r0, r5, ror r0
     620:	027b0b28 	rsbseq	r0, fp, #40, 22	; 0xa000
     624:	1b020000 	blne	8062c <__bss_end__+0x75334>
     628:	0000750e 	andeq	r7, r0, lr, lsl #10
     62c:	e00b2c00 	and	r2, fp, r0, lsl #24
     630:	02000003 	andeq	r0, r0, #3, 0
     634:	00620e1d 	rsbeq	r0, r2, sp, lsl lr
     638:	0f300000 	svceq	0x00300000
     63c:	00317a72 	eorseq	r7, r1, r2, ror sl
     640:	ec0d1f02 	stc	15, cr1, [sp], {2}
     644:	32000001 	andcc	r0, r0, #1, 0
     648:	56040800 	strpl	r0, [r4], -r0, lsl #16
     64c:	10000001 	andne	r0, r0, r1
     650:	0000004f 	andeq	r0, r0, pc, asr #32
     654:	000001fc 	strdeq	r0, [r0], -ip
     658:	00002c11 	andeq	r2, r0, r1, lsl ip
     65c:	04007f00 	streq	r7, [r0], #-3840	; 0xfffff100
     660:	0000000d 	andeq	r0, r0, sp
     664:	56032002 	strpl	r2, [r3], -r2
     668:	12000001 	andne	r0, r0, #1, 0
     66c:	00000704 	andeq	r0, r0, r4, lsl #14
     670:	a6020000 	strge	r0, [r2], -r0
     674:	00002c11 	andeq	r2, r0, r1, lsl ip
     678:	02cf1300 	sbceq	r1, pc, #0, 6
     67c:	08010000 	stmdaeq	r1, {}	; <UNPREDICTABLE>
     680:	0002280f 	andeq	r2, r2, pc, lsl #16
     684:	d0030500 	andle	r0, r3, r0, lsl #10
     688:	080000ae 	stmdaeq	r0, {r1, r2, r3, r5, r7}
     68c:	0001fc04 	andeq	pc, r1, r4, lsl #24
     690:	00181400 	andseq	r1, r8, r0, lsl #8
     694:	76010000 	strvc	r0, [r1], -r0
     698:	00020808 	andeq	r0, r2, r8, lsl #16
     69c:	00846800 	addeq	r6, r4, r0, lsl #16
     6a0:	0000cc00 	andeq	ip, r0, r0, lsl #24
     6a4:	1b9c0100 	blne	fe700aac <__bss_end__+0xfe6f57b4>
     6a8:	15000003 	strne	r0, [r0, #-3]
     6ac:	00000325 	andeq	r0, r0, r5, lsr #6
     6b0:	751a7601 	ldrvc	r7, [sl, #-1537]	; 0xfffff9ff
     6b4:	06000000 	streq	r0, [r0], -r0
     6b8:	00000001 	andeq	r0, r0, r1
     6bc:	16000001 	strne	r0, [r0], -r1
     6c0:	7601006c 	strvc	r0, [r1], -ip, rrx
     6c4:	0001142c 	andeq	r1, r1, ip, lsr #8
     6c8:	54910200 	ldrpl	r0, [r1], #512	; 0x200
     6cc:	01006817 	tsteq	r0, r7, lsl r8
     6d0:	02280c78 	eoreq	r0, r8, #120, 24	; 0x7800
     6d4:	01380000 	teqeq	r8, r0
     6d8:	01320000 	teqeq	r2, r0
     6dc:	9c180000 	ldcls	0, cr0, [r8], {-0}
     6e0:	2c000084 	stccs	0, cr0, [r0], {132}	; 0x84
     6e4:	9b000000 	blls	6ec <__code_start__-0x7914>
     6e8:	17000002 	strne	r0, [r0, -r2]
     6ec:	7e010069 	cdpvc	0, 0, cr0, cr1, cr9, {3}
     6f0:	0000250d 	andeq	r2, r0, sp, lsl #10
     6f4:	00016900 	andeq	r6, r1, r0, lsl #18
     6f8:	00016500 	andeq	r6, r1, r0, lsl #10
     6fc:	8c190000 	ldchi	0, cr0, [r9], {-0}
     700:	75000084 	strvc	r0, [r0, #-132]	; 0xffffff7c
     704:	b0000007 	andlt	r0, r0, r7
     708:	1a000002 	bne	718 <__code_start__-0x78e8>
     70c:	75035001 	strvc	r5, [r3, #-1]
     710:	190002b4 	stmdbne	r0, {r2, r4, r5, r7, r9}
     714:	0000849c 	muleq	r0, ip, r4
     718:	00000781 	andeq	r0, r0, r1, lsl #15
     71c:	000002cf 	andeq	r0, r0, pc, asr #5
     720:	0250011a 	subseq	r0, r0, #-2147483642	; 0x80000006
     724:	011a0074 	tsteq	sl, r4, ror r0
     728:	1a300151 	bne	c00c74 <__bss_end__+0xbf597c>
     72c:	08025201 	stmdaeq	r2, {r0, r9, ip, lr}
     730:	f81900b4 			; <UNDEFINED> instruction: 0xf81900b4
     734:	8d000084 	stchi	0, cr0, [r0, #-528]	; 0xfffffdf0
     738:	fb000007 	blx	75e <__code_start__-0x78a2>
     73c:	1a000002 	bne	74c <__code_start__-0x78b4>
     740:	03055001 	movweq	r5, #20481	; 0x5001
     744:	0000a674 	andeq	sl, r0, r4, ror r6
     748:	0351011a 	cmpeq	r1, #-2147483642	; 0x80000006
     74c:	1a06587b 	bne	196940 <__bss_end__+0x18b648>
     750:	7b035201 	blvc	d4f5c <__bss_end__+0xc9c64>
     754:	011a065c 	tsteq	sl, ip, asr r6
     758:	607b0353 	rsbsvs	r0, fp, r3, asr r3
     75c:	0c1b0006 	ldceq	0, cr0, [fp], {6}
     760:	8d000085 	stchi	0, cr0, [r0, #-532]	; 0xfffffdec
     764:	1a000007 	bne	788 <__code_start__-0x7878>
     768:	03055001 	movweq	r5, #20481	; 0x5001
     76c:	0000a740 	andeq	sl, r0, r0, asr #14
     770:	0251011a 	subseq	r0, r1, #-2147483642	; 0x80000006
     774:	011a0076 	tsteq	sl, r6, ror r0
     778:	00750252 	rsbseq	r0, r5, r2, asr r2
     77c:	1b1c0000 	blne	700784 <__bss_end__+0x6f548c>
     780:	01000002 	tsteq	r0, r2
     784:	82c00653 	sbchi	r0, r0, #87031808	; 0x5300000
     788:	019c0000 	orrseq	r0, ip, r0
     78c:	9c010000 	stcls	0, cr0, [r1], {-0}
     790:	00000542 	andeq	r0, r0, r2, asr #10
     794:	0005d415 	andeq	sp, r5, r5, lsl r4
     798:	14530100 	ldrbne	r0, [r3], #-256	; 0xffffff00
     79c:	00000208 	andeq	r0, r0, r8, lsl #4
     7a0:	0000018c 	andeq	r0, r0, ip, lsl #3
     7a4:	00000188 	andeq	r0, r0, r8, lsl #3
     7a8:	01006c16 	tsteq	r0, r6, lsl ip
     7ac:	01142453 	tsteq	r4, r3, asr r4
     7b0:	91020000 	mrsls	r0, (UNDEF: 2)
     7b4:	00681754 	rsbeq	r1, r8, r4, asr r7
     7b8:	280c5501 	stmdacs	ip, {r0, r8, sl, ip, lr}
     7bc:	ae000002 	cdpge	0, 0, cr0, cr0, cr2, {0}
     7c0:	aa000001 	bge	7cc <__code_start__-0x7834>
     7c4:	1d000001 	stcne	0, cr0, [r0, #-4]
     7c8:	000001bb 			; <UNDEFINED> instruction: 0x000001bb
     7cc:	00000552 	andeq	r0, r0, r2, asr r5
     7d0:	a75c0305 	ldrbge	r0, [ip, -r5, lsl #6]
     7d4:	001e0000 	andseq	r0, lr, r0
     7d8:	33000000 	movwcc	r0, #0
     7dc:	17000004 	strne	r0, [r0, -r4]
     7e0:	5d010069 	stcpl	0, cr0, [r1, #-420]	; 0xfffffe5c
     7e4:	0000250d 	andeq	r2, r0, sp, lsl #10
     7e8:	0001d700 	andeq	sp, r1, r0, lsl #14
     7ec:	0001cf00 	andeq	ip, r1, r0, lsl #30
     7f0:	83841f00 	orrhi	r1, r4, #0, 30
     7f4:	07990000 	ldreq	r0, [r9, r0]
     7f8:	98190000 	ldmdals	r9, {}	; <UNPREDICTABLE>
     7fc:	8d000083 	stchi	0, cr0, [r0, #-524]	; 0xfffffdf4
     800:	c0000007 	andgt	r0, r0, r7
     804:	1a000003 	bne	818 <__code_start__-0x77e8>
     808:	03055001 	movweq	r5, #20481	; 0x5001
     80c:	0000a690 	muleq	r0, r0, r6
     810:	0251011a 	subseq	r0, r1, #-2147483642	; 0x80000006
     814:	011a0075 	tsteq	sl, r5, ror r0
     818:	00760252 	rsbseq	r0, r6, r2, asr r2
     81c:	0253011a 	subseq	r0, r3, #-2147483642	; 0x80000006
     820:	19000077 	stmdbne	r0, {r0, r1, r2, r4, r5, r6}
     824:	000083a0 	andeq	r8, r0, r0, lsr #7
     828:	0000078d 	andeq	r0, r0, sp, lsl #15
     82c:	000003d7 	ldrdeq	r0, [r0], -r7
     830:	0550011a 	ldrbeq	r0, [r0, #-282]	; 0xfffffee6
     834:	00a6d003 	adceq	sp, r6, r3
     838:	a41f0000 	ldrge	r0, [pc], #-0	; 840 <__code_start__-0x77c0>
     83c:	a5000083 	strge	r0, [r0, #-131]	; 0xffffff7d
     840:	1f000007 	svcne	0x00000007
     844:	000083a8 	andeq	r8, r0, r8, lsr #7
     848:	00000799 	muleq	r0, r9, r7
     84c:	0083bc19 	addeq	fp, r3, r9, lsl ip
     850:	00078d00 	andeq	r8, r7, r0, lsl #26
     854:	00041200 	andeq	r1, r4, r0, lsl #4
     858:	50011a00 	andpl	r1, r1, r0, lsl #20
     85c:	a6900305 	ldrge	r0, [r0], r5, lsl #6
     860:	011a0000 	tsteq	sl, r0
     864:	00750251 	rsbseq	r0, r5, r1, asr r2
     868:	0252011a 	subseq	r0, r2, #-2147483642	; 0x80000006
     86c:	011a0076 	tsteq	sl, r6, ror r0
     870:	00770253 	rsbseq	r0, r7, r3, asr r2
     874:	83c41900 	bichi	r1, r4, #0, 18
     878:	078d0000 	streq	r0, [sp, r0]
     87c:	04290000 	strteq	r0, [r9], #-0
     880:	011a0000 	tsteq	sl, r0
     884:	ec030550 	cfstr32	mvfx0, [r3], {80}	; 0x50
     888:	000000a6 	andeq	r0, r0, r6, lsr #1
     88c:	0083c81f 	addeq	ip, r3, pc, lsl r8
     890:	0007a500 	andeq	sl, r7, r0, lsl #10
     894:	c8180000 	ldmdagt	r8, {}	; <UNPREDICTABLE>
     898:	1c000083 	stcne	0, cr0, [r0], {131}	; 0x83
     89c:	53000000 	movwpl	r0, #0
     8a0:	17000004 	strne	r0, [r0, -r4]
     8a4:	67010069 	strvs	r0, [r1, -r9, rrx]
     8a8:	0000250d 	andeq	r2, r0, sp, lsl #10
     8ac:	00020d00 	andeq	r0, r2, r0, lsl #26
     8b0:	00020b00 	andeq	r0, r2, r0, lsl #22
     8b4:	08190000 	ldmdaeq	r9, {}	; <UNPREDICTABLE>
     8b8:	8d000083 	stchi	0, cr0, [r0, #-524]	; 0xfffffdf4
     8bc:	7c000007 	stcvc	0, cr0, [r0], {7}
     8c0:	1a000004 	bne	8d8 <__code_start__-0x7728>
     8c4:	03055001 	movweq	r5, #20481	; 0x5001
     8c8:	0000a674 	andeq	sl, r0, r4, ror r6
     8cc:	0251011a 	subseq	r0, r1, #-2147483642	; 0x80000006
     8d0:	011a0075 	tsteq	sl, r5, ror r0
     8d4:	00760252 	rsbseq	r0, r6, r2, asr r2
     8d8:	0253011a 	subseq	r0, r3, #-2147483642	; 0x80000006
     8dc:	19000077 	stmdbne	r0, {r0, r1, r2, r4, r5, r6}
     8e0:	00008314 	andeq	r8, r0, r4, lsl r3
     8e4:	0000078d 	andeq	r0, r0, sp, lsl #15
     8e8:	00000499 	muleq	r0, r9, r4
     8ec:	0550011a 	ldrbeq	r0, [r0, #-282]	; 0xfffffee6
     8f0:	00a68003 	adceq	r8, r6, r3
     8f4:	51011a00 	tstpl	r1, r0, lsl #20
     8f8:	00007402 	andeq	r7, r0, r2, lsl #8
     8fc:	00835c1f 	addeq	r5, r3, pc, lsl ip
     900:	00079900 	andeq	r9, r7, r0, lsl #18
     904:	83701900 	cmnhi	r0, #0, 18
     908:	078d0000 	streq	r0, [sp, r0]
     90c:	04cb0000 	strbeq	r0, [fp], #0
     910:	011a0000 	tsteq	sl, r0
     914:	90030550 	andls	r0, r3, r0, asr r5
     918:	1a0000a6 	bne	bb8 <__code_start__-0x7448>
     91c:	75025101 	strvc	r5, [r2, #-257]	; 0xfffffeff
     920:	52011a00 	andpl	r1, r1, #0, 20
     924:	1a007602 	bne	1e134 <__bss_end__+0x12e3c>
     928:	77025301 	strvc	r5, [r2, -r1, lsl #6]
     92c:	7c190000 	ldcvc	0, cr0, [r9], {-0}
     930:	8d000083 	stchi	0, cr0, [r0, #-524]	; 0xfffffdf4
     934:	e2000007 	and	r0, r0, #7, 0
     938:	1a000004 	bne	950 <__code_start__-0x76b0>
     93c:	03055001 	movweq	r5, #20481	; 0x5001
     940:	0000a6a8 	andeq	sl, r0, r8, lsr #13
     944:	83801f00 	orrhi	r1, r0, #0, 30
     948:	07a50000 	streq	r0, [r5, r0]!
     94c:	04190000 	ldreq	r0, [r9], #-0
     950:	57000084 	strpl	r0, [r0, -r4, lsl #1]
     954:	ff000005 			; <UNDEFINED> instruction: 0xff000005
     958:	1a000004 	bne	970 <__code_start__-0x7690>
     95c:	74025001 	strvc	r5, [r2], #-1
     960:	30190000 	andscc	r0, r9, r0
     964:	8d000084 	stchi	0, cr0, [r0, #-528]	; 0xfffffdf0
     968:	38000007 	stmdacc	r0, {r0, r1, r2}
     96c:	1a000005 	bne	988 <__code_start__-0x7678>
     970:	03055001 	movweq	r5, #20481	; 0x5001
     974:	0000a714 	andeq	sl, r0, r4, lsl r7
     978:	0551011a 	ldrbeq	r0, [r1, #-282]	; 0xfffffee6
     97c:	00a70803 	adceq	r0, r7, r3, lsl #16
     980:	52011a00 	andpl	r1, r1, #0, 20
     984:	a75c0305 	ldrbge	r0, [ip, -r5, lsl #6]
     988:	011a0000 	tsteq	sl, r0
     98c:	6d080253 	sfmvs	f0, 4, [r8, #-332]	; 0xfffffeb4
     990:	007d021a 	rsbseq	r0, sp, sl, lsl r2
     994:	a7280305 	strge	r0, [r8, -r5, lsl #6]!
     998:	1f000000 	svcne	0x00000000
     99c:	00008434 	andeq	r8, r0, r4, lsr r4
     9a0:	000007a5 	andeq	r0, r0, r5, lsr #15
     9a4:	00cc1000 	sbceq	r1, ip, r0
     9a8:	05520000 	ldrbeq	r0, [r2, #-0]
     9ac:	2c110000 	ldccs	0, cr0, [r1], {-0}
     9b0:	06000000 	streq	r0, [r0], -r0
     9b4:	05420900 	strbeq	r0, [r2, #-2304]	; 0xfffff700
     9b8:	da140000 	ble	5009c0 <__bss_end__+0x4f56c8>
     9bc:	01000002 	tsteq	r0, r2
     9c0:	0228082b 	eoreq	r0, r8, #2818048	; 0x2b0000
     9c4:	82540000 	subshi	r0, r4, #0, 0
     9c8:	00600000 	rsbeq	r0, r0, r0
     9cc:	9c010000 	stcls	0, cr0, [r1], {-0}
     9d0:	000005f8 	strdeq	r0, [r0], -r8
     9d4:	72747020 	rsbsvc	r7, r4, #32, 0
     9d8:	202b0100 	eorcs	r0, fp, r0, lsl #2
     9dc:	00000208 	andeq	r0, r0, r8, lsl #4
     9e0:	00000224 	andeq	r0, r0, r4, lsr #4
     9e4:	00000220 	andeq	r0, r0, r0, lsr #4
     9e8:	00826421 	addeq	r6, r2, r1, lsr #8
     9ec:	00004400 	andeq	r4, r0, r0, lsl #8
     9f0:	00681700 	rsbeq	r1, r8, r0, lsl #14
     9f4:	28112e01 	ldmdacs	r1, {r0, r9, sl, fp, sp}
     9f8:	4a000002 	bmi	a08 <__code_start__-0x75f8>
     9fc:	42000002 	andmi	r0, r0, #2, 0
     a00:	1f000002 	svcne	0x00000002
     a04:	00008268 	andeq	r8, r0, r8, ror #4
     a08:	00000743 	andeq	r0, r0, r3, asr #14
     a0c:	00828019 	addeq	r8, r2, r9, lsl r0
     a10:	0005f800 	andeq	pc, r5, r0, lsl #16
     a14:	0005c300 	andeq	ip, r5, r0, lsl #6
     a18:	50011a00 	andpl	r1, r1, r0, lsl #20
     a1c:	1a007402 	bne	1da2c <__bss_end__+0x12734>
     a20:	75025101 	strvc	r5, [r2, #-257]	; 0xfffffeff
     a24:	90190000 	andsls	r0, r9, r0
     a28:	16000082 	strne	r0, [r0], -r2, lsl #1
     a2c:	d7000007 	strle	r0, [r0, -r7]
     a30:	1a000005 	bne	a4c <__code_start__-0x75b4>
     a34:	74025001 	strvc	r5, [r2], #-1
     a38:	a81b0000 	ldmdage	fp, {}	; <UNPREDICTABLE>
     a3c:	8d000082 	stchi	0, cr0, [r0, #-520]	; 0xfffffdf8
     a40:	1a000007 	bne	a64 <__code_start__-0x759c>
     a44:	03055001 	movweq	r5, #20481	; 0x5001
     a48:	0000a664 	andeq	sl, r0, r4, ror #12
     a4c:	0251011a 	subseq	r0, r1, #-2147483642	; 0x80000006
     a50:	011a0075 	tsteq	sl, r5, ror r0
     a54:	00740252 	rsbseq	r0, r4, r2, asr r2
     a58:	14000000 	strne	r0, [r0], #-0
     a5c:	00000287 	andeq	r0, r0, r7, lsl #5
     a60:	2c0a2401 	cfstrscs	mvf2, [sl], {1}
     a64:	04000000 	streq	r0, [r0], #-0
     a68:	38000082 	stmdacc	r0, {r1, r7}
     a6c:	01000000 	mrseq	r0, (UNDEF: 0)
     a70:	0006859c 	muleq	r6, ip, r5
     a74:	00682000 	rsbeq	r2, r8, r0
     a78:	28212401 	stmdacs	r1!, {r0, sl, sp}
     a7c:	82000002 	andhi	r0, r0, #2, 0
     a80:	7e000002 	cdpvc	0, 0, cr0, cr0, cr2, {0}
     a84:	20000002 	andcs	r0, r0, r2
     a88:	00727470 	rsbseq	r7, r2, r0, ror r4
     a8c:	082a2401 	stmdaeq	sl!, {r0, sl, sp}
     a90:	a4000002 	strge	r0, [r0], #-2
     a94:	a0000002 	andge	r0, r0, r2
     a98:	17000002 	strne	r0, [r0, -r2]
     a9c:	006e696d 	rsbeq	r6, lr, sp, ror #18
     aa0:	080b2601 	stmdaeq	fp, {r0, r9, sl, sp}
     aa4:	c6000002 	strgt	r0, [r0], -r2
     aa8:	c2000002 	andgt	r0, r0, #2, 0
     aac:	17000002 	strne	r0, [r0, -r2]
     ab0:	0078616d 	rsbseq	r6, r8, sp, ror #2
     ab4:	080b2701 	stmdaeq	fp, {r0, r8, r9, sl, sp}
     ab8:	e6000002 	str	r0, [r0], -r2
     abc:	e4000002 	str	r0, [r0], #-2
     ac0:	19000002 	stmdbne	r0, {r1}
     ac4:	0000821c 	andeq	r8, r0, ip, lsl r2
     ac8:	000006e9 	andeq	r0, r0, r9, ror #13
     acc:	00000674 	andeq	r0, r0, r4, ror r6
     ad0:	0250011a 	subseq	r0, r0, #-2147483642	; 0x80000006
     ad4:	1b000076 	blne	cb4 <__code_start__-0x734c>
     ad8:	00008228 	andeq	r8, r0, r8, lsr #4
     adc:	00000685 	andeq	r0, r0, r5, lsl #13
     ae0:	0250011a 	subseq	r0, r0, #-2147483642	; 0x80000006
     ae4:	00000076 	andeq	r0, r0, r6, ror r0
     ae8:	00031714 	andeq	r1, r3, r4, lsl r7
     aec:	071e0100 	ldreq	r0, [lr, -r0, lsl #2]
     af0:	00000208 	andeq	r0, r0, r8, lsl #4
     af4:	000081d0 	ldrdeq	r8, [r0], -r0
     af8:	00000020 	andeq	r0, r0, r0, lsr #32
     afc:	06e99c01 	strbteq	r9, [r9], r1, lsl #24
     b00:	68200000 	stmdavs	r0!, {}	; <UNPREDICTABLE>
     b04:	191e0100 	ldmdbne	lr, {r8}
     b08:	00000228 	andeq	r0, r0, r8, lsr #4
     b0c:	000002fd 	strdeq	r0, [r0], -sp
     b10:	000002f9 	strdeq	r0, [r0], -r9
     b14:	00075922 	andeq	r5, r7, r2, lsr #18
     b18:	0081e400 	addeq	lr, r1, r0, lsl #8
     b1c:	81e40000 	mvnhi	r0, r0
     b20:	00040000 	andeq	r0, r4, r0
     b24:	20010000 	andcs	r0, r1, r0
     b28:	0006d826 	andeq	sp, r6, r6, lsr #16
     b2c:	076a2300 	strbeq	r2, [sl, -r0, lsl #6]!
     b30:	031d0000 	tsteq	sp, #0, 0
     b34:	031b0000 	tsteq	fp, #0, 0
     b38:	1b000000 	blne	b40 <__code_start__-0x74c0>
     b3c:	000081e4 	andeq	r8, r0, r4, ror #3
     b40:	000006e9 	andeq	r0, r0, r9, ror #13
     b44:	0250011a 	subseq	r0, r0, #-2147483642	; 0x80000006
     b48:	00000074 	andeq	r0, r0, r4, ror r0
     b4c:	00030a14 	andeq	r0, r3, r4, lsl sl
     b50:	07180100 	ldreq	r0, [r8, -r0, lsl #2]
     b54:	00000208 	andeq	r0, r0, r8, lsl #4
     b58:	000081ac 	andeq	r8, r0, ip, lsr #3
     b5c:	00000014 	andeq	r0, r0, r4, lsl r0
     b60:	07169c01 	ldreq	r9, [r6, -r1, lsl #24]
     b64:	68200000 	stmdavs	r0!, {}	; <UNPREDICTABLE>
     b68:	1b180100 	blne	600f70 <__bss_end__+0x5f5c78>
     b6c:	00000228 	andeq	r0, r0, r8, lsr #4
     b70:	00000334 	andeq	r0, r0, r4, lsr r3
     b74:	00000330 	andeq	r0, r0, r0, lsr r3
     b78:	02ec1400 	rsceq	r1, ip, #0, 8
     b7c:	11010000 	mrsne	r0, (UNDEF: 1)
     b80:	00022808 	andeq	r2, r2, r8, lsl #16
     b84:	00817c00 	addeq	r7, r1, r0, lsl #24
     b88:	00001c00 	andeq	r1, r0, r0, lsl #24
     b8c:	439c0100 	orrsmi	r0, ip, #0
     b90:	20000007 	andcs	r0, r0, r7
     b94:	11010070 	tstne	r1, r0, ror r0
     b98:	0002281b 	andeq	r2, r2, fp, lsl r8
     b9c:	00035900 	andeq	r5, r3, r0, lsl #18
     ba0:	00035500 	andeq	r5, r3, r0, lsl #10
     ba4:	b8240000 	stmdalt	r4!, {}	; <UNPREDICTABLE>
     ba8:	01000002 	tsteq	r0, r2
     bac:	0228080b 	eoreq	r0, r8, #720896	; 0xb0000
     bb0:	81500000 	cmphi	r0, r0
     bb4:	001c0000 	andseq	r0, ip, r0
     bb8:	9c010000 	stcls	0, cr0, [r1], {-0}
     bbc:	00032225 	andeq	r2, r3, r5, lsr #4
     bc0:	182f0200 	stmdane	pc!, {r9}	; <UNPREDICTABLE>
     bc4:	0000002c 	andeq	r0, r0, ip, lsr #32
     bc8:	00077503 	andeq	r7, r7, r3, lsl #10
     bcc:	00682600 	rsbeq	r2, r8, r0, lsl #12
     bd0:	28292f02 	stmdacs	r9!, {r1, r8, r9, sl, fp, sp}
     bd4:	00000002 	andeq	r0, r0, r2
     bd8:	00032c27 	andeq	r2, r3, r7, lsr #24
     bdc:	00032c00 	andeq	r2, r3, r0, lsl #24
     be0:	071e0600 	ldreq	r0, [lr, -r0, lsl #12]
     be4:	0001c827 	andeq	ip, r1, r7, lsr #16
     be8:	0001c800 	andeq	ip, r1, r0, lsl #16
     bec:	07f20400 	ldrbeq	r0, [r2, r0, lsl #8]!
     bf0:	00063b27 	andeq	r3, r6, r7, lsr #22
     bf4:	00063b00 	andeq	r3, r6, r0, lsl #22
     bf8:	06280400 	strteq	r0, [r8], -r0, lsl #8
     bfc:	0002c527 	andeq	ip, r2, r7, lsr #10
     c00:	0002c500 	andeq	ip, r2, r0, lsl #10
     c04:	05040700 	streq	r0, [r4, #-1792]	; 0xfffff900
     c08:	00006427 	andeq	r6, r0, r7, lsr #8
     c0c:	00006400 	andeq	r6, r0, r0, lsl #8
     c10:	066e0400 	strbteq	r0, [lr], -r0, lsl #8
     c14:	0002ec00 	andeq	lr, r2, r0, lsl #24
     c18:	09000400 	stmdbeq	r0, {sl}
     c1c:	04000004 	streq	r0, [r0], #-4
     c20:	00008401 	andeq	r8, r0, r1, lsl #8
     c24:	035e0c00 	cmpeq	lr, #0, 24
     c28:	01780000 	cmneq	r8, r0
     c2c:	85340000 	ldrhi	r0, [r4, #-0]!
     c30:	02000000 	andeq	r0, r0, #0, 0
     c34:	04cc0000 	strbeq	r0, [ip], #0
     c38:	04020000 	streq	r0, [r2], #-0
     c3c:	746e6905 	strbtvc	r6, [lr], #-2309	; 0xfffff6fb
     c40:	07040300 	streq	r0, [r4, -r0, lsl #6]
     c44:	000001e2 	andeq	r0, r0, r2, ror #3
     c48:	58060103 	stmdapl	r6, {r0, r1, r8}
     c4c:	03000000 	movweq	r0, #0
     c50:	02220502 	eoreq	r0, r2, #8388608	; 0x800000
     c54:	04030000 	streq	r0, [r3], #-0
     c58:	00020605 	andeq	r0, r2, r5, lsl #12
     c5c:	05080300 	streq	r0, [r8, #-768]	; 0xfffffd00
     c60:	00000201 	andeq	r0, r0, r1, lsl #4
     c64:	56080103 	strpl	r0, [r8], -r3, lsl #2
     c68:	03000000 	movweq	r0, #0
     c6c:	00710702 	rsbseq	r0, r1, r2, lsl #14
     c70:	04030000 	streq	r0, [r3], #-0
     c74:	0001dd07 	andeq	sp, r1, r7, lsl #26
     c78:	07080300 	streq	r0, [r8, -r0, lsl #6]
     c7c:	000001d8 	ldrdeq	r0, [r0], -r8
     c80:	00002504 	andeq	r2, r0, r4, lsl #10
     c84:	00007a00 	andeq	r7, r0, r0, lsl #20
     c88:	00250500 	eoreq	r0, r5, r0, lsl #10
     c8c:	06000000 	streq	r0, [r0], -r0
     c90:	0000020f 	andeq	r0, r0, pc, lsl #4
     c94:	860e1c02 	strhi	r1, [lr], -r2, lsl #24
     c98:	07000000 	streq	r0, [r0, -r0]
     c9c:	00006b04 	andeq	r6, r0, r4, lsl #22
     ca0:	00250400 	eoreq	r0, r5, r0, lsl #8
     ca4:	009b0000 	addseq	r0, fp, r0
     ca8:	9b050000 	blls	140cb0 <__bss_end__+0x1359b8>
     cac:	00000000 	andeq	r0, r0, r0
     cb0:	00a80407 	adceq	r0, r8, r7, lsl #8
     cb4:	01030000 	mrseq	r0, (UNDEF: 3)
     cb8:	00005f08 	andeq	r5, r0, r8, lsl #30
     cbc:	00a10800 	adceq	r0, r1, r0, lsl #16
     cc0:	79060000 	stmdbvc	r6, {}	; <UNPREDICTABLE>
     cc4:	02000006 	andeq	r0, r0, #6, 0
     cc8:	00b90e21 	adcseq	r0, r9, r1, lsr #28
     ccc:	04070000 	streq	r0, [r7], #-0
     cd0:	0000008c 	andeq	r0, r0, ip, lsl #1
     cd4:	00034309 	andeq	r4, r3, r9, lsl #6
     cd8:	05010800 	streq	r0, [r1, #-2048]	; 0xfffff800
     cdc:	0000ec07 	andeq	lr, r0, r7, lsl #24
     ce0:	00640a00 	rsbeq	r0, r4, r0, lsl #20
     ce4:	ec090701 	stc	7, cr0, [r9], {1}
     ce8:	0a000000 	beq	cf0 <__code_start__-0x7310>
     cec:	08010070 	stmdaeq	r1, {r4, r5, r6}
     cf0:	0000f308 	andeq	pc, r0, r8, lsl #6
     cf4:	70660a00 	rsbvc	r0, r6, r0, lsl #20
     cf8:	09090100 	stmdbeq	r9, {r8}
     cfc:	000000f6 	strdeq	r0, [r0], -r6
     d00:	04080300 	streq	r0, [r8], #-768	; 0xfffffd00
     d04:	0000036a 	andeq	r0, r0, sl, ror #6
     d08:	070c040b 	streq	r0, [ip, -fp, lsl #8]
     d0c:	0000f504 	andeq	pc, r0, r4, lsl #10
     d10:	01080d00 	tsteq	r8, r0, lsl #26
     d14:	0120020e 			; <UNDEFINED> instruction: 0x0120020e
     d18:	700e0000 	andvc	r0, lr, r0
     d1c:	01007274 	tsteq	r0, r4, ror r2
     d20:	01421110 	cmpeq	r2, r0, lsl r1
     d24:	0f000000 	svceq	0x00000000
     d28:	00000384 	andeq	r0, r0, r4, lsl #7
     d2c:	2c0c1101 	stfcss	f1, [ip], {1}
     d30:	04000000 	streq	r0, [r0], #-0
     d34:	03360900 	teqeq	r6, #0, 18
     d38:	01080000 	mrseq	r0, (UNDEF: 8)
     d3c:	01420f0c 	cmpeq	r2, ip, lsl #30
     d40:	730a0000 	movwvc	r0, #40960	; 0xa000
     d44:	04120100 	ldreq	r0, [r2], #-256	; 0xffffff00
     d48:	000000fc 	strdeq	r0, [r0], -ip
     d4c:	0100780a 	tsteq	r0, sl, lsl #16
     d50:	00bf0e13 	adcseq	r0, pc, r3, lsl lr	; <UNPREDICTABLE>
     d54:	07000000 	streq	r0, [r0, -r0]
     d58:	00012004 	andeq	r2, r1, r4
     d5c:	03891000 	orreq	r1, r9, #0, 0
     d60:	14010000 	strne	r0, [r1], #-0
     d64:	00012003 	andeq	r2, r1, r3
     d68:	03711100 	cmneq	r1, #0
     d6c:	18010000 	stmdane	r1, {}	; <UNPREDICTABLE>
     d70:	0001480f 	andeq	r4, r1, pc, lsl #16
     d74:	e0030500 	and	r0, r3, r0, lsl #10
     d78:	110000ae 	smlatbne	r0, lr, r0, r0
     d7c:	00000351 	andeq	r0, r0, r1, asr r3
     d80:	78101901 	ldmdavc	r0, {r0, r8, fp, ip}
     d84:	05000001 	streq	r0, [r0, #-1]
     d88:	00aed803 	adceq	sp, lr, r3, lsl #16
     d8c:	48040700 	stmdami	r4, {r8, r9, sl}
     d90:	12000001 	andne	r0, r0, #1, 0
     d94:	00000349 	andeq	r0, r0, r9, asr #6
     d98:	40065301 	andmi	r5, r6, r1, lsl #6
     d9c:	c4000085 	strgt	r0, [r0], #-133	; 0xffffff7b
     da0:	01000000 	mrseq	r0, (UNDEF: 0)
     da4:	0001c79c 	muleq	r1, ip, r7
     da8:	70611300 	rsbvc	r1, r1, r0, lsl #6
     dac:	14530100 	ldrbne	r0, [r3], #-256	; 0xffffff00
     db0:	000000f3 	strdeq	r0, [r0], -r3
     db4:	62145001 	andsvs	r5, r4, #1, 0
     db8:	55010070 	strpl	r0, [r1, #-112]	; 0xffffff90
     dbc:	0001780a 	andeq	r7, r1, sl, lsl #16
     dc0:	00038200 	andeq	r8, r3, r0, lsl #4
     dc4:	00037a00 	andeq	r7, r3, r0, lsl #20
     dc8:	00701400 	rsbseq	r1, r0, r0, lsl #8
     dcc:	780f5501 	stmdavc	pc, {r0, r8, sl, ip, lr}	; <UNPREDICTABLE>
     dd0:	be000001 	cdplt	0, 0, cr0, cr0, cr1, {0}
     dd4:	ba000003 	blt	de8 <__code_start__-0x7218>
     dd8:	00000003 	andeq	r0, r0, r3
     ddc:	00032c15 	andeq	r2, r3, r5, lsl ip
     de0:	072b0100 	streq	r0, [fp, -r0, lsl #2]!
     de4:	000000f3 	strdeq	r0, [r0], -r3
     de8:	00008680 	andeq	r8, r0, r0, lsl #13
     dec:	000000b4 	strheq	r0, [r0], -r4
     df0:	02419c01 	subeq	r9, r1, #256	; 0x100
     df4:	25160000 	ldrcs	r0, [r6, #-0]
     df8:	01000003 	tsteq	r0, r3
     dfc:	002c1a2b 	eoreq	r1, ip, fp, lsr #20
     e00:	03e40000 	mvneq	r0, #0, 0
     e04:	03dc0000 	bicseq	r0, ip, #0, 0
     e08:	70140000 	andsvc	r0, r4, r0
     e0c:	0a2d0100 	beq	b41214 <__bss_end__+0xb35f1c>
     e10:	00000178 	andeq	r0, r0, r8, ror r1
     e14:	0000042c 	andeq	r0, r0, ip, lsr #8
     e18:	0000041e 	andeq	r0, r0, lr, lsl r4
     e1c:	00033d17 	andeq	r3, r3, r7, lsl sp
     e20:	0e2d0100 	sufeqe	f0, f5, f0
     e24:	00000178 	andeq	r0, r0, r8, ror r1
     e28:	0000048e 	andeq	r0, r0, lr, lsl #9
     e2c:	00000484 	andeq	r0, r0, r4, lsl #9
     e30:	00035717 	andeq	r5, r3, r7, lsl r7
     e34:	0b2e0100 	bleq	b8123c <__bss_end__+0xb75f44>
     e38:	0000002c 	andeq	r0, r0, ip, lsr #32
     e3c:	000004d4 	ldrdeq	r0, [r0], -r4
     e40:	000004d2 	ldrdeq	r0, [r0], -r2
     e44:	00872418 	addeq	r2, r7, r8, lsl r4
     e48:	00024100 	andeq	r4, r2, r0, lsl #2
     e4c:	50011900 	andpl	r1, r1, r0, lsl #18
     e50:	80000a03 	andhi	r0, r0, r3, lsl #20
     e54:	7b1a0000 	blvc	680e5c <__bss_end__+0x675b64>
     e58:	01000003 	tsteq	r0, r3
     e5c:	0178101c 	cmneq	r8, ip, lsl r0
     e60:	86140000 	ldrhi	r0, [r4], -r0
     e64:	005c0000 	subseq	r0, ip, r0
     e68:	9c010000 	stcls	0, cr0, [r1], {-0}
     e6c:	000002d1 	ldrdeq	r0, [r0], -r1
     e70:	00756e1b 	rsbseq	r6, r5, fp, lsl lr
     e74:	2c221c01 	stccs	12, cr1, [r2], #-4
     e78:	eb000000 	bl	e80 <__code_start__-0x7180>
     e7c:	e7000004 	str	r0, [r0, -r4]
     e80:	14000004 	strne	r0, [r0], #-4
     e84:	01007063 	tsteq	r0, r3, rrx
     e88:	02d10821 	sbcseq	r0, r1, #2162688	; 0x210000
     e8c:	050f0000 	streq	r0, [pc, #-0]	; e94 <__code_start__-0x716c>
     e90:	05090000 	streq	r0, [r9, #-0]
     e94:	75140000 	ldrvc	r0, [r4, #-0]
     e98:	24010070 	strcs	r0, [r1], #-112	; 0xffffff90
     e9c:	0001780a 	andeq	r7, r1, sl, lsl #16
     ea0:	00053e00 	andeq	r3, r5, r0, lsl #28
     ea4:	00053a00 	andeq	r3, r5, r0, lsl #20
     ea8:	86381c00 	ldrthi	r1, [r8], -r0, lsl #24
     eac:	02d70000 	sbcseq	r0, r7, #0, 0
     eb0:	02b10000 	adcseq	r0, r1, #0, 0
     eb4:	01190000 	tsteq	r9, r0
     eb8:	64030550 	strvs	r0, [r3], #-1360	; 0xfffffab0
     ebc:	190000a7 	stmdbne	r0, {r0, r1, r2, r5, r7}
     ec0:	74025101 	strvc	r5, [r2], #-257	; 0xfffffeff
     ec4:	401c0000 	andsmi	r0, ip, r0
     ec8:	e3000086 	movw	r0, #134	; 0x86
     ecc:	c7000002 	strgt	r0, [r0, -r2]
     ed0:	19000002 	stmdbne	r0, {r1}
     ed4:	74045001 	strvc	r5, [r4], #-1
     ed8:	00243300 	eoreq	r3, r4, r0, lsl #6
     edc:	0086541d 	addeq	r5, r6, sp, lsl r4
     ee0:	00017e00 	andeq	r7, r1, r0, lsl #28
     ee4:	04070000 	streq	r0, [r7], #-0
     ee8:	000000a1 	andeq	r0, r0, r1, lsr #1
     eec:	00063b1e 	andeq	r3, r6, lr, lsl fp
     ef0:	00063b00 	andeq	r3, r6, r0, lsl #22
     ef4:	06280200 	strteq	r0, [r8], -r0, lsl #4
     ef8:	0003761e 	andeq	r7, r3, lr, lsl r6
     efc:	00037600 	andeq	r7, r3, r0, lsl #12
     f00:	0b1a0300 	bleq	681b08 <__bss_end__+0x676810>
     f04:	000ed100 	andeq	sp, lr, r0, lsl #2
     f08:	e0000400 	and	r0, r0, r0, lsl #8
     f0c:	04000005 	streq	r0, [r0], #-5
     f10:	00008401 	andeq	r8, r0, r1, lsl #8
     f14:	046a0c00 	strbteq	r0, [sl], #-3072	; 0xfffff400
     f18:	01780000 	cmneq	r8, r0
     f1c:	87340000 	ldrhi	r0, [r4, -r0]!
     f20:	081c0000 	ldmdaeq	ip, {}	; <UNPREDICTABLE>
     f24:	06f80000 	ldrbteq	r0, [r8], r0
     f28:	04020000 	streq	r0, [r2], #-0
     f2c:	746e6905 	strbtvc	r6, [lr], #-2309	; 0xfffff6fb
     f30:	07040300 	streq	r0, [r4, -r0, lsl #6]
     f34:	000001e2 	andeq	r0, r0, r2, ror #3
     f38:	58060103 	stmdapl	r6, {r0, r1, r8}
     f3c:	03000000 	movweq	r0, #0
     f40:	02220502 	eoreq	r0, r2, #8388608	; 0x800000
     f44:	04030000 	streq	r0, [r3], #-0
     f48:	00020605 	andeq	r0, r2, r5, lsl #12
     f4c:	05080300 	streq	r0, [r8, #-768]	; 0xfffffd00
     f50:	00000201 	andeq	r0, r0, r1, lsl #4
     f54:	0001ef04 	andeq	lr, r1, r4, lsl #30
     f58:	182e0300 	stmdane	lr!, {r8, r9}
     f5c:	0000005b 	andeq	r0, r0, fp, asr r0
     f60:	56080103 	strpl	r0, [r8], -r3, lsl #2
     f64:	04000000 	streq	r0, [r0], #-0
     f68:	00000236 	andeq	r0, r0, r6, lsr r2
     f6c:	6e193103 	mufvse	f3, f1, f3
     f70:	03000000 	movweq	r0, #0
     f74:	00710702 	rsbseq	r0, r1, r2, lsl #14
     f78:	67040000 	strvs	r0, [r4, -r0]
     f7c:	03000002 	movweq	r0, #2
     f80:	00811934 	addeq	r1, r1, r4, lsr r9
     f84:	04030000 	streq	r0, [r3], #-0
     f88:	0001dd07 	andeq	sp, r1, r7, lsl #26
     f8c:	07080300 	streq	r0, [r8, -r0, lsl #6]
     f90:	000001d8 	ldrdeq	r0, [r0], -r8
     f94:	00002505 	andeq	r2, r0, r5, lsl #10
     f98:	00009e00 	andeq	r9, r0, r0, lsl #28
     f9c:	00250600 	eoreq	r0, r5, r0, lsl #12
     fa0:	07000000 	streq	r0, [r0, -r0]
     fa4:	0000020f 	andeq	r0, r0, pc, lsl #4
     fa8:	aa0e1c04 	bge	387fc0 <__bss_end__+0x37ccc8>
     fac:	08000000 	stmdaeq	r0, {}	; <UNPREDICTABLE>
     fb0:	00008f04 	andeq	r8, r0, r4, lsl #30
     fb4:	00250500 	eoreq	r0, r5, r0, lsl #10
     fb8:	00bf0000 	adcseq	r0, pc, r0
     fbc:	bf060000 	svclt	0x00060000
     fc0:	00000000 	andeq	r0, r0, r0
     fc4:	00cc0408 	sbceq	r0, ip, r8, lsl #8
     fc8:	01030000 	mrseq	r0, (UNDEF: 3)
     fcc:	00005f08 	andeq	r5, r0, r8, lsl #30
     fd0:	00c50900 	sbceq	r0, r5, r0, lsl #18
     fd4:	79070000 	stmdbvc	r7, {}	; <UNPREDICTABLE>
     fd8:	04000006 	streq	r0, [r0], #-6
     fdc:	00dd0e21 	sbcseq	r0, sp, r1, lsr #28
     fe0:	04080000 	streq	r0, [r8], #-0
     fe4:	000000b0 	strheq	r0, [r0], -r0	; <UNPREDICTABLE>
     fe8:	05020c0a 	streq	r0, [r2, #-3082]	; 0xfffff3f6
     fec:	00011409 	andeq	r1, r1, r9, lsl #8
     ff0:	00510b00 	subseq	r0, r1, r0, lsl #22
     ff4:	07020000 	streq	r0, [r2, -r0]
     ff8:	0000bf11 	andeq	fp, r0, r1, lsl pc
     ffc:	b60b0000 	strlt	r0, [fp], -r0
    1000:	02000001 	andeq	r0, r0, #1, 0
    1004:	00bf1108 	adcseq	r1, pc, r8, lsl #2
    1008:	0b040000 	bleq	101010 <__bss_end__+0xf5d18>
    100c:	00000026 	andeq	r0, r0, r6, lsr #32
    1010:	2c0e0902 			; <UNDEFINED> instruction: 0x2c0e0902
    1014:	08000000 	stmdaeq	r0, {}	; <UNPREDICTABLE>
    1018:	022c0400 	eoreq	r0, ip, #0, 8
    101c:	0a020000 	beq	81024 <__bss_end__+0x75d2c>
    1020:	0000e303 	andeq	lr, r0, r3, lsl #6
    1024:	01070c00 	tsteq	r7, r0, lsl #24
    1028:	0000005b 	andeq	r0, r0, fp, asr r0
    102c:	3b0e0905 	blcc	383448 <__bss_end__+0x378150>
    1030:	0d000001 	stceq	0, cr0, [r0, #-4]
    1034:	00000302 	andeq	r0, r0, r2, lsl #6
    1038:	02970d0b 	addseq	r0, r7, #704	; 0x2c0
    103c:	000c0000 	andeq	r0, ip, r0
    1040:	5b01070c 	blpl	42c78 <__bss_end__+0x37980>
    1044:	05000000 	streq	r0, [r0, #-0]
    1048:	0156060a 	cmpeq	r6, sl, lsl #12
    104c:	a90d0000 	stmdbge	sp, {}	; <UNPREDICTABLE>
    1050:	80000002 	andhi	r0, r0, r2
    1054:	00029d0d 	andeq	r9, r2, sp, lsl #26
    1058:	0e00fe00 	cdpeq	14, 0, cr15, cr0, cr0, {0}
    105c:	00000166 	andeq	r0, r0, r6, ror #2
    1060:	100d05b4 			; <UNDEFINED> instruction: 0x100d05b4
    1064:	000001e6 	andeq	r0, r0, r6, ror #3
    1068:	0000130b 	andeq	r1, r0, fp, lsl #6
    106c:	140e0500 	strne	r0, [lr], #-1280	; 0xfffffb00
    1070:	000001e6 	andeq	r0, r0, r6, ror #3
    1074:	00350b00 	eorseq	r0, r5, r0, lsl #22
    1078:	0f050000 	svceq	0x00050000
    107c:	0000750e 	andeq	r7, r0, lr, lsl #10
    1080:	200b0400 	andcs	r0, fp, r0, lsl #8
    1084:	05000000 	streq	r0, [r0, #-0]
    1088:	00750e10 	rsbseq	r0, r5, r0, lsl lr
    108c:	0b080000 	bleq	201094 <__bss_end__+0x1f5d9c>
    1090:	000001cf 	andeq	r0, r0, pc, asr #3
    1094:	750e1405 	strvc	r1, [lr, #-1029]	; 0xfffffbfb
    1098:	0c000000 	stceq	0, cr0, [r0], {-0}
    109c:	0001f70b 	andeq	pc, r1, fp, lsl #14
    10a0:	0f160500 	svceq	0x00160500
    10a4:	00000114 	andeq	r0, r0, r4, lsl r1
    10a8:	025e0b10 	subseq	r0, lr, #16, 22	; 0x4000
    10ac:	17050000 	strne	r0, [r5, -r0]
    10b0:	0001140f 	andeq	r1, r1, pc, lsl #8
    10b4:	700b1c00 	andvc	r1, fp, r0, lsl #24
    10b8:	05000002 	streq	r0, [r0, #-2]
    10bc:	00750e1a 	rsbseq	r0, r5, sl, lsl lr
    10c0:	0b280000 	bleq	a010c8 <__bss_end__+0x9f5dd0>
    10c4:	0000027b 	andeq	r0, r0, fp, ror r2
    10c8:	750e1b05 	strvc	r1, [lr, #-2821]	; 0xfffff4fb
    10cc:	2c000000 	stccs	0, cr0, [r0], {-0}
    10d0:	0003e00b 	andeq	lr, r3, fp
    10d4:	0e1d0500 	cfmul32eq	mvfx0, mvfx13, mvfx0
    10d8:	00000062 	andeq	r0, r0, r2, rrx
    10dc:	7a720f30 	bvc	1c84da4 <__bss_end__+0x1c79aac>
    10e0:	1f050031 	svcne	0x00050031
    10e4:	0001ec0d 	andeq	lr, r1, sp, lsl #24
    10e8:	08003200 	stmdaeq	r0, {r9, ip, sp}
    10ec:	00015604 	andeq	r5, r1, r4, lsl #12
    10f0:	004f1000 	subeq	r1, pc, r0
    10f4:	01fc0000 	mvnseq	r0, r0
    10f8:	2c110000 	ldccs	0, cr0, [r1], {-0}
    10fc:	7f000000 	svcvc	0x00000000
    1100:	000d0400 	andeq	r0, sp, r0, lsl #8
    1104:	20050000 	andcs	r0, r5, r0
    1108:	00015603 	andeq	r5, r1, r3, lsl #12
    110c:	07041200 	streq	r1, [r4, -r0, lsl #4]
    1110:	00000000 	andeq	r0, r0, r0
    1114:	2c11a605 	ldccs	6, cr10, [r1], {5}
    1118:	13000000 	movwne	r0, #0
    111c:	00000ae1 	andeq	r0, r0, r1, ror #21
    1120:	080e1001 	stmdaeq	lr, {r0, ip}
    1124:	05000002 	streq	r0, [r0, #-2]
    1128:	00aee803 	adceq	lr, lr, r3, lsl #16
    112c:	0b3c1300 	bleq	f05d34 <__bss_end__+0xefaa3c>
    1130:	11010000 	mrsne	r0, (UNDEF: 1)
    1134:	0002080e 	andeq	r0, r2, lr, lsl #16
    1138:	ec030500 	cfstr32	mvfx0, [r3], {-0}
    113c:	140000ae 	strne	r0, [r0], #-174	; 0xffffff52
    1140:	000003a3 	andeq	r0, r0, r3, lsr #7
    1144:	06013201 	streq	r3, [r1], -r1, lsl #4
    1148:	00008f20 	andeq	r8, r0, r0, lsr #30
    114c:	00000030 	andeq	r0, r0, r0, lsr r0
    1150:	029a9c01 	addseq	r9, sl, #256	; 0x100
    1154:	bb150000 	bllt	54115c <__bss_end__+0x535e64>
    1158:	aa000001 	bge	1164 <__code_start__-0x6e9c>
    115c:	05000002 	streq	r0, [r0, #-2]
    1160:	00ab2803 	adceq	r2, fp, r3, lsl #16
    1164:	8f401600 	svchi	0x00401600
    1168:	0e4d0000 	cdpeq	0, 4, cr0, cr13, cr0, {0}
    116c:	02900000 	addseq	r0, r0, #0, 0
    1170:	01170000 	tsteq	r7, r0
    1174:	b8030550 	stmdalt	r3, {r4, r6, r8, sl}
    1178:	170000aa 	strne	r0, [r0, -sl, lsr #1]
    117c:	03055101 	movweq	r5, #20737	; 0x5101
    1180:	0000a788 	andeq	sl, r0, r8, lsl #15
    1184:	05520117 	ldrbeq	r0, [r2, #-279]	; 0xfffffee9
    1188:	00ab2803 	adceq	r2, fp, r3, lsl #16
    118c:	53011700 	movwpl	r1, #5888	; 0x1700
    1190:	01340a03 	teqeq	r4, r3, lsl #20
    1194:	8f441800 	svchi	0x00441800
    1198:	0e590000 	cdpeq	0, 5, cr0, cr9, cr0, {0}
    119c:	10000000 	andne	r0, r0, r0
    11a0:	000000cc 	andeq	r0, r0, ip, asr #1
    11a4:	000002aa 	andeq	r0, r0, sl, lsr #5
    11a8:	00002c11 	andeq	r2, r0, r1, lsl ip
    11ac:	09000e00 	stmdbeq	r0, {r9, sl, fp}
    11b0:	0000029a 	muleq	r0, sl, r2
    11b4:	00040a19 	andeq	r0, r4, r9, lsl sl
    11b8:	01280100 			; <UNDEFINED> instruction: 0x01280100
    11bc:	00002c0a 	andeq	r2, r0, sl, lsl #24
    11c0:	008ef400 	addeq	pc, lr, r0, lsl #8
    11c4:	00001800 	andeq	r1, r0, r0, lsl #16
    11c8:	f29c0100 	vaddw.s16	q0, q6, d0
    11cc:	1a000002 	bne	11dc <__code_start__-0x6e24>
    11d0:	00000325 	andeq	r0, r0, r5, lsr #6
    11d4:	0e012b01 	vmlaeq.f64	d2, d1, d1
    11d8:	0000002c 	andeq	r0, r0, ip, lsr #32
    11dc:	00000560 	andeq	r0, r0, r0, ror #10
    11e0:	0000055e 	andeq	r0, r0, lr, asr r5
    11e4:	008f0418 	addeq	r0, pc, r8, lsl r4	; <UNPREDICTABLE>
    11e8:	00093d00 	andeq	r3, r9, r0, lsl #26
    11ec:	8f081800 	svchi	0x00081800
    11f0:	02f20000 	rscseq	r0, r2, #0, 0
    11f4:	1b000000 	blne	11fc <__code_start__-0x6e04>
    11f8:	000004e0 	andeq	r0, r0, r0, ror #9
    11fc:	11011001 	tstne	r1, r1
    1200:	0000002c 	andeq	r0, r0, ip, lsr #32
    1204:	00008b18 	andeq	r8, r0, r8, lsl fp
    1208:	000000e4 	andeq	r0, r0, r4, ror #1
    120c:	04619c01 	strbteq	r9, [r1], #-3073	; 0xfffff3ff
    1210:	c01a0000 	andsgt	r0, sl, r0
    1214:	01000003 	tsteq	r0, r3
    1218:	2c0e0112 	stfcss	f0, [lr], {18}
    121c:	77000000 	strvc	r0, [r0, -r0]
    1220:	73000005 	movwvc	r0, #5
    1224:	1a000005 	bne	1240 <__code_start__-0x6dc0>
    1228:	00000447 	andeq	r0, r0, r7, asr #8
    122c:	1b011201 	blne	45a38 <__bss_end__+0x3a740>
    1230:	0000002c 	andeq	r0, r0, ip, lsr #32
    1234:	0000059a 	muleq	r0, sl, r5
    1238:	00000596 	muleq	r0, r6, r5
    123c:	0003cf1a 	andeq	ip, r3, sl, lsl pc
    1240:	01120100 	tsteq	r2, r0, lsl #2
    1244:	00002c27 	andeq	r2, r0, r7, lsr #24
    1248:	0005bf00 	andeq	fp, r5, r0, lsl #30
    124c:	0005b900 	andeq	fp, r5, r0, lsl #18
    1250:	01bb1500 			; <UNDEFINED> instruction: 0x01bb1500
    1254:	04710000 	ldrbteq	r0, [r1], #-0
    1258:	03050000 	movweq	r0, #20480	; 0x5000
    125c:	0000aaf0 	strdeq	sl, [r0], -r0
    1260:	0000601c 	andeq	r6, r0, ip, lsl r0
    1264:	00040400 	andeq	r0, r4, r0, lsl #8
    1268:	00681d00 	rsbeq	r1, r8, r0, lsl #26
    126c:	11011701 	tstne	r1, r1, lsl #14
    1270:	00000476 	andeq	r0, r0, r6, ror r4
    1274:	000005f1 	strdeq	r0, [r0], -r1
    1278:	000005e9 	andeq	r0, r0, r9, ror #11
    127c:	000e171e 	andeq	r1, lr, lr, lsl r7
    1280:	008b6400 	addeq	r6, fp, r0, lsl #8
    1284:	8b640000 	blhi	190128c <__bss_end__+0x18f5f94>
    1288:	00180000 	andseq	r0, r8, r0
    128c:	1e010000 	cdpne	0, 0, cr0, cr1, cr0, {0}
    1290:	03b90d01 			; <UNDEFINED> instruction: 0x03b90d01
    1294:	401f0000 	andsmi	r0, pc, r0
    1298:	2700000e 	strcs	r0, [r0, -lr]
    129c:	25000006 	strcs	r0, [r0, #-6]
    12a0:	1f000006 	svcne	0x00000006
    12a4:	00000e34 	andeq	r0, r0, r4, lsr lr
    12a8:	0000063f 	andeq	r0, r0, pc, lsr r6
    12ac:	0000063d 	andeq	r0, r0, sp, lsr r6
    12b0:	000e281f 	andeq	r2, lr, pc, lsl r8
    12b4:	00065900 	andeq	r5, r6, r0, lsl #18
    12b8:	00065700 	andeq	r5, r6, r0, lsl #14
    12bc:	40180000 	andsmi	r0, r8, r0
    12c0:	7400008b 	strvc	r0, [r0], #-139	; 0xffffff75
    12c4:	1600000e 	strne	r0, [r0], -lr
    12c8:	00008b8c 	andeq	r8, r0, ip, lsl #23
    12cc:	00000e80 	andeq	r0, r0, r0, lsl #29
    12d0:	000003d6 	ldrdeq	r0, [r0], -r6
    12d4:	02500117 	subseq	r0, r0, #-1073741819	; 0xc0000005
    12d8:	16000076 			; <UNDEFINED> instruction: 0x16000076
    12dc:	00008b98 	muleq	r0, r8, fp
    12e0:	00000e4d 	andeq	r0, r0, sp, asr #28
    12e4:	000003f3 	strdeq	r0, [r0], -r3
    12e8:	05500117 	ldrbeq	r0, [r0, #-279]	; 0xfffffee9
    12ec:	00a96403 	adceq	r6, r9, r3, lsl #8
    12f0:	51011700 	tstpl	r1, r0, lsl #14
    12f4:	00007602 	andeq	r7, r0, r2, lsl #12
    12f8:	008ba020 	addeq	sl, fp, r0, lsr #32
    12fc:	000e8c00 	andeq	r8, lr, r0, lsl #24
    1300:	50011700 	andpl	r1, r1, r0, lsl #14
    1304:	00007402 	andeq	r7, r0, r2, lsl #8
    1308:	8b301600 	blhi	c06b10 <__bss_end__+0xbfb818>
    130c:	0e4d0000 	cdpeq	0, 4, cr0, cr13, cr0, {0}
    1310:	041b0000 	ldreq	r0, [fp], #-0
    1314:	01170000 	tsteq	r7, r0
    1318:	20030550 	andcs	r0, r3, r0, asr r5
    131c:	000000a8 	andeq	r0, r0, r8, lsr #1
    1320:	008b3816 	addeq	r3, fp, r6, lsl r8
    1324:	000e4d00 	andeq	r4, lr, r0, lsl #26
    1328:	00043200 	andeq	r3, r4, r0, lsl #4
    132c:	50011700 	andpl	r1, r1, r0, lsl #14
    1330:	a9540305 	ldmdbge	r4, {r0, r2, r8, r9}^
    1334:	18000000 	stmdane	r0, {}	; <UNPREDICTABLE>
    1338:	00008b3c 	andeq	r8, r0, ip, lsr fp
    133c:	0000093d 	andeq	r0, r0, sp, lsr r9
    1340:	008bd420 	addeq	sp, fp, r0, lsr #8
    1344:	000e4d00 	andeq	r4, lr, r0, lsl #26
    1348:	50011700 	andpl	r1, r1, r0, lsl #14
    134c:	a9740305 	ldmdbge	r4!, {r0, r2, r8, r9}^
    1350:	01170000 	tsteq	r7, r0
    1354:	00750251 	rsbseq	r0, r5, r1, asr r2
    1358:	02520117 	subseq	r0, r2, #-1073741819	; 0xc0000005
    135c:	01170078 	tsteq	r7, r8, ror r0
    1360:	00770253 	rsbseq	r0, r7, r3, asr r2
    1364:	cc100000 	ldcgt	0, cr0, [r0], {-0}
    1368:	71000000 	mrsvc	r0, (UNDEF: 0)
    136c:	11000004 	tstne	r0, r4
    1370:	0000002c 	andeq	r0, r0, ip, lsr #32
    1374:	6109000a 	tstvs	r9, sl
    1378:	08000004 	stmdaeq	r0, {r2}
    137c:	0001fc04 	andeq	pc, r1, r4, lsl #24
    1380:	04721900 	ldrbteq	r1, [r2], #-2304	; 0xfffff700
    1384:	00010000 	andeq	r0, r1, r0
    1388:	002c0a01 	eoreq	r0, ip, r1, lsl #20
    138c:	8e900000 	cdphi	0, 9, cr0, cr0, cr0, {0}
    1390:	00580000 	subseq	r0, r8, r0
    1394:	9c010000 	stcls	0, cr0, [r1], {-0}
    1398:	00000525 	andeq	r0, r0, r5, lsr #10
    139c:	0004271a 	andeq	r2, r4, sl, lsl r7
    13a0:	01060100 	mrseq	r0, (UNDEF: 22)
    13a4:	00002c0e 	andeq	r2, r0, lr, lsl #24
    13a8:	00067700 	andeq	r7, r6, r0, lsl #14
    13ac:	00067100 	andeq	r7, r6, r0, lsl #2
    13b0:	01bb1500 			; <UNDEFINED> instruction: 0x01bb1500
    13b4:	05350000 	ldreq	r0, [r5, #-0]!
    13b8:	03050000 	movweq	r0, #20480	; 0x5000
    13bc:	0000ab14 	andeq	sl, r0, r4, lsl fp
    13c0:	008ea416 	addeq	sl, lr, r6, lsl r4
    13c4:	0005d700 	andeq	sp, r5, r0, lsl #14
    13c8:	0004ce00 	andeq	ip, r4, r0, lsl #28
    13cc:	50011700 	andpl	r1, r1, r0, lsl #14
    13d0:	16003101 	strne	r3, [r0], -r1, lsl #2
    13d4:	00008eb8 			; <UNDEFINED> instruction: 0x00008eb8
    13d8:	00000e4d 	andeq	r0, r0, sp, asr #28
    13dc:	000004eb 	andeq	r0, r0, fp, ror #9
    13e0:	05500117 	ldrbeq	r0, [r0, #-279]	; 0xfffffee9
    13e4:	00aa9403 	adceq	r9, sl, r3, lsl #8
    13e8:	51011700 	tstpl	r1, r0, lsl #14
    13ec:	00007402 	andeq	r7, r0, r2, lsl #8
    13f0:	008ed416 	addeq	sp, lr, r6, lsl r4
    13f4:	000e4d00 	andeq	r4, lr, r0, lsl #26
    13f8:	00051b00 	andeq	r1, r5, r0, lsl #22
    13fc:	50011700 	andpl	r1, r1, r0, lsl #14
    1400:	aa6c0305 	bge	1b0201c <__bss_end__+0x1af6d24>
    1404:	01170000 	tsteq	r7, r0
    1408:	88030551 	stmdahi	r3, {r0, r4, r6, r8, sl}
    140c:	170000a7 	strne	r0, [r0, -r7, lsr #1]
    1410:	03055201 	movweq	r5, #20993	; 0x5201
    1414:	0000ab14 	andeq	sl, r0, r4, lsl fp
    1418:	03530117 	cmpeq	r3, #-1073741819	; 0xc0000005
    141c:	0001080a 	andeq	r0, r1, sl, lsl #16
    1420:	008ed818 	addeq	sp, lr, r8, lsl r8
    1424:	000e5900 	andeq	r5, lr, r0, lsl #18
    1428:	cc100000 	ldcgt	0, cr0, [r0], {-0}
    142c:	35000000 	strcc	r0, [r0, #-0]
    1430:	11000005 	tstne	r0, r5
    1434:	0000002c 	andeq	r0, r0, ip, lsr #32
    1438:	25090011 	strcs	r0, [r9, #-17]	; 0xffffffef
    143c:	21000005 	tstcs	r0, r5
    1440:	0000044e 	andeq	r0, r0, lr, asr #8
    1444:	2806f201 	stmdacs	r6, {r0, r9, ip, sp, lr, pc}
    1448:	5000008e 	andpl	r0, r0, lr, lsl #1
    144c:	01000000 	mrseq	r0, (UNDEF: 0)
    1450:	0005c29c 	muleq	r5, ip, r2
    1454:	01bb1500 			; <UNDEFINED> instruction: 0x01bb1500
    1458:	05d20000 	ldrbeq	r0, [r2]
    145c:	03050000 	movweq	r0, #20480	; 0x5000
    1460:	0000ab04 	andeq	sl, r0, r4, lsl #22
    1464:	008e3c16 	addeq	r3, lr, r6, lsl ip
    1468:	0005d700 	andeq	sp, r5, r0, lsl #14
    146c:	00057200 	andeq	r7, r5, r0, lsl #4
    1470:	50011700 	andpl	r1, r1, r0, lsl #14
    1474:	16003101 	strne	r3, [r0], -r1, lsl #2
    1478:	00008e4c 	andeq	r8, r0, ip, asr #28
    147c:	00000e4d 	andeq	r0, r0, sp, asr #28
    1480:	00000589 	andeq	r0, r0, r9, lsl #11
    1484:	05500117 	ldrbeq	r0, [r0, #-279]	; 0xfffffee9
    1488:	00aa4c03 	adceq	r4, sl, r3, lsl #24
    148c:	64160000 	ldrvs	r0, [r6], #-0
    1490:	4d00008e 	stcmi	0, cr0, [r0, #-568]	; 0xfffffdc8
    1494:	b800000e 	stmdalt	r0, {r1, r2, r3}
    1498:	17000005 	strne	r0, [r0, -r5]
    149c:	03055001 	movweq	r5, #20481	; 0x5001
    14a0:	0000aa20 	andeq	sl, r0, r0, lsr #20
    14a4:	05510117 	ldrbeq	r0, [r1, #-279]	; 0xfffffee9
    14a8:	00a78803 	adceq	r8, r7, r3, lsl #16
    14ac:	52011700 	andpl	r1, r1, #0, 14
    14b0:	ab040305 	blge	1020cc <__bss_end__+0xf6dd4>
    14b4:	01170000 	tsteq	r7, r0
    14b8:	f9080253 			; <UNDEFINED> instruction: 0xf9080253
    14bc:	8e681800 	cdphi	8, 6, cr1, cr8, cr0, {0}
    14c0:	0e590000 	cdpeq	0, 5, cr0, cr9, cr0, {0}
    14c4:	10000000 	andne	r0, r0, r0
    14c8:	000000cc 	andeq	r0, r0, ip, asr #1
    14cc:	000005d2 	ldrdeq	r0, [r0], -r2
    14d0:	00002c11 	andeq	r2, r0, r1, lsl ip
    14d4:	09000d00 	stmdbeq	r0, {r8, sl, fp}
    14d8:	000005c2 	andeq	r0, r0, r2, asr #11
    14dc:	0003ef22 	andeq	lr, r3, r2, lsr #30
    14e0:	0aeb0100 	beq	ffac18e8 <__bss_end__+0xffab65f0>
    14e4:	0000002c 	andeq	r0, r0, ip, lsr #32
    14e8:	00008e00 	andeq	r8, r0, r0, lsl #28
    14ec:	00000014 	andeq	r0, r0, r4, lsl r0
    14f0:	06179c01 	ldreq	r9, [r7], -r1, lsl #24
    14f4:	eb230000 	bl	8c14fc <__bss_end__+0x8b6204>
    14f8:	01000004 	tsteq	r0, r4
    14fc:	00251ceb 	eoreq	r1, r5, fp, ror #25
    1500:	06a40000 	strteq	r0, [r4], r0
    1504:	06a00000 	strteq	r0, [r0], r0
    1508:	10200000 	eorne	r0, r0, r0
    150c:	1700008e 	strne	r0, [r0, -lr, lsl #1]
    1510:	17000006 	strne	r0, [r0, -r6]
    1514:	f3035001 	vhadd.u8	d5, d3, d1
    1518:	00005001 	andeq	r5, r0, r1
    151c:	0004c624 	andeq	ip, r4, r4, lsr #12
    1520:	11c20100 	bicne	r0, r2, r0, lsl #2
    1524:	0000002c 	andeq	r0, r0, ip, lsr #32
    1528:	00008a0c 	andeq	r8, r0, ip, lsl #20
    152c:	000000fc 	strdeq	r0, [r0], -ip
    1530:	079e9c01 	ldreq	r9, [lr, r1, lsl #24]
    1534:	eb230000 	bl	8c153c <__bss_end__+0x8b6244>
    1538:	01000004 	tsteq	r0, r4
    153c:	002520c2 	eoreq	r2, r5, r2, asr #1
    1540:	06c90000 	strbeq	r0, [r9], r0
    1544:	06c50000 	strbeq	r0, [r5], r0
    1548:	c0250000 	eorgt	r0, r5, r0
    154c:	01000003 	tsteq	r0, r3
    1550:	002c0ec4 	eoreq	r0, ip, r4, asr #29
    1554:	06eb0000 	strbteq	r0, [fp], r0
    1558:	06e70000 	strbteq	r0, [r7], r0
    155c:	03250000 			; <UNDEFINED> instruction: 0x03250000
    1560:	01000004 	tsteq	r0, r4
    1564:	002c1bc4 	eoreq	r1, ip, r4, asr #23
    1568:	07100000 	ldreq	r0, [r0, -r0]
    156c:	070a0000 	streq	r0, [sl, -r0]
    1570:	fd250000 	stc2	0, cr0, [r5, #-0]
    1574:	01000003 	tsteq	r0, r3
    1578:	002c27c4 	eoreq	r2, ip, r4, asr #15
    157c:	073e0000 	ldreq	r0, [lr, -r0]!
    1580:	073a0000 	ldreq	r0, [sl, -r0]!
    1584:	481c0000 	ldmdami	ip, {}	; <UNPREDICTABLE>
    1588:	fc000000 	stc2	0, cr0, [r0], {-0}
    158c:	26000006 	strcs	r0, [r0], -r6
    1590:	c9010068 	stmdbgt	r1, {r3, r5, r6}
    1594:	00047611 	andeq	r7, r4, r1, lsl r6
    1598:	00076b00 	andeq	r6, r7, r0, lsl #22
    159c:	00075d00 	andeq	r5, r7, r0, lsl #26
    15a0:	8a341800 	bhi	d075a8 <__bss_end__+0xcfc2b0>
    15a4:	0e740000 	cdpeq	0, 7, cr0, cr4, cr0, {0}
    15a8:	5c160000 	ldcpl	0, cr0, [r6], {-0}
    15ac:	4d00008a 	stcmi	0, cr0, [r0, #-552]	; 0xfffffdd8
    15b0:	c800000e 	stmdagt	r0, {r1, r2, r3}
    15b4:	17000006 	strne	r0, [r0, -r6]
    15b8:	03055001 	movweq	r5, #20481	; 0x5001
    15bc:	0000a874 	andeq	sl, r0, r4, ror r8
    15c0:	02510117 	subseq	r0, r1, #-1073741819	; 0xc0000005
    15c4:	01170075 	tsteq	r7, r5, ror r0
    15c8:	00740252 	rsbseq	r0, r4, r2, asr r2
    15cc:	8a641600 	bhi	1906dd4 <__bss_end__+0x18fbadc>
    15d0:	0e8c0000 	cdpeq	0, 8, cr0, cr12, cr0, {0}
    15d4:	06dc0000 	ldrbeq	r0, [ip], r0
    15d8:	01170000 	tsteq	r7, r0
    15dc:	00740250 	rsbseq	r0, r4, r0, asr r2
    15e0:	8a9c2000 	bhi	fe7095e8 <__bss_end__+0xfe6fe2f0>
    15e4:	0e4d0000 	cdpeq	0, 4, cr0, cr13, cr0, {0}
    15e8:	01170000 	tsteq	r7, r0
    15ec:	88030550 	stmdahi	r3, {r4, r6, r8, sl}
    15f0:	170000a8 	strne	r0, [r0, -r8, lsr #1]
    15f4:	75025101 	strvc	r5, [r2, #-257]	; 0xfffffeff
    15f8:	52011700 	andpl	r1, r1, #0, 14
    15fc:	00007402 	andeq	r7, r0, r2, lsl #8
    1600:	8a241600 	bhi	906e08 <__bss_end__+0x8fbb10>
    1604:	0e4d0000 	cdpeq	0, 4, cr0, cr13, cr0, {0}
    1608:	07130000 	ldreq	r0, [r3, -r0]
    160c:	01170000 	tsteq	r7, r0
    1610:	20030550 	andcs	r0, r3, r0, asr r5
    1614:	000000a8 	andeq	r0, r0, r8, lsr #1
    1618:	008a2c16 	addeq	r2, sl, r6, lsl ip
    161c:	000e4d00 	andeq	r4, lr, r0, lsl #26
    1620:	00072a00 	andeq	r2, r7, r0, lsl #20
    1624:	50011700 	andpl	r1, r1, r0, lsl #14
    1628:	a85c0305 	ldmdage	ip, {r0, r2, r8, r9}^
    162c:	18000000 	stmdane	r0, {}	; <UNPREDICTABLE>
    1630:	00008a30 	andeq	r8, r0, r0, lsr sl
    1634:	0000093d 	andeq	r0, r0, sp, lsr r9
    1638:	008aac16 	addeq	sl, sl, r6, lsl ip
    163c:	000e4d00 	andeq	r4, lr, r0, lsl #26
    1640:	00075000 	andeq	r5, r7, r0
    1644:	50011700 	andpl	r1, r1, r0, lsl #14
    1648:	a8a00305 	stmiage	r0!, {r0, r2, r8, r9}
    164c:	01170000 	tsteq	r7, r0
    1650:	00750251 	rsbseq	r0, r5, r1, asr r2
    1654:	8abc1600 	bhi	fef06e5c <__bss_end__+0xfeefbb64>
    1658:	0e4d0000 	cdpeq	0, 4, cr0, cr13, cr0, {0}
    165c:	07670000 	strbeq	r0, [r7, -r0]!
    1660:	01170000 	tsteq	r7, r0
    1664:	c0030550 	andgt	r0, r3, r0, asr r5
    1668:	000000a8 	andeq	r0, r0, r8, lsr #1
    166c:	008ac416 	addeq	ip, sl, r6, lsl r4
    1670:	000e4d00 	andeq	r4, lr, r0, lsl #26
    1674:	00077e00 	andeq	r7, r7, r0, lsl #28
    1678:	50011700 	andpl	r1, r1, r0, lsl #14
    167c:	a9180305 	ldmdbge	r8, {r0, r2, r8, r9}
    1680:	20000000 	andcs	r0, r0, r0
    1684:	00008ae4 	andeq	r8, r0, r4, ror #21
    1688:	00000e4d 	andeq	r0, r0, sp, asr #28
    168c:	05500117 	ldrbeq	r0, [r0, #-279]	; 0xfffffee9
    1690:	00a8e803 	adceq	lr, r8, r3, lsl #16
    1694:	51011700 	tstpl	r1, r0, lsl #14
    1698:	17007602 	strne	r7, [r0, -r2, lsl #12]
    169c:	78025201 	stmdavc	r2, {r0, r9, ip, lr}
    16a0:	22000000 	andcs	r0, r0, #0, 0
    16a4:	00000042 	andeq	r0, r0, r2, asr #32
    16a8:	2505ac01 	strcs	sl, [r5, #-3073]	; 0xfffff3ff
    16ac:	18000000 	stmdane	r0, {}	; <UNPREDICTABLE>
    16b0:	d400008d 	strle	r0, [r0], #-141	; 0xffffff73
    16b4:	01000000 	mrseq	r0, (UNDEF: 0)
    16b8:	0008ce9c 	muleq	r8, ip, lr
    16bc:	04032500 	streq	r2, [r3], #-1280	; 0xfffffb00
    16c0:	ad010000 	stcge	0, cr0, [r1, #-0]
    16c4:	00002509 	andeq	r2, r0, r9, lsl #10
    16c8:	0007c400 	andeq	ip, r7, r0, lsl #8
    16cc:	0007c000 	andeq	ip, r7, r0
    16d0:	00902700 	addseq	r2, r0, r0, lsl #14
    16d4:	68260000 	stmdavs	r6!, {}	; <UNPREDICTABLE>
    16d8:	11ae0100 			; <UNDEFINED> instruction: 0x11ae0100
    16dc:	00000476 	andeq	r0, r0, r6, ror r4
    16e0:	000007ef 	andeq	r0, r0, pc, ror #15
    16e4:	000007e3 	andeq	r0, r0, r3, ror #15
    16e8:	0000a81c 	andeq	sl, r0, ip, lsl r8
    16ec:	0008b300 	andeq	fp, r8, r0, lsl #6
    16f0:	042e2500 	strteq	r2, [lr], #-1280	; 0xfffffb00
    16f4:	af010000 	svcge	0x00010000
    16f8:	0000250d 	andeq	r2, r0, sp, lsl #10
    16fc:	00084100 	andeq	r4, r8, r0, lsl #2
    1700:	00083900 	andeq	r3, r8, r0, lsl #18
    1704:	00c01c00 	sbceq	r1, r0, r0, lsl #24
    1708:	085a0000 	ldmdaeq	sl, {}^	; <UNPREDICTABLE>
    170c:	65260000 	strvs	r0, [r6, #-0]!
    1710:	11b40100 			; <UNDEFINED> instruction: 0x11b40100
    1714:	00000025 	andeq	r0, r0, r5, lsr #32
    1718:	0000087a 	andeq	r0, r0, sl, ror r8
    171c:	00000876 	andeq	r0, r0, r6, ror r8
    1720:	008d4816 	addeq	r4, sp, r6, lsl r8
    1724:	000e4d00 	andeq	r4, lr, r0, lsl #26
    1728:	00083200 	andeq	r3, r8, r0, lsl #4
    172c:	50011700 	andpl	r1, r1, r0, lsl #14
    1730:	a6740305 	ldrbtge	r0, [r4], -r5, lsl #6
    1734:	16000000 	strne	r0, [r0], -r0
    1738:	00008d50 	andeq	r8, r0, r0, asr sp
    173c:	00000e4d 	andeq	r0, r0, sp, asr #28
    1740:	00000849 	andeq	r0, r0, r9, asr #16
    1744:	05500117 	ldrbeq	r0, [r0, #-279]	; 0xfffffee9
    1748:	00aa0803 	adceq	r0, sl, r3, lsl #16
    174c:	c8200000 	stmdagt	r0!, {}	; <UNPREDICTABLE>
    1750:	ce00008d 	cdpgt	0, 0, cr0, cr0, cr13, {4}
    1754:	17000008 	strne	r0, [r0, -r8]
    1758:	77025001 	strvc	r5, [r2, -r1]
    175c:	16000000 	strne	r0, [r0], -r0
    1760:	00008d74 	andeq	r8, r0, r4, ror sp
    1764:	000008ce 	andeq	r0, r0, lr, asr #17
    1768:	00000874 	andeq	r0, r0, r4, ror r8
    176c:	02500117 	subseq	r0, r0, #-1073741819	; 0xc0000005
    1770:	01173274 	tsteq	r7, r4, ror r2
    1774:	80080251 	andhi	r0, r8, r1, asr r2
    1778:	8d901600 	ldchi	6, cr1, [r0]
    177c:	08ce0000 	stmiaeq	lr, {}^	; <UNPREDICTABLE>
    1780:	08880000 	stmeq	r8, {}	; <UNPREDICTABLE>
    1784:	01170000 	tsteq	r7, r0
    1788:	80080251 	andhi	r0, r8, r1, asr r2
    178c:	8da81600 	stchi	6, cr1, [r8]
    1790:	0e4d0000 	cdpeq	0, 4, cr0, cr13, cr0, {0}
    1794:	089f0000 	ldmeq	pc, {}	; <UNPREDICTABLE>
    1798:	01170000 	tsteq	r7, r0
    179c:	74030550 	strvc	r0, [r3], #-1360	; 0xfffffab0
    17a0:	000000a6 	andeq	r0, r0, r6, lsr #1
    17a4:	008db020 	addeq	fp, sp, r0, lsr #32
    17a8:	000e4d00 	andeq	r4, lr, r0, lsl #26
    17ac:	50011700 	andpl	r1, r1, r0, lsl #14
    17b0:	a9d80305 	ldmibge	r8, {r0, r2, r8, r9}^
    17b4:	00000000 	andeq	r0, r0, r0
    17b8:	008d2818 	addeq	r2, sp, r8, lsl r8
    17bc:	000e7400 	andeq	r7, lr, r0, lsl #8
    17c0:	8d5c2000 	ldclhi	0, cr2, [ip, #-0]
    17c4:	0e8c0000 	cdpeq	0, 8, cr0, cr12, cr0, {0}
    17c8:	01170000 	tsteq	r7, r0
    17cc:	00740250 	rsbseq	r0, r4, r0, asr r2
    17d0:	22000000 	andcs	r0, r0, #0, 0
    17d4:	00000490 	muleq	r0, r0, r4
    17d8:	2c0ea201 	sfmcs	f2, 1, [lr], {1}
    17dc:	c8000000 	stmdagt	r0, {}	; <UNPREDICTABLE>
    17e0:	3c00008c 	stccc	0, cr0, [r0], {140}	; 0x8c
    17e4:	01000000 	mrseq	r0, (UNDEF: 0)
    17e8:	0009379c 	muleq	r9, ip, r7
    17ec:	049f2300 	ldreq	r2, [pc], #768	; 17f4 <__code_start__-0x680c>
    17f0:	a2010000 	andge	r0, r1, #0, 0
    17f4:	00093723 	andeq	r3, r9, r3, lsr #14
    17f8:	00089c00 	andeq	r9, r8, r0, lsl #24
    17fc:	00089800 	andeq	r9, r8, r0, lsl #16
    1800:	03252800 			; <UNDEFINED> instruction: 0x03252800
    1804:	a2010000 	andge	r0, r1, #0, 0
    1808:	00002530 	andeq	r2, r0, r0, lsr r5
    180c:	25510100 	ldrbcs	r0, [r1, #-256]	; 0xffffff00
    1810:	000004ff 	strdeq	r0, [r0], -pc	; <UNPREDICTABLE>
    1814:	2509a301 	strcs	sl, [r9, #-769]	; 0xfffffcff
    1818:	be000000 	cdplt	0, 0, cr0, cr0, cr0, {0}
    181c:	ba000008 	blt	1844 <__code_start__-0x67bc>
    1820:	27000008 	strcs	r0, [r0, -r8]
    1824:	00000078 	andeq	r0, r0, r8, ror r0
    1828:	01006926 	tsteq	r0, r6, lsr #18
    182c:	00250ea4 	eoreq	r0, r5, r4, lsr #29
    1830:	08e10000 	stmiaeq	r1!, {}^	; <UNPREDICTABLE>
    1834:	08dd0000 	ldmeq	sp, {}^	; <UNPREDICTABLE>
    1838:	00000000 	andeq	r0, r0, r0
    183c:	00c50408 	sbceq	r0, r5, r8, lsl #8
    1840:	9a290000 	bls	a41848 <__bss_end__+0xa36550>
    1844:	01000003 	tsteq	r0, r3
    1848:	89500d79 	ldmdbhi	r0, {r0, r3, r4, r5, r6, r8, sl, fp}^
    184c:	00ac0000 	adceq	r0, ip, r0
    1850:	9c010000 	stcls	0, cr0, [r1], {-0}
    1854:	00000a4b 	andeq	r0, r0, fp, asr #20
    1858:	00042213 	andeq	r2, r4, r3, lsl r2
    185c:	0e850100 	rmfeqs	f0, f5, f0
    1860:	00000a4b 	andeq	r0, r0, fp, asr #20
    1864:	7fb09103 	svcvc	0x00b09103
    1868:	0003902a 	andeq	r9, r3, sl, lsr #32
    186c:	0f960100 	svceq	0x00960100
    1870:	00000a5b 	andeq	r0, r0, fp, asr sl
    1874:	08000000 	stmdaeq	r0, {}	; <UNPREDICTABLE>
    1878:	0003b207 	andeq	fp, r3, r7, lsl #4
    187c:	159b0100 	ldrne	r0, [fp, #256]	; 0x100
    1880:	00000075 	andeq	r0, r0, r5, ror r0
    1884:	00048407 	andeq	r8, r4, r7, lsl #8
    1888:	249b0100 	ldrcs	r0, [fp], #256	; 0x100
    188c:	00000075 	andeq	r0, r0, r5, ror r0
    1890:	0004d107 	andeq	sp, r4, r7, lsl #2
    1894:	159e0100 	ldrne	r0, [lr, #256]	; 0x100
    1898:	00000075 	andeq	r0, r0, r5, ror r0
    189c:	00041007 	andeq	r1, r4, r7
    18a0:	259e0100 	ldrcs	r0, [lr, #256]	; 0x100
    18a4:	00000075 	andeq	r0, r0, r5, ror r0
    18a8:	0089602b 	addeq	r6, r9, fp, lsr #32
    18ac:	00002400 	andeq	r2, r0, r0, lsl #8
    18b0:	0009d500 	andeq	sp, r9, r0, lsl #10
    18b4:	00682600 	rsbeq	r2, r8, r0, lsl #12
    18b8:	76117e01 	ldrvc	r7, [r1], -r1, lsl #28
    18bc:	04000004 	streq	r0, [r0], #-4
    18c0:	00000009 	andeq	r0, r0, r9
    18c4:	18000009 	stmdane	r0, {r0, r3}
    18c8:	00008964 	andeq	r8, r0, r4, ror #18
    18cc:	00000e74 	andeq	r0, r0, r4, ror lr
    18d0:	00898018 	addeq	r8, r9, r8, lsl r0
    18d4:	000e8c00 	andeq	r8, lr, r0, lsl #24
    18d8:	8c160000 	ldchi	0, cr0, [r6], {-0}
    18dc:	98000089 	stmdals	r0, {r0, r3, r7}
    18e0:	ea00000e 	b	1920 <__code_start__-0x66e0>
    18e4:	17000009 	strne	r0, [r0, -r9]
    18e8:	7b035001 	blvc	d58f4 <__bss_end__+0xca5fc>
    18ec:	16007fb4 			; <UNDEFINED> instruction: 0x16007fb4
    18f0:	000089ac 	andeq	r8, r0, ip, lsr #19
    18f4:	00000a61 	andeq	r0, r0, r1, ror #20
    18f8:	00000a05 	andeq	r0, r0, r5, lsl #20
    18fc:	03500117 	cmpeq	r0, #-1073741819	; 0xc0000005
    1900:	177fb47b 			; <UNDEFINED> instruction: 0x177fb47b
    1904:	7b025101 	blvc	95d10 <__bss_end__+0x8aa18>
    1908:	bc16006c 	ldclt	0, cr0, [r6], {108}	; 0x6c
    190c:	4d000089 	stcmi	0, cr0, [r0, #-548]	; 0xfffffddc
    1910:	2300000e 	movwcs	r0, #14
    1914:	1700000a 	strne	r0, [r0, -sl]
    1918:	03055001 	movweq	r5, #20481	; 0x5001
    191c:	0000a804 	andeq	sl, r0, r4, lsl #16
    1920:	03520117 	cmpeq	r2, #-1073741819	; 0xc0000005
    1924:	00244740 	eoreq	r4, r4, r0, asr #14
    1928:	0089c816 	addeq	ip, r9, r6, lsl r8
    192c:	000a6100 	andeq	r6, sl, r0, lsl #2
    1930:	000a3800 	andeq	r3, sl, r0, lsl #16
    1934:	51011700 	tstpl	r1, r0, lsl #14
    1938:	24474003 	strbcs	r4, [r7], #-3
    193c:	89d41800 	ldmibhi	r4, {fp, ip}^
    1940:	0a610000 	beq	1841948 <__bss_end__+0x1836650>
    1944:	e0180000 	ands	r0, r8, r0
    1948:	61000089 	smlabbvs	r0, r9, r0, r0
    194c:	0000000a 	andeq	r0, r0, sl
    1950:	00007510 	andeq	r7, r0, r0, lsl r5
    1954:	000a5b00 	andeq	r5, sl, r0, lsl #22
    1958:	002c1100 	eoreq	r1, ip, r0, lsl #2
    195c:	000f0000 	andeq	r0, pc, r0
    1960:	00750408 	rsbseq	r0, r5, r8, lsl #8
    1964:	e0290000 	eor	r0, r9, r0
    1968:	01000003 	tsteq	r0, r3
    196c:	87d00d50 			; <UNDEFINED> instruction: 0x87d00d50
    1970:	01700000 	cmneq	r0, r0
    1974:	9c010000 	stcls	0, cr0, [r1], {-0}
    1978:	00000c5a 	andeq	r0, r0, sl, asr ip
    197c:	0100702c 	tsteq	r0, ip, lsr #32
    1980:	0a5b1c50 	beq	16c8ac8 <__bss_end__+0x16bd7d0>
    1984:	09300000 	ldmdbeq	r0!, {}	; <UNPREDICTABLE>
    1988:	09220000 	stmdbeq	r2!, {}	; <UNPREDICTABLE>
    198c:	652c0000 	strvs	r0, [ip, #-0]!
    1990:	29500100 	ldmdbcs	r0, {r8}^
    1994:	00000a5b 	andeq	r0, r0, fp, asr sl
    1998:	00000999 	muleq	r0, r9, r9
    199c:	0000098b 	andeq	r0, r0, fp, lsl #19
    19a0:	0001bb15 	andeq	fp, r1, r5, lsl fp
    19a4:	000c6a00 	andeq	r6, ip, r0, lsl #20
    19a8:	e8030500 	stmda	r3, {r8, sl}
    19ac:	2b0000aa 	blcs	1c5c <__code_start__-0x63a4>
    19b0:	00008860 	andeq	r8, r0, r0, ror #16
    19b4:	000000b4 	strheq	r0, [r0], -r4
    19b8:	00000b93 	muleq	r0, r3, fp
    19bc:	01006926 	tsteq	r0, r6, lsr #18
    19c0:	0a5b1458 	beq	16c6b28 <__bss_end__+0x16bb830>
    19c4:	09f60000 	ldmibeq	r6!, {}^	; <UNPREDICTABLE>
    19c8:	09f40000 	ldmibeq	r4!, {}^	; <UNPREDICTABLE>
    19cc:	18270000 	stmdane	r7!, {}	; <UNPREDICTABLE>
    19d0:	26000000 	strcs	r0, [r0], -r0
    19d4:	5a010062 	bpl	41b64 <__bss_end__+0x3686c>
    19d8:	00047610 	andeq	r7, r4, r0, lsl r6
    19dc:	000a0f00 	andeq	r0, sl, r0, lsl #30
    19e0:	000a0900 	andeq	r0, sl, r0, lsl #18
    19e4:	00301c00 	eorseq	r1, r0, r0, lsl #24
    19e8:	0b880000 	bleq	fe2019f0 <__bss_end__+0xfe1f66f8>
    19ec:	65260000 	strvs	r0, [r6, #-0]!
    19f0:	01007078 	tsteq	r0, r8, ror r0
    19f4:	0075165d 	rsbseq	r1, r5, sp, asr r6
    19f8:	0a3c0000 	beq	f01a00 <__bss_end__+0xef6708>
    19fc:	0a380000 	beq	e01a04 <__bss_end__+0xdf670c>
    1a00:	dc250000 	stcle	0, cr0, [r5], #-0
    1a04:	01000003 	tsteq	r0, r3
    1a08:	0062165e 	rsbeq	r1, r2, lr, asr r6
    1a0c:	0a5e0000 	beq	1781a14 <__bss_end__+0x177671c>
    1a10:	0a5a0000 	beq	1681a18 <__bss_end__+0x1676720>
    1a14:	74160000 	ldrvc	r0, [r6], #-0
    1a18:	4d000088 	stcmi	0, cr0, [r0, #-544]	; 0xfffffde0
    1a1c:	2800000e 	stmdacs	r0, {r1, r2, r3}
    1a20:	1700000b 	strne	r0, [r0, -fp]
    1a24:	03055001 	movweq	r5, #20481	; 0x5001
    1a28:	0000a7e4 	andeq	sl, r0, r4, ror #15
    1a2c:	88a81600 	stmiahi	r8!, {r9, sl, ip}
    1a30:	0ea40000 	cdpeq	0, 10, cr0, cr4, cr0, {0}
    1a34:	0b3c0000 	bleq	f01a3c <__bss_end__+0xef6744>
    1a38:	01170000 	tsteq	r7, r0
    1a3c:	00750250 	rsbseq	r0, r5, r0, asr r2
    1a40:	88c01600 	stmiahi	r0, {r9, sl, ip}^
    1a44:	0e4d0000 	cdpeq	0, 4, cr0, cr13, cr0, {0}
    1a48:	0b600000 	bleq	1801a50 <__bss_end__+0x17f6758>
    1a4c:	01170000 	tsteq	r7, r0
    1a50:	b8030550 	stmdalt	r3, {r4, r6, r8, sl}
    1a54:	170000a7 	strne	r0, [r0, -r7, lsr #1]
    1a58:	74025201 	strvc	r5, [r2], #-513	; 0xfffffdff
    1a5c:	7d021700 	stcvc	7, cr1, [r2, #-0]
    1a60:	00770200 	rsbseq	r0, r7, r0, lsl #4
    1a64:	89041600 	stmdbhi	r4, {r9, sl, ip}
    1a68:	0a610000 	beq	1841a70 <__bss_end__+0x1836778>
    1a6c:	0b740000 	bleq	1d01a74 <__bss_end__+0x1cf677c>
    1a70:	01170000 	tsteq	r7, r0
    1a74:	04750250 	ldrbteq	r0, [r5], #-592	; 0xfffffdb0
    1a78:	89102000 	ldmdbhi	r0, {sp}
    1a7c:	0e4d0000 	cdpeq	0, 4, cr0, cr13, cr0, {0}
    1a80:	01170000 	tsteq	r7, r0
    1a84:	f4030550 	vst3.16	{d0,d2,d4}, [r3 :64], r0
    1a88:	000000a7 	andeq	r0, r0, r7, lsr #1
    1a8c:	88901800 	ldmhi	r0, {fp, ip}
    1a90:	0c6f0000 	stcleq	0, cr0, [pc], #-0	; 1a98 <__code_start__-0x6568>
    1a94:	00000000 	andeq	r0, r0, r0
    1a98:	00881c16 	addeq	r1, r8, r6, lsl ip
    1a9c:	000e4d00 	andeq	r4, lr, r0, lsl #26
    1aa0:	000bcc00 	andeq	ip, fp, r0, lsl #24
    1aa4:	50011700 	andpl	r1, r1, r0, lsl #14
    1aa8:	a7140305 	ldrge	r0, [r4, -r5, lsl #6]
    1aac:	01170000 	tsteq	r7, r0
    1ab0:	88030551 	stmdahi	r3, {r0, r4, r6, r8, sl}
    1ab4:	170000a7 	strne	r0, [r0, -r7, lsr #1]
    1ab8:	03055201 	movweq	r5, #20993	; 0x5201
    1abc:	0000aae8 	andeq	sl, r0, r8, ror #21
    1ac0:	02530117 	subseq	r0, r3, #-1073741819	; 0xc0000005
    1ac4:	02175608 	andseq	r5, r7, #8, 12	; 0x800000
    1ac8:	0305007d 	movweq	r0, #20605	; 0x507d
    1acc:	0000a7a8 	andeq	sl, r0, r8, lsr #15
    1ad0:	88201800 	stmdahi	r0!, {fp, ip}
    1ad4:	0e590000 	cdpeq	0, 5, cr0, cr9, cr0, {0}
    1ad8:	3c160000 	ldccc	0, cr0, [r6], {-0}
    1adc:	4d000088 	stcmi	0, cr0, [r0, #-544]	; 0xfffffde0
    1ae0:	0e00000e 	cdpeq	0, 0, cr0, cr0, cr14, {0}
    1ae4:	1700000c 	strne	r0, [r0, -ip]
    1ae8:	03055001 	movweq	r5, #20481	; 0x5001
    1aec:	0000a714 	andeq	sl, r0, r4, lsl r7
    1af0:	05510117 	ldrbeq	r0, [r1, #-279]	; 0xfffffee9
    1af4:	00a78803 	adceq	r8, r7, r3, lsl #16
    1af8:	52011700 	andpl	r1, r1, #0, 14
    1afc:	aae80305 	bge	ffa02718 <__bss_end__+0xff9f7420>
    1b00:	01170000 	tsteq	r7, r0
    1b04:	52080253 	andpl	r0, r8, #805306373	; 0x30000005
    1b08:	007d0217 	rsbseq	r0, sp, r7, lsl r2
    1b0c:	a7900305 	ldrge	r0, [r0, r5, lsl #6]
    1b10:	18000000 	stmdane	r0, {}	; <UNPREDICTABLE>
    1b14:	00008840 	andeq	r8, r0, r0, asr #16
    1b18:	00000e59 	andeq	r0, r0, r9, asr lr
    1b1c:	00885c16 	addeq	r5, r8, r6, lsl ip
    1b20:	000e4d00 	andeq	r4, lr, r0, lsl #26
    1b24:	000c5000 	andeq	r5, ip, r0
    1b28:	50011700 	andpl	r1, r1, r0, lsl #14
    1b2c:	a7140305 	ldrge	r0, [r4, -r5, lsl #6]
    1b30:	01170000 	tsteq	r7, r0
    1b34:	88030551 	stmdahi	r3, {r0, r4, r6, r8, sl}
    1b38:	170000a7 	strne	r0, [r0, -r7, lsr #1]
    1b3c:	03055201 	movweq	r5, #20993	; 0x5201
    1b40:	0000aae8 	andeq	sl, r0, r8, ror #21
    1b44:	02530117 	subseq	r0, r3, #-1073741819	; 0xc0000005
    1b48:	02175508 	andseq	r5, r7, #8, 10	; 0x2000000
    1b4c:	0305007d 	movweq	r0, #20605	; 0x507d
    1b50:	0000a798 	muleq	r0, r8, r7
    1b54:	88601800 	stmdahi	r0!, {fp, ip}^
    1b58:	0e590000 	cdpeq	0, 5, cr0, cr9, cr0, {0}
    1b5c:	10000000 	andne	r0, r0, r0
    1b60:	000000cc 	andeq	r0, r0, ip, asr #1
    1b64:	00000c6a 	andeq	r0, r0, sl, ror #24
    1b68:	00002c11 	andeq	r2, r0, r1, lsl ip
    1b6c:	09000400 	stmdbeq	r0, {sl}
    1b70:	00000c5a 	andeq	r0, r0, sl, asr ip
    1b74:	00044024 	andeq	r4, r4, r4, lsr #32
    1b78:	0f3c0100 	svceq	0x003c0100
    1b7c:	00000476 	andeq	r0, r0, r6, ror r4
    1b80:	00008794 	muleq	r0, r4, r7
    1b84:	00000030 	andeq	r0, r0, r0, lsr r0
    1b88:	0cd49c01 	ldcleq	12, cr9, [r4], {1}
    1b8c:	d4230000 	strtle	r0, [r3], #-0
    1b90:	01000005 	tsteq	r0, r5
    1b94:	00751f3c 	rsbseq	r1, r5, ip, lsr pc
    1b98:	0a800000 	beq	fe001ba0 <__bss_end__+0xfdff68a8>
    1b9c:	0a7c0000 	beq	1f01ba4 <__bss_end__+0x1ef68ac>
    1ba0:	70260000 	eorvc	r0, r6, r0
    1ba4:	0b3e0100 	bleq	f81fac <__bss_end__+0xf76cb4>
    1ba8:	00000208 	andeq	r0, r0, r8, lsl #4
    1bac:	00000aa2 	andeq	r0, r0, r2, lsr #21
    1bb0:	00000a9e 	muleq	r0, lr, sl
    1bb4:	0087a816 	addeq	sl, r7, r6, lsl r8
    1bb8:	000cd400 	andeq	sp, ip, r0, lsl #8
    1bbc:	000cc300 	andeq	ip, ip, r0, lsl #6
    1bc0:	50011700 	andpl	r1, r1, r0, lsl #14
    1bc4:	00007402 	andeq	r7, r0, r2, lsl #8
    1bc8:	0087b820 	addeq	fp, r7, r0, lsr #16
    1bcc:	000eb000 	andeq	fp, lr, r0
    1bd0:	50011700 	andpl	r1, r1, r0, lsl #14
    1bd4:	00007402 	andeq	r7, r0, r2, lsl #8
    1bd8:	045c2400 	ldrbeq	r2, [ip], #-1024	; 0xfffffc00
    1bdc:	2b010000 	blcs	41be4 <__bss_end__+0x368ec>
    1be0:	0000250c 	andeq	r2, r0, ip, lsl #10
    1be4:	00874000 	addeq	r4, r7, r0
    1be8:	00004800 	andeq	r4, r0, r0, lsl #16
    1bec:	019c0100 	orrseq	r0, ip, r0, lsl #2
    1bf0:	2c00000d 	stccs	0, cr0, [r0], {13}
    1bf4:	2b010070 	blcs	41dbc <__bss_end__+0x36ac4>
    1bf8:	0002081a 	andeq	r0, r2, sl, lsl r8
    1bfc:	000acc00 	andeq	ip, sl, r0, lsl #24
    1c00:	000ac000 	andeq	ip, sl, r0
    1c04:	76220000 	strtvc	r0, [r2], -r0
    1c08:	01000003 	tsteq	r0, r3
    1c0c:	02080713 	andeq	r0, r8, #4980736	; 0x4c0000
    1c10:	8c080000 	stchi	0, cr0, [r8], {-0}
    1c14:	00ac0000 	adceq	r0, ip, r0
    1c18:	9c010000 	stcls	0, cr0, [r1], {-0}
    1c1c:	00000e17 	andeq	r0, r0, r7, lsl lr
    1c20:	0003e523 	andeq	lr, r3, r3, lsr #10
    1c24:	11130100 	tstne	r3, r0, lsl #2
    1c28:	00000041 	andeq	r0, r0, r1, asr #32
    1c2c:	00000b2b 	andeq	r0, r0, fp, lsr #22
    1c30:	00000b1f 	andeq	r0, r0, pc, lsl fp
    1c34:	0003c813 	andeq	ip, r3, r3, lsl r8
    1c38:	10150100 	andsne	r0, r5, r0, lsl #2
    1c3c:	00000025 	andeq	r0, r0, r5, lsr #32
    1c40:	aef00305 	cdpge	3, 15, cr0, cr0, cr5, {0}
    1c44:	bb150000 	bllt	541c4c <__bss_end__+0x536954>
    1c48:	6a000001 	bvs	1c54 <__code_start__-0x63ac>
    1c4c:	0500000c 	streq	r0, [r0, #-12]
    1c50:	00aafc03 	adceq	pc, sl, r3, lsl #24
    1c54:	8c302b00 			; <UNDEFINED> instruction: 0x8c302b00
    1c58:	00240000 	eoreq	r0, r4, r0
    1c5c:	0d8a0000 	stceq	0, cr0, [sl]
    1c60:	64250000 	strtvs	r0, [r5], #-0
    1c64:	01000004 	tsteq	r0, r4
    1c68:	002c121c 	eoreq	r1, ip, ip, lsl r2
    1c6c:	0b770000 	bleq	1dc1c74 <__bss_end__+0x1db697c>
    1c70:	0b750000 	bleq	1d41c78 <__bss_end__+0x1d36980>
    1c74:	4c200000 	stcmi	0, cr0, [r0], #-0
    1c78:	bc00008c 	stclt	0, cr0, [r0], {140}	; 0x8c
    1c7c:	1700000e 	strne	r0, [r0, -lr]
    1c80:	40035001 	andmi	r5, r3, r1
    1c84:	01172440 	tsteq	r7, r0, asr #8
    1c88:	40400351 	submi	r0, r0, r1, asr r3
    1c8c:	16000024 	strne	r0, [r0], -r4, lsr #32
    1c90:	00008c5c 	andeq	r8, r0, ip, asr ip
    1c94:	00000ec8 	andeq	r0, r0, r8, asr #29
    1c98:	00000d9e 	muleq	r0, lr, sp
    1c9c:	02500117 	subseq	r0, r0, #-1073741819	; 0xc0000005
    1ca0:	16000074 			; <UNDEFINED> instruction: 0x16000074
    1ca4:	00008c80 	andeq	r8, r0, r0, lsl #25
    1ca8:	00000e4d 	andeq	r0, r0, sp, asr #28
    1cac:	00000dd6 	ldrdeq	r0, [r0], -r6
    1cb0:	05500117 	ldrbeq	r0, [r0, #-279]	; 0xfffffee9
    1cb4:	00a71403 	adceq	r1, r7, r3, lsl #8
    1cb8:	51011700 	tstpl	r1, r0, lsl #14
    1cbc:	a7880305 	strge	r0, [r8, r5, lsl #6]
    1cc0:	01170000 	tsteq	r7, r0
    1cc4:	fc030552 	stc2	5, cr0, [r3], {82}	; 0x52
    1cc8:	170000aa 	strne	r0, [r0, -sl, lsr #1]
    1ccc:	47015301 	strmi	r5, [r1, -r1, lsl #6]
    1cd0:	007d0217 	rsbseq	r0, sp, r7, lsl r2
    1cd4:	a9a80305 	stmibge	r8!, {r0, r2, r8, r9}
    1cd8:	18000000 	stmdane	r0, {}	; <UNPREDICTABLE>
    1cdc:	00008c84 	andeq	r8, r0, r4, lsl #25
    1ce0:	00000e59 	andeq	r0, r0, r9, asr lr
    1ce4:	008c9816 	addeq	r9, ip, r6, lsl r8
    1ce8:	000e4d00 	andeq	r4, lr, r0, lsl #26
    1cec:	000e0d00 	andeq	r0, lr, r0, lsl #26
    1cf0:	50011700 	andpl	r1, r1, r0, lsl #14
    1cf4:	a9b80305 	ldmibge	r8!, {r0, r2, r8, r9}
    1cf8:	01170000 	tsteq	r7, r0
    1cfc:	88030551 	stmdahi	r3, {r0, r4, r6, r8, sl}
    1d00:	170000a7 	strne	r0, [r0, -r7, lsr #1]
    1d04:	03055201 	movweq	r5, #20993	; 0x5201
    1d08:	0000aafc 	strdeq	sl, [r0], -ip
    1d0c:	01530117 	cmpeq	r3, r7, lsl r1
    1d10:	9c180049 	ldcls	0, cr0, [r8], {73}	; 0x49
    1d14:	5900008c 	stmdbpl	r0, {r2, r3, r7}
    1d18:	0000000e 	andeq	r0, r0, lr
    1d1c:	00016d2d 	andeq	r6, r1, sp, lsr #26
    1d20:	0b0d0200 	bleq	342528 <__bss_end__+0x337230>
    1d24:	00000114 	andeq	r0, r0, r4, lsl r1
    1d28:	000e4d03 	andeq	r4, lr, r3, lsl #26
    1d2c:	00512e00 	subseq	r2, r1, r0, lsl #28
    1d30:	0d020000 	stceq	0, cr0, [r2, #-0]
    1d34:	0000bf22 	andeq	fp, r0, r2, lsr #30
    1d38:	01b62e00 			; <UNDEFINED> instruction: 0x01b62e00
    1d3c:	0d020000 	stceq	0, cr0, [r2, #-0]
    1d40:	0000bf34 	andeq	fp, r0, r4, lsr pc
    1d44:	00262e00 	eoreq	r2, r6, r0, lsl #28
    1d48:	0d020000 	stceq	0, cr0, [r2, #-0]
    1d4c:	00002c43 	andeq	r2, r0, r3, asr #24
    1d50:	3b2f0000 	blcc	bc1d58 <__bss_end__+0xbb6a60>
    1d54:	3b000006 	blcc	1d74 <__code_start__-0x628c>
    1d58:	04000006 	streq	r0, [r0], #-6
    1d5c:	642f0628 	strtvs	r0, [pc], #-1576	; 1d64 <__code_start__-0x629c>
    1d60:	64000000 	strvs	r0, [r0], #-0
    1d64:	04000000 	streq	r0, [r0], #-0
    1d68:	0d30066e 	ldceq	6, cr0, [r0, #-440]!	; 0xfffffe48
    1d6c:	77730b9e 			; <UNDEFINED> instruction: 0x77730b9e
    1d70:	5f706565 	svcpl	0x00706565
    1d74:	65657266 	strbvs	r7, [r5, #-614]!	; 0xfffffd9a
    1d78:	02b82f00 	adcseq	r2, r8, #0, 30
    1d7c:	02b80000 	adcseq	r0, r8, #0, 0
    1d80:	29050000 	stmdbcs	r5, {}	; <UNPREDICTABLE>
    1d84:	021b2f08 	andseq	r2, fp, #8, 30
    1d88:	021b0000 	andseq	r0, fp, #0, 0
    1d8c:	4b050000 	blmi	141d94 <__bss_end__+0x136a9c>
    1d90:	02ec2f07 	rsceq	r2, ip, #7, 30
    1d94:	02ec0000 	rsceq	r0, ip, #0, 0
    1d98:	2c050000 	stccs	0, cr0, [r5], {-0}
    1d9c:	041d2f08 	ldreq	r2, [sp], #-3848	; 0xfffff0f8
    1da0:	041d0000 	ldreq	r0, [sp], #-0
    1da4:	76010000 	strvc	r0, [r1], -r0
    1da8:	030a2f06 	movweq	r2, #44806	; 0xaf06
    1dac:	030a0000 	movweq	r0, #40960	; 0xa000
    1db0:	33050000 	movwcc	r0, #20480	; 0x5000
    1db4:	02da2f07 	sbcseq	r2, sl, #7, 30
    1db8:	02da0000 	sbcseq	r0, sl, #0, 0
    1dbc:	46050000 	strmi	r0, [r5], -r0
    1dc0:	04af2f08 	strteq	r2, [pc], #3848	; 1dc8 <__code_start__-0x6238>
    1dc4:	04af0000 	strteq	r0, [pc], #0	; 1dcc <__code_start__-0x6234>
    1dc8:	82040000 	andhi	r0, r4, #0, 0
    1dcc:	04a72f06 	strteq	r2, [r7], #3846	; 0xf06
    1dd0:	04a70000 	strteq	r0, [r7], #0
    1dd4:	7b040000 	blvc	101ddc <__bss_end__+0xf6ae4>
    1dd8:	02160007 	andseq	r0, r6, #7, 0
    1ddc:	00040000 	andeq	r0, r4, r0
    1de0:	000008ef 	andeq	r0, r0, pc, ror #17
    1de4:	05130104 	ldreq	r0, [r3, #-260]	; 0xfffffefc
    1de8:	fb0c0000 	blx	301df2 <__bss_end__+0x2f6afa>
    1dec:	d9000005 	stmdble	r0, {r0, r2}
    1df0:	58000005 	stmdapl	r0, {r0, r2}
    1df4:	a000008f 	andge	r0, r0, pc, lsl #1
    1df8:	2b000000 	blcs	1e00 <__code_start__-0x6200>
    1dfc:	0200000d 	andeq	r0, r0, #13, 0
    1e00:	6e690504 	cdpvs	5, 6, cr0, cr9, cr4, {0}
    1e04:	04030074 	streq	r0, [r3], #-116	; 0xffffff8c
    1e08:	0001e207 	andeq	lr, r1, r7, lsl #4
    1e0c:	06010300 	streq	r0, [r1], -r0, lsl #6
    1e10:	00000058 	andeq	r0, r0, r8, asr r0
    1e14:	22050203 	andcs	r0, r5, #805306368	; 0x30000000
    1e18:	03000002 	movweq	r0, #2
    1e1c:	02060504 	andeq	r0, r6, #4, 10	; 0x1000000
    1e20:	08030000 	stmdaeq	r3, {}	; <UNPREDICTABLE>
    1e24:	00020105 	andeq	r0, r2, r5, lsl #2
    1e28:	08010300 	stmdaeq	r1, {r8, r9}
    1e2c:	00000056 	andeq	r0, r0, r6, asr r0
    1e30:	71070203 	tstvc	r7, r3, lsl #4
    1e34:	03000000 	movweq	r0, #0
    1e38:	01dd0704 	bicseq	r0, sp, r4, lsl #14
    1e3c:	08030000 	stmdaeq	r3, {}	; <UNPREDICTABLE>
    1e40:	0001d807 	andeq	sp, r1, r7, lsl #16
    1e44:	00250400 	eoreq	r0, r5, r0, lsl #8
    1e48:	007a0000 	rsbseq	r0, sl, r0
    1e4c:	25050000 	strcs	r0, [r5, #-0]
    1e50:	00000000 	andeq	r0, r0, r0
    1e54:	00020f06 	andeq	r0, r2, r6, lsl #30
    1e58:	0e1c0200 	cdpeq	2, 1, cr0, cr12, cr0, {0}
    1e5c:	00000086 	andeq	r0, r0, r6, lsl #1
    1e60:	006b0407 	rsbeq	r0, fp, r7, lsl #8
    1e64:	25040000 	strcs	r0, [r4, #-0]
    1e68:	9b000000 	blls	1e70 <__code_start__-0x6190>
    1e6c:	05000000 	streq	r0, [r0, #-0]
    1e70:	0000009b 	muleq	r0, fp, r0
    1e74:	a8040700 	stmdage	r4, {r8, r9, sl}
    1e78:	03000000 	movweq	r0, #0
    1e7c:	005f0801 	subseq	r0, pc, r1, lsl #16
    1e80:	a1080000 	mrsge	r0, (UNDEF: 8)
    1e84:	06000000 	streq	r0, [r0], -r0
    1e88:	00000679 	andeq	r0, r0, r9, ror r6
    1e8c:	b90e2102 	stmdblt	lr, {r1, r8, sp}
    1e90:	07000000 	streq	r0, [r0, -r0]
    1e94:	00008c04 	andeq	r8, r0, r4, lsl #24
    1e98:	06140900 	ldreq	r0, [r4], -r0, lsl #18
    1e9c:	42010000 	andmi	r0, r1, #0, 0
    1ea0:	00009b0d 	andeq	r9, r0, sp, lsl #22
    1ea4:	00f70100 	rscseq	r0, r7, r0, lsl #2
    1ea8:	cb0a0000 	blgt	281eb0 <__bss_end__+0x276bb8>
    1eac:	01000005 	tsteq	r0, r5
    1eb0:	002c1e42 	eoreq	r1, ip, r2, asr #28
    1eb4:	050b0000 	streq	r0, [fp, #-0]
    1eb8:	01000005 	tsteq	r0, r5
    1ebc:	002c0e43 	eoreq	r0, ip, r3, asr #28
    1ec0:	0b0c0000 	bleq	301ec8 <__bss_end__+0x2f6bd0>
    1ec4:	0000050a 	andeq	r0, r0, sl, lsl #10
    1ec8:	2c124501 	cfldr32cs	mvfx4, [r2], {1}
    1ecc:	00000000 	andeq	r0, r0, r0
    1ed0:	02c50d00 	sbceq	r0, r5, #0, 26
    1ed4:	1d010000 	stcne	0, cr0, [r1, #-0]
    1ed8:	00002505 	andeq	r2, r0, r5, lsl #10
    1edc:	008f5800 	addeq	r5, pc, r0, lsl #16
    1ee0:	00008000 	andeq	r8, r0, r0
    1ee4:	be9c0100 	fmllte	f0, f4, f0
    1ee8:	0e000001 	cdpeq	0, 0, cr0, cr0, cr1, {0}
    1eec:	0000060d 	andeq	r0, r0, sp, lsl #12
    1ef0:	be0f1e01 	cdplt	14, 0, cr1, cr15, cr1, {0}
    1ef4:	8f000001 	svchi	0x00000001
    1ef8:	8d00000b 	stchi	0, cr0, [r0, #-44]	; 0xffffffd4
    1efc:	0f00000b 	svceq	0x0000000b
    1f00:	00008f60 	andeq	r8, r0, r0, ror #30
    1f04:	0000005c 	andeq	r0, r0, ip, asr r0
    1f08:	01006910 	tsteq	r0, r0, lsl r9
    1f0c:	00250e21 	eoreq	r0, r5, r1, lsr #28
    1f10:	0ba60000 	bleq	fe981f18 <__bss_end__+0xfe976c20>
    1f14:	0ba20000 	bleq	fe881f1c <__bss_end__+0xfe876c24>
    1f18:	d8110000 	ldmdale	r1, {}	; <UNPREDICTABLE>
    1f1c:	10000000 	andne	r0, r0, r0
    1f20:	01006370 	tsteq	r0, r0, ror r3
    1f24:	002c1222 	eoreq	r1, ip, r2, lsr #4
    1f28:	0bc70000 	bleq	ff1c1f30 <__bss_end__+0xff1b6c38>
    1f2c:	0bc50000 	bleq	ff141f34 <__bss_end__+0xff136c3c>
    1f30:	bf120000 	svclt	0x00120000
    1f34:	94000000 	strls	r0, [r0], #-0
    1f38:	0100008f 	smlabbeq	r0, pc, r0, r0	; <UNPREDICTABLE>
    1f3c:	000000f8 	strdeq	r0, [r0], -r8
    1f40:	a5092301 	strge	r2, [r9, #-769]	; 0xfffffcff
    1f44:	13000001 	movwne	r0, #1
    1f48:	000000d0 	ldrdeq	r0, [r0], -r0	; <UNPREDICTABLE>
    1f4c:	00000bdc 	ldrdeq	r0, [r0], -ip
    1f50:	00000bda 	ldrdeq	r0, [r0], -sl
    1f54:	0000f811 	andeq	pc, r0, r1, lsl r8	; <UNPREDICTABLE>
    1f58:	00dc1400 	sbcseq	r1, ip, r0, lsl #8
    1f5c:	0bf30000 	bleq	ffcc1f64 <__bss_end__+0xffcb6c6c>
    1f60:	0bef0000 	bleq	ffbc1f68 <__bss_end__+0xffbb6c70>
    1f64:	e8150000 	ldmda	r5, {}	; <UNPREDICTABLE>
    1f68:	20000000 	andcs	r0, r0, r0
    1f6c:	14000001 	strne	r0, [r0], #-1
    1f70:	000000e9 	andeq	r0, r0, r9, ror #1
    1f74:	00000c18 	andeq	r0, r0, r8, lsl ip
    1f78:	00000c12 	andeq	r0, r0, r2, lsl ip
    1f7c:	16000000 	strne	r0, [r0], -r0
    1f80:	00008fb0 			; <UNDEFINED> instruction: 0x00008fb0
    1f84:	0000020d 	andeq	r0, r0, sp, lsl #4
    1f88:	02500117 	subseq	r0, r0, #-1073741819	; 0xc0000005
    1f8c:	01170075 	tsteq	r7, r5, ror r0
    1f90:	00770251 	rsbseq	r0, r7, r1, asr r2
    1f94:	00000000 	andeq	r0, r0, r0
    1f98:	002c0407 	eoreq	r0, ip, r7, lsl #8
    1f9c:	bf180000 	svclt	0x00180000
    1fa0:	d8000000 	stmdale	r0, {}	; <UNPREDICTABLE>
    1fa4:	2000008f 	andcs	r0, r0, pc, lsl #1
    1fa8:	01000000 	mrseq	r0, (UNDEF: 0)
    1fac:	00020d9c 	muleq	r2, ip, sp
    1fb0:	00d01300 	sbcseq	r1, r0, r0, lsl #6
    1fb4:	0c580000 	mraeq	r0, r8, acc0
    1fb8:	0c520000 	mraeq	r0, r2, acc0
    1fbc:	dc140000 	ldcle	0, cr0, [r4], {-0}
    1fc0:	8c000000 	stchi	0, cr0, [r0], {-0}
    1fc4:	8600000c 	strhi	r0, [r0], -ip
    1fc8:	1900000c 	stmdbne	r0, {r2, r3}
    1fcc:	000000e8 	andeq	r0, r0, r8, ror #1
    1fd0:	00008fe4 	andeq	r8, r0, r4, ror #31
    1fd4:	00000008 	andeq	r0, r0, r8
    1fd8:	0000e914 	andeq	lr, r0, r4, lsl r9
    1fdc:	000cc000 	andeq	ip, ip, r0
    1fe0:	000cba00 	andeq	fp, ip, r0, lsl #20
    1fe4:	1a000000 	bne	1fec <__code_start__-0x6014>
    1fe8:	0000063b 	andeq	r0, r0, fp, lsr r6
    1fec:	0000063b 	andeq	r0, r0, fp, lsr r6
    1ff0:	00062802 	andeq	r2, r6, r2, lsl #16
    1ff4:	00000140 	andeq	r0, r0, r0, asr #2
    1ff8:	0a5a0004 	beq	1682010 <__bss_end__+0x1676d18>
    1ffc:	01040000 	mrseq	r0, (UNDEF: 4)
    2000:	00000513 	andeq	r0, r0, r3, lsl r5
    2004:	0006230c 	andeq	r2, r6, ip, lsl #6
    2008:	0005d900 	andeq	sp, r5, r0, lsl #18
    200c:	008ff800 	addeq	pc, pc, r0, lsl #16
    2010:	00007800 	andeq	r7, r0, r0, lsl #16
    2014:	000e6500 	andeq	r6, lr, r0, lsl #10
    2018:	05040200 	streq	r0, [r4, #-512]	; 0xfffffe00
    201c:	00746e69 	rsbseq	r6, r4, r9, ror #28
    2020:	00061c03 	andeq	r1, r6, r3, lsl #24
    2024:	17d10300 	ldrbne	r0, [r1, r0, lsl #6]
    2028:	00000038 	andeq	r0, r0, r8, lsr r0
    202c:	e2070404 	and	r0, r7, #4, 8	; 0x4000000
    2030:	04000001 	streq	r0, [r0], #-1
    2034:	00580601 	subseq	r0, r8, r1, lsl #12
    2038:	02040000 	andeq	r0, r4, #0, 0
    203c:	00022205 	andeq	r2, r2, r5, lsl #4
    2040:	05040400 	streq	r0, [r4, #-1024]	; 0xfffffc00
    2044:	00000206 	andeq	r0, r0, r6, lsl #4
    2048:	01050804 	tsteq	r5, r4, lsl #16
    204c:	04000002 	streq	r0, [r0], #-2
    2050:	00560801 	subseq	r0, r6, r1, lsl #16
    2054:	02040000 	andeq	r0, r4, #0, 0
    2058:	00007107 	andeq	r7, r0, r7, lsl #2
    205c:	07040400 	streq	r0, [r4, -r0, lsl #8]
    2060:	000001dd 	ldrdeq	r0, [r0], -sp
    2064:	d8070804 	stmdale	r7, {r2, fp}
    2068:	05000001 	streq	r0, [r0, #-1]
    206c:	00000025 	andeq	r0, r0, r5, lsr #32
    2070:	00000086 	andeq	r0, r0, r6, lsl #1
    2074:	00002506 	andeq	r2, r0, r6, lsl #10
    2078:	0f070000 	svceq	0x00070000
    207c:	02000002 	andeq	r0, r0, #2, 0
    2080:	00920e1c 	addseq	r0, r2, ip, lsl lr
    2084:	04080000 	streq	r0, [r8], #-0
    2088:	00000077 	andeq	r0, r0, r7, ror r0
    208c:	00002505 	andeq	r2, r0, r5, lsl #10
    2090:	0000a700 	andeq	sl, r0, r0, lsl #14
    2094:	00a70600 	adceq	r0, r7, r0, lsl #12
    2098:	08000000 	stmdaeq	r0, {}	; <UNPREDICTABLE>
    209c:	0000b404 	andeq	fp, r0, r4, lsl #8
    20a0:	08010400 	stmdaeq	r1, {sl}
    20a4:	0000005f 	andeq	r0, r0, pc, asr r0
    20a8:	0000ad09 	andeq	sl, r0, r9, lsl #26
    20ac:	06790700 	ldrbteq	r0, [r9], -r0, lsl #14
    20b0:	21020000 	mrscs	r0, (UNDEF: 2)
    20b4:	0000c50e 	andeq	ip, r0, lr, lsl #10
    20b8:	98040800 	stmdals	r4, {fp}
    20bc:	0a000000 	beq	20c4 <__code_start__-0x5f3c>
    20c0:	000001c8 	andeq	r0, r0, r8, asr #3
    20c4:	3b070401 	blcc	1c30d0 <__bss_end__+0x1b7dd8>
    20c8:	f8000001 			; <UNDEFINED> instruction: 0xf8000001
    20cc:	7800008f 	stmdavc	r0, {r0, r1, r2, r3, r7}
    20d0:	01000000 	mrseq	r0, (UNDEF: 0)
    20d4:	00013b9c 	muleq	r1, ip, fp
    20d8:	705f0b00 	subsvc	r0, pc, r0, lsl #22
    20dc:	14040100 	strne	r0, [r4], #-256	; 0xffffff00
    20e0:	0000013b 	andeq	r0, r0, fp, lsr r1
    20e4:	630c5001 	movwvs	r5, #49153	; 0xc001
    20e8:	1c040100 	stfnes	f0, [r4], {-0}
    20ec:	00000025 	andeq	r0, r0, r5, lsr #32
    20f0:	00000d0a 	andeq	r0, r0, sl, lsl #26
    20f4:	00000d06 	andeq	r0, r0, r6, lsl #26
    20f8:	01006e0c 	tsteq	r0, ip, lsl #28
    20fc:	002c2604 	eoreq	r2, ip, r4, lsl #12
    2100:	0d2f0000 	stceq	0, cr0, [pc, #-0]	; 2108 <__code_start__-0x5ef8>
    2104:	0d2b0000 	stceq	0, cr0, [fp, #-0]
    2108:	700d0000 	andvc	r0, sp, r0
    210c:	0b050100 	bleq	142514 <__bss_end__+0x13721c>
    2110:	0000013d 	andeq	r0, r0, sp, lsr r1
    2114:	00000d5e 	andeq	r0, r0, lr, asr sp
    2118:	00000d50 	andeq	r0, r0, r0, asr sp
    211c:	0100650d 	tsteq	r0, sp, lsl #10
    2120:	013d1405 	teqeq	sp, r5, lsl #8
    2124:	0dbb0000 	ldceq	0, cr0, [fp]
    2128:	0db90000 	ldceq	0, cr0, [r9]
    212c:	0e000000 	cdpeq	0, 0, cr0, cr0, cr0, {0}
    2130:	ad040804 	stcge	8, cr0, [r4, #-16]
    2134:	00000000 	andeq	r0, r0, r0
    2138:	0000019d 	muleq	r0, sp, r1
    213c:	0b260004 	bleq	982154 <__bss_end__+0x976e5c>
    2140:	01040000 	mrseq	r0, (UNDEF: 4)
    2144:	00000513 	andeq	r0, r0, r3, lsl r5
    2148:	0006560c 	andeq	r5, r6, ip, lsl #12
    214c:	0005d900 	andeq	sp, r5, r0, lsl #18
    2150:	00907000 	addseq	r7, r0, r0
    2154:	00005800 	andeq	r5, r0, r0, lsl #16
    2158:	000f8a00 	andeq	r8, pc, r0, lsl #20
    215c:	06420200 	strbeq	r0, [r2], -r0, lsl #4
    2160:	28020000 	stmdacs	r2, {}	; <UNPREDICTABLE>
    2164:	0000311b 	andeq	r3, r0, fp, lsl r1
    2168:	06660300 	strbteq	r0, [r6], -r0, lsl #6
    216c:	04040000 	streq	r0, [r4], #-0
    2170:	00004800 	andeq	r4, r0, r0, lsl #16
    2174:	06510400 	ldrbeq	r0, [r1], -r0, lsl #8
    2178:	00480000 	subeq	r0, r8, r0
    217c:	00000000 	andeq	r0, r0, r0
    2180:	68020405 	stmdavs	r2, {r0, r2, sl}
    2184:	02000006 	andeq	r0, r0, #6, 0
    2188:	00251863 	eoreq	r1, r5, r3, ror #16
    218c:	04060000 	streq	r0, [r6], #-0
    2190:	746e6905 	strbtvc	r6, [lr], #-2309	; 0xfffff6fb
    2194:	07040700 	streq	r0, [r4, -r0, lsl #14]
    2198:	000001e2 	andeq	r0, r0, r2, ror #3
    219c:	58060107 	stmdapl	r6, {r0, r1, r2, r8}
    21a0:	07000000 	streq	r0, [r0, -r0]
    21a4:	02220502 	eoreq	r0, r2, #8388608	; 0x800000
    21a8:	04070000 	streq	r0, [r7], #-0
    21ac:	00020605 	andeq	r0, r2, r5, lsl #12
    21b0:	05080700 	streq	r0, [r8, #-1792]	; 0xfffff900
    21b4:	00000201 	andeq	r0, r0, r1, lsl #4
    21b8:	56080107 	strpl	r0, [r8], -r7, lsl #2
    21bc:	07000000 	streq	r0, [r0, -r0]
    21c0:	00710702 	rsbseq	r0, r1, r2, lsl #14
    21c4:	04070000 	streq	r0, [r7], #-0
    21c8:	0001dd07 	andeq	sp, r1, r7, lsl #26
    21cc:	07080700 	streq	r0, [r8, -r0, lsl #14]
    21d0:	000001d8 	ldrdeq	r0, [r0], -r8
    21d4:	00005608 	andeq	r5, r0, r8, lsl #12
    21d8:	0000ab00 	andeq	sl, r0, r0, lsl #22
    21dc:	00560900 	subseq	r0, r6, r0, lsl #18
    21e0:	0a000000 	beq	21e8 <__code_start__-0x5e18>
    21e4:	0000020f 	andeq	r0, r0, pc, lsl #4
    21e8:	b70e1c03 	strlt	r1, [lr, -r3, lsl #24]
    21ec:	0b000000 	bleq	21f4 <__code_start__-0x5e0c>
    21f0:	00009c04 	andeq	r9, r0, r4, lsl #24
    21f4:	00560800 	subseq	r0, r6, r0, lsl #16
    21f8:	00cc0000 	sbceq	r0, ip, r0
    21fc:	cc090000 	stcgt	0, cr0, [r9], {-0}
    2200:	00000000 	andeq	r0, r0, r0
    2204:	00d9040b 	sbcseq	r0, r9, fp, lsl #8
    2208:	01070000 	mrseq	r0, (UNDEF: 7)
    220c:	00005f08 	andeq	r5, r0, r8, lsl #30
    2210:	00d20c00 	sbcseq	r0, r2, r0, lsl #24
    2214:	790a0000 	stmdbvc	sl, {}	; <UNPREDICTABLE>
    2218:	03000006 	movweq	r0, #6
    221c:	00ea0e21 	rsceq	r0, sl, r1, lsr #28
    2220:	040b0000 	streq	r0, [fp], #-0
    2224:	000000bd 	strheq	r0, [r0], -sp
    2228:	00063b0d 	andeq	r3, r6, sp, lsl #22
    222c:	05060100 	streq	r0, [r6, #-256]	; 0xffffff00
    2230:	00000056 	andeq	r0, r0, r6, asr r0
    2234:	00009070 	andeq	r9, r0, r0, ror r0
    2238:	00000058 	andeq	r0, r0, r8, asr r0
    223c:	01839c01 	orreq	r9, r3, r1, lsl #24
    2240:	660e0000 	strvs	r0, [lr], -r0
    2244:	0100746d 	tsteq	r0, sp, ror #8
    2248:	00cc1806 	sbceq	r1, ip, r6, lsl #16
    224c:	91020000 	mrsls	r0, (UNDEF: 2)
    2250:	62100f70 	andsvs	r0, r0, #112, 30	; 0x1c0
    2254:	01006675 	tsteq	r0, r5, ror r6
    2258:	01831108 	orreq	r1, r3, r8, lsl #2
    225c:	03050000 	movweq	r0, #20480	; 0x5000
    2260:	0000aef4 	strdeq	sl, [r0], -r4
    2264:	00063311 	andeq	r3, r6, r1, lsl r3
    2268:	0d090100 	stfeqs	f0, [r9, #-0]
    226c:	0000004a 	andeq	r0, r0, sl, asr #32
    2270:	125c9102 	subsne	r9, ip, #-2147483648	; 0x80000000
    2274:	01007a73 	tsteq	r0, r3, ror sl
    2278:	00560d0c 	subseq	r0, r6, ip, lsl #26
    227c:	0dd40000 	ldcleq	0, cr0, [r4]
    2280:	0dce0000 	stcleq	0, cr0, [lr]
    2284:	98130000 	ldmdals	r3, {}	; <UNPREDICTABLE>
    2288:	94000090 	strls	r0, [r0], #-144	; 0xffffff70
    228c:	76000001 	strvc	r0, [r0], -r1
    2290:	14000001 	strne	r0, [r0], #-1
    2294:	75025001 	strvc	r5, [r2, #-1]
    2298:	51011400 	tstpl	r1, r0, lsl #8
    229c:	04000a03 	streq	r0, [r0], #-2563	; 0xfffff5fd
    22a0:	03520114 	cmpeq	r2, #5
    22a4:	14064891 	strne	r4, [r6], #-2193	; 0xfffff76f
    22a8:	91025301 	tstls	r2, r1, lsl #6
    22ac:	ac15004c 	ldcge	0, cr0, [r5], {76}	; 0x4c
    22b0:	14000090 	strne	r0, [r0], #-144	; 0xffffff70
    22b4:	75025001 	strvc	r5, [r2, #-1]
    22b8:	16000000 	strne	r0, [r0], -r0
    22bc:	000000d2 	ldrdeq	r0, [r0], -r2
    22c0:	00000194 	muleq	r0, r4, r1
    22c4:	00005d17 	andeq	r5, r0, r7, lsl sp
    22c8:	0003ff00 	andeq	pc, r3, r0, lsl #30
    22cc:	00063818 	andeq	r3, r6, r8, lsl r8
    22d0:	00063800 	andeq	r3, r6, r0, lsl #16
    22d4:	05020500 	streq	r0, [r2, #-1280]	; 0xfffffb00
    22d8:	0000f300 	andeq	pc, r0, r0, lsl #6
    22dc:	68000400 	stmdavs	r0, {sl}
    22e0:	0400000c 	streq	r0, [r0], #-12
    22e4:	00051301 	andeq	r1, r5, r1, lsl #6
    22e8:	067e0c00 	ldrbteq	r0, [lr], -r0, lsl #24
    22ec:	05d90000 	ldrbeq	r0, [r9]
    22f0:	90c80000 	sbcls	r0, r8, r0
    22f4:	00380000 	eorseq	r0, r8, r0
    22f8:	10ae0000 	adcne	r0, lr, r0
    22fc:	04020000 	streq	r0, [r2], #-0
    2300:	746e6905 	strbtvc	r6, [lr], #-2309	; 0xfffff6fb
    2304:	07040300 	streq	r0, [r4, -r0, lsl #6]
    2308:	000001e2 	andeq	r0, r0, r2, ror #3
    230c:	58060103 	stmdapl	r6, {r0, r1, r8}
    2310:	03000000 	movweq	r0, #0
    2314:	02220502 	eoreq	r0, r2, #8388608	; 0x800000
    2318:	04030000 	streq	r0, [r3], #-0
    231c:	00020605 	andeq	r0, r2, r5, lsl #12
    2320:	05080300 	streq	r0, [r8, #-768]	; 0xfffffd00
    2324:	00000201 	andeq	r0, r0, r1, lsl #4
    2328:	56080103 	strpl	r0, [r8], -r3, lsl #2
    232c:	03000000 	movweq	r0, #0
    2330:	00710702 	rsbseq	r0, r1, r2, lsl #14
    2334:	04030000 	streq	r0, [r3], #-0
    2338:	0001dd07 	andeq	sp, r1, r7, lsl #26
    233c:	07080300 	streq	r0, [r8, -r0, lsl #6]
    2340:	000001d8 	ldrdeq	r0, [r0], -r8
    2344:	00002504 	andeq	r2, r0, r4, lsl #10
    2348:	00007a00 	andeq	r7, r0, r0, lsl #20
    234c:	00250500 	eoreq	r0, r5, r0, lsl #10
    2350:	06000000 	streq	r0, [r0], -r0
    2354:	0000020f 	andeq	r0, r0, pc, lsl #4
    2358:	860e1c02 	strhi	r1, [lr], -r2, lsl #24
    235c:	07000000 	streq	r0, [r0, -r0]
    2360:	00006b04 	andeq	r6, r0, r4, lsl #22
    2364:	00250400 	eoreq	r0, r5, r0, lsl #8
    2368:	009b0000 	addseq	r0, fp, r0
    236c:	9b050000 	blls	142374 <__bss_end__+0x13707c>
    2370:	00000000 	andeq	r0, r0, r0
    2374:	00a80407 	adceq	r0, r8, r7, lsl #8
    2378:	01030000 	mrseq	r0, (UNDEF: 3)
    237c:	00005f08 	andeq	r5, r0, r8, lsl #30
    2380:	00a10800 	adceq	r0, r1, r0, lsl #16
    2384:	79060000 	stmdbvc	r6, {}	; <UNPREDICTABLE>
    2388:	02000006 	andeq	r0, r0, #6, 0
    238c:	00b90e21 	adcseq	r0, r9, r1, lsr #28
    2390:	04070000 	streq	r0, [r7], #-0
    2394:	0000008c 	andeq	r0, r0, ip, lsl #1
    2398:	0000ad09 	andeq	sl, r0, r9, lsl #26
    239c:	070c0100 	streq	r0, [ip, -r0, lsl #2]
    23a0:	aeb80305 	cdpge	3, 11, cr0, cr8, cr5, {0}
    23a4:	700a0000 	andvc	r0, sl, r0
    23a8:	01000006 	tsteq	r0, r6
    23ac:	00250504 	eoreq	r0, r5, r4, lsl #10
    23b0:	90c80000 	sbcls	r0, r8, r0
    23b4:	00380000 	eorseq	r0, r8, r0
    23b8:	9c010000 	stcls	0, cr0, [r1], {-0}
    23bc:	0100700b 	tsteq	r0, fp
    23c0:	009b1f04 	addseq	r1, fp, r4, lsl #30
    23c4:	0e050000 	cdpeq	0, 0, cr0, cr5, cr0, {0}
    23c8:	0dfd0000 	ldcleq	0, cr0, [sp]
    23cc:	00000000 	andeq	r0, r0, r0
    23d0:	00000c7f 	andeq	r0, r0, pc, ror ip
    23d4:	0d060004 	stceq	0, cr0, [r6, #-16]
    23d8:	01040000 	mrseq	r0, (UNDEF: 4)
    23dc:	00000513 	andeq	r0, r0, r3, lsl r5
    23e0:	00069d0c 	andeq	r9, r6, ip, lsl #26
    23e4:	0005d900 	andeq	sp, r5, r0, lsl #18
    23e8:	00910000 	addseq	r0, r1, r0
    23ec:	0009b400 	andeq	fp, r9, r0, lsl #8
    23f0:	00115200 	andseq	r5, r1, r0, lsl #4
    23f4:	07080200 	streq	r0, [r8, -r0, lsl #4]
    23f8:	000001d8 	ldrdeq	r0, [r0], -r8
    23fc:	e2070402 	and	r0, r7, #33554432	; 0x2000000
    2400:	03000001 	movweq	r0, #1
    2404:	6e690504 	cdpvs	5, 6, cr0, cr9, cr4, {0}
    2408:	01020074 	tsteq	r2, r4, ror r0
    240c:	00005806 	andeq	r5, r0, r6, lsl #16
    2410:	05020200 	streq	r0, [r2, #-512]	; 0xfffffe00
    2414:	00000222 	andeq	r0, r0, r2, lsr #4
    2418:	06050402 	streq	r0, [r5], -r2, lsl #8
    241c:	02000002 	andeq	r0, r0, #2, 0
    2420:	02010508 	andeq	r0, r1, #8, 10	; 0x2000000
    2424:	01020000 	mrseq	r0, (UNDEF: 2)
    2428:	00005608 	andeq	r5, r0, r8, lsl #12
    242c:	07020200 	streq	r0, [r2, -r0, lsl #4]
    2430:	00000071 	andeq	r0, r0, r1, ror r0
    2434:	00026704 	andeq	r6, r2, r4, lsl #14
    2438:	19340200 	ldmdbne	r4!, {r9}
    243c:	00000070 	andeq	r0, r0, r0, ror r0
    2440:	dd070402 	cfstrsle	mvf0, [r7, #-8]
    2444:	04000001 	streq	r0, [r0], #-1
    2448:	00000694 	muleq	r0, r4, r6
    244c:	25193702 	ldrcs	r3, [r9, #-1794]	; 0xfffff8fe
    2450:	05000000 	streq	r0, [r0, #-0]
    2454:	00000033 	andeq	r0, r0, r3, lsr r0
    2458:	00000092 	muleq	r0, r2, r0
    245c:	00003306 	andeq	r3, r0, r6, lsl #6
    2460:	0f070000 	svceq	0x00070000
    2464:	03000002 	movweq	r0, #2
    2468:	009e0e1c 	addseq	r0, lr, ip, lsl lr
    246c:	04080000 	streq	r0, [r8], #-0
    2470:	00000083 	andeq	r0, r0, r3, lsl #1
    2474:	00003305 	andeq	r3, r0, r5, lsl #6
    2478:	0000b300 	andeq	fp, r0, r0, lsl #6
    247c:	00b30600 	adcseq	r0, r3, r0, lsl #12
    2480:	08000000 	stmdaeq	r0, {}	; <UNPREDICTABLE>
    2484:	0000c004 	andeq	ip, r0, r4
    2488:	08010200 	stmdaeq	r1, {r9}
    248c:	0000005f 	andeq	r0, r0, pc, asr r0
    2490:	0000b909 	andeq	fp, r0, r9, lsl #18
    2494:	06790700 	ldrbteq	r0, [r9], -r0, lsl #14
    2498:	21030000 	mrscs	r0, (UNDEF: 3)
    249c:	0000d10e 	andeq	sp, r0, lr, lsl #2
    24a0:	a4040800 	strge	r0, [r4], #-2048	; 0xfffff800
    24a4:	07000000 	streq	r0, [r0, -r0]
    24a8:	000006b0 			; <UNDEFINED> instruction: 0x000006b0
    24ac:	b90d0b04 	stmdblt	sp, {r2, r8, r9, fp}
    24b0:	07000000 	streq	r0, [r0, -r0]
    24b4:	00000709 	andeq	r0, r0, r9, lsl #14
    24b8:	b90d0c04 	stmdblt	sp, {r2, sl, fp}
    24bc:	07000000 	streq	r0, [r0, -r0]
    24c0:	000003b2 			; <UNDEFINED> instruction: 0x000003b2
    24c4:	b90d0d04 	stmdblt	sp, {r2, r8, sl, fp}
    24c8:	07000000 	streq	r0, [r0, -r0]
    24cc:	00000484 	andeq	r0, r0, r4, lsl #9
    24d0:	b90d0e04 	stmdblt	sp, {r2, r9, sl, fp}
    24d4:	07000000 	streq	r0, [r0, -r0]
    24d8:	000004d1 	ldrdeq	r0, [r0], -r1
    24dc:	b90d0f04 	stmdblt	sp, {r2, r8, r9, sl, fp}
    24e0:	07000000 	streq	r0, [r0, -r0]
    24e4:	00000410 	andeq	r0, r0, r0, lsl r4
    24e8:	b90d1004 	stmdblt	sp, {r2, ip}
    24ec:	07000000 	streq	r0, [r0, -r0]
    24f0:	00000732 	andeq	r0, r0, r2, lsr r7
    24f4:	b90d1104 	stmdblt	sp, {r2, r8, ip}
    24f8:	07000000 	streq	r0, [r0, -r0]
    24fc:	000006cd 	andeq	r0, r0, sp, asr #13
    2500:	b90d1204 	stmdblt	sp, {r2, r9, ip}
    2504:	04000000 	streq	r0, [r0], #-0
    2508:	00000642 	andeq	r0, r0, r2, asr #12
    250c:	431b2805 	tstmi	fp, #327680	; 0x50000
    2510:	0a000001 	beq	251c <__code_start__-0x5ae4>
    2514:	00000666 	andeq	r0, r0, r6, ror #12
    2518:	5a000604 	bpl	3d30 <__code_start__-0x42d0>
    251c:	0b000001 	bleq	2528 <__code_start__-0x5ad8>
    2520:	00000651 	andeq	r0, r0, r1, asr r6
    2524:	0000015a 	andeq	r0, r0, sl, asr r1
    2528:	040c0000 	streq	r0, [ip], #-0
    252c:	00066804 	andeq	r6, r6, r4, lsl #16
    2530:	18630500 	stmdane	r3!, {r8, sl}^
    2534:	00000137 	andeq	r0, r0, r7, lsr r1
    2538:	0006380d 	andeq	r3, r6, sp, lsl #16
    253c:	05810100 	streq	r0, [r1, #256]	; 0x100
    2540:	00000033 	andeq	r0, r0, r3, lsr r0
    2544:	00009488 	andeq	r9, r0, r8, lsl #9
    2548:	0000062c 	andeq	r0, r0, ip, lsr #12
    254c:	086a9c01 	stmdaeq	sl!, {r0, sl, fp, ip, pc}^
    2550:	620e0000 	andvs	r0, lr, #0, 0
    2554:	01006675 	tsteq	r0, r5, ror r6
    2558:	086a1581 	stmdaeq	sl!, {r0, r7, r8, sl, ip}^
    255c:	0e450000 	cdpeq	0, 4, cr0, cr5, cr0, {0}
    2560:	0e3b0000 	cdpeq	0, 3, cr0, cr11, cr0, {0}
    2564:	6e0e0000 	cdpvs	0, 0, cr0, cr14, cr0, {0}
    2568:	1e810100 	rmfnes	f0, f1, f0
    256c:	00000033 	andeq	r0, r0, r3, lsr r0
    2570:	00000e92 	muleq	r0, r2, lr
    2574:	00000e8a 	andeq	r0, r0, sl, lsl #29
    2578:	746d660e 	strbtvc	r6, [sp], #-1550	; 0xfffff9f2
    257c:	2d810100 	stfcss	f0, [r1]
    2580:	000000b3 	strheq	r0, [r0], -r3
    2584:	00000ee4 	andeq	r0, r0, r4, ror #29
    2588:	00000ecc 	andeq	r0, r0, ip, asr #29
    258c:	0006330f 	andeq	r3, r6, pc, lsl #6
    2590:	3a810100 	bcc	fe042998 <__bss_end__+0xfe0376a0>
    2594:	0000015c 	andeq	r0, r0, ip, asr r1
    2598:	00000fa6 	andeq	r0, r0, r6, lsr #31
    259c:	00000f78 	andeq	r0, r0, r8, ror pc
    25a0:	01007010 	tsteq	r0, r0, lsl r0
    25a4:	086a0882 	stmdaeq	sl!, {r1, r7, fp}^
    25a8:	10f90000 	rscsne	r0, r9, r0
    25ac:	10e30000 	rscne	r0, r3, r0
    25b0:	65100000 	ldrvs	r0, [r0, #-0]
    25b4:	12820100 	addne	r0, r2, #0
    25b8:	0000086a 	andeq	r0, r0, sl, ror #16
    25bc:	00001182 	andeq	r1, r0, r2, lsl #3
    25c0:	00001180 	andeq	r1, r0, r0, lsl #3
    25c4:	00307810 	eorseq	r7, r0, r0, lsl r8
    25c8:	640e8301 	strvs	r8, [lr], #-769	; 0xfffffcff
    25cc:	9b000000 	blls	25d4 <__code_start__-0x5a2c>
    25d0:	95000011 	strls	r0, [r0, #-17]	; 0xffffffef
    25d4:	10000011 	andne	r0, r0, r1, lsl r0
    25d8:	01003178 	tsteq	r0, r8, ror r1
    25dc:	00641183 	rsbeq	r1, r4, r3, lsl #3
    25e0:	11ca0000 	bicne	r0, sl, r0
    25e4:	11c40000 	bicne	r0, r4, r0
    25e8:	eb110000 	bl	4425f0 <__bss_end__+0x4372f8>
    25ec:	01000006 	tsteq	r0, r6
    25f0:	00b31186 	adcseq	r1, r3, r6, lsl #3
    25f4:	11fb0000 	mvnsne	r0, r0
    25f8:	11f30000 	mvnsne	r0, r0
    25fc:	bb120000 	bllt	482604 <__bss_end__+0x47730c>
    2600:	80000001 	andhi	r0, r0, r1
    2604:	05000008 	streq	r0, [r0, #-8]
    2608:	00aca403 	adceq	sl, ip, r3, lsl #8
    260c:	01a81300 			; <UNDEFINED> instruction: 0x01a81300
    2610:	73100000 	tstvc	r0, #0, 0
    2614:	0a910100 	beq	fe442a1c <__bss_end__+0xfe437724>
    2618:	0000086a 	andeq	r0, r0, sl, ror #16
    261c:	00001241 	andeq	r1, r0, r1, asr #4
    2620:	00001235 	andeq	r1, r0, r5, lsr r2
    2624:	6d756e14 	ldclvs	14, cr6, [r5, #-80]!	; 0xffffffb0
    2628:	0d910100 	ldfeqs	f0, [r1]
    262c:	00000885 	andeq	r0, r0, r5, lsl #17
    2630:	7dd89103 	ldfvcp	f1, [r8, #12]
    2634:	00073f15 	andeq	r3, r7, r5, lsl pc
    2638:	17910100 	ldrne	r0, [r1, r0, lsl #2]
    263c:	00000885 	andeq	r0, r0, r5, lsl #17
    2640:	7ed89103 	atnvce	f1, f3
    2644:	0006bf11 	andeq	fp, r6, r1, lsl pc
    2648:	0d920100 	ldfeqs	f0, [r2]
    264c:	0000002c 	andeq	r0, r0, ip, lsr #32
    2650:	00001293 	muleq	r0, r3, r2
    2654:	0000128b 	andeq	r1, r0, fp, lsl #5
    2658:	0001d016 	andeq	sp, r1, r6, lsl r0
    265c:	0004f100 	andeq	pc, r4, r0, lsl #2
    2660:	79741000 	ldmdbvc	r4!, {ip}^
    2664:	1d9e0100 	ldfnes	f0, [lr]
    2668:	000000b3 	strheq	r0, [r0], -r3
    266c:	000012d4 	ldrdeq	r1, [r0], -r4
    2670:	000012c8 	andeq	r1, r0, r8, asr #5
    2674:	00787814 	rsbseq	r7, r8, r4, lsl r8
    2678:	771aa201 	ldrvc	sl, [sl, -r1, lsl #4]
    267c:	06000000 	streq	r0, [r0], -r0
    2680:	5b049359 	blpl	1273ec <__bss_end__+0x11c0f4>
    2684:	14170493 	ldrne	r0, [r7], #-1171	; 0xfffffb6d
    2688:	3a000096 	bcc	28e8 <__code_start__-0x5718>
    268c:	d800000c 	stmdale	r0, {r2, r3}
    2690:	18000002 	stmdane	r0, {r1}
    2694:	76025001 	strvc	r5, [r2], -r1
    2698:	51011800 	tstpl	r1, r0, lsl #16
    269c:	ab980305 	blge	fe6032b8 <__bss_end__+0xfe5f7fc0>
    26a0:	01180000 	tsteq	r8, r0
    26a4:	00330152 	eorseq	r0, r3, r2, asr r1
    26a8:	00962c17 	addseq	r2, r6, r7, lsl ip
    26ac:	000c3a00 	andeq	r3, ip, r0, lsl #20
    26b0:	0002fa00 	andeq	pc, r2, r0, lsl #20
    26b4:	50011800 	andpl	r1, r1, r0, lsl #16
    26b8:	18007602 	stmdane	r0, {r1, r9, sl, ip, sp, lr}
    26bc:	03055101 	movweq	r5, #20737	; 0x5101
    26c0:	0000abac 	andeq	sl, r0, ip, lsr #23
    26c4:	01520118 	cmpeq	r2, r8, lsl r1
    26c8:	50170033 	andspl	r0, r7, r3, lsr r0
    26cc:	46000096 			; <UNDEFINED> instruction: 0x46000096
    26d0:	1700000c 	strne	r0, [r0, -ip]
    26d4:	18000003 	stmdane	r0, {r0, r1}
    26d8:	03055001 	movweq	r5, #20481	; 0x5001
    26dc:	0000ab9c 	muleq	r0, ip, fp
    26e0:	02510118 	subseq	r0, r1, #6
    26e4:	1700007b 	smlsdxne	r0, fp, r0, r0
    26e8:	0000965c 	andeq	r9, r0, ip, asr r6
    26ec:	00000c46 	andeq	r0, r0, r6, asr #24
    26f0:	00000334 	andeq	r0, r0, r4, lsr r3
    26f4:	05500118 	ldrbeq	r0, [r0, #-280]	; 0xfffffee8
    26f8:	00aba403 	adceq	sl, fp, r3, lsl #8
    26fc:	51011800 	tstpl	r1, r0, lsl #16
    2700:	00007902 	andeq	r7, r0, r2, lsl #18
    2704:	00966c17 	addseq	r6, r6, r7, lsl ip
    2708:	000c3a00 	andeq	r3, ip, r0, lsl #20
    270c:	00035600 	andeq	r5, r3, r0, lsl #12
    2710:	50011800 	andpl	r1, r1, r0, lsl #16
    2714:	18007602 	stmdane	r0, {r1, r9, sl, ip, sp, lr}
    2718:	03055101 	movweq	r5, #20737	; 0x5101
    271c:	0000ab98 	muleq	r0, r8, fp
    2720:	01520118 	cmpeq	r2, r8, lsl r1
    2724:	9c170033 	ldcls	0, cr0, [r7], {51}	; 0x33
    2728:	a4000096 	strge	r0, [r0], #-150	; 0xffffff6a
    272c:	8300000a 	movwhi	r0, #10
    2730:	18000003 	stmdane	r0, {r0, r1}
    2734:	40015001 	andmi	r5, r1, r1
    2738:	03510118 	cmpeq	r1, #6
    273c:	187dd091 	ldmdane	sp!, {r0, r4, r7, ip, lr, pc}^
    2740:	7b025201 	blvc	96f4c <__bss_end__+0x8bc54>
    2744:	53011800 	movwpl	r1, #6144	; 0x1800
    2748:	18007502 	stmdane	r0, {r1, r8, sl, ip, sp, lr}
    274c:	02007d02 	andeq	r7, r0, #128	; 0x80
    2750:	17000076 	smlsdxne	r0, r6, r0, r0
    2754:	000096bc 			; <UNDEFINED> instruction: 0x000096bc
    2758:	00000aa4 	andeq	r0, r0, r4, lsr #21
    275c:	000003aa 	andeq	r0, r0, sl, lsr #7
    2760:	01500118 	cmpeq	r0, r8, lsl r1
    2764:	51011840 	tstpl	r1, r0, asr #16
    2768:	7ed09103 	atnvcs	f1, f3
    276c:	02520118 	subseq	r0, r2, #6
    2770:	02180079 	andseq	r0, r8, #121, 0	; 0x79
    2774:	7602007d 			; <UNDEFINED> instruction: 0x7602007d
    2778:	cc170000 	ldcgt	0, cr0, [r7], {-0}
    277c:	52000096 	andpl	r0, r0, #150, 0	; 0x96
    2780:	c600000c 	strgt	r0, [r0], -ip
    2784:	18000003 	stmdane	r0, {r0, r1}
    2788:	91035001 	tstls	r3, r1
    278c:	01187dd0 			; <UNDEFINED> instruction: 0x01187dd0
    2790:	d2910351 	addsle	r0, r1, #1140850689	; 0x44000001
    2794:	1017007e 	andsne	r0, r7, lr, ror r0
    2798:	3a000099 	bcc	2a04 <__code_start__-0x55fc>
    279c:	e800000c 	stmda	r0, {r2, r3}
    27a0:	18000003 	stmdane	r0, {r0, r1}
    27a4:	76025001 	strvc	r5, [r2], -r1
    27a8:	51011800 	tstpl	r1, r0, lsl #16
    27ac:	abac0305 	blge	feb033c8 <__bss_end__+0xfeaf80d0>
    27b0:	01180000 	tsteq	r8, r0
    27b4:	00330152 	eorseq	r0, r3, r2, asr r1
    27b8:	00993417 	addseq	r3, r9, r7, lsl r4
    27bc:	000aa400 	andeq	sl, sl, r0, lsl #8
    27c0:	00041500 	andeq	r1, r4, r0, lsl #10
    27c4:	50011800 	andpl	r1, r1, r0, lsl #16
    27c8:	01183a01 	tsteq	r8, r1, lsl #20
    27cc:	d0910351 	addsle	r0, r1, r1, asr r3
    27d0:	5201187d 	andpl	r1, r1, #8192000	; 0x7d0000
    27d4:	18007b02 	stmdane	r0, {r1, r8, r9, fp, ip, sp, lr}
    27d8:	75025301 	strvc	r5, [r2, #-769]	; 0xfffffcff
    27dc:	7d021800 	stcvc	8, cr1, [r2, #-0]
    27e0:	00760200 	rsbseq	r0, r6, r0, lsl #4
    27e4:	99541700 	ldmdbls	r4, {r8, r9, sl, ip}^
    27e8:	0aa40000 	beq	fe9027f0 <__bss_end__+0xfe8f74f8>
    27ec:	043c0000 	ldrteq	r0, [ip], #-0
    27f0:	01180000 	tsteq	r8, r0
    27f4:	183a0150 	ldmdane	sl!, {r4, r6, r8}
    27f8:	91035101 	tstls	r3, r1, lsl #2
    27fc:	01187ed0 			; <UNDEFINED> instruction: 0x01187ed0
    2800:	00790252 	rsbseq	r0, r9, r2, asr r2
    2804:	007d0218 	rsbseq	r0, sp, r8, lsl r2
    2808:	00007602 	andeq	r7, r0, r2, lsl #12
    280c:	00996017 	addseq	r6, r9, r7, lsl r0
    2810:	000c5e00 	andeq	r5, ip, r0, lsl #28
    2814:	00045a00 	andeq	r5, r4, r0, lsl #20
    2818:	50011800 	andpl	r1, r1, r0, lsl #16
    281c:	7dd09103 	ldfvcp	f1, [r0, #12]
    2820:	05510118 	ldrbeq	r0, [r1, #-280]	; 0xfffffee8
    2824:	00a9b403 	adceq	fp, r9, r3, lsl #8
    2828:	74170000 	ldrvc	r0, [r7], #-0
    282c:	6a000099 	bvs	2a98 <__code_start__-0x5568>
    2830:	7600000c 	strvc	r0, [r0], -ip
    2834:	18000004 	stmdane	r0, {r2}
    2838:	91035001 	tstls	r3, r1
    283c:	01187dd0 			; <UNDEFINED> instruction: 0x01187dd0
    2840:	d0910351 	addsle	r0, r1, r1, asr r3
    2844:	8019007e 	andshi	r0, r9, lr, ror r0
    2848:	52000099 	andpl	r0, r0, #153, 0	; 0x99
    284c:	1700000c 	strne	r0, [r0, -ip]
    2850:	00009a44 	andeq	r9, r0, r4, asr #20
    2854:	00000c46 	andeq	r0, r0, r6, asr #24
    2858:	000004a8 	andeq	r0, r0, r8, lsr #9
    285c:	05500118 	ldrbeq	r0, [r0, #-280]	; 0xfffffee8
    2860:	00a71403 	adceq	r1, r7, r3, lsl #8
    2864:	51011800 	tstpl	r1, r0, lsl #16
    2868:	ab4c0305 	blge	1303484 <__bss_end__+0x12f818c>
    286c:	01180000 	tsteq	r8, r0
    2870:	a4030552 	strge	r0, [r3], #-1362	; 0xfffffaae
    2874:	000000ac 	andeq	r0, r0, ip, lsr #1
    2878:	009a4819 	addseq	r4, sl, r9, lsl r8
    287c:	000c7600 	andeq	r7, ip, r0, lsl #12
    2880:	9a601700 	bls	1808488 <__bss_end__+0x17fd190>
    2884:	0c460000 	mareq	acc0, r0, r6
    2888:	04e70000 	strbteq	r0, [r7], #0
    288c:	01180000 	tsteq	r8, r0
    2890:	ec030550 	cfstr32	mvfx0, [r3], {80}	; 0x50
    2894:	180000ab 	stmdane	r0, {r0, r1, r3, r5, r7}
    2898:	03055101 	movweq	r5, #20737	; 0x5101
    289c:	0000ab4c 	andeq	sl, r0, ip, asr #22
    28a0:	05520118 	ldrbeq	r0, [r2, #-280]	; 0xfffffee8
    28a4:	00aca403 	adceq	sl, ip, r3, lsl #8
    28a8:	53011800 	movwpl	r1, #6144	; 0x1800
    28ac:	18b60802 	ldmne	r6!, {r1, fp}
    28b0:	02007d02 	andeq	r7, r0, #128	; 0x80
    28b4:	19000076 	stmdbne	r0, {r1, r2, r4, r5, r6}
    28b8:	00009a64 	andeq	r9, r0, r4, ror #20
    28bc:	00000c76 	andeq	r0, r0, r6, ror ip
    28c0:	09e31a00 	stmibeq	r3!, {r9, fp, ip}^
    28c4:	95140000 	ldrls	r0, [r4, #-0]
    28c8:	00040000 	andeq	r0, r4, r0
    28cc:	000001f8 	strdeq	r0, [r0], -r8
    28d0:	150a9401 	strne	r9, [sl, #-1025]	; 0xfffffbff
    28d4:	1b000005 	blne	28f0 <__code_start__-0x5710>
    28d8:	000009f4 	strdeq	r0, [r0], -r4
    28dc:	00001330 	andeq	r1, r0, r0, lsr r3
    28e0:	0000132c 	andeq	r1, r0, ip, lsr #6
    28e4:	08951a00 	ldmeq	r5, {r9, fp, ip}
    28e8:	96fc0000 	ldrbtls	r0, [ip], r0
    28ec:	00010000 	andeq	r0, r1, r0
    28f0:	00000218 	andeq	r0, r0, r8, lsl r2
    28f4:	4b09dc01 	blmi	279900 <__bss_end__+0x26e608>
    28f8:	1b000006 	blne	2918 <__code_start__-0x56e8>
    28fc:	000008be 			; <UNDEFINED> instruction: 0x000008be
    2900:	0000135e 	andeq	r1, r0, lr, asr r3
    2904:	00001358 	andeq	r1, r0, r8, asr r3
    2908:	0008e01b 	andeq	lr, r8, fp, lsl r0
    290c:	00139300 	andseq	r9, r3, r0, lsl #6
    2910:	00138d00 	andseq	r8, r3, r0, lsl #26
    2914:	08d41b00 	ldmeq	r4, {r8, r9, fp, ip}^
    2918:	13c50000 	bicne	r0, r5, #0, 0
    291c:	13bf0000 			; <UNDEFINED> instruction: 0x13bf0000
    2920:	c81c0000 	ldmdagt	ip, {}	; <UNPREDICTABLE>
    2924:	1b000008 	blne	294c <__code_start__-0x56b4>
    2928:	000008b2 			; <UNDEFINED> instruction: 0x000008b2
    292c:	000013f6 	strdeq	r1, [r0], -r6
    2930:	000013ee 	andeq	r1, r0, lr, ror #7
    2934:	0008a61b 	andeq	sl, r8, fp, lsl r6
    2938:	00143900 	andseq	r3, r4, r0, lsl #18
    293c:	00143300 	andseq	r3, r4, r0, lsl #6
    2940:	02181300 	andseq	r1, r8, #0, 6
    2944:	ec1d0000 	ldc	0, cr0, [sp], {-0}
    2948:	03000008 	movweq	r0, #8
    294c:	1e7ed891 	mrcne	8, 3, sp, cr14, cr1, {4}
    2950:	000008f8 	strdeq	r0, [r0], -r8
    2954:	00001473 	andeq	r1, r0, r3, ror r4
    2958:	00001465 	andeq	r1, r0, r5, ror #8
    295c:	0009021f 	andeq	r0, r9, pc, lsl r2
    2960:	09a31a00 	stmibeq	r3!, {r9, fp, ip}
    2964:	97080000 	strls	r0, [r8, -r0]
    2968:	00040000 	andeq	r0, r4, r0
    296c:	00000248 	andeq	r0, r0, r8, asr #4
    2970:	e2097c01 	and	r7, r9, #256	; 0x100
    2974:	1b000005 	blne	2990 <__code_start__-0x5670>
    2978:	000009ca 	andeq	r0, r0, sl, asr #19
    297c:	000014dd 	ldrdeq	r1, [r0], -sp
    2980:	000014d7 	ldrdeq	r1, [r0], -r7
    2984:	0009be1b 	andeq	fp, r9, fp, lsl lr
    2988:	00151200 	andseq	r1, r5, r0, lsl #4
    298c:	00150600 	andseq	r0, r5, r0, lsl #12
    2990:	09b41b00 	ldmibeq	r4!, {r8, r9, fp, ip}
    2994:	15780000 	ldrbne	r0, [r8, #-0]!
    2998:	15680000 	strbne	r0, [r8, #-0]!
    299c:	48130000 	ldmdami	r3, {}	; <UNPREDICTABLE>
    29a0:	1e000002 	cdpne	0, 0, cr0, cr0, cr2, {0}
    29a4:	000009d6 	ldrdeq	r0, [r0], -r6
    29a8:	000015f5 	strdeq	r1, [r0], -r5
    29ac:	000015e7 	andeq	r1, r0, r7, ror #11
    29b0:	4f200000 	svcmi	0x00200000
    29b4:	d0000009 	andle	r0, r0, r9
    29b8:	02000097 	andeq	r0, r0, #151, 0	; 0x97
    29bc:	00027800 	andeq	r7, r2, r0, lsl #16
    29c0:	097c0100 	ldmdbeq	ip!, {r8}^
    29c4:	0009801b 	andeq	r8, r9, fp, lsl r0
    29c8:	00165500 	andseq	r5, r6, r0, lsl #10
    29cc:	00164f00 	andseq	r4, r6, r0, lsl #30
    29d0:	09761b00 	ldmdbeq	r6!, {r8, r9, fp, ip}^
    29d4:	168b0000 	strne	r0, [fp], r0
    29d8:	16810000 	strne	r0, [r1], r0
    29dc:	6c1b0000 	ldcvs	0, cr0, [fp], {-0}
    29e0:	da000009 	ble	2a0c <__code_start__-0x55f4>
    29e4:	d6000016 			; <UNDEFINED> instruction: 0xd6000016
    29e8:	1b000016 	blne	2a48 <__code_start__-0x55b8>
    29ec:	00000960 	andeq	r0, r0, r0, ror #18
    29f0:	0000170a 	andeq	r1, r0, sl, lsl #14
    29f4:	000016fc 	strdeq	r1, [r0], -ip
    29f8:	00027813 	andeq	r7, r2, r3, lsl r8
    29fc:	098c1e00 	stmibeq	ip, {r9, sl, fp, ip}
    2a00:	176f0000 	strbne	r0, [pc, -r0]!
    2a04:	176d0000 	strbne	r0, [sp, -r0]!
    2a08:	981e0000 	ldmdals	lr, {}	; <UNPREDICTABLE>
    2a0c:	89000009 	stmdbhi	r0, {r0, r3}
    2a10:	83000017 	movwhi	r0, #23
    2a14:	00000017 	andeq	r0, r0, r7, lsl r0
    2a18:	1a000000 	bne	2a20 <__code_start__-0x55e0>
    2a1c:	00000895 	muleq	r0, r5, r8
    2a20:	0000980c 	andeq	r9, r0, ip, lsl #16
    2a24:	02a80000 	adceq	r0, r8, #0, 0
    2a28:	d6010000 	strle	r0, [r1], -r0
    2a2c:	00078909 	andeq	r8, r7, r9, lsl #18
    2a30:	08be1b00 	ldmeq	lr!, {r8, r9, fp, ip}
    2a34:	17bc0000 	ldrne	r0, [ip, r0]!
    2a38:	17b80000 	ldrne	r0, [r8, r0]!
    2a3c:	e01b0000 	ands	r0, fp, r0
    2a40:	e2000008 	and	r0, r0, #8, 0
    2a44:	de000017 	mcrle	0, 0, r0, cr0, cr7, {0}
    2a48:	1b000017 	blne	2aac <__code_start__-0x5554>
    2a4c:	000008d4 	ldrdeq	r0, [r0], -r4
    2a50:	00001806 	andeq	r1, r0, r6, lsl #16
    2a54:	00001802 	andeq	r1, r0, r2, lsl #16
    2a58:	0008c81c 	andeq	ip, r8, ip, lsl r8
    2a5c:	08b21b00 	ldmeq	r2!, {r8, r9, fp, ip}
    2a60:	182a0000 	stmdane	sl!, {}	; <UNPREDICTABLE>
    2a64:	18240000 	stmdane	r4!, {}	; <UNPREDICTABLE>
    2a68:	a61b0000 	ldrge	r0, [fp], -r0
    2a6c:	5d000008 	stcpl	0, cr0, [r0, #-32]	; 0xffffffe0
    2a70:	59000018 	stmdbpl	r0, {r3, r4}
    2a74:	13000018 	movwne	r0, #24
    2a78:	000002a8 	andeq	r0, r0, r8, lsr #5
    2a7c:	0008ec1d 	andeq	lr, r8, sp, lsl ip
    2a80:	d8910300 	ldmle	r1, {r8, r9}
    2a84:	08f81e7e 	ldmeq	r8!, {r1, r2, r3, r4, r5, r6, r9, sl, fp, ip}^
    2a88:	18870000 	stmne	r7, {}	; <UNPREDICTABLE>
    2a8c:	187d0000 	ldmdane	sp!, {}^	; <UNPREDICTABLE>
    2a90:	021e0000 	andseq	r0, lr, #0, 0
    2a94:	cc000009 	stcgt	0, cr0, [r0], {9}
    2a98:	c8000018 	stmdagt	r0, {r3, r4}
    2a9c:	1a000018 	bne	2b04 <__code_start__-0x54fc>
    2aa0:	000009a3 	andeq	r0, r0, r3, lsr #19
    2aa4:	00009828 	andeq	r9, r0, r8, lsr #16
    2aa8:	02c80003 	sbceq	r0, r8, #3, 0
    2aac:	7c010000 	stcvc	0, cr0, [r1], {-0}
    2ab0:	00072009 	andeq	r2, r7, r9
    2ab4:	09ca1b00 	stmibeq	sl, {r8, r9, fp, ip}^
    2ab8:	18ee0000 	stmiane	lr!, {}^	; <UNPREDICTABLE>
    2abc:	18ea0000 	stmiane	sl!, {}^	; <UNPREDICTABLE>
    2ac0:	be1b0000 	cdplt	0, 1, cr0, cr11, cr0, {0}
    2ac4:	10000009 	andne	r0, r0, r9
    2ac8:	0c000019 	stceq	0, cr0, [r0], {25}
    2acc:	1b000019 	blne	2b38 <__code_start__-0x54c8>
    2ad0:	000009b4 			; <UNDEFINED> instruction: 0x000009b4
    2ad4:	0000193a 	andeq	r1, r0, sl, lsr r9
    2ad8:	0000192e 	andeq	r1, r0, lr, lsr #18
    2adc:	0002c813 	andeq	ip, r2, r3, lsl r8
    2ae0:	09d61e00 	ldmibeq	r6, {r9, sl, fp, ip}^
    2ae4:	19960000 	ldmibne	r6, {}	; <UNPREDICTABLE>
    2ae8:	198a0000 	stmibne	sl, {}	; <UNPREDICTABLE>
    2aec:	00000000 	andeq	r0, r0, r0
    2af0:	00094f20 	andeq	r4, r9, r0, lsr #30
    2af4:	0098b000 	addseq	fp, r8, r0
    2af8:	f0000200 			; <UNDEFINED> instruction: 0xf0000200
    2afc:	01000002 	tsteq	r0, r2
    2b00:	801b097c 	andshi	r0, fp, ip, ror r9
    2b04:	e6000009 	str	r0, [r0], -r9
    2b08:	e2000019 	and	r0, r0, #25, 0
    2b0c:	1b000019 	blne	2b78 <__code_start__-0x5488>
    2b10:	00000976 	andeq	r0, r0, r6, ror r9
    2b14:	00001a0e 	andeq	r1, r0, lr, lsl #20
    2b18:	00001a04 	andeq	r1, r0, r4, lsl #20
    2b1c:	00096c1b 	andeq	r6, r9, fp, lsl ip
    2b20:	001a5a00 	andseq	r5, sl, r0, lsl #20
    2b24:	001a5600 	andseq	r5, sl, r0, lsl #12
    2b28:	09601b00 	stmdbeq	r0!, {r8, r9, fp, ip}^
    2b2c:	1a880000 	bne	fe202b34 <__bss_end__+0xfe1f783c>
    2b30:	1a7c0000 	bne	1f02b38 <__bss_end__+0x1ef7840>
    2b34:	f0130000 			; <UNDEFINED> instruction: 0xf0130000
    2b38:	1e000002 	cdpne	0, 0, cr0, cr0, cr2, {0}
    2b3c:	0000098c 	andeq	r0, r0, ip, lsl #19
    2b40:	00001ae2 	andeq	r1, r0, r2, ror #21
    2b44:	00001ade 	ldrdeq	r1, [r0], -lr
    2b48:	0009981e 	andeq	r9, r9, lr, lsl r8
    2b4c:	001b0800 	andseq	r0, fp, r0, lsl #16
    2b50:	001b0400 	andseq	r0, fp, r0, lsl #8
    2b54:	00000000 	andeq	r0, r0, r0
    2b58:	95dc1700 	ldrbls	r1, [ip, #1792]	; 0x700
    2b5c:	0aa40000 	beq	fe902b64 <__bss_end__+0xfe8f786c>
    2b60:	07af0000 	streq	r0, [pc, r0]!
    2b64:	01180000 	tsteq	r8, r0
    2b68:	18400150 	stmdane	r0, {r4, r6, r8}^
    2b6c:	91035101 	tstls	r3, r1, lsl #2
    2b70:	01187dd0 			; <UNDEFINED> instruction: 0x01187dd0
    2b74:	00750253 	rsbseq	r0, r5, r3, asr r2
    2b78:	007d0218 	rsbseq	r0, sp, r8, lsl r2
    2b7c:	17003001 	strne	r3, [r0, -r1]
    2b80:	000096ec 	andeq	r9, r0, ip, ror #13
    2b84:	00000aa4 	andeq	r0, r0, r4, lsr #21
    2b88:	000007cf 	andeq	r0, r0, pc, asr #15
    2b8c:	01500118 	cmpeq	r0, r8, lsl r1
    2b90:	5101183a 	tstpl	r1, sl, lsr r8
    2b94:	7dd09103 	ldfvcp	f1, [r0, #12]
    2b98:	02530118 	subseq	r0, r3, #6
    2b9c:	17000075 	smlsdxne	r0, r5, r0, r0
    2ba0:	000099d0 	ldrdeq	r9, [r0], -r0
    2ba4:	00000c46 	andeq	r0, r0, r6, asr #24
    2ba8:	000007e6 	andeq	r0, r0, r6, ror #15
    2bac:	05500118 	ldrbeq	r0, [r0, #-280]	; 0xfffffee8
    2bb0:	00ac3c03 	adceq	r3, ip, r3, lsl #24
    2bb4:	e0210000 	eor	r0, r1, r0
    2bb8:	f8000099 			; <UNDEFINED> instruction: 0xf8000099
    2bbc:	18000007 	stmdane	r0, {r0, r1, r2}
    2bc0:	91045001 	tstls	r4, r1
    2bc4:	00067dc8 	andeq	r7, r6, r8, asr #27
    2bc8:	0099f417 	addseq	pc, r9, r7, lsl r4	; <UNPREDICTABLE>
    2bcc:	000c4600 	andeq	r4, ip, r0, lsl #12
    2bd0:	00082700 	andeq	r2, r8, r0, lsl #14
    2bd4:	50011800 	andpl	r1, r1, r0, lsl #16
    2bd8:	ac6c0305 	stclge	3, cr0, [ip], #-20	; 0xffffffec
    2bdc:	01180000 	tsteq	r8, r0
    2be0:	4c030551 	cfstr32mi	mvfx0, [r3], {81}	; 0x51
    2be4:	180000ab 	stmdane	r0, {r0, r1, r3, r5, r7}
    2be8:	03055201 	movweq	r5, #20993	; 0x5201
    2bec:	0000aca4 	andeq	sl, r0, r4, lsr #25
    2bf0:	02530118 	subseq	r0, r3, #6
    2bf4:	1900e208 	stmdbne	r0, {r3, r9, sp, lr, pc}
    2bf8:	000099f8 	strdeq	r9, [r0], -r8
    2bfc:	00000c76 	andeq	r0, r0, r6, ror ip
    2c00:	009a0c17 	addseq	r0, sl, r7, lsl ip
    2c04:	000c4600 	andeq	r4, ip, r0, lsl #12
    2c08:	00085f00 	andeq	r5, r8, r0, lsl #30
    2c0c:	50011800 	andpl	r1, r1, r0, lsl #16
    2c10:	ac140305 	ldcge	3, cr0, [r4], {5}
    2c14:	01180000 	tsteq	r8, r0
    2c18:	4c030551 	cfstr32mi	mvfx0, [r3], {81}	; 0x51
    2c1c:	180000ab 	stmdane	r0, {r0, r1, r3, r5, r7}
    2c20:	03055201 	movweq	r5, #20993	; 0x5201
    2c24:	0000aca4 	andeq	sl, r0, r4, lsr #25
    2c28:	02530118 	subseq	r0, r3, #6
    2c2c:	1900be08 	stmdbne	r0, {r3, r9, sl, fp, ip, sp, pc}
    2c30:	00009a10 	andeq	r9, r0, r0, lsl sl
    2c34:	00000c76 	andeq	r0, r0, r6, ror ip
    2c38:	04080000 	streq	r0, [r8], #-0
    2c3c:	000000b9 	strheq	r0, [r0], -r9
    2c40:	0000c022 	andeq	ip, r0, r2, lsr #32
    2c44:	00088000 	andeq	r8, r8, r0
    2c48:	002c2300 	eoreq	r2, ip, r0, lsl #6
    2c4c:	00090000 	andeq	r0, r9, r0
    2c50:	00087009 	andeq	r7, r8, r9
    2c54:	00b92200 	adcseq	r2, r9, r0, lsl #4
    2c58:	08950000 	ldmeq	r5, {}	; <UNPREDICTABLE>
    2c5c:	2c230000 	stccs	0, cr0, [r3], #-0
    2c60:	7f000000 	svcvc	0x00000000
    2c64:	07162400 	ldreq	r2, [r6, -r0, lsl #8]
    2c68:	49010000 	stmdbmi	r1, {}	; <UNPREDICTABLE>
    2c6c:	00086a01 	andeq	r6, r8, r1, lsl #20
    2c70:	092a0100 	stmdbeq	sl!, {r8}
    2c74:	71250000 			; <UNDEFINED> instruction: 0x71250000
    2c78:	01000003 	tsteq	r0, r3
    2c7c:	002c0f49 	eoreq	r0, ip, r9, asr #30
    2c80:	64260000 	strtvs	r0, [r6], #-0
    2c84:	01007473 	tsteq	r0, r3, ror r4
    2c88:	086a1b49 	stmdaeq	sl!, {r0, r3, r6, r8, r9, fp, ip}^
    2c8c:	6e260000 	cdpvs	0, 2, cr0, cr6, cr0, {0}
    2c90:	24490100 	strbcs	r0, [r9], #-256	; 0xffffff00
    2c94:	00000033 	andeq	r0, r0, r3, lsr r0
    2c98:	6c617626 	stclvs	6, cr7, [r1], #-152	; 0xffffff68
    2c9c:	2b490100 	blcs	12430a4 <__bss_end__+0x1237dac>
    2ca0:	00000033 	andeq	r0, r0, r3, lsr r0
    2ca4:	0006bf25 	andeq	fp, r6, r5, lsr #30
    2ca8:	34490100 	strbcc	r0, [r9], #-256	; 0xffffff00
    2cac:	00000033 	andeq	r0, r0, r3, lsr r0
    2cb0:	00074c25 	andeq	r4, r7, r5, lsr #24
    2cb4:	3f490100 	svccc	0x00490100
    2cb8:	00000033 	andeq	r0, r0, r3, lsr r0
    2cbc:	66756227 	ldrbtvs	r6, [r5], -r7, lsr #4
    2cc0:	074e0100 	strbeq	r0, [lr, -r0, lsl #2]
    2cc4:	0000092a 	andeq	r0, r0, sl, lsr #18
    2cc8:	01007027 	tsteq	r0, r7, lsr #32
    2ccc:	086a114e 	stmdaeq	sl!, {r1, r2, r3, r6, r8, ip}^
    2cd0:	75270000 	strvc	r0, [r7, #-0]!
    2cd4:	0b4f0100 	bleq	13c30dc <__bss_end__+0x13b7de4>
    2cd8:	0000002c 	andeq	r0, r0, ip, lsr #32
    2cdc:	0001bb12 	andeq	fp, r1, r2, lsl fp
    2ce0:	00094a00 	andeq	r4, r9, r0, lsl #20
    2ce4:	8c030500 	cfstr32hi	mvfx0, [r3], {-0}
    2ce8:	280000ac 	stmdacs	r0, {r2, r3, r5, r7}
    2cec:	00070329 	andeq	r0, r7, r9, lsr #6
    2cf0:	0d540100 	ldfeqe	f0, [r4, #-0]
    2cf4:	0000002c 	andeq	r0, r0, ip, lsr #32
    2cf8:	b9220000 	stmdblt	r2!, {}	; <UNPREDICTABLE>
    2cfc:	3a000000 	bcc	2d04 <__code_start__-0x52fc>
    2d00:	23000009 	movwcs	r0, #9
    2d04:	0000002c 	andeq	r0, r0, ip, lsr #32
    2d08:	c022003f 	eorgt	r0, r2, pc, lsr r0
    2d0c:	4a000000 	bmi	2d14 <__code_start__-0x52ec>
    2d10:	23000009 	movwcs	r0, #9
    2d14:	0000002c 	andeq	r0, r0, ip, lsr #32
    2d18:	3a090004 	bcc	242d30 <__bss_end__+0x237a38>
    2d1c:	24000009 	strcs	r0, [r0], #-9
    2d20:	0000071b 	andeq	r0, r0, fp, lsl r7
    2d24:	6a0e3801 	bvs	390d30 <__bss_end__+0x385a38>
    2d28:	01000008 	tsteq	r0, r8
    2d2c:	000009a3 	andeq	r0, r0, r3, lsr #19
    2d30:	74736426 	ldrbtvc	r6, [r3], #-1062	; 0xfffffbda
    2d34:	1c380100 	ldfnes	f0, [r8], #-0
    2d38:	0000086a 	andeq	r0, r0, sl, ror #16
    2d3c:	01006e26 	tsteq	r0, r6, lsr #28
    2d40:	00332538 	eorseq	r2, r3, r8, lsr r5
    2d44:	70260000 	eorvc	r0, r6, r0
    2d48:	2e380100 	rsfcse	f0, f0, f0
    2d4c:	0000086a 	andeq	r0, r0, sl, ror #16
    2d50:	000ae625 	andeq	lr, sl, r5, lsr #12
    2d54:	37380100 	ldrcc	r0, [r8, -r0, lsl #2]!
    2d58:	0000086a 	andeq	r0, r0, sl, ror #16
    2d5c:	6e656c27 	cdpvs	12, 6, cr6, cr5, cr7, {1}
    2d60:	063a0100 	ldrteq	r0, [sl], -r0, lsl #2
    2d64:	00000033 	andeq	r0, r0, r3, lsr r0
    2d68:	01007327 	tsteq	r0, r7, lsr #6
    2d6c:	086a083e 	stmdaeq	sl!, {r1, r2, r3, r4, r5, fp}^
    2d70:	2a000000 	bcs	2d78 <__code_start__-0x5288>
    2d74:	00646170 	rsbeq	r6, r4, r0, ror r1
    2d78:	6a0e2e01 	bvs	38e584 <__bss_end__+0x38328c>
    2d7c:	01000008 	tsteq	r0, r8
    2d80:	000009e3 	andeq	r0, r0, r3, ror #19
    2d84:	01007026 	tsteq	r0, r6, lsr #32
    2d88:	086a182e 	stmdaeq	sl!, {r1, r2, r3, r5, fp, ip}^
    2d8c:	71250000 			; <UNDEFINED> instruction: 0x71250000
    2d90:	01000003 	tsteq	r0, r3
    2d94:	086a222e 	stmdaeq	sl!, {r1, r2, r3, r5, r9, sp}^
    2d98:	bf250000 	svclt	0x00250000
    2d9c:	01000006 	tsteq	r0, r6
    2da0:	00332c2e 	eorseq	r2, r3, lr, lsr #24
    2da4:	6c270000 	stcvs	0, cr0, [r7], #-0
    2da8:	01006e65 	tsteq	r0, r5, ror #28
    2dac:	0033062f 	eorseq	r0, r3, pc, lsr #12
    2db0:	24000000 	strcs	r0, [r0], #-0
    2db4:	0000068c 	andeq	r0, r0, ip, lsl #13
    2db8:	330c2701 	movwcc	r2, #50945	; 0xc701
    2dbc:	01000000 	mrseq	r0, (UNDEF: 0)
    2dc0:	000009ff 	strdeq	r0, [r0], -pc	; <UNPREDICTABLE>
    2dc4:	01006326 	tsteq	r0, r6, lsr #6
    2dc8:	00331827 	eorseq	r1, r3, r7, lsr #16
    2dcc:	2b000000 	blcs	2dd4 <__code_start__-0x522c>
    2dd0:	000006dc 	ldrdeq	r0, [r0], -ip
    2dd4:	28061f01 	stmdacs	r6, {r0, r8, r9, sl, fp, ip}
    2dd8:	60000094 	mulvs	r0, r4, r0
    2ddc:	01000000 	mrseq	r0, (UNDEF: 0)
    2de0:	000a8f9c 	muleq	sl, ip, pc	; <UNPREDICTABLE>
    2de4:	06c50f00 	strbeq	r0, [r5], r0, lsl #30
    2de8:	1f010000 	svcne	0x00010000
    2dec:	00009e1b 	andeq	r9, r0, fp, lsl lr
    2df0:	001b2d00 	andseq	r2, fp, r0, lsl #26
    2df4:	001b2900 	andseq	r2, fp, r0, lsl #18
    2df8:	072a0f00 	streq	r0, [sl, -r0, lsl #30]!
    2dfc:	1f010000 	svcne	0x00010000
    2e00:	0000d130 	andeq	sp, r0, r0, lsr r1
    2e04:	001b5200 	andseq	r5, fp, r0, lsl #4
    2e08:	001b4e00 	andseq	r4, fp, r0, lsl #28
    2e0c:	01bb1200 			; <UNDEFINED> instruction: 0x01bb1200
    2e10:	0a9f0000 	beq	fe7c2e18 <__bss_end__+0xfe7b7b20>
    2e14:	03050000 	movweq	r0, #20480	; 0x5000
    2e18:	0000ac94 	muleq	r0, r4, ip
    2e1c:	00946c17 	addseq	r6, r4, r7, lsl ip
    2e20:	000c4600 	andeq	r4, ip, r0, lsl #12
    2e24:	000a8500 	andeq	r8, sl, r0, lsl #10
    2e28:	50011800 	andpl	r1, r1, r0, lsl #16
    2e2c:	a7140305 	ldrge	r0, [r4, -r5, lsl #6]
    2e30:	01180000 	tsteq	r8, r0
    2e34:	4c030551 	cfstr32mi	mvfx0, [r3], {81}	; 0x51
    2e38:	180000ab 	stmdane	r0, {r0, r1, r3, r5, r7}
    2e3c:	03055201 	movweq	r5, #20993	; 0x5201
    2e40:	0000ac94 	muleq	r0, r4, ip
    2e44:	02530118 	subseq	r0, r3, #6
    2e48:	02182008 	andseq	r2, r8, #8, 0
    2e4c:	0305007d 	movweq	r0, #20605	; 0x507d
    2e50:	0000ab84 	andeq	sl, r0, r4, lsl #23
    2e54:	94701900 	ldrbtls	r1, [r0], #-2304	; 0xfffff700
    2e58:	0c760000 	ldcleq	0, cr0, [r6], #-0
    2e5c:	22000000 	andcs	r0, r0, #0, 0
    2e60:	000000c0 	andeq	r0, r0, r0, asr #1
    2e64:	00000a9f 	muleq	r0, pc, sl	; <UNPREDICTABLE>
    2e68:	00002c23 	andeq	r2, r0, r3, lsr #24
    2e6c:	09000e00 	stmdbeq	r0, {r9, sl, fp}
    2e70:	00000a8f 	andeq	r0, r0, pc, lsl #21
    2e74:	0008952c 	andeq	r9, r8, ip, lsr #10
    2e78:	00910000 	addseq	r0, r1, r0
    2e7c:	00032800 	andeq	r2, r3, r0, lsl #16
    2e80:	3a9c0100 	bcc	fe703288 <__bss_end__+0xfe6f7f90>
    2e84:	1b00000c 	blne	2ebc <__code_start__-0x5144>
    2e88:	000008a6 	andeq	r0, r0, r6, lsr #17
    2e8c:	00001b8b 	andeq	r1, r0, fp, lsl #23
    2e90:	00001b73 	andeq	r1, r0, r3, ror fp
    2e94:	0008b21b 	andeq	fp, r8, fp, lsl r2
    2e98:	001c3500 	andseq	r3, ip, r0, lsl #10
    2e9c:	001c2d00 	andseq	r2, ip, r0, lsl #26
    2ea0:	08c81b00 	stmiaeq	r8, {r8, r9, fp, ip}^
    2ea4:	1c8c0000 	stcne	0, cr0, [ip], {0}
    2ea8:	1c6c0000 	stclne	0, cr0, [ip], #-0
    2eac:	d41b0000 	ldrle	r0, [fp], #-0
    2eb0:	62000008 	andvs	r0, r0, #8, 0
    2eb4:	5400001d 	strpl	r0, [r0], #-29	; 0xffffffe3
    2eb8:	2d00001d 	stccs	0, cr0, [r0, #-116]	; 0xffffff8c
    2ebc:	000008e0 	andeq	r0, r0, r0, ror #17
    2ec0:	1d009102 	stfned	f1, [r0, #-8]
    2ec4:	000008ec 	andeq	r0, r0, ip, ror #17
    2ec8:	7fa89103 	svcvc	0x00a89103
    2ecc:	0008f81e 	andeq	pc, r8, lr, lsl r8	; <UNPREDICTABLE>
    2ed0:	001df600 	andseq	pc, sp, r0, lsl #12
    2ed4:	001dc200 	andseq	ip, sp, r0, lsl #4
    2ed8:	09021e00 	stmdbeq	r2, {r9, sl, fp, ip}
    2edc:	1f5d0000 	svcne	0x005d0000
    2ee0:	1f3b0000 	svcne	0x003b0000
    2ee4:	be2e0000 	cdplt	0, 2, cr0, cr14, cr0, {0}
    2ee8:	80000008 	andhi	r0, r0, r8
    2eec:	0009a31a 	andeq	sl, r9, sl, lsl r3
    2ef0:	0091a400 	addseq	sl, r1, r0, lsl #8
    2ef4:	40000400 	andmi	r0, r0, r0, lsl #8
    2ef8:	01000001 	tsteq	r0, r1
    2efc:	0b6d097c 	bleq	1b454f4 <__bss_end__+0x1b3a1fc>
    2f00:	ca1b0000 	bgt	6c2f08 <__bss_end__+0x6b7c10>
    2f04:	45000009 	strmi	r0, [r0, #-9]
    2f08:	3b000020 	blcc	2f90 <__code_start__-0x5070>
    2f0c:	1b000020 	blne	2f94 <__code_start__-0x506c>
    2f10:	000009be 			; <UNDEFINED> instruction: 0x000009be
    2f14:	00002099 	muleq	r0, r9, r0
    2f18:	00002089 	andeq	r2, r0, r9, lsl #1
    2f1c:	0009b41b 	andeq	fp, r9, fp, lsl r4
    2f20:	00211900 	eoreq	r1, r1, r0, lsl #18
    2f24:	00210500 	eoreq	r0, r1, r0, lsl #10
    2f28:	01401300 	mrseq	r1, SPSR_irq
    2f2c:	d61e0000 	ldrle	r0, [lr], -r0
    2f30:	ab000009 	blge	2f5c <__code_start__-0x50a4>
    2f34:	9b000021 	blls	2fc0 <__code_start__-0x5040>
    2f38:	00000021 	andeq	r0, r0, r1, lsr #32
    2f3c:	094f1a00 	stmdbeq	pc, {r9, fp, ip}^	; <UNPREDICTABLE>
    2f40:	925c0000 	subsls	r0, ip, #0, 0
    2f44:	00020000 	andeq	r0, r2, r0
    2f48:	00000188 	andeq	r0, r0, r8, lsl #3
    2f4c:	d8097c01 	stmdale	r9, {r0, sl, fp, ip, sp, lr}
    2f50:	1b00000b 	blne	2f84 <__code_start__-0x507c>
    2f54:	00000980 	andeq	r0, r0, r0, lsl #19
    2f58:	00002217 	andeq	r2, r0, r7, lsl r2
    2f5c:	0000220f 	andeq	r2, r0, pc, lsl #4
    2f60:	0009761b 	andeq	r7, r9, fp, lsl r6
    2f64:	00225600 	eoreq	r5, r2, r0, lsl #12
    2f68:	00224e00 	eoreq	r4, r2, r0, lsl #28
    2f6c:	096c1b00 	stmdbeq	ip!, {r8, r9, fp, ip}^
    2f70:	22950000 	addscs	r0, r5, #0, 0
    2f74:	22910000 	addscs	r0, r1, #0, 0
    2f78:	601b0000 	andsvs	r0, fp, r0
    2f7c:	c5000009 	strgt	r0, [r0, #-9]
    2f80:	b7000022 	strlt	r0, [r0, -r2, lsr #32]
    2f84:	13000022 	movwne	r0, #34	; 0x22
    2f88:	00000188 	andeq	r0, r0, r8, lsl #3
    2f8c:	00098c1e 	andeq	r8, r9, lr, lsl ip
    2f90:	00232a00 	eoreq	r2, r3, r0, lsl #20
    2f94:	00232400 	eoreq	r2, r3, r0, lsl #8
    2f98:	09981e00 	ldmibeq	r8, {r9, sl, fp, ip}
    2f9c:	235c0000 	cmpcs	ip, #0, 0
    2fa0:	23580000 	cmpcs	r8, #0, 0
    2fa4:	00000000 	andeq	r0, r0, r0
    2fa8:	00091b2f 	andeq	r1, r9, pc, lsr #22
    2fac:	00931400 	addseq	r1, r3, r0, lsl #8
    2fb0:	00006000 	andeq	r6, r0, r0
    2fb4:	000bf700 	andeq	pc, fp, r0, lsl #14
    2fb8:	091c1e00 	ldmdbeq	ip, {r9, sl, fp, ip}
    2fbc:	237e0000 	cmncs	lr, #0, 0
    2fc0:	237a0000 	cmncs	sl, #0, 0
    2fc4:	17000000 	strne	r0, [r0, -r0]
    2fc8:	000093e8 	andeq	r9, r0, r8, ror #7
    2fcc:	00000c46 	andeq	r0, r0, r6, asr #24
    2fd0:	00000c30 	andeq	r0, r0, r0, lsr ip
    2fd4:	05500118 	ldrbeq	r0, [r0, #-280]	; 0xfffffee8
    2fd8:	00a71403 	adceq	r1, r7, r3, lsl #8
    2fdc:	51011800 	tstpl	r1, r0, lsl #16
    2fe0:	ab4c0305 	blge	1303bfc <__bss_end__+0x12f8904>
    2fe4:	01180000 	tsteq	r8, r0
    2fe8:	8c030552 	cfstr32hi	mvfx0, [r3], {82}	; 0x52
    2fec:	180000ac 	stmdane	r0, {r2, r3, r5, r7}
    2ff0:	08025301 	stmdaeq	r2, {r0, r8, r9, ip, lr}
    2ff4:	7d021879 	stcvc	8, cr1, [r2, #-484]	; 0xfffffe1c
    2ff8:	b4030500 	strlt	r0, [r3], #-1280	; 0xfffffb00
    2ffc:	000000a9 	andeq	r0, r0, r9, lsr #1
    3000:	0093ec19 	addseq	lr, r3, r9, lsl ip
    3004:	000c7600 	andeq	r7, ip, r0, lsl #12
    3008:	44300000 	ldrtmi	r0, [r0], #-0
    300c:	44000007 	strmi	r0, [r0], #-7
    3010:	03000007 	movweq	r0, #7
    3014:	3b3005eb 	blcc	c047c8 <__bss_end__+0xbf94d0>
    3018:	3b000006 	blcc	3038 <__code_start__-0x4fc8>
    301c:	03000006 	movweq	r0, #6
    3020:	f5300628 			; <UNDEFINED> instruction: 0xf5300628
    3024:	f5000006 			; <UNDEFINED> instruction: 0xf5000006
    3028:	03000006 	movweq	r0, #6
    302c:	233007ee 	teqcs	r0, #62390272	; 0x3b80000
    3030:	23000007 	movwcs	r0, #7
    3034:	03000007 	movweq	r0, #7
    3038:	fc3005ea 	ldc2	5, cr0, [r0], #-936	; 0xfffffc58
    303c:	fc000006 	stc2	0, cr0, [r0], {6}
    3040:	03000006 	movweq	r0, #6
    3044:	643007ed 	ldrtvs	r0, [r0], #-2029	; 0xfffff813
    3048:	64000000 	strvs	r0, [r0], #-0
    304c:	03000000 	movweq	r0, #0
    3050:	2f00066e 	svccs	0x0000066e
    3054:	04000001 	streq	r0, [r0], #-1
    3058:	000fa900 	andeq	sl, pc, r0, lsl #18
    305c:	13010400 	movwne	r0, #5120	; 0x1400
    3060:	0c000005 	stceq	0, cr0, [r0], {5}
    3064:	00000769 	andeq	r0, r0, r9, ror #14
    3068:	000005d9 	ldrdeq	r0, [r0], -r9
    306c:	00009ab4 			; <UNDEFINED> instruction: 0x00009ab4
    3070:	0000002c 	andeq	r0, r0, ip, lsr #32
    3074:	00001a50 	andeq	r1, r0, r0, asr sl
    3078:	69050402 	stmdbvs	r5, {r1, sl}
    307c:	0300746e 	movweq	r7, #1134	; 0x46e
    3080:	01e20704 	mvneq	r0, r4, lsl #14
    3084:	01030000 	mrseq	r0, (UNDEF: 3)
    3088:	00005806 	andeq	r5, r0, r6, lsl #16
    308c:	05020300 	streq	r0, [r2, #-768]	; 0xfffffd00
    3090:	00000222 	andeq	r0, r0, r2, lsr #4
    3094:	06050403 	streq	r0, [r5], -r3, lsl #8
    3098:	03000002 	movweq	r0, #2
    309c:	02010508 	andeq	r0, r1, #8, 10	; 0x2000000
    30a0:	01030000 	mrseq	r0, (UNDEF: 3)
    30a4:	00005608 	andeq	r5, r0, r8, lsl #12
    30a8:	07020300 	streq	r0, [r2, -r0, lsl #6]
    30ac:	00000071 	andeq	r0, r0, r1, ror r0
    30b0:	dd070403 	cfstrsle	mvf0, [r7, #-12]
    30b4:	03000001 	movweq	r0, #1
    30b8:	01d80708 	bicseq	r0, r8, r8, lsl #14
    30bc:	25040000 	strcs	r0, [r4, #-0]
    30c0:	7a000000 	bvc	30c8 <__code_start__-0x4f38>
    30c4:	05000000 	streq	r0, [r0, #-0]
    30c8:	00000025 	andeq	r0, r0, r5, lsr #32
    30cc:	020f0600 	andeq	r0, pc, #0, 12
    30d0:	1c020000 	stcne	0, cr0, [r2], {-0}
    30d4:	0000860e 	andeq	r8, r0, lr, lsl #12
    30d8:	6b040700 	blvs	104ce0 <__bss_end__+0xf99e8>
    30dc:	04000000 	streq	r0, [r0], #-0
    30e0:	00000025 	andeq	r0, r0, r5, lsr #32
    30e4:	0000009b 	muleq	r0, fp, r0
    30e8:	00009b05 	andeq	r9, r0, r5, lsl #22
    30ec:	04070000 	streq	r0, [r7], #-0
    30f0:	000000a8 	andeq	r0, r0, r8, lsr #1
    30f4:	5f080103 	svcpl	0x00080103
    30f8:	08000000 	stmdaeq	r0, {}	; <UNPREDICTABLE>
    30fc:	000000a1 	andeq	r0, r0, r1, lsr #1
    3100:	00067906 	andeq	r7, r6, r6, lsl #18
    3104:	0e210200 	cdpeq	2, 2, cr0, cr1, cr0, {0}
    3108:	000000b9 	strheq	r0, [r0], -r9
    310c:	008c0407 	addeq	r0, ip, r7, lsl #8
    3110:	64090000 	strvs	r0, [r9], #-0
    3114:	01000000 	mrseq	r0, (UNDEF: 0)
    3118:	9ab40604 	bls	fed04930 <__bss_end__+0xfecf9638>
    311c:	002c0000 	eoreq	r0, ip, r0
    3120:	9c010000 	stcls	0, cr0, [r1], {-0}
    3124:	0000010e 	andeq	r0, r0, lr, lsl #2
    3128:	009ac80a 	addseq	ip, sl, sl, lsl #16
    312c:	0000e800 	andeq	lr, r0, r0, lsl #16
    3130:	50010b00 	andpl	r0, r1, r0, lsl #22
    3134:	acb00305 	ldcge	3, cr0, [r0], #20
    3138:	0c000000 	stceq	0, cr0, [r0], {-0}
    313c:	00009acc 	andeq	r9, r0, ip, asr #21
    3140:	0000010e 	andeq	r0, r0, lr, lsl #2
    3144:	009ad40d 	addseq	sp, sl, sp, lsl #8
    3148:	00011a00 	andeq	r1, r1, r0, lsl #20
    314c:	00010400 	andeq	r0, r1, r0, lsl #8
    3150:	50010b00 	andpl	r0, r1, r0, lsl #22
    3154:	0c003a01 			; <UNDEFINED> instruction: 0x0c003a01
    3158:	00009ad8 	ldrdeq	r9, [r0], -r8
    315c:	00000126 	andeq	r0, r0, r6, lsr #2
    3160:	07840e00 	streq	r0, [r4, r0, lsl #28]
    3164:	07840000 	streq	r0, [r4, r0]
    3168:	4d020000 	stcmi	0, cr0, [r2, #-0]
    316c:	07600e06 	strbeq	r0, [r0, -r6, lsl #28]!
    3170:	07600000 	strbeq	r0, [r0, -r0]!
    3174:	58020000 	stmdapl	r2, {}	; <UNPREDICTABLE>
    3178:	07550e06 	ldrbeq	r0, [r5, -r6, lsl #28]
    317c:	07550000 	ldrbeq	r0, [r5, -r0]
    3180:	6b020000 	blvs	83188 <__bss_end__+0x77e90>
    3184:	01900006 	orrseq	r0, r0, r6
    3188:	00040000 	andeq	r0, r4, r0
    318c:	00001069 	andeq	r1, r0, r9, rrx
    3190:	05130104 	ldreq	r0, [r3, #-260]	; 0xfffffefc
    3194:	ba0c0000 	blt	30319c <__bss_end__+0x2f7ea4>
    3198:	d9000007 	stmdble	r0, {r0, r1, r2}
    319c:	e0000005 	and	r0, r0, r5
    31a0:	f800009a 			; <UNDEFINED> instruction: 0xf800009a
    31a4:	db000000 	blle	31ac <__code_start__-0x4e54>
    31a8:	0200001a 	andeq	r0, r0, #26, 0
    31ac:	6e690504 	cdpvs	5, 6, cr0, cr9, cr4, {0}
    31b0:	04030074 	streq	r0, [r3], #-116	; 0xffffff8c
    31b4:	0001e207 	andeq	lr, r1, r7, lsl #4
    31b8:	06010300 	streq	r0, [r1], -r0, lsl #6
    31bc:	00000058 	andeq	r0, r0, r8, asr r0
    31c0:	22050203 	andcs	r0, r5, #805306368	; 0x30000000
    31c4:	03000002 	movweq	r0, #2
    31c8:	02060504 	andeq	r0, r6, #4, 10	; 0x1000000
    31cc:	08030000 	stmdaeq	r3, {}	; <UNPREDICTABLE>
    31d0:	00020105 	andeq	r0, r2, r5, lsl #2
    31d4:	08010300 	stmdaeq	r1, {r8, r9}
    31d8:	00000056 	andeq	r0, r0, r6, asr r0
    31dc:	71070203 	tstvc	r7, r3, lsl #4
    31e0:	03000000 	movweq	r0, #0
    31e4:	01dd0704 	bicseq	r0, sp, r4, lsl #14
    31e8:	08030000 	stmdaeq	r3, {}	; <UNPREDICTABLE>
    31ec:	0001d807 	andeq	sp, r1, r7, lsl #16
    31f0:	00250400 	eoreq	r0, r5, r0, lsl #8
    31f4:	007a0000 	rsbseq	r0, sl, r0
    31f8:	25050000 	strcs	r0, [r5, #-0]
    31fc:	00000000 	andeq	r0, r0, r0
    3200:	00020f06 	andeq	r0, r2, r6, lsl #30
    3204:	0e1c0200 	cdpeq	2, 1, cr0, cr12, cr0, {0}
    3208:	00000086 	andeq	r0, r0, r6, lsl #1
    320c:	006b0407 	rsbeq	r0, fp, r7, lsl #8
    3210:	25040000 	strcs	r0, [r4, #-0]
    3214:	9b000000 	blls	321c <__code_start__-0x4de4>
    3218:	05000000 	streq	r0, [r0, #-0]
    321c:	0000009b 	muleq	r0, fp, r0
    3220:	a8040700 	stmdage	r4, {r8, r9, sl}
    3224:	03000000 	movweq	r0, #0
    3228:	005f0801 	subseq	r0, pc, r1, lsl #16
    322c:	a1080000 	mrsge	r0, (UNDEF: 8)
    3230:	06000000 	streq	r0, [r0], -r0
    3234:	00000679 	andeq	r0, r0, r9, ror r6
    3238:	b90e2102 	stmdblt	lr, {r1, r8, sp}
    323c:	07000000 	streq	r0, [r0, -r0]
    3240:	00008c04 	andeq	r8, r0, r4, lsl #24
    3244:	07920900 	ldreq	r0, [r2, r0, lsl #18]
    3248:	04010000 	streq	r0, [r1], #-0
    324c:	009ae006 	addseq	lr, sl, r6
    3250:	0000f800 	andeq	pc, r0, r0, lsl #16
    3254:	5b9c0100 	blpl	fe70365c <__bss_end__+0xfe6f8364>
    3258:	06000001 	streq	r0, [r0], -r1
    325c:	000003b2 			; <UNDEFINED> instruction: 0x000003b2
    3260:	25100501 	ldrcs	r0, [r0, #-1281]	; 0xfffffaff
    3264:	06000000 	streq	r0, [r0], -r0
    3268:	00000484 	andeq	r0, r0, r4, lsl #9
    326c:	251f0501 	ldrcs	r0, [pc, #-1281]	; 2d73 <__code_start__-0x528d>
    3270:	0a000000 	beq	3278 <__code_start__-0x4d88>
    3274:	0000002d 	andeq	r0, r0, sp, lsr #32
    3278:	0b070601 	bleq	1c4a84 <__bss_end__+0x1b978c>
    327c:	00737362 	rsbseq	r7, r3, r2, ror #6
    3280:	5b0a0a01 	blpl	285a8c <__bss_end__+0x27a794>
    3284:	b6000001 	strlt	r0, [r0], -r1
    3288:	9e000023 	cdpls	0, 0, cr0, cr0, cr3, {1}
    328c:	0c000023 	stceq	0, cr0, [r0], {35}	; 0x23
    3290:	0000079a 	muleq	r0, sl, r7
    3294:	5b0a0b01 	blpl	285ea0 <__bss_end__+0x27aba8>
    3298:	0d000001 	stceq	0, cr0, [r0, #-4]
    329c:	00009bb8 			; <UNDEFINED> instruction: 0x00009bb8
    32a0:	00000008 	andeq	r0, r0, r8
    32a4:	00000136 	andeq	r0, r0, r6, lsr r1
    32a8:	006e690b 	rsbeq	r6, lr, fp, lsl #18
    32ac:	2c051401 	cfstrscs	mvf1, [r5], {1}
    32b0:	50000000 	andpl	r0, r0, r0
    32b4:	4e000024 	cdpmi	0, 0, cr0, cr0, cr4, {1}
    32b8:	00000024 	andeq	r0, r0, r4, lsr #32
    32bc:	009ae80e 	addseq	lr, sl, lr, lsl #16
    32c0:	00016100 	andeq	r6, r1, r0, lsl #2
    32c4:	9bb80e00 	blls	fee06acc <__bss_end__+0xfedfb7d4>
    32c8:	016e0000 	cmneq	lr, r0
    32cc:	c40e0000 	strgt	r0, [lr], #-0
    32d0:	7a00009b 	bvc	3544 <__code_start__-0x4abc>
    32d4:	0e000001 	cdpeq	0, 0, cr0, cr0, cr1, {0}
    32d8:	00009bc8 	andeq	r9, r0, r8, asr #23
    32dc:	00000187 	andeq	r0, r0, r7, lsl #3
    32e0:	25040700 	strcs	r0, [r4, #-1792]	; 0xfffff900
    32e4:	0f000000 	svceq	0x00000000
    32e8:	000007ac 	andeq	r0, r0, ip, lsr #15
    32ec:	000007ac 	andeq	r0, r0, ip, lsr #15
    32f0:	06013102 	streq	r3, [r1], -r2, lsl #2
    32f4:	0007a210 	andeq	sl, r7, r0, lsl r2
    32f8:	0007a200 	andeq	sl, r7, r0, lsl #4
    32fc:	063b0200 	ldrteq	r0, [fp], -r0, lsl #4
    3300:	00002d0f 	andeq	r2, r0, pc, lsl #26
    3304:	00002d00 	andeq	r2, r0, r0, lsl #26
    3308:	01050200 	mrseq	r0, SP_usr
    330c:	00641006 	rsbeq	r1, r4, r6
    3310:	00640000 	rsbeq	r0, r4, r0
    3314:	6e020000 	cdpvs	0, 0, cr0, cr2, cr0, {0}
    3318:	00ce0006 	sbceq	r0, lr, r6
    331c:	00040000 	andeq	r0, r4, r0
    3320:	00001154 	andeq	r1, r0, r4, asr r1
    3324:	05130104 	ldreq	r0, [r3, #-260]	; 0xfffffefc
    3328:	cf0c0000 	svcgt	0x000c0000
    332c:	d9000007 	stmdble	r0, {r0, r1, r2}
    3330:	d8000005 	stmdale	r0, {r0, r2}
    3334:	0400009b 	streq	r0, [r0], #-155	; 0xffffff65
    3338:	f1000000 	cps	#0
    333c:	0200001b 	andeq	r0, r0, #27, 0
    3340:	6e690504 	cdpvs	5, 6, cr0, cr9, cr4, {0}
    3344:	04030074 	streq	r0, [r3], #-116	; 0xffffff8c
    3348:	0001e207 	andeq	lr, r1, r7, lsl #4
    334c:	06010300 	streq	r0, [r1], -r0, lsl #6
    3350:	00000058 	andeq	r0, r0, r8, asr r0
    3354:	22050203 	andcs	r0, r5, #805306368	; 0x30000000
    3358:	03000002 	movweq	r0, #2
    335c:	02060504 	andeq	r0, r6, #4, 10	; 0x1000000
    3360:	08030000 	stmdaeq	r3, {}	; <UNPREDICTABLE>
    3364:	00020105 	andeq	r0, r2, r5, lsl #2
    3368:	08010300 	stmdaeq	r1, {r8, r9}
    336c:	00000056 	andeq	r0, r0, r6, asr r0
    3370:	71070203 	tstvc	r7, r3, lsl #4
    3374:	03000000 	movweq	r0, #0
    3378:	01dd0704 	bicseq	r0, sp, r4, lsl #14
    337c:	08030000 	stmdaeq	r3, {}	; <UNPREDICTABLE>
    3380:	0001d807 	andeq	sp, r1, r7, lsl #16
    3384:	00250400 	eoreq	r0, r5, r0, lsl #8
    3388:	007a0000 	rsbseq	r0, sl, r0
    338c:	25050000 	strcs	r0, [r5, #-0]
    3390:	00000000 	andeq	r0, r0, r0
    3394:	00020f06 	andeq	r0, r2, r6, lsl #30
    3398:	0e1c0200 	cdpeq	2, 1, cr0, cr12, cr0, {0}
    339c:	00000086 	andeq	r0, r0, r6, lsl #1
    33a0:	006b0407 	rsbeq	r0, fp, r7, lsl #8
    33a4:	25040000 	strcs	r0, [r4, #-0]
    33a8:	9b000000 	blls	33b0 <__code_start__-0x4c50>
    33ac:	05000000 	streq	r0, [r0, #-0]
    33b0:	0000009b 	muleq	r0, fp, r0
    33b4:	a8040700 	stmdage	r4, {r8, r9, sl}
    33b8:	03000000 	movweq	r0, #0
    33bc:	005f0801 	subseq	r0, pc, r1, lsl #16
    33c0:	a1080000 	mrsge	r0, (UNDEF: 8)
    33c4:	06000000 	streq	r0, [r0], -r0
    33c8:	00000679 	andeq	r0, r0, r9, ror r6
    33cc:	b90e2102 	stmdblt	lr, {r1, r8, sp}
    33d0:	07000000 	streq	r0, [r0, -r0]
    33d4:	00008c04 	andeq	r8, r0, r4, lsl #24
    33d8:	07ac0900 	streq	r0, [ip, r0, lsl #18]!
    33dc:	04010000 	streq	r0, [r1], #-0
    33e0:	009bd806 	addseq	sp, fp, r6, lsl #16
    33e4:	00000400 	andeq	r0, r0, r0, lsl #8
    33e8:	009c0100 	addseq	r0, ip, r0, lsl #2
    33ec:	0000027d 	andeq	r0, r0, sp, ror r2
    33f0:	11cd0004 	bicne	r0, sp, r4
    33f4:	01040000 	mrseq	r0, (UNDEF: 4)
    33f8:	00000513 	andeq	r0, r0, r3, lsl r5
    33fc:	0008170c 	andeq	r1, r8, ip, lsl #14
    3400:	0005d900 	andeq	sp, r5, r0, lsl #18
    3404:	00033000 	andeq	r3, r3, r0
    3408:	00000000 	andeq	r0, r0, r0
    340c:	001c7200 	andseq	r7, ip, r0, lsl #4
    3410:	05040200 	streq	r0, [r4, #-512]	; 0xfffffe00
    3414:	00746e69 	rsbseq	r6, r4, r9, ror #28
    3418:	00002503 	andeq	r2, r0, r3, lsl #10
    341c:	07040400 	streq	r0, [r4, -r0, lsl #8]
    3420:	000001e2 	andeq	r0, r0, r2, ror #3
    3424:	58060104 	stmdapl	r6, {r2, r8}
    3428:	04000000 	streq	r0, [r0], #-0
    342c:	02220502 	eoreq	r0, r2, #8388608	; 0x800000
    3430:	04040000 	streq	r0, [r4], #-0
    3434:	00020605 	andeq	r0, r2, r5, lsl #12
    3438:	05080400 	streq	r0, [r8, #-1024]	; 0xfffffc00
    343c:	00000201 	andeq	r0, r0, r1, lsl #4
    3440:	56080104 	strpl	r0, [r8], -r4, lsl #2
    3444:	04000000 	streq	r0, [r0], #-0
    3448:	00710702 	rsbseq	r0, r1, r2, lsl #14
    344c:	04040000 	streq	r0, [r4], #-0
    3450:	0001dd07 	andeq	sp, r1, r7, lsl #26
    3454:	07080400 	streq	r0, [r8, -r0, lsl #8]
    3458:	000001d8 	ldrdeq	r0, [r0], -r8
    345c:	00002505 	andeq	r2, r0, r5, lsl #10
    3460:	00007f00 	andeq	r7, r0, r0, lsl #30
    3464:	00250600 	eoreq	r0, r5, r0, lsl #12
    3468:	07000000 	streq	r0, [r0, -r0]
    346c:	0000020f 	andeq	r0, r0, pc, lsl #4
    3470:	8b0e1c02 	blhi	38a480 <__bss_end__+0x37f188>
    3474:	08000000 	stmdaeq	r0, {}	; <UNPREDICTABLE>
    3478:	00007004 	andeq	r7, r0, r4
    347c:	00250500 	eoreq	r0, r5, r0, lsl #10
    3480:	00a00000 	adceq	r0, r0, r0
    3484:	a0060000 	andge	r0, r6, r0
    3488:	00000000 	andeq	r0, r0, r0
    348c:	00ad0408 	adceq	r0, sp, r8, lsl #8
    3490:	01040000 	mrseq	r0, (UNDEF: 4)
    3494:	00005f08 	andeq	r5, r0, r8, lsl #30
    3498:	00a60300 	adceq	r0, r6, r0, lsl #6
    349c:	79070000 	stmdbvc	r7, {}	; <UNPREDICTABLE>
    34a0:	02000006 	andeq	r0, r0, #6, 0
    34a4:	00be0e21 	adcseq	r0, lr, r1, lsr #28
    34a8:	04080000 	streq	r0, [r8], #-0
    34ac:	00000091 	muleq	r0, r1, r0
    34b0:	00083b09 	andeq	r3, r8, r9, lsl #22
    34b4:	110d0100 	mrsne	r0, (UNDEF: 29)
    34b8:	00000031 	andeq	r0, r0, r1, lsr r0
    34bc:	0007550a 	andeq	r5, r7, sl, lsl #10
    34c0:	061f0100 	ldreq	r0, [pc], -r0, lsl #2
    34c4:	00009c08 	andeq	r9, r0, r8, lsl #24
    34c8:	00000060 	andeq	r0, r0, r0, rrx
    34cc:	01d59c01 	bicseq	r9, r5, r1, lsl #24
    34d0:	5f0b0000 	svcpl	0x000b0000
    34d4:	01000008 	tsteq	r0, r8
    34d8:	002c0f2c 	eoreq	r0, ip, ip, lsr #30
    34dc:	001c0000 	andseq	r0, ip, r0
    34e0:	fa0b2010 	blx	2cb528 <__bss_end__+0x2c0230>
    34e4:	01000007 	tsteq	r0, r7
    34e8:	002c0f2d 	eoreq	r0, ip, sp, lsr #30
    34ec:	00240000 	eoreq	r0, r4, r0
    34f0:	2c0b2010 	stccs	0, cr2, [fp], {16}
    34f4:	01000008 	tsteq	r0, r8
    34f8:	002c0f2e 	eoreq	r0, ip, lr, lsr #30
    34fc:	00000000 	andeq	r0, r0, r0
    3500:	460c5a00 	strmi	r5, [ip], -r0, lsl #20
    3504:	01000008 	tsteq	r0, r8
    3508:	002c0f2f 	eoreq	r0, ip, pc, lsr #30
    350c:	0d200000 	stceq	0, cr0, [r0, #-0]
    3510:	000001ef 	andeq	r0, r0, pc, ror #3
    3514:	00009c08 	andeq	r9, r0, r8, lsl #24
    3518:	00031802 	andeq	r1, r3, r2, lsl #16
    351c:	08200100 	stmdaeq	r0!, {r8}
    3520:	0000014c 	andeq	r0, r0, ip, asr #2
    3524:	0003180e 	andeq	r1, r3, lr, lsl #16
    3528:	02000f00 	andeq	r0, r0, #0, 30
    352c:	24680000 	strbtcs	r0, [r8], #-0
    3530:	24640000 	strbtcs	r0, [r4], #-0
    3534:	00000000 	andeq	r0, r0, r0
    3538:	0001d510 	andeq	sp, r1, r0, lsl r5
    353c:	009c1c00 	addseq	r1, ip, r0, lsl #24
    3540:	9c1c0100 	ldflss	f0, [ip], {-0}
    3544:	00100000 	andseq	r0, r0, r0
    3548:	21010000 	mrscs	r0, (UNDEF: 1)
    354c:	00017309 	andeq	r7, r1, r9, lsl #6
    3550:	01e20f00 	mvneq	r0, r0, lsl #30
    3554:	248f0000 	strcs	r0, [pc], #0	; 355c <__code_start__-0x4aa4>
    3558:	24870000 	strcs	r0, [r7], #0
    355c:	11000000 	mrsne	r0, (UNDEF: 0)
    3560:	00009c30 	andeq	r9, r0, r0, lsr ip
    3564:	0000024f 	andeq	r0, r0, pc, asr #4
    3568:	009c3411 	addseq	r3, ip, r1, lsl r4
    356c:	00025c00 	andeq	r5, r2, r0, lsl #24
    3570:	9c3c1200 	lfmls	f1, 4, [ip], #-0
    3574:	02680000 	rsbeq	r0, r8, #0, 0
    3578:	01980000 	orrseq	r0, r8, r0
    357c:	01130000 	tsteq	r3, r0
    3580:	003a0150 	eorseq	r0, sl, r0, asr r1
    3584:	009c4812 	addseq	r4, ip, r2, lsl r8
    3588:	00027400 	andeq	r7, r2, r0, lsl #8
    358c:	0001b800 	andeq	fp, r1, r0, lsl #16
    3590:	50011300 	andpl	r1, r1, r0, lsl #6
    3594:	00240c05 	eoreq	r0, r4, r5, lsl #24
    3598:	01132010 	tsteq	r3, r0, lsl r0
    359c:	010c0551 	tsteq	ip, r1, asr r5
    35a0:	005a0000 	subseq	r0, sl, r0
    35a4:	009c5414 	addseq	r5, ip, r4, lsl r4
    35a8:	00027400 	andeq	r7, r2, r0, lsl #8
    35ac:	50011300 	andpl	r1, r1, r0, lsl #6
    35b0:	001c0c05 	andseq	r0, ip, r5, lsl #24
    35b4:	01132010 	tsteq	r3, r0, lsl r0
    35b8:	200c0551 	andcs	r0, ip, r1, asr r5
    35bc:	005a0000 	subseq	r0, sl, r0
    35c0:	08081500 	stmdaeq	r8, {r8, sl, ip}
    35c4:	17010000 	strne	r0, [r1, -r0]
    35c8:	01ef0106 	mvneq	r0, r6, lsl #2
    35cc:	67090000 	strvs	r0, [r9, -r0]
    35d0:	01000008 	tsteq	r0, r8
    35d4:	00310e18 	eorseq	r0, r1, r8, lsl lr
    35d8:	16000000 	strne	r0, [r0], -r0
    35dc:	00000838 	andeq	r0, r0, r8, lsr r8
    35e0:	25050e01 	strcs	r0, [r5, #-3585]	; 0xfffff1ff
    35e4:	01000000 	mrseq	r0, (UNDEF: 0)
    35e8:	0000020d 	andeq	r0, r0, sp, lsl #4
    35ec:	00086709 	andeq	r6, r8, r9, lsl #14
    35f0:	0e0f0100 	adfeqe	f0, f7, f0
    35f4:	00000031 	andeq	r0, r0, r1, lsr r0
    35f8:	01ef1700 	mvneq	r1, r0, lsl #14
    35fc:	9bdc0000 	blls	ff703604 <__bss_end__+0xff6f830c>
    3600:	00180000 	andseq	r0, r8, r0
    3604:	9c010000 	stcls	0, cr0, [r1], {-0}
    3608:	0000022e 	andeq	r0, r0, lr, lsr #4
    360c:	0002000f 	andeq	r0, r2, pc
    3610:	0024cc00 	eoreq	ip, r4, r0, lsl #24
    3614:	0024c800 	eoreq	ip, r4, r0, lsl #16
    3618:	d5170000 	ldrle	r0, [r7, #-0]
    361c:	f4000001 	vst4.8	{d0-d3}, [r0], r1
    3620:	1400009b 	strne	r0, [r0], #-155	; 0xffffff65
    3624:	01000000 	mrseq	r0, (UNDEF: 0)
    3628:	00024f9c 	muleq	r2, ip, pc	; <UNPREDICTABLE>
    362c:	01e20f00 	mvneq	r0, r0, lsl #30
    3630:	24f30000 	ldrbtcs	r0, [r3], #0
    3634:	24eb0000 	strbtcs	r0, [fp], #0
    3638:	18000000 	stmdane	r0, {}	; <UNPREDICTABLE>
    363c:	000007eb 	andeq	r0, r0, fp, ror #15
    3640:	000007eb 	andeq	r0, r0, fp, ror #15
    3644:	06013602 	streq	r3, [r1], -r2, lsl #12
    3648:	00078419 	andeq	r8, r7, r9, lsl r4
    364c:	00078400 	andeq	r8, r7, r0, lsl #8
    3650:	064d0200 	strbeq	r0, [sp], -r0, lsl #4
    3654:	00076019 	andeq	r6, r7, r9, lsl r0
    3658:	00076000 	andeq	r6, r7, r0
    365c:	06580200 	ldrbeq	r0, [r8], -r0, lsl #4
    3660:	00080219 	andeq	r0, r8, r9, lsl r2
    3664:	00080200 	andeq	r0, r8, r0, lsl #4
    3668:	06ad0200 	strteq	r0, [sp], r0, lsl #4
    366c:	00053f00 	andeq	r3, r5, r0, lsl #30
    3670:	50000400 	andpl	r0, r0, r0, lsl #8
    3674:	04000013 	streq	r0, [r0], #-19	; 0xffffffed
    3678:	00051301 	andeq	r1, r5, r1, lsl #6
    367c:	08820c00 	stmeq	r2, {sl, fp}
    3680:	05d90000 	ldrbeq	r0, [r9]
    3684:	9c680000 	stclls	0, cr0, [r8], #-0
    3688:	011c0000 	tsteq	ip, r0
    368c:	1d8a0000 	stcne	0, cr0, [sl]
    3690:	04020000 	streq	r0, [r2], #-0
    3694:	746e6905 	strbtvc	r6, [lr], #-2309	; 0xfffff6fb
    3698:	07040300 	streq	r0, [r4, -r0, lsl #6]
    369c:	000001e2 	andeq	r0, r0, r2, ror #3
    36a0:	58060103 	stmdapl	r6, {r0, r1, r8}
    36a4:	03000000 	movweq	r0, #0
    36a8:	02220502 	eoreq	r0, r2, #8388608	; 0x800000
    36ac:	04030000 	streq	r0, [r3], #-0
    36b0:	00020605 	andeq	r0, r2, r5, lsl #12
    36b4:	05080300 	streq	r0, [r8, #-768]	; 0xfffffd00
    36b8:	00000201 	andeq	r0, r0, r1, lsl #4
    36bc:	56080103 	strpl	r0, [r8], -r3, lsl #2
    36c0:	03000000 	movweq	r0, #0
    36c4:	00710702 	rsbseq	r0, r1, r2, lsl #14
    36c8:	04030000 	streq	r0, [r3], #-0
    36cc:	0001dd07 	andeq	sp, r1, r7, lsl #26
    36d0:	07080300 	streq	r0, [r8, -r0, lsl #6]
    36d4:	000001d8 	ldrdeq	r0, [r0], -r8
    36d8:	00002504 	andeq	r2, r0, r4, lsl #10
    36dc:	00007a00 	andeq	r7, r0, r0, lsl #20
    36e0:	00250500 	eoreq	r0, r5, r0, lsl #10
    36e4:	06000000 	streq	r0, [r0], -r0
    36e8:	0000020f 	andeq	r0, r0, pc, lsl #4
    36ec:	860e1c02 	strhi	r1, [lr], -r2, lsl #24
    36f0:	07000000 	streq	r0, [r0, -r0]
    36f4:	00006b04 	andeq	r6, r0, r4, lsl #22
    36f8:	00250400 	eoreq	r0, r5, r0, lsl #8
    36fc:	009b0000 	addseq	r0, fp, r0
    3700:	9b050000 	blls	143708 <__bss_end__+0x138410>
    3704:	00000000 	andeq	r0, r0, r0
    3708:	00a80407 	adceq	r0, r8, r7, lsl #8
    370c:	01030000 	mrseq	r0, (UNDEF: 3)
    3710:	00005f08 	andeq	r5, r0, r8, lsl #30
    3714:	00a10800 	adceq	r0, r1, r0, lsl #16
    3718:	79060000 	stmdbvc	r6, {}	; <UNPREDICTABLE>
    371c:	02000006 	andeq	r0, r0, #6, 0
    3720:	00b90e21 	adcseq	r0, r9, r1, lsr #28
    3724:	04070000 	streq	r0, [r7], #-0
    3728:	0000008c 	andeq	r0, r0, ip, lsl #1
    372c:	00087809 	andeq	r7, r8, r9, lsl #16
    3730:	061e0100 	ldreq	r0, [lr], -r0, lsl #2
    3734:	00009d30 	andeq	r9, r0, r0, lsr sp
    3738:	00000054 	andeq	r0, r0, r4, asr r0
    373c:	020b9c01 	andeq	r9, fp, #256	; 0x100
    3740:	730a0000 	movwvc	r0, #40960	; 0xa000
    3744:	01006365 	tsteq	r0, r5, ror #6
    3748:	002c191e 	eoreq	r1, ip, lr, lsl r9
    374c:	25300000 	ldrcs	r0, [r0, #-0]!
    3750:	252c0000 	strcs	r0, [ip, #-0]!
    3754:	0b0b0000 	bleq	2c375c <__bss_end__+0x2b8464>
    3758:	30000002 	andcc	r0, r0, r2
    375c:	0200009d 	andeq	r0, r0, #157, 0	; 0x9d
    3760:	000003f8 	strdeq	r0, [r0], -r8
    3764:	0c051f01 	stceq	15, cr1, [r5], {1}
    3768:	00000218 	andeq	r0, r0, r8, lsl r2
    376c:	00002555 	andeq	r2, r0, r5, asr r5
    3770:	00002551 	andeq	r2, r0, r1, asr r5
    3774:	0002240d 	andeq	r2, r2, sp, lsl #8
    3778:	009d4400 	addseq	r4, sp, r0, lsl #8
    377c:	9d440000 	stclls	0, cr0, [r4, #-0]
    3780:	00400000 	subeq	r0, r0, r0
    3784:	1c010000 	stcne	0, cr0, [r1], {-0}
    3788:	02310c05 	eorseq	r0, r1, #1280	; 0x500
    378c:	25820000 	strcs	r0, [r2]
    3790:	25800000 	strcs	r0, [r0]
    3794:	3c0e0000 	stccc	0, cr0, [lr], {-0}
    3798:	97000002 	strls	r0, [r0, -r2]
    379c:	95000025 	strls	r0, [r0, #-37]	; 0xffffffdb
    37a0:	0f000025 	svceq	0x00000025
    37a4:	00000255 	andeq	r0, r0, r5, asr r2
    37a8:	00009d44 	andeq	r9, r0, r4, asr #26
    37ac:	009d4402 	addseq	r4, sp, r2, lsl #8
    37b0:	00001400 	andeq	r1, r0, r0, lsl #8
    37b4:	13130100 	tstne	r3, #0
    37b8:	0000019c 	muleq	r0, ip, r1
    37bc:	0002660e 	andeq	r6, r2, lr, lsl #12
    37c0:	0025ae00 	eoreq	sl, r5, r0, lsl #28
    37c4:	0025aa00 	eoreq	sl, r5, r0, lsl #20
    37c8:	02710f00 	rsbseq	r0, r1, #0, 30
    37cc:	9d480000 	stclls	0, cr0, [r8, #-0]
    37d0:	48010000 	stmdami	r1, {}	; <UNPREDICTABLE>
    37d4:	0c00009d 	stceq	0, cr0, [r0], {157}	; 0x9d
    37d8:	01000000 	mrseq	r0, (UNDEF: 0)
    37dc:	0189120d 	orreq	r1, r9, sp, lsl #4
    37e0:	50100000 	andspl	r0, r0, r0
    37e4:	2a00009d 	bcs	3a60 <__code_start__-0x45a0>
    37e8:	11000005 	tstne	r0, r5
    37ec:	0c055001 	stceq	0, cr5, [r5], {1}
    37f0:	20003004 	andcs	r3, r0, r4
    37f4:	48120000 	ldmdami	r2, {}	; <UNPREDICTABLE>
    37f8:	3600009d 			; <UNDEFINED> instruction: 0x3600009d
    37fc:	12000005 	andne	r0, r0, #5, 0
    3800:	00009d58 	andeq	r9, r0, r8, asr sp
    3804:	00000536 	andeq	r0, r0, r6, lsr r5
    3808:	02471300 	subeq	r1, r7, #0, 6
    380c:	04100000 	ldreq	r0, [r0], #-0
    3810:	48140000 	ldmdami	r4, {}	; <UNPREDICTABLE>
    3814:	0b000002 	bleq	3824 <__code_start__-0x47dc>
    3818:	00000255 	andeq	r0, r0, r5, asr r2
    381c:	00009d5c 	andeq	r9, r0, ip, asr sp
    3820:	00042802 	andeq	r2, r4, r2, lsl #16
    3824:	17150100 	ldrne	r0, [r5, -r0, lsl #2]
    3828:	00042815 	andeq	r2, r4, r5, lsl r8
    382c:	02660e00 	rsbeq	r0, r6, #0, 28
    3830:	25ce0000 	strbcs	r0, [lr]
    3834:	25cc0000 	strbcs	r0, [ip]
    3838:	71160000 	tstvc	r6, r0
    383c:	60000002 	andvs	r0, r0, r2
    3840:	0100009d 	swpeq	r0, sp, [r0]	; <UNPREDICTABLE>
    3844:	00000448 	andeq	r0, r0, r8, asr #8
    3848:	f3120d01 	vpadd.f16	d0, d2, d1
    384c:	10000001 	andne	r0, r0, r1
    3850:	00009d68 	andeq	r9, r0, r8, ror #26
    3854:	0000052a 	andeq	r0, r0, sl, lsr #10
    3858:	02500111 	subseq	r0, r0, #1073741828	; 0x40000004
    385c:	00000077 	andeq	r0, r0, r7, ror r0
    3860:	009d6012 	addseq	r6, sp, r2, lsl r0
    3864:	00053600 	andeq	r3, r5, r0, lsl #12
    3868:	9d741200 	lfmls	f1, 2, [r4, #-0]
    386c:	05360000 	ldreq	r0, [r6, #-0]!
	...
    3878:	00076017 	andeq	r6, r7, r7, lsl r0
    387c:	061b0100 	ldreq	r0, [fp], -r0, lsl #2
    3880:	00022401 	andeq	r2, r2, r1, lsl #8
    3884:	736d1800 	cmnvc	sp, #0, 16
    3888:	181b0100 	ldmdane	fp, {r8}
    388c:	0000002c 	andeq	r0, r0, ip, lsr #32
    3890:	08ab1700 	stmiaeq	fp!, {r8, r9, sl, ip}
    3894:	12010000 	andne	r0, r1, #0, 0
    3898:	02550106 	subseq	r0, r5, #-2147483647	; 0x80000001
    389c:	75180000 	ldrvc	r0, [r8, #-0]
    38a0:	12010073 	andne	r0, r1, #115, 0	; 0x73
    38a4:	00002c18 	andeq	r2, r0, r8, lsl ip
    38a8:	62721900 	rsbsvs	r1, r2, #0, 18
    38ac:	0e130100 	mufeqs	f0, f3, f0
    38b0:	0000002c 	andeq	r0, r0, ip, lsr #32
    38b4:	6172191a 	cmnvs	r2, sl, lsl r9
    38b8:	12150100 	andsne	r0, r5, #0
    38bc:	0000002c 	andeq	r0, r0, ip, lsr #32
    38c0:	9c1b0000 	ldcls	0, cr0, [fp], {-0}
    38c4:	01000008 	tsteq	r0, r8
    38c8:	002c0a09 	eoreq	r0, ip, r9, lsl #20
    38cc:	71010000 	mrsvc	r0, (UNDEF: 1)
    38d0:	19000002 	stmdbne	r0, {r1}
    38d4:	0d010075 	stceq	0, cr0, [r1, #-468]	; 0xfffffe2c
    38d8:	00002c0e 	andeq	r2, r0, lr, lsl #24
    38dc:	b41c0000 	ldrlt	r0, [ip], #-0
    38e0:	01000008 	tsteq	r0, r8
    38e4:	002c0a04 	eoreq	r0, ip, r4, lsl #20
    38e8:	1d010000 	stcne	0, cr0, [r1, #-0]
    38ec:	00000271 	andeq	r0, r0, r1, ror r2
    38f0:	00009c68 	andeq	r9, r0, r8, ror #24
    38f4:	0000000c 	andeq	r0, r0, ip
    38f8:	02a59c01 	adceq	r9, r5, #256	; 0x100
    38fc:	701e0000 	andsvc	r0, lr, r0
    3900:	2a00009c 	bcs	3b78 <__code_start__-0x4488>
    3904:	11000005 	tstne	r0, r5
    3908:	0c055001 	stceq	0, cr5, [r5], {1}
    390c:	20003004 	andcs	r3, r0, r4
    3910:	551d0000 	ldrpl	r0, [sp, #-0]
    3914:	74000002 	strvc	r0, [r0], #-2
    3918:	2400009c 	strcs	r0, [r0], #-156	; 0xffffff64
    391c:	01000000 	mrseq	r0, (UNDEF: 0)
    3920:	0003059c 	muleq	r3, ip, r5
    3924:	02660e00 	rsbeq	r0, r6, #0, 28
    3928:	25e50000 	strbcs	r0, [r5, #0]!
    392c:	25e10000 	strbcs	r0, [r1, #0]!
    3930:	710f0000 	mrsvc	r0, CPSR
    3934:	7c000002 	stcvc	0, cr0, [r0], {2}
    3938:	0100009c 	swpeq	r0, ip, [r0]	; <UNPREDICTABLE>
    393c:	00009c7c 	andeq	r9, r0, ip, ror ip
    3940:	0000000c 	andeq	r0, r0, ip
    3944:	f2120d01 	vadd.f16	d0, d2, d1
    3948:	10000002 	andne	r0, r0, r2
    394c:	00009c84 	andeq	r9, r0, r4, lsl #25
    3950:	0000052a 	andeq	r0, r0, sl, lsr #10
    3954:	05500111 	ldrbeq	r0, [r0, #-273]	; 0xfffffeef
    3958:	0030040c 	eorseq	r0, r0, ip, lsl #8
    395c:	12000020 	andne	r0, r0, #32, 0
    3960:	00009c7c 	andeq	r9, r0, ip, ror ip
    3964:	00000536 	andeq	r0, r0, r6, lsr r5
    3968:	009c8c12 	addseq	r8, ip, r2, lsl ip
    396c:	00053600 	andeq	r3, r5, r0, lsl #12
    3970:	241d0000 	ldrcs	r0, [sp], #-0
    3974:	98000002 	stmdals	r0, {r1}
    3978:	4800009c 	stmdami	r0, {r2, r3, r4, r7}
    397c:	01000000 	mrseq	r0, (UNDEF: 0)
    3980:	0004079c 	muleq	r4, ip, r7
    3984:	02310c00 	eorseq	r0, r1, #0, 24
    3988:	26070000 	strcs	r0, [r7], -r0
    398c:	26030000 	strcs	r0, [r3], -r0
    3990:	3c0e0000 	stccc	0, cr0, [lr], {-0}
    3994:	27000002 	strcs	r0, [r0, -r2]
    3998:	25000026 	strcs	r0, [r0, #-38]	; 0xffffffda
    399c:	16000026 	strne	r0, [r0], -r6, lsr #32
    39a0:	00000255 	andeq	r0, r0, r5, asr r2
    39a4:	00009c98 	muleq	r0, r8, ip
    39a8:	00034002 	andeq	r4, r3, r2
    39ac:	13130100 	tstne	r3, #0
    39b0:	0000039a 	muleq	r0, sl, r3
    39b4:	00034015 	andeq	r4, r3, r5, lsl r0
    39b8:	02660e00 	rsbeq	r0, r6, #0, 28
    39bc:	263e0000 	ldrtcs	r0, [lr], -r0
    39c0:	263a0000 	ldrtcs	r0, [sl], -r0
    39c4:	710f0000 	mrsvc	r0, CPSR
    39c8:	a4000002 	strge	r0, [r0], #-2
    39cc:	0100009c 	swpeq	r0, ip, [r0]	; <UNPREDICTABLE>
    39d0:	00009ca4 	andeq	r9, r0, r4, lsr #25
    39d4:	0000000c 	andeq	r0, r0, ip
    39d8:	86120d01 	ldrhi	r0, [r2], -r1, lsl #26
    39dc:	10000003 	andne	r0, r0, r3
    39e0:	00009cac 	andeq	r9, r0, ip, lsr #25
    39e4:	0000052a 	andeq	r0, r0, sl, lsr #10
    39e8:	05500111 	ldrbeq	r0, [r0, #-273]	; 0xfffffeef
    39ec:	0030040c 	eorseq	r0, r0, ip, lsl #8
    39f0:	12000020 	andne	r0, r0, #32, 0
    39f4:	00009ca4 	andeq	r9, r0, r4, lsr #25
    39f8:	00000536 	andeq	r0, r0, r6, lsr r5
    39fc:	009cb412 	addseq	fp, ip, r2, lsl r4
    3a00:	00053600 	andeq	r3, r5, r0, lsl #12
    3a04:	13000000 	movwne	r0, #0
    3a08:	00000247 	andeq	r0, r0, r7, asr #4
    3a0c:	00000358 	andeq	r0, r0, r8, asr r3
    3a10:	00024814 	andeq	r4, r2, r4, lsl r8
    3a14:	02550b00 	subseq	r0, r5, #0, 22
    3a18:	9cb80000 	ldcls	0, cr0, [r8]
    3a1c:	70020000 	andvc	r0, r2, r0
    3a20:	01000003 	tsteq	r0, r3
    3a24:	70151715 	andsvc	r1, r5, r5, lsl r7
    3a28:	0e000003 	cdpeq	0, 0, cr0, cr0, cr3, {0}
    3a2c:	00000266 	andeq	r0, r0, r6, ror #4
    3a30:	0000265e 	andeq	r2, r0, lr, asr r6
    3a34:	0000265c 	andeq	r2, r0, ip, asr r6
    3a38:	00027116 	andeq	r7, r2, r6, lsl r1
    3a3c:	009cbc00 	addseq	fp, ip, r0, lsl #24
    3a40:	03900100 	orrseq	r0, r0, #0
    3a44:	0d010000 	stceq	0, cr0, [r1, #-0]
    3a48:	0003f112 	andeq	pc, r3, r2, lsl r1	; <UNPREDICTABLE>
    3a4c:	9cc41000 	stclls	0, cr1, [r4], {0}
    3a50:	052a0000 	streq	r0, [sl, #-0]!
    3a54:	01110000 	tsteq	r1, r0
    3a58:	00770250 	rsbseq	r0, r7, r0, asr r2
    3a5c:	bc120000 	ldclt	0, cr0, [r2], {-0}
    3a60:	3600009c 			; <UNDEFINED> instruction: 0x3600009c
    3a64:	12000005 	andne	r0, r0, #5, 0
    3a68:	00009cd0 	ldrdeq	r9, [r0], -r0
    3a6c:	00000536 	andeq	r0, r0, r6, lsr r5
    3a70:	00000000 	andeq	r0, r0, r0
    3a74:	00020b1d 	andeq	r0, r2, sp, lsl fp
    3a78:	009ce000 	addseq	lr, ip, r0
    3a7c:	00005000 	andeq	r5, r0, r0
    3a80:	2a9c0100 	bcs	fe703e88 <__bss_end__+0xfe6f8b90>
    3a84:	0c000005 	stceq	0, cr0, [r0], {5}
    3a88:	00000218 	andeq	r0, r0, r8, lsl r2
    3a8c:	00002675 	andeq	r2, r0, r5, ror r6
    3a90:	00002671 	andeq	r2, r0, r1, ror r6
    3a94:	0002240d 	andeq	r2, r2, sp, lsl #8
    3a98:	009cf000 	addseq	pc, ip, r0
    3a9c:	9cf00000 	ldclls	0, cr0, [r0]
    3aa0:	00400000 	subeq	r0, r0, r0
    3aa4:	1c010000 	stcne	0, cr0, [r1], {-0}
    3aa8:	02310c05 	eorseq	r0, r1, #1280	; 0x500
    3aac:	26980000 	ldrcs	r0, [r8], r0
    3ab0:	26960000 	ldrcs	r0, [r6], r0
    3ab4:	3c0e0000 	stccc	0, cr0, [lr], {-0}
    3ab8:	ad000002 	stcge	0, cr0, [r0, #-8]
    3abc:	ab000026 	blge	3b5c <__code_start__-0x44a4>
    3ac0:	0f000026 	svceq	0x00000026
    3ac4:	00000255 	andeq	r0, r0, r5, asr r2
    3ac8:	00009cf0 	strdeq	r9, [r0], -r0
    3acc:	009cf002 	addseq	pc, ip, r2
    3ad0:	00001400 	andeq	r1, r0, r0, lsl #8
    3ad4:	13130100 	tstne	r3, #0
    3ad8:	000004bc 			; <UNDEFINED> instruction: 0x000004bc
    3adc:	0002660e 	andeq	r6, r2, lr, lsl #12
    3ae0:	0026c400 	eoreq	ip, r6, r0, lsl #8
    3ae4:	0026c000 	eoreq	ip, r6, r0
    3ae8:	02710f00 	rsbseq	r0, r1, #0, 30
    3aec:	9cf40000 	ldclls	0, cr0, [r4]
    3af0:	f4010000 	vst4.8	{d0-d3}, [r1], r0
    3af4:	0c00009c 	stceq	0, cr0, [r0], {156}	; 0x9c
    3af8:	01000000 	mrseq	r0, (UNDEF: 0)
    3afc:	04a9120d 	strteq	r1, [r9], #525	; 0x20d
    3b00:	fc100000 	ldc2	0, cr0, [r0], {-0}
    3b04:	2a00009c 	bcs	3d7c <__code_start__-0x4284>
    3b08:	11000005 	tstne	r0, r5
    3b0c:	0c055001 	stceq	0, cr5, [r5], {1}
    3b10:	20003004 	andcs	r3, r0, r4
    3b14:	f4120000 			; <UNDEFINED> instruction: 0xf4120000
    3b18:	3600009c 			; <UNDEFINED> instruction: 0x3600009c
    3b1c:	12000005 	andne	r0, r0, #5, 0
    3b20:	00009d04 	andeq	r9, r0, r4, lsl #26
    3b24:	00000536 	andeq	r0, r0, r6, lsr r5
    3b28:	02471300 	subeq	r1, r7, #0, 6
    3b2c:	03a80000 			; <UNDEFINED> instruction: 0x03a80000
    3b30:	48140000 	ldmdami	r4, {}	; <UNPREDICTABLE>
    3b34:	0b000002 	bleq	3b44 <__code_start__-0x44bc>
    3b38:	00000255 	andeq	r0, r0, r5, asr r2
    3b3c:	00009d08 	andeq	r9, r0, r8, lsl #26
    3b40:	0003c002 	andeq	ip, r3, r2
    3b44:	17150100 	ldrne	r0, [r5, -r0, lsl #2]
    3b48:	0003c015 	andeq	ip, r3, r5, lsl r0
    3b4c:	02660e00 	rsbeq	r0, r6, #0, 28
    3b50:	26e40000 	strbtcs	r0, [r4], r0
    3b54:	26e20000 	strbtcs	r0, [r2], r0
    3b58:	71160000 	tstvc	r6, r0
    3b5c:	0c000002 	stceq	0, cr0, [r0], {2}
    3b60:	0100009d 	swpeq	r0, sp, [r0]	; <UNPREDICTABLE>
    3b64:	000003e0 	andeq	r0, r0, r0, ror #7
    3b68:	13120d01 	tstne	r2, #64	; 0x40
    3b6c:	10000005 	andne	r0, r0, r5
    3b70:	00009d14 	andeq	r9, r0, r4, lsl sp
    3b74:	0000052a 	andeq	r0, r0, sl, lsr #10
    3b78:	02500111 	subseq	r0, r0, #1073741828	; 0x40000004
    3b7c:	00000077 	andeq	r0, r0, r7, ror r0
    3b80:	009d0c12 	addseq	r0, sp, r2, lsl ip
    3b84:	00053600 	andeq	r3, r5, r0, lsl #12
    3b88:	9d201200 	sfmls	f1, 4, [r0, #-0]
    3b8c:	05360000 	ldreq	r0, [r6, #-0]!
    3b90:	00000000 	andeq	r0, r0, r0
    3b94:	1f000000 	svcne	0x00000000
    3b98:	00000896 	muleq	r0, r6, r8
    3b9c:	00000896 	muleq	r0, r6, r8
    3ba0:	1f0ac202 	svcne	0x000ac202
    3ba4:	0000086c 	andeq	r0, r0, ip, ror #16
    3ba8:	0000086c 	andeq	r0, r0, ip, ror #16
    3bac:	00069c02 	andeq	r9, r6, r2, lsl #24
    3bb0:	000005cd 	andeq	r0, r0, sp, asr #11
    3bb4:	151f0004 	ldrne	r0, [pc, #-4]	; 3bb8 <__code_start__-0x4448>
    3bb8:	01040000 	mrseq	r0, (UNDEF: 4)
    3bbc:	000009c7 	andeq	r0, r0, r7, asr #19
    3bc0:	0009060c 	andeq	r0, r9, ip, lsl #12
    3bc4:	00097700 	andeq	r7, r9, r0, lsl #14
    3bc8:	009d8400 	addseq	r8, sp, r0, lsl #8
    3bcc:	0001f000 	andeq	pc, r1, r0
    3bd0:	001f8800 	andseq	r8, pc, r0, lsl #16
    3bd4:	05040200 	streq	r0, [r4, #-512]	; 0xfffffe00
    3bd8:	00746e69 	rsbseq	r6, r4, r9, ror #28
    3bdc:	e2070403 	and	r0, r7, #50331648	; 0x3000000
    3be0:	04000001 	streq	r0, [r0], #-1
    3be4:	0000002c 	andeq	r0, r0, ip, lsr #32
    3be8:	58060103 	stmdapl	r6, {r0, r1, r8}
    3bec:	03000000 	movweq	r0, #0
    3bf0:	02220502 	eoreq	r0, r2, #8388608	; 0x800000
    3bf4:	04030000 	streq	r0, [r3], #-0
    3bf8:	00020605 	andeq	r0, r2, r5, lsl #12
    3bfc:	05080300 	streq	r0, [r8, #-768]	; 0xfffffd00
    3c00:	00000201 	andeq	r0, r0, r1, lsl #4
    3c04:	56080103 	strpl	r0, [r8], -r3, lsl #2
    3c08:	03000000 	movweq	r0, #0
    3c0c:	00710702 	rsbseq	r0, r1, r2, lsl #14
    3c10:	67050000 	strvs	r0, [r5, -r0]
    3c14:	05000002 	streq	r0, [r0, #-2]
    3c18:	006e1934 	rsbeq	r1, lr, r4, lsr r9
    3c1c:	04030000 	streq	r0, [r3], #-0
    3c20:	0001dd07 	andeq	sp, r1, r7, lsl #26
    3c24:	07080300 	streq	r0, [r8, -r0, lsl #6]
    3c28:	000001d8 	ldrdeq	r0, [r0], -r8
    3c2c:	5f080103 	svcpl	0x00080103
    3c30:	06000000 	streq	r0, [r0], -r0
    3c34:	00540107 	subseq	r0, r4, r7, lsl #2
    3c38:	0c040000 	stceq	0, cr0, [r4], {-0}
    3c3c:	0000c20e 	andeq	ip, r0, lr, lsl #4
    3c40:	0ab10700 	beq	fec45848 <__bss_end__+0xfec3a550>
    3c44:	07000000 	streq	r0, [r0, -r0]
    3c48:	000008e9 	andeq	r0, r0, r9, ror #17
    3c4c:	092c0701 	stmdbeq	ip!, {r0, r8, r9, sl}
    3c50:	07040000 	streq	r0, [r4, -r0]
    3c54:	0000093b 	andeq	r0, r0, fp, lsr r9
    3c58:	094a0705 	stmdbeq	sl, {r0, r2, r8, r9, sl}^
    3c5c:	07060000 	streq	r0, [r6, -r0]
    3c60:	00000959 	andeq	r0, r0, r9, asr r9
    3c64:	0a7a0707 	beq	1e85888 <__bss_end__+0x1e7a590>
    3c68:	07030000 	streq	r0, [r3, -r0]
    3c6c:	00000968 	andeq	r0, r0, r8, ror #18
    3c70:	fa080002 	blx	203c80 <__bss_end__+0x1f8988>
    3c74:	2c000008 	stccs	0, cr0, [r0], {8}
    3c78:	5e080602 	cfmadd32pl	mvax0, mvfx0, mvfx8, mvfx2
    3c7c:	09000001 	stmdbeq	r0, {r0}
    3c80:	02006f69 	andeq	r6, r0, #420	; 0x1a4
    3c84:	00330909 	eorseq	r0, r3, r9, lsl #18
    3c88:	09000000 	stmdbeq	r0, {}	; <UNPREDICTABLE>
    3c8c:	00726569 	rsbseq	r6, r2, r9, ror #10
    3c90:	33090a02 	movwcc	r0, #39426	; 0x9a02
    3c94:	04000000 	streq	r0, [r0], #-0
    3c98:	72696909 	rsbvc	r6, r9, #147456	; 0x24000
    3c9c:	09110200 	ldmdbeq	r1, {r9}
    3ca0:	00000033 	andeq	r0, r0, r3, lsr r0
    3ca4:	636c0908 	cmnvs	ip, #8, 18	; 0x20000
    3ca8:	13020072 	movwne	r0, #8306	; 0x2072
    3cac:	00003309 	andeq	r3, r0, r9, lsl #6
    3cb0:	6d090c00 	stcvs	12, cr0, [r9, #-0]
    3cb4:	02007263 	andeq	r7, r0, #805306374	; 0x30000006
    3cb8:	00330914 	eorseq	r0, r3, r4, lsl r9
    3cbc:	09100000 	ldmdbeq	r0, {}	; <UNPREDICTABLE>
    3cc0:	0072736c 	rsbseq	r7, r2, ip, ror #6
    3cc4:	33091502 	movwcc	r1, #38146	; 0x9502
    3cc8:	14000000 	strne	r0, [r0], #-0
    3ccc:	72736d09 	rsbsvc	r6, r3, #576	; 0x240
    3cd0:	09160200 	ldmdbeq	r6, {r9}
    3cd4:	00000033 	andeq	r0, r0, r3, lsr r0
    3cd8:	0a910a18 	beq	fe446540 <__bss_end__+0xfe43b248>
    3cdc:	17020000 	strne	r0, [r2, -r0]
    3ce0:	00003309 	andeq	r3, r0, r9, lsl #6
    3ce4:	5a0a1c00 	bpl	28acec <__bss_end__+0x27f9f4>
    3ce8:	0200000a 	andeq	r0, r0, #10, 0
    3cec:	0033091b 	eorseq	r0, r3, fp, lsl r9
    3cf0:	0a200000 	beq	803cf8 <__bss_end__+0x7f8a00>
    3cf4:	000008d6 	ldrdeq	r0, [r0], -r6
    3cf8:	33091d02 	movwcc	r1, #40194	; 0x9d02
    3cfc:	24000000 	strcs	r0, [r0], #-0
    3d00:	0009ac0a 	andeq	sl, r9, sl, lsl #24
    3d04:	091e0200 	ldmdbeq	lr, {r9}
    3d08:	00000033 	andeq	r0, r0, r3, lsr r0
    3d0c:	b10b0028 	tstlt	fp, r8, lsr #32
    3d10:	01000009 	tsteq	r0, r9
    3d14:	01740908 	cmneq	r4, r8, lsl #18
    3d18:	50040000 	andpl	r0, r4, r0
    3d1c:	040c2021 	streq	r2, [ip], #-33	; 0xffffffdf
    3d20:	00000033 	andeq	r0, r0, r3, lsr r0
    3d24:	00016e0d 	andeq	r6, r1, sp, lsl #28
    3d28:	0a990b00 	beq	fe646930 <__bss_end__+0xfe63b638>
    3d2c:	29010000 	stmdbcs	r1, {}	; <UNPREDICTABLE>
    3d30:	00018f23 	andeq	r8, r1, r3, lsr #30
    3d34:	21504000 	cmpcs	r0, r0
    3d38:	c2040c20 	andgt	r0, r4, #32, 24	; 0x2000
    3d3c:	0d000000 	stceq	0, cr0, [r0, #-0]
    3d40:	00000189 	andeq	r0, r0, r9, lsl #3
    3d44:	0007840e 	andeq	r8, r7, lr, lsl #8
    3d48:	06cc0100 	strbeq	r0, [ip], r0, lsl #2
    3d4c:	00009f3c 	andeq	r9, r0, ip, lsr pc
    3d50:	00000014 	andeq	r0, r0, r4, lsl r0
    3d54:	01b49c01 			; <UNDEFINED> instruction: 0x01b49c01
    3d58:	440f0000 	strmi	r0, [pc], #-0	; 3d60 <__code_start__-0x42a0>
    3d5c:	b400009f 	strlt	r0, [r0], #-159	; 0xffffff61
    3d60:	00000001 	andeq	r0, r0, r1
    3d64:	00091b10 	andeq	r1, r9, r0, lsl fp
    3d68:	05b60100 	ldreq	r0, [r6, #256]!	; 0x100
    3d6c:	00000025 	andeq	r0, r0, r5, lsr #32
    3d70:	00009f1c 	andeq	r9, r0, ip, lsl pc
    3d74:	00000020 	andeq	r0, r0, r0, lsr #32
    3d78:	01eb9c01 	mvneq	r9, r1, lsl #24
    3d7c:	240f0000 	strcs	r0, [pc], #-0	; 3d84 <__code_start__-0x427c>
    3d80:	a000009f 	mulge	r0, pc, r0	; <UNPREDICTABLE>
    3d84:	11000005 	tstne	r0, r5
    3d88:	00009f2c 	andeq	r9, r0, ip, lsr #30
    3d8c:	000005ac 	andeq	r0, r0, ip, lsr #11
    3d90:	05500112 	ldrbeq	r0, [r0, #-274]	; 0xfffffeee
    3d94:	2150640c 	cmpcs	r0, ip, lsl #8
    3d98:	10000020 	andne	r0, r0, r0, lsr #32
    3d9c:	00000a6c 	andeq	r0, r0, ip, ror #20
    3da0:	2505b301 	strcs	fp, [r5, #-769]	; 0xfffffcff
    3da4:	0c000000 	stceq	0, cr0, [r0], {-0}
    3da8:	1000009f 	mulne	r0, pc, r0	; <UNPREDICTABLE>
    3dac:	01000000 	mrseq	r0, (UNDEF: 0)
    3db0:	0002189c 	muleq	r2, ip, r8
    3db4:	9f140f00 	svcls	0x00140f00
    3db8:	05a00000 	streq	r0, [r0, #0]!
    3dbc:	180f0000 	stmdane	pc, {}	; <UNPREDICTABLE>
    3dc0:	0900009f 	stmdbeq	r0, {r0, r1, r2, r3, r4, r7}
    3dc4:	00000003 	andeq	r0, r0, r3
    3dc8:	000aa70e 	andeq	sl, sl, lr, lsl #14
    3dcc:	06ab0100 	strteq	r0, [fp], r0, lsl #2
    3dd0:	00009edc 	ldrdeq	r9, [r0], -ip
    3dd4:	00000030 	andeq	r0, r0, r0, lsr r0
    3dd8:	027c9c01 	rsbseq	r9, ip, #256	; 0x100
    3ddc:	63130000 	tstvs	r3, #0, 0
    3de0:	19ab0100 	stmibne	fp!, {r8}
    3de4:	0000002c 	andeq	r0, r0, ip, lsr #32
    3de8:	000026fb 	strdeq	r2, [r0], -fp
    3dec:	000026f7 	strdeq	r2, [r0], -r7
    3df0:	009ee80f 	addseq	lr, lr, pc, lsl #16
    3df4:	0005a000 	andeq	sl, r5, r0
    3df8:	9eec0f00 	cdpls	15, 14, cr0, cr12, cr0, {0}
    3dfc:	02db0000 	sbcseq	r0, fp, #0, 0
    3e00:	00140000 	andseq	r0, r4, r0
    3e04:	b800009f 	stmdalt	r0, {r0, r1, r2, r3, r4, r7}
    3e08:	72000005 	andvc	r0, r0, #5, 0
    3e0c:	12000002 	andne	r0, r0, #2, 0
    3e10:	0c055001 	stceq	0, cr5, [r5], {1}
    3e14:	20215040 	eorcs	r5, r1, r0, asr #32
    3e18:	05510112 	ldrbeq	r0, [r1, #-274]	; 0xfffffeee
    3e1c:	ff080074 			; <UNDEFINED> instruction: 0xff080074
    3e20:	040f001a 	streq	r0, [pc], #-26	; 3e28 <__code_start__-0x41d8>
    3e24:	a000009f 	mulge	r0, pc, r0	; <UNPREDICTABLE>
    3e28:	00000005 	andeq	r0, r0, r5
    3e2c:	0009bd10 	andeq	fp, r9, r0, lsl sp
    3e30:	05a30100 	streq	r0, [r3, #256]!	; 0x100
    3e34:	00000025 	andeq	r0, r0, r5, lsr #32
    3e38:	00009eac 	andeq	r9, r0, ip, lsr #29
    3e3c:	00000030 	andeq	r0, r0, r0, lsr r0
    3e40:	02db9c01 	sbcseq	r9, fp, #256	; 0x100
    3e44:	63150000 	tstvs	r5, #0, 0
    3e48:	09a70100 	stmibeq	r7!, {r8}
    3e4c:	00000025 	andeq	r0, r0, r5, lsr #32
    3e50:	0000271b 	andeq	r2, r0, fp, lsl r7
    3e54:	00002719 	andeq	r2, r0, r9, lsl r7
    3e58:	009eb40f 	addseq	fp, lr, pc, lsl #8
    3e5c:	0005a000 	andeq	sl, r5, r0
    3e60:	9eb80f00 	cdpls	15, 11, cr0, cr8, cr0, {0}
    3e64:	03090000 	movweq	r0, #36864	; 0x9000
    3e68:	c8140000 	ldmdagt	r4, {}	; <UNPREDICTABLE>
    3e6c:	ac00009e 	stcge	0, cr0, [r0], {158}	; 0x9e
    3e70:	d1000005 	tstle	r0, r5
    3e74:	12000002 	andne	r0, r0, #2, 0
    3e78:	0c055001 	stceq	0, cr5, [r5], {1}
    3e7c:	20215040 	eorcs	r5, r1, r0, asr #32
    3e80:	9ed00f00 	cdpls	15, 13, cr0, cr0, cr0, {0}
    3e84:	05a00000 	streq	r0, [r0, #0]!
    3e88:	10000000 	andne	r0, r0, r0
    3e8c:	0000090d 	andeq	r0, r0, sp, lsl #18
    3e90:	25059401 	strcs	r9, [r5, #-1025]	; 0xfffffbff
    3e94:	8c000000 	stchi	0, cr0, [r0], {-0}
    3e98:	2000009e 	mulcs	r0, lr, r0
    3e9c:	01000000 	mrseq	r0, (UNDEF: 0)
    3ea0:	0003099c 	muleq	r3, ip, r9
    3ea4:	9e981100 	fmllse	f1, f0, f0
    3ea8:	05ac0000 	streq	r0, [ip, #0]!
    3eac:	01120000 	tsteq	r2, r0
    3eb0:	640c0550 	strvs	r0, [ip], #-1360	; 0xfffffab0
    3eb4:	00202150 	eoreq	r2, r0, r0, asr r1
    3eb8:	08db1000 	ldmeq	fp, {ip}^
    3ebc:	8b010000 	blhi	43ec4 <__bss_end__+0x38bcc>
    3ec0:	00002505 	andeq	r2, r0, r5, lsl #10
    3ec4:	009e7400 	addseq	r7, lr, r0, lsl #8
    3ec8:	00001800 	andeq	r1, r0, r0, lsl #16
    3ecc:	379c0100 	ldrcc	r0, [ip, r0, lsl #2]
    3ed0:	11000003 	tstne	r0, r3
    3ed4:	00009e80 	andeq	r9, r0, r0, lsl #29
    3ed8:	000005ac 	andeq	r0, r0, ip, lsr #11
    3edc:	05500112 	ldrbeq	r0, [r0, #-274]	; 0xfffffeee
    3ee0:	2150640c 	cmpcs	r0, ip, lsl #8
    3ee4:	0e000020 	cdpeq	0, 0, cr0, cr0, cr0, {1}
    3ee8:	000007a2 	andeq	r0, r0, r2, lsr #15
    3eec:	c4064501 	strgt	r4, [r6], #-1281	; 0xfffffaff
    3ef0:	b000009d 	mullt	r0, sp, r0
    3ef4:	01000000 	mrseq	r0, (UNDEF: 0)
    3ef8:	0004849c 	muleq	r4, ip, r4
    3efc:	08cd1600 	stmiaeq	sp, {r9, sl, ip}^
    3f00:	7e010000 	cdpvc	0, 0, cr0, cr1, cr0, {0}
    3f04:	0000620e 	andeq	r6, r0, lr, lsl #4
    3f08:	14010e00 	strne	r0, [r1], #-3584	; 0xfffff200
    3f0c:	00009dd4 	ldrdeq	r9, [r0], -r4
    3f10:	000005c4 	andeq	r0, r0, r4, asr #11
    3f14:	00000373 	andeq	r0, r0, r3, ror r3
    3f18:	01500112 	cmpeq	r0, r2, lsl r1
    3f1c:	5101123e 	tstpl	r1, lr, lsr r2
    3f20:	14003201 	strne	r3, [r0], #-513	; 0xfffffdff
    3f24:	00009de0 	andeq	r9, r0, r0, ror #27
    3f28:	000005c4 	andeq	r0, r0, r4, asr #11
    3f2c:	0000038b 	andeq	r0, r0, fp, lsl #7
    3f30:	01500112 	cmpeq	r0, r2, lsl r1
    3f34:	5101123f 	tstpl	r1, pc, lsr r2
    3f38:	0f003201 	svceq	0x00003201
    3f3c:	00009de4 	andeq	r9, r0, r4, ror #27
    3f40:	000005a0 	andeq	r0, r0, r0, lsr #11
    3f44:	009df014 	addseq	pc, sp, r4, lsl r0	; <UNPREDICTABLE>
    3f48:	00053d00 	andeq	r3, r5, r0, lsl #26
    3f4c:	0003b000 	andeq	fp, r3, r0
    3f50:	50011200 	andpl	r1, r1, r0, lsl #4
    3f54:	50040c05 	andpl	r0, r4, r5, lsl #24
    3f58:	01122021 	tsteq	r2, r1, lsr #32
    3f5c:	00310151 	eorseq	r0, r1, r1, asr r1
    3f60:	009df40f 	addseq	pc, sp, pc, lsl #8
    3f64:	0005a000 	andeq	sl, r5, r0
    3f68:	9e041400 	cfcpysls	mvf1, mvf4
    3f6c:	05b80000 	ldreq	r0, [r8, #0]!
    3f70:	03d20000 	bicseq	r0, r2, #0, 0
    3f74:	01120000 	tsteq	r2, r0
    3f78:	00740250 	rsbseq	r0, r4, r0, asr r2
    3f7c:	01510112 	cmpeq	r1, r2, lsl r1
    3f80:	10140030 	andsne	r0, r4, r0, lsr r0
    3f84:	b800009e 	stmdalt	r0, {r1, r2, r3, r4, r7}
    3f88:	ee000005 	cdp	0, 0, cr0, cr0, cr5, {0}
    3f8c:	12000003 	andne	r0, r0, #3, 0
    3f90:	0c055001 	stceq	0, cr5, [r5], {1}
    3f94:	20215044 	eorcs	r5, r1, r4, asr #32
    3f98:	01510112 	cmpeq	r1, r2, lsl r1
    3f9c:	1c140030 	ldcne	0, cr0, [r4], {48}	; 0x30
    3fa0:	b800009e 	stmdalt	r0, {r1, r2, r3, r4, r7}
    3fa4:	0a000005 	beq	3fc0 <__code_start__-0x4040>
    3fa8:	12000004 	andne	r0, r0, #4, 0
    3fac:	0c055001 	stceq	0, cr5, [r5], {1}
    3fb0:	2021504c 	eorcs	r5, r1, ip, asr #32
    3fb4:	01510112 	cmpeq	r1, r2, lsl r1
    3fb8:	28140033 	ldmdacs	r4, {r0, r1, r4, r5}
    3fbc:	b800009e 	stmdalt	r0, {r1, r2, r3, r4, r7}
    3fc0:	26000005 	strcs	r0, [r0], -r5
    3fc4:	12000004 	andne	r0, r0, #4, 0
    3fc8:	0c055001 	stceq	0, cr5, [r5], {1}
    3fcc:	20215050 	eorcs	r5, r1, r0, asr r0
    3fd0:	01510112 	cmpeq	r1, r2, lsl r1
    3fd4:	34140030 	ldrcc	r0, [r4], #-48	; 0xffffffd0
    3fd8:	b800009e 	stmdalt	r0, {r1, r2, r3, r4, r7}
    3fdc:	43000005 	movwmi	r0, #5
    3fe0:	12000004 	andne	r0, r0, #4, 0
    3fe4:	0c055001 	stceq	0, cr5, [r5], {1}
    3fe8:	20215048 	eorcs	r5, r1, r8, asr #32
    3fec:	02510112 	subseq	r0, r1, #-2147483644	; 0x80000004
    3ff0:	1400c708 	strne	ip, [r0], #-1800	; 0xfffff8f8
    3ff4:	00009e40 	andeq	r9, r0, r0, asr #28
    3ff8:	000005b8 			; <UNDEFINED> instruction: 0x000005b8
    3ffc:	00000461 	andeq	r0, r0, r1, ror #8
    4000:	05500112 	ldrbeq	r0, [r0, #-274]	; 0xfffffeee
    4004:	2150680c 	cmpcs	r0, ip, lsl #16
    4008:	51011220 	tstpl	r1, r0, lsr #4
    400c:	010e0a03 	tsteq	lr, r3, lsl #20
    4010:	9e4c1400 	cdpls	4, 4, cr1, cr12, cr0, {0}
    4014:	05b80000 	ldreq	r0, [r8, #0]!
    4018:	047a0000 	ldrbteq	r0, [sl], #-0
    401c:	01120000 	tsteq	r2, r0
    4020:	00740250 	rsbseq	r0, r4, r0, asr r2
    4024:	01510112 	cmpeq	r1, r2, lsl r1
    4028:	500f0033 	andpl	r0, pc, r3, lsr r0	; <UNPREDICTABLE>
    402c:	a000009e 	mulge	r0, lr, r0
    4030:	00000005 	andeq	r0, r0, r5
    4034:	000a5f0e 	andeq	r5, sl, lr, lsl #30
    4038:	06350100 	ldrteq	r0, [r5], -r0, lsl #2
    403c:	00009f50 	andeq	r9, r0, r0, asr pc
    4040:	00000024 	andeq	r0, r0, r4, lsr #32
    4044:	04d39c01 	ldrbeq	r9, [r3], #3073	; 0xc01
    4048:	580f0000 	stmdapl	pc, {}	; <UNPREDICTABLE>
    404c:	9400009f 	strls	r0, [r0], #-159	; 0xffffff61
    4050:	0f000001 	svceq	0x00000001
    4054:	00009f5c 	andeq	r9, r0, ip, asr pc
    4058:	000005a0 	andeq	r0, r0, r0, lsr #11
    405c:	009f6814 	addseq	r6, pc, r4, lsl r8	; <UNPREDICTABLE>
    4060:	0004d300 	andeq	sp, r4, r0, lsl #6
    4064:	0004c900 	andeq	ip, r4, r0, lsl #18
    4068:	50011200 	andpl	r1, r1, r0, lsl #4
    406c:	50040c05 	andpl	r0, r4, r5, lsl #24
    4070:	01122021 	tsteq	r2, r1, lsr #32
    4074:	fe090251 	mcr2	2, 0, r0, cr9, cr1, {2}
    4078:	9f6c0f00 	svcls	0x006c0f00
    407c:	05a00000 	streq	r0, [r0, #0]!
    4080:	17000000 	strne	r0, [r0, -r0]
    4084:	00000a9e 	muleq	r0, lr, sl
    4088:	840d3101 	strhi	r3, [sp], #-257	; 0xfffffeff
    408c:	2000009d 	mulcs	r0, sp, r0
    4090:	01000000 	mrseq	r0, (UNDEF: 0)
    4094:	0005369c 	muleq	r5, ip, r6
    4098:	05d41800 	ldrbeq	r1, [r4, #2048]	; 0x800
    409c:	31010000 	mrscc	r0, (UNDEF: 1)
    40a0:	00053625 	andeq	r3, r5, r5, lsr #12
    40a4:	00273200 	eoreq	r3, r7, r0, lsl #4
    40a8:	00272e00 	eoreq	r2, r7, r0, lsl #28
    40ac:	61761300 	cmnvs	r6, r0, lsl #6
    40b0:	3101006c 	tstcc	r1, ip, rrx
    40b4:	00002c34 	andeq	r2, r0, r4, lsr ip
    40b8:	00275400 	eoreq	r5, r7, r0, lsl #8
    40bc:	00275000 	eoreq	r5, r7, r0
    40c0:	9d941400 	cfldrsls	mvf1, [r4]
    40c4:	05ac0000 	streq	r0, [ip, #0]!
    40c8:	05250000 	streq	r0, [r5, #-0]!
    40cc:	01120000 	tsteq	r2, r0
    40d0:	00740250 	rsbseq	r0, r4, r0, asr r2
    40d4:	9da01100 	stflss	f1, [r0]
    40d8:	05b80000 	ldreq	r0, [r8, #0]!
    40dc:	01120000 	tsteq	r2, r0
    40e0:	00740250 	rsbseq	r0, r4, r0, asr r2
    40e4:	040c0000 	streq	r0, [ip], #-0
    40e8:	0000053c 	andeq	r0, r0, ip, lsr r5
    40ec:	0a891719 	beq	fe249d58 <__bss_end__+0xfe23ea60>
    40f0:	2e010000 	cdpcs	0, 0, cr0, cr1, cr0, {0}
    40f4:	009da40d 	addseq	sl, sp, sp, lsl #8
    40f8:	00002000 	andeq	r2, r0, r0
    40fc:	a09c0100 	addsge	r0, ip, r0, lsl #2
    4100:	18000005 	stmdane	r0, {r0, r2}
    4104:	000005d4 	ldrdeq	r0, [r0], -r4
    4108:	36242e01 	strtcc	r2, [r4], -r1, lsl #28
    410c:	76000005 	strvc	r0, [r0], -r5
    4110:	72000027 	andvc	r0, r0, #39, 0	; 0x27
    4114:	13000027 	movwne	r0, #39	; 0x27
    4118:	006c6176 	rsbeq	r6, ip, r6, ror r1
    411c:	2c332e01 	ldccs	14, cr2, [r3], #-4
    4120:	98000000 	stmdals	r0, {}	; <UNPREDICTABLE>
    4124:	94000027 	strls	r0, [r0], #-39	; 0xffffffd9
    4128:	14000027 	strne	r0, [r0], #-39	; 0xffffffd9
    412c:	00009db4 			; <UNDEFINED> instruction: 0x00009db4
    4130:	000005ac 	andeq	r0, r0, ip, lsr #11
    4134:	0000058f 	andeq	r0, r0, pc, lsl #11
    4138:	02500112 	subseq	r0, r0, #-2147483644	; 0x80000004
    413c:	11000074 	tstne	r0, r4, ror r0
    4140:	00009dc0 	andeq	r9, r0, r0, asr #27
    4144:	000005b8 			; <UNDEFINED> instruction: 0x000005b8
    4148:	02500112 	subseq	r0, r0, #-2147483644	; 0x80000004
    414c:	00000074 	andeq	r0, r0, r4, ror r0
    4150:	00086c1a 	andeq	r6, r8, sl, lsl ip
    4154:	00086c00 	andeq	r6, r8, r0, lsl #24
    4158:	069c0300 	ldreq	r0, [ip], r0, lsl #6
    415c:	000ad31a 	andeq	sp, sl, sl, lsl r3
    4160:	000ad300 	andeq	sp, sl, r0, lsl #6
    4164:	0bc30300 	bleq	ff0c4d6c <__bss_end__+0xff0b9a74>
    4168:	0008c71a 	andeq	ip, r8, sl, lsl r7
    416c:	0008c700 	andeq	ip, r8, r0, lsl #14
    4170:	06ae0300 	strteq	r0, [lr], r0, lsl #6
    4174:	000ac11a 	andeq	ip, sl, sl, lsl r1
    4178:	000ac100 	andeq	ip, sl, r0, lsl #2
    417c:	06190400 	ldreq	r0, [r9], -r0, lsl #8
    4180:	0008e900 	andeq	lr, r8, r0, lsl #18
    4184:	b7000400 	strlt	r0, [r0, -r0, lsl #8]
    4188:	04000016 	streq	r0, [r0], #-22	; 0xffffffea
    418c:	0009c701 	andeq	ip, r9, r1, lsl #14
    4190:	0b5d0c00 	bleq	1747198 <__bss_end__+0x173bea0>
    4194:	09770000 	ldmdbeq	r7!, {}^	; <UNPREDICTABLE>
    4198:	9f740000 	svcls	0x00740000
    419c:	03b00000 	movseq	r0, #0, 0
    41a0:	21900000 	orrscs	r0, r0, r0
    41a4:	04020000 	streq	r0, [r2], #-0
    41a8:	746e6905 	strbtvc	r6, [lr], #-2309	; 0xfffff6fb
    41ac:	07040300 	streq	r0, [r4, -r0, lsl #6]
    41b0:	000001e2 	andeq	r0, r0, r2, ror #3
    41b4:	58060103 	stmdapl	r6, {r0, r1, r8}
    41b8:	03000000 	movweq	r0, #0
    41bc:	02220502 	eoreq	r0, r2, #8388608	; 0x800000
    41c0:	04030000 	streq	r0, [r3], #-0
    41c4:	00020605 	andeq	r0, r2, r5, lsl #12
    41c8:	05080300 	streq	r0, [r8, #-768]	; 0xfffffd00
    41cc:	00000201 	andeq	r0, r0, r1, lsl #4
    41d0:	56080103 	strpl	r0, [r8], -r3, lsl #2
    41d4:	03000000 	movweq	r0, #0
    41d8:	00710702 	rsbseq	r0, r1, r2, lsl #14
    41dc:	67040000 	strvs	r0, [r4, -r0]
    41e0:	03000002 	movweq	r0, #2
    41e4:	00691934 	rsbeq	r1, r9, r4, lsr r9
    41e8:	04030000 	streq	r0, [r3], #-0
    41ec:	0001dd07 	andeq	sp, r1, r7, lsl #26
    41f0:	07080300 	streq	r0, [r8, -r0, lsl #6]
    41f4:	000001d8 	ldrdeq	r0, [r0], -r8
    41f8:	5f080103 	svcpl	0x00080103
    41fc:	05000000 	streq	r0, [r0, #-0]
    4200:	00000077 	andeq	r0, r0, r7, ror r0
    4204:	6a040803 	bvs	106218 <__bss_end__+0xfaf20>
    4208:	06000003 	streq	r0, [r0], -r3
    420c:	04070704 	streq	r0, [r7], #-1796	; 0xfffff8fc
    4210:	0000002c 	andeq	r0, r0, ip, lsr #32
    4214:	a4061f01 	strge	r1, [r6], #-3841	; 0xfffff0ff
    4218:	08000000 	stmdaeq	r0, {}	; <UNPREDICTABLE>
    421c:	00000af7 	strdeq	r0, [r0], -r7
    4220:	00200000 	eoreq	r0, r0, r0
    4224:	06cd0900 	strbeq	r0, [sp], r0, lsl #18
    4228:	22010000 	andcs	r0, r1, #0, 0
    422c:	0000770d 	andeq	r7, r0, sp, lsl #14
    4230:	045f0a00 	ldrbeq	r0, [pc], #-2560	; 4238 <__code_start__-0x3dc8>
    4234:	23010000 	movwcs	r0, #4096	; 0x1000
    4238:	0000c20e 	andeq	ip, r0, lr, lsl #4
    423c:	bc030500 	cfstr32lt	mvfx0, [r3], {-0}
    4240:	0b0000ae 	bleq	4500 <__code_start__-0x3b00>
    4244:	00007704 	andeq	r7, r0, r4, lsl #14
    4248:	0ae10a00 	beq	ff846a50 <__bss_end__+0xff83b758>
    424c:	24010000 	strcs	r0, [r1], #-0
    4250:	0000c20e 	andeq	ip, r0, lr, lsl #4
    4254:	c0030500 	andgt	r0, r3, r0, lsl #10
    4258:	0a0000ae 	beq	4518 <__code_start__-0x3ae8>
    425c:	00000b3c 	andeq	r0, r0, ip, lsr fp
    4260:	c20e2501 	andgt	r2, lr, #4194304	; 0x400000
    4264:	05000000 	streq	r0, [r0, #-0]
    4268:	00aec403 	adceq	ip, lr, r3, lsl #8
    426c:	0b120c00 	bleq	487274 <__bss_end__+0x47bf7c>
    4270:	75010000 	strvc	r0, [r1, #-0]
    4274:	00a2c406 	adceq	ip, r2, r6, lsl #8
    4278:	00006000 	andeq	r6, r0, r0
    427c:	649c0100 	ldrvs	r0, [ip], #256	; 0x100
    4280:	0d000001 	stceq	0, cr0, [r0, #-4]
    4284:	75010070 	strvc	r0, [r1, #-112]	; 0xffffff90
    4288:	00008a16 	andeq	r8, r0, r6, lsl sl
    428c:	0027bc00 	eoreq	fp, r7, r0, lsl #24
    4290:	0027b600 	eoreq	fp, r7, r0, lsl #12
    4294:	01bb0e00 			; <UNDEFINED> instruction: 0x01bb0e00
    4298:	01740000 	cmneq	r4, r0
    429c:	03050000 	movweq	r0, #20480	; 0x5000
    42a0:	0000aeac 	andeq	sl, r0, ip, lsr #29
    42a4:	00a3100f 	adceq	r1, r3, pc
    42a8:	0008bc00 	andeq	fp, r8, r0, lsl #24
    42ac:	00015a00 	andeq	r5, r1, r0, lsl #20
    42b0:	50011000 	andpl	r1, r1, r0
    42b4:	ae240305 	cdpge	3, 2, cr0, cr4, cr5, {0}
    42b8:	01100000 	tsteq	r0, r0
    42bc:	bc030551 	cfstr32lt	mvfx0, [r3], {81}	; 0x51
    42c0:	100000ac 	andne	r0, r0, ip, lsr #1
    42c4:	03055201 	movweq	r5, #20993	; 0x5201
    42c8:	0000aeac 	andeq	sl, r0, ip, lsr #29
    42cc:	02530110 	subseq	r0, r3, #4
    42d0:	02107708 	andseq	r7, r0, #8, 14	; 0x200000
    42d4:	f303007d 	vqadd.u8	q0, <illegal reg q1.5>, <illegal reg q14.5>
    42d8:	11005001 	tstne	r0, r1
    42dc:	0000a314 	andeq	sl, r0, r4, lsl r3
    42e0:	000008c8 	andeq	r0, r0, r8, asr #17
    42e4:	007e1200 	rsbseq	r1, lr, r0, lsl #4
    42e8:	01740000 	cmneq	r4, r0
    42ec:	2c130000 	ldccs	0, cr0, [r3], {-0}
    42f0:	09000000 	stmdbeq	r0, {}	; <UNPREDICTABLE>
    42f4:	01640500 	cmneq	r4, r0, lsl #10
    42f8:	00140000 	andseq	r0, r4, r0
    42fc:	0100000b 	tsteq	r0, fp
    4300:	a2b00672 	adcsge	r0, r0, #119537664	; 0x7200000
    4304:	00140000 	andseq	r0, r4, r0
    4308:	9c010000 	stcls	0, cr0, [r1], {-0}
    430c:	00021c0c 	andeq	r1, r2, ip, lsl #24
    4310:	066f0100 	strbteq	r0, [pc], -r0, lsl #2
    4314:	0000a2ac 	andeq	sl, r0, ip, lsr #5
    4318:	00000004 	andeq	r0, r0, r4
    431c:	01ae9c01 			; <UNDEFINED> instruction: 0x01ae9c01
    4320:	70150000 	andsvc	r0, r5, r0
    4324:	126f0100 	rsbne	r0, pc, #0
    4328:	0000008a 	andeq	r0, r0, sl, lsl #1
    432c:	16005001 	strne	r5, [r0], -r1
    4330:	00000b9f 	muleq	r0, pc, fp	; <UNPREDICTABLE>
    4334:	8a075e01 	bhi	1dbb40 <__bss_end__+0x1d0848>
    4338:	94000000 	strls	r0, [r0], #-0
    433c:	180000a1 	stmdane	r0, {r0, r5, r7}
    4340:	01000001 	tsteq	r0, r1
    4344:	00042c9c 	muleq	r4, ip, ip
    4348:	03251700 			; <UNDEFINED> instruction: 0x03251700
    434c:	5e010000 	cdppl	0, 0, cr0, cr1, cr0, {0}
    4350:	00002c20 	andeq	r2, r0, r0, lsr #24
    4354:	0027fd00 	eoreq	pc, r7, r0, lsl #26
    4358:	0027e900 	eoreq	lr, r7, r0, lsl #18
    435c:	0b1c1700 	bleq	709f64 <__bss_end__+0x6fec6c>
    4360:	5e010000 	cdppl	0, 0, cr0, cr1, cr0, {0}
    4364:	00002c31 	andeq	r2, r0, r1, lsr ip
    4368:	00289600 	eoreq	r9, r8, r0, lsl #12
    436c:	00288200 	eoreq	r8, r8, r0, lsl #4
    4370:	01bb0e00 			; <UNDEFINED> instruction: 0x01bb0e00
    4374:	043c0000 	ldrteq	r0, [ip], #-0
    4378:	03050000 	movweq	r0, #20480	; 0x5000
    437c:	0000ae94 	muleq	r0, r4, lr
    4380:	01006818 	tsteq	r0, r8, lsl r8
    4384:	002c0e66 	eoreq	r0, ip, r6, ror #28
    4388:	294c0000 	stmdbcs	ip, {}^	; <UNPREDICTABLE>
    438c:	29400000 	stmdbcs	r0, {}^	; <UNPREDICTABLE>
    4390:	54190000 	ldrpl	r0, [r9], #-0
    4394:	a4000008 	strge	r0, [r0], #-8
    4398:	040000a1 	streq	r0, [r0], #-161	; 0xffffff5f
    439c:	0000a1a4 	andeq	sl, r0, r4, lsr #3
    43a0:	00000004 	andeq	r0, r0, r4
    43a4:	38056001 	stmdacc	r5, {r0, sp, lr}
    43a8:	1a000002 	bne	43b8 <__code_start__-0x3c48>
    43ac:	00000865 	andeq	r0, r0, r5, ror #16
    43b0:	000029a0 	andeq	r2, r0, r0, lsr #19
    43b4:	0000299e 	muleq	r0, lr, r9
    43b8:	08961900 	ldmeq	r6, {r8, fp, ip}
    43bc:	a1b00000 	movsge	r0, r0
    43c0:	b0020000 	andlt	r0, r2, r0
    43c4:	080000a1 	stmdaeq	r0, {r0, r5, r7}
    43c8:	01000000 	mrseq	r0, (UNDEF: 0)
    43cc:	026c1161 	rsbeq	r1, ip, #1073741848	; 0x40000018
    43d0:	b11a0000 	tstlt	sl, r0
    43d4:	b5000008 	strlt	r0, [r0, #-8]
    43d8:	b3000029 	movwlt	r0, #41	; 0x29
    43dc:	1a000029 	bne	4488 <__code_start__-0x3b78>
    43e0:	000008a7 	andeq	r0, r0, r7, lsr #17
    43e4:	000029cb 	andeq	r2, r0, fp, asr #19
    43e8:	000029c9 	andeq	r2, r0, r9, asr #19
    43ec:	081f1b00 	ldmdaeq	pc, {r8, r9, fp, ip}	; <UNPREDICTABLE>
    43f0:	a1c00000 	bicge	r0, r0, r0
    43f4:	78010000 	stmdavc	r1, {}	; <UNPREDICTABLE>
    43f8:	01000004 	tsteq	r0, r4
    43fc:	030a0967 	movweq	r0, #43367	; 0xa967
    4400:	3a1a0000 	bcc	684408 <__bss_end__+0x679110>
    4404:	e4000008 	str	r0, [r0], #-8
    4408:	de000029 	cdple	0, 0, cr0, cr0, cr9, {1}
    440c:	1a000029 	bne	44b8 <__code_start__-0x3b48>
    4410:	00000830 	andeq	r0, r0, r0, lsr r8
    4414:	00002a2b 	andeq	r2, r0, fp, lsr #20
    4418:	00002a23 	andeq	r2, r0, r3, lsr #20
    441c:	0004781c 	andeq	r7, r4, ip, lsl r8
    4420:	08541900 	ldmdaeq	r4, {r8, fp, ip}^
    4424:	a1c00000 	bicge	r0, r0, r0
    4428:	c0040000 	andgt	r0, r4, r0
    442c:	040000a1 	streq	r0, [r0], #-161	; 0xffffff5f
    4430:	01000000 	mrseq	r0, (UNDEF: 0)
    4434:	02c70511 	sbceq	r0, r7, #71303168	; 0x4400000
    4438:	651a0000 	ldrvs	r0, [sl, #-0]
    443c:	69000008 	stmdbvs	r0, {r3}
    4440:	6700002a 	strvs	r0, [r0, -sl, lsr #32]
    4444:	0000002a 	andeq	r0, r0, sl, lsr #32
    4448:	00a2580f 	adceq	r5, r2, pc, lsl #16
    444c:	0008bc00 	andeq	fp, r8, r0, lsl #24
    4450:	0002ff00 	andeq	pc, r2, r0, lsl #30
    4454:	50011000 	andpl	r1, r1, r0
    4458:	a7140305 	ldrge	r0, [r4, -r5, lsl #6]
    445c:	01100000 	tsteq	r0, r0
    4460:	bc030551 	cfstr32lt	mvfx0, [r3], {81}	; 0x51
    4464:	100000ac 	andne	r0, r0, ip, lsr #1
    4468:	03055201 	movweq	r5, #20993	; 0x5201
    446c:	0000aea4 	andeq	sl, r0, r4, lsr #29
    4470:	01530110 	cmpeq	r3, r0, lsl r1
    4474:	7d021041 	stcvc	0, cr1, [r2, #-260]	; 0xfffffefc
    4478:	d0030500 	andle	r0, r3, r0, lsl #10
    447c:	000000ad 	andeq	r0, r0, sp, lsr #1
    4480:	00a25c11 	adceq	r5, r2, r1, lsl ip
    4484:	0008c800 	andeq	ip, r8, r0, lsl #16
    4488:	19000000 	stmdbne	r0, {}	; <UNPREDICTABLE>
    448c:	00000870 	andeq	r0, r0, r0, ror r8
    4490:	0000a1d8 	ldrdeq	sl, [r0], -r8
    4494:	00a1d803 	adceq	sp, r1, r3, lsl #16
    4498:	00000400 	andeq	r0, r0, r0, lsl #8
    449c:	05680100 	strbeq	r0, [r8, #-256]!	; 0xffffff00
    44a0:	0000033e 	andeq	r0, r0, lr, lsr r3
    44a4:	00088b1a 	andeq	r8, r8, sl, lsl fp
    44a8:	002a7e00 	eoreq	r7, sl, r0, lsl #28
    44ac:	002a7c00 	eoreq	r7, sl, r0, lsl #24
    44b0:	08811a00 	stmeq	r1, {r9, fp, ip}
    44b4:	2a930000 	bcs	fe4c44bc <__bss_end__+0xfe4b91c4>
    44b8:	2a910000 	bcs	fe4444c0 <__bss_end__+0xfe4391c8>
    44bc:	0f000000 	svceq	0x00000000
    44c0:	0000a1f0 	strdeq	sl, [r0], -r0
    44c4:	00000441 	andeq	r0, r0, r1, asr #8
    44c8:	00000353 	andeq	r0, r0, r3, asr r3
    44cc:	03500110 	cmpeq	r0, #4
    44d0:	005001f3 	ldrsheq	r0, [r0], #-19	; 0xffffffed
    44d4:	00a2140f 	adceq	r1, r2, pc, lsl #8
    44d8:	0008bc00 	andeq	fp, r8, r0, lsl #24
    44dc:	00038c00 	andeq	r8, r3, r0, lsl #24
    44e0:	50011000 	andpl	r1, r1, r0
    44e4:	a7140305 	ldrge	r0, [r4, -r5, lsl #6]
    44e8:	01100000 	tsteq	r0, r0
    44ec:	bc030551 	cfstr32lt	mvfx0, [r3], {81}	; 0x51
    44f0:	100000ac 	andne	r0, r0, ip, lsr #1
    44f4:	03055201 	movweq	r5, #20993	; 0x5201
    44f8:	0000ae94 	muleq	r0, r4, lr
    44fc:	02530110 	subseq	r0, r3, #4
    4500:	02105f08 	andseq	r5, r0, #8, 30
    4504:	0305007d 	movweq	r0, #20605	; 0x507d
    4508:	0000accc 	andeq	sl, r0, ip, asr #25
    450c:	a2181100 	andsge	r1, r8, #0
    4510:	08c80000 	stmiaeq	r8, {}^	; <UNPREDICTABLE>
    4514:	1c110000 	ldcne	0, cr0, [r1], {-0}
    4518:	d40000a2 	strle	r0, [r0], #-162	; 0xffffff5e
    451c:	0f000008 	svceq	0x00000008
    4520:	0000a238 	andeq	sl, r0, r8, lsr r2
    4524:	000008bc 			; <UNDEFINED> instruction: 0x000008bc
    4528:	000003d7 	ldrdeq	r0, [r0], -r7
    452c:	05500110 	ldrbeq	r0, [r0, #-272]	; 0xfffffef0
    4530:	00ad8803 	adceq	r8, sp, r3, lsl #16
    4534:	51011000 	mrspl	r1, (UNDEF: 1)
    4538:	acbc0305 	ldcge	3, cr0, [ip], #20
    453c:	01100000 	tsteq	r0, r0
    4540:	94030552 	strls	r0, [r3], #-1362	; 0xfffffaae
    4544:	100000ae 	andne	r0, r0, lr, lsr #1
    4548:	08025301 	stmdaeq	r2, {r0, r8, r9, ip, lr}
    454c:	7d021060 	stcvc	0, cr1, [r2, #-384]	; 0xfffffe80
    4550:	bc030500 	cfstr32lt	mvfx0, [r3], {-0}
    4554:	000000ad 	andeq	r0, r0, sp, lsr #1
    4558:	00a23c11 	adceq	r3, r2, r1, lsl ip
    455c:	0008c800 	andeq	ip, r8, r0, lsl #16
    4560:	a2601100 	rsbge	r1, r0, #0
    4564:	08d40000 	ldmeq	r4, {}^	; <UNPREDICTABLE>
    4568:	7c0f0000 	stcvc	0, cr0, [pc], {-0}
    456c:	bc0000a2 	stclt	0, cr0, [r0], {162}	; 0xa2
    4570:	22000008 	andcs	r0, r0, #8, 0
    4574:	10000004 	andne	r0, r0, r4
    4578:	03055001 	movweq	r5, #20481	; 0x5001
    457c:	0000addc 	ldrdeq	sl, [r0], -ip
    4580:	05510110 	ldrbeq	r0, [r1, #-272]	; 0xfffffef0
    4584:	00acbc03 	adceq	fp, ip, r3, lsl #24
    4588:	52011000 	andpl	r1, r1, #0, 0
    458c:	ae940305 	cdpge	3, 9, cr0, cr4, cr5, {0}
    4590:	01100000 	tsteq	r0, r0
    4594:	68080253 	stmdavs	r8, {r0, r1, r4, r6, r9}
    4598:	007d0210 	rsbseq	r0, sp, r0, lsl r2
    459c:	ae080305 	cdpge	3, 0, cr0, cr8, cr5, {0}
    45a0:	11000000 	mrsne	r0, (UNDEF: 0)
    45a4:	0000a280 	andeq	sl, r0, r0, lsl #5
    45a8:	000008c8 	andeq	r0, r0, r8, asr #17
    45ac:	007e1200 	rsbseq	r1, lr, r0, lsl #4
    45b0:	043c0000 	ldrteq	r0, [ip], #-0
    45b4:	2c130000 	ldccs	0, cr0, [r3], {-0}
    45b8:	0f000000 	svceq	0x00000000
    45bc:	042c0500 	strteq	r0, [ip], #-1280	; 0xfffffb00
    45c0:	a7160000 	ldrge	r0, [r6, -r0]
    45c4:	01000004 	tsteq	r0, r4
    45c8:	008a0753 	addeq	r0, sl, r3, asr r7
    45cc:	a1300000 	teqge	r0, r0
    45d0:	00640000 	rsbeq	r0, r4, r0
    45d4:	9c010000 	stcls	0, cr0, [r1], {-0}
    45d8:	00000508 	andeq	r0, r0, r8, lsl #10
    45dc:	00032517 	andeq	r2, r3, r7, lsl r5
    45e0:	18530100 	ldmdane	r3, {r8}^
    45e4:	0000002c 	andeq	r0, r0, ip, lsr #32
    45e8:	00002aae 	andeq	r2, r0, lr, lsr #21
    45ec:	00002aa6 	andeq	r2, r0, r6, lsr #21
    45f0:	0001bb0e 	andeq	fp, r1, lr, lsl #22
    45f4:	00051800 	andeq	r1, r5, r0, lsl #16
    45f8:	8c030500 	cfstr32hi	mvfx0, [r3], {-0}
    45fc:	1d0000ae 	stcne	0, cr0, [r0, #-696]	; 0xfffffd48
    4600:	000005d4 	ldrdeq	r0, [r0], -r4
    4604:	8a0b5501 	bhi	2d9a10 <__bss_end__+0x2ce718>
    4608:	e6000000 	str	r0, [r0], -r0
    460c:	e200002a 	and	r0, r0, #42, 0	; 0x2a
    4610:	0f00002a 	svceq	0x0000002a
    4614:	0000a148 	andeq	sl, r0, r8, asr #2
    4618:	0000051d 	andeq	r0, r0, sp, lsl r5
    461c:	000004a6 	andeq	r0, r0, r6, lsr #9
    4620:	02500110 	subseq	r0, r0, #4
    4624:	0f000074 	svceq	0x00000074
    4628:	0000a158 	andeq	sl, r0, r8, asr r1
    462c:	000008e0 	andeq	r0, r0, r0, ror #17
    4630:	000004c5 	andeq	r0, r0, r5, asr #9
    4634:	02500110 	subseq	r0, r0, #4
    4638:	01100075 	tsteq	r0, r5, ror r0
    463c:	10300151 	eorsne	r0, r0, r1, asr r1
    4640:	74025201 	strvc	r5, [r2], #-513	; 0xfffffdff
    4644:	800f0000 	andhi	r0, pc, r0
    4648:	bc0000a1 	stclt	0, cr0, [r0], {161}	; 0xa1
    464c:	fe000008 	cdp2	0, 0, cr0, cr0, cr8, {0}
    4650:	10000004 	andne	r0, r0, r4
    4654:	03055001 	movweq	r5, #20481	; 0x5001
    4658:	0000a714 	andeq	sl, r0, r4, lsl r7
    465c:	05510110 	ldrbeq	r0, [r1, #-272]	; 0xfffffef0
    4660:	00acbc03 	adceq	fp, ip, r3, lsl #24
    4664:	52011000 	andpl	r1, r1, #0, 0
    4668:	ae8c0305 	cdpge	3, 8, cr0, cr12, cr5, {0}
    466c:	01100000 	tsteq	r0, r0
    4670:	54080253 	strpl	r0, [r8], #-595	; 0xfffffdad
    4674:	007d0210 	rsbseq	r0, sp, r0, lsl r2
    4678:	accc0305 	stclge	3, cr0, [ip], {5}
    467c:	11000000 	mrsne	r0, (UNDEF: 0)
    4680:	0000a184 	andeq	sl, r0, r4, lsl #3
    4684:	000008c8 	andeq	r0, r0, r8, asr #17
    4688:	007e1200 	rsbseq	r1, lr, r0, lsl #4
    468c:	05180000 	ldreq	r0, [r8, #-0]
    4690:	2c130000 	ldccs	0, cr0, [r3], {-0}
    4694:	07000000 	streq	r0, [r0, -r0]
    4698:	05080500 	streq	r0, [r8, #-1280]	; 0xfffffb00
    469c:	45160000 	ldrmi	r0, [r6, #-0]
    46a0:	0100000b 	tsteq	r0, fp
    46a4:	008a0747 	addeq	r0, sl, r7, asr #14
    46a8:	a0980000 	addsge	r0, r8, r0
    46ac:	00980000 	addseq	r0, r8, r0
    46b0:	9c010000 	stcls	0, cr0, [r1], {-0}
    46b4:	0000062b 	andeq	r0, r0, fp, lsr #12
    46b8:	00032517 	andeq	r2, r3, r7, lsl r5
    46bc:	20470100 	subcs	r0, r7, r0, lsl #2
    46c0:	0000002c 	andeq	r0, r0, ip, lsr #32
    46c4:	00002b14 	andeq	r2, r0, r4, lsl fp
    46c8:	00002b04 	andeq	r2, r0, r4, lsl #22
    46cc:	0001bb0e 	andeq	fp, r1, lr, lsl #22
    46d0:	00043c00 	andeq	r3, r4, r0, lsl #24
    46d4:	7c030500 	cfstr32vc	mvfx0, [r3], {-0}
    46d8:	1d0000ae 	stcne	0, cr0, [r0, #-696]	; 0xfffffd48
    46dc:	000005d4 	ldrdeq	r0, [r0], -r4
    46e0:	8a0b4b01 	bhi	2d72ec <__bss_end__+0x2cbff4>
    46e4:	86000000 	strhi	r0, [r0], -r0
    46e8:	8200002b 	andhi	r0, r0, #43, 0	; 0x2b
    46ec:	1b00002b 	blne	47a0 <__code_start__-0x3860>
    46f0:	0000081f 	andeq	r0, r0, pc, lsl r8
    46f4:	0000a0a8 	andeq	sl, r0, r8, lsr #1
    46f8:	00046003 	andeq	r6, r4, r3
    46fc:	0e490100 	dvfeqe	f0, f1, f0
    4700:	000005a3 	andeq	r0, r0, r3, lsr #11
    4704:	00083a1a 	andeq	r3, r8, sl, lsl sl
    4708:	002ba600 	eoreq	sl, fp, r0, lsl #12
    470c:	002ba400 	eoreq	sl, fp, r0, lsl #8
    4710:	08301a00 	ldmdaeq	r0!, {r9, fp, ip}
    4714:	2bbe0000 	blcs	fef8471c <__bss_end__+0xfef79424>
    4718:	2bba0000 	blcs	fee84720 <__bss_end__+0xfee79428>
    471c:	601e0000 	andsvs	r0, lr, r0
    4720:	00000004 	andeq	r0, r0, r4
    4724:	00a0f00f 	adceq	pc, r0, pc
    4728:	0008bc00 	andeq	fp, r8, r0, lsl #24
    472c:	0005dc00 	andeq	sp, r5, r0, lsl #24
    4730:	50011000 	andpl	r1, r1, r0
    4734:	a7140305 	ldrge	r0, [r4, -r5, lsl #6]
    4738:	01100000 	tsteq	r0, r0
    473c:	bc030551 	cfstr32lt	mvfx0, [r3], {81}	; 0x51
    4740:	100000ac 	andne	r0, r0, ip, lsr #1
    4744:	03055201 	movweq	r5, #20993	; 0x5201
    4748:	0000ae7c 	andeq	sl, r0, ip, ror lr
    474c:	02530110 	subseq	r0, r3, #4
    4750:	02104808 	andseq	r4, r0, #8, 16	; 0x80000
    4754:	0305007d 	movweq	r0, #20605	; 0x507d
    4758:	0000accc 	andeq	sl, r0, ip, asr #25
    475c:	a0f41100 	rscsge	r1, r4, r0, lsl #2
    4760:	08c80000 	stmiaeq	r8, {}^	; <UNPREDICTABLE>
    4764:	140f0000 	strne	r0, [pc], #-0	; 476c <__code_start__-0x3894>
    4768:	bc0000a1 	stclt	0, cr0, [r0], {161}	; 0xa1
    476c:	21000008 	tstcs	r0, r8
    4770:	10000006 	andne	r0, r0, r6
    4774:	03055001 	movweq	r5, #20481	; 0x5001
    4778:	0000ad48 	andeq	sl, r0, r8, asr #26
    477c:	05510110 	ldrbeq	r0, [r1, #-272]	; 0xfffffef0
    4780:	00acbc03 	adceq	fp, ip, r3, lsl #24
    4784:	52011000 	andpl	r1, r1, #0, 0
    4788:	ae7c0305 	cdpge	3, 7, cr0, cr12, cr5, {0}
    478c:	01100000 	tsteq	r0, r0
    4790:	4e080253 	mcrmi	2, 0, r0, cr8, cr3, {2}
    4794:	007d0210 	rsbseq	r0, sp, r0, lsl r2
    4798:	5001f308 	andpl	pc, r1, r8, lsl #6
    479c:	f8090723 			; <UNDEFINED> instruction: 0xf8090723
    47a0:	1811001a 	ldmdane	r1, {r1, r3, r4}
    47a4:	c80000a1 	stmdagt	r0, {r0, r5, r7}
    47a8:	00000008 	andeq	r0, r0, r8
    47ac:	000b670c 	andeq	r6, fp, ip, lsl #14
    47b0:	063c0100 	ldrteq	r0, [ip], -r0, lsl #2
    47b4:	0000a040 	andeq	sl, r0, r0, asr #32
    47b8:	00000058 	andeq	r0, r0, r8, asr r0
    47bc:	06cf9c01 	strbeq	r9, [pc], r1, lsl #24
    47c0:	c80a0000 	stmdagt	sl, {}	; <UNPREDICTABLE>
    47c4:	01000003 	tsteq	r0, r3
    47c8:	0025103d 	eoreq	r1, r5, sp, lsr r0
    47cc:	03050000 	movweq	r0, #20480	; 0x5000
    47d0:	0000b2f4 	strdeq	fp, [r0], -r4
    47d4:	0001bb0e 	andeq	fp, r1, lr, lsl #22
    47d8:	0006df00 	andeq	sp, r6, r0, lsl #30
    47dc:	6c030500 	cfstr32vs	mvfx0, [r3], {-0}
    47e0:	070000ae 	streq	r0, [r0, -lr, lsr #1]
    47e4:	002c0407 	eoreq	r0, ip, r7, lsl #8
    47e8:	42010000 	andmi	r0, r1, #0, 0
    47ec:	00067a0a 	andeq	r7, r6, sl, lsl #20
    47f0:	0b2e0800 	bleq	b867f8 <__bss_end__+0xb7b500>
    47f4:	00000000 	andeq	r0, r0, r0
    47f8:	0f000010 	svceq	0x00000010
    47fc:	0000a06c 	andeq	sl, r0, ip, rrx
    4800:	000006e4 	andeq	r0, r0, r4, ror #13
    4804:	00000696 	muleq	r0, r6, r6
    4808:	03500110 	cmpeq	r0, #4
    480c:	10244040 	eorne	r4, r4, r0, asr #32
    4810:	40035101 	andmi	r5, r3, r1, lsl #2
    4814:	0f002448 	svceq	0x00002448
    4818:	0000a084 	andeq	sl, r0, r4, lsl #1
    481c:	000008bc 			; <UNDEFINED> instruction: 0x000008bc
    4820:	000006c5 	andeq	r0, r0, r5, asr #13
    4824:	05500110 	ldrbeq	r0, [r0, #-272]	; 0xfffffef0
    4828:	00ad1803 	adceq	r1, sp, r3, lsl #16
    482c:	51011000 	mrspl	r1, (UNDEF: 1)
    4830:	acbc0305 	ldcge	3, cr0, [ip], #20
    4834:	01100000 	tsteq	r0, r0
    4838:	6c030552 	cfstr32vs	mvfx0, [r3], {82}	; 0x52
    483c:	100000ae 	andne	r0, r0, lr, lsr #1
    4840:	08025301 	stmdaeq	r2, {r0, r8, r9, ip, lr}
    4844:	88110040 	ldmdahi	r1, {r6}
    4848:	c80000a0 	stmdagt	r0, {r5, r7}
    484c:	00000008 	andeq	r0, r0, r8
    4850:	00007e12 	andeq	r7, r0, r2, lsl lr
    4854:	0006df00 	andeq	sp, r6, r0, lsl #30
    4858:	002c1300 	eoreq	r1, ip, r0, lsl #6
    485c:	000c0000 	andeq	r0, ip, r0
    4860:	0006cf05 	andeq	ip, r6, r5, lsl #30
    4864:	04af0c00 	strteq	r0, [pc], #3072	; 486c <__code_start__-0x3794>
    4868:	2d010000 	stccs	0, cr0, [r1, #-0]
    486c:	009fa406 	addseq	sl, pc, r6, lsl #8
    4870:	00009c00 	andeq	r9, r0, r0, lsl #24
    4874:	c89c0100 	ldmgt	ip, {r8}
    4878:	17000007 	strne	r0, [r0, -r7]
    487c:	000005d3 	ldrdeq	r0, [r0], -r3
    4880:	2c262d01 	stccs	13, cr2, [r6], #-4
    4884:	ec000000 	stc	0, cr0, [r0], {-0}
    4888:	de00002b 	cdple	0, 0, cr0, cr0, cr11, {1}
    488c:	1700002b 	strne	r0, [r0, -fp, lsr #32]
    4890:	00000aec 	andeq	r0, r0, ip, ror #21
    4894:	2c362d01 	ldccs	13, cr2, [r6], #-4
    4898:	54000000 	strpl	r0, [r0], #-0
    489c:	4c00002c 	stcmi	0, cr0, [r0], {44}	; 0x2c
    48a0:	1d00002c 	stcne	0, cr0, [r0, #-176]	; 0xffffff50
    48a4:	000005d4 	ldrdeq	r0, [r0], -r4
    48a8:	c20b2e01 	andgt	r2, fp, #1, 28
    48ac:	9c000000 	stcls	0, cr0, [r0], {-0}
    48b0:	8e00002c 	cdphi	0, 0, cr0, cr0, cr12, {1}
    48b4:	0e00002c 	cdpeq	0, 0, cr0, cr0, cr12, {1}
    48b8:	000001bb 			; <UNDEFINED> instruction: 0x000001bb
    48bc:	000007d8 	ldrdeq	r0, [r0], -r8
    48c0:	ae540305 	cdpge	3, 5, cr0, cr4, cr5, {0}
    48c4:	fc0f0000 	stc2	0, cr0, [pc], {-0}
    48c8:	bc00009f 	stclt	0, cr0, [r0], {159}	; 0x9f
    48cc:	7e000008 	cdpvc	0, 0, cr0, cr0, cr8, {0}
    48d0:	10000007 	andne	r0, r0, r7
    48d4:	03055001 	movweq	r5, #20481	; 0x5001
    48d8:	0000a714 	andeq	sl, r0, r4, lsl r7
    48dc:	05510110 	ldrbeq	r0, [r1, #-272]	; 0xfffffef0
    48e0:	00acbc03 	adceq	fp, ip, r3, lsl #24
    48e4:	52011000 	andpl	r1, r1, #0, 0
    48e8:	ae540305 	cdpge	3, 5, cr0, cr4, cr5, {0}
    48ec:	01100000 	tsteq	r0, r0
    48f0:	30080253 	andcc	r0, r8, r3, asr r2
    48f4:	007d0210 	rsbseq	r0, sp, r0, lsl r2
    48f8:	acc80305 	stclge	3, cr0, [r8], {5}
    48fc:	11000000 	mrsne	r0, (UNDEF: 0)
    4900:	0000a000 	andeq	sl, r0, r0
    4904:	000008c8 	andeq	r0, r0, r8, asr #17
    4908:	00a0240f 	adceq	r2, r0, pc, lsl #8
    490c:	0008bc00 	andeq	fp, r8, r0, lsl #24
    4910:	0007be00 	andeq	fp, r7, r0, lsl #28
    4914:	50011000 	andpl	r1, r1, r0
    4918:	acd40305 	ldclge	3, cr0, [r4], {5}
    491c:	01100000 	tsteq	r0, r0
    4920:	bc030551 	cfstr32lt	mvfx0, [r3], {81}	; 0x51
    4924:	100000ac 	andne	r0, r0, ip, lsr #1
    4928:	03055201 	movweq	r5, #20993	; 0x5201
    492c:	0000ae54 	andeq	sl, r0, r4, asr lr
    4930:	02530110 	subseq	r0, r3, #4
    4934:	02103408 	andseq	r3, r0, #8, 8	; 0x8000000
    4938:	f303007d 	vqadd.u8	q0, <illegal reg q1.5>, <illegal reg q14.5>
    493c:	11005001 	tstne	r0, r1
    4940:	0000a028 	andeq	sl, r0, r8, lsr #32
    4944:	000008c8 	andeq	r0, r0, r8, asr #17
    4948:	007e1200 	rsbseq	r1, lr, r0, lsl #4
    494c:	07d80000 	ldrbeq	r0, [r8, r0]
    4950:	2c130000 	ldccs	0, cr0, [r3], {-0}
    4954:	16000000 	strne	r0, [r0], -r0
    4958:	07c80500 	strbeq	r0, [r8, r0, lsl #10]
    495c:	7f1f0000 	svcvc	0x001f0000
    4960:	0100000b 	tsteq	r0, fp
    4964:	008a072a 	addeq	r0, sl, sl, lsr #14
    4968:	9f940000 	svcls	0x00940000
    496c:	00100000 	andseq	r0, r0, r0
    4970:	9c010000 	stcls	0, cr0, [r1], {-0}
    4974:	000ad91f 	andeq	sp, sl, pc, lsl r9
    4978:	07290100 	streq	r0, [r9, -r0, lsl #2]!
    497c:	0000008a 	andeq	r0, r0, sl, lsl #1
    4980:	00009f84 	andeq	r9, r0, r4, lsl #31
    4984:	00000010 	andeq	r0, r0, r0, lsl r0
    4988:	341f9c01 	ldrcc	r9, [pc], #-3073	; 4990 <__code_start__-0x3670>
    498c:	0100000b 	tsteq	r0, fp
    4990:	008a0728 	addeq	r0, sl, r8, lsr #14
    4994:	9f740000 	svcls	0x00740000
    4998:	00100000 	andseq	r0, r0, r0
    499c:	9c010000 	stcls	0, cr0, [r1], {-0}
    49a0:	000b0a20 	andeq	r0, fp, r0, lsr #20
    49a4:	18100100 	ldmdane	r0, {r8}
    49a8:	0000002c 	andeq	r0, r0, ip, lsr #32
    49ac:	00085403 	andeq	r5, r8, r3, lsl #8
    49b0:	00782100 	rsbseq	r2, r8, r0, lsl #2
    49b4:	2c291001 	stccs	0, cr1, [r9], #-4
    49b8:	21000000 	mrscs	r0, (UNDEF: 0)
    49bc:	1001006e 	andne	r0, r1, lr, rrx
    49c0:	00002c35 	andeq	r2, r0, r5, lsr ip
    49c4:	01bb0e00 			; <UNDEFINED> instruction: 0x01bb0e00
    49c8:	05180000 	ldreq	r0, [r8, #-0]
    49cc:	03050000 	movweq	r0, #20480	; 0x5000
    49d0:	0000aea4 	andeq	sl, r0, r4, lsr #29
    49d4:	0b552000 	bleq	154c9dc <__bss_end__+0x15416e4>
    49d8:	0d010000 	stceq	0, cr0, [r1, #-0]
    49dc:	00002c18 	andeq	r2, r0, r8, lsl ip
    49e0:	08700300 	ldmdaeq	r0!, {r8, r9}^
    49e4:	78210000 	stmdavc	r1!, {}	; <UNPREDICTABLE>
    49e8:	290d0100 	stmdbcs	sp, {r8}
    49ec:	0000002c 	andeq	r0, r0, ip, lsr #32
    49f0:	0b742000 	bleq	1d0c9f8 <__bss_end__+0x1d01700>
    49f4:	07010000 	streq	r0, [r1, -r0]
    49f8:	00002c18 	andeq	r2, r0, r8, lsl ip
    49fc:	08960300 	ldmeq	r6, {r8, r9}
    4a00:	78210000 	stmdavc	r1!, {}	; <UNPREDICTABLE>
    4a04:	2c070100 	stfcss	f0, [r7], {-0}
    4a08:	0000002c 	andeq	r0, r0, ip, lsr #32
    4a0c:	01006e21 	tsteq	r0, r1, lsr #28
    4a10:	002c3807 	eoreq	r3, ip, r7, lsl #16
    4a14:	20000000 	andcs	r0, r0, r0
    4a18:	00000b26 	andeq	r0, r0, r6, lsr #22
    4a1c:	5d180401 	cfldrspl	mvf0, [r8, #-4]
    4a20:	03000000 	movweq	r0, #0
    4a24:	000008bc 			; <UNDEFINED> instruction: 0x000008bc
    4a28:	01007821 	tsteq	r0, r1, lsr #16
    4a2c:	005d2904 	subseq	r2, sp, r4, lsl #18
    4a30:	79210000 	stmdbvc	r1!, {}	; <UNPREDICTABLE>
    4a34:	35040100 	strcc	r0, [r4, #-256]	; 0xffffff00
    4a38:	0000005d 	andeq	r0, r0, sp, asr r0
    4a3c:	063b2200 	ldrteq	r2, [fp], -r0, lsl #4
    4a40:	063b0000 	ldrteq	r0, [fp], -r0
    4a44:	28020000 	stmdacs	r2, {}	; <UNPREDICTABLE>
    4a48:	00642206 	rsbeq	r2, r4, r6, lsl #4
    4a4c:	00640000 	rsbeq	r0, r4, r0
    4a50:	6e020000 	cdpvs	0, 0, cr0, cr2, cr0, {0}
    4a54:	0b902206 	bleq	fe40d274 <__bss_end__+0xfe401f7c>
    4a58:	0b900000 	bleq	fe404a60 <__bss_end__+0xfe3f9768>
    4a5c:	1d020000 	stcne	0, cr0, [r2, #-0]
    4a60:	01c82206 	biceq	r2, r8, r6, lsl #4
    4a64:	01c80000 	biceq	r0, r8, r0
    4a68:	f2020000 	vhadd.s8	d0, d2, d0
    4a6c:	06730007 	ldrbteq	r0, [r3], -r7
    4a70:	00040000 	andeq	r0, r4, r0
    4a74:	000018da 	ldrdeq	r1, [r0], -sl
    4a78:	05130104 	ldreq	r0, [r3, #-260]	; 0xfffffefc
    4a7c:	e20c0000 	and	r0, ip, #0, 0
    4a80:	d900000b 	stmdble	r0, {r0, r1, r3}
    4a84:	24000005 	strcs	r0, [r0], #-5
    4a88:	980000a3 	stmdals	r0, {r0, r1, r5, r7}
    4a8c:	26000001 	strcs	r0, [r0], -r1
    4a90:	02000025 	andeq	r0, r0, #37, 0	; 0x25
    4a94:	01d80708 	bicseq	r0, r8, r8, lsl #14
    4a98:	04020000 	streq	r0, [r2], #-0
    4a9c:	0001e207 	andeq	lr, r1, r7, lsl #4
    4aa0:	05040300 	streq	r0, [r4, #-768]	; 0xfffffd00
    4aa4:	00746e69 	rsbseq	r6, r4, r9, ror #28
    4aa8:	00002c04 	andeq	r2, r0, r4, lsl #24
    4aac:	06010200 	streq	r0, [r1], -r0, lsl #4
    4ab0:	00000058 	andeq	r0, r0, r8, asr r0
    4ab4:	22050202 	andcs	r0, r5, #536870912	; 0x20000000
    4ab8:	02000002 	andeq	r0, r0, #2, 0
    4abc:	02060504 	andeq	r0, r6, #4, 10	; 0x1000000
    4ac0:	08020000 	stmdaeq	r2, {}	; <UNPREDICTABLE>
    4ac4:	00020105 	andeq	r0, r2, r5, lsl #2
    4ac8:	08010200 	stmdaeq	r1, {r9}
    4acc:	00000056 	andeq	r0, r0, r6, asr r0
    4ad0:	71070202 	tstvc	r7, r2, lsl #4
    4ad4:	05000000 	streq	r0, [r0, #-0]
    4ad8:	00000267 	andeq	r0, r0, r7, ror #4
    4adc:	75193403 	ldrvc	r3, [r9, #-1027]	; 0xfffffbfd
    4ae0:	02000000 	andeq	r0, r0, #0, 0
    4ae4:	01dd0704 	bicseq	r0, sp, r4, lsl #14
    4ae8:	33060000 	movwcc	r0, #24576	; 0x6000
    4aec:	8b000000 	blhi	4af4 <__code_start__-0x350c>
    4af0:	07000000 	streq	r0, [r0, -r0]
    4af4:	00000033 	andeq	r0, r0, r3, lsr r0
    4af8:	020f0800 	andeq	r0, pc, #0, 16
    4afc:	1c020000 	stcne	0, cr0, [r2], {-0}
    4b00:	0000970e 	andeq	r9, r0, lr, lsl #14
    4b04:	7c040900 			; <UNDEFINED> instruction: 0x7c040900
    4b08:	06000000 	streq	r0, [r0], -r0
    4b0c:	00000033 	andeq	r0, r0, r3, lsr r0
    4b10:	000000ac 	andeq	r0, r0, ip, lsr #1
    4b14:	0000ac07 	andeq	sl, r0, r7, lsl #24
    4b18:	04090000 	streq	r0, [r9], #-0
    4b1c:	000000b9 	strheq	r0, [r0], -r9
    4b20:	5f080102 	svcpl	0x00080102
    4b24:	04000000 	streq	r0, [r0], #-0
    4b28:	000000b2 	strheq	r0, [r0], -r2
    4b2c:	00067908 	andeq	r7, r6, r8, lsl #18
    4b30:	0e210200 	cdpeq	2, 2, cr0, cr1, cr0, {0}
    4b34:	000000ca 	andeq	r0, r0, sl, asr #1
    4b38:	009d0409 	addseq	r0, sp, r9, lsl #8
    4b3c:	070a0000 	streq	r0, [sl, -r0]
    4b40:	00005b01 	andeq	r5, r0, r1, lsl #22
    4b44:	0e0c0400 	cfcpyseq	mvf0, mvf12
    4b48:	0000010f 	andeq	r0, r0, pc, lsl #2
    4b4c:	000ab10b 	andeq	fp, sl, fp, lsl #2
    4b50:	e90b0000 	stmdb	fp, {}	; <UNPREDICTABLE>
    4b54:	01000008 	tsteq	r0, r8
    4b58:	00092c0b 	andeq	r2, r9, fp, lsl #24
    4b5c:	3b0b0400 	blcc	2c5b64 <__bss_end__+0x2ba86c>
    4b60:	05000009 	streq	r0, [r0, #-9]
    4b64:	00094a0b 	andeq	r4, r9, fp, lsl #20
    4b68:	590b0600 	stmdbpl	fp, {r9, sl}
    4b6c:	07000009 	streq	r0, [r0, -r9]
    4b70:	000a7a0b 	andeq	r7, sl, fp, lsl #20
    4b74:	680b0300 	stmdavs	fp, {r8, r9}
    4b78:	02000009 	andeq	r0, r0, #9, 0
    4b7c:	0c1b0500 	cfldr32eq	mvfx0, [fp], {-0}
    4b80:	15040000 	strne	r0, [r4, #-0]
    4b84:	0000d003 	andeq	sp, r0, r3
    4b88:	0bb90c00 	bleq	fee47b90 <__bss_end__+0xfee3c898>
    4b8c:	1d010000 	stcne	0, cr0, [r1, #-0]
    4b90:	00003a17 	andeq	r3, r0, r7, lsl sl
    4b94:	20001c00 	andcs	r1, r0, r0, lsl #24
    4b98:	0baf0c20 	bleq	febc7c20 <__bss_end__+0xfebbc928>
    4b9c:	1e010000 	cdpne	0, 0, cr0, cr1, cr0, {0}
    4ba0:	00003a17 	andeq	r3, r0, r7, lsl sl
    4ba4:	20002800 	andcs	r2, r0, r0, lsl #16
    4ba8:	0c270c20 	stceq	12, cr0, [r7], #-128	; 0xffffff80
    4bac:	1f010000 	svcne	0x00010000
    4bb0:	00003a17 	andeq	r3, r0, r7, lsl sl
    4bb4:	20003400 	andcs	r3, r0, r0, lsl #8
    4bb8:	0bd80d20 	bleq	ff608040 <__bss_end__+0xff5fcd48>
    4bbc:	51010000 	mrspl	r0, (UNDEF: 1)
    4bc0:	00003305 	andeq	r3, r0, r5, lsl #6
    4bc4:	00a49400 	adceq	r9, r4, r0, lsl #8
    4bc8:	00002800 	andeq	r2, r0, r0, lsl #16
    4bcc:	ba9c0100 	blt	fe704fd4 <__bss_end__+0xfe6f9cdc>
    4bd0:	0e000001 	cdpeq	0, 0, cr0, cr0, cr1, {0}
    4bd4:	006e6970 	rsbeq	r6, lr, r0, ror r9
    4bd8:	2c185101 	ldfcss	f5, [r8], {1}
    4bdc:	02000000 	andeq	r0, r0, #0, 0
    4be0:	fc00002d 	stc2	0, cr0, [r0], {45}	; 0x2d
    4be4:	0f00002c 	svceq	0x0000002c
    4be8:	00000c31 	andeq	r0, r0, r1, lsr ip
    4bec:	2c0e5201 	sfmcs	f5, 4, [lr], {1}
    4bf0:	38000000 	stmdacc	r0, {}	; <UNPREDICTABLE>
    4bf4:	2e00002d 	cdpcs	0, 0, cr0, cr0, cr13, {1}
    4bf8:	1000002d 	andne	r0, r0, sp, lsr #32
    4bfc:	0066666f 	rsbeq	r6, r6, pc, ror #12
    4c00:	2c0e5301 	stccs	3, cr5, [lr], {1}
    4c04:	a6000000 	strge	r0, [r0], -r0
    4c08:	a000002d 	andge	r0, r0, sp, lsr #32
    4c0c:	1100002d 	tstne	r0, sp, lsr #32
    4c10:	0000a4a8 	andeq	sl, r0, r8, lsr #9
    4c14:	0000065e 	andeq	r0, r0, lr, asr r6
    4c18:	0a500112 	beq	1405068 <__bss_end__+0x13f9d70>
    4c1c:	25350074 	ldrcs	r0, [r5, #-116]!	; 0xffffff8c
    4c20:	8080b423 	addhi	fp, r0, r3, lsr #8
    4c24:	00000281 	andeq	r0, r0, r1, lsl #5
    4c28:	000bc313 	andeq	ip, fp, r3, lsl r3
    4c2c:	064a0100 	strbeq	r0, [sl], -r0, lsl #2
    4c30:	0000a464 	andeq	sl, r0, r4, ror #8
    4c34:	00000030 	andeq	r0, r0, r0, lsr r0
    4c38:	02759c01 	rsbseq	r9, r5, #256	; 0x100
    4c3c:	700e0000 	andvc	r0, lr, r0
    4c40:	01006e69 	tsteq	r0, r9, ror #28
    4c44:	002c1a4a 	eoreq	r1, ip, sl, asr #20
    4c48:	2de30000 	stclcs	0, cr0, [r3]
    4c4c:	2dd70000 	ldclcs	0, cr0, [r7]
    4c50:	760e0000 	strvc	r0, [lr], -r0
    4c54:	284a0100 	stmdacs	sl, {r8}^
    4c58:	0000002c 	andeq	r0, r0, ip, lsr #32
    4c5c:	00002e37 	andeq	r2, r0, r7, lsr lr
    4c60:	00002e33 	andeq	r2, r0, r3, lsr lr
    4c64:	00038d14 	andeq	r8, r3, r4, lsl sp
    4c68:	00a47400 	adceq	r7, r4, r0, lsl #8
    4c6c:	05300100 	ldreq	r0, [r0, #-256]!	; 0xffffff00
    4c70:	4c010000 	stcmi	0, cr0, [r1], {-0}
    4c74:	00023509 	andeq	r3, r2, r9, lsl #10
    4c78:	039a1500 	orrseq	r1, sl, #0, 10
    4c7c:	2e5e0000 	cdpcs	0, 5, cr0, cr14, cr0, {0}
    4c80:	2e580000 	cdpcs	0, 5, cr0, cr8, cr0, {0}
    4c84:	80160000 	andshi	r0, r6, r0
    4c88:	6a0000a4 	bvs	4f20 <__code_start__-0x30e0>
    4c8c:	12000006 	andne	r0, r0, #6, 0
    4c90:	0c055001 	stceq	0, cr5, [r5], {1}
    4c94:	2020001c 	eorcs	r0, r0, ip, lsl r0
    4c98:	05510112 	ldrbeq	r0, [r1, #-274]	; 0xfffffeee
    4c9c:	5001f331 	andpl	pc, r1, r1, lsr r3	; <UNPREDICTABLE>
    4ca0:	17000024 	strne	r0, [r0, -r4, lsr #32]
    4ca4:	00000373 	andeq	r0, r0, r3, ror r3
    4ca8:	0000a480 	andeq	sl, r0, r0, lsl #9
    4cac:	00a48002 	adceq	r8, r4, r2
    4cb0:	00001400 	andeq	r1, r0, r0, lsl #8
    4cb4:	094e0100 	stmdbeq	lr, {r8}^
    4cb8:	00038015 	andeq	r8, r3, r5, lsl r0
    4cbc:	002e9000 	eoreq	r9, lr, r0
    4cc0:	002e8a00 	eoreq	r8, lr, r0, lsl #20
    4cc4:	a48c1600 	strge	r1, [ip], #1536	; 0x600
    4cc8:	066a0000 	strbteq	r0, [sl], -r0
    4ccc:	01120000 	tsteq	r2, r0
    4cd0:	280c0550 	stmdacs	ip, {r4, r6, r8, sl}
    4cd4:	12202000 	eorne	r2, r0, #0, 0
    4cd8:	31055101 	tstcc	r5, r1, lsl #2
    4cdc:	245001f3 	ldrbcs	r0, [r0], #-499	; 0xfffffe0d
    4ce0:	13000000 	movwne	r0, #0
    4ce4:	00000bef 	andeq	r0, r0, pc, ror #23
    4ce8:	0c064501 	cfstr32eq	mvfx4, [r6], {1}
    4cec:	580000a4 	stmdapl	r0, {r2, r5, r7}
    4cf0:	01000000 	mrseq	r0, (UNDEF: 0)
    4cf4:	0003739c 	muleq	r3, ip, r3
    4cf8:	69700e00 	ldmdbvs	r0!, {r9, sl, fp}^
    4cfc:	4501006e 	strmi	r0, [r1, #-110]	; 0xffffff92
    4d00:	00002c1e 	andeq	r2, r0, lr, lsl ip
    4d04:	002ec200 	eoreq	ip, lr, r0, lsl #4
    4d08:	002ebc00 	eoreq	fp, lr, r0, lsl #24
    4d0c:	04a51800 	strteq	r1, [r5], #2048	; 0x800
    4d10:	a40c0000 	strge	r0, [ip], #-0
    4d14:	f0020000 			; <UNDEFINED> instruction: 0xf0020000
    4d18:	01000004 	tsteq	r0, r4
    4d1c:	be190546 	cfmac32lt	mvfx0, mvfx9, mvfx6
    4d20:	00000004 	andeq	r0, r0, r4
    4d24:	0004b215 	andeq	fp, r4, r5, lsl r2
    4d28:	002ef400 	eoreq	pc, lr, r0, lsl #8
    4d2c:	002eee00 	eoreq	lr, lr, r0, lsl #28
    4d30:	04f01a00 	ldrbteq	r1, [r0], #2560	; 0xa00
    4d34:	ca1b0000 	bgt	6c4d3c <__bss_end__+0x6b9a44>
    4d38:	1b000004 	blne	4d50 <__code_start__-0x32b0>
    4d3c:	000004d6 	ldrdeq	r0, [r0], -r6
    4d40:	0004e01b 	andeq	lr, r4, fp, lsl r0
    4d44:	04a51800 	strteq	r1, [r5], #2048	; 0x800
    4d48:	a4140000 	ldrge	r0, [r4], #-0
    4d4c:	10000000 	andne	r0, r0, r0
    4d50:	01000005 	tsteq	r0, r5
    4d54:	be190628 	cfmsub32lt	mvax1, mvfx0, mvfx9, mvfx8
    4d58:	00000004 	andeq	r0, r0, r4
    4d5c:	0004b215 	andeq	fp, r4, r5, lsl r2
    4d60:	002f2600 	eoreq	r2, pc, r0, lsl #12
    4d64:	002f2000 	eoreq	r2, pc, r0
    4d68:	05101a00 	ldreq	r1, [r0, #-2560]	; 0xfffff600
    4d6c:	ca1c0000 	bgt	704d74 <__bss_end__+0x6f9a7c>
    4d70:	58000004 	stmdapl	r0, {r2}
    4d74:	5200002f 	andpl	r0, r0, #47, 0	; 0x2f
    4d78:	1c00002f 	stcne	0, cr0, [r0], {47}	; 0x2f
    4d7c:	000004d6 	ldrdeq	r0, [r0], -r6
    4d80:	00002f9a 	muleq	r0, sl, pc	; <UNPREDICTABLE>
    4d84:	00002f94 	muleq	r0, r4, pc	; <UNPREDICTABLE>
    4d88:	0004e01c 	andeq	lr, r4, ip, lsl r0
    4d8c:	002ff000 	eoreq	pc, pc, r0
    4d90:	002fe800 	eoreq	lr, pc, r0, lsl #16
    4d94:	a43c1d00 	ldrtge	r1, [ip], #-3328	; 0xfffff300
    4d98:	065e0000 	ldrbeq	r0, [lr], -r0
    4d9c:	033b0000 	teqeq	fp, #0, 0
    4da0:	01120000 	tsteq	r2, r0
    4da4:	00760250 	rsbseq	r0, r6, r0, asr r2
    4da8:	a4601600 	strbtge	r1, [r0], #-1536	; 0xfffffa00
    4dac:	066a0000 	strbteq	r0, [sl], -r0
    4db0:	01120000 	tsteq	r2, r0
    4db4:	01f32550 	mvnseq	r2, r0, asr r5
    4db8:	f72cf750 			; <UNDEFINED> instruction: 0xf72cf750
    4dbc:	0825f425 	stmdaeq	r5!, {r0, r2, r5, sl, ip, sp, lr, pc}
    4dc0:	cccccccd 	stclgt	12, cr12, [ip], {205}	; 0xcd
    4dc4:	00000000 	andeq	r0, r0, r0
    4dc8:	f720081e 			; <UNDEFINED> instruction: 0xf720081e
    4dcc:	2cf72525 	cfldr64cs	mvdx2, [r7], #148	; 0x94
    4dd0:	253300f7 	ldrcs	r0, [r3, #-247]!	; 0xffffff09
    4dd4:	a0808023 	addge	r8, r0, r3, lsr #32
    4dd8:	00243240 	eoreq	r3, r4, r0, asr #4
    4ddc:	00000000 	andeq	r0, r0, r0
    4de0:	0bfe1e00 	bleq	fff8c5e8 <__bss_end__+0xfff812f0>
    4de4:	40010000 	andmi	r0, r1, r0
    4de8:	038d030d 	orreq	r0, sp, #872415232	; 0x34000000
    4dec:	701f0000 	andsvc	r0, pc, r0
    4df0:	01006e69 	tsteq	r0, r9, ror #28
    4df4:	002c2340 	eoreq	r2, ip, r0, asr #6
    4df8:	1e000000 	cdpne	0, 0, cr0, cr0, cr0, {0}
    4dfc:	00000c36 	andeq	r0, r0, r6, lsr ip
    4e00:	030d3b01 	movweq	r3, #56065	; 0xdb01
    4e04:	000003a7 	andeq	r0, r0, r7, lsr #7
    4e08:	6e69701f 	mcrvs	0, 3, r7, cr9, cr15, {0}
    4e0c:	223b0100 	eorscs	r0, fp, #0
    4e10:	0000002c 	andeq	r0, r0, ip, lsr #32
    4e14:	0c0b1300 	stceq	3, cr1, [fp], {-0}
    4e18:	36010000 	strcc	r0, [r1], -r0
    4e1c:	00a38406 	adceq	r8, r3, r6, lsl #8
    4e20:	00005800 	andeq	r5, r0, r0, lsl #16
    4e24:	a59c0100 	ldrge	r0, [ip, #256]	; 0x100
    4e28:	0e000004 	cdpeq	0, 0, cr0, cr0, cr4, {0}
    4e2c:	006e6970 	rsbeq	r6, lr, r0, ror r9
    4e30:	2c1f3601 	ldccs	6, cr3, [pc], {1}
    4e34:	4e000000 	cdpmi	0, 0, cr0, cr0, cr0, {0}
    4e38:	4a000030 	bmi	4f00 <__code_start__-0x3100>
    4e3c:	18000030 	stmdane	r0, {r4, r5}
    4e40:	000004a5 	andeq	r0, r0, r5, lsr #9
    4e44:	0000a384 	andeq	sl, r0, r4, lsl #7
    4e48:	0004b002 	andeq	fp, r4, r2
    4e4c:	05370100 	ldreq	r0, [r7, #-256]!	; 0xffffff00
    4e50:	0004be19 	andeq	fp, r4, r9, lsl lr
    4e54:	b2150100 	andslt	r0, r5, #0
    4e58:	73000004 	movwvc	r0, #4
    4e5c:	6f000030 	svcvs	0x00000030
    4e60:	1a000030 	bne	4f28 <__code_start__-0x30d8>
    4e64:	000004b0 			; <UNDEFINED> instruction: 0x000004b0
    4e68:	0004ca1b 	andeq	ip, r4, fp, lsl sl
    4e6c:	04d61b00 	ldrbeq	r1, [r6], #2816	; 0xb00
    4e70:	e01b0000 	ands	r0, fp, r0
    4e74:	18000004 	stmdane	r0, {r2}
    4e78:	000004a5 	andeq	r0, r0, r5, lsr #9
    4e7c:	0000a38c 	andeq	sl, r0, ip, lsl #7
    4e80:	0004d000 	andeq	sp, r4, r0
    4e84:	06280100 	strteq	r0, [r8], -r0, lsl #2
    4e88:	0004be19 	andeq	fp, r4, r9, lsl lr
    4e8c:	b2150100 	andslt	r0, r5, #0
    4e90:	98000004 	stmdals	r0, {r2}
    4e94:	94000030 	strls	r0, [r0], #-48	; 0xffffffd0
    4e98:	1a000030 	bne	4f60 <__code_start__-0x30a0>
    4e9c:	000004d0 	ldrdeq	r0, [r0], -r0	; <UNPREDICTABLE>
    4ea0:	0004ca1c 	andeq	ip, r4, ip, lsl sl
    4ea4:	0030bd00 	eorseq	fp, r0, r0, lsl #26
    4ea8:	0030b900 	eorseq	fp, r0, r0, lsl #18
    4eac:	04d61c00 	ldrbeq	r1, [r6], #3072	; 0xc00
    4eb0:	31090000 	mrscc	r0, (UNDEF: 9)
    4eb4:	31030000 	mrscc	r0, (UNDEF: 3)
    4eb8:	e01c0000 	ands	r0, ip, r0
    4ebc:	5f000004 	svcpl	0x00000004
    4ec0:	57000031 	smladxpl	r0, r1, r0, r0
    4ec4:	1d000031 	stcne	0, cr0, [r0, #-196]	; 0xffffff3c
    4ec8:	0000a3b8 			; <UNDEFINED> instruction: 0x0000a3b8
    4ecc:	0000065e 	andeq	r0, r0, lr, asr r6
    4ed0:	0000046d 	andeq	r0, r0, sp, ror #8
    4ed4:	02500112 	subseq	r0, r0, #-2147483644	; 0x80000004
    4ed8:	16000075 			; <UNDEFINED> instruction: 0x16000075
    4edc:	0000a3d8 	ldrdeq	sl, [r0], -r8
    4ee0:	0000066a 	andeq	r0, r0, sl, ror #12
    4ee4:	25500112 	ldrbcs	r0, [r0, #-274]	; 0xfffffeee
    4ee8:	f75001f3 			; <UNDEFINED> instruction: 0xf75001f3
    4eec:	f425f72c 	vld1.8	{d15}, [r5 :128], ip
    4ef0:	cccd0825 	stclgt	8, cr0, [sp], {37}	; 0x25
    4ef4:	0000cccc 	andeq	ip, r0, ip, asr #25
    4ef8:	081e0000 	ldmdaeq	lr, {}	; <UNPREDICTABLE>
    4efc:	2525f720 	strcs	pc, [r5, #-1824]!	; 0xfffff8e0
    4f00:	00f72cf7 	ldrshteq	r2, [r7], #199	; 0xc7
    4f04:	80232533 	eorhi	r2, r3, r3, lsr r5
    4f08:	3240a080 	subcc	sl, r0, #128, 0	; 0x80
    4f0c:	00000024 	andeq	r0, r0, r4, lsr #32
    4f10:	1e000000 	cdpne	0, 0, cr0, cr0, cr0, {0}
    4f14:	00000ac1 	andeq	r0, r0, r1, asr #21
    4f18:	01062801 	tsteq	r6, r1, lsl #16
    4f1c:	000004eb 	andeq	r0, r0, fp, ror #9
    4f20:	6e69701f 	mcrvs	0, 3, r7, cr9, cr15, {0}
    4f24:	21280100 			; <UNDEFINED> instruction: 0x21280100
    4f28:	0000002c 	andeq	r0, r0, ip, lsr #32
    4f2c:	0001b620 	andeq	fp, r1, r0, lsr #12
    4f30:	32280100 	eorcc	r0, r8, #0
    4f34:	0000010f 	andeq	r0, r0, pc, lsl #2
    4f38:	66666f21 	strbtvs	r6, [r6], -r1, lsr #30
    4f3c:	0e2d0100 	sufeqe	f0, f5, f0
    4f40:	0000002c 	andeq	r0, r0, ip, lsr #32
    4f44:	01006721 	tsteq	r0, r1, lsr #14
    4f48:	002c0e2e 	eoreq	r0, ip, lr, lsr #28
    4f4c:	76210000 	strtvc	r0, [r1], -r0
    4f50:	0e300100 	rsfeqs	f0, f0, f0
    4f54:	0000002c 	andeq	r0, r0, ip, lsr #32
    4f58:	0bce2200 	bleq	ff38d760 <__bss_end__+0xff382468>
    4f5c:	b1020000 	mrslt	r0, (UNDEF: 2)
    4f60:	00006918 	andeq	r6, r0, r8, lsl r9
    4f64:	05070300 	streq	r0, [r7, #-768]	; 0xfffffd00
    4f68:	781f0000 	ldmdavc	pc, {}	; <UNPREDICTABLE>
    4f6c:	2bb10200 	blcs	fec45774 <__bss_end__+0xfec3a47c>
    4f70:	00000069 	andeq	r0, r0, r9, rrx
    4f74:	04a52300 	strteq	r2, [r5], #768	; 0x300
    4f78:	a3240000 			; <UNDEFINED> instruction: 0xa3240000
    4f7c:	00600000 	rsbeq	r0, r0, r0
    4f80:	9c010000 	stcls	0, cr0, [r1], {-0}
    4f84:	000005e4 	andeq	r0, r0, r4, ror #11
    4f88:	0004b215 	andeq	fp, r4, r5, lsl r2
    4f8c:	00319e00 	eorseq	r9, r1, r0, lsl #28
    4f90:	00319a00 	eorseq	r9, r1, r0, lsl #20
    4f94:	04be1500 	ldrteq	r1, [lr], #1280	; 0x500
    4f98:	31c30000 	biccc	r0, r3, r0
    4f9c:	31bf0000 			; <UNDEFINED> instruction: 0x31bf0000
    4fa0:	ca1b0000 	bgt	6c4fa8 <__bss_end__+0x6b9cb0>
    4fa4:	1b000004 	blne	4fbc <__code_start__-0x3044>
    4fa8:	000004d6 	ldrdeq	r0, [r0], -r6
    4fac:	0004e01b 	andeq	lr, r4, fp, lsl r0
    4fb0:	04a51800 	strteq	r1, [r5], #2048	; 0x800
    4fb4:	a32c0000 			; <UNDEFINED> instruction: 0xa32c0000
    4fb8:	90000000 	andls	r0, r0, r0
    4fbc:	01000004 	tsteq	r0, r4
    4fc0:	be150628 	cfmsub32lt	mvax1, mvfx0, mvfx5, mvfx8
    4fc4:	e8000004 	stmda	r0, {r2}
    4fc8:	e4000031 	str	r0, [r0], #-49	; 0xffffffcf
    4fcc:	15000031 	strne	r0, [r0, #-49]	; 0xffffffcf
    4fd0:	000004b2 			; <UNDEFINED> instruction: 0x000004b2
    4fd4:	0000320d 	andeq	r3, r0, sp, lsl #4
    4fd8:	00003209 	andeq	r3, r0, r9, lsl #4
    4fdc:	0004901a 	andeq	r9, r4, sl, lsl r0
    4fe0:	04ca1c00 	strbeq	r1, [sl], #3072	; 0xc00
    4fe4:	32320000 	eorscc	r0, r2, #0, 0
    4fe8:	322e0000 	eorcc	r0, lr, #0, 0
    4fec:	d61c0000 	ldrle	r0, [ip], -r0
    4ff0:	7e000004 	cdpvc	0, 0, cr0, cr0, cr4, {0}
    4ff4:	78000032 	stmdavc	r0, {r1, r4, r5}
    4ff8:	1c000032 	stcne	0, cr0, [r0], {50}	; 0x32
    4ffc:	000004e0 	andeq	r0, r0, r0, ror #9
    5000:	000032d4 	ldrdeq	r3, [r0], -r4
    5004:	000032cc 	andeq	r3, r0, ip, asr #5
    5008:	00a3641d 	adceq	r6, r3, sp, lsl r4
    500c:	00065e00 	andeq	r5, r6, r0, lsl #28
    5010:	0005ae00 	andeq	sl, r5, r0, lsl #28
    5014:	50011200 	andpl	r1, r1, r0, lsl #4
    5018:	00007602 	andeq	r7, r0, r2, lsl #12
    501c:	00a38016 	adceq	r8, r3, r6, lsl r0
    5020:	00066a00 	andeq	r6, r6, r0, lsl #20
    5024:	50011200 	andpl	r1, r1, r0, lsl #4
    5028:	5001f325 	andpl	pc, r1, r5, lsr #6
    502c:	25f72cf7 	ldrbcs	r2, [r7, #3319]!	; 0xcf7
    5030:	cd0825f4 	cfstr32gt	mvfx2, [r8, #-976]	; 0xfffffc30
    5034:	00cccccc 	sbceq	ip, ip, ip, asr #25
    5038:	1e000000 	cdpne	0, 0, cr0, cr0, cr0, {0}
    503c:	25f72008 	ldrbcs	r2, [r7, #8]!
    5040:	f72cf725 			; <UNDEFINED> instruction: 0xf72cf725
    5044:	23253300 			; <UNDEFINED> instruction: 0x23253300
    5048:	40a08080 	adcmi	r8, r0, r0, lsl #1
    504c:	00002432 	andeq	r2, r0, r2, lsr r4
    5050:	8d230000 	stchi	0, cr0, [r3, #-0]
    5054:	dc000003 	stcle	0, cr0, [r0], {3}
    5058:	180000a3 	stmdane	r0, {r0, r1, r5, r7}
    505c:	01000000 	mrseq	r0, (UNDEF: 0)
    5060:	0006219c 	muleq	r6, ip, r1
    5064:	039a1500 	orrseq	r1, sl, #0, 10
    5068:	332a0000 			; <UNDEFINED> instruction: 0x332a0000
    506c:	33240000 			; <UNDEFINED> instruction: 0x33240000
    5070:	f0160000 			; <UNDEFINED> instruction: 0xf0160000
    5074:	6a0000a3 	bvs	5308 <__code_start__-0x2cf8>
    5078:	12000006 	andne	r0, r0, #6, 0
    507c:	0c055001 	stceq	0, cr5, [r5], {1}
    5080:	2020001c 	eorcs	r0, r0, ip, lsl r0
    5084:	05510112 	ldrbeq	r0, [r1, #-274]	; 0xfffffeee
    5088:	5001f331 	andpl	pc, r1, r1, lsr r3	; <UNPREDICTABLE>
    508c:	23000024 	movwcs	r0, #36	; 0x24
    5090:	00000373 	andeq	r0, r0, r3, ror r3
    5094:	0000a3f4 	strdeq	sl, [r0], -r4
    5098:	00000018 	andeq	r0, r0, r8, lsl r0
    509c:	065e9c01 	ldrbeq	r9, [lr], -r1, lsl #24
    50a0:	80150000 	andshi	r0, r5, r0
    50a4:	5c000003 	stcpl	0, cr0, [r0], {3}
    50a8:	56000033 			; <UNDEFINED> instruction: 0x56000033
    50ac:	16000033 			; <UNDEFINED> instruction: 0x16000033
    50b0:	0000a408 	andeq	sl, r0, r8, lsl #8
    50b4:	0000066a 	andeq	r0, r0, sl, ror #12
    50b8:	05500112 	ldrbeq	r0, [r0, #-274]	; 0xfffffeee
    50bc:	2000280c 	andcs	r2, r0, ip, lsl #16
    50c0:	51011220 	tstpl	r1, r0, lsr #4
    50c4:	01f33105 	mvnseq	r3, r5, lsl #2
    50c8:	00002450 	andeq	r2, r0, r0, asr r4
    50cc:	00089624 	andeq	r9, r8, r4, lsr #12
    50d0:	00089600 	andeq	r9, r8, r0, lsl #12
    50d4:	0ac20200 	beq	ff0858dc <__bss_end__+0xff07a5e4>
    50d8:	00080224 	andeq	r0, r8, r4, lsr #4
    50dc:	00080200 	andeq	r0, r8, r0, lsl #4
    50e0:	06ad0200 	strteq	r0, [sp], r0, lsl #4
    50e4:	00014900 	andeq	r4, r1, r0, lsl #18
    50e8:	08000400 	stmdaeq	r0, {sl}
    50ec:	0400001b 	streq	r0, [r0], #-27	; 0xffffffe5
    50f0:	00051301 	andeq	r1, r5, r1, lsl #6
    50f4:	0c600c00 	stcleq	12, cr0, [r0], #-0
    50f8:	05d90000 	ldrbeq	r0, [r9]
    50fc:	a4bc0000 	ldrtge	r0, [ip], #0
    5100:	003c0000 	eorseq	r0, ip, r0
    5104:	27b30000 	ldrcs	r0, [r3, r0]!
    5108:	04020000 	streq	r0, [r2], #-0
    510c:	746e6905 	strbtvc	r6, [lr], #-2309	; 0xfffff6fb
    5110:	07040300 	streq	r0, [r4, -r0, lsl #6]
    5114:	000001e2 	andeq	r0, r0, r2, ror #3
    5118:	58060103 	stmdapl	r6, {r0, r1, r8}
    511c:	03000000 	movweq	r0, #0
    5120:	02220502 	eoreq	r0, r2, #8388608	; 0x800000
    5124:	04030000 	streq	r0, [r3], #-0
    5128:	00020605 	andeq	r0, r2, r5, lsl #12
    512c:	05080300 	streq	r0, [r8, #-768]	; 0xfffffd00
    5130:	00000201 	andeq	r0, r0, r1, lsl #4
    5134:	56080103 	strpl	r0, [r8], -r3, lsl #2
    5138:	03000000 	movweq	r0, #0
    513c:	00710702 	rsbseq	r0, r1, r2, lsl #14
    5140:	04030000 	streq	r0, [r3], #-0
    5144:	0001dd07 	andeq	sp, r1, r7, lsl #26
    5148:	07080300 	streq	r0, [r8, -r0, lsl #6]
    514c:	000001d8 	ldrdeq	r0, [r0], -r8
    5150:	00002504 	andeq	r2, r0, r4, lsl #10
    5154:	00007a00 	andeq	r7, r0, r0, lsl #20
    5158:	00250500 	eoreq	r0, r5, r0, lsl #10
    515c:	06000000 	streq	r0, [r0], -r0
    5160:	0000020f 	andeq	r0, r0, pc, lsl #4
    5164:	860e1c02 	strhi	r1, [lr], -r2, lsl #24
    5168:	07000000 	streq	r0, [r0, -r0]
    516c:	00006b04 	andeq	r6, r0, r4, lsl #22
    5170:	00250400 	eoreq	r0, r5, r0, lsl #8
    5174:	009b0000 	addseq	r0, fp, r0
    5178:	9b050000 	blls	145180 <__bss_end__+0x139e88>
    517c:	00000000 	andeq	r0, r0, r0
    5180:	00a80407 	adceq	r0, r8, r7, lsl #8
    5184:	01030000 	mrseq	r0, (UNDEF: 3)
    5188:	00005f08 	andeq	r5, r0, r8, lsl #30
    518c:	00a10800 	adceq	r0, r1, r0, lsl #16
    5190:	79060000 	stmdbvc	r6, {}	; <UNPREDICTABLE>
    5194:	02000006 	andeq	r0, r0, #6, 0
    5198:	00b90e21 	adcseq	r0, r9, r1, lsr #28
    519c:	04070000 	streq	r0, [r7], #-0
    51a0:	0000008c 	andeq	r0, r0, ip, lsl #1
    51a4:	00007a09 	andeq	r7, r0, r9, lsl #20
    51a8:	07060100 	streq	r0, [r6, -r0, lsl #2]
    51ac:	aec80305 	cdpge	3, 12, cr0, cr8, cr5, {0}
    51b0:	530a0000 	movwpl	r0, #40960	; 0xa000
    51b4:	0100000c 	tsteq	r0, ip
    51b8:	a4e8060b 	strbtge	r0, [r8], #1547	; 0x60b
    51bc:	00100000 	andseq	r0, r0, r0
    51c0:	9c010000 	stcls	0, cr0, [r1], {-0}
    51c4:	000000f1 	strdeq	r0, [r0], -r1
    51c8:	0070660b 	rsbseq	r6, r0, fp, lsl #12
    51cc:	86190b01 	ldrhi	r0, [r9], -r1, lsl #22
    51d0:	01000000 	mrseq	r0, (UNDEF: 0)
    51d4:	900c0050 	andls	r0, ip, r0, asr r0
    51d8:	0100000b 	tsteq	r0, fp
    51dc:	a4d00608 	ldrbge	r0, [r0], #1544	; 0x608
    51e0:	00180000 	andseq	r0, r8, r0
    51e4:	9c010000 	stcls	0, cr0, [r1], {-0}
    51e8:	000c420d 	andeq	r4, ip, sp, lsl #4
    51ec:	0c030100 	stfeqs	f0, [r3], {-0}
    51f0:	00000025 	andeq	r0, r0, r5, lsr #32
    51f4:	0000a4bc 			; <UNDEFINED> instruction: 0x0000a4bc
    51f8:	00000014 	andeq	r0, r0, r4, lsl r0
    51fc:	01409c01 	cmpeq	r0, r1, lsl #24
    5200:	630e0000 	movwvs	r0, #57344	; 0xe000
    5204:	21030100 	mrscs	r0, (UNDEF: 19)
    5208:	00000025 	andeq	r0, r0, r5, lsr #32
    520c:	0000338c 	andeq	r3, r0, ip, lsl #7
    5210:	00003388 	andeq	r3, r0, r8, lsl #7
    5214:	00a4c80f 	adceq	ip, r4, pc, lsl #16
    5218:	00014000 	andeq	r4, r1, r0
    521c:	50011000 	andpl	r1, r1, r0
    5220:	00007402 	andeq	r7, r0, r2, lsl #8
    5224:	0aa71100 	beq	fe9c962c <__bss_end__+0xfe9be334>
    5228:	0aa70000 	beq	fe9c5230 <__bss_end__+0xfe9b9f38>
    522c:	42020000 	andmi	r0, r2, #0, 0
    5230:	01370006 	teqeq	r7, r6
    5234:	00040000 	andeq	r0, r4, r0
    5238:	00001c17 	andeq	r1, r0, r7, lsl ip
    523c:	05130104 	ldreq	r0, [r3, #-260]	; 0xfffffefc
    5240:	710c0000 	mrsvc	r0, (UNDEF: 12)
    5244:	d900000c 	stmdble	r0, {r2, r3}
    5248:	f8000005 			; <UNDEFINED> instruction: 0xf8000005
    524c:	2c0000a4 	stccs	0, cr0, [r0], {164}	; 0xa4
    5250:	55000000 	strpl	r0, [r0, #-0]
    5254:	02000028 	andeq	r0, r0, #40, 0	; 0x28
    5258:	6e690504 	cdpvs	5, 6, cr0, cr9, cr4, {0}
    525c:	04030074 	streq	r0, [r3], #-116	; 0xffffff8c
    5260:	0001e207 	andeq	lr, r1, r7, lsl #4
    5264:	06010300 	streq	r0, [r1], -r0, lsl #6
    5268:	00000058 	andeq	r0, r0, r8, asr r0
    526c:	22050203 	andcs	r0, r5, #805306368	; 0x30000000
    5270:	03000002 	movweq	r0, #2
    5274:	02060504 	andeq	r0, r6, #4, 10	; 0x1000000
    5278:	08030000 	stmdaeq	r3, {}	; <UNPREDICTABLE>
    527c:	00020105 	andeq	r0, r2, r5, lsl #2
    5280:	08010300 	stmdaeq	r1, {r8, r9}
    5284:	00000056 	andeq	r0, r0, r6, asr r0
    5288:	71070203 	tstvc	r7, r3, lsl #4
    528c:	03000000 	movweq	r0, #0
    5290:	01dd0704 	bicseq	r0, sp, r4, lsl #14
    5294:	08030000 	stmdaeq	r3, {}	; <UNPREDICTABLE>
    5298:	0001d807 	andeq	sp, r1, r7, lsl #16
    529c:	00250400 	eoreq	r0, r5, r0, lsl #8
    52a0:	007a0000 	rsbseq	r0, sl, r0
    52a4:	25050000 	strcs	r0, [r5, #-0]
    52a8:	00000000 	andeq	r0, r0, r0
    52ac:	00020f06 	andeq	r0, r2, r6, lsl #30
    52b0:	0e1c0200 	cdpeq	2, 1, cr0, cr12, cr0, {0}
    52b4:	00000086 	andeq	r0, r0, r6, lsl #1
    52b8:	006b0407 	rsbeq	r0, fp, r7, lsl #8
    52bc:	25040000 	strcs	r0, [r4, #-0]
    52c0:	9b000000 	blls	52c8 <__code_start__-0x2d38>
    52c4:	05000000 	streq	r0, [r0, #-0]
    52c8:	0000009b 	muleq	r0, fp, r0
    52cc:	a8040700 	stmdage	r4, {r8, r9, sl}
    52d0:	03000000 	movweq	r0, #0
    52d4:	005f0801 	subseq	r0, pc, r1, lsl #16
    52d8:	a1080000 	mrsge	r0, (UNDEF: 8)
    52dc:	06000000 	streq	r0, [r0], -r0
    52e0:	00000679 	andeq	r0, r0, r9, ror r6
    52e4:	b90e2102 	stmdblt	lr, {r1, r8, sp}
    52e8:	07000000 	streq	r0, [r0, -r0]
    52ec:	00008c04 	andeq	r8, r0, r4, lsl #24
    52f0:	06f50900 	ldrbteq	r0, [r5], r0, lsl #18
    52f4:	04010000 	streq	r0, [r1], #-0
    52f8:	00013407 	andeq	r3, r1, r7, lsl #8
    52fc:	00a4f800 	adceq	pc, r4, r0, lsl #16
    5300:	00002c00 	andeq	r2, r0, r0, lsl #24
    5304:	349c0100 	ldrcc	r0, [ip], #256	; 0x100
    5308:	0a000001 	beq	5314 <__code_start__-0x2cec>
    530c:	00000c81 	andeq	r0, r0, r1, lsl #25
    5310:	34150401 	ldrcc	r0, [r5], #-1025	; 0xfffffbff
    5314:	01000001 	tsteq	r0, r1
    5318:	72730b50 	rsbsvc	r0, r3, #80, 22	; 0x14000
    531c:	04010063 	streq	r0, [r1], #-99	; 0xffffff9d
    5320:	00009b27 	andeq	r9, r0, r7, lsr #22
    5324:	0033ae00 	eorseq	sl, r3, r0, lsl #28
    5328:	0033aa00 	eorseq	sl, r3, r0, lsl #20
    532c:	31730c00 	cmncc	r3, r0, lsl #24
    5330:	0b050100 	bleq	145738 <__bss_end__+0x13a440>
    5334:	00000134 	andeq	r0, r0, r4, lsr r1
    5338:	000033dd 	ldrdeq	r3, [r0], -sp
    533c:	000033cf 	andeq	r3, r0, pc, asr #7
    5340:	0032730c 	eorseq	r7, r2, ip, lsl #6
    5344:	9b110601 	blls	446b50 <__bss_end__+0x43b858>
    5348:	3c000000 	stccc	0, cr0, [r0], {-0}
    534c:	36000034 			; <UNDEFINED> instruction: 0x36000034
    5350:	0c000034 	stceq	0, cr0, [r0], {52}	; 0x34
    5354:	07010063 	streq	r0, [r1, -r3, rrx]
    5358:	0000a10a 	andeq	sl, r0, sl, lsl #2
    535c:	00346d00 	eorseq	r6, r4, r0, lsl #26
    5360:	00346700 	eorseq	r6, r4, r0, lsl #14
    5364:	04070000 	streq	r0, [r7], #-0
    5368:	000000a1 	andeq	r0, r0, r1, lsr #1
    536c:	0000f700 	andeq	pc, r0, r0, lsl #14
    5370:	cd000400 	cfstrsgt	mvf0, [r0, #-0]
    5374:	0400001c 	streq	r0, [r0], #-28	; 0xffffffe4
    5378:	00051301 	andeq	r1, r5, r1, lsl #6
    537c:	0c860c00 	stceq	12, cr0, [r6], {0}
    5380:	05d90000 	ldrbeq	r0, [r9]
    5384:	a5240000 	strge	r0, [r4, #-0]!
    5388:	00440000 	subeq	r0, r4, r0
    538c:	293b0000 	ldmdbcs	fp!, {}	; <UNPREDICTABLE>
    5390:	04020000 	streq	r0, [r2], #-0
    5394:	746e6905 	strbtvc	r6, [lr], #-2309	; 0xfffff6fb
    5398:	07040300 	streq	r0, [r4, -r0, lsl #6]
    539c:	000001e2 	andeq	r0, r0, r2, ror #3
    53a0:	58060103 	stmdapl	r6, {r0, r1, r8}
    53a4:	03000000 	movweq	r0, #0
    53a8:	02220502 	eoreq	r0, r2, #8388608	; 0x800000
    53ac:	04030000 	streq	r0, [r3], #-0
    53b0:	00020605 	andeq	r0, r2, r5, lsl #12
    53b4:	05080300 	streq	r0, [r8, #-768]	; 0xfffffd00
    53b8:	00000201 	andeq	r0, r0, r1, lsl #4
    53bc:	56080103 	strpl	r0, [r8], -r3, lsl #2
    53c0:	03000000 	movweq	r0, #0
    53c4:	00710702 	rsbseq	r0, r1, r2, lsl #14
    53c8:	04030000 	streq	r0, [r3], #-0
    53cc:	0001dd07 	andeq	sp, r1, r7, lsl #26
    53d0:	07080300 	streq	r0, [r8, -r0, lsl #6]
    53d4:	000001d8 	ldrdeq	r0, [r0], -r8
    53d8:	00002504 	andeq	r2, r0, r4, lsl #10
    53dc:	00007a00 	andeq	r7, r0, r0, lsl #20
    53e0:	00250500 	eoreq	r0, r5, r0, lsl #10
    53e4:	06000000 	streq	r0, [r0], -r0
    53e8:	0000020f 	andeq	r0, r0, pc, lsl #4
    53ec:	860e1c02 	strhi	r1, [lr], -r2, lsl #24
    53f0:	07000000 	streq	r0, [r0, -r0]
    53f4:	00006b04 	andeq	r6, r0, r4, lsl #22
    53f8:	00250400 	eoreq	r0, r5, r0, lsl #8
    53fc:	009b0000 	addseq	r0, fp, r0
    5400:	9b050000 	blls	145408 <__bss_end__+0x13a110>
    5404:	00000000 	andeq	r0, r0, r0
    5408:	00a80407 	adceq	r0, r8, r7, lsl #8
    540c:	01030000 	mrseq	r0, (UNDEF: 3)
    5410:	00005f08 	andeq	r5, r0, r8, lsl #30
    5414:	00a10800 	adceq	r0, r1, r0, lsl #16
    5418:	79060000 	stmdbvc	r6, {}	; <UNPREDICTABLE>
    541c:	02000006 	andeq	r0, r0, #6, 0
    5420:	00b90e21 	adcseq	r0, r9, r1, lsr #28
    5424:	04070000 	streq	r0, [r7], #-0
    5428:	0000008c 	andeq	r0, r0, ip, lsl #1
    542c:	00072309 	andeq	r2, r7, r9, lsl #6
    5430:	05030100 	streq	r0, [r3, #-256]	; 0xffffff00
    5434:	00000025 	andeq	r0, r0, r5, lsr #32
    5438:	0000a524 	andeq	sl, r0, r4, lsr #10
    543c:	00000044 	andeq	r0, r0, r4, asr #32
    5440:	610a9c01 	tstvs	sl, r1, lsl #24
    5444:	18030100 	stmdane	r3, {r8}
    5448:	0000009b 	muleq	r0, fp, r0
    544c:	000034a4 	andeq	r3, r0, r4, lsr #9
    5450:	00003498 	muleq	r0, r8, r4
    5454:	0100620a 	tsteq	r0, sl, lsl #4
    5458:	009b2703 	addseq	r2, fp, r3, lsl #14
    545c:	34f80000 	ldrbtcc	r0, [r8], #0
    5460:	34f20000 	ldrbtcc	r0, [r2], #0
    5464:	00000000 	andeq	r0, r0, r0
    5468:	0000010f 	andeq	r0, r0, pc, lsl #2
    546c:	1d5c0004 	ldclne	0, cr0, [ip, #-16]
    5470:	01040000 	mrseq	r0, (UNDEF: 4)
    5474:	00000513 	andeq	r0, r0, r3, lsl r5
    5478:	000c960c 	andeq	r9, ip, ip, lsl #12
    547c:	0005d900 	andeq	sp, r5, r0, lsl #18
    5480:	00a56800 	adceq	r6, r5, r0, lsl #16
    5484:	00001800 	andeq	r1, r0, r0, lsl #16
    5488:	0029f100 	eoreq	pc, r9, r0, lsl #2
    548c:	05040200 	streq	r0, [r4, #-512]	; 0xfffffe00
    5490:	00746e69 	rsbseq	r6, r4, r9, ror #28
    5494:	e2070403 	and	r0, r7, #50331648	; 0x3000000
    5498:	03000001 	movweq	r0, #1
    549c:	00580601 	subseq	r0, r8, r1, lsl #12
    54a0:	02030000 	andeq	r0, r3, #0, 0
    54a4:	00022205 	andeq	r2, r2, r5, lsl #4
    54a8:	05040300 	streq	r0, [r4, #-768]	; 0xfffffd00
    54ac:	00000206 	andeq	r0, r0, r6, lsl #4
    54b0:	01050803 	tsteq	r5, r3, lsl #16
    54b4:	03000002 	movweq	r0, #2
    54b8:	00560801 	subseq	r0, r6, r1, lsl #16
    54bc:	02030000 	andeq	r0, r3, #0, 0
    54c0:	00007107 	andeq	r7, r0, r7, lsl #2
    54c4:	07040300 	streq	r0, [r4, -r0, lsl #6]
    54c8:	000001dd 	ldrdeq	r0, [r0], -sp
    54cc:	d8070803 	stmdale	r7, {r0, r1, fp}
    54d0:	04000001 	streq	r0, [r0], #-1
    54d4:	00000025 	andeq	r0, r0, r5, lsr #32
    54d8:	0000007a 	andeq	r0, r0, sl, ror r0
    54dc:	00002505 	andeq	r2, r0, r5, lsl #10
    54e0:	0f060000 	svceq	0x00060000
    54e4:	02000002 	andeq	r0, r0, #2, 0
    54e8:	00860e1c 	addeq	r0, r6, ip, lsl lr
    54ec:	04070000 	streq	r0, [r7], #-0
    54f0:	0000006b 	andeq	r0, r0, fp, rrx
    54f4:	00002504 	andeq	r2, r0, r4, lsl #10
    54f8:	00009b00 	andeq	r9, r0, r0, lsl #22
    54fc:	009b0500 	addseq	r0, fp, r0, lsl #10
    5500:	07000000 	streq	r0, [r0, -r0]
    5504:	0000a804 	andeq	sl, r0, r4, lsl #16
    5508:	08010300 	stmdaeq	r1, {r8, r9}
    550c:	0000005f 	andeq	r0, r0, pc, asr r0
    5510:	0000a108 	andeq	sl, r0, r8, lsl #2
    5514:	06790600 	ldrbteq	r0, [r9], -r0, lsl #12
    5518:	21020000 	mrscs	r0, (UNDEF: 2)
    551c:	0000b90e 	andeq	fp, r0, lr, lsl #18
    5520:	8c040700 	stchi	7, cr0, [r4], {-0}
    5524:	09000000 	stmdbeq	r0, {}	; <UNPREDICTABLE>
    5528:	000006fc 	strdeq	r0, [r0], -ip
    552c:	0c070301 	stceq	3, cr0, [r7], {1}
    5530:	68000001 	stmdavs	r0, {r0}
    5534:	180000a5 	stmdane	r0, {r0, r2, r5, r7}
    5538:	01000000 	mrseq	r0, (UNDEF: 0)
    553c:	00010c9c 	muleq	r1, ip, ip
    5540:	31730a00 	cmncc	r3, r0, lsl #20
    5544:	15030100 	strne	r0, [r3, #-256]	; 0xffffff00
    5548:	0000010c 	andeq	r0, r0, ip, lsl #2
    554c:	730b5001 	movwvc	r5, #45057	; 0xb001
    5550:	03010032 	movweq	r0, #4146	; 0x1032
    5554:	00009b26 	andeq	r9, r0, r6, lsr #22
    5558:	00352700 	eorseq	r2, r5, r0, lsl #14
    555c:	00352100 	eorseq	r2, r5, r0, lsl #2
    5560:	00730c00 	rsbseq	r0, r3, r0, lsl #24
    5564:	0c140401 	cfldrseq	mvf0, [r4], {1}
    5568:	54000001 	strpl	r0, [r0], #-1
    556c:	52000035 	andpl	r0, r0, #53, 0	; 0x35
    5570:	00000035 	andeq	r0, r0, r5, lsr r0
    5574:	00a10407 	adceq	r0, r1, r7, lsl #8
    5578:	4e000000 	cdpmi	0, 0, cr0, cr0, cr0, {0}
    557c:	04000001 	streq	r0, [r0], #-1
    5580:	001e1200 	andseq	r1, lr, r0, lsl #4
    5584:	13010400 	movwne	r0, #5120	; 0x1400
    5588:	0c000005 	stceq	0, cr0, [r0], {5}
    558c:	00000ca6 	andeq	r0, r0, r6, lsr #25
    5590:	000005d9 	ldrdeq	r0, [r0], -r9
    5594:	0000a580 	andeq	sl, r0, r0, lsl #11
    5598:	00000030 	andeq	r0, r0, r0, lsr r0
    559c:	00002a92 	muleq	r0, r2, sl
    55a0:	69050402 	stmdbvs	r5, {r1, sl}
    55a4:	0300746e 	movweq	r7, #1134	; 0x46e
    55a8:	0000061c 	andeq	r0, r0, ip, lsl r6
    55ac:	3817d103 	ldmdacc	r7, {r0, r1, r8, ip, lr, pc}
    55b0:	04000000 	streq	r0, [r0], #-0
    55b4:	01e20704 	mvneq	r0, r4, lsl #14
    55b8:	01040000 	mrseq	r0, (UNDEF: 4)
    55bc:	00005806 	andeq	r5, r0, r6, lsl #16
    55c0:	05020400 	streq	r0, [r2, #-1024]	; 0xfffffc00
    55c4:	00000222 	andeq	r0, r0, r2, lsr #4
    55c8:	06050404 	streq	r0, [r5], -r4, lsl #8
    55cc:	04000002 	streq	r0, [r0], #-2
    55d0:	02010508 	andeq	r0, r1, #8, 10	; 0x2000000
    55d4:	01040000 	mrseq	r0, (UNDEF: 4)
    55d8:	00005608 	andeq	r5, r0, r8, lsl #12
    55dc:	005b0500 	subseq	r0, fp, r0, lsl #10
    55e0:	02040000 	andeq	r0, r4, #0, 0
    55e4:	00007107 	andeq	r7, r0, r7, lsl #2
    55e8:	07040400 	streq	r0, [r4, -r0, lsl #8]
    55ec:	000001dd 	ldrdeq	r0, [r0], -sp
    55f0:	d8070804 	stmdale	r7, {r2, fp}
    55f4:	06000001 	streq	r0, [r0], -r1
    55f8:	00000025 	andeq	r0, r0, r5, lsr #32
    55fc:	0000008b 	andeq	r0, r0, fp, lsl #1
    5600:	00002507 	andeq	r2, r0, r7, lsl #10
    5604:	0f080000 	svceq	0x00080000
    5608:	02000002 	andeq	r0, r0, #2, 0
    560c:	00970e1c 	addseq	r0, r7, ip, lsl lr
    5610:	04090000 	streq	r0, [r9], #-0
    5614:	0000007c 	andeq	r0, r0, ip, ror r0
    5618:	00002506 	andeq	r2, r0, r6, lsl #10
    561c:	0000ac00 	andeq	sl, r0, r0, lsl #24
    5620:	00ac0700 	adceq	r0, ip, r0, lsl #14
    5624:	09000000 	stmdbeq	r0, {}	; <UNPREDICTABLE>
    5628:	0000b904 	andeq	fp, r0, r4, lsl #18
    562c:	08010400 	stmdaeq	r1, {sl}
    5630:	0000005f 	andeq	r0, r0, pc, asr r0
    5634:	0000b205 	andeq	fp, r0, r5, lsl #4
    5638:	06790800 	ldrbteq	r0, [r9], -r0, lsl #16
    563c:	21020000 	mrscs	r0, (UNDEF: 2)
    5640:	0000ca0e 	andeq	ip, r0, lr, lsl #20
    5644:	9d040900 	vstrls.16	s0, [r4, #-0]	; <UNPREDICTABLE>
    5648:	0a000000 	beq	5650 <__code_start__-0x29b0>
    564c:	00000744 	andeq	r0, r0, r4, asr #14
    5650:	25050401 	strcs	r0, [r5, #-1025]	; 0xfffffbff
    5654:	80000000 	andhi	r0, r0, r0
    5658:	300000a5 	andcc	r0, r0, r5, lsr #1
    565c:	01000000 	mrseq	r0, (UNDEF: 0)
    5660:	00014b9c 	muleq	r1, ip, fp
    5664:	735f0b00 	cmpvc	pc, #0, 22
    5668:	04010031 	streq	r0, [r1], #-49	; 0xffffffcf
    566c:	0000ac19 	andeq	sl, r0, r9, lsl ip
    5670:	00356b00 	eorseq	r6, r5, r0, lsl #22
    5674:	00356700 	eorseq	r6, r5, r0, lsl #14
    5678:	735f0b00 	cmpvc	pc, #0, 22
    567c:	04010032 	streq	r0, [r1], #-50	; 0xffffffce
    5680:	0000ac2a 	andeq	sl, r0, sl, lsr #24
    5684:	00359000 	eorseq	r9, r5, r0
    5688:	00358c00 	eorseq	r8, r5, r0, lsl #24
    568c:	006e0b00 	rsbeq	r0, lr, r0, lsl #22
    5690:	2c360401 	cfldrscs	mvf0, [r6], #-4
    5694:	bb000000 	bllt	569c <__code_start__-0x2964>
    5698:	b1000035 	tstlt	r0, r5, lsr r0
    569c:	0c000035 	stceq	0, cr0, [r0], {53}	; 0x35
    56a0:	01003173 	tsteq	r0, r3, ror r1
    56a4:	014b1a05 	cmpeq	fp, r5, lsl #20
    56a8:	36120000 	ldrcc	r0, [r2], -r0
    56ac:	360a0000 	strcc	r0, [sl], -r0
    56b0:	730c0000 	movwvc	r0, #49152	; 0xc000
    56b4:	05010032 	streq	r0, [r1, #-50]	; 0xffffffce
    56b8:	00014b2c 	andeq	r4, r1, ip, lsr #22
    56bc:	00365000 	eorseq	r5, r6, r0
    56c0:	00364a00 	eorseq	r4, r6, r0, lsl #20
    56c4:	04090000 	streq	r0, [r9], #-0
    56c8:	00000062 	andeq	r0, r0, r2, rrx
    56cc:	0000ce00 	andeq	ip, r0, r0, lsl #28
    56d0:	c6000400 	strgt	r0, [r0], -r0, lsl #8
    56d4:	0400001e 	streq	r0, [r0], #-30	; 0xffffffe2
    56d8:	00051301 	andeq	r1, r5, r1, lsl #6
    56dc:	0cb70c00 	ldceq	12, cr0, [r7]
    56e0:	05d90000 	ldrbeq	r0, [r9]
    56e4:	a5b00000 	ldrge	r0, [r0, #0]!
    56e8:	00040000 	andeq	r0, r4, r0
    56ec:	2b930000 	blcs	fe4c56f4 <__bss_end__+0xfe4ba3fc>
    56f0:	04020000 	streq	r0, [r2], #-0
    56f4:	746e6905 	strbtvc	r6, [lr], #-2309	; 0xfffff6fb
    56f8:	07040300 	streq	r0, [r4, -r0, lsl #6]
    56fc:	000001e2 	andeq	r0, r0, r2, ror #3
    5700:	58060103 	stmdapl	r6, {r0, r1, r8}
    5704:	03000000 	movweq	r0, #0
    5708:	02220502 	eoreq	r0, r2, #8388608	; 0x800000
    570c:	04030000 	streq	r0, [r3], #-0
    5710:	00020605 	andeq	r0, r2, r5, lsl #12
    5714:	05080300 	streq	r0, [r8, #-768]	; 0xfffffd00
    5718:	00000201 	andeq	r0, r0, r1, lsl #4
    571c:	56080103 	strpl	r0, [r8], -r3, lsl #2
    5720:	03000000 	movweq	r0, #0
    5724:	00710702 	rsbseq	r0, r1, r2, lsl #14
    5728:	04030000 	streq	r0, [r3], #-0
    572c:	0001dd07 	andeq	sp, r1, r7, lsl #26
    5730:	07080300 	streq	r0, [r8, -r0, lsl #6]
    5734:	000001d8 	ldrdeq	r0, [r0], -r8
    5738:	00002504 	andeq	r2, r0, r4, lsl #10
    573c:	00007a00 	andeq	r7, r0, r0, lsl #20
    5740:	00250500 	eoreq	r0, r5, r0, lsl #10
    5744:	06000000 	streq	r0, [r0], -r0
    5748:	0000020f 	andeq	r0, r0, pc, lsl #4
    574c:	860e1c02 	strhi	r1, [lr], -r2, lsl #24
    5750:	07000000 	streq	r0, [r0, -r0]
    5754:	00006b04 	andeq	r6, r0, r4, lsl #22
    5758:	00250400 	eoreq	r0, r5, r0, lsl #8
    575c:	009b0000 	addseq	r0, fp, r0
    5760:	9b050000 	blls	145768 <__bss_end__+0x13a470>
    5764:	00000000 	andeq	r0, r0, r0
    5768:	00a80407 	adceq	r0, r8, r7, lsl #8
    576c:	01030000 	mrseq	r0, (UNDEF: 3)
    5770:	00005f08 	andeq	r5, r0, r8, lsl #30
    5774:	00a10800 	adceq	r0, r1, r0, lsl #16
    5778:	79060000 	stmdbvc	r6, {}	; <UNPREDICTABLE>
    577c:	02000006 	andeq	r0, r0, #6, 0
    5780:	00b90e21 	adcseq	r0, r9, r1, lsr #28
    5784:	04070000 	streq	r0, [r7], #-0
    5788:	0000008c 	andeq	r0, r0, ip, lsl #1
    578c:	0007eb09 	andeq	lr, r7, r9, lsl #22
    5790:	06030100 	streq	r0, [r3], -r0, lsl #2
    5794:	0000a5b0 			; <UNDEFINED> instruction: 0x0000a5b0
    5798:	00000004 	andeq	r0, r0, r4
    579c:	Address 0x000000000000579c is out of bounds.


Disassembly of section .debug_abbrev:

00000000 <.debug_abbrev>:
       0:	25011101 	strcs	r1, [r1, #-257]	; 0xfffffeff
       4:	030b130e 	movweq	r1, #45838	; 0xb30e
       8:	110e1b0e 	tstne	lr, lr, lsl #22
       c:	10061201 	andne	r1, r6, r1, lsl #4
      10:	02000017 	andeq	r0, r0, #23, 0
      14:	0b0b0024 	bleq	2c00ac <__bss_end__+0x2b4db4>
      18:	08030b3e 	stmdaeq	r3, {r1, r2, r3, r4, r5, r8, r9, fp}
      1c:	24030000 	strcs	r0, [r3], #-0
      20:	3e0b0b00 	vmlacc.f64	d0, d11, d0
      24:	000e030b 	andeq	r0, lr, fp, lsl #6
      28:	00160400 	andseq	r0, r6, r0, lsl #8
      2c:	0b3a0e03 	bleq	e83840 <__bss_end__+0xe78548>
      30:	0b390b3b 	bleq	e42d24 <__bss_end__+0xe37a2c>
      34:	00001349 	andeq	r1, r0, r9, asr #6
      38:	27011505 	strcs	r1, [r1, -r5, lsl #10]
      3c:	01134919 	tsteq	r3, r9, lsl r9
      40:	06000013 			; <UNDEFINED> instruction: 0x06000013
      44:	13490005 	movtne	r0, #36869	; 0x9005
      48:	34070000 	strcc	r0, [r7], #-0
      4c:	3a0e0300 	bcc	380c54 <__bss_end__+0x37595c>
      50:	390b3b0b 	stmdbcc	fp, {r0, r1, r3, r8, r9, fp, ip, sp}
      54:	3f13490b 	svccc	0x0013490b
      58:	00193c19 	andseq	r3, r9, r9, lsl ip
      5c:	000f0800 	andeq	r0, pc, r0, lsl #16
      60:	13490b0b 	movtne	r0, #39691	; 0x9b0b
      64:	26090000 	strcs	r0, [r9], -r0
      68:	00134900 	andseq	r4, r3, r0, lsl #18
      6c:	01130a00 	tsteq	r3, r0, lsl #20
      70:	0b3a0b0b 	bleq	e82ca4 <__bss_end__+0xe779ac>
      74:	0b390b3b 	bleq	e42d68 <__bss_end__+0xe37a70>
      78:	00001301 	andeq	r1, r0, r1, lsl #6
      7c:	03000d0b 	movweq	r0, #3339	; 0xd0b
      80:	3b0b3a0e 	blcc	2ce8c0 <__bss_end__+0x2c35c8>
      84:	490b390b 	stmdbmi	fp, {r0, r1, r3, r8, fp, ip, sp}
      88:	000b3813 	andeq	r3, fp, r3, lsl r8
      8c:	01130c00 	tsteq	r3, r0, lsl #24
      90:	0b0b0e03 	bleq	2c38a4 <__bss_end__+0x2b85ac>
      94:	0b3b0b3a 	bleq	ec2d84 <__bss_end__+0xeb7a8c>
      98:	13010b39 	movwne	r0, #6969	; 0x1b39
      9c:	0d0d0000 	stceq	0, cr0, [sp, #-0]
      a0:	3a080300 	bcc	200ca8 <__bss_end__+0x1f59b0>
      a4:	390b3b0b 	stmdbcc	fp, {r0, r1, r3, r8, r9, fp, ip, sp}
      a8:	3813490b 	ldmdacc	r3, {r0, r1, r3, r8, fp, lr}
      ac:	0e00000b 	cdpeq	0, 0, cr0, cr0, cr11, {0}
      b0:	13490101 	movtne	r0, #37121	; 0x9101
      b4:	00001301 	andeq	r1, r0, r1, lsl #6
      b8:	4900210f 	stmdbmi	r0, {r0, r1, r2, r3, r8, sp}
      bc:	000b2f13 	andeq	r2, fp, r3, lsl pc
      c0:	000f1000 	andeq	r1, pc, r0
      c4:	00000b0b 	andeq	r0, r0, fp, lsl #22
      c8:	3f012e11 	svccc	0x00012e11
      cc:	3a0e0319 	bcc	380d38 <__bss_end__+0x375a40>
      d0:	390b3b0b 	stmdbcc	fp, {r0, r1, r3, r8, r9, fp, ip, sp}
      d4:	1119270b 	tstne	r9, fp, lsl #14
      d8:	40061201 	andmi	r1, r6, r1, lsl #4
      dc:	19429718 	stmdbne	r2, {r3, r4, r8, r9, sl, ip, pc}^
      e0:	00001301 	andeq	r1, r0, r1, lsl #6
      e4:	03003412 	movweq	r3, #1042	; 0x412
      e8:	3b0b3a08 	blcc	2ce910 <__bss_end__+0x2c3618>
      ec:	490b390b 	stmdbmi	fp, {r0, r1, r3, r8, fp, ip, sp}
      f0:	b7170213 			; <UNDEFINED> instruction: 0xb7170213
      f4:	00001742 	andeq	r1, r0, r2, asr #14
      f8:	03003413 	movweq	r3, #1043	; 0x413
      fc:	3413490e 	ldrcc	r4, [r3], #-2318	; 0xfffff6f2
     100:	00180219 	andseq	r0, r8, r9, lsl r2
     104:	011d1400 	tsteq	sp, r0, lsl #8
     108:	01521331 	cmpeq	r2, r1, lsr r3
     10c:	110b42b8 			; <UNDEFINED> instruction: 0x110b42b8
     110:	58061201 	stmdapl	r6, {r0, r9, ip}
     114:	570b590b 	strpl	r5, [fp, -fp, lsl #18]
     118:	0013010b 	andseq	r0, r3, fp, lsl #2
     11c:	00051500 	andeq	r1, r5, r0, lsl #10
     120:	17021331 	smladxne	r2, r1, r3, r1
     124:	001742b7 			; <UNDEFINED> instruction: 0x001742b7
     128:	82891600 	addhi	r1, r9, #0, 12
     12c:	01110101 	tsteq	r1, r1, lsl #2
     130:	13011331 	movwne	r1, #4913	; 0x1331
     134:	8a170000 	bhi	5c013c <__bss_end__+0x5b4e44>
     138:	02000182 	andeq	r0, r0, #-2147483616	; 0x80000020
     13c:	18429118 	stmdane	r2, {r3, r4, r8, ip, pc}^
     140:	89180000 	ldmdbhi	r8, {}	; <UNPREDICTABLE>
     144:	11000182 	smlabbne	r0, r2, r1, r0
     148:	00133101 	andseq	r3, r3, r1, lsl #2
     14c:	012e1900 			; <UNDEFINED> instruction: 0x012e1900
     150:	0b3a0e03 	bleq	e83964 <__bss_end__+0xe7866c>
     154:	0b390b3b 	bleq	e42e48 <__bss_end__+0xe37b50>
     158:	13491927 	movtne	r1, #39207	; 0x9927
     15c:	06120111 			; <UNDEFINED> instruction: 0x06120111
     160:	42971840 	addsmi	r1, r7, #64, 16	; 0x400000
     164:	00130119 	andseq	r0, r3, r9, lsl r1
     168:	00051a00 	andeq	r1, r5, r0, lsl #20
     16c:	0b3a0803 	bleq	e82180 <__bss_end__+0xe76e88>
     170:	0b390b3b 	bleq	e42e64 <__bss_end__+0xe37b6c>
     174:	17021349 	strne	r1, [r2, -r9, asr #6]
     178:	001742b7 			; <UNDEFINED> instruction: 0x001742b7
     17c:	012e1b00 			; <UNDEFINED> instruction: 0x012e1b00
     180:	0b3a0e03 	bleq	e83994 <__bss_end__+0xe7869c>
     184:	0b390b3b 	bleq	e42e78 <__bss_end__+0xe37b80>
     188:	13491927 	movtne	r1, #39207	; 0x9927
     18c:	13010b20 	movwne	r0, #6944	; 0x1b20
     190:	051c0000 	ldreq	r0, [ip, #-0]
     194:	3a0e0300 	bcc	380d9c <__bss_end__+0x375aa4>
     198:	390b3b0b 	stmdbcc	fp, {r0, r1, r3, r8, r9, fp, ip, sp}
     19c:	0013490b 	andseq	r4, r3, fp, lsl #18
     1a0:	00361d00 	eorseq	r1, r6, r0, lsl #26
     1a4:	00001802 	andeq	r1, r0, r2, lsl #16
     1a8:	3f002e1e 	svccc	0x00002e1e
     1ac:	6e193c19 	mrcvs	12, 0, r3, cr9, cr9, {0}
     1b0:	3a0e030e 	bcc	380df0 <__bss_end__+0x375af8>
     1b4:	390b3b0b 	stmdbcc	fp, {r0, r1, r3, r8, r9, fp, ip, sp}
     1b8:	0000000b 	andeq	r0, r0, fp
     1bc:	25011101 	strcs	r1, [r1, #-257]	; 0xfffffeff
     1c0:	030b130e 	movweq	r1, #45838	; 0xb30e
     1c4:	110e1b0e 	tstne	lr, lr, lsl #22
     1c8:	10061201 	andne	r1, r6, r1, lsl #4
     1cc:	02000017 	andeq	r0, r0, #23, 0
     1d0:	0b0b0024 	bleq	2c0268 <__bss_end__+0x2b4f70>
     1d4:	08030b3e 	stmdaeq	r3, {r1, r2, r3, r4, r5, r8, r9, fp}
     1d8:	24030000 	strcs	r0, [r3], #-0
     1dc:	3e0b0b00 	vmlacc.f64	d0, d11, d0
     1e0:	000e030b 	andeq	r0, lr, fp, lsl #6
     1e4:	00160400 	andseq	r0, r6, r0, lsl #8
     1e8:	0b3a0e03 	bleq	e839fc <__bss_end__+0xe78704>
     1ec:	0b390b3b 	bleq	e42ee0 <__bss_end__+0xe37be8>
     1f0:	00001349 	andeq	r1, r0, r9, asr #6
     1f4:	27011505 	strcs	r1, [r1, -r5, lsl #10]
     1f8:	01134919 	tsteq	r3, r9, lsl r9
     1fc:	06000013 			; <UNDEFINED> instruction: 0x06000013
     200:	13490005 	movtne	r0, #36869	; 0x9005
     204:	34070000 	strcc	r0, [r7], #-0
     208:	3a0e0300 	bcc	380e10 <__bss_end__+0x375b18>
     20c:	390b3b0b 	stmdbcc	fp, {r0, r1, r3, r8, r9, fp, ip, sp}
     210:	3f13490b 	svccc	0x0013490b
     214:	00193c19 	andseq	r3, r9, r9, lsl ip
     218:	000f0800 	andeq	r0, pc, r0, lsl #16
     21c:	13490b0b 	movtne	r0, #39691	; 0x9b0b
     220:	26090000 	strcs	r0, [r9], -r0
     224:	00134900 	andseq	r4, r3, r0, lsl #18
     228:	01130a00 	tsteq	r3, r0, lsl #20
     22c:	0b3a0b0b 	bleq	e82e60 <__bss_end__+0xe77b68>
     230:	0b390b3b 	bleq	e42f24 <__bss_end__+0xe37c2c>
     234:	00001301 	andeq	r1, r0, r1, lsl #6
     238:	03000d0b 	movweq	r0, #3339	; 0xd0b
     23c:	3b0b3a0e 	blcc	2cea7c <__bss_end__+0x2c3784>
     240:	490b390b 	stmdbmi	fp, {r0, r1, r3, r8, fp, ip, sp}
     244:	000b3813 	andeq	r3, fp, r3, lsl r8
     248:	01040c00 	tsteq	r4, r0, lsl #24
     24c:	0b0b0b3e 	bleq	2c2f4c <__bss_end__+0x2b7c54>
     250:	0b3a1349 	bleq	e84f7c <__bss_end__+0xe79c84>
     254:	0b390b3b 	bleq	e42f48 <__bss_end__+0xe37c50>
     258:	00001301 	andeq	r1, r0, r1, lsl #6
     25c:	0300280d 	movweq	r2, #2061	; 0x80d
     260:	000b1c0e 	andeq	r1, fp, lr, lsl #24
     264:	01130e00 	tsteq	r3, r0, lsl #28
     268:	0b0b0e03 	bleq	2c3a7c <__bss_end__+0x2b8784>
     26c:	0b3b0b3a 	bleq	ec2f5c <__bss_end__+0xeb7c64>
     270:	13010b39 	movwne	r0, #6969	; 0x1b39
     274:	0d0f0000 	stceq	0, cr0, [pc, #-0]	; 27c <__code_start__-0x7d84>
     278:	3a080300 	bcc	200e80 <__bss_end__+0x1f5b88>
     27c:	390b3b0b 	stmdbcc	fp, {r0, r1, r3, r8, r9, fp, ip, sp}
     280:	3813490b 	ldmdacc	r3, {r0, r1, r3, r8, fp, lr}
     284:	1000000b 	andne	r0, r0, fp
     288:	13490101 	movtne	r0, #37121	; 0x9101
     28c:	00001301 	andeq	r1, r0, r1, lsl #6
     290:	49002111 	stmdbmi	r0, {r0, r4, r8, sp}
     294:	000b2f13 	andeq	r2, fp, r3, lsl pc
     298:	000f1200 	andeq	r1, pc, r0, lsl #4
     29c:	00000b0b 	andeq	r0, r0, fp, lsl #22
     2a0:	03003413 	movweq	r3, #1043	; 0x413
     2a4:	3b0b3a0e 	blcc	2ceae4 <__bss_end__+0x2c37ec>
     2a8:	490b390b 	stmdbmi	fp, {r0, r1, r3, r8, fp, ip, sp}
     2ac:	00180213 	andseq	r0, r8, r3, lsl r2
     2b0:	012e1400 			; <UNDEFINED> instruction: 0x012e1400
     2b4:	0e03193f 			; <UNDEFINED> instruction: 0x0e03193f
     2b8:	0b3b0b3a 	bleq	ec2fa8 <__bss_end__+0xeb7cb0>
     2bc:	19270b39 	stmdbne	r7!, {r0, r3, r4, r5, r8, r9, fp}
     2c0:	01111349 	tsteq	r1, r9, asr #6
     2c4:	18400612 	stmdane	r0, {r1, r4, r9, sl}^
     2c8:	01194297 			; <UNDEFINED> instruction: 0x01194297
     2cc:	15000013 	strne	r0, [r0, #-19]	; 0xffffffed
     2d0:	0e030005 	cdpeq	0, 0, cr0, cr3, cr5, {0}
     2d4:	0b3b0b3a 	bleq	ec2fc4 <__bss_end__+0xeb7ccc>
     2d8:	13490b39 	movtne	r0, #39737	; 0x9b39
     2dc:	42b71702 	adcsmi	r1, r7, #524288	; 0x80000
     2e0:	16000017 			; <UNDEFINED> instruction: 0x16000017
     2e4:	08030005 	stmdaeq	r3, {r0, r2}
     2e8:	0b3b0b3a 	bleq	ec2fd8 <__bss_end__+0xeb7ce0>
     2ec:	13490b39 	movtne	r0, #39737	; 0x9b39
     2f0:	00001802 	andeq	r1, r0, r2, lsl #16
     2f4:	03003417 	movweq	r3, #1047	; 0x417
     2f8:	3b0b3a08 	blcc	2ceb20 <__bss_end__+0x2c3828>
     2fc:	490b390b 	stmdbmi	fp, {r0, r1, r3, r8, fp, ip, sp}
     300:	b7170213 			; <UNDEFINED> instruction: 0xb7170213
     304:	00001742 	andeq	r1, r0, r2, asr #14
     308:	11010b18 	tstne	r1, r8, lsl fp
     30c:	01061201 	tsteq	r6, r1, lsl #4
     310:	19000013 	stmdbne	r0, {r0, r1, r4}
     314:	01018289 	smlabbeq	r1, r9, r2, r8
     318:	13310111 	teqne	r1, #1073741828	; 0x40000004
     31c:	00001301 	andeq	r1, r0, r1, lsl #6
     320:	01828a1a 	orreq	r8, r2, sl, lsl sl
     324:	91180200 	tstls	r8, r0, lsl #4
     328:	00001842 	andeq	r1, r0, r2, asr #16
     32c:	0182891b 	orreq	r8, r2, fp, lsl r9
     330:	31011101 	tstcc	r1, r1, lsl #2
     334:	1c000013 	stcne	0, cr0, [r0], {19}
     338:	193f012e 	ldmdbne	pc!, {r1, r2, r3, r5, r8}	; <UNPREDICTABLE>
     33c:	0b3a0e03 	bleq	e83b50 <__bss_end__+0xe78858>
     340:	0b390b3b 	bleq	e43034 <__bss_end__+0xe37d3c>
     344:	01111927 	tsteq	r1, r7, lsr #18
     348:	18400612 	stmdane	r0, {r1, r4, r9, sl}^
     34c:	01194297 			; <UNDEFINED> instruction: 0x01194297
     350:	1d000013 	stcne	0, cr0, [r0, #-76]	; 0xffffffb4
     354:	0e030034 	mcreq	0, 0, r0, cr3, cr4, {1}
     358:	19341349 	ldmdbne	r4!, {r0, r3, r6, r8, r9, ip}
     35c:	00001802 	andeq	r1, r0, r2, lsl #16
     360:	55010b1e 	strpl	r0, [r1, #-2846]	; 0xfffff4e2
     364:	00130117 	andseq	r0, r3, r7, lsl r1
     368:	82891f00 	addhi	r1, r9, #0, 30
     36c:	01110001 	tsteq	r1, r1
     370:	00001331 	andeq	r1, r0, r1, lsr r3
     374:	03000520 	movweq	r0, #1312	; 0x520
     378:	3b0b3a08 	blcc	2ceba0 <__bss_end__+0x2c38a8>
     37c:	490b390b 	stmdbmi	fp, {r0, r1, r3, r8, fp, ip, sp}
     380:	b7170213 			; <UNDEFINED> instruction: 0xb7170213
     384:	00001742 	andeq	r1, r0, r2, asr #14
     388:	11010b21 	tstne	r1, r1, lsr #22
     38c:	00061201 	andeq	r1, r6, r1, lsl #4
     390:	011d2200 	tsteq	sp, r0, lsl #4
     394:	01521331 	cmpeq	r2, r1, lsr r3
     398:	110b42b8 			; <UNDEFINED> instruction: 0x110b42b8
     39c:	58061201 	stmdapl	r6, {r0, r9, ip}
     3a0:	570b590b 	strpl	r5, [fp, -fp, lsl #18]
     3a4:	0013010b 	andseq	r0, r3, fp, lsl #2
     3a8:	00052300 	andeq	r2, r5, r0, lsl #6
     3ac:	17021331 	smladxne	r2, r1, r3, r1
     3b0:	001742b7 			; <UNDEFINED> instruction: 0x001742b7
     3b4:	002e2400 	eoreq	r2, lr, r0, lsl #8
     3b8:	0e03193f 			; <UNDEFINED> instruction: 0x0e03193f
     3bc:	0b3b0b3a 	bleq	ec30ac <__bss_end__+0xeb7db4>
     3c0:	19270b39 	stmdbne	r7!, {r0, r3, r4, r5, r8, r9, fp}
     3c4:	01111349 	tsteq	r1, r9, asr #6
     3c8:	18400612 	stmdane	r0, {r1, r4, r9, sl}^
     3cc:	00194297 	mulseq	r9, r7, r2
     3d0:	012e2500 			; <UNDEFINED> instruction: 0x012e2500
     3d4:	0b3a0e03 	bleq	e83be8 <__bss_end__+0xe788f0>
     3d8:	0b390b3b 	bleq	e430cc <__bss_end__+0xe37dd4>
     3dc:	13491927 	movtne	r1, #39207	; 0x9927
     3e0:	13010b20 	movwne	r0, #6944	; 0x1b20
     3e4:	05260000 	streq	r0, [r6, #-0]!
     3e8:	3a080300 	bcc	200ff0 <__bss_end__+0x1f5cf8>
     3ec:	390b3b0b 	stmdbcc	fp, {r0, r1, r3, r8, r9, fp, ip, sp}
     3f0:	0013490b 	andseq	r4, r3, fp, lsl #18
     3f4:	002e2700 	eoreq	r2, lr, r0, lsl #14
     3f8:	193c193f 	ldmdbne	ip!, {r0, r1, r2, r3, r4, r5, r8, fp, ip}
     3fc:	0e030e6e 	cdpeq	14, 0, cr0, cr3, cr14, {3}
     400:	0b3b0b3a 	bleq	ec30f0 <__bss_end__+0xeb7df8>
     404:	00000b39 	andeq	r0, r0, r9, lsr fp
     408:	01110100 	tsteq	r1, r0, lsl #2
     40c:	0b130e25 	bleq	4c3ca8 <__bss_end__+0x4b89b0>
     410:	0e1b0e03 	cdpeq	14, 1, cr0, cr11, cr3, {0}
     414:	06120111 			; <UNDEFINED> instruction: 0x06120111
     418:	00001710 	andeq	r1, r0, r0, lsl r7
     41c:	0b002402 	bleq	942c <rpi_set_output+0x4>
     420:	030b3e0b 	movweq	r3, #48651	; 0xbe0b
     424:	03000008 	movweq	r0, #8
     428:	0b0b0024 	bleq	2c04c0 <__bss_end__+0x2b51c8>
     42c:	0e030b3e 	vmoveq.16	d3[0], r0
     430:	15040000 	strne	r0, [r4, #-0]
     434:	49192701 	ldmdbmi	r9, {r0, r8, r9, sl, sp}
     438:	00130113 	andseq	r0, r3, r3, lsl r1
     43c:	00050500 	andeq	r0, r5, r0, lsl #10
     440:	00001349 	andeq	r1, r0, r9, asr #6
     444:	03003406 	movweq	r3, #1030	; 0x406
     448:	3b0b3a0e 	blcc	2cec88 <__bss_end__+0x2c3990>
     44c:	490b390b 	stmdbmi	fp, {r0, r1, r3, r8, fp, ip, sp}
     450:	3c193f13 	ldccc	15, cr3, [r9], {19}
     454:	07000019 	smladeq	r0, r9, r0, r0
     458:	0b0b000f 	bleq	2c049c <__bss_end__+0x2b51a4>
     45c:	00001349 	andeq	r1, r0, r9, asr #6
     460:	49002608 	stmdbmi	r0, {r3, r9, sl, sp}
     464:	09000013 	stmdbeq	r0, {r0, r1, r4}
     468:	0e030117 	mcreq	1, 0, r0, cr3, cr7, {0}
     46c:	0b3a0b0b 	bleq	e830a0 <__bss_end__+0xe77da8>
     470:	0b390b3b 	bleq	e43164 <__bss_end__+0xe37e6c>
     474:	00001301 	andeq	r1, r0, r1, lsl #6
     478:	03000d0a 	movweq	r0, #3338	; 0xd0a
     47c:	3b0b3a08 	blcc	2ceca4 <__bss_end__+0x2c39ac>
     480:	490b390b 	stmdbmi	fp, {r0, r1, r3, r8, fp, ip, sp}
     484:	0b000013 	bleq	4d8 <__code_start__-0x7b28>
     488:	0b0b000f 	bleq	2c04cc <__bss_end__+0x2b51d4>
     48c:	150c0000 	strne	r0, [ip, #-0]
     490:	00192700 	andseq	r2, r9, r0, lsl #14
     494:	01130d00 	tsteq	r3, r0, lsl #26
     498:	0b3a0b0b 	bleq	e830cc <__bss_end__+0xe77dd4>
     49c:	0b390b3b 	bleq	e43190 <__bss_end__+0xe37e98>
     4a0:	00001301 	andeq	r1, r0, r1, lsl #6
     4a4:	03000d0e 	movweq	r0, #3342	; 0xd0e
     4a8:	3b0b3a08 	blcc	2cecd0 <__bss_end__+0x2c39d8>
     4ac:	490b390b 	stmdbmi	fp, {r0, r1, r3, r8, fp, ip, sp}
     4b0:	000b3813 	andeq	r3, fp, r3, lsl r8
     4b4:	000d0f00 	andeq	r0, sp, r0, lsl #30
     4b8:	0b3a0e03 	bleq	e83ccc <__bss_end__+0xe789d4>
     4bc:	0b390b3b 	bleq	e431b0 <__bss_end__+0xe37eb8>
     4c0:	0b381349 	bleq	e051ec <__bss_end__+0xdf9ef4>
     4c4:	16100000 	ldrne	r0, [r0], -r0
     4c8:	3a0e0300 	bcc	3810d0 <__bss_end__+0x375dd8>
     4cc:	390b3b0b 	stmdbcc	fp, {r0, r1, r3, r8, r9, fp, ip, sp}
     4d0:	0013490b 	andseq	r4, r3, fp, lsl #18
     4d4:	00341100 	eorseq	r1, r4, r0, lsl #2
     4d8:	0b3a0e03 	bleq	e83cec <__bss_end__+0xe789f4>
     4dc:	0b390b3b 	bleq	e431d0 <__bss_end__+0xe37ed8>
     4e0:	18021349 	stmdane	r2, {r0, r3, r6, r8, r9, ip}
     4e4:	2e120000 	cdpcs	0, 1, cr0, cr2, cr0, {0}
     4e8:	03193f01 	tsteq	r9, #1, 30
     4ec:	3b0b3a0e 	blcc	2ced2c <__bss_end__+0x2c3a34>
     4f0:	270b390b 	strcs	r3, [fp, -fp, lsl #18]
     4f4:	12011119 	andne	r1, r1, #1073741830	; 0x40000006
     4f8:	97184006 	ldrls	r4, [r8, -r6]
     4fc:	13011942 	movwne	r1, #6466	; 0x1942
     500:	05130000 	ldreq	r0, [r3, #-0]
     504:	3a080300 	bcc	20110c <__bss_end__+0x1f5e14>
     508:	390b3b0b 	stmdbcc	fp, {r0, r1, r3, r8, r9, fp, ip, sp}
     50c:	0213490b 	andseq	r4, r3, #180224	; 0x2c000
     510:	14000018 	strne	r0, [r0], #-24	; 0xffffffe8
     514:	08030034 	stmdaeq	r3, {r2, r4, r5}
     518:	0b3b0b3a 	bleq	ec3208 <__bss_end__+0xeb7f10>
     51c:	13490b39 	movtne	r0, #39737	; 0x9b39
     520:	42b71702 	adcsmi	r1, r7, #524288	; 0x80000
     524:	15000017 	strne	r0, [r0, #-23]	; 0xffffffe9
     528:	193f012e 	ldmdbne	pc!, {r1, r2, r3, r5, r8}	; <UNPREDICTABLE>
     52c:	0b3a0e03 	bleq	e83d40 <__bss_end__+0xe78a48>
     530:	0b390b3b 	bleq	e43224 <__bss_end__+0xe37f2c>
     534:	13491927 	movtne	r1, #39207	; 0x9927
     538:	06120111 			; <UNDEFINED> instruction: 0x06120111
     53c:	42971840 	addsmi	r1, r7, #64, 16	; 0x400000
     540:	00130119 	andseq	r0, r3, r9, lsl r1
     544:	00051600 	andeq	r1, r5, r0, lsl #12
     548:	0b3a0e03 	bleq	e83d5c <__bss_end__+0xe78a64>
     54c:	0b390b3b 	bleq	e43240 <__bss_end__+0xe37f48>
     550:	17021349 	strne	r1, [r2, -r9, asr #6]
     554:	001742b7 			; <UNDEFINED> instruction: 0x001742b7
     558:	00341700 	eorseq	r1, r4, r0, lsl #14
     55c:	0b3a0e03 	bleq	e83d70 <__bss_end__+0xe78a78>
     560:	0b390b3b 	bleq	e43254 <__bss_end__+0xe37f5c>
     564:	17021349 	strne	r1, [r2, -r9, asr #6]
     568:	001742b7 			; <UNDEFINED> instruction: 0x001742b7
     56c:	82891800 	addhi	r1, r9, #0, 16
     570:	01110101 	tsteq	r1, r1, lsl #2
     574:	00001331 	andeq	r1, r0, r1, lsr r3
     578:	01828a19 	orreq	r8, r2, r9, lsl sl
     57c:	91180200 	tstls	r8, r0, lsl #4
     580:	00001842 	andeq	r1, r0, r2, asr #16
     584:	03012e1a 	movweq	r2, #7706	; 0x1e1a
     588:	3b0b3a0e 	blcc	2cedc8 <__bss_end__+0x2c3ad0>
     58c:	270b390b 	strcs	r3, [fp, -fp, lsl #18]
     590:	11134919 	tstne	r3, r9, lsl r9
     594:	40061201 	andmi	r1, r6, r1, lsl #4
     598:	19429718 	stmdbne	r2, {r3, r4, r8, r9, sl, ip, pc}^
     59c:	00001301 	andeq	r1, r0, r1, lsl #6
     5a0:	0300051b 	movweq	r0, #1307	; 0x51b
     5a4:	3b0b3a08 	blcc	2cedcc <__bss_end__+0x2c3ad4>
     5a8:	490b390b 	stmdbmi	fp, {r0, r1, r3, r8, fp, ip, sp}
     5ac:	b7170213 			; <UNDEFINED> instruction: 0xb7170213
     5b0:	00001742 	andeq	r1, r0, r2, asr #14
     5b4:	0182891c 	orreq	r8, r2, ip, lsl r9
     5b8:	31011101 	tstcc	r1, r1, lsl #2
     5bc:	00130113 	andseq	r0, r3, r3, lsl r1
     5c0:	82891d00 	addhi	r1, r9, #0, 26
     5c4:	01110001 	tsteq	r1, r1
     5c8:	00001331 	andeq	r1, r0, r1, lsr r3
     5cc:	3f002e1e 	svccc	0x00002e1e
     5d0:	6e193c19 	mrcvs	12, 0, r3, cr9, cr9, {0}
     5d4:	3a0e030e 	bcc	381214 <__bss_end__+0x375f1c>
     5d8:	390b3b0b 	stmdbcc	fp, {r0, r1, r3, r8, r9, fp, ip, sp}
     5dc:	0000000b 	andeq	r0, r0, fp
     5e0:	25011101 	strcs	r1, [r1, #-257]	; 0xfffffeff
     5e4:	030b130e 	movweq	r1, #45838	; 0xb30e
     5e8:	110e1b0e 	tstne	lr, lr, lsl #22
     5ec:	10061201 	andne	r1, r6, r1, lsl #4
     5f0:	02000017 	andeq	r0, r0, #23, 0
     5f4:	0b0b0024 	bleq	2c068c <__bss_end__+0x2b5394>
     5f8:	08030b3e 	stmdaeq	r3, {r1, r2, r3, r4, r5, r8, r9, fp}
     5fc:	24030000 	strcs	r0, [r3], #-0
     600:	3e0b0b00 	vmlacc.f64	d0, d11, d0
     604:	000e030b 	andeq	r0, lr, fp, lsl #6
     608:	00160400 	andseq	r0, r6, r0, lsl #8
     60c:	0b3a0e03 	bleq	e83e20 <__bss_end__+0xe78b28>
     610:	0b390b3b 	bleq	e43304 <__bss_end__+0xe3800c>
     614:	00001349 	andeq	r1, r0, r9, asr #6
     618:	27011505 	strcs	r1, [r1, -r5, lsl #10]
     61c:	01134919 	tsteq	r3, r9, lsl r9
     620:	06000013 			; <UNDEFINED> instruction: 0x06000013
     624:	13490005 	movtne	r0, #36869	; 0x9005
     628:	34070000 	strcc	r0, [r7], #-0
     62c:	3a0e0300 	bcc	381234 <__bss_end__+0x375f3c>
     630:	390b3b0b 	stmdbcc	fp, {r0, r1, r3, r8, r9, fp, ip, sp}
     634:	3f13490b 	svccc	0x0013490b
     638:	00193c19 	andseq	r3, r9, r9, lsl ip
     63c:	000f0800 	andeq	r0, pc, r0, lsl #16
     640:	13490b0b 	movtne	r0, #39691	; 0x9b0b
     644:	26090000 	strcs	r0, [r9], -r0
     648:	00134900 	andseq	r4, r3, r0, lsl #18
     64c:	01130a00 	tsteq	r3, r0, lsl #20
     650:	0b3a0b0b 	bleq	e83284 <__bss_end__+0xe77f8c>
     654:	0b390b3b 	bleq	e43348 <__bss_end__+0xe38050>
     658:	00001301 	andeq	r1, r0, r1, lsl #6
     65c:	03000d0b 	movweq	r0, #3339	; 0xd0b
     660:	3b0b3a0e 	blcc	2ceea0 <__bss_end__+0x2c3ba8>
     664:	490b390b 	stmdbmi	fp, {r0, r1, r3, r8, fp, ip, sp}
     668:	000b3813 	andeq	r3, fp, r3, lsl r8
     66c:	01040c00 	tsteq	r4, r0, lsl #24
     670:	0b0b0b3e 	bleq	2c3370 <__bss_end__+0x2b8078>
     674:	0b3a1349 	bleq	e853a0 <__bss_end__+0xe7a0a8>
     678:	0b390b3b 	bleq	e4336c <__bss_end__+0xe38074>
     67c:	00001301 	andeq	r1, r0, r1, lsl #6
     680:	0300280d 	movweq	r2, #2061	; 0x80d
     684:	000b1c0e 	andeq	r1, fp, lr, lsl #24
     688:	01130e00 	tsteq	r3, r0, lsl #28
     68c:	0b0b0e03 	bleq	2c3ea0 <__bss_end__+0x2b8ba8>
     690:	0b3b0b3a 	bleq	ec3380 <__bss_end__+0xeb8088>
     694:	13010b39 	movwne	r0, #6969	; 0x1b39
     698:	0d0f0000 	stceq	0, cr0, [pc, #-0]	; 6a0 <__code_start__-0x7960>
     69c:	3a080300 	bcc	2012a4 <__bss_end__+0x1f5fac>
     6a0:	390b3b0b 	stmdbcc	fp, {r0, r1, r3, r8, r9, fp, ip, sp}
     6a4:	3813490b 	ldmdacc	r3, {r0, r1, r3, r8, fp, lr}
     6a8:	1000000b 	andne	r0, r0, fp
     6ac:	13490101 	movtne	r0, #37121	; 0x9101
     6b0:	00001301 	andeq	r1, r0, r1, lsl #6
     6b4:	49002111 	stmdbmi	r0, {r0, r4, r8, sp}
     6b8:	000b2f13 	andeq	r2, fp, r3, lsl pc
     6bc:	000f1200 	andeq	r1, pc, r0, lsl #4
     6c0:	00000b0b 	andeq	r0, r0, fp, lsl #22
     6c4:	03003413 	movweq	r3, #1043	; 0x413
     6c8:	3b0b3a0e 	blcc	2cef08 <__bss_end__+0x2c3c10>
     6cc:	490b390b 	stmdbmi	fp, {r0, r1, r3, r8, fp, ip, sp}
     6d0:	00180213 	andseq	r0, r8, r3, lsl r2
     6d4:	012e1400 			; <UNDEFINED> instruction: 0x012e1400
     6d8:	0e03193f 			; <UNDEFINED> instruction: 0x0e03193f
     6dc:	053b0b3a 	ldreq	r0, [fp, #-2874]!	; 0xfffff4c6
     6e0:	19270b39 	stmdbne	r7!, {r0, r3, r4, r5, r8, r9, fp}
     6e4:	06120111 			; <UNDEFINED> instruction: 0x06120111
     6e8:	42971840 	addsmi	r1, r7, #64, 16	; 0x400000
     6ec:	00130119 	andseq	r0, r3, r9, lsl r1
     6f0:	00341500 	eorseq	r1, r4, r0, lsl #10
     6f4:	13490e03 	movtne	r0, #40451	; 0x9e03
     6f8:	18021934 	stmdane	r2, {r2, r4, r5, r8, fp, ip}
     6fc:	89160000 	ldmdbhi	r6, {}	; <UNPREDICTABLE>
     700:	11010182 	smlabbne	r1, r2, r1, r0
     704:	01133101 	tsteq	r3, r1, lsl #2
     708:	17000013 	smladne	r0, r3, r0, r0
     70c:	0001828a 	andeq	r8, r1, sl, lsl #5
     710:	42911802 	addsmi	r1, r1, #131072	; 0x20000
     714:	18000018 	stmdane	r0, {r3, r4}
     718:	00018289 	andeq	r8, r1, r9, lsl #5
     71c:	13310111 	teqne	r1, #1073741828	; 0x40000004
     720:	2e190000 	cdpcs	0, 1, cr0, cr9, cr0, {0}
     724:	03193f01 	tsteq	r9, #1, 30
     728:	3b0b3a0e 	blcc	2cef68 <__bss_end__+0x2c3c70>
     72c:	270b3905 	strcs	r3, [fp, -r5, lsl #18]
     730:	11134919 	tstne	r3, r9, lsl r9
     734:	40061201 	andmi	r1, r6, r1, lsl #4
     738:	19429718 	stmdbne	r2, {r3, r4, r8, r9, sl, ip, pc}^
     73c:	00001301 	andeq	r1, r0, r1, lsl #6
     740:	0300341a 	movweq	r3, #1050	; 0x41a
     744:	3b0b3a0e 	blcc	2cef84 <__bss_end__+0x2c3c8c>
     748:	490b3905 	stmdbmi	fp, {r0, r2, r8, fp, ip, sp}
     74c:	b7170213 			; <UNDEFINED> instruction: 0xb7170213
     750:	00001742 	andeq	r1, r0, r2, asr #14
     754:	03012e1b 	movweq	r2, #7707	; 0x1e1b
     758:	3b0b3a0e 	blcc	2cef98 <__bss_end__+0x2c3ca0>
     75c:	270b3905 	strcs	r3, [fp, -r5, lsl #18]
     760:	11134919 	tstne	r3, r9, lsl r9
     764:	40061201 	andmi	r1, r6, r1, lsl #4
     768:	19429718 	stmdbne	r2, {r3, r4, r8, r9, sl, ip, pc}^
     76c:	00001301 	andeq	r1, r0, r1, lsl #6
     770:	55010b1c 	strpl	r0, [r1, #-2844]	; 0xfffff4e4
     774:	00130117 	andseq	r0, r3, r7, lsl r1
     778:	00341d00 	eorseq	r1, r4, r0, lsl #26
     77c:	0b3a0803 	bleq	e82790 <__bss_end__+0xe77498>
     780:	0b39053b 	bleq	e41c74 <__bss_end__+0xe3697c>
     784:	17021349 	strne	r1, [r2, -r9, asr #6]
     788:	001742b7 			; <UNDEFINED> instruction: 0x001742b7
     78c:	011d1e00 	tsteq	sp, r0, lsl #28
     790:	01521331 	cmpeq	r2, r1, lsr r3
     794:	110b42b8 			; <UNDEFINED> instruction: 0x110b42b8
     798:	58061201 	stmdapl	r6, {r0, r9, ip}
     79c:	5705590b 	strpl	r5, [r5, -fp, lsl #18]
     7a0:	0013010b 	andseq	r0, r3, fp, lsl #2
     7a4:	00051f00 	andeq	r1, r5, r0, lsl #30
     7a8:	17021331 	smladxne	r2, r1, r3, r1
     7ac:	001742b7 			; <UNDEFINED> instruction: 0x001742b7
     7b0:	82892000 	addhi	r2, r9, #0, 0
     7b4:	01110101 	tsteq	r1, r1, lsl #2
     7b8:	00001331 	andeq	r1, r0, r1, lsr r3
     7bc:	3f012e21 	svccc	0x00012e21
     7c0:	3a0e0319 	bcc	38142c <__bss_end__+0x376134>
     7c4:	390b3b0b 	stmdbcc	fp, {r0, r1, r3, r8, r9, fp, ip, sp}
     7c8:	1119270b 	tstne	r9, fp, lsl #14
     7cc:	40061201 	andmi	r1, r6, r1, lsl #4
     7d0:	19429718 	stmdbne	r2, {r3, r4, r8, r9, sl, ip, pc}^
     7d4:	00001301 	andeq	r1, r0, r1, lsl #6
     7d8:	3f012e22 	svccc	0x00012e22
     7dc:	3a0e0319 	bcc	381448 <__bss_end__+0x376150>
     7e0:	390b3b0b 	stmdbcc	fp, {r0, r1, r3, r8, r9, fp, ip, sp}
     7e4:	4919270b 	ldmdbmi	r9, {r0, r1, r3, r8, r9, sl, sp}
     7e8:	12011113 	andne	r1, r1, #-1073741820	; 0xc0000004
     7ec:	97184006 	ldrls	r4, [r8, -r6]
     7f0:	13011942 	movwne	r1, #6466	; 0x1942
     7f4:	05230000 	streq	r0, [r3, #-0]!
     7f8:	3a0e0300 	bcc	381400 <__bss_end__+0x376108>
     7fc:	390b3b0b 	stmdbcc	fp, {r0, r1, r3, r8, r9, fp, ip, sp}
     800:	0213490b 	andseq	r4, r3, #180224	; 0x2c000
     804:	1742b717 	smlaldne	fp, r2, r7, r7
     808:	2e240000 	cdpcs	0, 2, cr0, cr4, cr0, {0}
     80c:	3a0e0301 	bcc	381418 <__bss_end__+0x376120>
     810:	390b3b0b 	stmdbcc	fp, {r0, r1, r3, r8, r9, fp, ip, sp}
     814:	4919270b 	ldmdbmi	r9, {r0, r1, r3, r8, r9, sl, sp}
     818:	12011113 	andne	r1, r1, #-1073741820	; 0xc0000004
     81c:	97184006 	ldrls	r4, [r8, -r6]
     820:	13011942 	movwne	r1, #6466	; 0x1942
     824:	34250000 	strtcc	r0, [r5], #-0
     828:	3a0e0300 	bcc	381430 <__bss_end__+0x376138>
     82c:	390b3b0b 	stmdbcc	fp, {r0, r1, r3, r8, r9, fp, ip, sp}
     830:	0213490b 	andseq	r4, r3, #180224	; 0x2c000
     834:	1742b717 	smlaldne	fp, r2, r7, r7
     838:	34260000 	strtcc	r0, [r6], #-0
     83c:	3a080300 	bcc	201444 <__bss_end__+0x1f614c>
     840:	390b3b0b 	stmdbcc	fp, {r0, r1, r3, r8, r9, fp, ip, sp}
     844:	0213490b 	andseq	r4, r3, #180224	; 0x2c000
     848:	1742b717 	smlaldne	fp, r2, r7, r7
     84c:	0b270000 	bleq	9c0854 <__bss_end__+0x9b555c>
     850:	00175501 	andseq	r5, r7, r1, lsl #10
     854:	00052800 	andeq	r2, r5, r0, lsl #16
     858:	0b3a0e03 	bleq	e8406c <__bss_end__+0xe78d74>
     85c:	0b390b3b 	bleq	e43550 <__bss_end__+0xe38258>
     860:	18021349 	stmdane	r2, {r0, r3, r6, r8, r9, ip}
     864:	2e290000 	cdpcs	0, 2, cr0, cr9, cr0, {0}
     868:	3a0e0301 	bcc	381474 <__bss_end__+0x37617c>
     86c:	390b3b0b 	stmdbcc	fp, {r0, r1, r3, r8, r9, fp, ip, sp}
     870:	1119270b 	tstne	r9, fp, lsl #14
     874:	40061201 	andmi	r1, r6, r1, lsl #4
     878:	19429718 	stmdbne	r2, {r3, r4, r8, r9, sl, ip, pc}^
     87c:	00001301 	andeq	r1, r0, r1, lsl #6
     880:	0300342a 	movweq	r3, #1066	; 0x42a
     884:	3b0b3a0e 	blcc	2cf0c4 <__bss_end__+0x2c3dcc>
     888:	490b390b 	stmdbmi	fp, {r0, r1, r3, r8, fp, ip, sp}
     88c:	00061c13 	andeq	r1, r6, r3, lsl ip
     890:	010b2b00 	tsteq	fp, r0, lsl #22
     894:	06120111 			; <UNDEFINED> instruction: 0x06120111
     898:	00001301 	andeq	r1, r0, r1, lsl #6
     89c:	0300052c 	movweq	r0, #1324	; 0x52c
     8a0:	3b0b3a08 	blcc	2cf0c8 <__bss_end__+0x2c3dd0>
     8a4:	490b390b 	stmdbmi	fp, {r0, r1, r3, r8, fp, ip, sp}
     8a8:	b7170213 			; <UNDEFINED> instruction: 0xb7170213
     8ac:	00001742 	andeq	r1, r0, r2, asr #14
     8b0:	03012e2d 	movweq	r2, #7725	; 0x1e2d
     8b4:	3b0b3a0e 	blcc	2cf0f4 <__bss_end__+0x2c3dfc>
     8b8:	270b390b 	strcs	r3, [fp, -fp, lsl #18]
     8bc:	20134919 	andscs	r4, r3, r9, lsl r9
     8c0:	0013010b 	andseq	r0, r3, fp, lsl #2
     8c4:	00052e00 	andeq	r2, r5, r0, lsl #28
     8c8:	0b3a0e03 	bleq	e840dc <__bss_end__+0xe78de4>
     8cc:	0b390b3b 	bleq	e435c0 <__bss_end__+0xe382c8>
     8d0:	00001349 	andeq	r1, r0, r9, asr #6
     8d4:	3f002e2f 	svccc	0x00002e2f
     8d8:	6e193c19 	mrcvs	12, 0, r3, cr9, cr9, {0}
     8dc:	3a0e030e 	bcc	38151c <__bss_end__+0x376224>
     8e0:	390b3b0b 	stmdbcc	fp, {r0, r1, r3, r8, r9, fp, ip, sp}
     8e4:	3000000b 	andcc	r0, r0, fp
     8e8:	18020036 	stmdane	r2, {r1, r2, r4, r5}
     8ec:	01000000 	mrseq	r0, (UNDEF: 0)
     8f0:	0e250111 	mcreq	1, 1, r0, cr5, cr1, {0}
     8f4:	0e030b13 	vmoveq.32	d3[0], r0
     8f8:	01110e1b 	tsteq	r1, fp, lsl lr
     8fc:	17100612 			; <UNDEFINED> instruction: 0x17100612
     900:	24020000 	strcs	r0, [r2], #-0
     904:	3e0b0b00 	vmlacc.f64	d0, d11, d0
     908:	0008030b 	andeq	r0, r8, fp, lsl #6
     90c:	00240300 	eoreq	r0, r4, r0, lsl #6
     910:	0b3e0b0b 	bleq	f83544 <__bss_end__+0xf7824c>
     914:	00000e03 	andeq	r0, r0, r3, lsl #28
     918:	27011504 	strcs	r1, [r1, -r4, lsl #10]
     91c:	01134919 	tsteq	r3, r9, lsl r9
     920:	05000013 	streq	r0, [r0, #-19]	; 0xffffffed
     924:	13490005 	movtne	r0, #36869	; 0x9005
     928:	34060000 	strcc	r0, [r6], #-0
     92c:	3a0e0300 	bcc	381534 <__bss_end__+0x37623c>
     930:	390b3b0b 	stmdbcc	fp, {r0, r1, r3, r8, r9, fp, ip, sp}
     934:	3f13490b 	svccc	0x0013490b
     938:	00193c19 	andseq	r3, r9, r9, lsl ip
     93c:	000f0700 	andeq	r0, pc, r0, lsl #14
     940:	13490b0b 	movtne	r0, #39691	; 0x9b0b
     944:	26080000 	strcs	r0, [r8], -r0
     948:	00134900 	andseq	r4, r3, r0, lsl #18
     94c:	012e0900 			; <UNDEFINED> instruction: 0x012e0900
     950:	0e03193f 			; <UNDEFINED> instruction: 0x0e03193f
     954:	0b3b0b3a 	bleq	ec3644 <__bss_end__+0xeb834c>
     958:	19270b39 	stmdbne	r7!, {r0, r3, r4, r5, r8, r9, fp}
     95c:	0b201349 	bleq	805688 <__bss_end__+0x7fa390>
     960:	00001301 	andeq	r1, r0, r1, lsl #6
     964:	0300050a 	movweq	r0, #1290	; 0x50a
     968:	3b0b3a0e 	blcc	2cf1a8 <__bss_end__+0x2c3eb0>
     96c:	490b390b 	stmdbmi	fp, {r0, r1, r3, r8, fp, ip, sp}
     970:	0b000013 	bleq	9c4 <__code_start__-0x763c>
     974:	0e030034 	mcreq	0, 0, r0, cr3, cr4, {1}
     978:	0b3b0b3a 	bleq	ec3668 <__bss_end__+0xeb8370>
     97c:	13490b39 	movtne	r0, #39737	; 0x9b39
     980:	0b0c0000 	bleq	300988 <__bss_end__+0x2f5690>
     984:	0d000001 	stceq	0, cr0, [r0, #-4]
     988:	193f012e 	ldmdbne	pc!, {r1, r2, r3, r5, r8}	; <UNPREDICTABLE>
     98c:	0b3a0e03 	bleq	e841a0 <__bss_end__+0xe78ea8>
     990:	0b390b3b 	bleq	e43684 <__bss_end__+0xe3838c>
     994:	01111349 	tsteq	r1, r9, asr #6
     998:	18400612 	stmdane	r0, {r1, r4, r9, sl}^
     99c:	01194297 			; <UNDEFINED> instruction: 0x01194297
     9a0:	0e000013 	mcreq	0, 0, r0, cr0, cr3, {0}
     9a4:	0e030034 	mcreq	0, 0, r0, cr3, cr4, {1}
     9a8:	0b3b0b3a 	bleq	ec3698 <__bss_end__+0xeb83a0>
     9ac:	13490b39 	movtne	r0, #39737	; 0x9b39
     9b0:	42b71702 	adcsmi	r1, r7, #524288	; 0x80000
     9b4:	0f000017 	svceq	0x00000017
     9b8:	0111010b 	tsteq	r1, fp, lsl #2
     9bc:	00000612 	andeq	r0, r0, r2, lsl r6
     9c0:	03003410 	movweq	r3, #1040	; 0x410
     9c4:	3b0b3a08 	blcc	2cf1ec <__bss_end__+0x2c3ef4>
     9c8:	490b390b 	stmdbmi	fp, {r0, r1, r3, r8, fp, ip, sp}
     9cc:	b7170213 			; <UNDEFINED> instruction: 0xb7170213
     9d0:	00001742 	andeq	r1, r0, r2, asr #14
     9d4:	55010b11 	strpl	r0, [r1, #-2833]	; 0xfffff4ef
     9d8:	12000017 	andne	r0, r0, #23, 0
     9dc:	1331011d 	teqne	r1, #1073741831	; 0x40000007
     9e0:	42b80152 	adcsmi	r0, r8, #-2147483628	; 0x80000014
     9e4:	5817550b 	ldmdapl	r7, {r0, r1, r3, r8, sl, ip, lr}
     9e8:	570b590b 	strpl	r5, [fp, -fp, lsl #18]
     9ec:	0013010b 	andseq	r0, r3, fp, lsl #2
     9f0:	00051300 	andeq	r1, r5, r0, lsl #6
     9f4:	17021331 	smladxne	r2, r1, r3, r1
     9f8:	001742b7 			; <UNDEFINED> instruction: 0x001742b7
     9fc:	00341400 	eorseq	r1, r4, r0, lsl #8
     a00:	17021331 	smladxne	r2, r1, r3, r1
     a04:	001742b7 			; <UNDEFINED> instruction: 0x001742b7
     a08:	010b1500 	tsteq	fp, r0, lsl #10
     a0c:	17551331 	smmlarne	r5, r1, r3, r1
     a10:	89160000 	ldmdbhi	r6, {}	; <UNPREDICTABLE>
     a14:	11010182 	smlabbne	r1, r2, r1, r0
     a18:	00133101 	andseq	r3, r3, r1, lsl #2
     a1c:	828a1700 	addhi	r1, sl, #0, 14
     a20:	18020001 	stmdane	r2, {r0}
     a24:	00184291 	mulseq	r8, r1, r2
     a28:	012e1800 			; <UNDEFINED> instruction: 0x012e1800
     a2c:	01111331 	tsteq	r1, r1, lsr r3
     a30:	18400612 	stmdane	r0, {r1, r4, r9, sl}^
     a34:	01194297 			; <UNDEFINED> instruction: 0x01194297
     a38:	19000013 	stmdbne	r0, {r0, r1, r4}
     a3c:	1331010b 	teqne	r1, #-1073741822	; 0xc0000002
     a40:	06120111 			; <UNDEFINED> instruction: 0x06120111
     a44:	2e1a0000 	cdpcs	0, 1, cr0, cr10, cr0, {0}
     a48:	3c193f00 	ldccc	15, cr3, [r9], {-0}
     a4c:	030e6e19 	movweq	r6, #60953	; 0xee19
     a50:	3b0b3a0e 	blcc	2cf290 <__bss_end__+0x2c3f98>
     a54:	000b390b 	andeq	r3, fp, fp, lsl #18
     a58:	11010000 	mrsne	r0, (UNDEF: 1)
     a5c:	130e2501 	movwne	r2, #58625	; 0xe501
     a60:	1b0e030b 	blne	381694 <__bss_end__+0x37639c>
     a64:	1201110e 	andne	r1, r1, #-2147483645	; 0x80000003
     a68:	00171006 	andseq	r1, r7, r6
     a6c:	00240200 	eoreq	r0, r4, r0, lsl #4
     a70:	0b3e0b0b 	bleq	f836a4 <__bss_end__+0xf783ac>
     a74:	00000803 	andeq	r0, r0, r3, lsl #16
     a78:	03001603 	movweq	r1, #1539	; 0x603
     a7c:	3b0b3a0e 	blcc	2cf2bc <__bss_end__+0x2c3fc4>
     a80:	490b390b 	stmdbmi	fp, {r0, r1, r3, r8, fp, ip, sp}
     a84:	04000013 	streq	r0, [r0], #-19	; 0xffffffed
     a88:	0b0b0024 	bleq	2c0b20 <__bss_end__+0x2b5828>
     a8c:	0e030b3e 	vmoveq.16	d3[0], r0
     a90:	15050000 	strne	r0, [r5, #-0]
     a94:	49192701 	ldmdbmi	r9, {r0, r8, r9, sl, sp}
     a98:	00130113 	andseq	r0, r3, r3, lsl r1
     a9c:	00050600 	andeq	r0, r5, r0, lsl #12
     aa0:	00001349 	andeq	r1, r0, r9, asr #6
     aa4:	03003407 	movweq	r3, #1031	; 0x407
     aa8:	3b0b3a0e 	blcc	2cf2e8 <__bss_end__+0x2c3ff0>
     aac:	490b390b 	stmdbmi	fp, {r0, r1, r3, r8, fp, ip, sp}
     ab0:	3c193f13 	ldccc	15, cr3, [r9], {19}
     ab4:	08000019 	stmdaeq	r0, {r0, r3, r4}
     ab8:	0b0b000f 	bleq	2c0afc <__bss_end__+0x2b5804>
     abc:	00001349 	andeq	r1, r0, r9, asr #6
     ac0:	49002609 	stmdbmi	r0, {r0, r3, r9, sl, sp}
     ac4:	0a000013 	beq	b18 <__code_start__-0x74e8>
     ac8:	193f012e 	ldmdbne	pc!, {r1, r2, r3, r5, r8}	; <UNPREDICTABLE>
     acc:	0b3a0e03 	bleq	e842e0 <__bss_end__+0xe78fe8>
     ad0:	0b390b3b 	bleq	e437c4 <__bss_end__+0xe384cc>
     ad4:	13491927 	movtne	r1, #39207	; 0x9927
     ad8:	06120111 			; <UNDEFINED> instruction: 0x06120111
     adc:	42971840 	addsmi	r1, r7, #64, 16	; 0x400000
     ae0:	00130119 	andseq	r0, r3, r9, lsl r1
     ae4:	00050b00 	andeq	r0, r5, r0, lsl #22
     ae8:	0b3a0803 	bleq	e82afc <__bss_end__+0xe77804>
     aec:	0b390b3b 	bleq	e437e0 <__bss_end__+0xe384e8>
     af0:	18021349 	stmdane	r2, {r0, r3, r6, r8, r9, ip}
     af4:	050c0000 	streq	r0, [ip, #-0]
     af8:	3a080300 	bcc	201700 <__bss_end__+0x1f6408>
     afc:	390b3b0b 	stmdbcc	fp, {r0, r1, r3, r8, r9, fp, ip, sp}
     b00:	0213490b 	andseq	r4, r3, #180224	; 0x2c000
     b04:	1742b717 	smlaldne	fp, r2, r7, r7
     b08:	340d0000 	strcc	r0, [sp], #-0
     b0c:	3a080300 	bcc	201714 <__bss_end__+0x1f641c>
     b10:	390b3b0b 	stmdbcc	fp, {r0, r1, r3, r8, r9, fp, ip, sp}
     b14:	0213490b 	andseq	r4, r3, #180224	; 0x2c000
     b18:	1742b717 	smlaldne	fp, r2, r7, r7
     b1c:	0f0e0000 	svceq	0x000e0000
     b20:	000b0b00 	andeq	r0, fp, r0, lsl #22
     b24:	11010000 	mrsne	r0, (UNDEF: 1)
     b28:	130e2501 	movwne	r2, #58625	; 0xe501
     b2c:	1b0e030b 	blne	381760 <__bss_end__+0x376468>
     b30:	1201110e 	andne	r1, r1, #-2147483645	; 0x80000003
     b34:	00171006 	andseq	r1, r7, r6
     b38:	00160200 	andseq	r0, r6, r0, lsl #4
     b3c:	0b3a0e03 	bleq	e84350 <__bss_end__+0xe79058>
     b40:	0b390b3b 	bleq	e43834 <__bss_end__+0xe3853c>
     b44:	00001349 	andeq	r1, r0, r9, asr #6
     b48:	03011303 	movweq	r1, #4867	; 0x1303
     b4c:	3a0b0b0e 	bcc	2c378c <__bss_end__+0x2b8494>
     b50:	010b3b0b 	tsteq	fp, fp, lsl #22
     b54:	04000013 	streq	r0, [r0], #-19	; 0xffffffed
     b58:	0e03000d 	cdpeq	0, 0, cr0, cr3, cr13, {0}
     b5c:	0b381349 	bleq	e05888 <__bss_end__+0xdfa590>
     b60:	00001934 	andeq	r1, r0, r4, lsr r9
     b64:	0b000f05 	bleq	4780 <__code_start__-0x3880>
     b68:	0600000b 	streq	r0, [r0], -fp
     b6c:	0b0b0024 	bleq	2c0c04 <__bss_end__+0x2b590c>
     b70:	08030b3e 	stmdaeq	r3, {r1, r2, r3, r4, r5, r8, r9, fp}
     b74:	24070000 	strcs	r0, [r7], #-0
     b78:	3e0b0b00 	vmlacc.f64	d0, d11, d0
     b7c:	000e030b 	andeq	r0, lr, fp, lsl #6
     b80:	01150800 	tsteq	r5, r0, lsl #16
     b84:	13491927 	movtne	r1, #39207	; 0x9927
     b88:	00001301 	andeq	r1, r0, r1, lsl #6
     b8c:	49000509 	stmdbmi	r0, {r0, r3, r8, sl}
     b90:	0a000013 	beq	be4 <__code_start__-0x741c>
     b94:	0e030034 	mcreq	0, 0, r0, cr3, cr4, {1}
     b98:	0b3b0b3a 	bleq	ec3888 <__bss_end__+0xeb8590>
     b9c:	13490b39 	movtne	r0, #39737	; 0x9b39
     ba0:	193c193f 	ldmdbne	ip!, {r0, r1, r2, r3, r4, r5, r8, fp, ip}
     ba4:	0f0b0000 	svceq	0x000b0000
     ba8:	490b0b00 	stmdbmi	fp, {r8, r9, fp}
     bac:	0c000013 	stceq	0, cr0, [r0], {19}
     bb0:	13490026 	movtne	r0, #36902	; 0x9026
     bb4:	2e0d0000 	cdpcs	0, 0, cr0, cr13, cr0, {0}
     bb8:	03193f01 	tsteq	r9, #1, 30
     bbc:	3b0b3a0e 	blcc	2cf3fc <__bss_end__+0x2c4104>
     bc0:	270b390b 	strcs	r3, [fp, -fp, lsl #18]
     bc4:	11134919 	tstne	r3, r9, lsl r9
     bc8:	40061201 	andmi	r1, r6, r1, lsl #4
     bcc:	19429718 	stmdbne	r2, {r3, r4, r8, r9, sl, ip, pc}^
     bd0:	00001301 	andeq	r1, r0, r1, lsl #6
     bd4:	0300050e 	movweq	r0, #1294	; 0x50e
     bd8:	3b0b3a08 	blcc	2cf400 <__bss_end__+0x2c4108>
     bdc:	490b390b 	stmdbmi	fp, {r0, r1, r3, r8, fp, ip, sp}
     be0:	00180213 	andseq	r0, r8, r3, lsl r2
     be4:	00180f00 	andseq	r0, r8, r0, lsl #30
     be8:	34100000 	ldrcc	r0, [r0], #-0
     bec:	3a080300 	bcc	2017f4 <__bss_end__+0x1f64fc>
     bf0:	390b3b0b 	stmdbcc	fp, {r0, r1, r3, r8, r9, fp, ip, sp}
     bf4:	0213490b 	andseq	r4, r3, #180224	; 0x2c000
     bf8:	11000018 	tstne	r0, r8, lsl r0
     bfc:	0e030034 	mcreq	0, 0, r0, cr3, cr4, {1}
     c00:	0b3b0b3a 	bleq	ec38f0 <__bss_end__+0xeb85f8>
     c04:	13490b39 	movtne	r0, #39737	; 0x9b39
     c08:	00001802 	andeq	r1, r0, r2, lsl #16
     c0c:	03003412 	movweq	r3, #1042	; 0x412
     c10:	3b0b3a08 	blcc	2cf438 <__bss_end__+0x2c4140>
     c14:	490b390b 	stmdbmi	fp, {r0, r1, r3, r8, fp, ip, sp}
     c18:	b7170213 			; <UNDEFINED> instruction: 0xb7170213
     c1c:	00001742 	andeq	r1, r0, r2, asr #14
     c20:	01828913 	orreq	r8, r2, r3, lsl r9
     c24:	31011101 	tstcc	r1, r1, lsl #2
     c28:	00130113 	andseq	r0, r3, r3, lsl r1
     c2c:	828a1400 	addhi	r1, sl, #0, 8
     c30:	18020001 	stmdane	r2, {r0}
     c34:	00184291 	mulseq	r8, r1, r2
     c38:	82891500 	addhi	r1, r9, #0, 10
     c3c:	01110101 	tsteq	r1, r1, lsl #2
     c40:	01160000 	tsteq	r6, r0
     c44:	01134901 	tsteq	r3, r1, lsl #18
     c48:	17000013 	smladne	r0, r3, r0, r0
     c4c:	13490021 	movtne	r0, #36897	; 0x9021
     c50:	0000052f 	andeq	r0, r0, pc, lsr #10
     c54:	3f002e18 	svccc	0x00002e18
     c58:	6e193c19 	mrcvs	12, 0, r3, cr9, cr9, {0}
     c5c:	3a0e030e 	bcc	38189c <__bss_end__+0x3765a4>
     c60:	390b3b0b 	stmdbcc	fp, {r0, r1, r3, r8, r9, fp, ip, sp}
     c64:	0000000b 	andeq	r0, r0, fp
     c68:	25011101 	strcs	r1, [r1, #-257]	; 0xfffffeff
     c6c:	030b130e 	movweq	r1, #45838	; 0xb30e
     c70:	110e1b0e 	tstne	lr, lr, lsl #22
     c74:	10061201 	andne	r1, r6, r1, lsl #4
     c78:	02000017 	andeq	r0, r0, #23, 0
     c7c:	0b0b0024 	bleq	2c0d14 <__bss_end__+0x2b5a1c>
     c80:	08030b3e 	stmdaeq	r3, {r1, r2, r3, r4, r5, r8, r9, fp}
     c84:	24030000 	strcs	r0, [r3], #-0
     c88:	3e0b0b00 	vmlacc.f64	d0, d11, d0
     c8c:	000e030b 	andeq	r0, lr, fp, lsl #6
     c90:	01150400 	tsteq	r5, r0, lsl #8
     c94:	13491927 	movtne	r1, #39207	; 0x9927
     c98:	00001301 	andeq	r1, r0, r1, lsl #6
     c9c:	49000505 	stmdbmi	r0, {r0, r2, r8, sl}
     ca0:	06000013 			; <UNDEFINED> instruction: 0x06000013
     ca4:	0e030034 	mcreq	0, 0, r0, cr3, cr4, {1}
     ca8:	0b3b0b3a 	bleq	ec3998 <__bss_end__+0xeb86a0>
     cac:	13490b39 	movtne	r0, #39737	; 0x9b39
     cb0:	193c193f 	ldmdbne	ip!, {r0, r1, r2, r3, r4, r5, r8, fp, ip}
     cb4:	0f070000 	svceq	0x00070000
     cb8:	490b0b00 	stmdbmi	fp, {r8, r9, fp}
     cbc:	08000013 	stmdaeq	r0, {r0, r1, r4}
     cc0:	13490026 	movtne	r0, #36902	; 0x9026
     cc4:	34090000 	strcc	r0, [r9], #-0
     cc8:	3a134700 	bcc	4d28d0 <__bss_end__+0x4c75d8>
     ccc:	390b3b0b 	stmdbcc	fp, {r0, r1, r3, r8, r9, fp, ip, sp}
     cd0:	0018020b 	andseq	r0, r8, fp, lsl #4
     cd4:	012e0a00 			; <UNDEFINED> instruction: 0x012e0a00
     cd8:	0e03193f 			; <UNDEFINED> instruction: 0x0e03193f
     cdc:	0b3b0b3a 	bleq	ec39cc <__bss_end__+0xeb86d4>
     ce0:	19270b39 	stmdbne	r7!, {r0, r3, r4, r5, r8, r9, fp}
     ce4:	01111349 	tsteq	r1, r9, asr #6
     ce8:	18400612 	stmdane	r0, {r1, r4, r9, sl}^
     cec:	00194296 	mulseq	r9, r6, r2
     cf0:	00050b00 	andeq	r0, r5, r0, lsl #22
     cf4:	0b3a0803 	bleq	e82d08 <__bss_end__+0xe77a10>
     cf8:	0b390b3b 	bleq	e439ec <__bss_end__+0xe386f4>
     cfc:	17021349 	strne	r1, [r2, -r9, asr #6]
     d00:	001742b7 			; <UNDEFINED> instruction: 0x001742b7
     d04:	11010000 	mrsne	r0, (UNDEF: 1)
     d08:	130e2501 	movwne	r2, #58625	; 0xe501
     d0c:	1b0e030b 	blne	381940 <__bss_end__+0x376648>
     d10:	1201110e 	andne	r1, r1, #-2147483645	; 0x80000003
     d14:	00171006 	andseq	r1, r7, r6
     d18:	00240200 	eoreq	r0, r4, r0, lsl #4
     d1c:	0b3e0b0b 	bleq	f83950 <__bss_end__+0xf78658>
     d20:	00000e03 	andeq	r0, r0, r3, lsl #28
     d24:	0b002403 	bleq	9d38 <delay_sec+0x8>
     d28:	030b3e0b 	movweq	r3, #48651	; 0xbe0b
     d2c:	04000008 	streq	r0, [r0], #-8
     d30:	0e030016 	mcreq	0, 0, r0, cr3, cr6, {0}
     d34:	0b3b0b3a 	bleq	ec3a24 <__bss_end__+0xeb872c>
     d38:	13490b39 	movtne	r0, #39737	; 0x9b39
     d3c:	15050000 	strne	r0, [r5, #-0]
     d40:	49192701 	ldmdbmi	r9, {r0, r8, r9, sl, sp}
     d44:	00130113 	andseq	r0, r3, r3, lsl r1
     d48:	00050600 	andeq	r0, r5, r0, lsl #12
     d4c:	00001349 	andeq	r1, r0, r9, asr #6
     d50:	03003407 	movweq	r3, #1031	; 0x407
     d54:	3b0b3a0e 	blcc	2cf594 <__bss_end__+0x2c429c>
     d58:	490b390b 	stmdbmi	fp, {r0, r1, r3, r8, fp, ip, sp}
     d5c:	3c193f13 	ldccc	15, cr3, [r9], {19}
     d60:	08000019 	stmdaeq	r0, {r0, r3, r4}
     d64:	0b0b000f 	bleq	2c0da8 <__bss_end__+0x2b5ab0>
     d68:	00001349 	andeq	r1, r0, r9, asr #6
     d6c:	49002609 	stmdbmi	r0, {r0, r3, r9, sl, sp}
     d70:	0a000013 	beq	dc4 <__code_start__-0x723c>
     d74:	0e030113 	mcreq	1, 0, r0, cr3, cr3, {0}
     d78:	0b3a0b0b 	bleq	e839ac <__bss_end__+0xe786b4>
     d7c:	13010b3b 	movwne	r0, #6971	; 0x1b3b
     d80:	0d0b0000 	stceq	0, cr0, [fp, #-0]
     d84:	490e0300 	stmdbmi	lr, {r8, r9}
     d88:	340b3813 	strcc	r3, [fp], #-2067	; 0xfffff7ed
     d8c:	0c000019 	stceq	0, cr0, [r0], {25}
     d90:	0b0b000f 	bleq	2c0dd4 <__bss_end__+0x2b5adc>
     d94:	2e0d0000 	cdpcs	0, 0, cr0, cr13, cr0, {0}
     d98:	03193f01 	tsteq	r9, #1, 30
     d9c:	3b0b3a0e 	blcc	2cf5dc <__bss_end__+0x2c42e4>
     da0:	270b390b 	strcs	r3, [fp, -fp, lsl #18]
     da4:	11134919 	tstne	r3, r9, lsl r9
     da8:	40061201 	andmi	r1, r6, r1, lsl #4
     dac:	19429718 	stmdbne	r2, {r3, r4, r8, r9, sl, ip, pc}^
     db0:	00001301 	andeq	r1, r0, r1, lsl #6
     db4:	0300050e 	movweq	r0, #1294	; 0x50e
     db8:	3b0b3a08 	blcc	2cf5e0 <__bss_end__+0x2c42e8>
     dbc:	490b390b 	stmdbmi	fp, {r0, r1, r3, r8, fp, ip, sp}
     dc0:	b7170213 			; <UNDEFINED> instruction: 0xb7170213
     dc4:	00001742 	andeq	r1, r0, r2, asr #14
     dc8:	0300050f 	movweq	r0, #1295	; 0x50f
     dcc:	3b0b3a0e 	blcc	2cf60c <__bss_end__+0x2c4314>
     dd0:	490b390b 	stmdbmi	fp, {r0, r1, r3, r8, fp, ip, sp}
     dd4:	b7170213 			; <UNDEFINED> instruction: 0xb7170213
     dd8:	00001742 	andeq	r1, r0, r2, asr #14
     ddc:	03003410 	movweq	r3, #1040	; 0x410
     de0:	3b0b3a08 	blcc	2cf608 <__bss_end__+0x2c4310>
     de4:	490b390b 	stmdbmi	fp, {r0, r1, r3, r8, fp, ip, sp}
     de8:	b7170213 			; <UNDEFINED> instruction: 0xb7170213
     dec:	00001742 	andeq	r1, r0, r2, asr #14
     df0:	03003411 	movweq	r3, #1041	; 0x411
     df4:	3b0b3a0e 	blcc	2cf634 <__bss_end__+0x2c433c>
     df8:	490b390b 	stmdbmi	fp, {r0, r1, r3, r8, fp, ip, sp}
     dfc:	b7170213 			; <UNDEFINED> instruction: 0xb7170213
     e00:	00001742 	andeq	r1, r0, r2, asr #14
     e04:	03003412 	movweq	r3, #1042	; 0x412
     e08:	3413490e 	ldrcc	r4, [r3], #-2318	; 0xfffff6f2
     e0c:	00180219 	andseq	r0, r8, r9, lsl r2
     e10:	010b1300 	mrseq	r1, (UNDEF: 59)
     e14:	00001755 	andeq	r1, r0, r5, asr r7
     e18:	03003414 	movweq	r3, #1044	; 0x414
     e1c:	3b0b3a08 	blcc	2cf644 <__bss_end__+0x2c434c>
     e20:	490b390b 	stmdbmi	fp, {r0, r1, r3, r8, fp, ip, sp}
     e24:	00180213 	andseq	r0, r8, r3, lsl r2
     e28:	00341500 	eorseq	r1, r4, r0, lsl #10
     e2c:	0b3a0e03 	bleq	e84640 <__bss_end__+0xe79348>
     e30:	0b390b3b 	bleq	e43b24 <__bss_end__+0xe3882c>
     e34:	18021349 	stmdane	r2, {r0, r3, r6, r8, r9, ip}
     e38:	0b160000 	bleq	580e40 <__bss_end__+0x575b48>
     e3c:	01175501 	tsteq	r7, r1, lsl #10
     e40:	17000013 	smladne	r0, r3, r0, r0
     e44:	01018289 	smlabbeq	r1, r9, r2, r8
     e48:	13310111 	teqne	r1, #1073741828	; 0x40000004
     e4c:	00001301 	andeq	r1, r0, r1, lsl #6
     e50:	01828a18 	orreq	r8, r2, r8, lsl sl
     e54:	91180200 	tstls	r8, r0, lsl #4
     e58:	00001842 	andeq	r1, r0, r2, asr #16
     e5c:	01828919 	orreq	r8, r2, r9, lsl r9
     e60:	31011100 	mrscc	r1, (UNDEF: 17)
     e64:	1a000013 	bne	eb8 <__code_start__-0x7148>
     e68:	1331011d 	teqne	r1, #1073741831	; 0x40000007
     e6c:	42b80152 	adcsmi	r0, r8, #-2147483628	; 0x80000014
     e70:	58175505 	ldmdapl	r7, {r0, r2, r8, sl, ip, lr}
     e74:	570b590b 	strpl	r5, [fp, -fp, lsl #18]
     e78:	0013010b 	andseq	r0, r3, fp, lsl #2
     e7c:	00051b00 	andeq	r1, r5, r0, lsl #22
     e80:	17021331 	smladxne	r2, r1, r3, r1
     e84:	001742b7 			; <UNDEFINED> instruction: 0x001742b7
     e88:	00051c00 	andeq	r1, r5, r0, lsl #24
     e8c:	00001331 	andeq	r1, r0, r1, lsr r3
     e90:	3100341d 	tstcc	r0, sp, lsl r4
     e94:	00180213 	andseq	r0, r8, r3, lsl r2
     e98:	00341e00 	eorseq	r1, r4, r0, lsl #28
     e9c:	17021331 	smladxne	r2, r1, r3, r1
     ea0:	001742b7 			; <UNDEFINED> instruction: 0x001742b7
     ea4:	00341f00 	eorseq	r1, r4, r0, lsl #30
     ea8:	00001331 	andeq	r1, r0, r1, lsr r3
     eac:	31011d20 	tstcc	r1, r0, lsr #26
     eb0:	b8015213 	stmdalt	r1, {r0, r1, r4, r9, ip, lr}
     eb4:	17550542 	ldrbne	r0, [r5, -r2, asr #10]
     eb8:	0b590b58 	bleq	1643c20 <__bss_end__+0x1638928>
     ebc:	00000b57 	andeq	r0, r0, r7, asr fp
     ec0:	01828921 	orreq	r8, r2, r1, lsr #18
     ec4:	01011101 	tsteq	r1, r1, lsl #2
     ec8:	22000013 	andcs	r0, r0, #19, 0
     ecc:	13490101 	movtne	r0, #37121	; 0x9101
     ed0:	00001301 	andeq	r1, r0, r1, lsl #6
     ed4:	49002123 	stmdbmi	r0, {r0, r1, r5, r8, sp}
     ed8:	000b2f13 	andeq	r2, fp, r3, lsl pc
     edc:	012e2400 			; <UNDEFINED> instruction: 0x012e2400
     ee0:	0b3a0e03 	bleq	e846f4 <__bss_end__+0xe793fc>
     ee4:	0b390b3b 	bleq	e43bd8 <__bss_end__+0xe388e0>
     ee8:	13491927 	movtne	r1, #39207	; 0x9927
     eec:	13010b20 	movwne	r0, #6944	; 0x1b20
     ef0:	05250000 	streq	r0, [r5, #-0]!
     ef4:	3a0e0300 	bcc	381afc <__bss_end__+0x376804>
     ef8:	390b3b0b 	stmdbcc	fp, {r0, r1, r3, r8, r9, fp, ip, sp}
     efc:	0013490b 	andseq	r4, r3, fp, lsl #18
     f00:	00052600 	andeq	r2, r5, r0, lsl #12
     f04:	0b3a0803 	bleq	e82f18 <__bss_end__+0xe77c20>
     f08:	0b390b3b 	bleq	e43bfc <__bss_end__+0xe38904>
     f0c:	00001349 	andeq	r1, r0, r9, asr #6
     f10:	03003427 	movweq	r3, #1063	; 0x427
     f14:	3b0b3a08 	blcc	2cf73c <__bss_end__+0x2c4444>
     f18:	490b390b 	stmdbmi	fp, {r0, r1, r3, r8, fp, ip, sp}
     f1c:	28000013 	stmdacs	r0, {r0, r1, r4}
     f20:	0000010b 	andeq	r0, r0, fp, lsl #2
     f24:	03003429 	movweq	r3, #1065	; 0x429
     f28:	3b0b3a0e 	blcc	2cf768 <__bss_end__+0x2c4470>
     f2c:	490b390b 	stmdbmi	fp, {r0, r1, r3, r8, fp, ip, sp}
     f30:	2a000013 	bcs	f84 <__code_start__-0x707c>
     f34:	0803012e 	stmdaeq	r3, {r1, r2, r3, r5, r8}
     f38:	0b3b0b3a 	bleq	ec3c28 <__bss_end__+0xeb8930>
     f3c:	19270b39 	stmdbne	r7!, {r0, r3, r4, r5, r8, r9, fp}
     f40:	0b201349 	bleq	805c6c <__bss_end__+0x7fa974>
     f44:	00001301 	andeq	r1, r0, r1, lsl #6
     f48:	3f012e2b 	svccc	0x00012e2b
     f4c:	3a0e0319 	bcc	381bb8 <__bss_end__+0x3768c0>
     f50:	390b3b0b 	stmdbcc	fp, {r0, r1, r3, r8, r9, fp, ip, sp}
     f54:	1119270b 	tstne	r9, fp, lsl #14
     f58:	40061201 	andmi	r1, r6, r1, lsl #4
     f5c:	19429718 	stmdbne	r2, {r3, r4, r8, r9, sl, ip, pc}^
     f60:	00001301 	andeq	r1, r0, r1, lsl #6
     f64:	31012e2c 	tstcc	r1, ip, lsr #28
     f68:	12011113 	andne	r1, r1, #-1073741820	; 0xc0000004
     f6c:	97184006 	ldrls	r4, [r8, -r6]
     f70:	13011942 	movwne	r1, #6466	; 0x1942
     f74:	052d0000 	streq	r0, [sp, #-0]!
     f78:	02133100 	andseq	r3, r3, #0
     f7c:	2e000018 	mcrcs	0, 0, r0, cr0, cr8, {0}
     f80:	13310005 	teqne	r1, #5, 0
     f84:	00000b1c 	andeq	r0, r0, ip, lsl fp
     f88:	31010b2f 	tstcc	r1, pc, lsr #22
     f8c:	12011113 	andne	r1, r1, #-1073741820	; 0xc0000004
     f90:	00130106 	andseq	r0, r3, r6, lsl #2
     f94:	002e3000 	eoreq	r3, lr, r0
     f98:	193c193f 	ldmdbne	ip!, {r0, r1, r2, r3, r4, r5, r8, fp, ip}
     f9c:	0e030e6e 	cdpeq	14, 0, cr0, cr3, cr14, {3}
     fa0:	0b3b0b3a 	bleq	ec3c90 <__bss_end__+0xeb8998>
     fa4:	00000b39 	andeq	r0, r0, r9, lsr fp
     fa8:	01110100 	tsteq	r1, r0, lsl #2
     fac:	0b130e25 	bleq	4c4848 <__bss_end__+0x4b9550>
     fb0:	0e1b0e03 	cdpeq	14, 1, cr0, cr11, cr3, {0}
     fb4:	06120111 			; <UNDEFINED> instruction: 0x06120111
     fb8:	00001710 	andeq	r1, r0, r0, lsl r7
     fbc:	0b002402 	bleq	9fcc <kmalloc_init_set_start+0x28>
     fc0:	030b3e0b 	movweq	r3, #48651	; 0xbe0b
     fc4:	03000008 	movweq	r0, #8
     fc8:	0b0b0024 	bleq	2c1060 <__bss_end__+0x2b5d68>
     fcc:	0e030b3e 	vmoveq.16	d3[0], r0
     fd0:	15040000 	strne	r0, [r4, #-0]
     fd4:	49192701 	ldmdbmi	r9, {r0, r8, r9, sl, sp}
     fd8:	00130113 	andseq	r0, r3, r3, lsl r1
     fdc:	00050500 	andeq	r0, r5, r0, lsl #10
     fe0:	00001349 	andeq	r1, r0, r9, asr #6
     fe4:	03003406 	movweq	r3, #1030	; 0x406
     fe8:	3b0b3a0e 	blcc	2cf828 <__bss_end__+0x2c4530>
     fec:	490b390b 	stmdbmi	fp, {r0, r1, r3, r8, fp, ip, sp}
     ff0:	3c193f13 	ldccc	15, cr3, [r9], {19}
     ff4:	07000019 	smladeq	r0, r9, r0, r0
     ff8:	0b0b000f 	bleq	2c103c <__bss_end__+0x2b5d44>
     ffc:	00001349 	andeq	r1, r0, r9, asr #6
    1000:	49002608 	stmdbmi	r0, {r3, r9, sl, sp}
    1004:	09000013 	stmdbeq	r0, {r0, r1, r4}
    1008:	193f012e 	ldmdbne	pc!, {r1, r2, r3, r5, r8}	; <UNPREDICTABLE>
    100c:	0b3a0e03 	bleq	e84820 <__bss_end__+0xe79528>
    1010:	0b390b3b 	bleq	e43d04 <__bss_end__+0xe38a0c>
    1014:	01871927 	orreq	r1, r7, r7, lsr #18
    1018:	12011119 	andne	r1, r1, #1073741830	; 0x40000006
    101c:	97184006 	ldrls	r4, [r8, -r6]
    1020:	13011942 	movwne	r1, #6466	; 0x1942
    1024:	890a0000 	stmdbhi	sl, {}	; <UNPREDICTABLE>
    1028:	11010182 	smlabbne	r1, r2, r1, r0
    102c:	00130101 	andseq	r0, r3, r1, lsl #2
    1030:	828a0b00 	addhi	r0, sl, #0, 22
    1034:	18020001 	stmdane	r2, {r0}
    1038:	00184291 	mulseq	r8, r1, r2
    103c:	82890c00 	addhi	r0, r9, #0, 24
    1040:	01110001 	tsteq	r1, r1
    1044:	00001331 	andeq	r1, r0, r1, lsr r3
    1048:	0182890d 	orreq	r8, r2, sp, lsl #18
    104c:	31011101 	tstcc	r1, r1, lsl #2
    1050:	00130113 	andseq	r0, r3, r3, lsl r1
    1054:	002e0e00 	eoreq	r0, lr, r0, lsl #28
    1058:	193c193f 	ldmdbne	ip!, {r0, r1, r2, r3, r4, r5, r8, fp, ip}
    105c:	0e030e6e 	cdpeq	14, 0, cr0, cr3, cr14, {3}
    1060:	0b3b0b3a 	bleq	ec3d50 <__bss_end__+0xeb8a58>
    1064:	00000b39 	andeq	r0, r0, r9, lsr fp
    1068:	01110100 	tsteq	r1, r0, lsl #2
    106c:	0b130e25 	bleq	4c4908 <__bss_end__+0x4b9610>
    1070:	0e1b0e03 	cdpeq	14, 1, cr0, cr11, cr3, {0}
    1074:	06120111 			; <UNDEFINED> instruction: 0x06120111
    1078:	00001710 	andeq	r1, r0, r0, lsl r7
    107c:	0b002402 	bleq	a08c <kmalloc_init+0x4c>
    1080:	030b3e0b 	movweq	r3, #48651	; 0xbe0b
    1084:	03000008 	movweq	r0, #8
    1088:	0b0b0024 	bleq	2c1120 <__bss_end__+0x2b5e28>
    108c:	0e030b3e 	vmoveq.16	d3[0], r0
    1090:	15040000 	strne	r0, [r4, #-0]
    1094:	49192701 	ldmdbmi	r9, {r0, r8, r9, sl, sp}
    1098:	00130113 	andseq	r0, r3, r3, lsl r1
    109c:	00050500 	andeq	r0, r5, r0, lsl #10
    10a0:	00001349 	andeq	r1, r0, r9, asr #6
    10a4:	03003406 	movweq	r3, #1030	; 0x406
    10a8:	3b0b3a0e 	blcc	2cf8e8 <__bss_end__+0x2c45f0>
    10ac:	490b390b 	stmdbmi	fp, {r0, r1, r3, r8, fp, ip, sp}
    10b0:	3c193f13 	ldccc	15, cr3, [r9], {19}
    10b4:	07000019 	smladeq	r0, r9, r0, r0
    10b8:	0b0b000f 	bleq	2c10fc <__bss_end__+0x2b5e04>
    10bc:	00001349 	andeq	r1, r0, r9, asr #6
    10c0:	49002608 	stmdbmi	r0, {r3, r9, sl, sp}
    10c4:	09000013 	stmdbeq	r0, {r0, r1, r4}
    10c8:	193f012e 	ldmdbne	pc!, {r1, r2, r3, r5, r8}	; <UNPREDICTABLE>
    10cc:	0b3a0e03 	bleq	e848e0 <__bss_end__+0xe795e8>
    10d0:	0b390b3b 	bleq	e43dc4 <__bss_end__+0xe38acc>
    10d4:	06120111 			; <UNDEFINED> instruction: 0x06120111
    10d8:	42971840 	addsmi	r1, r7, #64, 16	; 0x400000
    10dc:	00130119 	andseq	r0, r3, r9, lsl r1
    10e0:	002e0a00 	eoreq	r0, lr, r0, lsl #20
    10e4:	0e03193f 			; <UNDEFINED> instruction: 0x0e03193f
    10e8:	0b3b0b3a 	bleq	ec3dd8 <__bss_end__+0xeb8ae0>
    10ec:	19270b39 	stmdbne	r7!, {r0, r3, r4, r5, r8, r9, fp}
    10f0:	0000193c 	andeq	r1, r0, ip, lsr r9
    10f4:	0300340b 	movweq	r3, #1035	; 0x40b
    10f8:	3b0b3a08 	blcc	2cf920 <__bss_end__+0x2c4628>
    10fc:	490b390b 	stmdbmi	fp, {r0, r1, r3, r8, fp, ip, sp}
    1100:	b7170213 			; <UNDEFINED> instruction: 0xb7170213
    1104:	00001742 	andeq	r1, r0, r2, asr #14
    1108:	0300340c 	movweq	r3, #1036	; 0x40c
    110c:	3b0b3a0e 	blcc	2cf94c <__bss_end__+0x2c4654>
    1110:	490b390b 	stmdbmi	fp, {r0, r1, r3, r8, fp, ip, sp}
    1114:	0d000013 	stceq	0, cr0, [r0, #-76]	; 0xffffffb4
    1118:	0111010b 	tsteq	r1, fp, lsl #2
    111c:	13010612 	movwne	r0, #5650	; 0x1612
    1120:	890e0000 	stmdbhi	lr, {}	; <UNPREDICTABLE>
    1124:	11000182 	smlabbne	r0, r2, r1, r0
    1128:	00133101 	andseq	r3, r3, r1, lsl #2
    112c:	002e0f00 	eoreq	r0, lr, r0, lsl #30
    1130:	193c193f 	ldmdbne	ip!, {r0, r1, r2, r3, r4, r5, r8, fp, ip}
    1134:	0e030e6e 	cdpeq	14, 0, cr0, cr3, cr14, {3}
    1138:	053b0b3a 	ldreq	r0, [fp, #-2874]!	; 0xfffff4c6
    113c:	00000b39 	andeq	r0, r0, r9, lsr fp
    1140:	3f002e10 	svccc	0x00002e10
    1144:	6e193c19 	mrcvs	12, 0, r3, cr9, cr9, {0}
    1148:	3a0e030e 	bcc	381d88 <__bss_end__+0x376a90>
    114c:	390b3b0b 	stmdbcc	fp, {r0, r1, r3, r8, r9, fp, ip, sp}
    1150:	0000000b 	andeq	r0, r0, fp
    1154:	25011101 	strcs	r1, [r1, #-257]	; 0xfffffeff
    1158:	030b130e 	movweq	r1, #45838	; 0xb30e
    115c:	110e1b0e 	tstne	lr, lr, lsl #22
    1160:	10061201 	andne	r1, r6, r1, lsl #4
    1164:	02000017 	andeq	r0, r0, #23, 0
    1168:	0b0b0024 	bleq	2c1200 <__bss_end__+0x2b5f08>
    116c:	08030b3e 	stmdaeq	r3, {r1, r2, r3, r4, r5, r8, r9, fp}
    1170:	24030000 	strcs	r0, [r3], #-0
    1174:	3e0b0b00 	vmlacc.f64	d0, d11, d0
    1178:	000e030b 	andeq	r0, lr, fp, lsl #6
    117c:	01150400 	tsteq	r5, r0, lsl #8
    1180:	13491927 	movtne	r1, #39207	; 0x9927
    1184:	00001301 	andeq	r1, r0, r1, lsl #6
    1188:	49000505 	stmdbmi	r0, {r0, r2, r8, sl}
    118c:	06000013 			; <UNDEFINED> instruction: 0x06000013
    1190:	0e030034 	mcreq	0, 0, r0, cr3, cr4, {1}
    1194:	0b3b0b3a 	bleq	ec3e84 <__bss_end__+0xeb8b8c>
    1198:	13490b39 	movtne	r0, #39737	; 0x9b39
    119c:	193c193f 	ldmdbne	ip!, {r0, r1, r2, r3, r4, r5, r8, fp, ip}
    11a0:	0f070000 	svceq	0x00070000
    11a4:	490b0b00 	stmdbmi	fp, {r8, r9, fp}
    11a8:	08000013 	stmdaeq	r0, {r0, r1, r4}
    11ac:	13490026 	movtne	r0, #36902	; 0x9026
    11b0:	2e090000 	cdpcs	0, 0, cr0, cr9, cr0, {0}
    11b4:	03193f00 	tsteq	r9, #0, 30
    11b8:	3b0b3a0e 	blcc	2cf9f8 <__bss_end__+0x2c4700>
    11bc:	270b390b 	strcs	r3, [fp, -fp, lsl #18]
    11c0:	12011119 	andne	r1, r1, #1073741830	; 0x40000006
    11c4:	97184006 	ldrls	r4, [r8, -r6]
    11c8:	00001942 	andeq	r1, r0, r2, asr #18
    11cc:	01110100 	tsteq	r1, r0, lsl #2
    11d0:	0b130e25 	bleq	4c4a6c <__bss_end__+0x4b9774>
    11d4:	0e1b0e03 	cdpeq	14, 1, cr0, cr11, cr3, {0}
    11d8:	01111755 	tsteq	r1, r5, asr r7
    11dc:	00001710 	andeq	r1, r0, r0, lsl r7
    11e0:	0b002402 	bleq	a1f0 <kmalloc_aligned+0x5c>
    11e4:	030b3e0b 	movweq	r3, #48651	; 0xbe0b
    11e8:	03000008 	movweq	r0, #8
    11ec:	13490026 	movtne	r0, #36902	; 0x9026
    11f0:	24040000 	strcs	r0, [r4], #-0
    11f4:	3e0b0b00 	vmlacc.f64	d0, d11, d0
    11f8:	000e030b 	andeq	r0, lr, fp, lsl #6
    11fc:	01150500 	tsteq	r5, r0, lsl #10
    1200:	13491927 	movtne	r1, #39207	; 0x9927
    1204:	00001301 	andeq	r1, r0, r1, lsl #6
    1208:	49000506 	stmdbmi	r0, {r1, r2, r8, sl}
    120c:	07000013 	smladeq	r0, r3, r0, r0
    1210:	0e030034 	mcreq	0, 0, r0, cr3, cr4, {1}
    1214:	0b3b0b3a 	bleq	ec3f04 <__bss_end__+0xeb8c0c>
    1218:	13490b39 	movtne	r0, #39737	; 0x9b39
    121c:	193c193f 	ldmdbne	ip!, {r0, r1, r2, r3, r4, r5, r8, fp, ip}
    1220:	0f080000 	svceq	0x00080000
    1224:	490b0b00 	stmdbmi	fp, {r8, r9, fp}
    1228:	09000013 	stmdbeq	r0, {r0, r1, r4}
    122c:	0e030034 	mcreq	0, 0, r0, cr3, cr4, {1}
    1230:	0b3b0b3a 	bleq	ec3f20 <__bss_end__+0xeb8c28>
    1234:	13490b39 	movtne	r0, #39737	; 0x9b39
    1238:	2e0a0000 	cdpcs	0, 0, cr0, cr10, cr0, {0}
    123c:	03193f01 	tsteq	r9, #1, 30
    1240:	3b0b3a0e 	blcc	2cfa80 <__bss_end__+0x2c4788>
    1244:	270b390b 	strcs	r3, [fp, -fp, lsl #18]
    1248:	19018719 	stmdbne	r1, {r0, r3, r4, r8, r9, sl, pc}
    124c:	06120111 			; <UNDEFINED> instruction: 0x06120111
    1250:	42971840 	addsmi	r1, r7, #64, 16	; 0x400000
    1254:	00130119 	andseq	r0, r3, r9, lsl r1
    1258:	00340b00 	eorseq	r0, r4, r0, lsl #22
    125c:	0b3a0e03 	bleq	e84a70 <__bss_end__+0xe79778>
    1260:	0b390b3b 	bleq	e43f54 <__bss_end__+0xe38c5c>
    1264:	061c1349 	ldreq	r1, [ip], -r9, asr #6
    1268:	340c0000 	strcc	r0, [ip], #-0
    126c:	3a0e0300 	bcc	381e74 <__bss_end__+0x376b7c>
    1270:	390b3b0b 	stmdbcc	fp, {r0, r1, r3, r8, r9, fp, ip, sp}
    1274:	1c13490b 			; <UNDEFINED> instruction: 0x1c13490b
    1278:	0d00000b 	stceq	0, cr0, [r0, #-44]	; 0xffffffd4
    127c:	1331011d 	teqne	r1, #1073741831	; 0x40000007
    1280:	42b80152 	adcsmi	r0, r8, #-2147483628	; 0x80000014
    1284:	5817550b 	ldmdapl	r7, {r0, r1, r3, r8, sl, ip, lr}
    1288:	570b590b 	strpl	r5, [fp, -fp, lsl #18]
    128c:	0013010b 	andseq	r0, r3, fp, lsl #2
    1290:	010b0e00 	tsteq	fp, r0, lsl #28
    1294:	00001755 	andeq	r1, r0, r5, asr r7
    1298:	3100340f 	tstcc	r0, pc, lsl #8
    129c:	b7170213 			; <UNDEFINED> instruction: 0xb7170213
    12a0:	00001742 	andeq	r1, r0, r2, asr #14
    12a4:	31011d10 	tstcc	r1, r0, lsl sp
    12a8:	b8015213 	stmdalt	r1, {r0, r1, r4, r9, ip, lr}
    12ac:	01110b42 	tsteq	r1, r2, asr #22
    12b0:	0b580612 	bleq	1602b00 <__bss_end__+0x15f7808>
    12b4:	0b570b59 	bleq	15c4020 <__bss_end__+0x15b8d28>
    12b8:	00001301 	andeq	r1, r0, r1, lsl #6
    12bc:	01828911 	orreq	r8, r2, r1, lsl r9
    12c0:	31011100 	mrscc	r1, (UNDEF: 17)
    12c4:	12000013 	andne	r0, r0, #19, 0
    12c8:	01018289 	smlabbeq	r1, r9, r2, r8
    12cc:	13310111 	teqne	r1, #1073741828	; 0x40000004
    12d0:	00001301 	andeq	r1, r0, r1, lsl #6
    12d4:	01828a13 	orreq	r8, r2, r3, lsl sl
    12d8:	91180200 	tstls	r8, r0, lsl #4
    12dc:	00001842 	andeq	r1, r0, r2, asr #16
    12e0:	01828914 	orreq	r8, r2, r4, lsl r9
    12e4:	31011101 	tstcc	r1, r1, lsl #2
    12e8:	15000013 	strne	r0, [r0, #-19]	; 0xffffffed
    12ec:	193f012e 	ldmdbne	pc!, {r1, r2, r3, r5, r8}	; <UNPREDICTABLE>
    12f0:	0b3a0e03 	bleq	e84b04 <__bss_end__+0xe7980c>
    12f4:	0b390b3b 	bleq	e43fe8 <__bss_end__+0xe38cf0>
    12f8:	0b201927 	bleq	80779c <__bss_end__+0x7fc4a4>
    12fc:	00001301 	andeq	r1, r0, r1, lsl #6
    1300:	3f012e16 	svccc	0x00012e16
    1304:	3a0e0319 	bcc	381f70 <__bss_end__+0x376c78>
    1308:	390b3b0b 	stmdbcc	fp, {r0, r1, r3, r8, r9, fp, ip, sp}
    130c:	4919270b 	ldmdbmi	r9, {r0, r1, r3, r8, r9, sl, sp}
    1310:	010b2013 	tsteq	fp, r3, lsl r0
    1314:	17000013 	smladne	r0, r3, r0, r0
    1318:	1331012e 	teqne	r1, #-2147483637	; 0x8000000b
    131c:	06120111 			; <UNDEFINED> instruction: 0x06120111
    1320:	42971840 	addsmi	r1, r7, #64, 16	; 0x400000
    1324:	00130119 	andseq	r0, r3, r9, lsl r1
    1328:	002e1800 	eoreq	r1, lr, r0, lsl #16
    132c:	193c193f 	ldmdbne	ip!, {r0, r1, r2, r3, r4, r5, r8, fp, ip}
    1330:	0e030e6e 	cdpeq	14, 0, cr0, cr3, cr14, {3}
    1334:	053b0b3a 	ldreq	r0, [fp, #-2874]!	; 0xfffff4c6
    1338:	00000b39 	andeq	r0, r0, r9, lsr fp
    133c:	3f002e19 	svccc	0x00002e19
    1340:	6e193c19 	mrcvs	12, 0, r3, cr9, cr9, {0}
    1344:	3a0e030e 	bcc	381f84 <__bss_end__+0x376c8c>
    1348:	390b3b0b 	stmdbcc	fp, {r0, r1, r3, r8, r9, fp, ip, sp}
    134c:	0000000b 	andeq	r0, r0, fp
    1350:	25011101 	strcs	r1, [r1, #-257]	; 0xfffffeff
    1354:	030b130e 	movweq	r1, #45838	; 0xb30e
    1358:	110e1b0e 	tstne	lr, lr, lsl #22
    135c:	10061201 	andne	r1, r6, r1, lsl #4
    1360:	02000017 	andeq	r0, r0, #23, 0
    1364:	0b0b0024 	bleq	2c13fc <__bss_end__+0x2b6104>
    1368:	08030b3e 	stmdaeq	r3, {r1, r2, r3, r4, r5, r8, r9, fp}
    136c:	24030000 	strcs	r0, [r3], #-0
    1370:	3e0b0b00 	vmlacc.f64	d0, d11, d0
    1374:	000e030b 	andeq	r0, lr, fp, lsl #6
    1378:	01150400 	tsteq	r5, r0, lsl #8
    137c:	13491927 	movtne	r1, #39207	; 0x9927
    1380:	00001301 	andeq	r1, r0, r1, lsl #6
    1384:	49000505 	stmdbmi	r0, {r0, r2, r8, sl}
    1388:	06000013 			; <UNDEFINED> instruction: 0x06000013
    138c:	0e030034 	mcreq	0, 0, r0, cr3, cr4, {1}
    1390:	0b3b0b3a 	bleq	ec4080 <__bss_end__+0xeb8d88>
    1394:	13490b39 	movtne	r0, #39737	; 0x9b39
    1398:	193c193f 	ldmdbne	ip!, {r0, r1, r2, r3, r4, r5, r8, fp, ip}
    139c:	0f070000 	svceq	0x00070000
    13a0:	490b0b00 	stmdbmi	fp, {r8, r9, fp}
    13a4:	08000013 	stmdaeq	r0, {r0, r1, r4}
    13a8:	13490026 	movtne	r0, #36902	; 0x9026
    13ac:	2e090000 	cdpcs	0, 0, cr0, cr9, cr0, {0}
    13b0:	03193f01 	tsteq	r9, #1, 30
    13b4:	3b0b3a0e 	blcc	2cfbf4 <__bss_end__+0x2c48fc>
    13b8:	270b390b 	strcs	r3, [fp, -fp, lsl #18]
    13bc:	12011119 	andne	r1, r1, #1073741830	; 0x40000006
    13c0:	97184006 	ldrls	r4, [r8, -r6]
    13c4:	13011942 	movwne	r1, #6466	; 0x1942
    13c8:	050a0000 	streq	r0, [sl, #-0]
    13cc:	3a080300 	bcc	201fd4 <__bss_end__+0x1f6cdc>
    13d0:	390b3b0b 	stmdbcc	fp, {r0, r1, r3, r8, r9, fp, ip, sp}
    13d4:	0213490b 	andseq	r4, r3, #180224	; 0x2c000
    13d8:	1742b717 	smlaldne	fp, r2, r7, r7
    13dc:	1d0b0000 	stcne	0, cr0, [fp, #-0]
    13e0:	52133101 	andspl	r3, r3, #1073741824	; 0x40000000
    13e4:	0b42b801 	bleq	10af3f0 <__bss_end__+0x10a40f8>
    13e8:	0b581755 	bleq	1607144 <__bss_end__+0x15fbe4c>
    13ec:	0b570b59 	bleq	15c4158 <__bss_end__+0x15b8e60>
    13f0:	050c0000 	streq	r0, [ip, #-0]
    13f4:	02133100 	andseq	r3, r3, #0
    13f8:	1742b717 	smlaldne	fp, r2, r7, r7
    13fc:	1d0d0000 	stcne	0, cr0, [sp, #-0]
    1400:	52133101 	andspl	r3, r3, #1073741824	; 0x40000000
    1404:	0b42b801 	bleq	10af410 <__bss_end__+0x10a4118>
    1408:	06120111 			; <UNDEFINED> instruction: 0x06120111
    140c:	0b590b58 	bleq	1644174 <__bss_end__+0x1638e7c>
    1410:	00000b57 	andeq	r0, r0, r7, asr fp
    1414:	3100340e 	tstcc	r0, lr, lsl #8
    1418:	b7170213 			; <UNDEFINED> instruction: 0xb7170213
    141c:	00001742 	andeq	r1, r0, r2, asr #14
    1420:	31011d0f 	tstcc	r1, pc, lsl #26
    1424:	b8015213 	stmdalt	r1, {r0, r1, r4, r9, ip, lr}
    1428:	01110b42 	tsteq	r1, r2, asr #22
    142c:	0b580612 	bleq	1602c7c <__bss_end__+0x15f7984>
    1430:	0b570b59 	bleq	15c419c <__bss_end__+0x15b8ea4>
    1434:	00001301 	andeq	r1, r0, r1, lsl #6
    1438:	01828910 	orreq	r8, r2, r0, lsl r9
    143c:	31011101 	tstcc	r1, r1, lsl #2
    1440:	11000013 	tstne	r0, r3, lsl r0
    1444:	0001828a 	andeq	r8, r1, sl, lsl #5
    1448:	42911802 	addsmi	r1, r1, #131072	; 0x20000
    144c:	12000018 	andne	r0, r0, #24, 0
    1450:	00018289 	andeq	r8, r1, r9, lsl #5
    1454:	13310111 	teqne	r1, #1073741828	; 0x40000004
    1458:	0b130000 	bleq	4c1460 <__bss_end__+0x4b6168>
    145c:	55133101 	ldrpl	r3, [r3, #-257]	; 0xfffffeff
    1460:	14000017 	strne	r0, [r0], #-23	; 0xffffffe9
    1464:	13310034 	teqne	r1, #52, 0	; 0x34
    1468:	0b150000 	bleq	541470 <__bss_end__+0x536178>
    146c:	00175501 	andseq	r5, r7, r1, lsl #10
    1470:	011d1600 	tsteq	sp, r0, lsl #12
    1474:	01521331 	cmpeq	r2, r1, lsr r3
    1478:	550b42b8 	strpl	r4, [fp, #-696]	; 0xfffffd48
    147c:	590b5817 	stmdbpl	fp, {r0, r1, r2, r4, fp, ip, lr}
    1480:	010b570b 	tsteq	fp, fp, lsl #14
    1484:	17000013 	smladne	r0, r3, r0, r0
    1488:	193f012e 	ldmdbne	pc!, {r1, r2, r3, r5, r8}	; <UNPREDICTABLE>
    148c:	0b3a0e03 	bleq	e84ca0 <__bss_end__+0xe799a8>
    1490:	0b390b3b 	bleq	e44184 <__bss_end__+0xe38e8c>
    1494:	0b201927 	bleq	807938 <__bss_end__+0x7fc640>
    1498:	00001301 	andeq	r1, r0, r1, lsl #6
    149c:	03000518 	movweq	r0, #1304	; 0x518
    14a0:	3b0b3a08 	blcc	2cfcc8 <__bss_end__+0x2c49d0>
    14a4:	490b390b 	stmdbmi	fp, {r0, r1, r3, r8, fp, ip, sp}
    14a8:	19000013 	stmdbne	r0, {r0, r1, r4}
    14ac:	08030034 	stmdaeq	r3, {r2, r4, r5}
    14b0:	0b3b0b3a 	bleq	ec41a0 <__bss_end__+0xeb8ea8>
    14b4:	13490b39 	movtne	r0, #39737	; 0x9b39
    14b8:	0b1a0000 	bleq	6814c0 <__bss_end__+0x6761c8>
    14bc:	1b000001 	blne	14c8 <__code_start__-0x6b38>
    14c0:	193f012e 	ldmdbne	pc!, {r1, r2, r3, r5, r8}	; <UNPREDICTABLE>
    14c4:	0b3a0e03 	bleq	e84cd8 <__bss_end__+0xe799e0>
    14c8:	0b390b3b 	bleq	e441bc <__bss_end__+0xe38ec4>
    14cc:	13491927 	movtne	r1, #39207	; 0x9927
    14d0:	13010b20 	movwne	r0, #6944	; 0x1b20
    14d4:	2e1c0000 	cdpcs	0, 1, cr0, cr12, cr0, {0}
    14d8:	03193f00 	tsteq	r9, #0, 30
    14dc:	3b0b3a0e 	blcc	2cfd1c <__bss_end__+0x2c4a24>
    14e0:	270b390b 	strcs	r3, [fp, -fp, lsl #18]
    14e4:	20134919 	andscs	r4, r3, r9, lsl r9
    14e8:	1d00000b 	stcne	0, cr0, [r0, #-44]	; 0xffffffd4
    14ec:	1331012e 	teqne	r1, #-2147483637	; 0x8000000b
    14f0:	06120111 			; <UNDEFINED> instruction: 0x06120111
    14f4:	42971840 	addsmi	r1, r7, #64, 16	; 0x400000
    14f8:	00130119 	andseq	r0, r3, r9, lsl r1
    14fc:	82891e00 	addhi	r1, r9, #0, 28
    1500:	01110101 	tsteq	r1, r1, lsl #2
    1504:	31194295 			; <UNDEFINED> instruction: 0x31194295
    1508:	1f000013 	svcne	0x00000013
    150c:	193f002e 	ldmdbne	pc!, {r1, r2, r3, r5}	; <UNPREDICTABLE>
    1510:	0e6e193c 			; <UNDEFINED> instruction: 0x0e6e193c
    1514:	0b3a0e03 	bleq	e84d28 <__bss_end__+0xe79a30>
    1518:	0b390b3b 	bleq	e4420c <__bss_end__+0xe38f14>
    151c:	01000000 	mrseq	r0, (UNDEF: 0)
    1520:	0e250111 	mcreq	1, 1, r0, cr5, cr1, {0}
    1524:	0e030b13 	vmoveq.32	d3[0], r0
    1528:	01110e1b 	tsteq	r1, fp, lsl lr
    152c:	17100612 			; <UNDEFINED> instruction: 0x17100612
    1530:	24020000 	strcs	r0, [r2], #-0
    1534:	3e0b0b00 	vmlacc.f64	d0, d11, d0
    1538:	0008030b 	andeq	r0, r8, fp, lsl #6
    153c:	00240300 	eoreq	r0, r4, r0, lsl #6
    1540:	0b3e0b0b 	bleq	f84174 <__bss_end__+0xf78e7c>
    1544:	00000e03 	andeq	r0, r0, r3, lsl #28
    1548:	49003504 	stmdbmi	r0, {r2, r8, sl, ip, sp}
    154c:	05000013 	streq	r0, [r0, #-19]	; 0xffffffed
    1550:	0e030016 	mcreq	0, 0, r0, cr3, cr6, {0}
    1554:	0b3b0b3a 	bleq	ec4244 <__bss_end__+0xeb8f4c>
    1558:	13490b39 	movtne	r0, #39737	; 0x9b39
    155c:	04060000 	streq	r0, [r6], #-0
    1560:	0b0b3e01 	bleq	2d0d6c <__bss_end__+0x2c5a74>
    1564:	3a13490b 	bcc	4d3998 <__bss_end__+0x4c86a0>
    1568:	390b3b0b 	stmdbcc	fp, {r0, r1, r3, r8, r9, fp, ip, sp}
    156c:	0013010b 	andseq	r0, r3, fp, lsl #2
    1570:	00280700 	eoreq	r0, r8, r0, lsl #14
    1574:	0b1c0e03 	bleq	704d88 <__bss_end__+0x6f9a90>
    1578:	13080000 	movwne	r0, #32768	; 0x8000
    157c:	0b0e0301 	bleq	382188 <__bss_end__+0x376e90>
    1580:	3b0b3a0b 	blcc	2cfdb4 <__bss_end__+0x2c4abc>
    1584:	010b390b 	tsteq	fp, fp, lsl #18
    1588:	09000013 	stmdbeq	r0, {r0, r1, r4}
    158c:	0803000d 	stmdaeq	r3, {r0, r2, r3}
    1590:	0b3b0b3a 	bleq	ec4280 <__bss_end__+0xeb8f88>
    1594:	13490b39 	movtne	r0, #39737	; 0x9b39
    1598:	00000b38 	andeq	r0, r0, r8, lsr fp
    159c:	03000d0a 	movweq	r0, #3338	; 0xd0a
    15a0:	3b0b3a0e 	blcc	2cfde0 <__bss_end__+0x2c4ae8>
    15a4:	490b390b 	stmdbmi	fp, {r0, r1, r3, r8, fp, ip, sp}
    15a8:	000b3813 	andeq	r3, fp, r3, lsl r8
    15ac:	00340b00 	eorseq	r0, r4, r0, lsl #22
    15b0:	0b3a0e03 	bleq	e84dc4 <__bss_end__+0xe79acc>
    15b4:	0b390b3b 	bleq	e442a8 <__bss_end__+0xe38fb0>
    15b8:	061c1349 	ldreq	r1, [ip], -r9, asr #6
    15bc:	0f0c0000 	svceq	0x000c0000
    15c0:	490b0b00 	stmdbmi	fp, {r8, r9, fp}
    15c4:	0d000013 	stceq	0, cr0, [r0, #-76]	; 0xffffffb4
    15c8:	13490026 	movtne	r0, #36902	; 0x9026
    15cc:	2e0e0000 	cdpcs	0, 0, cr0, cr14, cr0, {0}
    15d0:	03193f01 	tsteq	r9, #1, 30
    15d4:	3b0b3a0e 	blcc	2cfe14 <__bss_end__+0x2c4b1c>
    15d8:	270b390b 	strcs	r3, [fp, -fp, lsl #18]
    15dc:	12011119 	andne	r1, r1, #1073741830	; 0x40000006
    15e0:	97184006 	ldrls	r4, [r8, -r6]
    15e4:	13011942 	movwne	r1, #6466	; 0x1942
    15e8:	890f0000 	stmdbhi	pc, {}	; <UNPREDICTABLE>
    15ec:	11000182 	smlabbne	r0, r2, r1, r0
    15f0:	00133101 	andseq	r3, r3, r1, lsl #2
    15f4:	012e1000 			; <UNDEFINED> instruction: 0x012e1000
    15f8:	0e03193f 			; <UNDEFINED> instruction: 0x0e03193f
    15fc:	0b3b0b3a 	bleq	ec42ec <__bss_end__+0xeb8ff4>
    1600:	19270b39 	stmdbne	r7!, {r0, r3, r4, r5, r8, r9, fp}
    1604:	01111349 	tsteq	r1, r9, asr #6
    1608:	18400612 	stmdane	r0, {r1, r4, r9, sl}^
    160c:	01194297 			; <UNDEFINED> instruction: 0x01194297
    1610:	11000013 	tstne	r0, r3, lsl r0
    1614:	01018289 	smlabbeq	r1, r9, r2, r8
    1618:	13310111 	teqne	r1, #1073741828	; 0x40000004
    161c:	8a120000 	bhi	481624 <__bss_end__+0x47632c>
    1620:	02000182 	andeq	r0, r0, #-2147483616	; 0x80000020
    1624:	18429118 	stmdane	r2, {r3, r4, r8, ip, pc}^
    1628:	05130000 	ldreq	r0, [r3, #-0]
    162c:	3a080300 	bcc	202234 <__bss_end__+0x1f6f3c>
    1630:	390b3b0b 	stmdbcc	fp, {r0, r1, r3, r8, r9, fp, ip, sp}
    1634:	0213490b 	andseq	r4, r3, #180224	; 0x2c000
    1638:	1742b717 	smlaldne	fp, r2, r7, r7
    163c:	89140000 	ldmdbhi	r4, {}	; <UNPREDICTABLE>
    1640:	11010182 	smlabbne	r1, r2, r1, r0
    1644:	01133101 	tsteq	r3, r1, lsl #2
    1648:	15000013 	strne	r0, [r0, #-19]	; 0xffffffed
    164c:	08030034 	stmdaeq	r3, {r2, r4, r5}
    1650:	0b3b0b3a 	bleq	ec4340 <__bss_end__+0xeb9048>
    1654:	13490b39 	movtne	r0, #39737	; 0x9b39
    1658:	42b71702 	adcsmi	r1, r7, #524288	; 0x80000
    165c:	16000017 			; <UNDEFINED> instruction: 0x16000017
    1660:	0e030034 	mcreq	0, 0, r0, cr3, cr4, {1}
    1664:	0b3b0b3a 	bleq	ec4354 <__bss_end__+0xeb905c>
    1668:	13490b39 	movtne	r0, #39737	; 0x9b39
    166c:	0000051c 	andeq	r0, r0, ip, lsl r5
    1670:	03012e17 	movweq	r2, #7703	; 0x1e17
    1674:	3b0b3a0e 	blcc	2cfeb4 <__bss_end__+0x2c4bbc>
    1678:	270b390b 	strcs	r3, [fp, -fp, lsl #18]
    167c:	12011119 	andne	r1, r1, #1073741830	; 0x40000006
    1680:	97184006 	ldrls	r4, [r8, -r6]
    1684:	13011942 	movwne	r1, #6466	; 0x1942
    1688:	05180000 	ldreq	r0, [r8, #-0]
    168c:	3a0e0300 	bcc	382294 <__bss_end__+0x376f9c>
    1690:	390b3b0b 	stmdbcc	fp, {r0, r1, r3, r8, r9, fp, ip, sp}
    1694:	0213490b 	andseq	r4, r3, #180224	; 0x2c000
    1698:	1742b717 	smlaldne	fp, r2, r7, r7
    169c:	35190000 	ldrcc	r0, [r9, #-0]
    16a0:	1a000000 	bne	16a8 <__code_start__-0x6958>
    16a4:	193f002e 	ldmdbne	pc!, {r1, r2, r3, r5}	; <UNPREDICTABLE>
    16a8:	0e6e193c 			; <UNDEFINED> instruction: 0x0e6e193c
    16ac:	0b3a0e03 	bleq	e84ec0 <__bss_end__+0xe79bc8>
    16b0:	0b390b3b 	bleq	e443a4 <__bss_end__+0xe390ac>
    16b4:	01000000 	mrseq	r0, (UNDEF: 0)
    16b8:	0e250111 	mcreq	1, 1, r0, cr5, cr1, {0}
    16bc:	0e030b13 	vmoveq.32	d3[0], r0
    16c0:	01110e1b 	tsteq	r1, fp, lsl lr
    16c4:	17100612 			; <UNDEFINED> instruction: 0x17100612
    16c8:	24020000 	strcs	r0, [r2], #-0
    16cc:	3e0b0b00 	vmlacc.f64	d0, d11, d0
    16d0:	0008030b 	andeq	r0, r8, fp, lsl #6
    16d4:	00240300 	eoreq	r0, r4, r0, lsl #6
    16d8:	0b3e0b0b 	bleq	f8430c <__bss_end__+0xf79014>
    16dc:	00000e03 	andeq	r0, r0, r3, lsl #28
    16e0:	03001604 	movweq	r1, #1540	; 0x604
    16e4:	3b0b3a0e 	blcc	2cff24 <__bss_end__+0x2c4c2c>
    16e8:	490b390b 	stmdbmi	fp, {r0, r1, r3, r8, fp, ip, sp}
    16ec:	05000013 	streq	r0, [r0, #-19]	; 0xffffffed
    16f0:	13490026 	movtne	r0, #36902	; 0x9026
    16f4:	0f060000 	svceq	0x00060000
    16f8:	000b0b00 	andeq	r0, fp, r0, lsl #22
    16fc:	01040700 	tsteq	r4, r0, lsl #14
    1700:	0b0b0b3e 	bleq	2c4400 <__bss_end__+0x2b9108>
    1704:	0b3a1349 	bleq	e86430 <__bss_end__+0xe7b138>
    1708:	0b390b3b 	bleq	e443fc <__bss_end__+0xe39104>
    170c:	00001301 	andeq	r1, r0, r1, lsl #6
    1710:	03002808 	movweq	r2, #2056	; 0x808
    1714:	00061c0e 	andeq	r1, r6, lr, lsl #24
    1718:	00340900 	eorseq	r0, r4, r0, lsl #18
    171c:	0b3a0e03 	bleq	e84f30 <__bss_end__+0xe79c38>
    1720:	0b390b3b 	bleq	e44414 <__bss_end__+0xe3911c>
    1724:	193f1349 	ldmdbne	pc!, {r0, r3, r6, r8, r9, ip}	; <UNPREDICTABLE>
    1728:	0000193c 	andeq	r1, r0, ip, lsr r9
    172c:	0300340a 	movweq	r3, #1034	; 0x40a
    1730:	3b0b3a0e 	blcc	2cff70 <__bss_end__+0x2c4c78>
    1734:	490b390b 	stmdbmi	fp, {r0, r1, r3, r8, fp, ip, sp}
    1738:	00180213 	andseq	r0, r8, r3, lsl r2
    173c:	000f0b00 	andeq	r0, pc, r0, lsl #22
    1740:	13490b0b 	movtne	r0, #39691	; 0x9b0b
    1744:	2e0c0000 	cdpcs	0, 0, cr0, cr12, cr0, {0}
    1748:	03193f01 	tsteq	r9, #1, 30
    174c:	3b0b3a0e 	blcc	2cff8c <__bss_end__+0x2c4c94>
    1750:	270b390b 	strcs	r3, [fp, -fp, lsl #18]
    1754:	12011119 	andne	r1, r1, #1073741830	; 0x40000006
    1758:	97184006 	ldrls	r4, [r8, -r6]
    175c:	13011942 	movwne	r1, #6466	; 0x1942
    1760:	050d0000 	streq	r0, [sp, #-0]
    1764:	3a080300 	bcc	20236c <__bss_end__+0x1f7074>
    1768:	390b3b0b 	stmdbcc	fp, {r0, r1, r3, r8, r9, fp, ip, sp}
    176c:	0213490b 	andseq	r4, r3, #180224	; 0x2c000
    1770:	1742b717 	smlaldne	fp, r2, r7, r7
    1774:	340e0000 	strcc	r0, [lr], #-0
    1778:	490e0300 	stmdbmi	lr, {r8, r9}
    177c:	02193413 	andseq	r3, r9, #318767104	; 0x13000000
    1780:	0f000018 	svceq	0x00000018
    1784:	01018289 	smlabbeq	r1, r9, r2, r8
    1788:	13310111 	teqne	r1, #1073741828	; 0x40000004
    178c:	00001301 	andeq	r1, r0, r1, lsl #6
    1790:	01828a10 	orreq	r8, r2, r0, lsl sl
    1794:	91180200 	tstls	r8, r0, lsl #4
    1798:	00001842 	andeq	r1, r0, r2, asr #16
    179c:	01828911 	orreq	r8, r2, r1, lsl r9
    17a0:	31011100 	mrscc	r1, (UNDEF: 17)
    17a4:	12000013 	andne	r0, r0, #19, 0
    17a8:	13490101 	movtne	r0, #37121	; 0x9101
    17ac:	00001301 	andeq	r1, r0, r1, lsl #6
    17b0:	49002113 	stmdbmi	r0, {r0, r1, r4, r8, sp}
    17b4:	000b2f13 	andeq	r2, fp, r3, lsl pc
    17b8:	002e1400 	eoreq	r1, lr, r0, lsl #8
    17bc:	0e03193f 			; <UNDEFINED> instruction: 0x0e03193f
    17c0:	0b3b0b3a 	bleq	ec44b0 <__bss_end__+0xeb91b8>
    17c4:	19270b39 	stmdbne	r7!, {r0, r3, r4, r5, r8, r9, fp}
    17c8:	06120111 			; <UNDEFINED> instruction: 0x06120111
    17cc:	42971840 	addsmi	r1, r7, #64, 16	; 0x400000
    17d0:	15000019 	strne	r0, [r0, #-25]	; 0xffffffe7
    17d4:	08030005 	stmdaeq	r3, {r0, r2}
    17d8:	0b3b0b3a 	bleq	ec44c8 <__bss_end__+0xeb91d0>
    17dc:	13490b39 	movtne	r0, #39737	; 0x9b39
    17e0:	00001802 	andeq	r1, r0, r2, lsl #16
    17e4:	3f012e16 	svccc	0x00012e16
    17e8:	3a0e0319 	bcc	382454 <__bss_end__+0x37715c>
    17ec:	390b3b0b 	stmdbcc	fp, {r0, r1, r3, r8, r9, fp, ip, sp}
    17f0:	4919270b 	ldmdbmi	r9, {r0, r1, r3, r8, r9, sl, sp}
    17f4:	12011113 	andne	r1, r1, #-1073741820	; 0xc0000004
    17f8:	97184006 	ldrls	r4, [r8, -r6]
    17fc:	13011942 	movwne	r1, #6466	; 0x1942
    1800:	05170000 	ldreq	r0, [r7, #-0]
    1804:	3a0e0300 	bcc	38240c <__bss_end__+0x377114>
    1808:	390b3b0b 	stmdbcc	fp, {r0, r1, r3, r8, r9, fp, ip, sp}
    180c:	0213490b 	andseq	r4, r3, #180224	; 0x2c000
    1810:	1742b717 	smlaldne	fp, r2, r7, r7
    1814:	34180000 	ldrcc	r0, [r8], #-0
    1818:	3a080300 	bcc	202420 <__bss_end__+0x1f7128>
    181c:	390b3b0b 	stmdbcc	fp, {r0, r1, r3, r8, r9, fp, ip, sp}
    1820:	0213490b 	andseq	r4, r3, #180224	; 0x2c000
    1824:	1742b717 	smlaldne	fp, r2, r7, r7
    1828:	1d190000 	ldcne	0, cr0, [r9, #-0]
    182c:	52133101 	andspl	r3, r3, #1073741824	; 0x40000000
    1830:	0b42b801 	bleq	10af83c <__bss_end__+0x10a4544>
    1834:	06120111 			; <UNDEFINED> instruction: 0x06120111
    1838:	0b590b58 	bleq	16445a0 <__bss_end__+0x16392a8>
    183c:	13010b57 	movwne	r0, #6999	; 0x1b57
    1840:	051a0000 	ldreq	r0, [sl, #-0]
    1844:	02133100 	andseq	r3, r3, #0
    1848:	1742b717 	smlaldne	fp, r2, r7, r7
    184c:	1d1b0000 	ldcne	0, cr0, [fp, #-0]
    1850:	52133101 	andspl	r3, r3, #1073741824	; 0x40000000
    1854:	0b42b801 	bleq	10af860 <__bss_end__+0x10a4568>
    1858:	0b581755 	bleq	16075b4 <__bss_end__+0x15fc2bc>
    185c:	0b570b59 	bleq	15c45c8 <__bss_end__+0x15b92d0>
    1860:	00001301 	andeq	r1, r0, r1, lsl #6
    1864:	55010b1c 	strpl	r0, [r1, #-2844]	; 0xfffff4e4
    1868:	1d000017 	stcne	0, cr0, [r0, #-92]	; 0xffffffa4
    186c:	0e030034 	mcreq	0, 0, r0, cr3, cr4, {1}
    1870:	0b3b0b3a 	bleq	ec4560 <__bss_end__+0xeb9268>
    1874:	13490b39 	movtne	r0, #39737	; 0x9b39
    1878:	42b71702 	adcsmi	r1, r7, #524288	; 0x80000
    187c:	1e000017 	mcrne	0, 0, r0, cr0, cr7, {0}
    1880:	1755000b 	ldrbne	r0, [r5, -fp]
    1884:	2e1f0000 	cdpcs	0, 1, cr0, cr15, cr0, {0}
    1888:	03193f00 	tsteq	r9, #0, 30
    188c:	3b0b3a0e 	blcc	2d00cc <__bss_end__+0x2c4dd4>
    1890:	270b390b 	strcs	r3, [fp, -fp, lsl #18]
    1894:	11134919 	tstne	r3, r9, lsl r9
    1898:	40061201 	andmi	r1, r6, r1, lsl #4
    189c:	19429718 	stmdbne	r2, {r3, r4, r8, r9, sl, ip, pc}^
    18a0:	2e200000 	cdpcs	0, 2, cr0, cr0, cr0, {0}
    18a4:	3a0e0301 	bcc	3824b0 <__bss_end__+0x3771b8>
    18a8:	390b3b0b 	stmdbcc	fp, {r0, r1, r3, r8, r9, fp, ip, sp}
    18ac:	4919270b 	ldmdbmi	r9, {r0, r1, r3, r8, r9, sl, sp}
    18b0:	010b2013 	tsteq	fp, r3, lsl r0
    18b4:	21000013 	tstcs	r0, r3, lsl r0
    18b8:	08030005 	stmdaeq	r3, {r0, r2}
    18bc:	0b3b0b3a 	bleq	ec45ac <__bss_end__+0xeb92b4>
    18c0:	13490b39 	movtne	r0, #39737	; 0x9b39
    18c4:	2e220000 	cdpcs	0, 2, cr0, cr2, cr0, {0}
    18c8:	3c193f00 	ldccc	15, cr3, [r9], {-0}
    18cc:	030e6e19 	movweq	r6, #60953	; 0xee19
    18d0:	3b0b3a0e 	blcc	2d0110 <__bss_end__+0x2c4e18>
    18d4:	000b390b 	andeq	r3, fp, fp, lsl #18
    18d8:	11010000 	mrsne	r0, (UNDEF: 1)
    18dc:	130e2501 	movwne	r2, #58625	; 0xe501
    18e0:	1b0e030b 	blne	382514 <__bss_end__+0x37721c>
    18e4:	1201110e 	andne	r1, r1, #-2147483645	; 0x80000003
    18e8:	00171006 	andseq	r1, r7, r6
    18ec:	00240200 	eoreq	r0, r4, r0, lsl #4
    18f0:	0b3e0b0b 	bleq	f84524 <__bss_end__+0xf7922c>
    18f4:	00000e03 	andeq	r0, r0, r3, lsl #28
    18f8:	0b002403 	bleq	a90c <__FUNCTION__.4081+0x1b0>
    18fc:	030b3e0b 	movweq	r3, #48651	; 0xbe0b
    1900:	04000008 	streq	r0, [r0], #-8
    1904:	13490026 	movtne	r0, #36902	; 0x9026
    1908:	16050000 	strne	r0, [r5], -r0
    190c:	3a0e0300 	bcc	382514 <__bss_end__+0x37721c>
    1910:	390b3b0b 	stmdbcc	fp, {r0, r1, r3, r8, r9, fp, ip, sp}
    1914:	0013490b 	andseq	r4, r3, fp, lsl #18
    1918:	01150600 	tsteq	r5, r0, lsl #12
    191c:	13491927 	movtne	r1, #39207	; 0x9927
    1920:	00001301 	andeq	r1, r0, r1, lsl #6
    1924:	49000507 	stmdbmi	r0, {r0, r1, r2, r8, sl}
    1928:	08000013 	stmdaeq	r0, {r0, r1, r4}
    192c:	0e030034 	mcreq	0, 0, r0, cr3, cr4, {1}
    1930:	0b3b0b3a 	bleq	ec4620 <__bss_end__+0xeb9328>
    1934:	13490b39 	movtne	r0, #39737	; 0x9b39
    1938:	193c193f 	ldmdbne	ip!, {r0, r1, r2, r3, r4, r5, r8, fp, ip}
    193c:	0f090000 	svceq	0x00090000
    1940:	490b0b00 	stmdbmi	fp, {r8, r9, fp}
    1944:	0a000013 	beq	1998 <__code_start__-0x6668>
    1948:	0b3e0104 	bleq	f81d60 <__bss_end__+0xf76a68>
    194c:	13490b0b 	movtne	r0, #39691	; 0x9b0b
    1950:	0b3b0b3a 	bleq	ec4640 <__bss_end__+0xeb9348>
    1954:	13010b39 	movwne	r0, #6969	; 0x1b39
    1958:	280b0000 	stmdacs	fp, {}	; <UNPREDICTABLE>
    195c:	1c0e0300 	stcne	3, cr0, [lr], {-0}
    1960:	0c00000b 	stceq	0, cr0, [r0], {11}
    1964:	0e030034 	mcreq	0, 0, r0, cr3, cr4, {1}
    1968:	0b3b0b3a 	bleq	ec4658 <__bss_end__+0xeb9360>
    196c:	13490b39 	movtne	r0, #39737	; 0x9b39
    1970:	0000061c 	andeq	r0, r0, ip, lsl r6
    1974:	3f012e0d 	svccc	0x00012e0d
    1978:	3a0e0319 	bcc	3825e4 <__bss_end__+0x3772ec>
    197c:	390b3b0b 	stmdbcc	fp, {r0, r1, r3, r8, r9, fp, ip, sp}
    1980:	4919270b 	ldmdbmi	r9, {r0, r1, r3, r8, r9, sl, sp}
    1984:	12011113 	andne	r1, r1, #-1073741820	; 0xc0000004
    1988:	97184006 	ldrls	r4, [r8, -r6]
    198c:	13011942 	movwne	r1, #6466	; 0x1942
    1990:	050e0000 	streq	r0, [lr, #-0]
    1994:	3a080300 	bcc	20259c <__bss_end__+0x1f72a4>
    1998:	390b3b0b 	stmdbcc	fp, {r0, r1, r3, r8, r9, fp, ip, sp}
    199c:	0213490b 	andseq	r4, r3, #180224	; 0x2c000
    19a0:	1742b717 	smlaldne	fp, r2, r7, r7
    19a4:	340f0000 	strcc	r0, [pc], #-0	; 19ac <__code_start__-0x6654>
    19a8:	3a0e0300 	bcc	3825b0 <__bss_end__+0x3772b8>
    19ac:	390b3b0b 	stmdbcc	fp, {r0, r1, r3, r8, r9, fp, ip, sp}
    19b0:	0213490b 	andseq	r4, r3, #180224	; 0x2c000
    19b4:	1742b717 	smlaldne	fp, r2, r7, r7
    19b8:	34100000 	ldrcc	r0, [r0], #-0
    19bc:	3a080300 	bcc	2025c4 <__bss_end__+0x1f72cc>
    19c0:	390b3b0b 	stmdbcc	fp, {r0, r1, r3, r8, r9, fp, ip, sp}
    19c4:	0213490b 	andseq	r4, r3, #180224	; 0x2c000
    19c8:	1742b717 	smlaldne	fp, r2, r7, r7
    19cc:	89110000 	ldmdbhi	r1, {}	; <UNPREDICTABLE>
    19d0:	11010182 	smlabbne	r1, r2, r1, r0
    19d4:	00133101 	andseq	r3, r3, r1, lsl #2
    19d8:	828a1200 	addhi	r1, sl, #0, 4
    19dc:	18020001 	stmdane	r2, {r0}
    19e0:	00184291 	mulseq	r8, r1, r2
    19e4:	012e1300 			; <UNDEFINED> instruction: 0x012e1300
    19e8:	0e03193f 			; <UNDEFINED> instruction: 0x0e03193f
    19ec:	0b3b0b3a 	bleq	ec46dc <__bss_end__+0xeb93e4>
    19f0:	19270b39 	stmdbne	r7!, {r0, r3, r4, r5, r8, r9, fp}
    19f4:	06120111 			; <UNDEFINED> instruction: 0x06120111
    19f8:	42971840 	addsmi	r1, r7, #64, 16	; 0x400000
    19fc:	00130119 	andseq	r0, r3, r9, lsl r1
    1a00:	011d1400 	tsteq	sp, r0, lsl #8
    1a04:	01521331 	cmpeq	r2, r1, lsr r3
    1a08:	550b42b8 	strpl	r4, [fp, #-696]	; 0xfffffd48
    1a0c:	590b5817 	stmdbpl	fp, {r0, r1, r2, r4, fp, ip, lr}
    1a10:	010b570b 	tsteq	fp, fp, lsl #14
    1a14:	15000013 	strne	r0, [r0, #-19]	; 0xffffffed
    1a18:	13310005 	teqne	r1, #5, 0
    1a1c:	42b71702 	adcsmi	r1, r7, #524288	; 0x80000
    1a20:	16000017 			; <UNDEFINED> instruction: 0x16000017
    1a24:	01018289 	smlabbeq	r1, r9, r2, r8
    1a28:	42950111 	addsmi	r0, r5, #1073741828	; 0x40000004
    1a2c:	00133119 	andseq	r3, r3, r9, lsl r1
    1a30:	011d1700 	tsteq	sp, r0, lsl #14
    1a34:	01521331 	cmpeq	r2, r1, lsr r3
    1a38:	110b42b8 			; <UNDEFINED> instruction: 0x110b42b8
    1a3c:	58061201 	stmdapl	r6, {r0, r9, ip}
    1a40:	570b590b 	strpl	r5, [fp, -fp, lsl #18]
    1a44:	1800000b 	stmdane	r0, {r0, r1, r3}
    1a48:	1331011d 	teqne	r1, #1073741831	; 0x40000007
    1a4c:	42b80152 	adcsmi	r0, r8, #-2147483628	; 0x80000014
    1a50:	5817550b 	ldmdapl	r7, {r0, r1, r3, r8, sl, ip, lr}
    1a54:	570b590b 	strpl	r5, [fp, -fp, lsl #18]
    1a58:	1900000b 	stmdbne	r0, {r0, r1, r3}
    1a5c:	13310005 	teqne	r1, #5, 0
    1a60:	00000b1c 	andeq	r0, r0, ip, lsl fp
    1a64:	55010b1a 	strpl	r0, [r1, #-2842]	; 0xfffff4e6
    1a68:	1b000017 	blne	1acc <__code_start__-0x6534>
    1a6c:	13310034 	teqne	r1, #52, 0	; 0x34
    1a70:	341c0000 	ldrcc	r0, [ip], #-0
    1a74:	02133100 	andseq	r3, r3, #0
    1a78:	1742b717 	smlaldne	fp, r2, r7, r7
    1a7c:	891d0000 	ldmdbhi	sp, {}	; <UNPREDICTABLE>
    1a80:	11010182 	smlabbne	r1, r2, r1, r0
    1a84:	01133101 	tsteq	r3, r1, lsl #2
    1a88:	1e000013 	mcrne	0, 0, r0, cr0, cr3, {0}
    1a8c:	193f012e 	ldmdbne	pc!, {r1, r2, r3, r5, r8}	; <UNPREDICTABLE>
    1a90:	0b3a0e03 	bleq	e852a4 <__bss_end__+0xe79fac>
    1a94:	0b390b3b 	bleq	e44788 <__bss_end__+0xe39490>
    1a98:	0b201927 	bleq	807f3c <__bss_end__+0x7fcc44>
    1a9c:	00001301 	andeq	r1, r0, r1, lsl #6
    1aa0:	0300051f 	movweq	r0, #1311	; 0x51f
    1aa4:	3b0b3a08 	blcc	2d02cc <__bss_end__+0x2c4fd4>
    1aa8:	490b390b 	stmdbmi	fp, {r0, r1, r3, r8, fp, ip, sp}
    1aac:	20000013 	andcs	r0, r0, r3, lsl r0
    1ab0:	0e030005 	cdpeq	0, 0, cr0, cr3, cr5, {0}
    1ab4:	0b3b0b3a 	bleq	ec47a4 <__bss_end__+0xeb94ac>
    1ab8:	13490b39 	movtne	r0, #39737	; 0x9b39
    1abc:	34210000 	strtcc	r0, [r1], #-0
    1ac0:	3a080300 	bcc	2026c8 <__bss_end__+0x1f73d0>
    1ac4:	390b3b0b 	stmdbcc	fp, {r0, r1, r3, r8, r9, fp, ip, sp}
    1ac8:	0013490b 	andseq	r4, r3, fp, lsl #18
    1acc:	012e2200 			; <UNDEFINED> instruction: 0x012e2200
    1ad0:	0b3a0e03 	bleq	e852e4 <__bss_end__+0xe79fec>
    1ad4:	0b390b3b 	bleq	e447c8 <__bss_end__+0xe394d0>
    1ad8:	13491927 	movtne	r1, #39207	; 0x9927
    1adc:	13010b20 	movwne	r0, #6944	; 0x1b20
    1ae0:	2e230000 	cdpcs	0, 2, cr0, cr3, cr0, {0}
    1ae4:	11133101 	tstne	r3, r1, lsl #2
    1ae8:	40061201 	andmi	r1, r6, r1, lsl #4
    1aec:	19429718 	stmdbne	r2, {r3, r4, r8, r9, sl, ip, pc}^
    1af0:	00001301 	andeq	r1, r0, r1, lsl #6
    1af4:	3f002e24 	svccc	0x00002e24
    1af8:	6e193c19 	mrcvs	12, 0, r3, cr9, cr9, {0}
    1afc:	3a0e030e 	bcc	38273c <__bss_end__+0x377444>
    1b00:	390b3b0b 	stmdbcc	fp, {r0, r1, r3, r8, r9, fp, ip, sp}
    1b04:	0000000b 	andeq	r0, r0, fp
    1b08:	25011101 	strcs	r1, [r1, #-257]	; 0xfffffeff
    1b0c:	030b130e 	movweq	r1, #45838	; 0xb30e
    1b10:	110e1b0e 	tstne	lr, lr, lsl #22
    1b14:	10061201 	andne	r1, r6, r1, lsl #4
    1b18:	02000017 	andeq	r0, r0, #23, 0
    1b1c:	0b0b0024 	bleq	2c1bb4 <__bss_end__+0x2b68bc>
    1b20:	08030b3e 	stmdaeq	r3, {r1, r2, r3, r4, r5, r8, r9, fp}
    1b24:	24030000 	strcs	r0, [r3], #-0
    1b28:	3e0b0b00 	vmlacc.f64	d0, d11, d0
    1b2c:	000e030b 	andeq	r0, lr, fp, lsl #6
    1b30:	01150400 	tsteq	r5, r0, lsl #8
    1b34:	13491927 	movtne	r1, #39207	; 0x9927
    1b38:	00001301 	andeq	r1, r0, r1, lsl #6
    1b3c:	49000505 	stmdbmi	r0, {r0, r2, r8, sl}
    1b40:	06000013 			; <UNDEFINED> instruction: 0x06000013
    1b44:	0e030034 	mcreq	0, 0, r0, cr3, cr4, {1}
    1b48:	0b3b0b3a 	bleq	ec4838 <__bss_end__+0xeb9540>
    1b4c:	13490b39 	movtne	r0, #39737	; 0x9b39
    1b50:	193c193f 	ldmdbne	ip!, {r0, r1, r2, r3, r4, r5, r8, fp, ip}
    1b54:	0f070000 	svceq	0x00070000
    1b58:	490b0b00 	stmdbmi	fp, {r8, r9, fp}
    1b5c:	08000013 	stmdaeq	r0, {r0, r1, r4}
    1b60:	13490026 	movtne	r0, #36902	; 0x9026
    1b64:	34090000 	strcc	r0, [r9], #-0
    1b68:	3a134700 	bcc	4d3770 <__bss_end__+0x4c8478>
    1b6c:	390b3b0b 	stmdbcc	fp, {r0, r1, r3, r8, r9, fp, ip, sp}
    1b70:	0018020b 	andseq	r0, r8, fp, lsl #4
    1b74:	012e0a00 			; <UNDEFINED> instruction: 0x012e0a00
    1b78:	0e03193f 			; <UNDEFINED> instruction: 0x0e03193f
    1b7c:	0b3b0b3a 	bleq	ec486c <__bss_end__+0xeb9574>
    1b80:	19270b39 	stmdbne	r7!, {r0, r3, r4, r5, r8, r9, fp}
    1b84:	06120111 			; <UNDEFINED> instruction: 0x06120111
    1b88:	42971840 	addsmi	r1, r7, #64, 16	; 0x400000
    1b8c:	00130119 	andseq	r0, r3, r9, lsl r1
    1b90:	00050b00 	andeq	r0, r5, r0, lsl #22
    1b94:	0b3a0803 	bleq	e83ba8 <__bss_end__+0xe788b0>
    1b98:	0b390b3b 	bleq	e4488c <__bss_end__+0xe39594>
    1b9c:	18021349 	stmdane	r2, {r0, r3, r6, r8, r9, ip}
    1ba0:	2e0c0000 	cdpcs	0, 0, cr0, cr12, cr0, {0}
    1ba4:	03193f00 	tsteq	r9, #0, 30
    1ba8:	3b0b3a0e 	blcc	2d03e8 <__bss_end__+0x2c50f0>
    1bac:	270b390b 	strcs	r3, [fp, -fp, lsl #18]
    1bb0:	12011119 	andne	r1, r1, #1073741830	; 0x40000006
    1bb4:	97184006 	ldrls	r4, [r8, -r6]
    1bb8:	00001942 	andeq	r1, r0, r2, asr #18
    1bbc:	03012e0d 	movweq	r2, #7693	; 0x1e0d
    1bc0:	3b0b3a0e 	blcc	2d0400 <__bss_end__+0x2c5108>
    1bc4:	270b390b 	strcs	r3, [fp, -fp, lsl #18]
    1bc8:	11134919 	tstne	r3, r9, lsl r9
    1bcc:	40061201 	andmi	r1, r6, r1, lsl #4
    1bd0:	19429718 	stmdbne	r2, {r3, r4, r8, r9, sl, ip, pc}^
    1bd4:	00001301 	andeq	r1, r0, r1, lsl #6
    1bd8:	0300050e 	movweq	r0, #1294	; 0x50e
    1bdc:	3b0b3a08 	blcc	2d0404 <__bss_end__+0x2c510c>
    1be0:	490b390b 	stmdbmi	fp, {r0, r1, r3, r8, fp, ip, sp}
    1be4:	b7170213 			; <UNDEFINED> instruction: 0xb7170213
    1be8:	00001742 	andeq	r1, r0, r2, asr #14
    1bec:	0182890f 	orreq	r8, r2, pc, lsl #18
    1bf0:	31011101 	tstcc	r1, r1, lsl #2
    1bf4:	10000013 	andne	r0, r0, r3, lsl r0
    1bf8:	0001828a 	andeq	r8, r1, sl, lsl #5
    1bfc:	42911802 	addsmi	r1, r1, #131072	; 0x20000
    1c00:	11000018 	tstne	r0, r8, lsl r0
    1c04:	193f002e 	ldmdbne	pc!, {r1, r2, r3, r5}	; <UNPREDICTABLE>
    1c08:	0e6e193c 			; <UNDEFINED> instruction: 0x0e6e193c
    1c0c:	0b3a0e03 	bleq	e85420 <__bss_end__+0xe7a128>
    1c10:	0b390b3b 	bleq	e44904 <__bss_end__+0xe3960c>
    1c14:	01000000 	mrseq	r0, (UNDEF: 0)
    1c18:	0e250111 	mcreq	1, 1, r0, cr5, cr1, {0}
    1c1c:	0e030b13 	vmoveq.32	d3[0], r0
    1c20:	01110e1b 	tsteq	r1, fp, lsl lr
    1c24:	17100612 			; <UNDEFINED> instruction: 0x17100612
    1c28:	24020000 	strcs	r0, [r2], #-0
    1c2c:	3e0b0b00 	vmlacc.f64	d0, d11, d0
    1c30:	0008030b 	andeq	r0, r8, fp, lsl #6
    1c34:	00240300 	eoreq	r0, r4, r0, lsl #6
    1c38:	0b3e0b0b 	bleq	f8486c <__bss_end__+0xf79574>
    1c3c:	00000e03 	andeq	r0, r0, r3, lsl #28
    1c40:	27011504 	strcs	r1, [r1, -r4, lsl #10]
    1c44:	01134919 	tsteq	r3, r9, lsl r9
    1c48:	05000013 	streq	r0, [r0, #-19]	; 0xffffffed
    1c4c:	13490005 	movtne	r0, #36869	; 0x9005
    1c50:	34060000 	strcc	r0, [r6], #-0
    1c54:	3a0e0300 	bcc	38285c <__bss_end__+0x377564>
    1c58:	390b3b0b 	stmdbcc	fp, {r0, r1, r3, r8, r9, fp, ip, sp}
    1c5c:	3f13490b 	svccc	0x0013490b
    1c60:	00193c19 	andseq	r3, r9, r9, lsl ip
    1c64:	000f0700 	andeq	r0, pc, r0, lsl #14
    1c68:	13490b0b 	movtne	r0, #39691	; 0x9b0b
    1c6c:	26080000 	strcs	r0, [r8], -r0
    1c70:	00134900 	andseq	r4, r3, r0, lsl #18
    1c74:	012e0900 			; <UNDEFINED> instruction: 0x012e0900
    1c78:	0e03193f 			; <UNDEFINED> instruction: 0x0e03193f
    1c7c:	0b3b0b3a 	bleq	ec496c <__bss_end__+0xeb9674>
    1c80:	19270b39 	stmdbne	r7!, {r0, r3, r4, r5, r8, r9, fp}
    1c84:	01111349 	tsteq	r1, r9, asr #6
    1c88:	18400612 	stmdane	r0, {r1, r4, r9, sl}^
    1c8c:	01194297 			; <UNDEFINED> instruction: 0x01194297
    1c90:	0a000013 	beq	1ce4 <__code_start__-0x631c>
    1c94:	0e030005 	cdpeq	0, 0, cr0, cr3, cr5, {0}
    1c98:	0b3b0b3a 	bleq	ec4988 <__bss_end__+0xeb9690>
    1c9c:	13490b39 	movtne	r0, #39737	; 0x9b39
    1ca0:	00001802 	andeq	r1, r0, r2, lsl #16
    1ca4:	0300050b 	movweq	r0, #1291	; 0x50b
    1ca8:	3b0b3a08 	blcc	2d04d0 <__bss_end__+0x2c51d8>
    1cac:	490b390b 	stmdbmi	fp, {r0, r1, r3, r8, fp, ip, sp}
    1cb0:	b7170213 			; <UNDEFINED> instruction: 0xb7170213
    1cb4:	00001742 	andeq	r1, r0, r2, asr #14
    1cb8:	0300340c 	movweq	r3, #1036	; 0x40c
    1cbc:	3b0b3a08 	blcc	2d04e4 <__bss_end__+0x2c51ec>
    1cc0:	490b390b 	stmdbmi	fp, {r0, r1, r3, r8, fp, ip, sp}
    1cc4:	b7170213 			; <UNDEFINED> instruction: 0xb7170213
    1cc8:	00001742 	andeq	r1, r0, r2, asr #14
    1ccc:	01110100 	tsteq	r1, r0, lsl #2
    1cd0:	0b130e25 	bleq	4c556c <__bss_end__+0x4ba274>
    1cd4:	0e1b0e03 	cdpeq	14, 1, cr0, cr11, cr3, {0}
    1cd8:	06120111 			; <UNDEFINED> instruction: 0x06120111
    1cdc:	00001710 	andeq	r1, r0, r0, lsl r7
    1ce0:	0b002402 	bleq	acf0 <__FUNCTION__.4030+0x4c>
    1ce4:	030b3e0b 	movweq	r3, #48651	; 0xbe0b
    1ce8:	03000008 	movweq	r0, #8
    1cec:	0b0b0024 	bleq	2c1d84 <__bss_end__+0x2b6a8c>
    1cf0:	0e030b3e 	vmoveq.16	d3[0], r0
    1cf4:	15040000 	strne	r0, [r4, #-0]
    1cf8:	49192701 	ldmdbmi	r9, {r0, r8, r9, sl, sp}
    1cfc:	00130113 	andseq	r0, r3, r3, lsl r1
    1d00:	00050500 	andeq	r0, r5, r0, lsl #10
    1d04:	00001349 	andeq	r1, r0, r9, asr #6
    1d08:	03003406 	movweq	r3, #1030	; 0x406
    1d0c:	3b0b3a0e 	blcc	2d054c <__bss_end__+0x2c5254>
    1d10:	490b390b 	stmdbmi	fp, {r0, r1, r3, r8, fp, ip, sp}
    1d14:	3c193f13 	ldccc	15, cr3, [r9], {19}
    1d18:	07000019 	smladeq	r0, r9, r0, r0
    1d1c:	0b0b000f 	bleq	2c1d60 <__bss_end__+0x2b6a68>
    1d20:	00001349 	andeq	r1, r0, r9, asr #6
    1d24:	49002608 	stmdbmi	r0, {r3, r9, sl, sp}
    1d28:	09000013 	stmdbeq	r0, {r0, r1, r4}
    1d2c:	193f012e 	ldmdbne	pc!, {r1, r2, r3, r5, r8}	; <UNPREDICTABLE>
    1d30:	0b3a0e03 	bleq	e85544 <__bss_end__+0xe7a24c>
    1d34:	0b390b3b 	bleq	e44a28 <__bss_end__+0xe39730>
    1d38:	13491927 	movtne	r1, #39207	; 0x9927
    1d3c:	06120111 			; <UNDEFINED> instruction: 0x06120111
    1d40:	42971840 	addsmi	r1, r7, #64, 16	; 0x400000
    1d44:	0a000019 	beq	1db0 <__code_start__-0x6250>
    1d48:	08030005 	stmdaeq	r3, {r0, r2}
    1d4c:	0b3b0b3a 	bleq	ec4a3c <__bss_end__+0xeb9744>
    1d50:	13490b39 	movtne	r0, #39737	; 0x9b39
    1d54:	42b71702 	adcsmi	r1, r7, #524288	; 0x80000
    1d58:	00000017 	andeq	r0, r0, r7, lsl r0
    1d5c:	25011101 	strcs	r1, [r1, #-257]	; 0xfffffeff
    1d60:	030b130e 	movweq	r1, #45838	; 0xb30e
    1d64:	110e1b0e 	tstne	lr, lr, lsl #22
    1d68:	10061201 	andne	r1, r6, r1, lsl #4
    1d6c:	02000017 	andeq	r0, r0, #23, 0
    1d70:	0b0b0024 	bleq	2c1e08 <__bss_end__+0x2b6b10>
    1d74:	08030b3e 	stmdaeq	r3, {r1, r2, r3, r4, r5, r8, r9, fp}
    1d78:	24030000 	strcs	r0, [r3], #-0
    1d7c:	3e0b0b00 	vmlacc.f64	d0, d11, d0
    1d80:	000e030b 	andeq	r0, lr, fp, lsl #6
    1d84:	01150400 	tsteq	r5, r0, lsl #8
    1d88:	13491927 	movtne	r1, #39207	; 0x9927
    1d8c:	00001301 	andeq	r1, r0, r1, lsl #6
    1d90:	49000505 	stmdbmi	r0, {r0, r2, r8, sl}
    1d94:	06000013 			; <UNDEFINED> instruction: 0x06000013
    1d98:	0e030034 	mcreq	0, 0, r0, cr3, cr4, {1}
    1d9c:	0b3b0b3a 	bleq	ec4a8c <__bss_end__+0xeb9794>
    1da0:	13490b39 	movtne	r0, #39737	; 0x9b39
    1da4:	193c193f 	ldmdbne	ip!, {r0, r1, r2, r3, r4, r5, r8, fp, ip}
    1da8:	0f070000 	svceq	0x00070000
    1dac:	490b0b00 	stmdbmi	fp, {r8, r9, fp}
    1db0:	08000013 	stmdaeq	r0, {r0, r1, r4}
    1db4:	13490026 	movtne	r0, #36902	; 0x9026
    1db8:	2e090000 	cdpcs	0, 0, cr0, cr9, cr0, {0}
    1dbc:	03193f01 	tsteq	r9, #1, 30
    1dc0:	3b0b3a0e 	blcc	2d0600 <__bss_end__+0x2c5308>
    1dc4:	270b390b 	strcs	r3, [fp, -fp, lsl #18]
    1dc8:	11134919 	tstne	r3, r9, lsl r9
    1dcc:	40061201 	andmi	r1, r6, r1, lsl #4
    1dd0:	19429718 	stmdbne	r2, {r3, r4, r8, r9, sl, ip, pc}^
    1dd4:	00001301 	andeq	r1, r0, r1, lsl #6
    1dd8:	0300050a 	movweq	r0, #1290	; 0x50a
    1ddc:	3b0b3a08 	blcc	2d0604 <__bss_end__+0x2c530c>
    1de0:	490b390b 	stmdbmi	fp, {r0, r1, r3, r8, fp, ip, sp}
    1de4:	00180213 	andseq	r0, r8, r3, lsl r2
    1de8:	00050b00 	andeq	r0, r5, r0, lsl #22
    1dec:	0b3a0803 	bleq	e83e00 <__bss_end__+0xe78b08>
    1df0:	0b390b3b 	bleq	e44ae4 <__bss_end__+0xe397ec>
    1df4:	17021349 	strne	r1, [r2, -r9, asr #6]
    1df8:	001742b7 			; <UNDEFINED> instruction: 0x001742b7
    1dfc:	00340c00 	eorseq	r0, r4, r0, lsl #24
    1e00:	0b3a0803 	bleq	e83e14 <__bss_end__+0xe78b1c>
    1e04:	0b390b3b 	bleq	e44af8 <__bss_end__+0xe39800>
    1e08:	17021349 	strne	r1, [r2, -r9, asr #6]
    1e0c:	001742b7 			; <UNDEFINED> instruction: 0x001742b7
    1e10:	11010000 	mrsne	r0, (UNDEF: 1)
    1e14:	130e2501 	movwne	r2, #58625	; 0xe501
    1e18:	1b0e030b 	blne	382a4c <__bss_end__+0x377754>
    1e1c:	1201110e 	andne	r1, r1, #-2147483645	; 0x80000003
    1e20:	00171006 	andseq	r1, r7, r6
    1e24:	00240200 	eoreq	r0, r4, r0, lsl #4
    1e28:	0b3e0b0b 	bleq	f84a5c <__bss_end__+0xf79764>
    1e2c:	00000803 	andeq	r0, r0, r3, lsl #16
    1e30:	03001603 	movweq	r1, #1539	; 0x603
    1e34:	3b0b3a0e 	blcc	2d0674 <__bss_end__+0x2c537c>
    1e38:	490b390b 	stmdbmi	fp, {r0, r1, r3, r8, fp, ip, sp}
    1e3c:	04000013 	streq	r0, [r0], #-19	; 0xffffffed
    1e40:	0b0b0024 	bleq	2c1ed8 <__bss_end__+0x2b6be0>
    1e44:	0e030b3e 	vmoveq.16	d3[0], r0
    1e48:	26050000 	strcs	r0, [r5], -r0
    1e4c:	00134900 	andseq	r4, r3, r0, lsl #18
    1e50:	01150600 	tsteq	r5, r0, lsl #12
    1e54:	13491927 	movtne	r1, #39207	; 0x9927
    1e58:	00001301 	andeq	r1, r0, r1, lsl #6
    1e5c:	49000507 	stmdbmi	r0, {r0, r1, r2, r8, sl}
    1e60:	08000013 	stmdaeq	r0, {r0, r1, r4}
    1e64:	0e030034 	mcreq	0, 0, r0, cr3, cr4, {1}
    1e68:	0b3b0b3a 	bleq	ec4b58 <__bss_end__+0xeb9860>
    1e6c:	13490b39 	movtne	r0, #39737	; 0x9b39
    1e70:	193c193f 	ldmdbne	ip!, {r0, r1, r2, r3, r4, r5, r8, fp, ip}
    1e74:	0f090000 	svceq	0x00090000
    1e78:	490b0b00 	stmdbmi	fp, {r8, r9, fp}
    1e7c:	0a000013 	beq	1ed0 <__code_start__-0x6130>
    1e80:	193f012e 	ldmdbne	pc!, {r1, r2, r3, r5, r8}	; <UNPREDICTABLE>
    1e84:	0b3a0e03 	bleq	e85698 <__bss_end__+0xe7a3a0>
    1e88:	0b390b3b 	bleq	e44b7c <__bss_end__+0xe39884>
    1e8c:	13491927 	movtne	r1, #39207	; 0x9927
    1e90:	06120111 			; <UNDEFINED> instruction: 0x06120111
    1e94:	42971840 	addsmi	r1, r7, #64, 16	; 0x400000
    1e98:	00130119 	andseq	r0, r3, r9, lsl r1
    1e9c:	00050b00 	andeq	r0, r5, r0, lsl #22
    1ea0:	0b3a0803 	bleq	e83eb4 <__bss_end__+0xe78bbc>
    1ea4:	0b390b3b 	bleq	e44b98 <__bss_end__+0xe398a0>
    1ea8:	17021349 	strne	r1, [r2, -r9, asr #6]
    1eac:	001742b7 			; <UNDEFINED> instruction: 0x001742b7
    1eb0:	00340c00 	eorseq	r0, r4, r0, lsl #24
    1eb4:	0b3a0803 	bleq	e83ec8 <__bss_end__+0xe78bd0>
    1eb8:	0b390b3b 	bleq	e44bac <__bss_end__+0xe398b4>
    1ebc:	17021349 	strne	r1, [r2, -r9, asr #6]
    1ec0:	001742b7 			; <UNDEFINED> instruction: 0x001742b7
    1ec4:	11010000 	mrsne	r0, (UNDEF: 1)
    1ec8:	130e2501 	movwne	r2, #58625	; 0xe501
    1ecc:	1b0e030b 	blne	382b00 <__bss_end__+0x377808>
    1ed0:	1201110e 	andne	r1, r1, #-2147483645	; 0x80000003
    1ed4:	00171006 	andseq	r1, r7, r6
    1ed8:	00240200 	eoreq	r0, r4, r0, lsl #4
    1edc:	0b3e0b0b 	bleq	f84b10 <__bss_end__+0xf79818>
    1ee0:	00000803 	andeq	r0, r0, r3, lsl #16
    1ee4:	0b002403 	bleq	aef8 <buf.3944+0x4>
    1ee8:	030b3e0b 	movweq	r3, #48651	; 0xbe0b
    1eec:	0400000e 	streq	r0, [r0], #-14
    1ef0:	19270115 	stmdbne	r7!, {r0, r2, r4, r8}
    1ef4:	13011349 	movwne	r1, #4937	; 0x1349
    1ef8:	05050000 	streq	r0, [r5, #-0]
    1efc:	00134900 	andseq	r4, r3, r0, lsl #18
    1f00:	00340600 	eorseq	r0, r4, r0, lsl #12
    1f04:	0b3a0e03 	bleq	e85718 <__bss_end__+0xe7a420>
    1f08:	0b390b3b 	bleq	e44bfc <__bss_end__+0xe39904>
    1f0c:	193f1349 	ldmdbne	pc!, {r0, r3, r6, r8, r9, ip}	; <UNPREDICTABLE>
    1f10:	0000193c 	andeq	r1, r0, ip, lsr r9
    1f14:	0b000f07 	bleq	5b38 <__code_start__-0x24c8>
    1f18:	0013490b 	andseq	r4, r3, fp, lsl #18
    1f1c:	00260800 	eoreq	r0, r6, r0, lsl #16
    1f20:	00001349 	andeq	r1, r0, r9, asr #6
    1f24:	3f002e09 	svccc	0x00002e09
    1f28:	3a0e0319 	bcc	382b94 <__bss_end__+0x37789c>
    1f2c:	390b3b0b 	stmdbcc	fp, {r0, r1, r3, r8, r9, fp, ip, sp}
    1f30:	1119270b 	tstne	r9, fp, lsl #14
    1f34:	40061201 	andmi	r1, r6, r1, lsl #4
    1f38:	19429718 	stmdbne	r2, {r3, r4, r8, r9, sl, ip, pc}^
    1f3c:	Address 0x0000000000001f3c is out of bounds.


Disassembly of section .debug_loc:

00000000 <.debug_loc>:
       0:	00000000 	andeq	r0, r0, r0
       4:	00000074 	andeq	r0, r0, r4, ror r0
       8:	00000077 	andeq	r0, r0, r7, ror r0
       c:	77500001 	ldrbvc	r0, [r0, -r1]
      10:	04000000 	streq	r0, [r0], #-0
      14:	01000001 	tsteq	r0, r1
      18:	00005400 	andeq	r5, r0, r0, lsl #8
      1c:	00000000 	andeq	r0, r0, r0
      20:	00010000 	andeq	r0, r1, r0
      24:	00000048 	andeq	r0, r0, r8, asr #32
      28:	00000060 	andeq	r0, r0, r0, rrx
      2c:	9f3b0002 	svcls	0x003b0002
	...
      38:	00480001 	subeq	r0, r8, r1
      3c:	00600000 	rsbeq	r0, r0, r0
      40:	00060000 	andeq	r0, r6, r0
      44:	00040ef2 	strdeq	r0, [r4], -r2
	...
      50:	00010000 	andeq	r0, r1, r0
      54:	00000048 	andeq	r0, r0, r8, asr #32
      58:	00000060 	andeq	r0, r0, r0, rrx
      5c:	d8030006 	stmdale	r3, {r1, r2}
      60:	9f0000a5 	svcls	0x000000a5
	...
      6c:	00980001 	addseq	r0, r8, r1
      70:	00a80000 	adceq	r0, r8, r0
      74:	00020000 	andeq	r0, r2, r0
      78:	00009f3e 	andeq	r9, r0, lr, lsr pc
      7c:	00000000 	andeq	r0, r0, r0
      80:	00010000 	andeq	r0, r1, r0
      84:	00000098 	muleq	r0, r8, r0
      88:	000000a8 	andeq	r0, r0, r8, lsr #1
      8c:	0ef20006 	cdpeq	0, 15, cr0, cr2, cr6, {0}
      90:	00000004 	andeq	r0, r0, r4
	...
      9c:	00980001 	addseq	r0, r8, r1
      a0:	00a80000 	adceq	r0, r8, r0
      a4:	00060000 	andeq	r0, r6, r0
      a8:	00a5d803 	adceq	sp, r5, r3, lsl #16
      ac:	00009f00 	andeq	r9, r0, r0, lsl #30
	...
      b8:	00100000 	andseq	r0, r0, r0
      bc:	00200000 	eoreq	r0, r0, r0
      c0:	00010000 	andeq	r0, r1, r0
      c4:	00002050 	andeq	r2, r0, r0, asr r0
      c8:	00002400 	andeq	r2, r0, r0, lsl #8
      cc:	f3000400 	vshl.u8	d0, d0, d0
      d0:	009f5001 	addseq	r5, pc, r1
      d4:	00000000 	andeq	r0, r0, r0
      d8:	01000000 	mrseq	r0, (UNDEF: 0)
      dc:	1c000000 	stcne	0, cr0, [r0], {-0}
      e0:	20000000 	andcs	r0, r0, r0
      e4:	01000000 	mrseq	r0, (UNDEF: 0)
      e8:	00205000 	eoreq	r5, r0, r0
      ec:	00240000 	eoreq	r0, r4, r0
      f0:	00040000 	andeq	r0, r4, r0
      f4:	9f5001f3 	svcls	0x005001f3
	...
     104:	032c0000 			; <UNDEFINED> instruction: 0x032c0000
     108:	03440000 	movteq	r0, #16384	; 0x4000
     10c:	00010000 	andeq	r0, r1, r0
     110:	00034450 	andeq	r4, r3, r0, asr r4
     114:	0003ec00 	andeq	lr, r3, r0, lsl #24
     118:	55000100 	strpl	r0, [r0, #-256]	; 0xffffff00
     11c:	000003ec 	andeq	r0, r0, ip, ror #7
     120:	000003f8 	strdeq	r0, [r0], -r8
     124:	01f30004 	mvnseq	r0, r4
     128:	00009f50 	andeq	r9, r0, r0, asr pc
	...
     138:	00000354 	andeq	r0, r0, r4, asr r3
     13c:	0000035f 	andeq	r0, r0, pc, asr r3
     140:	5f500001 	svcpl	0x00500001
     144:	ec000003 	stc	0, cr0, [r0], {3}
     148:	01000003 	tsteq	r0, r3
     14c:	03ec5400 	mvneq	r5, #0, 8
     150:	03f80000 	mvnseq	r0, #0, 0
     154:	00050000 	andeq	r0, r5, r0
     158:	00aed003 	adceq	sp, lr, r3
	...
     164:	00000200 	andeq	r0, r0, r0, lsl #4
     168:	00036000 	andeq	r6, r3, r0
     16c:	00036400 	andeq	r6, r3, r0, lsl #8
     170:	30000200 	andcc	r0, r0, r0, lsl #4
     174:	0003649f 	muleq	r3, pc, r4	; <UNPREDICTABLE>
     178:	00039400 	andeq	r9, r3, r0, lsl #8
     17c:	53000100 	movwpl	r0, #256	; 0x100
	...
     18c:	00000184 	andeq	r0, r0, r4, lsl #3
     190:	0000019c 	muleq	r0, ip, r1
     194:	9c500001 	mrrcls	0, 0, r0, r0, cr1	; <UNPREDICTABLE>
     198:	20000001 	andcs	r0, r0, r1
     19c:	01000003 	tsteq	r0, r3
     1a0:	00005400 	andeq	r5, r0, r0, lsl #8
     1a4:	00000000 	andeq	r0, r0, r0
     1a8:	02010000 	andeq	r0, r1, #0, 0
     1ac:	01a00002 	moveq	r0, r2
     1b0:	01a00000 	moveq	r0, r0
     1b4:	00010000 	andeq	r0, r1, r0
     1b8:	0001a054 	andeq	sl, r1, r4, asr r0
     1bc:	00032000 	andeq	r2, r3, r0
     1c0:	74000400 	strvc	r0, [r0], #-1024	; 0xfffffc00
     1c4:	009f7ecc 	addseq	r7, pc, ip, asr #29
	...
     1d4:	e8000000 	stmda	r0, {}	; <UNPREDICTABLE>
     1d8:	1c000001 	stcne	0, cr0, [r0], {1}
     1dc:	01000002 	tsteq	r0, r2
     1e0:	02445300 	subeq	r5, r4, #0, 6
     1e4:	02470000 	subeq	r0, r7, #0, 0
     1e8:	00010000 	andeq	r0, r1, r0
     1ec:	00026853 	andeq	r6, r2, r3, asr r8
     1f0:	00026b00 	andeq	r6, r2, r0, lsl #22
     1f4:	53000100 	movwpl	r0, #256	; 0x100
     1f8:	0000028c 	andeq	r0, r0, ip, lsl #5
     1fc:	00000290 	muleq	r0, r0, r2
     200:	00530001 	subseq	r0, r3, r1
	...
     20c:	00029000 	andeq	r9, r2, r0
     210:	0002ac00 	andeq	sl, r2, r0, lsl #24
     214:	53000100 	movwpl	r0, #256	; 0x100
	...
     224:	00000118 	andeq	r0, r0, r8, lsl r1
     228:	0000012b 	andeq	r0, r0, fp, lsr #2
     22c:	2b500001 	blcs	1400238 <__bss_end__+0x13f4f40>
     230:	78000001 	stmdavc	r0, {r0}
     234:	01000001 	tsteq	r0, r1
     238:	00005500 	andeq	r5, r0, r0, lsl #10
	...
     248:	01300000 	teqeq	r0, r0
     24c:	01430000 	mrseq	r0, (UNDEF: 67)
     250:	00010000 	andeq	r0, r1, r0
     254:	00014350 	andeq	r4, r1, r0, asr r3
     258:	00015800 	andeq	r5, r1, r0, lsl #16
     25c:	54000100 	strpl	r0, [r0], #-256	; 0xffffff00
     260:	00000158 	andeq	r0, r0, r8, asr r1
     264:	0000015c 	andeq	r0, r0, ip, asr r1
     268:	5c500001 	mrrcpl	0, 0, r0, r0, cr1	; <UNPREDICTABLE>
     26c:	78000001 	stmdavc	r0, {r0}
     270:	01000001 	tsteq	r0, r1
     274:	00005400 	andeq	r5, r0, r0, lsl #8
	...
     280:	00c80000 	sbceq	r0, r8, r0
     284:	00df0000 	sbcseq	r0, pc, r0
     288:	00010000 	andeq	r0, r1, r0
     28c:	0000df50 	andeq	sp, r0, r0, asr pc
     290:	00010000 	andeq	r0, r1, r0
     294:	56000100 	strpl	r0, [r0], -r0, lsl #2
	...
     2a4:	000000c8 	andeq	r0, r0, r8, asr #1
     2a8:	000000df 	ldrdeq	r0, [r0], -pc	; <UNPREDICTABLE>
     2ac:	df510001 	svcle	0x00510001
     2b0:	00000000 	andeq	r0, r0, r0
     2b4:	01000001 	tsteq	r0, r1
     2b8:	00005400 	andeq	r5, r0, r0, lsl #8
	...
     2c4:	00e40000 	rsceq	r0, r4, r0
     2c8:	00e80000 	rsceq	r0, r8, r0
     2cc:	00010000 	andeq	r0, r1, r0
     2d0:	0000e850 	andeq	lr, r0, r0, asr r8
     2d4:	00010000 	andeq	r0, r1, r0
     2d8:	55000100 	strpl	r0, [r0, #-256]	; 0xffffff00
	...
     2e4:	00ec0000 	rsceq	r0, ip, r0
     2e8:	00f80000 	rscseq	r0, r8, r0
     2ec:	00010000 	andeq	r0, r1, r0
     2f0:	00000050 	andeq	r0, r0, r0, asr r0
	...
     2fc:	00009400 	andeq	r9, r0, r0, lsl #8
     300:	0000a700 	andeq	sl, r0, r0, lsl #14
     304:	50000100 	andpl	r0, r0, r0, lsl #2
     308:	000000a7 	andeq	r0, r0, r7, lsr #1
     30c:	000000b4 	strheq	r0, [r0], -r4
     310:	00540001 	subseq	r0, r4, r1
	...
     31c:	0000a800 	andeq	sl, r0, r0, lsl #16
     320:	0000ac00 	andeq	sl, r0, r0, lsl #24
     324:	54000100 	strpl	r0, [r0], #-256	; 0xffffff00
	...
     334:	00000070 	andeq	r0, r0, r0, ror r0
     338:	00000080 	andeq	r0, r0, r0, lsl #1
     33c:	80500001 	subshi	r0, r0, r1
     340:	84000000 	strhi	r0, [r0], #-0
     344:	04000000 	streq	r0, [r0], #-0
     348:	7ecc7000 	cdpvc	0, 12, cr7, cr12, cr0, {0}
     34c:	0000009f 	muleq	r0, pc, r0	; <UNPREDICTABLE>
	...
     358:	00004000 	andeq	r4, r0, r0
     35c:	00005800 	andeq	r5, r0, r0, lsl #16
     360:	50000100 	andpl	r0, r0, r0, lsl #2
     364:	00000058 	andeq	r0, r0, r8, asr r0
     368:	0000005c 	andeq	r0, r0, ip, asr r0
     36c:	01f30004 	mvnseq	r0, r4
     370:	00009f50 	andeq	r9, r0, r0, asr pc
	...
     380:	001c0000 	andseq	r0, ip, r0
     384:	008c0000 	addeq	r0, ip, r0
     388:	00010000 	andeq	r0, r1, r0
     38c:	00008c51 	andeq	r8, r0, r1, asr ip
     390:	00009800 	andeq	r9, r0, r0, lsl #16
     394:	70000300 	andvc	r0, r0, r0, lsl #6
     398:	00989f78 	addseq	r9, r8, r8, ror pc
     39c:	00b80000 	adcseq	r0, r8, r0
     3a0:	00010000 	andeq	r0, r1, r0
     3a4:	0000b851 	andeq	fp, r0, r1, asr r8
     3a8:	0000d000 	andeq	sp, r0, r0
     3ac:	70000300 	andvc	r0, r0, r0, lsl #6
     3b0:	00009f78 	andeq	r9, r0, r8, ror pc
	...
     3bc:	00240000 	eoreq	r0, r4, r0
     3c0:	005c0000 	subseq	r0, ip, r0
     3c4:	00010000 	andeq	r0, r1, r0
     3c8:	00006053 	andeq	r6, r0, r3, asr r0
     3cc:	0000d000 	andeq	sp, r0, r0
     3d0:	53000100 	movwpl	r0, #256	; 0x100
	...
     3e4:	0000014c 	andeq	r0, r0, ip, asr #2
     3e8:	00000178 	andeq	r0, r0, r8, ror r1
     3ec:	78500001 	ldmdavc	r0, {r0}^
     3f0:	7c000001 	stcvc	0, cr0, [r0], {1}
     3f4:	04000001 	streq	r0, [r0], #-1
     3f8:	5001f300 	andpl	pc, r1, r0, lsl #6
     3fc:	00017c9f 	muleq	r1, pc, ip	; <UNPREDICTABLE>
     400:	00019400 	andeq	r9, r1, r0, lsl #8
     404:	50000100 	andpl	r0, r0, r0, lsl #2
     408:	00000194 	muleq	r0, r4, r1
     40c:	00000200 	andeq	r0, r0, r0, lsl #4
     410:	01f30004 	mvnseq	r0, r4
     414:	00009f50 	andeq	r9, r0, r0, asr pc
	...
     424:	00010100 	andeq	r0, r1, r0, lsl #2
     428:	00000000 	andeq	r0, r0, r0
     42c:	00000178 	andeq	r0, r0, r8, ror r1
     430:	0000017c 	andeq	r0, r0, ip, ror r1
     434:	94500001 	ldrbls	r0, [r0], #-1
     438:	b4000001 	strlt	r0, [r0], #-1
     43c:	01000001 	tsteq	r0, r1
     440:	01b45000 			; <UNDEFINED> instruction: 0x01b45000
     444:	01b80000 			; <UNDEFINED> instruction: 0x01b80000
     448:	00030000 	andeq	r0, r3, r0
     44c:	b89f7870 	ldmlt	pc, {r4, r5, r6, fp, ip, sp, lr}	; <UNPREDICTABLE>
     450:	c4000001 	strgt	r0, [r0], #-1
     454:	01000001 	tsteq	r0, r1
     458:	01c45000 	biceq	r5, r4, r0
     45c:	01cc0000 	biceq	r0, ip, r0
     460:	00020000 	andeq	r0, r2, r0
     464:	01cc0070 	biceq	r0, ip, r0, ror r0
     468:	01ec0000 	mvneq	r0, r0
     46c:	00010000 	andeq	r0, r1, r0
     470:	0001f050 	andeq	pc, r1, r0, asr r0	; <UNPREDICTABLE>
     474:	00020000 	andeq	r0, r2, r0
     478:	50000100 	andpl	r0, r0, r0, lsl #2
	...
     484:	00010100 	andeq	r0, r1, r0, lsl #2
     488:	00010000 	andeq	r0, r1, r0
     48c:	016c0000 	cmneq	ip, r0
     490:	017c0000 	cmneq	ip, r0
     494:	00010000 	andeq	r0, r1, r0
     498:	00017c52 	andeq	r7, r1, r2, asr ip
     49c:	00019400 	andeq	r9, r1, r0, lsl #8
     4a0:	03000600 	movweq	r0, #1536	; 0x600
     4a4:	0000aee0 	andeq	sl, r0, r0, ror #29
     4a8:	0001949f 	muleq	r1, pc, r4	; <UNPREDICTABLE>
     4ac:	0001c400 	andeq	ip, r1, r0, lsl #8
     4b0:	52000100 	andpl	r0, r0, #0
     4b4:	000001c4 	andeq	r0, r0, r4, asr #3
     4b8:	000001cc 	andeq	r0, r0, ip, asr #3
     4bc:	cc500001 	mrrcgt	0, 0, r0, r0, cr1	; <UNPREDICTABLE>
     4c0:	ef000001 	svc	0x00000001
     4c4:	01000001 	tsteq	r0, r1
     4c8:	00005200 	andeq	r5, r0, r0, lsl #4
	...
     4d4:	00000164 	andeq	r0, r0, r4, ror #2
     4d8:	00000200 	andeq	r0, r0, r0, lsl #4
     4dc:	00540001 	subseq	r0, r4, r1
	...
     4e8:	e0000000 	and	r0, r0, r0
     4ec:	f8000000 			; <UNDEFINED> instruction: 0xf8000000
     4f0:	01000000 	mrseq	r0, (UNDEF: 0)
     4f4:	00f85000 	rscseq	r5, r8, r0
     4f8:	013c0000 	teqeq	ip, r0
     4fc:	00010000 	andeq	r0, r1, r0
     500:	00000054 	andeq	r0, r0, r4, asr r0
	...
     50c:	0c000000 	stceq	0, cr0, [r0], {-0}
     510:	1c000001 	stcne	0, cr0, [r0], {1}
     514:	01000001 	tsteq	r0, r1
     518:	011c5000 	tsteq	ip, r0
     51c:	011f0000 	tsteq	pc, r0
     520:	00030000 	andeq	r0, r3, r0
     524:	2c9f7870 	ldccs	8, cr7, [pc], {112}	; 0x70
     528:	30000001 	andcc	r0, r0, r1
     52c:	01000001 	tsteq	r0, r1
     530:	00005000 	andeq	r5, r0, r0
     534:	00000000 	andeq	r0, r0, r0
     538:	00010000 	andeq	r0, r1, r0
     53c:	01140000 	tsteq	r4, r0
     540:	011c0000 	tsteq	ip, r0
     544:	00010000 	andeq	r0, r1, r0
     548:	00011c50 	andeq	r1, r1, r0, asr ip
     54c:	00011f00 	andeq	r1, r1, r0, lsl #30
     550:	70000300 	andvc	r0, r0, r0, lsl #6
     554:	00009f78 	andeq	r9, r0, r8, ror pc
	...
     560:	000007d4 	ldrdeq	r0, [r0], -r4
     564:	000007d8 	ldrdeq	r0, [r0], -r8
     568:	00500001 	subseq	r0, r0, r1
     56c:	00000000 	andeq	r0, r0, r0
     570:	01000000 	mrseq	r0, (UNDEF: 0)
     574:	f4000000 	vst4.8	{d0-d3}, [r0], r0
     578:	20000003 	andcs	r0, r0, r3
     57c:	02000004 	andeq	r0, r0, #4, 0
     580:	209f3000 	addscs	r3, pc, r0
     584:	ac000004 	stcge	0, cr0, [r0], {4}
     588:	01000004 	tsteq	r0, r4
     58c:	00005500 	andeq	r5, r0, r0, lsl #10
     590:	00000000 	andeq	r0, r0, r0
     594:	00010000 	andeq	r0, r1, r0
     598:	03f40000 	mvnseq	r0, #0, 0
     59c:	04200000 	strteq	r0, [r0], #-0
     5a0:	00020000 	andeq	r0, r2, r0
     5a4:	04209f30 	strteq	r9, [r0], #-3888	; 0xfffff0d0
     5a8:	04ac0000 	strteq	r0, [ip], #0
     5ac:	00010000 	andeq	r0, r1, r0
     5b0:	00000058 	andeq	r0, r0, r8, asr r0
     5b4:	00000000 	andeq	r0, r0, r0
     5b8:	00000100 	andeq	r0, r0, r0, lsl #2
     5bc:	f4000000 	vst4.8	{d0-d3}, [r0], r0
     5c0:	20000003 	andcs	r0, r0, r3
     5c4:	02000004 	andeq	r0, r0, #4, 0
     5c8:	209f3000 	addscs	r3, pc, r0
     5cc:	ac000004 	stcge	0, cr0, [r0], {4}
     5d0:	01000004 	tsteq	r0, r4
     5d4:	04ac5700 	strteq	r5, [ip], #1792	; 0x700
     5d8:	04c80000 	strbeq	r0, [r8], #0
     5dc:	00010000 	andeq	r0, r1, r0
     5e0:	00000050 	andeq	r0, r0, r0, asr r0
	...
     5f0:	00041000 	andeq	r1, r4, r0
     5f4:	00045400 	andeq	r5, r4, r0, lsl #8
     5f8:	50000100 	andpl	r0, r0, r0, lsl #2
     5fc:	00000454 	andeq	r0, r0, r4, asr r4
     600:	00000470 	andeq	r0, r0, r0, ror r4
     604:	70540001 	subsvc	r0, r4, r1
     608:	9c000004 	stcls	0, cr0, [r0], {4}
     60c:	01000004 	tsteq	r0, r4
     610:	049c5000 	ldreq	r5, [ip], #0
     614:	04ac0000 	strteq	r0, [ip], #0
     618:	00010000 	andeq	r0, r1, r0
     61c:	00000054 	andeq	r0, r0, r4, asr r0
     620:	00000000 	andeq	r0, r0, r0
     624:	30000000 	andcc	r0, r0, r0
     628:	48000004 	stmdami	r0, {r2}
     62c:	04000004 	streq	r0, [r0], #-4
     630:	011e0a00 	tsteq	lr, r0, lsl #20
     634:	0000009f 	muleq	r0, pc, r0	; <UNPREDICTABLE>
     638:	00000000 	andeq	r0, r0, r0
     63c:	30000000 	andcc	r0, r0, r0
     640:	48000004 	stmdami	r0, {r2}
     644:	06000004 	streq	r0, [r0], -r4
     648:	1d6af200 	sfmne	f7, 3, [sl, #-0]
	...
     658:	00043000 	andeq	r3, r4, r0
     65c:	00044800 	andeq	r4, r4, r0, lsl #16
     660:	03000600 	movweq	r0, #1536	; 0x600
     664:	0000a788 	andeq	sl, r0, r8, lsl #15
     668:	0000009f 	muleq	r0, pc, r0	; <UNPREDICTABLE>
	...
     674:	70000000 	andvc	r0, r0, r0
     678:	80000007 	andhi	r0, r0, r7
     67c:	01000007 	tsteq	r0, r7
     680:	07805000 	streq	r5, [r0, r0]
     684:	07830000 	streq	r0, [r3, r0]
     688:	00010000 	andeq	r0, r1, r0
     68c:	00078351 	andeq	r8, r7, r1, asr r3
     690:	0007b400 	andeq	fp, r7, r0, lsl #8
     694:	54000100 	strpl	r0, [r0], #-256	; 0xffffff00
	...
     6a4:	000006cc 	andeq	r0, r0, ip, asr #13
     6a8:	000006db 	ldrdeq	r0, [r0], -fp
     6ac:	db500001 	blle	14006b8 <__bss_end__+0x13f53c0>
     6b0:	e0000006 	and	r0, r0, r6
     6b4:	04000006 	streq	r0, [r0], #-6
     6b8:	5001f300 	andpl	pc, r1, r0, lsl #6
     6bc:	0000009f 	muleq	r0, pc, r0	; <UNPREDICTABLE>
	...
     6c8:	0002d800 	andeq	sp, r2, r0, lsl #16
     6cc:	0002ec00 	andeq	lr, r2, r0, lsl #24
     6d0:	50000100 	andpl	r0, r0, r0, lsl #2
     6d4:	000002ec 	andeq	r0, r0, ip, ror #5
     6d8:	000003d4 	ldrdeq	r0, [r0], -r4
     6dc:	00570001 	subseq	r0, r7, r1
     6e0:	00000000 	andeq	r0, r0, r0
     6e4:	01000000 	mrseq	r0, (UNDEF: 0)
     6e8:	e8000000 	stmda	r0, {}	; <UNPREDICTABLE>
     6ec:	14000002 	strne	r0, [r0], #-2
     6f0:	02000003 	andeq	r0, r0, #3, 0
     6f4:	149f3000 	ldrne	r3, [pc], #0	; 6fc <__code_start__-0x7904>
     6f8:	d4000003 	strle	r0, [r0], #-3
     6fc:	01000003 	tsteq	r0, r3
     700:	00005500 	andeq	r5, r0, r0, lsl #10
     704:	00000000 	andeq	r0, r0, r0
     708:	00010000 	andeq	r0, r1, r0
     70c:	00000000 	andeq	r0, r0, r0
     710:	000002e8 	andeq	r0, r0, r8, ror #5
     714:	00000314 	andeq	r0, r0, r4, lsl r3
     718:	9f300002 	svcls	0x00300002
     71c:	00000314 	andeq	r0, r0, r4, lsl r3
     720:	00000398 	muleq	r0, r8, r3
     724:	a0560001 	subsge	r0, r6, r1
     728:	d4000003 	strle	r0, [r0], #-3
     72c:	01000003 	tsteq	r0, r3
     730:	00005600 	andeq	r5, r0, r0, lsl #12
     734:	00000000 	andeq	r0, r0, r0
     738:	00010000 	andeq	r0, r1, r0
     73c:	02e80000 	rsceq	r0, r8, #0, 0
     740:	03140000 	tsteq	r4, #0, 0
     744:	00020000 	andeq	r0, r2, r0
     748:	03149f30 	tsteq	r4, #48, 30	; 0xc0
     74c:	03d40000 	bicseq	r0, r4, #0, 0
     750:	00010000 	andeq	r0, r1, r0
     754:	00000058 	andeq	r0, r0, r8, asr r0
	...
     768:	04000000 	streq	r0, [r0], #-0
     76c:	24000003 	strcs	r0, [r0], #-3
     770:	01000003 	tsteq	r0, r3
     774:	03245000 			; <UNDEFINED> instruction: 0x03245000
     778:	03340000 	teqeq	r4, #0, 0
     77c:	00010000 	andeq	r0, r1, r0
     780:	00033454 	andeq	r3, r3, r4, asr r4
     784:	00036400 	andeq	r6, r3, r0, lsl #8
     788:	50000100 	andpl	r0, r0, r0, lsl #2
     78c:	00000364 	andeq	r0, r0, r4, ror #6
     790:	00000367 	andeq	r0, r0, r7, ror #6
     794:	67520001 	ldrbvs	r0, [r2, -r1]
     798:	6c000003 	stcvs	0, cr0, [r0], {3}
     79c:	01000003 	tsteq	r0, r3
     7a0:	036c5400 	cmneq	ip, #0, 8
     7a4:	03740000 	cmneq	r4, #0, 0
     7a8:	00010000 	andeq	r0, r1, r0
     7ac:	00037450 	andeq	r7, r3, r0, asr r4
     7b0:	0003d400 	andeq	sp, r3, r0, lsl #8
     7b4:	54000100 	strpl	r0, [r0], #-256	; 0xffffff00
	...
     7c0:	00000001 	andeq	r0, r0, r1
     7c4:	000005f0 	strdeq	r0, [r0], -r0	; <UNPREDICTABLE>
     7c8:	00000600 	andeq	r0, r0, r0, lsl #12
     7cc:	9f300002 	svcls	0x00300002
     7d0:	00000600 	andeq	r0, r0, r0, lsl #12
     7d4:	000006b8 			; <UNDEFINED> instruction: 0x000006b8
     7d8:	00560001 	subseq	r0, r6, r1
	...
     7ec:	f8000000 			; <UNDEFINED> instruction: 0xf8000000
     7f0:	00000005 	andeq	r0, r0, r5
     7f4:	01000006 	tsteq	r0, r6
     7f8:	06005000 	streq	r5, [r0], -r0
     7fc:	062c0000 	strteq	r0, [ip], -r0
     800:	00010000 	andeq	r0, r1, r0
     804:	00062c54 	andeq	r2, r6, r4, asr ip
     808:	00063c00 	andeq	r3, r6, r0, lsl #24
     80c:	50000100 	andpl	r0, r0, r0, lsl #2
     810:	0000063c 	andeq	r0, r0, ip, lsr r6
     814:	000006a4 	andeq	r0, r0, r4, lsr #13
     818:	a4540001 	ldrbge	r0, [r4], #-1
     81c:	a8000006 	stmdage	r0, {r1, r2}
     820:	01000006 	tsteq	r0, r6
     824:	06a85000 	strteq	r5, [r8], r0
     828:	06b80000 	ldrteq	r0, [r8], r0
     82c:	00010000 	andeq	r0, r1, r0
     830:	00000054 	andeq	r0, r0, r4, asr r0
     834:	00000000 	andeq	r0, r0, r0
     838:	01000000 	mrseq	r0, (UNDEF: 0)
     83c:	00000000 	andeq	r0, r0, r0
     840:	00060000 	andeq	r0, r6, r0
     844:	00062c00 	andeq	r2, r6, r0, lsl #24
     848:	55000100 	strpl	r0, [r0, #-256]	; 0xffffff00
     84c:	00000634 	andeq	r0, r0, r4, lsr r6
     850:	00000644 	andeq	r0, r0, r4, asr #12
     854:	9f300002 	svcls	0x00300002
     858:	00000644 	andeq	r0, r0, r4, asr #12
     85c:	0000064c 	andeq	r0, r0, ip, asr #12
     860:	4c500001 	mrrcmi	0, 0, r0, r0, cr1	; <UNPREDICTABLE>
     864:	a4000006 	strge	r0, [r0], #-6
     868:	01000006 	tsteq	r0, r6
     86c:	00005500 	andeq	r5, r0, r0, lsl #10
	...
     878:	06000000 	streq	r0, [r0], -r0
     87c:	06100000 	ldreq	r0, [r0], -r0
     880:	00010000 	andeq	r0, r1, r0
     884:	00069450 	andeq	r9, r6, r0, asr r4
     888:	0006a400 	andeq	sl, r6, r0, lsl #8
     88c:	50000100 	andpl	r0, r0, r0, lsl #2
	...
     89c:	00000594 	muleq	r0, r4, r5
     8a0:	000005ac 	andeq	r0, r0, ip, lsr #11
     8a4:	ac500001 	mrrcge	0, 0, r0, r0, cr1	; <UNPREDICTABLE>
     8a8:	d0000005 	andle	r0, r0, r5
     8ac:	01000005 	tsteq	r0, r5
     8b0:	00005c00 	andeq	r5, r0, r0, lsl #24
     8b4:	00000000 	andeq	r0, r0, r0
     8b8:	00010000 	andeq	r0, r1, r0
     8bc:	05a40000 	streq	r0, [r4, #0]!
     8c0:	05b00000 	ldreq	r0, [r0, #0]!
     8c4:	00020000 	andeq	r0, r2, r0
     8c8:	05b09f30 	ldreq	r9, [r0, #3888]!	; 0xf30
     8cc:	05d00000 	ldrbeq	r0, [r0]
     8d0:	00010000 	andeq	r0, r1, r0
     8d4:	00000050 	andeq	r0, r0, r0, asr r0
     8d8:	00000000 	andeq	r0, r0, r0
     8dc:	00000300 	andeq	r0, r0, r0, lsl #6
     8e0:	0005a400 	andeq	sl, r5, r0, lsl #8
     8e4:	0005b000 	andeq	fp, r5, r0
     8e8:	30000200 	andcc	r0, r0, r0, lsl #4
     8ec:	0005b09f 	muleq	r5, pc, r0	; <UNPREDICTABLE>
     8f0:	0005d000 	andeq	sp, r5, r0
     8f4:	53000100 	movwpl	r0, #256	; 0x100
	...
     904:	00000230 	andeq	r0, r0, r0, lsr r2
     908:	0000024b 	andeq	r0, r0, fp, asr #4
     90c:	4c500001 	mrrcmi	0, 0, r0, r0, cr1	; <UNPREDICTABLE>
     910:	54000002 	strpl	r0, [r0], #-2
     914:	01000002 	tsteq	r0, r2
     918:	00005000 	andeq	r5, r0, r0
	...
     930:	0000009c 	muleq	r0, ip, r0
     934:	000000e4 	andeq	r0, r0, r4, ror #1
     938:	e4500001 	ldrb	r0, [r0], #-1
     93c:	ec000000 	stc	0, cr0, [r0], {-0}
     940:	01000000 	mrseq	r0, (UNDEF: 0)
     944:	00ec5400 	rsceq	r5, ip, r0, lsl #8
     948:	01040000 	mrseq	r0, (UNDEF: 4)
     94c:	00010000 	andeq	r0, r1, r0
     950:	00010450 	andeq	r0, r1, r0, asr r4
     954:	00010c00 	andeq	r0, r1, r0, lsl #24
     958:	f3000400 	vshl.u8	d0, d0, d0
     95c:	0c9f5001 	ldceq	0, cr5, [pc], {1}
     960:	24000001 	strcs	r0, [r0], #-1
     964:	01000001 	tsteq	r0, r1
     968:	01245000 			; <UNDEFINED> instruction: 0x01245000
     96c:	012c0000 			; <UNDEFINED> instruction: 0x012c0000
     970:	00010000 	andeq	r0, r1, r0
     974:	00012c54 	andeq	r2, r1, r4, asr ip
     978:	00020c00 	andeq	r0, r2, r0, lsl #24
     97c:	f3000400 	vshl.u8	d0, d0, d0
     980:	009f5001 	addseq	r5, pc, r1
	...
     998:	00009c00 	andeq	r9, r0, r0, lsl #24
     99c:	0000e000 	andeq	lr, r0, r0
     9a0:	51000100 	mrspl	r0, (UNDEF: 16)
     9a4:	000000e0 	andeq	r0, r0, r0, ror #1
     9a8:	000000ec 	andeq	r0, r0, ip, ror #1
     9ac:	ec560001 	mrrc	0, 0, r0, r6, cr1
     9b0:	00000000 	andeq	r0, r0, r0
     9b4:	01000001 	tsteq	r0, r1
     9b8:	01005100 	mrseq	r5, (UNDEF: 16)
     9bc:	010c0000 	mrseq	r0, (UNDEF: 12)
     9c0:	00040000 	andeq	r0, r4, r0
     9c4:	9f5101f3 	svcls	0x005101f3
     9c8:	0000010c 	andeq	r0, r0, ip, lsl #2
     9cc:	00000120 	andeq	r0, r0, r0, lsr #2
     9d0:	20510001 	subscs	r0, r1, r1
     9d4:	e8000001 	stmda	r0, {r0}
     9d8:	01000001 	tsteq	r0, r1
     9dc:	01e85600 	mvneq	r5, r0, lsl #12
     9e0:	020c0000 	andeq	r0, ip, #0, 0
     9e4:	00040000 	andeq	r0, r4, r0
     9e8:	9f5101f3 	svcls	0x005101f3
	...
     9f4:	012c0000 			; <UNDEFINED> instruction: 0x012c0000
     9f8:	01e80000 	mvneq	r0, r0
     9fc:	00010000 	andeq	r0, r1, r0
     a00:	00000054 	andeq	r0, r0, r4, asr r0
	...
     a0c:	2c000000 	stccs	0, cr0, [r0], {-0}
     a10:	4c000001 	stcmi	0, cr0, [r0], {1}
     a14:	01000001 	tsteq	r0, r1
     a18:	015c5500 	cmpeq	ip, r0, lsl #10
     a1c:	01730000 	cmneq	r3, r0
     a20:	00010000 	andeq	r0, r1, r0
     a24:	00017350 	andeq	r7, r1, r0, asr r3
     a28:	0001e000 	andeq	lr, r1, r0
     a2c:	55000100 	strpl	r0, [r0, #-256]	; 0xffffff00
	...
     a3c:	0000012c 	andeq	r0, r0, ip, lsr #2
     a40:	00000148 	andeq	r0, r0, r8, asr #2
     a44:	68570001 	ldmdavs	r7, {r0}^
     a48:	e0000001 	and	r0, r0, r1
     a4c:	01000001 	tsteq	r0, r1
     a50:	00005700 	andeq	r5, r0, r0, lsl #14
	...
     a5c:	012c0000 			; <UNDEFINED> instruction: 0x012c0000
     a60:	01480000 	mrseq	r0, (UNDEF: 72)
     a64:	00010000 	andeq	r0, r1, r0
     a68:	00016c58 	andeq	r6, r1, r8, asr ip
     a6c:	0001e000 	andeq	lr, r1, r0
     a70:	58000100 	stmdapl	r0, {r8}
	...
     a80:	00000060 	andeq	r0, r0, r0, rrx
     a84:	00000073 	andeq	r0, r0, r3, ror r0
     a88:	73500001 	cmpvc	r0, #1, 0
     a8c:	90000000 	andls	r0, r0, r0
     a90:	01000000 	mrseq	r0, (UNDEF: 0)
     a94:	00005400 	andeq	r5, r0, r0, lsl #8
     a98:	00000000 	andeq	r0, r0, r0
     a9c:	00010000 	andeq	r0, r1, r0
     aa0:	00700000 	rsbseq	r0, r0, r0
     aa4:	00730000 	rsbseq	r0, r3, r0
     aa8:	00010000 	andeq	r0, r1, r0
     aac:	00007350 	andeq	r7, r0, r0, asr r3
     ab0:	00009000 	andeq	r9, r0, r0
     ab4:	54000100 	strpl	r0, [r0], #-256	; 0xffffff00
	...
     acc:	0000000c 	andeq	r0, r0, ip
     ad0:	0000003c 	andeq	r0, r0, ip, lsr r0
     ad4:	3c500001 	mrrccc	0, 0, r0, r0, cr1	; <UNPREDICTABLE>
     ad8:	40000000 	andmi	r0, r0, r0
     adc:	04000000 	streq	r0, [r0], #-0
     ae0:	5001f300 	andpl	pc, r1, r0, lsl #6
     ae4:	0000409f 	muleq	r0, pc, r0	; <UNPREDICTABLE>
     ae8:	00004400 	andeq	r4, r0, r0, lsl #8
     aec:	50000100 	andpl	r0, r0, r0, lsl #2
     af0:	00000044 	andeq	r0, r0, r4, asr #32
     af4:	00000048 	andeq	r0, r0, r8, asr #32
     af8:	01f30004 	mvnseq	r0, r4
     afc:	00489f50 	subeq	r9, r8, r0, asr pc
     b00:	004c0000 	subeq	r0, ip, r0
     b04:	00010000 	andeq	r0, r1, r0
     b08:	00004c50 	andeq	r4, r0, r0, asr ip
     b0c:	00005400 	andeq	r5, r0, r0, lsl #8
     b10:	f3000400 	vshl.u8	d0, d0, d0
     b14:	009f5001 	addseq	r5, pc, r1
	...
     b28:	d4000000 	strle	r0, [r0], #-0
     b2c:	04000004 	streq	r0, [r0], #-4
     b30:	01000005 	tsteq	r0, r5
     b34:	05045000 	streq	r5, [r4, #-0]
     b38:	05300000 	ldreq	r0, [r0, #-0]!
     b3c:	00010000 	andeq	r0, r1, r0
     b40:	00053054 	andeq	r3, r5, r4, asr r0
     b44:	00054800 	andeq	r4, r5, r0, lsl #16
     b48:	50000100 	andpl	r0, r0, r0, lsl #2
     b4c:	00000548 	andeq	r0, r0, r8, asr #10
     b50:	00000550 	andeq	r0, r0, r0, asr r5
     b54:	50540001 	subspl	r0, r4, r1
     b58:	60000005 	andvs	r0, r0, r5
     b5c:	01000005 	tsteq	r0, r5
     b60:	05605000 	strbeq	r5, [r0, #-0]!
     b64:	05800000 	streq	r0, [r0]
     b68:	00010000 	andeq	r0, r1, r0
     b6c:	00000054 	andeq	r0, r0, r4, asr r0
     b70:	00000000 	andeq	r0, r0, r0
     b74:	fc000200 	stc2	2, cr0, [r0], {-0}
     b78:	30000004 	andcc	r0, r0, r4
     b7c:	04000005 	streq	r0, [r0], #-5
     b80:	24404000 	strbcs	r4, [r0], #-0
     b84:	0000009f 	muleq	r0, pc, r0	; <UNPREDICTABLE>
     b88:	00000000 	andeq	r0, r0, r0
     b8c:	08000000 	stmdaeq	r0, {}	; <UNPREDICTABLE>
     b90:	80000000 	andhi	r0, r0, r0
     b94:	01000000 	mrseq	r0, (UNDEF: 0)
     b98:	00005400 	andeq	r5, r0, r0, lsl #8
     b9c:	00000000 	andeq	r0, r0, r0
     ba0:	00020000 	andeq	r0, r2, r0
     ba4:	00080000 	andeq	r0, r8, r0
     ba8:	00200000 	eoreq	r0, r0, r0
     bac:	00020000 	andeq	r0, r2, r0
     bb0:	00209f30 	eoreq	r9, r0, r0, lsr pc
     bb4:	006c0000 	rsbeq	r0, ip, r0
     bb8:	00010000 	andeq	r0, r1, r0
     bbc:	00000057 	andeq	r0, r0, r7, asr r0
     bc0:	00000000 	andeq	r0, r0, r0
     bc4:	3c000000 	stccc	0, cr0, [r0], {-0}
     bc8:	57000000 	strpl	r0, [r0, -r0]
     bcc:	01000000 	mrseq	r0, (UNDEF: 0)
     bd0:	00005200 	andeq	r5, r0, r0, lsl #4
     bd4:	00000000 	andeq	r0, r0, r0
     bd8:	00010000 	andeq	r0, r1, r0
     bdc:	0000003c 	andeq	r0, r0, ip, lsr r0
     be0:	00000050 	andeq	r0, r0, r0, asr r0
     be4:	00520001 	subseq	r0, r2, r1
     be8:	00000000 	andeq	r0, r0, r0
     bec:	03000000 	movweq	r0, #0
     bf0:	3c000000 	stccc	0, cr0, [r0], {-0}
     bf4:	48000000 	stmdami	r0, {}	; <UNPREDICTABLE>
     bf8:	01000000 	mrseq	r0, (UNDEF: 0)
     bfc:	00485300 	subeq	r5, r8, r0, lsl #6
     c00:	00500000 	subseq	r0, r0, r0
     c04:	00020000 	andeq	r0, r2, r0
     c08:	00000070 	andeq	r0, r0, r0, ror r0
	...
     c18:	00000038 	andeq	r0, r0, r8, lsr r0
     c1c:	00000048 	andeq	r0, r0, r8, asr #32
     c20:	00730009 	rsbseq	r0, r3, r9
     c24:	ffffff0c 			; <UNDEFINED> instruction: 0xffffff0c
     c28:	489f1a00 	ldmmi	pc, {r9, fp, ip}	; <UNPREDICTABLE>
     c2c:	4c000000 	stcmi	0, cr0, [r0], {-0}
     c30:	01000000 	mrseq	r0, (UNDEF: 0)
     c34:	004c5300 	subeq	r5, ip, r0, lsl #6
     c38:	00500000 	subseq	r0, r0, r0
     c3c:	000a0000 	andeq	r0, sl, r0
     c40:	0c060070 	stceq	0, cr0, [r6], {112}	; 0x70
     c44:	00ffffff 	ldrshteq	pc, [pc], #255	; <UNPREDICTABLE>
     c48:	00009f1a 	andeq	r9, r0, sl, lsl pc
	...
     c58:	00000080 	andeq	r0, r0, r0, lsl #1
     c5c:	00000088 	andeq	r0, r0, r8, lsl #1
     c60:	88500001 	ldmdahi	r0, {r0}^
     c64:	94000000 	strls	r0, [r0], #-0
     c68:	03000000 	movweq	r0, #0
     c6c:	9f047000 	svcls	0x00047000
     c70:	00000094 	muleq	r0, r4, r0
     c74:	000000a0 	andeq	r0, r0, r0, lsr #1
     c78:	01f30004 	mvnseq	r0, r4
     c7c:	00009f50 	andeq	r9, r0, r0, asr pc
	...
     c8c:	00000084 	andeq	r0, r0, r4, lsl #1
     c90:	00000090 	muleq	r0, r0, r0
     c94:	90530001 	subsls	r0, r3, r1
     c98:	94000000 	strls	r0, [r0], #-0
     c9c:	02000000 	andeq	r0, r0, #0, 0
     ca0:	94007000 	strls	r7, [r0], #-0
     ca4:	a0000000 	andge	r0, r0, r0
     ca8:	05000000 	streq	r0, [r0, #-0]
     cac:	5001f300 	andpl	pc, r1, r0, lsl #6
     cb0:	00001c34 	andeq	r1, r0, r4, lsr ip
     cb4:	00000000 	andeq	r0, r0, r0
     cb8:	00010000 	andeq	r0, r1, r0
     cbc:	00000000 	andeq	r0, r0, r0
     cc0:	0000008c 	andeq	r0, r0, ip, lsl #1
     cc4:	00000090 	muleq	r0, r0, r0
     cc8:	00730009 	rsbseq	r0, r3, r9
     ccc:	ffffff0c 			; <UNDEFINED> instruction: 0xffffff0c
     cd0:	909f1a00 	addsls	r1, pc, r0, lsl #20
     cd4:	94000000 	strls	r0, [r0], #-0
     cd8:	0a000000 	beq	ce0 <__code_start__-0x7320>
     cdc:	06007000 	streq	r7, [r0], -r0
     ce0:	ffffff0c 			; <UNDEFINED> instruction: 0xffffff0c
     ce4:	949f1a00 	ldrls	r1, [pc], #2560	; cec <__code_start__-0x7314>
     ce8:	a0000000 	andge	r0, r0, r0
     cec:	0d000000 	stceq	0, cr0, [r0, #-0]
     cf0:	5001f300 	andpl	pc, r1, r0, lsl #6
     cf4:	0c061c34 	stceq	12, cr1, [r6], {52}	; 0x34
     cf8:	00ffffff 	ldrshteq	pc, [pc], #255	; <UNPREDICTABLE>
     cfc:	00009f1a 	andeq	r9, r0, sl, lsl pc
	...
     d0c:	001c0000 	andseq	r0, ip, r0
     d10:	00010000 	andeq	r0, r1, r0
     d14:	00001c51 	andeq	r1, r0, r1, asr ip
     d18:	00007800 	andeq	r7, r0, r0, lsl #16
     d1c:	f3000400 	vshl.u8	d0, d0, d0
     d20:	009f5101 	addseq	r5, pc, r1, lsl #2
	...
     d30:	58000000 	stmdapl	r0, {}	; <UNPREDICTABLE>
     d34:	01000000 	mrseq	r0, (UNDEF: 0)
     d38:	00585200 	subseq	r5, r8, r0, lsl #4
     d3c:	00780000 	rsbseq	r0, r8, r0
     d40:	00040000 	andeq	r0, r4, r0
     d44:	9f5201f3 	svcls	0x005201f3
	...
     d50:	01000002 	tsteq	r0, r2
     d54:	01000001 	tsteq	r0, r1
     d58:	01000001 	tsteq	r0, r1
     d5c:	00000001 	andeq	r0, r0, r1
     d60:	00380000 	eorseq	r0, r8, r0
     d64:	00010000 	andeq	r0, r1, r0
     d68:	00005450 	andeq	r5, r0, r0, asr r4
     d6c:	00005400 	andeq	r5, r0, r0, lsl #8
     d70:	53000100 	movwpl	r0, #256	; 0x100
     d74:	00000054 	andeq	r0, r0, r4, asr r0
     d78:	0000005c 	andeq	r0, r0, ip, asr r0
     d7c:	01730003 	cmneq	r3, r3
     d80:	00005c9f 	muleq	r0, pc, ip	; <UNPREDICTABLE>
     d84:	00006400 	andeq	r6, r0, r0, lsl #8
     d88:	52000100 	andpl	r0, r0, #0
     d8c:	00000064 	andeq	r0, r0, r4, rrx
     d90:	00000068 	andeq	r0, r0, r8, rrx
     d94:	02730003 	rsbseq	r0, r3, #3, 0
     d98:	0000689f 	muleq	r0, pc, r8	; <UNPREDICTABLE>
     d9c:	00007400 	andeq	r7, r0, r0, lsl #8
     da0:	52000100 	andpl	r0, r0, #0
     da4:	00000074 	andeq	r0, r0, r4, ror r0
     da8:	00000078 	andeq	r0, r0, r8, ror r0
     dac:	01720003 	cmneq	r2, r3
     db0:	0000009f 	muleq	r0, pc, r0	; <UNPREDICTABLE>
     db4:	00000000 	andeq	r0, r0, r0
     db8:	08000000 	stmdaeq	r0, {}	; <UNPREDICTABLE>
     dbc:	78000000 	stmdavc	r0, {}	; <UNPREDICTABLE>
     dc0:	01000000 	mrseq	r0, (UNDEF: 0)
     dc4:	00005400 	andeq	r5, r0, r0, lsl #8
	...
     dd4:	0000002c 	andeq	r0, r0, ip, lsr #32
     dd8:	00000034 	andeq	r0, r0, r4, lsr r0
     ddc:	34500001 	ldrbcc	r0, [r0], #-1
     de0:	48000000 	stmdami	r0, {}	; <UNPREDICTABLE>
     de4:	01000000 	mrseq	r0, (UNDEF: 0)
     de8:	00485400 	subeq	r5, r8, r0, lsl #8
     dec:	00580000 	subseq	r0, r8, r0
     df0:	00010000 	andeq	r0, r1, r0
     df4:	00000050 	andeq	r0, r0, r0, asr r0
	...
     e00:	00000101 	andeq	r0, r0, r1, lsl #2
     e04:	00000000 	andeq	r0, r0, r0
     e08:	00000c00 	andeq	r0, r0, r0, lsl #24
     e0c:	50000100 	andpl	r0, r0, r0, lsl #2
     e10:	0000000c 	andeq	r0, r0, ip
     e14:	00000020 	andeq	r0, r0, r0, lsr #32
     e18:	20540001 	subscs	r0, r4, r1
     e1c:	24000000 	strcs	r0, [r0], #-0
     e20:	03000000 	movweq	r0, #0
     e24:	9f017400 	svcls	0x00017400
     e28:	00000024 	andeq	r0, r0, r4, lsr #32
     e2c:	00000038 	andeq	r0, r0, r8, lsr r0
     e30:	00540001 	subseq	r0, r4, r1
	...
     e44:	00038800 	andeq	r8, r3, r0, lsl #16
     e48:	00039400 	andeq	r9, r3, r0, lsl #8
     e4c:	50000100 	andpl	r0, r0, r0, lsl #2
     e50:	00000394 	muleq	r0, r4, r3
     e54:	000003d0 	ldrdeq	r0, [r0], -r0	; <UNPREDICTABLE>
     e58:	d05b0001 	subsle	r0, fp, r1
     e5c:	20000003 	andcs	r0, r0, r3
     e60:	04000009 	streq	r0, [r0], #-9
     e64:	5001f300 	andpl	pc, r1, r0, lsl #6
     e68:	0009209f 	muleq	r9, pc, r0	; <UNPREDICTABLE>
     e6c:	00092800 	andeq	r2, r9, r0, lsl #16
     e70:	5b000100 	blpl	1278 <__code_start__-0x6d88>
     e74:	00000928 	andeq	r0, r0, r8, lsr #18
     e78:	000009b4 			; <UNDEFINED> instruction: 0x000009b4
     e7c:	01f30004 	mvnseq	r0, r4
     e80:	00009f50 	andeq	r9, r0, r0, asr pc
	...
     e90:	03880000 	orreq	r0, r8, #0, 0
     e94:	03d00000 	bicseq	r0, r0, #0, 0
     e98:	00010000 	andeq	r0, r1, r0
     e9c:	0003d051 	andeq	sp, r3, r1, asr r0
     ea0:	00092000 	andeq	r2, r9, r0
     ea4:	f3000400 	vshl.u8	d0, d0, d0
     ea8:	209f5101 	addscs	r5, pc, r1, lsl #2
     eac:	28000009 	stmdacs	r0, {r0, r3}
     eb0:	01000009 	tsteq	r0, r9
     eb4:	09285100 	stmdbeq	r8!, {r8, ip, lr}
     eb8:	09b40000 	ldmibeq	r4!, {}	; <UNPREDICTABLE>
     ebc:	00040000 	andeq	r0, r4, r0
     ec0:	9f5101f3 	svcls	0x005101f3
	...
     ed0:	01000000 	mrseq	r0, (UNDEF: 0)
     ed4:	00010000 	andeq	r0, r1, r0
	...
     ee4:	00000388 	andeq	r0, r0, r8, lsl #7
     ee8:	000003d0 	ldrdeq	r0, [r0], -r0	; <UNPREDICTABLE>
     eec:	d0520001 	subsle	r0, r2, r1
     ef0:	00000003 	andeq	r0, r0, r3
     ef4:	01000004 	tsteq	r0, r4
     ef8:	04145600 	ldreq	r5, [r4], #-1536	; 0xfffffa00
     efc:	04240000 	strteq	r0, [r4], #-0
     f00:	00010000 	andeq	r0, r1, r0
     f04:	00042456 	andeq	r2, r4, r6, asr r4
     f08:	00042800 	andeq	r2, r4, r0, lsl #16
     f0c:	76000300 	strvc	r0, [r0], -r0, lsl #6
     f10:	04a89f7f 	strteq	r9, [r8], #3967	; 0xf7f
     f14:	04ac0000 	strteq	r0, [ip], #0
     f18:	00010000 	andeq	r0, r1, r0
     f1c:	0004e056 	andeq	lr, r4, r6, asr r0
     f20:	00050400 	andeq	r0, r5, r0, lsl #8
     f24:	56000100 	strpl	r0, [r0], -r0, lsl #2
     f28:	0000057c 	andeq	r0, r0, ip, ror r5
     f2c:	00000588 	andeq	r0, r0, r8, lsl #11
     f30:	88530001 	ldmdahi	r3, {r0}^
     f34:	d0000005 	andle	r0, r0, r5
     f38:	03000005 	movweq	r0, #5
     f3c:	7dcc9100 	stfvcp	f1, [ip]
     f40:	00000800 	andeq	r0, r0, r0, lsl #16
     f44:	0000080f 	andeq	r0, r0, pc, lsl #16
     f48:	0f530001 	svceq	0x00530001
     f4c:	88000008 	stmdahi	r0, {r3}
     f50:	03000008 	movweq	r0, #8
     f54:	7dcc9100 	stfvcp	f1, [ip]
     f58:	00000920 	andeq	r0, r0, r0, lsr #18
     f5c:	00000928 	andeq	r0, r0, r8, lsr #18
     f60:	48520001 	ldmdami	r2, {r0}^
     f64:	64000009 	strvs	r0, [r0], #-9
     f68:	03000009 	movweq	r0, #9
     f6c:	7dcc9100 	stfvcp	f1, [ip]
	...
     f80:	00010100 	andeq	r0, r1, r0, lsl #2
     f84:	00010100 	andeq	r0, r1, r0, lsl #2
     f88:	02000000 	andeq	r0, r0, #0, 0
     f8c:	02000002 	andeq	r0, r0, #2, 0
     f90:	01000002 	tsteq	r0, r2
     f94:	02000001 	andeq	r0, r0, #1, 0
     f98:	01000002 	tsteq	r0, r2
     f9c:	00000001 	andeq	r0, r0, r1
     fa0:	00000000 	andeq	r0, r0, r0
     fa4:	03880000 	orreq	r0, r8, #0, 0
     fa8:	03ac0000 			; <UNDEFINED> instruction: 0x03ac0000
     fac:	00010000 	andeq	r0, r1, r0
     fb0:	0003ac53 	andeq	sl, r3, r3, asr ip
     fb4:	0003c000 	andeq	ip, r3, r0
     fb8:	53000300 	movwpl	r0, #768	; 0x300
     fbc:	03d00493 	bicseq	r0, r0, #-1828716544	; 0x93000000
     fc0:	03e80000 	mvneq	r0, #0, 0
     fc4:	00030000 	andeq	r0, r3, r0
     fc8:	e8049358 	stmda	r4, {r3, r4, r6, r8, r9, ip, pc}
     fcc:	ac000003 	stcge	0, cr0, [r0], {3}
     fd0:	03000004 	movweq	r0, #4
     fd4:	04935800 	ldreq	r5, [r3], #2048	; 0x800
     fd8:	000004c0 	andeq	r0, r0, r0, asr #9
     fdc:	000004c0 	andeq	r0, r0, r0, asr #9
     fe0:	93580003 	cmpls	r8, #3, 0
     fe4:	0004c004 	andeq	ip, r4, r4
     fe8:	0004cc00 	andeq	ip, r4, r0, lsl #24
     fec:	78000500 	stmdavc	r0, {r8, sl}
     ff0:	04939f04 	ldreq	r9, [r3], #3844	; 0xf04
     ff4:	000004cc 	andeq	r0, r0, ip, asr #9
     ff8:	000004e0 	andeq	r0, r0, r0, ror #9
     ffc:	93580003 	cmpls	r8, #3, 0
    1000:	0004e004 	andeq	lr, r4, r4
    1004:	00053800 	andeq	r3, r5, r0, lsl #16
    1008:	58000300 	stmdapl	r0, {r8, r9}
    100c:	05380493 	ldreq	r0, [r8, #-1171]!	; 0xfffffb6d
    1010:	053c0000 	ldreq	r0, [ip, #-0]!
    1014:	00050000 	andeq	r0, r5, r0
    1018:	939f7978 	orrsls	r7, pc, #120, 18	; 0x1e0000
    101c:	0005d004 	andeq	sp, r5, r4
    1020:	0005d000 	andeq	sp, r5, r0
    1024:	58000300 	stmdapl	r0, {r8, r9}
    1028:	05d00493 	ldrbeq	r0, [r0, #1171]	; 0x493
    102c:	05d40000 	ldrbeq	r0, [r4]
    1030:	00050000 	andeq	r0, r5, r0
    1034:	939f0478 	orrsls	r0, pc, #120, 8	; 0x78000000
    1038:	0005f404 	andeq	pc, r5, r4, lsl #8
    103c:	0005f400 	andeq	pc, r5, r0, lsl #8
    1040:	58000300 	stmdapl	r0, {r8, r9}
    1044:	05f40493 	ldrbeq	r0, [r4, #1171]!	; 0x493
    1048:	05fc0000 	ldrbeq	r0, [ip, #0]!
    104c:	00050000 	andeq	r0, r5, r0
    1050:	939f0478 	orrsls	r0, pc, #120, 8	; 0x78000000
    1054:	0005fc04 	andeq	pc, r5, r4, lsl #24
    1058:	0005fc00 	andeq	pc, r5, r0, lsl #24
    105c:	58000300 	stmdapl	r0, {r8, r9}
    1060:	05fc0493 	ldrbeq	r0, [ip, #1171]!	; 0x493
    1064:	06000000 	streq	r0, [r0], -r0
    1068:	00050000 	andeq	r0, r5, r0
    106c:	939f0478 	orrsls	r0, pc, #120, 8	; 0x78000000
    1070:	00060004 	andeq	r0, r6, r4
    1074:	00070000 	andeq	r0, r7, r0
    1078:	58000300 	stmdapl	r0, {r8, r9}
    107c:	07000493 			; <UNDEFINED> instruction: 0x07000493
    1080:	070c0000 	streq	r0, [ip, -r0]
    1084:	00050000 	andeq	r0, r5, r0
    1088:	939f0478 	orrsls	r0, pc, #120, 8	; 0x78000000
    108c:	00070c04 	andeq	r0, r7, r4, lsl #24
    1090:	0007f800 	andeq	pc, r7, r0, lsl #16
    1094:	58000300 	stmdapl	r0, {r8, r9}
    1098:	07f80493 			; <UNDEFINED> instruction: 0x07f80493
    109c:	07fc0000 	ldrbeq	r0, [ip, r0]!
    10a0:	00050000 	andeq	r0, r5, r0
    10a4:	939f0478 	orrsls	r0, pc, #120, 8	; 0x78000000
    10a8:	0007fc04 	andeq	pc, r7, r4, lsl #24
    10ac:	00080000 	andeq	r0, r8, r0
    10b0:	58000300 	stmdapl	r0, {r8, r9}
    10b4:	08880493 	stmeq	r8, {r0, r1, r4, r7, sl}
    10b8:	09200000 	stmdbeq	r0!, {}	; <UNPREDICTABLE>
    10bc:	00030000 	andeq	r0, r3, r0
    10c0:	20049358 	andcs	r9, r4, r8, asr r3
    10c4:	28000009 	stmdacs	r0, {r0, r3}
    10c8:	01000009 	tsteq	r0, r9
    10cc:	09645300 	stmdbeq	r4!, {r8, r9, ip, lr}^
    10d0:	09b40000 	ldmibeq	r4!, {}	; <UNPREDICTABLE>
    10d4:	00030000 	andeq	r0, r3, r0
    10d8:	00049358 	andeq	r9, r4, r8, asr r3
    10dc:	00000000 	andeq	r0, r0, r0
    10e0:	01000000 	mrseq	r0, (UNDEF: 0)
	...
    10ec:	00000202 	andeq	r0, r0, r2, lsl #4
    10f0:	01010100 	mrseq	r0, (UNDEF: 17)
    10f4:	00000000 	andeq	r0, r0, r0
    10f8:	0003ac00 	andeq	sl, r3, r0, lsl #24
    10fc:	0003d000 	andeq	sp, r3, r0
    1100:	5b000100 	blpl	1508 <__code_start__-0x6af8>
    1104:	000003d0 	ldrdeq	r0, [r0], -r0	; <UNPREDICTABLE>
    1108:	000003d4 	ldrdeq	r0, [r0], -r4
    110c:	d4540001 	ldrble	r0, [r4], #-1
    1110:	d8000003 	stmdale	r0, {r0, r1}
    1114:	03000003 	movweq	r0, #3
    1118:	9f7f7400 	svcls	0x007f7400
    111c:	000003d8 	ldrdeq	r0, [r0], -r8
    1120:	000003fc 	strdeq	r0, [r0], -ip
    1124:	a8540001 	ldmdage	r4, {r0}^
    1128:	ac000004 	stcge	0, cr0, [r0], {4}
    112c:	01000004 	tsteq	r0, r4
    1130:	04ac5400 	strteq	r5, [ip], #1024	; 0x400
    1134:	04b40000 	ldrteq	r0, [r4], #0
    1138:	00030000 	andeq	r0, r3, r0
    113c:	b49f0174 	ldrlt	r0, [pc], #372	; 1144 <__code_start__-0x6ebc>
    1140:	c0000004 	andgt	r0, r0, r4
    1144:	01000004 	tsteq	r0, r4
    1148:	04e45400 	strbteq	r5, [r4], #1024	; 0x400
    114c:	04f40000 	ldrbteq	r0, [r4], #0
    1150:	00010000 	andeq	r0, r1, r0
    1154:	0004f454 	andeq	pc, r4, r4, asr r4	; <UNPREDICTABLE>
    1158:	0004f800 	andeq	pc, r4, r0, lsl #16
    115c:	74000300 	strvc	r0, [r0], #-768	; 0xfffffd00
    1160:	04f89f01 	ldrbteq	r9, [r8], #3841	; 0xf01
    1164:	05040000 	streq	r0, [r4, #-0]
    1168:	00010000 	andeq	r0, r1, r0
    116c:	00092054 	andeq	r2, r9, r4, asr r0
    1170:	00092800 	andeq	r2, r9, r0, lsl #16
    1174:	5b000100 	blpl	157c <__code_start__-0x6a84>
	...
    1180:	03ac0001 			; <UNDEFINED> instruction: 0x03ac0001
    1184:	09b40000 	ldmibeq	r4!, {}	; <UNPREDICTABLE>
    1188:	00010000 	andeq	r0, r1, r0
    118c:	00000057 	andeq	r0, r0, r7, asr r0
    1190:	00000000 	andeq	r0, r0, r0
    1194:	00000200 	andeq	r0, r0, r0, lsl #4
    1198:	7c000000 	stcvc	0, cr0, [r0], {-0}
    119c:	d0000005 	andle	r0, r0, r5
    11a0:	01000005 	tsteq	r0, r5
    11a4:	08005b00 	stmdaeq	r0, {r8, r9, fp, ip, lr}
    11a8:	08880000 	stmeq	r8, {}	; <UNPREDICTABLE>
    11ac:	00010000 	andeq	r0, r1, r0
    11b0:	0009485b 	andeq	r4, r9, fp, asr r8
    11b4:	00096400 	andeq	r6, r9, r0, lsl #8
    11b8:	5b000100 	blpl	15c0 <__code_start__-0x6a40>
	...
    11c4:	00000003 	andeq	r0, r0, r3
    11c8:	057c0000 	ldrbeq	r0, [ip, #-0]!
    11cc:	05d00000 	ldrbeq	r0, [r0]
    11d0:	00010000 	andeq	r0, r1, r0
    11d4:	00080059 	andeq	r0, r8, r9, asr r0
    11d8:	00088800 	andeq	r8, r8, r0, lsl #16
    11dc:	59000100 	stmdbpl	r0, {r8}
    11e0:	00000948 	andeq	r0, r0, r8, asr #18
    11e4:	00000964 	andeq	r0, r0, r4, ror #18
    11e8:	00590001 	subseq	r0, r9, r1
    11ec:	00000000 	andeq	r0, r0, r0
    11f0:	04000000 	streq	r0, [r0], #-0
    11f4:	00000000 	andeq	r0, r0, r0
    11f8:	ac000000 	stcge	0, cr0, [r0], {-0}
    11fc:	d0000003 	andle	r0, r0, r3
    1200:	01000003 	tsteq	r0, r3
    1204:	03d05200 	bicseq	r5, r0, #0, 4
    1208:	09200000 	stmdbeq	r0!, {}	; <UNPREDICTABLE>
    120c:	00040000 	andeq	r0, r4, r0
    1210:	9f5201f3 	svcls	0x005201f3
    1214:	00000920 	andeq	r0, r0, r0, lsr #18
    1218:	00000928 	andeq	r0, r0, r8, lsr #18
    121c:	28520001 	ldmdacs	r2, {r0}^
    1220:	b4000009 	strlt	r0, [r0], #-9
    1224:	04000009 	streq	r0, [r0], #-9
    1228:	5201f300 	andpl	pc, r1, #0, 6
    122c:	0000009f 	muleq	r0, pc, r0	; <UNPREDICTABLE>
    1230:	00000000 	andeq	r0, r0, r0
    1234:	01010000 	mrseq	r0, (UNDEF: 1)
    1238:	00000000 	andeq	r0, r0, r0
    123c:	00000100 	andeq	r0, r0, r0, lsl #2
    1240:	0004e000 	andeq	lr, r4, r0
    1244:	0004e000 	andeq	lr, r4, r0
    1248:	50000100 	andpl	r0, r0, r0, lsl #2
    124c:	000004e0 	andeq	r0, r0, r0, ror #9
    1250:	000004e8 	andeq	r0, r0, r8, ror #9
    1254:	b8550001 	ldmdalt	r5, {r0}^
    1258:	d0000005 	andle	r0, r0, r5
    125c:	01000005 	tsteq	r0, r5
    1260:	05f05500 	ldrbeq	r5, [r0, #1280]!	; 0x500
    1264:	05f40000 	ldrbeq	r0, [r4, #0]!
    1268:	00010000 	andeq	r0, r1, r0
    126c:	0007f450 	andeq	pc, r7, r0, asr r4	; <UNPREDICTABLE>
    1270:	0007f800 	andeq	pc, r7, r0, lsl #16
    1274:	55000100 	strpl	r0, [r0, #-256]	; 0xffffff00
    1278:	00000850 	andeq	r0, r0, r0, asr r8
    127c:	00000888 	andeq	r0, r0, r8, lsl #17
    1280:	00550001 	subseq	r0, r5, r1
    1284:	00000000 	andeq	r0, r0, r0
    1288:	02000000 	andeq	r0, r0, #0, 0
    128c:	00000000 	andeq	r0, r0, r0
    1290:	14000000 	strne	r0, [r0], #-0
    1294:	18000004 	stmdane	r0, {r2}
    1298:	02000004 	andeq	r0, r0, #4, 0
    129c:	189f3000 	ldmne	pc, {ip, sp}	; <UNPREDICTABLE>
    12a0:	1c000004 	stcne	0, cr0, [r0], {4}
    12a4:	01000004 	tsteq	r0, r4
    12a8:	04285500 	strteq	r5, [r8], #-1280	; 0xfffffb00
    12ac:	043c0000 	ldrteq	r0, [ip], #-0
    12b0:	00010000 	andeq	r0, r1, r0
    12b4:	00092855 	andeq	r2, r9, r5, asr r8
    12b8:	00093000 	andeq	r3, r9, r0
    12bc:	55000100 	strpl	r0, [r0, #-256]	; 0xffffff00
	...
    12c8:	00000001 	andeq	r0, r0, r1
	...
    12d4:	00000504 	andeq	r0, r0, r4, lsl #10
    12d8:	00000584 	andeq	r0, r0, r4, lsl #11
    12dc:	84560001 	ldrbhi	r0, [r6], #-1
    12e0:	88000005 	stmdahi	r0, {r0, r2}
    12e4:	03000005 	movweq	r0, #5
    12e8:	9f7e7300 	svcls	0x007e7300
    12ec:	00000588 	andeq	r0, r0, r8, lsl #11
    12f0:	000005d0 	ldrdeq	r0, [r0], -r0	; <UNPREDICTABLE>
    12f4:	cc910007 	ldcgt	0, cr0, [r1], {7}
    12f8:	1c32067d 	ldcne	6, cr0, [r2], #-500	; 0xfffffe0c
    12fc:	0008009f 	muleq	r8, pc, r0	; <UNPREDICTABLE>
    1300:	00081c00 	andeq	r1, r8, r0, lsl #24
    1304:	56000100 	strpl	r0, [r0], -r0, lsl #2
    1308:	0000081c 	andeq	r0, r0, ip, lsl r8
    130c:	00000888 	andeq	r0, r0, r8, lsl #17
    1310:	cc910007 	ldcgt	0, cr0, [r1], {7}
    1314:	1c32067d 	ldcne	6, cr0, [r2], #-500	; 0xfffffe0c
    1318:	0009489f 	muleq	r9, pc, r8	; <UNPREDICTABLE>
    131c:	0009b400 	andeq	fp, r9, r0, lsl #8
    1320:	56000100 	strpl	r0, [r0], -r0, lsl #2
	...
    132c:	04020604 	streq	r0, [r2], #-1540	; 0xfffff9fc
    1330:	00000414 	andeq	r0, r0, r4, lsl r4
    1334:	00000414 	andeq	r0, r0, r4, lsl r4
    1338:	00720006 	rsbseq	r0, r2, r6
    133c:	9f1aff08 	svcls	0x001aff08
    1340:	00000428 	andeq	r0, r0, r8, lsr #8
    1344:	00000428 	andeq	r0, r0, r8, lsr #8
    1348:	00720006 	rsbseq	r0, r2, r6
    134c:	9f1aff08 	svcls	0x001aff08
	...
    1358:	00000002 	andeq	r0, r0, r2
    135c:	05fc0000 	ldrbeq	r0, [ip, #0]!
    1360:	07000000 	streq	r0, [r0, -r0]
    1364:	00030000 	andeq	r0, r3, r0
    1368:	a89f8008 	ldmge	pc, {r3, pc}	; <UNPREDICTABLE>
    136c:	bc000008 	stclt	0, cr0, [r0], {8}
    1370:	03000008 	movweq	r0, #8
    1374:	9f800800 	svcls	0x00800800
    1378:	00000910 	andeq	r0, r0, r0, lsl r9
    137c:	00000920 	andeq	r0, r0, r0, lsr #18
    1380:	80080003 	andhi	r0, r8, r3
    1384:	0000009f 	muleq	r0, pc, r0	; <UNPREDICTABLE>
    1388:	00000000 	andeq	r0, r0, r0
    138c:	00000100 	andeq	r0, r0, r0, lsl #2
    1390:	fc000000 	stc2	0, cr0, [r0], {-0}
    1394:	00000005 	andeq	r0, r0, r5
    1398:	02000007 	andeq	r0, r0, #7, 0
    139c:	a89f3000 	ldmge	pc, {ip, sp}	; <UNPREDICTABLE>
    13a0:	bc000008 	stclt	0, cr0, [r0], {8}
    13a4:	02000008 	andeq	r0, r0, #8, 0
    13a8:	109f3000 	addsne	r3, pc, r0
    13ac:	20000009 	andcs	r0, r0, r9
    13b0:	02000009 	andeq	r0, r0, #9, 0
    13b4:	009f3000 	addseq	r3, pc, r0
    13b8:	00000000 	andeq	r0, r0, r0
    13bc:	01000000 	mrseq	r0, (UNDEF: 0)
    13c0:	00000000 	andeq	r0, r0, r0
    13c4:	0005fc00 	andeq	pc, r5, r0, lsl #24
    13c8:	0006e000 	andeq	lr, r6, r0
    13cc:	55000100 	strpl	r0, [r0, #-256]	; 0xffffff00
    13d0:	000008a8 	andeq	r0, r0, r8, lsr #17
    13d4:	000008bc 			; <UNDEFINED> instruction: 0x000008bc
    13d8:	10550001 	subsne	r0, r5, r1
    13dc:	20000009 	andcs	r0, r0, r9
    13e0:	01000009 	tsteq	r0, r9
    13e4:	00005500 	andeq	r5, r0, r0, lsl #10
    13e8:	00000000 	andeq	r0, r0, r0
    13ec:	00010000 	andeq	r0, r1, r0
    13f0:	00000000 	andeq	r0, r0, r0
    13f4:	05fc0000 	ldrbeq	r0, [ip, #0]!
    13f8:	06e00000 	strbteq	r0, [r0], r0
    13fc:	00040000 	andeq	r0, r4, r0
    1400:	9f7dd091 	svcls	0x007dd091
    1404:	000006e0 	andeq	r0, r0, r0, ror #13
    1408:	00000700 	andeq	r0, r0, r0, lsl #14
    140c:	a8550001 	ldmdage	r5, {r0}^
    1410:	bc000008 	stclt	0, cr0, [r0], {8}
    1414:	04000008 	streq	r0, [r0], #-8
    1418:	7dd09100 	ldfvcp	f1, [r0]
    141c:	0009109f 	muleq	r9, pc, r0	; <UNPREDICTABLE>
    1420:	00092000 	andeq	r2, r9, r0
    1424:	91000400 	tstls	r0, r0, lsl #8
    1428:	009f7dd0 			; <UNDEFINED> instruction: 0x009f7dd0
    142c:	00000000 	andeq	r0, r0, r0
    1430:	01000000 	mrseq	r0, (UNDEF: 0)
    1434:	00000000 	andeq	r0, r0, r0
    1438:	0005fc00 	andeq	pc, r5, r0, lsl #24
    143c:	00070000 	andeq	r0, r7, r0
    1440:	38000200 	stmdacc	r0, {r9}
    1444:	0008a89f 	muleq	r8, pc, r8	; <UNPREDICTABLE>
    1448:	0008bc00 	andeq	fp, r8, r0, lsl #24
    144c:	38000200 	stmdacc	r0, {r9}
    1450:	0009109f 	muleq	r9, pc, r0	; <UNPREDICTABLE>
    1454:	00092000 	andeq	r2, r9, r0
    1458:	38000200 	stmdacc	r0, {r9}
    145c:	0000009f 	muleq	r0, pc, r0	; <UNPREDICTABLE>
    1460:	00000000 	andeq	r0, r0, r0
    1464:	07070400 	streq	r0, [r7, -r0, lsl #8]
	...
    1470:	fc000000 	stc2	0, cr0, [r0], {-0}
    1474:	fc000005 	stc2	0, cr0, [r0], {5}
    1478:	04000005 	streq	r0, [r0], #-5
    147c:	7ed09100 	atnvcs	f1, f0
    1480:	0005fc9f 	muleq	r5, pc, ip	; <UNPREDICTABLE>
    1484:	00067800 	andeq	r7, r6, r0, lsl #16
    1488:	91000400 	tstls	r0, r0, lsl #8
    148c:	789f7ed1 	ldmvc	pc, {r0, r4, r6, r7, r9, sl, fp, ip, sp, lr}	; <UNPREDICTABLE>
    1490:	d4000006 	strle	r0, [r0], #-6
    1494:	01000006 	tsteq	r0, r6
    1498:	06d45c00 	ldrbeq	r5, [r4], r0, lsl #24
    149c:	07000000 	streq	r0, [r0, -r0]
    14a0:	00040000 	andeq	r0, r4, r0
    14a4:	9f7ed191 	svcls	0x007ed191
    14a8:	000008a8 	andeq	r0, r0, r8, lsr #17
    14ac:	000008bc 			; <UNDEFINED> instruction: 0x000008bc
    14b0:	d1910004 	orrsle	r0, r1, r4
    14b4:	09109f7e 	ldmdbeq	r0, {r1, r2, r3, r4, r5, r6, r8, r9, sl, fp, ip, pc}
    14b8:	09140000 	ldmdbeq	r4, {}	; <UNPREDICTABLE>
    14bc:	00040000 	andeq	r0, r4, r0
    14c0:	9f7ed191 	svcls	0x007ed191
    14c4:	00000914 	andeq	r0, r0, r4, lsl r9
    14c8:	00000920 	andeq	r0, r0, r0, lsr #18
    14cc:	005c0001 	subseq	r0, ip, r1
    14d0:	00000000 	andeq	r0, r0, r0
    14d4:	04000000 	streq	r0, [r0], #-0
    14d8:	00010001 	andeq	r0, r1, r1
    14dc:	00060800 	andeq	r0, r6, r0, lsl #16
    14e0:	0006d000 	andeq	sp, r6, r0
    14e4:	55000100 	strpl	r0, [r0, #-256]	; 0xffffff00
    14e8:	000008a8 	andeq	r0, r0, r8, lsr #17
    14ec:	000008b8 			; <UNDEFINED> instruction: 0x000008b8
    14f0:	10550001 	subsne	r0, r5, r1
    14f4:	20000009 	andcs	r0, r0, r9
    14f8:	01000009 	tsteq	r0, r9
    14fc:	00005500 	andeq	r5, r0, r0, lsl #10
    1500:	00000000 	andeq	r0, r0, r0
    1504:	00040000 	andeq	r0, r4, r0
    1508:	01000000 	mrseq	r0, (UNDEF: 0)
    150c:	01000000 	mrseq	r0, (UNDEF: 0)
    1510:	06080000 	streq	r0, [r8], -r0
    1514:	06b00000 	ldrteq	r0, [r0], r0
    1518:	00040000 	andeq	r0, r4, r0
    151c:	9f7ed091 	svcls	0x007ed091
    1520:	000006b0 			; <UNDEFINED> instruction: 0x000006b0
    1524:	000006c8 	andeq	r0, r0, r8, asr #13
    1528:	c8500001 	ldmdagt	r0, {r0}^
    152c:	d0000006 	andle	r0, r0, r6
    1530:	04000006 	streq	r0, [r0], #-6
    1534:	7ed09100 	atnvcs	f1, f0
    1538:	0008a89f 	muleq	r8, pc, r8	; <UNPREDICTABLE>
    153c:	0008b000 	andeq	fp, r8, r0
    1540:	91000400 	tstls	r0, r0, lsl #8
    1544:	b09f7ed0 			; <UNDEFINED> instruction: 0xb09f7ed0
    1548:	b8000008 	stmdalt	r0, {r3}
    154c:	01000008 	tsteq	r0, r8
    1550:	09105300 	ldmdbeq	r0, {r8, r9, ip, lr}
    1554:	09200000 	stmdbeq	r0!, {}	; <UNPREDICTABLE>
    1558:	00040000 	andeq	r0, r4, r0
    155c:	9f7ed091 	svcls	0x007ed091
	...
    1568:	01000004 	tsteq	r0, r4
    156c:	03010101 	movweq	r0, #4353	; 0x1101
    1570:	01000203 	tsteq	r0, r3, lsl #4
    1574:	00000000 	andeq	r0, r0, r0
    1578:	00000608 	andeq	r0, r0, r8, lsl #12
    157c:	00000624 	andeq	r0, r0, r4, lsr #12
    1580:	d1910004 	orrsle	r0, r1, r4
    1584:	06849f7e 			; <UNDEFINED> instruction: 0x06849f7e
    1588:	06840000 	streq	r0, [r4], r0
    158c:	00010000 	andeq	r0, r1, r0
    1590:	00068450 	andeq	r8, r6, r0, asr r4
    1594:	00069800 	andeq	r9, r6, r0, lsl #16
    1598:	70000300 	andvc	r0, r0, r0, lsl #6
    159c:	06989f01 	ldreq	r9, [r8], r1, lsl #30
    15a0:	06a40000 	strteq	r0, [r4], r0
    15a4:	00030000 	andeq	r0, r3, r0
    15a8:	a49f0270 	ldrge	r0, [pc], #624	; 15b0 <__code_start__-0x6a50>
    15ac:	a8000006 	stmdage	r0, {r1, r2}
    15b0:	03000006 	movweq	r0, #6
    15b4:	9f037000 	svcls	0x00037000
    15b8:	000008a8 	andeq	r0, r0, r8, lsr #17
    15bc:	000008b8 			; <UNDEFINED> instruction: 0x000008b8
    15c0:	d1910004 	orrsle	r0, r1, r4
    15c4:	09109f7e 	ldmdbeq	r0, {r1, r2, r3, r4, r5, r6, r8, r9, sl, fp, ip, pc}
    15c8:	09140000 	ldmdbeq	r4, {}	; <UNPREDICTABLE>
    15cc:	00040000 	andeq	r0, r4, r0
    15d0:	9f7ed191 	svcls	0x007ed191
    15d4:	00000914 	andeq	r0, r0, r4, lsl r9
    15d8:	00000920 	andeq	r0, r0, r0, lsr #18
    15dc:	005c0001 	subseq	r0, ip, r1
    15e0:	00000000 	andeq	r0, r0, r0
    15e4:	06000000 	streq	r0, [r0], -r0
    15e8:	01010000 	mrseq	r0, (UNDEF: 1)
    15ec:	01010101 	tsteq	r1, r1, lsl #2
    15f0:	00010002 	andeq	r0, r1, r2
    15f4:	00060800 	andeq	r0, r6, r0, lsl #16
    15f8:	00062400 	andeq	r2, r6, r0, lsl #8
    15fc:	31000200 	mrscc	r0, R8_usr
    1600:	0006849f 	muleq	r6, pc, r4	; <UNPREDICTABLE>
    1604:	00069400 	andeq	r9, r6, r0, lsl #8
    1608:	52000100 	andpl	r0, r0, #0
    160c:	00000694 	muleq	r0, r4, r6
    1610:	000006a4 	andeq	r0, r0, r4, lsr #13
    1614:	a4590001 	ldrbge	r0, [r9], #-1
    1618:	a8000006 	stmdage	r0, {r1, r2}
    161c:	01000006 	tsteq	r0, r6
    1620:	06a85200 	strteq	r5, [r8], r0, lsl #4
    1624:	06a80000 	strteq	r0, [r8], r0
    1628:	00030000 	andeq	r0, r3, r0
    162c:	a89f0172 	ldmge	pc, {r1, r4, r5, r6, r8}	; <UNPREDICTABLE>
    1630:	b8000008 	stmdalt	r0, {r3}
    1634:	02000008 	andeq	r0, r0, #8, 0
    1638:	109f3100 	addsne	r3, pc, r0, lsl #2
    163c:	20000009 	andcs	r0, r0, r9
    1640:	02000009 	andeq	r0, r0, #9, 0
    1644:	009f3100 	addseq	r3, pc, r0, lsl #2
    1648:	00000000 	andeq	r0, r0, r0
    164c:	01000000 	mrseq	r0, (UNDEF: 0)
    1650:	01000606 	tsteq	r0, r6, lsl #12
    1654:	0006d000 	andeq	sp, r6, r0
    1658:	0006d000 	andeq	sp, r6, r0
    165c:	91000400 	tstls	r0, r0, lsl #8
    1660:	d09f7ed0 			; <UNDEFINED> instruction: 0xd09f7ed0
    1664:	00000006 	andeq	r0, r0, r6
    1668:	01000007 	tsteq	r0, r7
    166c:	08b85000 	ldmeq	r8!, {ip, lr}
    1670:	08bc0000 	ldmeq	ip!, {}	; <UNPREDICTABLE>
    1674:	00010000 	andeq	r0, r1, r0
    1678:	00000053 	andeq	r0, r0, r3, asr r0
    167c:	00000000 	andeq	r0, r0, r0
    1680:	00080100 	andeq	r0, r8, r0, lsl #2
    1684:	01010000 	mrseq	r0, (UNDEF: 1)
    1688:	d0070100 	andle	r0, r7, r0, lsl #2
    168c:	d0000006 	andle	r0, r0, r6
    1690:	06000006 	streq	r0, [r0], -r6
    1694:	71007c00 	tstvc	r0, r0, lsl #24
    1698:	e49f2200 	ldr	r2, [pc], #512	; 16a0 <__code_start__-0x6960>
    169c:	e8000006 	stmda	r0, {r1, r2}
    16a0:	03000006 	movweq	r0, #6
    16a4:	9f7f7300 	svcls	0x007f7300
    16a8:	000006e8 	andeq	r0, r0, r8, ror #13
    16ac:	000006f0 	strdeq	r0, [r0], -r0	; <UNPREDICTABLE>
    16b0:	f0530001 			; <UNDEFINED> instruction: 0xf0530001
    16b4:	f8000006 			; <UNDEFINED> instruction: 0xf8000006
    16b8:	03000006 	movweq	r0, #6
    16bc:	9f7f7300 	svcls	0x007f7300
    16c0:	000008b8 			; <UNDEFINED> instruction: 0x000008b8
    16c4:	000008b8 			; <UNDEFINED> instruction: 0x000008b8
    16c8:	d1910004 	orrsle	r0, r1, r4
    16cc:	00009f7e 	andeq	r9, r0, lr, ror pc
    16d0:	00000000 	andeq	r0, r0, r0
    16d4:	00010000 	andeq	r0, r1, r0
    16d8:	06d00001 	ldrbeq	r0, [r0], r1
    16dc:	07000000 	streq	r0, [r0, -r0]
    16e0:	00030000 	andeq	r0, r3, r0
    16e4:	b89f8008 	ldmlt	pc, {r3, pc}	; <UNPREDICTABLE>
    16e8:	bc000008 	stclt	0, cr0, [r0], {8}
    16ec:	03000008 	movweq	r0, #8
    16f0:	9f800800 	svcls	0x00800800
	...
    16fc:	00000001 	andeq	r0, r0, r1
    1700:	00010100 	andeq	r0, r1, r0, lsl #2
    1704:	01020000 	mrseq	r0, (UNDEF: 2)
    1708:	06d00001 	ldrbeq	r0, [r0], r1
    170c:	06e00000 	strbteq	r0, [r0], r0
    1710:	00040000 	andeq	r0, r4, r0
    1714:	9f7dd091 	svcls	0x007dd091
    1718:	000006e0 	andeq	r0, r0, r0, ror #13
    171c:	000006e4 	andeq	r0, r0, r4, ror #13
    1720:	e4550001 	ldrb	r0, [r5], #-1
    1724:	e4000006 	str	r0, [r0], #-6
    1728:	03000006 	movweq	r0, #6
    172c:	9f017200 	svcls	0x00017200
    1730:	000006e4 	andeq	r0, r0, r4, ror #13
    1734:	000006f0 	strdeq	r0, [r0], -r0	; <UNPREDICTABLE>
    1738:	02720003 	rsbseq	r0, r2, #3, 0
    173c:	0006f09f 	muleq	r6, pc, r0	; <UNPREDICTABLE>
    1740:	00070000 	andeq	r0, r7, r0
    1744:	72000300 	andvc	r0, r0, #0, 6
    1748:	07ec9f01 	strbeq	r9, [ip, r1, lsl #30]!
    174c:	07f40000 	ldrbeq	r0, [r4, r0]!
    1750:	00030000 	andeq	r0, r3, r0
    1754:	b89f0173 	ldmlt	pc, {r0, r1, r4, r5, r6, r8}	; <UNPREDICTABLE>
    1758:	bc000008 	stclt	0, cr0, [r0], {8}
    175c:	04000008 	streq	r0, [r0], #-8
    1760:	7dd09100 	ldfvcp	f1, [r0]
    1764:	0000009f 	muleq	r0, pc, r0	; <UNPREDICTABLE>
    1768:	00000000 	andeq	r0, r0, r0
    176c:	b8000400 	stmdalt	r0, {sl}
    1770:	bc000008 	stclt	0, cr0, [r0], {8}
    1774:	02000008 	andeq	r0, r0, #8, 0
    1778:	009f3200 	addseq	r3, pc, r0, lsl #4
    177c:	00000000 	andeq	r0, r0, r0
    1780:	07000000 	streq	r0, [r0, -r0]
    1784:	06000000 	streq	r0, [r0], -r0
    1788:	0006d000 	andeq	sp, r6, r0
    178c:	0006e000 	andeq	lr, r6, r0
    1790:	91000400 	tstls	r0, r0, lsl #8
    1794:	e09f7dd0 			; <UNDEFINED> instruction: 0xe09f7dd0
    1798:	00000006 	andeq	r0, r0, r6
    179c:	01000007 	tsteq	r0, r7
    17a0:	08b85500 	ldmeq	r8!, {r8, sl, ip, lr}
    17a4:	08bc0000 	ldmeq	ip!, {}	; <UNPREDICTABLE>
    17a8:	00040000 	andeq	r0, r4, r0
    17ac:	9f7dd091 	svcls	0x007dd091
	...
    17b8:	00000001 	andeq	r0, r0, r1
    17bc:	0000070c 	andeq	r0, r0, ip, lsl #14
    17c0:	000007ec 	andeq	r0, r0, ip, ror #15
    17c4:	80080003 	andhi	r0, r8, r3
    17c8:	0008949f 	muleq	r8, pc, r4	; <UNPREDICTABLE>
    17cc:	0008a800 	andeq	sl, r8, r0, lsl #16
    17d0:	08000300 	stmdaeq	r0, {r8, r9}
    17d4:	00009f80 	andeq	r9, r0, r0, lsl #31
	...
    17e0:	070c0000 	streq	r0, [ip, -r0]
    17e4:	07ec0000 	strbeq	r0, [ip, r0]!
    17e8:	00020000 	andeq	r0, r2, r0
    17ec:	08949f30 	ldmeq	r4, {r4, r5, r8, r9, sl, fp, ip, pc}
    17f0:	08a80000 	stmiaeq	r8!, {}	; <UNPREDICTABLE>
    17f4:	00020000 	andeq	r0, r2, r0
    17f8:	00009f30 	andeq	r9, r0, r0, lsr pc
	...
    1804:	070c0000 	streq	r0, [ip, -r0]
    1808:	07d00000 	ldrbeq	r0, [r0, r0]
    180c:	00010000 	andeq	r0, r1, r0
    1810:	00089455 	andeq	r9, r8, r5, asr r4
    1814:	0008a800 	andeq	sl, r8, r0, lsl #16
    1818:	55000100 	strpl	r0, [r0, #-256]	; 0xffffff00
	...
    1828:	070c0000 	streq	r0, [ip, -r0]
    182c:	07d00000 	ldrbeq	r0, [r0, r0]
    1830:	00040000 	andeq	r0, r4, r0
    1834:	9f7dd091 	svcls	0x007dd091
    1838:	000007d0 	ldrdeq	r0, [r0], -r0	; <UNPREDICTABLE>
    183c:	000007ec 	andeq	r0, r0, ip, ror #15
    1840:	94550001 	ldrbls	r0, [r5], #-1
    1844:	a8000008 	stmdage	r0, {r3}
    1848:	04000008 	streq	r0, [r0], #-8
    184c:	7dd09100 	ldfvcp	f1, [r0]
    1850:	0000009f 	muleq	r0, pc, r0	; <UNPREDICTABLE>
	...
    185c:	00070c00 	andeq	r0, r7, r0, lsl #24
    1860:	0007ec00 	andeq	lr, r7, r0, lsl #24
    1864:	32000200 	andcc	r0, r0, #0, 4
    1868:	0008949f 	muleq	r8, pc, r4	; <UNPREDICTABLE>
    186c:	0008a800 	andeq	sl, r8, r0, lsl #16
    1870:	32000200 	andcc	r0, r0, #0, 4
    1874:	0000009f 	muleq	r0, pc, r0	; <UNPREDICTABLE>
    1878:	00000000 	andeq	r0, r0, r0
    187c:	05050300 	streq	r0, [r5, #-768]	; 0xfffffd00
    1880:	00000000 	andeq	r0, r0, r0
    1884:	0c000000 	stceq	0, cr0, [r0], {-0}
    1888:	0c000007 	stceq	0, cr0, [r0], {7}
    188c:	01000007 	tsteq	r0, r7
    1890:	070c5100 	streq	r5, [ip, -r0, lsl #2]
    1894:	071c0000 	ldreq	r0, [ip, -r0]
    1898:	00010000 	andeq	r0, r1, r0
    189c:	00071c53 	andeq	r1, r7, r3, asr ip
    18a0:	00072400 	andeq	r2, r7, r0, lsl #8
    18a4:	72000300 	andvc	r0, r0, #0, 6
    18a8:	07249f01 	streq	r9, [r4, -r1, lsl #30]!
    18ac:	07cc0000 	strbeq	r0, [ip, r0]
    18b0:	00010000 	andeq	r0, r1, r0
    18b4:	00089453 	andeq	r9, r8, r3, asr r4
    18b8:	0008a800 	andeq	sl, r8, r0, lsl #16
    18bc:	53000100 	movwpl	r0, #256	; 0x100
	...
    18c8:	00010005 	andeq	r0, r1, r5
    18cc:	0000070c 	andeq	r0, r0, ip, lsl #14
    18d0:	00000720 	andeq	r0, r0, r0, lsr #14
    18d4:	24500001 	ldrbcs	r0, [r0], #-1
    18d8:	2c000007 	stccs	0, cr0, [r0], {7}
    18dc:	01000007 	tsteq	r0, r7
    18e0:	00005000 	andeq	r5, r0, r0
    18e4:	00000000 	andeq	r0, r0, r0
    18e8:	01030000 	mrseq	r0, (UNDEF: 3)
    18ec:	07280100 	streq	r0, [r8, -r0, lsl #2]!
    18f0:	07b00000 	ldreq	r0, [r0, r0]!
    18f4:	00010000 	andeq	r0, r1, r0
    18f8:	00089455 	andeq	r9, r8, r5, asr r4
    18fc:	0008a000 	andeq	sl, r8, r0
    1900:	55000100 	strpl	r0, [r0, #-256]	; 0xffffff00
	...
    190c:	01000103 	tsteq	r0, r3, lsl #2
    1910:	00000728 	andeq	r0, r0, r8, lsr #14
    1914:	000007b0 			; <UNDEFINED> instruction: 0x000007b0
    1918:	94510001 	ldrbls	r0, [r1], #-1
    191c:	a0000008 	andge	r0, r0, r8
    1920:	01000008 	tsteq	r0, r8
    1924:	00005100 	andeq	r5, r0, r0, lsl #2
    1928:	00000000 	andeq	r0, r0, r0
    192c:	00030000 	andeq	r0, r3, r0
    1930:	01010100 	mrseq	r0, (UNDEF: 17)
    1934:	02030301 	andeq	r0, r3, #67108864	; 0x4000000
    1938:	07280100 	streq	r0, [r8, -r0, lsl #2]!
    193c:	07500000 	ldrbeq	r0, [r0, -r0]
    1940:	00010000 	andeq	r0, r1, r0
    1944:	00077453 	andeq	r7, r7, r3, asr r4
    1948:	00077400 	andeq	r7, r7, r0, lsl #8
    194c:	5e000100 	adfpls	f0, f0, f0
    1950:	00000774 	andeq	r0, r0, r4, ror r7
    1954:	00000788 	andeq	r0, r0, r8, lsl #15
    1958:	017e0003 	cmneq	lr, r3
    195c:	0007889f 	muleq	r7, pc, r8	; <UNPREDICTABLE>
    1960:	00079400 	andeq	r9, r7, r0, lsl #8
    1964:	7e000300 	cdpvc	3, 0, cr0, cr0, cr0, {0}
    1968:	07949f02 	ldreq	r9, [r4, r2, lsl #30]
    196c:	07980000 	ldreq	r0, [r8, r0]
    1970:	00030000 	andeq	r0, r3, r0
    1974:	949f037e 	ldrls	r0, [pc], #894	; 197c <__code_start__-0x6684>
    1978:	a0000008 	andge	r0, r0, r8
    197c:	01000008 	tsteq	r0, r8
    1980:	00005300 	andeq	r5, r0, r0, lsl #6
	...
    198c:	01010100 	mrseq	r0, (UNDEF: 17)
    1990:	02010101 	andeq	r0, r1, #1073741824	; 0x40000000
    1994:	072c0100 	streq	r0, [ip, -r0, lsl #2]!
    1998:	07500000 	ldrbeq	r0, [r0, -r0]
    199c:	00010000 	andeq	r0, r1, r0
    19a0:	00077450 	andeq	r7, r7, r0, asr r4
    19a4:	00078400 	andeq	r8, r7, r0, lsl #8
    19a8:	50000100 	andpl	r0, r0, r0, lsl #2
    19ac:	00000784 	andeq	r0, r0, r4, lsl #15
    19b0:	00000794 	muleq	r0, r4, r7
    19b4:	945b0001 	ldrbls	r0, [fp], #-1
    19b8:	98000007 	stmdals	r0, {r0, r1, r2}
    19bc:	01000007 	tsteq	r0, r7
    19c0:	07985000 	ldreq	r5, [r8, r0]
    19c4:	07980000 	ldreq	r0, [r8, r0]
    19c8:	00030000 	andeq	r0, r3, r0
    19cc:	949f0170 	ldrls	r0, [pc], #368	; 19d4 <__code_start__-0x662c>
    19d0:	a0000008 	andge	r0, r0, r8
    19d4:	01000008 	tsteq	r0, r8
    19d8:	00005000 	andeq	r5, r0, r0
    19dc:	00000000 	andeq	r0, r0, r0
    19e0:	00010000 	andeq	r0, r1, r0
    19e4:	07b00001 	ldreq	r0, [r0, r1]!
    19e8:	07ec0000 	strbeq	r0, [ip, r0]!
    19ec:	00010000 	andeq	r0, r1, r0
    19f0:	0008a051 	andeq	sl, r8, r1, asr r0
    19f4:	0008a800 	andeq	sl, r8, r0, lsl #16
    19f8:	51000100 	mrspl	r0, (UNDEF: 16)
	...
    1a04:	00000001 	andeq	r0, r0, r1
    1a08:	00010100 	andeq	r0, r1, r0, lsl #2
    1a0c:	07b00001 	ldreq	r0, [r0, r1]!
    1a10:	07b40000 	ldreq	r0, [r4, r0]!
    1a14:	00060000 	andeq	r0, r6, r0
    1a18:	007c0073 	rsbseq	r0, ip, r3, ror r0
    1a1c:	07d49f22 	ldrbeq	r9, [r4, r2, lsr #30]
    1a20:	07d80000 	ldrbeq	r0, [r8, r0]
    1a24:	00030000 	andeq	r0, r3, r0
    1a28:	d89f7f73 	ldmle	pc, {r0, r1, r4, r5, r6, r8, r9, sl, fp, ip, sp, lr}	; <UNPREDICTABLE>
    1a2c:	e0000007 	and	r0, r0, r7
    1a30:	01000007 	tsteq	r0, r7
    1a34:	07e05300 	strbeq	r5, [r0, r0, lsl #6]!
    1a38:	07e80000 	strbeq	r0, [r8, r0]!
    1a3c:	00030000 	andeq	r0, r3, r0
    1a40:	a09f7f73 	addsge	r7, pc, r3, ror pc	; <UNPREDICTABLE>
    1a44:	a8000008 	stmdage	r0, {r3}
    1a48:	01000008 	tsteq	r0, r8
    1a4c:	00005300 	andeq	r5, r0, r0, lsl #6
    1a50:	00000000 	andeq	r0, r0, r0
    1a54:	00010000 	andeq	r0, r1, r0
    1a58:	07b00001 	ldreq	r0, [r0, r1]!
    1a5c:	07ec0000 	strbeq	r0, [ip, r0]!
    1a60:	00030000 	andeq	r0, r3, r0
    1a64:	a09f8008 	addsge	r8, pc, r8
    1a68:	a8000008 	stmdage	r0, {r3}
    1a6c:	03000008 	movweq	r0, #8
    1a70:	9f800800 	svcls	0x00800800
	...
    1a7c:	00000001 	andeq	r0, r0, r1
    1a80:	00010100 	andeq	r0, r1, r0, lsl #2
    1a84:	00010000 	andeq	r0, r1, r0
    1a88:	000007b0 			; <UNDEFINED> instruction: 0x000007b0
    1a8c:	000007d0 	ldrdeq	r0, [r0], -r0	; <UNPREDICTABLE>
    1a90:	d0910004 	addsle	r0, r1, r4
    1a94:	07d09f7d 			; <UNDEFINED> instruction: 0x07d09f7d
    1a98:	07d40000 	ldrbeq	r0, [r4, r0]
    1a9c:	00010000 	andeq	r0, r1, r0
    1aa0:	0007d455 	andeq	sp, r7, r5, asr r4
    1aa4:	0007d400 	andeq	sp, r7, r0, lsl #8
    1aa8:	7c000300 	stcvc	3, cr0, [r0], {-0}
    1aac:	07d49f01 	ldrbeq	r9, [r4, r1, lsl #30]
    1ab0:	07e00000 	strbeq	r0, [r0, r0]!
    1ab4:	00030000 	andeq	r0, r3, r0
    1ab8:	e09f027c 	adds	r0, pc, ip, ror r2	; <UNPREDICTABLE>
    1abc:	ec000007 	stc	0, cr0, [r0], {7}
    1ac0:	03000007 	movweq	r0, #7
    1ac4:	9f017c00 	svcls	0x00017c00
    1ac8:	000008a0 	andeq	r0, r0, r0, lsr #17
    1acc:	000008a8 	andeq	r0, r0, r8, lsr #17
    1ad0:	d0910004 	addsle	r0, r1, r4
    1ad4:	00009f7d 	andeq	r9, r0, sp, ror pc
    1ad8:	00000000 	andeq	r0, r0, r0
    1adc:	00040000 	andeq	r0, r4, r0
    1ae0:	07b00004 	ldreq	r0, [r0, r4]!
    1ae4:	07b40000 	ldreq	r0, [r4, r0]!
    1ae8:	00030000 	andeq	r0, r3, r0
    1aec:	a09f0170 	addsge	r0, pc, r0, ror r1	; <UNPREDICTABLE>
    1af0:	a8000008 	stmdage	r0, {r3}
    1af4:	03000008 	movweq	r0, #8
    1af8:	9f017000 	svcls	0x00017000
	...
    1b04:	00000001 	andeq	r0, r0, r1
    1b08:	000007bc 			; <UNDEFINED> instruction: 0x000007bc
    1b0c:	000007d0 	ldrdeq	r0, [r0], -r0	; <UNPREDICTABLE>
    1b10:	d0910004 	addsle	r0, r1, r4
    1b14:	07d09f7d 			; <UNDEFINED> instruction: 0x07d09f7d
    1b18:	07ec0000 	strbeq	r0, [ip, r0]!
    1b1c:	00010000 	andeq	r0, r1, r0
    1b20:	00000055 	andeq	r0, r0, r5, asr r0
	...
    1b2c:	00032800 	andeq	r2, r3, r0, lsl #16
    1b30:	00036400 	andeq	r6, r3, r0, lsl #8
    1b34:	50000100 	andpl	r0, r0, r0, lsl #2
    1b38:	00000364 	andeq	r0, r0, r4, ror #6
    1b3c:	00000388 	andeq	r0, r0, r8, lsl #7
    1b40:	01f30004 	mvnseq	r0, r4
    1b44:	00009f50 	andeq	r9, r0, r0, asr pc
	...
    1b50:	03280000 			; <UNDEFINED> instruction: 0x03280000
    1b54:	035c0000 	cmpeq	ip, #0, 0
    1b58:	00010000 	andeq	r0, r1, r0
    1b5c:	00035c51 	andeq	r5, r3, r1, asr ip
    1b60:	00038800 	andeq	r8, r3, r0, lsl #16
    1b64:	f3000400 	vshl.u8	d0, d0, d0
    1b68:	009f5101 	addseq	r5, pc, r1, lsl #2
	...
    1b8c:	14000000 	strne	r0, [r0], #-0
    1b90:	01000000 	mrseq	r0, (UNDEF: 0)
    1b94:	00145000 	andseq	r5, r4, r0
    1b98:	00200000 	eoreq	r0, r0, r0
    1b9c:	00010000 	andeq	r0, r1, r0
    1ba0:	0000205c 	andeq	r2, r0, ip, asr r0
    1ba4:	00006800 	andeq	r6, r0, r0, lsl #16
    1ba8:	71000300 	mrsvc	r0, LR_irq
    1bac:	00689f02 	rsbeq	r9, r8, r2, lsl #30
    1bb0:	006c0000 	rsbeq	r0, ip, r0
    1bb4:	00030000 	andeq	r0, r3, r0
    1bb8:	6c9f0273 	lfmvs	f0, 4, [pc], {115}	; 0x73
    1bbc:	94000000 	strls	r0, [r0], #-0
    1bc0:	04000001 	streq	r0, [r0], #-1
    1bc4:	5001f300 	andpl	pc, r1, r0, lsl #6
    1bc8:	0001949f 	muleq	r1, pc, r4	; <UNPREDICTABLE>
    1bcc:	00019800 	andeq	r9, r1, r0, lsl #16
    1bd0:	73000300 	movwvc	r0, #768	; 0x300
    1bd4:	01989f02 	orrseq	r9, r8, r2, lsl #30
    1bd8:	01c00000 	biceq	r0, r0, r0
    1bdc:	00040000 	andeq	r0, r4, r0
    1be0:	9f5001f3 	svcls	0x005001f3
    1be4:	000001c0 	andeq	r0, r0, r0, asr #3
    1be8:	000001c8 	andeq	r0, r0, r8, asr #3
    1bec:	c85c0001 	ldmdagt	ip, {r0}^
    1bf0:	14000001 	strne	r0, [r0], #-1
    1bf4:	03000002 	movweq	r0, #2
    1bf8:	9f027300 	svcls	0x00027300
    1bfc:	00000214 	andeq	r0, r0, r4, lsl r2
    1c00:	000002ec 	andeq	r0, r0, ip, ror #5
    1c04:	01f30004 	mvnseq	r0, r4
    1c08:	02ec9f50 	rsceq	r9, ip, #80, 30	; 0x140
    1c0c:	02f40000 	rscseq	r0, r4, #0, 0
    1c10:	00030000 	andeq	r0, r3, r0
    1c14:	f49f0273 			; <UNDEFINED> instruction: 0xf49f0273
    1c18:	28000002 	stmdacs	r0, {r1}
    1c1c:	04000003 	streq	r0, [r0], #-3
    1c20:	5001f300 	andpl	pc, r1, r0, lsl #6
    1c24:	0000009f 	muleq	r0, pc, r0	; <UNPREDICTABLE>
	...
    1c38:	00001c00 	andeq	r1, r0, r0, lsl #24
    1c3c:	51000100 	mrspl	r0, (UNDEF: 16)
    1c40:	0000001c 	andeq	r0, r0, ip, lsl r0
    1c44:	000002e0 	andeq	r0, r0, r0, ror #5
    1c48:	e0500001 	subs	r0, r0, r1
    1c4c:	ec000002 	stc	0, cr0, [r0], {2}
    1c50:	04000002 	streq	r0, [r0], #-2
    1c54:	5101f300 	mrspl	pc, SP_irq	; <UNPREDICTABLE>
    1c58:	0002ec9f 	muleq	r2, pc, ip	; <UNPREDICTABLE>
    1c5c:	00032800 	andeq	r2, r3, r0, lsl #16
    1c60:	50000100 	andpl	r0, r0, r0, lsl #2
	...
    1c70:	00000100 	andeq	r0, r0, r0, lsl #2
    1c74:	00000000 	andeq	r0, r0, r0
    1c78:	00020200 	andeq	r0, r2, r0, lsl #4
	...
    1c90:	00000070 	andeq	r0, r0, r0, ror r0
    1c94:	70520001 	subsvc	r0, r2, r1
    1c98:	78000000 	stmdavc	r0, {}	; <UNPREDICTABLE>
    1c9c:	01000000 	mrseq	r0, (UNDEF: 0)
    1ca0:	00785c00 	rsbseq	r5, r8, r0, lsl #24
    1ca4:	00a40000 	adceq	r0, r4, r0
    1ca8:	00040000 	andeq	r0, r4, r0
    1cac:	9f5201f3 	svcls	0x005201f3
    1cb0:	00000194 	muleq	r0, r4, r1
    1cb4:	0000019c 	muleq	r0, ip, r1
    1cb8:	9c520001 	mrrcls	0, 0, r0, r2, cr1
    1cbc:	a4000001 	strge	r0, [r0], #-1
    1cc0:	01000001 	tsteq	r0, r1
    1cc4:	01a45c00 			; <UNDEFINED> instruction: 0x01a45c00
    1cc8:	01c00000 	biceq	r0, r0, r0
    1ccc:	00040000 	andeq	r0, r4, r0
    1cd0:	9f5201f3 	svcls	0x005201f3
    1cd4:	000001c0 	andeq	r0, r0, r0, asr #3
    1cd8:	00000220 	andeq	r0, r0, r0, lsr #4
    1cdc:	20520001 	subscs	r0, r2, r1
    1ce0:	28000002 	stmdacs	r0, {r1}
    1ce4:	04000002 	streq	r0, [r0], #-2
    1ce8:	1f007200 	svcne	0x00007200
    1cec:	0002289f 	muleq	r2, pc, r8	; <UNPREDICTABLE>
    1cf0:	00027400 	andeq	r7, r2, r0, lsl #8
    1cf4:	f3000500 	vrshl.u8	d0, d0, d0
    1cf8:	9f1f5201 	svcls	0x001f5201
    1cfc:	00000274 	andeq	r0, r0, r4, ror r2
    1d00:	00000288 	andeq	r0, r0, r8, lsl #5
    1d04:	88520001 	ldmdahi	r2, {r0}^
    1d08:	a0000002 	andge	r0, r0, r2
    1d0c:	01000002 	tsteq	r0, r2
    1d10:	02cc5c00 	sbceq	r5, ip, #0, 24
    1d14:	02d00000 	sbcseq	r0, r0, #0, 0
    1d18:	00010000 	andeq	r0, r1, r0
    1d1c:	0002d052 	andeq	sp, r2, r2, asr r0
    1d20:	0002e700 	andeq	lr, r2, r0, lsl #14
    1d24:	5c000100 	stfpls	f0, [r0], {-0}
    1d28:	000002e7 	andeq	r0, r0, r7, ror #5
    1d2c:	000002ec 	andeq	r0, r0, ip, ror #5
    1d30:	01f30004 	mvnseq	r0, r4
    1d34:	02ec9f52 	rsceq	r9, ip, #328	; 0x148
    1d38:	03000000 	movweq	r0, #0
    1d3c:	00010000 	andeq	r0, r1, r0
    1d40:	00030052 	andeq	r0, r3, r2, asr r0
    1d44:	00032800 	andeq	r2, r3, r0, lsl #16
    1d48:	5c000100 	stfpls	f0, [r0], {-0}
	...
    1d64:	00680000 	rsbeq	r0, r8, r0
    1d68:	00010000 	andeq	r0, r1, r0
    1d6c:	00006853 	andeq	r6, r0, r3, asr r8
    1d70:	00006c00 	andeq	r6, r0, r0, lsl #24
    1d74:	08000300 	stmdaeq	r0, {r8, r9}
    1d78:	01949f7f 	orrseq	r9, r4, pc, ror pc
    1d7c:	01980000 	orrseq	r0, r8, r0
    1d80:	00030000 	andeq	r0, r3, r0
    1d84:	c09f7f08 	addsgt	r7, pc, r8, lsl #30
    1d88:	14000001 	strne	r0, [r0], #-1
    1d8c:	03000002 	movweq	r0, #2
    1d90:	9f7f0800 	svcls	0x007f0800
    1d94:	00000274 	andeq	r0, r0, r4, ror r2
    1d98:	00000290 	muleq	r0, r0, r2
    1d9c:	90530001 	subsls	r0, r3, r1
    1da0:	a0000002 	andge	r0, r0, r2
    1da4:	04000002 	streq	r0, [r0], #-2
    1da8:	5301f300 	movwpl	pc, #4864	; 0x1300	; <UNPREDICTABLE>
    1dac:	0002ec9f 	muleq	r2, pc, ip	; <UNPREDICTABLE>
    1db0:	00032800 	andeq	r2, r3, r0, lsl #16
    1db4:	08000300 	stmdaeq	r0, {r8, r9}
    1db8:	00009f7f 	andeq	r9, r0, pc, ror pc
    1dbc:	00000000 	andeq	r0, r0, r0
    1dc0:	00010000 	andeq	r0, r1, r0
    1dc4:	02000000 	andeq	r0, r0, #0, 0
    1dc8:	01000002 	tsteq	r0, r2
    1dcc:	00000001 	andeq	r0, r0, r1
    1dd0:	00000000 	andeq	r0, r0, r0
    1dd4:	00020200 	andeq	r0, r2, r0, lsl #4
    1dd8:	00010000 	andeq	r0, r1, r0
    1ddc:	00000000 	andeq	r0, r0, r0
    1de0:	01000000 	mrseq	r0, (UNDEF: 0)
    1de4:	00000001 	andeq	r0, r0, r1
    1de8:	00020200 	andeq	r0, r2, r0, lsl #4
    1dec:	00000000 	andeq	r0, r0, r0
    1df0:	00010100 	andeq	r0, r1, r0, lsl #2
    1df4:	00180000 	andseq	r0, r8, r0
    1df8:	00700000 	rsbseq	r0, r0, r0
    1dfc:	00040000 	andeq	r0, r4, r0
    1e00:	9f7fa091 	svcls	0x007fa091
    1e04:	00000070 	andeq	r0, r0, r0, ror r0
    1e08:	00000078 	andeq	r0, r0, r8, ror r0
    1e0c:	78520001 	ldmdavc	r2, {r0}^
    1e10:	78000000 	stmdavc	r0, {}	; <UNPREDICTABLE>
    1e14:	01000000 	mrseq	r0, (UNDEF: 0)
    1e18:	00785400 	rsbseq	r5, r8, r0, lsl #8
    1e1c:	00880000 	addeq	r0, r8, r0
    1e20:	00030000 	andeq	r0, r3, r0
    1e24:	889f0174 	ldmhi	pc, {r2, r4, r5, r6, r8}	; <UNPREDICTABLE>
    1e28:	90000000 	andls	r0, r0, r0
    1e2c:	01000000 	mrseq	r0, (UNDEF: 0)
    1e30:	00905400 	addseq	r5, r0, r0, lsl #8
    1e34:	00a00000 	adceq	r0, r0, r0
    1e38:	00030000 	andeq	r0, r3, r0
    1e3c:	a09f0274 	addsge	r0, pc, r4, ror r2	; <UNPREDICTABLE>
    1e40:	b0000000 	andlt	r0, r0, r0
    1e44:	01000000 	mrseq	r0, (UNDEF: 0)
    1e48:	01945e00 	orrseq	r5, r4, r0, lsl #28
    1e4c:	019c0000 	orrseq	r0, ip, r0
    1e50:	00040000 	andeq	r0, r4, r0
    1e54:	9f7fa091 	svcls	0x007fa091
    1e58:	0000019c 	muleq	r0, ip, r1
    1e5c:	000001a4 	andeq	r0, r0, r4, lsr #3
    1e60:	a4520001 	ldrbge	r0, [r2], #-1
    1e64:	a4000001 	strge	r0, [r0], #-1
    1e68:	01000001 	tsteq	r0, r1
    1e6c:	01a45e00 			; <UNDEFINED> instruction: 0x01a45e00
    1e70:	01b40000 			; <UNDEFINED> instruction: 0x01b40000
    1e74:	00030000 	andeq	r0, r3, r0
    1e78:	b49f017e 	ldrlt	r0, [pc], #382	; 1e80 <__code_start__-0x6180>
    1e7c:	c0000001 	andgt	r0, r0, r1
    1e80:	01000001 	tsteq	r0, r1
    1e84:	01c05e00 	biceq	r5, r0, r0, lsl #28
    1e88:	02280000 	eoreq	r0, r8, #0, 0
    1e8c:	00040000 	andeq	r0, r4, r0
    1e90:	9f7fa091 	svcls	0x007fa091
    1e94:	00000228 	andeq	r0, r0, r8, lsr #4
    1e98:	00000234 	andeq	r0, r0, r4, lsr r2
    1e9c:	34520001 	ldrbcc	r0, [r2], #-1
    1ea0:	58000002 	stmdapl	r0, {r1}
    1ea4:	01000002 	tsteq	r0, r2
    1ea8:	02585e00 	subseq	r5, r8, #0, 28
    1eac:	025c0000 	subseq	r0, ip, #0, 0
    1eb0:	00030000 	andeq	r0, r3, r0
    1eb4:	5c9f017e 	ldfpls	f0, [pc], {126}	; 0x7e
    1eb8:	64000002 	strvs	r0, [r0], #-2
    1ebc:	01000002 	tsteq	r0, r2
    1ec0:	02645e00 	rsbeq	r5, r4, #0, 28
    1ec4:	02700000 	rsbseq	r0, r0, #0, 0
    1ec8:	00030000 	andeq	r0, r3, r0
    1ecc:	709f0271 	addsvc	r0, pc, r1, ror r2	; <UNPREDICTABLE>
    1ed0:	74000002 	strvc	r0, [r0], #-2
    1ed4:	01000002 	tsteq	r0, r2
    1ed8:	02745e00 	rsbseq	r5, r4, #0, 28
    1edc:	02740000 	rsbseq	r0, r4, #0, 0
    1ee0:	00040000 	andeq	r0, r4, r0
    1ee4:	9f7fa091 	svcls	0x007fa091
    1ee8:	00000274 	andeq	r0, r0, r4, ror r2
    1eec:	000002a0 	andeq	r0, r0, r0, lsr #5
    1ef0:	a1910004 	orrsge	r0, r1, r4
    1ef4:	02c09f7f 	sbceq	r9, r0, #508	; 0x1fc
    1ef8:	02c80000 	sbceq	r0, r8, #0, 0
    1efc:	00010000 	andeq	r0, r1, r0
    1f00:	0002c85e 	andeq	ip, r2, lr, asr r8
    1f04:	0002cc00 	andeq	ip, r2, r0, lsl #24
    1f08:	56000100 	strpl	r0, [r0], -r0, lsl #2
    1f0c:	000002cc 	andeq	r0, r0, ip, asr #5
    1f10:	000002ec 	andeq	r0, r0, ip, ror #5
    1f14:	a0910004 	addsge	r0, r1, r4
    1f18:	02ec9f7f 	rsceq	r9, ip, #508	; 0x1fc
    1f1c:	02fc0000 	rscseq	r0, ip, #0, 0
    1f20:	00040000 	andeq	r0, r4, r0
    1f24:	9f7fa191 	svcls	0x007fa191
    1f28:	000002fc 	strdeq	r0, [r0], -ip
    1f2c:	00000328 	andeq	r0, r0, r8, lsr #6
    1f30:	005e0001 	subseq	r0, lr, r1
	...
    1f48:	01010000 	mrseq	r0, (UNDEF: 1)
	...
    1f5c:	00002000 	andeq	r2, r0, r0
    1f60:	00007000 	andeq	r7, r0, r0
    1f64:	52000100 	andpl	r0, r0, #0
    1f68:	00000070 	andeq	r0, r0, r0, ror r0
    1f6c:	00000094 	muleq	r0, r4, r0
    1f70:	945c0001 	ldrbls	r0, [ip], #-1
    1f74:	9c000001 	stcls	0, cr0, [r0], {1}
    1f78:	01000001 	tsteq	r0, r1
    1f7c:	019c5200 	orrseq	r5, ip, r0, lsl #4
    1f80:	01c00000 	biceq	r0, r0, r0
    1f84:	00010000 	andeq	r0, r1, r0
    1f88:	0001c85c 	andeq	ip, r1, ip, asr r8
    1f8c:	00021000 	andeq	r1, r2, r0
    1f90:	5c000100 	stfpls	f0, [r0], {-0}
    1f94:	00000210 	andeq	r0, r0, r0, lsl r2
    1f98:	00000224 	andeq	r0, r0, r4, lsr #4
    1f9c:	24520001 	ldrbcs	r0, [r2], #-1
    1fa0:	48000002 	stmdami	r0, {r1}
    1fa4:	01000002 	tsteq	r0, r2
    1fa8:	02485c00 	subeq	r5, r8, #0, 24
    1fac:	025c0000 	subseq	r0, ip, #0, 0
    1fb0:	00010000 	andeq	r0, r1, r0
    1fb4:	00025c55 	andeq	r5, r2, r5, asr ip
    1fb8:	00026800 	andeq	r6, r2, r0, lsl #16
    1fbc:	5c000100 	stfpls	f0, [r0], {-0}
    1fc0:	00000268 	andeq	r0, r0, r8, ror #4
    1fc4:	00000274 	andeq	r0, r0, r4, ror r2
    1fc8:	00750019 	rsbseq	r0, r5, r9, lsl r0
    1fcc:	25f72cf7 	ldrbcs	r2, [r7, #3319]!	; 0xcf7
    1fd0:	2cf70076 	ldclcs	0, cr0, [r7], #472	; 0x1d8
    1fd4:	081e25f7 	ldmdaeq	lr, {r0, r1, r2, r4, r5, r6, r7, r8, sl, sp}
    1fd8:	2525f720 	strcs	pc, [r5, #-1824]!	; 0xfffff8e0
    1fdc:	00f72cf7 	ldrshteq	r2, [r7], #199	; 0xc7
    1fe0:	749f2533 	ldrvc	r2, [pc], #1331	; 1fe8 <__code_start__-0x6018>
    1fe4:	88000002 	stmdahi	r0, {r1}
    1fe8:	01000002 	tsteq	r0, r2
    1fec:	02885200 	addeq	r5, r8, #0, 4
    1ff0:	02a00000 	adceq	r0, r0, #0, 0
    1ff4:	00010000 	andeq	r0, r1, r0
    1ff8:	0002cc5c 	andeq	ip, r2, ip, asr ip
    1ffc:	0002d000 	andeq	sp, r2, r0
    2000:	52000100 	andpl	r0, r0, #0
    2004:	000002d0 	ldrdeq	r0, [r0], -r0	; <UNPREDICTABLE>
    2008:	000002e7 	andeq	r0, r0, r7, ror #5
    200c:	e75c0001 	ldrb	r0, [ip, -r1]
    2010:	ec000002 	stc	0, cr0, [r0], {2}
    2014:	04000002 	streq	r0, [r0], #-2
    2018:	5201f300 	andpl	pc, r1, #0, 6
    201c:	0002ec9f 	muleq	r2, pc, ip	; <UNPREDICTABLE>
    2020:	00030000 	andeq	r0, r3, r0
    2024:	52000100 	andpl	r0, r0, #0
    2028:	00000300 	andeq	r0, r0, r0, lsl #6
    202c:	00000328 	andeq	r0, r0, r8, lsr #6
    2030:	005c0001 	subseq	r0, ip, r1
    2034:	00000000 	andeq	r0, r0, r0
    2038:	04000000 	streq	r0, [r0], #-0
    203c:	00000400 	andeq	r0, r0, r0, lsl #8
    2040:	04000001 	streq	r0, [r0], #-1
    2044:	0000a400 	andeq	sl, r0, r0, lsl #8
    2048:	0000b000 	andeq	fp, r0, r0
    204c:	53000100 	movwpl	r0, #256	; 0x100
    2050:	0000027c 	andeq	r0, r0, ip, ror r2
    2054:	00000290 	muleq	r0, r0, r2
    2058:	90530001 	subsls	r0, r3, r1
    205c:	9c000002 	stcls	0, cr0, [r0], {2}
    2060:	04000002 	streq	r0, [r0], #-2
    2064:	5301f300 	movwpl	pc, #4864	; 0x1300	; <UNPREDICTABLE>
    2068:	0002c09f 	muleq	r2, pc, r0	; <UNPREDICTABLE>
    206c:	0002cc00 	andeq	ip, r2, r0, lsl #24
    2070:	53000100 	movwpl	r0, #256	; 0x100
    2074:	000002f0 	strdeq	r0, [r0], -r0	; <UNPREDICTABLE>
    2078:	00000328 	andeq	r0, r0, r8, lsr #6
    207c:	7f080003 	svcvc	0x00080003
    2080:	0000009f 	muleq	r0, pc, r0	; <UNPREDICTABLE>
    2084:	00000000 	andeq	r0, r0, r0
    2088:	00000400 	andeq	r0, r0, r0, lsl #8
    208c:	00000401 	andeq	r0, r0, r1, lsl #8
    2090:	00000001 	andeq	r0, r0, r1
    2094:	00000400 	andeq	r0, r0, r0, lsl #8
    2098:	0000a400 	andeq	sl, r0, r0, lsl #8
    209c:	0000b000 	andeq	fp, r0, r0
    20a0:	52000100 	andpl	r0, r0, #0
    20a4:	000000b0 	strheq	r0, [r0], -r0	; <UNPREDICTABLE>
    20a8:	0000015c 	andeq	r0, r0, ip, asr r1
    20ac:	a0910004 	addsge	r0, r1, r4
    20b0:	027c9f7f 	rsbseq	r9, ip, #508	; 0x1fc
    20b4:	02940000 	addseq	r0, r4, #0, 0
    20b8:	00040000 	andeq	r0, r4, r0
    20bc:	9f7fa091 	svcls	0x007fa091
    20c0:	00000294 	muleq	r0, r4, r2
    20c4:	0000029c 	muleq	r0, ip, r2
    20c8:	b45e0001 	ldrblt	r0, [lr], #-1
    20cc:	c0000002 	andgt	r0, r0, r2
    20d0:	04000002 	streq	r0, [r0], #-2
    20d4:	7fa09100 	svcvc	0x00a09100
    20d8:	0002c09f 	muleq	r2, pc, r0	; <UNPREDICTABLE>
    20dc:	0002cc00 	andeq	ip, r2, r0, lsl #24
    20e0:	52000100 	andpl	r0, r0, #0
    20e4:	000002f0 	strdeq	r0, [r0], -r0	; <UNPREDICTABLE>
    20e8:	00000300 	andeq	r0, r0, r0, lsl #6
    20ec:	a0910004 	addsge	r0, r1, r4
    20f0:	03009f7f 	movweq	r9, #3967	; 0xf7f
    20f4:	03280000 			; <UNDEFINED> instruction: 0x03280000
    20f8:	00010000 	andeq	r0, r1, r0
    20fc:	00000052 	andeq	r0, r0, r2, asr r0
    2100:	00000000 	andeq	r0, r0, r0
    2104:	00000400 	andeq	r0, r0, r0, lsl #8
    2108:	01010101 	tsteq	r1, r1, lsl #2
    210c:	04020303 	streq	r0, [r2], #-771	; 0xfffffcfd
    2110:	00000001 	andeq	r0, r0, r1
    2114:	00000400 	andeq	r0, r0, r0, lsl #8
    2118:	0000a400 	andeq	sl, r0, r0, lsl #8
    211c:	0000b000 	andeq	fp, r0, r0
    2120:	5e000100 	adfpls	f0, f0, f0
    2124:	0000010c 	andeq	r0, r0, ip, lsl #2
    2128:	0000010c 	andeq	r0, r0, ip, lsl #2
    212c:	0c550001 	mrrceq	0, 0, r0, r5, cr1
    2130:	20000001 	andcs	r0, r0, r1
    2134:	03000001 	movweq	r0, #1
    2138:	9f017500 	svcls	0x00017500
    213c:	00000120 	andeq	r0, r0, r0, lsr #2
    2140:	0000012c 	andeq	r0, r0, ip, lsr #2
    2144:	02750003 	rsbseq	r0, r5, #3, 0
    2148:	00012c9f 	muleq	r1, pc, ip	; <UNPREDICTABLE>
    214c:	00013000 	andeq	r3, r1, r0
    2150:	75000300 	strvc	r0, [r0, #-768]	; 0xfffffd00
    2154:	027c9f03 	rsbseq	r9, ip, #3, 30
    2158:	029c0000 	addseq	r0, ip, #0, 0
    215c:	00040000 	andeq	r0, r4, r0
    2160:	9f7fa191 	svcls	0x007fa191
    2164:	000002c0 	andeq	r0, r0, r0, asr #5
    2168:	000002c8 	andeq	r0, r0, r8, asr #5
    216c:	c85e0001 	ldmdagt	lr, {r0}^
    2170:	cc000002 	stcgt	0, cr0, [r0], {2}
    2174:	01000002 	tsteq	r0, r2
    2178:	02f05600 	rscseq	r5, r0, #0, 12
    217c:	02fc0000 	rscseq	r0, ip, #0, 0
    2180:	00040000 	andeq	r0, r4, r0
    2184:	9f7fa191 	svcls	0x007fa191
    2188:	000002fc 	strdeq	r0, [r0], -ip
    218c:	00000328 	andeq	r0, r0, r8, lsr #6
    2190:	005e0001 	subseq	r0, lr, r1
	...
    219c:	01010000 	mrseq	r0, (UNDEF: 1)
    21a0:	01010101 	tsteq	r1, r1, lsl #2
    21a4:	00010602 	andeq	r0, r1, r2, lsl #12
    21a8:	a8000600 	stmdage	r0, {r9, sl}
    21ac:	b0000000 	andlt	r0, r0, r0
    21b0:	01000000 	mrseq	r0, (UNDEF: 0)
    21b4:	010c5100 	mrseq	r5, (UNDEF: 28)
    21b8:	011c0000 	tsteq	ip, r0
    21bc:	00010000 	andeq	r0, r1, r0
    21c0:	00011c5c 	andeq	r1, r1, ip, asr ip
    21c4:	00012c00 	andeq	r2, r1, r0, lsl #24
    21c8:	58000100 	stmdapl	r0, {r8}
    21cc:	0000012c 	andeq	r0, r0, ip, lsr #2
    21d0:	00000130 	andeq	r0, r0, r0, lsr r1
    21d4:	305c0001 	subscc	r0, ip, r1
    21d8:	30000001 	andcc	r0, r0, r1
    21dc:	03000001 	movweq	r0, #1
    21e0:	9f017c00 	svcls	0x00017c00
    21e4:	0000027c 	andeq	r0, r0, ip, ror r2
    21e8:	0000029c 	muleq	r0, ip, r2
    21ec:	9f310002 	svcls	0x00310002
    21f0:	000002c0 	andeq	r0, r0, r0, asr #5
    21f4:	000002cc 	andeq	r0, r0, ip, asr #5
    21f8:	f0510001 			; <UNDEFINED> instruction: 0xf0510001
    21fc:	28000002 	stmdacs	r0, {r1}
    2200:	02000003 	andeq	r0, r0, #3, 0
    2204:	009f3100 	addseq	r3, pc, r0, lsl #2
    2208:	00000000 	andeq	r0, r0, r0
    220c:	01000000 	mrseq	r0, (UNDEF: 0)
    2210:	01010606 	tsteq	r1, r6, lsl #12
    2214:	5c010000 	stcpl	0, cr0, [r1], {-0}
    2218:	5c000001 	stcpl	0, cr0, [r0], {1}
    221c:	04000001 	streq	r0, [r0], #-1
    2220:	7fa09100 	svcvc	0x00a09100
    2224:	00015c9f 	muleq	r1, pc, ip	; <UNPREDICTABLE>
    2228:	00018c00 	andeq	r8, r1, r0, lsl #24
    222c:	52000100 	andpl	r0, r0, #0
    2230:	0000029c 	muleq	r0, ip, r2
    2234:	000002a0 	andeq	r0, r0, r0, lsr #5
    2238:	a05e0001 	subsge	r0, lr, r1
    223c:	ac000002 	stcge	0, cr0, [r0], {2}
    2240:	01000002 	tsteq	r0, r2
    2244:	00005200 	andeq	r5, r0, r0, lsl #4
	...
    2250:	00010100 	andeq	r0, r1, r0, lsl #2
    2254:	016c0701 	cmneq	ip, r1, lsl #14
    2258:	01700000 	cmneq	r0, r0
    225c:	00030000 	andeq	r0, r3, r0
    2260:	709f7f73 	addsvc	r7, pc, r3, ror pc	; <UNPREDICTABLE>
    2264:	78000001 	stmdavc	r0, {r0}
    2268:	01000001 	tsteq	r0, r1
    226c:	01785300 	cmneq	r8, r0, lsl #6
    2270:	01840000 	orreq	r0, r4, r0
    2274:	00030000 	andeq	r0, r3, r0
    2278:	9c9f7f73 	ldcls	15, cr7, [pc], {115}	; 0x73
    227c:	9c000002 	stcls	0, cr0, [r0], {2}
    2280:	04000002 	streq	r0, [r0], #-2
    2284:	7fa19100 	svcvc	0x00a19100
    2288:	0000009f 	muleq	r0, pc, r0	; <UNPREDICTABLE>
    228c:	00000000 	andeq	r0, r0, r0
    2290:	01010100 	mrseq	r0, (UNDEF: 17)
    2294:	00015c01 	andeq	r5, r1, r1, lsl #24
    2298:	00018c00 	andeq	r8, r1, r0, lsl #24
    229c:	08000300 	stmdaeq	r0, {r8, r9}
    22a0:	029c9f80 	addseq	r9, ip, #128, 30	; 0x200
    22a4:	02ac0000 	adceq	r0, ip, #0, 0
    22a8:	00030000 	andeq	r0, r3, r0
    22ac:	009f8008 	addseq	r8, pc, r8
    22b0:	00000000 	andeq	r0, r0, r0
    22b4:	01000000 	mrseq	r0, (UNDEF: 0)
    22b8:	01010000 	mrseq	r0, (UNDEF: 1)
    22bc:	01010000 	mrseq	r0, (UNDEF: 1)
    22c0:	01010101 	tsteq	r1, r1, lsl #2
    22c4:	00015c01 	andeq	r5, r1, r1, lsl #24
    22c8:	00016c00 	andeq	r6, r1, r0, lsl #24
    22cc:	50000100 	andpl	r0, r0, r0, lsl #2
    22d0:	0000016c 	andeq	r0, r0, ip, ror #2
    22d4:	0000016c 	andeq	r0, r0, ip, ror #2
    22d8:	017c0003 	cmneq	ip, r3
    22dc:	00016c9f 	muleq	r1, pc, ip	; <UNPREDICTABLE>
    22e0:	00017800 	andeq	r7, r1, r0, lsl #16
    22e4:	7c000300 	stcvc	3, cr0, [r0], {-0}
    22e8:	01789f02 	cmneq	r8, r2, lsl #30
    22ec:	01880000 	orreq	r0, r8, r0
    22f0:	00030000 	andeq	r0, r3, r0
    22f4:	889f017c 	ldmhi	pc, {r2, r3, r4, r5, r6, r8}	; <UNPREDICTABLE>
    22f8:	8c000001 	stchi	0, cr0, [r0], {1}
    22fc:	03000001 	movweq	r0, #1
    2300:	9f017e00 	svcls	0x00017e00
    2304:	0000029c 	muleq	r0, ip, r2
    2308:	000002a4 	andeq	r0, r0, r4, lsr #5
    230c:	a4500001 	ldrbge	r0, [r0], #-1
    2310:	ac000002 	stcge	0, cr0, [r0], {2}
    2314:	03000002 	movweq	r0, #2
    2318:	9f017e00 	svcls	0x00017e00
	...
    2324:	00040004 	andeq	r0, r4, r4
    2328:	015c0100 	cmpeq	ip, r0, lsl #2
    232c:	01600000 	cmneq	r0, r0
    2330:	00030000 	andeq	r0, r3, r0
    2334:	9c9f0171 	ldflss	f0, [pc], {113}	; 0x71
    2338:	a0000002 	andge	r0, r0, r2
    233c:	02000002 	andeq	r0, r0, #2, 0
    2340:	a09f3200 	addsge	r3, pc, r0, lsl #4
    2344:	ac000002 	stcge	0, cr0, [r0], {2}
    2348:	03000002 	movweq	r0, #2
    234c:	9f017100 	svcls	0x00017100
	...
    2358:	00060007 	andeq	r0, r6, r7
    235c:	0000015c 	andeq	r0, r0, ip, asr r1
    2360:	00000194 	muleq	r0, r4, r1
    2364:	9c500001 	mrrcls	0, 0, r0, r0, cr1	; <UNPREDICTABLE>
    2368:	b4000002 	strlt	r0, [r0], #-2
    236c:	01000002 	tsteq	r0, r2
    2370:	00005000 	andeq	r5, r0, r0
    2374:	00000000 	andeq	r0, r0, r0
    2378:	01010000 	mrseq	r0, (UNDEF: 1)
    237c:	02140001 	andseq	r0, r4, #1, 0
    2380:	02200000 	eoreq	r0, r0, #0, 0
    2384:	00020000 	andeq	r0, r2, r0
    2388:	02209f30 	eoreq	r9, r0, #48, 30	; 0xc0
    238c:	02340000 	eorseq	r0, r4, #0, 0
    2390:	00020000 	andeq	r0, r2, r0
    2394:	00009f31 	andeq	r9, r0, r1, lsr pc
    2398:	00000000 	andeq	r0, r0, r0
    239c:	01000000 	mrseq	r0, (UNDEF: 0)
    23a0:	01000001 	tsteq	r0, r1
    23a4:	01000001 	tsteq	r0, r1
    23a8:	01000001 	tsteq	r0, r1
    23ac:	01000001 	tsteq	r0, r1
    23b0:	02000001 	andeq	r0, r0, #1, 0
    23b4:	00800102 	addeq	r0, r0, r2, lsl #2
    23b8:	00800000 	addeq	r0, r0, r0
    23bc:	00010000 	andeq	r0, r1, r0
    23c0:	00008053 	andeq	r8, r0, r3, asr r0
    23c4:	00008c00 	andeq	r8, r0, r0, lsl #24
    23c8:	73000300 	movwvc	r0, #768	; 0x300
    23cc:	008c9f04 	addeq	r9, ip, r4, lsl #30
    23d0:	00940000 	addseq	r0, r4, r0
    23d4:	00010000 	andeq	r0, r1, r0
    23d8:	00009451 	andeq	r9, r0, r1, asr r4
    23dc:	00009800 	andeq	r9, r0, r0, lsl #16
    23e0:	73000300 	movwvc	r0, #768	; 0x300
    23e4:	00989f08 	addseq	r9, r8, r8, lsl #30
    23e8:	00a40000 	adceq	r0, r4, r0
    23ec:	00010000 	andeq	r0, r1, r0
    23f0:	0000a451 	andeq	sl, r0, r1, asr r4
    23f4:	0000a800 	andeq	sl, r0, r0, lsl #16
    23f8:	73000300 	movwvc	r0, #768	; 0x300
    23fc:	00a89f0c 	adceq	r9, r8, ip, lsl #30
    2400:	00b40000 	adcseq	r0, r4, r0
    2404:	00010000 	andeq	r0, r1, r0
    2408:	0000b451 	andeq	fp, r0, r1, asr r4
    240c:	0000b800 	andeq	fp, r0, r0, lsl #16
    2410:	73000300 	movwvc	r0, #768	; 0x300
    2414:	00b89f10 	adcseq	r9, r8, r0, lsl pc
    2418:	00c40000 	sbceq	r0, r4, r0
    241c:	00010000 	andeq	r0, r1, r0
    2420:	0000c451 	andeq	ip, r0, r1, asr r4
    2424:	0000c800 	andeq	ip, r0, r0, lsl #16
    2428:	73000300 	movwvc	r0, #768	; 0x300
    242c:	00c89f14 	sbceq	r9, r8, r4, lsl pc
    2430:	00d00000 	sbcseq	r0, r0, r0
    2434:	00010000 	andeq	r0, r1, r0
    2438:	0000d051 	andeq	sp, r0, r1, asr r0
    243c:	0000d400 	andeq	sp, r0, r0, lsl #8
    2440:	71000300 	mrsvc	r0, LR_irq
    2444:	00009f04 	andeq	r9, r0, r4, lsl #30
    2448:	00000000 	andeq	r0, r0, r0
    244c:	00020000 	andeq	r0, r2, r0
    2450:	000000d8 	ldrdeq	r0, [r0], -r8
    2454:	000000e8 	andeq	r0, r0, r8, ror #1
    2458:	9f310002 	svcls	0x00310002
	...
    2464:	01000004 	tsteq	r0, r4
    2468:	00009c08 	andeq	r9, r0, r8, lsl #24
    246c:	00009c10 	andeq	r9, r0, r0, lsl ip
    2470:	9f300002 	svcls	0x00300002
    2474:	00009c10 	andeq	r9, r0, r0, lsl ip
    2478:	00009c10 	andeq	r9, r0, r0, lsl ip
    247c:	00530001 	subseq	r0, r3, r1
    2480:	00000000 	andeq	r0, r0, r0
    2484:	03000000 	movweq	r0, #0
    2488:	00000000 	andeq	r0, r0, r0
    248c:	1c000000 	stcne	0, cr0, [r0], {-0}
    2490:	2000009c 	mulcs	r0, ip, r0
    2494:	0200009c 	andeq	r0, r0, #156, 0	; 0x9c
    2498:	209f3000 	addscs	r3, pc, r0
    249c:	2400009c 	strcs	r0, [r0], #-156	; 0xffffff64
    24a0:	0100009c 	swpeq	r0, ip, [r0]	; <UNPREDICTABLE>
    24a4:	9c245300 	stcls	3, cr5, [r4], #-0
    24a8:	9c280000 	stcls	0, cr0, [r8], #-0
    24ac:	00050000 	andeq	r0, r5, r0
    24b0:	21400073 	hvccs	3
    24b4:	009c289f 	umullseq	r2, ip, pc, r8	; <UNPREDICTABLE>
    24b8:	009c2c00 	addseq	r2, ip, r0, lsl #24
    24bc:	53000100 	movwpl	r0, #256	; 0x100
	...
    24c8:	00000002 	andeq	r0, r0, r2
    24cc:	00009bdc 	ldrdeq	r9, [r0], -ip
    24d0:	00009be0 	andeq	r9, r0, r0, ror #23
    24d4:	9f300002 	svcls	0x00300002
    24d8:	00009be0 	andeq	r9, r0, r0, ror #23
    24dc:	00009be4 	andeq	r9, r0, r4, ror #23
    24e0:	00500001 	subseq	r0, r0, r1
    24e4:	00000000 	andeq	r0, r0, r0
    24e8:	02000000 	andeq	r0, r0, #0, 0
    24ec:	00000000 	andeq	r0, r0, r0
    24f0:	f4000000 	vst4.8	{d0-d3}, [r0], r0
    24f4:	f800009b 			; <UNDEFINED> instruction: 0xf800009b
    24f8:	0200009b 	andeq	r0, r0, #155, 0	; 0x9b
    24fc:	f89f3000 			; <UNDEFINED> instruction: 0xf89f3000
    2500:	fc00009b 	stc2	0, cr0, [r0], {155}	; 0x9b
    2504:	0100009b 	swpeq	r0, fp, [r0]	; <UNPREDICTABLE>
    2508:	9bfc5300 	blls	fff17110 <__bss_end__+0xfff0be18>
    250c:	9c000000 	stcls	0, cr0, [r0], {-0}
    2510:	00050000 	andeq	r0, r5, r0
    2514:	21400073 	hvccs	3
    2518:	009c009f 	umullseq	r0, ip, pc, r0	; <UNPREDICTABLE>
    251c:	009c0800 	addseq	r0, ip, r0, lsl #16
    2520:	53000100 	movwpl	r0, #256	; 0x100
	...
    2530:	000000c8 	andeq	r0, r0, r8, asr #1
    2534:	000000d8 	ldrdeq	r0, [r0], -r8
    2538:	d8500001 	ldmdale	r0, {r0}^
    253c:	1c000000 	stcne	0, cr0, [r0], {-0}
    2540:	04000001 	streq	r0, [r0], #-1
    2544:	5001f300 	andpl	pc, r1, r0, lsl #6
    2548:	0000009f 	muleq	r0, pc, r0	; <UNPREDICTABLE>
    254c:	00000000 	andeq	r0, r0, r0
    2550:	00000200 	andeq	r0, r0, r0, lsl #4
    2554:	0000c800 	andeq	ip, r0, r0, lsl #16
    2558:	0000d800 	andeq	sp, r0, r0, lsl #16
    255c:	70000700 	andvc	r0, r0, r0, lsl #14
    2560:	03e80a00 	mvneq	r0, #0, 20
    2564:	00d89f1e 	sbcseq	r9, r8, lr, lsl pc
    2568:	011c0000 	tsteq	ip, r0
    256c:	00080000 	andeq	r0, r8, r0
    2570:	0a5001f3 	beq	1402d44 <__bss_end__+0x13f7a4c>
    2574:	9f1e03e8 	svcls	0x001e03e8
	...
    2580:	00dc0000 	sbcseq	r0, ip, r0
    2584:	011c0000 	tsteq	ip, r0
    2588:	00010000 	andeq	r0, r1, r0
    258c:	00000054 	andeq	r0, r0, r4, asr r0
    2590:	00000000 	andeq	r0, r0, r0
    2594:	f0000100 			; <UNDEFINED> instruction: 0xf0000100
    2598:	1c000000 	stcne	0, cr0, [r0], {-0}
    259c:	01000001 	tsteq	r0, r1
    25a0:	00005600 	andeq	r5, r0, r0, lsl #12
	...
    25ac:	00ec0000 	rsceq	r0, ip, r0
    25b0:	00ef0000 	rsceq	r0, pc, r0
    25b4:	00010000 	andeq	r0, r1, r0
    25b8:	0000ef50 	andeq	lr, r0, r0, asr pc
    25bc:	00011c00 	andeq	r1, r1, r0, lsl #24
    25c0:	56000100 	strpl	r0, [r0], -r0, lsl #2
	...
    25cc:	01040000 	mrseq	r0, (UNDEF: 4)
    25d0:	010b0000 	mrseq	r0, (UNDEF: 11)
    25d4:	00010000 	andeq	r0, r1, r0
    25d8:	00000050 	andeq	r0, r0, r0, asr r0
	...
    25e4:	00002000 	andeq	r2, r0, r0
    25e8:	00002300 	andeq	r2, r0, r0, lsl #6
    25ec:	50000100 	andpl	r0, r0, r0, lsl #2
    25f0:	00000023 	andeq	r0, r0, r3, lsr #32
    25f4:	00000030 	andeq	r0, r0, r0, lsr r0
    25f8:	00540001 	subseq	r0, r4, r1
	...
    2604:	30000000 	andcc	r0, r0, r0
    2608:	3b000000 	blcc	2610 <__code_start__-0x59f0>
    260c:	01000000 	mrseq	r0, (UNDEF: 0)
    2610:	003b5000 	eorseq	r5, fp, r0
    2614:	00780000 	rsbseq	r0, r8, r0
    2618:	00010000 	andeq	r0, r1, r0
    261c:	00000056 	andeq	r0, r0, r6, asr r0
    2620:	00000000 	andeq	r0, r0, r0
    2624:	4c000100 	stfmis	f0, [r0], {-0}
    2628:	78000000 	stmdavc	r0, {}	; <UNPREDICTABLE>
    262c:	01000000 	mrseq	r0, (UNDEF: 0)
    2630:	00005500 	andeq	r5, r0, r0, lsl #10
	...
    263c:	00480000 	subeq	r0, r8, r0
    2640:	004b0000 	subeq	r0, fp, r0
    2644:	00010000 	andeq	r0, r1, r0
    2648:	00004b50 	andeq	r4, r0, r0, asr fp
    264c:	00007800 	andeq	r7, r0, r0, lsl #16
    2650:	55000100 	strpl	r0, [r0, #-256]	; 0xffffff00
	...
    265c:	00600000 	rsbeq	r0, r0, r0
    2660:	00670000 	rsbeq	r0, r7, r0
    2664:	00010000 	andeq	r0, r1, r0
    2668:	00000050 	andeq	r0, r0, r0, asr r0
	...
    2674:	00007800 	andeq	r7, r0, r0, lsl #16
    2678:	00008400 	andeq	r8, r0, r0, lsl #8
    267c:	50000100 	andpl	r0, r0, r0, lsl #2
    2680:	00000084 	andeq	r0, r0, r4, lsl #1
    2684:	000000c8 	andeq	r0, r0, r8, asr #1
    2688:	01f30004 	mvnseq	r0, r4
    268c:	00009f50 	andeq	r9, r0, r0, asr pc
	...
    2698:	00000088 	andeq	r0, r0, r8, lsl #1
    269c:	000000c8 	andeq	r0, r0, r8, asr #1
    26a0:	00540001 	subseq	r0, r4, r1
    26a4:	00000000 	andeq	r0, r0, r0
    26a8:	01000000 	mrseq	r0, (UNDEF: 0)
    26ac:	00009c00 	andeq	r9, r0, r0, lsl #24
    26b0:	0000c800 	andeq	ip, r0, r0, lsl #16
    26b4:	56000100 	strpl	r0, [r0], -r0, lsl #2
	...
    26c4:	00000098 	muleq	r0, r8, r0
    26c8:	0000009b 	muleq	r0, fp, r0
    26cc:	9b500001 	blls	14026d8 <__bss_end__+0x13f73e0>
    26d0:	c8000000 	stmdagt	r0, {}	; <UNPREDICTABLE>
    26d4:	01000000 	mrseq	r0, (UNDEF: 0)
    26d8:	00005600 	andeq	r5, r0, r0, lsl #12
	...
    26e4:	000000b0 	strheq	r0, [r0], -r0	; <UNPREDICTABLE>
    26e8:	000000b7 	strheq	r0, [r0], -r7
    26ec:	00500001 	subseq	r0, r0, r1
	...
    26f8:	58000000 	stmdapl	r0, {}	; <UNPREDICTABLE>
    26fc:	63000001 	movwvs	r0, #1
    2700:	01000001 	tsteq	r0, r1
    2704:	01635000 	cmneq	r3, r0
    2708:	01880000 	orreq	r0, r8, r0
    270c:	00010000 	andeq	r0, r1, r0
    2710:	00000054 	andeq	r0, r0, r4, asr r0
    2714:	00000000 	andeq	r0, r0, r0
    2718:	48000000 	stmdami	r0, {}	; <UNPREDICTABLE>
    271c:	58000001 	stmdapl	r0, {r0}
    2720:	01000001 	tsteq	r0, r1
    2724:	00005400 	andeq	r5, r0, r0, lsl #8
	...
    2734:	000f0000 	andeq	r0, pc, r0
    2738:	00010000 	andeq	r0, r1, r0
    273c:	00000f50 	andeq	r0, r0, r0, asr pc
    2740:	00002000 	andeq	r2, r0, r0
    2744:	54000100 	strpl	r0, [r0], #-256	; 0xffffff00
	...
    2758:	0000000f 	andeq	r0, r0, pc
    275c:	0f510001 	svceq	0x00510001
    2760:	20000000 	andcs	r0, r0, r0
    2764:	01000000 	mrseq	r0, (UNDEF: 0)
    2768:	00005500 	andeq	r5, r0, r0, lsl #10
	...
    2774:	00200000 	eoreq	r0, r0, r0
    2778:	002f0000 	eoreq	r0, pc, r0
    277c:	00010000 	andeq	r0, r1, r0
    2780:	00002f50 	andeq	r2, r0, r0, asr pc
    2784:	00004000 	andeq	r4, r0, r0
    2788:	54000100 	strpl	r0, [r0], #-256	; 0xffffff00
	...
    2798:	00000020 	andeq	r0, r0, r0, lsr #32
    279c:	0000002f 	andeq	r0, r0, pc, lsr #32
    27a0:	2f510001 	svccs	0x00510001
    27a4:	40000000 	andmi	r0, r0, r0
    27a8:	01000000 	mrseq	r0, (UNDEF: 0)
    27ac:	00005500 	andeq	r5, r0, r0, lsl #10
	...
    27bc:	00000350 	andeq	r0, r0, r0, asr r3
    27c0:	00000398 	muleq	r0, r8, r3
    27c4:	98500001 	ldmdals	r0, {r0}^
    27c8:	9b000003 	blls	27dc <__code_start__-0x5824>
    27cc:	02000003 	andeq	r0, r0, #3, 0
    27d0:	9b689100 	blls	1a26bd8 <__bss_end__+0x1a1b8e0>
    27d4:	b0000003 	andlt	r0, r0, r3
    27d8:	04000003 	streq	r0, [r0], #-3
    27dc:	5001f300 	andpl	pc, r1, r0, lsl #6
    27e0:	0000009f 	muleq	r0, pc, r0	; <UNPREDICTABLE>
	...
    27fc:	00022000 	andeq	r2, r2, r0
    2800:	00027b00 	andeq	r7, r2, r0, lsl #22
    2804:	50000100 	andpl	r0, r0, r0, lsl #2
    2808:	0000027b 	andeq	r0, r0, fp, ror r2
    280c:	00000284 	andeq	r0, r0, r4, lsl #5
    2810:	01f30004 	mvnseq	r0, r4
    2814:	02849f50 	addeq	r9, r4, #80, 30	; 0x140
    2818:	029c0000 	addseq	r0, ip, #0, 0
    281c:	00010000 	andeq	r0, r1, r0
    2820:	00029c50 	andeq	r9, r2, r0, asr ip
    2824:	0002a400 	andeq	sl, r2, r0, lsl #8
    2828:	f3000400 	vshl.u8	d0, d0, d0
    282c:	a49f5001 	ldrge	r5, [pc], #1	; 2834 <__code_start__-0x57cc>
    2830:	a7000002 	strge	r0, [r0, -r2]
    2834:	01000002 	tsteq	r0, r2
    2838:	02a75000 	adceq	r5, r7, #0, 0
    283c:	02c80000 	sbceq	r0, r8, #0, 0
    2840:	00040000 	andeq	r0, r4, r0
    2844:	9f5001f3 	svcls	0x005001f3
    2848:	000002c8 	andeq	r0, r0, r8, asr #5
    284c:	000002e0 	andeq	r0, r0, r0, ror #5
    2850:	e0500001 	subs	r0, r0, r1
    2854:	e8000002 	stmda	r0, {r1}
    2858:	04000002 	streq	r0, [r0], #-2
    285c:	5001f300 	andpl	pc, r1, r0, lsl #6
    2860:	0002e89f 	muleq	r2, pc, r8	; <UNPREDICTABLE>
    2864:	0002eb00 	andeq	lr, r2, r0, lsl #22
    2868:	50000100 	andpl	r0, r0, r0, lsl #2
    286c:	000002eb 	andeq	r0, r0, fp, ror #5
    2870:	00000338 	andeq	r0, r0, r8, lsr r3
    2874:	01f30004 	mvnseq	r0, r4
    2878:	00009f50 	andeq	r9, r0, r0, asr pc
	...
    2894:	02200000 	eoreq	r0, r0, #0, 0
    2898:	02440000 	subeq	r0, r4, #0, 0
    289c:	00010000 	andeq	r0, r1, r0
    28a0:	00024451 	andeq	r4, r2, r1, asr r4
    28a4:	00026800 	andeq	r6, r2, r0, lsl #16
    28a8:	51000100 	mrspl	r0, (UNDEF: 16)
    28ac:	00000268 	andeq	r0, r0, r8, ror #4
    28b0:	0000027b 	andeq	r0, r0, fp, ror r2
    28b4:	01710003 	cmneq	r1, r3
    28b8:	00027b9f 	muleq	r2, pc, fp	; <UNPREDICTABLE>
    28bc:	00028400 	andeq	r8, r2, r0, lsl #8
    28c0:	38001700 	stmdacc	r0, {r8, r9, sl, ip}
    28c4:	f35101f3 	vbsl	q8, <illegal reg q8.5>, <illegal reg q9.5>
    28c8:	4b405101 	blmi	1016cd4 <__bss_end__+0x100b9dc>
    28cc:	080c2224 	stmdaeq	ip, {r2, r5, r9, sp}
    28d0:	2d800000 	stccs	0, cr0, [r0]
    28d4:	16000128 	strne	r0, [r0], -r8, lsr #2
    28d8:	02849f13 	addeq	r9, r4, #76	; 0x4c
    28dc:	02980000 	addseq	r0, r8, #0, 0
    28e0:	00010000 	andeq	r0, r1, r0
    28e4:	00029851 	andeq	r9, r2, r1, asr r8
    28e8:	0002a400 	andeq	sl, r2, r0, lsl #8
    28ec:	f3000400 	vshl.u8	d0, d0, d0
    28f0:	a49f5101 	ldrge	r5, [pc], #257	; 28f8 <__code_start__-0x5708>
    28f4:	a7000002 	strge	r0, [r0, -r2]
    28f8:	01000002 	tsteq	r0, r2
    28fc:	02a75100 	adceq	r5, r7, #0
    2900:	02c80000 	sbceq	r0, r8, #0, 0
    2904:	00040000 	andeq	r0, r4, r0
    2908:	9f5101f3 	svcls	0x005101f3
    290c:	000002c8 	andeq	r0, r0, r8, asr #5
    2910:	000002dc 	ldrdeq	r0, [r0], -ip
    2914:	dc510001 	mrrcle	0, 0, r0, r1, cr1
    2918:	38000002 	stmdacc	r0, {r1}
    291c:	17000003 	strne	r0, [r0, -r3]
    2920:	01f33800 	mvnseq	r3, r0, lsl #16
    2924:	5101f351 	tstpl	r1, r1, asr r3	; <UNPREDICTABLE>
    2928:	22244b40 	eorcs	r4, r4, #64, 22	; 0x10000
    292c:	0000080c 	andeq	r0, r0, ip, lsl #16
    2930:	01282d80 	smlawbeq	r8, r0, sp, r2
    2934:	9f131600 	svcls	0x00131600
	...
    294c:	0000024c 	andeq	r0, r0, ip, asr #4
    2950:	0000025c 	andeq	r0, r0, ip, asr r2
    2954:	5c520001 	mrrcpl	0, 0, r0, r2, cr1
    2958:	64000002 	strvs	r0, [r0], #-2
    295c:	05000002 	streq	r0, [r0, #-2]
    2960:	aebc0300 	cdpge	3, 11, cr0, cr12, cr0, {0}
    2964:	02640000 	rsbeq	r0, r4, #0, 0
    2968:	027b0000 	rsbseq	r0, fp, #0, 0
    296c:	00010000 	andeq	r0, r1, r0
    2970:	0002c853 	andeq	ip, r2, r3, asr r8
    2974:	0002d800 	andeq	sp, r2, r0, lsl #16
    2978:	52000100 	andpl	r0, r0, #0
    297c:	000002d8 	ldrdeq	r0, [r0], -r8
    2980:	000002e3 	andeq	r0, r0, r3, ror #5
    2984:	bc030005 	stclt	0, cr0, [r3], {5}
    2988:	e80000ae 	stmda	r0, {r1, r2, r3, r5, r7}
    298c:	eb000002 	bl	299c <__code_start__-0x5664>
    2990:	01000002 	tsteq	r0, r2
    2994:	00005300 	andeq	r5, r0, r0, lsl #6
    2998:	00000000 	andeq	r0, r0, r0
    299c:	00040000 	andeq	r0, r4, r0
    29a0:	00000230 	andeq	r0, r0, r0, lsr r2
    29a4:	00000234 	andeq	r0, r0, r4, lsr r2
    29a8:	00510001 	subseq	r0, r1, r1
    29ac:	00000000 	andeq	r0, r0, r0
    29b0:	02000000 	andeq	r0, r0, #0, 0
    29b4:	00023c00 	andeq	r3, r2, r0, lsl #24
    29b8:	00024400 	andeq	r4, r2, r0, lsl #8
    29bc:	38000200 	stmdacc	r0, {r9}
    29c0:	0000009f 	muleq	r0, pc, r0	; <UNPREDICTABLE>
    29c4:	00000000 	andeq	r0, r0, r0
    29c8:	3c000200 	sfmcc	f0, 4, [r0], {-0}
    29cc:	44000002 	strmi	r0, [r0], #-2
    29d0:	01000002 	tsteq	r0, r2
    29d4:	00005100 	andeq	r5, r0, r0, lsl #2
    29d8:	00000000 	andeq	r0, r0, r0
    29dc:	00010000 	andeq	r0, r1, r0
    29e0:	00000000 	andeq	r0, r0, r0
    29e4:	0000024c 	andeq	r0, r0, ip, asr #4
    29e8:	00000264 	andeq	r0, r0, r4, ror #4
    29ec:	c8510001 	ldmdagt	r1, {r0}^
    29f0:	dc000002 	stcle	0, cr0, [r0], {2}
    29f4:	01000002 	tsteq	r0, r2
    29f8:	02dc5100 	sbcseq	r5, ip, #0
    29fc:	02e80000 	rsceq	r0, r8, #0, 0
    2a00:	00170000 	andseq	r0, r7, r0
    2a04:	5101f338 	tstpl	r1, r8, lsr r3	; <UNPREDICTABLE>
    2a08:	405101f3 	ldrshmi	r0, [r1], #-19	; 0xffffffed
    2a0c:	0c22244b 	cfstrseq	mvf2, [r2], #-300	; 0xfffffed4
    2a10:	80000008 	andhi	r0, r0, r8
    2a14:	0001282d 	andeq	r2, r1, sp, lsr #16
    2a18:	009f1316 	addseq	r1, pc, r6, lsl r3	; <UNPREDICTABLE>
    2a1c:	00000000 	andeq	r0, r0, r0
    2a20:	01000000 	mrseq	r0, (UNDEF: 0)
    2a24:	00000000 	andeq	r0, r0, r0
    2a28:	4c000000 	stcmi	0, cr0, [r0], {-0}
    2a2c:	5c000002 	stcpl	0, cr0, [r0], {2}
    2a30:	01000002 	tsteq	r0, r2
    2a34:	025c5200 	subseq	r5, ip, #0, 4
    2a38:	02640000 	rsbeq	r0, r4, #0, 0
    2a3c:	00050000 	andeq	r0, r5, r0
    2a40:	00aebc03 	adceq	fp, lr, r3, lsl #24
    2a44:	0002c800 	andeq	ip, r2, r0, lsl #16
    2a48:	0002d800 	andeq	sp, r2, r0, lsl #16
    2a4c:	52000100 	andpl	r0, r0, #0
    2a50:	000002d8 	ldrdeq	r0, [r0], -r8
    2a54:	000002e3 	andeq	r0, r0, r3, ror #5
    2a58:	bc030005 	stclt	0, cr0, [r3], {5}
    2a5c:	000000ae 	andeq	r0, r0, lr, lsr #1
    2a60:	00000000 	andeq	r0, r0, r0
    2a64:	04000000 	streq	r0, [r0], #-0
    2a68:	00024c00 	andeq	r4, r2, r0, lsl #24
    2a6c:	00025000 	andeq	r5, r2, r0
    2a70:	51000100 	mrspl	r0, (UNDEF: 16)
	...
    2a7c:	02640003 	rsbeq	r0, r4, #3, 0
    2a80:	02680000 	rsbeq	r0, r8, #0, 0
    2a84:	00010000 	andeq	r0, r1, r0
    2a88:	00000051 	andeq	r0, r0, r1, asr r0
    2a8c:	00000000 	andeq	r0, r0, r0
    2a90:	64000300 	strvs	r0, [r0], #-768	; 0xfffffd00
    2a94:	68000002 	stmdavs	r0, {r1}
    2a98:	01000002 	tsteq	r0, r2
    2a9c:	00005300 	andeq	r5, r0, r0, lsl #6
	...
    2aac:	01bc0000 			; <UNDEFINED> instruction: 0x01bc0000
    2ab0:	01d30000 	bicseq	r0, r3, r0
    2ab4:	00010000 	andeq	r0, r1, r0
    2ab8:	0001d350 	andeq	sp, r1, r0, asr r3
    2abc:	0001f000 	andeq	pc, r1, r0
    2ac0:	54000100 	strpl	r0, [r0], #-256	; 0xffffff00
    2ac4:	000001f0 	strdeq	r0, [r0], -r0	; <UNPREDICTABLE>
    2ac8:	00000208 	andeq	r0, r0, r8, lsl #4
    2acc:	08500001 	ldmdaeq	r0, {r0}^
    2ad0:	20000002 	andcs	r0, r0, r2
    2ad4:	01000002 	tsteq	r0, r2
    2ad8:	00005400 	andeq	r5, r0, r0, lsl #8
	...
    2ae4:	01d80000 	bicseq	r0, r8, r0
    2ae8:	01e30000 	mvneq	r0, r0
    2aec:	00010000 	andeq	r0, r1, r0
    2af0:	0001e350 	andeq	lr, r1, r0, asr r3
    2af4:	0001f000 	andeq	pc, r1, r0
    2af8:	55000100 	strpl	r0, [r0, #-256]	; 0xffffff00
	...
    2b14:	00000124 	andeq	r0, r0, r4, lsr #2
    2b18:	00000138 	andeq	r0, r0, r8, lsr r1
    2b1c:	38500001 	ldmdacc	r0, {r0}^
    2b20:	3c000001 	stccc	0, cr0, [r0], {1}
    2b24:	03000001 	movweq	r0, #1
    2b28:	9f797000 	svcls	0x00797000
    2b2c:	0000013c 	andeq	r0, r0, ip, lsr r1
    2b30:	00000160 	andeq	r0, r0, r0, ror #2
    2b34:	60530001 	subsvs	r0, r3, r1
    2b38:	78000001 	stmdavc	r0, {r0}
    2b3c:	01000001 	tsteq	r0, r1
    2b40:	01785000 	cmneq	r8, r0
    2b44:	01800000 	orreq	r0, r0, r0
    2b48:	00040000 	andeq	r0, r4, r0
    2b4c:	9f5001f3 	svcls	0x005001f3
    2b50:	00000180 	andeq	r0, r0, r0, lsl #3
    2b54:	00000190 	muleq	r0, r0, r1
    2b58:	90530001 	subsls	r0, r3, r1
    2b5c:	9f000001 	svcls	0x00000001
    2b60:	02000001 	andeq	r0, r0, #1, 0
    2b64:	9f689100 	svcls	0x00689100
    2b68:	bc000001 	stclt	0, cr0, [r0], {1}
    2b6c:	09000001 	stmdbeq	r0, {r0}
    2b70:	5001f300 	andpl	pc, r1, r0, lsl #6
    2b74:	f8090723 			; <UNDEFINED> instruction: 0xf8090723
    2b78:	00009f1a 	andeq	r9, r0, sl, lsl pc
	...
    2b84:	01440000 	mrseq	r0, (UNDEF: 68)
    2b88:	01600000 	cmneq	r0, r0
    2b8c:	00010000 	andeq	r0, r1, r0
    2b90:	00018050 	andeq	r8, r1, r0, asr r0
    2b94:	00019c00 	andeq	r9, r1, r0, lsl #24
    2b98:	50000100 	andpl	r0, r0, r0, lsl #2
	...
    2ba4:	01340003 	teqeq	r4, r3
    2ba8:	013c0000 	teqeq	ip, r0
    2bac:	00020000 	andeq	r0, r2, r0
    2bb0:	00009f38 	andeq	r9, r0, r8, lsr pc
    2bb4:	00000000 	andeq	r0, r0, r0
    2bb8:	00030000 	andeq	r0, r3, r0
    2bbc:	01340000 	teqeq	r4, r0
    2bc0:	01380000 	teqeq	r8, r0
    2bc4:	00010000 	andeq	r0, r1, r0
    2bc8:	00013850 	andeq	r3, r1, r0, asr r8
    2bcc:	00013c00 	andeq	r3, r1, r0, lsl #24
    2bd0:	70000300 	andvc	r0, r0, r0, lsl #6
    2bd4:	00009f79 	andeq	r9, r0, r9, ror pc
	...
    2bec:	00000030 	andeq	r0, r0, r0, lsr r0
    2bf0:	00000060 	andeq	r0, r0, r0, rrx
    2bf4:	60500001 	subsvs	r0, r0, r1
    2bf8:	6c000000 	stcvs	0, cr0, [r0], {-0}
    2bfc:	05000000 	streq	r0, [r0, #-0]
    2c00:	aebc0300 	cdpge	3, 11, cr0, cr12, cr0, {0}
    2c04:	006c0000 	rsbeq	r0, ip, r0
    2c08:	00840000 	addeq	r0, r4, r0
    2c0c:	00010000 	andeq	r0, r1, r0
    2c10:	00008450 	andeq	r8, r0, r0, asr r4
    2c14:	00008c00 	andeq	r8, r0, r0, lsl #24
    2c18:	f3000400 	vshl.u8	d0, d0, d0
    2c1c:	8c9f5001 	ldchi	0, cr5, [pc], {1}
    2c20:	ac000000 	stcge	0, cr0, [r0], {-0}
    2c24:	01000000 	mrseq	r0, (UNDEF: 0)
    2c28:	00ac5000 	adceq	r5, ip, r0
    2c2c:	00af0000 	adceq	r0, pc, r0
    2c30:	00020000 	andeq	r0, r2, r0
    2c34:	00af6891 	umlaleq	r6, pc, r1, r8	; <UNPREDICTABLE>
    2c38:	00cc0000 	sbceq	r0, ip, r0
    2c3c:	00040000 	andeq	r0, r4, r0
    2c40:	9f5001f3 	svcls	0x005001f3
	...
    2c54:	00000030 	andeq	r0, r0, r0, lsr r0
    2c58:	00000080 	andeq	r0, r0, r0, lsl #1
    2c5c:	80510001 	subshi	r0, r1, r1
    2c60:	8c000000 	stchi	0, cr0, [r0], {-0}
    2c64:	04000000 	streq	r0, [r0], #-0
    2c68:	5101f300 	mrspl	pc, SP_irq	; <UNPREDICTABLE>
    2c6c:	00008c9f 	muleq	r0, pc, ip	; <UNPREDICTABLE>
    2c70:	0000a800 	andeq	sl, r0, r0, lsl #16
    2c74:	51000100 	mrspl	r0, (UNDEF: 16)
    2c78:	000000a8 	andeq	r0, r0, r8, lsr #1
    2c7c:	000000cc 	andeq	r0, r0, ip, asr #1
    2c80:	01f30004 	mvnseq	r0, r4
    2c84:	00009f51 	andeq	r9, r0, r1, asr pc
    2c88:	00000000 	andeq	r0, r0, r0
    2c8c:	00010000 	andeq	r0, r1, r0
	...
    2c9c:	00000038 	andeq	r0, r0, r8, lsr r0
    2ca0:	00000060 	andeq	r0, r0, r0, rrx
    2ca4:	60500001 	subsvs	r0, r0, r1
    2ca8:	6c000000 	stcvs	0, cr0, [r0], {-0}
    2cac:	05000000 	streq	r0, [r0, #-0]
    2cb0:	aebc0300 	cdpge	3, 11, cr0, cr12, cr0, {0}
    2cb4:	006c0000 	rsbeq	r0, ip, r0
    2cb8:	00840000 	addeq	r0, r4, r0
    2cbc:	00010000 	andeq	r0, r1, r0
    2cc0:	00008450 	andeq	r8, r0, r0, asr r4
    2cc4:	00008c00 	andeq	r8, r0, r0, lsl #24
    2cc8:	f3000400 	vshl.u8	d0, d0, d0
    2ccc:	8c9f5001 	ldchi	0, cr5, [pc], {1}
    2cd0:	ac000000 	stcge	0, cr0, [r0], {-0}
    2cd4:	01000000 	mrseq	r0, (UNDEF: 0)
    2cd8:	00ac5000 	adceq	r5, ip, r0
    2cdc:	00af0000 	adceq	r0, pc, r0
    2ce0:	00020000 	andeq	r0, r2, r0
    2ce4:	00af6891 	umlaleq	r6, pc, r1, r8	; <UNPREDICTABLE>
    2ce8:	00cc0000 	sbceq	r0, ip, r0
    2cec:	00040000 	andeq	r0, r4, r0
    2cf0:	9f5001f3 	svcls	0x005001f3
	...
    2d00:	01700000 	cmneq	r0, r0
    2d04:	017c0000 	cmneq	ip, r0
    2d08:	00010000 	andeq	r0, r1, r0
    2d0c:	00017c50 	andeq	r7, r1, r0, asr ip
    2d10:	00018800 	andeq	r8, r1, r0, lsl #16
    2d14:	54000100 	strpl	r0, [r0], #-256	; 0xffffff00
    2d18:	00000188 	andeq	r0, r0, r8, lsl #3
    2d1c:	00000198 	muleq	r0, r8, r1
    2d20:	01f30004 	mvnseq	r0, r4
    2d24:	00009f50 	andeq	r9, r0, r0, asr pc
	...
    2d38:	00000178 	andeq	r0, r0, r8, ror r1
    2d3c:	0000017c 	andeq	r0, r0, ip, ror r1
    2d40:	0070000b 	rsbseq	r0, r0, fp
    2d44:	b4232535 	strtlt	r2, [r3], #-1333	; 0xfffffacb
    2d48:	02818080 	addeq	r8, r1, #128, 0	; 0x80
    2d4c:	00017c9f 	muleq	r1, pc, ip	; <UNPREDICTABLE>
    2d50:	00018000 	andeq	r8, r1, r0
    2d54:	74000b00 	strvc	r0, [r0], #-2816	; 0xfffff500
    2d58:	23253500 			; <UNDEFINED> instruction: 0x23253500
    2d5c:	818080b4 	strhhi	r8, [r0, r4]
    2d60:	01809f02 	orreq	r9, r0, r2, lsl #30
    2d64:	01830000 	orreq	r0, r3, r0
    2d68:	00010000 	andeq	r0, r1, r0
    2d6c:	00018350 	andeq	r8, r1, r0, asr r3
    2d70:	00018800 	andeq	r8, r1, r0, lsl #16
    2d74:	74000b00 	strvc	r0, [r0], #-2816	; 0xfffff500
    2d78:	23253500 			; <UNDEFINED> instruction: 0x23253500
    2d7c:	818080b4 	strhhi	r8, [r0, r4]
    2d80:	01889f02 	orreq	r9, r8, r2, lsl #30
    2d84:	01980000 	orrseq	r0, r8, r0
    2d88:	000c0000 	andeq	r0, ip, r0
    2d8c:	355001f3 	ldrbcc	r0, [r0, #-499]	; 0xfffffe0d
    2d90:	80b42325 	adcshi	r2, r4, r5, lsr #6
    2d94:	9f028180 	svcls	0x00028180
	...
    2da0:	00000001 	andeq	r0, r0, r1
    2da4:	01780000 	cmneq	r8, r0
    2da8:	017c0000 	cmneq	ip, r0
    2dac:	00050000 	andeq	r0, r5, r0
    2db0:	1a4f0070 	bne	13c2f78 <__bss_end__+0x13b7c80>
    2db4:	00017c9f 	muleq	r1, pc, ip	; <UNPREDICTABLE>
    2db8:	00018800 	andeq	r8, r1, r0, lsl #16
    2dbc:	74000500 	strvc	r0, [r0], #-1280	; 0xfffffb00
    2dc0:	9f1a4f00 	svcls	0x001a4f00
    2dc4:	00000188 	andeq	r0, r0, r8, lsl #3
    2dc8:	00000198 	muleq	r0, r8, r1
    2dcc:	00540001 	subseq	r0, r4, r1
	...
    2de0:	40000000 	andmi	r0, r0, r0
    2de4:	54000001 	strpl	r0, [r0], #-1
    2de8:	01000001 	tsteq	r0, r1
    2dec:	01545000 	cmpeq	r4, r0
    2df0:	01580000 	cmpeq	r8, r0
    2df4:	00010000 	andeq	r0, r1, r0
    2df8:	00015851 	andeq	r5, r1, r1, asr r8
    2dfc:	00015c00 	andeq	r5, r1, r0, lsl #24
    2e00:	f3000400 	vshl.u8	d0, d0, d0
    2e04:	5c9f5001 	ldcpl	0, cr5, [pc], {1}
    2e08:	60000001 	andvs	r0, r0, r1
    2e0c:	01000001 	tsteq	r0, r1
    2e10:	01605000 	cmneq	r0, r0
    2e14:	01640000 	cmneq	r4, r0
    2e18:	00010000 	andeq	r0, r1, r0
    2e1c:	00016451 	andeq	r6, r1, r1, asr r4
    2e20:	00017000 	andeq	r7, r1, r0
    2e24:	f3000400 	vshl.u8	d0, d0, d0
    2e28:	009f5001 	addseq	r5, pc, r1
	...
    2e34:	40000000 	andmi	r0, r0, r0
    2e38:	4c000001 	stcmi	0, cr0, [r0], {1}
    2e3c:	01000001 	tsteq	r0, r1
    2e40:	014c5100 	mrseq	r5, (UNDEF: 92)
    2e44:	01700000 	cmneq	r0, r0
    2e48:	00040000 	andeq	r0, r4, r0
    2e4c:	9f5101f3 	svcls	0x005101f3
	...
    2e58:	00000001 	andeq	r0, r0, r1
    2e5c:	01500000 	cmpeq	r0, r0
    2e60:	01540000 	cmpeq	r4, r0
    2e64:	00010000 	andeq	r0, r1, r0
    2e68:	00015450 	andeq	r5, r1, r0, asr r4
    2e6c:	00015800 	andeq	r5, r1, r0, lsl #16
    2e70:	51000100 	mrspl	r0, (UNDEF: 16)
    2e74:	00000158 	andeq	r0, r0, r8, asr r1
    2e78:	0000015c 	andeq	r0, r0, ip, asr r1
    2e7c:	01f30004 	mvnseq	r0, r4
    2e80:	00009f50 	andeq	r9, r0, r0, asr pc
    2e84:	00000000 	andeq	r0, r0, r0
    2e88:	00020000 	andeq	r0, r2, r0
    2e8c:	00000000 	andeq	r0, r0, r0
    2e90:	0000015c 	andeq	r0, r0, ip, asr r1
    2e94:	00000160 	andeq	r0, r0, r0, ror #2
    2e98:	60500001 	subsvs	r0, r0, r1
    2e9c:	64000001 	strvs	r0, [r0], #-1
    2ea0:	01000001 	tsteq	r0, r1
    2ea4:	01645100 	cmneq	r4, r0, lsl #2
    2ea8:	01700000 	cmneq	r0, r0
    2eac:	00040000 	andeq	r0, r4, r0
    2eb0:	9f5001f3 	svcls	0x005001f3
	...
    2ec0:	00e80000 	rsceq	r0, r8, r0
    2ec4:	01080000 	mrseq	r0, (UNDEF: 8)
    2ec8:	00010000 	andeq	r0, r1, r0
    2ecc:	00010850 	andeq	r0, r1, r0, asr r8
    2ed0:	00012800 	andeq	r2, r1, r0, lsl #16
    2ed4:	54000100 	strpl	r0, [r0], #-256	; 0xffffff00
    2ed8:	00000128 	andeq	r0, r0, r8, lsr #2
    2edc:	00000140 	andeq	r0, r0, r0, asr #2
    2ee0:	01f30004 	mvnseq	r0, r4
    2ee4:	00009f50 	andeq	r9, r0, r0, asr pc
    2ee8:	00000000 	andeq	r0, r0, r0
    2eec:	00020000 	andeq	r0, r2, r0
    2ef0:	00000000 	andeq	r0, r0, r0
    2ef4:	000000e8 	andeq	r0, r0, r8, ror #1
    2ef8:	00000108 	andeq	r0, r0, r8, lsl #2
    2efc:	08500001 	ldmdaeq	r0, {r0}^
    2f00:	28000001 	stmdacs	r0, {r0}
    2f04:	01000001 	tsteq	r0, r1
    2f08:	01285400 			; <UNDEFINED> instruction: 0x01285400
    2f0c:	01400000 	mrseq	r0, (UNDEF: 64)
    2f10:	00040000 	andeq	r0, r4, r0
    2f14:	9f5001f3 	svcls	0x005001f3
	...
    2f24:	00f00000 	rscseq	r0, r0, r0
    2f28:	01080000 	mrseq	r0, (UNDEF: 8)
    2f2c:	00010000 	andeq	r0, r1, r0
    2f30:	00010850 	andeq	r0, r1, r0, asr r8
    2f34:	00012800 	andeq	r2, r1, r0, lsl #16
    2f38:	54000100 	strpl	r0, [r0], #-256	; 0xffffff00
    2f3c:	00000128 	andeq	r0, r0, r8, lsr #2
    2f40:	00000140 	andeq	r0, r0, r0, asr #2
    2f44:	01f30004 	mvnseq	r0, r4
    2f48:	00009f50 	andeq	r9, r0, r0, asr pc
    2f4c:	00000000 	andeq	r0, r0, r0
    2f50:	00030000 	andeq	r0, r3, r0
    2f54:	00000000 	andeq	r0, r0, r0
    2f58:	000000f0 	strdeq	r0, [r0], -r0	; <UNPREDICTABLE>
    2f5c:	00000108 	andeq	r0, r0, r8, lsl #2
    2f60:	00700007 	rsbseq	r0, r0, r7
    2f64:	1e331d3a 	mrcne	13, 1, r1, cr3, cr10, {1}
    2f68:	0001089f 	muleq	r1, pc, r8	; <UNPREDICTABLE>
    2f6c:	00012800 	andeq	r2, r1, r0, lsl #16
    2f70:	74000700 	strvc	r0, [r0], #-1792	; 0xfffff900
    2f74:	331d3a00 	tstcc	sp, #0, 20
    2f78:	01289f1e 			; <UNDEFINED> instruction: 0x01289f1e
    2f7c:	01400000 	mrseq	r0, (UNDEF: 64)
    2f80:	00080000 	andeq	r0, r8, r0
    2f84:	3a5001f3 	bcc	1403758 <__bss_end__+0x13f8460>
    2f88:	9f1e331d 	svcls	0x001e331d
	...
    2f98:	01100000 	tsteq	r0, r0
    2f9c:	01380000 	teqeq	r8, r0
    2fa0:	00010000 	andeq	r0, r1, r0
    2fa4:	00013856 	andeq	r3, r1, r6, asr r8
    2fa8:	00013b00 	andeq	r3, r1, r0, lsl #22
    2fac:	50000100 	andpl	r0, r0, r0, lsl #2
    2fb0:	0000013b 	andeq	r0, r0, fp, lsr r1
    2fb4:	00000140 	andeq	r0, r0, r0, asr #2
    2fb8:	01f30026 	mvnseq	r0, r6, lsr #32
    2fbc:	f72cf750 			; <UNDEFINED> instruction: 0xf72cf750
    2fc0:	0825f425 	stmdaeq	r5!, {r0, r2, r5, sl, ip, sp, lr, pc}
    2fc4:	cccccccd 	stclgt	12, cr12, [ip], {205}	; 0xcd
    2fc8:	00000000 	andeq	r0, r0, r0
    2fcc:	f720081e 			; <UNDEFINED> instruction: 0xf720081e
    2fd0:	2cf72525 	cfldr64cs	mvdx2, [r7], #148	; 0x94
    2fd4:	253300f7 	ldrcs	r0, [r3, #-247]!	; 0xffffff09
    2fd8:	a0808023 	addge	r8, r0, r3, lsr #32
    2fdc:	9f243240 	svcls	0x00243240
	...
    2fe8:	00010100 	andeq	r0, r1, r0, lsl #2
    2fec:	00000000 	andeq	r0, r0, r0
    2ff0:	00000120 	andeq	r0, r0, r0, lsr #2
    2ff4:	00000120 	andeq	r0, r0, r0, lsr #2
    2ff8:	20500001 	subscs	r0, r0, r1
    2ffc:	28000001 	stmdacs	r0, {r0}
    3000:	0d000001 	stceq	0, cr0, [r0, #-4]
    3004:	00743700 	rsbseq	r3, r4, r0, lsl #14
    3008:	1e331d3a 	mrcne	13, 1, r1, cr3, cr10, {1}
    300c:	00702024 	rsbseq	r2, r0, r4, lsr #32
    3010:	01289f1a 			; <UNDEFINED> instruction: 0x01289f1a
    3014:	01300000 	teqeq	r0, r0
    3018:	000e0000 	andeq	r0, lr, r0
    301c:	5001f337 	andpl	pc, r1, r7, lsr r3	; <UNPREDICTABLE>
    3020:	1e331d3a 	mrcne	13, 1, r1, cr3, cr10, {1}
    3024:	00702024 	rsbseq	r2, r0, r4, lsr #32
    3028:	01309f1a 	teqeq	r0, sl, lsl pc
    302c:	013b0000 	teqeq	fp, r0
    3030:	000e0000 	andeq	r0, lr, r0
    3034:	5001f337 	andpl	pc, r1, r7, lsr r3	; <UNPREDICTABLE>
    3038:	1e331d3a 	mrcne	13, 1, r1, cr3, cr10, {1}
    303c:	00732024 	rsbseq	r2, r3, r4, lsr #32
    3040:	00009f1a 	andeq	r9, r0, sl, lsl pc
	...
    304c:	00600000 	rsbeq	r0, r0, r0
    3050:	00900000 	addseq	r0, r0, r0
    3054:	00010000 	andeq	r0, r1, r0
    3058:	00009050 	andeq	r9, r0, r0, asr r0
    305c:	0000b800 	andeq	fp, r0, r0, lsl #16
    3060:	f3000400 	vshl.u8	d0, d0, d0
    3064:	009f5001 	addseq	r5, pc, r1
    3068:	00000000 	andeq	r0, r0, r0
    306c:	02000000 	andeq	r0, r0, #0, 0
    3070:	60000000 	andvs	r0, r0, r0
    3074:	90000000 	andls	r0, r0, r0
    3078:	01000000 	mrseq	r0, (UNDEF: 0)
    307c:	00905000 	addseq	r5, r0, r0
    3080:	00b80000 	adcseq	r0, r8, r0
    3084:	00040000 	andeq	r0, r4, r0
    3088:	9f5001f3 	svcls	0x005001f3
	...
    3098:	00000068 	andeq	r0, r0, r8, rrx
    309c:	00000090 	muleq	r0, r0, r0
    30a0:	90500001 	subsls	r0, r0, r1
    30a4:	b8000000 	stmdalt	r0, {}	; <UNPREDICTABLE>
    30a8:	04000000 	streq	r0, [r0], #-0
    30ac:	5001f300 	andpl	pc, r1, r0, lsl #6
    30b0:	0000009f 	muleq	r0, pc, r0	; <UNPREDICTABLE>
	...
    30bc:	0000a000 	andeq	sl, r0, r0
    30c0:	0000b000 	andeq	fp, r0, r0
    30c4:	54000100 	strpl	r0, [r0], #-256	; 0xffffff00
    30c8:	000000b0 	strheq	r0, [r0], -r0	; <UNPREDICTABLE>
    30cc:	000000b8 	strheq	r0, [r0], -r8
    30d0:	01f30029 	mvnseq	r0, r9, lsr #32
    30d4:	5001f350 	andpl	pc, r1, r0, asr r3	; <UNPREDICTABLE>
    30d8:	25f72cf7 	ldrbcs	r2, [r7, #3319]!	; 0xcf7
    30dc:	cd0825f4 	cfstr32gt	mvfx2, [r8, #-976]	; 0xfffffc30
    30e0:	00cccccc 	sbceq	ip, ip, ip, asr #25
    30e4:	1e000000 	cdpne	0, 0, cr0, cr0, cr0, {0}
    30e8:	25f72008 	ldrbcs	r2, [r7, #8]!
    30ec:	f72cf725 			; <UNDEFINED> instruction: 0xf72cf725
    30f0:	35253300 	strcc	r3, [r5, #-768]!	; 0xfffffd00
    30f4:	1c24311e 	stfnes	f3, [r4], #-120	; 0xffffff88
    30f8:	009f1e33 	addseq	r1, pc, r3, lsr lr	; <UNPREDICTABLE>
    30fc:	00000000 	andeq	r0, r0, r0
    3100:	01000000 	mrseq	r0, (UNDEF: 0)
    3104:	00000000 	andeq	r0, r0, r0
    3108:	0000a000 	andeq	sl, r0, r0
    310c:	0000b000 	andeq	fp, r0, r0
    3110:	55000100 	strpl	r0, [r0, #-256]	; 0xffffff00
    3114:	000000b0 	strheq	r0, [r0], -r0	; <UNPREDICTABLE>
    3118:	000000b3 	strheq	r0, [r0], -r3
    311c:	b3500001 	cmplt	r0, #1, 0
    3120:	b8000000 	stmdalt	r0, {}	; <UNPREDICTABLE>
    3124:	26000000 	strcs	r0, [r0], -r0
    3128:	5001f300 	andpl	pc, r1, r0, lsl #6
    312c:	25f72cf7 	ldrbcs	r2, [r7, #3319]!	; 0xcf7
    3130:	cd0825f4 	cfstr32gt	mvfx2, [r8, #-976]	; 0xfffffc30
    3134:	00cccccc 	sbceq	ip, ip, ip, asr #25
    3138:	1e000000 	cdpne	0, 0, cr0, cr0, cr0, {0}
    313c:	25f72008 	ldrbcs	r2, [r7, #8]!
    3140:	f72cf725 			; <UNDEFINED> instruction: 0xf72cf725
    3144:	23253300 			; <UNDEFINED> instruction: 0x23253300
    3148:	40a08080 	adcmi	r8, r0, r0, lsl #1
    314c:	009f2432 	addseq	r2, pc, r2, lsr r4	; <UNPREDICTABLE>
    3150:	00000000 	andeq	r0, r0, r0
    3154:	02000000 	andeq	r0, r0, #0, 0
    3158:	01010000 	mrseq	r0, (UNDEF: 1)
    315c:	a0000000 	andge	r0, r0, r0
    3160:	a4000000 	strge	r0, [r0], #-0
    3164:	01000000 	mrseq	r0, (UNDEF: 0)
    3168:	00a45000 	adceq	r5, r4, r0
    316c:	00a40000 	adceq	r0, r4, r0
    3170:	00010000 	andeq	r0, r1, r0
    3174:	0000a453 	andeq	sl, r0, r3, asr r4
    3178:	0000a800 	andeq	sl, r0, r0, lsl #16
    317c:	31000800 	tstcc	r0, r0, lsl #16
    3180:	73240074 			; <UNDEFINED> instruction: 0x73240074
    3184:	a89f2100 	ldmge	pc, {r8, sp}	; <UNPREDICTABLE>
    3188:	b3000000 	movwlt	r0, #0
    318c:	01000000 	mrseq	r0, (UNDEF: 0)
    3190:	00005100 	andeq	r5, r0, r0, lsl #2
	...
    31a0:	003c0000 	eorseq	r0, ip, r0
    31a4:	00010000 	andeq	r0, r1, r0
    31a8:	00003c50 	andeq	r3, r0, r0, asr ip
    31ac:	00006000 	andeq	r6, r0, r0
    31b0:	f3000400 	vshl.u8	d0, d0, d0
    31b4:	009f5001 	addseq	r5, pc, r1
	...
    31c4:	3f000000 	svccc	0x00000000
    31c8:	01000000 	mrseq	r0, (UNDEF: 0)
    31cc:	003f5100 	eorseq	r5, pc, r0, lsl #2
    31d0:	00600000 	rsbeq	r0, r0, r0
    31d4:	00040000 	andeq	r0, r4, r0
    31d8:	9f5101f3 	svcls	0x005101f3
	...
    31e8:	00000008 	andeq	r0, r0, r8
    31ec:	0000003f 	andeq	r0, r0, pc, lsr r0
    31f0:	3f510001 	svccc	0x00510001
    31f4:	60000000 	andvs	r0, r0, r0
    31f8:	04000000 	streq	r0, [r0], #-0
    31fc:	5101f300 	mrspl	pc, SP_irq	; <UNPREDICTABLE>
    3200:	0000009f 	muleq	r0, pc, r0	; <UNPREDICTABLE>
	...
    320c:	00000800 	andeq	r0, r0, r0, lsl #16
    3210:	00003c00 	andeq	r3, r0, r0, lsl #24
    3214:	50000100 	andpl	r0, r0, r0, lsl #2
    3218:	0000003c 	andeq	r0, r0, ip, lsr r0
    321c:	00000060 	andeq	r0, r0, r0, rrx
    3220:	01f30004 	mvnseq	r0, r4
    3224:	00009f50 	andeq	r9, r0, r0, asr pc
	...
    3230:	00480000 	subeq	r0, r8, r0
    3234:	00580000 	subseq	r0, r8, r0
    3238:	00010000 	andeq	r0, r1, r0
    323c:	00005854 	andeq	r5, r0, r4, asr r8
    3240:	00006000 	andeq	r6, r0, r0
    3244:	f3002900 	vmls.i8	d2, d0, d0
    3248:	01f35001 	mvnseq	r5, r1
    324c:	f72cf750 			; <UNDEFINED> instruction: 0xf72cf750
    3250:	0825f425 	stmdaeq	r5!, {r0, r2, r5, sl, ip, sp, lr, pc}
    3254:	cccccccd 	stclgt	12, cr12, [ip], {205}	; 0xcd
    3258:	00000000 	andeq	r0, r0, r0
    325c:	f720081e 			; <UNDEFINED> instruction: 0xf720081e
    3260:	2cf72525 	cfldr64cs	mvdx2, [r7], #148	; 0x94
    3264:	253300f7 	ldrcs	r0, [r3, #-247]!	; 0xffffff09
    3268:	24311e35 	ldrtcs	r1, [r1], #-3637	; 0xfffff1cb
    326c:	9f1e331c 	svcls	0x001e331c
	...
    3278:	00000001 	andeq	r0, r0, r1
    327c:	00480000 	subeq	r0, r8, r0
    3280:	00580000 	subseq	r0, r8, r0
    3284:	00010000 	andeq	r0, r1, r0
    3288:	00005856 	andeq	r5, r0, r6, asr r8
    328c:	00005b00 	andeq	r5, r0, r0, lsl #22
    3290:	50000100 	andpl	r0, r0, r0, lsl #2
    3294:	0000005b 	andeq	r0, r0, fp, asr r0
    3298:	00000060 	andeq	r0, r0, r0, rrx
    329c:	01f30026 	mvnseq	r0, r6, lsr #32
    32a0:	f72cf750 			; <UNDEFINED> instruction: 0xf72cf750
    32a4:	0825f425 	stmdaeq	r5!, {r0, r2, r5, sl, ip, sp, lr, pc}
    32a8:	cccccccd 	stclgt	12, cr12, [ip], {205}	; 0xcd
    32ac:	00000000 	andeq	r0, r0, r0
    32b0:	f720081e 			; <UNDEFINED> instruction: 0xf720081e
    32b4:	2cf72525 	cfldr64cs	mvdx2, [r7], #148	; 0x94
    32b8:	253300f7 	ldrcs	r0, [r3, #-247]!	; 0xffffff09
    32bc:	a0808023 	addge	r8, r0, r3, lsr #32
    32c0:	9f243240 	svcls	0x00243240
	...
    32cc:	01000002 	tsteq	r0, r2
    32d0:	00000001 	andeq	r0, r0, r1
    32d4:	00000048 	andeq	r0, r0, r8, asr #32
    32d8:	0000004c 	andeq	r0, r0, ip, asr #32
    32dc:	4c500001 	mrrcmi	0, 0, r0, r0, cr1	; <UNPREDICTABLE>
    32e0:	4c000000 	stcmi	0, cr0, [r0], {-0}
    32e4:	01000000 	mrseq	r0, (UNDEF: 0)
    32e8:	004c5100 	subeq	r5, ip, r0, lsl #2
    32ec:	00500000 	subseq	r0, r0, r0
    32f0:	000c0000 	andeq	r0, ip, r0
    32f4:	ff080075 			; <UNDEFINED> instruction: 0xff080075
    32f8:	2400741a 	strcs	r7, [r0], #-1050	; 0xfffffbe6
    32fc:	9f210071 	svcls	0x00210071
    3300:	00000050 	andeq	r0, r0, r0, asr r0
    3304:	00000054 	andeq	r0, r0, r4, asr r0
    3308:	74370012 	ldrtvc	r0, [r7], #-18	; 0xffffffee
    330c:	70202400 	eorvc	r2, r0, r0, lsl #8
    3310:	00751a00 	rsbseq	r1, r5, r0, lsl #20
    3314:	741aff08 	ldrvc	pc, [sl], #-3848	; 0xfffff0f8
    3318:	9f212400 	svcls	0x00212400
	...
    3328:	00b80000 	adcseq	r0, r8, r0
    332c:	00c40000 	sbceq	r0, r4, r0
    3330:	00010000 	andeq	r0, r1, r0
    3334:	0000c450 	andeq	ip, r0, r0, asr r4
    3338:	0000cb00 	andeq	ip, r0, r0, lsl #22
    333c:	53000100 	movwpl	r0, #256	; 0x100
    3340:	000000cb 	andeq	r0, r0, fp, asr #1
    3344:	000000d0 	ldrdeq	r0, [r0], -r0	; <UNPREDICTABLE>
    3348:	01f30004 	mvnseq	r0, r4
    334c:	00009f50 	andeq	r9, r0, r0, asr pc
	...
    335c:	000000d0 	ldrdeq	r0, [r0], -r0	; <UNPREDICTABLE>
    3360:	000000dc 	ldrdeq	r0, [r0], -ip
    3364:	dc500001 	mrrcle	0, 0, r0, r0, cr1	; <UNPREDICTABLE>
    3368:	e3000000 	movw	r0, #0
    336c:	01000000 	mrseq	r0, (UNDEF: 0)
    3370:	00e35300 	rsceq	r5, r3, r0, lsl #6
    3374:	00e80000 	rsceq	r0, r8, r0
    3378:	00040000 	andeq	r0, r4, r0
    337c:	9f5001f3 	svcls	0x005001f3
	...
    3390:	0000000b 	andeq	r0, r0, fp
    3394:	0b500001 	bleq	14033a0 <__bss_end__+0x13f80a8>
    3398:	14000000 	strne	r0, [r0], #-0
    339c:	01000000 	mrseq	r0, (UNDEF: 0)
    33a0:	00005400 	andeq	r5, r0, r0, lsl #8
	...
    33b0:	00180000 	andseq	r0, r8, r0
    33b4:	00010000 	andeq	r0, r1, r0
    33b8:	00001851 	andeq	r1, r0, r1, asr r8
    33bc:	00002c00 	andeq	r2, r0, r0, lsl #24
    33c0:	f3000400 	vshl.u8	d0, d0, d0
    33c4:	009f5101 	addseq	r5, pc, r1, lsl #2
    33c8:	00000000 	andeq	r0, r0, r0
    33cc:	02000000 	andeq	r0, r0, #0, 0
	...
    33d8:	00000101 	andeq	r0, r0, r1, lsl #2
    33dc:	00000000 	andeq	r0, r0, r0
    33e0:	00000400 	andeq	r0, r0, r0, lsl #8
    33e4:	50000100 	andpl	r0, r0, r0, lsl #2
    33e8:	00000004 	andeq	r0, r0, r4
    33ec:	00000008 	andeq	r0, r0, r8
    33f0:	08520001 	ldmdaeq	r2, {r0}^
    33f4:	0c000000 	stceq	0, cr0, [r0], {-0}
    33f8:	03000000 	movweq	r0, #0
    33fc:	9f017200 	svcls	0x00017200
    3400:	0000000c 	andeq	r0, r0, ip
    3404:	00000018 	andeq	r0, r0, r8, lsl r0
    3408:	18520001 	ldmdane	r2, {r0}^
    340c:	1c000000 	stcne	0, cr0, [r0], {-0}
    3410:	01000000 	mrseq	r0, (UNDEF: 0)
    3414:	001c5300 	andseq	r5, ip, r0, lsl #6
    3418:	00240000 	eoreq	r0, r4, r0
    341c:	00030000 	andeq	r0, r3, r0
    3420:	249f0173 	ldrcs	r0, [pc], #371	; 3428 <__code_start__-0x4bd8>
    3424:	2c000000 	stccs	0, cr0, [r0], {-0}
    3428:	01000000 	mrseq	r0, (UNDEF: 0)
    342c:	00005300 	andeq	r5, r0, r0, lsl #6
    3430:	00000000 	andeq	r0, r0, r0
    3434:	02030000 	andeq	r0, r3, #0, 0
    3438:	00000002 	andeq	r0, r0, r2
    343c:	00000000 	andeq	r0, r0, r0
    3440:	00000018 	andeq	r0, r0, r8, lsl r0
    3444:	18510001 	ldmdane	r1, {r0}^
    3448:	1c000000 	stcne	0, cr0, [r0], {-0}
    344c:	03000000 	movweq	r0, #0
    3450:	9f017100 	svcls	0x00017100
    3454:	0000001c 	andeq	r0, r0, ip, lsl r0
    3458:	0000002c 	andeq	r0, r0, ip, lsr #32
    345c:	00510001 	subseq	r0, r1, r1
	...
    346c:	00000800 	andeq	r0, r0, r0, lsl #16
    3470:	00000c00 	andeq	r0, r0, r0, lsl #24
    3474:	72000200 	andvc	r0, r0, #0, 4
    3478:	00000c00 	andeq	r0, r0, r0, lsl #24
    347c:	00001800 	andeq	r1, r0, r0, lsl #16
    3480:	73000200 	movwvc	r0, #512	; 0x200
    3484:	00001c00 	andeq	r1, r0, r0, lsl #24
    3488:	00002c00 	andeq	r2, r0, r0, lsl #24
    348c:	52000100 	andpl	r0, r0, #0
	...
    34a8:	00000014 	andeq	r0, r0, r4, lsl r0
    34ac:	14500001 	ldrbne	r0, [r0], #-1
    34b0:	18000000 	stmdane	r0, {}	; <UNPREDICTABLE>
    34b4:	03000000 	movweq	r0, #0
    34b8:	9f017000 	svcls	0x00017000
    34bc:	00000018 	andeq	r0, r0, r8, lsl r0
    34c0:	00000020 	andeq	r0, r0, r0, lsr #32
    34c4:	24500001 	ldrbcs	r0, [r0], #-1
    34c8:	28000000 	stmdacs	r0, {}	; <UNPREDICTABLE>
    34cc:	01000000 	mrseq	r0, (UNDEF: 0)
    34d0:	00285000 	eoreq	r5, r8, r0
    34d4:	00300000 	eorseq	r0, r0, r0
    34d8:	00030000 	andeq	r0, r3, r0
    34dc:	389f0170 	ldmcc	pc, {r4, r5, r6, r8}	; <UNPREDICTABLE>
    34e0:	40000000 	andmi	r0, r0, r0
    34e4:	01000000 	mrseq	r0, (UNDEF: 0)
    34e8:	00005000 	andeq	r5, r0, r0
	...
    34fc:	00000024 	andeq	r0, r0, r4, lsr #32
    3500:	24510001 	ldrbcs	r0, [r1], #-1
    3504:	28000000 	stmdacs	r0, {}	; <UNPREDICTABLE>
    3508:	01000000 	mrseq	r0, (UNDEF: 0)
    350c:	00285c00 	eoreq	r5, r8, r0, lsl #24
    3510:	00440000 	subeq	r0, r4, r0
    3514:	00010000 	andeq	r0, r1, r0
    3518:	00000051 	andeq	r0, r0, r1, asr r0
    351c:	00000000 	andeq	r0, r0, r0
    3520:	02020000 	andeq	r0, r2, #0, 0
    3524:	00000000 	andeq	r0, r0, r0
    3528:	04000000 	streq	r0, [r0], #-0
    352c:	01000000 	mrseq	r0, (UNDEF: 0)
    3530:	00045100 	andeq	r5, r4, r0, lsl #2
    3534:	00080000 	andeq	r0, r8, r0
    3538:	00030000 	andeq	r0, r3, r0
    353c:	089f0171 	ldmeq	pc, {r0, r4, r5, r6, r8}	; <UNPREDICTABLE>
    3540:	18000000 	stmdane	r0, {}	; <UNPREDICTABLE>
    3544:	01000000 	mrseq	r0, (UNDEF: 0)
    3548:	00005100 	andeq	r5, r0, r0, lsl #2
    354c:	00000000 	andeq	r0, r0, r0
    3550:	00020000 	andeq	r0, r2, r0
    3554:	00000000 	andeq	r0, r0, r0
    3558:	00000004 	andeq	r0, r0, r4
    355c:	00500001 	subseq	r0, r0, r1
	...
    356c:	08000000 	stmdaeq	r0, {}	; <UNPREDICTABLE>
    3570:	01000000 	mrseq	r0, (UNDEF: 0)
    3574:	00085000 	andeq	r5, r8, r0
    3578:	00300000 	eorseq	r0, r0, r0
    357c:	00040000 	andeq	r0, r4, r0
    3580:	9f5001f3 	svcls	0x005001f3
	...
    3594:	00000008 	andeq	r0, r0, r8
    3598:	08510001 	ldmdaeq	r1, {r0}^
    359c:	30000000 	andcc	r0, r0, r0
    35a0:	04000000 	streq	r0, [r0], #-0
    35a4:	5101f300 	mrspl	pc, SP_irq	; <UNPREDICTABLE>
    35a8:	0000009f 	muleq	r0, pc, r0	; <UNPREDICTABLE>
	...
    35b4:	01000000 	mrseq	r0, (UNDEF: 0)
    35b8:	00000202 	andeq	r0, r0, r2, lsl #4
    35bc:	04000000 	streq	r0, [r0], #-0
    35c0:	01000000 	mrseq	r0, (UNDEF: 0)
    35c4:	00045200 	andeq	r5, r4, r0, lsl #4
    35c8:	00080000 	andeq	r0, r8, r0
    35cc:	00040000 	andeq	r0, r4, r0
    35d0:	9f5201f3 	svcls	0x005201f3
    35d4:	00000008 	andeq	r0, r0, r8
    35d8:	00000018 	andeq	r0, r0, r8, lsl r0
    35dc:	01f30006 	mvnseq	r0, r6
    35e0:	9f1c3152 	svcls	0x001c3152
    35e4:	00000018 	andeq	r0, r0, r8, lsl r0
    35e8:	00000018 	andeq	r0, r0, r8, lsl r0
    35ec:	01f30004 	mvnseq	r0, r4
    35f0:	00189f52 	andseq	r9, r8, r2, asr pc
    35f4:	00300000 	eorseq	r0, r0, r0
    35f8:	00060000 	andeq	r0, r6, r0
    35fc:	315201f3 	ldrshcc	r0, [r2, #-19]	; 0xffffffed
    3600:	00009f1c 	andeq	r9, r0, ip, lsl pc
    3604:	00000000 	andeq	r0, r0, r0
    3608:	00020000 	andeq	r0, r2, r0
    360c:	00010000 	andeq	r0, r1, r0
    3610:	00000000 	andeq	r0, r0, r0
    3614:	000c0000 	andeq	r0, ip, r0
    3618:	00010000 	andeq	r0, r1, r0
    361c:	00000c50 	andeq	r0, r0, r0, asr ip
    3620:	00001800 	andeq	r1, r0, r0, lsl #16
    3624:	70000300 	andvc	r0, r0, r0, lsl #6
    3628:	00189f7f 	andseq	r9, r8, pc, ror pc
    362c:	00240000 	eoreq	r0, r4, r0
    3630:	00010000 	andeq	r0, r1, r0
    3634:	00002850 	andeq	r2, r0, r0, asr r8
    3638:	00002c00 	andeq	r2, r0, r0, lsl #24
    363c:	70000300 	andvc	r0, r0, r0, lsl #6
    3640:	00009f7f 	andeq	r9, r0, pc, ror pc
    3644:	00000000 	andeq	r0, r0, r0
    3648:	00020000 	andeq	r0, r2, r0
	...
    3654:	0000000c 	andeq	r0, r0, ip
    3658:	0c510001 	mrrceq	0, 0, r0, r1, cr1
    365c:	10000000 	andne	r0, r0, r0
    3660:	03000000 	movweq	r0, #0
    3664:	9f017100 	svcls	0x00017100
    3668:	00000010 	andeq	r0, r0, r0, lsl r0
    366c:	00000030 	andeq	r0, r0, r0, lsr r0
    3670:	00510001 	subseq	r0, r1, r1
    3674:	00000000 	andeq	r0, r0, r0
    3678:	Address 0x0000000000003678 is out of bounds.


Disassembly of section .debug_aranges:

00000000 <.debug_aranges>:
   0:	0000001c 	andeq	r0, r0, ip, lsl r0
   4:	00000002 	andeq	r0, r0, r2
   8:	00040000 	andeq	r0, r4, r0
   c:	00000000 	andeq	r0, r0, r0
  10:	00008038 	andeq	r8, r0, r8, lsr r0
  14:	00000104 	andeq	r0, r0, r4, lsl #2
	...
  20:	0000001c 	andeq	r0, r0, ip, lsl r0
  24:	04630002 	strbteq	r0, [r3], #-2
  28:	00040000 	andeq	r0, r4, r0
  2c:	00000000 	andeq	r0, r0, r0
  30:	0000813c 	andeq	r8, r0, ip, lsr r1
  34:	000003f8 	strdeq	r0, [r0], -r8
	...
  40:	0000001c 	andeq	r0, r0, ip, lsl r0
  44:	0c150002 	ldceq	0, cr0, [r5], {2}
  48:	00040000 	andeq	r0, r4, r0
  4c:	00000000 	andeq	r0, r0, r0
  50:	00008534 	andeq	r8, r0, r4, lsr r5
  54:	00000200 	andeq	r0, r0, r0, lsl #4
	...
  60:	0000001c 	andeq	r0, r0, ip, lsl r0
  64:	0f050002 	svceq	0x00050002
  68:	00040000 	andeq	r0, r4, r0
  6c:	00000000 	andeq	r0, r0, r0
  70:	00008734 	andeq	r8, r0, r4, lsr r7
  74:	0000081c 	andeq	r0, r0, ip, lsl r8
	...
  80:	0000001c 	andeq	r0, r0, ip, lsl r0
  84:	1dda0002 	ldclne	0, cr0, [sl, #8]
  88:	00040000 	andeq	r0, r4, r0
  8c:	00000000 	andeq	r0, r0, r0
  90:	00008f58 	andeq	r8, r0, r8, asr pc
  94:	000000a0 	andeq	r0, r0, r0, lsr #1
	...
  a0:	0000001c 	andeq	r0, r0, ip, lsl r0
  a4:	1ff40002 	svcne	0x00f40002
  a8:	00040000 	andeq	r0, r4, r0
  ac:	00000000 	andeq	r0, r0, r0
  b0:	00008ff8 	strdeq	r8, [r0], -r8	; <UNPREDICTABLE>
  b4:	00000078 	andeq	r0, r0, r8, ror r0
	...
  c0:	0000001c 	andeq	r0, r0, ip, lsl r0
  c4:	21380002 	teqcs	r8, r2
  c8:	00040000 	andeq	r0, r4, r0
  cc:	00000000 	andeq	r0, r0, r0
  d0:	00009070 	andeq	r9, r0, r0, ror r0
  d4:	00000058 	andeq	r0, r0, r8, asr r0
	...
  e0:	0000001c 	andeq	r0, r0, ip, lsl r0
  e4:	22d90002 	sbcscs	r0, r9, #2, 0
  e8:	00040000 	andeq	r0, r4, r0
  ec:	00000000 	andeq	r0, r0, r0
  f0:	000090c8 	andeq	r9, r0, r8, asr #1
  f4:	00000038 	andeq	r0, r0, r8, lsr r0
	...
 100:	0000001c 	andeq	r0, r0, ip, lsl r0
 104:	23d00002 	bicscs	r0, r0, #2, 0
 108:	00040000 	andeq	r0, r4, r0
 10c:	00000000 	andeq	r0, r0, r0
 110:	00009100 	andeq	r9, r0, r0, lsl #2
 114:	000009b4 			; <UNDEFINED> instruction: 0x000009b4
	...
 120:	0000001c 	andeq	r0, r0, ip, lsl r0
 124:	30530002 	subscc	r0, r3, r2
 128:	00040000 	andeq	r0, r4, r0
 12c:	00000000 	andeq	r0, r0, r0
 130:	00009ab4 			; <UNDEFINED> instruction: 0x00009ab4
 134:	0000002c 	andeq	r0, r0, ip, lsr #32
	...
 140:	0000001c 	andeq	r0, r0, ip, lsl r0
 144:	31860002 	orrcc	r0, r6, r2
 148:	00040000 	andeq	r0, r4, r0
 14c:	00000000 	andeq	r0, r0, r0
 150:	00009ae0 	andeq	r9, r0, r0, ror #21
 154:	000000f8 	strdeq	r0, [r0], -r8
	...
 160:	0000001c 	andeq	r0, r0, ip, lsl r0
 164:	331a0002 	tstcc	sl, #2, 0
 168:	00040000 	andeq	r0, r4, r0
 16c:	00000000 	andeq	r0, r0, r0
 170:	00009bd8 	ldrdeq	r9, [r0], -r8
 174:	00000004 	andeq	r0, r0, r4
	...
 180:	0000001c 	andeq	r0, r0, ip, lsl r0
 184:	33ec0002 	mvncc	r0, #2, 0
 188:	00040000 	andeq	r0, r4, r0
 18c:	00000000 	andeq	r0, r0, r0
 190:	00009bdc 	ldrdeq	r9, [r0], -ip
 194:	0000008c 	andeq	r0, r0, ip, lsl #1
	...
 1a0:	0000001c 	andeq	r0, r0, ip, lsl r0
 1a4:	366d0002 	strbtcc	r0, [sp], -r2
 1a8:	00040000 	andeq	r0, r4, r0
 1ac:	00000000 	andeq	r0, r0, r0
 1b0:	00009c68 	andeq	r9, r0, r8, ror #24
 1b4:	0000011c 	andeq	r0, r0, ip, lsl r1
	...
 1c0:	0000001c 	andeq	r0, r0, ip, lsl r0
 1c4:	3bb00002 	blcc	fec001d4 <__bss_end__+0xfebf4edc>
 1c8:	00040000 	andeq	r0, r4, r0
 1cc:	00000000 	andeq	r0, r0, r0
 1d0:	00009d84 	andeq	r9, r0, r4, lsl #27
 1d4:	000001f0 	strdeq	r0, [r0], -r0	; <UNPREDICTABLE>
	...
 1e0:	0000001c 	andeq	r0, r0, ip, lsl r0
 1e4:	41810002 	orrmi	r0, r1, r2
 1e8:	00040000 	andeq	r0, r4, r0
 1ec:	00000000 	andeq	r0, r0, r0
 1f0:	00009f74 	andeq	r9, r0, r4, ror pc
 1f4:	000003b0 			; <UNDEFINED> instruction: 0x000003b0
	...
 200:	0000001c 	andeq	r0, r0, ip, lsl r0
 204:	4a6e0002 	bmi	1b80214 <__bss_end__+0x1b74f1c>
 208:	00040000 	andeq	r0, r4, r0
 20c:	00000000 	andeq	r0, r0, r0
 210:	0000a324 	andeq	sl, r0, r4, lsr #6
 214:	00000198 	muleq	r0, r8, r1
	...
 220:	0000001c 	andeq	r0, r0, ip, lsl r0
 224:	50e50002 	rscpl	r0, r5, r2
 228:	00040000 	andeq	r0, r4, r0
 22c:	00000000 	andeq	r0, r0, r0
 230:	0000a4bc 			; <UNDEFINED> instruction: 0x0000a4bc
 234:	0000003c 	andeq	r0, r0, ip, lsr r0
	...
 240:	0000001c 	andeq	r0, r0, ip, lsl r0
 244:	52320002 	eorspl	r0, r2, #2, 0
 248:	00040000 	andeq	r0, r4, r0
 24c:	00000000 	andeq	r0, r0, r0
 250:	0000a4f8 	strdeq	sl, [r0], -r8
 254:	0000002c 	andeq	r0, r0, ip, lsr #32
	...
 260:	0000001c 	andeq	r0, r0, ip, lsl r0
 264:	536d0002 	cmnpl	sp, #2, 0
 268:	00040000 	andeq	r0, r4, r0
 26c:	00000000 	andeq	r0, r0, r0
 270:	0000a524 	andeq	sl, r0, r4, lsr #10
 274:	00000044 	andeq	r0, r0, r4, asr #32
	...
 280:	0000001c 	andeq	r0, r0, ip, lsl r0
 284:	54680002 	strbtpl	r0, [r8], #-2
 288:	00040000 	andeq	r0, r4, r0
 28c:	00000000 	andeq	r0, r0, r0
 290:	0000a568 	andeq	sl, r0, r8, ror #10
 294:	00000018 	andeq	r0, r0, r8, lsl r0
	...
 2a0:	0000001c 	andeq	r0, r0, ip, lsl r0
 2a4:	557b0002 	ldrbpl	r0, [fp, #-2]!
 2a8:	00040000 	andeq	r0, r4, r0
 2ac:	00000000 	andeq	r0, r0, r0
 2b0:	0000a580 	andeq	sl, r0, r0, lsl #11
 2b4:	00000030 	andeq	r0, r0, r0, lsr r0
	...
 2c0:	0000001c 	andeq	r0, r0, ip, lsl r0
 2c4:	56cd0002 	strbpl	r0, [sp], r2
 2c8:	00040000 	andeq	r0, r4, r0
 2cc:	00000000 	andeq	r0, r0, r0
 2d0:	0000a5b0 			; <UNDEFINED> instruction: 0x0000a5b0
 2d4:	00000004 	andeq	r0, r0, r4
	...

Disassembly of section .debug_line:

00000000 <.debug_line>:
       0:	00000165 	andeq	r0, r0, r5, ror #2
       4:	00ed0003 	rsceq	r0, sp, r3
       8:	01020000 	mrseq	r0, (UNDEF: 2)
       c:	000d0efb 	strdeq	r0, [sp], -fp
      10:	01010101 	tsteq	r1, r1, lsl #2
      14:	01000000 	mrseq	r0, (UNDEF: 0)
      18:	2e010000 	cdpcs	0, 0, cr0, cr1, cr0, {0}
      1c:	73657400 	cmnvc	r5, #0, 8
      20:	322d7374 	eorcc	r7, sp, #116, 6	; 0xd0000001
      24:	2f00302e 	svccs	0x0000302e
      28:	2f74706f 	svccs	0x0074706f
      2c:	656d6f68 	strbvs	r6, [sp, #-3944]!	; 0xfffff098
      30:	77657262 	strbvc	r7, [r5, -r2, ror #4]!
      34:	6c65432f 	stclvs	3, cr4, [r5], #-188	; 0xffffff44
      38:	2f72616c 	svccs	0x0072616c
      3c:	2d6d7261 	sfmcs	f7, 2, [sp, #-388]!	; 0xfffffe7c
      40:	656e6f6e 	strbvs	r6, [lr, #-3950]!	; 0xfffff092
      44:	6261652d 	rsbvs	r6, r1, #188743680	; 0xb400000
      48:	2f392d69 	svccs	0x00392d69
      4c:	30322d39 	eorscc	r2, r2, r9, lsr sp
      50:	34713931 	ldrbtcc	r3, [r1], #-2353	; 0xfffff6cf
      54:	3173632d 	cmncc	r3, sp, lsr #6
      58:	2f653730 	svccs	0x00653730
      5c:	2f62696c 	svccs	0x0062696c
      60:	2f636367 	svccs	0x00636367
      64:	2d6d7261 	sfmcs	f7, 2, [sp, #-388]!	; 0xfffffe7c
      68:	656e6f6e 	strbvs	r6, [lr, #-3950]!	; 0xfffff092
      6c:	6261652d 	rsbvs	r6, r1, #188743680	; 0xb400000
      70:	2e392f69 	cdpcs	15, 3, cr2, cr9, cr9, {3}
      74:	2f312e32 	svccs	0x00312e32
      78:	6c636e69 	stclvs	14, cr6, [r3], #-420	; 0xfffffe5c
      7c:	00656475 	rsbeq	r6, r5, r5, ror r4
      80:	6573552f 	ldrbvs	r5, [r3, #-1327]!	; 0xfffffad1
      84:	6d2f7372 	stcvs	3, cr7, [pc, #-456]!	; fffffec4 <__bss_end__+0xffff4bcc>
      88:	73656c69 	cmnvc	r5, #26880	; 0x6900
      8c:	756f532f 	strbvc	r5, [pc, #-815]!	; fffffd65 <__bss_end__+0xffff4a6d>
      90:	2f656372 	svccs	0x00656372
      94:	34327363 	ldrtcc	r7, [r2], #-867	; 0xfffffc9d
      98:	2f786c30 	svccs	0x00786c30
      9c:	7062696c 	rsbvc	r6, r2, ip, ror #18
      a0:	6e692f69 	cdpvs	15, 6, cr2, cr9, cr9, {3}
      a4:	64756c63 	ldrbtvs	r6, [r5], #-3171	; 0xfffff39d
      a8:	63000065 	movwvs	r0, #101	; 0x65
      ac:	6c6c616b 	stfvse	f6, [ip], #-428	; 0xfffffe54
      b0:	682e636f 	stmdavs	lr!, {r0, r1, r2, r3, r5, r6, r8, r9, sp, lr}
      b4:	00000100 	andeq	r0, r0, r0, lsl #2
      b8:	74726170 	ldrbtvc	r6, [r2], #-368	; 0xfffffe90
      bc:	65742d31 	ldrbvs	r2, [r4, #-3377]!	; 0xfffff2cf
      c0:	2d317473 	cfldrscs	mvf7, [r1, #-460]!	; 0xfffffe34
      c4:	622d6f6e 	eorvs	r6, sp, #440	; 0x1b8
      c8:	632e6775 			; <UNDEFINED> instruction: 0x632e6775
      cc:	00000200 	andeq	r0, r0, r0, lsl #4
      d0:	2d637273 	sfmcs	f7, 2, [r3, #-460]!	; 0xfffffe34
      d4:	2e636f6c 	cdpcs	15, 6, cr6, cr3, cr12, {3}
      d8:	00010068 	andeq	r0, r1, r8, rrx
      dc:	64747300 	ldrbtvs	r7, [r4], #-768	; 0xfffffd00
      e0:	2d746e69 	ldclcs	14, cr6, [r4, #-420]!	; 0xfffffe5c
      e4:	2e636367 	cdpcs	3, 6, cr6, cr3, cr7, {3}
      e8:	00030068 	andeq	r0, r3, r8, rrx
      ec:	69707200 	ldmdbvs	r0!, {r9, ip, sp, lr}^
      f0:	0400682e 	streq	r6, [r0], #-2094	; 0xfffff7d2
      f4:	05000000 	streq	r0, [r0, #-0]
      f8:	02050024 	andeq	r0, r5, #36, 0	; 0x24
      fc:	00008048 	andeq	r8, r0, r8, asr #32
     100:	06012203 	streq	r2, [r1], -r3, lsl #4
     104:	06050501 	streq	r0, [r5], -r1, lsl #10
     108:	01051367 	tsteq	r5, r7, ror #6
     10c:	042e1306 	strteq	r1, [lr], #-774	; 0xfffffcfa
     110:	06140502 	ldreq	r0, [r4], -r2, lsl #10
     114:	05826203 	streq	r6, [r2, #515]	; 0x203
     118:	044c8305 	strbeq	r8, [ip], #-773	; 0xfffffcfb
     11c:	140b0503 	strne	r0, [fp], #-1283	; 0xfffffafd
     120:	05130505 	ldreq	r0, [r3, #-1285]	; 0xfffffafb
     124:	ba01060c 	blt	4195c <__bss_end__+0x36664>
     128:	0f050204 	svceq	0x00050204
     12c:	0605050f 	streq	r0, [r5], -pc, lsl #10
     130:	2e06019f 	mcrcs	1, 0, r0, cr6, cr15, {4}
     134:	83138206 	tsthi	r3, #1610612736	; 0x60000000
     138:	0b050304 	bleq	140d50 <__bss_end__+0x135a58>
     13c:	13050511 	movwne	r0, #21777	; 0x5511
     140:	01060c05 	tsteq	r6, r5, lsl #24
     144:	05020482 	streq	r0, [r2, #-1154]	; 0xfffffb7e
     148:	84060105 	strhi	r0, [r6], #-261	; 0xfffffefb
     14c:	01060805 	tsteq	r6, r5, lsl #16
     150:	052e0705 	streq	r0, [lr, #-1797]!	; 0xfffff8fb
     154:	144b0609 	strbne	r0, [fp], #-1545	; 0xfffff9f7
     158:	01054a01 	tsteq	r5, r1, lsl #20
     15c:	09051306 	stmdbeq	r5, {r1, r2, r8, r9, ip}
     160:	9e014706 	cdpls	7, 0, cr4, cr1, cr6, {0}
     164:	01000e02 	tsteq	r0, r2, lsl #28
     168:	00035f01 	andeq	r5, r3, r1, lsl #30
     16c:	f4000300 	vst2.8	{d0-d3}, [r0], r0
     170:	02000000 	andeq	r0, r0, #0, 0
     174:	0d0efb01 	vstreq	d15, [lr, #-4]
     178:	01010100 	mrseq	r0, (UNDEF: 17)
     17c:	00000001 	andeq	r0, r0, r1
     180:	01000001 	tsteq	r0, r1
     184:	74706f2f 	ldrbtvc	r6, [r0], #-3887	; 0xfffff0d1
     188:	6d6f682f 	stclvs	8, cr6, [pc, #-188]!	; d4 <__code_start__-0x7f2c>
     18c:	65726265 	ldrbvs	r6, [r2, #-613]!	; 0xfffffd9b
     190:	65432f77 	strbvs	r2, [r3, #-3959]	; 0xfffff089
     194:	72616c6c 	rsbvc	r6, r1, #108, 24	; 0x6c00
     198:	6d72612f 	ldfvse	f6, [r2, #-188]!	; 0xffffff44
     19c:	6e6f6e2d 	cdpvs	14, 6, cr6, cr15, cr13, {1}
     1a0:	61652d65 	cmnvs	r5, r5, ror #26
     1a4:	392d6962 	pushcc	{r1, r5, r6, r8, fp, sp, lr}
     1a8:	322d392f 	eorcc	r3, sp, #770048	; 0xbc000
     1ac:	71393130 	teqvc	r9, r0, lsr r1
     1b0:	73632d34 	cmnvc	r3, #52, 26	; 0xd00
     1b4:	65373031 	ldrvs	r3, [r7, #-49]!	; 0xffffffcf
     1b8:	62696c2f 	rsbvs	r6, r9, #12032	; 0x2f00
     1bc:	6363672f 	cmnvs	r3, #12320768	; 0xbc0000
     1c0:	6d72612f 	ldfvse	f6, [r2, #-188]!	; 0xffffff44
     1c4:	6e6f6e2d 	cdpvs	14, 6, cr6, cr15, cr13, {1}
     1c8:	61652d65 	cmnvs	r5, r5, ror #26
     1cc:	392f6962 	stmdbcc	pc!, {r1, r5, r6, r8, fp, sp, lr}	; <UNPREDICTABLE>
     1d0:	312e322e 			; <UNDEFINED> instruction: 0x312e322e
     1d4:	636e692f 	cmnvs	lr, #770048	; 0xbc000
     1d8:	6564756c 	strbvs	r7, [r4, #-1388]!	; 0xfffffa94
     1dc:	73552f00 	cmpvc	r5, #0, 30
     1e0:	2f737265 	svccs	0x00737265
     1e4:	656c696d 	strbvs	r6, [ip, #-2413]!	; 0xfffff693
     1e8:	6f532f73 	svcvs	0x00532f73
     1ec:	65637275 	strbvs	r7, [r3, #-629]!	; 0xfffffd8b
     1f0:	3273632f 	rsbscc	r6, r3, #-1140850688	; 0xbc000000
     1f4:	786c3034 	stmdavc	ip!, {r2, r4, r5, ip, sp}^
     1f8:	62696c2f 	rsbvs	r6, r9, #12032	; 0x2f00
     1fc:	692f6970 	stmdbvs	pc!, {r4, r5, r6, r8, fp, sp, lr}	; <UNPREDICTABLE>
     200:	756c636e 	strbvc	r6, [ip, #-878]!	; 0xfffffc92
     204:	00006564 	andeq	r6, r0, r4, ror #10
     208:	6c616b63 			; <UNDEFINED> instruction: 0x6c616b63
     20c:	2e636f6c 	cdpcs	15, 6, cr6, cr3, cr12, {3}
     210:	00000063 	andeq	r0, r0, r3, rrx
     214:	616b6300 	cmnvs	fp, r0, lsl #6
     218:	636f6c6c 	cmnvs	pc, #108, 24	; 0x6c00
     21c:	0000682e 	andeq	r6, r0, lr, lsr #16
     220:	74730000 	ldrbtvc	r0, [r3], #-0
     224:	746e6964 	strbtvc	r6, [lr], #-2404	; 0xfffff69c
     228:	6363672d 	cmnvs	r3, #11796480	; 0xb40000
     22c:	0100682e 	tsteq	r0, lr, lsr #16
     230:	70720000 	rsbsvc	r0, r2, r0
     234:	00682e69 	rsbeq	r2, r8, r9, ror #28
     238:	73000002 	movwvc	r0, #2
     23c:	6c2d6372 	stcvs	3, cr6, [sp], #-456	; 0xfffffe38
     240:	682e636f 	stmdavs	lr!, {r0, r1, r2, r3, r5, r6, r8, r9, sp, lr}
     244:	00000000 	andeq	r0, r0, r0
     248:	6d2d726b 	sfmvs	f7, 4, [sp, #-428]!	; 0xfffffe54
     24c:	6f6c6c61 	svcvs	0x006c6c61
     250:	00682e63 	rsbeq	r2, r8, r3, ror #28
     254:	62000000 	andvs	r0, r0, #0, 0
     258:	746b6361 	strbtvc	r6, [fp], #-865	; 0xfffffc9f
     25c:	65636172 	strbvs	r6, [r3, #-370]!	; 0xfffffe8e
     260:	0200682e 	andeq	r6, r0, #3014656	; 0x2e0000
     264:	05000000 	streq	r0, [r0, #-0]
     268:	02050001 	andeq	r0, r5, #1, 0
     26c:	00008150 	andeq	r8, r0, r0, asr r1
     270:	05010b03 	streq	r0, [r1, #-2819]	; 0xfffff4fd
     274:	01056705 	tsteq	r5, r5, lsl #14
     278:	f6061306 			; <UNDEFINED> instruction: 0xf6061306
     27c:	05050106 	streq	r0, [r5, #-262]	; 0xfffffefa
     280:	08056706 	stmdaeq	r5, {r1, r2, r8, r9, sl, sp, lr}
     284:	052e0106 	streq	r0, [lr, #-262]!	; 0xfffffefa
     288:	052f0609 	streq	r0, [pc, #-1545]!	; fffffc87 <__bss_end__+0xffff498f>
     28c:	05010611 	streq	r0, [r1, #-1553]	; 0xfffff9ef
     290:	bd063001 	stclt	0, cr3, [r6, #-4]
     294:	05050106 	streq	r0, [r5, #-262]	; 0xfffffefa
     298:	01056706 	tsteq	r5, r6, lsl #14
     29c:	062e1306 	strteq	r1, [lr], -r6, lsl #6
     2a0:	050106a2 	streq	r0, [r1, #-1698]	; 0xfffff95e
     2a4:	05830605 	streq	r0, [r3, #1541]	; 0x605
     2a8:	04010614 	streq	r0, [r1], #-1556	; 0xfffff9ec
     2ac:	06180502 	ldreq	r0, [r8], -r2, lsl #10
     2b0:	052e0f03 	streq	r0, [lr, #-3843]!	; 0xfffff0fd
     2b4:	0d051305 	stceq	3, cr1, [r5, #-20]	; 0xffffffec
     2b8:	042e0106 	strteq	r0, [lr], #-262	; 0xfffffefa
     2bc:	03010501 	movweq	r0, #5377	; 0x1501
     2c0:	da060171 	ble	18088c <__bss_end__+0x175594>
     2c4:	05050106 	streq	r0, [r5, #-262]	; 0xfffffefa
     2c8:	11059f06 	tstne	r5, r6, lsl #30
     2cc:	052e0106 	streq	r0, [lr, #-262]!	; 0xfffffefa
     2d0:	052f0605 	streq	r0, [pc, #-1541]!	; fffffcd3 <__bss_end__+0xffff49db>
     2d4:	2e010611 	mcrcs	6, 0, r0, cr1, cr1, {0}
     2d8:	2f060505 	svccs	0x00060505
     2dc:	13060105 	movwne	r0, #24837	; 0x6105
     2e0:	06f50666 	ldrbteq	r0, [r5], r6, ror #12
     2e4:	06050501 	streq	r0, [r5], -r1, lsl #10
     2e8:	010a0584 	smlabbeq	sl, r4, r5, r0
     2ec:	01061505 	tsteq	r6, r5, lsl #10
     2f0:	0025052e 	eoreq	r0, r5, lr, lsr #10
     2f4:	06010402 	streq	r0, [r1], -r2, lsl #8
     2f8:	0005052e 	andeq	r0, r5, lr, lsr #10
     2fc:	06010402 	streq	r0, [r1], -r2, lsl #8
     300:	06090501 	streq	r0, [r9], -r1, lsl #10
     304:	060d054d 	streq	r0, [sp], -sp, asr #10
     308:	0c054a01 			; <UNDEFINED> instruction: 0x0c054a01
     30c:	0028052e 	eoreq	r0, r8, lr, lsr #10
     310:	06020402 	streq	r0, [r2], -r2, lsl #8
     314:	002c0547 	eoreq	r0, ip, r7, asr #10
     318:	06020402 	streq	r0, [r2], -r2, lsl #8
     31c:	04020001 	streq	r0, [r2], #-1
     320:	0d056602 	stceq	6, cr6, [r5, #-8]
     324:	06833306 	streq	r3, [r3], r6, lsl #6
     328:	16010501 	strne	r0, [r1], -r1, lsl #10
     32c:	ba1c0306 	blt	700f4c <__bss_end__+0x6f5c54>
     330:	05ba0106 	ldreq	r0, [sl, #262]!	; 0x106
     334:	132f0605 			; <UNDEFINED> instruction: 0x132f0605
     338:	06110513 			; <UNDEFINED> instruction: 0x06110513
     33c:	06050501 	streq	r0, [r5], -r1, lsl #10
     340:	66f20168 	ldrbtvs	r0, [r2], r8, ror #2
     344:	060a0513 			; <UNDEFINED> instruction: 0x060a0513
     348:	2e080501 	cfsh32cs	mvfx0, mvfx8, #1
     34c:	054d0d05 	strbeq	r0, [sp, #-3333]	; 0xfffff2fb
     350:	04020014 	streq	r0, [r2], #-20	; 0xffffffec
     354:	052e0601 	streq	r0, [lr, #-1537]!	; 0xfffff9ff
     358:	04020005 	streq	r0, [r2], #-5
     35c:	05010601 	streq	r0, [r1, #-1537]	; 0xfffff9ff
     360:	054b0609 	strbeq	r0, [fp, #-1545]	; 0xfffff9f7
     364:	05010613 	streq	r0, [r1, #-1555]	; 0xfffff9ed
     368:	0d054a0c 	vstreq	s8, [r5, #-48]	; 0xffffffd0
     36c:	09054b06 	stmdbeq	r5, {r1, r2, r8, r9, fp, lr}
     370:	06220514 			; <UNDEFINED> instruction: 0x06220514
     374:	2e310501 	cdpcs	5, 3, cr0, cr1, cr1, {0}
     378:	052e0d05 	streq	r0, [lr, #-3333]!	; 0xfffff2fb
     37c:	0d052e0c 	stceq	14, cr2, [r5, #-48]	; 0xffffffd0
     380:	02040200 	andeq	r0, r4, #0, 4
     384:	28054b06 	stmdacs	r5, {r1, r2, r8, r9, fp, lr}
     388:	02040200 	andeq	r0, r4, #0, 4
     38c:	0029050d 	eoreq	r0, r9, sp, lsl #10
     390:	06020402 	streq	r0, [r2], -r2, lsl #8
     394:	04020001 	streq	r0, [r2], #-1
     398:	02002e02 	andeq	r2, r0, #2, 28
     39c:	052e0204 	streq	r0, [lr, #-516]!	; 0xfffffdfc
     3a0:	01100609 	tsteq	r0, r9, lsl #12
     3a4:	05669e2e 	strbeq	r9, [r6, #-3630]!	; 0xfffff1d2
     3a8:	2e01320d 	cdpcs	2, 0, cr3, cr1, cr13, {0}
     3ac:	01314a9e 	teqeq	r1, lr	; <illegal shifter operand>
     3b0:	064a9e2e 	strbeq	r9, [sl], -lr, lsr #28
     3b4:	1405172e 	strne	r1, [r5], #-1838	; 0xfffff8d2
     3b8:	01040200 	mrseq	r0, R12_usr
     3bc:	19052e06 	stmdbne	r5, {r1, r2, r9, sl, fp, sp}
     3c0:	01040200 	mrseq	r0, R12_usr
     3c4:	05050106 	streq	r0, [r5, #-262]	; 0xfffffefa
     3c8:	01040200 	mrseq	r0, R12_usr
     3cc:	0009052e 	andeq	r0, r9, lr, lsr #10
     3d0:	06030402 	streq	r0, [r3], -r2, lsl #8
     3d4:	001c052f 	andseq	r0, ip, pc, lsr #10
     3d8:	06030402 	streq	r0, [r3], -r2, lsl #8
     3dc:	00290501 	eoreq	r0, r9, r1, lsl #10
     3e0:	06030402 	streq	r0, [r3], -r2, lsl #8
     3e4:	002a0549 	eoreq	r0, sl, r9, asr #10
     3e8:	06030402 	streq	r0, [r3], -r2, lsl #8
     3ec:	04020001 	streq	r0, [r2], #-1
     3f0:	02002e03 	andeq	r2, r0, #3, 28	; 0x30
     3f4:	052e0304 	streq	r0, [lr, #-772]!	; 0xfffffcfc
     3f8:	05160605 	ldreq	r0, [r6, #-1541]	; 0xfffff9fb
     3fc:	2e01060e 	cfmadd32cs	mvax0, mvfx0, mvfx1, mvfx14
     400:	2f060505 	svccs	0x00060505
     404:	01061105 	tsteq	r6, r5, lsl #2
     408:	83060505 	movwhi	r0, #25861	; 0x6505
     40c:	06010501 	streq	r0, [r1], -r1, lsl #10
     410:	00050586 	andeq	r0, r5, r6, lsl #11
     414:	06010402 	streq	r0, [r1], -r2, lsl #8
     418:	04020046 	streq	r0, [r2], #-70	; 0xffffffba
     41c:	02000101 	andeq	r0, r0, #1073741824	; 0x40000000
     420:	05d60104 	ldrbeq	r0, [r6, #260]	; 0x104
     424:	080a0301 	stmdaeq	sl, {r0, r8, r9}
     428:	ba0106ac 	blt	41ee0 <__bss_end__+0x36be8>
     42c:	2f060505 	svccs	0x00060505
     430:	01061005 	tsteq	r6, r5
     434:	69060505 	stmdbvs	r6, {r0, r2, r8, sl}
     438:	01090569 	tsteq	r9, r9, ror #10
     43c:	01060d05 	tsteq	r6, r5, lsl #26
     440:	02001405 	andeq	r1, r0, #83886080	; 0x5000000
     444:	2e060104 	adfcss	f0, f6, f4
     448:	02000505 	andeq	r0, r0, #20971520	; 0x1400000
     44c:	01060104 	tsteq	r6, r4, lsl #2
     450:	02000905 	andeq	r0, r0, #81920	; 0x14000
     454:	4b060304 	blmi	18106c <__bss_end__+0x175d74>
     458:	02001305 	andeq	r1, r0, #335544320	; 0x14000000
     45c:	01060304 	tsteq	r6, r4, lsl #6
     460:	02000905 	andeq	r0, r0, #81920	; 0x14000
     464:	67060304 	strvs	r0, [r6, -r4, lsl #6]
     468:	02002605 	andeq	r2, r0, #5242880	; 0x500000
     46c:	01060304 	tsteq	r6, r4, lsl #6
     470:	02002b05 	andeq	r2, r0, #5120	; 0x1400
     474:	054a0304 	strbeq	r0, [sl, #-772]	; 0xfffffcfc
     478:	04020028 	streq	r0, [r2], #-40	; 0xffffffd8
     47c:	052c0603 	streq	r0, [ip, #-1539]!	; 0xfffff9fd
     480:	04020029 	streq	r0, [r2], #-41	; 0xffffffd7
     484:	00010603 	andeq	r0, r1, r3, lsl #12
     488:	2e030402 	cdpcs	4, 0, cr0, cr3, cr2, {0}
     48c:	03040200 	movweq	r0, #16896	; 0x4200
     490:	0605052e 	streq	r0, [r5], -lr, lsr #10
     494:	06150517 			; <UNDEFINED> instruction: 0x06150517
     498:	06050501 	streq	r0, [r5], -r1, lsl #10
     49c:	060e052f 	streq	r0, [lr], -pc, lsr #10
     4a0:	05052e01 	streq	r2, [r5, #-3585]	; 0xfffff1ff
     4a4:	12052f06 	andne	r2, r5, #6, 30
     4a8:	05050106 	streq	r0, [r5, #-262]	; 0xfffffefa
     4ac:	9e018406 	cdpls	4, 0, cr8, cr1, cr6, {0}
     4b0:	0d05149e 	cfstrseq	mvf1, [r5, #-632]	; 0xfffffd88
     4b4:	05050106 	streq	r0, [r5, #-262]	; 0xfffffefa
     4b8:	10056706 	andne	r6, r5, r6, lsl #14
     4bc:	05050106 	streq	r0, [r5, #-262]	; 0xfffffefa
     4c0:	01053006 	tsteq	r5, r6
     4c4:	02661406 	rsbeq	r1, r6, #100663296	; 0x6000000
     4c8:	01010006 	tsteq	r1, r6
     4cc:	00000228 	andeq	r0, r0, r8, lsr #4
     4d0:	00640003 	rsbeq	r0, r4, r3
     4d4:	01020000 	mrseq	r0, (UNDEF: 2)
     4d8:	000d0efb 	strdeq	r0, [sp], -fp
     4dc:	01010101 	tsteq	r1, r1, lsl #2
     4e0:	01000000 	mrseq	r0, (UNDEF: 0)
     4e4:	2f010000 	svccs	0x00010000
     4e8:	72657355 	rsbvc	r7, r5, #1409286145	; 0x54000001
     4ec:	696d2f73 	stmdbvs	sp!, {r0, r1, r4, r5, r6, r8, r9, sl, fp, sp}^
     4f0:	2f73656c 	svccs	0x0073656c
     4f4:	72756f53 	rsbsvc	r6, r5, #332	; 0x14c
     4f8:	632f6563 			; <UNDEFINED> instruction: 0x632f6563
     4fc:	30343273 	eorscc	r3, r4, r3, ror r2
     500:	6c2f786c 	stcvs	8, cr7, [pc], #-432	; 358 <__code_start__-0x7ca8>
     504:	69706269 	ldmdbvs	r0!, {r0, r3, r5, r6, r9, sp, lr}^
     508:	636e692f 	cmnvs	lr, #770048	; 0xbc000
     50c:	6564756c 	strbvs	r7, [r4, #-1388]!	; 0xfffffa94
     510:	726b0000 	rsbvc	r0, fp, #0, 0
     514:	6c616d2d 	stclvs	13, cr6, [r1], #-180	; 0xffffff4c
     518:	2e636f6c 	cdpcs	15, 6, cr6, cr3, cr12, {3}
     51c:	00000063 	andeq	r0, r0, r3, rrx
     520:	69707200 	ldmdbvs	r0!, {r9, ip, sp, lr}^
     524:	0100682e 	tsteq	r0, lr, lsr #16
     528:	726b0000 	rsbvc	r0, fp, #0, 0
     52c:	6c616d2d 	stclvs	13, cr6, [r1], #-180	; 0xffffff4c
     530:	2e636f6c 	cdpcs	15, 6, cr6, cr3, cr12, {3}
     534:	00000068 	andeq	r0, r0, r8, rrx
     538:	01050000 	mrseq	r0, (UNDEF: 5)
     53c:	40020500 	andmi	r0, r2, r0, lsl #10
     540:	03000085 	movweq	r0, #133	; 0x85
     544:	060100d3 			; <UNDEFINED> instruction: 0x060100d3
     548:	06020501 	streq	r0, [r2], -r1, lsl #10
     54c:	05051367 	streq	r1, [r5, #-871]	; 0xfffffc99
     550:	02050106 	andeq	r0, r5, #-2147483647	; 0x80000001
     554:	09052f06 	stmdbeq	r5, {r1, r2, r8, r9, sl, fp, sp}
     558:	02050106 	andeq	r0, r5, #-2147483647	; 0x80000001
     55c:	12052e4a 	andne	r2, r5, #1184	; 0x4a0
     560:	01040200 	mrseq	r0, R12_usr
     564:	02052e06 	andeq	r2, r5, #96	; 0x60
     568:	01040200 	mrseq	r0, R12_usr
     56c:	27050106 	strcs	r0, [r5, -r6, lsl #2]
     570:	03040200 	movweq	r0, #16896	; 0x4200
     574:	0012054a 	andseq	r0, r2, sl, asr #10
     578:	2e030402 	cdpcs	4, 0, cr0, cr3, cr2, {0}
     57c:	4b060305 	blmi	181198 <__bss_end__+0x175ea0>
     580:	01061005 	tsteq	r6, r5
     584:	052e0605 	streq	r0, [lr, #-1541]!	; 0xfffff9fb
     588:	04020015 	streq	r0, [r2], #-21	; 0xffffffeb
     58c:	20054a01 	andcs	r4, r5, r1, lsl #20
     590:	02040200 	andeq	r0, r4, #0, 4
     594:	0402004a 	streq	r0, [r2], #-74	; 0xffffffb6
     598:	02054a02 	andeq	r4, r5, #8192	; 0x2000
     59c:	10053006 	andne	r3, r5, r6
     5a0:	09050106 	stmdbeq	r5, {r1, r2, r8}
     5a4:	2e1d052e 	cfmul64cs	mvdx0, mvdx13, mvdx14
     5a8:	052e0505 	streq	r0, [lr, #-1285]!	; 0xfffffafb
     5ac:	05500603 	ldrbeq	r0, [r0, #-1539]	; 0xfffff9fd
     5b0:	0501060d 	streq	r0, [r1, #-1549]	; 0xfffff9f3
     5b4:	052f0602 	streq	r0, [pc, #-1538]!	; ffffffba <__bss_end__+0xffff4cc2>
     5b8:	0501060e 	streq	r0, [r1, #-1550]	; 0xfffff9f2
     5bc:	05052e08 	streq	r2, [r5, #-3592]	; 0xfffff1f8
     5c0:	0603052e 	streq	r0, [r3], -lr, lsr #10
     5c4:	060c0550 			; <UNDEFINED> instruction: 0x060c0550
     5c8:	06020501 	streq	r0, [r2], -r1, lsl #10
     5cc:	0608052f 	streq	r0, [r8], -pc, lsr #10
     5d0:	4b010501 	blmi	419dc <__bss_end__+0x366e4>
     5d4:	03060305 	movweq	r0, #25349	; 0x6305
     5d8:	1c052e73 	stcne	14, cr2, [r5], {115}	; 0x73
     5dc:	0e050106 	adfeqs	f0, f5, f6
     5e0:	0603052e 	streq	r0, [r3], -lr, lsr #10
     5e4:	0613054b 	ldreq	r0, [r3], -fp, asr #10
     5e8:	2e1a0501 	cfmul32cs	mvfx0, mvfx10, mvfx1
     5ec:	052e0d05 	streq	r0, [lr, #-3333]!	; 0xfffff2fb
     5f0:	05500603 	ldrbeq	r0, [r0, #-1539]	; 0xfffff9fd
     5f4:	05010615 	streq	r0, [r1, #-1557]	; 0xfffff9eb
     5f8:	03052e0d 	movweq	r2, #24077	; 0x5e0d
     5fc:	13054b06 	movwne	r4, #23302	; 0x5b06
     600:	0c050106 	stfeqs	f0, [r5], {6}
     604:	0601052e 	streq	r0, [r1], -lr, lsr #10
     608:	d67fb903 	ldrbtle	fp, [pc], -r3, lsl #18
     60c:	02050106 	andeq	r0, r5, #-2147483647	; 0x80000001
     610:	05058306 	streq	r8, [r5, #-774]	; 0xfffffcfa
     614:	06050106 	streq	r0, [r5], -r6, lsl #2
     618:	0602052f 	streq	r0, [r2], -pc, lsr #10
     61c:	0d05672f 	stceq	7, cr6, [r5, #-188]	; 0xffffff44
     620:	02050106 	andeq	r0, r5, #-2147483647	; 0x80000001
     624:	05054b06 	streq	r4, [r5, #-2822]	; 0xfffff4fa
     628:	02050106 	andeq	r0, r5, #-2147483647	; 0x80000001
     62c:	05134c06 	ldreq	r4, [r3, #-3078]	; 0xfffff3fa
     630:	0501060d 	streq	r0, [r1, #-1549]	; 0xfffff9f3
     634:	062f0602 	strteq	r0, [pc], -r2, lsl #12
     638:	052f062e 	streq	r0, [pc, #-1582]!	; 12 <__code_start__-0x7fee>
     63c:	05010609 	streq	r0, [r1, #-1545]	; 0xfffff9f7
     640:	0105620a 	tsteq	r5, sl, lsl #4
     644:	06da0633 			; <UNDEFINED> instruction: 0x06da0633
     648:	06020501 	streq	r0, [r2], -r1, lsl #10
     64c:	05141367 	ldreq	r1, [r4, #-871]	; 0xfffffc99
     650:	05010624 	streq	r0, [r1, #-1572]	; 0xfffff9dc
     654:	09052e29 	stmdbeq	r5, {r0, r3, r5, r9, sl, fp, sp}
     658:	0602052e 	streq	r0, [r2], -lr, lsr #10
     65c:	060d052f 	streq	r0, [sp], -pc, lsr #10
     660:	4a050501 	bmi	141a6c <__bss_end__+0x136774>
     664:	50060205 	andpl	r0, r6, r5, lsl #4
     668:	01060905 	tsteq	r6, r5, lsl #18
     66c:	0603052e 	streq	r0, [r3], -lr, lsr #10
     670:	0616052a 	ldreq	r0, [r6], -sl, lsr #10
     674:	4a0e0501 	bmi	381a80 <__bss_end__+0x376788>
     678:	2f060305 	svccs	0x00060305
     67c:	01060f05 	tsteq	r6, r5, lsl #30
     680:	6d060405 	cfstrsvs	mvf0, [r6, #-20]	; 0xffffffec
     684:	01060705 	tsteq	r6, r5, lsl #14
     688:	34060505 	strcc	r0, [r6], #-1285	; 0xfffffafb
     68c:	01060f05 	tsteq	r6, r5, lsl #30
     690:	4b060505 	blmi	181aac <__bss_end__+0x1767b4>
     694:	01060705 	tsteq	r6, r5, lsl #14
     698:	2f060505 	svccs	0x00060505
     69c:	01060f05 	tsteq	r6, r5, lsl #30
     6a0:	30060405 	andcc	r0, r6, r5, lsl #8
     6a4:	01060a05 	tsteq	r6, r5, lsl #20
     6a8:	4b060405 	blmi	1816c4 <__bss_end__+0x1763cc>
     6ac:	01060b05 	tsteq	r6, r5, lsl #22
     6b0:	0605052e 	streq	r0, [r5], -lr, lsr #10
     6b4:	052e7703 	streq	r7, [lr, #-1795]!	; 0xfffff8fd
     6b8:	05010618 	streq	r0, [r1, #-1560]	; 0xfffff9e8
     6bc:	1a052e12 	bne	14bf0c <__bss_end__+0x140c14>
     6c0:	4a7a0306 	bmi	1e812e0 <__bss_end__+0x1e75fe8>
     6c4:	05011805 	streq	r1, [r1, #-2053]	; 0xfffff7fb
     6c8:	05010620 	streq	r0, [r1, #-1568]	; 0xfffff9e0
     6cc:	03052e27 	movweq	r2, #24103	; 0x5e27
     6d0:	0b053006 	bleq	14c6f0 <__bss_end__+0x1413f8>
     6d4:	06050106 	streq	r0, [r5], -r6, lsl #2
     6d8:	0603052e 	streq	r0, [r3], -lr, lsr #10
     6dc:	054a0f03 	strbeq	r0, [sl, #-3843]	; 0xfffff0fd
     6e0:	05010609 	streq	r0, [r1, #-1545]	; 0xfffff9f7
     6e4:	04054a06 	streq	r4, [r5], #-2566	; 0xfffff5fa
     6e8:	0d054c06 	stceq	12, cr4, [r5, #-24]	; 0xffffffe8
     6ec:	052e0106 	streq	r0, [lr, #-262]!	; 0xfffffefa
     6f0:	022e2e07 	eoreq	r2, lr, #112	; 0x70
     6f4:	01010006 	tsteq	r1, r6
     6f8:	0000062f 	andeq	r0, r0, pc, lsr #12
     6fc:	00d40003 	sbcseq	r0, r4, r3
     700:	01020000 	mrseq	r0, (UNDEF: 2)
     704:	000d0efb 	strdeq	r0, [sp], -fp
     708:	01010101 	tsteq	r1, r1, lsl #2
     70c:	01000000 	mrseq	r0, (UNDEF: 0)
     710:	2f010000 	svccs	0x00010000
     714:	2f74706f 	svccs	0x0074706f
     718:	656d6f68 	strbvs	r6, [sp, #-3944]!	; 0xfffff098
     71c:	77657262 	strbvc	r7, [r5, -r2, ror #4]!
     720:	6c65432f 	stclvs	3, cr4, [r5], #-188	; 0xffffff44
     724:	2f72616c 	svccs	0x0072616c
     728:	2d6d7261 	sfmcs	f7, 2, [sp, #-388]!	; 0xfffffe7c
     72c:	656e6f6e 	strbvs	r6, [lr, #-3950]!	; 0xfffff092
     730:	6261652d 	rsbvs	r6, r1, #188743680	; 0xb400000
     734:	2f392d69 	svccs	0x00392d69
     738:	30322d39 	eorscc	r2, r2, r9, lsr sp
     73c:	34713931 	ldrbtcc	r3, [r1], #-2353	; 0xfffff6cf
     740:	3173632d 	cmncc	r3, sp, lsr #6
     744:	2f653730 	svccs	0x00653730
     748:	2f62696c 	svccs	0x0062696c
     74c:	2f636367 	svccs	0x00636367
     750:	2d6d7261 	sfmcs	f7, 2, [sp, #-388]!	; 0xfffffe7c
     754:	656e6f6e 	strbvs	r6, [lr, #-3950]!	; 0xfffff092
     758:	6261652d 	rsbvs	r6, r1, #188743680	; 0xb400000
     75c:	2e392f69 	cdpcs	15, 3, cr2, cr9, cr9, {3}
     760:	2f312e32 	svccs	0x00312e32
     764:	6c636e69 	stclvs	14, cr6, [r3], #-420	; 0xfffffe5c
     768:	00656475 	rsbeq	r6, r5, r5, ror r4
     76c:	6573552f 	ldrbvs	r5, [r3, #-1327]!	; 0xfffffad1
     770:	6d2f7372 	stcvs	3, cr7, [pc, #-456]!	; 5b0 <__code_start__-0x7a50>
     774:	73656c69 	cmnvc	r5, #26880	; 0x6900
     778:	756f532f 	strbvc	r5, [pc, #-815]!	; 451 <__code_start__-0x7baf>
     77c:	2f656372 	svccs	0x00656372
     780:	34327363 	ldrtcc	r7, [r2], #-867	; 0xfffffc9d
     784:	2f786c30 	svccs	0x00786c30
     788:	7062696c 	rsbvc	r6, r2, ip, ror #18
     78c:	6e692f69 	cdpvs	15, 6, cr2, cr9, cr9, {3}
     790:	64756c63 	ldrbtvs	r6, [r5], #-3171	; 0xfffff39d
     794:	63000065 	movwvs	r0, #101	; 0x65
     798:	63672d6b 	cmnvs	r7, #6848	; 0x1ac0
     79c:	0000632e 	andeq	r6, r0, lr, lsr #6
     7a0:	72730000 	rsbsvc	r0, r3, #0, 0
     7a4:	6f6c2d63 	svcvs	0x006c2d63
     7a8:	00682e63 	rsbeq	r2, r8, r3, ror #28
     7ac:	73000000 	movwvc	r0, #0
     7b0:	6e696474 	mcrvs	4, 3, r6, cr9, cr4, {3}
     7b4:	63672d74 	cmnvs	r7, #116, 26	; 0x1d00
     7b8:	00682e63 	rsbeq	r2, r8, r3, ror #28
     7bc:	72000001 	andvc	r0, r0, #1, 0
     7c0:	682e6970 	stmdavs	lr!, {r4, r5, r6, r8, fp, sp, lr}
     7c4:	00000200 	andeq	r0, r0, r0, lsl #4
     7c8:	6c616b63 			; <UNDEFINED> instruction: 0x6c616b63
     7cc:	2e636f6c 	cdpcs	15, 6, cr6, cr3, cr12, {3}
     7d0:	00000068 	andeq	r0, r0, r8, rrx
     7d4:	01050000 	mrseq	r0, (UNDEF: 5)
     7d8:	40020500 	andmi	r0, r2, r0, lsl #10
     7dc:	03000087 	movweq	r0, #135	; 0x87
     7e0:	0106012b 	tsteq	r6, fp, lsr #2
     7e4:	68060505 	stmdavs	r6, {r0, r2, r8, sl}
     7e8:	01060b05 	tsteq	r6, r5, lsl #22
     7ec:	054a0805 	strbeq	r0, [sl, #-2053]	; 0xfffff7fb
     7f0:	0402001d 	streq	r0, [r2], #-29	; 0xffffffe3
     7f4:	18054a01 	stmdane	r5, {r0, r9, fp, lr}
     7f8:	01040200 	mrseq	r0, R12_usr
     7fc:	4d0c054a 	cfstr32mi	mvfx0, [ip, #-296]	; 0xfffffed8
     800:	2c10052e 	cfldr32cs	mvfx0, [r0], {46}	; 0x2e
     804:	01052e2e 	tsteq	r5, lr, lsr #28
     808:	0b030631 	bleq	c20d4 <__bss_end__+0xb6ddc>
     80c:	0501069e 	streq	r0, [r1, #-1694]	; 0xfffff962
     810:	14830605 	strne	r0, [r3], #1541	; 0x605
     814:	01060a05 	tsteq	r6, r5, lsl #20
     818:	052e0805 	streq	r0, [lr, #-2053]!	; 0xfffff7fb
     81c:	054c0605 	strbeq	r0, [ip, #-1541]	; 0xfffff9fb
     820:	0501060c 	streq	r0, [r1, #-1548]	; 0xfffff9f4
     824:	01056510 	tsteq	r5, r0, lsl r5
     828:	0e030630 	mcreq	6, 0, r0, cr3, cr0, {1}
     82c:	05010682 	streq	r0, [r1, #-1666]	; 0xfffff97e
     830:	01830605 	orreq	r0, r3, r5, lsl #12
     834:	02040200 	andeq	r0, r4, #0, 4
     838:	04020082 	streq	r0, [r2], #-130	; 0xffffff7e
     83c:	02000102 	andeq	r0, r0, #-2147483648	; 0x80000000
     840:	00150204 	andseq	r0, r5, r4, lsl #4
     844:	01020402 	tsteq	r2, r2, lsl #8
     848:	02040200 	andeq	r0, r4, #0, 4
     84c:	0402004a 	streq	r0, [r2], #-74	; 0xffffffb6
     850:	02000102 	andeq	r0, r0, #-2147483648	; 0x80000000
     854:	00130204 	andseq	r0, r3, r4, lsl #4
     858:	01020402 	tsteq	r2, r2, lsl #8
     85c:	01040200 	mrseq	r0, R12_usr
     860:	0402004a 	streq	r0, [r2], #-74	; 0xffffffb6
     864:	02000101 	andeq	r0, r0, #1073741824	; 0x40000000
     868:	9e060104 	adflss	f0, f6, f4
     86c:	01040200 	mrseq	r0, R12_usr
     870:	0402002e 	streq	r0, [r2], #-46	; 0xffffffd2
     874:	002e0601 	eoreq	r0, lr, r1, lsl #12
     878:	2a010402 	bcs	41888 <__bss_end__+0x36590>
     87c:	01040200 	mrseq	r0, R12_usr
     880:	04020001 	streq	r0, [r2], #-1
     884:	009e0601 	addseq	r0, lr, r1, lsl #12
     888:	2e010402 	cdpcs	4, 0, cr0, cr1, cr2, {0}
     88c:	01040200 	mrseq	r0, R12_usr
     890:	02002e06 	andeq	r2, r0, #96	; 0x60
     894:	00310104 	eorseq	r0, r1, r4, lsl #2
     898:	01010402 	tsteq	r1, r2, lsl #8
     89c:	01040200 	mrseq	r0, R12_usr
     8a0:	02009e06 	andeq	r9, r0, #96	; 0x60
     8a4:	002e0104 	eoreq	r0, lr, r4, lsl #2
     8a8:	06010402 	streq	r0, [r1], -r2, lsl #8
     8ac:	0619052e 	ldreq	r0, [r9], -lr, lsr #10
     8b0:	052e0d03 	streq	r0, [lr, #-3331]!	; 0xfffff2fd
     8b4:	02004b11 	andeq	r4, r0, #17408	; 0x4400
     8b8:	002e0404 	eoreq	r0, lr, r4, lsl #8
     8bc:	06040402 	streq	r0, [r4], -r2, lsl #8
     8c0:	0014054d 	andseq	r0, r4, sp, asr #10
     8c4:	06040402 	streq	r0, [r4], -r2, lsl #8
     8c8:	04020001 	streq	r0, [r2], #-1
     8cc:	23054a04 	movwcs	r4, #23044	; 0x5a04
     8d0:	02040200 	andeq	r0, r4, #0, 4
     8d4:	01720306 	cmneq	r2, r6, lsl #6
     8d8:	02002405 	andeq	r2, r0, #83886080	; 0x5000000
     8dc:	01060204 	tsteq	r6, r4, lsl #4
     8e0:	02001b05 	andeq	r1, r0, #5120	; 0x1400
     8e4:	2e060104 	adfcss	f0, f6, f4
     8e8:	02000505 	andeq	r0, r0, #20971520	; 0x1400000
     8ec:	01060104 	tsteq	r6, r4, lsl #2
     8f0:	4c060905 			; <UNDEFINED> instruction: 0x4c060905
     8f4:	01061405 	tsteq	r6, r5, lsl #8
     8f8:	4b060905 	blmi	182d14 <__bss_end__+0x177a1c>
     8fc:	01060c05 	tsteq	r6, r5, lsl #24
     900:	4c060d05 	stcmi	13, cr0, [r6], {5}
     904:	01062905 	tsteq	r6, r5, lsl #18
     908:	2f060d05 	svccs	0x00060d05
     90c:	01061605 	tsteq	r6, r5, lsl #12
     910:	2f060d05 	svccs	0x00060d05
     914:	062e2e06 	strteq	r2, [lr], -r6, lsl #28
     918:	061005bb 			; <UNDEFINED> instruction: 0x061005bb
     91c:	06110501 	ldreq	r0, [r1], -r1, lsl #10
     920:	061c054c 	ldreq	r0, [ip], -ip, asr #10
     924:	2e190501 	cfmul32cs	mvfx0, mvfx9, mvfx1
     928:	04040200 	streq	r0, [r4], #-512	; 0xfffffe00
     92c:	00110566 	andseq	r0, r1, r6, ror #10
     930:	06040402 	streq	r0, [r4], -r2, lsl #8
     934:	002c052f 	eoreq	r0, ip, pc, lsr #10
     938:	06040402 	streq	r0, [r4], -r2, lsl #8
     93c:	00110501 	andseq	r0, r1, r1, lsl #10
     940:	2e040402 	cdpcs	4, 0, cr0, cr4, cr2, {0}
     944:	0615054a 	ldreq	r0, [r5], -sl, asr #10
     948:	064d054f 	strbeq	r0, [sp], -pc, asr #10
     94c:	2e150501 	cfmul32cs	mvfx0, mvfx5, mvfx1
     950:	a3061105 	movwge	r1, #24837	; 0x6105
     954:	01056606 	tsteq	r5, r6, lsl #12
     958:	03064a16 	movweq	r4, #27158	; 0x6a16
     95c:	05900809 	ldreq	r0, [r0, #2057]	; 0x809
     960:	0a058605 	beq	16217c <__bss_end__+0x156e84>
     964:	06150501 	ldreq	r0, [r5], -r1, lsl #10
     968:	00250501 	eoreq	r0, r5, r1, lsl #10
     96c:	06010402 	streq	r0, [r1], -r2, lsl #8
     970:	0005052e 	andeq	r0, r5, lr, lsr #10
     974:	06010402 	streq	r0, [r1], -r2, lsl #8
     978:	00090501 	andeq	r0, r9, r1, lsl #10
     97c:	06030402 	streq	r0, [r3], -r2, lsl #8
     980:	0032054c 	eorseq	r0, r2, ip, asr #10
     984:	06030402 	streq	r0, [r3], -r2, lsl #8
     988:	00210501 	eoreq	r0, r1, r1, lsl #10
     98c:	4a030402 	bmi	c199c <__bss_end__+0xb66a4>
     990:	02001105 	andeq	r1, r0, #1073741825	; 0x40000001
     994:	052e0304 	streq	r0, [lr, #-772]!	; 0xfffffcfc
     998:	04020028 	streq	r0, [r2], #-40	; 0xffffffd8
     99c:	052c0603 	streq	r0, [ip, #-1539]!	; 0xfffff9fd
     9a0:	0402002c 	streq	r0, [r2], #-44	; 0xffffffd4
     9a4:	00010603 	andeq	r0, r1, r3, lsl #12
     9a8:	2e030402 	cdpcs	4, 0, cr0, cr3, cr2, {0}
     9ac:	03040200 	movweq	r0, #16896	; 0x4200
     9b0:	0605052e 	streq	r0, [r5], -lr, lsr #10
     9b4:	2e061319 	mcrcs	3, 0, r1, cr6, cr9, {0}
     9b8:	0d053006 	stceq	0, cr3, [r5, #-24]	; 0xffffffe8
     9bc:	05050106 	streq	r0, [r5, #-262]	; 0xfffffefa
     9c0:	0d054b06 	vstreq	d4, [r5, #-24]	; 0xffffffe8
     9c4:	05050106 	streq	r0, [r5, #-262]	; 0xfffffefa
     9c8:	0d052f06 	stceq	15, cr2, [r5, #-24]	; 0xffffffe8
     9cc:	05050106 	streq	r0, [r5, #-262]	; 0xfffffefa
     9d0:	0d052f06 	stceq	15, cr2, [r5, #-24]	; 0xffffffe8
     9d4:	05050106 	streq	r0, [r5, #-262]	; 0xfffffefa
     9d8:	136a3506 	cmnne	sl, #25165824	; 0x1800000
     9dc:	68136983 	ldmdavs	r3, {r0, r1, r7, r8, fp, sp, lr}
     9e0:	06010513 			; <UNDEFINED> instruction: 0x06010513
     9e4:	23030667 	movwcs	r0, #13927	; 0x3667
     9e8:	01065808 	tsteq	r6, r8, lsl #16
     9ec:	83060505 	movwhi	r0, #25861	; 0x6505
     9f0:	062e0613 			; <UNDEFINED> instruction: 0x062e0613
     9f4:	052f4c2f 	streq	r4, [pc, #-3119]!	; fffffdcd <__bss_end__+0xffff4ad5>
     9f8:	1505010a 	strne	r0, [r5, #-266]	; 0xfffffef6
     9fc:	054a0106 	strbeq	r0, [sl, #-262]	; 0xfffffefa
     a00:	1b050d27 	blne	143ea4 <__bss_end__+0x138bac>
     a04:	2e0e052e 	cfsh32cs	mvfx0, mvfx14, #30
     a08:	05330505 	ldreq	r0, [r3, #-1285]!	; 0xfffffafb
     a0c:	0533060d 	ldreq	r0, [r3, #-1549]!	; 0xfffff9f3
     a10:	05010613 	streq	r0, [r1, #-1555]	; 0xfffff9ed
     a14:	062f060d 	strteq	r0, [pc], -sp, lsl #12
     a18:	00280566 	eoreq	r0, r8, r6, ror #10
     a1c:	06020402 	streq	r0, [r2], -r2, lsl #8
     a20:	052e7a03 	streq	r7, [lr, #-2563]!	; 0xfffff5fd
     a24:	0402002c 	streq	r0, [r2], #-44	; 0xffffffd4
     a28:	05010602 	streq	r0, [r1, #-1538]	; 0xfffff9fe
     a2c:	04020025 	streq	r0, [r2], #-37	; 0xffffffdb
     a30:	05660601 	strbeq	r0, [r6, #-1537]!	; 0xfffff9ff
     a34:	04020005 	streq	r0, [r2], #-5
     a38:	05010601 	streq	r0, [r1, #-1537]	; 0xfffff9ff
     a3c:	054c0609 	strbeq	r0, [ip, #-1545]	; 0xfffff9f7
     a40:	05010610 	streq	r0, [r1, #-1552]	; 0xfffff9f0
     a44:	052f0609 	streq	r0, [pc, #-1545]!	; 443 <__code_start__-0x7bbd>
     a48:	0501060e 	streq	r0, [r1, #-1550]	; 0xfffff9f2
     a4c:	0e052e0c 	cdpeq	14, 0, cr2, cr5, cr12, {0}
     a50:	11054f06 	tstne	r5, r6, lsl #30
     a54:	0d050106 	stfeqs	f0, [r5, #-24]	; 0xffffffe8
     a58:	19054c06 	stmdbne	r5, {r1, r2, sl, fp, lr}
     a5c:	0d050106 	stfeqs	f0, [r5, #-24]	; 0xffffffe8
     a60:	66062f06 	strvs	r2, [r6], -r6, lsl #30
     a64:	05052e2e 	streq	r2, [r5, #-3630]	; 0xfffff1d2
     a68:	06011606 	streq	r1, [r1], -r6, lsl #12
     a6c:	132e064a 			; <UNDEFINED> instruction: 0x132e064a
     a70:	01060805 	tsteq	r6, r5, lsl #16
     a74:	4b060905 	blmi	182e90 <__bss_end__+0x177b98>
     a78:	02004a01 	andeq	r4, r0, #4096	; 0x1000
     a7c:	05140104 	ldreq	r0, [r4, #-260]	; 0xfffffefc
     a80:	04020005 	streq	r0, [r2], #-5
     a84:	02001401 	andeq	r1, r0, #16777216	; 0x1000000
     a88:	054b0104 	strbeq	r0, [fp, #-260]	; 0xfffffefc
     a8c:	04020008 	streq	r0, [r2], #-8
     a90:	05010601 	streq	r0, [r1, #-1537]	; 0xfffff9ff
     a94:	05300609 	ldreq	r0, [r0, #-1545]!	; 0xfffff9f7
     a98:	05010617 	streq	r0, [r1, #-1559]	; 0xfffff9e9
     a9c:	09053401 	stmdbeq	r5, {r0, sl, ip, sp}
     aa0:	4a750306 	bmi	1d416c0 <__bss_end__+0x1d363c8>
     aa4:	03010501 	movweq	r0, #5377	; 0x1501
     aa8:	01220235 			; <UNDEFINED> instruction: 0x01220235
     aac:	13830505 	orrne	r0, r3, #20971520	; 0x1400000
     ab0:	052f4c4b 	streq	r4, [pc, #-3147]!	; fffffe6d <__bss_end__+0xffff4b75>
     ab4:	1505010a 	strne	r0, [r5, #-266]	; 0xfffffef6
     ab8:	054a0106 	strbeq	r0, [sl, #-262]	; 0xfffffefa
     abc:	1b050d27 	blne	143f60 <__bss_end__+0x138c68>
     ac0:	2e0e052e 	cfsh32cs	mvfx0, mvfx14, #30
     ac4:	05330505 	ldreq	r0, [r3, #-1285]!	; 0xfffffafb
     ac8:	0533060d 	ldreq	r0, [r3, #-1549]!	; 0xfffff9f3
     acc:	05010613 	streq	r0, [r1, #-1555]	; 0xfffff9ed
     ad0:	052f060d 	streq	r0, [pc, #-1549]!	; 4cb <__code_start__-0x7b35>
     ad4:	0501061e 	streq	r0, [r1, #-1566]	; 0xfffff9e2
     ad8:	0d052e1a 	stceq	14, cr2, [r5, #-104]	; 0xffffff98
     adc:	02042f06 	andeq	r2, r4, #6, 30
     ae0:	ef030b05 	svc	0x00030b05
     ae4:	05052e7d 	streq	r2, [r5, #-3709]	; 0xfffff183
     ae8:	060c0513 			; <UNDEFINED> instruction: 0x060c0513
     aec:	0104ba01 	tsteq	r4, r1, lsl #20
     af0:	90030d05 	andls	r0, r3, r5, lsl #26
     af4:	06660102 	strbteq	r0, [r6], -r2, lsl #2
     af8:	0028052f 	eoreq	r0, r8, pc, lsr #10
     afc:	03020402 	movweq	r0, #9218	; 0x2402
     b00:	2c056678 	stccs	6, cr6, [r5], {120}	; 0x78
     b04:	02040200 	andeq	r0, r4, #0, 4
     b08:	25050106 	strcs	r0, [r5, #-262]	; 0xfffffefa
     b0c:	01040200 	mrseq	r0, R12_usr
     b10:	05056606 	streq	r6, [r5, #-1542]	; 0xfffff9fa
     b14:	01040200 	mrseq	r0, R12_usr
     b18:	09050106 	stmdbeq	r5, {r1, r2, r8}
     b1c:	10054c06 	andne	r4, r5, r6, lsl #24
     b20:	09050106 	stmdbeq	r5, {r1, r2, r8}
     b24:	0e052f06 	cdpeq	15, 0, cr2, cr5, cr6, {0}
     b28:	0c050106 	stfeqs	f0, [r5], {6}
     b2c:	0505662e 	streq	r6, [r5, #-1582]	; 0xfffff9d2
     b30:	01090306 	tsteq	r9, r6, lsl #6
     b34:	06820601 	streq	r0, [r2], r1, lsl #12
     b38:	0105142e 	tsteq	r5, lr, lsr #8
     b3c:	06661306 	strbteq	r1, [r6], -r6, lsl #6
     b40:	087dee03 	ldmdaeq	sp!, {r0, r1, r9, sl, fp, sp, lr, pc}^
     b44:	0501063c 	streq	r0, [r1, #-1596]	; 0xfffff9c4
     b48:	14830605 	strne	r0, [r3], #1541	; 0x605
     b4c:	04020001 	streq	r0, [r2], #-1
     b50:	02004a02 	andeq	r4, r0, #8192	; 0x2000
     b54:	00010204 	andeq	r0, r1, r4, lsl #4
     b58:	13020402 	movwne	r0, #9218	; 0x2402
     b5c:	02000905 	andeq	r0, r0, #81920	; 0x14000
     b60:	01060204 	tsteq	r6, r4, lsl #4
     b64:	02000805 	andeq	r0, r0, #327680	; 0x50000
     b68:	054a0204 	strbeq	r0, [sl, #-516]	; 0xfffffdfc
     b6c:	154b0609 	strbne	r0, [fp, #-1545]	; 0xfffff9f7
     b70:	06140513 			; <UNDEFINED> instruction: 0x06140513
     b74:	09054a01 	stmdbeq	r5, {r0, r9, fp, lr}
     b78:	12052f06 	andne	r2, r5, #6, 30
     b7c:	09050106 	stmdbeq	r5, {r1, r2, r8}
     b80:	054b4b06 	strbeq	r4, [fp, #-2822]	; 0xfffff4fa
     b84:	05010610 	streq	r0, [r1, #-1552]	; 0xfffff9f0
     b88:	054c0605 	strbeq	r0, [ip, #-1541]	; 0xfffff9fb
     b8c:	0501060c 	streq	r0, [r1, #-1548]	; 0xfffff9f4
     b90:	05054b01 	streq	r4, [r5, #-2817]	; 0xfffff4ff
     b94:	01040200 	mrseq	r0, R12_usr
     b98:	4a740306 	bmi	1d017b8 <__bss_end__+0x1cf64c0>
     b9c:	01040200 	mrseq	r0, R12_usr
     ba0:	04020001 	streq	r0, [r2], #-1
     ba4:	00ba0601 	adcseq	r0, sl, r1, lsl #12
     ba8:	06010402 	streq	r0, [r1], -r2, lsl #8
     bac:	3009052e 	andcc	r0, r9, lr, lsr #10
     bb0:	06820601 	streq	r0, [r2], r1, lsl #12
     bb4:	0338052e 	teqeq	r8, #192937984	; 0xb800000
     bb8:	74080189 	strvc	r0, [r8], #-393	; 0xfffffe77
     bbc:	05050106 	streq	r0, [r5, #-262]	; 0xfffffefa
     bc0:	05138306 	ldreq	r8, [r3, #-774]	; 0xfffffcfa
     bc4:	0e05010a 	adfeqs	f0, f5, #2.0
     bc8:	09050106 	stmdbeq	r5, {r1, r2, r8}
     bcc:	2f05052d 	svccs	0x0005052d
     bd0:	30060d05 	andcc	r0, r6, r5, lsl #26
     bd4:	01061205 	tsteq	r6, r5, lsl #4
     bd8:	02002105 	andeq	r2, r0, #1073741825	; 0x40000001
     bdc:	2c060204 	sfmcs	f0, 4, [r6], {4}
     be0:	02002205 	andeq	r2, r0, #1342177280	; 0x50000000
     be4:	01060204 	tsteq	r6, r4, lsl #4
     be8:	02001505 	andeq	r1, r0, #20971520	; 0x1400000
     bec:	2e060104 	adfcss	f0, f6, f4
     bf0:	02000505 	andeq	r0, r0, #20971520	; 0x1400000
     bf4:	01060104 	tsteq	r6, r4, lsl #2
     bf8:	4b060905 	blmi	183014 <__bss_end__+0x177d1c>
     bfc:	01061405 	tsteq	r6, r5, lsl #8
     c00:	052e0c05 	streq	r0, [lr, #-3077]!	; 0xfffff3fb
     c04:	05f90616 	ldrbeq	r0, [r9, #1558]!	; 0x616
     c08:	05136705 	ldreq	r6, [r3, #-1797]	; 0xfffff8fb
     c0c:	1505010a 	strne	r0, [r5, #-266]	; 0xfffffef6
     c10:	054a0106 	strbeq	r0, [sl, #-262]	; 0xfffffefa
     c14:	05051109 	streq	r1, [r5, #-265]	; 0xfffffef7
     c18:	0611052f 	ldreq	r0, [r1], -pc, lsr #10
     c1c:	012e0903 			; <UNDEFINED> instruction: 0x012e0903
     c20:	2e068206 	cdpcs	2, 0, cr8, cr6, cr6, {0}
     c24:	01040200 	mrseq	r0, R12_usr
     c28:	0009054a 	andeq	r0, r9, sl, asr #10
     c2c:	15010402 	strne	r0, [r1, #-1026]	; 0xfffffbfe
     c30:	02001005 	andeq	r1, r0, #5, 0
     c34:	01060104 	tsteq	r6, r4, lsl #2
     c38:	01040200 	mrseq	r0, R12_usr
     c3c:	0028052e 	eoreq	r0, r8, lr, lsr #10
     c40:	06010402 	streq	r0, [r1], -r2, lsl #8
     c44:	05017403 	streq	r7, [r1, #-1027]	; 0xfffffbfd
     c48:	0402002c 	streq	r0, [r2], #-44	; 0xffffffd4
     c4c:	05010601 	streq	r0, [r1, #-1537]	; 0xfffff9ff
     c50:	04020025 	streq	r0, [r2], #-37	; 0xffffffdb
     c54:	05660602 	strbeq	r0, [r6, #-1538]!	; 0xfffff9fe
     c58:	04020005 	streq	r0, [r2], #-5
     c5c:	05010602 	streq	r0, [r1, #-1538]	; 0xfffff9fe
     c60:	134b0609 	movtne	r0, #46601	; 0xb609
     c64:	01061e05 	tsteq	r6, r5, lsl #28
     c68:	0609054a 	streq	r0, [r9], -sl, asr #10
     c6c:	0637054b 	ldrteq	r0, [r7], -fp, asr #10
     c70:	2e3f0501 	cdpcs	5, 3, cr0, cr15, cr1, {0}
     c74:	052e1e05 	streq	r1, [lr, #-3589]!	; 0xfffff1fb
     c78:	0905821b 	stmdbeq	r5, {r0, r1, r3, r4, r9, pc}
     c7c:	9e012f06 	cdpls	15, 0, cr2, cr1, cr6, {0}
     c80:	0e05134a 	cdpeq	3, 0, cr1, cr5, cr10, {2}
     c84:	0c050106 	stfeqs	f0, [r5], {6}
     c88:	060d052e 	streq	r0, [sp], -lr, lsr #10
     c8c:	0615054b 	ldreq	r0, [r5], -fp, asr #10
     c90:	060d0501 	streq	r0, [sp], -r1, lsl #10
     c94:	061f0567 	ldreq	r0, [pc], -r7, ror #10
     c98:	060d0501 	streq	r0, [sp], -r1, lsl #10
     c9c:	0610052f 	ldreq	r0, [r0], -pc, lsr #10
     ca0:	05056601 	streq	r6, [r5, #-1537]	; 0xfffff9ff
     ca4:	01051806 	tsteq	r5, r6, lsl #16
     ca8:	062e1306 	strteq	r1, [lr], -r6, lsl #6
     cac:	20082f03 	andcs	r2, r8, r3, lsl #30
     cb0:	05050106 	streq	r0, [r5, #-262]	; 0xfffffefa
     cb4:	0c056806 	stceq	8, cr6, [r5], {6}
     cb8:	01050106 	tsteq	r5, r6, lsl #2
     cbc:	05be062f 	ldreq	r0, [lr, #1583]!	; 0x62f
     cc0:	05136a05 	ldreq	r6, [r3, #-2565]	; 0xfffff5fb
     cc4:	05010609 	streq	r0, [r1, #-1545]	; 0xfffff9f7
     cc8:	09054a08 	stmdbeq	r5, {r3, r9, fp, lr}
     ccc:	01144b06 	tsteq	r4, r6, lsl #22
     cd0:	1305054a 	movwne	r0, #21834	; 0x554a
     cd4:	13060105 	movwne	r0, #24837	; 0x6105
     cd8:	2a060905 	bcs	1830f4 <__bss_end__+0x177dfc>
     cdc:	01059e01 	tsteq	r5, r1, lsl #28
     ce0:	05056008 	streq	r6, [r5, #-8]
     ce4:	1705136a 	strne	r1, [r5, -sl, ror #6]
     ce8:	05050106 	streq	r0, [r5, #-262]	; 0xfffffefa
     cec:	08054b06 	stmdaeq	r5, {r1, r2, r8, r9, fp, lr}
     cf0:	09050106 	stmdbeq	r5, {r1, r2, r8}
     cf4:	01144b06 	tsteq	r4, r6, lsl #22
     cf8:	2e064a06 	vmlacs.f32	s8, s12, s12
     cfc:	13130505 	tstne	r3, #20971520	; 0x1400000
     d00:	13060105 	movwne	r0, #24837	; 0x6105
     d04:	45060905 	strmi	r0, [r6, #-2309]	; 0xfffff6fb
     d08:	01059e01 	tsteq	r5, r1, lsl #28
     d0c:	05f22103 	ldrbeq	r2, [r2, #259]!	; 0x103
     d10:	052f6705 	streq	r6, [pc, #-1797]!	; 613 <__code_start__-0x79ed>
     d14:	05010617 	streq	r0, [r1, #-1559]	; 0xfffff9e9
     d18:	05320605 	ldreq	r0, [r2, #-1541]!	; 0xfffff9fb
     d1c:	06130601 	ldreq	r0, [r3], -r1, lsl #12
     d20:	670505bd 			; <UNDEFINED> instruction: 0x670505bd
     d24:	08029e01 	stmdaeq	r2, {r0, r9, sl, fp, ip, pc}
     d28:	36010100 	strcc	r0, [r1], -r0, lsl #2
     d2c:	03000001 	movweq	r0, #1
     d30:	00005b00 	andeq	r5, r0, r0, lsl #22
     d34:	fb010200 	blx	4153e <__bss_end__+0x36246>
     d38:	01000d0e 	tsteq	r0, lr, lsl #26
     d3c:	00010101 	andeq	r0, r1, r1, lsl #2
     d40:	00010000 	andeq	r0, r1, r0
     d44:	2f2e0100 	svccs	0x002e0100
     d48:	00637273 	rsbeq	r7, r3, r3, ror r2
     d4c:	6573552f 	ldrbvs	r5, [r3, #-1327]!	; 0xfffffad1
     d50:	6d2f7372 	stcvs	3, cr7, [pc, #-456]!	; b90 <__code_start__-0x7470>
     d54:	73656c69 	cmnvc	r5, #26880	; 0x6900
     d58:	756f532f 	strbvc	r5, [pc, #-815]!	; a31 <__code_start__-0x75cf>
     d5c:	2f656372 	svccs	0x00656372
     d60:	34327363 	ldrtcc	r7, [r2], #-867	; 0xfffffc9d
     d64:	2f786c30 	svccs	0x00786c30
     d68:	7062696c 	rsbvc	r6, r2, ip, ror #18
     d6c:	6e692f69 	cdpvs	15, 6, cr2, cr9, cr9, {3}
     d70:	64756c63 	ldrbtvs	r6, [r5], #-3171	; 0xfffff39d
     d74:	62000065 	andvs	r0, r0, #101, 0	; 0x65
     d78:	746b6361 	strbtvc	r6, [fp], #-865	; 0xfffffc9f
     d7c:	65636172 	strbvs	r6, [r3, #-370]!	; 0xfffffe8e
     d80:	0100632e 	tsteq	r0, lr, lsr #6
     d84:	70720000 	rsbsvc	r0, r2, r0
     d88:	00682e69 	rsbeq	r2, r8, r9, ror #28
     d8c:	00000002 	andeq	r0, r0, r2
     d90:	05001105 	streq	r1, [r0, #-261]	; 0xfffffefb
     d94:	008f5802 	addeq	r5, pc, r2, lsl #16
     d98:	011c0300 	tsteq	ip, r0, lsl #6
     d9c:	13130505 	tstne	r3, #20971520	; 0x1400000
     da0:	10061105 	andne	r1, r6, r5, lsl #2
     da4:	06300505 	ldrteq	r0, [r0], -r5, lsl #10
     da8:	010a0530 	tsteq	sl, r0, lsr r5
     dac:	05011505 	streq	r1, [r1, #-1285]	; 0xfffffafb
     db0:	05010605 	streq	r0, [r1, #-1541]	; 0xfffff9fb
     db4:	10054a0e 	andne	r4, r5, lr, lsl #20
     db8:	052e2703 	streq	r2, [lr, #-1795]!	; 0xfffff8fd
     dbc:	2e5b0309 	cdpcs	3, 5, cr0, cr11, cr9, {0}
     dc0:	002f054a 	eoreq	r0, pc, sl, asr #10
     dc4:	10020402 	andne	r0, r2, r2, lsl #8
     dc8:	02001505 	andeq	r1, r0, #20971520	; 0x1400000
     dcc:	2e060204 	cdpcs	2, 0, cr0, cr6, cr4, {0}
     dd0:	02000505 	andeq	r0, r0, #20971520	; 0x1400000
     dd4:	01060204 	tsteq	r6, r4, lsl #4
     dd8:	4b060905 	blmi	1831f4 <__bss_end__+0x177efc>
     ddc:	05012303 	streq	r2, [r1, #-771]	; 0xfffffcfd
     de0:	5d030617 	stcpl	6, cr0, [r3, #-92]	; 0xffffffa4
     de4:	2f090501 	svccs	0x00090501
     de8:	20030e05 	andcs	r0, r3, r5, lsl #28
     dec:	0609052e 	streq	r0, [r9], -lr, lsr #10
     df0:	06120531 			; <UNDEFINED> instruction: 0x06120531
     df4:	05015c03 	streq	r5, [r1, #-3075]	; 0xfffff3fd
     df8:	052f0609 	streq	r0, [pc, #-1545]!	; 7f7 <__code_start__-0x7809>
     dfc:	011f030d 	tsteq	pc, sp, lsl #6
     e00:	13130505 	tstne	r3, #20971520	; 0x1400000
     e04:	01060805 	tsteq	r6, r5, lsl #16
     e08:	052d3105 	streq	r3, [sp, #-261]!	; 0xfffffefb
     e0c:	31053012 	tstcc	r5, r2, lsl r0
     e10:	10052e2f 	andne	r2, r5, pc, lsr #28
     e14:	09052e14 	stmdbeq	r5, {r2, r4, r9, sl, fp, sp}
     e18:	06015b03 	streq	r5, [r1], -r3, lsl #22
     e1c:	0f2e054b 	svceq	0x002e054b
     e20:	15061f05 	strne	r1, [r6, #-3845]	; 0xfffff0fb
     e24:	2f060905 	svccs	0x00060905
     e28:	01060c05 	tsteq	r6, r5, lsl #24
     e2c:	05500105 	ldrbeq	r0, [r0, #-261]	; 0xfffffefb
     e30:	0105490c 	tsteq	r5, ip, lsl #18
     e34:	062d052f 	strteq	r0, [sp], -pc, lsr #10
     e38:	05821703 	streq	r1, [r2, #1795]	; 0x703
     e3c:	0e051305 	cdpeq	3, 0, cr1, cr5, cr5, {0}
     e40:	05050106 	streq	r0, [r5, #-262]	; 0xfffffefa
     e44:	31052f06 	tstcc	r5, r6, lsl #30
     e48:	08051106 	stmdaeq	r5, {r1, r2, r8, ip}
     e4c:	0609052f 	streq	r0, [r9], -pc, lsr #10
     e50:	1205132f 	andne	r1, r5, #-1140850688	; 0xbc000000
     e54:	31051106 	tstcc	r5, r6, lsl #2
     e58:	10052e2f 	andne	r2, r5, pc, lsr #28
     e5c:	30010514 	andcc	r0, r1, r4, lsl r5
     e60:	01000402 	tsteq	r0, r2, lsl #8
     e64:	00012101 	andeq	r2, r1, r1, lsl #2
     e68:	be000300 	cdplt	3, 0, cr0, cr0, cr0, {0}
     e6c:	02000000 	andeq	r0, r0, #0, 0
     e70:	0d0efb01 	vstreq	d15, [lr, #-4]
     e74:	01010100 	mrseq	r0, (UNDEF: 17)
     e78:	00000001 	andeq	r0, r0, r1
     e7c:	01000001 	tsteq	r0, r1
     e80:	696c2f2e 	stmdbvs	ip!, {r1, r2, r3, r5, r8, r9, sl, fp, sp}^
     e84:	2f006362 	svccs	0x00006362
     e88:	72657355 	rsbvc	r7, r5, #1409286145	; 0x54000001
     e8c:	696d2f73 	stmdbvs	sp!, {r0, r1, r4, r5, r6, r8, r9, sl, fp, sp}^
     e90:	2f73656c 	svccs	0x0073656c
     e94:	72756f53 	rsbsvc	r6, r5, #332	; 0x14c
     e98:	632f6563 			; <UNDEFINED> instruction: 0x632f6563
     e9c:	30343273 	eorscc	r3, r4, r3, ror r2
     ea0:	6c2f786c 	stcvs	8, cr7, [pc], #-432	; cf8 <__code_start__-0x7308>
     ea4:	69706269 	ldmdbvs	r0!, {r0, r3, r5, r6, r9, sp, lr}^
     ea8:	636e692f 	cmnvs	lr, #770048	; 0xbc000
     eac:	6564756c 	strbvs	r7, [r4, #-1388]!	; 0xfffffa94
     eb0:	706f2f00 	rsbvc	r2, pc, r0, lsl #30
     eb4:	6f682f74 	svcvs	0x00682f74
     eb8:	7262656d 	rsbvc	r6, r2, #457179136	; 0x1b400000
     ebc:	432f7765 			; <UNDEFINED> instruction: 0x432f7765
     ec0:	616c6c65 	cmnvs	ip, r5, ror #24
     ec4:	72612f72 	rsbvc	r2, r1, #456	; 0x1c8
     ec8:	6f6e2d6d 	svcvs	0x006e2d6d
     ecc:	652d656e 	strvs	r6, [sp, #-1390]!	; 0xfffffa92
     ed0:	2d696261 	sfmcs	f6, 2, [r9, #-388]!	; 0xfffffe7c
     ed4:	2d392f39 	ldccs	15, cr2, [r9, #-228]!	; 0xffffff1c
     ed8:	39313032 	ldmdbcc	r1!, {r1, r4, r5, ip, sp}
     edc:	632d3471 			; <UNDEFINED> instruction: 0x632d3471
     ee0:	37303173 			; <UNDEFINED> instruction: 0x37303173
     ee4:	696c2f65 	stmdbvs	ip!, {r0, r2, r5, r6, r8, r9, sl, fp, sp}^
     ee8:	63672f62 	cmnvs	r7, #392	; 0x188
     eec:	72612f63 	rsbvc	r2, r1, #396	; 0x18c
     ef0:	6f6e2d6d 	svcvs	0x006e2d6d
     ef4:	652d656e 	strvs	r6, [sp, #-1390]!	; 0xfffffa92
     ef8:	2f696261 	svccs	0x00696261
     efc:	2e322e39 	mrccs	14, 1, r2, cr2, cr9, {1}
     f00:	6e692f31 	mcrvs	15, 3, r2, cr9, cr1, {1}
     f04:	64756c63 	ldrbtvs	r6, [r5], #-3171	; 0xfffff39d
     f08:	6d000065 	stcvs	0, cr0, [r0, #-404]	; 0xfffffe6c
     f0c:	65736d65 	ldrbvs	r6, [r3, #-3429]!	; 0xfffff29b
     f10:	00632e74 	rsbeq	r2, r3, r4, ror lr
     f14:	72000001 	andvc	r0, r0, #1, 0
     f18:	682e6970 	stmdavs	lr!, {r4, r5, r6, r8, fp, sp, lr}
     f1c:	00000200 	andeq	r0, r0, r0, lsl #4
     f20:	64647473 	strbtvs	r7, [r4], #-1139	; 0xfffffb8d
     f24:	682e6665 	stmdavs	lr!, {r0, r2, r5, r6, r9, sl, sp, lr}
     f28:	00000300 	andeq	r0, r0, r0, lsl #6
     f2c:	00290500 	eoreq	r0, r9, r0, lsl #10
     f30:	8ff80205 	svchi	0x00f80205
     f34:	05150000 	ldreq	r0, [r5, #-0]
     f38:	29051305 	stmdbcs	r5, {r0, r2, r8, r9, ip}
     f3c:	14051106 	strne	r1, [r5], #-262	; 0xfffffefa
     f40:	0605052f 	streq	r0, [r5], -pc, lsr #10
     f44:	010a0530 	tsteq	sl, r0, lsr r5
     f48:	09059e06 	stmdbeq	r5, {r1, r2, r9, sl, fp, ip, pc}
     f4c:	0e05d706 	cdpeq	7, 0, cr13, cr5, cr6, {0}
     f50:	0a050106 	beq	141370 <__bss_end__+0x136078>
     f54:	09052d06 	stmdbeq	r5, {r1, r2, r8, sl, fp, sp}
     f58:	060e05bb 			; <UNDEFINED> instruction: 0x060e05bb
     f5c:	0a052e01 	beq	14c768 <__bss_end__+0x141470>
     f60:	09052d06 	stmdbeq	r5, {r1, r2, r8, sl, fp, sp}
     f64:	060b054b 	streq	r0, [fp], -fp, asr #10
     f68:	2d0a0501 	cfstr32cs	mvfx0, [sl, #-4]
     f6c:	052f0e05 	streq	r0, [pc, #-3589]!	; 16f <__code_start__-0x7e91>
     f70:	052d060a 	streq	r0, [sp, #-1546]!	; 0xfffff9f6
     f74:	0513060e 	ldreq	r0, [r3, #-1550]	; 0xfffff9f2
     f78:	052e0609 	streq	r0, [lr, #-1545]!	; 0xfffff9f7
     f7c:	0505110a 	streq	r1, [r5, #-266]	; 0xfffffef6
     f80:	06010514 			; <UNDEFINED> instruction: 0x06010514
     f84:	00020213 	andeq	r0, r2, r3, lsl r2
     f88:	01200101 			; <UNDEFINED> instruction: 0x01200101
     f8c:	00030000 	andeq	r0, r3, r0
     f90:	000000db 	ldrdeq	r0, [r0], -fp
     f94:	0efb0102 	cdpeq	1, 15, cr0, cr11, cr2, {0}
     f98:	0101000d 	tsteq	r1, sp
     f9c:	00000101 	andeq	r0, r0, r1, lsl #2
     fa0:	00000100 	andeq	r0, r0, r0, lsl #2
     fa4:	6c2f2e01 	stcvs	14, cr2, [pc], #-4	; fa8 <__code_start__-0x7058>
     fa8:	00636269 	rsbeq	r6, r3, r9, ror #4
     fac:	74706f2f 	ldrbtvc	r6, [r0], #-3887	; 0xfffff0d1
     fb0:	6d6f682f 	stclvs	8, cr6, [pc, #-188]!	; efc <__code_start__-0x7104>
     fb4:	65726265 	ldrbvs	r6, [r2, #-613]!	; 0xfffffd9b
     fb8:	65432f77 	strbvs	r2, [r3, #-3959]	; 0xfffff089
     fbc:	72616c6c 	rsbvc	r6, r1, #108, 24	; 0x6c00
     fc0:	6d72612f 	ldfvse	f6, [r2, #-188]!	; 0xffffff44
     fc4:	6e6f6e2d 	cdpvs	14, 6, cr6, cr15, cr13, {1}
     fc8:	61652d65 	cmnvs	r5, r5, ror #26
     fcc:	392d6962 	pushcc	{r1, r5, r6, r8, fp, sp, lr}
     fd0:	322d392f 	eorcc	r3, sp, #770048	; 0xbc000
     fd4:	71393130 	teqvc	r9, r0, lsr r1
     fd8:	73632d34 	cmnvc	r3, #52, 26	; 0xd00
     fdc:	65373031 	ldrvs	r3, [r7, #-49]!	; 0xffffffcf
     fe0:	62696c2f 	rsbvs	r6, r9, #12032	; 0x2f00
     fe4:	6363672f 	cmnvs	r3, #12320768	; 0xbc0000
     fe8:	6d72612f 	ldfvse	f6, [r2, #-188]!	; 0xffffff44
     fec:	6e6f6e2d 	cdpvs	14, 6, cr6, cr15, cr13, {1}
     ff0:	61652d65 	cmnvs	r5, r5, ror #26
     ff4:	392f6962 	stmdbcc	pc!, {r1, r5, r6, r8, fp, sp, lr}	; <UNPREDICTABLE>
     ff8:	312e322e 			; <UNDEFINED> instruction: 0x312e322e
     ffc:	636e692f 	cmnvs	lr, #770048	; 0xbc000
    1000:	6564756c 	strbvs	r7, [r4, #-1388]!	; 0xfffffa94
    1004:	73552f00 	cmpvc	r5, #0, 30
    1008:	2f737265 	svccs	0x00737265
    100c:	656c696d 	strbvs	r6, [ip, #-2413]!	; 0xfffff693
    1010:	6f532f73 	svcvs	0x00532f73
    1014:	65637275 	strbvs	r7, [r3, #-629]!	; 0xfffffd8b
    1018:	3273632f 	rsbscc	r6, r3, #-1140850688	; 0xbc000000
    101c:	786c3034 	stmdavc	ip!, {r2, r4, r5, ip, sp}^
    1020:	62696c2f 	rsbvs	r6, r9, #12032	; 0x2f00
    1024:	692f6970 	stmdbvs	pc!, {r4, r5, r6, r8, fp, sp, lr}	; <UNPREDICTABLE>
    1028:	756c636e 	strbvc	r6, [ip, #-878]!	; 0xfffffc92
    102c:	00006564 	andeq	r6, r0, r4, ror #10
    1030:	6e697270 	mcrvs	2, 3, r7, cr9, cr0, {3}
    1034:	632e6b74 			; <UNDEFINED> instruction: 0x632e6b74
    1038:	00000100 	andeq	r0, r0, r0, lsl #2
    103c:	61647473 	smcvs	18243	; 0x4743
    1040:	682e6772 	stmdavs	lr!, {r1, r4, r5, r6, r8, r9, sl, sp, lr}
    1044:	00000200 	andeq	r0, r0, r0, lsl #4
    1048:	2e697072 	mcrcs	0, 3, r7, cr9, cr2, {3}
    104c:	00030068 	andeq	r0, r3, r8, rrx
    1050:	75623c00 	strbvc	r3, [r2, #-3072]!	; 0xfffff400
    1054:	2d746c69 	ldclcs	12, cr6, [r4, #-420]!	; 0xfffffe5c
    1058:	003e6e69 	eorseq	r6, lr, r9, ror #28
    105c:	76000000 	strvc	r0, [r0], -r0
    1060:	72702d61 	rsbsvc	r2, r0, #6208	; 0x1840
    1064:	6b746e69 	blvs	1d1ca10 <__bss_end__+0x1d11718>
    1068:	0100682e 	tsteq	r0, lr, lsr #16
    106c:	05000000 	streq	r0, [r0, #-0]
    1070:	02050022 	andeq	r0, r5, #34, 0	; 0x22
    1074:	00009070 	andeq	r9, r0, r0, ror r0
    1078:	14050517 	strne	r0, [r5], #-1303	; 0xfffffae9
    107c:	22051413 	andcs	r1, r5, #318767104	; 0x13000000
    1080:	12050d06 	andne	r0, r5, #384	; 0x180
    1084:	03220550 			; <UNDEFINED> instruction: 0x03220550
    1088:	05052e7a 	streq	r2, [r5, #-3706]	; 0xfffff186
    108c:	2f120533 	svccs	0x00120533
    1090:	05650505 	strbeq	r0, [r5, #-1285]!	; 0xfffffafb
    1094:	052f0609 	streq	r0, [pc, #-1545]!	; a93 <__code_start__-0x756d>
    1098:	05010612 	streq	r0, [r1, #-1554]	; 0xfffff9ee
    109c:	164b0605 	strbne	r0, [fp], -r5, lsl #12
    10a0:	50064a06 	andpl	r4, r6, r6, lsl #20
    10a4:	13060105 	movwne	r0, #24837	; 0x6105
    10a8:	00080266 	andeq	r0, r8, r6, ror #4
    10ac:	00a00101 	adceq	r0, r0, r1, lsl #2
    10b0:	00030000 	andeq	r0, r3, r0
    10b4:	00000057 	andeq	r0, r0, r7, asr r0
    10b8:	0efb0102 	cdpeq	1, 15, cr0, cr11, cr2, {0}
    10bc:	0101000d 	tsteq	r1, sp
    10c0:	00000101 	andeq	r0, r0, r1, lsl #2
    10c4:	00000100 	andeq	r0, r0, r0, lsl #2
    10c8:	6c2f2e01 	stcvs	14, cr2, [pc], #-4	; 10cc <__code_start__-0x6f34>
    10cc:	00636269 	rsbeq	r6, r3, r9, ror #4
    10d0:	6573552f 	ldrbvs	r5, [r3, #-1327]!	; 0xfffffad1
    10d4:	6d2f7372 	stcvs	3, cr7, [pc, #-456]!	; f14 <__code_start__-0x70ec>
    10d8:	73656c69 	cmnvc	r5, #26880	; 0x6900
    10dc:	756f532f 	strbvc	r5, [pc, #-815]!	; db5 <__code_start__-0x724b>
    10e0:	2f656372 	svccs	0x00656372
    10e4:	34327363 	ldrtcc	r7, [r2], #-867	; 0xfffffc9d
    10e8:	2f786c30 	svccs	0x00786c30
    10ec:	7062696c 	rsbvc	r6, r2, ip, ror #18
    10f0:	6e692f69 	cdpvs	15, 6, cr2, cr9, cr9, {3}
    10f4:	64756c63 	ldrbtvs	r6, [r5], #-3171	; 0xfffff39d
    10f8:	70000065 	andvc	r0, r0, r5, rrx
    10fc:	2e6b7475 	mcrcs	4, 3, r7, cr11, cr5, {3}
    1100:	00010063 	andeq	r0, r1, r3, rrx
    1104:	69707200 	ldmdbvs	r0!, {r9, ip, sp, lr}^
    1108:	0200682e 	andeq	r6, r0, #3014656	; 0x2e0000
    110c:	05000000 	streq	r0, [r0, #-0]
    1110:	02050022 	andeq	r0, r5, #34, 0	; 0x22
    1114:	000090c8 	andeq	r9, r0, r8, asr #1
    1118:	13050515 	movwne	r0, #21781	; 0x5515
    111c:	11062205 	tstne	r6, r5, lsl #4
    1120:	060b052e 	streq	r0, [fp], -lr, lsr #10
    1124:	0605052f 	streq	r0, [r5], -pc, lsr #10
    1128:	0009052e 	andeq	r0, r9, lr, lsr #10
    112c:	06020402 	streq	r0, [r2], -r2, lsl #8
    1130:	000f0567 	andeq	r0, pc, r7, ror #10
    1134:	49020402 	stmdbmi	r2, {r1, sl}
    1138:	02000b05 	andeq	r0, r0, #5120	; 0x1400
    113c:	05010204 	streq	r0, [r1, #-516]	; 0xfffffdfc
    1140:	04020005 	streq	r0, [r2], #-5
    1144:	062e0602 	strteq	r0, [lr], -r2, lsl #12
    1148:	0601054e 	streq	r0, [r1], -lr, asr #10
    114c:	00060213 	andeq	r0, r6, r3, lsl r2
    1150:	08fa0101 	ldmeq	sl!, {r0, r8}^
    1154:	00030000 	andeq	r0, r3, r0
    1158:	000000f1 	strdeq	r0, [r0], -r1
    115c:	0efb0102 	cdpeq	1, 15, cr0, cr11, cr2, {0}
    1160:	0101000d 	tsteq	r1, sp
    1164:	00000101 	andeq	r0, r0, r1, lsl #2
    1168:	00000100 	andeq	r0, r0, r0, lsl #2
    116c:	6c2f2e01 	stcvs	14, cr2, [pc], #-4	; 1170 <__code_start__-0x6e90>
    1170:	00636269 	rsbeq	r6, r3, r9, ror #4
    1174:	74706f2f 	ldrbtvc	r6, [r0], #-3887	; 0xfffff0d1
    1178:	6d6f682f 	stclvs	8, cr6, [pc, #-188]!	; 10c4 <__code_start__-0x6f3c>
    117c:	65726265 	ldrbvs	r6, [r2, #-613]!	; 0xfffffd9b
    1180:	65432f77 	strbvs	r2, [r3, #-3959]	; 0xfffff089
    1184:	72616c6c 	rsbvc	r6, r1, #108, 24	; 0x6c00
    1188:	6d72612f 	ldfvse	f6, [r2, #-188]!	; 0xffffff44
    118c:	6e6f6e2d 	cdpvs	14, 6, cr6, cr15, cr13, {1}
    1190:	61652d65 	cmnvs	r5, r5, ror #26
    1194:	392d6962 	pushcc	{r1, r5, r6, r8, fp, sp, lr}
    1198:	322d392f 	eorcc	r3, sp, #770048	; 0xbc000
    119c:	71393130 	teqvc	r9, r0, lsr r1
    11a0:	73632d34 	cmnvc	r3, #52, 26	; 0xd00
    11a4:	65373031 	ldrvs	r3, [r7, #-49]!	; 0xffffffcf
    11a8:	62696c2f 	rsbvs	r6, r9, #12032	; 0x2f00
    11ac:	6363672f 	cmnvs	r3, #12320768	; 0xbc0000
    11b0:	6d72612f 	ldfvse	f6, [r2, #-188]!	; 0xffffff44
    11b4:	6e6f6e2d 	cdpvs	14, 6, cr6, cr15, cr13, {1}
    11b8:	61652d65 	cmnvs	r5, r5, ror #26
    11bc:	392f6962 	stmdbcc	pc!, {r1, r5, r6, r8, fp, sp, lr}	; <UNPREDICTABLE>
    11c0:	312e322e 			; <UNDEFINED> instruction: 0x312e322e
    11c4:	636e692f 	cmnvs	lr, #770048	; 0xbc000
    11c8:	6564756c 	strbvs	r7, [r4, #-1388]!	; 0xfffffa94
    11cc:	73552f00 	cmpvc	r5, #0, 30
    11d0:	2f737265 	svccs	0x00737265
    11d4:	656c696d 	strbvs	r6, [ip, #-2413]!	; 0xfffff693
    11d8:	6f532f73 	svcvs	0x00532f73
    11dc:	65637275 	strbvs	r7, [r3, #-629]!	; 0xfffffd8b
    11e0:	3273632f 	rsbscc	r6, r3, #-1140850688	; 0xbc000000
    11e4:	786c3034 	stmdavc	ip!, {r2, r4, r5, ip, sp}^
    11e8:	62696c2f 	rsbvs	r6, r9, #12032	; 0x2f00
    11ec:	692f6970 	stmdbvs	pc!, {r4, r5, r6, r8, fp, sp, lr}	; <UNPREDICTABLE>
    11f0:	756c636e 	strbvc	r6, [ip, #-878]!	; 0xfffffc92
    11f4:	00006564 	andeq	r6, r0, r4, ror #10
    11f8:	702d6176 	eorvc	r6, sp, r6, ror r1
    11fc:	746e6972 	strbtvc	r6, [lr], #-2418	; 0xfffff68e
    1200:	00632e6b 	rsbeq	r2, r3, fp, ror #28
    1204:	73000001 	movwvc	r0, #1
    1208:	6e696474 	mcrvs	4, 3, r6, cr9, cr4, {3}
    120c:	63672d74 	cmnvs	r7, #116, 26	; 0x1d00
    1210:	00682e63 	rsbeq	r2, r8, r3, ror #28
    1214:	72000002 	andvc	r0, r0, #2, 0
    1218:	682e6970 	stmdavs	lr!, {r4, r5, r6, r8, fp, sp, lr}
    121c:	00000300 	andeq	r0, r0, r0, lsl #6
    1220:	2d697072 	stclcs	0, cr7, [r9, #-456]!	; 0xfffffe38
    1224:	65746e69 	ldrbvs	r6, [r4, #-3689]!	; 0xfffff197
    1228:	6c616e72 	stclvs	14, cr6, [r1], #-456	; 0xfffffe38
    122c:	0300682e 	movweq	r6, #2094	; 0x82e
    1230:	74730000 	ldrbtvc	r0, [r3], #-0
    1234:	67726164 	ldrbvs	r6, [r2, -r4, ror #2]!
    1238:	0200682e 	andeq	r6, r0, #3014656	; 0x2e0000
    123c:	623c0000 	eorsvs	r0, ip, #0, 0
    1240:	746c6975 	strbtvc	r6, [ip], #-2421	; 0xfffff68b
    1244:	3e6e692d 	vmulcc.f16	s13, s28, s27	; <UNPREDICTABLE>
    1248:	00000000 	andeq	r0, r0, r0
    124c:	00010500 	andeq	r0, r1, r0, lsl #10
    1250:	91000205 	tstls	r0, r5, lsl #4
    1254:	c8030000 	stmdagt	r3, {}	; <UNPREDICTABLE>
    1258:	02050100 	andeq	r0, r5, #0
    125c:	06010514 			; <UNDEFINED> instruction: 0x06010514
    1260:	30040510 	andcc	r0, r4, r0, lsl r5
    1264:	4a2c0105 	bmi	b01680 <__bss_end__+0xaf6388>
    1268:	05300405 	ldreq	r0, [r0, #-1029]!	; 0xfffffbfb
    126c:	13310602 	teqne	r1, #2097152	; 0x200000
    1270:	2e060b05 	vmlacs.f64	d0, d6, d5
    1274:	30060205 	andcc	r0, r6, r5, lsl #4
    1278:	02060905 	andeq	r0, r6, #81920	; 0x14000
    127c:	2e2e0d24 	cdpcs	13, 2, cr0, cr14, cr4, {1}
    1280:	03060d05 	movweq	r0, #27909	; 0x6d05
    1284:	11054a17 	tstne	r5, r7, lsl sl
    1288:	062d0513 			; <UNDEFINED> instruction: 0x062d0513
    128c:	2e160501 	cfmul32cs	mvfx0, mvfx6, mvfx1
    1290:	052f0d05 	streq	r0, [pc, #-3333]!	; 593 <__code_start__-0x7a6d>
    1294:	14052d16 	strne	r2, [r5], #-3350	; 0xfffff2ea
    1298:	17052f06 	strne	r2, [r5, -r6, lsl #30]
    129c:	0d050106 	stfeqs	f0, [r5, #-24]	; 0xffffffe8
    12a0:	052f062e 	streq	r0, [pc, #-1582]!	; c7a <__code_start__-0x7386>
    12a4:	2e010612 	mcrcs	6, 0, r0, cr1, cr2, {0}
    12a8:	0d052d2f 	stceq	13, cr2, [r5, #-188]	; 0xffffff44
    12ac:	12052f06 	andne	r2, r5, #6, 30
    12b0:	19050106 	stmdbne	r5, {r1, r2, r8}
    12b4:	04052f06 	streq	r2, [r5], #-3846	; 0xfffff0fa
    12b8:	01011103 	tsteq	r1, r3, lsl #2
    12bc:	05150205 	ldreq	r0, [r5, #-517]	; 0xfffffdfb
    12c0:	7fb2030e 	svcvc	0x00b2030e
    12c4:	13020501 	movwne	r0, #9473	; 0x2501
    12c8:	01060605 	tsteq	r6, r5, lsl #12
    12cc:	30060205 	andcc	r0, r6, r5, lsl #4
    12d0:	05010805 	streq	r0, [r1, #-2053]	; 0xfffff7fb
    12d4:	4a010602 	bmi	42ae4 <__bss_end__+0x377ec>
    12d8:	91080805 	tstls	r8, r5, lsl #16
    12dc:	4a060305 	bmi	181ef8 <__bss_end__+0x176c00>
    12e0:	01060805 	tsteq	r6, r5, lsl #16
    12e4:	2d061505 	cfstr32cs	mvfx1, [r6, #-20]	; 0xffffffec
    12e8:	05010805 	streq	r0, [r1, #-2053]	; 0xfffff7fb
    12ec:	0805d703 	stmdaeq	r5, {r0, r1, r8, r9, sl, ip, lr, pc}
    12f0:	18050106 	stmdane	r5, {r1, r2, r8}
    12f4:	2e02052d 	cfsh32cs	mvfx0, mvfx2, #29
    12f8:	052f0805 	streq	r0, [pc, #-2053]!	; afb <__code_start__-0x7505>
    12fc:	052d0615 	streq	r0, [sp, #-1557]!	; 0xfffff9eb
    1300:	02050108 	andeq	r0, r5, #2
    1304:	03050106 	movweq	r0, #20742	; 0x5106
    1308:	18052f06 	stmdane	r5, {r1, r2, r8, r9, sl, fp, sp}
    130c:	02051106 	andeq	r1, r5, #-2147483647	; 0x80000001
    1310:	2f08052e 	svccs	0x0008052e
    1314:	2d061505 	cfstr32cs	mvfx1, [r6, #-20]	; 0xffffffec
    1318:	05010805 	streq	r0, [r1, #-2053]	; 0xfffff7fb
    131c:	08051303 	stmdaeq	r5, {r0, r1, r8, r9, ip}
    1320:	15050106 	strne	r0, [r5, #-262]	; 0xfffffefa
    1324:	08052d06 	stmdaeq	r5, {r1, r2, r8, sl, fp, sp}
    1328:	05010601 	streq	r0, [r1, #-1537]	; 0xfffff9ff
    132c:	05a00602 	streq	r0, [r0, #1538]!	; 0x602
    1330:	05010605 	streq	r0, [r1, #-1541]	; 0xfffff9fb
    1334:	11053604 	tstne	r5, r4, lsl #12
    1338:	2e09052f 	cfsh32cs	mvfx0, mvfx9, #31
    133c:	05330205 	ldreq	r0, [r3, #-517]!	; 0xfffffdfb
    1340:	2e720305 	cdpcs	3, 7, cr0, cr2, cr5, {0}
    1344:	2f060205 	svccs	0x00060205
    1348:	0e050106 	adfeqs	f0, f5, f6
    134c:	02051606 	andeq	r1, r5, #6291456	; 0x600000
    1350:	03051314 	movweq	r1, #21268	; 0x5314
    1354:	14020513 	strne	r0, [r2], #-1299	; 0xfffffaed
    1358:	010b0515 	tsteq	fp, r5, lsl r5
    135c:	01060205 	tsteq	r6, r5, lsl #4
    1360:	0603052e 	streq	r0, [r3], -lr, lsr #10
    1364:	060a0567 	streq	r0, [sl], -r7, ror #10
    1368:	2d020501 	cfstr32cs	mvfx0, [r2, #-4]
    136c:	052f0a05 	streq	r0, [pc, #-2565]!	; 96f <__code_start__-0x7691>
    1370:	052d0617 	streq	r0, [sp, #-1559]!	; 0xfffff9e9
    1374:	0205010b 	andeq	r0, r5, #-1073741822	; 0xc0000002
    1378:	09050106 	stmdbeq	r5, {r1, r2, r8}
    137c:	02052e4c 	andeq	r2, r5, #76, 28	; 0x4c0
    1380:	09052e06 	stmdbeq	r5, {r1, r2, r9, sl, fp, sp}
    1384:	02050106 	andeq	r0, r5, #-2147483647	; 0x80000001
    1388:	01063006 	tsteq	r6, r6
    138c:	38030105 	stmdacc	r3, {r0, r2, r8}
    1390:	03090501 	movweq	r0, #38145	; 0x9501
    1394:	2e2e4a4f 	vnmulcs.f32	s8, s28, s30
    1398:	03061905 	movweq	r1, #26885	; 0x6905
    139c:	1a054a27 	bne	153c40 <__bss_end__+0x148948>
    13a0:	06280513 			; <UNDEFINED> instruction: 0x06280513
    13a4:	2e1f0501 	cfmul32cs	mvfx0, mvfx15, mvfx1
    13a8:	052f0405 	streq	r0, [pc, #-1029]!	; fab <__code_start__-0x7055>
    13ac:	0b052d1f 	bleq	14c830 <__bss_end__+0x141538>
    13b0:	0e052f06 	cdpeq	15, 0, cr2, cr5, cr6, {0}
    13b4:	04050106 	streq	r0, [r5], #-262	; 0xfffffefa
    13b8:	0602052e 	streq	r0, [r2], -lr, lsr #10
    13bc:	134a5903 	movtne	r5, #43267	; 0xa903
    13c0:	2e060b05 	vmlacs.f64	d0, d6, d5
    13c4:	30060205 	andcc	r0, r6, r5, lsl #4
    13c8:	02060905 	andeq	r0, r6, #81920	; 0x14000
    13cc:	04050d24 	streq	r0, [r5], #-3364	; 0xfffff2dc
    13d0:	05133606 	ldreq	r3, [r3, #-1542]	; 0xfffff9fa
    13d4:	05010606 	streq	r0, [r1, #-1542]	; 0xfffff9fa
    13d8:	13670605 	cmnne	r7, #5242880	; 0x500000
    13dc:	06090513 			; <UNDEFINED> instruction: 0x06090513
    13e0:	2b0d0511 	blcs	34282c <__bss_end__+0x337534>
    13e4:	05300b05 	ldreq	r0, [r0, #-2821]!	; 0xfffff4fb
    13e8:	1b052c0d 	blne	14c424 <__bss_end__+0x14112c>
    13ec:	06040535 			; <UNDEFINED> instruction: 0x06040535
    13f0:	1305052d 	movwne	r0, #21805	; 0x552d
    13f4:	2e061b05 	vmlacs.f64	d1, d6, d5
    13f8:	05820a05 	streq	r0, [r2, #2565]	; 0xa05
    13fc:	0e052f04 	cdpeq	15, 0, cr2, cr5, cr4, {0}
    1400:	490a052e 	stmdbmi	sl, {r1, r2, r3, r5, r8, sl}
    1404:	2f060b05 	svccs	0x00060b05
    1408:	01060405 	tsteq	r6, r5, lsl #8
    140c:	06052f06 	streq	r2, [r5], -r6, lsl #30
    1410:	05050106 	streq	r0, [r5, #-262]	; 0xfffffefa
    1414:	0a052f06 	beq	14d034 <__bss_end__+0x141d3c>
    1418:	052e0106 	streq	r0, [lr, #-262]!	; 0xfffffefa
    141c:	2e2e2e07 	cdpcs	14, 2, cr2, cr14, cr7, {0}
    1420:	03060405 	movweq	r0, #25605	; 0x6405
    1424:	0205010d 	andeq	r0, r5, #1073741827	; 0x40000003
    1428:	01460306 	cmpeq	r6, r6, lsl #6
    142c:	3a030905 	bcc	c3848 <__bss_end__+0xb8550>
    1430:	0604052e 	streq	r0, [r4], -lr, lsr #10
    1434:	010d032f 	tsteq	sp, pc, lsr #6
    1438:	15020501 	strne	r0, [r2, #-1281]	; 0xfffffaff
    143c:	b2030e05 	andlt	r0, r3, #80	; 0x50
    1440:	0205017f 	andeq	r0, r5, #-1073741793	; 0xc000001f
    1444:	08051413 	stmdaeq	r5, {r0, r1, r4, sl, ip}
    1448:	06060501 	streq	r0, [r6], -r1, lsl #10
    144c:	2e3c0310 	mrccs	3, 1, r0, cr12, cr0, {0}
    1450:	46030205 	strmi	r0, [r3], -r5, lsl #4
    1454:	0530064a 	ldreq	r0, [r0, #-1610]!	; 0xfffff9b6
    1458:	2e010605 	cfmadd32cs	mvax0, mvfx0, mvfx1, mvfx5
    145c:	0602052e 	streq	r0, [r2], -lr, lsr #10
    1460:	0501064b 	streq	r0, [r1, #-1611]	; 0xfffff9b5
    1464:	0516060e 	ldreq	r0, [r6, #-1550]	; 0xfffff9f2
    1468:	15131402 	ldrne	r1, [r3, #-1026]	; 0xfffffbfe
    146c:	010b0515 	tsteq	fp, r5, lsl r5
    1470:	2e060205 	cdpcs	2, 0, cr0, cr6, cr5, {0}
    1474:	09053006 	stmdbeq	r5, {r1, r2, ip, sp}
    1478:	02050106 	andeq	r0, r5, #-2147483647	; 0x80000001
    147c:	01064c06 	tsteq	r6, r6, lsl #24
    1480:	38030105 	stmdacc	r3, {r0, r2, r8}
    1484:	03060501 	movweq	r0, #25857	; 0x6501
    1488:	02054a6e 	andeq	r4, r5, #450560	; 0x6e000
    148c:	4a664603 	bmi	1992ca0 <__bss_end__+0x19879a8>
    1490:	0604052e 	streq	r0, [r4], -lr, lsr #10
    1494:	0100c803 	tsteq	r0, r3, lsl #16
    1498:	06010101 	streq	r0, [r1], -r1, lsl #2
    149c:	4a06822e 	bmi	1a1d5c <__bss_end__+0x196a64>
    14a0:	052e7203 	streq	r7, [lr, #-515]!	; 0xfffffdfd
    14a4:	05010609 	streq	r0, [r1, #-1545]	; 0xfffff9f7
    14a8:	032f0604 			; <UNDEFINED> instruction: 0x032f0604
    14ac:	0501010d 	streq	r0, [r1, #-269]	; 0xfffffef3
    14b0:	0e051502 	cfsh32eq	mvfx1, mvfx5, #2
    14b4:	017fb203 	cmneq	pc, r3, lsl #4
    14b8:	14130205 	ldrne	r0, [r3], #-517	; 0xfffffdfb
    14bc:	05010805 	streq	r0, [r1, #-2053]	; 0xfffff7fb
    14c0:	1b030609 	blne	c2cec <__bss_end__+0xb79f4>
    14c4:	03060501 	movweq	r0, #25857	; 0x6501
    14c8:	3c032e63 	stccc	14, cr2, [r3], {99}	; 0x63
    14cc:	052e2e2e 	streq	r2, [lr, #-3630]!	; 0xfffff1d2
    14d0:	b4030648 	strlt	r0, [r3], #-1608	; 0xfffff9b8
    14d4:	053c087f 	ldreq	r0, [ip, #-2175]!	; 0xfffff781
    14d8:	06011305 	streq	r1, [r1], -r5, lsl #6
    14dc:	0402002e 	streq	r0, [r2], #-46	; 0xffffffd2
    14e0:	002e0602 	eoreq	r0, lr, r2, lsl #12
    14e4:	01020402 	tsteq	r2, r2, lsl #8
    14e8:	02040200 	andeq	r0, r4, #0, 4
    14ec:	00110513 	andseq	r0, r1, r3, lsl r5
    14f0:	06020402 	streq	r0, [r2], -r2, lsl #8
    14f4:	00070501 	andeq	r0, r7, r1, lsl #10
    14f8:	2f020402 	svccs	0x00020402
    14fc:	02001105 	andeq	r1, r0, #1073741825	; 0x40000001
    1500:	052d0204 	streq	r0, [sp, #-516]!	; 0xfffffdfc
    1504:	04020005 	streq	r0, [r2], #-5
    1508:	052f0602 	streq	r0, [pc, #-1538]!	; f0e <__code_start__-0x70f2>
    150c:	04020009 	streq	r0, [r2], #-9
    1510:	0e051302 	cdpeq	3, 0, cr1, cr5, cr2, {0}
    1514:	02040200 	andeq	r0, r4, #0, 4
    1518:	05050106 	streq	r0, [r5, #-262]	; 0xfffffefa
    151c:	01040200 	mrseq	r0, R12_usr
    1520:	02006306 	andeq	r6, r0, #402653184	; 0x18000000
    1524:	05010104 	streq	r0, [r1, #-260]	; 0xfffffefc
    1528:	04020048 	streq	r0, [r2], #-72	; 0xffffffb8
    152c:	05110601 	ldreq	r0, [r1, #-1537]	; 0xfffff9ff
    1530:	04020005 	streq	r0, [r2], #-5
    1534:	48052f01 	stmdami	r5, {r0, r8, r9, sl, fp, sp}
    1538:	01040200 	mrseq	r0, R12_usr
    153c:	0005052d 	andeq	r0, r5, sp, lsr #10
    1540:	2f010402 	svccs	0x00010402
    1544:	01040200 	mrseq	r0, R12_usr
    1548:	0402004a 	streq	r0, [r2], #-74	; 0xffffffb6
    154c:	02004a01 	andeq	r4, r0, #4096	; 0x1000
    1550:	4a060104 	bmi	181968 <__bss_end__+0x176670>
    1554:	e1034005 	tst	r3, r5
    1558:	0106d600 	tsteq	r6, r0, lsl #12
    155c:	2e4e0905 	vmlacs.f16	s1, s28, s10	; <UNPREDICTABLE>
    1560:	05300805 	ldreq	r0, [r0, #-2053]!	; 0xfffff7fb
    1564:	1205291e 	andne	r2, r5, #491520	; 0x78000
    1568:	330d052e 	movwcc	r0, #54574	; 0xd52e
    156c:	45060205 	strmi	r0, [r6, #-517]	; 0xfffffdfb
    1570:	05130505 	ldreq	r0, [r3, #-1285]	; 0xfffffafb
    1574:	05051402 	streq	r1, [r5, #-1026]	; 0xfffffbfe
    1578:	13020513 	movwne	r0, #9491	; 0x2513
    157c:	05010805 	streq	r0, [r1, #-2053]	; 0xfffff7fb
    1580:	7a030640 	bvc	c2e88 <__bss_end__+0xb7b90>
    1584:	0d052e01 	stceq	14, cr2, [r5, #-4]
    1588:	11056634 	tstne	r5, r4, lsr r6
    158c:	4a4a2003 	bmi	12895a0 <__bss_end__+0x127e2a8>
    1590:	03060405 	movweq	r0, #25605	; 0x6405
    1594:	09050162 	stmdbeq	r5, {r1, r5, r6, r8}
    1598:	0f050106 	svceq	0x00050106
    159c:	0608052e 	streq	r0, [r8], -lr, lsr #10
    15a0:	060d052c 	streq	r0, [sp], -ip, lsr #10
    15a4:	0603052e 	streq	r0, [r3], -lr, lsr #10
    15a8:	06050567 	streq	r0, [r5], -r7, ror #10
    15ac:	06080501 	streq	r0, [r8], -r1, lsl #10
    15b0:	060e054d 	streq	r0, [lr], -sp, asr #10
    15b4:	2e0a0501 	cfsh32cs	mvfx0, mvfx10, #1
    15b8:	052f0905 	streq	r0, [pc, #-2309]!	; cbb <__code_start__-0x7345>
    15bc:	052f0604 	streq	r0, [pc, #-1540]!	; fc0 <__code_start__-0x7040>
    15c0:	05010607 	streq	r0, [r1, #-1543]	; 0xfffff9f9
    15c4:	04052c0a 	streq	r2, [r5], #-3082	; 0xfffff3f6
    15c8:	2d053206 	sfmcs	f3, 4, [r5, #-24]	; 0xffffffe8
    15cc:	7f980306 	svcvc	0x00980306
    15d0:	03090501 	movweq	r0, #38145	; 0x9501
    15d4:	052e00ed 	streq	r0, [lr, #-237]!	; 0xffffff13
    15d8:	07052c0d 	streq	r2, [r5, -sp, lsl #24]
    15dc:	0604052b 	streq	r0, [r4], -fp, lsr #10
    15e0:	05141330 	ldreq	r1, [r4, #-816]	; 0xfffffcd0
    15e4:	0c050109 	stfeqs	f0, [r5], {9}
    15e8:	017f9303 	cmneq	pc, r3, lsl #6
    15ec:	06011d05 	streq	r1, [r1], -r5, lsl #26
    15f0:	03090501 	movweq	r0, #38145	; 0x9501
    15f4:	050100ed 	streq	r0, [r1, #-237]	; 0xffffff13
    15f8:	052f0605 	streq	r0, [pc, #-1541]!	; ffb <__code_start__-0x7005>
    15fc:	2e010612 	mcrcs	6, 0, r0, cr1, cr2, {0}
    1600:	2f0b052d 	svccs	0x000b052d
    1604:	2f060505 	svccs	0x00060505
    1608:	05100905 	ldreq	r0, [r0, #-2309]	; 0xfffff6fb
    160c:	7f93030c 	svcvc	0x0093030c
    1610:	011d0501 	tsteq	sp, r1, lsl #10
    1614:	01062d05 	tsteq	r6, r5, lsl #26
    1618:	ed030905 	vstr.16	s0, [r3, #-10]
    161c:	04052e00 	streq	r2, [r5], #-3584	; 0xfffff200
    1620:	00014e06 	andeq	r4, r1, r6, lsl #28
    1624:	4a020402 	bmi	82634 <__bss_end__+0x7733c>
    1628:	02040200 	andeq	r0, r4, #0, 4
    162c:	04020001 	streq	r0, [r2], #-1
    1630:	02001502 	andeq	r1, r0, #8388608	; 0x800000
    1634:	02060204 	andeq	r0, r6, #4, 4	; 0x40000000
    1638:	02001236 	andeq	r1, r0, #1610612739	; 0x60000003
    163c:	052e0204 	streq	r0, [lr, #-516]!	; 0xfffffdfc
    1640:	d1030602 	tstle	r3, r2, lsl #12
    1644:	07050100 	streq	r0, [r5, -r0, lsl #2]
    1648:	052e0106 	streq	r0, [lr, #-262]!	; 0xfffffefa
    164c:	052f0602 	streq	r0, [pc, #-1538]!	; 1052 <__code_start__-0x6fae>
    1650:	0501060b 	streq	r0, [r1, #-1547]	; 0xfffff9f5
    1654:	05052f01 	streq	r2, [r5, #-3841]	; 0xfffff0ff
    1658:	4a650306 	bmi	1942278 <__bss_end__+0x1936f80>
    165c:	01060905 	tsteq	r6, r5, lsl #18
    1660:	06050566 	streq	r0, [r5], -r6, ror #10
    1664:	0304059f 	movweq	r0, #17823	; 0x459f
    1668:	07050111 	smladeq	r5, r1, r1, r0
    166c:	04050106 	streq	r0, [r5], #-262	; 0xfffffefa
    1670:	0a053106 	beq	14da90 <__bss_end__+0x142798>
    1674:	00130501 	andseq	r0, r3, r1, lsl #10
    1678:	06010402 	streq	r0, [r1], -r2, lsl #8
    167c:	0010052e 	andseq	r0, r0, lr, lsr #10
    1680:	2e010402 	cdpcs	4, 0, cr0, cr1, cr2, {0}
    1684:	4b060505 	blmi	182aa0 <__bss_end__+0x1777a8>
    1688:	01060a05 	tsteq	r6, r5, lsl #20
    168c:	04052d06 	streq	r2, [r5], #-3334	; 0xfffff2fa
    1690:	11050106 	tstne	r5, r6, lsl #2
    1694:	7fb60306 	svcvc	0x00b60306
    1698:	00011366 	andeq	r1, r1, r6, ror #6
    169c:	06020402 	streq	r0, [r2], -r2, lsl #8
    16a0:	01ba06ba 			; <UNDEFINED> instruction: 0x01ba06ba
    16a4:	061a0514 			; <UNDEFINED> instruction: 0x061a0514
    16a8:	052e2e13 	streq	r2, [lr, #-3603]!	; 0xfffff1ed
    16ac:	05674e11 	strbeq	r4, [r7, #-3601]!	; 0xfffff1ef
    16b0:	13056814 	movwne	r6, #22548	; 0x5814
    16b4:	03150582 	tsteq	r5, #545259520	; 0x20800000
    16b8:	11054a78 	tstne	r5, r8, ror sl
    16bc:	13134b06 	tstne	r3, #6144	; 0x1800
    16c0:	05141314 	ldreq	r1, [r4, #-788]	; 0xfffffcec
    16c4:	05010613 	streq	r0, [r1, #-1555]	; 0xfffff9ed
    16c8:	052f0609 	streq	r0, [pc, #-1545]!	; 10c7 <__code_start__-0x6f39>
    16cc:	2e01060d 	cfmadd32cs	mvax0, mvfx0, mvfx1, mvfx13
    16d0:	bb09052e 	bllt	242b90 <__bss_end__+0x237898>
    16d4:	059d0d05 	ldreq	r0, [sp, #3333]	; 0xd05
    16d8:	052f0609 	streq	r0, [pc, #-1545]!	; 10d7 <__code_start__-0x6f29>
    16dc:	03062f15 	movweq	r2, #28437	; 0x6f15
    16e0:	0b034a75 	bleq	d40bc <__bss_end__+0xc8dc4>
    16e4:	05054a2e 	streq	r4, [r5, #-2606]	; 0xfffff5d2
    16e8:	01230306 			; <UNDEFINED> instruction: 0x01230306
    16ec:	01060905 	tsteq	r6, r5, lsl #18
    16f0:	0605052e 	streq	r0, [r5], -lr, lsr #10
    16f4:	2e6e03d7 	mcrcs	3, 3, r0, cr14, cr7, {6}
    16f8:	05010e03 	streq	r0, [r1, #-3587]	; 0xfffff1fd
    16fc:	05010609 	streq	r0, [r1, #-1545]	; 0xfffff9f7
    1700:	10030605 	andne	r0, r3, r5, lsl #12
    1704:	0301054a 	movweq	r0, #5450	; 0x154a
    1708:	05017eed 	streq	r7, [r1, #-3821]	; 0xfffff113
    170c:	13151402 	tstne	r5, #33554432	; 0x2000000
    1710:	03040514 	movweq	r0, #17684	; 0x4514
    1714:	0905011a 	stmdbeq	r5, {r1, r3, r4, r8}
    1718:	02050106 	andeq	r0, r5, #-2147483647	; 0x80000001
    171c:	052e4603 	streq	r4, [lr, #-1539]!	; 0xfffff9fd
    1720:	2e3a0309 	cdpcs	3, 3, cr0, cr10, cr9, {0}
    1724:	2f060405 	svccs	0x00060405
    1728:	01010d03 	tsteq	r1, r3, lsl #26
    172c:	05150205 	ldreq	r0, [r5, #-517]	; 0xfffffdfb
    1730:	7fb2030e 	svcvc	0x00b2030e
    1734:	13020501 	movwne	r0, #9473	; 0x2501
    1738:	01080514 	tsteq	r8, r4, lsl r5
    173c:	01060205 	tsteq	r6, r5, lsl #4
    1740:	059f0805 	ldreq	r0, [pc, #2053]	; 1f4d <__code_start__-0x60b3>
    1744:	064a0603 	strbeq	r0, [sl], -r3, lsl #12
    1748:	2e080501 	cfsh32cs	mvfx0, mvfx8, #1
    174c:	2d061505 	cfstr32cs	mvfx1, [r6, #-20]	; 0xffffffec
    1750:	05010805 	streq	r0, [r1, #-2053]	; 0xfffff7fb
    1754:	01062f03 	tsteq	r6, r3, lsl #30
    1758:	052e0805 	streq	r0, [lr, #-2053]!	; 0xfffff7fb
    175c:	052d0615 	streq	r0, [sp, #-1557]!	; 0xfffff9eb
    1760:	03050108 	movweq	r0, #20744	; 0x5108
    1764:	0501062f 	streq	r0, [r1, #-1583]	; 0xfffff9d1
    1768:	15052e08 	strne	r2, [r5, #-3592]	; 0xfffff1f8
    176c:	08052d06 	stmdaeq	r5, {r1, r2, r8, sl, fp, sp}
    1770:	2f030501 	svccs	0x00030501
    1774:	08050106 	stmdaeq	r5, {r1, r2, r8}
    1778:	0615052e 	ldreq	r0, [r5], -lr, lsr #10
    177c:	0108052d 	tsteq	r8, sp, lsr #10
    1780:	062f0305 	strteq	r0, [pc], -r5, lsl #6
    1784:	2e080501 	cfsh32cs	mvfx0, mvfx8, #1
    1788:	2d061505 	cfstr32cs	mvfx1, [r6, #-20]	; 0xffffffec
    178c:	05010805 	streq	r0, [r1, #-2053]	; 0xfffff7fb
    1790:	01062f03 	tsteq	r6, r3, lsl #30
    1794:	052e0805 	streq	r0, [lr, #-2053]!	; 0xfffff7fb
    1798:	052d0615 	streq	r0, [sp, #-1557]!	; 0xfffff9eb
    179c:	03050108 	movweq	r0, #20744	; 0x5108
    17a0:	06080513 			; <UNDEFINED> instruction: 0x06080513
    17a4:	06150501 	ldreq	r0, [r5], -r1, lsl #10
    17a8:	0108052d 	tsteq	r8, sp, lsr #10
    17ac:	03056606 	movweq	r6, #22022	; 0x5606
    17b0:	08056706 	stmdaeq	r5, {r1, r2, r8, r9, sl, sp, lr}
    17b4:	18050106 	stmdane	r5, {r1, r2, r8}
    17b8:	2e02052d 	cfsh32cs	mvfx0, mvfx2, #29
    17bc:	052f0805 	streq	r0, [pc, #-2053]!	; fbf <__code_start__-0x7041>
    17c0:	052d0615 	streq	r0, [sp, #-1557]!	; 0xfffff9eb
    17c4:	02050108 	andeq	r0, r5, #2
    17c8:	03050106 	movweq	r0, #20742	; 0x5106
    17cc:	18052f06 	stmdane	r5, {r1, r2, r8, r9, sl, fp, sp}
    17d0:	02051106 	andeq	r1, r5, #-2147483647	; 0x80000001
    17d4:	2f08052e 	svccs	0x0008052e
    17d8:	2d061505 	cfstr32cs	mvfx1, [r6, #-20]	; 0xffffffec
    17dc:	05010805 	streq	r0, [r1, #-2053]	; 0xfffff7fb
    17e0:	08051303 	stmdaeq	r5, {r0, r1, r8, r9, ip}
    17e4:	15050106 	strne	r0, [r5, #-262]	; 0xfffffefa
    17e8:	08052d06 	stmdaeq	r5, {r1, r2, r8, sl, fp, sp}
    17ec:	06050501 	streq	r0, [r5], -r1, lsl #10
    17f0:	02054a14 	andeq	r4, r5, #20, 20	; 0x14000
    17f4:	0e052e06 	cdpeq	14, 0, cr2, cr5, cr6, {0}
    17f8:	04051906 	streq	r1, [r5], #-2310	; 0xfffff6fa
    17fc:	2f11052f 	svccs	0x0011052f
    1800:	054a0905 	strbeq	r0, [sl, #-2309]	; 0xfffff6fb
    1804:	05053302 	streq	r3, [r5, #-770]	; 0xfffffcfe
    1808:	052e7203 	streq	r7, [lr, #-515]!	; 0xfffffdfd
    180c:	062f0602 	strteq	r0, [pc], -r2, lsl #12
    1810:	060e0501 	streq	r0, [lr], -r1, lsl #10
    1814:	14020516 	strne	r0, [r2], #-1302	; 0xfffffaea
    1818:	13030513 	movwne	r0, #13587	; 0x3513
    181c:	15140205 	ldrne	r0, [r4, #-517]	; 0xfffffdfb
    1820:	05010b05 	streq	r0, [r1, #-2821]	; 0xfffff4fb
    1824:	2e010602 	cfmadd32cs	mvax0, mvfx0, mvfx1, mvfx2
    1828:	06030566 	streq	r0, [r3], -r6, ror #10
    182c:	060a052f 	streq	r0, [sl], -pc, lsr #10
    1830:	2d020501 	cfstr32cs	mvfx0, [r2, #-4]
    1834:	052f0a05 	streq	r0, [pc, #-2565]!	; e37 <__code_start__-0x71c9>
    1838:	052d0617 	streq	r0, [sp, #-1559]!	; 0xfffff9e9
    183c:	0205010b 	andeq	r0, r5, #-1073741822	; 0xc0000002
    1840:	4a4a0106 	bmi	1281c60 <__bss_end__+0x1276968>
    1844:	03060505 	movweq	r0, #25861	; 0x6505
    1848:	05010195 	streq	r0, [r1, #-405]	; 0xfffffe6b
    184c:	f8030611 			; <UNDEFINED> instruction: 0xf8030611
    1850:	1b05017e 	blne	141e50 <__bss_end__+0x136b58>
    1854:	4a018803 	bmi	63868 <__bss_end__+0x58570>
    1858:	03060105 	movweq	r0, #24837	; 0x6105
    185c:	052e7ef3 	streq	r7, [lr, #-3827]!	; 0xfffff10d
    1860:	13151402 	tstne	r5, #33554432	; 0x2000000
    1864:	03190514 	tsteq	r9, #20, 10	; 0x5000000
    1868:	1a050122 	bne	141cf8 <__bss_end__+0x136a00>
    186c:	06280513 			; <UNDEFINED> instruction: 0x06280513
    1870:	2e1f0501 	cfmul32cs	mvfx0, mvfx15, mvfx1
    1874:	052f0405 	streq	r0, [pc, #-1029]!	; 1477 <__code_start__-0x6b89>
    1878:	1f054a0e 	svcne	0x00054a0e
    187c:	060b052d 	streq	r0, [fp], -sp, lsr #10
    1880:	0604052f 	streq	r0, [r4], -pc, lsr #10
    1884:	01320601 	teqeq	r2, r1, lsl #12
    1888:	05150205 	ldreq	r0, [r5, #-517]	; 0xfffffdfb
    188c:	7fb2030e 	svcvc	0x00b2030e
    1890:	13020501 	movwne	r0, #9473	; 0x2501
    1894:	01060605 	tsteq	r6, r5, lsl #12
    1898:	30060205 	andcc	r0, r6, r5, lsl #4
    189c:	05010805 	streq	r0, [r1, #-2053]	; 0xfffff7fb
    18a0:	05010602 	streq	r0, [r1, #-1538]	; 0xfffff9fe
    18a4:	21080603 	tstcs	r8, r3, lsl #12
    18a8:	01060805 	tsteq	r6, r5, lsl #16
    18ac:	49061505 	stmdbmi	r6, {r0, r2, r8, sl, ip}
    18b0:	05010805 	streq	r0, [r1, #-2053]	; 0xfffff7fb
    18b4:	0805d703 	stmdaeq	r5, {r0, r1, r8, r9, sl, ip, lr, pc}
    18b8:	18050106 	stmdane	r5, {r1, r2, r8}
    18bc:	2e02052d 	cfsh32cs	mvfx0, mvfx2, #29
    18c0:	052f0805 	streq	r0, [pc, #-2053]!	; 10c3 <__code_start__-0x6f3d>
    18c4:	052d0615 	streq	r0, [sp, #-1557]!	; 0xfffff9eb
    18c8:	02050108 	andeq	r0, r5, #2
    18cc:	03050106 	movweq	r0, #20742	; 0x5106
    18d0:	18052f06 	stmdane	r5, {r1, r2, r8, r9, sl, fp, sp}
    18d4:	02051106 	andeq	r1, r5, #-2147483647	; 0x80000001
    18d8:	2f08052e 	svccs	0x0008052e
    18dc:	2d061505 	cfstr32cs	mvfx1, [r6, #-20]	; 0xffffffec
    18e0:	05010805 	streq	r0, [r1, #-2053]	; 0xfffff7fb
    18e4:	08051303 	stmdaeq	r5, {r0, r1, r8, r9, ip}
    18e8:	15050106 	strne	r0, [r5, #-262]	; 0xfffffefa
    18ec:	08052d06 	stmdaeq	r5, {r1, r2, r8, sl, fp, sp}
    18f0:	06050501 	streq	r0, [r5], -r1, lsl #10
    18f4:	06020514 			; <UNDEFINED> instruction: 0x06020514
    18f8:	06040566 	streq	r0, [r4], -r6, ror #10
    18fc:	0305051a 	movweq	r0, #21786	; 0x551a
    1900:	02054a78 	andeq	r4, r5, #120, 20	; 0x78000
    1904:	01062f06 	tsteq	r6, r6, lsl #30
    1908:	16060e05 	strne	r0, [r6], -r5, lsl #28
    190c:	13140205 	tstne	r4, #1342177280	; 0x50000000
    1910:	01060405 	tsteq	r6, r5, lsl #8
    1914:	2f060305 	svccs	0x00060305
    1918:	01061105 	tsteq	r6, r5, lsl #2
    191c:	052e0905 	streq	r0, [lr, #-2309]!	; 0xfffff6fb
    1920:	15300602 	ldrne	r0, [r0, #-1538]!	; 0xfffff9fe
    1924:	05010b05 	streq	r0, [r1, #-2821]	; 0xfffff4fb
    1928:	4a010602 	bmi	43138 <__bss_end__+0x37e40>
    192c:	03052e4a 	movweq	r2, #24138	; 0x5e4a
    1930:	0a052f06 	beq	14d550 <__bss_end__+0x142258>
    1934:	02050106 	andeq	r0, r5, #-2147483647	; 0x80000001
    1938:	2f0a052d 	svccs	0x000a052d
    193c:	2d061705 	stccs	7, cr1, [r6, #-20]	; 0xffffffec
    1940:	05010b05 	streq	r0, [r1, #-2821]	; 0xfffff4fb
    1944:	4a010602 	bmi	43154 <__bss_end__+0x37e5c>
    1948:	0514062e 	ldreq	r0, [r4, #-1582]	; 0xfffff9d2
    194c:	05010609 	streq	r0, [r1, #-1545]	; 0xfffff9f7
    1950:	064c0602 	strbeq	r0, [ip], -r2, lsl #12
    1954:	06050501 	streq	r0, [r5], -r1, lsl #10
    1958:	01019803 	tsteq	r1, r3, lsl #16
    195c:	0607052a 	streq	r0, [r7], -sl, lsr #10
    1960:	06050501 	streq	r0, [r5], -r1, lsl #10
    1964:	0318052f 	tsteq	r8, #197132288	; 0xbc00000
    1968:	1b052e53 	blne	14d2bc <__bss_end__+0x141fc4>
    196c:	1a050106 	bne	141d8c <__bss_end__+0x136a94>
    1970:	06090582 	streq	r0, [r9], -r2, lsl #11
    1974:	060d054b 	streq	r0, [sp], -fp, asr #10
    1978:	09052e01 	stmdbeq	r5, {r0, r9, sl, fp, sp}
    197c:	9d0d05d7 	cfstr32ls	mvfx0, [sp, #-860]	; 0xfffffca4
    1980:	2f060905 	svccs	0x00060905
    1984:	05301505 	ldreq	r1, [r0, #-1285]!	; 0xfffffafb
    1988:	05010618 	streq	r0, [r1, #-1560]	; 0xfffff9e8
    198c:	19056617 	stmdbne	r5, {r0, r1, r2, r4, r9, sl, sp, lr}
    1990:	4917052f 	ldmdbmi	r7, {r0, r1, r2, r3, r5, r8, sl}
    1994:	2f061905 	svccs	0x00061905
    1998:	03061505 	movweq	r1, #25861	; 0x6505
    199c:	19052e6f 	stmdbne	r5, {r0, r1, r2, r3, r5, r6, r9, sl, fp, sp}
    19a0:	4a130306 	bmi	4c25c0 <__bss_end__+0x4b72c8>
    19a4:	03061505 	movweq	r1, #25861	; 0x6505
    19a8:	054a2e6d 	strbeq	r2, [sl, #-3693]	; 0xfffff193
    19ac:	7fa00302 	svcvc	0x00a00302
    19b0:	03066601 	movweq	r6, #26113	; 0x6601
    19b4:	05050172 	streq	r0, [r5, #-370]	; 0xfffffe8e
    19b8:	04050106 	streq	r0, [r5], #-262	; 0xfffffefa
    19bc:	03050536 	movweq	r0, #21814	; 0x5536
    19c0:	02052e78 	andeq	r2, r5, #120, 28	; 0x780
    19c4:	01062f06 	tsteq	r6, r6, lsl #30
    19c8:	16060e05 	strne	r0, [r6], -r5, lsl #28
    19cc:	13140205 	tstne	r4, #1342177280	; 0x50000000
    19d0:	01060405 	tsteq	r6, r5, lsl #8
    19d4:	0602054a 	streq	r0, [r2], -sl, asr #10
    19d8:	05017803 	streq	r7, [r1, #-2051]	; 0xfffff7fd
    19dc:	4a010605 	bmi	431f8 <__bss_end__+0x37f00>
    19e0:	4b060205 	blmi	1821fc <__bss_end__+0x176f04>
    19e4:	0e050106 	adfeqs	f0, f5, f6
    19e8:	02051606 	andeq	r1, r5, #6291456	; 0x600000
    19ec:	15151314 	ldrne	r1, [r5, #-788]	; 0xfffffcec
    19f0:	06010b05 	streq	r0, [r1], -r5, lsl #22
    19f4:	0611052e 	ldreq	r0, [r1], -lr, lsr #10
    19f8:	01019e03 	tsteq	r1, r3, lsl #28
    19fc:	01062205 	tsteq	r6, r5, lsl #4
    1a00:	052f0505 	streq	r0, [pc, #-1285]!	; 1503 <__code_start__-0x6afd>
    1a04:	05052d22 	streq	r2, [r5, #-3362]	; 0xfffff2de
    1a08:	11052f06 	tstne	r5, r6, lsl #30
    1a0c:	8305054b 	movwhi	r0, #21835	; 0x554b
    1a10:	5c039e01 	stcpl	14, cr9, [r3], {1}
    1a14:	059e012e 	ldreq	r0, [lr, #302]	; 0x12e
    1a18:	f3030602 	vmax.u8	d0, d3, d2
    1a1c:	052e2e7e 	streq	r2, [lr, #-3710]!	; 0xfffff182
    1a20:	054a2c06 	strbeq	r2, [sl, #-3078]	; 0xfffff3fa
    1a24:	00d8030d 	sbcseq	r0, r8, sp, lsl #6
    1a28:	00040501 	andeq	r0, r4, r1, lsl #10
    1a2c:	06010402 	streq	r0, [r1], -r2, lsl #8
    1a30:	004a1103 	subeq	r1, sl, r3, lsl #2
    1a34:	01010402 	tsteq	r1, r2, lsl #8
    1a38:	51061105 	tstpl	r6, r5, lsl #2
    1a3c:	15059e06 	strne	r9, [r5, #-3590]	; 0xfffff1fa
    1a40:	012e1703 			; <UNDEFINED> instruction: 0x012e1703
    1a44:	031105ba 	tsteq	r1, #780140544	; 0x2e800000
    1a48:	02012e69 	andeq	r2, r1, #1680	; 0x690
    1a4c:	01010028 	tsteq	r1, r8, lsr #32
    1a50:	00000087 	andeq	r0, r0, r7, lsl #1
    1a54:	00640003 	rsbeq	r0, r4, r3
    1a58:	01020000 	mrseq	r0, (UNDEF: 2)
    1a5c:	000d0efb 	strdeq	r0, [sp], -fp
    1a60:	01010101 	tsteq	r1, r1, lsl #2
    1a64:	01000000 	mrseq	r0, (UNDEF: 0)
    1a68:	2e010000 	cdpcs	0, 0, cr0, cr1, cr0, {0}
    1a6c:	6174732f 	cmnvs	r4, pc, lsr #6
    1a70:	732d6666 			; <UNDEFINED> instruction: 0x732d6666
    1a74:	2f006372 	svccs	0x00006372
    1a78:	72657355 	rsbvc	r7, r5, #1409286145	; 0x54000001
    1a7c:	696d2f73 	stmdbvs	sp!, {r0, r1, r4, r5, r6, r8, r9, sl, fp, sp}^
    1a80:	2f73656c 	svccs	0x0073656c
    1a84:	72756f53 	rsbsvc	r6, r5, #332	; 0x14c
    1a88:	632f6563 			; <UNDEFINED> instruction: 0x632f6563
    1a8c:	30343273 	eorscc	r3, r4, r3, ror r2
    1a90:	6c2f786c 	stcvs	8, cr7, [pc], #-432	; 18e8 <__code_start__-0x6718>
    1a94:	69706269 	ldmdbvs	r0!, {r0, r3, r5, r6, r9, sp, lr}^
    1a98:	636e692f 	cmnvs	lr, #770048	; 0xbc000
    1a9c:	6564756c 	strbvs	r7, [r4, #-1388]!	; 0xfffffa94
    1aa0:	6c630000 	stclvs	0, cr0, [r3], #-0
    1aa4:	2d6e6165 	stfcse	f6, [lr, #-404]!	; 0xfffffe6c
    1aa8:	6f626572 	svcvs	0x00626572
    1aac:	632e746f 			; <UNDEFINED> instruction: 0x632e746f
    1ab0:	00000100 	andeq	r0, r0, r0, lsl #2
    1ab4:	2e697072 	mcrcs	0, 3, r7, cr9, cr2, {3}
    1ab8:	00020068 	andeq	r0, r2, r8, rrx
    1abc:	19050000 	stmdbne	r5, {}	; <UNPREDICTABLE>
    1ac0:	b4020500 	strlt	r0, [r2], #-1280	; 0xfffffb00
    1ac4:	1500009a 	strne	r0, [r0, #-154]	; 0xffffff66
    1ac8:	05130505 	ldreq	r0, [r3, #-1285]	; 0xfffffafb
    1acc:	052d0619 	streq	r0, [sp, #-1561]!	; 0xfffff9e7
    1ad0:	67062f05 	strvs	r2, [r6, -r5, lsl #30]
    1ad4:	06024b2f 	streq	r4, [r2], -pc, lsr #22
    1ad8:	12010100 	andne	r0, r1, #0
    1adc:	03000001 	movweq	r0, #1
    1ae0:	00005e00 	andeq	r5, r0, r0, lsl #28
    1ae4:	fb010200 	blx	422ee <__bss_end__+0x36ff6>
    1ae8:	01000d0e 	tsteq	r0, lr, lsl #26
    1aec:	00010101 	andeq	r0, r1, r1, lsl #2
    1af0:	00010000 	andeq	r0, r1, r0
    1af4:	2f2e0100 	svccs	0x002e0100
    1af8:	66617473 			; <UNDEFINED> instruction: 0x66617473
    1afc:	72732d66 	rsbsvc	r2, r3, #6528	; 0x1980
    1b00:	552f0063 	strpl	r0, [pc, #-99]!	; 1aa5 <__code_start__-0x655b>
    1b04:	73726573 	cmnvc	r2, #482344960	; 0x1cc00000
    1b08:	6c696d2f 	stclvs	13, cr6, [r9], #-188	; 0xffffff44
    1b0c:	532f7365 			; <UNDEFINED> instruction: 0x532f7365
    1b10:	6372756f 	cmnvs	r2, #465567744	; 0x1bc00000
    1b14:	73632f65 	cmnvc	r3, #404	; 0x194
    1b18:	6c303432 	cfldrsvs	mvf3, [r0], #-200	; 0xffffff38
    1b1c:	696c2f78 	stmdbvs	ip!, {r3, r4, r5, r6, r8, r9, sl, fp, sp}^
    1b20:	2f697062 	svccs	0x00697062
    1b24:	6c636e69 	stclvs	14, cr6, [r3], #-420	; 0xfffffe5c
    1b28:	00656475 	rsbeq	r6, r5, r5, ror r4
    1b2c:	74736300 	ldrbtvc	r6, [r3], #-768	; 0xfffffd00
    1b30:	2e747261 	cdpcs	2, 7, cr7, cr4, cr1, {3}
    1b34:	00010063 	andeq	r0, r1, r3, rrx
    1b38:	69707200 	ldmdbvs	r0!, {r9, ip, sp, lr}^
    1b3c:	0200682e 	andeq	r6, r0, #3014656	; 0x2e0000
    1b40:	05000000 	streq	r0, [r0, #-0]
    1b44:	02050010 	andeq	r0, r5, #16, 0
    1b48:	00009ae0 	andeq	r9, r0, r0, ror #21
    1b4c:	13050515 	movwne	r0, #21781	; 0x5515
    1b50:	05130205 	ldreq	r0, [r3, #-517]	; 0xfffffdfb
    1b54:	10051405 	andne	r1, r5, r5, lsl #8
    1b58:	05050e06 	streq	r0, [r5, #-3590]	; 0xfffff1fa
    1b5c:	13300632 	teqne	r0, #52428800	; 0x3200000
    1b60:	010a0514 	tsteq	sl, r4, lsl r5
    1b64:	91080905 	tstls	r8, r5, lsl #18
    1b68:	01061005 	tsteq	r6, r5
    1b6c:	059a0a05 	ldreq	r0, [sl, #2565]	; 0xa05
    1b70:	0a056a10 	beq	15c3b8 <__bss_end__+0x1510c0>
    1b74:	09052d06 	stmdbeq	r5, {r1, r2, r8, sl, fp, sp}
    1b78:	0610052f 	ldreq	r0, [r0], -pc, lsr #10
    1b7c:	060a0501 	streq	r0, [sl], -r1, lsl #10
    1b80:	bb09052d 	bllt	24303c <__bss_end__+0x237d44>
    1b84:	01061005 	tsteq	r6, r5
    1b88:	65060a05 	strvs	r0, [r6, #-2565]	; 0xfffff5fb
    1b8c:	054b0905 	strbeq	r0, [fp, #-2309]	; 0xfffff6fb
    1b90:	0501060d 	streq	r0, [r1, #-1549]	; 0xfffff9f3
    1b94:	10052d0a 	andne	r2, r5, sl, lsl #26
    1b98:	060a052f 	streq	r0, [sl], -pc, lsr #10
    1b9c:	2f09052d 	svccs	0x0009052d
    1ba0:	01060d05 	tsteq	r6, r5, lsl #26
    1ba4:	052d0a05 	streq	r0, [sp, #-2565]!	; 0xfffff5fb
    1ba8:	0a052f10 	beq	14d7f0 <__bss_end__+0x1424f8>
    1bac:	09052d06 	stmdbeq	r5, {r1, r2, r8, sl, fp, sp}
    1bb0:	060d052f 	streq	r0, [sp], -pc, lsr #10
    1bb4:	2d0a0501 	cfstr32cs	mvfx0, [sl, #-4]
    1bb8:	052f1005 	streq	r1, [pc, #-5]!	; 1bbb <__code_start__-0x6445>
    1bbc:	052d060a 	streq	r0, [sp, #-1546]!	; 0xfffff9f6
    1bc0:	0d052f09 	stceq	15, cr2, [r5, #-36]	; 0xffffffdc
    1bc4:	0a050106 	beq	141fe4 <__bss_end__+0x136cec>
    1bc8:	2f10052d 	svccs	0x0010052d
    1bcc:	2d060a05 	vstrcs	s0, [r6, #-20]	; 0xffffffec
    1bd0:	05130905 	ldreq	r0, [r3, #-2309]	; 0xfffff6fb
    1bd4:	05010610 	streq	r0, [r1, #-1552]	; 0xfffff9f0
    1bd8:	052d060a 	streq	r0, [sp, #-1546]!	; 0xfffff9f6
    1bdc:	01321505 	teqeq	r2, r5, lsl #10
    1be0:	05144a01 	ldreq	r4, [r4, #-2561]	; 0xfffff5ff
    1be4:	0a052f02 	beq	14d7f4 <__bss_end__+0x1424fc>
    1be8:	2e730306 	cdpcs	3, 7, cr0, cr3, cr6, {0}
    1bec:	01000802 	tsteq	r0, r2, lsl #16
    1bf0:	00007d01 	andeq	r7, r0, r1, lsl #26
    1bf4:	65000300 	strvs	r0, [r0, #-768]	; 0xfffffd00
    1bf8:	02000000 	andeq	r0, r0, #0, 0
    1bfc:	0d0efb01 	vstreq	d15, [lr, #-4]
    1c00:	01010100 	mrseq	r0, (UNDEF: 17)
    1c04:	00000001 	andeq	r0, r0, r1
    1c08:	01000001 	tsteq	r0, r1
    1c0c:	74732f2e 	ldrbtvc	r2, [r3], #-3886	; 0xfffff0d2
    1c10:	2d666661 	stclcs	6, cr6, [r6, #-388]!	; 0xfffffe7c
    1c14:	00637273 	rsbeq	r7, r3, r3, ror r2
    1c18:	6573552f 	ldrbvs	r5, [r3, #-1327]!	; 0xfffffad1
    1c1c:	6d2f7372 	stcvs	3, cr7, [pc, #-456]!	; 1a5c <__code_start__-0x65a4>
    1c20:	73656c69 	cmnvc	r5, #26880	; 0x6900
    1c24:	756f532f 	strbvc	r5, [pc, #-815]!	; 18fd <__code_start__-0x6703>
    1c28:	2f656372 	svccs	0x00656372
    1c2c:	34327363 	ldrtcc	r7, [r2], #-867	; 0xfffffc9d
    1c30:	2f786c30 	svccs	0x00786c30
    1c34:	7062696c 	rsbvc	r6, r2, ip, ror #18
    1c38:	6e692f69 	cdpvs	15, 6, cr2, cr9, cr9, {3}
    1c3c:	64756c63 	ldrbtvs	r6, [r5], #-3171	; 0xfffff39d
    1c40:	63000065 	movwvs	r0, #101	; 0x65
    1c44:	6f747375 	svcvs	0x00747375
    1c48:	6f6c2d6d 	svcvs	0x006c2d6d
    1c4c:	72656461 	rsbvc	r6, r5, #1627389952	; 0x61000000
    1c50:	0100632e 	tsteq	r0, lr, lsr #6
    1c54:	70720000 	rsbsvc	r0, r2, r0
    1c58:	00682e69 	rsbeq	r2, r8, r9, ror #28
    1c5c:	00000002 	andeq	r0, r0, r2
    1c60:	05001a05 	streq	r1, [r0, #-2565]	; 0xfffff5fb
    1c64:	009bd802 	addseq	sp, fp, r2, lsl #16
    1c68:	01051500 	tsteq	r5, r0, lsl #10
    1c6c:	00020214 	andeq	r0, r2, r4, lsl r2
    1c70:	01140101 	tsteq	r4, r1, lsl #2
    1c74:	00030000 	andeq	r0, r3, r0
    1c78:	0000005e 	andeq	r0, r0, lr, asr r0
    1c7c:	0efb0102 	cdpeq	1, 15, cr0, cr11, cr2, {0}
    1c80:	0101000d 	tsteq	r1, sp
    1c84:	00000101 	andeq	r0, r0, r1, lsl #2
    1c88:	00000100 	andeq	r0, r0, r0, lsl #2
    1c8c:	732f2e01 			; <UNDEFINED> instruction: 0x732f2e01
    1c90:	66666174 			; <UNDEFINED> instruction: 0x66666174
    1c94:	6372732d 	cmnvs	r2, #-1275068416	; 0xb4000000
    1c98:	73552f00 	cmpvc	r5, #0, 30
    1c9c:	2f737265 	svccs	0x00737265
    1ca0:	656c696d 	strbvs	r6, [ip, #-2413]!	; 0xfffff693
    1ca4:	6f532f73 	svcvs	0x00532f73
    1ca8:	65637275 	strbvs	r7, [r3, #-629]!	; 0xfffffd8b
    1cac:	3273632f 	rsbscc	r6, r3, #-1140850688	; 0xbc000000
    1cb0:	786c3034 	stmdavc	ip!, {r2, r4, r5, ip, sp}^
    1cb4:	62696c2f 	rsbvs	r6, r9, #12032	; 0x2f00
    1cb8:	692f6970 	stmdbvs	pc!, {r4, r5, r6, r8, fp, sp, lr}	; <UNPREDICTABLE>
    1cbc:	756c636e 	strbvc	r6, [ip, #-878]!	; 0xfffffc92
    1cc0:	00006564 	andeq	r6, r0, r4, ror #10
    1cc4:	6f626572 	svcvs	0x00626572
    1cc8:	632e746f 			; <UNDEFINED> instruction: 0x632e746f
    1ccc:	00000100 	andeq	r0, r0, r0, lsl #2
    1cd0:	2e697072 	mcrcs	0, 3, r7, cr9, cr2, {3}
    1cd4:	00020068 	andeq	r0, r2, r8, rrx
    1cd8:	19050000 	stmdbne	r5, {}	; <UNPREDICTABLE>
    1cdc:	dc020500 	cfstr32le	mvfx0, [r2], {-0}
    1ce0:	0300009b 	movweq	r0, #155	; 0x9b
    1ce4:	0505010d 	streq	r0, [r5, #-269]	; 0xfffffef3
    1ce8:	05311313 	ldreq	r1, [r1, #-787]!	; 0xfffffced
    1cec:	05010613 	streq	r0, [r1, #-1555]	; 0xfffff9ed
    1cf0:	1b052f01 	blne	14d8fc <__bss_end__+0x142604>
    1cf4:	05058506 	streq	r8, [r5, #-1286]	; 0xfffffafa
    1cf8:	09051413 	stmdbeq	r5, {r0, r1, r4, sl, ip}
    1cfc:	0616052f 	ldreq	r0, [r6], -pc, lsr #10
    1d00:	06050501 	streq	r0, [r5], -r1, lsl #10
    1d04:	060e052f 	streq	r0, [lr], -pc, lsr #10
    1d08:	2f050511 	svccs	0x00050511
    1d0c:	052f0105 	streq	r0, [pc, #-261]!	; 1c0f <__code_start__-0x63f1>
    1d10:	05300617 	ldreq	r0, [r0, #-1559]!	; 0xfffff9e9
    1d14:	6e031305 	cdpvs	3, 0, cr1, cr3, cr5, {0}
    1d18:	05131301 	ldreq	r1, [r3, #-769]	; 0xfffffcff
    1d1c:	0f030617 	svceq	0x00030617
    1d20:	03050501 	movweq	r0, #21761	; 0x5501
    1d24:	31062e71 	tstcc	r6, r1, ror lr
    1d28:	01061305 	tsteq	r6, r5, lsl #6
    1d2c:	0d030705 	stceq	7, cr0, [r3, #-20]	; 0xffffffec
    1d30:	0609052e 	streq	r0, [r9], -lr, lsr #10
    1d34:	0306054b 	movweq	r0, #25931	; 0x654b
    1d38:	05050176 	streq	r0, [r5, #-374]	; 0xfffffe8a
    1d3c:	09051413 	stmdbeq	r5, {r0, r1, r4, sl, ip}
    1d40:	0616052f 	ldreq	r0, [r6], -pc, lsr #10
    1d44:	06050501 	streq	r0, [r5], -r1, lsl #10
    1d48:	060e052f 	streq	r0, [lr], -pc, lsr #10
    1d4c:	2f050511 	svccs	0x00050511
    1d50:	0a03062e 	beq	c3610 <__bss_end__+0xb8318>
    1d54:	4d2f3001 	stcmi	0, cr3, [pc, #-4]!	; 1d58 <__code_start__-0x62a8>
    1d58:	15131313 	ldrne	r1, [r3, #-787]	; 0xfffffced
    1d5c:	04020067 	streq	r0, [r2], #-103	; 0xffffff99
    1d60:	0d056701 	stceq	7, cr6, [r5, #-4]
    1d64:	01040200 	mrseq	r0, R12_usr
    1d68:	000a0501 	andeq	r0, sl, r1, lsl #10
    1d6c:	01010402 	tsteq	r1, r2, lsl #8
    1d70:	02000505 	andeq	r0, r0, #20971520	; 0x1400000
    1d74:	05010104 	streq	r0, [r1, #-260]	; 0xfffffefc
    1d78:	0402000d 	streq	r0, [r2], #-13
    1d7c:	0a050101 	beq	142188 <__bss_end__+0x136e90>
    1d80:	01040200 	mrseq	r0, R12_usr
    1d84:	000a0201 	andeq	r0, sl, r1, lsl #4
    1d88:	01fa0101 	mvnseq	r0, r1, lsl #2
    1d8c:	00030000 	andeq	r0, r3, r0
    1d90:	0000005d 	andeq	r0, r0, sp, asr r0
    1d94:	0efb0102 	cdpeq	1, 15, cr0, cr11, cr2, {0}
    1d98:	0101000d 	tsteq	r1, sp
    1d9c:	00000101 	andeq	r0, r0, r1, lsl #2
    1da0:	00000100 	andeq	r0, r0, r0, lsl #2
    1da4:	732f2e01 			; <UNDEFINED> instruction: 0x732f2e01
    1da8:	66666174 			; <UNDEFINED> instruction: 0x66666174
    1dac:	6372732d 	cmnvs	r2, #-1275068416	; 0xb4000000
    1db0:	73552f00 	cmpvc	r5, #0, 30
    1db4:	2f737265 	svccs	0x00737265
    1db8:	656c696d 	strbvs	r6, [ip, #-2413]!	; 0xfffff693
    1dbc:	6f532f73 	svcvs	0x00532f73
    1dc0:	65637275 	strbvs	r7, [r3, #-629]!	; 0xfffffd8b
    1dc4:	3273632f 	rsbscc	r6, r3, #-1140850688	; 0xbc000000
    1dc8:	786c3034 	stmdavc	ip!, {r2, r4, r5, ip, sp}^
    1dcc:	62696c2f 	rsbvs	r6, r9, #12032	; 0x2f00
    1dd0:	692f6970 	stmdbvs	pc!, {r4, r5, r6, r8, fp, sp, lr}	; <UNPREDICTABLE>
    1dd4:	756c636e 	strbvc	r6, [ip, #-878]!	; 0xfffffc92
    1dd8:	00006564 	andeq	r6, r0, r4, ror #10
    1ddc:	656d6974 	strbvs	r6, [sp, #-2420]!	; 0xfffff68c
    1de0:	00632e72 	rsbeq	r2, r3, r2, ror lr
    1de4:	72000001 	andvc	r0, r0, #1, 0
    1de8:	682e6970 	stmdavs	lr!, {r4, r5, r6, r8, fp, sp, lr}
    1dec:	00000200 	andeq	r0, r0, r0, lsl #4
    1df0:	00230500 	eoreq	r0, r3, r0, lsl #10
    1df4:	9c680205 	sfmls	f0, 2, [r8], #-20	; 0xffffffec
    1df8:	05150000 	ldreq	r0, [r5, #-0]
    1dfc:	0c051305 	stceq	3, cr1, [r5], {5}
    1e00:	1f050106 	svcne	0x00050106
    1e04:	05056a06 	streq	r6, [r5, #-2566]	; 0xfffff5fa
    1e08:	061f0515 			; <UNDEFINED> instruction: 0x061f0515
    1e0c:	3105050f 	tstcc	r5, pc, lsl #10
    1e10:	0a052f06 	beq	14da30 <__bss_end__+0x142738>
    1e14:	05017703 	streq	r7, [r1, #-1795]	; 0xfffff8fd
    1e18:	0c051305 	stceq	3, cr1, [r5], {5}
    1e1c:	05660106 	strbeq	r0, [r6, #-262]!	; 0xfffffefa
    1e20:	09030605 	stmdbeq	r3, {r0, r2, r9, sl}
    1e24:	01052f01 	tsteq	r5, r1, lsl #30
    1e28:	1c051306 	stcne	3, cr1, [r5], {6}
    1e2c:	05056806 	streq	r6, [r5, #-2054]	; 0xfffff7fa
    1e30:	030a0513 	movweq	r0, #42259	; 0xa513
    1e34:	05050176 	streq	r0, [r5, #-374]	; 0xfffffe8a
    1e38:	061c0515 			; <UNDEFINED> instruction: 0x061c0515
    1e3c:	05052e18 	streq	r2, [r5, #-3608]	; 0xfffff1e8
    1e40:	062e7a03 	strteq	r7, [lr], -r3, lsl #20
    1e44:	030a052f 	movweq	r0, #42287	; 0xa52f
    1e48:	05050177 	streq	r0, [r5, #-375]	; 0xfffffe89
    1e4c:	060c0513 			; <UNDEFINED> instruction: 0x060c0513
    1e50:	05056601 	streq	r6, [r5, #-1537]	; 0xfffff9ff
    1e54:	01090306 	tsteq	r9, r6, lsl #6
    1e58:	0501062f 	streq	r0, [r1, #-1583]	; 0xfffff9d1
    1e5c:	0176030c 	cmneq	r6, ip, lsl #6
    1e60:	03060505 	movweq	r0, #25861	; 0x6505
    1e64:	09052e0f 	stmdbeq	r5, {r0, r1, r2, r3, r9, sl, fp, sp}
    1e68:	030a0513 	movweq	r0, #42259	; 0xa513
    1e6c:	05050174 	streq	r0, [r5, #-372]	; 0xfffffe8c
    1e70:	0a052f15 	beq	14dacc <__bss_end__+0x1427d4>
    1e74:	05017703 	streq	r7, [r1, #-1795]	; 0xfffff8fd
    1e78:	0c051305 	stceq	3, cr1, [r5], {5}
    1e7c:	05660106 	strbeq	r0, [r6, #-262]!	; 0xfffffefa
    1e80:	09030605 	stmdbeq	r3, {r0, r2, r9, sl}
    1e84:	06110501 	ldreq	r0, [r1], -r1, lsl #10
    1e88:	0305051a 	movweq	r0, #21786	; 0x551a
    1e8c:	2f062e78 	svccs	0x00062e78
    1e90:	05190905 	ldreq	r0, [r9, #-2309]	; 0xfffff6fb
    1e94:	0501060c 	streq	r0, [r1, #-1548]	; 0xfffff9f4
    1e98:	0587061c 	streq	r0, [r7, #1564]	; 0x61c
    1e9c:	1c051305 	stcne	3, cr1, [r5], {5}
    1ea0:	05051106 	streq	r1, [r5, #-262]	; 0xfffffefa
    1ea4:	06054a2f 	streq	r4, [r5], -pc, lsr #20
    1ea8:	2e760306 	cdpcs	3, 7, cr0, cr6, cr6, {0}
    1eac:	05130505 	ldreq	r0, [r3, #-1285]	; 0xfffffafb
    1eb0:	0176030a 	cmneq	r6, sl, lsl #6
    1eb4:	2f150505 	svccs	0x00150505
    1eb8:	77030a05 	strvc	r0, [r3, -r5, lsl #20]
    1ebc:	13050501 	movwne	r0, #21761	; 0x5501
    1ec0:	01060c05 	tsteq	r6, r5, lsl #24
    1ec4:	06050566 	streq	r0, [r5], -r6, ror #10
    1ec8:	2f010903 	svccs	0x00010903
    1ecc:	0c050106 	stfeqs	f0, [r5], {6}
    1ed0:	05017603 	streq	r7, [r1, #-1539]	; 0xfffff9fd
    1ed4:	0f030605 	svceq	0x00030605
    1ed8:	1309052e 	movwne	r0, #38190	; 0x952e
    1edc:	74030a05 	strvc	r0, [r3], #-2565	; 0xfffff5fb
    1ee0:	15050501 	strne	r0, [r5, #-1281]	; 0xfffffaff
    1ee4:	030a052f 	movweq	r0, #42287	; 0xa52f
    1ee8:	05050177 	streq	r0, [r5, #-375]	; 0xfffffe89
    1eec:	060c0513 			; <UNDEFINED> instruction: 0x060c0513
    1ef0:	05056601 	streq	r6, [r5, #-1537]	; 0xfffff9ff
    1ef4:	01090306 	tsteq	r9, r6, lsl #6
    1ef8:	1a061105 	bne	186314 <__bss_end__+0x17b01c>
    1efc:	78030505 	stmdavc	r3, {r0, r2, r8, sl}
    1f00:	052f062e 	streq	r0, [pc, #-1582]!	; 18da <__code_start__-0x6726>
    1f04:	0c051909 			; <UNDEFINED> instruction: 0x0c051909
    1f08:	1e050106 	adfnes	f0, f5, f6
    1f0c:	05058a06 	streq	r8, [r5, #-2566]	; 0xfffff5fa
    1f10:	0e060513 	mcreq	5, 0, r0, cr6, cr3, {0}
    1f14:	05130505 	ldreq	r0, [r3, #-1285]	; 0xfffffafb
    1f18:	0514061e 	ldreq	r0, [r4, #-1566]	; 0xfffff9e2
    1f1c:	05662c05 	strbeq	r2, [r6, #-3077]!	; 0xfffff3fb
    1f20:	76030606 	strvc	r0, [r3], -r6, lsl #12
    1f24:	1305052e 	movwne	r0, #21806	; 0x552e
    1f28:	76030a05 	strvc	r0, [r3], -r5, lsl #20
    1f2c:	15050501 	strne	r0, [r5, #-1281]	; 0xfffffaff
    1f30:	030a052f 	movweq	r0, #42287	; 0xa52f
    1f34:	05050177 	streq	r0, [r5, #-375]	; 0xfffffe89
    1f38:	060c0513 			; <UNDEFINED> instruction: 0x060c0513
    1f3c:	05056601 	streq	r6, [r5, #-1537]	; 0xfffff9ff
    1f40:	01090306 	tsteq	r9, r6, lsl #6
    1f44:	0501062f 	streq	r0, [r1, #-1583]	; 0xfffff9d1
    1f48:	0176030c 	cmneq	r6, ip, lsl #6
    1f4c:	03060505 	movweq	r0, #25861	; 0x6505
    1f50:	09052e0f 	stmdbeq	r5, {r0, r1, r2, r3, r9, sl, fp, sp}
    1f54:	030a0513 	movweq	r0, #42259	; 0xa513
    1f58:	05050174 	streq	r0, [r5, #-372]	; 0xfffffe8c
    1f5c:	0a052f15 	beq	14dbb8 <__bss_end__+0x1428c0>
    1f60:	05017703 	streq	r7, [r1, #-1795]	; 0xfffff8fd
    1f64:	0c051305 	stceq	3, cr1, [r5], {5}
    1f68:	05660106 	strbeq	r0, [r6, #-262]!	; 0xfffffefa
    1f6c:	09030605 	stmdbeq	r3, {r0, r2, r9, sl}
    1f70:	06110501 	ldreq	r0, [r1], -r1, lsl #10
    1f74:	0305051a 	movweq	r0, #21786	; 0x551a
    1f78:	2f062e78 	svccs	0x00062e78
    1f7c:	05190905 	ldreq	r0, [r9, #-2309]	; 0xfffff6fb
    1f80:	0201060c 	andeq	r0, r1, #12, 12	; 0xc00000
    1f84:	01010008 	tsteq	r1, r8
    1f88:	00000204 	andeq	r0, r0, r4, lsl #4
    1f8c:	00c80003 	sbceq	r0, r8, r3
    1f90:	01020000 	mrseq	r0, (UNDEF: 2)
    1f94:	000d0efb 	strdeq	r0, [sp], -fp
    1f98:	01010101 	tsteq	r1, r1, lsl #2
    1f9c:	01000000 	mrseq	r0, (UNDEF: 0)
    1fa0:	2f010000 	svccs	0x00010000
    1fa4:	656d6f68 	strbvs	r6, [sp, #-3944]!	; 0xfffff098
    1fa8:	676e652f 	strbvs	r6, [lr, -pc, lsr #10]!
    1fac:	2f72656c 	svccs	0x0072656c
    1fb0:	73616c63 	cmnvc	r1, #25344	; 0x6300
    1fb4:	73632f73 	cmnvc	r3, #460	; 0x1cc
    1fb8:	65303431 	ldrvs	r3, [r0, #-1073]!	; 0xfffffbcf
    1fbc:	7732322d 	ldrvc	r3, [r2, -sp, lsr #4]!
    1fc0:	2f2f6e69 	svccs	0x002f6e69
    1fc4:	7062696c 	rsbvc	r6, r2, ip, ror #18
    1fc8:	6e692f69 	cdpvs	15, 6, cr2, cr9, cr9, {3}
    1fcc:	64756c63 	ldrbtvs	r6, [r5], #-3171	; 0xfffff39d
    1fd0:	752f0065 	strvc	r0, [pc, #-101]!	; 1f73 <__code_start__-0x608d>
    1fd4:	732f7273 			; <UNDEFINED> instruction: 0x732f7273
    1fd8:	65726168 	ldrbvs	r6, [r2, #-360]!	; 0xfffffe98
    1fdc:	6363672f 	cmnvs	r3, #12320768	; 0xbc0000
    1fe0:	6d72612d 	ldfvse	f6, [r2, #-180]!	; 0xffffff4c
    1fe4:	6e6f6e2d 	cdpvs	14, 6, cr6, cr15, cr13, {1}
    1fe8:	61652d65 	cmnvs	r5, r5, ror #26
    1fec:	312d6962 			; <UNDEFINED> instruction: 0x312d6962
    1ff0:	2d332e30 	ldccs	14, cr2, [r3, #-192]!	; 0xffffff40
    1ff4:	31323032 	teqcc	r2, r2, lsr r0
    1ff8:	2f30312e 	svccs	0x0030312e
    1ffc:	2f62696c 	svccs	0x0062696c
    2000:	2f636367 	svccs	0x00636367
    2004:	2d6d7261 	sfmcs	f7, 2, [sp, #-388]!	; 0xfffffe7c
    2008:	656e6f6e 	strbvs	r6, [lr, #-3950]!	; 0xfffff092
    200c:	6261652d 	rsbvs	r6, r1, #188743680	; 0xb400000
    2010:	30312f69 	eorscc	r2, r1, r9, ror #30
    2014:	312e332e 			; <UNDEFINED> instruction: 0x312e332e
    2018:	636e692f 	cmnvs	lr, #770048	; 0xbc000
    201c:	6564756c 	strbvs	r7, [r4, #-1388]!	; 0xfffffa94
    2020:	61750000 	cmnvs	r5, r0
    2024:	632e7472 			; <UNDEFINED> instruction: 0x632e7472
    2028:	00000000 	andeq	r0, r0, r0
    202c:	74726175 	ldrbtvc	r6, [r2], #-373	; 0xfffffe8b
    2030:	0100682e 	tsteq	r0, lr, lsr #16
    2034:	70720000 	rsbsvc	r0, r2, r0
    2038:	00682e69 	rsbeq	r2, r8, r9, ror #28
    203c:	67000001 	strvs	r0, [r0, -r1]
    2040:	2e6f6970 			; <UNDEFINED> instruction: 0x2e6f6970
    2044:	00010068 	andeq	r0, r1, r8, rrx
    2048:	64747300 	ldrbtvs	r7, [r4], #-768	; 0xfffffd00
    204c:	2d746e69 	ldclcs	14, cr6, [r4, #-420]!	; 0xfffffe5c
    2050:	2e636367 	cdpcs	3, 6, cr6, cr3, cr7, {3}
    2054:	00020068 	andeq	r0, r2, r8, rrx
    2058:	39050000 	stmdbcc	r5, {}	; <UNPREDICTABLE>
    205c:	84020500 	strhi	r0, [r2], #-1280	; 0xfffffb00
    2060:	0300009d 	movweq	r0, #157	; 0x9d
    2064:	01060130 	tsteq	r6, r0, lsr r1
    2068:	67060505 	strvs	r0, [r6, -r5, lsl #10]
    206c:	01061105 	tsteq	r6, r5, lsl #2
    2070:	052e0505 	streq	r0, [lr, #-1285]!	; 0xfffffafb
    2074:	38056701 	stmdacc	r5, {r0, r8, r9, sl, sp, lr}
    2078:	01062906 	tsteq	r6, r6, lsl #18
    207c:	67060505 	strvs	r0, [r6, -r5, lsl #10]
    2080:	01061105 	tsteq	r6, r5, lsl #2
    2084:	052e0505 	streq	r0, [lr, #-1285]!	; 0xfffffafb
    2088:	16056701 	strne	r6, [r5], -r1, lsl #14
    208c:	2e150306 	cdpcs	3, 1, cr0, cr5, cr6, {0}
    2090:	67350505 	ldrvs	r0, [r5, -r5, lsl #10]!
    2094:	03683568 	cmneq	r8, #104, 10	; 0x1a000000
    2098:	6b852e0c 	blvs	fe14d8d0 <__bss_end__+0xfe1425d8>
    209c:	0c036969 			; <UNDEFINED> instruction: 0x0c036969
    20a0:	676b1366 	strbvs	r1, [fp, -r6, ror #6]!
    20a4:	2f060105 	svccs	0x00060105
    20a8:	08061905 	stmdaeq	r6, {r0, r2, r8, fp, ip}
    20ac:	34050525 	strcc	r0, [r5], #-1317	; 0xfffffadb
    20b0:	01060d05 	tsteq	r6, r5, lsl #26
    20b4:	054c0105 	strbeq	r0, [ip, #-261]	; 0xfffffefb
    20b8:	05670619 	strbeq	r0, [r7, #-1561]!	; 0xfffff9e7
    20bc:	0d053605 	stceq	6, cr3, [r5, #-20]	; 0xffffffec
    20c0:	28050106 	stmdacs	r5, {r1, r2, r8}
    20c4:	3001054a 	andcc	r0, r1, sl, asr #10
    20c8:	87061505 	strhi	r1, [r6, -r5, lsl #10]
    20cc:	2f2f0505 	svccs	0x002f0505
    20d0:	02000905 	andeq	r0, r0, #81920	; 0x14000
    20d4:	05130104 	ldreq	r0, [r3, #-260]	; 0xfffffefc
    20d8:	0402000a 	streq	r0, [r2], #-10
    20dc:	0c051101 	stfeqs	f1, [r5], {1}
    20e0:	01040200 	mrseq	r0, R12_usr
    20e4:	0a050106 	beq	142504 <__bss_end__+0x13720c>
    20e8:	01040200 	mrseq	r0, R12_usr
    20ec:	0605052e 	streq	r0, [r5], -lr, lsr #10
    20f0:	060e054c 	streq	r0, [lr], -ip, asr #10
    20f4:	4a090501 	bmi	243500 <__bss_end__+0x238208>
    20f8:	2f060505 	svccs	0x00060505
    20fc:	0601052f 	streq	r0, [r1], -pc, lsr #10
    2100:	061c0513 			; <UNDEFINED> instruction: 0x061c0513
    2104:	05010667 	streq	r0, [r1, #-1639]	; 0xfffff999
    2108:	2f4b0605 	svccs	0x004b0605
    210c:	02000905 	andeq	r0, r0, #81920	; 0x14000
    2110:	05130104 	ldreq	r0, [r3, #-260]	; 0xfffffefc
    2114:	0402000a 	streq	r0, [r2], #-10
    2118:	0c051101 	stfeqs	f1, [r5], {1}
    211c:	01040200 	mrseq	r0, R12_usr
    2120:	0a050106 	beq	142540 <__bss_end__+0x137248>
    2124:	01040200 	mrseq	r0, R12_usr
    2128:	0605052e 	streq	r0, [r5], -lr, lsr #10
    212c:	0105674c 	tsteq	r5, ip, asr #14
    2130:	19052f06 	stmdbne	r5, {r1, r2, r8, r9, sl, fp, sp}
    2134:	1b054c06 	blne	155154 <__bss_end__+0x149e5c>
    2138:	2e2a052e 	cfsh64cs	mvdx0, mvdx10, #30
    213c:	01063105 	tsteq	r6, r5, lsl #2
    2140:	052e4205 	streq	r4, [lr, #-517]!	; 0xfffffdfb
    2144:	0531061c 	ldreq	r0, [r1, #-1564]!	; 0xfffff9e4
    2148:	09032f05 	stmdbeq	r3, {r0, r2, r8, r9, sl, fp, sp}
    214c:	060e052e 	streq	r0, [lr], -lr, lsr #10
    2150:	4a210501 	bmi	84355c <__bss_end__+0x838264>
    2154:	0a030105 	beq	c2570 <__bss_end__+0xb7278>
    2158:	061a052e 	ldreq	r0, [sl], -lr, lsr #10
    215c:	00090568 	andeq	r0, r9, r8, ror #10
    2160:	30010402 	andcc	r0, r1, r2, lsl #8
    2164:	02000a05 	andeq	r0, r0, #20480	; 0x5000
    2168:	05110104 	ldreq	r0, [r1, #-260]	; 0xfffffefc
    216c:	0402000c 	streq	r0, [r2], #-12
    2170:	05010601 	streq	r0, [r1, #-1537]	; 0xfffff9ff
    2174:	0402000a 	streq	r0, [r2], #-10
    2178:	19052e01 	stmdbne	r5, {r0, r9, sl, fp, sp}
    217c:	7ee80306 	cdpvc	3, 14, cr0, cr8, cr6, {0}
    2180:	2f050566 	svccs	0x00050566
    2184:	05672f2f 	strbeq	r2, [r7, #-3887]!	; 0xfffff0d1
    2188:	022f0601 	eoreq	r0, pc, #1048576	; 0x100000
    218c:	01010004 	tsteq	r1, r4
    2190:	00000392 	muleq	r0, r2, r3
    2194:	00b70003 	adcseq	r0, r7, r3
    2198:	01020000 	mrseq	r0, (UNDEF: 2)
    219c:	000d0efb 	strdeq	r0, [sp], -fp
    21a0:	01010101 	tsteq	r1, r1, lsl #2
    21a4:	01000000 	mrseq	r0, (UNDEF: 0)
    21a8:	2f010000 	svccs	0x00010000
    21ac:	656d6f68 	strbvs	r6, [sp, #-3944]!	; 0xfffff098
    21b0:	676e652f 	strbvs	r6, [lr, -pc, lsr #10]!
    21b4:	2f72656c 	svccs	0x0072656c
    21b8:	73616c63 	cmnvc	r1, #25344	; 0x6300
    21bc:	73632f73 	cmnvc	r3, #460	; 0x1cc
    21c0:	65303431 	ldrvs	r3, [r0, #-1073]!	; 0xfffffbcf
    21c4:	7732322d 	ldrvc	r3, [r2, -sp, lsr #4]!
    21c8:	2f2f6e69 	svccs	0x002f6e69
    21cc:	7062696c 	rsbvc	r6, r2, ip, ror #18
    21d0:	6e692f69 	cdpvs	15, 6, cr2, cr9, cr9, {3}
    21d4:	64756c63 	ldrbtvs	r6, [r5], #-3171	; 0xfffff39d
    21d8:	752f0065 	strvc	r0, [pc, #-101]!	; 217b <__code_start__-0x5e85>
    21dc:	732f7273 			; <UNDEFINED> instruction: 0x732f7273
    21e0:	65726168 	ldrbvs	r6, [r2, #-360]!	; 0xfffffe98
    21e4:	6363672f 	cmnvs	r3, #12320768	; 0xbc0000
    21e8:	6d72612d 	ldfvse	f6, [r2, #-180]!	; 0xffffff4c
    21ec:	6e6f6e2d 	cdpvs	14, 6, cr6, cr15, cr13, {1}
    21f0:	61652d65 	cmnvs	r5, r5, ror #26
    21f4:	312d6962 			; <UNDEFINED> instruction: 0x312d6962
    21f8:	2d332e30 	ldccs	14, cr2, [r3, #-192]!	; 0xffffff40
    21fc:	31323032 	teqcc	r2, r2, lsr r0
    2200:	2f30312e 	svccs	0x0030312e
    2204:	2f62696c 	svccs	0x0062696c
    2208:	2f636367 	svccs	0x00636367
    220c:	2d6d7261 	sfmcs	f7, 2, [sp, #-388]!	; 0xfffffe7c
    2210:	656e6f6e 	strbvs	r6, [lr, #-3950]!	; 0xfffff092
    2214:	6261652d 	rsbvs	r6, r1, #188743680	; 0xb400000
    2218:	30312f69 	eorscc	r2, r1, r9, ror #30
    221c:	312e332e 			; <UNDEFINED> instruction: 0x312e332e
    2220:	636e692f 	cmnvs	lr, #770048	; 0xbc000
    2224:	6564756c 	strbvs	r7, [r4, #-1388]!	; 0xfffffa94
    2228:	6d6b0000 	stclvs	0, cr0, [fp, #-0]
    222c:	6f6c6c61 	svcvs	0x006c6c61
    2230:	00632e63 	rsbeq	r2, r3, r3, ror #28
    2234:	72000000 	andvc	r0, r0, #0, 0
    2238:	682e6970 	stmdavs	lr!, {r4, r5, r6, r8, fp, sp, lr}
    223c:	00000100 	andeq	r0, r0, r0, lsl #2
    2240:	69647473 	stmdbvs	r4!, {r0, r1, r4, r5, r6, sl, ip, sp, lr}^
    2244:	672d746e 	strvs	r7, [sp, -lr, ror #8]!
    2248:	682e6363 	stmdavs	lr!, {r0, r1, r5, r6, r8, r9, sp, lr}
    224c:	00000200 	andeq	r0, r0, r0, lsl #4
    2250:	001e0500 	andseq	r0, lr, r0, lsl #10
    2254:	9f740205 	svcls	0x00740205
    2258:	27030000 	strcs	r0, [r3, -r0]
    225c:	01200501 			; <UNDEFINED> instruction: 0x01200501
    2260:	01062d05 	tsteq	r6, r5, lsl #26
    2264:	83062005 	movwhi	r2, #24581	; 0x6005
    2268:	05012205 	streq	r2, [r1, #-517]	; 0xfffffdfb
    226c:	05010635 	streq	r0, [r1, #-1589]	; 0xfffff9cb
    2270:	0583061e 	streq	r0, [r3, #1566]	; 0x61e
    2274:	2d050120 	stfcss	f0, [r5, #-128]	; 0xffffff80
    2278:	42050106 	andmi	r0, r5, #-2147483647	; 0x80000001
    227c:	01068506 	tsteq	r6, r6, lsl #10
    2280:	4b060505 	blmi	18369c <__bss_end__+0x1783a4>
    2284:	2e060114 	mcrcs	1, 0, r0, cr6, cr4, {0}
    2288:	02040200 	andeq	r0, r4, #0, 4
    228c:	02002e06 	andeq	r2, r0, #96	; 0x60
    2290:	00010204 	andeq	r0, r1, r4, lsl #4
    2294:	15020402 	strne	r0, [r2, #-1026]	; 0xfffffbfe
    2298:	02000d05 	andeq	r0, r0, #320	; 0x140
    229c:	01060204 	tsteq	r6, r4, lsl #4
    22a0:	02000705 	andeq	r0, r0, #1310720	; 0x140000
    22a4:	054a0204 	strbeq	r0, [sl, #-516]	; 0xfffffdfc
    22a8:	054b0609 	strbeq	r0, [fp, #-1545]	; 0xfffff9f7
    22ac:	17051505 	strne	r1, [r5, -r5, lsl #10]
    22b0:	10050106 	andne	r0, r5, r6, lsl #2
    22b4:	0605054a 	streq	r0, [r5], -sl, asr #10
    22b8:	061b052f 	ldreq	r0, [fp], -pc, lsr #10
    22bc:	2e0e0501 	cfsh32cs	mvfx0, mvfx14, #1
    22c0:	052f0105 	streq	r0, [pc, #-261]!	; 21c3 <__code_start__-0x5e3d>
    22c4:	04020005 	streq	r0, [r2], #-5
    22c8:	77030601 	strvc	r0, [r3, -r1, lsl #12]
    22cc:	0402004a 	streq	r0, [r2], #-74	; 0xffffffb6
    22d0:	02000101 	andeq	r0, r0, #1073741824	; 0x40000000
    22d4:	9e060104 	adflss	f0, f6, f4
    22d8:	01040200 	mrseq	r0, R12_usr
    22dc:	0402002e 	streq	r0, [r2], #-46	; 0xffffffd2
    22e0:	052e0601 	streq	r0, [lr, #-1537]!	; 0xfffff9ff
    22e4:	06013209 	streq	r3, [r1], -r9, lsl #4
    22e8:	2e062ed6 	mcrcs	14, 0, r2, cr6, cr6, {6}
    22ec:	05de1905 	ldrbeq	r1, [lr, #2309]	; 0x905
    22f0:	05142f05 	ldreq	r2, [r4, #-3845]	; 0xfffff0fb
    22f4:	05010608 	streq	r0, [r1, #-1544]	; 0xfffff9f8
    22f8:	09054a07 	stmdbeq	r5, {r0, r1, r2, r9, fp, lr}
    22fc:	05054b06 	streq	r4, [r5, #-2822]	; 0xfffff4fa
    2300:	060c0513 			; <UNDEFINED> instruction: 0x060c0513
    2304:	06050501 	streq	r0, [r5], -r1, lsl #10
    2308:	01051367 	tsteq	r5, r7, ror #6
    230c:	09056706 	stmdbeq	r5, {r1, r2, r8, r9, sl, sp, lr}
    2310:	9e012a06 	vmlals.f32	s4, s2, s12
    2314:	06a52805 	strteq	r2, [r5], r5, lsl #16
    2318:	06050501 	streq	r0, [r5], -r1, lsl #10
    231c:	2e06014b 	adfcssm	f0, f6, #3.0
    2320:	13012e06 	movwne	r2, #7686	; 0x1e06
    2324:	47031805 	strmi	r1, [r3, -r5, lsl #16]
    2328:	13050501 	movwne	r0, #21761	; 0x5501
    232c:	06010601 	streq	r0, [r1], -r1, lsl #12
    2330:	1301150f 	movwne	r1, #5391	; 0x150f
    2334:	01060e05 	tsteq	r6, r5, lsl #28
    2338:	2e2e1605 	cfmadda32cs	mvax0, mvax1, mvfx14, mvfx5
    233c:	03060505 	movweq	r0, #25861	; 0x6505
    2340:	0b050139 	bleq	14282c <__bss_end__+0x137534>
    2344:	05050106 	streq	r0, [r5, #-262]	; 0xfffffefa
    2348:	0a054b06 	beq	154f68 <__bss_end__+0x149c70>
    234c:	05050106 	streq	r0, [r5, #-262]	; 0xfffffefa
    2350:	0d054b06 	vstreq	d4, [r5, #-24]	; 0xffffffe8
    2354:	07050106 	streq	r0, [r5, -r6, lsl #2]
    2358:	4d01052e 	cfstr32mi	mvfx0, [r1, #-184]	; 0xffffff48
    235c:	02000505 	andeq	r0, r0, #20971520	; 0x1400000
    2360:	03060104 	movweq	r0, #24836	; 0x6104
    2364:	02004a78 	andeq	r4, r0, #120, 20	; 0x78000
    2368:	00010104 	andeq	r0, r1, r4, lsl #2
    236c:	06010402 	streq	r0, [r1], -r2, lsl #8
    2370:	040200ba 	streq	r0, [r2], #-186	; 0xffffff46
    2374:	052e0601 	streq	r0, [lr, #-1537]!	; 0xfffff9ff
    2378:	06013409 	streq	r3, [r1], -r9, lsl #8
    237c:	2e066682 	cfmadd32cs	mvax4, mvfx6, mvfx6, mvfx2
    2380:	06db2005 	ldrbeq	r2, [fp], r5
    2384:	06050501 	streq	r0, [r5], -r1, lsl #10
    2388:	0200014b 	andeq	r0, r0, #-1073741806	; 0xc0000012
    238c:	004a0204 	subeq	r0, sl, r4, lsl #4
    2390:	01020402 	tsteq	r2, r2, lsl #8
    2394:	02040200 	andeq	r0, r4, #0, 4
    2398:	00120513 	andseq	r0, r2, r3, lsl r5
    239c:	06020402 	streq	r0, [r2], -r2, lsl #8
    23a0:	04020001 	streq	r0, [r2], #-1
    23a4:	02002e02 	andeq	r2, r0, #2, 28
    23a8:	052e0204 	streq	r0, [lr, #-516]!	; 0xfffffdfc
    23ac:	04020005 	streq	r0, [r2], #-5
    23b0:	002f0602 	eoreq	r0, pc, r2, lsl #12
    23b4:	67020402 	strvs	r0, [r2, -r2, lsl #8]
    23b8:	02000105 	andeq	r0, r0, #1073741825	; 0x40000001
    23bc:	13060204 	movwne	r0, #25092	; 0x6204
    23c0:	02000505 	andeq	r0, r0, #20971520	; 0x1400000
    23c4:	62060104 	andvs	r0, r6, #1
    23c8:	01040200 	mrseq	r0, R12_usr
    23cc:	04020001 	streq	r0, [r2], #-1
    23d0:	00ba0601 	adcseq	r0, sl, r1, lsl #12
    23d4:	06010402 	streq	r0, [r1], -r2, lsl #8
    23d8:	033c052e 	teqeq	ip, #192937984	; 0xb800000
    23dc:	01069e0a 	tsteq	r6, sl, lsl #28
    23e0:	4b060505 	blmi	1837fc <__bss_end__+0x178504>
    23e4:	062e0601 	strteq	r0, [lr], -r1, lsl #12
    23e8:	0113012e 	tsteq	r3, lr, lsr #2
    23ec:	ad031805 	stcge	8, cr1, [r3, #-20]	; 0xffffffec
    23f0:	0505017f 	streq	r0, [r5, #-383]	; 0xfffffe81
    23f4:	06110513 			; <UNDEFINED> instruction: 0x06110513
    23f8:	05052e01 	streq	r2, [r5, #-3585]	; 0xfffff1ff
    23fc:	0100d203 	tsteq	r0, r3, lsl #4
    2400:	05134a06 	ldreq	r4, [r3, #-2566]	; 0xfffff5fa
    2404:	7fa30318 	svcvc	0x00a30318
    2408:	13050501 	movwne	r0, #21761	; 0x5501
    240c:	01061605 	tsteq	r6, r5, lsl #12
    2410:	0605054a 	streq	r0, [r5], -sl, asr #10
    2414:	0100e103 	tsteq	r0, r3, lsl #2
    2418:	01061205 	tsteq	r6, r5, lsl #4
    241c:	4b060505 	blmi	183838 <__bss_end__+0x178540>
    2420:	a9031805 	stmdbge	r3, {r0, r2, fp, ip}
    2424:	0505017f 	streq	r0, [r5, #-383]	; 0xfffffe81
    2428:	18050113 	stmdane	r5, {r0, r1, r4, r8}
    242c:	1305050e 	movwne	r0, #21774	; 0x550e
    2430:	01061105 	tsteq	r6, r5, lsl #2
    2434:	1505052e 	strne	r0, [r5, #-1326]	; 0xfffffad2
    2438:	13014a06 	movwne	r4, #6662	; 0x1a06
    243c:	01060e05 	tsteq	r6, r5, lsl #28
    2440:	2e16052e 	cfmul64cs	mvdx0, mvdx6, mvdx14
    2444:	0605052e 	streq	r0, [r5], -lr, lsr #10
    2448:	0100d603 	tsteq	r0, r3, lsl #12
    244c:	03180501 	tsteq	r8, #4194304	; 0x400000
    2450:	05017f9f 	streq	r7, [r1, #-3999]	; 0xfffff061
    2454:	19051305 	stmdbne	r5, {r0, r2, r8, r9, ip}
    2458:	052e0106 	streq	r0, [lr, #-262]!	; 0xfffffefa
    245c:	00e00305 	rsceq	r0, r0, r5, lsl #6
    2460:	04020001 	streq	r0, [r2], #-1
    2464:	004a0602 	subeq	r0, sl, r2, lsl #12
    2468:	14020402 	strne	r0, [r2], #-1026	; 0xfffffbfe
    246c:	02000a05 	andeq	r0, r0, #20480	; 0x5000
    2470:	01060204 	tsteq	r6, r4, lsl #4
    2474:	02000505 	andeq	r0, r0, #20971520	; 0x1400000
    2478:	4b060204 	blmi	182c90 <__bss_end__+0x177998>
    247c:	02000c05 	andeq	r0, r0, #1280	; 0x500
    2480:	01060204 	tsteq	r6, r4, lsl #4
    2484:	02000105 	andeq	r0, r0, #1073741825	; 0x40000001
    2488:	052f0204 	streq	r0, [pc, #-516]!	; 228c <__code_start__-0x5d74>
    248c:	04020005 	streq	r0, [r2], #-5
    2490:	73030601 	movwvc	r0, #13825	; 0x3601
    2494:	0402004a 	streq	r0, [r2], #-74	; 0xffffffb6
    2498:	02000101 	andeq	r0, r0, #1073741824	; 0x40000000
    249c:	9e060104 	adflss	f0, f6, f4
    24a0:	01040200 	mrseq	r0, R12_usr
    24a4:	0402002e 	streq	r0, [r2], #-46	; 0xffffffd2
    24a8:	002e0601 	eoreq	r0, lr, r1, lsl #12
    24ac:	2f010402 	svccs	0x00010402
    24b0:	01040200 	mrseq	r0, R12_usr
    24b4:	0402002e 	streq	r0, [r2], #-46	; 0xffffffd2
    24b8:	b103d601 	tstlt	r3, r1, lsl #12
    24bc:	06012e7f 			; <UNDEFINED> instruction: 0x06012e7f
    24c0:	062e2e82 	strteq	r2, [lr], -r2, lsl #29
    24c4:	002e062e 	eoreq	r0, lr, lr, lsr #12
    24c8:	06010402 	streq	r0, [r1], -r2, lsl #8
    24cc:	0100d703 	tsteq	r0, r3, lsl #14
    24d0:	01040200 	mrseq	r0, R12_usr
    24d4:	0402002e 	streq	r0, [r2], #-46	; 0xffffffd2
    24d8:	1505d601 	strne	sp, [r5, #-1537]	; 0xfffff9ff
    24dc:	17057b08 	strne	r7, [r5, -r8, lsl #22]
    24e0:	31160501 	tstcc	r6, r1, lsl #10
    24e4:	05011805 	streq	r1, [r1, #-2053]	; 0xfffff7fb
    24e8:	0501061d 	streq	r0, [r1, #-1565]	; 0xfffff9e3
    24ec:	1905662b 	stmdbne	r5, {r0, r1, r3, r5, r9, sl, sp, lr}
    24f0:	05054d06 	streq	r4, [r5, #-3334]	; 0xfffff2fa
    24f4:	060c0513 			; <UNDEFINED> instruction: 0x060c0513
    24f8:	4a070501 	bmi	1c3904 <__bss_end__+0x1b860c>
    24fc:	02002505 	andeq	r2, r0, #20971520	; 0x1400000
    2500:	054a0104 	strbeq	r0, [sl, #-260]	; 0xfffffefc
    2504:	0402001e 	streq	r0, [r2], #-30	; 0xffffffe2
    2508:	09054a01 	stmdbeq	r5, {r0, r9, fp, lr}
    250c:	05054b06 	streq	r4, [r5, #-2822]	; 0xfffff4fa
    2510:	060a0513 			; <UNDEFINED> instruction: 0x060a0513
    2514:	63190501 	tstvs	r9, #4194304	; 0x400000
    2518:	4c060905 			; <UNDEFINED> instruction: 0x4c060905
    251c:	069e0601 	ldreq	r0, [lr], r1, lsl #12
    2520:	000a022e 	andeq	r0, sl, lr, lsr #4
    2524:	02890101 	addeq	r0, r9, #1073741824	; 0x40000000
    2528:	00030000 	andeq	r0, r3, r0
    252c:	000000c9 	andeq	r0, r0, r9, asr #1
    2530:	0efb0102 	cdpeq	1, 15, cr0, cr11, cr2, {0}
    2534:	0101000d 	tsteq	r1, sp
    2538:	00000101 	andeq	r0, r0, r1, lsl #2
    253c:	00000100 	andeq	r0, r0, r0, lsl #2
    2540:	732f2e01 			; <UNDEFINED> instruction: 0x732f2e01
    2544:	2f006372 	svccs	0x00006372
    2548:	72657355 	rsbvc	r7, r5, #1409286145	; 0x54000001
    254c:	696d2f73 	stmdbvs	sp!, {r0, r1, r4, r5, r6, r8, r9, sl, fp, sp}^
    2550:	2f73656c 	svccs	0x0073656c
    2554:	72756f53 	rsbsvc	r6, r5, #332	; 0x14c
    2558:	632f6563 			; <UNDEFINED> instruction: 0x632f6563
    255c:	30343273 	eorscc	r3, r4, r3, ror r2
    2560:	6c2f786c 	stcvs	8, cr7, [pc], #-432	; 23b8 <__code_start__-0x5c48>
    2564:	69706269 	ldmdbvs	r0!, {r0, r3, r5, r6, r9, sp, lr}^
    2568:	636e692f 	cmnvs	lr, #770048	; 0xbc000
    256c:	6564756c 	strbvs	r7, [r4, #-1388]!	; 0xfffffa94
    2570:	706f2f00 	rsbvc	r2, pc, r0, lsl #30
    2574:	6f682f74 	svcvs	0x00682f74
    2578:	7262656d 	rsbvc	r6, r2, #457179136	; 0x1b400000
    257c:	432f7765 			; <UNDEFINED> instruction: 0x432f7765
    2580:	616c6c65 	cmnvs	ip, r5, ror #24
    2584:	72612f72 	rsbvc	r2, r1, #456	; 0x1c8
    2588:	6f6e2d6d 	svcvs	0x006e2d6d
    258c:	652d656e 	strvs	r6, [sp, #-1390]!	; 0xfffffa92
    2590:	2d696261 	sfmcs	f6, 2, [r9, #-388]!	; 0xfffffe7c
    2594:	2d392f39 	ldccs	15, cr2, [r9, #-228]!	; 0xffffff1c
    2598:	39313032 	ldmdbcc	r1!, {r1, r4, r5, ip, sp}
    259c:	632d3471 			; <UNDEFINED> instruction: 0x632d3471
    25a0:	37303173 			; <UNDEFINED> instruction: 0x37303173
    25a4:	696c2f65 	stmdbvs	ip!, {r0, r2, r5, r6, r8, r9, sl, fp, sp}^
    25a8:	63672f62 	cmnvs	r7, #392	; 0x188
    25ac:	72612f63 	rsbvc	r2, r1, #396	; 0x18c
    25b0:	6f6e2d6d 	svcvs	0x006e2d6d
    25b4:	652d656e 	strvs	r6, [sp, #-1390]!	; 0xfffffa92
    25b8:	2f696261 	svccs	0x00696261
    25bc:	2e322e39 	mrccs	14, 1, r2, cr2, cr9, {1}
    25c0:	6e692f31 	mcrvs	15, 3, r2, cr9, cr1, {1}
    25c4:	64756c63 	ldrbtvs	r6, [r5], #-3171	; 0xfffff39d
    25c8:	67000065 	strvs	r0, [r0, -r5, rrx]
    25cc:	2e6f6970 			; <UNDEFINED> instruction: 0x2e6f6970
    25d0:	00010063 	andeq	r0, r1, r3, rrx
    25d4:	69707200 	ldmdbvs	r0!, {r9, ip, sp, lr}^
    25d8:	0200682e 	andeq	r6, r0, #3014656	; 0x2e0000
    25dc:	74730000 	ldrbtvc	r0, [r3], #-0
    25e0:	746e6964 	strbtvc	r6, [lr], #-2404	; 0xfffff69c
    25e4:	6363672d 	cmnvs	r3, #11796480	; 0xb40000
    25e8:	0300682e 	movweq	r6, #2094	; 0x82e
    25ec:	70670000 	rsbvc	r0, r7, r0
    25f0:	682e6f69 	stmdavs	lr!, {r0, r3, r5, r6, r8, r9, sl, fp, sp, lr}
    25f4:	00000200 	andeq	r0, r0, r0, lsl #4
    25f8:	00380500 	eorseq	r0, r8, r0, lsl #10
    25fc:	a3240205 			; <UNDEFINED> instruction: 0xa3240205
    2600:	27030000 	strcs	r0, [r3, -r0]
    2604:	13050501 	movwne	r0, #21761	; 0x5501
    2608:	01060705 	tsteq	r6, r5, lsl #14
    260c:	49060605 	stmdbmi	r6, {r0, r2, r9, sl}
    2610:	05150505 	ldreq	r0, [r5, #-1285]	; 0xfffffafb
    2614:	05010607 	streq	r0, [r1, #-1543]	; 0xfffff9f9
    2618:	07052b38 	smladxeq	r5, r8, fp, r2
    261c:	0605054d 	streq	r0, [r5], -sp, asr #10
    2620:	06180530 			; <UNDEFINED> instruction: 0x06180530
    2624:	671c0501 	ldrvs	r0, [ip, -r1, lsl #10]
    2628:	054a0e05 	strbeq	r0, [sl, #-3589]	; 0xfffff1fb
    262c:	12052d18 	andne	r2, r5, #24, 26	; 0x600
    2630:	052f2e4d 	streq	r2, [pc, #-3661]!	; 17eb <__code_start__-0x6815>
    2634:	05052a0e 	streq	r2, [r5, #-2574]	; 0xfffff5f2
    2638:	13142f06 	tstne	r4, #6, 30
    263c:	01060705 	tsteq	r6, r5, lsl #14
    2640:	2f060505 	svccs	0x00060505
    2644:	2e2e0613 	mcrcs	6, 1, r0, cr14, cr3, {0}
    2648:	05130105 	ldreq	r0, [r3, #-261]	; 0xfffffefb
    264c:	052e2d05 	streq	r2, [lr, #-3333]!	; 0xfffff2fb
    2650:	05000624 	streq	r0, [r0, #-1572]	; 0xfffff9dc
    2654:	00a38402 	adceq	r8, r3, r2, lsl #8
    2658:	05051500 	streq	r1, [r5, #-1280]	; 0xfffffb00
    265c:	03060513 	movweq	r0, #25875	; 0x6513
    2660:	05050171 	streq	r0, [r5, #-369]	; 0xfffffe8f
    2664:	06070513 			; <UNDEFINED> instruction: 0x06070513
    2668:	06060501 	streq	r0, [r6], -r1, lsl #10
    266c:	15050549 	strne	r0, [r5, #-1353]	; 0xfffffab7
    2670:	06240514 			; <UNDEFINED> instruction: 0x06240514
    2674:	05010903 	streq	r0, [r1, #-2307]	; 0xfffff6fd
    2678:	2e770318 	mrccs	3, 3, r0, cr7, cr8, {0}
    267c:	05671c05 	strbeq	r1, [r7, #-3077]!	; 0xfffff3fb
    2680:	18054a0e 	stmdane	r5, {r1, r2, r3, r9, fp, lr}
    2684:	4d12052d 	cfldr32mi	mvfx0, [r2, #-180]	; 0xffffff4c
    2688:	0f052f2e 	svceq	0x00052f2e
    268c:	290e052f 	stmdbcs	lr, {r0, r1, r2, r3, r5, r8, sl}
    2690:	2f060505 	svccs	0x00060505
    2694:	07051314 	smladeq	r5, r4, r3, r1
    2698:	05050106 	streq	r0, [r5, #-262]	; 0xfffffefa
    269c:	06132f06 	ldreq	r2, [r3], -r6, lsl #30
    26a0:	3301052e 	movwcc	r0, #5422	; 0x152e
    26a4:	2e290505 	cfsh64cs	mvdx0, mvdx9, #5
    26a8:	00062705 	andeq	r2, r6, r5, lsl #14
    26ac:	a3dc0205 	bicsge	r0, ip, #1342177280	; 0x50000000
    26b0:	051a0000 	ldreq	r0, [sl, #-0]
    26b4:	27051305 	strcs	r1, [r5, -r5, lsl #6]
    26b8:	18051106 	stmdane	r5, {r1, r2, r8, ip}
    26bc:	2e05052f 	cfsh32cs	mvfx0, mvfx5, #31
    26c0:	28054a2e 	stmdacs	r5, {r1, r2, r3, r5, r9, fp, lr}
    26c4:	02050006 	andeq	r0, r5, #6, 0
    26c8:	0000a3f4 	strdeq	sl, [r0], -r4
    26cc:	13050516 	movwne	r0, #21782	; 0x5516
    26d0:	11062805 	tstne	r6, r5, lsl #16
    26d4:	052f1805 	streq	r1, [pc, #-2053]!	; 1ed7 <__code_start__-0x6129>
    26d8:	4a2e2e05 	bmi	b8def4 <__bss_end__+0xb82bfc>
    26dc:	00062305 	andeq	r2, r6, r5, lsl #6
    26e0:	a40c0205 	strge	r0, [ip], #-517	; 0xfffffdfb
    26e4:	05160000 	ldreq	r0, [r6, #-0]
    26e8:	06051305 	streq	r1, [r5], -r5, lsl #6
    26ec:	05016203 	streq	r6, [r1, #-515]	; 0xfffffdfd
    26f0:	07051305 	streq	r1, [r5, -r5, lsl #6]
    26f4:	06050106 	streq	r0, [r5], -r6, lsl #2
    26f8:	05054906 	streq	r4, [r5, #-2310]	; 0xfffff6fa
    26fc:	05131415 	ldreq	r1, [r3, #-1045]	; 0xfffffbeb
    2700:	17030623 	strne	r0, [r3, -r3, lsr #12]
    2704:	03220501 			; <UNDEFINED> instruction: 0x03220501
    2708:	1c052e69 	stcne	14, cr2, [r5], {105}	; 0x69
    270c:	0e052e82 	cdpeq	14, 0, cr2, cr5, cr2, {4}
    2710:	0605052e 	streq	r0, [r5], -lr, lsr #10
    2714:	06120530 			; <UNDEFINED> instruction: 0x06120530
    2718:	052d4b01 	streq	r4, [sp, #-2817]!	; 0xfffff4ff
    271c:	132f0605 			; <UNDEFINED> instruction: 0x132f0605
    2720:	06180513 			; <UNDEFINED> instruction: 0x06180513
    2724:	05017a03 	streq	r7, [r1, #-2563]	; 0xfffff5fd
    2728:	05054a0e 	streq	r4, [r5, #-2574]	; 0xfffff5f2
    272c:	01052e34 	tsteq	r5, r4, lsr lr
    2730:	052e1403 	streq	r1, [lr, #-1027]!	; 0xfffffbfd
    2734:	2e6c0305 	cdpcs	3, 6, cr0, cr12, cr5, {0}
    2738:	062b052e 	strteq	r0, [fp], -lr, lsr #10
    273c:	64020500 	strvs	r0, [r2], #-1280	; 0xfffffb00
    2740:	030000a4 	movweq	r0, #164	; 0xa4
    2744:	05050117 	streq	r0, [r5, #-279]	; 0xfffffee9
    2748:	06070513 			; <UNDEFINED> instruction: 0x06070513
    274c:	03180501 	tsteq	r8, #4194304	; 0x400000
    2750:	2b052e71 	blcs	14e11c <__bss_end__+0x142e24>
    2754:	052e0e03 	streq	r0, [lr, #-3587]!	; 0xfffff1fd
    2758:	09052f07 	stmdbeq	r5, {r0, r1, r2, r8, r9, sl, fp, sp}
    275c:	0d052f06 	stceq	15, cr2, [r5, #-24]	; 0xffffffe8
    2760:	05016f03 	streq	r6, [r1, #-3843]	; 0xfffff0fd
    2764:	2e061305 	cdpcs	3, 0, cr1, cr6, cr5, {0}
    2768:	09052e2e 	stmdbeq	r5, {r1, r2, r3, r5, r9, sl, fp, sp}
    276c:	01120306 	tsteq	r2, r6, lsl #6
    2770:	72030d05 	andvc	r0, r3, #320	; 0x140
    2774:	13050501 	movwne	r0, #21761	; 0x5501
    2778:	052e2e06 	streq	r2, [lr, #-3590]!	; 0xfffff1fa
    277c:	1003061d 	andne	r0, r3, sp, lsl r6
    2780:	13050566 	movwne	r0, #21862	; 0x5566
    2784:	11061d05 	tstne	r6, r5, lsl #26
    2788:	0605052e 	streq	r0, [r5], -lr, lsr #10
    278c:	0e051330 	mcreq	3, 0, r1, cr5, cr0, {1}
    2790:	17051006 	strne	r1, [r5, -r6]
    2794:	02042e30 	andeq	r2, r4, #48, 28	; 0x300
    2798:	03063005 	movweq	r3, #24581	; 0x6005
    279c:	042e00dd 	strteq	r0, [lr], #-221	; 0xffffff23
    27a0:	060e0501 	streq	r0, [lr], -r1, lsl #10
    27a4:	017fa203 	cmneq	pc, r3, lsl #4
    27a8:	052f2305 	streq	r2, [pc, #-773]!	; 24ab <__code_start__-0x5b55>
    27ac:	06022f01 	streq	r2, [r2], -r1, lsl #30
    27b0:	9e010100 	adflss	f0, f1, f0
    27b4:	03000000 	movweq	r0, #0
    27b8:	00005a00 	andeq	r5, r0, r0, lsl #20
    27bc:	fb010200 	blx	42fc6 <__bss_end__+0x37cce>
    27c0:	01000d0e 	tsteq	r0, lr, lsl #26
    27c4:	00010101 	andeq	r0, r1, r1, lsl #2
    27c8:	00010000 	andeq	r0, r1, r0
    27cc:	2f2e0100 	svccs	0x002e0100
    27d0:	6362696c 	cmnvs	r2, #108, 18	; 0x1b0000
    27d4:	73552f00 	cmpvc	r5, #0, 30
    27d8:	2f737265 	svccs	0x00737265
    27dc:	656c696d 	strbvs	r6, [ip, #-2413]!	; 0xfffff693
    27e0:	6f532f73 	svcvs	0x00532f73
    27e4:	65637275 	strbvs	r7, [r3, #-629]!	; 0xfffffd8b
    27e8:	3273632f 	rsbscc	r6, r3, #-1140850688	; 0xbc000000
    27ec:	786c3034 	stmdavc	ip!, {r2, r4, r5, ip, sp}^
    27f0:	62696c2f 	rsbvs	r6, r9, #12032	; 0x2f00
    27f4:	692f6970 	stmdbvs	pc!, {r4, r5, r6, r8, fp, sp, lr}	; <UNPREDICTABLE>
    27f8:	756c636e 	strbvc	r6, [ip, #-878]!	; 0xfffffc92
    27fc:	00006564 	andeq	r6, r0, r4, ror #10
    2800:	63747570 	cmnvs	r4, #112, 10	; 0x1c000000
    2804:	2e726168 	rpwcssz	f6, f2, #0.0
    2808:	00010063 	andeq	r0, r1, r3, rrx
    280c:	69707200 	ldmdbvs	r0!, {r9, ip, sp, lr}^
    2810:	0200682e 	andeq	r6, r0, #3014656	; 0x2e0000
    2814:	05000000 	streq	r0, [r0, #-0]
    2818:	02050024 	andeq	r0, r5, #36, 0	; 0x24
    281c:	0000a4bc 			; <UNDEFINED> instruction: 0x0000a4bc
    2820:	01260514 			; <UNDEFINED> instruction: 0x01260514
    2824:	01062405 	tsteq	r6, r5, lsl #8
    2828:	2e26052e 	cfsh64cs	mvdx0, mvdx6, #30
    282c:	2e063405 	cdpcs	4, 0, cr3, cr6, cr5, {0}
    2830:	01060105 	tsteq	r6, r5, lsl #2
    2834:	4f061b05 	svcmi	0x00061b05
    2838:	05130505 	ldreq	r0, [r3, #-1285]	; 0xfffffafb
    283c:	05010611 	streq	r0, [r1, #-1553]	; 0xfffff9ef
    2840:	23056701 	movwcs	r6, #22273	; 0x5701
    2844:	05056706 	streq	r6, [r5, #-1798]	; 0xfffff8fa
    2848:	06110513 			; <UNDEFINED> instruction: 0x06110513
    284c:	4b010501 	blmi	43c58 <__bss_end__+0x38960>
    2850:	01000402 	tsteq	r0, r2, lsl #8
    2854:	0000e201 	andeq	lr, r0, r1, lsl #4
    2858:	59000300 	stmdbpl	r0, {r8, r9}
    285c:	02000000 	andeq	r0, r0, #0, 0
    2860:	0d0efb01 	vstreq	d15, [lr, #-4]
    2864:	01010100 	mrseq	r0, (UNDEF: 17)
    2868:	00000001 	andeq	r0, r0, r1
    286c:	01000001 	tsteq	r0, r1
    2870:	696c2f2e 	stmdbvs	ip!, {r1, r2, r3, r5, r8, r9, sl, fp, sp}^
    2874:	2f006362 	svccs	0x00006362
    2878:	72657355 	rsbvc	r7, r5, #1409286145	; 0x54000001
    287c:	696d2f73 	stmdbvs	sp!, {r0, r1, r4, r5, r6, r8, r9, sl, fp, sp}^
    2880:	2f73656c 	svccs	0x0073656c
    2884:	72756f53 	rsbsvc	r6, r5, #332	; 0x14c
    2888:	632f6563 			; <UNDEFINED> instruction: 0x632f6563
    288c:	30343273 	eorscc	r3, r4, r3, ror r2
    2890:	6c2f786c 	stcvs	8, cr7, [pc], #-432	; 26e8 <__code_start__-0x5918>
    2894:	69706269 	ldmdbvs	r0!, {r0, r3, r5, r6, r9, sp, lr}^
    2898:	636e692f 	cmnvs	lr, #770048	; 0xbc000
    289c:	6564756c 	strbvs	r7, [r4, #-1388]!	; 0xfffffa94
    28a0:	74730000 	ldrbtvc	r0, [r3], #-0
    28a4:	74616372 	strbtvc	r6, [r1], #-882	; 0xfffffc8e
    28a8:	0100632e 	tsteq	r0, lr, lsr #6
    28ac:	70720000 	rsbsvc	r0, r2, r0
    28b0:	00682e69 	rsbeq	r2, r8, r9, ror #28
    28b4:	00000002 	andeq	r0, r0, r2
    28b8:	05002c05 	streq	r2, [r0, #-3077]	; 0xfffff3fb
    28bc:	00a4f802 	adceq	pc, r4, r2, lsl #16
    28c0:	05051500 	streq	r1, [r5, #-1280]	; 0xfffffb00
    28c4:	0b051313 	bleq	147518 <__bss_end__+0x13c220>
    28c8:	05051106 	streq	r1, [r5, #-262]	; 0xfffffefa
    28cc:	01040200 	mrseq	r0, R12_usr
    28d0:	02003006 	andeq	r3, r0, #6, 0
    28d4:	05150104 	ldreq	r0, [r5, #-260]	; 0xfffffefc
    28d8:	04020009 	streq	r0, [r2], #-9
    28dc:	0b051301 	bleq	1474e8 <__bss_end__+0x13c1f0>
    28e0:	01040200 	mrseq	r0, R12_usr
    28e4:	0005052f 	andeq	r0, r5, pc, lsr #10
    28e8:	06010402 	streq	r0, [r1], -r2, lsl #8
    28ec:	04020001 	streq	r0, [r2], #-1
    28f0:	4e062e01 	cdpmi	14, 0, cr2, cr6, cr1, {0}
    28f4:	01060805 	tsteq	r6, r5, lsl #16
    28f8:	02000505 	andeq	r0, r0, #20971520	; 0x1400000
    28fc:	2f060104 	svccs	0x00060104
    2900:	02000905 	andeq	r0, r0, #81920	; 0x14000
    2904:	05130104 	ldreq	r0, [r3, #-260]	; 0xfffffefc
    2908:	0402000b 	streq	r0, [r2], #-11
    290c:	05010601 	streq	r0, [r1, #-1537]	; 0xfffff9ff
    2910:	04020009 	streq	r0, [r2], #-9
    2914:	052f0601 	streq	r0, [pc, #-1537]!	; 231b <__code_start__-0x5ce5>
    2918:	04020005 	streq	r0, [r2], #-5
    291c:	05130601 	ldreq	r0, [r3, #-1537]	; 0xfffff9ff
    2920:	0402000f 	streq	r0, [r2], #-15
    2924:	0d052d01 	stceq	13, cr2, [r5, #-4]
    2928:	01040200 	mrseq	r0, R12_usr
    292c:	05052f06 	streq	r2, [r5, #-3846]	; 0xfffff0fa
    2930:	01040200 	mrseq	r0, R12_usr
    2934:	04020106 	streq	r0, [r2], #-262	; 0xfffffefa
    2938:	b2010100 	andlt	r0, r1, #0
    293c:	03000000 	movweq	r0, #0
    2940:	00005900 	andeq	r5, r0, r0, lsl #18
    2944:	fb010200 	blx	4314e <__bss_end__+0x37e56>
    2948:	01000d0e 	tsteq	r0, lr, lsl #26
    294c:	00010101 	andeq	r0, r1, r1, lsl #2
    2950:	00010000 	andeq	r0, r1, r0
    2954:	2f2e0100 	svccs	0x002e0100
    2958:	6362696c 	cmnvs	r2, #108, 18	; 0x1b0000
    295c:	73552f00 	cmpvc	r5, #0, 30
    2960:	2f737265 	svccs	0x00737265
    2964:	656c696d 	strbvs	r6, [ip, #-2413]!	; 0xfffff693
    2968:	6f532f73 	svcvs	0x00532f73
    296c:	65637275 	strbvs	r7, [r3, #-629]!	; 0xfffffd8b
    2970:	3273632f 	rsbscc	r6, r3, #-1140850688	; 0xbc000000
    2974:	786c3034 	stmdavc	ip!, {r2, r4, r5, ip, sp}^
    2978:	62696c2f 	rsbvs	r6, r9, #12032	; 0x2f00
    297c:	692f6970 	stmdbvs	pc!, {r4, r5, r6, r8, fp, sp, lr}	; <UNPREDICTABLE>
    2980:	756c636e 	strbvc	r6, [ip, #-878]!	; 0xfffffc92
    2984:	00006564 	andeq	r6, r0, r4, ror #10
    2988:	63727473 	cmnvs	r2, #1929379840	; 0x73000000
    298c:	632e706d 			; <UNDEFINED> instruction: 0x632e706d
    2990:	00000100 	andeq	r0, r0, r0, lsl #2
    2994:	2e697072 	mcrcs	0, 3, r7, cr9, cr2, {3}
    2998:	00020068 	andeq	r0, r2, r8, rrx
    299c:	2a050000 	bcs	1429a4 <__bss_end__+0x1376ac>
    29a0:	24020500 	strcs	r0, [r2], #-1280	; 0xfffffb00
    29a4:	140000a5 	strne	r0, [r0], #-165	; 0xffffff5b
    29a8:	05130905 	ldreq	r0, [r3, #-2309]	; 0xfffff6fb
    29ac:	05010610 	streq	r0, [r1, #-1552]	; 0xfffff9f0
    29b0:	052e060f 	streq	r0, [lr, #-1551]!	; 0xfffff9f1
    29b4:	05820610 	streq	r0, [r2, #1552]	; 0x610
    29b8:	11052e0f 	tstne	r5, pc, lsl #28
    29bc:	01040200 	mrseq	r0, R12_usr
    29c0:	1c054b06 			; <UNDEFINED> instruction: 0x1c054b06
    29c4:	01040200 	mrseq	r0, R12_usr
    29c8:	0f052d06 	svceq	0x00052d06
    29cc:	01040200 	mrseq	r0, R12_usr
    29d0:	13052e06 	movwne	r2, #24070	; 0x5e06
    29d4:	01040200 	mrseq	r0, R12_usr
    29d8:	09050106 	stmdbeq	r5, {r1, r2, r8}
    29dc:	01054c06 	tsteq	r5, r6, lsl #24
    29e0:	054a1306 	strbeq	r1, [sl, #-774]	; 0xfffffcfa
    29e4:	052d0609 	streq	r0, [sp, #-1545]!	; 0xfffff9f7
    29e8:	2e130601 	cfmsub32cs	mvax0, mvfx0, mvfx3, mvfx1
    29ec:	01000202 	tsteq	r0, r2, lsl #4
    29f0:	00009d01 	andeq	r9, r0, r1, lsl #26
    29f4:	59000300 	stmdbpl	r0, {r8, r9}
    29f8:	02000000 	andeq	r0, r0, #0, 0
    29fc:	0d0efb01 	vstreq	d15, [lr, #-4]
    2a00:	01010100 	mrseq	r0, (UNDEF: 17)
    2a04:	00000001 	andeq	r0, r0, r1
    2a08:	01000001 	tsteq	r0, r1
    2a0c:	696c2f2e 	stmdbvs	ip!, {r1, r2, r3, r5, r8, r9, sl, fp, sp}^
    2a10:	2f006362 	svccs	0x00006362
    2a14:	72657355 	rsbvc	r7, r5, #1409286145	; 0x54000001
    2a18:	696d2f73 	stmdbvs	sp!, {r0, r1, r4, r5, r6, r8, r9, sl, fp, sp}^
    2a1c:	2f73656c 	svccs	0x0073656c
    2a20:	72756f53 	rsbsvc	r6, r5, #332	; 0x14c
    2a24:	632f6563 			; <UNDEFINED> instruction: 0x632f6563
    2a28:	30343273 	eorscc	r3, r4, r3, ror r2
    2a2c:	6c2f786c 	stcvs	8, cr7, [pc], #-432	; 2884 <__code_start__-0x577c>
    2a30:	69706269 	ldmdbvs	r0!, {r0, r3, r5, r6, r9, sp, lr}^
    2a34:	636e692f 	cmnvs	lr, #770048	; 0xbc000
    2a38:	6564756c 	strbvs	r7, [r4, #-1388]!	; 0xfffffa94
    2a3c:	74730000 	ldrbtvc	r0, [r3], #-0
    2a40:	79706372 	ldmdbvc	r0!, {r1, r4, r5, r6, r8, r9, sp, lr}^
    2a44:	0100632e 	tsteq	r0, lr, lsr #6
    2a48:	70720000 	rsbsvc	r0, r2, r0
    2a4c:	00682e69 	rsbeq	r2, r8, r9, ror #28
    2a50:	00000002 	andeq	r0, r0, r2
    2a54:	05002a05 	streq	r2, [r0, #-2565]	; 0xfffff5fb
    2a58:	00a56802 	adceq	r6, r5, r2, lsl #16
    2a5c:	05051400 	streq	r1, [r5, #-1024]	; 0xfffffc00
    2a60:	22051313 	andcs	r1, r5, #1275068416	; 0x4c000000
    2a64:	01040200 	mrseq	r0, R12_usr
    2a68:	000b052e 	andeq	r0, fp, lr, lsr #10
    2a6c:	01010402 	tsteq	r1, r2, lsl #8
    2a70:	02001505 	andeq	r1, r0, #20971520	; 0x1400000
    2a74:	01060104 	tsteq	r6, r4, lsl #2
    2a78:	02000b05 	andeq	r0, r0, #5120	; 0x1400
    2a7c:	052e0104 	streq	r0, [lr, #-260]!	; 0xfffffefc
    2a80:	04020013 	streq	r0, [r2], #-19	; 0xffffffed
    2a84:	0b052e01 	bleq	14e290 <__bss_end__+0x142f98>
    2a88:	01040200 	mrseq	r0, R12_usr
    2a8c:	0004022e 	andeq	r0, r4, lr, lsr #4
    2a90:	00fd0101 	rscseq	r0, sp, r1, lsl #2
    2a94:	00030000 	andeq	r0, r3, r0
    2a98:	000000bf 	strheq	r0, [r0], -pc	; <UNPREDICTABLE>
    2a9c:	0efb0102 	cdpeq	1, 15, cr0, cr11, cr2, {0}
    2aa0:	0101000d 	tsteq	r1, sp
    2aa4:	00000101 	andeq	r0, r0, r1, lsl #2
    2aa8:	00000100 	andeq	r0, r0, r0, lsl #2
    2aac:	6c2f2e01 	stcvs	14, cr2, [pc], #-4	; 2ab0 <__code_start__-0x5550>
    2ab0:	00636269 	rsbeq	r6, r3, r9, ror #4
    2ab4:	6573552f 	ldrbvs	r5, [r3, #-1327]!	; 0xfffffad1
    2ab8:	6d2f7372 	stcvs	3, cr7, [pc, #-456]!	; 28f8 <__code_start__-0x5708>
    2abc:	73656c69 	cmnvc	r5, #26880	; 0x6900
    2ac0:	756f532f 	strbvc	r5, [pc, #-815]!	; 2799 <__code_start__-0x5867>
    2ac4:	2f656372 	svccs	0x00656372
    2ac8:	34327363 	ldrtcc	r7, [r2], #-867	; 0xfffffc9d
    2acc:	2f786c30 	svccs	0x00786c30
    2ad0:	7062696c 	rsbvc	r6, r2, ip, ror #18
    2ad4:	6e692f69 	cdpvs	15, 6, cr2, cr9, cr9, {3}
    2ad8:	64756c63 	ldrbtvs	r6, [r5], #-3171	; 0xfffff39d
    2adc:	6f2f0065 	svcvs	0x002f0065
    2ae0:	682f7470 	stmdavs	pc!, {r4, r5, r6, sl, ip, sp, lr}	; <UNPREDICTABLE>
    2ae4:	62656d6f 	rsbvs	r6, r5, #7104	; 0x1bc0
    2ae8:	2f776572 	svccs	0x00776572
    2aec:	6c6c6543 	cfstr64vs	mvdx6, [ip], #-268	; 0xfffffef4
    2af0:	612f7261 			; <UNDEFINED> instruction: 0x612f7261
    2af4:	6e2d6d72 	mcrvs	13, 1, r6, cr13, cr2, {3}
    2af8:	2d656e6f 	stclcs	14, cr6, [r5, #-444]!	; 0xfffffe44
    2afc:	69626165 	stmdbvs	r2!, {r0, r2, r5, r6, r8, sp, lr}^
    2b00:	392f392d 	stmdbcc	pc!, {r0, r2, r3, r5, r8, fp, ip, sp}	; <UNPREDICTABLE>
    2b04:	3130322d 	teqcc	r0, sp, lsr #4
    2b08:	2d347139 	ldfcss	f7, [r4, #-228]!	; 0xffffff1c
    2b0c:	30317363 	eorscc	r7, r1, r3, ror #6
    2b10:	6c2f6537 	cfstr32vs	mvfx6, [pc], #-220	; 2a3c <__code_start__-0x55c4>
    2b14:	672f6269 	strvs	r6, [pc, -r9, ror #4]!
    2b18:	612f6363 			; <UNDEFINED> instruction: 0x612f6363
    2b1c:	6e2d6d72 	mcrvs	13, 1, r6, cr13, cr2, {3}
    2b20:	2d656e6f 	stclcs	14, cr6, [r5, #-444]!	; 0xfffffe44
    2b24:	69626165 	stmdbvs	r2!, {r0, r2, r5, r6, r8, sp, lr}^
    2b28:	322e392f 	eorcc	r3, lr, #770048	; 0xbc000
    2b2c:	692f312e 	stmdbvs	pc!, {r1, r2, r3, r5, r8, ip, sp}	; <UNPREDICTABLE>
    2b30:	756c636e 	strbvc	r6, [ip, #-878]!	; 0xfffffc92
    2b34:	00006564 	andeq	r6, r0, r4, ror #10
    2b38:	6e727473 	mrcvs	4, 3, r7, cr2, cr3, {3}
    2b3c:	2e706d63 	cdpcs	13, 7, cr6, cr0, cr3, {3}
    2b40:	00010063 	andeq	r0, r1, r3, rrx
    2b44:	69707200 	ldmdbvs	r0!, {r9, ip, sp, lr}^
    2b48:	0200682e 	andeq	r6, r0, #3014656	; 0x2e0000
    2b4c:	74730000 	ldrbtvc	r0, [r3], #-0
    2b50:	66656464 	strbtvs	r6, [r5], -r4, ror #8
    2b54:	0300682e 	movweq	r6, #2094	; 0x82e
    2b58:	05000000 	streq	r0, [r0, #-0]
    2b5c:	02050039 	andeq	r0, r5, #57, 0	; 0x39
    2b60:	0000a580 	andeq	sl, r0, r0, lsl #11
    2b64:	13050515 	movwne	r0, #21781	; 0x5515
    2b68:	060a0513 			; <UNDEFINED> instruction: 0x060a0513
    2b6c:	2f0c052e 	svccs	0x000c052e
    2b70:	052e1305 	streq	r1, [lr, #-773]!	; 0xfffffcfb
    2b74:	09052e0b 	stmdbeq	r5, {r0, r1, r3, r9, sl, fp, sp}
    2b78:	0a054a06 	beq	155398 <__bss_end__+0x14a0a0>
    2b7c:	05010611 	streq	r0, [r1, #-1553]	; 0xfffff9ef
    2b80:	01054e0c 	tsteq	r5, ip, lsl #28
    2b84:	060d052f 	streq	r0, [sp], -pc, lsr #10
    2b88:	061b052b 	ldreq	r0, [fp], -fp, lsr #10
    2b8c:	02022e01 	andeq	r2, r2, #1, 28
    2b90:	8a010100 	bhi	42f98 <__bss_end__+0x37ca0>
    2b94:	03000000 	movweq	r0, #0
    2b98:	00006e00 	andeq	r6, r0, r0, lsl #28
    2b9c:	fb010200 	blx	433a6 <__bss_end__+0x380ae>
    2ba0:	01000d0e 	tsteq	r0, lr, lsl #26
    2ba4:	00010101 	andeq	r0, r1, r1, lsl #2
    2ba8:	00010000 	andeq	r0, r1, r0
    2bac:	2f2e0100 	svccs	0x002e0100
    2bb0:	66617473 			; <UNDEFINED> instruction: 0x66617473
    2bb4:	72732d66 	rsbsvc	r2, r3, #6528	; 0x1980
    2bb8:	552f0063 	strpl	r0, [pc, #-99]!	; 2b5d <__code_start__-0x54a3>
    2bbc:	73726573 	cmnvc	r2, #482344960	; 0x1cc00000
    2bc0:	6c696d2f 	stclvs	13, cr6, [r9], #-188	; 0xffffff44
    2bc4:	532f7365 			; <UNDEFINED> instruction: 0x532f7365
    2bc8:	6372756f 	cmnvs	r2, #465567744	; 0x1bc00000
    2bcc:	73632f65 	cmnvc	r3, #404	; 0x194
    2bd0:	6c303432 	cfldrsvs	mvf3, [r0], #-200	; 0xffffff38
    2bd4:	696c2f78 	stmdbvs	ip!, {r3, r4, r5, r6, r8, r9, sl, fp, sp}^
    2bd8:	2f697062 	svccs	0x00697062
    2bdc:	6c636e69 	stclvs	14, cr6, [r3], #-420	; 0xfffffe5c
    2be0:	00656475 	rsbeq	r6, r5, r5, ror r4
    2be4:	66656400 	strbtvs	r6, [r5], -r0, lsl #8
    2be8:	746c7561 	strbtvc	r7, [ip], #-1377	; 0xfffffa9f
    2bec:	6265722d 	rsbvs	r7, r5, #-805306366	; 0xd0000002
    2bf0:	2d746f6f 	ldclcs	15, cr6, [r4, #-444]!	; 0xfffffe44
    2bf4:	6c6c6163 	stfvse	f6, [ip], #-396	; 0xfffffe74
    2bf8:	2e74756f 	cdpcs	5, 7, cr7, cr4, cr15, {3}
    2bfc:	00010063 	andeq	r0, r1, r3, rrx
    2c00:	69707200 	ldmdbvs	r0!, {r9, ip, sp, lr}^
    2c04:	0200682e 	andeq	r6, r0, #3014656	; 0x2e0000
    2c08:	05000000 	streq	r0, [r0, #-0]
    2c0c:	0205001b 	andeq	r0, r5, #27, 0
    2c10:	0000a5b0 			; <UNDEFINED> instruction: 0x0000a5b0
    2c14:	011c0514 	tsteq	ip, r4, lsl r5
    2c18:	01060105 	tsteq	r6, r5, lsl #2
    2c1c:	01000202 	tsteq	r0, r2, lsl #4
    2c20:	Address 0x0000000000002c20 is out of bounds.


Disassembly of section .debug_str:

00000000 <.debug_str>:
   0:	765f6b63 	ldrbvc	r6, [pc], -r3, ror #22
   4:	6f627265 	svcvs	0x00627265
   8:	705f6573 	subsvc	r6, pc, r3, ror r5	; <UNPREDICTABLE>
   c:	72646800 	rsbvc	r6, r4, #0, 16
  10:	6e00745f 	cfmvsrvs	mvf0, r7
  14:	00747865 	rsbseq	r7, r4, r5, ror #16
  18:	6c616b63 			; <UNDEFINED> instruction: 0x6c616b63
  1c:	00636f6c 	rsbeq	r6, r3, ip, ror #30
  20:	74617473 	strbtvc	r7, [r1], #-1139	; 0xfffffb8d
  24:	696c0065 	stmdbvs	ip!, {r0, r2, r5, r6}^
  28:	6f6e656e 	svcvs	0x006e656e
  2c:	746f6e00 	strbtvc	r6, [pc], #-3584	; 34 <__code_start__-0x7fcc>
  30:	6e69616d 	powvsez	f6, f1, #5.0
  34:	79626e00 	stmdbvc	r2!, {r9, sl, fp, sp, lr}^
  38:	5f736574 	svcpl	0x00736574
  3c:	6f6c6c61 	svcvs	0x006c6c61
  40:	6b630063 	blvs	18c01d4 <__bss_end__+0x18b4edc>
  44:	6165685f 	cmnvs	r5, pc, asr r8
  48:	72655f70 	rsbvc	r5, r5, #112, 30	; 0x1c0
  4c:	73726f72 	cmnvc	r2, #456	; 0x1c8
  50:	6c696600 	stclvs	6, cr6, [r9], #-0
  54:	6e750065 	cdpvs	0, 7, cr0, cr5, cr5, {3}
  58:	6e676973 			; <UNDEFINED> instruction: 0x6e676973
  5c:	63206465 			; <UNDEFINED> instruction: 0x63206465
  60:	00726168 	rsbseq	r6, r2, r8, ror #2
  64:	61656c63 	cmnvs	r5, r3, ror #24
  68:	65725f6e 	ldrbvs	r5, [r2, #-3950]!	; 0xfffff092
  6c:	746f6f62 	strbtvc	r6, [pc], #-3938	; 74 <__code_start__-0x7f8c>
  70:	6f687300 	svcvs	0x00687300
  74:	75207472 	strvc	r7, [r0, #-1138]!	; 0xfffffb8e
  78:	6769736e 	strbvs	r7, [r9, -lr, ror #6]!
  7c:	2064656e 	rsbcs	r6, r4, lr, ror #10
  80:	00746e69 	rsbseq	r6, r4, r9, ror #28
  84:	20554e47 	subscs	r4, r5, r7, asr #28
  88:	20393943 	eorscs	r3, r9, r3, asr #18
  8c:	2e322e39 	mrccs	14, 1, r2, cr2, cr9, {1}
  90:	30322031 	eorscc	r2, r2, r1, lsr r0
  94:	30313931 	eorscc	r3, r1, r1, lsr r9
  98:	28203532 	stmdacs	r0!, {r1, r4, r5, r8, sl, ip, sp}
  9c:	656c6572 	strbvs	r6, [ip, #-1394]!	; 0xfffffa8e
  a0:	29657361 	stmdbcs	r5!, {r0, r5, r6, r8, r9, ip, sp, lr}^
  a4:	52415b20 	subpl	r5, r1, #32, 22	; 0x8000
  a8:	72612f4d 	rsbvc	r2, r1, #308	; 0x134
  ac:	2d392d6d 	ldccs	13, cr2, [r9, #-436]!	; 0xfffffe4c
  b0:	6e617262 	cdpvs	2, 6, cr7, cr1, cr2, {3}
  b4:	72206863 	eorvc	r6, r0, #6488064	; 0x630000
  b8:	73697665 	cmnvc	r9, #105906176	; 0x6500000
  bc:	206e6f69 	rsbcs	r6, lr, r9, ror #30
  c0:	35373732 	ldrcc	r3, [r7, #-1842]!	; 0xfffff8ce
  c4:	205d3939 	subscs	r3, sp, r9, lsr r9
  c8:	70636d2d 	rsbvc	r6, r3, sp, lsr #26
  cc:	72613d75 	rsbvc	r3, r1, #7488	; 0x1d40
  d0:	3731316d 	ldrcc	r3, [r1, -sp, ror #2]!
  d4:	667a6a36 			; <UNDEFINED> instruction: 0x667a6a36
  d8:	2d20732d 	stccs	3, cr7, [r0, #-180]!	; 0xffffff4c
  dc:	6e75746d 	cdpvs	4, 7, cr7, cr5, cr13, {3}
  e0:	72613d65 	rsbvc	r3, r1, #6464	; 0x1940
  e4:	3731316d 	ldrcc	r3, [r1, -sp, ror #2]!
  e8:	667a6a36 			; <UNDEFINED> instruction: 0x667a6a36
  ec:	2d20732d 	stccs	3, cr7, [r0, #-180]!	; 0xffffff4c
  f0:	6b6f706d 	blvs	1bdc2ac <__bss_end__+0x1bd0fb4>
  f4:	75662d65 	strbvc	r2, [r6, #-3429]!	; 0xfffff29b
  f8:	6974636e 	ldmdbvs	r4!, {r1, r2, r3, r5, r6, r8, r9, sp, lr}^
  fc:	6e2d6e6f 	cdpvs	14, 2, cr6, cr13, cr15, {3}
 100:	20656d61 	rsbcs	r6, r5, r1, ror #26
 104:	6c666d2d 	stclvs	13, cr6, [r6], #-180	; 0xffffff4c
 108:	2d74616f 	ldfcse	f6, [r4, #-444]!	; 0xfffffe44
 10c:	3d696261 	sfmcc	f6, 2, [r9, #-388]!	; 0xfffffe7c
 110:	74666f73 	strbtvc	r6, [r6], #-3955	; 0xfffff08d
 114:	616d2d20 	cmnvs	sp, r0, lsr #26
 118:	2d206d72 	stccs	13, cr6, [r0, #-456]!	; 0xfffffe38
 11c:	6372616d 	cmnvs	r2, #1073741851	; 0x4000001b
 120:	72613d68 	rsbvc	r3, r1, #104, 26	; 0x1a00
 124:	6b36766d 	blvs	d9dae0 <__bss_end__+0xd927e8>
 128:	672d207a 			; <UNDEFINED> instruction: 0x672d207a
 12c:	20626467 	rsbcs	r6, r2, r7, ror #8
 130:	20674f2d 	rsbcs	r4, r7, sp, lsr #30
 134:	6474732d 	ldrbtvs	r7, [r4], #-813	; 0xfffffcd3
 138:	756e673d 	strbvc	r6, [lr, #-1853]!	; 0xfffff8c3
 13c:	2d203939 			; <UNDEFINED> instruction: 0x2d203939
 140:	65726666 	ldrbvs	r6, [r2, #-1638]!	; 0xfffff99a
 144:	61747365 	cmnvs	r4, r5, ror #6
 148:	6e69646e 	cdpvs	4, 6, cr6, cr9, cr14, {3}
 14c:	662d2067 	strtvs	r2, [sp], -r7, rrx
 150:	6f2d6f6e 	svcvs	0x002d6f6e
 154:	2d74696d 			; <UNDEFINED> instruction: 0x2d74696d
 158:	6d617266 	sfmvs	f7, 2, [r1, #-408]!	; 0xfffffe68
 15c:	6f702d65 	svcvs	0x00702d65
 160:	65746e69 	ldrbvs	r6, [r4, #-3689]!	; 0xfffff197
 164:	6b630072 	blvs	18c0334 <__bss_end__+0x18b503c>
 168:	7264685f 	rsbvc	r6, r4, #6225920	; 0x5f0000
 16c:	63727300 	cmnvs	r2, #0, 6
 170:	636f6c5f 	cmnvs	pc, #24320	; 0x5f00
 174:	006b6d5f 	rsbeq	r6, fp, pc, asr sp
 178:	6573552f 	ldrbvs	r5, [r3, #-1327]!	; 0xfffffad1
 17c:	6d2f7372 	stcvs	3, cr7, [pc, #-456]!	; ffffffbc <__bss_end__+0xffff4cc4>
 180:	73656c69 	cmnvc	r5, #26880	; 0x6900
 184:	756f532f 	strbvc	r5, [pc, #-815]!	; fffffe5d <__bss_end__+0xffff4b65>
 188:	2f656372 	svccs	0x00656372
 18c:	34327363 	ldrtcc	r7, [r2], #-867	; 0xfffffc9d
 190:	2f786c30 	svccs	0x00786c30
 194:	7362616c 	cmnvc	r2, #27
 198:	642d362f 	strtvs	r3, [sp], #-1583	; 0xfffff9d1
 19c:	67756265 	ldrbvs	r6, [r5, -r5, ror #4]!
 1a0:	6c6c612d 	stfvse	f6, [ip], #-180	; 0xffffff4c
 1a4:	632f636f 			; <UNDEFINED> instruction: 0x632f636f
 1a8:	0065646f 	rsbeq	r6, r5, pc, ror #8
 1ac:	625f6b63 	subsvs	r6, pc, #101376	; 0x18c00
 1b0:	695f6b6c 	ldmdbvs	pc, {r2, r3, r5, r6, r8, r9, fp, sp, lr}^	; <UNPREDICTABLE>
 1b4:	75660064 	strbvc	r0, [r6, #-100]!	; 0xffffff9c
 1b8:	5f00636e 	svcpl	0x0000636e
 1bc:	4e55465f 	mrcmi	6, 2, r4, cr5, cr15, {2}
 1c0:	4f495443 	svcmi	0x00495443
 1c4:	005f5f4e 	subseq	r5, pc, lr, asr #30
 1c8:	736d656d 	cmnvc	sp, #457179136	; 0x1b400000
 1cc:	62007465 	andvs	r7, r0, #1694498816	; 0x65000000
 1d0:	6b636f6c 	blvs	18dbf88 <__bss_end__+0x18d0c90>
 1d4:	0064695f 	rsbeq	r6, r4, pc, asr r9
 1d8:	676e6f6c 	strbvs	r6, [lr, -ip, ror #30]!
 1dc:	6e6f6c20 	cdpvs	12, 6, cr6, cr15, cr0, {1}
 1e0:	6e752067 	cdpvs	0, 7, cr2, cr5, cr7, {3}
 1e4:	6e676973 			; <UNDEFINED> instruction: 0x6e676973
 1e8:	69206465 	stmdbvs	r0!, {r0, r2, r5, r6, sl, sp, lr}
 1ec:	7500746e 	strvc	r7, [r0, #-1134]	; 0xfffffb92
 1f0:	38746e69 	ldmdacc	r4!, {r0, r3, r5, r6, r9, sl, fp, sp, lr}^
 1f4:	6100745f 	tstvs	r0, pc, asr r4
 1f8:	636f6c6c 	cmnvs	pc, #108, 24	; 0x6c00
 1fc:	636f6c5f 	cmnvs	pc, #24320	; 0x5f00
 200:	6e6f6c00 	cdpvs	12, 6, cr6, cr15, cr0, {0}
 204:	6f6c2067 	svcvs	0x006c2067
 208:	6920676e 	stmdbvs	r0!, {r1, r2, r3, r5, r6, r8, r9, sl, sp, lr}
 20c:	7200746e 	andvc	r7, r0, #1845493760	; 0x6e000000
 210:	705f6970 	subsvc	r6, pc, r0, ror r9	; <UNPREDICTABLE>
 214:	68637475 	stmdavs	r3!, {r0, r2, r4, r5, r6, sl, ip, sp, lr}^
 218:	63007261 	movwvs	r7, #609	; 0x261
 21c:	6572666b 	ldrbvs	r6, [r2, #-1643]!	; 0xfffff995
 220:	68730065 	ldmdavs	r3!, {r0, r2, r5, r6}^
 224:	2074726f 	rsbscs	r7, r4, pc, ror #4
 228:	00746e69 	rsbseq	r6, r4, r9, ror #28
 22c:	5f637273 	svcpl	0x00637273
 230:	5f636f6c 	svcpl	0x00636f6c
 234:	69750074 	ldmdbvs	r5!, {r2, r4, r5, r6}^
 238:	3631746e 	ldrtcc	r7, [r1], -lr, ror #8
 23c:	7400745f 	strvc	r7, [r0], #-1119	; 0xfffffba1
 240:	73747365 	cmnvc	r4, #-1811939327	; 0x94000001
 244:	302e322d 	eorcc	r3, lr, sp, lsr #4
 248:	7261702f 	rsbvc	r7, r1, #47, 0	; 0x2f
 24c:	742d3174 	strtvc	r3, [sp], #-372	; 0xfffffe8c
 250:	31747365 	cmncc	r4, r5, ror #6
 254:	2d6f6e2d 	stclcs	14, cr6, [pc, #-180]!	; 1a8 <__code_start__-0x7e58>
 258:	2e677562 	cdpcs	5, 6, cr7, cr7, cr2, {3}
 25c:	72660063 	rsbvc	r0, r6, #99, 0	; 0x63
 260:	6c5f6565 	cfldr64vs	mvdx6, [pc], {101}	; 0x65
 264:	7500636f 	strvc	r6, [r0, #-879]	; 0xfffffc91
 268:	33746e69 	cmncc	r4, #1680	; 0x690
 26c:	00745f32 	rsbseq	r5, r4, r2, lsr pc
 270:	73666572 	cmnvc	r6, #478150656	; 0x1c800000
 274:	6174735f 	cmnvs	r4, pc, asr r3
 278:	72007472 	andvc	r7, r0, #1912602624	; 0x72000000
 27c:	5f736665 	svcpl	0x00736665
 280:	6464696d 	strbtvs	r6, [r4], #-2413	; 0xfffff693
 284:	6300656c 	movwvs	r6, #1388	; 0x56c
 288:	74705f6b 	ldrbtvc	r5, [r0], #-3947	; 0xfffff095
 28c:	6e695f72 	mcrvs	15, 3, r5, cr9, cr2, {3}
 290:	6f6c625f 	svcvs	0x006c625f
 294:	46006b63 	strmi	r6, [r0], -r3, ror #22
 298:	44454552 	strbmi	r4, [r5], #-1362	; 0xfffffaae
 29c:	44455200 	strbmi	r5, [r5], #-512	; 0xfffffe00
 2a0:	454e4f5a 	strbmi	r4, [lr, #-3930]	; 0xfffff0a6
 2a4:	4c41565f 	mcrrmi	6, 5, r5, r1, cr15
 2a8:	44455200 	strbmi	r5, [r5], #-512	; 0xfffffe00
 2ac:	454e4f5a 	strbmi	r4, [lr, #-3930]	; 0xfffff0a6
 2b0:	59424e5f 	stmdbpl	r2, {r0, r1, r2, r3, r4, r6, r9, sl, fp, lr}^
 2b4:	00534554 	subseq	r4, r3, r4, asr r5
 2b8:	665f6b63 	ldrbvs	r6, [pc], -r3, ror #22
 2bc:	74737269 	ldrbtvc	r7, [r3], #-617	; 0xfffffd97
 2c0:	7264685f 	rsbvc	r6, r4, #6225920	; 0x5f0000
 2c4:	63616200 	cmnvs	r1, #0, 4
 2c8:	6172746b 	cmnvs	r2, fp, ror #8
 2cc:	61006563 	tstvs	r0, r3, ror #10
 2d0:	636f6c6c 	cmnvs	pc, #108, 24	; 0x6c00
 2d4:	73696c5f 	cmnvc	r9, #24320	; 0x5f00
 2d8:	6b630074 	blvs	18c04b0 <__bss_end__+0x18b51b8>
 2dc:	7274705f 	rsbsvc	r7, r4, #95, 0	; 0x5f
 2e0:	5f73695f 	svcpl	0x0073695f
 2e4:	6f6c6c61 	svcvs	0x006c6c61
 2e8:	00646563 	rsbeq	r6, r4, r3, ror #10
 2ec:	6e5f6b63 	vnmlavs.f64	d22, d15, d19
 2f0:	5f747865 	svcpl	0x00747865
 2f4:	00726468 	rsbseq	r6, r2, r8, ror #8
 2f8:	6c616b63 			; <UNDEFINED> instruction: 0x6c616b63
 2fc:	2e636f6c 	cdpcs	15, 6, cr6, cr3, cr12, {3}
 300:	4c410063 	mcrrmi	0, 6, r0, r1, cr3
 304:	45434f4c 	strbmi	r4, [r3, #-3916]	; 0xfffff0b4
 308:	6b630044 	blvs	18c0420 <__bss_end__+0x18b5128>
 30c:	7264685f 	rsbvc	r6, r4, #6225920	; 0x5f0000
 310:	6174735f 	cmnvs	r4, pc, asr r3
 314:	63007472 	movwvs	r7, #1138	; 0x472
 318:	64685f6b 	strbtvs	r5, [r8], #-3947	; 0xfffff095
 31c:	6e655f72 	mcrvs	15, 3, r5, cr5, cr2, {3}
 320:	6b630064 	blvs	18c04b8 <__bss_end__+0x18b51c0>
 324:	79626e5f 	stmdbvc	r2!, {r0, r1, r2, r3, r4, r6, r9, sl, fp, sp, lr}^
 328:	00736574 	rsbseq	r6, r3, r4, ror r5
 32c:	6d5f726b 	lfmvs	f7, 2, [pc, #-428]	; 188 <__code_start__-0x7e78>
 330:	6f6c6c61 	svcvs	0x006c6c61
 334:	65680063 	strbvs	r0, [r8, #-99]!	; 0xffffff9d
 338:	72656461 	rsbvc	r6, r5, #1627389952	; 0x61000000
 33c:	65727000 	ldrbvs	r7, [r2, #-0]!
 340:	61007076 	tstvs	r0, r6, ror r0
 344:	6e67696c 	vnmulvs.f16	s13, s14, s25	; <UNPREDICTABLE>
 348:	5f726b00 	svcpl	0x00726b00
 34c:	65657266 	strbvs	r7, [r5, #-614]!	; 0xfffffd9a
 350:	65726600 	ldrbvs	r6, [r2, #-1536]!	; 0xfffffa00
 354:	6e007065 	cdpvs	0, 0, cr7, cr0, cr5, {3}
 358:	74696e75 	strbtvc	r6, [r9], #-3701	; 0xfffff18b
 35c:	726b0073 	rsbvc	r0, fp, #115, 0	; 0x73
 360:	6c616d2d 	stclvs	13, cr6, [r1], #-180	; 0xffffff4c
 364:	2e636f6c 	cdpcs	15, 6, cr6, cr3, cr12, {3}
 368:	6f640063 	svcvs	0x00640063
 36c:	656c6275 	strbvs	r6, [ip, #-629]!	; 0xfffffd8b
 370:	73616200 	cmnvc	r1, #0, 4
 374:	62730065 	rsbsvs	r0, r3, #101, 0	; 0x65
 378:	6d006b72 	vstrvs	d6, [r0, #-456]	; 0xfffffe38
 37c:	6365726f 	cmnvs	r5, #-268435450	; 0xf0000006
 380:	0065726f 	rsbeq	r7, r5, pc, ror #4
 384:	657a6973 	ldrbvs	r6, [sl, #-2419]!	; 0xfffff68d
 388:	61654800 	cmnvs	r5, r0, lsl #16
 38c:	00726564 	rsbseq	r6, r2, r4, ror #10
 390:	63617473 	cmnvs	r1, #1929379840	; 0x73000000
 394:	6f745f6b 	svcvs	0x00745f6b
 398:	616d0070 	smcvs	53248	; 0xd000
 39c:	615f6b72 	cmpvs	pc, r2, ror fp	; <UNPREDICTABLE>
 3a0:	69006c6c 	stmdbvs	r0, {r2, r3, r5, r6, sl, fp, sp, lr}
 3a4:	656c706d 	strbvs	r7, [ip, #-109]!	; 0xffffff93
 3a8:	746e656d 	strbtvc	r6, [lr], #-1389	; 0xfffffa93
 3ac:	6968745f 	stmdbvs	r8!, {r0, r1, r2, r3, r4, r6, sl, ip, sp, lr}^
 3b0:	5f5f0073 	svcpl	0x005f0073
 3b4:	5f737362 	svcpl	0x00737362
 3b8:	72617473 	rsbvc	r7, r1, #1929379840	; 0x73000000
 3bc:	005f5f74 	subseq	r5, pc, r4, ror pc	; <UNPREDICTABLE>
 3c0:	6f6c626e 	svcvs	0x006c626e
 3c4:	00736b63 	rsbseq	r6, r3, r3, ror #22
 3c8:	74696e69 	strbtvc	r6, [r9], #-3689	; 0xfffff197
 3cc:	6e00705f 	mcrvs	0, 0, r7, cr0, cr15, {2}
 3d0:	65747962 	ldrbvs	r7, [r4, #-2402]!	; 0xfffff69e
 3d4:	72665f73 	rsbvc	r5, r6, #460	; 0x1cc
 3d8:	00646565 	rsbeq	r6, r4, r5, ror #10
 3dc:	5f646c6f 	svcpl	0x00646c6f
 3e0:	6b72616d 	blvs	1c9899c <__bss_end__+0x1c8d6a4>
 3e4:	636e6900 	cmnvs	lr, #0, 18
 3e8:	656d6572 	strbvs	r6, [sp, #-1394]!	; 0xfffffa8e
 3ec:	6300746e 	movwvs	r7, #1134	; 0x46e
 3f0:	69665f6b 	stmdbvs	r6!, {r0, r1, r3, r5, r6, r8, r9, sl, fp, ip, lr}^
 3f4:	6c5f646e 	cfldrdvs	mvd6, [pc], {110}	; 0x6e
 3f8:	736b6165 	cmnvc	fp, #1073741849	; 0x40000019
 3fc:	79616d00 	stmdbvc	r1!, {r8, sl, fp, sp, lr}^
 400:	655f6562 	ldrbvs	r6, [pc, #-1378]	; fffffea6 <__bss_end__+0xffff4bae>
 404:	726f7272 	rsbvc	r7, pc, #536870919	; 0x20000007
 408:	6b630073 	blvs	18c05dc <__bss_end__+0x18b52e4>
 40c:	0063675f 	rsbeq	r6, r3, pc, asr r7
 410:	61645f5f 	cmnvs	r4, pc, asr pc
 414:	655f6174 	ldrbvs	r6, [pc, #-372]	; 2a8 <__code_start__-0x7d58>
 418:	5f5f646e 	svcpl	0x005f646e
 41c:	6d756400 	cfldrdvs	mvd6, [r5, #-0]
 420:	65725f70 	ldrbvs	r5, [r2, #-3952]!	; 0xfffff090
 424:	6e007367 	cdpvs	3, 0, cr7, cr0, cr7, {3}
 428:	6b61656c 	blvs	18599e0 <__bss_end__+0x184e6e8>
 42c:	72650073 	rsbvc	r0, r5, #115, 0	; 0x73
 430:	73726f72 	cmnvc	r2, #456	; 0x1c8
 434:	6968745f 	stmdbvs	r8!, {r0, r1, r2, r3, r4, r6, sl, ip, sp, lr}^
 438:	6c625f73 	stclvs	15, cr5, [r2], #-460	; 0xfffffe34
 43c:	006b636f 	rsbeq	r6, fp, pc, ror #6
 440:	705f7369 	subsvc	r7, pc, r9, ror #6
 444:	6e007274 	mcrvs	2, 0, r7, cr0, cr4, {3}
 448:	65657266 	strbvs	r7, [r5, #-614]!	; 0xfffffd9a
 44c:	68630064 	stmdavs	r3!, {r2, r5, r6}^
 450:	5f6b6365 	svcpl	0x006b6365
 454:	6c5f6f6e 	mrrcvs	15, 6, r6, pc, cr14	; <UNPREDICTABLE>
 458:	006b6165 	rsbeq	r6, fp, r5, ror #2
 45c:	685f6e69 	ldmdavs	pc, {r0, r3, r5, r6, r9, sl, fp, sp, lr}^	; <UNPREDICTABLE>
 460:	00706165 	rsbseq	r6, r0, r5, ror #2
 464:	6d656e6f 	stclvs	14, cr6, [r5, #-444]!	; 0xfffffe44
 468:	6b630062 	blvs	18c05f8 <__bss_end__+0x18b5300>
 46c:	2e63672d 	cdpcs	7, 6, cr6, cr3, cr13, {1}
 470:	68630063 	stmdavs	r3!, {r0, r1, r5, r6}^
 474:	5f6b6365 	svcpl	0x006b6365
 478:	756f6873 	strbvc	r6, [pc, #-2163]!	; fffffc0d <__bss_end__+0xffff4915>
 47c:	6c5f646c 	cfldrdvs	mvd6, [pc], {108}	; 0x6c
 480:	006b6165 	rsbeq	r6, fp, r5, ror #2
 484:	73625f5f 	cmnvc	r2, #380	; 0x17c
 488:	6e655f73 	mcrvs	15, 3, r5, cr5, cr3, {3}
 48c:	005f5f64 	subseq	r5, pc, r4, ror #30
 490:	7a646572 	bvc	1919a60 <__bss_end__+0x190e768>
 494:	5f656e6f 	svcpl	0x00656e6f
 498:	6f727265 	svcvs	0x00727265
 49c:	72007372 	andvc	r7, r0, #-939524095	; 0xc8000001
 4a0:	6f7a6465 	svcvs	0x007a6465
 4a4:	6b00656e 	blvs	19a64 <__bss_end__+0xe76c>
 4a8:	6c6c616d 	stfvse	f6, [ip], #-436	; 0xfffffe4c
 4ac:	6b00636f 	blvs	19270 <__bss_end__+0xdf78>
 4b0:	6c6c616d 	stfvse	f6, [ip], #-436	; 0xfffffe4c
 4b4:	695f636f 	ldmdbvs	pc, {r0, r1, r2, r3, r5, r6, r8, r9, sp, lr}^	; <UNPREDICTABLE>
 4b8:	5f74696e 	svcpl	0x0074696e
 4bc:	5f746573 	svcpl	0x00746573
 4c0:	72617473 	rsbvc	r7, r1, #1929379840	; 0x73000000
 4c4:	77730074 			; <UNDEFINED> instruction: 0x77730074
 4c8:	5f706565 	svcpl	0x00706565
 4cc:	6b61656c 	blvs	1859a84 <__bss_end__+0x184e78c>
 4d0:	645f5f00 	ldrbvs	r5, [pc], #-3840	; 4d8 <__code_start__-0x7b28>
 4d4:	5f617461 	svcpl	0x00617461
 4d8:	72617473 	rsbvc	r7, r1, #1929379840	; 0x73000000
 4dc:	005f5f74 	subseq	r5, pc, r4, ror pc	; <UNPREDICTABLE>
 4e0:	65657773 	strbvs	r7, [r5, #-1907]!	; 0xfffff88d
 4e4:	72665f70 	rsbvc	r5, r6, #112, 30	; 0x1c0
 4e8:	77006565 	strvc	r6, [r0, -r5, ror #10]
 4ec:	5f6e7261 	svcpl	0x006e7261
 4f0:	735f6f6e 	cmpvc	pc, #440	; 0x1b8
 4f4:	74726174 	ldrbtvc	r6, [r2], #-372	; 0xfffffe8c
 4f8:	6665725f 			; <UNDEFINED> instruction: 0x6665725f
 4fc:	7400705f 	strvc	r7, [r0], #-95	; 0xffffffa1
 500:	6c61746f 	cfstrdvs	mvd7, [r1], #-444	; 0xfffffe44
 504:	726f7700 	rsbvc	r7, pc, #0, 14
 508:	616e0064 	cmnvs	lr, r4, rrx
 50c:	6c5f656d 	cfldr64vs	mvdx6, [pc], {109}	; 0x6d
 510:	47006e65 	strmi	r6, [r0, -r5, ror #28]
 514:	4320554e 			; <UNDEFINED> instruction: 0x4320554e
 518:	39203939 	stmdbcc	r0!, {r0, r3, r4, r5, r8, fp, ip, sp}
 51c:	312e322e 			; <UNDEFINED> instruction: 0x312e322e
 520:	31303220 	teqcc	r0, r0, lsr #4
 524:	32303139 	eorscc	r3, r0, #1073741838	; 0x4000000e
 528:	72282035 	eorvc	r2, r8, #53, 0	; 0x35
 52c:	61656c65 	cmnvs	r5, r5, ror #24
 530:	20296573 	eorcs	r6, r9, r3, ror r5
 534:	4d52415b 	ldfmie	f4, [r2, #-364]	; 0xfffffe94
 538:	6d72612f 	ldfvse	f6, [r2, #-188]!	; 0xffffff44
 53c:	622d392d 	eorvs	r3, sp, #737280	; 0xb4000
 540:	636e6172 	cmnvs	lr, #-2147483620	; 0x8000001c
 544:	65722068 	ldrbvs	r2, [r2, #-104]!	; 0xffffff98
 548:	69736976 	ldmdbvs	r3!, {r1, r2, r4, r5, r6, r8, fp, sp, lr}^
 54c:	32206e6f 	eorcc	r6, r0, #1776	; 0x6f0
 550:	39353737 	ldmdbcc	r5!, {r0, r1, r2, r4, r5, r8, r9, sl, ip, sp}
 554:	2d205d39 	stccs	13, cr5, [r0, #-228]!	; 0xffffff1c
 558:	7570636d 	ldrbvc	r6, [r0, #-877]!	; 0xfffffc93
 55c:	6d72613d 	ldfvse	f6, [r2, #-244]!	; 0xffffff0c
 560:	36373131 			; <UNDEFINED> instruction: 0x36373131
 564:	2d667a6a 	vstmdbcs	r6!, {s15-s120}
 568:	6d2d2073 	stcvs	0, cr2, [sp, #-460]!	; 0xfffffe34
 56c:	656e7574 	strbvs	r7, [lr, #-1396]!	; 0xfffffa8c
 570:	6d72613d 	ldfvse	f6, [r2, #-244]!	; 0xffffff0c
 574:	36373131 			; <UNDEFINED> instruction: 0x36373131
 578:	2d667a6a 	vstmdbcs	r6!, {s15-s120}
 57c:	6d2d2073 	stcvs	0, cr2, [sp, #-460]!	; 0xfffffe34
 580:	616f6c66 	cmnvs	pc, r6, ror #24
 584:	62612d74 	rsbvs	r2, r1, #116, 26	; 0x1d00
 588:	6f733d69 	svcvs	0x00733d69
 58c:	2d207466 	cfstrscs	mvf7, [r0, #-408]!	; 0xfffffe68
 590:	6d72616d 	ldfvse	f6, [r2, #-436]!	; 0xfffffe4c
 594:	616d2d20 	cmnvs	sp, r0, lsr #26
 598:	3d686372 	stclcc	3, cr6, [r8, #-456]!	; 0xfffffe38
 59c:	766d7261 	strbtvc	r7, [sp], -r1, ror #4
 5a0:	207a6b36 	rsbscs	r6, sl, r6, lsr fp
 5a4:	6467672d 	strbtvs	r6, [r7], #-1837	; 0xfffff8d3
 5a8:	4f2d2062 	svcmi	0x002d2062
 5ac:	74736166 	ldrbtvc	r6, [r3], #-358	; 0xfffffe9a
 5b0:	74732d20 	ldrbtvc	r2, [r3], #-3360	; 0xfffff2e0
 5b4:	6e673d64 	cdpvs	13, 6, cr3, cr7, cr4, {3}
 5b8:	20393975 	eorscs	r3, r9, r5, ror r9
 5bc:	7266662d 	rsbvc	r6, r6, #47185920	; 0x2d00000
 5c0:	74736565 	ldrbtvc	r6, [r3], #-1381	; 0xfffffa9b
 5c4:	69646e61 	stmdbvs	r4!, {r0, r5, r6, r9, sl, fp, sp, lr}^
 5c8:	6600676e 	strvs	r6, [r0], -lr, ror #14
 5cc:	74735f6e 	ldrbtvc	r5, [r3], #-3950	; 0xfffff092
 5d0:	5f747261 	svcpl	0x00747261
 5d4:	72646461 	rsbvc	r6, r4, #1627389952	; 0x61000000
 5d8:	73552f00 	cmpvc	r5, #0, 30
 5dc:	2f737265 	svccs	0x00737265
 5e0:	656c696d 	strbvs	r6, [ip, #-2413]!	; 0xfffff693
 5e4:	6f532f73 	svcvs	0x00532f73
 5e8:	65637275 	strbvs	r7, [r3, #-629]!	; 0xfffffd8b
 5ec:	3273632f 	rsbscc	r6, r3, #-1140850688	; 0xbc000000
 5f0:	786c3034 	stmdavc	ip!, {r2, r4, r5, ip, sp}^
 5f4:	62696c2f 	rsbvs	r6, r9, #12032	; 0x2f00
 5f8:	2e006970 			; <UNDEFINED> instruction: 0x2e006970
 5fc:	6372732f 	cmnvs	r2, #-1140850688	; 0xbc000000
 600:	6361622f 	cmnvs	r1, #-268435454	; 0xf0000002
 604:	6172746b 	cmnvs	r2, fp, ror #8
 608:	632e6563 			; <UNDEFINED> instruction: 0x632e6563
 60c:	72756300 	rsbsvc	r6, r5, #0, 6
 610:	0070665f 	rsbseq	r6, r0, pc, asr r6
 614:	656d616e 	strbvs	r6, [sp, #-366]!	; 0xfffffe92
 618:	00666f5f 	rsbeq	r6, r6, pc, asr pc
 61c:	657a6973 	ldrbvs	r6, [sl, #-2419]!	; 0xfffff68d
 620:	2e00745f 	cfmvsrcs	mvf0, r7
 624:	62696c2f 	rsbvs	r6, r9, #12032	; 0x2f00
 628:	656d2f63 	strbvs	r2, [sp, #-3939]!	; 0xfffff09d
 62c:	7465736d 	strbtvc	r7, [r5], #-877	; 0xfffffc93
 630:	6100632e 	tstvs	r0, lr, lsr #6
 634:	00736772 	rsbseq	r6, r3, r2, ror r7
 638:	705f6176 	subsvc	r6, pc, r6, ror r1	; <UNPREDICTABLE>
 63c:	746e6972 	strbtvc	r6, [lr], #-2418	; 0xfffff68e
 640:	5f5f006b 	svcpl	0x005f006b
 644:	63756e67 	cmnvs	r5, #1648	; 0x670
 648:	5f61765f 	svcpl	0x0061765f
 64c:	7473696c 	ldrbtvc	r6, [r3], #-2412	; 0xfffff694
 650:	615f5f00 	cmpvs	pc, r0, lsl #30
 654:	2f2e0070 	svccs	0x002e0070
 658:	6362696c 	cmnvs	r2, #108, 18	; 0x1b0000
 65c:	6972702f 	ldmdbvs	r2!, {r0, r1, r2, r3, r5, ip, sp, lr}^
 660:	2e6b746e 	cdpcs	4, 6, cr7, cr11, cr14, {3}
 664:	5f5f0063 	svcpl	0x005f0063
 668:	6c5f6176 	ldfvse	f6, [pc], {118}	; 0x76
 66c:	00747369 	rsbseq	r7, r4, r9, ror #6
 670:	65746e69 	ldrbvs	r6, [r4, #-3689]!	; 0xfffff197
 674:	6c616e72 	stclvs	14, cr6, [r1], #-456	; 0xfffffe38
 678:	7475705f 	ldrbtvc	r7, [r5], #-95	; 0xffffffa1
 67c:	2f2e006b 	svccs	0x002e006b
 680:	6362696c 	cmnvs	r2, #108, 18	; 0x1b0000
 684:	7475702f 	ldrbtvc	r7, [r5], #-47	; 0xffffffd1
 688:	00632e6b 	rsbeq	r2, r3, fp, ror #28
 68c:	69647369 	stmdbvs	r4!, {r0, r3, r5, r6, r8, r9, ip, sp, lr}^
 690:	00746967 	rsbseq	r6, r4, r7, ror #18
 694:	746e6975 	strbtvc	r6, [lr], #-2421	; 0xfffff68b
 698:	745f3436 	ldrbvc	r3, [pc], #-1078	; 6a0 <__code_start__-0x7960>
 69c:	6c2f2e00 	stcvs	14, cr2, [pc], #-0	; 6a4 <__code_start__-0x795c>
 6a0:	2f636269 	svccs	0x00636269
 6a4:	702d6176 	eorvc	r6, sp, r6, ror r1
 6a8:	746e6972 	strbtvc	r6, [lr], #-2418	; 0xfffff68e
 6ac:	00632e6b 	rsbeq	r2, r3, fp, ror #28
 6b0:	6f635f5f 	svcvs	0x00635f5f
 6b4:	735f6564 	cmpvc	pc, #100, 10	; 0x19000000
 6b8:	74726174 	ldrbtvc	r6, [r2], #-372	; 0xfffffe8c
 6bc:	77005f5f 	smlsdvc	r0, pc, pc, r5	; <UNPREDICTABLE>
 6c0:	68746469 	ldmdavs	r4!, {r0, r3, r5, r6, sl, sp, lr}^
 6c4:	74757000 	ldrbtvc	r7, [r5], #-0
 6c8:	70665f63 	rsbvc	r5, r6, r3, ror #30
 6cc:	685f5f00 	ldmdavs	pc, {r8, r9, sl, fp, ip, lr}^	; <UNPREDICTABLE>
 6d0:	5f706165 	svcpl	0x00706165
 6d4:	72617473 	rsbvc	r7, r1, #1929379840	; 0x73000000
 6d8:	005f5f74 	subseq	r5, pc, r4, ror pc	; <UNPREDICTABLE>
 6dc:	5f697072 	svcpl	0x00697072
 6e0:	5f746573 	svcpl	0x00746573
 6e4:	7074756f 	rsbsvc	r7, r4, pc, ror #10
 6e8:	66007475 			; <UNDEFINED> instruction: 0x66007475
 6ec:	735f746d 	cmpvc	pc, #1828716544	; 0x6d000000
 6f0:	74726174 	ldrbtvc	r6, [r2], #-372	; 0xfffffe8c
 6f4:	72747300 	rsbsvc	r7, r4, #0, 6
 6f8:	00746163 	rsbseq	r6, r4, r3, ror #2
 6fc:	63727473 	cmnvs	r2, #1929379840	; 0x73000000
 700:	6e007970 			; <UNDEFINED> instruction: 0x6e007970
 704:	705f6765 	subsvc	r6, pc, r5, ror #14
 708:	635f5f00 	cmpvs	pc, #0, 30
 70c:	5f65646f 	svcpl	0x0065646f
 710:	5f646e65 	svcpl	0x00646e65
 714:	6d65005f 	stclvs	0, cr0, [r5, #-380]!	; 0xfffffe84
 718:	72007469 	andvc	r7, r0, #1761607680	; 0x69000000
 71c:	72657665 	rsbvc	r7, r5, #105906176	; 0x6500000
 720:	73006573 	movwvc	r6, #1395	; 0x573
 724:	6d637274 	sfmvs	f7, 2, [r3, #-464]!	; 0xfffffe30
 728:	75700070 	ldrbvc	r0, [r0, #-112]!	; 0xffffff90
 72c:	665f7374 			; <UNDEFINED> instruction: 0x665f7374
 730:	5f5f0070 	svcpl	0x005f0070
 734:	676f7270 			; <UNDEFINED> instruction: 0x676f7270
 738:	646e655f 	strbtvs	r6, [lr], #-1375	; 0xfffffaa1
 73c:	6e005f5f 	mcrvs	15, 0, r5, cr0, cr15, {2}
 740:	00316d75 	eorseq	r6, r1, r5, ror sp
 744:	6e727473 	mrcvs	4, 3, r7, cr2, cr3, {3}
 748:	00706d63 	rsbseq	r6, r0, r3, ror #26
 74c:	6e676973 			; <UNDEFINED> instruction: 0x6e676973
 750:	705f6465 	subsvc	r6, pc, r5, ror #8
 754:	69707200 	ldmdbvs	r0!, {r9, ip, sp, lr}^
 758:	6265725f 	rsbvs	r7, r5, #-268435451	; 0xf0000005
 75c:	00746f6f 	rsbseq	r6, r4, pc, ror #30
 760:	616c6564 	cmnvs	ip, r4, ror #10
 764:	736d5f79 	cmnvc	sp, #484	; 0x1e4
 768:	732f2e00 			; <UNDEFINED> instruction: 0x732f2e00
 76c:	66666174 			; <UNDEFINED> instruction: 0x66666174
 770:	6372732d 	cmnvs	r2, #-1275068416	; 0xb4000000
 774:	656c632f 	strbvs	r6, [ip, #-815]!	; 0xfffffcd1
 778:	722d6e61 	eorvc	r6, sp, #1552	; 0x610
 77c:	6f6f6265 	svcvs	0x006f6265
 780:	00632e74 	rsbeq	r2, r3, r4, ror lr
 784:	74726175 	ldrbtvc	r6, [r2], #-373	; 0xfffffe8b
 788:	756c665f 	strbvc	r6, [ip, #-1631]!	; 0xfffff9a1
 78c:	745f6873 	ldrbvc	r6, [pc], #-2163	; 794 <__code_start__-0x786c>
 790:	635f0078 	cmpvs	pc, #120, 0	; 0x78
 794:	72617473 	rsbvc	r7, r1, #1929379840	; 0x73000000
 798:	73620074 	cmnvc	r2, #116, 0	; 0x74
 79c:	6e655f73 	mcrvs	15, 3, r5, cr5, cr3, {3}
 7a0:	61750064 	cmnvs	r5, r4, rrx
 7a4:	695f7472 	ldmdbvs	pc, {r1, r4, r5, r6, sl, ip, sp, lr}^	; <UNPREDICTABLE>
 7a8:	0074696e 	rsbseq	r6, r4, lr, ror #18
 7ac:	74737563 	ldrbtvc	r7, [r3], #-1379	; 0xfffffa9d
 7b0:	6c5f6d6f 	mrrcvs	13, 6, r6, pc, cr15	; <UNPREDICTABLE>
 7b4:	6564616f 	strbvs	r6, [r4, #-367]!	; 0xfffffe91
 7b8:	2f2e0072 	svccs	0x002e0072
 7bc:	66617473 			; <UNDEFINED> instruction: 0x66617473
 7c0:	72732d66 	rsbsvc	r2, r3, #6528	; 0x1980
 7c4:	73632f63 	cmnvc	r3, #396	; 0x18c
 7c8:	74726174 	ldrbtvc	r6, [r2], #-372	; 0xfffffe8c
 7cc:	2e00632e 	cdpcs	3, 0, cr6, cr0, cr14, {1}
 7d0:	6174732f 	cmnvs	r4, pc, lsr #6
 7d4:	732d6666 			; <UNDEFINED> instruction: 0x732d6666
 7d8:	632f6372 			; <UNDEFINED> instruction: 0x632f6372
 7dc:	6f747375 	svcvs	0x00747375
 7e0:	6f6c2d6d 	svcvs	0x006c2d6d
 7e4:	72656461 	rsbvc	r6, r5, #1627389952	; 0x61000000
 7e8:	7200632e 	andvc	r6, r0, #-1207959552	; 0xb8000000
 7ec:	6f6f6265 	svcvs	0x006f6265
 7f0:	61635f74 	smcvs	13812	; 0x35f4
 7f4:	756f6c6c 	strbvc	r6, [pc, #-3180]!	; fffffb90 <__bss_end__+0xffff4898>
 7f8:	4d500074 	ldclmi	0, cr0, [r0, #-464]	; 0xfffffe30
 7fc:	4f44575f 	svcmi	0x0044575f
 800:	55500047 	ldrbpl	r0, [r0, #-71]	; 0xffffffb9
 804:	00323354 	eorseq	r3, r2, r4, asr r3
 808:	5f746573 	svcpl	0x00746573
 80c:	72657375 	rsbvc	r7, r5, #-738197503	; 0xd4000001
 810:	76656c5f 			; <UNDEFINED> instruction: 0x76656c5f
 814:	2e006c65 	cdpcs	12, 0, cr6, cr0, cr5, {3}
 818:	6174732f 	cmnvs	r4, pc, lsr #6
 81c:	732d6666 			; <UNDEFINED> instruction: 0x732d6666
 820:	722f6372 	eorvc	r6, pc, #-939524095	; 0xc8000001
 824:	6f6f6265 	svcvs	0x006f6265
 828:	00632e74 	rsbeq	r2, r3, r4, ror lr
 82c:	505f4d50 	subspl	r4, pc, r0, asr sp	; <UNPREDICTABLE>
 830:	57535341 	ldrbpl	r5, [r3, -r1, asr #6]
 834:	0044524f 	subeq	r5, r4, pc, asr #4
 838:	755f7461 	ldrbvc	r7, [pc, #-1121]	; 3df <__code_start__-0x7c21>
 83c:	5f726573 	svcpl	0x00726573
 840:	6576656c 	ldrbvs	r6, [r6, #-1388]!	; 0xfffffa94
 844:	4d50006c 	ldclmi	0, cr0, [r0, #-432]	; 0xfffffe50
 848:	5453525f 	ldrbpl	r5, [r3], #-607	; 0xfffffda1
 84c:	52575f43 	subspl	r5, r7, #268	; 0x10c
 850:	5f474643 	svcpl	0x00474643
 854:	4c4c5546 	cfstr64mi	mvdx5, [ip], {70}	; 0x46
 858:	5345525f 	movtpl	r5, #21087	; 0x525f
 85c:	50005445 	andpl	r5, r0, r5, asr #8
 860:	53525f4d 	cmppl	r2, #308	; 0x134
 864:	63004354 	movwvs	r4, #852	; 0x354
 868:	00727370 	rsbseq	r7, r2, r0, ror r3
 86c:	5f766564 	svcpl	0x00766564
 870:	72726162 	rsbsvc	r6, r2, #-2147483624	; 0x80000018
 874:	00726569 	rsbseq	r6, r2, r9, ror #10
 878:	616c6564 	cmnvs	ip, r4, ror #10
 87c:	65735f79 	ldrbvs	r5, [r3, #-3961]!	; 0xfffff087
 880:	2f2e0063 	svccs	0x002e0063
 884:	66617473 			; <UNDEFINED> instruction: 0x66617473
 888:	72732d66 	rsbsvc	r2, r3, #6528	; 0x1980
 88c:	69742f63 	ldmdbvs	r4!, {r0, r1, r5, r6, r8, r9, sl, fp, sp}^
 890:	2e72656d 	cdpcs	5, 7, cr6, cr2, cr13, {3}
 894:	45470063 	strbmi	r0, [r7, #-99]	; 0xffffff9d
 898:	00323354 	eorseq	r3, r2, r4, asr r3
 89c:	656d6974 	strbvs	r6, [sp, #-2420]!	; 0xfffff68c
 8a0:	65675f72 	strbvs	r5, [r7, #-3954]!	; 0xfffff08e
 8a4:	73755f74 	cmnvc	r5, #116, 30	; 0x1d0
 8a8:	64006365 	strvs	r6, [r0], #-869	; 0xfffffc9b
 8ac:	79616c65 	stmdbvc	r1!, {r0, r2, r5, r6, sl, fp, sp, lr}^
 8b0:	0073755f 	rsbseq	r7, r3, pc, asr r5
 8b4:	656d6974 	strbvs	r6, [sp, #-2420]!	; 0xfffff68c
 8b8:	65675f72 	strbvs	r5, [r7, #-3954]!	; 0xfffff08e
 8bc:	73755f74 	cmnvc	r5, #116, 30	; 0x1d0
 8c0:	725f6365 	subsvc	r6, pc, #-1811939327	; 0x94000001
 8c4:	70007761 	andvc	r7, r0, r1, ror #14
 8c8:	32337475 	eorscc	r7, r3, #1962934272	; 0x75000000
 8cc:	75616200 	strbvc	r6, [r1, #-512]!	; 0xfffffe00
 8d0:	61765f64 	cmnvs	r6, r4, ror #30
 8d4:	7473006c 	ldrbtvc	r0, [r3], #-108	; 0xffffff94
 8d8:	75007461 	strvc	r7, [r0, #-1121]	; 0xfffffb9f
 8dc:	5f747261 	svcpl	0x00747261
 8e0:	5f6e6163 	svcpl	0x006e6163
 8e4:	63746567 	cmnvs	r4, #432013312	; 0x19c00000
 8e8:	49504700 	ldmdbmi	r0, {r8, r9, sl, lr}^
 8ec:	55465f4f 	strbpl	r5, [r6, #-3919]	; 0xfffff0b1
 8f0:	4f5f434e 	svcmi	0x005f434e
 8f4:	55505455 	ldrbpl	r5, [r0, #-1109]	; 0xfffffbab
 8f8:	75610054 	strbvc	r0, [r1, #-84]!	; 0xffffffac
 8fc:	65705f78 	ldrbvs	r5, [r0, #-3960]!	; 0xfffff088
 900:	68706972 	ldmdavs	r0!, {r1, r4, r5, r6, r8, fp, sp, lr}^
 904:	61750073 	cmnvs	r5, r3, ror r0
 908:	632e7472 			; <UNDEFINED> instruction: 0x632e7472
 90c:	72617500 	rsbvc	r7, r1, #0, 10
 910:	61635f74 	smcvs	13812	; 0x35f4
 914:	75705f6e 	ldrbvc	r5, [r0, #-3950]!	; 0xfffff092
 918:	75006374 	strvc	r6, [r0, #-884]	; 0xfffffc8c
 91c:	5f747261 	svcpl	0x00747261
 920:	695f7874 	ldmdbvs	pc, {r2, r4, r5, r6, fp, ip, sp, lr}^	; <UNPREDICTABLE>
 924:	6d655f73 	stclvs	15, cr5, [r5, #-460]!	; 0xfffffe34
 928:	00797470 	rsbseq	r7, r9, r0, ror r4
 92c:	4f495047 	svcmi	0x00495047
 930:	4e55465f 	mrcmi	6, 2, r4, cr5, cr15, {2}
 934:	4c415f43 	mcrrmi	15, 4, r5, r1, cr3
 938:	47003054 	smlsdmi	r0, r4, r0, r3
 93c:	5f4f4950 	svcpl	0x004f4950
 940:	434e5546 	movtmi	r5, #58694	; 0xe546
 944:	544c415f 	strbpl	r4, [ip], #-351	; 0xfffffea1
 948:	50470031 	subpl	r0, r7, r1, lsr r0
 94c:	465f4f49 	ldrbmi	r4, [pc], -r9, asr #30
 950:	5f434e55 	svcpl	0x00434e55
 954:	32544c41 	subscc	r4, r4, #16640	; 0x4100
 958:	49504700 	ldmdbmi	r0, {r8, r9, sl, lr}^
 95c:	55465f4f 	strbpl	r5, [r6, #-3919]	; 0xfffff0b1
 960:	415f434e 	cmpmi	pc, lr, asr #6
 964:	0033544c 	eorseq	r5, r3, ip, asr #8
 968:	4f495047 	svcmi	0x00495047
 96c:	4e55465f 	mrcmi	6, 2, r4, cr5, cr15, {2}
 970:	4c415f43 	mcrrmi	15, 4, r5, r1, cr3
 974:	2f003554 	svccs	0x00003554
 978:	656d6f68 	strbvs	r6, [sp, #-3944]!	; 0xfffff098
 97c:	676e652f 	strbvs	r6, [lr, -pc, lsr #10]!
 980:	2f72656c 	svccs	0x0072656c
 984:	73616c63 	cmnvc	r1, #25344	; 0x6300
 988:	73632f73 	cmnvc	r3, #460	; 0x1cc
 98c:	6c303432 	cfldrsvs	mvf3, [r0], #-200	; 0xffffff38
 990:	32322d78 	eorscc	r2, r2, #120, 26	; 0x1e00
 994:	2f727073 	svccs	0x00727073
 998:	7062696c 	rsbvc	r6, r2, ip, ror #18
 99c:	74732f69 	ldrbtvc	r2, [r3], #-3945	; 0xfffff097
 9a0:	2d666661 	stclcs	6, cr6, [r6, #-388]!	; 0xfffffe7c
 9a4:	76697270 			; <UNDEFINED> instruction: 0x76697270
 9a8:	00657461 	rsbeq	r7, r5, r1, ror #8
 9ac:	64756162 	ldrbtvs	r6, [r5], #-354	; 0xfffffe9e
 9b0:	78756100 	ldmdavc	r5!, {r8, sp, lr}^
 9b4:	616e655f 	cmnvs	lr, pc, asr r5
 9b8:	73656c62 	cmnvc	r5, #25088	; 0x6200
 9bc:	72617500 	rsbvc	r7, r1, #0, 10
 9c0:	65675f74 	strbvs	r5, [r7, #-3956]!	; 0xfffff08c
 9c4:	47006374 	smlsdxmi	r0, r4, r3, r6
 9c8:	4320554e 			; <UNDEFINED> instruction: 0x4320554e
 9cc:	31203939 			; <UNDEFINED> instruction: 0x31203939
 9d0:	2e332e30 	mrccs	14, 1, r2, cr3, cr0, {1}
 9d4:	30322031 	eorscc	r2, r2, r1, lsr r0
 9d8:	38303132 	ldmdacc	r0!, {r1, r4, r5, r8, ip, sp}
 9dc:	28203432 	stmdacs	r0!, {r1, r4, r5, sl, ip, sp}
 9e0:	656c6572 	strbvs	r6, [ip, #-1394]!	; 0xfffffa8e
 9e4:	29657361 	stmdbcs	r5!, {r0, r5, r6, r8, r9, ip, sp, lr}^
 9e8:	636d2d20 	cmnvs	sp, #32, 26	; 0x800
 9ec:	613d7570 	teqvs	sp, r0, ror r5
 9f0:	31316d72 	teqcc	r1, r2, ror sp
 9f4:	7a6a3637 	bvc	1a8e2d8 <__bss_end__+0x1a82fe0>
 9f8:	20732d66 	rsbscs	r2, r3, r6, ror #26
 9fc:	75746d2d 	ldrbvc	r6, [r4, #-3373]!	; 0xfffff2d3
 a00:	613d656e 	teqvs	sp, lr, ror #10
 a04:	31316d72 	teqcc	r1, r2, ror sp
 a08:	7a6a3637 	bvc	1a8e2ec <__bss_end__+0x1a82ff4>
 a0c:	20732d66 	rsbscs	r2, r3, r6, ror #26
 a10:	6c666d2d 	stclvs	13, cr6, [r6], #-180	; 0xffffff4c
 a14:	2d74616f 	ldfcse	f6, [r4, #-444]!	; 0xfffffe44
 a18:	3d696261 	sfmcc	f6, 2, [r9, #-388]!	; 0xfffffe7c
 a1c:	74666f73 	strbtvc	r6, [r6], #-3955	; 0xfffff08d
 a20:	616d2d20 	cmnvs	sp, r0, lsr #26
 a24:	2d206d72 	stccs	13, cr6, [r0, #-456]!	; 0xfffffe38
 a28:	6372616d 	cmnvs	r2, #1073741851	; 0x4000001b
 a2c:	72613d68 	rsbvc	r3, r1, #104, 26	; 0x1a00
 a30:	6b36766d 	blvs	d9e3ec <__bss_end__+0xd930f4>
 a34:	672d207a 			; <UNDEFINED> instruction: 0x672d207a
 a38:	20626467 	rsbcs	r6, r2, r7, ror #8
 a3c:	20674f2d 	rsbcs	r4, r7, sp, lsr #30
 a40:	6474732d 	ldrbtvs	r7, [r4], #-813	; 0xfffffcd3
 a44:	756e673d 	strbvc	r6, [lr, #-1853]!	; 0xfffff8c3
 a48:	2d203939 			; <UNDEFINED> instruction: 0x2d203939
 a4c:	65726666 	ldrbvs	r6, [r2, #-1638]!	; 0xfffff99a
 a50:	61747365 	cmnvs	r4, r5, ror #6
 a54:	6e69646e 	cdpvs	4, 6, cr6, cr9, cr14, {3}
 a58:	6e630067 	cdpvs	0, 6, cr0, cr3, cr7, {3}
 a5c:	75006c74 	strvc	r6, [r0, #-3188]	; 0xfffff38c
 a60:	5f747261 	svcpl	0x00747261
 a64:	61736964 	cmnvs	r3, r4, ror #18
 a68:	00656c62 	rsbeq	r6, r5, r2, ror #24
 a6c:	74726175 	ldrbtvc	r6, [r2], #-373	; 0xfffffe8b
 a70:	7361685f 	cmnvc	r1, #6225920	; 0x5f0000
 a74:	7461645f 	strbtvc	r6, [r1], #-1119	; 0xfffffba1
 a78:	50470061 	subpl	r0, r7, r1, rrx
 a7c:	465f4f49 	ldrbmi	r4, [pc], -r9, asr #30
 a80:	5f434e55 	svcpl	0x00434e55
 a84:	34544c41 	ldrbcc	r4, [r4], #-3137	; 0xfffff3bf
 a88:	5f726f00 	svcpl	0x00726f00
 a8c:	32336e69 	eorscc	r6, r3, #1680	; 0x690
 a90:	72637300 	rsbvc	r7, r3, #0, 6
 a94:	68637461 	stmdavs	r3!, {r0, r5, r6, sl, ip, sp, lr}^
 a98:	72617500 	rsbvc	r7, r1, #0, 10
 a9c:	6e610074 	mcrvs	0, 3, r0, cr1, cr4, {3}
 aa0:	6e695f64 	cdpvs	15, 6, cr5, cr9, cr4, {3}
 aa4:	75003233 	strvc	r3, [r0, #-563]	; 0xfffffdcd
 aa8:	5f747261 	svcpl	0x00747261
 aac:	63747570 	cmnvs	r4, #112, 10	; 0x1c000000
 ab0:	49504700 	ldmdbmi	r0, {r8, r9, sl, lr}^
 ab4:	55465f4f 	strbpl	r5, [r6, #-3919]	; 0xfffff0b1
 ab8:	495f434e 	ldmdbmi	pc, {r1, r2, r3, r6, r8, r9, lr}^	; <UNPREDICTABLE>
 abc:	5455504e 	ldrbpl	r5, [r5], #-78	; 0xffffffb2
 ac0:	69706700 	ldmdbvs	r0!, {r8, r9, sl, sp, lr}^
 ac4:	65735f6f 	ldrbvs	r5, [r3, #-3951]!	; 0xfffff091
 ac8:	75665f74 	strbvc	r5, [r6, #-3956]!	; 0xfffff08c
 acc:	6974636e 	ldmdbvs	r4!, {r1, r2, r3, r5, r6, r8, r9, sp, lr}^
 ad0:	67006e6f 	strvs	r6, [r0, -pc, ror #28]
 ad4:	32337465 	eorscc	r7, r3, #1694498816	; 0x65000000
 ad8:	616d6b00 	cmnvs	sp, r0, lsl #22
 adc:	636f6c6c 	cmnvs	pc, #108, 24	; 0x6c00
 ae0:	6165685f 	cmnvs	r5, pc, asr r8
 ae4:	74735f70 	ldrbtvc	r5, [r3], #-3952	; 0xfffff090
 ae8:	00747261 	rsbseq	r7, r4, r1, ror #4
 aec:	5f78616d 	svcpl	0x0078616d
 af0:	7479626e 	ldrbtvc	r6, [r9], #-622	; 0xfffffd92
 af4:	68007365 	stmdavs	r0, {r0, r2, r5, r6, r8, r9, ip, sp, lr}
 af8:	5f706165 	svcpl	0x00706165
 afc:	0078616d 	rsbseq	r6, r8, sp, ror #2
 b00:	6572666b 	ldrbvs	r6, [r2, #-1643]!	; 0xfffff995
 b04:	6c615f65 	stclvs	15, cr5, [r1], #-404	; 0xfffffe6c
 b08:	6f72006c 	svcvs	0x0072006c
 b0c:	75646e75 	strbvc	r6, [r4, #-3701]!	; 0xfffff18b
 b10:	666b0070 			; <UNDEFINED> instruction: 0x666b0070
 b14:	5f656572 	svcpl	0x00656572
 b18:	00706f70 	rsbseq	r6, r0, r0, ror pc
 b1c:	67696c61 	strbvs	r6, [r9, -r1, ror #24]!
 b20:	6e656d6e 	cdpvs	13, 6, cr6, cr5, cr14, {3}
 b24:	616d0074 	smcvs	53252	; 0xd004
 b28:	33755f78 	cmncc	r5, #120, 30	; 0x1e0
 b2c:	6e4f0032 	mcrvs	0, 2, r0, cr15, cr2, {1}
 b30:	00424d65 	subeq	r4, r2, r5, ror #26
 b34:	6c616d6b 	stclvs	13, cr6, [r1], #-428	; 0xfffffe54
 b38:	5f636f6c 	svcpl	0x00636f6c
 b3c:	70616568 	rsbvc	r6, r1, r8, ror #10
 b40:	646e655f 	strbtvs	r6, [lr], #-1375	; 0xfffffaa1
 b44:	616d6b00 	cmnvs	sp, r0, lsl #22
 b48:	636f6c6c 	cmnvs	pc, #108, 24	; 0x6c00
 b4c:	746f6e5f 	strbtvc	r6, [pc], #-3679	; b54 <__code_start__-0x74ac>
 b50:	6f72657a 	svcvs	0x0072657a
 b54:	5f736900 	svcpl	0x00736900
 b58:	32776f70 	rsbscc	r6, r7, #112, 30	; 0x1c0
 b5c:	616d6b00 	cmnvs	sp, r0, lsl #22
 b60:	636f6c6c 	cmnvs	pc, #108, 24	; 0x6c00
 b64:	6b00632e 	blvs	19824 <__bss_end__+0xe52c>
 b68:	6c6c616d 	stfvse	f6, [ip], #-436	; 0xfffffe4c
 b6c:	695f636f 	ldmdbvs	pc, {r0, r1, r2, r3, r5, r6, r8, r9, sp, lr}^	; <UNPREDICTABLE>
 b70:	0074696e 	rsbseq	r6, r4, lr, ror #18
 b74:	615f7369 	cmpvs	pc, r9, ror #6
 b78:	6e67696c 	vnmulvs.f16	s13, s14, s25	; <UNPREDICTABLE>
 b7c:	6b006465 	blvs	19d18 <__bss_end__+0xea20>
 b80:	6c6c616d 	stfvse	f6, [ip], #-436	; 0xfffffe4c
 b84:	685f636f 	ldmdavs	pc, {r0, r1, r2, r3, r5, r6, r8, r9, sp, lr}^	; <UNPREDICTABLE>
 b88:	5f706165 	svcpl	0x00706165
 b8c:	00727470 	rsbseq	r7, r2, r0, ror r4
 b90:	5f697072 	svcpl	0x00697072
 b94:	65736572 	ldrbvs	r6, [r3, #-1394]!	; 0xfffffa8e
 b98:	75705f74 	ldrbvc	r5, [r0, #-3956]!	; 0xfffff08c
 b9c:	6b006374 	blvs	19974 <__bss_end__+0xe67c>
 ba0:	6c6c616d 	stfvse	f6, [ip], #-436	; 0xfffffe4c
 ba4:	615f636f 	cmpvs	pc, pc, ror #6
 ba8:	6e67696c 	vnmulvs.f16	s13, s14, s25	; <UNPREDICTABLE>
 bac:	67006465 	strvs	r6, [r0, -r5, ror #8]
 bb0:	5f6f6970 	svcpl	0x006f6970
 bb4:	30726c63 	rsbscc	r6, r2, r3, ror #24
 bb8:	69706700 	ldmdbvs	r0!, {r8, r9, sl, sp, lr}^
 bbc:	65735f6f 	ldrbvs	r5, [r3, #-3951]!	; 0xfffff091
 bc0:	67003074 	smlsdxvs	r0, r4, r0, r3
 bc4:	5f6f6970 	svcpl	0x006f6970
 bc8:	74697277 	strbtvc	r7, [r9], #-631	; 0xfffffd89
 bcc:	45440065 	strbmi	r0, [r4, #-101]	; 0xffffff9b
 bd0:	41565f56 	cmpmi	r6, r6, asr pc
 bd4:	0032334c 	eorseq	r3, r2, ip, asr #6
 bd8:	6f697067 	svcvs	0x00697067
 bdc:	6165725f 	cmnvs	r5, pc, asr r2
 be0:	2f2e0064 	svccs	0x002e0064
 be4:	2f637273 	svccs	0x00637273
 be8:	6f697067 	svcvs	0x00697067
 bec:	6700632e 	strvs	r6, [r0, -lr, lsr #6]
 bf0:	5f6f6970 	svcpl	0x006f6970
 bf4:	5f746573 	svcpl	0x00746573
 bf8:	75706e69 	ldrbvc	r6, [r0, #-3689]!	; 0xfffff197
 bfc:	70670074 	rsbvc	r0, r7, r4, ror r0
 c00:	735f6f69 	cmpvc	pc, #420	; 0x1a4
 c04:	6f5f7465 	svcvs	0x005f7465
 c08:	67006666 	strvs	r6, [r0, -r6, ror #12]
 c0c:	5f6f6970 	svcpl	0x006f6970
 c10:	5f746573 	svcpl	0x00746573
 c14:	7074756f 	rsbsvc	r7, r4, pc, ror #10
 c18:	67007475 	smlsdxvs	r0, r5, r4, r7
 c1c:	5f6f6970 	svcpl	0x006f6970
 c20:	636e7566 	cmnvs	lr, #427819008	; 0x19800000
 c24:	6700745f 	smlsdvs	r0, pc, r4, r7	; <UNPREDICTABLE>
 c28:	5f6f6970 	svcpl	0x006f6970
 c2c:	3076656c 	rsbscc	r6, r6, ip, ror #10
 c30:	6e616200 	cdpvs	2, 6, cr6, cr1, cr0, {0}
 c34:	7067006b 	rsbvc	r0, r7, fp, rrx
 c38:	735f6f69 	cmpvc	pc, #420	; 0x1a4
 c3c:	6f5f7465 	svcvs	0x005f7465
 c40:	6e69006e 	cdpvs	0, 6, cr0, cr9, cr14, {3}
 c44:	6e726574 	mrcvs	5, 3, r6, cr2, cr4, {3}
 c48:	705f6c61 	subsvc	r6, pc, r1, ror #24
 c4c:	68637475 	stmdavs	r3!, {r0, r2, r4, r5, r6, sl, ip, sp, lr}^
 c50:	72007261 	andvc	r7, r0, #268435462	; 0x10000006
 c54:	735f6970 	cmpvc	pc, #112, 18	; 0x1c0000
 c58:	705f7465 	subsvc	r7, pc, r5, ror #8
 c5c:	00637475 	rsbeq	r7, r3, r5, ror r4
 c60:	696c2f2e 	stmdbvs	ip!, {r1, r2, r3, r5, r8, r9, sl, fp, sp}^
 c64:	702f6362 	eorvc	r6, pc, r2, ror #6
 c68:	68637475 	stmdavs	r3!, {r0, r2, r4, r5, r6, sl, ip, sp, lr}^
 c6c:	632e7261 			; <UNDEFINED> instruction: 0x632e7261
 c70:	6c2f2e00 	stcvs	14, cr2, [pc], #-0	; c78 <__code_start__-0x7388>
 c74:	2f636269 	svccs	0x00636269
 c78:	63727473 	cmnvs	r2, #1929379840	; 0x73000000
 c7c:	632e7461 			; <UNDEFINED> instruction: 0x632e7461
 c80:	73656400 	cmnvc	r5, #0, 8
 c84:	2f2e0074 	svccs	0x002e0074
 c88:	6362696c 	cmnvs	r2, #108, 18	; 0x1b0000
 c8c:	7274732f 	rsbsvc	r7, r4, #-1140850688	; 0xbc000000
 c90:	2e706d63 	cdpcs	13, 7, cr6, cr0, cr3, {3}
 c94:	2f2e0063 	svccs	0x002e0063
 c98:	6362696c 	cmnvs	r2, #108, 18	; 0x1b0000
 c9c:	7274732f 	rsbsvc	r7, r4, #-1140850688	; 0xbc000000
 ca0:	2e797063 	cdpcs	0, 7, cr7, cr9, cr3, {3}
 ca4:	2f2e0063 	svccs	0x002e0063
 ca8:	6362696c 	cmnvs	r2, #108, 18	; 0x1b0000
 cac:	7274732f 	rsbsvc	r7, r4, #-1140850688	; 0xbc000000
 cb0:	706d636e 	rsbvc	r6, sp, lr, ror #6
 cb4:	2e00632e 	cdpcs	3, 0, cr6, cr0, cr14, {1}
 cb8:	6174732f 	cmnvs	r4, pc, lsr #6
 cbc:	732d6666 			; <UNDEFINED> instruction: 0x732d6666
 cc0:	642f6372 	strtvs	r6, [pc], #-882	; cc8 <__code_start__-0x7338>
 cc4:	75616665 	strbvc	r6, [r1, #-1637]!	; 0xfffff99b
 cc8:	722d746c 	eorvc	r7, sp, #108, 8	; 0x6c000000
 ccc:	6f6f6265 	svcvs	0x006f6265
 cd0:	61632d74 	smcvs	13012	; 0x32d4
 cd4:	756f6c6c 	strbvc	r6, [pc, #-3180]!	; 70 <__code_start__-0x7f90>
 cd8:	00632e74 	rsbeq	r2, r3, r4, ror lr

Disassembly of section .debug_frame:

00000000 <.debug_frame>:
   0:	0000000c 	andeq	r0, r0, ip
   4:	ffffffff 			; <UNDEFINED> instruction: 0xffffffff
   8:	7c020001 	stcvc	0, cr0, [r2], {1}
   c:	000d0c0e 	andeq	r0, sp, lr, lsl #24
  10:	0000001c 	andeq	r0, r0, ip, lsl r0
  14:	00000000 	andeq	r0, r0, r0
  18:	00008048 	andeq	r8, r0, r8, asr #32
  1c:	00000014 	andeq	r0, r0, r4, lsl r0
  20:	420c0d42 	andmi	r0, ip, #4224	; 0x1080
  24:	038d048b 	orreq	r0, sp, #-1962934272	; 0x8b000000
  28:	0c42028e 	sfmeq	f0, 2, [r2], {142}	; 0x8e
  2c:	0000040b 	andeq	r0, r0, fp, lsl #8
  30:	00000028 	andeq	r0, r0, r8, lsr #32
  34:	00000000 	andeq	r0, r0, r0
  38:	00008068 	andeq	r8, r0, r8, rrx
  3c:	000000d4 	ldrdeq	r0, [r0], -r4
  40:	420c0d42 	andmi	r0, ip, #4224	; 0x1080
  44:	06850784 	streq	r0, [r5], r4, lsl #15
  48:	048b0586 	streq	r0, [fp], #1414	; 0x586
  4c:	028e038d 	addeq	r0, lr, #872415234	; 0x34000002
  50:	040b0c42 	streq	r0, [fp], #-3138	; 0xfffff3be
  54:	0c0a4a02 			; <UNDEFINED> instruction: 0x0c0a4a02
  58:	0b421c0d 	bleq	1087094 <__bss_end__+0x107bd9c>
  5c:	0000000c 	andeq	r0, r0, ip
  60:	ffffffff 			; <UNDEFINED> instruction: 0xffffffff
  64:	7c020001 	stcvc	0, cr0, [r2], {1}
  68:	000d0c0e 	andeq	r0, sp, lr, lsl #24
  6c:	0000001c 	andeq	r0, r0, ip, lsl r0
  70:	0000005c 	andeq	r0, r0, ip, asr r0
  74:	00008150 	andeq	r8, r0, r0, asr r1
  78:	0000001c 	andeq	r0, r0, ip, lsl r0
  7c:	420c0d42 	andmi	r0, ip, #4224	; 0x1080
  80:	038d048b 	orreq	r0, sp, #-1962934272	; 0x8b000000
  84:	0c42028e 	sfmeq	f0, 2, [r2], {142}	; 0x8e
  88:	0000040b 	andeq	r0, r0, fp, lsl #8
  8c:	0000001c 	andeq	r0, r0, ip, lsl r0
  90:	0000005c 	andeq	r0, r0, ip, asr r0
  94:	0000817c 	andeq	r8, r0, ip, ror r1
  98:	0000001c 	andeq	r0, r0, ip, lsl r0
  9c:	420c0d42 	andmi	r0, ip, #4224	; 0x1080
  a0:	038d048b 	orreq	r0, sp, #-1962934272	; 0x8b000000
  a4:	0c42028e 	sfmeq	f0, 2, [r2], {142}	; 0x8e
  a8:	0000040b 	andeq	r0, r0, fp, lsl #8
  ac:	0000001c 	andeq	r0, r0, ip, lsl r0
  b0:	0000005c 	andeq	r0, r0, ip, asr r0
  b4:	000081ac 	andeq	r8, r0, ip, lsr #3
  b8:	00000014 	andeq	r0, r0, r4, lsl r0
  bc:	420c0d42 	andmi	r0, ip, #4224	; 0x1080
  c0:	038d048b 	orreq	r0, sp, #-1962934272	; 0x8b000000
  c4:	0c42028e 	sfmeq	f0, 2, [r2], {142}	; 0x8e
  c8:	0000040b 	andeq	r0, r0, fp, lsl #8
  cc:	00000020 	andeq	r0, r0, r0, lsr #32
  d0:	0000005c 	andeq	r0, r0, ip, asr r0
  d4:	000081d0 	ldrdeq	r8, [r0], -r0
  d8:	00000020 	andeq	r0, r0, r0, lsr #32
  dc:	420c0d42 	andmi	r0, ip, #4224	; 0x1080
  e0:	05850684 	streq	r0, [r5, #1668]	; 0x684
  e4:	038d048b 	orreq	r0, sp, #-1962934272	; 0x8b000000
  e8:	0c42028e 	sfmeq	f0, 2, [r2], {142}	; 0x8e
  ec:	0000040b 	andeq	r0, r0, fp, lsl #8
  f0:	00000024 	andeq	r0, r0, r4, lsr #32
  f4:	0000005c 	andeq	r0, r0, ip, asr r0
  f8:	00008204 	andeq	r8, r0, r4, lsl #4
  fc:	00000038 	andeq	r0, r0, r8, lsr r0
 100:	420c0d42 	andmi	r0, ip, #4224	; 0x1080
 104:	07850884 	streq	r0, [r5, r4, lsl #17]
 108:	05870686 	streq	r0, [r7, #1670]	; 0x686
 10c:	038d048b 	orreq	r0, sp, #-1962934272	; 0x8b000000
 110:	0c42028e 	sfmeq	f0, 2, [r2], {142}	; 0x8e
 114:	0000040b 	andeq	r0, r0, fp, lsl #8
 118:	00000020 	andeq	r0, r0, r0, lsr #32
 11c:	0000005c 	andeq	r0, r0, ip, asr r0
 120:	00008254 	andeq	r8, r0, r4, asr r2
 124:	00000060 	andeq	r0, r0, r0, rrx
 128:	420c0d42 	andmi	r0, ip, #4224	; 0x1080
 12c:	05850684 	streq	r0, [r5, #1668]	; 0x684
 130:	038d048b 	orreq	r0, sp, #-1962934272	; 0x8b000000
 134:	0c42028e 	sfmeq	f0, 2, [r2], {142}	; 0x8e
 138:	0000040b 	andeq	r0, r0, fp, lsl #8
 13c:	0000002c 	andeq	r0, r0, ip, lsr #32
 140:	0000005c 	andeq	r0, r0, ip, asr r0
 144:	000082c0 	andeq	r8, r0, r0, asr #5
 148:	0000019c 	muleq	r0, ip, r1
 14c:	420c0d42 	andmi	r0, ip, #4224	; 0x1080
 150:	07850884 	streq	r0, [r5, r4, lsl #17]
 154:	05870686 	streq	r0, [r7, #1670]	; 0x686
 158:	038d048b 	orreq	r0, sp, #-1962934272	; 0x8b000000
 15c:	0c42028e 	sfmeq	f0, 2, [r2], {142}	; 0x8e
 160:	a202040b 	andge	r0, r2, #184549376	; 0xb000000
 164:	200d0c0a 	andcs	r0, sp, sl, lsl #24
 168:	00000b42 	andeq	r0, r0, r2, asr #22
 16c:	00000028 	andeq	r0, r0, r8, lsr #32
 170:	0000005c 	andeq	r0, r0, ip, asr r0
 174:	00008468 	andeq	r8, r0, r8, ror #8
 178:	000000cc 	andeq	r0, r0, ip, asr #1
 17c:	420c0d42 	andmi	r0, ip, #4224	; 0x1080
 180:	06850784 	streq	r0, [r5], r4, lsl #15
 184:	048b0586 	streq	r0, [fp], #1414	; 0x586
 188:	028e038d 	addeq	r0, lr, #872415234	; 0x34000002
 18c:	040b0c42 	streq	r0, [fp], #-3138	; 0xfffff3be
 190:	0d0c5802 	stceq	8, cr5, [ip, #-8]
 194:	0000001c 	andeq	r0, r0, ip, lsl r0
 198:	0000000c 	andeq	r0, r0, ip
 19c:	ffffffff 			; <UNDEFINED> instruction: 0xffffffff
 1a0:	7c020001 	stcvc	0, cr0, [r2], {1}
 1a4:	000d0c0e 	andeq	r0, sp, lr, lsl #24
 1a8:	0000001c 	andeq	r0, r0, ip, lsl r0
 1ac:	00000198 	muleq	r0, r8, r1
 1b0:	00008540 	andeq	r8, r0, r0, asr #10
 1b4:	000000c4 	andeq	r0, r0, r4, asr #1
 1b8:	420c0d42 	andmi	r0, ip, #4224	; 0x1080
 1bc:	038d048b 	orreq	r0, sp, #-1962934272	; 0x8b000000
 1c0:	0c42028e 	sfmeq	f0, 2, [r2], {142}	; 0x8e
 1c4:	0000040b 	andeq	r0, r0, fp, lsl #8
 1c8:	00000020 	andeq	r0, r0, r0, lsr #32
 1cc:	00000198 	muleq	r0, r8, r1
 1d0:	00008614 	andeq	r8, r0, r4, lsl r6
 1d4:	0000005c 	andeq	r0, r0, ip, asr r0
 1d8:	420c0d42 	andmi	r0, ip, #4224	; 0x1080
 1dc:	05850684 	streq	r0, [r5, #1668]	; 0x684
 1e0:	038d048b 	orreq	r0, sp, #-1962934272	; 0x8b000000
 1e4:	0c42028e 	sfmeq	f0, 2, [r2], {142}	; 0x8e
 1e8:	0000040b 	andeq	r0, r0, fp, lsl #8
 1ec:	00000020 	andeq	r0, r0, r0, lsr #32
 1f0:	00000198 	muleq	r0, r8, r1
 1f4:	00008680 	andeq	r8, r0, r0, lsl #13
 1f8:	000000b4 	strheq	r0, [r0], -r4
 1fc:	420c0d42 	andmi	r0, ip, #4224	; 0x1080
 200:	05850684 	streq	r0, [r5, #1668]	; 0x684
 204:	038d048b 	orreq	r0, sp, #-1962934272	; 0x8b000000
 208:	0c42028e 	sfmeq	f0, 2, [r2], {142}	; 0x8e
 20c:	0000040b 	andeq	r0, r0, fp, lsl #8
 210:	0000000c 	andeq	r0, r0, ip
 214:	ffffffff 			; <UNDEFINED> instruction: 0xffffffff
 218:	7c020001 	stcvc	0, cr0, [r2], {1}
 21c:	000d0c0e 	andeq	r0, sp, lr, lsl #24
 220:	0000001c 	andeq	r0, r0, ip, lsl r0
 224:	00000210 	andeq	r0, r0, r0, lsl r2
 228:	00008740 	andeq	r8, r0, r0, asr #14
 22c:	00000048 	andeq	r0, r0, r8, asr #32
 230:	420c0d42 	andmi	r0, ip, #4224	; 0x1080
 234:	038d048b 	orreq	r0, sp, #-1962934272	; 0x8b000000
 238:	0c42028e 	sfmeq	f0, 2, [r2], {142}	; 0x8e
 23c:	0000040b 	andeq	r0, r0, fp, lsl #8
 240:	00000020 	andeq	r0, r0, r0, lsr #32
 244:	00000210 	andeq	r0, r0, r0, lsl r2
 248:	00008794 	muleq	r0, r4, r7
 24c:	00000030 	andeq	r0, r0, r0, lsr r0
 250:	420c0d42 	andmi	r0, ip, #4224	; 0x1080
 254:	05850684 	streq	r0, [r5, #1668]	; 0x684
 258:	038d048b 	orreq	r0, sp, #-1962934272	; 0x8b000000
 25c:	0c42028e 	sfmeq	f0, 2, [r2], {142}	; 0x8e
 260:	0000040b 	andeq	r0, r0, fp, lsl #8
 264:	0000002c 	andeq	r0, r0, ip, lsr #32
 268:	00000210 	andeq	r0, r0, r0, lsl r2
 26c:	000087d0 	ldrdeq	r8, [r0], -r0
 270:	00000170 	andeq	r0, r0, r0, ror r1
 274:	420c0d42 	andmi	r0, ip, #4224	; 0x1080
 278:	08850984 	stmeq	r5, {r2, r7, r8, fp}
 27c:	06870786 	streq	r0, [r7], r6, lsl #15
 280:	048b0588 	streq	r0, [fp], #1416	; 0x588
 284:	028e038d 	addeq	r0, lr, #872415234	; 0x34000002
 288:	040b0c42 	streq	r0, [fp], #-3138	; 0xfffff3be
 28c:	0d0c9e02 	stceq	14, cr9, [ip, #-8]
 290:	00000024 	andeq	r0, r0, r4, lsr #32
 294:	00000020 	andeq	r0, r0, r0, lsr #32
 298:	00000210 	andeq	r0, r0, r0, lsl r2
 29c:	00008950 	andeq	r8, r0, r0, asr r9
 2a0:	000000ac 	andeq	r0, r0, ip, lsr #1
 2a4:	420c0d42 	andmi	r0, ip, #4224	; 0x1080
 2a8:	038d048b 	orreq	r0, sp, #-1962934272	; 0x8b000000
 2ac:	0c42028e 	sfmeq	f0, 2, [r2], {142}	; 0x8e
 2b0:	4402040b 	strmi	r0, [r2], #-1035	; 0xfffffbf5
 2b4:	00100d0c 	andseq	r0, r0, ip, lsl #26
 2b8:	00000028 	andeq	r0, r0, r8, lsr #32
 2bc:	00000210 	andeq	r0, r0, r0, lsl r2
 2c0:	00008a0c 	andeq	r8, r0, ip, lsl #20
 2c4:	000000fc 	strdeq	r0, [r0], -ip
 2c8:	420c0d42 	andmi	r0, ip, #4224	; 0x1080
 2cc:	09850a84 	stmibeq	r5, {r2, r7, r9, fp}
 2d0:	07870886 	streq	r0, [r7, r6, lsl #17]
 2d4:	05890688 	streq	r0, [r9, #1672]	; 0x688
 2d8:	038d048b 	orreq	r0, sp, #-1962934272	; 0x8b000000
 2dc:	0c42028e 	sfmeq	f0, 2, [r2], {142}	; 0x8e
 2e0:	0000040b 	andeq	r0, r0, fp, lsl #8
 2e4:	0000002c 	andeq	r0, r0, ip, lsr #32
 2e8:	00000210 	andeq	r0, r0, r0, lsl r2
 2ec:	00008b18 	andeq	r8, r0, r8, lsl fp
 2f0:	000000e4 	andeq	r0, r0, r4, ror #1
 2f4:	420c0d42 	andmi	r0, ip, #4224	; 0x1080
 2f8:	08850984 	stmeq	r5, {r2, r7, r8, fp}
 2fc:	06870786 	streq	r0, [r7], r6, lsl #15
 300:	048b0588 	streq	r0, [fp], #1416	; 0x588
 304:	028e038d 	addeq	r0, lr, #872415234	; 0x34000002
 308:	040b0c42 	streq	r0, [fp], #-3138	; 0xfffff3be
 30c:	0d0c5c02 	stceq	12, cr5, [ip, #-8]
 310:	00000024 	andeq	r0, r0, r4, lsr #32
 314:	00000028 	andeq	r0, r0, r8, lsr #32
 318:	00000210 	andeq	r0, r0, r0, lsl r2
 31c:	00008c08 	andeq	r8, r0, r8, lsl #24
 320:	000000ac 	andeq	r0, r0, ip, lsr #1
 324:	420c0d42 	andmi	r0, ip, #4224	; 0x1080
 328:	05850684 	streq	r0, [r5, #1668]	; 0x684
 32c:	038d048b 	orreq	r0, sp, #-1962934272	; 0x8b000000
 330:	0c42028e 	sfmeq	f0, 2, [r2], {142}	; 0x8e
 334:	0a66040b 	beq	1981368 <__bss_end__+0x1976070>
 338:	42180d0c 	andsmi	r0, r8, #12, 26	; 0x300
 33c:	0000000b 	andeq	r0, r0, fp
 340:	0000001c 	andeq	r0, r0, ip, lsl r0
 344:	00000210 	andeq	r0, r0, r0, lsl r2
 348:	00008cc8 	andeq	r8, r0, r8, asr #25
 34c:	0000003c 	andeq	r0, r0, ip, lsr r0
 350:	420c0d42 	andmi	r0, ip, #4224	; 0x1080
 354:	038d048b 	orreq	r0, sp, #-1962934272	; 0x8b000000
 358:	0c42028e 	sfmeq	f0, 2, [r2], {142}	; 0x8e
 35c:	0000040b 	andeq	r0, r0, fp, lsl #8
 360:	00000024 	andeq	r0, r0, r4, lsr #32
 364:	00000210 	andeq	r0, r0, r0, lsl r2
 368:	00008d18 	andeq	r8, r0, r8, lsl sp
 36c:	000000d4 	ldrdeq	r0, [r0], -r4
 370:	420c0d42 	andmi	r0, ip, #4224	; 0x1080
 374:	07850884 	streq	r0, [r5, r4, lsl #17]
 378:	05870686 	streq	r0, [r7, #1670]	; 0x686
 37c:	038d048b 	orreq	r0, sp, #-1962934272	; 0x8b000000
 380:	0c42028e 	sfmeq	f0, 2, [r2], {142}	; 0x8e
 384:	0000040b 	andeq	r0, r0, fp, lsl #8
 388:	0000001c 	andeq	r0, r0, ip, lsl r0
 38c:	00000210 	andeq	r0, r0, r0, lsl r2
 390:	00008e00 	andeq	r8, r0, r0, lsl #28
 394:	00000014 	andeq	r0, r0, r4, lsl r0
 398:	420c0d42 	andmi	r0, ip, #4224	; 0x1080
 39c:	038d048b 	orreq	r0, sp, #-1962934272	; 0x8b000000
 3a0:	0c42028e 	sfmeq	f0, 2, [r2], {142}	; 0x8e
 3a4:	0000040b 	andeq	r0, r0, fp, lsl #8
 3a8:	0000001c 	andeq	r0, r0, ip, lsl r0
 3ac:	00000210 	andeq	r0, r0, r0, lsl r2
 3b0:	00008e28 	andeq	r8, r0, r8, lsr #28
 3b4:	00000050 	andeq	r0, r0, r0, asr r0
 3b8:	420c0d42 	andmi	r0, ip, #4224	; 0x1080
 3bc:	038d048b 	orreq	r0, sp, #-1962934272	; 0x8b000000
 3c0:	0c42028e 	sfmeq	f0, 2, [r2], {142}	; 0x8e
 3c4:	0000040b 	andeq	r0, r0, fp, lsl #8
 3c8:	00000020 	andeq	r0, r0, r0, lsr #32
 3cc:	00000210 	andeq	r0, r0, r0, lsl r2
 3d0:	00008e90 	muleq	r0, r0, lr
 3d4:	00000058 	andeq	r0, r0, r8, asr r0
 3d8:	420c0d42 	andmi	r0, ip, #4224	; 0x1080
 3dc:	05850684 	streq	r0, [r5, #1668]	; 0x684
 3e0:	038d048b 	orreq	r0, sp, #-1962934272	; 0x8b000000
 3e4:	0c42028e 	sfmeq	f0, 2, [r2], {142}	; 0x8e
 3e8:	0000040b 	andeq	r0, r0, fp, lsl #8
 3ec:	0000001c 	andeq	r0, r0, ip, lsl r0
 3f0:	00000210 	andeq	r0, r0, r0, lsl r2
 3f4:	00008ef4 	strdeq	r8, [r0], -r4
 3f8:	00000018 	andeq	r0, r0, r8, lsl r0
 3fc:	420c0d42 	andmi	r0, ip, #4224	; 0x1080
 400:	038d048b 	orreq	r0, sp, #-1962934272	; 0x8b000000
 404:	0c42028e 	sfmeq	f0, 2, [r2], {142}	; 0x8e
 408:	0000040b 	andeq	r0, r0, fp, lsl #8
 40c:	0000001c 	andeq	r0, r0, ip, lsl r0
 410:	00000210 	andeq	r0, r0, r0, lsl r2
 414:	00008f20 	andeq	r8, r0, r0, lsr #30
 418:	00000030 	andeq	r0, r0, r0, lsr r0
 41c:	420c0d42 	andmi	r0, ip, #4224	; 0x1080
 420:	038d048b 	orreq	r0, sp, #-1962934272	; 0x8b000000
 424:	0c42028e 	sfmeq	f0, 2, [r2], {142}	; 0x8e
 428:	0000040b 	andeq	r0, r0, fp, lsl #8
 42c:	0000000c 	andeq	r0, r0, ip
 430:	ffffffff 			; <UNDEFINED> instruction: 0xffffffff
 434:	7c020001 	stcvc	0, cr0, [r2], {1}
 438:	000d0c0e 	andeq	r0, sp, lr, lsl #24
 43c:	0000001c 	andeq	r0, r0, ip, lsl r0
 440:	0000042c 	andeq	r0, r0, ip, lsr #8
 444:	00008f58 	andeq	r8, r0, r8, asr pc
 448:	00000080 	andeq	r0, r0, r0, lsl #1
 44c:	84180e42 	ldrhi	r0, [r8], #-3650	; 0xfffff1be
 450:	86058506 	strhi	r8, [r5], -r6, lsl #10
 454:	88038704 	stmdahi	r3, {r2, r8, r9, sl, pc}
 458:	00018e02 	andeq	r8, r1, r2, lsl #28
 45c:	0000000c 	andeq	r0, r0, ip
 460:	0000042c 	andeq	r0, r0, ip, lsr #8
 464:	00008fd8 	ldrdeq	r8, [r0], -r8	; <UNPREDICTABLE>
 468:	00000020 	andeq	r0, r0, r0, lsr #32
 46c:	0000000c 	andeq	r0, r0, ip
 470:	ffffffff 			; <UNDEFINED> instruction: 0xffffffff
 474:	7c020001 	stcvc	0, cr0, [r2], {1}
 478:	000d0c0e 	andeq	r0, sp, lr, lsl #24
 47c:	00000014 	andeq	r0, r0, r4, lsl r0
 480:	0000046c 	andeq	r0, r0, ip, ror #8
 484:	00008ff8 	strdeq	r8, [r0], -r8	; <UNPREDICTABLE>
 488:	00000078 	andeq	r0, r0, r8, ror r0
 48c:	84080e42 	strhi	r0, [r8], #-3650	; 0xfffff1be
 490:	00018e02 	andeq	r8, r1, r2, lsl #28
 494:	0000000c 	andeq	r0, r0, ip
 498:	ffffffff 			; <UNDEFINED> instruction: 0xffffffff
 49c:	7c020001 	stcvc	0, cr0, [r2], {1}
 4a0:	000d0c0e 	andeq	r0, sp, lr, lsl #24
 4a4:	00000034 	andeq	r0, r0, r4, lsr r0
 4a8:	00000494 	muleq	r0, r4, r4
 4ac:	00009070 	andeq	r9, r0, r0, ror r0
 4b0:	00000058 	andeq	r0, r0, r8, asr r0
 4b4:	80100e42 	andshi	r0, r0, r2, asr #28
 4b8:	82038104 	andhi	r8, r3, #1
 4bc:	42018302 	andmi	r8, r1, #134217728	; 0x8000000
 4c0:	07841c0e 	streq	r1, [r4, lr, lsl #24]
 4c4:	058e0685 	streq	r0, [lr, #1669]	; 0x685
 4c8:	5a280e44 	bpl	a03de0 <__bss_end__+0x9f8ae8>
 4cc:	ce421c0e 	cdpgt	12, 4, cr1, cr2, cr14, {0}
 4d0:	100ec4c5 	andne	ip, lr, r5, asr #9
 4d4:	c1c2c342 	bicgt	ip, r2, r2, asr #6
 4d8:	00000ec0 	andeq	r0, r0, r0, asr #29
 4dc:	0000000c 	andeq	r0, r0, ip
 4e0:	ffffffff 			; <UNDEFINED> instruction: 0xffffffff
 4e4:	7c020001 	stcvc	0, cr0, [r2], {1}
 4e8:	000d0c0e 	andeq	r0, sp, lr, lsl #24
 4ec:	00000018 	andeq	r0, r0, r8, lsl r0
 4f0:	000004dc 	ldrdeq	r0, [r0], -ip
 4f4:	000090c8 	andeq	r9, r0, r8, asr #1
 4f8:	00000038 	andeq	r0, r0, r8, lsr r0
 4fc:	84100e42 	ldrhi	r0, [r0], #-3650	; 0xfffff1be
 500:	86038504 	strhi	r8, [r3], -r4, lsl #10
 504:	00018e02 	andeq	r8, r1, r2, lsl #28
 508:	0000000c 	andeq	r0, r0, ip
 50c:	ffffffff 			; <UNDEFINED> instruction: 0xffffffff
 510:	7c020001 	stcvc	0, cr0, [r2], {1}
 514:	000d0c0e 	andeq	r0, sp, lr, lsl #24
 518:	0000002c 	andeq	r0, r0, ip, lsr #32
 51c:	00000508 	andeq	r0, r0, r8, lsl #10
 520:	00009100 	andeq	r9, r0, r0, lsl #2
 524:	00000328 	andeq	r0, r0, r8, lsr #6
 528:	84180e42 	ldrhi	r0, [r8], #-3650	; 0xfffff1be
 52c:	86058506 	strhi	r8, [r5], -r6, lsl #10
 530:	88038704 	stmdahi	r3, {r2, r8, r9, sl, pc}
 534:	46018e02 	strmi	r8, [r1], -r2, lsl #28
 538:	c002600e 	andgt	r6, r2, lr
 53c:	42180e0a 	andsmi	r0, r8, #160	; 0xa0
 540:	0a8e020b 	beq	fe380d74 <__bss_end__+0xfe375a7c>
 544:	0b42180e 	bleq	1086584 <__bss_end__+0x107b28c>
 548:	00000014 	andeq	r0, r0, r4, lsl r0
 54c:	00000508 	andeq	r0, r0, r8, lsl #10
 550:	00009428 	andeq	r9, r0, r8, lsr #8
 554:	00000060 	andeq	r0, r0, r0, rrx
 558:	8e040e52 	mcrhi	14, 0, r0, cr4, cr2, {2}
 55c:	100e4401 	andne	r4, lr, r1, lsl #8
 560:	0000002c 	andeq	r0, r0, ip, lsr #32
 564:	00000508 	andeq	r0, r0, r8, lsl #10
 568:	00009488 	andeq	r9, r0, r8, lsl #9
 56c:	0000062c 	andeq	r0, r0, ip, lsr #12
 570:	84240e42 	strthi	r0, [r4], #-3650	; 0xfffff1be
 574:	86088509 	strhi	r8, [r8], -r9, lsl #10
 578:	88068707 	stmdahi	r6, {r0, r1, r2, r8, r9, sl, pc}
 57c:	8a048905 	bhi	122998 <__bss_end__+0x1176a0>
 580:	8e028b03 	vmlahi.f64	d8, d2, d3
 584:	c00e5201 	andgt	r5, lr, r1, lsl #4
 588:	0a860202 	beq	fe180d98 <__bss_end__+0xfe175aa0>
 58c:	0b42240e 	bleq	10895cc <__bss_end__+0x107e2d4>
 590:	0000000c 	andeq	r0, r0, ip
 594:	ffffffff 			; <UNDEFINED> instruction: 0xffffffff
 598:	7c020001 	stcvc	0, cr0, [r2], {1}
 59c:	000d0c0e 	andeq	r0, sp, lr, lsl #24
 5a0:	00000014 	andeq	r0, r0, r4, lsl r0
 5a4:	00000590 	muleq	r0, r0, r5
 5a8:	00009ab4 			; <UNDEFINED> instruction: 0x00009ab4
 5ac:	0000002c 	andeq	r0, r0, ip, lsr #32
 5b0:	84080e44 	strhi	r0, [r8], #-3652	; 0xfffff1bc
 5b4:	00018e02 	andeq	r8, r1, r2, lsl #28
 5b8:	0000000c 	andeq	r0, r0, ip
 5bc:	ffffffff 			; <UNDEFINED> instruction: 0xffffffff
 5c0:	7c020001 	stcvc	0, cr0, [r2], {1}
 5c4:	000d0c0e 	andeq	r0, sp, lr, lsl #24
 5c8:	00000018 	andeq	r0, r0, r8, lsl r0
 5cc:	000005b8 			; <UNDEFINED> instruction: 0x000005b8
 5d0:	00009ae0 	andeq	r9, r0, r0, ror #21
 5d4:	000000f8 	strdeq	r0, [r0], -r8
 5d8:	84100e42 	ldrhi	r0, [r0], #-3650	; 0xfffff1be
 5dc:	86038504 	strhi	r8, [r3], -r4, lsl #10
 5e0:	00018e02 	andeq	r8, r1, r2, lsl #28
 5e4:	0000000c 	andeq	r0, r0, ip
 5e8:	ffffffff 			; <UNDEFINED> instruction: 0xffffffff
 5ec:	7c020001 	stcvc	0, cr0, [r2], {1}
 5f0:	000d0c0e 	andeq	r0, sp, lr, lsl #24
 5f4:	0000000c 	andeq	r0, r0, ip
 5f8:	000005e4 	andeq	r0, r0, r4, ror #11
 5fc:	00009bd8 	ldrdeq	r9, [r0], -r8
 600:	00000004 	andeq	r0, r0, r4
 604:	0000000c 	andeq	r0, r0, ip
 608:	ffffffff 			; <UNDEFINED> instruction: 0xffffffff
 60c:	7c020001 	stcvc	0, cr0, [r2], {1}
 610:	000d0c0e 	andeq	r0, sp, lr, lsl #24
 614:	0000000c 	andeq	r0, r0, ip
 618:	00000604 	andeq	r0, r0, r4, lsl #12
 61c:	00009bdc 	ldrdeq	r9, [r0], -ip
 620:	00000018 	andeq	r0, r0, r8, lsl r0
 624:	0000000c 	andeq	r0, r0, ip
 628:	00000604 	andeq	r0, r0, r4, lsl #12
 62c:	00009bf4 	strdeq	r9, [r0], -r4
 630:	00000014 	andeq	r0, r0, r4, lsl r0
 634:	00000014 	andeq	r0, r0, r4, lsl r0
 638:	00000604 	andeq	r0, r0, r4, lsl #12
 63c:	00009c08 	andeq	r9, r0, r8, lsl #24
 640:	00000060 	andeq	r0, r0, r0, rrx
 644:	84080e42 	strhi	r0, [r8], #-3650	; 0xfffff1be
 648:	00018e02 	andeq	r8, r1, r2, lsl #28
 64c:	0000000c 	andeq	r0, r0, ip
 650:	ffffffff 			; <UNDEFINED> instruction: 0xffffffff
 654:	7c020001 	stcvc	0, cr0, [r2], {1}
 658:	000d0c0e 	andeq	r0, sp, lr, lsl #24
 65c:	0000000c 	andeq	r0, r0, ip
 660:	0000064c 	andeq	r0, r0, ip, asr #12
 664:	00009c68 	andeq	r9, r0, r8, ror #24
 668:	0000000c 	andeq	r0, r0, ip
 66c:	00000014 	andeq	r0, r0, r4, lsl r0
 670:	0000064c 	andeq	r0, r0, ip, asr #12
 674:	00009c74 	andeq	r9, r0, r4, ror ip
 678:	00000024 	andeq	r0, r0, r4, lsr #32
 67c:	84080e42 	strhi	r0, [r8], #-3650	; 0xfffff1be
 680:	00018e02 	andeq	r8, r1, r2, lsl #28
 684:	0000001c 	andeq	r0, r0, ip, lsl r0
 688:	0000064c 	andeq	r0, r0, ip, asr #12
 68c:	00009c98 	muleq	r0, r8, ip
 690:	00000048 	andeq	r0, r0, r8, asr #32
 694:	84180e42 	ldrhi	r0, [r8], #-3650	; 0xfffff1be
 698:	86058506 	strhi	r8, [r5], -r6, lsl #10
 69c:	88038704 	stmdahi	r3, {r2, r8, r9, sl, pc}
 6a0:	00018e02 	andeq	r8, r1, r2, lsl #28
 6a4:	0000001c 	andeq	r0, r0, ip, lsl r0
 6a8:	0000064c 	andeq	r0, r0, ip, asr #12
 6ac:	00009ce0 	andeq	r9, r0, r0, ror #25
 6b0:	00000050 	andeq	r0, r0, r0, asr r0
 6b4:	84180e42 	ldrhi	r0, [r8], #-3650	; 0xfffff1be
 6b8:	86058506 	strhi	r8, [r5], -r6, lsl #10
 6bc:	88038704 	stmdahi	r3, {r2, r8, r9, sl, pc}
 6c0:	00018e02 	andeq	r8, r1, r2, lsl #28
 6c4:	0000001c 	andeq	r0, r0, ip, lsl r0
 6c8:	0000064c 	andeq	r0, r0, ip, asr #12
 6cc:	00009d30 	andeq	r9, r0, r0, lsr sp
 6d0:	00000054 	andeq	r0, r0, r4, asr r0
 6d4:	84180e42 	ldrhi	r0, [r8], #-3650	; 0xfffff1be
 6d8:	86058506 	strhi	r8, [r5], -r6, lsl #10
 6dc:	88038704 	stmdahi	r3, {r2, r8, r9, sl, pc}
 6e0:	00018e02 	andeq	r8, r1, r2, lsl #28
 6e4:	0000000c 	andeq	r0, r0, ip
 6e8:	ffffffff 			; <UNDEFINED> instruction: 0xffffffff
 6ec:	7c020001 	stcvc	0, cr0, [r2], {1}
 6f0:	000d0c0e 	andeq	r0, sp, lr, lsl #24
 6f4:	00000018 	andeq	r0, r0, r8, lsl r0
 6f8:	000006e4 	andeq	r0, r0, r4, ror #13
 6fc:	00009d84 	andeq	r9, r0, r4, lsl #27
 700:	00000020 	andeq	r0, r0, r0, lsr #32
 704:	84100e42 	ldrhi	r0, [r0], #-3650	; 0xfffff1be
 708:	86038504 	strhi	r8, [r3], -r4, lsl #10
 70c:	00018e02 	andeq	r8, r1, r2, lsl #28
 710:	00000018 	andeq	r0, r0, r8, lsl r0
 714:	000006e4 	andeq	r0, r0, r4, ror #13
 718:	00009da4 	andeq	r9, r0, r4, lsr #27
 71c:	00000020 	andeq	r0, r0, r0, lsr #32
 720:	84100e42 	ldrhi	r0, [r0], #-3650	; 0xfffff1be
 724:	86038504 	strhi	r8, [r3], -r4, lsl #10
 728:	00018e02 	andeq	r8, r1, r2, lsl #28
 72c:	00000014 	andeq	r0, r0, r4, lsl r0
 730:	000006e4 	andeq	r0, r0, r4, ror #13
 734:	00009dc4 	andeq	r9, r0, r4, asr #27
 738:	000000b0 	strheq	r0, [r0], -r0	; <UNPREDICTABLE>
 73c:	84080e42 	strhi	r0, [r8], #-3650	; 0xfffff1be
 740:	00018e02 	andeq	r8, r1, r2, lsl #28
 744:	00000014 	andeq	r0, r0, r4, lsl r0
 748:	000006e4 	andeq	r0, r0, r4, ror #13
 74c:	00009e74 	andeq	r9, r0, r4, ror lr
 750:	00000018 	andeq	r0, r0, r8, lsl r0
 754:	84080e42 	strhi	r0, [r8], #-3650	; 0xfffff1be
 758:	00018e02 	andeq	r8, r1, r2, lsl #28
 75c:	00000014 	andeq	r0, r0, r4, lsl r0
 760:	000006e4 	andeq	r0, r0, r4, ror #13
 764:	00009e8c 	andeq	r9, r0, ip, lsl #29
 768:	00000020 	andeq	r0, r0, r0, lsr #32
 76c:	84080e42 	strhi	r0, [r8], #-3650	; 0xfffff1be
 770:	00018e02 	andeq	r8, r1, r2, lsl #28
 774:	00000014 	andeq	r0, r0, r4, lsl r0
 778:	000006e4 	andeq	r0, r0, r4, ror #13
 77c:	00009eac 	andeq	r9, r0, ip, lsr #29
 780:	00000030 	andeq	r0, r0, r0, lsr r0
 784:	84080e42 	strhi	r0, [r8], #-3650	; 0xfffff1be
 788:	00018e02 	andeq	r8, r1, r2, lsl #28
 78c:	00000014 	andeq	r0, r0, r4, lsl r0
 790:	000006e4 	andeq	r0, r0, r4, ror #13
 794:	00009edc 	ldrdeq	r9, [r0], -ip
 798:	00000030 	andeq	r0, r0, r0, lsr r0
 79c:	84080e42 	strhi	r0, [r8], #-3650	; 0xfffff1be
 7a0:	00018e02 	andeq	r8, r1, r2, lsl #28
 7a4:	00000014 	andeq	r0, r0, r4, lsl r0
 7a8:	000006e4 	andeq	r0, r0, r4, ror #13
 7ac:	00009f0c 	andeq	r9, r0, ip, lsl #30
 7b0:	00000010 	andeq	r0, r0, r0, lsl r0
 7b4:	84080e42 	strhi	r0, [r8], #-3650	; 0xfffff1be
 7b8:	00018e02 	andeq	r8, r1, r2, lsl #28
 7bc:	00000014 	andeq	r0, r0, r4, lsl r0
 7c0:	000006e4 	andeq	r0, r0, r4, ror #13
 7c4:	00009f1c 	andeq	r9, r0, ip, lsl pc
 7c8:	00000020 	andeq	r0, r0, r0, lsr #32
 7cc:	84080e42 	strhi	r0, [r8], #-3650	; 0xfffff1be
 7d0:	00018e02 	andeq	r8, r1, r2, lsl #28
 7d4:	00000014 	andeq	r0, r0, r4, lsl r0
 7d8:	000006e4 	andeq	r0, r0, r4, ror #13
 7dc:	00009f3c 	andeq	r9, r0, ip, lsr pc
 7e0:	00000014 	andeq	r0, r0, r4, lsl r0
 7e4:	84080e42 	strhi	r0, [r8], #-3650	; 0xfffff1be
 7e8:	00018e02 	andeq	r8, r1, r2, lsl #28
 7ec:	00000014 	andeq	r0, r0, r4, lsl r0
 7f0:	000006e4 	andeq	r0, r0, r4, ror #13
 7f4:	00009f50 	andeq	r9, r0, r0, asr pc
 7f8:	00000024 	andeq	r0, r0, r4, lsr #32
 7fc:	84080e42 	strhi	r0, [r8], #-3650	; 0xfffff1be
 800:	00018e02 	andeq	r8, r1, r2, lsl #28
 804:	0000000c 	andeq	r0, r0, ip
 808:	ffffffff 			; <UNDEFINED> instruction: 0xffffffff
 80c:	7c020001 	stcvc	0, cr0, [r2], {1}
 810:	000d0c0e 	andeq	r0, sp, lr, lsl #24
 814:	0000000c 	andeq	r0, r0, ip
 818:	00000804 	andeq	r0, r0, r4, lsl #16
 81c:	00009f74 	andeq	r9, r0, r4, ror pc
 820:	00000010 	andeq	r0, r0, r0, lsl r0
 824:	0000000c 	andeq	r0, r0, ip
 828:	00000804 	andeq	r0, r0, r4, lsl #16
 82c:	00009f84 	andeq	r9, r0, r4, lsl #31
 830:	00000010 	andeq	r0, r0, r0, lsl r0
 834:	0000000c 	andeq	r0, r0, ip
 838:	00000804 	andeq	r0, r0, r4, lsl #16
 83c:	00009f94 	muleq	r0, r4, pc	; <UNPREDICTABLE>
 840:	00000010 	andeq	r0, r0, r0, lsl r0
 844:	0000001c 	andeq	r0, r0, ip, lsl r0
 848:	00000804 	andeq	r0, r0, r4, lsl #16
 84c:	00009fa4 	andeq	r9, r0, r4, lsr #31
 850:	0000009c 	muleq	r0, ip, r0
 854:	8e040e42 	cdphi	14, 0, cr0, cr4, cr2, {2}
 858:	100e4201 	andne	r4, lr, r1, lsl #4
 85c:	040e0a58 	streq	r0, [lr], #-2648	; 0xfffff5a8
 860:	00000b42 	andeq	r0, r0, r2, asr #22
 864:	00000014 	andeq	r0, r0, r4, lsl r0
 868:	00000804 	andeq	r0, r0, r4, lsl #16
 86c:	0000a040 	andeq	sl, r0, r0, asr #32
 870:	00000058 	andeq	r0, r0, r8, asr r0
 874:	84080e42 	strhi	r0, [r8], #-3650	; 0xfffff1be
 878:	00018e02 	andeq	r8, r1, r2, lsl #28
 87c:	0000001c 	andeq	r0, r0, ip, lsl r0
 880:	00000804 	andeq	r0, r0, r4, lsl #16
 884:	0000a098 	muleq	r0, r8, r0
 888:	00000098 	muleq	r0, r8, r0
 88c:	8e040e42 	cdphi	14, 0, cr0, cr4, cr2, {2}
 890:	100e4201 	andne	r4, lr, r1, lsl #4
 894:	040e0a58 	streq	r0, [lr], #-2648	; 0xfffff5a8
 898:	00000b42 	andeq	r0, r0, r2, asr #22
 89c:	00000020 	andeq	r0, r0, r0, lsr #32
 8a0:	00000804 	andeq	r0, r0, r4, lsl #16
 8a4:	0000a130 	andeq	sl, r0, r0, lsr r1
 8a8:	00000064 	andeq	r0, r0, r4, rrx
 8ac:	840c0e42 	strhi	r0, [ip], #-3650	; 0xfffff1be
 8b0:	8e028503 	cfsh32hi	mvfx8, mvfx2, #3
 8b4:	180e4201 	stmdane	lr, {r0, r9, lr}
 8b8:	0c0e0a54 			; <UNDEFINED> instruction: 0x0c0e0a54
 8bc:	00000b42 	andeq	r0, r0, r2, asr #22
 8c0:	0000001c 	andeq	r0, r0, ip, lsl r0
 8c4:	00000804 	andeq	r0, r0, r4, lsl #16
 8c8:	0000a194 	muleq	r0, r4, r1
 8cc:	00000118 	andeq	r0, r0, r8, lsl r1
 8d0:	8e040e42 	cdphi	14, 0, cr0, cr4, cr2, {2}
 8d4:	100e4201 	andne	r4, lr, r1, lsl #4
 8d8:	040e0a6c 	streq	r0, [lr], #-2668	; 0xfffff594
 8dc:	00000b42 	andeq	r0, r0, r2, asr #22
 8e0:	0000000c 	andeq	r0, r0, ip
 8e4:	00000804 	andeq	r0, r0, r4, lsl #16
 8e8:	0000a2ac 	andeq	sl, r0, ip, lsr #5
 8ec:	00000004 	andeq	r0, r0, r4
 8f0:	0000000c 	andeq	r0, r0, ip
 8f4:	00000804 	andeq	r0, r0, r4, lsl #16
 8f8:	0000a2b0 			; <UNDEFINED> instruction: 0x0000a2b0
 8fc:	00000014 	andeq	r0, r0, r4, lsl r0
 900:	00000014 	andeq	r0, r0, r4, lsl r0
 904:	00000804 	andeq	r0, r0, r4, lsl #16
 908:	0000a2c4 	andeq	sl, r0, r4, asr #5
 90c:	00000060 	andeq	r0, r0, r0, rrx
 910:	8e040e58 	mcrhi	14, 0, r0, cr4, cr8, {2}
 914:	100e4201 	andne	r4, lr, r1, lsl #4
 918:	0000000c 	andeq	r0, r0, ip
 91c:	ffffffff 			; <UNDEFINED> instruction: 0xffffffff
 920:	7c020001 	stcvc	0, cr0, [r2], {1}
 924:	000d0c0e 	andeq	r0, sp, lr, lsl #24
 928:	00000020 	andeq	r0, r0, r0, lsr #32
 92c:	00000918 	andeq	r0, r0, r8, lsl r9
 930:	0000a324 	andeq	sl, r0, r4, lsr #6
 934:	00000060 	andeq	r0, r0, r0, rrx
 938:	84100e48 	ldrhi	r0, [r0], #-3656	; 0xfffff1b8
 93c:	86038504 	strhi	r8, [r3], -r4, lsl #10
 940:	64018e02 	strvs	r8, [r1], #-3586	; 0xfffff1fe
 944:	c4c5c6ce 	strbgt	ip, [r5], #1742	; 0x6ce
 948:	0000000e 	andeq	r0, r0, lr
 94c:	00000020 	andeq	r0, r0, r0, lsr #32
 950:	00000918 	andeq	r0, r0, r8, lsl r9
 954:	0000a384 	andeq	sl, r0, r4, lsl #7
 958:	00000058 	andeq	r0, r0, r8, asr r0
 95c:	84100e46 	ldrhi	r0, [r0], #-3654	; 0xfffff1ba
 960:	86038504 	strhi	r8, [r3], -r4, lsl #10
 964:	62018e02 	andvs	r8, r1, #2, 28
 968:	c4c5c6ce 	strbgt	ip, [r5], #1742	; 0x6ce
 96c:	0000000e 	andeq	r0, r0, lr
 970:	0000000c 	andeq	r0, r0, ip
 974:	00000918 	andeq	r0, r0, r8, lsl r9
 978:	0000a3dc 	ldrdeq	sl, [r0], -ip
 97c:	00000018 	andeq	r0, r0, r8, lsl r0
 980:	0000000c 	andeq	r0, r0, ip
 984:	00000918 	andeq	r0, r0, r8, lsl r9
 988:	0000a3f4 	strdeq	sl, [r0], -r4
 98c:	00000018 	andeq	r0, r0, r8, lsl r0
 990:	00000020 	andeq	r0, r0, r0, lsr #32
 994:	00000918 	andeq	r0, r0, r8, lsl r9
 998:	0000a40c 	andeq	sl, r0, ip, lsl #8
 99c:	00000058 	andeq	r0, r0, r8, asr r0
 9a0:	84100e46 	ldrhi	r0, [r0], #-3654	; 0xfffff1ba
 9a4:	86038504 	strhi	r8, [r3], -r4, lsl #10
 9a8:	62018e02 	andvs	r8, r1, #2, 28
 9ac:	c4c5c6ce 	strbgt	ip, [r5], #1742	; 0x6ce
 9b0:	0000000e 	andeq	r0, r0, lr
 9b4:	0000000c 	andeq	r0, r0, ip
 9b8:	00000918 	andeq	r0, r0, r8, lsl r9
 9bc:	0000a464 	andeq	sl, r0, r4, ror #8
 9c0:	00000030 	andeq	r0, r0, r0, lsr r0
 9c4:	00000014 	andeq	r0, r0, r4, lsl r0
 9c8:	00000918 	andeq	r0, r0, r8, lsl r9
 9cc:	0000a494 	muleq	r0, r4, r4
 9d0:	00000028 	andeq	r0, r0, r8, lsr #32
 9d4:	84080e42 	strhi	r0, [r8], #-3650	; 0xfffff1be
 9d8:	00018e02 	andeq	r8, r1, r2, lsl #28
 9dc:	0000000c 	andeq	r0, r0, ip
 9e0:	ffffffff 			; <UNDEFINED> instruction: 0xffffffff
 9e4:	7c020001 	stcvc	0, cr0, [r2], {1}
 9e8:	000d0c0e 	andeq	r0, sp, lr, lsl #24
 9ec:	00000014 	andeq	r0, r0, r4, lsl r0
 9f0:	000009dc 	ldrdeq	r0, [r0], -ip
 9f4:	0000a4bc 			; <UNDEFINED> instruction: 0x0000a4bc
 9f8:	00000014 	andeq	r0, r0, r4, lsl r0
 9fc:	84080e42 	strhi	r0, [r8], #-3650	; 0xfffff1be
 a00:	00018e02 	andeq	r8, r1, r2, lsl #28
 a04:	0000000c 	andeq	r0, r0, ip
 a08:	000009dc 	ldrdeq	r0, [r0], -ip
 a0c:	0000a4d0 	ldrdeq	sl, [r0], -r0
 a10:	00000018 	andeq	r0, r0, r8, lsl r0
 a14:	0000000c 	andeq	r0, r0, ip
 a18:	000009dc 	ldrdeq	r0, [r0], -ip
 a1c:	0000a4e8 	andeq	sl, r0, r8, ror #9
 a20:	00000010 	andeq	r0, r0, r0, lsl r0
 a24:	0000000c 	andeq	r0, r0, ip
 a28:	ffffffff 			; <UNDEFINED> instruction: 0xffffffff
 a2c:	7c020001 	stcvc	0, cr0, [r2], {1}
 a30:	000d0c0e 	andeq	r0, sp, lr, lsl #24
 a34:	0000000c 	andeq	r0, r0, ip
 a38:	00000a24 	andeq	r0, r0, r4, lsr #20
 a3c:	0000a4f8 	strdeq	sl, [r0], -r8
 a40:	0000002c 	andeq	r0, r0, ip, lsr #32
 a44:	0000000c 	andeq	r0, r0, ip
 a48:	ffffffff 			; <UNDEFINED> instruction: 0xffffffff
 a4c:	7c020001 	stcvc	0, cr0, [r2], {1}
 a50:	000d0c0e 	andeq	r0, sp, lr, lsl #24
 a54:	0000000c 	andeq	r0, r0, ip
 a58:	00000a44 	andeq	r0, r0, r4, asr #20
 a5c:	0000a524 	andeq	sl, r0, r4, lsr #10
 a60:	00000044 	andeq	r0, r0, r4, asr #32
 a64:	0000000c 	andeq	r0, r0, ip
 a68:	ffffffff 			; <UNDEFINED> instruction: 0xffffffff
 a6c:	7c020001 	stcvc	0, cr0, [r2], {1}
 a70:	000d0c0e 	andeq	r0, sp, lr, lsl #24
 a74:	0000000c 	andeq	r0, r0, ip
 a78:	00000a64 	andeq	r0, r0, r4, ror #20
 a7c:	0000a568 	andeq	sl, r0, r8, ror #10
 a80:	00000018 	andeq	r0, r0, r8, lsl r0
 a84:	0000000c 	andeq	r0, r0, ip
 a88:	ffffffff 			; <UNDEFINED> instruction: 0xffffffff
 a8c:	7c020001 	stcvc	0, cr0, [r2], {1}
 a90:	000d0c0e 	andeq	r0, sp, lr, lsl #24
 a94:	0000000c 	andeq	r0, r0, ip
 a98:	00000a84 	andeq	r0, r0, r4, lsl #21
 a9c:	0000a580 	andeq	sl, r0, r0, lsl #11
 aa0:	00000030 	andeq	r0, r0, r0, lsr r0
 aa4:	0000000c 	andeq	r0, r0, ip
 aa8:	ffffffff 			; <UNDEFINED> instruction: 0xffffffff
 aac:	7c020001 	stcvc	0, cr0, [r2], {1}
 ab0:	000d0c0e 	andeq	r0, sp, lr, lsl #24
 ab4:	0000000c 	andeq	r0, r0, ip
 ab8:	00000aa4 	andeq	r0, r0, r4, lsr #21
 abc:	0000a5b0 			; <UNDEFINED> instruction: 0x0000a5b0
 ac0:	00000004 	andeq	r0, r0, r4

Disassembly of section .debug_ranges:

00000000 <.debug_ranges>:
   0:	000001e4 	andeq	r0, r0, r4, ror #3
   4:	0000021c 	andeq	r0, r0, ip, lsl r2
   8:	00000244 	andeq	r0, r0, r4, asr #4
   c:	0000028c 	andeq	r0, r0, ip, lsl #5
	...
  18:	0000012c 	andeq	r0, r0, ip, lsr #2
  1c:	00000148 	andeq	r0, r0, r8, asr #2
  20:	00000154 	andeq	r0, r0, r4, asr r1
  24:	000001e0 	andeq	r0, r0, r0, ror #3
	...
  30:	0000012c 	andeq	r0, r0, ip, lsr #2
  34:	00000148 	andeq	r0, r0, r8, asr #2
  38:	00000164 	andeq	r0, r0, r4, ror #2
  3c:	000001e0 	andeq	r0, r0, r0, ror #3
	...
  48:	000002fc 	strdeq	r0, [r0], -ip
  4c:	00000304 	andeq	r0, r0, r4, lsl #6
  50:	00000310 	andeq	r0, r0, r0, lsl r3
  54:	0000036c 	andeq	r0, r0, ip, ror #6
	...
  60:	00000408 	andeq	r0, r0, r8, lsl #8
  64:	00000410 	andeq	r0, r0, r0, lsl r4
  68:	0000041c 	andeq	r0, r0, ip, lsl r4
  6c:	0000048c 	andeq	r0, r0, ip, lsl #9
	...
  78:	000005a4 	andeq	r0, r0, r4, lsr #11
  7c:	000005a8 	andeq	r0, r0, r8, lsr #11
  80:	000005ac 	andeq	r0, r0, ip, lsr #11
  84:	000005d0 	ldrdeq	r0, [r0], -r0	; <UNPREDICTABLE>
	...
  90:	000005f0 	strdeq	r0, [r0], -r0	; <UNPREDICTABLE>
  94:	000005f8 	strdeq	r0, [r0], -r8
  98:	000005fc 	strdeq	r0, [r0], -ip
  9c:	000006a4 	andeq	r0, r0, r4, lsr #13
	...
  a8:	00000600 	andeq	r0, r0, r0, lsl #12
  ac:	00000620 	andeq	r0, r0, r0, lsr #12
  b0:	00000634 	andeq	r0, r0, r4, lsr r6
  b4:	000006a4 	andeq	r0, r0, r4, lsr #13
	...
  c0:	00000600 	andeq	r0, r0, r0, lsl #12
  c4:	0000061c 	andeq	r0, r0, ip, lsl r6
  c8:	00000688 	andeq	r0, r0, r8, lsl #13
  cc:	000006a4 	andeq	r0, r0, r4, lsr #13
	...
  d8:	00000014 	andeq	r0, r0, r4, lsl r0
  dc:	00000020 	andeq	r0, r0, r0, lsr #32
  e0:	0000002c 	andeq	r0, r0, ip, lsr #32
  e4:	00000058 	andeq	r0, r0, r8, asr r0
  e8:	00000058 	andeq	r0, r0, r8, asr r0
  ec:	00000064 	andeq	r0, r0, r4, rrx
	...
  f8:	00000014 	andeq	r0, r0, r4, lsl r0
  fc:	00000018 	andeq	r0, r0, r8, lsl r0
 100:	0000002c 	andeq	r0, r0, ip, lsr #32
 104:	0000002c 	andeq	r0, r0, ip, lsr #32
 108:	00000034 	andeq	r0, r0, r4, lsr r0
 10c:	00000038 	andeq	r0, r0, r8, lsr r0
 110:	0000003c 	andeq	r0, r0, ip, lsr r0
 114:	00000050 	andeq	r0, r0, r0, asr r0
	...
 120:	0000002c 	andeq	r0, r0, ip, lsr #32
 124:	0000002c 	andeq	r0, r0, ip, lsr #32
 128:	00000038 	andeq	r0, r0, r8, lsr r0
 12c:	00000038 	andeq	r0, r0, r8, lsr r0
 130:	00000044 	andeq	r0, r0, r4, asr #32
 134:	0000004c 	andeq	r0, r0, ip, asr #32
	...
 140:	000000a4 	andeq	r0, r0, r4, lsr #1
 144:	00000148 	andeq	r0, r0, r8, asr #2
 148:	00000158 	andeq	r0, r0, r8, asr r1
 14c:	0000015c 	andeq	r0, r0, ip, asr r1
 150:	00000274 	andeq	r0, r0, r4, ror r2
 154:	00000278 	andeq	r0, r0, r8, ror r2
 158:	0000027c 	andeq	r0, r0, ip, ror r2
 15c:	00000280 	andeq	r0, r0, r0, lsl #5
 160:	00000288 	andeq	r0, r0, r8, lsl #5
 164:	0000029c 	muleq	r0, ip, r2
 168:	000002c0 	andeq	r0, r0, r0, asr #5
 16c:	000002cc 	andeq	r0, r0, ip, asr #5
 170:	000002f0 	strdeq	r0, [r0], -r0	; <UNPREDICTABLE>
 174:	000002f0 	strdeq	r0, [r0], -r0	; <UNPREDICTABLE>
 178:	000002f4 	strdeq	r0, [r0], -r4
 17c:	000002f8 	strdeq	r0, [r0], -r8
	...
 188:	00000148 	andeq	r0, r0, r8, asr #2
 18c:	00000158 	andeq	r0, r0, r8, asr r1
 190:	0000015c 	andeq	r0, r0, ip, asr r1
 194:	0000018c 	andeq	r0, r0, ip, lsl #3
 198:	0000029c 	muleq	r0, ip, r2
 19c:	000002ac 	andeq	r0, r0, ip, lsr #5
	...
 1a8:	000003c8 	andeq	r0, r0, r8, asr #7
 1ac:	000003d0 	ldrdeq	r0, [r0], -r0	; <UNPREDICTABLE>
 1b0:	00000404 	andeq	r0, r0, r4, lsl #8
 1b4:	000004ac 	andeq	r0, r0, ip, lsr #9
 1b8:	000004c0 	andeq	r0, r0, r0, asr #9
 1bc:	00000920 	andeq	r0, r0, r0, lsr #18
 1c0:	00000928 	andeq	r0, r0, r8, lsr #18
 1c4:	000009b4 			; <UNDEFINED> instruction: 0x000009b4
	...
 1d0:	000003c8 	andeq	r0, r0, r8, asr #7
 1d4:	000003d0 	ldrdeq	r0, [r0], -r0	; <UNPREDICTABLE>
 1d8:	00000504 	andeq	r0, r0, r4, lsl #10
 1dc:	000005d0 	ldrdeq	r0, [r0], -r0	; <UNPREDICTABLE>
 1e0:	00000800 	andeq	r0, r0, r0, lsl #16
 1e4:	00000888 	andeq	r0, r0, r8, lsl #17
 1e8:	00000930 	andeq	r0, r0, r0, lsr r9
 1ec:	000009b4 			; <UNDEFINED> instruction: 0x000009b4
	...
 1f8:	00000404 	andeq	r0, r0, r4, lsl #8
 1fc:	00000408 	andeq	r0, r0, r8, lsl #8
 200:	00000414 	andeq	r0, r0, r4, lsl r4
 204:	00000414 	andeq	r0, r0, r4, lsl r4
 208:	00000428 	andeq	r0, r0, r8, lsr #8
 20c:	0000042c 	andeq	r0, r0, ip, lsr #8
	...
 218:	000005fc 	strdeq	r0, [r0], -ip
 21c:	00000700 	andeq	r0, r0, r0, lsl #14
 220:	000007ec 	andeq	r0, r0, ip, ror #15
 224:	000007f4 	strdeq	r0, [r0], -r4
 228:	00000888 	andeq	r0, r0, r8, lsl #17
 22c:	00000894 	muleq	r0, r4, r8
 230:	000008a8 	andeq	r0, r0, r8, lsr #17
 234:	000008bc 			; <UNDEFINED> instruction: 0x000008bc
 238:	00000910 	andeq	r0, r0, r0, lsl r9
 23c:	00000920 	andeq	r0, r0, r0, lsr #18
	...
 248:	00000600 	andeq	r0, r0, r0, lsl #12
 24c:	00000604 	andeq	r0, r0, r4, lsl #12
 250:	00000608 	andeq	r0, r0, r8, lsl #12
 254:	000006b4 			; <UNDEFINED> instruction: 0x000006b4
 258:	000006cc 	andeq	r0, r0, ip, asr #13
 25c:	000006d0 	ldrdeq	r0, [r0], -r0	; <UNPREDICTABLE>
 260:	000008a8 	andeq	r0, r0, r8, lsr #17
 264:	000008b8 			; <UNDEFINED> instruction: 0x000008b8
 268:	00000910 	andeq	r0, r0, r0, lsl r9
 26c:	00000920 	andeq	r0, r0, r0, lsr #18
	...
 278:	000006b4 			; <UNDEFINED> instruction: 0x000006b4
 27c:	000006cc 	andeq	r0, r0, ip, asr #13
 280:	000006d0 	ldrdeq	r0, [r0], -r0	; <UNPREDICTABLE>
 284:	00000700 	andeq	r0, r0, r0, lsl #14
 288:	000007ec 	andeq	r0, r0, ip, ror #15
 28c:	000007f4 	strdeq	r0, [r0], -r4
 290:	00000888 	andeq	r0, r0, r8, lsl #17
 294:	00000894 	muleq	r0, r4, r8
 298:	000008b8 			; <UNDEFINED> instruction: 0x000008b8
 29c:	000008bc 			; <UNDEFINED> instruction: 0x000008bc
	...
 2a8:	00000700 	andeq	r0, r0, r0, lsl #14
 2ac:	00000708 	andeq	r0, r0, r8, lsl #14
 2b0:	0000070c 	andeq	r0, r0, ip, lsl #14
 2b4:	000007ec 	andeq	r0, r0, ip, ror #15
 2b8:	00000894 	muleq	r0, r4, r8
 2bc:	000008a8 	andeq	r0, r0, r8, lsr #17
	...
 2c8:	00000728 	andeq	r0, r0, r8, lsr #14
 2cc:	000007a4 	andeq	r0, r0, r4, lsr #15
 2d0:	000007ac 	andeq	r0, r0, ip, lsr #15
 2d4:	000007b0 			; <UNDEFINED> instruction: 0x000007b0
 2d8:	00000894 	muleq	r0, r4, r8
 2dc:	00000898 	muleq	r0, r8, r8
 2e0:	0000089c 	muleq	r0, ip, r8
 2e4:	000008a0 	andeq	r0, r0, r0, lsr #17
	...
 2f0:	000007a4 	andeq	r0, r0, r4, lsr #15
 2f4:	000007ac 	andeq	r0, r0, ip, lsr #15
 2f8:	000007b0 			; <UNDEFINED> instruction: 0x000007b0
 2fc:	000007ec 	andeq	r0, r0, ip, ror #15
 300:	00000898 	muleq	r0, r8, r8
 304:	0000089c 	muleq	r0, ip, r8
 308:	000008a0 	andeq	r0, r0, r0, lsr #17
 30c:	000008a8 	andeq	r0, r0, r8, lsr #17
	...
 318:	00009c08 	andeq	r9, r0, r8, lsl #24
 31c:	00009c08 	andeq	r9, r0, r8, lsl #24
 320:	00009c0c 	andeq	r9, r0, ip, lsl #24
 324:	00009c14 	andeq	r9, r0, r4, lsl ip
	...
 330:	00009bdc 	ldrdeq	r9, [r0], -ip
 334:	00009c68 	andeq	r9, r0, r8, ror #24
	...
 340:	00000030 	andeq	r0, r0, r0, lsr r0
 344:	00000030 	andeq	r0, r0, r0, lsr r0
 348:	00000038 	andeq	r0, r0, r8, lsr r0
 34c:	0000004c 	andeq	r0, r0, ip, asr #32
	...
 358:	0000004c 	andeq	r0, r0, ip, asr #32
 35c:	00000050 	andeq	r0, r0, r0, asr r0
 360:	00000050 	andeq	r0, r0, r0, asr r0
 364:	00000078 	andeq	r0, r0, r8, ror r0
	...
 370:	0000004c 	andeq	r0, r0, ip, asr #32
 374:	00000050 	andeq	r0, r0, r0, asr r0
 378:	00000050 	andeq	r0, r0, r0, asr r0
 37c:	00000060 	andeq	r0, r0, r0, rrx
 380:	00000064 	andeq	r0, r0, r4, rrx
 384:	00000068 	andeq	r0, r0, r8, rrx
	...
 390:	0000004c 	andeq	r0, r0, ip, asr #32
 394:	00000050 	andeq	r0, r0, r0, asr r0
 398:	00000054 	andeq	r0, r0, r4, asr r0
 39c:	00000060 	andeq	r0, r0, r0, rrx
	...
 3a8:	0000009c 	muleq	r0, ip, r0
 3ac:	000000a0 	andeq	r0, r0, r0, lsr #1
 3b0:	000000a0 	andeq	r0, r0, r0, lsr #1
 3b4:	000000c8 	andeq	r0, r0, r8, asr #1
	...
 3c0:	0000009c 	muleq	r0, ip, r0
 3c4:	000000a0 	andeq	r0, r0, r0, lsr #1
 3c8:	000000a0 	andeq	r0, r0, r0, lsr #1
 3cc:	000000b0 	strheq	r0, [r0], -r0	; <UNPREDICTABLE>
 3d0:	000000b4 	strheq	r0, [r0], -r4
 3d4:	000000b8 	strheq	r0, [r0], -r8
	...
 3e0:	0000009c 	muleq	r0, ip, r0
 3e4:	000000a0 	andeq	r0, r0, r0, lsr #1
 3e8:	000000a4 	andeq	r0, r0, r4, lsr #1
 3ec:	000000b0 	strheq	r0, [r0], -r0	; <UNPREDICTABLE>
	...
 3f8:	000000c8 	andeq	r0, r0, r8, asr #1
 3fc:	000000c8 	andeq	r0, r0, r8, asr #1
 400:	000000cc 	andeq	r0, r0, ip, asr #1
 404:	0000011c 	andeq	r0, r0, ip, lsl r1
	...
 410:	000000f0 	strdeq	r0, [r0], -r0	; <UNPREDICTABLE>
 414:	000000f4 	strdeq	r0, [r0], -r4
 418:	000000f4 	strdeq	r0, [r0], -r4
 41c:	0000011c 	andeq	r0, r0, ip, lsl r1
	...
 428:	000000f0 	strdeq	r0, [r0], -r0	; <UNPREDICTABLE>
 42c:	000000f4 	strdeq	r0, [r0], -r4
 430:	000000f4 	strdeq	r0, [r0], -r4
 434:	00000104 	andeq	r0, r0, r4, lsl #2
 438:	00000108 	andeq	r0, r0, r8, lsl #2
 43c:	0000010c 	andeq	r0, r0, ip, lsl #2
	...
 448:	000000f0 	strdeq	r0, [r0], -r0	; <UNPREDICTABLE>
 44c:	000000f4 	strdeq	r0, [r0], -r4
 450:	000000f8 	strdeq	r0, [r0], -r8
 454:	00000104 	andeq	r0, r0, r4, lsl #2
	...
 460:	00000134 	andeq	r0, r0, r4, lsr r1
 464:	00000134 	andeq	r0, r0, r4, lsr r1
 468:	00000134 	andeq	r0, r0, r4, lsr r1
 46c:	0000013c 	andeq	r0, r0, ip, lsr r1
	...
 478:	0000024c 	andeq	r0, r0, ip, asr #4
 47c:	00000264 	andeq	r0, r0, r4, ror #4
 480:	000002c8 	andeq	r0, r0, r8, asr #5
 484:	000002e8 	andeq	r0, r0, r8, ror #5
	...
 490:	00000008 	andeq	r0, r0, r8
 494:	0000000c 	andeq	r0, r0, ip
 498:	00000014 	andeq	r0, r0, r4, lsl r0
 49c:	00000054 	andeq	r0, r0, r4, asr r0
 4a0:	00000058 	andeq	r0, r0, r8, asr r0
 4a4:	00000060 	andeq	r0, r0, r0, rrx
	...
 4b0:	00000060 	andeq	r0, r0, r0, rrx
 4b4:	00000068 	andeq	r0, r0, r8, rrx
 4b8:	0000006c 	andeq	r0, r0, ip, rrx
 4bc:	000000ac 	andeq	r0, r0, ip, lsr #1
 4c0:	000000b0 	strheq	r0, [r0], -r0	; <UNPREDICTABLE>
 4c4:	000000b8 	strheq	r0, [r0], -r8
	...
 4d0:	00000068 	andeq	r0, r0, r8, rrx
 4d4:	00000068 	andeq	r0, r0, r8, rrx
 4d8:	0000006c 	andeq	r0, r0, ip, rrx
 4dc:	000000ac 	andeq	r0, r0, ip, lsr #1
 4e0:	000000b0 	strheq	r0, [r0], -r0	; <UNPREDICTABLE>
 4e4:	000000b8 	strheq	r0, [r0], -r8
	...
 4f0:	000000e8 	andeq	r0, r0, r8, ror #1
 4f4:	000000f0 	strdeq	r0, [r0], -r0	; <UNPREDICTABLE>
 4f8:	000000f4 	strdeq	r0, [r0], -r4
 4fc:	00000134 	andeq	r0, r0, r4, lsr r1
 500:	00000138 	andeq	r0, r0, r8, lsr r1
 504:	00000140 	andeq	r0, r0, r0, asr #2
	...
 510:	000000f0 	strdeq	r0, [r0], -r0	; <UNPREDICTABLE>
 514:	000000f0 	strdeq	r0, [r0], -r0	; <UNPREDICTABLE>
 518:	000000f4 	strdeq	r0, [r0], -r4
 51c:	00000134 	andeq	r0, r0, r4, lsr r1
 520:	00000138 	andeq	r0, r0, r8, lsr r1
 524:	00000140 	andeq	r0, r0, r0, asr #2
	...
 530:	00000144 	andeq	r0, r0, r4, asr #2
 534:	00000148 	andeq	r0, r0, r8, asr #2
 538:	00000150 	andeq	r0, r0, r0, asr r1
 53c:	0000015c 	andeq	r0, r0, ip, asr r1
	...
